; Listing generated by Microsoft (R) Optimizing Compiler Version 19.29.30145.0 

	TITLE	D:\git\src\IBK\IBK_DRFN\#DRfn-CS\_Obj\MultiChart\FloatingHogaDlg.obj
	.686P
	.XMM
	include listing.inc
	.model	flat

INCLUDELIB MSVCRT
INCLUDELIB OLDNAMES

PUBLIC	??_C@_0BE@FJPKENOB@RMSG_GETSIGNAL_REAL@		; `string'
PUBLIC	??_C@_0BB@CNOFPEHG@RMSG_SETQUERYOPT@		; `string'
PUBLIC	??_C@_0P@KHFCBIOH@RMSG_CHARTMAIN@		; `string'
PUBLIC	??_C@_0BC@MMPGLPDH@RMS_ANALYSIS_FUNC@		; `string'
PUBLIC	??_C@_0BA@HKNFENJL@RMSG_GET_USERID@		; `string'
PUBLIC	??_C@_0BG@CNPAHNGG@RMSG_CHANGE_SKINCOLOR@	; `string'
PUBLIC	??_C@_0BD@FLDNDDHK@RMSG_GET_SKINCOLOR@		; `string'
PUBLIC	??_C@_0BJ@JLKHIBIK@RMSG_CHANGEVERTSCALETYPE@	; `string'
PUBLIC	??_C@_0BG@LNLCJKPF@RMSG_CHANGE_CROSSLINE@	; `string'
PUBLIC	??_C@_0BH@IFDMIMBP@RMSG_ADD_PLATFORM_MENU@	; `string'
PUBLIC	??_C@_0BJ@OGNAJHHI@RMSG_SETINITIALCHARTDATA@	; `string'
PUBLIC	??_C@_0N@IIOKMIEH@RMSG_GETINFO@			; `string'
PUBLIC	??_C@_0N@HABLPHJG@RMSG_SETINFO@			; `string'
PUBLIC	??_C@_0P@BKKCOCLK@RMSG_INTERFACE@		; `string'
;	COMDAT ??_C@_0P@BKKCOCLK@RMSG_INTERFACE@
CONST	SEGMENT
??_C@_0P@BKKCOCLK@RMSG_INTERFACE@ DB 'RMSG_INTERFACE', 00H ; `string'
CONST	ENDS
;	COMDAT ??_C@_0N@HABLPHJG@RMSG_SETINFO@
CONST	SEGMENT
??_C@_0N@HABLPHJG@RMSG_SETINFO@ DB 'RMSG_SETINFO', 00H	; `string'
CONST	ENDS
;	COMDAT ??_C@_0N@IIOKMIEH@RMSG_GETINFO@
CONST	SEGMENT
??_C@_0N@IIOKMIEH@RMSG_GETINFO@ DB 'RMSG_GETINFO', 00H	; `string'
CONST	ENDS
;	COMDAT ??_C@_0BJ@OGNAJHHI@RMSG_SETINITIALCHARTDATA@
CONST	SEGMENT
??_C@_0BJ@OGNAJHHI@RMSG_SETINITIALCHARTDATA@ DB 'RMSG_SETINITIALCHARTDATA'
	DB	00H						; `string'
CONST	ENDS
;	COMDAT ??_C@_0BH@IFDMIMBP@RMSG_ADD_PLATFORM_MENU@
CONST	SEGMENT
??_C@_0BH@IFDMIMBP@RMSG_ADD_PLATFORM_MENU@ DB 'RMSG_ADD_PLATFORM_MENU', 00H ; `string'
CONST	ENDS
;	COMDAT ??_C@_0BG@LNLCJKPF@RMSG_CHANGE_CROSSLINE@
CONST	SEGMENT
??_C@_0BG@LNLCJKPF@RMSG_CHANGE_CROSSLINE@ DB 'RMSG_CHANGE_CROSSLINE', 00H ; `string'
CONST	ENDS
;	COMDAT ??_C@_0BJ@JLKHIBIK@RMSG_CHANGEVERTSCALETYPE@
CONST	SEGMENT
??_C@_0BJ@JLKHIBIK@RMSG_CHANGEVERTSCALETYPE@ DB 'RMSG_CHANGEVERTSCALETYPE'
	DB	00H						; `string'
CONST	ENDS
;	COMDAT ??_C@_0BD@FLDNDDHK@RMSG_GET_SKINCOLOR@
CONST	SEGMENT
??_C@_0BD@FLDNDDHK@RMSG_GET_SKINCOLOR@ DB 'RMSG_GET_SKINCOLOR', 00H ; `string'
CONST	ENDS
;	COMDAT ??_C@_0BG@CNPAHNGG@RMSG_CHANGE_SKINCOLOR@
CONST	SEGMENT
??_C@_0BG@CNPAHNGG@RMSG_CHANGE_SKINCOLOR@ DB 'RMSG_CHANGE_SKINCOLOR', 00H ; `string'
CONST	ENDS
;	COMDAT ??_C@_0BA@HKNFENJL@RMSG_GET_USERID@
CONST	SEGMENT
??_C@_0BA@HKNFENJL@RMSG_GET_USERID@ DB 'RMSG_GET_USERID', 00H ; `string'
CONST	ENDS
;	COMDAT ??_C@_0BC@MMPGLPDH@RMS_ANALYSIS_FUNC@
CONST	SEGMENT
??_C@_0BC@MMPGLPDH@RMS_ANALYSIS_FUNC@ DB 'RMS_ANALYSIS_FUNC', 00H ; `string'
CONST	ENDS
;	COMDAT ??_C@_0P@KHFCBIOH@RMSG_CHARTMAIN@
CONST	SEGMENT
??_C@_0P@KHFCBIOH@RMSG_CHARTMAIN@ DB 'RMSG_CHARTMAIN', 00H ; `string'
CONST	ENDS
;	COMDAT ??_C@_0BB@CNOFPEHG@RMSG_SETQUERYOPT@
CONST	SEGMENT
??_C@_0BB@CNOFPEHG@RMSG_SETQUERYOPT@ DB 'RMSG_SETQUERYOPT', 00H ; `string'
CONST	ENDS
;	COMDAT ??_C@_0BE@FJPKENOB@RMSG_GETSIGNAL_REAL@
CONST	SEGMENT
??_C@_0BE@FJPKENOB@RMSG_GETSIGNAL_REAL@ DB 'RMSG_GETSIGNAL_REAL', 00H ; `string'
CONST	ENDS
PUBLIC	?__empty_global_delete@@YAXPAX@Z		; __empty_global_delete
PUBLIC	?__empty_global_delete@@YAXPAXI@Z		; __empty_global_delete
PUBLIC	___local_stdio_scanf_options
PUBLIC	_sscanf
PUBLIC	?AfxCrtErrorCheck@@YAHH@Z			; AfxCrtErrorCheck
PUBLIC	??1CObject@@UAE@XZ				; CObject::~CObject
PUBLIC	??3CObject@@SGXPAX@Z				; CObject::operator delete
PUBLIC	?Serialize@CObject@@UAEXAAVCArchive@@@Z		; CObject::Serialize
PUBLIC	?AssertValid@CObject@@UBEXXZ			; CObject::AssertValid
PUBLIC	?Dump@CObject@@UBEXAAVCDumpContext@@@Z		; CObject::Dump
PUBLIC	??1CGdiObject@@UAE@XZ				; CGdiObject::~CGdiObject
PUBLIC	??_GCGdiObject@@UAEPAXI@Z			; CGdiObject::`scalar deleting destructor'
PUBLIC	??1CFont@@UAE@XZ				; CFont::~CFont
PUBLIC	??_GCFont@@UAEPAXI@Z				; CFont::`scalar deleting destructor'
PUBLIC	??1CBitmap@@UAE@XZ				; CBitmap::~CBitmap
PUBLIC	??_GCBitmap@@UAEPAXI@Z				; CBitmap::`scalar deleting destructor'
PUBLIC	?DoDataExchange@CWnd@@MAEXPAVCDataExchange@@@Z	; CWnd::DoDataExchange
PUBLIC	?BeginModalState@CWnd@@UAEXXZ			; CWnd::BeginModalState
PUBLIC	?EndModalState@CWnd@@UAEXXZ			; CWnd::EndModalState
PUBLIC	??_GCButton@@UAEPAXI@Z				; CButton::`scalar deleting destructor'
PUBLIC	??1CRscDlg@@UAE@XZ				; CRscDlg::~CRscDlg
PUBLIC	??_GCUtil@@UAEPAXI@Z				; CUtil::`scalar deleting destructor'
PUBLIC	??1_GV_ITEM@@QAE@XZ				; _GV_ITEM::~_GV_ITEM
PUBLIC	??0CKB_01230@@QAE@XZ				; CKB_01230::CKB_01230
PUBLIC	?Convert@CKB_01230@@UAEXPAU_k01230Out2@@@Z	; CKB_01230::Convert
PUBLIC	??1CKB_01230@@QAE@XZ				; CKB_01230::~CKB_01230
PUBLIC	??0CKBREAL_KXH1@@QAE@XZ				; CKBREAL_KXH1::CKBREAL_KXH1
PUBLIC	?Convert@CKBREAL_KXH1@@UAEXPAU_KXH1_OutBlock@@@Z ; CKBREAL_KXH1::Convert
PUBLIC	??1CKBREAL_KXH1@@QAE@XZ				; CKBREAL_KXH1::~CKBREAL_KXH1
PUBLIC	?Convert@CKBREAL_KXYS@@UAEXPAU_KXYS_OutBlock@@@Z ; CKBREAL_KXYS::Convert
PUBLIC	??1CKBREAL_KXYS@@QAE@XZ				; CKBREAL_KXYS::~CKBREAL_KXYS
PUBLIC	?SetMarkRealCurPrice@CFloatingHogaDlg@@QAEXPADH@Z ; CFloatingHogaDlg::SetMarkRealCurPrice
PUBLIC	??0CFloatingHogaDlg@@QAE@PAVCWnd@@@Z		; CFloatingHogaDlg::CFloatingHogaDlg
PUBLIC	??0?$CMap@GGV?$CStringT@DV?$StrTraitMFC_DLL@DV?$ChTraitsCRT@D@ATL@@@@@ATL@@V12@@@QAE@H@Z ; CMap<unsigned short,unsigned short,ATL::CStringT<char,StrTraitMFC_DLL<char,ATL::ChTraitsCRT<char> > >,ATL::CStringT<char,StrTraitMFC_DLL<char,ATL::ChTraitsCRT<char> > > >::CMap<unsigned short,unsigned short,ATL::CStringT<char,StrTraitMFC_DLL<char,ATL::ChTraitsCRT<char> > >,ATL::CStringT<char,StrTraitMFC_DLL<char,ATL::ChTraitsCRT<char> > > >
PUBLIC	??A?$CMap@GGV?$CStringT@DV?$StrTraitMFC_DLL@DV?$ChTraitsCRT@D@ATL@@@@@ATL@@V12@@@QAEAAV?$CStringT@DV?$StrTraitMFC_DLL@DV?$ChTraitsCRT@D@ATL@@@@@ATL@@G@Z ; CMap<unsigned short,unsigned short,ATL::CStringT<char,StrTraitMFC_DLL<char,ATL::ChTraitsCRT<char> > >,ATL::CStringT<char,StrTraitMFC_DLL<char,ATL::ChTraitsCRT<char> > > >::operator[]
PUBLIC	?RemoveAll@?$CMap@GGV?$CStringT@DV?$StrTraitMFC_DLL@DV?$ChTraitsCRT@D@ATL@@@@@ATL@@V12@@@QAEXXZ ; CMap<unsigned short,unsigned short,ATL::CStringT<char,StrTraitMFC_DLL<char,ATL::ChTraitsCRT<char> > >,ATL::CStringT<char,StrTraitMFC_DLL<char,ATL::ChTraitsCRT<char> > > >::RemoveAll
PUBLIC	?InitHashTable@?$CMap@GGV?$CStringT@DV?$StrTraitMFC_DLL@DV?$ChTraitsCRT@D@ATL@@@@@ATL@@V12@@@QAEXIH@Z ; CMap<unsigned short,unsigned short,ATL::CStringT<char,StrTraitMFC_DLL<char,ATL::ChTraitsCRT<char> > >,ATL::CStringT<char,StrTraitMFC_DLL<char,ATL::ChTraitsCRT<char> > > >::InitHashTable
PUBLIC	?NewAssoc@?$CMap@GGV?$CStringT@DV?$StrTraitMFC_DLL@DV?$ChTraitsCRT@D@ATL@@@@@ATL@@V12@@@IAEPAVCAssoc@1@G@Z ; CMap<unsigned short,unsigned short,ATL::CStringT<char,StrTraitMFC_DLL<char,ATL::ChTraitsCRT<char> > >,ATL::CStringT<char,StrTraitMFC_DLL<char,ATL::ChTraitsCRT<char> > > >::NewAssoc
PUBLIC	?GetAssocAt@?$CMap@GGV?$CStringT@DV?$StrTraitMFC_DLL@DV?$ChTraitsCRT@D@ATL@@@@@ATL@@V12@@@IBEPAVCAssoc@1@GAAI0@Z ; CMap<unsigned short,unsigned short,ATL::CStringT<char,StrTraitMFC_DLL<char,ATL::ChTraitsCRT<char> > >,ATL::CStringT<char,StrTraitMFC_DLL<char,ATL::ChTraitsCRT<char> > > >::GetAssocAt
PUBLIC	??1?$CMap@GGV?$CStringT@DV?$StrTraitMFC_DLL@DV?$ChTraitsCRT@D@ATL@@@@@ATL@@V12@@@UAE@XZ ; CMap<unsigned short,unsigned short,ATL::CStringT<char,StrTraitMFC_DLL<char,ATL::ChTraitsCRT<char> > >,ATL::CStringT<char,StrTraitMFC_DLL<char,ATL::ChTraitsCRT<char> > > >::~CMap<unsigned short,unsigned short,ATL::CStringT<char,StrTraitMFC_DLL<char,ATL::ChTraitsCRT<char> > >,ATL::CStringT<char,StrTraitMFC_DLL<char,ATL::ChTraitsCRT<char> > > >
PUBLIC	?Serialize@?$CMap@GGV?$CStringT@DV?$StrTraitMFC_DLL@DV?$ChTraitsCRT@D@ATL@@@@@ATL@@V12@@@UAEXAAVCArchive@@@Z ; CMap<unsigned short,unsigned short,ATL::CStringT<char,StrTraitMFC_DLL<char,ATL::ChTraitsCRT<char> > >,ATL::CStringT<char,StrTraitMFC_DLL<char,ATL::ChTraitsCRT<char> > > >::Serialize
PUBLIC	??_G?$CMap@GGV?$CStringT@DV?$StrTraitMFC_DLL@DV?$ChTraitsCRT@D@ATL@@@@@ATL@@V12@@@UAEPAXI@Z ; CMap<unsigned short,unsigned short,ATL::CStringT<char,StrTraitMFC_DLL<char,ATL::ChTraitsCRT<char> > >,ATL::CStringT<char,StrTraitMFC_DLL<char,ATL::ChTraitsCRT<char> > > >::`scalar deleting destructor'
PUBLIC	??0?$CArray@PAVCHogaData@@PAV1@@@QAE@XZ		; CArray<CHogaData *,CHogaData *>::CArray<CHogaData *,CHogaData *>
PUBLIC	?SetSize@?$CArray@PAVCHogaData@@PAV1@@@QAEXHH@Z	; CArray<CHogaData *,CHogaData *>::SetSize
PUBLIC	?SetAtGrow@?$CArray@PAVCHogaData@@PAV1@@@QAEXHPAVCHogaData@@@Z ; CArray<CHogaData *,CHogaData *>::SetAtGrow
PUBLIC	?Add@?$CArray@PAVCHogaData@@PAV1@@@QAEHPAVCHogaData@@@Z ; CArray<CHogaData *,CHogaData *>::Add
PUBLIC	?InsertAt@?$CArray@PAVCHogaData@@PAV1@@@QAEXHPAVCHogaData@@H@Z ; CArray<CHogaData *,CHogaData *>::InsertAt
PUBLIC	??1?$CArray@PAVCHogaData@@PAV1@@@UAE@XZ		; CArray<CHogaData *,CHogaData *>::~CArray<CHogaData *,CHogaData *>
PUBLIC	?Serialize@?$CArray@PAVCHogaData@@PAV1@@@UAEXAAVCArchive@@@Z ; CArray<CHogaData *,CHogaData *>::Serialize
PUBLIC	??_G?$CArray@PAVCHogaData@@PAV1@@@UAEPAXI@Z	; CArray<CHogaData *,CHogaData *>::`scalar deleting destructor'
PUBLIC	?HogaMemoryFree@CFloatingHogaDlg@@QAEXXZ	; CFloatingHogaDlg::HogaMemoryFree
PUBLIC	?SendTrHoga@CFloatingHogaDlg@@QAEXXZ		; CFloatingHogaDlg::SendTrHoga
PUBLIC	?RecvHogaData@CFloatingHogaDlg@@QAEXHPAD@Z	; CFloatingHogaDlg::RecvHogaData
PUBLIC	?SetRealHogaData@CFloatingHogaDlg@@QAEXAAVCKBREAL_KXH1@@@Z ; CFloatingHogaDlg::SetRealHogaData
PUBLIC	?SetRealHogaData@CFloatingHogaDlg@@QAEXKV?$CStringT@DV?$StrTraitMFC_DLL@DV?$ChTraitsCRT@D@ATL@@@@@ATL@@J@Z ; CFloatingHogaDlg::SetRealHogaData
PUBLIC	?SetRealYeShangData@CFloatingHogaDlg@@QAEXPBD@Z	; CFloatingHogaDlg::SetRealYeShangData
PUBLIC	?SetRealHogaData_Sub@CFloatingHogaDlg@@QAEXV?$CStringT@DV?$StrTraitMFC_DLL@DV?$ChTraitsCRT@D@ATL@@@@@ATL@@0H@Z ; CFloatingHogaDlg::SetRealHogaData_Sub
PUBLIC	?SetRealHogaData_Rem@CFloatingHogaDlg@@QAEXV?$CStringT@DV?$StrTraitMFC_DLL@DV?$ChTraitsCRT@D@ATL@@@@@ATL@@H@Z ; CFloatingHogaDlg::SetRealHogaData_Rem
PUBLIC	?CheckRealHogaDataWithinHogaData@CFloatingHogaDlg@@QAEHV?$CStringT@DV?$StrTraitMFC_DLL@DV?$ChTraitsCRT@D@ATL@@@@@ATL@@PAH@Z ; CFloatingHogaDlg::CheckRealHogaDataWithinHogaData
PUBLIC	?DisplayClear_AllHogaData@CFloatingHogaDlg@@QAEXXZ ; CFloatingHogaDlg::DisplayClear_AllHogaData
PUBLIC	?SetHogaData@CFloatingHogaDlg@@QAEXPADHH@Z	; CFloatingHogaDlg::SetHogaData
PUBLIC	?SetHogaData_Sub@CFloatingHogaDlg@@QAEXV?$CStringT@DV?$StrTraitMFC_DLL@DV?$ChTraitsCRT@D@ATL@@@@@ATL@@00H@Z ; CFloatingHogaDlg::SetHogaData_Sub
PUBLIC	?CompareNUpdateHogaData@CFloatingHogaDlg@@QAEXHHV?$CStringT@DV?$StrTraitMFC_DLL@DV?$ChTraitsCRT@D@ATL@@@@@ATL@@HK@Z ; CFloatingHogaDlg::CompareNUpdateHogaData
PUBLIC	?GetHogaGridBkColor@CFloatingHogaDlg@@QAEKH@Z	; CFloatingHogaDlg::GetHogaGridBkColor
PUBLIC	?InitGrid@CFloatingHogaDlg@@QAEXXZ		; CFloatingHogaDlg::InitGrid
PUBLIC	?InitGridRowCol@CFloatingHogaDlg@@QAEXXZ	; CFloatingHogaDlg::InitGridRowCol
PUBLIC	?ChangeGrid_AllWidth@CFloatingHogaDlg@@QAEXXZ	; CFloatingHogaDlg::ChangeGrid_AllWidth
PUBLIC	?InitGridFormat@CFloatingHogaDlg@@QAEXXZ	; CFloatingHogaDlg::InitGridFormat
PUBLIC	?ChangeGrid_RowHeight@CFloatingHogaDlg@@QAEXXZ	; CFloatingHogaDlg::ChangeGrid_RowHeight
PUBLIC	?ChangeGrid_ColumnWidth@CFloatingHogaDlg@@QAEXXZ ; CFloatingHogaDlg::ChangeGrid_ColumnWidth
PUBLIC	?PreTranslateMessage@CFloatingHogaDlg@@UAEHPAUtagMSG@@@Z ; CFloatingHogaDlg::PreTranslateMessage
PUBLIC	?DoDataExchange@CFloatingHogaDlg@@MAEXPAVCDataExchange@@@Z ; CFloatingHogaDlg::DoDataExchange
PUBLIC	?WindowProc@CFloatingHogaDlg@@MAEJIIJ@Z		; CFloatingHogaDlg::WindowProc
PUBLIC	?OnLButtonDown@CFloatingHogaDlg@@IAEXIVCPoint@@@Z ; CFloatingHogaDlg::OnLButtonDown
PUBLIC	?OnSize@CFloatingHogaDlg@@IAEXIHH@Z		; CFloatingHogaDlg::OnSize
PUBLIC	?OnInitDialog@CFloatingHogaDlg@@MAEHXZ		; CFloatingHogaDlg::OnInitDialog
PUBLIC	?OnLButtonDblClk@CFloatingHogaDlg@@IAEXIVCPoint@@@Z ; CFloatingHogaDlg::OnLButtonDblClk
PUBLIC	?OnLButtonUp@CFloatingHogaDlg@@IAEXIVCPoint@@@Z	; CFloatingHogaDlg::OnLButtonUp
PUBLIC	?OnMouseMove@CFloatingHogaDlg@@IAEXIVCPoint@@@Z	; CFloatingHogaDlg::OnMouseMove
PUBLIC	?OnDestroy@CFloatingHogaDlg@@IAEXXZ		; CFloatingHogaDlg::OnDestroy
PUBLIC	?OnSetCursor@CFloatingHogaDlg@@IAEHPAVCWnd@@II@Z ; CFloatingHogaDlg::OnSetCursor
PUBLIC	?OnPaint@CFloatingHogaDlg@@IAEXXZ		; CFloatingHogaDlg::OnPaint
PUBLIC	?OnButtonClose@CFloatingHogaDlg@@IAEXXZ		; CFloatingHogaDlg::OnButtonClose
PUBLIC	?OnEraseBkgnd@CFloatingHogaDlg@@IAEHPAVCDC@@@Z	; CFloatingHogaDlg::OnEraseBkgnd
PUBLIC	?OnNcHitTest@CFloatingHogaDlg@@IAEJVCPoint@@@Z	; CFloatingHogaDlg::OnNcHitTest
PUBLIC	?GetThisMessageMap@CFloatingHogaDlg@@KGPBUAFX_MSGMAP@@XZ ; CFloatingHogaDlg::GetThisMessageMap
PUBLIC	?GetMessageMap@CFloatingHogaDlg@@MBEPBUAFX_MSGMAP@@XZ ; CFloatingHogaDlg::GetMessageMap
PUBLIC	?MakeDrdsConnectAdvise@CFloatingHogaDlg@@QAEHXZ	; CFloatingHogaDlg::MakeDrdsConnectAdvise
PUBLIC	?MakeDrdsUnConnectUnAdvise@CFloatingHogaDlg@@QAEHXZ ; CFloatingHogaDlg::MakeDrdsUnConnectUnAdvise
PUBLIC	?OnCodeAdvise@CFloatingHogaDlg@@QAEXPBD@Z	; CFloatingHogaDlg::OnCodeAdvise
PUBLIC	?OnCodeUnAdvise@CFloatingHogaDlg@@QAEXPBD@Z	; CFloatingHogaDlg::OnCodeUnAdvise
PUBLIC	?RemoveExtra@CFloatingHogaDlg@@QAEXAAVCKBREAL_KXH1@@@Z ; CFloatingHogaDlg::RemoveExtra
PUBLIC	??_GCFloatingHogaDlg@@UAEPAXI@Z			; CFloatingHogaDlg::`scalar deleting destructor'
PUBLIC	??$SerializeElements@G@@YGXAAVCArchive@@PAGH@Z	; SerializeElements<unsigned short>
PUBLIC	??$SerializeElements@PAVCHogaData@@@@YGXAAVCArchive@@PAPAVCHogaData@@H@Z ; SerializeElements<CHogaData *>
PUBLIC	??$CompareElements@GG@@YGHPBG0@Z		; CompareElements<unsigned short,unsigned short>
PUBLIC	?_OptionsStorage@?1??__local_stdio_scanf_options@@9@4_KA ; `__local_stdio_scanf_options'::`2'::_OptionsStorage
PUBLIC	??_R0PAVCException@@@8				; CException * `RTTI Type Descriptor'
PUBLIC	??_C@_02DPKJAMEF@?$CFd@				; `string'
PUBLIC	??_C@_00CNPNBAHC@@				; `string'
PUBLIC	??_7CGdiObject@@6B@				; CGdiObject::`vftable'
PUBLIC	??_7CFont@@6B@					; CFont::`vftable'
PUBLIC	??_7CBitmap@@6B@				; CBitmap::`vftable'
PUBLIC	??_7CButton@@6B@				; CButton::`vftable'
PUBLIC	??_C@_0HD@JJCHHHNK@C?3?2Program?5Files?5?$CIx86?$CJ?2Microsof@ ; `string'
PUBLIC	??_C@_0BP@OIEOKIDM@Exception?5thrown?5in?5destructor@ ; `string'
PUBLIC	??_C@_0BB@HBOOMJBF@?$CFTs?5?$CI?$CFTs?3?$CFd?$CJ?6?$CFTs@ ; `string'
PUBLIC	??_C@_0N@OMEMOKLE@?$CFTs?5?$CI?$CFTs?3?$CFd?$CJ@ ; `string'
PUBLIC	??_C@_02DKCKIIND@?$CFs@				; `string'
PUBLIC	??_C@_0M@CBBNGGHM@PcTrMng?4dll@			; `string'
PUBLIC	??_C@_0P@IDMAJEGN@HANAROPCTRMAIN@		; `string'
PUBLIC	??_C@_06NDLAHCHE@?$CFs?$CF08X@			; `string'
PUBLIC	??_C@_02EMFKHFLK@?$CFX@				; `string'
PUBLIC	??_C@_01GBGANLPD@0@				; `string'
PUBLIC	??_R0?AVCObject@@@8				; CObject `RTTI Type Descriptor'
PUBLIC	??_R3CObject@@8					; CObject::`RTTI Class Hierarchy Descriptor'
PUBLIC	??_R2CObject@@8					; CObject::`RTTI Base Class Array'
PUBLIC	??_R1A@?0A@EA@CObject@@8			; CObject::`RTTI Base Class Descriptor at (0,-1,0,64)'
PUBLIC	??_R4CGdiObject@@6B@				; CGdiObject::`RTTI Complete Object Locator'
PUBLIC	??_R0?AVCGdiObject@@@8				; CGdiObject `RTTI Type Descriptor'
PUBLIC	??_R3CGdiObject@@8				; CGdiObject::`RTTI Class Hierarchy Descriptor'
PUBLIC	??_R2CGdiObject@@8				; CGdiObject::`RTTI Base Class Array'
PUBLIC	??_R1A@?0A@EA@CGdiObject@@8			; CGdiObject::`RTTI Base Class Descriptor at (0,-1,0,64)'
PUBLIC	??_R4CFont@@6B@					; CFont::`RTTI Complete Object Locator'
PUBLIC	??_R0?AVCFont@@@8				; CFont `RTTI Type Descriptor'
PUBLIC	??_R3CFont@@8					; CFont::`RTTI Class Hierarchy Descriptor'
PUBLIC	??_R2CFont@@8					; CFont::`RTTI Base Class Array'
PUBLIC	??_R1A@?0A@EA@CFont@@8				; CFont::`RTTI Base Class Descriptor at (0,-1,0,64)'
PUBLIC	??_R4CBitmap@@6B@				; CBitmap::`RTTI Complete Object Locator'
PUBLIC	??_R0?AVCBitmap@@@8				; CBitmap `RTTI Type Descriptor'
PUBLIC	??_R3CBitmap@@8					; CBitmap::`RTTI Class Hierarchy Descriptor'
PUBLIC	??_R2CBitmap@@8					; CBitmap::`RTTI Base Class Array'
PUBLIC	??_R1A@?0A@EA@CBitmap@@8			; CBitmap::`RTTI Base Class Descriptor at (0,-1,0,64)'
PUBLIC	??_R1A@?0A@EA@CWnd@@8				; CWnd::`RTTI Base Class Descriptor at (0,-1,0,64)'
PUBLIC	??_R0?AVCWnd@@@8				; CWnd `RTTI Type Descriptor'
PUBLIC	??_R3CWnd@@8					; CWnd::`RTTI Class Hierarchy Descriptor'
PUBLIC	??_R2CWnd@@8					; CWnd::`RTTI Base Class Array'
PUBLIC	??_R1A@?0A@EA@CCmdTarget@@8			; CCmdTarget::`RTTI Base Class Descriptor at (0,-1,0,64)'
PUBLIC	??_R0?AVCCmdTarget@@@8				; CCmdTarget `RTTI Type Descriptor'
PUBLIC	??_R3CCmdTarget@@8				; CCmdTarget::`RTTI Class Hierarchy Descriptor'
PUBLIC	??_R2CCmdTarget@@8				; CCmdTarget::`RTTI Base Class Array'
PUBLIC	??_R4CButton@@6B@				; CButton::`RTTI Complete Object Locator'
PUBLIC	??_R0?AVCButton@@@8				; CButton `RTTI Type Descriptor'
PUBLIC	??_R3CButton@@8					; CButton::`RTTI Class Hierarchy Descriptor'
PUBLIC	??_R2CButton@@8					; CButton::`RTTI Base Class Array'
PUBLIC	??_R1A@?0A@EA@CButton@@8			; CButton::`RTTI Base Class Descriptor at (0,-1,0,64)'
PUBLIC	??_R1A@?0A@EA@CDialog@@8			; CDialog::`RTTI Base Class Descriptor at (0,-1,0,64)'
PUBLIC	??_R0?AVCDialog@@@8				; CDialog `RTTI Type Descriptor'
PUBLIC	??_R3CDialog@@8					; CDialog::`RTTI Class Hierarchy Descriptor'
PUBLIC	??_R2CDialog@@8					; CDialog::`RTTI Base Class Array'
PUBLIC	??_7CUtil@@6B@					; CUtil::`vftable'
PUBLIC	??_7CKB_01230@@6B@				; CKB_01230::`vftable'
PUBLIC	??_7CKBREAL_KXH1@@6B@				; CKBREAL_KXH1::`vftable'
PUBLIC	??_7CKBREAL_KXYS@@6B@				; CKBREAL_KXYS::`vftable'
PUBLIC	??_7?$CMap@GGV?$CStringT@DV?$StrTraitMFC_DLL@DV?$ChTraitsCRT@D@ATL@@@@@ATL@@V12@@@6B@ ; CMap<unsigned short,unsigned short,ATL::CStringT<char,StrTraitMFC_DLL<char,ATL::ChTraitsCRT<char> > >,ATL::CStringT<char,StrTraitMFC_DLL<char,ATL::ChTraitsCRT<char> > > >::`vftable'
PUBLIC	??_7?$CArray@PAVCHogaData@@PAV1@@@6B@		; CArray<CHogaData *,CHogaData *>::`vftable'
PUBLIC	??_7CFloatingHogaDlg@@6B@			; CFloatingHogaDlg::`vftable'
PUBLIC	??_C@_08FKDHAHKC@5?H?$KD?$LA?$KB?5?C?$KC@	; `string'
PUBLIC	??_C@_0BD@CMCCCNBF@HANAROIGATEMANAGER@		; `string'
PUBLIC	??_C@_06MFMMLLPC@?$LB?$LM?$LI?$LC?C?$LM@	; `string'
PUBLIC	??_R0PAVCMemoryException@@@8			; CMemoryException * `RTTI Type Descriptor'
PUBLIC	??_C@_08DHOMADKC@Stop?$LI?E?$LF?$LF@		; `string'
PUBLIC	??_C@_02CONNCEND@?C?k@				; `string'
PUBLIC	??_C@_08MNAHFBJA@?$LI?E?$LF?$LF?A?V?$LJ?$KO@	; `string'
PUBLIC	??_C@_08JFEELFEO@?$LI?E?$LF?$LF?$MA?$NM?$LH?$KO@ ; `string'
PUBLIC	??_C@_05FGHBPLEF@?H?$KD?5?$LA?$KB@		; `string'
PUBLIC	??_C@_05BGBFEMBO@?5?$LF?n?$LG?t@		; `string'
PUBLIC	??_C@_08IJBAIIFP@?$LI?E?$LM?v?$MA?$NM?$LH?$KO@	; `string'
PUBLIC	??_C@_08NBFDGMIB@?$LI?E?$LM?v?A?V?$LJ?$KO@	; `string'
PUBLIC	??_C@_08ODGJCEOL@Stop?$LI?E?$LM?v@		; `string'
PUBLIC	??_C@_06ONEPBMEK@?$LF?n?$LG?t?$MA?$LC@		; `string'
PUBLIC	??_C@_05NAFAMIEH@?5?$LM?v?$MA?M@		; `string'
PUBLIC	??_C@_04OJFMPMDJ@?C?k?$LM?R@			; `string'
PUBLIC	??_C@_09DCEFIFCJ@5?H?$KD?$LA?$KB?$MA?$NM?$LH?$KO@ ; `string'
PUBLIC	??_C@_06DDAGPNBF@?C?Q?$MA?$NM?$LH?$KO@		; `string'
PUBLIC	??_C@_06BINLOPDK@?$LN?C?$LA?$KD?$LP?$NM@	; `string'
PUBLIC	??_C@_04MGNKPMDF@?$LL?s?G?Q@			; `string'
PUBLIC	??_C@_04EAAFLGOC@?G?O?G?Q@			; `string'
PUBLIC	??_C@_05OEELCGHA@?$CF1?41s@			; `string'
PUBLIC	??_C@_01CLKCMJKC@?5@				; `string'
PUBLIC	??_C@_04GEFJINEE@?$CF?42f@			; `string'
PUBLIC	??_C@_01FGNFDNOH@?$CF@				; `string'
PUBLIC	??_C@_02EHLBLIAD@?A?V@				; `string'
PUBLIC	??_C@_0L@NIGCCKF@?$LP?$LJ?$LL?s?C?$LM?$LA?a?$LA?$KB@ ; `string'
PUBLIC	??_C@_0L@IPFBCIOP@?$LP?$LJ?$LL?s?C?$LM?$LA?a?$LH?$KO@ ; `string'
PUBLIC	??_C@_01NBENCBCI@?$CK@				; `string'
PUBLIC	??_C@_04KAJDJNDN@KXH1@				; `string'
PUBLIC	??_C@_04OKLMFNFP@KXYS@				; `string'
PUBLIC	??_C@_03MJOJCMOF@071@				; `string'
PUBLIC	??_C@_03OCMEHPCG@072@				; `string'
PUBLIC	??_C@_03PLNPEOGH@073@				; `string'
PUBLIC	??_C@_03LEJONIKA@074@				; `string'
PUBLIC	??_C@_03KNIFOJOB@075@				; `string'
PUBLIC	??_C@_03MKGNPIIL@051@				; `string'
PUBLIC	??_C@_03OBEAKLEI@052@				; `string'
PUBLIC	??_C@_03PIFLJKAJ@053@				; `string'
PUBLIC	??_C@_03LHBKAMMO@054@				; `string'
PUBLIC	??_C@_03KOABDNIP@055@				; `string'
PUBLIC	??_C@_03MICLEGNC@061@				; `string'
PUBLIC	??_C@_03ODAGBFBB@062@				; `string'
PUBLIC	??_C@_03PKBNCEFA@063@				; `string'
PUBLIC	??_C@_03LFFMLCJH@064@				; `string'
PUBLIC	??_C@_03KMEHIDNG@065@				; `string'
PUBLIC	??_C@_03MLKPJCLM@041@				; `string'
PUBLIC	??_C@_03OAICMBHP@042@				; `string'
PUBLIC	??_C@_03PJJJPADO@043@				; `string'
PUBLIC	??_C@_03LGNIGGPJ@044@				; `string'
PUBLIC	??_C@_03KPMDFHLI@045@				; `string'
PUBLIC	??_C@_03HEBKFNAF@101@				; `string'
PUBLIC	??_C@_03DLFLMLMC@106@				; `string'
PUBLIC	??_R4CUtil@@6B@					; CUtil::`RTTI Complete Object Locator'
PUBLIC	??_R0?AVCUtil@@@8				; CUtil `RTTI Type Descriptor'
PUBLIC	??_R3CUtil@@8					; CUtil::`RTTI Class Hierarchy Descriptor'
PUBLIC	??_R2CUtil@@8					; CUtil::`RTTI Base Class Array'
PUBLIC	??_R1A@?0A@EA@CUtil@@8				; CUtil::`RTTI Base Class Descriptor at (0,-1,0,64)'
PUBLIC	??_R4CKB_01230@@6B@				; CKB_01230::`RTTI Complete Object Locator'
PUBLIC	??_R0?AVCKB_01230@@@8				; CKB_01230 `RTTI Type Descriptor'
PUBLIC	??_R3CKB_01230@@8				; CKB_01230::`RTTI Class Hierarchy Descriptor'
PUBLIC	??_R2CKB_01230@@8				; CKB_01230::`RTTI Base Class Array'
PUBLIC	??_R1A@?0A@EA@CKB_01230@@8			; CKB_01230::`RTTI Base Class Descriptor at (0,-1,0,64)'
PUBLIC	??_R4CKBREAL_KXH1@@6B@				; CKBREAL_KXH1::`RTTI Complete Object Locator'
PUBLIC	??_R0?AVCKBREAL_KXH1@@@8			; CKBREAL_KXH1 `RTTI Type Descriptor'
PUBLIC	??_R3CKBREAL_KXH1@@8				; CKBREAL_KXH1::`RTTI Class Hierarchy Descriptor'
PUBLIC	??_R2CKBREAL_KXH1@@8				; CKBREAL_KXH1::`RTTI Base Class Array'
PUBLIC	??_R1A@?0A@EA@CKBREAL_KXH1@@8			; CKBREAL_KXH1::`RTTI Base Class Descriptor at (0,-1,0,64)'
PUBLIC	??_R4CKBREAL_KXYS@@6B@				; CKBREAL_KXYS::`RTTI Complete Object Locator'
PUBLIC	??_R0?AVCKBREAL_KXYS@@@8			; CKBREAL_KXYS `RTTI Type Descriptor'
PUBLIC	??_R3CKBREAL_KXYS@@8				; CKBREAL_KXYS::`RTTI Class Hierarchy Descriptor'
PUBLIC	??_R2CKBREAL_KXYS@@8				; CKBREAL_KXYS::`RTTI Base Class Array'
PUBLIC	??_R1A@?0A@EA@CKBREAL_KXYS@@8			; CKBREAL_KXYS::`RTTI Base Class Descriptor at (0,-1,0,64)'
PUBLIC	??_R4CFloatingHogaDlg@@6B@			; CFloatingHogaDlg::`RTTI Complete Object Locator'
PUBLIC	??_R0?AVCFloatingHogaDlg@@@8			; CFloatingHogaDlg `RTTI Type Descriptor'
PUBLIC	??_R3CFloatingHogaDlg@@8			; CFloatingHogaDlg::`RTTI Class Hierarchy Descriptor'
PUBLIC	??_R2CFloatingHogaDlg@@8			; CFloatingHogaDlg::`RTTI Base Class Array'
PUBLIC	??_R1A@?0A@EA@CFloatingHogaDlg@@8		; CFloatingHogaDlg::`RTTI Base Class Descriptor at (0,-1,0,64)'
PUBLIC	??_R1A@?0A@EA@CRscDlg@@8			; CRscDlg::`RTTI Base Class Descriptor at (0,-1,0,64)'
PUBLIC	??_R0?AVCRscDlg@@@8				; CRscDlg `RTTI Type Descriptor'
PUBLIC	??_R3CRscDlg@@8					; CRscDlg::`RTTI Class Hierarchy Descriptor'
PUBLIC	??_R2CRscDlg@@8					; CRscDlg::`RTTI Base Class Array'
PUBLIC	??_R4?$CMap@GGV?$CStringT@DV?$StrTraitMFC_DLL@DV?$ChTraitsCRT@D@ATL@@@@@ATL@@V12@@@6B@ ; CMap<unsigned short,unsigned short,ATL::CStringT<char,StrTraitMFC_DLL<char,ATL::ChTraitsCRT<char> > >,ATL::CStringT<char,StrTraitMFC_DLL<char,ATL::ChTraitsCRT<char> > > >::`RTTI Complete Object Locator'
PUBLIC	??_R0?AV?$CMap@GGV?$CStringT@DV?$StrTraitMFC_DLL@DV?$ChTraitsCRT@D@ATL@@@@@ATL@@V12@@@@8 ; CMap<unsigned short,unsigned short,ATL::CStringT<char,StrTraitMFC_DLL<char,ATL::ChTraitsCRT<char> > >,ATL::CStringT<char,StrTraitMFC_DLL<char,ATL::ChTraitsCRT<char> > > > `RTTI Type Descriptor'
PUBLIC	??_R3?$CMap@GGV?$CStringT@DV?$StrTraitMFC_DLL@DV?$ChTraitsCRT@D@ATL@@@@@ATL@@V12@@@8 ; CMap<unsigned short,unsigned short,ATL::CStringT<char,StrTraitMFC_DLL<char,ATL::ChTraitsCRT<char> > >,ATL::CStringT<char,StrTraitMFC_DLL<char,ATL::ChTraitsCRT<char> > > >::`RTTI Class Hierarchy Descriptor'
PUBLIC	??_R2?$CMap@GGV?$CStringT@DV?$StrTraitMFC_DLL@DV?$ChTraitsCRT@D@ATL@@@@@ATL@@V12@@@8 ; CMap<unsigned short,unsigned short,ATL::CStringT<char,StrTraitMFC_DLL<char,ATL::ChTraitsCRT<char> > >,ATL::CStringT<char,StrTraitMFC_DLL<char,ATL::ChTraitsCRT<char> > > >::`RTTI Base Class Array'
PUBLIC	??_R1A@?0A@EA@?$CMap@GGV?$CStringT@DV?$StrTraitMFC_DLL@DV?$ChTraitsCRT@D@ATL@@@@@ATL@@V12@@@8 ; CMap<unsigned short,unsigned short,ATL::CStringT<char,StrTraitMFC_DLL<char,ATL::ChTraitsCRT<char> > >,ATL::CStringT<char,StrTraitMFC_DLL<char,ATL::ChTraitsCRT<char> > > >::`RTTI Base Class Descriptor at (0,-1,0,64)'
PUBLIC	??_R4?$CArray@PAVCHogaData@@PAV1@@@6B@		; CArray<CHogaData *,CHogaData *>::`RTTI Complete Object Locator'
PUBLIC	??_R0?AV?$CArray@PAVCHogaData@@PAV1@@@@8	; CArray<CHogaData *,CHogaData *> `RTTI Type Descriptor'
PUBLIC	??_R3?$CArray@PAVCHogaData@@PAV1@@@8		; CArray<CHogaData *,CHogaData *>::`RTTI Class Hierarchy Descriptor'
PUBLIC	??_R2?$CArray@PAVCHogaData@@PAV1@@@8		; CArray<CHogaData *,CHogaData *>::`RTTI Base Class Array'
PUBLIC	??_R1A@?0A@EA@?$CArray@PAVCHogaData@@PAV1@@@8	; CArray<CHogaData *,CHogaData *>::`RTTI Base Class Descriptor at (0,-1,0,64)'
PUBLIC	__real@4059000000000000
PUBLIC	__xmm@00000000000000000000000000000041
PUBLIC	__xmm@0000000000000000000000000000004a
EXTRN	??_L@YGXPAXIIP6EX0@Z1@Z:PROC			; `eh vector constructor iterator'
EXTRN	??_M@YGXPAXIIP6EX0@Z@Z:PROC			; `eh vector destructor iterator'
EXTRN	??2@YAPAXI@Z:PROC				; operator new
EXTRN	??3@YAXPAX@Z:PROC				; operator delete
EXTRN	?__global_delete@@YAXPAXI@Z:PROC		; __global_delete
EXTRN	??_U@YAPAXI@Z:PROC				; operator new[]
EXTRN	??_V@YAXPAX@Z:PROC				; operator delete[]
EXTRN	__imp___invalid_parameter_noinfo:PROC
EXTRN	__imp___errno:PROC
EXTRN	__imp__GetEnvironmentVariableA@12:PROC
EXTRN	__imp__GetModuleHandleA@4:PROC
EXTRN	__imp__BitBlt@36:PROC
EXTRN	__imp__CreateCompatibleBitmap@12:PROC
EXTRN	__imp__CreateCompatibleDC@4:PROC
EXTRN	__imp__CreateFontIndirectA@4:PROC
EXTRN	__imp__RegisterWindowMessageA@4:PROC
EXTRN	__imp__SendMessageA@16:PROC
EXTRN	__imp__PostMessageA@16:PROC
EXTRN	__imp__EnableWindow@8:PROC
EXTRN	__imp__GetClientRect@8:PROC
EXTRN	__imp__GetWindowRect@8:PROC
EXTRN	__imp__GetCursorPos@4:PROC
EXTRN	__imp__ScreenToClient@8:PROC
EXTRN	__imp__GetSysColor@4:PROC
EXTRN	__imp__PtInRect@12:PROC
EXTRN	__imp__GetParent@4:PROC
EXTRN	__imp____stdio_common_vsscanf:PROC
EXTRN	__imp__atof:PROC
EXTRN	__imp__atoi:PROC
EXTRN	__imp__atol:PROC
EXTRN	?AfxThrowMemoryException@@YGXXZ:PROC		; AfxThrowMemoryException
EXTRN	?AfxThrowInvalidArgException@@YGXXZ:PROC	; AfxThrowInvalidArgException
EXTRN	?AfxThrowArchiveException@@YGXHPBD@Z:PROC	; AfxThrowArchiveException
EXTRN	?GetRuntimeClass@CObject@@UBEPAUCRuntimeClass@@XZ:PROC ; CObject::GetRuntimeClass
EXTRN	?Delete@CException@@QAEXXZ:PROC			; CException::Delete
EXTRN	__imp_??A?$CSimpleStringT@D$00@ATL@@QBEDH@Z:PROC
EXTRN	__imp_?Concatenate@?$CSimpleStringT@D$00@ATL@@KAXAAV12@PBDH1H@Z:PROC
EXTRN	__imp_??0?$CStringT@DV?$StrTraitMFC_DLL@DV?$ChTraitsCRT@D@ATL@@@@@ATL@@QAE@XZ:PROC
EXTRN	__imp_??0?$CStringT@DV?$StrTraitMFC_DLL@DV?$ChTraitsCRT@D@ATL@@@@@ATL@@QAE@PAUIAtlStringMgr@1@@Z:PROC
EXTRN	__imp_??0?$CStringT@DV?$StrTraitMFC_DLL@DV?$ChTraitsCRT@D@ATL@@@@@ATL@@QAE@ABV01@@Z:PROC
EXTRN	__imp_??0?$CStringT@DV?$StrTraitMFC_DLL@DV?$ChTraitsCRT@D@ATL@@@@@ATL@@QAE@PBD@Z:PROC
EXTRN	__imp_??1?$CStringT@DV?$StrTraitMFC_DLL@DV?$ChTraitsCRT@D@ATL@@@@@ATL@@QAE@XZ:PROC
EXTRN	__imp_??4?$CStringT@DV?$StrTraitMFC_DLL@DV?$ChTraitsCRT@D@ATL@@@@@ATL@@QAEAAV01@ABV01@@Z:PROC
EXTRN	__imp_??4?$CStringT@DV?$StrTraitMFC_DLL@DV?$ChTraitsCRT@D@ATL@@@@@ATL@@QAEAAV01@PBD@Z:PROC
EXTRN	__imp_??Y?$CStringT@DV?$StrTraitMFC_DLL@DV?$ChTraitsCRT@D@ATL@@@@@ATL@@QAEAAV01@PBD@Z:PROC
EXTRN	__imp_?GetManager@?$CStringT@DV?$StrTraitMFC_DLL@DV?$ChTraitsCRT@D@ATL@@@@@ATL@@QBEPAUIAtlStringMgr@2@XZ:PROC
EXTRN	__imp_?Compare@?$CStringT@DV?$StrTraitMFC_DLL@DV?$ChTraitsCRT@D@ATL@@@@@ATL@@QBEHPBD@Z:PROC
EXTRN	__imp_?Remove@?$CStringT@DV?$StrTraitMFC_DLL@DV?$ChTraitsCRT@D@ATL@@@@@ATL@@QAEHD@Z:PROC
EXTRN	__imp_?TrimRight@?$CStringT@DV?$StrTraitMFC_DLL@DV?$ChTraitsCRT@D@ATL@@@@@ATL@@QAEAAV12@XZ:PROC
EXTRN	__imp_?TrimLeft@?$CStringT@DV?$StrTraitMFC_DLL@DV?$ChTraitsCRT@D@ATL@@@@@ATL@@QAEAAV12@XZ:PROC
EXTRN	__imp_?Format@?$CStringT@DV?$StrTraitMFC_DLL@DV?$ChTraitsCRT@D@ATL@@@@@ATL@@QAAXPBDZZ:PROC
EXTRN	?Read@CArchive@@QAEIPAXI@Z:PROC			; CArchive::Read
EXTRN	?Write@CArchive@@QAEXPBXI@Z:PROC		; CArchive::Write
EXTRN	?ReadCount@CArchive@@QAEKXZ:PROC		; CArchive::ReadCount
EXTRN	?WriteCount@CArchive@@QAEXK@Z:PROC		; CArchive::WriteCount
EXTRN	?Lookup@CMapStringToString@@QBEHPBDAAV?$CStringT@DV?$StrTraitMFC_DLL@DV?$ChTraitsCRT@D@ATL@@@@@ATL@@@Z:PROC ; CMapStringToString::Lookup
EXTRN	?Create@CPlex@@SGPAU1@AAPAU1@II@Z:PROC		; CPlex::Create
EXTRN	?FreeDataChain@CPlex@@QAEXXZ:PROC		; CPlex::FreeDataChain
EXTRN	??$SerializeElements@V?$CStringT@DV?$StrTraitMFC_DLL@DV?$ChTraitsCRT@D@ATL@@@@@ATL@@@@YGXAAVCArchive@@PAV?$CStringT@DV?$StrTraitMFC_DLL@DV?$ChTraitsCRT@D@ATL@@@@@ATL@@H@Z:PROC ; SerializeElements<ATL::CStringT<char,StrTraitMFC_DLL<char,ATL::ChTraitsCRT<char> > > >
EXTRN	?GetRuntimeClass@CGdiObject@@UBEPAUCRuntimeClass@@XZ:PROC ; CGdiObject::GetRuntimeClass
EXTRN	?Attach@CGdiObject@@QAEHPAX@Z:PROC		; CGdiObject::Attach
EXTRN	?DeleteObject@CGdiObject@@QAEHXZ:PROC		; CGdiObject::DeleteObject
EXTRN	??_ECGdiObject@@UAEPAXI@Z:PROC			; CGdiObject::`vector deleting destructor'
EXTRN	?GetRuntimeClass@CFont@@UBEPAUCRuntimeClass@@XZ:PROC ; CFont::GetRuntimeClass
EXTRN	??_ECFont@@UAEPAXI@Z:PROC			; CFont::`vector deleting destructor'
EXTRN	?GetRuntimeClass@CBitmap@@UBEPAUCRuntimeClass@@XZ:PROC ; CBitmap::GetRuntimeClass
EXTRN	??_ECBitmap@@UAEPAXI@Z:PROC			; CBitmap::`vector deleting destructor'
EXTRN	?Attach@CDC@@QAEHPAUHDC__@@@Z:PROC		; CDC::Attach
EXTRN	??0CDC@@QAE@XZ:PROC				; CDC::CDC
EXTRN	?DeleteDC@CDC@@QAEHXZ:PROC			; CDC::DeleteDC
EXTRN	?FillSolidRect@CDC@@QAEXPBUtagRECT@@K@Z:PROC	; CDC::FillSolidRect
EXTRN	??1CDC@@UAE@XZ:PROC				; CDC::~CDC
EXTRN	?SelectGdiObject@CDC@@KGPAVCGdiObject@@PAUHDC__@@PAX@Z:PROC ; CDC::SelectGdiObject
EXTRN	??0CPaintDC@@QAE@PAVCWnd@@@Z:PROC		; CPaintDC::CPaintDC
EXTRN	??1CPaintDC@@UAE@XZ:PROC			; CPaintDC::~CPaintDC
EXTRN	??0CClientDC@@QAE@PAVCWnd@@@Z:PROC		; CClientDC::CClientDC
EXTRN	??1CClientDC@@UAE@XZ:PROC			; CClientDC::~CClientDC
EXTRN	?DDX_Control@@YGXPAVCDataExchange@@HAAVCWnd@@@Z:PROC ; DDX_Control
EXTRN	?OnCmdMsg@CCmdTarget@@UAEHIHPAXPAUAFX_CMDHANDLERINFO@@@Z:PROC ; CCmdTarget::OnCmdMsg
EXTRN	?IsInvokeAllowed@CCmdTarget@@UAEHJ@Z:PROC	; CCmdTarget::IsInvokeAllowed
EXTRN	?GetDispatchIID@CCmdTarget@@UAEHPAU_GUID@@@Z:PROC ; CCmdTarget::GetDispatchIID
EXTRN	?GetTypeInfoCount@CCmdTarget@@UAEIXZ:PROC	; CCmdTarget::GetTypeInfoCount
EXTRN	?GetTypeLibCache@CCmdTarget@@UAEPAVCTypeLibCache@@XZ:PROC ; CCmdTarget::GetTypeLibCache
EXTRN	?GetTypeLib@CCmdTarget@@UAEJKPAPAUITypeLib@@@Z:PROC ; CCmdTarget::GetTypeLib
EXTRN	?GetCommandMap@CCmdTarget@@MBEPBUAFX_OLECMDMAP@@XZ:PROC ; CCmdTarget::GetCommandMap
EXTRN	?GetDispatchMap@CCmdTarget@@MBEPBUAFX_DISPMAP@@XZ:PROC ; CCmdTarget::GetDispatchMap
EXTRN	?GetConnectionMap@CCmdTarget@@MBEPBUAFX_CONNECTIONMAP@@XZ:PROC ; CCmdTarget::GetConnectionMap
EXTRN	?GetEventSinkMap@CCmdTarget@@MBEPBUAFX_EVENTSINKMAP@@XZ:PROC ; CCmdTarget::GetEventSinkMap
EXTRN	?OnCreateAggregates@CCmdTarget@@UAEHXZ:PROC	; CCmdTarget::OnCreateAggregates
EXTRN	?GetInterfaceHook@CCmdTarget@@UAEPAUIUnknown@@PBX@Z:PROC ; CCmdTarget::GetInterfaceHook
EXTRN	?GetExtraConnectionPoints@CCmdTarget@@MAEHPAVCPtrArray@@@Z:PROC ; CCmdTarget::GetExtraConnectionPoints
EXTRN	?GetConnectionHook@CCmdTarget@@MAEPAUIConnectionPoint@@ABU_GUID@@@Z:PROC ; CCmdTarget::GetConnectionHook
EXTRN	??0CWnd@@QAE@XZ:PROC				; CWnd::CWnd
EXTRN	?FromHandle@CWnd@@SGPAV1@PAUHWND__@@@Z:PROC	; CWnd::FromHandle
EXTRN	?PreSubclassWindow@CWnd@@UAEXXZ:PROC		; CWnd::PreSubclassWindow
EXTRN	?Create@CWnd@@UAEHPBD0KABUtagRECT@@PAV1@IPAUCCreateContext@@@Z:PROC ; CWnd::Create
EXTRN	?CreateEx@CWnd@@UAEHKPBD0KHHHHPAUHWND__@@PAUHMENU__@@PAX@Z:PROC ; CWnd::CreateEx
EXTRN	?CreateEx@CWnd@@UAEHKPBD0KABUtagRECT@@PAV1@IPAX@Z:PROC ; CWnd::CreateEx
EXTRN	?DestroyWindow@CWnd@@UAEHXZ:PROC		; CWnd::DestroyWindow
EXTRN	?PreCreateWindow@CWnd@@UAEHAAUtagCREATESTRUCTA@@@Z:PROC ; CWnd::PreCreateWindow
EXTRN	?CalcWindowRect@CWnd@@UAEXPAUtagRECT@@I@Z:PROC	; CWnd::CalcWindowRect
EXTRN	?GetDlgItem@CWnd@@QBEPAV1@H@Z:PROC		; CWnd::GetDlgItem
EXTRN	?GetMenu@CWnd@@UBEPAVCMenu@@XZ:PROC		; CWnd::GetMenu
EXTRN	?SetMenu@CWnd@@UAEHPAVCMenu@@@Z:PROC		; CWnd::SetMenu
EXTRN	?SetWindowPos@CWnd@@QAEHPBV1@HHHHI@Z:PROC	; CWnd::SetWindowPos
EXTRN	?ScreenToClient@CWnd@@QBEXPAUtagRECT@@@Z:PROC	; CWnd::ScreenToClient
EXTRN	?ShowWindow@CWnd@@QAEHH@Z:PROC			; CWnd::ShowWindow
EXTRN	?OnToolHitTest@CWnd@@UBEHVCPoint@@PAUtagTOOLINFOA@@@Z:PROC ; CWnd::OnToolHitTest
EXTRN	?GetScrollBarCtrl@CWnd@@UBEPAVCScrollBar@@H@Z:PROC ; CWnd::GetScrollBarCtrl
EXTRN	?WinHelpA@CWnd@@UAEXKI@Z:PROC			; CWnd::WinHelpA
EXTRN	?HtmlHelpA@CWnd@@UAEXKI@Z:PROC			; CWnd::HtmlHelpA
EXTRN	?WinHelpInternal@CWnd@@UAEXKI@Z:PROC		; CWnd::WinHelpInternal
EXTRN	?ContinueModal@CWnd@@UAEHXZ:PROC		; CWnd::ContinueModal
EXTRN	?EndModalLoop@CWnd@@UAEXH@Z:PROC		; CWnd::EndModalLoop
EXTRN	?OnDrawIconicThumbnailOrLivePreview@CWnd@@UAEXAAVCDC@@VCRect@@VCSize@@HAAH@Z:PROC ; CWnd::OnDrawIconicThumbnailOrLivePreview
EXTRN	?GetInterfaceMap@CWnd@@MBEPBUAFX_INTERFACEMAP@@XZ:PROC ; CWnd::GetInterfaceMap
EXTRN	?EnsureStdObj@CWnd@@UAEJXZ:PROC			; CWnd::EnsureStdObj
EXTRN	?get_accParent@CWnd@@UAEJPAPAUIDispatch@@@Z:PROC ; CWnd::get_accParent
EXTRN	?get_accChildCount@CWnd@@UAEJPAJ@Z:PROC		; CWnd::get_accChildCount
EXTRN	?get_accChild@CWnd@@UAEJUtagVARIANT@@PAPAUIDispatch@@@Z:PROC ; CWnd::get_accChild
EXTRN	?get_accName@CWnd@@UAEJUtagVARIANT@@PAPA_W@Z:PROC ; CWnd::get_accName
EXTRN	?get_accValue@CWnd@@UAEJUtagVARIANT@@PAPA_W@Z:PROC ; CWnd::get_accValue
EXTRN	?get_accDescription@CWnd@@UAEJUtagVARIANT@@PAPA_W@Z:PROC ; CWnd::get_accDescription
EXTRN	?get_accRole@CWnd@@UAEJUtagVARIANT@@PAU2@@Z:PROC ; CWnd::get_accRole
EXTRN	?get_accState@CWnd@@UAEJUtagVARIANT@@PAU2@@Z:PROC ; CWnd::get_accState
EXTRN	?get_accHelp@CWnd@@UAEJUtagVARIANT@@PAPA_W@Z:PROC ; CWnd::get_accHelp
EXTRN	?get_accHelpTopic@CWnd@@UAEJPAPA_WUtagVARIANT@@PAJ@Z:PROC ; CWnd::get_accHelpTopic
EXTRN	?get_accKeyboardShortcut@CWnd@@UAEJUtagVARIANT@@PAPA_W@Z:PROC ; CWnd::get_accKeyboardShortcut
EXTRN	?get_accFocus@CWnd@@UAEJPAUtagVARIANT@@@Z:PROC	; CWnd::get_accFocus
EXTRN	?get_accSelection@CWnd@@UAEJPAUtagVARIANT@@@Z:PROC ; CWnd::get_accSelection
EXTRN	?get_accDefaultAction@CWnd@@UAEJUtagVARIANT@@PAPA_W@Z:PROC ; CWnd::get_accDefaultAction
EXTRN	?accSelect@CWnd@@UAEJJUtagVARIANT@@@Z:PROC	; CWnd::accSelect
EXTRN	?accLocation@CWnd@@UAEJPAJ000UtagVARIANT@@@Z:PROC ; CWnd::accLocation
EXTRN	?accNavigate@CWnd@@UAEJJUtagVARIANT@@PAU2@@Z:PROC ; CWnd::accNavigate
EXTRN	?accHitTest@CWnd@@UAEJJJPAUtagVARIANT@@@Z:PROC	; CWnd::accHitTest
EXTRN	?accDoDefaultAction@CWnd@@UAEJUtagVARIANT@@@Z:PROC ; CWnd::accDoDefaultAction
EXTRN	?put_accName@CWnd@@UAEJUtagVARIANT@@PA_W@Z:PROC	; CWnd::put_accName
EXTRN	?put_accValue@CWnd@@UAEJUtagVARIANT@@PA_W@Z:PROC ; CWnd::put_accValue
EXTRN	?SetProxy@CWnd@@UAEJPAUIAccessibleProxy@@@Z:PROC ; CWnd::SetProxy
EXTRN	?CreateAccessibleProxy@CWnd@@UAEJIJPAJ@Z:PROC	; CWnd::CreateAccessibleProxy
EXTRN	?OnCommand@CWnd@@MAEHIJ@Z:PROC			; CWnd::OnCommand
EXTRN	?OnNotify@CWnd@@MAEHIJPAJ@Z:PROC		; CWnd::OnNotify
EXTRN	?OnDestroy@CWnd@@IAEXXZ:PROC			; CWnd::OnDestroy
EXTRN	?GetSuperWndProcAddr@CWnd@@MAEPAP6GJPAUHWND__@@IIJ@ZXZ:PROC ; CWnd::GetSuperWndProcAddr
EXTRN	?PreTranslateMessage@CWnd@@UAEHPAUtagMSG@@@Z:PROC ; CWnd::PreTranslateMessage
EXTRN	?OnAmbientProperty@CWnd@@UAEHPAVCOleControlSite@@JPAUtagVARIANT@@@Z:PROC ; CWnd::OnAmbientProperty
EXTRN	?WindowProc@CWnd@@MAEJIIJ@Z:PROC		; CWnd::WindowProc
EXTRN	?OnWndMsg@CWnd@@MAEHIIJPAJ@Z:PROC		; CWnd::OnWndMsg
EXTRN	?Default@CWnd@@IAEJXZ:PROC			; CWnd::Default
EXTRN	?DefWindowProcA@CWnd@@MAEJIIJ@Z:PROC		; CWnd::DefWindowProcA
EXTRN	?PostNcDestroy@CWnd@@MAEXXZ:PROC		; CWnd::PostNcDestroy
EXTRN	?OnChildNotify@CWnd@@MAEHIIJPAJ@Z:PROC		; CWnd::OnChildNotify
EXTRN	?OnTouchInputs@CWnd@@MAEHIPAUtagTOUCHINPUT@@@Z:PROC ; CWnd::OnTouchInputs
EXTRN	?OnTouchInput@CWnd@@MAEHVCPoint@@HHPAUtagTOUCHINPUT@@@Z:PROC ; CWnd::OnTouchInput
EXTRN	?GetGestureStatus@CWnd@@MAEKVCPoint@@@Z:PROC	; CWnd::GetGestureStatus
EXTRN	?OnGestureZoom@CWnd@@MAEHVCPoint@@J@Z:PROC	; CWnd::OnGestureZoom
EXTRN	?OnGesturePan@CWnd@@MAEHVCPoint@@0@Z:PROC	; CWnd::OnGesturePan
EXTRN	?OnGestureRotate@CWnd@@MAEHVCPoint@@N@Z:PROC	; CWnd::OnGestureRotate
EXTRN	?OnGestureTwoFingerTap@CWnd@@MAEHVCPoint@@@Z:PROC ; CWnd::OnGestureTwoFingerTap
EXTRN	?OnGesturePressAndTap@CWnd@@MAEHVCPoint@@J@Z:PROC ; CWnd::OnGesturePressAndTap
EXTRN	?ResizeDynamicLayout@CWnd@@MAEXXZ:PROC		; CWnd::ResizeDynamicLayout
EXTRN	?CheckAutoCenter@CWnd@@UAEHXZ:PROC		; CWnd::CheckAutoCenter
EXTRN	?IsFrameWnd@CWnd@@UBEHXZ:PROC			; CWnd::IsFrameWnd
EXTRN	?OnFinalRelease@CWnd@@UAEXXZ:PROC		; CWnd::OnFinalRelease
EXTRN	?CreateControlContainer@CWnd@@MAEHPAPAVCOleControlContainer@@@Z:PROC ; CWnd::CreateControlContainer
EXTRN	?CreateControlSite@CWnd@@MAEHPAVCOleControlContainer@@PAPAVCOleControlSite@@IABU_GUID@@@Z:PROC ; CWnd::CreateControlSite
EXTRN	?SetOccDialogInfo@CWnd@@MAEHPAU_AFX_OCC_DIALOG_INFO@@@Z:PROC ; CWnd::SetOccDialogInfo
EXTRN	?GetOccDialogInfo@CWnd@@MAEPAU_AFX_OCC_DIALOG_INFO@@XZ:PROC ; CWnd::GetOccDialogInfo
EXTRN	?GetMessageMap@CWnd@@MBEPBUAFX_MSGMAP@@XZ:PROC	; CWnd::GetMessageMap
EXTRN	?GetRuntimeClass@CDialog@@UBEPAUCRuntimeClass@@XZ:PROC ; CDialog::GetRuntimeClass
EXTRN	?Create@CDialog@@UAEHPBDPAVCWnd@@@Z:PROC	; CDialog::Create
EXTRN	?CreateIndirect@CDialog@@UAEHPBUDLGTEMPLATE@@PAVCWnd@@PAX@Z:PROC ; CDialog::CreateIndirect
EXTRN	?CreateIndirect@CDialog@@UAEHPAXPAVCWnd@@@Z:PROC ; CDialog::CreateIndirect
EXTRN	?OnInitDialog@CDialog@@UAEHXZ:PROC		; CDialog::OnInitDialog
EXTRN	?OnSetFont@CDialog@@UAEXPAVCFont@@@Z:PROC	; CDialog::OnSetFont
EXTRN	?OnOK@CDialog@@MAEXXZ:PROC			; CDialog::OnOK
EXTRN	?OnCancel@CDialog@@MAEXXZ:PROC			; CDialog::OnCancel
EXTRN	??1CDialog@@UAE@XZ:PROC				; CDialog::~CDialog
EXTRN	?PreTranslateMessage@CDialog@@UAEHPAUtagMSG@@@Z:PROC ; CDialog::PreTranslateMessage
EXTRN	?OnCmdMsg@CDialog@@UAEHIHPAXPAUAFX_CMDHANDLERINFO@@@Z:PROC ; CDialog::OnCmdMsg
EXTRN	?CheckAutoCenter@CDialog@@UAEHXZ:PROC		; CDialog::CheckAutoCenter
EXTRN	?SetOccDialogInfo@CDialog@@MAEHPAU_AFX_OCC_DIALOG_INFO@@@Z:PROC ; CDialog::SetOccDialogInfo
EXTRN	?GetOccDialogInfo@CDialog@@MAEPAU_AFX_OCC_DIALOG_INFO@@XZ:PROC ; CDialog::GetOccDialogInfo
EXTRN	?PreInitDialog@CDialog@@MAEXXZ:PROC		; CDialog::PreInitDialog
EXTRN	?GetRuntimeClass@CButton@@UBEPAUCRuntimeClass@@XZ:PROC ; CButton::GetRuntimeClass
EXTRN	?Create@CButton@@UAEHPBDKABUtagRECT@@PAVCWnd@@I@Z:PROC ; CButton::Create
EXTRN	?DrawItem@CButton@@UAEXPAUtagDRAWITEMSTRUCT@@@Z:PROC ; CButton::DrawItem
EXTRN	??1CButton@@UAE@XZ:PROC				; CButton::~CButton
EXTRN	?OnChildNotify@CButton@@MAEHIIJPAJ@Z:PROC	; CButton::OnChildNotify
EXTRN	??_ECButton@@UAEPAXI@Z:PROC			; CButton::`vector deleting destructor'
EXTRN	?AfxMessageBox@@YGHPBDII@Z:PROC			; AfxMessageBox
EXTRN	??0CRscDlg@@QAE@IPAVCWnd@@@Z:PROC		; CRscDlg::CRscDlg
EXTRN	?Create@CRscDlg@@UAEHIPAVCWnd@@@Z:PROC		; CRscDlg::Create
EXTRN	?DoModal@CRscDlg@@UAEHXZ:PROC			; CRscDlg::DoModal
EXTRN	?DoDataExchange@CRscDlg@@MAEXPAVCDataExchange@@@Z:PROC ; CRscDlg::DoDataExchange
EXTRN	?GetThisMessageMap@CRscDlg@@KGPBUAFX_MSGMAP@@XZ:PROC ; CRscDlg::GetThisMessageMap
EXTRN	??0CPowLabel@@QAE@XZ:PROC			; CPowLabel::CPowLabel
EXTRN	??1CPowLabel@@UAE@XZ:PROC			; CPowLabel::~CPowLabel
EXTRN	?GetRuntimeClass@CUtil@@UBEPAUCRuntimeClass@@XZ:PROC ; CUtil::GetRuntimeClass
EXTRN	?GetSignSimbol@CUtil@@QAE?AV?$CStringT@DV?$StrTraitMFC_DLL@DV?$ChTraitsCRT@D@ATL@@@@@ATL@@H@Z:PROC ; CUtil::GetSignSimbol
EXTRN	?GetComma@CUtil@@QAE?AV?$CStringT@DV?$StrTraitMFC_DLL@DV?$ChTraitsCRT@D@ATL@@@@@ATL@@PBD@Z:PROC ; CUtil::GetComma
EXTRN	?GetOnlyNumber@CUtil@@QAE?AV?$CStringT@DV?$StrTraitMFC_DLL@DV?$ChTraitsCRT@D@ATL@@@@@ATL@@PBD@Z:PROC ; CUtil::GetOnlyNumber
EXTRN	?GetNumber@CUtil@@QAE?AV?$CStringT@DV?$StrTraitMFC_DLL@DV?$ChTraitsCRT@D@ATL@@@@@ATL@@PBD@Z:PROC ; CUtil::GetNumber
EXTRN	?GetPriceUnit@CUtil@@QAE?AV?$CStringT@DV?$StrTraitMFC_DLL@DV?$ChTraitsCRT@D@ATL@@@@@ATL@@PBD@Z:PROC ; CUtil::GetPriceUnit
EXTRN	?GetVolUnit@CUtil@@QAE?AV?$CStringT@DV?$StrTraitMFC_DLL@DV?$ChTraitsCRT@D@ATL@@@@@ATL@@PBD@Z:PROC ; CUtil::GetVolUnit
EXTRN	??_ECUtil@@UAEPAXI@Z:PROC			; CUtil::`vector deleting destructor'
EXTRN	??0CHogaData@@QAE@XZ:PROC			; CHogaData::CHogaData
EXTRN	??0CExGridCtrl@@QAE@HHHH@Z:PROC			; CExGridCtrl::CExGridCtrl
EXTRN	?Create@CExGridCtrl@@QAEHAAUtagRECT@@PAVCWnd@@IK@Z:PROC ; CExGridCtrl::Create
EXTRN	?GetRowCount@CExGridCtrl@@QAEHXZ:PROC		; CExGridCtrl::GetRowCount
EXTRN	?GetColumnCount@CExGridCtrl@@QAEHXZ:PROC	; CExGridCtrl::GetColumnCount
EXTRN	?SetRowCount@CExGridCtrl@@QAEHH@Z:PROC		; CExGridCtrl::SetRowCount
EXTRN	?SetColumnCount@CExGridCtrl@@QAEHH@Z:PROC	; CExGridCtrl::SetColumnCount
EXTRN	?SetFixedRowCount@CExGridCtrl@@QAEHH@Z:PROC	; CExGridCtrl::SetFixedRowCount
EXTRN	?SetFixedColumnCount@CExGridCtrl@@QAEHH@Z:PROC	; CExGridCtrl::SetFixedColumnCount
EXTRN	?SetRowHeight@CExGridCtrl@@QAEHHH@Z:PROC	; CExGridCtrl::SetRowHeight
EXTRN	?SetColumnWidth@CExGridCtrl@@QAEHHH@Z:PROC	; CExGridCtrl::SetColumnWidth
EXTRN	?SetGridLineColor@CExGridCtrl@@QAEXK@Z:PROC	; CExGridCtrl::SetGridLineColor
EXTRN	?SetHighlightColor@CExGridCtrl@@QAEXK@Z:PROC	; CExGridCtrl::SetHighlightColor
EXTRN	?SetGridColor@CExGridCtrl@@QAEXK@Z:PROC		; CExGridCtrl::SetGridColor
EXTRN	?SetBkColor@CExGridCtrl@@QAEXK@Z:PROC		; CExGridCtrl::SetBkColor
EXTRN	?SetEditable@CExGridCtrl@@QAEXH@Z:PROC		; CExGridCtrl::SetEditable
EXTRN	?EnableDragAndDrop@CExGridCtrl@@QAEXH@Z:PROC	; CExGridCtrl::EnableDragAndDrop
EXTRN	?EnableColumnHide@CExGridCtrl@@QAEXH@Z:PROC	; CExGridCtrl::EnableColumnHide
EXTRN	?EnableRowHide@CExGridCtrl@@QAEXH@Z:PROC	; CExGridCtrl::EnableRowHide
EXTRN	?GetCell@CExGridCtrl@@QAEPAVCGridCellBase@@HH@Z:PROC ; CExGridCtrl::GetCell
EXTRN	?SetItem@CExGridCtrl@@QAEHPAU_GV_ITEM@@@Z:PROC	; CExGridCtrl::SetItem
EXTRN	?SetItemText@CExGridCtrl@@QAEHHHPBD@Z:PROC	; CExGridCtrl::SetItemText
EXTRN	?GetItemText@CExGridCtrl@@QAE?AV?$CStringT@DV?$StrTraitMFC_DLL@DV?$ChTraitsCRT@D@ATL@@@@@ATL@@HH@Z:PROC ; CExGridCtrl::GetItemText
EXTRN	?SetItemImage@CExGridCtrl@@QAEHHHH@Z:PROC	; CExGridCtrl::SetItemImage
EXTRN	?SetItemState@CExGridCtrl@@QAEHHHI@Z:PROC	; CExGridCtrl::SetItemState
EXTRN	?GetItemState@CExGridCtrl@@QAEIHH@Z:PROC	; CExGridCtrl::GetItemState
EXTRN	?SetItemBkColour@CExGridCtrl@@QAEHHHK@Z:PROC	; CExGridCtrl::SetItemBkColour
EXTRN	?SetItemFgColour@CExGridCtrl@@QAEHHHK@Z:PROC	; CExGridCtrl::SetItemFgColour
EXTRN	?Refresh@CExGridCtrl@@QAEXXZ:PROC		; CExGridCtrl::Refresh
EXTRN	?RedrawCell@CExGridCtrl@@QAEHHHPAVCDC@@@Z:PROC	; CExGridCtrl::RedrawCell
EXTRN	??_E?$CMap@GGV?$CStringT@DV?$StrTraitMFC_DLL@DV?$ChTraitsCRT@D@ATL@@@@@ATL@@V12@@@UAEPAXI@Z:PROC ; CMap<unsigned short,unsigned short,ATL::CStringT<char,StrTraitMFC_DLL<char,ATL::ChTraitsCRT<char> > >,ATL::CStringT<char,StrTraitMFC_DLL<char,ATL::ChTraitsCRT<char> > > >::`vector deleting destructor'
EXTRN	??_E?$CArray@PAVCHogaData@@PAV1@@@UAEPAXI@Z:PROC ; CArray<CHogaData *,CHogaData *>::`vector deleting destructor'
EXTRN	??_ECFloatingHogaDlg@@UAEPAXI@Z:PROC		; CFloatingHogaDlg::`vector deleting destructor'
EXTRN	@__security_check_cookie@4:PROC
EXTRN	___CxxFrameHandler3:PROC
EXTRN	_memcpy:PROC
EXTRN	_memmove:PROC
EXTRN	_memset:PROC
EXTRN	??_7type_info@@6B@:QWORD			; type_info::`vftable'
EXTRN	___security_cookie:DWORD
EXTRN	__fltused:DWORD
;	COMDAT ?_OptionsStorage@?1??__local_stdio_scanf_options@@9@4_KA
_BSS	SEGMENT
?_OptionsStorage@?1??__local_stdio_scanf_options@@9@4_KA DQ 01H DUP (?) ; `__local_stdio_scanf_options'::`2'::_OptionsStorage
_BSS	ENDS
_BSS	SEGMENT
?RMSG_INTERFACE@@3IB DD 01H DUP (?)			; RMSG_INTERFACE
?RMSG_GETSIGNAL_REAL@@3IB DD 01H DUP (?)		; RMSG_GETSIGNAL_REAL
?RMSG_SETQUERYOPT@@3IB DD 01H DUP (?)			; RMSG_SETQUERYOPT
?RMSG_CHARTMAIN@@3IB DD 01H DUP (?)			; RMSG_CHARTMAIN
?RMS_ANALYSIS_FUNC@@3IB DD 01H DUP (?)			; RMS_ANALYSIS_FUNC
?RMSG_GET_USERID@@3IB DD 01H DUP (?)			; RMSG_GET_USERID
?RMSG_CHANGE_SKINCOLOR@@3IB DD 01H DUP (?)		; RMSG_CHANGE_SKINCOLOR
?RMSG_GET_SKINCOLOR@@3IB DD 01H DUP (?)			; RMSG_GET_SKINCOLOR
?RMSG_CHANGEVERTSCALETYPE@@3IB DD 01H DUP (?)		; RMSG_CHANGEVERTSCALETYPE
?RMSG_CHANGE_CROSSLINE@@3IB DD 01H DUP (?)		; RMSG_CHANGE_CROSSLINE
?RMSG_ADD_PLATFORM_MENU@@3IB DD 01H DUP (?)		; RMSG_ADD_PLATFORM_MENU
?RMSG_SETINITIALCHARTDATA@@3IB DD 01H DUP (?)		; RMSG_SETINITIALCHARTDATA
?RMSG_GETINFO@@3IB DD 01H DUP (?)			; RMSG_GETINFO
?RMSG_SETINFO@@3IB DD 01H DUP (?)			; RMSG_SETINFO
_BSS	ENDS
CRT$XCU	SEGMENT
?RMSG_INTERFACE$initializer$@@3P6AXXZA DD FLAT:??__ERMSG_INTERFACE@@YAXXZ ; RMSG_INTERFACE$initializer$
CRT$XCU	ENDS
;	COMDAT __xmm@0000000000000000000000000000004a
CONST	SEGMENT
__xmm@0000000000000000000000000000004a DB 'J', 00H, 00H, 00H, 00H, 00H, 00H
	DB	00H, 00H, 00H, 00H, 00H, 00H, 00H, 00H, 00H
CONST	ENDS
;	COMDAT __xmm@00000000000000000000000000000041
CONST	SEGMENT
__xmm@00000000000000000000000000000041 DB 'A', 00H, 00H, 00H, 00H, 00H, 00H
	DB	00H, 00H, 00H, 00H, 00H, 00H, 00H, 00H, 00H
CONST	ENDS
;	COMDAT __real@4059000000000000
CONST	SEGMENT
__real@4059000000000000 DQ 04059000000000000r	; 100
CONST	ENDS
;	COMDAT ??_R1A@?0A@EA@?$CArray@PAVCHogaData@@PAV1@@@8
rdata$r	SEGMENT
??_R1A@?0A@EA@?$CArray@PAVCHogaData@@PAV1@@@8 DD FLAT:??_R0?AV?$CArray@PAVCHogaData@@PAV1@@@@8 ; CArray<CHogaData *,CHogaData *>::`RTTI Base Class Descriptor at (0,-1,0,64)'
	DD	01H
	DD	00H
	DD	0ffffffffH
	DD	00H
	DD	040H
	DD	FLAT:??_R3?$CArray@PAVCHogaData@@PAV1@@@8
rdata$r	ENDS
;	COMDAT ??_R2?$CArray@PAVCHogaData@@PAV1@@@8
rdata$r	SEGMENT
??_R2?$CArray@PAVCHogaData@@PAV1@@@8 DD FLAT:??_R1A@?0A@EA@?$CArray@PAVCHogaData@@PAV1@@@8 ; CArray<CHogaData *,CHogaData *>::`RTTI Base Class Array'
	DD	FLAT:??_R1A@?0A@EA@CObject@@8
rdata$r	ENDS
;	COMDAT ??_R3?$CArray@PAVCHogaData@@PAV1@@@8
rdata$r	SEGMENT
??_R3?$CArray@PAVCHogaData@@PAV1@@@8 DD 00H		; CArray<CHogaData *,CHogaData *>::`RTTI Class Hierarchy Descriptor'
	DD	00H
	DD	02H
	DD	FLAT:??_R2?$CArray@PAVCHogaData@@PAV1@@@8
rdata$r	ENDS
;	COMDAT ??_R0?AV?$CArray@PAVCHogaData@@PAV1@@@@8
data$rs	SEGMENT
??_R0?AV?$CArray@PAVCHogaData@@PAV1@@@@8 DD FLAT:??_7type_info@@6B@ ; CArray<CHogaData *,CHogaData *> `RTTI Type Descriptor'
	DD	00H
	DB	'.?AV?$CArray@PAVCHogaData@@PAV1@@@', 00H
data$rs	ENDS
;	COMDAT ??_R4?$CArray@PAVCHogaData@@PAV1@@@6B@
rdata$r	SEGMENT
??_R4?$CArray@PAVCHogaData@@PAV1@@@6B@ DD 00H		; CArray<CHogaData *,CHogaData *>::`RTTI Complete Object Locator'
	DD	00H
	DD	00H
	DD	FLAT:??_R0?AV?$CArray@PAVCHogaData@@PAV1@@@@8
	DD	FLAT:??_R3?$CArray@PAVCHogaData@@PAV1@@@8
rdata$r	ENDS
;	COMDAT ??_R1A@?0A@EA@?$CMap@GGV?$CStringT@DV?$StrTraitMFC_DLL@DV?$ChTraitsCRT@D@ATL@@@@@ATL@@V12@@@8
rdata$r	SEGMENT
??_R1A@?0A@EA@?$CMap@GGV?$CStringT@DV?$StrTraitMFC_DLL@DV?$ChTraitsCRT@D@ATL@@@@@ATL@@V12@@@8 DD FLAT:??_R0?AV?$CMap@GGV?$CStringT@DV?$StrTraitMFC_DLL@DV?$ChTraitsCRT@D@ATL@@@@@ATL@@V12@@@@8 ; CMap<unsigned short,unsigned short,ATL::CStringT<char,StrTraitMFC_DLL<char,ATL::ChTraitsCRT<char> > >,ATL::CStringT<char,StrTraitMFC_DLL<char,ATL::ChTraitsCRT<char> > > >::`RTTI Base Class Descriptor at (0,-1,0,64)'
	DD	01H
	DD	00H
	DD	0ffffffffH
	DD	00H
	DD	040H
	DD	FLAT:??_R3?$CMap@GGV?$CStringT@DV?$StrTraitMFC_DLL@DV?$ChTraitsCRT@D@ATL@@@@@ATL@@V12@@@8
rdata$r	ENDS
;	COMDAT ??_R2?$CMap@GGV?$CStringT@DV?$StrTraitMFC_DLL@DV?$ChTraitsCRT@D@ATL@@@@@ATL@@V12@@@8
rdata$r	SEGMENT
??_R2?$CMap@GGV?$CStringT@DV?$StrTraitMFC_DLL@DV?$ChTraitsCRT@D@ATL@@@@@ATL@@V12@@@8 DD FLAT:??_R1A@?0A@EA@?$CMap@GGV?$CStringT@DV?$StrTraitMFC_DLL@DV?$ChTraitsCRT@D@ATL@@@@@ATL@@V12@@@8 ; CMap<unsigned short,unsigned short,ATL::CStringT<char,StrTraitMFC_DLL<char,ATL::ChTraitsCRT<char> > >,ATL::CStringT<char,StrTraitMFC_DLL<char,ATL::ChTraitsCRT<char> > > >::`RTTI Base Class Array'
	DD	FLAT:??_R1A@?0A@EA@CObject@@8
rdata$r	ENDS
;	COMDAT ??_R3?$CMap@GGV?$CStringT@DV?$StrTraitMFC_DLL@DV?$ChTraitsCRT@D@ATL@@@@@ATL@@V12@@@8
rdata$r	SEGMENT
??_R3?$CMap@GGV?$CStringT@DV?$StrTraitMFC_DLL@DV?$ChTraitsCRT@D@ATL@@@@@ATL@@V12@@@8 DD 00H ; CMap<unsigned short,unsigned short,ATL::CStringT<char,StrTraitMFC_DLL<char,ATL::ChTraitsCRT<char> > >,ATL::CStringT<char,StrTraitMFC_DLL<char,ATL::ChTraitsCRT<char> > > >::`RTTI Class Hierarchy Descriptor'
	DD	00H
	DD	02H
	DD	FLAT:??_R2?$CMap@GGV?$CStringT@DV?$StrTraitMFC_DLL@DV?$ChTraitsCRT@D@ATL@@@@@ATL@@V12@@@8
rdata$r	ENDS
;	COMDAT ??_R0?AV?$CMap@GGV?$CStringT@DV?$StrTraitMFC_DLL@DV?$ChTraitsCRT@D@ATL@@@@@ATL@@V12@@@@8
data$rs	SEGMENT
??_R0?AV?$CMap@GGV?$CStringT@DV?$StrTraitMFC_DLL@DV?$ChTraitsCRT@D@ATL@@@@@ATL@@V12@@@@8 DD FLAT:??_7type_info@@6B@ ; CMap<unsigned short,unsigned short,ATL::CStringT<char,StrTraitMFC_DLL<char,ATL::ChTraitsCRT<char> > >,ATL::CStringT<char,StrTraitMFC_DLL<char,ATL::ChTraitsCRT<char> > > > `RTTI Type Descriptor'
	DD	00H
	DB	'.?AV?$CMap@GGV?$CStringT@DV?$StrTraitMFC_DLL@DV?$ChTrait'
	DB	'sCRT@D@ATL@@@@@ATL@@V12@@@', 00H
data$rs	ENDS
;	COMDAT ??_R4?$CMap@GGV?$CStringT@DV?$StrTraitMFC_DLL@DV?$ChTraitsCRT@D@ATL@@@@@ATL@@V12@@@6B@
rdata$r	SEGMENT
??_R4?$CMap@GGV?$CStringT@DV?$StrTraitMFC_DLL@DV?$ChTraitsCRT@D@ATL@@@@@ATL@@V12@@@6B@ DD 00H ; CMap<unsigned short,unsigned short,ATL::CStringT<char,StrTraitMFC_DLL<char,ATL::ChTraitsCRT<char> > >,ATL::CStringT<char,StrTraitMFC_DLL<char,ATL::ChTraitsCRT<char> > > >::`RTTI Complete Object Locator'
	DD	00H
	DD	00H
	DD	FLAT:??_R0?AV?$CMap@GGV?$CStringT@DV?$StrTraitMFC_DLL@DV?$ChTraitsCRT@D@ATL@@@@@ATL@@V12@@@@8
	DD	FLAT:??_R3?$CMap@GGV?$CStringT@DV?$StrTraitMFC_DLL@DV?$ChTraitsCRT@D@ATL@@@@@ATL@@V12@@@8
rdata$r	ENDS
;	COMDAT ??_R2CRscDlg@@8
rdata$r	SEGMENT
??_R2CRscDlg@@8 DD FLAT:??_R1A@?0A@EA@CRscDlg@@8	; CRscDlg::`RTTI Base Class Array'
	DD	FLAT:??_R1A@?0A@EA@CDialog@@8
	DD	FLAT:??_R1A@?0A@EA@CWnd@@8
	DD	FLAT:??_R1A@?0A@EA@CCmdTarget@@8
	DD	FLAT:??_R1A@?0A@EA@CObject@@8
rdata$r	ENDS
;	COMDAT ??_R3CRscDlg@@8
rdata$r	SEGMENT
??_R3CRscDlg@@8 DD 00H					; CRscDlg::`RTTI Class Hierarchy Descriptor'
	DD	00H
	DD	05H
	DD	FLAT:??_R2CRscDlg@@8
rdata$r	ENDS
;	COMDAT ??_R0?AVCRscDlg@@@8
data$rs	SEGMENT
??_R0?AVCRscDlg@@@8 DD FLAT:??_7type_info@@6B@		; CRscDlg `RTTI Type Descriptor'
	DD	00H
	DB	'.?AVCRscDlg@@', 00H
data$rs	ENDS
;	COMDAT ??_R1A@?0A@EA@CRscDlg@@8
rdata$r	SEGMENT
??_R1A@?0A@EA@CRscDlg@@8 DD FLAT:??_R0?AVCRscDlg@@@8	; CRscDlg::`RTTI Base Class Descriptor at (0,-1,0,64)'
	DD	04H
	DD	00H
	DD	0ffffffffH
	DD	00H
	DD	040H
	DD	FLAT:??_R3CRscDlg@@8
rdata$r	ENDS
;	COMDAT ??_R1A@?0A@EA@CFloatingHogaDlg@@8
rdata$r	SEGMENT
??_R1A@?0A@EA@CFloatingHogaDlg@@8 DD FLAT:??_R0?AVCFloatingHogaDlg@@@8 ; CFloatingHogaDlg::`RTTI Base Class Descriptor at (0,-1,0,64)'
	DD	05H
	DD	00H
	DD	0ffffffffH
	DD	00H
	DD	040H
	DD	FLAT:??_R3CFloatingHogaDlg@@8
rdata$r	ENDS
;	COMDAT ??_R2CFloatingHogaDlg@@8
rdata$r	SEGMENT
??_R2CFloatingHogaDlg@@8 DD FLAT:??_R1A@?0A@EA@CFloatingHogaDlg@@8 ; CFloatingHogaDlg::`RTTI Base Class Array'
	DD	FLAT:??_R1A@?0A@EA@CRscDlg@@8
	DD	FLAT:??_R1A@?0A@EA@CDialog@@8
	DD	FLAT:??_R1A@?0A@EA@CWnd@@8
	DD	FLAT:??_R1A@?0A@EA@CCmdTarget@@8
	DD	FLAT:??_R1A@?0A@EA@CObject@@8
rdata$r	ENDS
;	COMDAT ??_R3CFloatingHogaDlg@@8
rdata$r	SEGMENT
??_R3CFloatingHogaDlg@@8 DD 00H				; CFloatingHogaDlg::`RTTI Class Hierarchy Descriptor'
	DD	00H
	DD	06H
	DD	FLAT:??_R2CFloatingHogaDlg@@8
rdata$r	ENDS
;	COMDAT ??_R0?AVCFloatingHogaDlg@@@8
data$rs	SEGMENT
??_R0?AVCFloatingHogaDlg@@@8 DD FLAT:??_7type_info@@6B@	; CFloatingHogaDlg `RTTI Type Descriptor'
	DD	00H
	DB	'.?AVCFloatingHogaDlg@@', 00H
data$rs	ENDS
;	COMDAT ??_R4CFloatingHogaDlg@@6B@
rdata$r	SEGMENT
??_R4CFloatingHogaDlg@@6B@ DD 00H			; CFloatingHogaDlg::`RTTI Complete Object Locator'
	DD	00H
	DD	00H
	DD	FLAT:??_R0?AVCFloatingHogaDlg@@@8
	DD	FLAT:??_R3CFloatingHogaDlg@@8
rdata$r	ENDS
;	COMDAT ??_R1A@?0A@EA@CKBREAL_KXYS@@8
rdata$r	SEGMENT
??_R1A@?0A@EA@CKBREAL_KXYS@@8 DD FLAT:??_R0?AVCKBREAL_KXYS@@@8 ; CKBREAL_KXYS::`RTTI Base Class Descriptor at (0,-1,0,64)'
	DD	00H
	DD	00H
	DD	0ffffffffH
	DD	00H
	DD	040H
	DD	FLAT:??_R3CKBREAL_KXYS@@8
rdata$r	ENDS
;	COMDAT ??_R2CKBREAL_KXYS@@8
rdata$r	SEGMENT
??_R2CKBREAL_KXYS@@8 DD FLAT:??_R1A@?0A@EA@CKBREAL_KXYS@@8 ; CKBREAL_KXYS::`RTTI Base Class Array'
rdata$r	ENDS
;	COMDAT ??_R3CKBREAL_KXYS@@8
rdata$r	SEGMENT
??_R3CKBREAL_KXYS@@8 DD 00H				; CKBREAL_KXYS::`RTTI Class Hierarchy Descriptor'
	DD	00H
	DD	01H
	DD	FLAT:??_R2CKBREAL_KXYS@@8
rdata$r	ENDS
;	COMDAT ??_R0?AVCKBREAL_KXYS@@@8
data$rs	SEGMENT
??_R0?AVCKBREAL_KXYS@@@8 DD FLAT:??_7type_info@@6B@	; CKBREAL_KXYS `RTTI Type Descriptor'
	DD	00H
	DB	'.?AVCKBREAL_KXYS@@', 00H
data$rs	ENDS
;	COMDAT ??_R4CKBREAL_KXYS@@6B@
rdata$r	SEGMENT
??_R4CKBREAL_KXYS@@6B@ DD 00H				; CKBREAL_KXYS::`RTTI Complete Object Locator'
	DD	00H
	DD	00H
	DD	FLAT:??_R0?AVCKBREAL_KXYS@@@8
	DD	FLAT:??_R3CKBREAL_KXYS@@8
rdata$r	ENDS
;	COMDAT ??_R1A@?0A@EA@CKBREAL_KXH1@@8
rdata$r	SEGMENT
??_R1A@?0A@EA@CKBREAL_KXH1@@8 DD FLAT:??_R0?AVCKBREAL_KXH1@@@8 ; CKBREAL_KXH1::`RTTI Base Class Descriptor at (0,-1,0,64)'
	DD	00H
	DD	00H
	DD	0ffffffffH
	DD	00H
	DD	040H
	DD	FLAT:??_R3CKBREAL_KXH1@@8
rdata$r	ENDS
;	COMDAT ??_R2CKBREAL_KXH1@@8
rdata$r	SEGMENT
??_R2CKBREAL_KXH1@@8 DD FLAT:??_R1A@?0A@EA@CKBREAL_KXH1@@8 ; CKBREAL_KXH1::`RTTI Base Class Array'
rdata$r	ENDS
;	COMDAT ??_R3CKBREAL_KXH1@@8
rdata$r	SEGMENT
??_R3CKBREAL_KXH1@@8 DD 00H				; CKBREAL_KXH1::`RTTI Class Hierarchy Descriptor'
	DD	00H
	DD	01H
	DD	FLAT:??_R2CKBREAL_KXH1@@8
rdata$r	ENDS
;	COMDAT ??_R0?AVCKBREAL_KXH1@@@8
data$rs	SEGMENT
??_R0?AVCKBREAL_KXH1@@@8 DD FLAT:??_7type_info@@6B@	; CKBREAL_KXH1 `RTTI Type Descriptor'
	DD	00H
	DB	'.?AVCKBREAL_KXH1@@', 00H
data$rs	ENDS
;	COMDAT ??_R4CKBREAL_KXH1@@6B@
rdata$r	SEGMENT
??_R4CKBREAL_KXH1@@6B@ DD 00H				; CKBREAL_KXH1::`RTTI Complete Object Locator'
	DD	00H
	DD	00H
	DD	FLAT:??_R0?AVCKBREAL_KXH1@@@8
	DD	FLAT:??_R3CKBREAL_KXH1@@8
rdata$r	ENDS
;	COMDAT ??_R1A@?0A@EA@CKB_01230@@8
rdata$r	SEGMENT
??_R1A@?0A@EA@CKB_01230@@8 DD FLAT:??_R0?AVCKB_01230@@@8 ; CKB_01230::`RTTI Base Class Descriptor at (0,-1,0,64)'
	DD	00H
	DD	00H
	DD	0ffffffffH
	DD	00H
	DD	040H
	DD	FLAT:??_R3CKB_01230@@8
rdata$r	ENDS
;	COMDAT ??_R2CKB_01230@@8
rdata$r	SEGMENT
??_R2CKB_01230@@8 DD FLAT:??_R1A@?0A@EA@CKB_01230@@8	; CKB_01230::`RTTI Base Class Array'
rdata$r	ENDS
;	COMDAT ??_R3CKB_01230@@8
rdata$r	SEGMENT
??_R3CKB_01230@@8 DD 00H				; CKB_01230::`RTTI Class Hierarchy Descriptor'
	DD	00H
	DD	01H
	DD	FLAT:??_R2CKB_01230@@8
rdata$r	ENDS
;	COMDAT ??_R0?AVCKB_01230@@@8
data$rs	SEGMENT
??_R0?AVCKB_01230@@@8 DD FLAT:??_7type_info@@6B@	; CKB_01230 `RTTI Type Descriptor'
	DD	00H
	DB	'.?AVCKB_01230@@', 00H
data$rs	ENDS
;	COMDAT ??_R4CKB_01230@@6B@
rdata$r	SEGMENT
??_R4CKB_01230@@6B@ DD 00H				; CKB_01230::`RTTI Complete Object Locator'
	DD	00H
	DD	00H
	DD	FLAT:??_R0?AVCKB_01230@@@8
	DD	FLAT:??_R3CKB_01230@@8
rdata$r	ENDS
;	COMDAT ??_R1A@?0A@EA@CUtil@@8
rdata$r	SEGMENT
??_R1A@?0A@EA@CUtil@@8 DD FLAT:??_R0?AVCUtil@@@8	; CUtil::`RTTI Base Class Descriptor at (0,-1,0,64)'
	DD	01H
	DD	00H
	DD	0ffffffffH
	DD	00H
	DD	040H
	DD	FLAT:??_R3CUtil@@8
rdata$r	ENDS
;	COMDAT ??_R2CUtil@@8
rdata$r	SEGMENT
??_R2CUtil@@8 DD FLAT:??_R1A@?0A@EA@CUtil@@8		; CUtil::`RTTI Base Class Array'
	DD	FLAT:??_R1A@?0A@EA@CObject@@8
rdata$r	ENDS
;	COMDAT ??_R3CUtil@@8
rdata$r	SEGMENT
??_R3CUtil@@8 DD 00H					; CUtil::`RTTI Class Hierarchy Descriptor'
	DD	00H
	DD	02H
	DD	FLAT:??_R2CUtil@@8
rdata$r	ENDS
;	COMDAT ??_R0?AVCUtil@@@8
data$rs	SEGMENT
??_R0?AVCUtil@@@8 DD FLAT:??_7type_info@@6B@		; CUtil `RTTI Type Descriptor'
	DD	00H
	DB	'.?AVCUtil@@', 00H
data$rs	ENDS
;	COMDAT ??_R4CUtil@@6B@
rdata$r	SEGMENT
??_R4CUtil@@6B@ DD 00H					; CUtil::`RTTI Complete Object Locator'
	DD	00H
	DD	00H
	DD	FLAT:??_R0?AVCUtil@@@8
	DD	FLAT:??_R3CUtil@@8
rdata$r	ENDS
;	COMDAT ??_C@_03DLFLMLMC@106@
CONST	SEGMENT
??_C@_03DLFLMLMC@106@ DB '106', 00H			; `string'
CONST	ENDS
;	COMDAT ??_C@_03HEBKFNAF@101@
CONST	SEGMENT
??_C@_03HEBKFNAF@101@ DB '101', 00H			; `string'
CONST	ENDS
;	COMDAT ??_C@_03KPMDFHLI@045@
CONST	SEGMENT
??_C@_03KPMDFHLI@045@ DB '045', 00H			; `string'
CONST	ENDS
;	COMDAT ??_C@_03LGNIGGPJ@044@
CONST	SEGMENT
??_C@_03LGNIGGPJ@044@ DB '044', 00H			; `string'
CONST	ENDS
;	COMDAT ??_C@_03PJJJPADO@043@
CONST	SEGMENT
??_C@_03PJJJPADO@043@ DB '043', 00H			; `string'
CONST	ENDS
;	COMDAT ??_C@_03OAICMBHP@042@
CONST	SEGMENT
??_C@_03OAICMBHP@042@ DB '042', 00H			; `string'
CONST	ENDS
;	COMDAT ??_C@_03MLKPJCLM@041@
CONST	SEGMENT
??_C@_03MLKPJCLM@041@ DB '041', 00H			; `string'
CONST	ENDS
;	COMDAT ??_C@_03KMEHIDNG@065@
CONST	SEGMENT
??_C@_03KMEHIDNG@065@ DB '065', 00H			; `string'
CONST	ENDS
;	COMDAT ??_C@_03LFFMLCJH@064@
CONST	SEGMENT
??_C@_03LFFMLCJH@064@ DB '064', 00H			; `string'
CONST	ENDS
;	COMDAT ??_C@_03PKBNCEFA@063@
CONST	SEGMENT
??_C@_03PKBNCEFA@063@ DB '063', 00H			; `string'
CONST	ENDS
;	COMDAT ??_C@_03ODAGBFBB@062@
CONST	SEGMENT
??_C@_03ODAGBFBB@062@ DB '062', 00H			; `string'
CONST	ENDS
;	COMDAT ??_C@_03MICLEGNC@061@
CONST	SEGMENT
??_C@_03MICLEGNC@061@ DB '061', 00H			; `string'
CONST	ENDS
;	COMDAT ??_C@_03KOABDNIP@055@
CONST	SEGMENT
??_C@_03KOABDNIP@055@ DB '055', 00H			; `string'
CONST	ENDS
;	COMDAT ??_C@_03LHBKAMMO@054@
CONST	SEGMENT
??_C@_03LHBKAMMO@054@ DB '054', 00H			; `string'
CONST	ENDS
;	COMDAT ??_C@_03PIFLJKAJ@053@
CONST	SEGMENT
??_C@_03PIFLJKAJ@053@ DB '053', 00H			; `string'
CONST	ENDS
;	COMDAT ??_C@_03OBEAKLEI@052@
CONST	SEGMENT
??_C@_03OBEAKLEI@052@ DB '052', 00H			; `string'
CONST	ENDS
;	COMDAT ??_C@_03MKGNPIIL@051@
CONST	SEGMENT
??_C@_03MKGNPIIL@051@ DB '051', 00H			; `string'
CONST	ENDS
;	COMDAT ??_C@_03KNIFOJOB@075@
CONST	SEGMENT
??_C@_03KNIFOJOB@075@ DB '075', 00H			; `string'
CONST	ENDS
;	COMDAT ??_C@_03LEJONIKA@074@
CONST	SEGMENT
??_C@_03LEJONIKA@074@ DB '074', 00H			; `string'
CONST	ENDS
;	COMDAT ??_C@_03PLNPEOGH@073@
CONST	SEGMENT
??_C@_03PLNPEOGH@073@ DB '073', 00H			; `string'
CONST	ENDS
;	COMDAT ??_C@_03OCMEHPCG@072@
CONST	SEGMENT
??_C@_03OCMEHPCG@072@ DB '072', 00H			; `string'
CONST	ENDS
;	COMDAT ??_C@_03MJOJCMOF@071@
CONST	SEGMENT
??_C@_03MJOJCMOF@071@ DB '071', 00H			; `string'
CONST	ENDS
;	COMDAT ??_C@_04OKLMFNFP@KXYS@
CONST	SEGMENT
??_C@_04OKLMFNFP@KXYS@ DB 'KXYS', 00H			; `string'
CONST	ENDS
;	COMDAT ??_C@_04KAJDJNDN@KXH1@
CONST	SEGMENT
??_C@_04KAJDJNDN@KXH1@ DB 'KXH1', 00H			; `string'
CONST	ENDS
;	COMDAT ??_C@_01NBENCBCI@?$CK@
CONST	SEGMENT
??_C@_01NBENCBCI@?$CK@ DB '*', 00H			; `string'
CONST	ENDS
;	COMDAT ?msg@?1??OnSetCursor@CFloatingHogaDlg@@IAEHPAVCWnd@@II@Z@4IA
_DATA	SEGMENT
?msg@?1??OnSetCursor@CFloatingHogaDlg@@IAEHPAVCWnd@@II@Z@4IA DD 0200H ; `CFloatingHogaDlg::OnSetCursor'::`2'::msg
_DATA	ENDS
;	COMDAT ??_C@_0L@IPFBCIOP@?$LP?$LJ?$LL?s?C?$LM?$LA?a?$LH?$KO@
CONST	SEGMENT
??_C@_0L@IPFBCIOP@?$LP?$LJ?$LL?s?C?$LM?$LA?a?$LH?$KO@ DB 0bfH, 0b9H, 0bbH
	DB	0f3H, 0c3H, 0bcH, 0b0H, 0e1H, 0b7H, 0aeH, 00H ; `string'
CONST	ENDS
;	COMDAT ??_C@_0L@NIGCCKF@?$LP?$LJ?$LL?s?C?$LM?$LA?a?$LA?$KB@
CONST	SEGMENT
??_C@_0L@NIGCCKF@?$LP?$LJ?$LL?s?C?$LM?$LA?a?$LA?$KB@ DB 0bfH, 0b9H, 0bbH, 0f3H
	DB	0c3H, 0bcH, 0b0H, 0e1H, 0b0H, 0a1H, 00H	; `string'
CONST	ENDS
;	COMDAT ??_C@_02EHLBLIAD@?A?V@
CONST	SEGMENT
??_C@_02EHLBLIAD@?A?V@ DB 0c1H, 0d6H, 00H		; `string'
CONST	ENDS
;	COMDAT ??_C@_01FGNFDNOH@?$CF@
CONST	SEGMENT
??_C@_01FGNFDNOH@?$CF@ DB '%', 00H			; `string'
CONST	ENDS
;	COMDAT ??_C@_04GEFJINEE@?$CF?42f@
CONST	SEGMENT
??_C@_04GEFJINEE@?$CF?42f@ DB '%.2f', 00H		; `string'
CONST	ENDS
;	COMDAT ??_C@_01CLKCMJKC@?5@
CONST	SEGMENT
??_C@_01CLKCMJKC@?5@ DB ' ', 00H			; `string'
CONST	ENDS
;	COMDAT ??_C@_05OEELCGHA@?$CF1?41s@
CONST	SEGMENT
??_C@_05OEELCGHA@?$CF1?41s@ DB '%1.1s', 00H		; `string'
CONST	ENDS
;	COMDAT ??_C@_04EAAFLGOC@?G?O?G?Q@
CONST	SEGMENT
??_C@_04EAAFLGOC@?G?O?G?Q@ DB 0c7H, 0cfH, 0c7H, 0d1H, 00H ; `string'
CONST	ENDS
;	COMDAT ??_C@_04MGNKPMDF@?$LL?s?G?Q@
CONST	SEGMENT
??_C@_04MGNKPMDF@?$LL?s?G?Q@ DB 0bbH, 0f3H, 0c7H, 0d1H, 00H ; `string'
CONST	ENDS
;	COMDAT ??_C@_06BINLOPDK@?$LN?C?$LA?$KD?$LP?$NM@
CONST	SEGMENT
??_C@_06BINLOPDK@?$LN?C?$LA?$KD?$LP?$NM@ DB 0bdH, 0c3H, 0b0H, 0a3H, 0bfH, 0dcH
	DB	00H						; `string'
CONST	ENDS
;	COMDAT ??_C@_06DDAGPNBF@?C?Q?$MA?$NM?$LH?$KO@
CONST	SEGMENT
??_C@_06DDAGPNBF@?C?Q?$MA?$NM?$LH?$KO@ DB 0c3H, 0d1H, 0c0H, 0dcH, 0b7H, 0aeH
	DB	00H						; `string'
CONST	ENDS
;	COMDAT ??_C@_09DCEFIFCJ@5?H?$KD?$LA?$KB?$MA?$NM?$LH?$KO@
CONST	SEGMENT
??_C@_09DCEFIFCJ@5?H?$KD?$LA?$KB?$MA?$NM?$LH?$KO@ DB '5', 0c8H, 0a3H, 0b0H
	DB	0a1H, 0c0H, 0dcH, 0b7H, 0aeH, 00H		; `string'
CONST	ENDS
;	COMDAT ??_C@_04OJFMPMDJ@?C?k?$LM?R@
CONST	SEGMENT
??_C@_04OJFMPMDJ@?C?k?$LM?R@ DB 0c3H, 0ebH, 0bcH, 0d2H, 00H ; `string'
CONST	ENDS
;	COMDAT ??_C@_05NAFAMIEH@?5?$LM?v?$MA?M@
CONST	SEGMENT
??_C@_05NAFAMIEH@?5?$LM?v?$MA?M@ DB ' ', 0bcH, 0f6H, 0c0H, 0cdH, 00H ; `string'
CONST	ENDS
;	COMDAT ??_C@_06ONEPBMEK@?$LF?n?$LG?t?$MA?$LC@
CONST	SEGMENT
??_C@_06ONEPBMEK@?$LF?n?$LG?t?$MA?$LC@ DB 0b5H, 0eeH, 0b6H, 0f4H, 0c0H, 0b2H
	DB	00H						; `string'
CONST	ENDS
;	COMDAT ??_C@_08ODGJCEOL@Stop?$LI?E?$LM?v@
CONST	SEGMENT
??_C@_08ODGJCEOL@Stop?$LI?E?$LM?v@ DB 'Stop', 0b8H, 0c5H, 0bcH, 0f6H, 00H ; `string'
CONST	ENDS
;	COMDAT ??_C@_08NBFDGMIB@?$LI?E?$LM?v?A?V?$LJ?$KO@
CONST	SEGMENT
??_C@_08NBFDGMIB@?$LI?E?$LM?v?A?V?$LJ?$KO@ DB 0b8H, 0c5H, 0bcH, 0f6H, 0c1H
	DB	0d6H, 0b9H, 0aeH, 00H			; `string'
CONST	ENDS
;	COMDAT ??_C@_08IJBAIIFP@?$LI?E?$LM?v?$MA?$NM?$LH?$KO@
CONST	SEGMENT
??_C@_08IJBAIIFP@?$LI?E?$LM?v?$MA?$NM?$LH?$KO@ DB 0b8H, 0c5H, 0bcH, 0f6H, 0c0H
	DB	0dcH, 0b7H, 0aeH, 00H			; `string'
CONST	ENDS
;	COMDAT ??_C@_05BGBFEMBO@?5?$LF?n?$LG?t@
CONST	SEGMENT
??_C@_05BGBFEMBO@?5?$LF?n?$LG?t@ DB ' ', 0b5H, 0eeH, 0b6H, 0f4H, 00H ; `string'
CONST	ENDS
;	COMDAT ??_C@_05FGHBPLEF@?H?$KD?5?$LA?$KB@
CONST	SEGMENT
??_C@_05FGHBPLEF@?H?$KD?5?$LA?$KB@ DB 0c8H, 0a3H, ' ', 0b0H, 0a1H, 00H ; `string'
CONST	ENDS
;	COMDAT ??_C@_08JFEELFEO@?$LI?E?$LF?$LF?$MA?$NM?$LH?$KO@
CONST	SEGMENT
??_C@_08JFEELFEO@?$LI?E?$LF?$LF?$MA?$NM?$LH?$KO@ DB 0b8H, 0c5H, 0b5H, 0b5H
	DB	0c0H, 0dcH, 0b7H, 0aeH, 00H			; `string'
CONST	ENDS
;	COMDAT ??_C@_08MNAHFBJA@?$LI?E?$LF?$LF?A?V?$LJ?$KO@
CONST	SEGMENT
??_C@_08MNAHFBJA@?$LI?E?$LF?$LF?A?V?$LJ?$KO@ DB 0b8H, 0c5H, 0b5H, 0b5H, 0c1H
	DB	0d6H, 0b9H, 0aeH, 00H			; `string'
CONST	ENDS
;	COMDAT ??_C@_02CONNCEND@?C?k@
CONST	SEGMENT
??_C@_02CONNCEND@?C?k@ DB 0c3H, 0ebH, 00H		; `string'
CONST	ENDS
;	COMDAT ??_C@_08DHOMADKC@Stop?$LI?E?$LF?$LF@
CONST	SEGMENT
??_C@_08DHOMADKC@Stop?$LI?E?$LF?$LF@ DB 'Stop', 0b8H, 0c5H, 0b5H, 0b5H, 00H ; `string'
CONST	ENDS
;	COMDAT ??_R0PAVCMemoryException@@@8
data$r	SEGMENT
??_R0PAVCMemoryException@@@8 DD FLAT:??_7type_info@@6B@	; CMemoryException * `RTTI Type Descriptor'
	DD	00H
	DB	'.PAVCMemoryException@@', 00H
data$r	ENDS
;	COMDAT ??_C@_06MFMMLLPC@?$LB?$LM?$LI?$LC?C?$LM@
CONST	SEGMENT
??_C@_06MFMMLLPC@?$LB?$LM?$LI?$LC?C?$LM@ DB 0b1H, 0bcH, 0b8H, 0b2H, 0c3H, 0bcH
	DB	00H						; `string'
CONST	ENDS
;	COMDAT ??_C@_0BD@CMCCCNBF@HANAROIGATEMANAGER@
CONST	SEGMENT
??_C@_0BD@CMCCCNBF@HANAROIGATEMANAGER@ DB 'HANAROIGATEMANAGER', 00H ; `string'
CONST	ENDS
;	COMDAT ??_C@_08FKDHAHKC@5?H?$KD?$LA?$KB?5?C?$KC@
CONST	SEGMENT
??_C@_08FKDHAHKC@5?H?$KD?$LA?$KB?5?C?$KC@ DB '5', 0c8H, 0a3H, 0b0H, 0a1H, ' '
	DB	0c3H, 0a2H, 00H				; `string'
CONST	ENDS
;	COMDAT ?messageMap@?1??GetThisMessageMap@CFloatingHogaDlg@@KGPBUAFX_MSGMAP@@XZ@4U3@B
CONST	SEGMENT
?messageMap@?1??GetThisMessageMap@CFloatingHogaDlg@@KGPBUAFX_MSGMAP@@XZ@4U3@B DD FLAT:?GetThisMessageMap@CRscDlg@@KGPBUAFX_MSGMAP@@XZ ; `CFloatingHogaDlg::GetThisMessageMap'::`2'::messageMap
	DD	FLAT:?_messageEntries@?1??GetThisMessageMap@CFloatingHogaDlg@@KGPBUAFX_MSGMAP@@XZ@4QBUAFX_MSGMAP_ENTRY@@B
CONST	ENDS
;	COMDAT ?_messageEntries@?1??GetThisMessageMap@CFloatingHogaDlg@@KGPBUAFX_MSGMAP@@XZ@4QBUAFX_MSGMAP_ENTRY@@B
CONST	SEGMENT
?_messageEntries@?1??GetThisMessageMap@CFloatingHogaDlg@@KGPBUAFX_MSGMAP@@XZ@4QBUAFX_MSGMAP_ENTRY@@B DD 0201H ; `CFloatingHogaDlg::GetThisMessageMap'::`2'::_messageEntries
	DD	00H
	DD	00H
	DD	00H
	DD	036H
	DD	FLAT:?OnLButtonDown@CFloatingHogaDlg@@IAEXIVCPoint@@@Z
	DD	05H
	DD	00H
	DD	00H
	DD	00H
	DD	01aH
	DD	FLAT:?OnSize@CFloatingHogaDlg@@IAEXIHH@Z
	DD	0203H
	DD	00H
	DD	00H
	DD	00H
	DD	036H
	DD	FLAT:?OnLButtonDblClk@CFloatingHogaDlg@@IAEXIVCPoint@@@Z
	DD	0202H
	DD	00H
	DD	00H
	DD	00H
	DD	036H
	DD	FLAT:?OnLButtonUp@CFloatingHogaDlg@@IAEXIVCPoint@@@Z
	DD	0200H
	DD	00H
	DD	00H
	DD	00H
	DD	036H
	DD	FLAT:?OnMouseMove@CFloatingHogaDlg@@IAEXIVCPoint@@@Z
	DD	02H
	DD	00H
	DD	00H
	DD	00H
	DD	013H
	DD	FLAT:?OnDestroy@CFloatingHogaDlg@@IAEXXZ
	DD	020H
	DD	00H
	DD	00H
	DD	00H
	DD	05H
	DD	FLAT:?OnSetCursor@CFloatingHogaDlg@@IAEHPAVCWnd@@II@Z
	DD	0fH
	DD	00H
	DD	00H
	DD	00H
	DD	013H
	DD	FLAT:?OnPaint@CFloatingHogaDlg@@IAEXXZ
	DD	0111H
	DD	00H
	DD	01875H
	DD	01875H
	DD	03aH
	DD	FLAT:?OnButtonClose@CFloatingHogaDlg@@IAEXXZ
	DD	014H
	DD	00H
	DD	00H
	DD	00H
	DD	01H
	DD	FLAT:?OnEraseBkgnd@CFloatingHogaDlg@@IAEHPAVCDC@@@Z
	DD	084H
	DD	00H
	DD	00H
	DD	00H
	DD	047H
	DD	FLAT:?OnNcHitTest@CFloatingHogaDlg@@IAEJVCPoint@@@Z
	DD	00H
	DD	00H
	DD	00H
	DD	00H
	DD	00H
	DD	00H
CONST	ENDS
;	COMDAT ??_7CFloatingHogaDlg@@6B@
CONST	SEGMENT
??_7CFloatingHogaDlg@@6B@ DD FLAT:??_R4CFloatingHogaDlg@@6B@ ; CFloatingHogaDlg::`vftable'
	DD	FLAT:?GetRuntimeClass@CDialog@@UBEPAUCRuntimeClass@@XZ
	DD	FLAT:??_ECFloatingHogaDlg@@UAEPAXI@Z
	DD	FLAT:?Serialize@CObject@@UAEXAAVCArchive@@@Z
	DD	FLAT:?AssertValid@CObject@@UBEXXZ
	DD	FLAT:?Dump@CObject@@UBEXAAVCDumpContext@@@Z
	DD	FLAT:?OnCmdMsg@CDialog@@UAEHIHPAXPAUAFX_CMDHANDLERINFO@@@Z
	DD	FLAT:?OnFinalRelease@CWnd@@UAEXXZ
	DD	FLAT:?IsInvokeAllowed@CCmdTarget@@UAEHJ@Z
	DD	FLAT:?GetDispatchIID@CCmdTarget@@UAEHPAU_GUID@@@Z
	DD	FLAT:?GetTypeInfoCount@CCmdTarget@@UAEIXZ
	DD	FLAT:?GetTypeLibCache@CCmdTarget@@UAEPAVCTypeLibCache@@XZ
	DD	FLAT:?GetTypeLib@CCmdTarget@@UAEJKPAPAUITypeLib@@@Z
	DD	FLAT:?GetMessageMap@CFloatingHogaDlg@@MBEPBUAFX_MSGMAP@@XZ
	DD	FLAT:?GetCommandMap@CCmdTarget@@MBEPBUAFX_OLECMDMAP@@XZ
	DD	FLAT:?GetDispatchMap@CCmdTarget@@MBEPBUAFX_DISPMAP@@XZ
	DD	FLAT:?GetConnectionMap@CCmdTarget@@MBEPBUAFX_CONNECTIONMAP@@XZ
	DD	FLAT:?GetInterfaceMap@CWnd@@MBEPBUAFX_INTERFACEMAP@@XZ
	DD	FLAT:?GetEventSinkMap@CCmdTarget@@MBEPBUAFX_EVENTSINKMAP@@XZ
	DD	FLAT:?OnCreateAggregates@CCmdTarget@@UAEHXZ
	DD	FLAT:?GetInterfaceHook@CCmdTarget@@UAEPAUIUnknown@@PBX@Z
	DD	FLAT:?GetExtraConnectionPoints@CCmdTarget@@MAEHPAVCPtrArray@@@Z
	DD	FLAT:?GetConnectionHook@CCmdTarget@@MAEPAUIConnectionPoint@@ABU_GUID@@@Z
	DD	FLAT:?PreSubclassWindow@CWnd@@UAEXXZ
	DD	FLAT:?Create@CWnd@@UAEHPBD0KABUtagRECT@@PAV1@IPAUCCreateContext@@@Z
	DD	FLAT:?CreateEx@CWnd@@UAEHKPBD0KABUtagRECT@@PAV1@IPAX@Z
	DD	FLAT:?CreateEx@CWnd@@UAEHKPBD0KHHHHPAUHWND__@@PAUHMENU__@@PAX@Z
	DD	FLAT:?DestroyWindow@CWnd@@UAEHXZ
	DD	FLAT:?PreCreateWindow@CWnd@@UAEHAAUtagCREATESTRUCTA@@@Z
	DD	FLAT:?CalcWindowRect@CWnd@@UAEXPAUtagRECT@@I@Z
	DD	FLAT:?GetMenu@CWnd@@UBEPAVCMenu@@XZ
	DD	FLAT:?SetMenu@CWnd@@UAEHPAVCMenu@@@Z
	DD	FLAT:?OnToolHitTest@CWnd@@UBEHVCPoint@@PAUtagTOOLINFOA@@@Z
	DD	FLAT:?GetScrollBarCtrl@CWnd@@UBEPAVCScrollBar@@H@Z
	DD	FLAT:?WinHelpA@CWnd@@UAEXKI@Z
	DD	FLAT:?HtmlHelpA@CWnd@@UAEXKI@Z
	DD	FLAT:?WinHelpInternal@CWnd@@UAEXKI@Z
	DD	FLAT:?ContinueModal@CWnd@@UAEHXZ
	DD	FLAT:?EndModalLoop@CWnd@@UAEXH@Z
	DD	FLAT:?OnDrawIconicThumbnailOrLivePreview@CWnd@@UAEXAAVCDC@@VCRect@@VCSize@@HAAH@Z
	DD	FLAT:?EnsureStdObj@CWnd@@UAEJXZ
	DD	FLAT:?get_accParent@CWnd@@UAEJPAPAUIDispatch@@@Z
	DD	FLAT:?get_accChildCount@CWnd@@UAEJPAJ@Z
	DD	FLAT:?get_accChild@CWnd@@UAEJUtagVARIANT@@PAPAUIDispatch@@@Z
	DD	FLAT:?get_accName@CWnd@@UAEJUtagVARIANT@@PAPA_W@Z
	DD	FLAT:?get_accValue@CWnd@@UAEJUtagVARIANT@@PAPA_W@Z
	DD	FLAT:?get_accDescription@CWnd@@UAEJUtagVARIANT@@PAPA_W@Z
	DD	FLAT:?get_accRole@CWnd@@UAEJUtagVARIANT@@PAU2@@Z
	DD	FLAT:?get_accState@CWnd@@UAEJUtagVARIANT@@PAU2@@Z
	DD	FLAT:?get_accHelp@CWnd@@UAEJUtagVARIANT@@PAPA_W@Z
	DD	FLAT:?get_accHelpTopic@CWnd@@UAEJPAPA_WUtagVARIANT@@PAJ@Z
	DD	FLAT:?get_accKeyboardShortcut@CWnd@@UAEJUtagVARIANT@@PAPA_W@Z
	DD	FLAT:?get_accFocus@CWnd@@UAEJPAUtagVARIANT@@@Z
	DD	FLAT:?get_accSelection@CWnd@@UAEJPAUtagVARIANT@@@Z
	DD	FLAT:?get_accDefaultAction@CWnd@@UAEJUtagVARIANT@@PAPA_W@Z
	DD	FLAT:?accSelect@CWnd@@UAEJJUtagVARIANT@@@Z
	DD	FLAT:?accLocation@CWnd@@UAEJPAJ000UtagVARIANT@@@Z
	DD	FLAT:?accNavigate@CWnd@@UAEJJUtagVARIANT@@PAU2@@Z
	DD	FLAT:?accHitTest@CWnd@@UAEJJJPAUtagVARIANT@@@Z
	DD	FLAT:?accDoDefaultAction@CWnd@@UAEJUtagVARIANT@@@Z
	DD	FLAT:?put_accName@CWnd@@UAEJUtagVARIANT@@PA_W@Z
	DD	FLAT:?put_accValue@CWnd@@UAEJUtagVARIANT@@PA_W@Z
	DD	FLAT:?SetProxy@CWnd@@UAEJPAUIAccessibleProxy@@@Z
	DD	FLAT:?CreateAccessibleProxy@CWnd@@UAEJIJPAJ@Z
	DD	FLAT:?OnCommand@CWnd@@MAEHIJ@Z
	DD	FLAT:?OnNotify@CWnd@@MAEHIJPAJ@Z
	DD	FLAT:?GetSuperWndProcAddr@CWnd@@MAEPAP6GJPAUHWND__@@IIJ@ZXZ
	DD	FLAT:?DoDataExchange@CFloatingHogaDlg@@MAEXPAVCDataExchange@@@Z
	DD	FLAT:?BeginModalState@CWnd@@UAEXXZ
	DD	FLAT:?EndModalState@CWnd@@UAEXXZ
	DD	FLAT:?PreTranslateMessage@CFloatingHogaDlg@@UAEHPAUtagMSG@@@Z
	DD	FLAT:?OnAmbientProperty@CWnd@@UAEHPAVCOleControlSite@@JPAUtagVARIANT@@@Z
	DD	FLAT:?WindowProc@CFloatingHogaDlg@@MAEJIIJ@Z
	DD	FLAT:?OnWndMsg@CWnd@@MAEHIIJPAJ@Z
	DD	FLAT:?DefWindowProcA@CWnd@@MAEJIIJ@Z
	DD	FLAT:?PostNcDestroy@CWnd@@MAEXXZ
	DD	FLAT:?OnChildNotify@CWnd@@MAEHIIJPAJ@Z
	DD	FLAT:?OnTouchInputs@CWnd@@MAEHIPAUtagTOUCHINPUT@@@Z
	DD	FLAT:?OnTouchInput@CWnd@@MAEHVCPoint@@HHPAUtagTOUCHINPUT@@@Z
	DD	FLAT:?GetGestureStatus@CWnd@@MAEKVCPoint@@@Z
	DD	FLAT:?OnGestureZoom@CWnd@@MAEHVCPoint@@J@Z
	DD	FLAT:?OnGesturePan@CWnd@@MAEHVCPoint@@0@Z
	DD	FLAT:?OnGestureRotate@CWnd@@MAEHVCPoint@@N@Z
	DD	FLAT:?OnGestureTwoFingerTap@CWnd@@MAEHVCPoint@@@Z
	DD	FLAT:?OnGesturePressAndTap@CWnd@@MAEHVCPoint@@J@Z
	DD	FLAT:?ResizeDynamicLayout@CWnd@@MAEXXZ
	DD	FLAT:?CheckAutoCenter@CDialog@@UAEHXZ
	DD	FLAT:?IsFrameWnd@CWnd@@UBEHXZ
	DD	FLAT:?CreateControlContainer@CWnd@@MAEHPAPAVCOleControlContainer@@@Z
	DD	FLAT:?CreateControlSite@CWnd@@MAEHPAVCOleControlContainer@@PAPAVCOleControlSite@@IABU_GUID@@@Z
	DD	FLAT:?SetOccDialogInfo@CDialog@@MAEHPAU_AFX_OCC_DIALOG_INFO@@@Z
	DD	FLAT:?GetOccDialogInfo@CDialog@@MAEPAU_AFX_OCC_DIALOG_INFO@@XZ
	DD	FLAT:?Create@CRscDlg@@UAEHIPAVCWnd@@@Z
	DD	FLAT:?Create@CDialog@@UAEHPBDPAVCWnd@@@Z
	DD	FLAT:?CreateIndirect@CDialog@@UAEHPAXPAVCWnd@@@Z
	DD	FLAT:?CreateIndirect@CDialog@@UAEHPBUDLGTEMPLATE@@PAVCWnd@@PAX@Z
	DD	FLAT:?DoModal@CRscDlg@@UAEHXZ
	DD	FLAT:?OnInitDialog@CFloatingHogaDlg@@MAEHXZ
	DD	FLAT:?OnSetFont@CDialog@@UAEXPAVCFont@@@Z
	DD	FLAT:?OnOK@CDialog@@MAEXXZ
	DD	FLAT:?OnCancel@CDialog@@MAEXXZ
	DD	FLAT:?PreInitDialog@CDialog@@MAEXXZ
CONST	ENDS
;	COMDAT ??_7?$CArray@PAVCHogaData@@PAV1@@@6B@
CONST	SEGMENT
??_7?$CArray@PAVCHogaData@@PAV1@@@6B@ DD FLAT:??_R4?$CArray@PAVCHogaData@@PAV1@@@6B@ ; CArray<CHogaData *,CHogaData *>::`vftable'
	DD	FLAT:?GetRuntimeClass@CObject@@UBEPAUCRuntimeClass@@XZ
	DD	FLAT:??_E?$CArray@PAVCHogaData@@PAV1@@@UAEPAXI@Z
	DD	FLAT:?Serialize@?$CArray@PAVCHogaData@@PAV1@@@UAEXAAVCArchive@@@Z
	DD	FLAT:?AssertValid@CObject@@UBEXXZ
	DD	FLAT:?Dump@CObject@@UBEXAAVCDumpContext@@@Z
CONST	ENDS
;	COMDAT ??_7?$CMap@GGV?$CStringT@DV?$StrTraitMFC_DLL@DV?$ChTraitsCRT@D@ATL@@@@@ATL@@V12@@@6B@
CONST	SEGMENT
??_7?$CMap@GGV?$CStringT@DV?$StrTraitMFC_DLL@DV?$ChTraitsCRT@D@ATL@@@@@ATL@@V12@@@6B@ DD FLAT:??_R4?$CMap@GGV?$CStringT@DV?$StrTraitMFC_DLL@DV?$ChTraitsCRT@D@ATL@@@@@ATL@@V12@@@6B@ ; CMap<unsigned short,unsigned short,ATL::CStringT<char,StrTraitMFC_DLL<char,ATL::ChTraitsCRT<char> > >,ATL::CStringT<char,StrTraitMFC_DLL<char,ATL::ChTraitsCRT<char> > > >::`vftable'
	DD	FLAT:?GetRuntimeClass@CObject@@UBEPAUCRuntimeClass@@XZ
	DD	FLAT:??_E?$CMap@GGV?$CStringT@DV?$StrTraitMFC_DLL@DV?$ChTraitsCRT@D@ATL@@@@@ATL@@V12@@@UAEPAXI@Z
	DD	FLAT:?Serialize@?$CMap@GGV?$CStringT@DV?$StrTraitMFC_DLL@DV?$ChTraitsCRT@D@ATL@@@@@ATL@@V12@@@UAEXAAVCArchive@@@Z
	DD	FLAT:?AssertValid@CObject@@UBEXXZ
	DD	FLAT:?Dump@CObject@@UBEXAAVCDumpContext@@@Z
CONST	ENDS
;	COMDAT ??_7CKBREAL_KXYS@@6B@
CONST	SEGMENT
??_7CKBREAL_KXYS@@6B@ DD FLAT:??_R4CKBREAL_KXYS@@6B@	; CKBREAL_KXYS::`vftable'
	DD	FLAT:?Convert@CKBREAL_KXYS@@UAEXPAU_KXYS_OutBlock@@@Z
CONST	ENDS
;	COMDAT ??_7CKBREAL_KXH1@@6B@
CONST	SEGMENT
??_7CKBREAL_KXH1@@6B@ DD FLAT:??_R4CKBREAL_KXH1@@6B@	; CKBREAL_KXH1::`vftable'
	DD	FLAT:?Convert@CKBREAL_KXH1@@UAEXPAU_KXH1_OutBlock@@@Z
CONST	ENDS
;	COMDAT ??_7CKB_01230@@6B@
CONST	SEGMENT
??_7CKB_01230@@6B@ DD FLAT:??_R4CKB_01230@@6B@		; CKB_01230::`vftable'
	DD	FLAT:?Convert@CKB_01230@@UAEXPAU_k01230Out2@@@Z
CONST	ENDS
;	COMDAT ??_7CUtil@@6B@
CONST	SEGMENT
??_7CUtil@@6B@ DD FLAT:??_R4CUtil@@6B@			; CUtil::`vftable'
	DD	FLAT:?GetRuntimeClass@CUtil@@UBEPAUCRuntimeClass@@XZ
	DD	FLAT:??_ECUtil@@UAEPAXI@Z
	DD	FLAT:?Serialize@CObject@@UAEXAAVCArchive@@@Z
	DD	FLAT:?AssertValid@CObject@@UBEXXZ
	DD	FLAT:?Dump@CObject@@UBEXAAVCDumpContext@@@Z
CONST	ENDS
;	COMDAT ??_R2CDialog@@8
rdata$r	SEGMENT
??_R2CDialog@@8 DD FLAT:??_R1A@?0A@EA@CDialog@@8	; CDialog::`RTTI Base Class Array'
	DD	FLAT:??_R1A@?0A@EA@CWnd@@8
	DD	FLAT:??_R1A@?0A@EA@CCmdTarget@@8
	DD	FLAT:??_R1A@?0A@EA@CObject@@8
rdata$r	ENDS
;	COMDAT ??_R3CDialog@@8
rdata$r	SEGMENT
??_R3CDialog@@8 DD 00H					; CDialog::`RTTI Class Hierarchy Descriptor'
	DD	00H
	DD	04H
	DD	FLAT:??_R2CDialog@@8
rdata$r	ENDS
;	COMDAT ??_R0?AVCDialog@@@8
data$rs	SEGMENT
??_R0?AVCDialog@@@8 DD FLAT:??_7type_info@@6B@		; CDialog `RTTI Type Descriptor'
	DD	00H
	DB	'.?AVCDialog@@', 00H
data$rs	ENDS
;	COMDAT ??_R1A@?0A@EA@CDialog@@8
rdata$r	SEGMENT
??_R1A@?0A@EA@CDialog@@8 DD FLAT:??_R0?AVCDialog@@@8	; CDialog::`RTTI Base Class Descriptor at (0,-1,0,64)'
	DD	03H
	DD	00H
	DD	0ffffffffH
	DD	00H
	DD	040H
	DD	FLAT:??_R3CDialog@@8
rdata$r	ENDS
;	COMDAT ??_R1A@?0A@EA@CButton@@8
rdata$r	SEGMENT
??_R1A@?0A@EA@CButton@@8 DD FLAT:??_R0?AVCButton@@@8	; CButton::`RTTI Base Class Descriptor at (0,-1,0,64)'
	DD	03H
	DD	00H
	DD	0ffffffffH
	DD	00H
	DD	040H
	DD	FLAT:??_R3CButton@@8
rdata$r	ENDS
;	COMDAT ??_R2CButton@@8
rdata$r	SEGMENT
??_R2CButton@@8 DD FLAT:??_R1A@?0A@EA@CButton@@8	; CButton::`RTTI Base Class Array'
	DD	FLAT:??_R1A@?0A@EA@CWnd@@8
	DD	FLAT:??_R1A@?0A@EA@CCmdTarget@@8
	DD	FLAT:??_R1A@?0A@EA@CObject@@8
rdata$r	ENDS
;	COMDAT ??_R3CButton@@8
rdata$r	SEGMENT
??_R3CButton@@8 DD 00H					; CButton::`RTTI Class Hierarchy Descriptor'
	DD	00H
	DD	04H
	DD	FLAT:??_R2CButton@@8
rdata$r	ENDS
;	COMDAT ??_R0?AVCButton@@@8
data$rs	SEGMENT
??_R0?AVCButton@@@8 DD FLAT:??_7type_info@@6B@		; CButton `RTTI Type Descriptor'
	DD	00H
	DB	'.?AVCButton@@', 00H
data$rs	ENDS
;	COMDAT ??_R4CButton@@6B@
rdata$r	SEGMENT
??_R4CButton@@6B@ DD 00H				; CButton::`RTTI Complete Object Locator'
	DD	00H
	DD	00H
	DD	FLAT:??_R0?AVCButton@@@8
	DD	FLAT:??_R3CButton@@8
rdata$r	ENDS
;	COMDAT ??_R2CCmdTarget@@8
rdata$r	SEGMENT
??_R2CCmdTarget@@8 DD FLAT:??_R1A@?0A@EA@CCmdTarget@@8	; CCmdTarget::`RTTI Base Class Array'
	DD	FLAT:??_R1A@?0A@EA@CObject@@8
rdata$r	ENDS
;	COMDAT ??_R3CCmdTarget@@8
rdata$r	SEGMENT
??_R3CCmdTarget@@8 DD 00H				; CCmdTarget::`RTTI Class Hierarchy Descriptor'
	DD	00H
	DD	02H
	DD	FLAT:??_R2CCmdTarget@@8
rdata$r	ENDS
;	COMDAT ??_R0?AVCCmdTarget@@@8
data$rs	SEGMENT
??_R0?AVCCmdTarget@@@8 DD FLAT:??_7type_info@@6B@	; CCmdTarget `RTTI Type Descriptor'
	DD	00H
	DB	'.?AVCCmdTarget@@', 00H
data$rs	ENDS
;	COMDAT ??_R1A@?0A@EA@CCmdTarget@@8
rdata$r	SEGMENT
??_R1A@?0A@EA@CCmdTarget@@8 DD FLAT:??_R0?AVCCmdTarget@@@8 ; CCmdTarget::`RTTI Base Class Descriptor at (0,-1,0,64)'
	DD	01H
	DD	00H
	DD	0ffffffffH
	DD	00H
	DD	040H
	DD	FLAT:??_R3CCmdTarget@@8
rdata$r	ENDS
;	COMDAT ??_R2CWnd@@8
rdata$r	SEGMENT
??_R2CWnd@@8 DD	FLAT:??_R1A@?0A@EA@CWnd@@8		; CWnd::`RTTI Base Class Array'
	DD	FLAT:??_R1A@?0A@EA@CCmdTarget@@8
	DD	FLAT:??_R1A@?0A@EA@CObject@@8
rdata$r	ENDS
;	COMDAT ??_R3CWnd@@8
rdata$r	SEGMENT
??_R3CWnd@@8 DD	00H					; CWnd::`RTTI Class Hierarchy Descriptor'
	DD	00H
	DD	03H
	DD	FLAT:??_R2CWnd@@8
rdata$r	ENDS
;	COMDAT ??_R0?AVCWnd@@@8
data$rs	SEGMENT
??_R0?AVCWnd@@@8 DD FLAT:??_7type_info@@6B@		; CWnd `RTTI Type Descriptor'
	DD	00H
	DB	'.?AVCWnd@@', 00H
data$rs	ENDS
;	COMDAT ??_R1A@?0A@EA@CWnd@@8
rdata$r	SEGMENT
??_R1A@?0A@EA@CWnd@@8 DD FLAT:??_R0?AVCWnd@@@8		; CWnd::`RTTI Base Class Descriptor at (0,-1,0,64)'
	DD	02H
	DD	00H
	DD	0ffffffffH
	DD	00H
	DD	040H
	DD	FLAT:??_R3CWnd@@8
rdata$r	ENDS
;	COMDAT ??_R1A@?0A@EA@CBitmap@@8
rdata$r	SEGMENT
??_R1A@?0A@EA@CBitmap@@8 DD FLAT:??_R0?AVCBitmap@@@8	; CBitmap::`RTTI Base Class Descriptor at (0,-1,0,64)'
	DD	02H
	DD	00H
	DD	0ffffffffH
	DD	00H
	DD	040H
	DD	FLAT:??_R3CBitmap@@8
rdata$r	ENDS
;	COMDAT ??_R2CBitmap@@8
rdata$r	SEGMENT
??_R2CBitmap@@8 DD FLAT:??_R1A@?0A@EA@CBitmap@@8	; CBitmap::`RTTI Base Class Array'
	DD	FLAT:??_R1A@?0A@EA@CGdiObject@@8
	DD	FLAT:??_R1A@?0A@EA@CObject@@8
rdata$r	ENDS
;	COMDAT ??_R3CBitmap@@8
rdata$r	SEGMENT
??_R3CBitmap@@8 DD 00H					; CBitmap::`RTTI Class Hierarchy Descriptor'
	DD	00H
	DD	03H
	DD	FLAT:??_R2CBitmap@@8
rdata$r	ENDS
;	COMDAT ??_R0?AVCBitmap@@@8
data$rs	SEGMENT
??_R0?AVCBitmap@@@8 DD FLAT:??_7type_info@@6B@		; CBitmap `RTTI Type Descriptor'
	DD	00H
	DB	'.?AVCBitmap@@', 00H
data$rs	ENDS
;	COMDAT ??_R4CBitmap@@6B@
rdata$r	SEGMENT
??_R4CBitmap@@6B@ DD 00H				; CBitmap::`RTTI Complete Object Locator'
	DD	00H
	DD	00H
	DD	FLAT:??_R0?AVCBitmap@@@8
	DD	FLAT:??_R3CBitmap@@8
rdata$r	ENDS
;	COMDAT ??_R1A@?0A@EA@CFont@@8
rdata$r	SEGMENT
??_R1A@?0A@EA@CFont@@8 DD FLAT:??_R0?AVCFont@@@8	; CFont::`RTTI Base Class Descriptor at (0,-1,0,64)'
	DD	02H
	DD	00H
	DD	0ffffffffH
	DD	00H
	DD	040H
	DD	FLAT:??_R3CFont@@8
rdata$r	ENDS
;	COMDAT ??_R2CFont@@8
rdata$r	SEGMENT
??_R2CFont@@8 DD FLAT:??_R1A@?0A@EA@CFont@@8		; CFont::`RTTI Base Class Array'
	DD	FLAT:??_R1A@?0A@EA@CGdiObject@@8
	DD	FLAT:??_R1A@?0A@EA@CObject@@8
rdata$r	ENDS
;	COMDAT ??_R3CFont@@8
rdata$r	SEGMENT
??_R3CFont@@8 DD 00H					; CFont::`RTTI Class Hierarchy Descriptor'
	DD	00H
	DD	03H
	DD	FLAT:??_R2CFont@@8
rdata$r	ENDS
;	COMDAT ??_R0?AVCFont@@@8
data$rs	SEGMENT
??_R0?AVCFont@@@8 DD FLAT:??_7type_info@@6B@		; CFont `RTTI Type Descriptor'
	DD	00H
	DB	'.?AVCFont@@', 00H
data$rs	ENDS
;	COMDAT ??_R4CFont@@6B@
rdata$r	SEGMENT
??_R4CFont@@6B@ DD 00H					; CFont::`RTTI Complete Object Locator'
	DD	00H
	DD	00H
	DD	FLAT:??_R0?AVCFont@@@8
	DD	FLAT:??_R3CFont@@8
rdata$r	ENDS
;	COMDAT ??_R1A@?0A@EA@CGdiObject@@8
rdata$r	SEGMENT
??_R1A@?0A@EA@CGdiObject@@8 DD FLAT:??_R0?AVCGdiObject@@@8 ; CGdiObject::`RTTI Base Class Descriptor at (0,-1,0,64)'
	DD	01H
	DD	00H
	DD	0ffffffffH
	DD	00H
	DD	040H
	DD	FLAT:??_R3CGdiObject@@8
rdata$r	ENDS
;	COMDAT ??_R2CGdiObject@@8
rdata$r	SEGMENT
??_R2CGdiObject@@8 DD FLAT:??_R1A@?0A@EA@CGdiObject@@8	; CGdiObject::`RTTI Base Class Array'
	DD	FLAT:??_R1A@?0A@EA@CObject@@8
rdata$r	ENDS
;	COMDAT ??_R3CGdiObject@@8
rdata$r	SEGMENT
??_R3CGdiObject@@8 DD 00H				; CGdiObject::`RTTI Class Hierarchy Descriptor'
	DD	00H
	DD	02H
	DD	FLAT:??_R2CGdiObject@@8
rdata$r	ENDS
;	COMDAT ??_R0?AVCGdiObject@@@8
data$rs	SEGMENT
??_R0?AVCGdiObject@@@8 DD FLAT:??_7type_info@@6B@	; CGdiObject `RTTI Type Descriptor'
	DD	00H
	DB	'.?AVCGdiObject@@', 00H
data$rs	ENDS
;	COMDAT ??_R4CGdiObject@@6B@
rdata$r	SEGMENT
??_R4CGdiObject@@6B@ DD 00H				; CGdiObject::`RTTI Complete Object Locator'
	DD	00H
	DD	00H
	DD	FLAT:??_R0?AVCGdiObject@@@8
	DD	FLAT:??_R3CGdiObject@@8
rdata$r	ENDS
;	COMDAT ??_R1A@?0A@EA@CObject@@8
rdata$r	SEGMENT
??_R1A@?0A@EA@CObject@@8 DD FLAT:??_R0?AVCObject@@@8	; CObject::`RTTI Base Class Descriptor at (0,-1,0,64)'
	DD	00H
	DD	00H
	DD	0ffffffffH
	DD	00H
	DD	040H
	DD	FLAT:??_R3CObject@@8
rdata$r	ENDS
;	COMDAT ??_R2CObject@@8
rdata$r	SEGMENT
??_R2CObject@@8 DD FLAT:??_R1A@?0A@EA@CObject@@8	; CObject::`RTTI Base Class Array'
rdata$r	ENDS
;	COMDAT ??_R3CObject@@8
rdata$r	SEGMENT
??_R3CObject@@8 DD 00H					; CObject::`RTTI Class Hierarchy Descriptor'
	DD	00H
	DD	01H
	DD	FLAT:??_R2CObject@@8
rdata$r	ENDS
;	COMDAT ??_R0?AVCObject@@@8
data$rs	SEGMENT
??_R0?AVCObject@@@8 DD FLAT:??_7type_info@@6B@		; CObject `RTTI Type Descriptor'
	DD	00H
	DB	'.?AVCObject@@', 00H
data$rs	ENDS
;	COMDAT ??_C@_01GBGANLPD@0@
CONST	SEGMENT
??_C@_01GBGANLPD@0@ DB '0', 00H				; `string'
CONST	ENDS
;	COMDAT ??_C@_02EMFKHFLK@?$CFX@
CONST	SEGMENT
??_C@_02EMFKHFLK@?$CFX@ DB '%X', 00H			; `string'
CONST	ENDS
;	COMDAT ??_C@_06NDLAHCHE@?$CFs?$CF08X@
CONST	SEGMENT
??_C@_06NDLAHCHE@?$CFs?$CF08X@ DB '%s%08X', 00H		; `string'
CONST	ENDS
;	COMDAT ??_C@_0P@IDMAJEGN@HANAROPCTRMAIN@
CONST	SEGMENT
??_C@_0P@IDMAJEGN@HANAROPCTRMAIN@ DB 'HANAROPCTRMAIN', 00H ; `string'
CONST	ENDS
;	COMDAT ??_C@_0M@CBBNGGHM@PcTrMng?4dll@
CONST	SEGMENT
??_C@_0M@CBBNGGHM@PcTrMng?4dll@ DB 'PcTrMng.dll', 00H	; `string'
CONST	ENDS
;	COMDAT ??_C@_02DKCKIIND@?$CFs@
CONST	SEGMENT
??_C@_02DKCKIIND@?$CFs@ DB '%s', 00H			; `string'
CONST	ENDS
;	COMDAT ??_C@_0N@OMEMOKLE@?$CFTs?5?$CI?$CFTs?3?$CFd?$CJ@
CONST	SEGMENT
??_C@_0N@OMEMOKLE@?$CFTs?5?$CI?$CFTs?3?$CFd?$CJ@ DB '%Ts (%Ts:%d)', 00H ; `string'
CONST	ENDS
;	COMDAT ??_C@_0BB@HBOOMJBF@?$CFTs?5?$CI?$CFTs?3?$CFd?$CJ?6?$CFTs@
CONST	SEGMENT
??_C@_0BB@HBOOMJBF@?$CFTs?5?$CI?$CFTs?3?$CFd?$CJ?6?$CFTs@ DB '%Ts (%Ts:%d'
	DB	')', 0aH, '%Ts', 00H				; `string'
CONST	ENDS
;	COMDAT ??_C@_0BP@OIEOKIDM@Exception?5thrown?5in?5destructor@
CONST	SEGMENT
??_C@_0BP@OIEOKIDM@Exception?5thrown?5in?5destructor@ DB 'Exception throw'
	DB	'n in destructor', 00H			; `string'
CONST	ENDS
;	COMDAT ??_C@_0HD@JJCHHHNK@C?3?2Program?5Files?5?$CIx86?$CJ?2Microsof@
CONST	SEGMENT
??_C@_0HD@JJCHHHNK@C?3?2Program?5Files?5?$CIx86?$CJ?2Microsof@ DB 'C:\Pro'
	DB	'gram Files (x86)\Microsoft Visual Studio\2019\Community\VC\To'
	DB	'ols\MSVC\14.29.30133\atlmfc\include\afxwin1.inl', 00H ; `string'
CONST	ENDS
;	COMDAT ??_7CButton@@6B@
CONST	SEGMENT
??_7CButton@@6B@ DD FLAT:??_R4CButton@@6B@		; CButton::`vftable'
	DD	FLAT:?GetRuntimeClass@CButton@@UBEPAUCRuntimeClass@@XZ
	DD	FLAT:??_ECButton@@UAEPAXI@Z
	DD	FLAT:?Serialize@CObject@@UAEXAAVCArchive@@@Z
	DD	FLAT:?AssertValid@CObject@@UBEXXZ
	DD	FLAT:?Dump@CObject@@UBEXAAVCDumpContext@@@Z
	DD	FLAT:?OnCmdMsg@CCmdTarget@@UAEHIHPAXPAUAFX_CMDHANDLERINFO@@@Z
	DD	FLAT:?OnFinalRelease@CWnd@@UAEXXZ
	DD	FLAT:?IsInvokeAllowed@CCmdTarget@@UAEHJ@Z
	DD	FLAT:?GetDispatchIID@CCmdTarget@@UAEHPAU_GUID@@@Z
	DD	FLAT:?GetTypeInfoCount@CCmdTarget@@UAEIXZ
	DD	FLAT:?GetTypeLibCache@CCmdTarget@@UAEPAVCTypeLibCache@@XZ
	DD	FLAT:?GetTypeLib@CCmdTarget@@UAEJKPAPAUITypeLib@@@Z
	DD	FLAT:?GetMessageMap@CWnd@@MBEPBUAFX_MSGMAP@@XZ
	DD	FLAT:?GetCommandMap@CCmdTarget@@MBEPBUAFX_OLECMDMAP@@XZ
	DD	FLAT:?GetDispatchMap@CCmdTarget@@MBEPBUAFX_DISPMAP@@XZ
	DD	FLAT:?GetConnectionMap@CCmdTarget@@MBEPBUAFX_CONNECTIONMAP@@XZ
	DD	FLAT:?GetInterfaceMap@CWnd@@MBEPBUAFX_INTERFACEMAP@@XZ
	DD	FLAT:?GetEventSinkMap@CCmdTarget@@MBEPBUAFX_EVENTSINKMAP@@XZ
	DD	FLAT:?OnCreateAggregates@CCmdTarget@@UAEHXZ
	DD	FLAT:?GetInterfaceHook@CCmdTarget@@UAEPAUIUnknown@@PBX@Z
	DD	FLAT:?GetExtraConnectionPoints@CCmdTarget@@MAEHPAVCPtrArray@@@Z
	DD	FLAT:?GetConnectionHook@CCmdTarget@@MAEPAUIConnectionPoint@@ABU_GUID@@@Z
	DD	FLAT:?PreSubclassWindow@CWnd@@UAEXXZ
	DD	FLAT:?Create@CWnd@@UAEHPBD0KABUtagRECT@@PAV1@IPAUCCreateContext@@@Z
	DD	FLAT:?CreateEx@CWnd@@UAEHKPBD0KABUtagRECT@@PAV1@IPAX@Z
	DD	FLAT:?CreateEx@CWnd@@UAEHKPBD0KHHHHPAUHWND__@@PAUHMENU__@@PAX@Z
	DD	FLAT:?DestroyWindow@CWnd@@UAEHXZ
	DD	FLAT:?PreCreateWindow@CWnd@@UAEHAAUtagCREATESTRUCTA@@@Z
	DD	FLAT:?CalcWindowRect@CWnd@@UAEXPAUtagRECT@@I@Z
	DD	FLAT:?GetMenu@CWnd@@UBEPAVCMenu@@XZ
	DD	FLAT:?SetMenu@CWnd@@UAEHPAVCMenu@@@Z
	DD	FLAT:?OnToolHitTest@CWnd@@UBEHVCPoint@@PAUtagTOOLINFOA@@@Z
	DD	FLAT:?GetScrollBarCtrl@CWnd@@UBEPAVCScrollBar@@H@Z
	DD	FLAT:?WinHelpA@CWnd@@UAEXKI@Z
	DD	FLAT:?HtmlHelpA@CWnd@@UAEXKI@Z
	DD	FLAT:?WinHelpInternal@CWnd@@UAEXKI@Z
	DD	FLAT:?ContinueModal@CWnd@@UAEHXZ
	DD	FLAT:?EndModalLoop@CWnd@@UAEXH@Z
	DD	FLAT:?OnDrawIconicThumbnailOrLivePreview@CWnd@@UAEXAAVCDC@@VCRect@@VCSize@@HAAH@Z
	DD	FLAT:?EnsureStdObj@CWnd@@UAEJXZ
	DD	FLAT:?get_accParent@CWnd@@UAEJPAPAUIDispatch@@@Z
	DD	FLAT:?get_accChildCount@CWnd@@UAEJPAJ@Z
	DD	FLAT:?get_accChild@CWnd@@UAEJUtagVARIANT@@PAPAUIDispatch@@@Z
	DD	FLAT:?get_accName@CWnd@@UAEJUtagVARIANT@@PAPA_W@Z
	DD	FLAT:?get_accValue@CWnd@@UAEJUtagVARIANT@@PAPA_W@Z
	DD	FLAT:?get_accDescription@CWnd@@UAEJUtagVARIANT@@PAPA_W@Z
	DD	FLAT:?get_accRole@CWnd@@UAEJUtagVARIANT@@PAU2@@Z
	DD	FLAT:?get_accState@CWnd@@UAEJUtagVARIANT@@PAU2@@Z
	DD	FLAT:?get_accHelp@CWnd@@UAEJUtagVARIANT@@PAPA_W@Z
	DD	FLAT:?get_accHelpTopic@CWnd@@UAEJPAPA_WUtagVARIANT@@PAJ@Z
	DD	FLAT:?get_accKeyboardShortcut@CWnd@@UAEJUtagVARIANT@@PAPA_W@Z
	DD	FLAT:?get_accFocus@CWnd@@UAEJPAUtagVARIANT@@@Z
	DD	FLAT:?get_accSelection@CWnd@@UAEJPAUtagVARIANT@@@Z
	DD	FLAT:?get_accDefaultAction@CWnd@@UAEJUtagVARIANT@@PAPA_W@Z
	DD	FLAT:?accSelect@CWnd@@UAEJJUtagVARIANT@@@Z
	DD	FLAT:?accLocation@CWnd@@UAEJPAJ000UtagVARIANT@@@Z
	DD	FLAT:?accNavigate@CWnd@@UAEJJUtagVARIANT@@PAU2@@Z
	DD	FLAT:?accHitTest@CWnd@@UAEJJJPAUtagVARIANT@@@Z
	DD	FLAT:?accDoDefaultAction@CWnd@@UAEJUtagVARIANT@@@Z
	DD	FLAT:?put_accName@CWnd@@UAEJUtagVARIANT@@PA_W@Z
	DD	FLAT:?put_accValue@CWnd@@UAEJUtagVARIANT@@PA_W@Z
	DD	FLAT:?SetProxy@CWnd@@UAEJPAUIAccessibleProxy@@@Z
	DD	FLAT:?CreateAccessibleProxy@CWnd@@UAEJIJPAJ@Z
	DD	FLAT:?OnCommand@CWnd@@MAEHIJ@Z
	DD	FLAT:?OnNotify@CWnd@@MAEHIJPAJ@Z
	DD	FLAT:?GetSuperWndProcAddr@CWnd@@MAEPAP6GJPAUHWND__@@IIJ@ZXZ
	DD	FLAT:?DoDataExchange@CWnd@@MAEXPAVCDataExchange@@@Z
	DD	FLAT:?BeginModalState@CWnd@@UAEXXZ
	DD	FLAT:?EndModalState@CWnd@@UAEXXZ
	DD	FLAT:?PreTranslateMessage@CWnd@@UAEHPAUtagMSG@@@Z
	DD	FLAT:?OnAmbientProperty@CWnd@@UAEHPAVCOleControlSite@@JPAUtagVARIANT@@@Z
	DD	FLAT:?WindowProc@CWnd@@MAEJIIJ@Z
	DD	FLAT:?OnWndMsg@CWnd@@MAEHIIJPAJ@Z
	DD	FLAT:?DefWindowProcA@CWnd@@MAEJIIJ@Z
	DD	FLAT:?PostNcDestroy@CWnd@@MAEXXZ
	DD	FLAT:?OnChildNotify@CButton@@MAEHIIJPAJ@Z
	DD	FLAT:?OnTouchInputs@CWnd@@MAEHIPAUtagTOUCHINPUT@@@Z
	DD	FLAT:?OnTouchInput@CWnd@@MAEHVCPoint@@HHPAUtagTOUCHINPUT@@@Z
	DD	FLAT:?GetGestureStatus@CWnd@@MAEKVCPoint@@@Z
	DD	FLAT:?OnGestureZoom@CWnd@@MAEHVCPoint@@J@Z
	DD	FLAT:?OnGesturePan@CWnd@@MAEHVCPoint@@0@Z
	DD	FLAT:?OnGestureRotate@CWnd@@MAEHVCPoint@@N@Z
	DD	FLAT:?OnGestureTwoFingerTap@CWnd@@MAEHVCPoint@@@Z
	DD	FLAT:?OnGesturePressAndTap@CWnd@@MAEHVCPoint@@J@Z
	DD	FLAT:?ResizeDynamicLayout@CWnd@@MAEXXZ
	DD	FLAT:?CheckAutoCenter@CWnd@@UAEHXZ
	DD	FLAT:?IsFrameWnd@CWnd@@UBEHXZ
	DD	FLAT:?CreateControlContainer@CWnd@@MAEHPAPAVCOleControlContainer@@@Z
	DD	FLAT:?CreateControlSite@CWnd@@MAEHPAVCOleControlContainer@@PAPAVCOleControlSite@@IABU_GUID@@@Z
	DD	FLAT:?SetOccDialogInfo@CWnd@@MAEHPAU_AFX_OCC_DIALOG_INFO@@@Z
	DD	FLAT:?GetOccDialogInfo@CWnd@@MAEPAU_AFX_OCC_DIALOG_INFO@@XZ
	DD	FLAT:?Create@CButton@@UAEHPBDKABUtagRECT@@PAVCWnd@@I@Z
	DD	FLAT:?DrawItem@CButton@@UAEXPAUtagDRAWITEMSTRUCT@@@Z
CONST	ENDS
;	COMDAT ??_7CBitmap@@6B@
CONST	SEGMENT
??_7CBitmap@@6B@ DD FLAT:??_R4CBitmap@@6B@		; CBitmap::`vftable'
	DD	FLAT:?GetRuntimeClass@CBitmap@@UBEPAUCRuntimeClass@@XZ
	DD	FLAT:??_ECBitmap@@UAEPAXI@Z
	DD	FLAT:?Serialize@CObject@@UAEXAAVCArchive@@@Z
	DD	FLAT:?AssertValid@CObject@@UBEXXZ
	DD	FLAT:?Dump@CObject@@UBEXAAVCDumpContext@@@Z
CONST	ENDS
;	COMDAT ??_7CFont@@6B@
CONST	SEGMENT
??_7CFont@@6B@ DD FLAT:??_R4CFont@@6B@			; CFont::`vftable'
	DD	FLAT:?GetRuntimeClass@CFont@@UBEPAUCRuntimeClass@@XZ
	DD	FLAT:??_ECFont@@UAEPAXI@Z
	DD	FLAT:?Serialize@CObject@@UAEXAAVCArchive@@@Z
	DD	FLAT:?AssertValid@CObject@@UBEXXZ
	DD	FLAT:?Dump@CObject@@UBEXAAVCDumpContext@@@Z
CONST	ENDS
;	COMDAT ??_7CGdiObject@@6B@
CONST	SEGMENT
??_7CGdiObject@@6B@ DD FLAT:??_R4CGdiObject@@6B@	; CGdiObject::`vftable'
	DD	FLAT:?GetRuntimeClass@CGdiObject@@UBEPAUCRuntimeClass@@XZ
	DD	FLAT:??_ECGdiObject@@UAEPAXI@Z
	DD	FLAT:?Serialize@CObject@@UAEXAAVCArchive@@@Z
	DD	FLAT:?AssertValid@CObject@@UBEXXZ
	DD	FLAT:?Dump@CObject@@UBEXAAVCDumpContext@@@Z
CONST	ENDS
;	COMDAT ??_C@_00CNPNBAHC@@
CONST	SEGMENT
??_C@_00CNPNBAHC@@ DB 00H				; `string'
CONST	ENDS
;	COMDAT ??_C@_02DPKJAMEF@?$CFd@
CONST	SEGMENT
??_C@_02DPKJAMEF@?$CFd@ DB '%d', 00H			; `string'
CONST	ENDS
;	COMDAT ??_R0PAVCException@@@8
data$r	SEGMENT
??_R0PAVCException@@@8 DD FLAT:??_7type_info@@6B@	; CException * `RTTI Type Descriptor'
	DD	00H
	DB	'.PAVCException@@', 00H
data$r	ENDS
;	COMDAT xdata$x
xdata$x	SEGMENT
__unwindtable$?OnPaint@CFloatingHogaDlg@@IAEXXZ DD 0ffffffffH
	DD	FLAT:__unwindfunclet$?OnPaint@CFloatingHogaDlg@@IAEXXZ$0
	DD	00H
	DD	FLAT:__unwindfunclet$?OnPaint@CFloatingHogaDlg@@IAEXXZ$1
	DD	01H
	DD	FLAT:__unwindfunclet$?OnPaint@CFloatingHogaDlg@@IAEXXZ$2
__ehfuncinfo$?OnPaint@CFloatingHogaDlg@@IAEXXZ DD 019930522H
	DD	03H
	DD	FLAT:__unwindtable$?OnPaint@CFloatingHogaDlg@@IAEXXZ
	DD	2 DUP(00H)
	DD	2 DUP(00H)
	DD	00H
	DD	01H
xdata$x	ENDS
;	COMDAT xdata$x
xdata$x	SEGMENT
__unwindtable$?OnInitDialog@CFloatingHogaDlg@@MAEHXZ DD 0ffffffffH
	DD	FLAT:__unwindfunclet$?OnInitDialog@CFloatingHogaDlg@@MAEHXZ$0
	DD	0ffffffffH
	DD	FLAT:__unwindfunclet$?OnInitDialog@CFloatingHogaDlg@@MAEHXZ$1
__ehfuncinfo$?OnInitDialog@CFloatingHogaDlg@@MAEHXZ DD 019930522H
	DD	02H
	DD	FLAT:__unwindtable$?OnInitDialog@CFloatingHogaDlg@@MAEHXZ
	DD	2 DUP(00H)
	DD	2 DUP(00H)
	DD	00H
	DD	01H
xdata$x	ENDS
;	COMDAT xdata$x
xdata$x	SEGMENT
__unwindtable$?InitGridFormat@CFloatingHogaDlg@@QAEXXZ DD 0ffffffffH
	DD	FLAT:__unwindfunclet$?InitGridFormat@CFloatingHogaDlg@@QAEXXZ$0
__ehfuncinfo$?InitGridFormat@CFloatingHogaDlg@@QAEXXZ DD 019930522H
	DD	01H
	DD	FLAT:__unwindtable$?InitGridFormat@CFloatingHogaDlg@@QAEXXZ
	DD	2 DUP(00H)
	DD	2 DUP(00H)
	DD	00H
	DD	01H
xdata$x	ENDS
;	COMDAT xdata$x
xdata$x	SEGMENT
__catchsym$?InitGridRowCol@CFloatingHogaDlg@@QAEXXZ$2 DD 00H
	DD	FLAT:??_R0PAVCMemoryException@@@8
	DD	0ffffffecH
	DD	FLAT:__catch$?InitGridRowCol@CFloatingHogaDlg@@QAEXXZ$0
__unwindtable$?InitGridRowCol@CFloatingHogaDlg@@QAEXXZ DD 0ffffffffH
	DD	00H
	DD	0ffffffffH
	DD	00H
__tryblocktable$?InitGridRowCol@CFloatingHogaDlg@@QAEXXZ DD 00H
	DD	00H
	DD	01H
	DD	01H
	DD	FLAT:__catchsym$?InitGridRowCol@CFloatingHogaDlg@@QAEXXZ$2
__ehfuncinfo$?InitGridRowCol@CFloatingHogaDlg@@QAEXXZ DD 019930522H
	DD	02H
	DD	FLAT:__unwindtable$?InitGridRowCol@CFloatingHogaDlg@@QAEXXZ
	DD	01H
	DD	FLAT:__tryblocktable$?InitGridRowCol@CFloatingHogaDlg@@QAEXXZ
	DD	2 DUP(00H)
	DD	00H
	DD	01H
xdata$x	ENDS
;	COMDAT xdata$x
xdata$x	SEGMENT
__unwindtable$?InitGrid@CFloatingHogaDlg@@QAEXXZ DD 0ffffffffH
	DD	FLAT:__unwindfunclet$?InitGrid@CFloatingHogaDlg@@QAEXXZ$0
	DD	00H
	DD	FLAT:__unwindfunclet$?InitGrid@CFloatingHogaDlg@@QAEXXZ$1
__ehfuncinfo$?InitGrid@CFloatingHogaDlg@@QAEXXZ DD 019930522H
	DD	02H
	DD	FLAT:__unwindtable$?InitGrid@CFloatingHogaDlg@@QAEXXZ
	DD	2 DUP(00H)
	DD	2 DUP(00H)
	DD	00H
	DD	01H
xdata$x	ENDS
;	COMDAT xdata$x
xdata$x	SEGMENT
__unwindtable$?CompareNUpdateHogaData@CFloatingHogaDlg@@QAEXHHV?$CStringT@DV?$StrTraitMFC_DLL@DV?$ChTraitsCRT@D@ATL@@@@@ATL@@HK@Z DD 0ffffffffH
	DD	FLAT:__unwindfunclet$?CompareNUpdateHogaData@CFloatingHogaDlg@@QAEXHHV?$CStringT@DV?$StrTraitMFC_DLL@DV?$ChTraitsCRT@D@ATL@@@@@ATL@@HK@Z$0
	DD	00H
	DD	FLAT:__unwindfunclet$?CompareNUpdateHogaData@CFloatingHogaDlg@@QAEXHHV?$CStringT@DV?$StrTraitMFC_DLL@DV?$ChTraitsCRT@D@ATL@@@@@ATL@@HK@Z$1
__ehfuncinfo$?CompareNUpdateHogaData@CFloatingHogaDlg@@QAEXHHV?$CStringT@DV?$StrTraitMFC_DLL@DV?$ChTraitsCRT@D@ATL@@@@@ATL@@HK@Z DD 019930522H
	DD	02H
	DD	FLAT:__unwindtable$?CompareNUpdateHogaData@CFloatingHogaDlg@@QAEXHHV?$CStringT@DV?$StrTraitMFC_DLL@DV?$ChTraitsCRT@D@ATL@@@@@ATL@@HK@Z
	DD	2 DUP(00H)
	DD	2 DUP(00H)
	DD	00H
	DD	01H
xdata$x	ENDS
;	COMDAT xdata$x
xdata$x	SEGMENT
__ehfuncinfo$?SetHogaData_Sub@CFloatingHogaDlg@@QAEXV?$CStringT@DV?$StrTraitMFC_DLL@DV?$ChTraitsCRT@D@ATL@@@@@ATL@@00H@Z DD 019930522H
	DD	0aH
	DD	FLAT:__unwindtable$?SetHogaData_Sub@CFloatingHogaDlg@@QAEXV?$CStringT@DV?$StrTraitMFC_DLL@DV?$ChTraitsCRT@D@ATL@@@@@ATL@@00H@Z
	DD	2 DUP(00H)
	DD	2 DUP(00H)
	DD	00H
	DD	01H
__unwindtable$?SetHogaData_Sub@CFloatingHogaDlg@@QAEXV?$CStringT@DV?$StrTraitMFC_DLL@DV?$ChTraitsCRT@D@ATL@@@@@ATL@@00H@Z DD 0ffffffffH
	DD	FLAT:__unwindfunclet$?SetHogaData_Sub@CFloatingHogaDlg@@QAEXV?$CStringT@DV?$StrTraitMFC_DLL@DV?$ChTraitsCRT@D@ATL@@@@@ATL@@00H@Z$0
	DD	00H
	DD	FLAT:__unwindfunclet$?SetHogaData_Sub@CFloatingHogaDlg@@QAEXV?$CStringT@DV?$StrTraitMFC_DLL@DV?$ChTraitsCRT@D@ATL@@@@@ATL@@00H@Z$1
	DD	01H
	DD	FLAT:__unwindfunclet$?SetHogaData_Sub@CFloatingHogaDlg@@QAEXV?$CStringT@DV?$StrTraitMFC_DLL@DV?$ChTraitsCRT@D@ATL@@@@@ATL@@00H@Z$2
	DD	02H
	DD	FLAT:__unwindfunclet$?SetHogaData_Sub@CFloatingHogaDlg@@QAEXV?$CStringT@DV?$StrTraitMFC_DLL@DV?$ChTraitsCRT@D@ATL@@@@@ATL@@00H@Z$3
	DD	03H
	DD	FLAT:__unwindfunclet$?SetHogaData_Sub@CFloatingHogaDlg@@QAEXV?$CStringT@DV?$StrTraitMFC_DLL@DV?$ChTraitsCRT@D@ATL@@@@@ATL@@00H@Z$4
	DD	03H
	DD	FLAT:__unwindfunclet$?SetHogaData_Sub@CFloatingHogaDlg@@QAEXV?$CStringT@DV?$StrTraitMFC_DLL@DV?$ChTraitsCRT@D@ATL@@@@@ATL@@00H@Z$5
	DD	03H
	DD	FLAT:__unwindfunclet$?SetHogaData_Sub@CFloatingHogaDlg@@QAEXV?$CStringT@DV?$StrTraitMFC_DLL@DV?$ChTraitsCRT@D@ATL@@@@@ATL@@00H@Z$6
	DD	06H
	DD	FLAT:__unwindfunclet$?SetHogaData_Sub@CFloatingHogaDlg@@QAEXV?$CStringT@DV?$StrTraitMFC_DLL@DV?$ChTraitsCRT@D@ATL@@@@@ATL@@00H@Z$7
	DD	03H
	DD	FLAT:__unwindfunclet$?SetHogaData_Sub@CFloatingHogaDlg@@QAEXV?$CStringT@DV?$StrTraitMFC_DLL@DV?$ChTraitsCRT@D@ATL@@@@@ATL@@00H@Z$9
	DD	08H
	DD	FLAT:__unwindfunclet$?SetHogaData_Sub@CFloatingHogaDlg@@QAEXV?$CStringT@DV?$StrTraitMFC_DLL@DV?$ChTraitsCRT@D@ATL@@@@@ATL@@00H@Z$10
xdata$x	ENDS
;	COMDAT xdata$x
xdata$x	SEGMENT
__ehfuncinfo$?SetHogaData@CFloatingHogaDlg@@QAEXPADHH@Z DD 019930522H
	DD	040H
	DD	FLAT:__unwindtable$?SetHogaData@CFloatingHogaDlg@@QAEXPADHH@Z
	DD	2 DUP(00H)
	DD	2 DUP(00H)
	DD	00H
	DD	01H
__unwindtable$?SetHogaData@CFloatingHogaDlg@@QAEXPADHH@Z DD 0ffffffffH
	DD	FLAT:__unwindfunclet$?SetHogaData@CFloatingHogaDlg@@QAEXPADHH@Z$0
	DD	00H
	DD	FLAT:__unwindfunclet$?SetHogaData@CFloatingHogaDlg@@QAEXPADHH@Z$1
	DD	01H
	DD	FLAT:__unwindfunclet$?SetHogaData@CFloatingHogaDlg@@QAEXPADHH@Z$2
	DD	02H
	DD	FLAT:__unwindfunclet$?SetHogaData@CFloatingHogaDlg@@QAEXPADHH@Z$3
	DD	03H
	DD	FLAT:__unwindfunclet$?SetHogaData@CFloatingHogaDlg@@QAEXPADHH@Z$4
	DD	04H
	DD	FLAT:__unwindfunclet$?SetHogaData@CFloatingHogaDlg@@QAEXPADHH@Z$5
	DD	05H
	DD	FLAT:__unwindfunclet$?SetHogaData@CFloatingHogaDlg@@QAEXPADHH@Z$6
	DD	06H
	DD	FLAT:__unwindfunclet$?SetHogaData@CFloatingHogaDlg@@QAEXPADHH@Z$7
	DD	07H
	DD	FLAT:__unwindfunclet$?SetHogaData@CFloatingHogaDlg@@QAEXPADHH@Z$8
	DD	08H
	DD	FLAT:__unwindfunclet$?SetHogaData@CFloatingHogaDlg@@QAEXPADHH@Z$9
	DD	09H
	DD	FLAT:__unwindfunclet$?SetHogaData@CFloatingHogaDlg@@QAEXPADHH@Z$10
	DD	09H
	DD	FLAT:__unwindfunclet$?SetHogaData@CFloatingHogaDlg@@QAEXPADHH@Z$11
	DD	09H
	DD	FLAT:__unwindfunclet$?SetHogaData@CFloatingHogaDlg@@QAEXPADHH@Z$12
	DD	09H
	DD	FLAT:__unwindfunclet$?SetHogaData@CFloatingHogaDlg@@QAEXPADHH@Z$15
	DD	09H
	DD	FLAT:__unwindfunclet$?SetHogaData@CFloatingHogaDlg@@QAEXPADHH@Z$18
	DD	0eH
	DD	FLAT:__unwindfunclet$?SetHogaData@CFloatingHogaDlg@@QAEXPADHH@Z$19
	DD	09H
	DD	FLAT:__unwindfunclet$?SetHogaData@CFloatingHogaDlg@@QAEXPADHH@Z$21
	DD	010H
	DD	FLAT:__unwindfunclet$?SetHogaData@CFloatingHogaDlg@@QAEXPADHH@Z$22
	DD	09H
	DD	FLAT:__unwindfunclet$?SetHogaData@CFloatingHogaDlg@@QAEXPADHH@Z$24
	DD	012H
	DD	FLAT:__unwindfunclet$?SetHogaData@CFloatingHogaDlg@@QAEXPADHH@Z$25
	DD	09H
	DD	FLAT:__unwindfunclet$?SetHogaData@CFloatingHogaDlg@@QAEXPADHH@Z$27
	DD	014H
	DD	FLAT:__unwindfunclet$?SetHogaData@CFloatingHogaDlg@@QAEXPADHH@Z$28
	DD	09H
	DD	FLAT:__unwindfunclet$?SetHogaData@CFloatingHogaDlg@@QAEXPADHH@Z$30
	DD	016H
	DD	FLAT:__unwindfunclet$?SetHogaData@CFloatingHogaDlg@@QAEXPADHH@Z$31
	DD	09H
	DD	FLAT:__unwindfunclet$?SetHogaData@CFloatingHogaDlg@@QAEXPADHH@Z$33
	DD	018H
	DD	FLAT:__unwindfunclet$?SetHogaData@CFloatingHogaDlg@@QAEXPADHH@Z$34
	DD	09H
	DD	FLAT:__unwindfunclet$?SetHogaData@CFloatingHogaDlg@@QAEXPADHH@Z$36
	DD	01aH
	DD	FLAT:__unwindfunclet$?SetHogaData@CFloatingHogaDlg@@QAEXPADHH@Z$37
	DD	09H
	DD	FLAT:__unwindfunclet$?SetHogaData@CFloatingHogaDlg@@QAEXPADHH@Z$39
	DD	01cH
	DD	FLAT:__unwindfunclet$?SetHogaData@CFloatingHogaDlg@@QAEXPADHH@Z$40
	DD	09H
	DD	FLAT:__unwindfunclet$?SetHogaData@CFloatingHogaDlg@@QAEXPADHH@Z$42
	DD	01eH
	DD	FLAT:__unwindfunclet$?SetHogaData@CFloatingHogaDlg@@QAEXPADHH@Z$43
	DD	09H
	DD	FLAT:__unwindfunclet$?SetHogaData@CFloatingHogaDlg@@QAEXPADHH@Z$45
	DD	020H
	DD	FLAT:__unwindfunclet$?SetHogaData@CFloatingHogaDlg@@QAEXPADHH@Z$46
	DD	09H
	DD	FLAT:__unwindfunclet$?SetHogaData@CFloatingHogaDlg@@QAEXPADHH@Z$48
	DD	09H
	DD	FLAT:__unwindfunclet$?SetHogaData@CFloatingHogaDlg@@QAEXPADHH@Z$50
	DD	09H
	DD	FLAT:__unwindfunclet$?SetHogaData@CFloatingHogaDlg@@QAEXPADHH@Z$52
	DD	09H
	DD	FLAT:__unwindfunclet$?SetHogaData@CFloatingHogaDlg@@QAEXPADHH@Z$54
	DD	09H
	DD	FLAT:__unwindfunclet$?SetHogaData@CFloatingHogaDlg@@QAEXPADHH@Z$56
	DD	09H
	DD	FLAT:__unwindfunclet$?SetHogaData@CFloatingHogaDlg@@QAEXPADHH@Z$58
	DD	09H
	DD	FLAT:__unwindfunclet$?SetHogaData@CFloatingHogaDlg@@QAEXPADHH@Z$60
	DD	09H
	DD	FLAT:__unwindfunclet$?SetHogaData@CFloatingHogaDlg@@QAEXPADHH@Z$61
	DD	09H
	DD	FLAT:__unwindfunclet$?SetHogaData@CFloatingHogaDlg@@QAEXPADHH@Z$62
	DD	09H
	DD	FLAT:__unwindfunclet$?SetHogaData@CFloatingHogaDlg@@QAEXPADHH@Z$63
	DD	09H
	DD	FLAT:__unwindfunclet$?SetHogaData@CFloatingHogaDlg@@QAEXPADHH@Z$64
	DD	02cH
	DD	FLAT:__unwindfunclet$?SetHogaData@CFloatingHogaDlg@@QAEXPADHH@Z$65
	DD	02dH
	DD	FLAT:__unwindfunclet$?SetHogaData@CFloatingHogaDlg@@QAEXPADHH@Z$66
	DD	02eH
	DD	FLAT:__unwindfunclet$?SetHogaData@CFloatingHogaDlg@@QAEXPADHH@Z$67
	DD	02fH
	DD	FLAT:__unwindfunclet$?SetHogaData@CFloatingHogaDlg@@QAEXPADHH@Z$68
	DD	030H
	DD	FLAT:__unwindfunclet$?SetHogaData@CFloatingHogaDlg@@QAEXPADHH@Z$69
	DD	030H
	DD	FLAT:__unwindfunclet$?SetHogaData@CFloatingHogaDlg@@QAEXPADHH@Z$70
	DD	030H
	DD	FLAT:__unwindfunclet$?SetHogaData@CFloatingHogaDlg@@QAEXPADHH@Z$89
	DD	033H
	DD	FLAT:__unwindfunclet$?SetHogaData@CFloatingHogaDlg@@QAEXPADHH@Z$90
	DD	030H
	DD	FLAT:__unwindfunclet$?SetHogaData@CFloatingHogaDlg@@QAEXPADHH@Z$91
	DD	030H
	DD	FLAT:__unwindfunclet$?SetHogaData@CFloatingHogaDlg@@QAEXPADHH@Z$74
	DD	030H
	DD	FLAT:__unwindfunclet$?SetHogaData@CFloatingHogaDlg@@QAEXPADHH@Z$75
	DD	030H
	DD	FLAT:__unwindfunclet$?SetHogaData@CFloatingHogaDlg@@QAEXPADHH@Z$76
	DD	038H
	DD	FLAT:__unwindfunclet$?SetHogaData@CFloatingHogaDlg@@QAEXPADHH@Z$77
	DD	039H
	DD	FLAT:__unwindfunclet$?SetHogaData@CFloatingHogaDlg@@QAEXPADHH@Z$78
	DD	03aH
	DD	FLAT:__unwindfunclet$?SetHogaData@CFloatingHogaDlg@@QAEXPADHH@Z$79
	DD	03bH
	DD	FLAT:__unwindfunclet$?SetHogaData@CFloatingHogaDlg@@QAEXPADHH@Z$80
	DD	03bH
	DD	FLAT:__unwindfunclet$?SetHogaData@CFloatingHogaDlg@@QAEXPADHH@Z$81
	DD	03dH
	DD	FLAT:__unwindfunclet$?SetHogaData@CFloatingHogaDlg@@QAEXPADHH@Z$92
	DD	03bH
	DD	FLAT:__unwindfunclet$?SetHogaData@CFloatingHogaDlg@@QAEXPADHH@Z$88
xdata$x	ENDS
;	COMDAT xdata$x
xdata$x	SEGMENT
__unwindtable$?CheckRealHogaDataWithinHogaData@CFloatingHogaDlg@@QAEHV?$CStringT@DV?$StrTraitMFC_DLL@DV?$ChTraitsCRT@D@ATL@@@@@ATL@@PAH@Z DD 0ffffffffH
	DD	FLAT:__unwindfunclet$?CheckRealHogaDataWithinHogaData@CFloatingHogaDlg@@QAEHV?$CStringT@DV?$StrTraitMFC_DLL@DV?$ChTraitsCRT@D@ATL@@@@@ATL@@PAH@Z$0
	DD	00H
	DD	FLAT:__unwindfunclet$?CheckRealHogaDataWithinHogaData@CFloatingHogaDlg@@QAEHV?$CStringT@DV?$StrTraitMFC_DLL@DV?$ChTraitsCRT@D@ATL@@@@@ATL@@PAH@Z$2
	DD	00H
	DD	FLAT:__unwindfunclet$?CheckRealHogaDataWithinHogaData@CFloatingHogaDlg@@QAEHV?$CStringT@DV?$StrTraitMFC_DLL@DV?$ChTraitsCRT@D@ATL@@@@@ATL@@PAH@Z$5
	DD	00H
	DD	FLAT:__unwindfunclet$?CheckRealHogaDataWithinHogaData@CFloatingHogaDlg@@QAEHV?$CStringT@DV?$StrTraitMFC_DLL@DV?$ChTraitsCRT@D@ATL@@@@@ATL@@PAH@Z$8
__ehfuncinfo$?CheckRealHogaDataWithinHogaData@CFloatingHogaDlg@@QAEHV?$CStringT@DV?$StrTraitMFC_DLL@DV?$ChTraitsCRT@D@ATL@@@@@ATL@@PAH@Z DD 019930522H
	DD	04H
	DD	FLAT:__unwindtable$?CheckRealHogaDataWithinHogaData@CFloatingHogaDlg@@QAEHV?$CStringT@DV?$StrTraitMFC_DLL@DV?$ChTraitsCRT@D@ATL@@@@@ATL@@PAH@Z
	DD	2 DUP(00H)
	DD	2 DUP(00H)
	DD	00H
	DD	01H
xdata$x	ENDS
;	COMDAT xdata$x
xdata$x	SEGMENT
__unwindtable$?SetRealHogaData_Rem@CFloatingHogaDlg@@QAEXV?$CStringT@DV?$StrTraitMFC_DLL@DV?$ChTraitsCRT@D@ATL@@@@@ATL@@H@Z DD 0ffffffffH
	DD	FLAT:__unwindfunclet$?SetRealHogaData_Rem@CFloatingHogaDlg@@QAEXV?$CStringT@DV?$StrTraitMFC_DLL@DV?$ChTraitsCRT@D@ATL@@@@@ATL@@H@Z$0
	DD	00H
	DD	FLAT:__unwindfunclet$?SetRealHogaData_Rem@CFloatingHogaDlg@@QAEXV?$CStringT@DV?$StrTraitMFC_DLL@DV?$ChTraitsCRT@D@ATL@@@@@ATL@@H@Z$1
	DD	01H
	DD	FLAT:__unwindfunclet$?SetRealHogaData_Rem@CFloatingHogaDlg@@QAEXV?$CStringT@DV?$StrTraitMFC_DLL@DV?$ChTraitsCRT@D@ATL@@@@@ATL@@H@Z$2
__ehfuncinfo$?SetRealHogaData_Rem@CFloatingHogaDlg@@QAEXV?$CStringT@DV?$StrTraitMFC_DLL@DV?$ChTraitsCRT@D@ATL@@@@@ATL@@H@Z DD 019930522H
	DD	03H
	DD	FLAT:__unwindtable$?SetRealHogaData_Rem@CFloatingHogaDlg@@QAEXV?$CStringT@DV?$StrTraitMFC_DLL@DV?$ChTraitsCRT@D@ATL@@@@@ATL@@H@Z
	DD	2 DUP(00H)
	DD	2 DUP(00H)
	DD	00H
	DD	01H
xdata$x	ENDS
;	COMDAT xdata$x
xdata$x	SEGMENT
__ehfuncinfo$?SetRealHogaData_Sub@CFloatingHogaDlg@@QAEXV?$CStringT@DV?$StrTraitMFC_DLL@DV?$ChTraitsCRT@D@ATL@@@@@ATL@@0H@Z DD 019930522H
	DD	09H
	DD	FLAT:__unwindtable$?SetRealHogaData_Sub@CFloatingHogaDlg@@QAEXV?$CStringT@DV?$StrTraitMFC_DLL@DV?$ChTraitsCRT@D@ATL@@@@@ATL@@0H@Z
	DD	2 DUP(00H)
	DD	2 DUP(00H)
	DD	00H
	DD	01H
__unwindtable$?SetRealHogaData_Sub@CFloatingHogaDlg@@QAEXV?$CStringT@DV?$StrTraitMFC_DLL@DV?$ChTraitsCRT@D@ATL@@@@@ATL@@0H@Z DD 0ffffffffH
	DD	FLAT:__unwindfunclet$?SetRealHogaData_Sub@CFloatingHogaDlg@@QAEXV?$CStringT@DV?$StrTraitMFC_DLL@DV?$ChTraitsCRT@D@ATL@@@@@ATL@@0H@Z$0
	DD	00H
	DD	FLAT:__unwindfunclet$?SetRealHogaData_Sub@CFloatingHogaDlg@@QAEXV?$CStringT@DV?$StrTraitMFC_DLL@DV?$ChTraitsCRT@D@ATL@@@@@ATL@@0H@Z$1
	DD	01H
	DD	FLAT:__unwindfunclet$?SetRealHogaData_Sub@CFloatingHogaDlg@@QAEXV?$CStringT@DV?$StrTraitMFC_DLL@DV?$ChTraitsCRT@D@ATL@@@@@ATL@@0H@Z$2
	DD	02H
	DD	FLAT:__unwindfunclet$?SetRealHogaData_Sub@CFloatingHogaDlg@@QAEXV?$CStringT@DV?$StrTraitMFC_DLL@DV?$ChTraitsCRT@D@ATL@@@@@ATL@@0H@Z$3
	DD	03H
	DD	FLAT:__unwindfunclet$?SetRealHogaData_Sub@CFloatingHogaDlg@@QAEXV?$CStringT@DV?$StrTraitMFC_DLL@DV?$ChTraitsCRT@D@ATL@@@@@ATL@@0H@Z$4
	DD	03H
	DD	FLAT:__unwindfunclet$?SetRealHogaData_Sub@CFloatingHogaDlg@@QAEXV?$CStringT@DV?$StrTraitMFC_DLL@DV?$ChTraitsCRT@D@ATL@@@@@ATL@@0H@Z$5
	DD	05H
	DD	FLAT:__unwindfunclet$?SetRealHogaData_Sub@CFloatingHogaDlg@@QAEXV?$CStringT@DV?$StrTraitMFC_DLL@DV?$ChTraitsCRT@D@ATL@@@@@ATL@@0H@Z$6
	DD	03H
	DD	FLAT:__unwindfunclet$?SetRealHogaData_Sub@CFloatingHogaDlg@@QAEXV?$CStringT@DV?$StrTraitMFC_DLL@DV?$ChTraitsCRT@D@ATL@@@@@ATL@@0H@Z$9
	DD	03H
	DD	FLAT:__unwindfunclet$?SetRealHogaData_Sub@CFloatingHogaDlg@@QAEXV?$CStringT@DV?$StrTraitMFC_DLL@DV?$ChTraitsCRT@D@ATL@@@@@ATL@@0H@Z$10
xdata$x	ENDS
;	COMDAT xdata$x
xdata$x	SEGMENT
__ehfuncinfo$?SetRealYeShangData@CFloatingHogaDlg@@QAEXPBD@Z DD 019930522H
	DD	0aH
	DD	FLAT:__unwindtable$?SetRealYeShangData@CFloatingHogaDlg@@QAEXPBD@Z
	DD	2 DUP(00H)
	DD	2 DUP(00H)
	DD	00H
	DD	01H
__unwindtable$?SetRealYeShangData@CFloatingHogaDlg@@QAEXPBD@Z DD 0ffffffffH
	DD	FLAT:__unwindfunclet$?SetRealYeShangData@CFloatingHogaDlg@@QAEXPBD@Z$0
	DD	00H
	DD	FLAT:__unwindfunclet$?SetRealYeShangData@CFloatingHogaDlg@@QAEXPBD@Z$14
	DD	00H
	DD	FLAT:__unwindfunclet$?SetRealYeShangData@CFloatingHogaDlg@@QAEXPBD@Z$1
	DD	02H
	DD	FLAT:__unwindfunclet$?SetRealYeShangData@CFloatingHogaDlg@@QAEXPBD@Z$2
	DD	03H
	DD	FLAT:__unwindfunclet$?SetRealYeShangData@CFloatingHogaDlg@@QAEXPBD@Z$3
	DD	04H
	DD	FLAT:__unwindfunclet$?SetRealYeShangData@CFloatingHogaDlg@@QAEXPBD@Z$4
	DD	05H
	DD	FLAT:__unwindfunclet$?SetRealYeShangData@CFloatingHogaDlg@@QAEXPBD@Z$5
	DD	06H
	DD	FLAT:__unwindfunclet$?SetRealYeShangData@CFloatingHogaDlg@@QAEXPBD@Z$6
	DD	06H
	DD	FLAT:__unwindfunclet$?SetRealYeShangData@CFloatingHogaDlg@@QAEXPBD@Z$7
	DD	08H
	DD	FLAT:__unwindfunclet$?SetRealYeShangData@CFloatingHogaDlg@@QAEXPBD@Z$15
xdata$x	ENDS
;	COMDAT xdata$x
xdata$x	SEGMENT
__ehfuncinfo$?SetRealHogaData@CFloatingHogaDlg@@QAEXKV?$CStringT@DV?$StrTraitMFC_DLL@DV?$ChTraitsCRT@D@ATL@@@@@ATL@@J@Z DD 019930522H
	DD	05H
	DD	FLAT:__unwindtable$?SetRealHogaData@CFloatingHogaDlg@@QAEXKV?$CStringT@DV?$StrTraitMFC_DLL@DV?$ChTraitsCRT@D@ATL@@@@@ATL@@J@Z
	DD	2 DUP(00H)
	DD	2 DUP(00H)
	DD	00H
	DD	01H
__unwindtable$?SetRealHogaData@CFloatingHogaDlg@@QAEXKV?$CStringT@DV?$StrTraitMFC_DLL@DV?$ChTraitsCRT@D@ATL@@@@@ATL@@J@Z DD 0ffffffffH
	DD	FLAT:__unwindfunclet$?SetRealHogaData@CFloatingHogaDlg@@QAEXKV?$CStringT@DV?$StrTraitMFC_DLL@DV?$ChTraitsCRT@D@ATL@@@@@ATL@@J@Z$0
	DD	00H
	DD	FLAT:__unwindfunclet$?SetRealHogaData@CFloatingHogaDlg@@QAEXKV?$CStringT@DV?$StrTraitMFC_DLL@DV?$ChTraitsCRT@D@ATL@@@@@ATL@@J@Z$1
	DD	01H
	DD	FLAT:__unwindfunclet$?SetRealHogaData@CFloatingHogaDlg@@QAEXKV?$CStringT@DV?$StrTraitMFC_DLL@DV?$ChTraitsCRT@D@ATL@@@@@ATL@@J@Z$2
	DD	01H
	DD	FLAT:__unwindfunclet$?SetRealHogaData@CFloatingHogaDlg@@QAEXKV?$CStringT@DV?$StrTraitMFC_DLL@DV?$ChTraitsCRT@D@ATL@@@@@ATL@@J@Z$3
	DD	03H
	DD	FLAT:__unwindfunclet$?SetRealHogaData@CFloatingHogaDlg@@QAEXKV?$CStringT@DV?$StrTraitMFC_DLL@DV?$ChTraitsCRT@D@ATL@@@@@ATL@@J@Z$4
xdata$x	ENDS
;	COMDAT xdata$x
xdata$x	SEGMENT
__ehfuncinfo$?SetRealHogaData@CFloatingHogaDlg@@QAEXAAVCKBREAL_KXH1@@@Z DD 019930522H
	DD	013H
	DD	FLAT:__unwindtable$?SetRealHogaData@CFloatingHogaDlg@@QAEXAAVCKBREAL_KXH1@@@Z
	DD	2 DUP(00H)
	DD	2 DUP(00H)
	DD	00H
	DD	01H
__unwindtable$?SetRealHogaData@CFloatingHogaDlg@@QAEXAAVCKBREAL_KXH1@@@Z DD 0ffffffffH
	DD	FLAT:__unwindfunclet$?SetRealHogaData@CFloatingHogaDlg@@QAEXAAVCKBREAL_KXH1@@@Z$0
	DD	00H
	DD	FLAT:__unwindfunclet$?SetRealHogaData@CFloatingHogaDlg@@QAEXAAVCKBREAL_KXH1@@@Z$1
	DD	01H
	DD	FLAT:__unwindfunclet$?SetRealHogaData@CFloatingHogaDlg@@QAEXAAVCKBREAL_KXH1@@@Z$2
	DD	02H
	DD	FLAT:__unwindfunclet$?SetRealHogaData@CFloatingHogaDlg@@QAEXAAVCKBREAL_KXH1@@@Z$3
	DD	02H
	DD	FLAT:__unwindfunclet$?SetRealHogaData@CFloatingHogaDlg@@QAEXAAVCKBREAL_KXH1@@@Z$6
	DD	02H
	DD	FLAT:__unwindfunclet$?SetRealHogaData@CFloatingHogaDlg@@QAEXAAVCKBREAL_KXH1@@@Z$9
	DD	02H
	DD	FLAT:__unwindfunclet$?SetRealHogaData@CFloatingHogaDlg@@QAEXAAVCKBREAL_KXH1@@@Z$12
	DD	02H
	DD	FLAT:__unwindfunclet$?SetRealHogaData@CFloatingHogaDlg@@QAEXAAVCKBREAL_KXH1@@@Z$15
	DD	02H
	DD	FLAT:__unwindfunclet$?SetRealHogaData@CFloatingHogaDlg@@QAEXAAVCKBREAL_KXH1@@@Z$18
	DD	02H
	DD	FLAT:__unwindfunclet$?SetRealHogaData@CFloatingHogaDlg@@QAEXAAVCKBREAL_KXH1@@@Z$21
	DD	02H
	DD	FLAT:__unwindfunclet$?SetRealHogaData@CFloatingHogaDlg@@QAEXAAVCKBREAL_KXH1@@@Z$24
	DD	02H
	DD	FLAT:__unwindfunclet$?SetRealHogaData@CFloatingHogaDlg@@QAEXAAVCKBREAL_KXH1@@@Z$27
	DD	02H
	DD	FLAT:__unwindfunclet$?SetRealHogaData@CFloatingHogaDlg@@QAEXAAVCKBREAL_KXH1@@@Z$30
	DD	02H
	DD	FLAT:__unwindfunclet$?SetRealHogaData@CFloatingHogaDlg@@QAEXAAVCKBREAL_KXH1@@@Z$33
	DD	02H
	DD	FLAT:__unwindfunclet$?SetRealHogaData@CFloatingHogaDlg@@QAEXAAVCKBREAL_KXH1@@@Z$34
	DD	02H
	DD	FLAT:__unwindfunclet$?SetRealHogaData@CFloatingHogaDlg@@QAEXAAVCKBREAL_KXH1@@@Z$36
	DD	02H
	DD	FLAT:__unwindfunclet$?SetRealHogaData@CFloatingHogaDlg@@QAEXAAVCKBREAL_KXH1@@@Z$37
	DD	02H
	DD	FLAT:__unwindfunclet$?SetRealHogaData@CFloatingHogaDlg@@QAEXAAVCKBREAL_KXH1@@@Z$39
	DD	02H
	DD	FLAT:__unwindfunclet$?SetRealHogaData@CFloatingHogaDlg@@QAEXAAVCKBREAL_KXH1@@@Z$41
xdata$x	ENDS
;	COMDAT xdata$x
xdata$x	SEGMENT
__unwindtable$?Serialize@?$CMap@GGV?$CStringT@DV?$StrTraitMFC_DLL@DV?$ChTraitsCRT@D@ATL@@@@@ATL@@V12@@@UAEXAAVCArchive@@@Z DD 0ffffffffH
	DD	FLAT:__unwindfunclet$?Serialize@?$CMap@GGV?$CStringT@DV?$StrTraitMFC_DLL@DV?$ChTraitsCRT@D@ATL@@@@@ATL@@V12@@@UAEXAAVCArchive@@@Z$0
	DD	00H
	DD	FLAT:__unwindfunclet$?Serialize@?$CMap@GGV?$CStringT@DV?$StrTraitMFC_DLL@DV?$ChTraitsCRT@D@ATL@@@@@ATL@@V12@@@UAEXAAVCArchive@@@Z$2
__ehfuncinfo$?Serialize@?$CMap@GGV?$CStringT@DV?$StrTraitMFC_DLL@DV?$ChTraitsCRT@D@ATL@@@@@ATL@@V12@@@UAEXAAVCArchive@@@Z DD 019930522H
	DD	02H
	DD	FLAT:__unwindtable$?Serialize@?$CMap@GGV?$CStringT@DV?$StrTraitMFC_DLL@DV?$ChTraitsCRT@D@ATL@@@@@ATL@@V12@@@UAEXAAVCArchive@@@Z
	DD	2 DUP(00H)
	DD	2 DUP(00H)
	DD	00H
	DD	01H
xdata$x	ENDS
;	COMDAT xdata$x
xdata$x	SEGMENT
__ehfuncinfo$??1?$CMap@GGV?$CStringT@DV?$StrTraitMFC_DLL@DV?$ChTraitsCRT@D@ATL@@@@@ATL@@V12@@@UAE@XZ DD 019930522H
	DD	00H
	DD	00H
	DD	2 DUP(00H)
	DD	2 DUP(00H)
	DD	00H
	DD	05H
xdata$x	ENDS
;	COMDAT xdata$x
xdata$x	SEGMENT
__unwindtable$?SetAt@?$CMap@GGV?$CStringT@DV?$StrTraitMFC_DLL@DV?$ChTraitsCRT@D@ATL@@@@@ATL@@V12@@@QAEXGV?$CStringT@DV?$StrTraitMFC_DLL@DV?$ChTraitsCRT@D@ATL@@@@@ATL@@@Z DD 0ffffffffH
	DD	FLAT:__unwindfunclet$?SetAt@?$CMap@GGV?$CStringT@DV?$StrTraitMFC_DLL@DV?$ChTraitsCRT@D@ATL@@@@@ATL@@V12@@@QAEXGV?$CStringT@DV?$StrTraitMFC_DLL@DV?$ChTraitsCRT@D@ATL@@@@@ATL@@@Z$0
__ehfuncinfo$?SetAt@?$CMap@GGV?$CStringT@DV?$StrTraitMFC_DLL@DV?$ChTraitsCRT@D@ATL@@@@@ATL@@V12@@@QAEXGV?$CStringT@DV?$StrTraitMFC_DLL@DV?$ChTraitsCRT@D@ATL@@@@@ATL@@@Z DD 019930522H
	DD	01H
	DD	FLAT:__unwindtable$?SetAt@?$CMap@GGV?$CStringT@DV?$StrTraitMFC_DLL@DV?$ChTraitsCRT@D@ATL@@@@@ATL@@V12@@@QAEXGV?$CStringT@DV?$StrTraitMFC_DLL@DV?$ChTraitsCRT@D@ATL@@@@@ATL@@@Z
	DD	2 DUP(00H)
	DD	2 DUP(00H)
	DD	00H
	DD	01H
xdata$x	ENDS
;	COMDAT xdata$x
xdata$x	SEGMENT
__ehfuncinfo$??0CFloatingHogaDlg@@QAE@PAVCWnd@@@Z DD 019930522H
	DD	0fH
	DD	FLAT:__unwindtable$??0CFloatingHogaDlg@@QAE@PAVCWnd@@@Z
	DD	2 DUP(00H)
	DD	2 DUP(00H)
	DD	00H
	DD	01H
__unwindtable$??0CFloatingHogaDlg@@QAE@PAVCWnd@@@Z DD 0ffffffffH
	DD	FLAT:__unwindfunclet$??0CFloatingHogaDlg@@QAE@PAVCWnd@@@Z$0
	DD	00H
	DD	FLAT:__unwindfunclet$??0CFloatingHogaDlg@@QAE@PAVCWnd@@@Z$1
	DD	01H
	DD	FLAT:__unwindfunclet$??0CFloatingHogaDlg@@QAE@PAVCWnd@@@Z$2
	DD	02H
	DD	FLAT:__unwindfunclet$??0CFloatingHogaDlg@@QAE@PAVCWnd@@@Z$3
	DD	03H
	DD	FLAT:__unwindfunclet$??0CFloatingHogaDlg@@QAE@PAVCWnd@@@Z$4
	DD	04H
	DD	FLAT:__unwindfunclet$??0CFloatingHogaDlg@@QAE@PAVCWnd@@@Z$5
	DD	05H
	DD	FLAT:__unwindfunclet$??0CFloatingHogaDlg@@QAE@PAVCWnd@@@Z$6
	DD	06H
	DD	FLAT:__unwindfunclet$??0CFloatingHogaDlg@@QAE@PAVCWnd@@@Z$7
	DD	07H
	DD	FLAT:__unwindfunclet$??0CFloatingHogaDlg@@QAE@PAVCWnd@@@Z$8
	DD	08H
	DD	FLAT:__unwindfunclet$??0CFloatingHogaDlg@@QAE@PAVCWnd@@@Z$9
	DD	09H
	DD	FLAT:__unwindfunclet$??0CFloatingHogaDlg@@QAE@PAVCWnd@@@Z$10
	DD	0aH
	DD	FLAT:__unwindfunclet$??0CFloatingHogaDlg@@QAE@PAVCWnd@@@Z$11
	DD	0bH
	DD	FLAT:__unwindfunclet$??0CFloatingHogaDlg@@QAE@PAVCWnd@@@Z$12
	DD	0cH
	DD	FLAT:__unwindfunclet$??0CFloatingHogaDlg@@QAE@PAVCWnd@@@Z$13
	DD	0dH
	DD	FLAT:__unwindfunclet$??0CFloatingHogaDlg@@QAE@PAVCWnd@@@Z$14
xdata$x	ENDS
;	COMDAT xdata$x
xdata$x	SEGMENT
__unwindtable$?Convert@CKBREAL_KXYS@@UAEXPAU_KXYS_OutBlock@@@Z DD 0ffffffffH
	DD	FLAT:__unwindfunclet$?Convert@CKBREAL_KXYS@@UAEXPAU_KXYS_OutBlock@@@Z$0
__ehfuncinfo$?Convert@CKBREAL_KXYS@@UAEXPAU_KXYS_OutBlock@@@Z DD 019930522H
	DD	01H
	DD	FLAT:__unwindtable$?Convert@CKBREAL_KXYS@@UAEXPAU_KXYS_OutBlock@@@Z
	DD	2 DUP(00H)
	DD	2 DUP(00H)
	DD	00H
	DD	01H
xdata$x	ENDS
;	COMDAT xdata$x
xdata$x	SEGMENT
__unwindtable$?Convert@CKBREAL_KXH1@@UAEXPAU_KXH1_OutBlock@@@Z DD 0ffffffffH
	DD	FLAT:__unwindfunclet$?Convert@CKBREAL_KXH1@@UAEXPAU_KXH1_OutBlock@@@Z$0
__ehfuncinfo$?Convert@CKBREAL_KXH1@@UAEXPAU_KXH1_OutBlock@@@Z DD 019930522H
	DD	01H
	DD	FLAT:__unwindtable$?Convert@CKBREAL_KXH1@@UAEXPAU_KXH1_OutBlock@@@Z
	DD	2 DUP(00H)
	DD	2 DUP(00H)
	DD	00H
	DD	01H
xdata$x	ENDS
;	COMDAT xdata$x
xdata$x	SEGMENT
__unwindtable$?Convert@CKB_01230@@UAEXPAU_k01230Out2@@@Z DD 0ffffffffH
	DD	FLAT:__unwindfunclet$?Convert@CKB_01230@@UAEXPAU_k01230Out2@@@Z$0
__ehfuncinfo$?Convert@CKB_01230@@UAEXPAU_k01230Out2@@@Z DD 019930522H
	DD	01H
	DD	FLAT:__unwindtable$?Convert@CKB_01230@@UAEXPAU_k01230Out2@@@Z
	DD	2 DUP(00H)
	DD	2 DUP(00H)
	DD	00H
	DD	01H
xdata$x	ENDS
;	COMDAT xdata$x
xdata$x	SEGMENT
__unwindtable$?AfxGetPctrInterface@@YGJH@Z DD 0ffffffffH
	DD	FLAT:__unwindfunclet$?AfxGetPctrInterface@@YGJH@Z$0
__ehfuncinfo$?AfxGetPctrInterface@@YGJH@Z DD 019930522H
	DD	01H
	DD	FLAT:__unwindtable$?AfxGetPctrInterface@@YGJH@Z
	DD	2 DUP(00H)
	DD	2 DUP(00H)
	DD	00H
	DD	01H
xdata$x	ENDS
;	COMDAT xdata$x
xdata$x	SEGMENT
__catchsym$??1CGdiObject@@UAE@XZ$3 DD 00H
	DD	FLAT:??_R0PAVCException@@@8
	DD	0fffffde4H
	DD	FLAT:__catch$??1CGdiObject@@UAE@XZ$0
__tryblocktable$??1CGdiObject@@UAE@XZ DD 00H
	DD	00H
	DD	02H
	DD	01H
	DD	FLAT:__catchsym$??1CGdiObject@@UAE@XZ$3
__unwindtable$??1CGdiObject@@UAE@XZ DD 0ffffffffH
	DD	00H
	DD	0ffffffffH
	DD	00H
	DD	01H
	DD	FLAT:__unwindfunclet$??1CGdiObject@@UAE@XZ$2
__ehfuncinfo$??1CGdiObject@@UAE@XZ DD 019930522H
	DD	03H
	DD	FLAT:__unwindtable$??1CGdiObject@@UAE@XZ
	DD	01H
	DD	FLAT:__tryblocktable$??1CGdiObject@@UAE@XZ
	DD	2 DUP(00H)
	DD	00H
	DD	05H
xdata$x	ENDS
;	COMDAT xdata$x
xdata$x	SEGMENT
__unwindtable$??HATL@@YA?AV?$CStringT@DV?$StrTraitMFC_DLL@DV?$ChTraitsCRT@D@ATL@@@@@0@ABV10@PBD@Z DD 0ffffffffH
	DD	FLAT:__unwindfunclet$??HATL@@YA?AV?$CStringT@DV?$StrTraitMFC_DLL@DV?$ChTraitsCRT@D@ATL@@@@@0@ABV10@PBD@Z$0
__ehfuncinfo$??HATL@@YA?AV?$CStringT@DV?$StrTraitMFC_DLL@DV?$ChTraitsCRT@D@ATL@@@@@0@ABV10@PBD@Z DD 019930522H
	DD	01H
	DD	FLAT:__unwindtable$??HATL@@YA?AV?$CStringT@DV?$StrTraitMFC_DLL@DV?$ChTraitsCRT@D@ATL@@@@@0@ABV10@PBD@Z
	DD	2 DUP(00H)
	DD	2 DUP(00H)
	DD	00H
	DD	01H
xdata$x	ENDS
;	COMDAT xdata$x
xdata$x	SEGMENT
__unwindtable$??HATL@@YA?AV?$CStringT@DV?$StrTraitMFC_DLL@DV?$ChTraitsCRT@D@ATL@@@@@0@ABV10@0@Z DD 0ffffffffH
	DD	FLAT:__unwindfunclet$??HATL@@YA?AV?$CStringT@DV?$StrTraitMFC_DLL@DV?$ChTraitsCRT@D@ATL@@@@@0@ABV10@0@Z$0
__ehfuncinfo$??HATL@@YA?AV?$CStringT@DV?$StrTraitMFC_DLL@DV?$ChTraitsCRT@D@ATL@@@@@0@ABV10@0@Z DD 019930522H
	DD	01H
	DD	FLAT:__unwindtable$??HATL@@YA?AV?$CStringT@DV?$StrTraitMFC_DLL@DV?$ChTraitsCRT@D@ATL@@@@@0@ABV10@0@Z
	DD	2 DUP(00H)
	DD	2 DUP(00H)
	DD	00H
	DD	01H
xdata$x	ENDS
CRT$XCU	SEGMENT
?RMSG_GETSIGNAL_REAL$initializer$@@3P6AXXZA DD FLAT:??__ERMSG_GETSIGNAL_REAL@@YAXXZ ; RMSG_GETSIGNAL_REAL$initializer$
CRT$XCU	ENDS
CRT$XCU	SEGMENT
?RMSG_SETQUERYOPT$initializer$@@3P6AXXZA DD FLAT:??__ERMSG_SETQUERYOPT@@YAXXZ ; RMSG_SETQUERYOPT$initializer$
CRT$XCU	ENDS
CRT$XCU	SEGMENT
?RMSG_CHARTMAIN$initializer$@@3P6AXXZA DD FLAT:??__ERMSG_CHARTMAIN@@YAXXZ ; RMSG_CHARTMAIN$initializer$
CRT$XCU	ENDS
CRT$XCU	SEGMENT
?RMS_ANALYSIS_FUNC$initializer$@@3P6AXXZA DD FLAT:??__ERMS_ANALYSIS_FUNC@@YAXXZ ; RMS_ANALYSIS_FUNC$initializer$
CRT$XCU	ENDS
CRT$XCU	SEGMENT
?RMSG_GET_USERID$initializer$@@3P6AXXZA DD FLAT:??__ERMSG_GET_USERID@@YAXXZ ; RMSG_GET_USERID$initializer$
CRT$XCU	ENDS
CRT$XCU	SEGMENT
?RMSG_CHANGE_SKINCOLOR$initializer$@@3P6AXXZA DD FLAT:??__ERMSG_CHANGE_SKINCOLOR@@YAXXZ ; RMSG_CHANGE_SKINCOLOR$initializer$
CRT$XCU	ENDS
CRT$XCU	SEGMENT
?RMSG_GET_SKINCOLOR$initializer$@@3P6AXXZA DD FLAT:??__ERMSG_GET_SKINCOLOR@@YAXXZ ; RMSG_GET_SKINCOLOR$initializer$
CRT$XCU	ENDS
CRT$XCU	SEGMENT
?RMSG_CHANGEVERTSCALETYPE$initializer$@@3P6AXXZA DD FLAT:??__ERMSG_CHANGEVERTSCALETYPE@@YAXXZ ; RMSG_CHANGEVERTSCALETYPE$initializer$
CRT$XCU	ENDS
CRT$XCU	SEGMENT
?RMSG_CHANGE_CROSSLINE$initializer$@@3P6AXXZA DD FLAT:??__ERMSG_CHANGE_CROSSLINE@@YAXXZ ; RMSG_CHANGE_CROSSLINE$initializer$
CRT$XCU	ENDS
CRT$XCU	SEGMENT
?RMSG_ADD_PLATFORM_MENU$initializer$@@3P6AXXZA DD FLAT:??__ERMSG_ADD_PLATFORM_MENU@@YAXXZ ; RMSG_ADD_PLATFORM_MENU$initializer$
CRT$XCU	ENDS
CRT$XCU	SEGMENT
?RMSG_SETINITIALCHARTDATA$initializer$@@3P6AXXZA DD FLAT:??__ERMSG_SETINITIALCHARTDATA@@YAXXZ ; RMSG_SETINITIALCHARTDATA$initializer$
CRT$XCU	ENDS
CRT$XCU	SEGMENT
?RMSG_GETINFO$initializer$@@3P6AXXZA DD FLAT:??__ERMSG_GETINFO@@YAXXZ ; RMSG_GETINFO$initializer$
CRT$XCU	ENDS
CRT$XCU	SEGMENT
?RMSG_SETINFO$initializer$@@3P6AXXZA DD FLAT:??__ERMSG_SETINFO@@YAXXZ ; RMSG_SETINFO$initializer$
CRT$XCU	ENDS
; Function compile flags: /Ogtp
; File C:\Program Files (x86)\Microsoft Visual Studio\2019\Community\VC\Tools\MSVC\14.29.30133\atlmfc\include\afxtempl.h
;	COMDAT ??$CompareElements@GG@@YGHPBG0@Z
_TEXT	SEGMENT
_pElement1$ = 8						; size = 4
_pElement2$ = 12					; size = 4
??$CompareElements@GG@@YGHPBG0@Z PROC			; CompareElements<unsigned short,unsigned short>, COMDAT

; 151  : {

  00000	55		 push	 ebp
  00001	8b ec		 mov	 ebp, esp

; 152  : 	ENSURE(pElement1 != NULL && pElement2 != NULL);

  00003	8b 45 08	 mov	 eax, DWORD PTR _pElement1$[ebp]
  00006	85 c0		 test	 eax, eax
  00008	74 16		 je	 SHORT $LN7@CompareEle
  0000a	8b 55 0c	 mov	 edx, DWORD PTR _pElement2$[ebp]
  0000d	85 d2		 test	 edx, edx
  0000f	74 0f		 je	 SHORT $LN7@CompareEle

; 153  : 	ASSERT(AfxIsValidAddress(pElement1, sizeof(TYPE), FALSE));
; 154  : 	ASSERT(AfxIsValidAddress(pElement2, sizeof(ARG_TYPE), FALSE));
; 155  : 
; 156  : 	return *pElement1 == *pElement2;

  00011	66 8b 08	 mov	 cx, WORD PTR [eax]
  00014	33 c0		 xor	 eax, eax
  00016	66 3b 0a	 cmp	 cx, WORD PTR [edx]
  00019	0f 94 c0	 sete	 al

; 157  : }

  0001c	5d		 pop	 ebp
  0001d	c2 08 00	 ret	 8
$LN7@CompareEle:

; 152  : 	ENSURE(pElement1 != NULL && pElement2 != NULL);

  00020	e8 00 00 00 00	 call	 ?AfxThrowInvalidArgException@@YGXXZ ; AfxThrowInvalidArgException
$LN10@CompareEle:
  00025	cc		 int	 3
??$CompareElements@GG@@YGHPBG0@Z ENDP			; CompareElements<unsigned short,unsigned short>
_TEXT	ENDS
; Function compile flags: /Ogtp
; File C:\Program Files (x86)\Microsoft Visual Studio\2019\Community\VC\Tools\MSVC\14.29.30133\atlmfc\include\afxtempl.h
; File C:\Program Files (x86)\Microsoft Visual Studio\2019\Community\VC\Tools\MSVC\14.29.30133\atlmfc\include\afx.inl
; File C:\Program Files (x86)\Microsoft Visual Studio\2019\Community\VC\Tools\MSVC\14.29.30133\atlmfc\include\afxtempl.h
; File C:\Program Files (x86)\Microsoft Visual Studio\2019\Community\VC\Tools\MSVC\14.29.30133\atlmfc\include\afx.inl
; File C:\Program Files (x86)\Microsoft Visual Studio\2019\Community\VC\Tools\MSVC\14.29.30133\atlmfc\include\afxtempl.h
; File C:\Program Files (x86)\Microsoft Visual Studio\2019\Community\VC\Tools\MSVC\14.29.30133\atlmfc\include\afx.inl
; File C:\Program Files (x86)\Microsoft Visual Studio\2019\Community\VC\Tools\MSVC\14.29.30133\atlmfc\include\afxtempl.h
;	COMDAT ??$SerializeElements@PAVCHogaData@@@@YGXAAVCArchive@@PAPAVCHogaData@@H@Z
_TEXT	SEGMENT
_ar$ = 8						; size = 4
_pElements$ = 12					; size = 4
_nCount$ = 16						; size = 4
??$SerializeElements@PAVCHogaData@@@@YGXAAVCArchive@@PAPAVCHogaData@@H@Z PROC ; SerializeElements<CHogaData *>, COMDAT

; 67   : {

  00000	55		 push	 ebp
  00001	8b ec		 mov	 ebp, esp

; 68   : 	ENSURE(nCount == 0 || pElements != NULL);

  00003	8b 4d 0c	 mov	 ecx, DWORD PTR _pElements$[ebp]
  00006	53		 push	 ebx
  00007	56		 push	 esi
  00008	8b 75 10	 mov	 esi, DWORD PTR _nCount$[ebp]
  0000b	57		 push	 edi
  0000c	85 f6		 test	 esi, esi
  0000e	74 08		 je	 SHORT $LN2@SerializeE
  00010	85 c9		 test	 ecx, ecx
  00012	0f 84 89 00 00
	00		 je	 $LN34@SerializeE
$LN2@SerializeE:
; File C:\Program Files (x86)\Microsoft Visual Studio\2019\Community\VC\Tools\MSVC\14.29.30133\atlmfc\include\afx.inl

; 212  : 	{ return (m_nMode & CArchive::load) == 0; }

  00018	8b 55 08	 mov	 edx, DWORD PTR _ar$[ebp]
  0001b	8b 42 18	 mov	 eax, DWORD PTR [edx+24]
  0001e	f7 d0		 not	 eax
  00020	a8 01		 test	 al, 1
; File C:\Program Files (x86)\Microsoft Visual Studio\2019\Community\VC\Tools\MSVC\14.29.30133\atlmfc\include\afxtempl.h

; 73   : 	if (ar.IsStoring())

  00022	74 3c		 je	 SHORT $LN10@SerializeE

; 74   : 	{
; 75   : 		TYPE* pData;
; 76   : 		UINT_PTR nElementsLeft;
; 77   : 
; 78   : 		nElementsLeft = nCount;
; 79   : 		pData = pElements;
; 80   : 		while( nElementsLeft > 0 )

  00024	85 f6		 test	 esi, esi
  00026	74 31		 je	 SHORT $LN8@SerializeE
  00028	0f 1f 84 00 00
	00 00 00	 npad	 8
$LL5@SerializeE:

; 81   : 		{
; 82   : 			UINT nElementsToWrite;
; 83   : 
; 84   : 			nElementsToWrite = UINT(__min(nElementsLeft, INT_MAX/sizeof(TYPE)));

  00030	bb ff ff ff 1f	 mov	 ebx, 536870911		; 1fffffffH
  00035	3b f3		 cmp	 esi, ebx
  00037	0f 42 de	 cmovb	 ebx, esi

; 85   : 			ar.Write(pData, nElementsToWrite*sizeof(TYPE));

  0003a	8d 3c 9d 00 00
	00 00		 lea	 edi, DWORD PTR [ebx*4]
  00041	57		 push	 edi
  00042	51		 push	 ecx
  00043	8b ca		 mov	 ecx, edx
  00045	e8 00 00 00 00	 call	 ?Write@CArchive@@QAEXPBXI@Z ; CArchive::Write

; 86   : 			nElementsLeft -= nElementsToWrite;
; 87   : 			pData += nElementsToWrite;

  0004a	8b 4d 0c	 mov	 ecx, DWORD PTR _pElements$[ebp]
  0004d	8b 55 08	 mov	 edx, DWORD PTR _ar$[ebp]
  00050	03 cf		 add	 ecx, edi
  00052	89 4d 0c	 mov	 DWORD PTR _pElements$[ebp], ecx
  00055	2b f3		 sub	 esi, ebx
  00057	75 d7		 jne	 SHORT $LL5@SerializeE
$LN8@SerializeE:
  00059	5f		 pop	 edi

; 105  : 		}
; 106  : 	}
; 107  : }

  0005a	5e		 pop	 esi
  0005b	5b		 pop	 ebx
  0005c	5d		 pop	 ebp
  0005d	c2 0c 00	 ret	 12			; 0000000cH
$LN10@SerializeE:

; 97   : 		while( nElementsLeft > 0 )

  00060	85 f6		 test	 esi, esi
  00062	74 f5		 je	 SHORT $LN8@SerializeE
$LL7@SerializeE:

; 98   : 		{
; 99   : 			UINT nElementsToRead;
; 100  : 
; 101  : 			nElementsToRead = UINT(__min(nElementsLeft, INT_MAX/sizeof(TYPE)));

  00064	bf ff ff ff 1f	 mov	 edi, 536870911		; 1fffffffH
  00069	3b f7		 cmp	 esi, edi
  0006b	0f 42 fe	 cmovb	 edi, esi

; 102  : 			ar.EnsureRead(pData, nElementsToRead*sizeof(TYPE));

  0006e	8d 1c bd 00 00
	00 00		 lea	 ebx, DWORD PTR [edi*4]
; File C:\Program Files (x86)\Microsoft Visual Studio\2019\Community\VC\Tools\MSVC\14.29.30133\atlmfc\include\afx.inl

; 399  : 	UINT nRead=Read(lpBuf, nCount);

  00075	53		 push	 ebx
  00076	51		 push	 ecx
  00077	8b ca		 mov	 ecx, edx
  00079	e8 00 00 00 00	 call	 ?Read@CArchive@@QAEIPAXI@Z ; CArchive::Read

; 400  : 	if(nRead!=nCount)

  0007e	3b c3		 cmp	 eax, ebx
  00080	75 16		 jne	 SHORT $LN23@SerializeE
; File C:\Program Files (x86)\Microsoft Visual Studio\2019\Community\VC\Tools\MSVC\14.29.30133\atlmfc\include\afxtempl.h

; 97   : 		while( nElementsLeft > 0 )

  00082	8b 4d 0c	 mov	 ecx, DWORD PTR _pElements$[ebp]
  00085	8b 55 08	 mov	 edx, DWORD PTR _ar$[ebp]

; 103  : 			nElementsLeft -= nElementsToRead;
; 104  : 			pData += nElementsToRead;

  00088	03 cb		 add	 ecx, ebx
  0008a	89 4d 0c	 mov	 DWORD PTR _pElements$[ebp], ecx
  0008d	2b f7		 sub	 esi, edi
  0008f	75 d3		 jne	 SHORT $LL7@SerializeE

; 105  : 		}
; 106  : 	}
; 107  : }

  00091	5f		 pop	 edi
  00092	5e		 pop	 esi
  00093	5b		 pop	 ebx
  00094	5d		 pop	 ebp
  00095	c2 0c 00	 ret	 12			; 0000000cH
$LN23@SerializeE:
; File C:\Program Files (x86)\Microsoft Visual Studio\2019\Community\VC\Tools\MSVC\14.29.30133\atlmfc\include\afx.inl

; 402  : 		AfxThrowArchiveException(CArchiveException::endOfFile);

  00098	6a 00		 push	 0
  0009a	6a 03		 push	 3
  0009c	e8 00 00 00 00	 call	 ?AfxThrowArchiveException@@YGXHPBD@Z ; AfxThrowArchiveException
$LN34@SerializeE:
; File C:\Program Files (x86)\Microsoft Visual Studio\2019\Community\VC\Tools\MSVC\14.29.30133\atlmfc\include\afxtempl.h

; 68   : 	ENSURE(nCount == 0 || pElements != NULL);

  000a1	e8 00 00 00 00	 call	 ?AfxThrowInvalidArgException@@YGXXZ ; AfxThrowInvalidArgException
$LN32@SerializeE:
  000a6	cc		 int	 3
??$SerializeElements@PAVCHogaData@@@@YGXAAVCArchive@@PAPAVCHogaData@@H@Z ENDP ; SerializeElements<CHogaData *>
_TEXT	ENDS
; Function compile flags: /Ogtp
; File C:\Program Files (x86)\Microsoft Visual Studio\2019\Community\VC\Tools\MSVC\14.29.30133\atlmfc\include\afxtempl.h
; File C:\Program Files (x86)\Microsoft Visual Studio\2019\Community\VC\Tools\MSVC\14.29.30133\atlmfc\include\afx.inl
; File C:\Program Files (x86)\Microsoft Visual Studio\2019\Community\VC\Tools\MSVC\14.29.30133\atlmfc\include\afxtempl.h
; File C:\Program Files (x86)\Microsoft Visual Studio\2019\Community\VC\Tools\MSVC\14.29.30133\atlmfc\include\afx.inl
; File C:\Program Files (x86)\Microsoft Visual Studio\2019\Community\VC\Tools\MSVC\14.29.30133\atlmfc\include\afxtempl.h
; File C:\Program Files (x86)\Microsoft Visual Studio\2019\Community\VC\Tools\MSVC\14.29.30133\atlmfc\include\afx.inl
; File C:\Program Files (x86)\Microsoft Visual Studio\2019\Community\VC\Tools\MSVC\14.29.30133\atlmfc\include\afxtempl.h
;	COMDAT ??$SerializeElements@G@@YGXAAVCArchive@@PAGH@Z
_TEXT	SEGMENT
_ar$ = 8						; size = 4
_pElements$ = 12					; size = 4
_nCount$ = 16						; size = 4
??$SerializeElements@G@@YGXAAVCArchive@@PAGH@Z PROC	; SerializeElements<unsigned short>, COMDAT

; 67   : {

  00000	55		 push	 ebp
  00001	8b ec		 mov	 ebp, esp

; 68   : 	ENSURE(nCount == 0 || pElements != NULL);

  00003	8b 4d 0c	 mov	 ecx, DWORD PTR _pElements$[ebp]
  00006	53		 push	 ebx
  00007	56		 push	 esi
  00008	8b 75 10	 mov	 esi, DWORD PTR _nCount$[ebp]
  0000b	57		 push	 edi
  0000c	85 f6		 test	 esi, esi
  0000e	74 04		 je	 SHORT $LN2@SerializeE
  00010	85 c9		 test	 ecx, ecx
  00012	74 79		 je	 SHORT $LN34@SerializeE
$LN2@SerializeE:
; File C:\Program Files (x86)\Microsoft Visual Studio\2019\Community\VC\Tools\MSVC\14.29.30133\atlmfc\include\afx.inl

; 212  : 	{ return (m_nMode & CArchive::load) == 0; }

  00014	8b 55 08	 mov	 edx, DWORD PTR _ar$[ebp]
  00017	8b 42 18	 mov	 eax, DWORD PTR [edx+24]
  0001a	f7 d0		 not	 eax
  0001c	a8 01		 test	 al, 1
; File C:\Program Files (x86)\Microsoft Visual Studio\2019\Community\VC\Tools\MSVC\14.29.30133\atlmfc\include\afxtempl.h

; 73   : 	if (ar.IsStoring())

  0001e	74 30		 je	 SHORT $LN10@SerializeE

; 74   : 	{
; 75   : 		TYPE* pData;
; 76   : 		UINT_PTR nElementsLeft;
; 77   : 
; 78   : 		nElementsLeft = nCount;
; 79   : 		pData = pElements;
; 80   : 		while( nElementsLeft > 0 )

  00020	85 f6		 test	 esi, esi
  00022	74 25		 je	 SHORT $LN8@SerializeE
$LL5@SerializeE:

; 81   : 		{
; 82   : 			UINT nElementsToWrite;
; 83   : 
; 84   : 			nElementsToWrite = UINT(__min(nElementsLeft, INT_MAX/sizeof(TYPE)));

  00024	bb ff ff ff 3f	 mov	 ebx, 1073741823		; 3fffffffH
  00029	3b f3		 cmp	 esi, ebx
  0002b	0f 42 de	 cmovb	 ebx, esi

; 85   : 			ar.Write(pData, nElementsToWrite*sizeof(TYPE));

  0002e	8d 3c 1b	 lea	 edi, DWORD PTR [ebx+ebx]
  00031	57		 push	 edi
  00032	51		 push	 ecx
  00033	8b ca		 mov	 ecx, edx
  00035	e8 00 00 00 00	 call	 ?Write@CArchive@@QAEXPBXI@Z ; CArchive::Write

; 86   : 			nElementsLeft -= nElementsToWrite;
; 87   : 			pData += nElementsToWrite;

  0003a	8b 4d 0c	 mov	 ecx, DWORD PTR _pElements$[ebp]
  0003d	8b 55 08	 mov	 edx, DWORD PTR _ar$[ebp]
  00040	03 cf		 add	 ecx, edi
  00042	89 4d 0c	 mov	 DWORD PTR _pElements$[ebp], ecx
  00045	2b f3		 sub	 esi, ebx
  00047	75 db		 jne	 SHORT $LL5@SerializeE
$LN8@SerializeE:
  00049	5f		 pop	 edi

; 105  : 		}
; 106  : 	}
; 107  : }

  0004a	5e		 pop	 esi
  0004b	5b		 pop	 ebx
  0004c	5d		 pop	 ebp
  0004d	c2 0c 00	 ret	 12			; 0000000cH
$LN10@SerializeE:

; 97   : 		while( nElementsLeft > 0 )

  00050	85 f6		 test	 esi, esi
  00052	74 f5		 je	 SHORT $LN8@SerializeE
$LL7@SerializeE:

; 98   : 		{
; 99   : 			UINT nElementsToRead;
; 100  : 
; 101  : 			nElementsToRead = UINT(__min(nElementsLeft, INT_MAX/sizeof(TYPE)));

  00054	bf ff ff ff 3f	 mov	 edi, 1073741823		; 3fffffffH
  00059	3b f7		 cmp	 esi, edi
  0005b	0f 42 fe	 cmovb	 edi, esi

; 102  : 			ar.EnsureRead(pData, nElementsToRead*sizeof(TYPE));

  0005e	8d 1c 3f	 lea	 ebx, DWORD PTR [edi+edi]
; File C:\Program Files (x86)\Microsoft Visual Studio\2019\Community\VC\Tools\MSVC\14.29.30133\atlmfc\include\afx.inl

; 399  : 	UINT nRead=Read(lpBuf, nCount);

  00061	53		 push	 ebx
  00062	51		 push	 ecx
  00063	8b ca		 mov	 ecx, edx
  00065	e8 00 00 00 00	 call	 ?Read@CArchive@@QAEIPAXI@Z ; CArchive::Read

; 400  : 	if(nRead!=nCount)

  0006a	3b c3		 cmp	 eax, ebx
  0006c	75 16		 jne	 SHORT $LN23@SerializeE
; File C:\Program Files (x86)\Microsoft Visual Studio\2019\Community\VC\Tools\MSVC\14.29.30133\atlmfc\include\afxtempl.h

; 97   : 		while( nElementsLeft > 0 )

  0006e	8b 4d 0c	 mov	 ecx, DWORD PTR _pElements$[ebp]
  00071	8b 55 08	 mov	 edx, DWORD PTR _ar$[ebp]

; 103  : 			nElementsLeft -= nElementsToRead;
; 104  : 			pData += nElementsToRead;

  00074	03 cb		 add	 ecx, ebx
  00076	89 4d 0c	 mov	 DWORD PTR _pElements$[ebp], ecx
  00079	2b f7		 sub	 esi, edi
  0007b	75 d7		 jne	 SHORT $LL7@SerializeE

; 105  : 		}
; 106  : 	}
; 107  : }

  0007d	5f		 pop	 edi
  0007e	5e		 pop	 esi
  0007f	5b		 pop	 ebx
  00080	5d		 pop	 ebp
  00081	c2 0c 00	 ret	 12			; 0000000cH
$LN23@SerializeE:
; File C:\Program Files (x86)\Microsoft Visual Studio\2019\Community\VC\Tools\MSVC\14.29.30133\atlmfc\include\afx.inl

; 402  : 		AfxThrowArchiveException(CArchiveException::endOfFile);

  00084	6a 00		 push	 0
  00086	6a 03		 push	 3
  00088	e8 00 00 00 00	 call	 ?AfxThrowArchiveException@@YGXHPBD@Z ; AfxThrowArchiveException
$LN34@SerializeE:
; File C:\Program Files (x86)\Microsoft Visual Studio\2019\Community\VC\Tools\MSVC\14.29.30133\atlmfc\include\afxtempl.h

; 68   : 	ENSURE(nCount == 0 || pElements != NULL);

  0008d	e8 00 00 00 00	 call	 ?AfxThrowInvalidArgException@@YGXXZ ; AfxThrowInvalidArgException
$LN32@SerializeE:
  00092	cc		 int	 3
??$SerializeElements@G@@YGXAAVCArchive@@PAGH@Z ENDP	; SerializeElements<unsigned short>
_TEXT	ENDS
; Function compile flags: /Ogtp
; File C:\Program Files (x86)\Microsoft Visual Studio\2019\Community\VC\Tools\MSVC\14.29.30133\atlmfc\include\afxtempl.h
; File C:\Program Files (x86)\Microsoft Visual Studio\2019\Community\VC\Tools\MSVC\14.29.30133\atlmfc\include\afxwin1.inl
; File C:\Program Files (x86)\Microsoft Visual Studio\2019\Community\VC\Tools\MSVC\14.29.30133\atlmfc\include\afx.inl
;	COMDAT ??_GCFloatingHogaDlg@@UAEPAXI@Z
_TEXT	SEGMENT
___flags$ = 8						; size = 4
??_GCFloatingHogaDlg@@UAEPAXI@Z PROC			; CFloatingHogaDlg::`scalar deleting destructor', COMDAT
; _this$ = ecx
  00000	55		 push	 ebp
  00001	8b ec		 mov	 ebp, esp
; File C:\Program Files (x86)\Microsoft Visual Studio\2019\Community\VC\Tools\MSVC\14.29.30133\atlmfc\include\afxtempl.h

; 355  : {

  00003	56		 push	 esi
  00004	8b f1		 mov	 esi, ecx
  00006	8d 8e e0 05 00
	00		 lea	 ecx, DWORD PTR [esi+1504]
  0000c	e8 00 00 00 00	 call	 ??1CButton@@UAE@XZ	; CButton::~CButton
  00011	8d 8e a8 04 00
	00		 lea	 ecx, DWORD PTR [esi+1192]
  00017	e8 00 00 00 00	 call	 ??1CPowLabel@@UAE@XZ	; CPowLabel::~CPowLabel
  0001c	8d 8e 70 03 00
	00		 lea	 ecx, DWORD PTR [esi+880]
  00022	e8 00 00 00 00	 call	 ??1CPowLabel@@UAE@XZ	; CPowLabel::~CPowLabel
  00027	8d 8e 38 02 00
	00		 lea	 ecx, DWORD PTR [esi+568]
  0002d	e8 00 00 00 00	 call	 ??1CPowLabel@@UAE@XZ	; CPowLabel::~CPowLabel
  00032	8d 8e 0c 02 00
	00		 lea	 ecx, DWORD PTR [esi+524]
  00038	ff 15 00 00 00
	00		 call	 DWORD PTR __imp_??1?$CStringT@DV?$StrTraitMFC_DLL@DV?$ChTraitsCRT@D@ATL@@@@@ATL@@QAE@XZ
  0003e	8d 8e f8 01 00
	00		 lea	 ecx, DWORD PTR [esi+504]
  00044	ff 15 00 00 00
	00		 call	 DWORD PTR __imp_??1?$CStringT@DV?$StrTraitMFC_DLL@DV?$ChTraitsCRT@D@ATL@@@@@ATL@@QAE@XZ
  0004a	8d 8e f4 01 00
	00		 lea	 ecx, DWORD PTR [esi+500]
  00050	ff 15 00 00 00
	00		 call	 DWORD PTR __imp_??1?$CStringT@DV?$StrTraitMFC_DLL@DV?$ChTraitsCRT@D@ATL@@@@@ATL@@QAE@XZ
  00056	8d 8e e8 01 00
	00		 lea	 ecx, DWORD PTR [esi+488]
  0005c	ff 15 00 00 00
	00		 call	 DWORD PTR __imp_??1?$CStringT@DV?$StrTraitMFC_DLL@DV?$ChTraitsCRT@D@ATL@@@@@ATL@@QAE@XZ
  00062	8d 8e e4 01 00
	00		 lea	 ecx, DWORD PTR [esi+484]
  00068	ff 15 00 00 00
	00		 call	 DWORD PTR __imp_??1?$CStringT@DV?$StrTraitMFC_DLL@DV?$ChTraitsCRT@D@ATL@@@@@ATL@@QAE@XZ

; 356  : 	ASSERT_VALID(this);
; 357  : 
; 358  : 	if (m_pData != NULL)

  0006e	8b 86 8c 01 00
	00		 mov	 eax, DWORD PTR [esi+396]
  00074	c7 86 88 01 00
	00 00 00 00 00	 mov	 DWORD PTR [esi+392], OFFSET ??_7?$CArray@PAVCHogaData@@PAV1@@@6B@
  0007e	85 c0		 test	 eax, eax
  00080	74 13		 je	 SHORT $LN14@scalar

; 359  : 	{
; 360  : 		for( int i = 0; i < m_nSize; i++ )

  00082	83 be 90 01 00
	00 00		 cmp	 DWORD PTR [esi+400], 0
  00089	0f 4f c0	 cmovg	 eax, eax

; 361  : 			(m_pData + i)->~TYPE();
; 362  : 		delete[] (BYTE*)m_pData;

  0008c	50		 push	 eax
  0008d	e8 00 00 00 00	 call	 ??_V@YAXPAX@Z		; operator delete[]
  00092	83 c4 04	 add	 esp, 4
$LN14@scalar:
  00095	8d 8e 1c 01 00
	00		 lea	 ecx, DWORD PTR [esi+284]
; File C:\Program Files (x86)\Microsoft Visual Studio\2019\Community\VC\Tools\MSVC\14.29.30133\atlmfc\include\afxwin1.inl

; 155  : 	{ }

  0009b	c7 01 00 00 00
	00		 mov	 DWORD PTR [ecx], OFFSET ??_7CFont@@6B@
  000a1	e8 00 00 00 00	 call	 ??1CGdiObject@@UAE@XZ	; CGdiObject::~CGdiObject
  000a6	8d 8e c8 00 00
	00		 lea	 ecx, DWORD PTR [esi+200]
  000ac	ff 15 00 00 00
	00		 call	 DWORD PTR __imp_??1?$CStringT@DV?$StrTraitMFC_DLL@DV?$ChTraitsCRT@D@ATL@@@@@ATL@@QAE@XZ
  000b2	8d 8e c4 00 00
	00		 lea	 ecx, DWORD PTR [esi+196]
  000b8	ff 15 00 00 00
	00		 call	 DWORD PTR __imp_??1?$CStringT@DV?$StrTraitMFC_DLL@DV?$ChTraitsCRT@D@ATL@@@@@ATL@@QAE@XZ
  000be	8d 8e a8 00 00
	00		 lea	 ecx, DWORD PTR [esi+168]
  000c4	e8 00 00 00 00	 call	 ??1?$CMap@GGV?$CStringT@DV?$StrTraitMFC_DLL@DV?$ChTraitsCRT@D@ATL@@@@@ATL@@V12@@@UAE@XZ ; CMap<unsigned short,unsigned short,ATL::CStringT<char,StrTraitMFC_DLL<char,ATL::ChTraitsCRT<char> > >,ATL::CStringT<char,StrTraitMFC_DLL<char,ATL::ChTraitsCRT<char> > > >::~CMap<unsigned short,unsigned short,ATL::CStringT<char,StrTraitMFC_DLL<char,ATL::ChTraitsCRT<char> > >,ATL::CStringT<char,StrTraitMFC_DLL<char,ATL::ChTraitsCRT<char> > > >
  000c9	8b ce		 mov	 ecx, esi
  000cb	e8 00 00 00 00	 call	 ??1CDialog@@UAE@XZ	; CDialog::~CDialog
  000d0	8b 45 08	 mov	 eax, DWORD PTR ___flags$[ebp]
  000d3	a8 01		 test	 al, 1
  000d5	74 22		 je	 SHORT $LN29@scalar
  000d7	a8 04		 test	 al, 4
  000d9	75 10		 jne	 SHORT $LN3@scalar
; File C:\Program Files (x86)\Microsoft Visual Studio\2019\Community\VC\Tools\MSVC\14.29.30133\atlmfc\include\afx.inl

; 112  : 	{ ::operator delete(p); }

  000db	56		 push	 esi
  000dc	e8 00 00 00 00	 call	 ??3@YAXPAX@Z		; operator delete
  000e1	83 c4 04	 add	 esp, 4
  000e4	8b c6		 mov	 eax, esi
  000e6	5e		 pop	 esi
  000e7	5d		 pop	 ebp
  000e8	c2 04 00	 ret	 4
$LN3@scalar:
  000eb	68 68 06 00 00	 push	 1640			; 00000668H
  000f0	56		 push	 esi
  000f1	e8 00 00 00 00	 call	 ?__global_delete@@YAXPAXI@Z ; __global_delete
  000f6	83 c4 08	 add	 esp, 8
$LN29@scalar:
  000f9	8b c6		 mov	 eax, esi
  000fb	5e		 pop	 esi
  000fc	5d		 pop	 ebp
  000fd	c2 04 00	 ret	 4
??_GCFloatingHogaDlg@@UAEPAXI@Z ENDP			; CFloatingHogaDlg::`scalar deleting destructor'
_TEXT	ENDS
; Function compile flags: /Ogtp
; File D:\git\src\IBK\IBK_DRFN\ProjSrc\SrcDrfn\Chart\MULTICHART\FloatingHogaDlg.cpp
;	COMDAT ?RemoveExtra@CFloatingHogaDlg@@QAEXAAVCKBREAL_KXH1@@@Z
_TEXT	SEGMENT
_kbReal_KXH1$ = 8					; size = 4
?RemoveExtra@CFloatingHogaDlg@@QAEXAAVCKBREAL_KXH1@@@Z PROC ; CFloatingHogaDlg::RemoveExtra, COMDAT
; _this$ = ecx

; 2719 : {

  00000	55		 push	 ebp
  00001	8b ec		 mov	 ebp, esp
  00003	56		 push	 esi

; 2720 : 	kbReal_KXH1.m_szofferho1.Remove('-');

  00004	8b 75 08	 mov	 esi, DWORD PTR _kbReal_KXH1$[ebp]
  00007	6a 2d		 push	 45			; 0000002dH
  00009	8d 4e 08	 lea	 ecx, DWORD PTR [esi+8]
  0000c	ff 15 00 00 00
	00		 call	 DWORD PTR __imp_?Remove@?$CStringT@DV?$StrTraitMFC_DLL@DV?$ChTraitsCRT@D@ATL@@@@@ATL@@QAEHD@Z

; 2721 : 	kbReal_KXH1.m_szofferho2.Remove('-');

  00012	6a 2d		 push	 45			; 0000002dH
  00014	8d 4e 18	 lea	 ecx, DWORD PTR [esi+24]
  00017	ff 15 00 00 00
	00		 call	 DWORD PTR __imp_?Remove@?$CStringT@DV?$StrTraitMFC_DLL@DV?$ChTraitsCRT@D@ATL@@@@@ATL@@QAEHD@Z

; 2722 : 	kbReal_KXH1.m_szofferho3.Remove('-');

  0001d	6a 2d		 push	 45			; 0000002dH
  0001f	8d 4e 28	 lea	 ecx, DWORD PTR [esi+40]
  00022	ff 15 00 00 00
	00		 call	 DWORD PTR __imp_?Remove@?$CStringT@DV?$StrTraitMFC_DLL@DV?$ChTraitsCRT@D@ATL@@@@@ATL@@QAEHD@Z

; 2723 : 	kbReal_KXH1.m_szofferho4.Remove('-');

  00028	6a 2d		 push	 45			; 0000002dH
  0002a	8d 4e 38	 lea	 ecx, DWORD PTR [esi+56]
  0002d	ff 15 00 00 00
	00		 call	 DWORD PTR __imp_?Remove@?$CStringT@DV?$StrTraitMFC_DLL@DV?$ChTraitsCRT@D@ATL@@@@@ATL@@QAEHD@Z

; 2724 : 	kbReal_KXH1.m_szofferho5.Remove('-');

  00033	6a 2d		 push	 45			; 0000002dH
  00035	8d 4e 48	 lea	 ecx, DWORD PTR [esi+72]
  00038	ff 15 00 00 00
	00		 call	 DWORD PTR __imp_?Remove@?$CStringT@DV?$StrTraitMFC_DLL@DV?$ChTraitsCRT@D@ATL@@@@@ATL@@QAEHD@Z

; 2725 : 
; 2726 : 	kbReal_KXH1.m_szbidho1.Remove('-');

  0003e	6a 2d		 push	 45			; 0000002dH
  00040	8d 4e 0c	 lea	 ecx, DWORD PTR [esi+12]
  00043	ff 15 00 00 00
	00		 call	 DWORD PTR __imp_?Remove@?$CStringT@DV?$StrTraitMFC_DLL@DV?$ChTraitsCRT@D@ATL@@@@@ATL@@QAEHD@Z

; 2727 : 	kbReal_KXH1.m_szbidho2.Remove('-');

  00049	6a 2d		 push	 45			; 0000002dH
  0004b	8d 4e 1c	 lea	 ecx, DWORD PTR [esi+28]
  0004e	ff 15 00 00 00
	00		 call	 DWORD PTR __imp_?Remove@?$CStringT@DV?$StrTraitMFC_DLL@DV?$ChTraitsCRT@D@ATL@@@@@ATL@@QAEHD@Z

; 2728 : 	kbReal_KXH1.m_szbidho3.Remove('-');

  00054	6a 2d		 push	 45			; 0000002dH
  00056	8d 4e 2c	 lea	 ecx, DWORD PTR [esi+44]
  00059	ff 15 00 00 00
	00		 call	 DWORD PTR __imp_?Remove@?$CStringT@DV?$StrTraitMFC_DLL@DV?$ChTraitsCRT@D@ATL@@@@@ATL@@QAEHD@Z

; 2729 : 	kbReal_KXH1.m_szbidho4.Remove('-');

  0005f	6a 2d		 push	 45			; 0000002dH
  00061	8d 4e 3c	 lea	 ecx, DWORD PTR [esi+60]
  00064	ff 15 00 00 00
	00		 call	 DWORD PTR __imp_?Remove@?$CStringT@DV?$StrTraitMFC_DLL@DV?$ChTraitsCRT@D@ATL@@@@@ATL@@QAEHD@Z

; 2730 : 	kbReal_KXH1.m_szbidho5.Remove('-');

  0006a	6a 2d		 push	 45			; 0000002dH
  0006c	8d 4e 4c	 lea	 ecx, DWORD PTR [esi+76]
  0006f	ff 15 00 00 00
	00		 call	 DWORD PTR __imp_?Remove@?$CStringT@DV?$StrTraitMFC_DLL@DV?$ChTraitsCRT@D@ATL@@@@@ATL@@QAEHD@Z
  00075	5e		 pop	 esi

; 2731 : }

  00076	5d		 pop	 ebp
  00077	c2 04 00	 ret	 4
?RemoveExtra@CFloatingHogaDlg@@QAEXAAVCKBREAL_KXH1@@@Z ENDP ; CFloatingHogaDlg::RemoveExtra
_TEXT	ENDS
; Function compile flags: /Ogtp
; File D:\git\src\IBK\IBK_DRFN\ProjSrc\SrcDrfn\Chart\MULTICHART\FloatingHogaDlg.cpp
;	COMDAT ?OnCodeUnAdvise@CFloatingHogaDlg@@QAEXPBD@Z
_TEXT	SEGMENT
_strCode$ = 8						; size = 4
?OnCodeUnAdvise@CFloatingHogaDlg@@QAEXPBD@Z PROC	; CFloatingHogaDlg::OnCodeUnAdvise, COMDAT
; _this$ = ecx

; 2552 : {

  00000	55		 push	 ebp
  00001	8b ec		 mov	 ebp, esp
  00003	57		 push	 edi
  00004	8b f9		 mov	 edi, ecx

; 2553 : 	if(!m_pDrdsLib) return;

  00006	8b 97 60 06 00
	00		 mov	 edx, DWORD PTR [edi+1632]
  0000c	85 d2		 test	 edx, edx
  0000e	74 30		 je	 SHORT $LN1@OnCodeUnAd

; 2554 : 
; 2555 : 	int nKXH1RealType = 1;	// 1:
; 2556 : 	m_pDrdsLib->DrdsUnadvise(nKXH1RealType, "KXH1", "*", (LPSTR)strCode);

  00010	ff 75 08	 push	 DWORD PTR _strCode$[ebp]
  00013	8b 02		 mov	 eax, DWORD PTR [edx]
  00015	68 00 00 00 00	 push	 OFFSET ??_C@_01NBENCBCI@?$CK@
  0001a	68 00 00 00 00	 push	 OFFSET ??_C@_04KAJDJNDN@KXH1@
  0001f	6a 01		 push	 1
  00021	52		 push	 edx
  00022	ff 50 14	 call	 DWORD PTR [eax+20]

; 2557 : 	int nKXYSRealType = 23;	// 1:
; 2558 : 	m_pDrdsLib->DrdsUnadvise(nKXYSRealType, "KXYS", "*", (LPSTR)strCode);

  00025	ff 75 08	 push	 DWORD PTR _strCode$[ebp]
  00028	8b 87 60 06 00
	00		 mov	 eax, DWORD PTR [edi+1632]
  0002e	68 00 00 00 00	 push	 OFFSET ??_C@_01NBENCBCI@?$CK@
  00033	68 00 00 00 00	 push	 OFFSET ??_C@_04OKLMFNFP@KXYS@
  00038	6a 17		 push	 23			; 00000017H
  0003a	8b 08		 mov	 ecx, DWORD PTR [eax]
  0003c	50		 push	 eax
  0003d	ff 51 14	 call	 DWORD PTR [ecx+20]
$LN1@OnCodeUnAd:
  00040	5f		 pop	 edi

; 2559 : }

  00041	5d		 pop	 ebp
  00042	c2 04 00	 ret	 4
?OnCodeUnAdvise@CFloatingHogaDlg@@QAEXPBD@Z ENDP	; CFloatingHogaDlg::OnCodeUnAdvise
_TEXT	ENDS
; Function compile flags: /Ogtp
; File D:\git\src\IBK\IBK_DRFN\ProjSrc\SrcDrfn\Chart\MULTICHART\FloatingHogaDlg.cpp
;	COMDAT ?OnCodeAdvise@CFloatingHogaDlg@@QAEXPBD@Z
_TEXT	SEGMENT
_strCode$ = 8						; size = 4
?OnCodeAdvise@CFloatingHogaDlg@@QAEXPBD@Z PROC		; CFloatingHogaDlg::OnCodeAdvise, COMDAT
; _this$ = ecx

; 2542 : {

  00000	55		 push	 ebp
  00001	8b ec		 mov	 ebp, esp
  00003	57		 push	 edi
  00004	8b f9		 mov	 edi, ecx

; 2543 : 	if(!m_pDrdsLib) return;

  00006	8b 97 60 06 00
	00		 mov	 edx, DWORD PTR [edi+1632]
  0000c	85 d2		 test	 edx, edx
  0000e	74 30		 je	 SHORT $LN1@OnCodeAdvi

; 2544 : 
; 2545 : 	int nKXH1RealType = 1;	// 1:
; 2546 : 	m_pDrdsLib->DrdsAdvise(nKXH1RealType, "KXH1", "*", (LPSTR)strCode);

  00010	ff 75 08	 push	 DWORD PTR _strCode$[ebp]
  00013	8b 02		 mov	 eax, DWORD PTR [edx]
  00015	68 00 00 00 00	 push	 OFFSET ??_C@_01NBENCBCI@?$CK@
  0001a	68 00 00 00 00	 push	 OFFSET ??_C@_04KAJDJNDN@KXH1@
  0001f	6a 01		 push	 1
  00021	52		 push	 edx
  00022	ff 50 10	 call	 DWORD PTR [eax+16]

; 2547 : 	int nKXYSRealType = 23;	// 1:
; 2548 : 	m_pDrdsLib->DrdsAdvise(nKXYSRealType, "KXYS", "*", (LPSTR)strCode);

  00025	ff 75 08	 push	 DWORD PTR _strCode$[ebp]
  00028	8b 87 60 06 00
	00		 mov	 eax, DWORD PTR [edi+1632]
  0002e	68 00 00 00 00	 push	 OFFSET ??_C@_01NBENCBCI@?$CK@
  00033	68 00 00 00 00	 push	 OFFSET ??_C@_04OKLMFNFP@KXYS@
  00038	6a 17		 push	 23			; 00000017H
  0003a	8b 08		 mov	 ecx, DWORD PTR [eax]
  0003c	50		 push	 eax
  0003d	ff 51 10	 call	 DWORD PTR [ecx+16]
$LN1@OnCodeAdvi:
  00040	5f		 pop	 edi

; 2549 : }

  00041	5d		 pop	 ebp
  00042	c2 04 00	 ret	 4
?OnCodeAdvise@CFloatingHogaDlg@@QAEXPBD@Z ENDP		; CFloatingHogaDlg::OnCodeAdvise
_TEXT	ENDS
; Function compile flags: /Ogtp
; File D:\git\src\IBK\IBK_DRFN\ProjSrc\SrcDrfn\Chart\MULTICHART\FloatingHogaDlg.cpp
; File C:\Program Files (x86)\Microsoft Visual Studio\2019\Community\VC\Tools\MSVC\14.29.30133\atlmfc\include\atlsimpstr.h
; File D:\git\src\IBK\IBK_DRFN\ProjSrc\SrcDrfn\Chart\MULTICHART\FloatingHogaDlg.cpp
;	COMDAT ?MakeDrdsUnConnectUnAdvise@CFloatingHogaDlg@@QAEHXZ
_TEXT	SEGMENT
?MakeDrdsUnConnectUnAdvise@CFloatingHogaDlg@@QAEHXZ PROC ; CFloatingHogaDlg::MakeDrdsUnConnectUnAdvise, COMDAT
; _this$ = ecx

; 2526 : {

  00000	56		 push	 esi
  00001	8b f1		 mov	 esi, ecx

; 2527 : 	if(!m_pDrdsLib) return FALSE;

  00003	8b 8e 60 06 00
	00		 mov	 ecx, DWORD PTR [esi+1632]
  00009	85 c9		 test	 ecx, ecx
  0000b	74 62		 je	 SHORT $LN15@MakeDrdsUn
; File C:\Program Files (x86)\Microsoft Visual Studio\2019\Community\VC\Tools\MSVC\14.29.30133\atlmfc\include\atlsimpstr.h

; 519  : 		return( GetData()->nDataLength );

  0000d	57		 push	 edi
  0000e	8b be c4 00 00
	00		 mov	 edi, DWORD PTR [esi+196]
; File D:\git\src\IBK\IBK_DRFN\ProjSrc\SrcDrfn\Chart\MULTICHART\FloatingHogaDlg.cpp

; 2529 : 	if(m_strCode.GetLength()>0)

  00014	83 7f f4 00	 cmp	 DWORD PTR [edi-12], 0
  00018	7e 2c		 jle	 SHORT $LN12@MakeDrdsUn

; 2556 : 	m_pDrdsLib->DrdsUnadvise(nKXH1RealType, "KXH1", "*", (LPSTR)strCode);

  0001a	8b 01		 mov	 eax, DWORD PTR [ecx]
  0001c	57		 push	 edi
  0001d	68 00 00 00 00	 push	 OFFSET ??_C@_01NBENCBCI@?$CK@
  00022	68 00 00 00 00	 push	 OFFSET ??_C@_04KAJDJNDN@KXH1@
  00027	6a 01		 push	 1
  00029	51		 push	 ecx
  0002a	ff 50 14	 call	 DWORD PTR [eax+20]

; 2557 : 	int nKXYSRealType = 23;	// 1:
; 2558 : 	m_pDrdsLib->DrdsUnadvise(nKXYSRealType, "KXYS", "*", (LPSTR)strCode);

  0002d	8b 86 60 06 00
	00		 mov	 eax, DWORD PTR [esi+1632]
  00033	57		 push	 edi
  00034	68 00 00 00 00	 push	 OFFSET ??_C@_01NBENCBCI@?$CK@
  00039	68 00 00 00 00	 push	 OFFSET ??_C@_04OKLMFNFP@KXYS@
  0003e	8b 08		 mov	 ecx, DWORD PTR [eax]
  00040	6a 17		 push	 23			; 00000017H
  00042	50		 push	 eax
  00043	ff 51 14	 call	 DWORD PTR [ecx+20]
$LN12@MakeDrdsUn:

; 2530 : 		OnCodeUnAdvise(m_strCode);	// Old Code
; 2531 : 
; 2532 : 	IAUDrdsManager* pDrdsMng = (IAUDrdsManager*)AfxGetPctrInterface(UUID_IAUDrdsManager);

  00046	6a 13		 push	 19			; 00000013H
  00048	e8 00 00 00 00	 call	 ?AfxGetPctrInterface@@YGJH@Z ; AfxGetPctrInterface
  0004d	5f		 pop	 edi

; 2533 : 	if(!pDrdsMng) return FALSE;

  0004e	85 c0		 test	 eax, eax
  00050	74 1d		 je	 SHORT $LN15@MakeDrdsUn

; 2534 : 
; 2535 : 	pDrdsMng->UnadviseDrdsLib(m_pDrdsLib);

  00052	ff b6 60 06 00
	00		 push	 DWORD PTR [esi+1632]
  00058	8b 08		 mov	 ecx, DWORD PTR [eax]
  0005a	50		 push	 eax
  0005b	ff 51 04	 call	 DWORD PTR [ecx+4]

; 2536 : 	m_pDrdsLib = NULL;

  0005e	c7 86 60 06 00
	00 00 00 00 00	 mov	 DWORD PTR [esi+1632], 0

; 2537 : 
; 2538 : 	return TRUE;

  00068	b8 01 00 00 00	 mov	 eax, 1
  0006d	5e		 pop	 esi

; 2539 : }

  0006e	c3		 ret	 0
$LN15@MakeDrdsUn:

; 2533 : 	if(!pDrdsMng) return FALSE;

  0006f	33 c0		 xor	 eax, eax
  00071	5e		 pop	 esi

; 2539 : }

  00072	c3		 ret	 0
?MakeDrdsUnConnectUnAdvise@CFloatingHogaDlg@@QAEHXZ ENDP ; CFloatingHogaDlg::MakeDrdsUnConnectUnAdvise
_TEXT	ENDS
; Function compile flags: /Ogtp
; File D:\git\src\IBK\IBK_DRFN\ProjSrc\SrcDrfn\Chart\MULTICHART\FloatingHogaDlg.cpp
;	COMDAT ?MakeDrdsConnectAdvise@CFloatingHogaDlg@@QAEHXZ
_TEXT	SEGMENT
?MakeDrdsConnectAdvise@CFloatingHogaDlg@@QAEHXZ PROC	; CFloatingHogaDlg::MakeDrdsConnectAdvise, COMDAT
; _this$ = ecx

; 2513 : {

  00000	56		 push	 esi

; 2514 : 	IAUDrdsManager* pDrdsMng = (IAUDrdsManager*)AfxGetPctrInterface(UUID_IAUDrdsManager);

  00001	6a 13		 push	 19			; 00000013H
  00003	8b f1		 mov	 esi, ecx
  00005	e8 00 00 00 00	 call	 ?AfxGetPctrInterface@@YGJH@Z ; AfxGetPctrInterface

; 2515 : 	if(!pDrdsMng) return FALSE;

  0000a	85 c0		 test	 eax, eax
  0000c	74 1e		 je	 SHORT $LN5@MakeDrdsCo

; 2516 : 
; 2517 : 	m_pDrdsLib = pDrdsMng->AdviseDrdsLib();

  0000e	8b 10		 mov	 edx, DWORD PTR [eax]
  00010	50		 push	 eax
  00011	ff 12		 call	 DWORD PTR [edx]
  00013	89 86 60 06 00
	00		 mov	 DWORD PTR [esi+1632], eax

; 2518 : 	if(!m_pDrdsLib) return FALSE;

  00019	85 c0		 test	 eax, eax
  0001b	74 0f		 je	 SHORT $LN5@MakeDrdsCo

; 2519 : 
; 2520 : 	m_pDrdsLib->DrdsInit(m_hWnd);

  0001d	ff 76 20	 push	 DWORD PTR [esi+32]
  00020	8b 08		 mov	 ecx, DWORD PTR [eax]
  00022	50		 push	 eax
  00023	ff 11		 call	 DWORD PTR [ecx]

; 2521 : 
; 2522 : 	return TRUE;

  00025	b8 01 00 00 00	 mov	 eax, 1
  0002a	5e		 pop	 esi

; 2523 : }

  0002b	c3		 ret	 0
$LN5@MakeDrdsCo:

; 2518 : 	if(!m_pDrdsLib) return FALSE;

  0002c	33 c0		 xor	 eax, eax
  0002e	5e		 pop	 esi

; 2523 : }

  0002f	c3		 ret	 0
?MakeDrdsConnectAdvise@CFloatingHogaDlg@@QAEHXZ ENDP	; CFloatingHogaDlg::MakeDrdsConnectAdvise
_TEXT	ENDS
; Function compile flags: /Ogtp
; File D:\git\src\IBK\IBK_DRFN\ProjSrc\SrcDrfn\Chart\MULTICHART\FloatingHogaDlg.cpp
;	COMDAT ?GetMessageMap@CFloatingHogaDlg@@MBEPBUAFX_MSGMAP@@XZ
_TEXT	SEGMENT
?GetMessageMap@CFloatingHogaDlg@@MBEPBUAFX_MSGMAP@@XZ PROC ; CFloatingHogaDlg::GetMessageMap, COMDAT
; _this$ = ecx

; 101  : BEGIN_MESSAGE_MAP(CFloatingHogaDlg, CRscDlg)

  00000	b8 00 00 00 00	 mov	 eax, OFFSET ?messageMap@?1??GetThisMessageMap@CFloatingHogaDlg@@KGPBUAFX_MSGMAP@@XZ@4U3@B
  00005	c3		 ret	 0
?GetMessageMap@CFloatingHogaDlg@@MBEPBUAFX_MSGMAP@@XZ ENDP ; CFloatingHogaDlg::GetMessageMap
_TEXT	ENDS
; Function compile flags: /Ogtp
; File D:\git\src\IBK\IBK_DRFN\ProjSrc\SrcDrfn\Chart\MULTICHART\FloatingHogaDlg.cpp
;	COMDAT ?GetThisMessageMap@CFloatingHogaDlg@@KGPBUAFX_MSGMAP@@XZ
_TEXT	SEGMENT
?GetThisMessageMap@CFloatingHogaDlg@@KGPBUAFX_MSGMAP@@XZ PROC ; CFloatingHogaDlg::GetThisMessageMap, COMDAT

; 102  : 	//{{AFX_MSG_MAP(CFloatingHogaDlg)
; 103  : 	ON_WM_LBUTTONDOWN()	
; 104  : 	ON_WM_SIZE()
; 105  : 	ON_WM_LBUTTONDBLCLK()
; 106  : 	ON_WM_LBUTTONUP()
; 107  : 	ON_WM_MOUSEMOVE()
; 108  : 	ON_WM_DESTROY()
; 109  : 	ON_WM_SETCURSOR()
; 110  : 	ON_WM_PAINT()
; 111  : 	ON_BN_CLICKED(IDC_BUTTON_CLOSE, OnButtonClose)
; 112  : //@solomon	20091113	-->>
; 113  : //	ON_BN_CLICKED(IDC_BUTTON_SELL, OnButtonSell)
; 114  : //	ON_BN_CLICKED(IDC_BUTTON_BUY, OnButtonBuy)
; 115  : //@solomon	20091113	<<--
; 116  : 	ON_WM_ERASEBKGND()
; 117  : 	ON_WM_NCHITTEST()
; 118  : 	//}}AFX_MSG_MAP	
; 119  : END_MESSAGE_MAP()

  00000	b8 00 00 00 00	 mov	 eax, OFFSET ?messageMap@?1??GetThisMessageMap@CFloatingHogaDlg@@KGPBUAFX_MSGMAP@@XZ@4U3@B
  00005	c3		 ret	 0
?GetThisMessageMap@CFloatingHogaDlg@@KGPBUAFX_MSGMAP@@XZ ENDP ; CFloatingHogaDlg::GetThisMessageMap
_TEXT	ENDS
; Function compile flags: /Ogtp
; File D:\git\src\IBK\IBK_DRFN\ProjSrc\SrcDrfn\Chart\MULTICHART\FloatingHogaDlg.cpp
; File C:\Program Files (x86)\Microsoft Visual Studio\2019\Community\VC\Tools\MSVC\14.29.30133\atlmfc\include\afxwin2.inl
; File D:\git\src\IBK\IBK_DRFN\ProjSrc\SrcDrfn\Chart\MULTICHART\FloatingHogaDlg.cpp
;	COMDAT ?OnNcHitTest@CFloatingHogaDlg@@IAEJVCPoint@@@Z
_TEXT	SEGMENT
_point$ = 8						; size = 8
?OnNcHitTest@CFloatingHogaDlg@@IAEJVCPoint@@@Z PROC	; CFloatingHogaDlg::OnNcHitTest, COMDAT
; _this$ = ecx
; File C:\Program Files (x86)\Microsoft Visual Studio\2019\Community\VC\Tools\MSVC\14.29.30133\atlmfc\include\afxwin2.inl

; 350  : 	{ return Default(); }

  00000	e8 00 00 00 00	 call	 ?Default@CWnd@@IAEJXZ	; CWnd::Default
; File D:\git\src\IBK\IBK_DRFN\ProjSrc\SrcDrfn\Chart\MULTICHART\FloatingHogaDlg.cpp

; 2877 : }

  00005	c2 08 00	 ret	 8
?OnNcHitTest@CFloatingHogaDlg@@IAEJVCPoint@@@Z ENDP	; CFloatingHogaDlg::OnNcHitTest
_TEXT	ENDS
; Function compile flags: /Ogtp
; File D:\git\src\IBK\IBK_DRFN\ProjSrc\SrcDrfn\Chart\MULTICHART\FloatingHogaDlg.cpp
;	COMDAT ?OnEraseBkgnd@CFloatingHogaDlg@@IAEHPAVCDC@@@Z
_TEXT	SEGMENT
_pDC$ = 8						; size = 4
?OnEraseBkgnd@CFloatingHogaDlg@@IAEHPAVCDC@@@Z PROC	; CFloatingHogaDlg::OnEraseBkgnd, COMDAT
; _this$ = ecx

; 2508 : 	return TRUE;

  00000	b8 01 00 00 00	 mov	 eax, 1

; 2509 : }

  00005	c2 04 00	 ret	 4
?OnEraseBkgnd@CFloatingHogaDlg@@IAEHPAVCDC@@@Z ENDP	; CFloatingHogaDlg::OnEraseBkgnd
_TEXT	ENDS
; Function compile flags: /Ogtp
; File D:\git\src\IBK\IBK_DRFN\ProjSrc\SrcDrfn\Chart\MULTICHART\FloatingHogaDlg.cpp
; File C:\Program Files (x86)\Microsoft Visual Studio\2019\Community\VC\Tools\MSVC\14.29.30133\atlmfc\include\afxwin2.inl
; File C:\Program Files (x86)\Microsoft Visual Studio\2019\Community\VC\Tools\MSVC\14.29.30133\atlmfc\include\atltypes.h
; File C:\Program Files (x86)\Microsoft Visual Studio\2019\Community\VC\Tools\MSVC\14.29.30133\atlmfc\include\afxwin2.inl
; File D:\git\src\IBK\IBK_DRFN\ProjSrc\SrcDrfn\Chart\MULTICHART\FloatingHogaDlg.cpp
; File C:\Program Files (x86)\Microsoft Visual Studio\2019\Community\VC\Tools\MSVC\14.29.30133\atlmfc\include\afxwin2.inl
; File D:\git\src\IBK\IBK_DRFN\ProjSrc\SrcDrfn\Chart\MULTICHART\FloatingHogaDlg.cpp
; File C:\Program Files (x86)\Microsoft Visual Studio\2019\Community\VC\Tools\MSVC\14.29.30133\atlmfc\include\afxwin2.inl
; File D:\git\src\IBK\IBK_DRFN\ProjSrc\SrcDrfn\Chart\MULTICHART\FloatingHogaDlg.cpp
; File C:\Program Files (x86)\Microsoft Visual Studio\2019\Community\VC\Tools\MSVC\14.29.30133\atlmfc\include\atlsimpstr.h
; File D:\git\src\IBK\IBK_DRFN\ProjSrc\SrcDrfn\Chart\MULTICHART\FloatingHogaDlg.cpp
;	COMDAT ?OnButtonClose@CFloatingHogaDlg@@IAEXXZ
_TEXT	SEGMENT
_dlgRect$ = -20						; size = 16
__$ArrayPad$ = -4					; size = 4
?OnButtonClose@CFloatingHogaDlg@@IAEXXZ PROC		; CFloatingHogaDlg::OnButtonClose, COMDAT
; _this$ = ecx

; 2451 : {

  00000	55		 push	 ebp
  00001	8b ec		 mov	 ebp, esp
  00003	83 ec 14	 sub	 esp, 20			; 00000014H
  00006	a1 00 00 00 00	 mov	 eax, DWORD PTR ___security_cookie
  0000b	33 c5		 xor	 eax, ebp
  0000d	89 45 fc	 mov	 DWORD PTR __$ArrayPad$[ebp], eax
  00010	56		 push	 esi
  00011	8b f1		 mov	 esi, ecx
; File C:\Program Files (x86)\Microsoft Visual Studio\2019\Community\VC\Tools\MSVC\14.29.30133\atlmfc\include\afxwin2.inl

; 84   : 	{ ASSERT(::IsWindow(m_hWnd)); ::GetWindowRect(m_hWnd, lpRect); }

  00013	8d 45 ec	 lea	 eax, DWORD PTR _dlgRect$[ebp]
  00016	50		 push	 eax
  00017	0f 57 c0	 xorps	 xmm0, xmm0
; File C:\Program Files (x86)\Microsoft Visual Studio\2019\Community\VC\Tools\MSVC\14.29.30133\atlmfc\include\atltypes.h

; 540  : 	left = l;

  0001a	0f 11 45 ec	 movups	 XMMWORD PTR _dlgRect$[ebp], xmm0
; File C:\Program Files (x86)\Microsoft Visual Studio\2019\Community\VC\Tools\MSVC\14.29.30133\atlmfc\include\afxwin2.inl

; 84   : 	{ ASSERT(::IsWindow(m_hWnd)); ::GetWindowRect(m_hWnd, lpRect); }

  0001e	ff b6 90 03 00
	00		 push	 DWORD PTR [esi+912]
  00024	ff 15 00 00 00
	00		 call	 DWORD PTR __imp__GetWindowRect@8
; File D:\git\src\IBK\IBK_DRFN\ProjSrc\SrcDrfn\Chart\MULTICHART\FloatingHogaDlg.cpp

; 2456 : 	m_bIconState = !m_bIconState;

  0002a	8b 8e 1c 02 00
	00		 mov	 ecx, DWORD PTR [esi+540]
  00030	33 c0		 xor	 eax, eax

; 2457 : 		
; 2458 : 	if(m_pMainDlg)

  00032	8b 96 34 02 00
	00		 mov	 edx, DWORD PTR [esi+564]
  00038	85 c9		 test	 ecx, ecx
  0003a	0f 94 c0	 sete	 al
  0003d	89 86 1c 02 00
	00		 mov	 DWORD PTR [esi+540], eax
  00043	85 d2		 test	 edx, edx
  00045	74 20		 je	 SHORT $LN2@OnButtonCl
; File C:\Program Files (x86)\Microsoft Visual Studio\2019\Community\VC\Tools\MSVC\14.29.30133\atlmfc\include\afxwin2.inl

; 32   : 	{ ASSERT(::IsWindow(m_hWnd)); return ::SendMessage(m_hWnd, message, wParam, lParam); }

  00047	8d 45 ec	 lea	 eax, DWORD PTR _dlgRect$[ebp]
  0004a	50		 push	 eax
; File D:\git\src\IBK\IBK_DRFN\ProjSrc\SrcDrfn\Chart\MULTICHART\FloatingHogaDlg.cpp

; 2459 : 		m_pMainDlg->SendMessage(USMG_PLEASE_RESIZE, m_bIconState ? 1 : 0, (LPARAM)&dlgRect);

  0004b	33 c0		 xor	 eax, eax
  0004d	85 c9		 test	 ecx, ecx
  0004f	0f 94 c0	 sete	 al
; File C:\Program Files (x86)\Microsoft Visual Studio\2019\Community\VC\Tools\MSVC\14.29.30133\atlmfc\include\afxwin2.inl

; 32   : 	{ ASSERT(::IsWindow(m_hWnd)); return ::SendMessage(m_hWnd, message, wParam, lParam); }

  00052	50		 push	 eax
  00053	68 96 04 00 00	 push	 1174			; 00000496H
  00058	ff 72 20	 push	 DWORD PTR [edx+32]
  0005b	ff 15 00 00 00
	00		 call	 DWORD PTR __imp__SendMessageA@16
  00061	8b 86 1c 02 00
	00		 mov	 eax, DWORD PTR [esi+540]
$LN2@OnButtonCl:
; File D:\git\src\IBK\IBK_DRFN\ProjSrc\SrcDrfn\Chart\MULTICHART\FloatingHogaDlg.cpp

; 2461 : 	if(m_bIconState && m_strCode.GetLength()>0)

  00067	85 c0		 test	 eax, eax
  00069	74 44		 je	 SHORT $LN17@OnButtonCl
; File C:\Program Files (x86)\Microsoft Visual Studio\2019\Community\VC\Tools\MSVC\14.29.30133\atlmfc\include\atlsimpstr.h

; 519  : 		return( GetData()->nDataLength );

  0006b	57		 push	 edi
  0006c	8b be c4 00 00
	00		 mov	 edi, DWORD PTR [esi+196]
; File D:\git\src\IBK\IBK_DRFN\ProjSrc\SrcDrfn\Chart\MULTICHART\FloatingHogaDlg.cpp

; 2461 : 	if(m_bIconState && m_strCode.GetLength()>0)

  00072	83 7f f4 00	 cmp	 DWORD PTR [edi-12], 0
  00076	7e 36		 jle	 SHORT $LN31@OnButtonCl

; 2553 : 	if(!m_pDrdsLib) return;

  00078	8b 8e 60 06 00
	00		 mov	 ecx, DWORD PTR [esi+1632]
  0007e	85 c9		 test	 ecx, ecx
  00080	74 2c		 je	 SHORT $LN31@OnButtonCl

; 2554 : 
; 2555 : 	int nKXH1RealType = 1;	// 1:
; 2556 : 	m_pDrdsLib->DrdsUnadvise(nKXH1RealType, "KXH1", "*", (LPSTR)strCode);

  00082	8b 01		 mov	 eax, DWORD PTR [ecx]
  00084	57		 push	 edi
  00085	68 00 00 00 00	 push	 OFFSET ??_C@_01NBENCBCI@?$CK@
  0008a	68 00 00 00 00	 push	 OFFSET ??_C@_04KAJDJNDN@KXH1@
  0008f	6a 01		 push	 1
  00091	51		 push	 ecx
  00092	ff 50 14	 call	 DWORD PTR [eax+20]

; 2557 : 	int nKXYSRealType = 23;	// 1:
; 2558 : 	m_pDrdsLib->DrdsUnadvise(nKXYSRealType, "KXYS", "*", (LPSTR)strCode);

  00095	8b 86 60 06 00
	00		 mov	 eax, DWORD PTR [esi+1632]
  0009b	57		 push	 edi
  0009c	68 00 00 00 00	 push	 OFFSET ??_C@_01NBENCBCI@?$CK@
  000a1	68 00 00 00 00	 push	 OFFSET ??_C@_04OKLMFNFP@KXYS@
  000a6	8b 08		 mov	 ecx, DWORD PTR [eax]
  000a8	6a 17		 push	 23			; 00000017H
  000aa	50		 push	 eax
  000ab	ff 51 14	 call	 DWORD PTR [ecx+20]
$LN31@OnButtonCl:
  000ae	5f		 pop	 edi
$LN17@OnButtonCl:

; 2462 : 		OnCodeUnAdvise(m_strCode);	// Old Code
; 2463 : }

  000af	8b 4d fc	 mov	 ecx, DWORD PTR __$ArrayPad$[ebp]
  000b2	33 cd		 xor	 ecx, ebp
  000b4	5e		 pop	 esi
  000b5	e8 00 00 00 00	 call	 @__security_check_cookie@4
  000ba	8b e5		 mov	 esp, ebp
  000bc	5d		 pop	 ebp
  000bd	c3		 ret	 0
?OnButtonClose@CFloatingHogaDlg@@IAEXXZ ENDP		; CFloatingHogaDlg::OnButtonClose
_TEXT	ENDS
; Function compile flags: /Ogtp
; File D:\git\src\IBK\IBK_DRFN\ProjSrc\SrcDrfn\Chart\MULTICHART\FloatingHogaDlg.cpp
; File C:\Program Files (x86)\Microsoft Visual Studio\2019\Community\VC\Tools\MSVC\14.29.30133\atlmfc\include\afxwin2.inl
; File D:\git\src\IBK\IBK_DRFN\ProjSrc\SrcDrfn\Chart\MULTICHART\FloatingHogaDlg.cpp
; File C:\Program Files (x86)\Microsoft Visual Studio\2019\Community\VC\Tools\MSVC\14.29.30133\atlmfc\include\afxwin2.inl
; File C:\Program Files (x86)\Microsoft Visual Studio\2019\Community\VC\Tools\MSVC\14.29.30133\atlmfc\include\atltypes.h
; File C:\Program Files (x86)\Microsoft Visual Studio\2019\Community\VC\Tools\MSVC\14.29.30133\atlmfc\include\afxwin2.inl
; File D:\git\src\IBK\IBK_DRFN\ProjSrc\SrcDrfn\Chart\MULTICHART\FloatingHogaDlg.cpp
; File C:\Program Files (x86)\Microsoft Visual Studio\2019\Community\VC\Tools\MSVC\14.29.30133\atlmfc\include\afxwin1.inl
; File D:\git\src\IBK\IBK_DRFN\ProjSrc\SrcDrfn\Chart\MULTICHART\FloatingHogaDlg.cpp
; File C:\Program Files (x86)\Microsoft Visual Studio\2019\Community\VC\Tools\MSVC\14.29.30133\atlmfc\include\afxwin1.inl
; File C:\Program Files (x86)\Microsoft Visual Studio\2019\Community\VC\Tools\MSVC\14.29.30133\atlmfc\include\atltypes.h
; File C:\Program Files (x86)\Microsoft Visual Studio\2019\Community\VC\Tools\MSVC\14.29.30133\atlmfc\include\afxwin1.inl
; File D:\git\src\IBK\IBK_DRFN\ProjSrc\SrcDrfn\Chart\MULTICHART\FloatingHogaDlg.cpp
; File C:\Program Files (x86)\Microsoft Visual Studio\2019\Community\VC\Tools\MSVC\14.29.30133\atlmfc\include\atltypes.h
; File C:\Program Files (x86)\Microsoft Visual Studio\2019\Community\VC\Tools\MSVC\14.29.30133\atlmfc\include\afxwin1.inl
; File D:\git\src\IBK\IBK_DRFN\ProjSrc\SrcDrfn\Chart\MULTICHART\FloatingHogaDlg.cpp
; File C:\Program Files (x86)\Microsoft Visual Studio\2019\Community\VC\Tools\MSVC\14.29.30133\atlmfc\include\afxwin1.inl
; File D:\git\src\IBK\IBK_DRFN\ProjSrc\SrcDrfn\Chart\MULTICHART\FloatingHogaDlg.cpp
;	COMDAT ?OnPaint@CFloatingHogaDlg@@IAEXXZ
_TEXT	SEGMENT
_memDC$ = -140						; size = 16
_bitmap$ = -124						; size = 8
_dc$ = -116						; size = 84
_rcClient$ = -32					; size = 16
__$ArrayPad$ = -16					; size = 4
__$EHRec$ = -12						; size = 12
?OnPaint@CFloatingHogaDlg@@IAEXXZ PROC			; CFloatingHogaDlg::OnPaint, COMDAT
; _this$ = ecx

; 2336 : {

  00000	55		 push	 ebp
  00001	8b ec		 mov	 ebp, esp
  00003	6a ff		 push	 -1
  00005	68 00 00 00 00	 push	 __ehhandler$?OnPaint@CFloatingHogaDlg@@IAEXXZ
  0000a	64 a1 00 00 00
	00		 mov	 eax, DWORD PTR fs:0
  00010	50		 push	 eax
  00011	81 ec 80 00 00
	00		 sub	 esp, 128		; 00000080H
  00017	a1 00 00 00 00	 mov	 eax, DWORD PTR ___security_cookie
  0001c	33 c5		 xor	 eax, ebp
  0001e	89 45 f0	 mov	 DWORD PTR __$ArrayPad$[ebp], eax
  00021	56		 push	 esi
  00022	57		 push	 edi
  00023	50		 push	 eax
  00024	8d 45 f4	 lea	 eax, DWORD PTR __$EHRec$[ebp]
  00027	64 a3 00 00 00
	00		 mov	 DWORD PTR fs:0, eax
  0002d	8b f1		 mov	 esi, ecx

; 2337 : 	CPaintDC dc(this); // device context for painting

  0002f	56		 push	 esi
  00030	8d 4d 8c	 lea	 ecx, DWORD PTR _dc$[ebp]
  00033	e8 00 00 00 00	 call	 ??0CPaintDC@@QAE@PAVCWnd@@@Z ; CPaintDC::CPaintDC
; File C:\Program Files (x86)\Microsoft Visual Studio\2019\Community\VC\Tools\MSVC\14.29.30133\atlmfc\include\afxwin2.inl

; 86   : 	{ ASSERT(::IsWindow(m_hWnd)); ::GetClientRect(m_hWnd, lpRect); }

  00038	8d 45 e0	 lea	 eax, DWORD PTR _rcClient$[ebp]
; File D:\git\src\IBK\IBK_DRFN\ProjSrc\SrcDrfn\Chart\MULTICHART\FloatingHogaDlg.cpp

; 2337 : 	CPaintDC dc(this); // device context for painting

  0003b	c7 45 fc 00 00
	00 00		 mov	 DWORD PTR __$EHRec$[ebp+8], 0
; File C:\Program Files (x86)\Microsoft Visual Studio\2019\Community\VC\Tools\MSVC\14.29.30133\atlmfc\include\afxwin2.inl

; 86   : 	{ ASSERT(::IsWindow(m_hWnd)); ::GetClientRect(m_hWnd, lpRect); }

  00042	50		 push	 eax
  00043	ff 76 20	 push	 DWORD PTR [esi+32]
  00046	0f 57 c0	 xorps	 xmm0, xmm0
; File C:\Program Files (x86)\Microsoft Visual Studio\2019\Community\VC\Tools\MSVC\14.29.30133\atlmfc\include\atltypes.h

; 528  : 	left = 0;

  00049	0f 11 45 e0	 movups	 XMMWORD PTR _rcClient$[ebp], xmm0
; File C:\Program Files (x86)\Microsoft Visual Studio\2019\Community\VC\Tools\MSVC\14.29.30133\atlmfc\include\afxwin2.inl

; 86   : 	{ ASSERT(::IsWindow(m_hWnd)); ::GetClientRect(m_hWnd, lpRect); }

  0004d	ff 15 00 00 00
	00		 call	 DWORD PTR __imp__GetClientRect@8
; File D:\git\src\IBK\IBK_DRFN\ProjSrc\SrcDrfn\Chart\MULTICHART\FloatingHogaDlg.cpp

; 2341 : 	CDC memDC;

  00053	8d 8d 74 ff ff
	ff		 lea	 ecx, DWORD PTR _memDC$[ebp]
  00059	e8 00 00 00 00	 call	 ??0CDC@@QAE@XZ		; CDC::CDC
; File C:\Program Files (x86)\Microsoft Visual Studio\2019\Community\VC\Tools\MSVC\14.29.30133\atlmfc\include\afxwin1.inl

; 70   : 	{ m_hObject = NULL; }

  0005e	c7 45 88 00 00
	00 00		 mov	 DWORD PTR _bitmap$[ebp+4], 0

; 177  : 	{ }

  00065	c7 45 84 00 00
	00 00		 mov	 DWORD PTR _bitmap$[ebp], OFFSET ??_7CBitmap@@6B@

; 330  : 	{ return Attach(::CreateCompatibleDC(pDC->GetSafeHdc())); }

  0006c	ff 75 90	 push	 DWORD PTR _dc$[ebp+4]
; File D:\git\src\IBK\IBK_DRFN\ProjSrc\SrcDrfn\Chart\MULTICHART\FloatingHogaDlg.cpp

; 2342 : 	CBitmap bitmap;

  0006f	c6 45 fc 02	 mov	 BYTE PTR __$EHRec$[ebp+8], 2
; File C:\Program Files (x86)\Microsoft Visual Studio\2019\Community\VC\Tools\MSVC\14.29.30133\atlmfc\include\afxwin1.inl

; 330  : 	{ return Attach(::CreateCompatibleDC(pDC->GetSafeHdc())); }

  00073	ff 15 00 00 00
	00		 call	 DWORD PTR __imp__CreateCompatibleDC@4
  00079	50		 push	 eax
  0007a	8d 8d 74 ff ff
	ff		 lea	 ecx, DWORD PTR _memDC$[ebp]
  00080	e8 00 00 00 00	 call	 ?Attach@CDC@@QAEHPAUHDC__@@@Z ; CDC::Attach
; File C:\Program Files (x86)\Microsoft Visual Studio\2019\Community\VC\Tools\MSVC\14.29.30133\atlmfc\include\atltypes.h

; 581  : 	return bottom - top;

  00085	8b 4d ec	 mov	 ecx, DWORD PTR _rcClient$[ebp+12]
  00088	2b 4d e4	 sub	 ecx, DWORD PTR _rcClient$[ebp+4]

; 576  : 	return right - left;

  0008b	8b 45 e8	 mov	 eax, DWORD PTR _rcClient$[ebp+8]
  0008e	2b 45 e0	 sub	 eax, DWORD PTR _rcClient$[ebp]
; File C:\Program Files (x86)\Microsoft Visual Studio\2019\Community\VC\Tools\MSVC\14.29.30133\atlmfc\include\afxwin1.inl

; 217  : 	{ return Attach(::CreateCompatibleBitmap(pDC->m_hDC, nWidth, nHeight)); }

  00091	51		 push	 ecx
  00092	50		 push	 eax
  00093	ff 75 90	 push	 DWORD PTR _dc$[ebp+4]
  00096	ff 15 00 00 00
	00		 call	 DWORD PTR __imp__CreateCompatibleBitmap@12
  0009c	50		 push	 eax
  0009d	8d 4d 84	 lea	 ecx, DWORD PTR _bitmap$[ebp]
  000a0	e8 00 00 00 00	 call	 ?Attach@CGdiObject@@QAEHPAX@Z ; CGdiObject::Attach

; 361  : 	{ ASSERT(m_hDC != NULL); return (CBitmap*) SelectGdiObject(m_hDC, pBitmap->GetSafeHandle()); }

  000a5	ff 75 88	 push	 DWORD PTR _bitmap$[ebp+4]
  000a8	ff b5 78 ff ff
	ff		 push	 DWORD PTR _memDC$[ebp+4]
  000ae	e8 00 00 00 00	 call	 ?SelectGdiObject@CDC@@KGPAVCGdiObject@@PAUHDC__@@PAX@Z ; CDC::SelectGdiObject
; File D:\git\src\IBK\IBK_DRFN\ProjSrc\SrcDrfn\Chart\MULTICHART\FloatingHogaDlg.cpp

; 2347 : 	memDC.FillSolidRect(rcClient, GetSysColor(COLOR_WINDOW));

  000b3	6a 05		 push	 5
  000b5	8b f8		 mov	 edi, eax
  000b7	ff 15 00 00 00
	00		 call	 DWORD PTR __imp__GetSysColor@4
  000bd	50		 push	 eax
  000be	8d 45 e0	 lea	 eax, DWORD PTR _rcClient$[ebp]
  000c1	50		 push	 eax
  000c2	8d 8d 74 ff ff
	ff		 lea	 ecx, DWORD PTR _memDC$[ebp]
  000c8	e8 00 00 00 00	 call	 ?FillSolidRect@CDC@@QAEXPBUtagRECT@@K@Z ; CDC::FillSolidRect
; File C:\Program Files (x86)\Microsoft Visual Studio\2019\Community\VC\Tools\MSVC\14.29.30133\atlmfc\include\atltypes.h

; 581  : 	return bottom - top;

  000cd	8b 55 ec	 mov	 edx, DWORD PTR _rcClient$[ebp+12]
  000d0	8b 75 e4	 mov	 esi, DWORD PTR _rcClient$[ebp+4]
  000d3	2b d6		 sub	 edx, esi

; 576  : 	return right - left;

  000d5	8b 45 e8	 mov	 eax, DWORD PTR _rcClient$[ebp+8]
  000d8	8b 4d e0	 mov	 ecx, DWORD PTR _rcClient$[ebp]
  000db	2b c1		 sub	 eax, ecx
; File C:\Program Files (x86)\Microsoft Visual Studio\2019\Community\VC\Tools\MSVC\14.29.30133\atlmfc\include\afxwin1.inl

; 552  : 	{ ASSERT(m_hDC != NULL); return ::BitBlt(m_hDC, x, y, nWidth, nHeight,

  000dd	68 20 00 cc 00	 push	 13369376		; 00cc0020H
  000e2	6a 00		 push	 0
  000e4	6a 00		 push	 0
  000e6	ff b5 78 ff ff
	ff		 push	 DWORD PTR _memDC$[ebp+4]
  000ec	52		 push	 edx
  000ed	50		 push	 eax
  000ee	56		 push	 esi
  000ef	51		 push	 ecx
  000f0	ff 75 90	 push	 DWORD PTR _dc$[ebp+4]
  000f3	ff 15 00 00 00
	00		 call	 DWORD PTR __imp__BitBlt@36

; 68   : 	{ return this == NULL ? NULL : m_hObject; }

  000f9	85 ff		 test	 edi, edi
  000fb	75 04		 jne	 SHORT $LN46@OnPaint
  000fd	33 c0		 xor	 eax, eax
  000ff	eb 03		 jmp	 SHORT $LN47@OnPaint
$LN46@OnPaint:
  00101	8b 47 04	 mov	 eax, DWORD PTR [edi+4]
$LN47@OnPaint:

; 361  : 	{ ASSERT(m_hDC != NULL); return (CBitmap*) SelectGdiObject(m_hDC, pBitmap->GetSafeHandle()); }

  00104	50		 push	 eax
  00105	ff b5 78 ff ff
	ff		 push	 DWORD PTR _memDC$[ebp+4]
  0010b	e8 00 00 00 00	 call	 ?SelectGdiObject@CDC@@KGPAVCGdiObject@@PAUHDC__@@PAX@Z ; CDC::SelectGdiObject
; File D:\git\src\IBK\IBK_DRFN\ProjSrc\SrcDrfn\Chart\MULTICHART\FloatingHogaDlg.cpp

; 2350 : 	memDC.DeleteDC();

  00110	8d 8d 74 ff ff
	ff		 lea	 ecx, DWORD PTR _memDC$[ebp]
  00116	e8 00 00 00 00	 call	 ?DeleteDC@CDC@@QAEHXZ	; CDC::DeleteDC

; 2351 : 	bitmap.DeleteObject();

  0011b	8d 4d 84	 lea	 ecx, DWORD PTR _bitmap$[ebp]
  0011e	e8 00 00 00 00	 call	 ?DeleteObject@CGdiObject@@QAEHXZ ; CGdiObject::DeleteObject
; File C:\Program Files (x86)\Microsoft Visual Studio\2019\Community\VC\Tools\MSVC\14.29.30133\atlmfc\include\afxwin1.inl

; 179  : 	{ }

  00123	8d 4d 84	 lea	 ecx, DWORD PTR _bitmap$[ebp]
  00126	c7 45 84 00 00
	00 00		 mov	 DWORD PTR _bitmap$[ebp], OFFSET ??_7CBitmap@@6B@
  0012d	e8 00 00 00 00	 call	 ??1CGdiObject@@UAE@XZ	; CGdiObject::~CGdiObject
; File D:\git\src\IBK\IBK_DRFN\ProjSrc\SrcDrfn\Chart\MULTICHART\FloatingHogaDlg.cpp

; 2352 : }

  00132	8d 8d 74 ff ff
	ff		 lea	 ecx, DWORD PTR _memDC$[ebp]
  00138	e8 00 00 00 00	 call	 ??1CDC@@UAE@XZ		; CDC::~CDC
  0013d	8d 4d 8c	 lea	 ecx, DWORD PTR _dc$[ebp]
  00140	e8 00 00 00 00	 call	 ??1CPaintDC@@UAE@XZ	; CPaintDC::~CPaintDC
  00145	8b 4d f4	 mov	 ecx, DWORD PTR __$EHRec$[ebp]
  00148	64 89 0d 00 00
	00 00		 mov	 DWORD PTR fs:0, ecx
  0014f	59		 pop	 ecx
  00150	5f		 pop	 edi
  00151	5e		 pop	 esi
  00152	8b 4d f0	 mov	 ecx, DWORD PTR __$ArrayPad$[ebp]
  00155	33 cd		 xor	 ecx, ebp
  00157	e8 00 00 00 00	 call	 @__security_check_cookie@4
  0015c	8b e5		 mov	 esp, ebp
  0015e	5d		 pop	 ebp
  0015f	c3		 ret	 0
_TEXT	ENDS
;	COMDAT text$x
text$x	SEGMENT
__unwindfunclet$?OnPaint@CFloatingHogaDlg@@IAEXXZ$0:
  00000	8d 4d 8c	 lea	 ecx, DWORD PTR _dc$[ebp]
  00003	e9 00 00 00 00	 jmp	 ??1CPaintDC@@UAE@XZ	; CPaintDC::~CPaintDC
__unwindfunclet$?OnPaint@CFloatingHogaDlg@@IAEXXZ$1:
  00008	8d 8d 74 ff ff
	ff		 lea	 ecx, DWORD PTR _memDC$[ebp]
  0000e	e9 00 00 00 00	 jmp	 ??1CDC@@UAE@XZ		; CDC::~CDC
__unwindfunclet$?OnPaint@CFloatingHogaDlg@@IAEXXZ$2:
  00013	8d 4d 84	 lea	 ecx, DWORD PTR _bitmap$[ebp]
  00016	e9 00 00 00 00	 jmp	 ??1CBitmap@@UAE@XZ	; CBitmap::~CBitmap
  0001b	cc		 int	 3
  0001c	cc		 int	 3
  0001d	cc		 int	 3
  0001e	cc		 int	 3
  0001f	cc		 int	 3
__ehhandler$?OnPaint@CFloatingHogaDlg@@IAEXXZ:
  00020	90		 npad	 1
  00021	90		 npad	 1
  00022	8b 54 24 08	 mov	 edx, DWORD PTR [esp+8]
  00026	8d 42 0c	 lea	 eax, DWORD PTR [edx+12]
  00029	8b 8a 74 ff ff
	ff		 mov	 ecx, DWORD PTR [edx-140]
  0002f	33 c8		 xor	 ecx, eax
  00031	e8 00 00 00 00	 call	 @__security_check_cookie@4
  00036	8b 4a fc	 mov	 ecx, DWORD PTR [edx-4]
  00039	33 c8		 xor	 ecx, eax
  0003b	e8 00 00 00 00	 call	 @__security_check_cookie@4
  00040	b8 00 00 00 00	 mov	 eax, OFFSET __ehfuncinfo$?OnPaint@CFloatingHogaDlg@@IAEXXZ
  00045	e9 00 00 00 00	 jmp	 ___CxxFrameHandler3
text$x	ENDS
?OnPaint@CFloatingHogaDlg@@IAEXXZ ENDP			; CFloatingHogaDlg::OnPaint
; Function compile flags: /Ogtp
; File D:\git\src\IBK\IBK_DRFN\ProjSrc\SrcDrfn\Chart\MULTICHART\FloatingHogaDlg.cpp
; File C:\Program Files (x86)\Microsoft Visual Studio\2019\Community\VC\Tools\MSVC\14.29.30133\atlmfc\include\atltypes.h
; File D:\git\src\IBK\IBK_DRFN\ProjSrc\SrcDrfn\Chart\MULTICHART\FloatingHogaDlg.cpp
; File C:\Program Files (x86)\Microsoft Visual Studio\2019\Community\VC\Tools\MSVC\14.29.30133\atlmfc\include\atltypes.h
; File D:\git\src\IBK\IBK_DRFN\ProjSrc\SrcDrfn\Chart\MULTICHART\FloatingHogaDlg.cpp
; File C:\Program Files (x86)\Microsoft Visual Studio\2019\Community\VC\Tools\MSVC\14.29.30133\atlmfc\include\afxwin2.inl
; File D:\git\src\IBK\IBK_DRFN\ProjSrc\SrcDrfn\Chart\MULTICHART\FloatingHogaDlg.cpp
; File C:\Program Files (x86)\Microsoft Visual Studio\2019\Community\VC\Tools\MSVC\14.29.30133\atlmfc\include\afxwin2.inl
; File D:\git\src\IBK\IBK_DRFN\ProjSrc\SrcDrfn\Chart\MULTICHART\FloatingHogaDlg.cpp
; File C:\Program Files (x86)\Microsoft Visual Studio\2019\Community\VC\Tools\MSVC\14.29.30133\atlmfc\include\afxwin2.inl
; File D:\git\src\IBK\IBK_DRFN\ProjSrc\SrcDrfn\Chart\MULTICHART\FloatingHogaDlg.cpp
;	COMDAT ?OnSetCursor@CFloatingHogaDlg@@IAEHPAVCWnd@@II@Z
_TEXT	SEGMENT
_p$1 = -8						; size = 8
_pWnd$ = 8						; size = 4
_nHitTest$ = 12						; size = 4
_message$ = 16						; size = 4
?OnSetCursor@CFloatingHogaDlg@@IAEHPAVCWnd@@II@Z PROC	; CFloatingHogaDlg::OnSetCursor, COMDAT
; _this$ = ecx

; 2321 : {	

  00000	55		 push	 ebp
  00001	8b ec		 mov	 ebp, esp
  00003	83 ec 08	 sub	 esp, 8

; 2322 : 	static UINT msg = 512;
; 2323 :     if(msg == 513 && message == 512)

  00006	81 3d 00 00 00
	00 01 02 00 00	 cmp	 DWORD PTR ?msg@?1??OnSetCursor@CFloatingHogaDlg@@IAEHPAVCWnd@@II@Z@4IA, 513 ; 00000201H
  00010	56		 push	 esi
  00011	8b 75 10	 mov	 esi, DWORD PTR _message$[ebp]
  00014	57		 push	 edi
  00015	8b f9		 mov	 edi, ecx
  00017	75 4b		 jne	 SHORT $LN2@OnSetCurso
  00019	81 fe 00 02 00
	00		 cmp	 esi, 512		; 00000200H
  0001f	75 43		 jne	 SHORT $LN2@OnSetCurso

; 2326 :         GetCursorPos(&p);

  00021	8d 45 f8	 lea	 eax, DWORD PTR _p$1[ebp]
; File C:\Program Files (x86)\Microsoft Visual Studio\2019\Community\VC\Tools\MSVC\14.29.30133\atlmfc\include\atltypes.h

; 400  : 	x = 0;

  00024	c7 45 f8 00 00
	00 00		 mov	 DWORD PTR _p$1[ebp], 0
; File D:\git\src\IBK\IBK_DRFN\ProjSrc\SrcDrfn\Chart\MULTICHART\FloatingHogaDlg.cpp

; 2326 :         GetCursorPos(&p);

  0002b	50		 push	 eax
; File C:\Program Files (x86)\Microsoft Visual Studio\2019\Community\VC\Tools\MSVC\14.29.30133\atlmfc\include\atltypes.h

; 401  : 	y = 0;

  0002c	c7 45 fc 00 00
	00 00		 mov	 DWORD PTR _p$1[ebp+4], 0
; File D:\git\src\IBK\IBK_DRFN\ProjSrc\SrcDrfn\Chart\MULTICHART\FloatingHogaDlg.cpp

; 2326 :         GetCursorPos(&p);

  00033	ff 15 00 00 00
	00		 call	 DWORD PTR __imp__GetCursorPos@4
; File C:\Program Files (x86)\Microsoft Visual Studio\2019\Community\VC\Tools\MSVC\14.29.30133\atlmfc\include\afxwin2.inl

; 94   : 	{ ASSERT(::IsWindow(m_hWnd)); ::ScreenToClient(m_hWnd, lpPoint); }

  00039	8d 45 f8	 lea	 eax, DWORD PTR _p$1[ebp]
  0003c	50		 push	 eax
  0003d	ff 77 20	 push	 DWORD PTR [edi+32]
  00040	ff 15 00 00 00
	00		 call	 DWORD PTR __imp__ScreenToClient@8
; File D:\git\src\IBK\IBK_DRFN\ProjSrc\SrcDrfn\Chart\MULTICHART\FloatingHogaDlg.cpp

; 2328 :         SendMessage(WM_LBUTTONUP, 0, MAKELPARAM(p.x, p.y));

  00046	0f b7 4d fc	 movzx	 ecx, WORD PTR _p$1[ebp+4]
  0004a	0f b7 45 f8	 movzx	 eax, WORD PTR _p$1[ebp]
  0004e	c1 e1 10	 shl	 ecx, 16			; 00000010H
  00051	0b c8		 or	 ecx, eax
; File C:\Program Files (x86)\Microsoft Visual Studio\2019\Community\VC\Tools\MSVC\14.29.30133\atlmfc\include\afxwin2.inl

; 32   : 	{ ASSERT(::IsWindow(m_hWnd)); return ::SendMessage(m_hWnd, message, wParam, lParam); }

  00053	51		 push	 ecx
  00054	6a 00		 push	 0
  00056	68 02 02 00 00	 push	 514			; 00000202H
  0005b	ff 77 20	 push	 DWORD PTR [edi+32]
  0005e	ff 15 00 00 00
	00		 call	 DWORD PTR __imp__SendMessageA@16
$LN2@OnSetCurso:

; 326  : 	{ return (BOOL)Default(); }

  00064	8b cf		 mov	 ecx, edi
; File D:\git\src\IBK\IBK_DRFN\ProjSrc\SrcDrfn\Chart\MULTICHART\FloatingHogaDlg.cpp

; 2330 :     msg = message;

  00066	89 35 00 00 00
	00		 mov	 DWORD PTR ?msg@?1??OnSetCursor@CFloatingHogaDlg@@IAEHPAVCWnd@@II@Z@4IA, esi
; File C:\Program Files (x86)\Microsoft Visual Studio\2019\Community\VC\Tools\MSVC\14.29.30133\atlmfc\include\afxwin2.inl

; 326  : 	{ return (BOOL)Default(); }

  0006c	e8 00 00 00 00	 call	 ?Default@CWnd@@IAEJXZ	; CWnd::Default
; File D:\git\src\IBK\IBK_DRFN\ProjSrc\SrcDrfn\Chart\MULTICHART\FloatingHogaDlg.cpp

; 2332 : 	return CRscDlg::OnSetCursor(pWnd, nHitTest, message);

  00071	5f		 pop	 edi
  00072	5e		 pop	 esi

; 2333 : }

  00073	8b e5		 mov	 esp, ebp
  00075	5d		 pop	 ebp
  00076	c2 0c 00	 ret	 12			; 0000000cH
?OnSetCursor@CFloatingHogaDlg@@IAEHPAVCWnd@@II@Z ENDP	; CFloatingHogaDlg::OnSetCursor
_TEXT	ENDS
; Function compile flags: /Ogtp
; File D:\git\src\IBK\IBK_DRFN\ProjSrc\SrcDrfn\Chart\MULTICHART\FloatingHogaDlg.cpp
; File C:\Program Files (x86)\Microsoft Visual Studio\2019\Community\VC\Tools\MSVC\14.29.30133\atlmfc\include\atlsimpstr.h
; File D:\git\src\IBK\IBK_DRFN\ProjSrc\SrcDrfn\Chart\MULTICHART\FloatingHogaDlg.cpp
; File C:\Program Files (x86)\Microsoft Visual Studio\2019\Community\VC\Tools\MSVC\14.29.30133\atlmfc\include\afxwin2.inl
; File D:\git\src\IBK\IBK_DRFN\ProjSrc\SrcDrfn\Chart\MULTICHART\FloatingHogaDlg.cpp
;	COMDAT ?OnDestroy@CFloatingHogaDlg@@IAEXXZ
_TEXT	SEGMENT
?OnDestroy@CFloatingHogaDlg@@IAEXXZ PROC		; CFloatingHogaDlg::OnDestroy, COMDAT
; _this$ = ecx

; 2276 : {

  00000	56		 push	 esi
  00001	8b f1		 mov	 esi, ecx

; 2527 : 	if(!m_pDrdsLib) return FALSE;

  00003	8b 8e 60 06 00
	00		 mov	 ecx, DWORD PTR [esi+1632]
  00009	85 c9		 test	 ecx, ecx
  0000b	74 5b		 je	 SHORT $LN6@OnDestroy
; File C:\Program Files (x86)\Microsoft Visual Studio\2019\Community\VC\Tools\MSVC\14.29.30133\atlmfc\include\atlsimpstr.h

; 519  : 		return( GetData()->nDataLength );

  0000d	57		 push	 edi
  0000e	8b be c4 00 00
	00		 mov	 edi, DWORD PTR [esi+196]
; File D:\git\src\IBK\IBK_DRFN\ProjSrc\SrcDrfn\Chart\MULTICHART\FloatingHogaDlg.cpp

; 2529 : 	if(m_strCode.GetLength()>0)

  00014	83 7f f4 00	 cmp	 DWORD PTR [edi-12], 0
  00018	7e 2c		 jle	 SHORT $LN17@OnDestroy

; 2556 : 	m_pDrdsLib->DrdsUnadvise(nKXH1RealType, "KXH1", "*", (LPSTR)strCode);

  0001a	8b 01		 mov	 eax, DWORD PTR [ecx]
  0001c	57		 push	 edi
  0001d	68 00 00 00 00	 push	 OFFSET ??_C@_01NBENCBCI@?$CK@
  00022	68 00 00 00 00	 push	 OFFSET ??_C@_04KAJDJNDN@KXH1@
  00027	6a 01		 push	 1
  00029	51		 push	 ecx
  0002a	ff 50 14	 call	 DWORD PTR [eax+20]

; 2557 : 	int nKXYSRealType = 23;	// 1:
; 2558 : 	m_pDrdsLib->DrdsUnadvise(nKXYSRealType, "KXYS", "*", (LPSTR)strCode);

  0002d	8b 86 60 06 00
	00		 mov	 eax, DWORD PTR [esi+1632]
  00033	57		 push	 edi
  00034	68 00 00 00 00	 push	 OFFSET ??_C@_01NBENCBCI@?$CK@
  00039	68 00 00 00 00	 push	 OFFSET ??_C@_04OKLMFNFP@KXYS@
  0003e	8b 08		 mov	 ecx, DWORD PTR [eax]
  00040	6a 17		 push	 23			; 00000017H
  00042	50		 push	 eax
  00043	ff 51 14	 call	 DWORD PTR [ecx+20]
$LN17@OnDestroy:

; 2532 : 	IAUDrdsManager* pDrdsMng = (IAUDrdsManager*)AfxGetPctrInterface(UUID_IAUDrdsManager);

  00046	6a 13		 push	 19			; 00000013H
  00048	e8 00 00 00 00	 call	 ?AfxGetPctrInterface@@YGJH@Z ; AfxGetPctrInterface
  0004d	5f		 pop	 edi

; 2533 : 	if(!pDrdsMng) return FALSE;

  0004e	85 c0		 test	 eax, eax
  00050	74 16		 je	 SHORT $LN6@OnDestroy

; 2534 : 
; 2535 : 	pDrdsMng->UnadviseDrdsLib(m_pDrdsLib);

  00052	ff b6 60 06 00
	00		 push	 DWORD PTR [esi+1632]
  00058	8b 08		 mov	 ecx, DWORD PTR [eax]
  0005a	50		 push	 eax
  0005b	ff 51 04	 call	 DWORD PTR [ecx+4]

; 2536 : 	m_pDrdsLib = NULL;

  0005e	c7 86 60 06 00
	00 00 00 00 00	 mov	 DWORD PTR [esi+1632], 0
$LN6@OnDestroy:
; File C:\Program Files (x86)\Microsoft Visual Studio\2019\Community\VC\Tools\MSVC\14.29.30133\atlmfc\include\afxwin2.inl

; 213  : 	{ ASSERT(::IsWindow(m_hWnd)); return CWnd::FromHandle(::GetParent(m_hWnd)); }

  00068	ff 76 20	 push	 DWORD PTR [esi+32]
  0006b	ff 15 00 00 00
	00		 call	 DWORD PTR __imp__GetParent@4
  00071	50		 push	 eax
  00072	e8 00 00 00 00	 call	 ?FromHandle@CWnd@@SGPAV1@PAUHWND__@@@Z ; CWnd::FromHandle

; 32   : 	{ ASSERT(::IsWindow(m_hWnd)); return ::SendMessage(m_hWnd, message, wParam, lParam); }

  00077	6a 00		 push	 0
  00079	6a 00		 push	 0
  0007b	68 9f 04 00 00	 push	 1183			; 0000049fH
  00080	ff 70 20	 push	 DWORD PTR [eax+32]
  00083	ff 15 00 00 00
	00		 call	 DWORD PTR __imp__SendMessageA@16
; File D:\git\src\IBK\IBK_DRFN\ProjSrc\SrcDrfn\Chart\MULTICHART\FloatingHogaDlg.cpp

; 2288 : 	HogaMemoryFree();	

  00089	8b ce		 mov	 ecx, esi
  0008b	e8 00 00 00 00	 call	 ?HogaMemoryFree@CFloatingHogaDlg@@QAEXXZ ; CFloatingHogaDlg::HogaMemoryFree

; 2289 : 	if(m_pGridCtrl)

  00090	8b 8e cc 00 00
	00		 mov	 ecx, DWORD PTR [esi+204]
  00096	85 c9		 test	 ecx, ecx
  00098	74 11		 je	 SHORT $LN2@OnDestroy

; 2290 : 	{
; 2291 : 		delete m_pGridCtrl;

  0009a	8b 01		 mov	 eax, DWORD PTR [ecx]
  0009c	6a 01		 push	 1
  0009e	ff 50 04	 call	 DWORD PTR [eax+4]

; 2292 : 		m_pGridCtrl = NULL;

  000a1	c7 86 cc 00 00
	00 00 00 00 00	 mov	 DWORD PTR [esi+204], 0
$LN2@OnDestroy:

; 2293 : 	} 
; 2294 : 	CRscDlg::OnDestroy();	

  000ab	8b ce		 mov	 ecx, esi
  000ad	5e		 pop	 esi
  000ae	e9 00 00 00 00	 jmp	 ?OnDestroy@CWnd@@IAEXXZ	; CWnd::OnDestroy
?OnDestroy@CFloatingHogaDlg@@IAEXXZ ENDP		; CFloatingHogaDlg::OnDestroy
_TEXT	ENDS
; Function compile flags: /Ogtp
; File D:\git\src\IBK\IBK_DRFN\ProjSrc\SrcDrfn\Chart\MULTICHART\FloatingHogaDlg.cpp
; File C:\Program Files (x86)\Microsoft Visual Studio\2019\Community\VC\Tools\MSVC\14.29.30133\atlmfc\include\afxwin2.inl
; File D:\git\src\IBK\IBK_DRFN\ProjSrc\SrcDrfn\Chart\MULTICHART\FloatingHogaDlg.cpp
;	COMDAT ?OnMouseMove@CFloatingHogaDlg@@IAEXIVCPoint@@@Z
_TEXT	SEGMENT
_nFlags$ = 8						; size = 4
_point$ = 12						; size = 8
?OnMouseMove@CFloatingHogaDlg@@IAEXIVCPoint@@@Z PROC	; CFloatingHogaDlg::OnMouseMove, COMDAT
; _this$ = ecx
; File C:\Program Files (x86)\Microsoft Visual Studio\2019\Community\VC\Tools\MSVC\14.29.30133\atlmfc\include\afxwin2.inl

; 454  : 	{ Default(); }

  00000	e8 00 00 00 00	 call	 ?Default@CWnd@@IAEJXZ	; CWnd::Default
; File D:\git\src\IBK\IBK_DRFN\ProjSrc\SrcDrfn\Chart\MULTICHART\FloatingHogaDlg.cpp

; 402  : }

  00005	c2 0c 00	 ret	 12			; 0000000cH
?OnMouseMove@CFloatingHogaDlg@@IAEXIVCPoint@@@Z ENDP	; CFloatingHogaDlg::OnMouseMove
_TEXT	ENDS
; Function compile flags: /Ogtp
; File D:\git\src\IBK\IBK_DRFN\ProjSrc\SrcDrfn\Chart\MULTICHART\FloatingHogaDlg.cpp
; File C:\Program Files (x86)\Microsoft Visual Studio\2019\Community\VC\Tools\MSVC\14.29.30133\atlmfc\include\afxwin2.inl
; File D:\git\src\IBK\IBK_DRFN\ProjSrc\SrcDrfn\Chart\MULTICHART\FloatingHogaDlg.cpp
;	COMDAT ?OnLButtonUp@CFloatingHogaDlg@@IAEXIVCPoint@@@Z
_TEXT	SEGMENT
_nFlags$ = 8						; size = 4
_point$ = 12						; size = 8
?OnLButtonUp@CFloatingHogaDlg@@IAEXIVCPoint@@@Z PROC	; CFloatingHogaDlg::OnLButtonUp, COMDAT
; _this$ = ecx
; File C:\Program Files (x86)\Microsoft Visual Studio\2019\Community\VC\Tools\MSVC\14.29.30133\atlmfc\include\afxwin2.inl

; 434  : 	{ Default(); }

  00000	e8 00 00 00 00	 call	 ?Default@CWnd@@IAEJXZ	; CWnd::Default
; File D:\git\src\IBK\IBK_DRFN\ProjSrc\SrcDrfn\Chart\MULTICHART\FloatingHogaDlg.cpp

; 386  : }

  00005	c2 0c 00	 ret	 12			; 0000000cH
?OnLButtonUp@CFloatingHogaDlg@@IAEXIVCPoint@@@Z ENDP	; CFloatingHogaDlg::OnLButtonUp
_TEXT	ENDS
; Function compile flags: /Ogtp
; File D:\git\src\IBK\IBK_DRFN\ProjSrc\SrcDrfn\Chart\MULTICHART\FloatingHogaDlg.cpp
; File C:\Program Files (x86)\Microsoft Visual Studio\2019\Community\VC\Tools\MSVC\14.29.30133\atlmfc\include\afxwin2.inl
; File C:\Program Files (x86)\Microsoft Visual Studio\2019\Community\VC\Tools\MSVC\14.29.30133\atlmfc\include\atltypes.h
; File C:\Program Files (x86)\Microsoft Visual Studio\2019\Community\VC\Tools\MSVC\14.29.30133\atlmfc\include\afxwin2.inl
; File C:\Program Files (x86)\Microsoft Visual Studio\2019\Community\VC\Tools\MSVC\14.29.30133\atlmfc\include\atltypes.h
; File C:\Program Files (x86)\Microsoft Visual Studio\2019\Community\VC\Tools\MSVC\14.29.30133\atlmfc\include\afxwin2.inl
; File D:\git\src\IBK\IBK_DRFN\ProjSrc\SrcDrfn\Chart\MULTICHART\FloatingHogaDlg.cpp
; File C:\Program Files (x86)\Microsoft Visual Studio\2019\Community\VC\Tools\MSVC\14.29.30133\atlmfc\include\afxwin2.inl
; File D:\git\src\IBK\IBK_DRFN\ProjSrc\SrcDrfn\Chart\MULTICHART\FloatingHogaDlg.cpp
; File C:\Program Files (x86)\Microsoft Visual Studio\2019\Community\VC\Tools\MSVC\14.29.30133\atlmfc\include\afxwin2.inl
; File D:\git\src\IBK\IBK_DRFN\ProjSrc\SrcDrfn\Chart\MULTICHART\FloatingHogaDlg.cpp
; File C:\Program Files (x86)\Microsoft Visual Studio\2019\Community\VC\Tools\MSVC\14.29.30133\atlmfc\include\atlsimpstr.h
; File D:\git\src\IBK\IBK_DRFN\ProjSrc\SrcDrfn\Chart\MULTICHART\FloatingHogaDlg.cpp
; File C:\Program Files (x86)\Microsoft Visual Studio\2019\Community\VC\Tools\MSVC\14.29.30133\atlmfc\include\afxwin2.inl
; File D:\git\src\IBK\IBK_DRFN\ProjSrc\SrcDrfn\Chart\MULTICHART\FloatingHogaDlg.cpp
; File C:\Program Files (x86)\Microsoft Visual Studio\2019\Community\VC\Tools\MSVC\14.29.30133\atlmfc\include\afxwin2.inl
; File D:\git\src\IBK\IBK_DRFN\ProjSrc\SrcDrfn\Chart\MULTICHART\FloatingHogaDlg.cpp
;	COMDAT ?OnLButtonDblClk@CFloatingHogaDlg@@IAEXIVCPoint@@@Z
_TEXT	SEGMENT
_trect$ = -52						; size = 16
_rect$ = -36						; size = 16
_dlgRect$ = -20						; size = 16
__$ArrayPad$ = -4					; size = 4
_nFlags$ = 8						; size = 4
_point$ = 12						; size = 8
?OnLButtonDblClk@CFloatingHogaDlg@@IAEXIVCPoint@@@Z PROC ; CFloatingHogaDlg::OnLButtonDblClk, COMDAT
; _this$ = ecx

; 320  : {	

  00000	55		 push	 ebp
  00001	8b ec		 mov	 ebp, esp
  00003	83 ec 34	 sub	 esp, 52			; 00000034H
  00006	a1 00 00 00 00	 mov	 eax, DWORD PTR ___security_cookie
  0000b	33 c5		 xor	 eax, ebp
  0000d	89 45 fc	 mov	 DWORD PTR __$ArrayPad$[ebp], eax
  00010	57		 push	 edi
  00011	8b f9		 mov	 edi, ecx
; File C:\Program Files (x86)\Microsoft Visual Studio\2019\Community\VC\Tools\MSVC\14.29.30133\atlmfc\include\afxwin2.inl

; 84   : 	{ ASSERT(::IsWindow(m_hWnd)); ::GetWindowRect(m_hWnd, lpRect); }

  00013	8d 45 dc	 lea	 eax, DWORD PTR _rect$[ebp]
  00016	50		 push	 eax
  00017	0f 57 c0	 xorps	 xmm0, xmm0
; File C:\Program Files (x86)\Microsoft Visual Studio\2019\Community\VC\Tools\MSVC\14.29.30133\atlmfc\include\atltypes.h

; 540  : 	left = l;

  0001a	0f 11 45 dc	 movups	 XMMWORD PTR _rect$[ebp], xmm0
; File C:\Program Files (x86)\Microsoft Visual Studio\2019\Community\VC\Tools\MSVC\14.29.30133\atlmfc\include\afxwin2.inl

; 84   : 	{ ASSERT(::IsWindow(m_hWnd)); ::GetWindowRect(m_hWnd, lpRect); }

  0001e	ff b7 90 03 00
	00		 push	 DWORD PTR [edi+912]
; File C:\Program Files (x86)\Microsoft Visual Studio\2019\Community\VC\Tools\MSVC\14.29.30133\atlmfc\include\atltypes.h

; 540  : 	left = l;

  00024	0f 11 45 ec	 movups	 XMMWORD PTR _dlgRect$[ebp], xmm0
; File C:\Program Files (x86)\Microsoft Visual Studio\2019\Community\VC\Tools\MSVC\14.29.30133\atlmfc\include\afxwin2.inl

; 84   : 	{ ASSERT(::IsWindow(m_hWnd)); ::GetWindowRect(m_hWnd, lpRect); }

  00028	ff 15 00 00 00
	00		 call	 DWORD PTR __imp__GetWindowRect@8
  0002e	8d 45 ec	 lea	 eax, DWORD PTR _dlgRect$[ebp]
  00031	50		 push	 eax
  00032	ff 77 20	 push	 DWORD PTR [edi+32]
  00035	ff 15 00 00 00
	00		 call	 DWORD PTR __imp__GetWindowRect@8
; File D:\git\src\IBK\IBK_DRFN\ProjSrc\SrcDrfn\Chart\MULTICHART\FloatingHogaDlg.cpp

; 326  : 	trect.left		= rect.left	;

  0003b	0f 10 45 dc	 movups	 xmm0, XMMWORD PTR _rect$[ebp]

; 327  : 	trect.top		= rect.top	;
; 328  : 	trect.right		= rect.right;	
; 329  : 	trect.bottom	= rect.bottom;
; 330  : 	
; 331  : 	ScreenToClient(trect);

  0003f	8d 45 cc	 lea	 eax, DWORD PTR _trect$[ebp]
  00042	8b cf		 mov	 ecx, edi
  00044	50		 push	 eax
  00045	0f 11 45 cc	 movups	 XMMWORD PTR _trect$[ebp], xmm0
  00049	e8 00 00 00 00	 call	 ?ScreenToClient@CWnd@@QBEXPAUtagRECT@@@Z ; CWnd::ScreenToClient

; 332  : 	if(PtInRect(trect, point))

  0004e	ff 75 10	 push	 DWORD PTR _point$[ebp+4]
  00051	8d 45 cc	 lea	 eax, DWORD PTR _trect$[ebp]
  00054	ff 75 0c	 push	 DWORD PTR _point$[ebp]
  00057	50		 push	 eax
  00058	ff 15 00 00 00
	00		 call	 DWORD PTR __imp__PtInRect@12
  0005e	85 c0		 test	 eax, eax
  00060	0f 84 94 00 00
	00		 je	 $LN6@OnLButtonD

; 333  : 	{
; 334  : 		if(m_bIconState)	

  00066	8b 8f 1c 02 00
	00		 mov	 ecx, DWORD PTR [edi+540]
  0006c	85 c9		 test	 ecx, ecx
  0006e	74 15		 je	 SHORT $LN3@OnLButtonD

; 335  : 		{	
; 336  : 			dlgRect.right	= dlgRect.left	+ DLG_WIDTH;

  00070	8b 45 ec	 mov	 eax, DWORD PTR _dlgRect$[ebp]
  00073	05 de 00 00 00	 add	 eax, 222		; 000000deH
  00078	89 45 f4	 mov	 DWORD PTR _dlgRect$[ebp+8], eax

; 337  : 			dlgRect.bottom	= dlgRect.top	+ DLG_HEIGHT;														

  0007b	8b 45 f0	 mov	 eax, DWORD PTR _dlgRect$[ebp+4]
  0007e	05 f3 00 00 00	 add	 eax, 243		; 000000f3H

; 338  : 		}

  00083	eb 2a		 jmp	 SHORT $LN45@OnLButtonD
$LN3@OnLButtonD:
; File C:\Program Files (x86)\Microsoft Visual Studio\2019\Community\VC\Tools\MSVC\14.29.30133\atlmfc\include\afxwin2.inl

; 213  : 	{ ASSERT(::IsWindow(m_hWnd)); return CWnd::FromHandle(::GetParent(m_hWnd)); }

  00085	ff 77 20	 push	 DWORD PTR [edi+32]
  00088	ff 15 00 00 00
	00		 call	 DWORD PTR __imp__GetParent@4
  0008e	50		 push	 eax
  0008f	e8 00 00 00 00	 call	 ?FromHandle@CWnd@@SGPAV1@PAUHWND__@@@Z ; CWnd::FromHandle
; File D:\git\src\IBK\IBK_DRFN\ProjSrc\SrcDrfn\Chart\MULTICHART\FloatingHogaDlg.cpp

; 342  : 			dlgRect.right = dlgRect.left + rect.Width();

  00094	8b 45 ec	 mov	 eax, DWORD PTR _dlgRect$[ebp]
  00097	2b 45 dc	 sub	 eax, DWORD PTR _rect$[ebp]
  0009a	03 45 e4	 add	 eax, DWORD PTR _rect$[ebp+8]

; 343  : 			dlgRect.bottom = dlgRect.top + rect.Height();			

  0009d	8b 8f 1c 02 00
	00		 mov	 ecx, DWORD PTR [edi+540]
  000a3	89 45 f4	 mov	 DWORD PTR _dlgRect$[ebp+8], eax
  000a6	8b 45 f0	 mov	 eax, DWORD PTR _dlgRect$[ebp+4]
  000a9	2b 45 e0	 sub	 eax, DWORD PTR _rect$[ebp+4]
  000ac	03 45 e8	 add	 eax, DWORD PTR _rect$[ebp+12]
$LN45@OnLButtonD:

; 344  : 		}
; 345  : 
; 346  : 		m_bIconState = !m_bIconState;

  000af	89 45 f8	 mov	 DWORD PTR _dlgRect$[ebp+12], eax
  000b2	33 c0		 xor	 eax, eax
  000b4	85 c9		 test	 ecx, ecx

; 347  : 		
; 348  : 		if(m_pMainDlg)

  000b6	8b 8f 34 02 00
	00		 mov	 ecx, DWORD PTR [edi+564]
  000bc	0f 94 c0	 sete	 al
  000bf	89 87 1c 02 00
	00		 mov	 DWORD PTR [edi+540], eax
  000c5	85 c9		 test	 ecx, ecx
  000c7	74 19		 je	 SHORT $LN5@OnLButtonD
; File C:\Program Files (x86)\Microsoft Visual Studio\2019\Community\VC\Tools\MSVC\14.29.30133\atlmfc\include\afxwin2.inl

; 32   : 	{ ASSERT(::IsWindow(m_hWnd)); return ::SendMessage(m_hWnd, message, wParam, lParam); }

  000c9	8d 55 ec	 lea	 edx, DWORD PTR _dlgRect$[ebp]
  000cc	52		 push	 edx
  000cd	50		 push	 eax
  000ce	68 96 04 00 00	 push	 1174			; 00000496H
  000d3	ff 71 20	 push	 DWORD PTR [ecx+32]
  000d6	ff 15 00 00 00
	00		 call	 DWORD PTR __imp__SendMessageA@16
  000dc	8b 87 1c 02 00
	00		 mov	 eax, DWORD PTR [edi+540]
$LN5@OnLButtonD:
; File D:\git\src\IBK\IBK_DRFN\ProjSrc\SrcDrfn\Chart\MULTICHART\FloatingHogaDlg.cpp

; 352  : 		if(m_bIconState && m_strCode.GetLength()>0)

  000e2	85 c0		 test	 eax, eax
  000e4	74 14		 je	 SHORT $LN6@OnLButtonD
; File C:\Program Files (x86)\Microsoft Visual Studio\2019\Community\VC\Tools\MSVC\14.29.30133\atlmfc\include\atlsimpstr.h

; 519  : 		return( GetData()->nDataLength );

  000e6	8b 87 c4 00 00
	00		 mov	 eax, DWORD PTR [edi+196]
; File D:\git\src\IBK\IBK_DRFN\ProjSrc\SrcDrfn\Chart\MULTICHART\FloatingHogaDlg.cpp

; 352  : 		if(m_bIconState && m_strCode.GetLength()>0)

  000ec	83 78 f4 00	 cmp	 DWORD PTR [eax-12], 0
  000f0	7e 08		 jle	 SHORT $LN6@OnLButtonD

; 353  : 			OnCodeUnAdvise(m_strCode);	// Old Code

  000f2	50		 push	 eax
  000f3	8b cf		 mov	 ecx, edi
  000f5	e8 00 00 00 00	 call	 ?OnCodeUnAdvise@CFloatingHogaDlg@@QAEXPBD@Z ; CFloatingHogaDlg::OnCodeUnAdvise
$LN6@OnLButtonD:
; File C:\Program Files (x86)\Microsoft Visual Studio\2019\Community\VC\Tools\MSVC\14.29.30133\atlmfc\include\afxwin2.inl

; 430  : 	{ Default(); }

  000fa	8b cf		 mov	 ecx, edi
  000fc	e8 00 00 00 00	 call	 ?Default@CWnd@@IAEJXZ	; CWnd::Default
; File D:\git\src\IBK\IBK_DRFN\ProjSrc\SrcDrfn\Chart\MULTICHART\FloatingHogaDlg.cpp

; 357  : }

  00101	8b 4d fc	 mov	 ecx, DWORD PTR __$ArrayPad$[ebp]
  00104	33 cd		 xor	 ecx, ebp
; File C:\Program Files (x86)\Microsoft Visual Studio\2019\Community\VC\Tools\MSVC\14.29.30133\atlmfc\include\afxwin2.inl

; 430  : 	{ Default(); }

  00106	5f		 pop	 edi
; File D:\git\src\IBK\IBK_DRFN\ProjSrc\SrcDrfn\Chart\MULTICHART\FloatingHogaDlg.cpp

; 357  : }

  00107	e8 00 00 00 00	 call	 @__security_check_cookie@4
  0010c	8b e5		 mov	 esp, ebp
  0010e	5d		 pop	 ebp
  0010f	c2 0c 00	 ret	 12			; 0000000cH
?OnLButtonDblClk@CFloatingHogaDlg@@IAEXIVCPoint@@@Z ENDP ; CFloatingHogaDlg::OnLButtonDblClk
_TEXT	ENDS
; Function compile flags: /Ogtp
; File D:\git\src\IBK\IBK_DRFN\ProjSrc\SrcDrfn\Chart\MULTICHART\FloatingHogaDlg.cpp
; File C:\Program Files (x86)\Microsoft Visual Studio\2019\Community\VC\Tools\MSVC\14.29.30133\atlmfc\include\afxwin2.inl
; File D:\git\src\IBK\IBK_DRFN\ProjSrc\SrcDrfn\Chart\MULTICHART\FloatingHogaDlg.cpp
; File C:\Program Files (x86)\Microsoft Visual Studio\2019\Community\VC\Tools\MSVC\14.29.30133\atlmfc\include\afxwin2.inl
; File C:\Program Files (x86)\Microsoft Visual Studio\2019\Community\VC\Tools\MSVC\14.29.30133\atlmfc\include\atltypes.h
; File C:\Program Files (x86)\Microsoft Visual Studio\2019\Community\VC\Tools\MSVC\14.29.30133\atlmfc\include\afxwin2.inl
; File D:\git\src\IBK\IBK_DRFN\ProjSrc\SrcDrfn\Chart\MULTICHART\FloatingHogaDlg.cpp
; File C:\Program Files (x86)\Microsoft Visual Studio\2019\Community\VC\Tools\MSVC\14.29.30133\atlmfc\include\afxwin2.inl
; File D:\git\src\IBK\IBK_DRFN\ProjSrc\SrcDrfn\Chart\MULTICHART\FloatingHogaDlg.cpp
; File C:\Program Files (x86)\Microsoft Visual Studio\2019\Community\VC\Tools\MSVC\14.29.30133\atlmfc\include\afxwin2.inl
; File D:\git\src\IBK\IBK_DRFN\ProjSrc\SrcDrfn\Chart\MULTICHART\FloatingHogaDlg.cpp
; File C:\Program Files (x86)\Microsoft Visual Studio\2019\Community\VC\Tools\MSVC\14.29.30133\atlmfc\include\afxwin2.inl
; File D:\git\src\IBK\IBK_DRFN\ProjSrc\SrcDrfn\Chart\MULTICHART\FloatingHogaDlg.cpp
;	COMDAT ?OnInitDialog@CFloatingHogaDlg@@MAEHXZ
_TEXT	SEGMENT
_pGateMng$ = -72					; size = 4
$T2 = -68						; size = 4
_szClipFormat$3 = -64					; size = 4
_trect$ = -60						; size = 16
_rect$ = -44						; size = 16
_aBufWnd$4 = -28					; size = 9
__$ArrayPad$ = -16					; size = 4
__$EHRec$ = -12						; size = 12
?OnInitDialog@CFloatingHogaDlg@@MAEHXZ PROC		; CFloatingHogaDlg::OnInitDialog, COMDAT
; _this$ = ecx

; 174  : {

  00000	55		 push	 ebp
  00001	8b ec		 mov	 ebp, esp
  00003	6a ff		 push	 -1
  00005	68 00 00 00 00	 push	 __ehhandler$?OnInitDialog@CFloatingHogaDlg@@MAEHXZ
  0000a	64 a1 00 00 00
	00		 mov	 eax, DWORD PTR fs:0
  00010	50		 push	 eax
  00011	83 ec 3c	 sub	 esp, 60			; 0000003cH
  00014	a1 00 00 00 00	 mov	 eax, DWORD PTR ___security_cookie
  00019	33 c5		 xor	 eax, ebp
  0001b	89 45 f0	 mov	 DWORD PTR __$ArrayPad$[ebp], eax
  0001e	56		 push	 esi
  0001f	57		 push	 edi
  00020	50		 push	 eax
  00021	8d 45 f4	 lea	 eax, DWORD PTR __$EHRec$[ebp]
  00024	64 a3 00 00 00
	00		 mov	 DWORD PTR fs:0, eax
  0002a	8b f9		 mov	 edi, ecx

; 175  : 	CDialog::OnInitDialog();

  0002c	e8 00 00 00 00	 call	 ?OnInitDialog@CDialog@@UAEHXZ ; CDialog::OnInitDialog

; 176  : 
; 177  : 
; 178  : 	//m_staticSymbol.SetBkColor(RGB(255,0,0));
; 179  : 	//m_staticSymbol.SetBkColor(RGB(90,167,115));
; 180  : 	m_staticSymbol.SetBkColor(RGB(185,205,230));

  00031	8b 87 70 03 00
	00		 mov	 eax, DWORD PTR [edi+880]
  00037	8d b7 70 03 00
	00		 lea	 esi, DWORD PTR [edi+880]
  0003d	6a 00		 push	 0
  0003f	6a 00		 push	 0
  00041	68 b9 cd e6 00	 push	 15125945		; 00e6cdb9H
  00046	8b ce		 mov	 ecx, esi
  00048	ff 90 78 01 00
	00		 call	 DWORD PTR [eax+376]

; 181  : 	m_staticSymbol.SetBkColor(RGB(92,135,183));

  0004e	8b 06		 mov	 eax, DWORD PTR [esi]
  00050	8b ce		 mov	 ecx, esi
  00052	6a 00		 push	 0
  00054	6a 00		 push	 0
  00056	68 5c 87 b7 00	 push	 12027740		; 00b7875cH
  0005b	ff 90 78 01 00
	00		 call	 DWORD PTR [eax+376]

; 182  : 	//m_staticSymbol.SetBkColor(RGB(205,175,224));
; 183  : 	m_staticSymbol.SetTextColor(CLR_FONT_DEFAULT);

  00061	8b 06		 mov	 eax, DWORD PTR [esi]
  00063	8b ce		 mov	 ecx, esi
  00065	68 00 00 01 00	 push	 65536			; 00010000H
  0006a	ff 90 7c 01 00
	00		 call	 DWORD PTR [eax+380]

; 184  : 	m_staticSymbol.SetTextColor(RGB(255,255,255));

  00070	8b 06		 mov	 eax, DWORD PTR [esi]
  00072	8b ce		 mov	 ecx, esi
  00074	68 ff ff ff 00	 push	 16777215		; 00ffffffH
  00079	ff 90 7c 01 00
	00		 call	 DWORD PTR [eax+380]

; 185  : 
; 186  : 	m_staitcTilte.SetBkColor(RGB(255,255,255));

  0007f	8b 87 a8 04 00
	00		 mov	 eax, DWORD PTR [edi+1192]
  00085	8d b7 a8 04 00
	00		 lea	 esi, DWORD PTR [edi+1192]
  0008b	6a 00		 push	 0
  0008d	6a 00		 push	 0
  0008f	68 ff ff ff 00	 push	 16777215		; 00ffffffH
  00094	8b ce		 mov	 ecx, esi
  00096	ff 90 78 01 00
	00		 call	 DWORD PTR [eax+376]

; 187  : 	m_staitcTilte.SetTextColor(RGB(61,57,57));

  0009c	8b 06		 mov	 eax, DWORD PTR [esi]
  0009e	8b ce		 mov	 ecx, esi
  000a0	68 3d 39 39 00	 push	 3750205			; 0039393dH
  000a5	ff 90 7c 01 00
	00		 call	 DWORD PTR [eax+380]

; 188  : 	//m_staitcTilte.SetTextColor(RGB(0,0,255));
; 189  : 	m_staitcTilte.SetText("5 ");

  000ab	68 00 00 00 00	 push	 OFFSET ??_C@_08FKDHAHKC@5?H?$KD?$LA?$KB?5?C?$KC@
  000b0	8d 4d bc	 lea	 ecx, DWORD PTR $T2[ebp]
  000b3	ff 15 00 00 00
	00		 call	 DWORD PTR __imp_??0?$CStringT@DV?$StrTraitMFC_DLL@DV?$ChTraitsCRT@D@ATL@@@@@ATL@@QAE@PBD@Z
  000b9	8b 06		 mov	 eax, DWORD PTR [esi]
  000bb	8d 4d bc	 lea	 ecx, DWORD PTR $T2[ebp]
  000be	51		 push	 ecx
  000bf	8b ce		 mov	 ecx, esi
  000c1	c7 45 fc 00 00
	00 00		 mov	 DWORD PTR __$EHRec$[ebp+8], 0
  000c8	ff 90 80 01 00
	00		 call	 DWORD PTR [eax+384]
  000ce	8d 4d bc	 lea	 ecx, DWORD PTR $T2[ebp]
  000d1	c7 45 fc ff ff
	ff ff		 mov	 DWORD PTR __$EHRec$[ebp+8], -1
  000d8	ff 15 00 00 00
	00		 call	 DWORD PTR __imp_??1?$CStringT@DV?$StrTraitMFC_DLL@DV?$ChTraitsCRT@D@ATL@@@@@ATL@@QAE@XZ
; File C:\Program Files (x86)\Microsoft Visual Studio\2019\Community\VC\Tools\MSVC\14.29.30133\atlmfc\include\afxwin2.inl

; 25   : 	{ return this == NULL ? NULL : m_hWnd; }

  000de	8b 4f 20	 mov	 ecx, DWORD PTR [edi+32]
; File D:\git\src\IBK\IBK_DRFN\ProjSrc\SrcDrfn\Chart\MULTICHART\FloatingHogaDlg.cpp

; 193  : 	if(GetSafeHwnd())

  000e1	8d b7 20 02 00
	00		 lea	 esi, DWORD PTR [edi+544]
  000e7	a1 00 00 00 00	 mov	 eax, DWORD PTR __imp__GetWindowRect@8
  000ec	85 c9		 test	 ecx, ecx
  000ee	74 09		 je	 SHORT $LN50@OnInitDial
; File C:\Program Files (x86)\Microsoft Visual Studio\2019\Community\VC\Tools\MSVC\14.29.30133\atlmfc\include\afxwin2.inl

; 84   : 	{ ASSERT(::IsWindow(m_hWnd)); ::GetWindowRect(m_hWnd, lpRect); }

  000f0	56		 push	 esi
  000f1	51		 push	 ecx
  000f2	ff d0		 call	 eax
  000f4	a1 00 00 00 00	 mov	 eax, DWORD PTR __imp__GetWindowRect@8
$LN50@OnInitDial:
  000f9	8d 4d d4	 lea	 ecx, DWORD PTR _rect$[ebp]
  000fc	0f 57 c0	 xorps	 xmm0, xmm0
  000ff	51		 push	 ecx
  00100	ff b7 90 03 00
	00		 push	 DWORD PTR [edi+912]
; File C:\Program Files (x86)\Microsoft Visual Studio\2019\Community\VC\Tools\MSVC\14.29.30133\atlmfc\include\atltypes.h

; 540  : 	left = l;

  00106	0f 11 45 d4	 movups	 XMMWORD PTR _rect$[ebp], xmm0
; File C:\Program Files (x86)\Microsoft Visual Studio\2019\Community\VC\Tools\MSVC\14.29.30133\atlmfc\include\afxwin2.inl

; 84   : 	{ ASSERT(::IsWindow(m_hWnd)); ::GetWindowRect(m_hWnd, lpRect); }

  0010a	ff d0		 call	 eax
  0010c	56		 push	 esi
  0010d	ff 77 20	 push	 DWORD PTR [edi+32]
  00110	ff 15 00 00 00
	00		 call	 DWORD PTR __imp__GetWindowRect@8
; File D:\git\src\IBK\IBK_DRFN\ProjSrc\SrcDrfn\Chart\MULTICHART\FloatingHogaDlg.cpp

; 203  : 	trect.left		= rect.left	;

  00116	0f 10 45 d4	 movups	 xmm0, XMMWORD PTR _rect$[ebp]

; 204  : 	trect.top		= rect.top	;
; 205  : 	trect.right		= rect.right;	
; 206  : 	trect.bottom	= rect.bottom;
; 207  : 	
; 208  : 	ScreenToClient(trect);

  0011a	8d 45 c4	 lea	 eax, DWORD PTR _trect$[ebp]
  0011d	8b cf		 mov	 ecx, edi
  0011f	50		 push	 eax
  00120	0f 11 45 c4	 movups	 XMMWORD PTR _trect$[ebp], xmm0
  00124	e8 00 00 00 00	 call	 ?ScreenToClient@CWnd@@QBEXPAUtagRECT@@@Z ; CWnd::ScreenToClient

; 209  : 	if(m_bIconState)	

  00129	83 bf 1c 02 00
	00 00		 cmp	 DWORD PTR [edi+540], 0
  00130	74 29		 je	 SHORT $LN3@OnInitDial
; File C:\Program Files (x86)\Microsoft Visual Studio\2019\Community\VC\Tools\MSVC\14.29.30133\atlmfc\include\afxwin2.inl

; 213  : 	{ ASSERT(::IsWindow(m_hWnd)); return CWnd::FromHandle(::GetParent(m_hWnd)); }

  00132	ff 77 20	 push	 DWORD PTR [edi+32]
  00135	ff 15 00 00 00
	00		 call	 DWORD PTR __imp__GetParent@4
  0013b	50		 push	 eax
  0013c	e8 00 00 00 00	 call	 ?FromHandle@CWnd@@SGPAV1@PAUHWND__@@@Z ; CWnd::FromHandle
; File D:\git\src\IBK\IBK_DRFN\ProjSrc\SrcDrfn\Chart\MULTICHART\FloatingHogaDlg.cpp

; 213  : 		m_dlgOriRect.bottom = m_dlgOriRect.top + rect.Height();											

  00141	8b 87 24 02 00
	00		 mov	 eax, DWORD PTR [edi+548]
  00147	2b 45 d8	 sub	 eax, DWORD PTR _rect$[ebp+4]
  0014a	8b 8f 20 02 00
	00		 mov	 ecx, DWORD PTR [edi+544]
  00150	2b 4d d4	 sub	 ecx, DWORD PTR _rect$[ebp]
  00153	03 45 e0	 add	 eax, DWORD PTR _rect$[ebp+12]
  00156	03 4d dc	 add	 ecx, DWORD PTR _rect$[ebp+8]

; 214  : 	}

  00159	eb 17		 jmp	 SHORT $LN4@OnInitDial
$LN3@OnInitDial:

; 215  : 	else
; 216  : 	{	
; 217  : 		m_dlgOriRect.right	= m_dlgOriRect.left	+ DLG_WIDTH;
; 218  : 		m_dlgOriRect.bottom	= m_dlgOriRect.top	+ DLG_HEIGHT;			

  0015b	8b 87 24 02 00
	00		 mov	 eax, DWORD PTR [edi+548]
  00161	8b 8f 20 02 00
	00		 mov	 ecx, DWORD PTR [edi+544]
  00167	05 f3 00 00 00	 add	 eax, 243		; 000000f3H
  0016c	81 c1 de 00 00
	00		 add	 ecx, 222		; 000000deH
$LN4@OnInitDial:

; 219  : 	}
; 220  : 	
; 221  : 	if(m_pMainDlg)

  00172	89 8f 28 02 00
	00		 mov	 DWORD PTR [edi+552], ecx
  00178	89 87 2c 02 00
	00		 mov	 DWORD PTR [edi+556], eax
  0017e	8b 8f 34 02 00
	00		 mov	 ecx, DWORD PTR [edi+564]
  00184	85 c9		 test	 ecx, ecx
  00186	74 1b		 je	 SHORT $LN5@OnInitDial

; 222  : 		m_pMainDlg->SendMessage(USMG_PLEASE_RESIZE, m_bIconState ? 1:0, (LPARAM)&m_dlgOriRect);

  00188	33 c0		 xor	 eax, eax
  0018a	39 87 1c 02 00
	00		 cmp	 DWORD PTR [edi+540], eax
; File C:\Program Files (x86)\Microsoft Visual Studio\2019\Community\VC\Tools\MSVC\14.29.30133\atlmfc\include\afxwin2.inl

; 32   : 	{ ASSERT(::IsWindow(m_hWnd)); return ::SendMessage(m_hWnd, message, wParam, lParam); }

  00190	56		 push	 esi
; File D:\git\src\IBK\IBK_DRFN\ProjSrc\SrcDrfn\Chart\MULTICHART\FloatingHogaDlg.cpp

; 222  : 		m_pMainDlg->SendMessage(USMG_PLEASE_RESIZE, m_bIconState ? 1:0, (LPARAM)&m_dlgOriRect);

  00191	0f 95 c0	 setne	 al
; File C:\Program Files (x86)\Microsoft Visual Studio\2019\Community\VC\Tools\MSVC\14.29.30133\atlmfc\include\afxwin2.inl

; 32   : 	{ ASSERT(::IsWindow(m_hWnd)); return ::SendMessage(m_hWnd, message, wParam, lParam); }

  00194	50		 push	 eax
  00195	68 96 04 00 00	 push	 1174			; 00000496H
  0019a	ff 71 20	 push	 DWORD PTR [ecx+32]
  0019d	ff 15 00 00 00
	00		 call	 DWORD PTR __imp__SendMessageA@16
$LN5@OnInitDial:
  001a3	0f 57 c0	 xorps	 xmm0, xmm0
; File D:\git\src\IBK\IBK_DRFN\ProjSrc\SrcDrfn\Chart\MULTICHART\FloatingHogaDlg.cpp

; 225  : 	IGateManager* pGateMng;	AfxGetIGateManager(pGateMng);

  001a6	c7 45 b8 00 00
	00 00		 mov	 DWORD PTR _pGateMng$[ebp], 0
  001ad	8d 4d c0	 lea	 ecx, DWORD PTR _szClipFormat$3[ebp]
  001b0	66 0f d6 45 e4	 movq	 QWORD PTR _aBufWnd$4[ebp], xmm0
  001b5	c6 45 ec 00	 mov	 BYTE PTR _aBufWnd$4[ebp+8], 0
  001b9	ff 15 00 00 00
	00		 call	 DWORD PTR __imp_??0?$CStringT@DV?$StrTraitMFC_DLL@DV?$ChTraitsCRT@D@ATL@@@@@ATL@@QAE@XZ
  001bf	68 00 00 00 00	 push	 OFFSET ??_C@_0M@CBBNGGHM@PcTrMng?4dll@
  001c4	c7 45 fc 01 00
	00 00		 mov	 DWORD PTR __$EHRec$[ebp+8], 1
  001cb	ff 15 00 00 00
	00		 call	 DWORD PTR __imp__GetModuleHandleA@4
  001d1	50		 push	 eax
  001d2	68 00 00 00 00	 push	 OFFSET ??_C@_0BD@CMCCCNBF@HANAROIGATEMANAGER@
  001d7	8d 45 c0	 lea	 eax, DWORD PTR _szClipFormat$3[ebp]
  001da	68 00 00 00 00	 push	 OFFSET ??_C@_06NDLAHCHE@?$CFs?$CF08X@
  001df	50		 push	 eax
  001e0	ff 15 00 00 00
	00		 call	 DWORD PTR __imp_?Format@?$CStringT@DV?$StrTraitMFC_DLL@DV?$ChTraitsCRT@D@ATL@@@@@ATL@@QAAXPBDZZ
  001e6	83 c4 10	 add	 esp, 16			; 00000010H
  001e9	8d 45 e4	 lea	 eax, DWORD PTR _aBufWnd$4[ebp]
  001ec	6a 09		 push	 9
  001ee	50		 push	 eax
  001ef	ff 75 c0	 push	 DWORD PTR _szClipFormat$3[ebp]
  001f2	ff 15 00 00 00
	00		 call	 DWORD PTR __imp__GetEnvironmentVariableA@12
  001f8	8d 45 b8	 lea	 eax, DWORD PTR _pGateMng$[ebp]
  001fb	50		 push	 eax
  001fc	8d 45 e4	 lea	 eax, DWORD PTR _aBufWnd$4[ebp]
  001ff	68 00 00 00 00	 push	 OFFSET ??_C@_02EMFKHFLK@?$CFX@
  00204	50		 push	 eax
  00205	e8 00 00 00 00	 call	 _sscanf
  0020a	83 c4 0c	 add	 esp, 12			; 0000000cH
  0020d	c7 45 fc ff ff
	ff ff		 mov	 DWORD PTR __$EHRec$[ebp+8], -1
  00214	8d 4d c0	 lea	 ecx, DWORD PTR _szClipFormat$3[ebp]
  00217	ff 15 00 00 00
	00		 call	 DWORD PTR __imp_??1?$CStringT@DV?$StrTraitMFC_DLL@DV?$ChTraitsCRT@D@ATL@@@@@ATL@@QAE@XZ

; 2514 : 	IAUDrdsManager* pDrdsMng = (IAUDrdsManager*)AfxGetPctrInterface(UUID_IAUDrdsManager);

  0021d	6a 13		 push	 19			; 00000013H
  0021f	e8 00 00 00 00	 call	 ?AfxGetPctrInterface@@YGJH@Z ; AfxGetPctrInterface

; 2515 : 	if(!pDrdsMng) return FALSE;

  00224	85 c0		 test	 eax, eax
  00226	74 17		 je	 SHORT $LN52@OnInitDial

; 2516 : 
; 2517 : 	m_pDrdsLib = pDrdsMng->AdviseDrdsLib();

  00228	8b 08		 mov	 ecx, DWORD PTR [eax]
  0022a	50		 push	 eax
  0022b	ff 11		 call	 DWORD PTR [ecx]
  0022d	89 87 60 06 00
	00		 mov	 DWORD PTR [edi+1632], eax

; 2518 : 	if(!m_pDrdsLib) return FALSE;

  00233	85 c0		 test	 eax, eax
  00235	74 08		 je	 SHORT $LN52@OnInitDial

; 2519 : 
; 2520 : 	m_pDrdsLib->DrdsInit(m_hWnd);

  00237	ff 77 20	 push	 DWORD PTR [edi+32]
  0023a	8b 08		 mov	 ecx, DWORD PTR [eax]
  0023c	50		 push	 eax
  0023d	ff 11		 call	 DWORD PTR [ecx]
$LN52@OnInitDial:

; 226  : 	//@solomon	20091113	-->>
; 227  : 	/*
; 228  : 	if(pGateMng != NULL)
; 229  : 	{
; 230  : 		IMainInfoManager* pManager = (IMainInfoManager*)pGateMng->GetInterface(nID);
; 231  : 		CString strImageDir;
; 232  : 		//solomon-090825 strImageDir.Format("%s\\Image\\Chart\\W38_h21.bmp", pManager->GetRootDir());
; 233  : 		strImageDir.Format("%s\\Image\\Chart\\W38_h21.bmp", pManager->GetDataDir());
; 234  : 
; 235  : 		CBitmap bitmap;
; 236  : 		bitmap.Attach((HBITMAP)LoadImage(NULL, (LPSTR)(LPCTSTR)strImageDir, IMAGE_BITMAP, 0, 0, LR_LOADFROMFILE|LR_CREATEDIBSECTION|LR_DEFAULTSIZE));
; 237  : 		m_ImageListOrder.Create(38, 21, ILC_MASK | ILC_COLORDDB, 1, 1);
; 238  : 		m_ImageListOrder.Add(&bitmap, RGB(255, 0, 255));
; 239  : 		bitmap.DeleteObject();
; 240  : 
; 241  : 		m_ctrlButtonSell.FP_vSetImage(&m_ImageListOrder, 0, 1);
; 242  : 		m_ctrlButtonBuy.FP_vSetImage(&m_ImageListOrder, 3, 4);
; 243  : 	}
; 244  : 	*/
; 245  : 	//@solomon	20091113	<<--
; 246  : 
; 247  : 	//
; 248  : 	//InitGrid();
; 249  : 	
; 250  : 	 
; 251  : 
; 252  : //    //   WS_EX_LAYERED 
; 253  : //
; 254  : //    ModifyStyleEx(0, WS_EX_LAYERED);
; 255  : //
; 256  : // 
; 257  : //
; 258  : //    // user32.dll  SetLayeredWindowAttributes()  
; 259  : //
; 260  : //    HMODULE hUserDll = ::LoadLibrary(_T("USER32.dll"));
; 261  : //
; 262  : //    typedef BOOL (WINAPI* LPSETTRANSPARENT)(HWND hWnd, COLORREF crKey, BYTE bAlpha, DWORD dwFlags);
; 263  : //
; 264  : // 
; 265  : //
; 266  : //    LPSETTRANSPARENT lpSetTransparent = NULL;
; 267  : //
; 268  : //    lpSetTransparent  = (LPSETTRANSPARENT)::GetProcAddress(hUserDll, "SetLayeredWindowAttributes");
; 269  : //
; 270  : // 
; 271  : //
; 272  : //    if(lpSetTransparent)
; 273  : //
; 274  : //        // SetLayeredWindowAttributes()  .
; 275  : //
; 276  : //        //   0 ~ 255  
; 277  : //
; 278  : //        lpSetTransparent(m_hWnd, NULL, 200, LWA_ALPHA);
; 279  : //
; 280  : // 
; 281  : //
; 282  : //    // user32.dll 
; 283  : //
; 284  : //    ::FreeLibrary(hUserDll);
; 285  : 
; 286  : 	MakeDrdsConnectAdvise();
; 287  : 
; 288  : 	return TRUE;  // return TRUE unless you set the focus to a control
; 289  : 	              // EXCEPTION: OCX Property Pages should return FALSE
; 290  : }

  0023f	b8 01 00 00 00	 mov	 eax, 1
  00244	8b 4d f4	 mov	 ecx, DWORD PTR __$EHRec$[ebp]
  00247	64 89 0d 00 00
	00 00		 mov	 DWORD PTR fs:0, ecx
  0024e	59		 pop	 ecx
  0024f	5f		 pop	 edi
  00250	5e		 pop	 esi
  00251	8b 4d f0	 mov	 ecx, DWORD PTR __$ArrayPad$[ebp]
  00254	33 cd		 xor	 ecx, ebp
  00256	e8 00 00 00 00	 call	 @__security_check_cookie@4
  0025b	8b e5		 mov	 esp, ebp
  0025d	5d		 pop	 ebp
  0025e	c3		 ret	 0
_TEXT	ENDS
;	COMDAT text$x
text$x	SEGMENT
__unwindfunclet$?OnInitDialog@CFloatingHogaDlg@@MAEHXZ$0:
  00000	8d 4d bc	 lea	 ecx, DWORD PTR $T2[ebp]
  00003	ff 25 00 00 00
	00		 jmp	 DWORD PTR __imp_??1?$CStringT@DV?$StrTraitMFC_DLL@DV?$ChTraitsCRT@D@ATL@@@@@ATL@@QAE@XZ
__unwindfunclet$?OnInitDialog@CFloatingHogaDlg@@MAEHXZ$1:
  00009	8d 4d c0	 lea	 ecx, DWORD PTR _szClipFormat$3[ebp]
  0000c	ff 25 00 00 00
	00		 jmp	 DWORD PTR __imp_??1?$CStringT@DV?$StrTraitMFC_DLL@DV?$ChTraitsCRT@D@ATL@@@@@ATL@@QAE@XZ
  00012	cc		 int	 3
  00013	cc		 int	 3
  00014	cc		 int	 3
  00015	cc		 int	 3
  00016	cc		 int	 3
__ehhandler$?OnInitDialog@CFloatingHogaDlg@@MAEHXZ:
  00017	90		 npad	 1
  00018	90		 npad	 1
  00019	8b 54 24 08	 mov	 edx, DWORD PTR [esp+8]
  0001d	8d 42 0c	 lea	 eax, DWORD PTR [edx+12]
  00020	8b 4a b8	 mov	 ecx, DWORD PTR [edx-72]
  00023	33 c8		 xor	 ecx, eax
  00025	e8 00 00 00 00	 call	 @__security_check_cookie@4
  0002a	8b 4a fc	 mov	 ecx, DWORD PTR [edx-4]
  0002d	33 c8		 xor	 ecx, eax
  0002f	e8 00 00 00 00	 call	 @__security_check_cookie@4
  00034	b8 00 00 00 00	 mov	 eax, OFFSET __ehfuncinfo$?OnInitDialog@CFloatingHogaDlg@@MAEHXZ
  00039	e9 00 00 00 00	 jmp	 ___CxxFrameHandler3
text$x	ENDS
?OnInitDialog@CFloatingHogaDlg@@MAEHXZ ENDP		; CFloatingHogaDlg::OnInitDialog
; Function compile flags: /Ogtp
; File D:\git\src\IBK\IBK_DRFN\ProjSrc\SrcDrfn\Chart\MULTICHART\FloatingHogaDlg.cpp
; File C:\Program Files (x86)\Microsoft Visual Studio\2019\Community\VC\Tools\MSVC\14.29.30133\atlmfc\include\afxwin2.inl
; File D:\git\src\IBK\IBK_DRFN\ProjSrc\SrcDrfn\Chart\MULTICHART\FloatingHogaDlg.cpp
;	COMDAT ?OnSize@CFloatingHogaDlg@@IAEXIHH@Z
_TEXT	SEGMENT
_nType$ = 8						; size = 4
_cx$ = 12						; size = 4
_cy$ = 16						; size = 4
?OnSize@CFloatingHogaDlg@@IAEXIHH@Z PROC		; CFloatingHogaDlg::OnSize, COMDAT
; _this$ = ecx

; 156  : {	

  00000	55		 push	 ebp
  00001	8b ec		 mov	 ebp, esp
  00003	56		 push	 esi
  00004	8b f1		 mov	 esi, ecx
; File C:\Program Files (x86)\Microsoft Visual Studio\2019\Community\VC\Tools\MSVC\14.29.30133\atlmfc\include\afxwin2.inl

; 330  : 	{ Default(); }

  00006	e8 00 00 00 00	 call	 ?Default@CWnd@@IAEJXZ	; CWnd::Default
; File D:\git\src\IBK\IBK_DRFN\ProjSrc\SrcDrfn\Chart\MULTICHART\FloatingHogaDlg.cpp

; 159  : 	if(cy>100 && m_dlgOriRect.bottom>0)

  0000b	83 7d 10 64	 cmp	 DWORD PTR _cy$[ebp], 100 ; 00000064H
  0000f	7e 19		 jle	 SHORT $LN3@OnSize
  00011	83 be 2c 02 00
	00 00		 cmp	 DWORD PTR [esi+556], 0
  00018	7e 10		 jle	 SHORT $LN3@OnSize

; 160  : 	{
; 161  : 		if(m_pGridCtrl == NULL)

  0001a	83 be cc 00 00
	00 00		 cmp	 DWORD PTR [esi+204], 0
  00021	75 07		 jne	 SHORT $LN3@OnSize

; 162  : 			InitGrid();

  00023	8b ce		 mov	 ecx, esi
  00025	e8 00 00 00 00	 call	 ?InitGrid@CFloatingHogaDlg@@QAEXXZ ; CFloatingHogaDlg::InitGrid
$LN3@OnSize:
  0002a	5e		 pop	 esi

; 163  : 	}
; 164  : 	//if(m_hBitmap)
; 165  : 	//{
; 166  : 	//	DeleteObject(m_hBitmap);
; 167  : 	//	m_hBitmap = NULL;
; 168  : 	//}
; 169  : }

  0002b	5d		 pop	 ebp
  0002c	c2 0c 00	 ret	 12			; 0000000cH
?OnSize@CFloatingHogaDlg@@IAEXIHH@Z ENDP		; CFloatingHogaDlg::OnSize
_TEXT	ENDS
; Function compile flags: /Ogtp
; File D:\git\src\IBK\IBK_DRFN\ProjSrc\SrcDrfn\Chart\MULTICHART\FloatingHogaDlg.cpp
; File C:\Program Files (x86)\Microsoft Visual Studio\2019\Community\VC\Tools\MSVC\14.29.30133\atlmfc\include\afxwin2.inl
; File D:\git\src\IBK\IBK_DRFN\ProjSrc\SrcDrfn\Chart\MULTICHART\FloatingHogaDlg.cpp
; File C:\Program Files (x86)\Microsoft Visual Studio\2019\Community\VC\Tools\MSVC\14.29.30133\atlmfc\include\afxwin2.inl
; File D:\git\src\IBK\IBK_DRFN\ProjSrc\SrcDrfn\Chart\MULTICHART\FloatingHogaDlg.cpp
;	COMDAT ?OnLButtonDown@CFloatingHogaDlg@@IAEXIVCPoint@@@Z
_TEXT	SEGMENT
_nFlags$ = 8						; size = 4
_point$ = 12						; size = 8
?OnLButtonDown@CFloatingHogaDlg@@IAEXIVCPoint@@@Z PROC	; CFloatingHogaDlg::OnLButtonDown, COMDAT
; _this$ = ecx

; 362  : {

  00000	55		 push	 ebp
  00001	8b ec		 mov	 ebp, esp
  00003	56		 push	 esi
  00004	8b f1		 mov	 esi, ecx
; File C:\Program Files (x86)\Microsoft Visual Studio\2019\Community\VC\Tools\MSVC\14.29.30133\atlmfc\include\afxwin2.inl

; 432  : 	{ Default(); }

  00006	e8 00 00 00 00	 call	 ?Default@CWnd@@IAEJXZ	; CWnd::Default
; File D:\git\src\IBK\IBK_DRFN\ProjSrc\SrcDrfn\Chart\MULTICHART\FloatingHogaDlg.cpp

; 369  : 	PostMessage( WM_NCLBUTTONDOWN, HTCAPTION, MAKELPARAM( point.x, point.y));

  0000b	0f b7 55 10	 movzx	 edx, WORD PTR _point$[ebp+4]
  0000f	0f b7 45 0c	 movzx	 eax, WORD PTR _point$[ebp]
  00013	c1 e2 10	 shl	 edx, 16			; 00000010H
  00016	0b d0		 or	 edx, eax
; File C:\Program Files (x86)\Microsoft Visual Studio\2019\Community\VC\Tools\MSVC\14.29.30133\atlmfc\include\afxwin2.inl

; 39   : 	{ ASSERT(::IsWindow(m_hWnd)); return ::PostMessage(m_hWnd, message, wParam, lParam); }

  00018	52		 push	 edx
  00019	6a 02		 push	 2
  0001b	68 a1 00 00 00	 push	 161			; 000000a1H
  00020	ff 76 20	 push	 DWORD PTR [esi+32]
  00023	ff 15 00 00 00
	00		 call	 DWORD PTR __imp__PostMessageA@16
  00029	5e		 pop	 esi
; File D:\git\src\IBK\IBK_DRFN\ProjSrc\SrcDrfn\Chart\MULTICHART\FloatingHogaDlg.cpp

; 370  : }

  0002a	5d		 pop	 ebp
  0002b	c2 0c 00	 ret	 12			; 0000000cH
?OnLButtonDown@CFloatingHogaDlg@@IAEXIVCPoint@@@Z ENDP	; CFloatingHogaDlg::OnLButtonDown
_TEXT	ENDS
; Function compile flags: /Ogtp
; File D:\git\src\IBK\IBK_DRFN\ProjSrc\SrcDrfn\Chart\MULTICHART\FloatingHogaDlg.cpp
; File C:\Program Files (x86)\Microsoft Visual Studio\2019\Community\VC\Tools\MSVC\14.29.30133\atlmfc\include\atlsimpstr.h
; File D:\git\src\IBK\IBK_DRFN\ProjSrc\SrcDrfn\Chart\MULTICHART\FloatingHogaDlg.cpp
; File C:\Program Files (x86)\Microsoft Visual Studio\2019\Community\VC\Tools\MSVC\14.29.30133\atlmfc\include\atlsimpstr.h
; File D:\git\src\IBK\IBK_DRFN\ProjSrc\SrcDrfn\Chart\MULTICHART\FloatingHogaDlg.cpp
;	COMDAT ?WindowProc@CFloatingHogaDlg@@MAEJIIJ@Z
_TEXT	SEGMENT
$T1 = 8							; size = 4
_message$ = 8						; size = 4
_wParam$ = 12						; size = 4
_lParam$ = 16						; size = 4
?WindowProc@CFloatingHogaDlg@@MAEJIIJ@Z PROC		; CFloatingHogaDlg::WindowProc, COMDAT
; _this$ = ecx

; 293  : {

  00000	55		 push	 ebp
  00001	8b ec		 mov	 ebp, esp
  00003	56		 push	 esi
  00004	57		 push	 edi

; 294  : 	// TODO: Add your specialized code here and/or call the base class
; 295  : 	switch(message)

  00005	8b 7d 08	 mov	 edi, DWORD PTR _message$[ebp]
  00008	8b f1		 mov	 esi, ecx
  0000a	81 ff 03 04 00
	00		 cmp	 edi, 1027		; 00000403H
  00010	74 1e		 je	 SHORT $LN4@WindowProc
  00012	81 ff f7 14 00
	00		 cmp	 edi, 5367		; 000014f7H
  00018	0f 84 c3 00 00
	00		 je	 $LN19@WindowProc

; 307  : 				OnCodeAdvise(m_strCode);	// New Code
; 308  : 			}
; 309  : 		case WM_CLICKLABEL:
; 310  : 			{
; 311  : 				m_bCapTure = FALSE;
; 312  : 			}
; 313  : 			break;
; 314  : 	}
; 315  : 	
; 316  : 	return CDialog::WindowProc(message, wParam, lParam);

  0001e	ff 75 10	 push	 DWORD PTR _lParam$[ebp]
  00021	ff 75 0c	 push	 DWORD PTR _wParam$[ebp]
  00024	57		 push	 edi
  00025	e8 00 00 00 00	 call	 ?WindowProc@CWnd@@MAEJIIJ@Z ; CWnd::WindowProc
  0002a	5f		 pop	 edi
  0002b	5e		 pop	 esi

; 317  : }

  0002c	5d		 pop	 ebp
  0002d	c2 0c 00	 ret	 12			; 0000000cH
$LN4@WindowProc:
; File C:\Program Files (x86)\Microsoft Visual Studio\2019\Community\VC\Tools\MSVC\14.29.30133\atlmfc\include\atlsimpstr.h

; 519  : 		return( GetData()->nDataLength );

  00030	8b 8e c4 00 00
	00		 mov	 ecx, DWORD PTR [esi+196]
  00036	53		 push	 ebx

; 800  : 		return( reinterpret_cast< CStringData* >( m_pszData )-1 );

  00037	8d 9e c4 00 00
	00		 lea	 ebx, DWORD PTR [esi+196]

; 519  : 		return( GetData()->nDataLength );

  0003d	89 4d 08	 mov	 DWORD PTR $T1[ebp], ecx
; File D:\git\src\IBK\IBK_DRFN\ProjSrc\SrcDrfn\Chart\MULTICHART\FloatingHogaDlg.cpp

; 299  : 				if(m_strCode.GetLength()>0) OnCodeUnAdvise(m_strCode);	// Old Code

  00040	83 79 f4 00	 cmp	 DWORD PTR [ecx-12], 0
  00044	7e 38		 jle	 SHORT $LN14@WindowProc

; 2553 : 	if(!m_pDrdsLib) return;

  00046	8b 96 60 06 00
	00		 mov	 edx, DWORD PTR [esi+1632]
  0004c	85 d2		 test	 edx, edx
  0004e	74 2e		 je	 SHORT $LN14@WindowProc

; 2554 : 
; 2555 : 	int nKXH1RealType = 1;	// 1:
; 2556 : 	m_pDrdsLib->DrdsUnadvise(nKXH1RealType, "KXH1", "*", (LPSTR)strCode);

  00050	8b 02		 mov	 eax, DWORD PTR [edx]
  00052	51		 push	 ecx
  00053	68 00 00 00 00	 push	 OFFSET ??_C@_01NBENCBCI@?$CK@
  00058	68 00 00 00 00	 push	 OFFSET ??_C@_04KAJDJNDN@KXH1@
  0005d	6a 01		 push	 1
  0005f	52		 push	 edx
  00060	ff 50 14	 call	 DWORD PTR [eax+20]

; 2557 : 	int nKXYSRealType = 23;	// 1:
; 2558 : 	m_pDrdsLib->DrdsUnadvise(nKXYSRealType, "KXYS", "*", (LPSTR)strCode);

  00063	ff 75 08	 push	 DWORD PTR $T1[ebp]
  00066	8b 86 60 06 00
	00		 mov	 eax, DWORD PTR [esi+1632]
  0006c	68 00 00 00 00	 push	 OFFSET ??_C@_01NBENCBCI@?$CK@
  00071	68 00 00 00 00	 push	 OFFSET ??_C@_04OKLMFNFP@KXYS@
  00076	6a 17		 push	 23			; 00000017H
  00078	8b 08		 mov	 ecx, DWORD PTR [eax]
  0007a	50		 push	 eax
  0007b	ff 51 14	 call	 DWORD PTR [ecx+20]
$LN14@WindowProc:

; 300  : 
; 301  : 				CString* strRecvCode = (CString*)wParam;
; 302  : 				
; 303  : 				stReceiveFromServer* pStR = (stReceiveFromServer*)lParam;				
; 304  : 				m_strOldCode = m_strCode;	// .

  0007e	53		 push	 ebx
  0007f	8d 8e c8 00 00
	00		 lea	 ecx, DWORD PTR [esi+200]
  00085	ff 15 00 00 00
	00		 call	 DWORD PTR __imp_??4?$CStringT@DV?$StrTraitMFC_DLL@DV?$ChTraitsCRT@D@ATL@@@@@ATL@@QAEAAV01@ABV01@@Z

; 305  : 				m_strCode = *strRecvCode;

  0008b	ff 75 0c	 push	 DWORD PTR _wParam$[ebp]
  0008e	8b cb		 mov	 ecx, ebx
  00090	ff 15 00 00 00
	00		 call	 DWORD PTR __imp_??4?$CStringT@DV?$StrTraitMFC_DLL@DV?$ChTraitsCRT@D@ATL@@@@@ATL@@QAEAAV01@ABV01@@Z

; 306  : 				SetHogaData((char*)pStR->m_pBuffer,pStR->m_dwLength);

  00096	8b 45 10	 mov	 eax, DWORD PTR _lParam$[ebp]
  00099	8b ce		 mov	 ecx, esi
  0009b	6a 00		 push	 0
  0009d	ff 70 08	 push	 DWORD PTR [eax+8]
  000a0	ff 70 04	 push	 DWORD PTR [eax+4]
  000a3	e8 00 00 00 00	 call	 ?SetHogaData@CFloatingHogaDlg@@QAEXPADHH@Z ; CFloatingHogaDlg::SetHogaData

; 2543 : 	if(!m_pDrdsLib) return;

  000a8	8b 8e 60 06 00
	00		 mov	 ecx, DWORD PTR [esi+1632]
; File C:\Program Files (x86)\Microsoft Visual Studio\2019\Community\VC\Tools\MSVC\14.29.30133\atlmfc\include\atlsimpstr.h

; 377  : 		return( m_pszData );

  000ae	8b 1b		 mov	 ebx, DWORD PTR [ebx]
; File D:\git\src\IBK\IBK_DRFN\ProjSrc\SrcDrfn\Chart\MULTICHART\FloatingHogaDlg.cpp

; 2543 : 	if(!m_pDrdsLib) return;

  000b0	85 c9		 test	 ecx, ecx
  000b2	74 2c		 je	 SHORT $LN22@WindowProc

; 2544 : 
; 2545 : 	int nKXH1RealType = 1;	// 1:
; 2546 : 	m_pDrdsLib->DrdsAdvise(nKXH1RealType, "KXH1", "*", (LPSTR)strCode);

  000b4	8b 01		 mov	 eax, DWORD PTR [ecx]
  000b6	53		 push	 ebx
  000b7	68 00 00 00 00	 push	 OFFSET ??_C@_01NBENCBCI@?$CK@
  000bc	68 00 00 00 00	 push	 OFFSET ??_C@_04KAJDJNDN@KXH1@
  000c1	6a 01		 push	 1
  000c3	51		 push	 ecx
  000c4	ff 50 10	 call	 DWORD PTR [eax+16]

; 2547 : 	int nKXYSRealType = 23;	// 1:
; 2548 : 	m_pDrdsLib->DrdsAdvise(nKXYSRealType, "KXYS", "*", (LPSTR)strCode);

  000c7	8b 86 60 06 00
	00		 mov	 eax, DWORD PTR [esi+1632]
  000cd	53		 push	 ebx
  000ce	68 00 00 00 00	 push	 OFFSET ??_C@_01NBENCBCI@?$CK@
  000d3	68 00 00 00 00	 push	 OFFSET ??_C@_04OKLMFNFP@KXYS@
  000d8	8b 08		 mov	 ecx, DWORD PTR [eax]
  000da	6a 17		 push	 23			; 00000017H
  000dc	50		 push	 eax
  000dd	ff 51 10	 call	 DWORD PTR [ecx+16]
$LN22@WindowProc:
  000e0	5b		 pop	 ebx
$LN19@WindowProc:

; 307  : 				OnCodeAdvise(m_strCode);	// New Code
; 308  : 			}
; 309  : 		case WM_CLICKLABEL:
; 310  : 			{
; 311  : 				m_bCapTure = FALSE;
; 312  : 			}
; 313  : 			break;
; 314  : 	}
; 315  : 	
; 316  : 	return CDialog::WindowProc(message, wParam, lParam);

  000e1	ff 75 10	 push	 DWORD PTR _lParam$[ebp]
  000e4	8b ce		 mov	 ecx, esi
  000e6	c7 86 30 02 00
	00 00 00 00 00	 mov	 DWORD PTR [esi+560], 0
  000f0	ff 75 0c	 push	 DWORD PTR _wParam$[ebp]
  000f3	57		 push	 edi
  000f4	e8 00 00 00 00	 call	 ?WindowProc@CWnd@@MAEJIIJ@Z ; CWnd::WindowProc
  000f9	5f		 pop	 edi
  000fa	5e		 pop	 esi

; 317  : }

  000fb	5d		 pop	 ebp
  000fc	c2 0c 00	 ret	 12			; 0000000cH
?WindowProc@CFloatingHogaDlg@@MAEJIIJ@Z ENDP		; CFloatingHogaDlg::WindowProc
_TEXT	ENDS
; Function compile flags: /Ogtp
; File D:\git\src\IBK\IBK_DRFN\ProjSrc\SrcDrfn\Chart\MULTICHART\FloatingHogaDlg.cpp
;	COMDAT ?DoDataExchange@CFloatingHogaDlg@@MAEXPAVCDataExchange@@@Z
_TEXT	SEGMENT
_pDX$ = 8						; size = 4
?DoDataExchange@CFloatingHogaDlg@@MAEXPAVCDataExchange@@@Z PROC ; CFloatingHogaDlg::DoDataExchange, COMDAT
; _this$ = ecx

; 86   : {

  00000	55		 push	 ebp
  00001	8b ec		 mov	 ebp, esp
  00003	56		 push	 esi
  00004	57		 push	 edi

; 87   : 	CRscDlg::DoDataExchange(pDX);

  00005	8b 7d 08	 mov	 edi, DWORD PTR _pDX$[ebp]
  00008	8b f1		 mov	 esi, ecx
  0000a	57		 push	 edi
  0000b	e8 00 00 00 00	 call	 ?DoDataExchange@CRscDlg@@MAEXPAVCDataExchange@@@Z ; CRscDlg::DoDataExchange

; 88   : 	//{{AFX_DATA_MAP(CFloatingHogaDlg)
; 89   : 	DDX_Control(pDX, IDC_STATIC_FLOTING_GRID, m_staticGridFrame);

  00010	8d 86 38 02 00
	00		 lea	 eax, DWORD PTR [esi+568]
  00016	50		 push	 eax
  00017	68 5e 18 00 00	 push	 6238			; 0000185eH
  0001c	57		 push	 edi
  0001d	e8 00 00 00 00	 call	 ?DDX_Control@@YGXPAVCDataExchange@@HAAVCWnd@@@Z ; DDX_Control

; 90   : 	DDX_Control(pDX, IDC_STATIC_SYMBOL, m_staticSymbol);

  00022	8d 86 70 03 00
	00		 lea	 eax, DWORD PTR [esi+880]
  00028	50		 push	 eax
  00029	68 f2 03 00 00	 push	 1010			; 000003f2H
  0002e	57		 push	 edi
  0002f	e8 00 00 00 00	 call	 ?DDX_Control@@YGXPAVCDataExchange@@HAAVCWnd@@@Z ; DDX_Control

; 91   : 	DDX_Control(pDX, IDC_STATIC_TITLE, m_staitcTilte);	

  00034	8d 86 a8 04 00
	00		 lea	 eax, DWORD PTR [esi+1192]
  0003a	50		 push	 eax
  0003b	68 ef 03 00 00	 push	 1007			; 000003efH
  00040	57		 push	 edi
  00041	e8 00 00 00 00	 call	 ?DDX_Control@@YGXPAVCDataExchange@@HAAVCWnd@@@Z ; DDX_Control

; 92   : 	DDX_Control(pDX, IDC_BUTTON_CLOSE, m_ctrlButtonClose);	

  00046	8d 86 e0 05 00
	00		 lea	 eax, DWORD PTR [esi+1504]
  0004c	50		 push	 eax
  0004d	68 75 18 00 00	 push	 6261			; 00001875H
  00052	57		 push	 edi
  00053	e8 00 00 00 00	 call	 ?DDX_Control@@YGXPAVCDataExchange@@HAAVCWnd@@@Z ; DDX_Control
  00058	5f		 pop	 edi
  00059	5e		 pop	 esi

; 93   : //@solomon	20091113	-->>
; 94   : //	DDX_Control(pDX, IDC_BUTTON_SELL, m_ctrlButtonSell);	
; 95   : //	DDX_Control(pDX, IDC_BUTTON_BUY, m_ctrlButtonBuy);	
; 96   : //@solomon	20091113	<<--
; 97   : 	//}}AFX_DATA_MAP
; 98   : }

  0005a	5d		 pop	 ebp
  0005b	c2 04 00	 ret	 4
?DoDataExchange@CFloatingHogaDlg@@MAEXPAVCDataExchange@@@Z ENDP ; CFloatingHogaDlg::DoDataExchange
_TEXT	ENDS
; Function compile flags: /Ogtp
; File D:\git\src\IBK\IBK_DRFN\ProjSrc\SrcDrfn\Chart\MULTICHART\FloatingHogaDlg.cpp
;	COMDAT ?PreTranslateMessage@CFloatingHogaDlg@@UAEHPAUtagMSG@@@Z
_TEXT	SEGMENT
_pMsg$ = 8						; size = 4
?PreTranslateMessage@CFloatingHogaDlg@@UAEHPAUtagMSG@@@Z PROC ; CFloatingHogaDlg::PreTranslateMessage, COMDAT
; _this$ = ecx

; 2298 : {

  00000	55		 push	 ebp
  00001	8b ec		 mov	 ebp, esp

; 2299 : 	// TODO: Add your specialized code here and/or call the base class
; 2300 : 	switch(pMsg->message) 

  00003	8b 45 08	 mov	 eax, DWORD PTR _pMsg$[ebp]
  00006	81 78 04 00 01
	00 00		 cmp	 DWORD PTR [eax+4], 256	; 00000100H
  0000d	75 16		 jne	 SHORT $LN4@PreTransla

; 2301 : 	{
; 2302 : 		case WM_KEYDOWN	:
; 2303 : 			{
; 2304 : 				UINT nChar = (UINT)pMsg->wParam;

  0000f	8b 50 08	 mov	 edx, DWORD PTR [eax+8]

; 2305 : 				switch(nChar)

  00012	83 fa 0d	 cmp	 edx, 13			; 0000000dH
  00015	74 05		 je	 SHORT $LN7@PreTransla
  00017	83 fa 1b	 cmp	 edx, 27			; 0000001bH
  0001a	75 09		 jne	 SHORT $LN4@PreTransla
$LN7@PreTransla:

; 2306 : 				{
; 2307 : 					case VK_RETURN :
; 2308 : 					case VK_ESCAPE :
; 2309 : 					{
; 2310 : 						return TRUE;

  0001c	b8 01 00 00 00	 mov	 eax, 1

; 2318 : }

  00021	5d		 pop	 ebp
  00022	c2 04 00	 ret	 4
$LN4@PreTransla:

; 2311 : 						break;					
; 2312 : 					}
; 2313 : 				}
; 2314 : 				break;
; 2315 : 			}
; 2316 : 	}
; 2317 : 	return CRscDlg::PreTranslateMessage(pMsg);

  00025	89 45 08	 mov	 DWORD PTR _pMsg$[ebp], eax

; 2318 : }

  00028	5d		 pop	 ebp

; 2311 : 						break;					
; 2312 : 					}
; 2313 : 				}
; 2314 : 				break;
; 2315 : 			}
; 2316 : 	}
; 2317 : 	return CRscDlg::PreTranslateMessage(pMsg);

  00029	e9 00 00 00 00	 jmp	 ?PreTranslateMessage@CDialog@@UAEHPAUtagMSG@@@Z ; CDialog::PreTranslateMessage
?PreTranslateMessage@CFloatingHogaDlg@@UAEHPAUtagMSG@@@Z ENDP ; CFloatingHogaDlg::PreTranslateMessage
_TEXT	ENDS
; Function compile flags: /Ogtp
; File D:\git\src\IBK\IBK_DRFN\ProjSrc\SrcDrfn\Chart\MULTICHART\FloatingHogaDlg.cpp
;	COMDAT ?ChangeGrid_ColumnWidth@CFloatingHogaDlg@@QAEXXZ
_TEXT	SEGMENT
_nColWdth$ = -48					; size = 44
__$ArrayPad$ = -4					; size = 4
?ChangeGrid_ColumnWidth@CFloatingHogaDlg@@QAEXXZ PROC	; CFloatingHogaDlg::ChangeGrid_ColumnWidth, COMDAT
; _this$ = ecx

; 560  : {

  00000	55		 push	 ebp
  00001	8b ec		 mov	 ebp, esp
  00003	83 ec 30	 sub	 esp, 48			; 00000030H
  00006	a1 00 00 00 00	 mov	 eax, DWORD PTR ___security_cookie
  0000b	33 c5		 xor	 eax, ebp
  0000d	89 45 fc	 mov	 DWORD PTR __$ArrayPad$[ebp], eax
  00010	53		 push	 ebx
  00011	56		 push	 esi
  00012	8b f1		 mov	 esi, ecx
  00014	57		 push	 edi

; 561  : 	int nCol = m_pGridCtrl->GetColumnCount();

  00015	8b 8e cc 00 00
	00		 mov	 ecx, DWORD PTR [esi+204]
  0001b	e8 00 00 00 00	 call	 ?GetColumnCount@CExGridCtrl@@QAEHXZ ; CExGridCtrl::GetColumnCount

; 562  : 	int nColWdth[TOTAL_COLUMN_COUNT] = {0, };

  00020	6a 2c		 push	 44			; 0000002cH
  00022	8b d8		 mov	 ebx, eax
  00024	8d 45 d0	 lea	 eax, DWORD PTR _nColWdth$[ebp]
  00027	6a 00		 push	 0
  00029	50		 push	 eax
  0002a	e8 00 00 00 00	 call	 _memset
  0002f	83 c4 0c	 add	 esp, 12			; 0000000cH
  00032	33 ff		 xor	 edi, edi

; 563  : 	int col = 0;
; 564  : 	// column width "0" initialize ( ) ------------->>
; 565  : 	for ( col = 0; col < nCol; col++)

  00034	85 db		 test	 ebx, ebx
  00036	7e 1b		 jle	 SHORT $LN3@ChangeGrid
  00038	0f 1f 84 00 00
	00 00 00	 npad	 8
$LL4@ChangeGrid:

; 566  : 	{
; 567  : 		m_pGridCtrl->SetColumnWidth(col, 0);

  00040	8b 8e cc 00 00
	00		 mov	 ecx, DWORD PTR [esi+204]
  00046	6a 00		 push	 0
  00048	57		 push	 edi
  00049	e8 00 00 00 00	 call	 ?SetColumnWidth@CExGridCtrl@@QAEHHH@Z ; CExGridCtrl::SetColumnWidth
  0004e	47		 inc	 edi
  0004f	3b fb		 cmp	 edi, ebx
  00051	7c ed		 jl	 SHORT $LL4@ChangeGrid
$LN3@ChangeGrid:

; 568  : 	}
; 569  : 	//m_pGridCtrl->Call_ResetScrollBars();
; 570  : 	// <<-------------------------------------------------------
; 571  : 
; 572  : 
; 573  : 	// *****************************************************************************
; 574  : 	// nColGubun	0 : 10
; 575  : 	//				1 :  1)    10   **
; 576  : 	//							 2)	  							
; 577  : 	//				2 :  1)    10   **
; 578  : 	//							 2)   
; 579  : 	//				3 :  1)    10   **
; 580  : 	// ******************************************************************************
; 581  : 	int nColGubun;
; 582  : 	if (m_bIsTenHoga == TRUE)

  00053	83 be c0 01 00
	00 01		 cmp	 DWORD PTR [esi+448], 1
  0005a	0f 84 8c 00 00
	00		 je	 $LN16@ChangeGrid

; 583  : 	{
; 584  : 		nColGubun = 0;
; 585  : 	}
; 586  : 	else
; 587  : 	{
; 588  : 		int nRow = m_pGridCtrl->GetRowCount();

  00060	8b 8e cc 00 00
	00		 mov	 ecx, DWORD PTR [esi+204]
  00066	e8 00 00 00 00	 call	 ?GetRowCount@CExGridCtrl@@QAEHXZ ; CExGridCtrl::GetRowCount

; 589  : 
; 590  : 		// ##    10    ##
; 591  : 		if (nRow <= TENHOGA_ROW_COUNT)

  0006b	83 f8 1d	 cmp	 eax, 29			; 0000001dH
  0006e	7f 14		 jg	 SHORT $LN20@ChangeGrid

; 592  : 		{
; 593  : 			if (m_bExpandBottom == TRUE)
; 594  : 				nColGubun = 1;
; 595  : 			else
; 596  : 				nColGubun = 2;
; 597  : 		}

  00070	33 c0		 xor	 eax, eax
  00072	83 be a0 01 00
	00 01		 cmp	 DWORD PTR [esi+416], 1
  00079	0f 95 c0	 setne	 al
  0007c	40		 inc	 eax

; 598  : 		else
; 599  : 		{
; 600  : 			nColGubun = 3;
; 601  : 		}
; 602  : 	}
; 603  : 
; 604  : 
; 605  : 	//   
; 606  : 	switch (nColGubun)

  0007d	ff 24 85 00 00
	00 00		 jmp	 DWORD PTR $LN59@ChangeGrid[eax*4]
$LN20@ChangeGrid:

; 640  : 			nColWdth[MAESU_COL]		= 0;
; 641  : 			nColWdth[RIGHT_CAN_COL] = 0;
; 642  : 			
; 643  : 			nColWdth[MAESU_RESERVE_COL]	= 0;
; 644  : 			nColWdth[BONG_COL]		= BONG_COL_WIDTH;
; 645  : 		}
; 646  : 		break;
; 647  : 
; 648  : 	case 2:
; 649  : 	case 3:
; 650  : 		if ( m_bExpandRight == TRUE )		// - VScroll Yes

  00084	83 be 9c 01 00
	00 01		 cmp	 DWORD PTR [esi+412], 1
  0008b	c7 45 e0 46 00
	00 00		 mov	 DWORD PTR _nColWdth$[ebp+16], 70 ; 00000046H
  00092	75 48		 jne	 SHORT $LN22@ChangeGrid

; 651  : 		{
; 652  : 			nColWdth[MAEDO_RESERVE_COL]	= (m_bIsShowReserveCol) ? RESERVE_COL_WIDTH : 0;
; 653  : 			nColWdth[LEFT_CAN_COL]	= (m_bIsShowReserveCol) ? 0 : CANCEL_COL_WIDTH;		
; 654  : 			nColWdth[MAEDO_COL]		= MAEMAE_COL_WIDTH_SB;
; 655  : 			nColWdth[MAEDO_JAN_COL] = JAN_COL_WIDTH_SB;		

  00094	c7 45 dc 69 00
	00 00		 mov	 DWORD PTR _nColWdth$[ebp+12], 105 ; 00000069H

; 656  : 			
; 657  : 			//nColWdth[HOGA_COL]		= (m_bOpenCol) ? HOGA_COL_WIDTH_SB  : HOGA_COL_WIDTH_SB+DAEBI_COL_WIDTH;
; 658  : 			nColWdth[HOGA_COL]		= HOGA_COL_WIDTH;
; 659  : 			nColWdth[DAEBI_COL]		= (m_bOpenCol) ? DAEBI_COL_WIDTH : 0;
; 660  : 			
; 661  : 			nColWdth[MAESU_JAN_COL] = JAN_COL_WIDTH_SB;

  0009b	c7 45 e8 69 00
	00 00		 mov	 DWORD PTR _nColWdth$[ebp+24], 105 ; 00000069H
$LN63@ChangeGrid:

; 681  : 			nColWdth[RIGHT_CAN_COL] = 0;
; 682  : 			
; 683  : 			nColWdth[MAESU_RESERVE_COL]	= 0;
; 684  : 			nColWdth[BONG_COL]		= BONG_COL_WIDTH;
; 685  : 		}
; 686  : 		break;
; 687  : 	}
; 688  : 
; 689  : 	
; 690  : 	// column width
; 691  : 	for (col = 0; col < nCol; col++)

  000a2	8b 86 ac 01 00
	00		 mov	 eax, DWORD PTR [esi+428]
  000a8	b9 2d 00 00 00	 mov	 ecx, 45			; 0000002dH
  000ad	8b d0		 mov	 edx, eax
  000af	c7 45 d8 32 00
	00 00		 mov	 DWORD PTR _nColWdth$[ebp+8], 50 ; 00000032H
  000b6	f7 da		 neg	 edx
  000b8	c7 45 ec 32 00
	00 00		 mov	 DWORD PTR _nColWdth$[ebp+28], 50 ; 00000032H
  000bf	1b d2		 sbb	 edx, edx
  000c1	33 ff		 xor	 edi, edi
  000c3	83 e2 2d	 and	 edx, 45			; 0000002dH
  000c6	89 7d f8	 mov	 DWORD PTR _nColWdth$[ebp+40], edi
  000c9	85 c0		 test	 eax, eax
  000cb	89 55 d0	 mov	 DWORD PTR _nColWdth$[ebp], edx
  000ce	89 55 f4	 mov	 DWORD PTR _nColWdth$[ebp+36], edx
  000d1	0f 45 cf	 cmovne	 ecx, edi
  000d4	89 4d d4	 mov	 DWORD PTR _nColWdth$[ebp+4], ecx
  000d7	89 4d f0	 mov	 DWORD PTR _nColWdth$[ebp+32], ecx
  000da	eb 49		 jmp	 SHORT $LN60@ChangeGrid
$LN22@ChangeGrid:

; 662  : 			nColWdth[MAESU_COL]		= MAEMAE_COL_WIDTH_SB;
; 663  : 			nColWdth[RIGHT_CAN_COL] = (m_bIsShowReserveCol) ? 0 : CANCEL_COL_WIDTH;
; 664  : 			
; 665  : 			nColWdth[MAESU_RESERVE_COL]	= (m_bIsShowReserveCol) ? RESERVE_COL_WIDTH : 0;
; 666  : 			nColWdth[BONG_COL]		= BONG_COL_WIDTH;
; 667  : 		}
; 668  : 		else								// - VScroll Yes
; 669  : 		{
; 670  : 			nColWdth[MAEDO_RESERVE_COL]	= 0;
; 671  : 			nColWdth[LEFT_CAN_COL]	= 0;		
; 672  : 			nColWdth[MAEDO_COL]		= 0;
; 673  : 			nColWdth[MAEDO_JAN_COL] = JAN_COL_WIDTH_SH-9;		
; 674  : 			
; 675  : 			//nColWdth[HOGA_COL]		= (m_bOpenCol) ? HOGA_COL_WIDTH_SH_SB  : HOGA_COL_WIDTH_SH_SB+DAEBI_COL_WIDTH;
; 676  : 			nColWdth[HOGA_COL]		= HOGA_COL_WIDTH;
; 677  : 			nColWdth[DAEBI_COL]		= (m_bOpenCol) ? DAEBI_COL_WIDTH	: 0;
; 678  : 			
; 679  : 			nColWdth[MAESU_JAN_COL] = JAN_COL_WIDTH_SH-9;

  000dc	0f 28 05 00 00
	00 00		 movaps	 xmm0, XMMWORD PTR __xmm@00000000000000000000000000000041
  000e3	c7 45 dc 41 00
	00 00		 mov	 DWORD PTR _nColWdth$[ebp+12], 65 ; 00000041H

; 680  : 			nColWdth[MAESU_COL]		= 0;

  000ea	eb 2e		 jmp	 SHORT $LN61@ChangeGrid
$LN16@ChangeGrid:

; 607  : 	{
; 608  : 	case 0:
; 609  : 	case 1:
; 610  : 		if ( m_bExpandRight == TRUE )			// -VScroll No

  000ec	83 be 9c 01 00
	00 01		 cmp	 DWORD PTR [esi+412], 1
  000f3	c7 45 e0 46 00
	00 00		 mov	 DWORD PTR _nColWdth$[ebp+16], 70 ; 00000046H
  000fa	75 10		 jne	 SHORT $LN18@ChangeGrid

; 611  : 		{
; 612  : 			nColWdth[MAEDO_RESERVE_COL]	= (m_bIsShowReserveCol) ? RESERVE_COL_WIDTH : 0;
; 613  : 			nColWdth[LEFT_CAN_COL]	= (m_bIsShowReserveCol) ? 0 : CANCEL_COL_WIDTH;
; 614  : 			nColWdth[MAEDO_COL]		= MAEMAE_COL_WIDTH;
; 615  : 			nColWdth[MAEDO_JAN_COL] = JAN_COL_WIDTH;		

  000fc	c7 45 dc 6e 00
	00 00		 mov	 DWORD PTR _nColWdth$[ebp+12], 110 ; 0000006eH

; 616  : 			
; 617  : 			//nColWdth[HOGA_COL]		= (m_bOpenCol) ? HOGA_COL_WIDTH  : HOGA_COL_WIDTH+DAEBI_COL_WIDTH;
; 618  : 			nColWdth[HOGA_COL]		= HOGA_COL_WIDTH;
; 619  : 			nColWdth[DAEBI_COL]		= (m_bOpenCol) ? DAEBI_COL_WIDTH : 0;
; 620  : 			
; 621  : 			nColWdth[MAESU_JAN_COL] = JAN_COL_WIDTH;

  00103	c7 45 e8 6e 00
	00 00		 mov	 DWORD PTR _nColWdth$[ebp+24], 110 ; 0000006eH

; 622  : 			nColWdth[MAESU_COL]		= MAEMAE_COL_WIDTH;
; 623  : 			nColWdth[RIGHT_CAN_COL] = (m_bIsShowReserveCol) ? 0 : CANCEL_COL_WIDTH;
; 624  : 			
; 625  : 			nColWdth[MAESU_RESERVE_COL]	= (m_bIsShowReserveCol) ? RESERVE_COL_WIDTH : 0;
; 626  : 			nColWdth[BONG_COL]		= BONG_COL_WIDTH;
; 627  : 		}

  0010a	eb 96		 jmp	 SHORT $LN63@ChangeGrid
$LN18@ChangeGrid:

; 628  : 		else									// -VScroll No
; 629  : 		{
; 630  : 			nColWdth[MAEDO_RESERVE_COL] = 0;
; 631  : 			nColWdth[LEFT_CAN_COL]	= 0;		
; 632  : 			nColWdth[MAEDO_COL]		= 0;
; 633  : 			nColWdth[MAEDO_JAN_COL] = JAN_COL_WIDTH_SH;		
; 634  : 			
; 635  : 			//nColWdth[HOGA_COL]		= (m_bOpenCol) ? HOGA_COL_WIDTH_SH  : HOGA_COL_WIDTH_SH+DAEBI_COL_WIDTH;
; 636  : 			nColWdth[HOGA_COL]		= HOGA_COL_WIDTH;
; 637  : 			nColWdth[DAEBI_COL]		= (m_bOpenCol) ? DAEBI_COL_WIDTH	: 0;
; 638  : 			
; 639  : 			nColWdth[MAESU_JAN_COL] = JAN_COL_WIDTH_SH;

  0010c	0f 28 05 00 00
	00 00		 movaps	 xmm0, XMMWORD PTR __xmm@0000000000000000000000000000004a
  00113	c7 45 dc 4a 00
	00 00		 mov	 DWORD PTR _nColWdth$[ebp+12], 74 ; 0000004aH
$LN61@ChangeGrid:

; 681  : 			nColWdth[RIGHT_CAN_COL] = 0;
; 682  : 			
; 683  : 			nColWdth[MAESU_RESERVE_COL]	= 0;
; 684  : 			nColWdth[BONG_COL]		= BONG_COL_WIDTH;
; 685  : 		}
; 686  : 		break;
; 687  : 	}
; 688  : 
; 689  : 	
; 690  : 	// column width
; 691  : 	for (col = 0; col < nCol; col++)

  0011a	c7 45 f8 00 00
	00 00		 mov	 DWORD PTR _nColWdth$[ebp+40], 0
  00121	0f 11 45 e8	 movups	 XMMWORD PTR _nColWdth$[ebp+24], xmm0
$LN60@ChangeGrid:
  00125	8b 86 a4 01 00
	00		 mov	 eax, DWORD PTR [esi+420]
  0012b	f7 d8		 neg	 eax
  0012d	1b c0		 sbb	 eax, eax
  0012f	83 e0 32	 and	 eax, 50			; 00000032H
  00132	89 45 e4	 mov	 DWORD PTR _nColWdth$[ebp+20], eax
$LN52@ChangeGrid:
  00135	33 ff		 xor	 edi, edi
  00137	85 db		 test	 ebx, ebx
  00139	7e 1a		 jle	 SHORT $LN8@ChangeGrid
  0013b	0f 1f 44 00 00	 npad	 5
$LL9@ChangeGrid:

; 692  : 	{
; 693  : 		m_pGridCtrl->SetColumnWidth(col, nColWdth[col]);

  00140	ff 74 bd d0	 push	 DWORD PTR _nColWdth$[ebp+edi*4]
  00144	8b 8e cc 00 00
	00		 mov	 ecx, DWORD PTR [esi+204]
  0014a	57		 push	 edi
  0014b	e8 00 00 00 00	 call	 ?SetColumnWidth@CExGridCtrl@@QAEHHH@Z ; CExGridCtrl::SetColumnWidth
  00150	47		 inc	 edi
  00151	3b fb		 cmp	 edi, ebx
  00153	7c eb		 jl	 SHORT $LL9@ChangeGrid
$LN8@ChangeGrid:

; 694  : //		m_pGridCtrl->SetColumnWidth_NoReset(col, nColWdth[col]);
; 695  : 	}
; 696  : 
; 697  : 
; 698  : 	// ,   
; 699  : 	if( m_bOpenCol == TRUE)

  00155	83 be a4 01 00
	00 01		 cmp	 DWORD PTR [esi+420], 1
  0015c	8b 8e cc 00 00
	00		 mov	 ecx, DWORD PTR [esi+204]
  00162	75 1b		 jne	 SHORT $LN24@ChangeGrid

; 700  : 	{
; 701  : 		m_pGridCtrl->SetItemImage(TENHOGA_ROW_FIRST, HOGA_COL, 0);

  00164	6a 00		 push	 0
  00166	6a 04		 push	 4
  00168	6a 00		 push	 0
  0016a	e8 00 00 00 00	 call	 ?SetItemImage@CExGridCtrl@@QAEHHHH@Z ; CExGridCtrl::SetItemImage

; 702  : 		m_pGridCtrl->SetItemImage(TENHOGA_ROW_FIRST, DAEBI_COL, 2);

  0016f	8b 8e cc 00 00
	00		 mov	 ecx, DWORD PTR [esi+204]
  00175	b8 05 00 00 00	 mov	 eax, 5
  0017a	8d 50 fd	 lea	 edx, DWORD PTR [eax-3]

; 703  : 	}

  0017d	eb 0a		 jmp	 SHORT $LN25@ChangeGrid
$LN24@ChangeGrid:

; 704  : 	else
; 705  : 		m_pGridCtrl->SetItemImage(TENHOGA_ROW_FIRST, HOGA_COL, 1);

  0017f	b8 04 00 00 00	 mov	 eax, 4
  00184	ba 01 00 00 00	 mov	 edx, 1
$LN25@ChangeGrid:

; 706  : 
; 707  : 
; 708  : 	//  Hide, Show ------------------------------------------->>>
; 709  : //	if(m_bExpandRight)
; 710  : //	{
; 711  : //		m_pGridCtrl->SetBongGraphEnable(TRUE);
; 712  : //		m_pGridCtrl->SetColumnWidth(BONG_COL, BONG_COL_WIDTH);
; 713  : //	}
; 714  : //	else
; 715  : //	{
; 716  : //		m_pGridCtrl->SetBongGraphEnable(FALSE);
; 717  : //		m_pGridCtrl->SetColumnWidth(BONG_COL, 0);
; 718  : //	}
; 719  : 	// <<<---------------------------------------------------------------
; 720  : 
; 721  : //	m_pGridCtrl->Call_ResetScrollBars();	
; 722  : 
; 723  : 	m_pGridCtrl->Refresh();

  00189	52		 push	 edx
  0018a	50		 push	 eax
  0018b	6a 00		 push	 0
  0018d	e8 00 00 00 00	 call	 ?SetItemImage@CExGridCtrl@@QAEHHHH@Z ; CExGridCtrl::SetItemImage
  00192	8b 8e cc 00 00
	00		 mov	 ecx, DWORD PTR [esi+204]
  00198	e8 00 00 00 00	 call	 ?Refresh@CExGridCtrl@@QAEXXZ ; CExGridCtrl::Refresh

; 724  : }

  0019d	8b 4d fc	 mov	 ecx, DWORD PTR __$ArrayPad$[ebp]
  001a0	5f		 pop	 edi
  001a1	5e		 pop	 esi
  001a2	33 cd		 xor	 ecx, ebp
  001a4	5b		 pop	 ebx
  001a5	e8 00 00 00 00	 call	 @__security_check_cookie@4
  001aa	8b e5		 mov	 esp, ebp
  001ac	5d		 pop	 ebp
  001ad	c3		 ret	 0
  001ae	66 90		 npad	 2
$LN59@ChangeGrid:
  001b0	00 00 00 00	 DD	 $LN16@ChangeGrid
  001b4	00 00 00 00	 DD	 $LN16@ChangeGrid
  001b8	00 00 00 00	 DD	 $LN20@ChangeGrid
  001bc	00 00 00 00	 DD	 $LN20@ChangeGrid
?ChangeGrid_ColumnWidth@CFloatingHogaDlg@@QAEXXZ ENDP	; CFloatingHogaDlg::ChangeGrid_ColumnWidth
_TEXT	ENDS
; Function compile flags: /Ogtp
; File D:\git\src\IBK\IBK_DRFN\ProjSrc\SrcDrfn\Chart\MULTICHART\FloatingHogaDlg.cpp
;	COMDAT ?ChangeGrid_RowHeight@CFloatingHogaDlg@@QAEXXZ
_TEXT	SEGMENT
?ChangeGrid_RowHeight@CFloatingHogaDlg@@QAEXXZ PROC	; CFloatingHogaDlg::ChangeGrid_RowHeight, COMDAT
; _this$ = ecx

; 502  : {

  00000	53		 push	 ebx
  00001	56		 push	 esi
  00002	57		 push	 edi
  00003	8b f9		 mov	 edi, ecx

; 503  : 	int nRow = m_pGridCtrl->GetRowCount();

  00005	8b 8f cc 00 00
	00		 mov	 ecx, DWORD PTR [edi+204]
  0000b	e8 00 00 00 00	 call	 ?GetRowCount@CExGridCtrl@@QAEHXZ ; CExGridCtrl::GetRowCount
  00010	8b d8		 mov	 ebx, eax
  00012	33 f6		 xor	 esi, esi

; 504  : 	//   
; 505  : 	int row;
; 506  : 	for (row = 0; row < nRow; row++)

  00014	85 db		 test	 ebx, ebx
  00016	7e 54		 jle	 SHORT $LN3@ChangeGrid
  00018	0f 1f 84 00 00
	00 00 00	 npad	 8
$LL4@ChangeGrid:

; 507  : 	{
; 508  : 		// ******** 10  **********
; 509  : 		if ( m_bIsTenHoga == TRUE )		

  00020	83 bf c0 01 00
	00 01		 cmp	 DWORD PTR [edi+448], 1
  00027	75 2c		 jne	 SHORT $LN5@ChangeGrid

; 510  : 		{
; 511  : 			if( m_bExpandBottom == TRUE )		// 

  00029	83 bf a0 01 00
	00 01		 cmp	 DWORD PTR [edi+416], 1
  00030	74 23		 je	 SHORT $LN5@ChangeGrid

; 512  : 			{
; 513  : 				m_pGridCtrl->SetRowHeight(row, ROW_HEIGHT);
; 514  : 				//m_pGridCtrl->SetRowHeight_NoReset(row, ROW_HEIGHT);
; 515  : 			}
; 516  : 			else								// 
; 517  : 			{
; 518  : 				if( MAEDO_ROW <= row && row <= MAEDO_ROW+4 )

  00032	8d 4e ed	 lea	 ecx, DWORD PTR [esi-19]
  00035	8d 41 0f	 lea	 eax, DWORD PTR [ecx+15]
  00038	83 f8 04	 cmp	 eax, 4
  0003b	76 14		 jbe	 SHORT $LN15@ChangeGrid

; 519  : 				{
; 520  : 					m_pGridCtrl->SetRowHeight(row, 0);
; 521  : 					//m_pGridCtrl->SetRowHeight_NoReset(row, 0);
; 522  : 				}
; 523  : 				else if( MAESU_ROW+5 <= row && row <= MAESU_ROW+9 )

  0003d	83 f9 04	 cmp	 ecx, 4
  00040	76 0f		 jbe	 SHORT $LN15@ChangeGrid

; 524  : 				{
; 525  : 					m_pGridCtrl->SetRowHeight(row, 0);
; 526  : 					//m_pGridCtrl->SetRowHeight_NoReset(row, 0);
; 527  : 				}
; 528  : 				else if (	(ETC_HOGAUP_ROW		== row) || 	//   
; 529  : 							(ETC_HOGADOWN_ROW	== row)	||	//   

  00042	83 fe 03	 cmp	 esi, 3
  00045	74 0a		 je	 SHORT $LN15@ChangeGrid
  00047	83 fe 18	 cmp	 esi, 24			; 00000018H
  0004a	74 05		 je	 SHORT $LN15@ChangeGrid
  0004c	83 fe 01	 cmp	 esi, 1
  0004f	75 04		 jne	 SHORT $LN5@ChangeGrid
$LN15@ChangeGrid:

; 530  : 							(MARKETPRICE_ROW	== row)
; 531  : 				)
; 532  : 				{
; 533  : 					m_pGridCtrl->SetRowHeight(row, 0);
; 534  : 					//m_pGridCtrl->SetRowHeight_NoReset(row, 0);
; 535  : 				}
; 536  : 				else 
; 537  : 				{
; 538  : 					m_pGridCtrl->SetRowHeight(row, ROW_HEIGHT);
; 539  : 					//m_pGridCtrl->SetRowHeight_NoReset(row, ROW_HEIGHT);
; 540  : 				}
; 541  : 			}
; 542  : 		}

  00051	33 c0		 xor	 eax, eax
  00053	eb 05		 jmp	 SHORT $LN14@ChangeGrid
$LN5@ChangeGrid:

; 504  : 	//   
; 505  : 	int row;
; 506  : 	for (row = 0; row < nRow; row++)

  00055	b8 0e 00 00 00	 mov	 eax, 14			; 0000000eH
$LN14@ChangeGrid:
  0005a	8b 8f cc 00 00
	00		 mov	 ecx, DWORD PTR [edi+204]
  00060	50		 push	 eax
  00061	56		 push	 esi
  00062	e8 00 00 00 00	 call	 ?SetRowHeight@CExGridCtrl@@QAEHHH@Z ; CExGridCtrl::SetRowHeight
  00067	46		 inc	 esi
  00068	3b f3		 cmp	 esi, ebx
  0006a	7c b4		 jl	 SHORT $LL4@ChangeGrid
$LN3@ChangeGrid:

; 543  : 		// ********   **********
; 544  : 		else
; 545  : 		{
; 546  : 			m_pGridCtrl->SetRowHeight(row, ROW_HEIGHT);
; 547  : 			//m_pGridCtrl->SetRowHeight_NoReset(row, ROW_HEIGHT);
; 548  : 
; 549  : 		}
; 550  : 	}
; 551  : 
; 552  : //	m_pGridCtrl->Call_ResetScrollBars();
; 553  : 
; 554  : 	m_pGridCtrl->Refresh();	

  0006c	8b 8f cc 00 00
	00		 mov	 ecx, DWORD PTR [edi+204]
  00072	5f		 pop	 edi
  00073	5e		 pop	 esi
  00074	5b		 pop	 ebx
  00075	e9 00 00 00 00	 jmp	 ?Refresh@CExGridCtrl@@QAEXXZ ; CExGridCtrl::Refresh
?ChangeGrid_RowHeight@CFloatingHogaDlg@@QAEXXZ ENDP	; CFloatingHogaDlg::ChangeGrid_RowHeight
_TEXT	ENDS
; Function compile flags: /Ogtp
; File D:\git\src\IBK\IBK_DRFN\ProjSrc\SrcDrfn\Chart\MULTICHART\FloatingHogaDlg.cpp
;	COMDAT ?InitGridFormat@CFloatingHogaDlg@@QAEXXZ
_TEXT	SEGMENT
_nCol$1$ = -172						; size = 4
_nRow$1$ = -168						; size = 4
_Item$2 = -164						; size = 104
_szTitle$ = -60						; size = 44
__$ArrayPad$ = -16					; size = 4
__$EHRec$ = -12						; size = 12
?InitGridFormat@CFloatingHogaDlg@@QAEXXZ PROC		; CFloatingHogaDlg::InitGridFormat, COMDAT
; _this$ = ecx

; 728  : {

  00000	55		 push	 ebp
  00001	8b ec		 mov	 ebp, esp
  00003	6a ff		 push	 -1
  00005	68 00 00 00 00	 push	 __ehhandler$?InitGridFormat@CFloatingHogaDlg@@QAEXXZ
  0000a	64 a1 00 00 00
	00		 mov	 eax, DWORD PTR fs:0
  00010	50		 push	 eax
  00011	81 ec a0 00 00
	00		 sub	 esp, 160		; 000000a0H
  00017	a1 00 00 00 00	 mov	 eax, DWORD PTR ___security_cookie
  0001c	33 c5		 xor	 eax, ebp
  0001e	89 45 f0	 mov	 DWORD PTR __$ArrayPad$[ebp], eax
  00021	53		 push	 ebx
  00022	56		 push	 esi
  00023	57		 push	 edi
  00024	50		 push	 eax
  00025	8d 45 f4	 lea	 eax, DWORD PTR __$EHRec$[ebp]
  00028	64 a3 00 00 00
	00		 mov	 DWORD PTR fs:0, eax
  0002e	8b d9		 mov	 ebx, ecx

; 729  : 	int nCol = m_pGridCtrl->GetColumnCount();

  00030	8b 8b cc 00 00
	00		 mov	 ecx, DWORD PTR [ebx+204]
  00036	e8 00 00 00 00	 call	 ?GetColumnCount@CExGridCtrl@@QAEHXZ ; CExGridCtrl::GetColumnCount

; 730  : 	int nRow = m_pGridCtrl->GetRowCount();

  0003b	8b 8b cc 00 00
	00		 mov	 ecx, DWORD PTR [ebx+204]
  00041	89 85 54 ff ff
	ff		 mov	 DWORD PTR _nCol$1$[ebp], eax
  00047	e8 00 00 00 00	 call	 ?GetRowCount@CExGridCtrl@@QAEHXZ ; CExGridCtrl::GetRowCount

; 731  : 
; 732  : 	char *szTitle[] = {
; 733  : 		"Stop", "", "", "", " ", " ", "", "", "", "Stop", ""
; 734  : 		//"Stop", "", "", "", "", " ", "", "", "", "", "", "Stop", ""
; 735  : 		};
; 736  : 
; 737  : 	if (m_nThreeStateDaebiType == e_DAEBI_PER)

  0004c	8b 8b 18 02 00
	00		 mov	 ecx, DWORD PTR [ebx+536]
  00052	ba 00 00 00 00	 mov	 edx, OFFSET ??_C@_05BGBFEMBO@?5?$LF?n?$LG?t@
  00057	89 85 58 ff ff
	ff		 mov	 DWORD PTR _nRow$1$[ebp], eax
  0005d	c7 45 c4 00 00
	00 00		 mov	 DWORD PTR _szTitle$[ebp], OFFSET ??_C@_08DHOMADKC@Stop?$LI?E?$LF?$LF@
  00064	c7 45 c8 00 00
	00 00		 mov	 DWORD PTR _szTitle$[ebp+4], OFFSET ??_C@_02CONNCEND@?C?k@
  0006b	c7 45 cc 00 00
	00 00		 mov	 DWORD PTR _szTitle$[ebp+8], OFFSET ??_C@_08MNAHFBJA@?$LI?E?$LF?$LF?A?V?$LJ?$KO@
  00072	c7 45 d0 00 00
	00 00		 mov	 DWORD PTR _szTitle$[ebp+12], OFFSET ??_C@_08JFEELFEO@?$LI?E?$LF?$LF?$MA?$NM?$LH?$KO@
  00079	c7 45 d4 00 00
	00 00		 mov	 DWORD PTR _szTitle$[ebp+16], OFFSET ??_C@_05FGHBPLEF@?H?$KD?5?$LA?$KB@
  00080	c7 45 dc 00 00
	00 00		 mov	 DWORD PTR _szTitle$[ebp+24], OFFSET ??_C@_08IJBAIIFP@?$LI?E?$LM?v?$MA?$NM?$LH?$KO@
  00087	c7 45 e0 00 00
	00 00		 mov	 DWORD PTR _szTitle$[ebp+28], OFFSET ??_C@_08NBFDGMIB@?$LI?E?$LM?v?A?V?$LJ?$KO@
  0008e	c7 45 e4 00 00
	00 00		 mov	 DWORD PTR _szTitle$[ebp+32], OFFSET ??_C@_02CONNCEND@?C?k@
  00095	c7 45 e8 00 00
	00 00		 mov	 DWORD PTR _szTitle$[ebp+36], OFFSET ??_C@_08ODGJCEOL@Stop?$LI?E?$LM?v@
  0009c	c7 45 ec 00 00
	00 00		 mov	 DWORD PTR _szTitle$[ebp+40], OFFSET ??_C@_00CNPNBAHC@@
  000a3	83 f9 01	 cmp	 ecx, 1
  000a6	75 09		 jne	 SHORT $LN8@InitGridFo

; 738  : 		szTitle[DAEBI_COL] = "";

  000a8	c7 45 d8 00 00
	00 00		 mov	 DWORD PTR _szTitle$[ebp+20], OFFSET ??_C@_06ONEPBMEK@?$LF?n?$LG?t?$MA?$LC@
  000af	eb 14		 jmp	 SHORT $LN10@InitGridFo
$LN8@InitGridFo:

; 739  : 	else if (m_nThreeStateDaebiType == e_PROFIT_PER)

  000b1	83 f9 02	 cmp	 ecx, 2
  000b4	b8 00 00 00 00	 mov	 eax, OFFSET ??_C@_05NAFAMIEH@?5?$LM?v?$MA?M@
  000b9	0f 45 c2	 cmovne	 eax, edx
  000bc	89 45 d8	 mov	 DWORD PTR _szTitle$[ebp+20], eax
  000bf	8b 85 58 ff ff
	ff		 mov	 eax, DWORD PTR _nRow$1$[ebp]
$LN10@InitGridFo:

; 740  : 		szTitle[DAEBI_COL] = " ";
; 741  : 
; 742  : 
; 743  : 	//  Show/Hide      
; 744  : 	if (!m_bIsShowReserveCol)

  000c5	83 bb ac 01 00
	00 00		 cmp	 DWORD PTR [ebx+428], 0
  000cc	75 0e		 jne	 SHORT $LN11@InitGridFo

; 745  : 		szTitle[LEFT_CAN_COL] = szTitle[RIGHT_CAN_COL] = "";

  000ce	c7 45 e4 00 00
	00 00		 mov	 DWORD PTR _szTitle$[ebp+32], OFFSET ??_C@_04OJFMPMDJ@?C?k?$LM?R@
  000d5	c7 45 c8 00 00
	00 00		 mov	 DWORD PTR _szTitle$[ebp+4], OFFSET ??_C@_04OJFMPMDJ@?C?k?$LM?R@
$LN11@InitGridFo:

; 746  : 
; 747  : 	// fill rows/cols with text
; 748  : 	int row, col;	
; 749  : 	for (row = 0; row < nRow; row++)

  000dc	33 ff		 xor	 edi, edi
  000de	85 c0		 test	 eax, eax
  000e0	0f 8e 0b 03 00
	00		 jle	 $LN3@InitGridFo
  000e6	8b 85 54 ff ff
	ff		 mov	 eax, DWORD PTR _nCol$1$[ebp]
  000ec	8b 8d 58 ff ff
	ff		 mov	 ecx, DWORD PTR _nRow$1$[ebp]
$LL4@InitGridFo:

; 750  : 	{
; 751  : 		for (col = 0; col < nCol; col++)		// JSJ_Modify

  000f2	33 f6		 xor	 esi, esi
  000f4	85 c0		 test	 eax, eax
  000f6	0f 8e ec 02 00
	00		 jle	 $LN2@InitGridFo
  000fc	0f 1f 40 00	 npad	 4
$LL7@InitGridFo:
  00100	8d 4d c0	 lea	 ecx, DWORD PTR _Item$2[ebp+100]
  00103	ff 15 00 00 00
	00		 call	 DWORD PTR __imp_??0?$CStringT@DV?$StrTraitMFC_DLL@DV?$ChTraitsCRT@D@ATL@@@@@ATL@@QAE@XZ

; 752  : 		{ 
; 753  : 
; 754  : 			GV_ITEM Item;
; 755  : 			Item.mask = GVIF_TEXT|GVIF_FORMAT|GVIF_FGCLR|GVIF_BKCLR|GVIF_STATE;
; 756  : 			Item.nState = GVIS_READONLY | GVIS_MODIFIED ;//| GVIS_DROPHILITED;
; 757  : 			Item.row = row;
; 758  : 			Item.col = col;
; 759  : 			
; 760  : 			Item.nFormat = DT_VCENTER|DT_SINGLELINE|DT_NOPREFIX;//|DT_END_ELLIPSIS;
; 761  : 
; 762  : 			// Text
; 763  : 			Item.strText = "";

  00109	68 00 00 00 00	 push	 OFFSET ??_C@_00CNPNBAHC@@
  0010e	8d 4d c0	 lea	 ecx, DWORD PTR _Item$2[ebp+100]
  00111	c7 45 fc 00 00
	00 00		 mov	 DWORD PTR __$EHRec$[ebp+8], 0
  00118	c7 85 64 ff ff
	ff 79 00 00 00	 mov	 DWORD PTR _Item$2[ebp+8], 121 ; 00000079H
  00122	c7 85 68 ff ff
	ff 88 00 00 00	 mov	 DWORD PTR _Item$2[ebp+12], 136 ; 00000088H
  0012c	89 bd 5c ff ff
	ff		 mov	 DWORD PTR _Item$2[ebp], edi
  00132	89 b5 60 ff ff
	ff		 mov	 DWORD PTR _Item$2[ebp+4], esi
  00138	c7 85 6c ff ff
	ff 24 08 00 00	 mov	 DWORD PTR _Item$2[ebp+16], 2084 ; 00000824H
  00142	ff 15 00 00 00
	00		 call	 DWORD PTR __imp_??4?$CStringT@DV?$StrTraitMFC_DLL@DV?$ChTraitsCRT@D@ATL@@@@@ATL@@QAEAAV01@PBD@Z

; 764  : 
; 765  : 			if( row == TENHOGA_ROW_FIRST )

  00148	85 ff		 test	 edi, edi
  0014a	75 48		 jne	 SHORT $LN12@InitGridFo

; 766  : 			{
; 767  : 				Item.strText = szTitle[col];

  0014c	ff 74 b5 c4	 push	 DWORD PTR _szTitle$[ebp+esi*4]
  00150	8d 4d c0	 lea	 ecx, DWORD PTR _Item$2[ebp+100]
  00153	ff 15 00 00 00
	00		 call	 DWORD PTR __imp_??4?$CStringT@DV?$StrTraitMFC_DLL@DV?$ChTraitsCRT@D@ATL@@@@@ATL@@QAEAAV01@PBD@Z

; 768  : 
; 769  : 				if (col == HOGA_COL)

  00159	83 fe 04	 cmp	 esi, 4
  0015c	75 0f		 jne	 SHORT $LN14@InitGridFo

; 770  : 				{
; 771  : 					Item.iImage = 0;
; 772  : 					Item.mask  |= (GVIF_IMAGE);

  0015e	83 8d 64 ff ff
	ff 02		 or	 DWORD PTR _Item$2[ebp+8], 2
  00165	89 bd 70 ff ff
	ff		 mov	 DWORD PTR _Item$2[ebp+20], edi

; 773  : 				}
; 774  : 				
; 775  : 				if (col == DAEBI_COL)

  0016b	eb 05		 jmp	 SHORT $LN87@InitGridFo
$LN14@InitGridFo:
  0016d	83 fe 05	 cmp	 esi, 5
  00170	74 07		 je	 SHORT $LN88@InitGridFo
$LN87@InitGridFo:

; 776  : 					Item.nFormat |= DT_LEFT;
; 777  : 				else
; 778  : 					Item.nFormat |= DT_CENTER;

  00172	83 8d 6c ff ff
	ff 01		 or	 DWORD PTR _Item$2[ebp+16], 1
$LN88@InitGridFo:

; 817  : 				}
; 818  : 
; 819  : 				// Bold Font ------------------------------------>>
; 820  : //				if ( row <= m_nLowLimitRow && col == HOGA_COL)
; 821  : //					Item.nState |= GVIS_BOLDFONT;
; 822  : 				// <<----------------------------------------------
; 823  : 			}
; 824  : 
; 825  : 			
; 826  : 			// Color
; 827  : 			if(row == TENHOGA_ROW_FIRST)
; 828  : 			{
; 829  : 				Item.crBkClr = COLOR_GRIDHEADER;
; 830  : 				if (col == BONG_COL)

  00179	83 fe 0a	 cmp	 esi, 10			; 0000000aH
  0017c	b8 f2 f8 fe 00	 mov	 eax, 16709874		; 00fef8f2H
  00181	b9 ff ff ff 00	 mov	 ecx, 16777215		; 00ffffffH
  00186	0f 44 c1	 cmove	 eax, ecx
  00189	89 85 74 ff ff
	ff		 mov	 DWORD PTR _Item$2[ebp+24], eax

; 831  : 					Item.crBkClr = COLOR_WHITE;
; 832  : 
; 833  : 				Item.crFgClr = COLOR_BLACK;
; 834  : 			}

  0018f	e9 13 02 00 00	 jmp	 $LN92@InitGridFo
$LN12@InitGridFo:

; 779  : 			}
; 780  : 			else
; 781  : 			{
; 782  : 				if( col == HOGA_COL )					

  00194	83 fe 04	 cmp	 esi, 4
  00197	75 09		 jne	 SHORT $LN17@InitGridFo

; 783  : 				{
; 784  : 					Item.nFormat |= DT_CENTER;

  00199	83 8d 6c ff ff
	ff 01		 or	 DWORD PTR _Item$2[ebp+16], 1

; 785  : 
; 786  : 					//    (10)___JSJ_ADD_050126
; 787  : //					if( row == ETC_HOGAUP_ROW || row == ETC_HOGADOWN_ROW)
; 788  : //						Item.nState |= GVIS_CELLEDITABLE;
; 789  : 				}

  001a0	eb 46		 jmp	 SHORT $LN29@InitGridFo
$LN17@InitGridFo:

; 790  : 				else if (col == DAEBI_COL)

  001a2	83 fe 05	 cmp	 esi, 5
  001a5	74 3a		 je	 SHORT $LN23@InitGridFo

; 791  : 				{
; 792  : 					Item.nFormat |= DT_RIGHT;
; 793  : 				}
; 794  : 				else if( col == MAEDO_JAN_COL || col == MAESU_JAN_COL )

  001a7	83 fe 03	 cmp	 esi, 3
  001aa	74 35		 je	 SHORT $LN23@InitGridFo
  001ac	83 fe 06	 cmp	 esi, 6
  001af	74 30		 je	 SHORT $LN23@InitGridFo

; 795  : 				{
; 796  : 					Item.nFormat |= DT_RIGHT;
; 797  : 				}
; 798  : 				else if( col == LEFT_CAN_COL || col == RIGHT_CAN_COL )	

  001b1	83 fe 01	 cmp	 esi, 1
  001b4	74 32		 je	 SHORT $LN29@InitGridFo
  001b6	83 fe 08	 cmp	 esi, 8
  001b9	74 2d		 je	 SHORT $LN29@InitGridFo

; 799  : 				{
; 800  : //					if( m_pGridCtrl->InsideStaticLeft(row, col) )
; 801  : //					{
; 802  : //						Item.nState = GVIS_MODIFIED ;
; 803  : //					}
; 804  : //					else if( m_pGridCtrl->InsideStaticRight(row, col) )
; 805  : //					{
; 806  : //						Item.nState = GVIS_MODIFIED ;
; 807  : //					}
; 808  : //					
; 809  : //					Item.nFormat |= DT_CENTER;
; 810  : 				}
; 811  : 				else
; 812  : 				{
; 813  : 					if( col == MAEDO_COL || col == MAESU_COL || col == MAEDO_RESERVE_COL || col == MAESU_RESERVE_COL )

  001bb	83 fe 02	 cmp	 esi, 2
  001be	74 0e		 je	 SHORT $LN28@InitGridFo
  001c0	83 fe 07	 cmp	 esi, 7
  001c3	74 09		 je	 SHORT $LN28@InitGridFo
  001c5	85 f6		 test	 esi, esi
  001c7	74 05		 je	 SHORT $LN28@InitGridFo
  001c9	83 fe 09	 cmp	 esi, 9
  001cc	75 0a		 jne	 SHORT $LN27@InitGridFo
$LN28@InitGridFo:

; 814  : 						Item.nState = GVIS_MODIFIED ;

  001ce	c7 85 68 ff ff
	ff 80 00 00 00	 mov	 DWORD PTR _Item$2[ebp+12], 128 ; 00000080H
$LN27@InitGridFo:

; 815  : 					
; 816  : 					Item.nFormat |= DT_CENTER;

  001d8	83 8d 6c ff ff
	ff 01		 or	 DWORD PTR _Item$2[ebp+16], 1
  001df	eb 07		 jmp	 SHORT $LN29@InitGridFo
$LN23@InitGridFo:

; 835  : //			else if(row == MARKETPRICE_ROW)
; 836  : //			{
; 837  : //				if (col > MAEDO_COL && col < MAESU_COL)
; 838  : //				{
; 839  : //					Item.crBkClr = COLOR_MARKET_PRICE;
; 840  : //					Item.crFgClr = COLOR_BLACK;
; 841  : //				}
; 842  : //				else if (col == MAEDO_COL)
; 843  : //				{
; 844  : //					Item.crBkClr = COLOR_STATIC_MAEDO_BG;
; 845  : //					Item.crFgClr = COLOR_BLACK;
; 846  : //				}
; 847  : //				else if (col == MAESU_COL)
; 848  : //				{
; 849  : //					Item.crBkClr = COLOR_STATIC_MAESU_BG;
; 850  : //					Item.crFgClr = COLOR_BLACK;
; 851  : //				}
; 852  : //				else if (col == MAEDO_RESERVE_COL)
; 853  : //				{
; 854  : //					Item.crBkClr = COLOR_MAEDO_RESERVE_COL;
; 855  : //					Item.crFgClr = COLOR_BLACK;
; 856  : //				}
; 857  : //				else if (col == MAESU_RESERVE_COL)
; 858  : //				{
; 859  : //					Item.crBkClr = COLOR_MAESU_RESERVE_COL;
; 860  : //					Item.crFgClr = COLOR_BLACK;
; 861  : //				}
; 862  : //				else
; 863  : //				{
; 864  : //					Item.crBkClr = COLOR_WHITE;
; 865  : //					Item.crFgClr = COLOR_BLACK;
; 866  : //				}
; 867  : //			}
; 868  : 			else if(row == HIGH_ROW)

  001e1	83 8d 6c ff ff
	ff 02		 or	 DWORD PTR _Item$2[ebp+16], 2
$LN29@InitGridFo:
  001e8	83 ff 02	 cmp	 edi, 2
  001eb	0f 85 86 00 00
	00		 jne	 $LN32@InitGridFo

; 869  : 			{
; 870  : 				if (col == HOGA_COL)

  001f1	83 fe 04	 cmp	 esi, 4
  001f4	75 19		 jne	 SHORT $LN34@InitGridFo

; 871  : 				{
; 872  : 					Item.crBkClr = COLOR_RED;

  001f6	c7 85 74 ff ff
	ff ff 00 00 00	 mov	 DWORD PTR _Item$2[ebp+24], 255 ; 000000ffH

; 873  : 					Item.crFgClr = COLOR_WHITE;

  00200	c7 85 78 ff ff
	ff ff ff ff 00	 mov	 DWORD PTR _Item$2[ebp+28], 16777215 ; 00ffffffH

; 874  : 				}

  0020a	e9 a2 01 00 00	 jmp	 $LN69@InitGridFo
$LN34@InitGridFo:

; 875  : 				else if (col == MAEDO_COL)

  0020f	83 fe 02	 cmp	 esi, 2
  00212	75 0f		 jne	 SHORT $LN36@InitGridFo

; 876  : 				{
; 877  : 					Item.crBkClr = COLOR_STATIC_MAEDO_BG;

  00214	c7 85 74 ff ff
	ff ed f7 ff 00	 mov	 DWORD PTR _Item$2[ebp+24], 16775149 ; 00fff7edH

; 878  : 					Item.crFgClr = COLOR_BLACK;
; 879  : 				}

  0021e	e9 84 01 00 00	 jmp	 $LN92@InitGridFo
$LN36@InitGridFo:

; 880  : 				else if (col == MAESU_COL)

  00223	83 fe 07	 cmp	 esi, 7
  00226	75 0f		 jne	 SHORT $LN38@InitGridFo

; 881  : 				{
; 882  : 					Item.crBkClr = COLOR_STATIC_MAESU_BG;

  00228	c7 85 74 ff ff
	ff fd f0 fa 00	 mov	 DWORD PTR _Item$2[ebp+24], 16445693 ; 00faf0fdH

; 883  : 					Item.crFgClr = COLOR_BLACK;
; 884  : 				}

  00232	e9 70 01 00 00	 jmp	 $LN92@InitGridFo
$LN38@InitGridFo:

; 885  : 				else if (col == MAEDO_RESERVE_COL)

  00237	85 f6		 test	 esi, esi
  00239	75 0f		 jne	 SHORT $LN40@InitGridFo

; 886  : 				{
; 887  : 					Item.crBkClr = COLOR_MAEDO_RESERVE_COL;

  0023b	c7 85 74 ff ff
	ff dc f1 ff 00	 mov	 DWORD PTR _Item$2[ebp+24], 16773596 ; 00fff1dcH

; 888  : 					Item.crFgClr = COLOR_BLACK;
; 889  : 				}

  00245	e9 5d 01 00 00	 jmp	 $LN92@InitGridFo
$LN40@InitGridFo:

; 890  : 				else if (col == MAESU_RESERVE_COL)

  0024a	c7 85 78 ff ff
	ff 00 00 00 00	 mov	 DWORD PTR _Item$2[ebp+28], 0
  00254	83 fe 09	 cmp	 esi, 9
  00257	75 0f		 jne	 SHORT $LN42@InitGridFo

; 891  : 				{
; 892  : 					Item.crBkClr = COLOR_MAESU_RESERVE_COL;

  00259	c7 85 74 ff ff
	ff ff de e9 00	 mov	 DWORD PTR _Item$2[ebp+24], 15326975 ; 00e9deffH

; 893  : 					Item.crFgClr = COLOR_BLACK;
; 894  : 				}

  00263	e9 49 01 00 00	 jmp	 $LN69@InitGridFo
$LN42@InitGridFo:

; 895  : 				else
; 896  : 				{
; 897  : 					Item.crBkClr = COLOR_WHITE;

  00268	c7 85 74 ff ff
	ff ff ff ff 00	 mov	 DWORD PTR _Item$2[ebp+24], 16777215 ; 00ffffffH

; 898  : 					Item.crFgClr = COLOR_BLACK;
; 899  : 				}
; 900  : 			}

  00272	e9 1c 01 00 00	 jmp	 $LN89@InitGridFo
$LN32@InitGridFo:

; 901  : 			else if(row == m_nLowLimitRow)

  00277	3b bb d0 01 00
	00		 cmp	 edi, DWORD PTR [ebx+464]
  0027d	0f 85 86 00 00
	00		 jne	 $LN44@InitGridFo

; 902  : 			{
; 903  : 				if (col == HOGA_COL)

  00283	83 fe 04	 cmp	 esi, 4
  00286	75 19		 jne	 SHORT $LN46@InitGridFo

; 904  : 				{
; 905  : 					Item.crBkClr = COLOR_BLUE;

  00288	c7 85 74 ff ff
	ff 00 00 ff 00	 mov	 DWORD PTR _Item$2[ebp+24], 16711680 ; 00ff0000H

; 906  : 					Item.crFgClr = COLOR_WHITE;

  00292	c7 85 78 ff ff
	ff ff ff ff 00	 mov	 DWORD PTR _Item$2[ebp+28], 16777215 ; 00ffffffH

; 907  : 				}

  0029c	e9 ee 00 00 00	 jmp	 $LN65@InitGridFo
$LN46@InitGridFo:

; 908  : 				else if (col == MAEDO_COL)

  002a1	83 fe 02	 cmp	 esi, 2
  002a4	75 0f		 jne	 SHORT $LN48@InitGridFo

; 909  : 				{
; 910  : 					Item.crBkClr = COLOR_STATIC_MAEDO_BG;

  002a6	c7 85 74 ff ff
	ff ed f7 ff 00	 mov	 DWORD PTR _Item$2[ebp+24], 16775149 ; 00fff7edH

; 911  : 					Item.crFgClr = COLOR_BLACK;
; 912  : 				}

  002b0	e9 d0 00 00 00	 jmp	 $LN67@InitGridFo
$LN48@InitGridFo:

; 913  : 				else if (col == MAESU_COL)

  002b5	83 fe 07	 cmp	 esi, 7
  002b8	75 0f		 jne	 SHORT $LN50@InitGridFo

; 914  : 				{
; 915  : 					Item.crBkClr = COLOR_STATIC_MAESU_BG;

  002ba	c7 85 74 ff ff
	ff fd f0 fa 00	 mov	 DWORD PTR _Item$2[ebp+24], 16445693 ; 00faf0fdH

; 916  : 					Item.crFgClr = COLOR_BLACK;
; 917  : 				}

  002c4	e9 bc 00 00 00	 jmp	 $LN67@InitGridFo
$LN50@InitGridFo:

; 918  : 				else if (col == MAEDO_RESERVE_COL)

  002c9	85 f6		 test	 esi, esi
  002cb	75 0f		 jne	 SHORT $LN52@InitGridFo

; 919  : 				{
; 920  : 					Item.crBkClr = COLOR_MAEDO_RESERVE_COL;

  002cd	c7 85 74 ff ff
	ff dc f1 ff 00	 mov	 DWORD PTR _Item$2[ebp+24], 16773596 ; 00fff1dcH

; 921  : 					Item.crFgClr = COLOR_BLACK;
; 922  : 				}

  002d7	e9 a9 00 00 00	 jmp	 $LN67@InitGridFo
$LN52@InitGridFo:

; 923  : 				else if (col == MAESU_RESERVE_COL)

  002dc	c7 85 78 ff ff
	ff 00 00 00 00	 mov	 DWORD PTR _Item$2[ebp+28], 0
  002e6	83 fe 09	 cmp	 esi, 9
  002e9	75 0f		 jne	 SHORT $LN54@InitGridFo

; 924  : 				{
; 925  : 					Item.crBkClr = COLOR_MAESU_RESERVE_COL;

  002eb	c7 85 74 ff ff
	ff ff de e9 00	 mov	 DWORD PTR _Item$2[ebp+24], 15326975 ; 00e9deffH

; 926  : 					Item.crFgClr = COLOR_BLACK;
; 927  : 				}

  002f5	e9 95 00 00 00	 jmp	 $LN65@InitGridFo
$LN54@InitGridFo:

; 928  : 				else
; 929  : 				{
; 930  : 					Item.crBkClr = COLOR_WHITE;

  002fa	c7 85 74 ff ff
	ff ff ff ff 00	 mov	 DWORD PTR _Item$2[ebp+24], 16777215 ; 00ffffffH

; 931  : 					Item.crFgClr = COLOR_BLACK;
; 932  : 				}
; 933  : 			}

  00304	e9 86 00 00 00	 jmp	 $LN65@InitGridFo
$LN44@InitGridFo:

; 934  : 			else if(row >= m_n5HogaSumRow )

  00309	3b bb d4 01 00
	00		 cmp	 edi, DWORD PTR [ebx+468]
  0030f	7c 0c		 jl	 SHORT $LN56@InitGridFo

; 935  : 			{
; 936  : 				Item.crBkClr = COLOR_TOTSUM_ROW;

  00311	c7 85 74 ff ff
	ff f9 f9 f9 00	 mov	 DWORD PTR _Item$2[ebp+24], 16382457 ; 00f9f9f9H

; 937  : 				Item.crFgClr = COLOR_BLACK;
; 938  : 			}

  0031b	eb 68		 jmp	 SHORT $LN67@InitGridFo
$LN56@InitGridFo:

; 939  : 			else
; 940  : 			{
; 941  : 				if (col == MAEDO_COL)

  0031d	83 fe 02	 cmp	 esi, 2
  00320	75 0c		 jne	 SHORT $LN58@InitGridFo

; 942  : 				{
; 943  : 					Item.crBkClr = COLOR_STATIC_MAEDO_BG;

  00322	c7 85 74 ff ff
	ff ed f7 ff 00	 mov	 DWORD PTR _Item$2[ebp+24], 16775149 ; 00fff7edH

; 944  : 					Item.crFgClr = COLOR_BLACK;
; 945  : 				}

  0032c	eb 57		 jmp	 SHORT $LN67@InitGridFo
$LN58@InitGridFo:

; 946  : 				else if (col == MAESU_COL)

  0032e	83 fe 07	 cmp	 esi, 7
  00331	75 0c		 jne	 SHORT $LN60@InitGridFo

; 947  : 				{
; 948  : 					Item.crBkClr = COLOR_STATIC_MAESU_BG;

  00333	c7 85 74 ff ff
	ff fd f0 fa 00	 mov	 DWORD PTR _Item$2[ebp+24], 16445693 ; 00faf0fdH

; 949  : 					Item.crFgClr = COLOR_BLACK;
; 950  : 				}

  0033d	eb 46		 jmp	 SHORT $LN67@InitGridFo
$LN60@InitGridFo:

; 951  : 				else if (col == MAEDO_RESERVE_COL)

  0033f	85 f6		 test	 esi, esi
  00341	75 0c		 jne	 SHORT $LN62@InitGridFo

; 952  : 				{
; 953  : 					Item.crBkClr = COLOR_MAEDO_RESERVE_COL;

  00343	c7 85 74 ff ff
	ff dc f1 ff 00	 mov	 DWORD PTR _Item$2[ebp+24], 16773596 ; 00fff1dcH

; 954  : 					Item.crFgClr = COLOR_BLACK;
; 955  : 				}

  0034d	eb 36		 jmp	 SHORT $LN67@InitGridFo
$LN62@InitGridFo:

; 956  : 				else if (col == MAESU_RESERVE_COL)

  0034f	83 fe 09	 cmp	 esi, 9
  00352	75 0c		 jne	 SHORT $LN64@InitGridFo

; 957  : 				{
; 958  : 					Item.crBkClr = COLOR_MAESU_RESERVE_COL;

  00354	c7 85 74 ff ff
	ff ff de e9 00	 mov	 DWORD PTR _Item$2[ebp+24], 15326975 ; 00e9deffH

; 959  : 					Item.crFgClr = COLOR_BLACK;
; 960  : 				}

  0035e	eb 25		 jmp	 SHORT $LN67@InitGridFo
$LN64@InitGridFo:

; 961  : 				else
; 962  : 				{
; 963  : 					//{{ 2007.06.26 by LYH  
; 964  : 					if(col == MAESU_JAN_COL && (row == PRICE_ROW-5 || row == PRICE_ROW-2))//,  

  00360	83 fe 06	 cmp	 esi, 6
  00363	75 16		 jne	 SHORT $LN66@InitGridFo
  00365	83 ff 09	 cmp	 edi, 9
  00368	74 05		 je	 SHORT $LN68@InitGridFo
  0036a	83 ff 0c	 cmp	 edi, 12			; 0000000cH
  0036d	75 0c		 jne	 SHORT $LN66@InitGridFo
$LN68@InitGridFo:

; 965  : 						Item.crBkClr = COLOR_GRIDHEADER;

  0036f	c7 85 74 ff ff
	ff f2 f8 fe 00	 mov	 DWORD PTR _Item$2[ebp+24], 16709874 ; 00fef8f2H
  00379	eb 0a		 jmp	 SHORT $LN67@InitGridFo
$LN66@InitGridFo:

; 966  : 					else
; 967  : 						Item.crBkClr = COLOR_WHITE;

  0037b	c7 85 74 ff ff
	ff ff ff ff 00	 mov	 DWORD PTR _Item$2[ebp+24], 16777215 ; 00ffffffH
$LN67@InitGridFo:

; 968  : 					//}}
; 969  : 					Item.crFgClr = COLOR_BLACK;
; 970  : 				}
; 971  : 			}
; 972  : 			
; 973  : 			// Cancel Column Color
; 974  : 			if ( row > TENHOGA_ROW_FIRST && (col == LEFT_CAN_COL || col == RIGHT_CAN_COL) )

  00385	c7 85 78 ff ff
	ff 00 00 00 00	 mov	 DWORD PTR _Item$2[ebp+28], 0
$LN65@InitGridFo:
  0038f	85 ff		 test	 edi, edi
  00391	74 1e		 je	 SHORT $LN69@InitGridFo
$LN89@InitGridFo:
  00393	83 fe 01	 cmp	 esi, 1
  00396	74 05		 je	 SHORT $LN70@InitGridFo
  00398	83 fe 08	 cmp	 esi, 8
  0039b	75 14		 jne	 SHORT $LN69@InitGridFo
$LN70@InitGridFo:

; 975  : 			{
; 976  : 				Item.crBkClr = COLOR_CANCEL_COL;

  0039d	c7 85 74 ff ff
	ff e1 f9 d7 00	 mov	 DWORD PTR _Item$2[ebp+24], 14154209 ; 00d7f9e1H
$LN92@InitGridFo:

; 977  : 				Item.crFgClr = COLOR_BLACK;
; 978  : 			}
; 979  : 
; 980  : 
; 981  : 			// SetItem
; 982  : 			m_pGridCtrl->SetItem(&Item);

  003a7	c7 85 78 ff ff
	ff 00 00 00 00	 mov	 DWORD PTR _Item$2[ebp+28], 0
$LN69@InitGridFo:
  003b1	8b 8b cc 00 00
	00		 mov	 ecx, DWORD PTR [ebx+204]
  003b7	8d 85 5c ff ff
	ff		 lea	 eax, DWORD PTR _Item$2[ebp]
  003bd	50		 push	 eax
  003be	e8 00 00 00 00	 call	 ?SetItem@CExGridCtrl@@QAEHPAU_GV_ITEM@@@Z ; CExGridCtrl::SetItem
  003c3	8d 4d c0	 lea	 ecx, DWORD PTR _Item$2[ebp+100]

; 983  : 		}

  003c6	c7 45 fc ff ff
	ff ff		 mov	 DWORD PTR __$EHRec$[ebp+8], -1
  003cd	ff 15 00 00 00
	00		 call	 DWORD PTR __imp_??1?$CStringT@DV?$StrTraitMFC_DLL@DV?$ChTraitsCRT@D@ATL@@@@@ATL@@QAE@XZ
  003d3	8b 85 54 ff ff
	ff		 mov	 eax, DWORD PTR _nCol$1$[ebp]
  003d9	46		 inc	 esi
  003da	3b f0		 cmp	 esi, eax
  003dc	0f 8c 1e fd ff
	ff		 jl	 $LL7@InitGridFo
  003e2	8b 8d 58 ff ff
	ff		 mov	 ecx, DWORD PTR _nRow$1$[ebp]
$LN2@InitGridFo:

; 746  : 
; 747  : 	// fill rows/cols with text
; 748  : 	int row, col;	
; 749  : 	for (row = 0; row < nRow; row++)

  003e8	47		 inc	 edi
  003e9	3b f9		 cmp	 edi, ecx
  003eb	0f 8c 01 fd ff
	ff		 jl	 $LL4@InitGridFo
$LN3@InitGridFo:

; 984  : 	}
; 985  : 
; 986  : 	// (5, , )
; 987  : 	m_pGridCtrl->SetItemText(m_n5HogaSumRow, HOGA_COL, "5");

  003f1	8b 8b cc 00 00
	00		 mov	 ecx, DWORD PTR [ebx+204]
  003f7	68 00 00 00 00	 push	 OFFSET ??_C@_09DCEFIFCJ@5?H?$KD?$LA?$KB?$MA?$NM?$LH?$KO@
  003fc	6a 04		 push	 4
  003fe	ff b3 d4 01 00
	00		 push	 DWORD PTR [ebx+468]
  00404	e8 00 00 00 00	 call	 ?SetItemText@CExGridCtrl@@QAEHHHPBD@Z ; CExGridCtrl::SetItemText

; 988  : 	m_pGridCtrl->RedrawCell(m_n5HogaSumRow, HOGA_COL);

  00409	8b 8b cc 00 00
	00		 mov	 ecx, DWORD PTR [ebx+204]
  0040f	6a 00		 push	 0
  00411	6a 04		 push	 4
  00413	ff b3 d4 01 00
	00		 push	 DWORD PTR [ebx+468]
  00419	e8 00 00 00 00	 call	 ?RedrawCell@CExGridCtrl@@QAEHHHPAVCDC@@@Z ; CExGridCtrl::RedrawCell

; 989  : 	m_pGridCtrl->SetItemText(m_nTotalSumRow, HOGA_COL, "");

  0041e	8b 8b cc 00 00
	00		 mov	 ecx, DWORD PTR [ebx+204]
  00424	68 00 00 00 00	 push	 OFFSET ??_C@_06DDAGPNBF@?C?Q?$MA?$NM?$LH?$KO@
  00429	6a 04		 push	 4
  0042b	ff b3 d8 01 00
	00		 push	 DWORD PTR [ebx+472]
  00431	e8 00 00 00 00	 call	 ?SetItemText@CExGridCtrl@@QAEHHHPBD@Z ; CExGridCtrl::SetItemText

; 990  : 	m_pGridCtrl->RedrawCell(m_nTotalSumRow, HOGA_COL);

  00436	8b 8b cc 00 00
	00		 mov	 ecx, DWORD PTR [ebx+204]
  0043c	6a 00		 push	 0
  0043e	6a 04		 push	 4
  00440	ff b3 d8 01 00
	00		 push	 DWORD PTR [ebx+472]
  00446	e8 00 00 00 00	 call	 ?RedrawCell@CExGridCtrl@@QAEHHHPAVCDC@@@Z ; CExGridCtrl::RedrawCell

; 991  : 	m_pGridCtrl->SetItemText(m_nExtraVolRow, HOGA_COL, "");

  0044b	8b 8b cc 00 00
	00		 mov	 ecx, DWORD PTR [ebx+204]
  00451	68 00 00 00 00	 push	 OFFSET ??_C@_06BINLOPDK@?$LN?C?$LA?$KD?$LP?$NM@
  00456	6a 04		 push	 4
  00458	ff b3 dc 01 00
	00		 push	 DWORD PTR [ebx+476]
  0045e	e8 00 00 00 00	 call	 ?SetItemText@CExGridCtrl@@QAEHHHPBD@Z ; CExGridCtrl::SetItemText

; 992  : 	m_pGridCtrl->RedrawCell(m_nExtraVolRow, HOGA_COL);

  00463	8b 8b cc 00 00
	00		 mov	 ecx, DWORD PTR [ebx+204]
  00469	6a 00		 push	 0
  0046b	6a 04		 push	 4
  0046d	ff b3 dc 01 00
	00		 push	 DWORD PTR [ebx+476]
  00473	e8 00 00 00 00	 call	 ?RedrawCell@CExGridCtrl@@QAEHHHPAVCDC@@@Z ; CExGridCtrl::RedrawCell

; 993  : }

  00478	8b 4d f4	 mov	 ecx, DWORD PTR __$EHRec$[ebp]
  0047b	64 89 0d 00 00
	00 00		 mov	 DWORD PTR fs:0, ecx
  00482	59		 pop	 ecx
  00483	5f		 pop	 edi
  00484	5e		 pop	 esi
  00485	5b		 pop	 ebx
  00486	8b 4d f0	 mov	 ecx, DWORD PTR __$ArrayPad$[ebp]
  00489	33 cd		 xor	 ecx, ebp
  0048b	e8 00 00 00 00	 call	 @__security_check_cookie@4
  00490	8b e5		 mov	 esp, ebp
  00492	5d		 pop	 ebp
  00493	c3		 ret	 0
_TEXT	ENDS
;	COMDAT text$x
text$x	SEGMENT
__unwindfunclet$?InitGridFormat@CFloatingHogaDlg@@QAEXXZ$0:
  00000	8d 8d 5c ff ff
	ff		 lea	 ecx, DWORD PTR _Item$2[ebp]
  00006	e9 00 00 00 00	 jmp	 ??1_GV_ITEM@@QAE@XZ
  0000b	cc		 int	 3
  0000c	cc		 int	 3
  0000d	cc		 int	 3
  0000e	cc		 int	 3
  0000f	cc		 int	 3
__ehhandler$?InitGridFormat@CFloatingHogaDlg@@QAEXXZ:
  00010	90		 npad	 1
  00011	90		 npad	 1
  00012	8b 54 24 08	 mov	 edx, DWORD PTR [esp+8]
  00016	8d 42 0c	 lea	 eax, DWORD PTR [edx+12]
  00019	8b 8a 50 ff ff
	ff		 mov	 ecx, DWORD PTR [edx-176]
  0001f	33 c8		 xor	 ecx, eax
  00021	e8 00 00 00 00	 call	 @__security_check_cookie@4
  00026	8b 4a fc	 mov	 ecx, DWORD PTR [edx-4]
  00029	33 c8		 xor	 ecx, eax
  0002b	e8 00 00 00 00	 call	 @__security_check_cookie@4
  00030	b8 00 00 00 00	 mov	 eax, OFFSET __ehfuncinfo$?InitGridFormat@CFloatingHogaDlg@@QAEXXZ
  00035	e9 00 00 00 00	 jmp	 ___CxxFrameHandler3
text$x	ENDS
?InitGridFormat@CFloatingHogaDlg@@QAEXXZ ENDP		; CFloatingHogaDlg::InitGridFormat
; Function compile flags: /Ogtp
; File D:\git\src\IBK\IBK_DRFN\ProjSrc\SrcDrfn\Chart\MULTICHART\FloatingHogaDlg.cpp
;	COMDAT ?ChangeGrid_AllWidth@CFloatingHogaDlg@@QAEXXZ
_TEXT	SEGMENT
?ChangeGrid_AllWidth@CFloatingHogaDlg@@QAEXXZ PROC	; CFloatingHogaDlg::ChangeGrid_AllWidth, COMDAT
; _this$ = ecx

; 494  : {

  00000	53		 push	 ebx
  00001	56		 push	 esi
  00002	57		 push	 edi
  00003	8b f9		 mov	 edi, ecx

; 503  : 	int nRow = m_pGridCtrl->GetRowCount();

  00005	8b 8f cc 00 00
	00		 mov	 ecx, DWORD PTR [edi+204]
  0000b	e8 00 00 00 00	 call	 ?GetRowCount@CExGridCtrl@@QAEHXZ ; CExGridCtrl::GetRowCount
  00010	8b d8		 mov	 ebx, eax
  00012	33 f6		 xor	 esi, esi

; 504  : 	//   
; 505  : 	int row;
; 506  : 	for (row = 0; row < nRow; row++)

  00014	85 db		 test	 ebx, ebx
  00016	7e 54		 jle	 SHORT $LN5@ChangeGrid
  00018	0f 1f 84 00 00
	00 00 00	 npad	 8
$LL6@ChangeGrid:

; 507  : 	{
; 508  : 		// ******** 10  **********
; 509  : 		if ( m_bIsTenHoga == TRUE )		

  00020	83 bf c0 01 00
	00 01		 cmp	 DWORD PTR [edi+448], 1
  00027	75 2c		 jne	 SHORT $LN7@ChangeGrid

; 510  : 		{
; 511  : 			if( m_bExpandBottom == TRUE )		// 

  00029	83 bf a0 01 00
	00 01		 cmp	 DWORD PTR [edi+416], 1
  00030	74 23		 je	 SHORT $LN7@ChangeGrid

; 512  : 			{
; 513  : 				m_pGridCtrl->SetRowHeight(row, ROW_HEIGHT);
; 514  : 				//m_pGridCtrl->SetRowHeight_NoReset(row, ROW_HEIGHT);
; 515  : 			}
; 516  : 			else								// 
; 517  : 			{
; 518  : 				if( MAEDO_ROW <= row && row <= MAEDO_ROW+4 )

  00032	8d 4e ed	 lea	 ecx, DWORD PTR [esi-19]
  00035	8d 41 0f	 lea	 eax, DWORD PTR [ecx+15]
  00038	83 f8 04	 cmp	 eax, 4
  0003b	76 14		 jbe	 SHORT $LN17@ChangeGrid

; 519  : 				{
; 520  : 					m_pGridCtrl->SetRowHeight(row, 0);
; 521  : 					//m_pGridCtrl->SetRowHeight_NoReset(row, 0);
; 522  : 				}
; 523  : 				else if( MAESU_ROW+5 <= row && row <= MAESU_ROW+9 )

  0003d	83 f9 04	 cmp	 ecx, 4
  00040	76 0f		 jbe	 SHORT $LN17@ChangeGrid

; 524  : 				{
; 525  : 					m_pGridCtrl->SetRowHeight(row, 0);
; 526  : 					//m_pGridCtrl->SetRowHeight_NoReset(row, 0);
; 527  : 				}
; 528  : 				else if (	(ETC_HOGAUP_ROW		== row) || 	//   
; 529  : 							(ETC_HOGADOWN_ROW	== row)	||	//   

  00042	83 fe 03	 cmp	 esi, 3
  00045	74 0a		 je	 SHORT $LN17@ChangeGrid
  00047	83 fe 18	 cmp	 esi, 24			; 00000018H
  0004a	74 05		 je	 SHORT $LN17@ChangeGrid
  0004c	83 fe 01	 cmp	 esi, 1
  0004f	75 04		 jne	 SHORT $LN7@ChangeGrid
$LN17@ChangeGrid:

; 530  : 							(MARKETPRICE_ROW	== row)
; 531  : 				)
; 532  : 				{
; 533  : 					m_pGridCtrl->SetRowHeight(row, 0);
; 534  : 					//m_pGridCtrl->SetRowHeight_NoReset(row, 0);
; 535  : 				}
; 536  : 				else 
; 537  : 				{
; 538  : 					m_pGridCtrl->SetRowHeight(row, ROW_HEIGHT);
; 539  : 					//m_pGridCtrl->SetRowHeight_NoReset(row, ROW_HEIGHT);
; 540  : 				}
; 541  : 			}
; 542  : 		}

  00051	33 c0		 xor	 eax, eax
  00053	eb 05		 jmp	 SHORT $LN16@ChangeGrid
$LN7@ChangeGrid:

; 504  : 	//   
; 505  : 	int row;
; 506  : 	for (row = 0; row < nRow; row++)

  00055	b8 0e 00 00 00	 mov	 eax, 14			; 0000000eH
$LN16@ChangeGrid:
  0005a	8b 8f cc 00 00
	00		 mov	 ecx, DWORD PTR [edi+204]
  00060	50		 push	 eax
  00061	56		 push	 esi
  00062	e8 00 00 00 00	 call	 ?SetRowHeight@CExGridCtrl@@QAEHHH@Z ; CExGridCtrl::SetRowHeight
  00067	46		 inc	 esi
  00068	3b f3		 cmp	 esi, ebx
  0006a	7c b4		 jl	 SHORT $LL6@ChangeGrid
$LN5@ChangeGrid:

; 543  : 		// ********   **********
; 544  : 		else
; 545  : 		{
; 546  : 			m_pGridCtrl->SetRowHeight(row, ROW_HEIGHT);
; 547  : 			//m_pGridCtrl->SetRowHeight_NoReset(row, ROW_HEIGHT);
; 548  : 
; 549  : 		}
; 550  : 	}
; 551  : 
; 552  : //	m_pGridCtrl->Call_ResetScrollBars();
; 553  : 
; 554  : 	m_pGridCtrl->Refresh();	

  0006c	8b 8f cc 00 00
	00		 mov	 ecx, DWORD PTR [edi+204]
  00072	e8 00 00 00 00	 call	 ?Refresh@CExGridCtrl@@QAEXXZ ; CExGridCtrl::Refresh

; 495  : 	ChangeGrid_RowHeight();
; 496  : 	ChangeGrid_ColumnWidth();

  00077	8b cf		 mov	 ecx, edi
  00079	5f		 pop	 edi
  0007a	5e		 pop	 esi
  0007b	5b		 pop	 ebx
  0007c	e9 00 00 00 00	 jmp	 ?ChangeGrid_ColumnWidth@CFloatingHogaDlg@@QAEXXZ ; CFloatingHogaDlg::ChangeGrid_ColumnWidth
?ChangeGrid_AllWidth@CFloatingHogaDlg@@QAEXXZ ENDP	; CFloatingHogaDlg::ChangeGrid_AllWidth
_TEXT	ENDS
; Function compile flags: /Ogtp
; File D:\git\src\IBK\IBK_DRFN\ProjSrc\SrcDrfn\Chart\MULTICHART\FloatingHogaDlg.cpp
;	COMDAT ?InitGridRowCol@CFloatingHogaDlg@@QAEXXZ
_TEXT	SEGMENT
_e$2 = -20						; size = 4
__$EHRec$ = -16						; size = 16
?InitGridRowCol@CFloatingHogaDlg@@QAEXXZ PROC		; CFloatingHogaDlg::InitGridRowCol, COMDAT
; _this$ = ecx

; 466  : {	

  00000	55		 push	 ebp
  00001	8b ec		 mov	 ebp, esp
  00003	6a ff		 push	 -1
  00005	68 00 00 00 00	 push	 __ehhandler$?InitGridRowCol@CFloatingHogaDlg@@QAEXXZ
  0000a	64 a1 00 00 00
	00		 mov	 eax, DWORD PTR fs:0
  00010	50		 push	 eax
  00011	83 ec 08	 sub	 esp, 8
  00014	53		 push	 ebx
  00015	56		 push	 esi
  00016	57		 push	 edi
  00017	a1 00 00 00 00	 mov	 eax, DWORD PTR ___security_cookie
  0001c	33 c5		 xor	 eax, ebp
  0001e	50		 push	 eax
  0001f	8d 45 f4	 lea	 eax, DWORD PTR __$EHRec$[ebp+4]
  00022	64 a3 00 00 00
	00		 mov	 DWORD PTR fs:0, eax
  00028	89 65 f0	 mov	 DWORD PTR __$EHRec$[ebp], esp
  0002b	8b f1		 mov	 esi, ecx

; 467  : 	try {
; 468  : 		int nRow, nCol;
; 469  : 
; 470  : 		//        
; 471  : 		nRow = TENHOGA_ROW_COUNT;
; 472  : 		nCol = TOTAL_COLUMN_COUNT;
; 473  : 		
; 474  : 		m_pGridCtrl->SetRowCount(nRow);

  0002d	8b 8e cc 00 00
	00		 mov	 ecx, DWORD PTR [esi+204]
  00033	6a 1d		 push	 29			; 0000001dH
  00035	c7 45 fc 00 00
	00 00		 mov	 DWORD PTR __$EHRec$[ebp+12], 0
  0003c	e8 00 00 00 00	 call	 ?SetRowCount@CExGridCtrl@@QAEHH@Z ; CExGridCtrl::SetRowCount

; 475  : 		m_pGridCtrl->SetColumnCount(nCol);

  00041	8b 8e cc 00 00
	00		 mov	 ecx, DWORD PTR [esi+204]
  00047	6a 0b		 push	 11			; 0000000bH
  00049	e8 00 00 00 00	 call	 ?SetColumnCount@CExGridCtrl@@QAEHH@Z ; CExGridCtrl::SetColumnCount

; 476  : 		m_pGridCtrl->SetFixedRowCount(FIXED_ROW_CNT_TEN);

  0004e	8b 8e cc 00 00
	00		 mov	 ecx, DWORD PTR [esi+204]
  00054	6a 01		 push	 1
  00056	e8 00 00 00 00	 call	 ?SetFixedRowCount@CExGridCtrl@@QAEHH@Z ; CExGridCtrl::SetFixedRowCount

; 477  : 		m_pGridCtrl->SetFixedColumnCount(0);

  0005b	8b 8e cc 00 00
	00		 mov	 ecx, DWORD PTR [esi+204]
  00061	6a 00		 push	 0
  00063	e8 00 00 00 00	 call	 ?SetFixedColumnCount@CExGridCtrl@@QAEHH@Z ; CExGridCtrl::SetFixedColumnCount

; 478  : //		m_pGridCtrl->SetBongGraphEnable(TRUE);
; 479  : 
; 480  : 		m_pGridCtrl->SetBkColor(COLOR_WHITE);

  00068	8b 8e cc 00 00
	00		 mov	 ecx, DWORD PTR [esi+204]
  0006e	68 ff ff ff 00	 push	 16777215		; 00ffffffH
  00073	e8 00 00 00 00	 call	 ?SetBkColor@CExGridCtrl@@QAEXK@Z ; CExGridCtrl::SetBkColor
$LN7@InitGridRo:

; 487  : 	}
; 488  : }

  00078	8b 4d f4	 mov	 ecx, DWORD PTR __$EHRec$[ebp+4]
  0007b	64 89 0d 00 00
	00 00		 mov	 DWORD PTR fs:0, ecx
  00082	59		 pop	 ecx
  00083	5f		 pop	 edi
  00084	5e		 pop	 esi
  00085	5b		 pop	 ebx
  00086	8b e5		 mov	 esp, ebp
  00088	5d		 pop	 ebp
  00089	c3		 ret	 0
__catch$?InitGridRowCol@CFloatingHogaDlg@@QAEXXZ$0:

; 481  : 	}
; 482  : 	catch (CMemoryException* e)
; 483  : 	{
; 484  : 		e->ReportError();

  0008a	8b 75 ec	 mov	 esi, DWORD PTR _e$2[ebp]
  0008d	8b ce		 mov	 ecx, esi
  0008f	6a 00		 push	 0
  00091	6a 00		 push	 0
  00093	8b 06		 mov	 eax, DWORD PTR [esi]
  00095	ff 50 1c	 call	 DWORD PTR [eax+28]

; 485  : 		e->Delete();

  00098	8b ce		 mov	 ecx, esi
  0009a	e8 00 00 00 00	 call	 ?Delete@CException@@QAEXXZ ; CException::Delete

; 486  : 		return;

  0009f	b8 00 00 00 00	 mov	 eax, $LN7@InitGridRo
  000a4	c3		 ret	 0
  000a5	cc		 int	 3
  000a6	cc		 int	 3
  000a7	cc		 int	 3
  000a8	cc		 int	 3
  000a9	cc		 int	 3
_TEXT	ENDS
;	COMDAT text$x
text$x	SEGMENT
__ehhandler$?InitGridRowCol@CFloatingHogaDlg@@QAEXXZ:
  00000	90		 npad	 1
  00001	90		 npad	 1
  00002	8b 54 24 08	 mov	 edx, DWORD PTR [esp+8]
  00006	8d 42 0c	 lea	 eax, DWORD PTR [edx+12]
  00009	8b 4a e8	 mov	 ecx, DWORD PTR [edx-24]
  0000c	33 c8		 xor	 ecx, eax
  0000e	e8 00 00 00 00	 call	 @__security_check_cookie@4
  00013	b8 00 00 00 00	 mov	 eax, OFFSET __ehfuncinfo$?InitGridRowCol@CFloatingHogaDlg@@QAEXXZ
  00018	e9 00 00 00 00	 jmp	 ___CxxFrameHandler3
text$x	ENDS
?InitGridRowCol@CFloatingHogaDlg@@QAEXXZ ENDP		; CFloatingHogaDlg::InitGridRowCol
; Function compile flags: /Ogtp
; File D:\git\src\IBK\IBK_DRFN\ProjSrc\SrcDrfn\Chart\MULTICHART\FloatingHogaDlg.cpp
; File C:\Program Files (x86)\Microsoft Visual Studio\2019\Community\VC\Tools\MSVC\14.29.30133\atlmfc\include\afxwin1.inl
; File D:\git\src\IBK\IBK_DRFN\ProjSrc\SrcDrfn\Chart\MULTICHART\FloatingHogaDlg.cpp
; File C:\Program Files (x86)\Microsoft Visual Studio\2019\Community\VC\Tools\MSVC\14.29.30133\atlmfc\include\afxwin1.inl
; File C:\Program Files (x86)\Microsoft Visual Studio\2019\Community\VC\Tools\MSVC\14.29.30133\atlmfc\include\afx.inl
; File D:\git\src\IBK\IBK_DRFN\ProjSrc\SrcDrfn\Chart\MULTICHART\FloatingHogaDlg.cpp
; File C:\Program Files (x86)\Microsoft Visual Studio\2019\Community\VC\Tools\MSVC\14.29.30133\atlmfc\include\afxwin2.inl
; File D:\git\src\IBK\IBK_DRFN\ProjSrc\SrcDrfn\Chart\MULTICHART\FloatingHogaDlg.cpp
; File C:\Program Files (x86)\Microsoft Visual Studio\2019\Community\VC\Tools\MSVC\14.29.30133\atlmfc\include\atltypes.h
; File D:\git\src\IBK\IBK_DRFN\ProjSrc\SrcDrfn\Chart\MULTICHART\FloatingHogaDlg.cpp
; File C:\Program Files (x86)\Microsoft Visual Studio\2019\Community\VC\Tools\MSVC\14.29.30133\atlmfc\include\atltypes.h
; File D:\git\src\IBK\IBK_DRFN\ProjSrc\SrcDrfn\Chart\MULTICHART\FloatingHogaDlg.cpp
; File C:\Program Files (x86)\Microsoft Visual Studio\2019\Community\VC\Tools\MSVC\14.29.30133\atlmfc\include\afxwin1.inl
; File C:\Program Files (x86)\Microsoft Visual Studio\2019\Community\VC\Tools\MSVC\14.29.30133\atlmfc\include\afxwin2.inl
; File D:\git\src\IBK\IBK_DRFN\ProjSrc\SrcDrfn\Chart\MULTICHART\FloatingHogaDlg.cpp
; File C:\Program Files (x86)\Microsoft Visual Studio\2019\Community\VC\Tools\MSVC\14.29.30133\atlmfc\include\afxwin2.inl
; File D:\git\src\IBK\IBK_DRFN\ProjSrc\SrcDrfn\Chart\MULTICHART\FloatingHogaDlg.cpp
;	COMDAT ?InitGrid@CFloatingHogaDlg@@QAEXXZ
_TEXT	SEGMENT
_dc$2 = -36						; size = 20
$T3 = -16						; size = 4
__$EHRec$ = -12						; size = 12
?InitGrid@CFloatingHogaDlg@@QAEXXZ PROC			; CFloatingHogaDlg::InitGrid, COMDAT
; _this$ = ecx

; 406  : {

  00000	55		 push	 ebp
  00001	8b ec		 mov	 ebp, esp
  00003	6a ff		 push	 -1
  00005	68 00 00 00 00	 push	 __ehhandler$?InitGrid@CFloatingHogaDlg@@QAEXXZ
  0000a	64 a1 00 00 00
	00		 mov	 eax, DWORD PTR fs:0
  00010	50		 push	 eax
  00011	83 ec 18	 sub	 esp, 24			; 00000018H
  00014	53		 push	 ebx
  00015	56		 push	 esi
  00016	57		 push	 edi
  00017	a1 00 00 00 00	 mov	 eax, DWORD PTR ___security_cookie
  0001c	33 c5		 xor	 eax, ebp
  0001e	50		 push	 eax
  0001f	8d 45 f4	 lea	 eax, DWORD PTR __$EHRec$[ebp]
  00022	64 a3 00 00 00
	00		 mov	 DWORD PTR fs:0, eax
  00028	8b f1		 mov	 esi, ecx

; 407  : 	if (m_pGridCtrl == NULL)

  0002a	83 be cc 00 00
	00 00		 cmp	 DWORD PTR [esi+204], 0
  00031	0f 85 63 02 00
	00		 jne	 $LN2@InitGrid

; 408  : 	{
; 409  : 		//AFX_MANAGE_STATE(AfxGetStaticModuleState());
; 410  : 		CClientDC dc(this);

  00037	56		 push	 esi
  00038	8d 4d dc	 lea	 ecx, DWORD PTR _dc$2[ebp]
  0003b	e8 00 00 00 00	 call	 ??0CClientDC@@QAE@PAVCWnd@@@Z ; CClientDC::CClientDC

; 411  : 		m_logGridFont.lfWidth = 0; 

  00040	c7 86 e4 00 00
	00 00 00 00 00	 mov	 DWORD PTR [esi+228], 0

; 426  : 		if( m_GridFont.GetSafeHandle() )

  0004a	8d 9e 1c 01 00
	00		 lea	 ebx, DWORD PTR [esi+284]
  00050	c7 86 e8 00 00
	00 00 00 00 00	 mov	 DWORD PTR [esi+232], 0
  0005a	8d be e0 00 00
	00		 lea	 edi, DWORD PTR [esi+224]
  00060	c7 86 ec 00 00
	00 00 00 00 00	 mov	 DWORD PTR [esi+236], 0
  0006a	c7 86 f0 00 00
	00 90 01 00 00	 mov	 DWORD PTR [esi+240], 400 ; 00000190H
  00074	c7 86 f4 00 00
	00 00 00 00 01	 mov	 DWORD PTR [esi+244], 16777216 ; 01000000H
  0007e	c7 86 f8 00 00
	00 00 00 00 10	 mov	 DWORD PTR [esi+248], 268435456 ; 10000000H
  00088	a1 00 00 00 00	 mov	 eax, DWORD PTR ??_C@_06MFMMLLPC@?$LB?$LM?$LI?$LC?C?$LM@
  0008d	89 86 fc 00 00
	00		 mov	 DWORD PTR [esi+252], eax
  00093	66 a1 04 00 00
	00		 mov	 ax, WORD PTR ??_C@_06MFMMLLPC@?$LB?$LM?$LI?$LC?C?$LM@+4
  00099	66 89 86 00 01
	00 00		 mov	 WORD PTR [esi+256], ax
  000a0	a0 06 00 00 00	 mov	 al, BYTE PTR ??_C@_06MFMMLLPC@?$LB?$LM?$LI?$LC?C?$LM@+6
  000a5	c7 45 fc 00 00
	00 00		 mov	 DWORD PTR __$EHRec$[ebp+8], 0
  000ac	88 86 02 01 00
	00		 mov	 BYTE PTR [esi+258], al
  000b2	c7 07 f4 ff ff
	ff		 mov	 DWORD PTR [edi], -12	; fffffff4H
; File C:\Program Files (x86)\Microsoft Visual Studio\2019\Community\VC\Tools\MSVC\14.29.30133\atlmfc\include\afxwin1.inl

; 68   : 	{ return this == NULL ? NULL : m_hObject; }

  000b8	85 db		 test	 ebx, ebx
  000ba	74 0d		 je	 SHORT $LN3@InitGrid
; File D:\git\src\IBK\IBK_DRFN\ProjSrc\SrcDrfn\Chart\MULTICHART\FloatingHogaDlg.cpp

; 426  : 		if( m_GridFont.GetSafeHandle() )

  000bc	83 7b 04 00	 cmp	 DWORD PTR [ebx+4], 0
  000c0	74 07		 je	 SHORT $LN3@InitGrid

; 427  : 			m_GridFont.DeleteObject();

  000c2	8b cb		 mov	 ecx, ebx
  000c4	e8 00 00 00 00	 call	 ?DeleteObject@CGdiObject@@QAEHXZ ; CGdiObject::DeleteObject
$LN3@InitGrid:
; File C:\Program Files (x86)\Microsoft Visual Studio\2019\Community\VC\Tools\MSVC\14.29.30133\atlmfc\include\afxwin1.inl

; 157  : 	{ return Attach(::CreateFontIndirect(lpLogFont)); }

  000c9	57		 push	 edi
  000ca	ff 15 00 00 00
	00		 call	 DWORD PTR __imp__CreateFontIndirectA@4
  000d0	50		 push	 eax
  000d1	8b cb		 mov	 ecx, ebx
  000d3	e8 00 00 00 00	 call	 ?Attach@CGdiObject@@QAEHPAX@Z ; CGdiObject::Attach
; File C:\Program Files (x86)\Microsoft Visual Studio\2019\Community\VC\Tools\MSVC\14.29.30133\atlmfc\include\afx.inl

; 116  : 	{ return ::operator new(nSize); }

  000d8	68 88 00 00 00	 push	 136			; 00000088H
  000dd	e8 00 00 00 00	 call	 ??2@YAPAXI@Z		; operator new
  000e2	83 c4 04	 add	 esp, 4
; File D:\git\src\IBK\IBK_DRFN\ProjSrc\SrcDrfn\Chart\MULTICHART\FloatingHogaDlg.cpp

; 432  : 		m_pGridCtrl = new CExGridCtrl;

  000e5	89 45 f0	 mov	 DWORD PTR $T3[ebp], eax
  000e8	c6 45 fc 01	 mov	 BYTE PTR __$EHRec$[ebp+8], 1
  000ec	85 c0		 test	 eax, eax
  000ee	74 11		 je	 SHORT $LN6@InitGrid
  000f0	6a 00		 push	 0
  000f2	6a 00		 push	 0
  000f4	6a 00		 push	 0
  000f6	6a 00		 push	 0
  000f8	8b c8		 mov	 ecx, eax
  000fa	e8 00 00 00 00	 call	 ??0CExGridCtrl@@QAE@HHHH@Z ; CExGridCtrl::CExGridCtrl
  000ff	eb 02		 jmp	 SHORT $LN7@InitGrid
$LN6@InitGrid:
  00101	33 c0		 xor	 eax, eax
$LN7@InitGrid:
  00103	c6 45 fc 00	 mov	 BYTE PTR __$EHRec$[ebp+8], 0
  00107	89 86 cc 00 00
	00		 mov	 DWORD PTR [esi+204], eax

; 433  : 		if (!m_pGridCtrl) return;

  0010d	85 c0		 test	 eax, eax
  0010f	0f 84 7d 01 00
	00		 je	 $LN53@InitGrid

; 434  : 
; 435  : 		// Create the Gridctrl window
; 436  : 		GetDlgItem(IDC_STATIC_FLOTING_GRID)->GetWindowRect(m_rectGrid);		

  00115	68 5e 18 00 00	 push	 6238			; 0000185eH
  0011a	8b ce		 mov	 ecx, esi
  0011c	e8 00 00 00 00	 call	 ?GetDlgItem@CWnd@@QBEPAV1@H@Z ; CWnd::GetDlgItem
  00121	8d be d0 00 00
	00		 lea	 edi, DWORD PTR [esi+208]
; File C:\Program Files (x86)\Microsoft Visual Studio\2019\Community\VC\Tools\MSVC\14.29.30133\atlmfc\include\afxwin2.inl

; 84   : 	{ ASSERT(::IsWindow(m_hWnd)); ::GetWindowRect(m_hWnd, lpRect); }

  00127	57		 push	 edi
  00128	ff 70 20	 push	 DWORD PTR [eax+32]
  0012b	ff 15 00 00 00
	00		 call	 DWORD PTR __imp__GetWindowRect@8
; File D:\git\src\IBK\IBK_DRFN\ProjSrc\SrcDrfn\Chart\MULTICHART\FloatingHogaDlg.cpp

; 437  : 		ScreenToClient(&m_rectGrid);

  00131	57		 push	 edi
  00132	8b ce		 mov	 ecx, esi
  00134	e8 00 00 00 00	 call	 ?ScreenToClient@CWnd@@QBEXPAUtagRECT@@@Z ; CWnd::ScreenToClient

; 438  : 		//m_pGridCtrl->Create(m_rectGrid, CWnd::FromHandle(m_hWnd), 1754);
; 439  : 		m_pGridCtrl->Create(m_rectGrid, this, IDC_STATIC_FLOTING_GRID);

  00139	8b 8e cc 00 00
	00		 mov	 ecx, DWORD PTR [esi+204]
  0013f	68 00 00 81 50	 push	 1350631424		; 50810000H
  00144	68 5e 18 00 00	 push	 6238			; 0000185eH
  00149	56		 push	 esi
  0014a	57		 push	 edi
  0014b	e8 00 00 00 00	 call	 ?Create@CExGridCtrl@@QAEHAAUtagRECT@@PAVCWnd@@IK@Z ; CExGridCtrl::Create
; File C:\Program Files (x86)\Microsoft Visual Studio\2019\Community\VC\Tools\MSVC\14.29.30133\atlmfc\include\atltypes.h

; 581  : 	return bottom - top;

  00150	8b 8e d4 00 00
	00		 mov	 ecx, DWORD PTR [esi+212]
  00156	8b 86 dc 00 00
	00		 mov	 eax, DWORD PTR [esi+220]

; 576  : 	return right - left;

  0015c	8b 17		 mov	 edx, DWORD PTR [edi]

; 581  : 	return bottom - top;

  0015e	2b c1		 sub	 eax, ecx
; File D:\git\src\IBK\IBK_DRFN\ProjSrc\SrcDrfn\Chart\MULTICHART\FloatingHogaDlg.cpp

; 440  : 		m_pGridCtrl->SetWindowPos(NULL, m_rectGrid.left, m_rectGrid.top+1, m_rectGrid.Width(), m_rectGrid.Height()-1, SWP_NOZORDER);

  00160	6a 04		 push	 4
  00162	48		 dec	 eax
  00163	50		 push	 eax
; File C:\Program Files (x86)\Microsoft Visual Studio\2019\Community\VC\Tools\MSVC\14.29.30133\atlmfc\include\atltypes.h

; 576  : 	return right - left;

  00164	8b 47 08	 mov	 eax, DWORD PTR [edi+8]
  00167	2b c2		 sub	 eax, edx
; File D:\git\src\IBK\IBK_DRFN\ProjSrc\SrcDrfn\Chart\MULTICHART\FloatingHogaDlg.cpp

; 440  : 		m_pGridCtrl->SetWindowPos(NULL, m_rectGrid.left, m_rectGrid.top+1, m_rectGrid.Width(), m_rectGrid.Height()-1, SWP_NOZORDER);

  00169	50		 push	 eax
  0016a	8d 41 01	 lea	 eax, DWORD PTR [ecx+1]
  0016d	8b 8e cc 00 00
	00		 mov	 ecx, DWORD PTR [esi+204]
  00173	50		 push	 eax
  00174	52		 push	 edx
  00175	6a 00		 push	 0
  00177	e8 00 00 00 00	 call	 ?SetWindowPos@CWnd@@QAEHPBV1@HHHHI@Z ; CWnd::SetWindowPos

; 441  : 
; 442  : 
; 443  : 		// fill it up with stuff
; 444  : 		m_pGridCtrl->SetEditable(TRUE);

  0017c	8b 8e cc 00 00
	00		 mov	 ecx, DWORD PTR [esi+204]
  00182	6a 01		 push	 1
  00184	e8 00 00 00 00	 call	 ?SetEditable@CExGridCtrl@@QAEXH@Z ; CExGridCtrl::SetEditable

; 445  : 		m_pGridCtrl->EnableDragAndDrop(FALSE);

  00189	8b 8e cc 00 00
	00		 mov	 ecx, DWORD PTR [esi+204]
  0018f	6a 00		 push	 0
  00191	e8 00 00 00 00	 call	 ?EnableDragAndDrop@CExGridCtrl@@QAEXH@Z ; CExGridCtrl::EnableDragAndDrop

; 446  : 		m_pGridCtrl->SetFont(&m_GridFont, FALSE);

  00196	8b 8e cc 00 00
	00		 mov	 ecx, DWORD PTR [esi+204]
; File C:\Program Files (x86)\Microsoft Visual Studio\2019\Community\VC\Tools\MSVC\14.29.30133\atlmfc\include\afxwin1.inl

; 68   : 	{ return this == NULL ? NULL : m_hObject; }

  0019c	85 db		 test	 ebx, ebx
  0019e	75 04		 jne	 SHORT $LN28@InitGrid
  001a0	33 c0		 xor	 eax, eax
  001a2	eb 03		 jmp	 SHORT $LN29@InitGrid
$LN28@InitGrid:
  001a4	8b 43 04	 mov	 eax, DWORD PTR [ebx+4]
$LN29@InitGrid:
; File C:\Program Files (x86)\Microsoft Visual Studio\2019\Community\VC\Tools\MSVC\14.29.30133\atlmfc\include\afxwin2.inl

; 43   : 	{ ASSERT(::IsWindow(m_hWnd)); ::SendMessage(m_hWnd, WM_SETFONT, (WPARAM)pFont->GetSafeHandle(), bRedraw); }

  001a7	6a 00		 push	 0
  001a9	50		 push	 eax
  001aa	6a 30		 push	 48			; 00000030H
  001ac	ff 71 20	 push	 DWORD PTR [ecx+32]
  001af	ff 15 00 00 00
	00		 call	 DWORD PTR __imp__SendMessageA@16
; File D:\git\src\IBK\IBK_DRFN\ProjSrc\SrcDrfn\Chart\MULTICHART\FloatingHogaDlg.cpp

; 447  : 		m_pGridCtrl->SetGridColor(COLOR_WHITE);

  001b5	8b 8e cc 00 00
	00		 mov	 ecx, DWORD PTR [esi+204]
  001bb	68 ff ff ff 00	 push	 16777215		; 00ffffffH
  001c0	e8 00 00 00 00	 call	 ?SetGridColor@CExGridCtrl@@QAEXK@Z ; CExGridCtrl::SetGridColor

; 448  : 		m_pGridCtrl->SetGridLineColor(COLOR_GRIDLINE);

  001c5	8b 8e cc 00 00
	00		 mov	 ecx, DWORD PTR [esi+204]
  001cb	68 cc d2 e0 00	 push	 14734028		; 00e0d2ccH
  001d0	e8 00 00 00 00	 call	 ?SetGridLineColor@CExGridCtrl@@QAEXK@Z ; CExGridCtrl::SetGridLineColor

; 449  : 		m_pGridCtrl->EnableColumnHide();

  001d5	8b 8e cc 00 00
	00		 mov	 ecx, DWORD PTR [esi+204]
  001db	6a 01		 push	 1
  001dd	e8 00 00 00 00	 call	 ?EnableColumnHide@CExGridCtrl@@QAEXH@Z ; CExGridCtrl::EnableColumnHide

; 450  : 		m_pGridCtrl->EnableRowHide();	

  001e2	8b 8e cc 00 00
	00		 mov	 ecx, DWORD PTR [esi+204]
  001e8	6a 01		 push	 1
  001ea	e8 00 00 00 00	 call	 ?EnableRowHide@CExGridCtrl@@QAEXH@Z ; CExGridCtrl::EnableRowHide

; 451  : 		m_pGridCtrl->SetHighlightColor(COLOR_SELECTED_CELL_HOGA);

  001ef	8b 8e cc 00 00
	00		 mov	 ecx, DWORD PTR [esi+204]
  001f5	68 0d f0 ad 00	 push	 11399181		; 00adf00dH
  001fa	e8 00 00 00 00	 call	 ?SetHighlightColor@CExGridCtrl@@QAEXK@Z ; CExGridCtrl::SetHighlightColor

; 452  : 
; 453  : 		//   Default 
; 454  : 		InitGridRowCol();

  001ff	8b ce		 mov	 ecx, esi
  00201	e8 00 00 00 00	 call	 ?InitGridRowCol@CFloatingHogaDlg@@QAEXXZ ; CFloatingHogaDlg::InitGridRowCol

; 503  : 	int nRow = m_pGridCtrl->GetRowCount();

  00206	8b 8e cc 00 00
	00		 mov	 ecx, DWORD PTR [esi+204]
  0020c	e8 00 00 00 00	 call	 ?GetRowCount@CExGridCtrl@@QAEHXZ ; CExGridCtrl::GetRowCount
  00211	8b d8		 mov	 ebx, eax
; File C:\Program Files (x86)\Microsoft Visual Studio\2019\Community\VC\Tools\MSVC\14.29.30133\atlmfc\include\afxwin2.inl

; 43   : 	{ ASSERT(::IsWindow(m_hWnd)); ::SendMessage(m_hWnd, WM_SETFONT, (WPARAM)pFont->GetSafeHandle(), bRedraw); }

  00213	33 ff		 xor	 edi, edi
; File D:\git\src\IBK\IBK_DRFN\ProjSrc\SrcDrfn\Chart\MULTICHART\FloatingHogaDlg.cpp

; 506  : 	for (row = 0; row < nRow; row++)

  00215	85 db		 test	 ebx, ebx
  00217	7e 53		 jle	 SHORT $LN34@InitGrid
  00219	0f 1f 80 00 00
	00 00		 npad	 7
$LL35@InitGrid:

; 507  : 	{
; 508  : 		// ******** 10  **********
; 509  : 		if ( m_bIsTenHoga == TRUE )		

  00220	83 be c0 01 00
	00 01		 cmp	 DWORD PTR [esi+448], 1
  00227	75 2c		 jne	 SHORT $LN36@InitGrid

; 510  : 		{
; 511  : 			if( m_bExpandBottom == TRUE )		// 

  00229	83 be a0 01 00
	00 01		 cmp	 DWORD PTR [esi+416], 1
  00230	74 23		 je	 SHORT $LN36@InitGrid

; 512  : 			{
; 513  : 				m_pGridCtrl->SetRowHeight(row, ROW_HEIGHT);
; 514  : 				//m_pGridCtrl->SetRowHeight_NoReset(row, ROW_HEIGHT);
; 515  : 			}
; 516  : 			else								// 
; 517  : 			{
; 518  : 				if( MAEDO_ROW <= row && row <= MAEDO_ROW+4 )

  00232	8d 4f ed	 lea	 ecx, DWORD PTR [edi-19]
  00235	8d 41 0f	 lea	 eax, DWORD PTR [ecx+15]
  00238	83 f8 04	 cmp	 eax, 4
  0023b	76 14		 jbe	 SHORT $LN46@InitGrid

; 519  : 				{
; 520  : 					m_pGridCtrl->SetRowHeight(row, 0);
; 521  : 					//m_pGridCtrl->SetRowHeight_NoReset(row, 0);
; 522  : 				}
; 523  : 				else if( MAESU_ROW+5 <= row && row <= MAESU_ROW+9 )

  0023d	83 f9 04	 cmp	 ecx, 4
  00240	76 0f		 jbe	 SHORT $LN46@InitGrid

; 524  : 				{
; 525  : 					m_pGridCtrl->SetRowHeight(row, 0);
; 526  : 					//m_pGridCtrl->SetRowHeight_NoReset(row, 0);
; 527  : 				}
; 528  : 				else if (	(ETC_HOGAUP_ROW		== row) || 	//   
; 529  : 							(ETC_HOGADOWN_ROW	== row)	||	//   

  00242	83 ff 03	 cmp	 edi, 3
  00245	74 0a		 je	 SHORT $LN46@InitGrid
  00247	83 ff 18	 cmp	 edi, 24			; 00000018H
  0024a	74 05		 je	 SHORT $LN46@InitGrid
  0024c	83 ff 01	 cmp	 edi, 1
  0024f	75 04		 jne	 SHORT $LN36@InitGrid
$LN46@InitGrid:

; 530  : 							(MARKETPRICE_ROW	== row)
; 531  : 				)
; 532  : 				{
; 533  : 					m_pGridCtrl->SetRowHeight(row, 0);
; 534  : 					//m_pGridCtrl->SetRowHeight_NoReset(row, 0);
; 535  : 				}
; 536  : 				else 
; 537  : 				{
; 538  : 					m_pGridCtrl->SetRowHeight(row, ROW_HEIGHT);
; 539  : 					//m_pGridCtrl->SetRowHeight_NoReset(row, ROW_HEIGHT);
; 540  : 				}
; 541  : 			}
; 542  : 		}

  00251	33 c0		 xor	 eax, eax
  00253	eb 05		 jmp	 SHORT $LN45@InitGrid
$LN36@InitGrid:

; 506  : 	for (row = 0; row < nRow; row++)

  00255	b8 0e 00 00 00	 mov	 eax, 14			; 0000000eH
$LN45@InitGrid:
  0025a	8b 8e cc 00 00
	00		 mov	 ecx, DWORD PTR [esi+204]
  00260	50		 push	 eax
  00261	57		 push	 edi
  00262	e8 00 00 00 00	 call	 ?SetRowHeight@CExGridCtrl@@QAEHHH@Z ; CExGridCtrl::SetRowHeight
  00267	47		 inc	 edi
  00268	3b fb		 cmp	 edi, ebx
  0026a	7c b4		 jl	 SHORT $LL35@InitGrid
$LN34@InitGrid:

; 543  : 		// ********   **********
; 544  : 		else
; 545  : 		{
; 546  : 			m_pGridCtrl->SetRowHeight(row, ROW_HEIGHT);
; 547  : 			//m_pGridCtrl->SetRowHeight_NoReset(row, ROW_HEIGHT);
; 548  : 
; 549  : 		}
; 550  : 	}
; 551  : 
; 552  : //	m_pGridCtrl->Call_ResetScrollBars();
; 553  : 
; 554  : 	m_pGridCtrl->Refresh();	

  0026c	8b 8e cc 00 00
	00		 mov	 ecx, DWORD PTR [esi+204]
  00272	e8 00 00 00 00	 call	 ?Refresh@CExGridCtrl@@QAEXXZ ; CExGridCtrl::Refresh

; 496  : 	ChangeGrid_ColumnWidth();

  00277	8b ce		 mov	 ecx, esi
  00279	e8 00 00 00 00	 call	 ?ChangeGrid_ColumnWidth@CFloatingHogaDlg@@QAEXXZ ; CFloatingHogaDlg::ChangeGrid_ColumnWidth

; 455  : 	
; 456  : 		//   
; 457  : 		ChangeGrid_AllWidth();
; 458  : 
; 459  : 		//   
; 460  : 		InitGridFormat();

  0027e	8b ce		 mov	 ecx, esi
  00280	e8 00 00 00 00	 call	 ?InitGridFormat@CFloatingHogaDlg@@QAEXXZ ; CFloatingHogaDlg::InitGridFormat

; 461  : 		m_pGridCtrl->ShowWindow(SW_SHOW);

  00285	8b 8e cc 00 00
	00		 mov	 ecx, DWORD PTR [esi+204]
  0028b	6a 05		 push	 5
  0028d	e8 00 00 00 00	 call	 ?ShowWindow@CWnd@@QAEHH@Z ; CWnd::ShowWindow
$LN53@InitGrid:

; 462  : 	}
; 463  : }

  00292	8d 4d dc	 lea	 ecx, DWORD PTR _dc$2[ebp]
  00295	e8 00 00 00 00	 call	 ??1CClientDC@@UAE@XZ	; CClientDC::~CClientDC
$LN2@InitGrid:
  0029a	8b 4d f4	 mov	 ecx, DWORD PTR __$EHRec$[ebp]
  0029d	64 89 0d 00 00
	00 00		 mov	 DWORD PTR fs:0, ecx
  002a4	59		 pop	 ecx
  002a5	5f		 pop	 edi
  002a6	5e		 pop	 esi
  002a7	5b		 pop	 ebx
  002a8	8b e5		 mov	 esp, ebp
  002aa	5d		 pop	 ebp
  002ab	c3		 ret	 0
_TEXT	ENDS
;	COMDAT text$x
text$x	SEGMENT
__unwindfunclet$?InitGrid@CFloatingHogaDlg@@QAEXXZ$0:
  00000	8d 4d dc	 lea	 ecx, DWORD PTR _dc$2[ebp]
  00003	e9 00 00 00 00	 jmp	 ??1CClientDC@@UAE@XZ	; CClientDC::~CClientDC
__unwindfunclet$?InitGrid@CFloatingHogaDlg@@QAEXXZ$1:
  00008	8b 45 f0	 mov	 eax, DWORD PTR $T3[ebp]
  0000b	50		 push	 eax
  0000c	e8 00 00 00 00	 call	 ??3CObject@@SGXPAX@Z	; CObject::operator delete
  00011	c3		 ret	 0
  00012	cc		 int	 3
  00013	cc		 int	 3
  00014	cc		 int	 3
  00015	cc		 int	 3
  00016	cc		 int	 3
__ehhandler$?InitGrid@CFloatingHogaDlg@@QAEXXZ:
  00017	90		 npad	 1
  00018	90		 npad	 1
  00019	8b 54 24 08	 mov	 edx, DWORD PTR [esp+8]
  0001d	8d 42 0c	 lea	 eax, DWORD PTR [edx+12]
  00020	8b 4a d8	 mov	 ecx, DWORD PTR [edx-40]
  00023	33 c8		 xor	 ecx, eax
  00025	e8 00 00 00 00	 call	 @__security_check_cookie@4
  0002a	b8 00 00 00 00	 mov	 eax, OFFSET __ehfuncinfo$?InitGrid@CFloatingHogaDlg@@QAEXXZ
  0002f	e9 00 00 00 00	 jmp	 ___CxxFrameHandler3
text$x	ENDS
?InitGrid@CFloatingHogaDlg@@QAEXXZ ENDP			; CFloatingHogaDlg::InitGrid
; Function compile flags: /Ogtp
; File D:\git\src\IBK\IBK_DRFN\ProjSrc\SrcDrfn\Chart\MULTICHART\FloatingHogaDlg.cpp
;	COMDAT ?GetHogaGridBkColor@CFloatingHogaDlg@@QAEKH@Z
_TEXT	SEGMENT
_clrHoga$ = 8						; size = 4
_nHogaRange$ = 8					; size = 4
?GetHogaGridBkColor@CFloatingHogaDlg@@QAEKH@Z PROC	; CFloatingHogaDlg::GetHogaGridBkColor, COMDAT
; _this$ = ecx

; 1626 : {

  00000	55		 push	 ebp
  00001	8b ec		 mov	 ebp, esp

; 1627 : 	COLORREF clrHoga;
; 1628 : 	//if ( nHogaRange == 1 )
; 1629 : 	//	clrHoga = COLOR_MAEDO_10HOGA_1;
; 1630 : 	//else if ( nHogaRange == 2 )
; 1631 : 	//	clrHoga = COLOR_MAEDO_10HOGA_2;
; 1632 : 	//else if ( nHogaRange == 3 )
; 1633 : 	//	clrHoga = COLOR_MAEDO_10HOGA_3;
; 1634 : 	//else if ( nHogaRange == 4 )
; 1635 : 	//	clrHoga = COLOR_MAEDO_10HOGA_4;
; 1636 : 	//else if ( nHogaRange == 5 )
; 1637 : 	//	clrHoga = COLOR_MAEDO_10HOGA_5;
; 1638 : 	if ( nHogaRange == 1 )

  00003	8b 4d 08	 mov	 ecx, DWORD PTR _nHogaRange$[ebp]
  00006	83 f9 01	 cmp	 ecx, 1
  00009	75 09		 jne	 SHORT $LN2@GetHogaGri

; 1639 : 		clrHoga = COLOR_MAEDO_10HOGA_6;

  0000b	b8 e9 f6 ff 00	 mov	 eax, 16774889		; 00fff6e9H

; 1657 : 		clrHoga = COLOR_MAESU_10HOGA_5;
; 1658 : 	//else if ( nHogaRange == 16 )
; 1659 : 	//	clrHoga = COLOR_MAESU_10HOGA_6;
; 1660 : 	//else if ( nHogaRange == 17 )
; 1661 : 	//	clrHoga = COLOR_MAESU_10HOGA_7;
; 1662 : 	//else if ( nHogaRange == 18 )
; 1663 : 	//	clrHoga = COLOR_MAESU_10HOGA_8;
; 1664 : 	//else if ( nHogaRange == 19 )
; 1665 : 	//	clrHoga = COLOR_MAESU_10HOGA_9;
; 1666 : 	//else if ( nHogaRange == 20 )
; 1667 : 	//	clrHoga = COLOR_MAESU_10HOGA_10;
; 1668 : 
; 1669 : 
; 1670 : 	return clrHoga;
; 1671 : }

  00010	5d		 pop	 ebp
  00011	c2 04 00	 ret	 4
$LN2@GetHogaGri:

; 1640 : 	else if ( nHogaRange == 2 )

  00014	83 f9 02	 cmp	 ecx, 2
  00017	75 09		 jne	 SHORT $LN4@GetHogaGri

; 1641 : 		clrHoga = COLOR_MAEDO_10HOGA_7;

  00019	b8 e4 f5 ff 00	 mov	 eax, 16774628		; 00fff5e4H

; 1657 : 		clrHoga = COLOR_MAESU_10HOGA_5;
; 1658 : 	//else if ( nHogaRange == 16 )
; 1659 : 	//	clrHoga = COLOR_MAESU_10HOGA_6;
; 1660 : 	//else if ( nHogaRange == 17 )
; 1661 : 	//	clrHoga = COLOR_MAESU_10HOGA_7;
; 1662 : 	//else if ( nHogaRange == 18 )
; 1663 : 	//	clrHoga = COLOR_MAESU_10HOGA_8;
; 1664 : 	//else if ( nHogaRange == 19 )
; 1665 : 	//	clrHoga = COLOR_MAESU_10HOGA_9;
; 1666 : 	//else if ( nHogaRange == 20 )
; 1667 : 	//	clrHoga = COLOR_MAESU_10HOGA_10;
; 1668 : 
; 1669 : 
; 1670 : 	return clrHoga;
; 1671 : }

  0001e	5d		 pop	 ebp
  0001f	c2 04 00	 ret	 4
$LN4@GetHogaGri:

; 1642 : 	else if ( nHogaRange == 3 )

  00022	83 f9 03	 cmp	 ecx, 3
  00025	75 09		 jne	 SHORT $LN6@GetHogaGri

; 1643 : 		clrHoga = COLOR_MAEDO_10HOGA_8;

  00027	b8 e0 f4 ff 00	 mov	 eax, 16774368		; 00fff4e0H

; 1657 : 		clrHoga = COLOR_MAESU_10HOGA_5;
; 1658 : 	//else if ( nHogaRange == 16 )
; 1659 : 	//	clrHoga = COLOR_MAESU_10HOGA_6;
; 1660 : 	//else if ( nHogaRange == 17 )
; 1661 : 	//	clrHoga = COLOR_MAESU_10HOGA_7;
; 1662 : 	//else if ( nHogaRange == 18 )
; 1663 : 	//	clrHoga = COLOR_MAESU_10HOGA_8;
; 1664 : 	//else if ( nHogaRange == 19 )
; 1665 : 	//	clrHoga = COLOR_MAESU_10HOGA_9;
; 1666 : 	//else if ( nHogaRange == 20 )
; 1667 : 	//	clrHoga = COLOR_MAESU_10HOGA_10;
; 1668 : 
; 1669 : 
; 1670 : 	return clrHoga;
; 1671 : }

  0002c	5d		 pop	 ebp
  0002d	c2 04 00	 ret	 4
$LN6@GetHogaGri:

; 1644 : 	else if ( nHogaRange == 4 )

  00030	83 f9 04	 cmp	 ecx, 4
  00033	75 09		 jne	 SHORT $LN8@GetHogaGri

; 1645 : 		clrHoga = COLOR_MAEDO_10HOGA_9;

  00035	b8 dc f2 ff 00	 mov	 eax, 16773852		; 00fff2dcH

; 1657 : 		clrHoga = COLOR_MAESU_10HOGA_5;
; 1658 : 	//else if ( nHogaRange == 16 )
; 1659 : 	//	clrHoga = COLOR_MAESU_10HOGA_6;
; 1660 : 	//else if ( nHogaRange == 17 )
; 1661 : 	//	clrHoga = COLOR_MAESU_10HOGA_7;
; 1662 : 	//else if ( nHogaRange == 18 )
; 1663 : 	//	clrHoga = COLOR_MAESU_10HOGA_8;
; 1664 : 	//else if ( nHogaRange == 19 )
; 1665 : 	//	clrHoga = COLOR_MAESU_10HOGA_9;
; 1666 : 	//else if ( nHogaRange == 20 )
; 1667 : 	//	clrHoga = COLOR_MAESU_10HOGA_10;
; 1668 : 
; 1669 : 
; 1670 : 	return clrHoga;
; 1671 : }

  0003a	5d		 pop	 ebp
  0003b	c2 04 00	 ret	 4
$LN8@GetHogaGri:

; 1646 : 	else if ( nHogaRange == 5 )

  0003e	83 f9 05	 cmp	 ecx, 5
  00041	75 09		 jne	 SHORT $LN10@GetHogaGri

; 1647 : 		clrHoga = COLOR_MAEDO_10HOGA_10;

  00043	b8 d5 ef fe 00	 mov	 eax, 16707541		; 00feefd5H

; 1657 : 		clrHoga = COLOR_MAESU_10HOGA_5;
; 1658 : 	//else if ( nHogaRange == 16 )
; 1659 : 	//	clrHoga = COLOR_MAESU_10HOGA_6;
; 1660 : 	//else if ( nHogaRange == 17 )
; 1661 : 	//	clrHoga = COLOR_MAESU_10HOGA_7;
; 1662 : 	//else if ( nHogaRange == 18 )
; 1663 : 	//	clrHoga = COLOR_MAESU_10HOGA_8;
; 1664 : 	//else if ( nHogaRange == 19 )
; 1665 : 	//	clrHoga = COLOR_MAESU_10HOGA_9;
; 1666 : 	//else if ( nHogaRange == 20 )
; 1667 : 	//	clrHoga = COLOR_MAESU_10HOGA_10;
; 1668 : 
; 1669 : 
; 1670 : 	return clrHoga;
; 1671 : }

  00048	5d		 pop	 ebp
  00049	c2 04 00	 ret	 4
$LN10@GetHogaGri:

; 1648 : 	else if ( nHogaRange == 6 )

  0004c	83 f9 06	 cmp	 ecx, 6
  0004f	74 05		 je	 SHORT $LN22@GetHogaGri

; 1649 : 		clrHoga = COLOR_MAESU_10HOGA_1;
; 1650 : 	else if ( nHogaRange == 7)

  00051	83 f9 07	 cmp	 ecx, 7
  00054	75 09		 jne	 SHORT $LN14@GetHogaGri
$LN22@GetHogaGri:

; 1657 : 		clrHoga = COLOR_MAESU_10HOGA_5;
; 1658 : 	//else if ( nHogaRange == 16 )
; 1659 : 	//	clrHoga = COLOR_MAESU_10HOGA_6;
; 1660 : 	//else if ( nHogaRange == 17 )
; 1661 : 	//	clrHoga = COLOR_MAESU_10HOGA_7;
; 1662 : 	//else if ( nHogaRange == 18 )
; 1663 : 	//	clrHoga = COLOR_MAESU_10HOGA_8;
; 1664 : 	//else if ( nHogaRange == 19 )
; 1665 : 	//	clrHoga = COLOR_MAESU_10HOGA_9;
; 1666 : 	//else if ( nHogaRange == 20 )
; 1667 : 	//	clrHoga = COLOR_MAESU_10HOGA_10;
; 1668 : 
; 1669 : 
; 1670 : 	return clrHoga;
; 1671 : }

  00056	b8 fe de f5 00	 mov	 eax, 16113406		; 00f5defeH
  0005b	5d		 pop	 ebp
  0005c	c2 04 00	 ret	 4
$LN14@GetHogaGri:

; 1651 : 		clrHoga = COLOR_MAESU_10HOGA_2;
; 1652 : 	else if ( nHogaRange == 8 )

  0005f	83 f9 08	 cmp	 ecx, 8
  00062	75 09		 jne	 SHORT $LN16@GetHogaGri

; 1653 : 		clrHoga = COLOR_MAESU_10HOGA_3;

  00064	b8 fe e3 f6 00	 mov	 eax, 16180222		; 00f6e3feH

; 1657 : 		clrHoga = COLOR_MAESU_10HOGA_5;
; 1658 : 	//else if ( nHogaRange == 16 )
; 1659 : 	//	clrHoga = COLOR_MAESU_10HOGA_6;
; 1660 : 	//else if ( nHogaRange == 17 )
; 1661 : 	//	clrHoga = COLOR_MAESU_10HOGA_7;
; 1662 : 	//else if ( nHogaRange == 18 )
; 1663 : 	//	clrHoga = COLOR_MAESU_10HOGA_8;
; 1664 : 	//else if ( nHogaRange == 19 )
; 1665 : 	//	clrHoga = COLOR_MAESU_10HOGA_9;
; 1666 : 	//else if ( nHogaRange == 20 )
; 1667 : 	//	clrHoga = COLOR_MAESU_10HOGA_10;
; 1668 : 
; 1669 : 
; 1670 : 	return clrHoga;
; 1671 : }

  00069	5d		 pop	 ebp
  0006a	c2 04 00	 ret	 4
$LN16@GetHogaGri:

; 1654 : 	else if ( nHogaRange == 9 )

  0006d	83 f9 09	 cmp	 ecx, 9
  00070	75 09		 jne	 SHORT $LN18@GetHogaGri

; 1655 : 		clrHoga = COLOR_MAESU_10HOGA_4;

  00072	b8 fe e7 f7 00	 mov	 eax, 16246782		; 00f7e7feH

; 1657 : 		clrHoga = COLOR_MAESU_10HOGA_5;
; 1658 : 	//else if ( nHogaRange == 16 )
; 1659 : 	//	clrHoga = COLOR_MAESU_10HOGA_6;
; 1660 : 	//else if ( nHogaRange == 17 )
; 1661 : 	//	clrHoga = COLOR_MAESU_10HOGA_7;
; 1662 : 	//else if ( nHogaRange == 18 )
; 1663 : 	//	clrHoga = COLOR_MAESU_10HOGA_8;
; 1664 : 	//else if ( nHogaRange == 19 )
; 1665 : 	//	clrHoga = COLOR_MAESU_10HOGA_9;
; 1666 : 	//else if ( nHogaRange == 20 )
; 1667 : 	//	clrHoga = COLOR_MAESU_10HOGA_10;
; 1668 : 
; 1669 : 
; 1670 : 	return clrHoga;
; 1671 : }

  00077	5d		 pop	 ebp
  00078	c2 04 00	 ret	 4
$LN18@GetHogaGri:

; 1656 : 	else if ( nHogaRange == 10 )

  0007b	8b 45 08	 mov	 eax, DWORD PTR _clrHoga$[ebp]
  0007e	83 f9 0a	 cmp	 ecx, 10			; 0000000aH
  00081	ba ff eb f7 00	 mov	 edx, 16247807		; 00f7ebffH
  00086	0f 44 c2	 cmove	 eax, edx

; 1657 : 		clrHoga = COLOR_MAESU_10HOGA_5;
; 1658 : 	//else if ( nHogaRange == 16 )
; 1659 : 	//	clrHoga = COLOR_MAESU_10HOGA_6;
; 1660 : 	//else if ( nHogaRange == 17 )
; 1661 : 	//	clrHoga = COLOR_MAESU_10HOGA_7;
; 1662 : 	//else if ( nHogaRange == 18 )
; 1663 : 	//	clrHoga = COLOR_MAESU_10HOGA_8;
; 1664 : 	//else if ( nHogaRange == 19 )
; 1665 : 	//	clrHoga = COLOR_MAESU_10HOGA_9;
; 1666 : 	//else if ( nHogaRange == 20 )
; 1667 : 	//	clrHoga = COLOR_MAESU_10HOGA_10;
; 1668 : 
; 1669 : 
; 1670 : 	return clrHoga;
; 1671 : }

  00089	5d		 pop	 ebp
  0008a	c2 04 00	 ret	 4
?GetHogaGridBkColor@CFloatingHogaDlg@@QAEKH@Z ENDP	; CFloatingHogaDlg::GetHogaGridBkColor
_TEXT	ENDS
; Function compile flags: /Ogtp
; File D:\git\src\IBK\IBK_DRFN\ProjSrc\SrcDrfn\Chart\MULTICHART\FloatingHogaDlg.cpp
; File C:\Program Files (x86)\Microsoft Visual Studio\2019\Community\VC\Tools\MSVC\14.29.30133\atlmfc\include\cstringt.h
; File D:\git\src\IBK\IBK_DRFN\ProjSrc\SrcDrfn\Chart\MULTICHART\FloatingHogaDlg.cpp
; File C:\Program Files (x86)\Microsoft Visual Studio\2019\Community\VC\Tools\MSVC\14.29.30133\atlmfc\include\cstringt.h
; File D:\git\src\IBK\IBK_DRFN\ProjSrc\SrcDrfn\Chart\MULTICHART\FloatingHogaDlg.cpp
; File C:\Program Files (x86)\Microsoft Visual Studio\2019\Community\VC\Tools\MSVC\14.29.30133\atlmfc\include\cstringt.h
; File D:\git\src\IBK\IBK_DRFN\ProjSrc\SrcDrfn\Chart\MULTICHART\FloatingHogaDlg.cpp
;	COMDAT ?CompareNUpdateHogaData@CFloatingHogaDlg@@QAEXHHV?$CStringT@DV?$StrTraitMFC_DLL@DV?$ChTraitsCRT@D@ATL@@@@@ATL@@HK@Z
_TEXT	SEGMENT
_strCellText$ = -16					; size = 4
__$EHRec$ = -12						; size = 12
_nRow$ = 8						; size = 4
_crFgColorTemp$1$ = 12					; size = 4
_pCell$1$ = 12						; size = 4
_nCol$ = 12						; size = 4
_strText$ = 16						; size = 4
_nMask$ = 20						; size = 4
_crFgClr$ = 24						; size = 4
?CompareNUpdateHogaData@CFloatingHogaDlg@@QAEXHHV?$CStringT@DV?$StrTraitMFC_DLL@DV?$ChTraitsCRT@D@ATL@@@@@ATL@@HK@Z PROC ; CFloatingHogaDlg::CompareNUpdateHogaData, COMDAT
; _this$ = ecx

; 1580 : {

  00000	55		 push	 ebp
  00001	8b ec		 mov	 ebp, esp
  00003	6a ff		 push	 -1
  00005	68 00 00 00 00	 push	 __ehhandler$?CompareNUpdateHogaData@CFloatingHogaDlg@@QAEXHHV?$CStringT@DV?$StrTraitMFC_DLL@DV?$ChTraitsCRT@D@ATL@@@@@ATL@@HK@Z
  0000a	64 a1 00 00 00
	00		 mov	 eax, DWORD PTR fs:0
  00010	50		 push	 eax
  00011	51		 push	 ecx
  00012	53		 push	 ebx
  00013	56		 push	 esi
  00014	57		 push	 edi
  00015	a1 00 00 00 00	 mov	 eax, DWORD PTR ___security_cookie
  0001a	33 c5		 xor	 eax, ebp
  0001c	50		 push	 eax
  0001d	8d 45 f4	 lea	 eax, DWORD PTR __$EHRec$[ebp]
  00020	64 a3 00 00 00
	00		 mov	 DWORD PTR fs:0, eax
  00026	8b f1		 mov	 esi, ecx

; 1581 : 	CGridCellBase	*pCell = NULL;
; 1582 : 	CString			strCellText;

  00028	8d 4d f0	 lea	 ecx, DWORD PTR _strCellText$[ebp]
  0002b	c7 45 fc 00 00
	00 00		 mov	 DWORD PTR __$EHRec$[ebp+8], 0
  00032	ff 15 00 00 00
	00		 call	 DWORD PTR __imp_??0?$CStringT@DV?$StrTraitMFC_DLL@DV?$ChTraitsCRT@D@ATL@@@@@ATL@@QAE@XZ

; 1583 : 	COLORREF		crFgColorTemp;
; 1584 : 	
; 1585 : 	//    .
; 1586 : 	pCell = m_pGridCtrl->GetCell(nRow, nCol);

  00038	8b 7d 0c	 mov	 edi, DWORD PTR _nCol$[ebp]
  0003b	8b 5d 08	 mov	 ebx, DWORD PTR _nRow$[ebp]
  0003e	8b 8e cc 00 00
	00		 mov	 ecx, DWORD PTR [esi+204]
  00044	57		 push	 edi
  00045	53		 push	 ebx
  00046	c6 45 fc 01	 mov	 BYTE PTR __$EHRec$[ebp+8], 1
  0004a	e8 00 00 00 00	 call	 ?GetCell@CExGridCtrl@@QAEPAVCGridCellBase@@HH@Z ; CExGridCtrl::GetCell
  0004f	89 45 0c	 mov	 DWORD PTR _pCell$1$[ebp], eax

; 1587 : 	if( pCell == NULL )

  00052	85 c0		 test	 eax, eax
  00054	0f 84 89 00 00
	00		 je	 $LN9@CompareNUp

; 1588 : 		return;
; 1589 : 
; 1590 : 	//        .
; 1591 : 	strCellText		= pCell->GetText();

  0005a	8b 10		 mov	 edx, DWORD PTR [eax]
  0005c	8b c8		 mov	 ecx, eax
  0005e	ff 52 40	 call	 DWORD PTR [edx+64]
  00061	50		 push	 eax
  00062	8d 4d f0	 lea	 ecx, DWORD PTR _strCellText$[ebp]
  00065	ff 15 00 00 00
	00		 call	 DWORD PTR __imp_??4?$CStringT@DV?$StrTraitMFC_DLL@DV?$ChTraitsCRT@D@ATL@@@@@ATL@@QAEAAV01@PBD@Z

; 1592 : 	crFgColorTemp	= pCell->GetTextClr();

  0006b	8b 4d 0c	 mov	 ecx, DWORD PTR _pCell$1$[ebp]
  0006e	8b 01		 mov	 eax, DWORD PTR [ecx]
  00070	ff 50 58	 call	 DWORD PTR [eax+88]
; File C:\Program Files (x86)\Microsoft Visual Studio\2019\Community\VC\Tools\MSVC\14.29.30133\atlmfc\include\cstringt.h

; 2479 : 		return(str1.Compare(str2) == 0);

  00073	ff 75 10	 push	 DWORD PTR _strText$[ebp]
  00076	8d 4d f0	 lea	 ecx, DWORD PTR _strCellText$[ebp]
; File D:\git\src\IBK\IBK_DRFN\ProjSrc\SrcDrfn\Chart\MULTICHART\FloatingHogaDlg.cpp

; 1592 : 	crFgColorTemp	= pCell->GetTextClr();

  00079	89 45 0c	 mov	 DWORD PTR _crFgColorTemp$1$[ebp], eax
; File C:\Program Files (x86)\Microsoft Visual Studio\2019\Community\VC\Tools\MSVC\14.29.30133\atlmfc\include\cstringt.h

; 2479 : 		return(str1.Compare(str2) == 0);

  0007c	ff 15 00 00 00
	00		 call	 DWORD PTR __imp_?Compare@?$CStringT@DV?$StrTraitMFC_DLL@DV?$ChTraitsCRT@D@ATL@@@@@ATL@@QBEHPBD@Z
  00082	85 c0		 test	 eax, eax
; File D:\git\src\IBK\IBK_DRFN\ProjSrc\SrcDrfn\Chart\MULTICHART\FloatingHogaDlg.cpp

; 1593 : 	if( strCellText == strText && crFgColorTemp == crFgClr)	//      JSJ_Modify

  00084	75 08		 jne	 SHORT $LN3@CompareNUp
  00086	8b 45 0c	 mov	 eax, DWORD PTR _crFgColorTemp$1$[ebp]
  00089	3b 45 18	 cmp	 eax, DWORD PTR _crFgClr$[ebp]
  0008c	74 55		 je	 SHORT $LN9@CompareNUp
$LN3@CompareNUp:
; File C:\Program Files (x86)\Microsoft Visual Studio\2019\Community\VC\Tools\MSVC\14.29.30133\atlmfc\include\cstringt.h

; 2486 : 		return(str1.Compare(psz2) == 0);

  0008e	68 00 00 00 00	 push	 OFFSET ??_C@_01GBGANLPD@0@
  00093	8d 4d 10	 lea	 ecx, DWORD PTR _strText$[ebp]
  00096	ff 15 00 00 00
	00		 call	 DWORD PTR __imp_?Compare@?$CStringT@DV?$StrTraitMFC_DLL@DV?$ChTraitsCRT@D@ATL@@@@@ATL@@QBEHPBD@Z
  0009c	85 c0		 test	 eax, eax
; File D:\git\src\IBK\IBK_DRFN\ProjSrc\SrcDrfn\Chart\MULTICHART\FloatingHogaDlg.cpp

; 1596 : 	if( strText == "0" )

  0009e	75 0e		 jne	 SHORT $LN4@CompareNUp

; 1597 : 	{
; 1598 : 		strText = "";

  000a0	68 00 00 00 00	 push	 OFFSET ??_C@_00CNPNBAHC@@
  000a5	8d 4d 10	 lea	 ecx, DWORD PTR _strText$[ebp]
  000a8	ff 15 00 00 00
	00		 call	 DWORD PTR __imp_??4?$CStringT@DV?$StrTraitMFC_DLL@DV?$ChTraitsCRT@D@ATL@@@@@ATL@@QAEAAV01@PBD@Z
$LN4@CompareNUp:

; 1599 : 	}
; 1600 : 	
; 1601 : 	//  
; 1602 : 	m_pGridCtrl->SetItemText(nRow, nCol, strText);

  000ae	ff 75 10	 push	 DWORD PTR _strText$[ebp]
  000b1	8b 8e cc 00 00
	00		 mov	 ecx, DWORD PTR [esi+204]
  000b7	57		 push	 edi
  000b8	53		 push	 ebx
  000b9	e8 00 00 00 00	 call	 ?SetItemText@CExGridCtrl@@QAEHHHPBD@Z ; CExGridCtrl::SetItemText

; 1603 : 
; 1604 : 	//      
; 1605 : 	if( nMask & GVIF_FGCLR )

  000be	f6 45 14 20	 test	 BYTE PTR _nMask$[ebp], 32 ; 00000020H
  000c2	74 10		 je	 SHORT $LN5@CompareNUp

; 1606 : 		m_pGridCtrl->SetItemFgColour(nRow, nCol, crFgClr);

  000c4	ff 75 18	 push	 DWORD PTR _crFgClr$[ebp]
  000c7	8b 8e cc 00 00
	00		 mov	 ecx, DWORD PTR [esi+204]
  000cd	57		 push	 edi
  000ce	53		 push	 ebx
  000cf	e8 00 00 00 00	 call	 ?SetItemFgColour@CExGridCtrl@@QAEHHHK@Z ; CExGridCtrl::SetItemFgColour
$LN5@CompareNUp:

; 1607 : 
; 1608 : 	m_pGridCtrl->RedrawCell(nRow, nCol);		

  000d4	8b 8e cc 00 00
	00		 mov	 ecx, DWORD PTR [esi+204]
  000da	6a 00		 push	 0
  000dc	57		 push	 edi
  000dd	53		 push	 ebx
  000de	e8 00 00 00 00	 call	 ?RedrawCell@CExGridCtrl@@QAEHHHPAVCDC@@@Z ; CExGridCtrl::RedrawCell
$LN9@CompareNUp:

; 1609 : }

  000e3	8d 4d f0	 lea	 ecx, DWORD PTR _strCellText$[ebp]
  000e6	ff 15 00 00 00
	00		 call	 DWORD PTR __imp_??1?$CStringT@DV?$StrTraitMFC_DLL@DV?$ChTraitsCRT@D@ATL@@@@@ATL@@QAE@XZ
  000ec	8d 4d 10	 lea	 ecx, DWORD PTR _strText$[ebp]
  000ef	ff 15 00 00 00
	00		 call	 DWORD PTR __imp_??1?$CStringT@DV?$StrTraitMFC_DLL@DV?$ChTraitsCRT@D@ATL@@@@@ATL@@QAE@XZ
  000f5	8b 4d f4	 mov	 ecx, DWORD PTR __$EHRec$[ebp]
  000f8	64 89 0d 00 00
	00 00		 mov	 DWORD PTR fs:0, ecx
  000ff	59		 pop	 ecx
  00100	5f		 pop	 edi
  00101	5e		 pop	 esi
  00102	5b		 pop	 ebx
  00103	8b e5		 mov	 esp, ebp
  00105	5d		 pop	 ebp
  00106	c2 14 00	 ret	 20			; 00000014H
_TEXT	ENDS
;	COMDAT text$x
text$x	SEGMENT
__unwindfunclet$?CompareNUpdateHogaData@CFloatingHogaDlg@@QAEXHHV?$CStringT@DV?$StrTraitMFC_DLL@DV?$ChTraitsCRT@D@ATL@@@@@ATL@@HK@Z$0:
  00000	8d 4d 10	 lea	 ecx, DWORD PTR _strText$[ebp]
  00003	ff 25 00 00 00
	00		 jmp	 DWORD PTR __imp_??1?$CStringT@DV?$StrTraitMFC_DLL@DV?$ChTraitsCRT@D@ATL@@@@@ATL@@QAE@XZ
__unwindfunclet$?CompareNUpdateHogaData@CFloatingHogaDlg@@QAEXHHV?$CStringT@DV?$StrTraitMFC_DLL@DV?$ChTraitsCRT@D@ATL@@@@@ATL@@HK@Z$1:
  00009	8d 4d f0	 lea	 ecx, DWORD PTR _strCellText$[ebp]
  0000c	ff 25 00 00 00
	00		 jmp	 DWORD PTR __imp_??1?$CStringT@DV?$StrTraitMFC_DLL@DV?$ChTraitsCRT@D@ATL@@@@@ATL@@QAE@XZ
  00012	cc		 int	 3
  00013	cc		 int	 3
  00014	cc		 int	 3
  00015	cc		 int	 3
  00016	cc		 int	 3
__ehhandler$?CompareNUpdateHogaData@CFloatingHogaDlg@@QAEXHHV?$CStringT@DV?$StrTraitMFC_DLL@DV?$ChTraitsCRT@D@ATL@@@@@ATL@@HK@Z:
  00017	90		 npad	 1
  00018	90		 npad	 1
  00019	8b 54 24 08	 mov	 edx, DWORD PTR [esp+8]
  0001d	8d 42 0c	 lea	 eax, DWORD PTR [edx+12]
  00020	8b 4a ec	 mov	 ecx, DWORD PTR [edx-20]
  00023	33 c8		 xor	 ecx, eax
  00025	e8 00 00 00 00	 call	 @__security_check_cookie@4
  0002a	b8 00 00 00 00	 mov	 eax, OFFSET __ehfuncinfo$?CompareNUpdateHogaData@CFloatingHogaDlg@@QAEXHHV?$CStringT@DV?$StrTraitMFC_DLL@DV?$ChTraitsCRT@D@ATL@@@@@ATL@@HK@Z
  0002f	e9 00 00 00 00	 jmp	 ___CxxFrameHandler3
text$x	ENDS
?CompareNUpdateHogaData@CFloatingHogaDlg@@QAEXHHV?$CStringT@DV?$StrTraitMFC_DLL@DV?$ChTraitsCRT@D@ATL@@@@@ATL@@HK@Z ENDP ; CFloatingHogaDlg::CompareNUpdateHogaData
; Function compile flags: /Ogtp
; File D:\git\src\IBK\IBK_DRFN\ProjSrc\SrcDrfn\Chart\MULTICHART\FloatingHogaDlg.cpp
; File C:\Program Files (x86)\Microsoft Visual Studio\2019\Community\VC\Tools\MSVC\14.29.30133\atlmfc\include\afx.inl
; File D:\git\src\IBK\IBK_DRFN\ProjSrc\SrcDrfn\Chart\MULTICHART\FloatingHogaDlg.cpp
; File C:\Program Files (x86)\Microsoft Visual Studio\2019\Community\VC\Tools\MSVC\14.29.30133\atlmfc\include\afx.inl
; File D:\git\src\IBK\IBK_DRFN\ProjSrc\SrcDrfn\Chart\MULTICHART\FloatingHogaDlg.cpp
; File C:\Program Files (x86)\Microsoft Visual Studio\2019\Community\VC\Tools\MSVC\14.29.30133\atlmfc\include\afxtempl.h
; File D:\git\src\IBK\IBK_DRFN\ProjSrc\SrcDrfn\Chart\MULTICHART\FloatingHogaDlg.cpp
; File C:\Program Files (x86)\Microsoft Visual Studio\2019\Community\VC\Tools\MSVC\14.29.30133\atlmfc\include\afxtempl.h
; File D:\git\src\IBK\IBK_DRFN\ProjSrc\SrcDrfn\Chart\MULTICHART\FloatingHogaDlg.cpp
;	COMDAT ?SetHogaData_Sub@CFloatingHogaDlg@@QAEXV?$CStringT@DV?$StrTraitMFC_DLL@DV?$ChTraitsCRT@D@ATL@@@@@ATL@@00H@Z
_TEXT	SEGMENT
_nIndex$1$ = -36					; size = 4
_lTemp1$1$ = -36					; size = 4
$T2 = -36						; size = 4
$T3 = -32						; size = 4
_sTemp1$ = -28						; size = 4
_strText$ = -24						; size = 4
tv903 = -20						; size = 4
$T4 = -20						; size = 4
$T5 = -16						; size = 4
_clrHoga$1$ = -16					; size = 4
_sTemp$6 = -16						; size = 4
$T7 = -16						; size = 4
__$EHRec$ = -12						; size = 12
_clrHoga$8 = 8						; size = 4
_strHoga$ = 8						; size = 4
_strNumber$ = 12					; size = 4
_strPreClosePrice$ = 16					; size = 4
$T9 = 20						; size = 4
_bMaeDo$ = 20						; size = 4
?SetHogaData_Sub@CFloatingHogaDlg@@QAEXV?$CStringT@DV?$StrTraitMFC_DLL@DV?$ChTraitsCRT@D@ATL@@@@@ATL@@00H@Z PROC ; CFloatingHogaDlg::SetHogaData_Sub, COMDAT
; _this$ = ecx

; 1443 : {

  00000	55		 push	 ebp
  00001	8b ec		 mov	 ebp, esp
  00003	6a ff		 push	 -1
  00005	68 00 00 00 00	 push	 __ehhandler$?SetHogaData_Sub@CFloatingHogaDlg@@QAEXV?$CStringT@DV?$StrTraitMFC_DLL@DV?$ChTraitsCRT@D@ATL@@@@@ATL@@00H@Z
  0000a	64 a1 00 00 00
	00		 mov	 eax, DWORD PTR fs:0
  00010	50		 push	 eax
  00011	83 ec 18	 sub	 esp, 24			; 00000018H
  00014	53		 push	 ebx
  00015	56		 push	 esi
  00016	57		 push	 edi
  00017	a1 00 00 00 00	 mov	 eax, DWORD PTR ___security_cookie
  0001c	33 c5		 xor	 eax, ebp
  0001e	50		 push	 eax
  0001f	8d 45 f4	 lea	 eax, DWORD PTR __$EHRec$[ebp]
  00022	64 a3 00 00 00
	00		 mov	 DWORD PTR fs:0, eax
  00028	8b d9		 mov	 ebx, ecx

; 1444 : 	// -------------------------------------------------------------------------->>	
; 1445 : 	// ***    Row  ***
; 1446 : /*	if (m_bIsTenHoga == FALSE)
; 1447 : 	{
; 1448 : 		m_nHogaRangeForColor++;
; 1449 : 		m_nHogaRow = FindRowInFullHoga(strHoga);
; 1450 : 
; 1451 : 		//      
; 1452 : 		if ( !(m_nHogaRow == -1 || m_nHogaRow == HIGH_ROW || m_nHogaRow == m_nLowLimitRow) )
; 1453 : 		{
; 1454 : 			//  
; 1455 : 			COLORREF clrHoga;
; 1456 : //			if ( m_nHogaRangeForColor >= 1 && m_nHogaRangeForColor <= 5 )
; 1457 : //				clrHoga = COLOR_MAEDO_10HOGA;
; 1458 : //			else if ( m_nHogaRangeForColor >= 6 && m_nHogaRangeForColor <= 10 )
; 1459 : //				clrHoga = COLOR_MAEDO_5HOGA;
; 1460 : //			else if ( m_nHogaRangeForColor >= 11 && m_nHogaRangeForColor <= 15 )
; 1461 : //				clrHoga = COLOR_MAESU_5HOGA;
; 1462 : //			else if ( m_nHogaRangeForColor >= 16 && m_nHogaRangeForColor <= 20 )
; 1463 : //				clrHoga = COLOR_MAESU_10HOGA;
; 1464 : 			
; 1465 : 			clrHoga = GetHogaGridBkColor(m_nHogaRangeForColor);
; 1466 : 
; 1467 : 
; 1468 : 			//if (clrHoga == COLOR_MAEDO_10HOGA || clrHoga == COLOR_MAEDO_5HOGA)
; 1469 : 			if (m_nHogaRangeForColor >= 1 && m_nHogaRangeForColor <= 10)
; 1470 : 			{
; 1471 : 				m_pGridCtrl->SetItemBkColour(m_nHogaRow, HOGA_COL, clrHoga);
; 1472 : 				m_pGridCtrl->RedrawCell(m_nHogaRow, HOGA_COL);
; 1473 : 				m_pGridCtrl->SetItemBkColour(m_nHogaRow, DAEBI_COL, clrHoga);
; 1474 : 				m_pGridCtrl->RedrawCell(m_nHogaRow, DAEBI_COL);
; 1475 : 				m_pGridCtrl->SetItemBkColour(m_nHogaRow, MAEDO_JAN_COL, clrHoga);
; 1476 : 				m_pGridCtrl->RedrawCell(m_nHogaRow, MAEDO_JAN_COL);
; 1477 : 			}
; 1478 : 			else
; 1479 : 			{
; 1480 : 				m_pGridCtrl->SetItemBkColour(m_nHogaRow, HOGA_COL, clrHoga);
; 1481 : 				m_pGridCtrl->RedrawCell(m_nHogaRow, HOGA_COL);
; 1482 : 				m_pGridCtrl->SetItemBkColour(m_nHogaRow, DAEBI_COL, clrHoga);
; 1483 : 				m_pGridCtrl->RedrawCell(m_nHogaRow, DAEBI_COL);
; 1484 : 				m_pGridCtrl->SetItemBkColour(m_nHogaRow, MAESU_JAN_COL, clrHoga);
; 1485 : 				m_pGridCtrl->RedrawCell(m_nHogaRow, MAESU_JAN_COL);
; 1486 : 			}
; 1487 : 		}
; 1488 : 	}
; 1489 : 	else*/
; 1490 : 	{
; 1491 : 		m_nHogaRangeForColor++;

  0002a	8b 8b e0 01 00
	00		 mov	 ecx, DWORD PTR [ebx+480]
  00030	c7 45 fc 02 00
	00 00		 mov	 DWORD PTR __$EHRec$[ebp+8], 2
  00037	8d 41 01	 lea	 eax, DWORD PTR [ecx+1]
  0003a	89 83 e0 01 00
	00		 mov	 DWORD PTR [ebx+480], eax

; 1638 : 	if ( nHogaRange == 1 )

  00040	85 c9		 test	 ecx, ecx
  00042	75 22		 jne	 SHORT $LN27@SetHogaDat

; 1639 : 		clrHoga = COLOR_MAEDO_10HOGA_6;

  00044	8b 93 00 02 00
	00		 mov	 edx, DWORD PTR [ebx+512]
  0004a	8d bb 00 02 00
	00		 lea	 edi, DWORD PTR [ebx+512]
  00050	b8 e9 f6 ff 00	 mov	 eax, 16774889		; 00fff6e9H
  00055	8d b3 cc 00 00
	00		 lea	 esi, DWORD PTR [ebx+204]
  0005b	89 45 f0	 mov	 DWORD PTR _clrHoga$1$[ebp], eax
  0005e	89 45 ec	 mov	 DWORD PTR tv903[ebp], eax
  00061	e9 e4 00 00 00	 jmp	 $LN71@SetHogaDat
$LN27@SetHogaDat:

; 1640 : 	else if ( nHogaRange == 2 )

  00066	83 f9 01	 cmp	 ecx, 1
  00069	75 22		 jne	 SHORT $LN29@SetHogaDat

; 1641 : 		clrHoga = COLOR_MAEDO_10HOGA_7;

  0006b	8b 93 00 02 00
	00		 mov	 edx, DWORD PTR [ebx+512]
  00071	8d bb 00 02 00
	00		 lea	 edi, DWORD PTR [ebx+512]
  00077	b8 e4 f5 ff 00	 mov	 eax, 16774628		; 00fff5e4H
  0007c	8d b3 cc 00 00
	00		 lea	 esi, DWORD PTR [ebx+204]
  00082	89 45 f0	 mov	 DWORD PTR _clrHoga$1$[ebp], eax
  00085	89 45 ec	 mov	 DWORD PTR tv903[ebp], eax
  00088	e9 bd 00 00 00	 jmp	 $LN71@SetHogaDat
$LN29@SetHogaDat:

; 1642 : 	else if ( nHogaRange == 3 )

  0008d	83 f9 02	 cmp	 ecx, 2
  00090	75 22		 jne	 SHORT $LN31@SetHogaDat

; 1643 : 		clrHoga = COLOR_MAEDO_10HOGA_8;

  00092	8b 93 00 02 00
	00		 mov	 edx, DWORD PTR [ebx+512]
  00098	8d bb 00 02 00
	00		 lea	 edi, DWORD PTR [ebx+512]
  0009e	b8 e0 f4 ff 00	 mov	 eax, 16774368		; 00fff4e0H
  000a3	8d b3 cc 00 00
	00		 lea	 esi, DWORD PTR [ebx+204]
  000a9	89 45 f0	 mov	 DWORD PTR _clrHoga$1$[ebp], eax
  000ac	89 45 ec	 mov	 DWORD PTR tv903[ebp], eax
  000af	e9 96 00 00 00	 jmp	 $LN71@SetHogaDat
$LN31@SetHogaDat:

; 1644 : 	else if ( nHogaRange == 4 )

  000b4	83 f9 03	 cmp	 ecx, 3
  000b7	75 1f		 jne	 SHORT $LN33@SetHogaDat

; 1645 : 		clrHoga = COLOR_MAEDO_10HOGA_9;

  000b9	8b 93 00 02 00
	00		 mov	 edx, DWORD PTR [ebx+512]
  000bf	8d bb 00 02 00
	00		 lea	 edi, DWORD PTR [ebx+512]
  000c5	b8 dc f2 ff 00	 mov	 eax, 16773852		; 00fff2dcH
  000ca	8d b3 cc 00 00
	00		 lea	 esi, DWORD PTR [ebx+204]
  000d0	89 45 f0	 mov	 DWORD PTR _clrHoga$1$[ebp], eax
  000d3	89 45 ec	 mov	 DWORD PTR tv903[ebp], eax
  000d6	eb 72		 jmp	 SHORT $LN71@SetHogaDat
$LN33@SetHogaDat:

; 1646 : 	else if ( nHogaRange == 5 )

  000d8	83 f9 04	 cmp	 ecx, 4
  000db	75 1f		 jne	 SHORT $LN35@SetHogaDat

; 1647 : 		clrHoga = COLOR_MAEDO_10HOGA_10;

  000dd	8b 93 00 02 00
	00		 mov	 edx, DWORD PTR [ebx+512]
  000e3	8d bb 00 02 00
	00		 lea	 edi, DWORD PTR [ebx+512]
  000e9	b8 d5 ef fe 00	 mov	 eax, 16707541		; 00feefd5H
  000ee	8d b3 cc 00 00
	00		 lea	 esi, DWORD PTR [ebx+204]
  000f4	89 45 f0	 mov	 DWORD PTR _clrHoga$1$[ebp], eax
  000f7	89 45 ec	 mov	 DWORD PTR tv903[ebp], eax
  000fa	eb 4e		 jmp	 SHORT $LN71@SetHogaDat
$LN35@SetHogaDat:

; 1648 : 	else if ( nHogaRange == 6 )

  000fc	83 f9 05	 cmp	 ecx, 5
  000ff	74 78		 je	 SHORT $LN73@SetHogaDat

; 1649 : 		clrHoga = COLOR_MAESU_10HOGA_1;
; 1650 : 	else if ( nHogaRange == 7)

  00101	83 f9 06	 cmp	 ecx, 6
  00104	74 73		 je	 SHORT $LN73@SetHogaDat

; 1651 : 		clrHoga = COLOR_MAESU_10HOGA_2;
; 1652 : 	else if ( nHogaRange == 8 )

  00106	83 f9 07	 cmp	 ecx, 7
  00109	75 07		 jne	 SHORT $LN41@SetHogaDat

; 1653 : 		clrHoga = COLOR_MAESU_10HOGA_3;

  0010b	b8 fe e3 f6 00	 mov	 eax, 16180222		; 00f6e3feH
  00110	eb 6c		 jmp	 SHORT $LN74@SetHogaDat
$LN41@SetHogaDat:

; 1654 : 	else if ( nHogaRange == 9 )

  00112	8b 93 00 02 00
	00		 mov	 edx, DWORD PTR [ebx+512]
  00118	8d bb 00 02 00
	00		 lea	 edi, DWORD PTR [ebx+512]
  0011e	8d b3 cc 00 00
	00		 lea	 esi, DWORD PTR [ebx+204]
  00124	83 f9 08	 cmp	 ecx, 8
  00127	75 07		 jne	 SHORT $LN43@SetHogaDat

; 1655 : 		clrHoga = COLOR_MAESU_10HOGA_4;

  00129	b8 fe e7 f7 00	 mov	 eax, 16246782		; 00f7e7feH
  0012e	eb 60		 jmp	 SHORT $LN75@SetHogaDat
$LN43@SetHogaDat:

; 1656 : 	else if ( nHogaRange == 10 )

  00130	83 f9 09	 cmp	 ecx, 9
  00133	75 07		 jne	 SHORT $LN45@SetHogaDat

; 1657 : 		clrHoga = COLOR_MAESU_10HOGA_5;

  00135	b8 ff eb f7 00	 mov	 eax, 16247807		; 00f7ebffH
  0013a	eb 54		 jmp	 SHORT $LN75@SetHogaDat
$LN45@SetHogaDat:

; 1492 : 
; 1493 : 		//  
; 1494 : 		COLORREF clrHoga;
; 1495 : 		clrHoga = GetHogaGridBkColor(m_nHogaRangeForColor);
; 1496 : 
; 1497 : 
; 1498 : 		//if (clrHoga == COLOR_MAEDO_10HOGA || clrHoga == COLOR_MAEDO_5HOGA)
; 1499 : 		if (m_nHogaRangeForColor >= 1 && m_nHogaRangeForColor <= 5)

  0013c	8b 45 08	 mov	 eax, DWORD PTR _clrHoga$8[ebp]
  0013f	89 45 f0	 mov	 DWORD PTR _clrHoga$1$[ebp], eax
  00142	89 45 ec	 mov	 DWORD PTR tv903[ebp], eax
  00145	83 f9 04	 cmp	 ecx, 4
  00148	77 4c		 ja	 SHORT $LN68@SetHogaDat
$LN71@SetHogaDat:

; 1500 : 		{
; 1501 : 			m_pGridCtrl->SetItemBkColour(m_nHogaRow, HOGA_COL, clrHoga);

  0014a	8b 0e		 mov	 ecx, DWORD PTR [esi]
  0014c	50		 push	 eax
  0014d	6a 04		 push	 4
  0014f	52		 push	 edx
  00150	e8 00 00 00 00	 call	 ?SetItemBkColour@CExGridCtrl@@QAEHHHK@Z ; CExGridCtrl::SetItemBkColour

; 1502 : 			m_pGridCtrl->RedrawCell(m_nHogaRow, HOGA_COL);

  00155	8b 0e		 mov	 ecx, DWORD PTR [esi]
  00157	6a 00		 push	 0
  00159	6a 04		 push	 4
  0015b	ff 37		 push	 DWORD PTR [edi]
  0015d	e8 00 00 00 00	 call	 ?RedrawCell@CExGridCtrl@@QAEHHHPAVCDC@@@Z ; CExGridCtrl::RedrawCell

; 1503 : 			m_pGridCtrl->SetItemBkColour(m_nHogaRow, DAEBI_COL, clrHoga);

  00162	ff 75 f0	 push	 DWORD PTR _clrHoga$1$[ebp]
  00165	8b 0e		 mov	 ecx, DWORD PTR [esi]
  00167	6a 05		 push	 5
  00169	ff 37		 push	 DWORD PTR [edi]
  0016b	e8 00 00 00 00	 call	 ?SetItemBkColour@CExGridCtrl@@QAEHHHK@Z ; CExGridCtrl::SetItemBkColour

; 1504 : 			m_pGridCtrl->RedrawCell(m_nHogaRow, DAEBI_COL);
; 1505 : 			m_pGridCtrl->SetItemBkColour(m_nHogaRow, MAEDO_JAN_COL, clrHoga);
; 1506 : 			m_pGridCtrl->RedrawCell(m_nHogaRow, MAEDO_JAN_COL);

  00170	c7 45 f0 03 00
	00 00		 mov	 DWORD PTR $T5[ebp], 3

; 1507 : 		}

  00177	eb 4a		 jmp	 SHORT $LN72@SetHogaDat
$LN73@SetHogaDat:

; 1508 : 		else
; 1509 : 		{
; 1510 : 			m_pGridCtrl->SetItemBkColour(m_nHogaRow, HOGA_COL, clrHoga);

  00179	b8 fe de f5 00	 mov	 eax, 16113406		; 00f5defeH
$LN74@SetHogaDat:
  0017e	8b 93 00 02 00
	00		 mov	 edx, DWORD PTR [ebx+512]
  00184	8d bb 00 02 00
	00		 lea	 edi, DWORD PTR [ebx+512]
  0018a	8d b3 cc 00 00
	00		 lea	 esi, DWORD PTR [ebx+204]
$LN75@SetHogaDat:
  00190	89 45 ec	 mov	 DWORD PTR tv903[ebp], eax
  00193	89 45 f0	 mov	 DWORD PTR _clrHoga$1$[ebp], eax
$LN68@SetHogaDat:
  00196	8b 0e		 mov	 ecx, DWORD PTR [esi]
  00198	50		 push	 eax
  00199	6a 04		 push	 4
  0019b	52		 push	 edx
  0019c	e8 00 00 00 00	 call	 ?SetItemBkColour@CExGridCtrl@@QAEHHHK@Z ; CExGridCtrl::SetItemBkColour

; 1511 : 			m_pGridCtrl->RedrawCell(m_nHogaRow, HOGA_COL);

  001a1	8b 0e		 mov	 ecx, DWORD PTR [esi]
  001a3	6a 00		 push	 0
  001a5	6a 04		 push	 4
  001a7	ff 37		 push	 DWORD PTR [edi]
  001a9	e8 00 00 00 00	 call	 ?RedrawCell@CExGridCtrl@@QAEHHHPAVCDC@@@Z ; CExGridCtrl::RedrawCell

; 1512 : 			m_pGridCtrl->SetItemBkColour(m_nHogaRow, DAEBI_COL, clrHoga);

  001ae	ff 75 f0	 push	 DWORD PTR _clrHoga$1$[ebp]
  001b1	8b 0e		 mov	 ecx, DWORD PTR [esi]
  001b3	6a 05		 push	 5
  001b5	ff 37		 push	 DWORD PTR [edi]
  001b7	e8 00 00 00 00	 call	 ?SetItemBkColour@CExGridCtrl@@QAEHHHK@Z ; CExGridCtrl::SetItemBkColour

; 1513 : 			m_pGridCtrl->RedrawCell(m_nHogaRow, DAEBI_COL);
; 1514 : 			m_pGridCtrl->SetItemBkColour(m_nHogaRow, MAESU_JAN_COL, clrHoga);
; 1515 : 			m_pGridCtrl->RedrawCell(m_nHogaRow, MAESU_JAN_COL);

  001bc	c7 45 f0 06 00
	00 00		 mov	 DWORD PTR $T5[ebp], 6
$LN72@SetHogaDat:

; 1520 : 	CString  sTemp1;

  001c3	8b 07		 mov	 eax, DWORD PTR [edi]
  001c5	8b 0e		 mov	 ecx, DWORD PTR [esi]
  001c7	6a 00		 push	 0
  001c9	6a 05		 push	 5
  001cb	50		 push	 eax
  001cc	e8 00 00 00 00	 call	 ?RedrawCell@CExGridCtrl@@QAEHHHPAVCDC@@@Z ; CExGridCtrl::RedrawCell
  001d1	ff 75 ec	 push	 DWORD PTR tv903[ebp]
  001d4	8b 07		 mov	 eax, DWORD PTR [edi]
  001d6	ff 75 f0	 push	 DWORD PTR $T5[ebp]
  001d9	8b 0e		 mov	 ecx, DWORD PTR [esi]
  001db	50		 push	 eax
  001dc	e8 00 00 00 00	 call	 ?SetItemBkColour@CExGridCtrl@@QAEHHHK@Z ; CExGridCtrl::SetItemBkColour
  001e1	8b 07		 mov	 eax, DWORD PTR [edi]
  001e3	8b 0e		 mov	 ecx, DWORD PTR [esi]
  001e5	6a 00		 push	 0
  001e7	ff 75 f0	 push	 DWORD PTR $T5[ebp]
  001ea	50		 push	 eax
  001eb	e8 00 00 00 00	 call	 ?RedrawCell@CExGridCtrl@@QAEHHHPAVCDC@@@Z ; CExGridCtrl::RedrawCell
  001f0	8d 4d e4	 lea	 ecx, DWORD PTR _sTemp1$[ebp]
  001f3	ff 15 00 00 00
	00		 call	 DWORD PTR __imp_??0?$CStringT@DV?$StrTraitMFC_DLL@DV?$ChTraitsCRT@D@ATL@@@@@ATL@@QAE@XZ
; File C:\Program Files (x86)\Microsoft Visual Studio\2019\Community\VC\Tools\MSVC\14.29.30133\atlmfc\include\afx.inl

; 116  : 	{ return ::operator new(nSize); }

  001f9	6a 1c		 push	 28			; 0000001cH
; File D:\git\src\IBK\IBK_DRFN\ProjSrc\SrcDrfn\Chart\MULTICHART\FloatingHogaDlg.cpp

; 1520 : 	CString  sTemp1;

  001fb	c6 45 fc 03	 mov	 BYTE PTR __$EHRec$[ebp+8], 3
; File C:\Program Files (x86)\Microsoft Visual Studio\2019\Community\VC\Tools\MSVC\14.29.30133\atlmfc\include\afx.inl

; 116  : 	{ return ::operator new(nSize); }

  001ff	e8 00 00 00 00	 call	 ??2@YAPAXI@Z		; operator new
  00204	83 c4 04	 add	 esp, 4
; File D:\git\src\IBK\IBK_DRFN\ProjSrc\SrcDrfn\Chart\MULTICHART\FloatingHogaDlg.cpp

; 1524 : 	pHogaData = new CHogaData;

  00207	89 45 dc	 mov	 DWORD PTR $T2[ebp], eax
  0020a	c6 45 fc 04	 mov	 BYTE PTR __$EHRec$[ebp+8], 4
  0020e	85 c0		 test	 eax, eax
  00210	74 0e		 je	 SHORT $LN12@SetHogaDat
  00212	8b c8		 mov	 ecx, eax
  00214	e8 00 00 00 00	 call	 ??0CHogaData@@QAE@XZ	; CHogaData::CHogaData
  00219	8b f0		 mov	 esi, eax
  0021b	89 45 ec	 mov	 DWORD PTR $T4[ebp], eax
  0021e	eb 05		 jmp	 SHORT $LN13@SetHogaDat
$LN12@SetHogaDat:
  00220	33 f6		 xor	 esi, esi
  00222	89 75 ec	 mov	 DWORD PTR $T4[ebp], esi
$LN13@SetHogaDat:

; 1525 : 	pHogaData->m_nRow	 = m_nHogaRow;		

  00225	8b 07		 mov	 eax, DWORD PTR [edi]

; 1526 : 	pHogaData->m_nCol	 = HOGA_COL;
; 1527 : 	pHogaData->m_strText = m_Util.GetComma(strHoga);

  00227	8d 4d f0	 lea	 ecx, DWORD PTR $T7[ebp]
  0022a	89 46 04	 mov	 DWORD PTR [esi+4], eax
  0022d	c7 46 08 04 00
	00 00		 mov	 DWORD PTR [esi+8], 4
  00234	ff 75 08	 push	 DWORD PTR _strHoga$[ebp]
  00237	c6 45 fc 03	 mov	 BYTE PTR __$EHRec$[ebp+8], 3
  0023b	51		 push	 ecx
  0023c	8d 8b 84 01 00
	00		 lea	 ecx, DWORD PTR [ebx+388]
  00242	e8 00 00 00 00	 call	 ?GetComma@CUtil@@QAE?AV?$CStringT@DV?$StrTraitMFC_DLL@DV?$ChTraitsCRT@D@ATL@@@@@ATL@@PBD@Z ; CUtil::GetComma
  00247	8d 4e 18	 lea	 ecx, DWORD PTR [esi+24]
  0024a	c6 45 fc 05	 mov	 BYTE PTR __$EHRec$[ebp+8], 5
  0024e	50		 push	 eax
  0024f	ff 15 00 00 00
	00		 call	 DWORD PTR __imp_??4?$CStringT@DV?$StrTraitMFC_DLL@DV?$ChTraitsCRT@D@ATL@@@@@ATL@@QAEAAV01@ABV01@@Z
  00255	8d 4d f0	 lea	 ecx, DWORD PTR $T7[ebp]
  00258	c6 45 fc 03	 mov	 BYTE PTR __$EHRec$[ebp+8], 3
  0025c	ff 15 00 00 00
	00		 call	 DWORD PTR __imp_??1?$CStringT@DV?$StrTraitMFC_DLL@DV?$ChTraitsCRT@D@ATL@@@@@ATL@@QAE@XZ

; 1528 : 
; 1529 : 
; 1530 : 	//  
; 1531 : 	if (m_nHogaRow == HIGH_ROW || m_nHogaRow == m_nLowLimitRow)

  00262	8b 07		 mov	 eax, DWORD PTR [edi]
  00264	83 f8 02	 cmp	 eax, 2
  00267	0f 84 9e 00 00
	00		 je	 $LN6@SetHogaDat
  0026d	3b 83 d0 01 00
	00		 cmp	 eax, DWORD PTR [ebx+464]
  00273	0f 84 92 00 00
	00		 je	 $LN6@SetHogaDat

; 1534 : 	}
; 1535 : 	else 
; 1536 : 	{
; 1537 : 		int lTemp1, lTemp2;
; 1538 : 		lTemp1 = atol(strHoga);

  00279	ff 75 08	 push	 DWORD PTR _strHoga$[ebp]
  0027c	8b 35 00 00 00
	00		 mov	 esi, DWORD PTR __imp__atol
  00282	ff d6		 call	 esi
  00284	83 c4 04	 add	 esp, 4
  00287	89 45 dc	 mov	 DWORD PTR _lTemp1$1$[ebp], eax

; 1539 : 		CString sTemp;

  0028a	8d 4d f0	 lea	 ecx, DWORD PTR _sTemp$6[ebp]
  0028d	ff 15 00 00 00
	00		 call	 DWORD PTR __imp_??0?$CStringT@DV?$StrTraitMFC_DLL@DV?$ChTraitsCRT@D@ATL@@@@@ATL@@QAE@XZ

; 1540 : 		sTemp = m_Util.GetNumber(strPreClosePrice);

  00293	ff 75 10	 push	 DWORD PTR _strPreClosePrice$[ebp]
  00296	8d 45 e0	 lea	 eax, DWORD PTR $T3[ebp]
  00299	c6 45 fc 06	 mov	 BYTE PTR __$EHRec$[ebp+8], 6
  0029d	50		 push	 eax
  0029e	8d 8b 84 01 00
	00		 lea	 ecx, DWORD PTR [ebx+388]
  002a4	e8 00 00 00 00	 call	 ?GetNumber@CUtil@@QAE?AV?$CStringT@DV?$StrTraitMFC_DLL@DV?$ChTraitsCRT@D@ATL@@@@@ATL@@PBD@Z ; CUtil::GetNumber
  002a9	50		 push	 eax
  002aa	8d 4d f0	 lea	 ecx, DWORD PTR _sTemp$6[ebp]
  002ad	c6 45 fc 07	 mov	 BYTE PTR __$EHRec$[ebp+8], 7
  002b1	ff 15 00 00 00
	00		 call	 DWORD PTR __imp_??4?$CStringT@DV?$StrTraitMFC_DLL@DV?$ChTraitsCRT@D@ATL@@@@@ATL@@QAEAAV01@ABV01@@Z
  002b7	8d 4d e0	 lea	 ecx, DWORD PTR $T3[ebp]
  002ba	ff 15 00 00 00
	00		 call	 DWORD PTR __imp_??1?$CStringT@DV?$StrTraitMFC_DLL@DV?$ChTraitsCRT@D@ATL@@@@@ATL@@QAE@XZ

; 1541 : 		lTemp2 = atol(sTemp);

  002c0	ff 75 f0	 push	 DWORD PTR _sTemp$6[ebp]
  002c3	ff d6		 call	 esi

; 1542 : 		
; 1543 : 		if( lTemp1 > lTemp2 )			

  002c5	8b 4d dc	 mov	 ecx, DWORD PTR _lTemp1$1$[ebp]
  002c8	8b d0		 mov	 edx, eax
  002ca	83 c4 04	 add	 esp, 4
  002cd	3b ca		 cmp	 ecx, edx
  002cf	7e 19		 jle	 SHORT $LN7@SetHogaDat

; 1544 : 			pHogaData->m_crFgClr = COLOR_RED;		// 

  002d1	8b 75 ec	 mov	 esi, DWORD PTR $T4[ebp]

; 1546 : 			pHogaData->m_crFgClr = COLOR_BLUE;		// 
; 1547 : 		else
; 1548 : 			pHogaData->m_crFgClr = COLOR_BLACK;
; 1549 : 	}

  002d4	8d 4d f0	 lea	 ecx, DWORD PTR _sTemp$6[ebp]
  002d7	c6 45 fc 03	 mov	 BYTE PTR __$EHRec$[ebp+8], 3
  002db	c7 46 14 ff 00
	00 00		 mov	 DWORD PTR [esi+20], 255	; 000000ffH
  002e2	ff 15 00 00 00
	00		 call	 DWORD PTR __imp_??1?$CStringT@DV?$StrTraitMFC_DLL@DV?$ChTraitsCRT@D@ATL@@@@@ATL@@QAE@XZ
  002e8	eb 28		 jmp	 SHORT $LN5@SetHogaDat
$LN7@SetHogaDat:

; 1545 : 		else if( lTemp1 < lTemp2 )		

  002ea	33 c0		 xor	 eax, eax

; 1546 : 			pHogaData->m_crFgClr = COLOR_BLUE;		// 
; 1547 : 		else
; 1548 : 			pHogaData->m_crFgClr = COLOR_BLACK;
; 1549 : 	}

  002ec	c6 45 fc 03	 mov	 BYTE PTR __$EHRec$[ebp+8], 3
  002f0	3b ca		 cmp	 ecx, edx
  002f2	be 00 00 ff 00	 mov	 esi, 16711680		; 00ff0000H
  002f7	8d 4d f0	 lea	 ecx, DWORD PTR _sTemp$6[ebp]
  002fa	0f 4c c6	 cmovl	 eax, esi
  002fd	8b 75 ec	 mov	 esi, DWORD PTR $T4[ebp]
  00300	89 46 14	 mov	 DWORD PTR [esi+20], eax
  00303	ff 15 00 00 00
	00		 call	 DWORD PTR __imp_??1?$CStringT@DV?$StrTraitMFC_DLL@DV?$ChTraitsCRT@D@ATL@@@@@ATL@@QAE@XZ
  00309	eb 07		 jmp	 SHORT $LN5@SetHogaDat
$LN6@SetHogaDat:

; 1532 : 	{
; 1533 : 		pHogaData->m_crFgClr = COLOR_WHITE;

  0030b	c7 46 14 ff ff
	ff 00		 mov	 DWORD PTR [esi+20], 16777215 ; 00ffffffH
$LN5@SetHogaDat:

; 1550 : 
; 1551 : 	pHogaData->m_nMask = GVIF_FGCLR;	
; 1552 : 	m_HogaData.Add(pHogaData);				//  	

  00312	8d 8b 88 01 00
	00		 lea	 ecx, DWORD PTR [ebx+392]
  00318	c7 46 0c 20 00
	00 00		 mov	 DWORD PTR [esi+12], 32	; 00000020H
; File C:\Program Files (x86)\Microsoft Visual Studio\2019\Community\VC\Tools\MSVC\14.29.30133\atlmfc\include\afxtempl.h

; 333  : 	{ INT_PTR nIndex = m_nSize;

  0031f	8b 41 08	 mov	 eax, DWORD PTR [ecx+8]
  00322	89 45 dc	 mov	 DWORD PTR _nIndex$1$[ebp], eax

; 538  : 	if(nIndex < 0)

  00325	85 c0		 test	 eax, eax
  00327	0f 88 e9 00 00
	00		 js	 $LN77@SetHogaDat

; 540  : 
; 541  : 	if (nIndex >= m_nSize)
; 542  : 		SetSize(nIndex+1, -1);

  0032d	6a ff		 push	 -1
  0032f	40		 inc	 eax
  00330	50		 push	 eax
  00331	e8 00 00 00 00	 call	 ?SetSize@?$CArray@PAVCHogaData@@PAV1@@@QAEXHH@Z ; CArray<CHogaData *,CHogaData *>::SetSize

; 543  : 	m_pData[nIndex] = newElement;

  00336	8b 83 8c 01 00
	00		 mov	 eax, DWORD PTR [ebx+396]
  0033c	8b 4d dc	 mov	 ecx, DWORD PTR _nIndex$1$[ebp]
  0033f	89 34 88	 mov	 DWORD PTR [eax+ecx*4], esi
; File D:\git\src\IBK\IBK_DRFN\ProjSrc\SrcDrfn\Chart\MULTICHART\FloatingHogaDlg.cpp

; 1553 : 	CompareNUpdateHogaData(pHogaData->m_nRow, HOGA_COL, pHogaData->m_strText, GVIF_FGCLR, pHogaData->m_crFgClr);

  00342	8d 46 18	 lea	 eax, DWORD PTR [esi+24]
  00345	ff 76 14	 push	 DWORD PTR [esi+20]
  00348	6a 20		 push	 32			; 00000020H
  0034a	51		 push	 ecx
  0034b	8b cc		 mov	 ecx, esp
  0034d	50		 push	 eax
  0034e	ff 15 00 00 00
	00		 call	 DWORD PTR __imp_??0?$CStringT@DV?$StrTraitMFC_DLL@DV?$ChTraitsCRT@D@ATL@@@@@ATL@@QAE@ABV01@@Z
  00354	6a 04		 push	 4
  00356	ff 76 04	 push	 DWORD PTR [esi+4]
  00359	8b cb		 mov	 ecx, ebx
  0035b	e8 00 00 00 00	 call	 ?CompareNUpdateHogaData@CFloatingHogaDlg@@QAEXHHV?$CStringT@DV?$StrTraitMFC_DLL@DV?$ChTraitsCRT@D@ATL@@@@@ATL@@HK@Z ; CFloatingHogaDlg::CompareNUpdateHogaData

; 1554 : 	
; 1555 : 	// 
; 1556 : 	CString strText;

  00360	8d 4d e8	 lea	 ecx, DWORD PTR _strText$[ebp]
  00363	ff 15 00 00 00
	00		 call	 DWORD PTR __imp_??0?$CStringT@DV?$StrTraitMFC_DLL@DV?$ChTraitsCRT@D@ATL@@@@@ATL@@QAE@XZ

; 1557 : 	int nCol = 0;
; 1558 : 	nCol = (bMaeDo == TRUE) ? MAEDO_JAN_COL : MAESU_JAN_COL;

  00369	83 7d 14 01	 cmp	 DWORD PTR _bMaeDo$[ebp], 1

; 1559 : 	sTemp1 = m_Util.GetComma(strNumber);

  0036d	8d 8b 84 01 00
	00		 lea	 ecx, DWORD PTR [ebx+388]
  00373	ff 75 0c	 push	 DWORD PTR _strNumber$[ebp]
  00376	b8 03 00 00 00	 mov	 eax, 3
  0037b	c6 45 fc 08	 mov	 BYTE PTR __$EHRec$[ebp+8], 8
  0037f	be 06 00 00 00	 mov	 esi, 6
  00384	0f 44 f0	 cmove	 esi, eax
  00387	8d 45 14	 lea	 eax, DWORD PTR $T9[ebp]
  0038a	50		 push	 eax
  0038b	e8 00 00 00 00	 call	 ?GetComma@CUtil@@QAE?AV?$CStringT@DV?$StrTraitMFC_DLL@DV?$ChTraitsCRT@D@ATL@@@@@ATL@@PBD@Z ; CUtil::GetComma
  00390	50		 push	 eax
  00391	8d 4d e4	 lea	 ecx, DWORD PTR _sTemp1$[ebp]
  00394	c6 45 fc 09	 mov	 BYTE PTR __$EHRec$[ebp+8], 9
  00398	ff 15 00 00 00
	00		 call	 DWORD PTR __imp_??4?$CStringT@DV?$StrTraitMFC_DLL@DV?$ChTraitsCRT@D@ATL@@@@@ATL@@QAEAAV01@ABV01@@Z
  0039e	8d 4d 14	 lea	 ecx, DWORD PTR $T9[ebp]
  003a1	c6 45 fc 08	 mov	 BYTE PTR __$EHRec$[ebp+8], 8
  003a5	ff 15 00 00 00
	00		 call	 DWORD PTR __imp_??1?$CStringT@DV?$StrTraitMFC_DLL@DV?$ChTraitsCRT@D@ATL@@@@@ATL@@QAE@XZ

; 1560 : 	strText = sTemp1;

  003ab	8d 45 e4	 lea	 eax, DWORD PTR _sTemp1$[ebp]
  003ae	50		 push	 eax
  003af	8d 4d e8	 lea	 ecx, DWORD PTR _strText$[ebp]
  003b2	ff 15 00 00 00
	00		 call	 DWORD PTR __imp_??4?$CStringT@DV?$StrTraitMFC_DLL@DV?$ChTraitsCRT@D@ATL@@@@@ATL@@QAEAAV01@ABV01@@Z

; 1561 : 	CompareNUpdateHogaData(m_nHogaRow, nCol, strText, GVIF_FGCLR, COLOR_BLACK);

  003b8	6a 00		 push	 0
  003ba	6a 20		 push	 32			; 00000020H
  003bc	51		 push	 ecx
  003bd	8d 45 e8	 lea	 eax, DWORD PTR _strText$[ebp]
  003c0	8b cc		 mov	 ecx, esp
  003c2	50		 push	 eax
  003c3	ff 15 00 00 00
	00		 call	 DWORD PTR __imp_??0?$CStringT@DV?$StrTraitMFC_DLL@DV?$ChTraitsCRT@D@ATL@@@@@ATL@@QAE@ABV01@@Z
  003c9	56		 push	 esi
  003ca	ff 37		 push	 DWORD PTR [edi]
  003cc	8b cb		 mov	 ecx, ebx
  003ce	e8 00 00 00 00	 call	 ?CompareNUpdateHogaData@CFloatingHogaDlg@@QAEXHHV?$CStringT@DV?$StrTraitMFC_DLL@DV?$ChTraitsCRT@D@ATL@@@@@ATL@@HK@Z ; CFloatingHogaDlg::CompareNUpdateHogaData

; 1562 : 
; 1563 : 
; 1564 : 	//-----------------------------------------------------------------------------
; 1565 : 	// Author		: Dae-Sung, Byun	Date :2005/5/12
; 1566 : 	// Reason		:        
; 1567 : 	//			-.      (    )
; 1568 : 	//-----------------------------------------------------------------------------
; 1569 : 	// start
; 1570 : 	// 
; 1571 : 	//nCol = (bMaeDo == TRUE) ? MAESU_JAN_COL : MAEDO_JAN_COL;
; 1572 : 	//strText = "";
; 1573 : 	//CompareNUpdateHogaData(m_nHogaRow, nCol, strText, GVIF_FGCLR, COLOR_BLACK);
; 1574 : 	// end
; 1575 : 
; 1576 : 	m_nHogaRow++;

  003d3	ff 07		 inc	 DWORD PTR [edi]

; 1577 : }

  003d5	8d 4d e8	 lea	 ecx, DWORD PTR _strText$[ebp]
  003d8	ff 15 00 00 00
	00		 call	 DWORD PTR __imp_??1?$CStringT@DV?$StrTraitMFC_DLL@DV?$ChTraitsCRT@D@ATL@@@@@ATL@@QAE@XZ
  003de	8d 4d e4	 lea	 ecx, DWORD PTR _sTemp1$[ebp]
  003e1	ff 15 00 00 00
	00		 call	 DWORD PTR __imp_??1?$CStringT@DV?$StrTraitMFC_DLL@DV?$ChTraitsCRT@D@ATL@@@@@ATL@@QAE@XZ
  003e7	8d 4d 08	 lea	 ecx, DWORD PTR _strHoga$[ebp]
  003ea	ff 15 00 00 00
	00		 call	 DWORD PTR __imp_??1?$CStringT@DV?$StrTraitMFC_DLL@DV?$ChTraitsCRT@D@ATL@@@@@ATL@@QAE@XZ
  003f0	8d 4d 0c	 lea	 ecx, DWORD PTR _strNumber$[ebp]
  003f3	ff 15 00 00 00
	00		 call	 DWORD PTR __imp_??1?$CStringT@DV?$StrTraitMFC_DLL@DV?$ChTraitsCRT@D@ATL@@@@@ATL@@QAE@XZ
  003f9	8d 4d 10	 lea	 ecx, DWORD PTR _strPreClosePrice$[ebp]
  003fc	ff 15 00 00 00
	00		 call	 DWORD PTR __imp_??1?$CStringT@DV?$StrTraitMFC_DLL@DV?$ChTraitsCRT@D@ATL@@@@@ATL@@QAE@XZ
  00402	8b 4d f4	 mov	 ecx, DWORD PTR __$EHRec$[ebp]
  00405	64 89 0d 00 00
	00 00		 mov	 DWORD PTR fs:0, ecx
  0040c	59		 pop	 ecx
  0040d	5f		 pop	 edi
  0040e	5e		 pop	 esi
  0040f	5b		 pop	 ebx
  00410	8b e5		 mov	 esp, ebp
  00412	5d		 pop	 ebp
  00413	c2 10 00	 ret	 16			; 00000010H
$LN77@SetHogaDat:
; File C:\Program Files (x86)\Microsoft Visual Studio\2019\Community\VC\Tools\MSVC\14.29.30133\atlmfc\include\afxtempl.h

; 539  : 		AfxThrowInvalidArgException();

  00416	e8 00 00 00 00	 call	 ?AfxThrowInvalidArgException@@YGXXZ ; AfxThrowInvalidArgException
$LN70@SetHogaDat:
  0041b	cc		 int	 3
_TEXT	ENDS
;	COMDAT text$x
text$x	SEGMENT
__unwindfunclet$?SetHogaData_Sub@CFloatingHogaDlg@@QAEXV?$CStringT@DV?$StrTraitMFC_DLL@DV?$ChTraitsCRT@D@ATL@@@@@ATL@@00H@Z$0:
  00000	8d 4d 10	 lea	 ecx, DWORD PTR _strPreClosePrice$[ebp]
  00003	ff 25 00 00 00
	00		 jmp	 DWORD PTR __imp_??1?$CStringT@DV?$StrTraitMFC_DLL@DV?$ChTraitsCRT@D@ATL@@@@@ATL@@QAE@XZ
__unwindfunclet$?SetHogaData_Sub@CFloatingHogaDlg@@QAEXV?$CStringT@DV?$StrTraitMFC_DLL@DV?$ChTraitsCRT@D@ATL@@@@@ATL@@00H@Z$1:
  00009	8d 4d 0c	 lea	 ecx, DWORD PTR _strNumber$[ebp]
  0000c	ff 25 00 00 00
	00		 jmp	 DWORD PTR __imp_??1?$CStringT@DV?$StrTraitMFC_DLL@DV?$ChTraitsCRT@D@ATL@@@@@ATL@@QAE@XZ
__unwindfunclet$?SetHogaData_Sub@CFloatingHogaDlg@@QAEXV?$CStringT@DV?$StrTraitMFC_DLL@DV?$ChTraitsCRT@D@ATL@@@@@ATL@@00H@Z$2:
  00012	8d 4d 08	 lea	 ecx, DWORD PTR _strHoga$[ebp]
  00015	ff 25 00 00 00
	00		 jmp	 DWORD PTR __imp_??1?$CStringT@DV?$StrTraitMFC_DLL@DV?$ChTraitsCRT@D@ATL@@@@@ATL@@QAE@XZ
__unwindfunclet$?SetHogaData_Sub@CFloatingHogaDlg@@QAEXV?$CStringT@DV?$StrTraitMFC_DLL@DV?$ChTraitsCRT@D@ATL@@@@@ATL@@00H@Z$3:
  0001b	8d 4d e4	 lea	 ecx, DWORD PTR _sTemp1$[ebp]
  0001e	ff 25 00 00 00
	00		 jmp	 DWORD PTR __imp_??1?$CStringT@DV?$StrTraitMFC_DLL@DV?$ChTraitsCRT@D@ATL@@@@@ATL@@QAE@XZ
__unwindfunclet$?SetHogaData_Sub@CFloatingHogaDlg@@QAEXV?$CStringT@DV?$StrTraitMFC_DLL@DV?$ChTraitsCRT@D@ATL@@@@@ATL@@00H@Z$4:
  00024	8b 45 dc	 mov	 eax, DWORD PTR $T2[ebp]
  00027	50		 push	 eax
  00028	e8 00 00 00 00	 call	 ??3CObject@@SGXPAX@Z	; CObject::operator delete
  0002d	c3		 ret	 0
__unwindfunclet$?SetHogaData_Sub@CFloatingHogaDlg@@QAEXV?$CStringT@DV?$StrTraitMFC_DLL@DV?$ChTraitsCRT@D@ATL@@@@@ATL@@00H@Z$5:
  0002e	8d 4d f0	 lea	 ecx, DWORD PTR $T7[ebp]
  00031	ff 25 00 00 00
	00		 jmp	 DWORD PTR __imp_??1?$CStringT@DV?$StrTraitMFC_DLL@DV?$ChTraitsCRT@D@ATL@@@@@ATL@@QAE@XZ
__unwindfunclet$?SetHogaData_Sub@CFloatingHogaDlg@@QAEXV?$CStringT@DV?$StrTraitMFC_DLL@DV?$ChTraitsCRT@D@ATL@@@@@ATL@@00H@Z$6:
  00037	8d 4d f0	 lea	 ecx, DWORD PTR _sTemp$6[ebp]
  0003a	ff 25 00 00 00
	00		 jmp	 DWORD PTR __imp_??1?$CStringT@DV?$StrTraitMFC_DLL@DV?$ChTraitsCRT@D@ATL@@@@@ATL@@QAE@XZ
__unwindfunclet$?SetHogaData_Sub@CFloatingHogaDlg@@QAEXV?$CStringT@DV?$StrTraitMFC_DLL@DV?$ChTraitsCRT@D@ATL@@@@@ATL@@00H@Z$7:
  00040	8d 4d e0	 lea	 ecx, DWORD PTR $T3[ebp]
  00043	ff 25 00 00 00
	00		 jmp	 DWORD PTR __imp_??1?$CStringT@DV?$StrTraitMFC_DLL@DV?$ChTraitsCRT@D@ATL@@@@@ATL@@QAE@XZ
__unwindfunclet$?SetHogaData_Sub@CFloatingHogaDlg@@QAEXV?$CStringT@DV?$StrTraitMFC_DLL@DV?$ChTraitsCRT@D@ATL@@@@@ATL@@00H@Z$9:
  00049	8d 4d e8	 lea	 ecx, DWORD PTR _strText$[ebp]
  0004c	ff 25 00 00 00
	00		 jmp	 DWORD PTR __imp_??1?$CStringT@DV?$StrTraitMFC_DLL@DV?$ChTraitsCRT@D@ATL@@@@@ATL@@QAE@XZ
__unwindfunclet$?SetHogaData_Sub@CFloatingHogaDlg@@QAEXV?$CStringT@DV?$StrTraitMFC_DLL@DV?$ChTraitsCRT@D@ATL@@@@@ATL@@00H@Z$10:
  00052	8d 4d 14	 lea	 ecx, DWORD PTR $T9[ebp]
  00055	ff 25 00 00 00
	00		 jmp	 DWORD PTR __imp_??1?$CStringT@DV?$StrTraitMFC_DLL@DV?$ChTraitsCRT@D@ATL@@@@@ATL@@QAE@XZ
  0005b	cc		 int	 3
  0005c	cc		 int	 3
  0005d	cc		 int	 3
  0005e	cc		 int	 3
  0005f	cc		 int	 3
__ehhandler$?SetHogaData_Sub@CFloatingHogaDlg@@QAEXV?$CStringT@DV?$StrTraitMFC_DLL@DV?$ChTraitsCRT@D@ATL@@@@@ATL@@00H@Z:
  00060	90		 npad	 1
  00061	90		 npad	 1
  00062	8b 54 24 08	 mov	 edx, DWORD PTR [esp+8]
  00066	8d 42 0c	 lea	 eax, DWORD PTR [edx+12]
  00069	8b 4a d8	 mov	 ecx, DWORD PTR [edx-40]
  0006c	33 c8		 xor	 ecx, eax
  0006e	e8 00 00 00 00	 call	 @__security_check_cookie@4
  00073	b8 00 00 00 00	 mov	 eax, OFFSET __ehfuncinfo$?SetHogaData_Sub@CFloatingHogaDlg@@QAEXV?$CStringT@DV?$StrTraitMFC_DLL@DV?$ChTraitsCRT@D@ATL@@@@@ATL@@00H@Z
  00078	e9 00 00 00 00	 jmp	 ___CxxFrameHandler3
text$x	ENDS
?SetHogaData_Sub@CFloatingHogaDlg@@QAEXV?$CStringT@DV?$StrTraitMFC_DLL@DV?$ChTraitsCRT@D@ATL@@@@@ATL@@00H@Z ENDP ; CFloatingHogaDlg::SetHogaData_Sub
; Function compile flags: /Ogtp
; File D:\git\src\IBK\IBK_DRFN\ProjSrc\SrcDrfn\Chart\MULTICHART\FloatingHogaDlg.cpp
; File C:\Program Files (x86)\Microsoft Visual Studio\2019\Community\VC\Tools\MSVC\14.29.30133\atlmfc\include\cstringt.h
; File D:\git\src\IBK\IBK_DRFN\ProjSrc\SrcDrfn\Chart\MULTICHART\FloatingHogaDlg.cpp
; File C:\Program Files (x86)\Microsoft Visual Studio\2019\Community\VC\Tools\MSVC\14.29.30133\atlmfc\include\cstringt.h
; File C:\Program Files (x86)\Microsoft Visual Studio\2019\Community\VC\Tools\MSVC\14.29.30133\atlmfc\include\atlsimpstr.h
; File C:\Program Files (x86)\Microsoft Visual Studio\2019\Community\VC\Tools\MSVC\14.29.30133\atlmfc\include\cstringt.h
; File D:\git\src\IBK\IBK_DRFN\ProjSrc\SrcDrfn\Chart\MULTICHART\FloatingHogaDlg.cpp
; File C:\Program Files (x86)\Microsoft Visual Studio\2019\Community\VC\Tools\MSVC\14.29.30133\atlmfc\include\cstringt.h
; File C:\Program Files (x86)\Microsoft Visual Studio\2019\Community\VC\Tools\MSVC\14.29.30133\atlmfc\include\atlsimpstr.h
; File C:\Program Files (x86)\Microsoft Visual Studio\2019\Community\VC\Tools\MSVC\14.29.30133\atlmfc\include\cstringt.h
; File D:\git\src\IBK\IBK_DRFN\ProjSrc\SrcDrfn\Chart\MULTICHART\FloatingHogaDlg.cpp
; File C:\Program Files (x86)\Microsoft Visual Studio\2019\Community\VC\Tools\MSVC\14.29.30133\atlmfc\include\cstringt.h
; File D:\git\src\IBK\IBK_DRFN\ProjSrc\SrcDrfn\Chart\MULTICHART\FloatingHogaDlg.cpp
; File C:\Program Files (x86)\Microsoft Visual Studio\2019\Community\VC\Tools\MSVC\14.29.30133\atlmfc\include\cstringt.h
; File C:\Program Files (x86)\Microsoft Visual Studio\2019\Community\VC\Tools\MSVC\14.29.30133\atlmfc\include\atlsimpstr.h
; File C:\Program Files (x86)\Microsoft Visual Studio\2019\Community\VC\Tools\MSVC\14.29.30133\atlmfc\include\cstringt.h
; File D:\git\src\IBK\IBK_DRFN\ProjSrc\SrcDrfn\Chart\MULTICHART\FloatingHogaDlg.cpp
; File C:\Program Files (x86)\Microsoft Visual Studio\2019\Community\VC\Tools\MSVC\14.29.30133\atlmfc\include\cstringt.h
; File D:\git\src\IBK\IBK_DRFN\ProjSrc\SrcDrfn\Chart\MULTICHART\FloatingHogaDlg.cpp
; File C:\Program Files (x86)\Microsoft Visual Studio\2019\Community\VC\Tools\MSVC\14.29.30133\atlmfc\include\cstringt.h
; File C:\Program Files (x86)\Microsoft Visual Studio\2019\Community\VC\Tools\MSVC\14.29.30133\atlmfc\include\atlsimpstr.h
; File C:\Program Files (x86)\Microsoft Visual Studio\2019\Community\VC\Tools\MSVC\14.29.30133\atlmfc\include\cstringt.h
; File D:\git\src\IBK\IBK_DRFN\ProjSrc\SrcDrfn\Chart\MULTICHART\FloatingHogaDlg.cpp
;	COMDAT ?SetHogaData@CFloatingHogaDlg@@QAEXPADHH@Z
_TEXT	SEGMENT
_kb_01230$ = -380					; size = 168
_sTemp$ = -212						; size = 4
_sTemp2$ = -208						; size = 4
_strSPreVol$ = -204					; size = 4
_strSVolPer$ = -200					; size = 4
_strPrePrice$ = -196					; size = 4
_strSHigh$ = -192					; size = 4
_strSLow$ = -188					; size = 4
_strSign$ = -184					; size = 4
_strSVol$ = -180					; size = 4
_strSPrice$ = -176					; size = 4
_strExpRate$ = -172					; size = 4
_strExpPrice$ = -168					; size = 4
_strExpVol$ = -164					; size = 4
_strChange$ = -160					; size = 4
_strChangeRate$ = -156					; size = 4
_strPrice$ = -152					; size = 4
_this$GSCopy$1$ = -148					; size = 4
$T2 = -148						; size = 4
$T3 = -144						; size = 4
$T4 = -144						; size = 4
$T5 = -144						; size = 4
$T6 = -144						; size = 4
$T7 = -144						; size = 4
$T8 = -144						; size = 4
$T9 = -144						; size = 4
$T10 = -144						; size = 4
$T11 = -144						; size = 4
_nYSign$1$ = -140					; size = 4
_nRow$1$ = -140						; size = 4
_n5HogaMaedoJan$1$ = -140				; size = 4
$T12 = -140						; size = 4
$T13 = -140						; size = 4
$T14 = -140						; size = 4
$T15 = -140						; size = 4
tv2394 = -136						; size = 4
$T16 = -136						; size = 4
$T17 = -136						; size = 4
$T18 = -136						; size = 4
$T19 = -132						; size = 4
$T20 = -132						; size = 4
$T21 = -132						; size = 4
$T22 = -132						; size = 4
$T23 = -132						; size = 4
$T24 = -128						; size = 4
$T25 = -128						; size = 4
$T26 = -128						; size = 4
$T27 = -128						; size = 4
$T28 = -128						; size = 4
$T29 = -128						; size = 4
$T30 = -128						; size = 4
_strText$ = -124					; size = 4
_sTemp1$ = -120						; size = 4
tv2393 = -116						; size = 4
$T31 = -116						; size = 4
$T32 = -116						; size = 4
$T33 = -116						; size = 4
$T34 = -116						; size = 4
$T35 = -116						; size = 4
$T36 = -116						; size = 4
$T37 = -116						; size = 4
$T38 = -116						; size = 4
$T39 = -116						; size = 4
$T40 = -116						; size = 4
$T41 = -116						; size = 4
$T42 = -116						; size = 4
$T43 = -116						; size = 4
$T44 = -116						; size = 4
$T45 = -116						; size = 4
$T46 = -116						; size = 4
$T47 = -116						; size = 4
_nHogaData$ = -112					; size = 96
__$ArrayPad$ = -16					; size = 4
__$EHRec$ = -12						; size = 12
_pData$ = 8						; size = 4
_nSize$ = 12						; size = 4
_bGetBasicData$ = 16					; size = 4
?SetHogaData@CFloatingHogaDlg@@QAEXPADHH@Z PROC		; CFloatingHogaDlg::SetHogaData, COMDAT
; _this$ = ecx

; 1102 : {

  00000	55		 push	 ebp
  00001	8b ec		 mov	 ebp, esp
  00003	6a ff		 push	 -1
  00005	68 00 00 00 00	 push	 __ehhandler$?SetHogaData@CFloatingHogaDlg@@QAEXPADHH@Z
  0000a	64 a1 00 00 00
	00		 mov	 eax, DWORD PTR fs:0
  00010	50		 push	 eax
  00011	81 ec 70 01 00
	00		 sub	 esp, 368		; 00000170H
  00017	a1 00 00 00 00	 mov	 eax, DWORD PTR ___security_cookie
  0001c	33 c5		 xor	 eax, ebp
  0001e	89 45 f0	 mov	 DWORD PTR __$ArrayPad$[ebp], eax
  00021	56		 push	 esi
  00022	57		 push	 edi
  00023	50		 push	 eax
  00024	8d 45 f4	 lea	 eax, DWORD PTR __$EHRec$[ebp]
  00027	64 a3 00 00 00
	00		 mov	 DWORD PTR fs:0, eax
  0002d	8b f9		 mov	 edi, ecx
  0002f	89 bd 6c ff ff
	ff		 mov	 DWORD PTR _this$GSCopy$1$[ebp], edi

; 1103 : 	if(nSize <1 )

  00035	83 7d 0c 01	 cmp	 DWORD PTR _nSize$[ebp], 1
  00039	8b 75 08	 mov	 esi, DWORD PTR _pData$[ebp]
  0003c	c7 45 80 00 00
	00 00		 mov	 DWORD PTR $T24[ebp], 0
  00043	7d 0a		 jge	 SHORT $LN5@SetHogaDat

; 1104 : 	{
; 1105 : 		DisplayClear_AllHogaData();

  00045	e8 00 00 00 00	 call	 ?DisplayClear_AllHogaData@CFloatingHogaDlg@@QAEXXZ ; CFloatingHogaDlg::DisplayClear_AllHogaData

; 1106 : 		return;

  0004a	e9 f2 10 00 00	 jmp	 $LN1@SetHogaDat
$LN5@SetHogaDat:

; 1107 : 	}
; 1108 : 	CKB_01230 kb_01230;

  0004f	8d 8d 84 fe ff
	ff		 lea	 ecx, DWORD PTR _kb_01230$[ebp]
  00055	e8 00 00 00 00	 call	 ??0CKB_01230@@QAE@XZ	; CKB_01230::CKB_01230

; 1109 : 	kb_01230.Convert((LPk01230Out2)pData);

  0005a	56		 push	 esi
  0005b	8d 8d 84 fe ff
	ff		 lea	 ecx, DWORD PTR _kb_01230$[ebp]
  00061	c7 45 fc 00 00
	00 00		 mov	 DWORD PTR __$EHRec$[ebp+8], 0
  00068	e8 00 00 00 00	 call	 ?Convert@CKB_01230@@UAEXPAU_k01230Out2@@@Z ; CKB_01230::Convert

; 1110 : 
; 1111 : 	CString		sTemp, sTemp1, sTemp2, strText;

  0006d	8d 8d 2c ff ff
	ff		 lea	 ecx, DWORD PTR _sTemp$[ebp]
  00073	ff 15 00 00 00
	00		 call	 DWORD PTR __imp_??0?$CStringT@DV?$StrTraitMFC_DLL@DV?$ChTraitsCRT@D@ATL@@@@@ATL@@QAE@XZ
  00079	8d 4d 88	 lea	 ecx, DWORD PTR _sTemp1$[ebp]
  0007c	ff 15 00 00 00
	00		 call	 DWORD PTR __imp_??0?$CStringT@DV?$StrTraitMFC_DLL@DV?$ChTraitsCRT@D@ATL@@@@@ATL@@QAE@XZ
  00082	8d 8d 30 ff ff
	ff		 lea	 ecx, DWORD PTR _sTemp2$[ebp]
  00088	ff 15 00 00 00
	00		 call	 DWORD PTR __imp_??0?$CStringT@DV?$StrTraitMFC_DLL@DV?$ChTraitsCRT@D@ATL@@@@@ATL@@QAE@XZ
  0008e	8d 4d 84	 lea	 ecx, DWORD PTR _strText$[ebp]
  00091	ff 15 00 00 00
	00		 call	 DWORD PTR __imp_??0?$CStringT@DV?$StrTraitMFC_DLL@DV?$ChTraitsCRT@D@ATL@@@@@ATL@@QAE@XZ

; 1112 : 	int			nTemp1, n5HogaMaesuJan, n5HogaMaedoJan;
; 1113 : 	int			nRow;
; 1114 : 	int			nMask;
; 1115 : 	COLORREF	crFgClr;
; 1116 : 	
; 1117 : 
; 1118 : 	//-----------------------------------------------------------------------------
; 1119 : 	// Author		: Dae-Sung, Byun	Date :2005/5/12
; 1120 : 	// Reason		: InfoStatic  
; 1121 : 	//			-. (,,, )
; 1122 : 	//-----------------------------------------------------------------------------
; 1123 : 	// start
; 1124 : 	CString strExpRate , strSHigh , strSLow , strSPreVol , strSVolPer;	

  00097	8d 8d 54 ff ff
	ff		 lea	 ecx, DWORD PTR _strExpRate$[ebp]
  0009d	ff 15 00 00 00
	00		 call	 DWORD PTR __imp_??0?$CStringT@DV?$StrTraitMFC_DLL@DV?$ChTraitsCRT@D@ATL@@@@@ATL@@QAE@XZ
  000a3	8d 8d 40 ff ff
	ff		 lea	 ecx, DWORD PTR _strSHigh$[ebp]
  000a9	ff 15 00 00 00
	00		 call	 DWORD PTR __imp_??0?$CStringT@DV?$StrTraitMFC_DLL@DV?$ChTraitsCRT@D@ATL@@@@@ATL@@QAE@XZ
  000af	8d 8d 44 ff ff
	ff		 lea	 ecx, DWORD PTR _strSLow$[ebp]
  000b5	ff 15 00 00 00
	00		 call	 DWORD PTR __imp_??0?$CStringT@DV?$StrTraitMFC_DLL@DV?$ChTraitsCRT@D@ATL@@@@@ATL@@QAE@XZ
  000bb	8d 8d 34 ff ff
	ff		 lea	 ecx, DWORD PTR _strSPreVol$[ebp]
  000c1	ff 15 00 00 00
	00		 call	 DWORD PTR __imp_??0?$CStringT@DV?$StrTraitMFC_DLL@DV?$ChTraitsCRT@D@ATL@@@@@ATL@@QAE@XZ
  000c7	8d 8d 38 ff ff
	ff		 lea	 ecx, DWORD PTR _strSVolPer$[ebp]
  000cd	ff 15 00 00 00
	00		 call	 DWORD PTR __imp_??0?$CStringT@DV?$StrTraitMFC_DLL@DV?$ChTraitsCRT@D@ATL@@@@@ATL@@QAE@XZ

; 1125 : 	double	fPreVol=0., fCurVol=0., fPercent=0.;
; 1126 : 	// end
; 1127 : 
; 1128 : 
; 1129 : 	nTemp1 = n5HogaMaesuJan = n5HogaMaedoJan = 0;
; 1130 : 
; 1131 : //	m_strOldCode = m_strCode;	// .
; 1132 : 
; 1133 : 	//  
; 1134 : //	m_strCode = m_pInputBarDlg->m_ctrlCodeInput.GetDataText();
; 1135 : 
; 1136 : 	//  
; 1137 : 	sTemp1 = m_Util.GetComma(kb_01230.m_szrecprice);

  000d3	ff b5 88 fe ff
	ff		 push	 DWORD PTR _kb_01230$[ebp+4]
  000d9	8d b7 84 01 00
	00		 lea	 esi, DWORD PTR [edi+388]
  000df	c6 45 fc 09	 mov	 BYTE PTR __$EHRec$[ebp+8], 9
  000e3	8d 45 80	 lea	 eax, DWORD PTR $T30[ebp]
  000e6	89 b5 78 ff ff
	ff		 mov	 DWORD PTR tv2394[ebp], esi
  000ec	50		 push	 eax
  000ed	8b ce		 mov	 ecx, esi
  000ef	e8 00 00 00 00	 call	 ?GetComma@CUtil@@QAE?AV?$CStringT@DV?$StrTraitMFC_DLL@DV?$ChTraitsCRT@D@ATL@@@@@ATL@@PBD@Z ; CUtil::GetComma
  000f4	50		 push	 eax
  000f5	8d 4d 88	 lea	 ecx, DWORD PTR _sTemp1$[ebp]
  000f8	c6 45 fc 0a	 mov	 BYTE PTR __$EHRec$[ebp+8], 10 ; 0000000aH
  000fc	ff 15 00 00 00
	00		 call	 DWORD PTR __imp_??4?$CStringT@DV?$StrTraitMFC_DLL@DV?$ChTraitsCRT@D@ATL@@@@@ATL@@QAEAAV01@ABV01@@Z
  00102	8d 4d 80	 lea	 ecx, DWORD PTR $T30[ebp]
  00105	c6 45 fc 09	 mov	 BYTE PTR __$EHRec$[ebp+8], 9
  00109	ff 15 00 00 00
	00		 call	 DWORD PTR __imp_??1?$CStringT@DV?$StrTraitMFC_DLL@DV?$ChTraitsCRT@D@ATL@@@@@ATL@@QAE@XZ

; 1138 : 	m_strPreClosePrice = sTemp1;

  0010f	8d 87 e8 01 00
	00		 lea	 eax, DWORD PTR [edi+488]
  00115	8d 4d 88	 lea	 ecx, DWORD PTR _sTemp1$[ebp]
  00118	89 45 8c	 mov	 DWORD PTR tv2393[ebp], eax
  0011b	51		 push	 ecx
  0011c	8b c8		 mov	 ecx, eax
  0011e	ff 15 00 00 00
	00		 call	 DWORD PTR __imp_??4?$CStringT@DV?$StrTraitMFC_DLL@DV?$ChTraitsCRT@D@ATL@@@@@ATL@@QAEAAV01@ABV01@@Z

; 1139 : 
; 1140 : 	//  
; 1141 : 	sTemp1 = m_Util.GetComma(kb_01230.m_szprice);

  00124	ff b5 98 fe ff
	ff		 push	 DWORD PTR _kb_01230$[ebp+20]
  0012a	8d 45 80	 lea	 eax, DWORD PTR $T29[ebp]
  0012d	8b ce		 mov	 ecx, esi
  0012f	50		 push	 eax
  00130	e8 00 00 00 00	 call	 ?GetComma@CUtil@@QAE?AV?$CStringT@DV?$StrTraitMFC_DLL@DV?$ChTraitsCRT@D@ATL@@@@@ATL@@PBD@Z ; CUtil::GetComma
  00135	50		 push	 eax
  00136	8d 4d 88	 lea	 ecx, DWORD PTR _sTemp1$[ebp]
  00139	c6 45 fc 0b	 mov	 BYTE PTR __$EHRec$[ebp+8], 11 ; 0000000bH
  0013d	ff 15 00 00 00
	00		 call	 DWORD PTR __imp_??4?$CStringT@DV?$StrTraitMFC_DLL@DV?$ChTraitsCRT@D@ATL@@@@@ATL@@QAEAAV01@ABV01@@Z
  00143	8d 4d 80	 lea	 ecx, DWORD PTR $T29[ebp]
  00146	c6 45 fc 09	 mov	 BYTE PTR __$EHRec$[ebp+8], 9
  0014a	ff 15 00 00 00
	00		 call	 DWORD PTR __imp_??1?$CStringT@DV?$StrTraitMFC_DLL@DV?$ChTraitsCRT@D@ATL@@@@@ATL@@QAE@XZ

; 1142 : 	m_strCurPrice = sTemp1;

  00150	8d 4d 88	 lea	 ecx, DWORD PTR _sTemp1$[ebp]
  00153	51		 push	 ecx
  00154	8d 8f e4 01 00
	00		 lea	 ecx, DWORD PTR [edi+484]
  0015a	ff 15 00 00 00
	00		 call	 DWORD PTR __imp_??4?$CStringT@DV?$StrTraitMFC_DLL@DV?$ChTraitsCRT@D@ATL@@@@@ATL@@QAEAAV01@ABV01@@Z

; 1143 : 	
; 1144 : 	// 
; 1145 : 	nRow = HIGH_ROW;	
; 1146 : 	m_nHighLimit = atoi(kb_01230.m_szuplmtprice);

  00160	ff b5 10 ff ff
	ff		 push	 DWORD PTR _kb_01230$[ebp+140]
  00166	ff 15 00 00 00
	00		 call	 DWORD PTR __imp__atoi
  0016c	83 c4 04	 add	 esp, 4
  0016f	89 87 ec 01 00
	00		 mov	 DWORD PTR [edi+492], eax

; 1147 : 	strText = m_Util.GetComma(kb_01230.m_szuplmtprice);

  00175	8d 45 80	 lea	 eax, DWORD PTR $T28[ebp]
  00178	8b ce		 mov	 ecx, esi
  0017a	ff b5 10 ff ff
	ff		 push	 DWORD PTR _kb_01230$[ebp+140]
  00180	50		 push	 eax
  00181	e8 00 00 00 00	 call	 ?GetComma@CUtil@@QAE?AV?$CStringT@DV?$StrTraitMFC_DLL@DV?$ChTraitsCRT@D@ATL@@@@@ATL@@PBD@Z ; CUtil::GetComma
  00186	50		 push	 eax
  00187	8d 4d 84	 lea	 ecx, DWORD PTR _strText$[ebp]
  0018a	c6 45 fc 0c	 mov	 BYTE PTR __$EHRec$[ebp+8], 12 ; 0000000cH
  0018e	ff 15 00 00 00
	00		 call	 DWORD PTR __imp_??4?$CStringT@DV?$StrTraitMFC_DLL@DV?$ChTraitsCRT@D@ATL@@@@@ATL@@QAEAAV01@ABV01@@Z
  00194	8d 4d 80	 lea	 ecx, DWORD PTR $T28[ebp]
  00197	c6 45 fc 09	 mov	 BYTE PTR __$EHRec$[ebp+8], 9
  0019b	ff 15 00 00 00
	00		 call	 DWORD PTR __imp_??1?$CStringT@DV?$StrTraitMFC_DLL@DV?$ChTraitsCRT@D@ATL@@@@@ATL@@QAE@XZ

; 1148 : 	crFgClr = COLOR_WHITE;
; 1149 : 	nMask = GVIF_FGCLR;	
; 1150 : 	CompareNUpdateHogaData(nRow, HOGA_COL, strText, nMask, crFgClr);

  001a1	68 ff ff ff 00	 push	 16777215		; 00ffffffH
  001a6	6a 20		 push	 32			; 00000020H
  001a8	51		 push	 ecx
  001a9	8d 45 84	 lea	 eax, DWORD PTR _strText$[ebp]
  001ac	8b cc		 mov	 ecx, esp
  001ae	50		 push	 eax
  001af	ff 15 00 00 00
	00		 call	 DWORD PTR __imp_??0?$CStringT@DV?$StrTraitMFC_DLL@DV?$ChTraitsCRT@D@ATL@@@@@ATL@@QAE@ABV01@@Z
  001b5	6a 04		 push	 4
  001b7	6a 02		 push	 2
  001b9	8b cf		 mov	 ecx, edi
  001bb	e8 00 00 00 00	 call	 ?CompareNUpdateHogaData@CFloatingHogaDlg@@QAEXHHV?$CStringT@DV?$StrTraitMFC_DLL@DV?$ChTraitsCRT@D@ATL@@@@@ATL@@HK@Z ; CFloatingHogaDlg::CompareNUpdateHogaData

; 1151 : 
; 1152 : 	if (m_bIsTenHoga == TRUE )	strText = "";

  001c0	83 bf c0 01 00
	00 01		 cmp	 DWORD PTR [edi+448], 1
  001c7	8d 4d 84	 lea	 ecx, DWORD PTR _strText$[ebp]
  001ca	75 07		 jne	 SHORT $LN6@SetHogaDat
  001cc	68 00 00 00 00	 push	 OFFSET ??_C@_04MGNKPMDF@?$LL?s?G?Q@
  001d1	eb 05		 jmp	 SHORT $LN275@SetHogaDat
$LN6@SetHogaDat:

; 1153 : 	else						strText = "";

  001d3	68 00 00 00 00	 push	 OFFSET ??_C@_00CNPNBAHC@@
$LN275@SetHogaDat:

; 1154 : 	CompareNUpdateHogaData(nRow, MAEDO_JAN_COL, strText, 0, COLOR_BLACK);

  001d8	ff 15 00 00 00
	00		 call	 DWORD PTR __imp_??4?$CStringT@DV?$StrTraitMFC_DLL@DV?$ChTraitsCRT@D@ATL@@@@@ATL@@QAEAAV01@PBD@Z
  001de	6a 00		 push	 0
  001e0	6a 00		 push	 0
  001e2	51		 push	 ecx
  001e3	8d 45 84	 lea	 eax, DWORD PTR _strText$[ebp]
  001e6	8b cc		 mov	 ecx, esp
  001e8	50		 push	 eax
  001e9	ff 15 00 00 00
	00		 call	 DWORD PTR __imp_??0?$CStringT@DV?$StrTraitMFC_DLL@DV?$ChTraitsCRT@D@ATL@@@@@ATL@@QAE@ABV01@@Z
  001ef	6a 03		 push	 3
  001f1	6a 02		 push	 2
  001f3	8b cf		 mov	 ecx, edi
  001f5	e8 00 00 00 00	 call	 ?CompareNUpdateHogaData@CFloatingHogaDlg@@QAEXHHV?$CStringT@DV?$StrTraitMFC_DLL@DV?$ChTraitsCRT@D@ATL@@@@@ATL@@HK@Z ; CFloatingHogaDlg::CompareNUpdateHogaData

; 1155 : 
; 1156 : 	// 
; 1157 : 	nRow	= m_nLowLimitRow;

  001fa	8b 87 d0 01 00
	00		 mov	 eax, DWORD PTR [edi+464]

; 1158 : 	m_nLowLimit = atoi(kb_01230.m_szdnlmtprice);

  00200	ff b5 14 ff ff
	ff		 push	 DWORD PTR _kb_01230$[ebp+144]
  00206	89 85 74 ff ff
	ff		 mov	 DWORD PTR _nRow$1$[ebp], eax
  0020c	a1 00 00 00 00	 mov	 eax, DWORD PTR __imp__atoi
  00211	ff d0		 call	 eax
  00213	83 c4 04	 add	 esp, 4
  00216	89 87 f0 01 00
	00		 mov	 DWORD PTR [edi+496], eax

; 1159 : 	strText = m_Util.GetComma(kb_01230.m_szdnlmtprice);

  0021c	8d 45 80	 lea	 eax, DWORD PTR $T27[ebp]
  0021f	8b ce		 mov	 ecx, esi
  00221	ff b5 14 ff ff
	ff		 push	 DWORD PTR _kb_01230$[ebp+144]
  00227	50		 push	 eax
  00228	e8 00 00 00 00	 call	 ?GetComma@CUtil@@QAE?AV?$CStringT@DV?$StrTraitMFC_DLL@DV?$ChTraitsCRT@D@ATL@@@@@ATL@@PBD@Z ; CUtil::GetComma
  0022d	50		 push	 eax
  0022e	8d 4d 84	 lea	 ecx, DWORD PTR _strText$[ebp]
  00231	c6 45 fc 0d	 mov	 BYTE PTR __$EHRec$[ebp+8], 13 ; 0000000dH
  00235	ff 15 00 00 00
	00		 call	 DWORD PTR __imp_??4?$CStringT@DV?$StrTraitMFC_DLL@DV?$ChTraitsCRT@D@ATL@@@@@ATL@@QAEAAV01@ABV01@@Z
  0023b	8d 4d 80	 lea	 ecx, DWORD PTR $T27[ebp]
  0023e	c6 45 fc 09	 mov	 BYTE PTR __$EHRec$[ebp+8], 9
  00242	ff 15 00 00 00
	00		 call	 DWORD PTR __imp_??1?$CStringT@DV?$StrTraitMFC_DLL@DV?$ChTraitsCRT@D@ATL@@@@@ATL@@QAE@XZ

; 1160 : 	crFgClr = COLOR_WHITE;
; 1161 : 	nMask = GVIF_FGCLR;	
; 1162 : 	CompareNUpdateHogaData(nRow, HOGA_COL, strText, nMask, crFgClr);

  00248	68 ff ff ff 00	 push	 16777215		; 00ffffffH
  0024d	6a 20		 push	 32			; 00000020H
  0024f	51		 push	 ecx
  00250	8d 45 84	 lea	 eax, DWORD PTR _strText$[ebp]
  00253	8b cc		 mov	 ecx, esp
  00255	50		 push	 eax
  00256	ff 15 00 00 00
	00		 call	 DWORD PTR __imp_??0?$CStringT@DV?$StrTraitMFC_DLL@DV?$ChTraitsCRT@D@ATL@@@@@ATL@@QAE@ABV01@@Z
  0025c	8b b5 74 ff ff
	ff		 mov	 esi, DWORD PTR _nRow$1$[ebp]
  00262	8b cf		 mov	 ecx, edi
  00264	6a 04		 push	 4
  00266	56		 push	 esi
  00267	e8 00 00 00 00	 call	 ?CompareNUpdateHogaData@CFloatingHogaDlg@@QAEXHHV?$CStringT@DV?$StrTraitMFC_DLL@DV?$ChTraitsCRT@D@ATL@@@@@ATL@@HK@Z ; CFloatingHogaDlg::CompareNUpdateHogaData

; 1163 : 
; 1164 : 	if (m_bIsTenHoga == TRUE )	strText = "";

  0026c	83 bf c0 01 00
	00 01		 cmp	 DWORD PTR [edi+448], 1
  00273	8d 4d 84	 lea	 ecx, DWORD PTR _strText$[ebp]
  00276	75 07		 jne	 SHORT $LN8@SetHogaDat
  00278	68 00 00 00 00	 push	 OFFSET ??_C@_04EAAFLGOC@?G?O?G?Q@
  0027d	eb 05		 jmp	 SHORT $LN276@SetHogaDat
$LN8@SetHogaDat:

; 1165 : 	else						strText = "";

  0027f	68 00 00 00 00	 push	 OFFSET ??_C@_00CNPNBAHC@@
$LN276@SetHogaDat:

; 1166 : 	CompareNUpdateHogaData(nRow, MAESU_JAN_COL, strText, 0, COLOR_BLACK);

  00284	ff 15 00 00 00
	00		 call	 DWORD PTR __imp_??4?$CStringT@DV?$StrTraitMFC_DLL@DV?$ChTraitsCRT@D@ATL@@@@@ATL@@QAEAAV01@PBD@Z
  0028a	6a 00		 push	 0
  0028c	6a 00		 push	 0
  0028e	51		 push	 ecx
  0028f	8d 45 84	 lea	 eax, DWORD PTR _strText$[ebp]
  00292	8b cc		 mov	 ecx, esp
  00294	50		 push	 eax
  00295	ff 15 00 00 00
	00		 call	 DWORD PTR __imp_??0?$CStringT@DV?$StrTraitMFC_DLL@DV?$ChTraitsCRT@D@ATL@@@@@ATL@@QAE@ABV01@@Z
  0029b	6a 06		 push	 6
  0029d	56		 push	 esi
  0029e	8b cf		 mov	 ecx, edi
  002a0	e8 00 00 00 00	 call	 ?CompareNUpdateHogaData@CFloatingHogaDlg@@QAEXHHV?$CStringT@DV?$StrTraitMFC_DLL@DV?$ChTraitsCRT@D@ATL@@@@@ATL@@HK@Z ; CFloatingHogaDlg::CompareNUpdateHogaData

; 1167 : 
; 1168 : 	// ,     
; 1169 : 	if ( bGetBasicData == TRUE)

  002a5	83 7d 10 01	 cmp	 DWORD PTR _bGetBasicData$[ebp], 1
  002a9	0f 84 21 0e 00
	00		 je	 $LN111@SetHogaDat

; 1170 : 		return;
; 1171 : 	
; 1172 : 	//////////////////////////////////////////////////////////////////////////////////
; 1173 : 	//   
; 1174 : 	//////////////////////////////////////////////////////////////////////////////////
; 1175 : 	m_nHogaRow = MAEDO_ROW;
; 1176 : 	m_nHogaRangeForColor = 0;
; 1177 : 
; 1178 : 
; 1179 : 	// ,   
; 1180 : 	memset(&m_10HogaData, 0x00, TEN_HOGADATA_SIZE);	

  002af	6a 60		 push	 96			; 00000060H
  002b1	8d 87 24 01 00
	00		 lea	 eax, DWORD PTR [edi+292]
  002b7	c7 87 00 02 00
	00 04 00 00 00	 mov	 DWORD PTR [edi+512], 4
  002c1	6a 00		 push	 0
  002c3	50		 push	 eax
  002c4	c7 87 e0 01 00
	00 00 00 00 00	 mov	 DWORD PTR [edi+480], 0
  002ce	e8 00 00 00 00	 call	 _memset

; 1181 : 
; 1182 : 	m_nHogaRow += 5;	
; 1183 : 	//  / 5
; 1184 : 	m_10HogaData.nOfferho5 = atoi(kb_01230.m_szofferho5);

  002d3	ff b5 c0 fe ff
	ff		 push	 DWORD PTR _kb_01230$[ebp+60]
  002d9	83 87 00 02 00
	00 05		 add	 DWORD PTR [edi+512], 5
  002e0	8b 35 00 00 00
	00		 mov	 esi, DWORD PTR __imp__atoi
  002e6	ff d6		 call	 esi

; 1185 : 	n5HogaMaedoJan += atoi(kb_01230.m_szofferrem5);

  002e8	ff b5 d4 fe ff
	ff		 push	 DWORD PTR _kb_01230$[ebp+80]
  002ee	89 87 40 01 00
	00		 mov	 DWORD PTR [edi+320], eax
  002f4	ff d6		 call	 esi
  002f6	83 c4 14	 add	 esp, 20			; 00000014H
  002f9	8b f0		 mov	 esi, eax

; 1186 : 	SetHogaData_Sub(kb_01230.m_szofferho5, kb_01230.m_szofferrem5, m_strPreClosePrice, TRUE);

  002fb	8d 87 e8 01 00
	00		 lea	 eax, DWORD PTR [edi+488]
  00301	6a 01		 push	 1
  00303	51		 push	 ecx
  00304	8b cc		 mov	 ecx, esp
  00306	89 a5 74 ff ff
	ff		 mov	 DWORD PTR $T15[ebp], esp
  0030c	50		 push	 eax
  0030d	ff 15 00 00 00
	00		 call	 DWORD PTR __imp_??0?$CStringT@DV?$StrTraitMFC_DLL@DV?$ChTraitsCRT@D@ATL@@@@@ATL@@QAE@ABV01@@Z
  00313	51		 push	 ecx
  00314	8d 85 d4 fe ff
	ff		 lea	 eax, DWORD PTR _kb_01230$[ebp+80]
  0031a	89 65 80	 mov	 DWORD PTR $T26[ebp], esp
  0031d	8b cc		 mov	 ecx, esp
  0031f	c6 45 fc 0e	 mov	 BYTE PTR __$EHRec$[ebp+8], 14 ; 0000000eH
  00323	50		 push	 eax
  00324	ff 15 00 00 00
	00		 call	 DWORD PTR __imp_??0?$CStringT@DV?$StrTraitMFC_DLL@DV?$ChTraitsCRT@D@ATL@@@@@ATL@@QAE@ABV01@@Z
  0032a	51		 push	 ecx
  0032b	8d 85 c0 fe ff
	ff		 lea	 eax, DWORD PTR _kb_01230$[ebp+60]
  00331	c6 45 fc 0f	 mov	 BYTE PTR __$EHRec$[ebp+8], 15 ; 0000000fH
  00335	8b cc		 mov	 ecx, esp
  00337	50		 push	 eax
  00338	ff 15 00 00 00
	00		 call	 DWORD PTR __imp_??0?$CStringT@DV?$StrTraitMFC_DLL@DV?$ChTraitsCRT@D@ATL@@@@@ATL@@QAE@ABV01@@Z
  0033e	8b cf		 mov	 ecx, edi
  00340	c6 45 fc 09	 mov	 BYTE PTR __$EHRec$[ebp+8], 9
  00344	e8 00 00 00 00	 call	 ?SetHogaData_Sub@CFloatingHogaDlg@@QAEXV?$CStringT@DV?$StrTraitMFC_DLL@DV?$ChTraitsCRT@D@ATL@@@@@ATL@@00H@Z ; CFloatingHogaDlg::SetHogaData_Sub

; 1187 : 
; 1188 : 	//  / 4
; 1189 : 	m_10HogaData.nOfferho4 = atoi(kb_01230.m_szofferho4);

  00349	ff b5 bc fe ff
	ff		 push	 DWORD PTR _kb_01230$[ebp+56]
  0034f	a1 00 00 00 00	 mov	 eax, DWORD PTR __imp__atoi
  00354	ff d0		 call	 eax

; 1190 : 	n5HogaMaedoJan += atoi(kb_01230.m_szofferrem4);

  00356	ff b5 d0 fe ff
	ff		 push	 DWORD PTR _kb_01230$[ebp+76]
  0035c	89 87 44 01 00
	00		 mov	 DWORD PTR [edi+324], eax
  00362	ff 15 00 00 00
	00		 call	 DWORD PTR __imp__atoi
  00368	83 c4 08	 add	 esp, 8
  0036b	03 f0		 add	 esi, eax

; 1191 : 	SetHogaData_Sub(kb_01230.m_szofferho4, kb_01230.m_szofferrem4, m_strPreClosePrice, TRUE);

  0036d	8d 87 e8 01 00
	00		 lea	 eax, DWORD PTR [edi+488]
  00373	6a 01		 push	 1
  00375	51		 push	 ecx
  00376	8b cc		 mov	 ecx, esp
  00378	89 a5 70 ff ff
	ff		 mov	 DWORD PTR $T11[ebp], esp
  0037e	50		 push	 eax
  0037f	ff 15 00 00 00
	00		 call	 DWORD PTR __imp_??0?$CStringT@DV?$StrTraitMFC_DLL@DV?$ChTraitsCRT@D@ATL@@@@@ATL@@QAE@ABV01@@Z
  00385	51		 push	 ecx
  00386	8d 85 d0 fe ff
	ff		 lea	 eax, DWORD PTR _kb_01230$[ebp+76]
  0038c	89 a5 74 ff ff
	ff		 mov	 DWORD PTR $T14[ebp], esp
  00392	8b cc		 mov	 ecx, esp
  00394	c6 45 fc 10	 mov	 BYTE PTR __$EHRec$[ebp+8], 16 ; 00000010H
  00398	50		 push	 eax
  00399	ff 15 00 00 00
	00		 call	 DWORD PTR __imp_??0?$CStringT@DV?$StrTraitMFC_DLL@DV?$ChTraitsCRT@D@ATL@@@@@ATL@@QAE@ABV01@@Z
  0039f	51		 push	 ecx
  003a0	8d 85 bc fe ff
	ff		 lea	 eax, DWORD PTR _kb_01230$[ebp+56]
  003a6	c6 45 fc 11	 mov	 BYTE PTR __$EHRec$[ebp+8], 17 ; 00000011H
  003aa	8b cc		 mov	 ecx, esp
  003ac	50		 push	 eax
  003ad	ff 15 00 00 00
	00		 call	 DWORD PTR __imp_??0?$CStringT@DV?$StrTraitMFC_DLL@DV?$ChTraitsCRT@D@ATL@@@@@ATL@@QAE@ABV01@@Z
  003b3	8b cf		 mov	 ecx, edi
  003b5	c6 45 fc 09	 mov	 BYTE PTR __$EHRec$[ebp+8], 9
  003b9	e8 00 00 00 00	 call	 ?SetHogaData_Sub@CFloatingHogaDlg@@QAEXV?$CStringT@DV?$StrTraitMFC_DLL@DV?$ChTraitsCRT@D@ATL@@@@@ATL@@00H@Z ; CFloatingHogaDlg::SetHogaData_Sub

; 1192 : 
; 1193 : 	//  / 3
; 1194 : 	m_10HogaData.nOfferho3 = atoi(kb_01230.m_szofferho3);

  003be	ff b5 b8 fe ff
	ff		 push	 DWORD PTR _kb_01230$[ebp+52]
  003c4	ff 15 00 00 00
	00		 call	 DWORD PTR __imp__atoi

; 1195 : 	n5HogaMaedoJan += atoi(kb_01230.m_szofferrem3);

  003ca	ff b5 cc fe ff
	ff		 push	 DWORD PTR _kb_01230$[ebp+72]
  003d0	89 87 48 01 00
	00		 mov	 DWORD PTR [edi+328], eax
  003d6	ff 15 00 00 00
	00		 call	 DWORD PTR __imp__atoi
  003dc	83 c4 08	 add	 esp, 8
  003df	03 f0		 add	 esi, eax

; 1196 : 	SetHogaData_Sub(kb_01230.m_szofferho3, kb_01230.m_szofferrem3, m_strPreClosePrice, TRUE);

  003e1	6a 01		 push	 1
  003e3	51		 push	 ecx
  003e4	8d 87 e8 01 00
	00		 lea	 eax, DWORD PTR [edi+488]
  003ea	89 a5 70 ff ff
	ff		 mov	 DWORD PTR $T10[ebp], esp
  003f0	8b cc		 mov	 ecx, esp
  003f2	50		 push	 eax
  003f3	ff 15 00 00 00
	00		 call	 DWORD PTR __imp_??0?$CStringT@DV?$StrTraitMFC_DLL@DV?$ChTraitsCRT@D@ATL@@@@@ATL@@QAE@ABV01@@Z
  003f9	51		 push	 ecx
  003fa	8d 85 cc fe ff
	ff		 lea	 eax, DWORD PTR _kb_01230$[ebp+72]
  00400	89 a5 74 ff ff
	ff		 mov	 DWORD PTR $T13[ebp], esp
  00406	8b cc		 mov	 ecx, esp
  00408	c6 45 fc 12	 mov	 BYTE PTR __$EHRec$[ebp+8], 18 ; 00000012H
  0040c	50		 push	 eax
  0040d	ff 15 00 00 00
	00		 call	 DWORD PTR __imp_??0?$CStringT@DV?$StrTraitMFC_DLL@DV?$ChTraitsCRT@D@ATL@@@@@ATL@@QAE@ABV01@@Z
  00413	51		 push	 ecx
  00414	8d 85 b8 fe ff
	ff		 lea	 eax, DWORD PTR _kb_01230$[ebp+52]
  0041a	c6 45 fc 13	 mov	 BYTE PTR __$EHRec$[ebp+8], 19 ; 00000013H
  0041e	8b cc		 mov	 ecx, esp
  00420	50		 push	 eax
  00421	ff 15 00 00 00
	00		 call	 DWORD PTR __imp_??0?$CStringT@DV?$StrTraitMFC_DLL@DV?$ChTraitsCRT@D@ATL@@@@@ATL@@QAE@ABV01@@Z
  00427	8b cf		 mov	 ecx, edi
  00429	c6 45 fc 09	 mov	 BYTE PTR __$EHRec$[ebp+8], 9
  0042d	e8 00 00 00 00	 call	 ?SetHogaData_Sub@CFloatingHogaDlg@@QAEXV?$CStringT@DV?$StrTraitMFC_DLL@DV?$ChTraitsCRT@D@ATL@@@@@ATL@@00H@Z ; CFloatingHogaDlg::SetHogaData_Sub

; 1197 : 
; 1198 : 	//  / 2
; 1199 : 	m_10HogaData.nOfferho2 = atoi(kb_01230.m_szofferho2);

  00432	ff b5 b4 fe ff
	ff		 push	 DWORD PTR _kb_01230$[ebp+48]
  00438	ff 15 00 00 00
	00		 call	 DWORD PTR __imp__atoi

; 1200 : 	n5HogaMaedoJan += atoi(kb_01230.m_szofferrem2);

  0043e	ff b5 c8 fe ff
	ff		 push	 DWORD PTR _kb_01230$[ebp+68]
  00444	89 87 4c 01 00
	00		 mov	 DWORD PTR [edi+332], eax
  0044a	ff 15 00 00 00
	00		 call	 DWORD PTR __imp__atoi
  00450	83 c4 08	 add	 esp, 8
  00453	03 f0		 add	 esi, eax

; 1201 : 	SetHogaData_Sub(kb_01230.m_szofferho2, kb_01230.m_szofferrem2, m_strPreClosePrice, TRUE);

  00455	8d 87 e8 01 00
	00		 lea	 eax, DWORD PTR [edi+488]
  0045b	6a 01		 push	 1
  0045d	51		 push	 ecx
  0045e	8b cc		 mov	 ecx, esp
  00460	89 a5 70 ff ff
	ff		 mov	 DWORD PTR $T9[ebp], esp
  00466	50		 push	 eax
  00467	ff 15 00 00 00
	00		 call	 DWORD PTR __imp_??0?$CStringT@DV?$StrTraitMFC_DLL@DV?$ChTraitsCRT@D@ATL@@@@@ATL@@QAE@ABV01@@Z
  0046d	51		 push	 ecx
  0046e	8d 85 c8 fe ff
	ff		 lea	 eax, DWORD PTR _kb_01230$[ebp+68]
  00474	89 a5 74 ff ff
	ff		 mov	 DWORD PTR $T12[ebp], esp
  0047a	8b cc		 mov	 ecx, esp
  0047c	c6 45 fc 14	 mov	 BYTE PTR __$EHRec$[ebp+8], 20 ; 00000014H
  00480	50		 push	 eax
  00481	ff 15 00 00 00
	00		 call	 DWORD PTR __imp_??0?$CStringT@DV?$StrTraitMFC_DLL@DV?$ChTraitsCRT@D@ATL@@@@@ATL@@QAE@ABV01@@Z
  00487	51		 push	 ecx
  00488	8d 85 b4 fe ff
	ff		 lea	 eax, DWORD PTR _kb_01230$[ebp+48]
  0048e	c6 45 fc 15	 mov	 BYTE PTR __$EHRec$[ebp+8], 21 ; 00000015H
  00492	8b cc		 mov	 ecx, esp
  00494	50		 push	 eax
  00495	ff 15 00 00 00
	00		 call	 DWORD PTR __imp_??0?$CStringT@DV?$StrTraitMFC_DLL@DV?$ChTraitsCRT@D@ATL@@@@@ATL@@QAE@ABV01@@Z
  0049b	8b cf		 mov	 ecx, edi
  0049d	c6 45 fc 09	 mov	 BYTE PTR __$EHRec$[ebp+8], 9
  004a1	e8 00 00 00 00	 call	 ?SetHogaData_Sub@CFloatingHogaDlg@@QAEXV?$CStringT@DV?$StrTraitMFC_DLL@DV?$ChTraitsCRT@D@ATL@@@@@ATL@@00H@Z ; CFloatingHogaDlg::SetHogaData_Sub

; 1202 : 
; 1203 : 	//  / 1
; 1204 : 	m_10HogaData.nOfferho1 = atoi(kb_01230.m_szofferho1);

  004a6	ff b5 b0 fe ff
	ff		 push	 DWORD PTR _kb_01230$[ebp+44]
  004ac	ff 15 00 00 00
	00		 call	 DWORD PTR __imp__atoi

; 1205 : 	n5HogaMaedoJan += atoi(kb_01230.m_szofferrem1);

  004b2	ff b5 c4 fe ff
	ff		 push	 DWORD PTR _kb_01230$[ebp+64]
  004b8	89 87 50 01 00
	00		 mov	 DWORD PTR [edi+336], eax
  004be	ff 15 00 00 00
	00		 call	 DWORD PTR __imp__atoi
  004c4	83 c4 08	 add	 esp, 8
  004c7	03 f0		 add	 esi, eax

; 1206 : 	SetHogaData_Sub(kb_01230.m_szofferho1, kb_01230.m_szofferrem1, m_strPreClosePrice, TRUE);

  004c9	8d 87 e8 01 00
	00		 lea	 eax, DWORD PTR [edi+488]
  004cf	89 b5 74 ff ff
	ff		 mov	 DWORD PTR _n5HogaMaedoJan$1$[ebp], esi
  004d5	6a 01		 push	 1
  004d7	51		 push	 ecx
  004d8	8b cc		 mov	 ecx, esp
  004da	89 a5 70 ff ff
	ff		 mov	 DWORD PTR $T8[ebp], esp
  004e0	50		 push	 eax
  004e1	ff 15 00 00 00
	00		 call	 DWORD PTR __imp_??0?$CStringT@DV?$StrTraitMFC_DLL@DV?$ChTraitsCRT@D@ATL@@@@@ATL@@QAE@ABV01@@Z
  004e7	51		 push	 ecx
  004e8	8d 85 c4 fe ff
	ff		 lea	 eax, DWORD PTR _kb_01230$[ebp+64]
  004ee	89 65 80	 mov	 DWORD PTR $T25[ebp], esp
  004f1	8b cc		 mov	 ecx, esp
  004f3	c6 45 fc 16	 mov	 BYTE PTR __$EHRec$[ebp+8], 22 ; 00000016H
  004f7	50		 push	 eax
  004f8	ff 15 00 00 00
	00		 call	 DWORD PTR __imp_??0?$CStringT@DV?$StrTraitMFC_DLL@DV?$ChTraitsCRT@D@ATL@@@@@ATL@@QAE@ABV01@@Z
  004fe	51		 push	 ecx
  004ff	8d 85 b0 fe ff
	ff		 lea	 eax, DWORD PTR _kb_01230$[ebp+44]
  00505	c6 45 fc 17	 mov	 BYTE PTR __$EHRec$[ebp+8], 23 ; 00000017H
  00509	8b cc		 mov	 ecx, esp
  0050b	50		 push	 eax
  0050c	ff 15 00 00 00
	00		 call	 DWORD PTR __imp_??0?$CStringT@DV?$StrTraitMFC_DLL@DV?$ChTraitsCRT@D@ATL@@@@@ATL@@QAE@ABV01@@Z
  00512	8b cf		 mov	 ecx, edi
  00514	c6 45 fc 09	 mov	 BYTE PTR __$EHRec$[ebp+8], 9
  00518	e8 00 00 00 00	 call	 ?SetHogaData_Sub@CFloatingHogaDlg@@QAEXV?$CStringT@DV?$StrTraitMFC_DLL@DV?$ChTraitsCRT@D@ATL@@@@@ATL@@00H@Z ; CFloatingHogaDlg::SetHogaData_Sub

; 1207 : 
; 1208 : 	//////////////////////////////////////////////////////////////////////////////////
; 1209 : 	//   
; 1210 : 	//////////////////////////////////////////////////////////////////////////////////   
; 1211 : 	m_nHogaRow = MAESU_ROW;
; 1212 : 	
; 1213 : 	//  / 1
; 1214 : 	m_10HogaData.nBidho1 = atoi(kb_01230.m_szbidho1);

  0051d	ff b5 d8 fe ff
	ff		 push	 DWORD PTR _kb_01230$[ebp+84]
  00523	8b 35 00 00 00
	00		 mov	 esi, DWORD PTR __imp__atoi
  00529	c7 87 00 02 00
	00 0e 00 00 00	 mov	 DWORD PTR [edi+512], 14	; 0000000eH
  00533	ff d6		 call	 esi

; 1215 : 	n5HogaMaesuJan += atoi(kb_01230.m_szbidrem1);

  00535	ff b5 ec fe ff
	ff		 push	 DWORD PTR _kb_01230$[ebp+104]
  0053b	89 87 54 01 00
	00		 mov	 DWORD PTR [edi+340], eax
  00541	ff d6		 call	 esi
  00543	83 c4 08	 add	 esp, 8
  00546	8b f8		 mov	 edi, eax

; 1216 : 	SetHogaData_Sub(kb_01230.m_szbidho1, kb_01230.m_szbidrem1, m_strPreClosePrice, FALSE);

  00548	6a 00		 push	 0
  0054a	51		 push	 ecx
  0054b	8b cc		 mov	 ecx, esp
  0054d	89 a5 7c ff ff
	ff		 mov	 DWORD PTR $T23[ebp], esp
  00553	ff 75 8c	 push	 DWORD PTR tv2393[ebp]
  00556	ff 15 00 00 00
	00		 call	 DWORD PTR __imp_??0?$CStringT@DV?$StrTraitMFC_DLL@DV?$ChTraitsCRT@D@ATL@@@@@ATL@@QAE@ABV01@@Z
  0055c	51		 push	 ecx
  0055d	8d 85 ec fe ff
	ff		 lea	 eax, DWORD PTR _kb_01230$[ebp+104]
  00563	89 a5 70 ff ff
	ff		 mov	 DWORD PTR $T7[ebp], esp
  00569	8b cc		 mov	 ecx, esp
  0056b	c6 45 fc 18	 mov	 BYTE PTR __$EHRec$[ebp+8], 24 ; 00000018H
  0056f	50		 push	 eax
  00570	ff 15 00 00 00
	00		 call	 DWORD PTR __imp_??0?$CStringT@DV?$StrTraitMFC_DLL@DV?$ChTraitsCRT@D@ATL@@@@@ATL@@QAE@ABV01@@Z
  00576	51		 push	 ecx
  00577	8d 85 d8 fe ff
	ff		 lea	 eax, DWORD PTR _kb_01230$[ebp+84]
  0057d	c6 45 fc 19	 mov	 BYTE PTR __$EHRec$[ebp+8], 25 ; 00000019H
  00581	8b cc		 mov	 ecx, esp
  00583	50		 push	 eax
  00584	ff 15 00 00 00
	00		 call	 DWORD PTR __imp_??0?$CStringT@DV?$StrTraitMFC_DLL@DV?$ChTraitsCRT@D@ATL@@@@@ATL@@QAE@ABV01@@Z
  0058a	8b b5 6c ff ff
	ff		 mov	 esi, DWORD PTR _this$GSCopy$1$[ebp]
  00590	8b ce		 mov	 ecx, esi
  00592	c6 45 fc 09	 mov	 BYTE PTR __$EHRec$[ebp+8], 9
  00596	e8 00 00 00 00	 call	 ?SetHogaData_Sub@CFloatingHogaDlg@@QAEXV?$CStringT@DV?$StrTraitMFC_DLL@DV?$ChTraitsCRT@D@ATL@@@@@ATL@@00H@Z ; CFloatingHogaDlg::SetHogaData_Sub

; 1217 : 
; 1218 : 	//  / 2
; 1219 : 	m_10HogaData.nBidho2 = atoi(kb_01230.m_szbidho2);

  0059b	ff b5 dc fe ff
	ff		 push	 DWORD PTR _kb_01230$[ebp+88]
  005a1	ff 15 00 00 00
	00		 call	 DWORD PTR __imp__atoi

; 1220 : 	n5HogaMaesuJan += atoi(kb_01230.m_szbidrem2);

  005a7	ff b5 f0 fe ff
	ff		 push	 DWORD PTR _kb_01230$[ebp+108]
  005ad	89 86 58 01 00
	00		 mov	 DWORD PTR [esi+344], eax
  005b3	ff 15 00 00 00
	00		 call	 DWORD PTR __imp__atoi
  005b9	83 c4 08	 add	 esp, 8
  005bc	03 f8		 add	 edi, eax

; 1221 : 	SetHogaData_Sub(kb_01230.m_szbidho2, kb_01230.m_szbidrem2, m_strPreClosePrice, FALSE);

  005be	8d 86 e8 01 00
	00		 lea	 eax, DWORD PTR [esi+488]
  005c4	6a 00		 push	 0
  005c6	51		 push	 ecx
  005c7	8b cc		 mov	 ecx, esp
  005c9	89 a5 7c ff ff
	ff		 mov	 DWORD PTR $T22[ebp], esp
  005cf	50		 push	 eax
  005d0	ff 15 00 00 00
	00		 call	 DWORD PTR __imp_??0?$CStringT@DV?$StrTraitMFC_DLL@DV?$ChTraitsCRT@D@ATL@@@@@ATL@@QAE@ABV01@@Z
  005d6	51		 push	 ecx
  005d7	8d 85 f0 fe ff
	ff		 lea	 eax, DWORD PTR _kb_01230$[ebp+108]
  005dd	89 a5 70 ff ff
	ff		 mov	 DWORD PTR $T6[ebp], esp
  005e3	8b cc		 mov	 ecx, esp
  005e5	c6 45 fc 1a	 mov	 BYTE PTR __$EHRec$[ebp+8], 26 ; 0000001aH
  005e9	50		 push	 eax
  005ea	ff 15 00 00 00
	00		 call	 DWORD PTR __imp_??0?$CStringT@DV?$StrTraitMFC_DLL@DV?$ChTraitsCRT@D@ATL@@@@@ATL@@QAE@ABV01@@Z
  005f0	51		 push	 ecx
  005f1	8d 85 dc fe ff
	ff		 lea	 eax, DWORD PTR _kb_01230$[ebp+88]
  005f7	c6 45 fc 1b	 mov	 BYTE PTR __$EHRec$[ebp+8], 27 ; 0000001bH
  005fb	8b cc		 mov	 ecx, esp
  005fd	50		 push	 eax
  005fe	ff 15 00 00 00
	00		 call	 DWORD PTR __imp_??0?$CStringT@DV?$StrTraitMFC_DLL@DV?$ChTraitsCRT@D@ATL@@@@@ATL@@QAE@ABV01@@Z
  00604	8b ce		 mov	 ecx, esi
  00606	c6 45 fc 09	 mov	 BYTE PTR __$EHRec$[ebp+8], 9
  0060a	e8 00 00 00 00	 call	 ?SetHogaData_Sub@CFloatingHogaDlg@@QAEXV?$CStringT@DV?$StrTraitMFC_DLL@DV?$ChTraitsCRT@D@ATL@@@@@ATL@@00H@Z ; CFloatingHogaDlg::SetHogaData_Sub

; 1222 : 
; 1223 : 	//  / 3
; 1224 : 	m_10HogaData.nBidho3 = atoi(kb_01230.m_szbidho3);

  0060f	ff b5 e0 fe ff
	ff		 push	 DWORD PTR _kb_01230$[ebp+92]
  00615	ff 15 00 00 00
	00		 call	 DWORD PTR __imp__atoi

; 1225 : 	n5HogaMaesuJan += atoi(kb_01230.m_szbidrem3);

  0061b	ff b5 f4 fe ff
	ff		 push	 DWORD PTR _kb_01230$[ebp+112]
  00621	89 86 5c 01 00
	00		 mov	 DWORD PTR [esi+348], eax
  00627	ff 15 00 00 00
	00		 call	 DWORD PTR __imp__atoi
  0062d	83 c4 08	 add	 esp, 8

; 1226 : 	SetHogaData_Sub(kb_01230.m_szbidho3, kb_01230.m_szbidrem3, m_strPreClosePrice, FALSE);

  00630	6a 00		 push	 0
  00632	51		 push	 ecx
  00633	03 f8		 add	 edi, eax
  00635	89 a5 7c ff ff
	ff		 mov	 DWORD PTR $T21[ebp], esp
  0063b	8d 86 e8 01 00
	00		 lea	 eax, DWORD PTR [esi+488]
  00641	8b cc		 mov	 ecx, esp
  00643	50		 push	 eax
  00644	ff 15 00 00 00
	00		 call	 DWORD PTR __imp_??0?$CStringT@DV?$StrTraitMFC_DLL@DV?$ChTraitsCRT@D@ATL@@@@@ATL@@QAE@ABV01@@Z
  0064a	51		 push	 ecx
  0064b	8d 85 f4 fe ff
	ff		 lea	 eax, DWORD PTR _kb_01230$[ebp+112]
  00651	89 a5 70 ff ff
	ff		 mov	 DWORD PTR $T5[ebp], esp
  00657	8b cc		 mov	 ecx, esp
  00659	c6 45 fc 1c	 mov	 BYTE PTR __$EHRec$[ebp+8], 28 ; 0000001cH
  0065d	50		 push	 eax
  0065e	ff 15 00 00 00
	00		 call	 DWORD PTR __imp_??0?$CStringT@DV?$StrTraitMFC_DLL@DV?$ChTraitsCRT@D@ATL@@@@@ATL@@QAE@ABV01@@Z
  00664	51		 push	 ecx
  00665	8d 85 e0 fe ff
	ff		 lea	 eax, DWORD PTR _kb_01230$[ebp+92]
  0066b	c6 45 fc 1d	 mov	 BYTE PTR __$EHRec$[ebp+8], 29 ; 0000001dH
  0066f	8b cc		 mov	 ecx, esp
  00671	50		 push	 eax
  00672	ff 15 00 00 00
	00		 call	 DWORD PTR __imp_??0?$CStringT@DV?$StrTraitMFC_DLL@DV?$ChTraitsCRT@D@ATL@@@@@ATL@@QAE@ABV01@@Z
  00678	8b ce		 mov	 ecx, esi
  0067a	c6 45 fc 09	 mov	 BYTE PTR __$EHRec$[ebp+8], 9
  0067e	e8 00 00 00 00	 call	 ?SetHogaData_Sub@CFloatingHogaDlg@@QAEXV?$CStringT@DV?$StrTraitMFC_DLL@DV?$ChTraitsCRT@D@ATL@@@@@ATL@@00H@Z ; CFloatingHogaDlg::SetHogaData_Sub

; 1227 : 
; 1228 : 	//  / 4
; 1229 : 	m_10HogaData.nBidho4 = atoi(kb_01230.m_szbidho4);

  00683	ff b5 e4 fe ff
	ff		 push	 DWORD PTR _kb_01230$[ebp+96]
  00689	ff 15 00 00 00
	00		 call	 DWORD PTR __imp__atoi

; 1230 : 	n5HogaMaesuJan += atoi(kb_01230.m_szbidrem4);

  0068f	ff b5 f8 fe ff
	ff		 push	 DWORD PTR _kb_01230$[ebp+116]
  00695	89 86 60 01 00
	00		 mov	 DWORD PTR [esi+352], eax
  0069b	ff 15 00 00 00
	00		 call	 DWORD PTR __imp__atoi
  006a1	83 c4 08	 add	 esp, 8
  006a4	03 f8		 add	 edi, eax

; 1231 : 	SetHogaData_Sub(kb_01230.m_szbidho4, kb_01230.m_szbidrem4, m_strPreClosePrice, FALSE);

  006a6	8d 86 e8 01 00
	00		 lea	 eax, DWORD PTR [esi+488]
  006ac	6a 00		 push	 0
  006ae	51		 push	 ecx
  006af	8b cc		 mov	 ecx, esp
  006b1	89 a5 7c ff ff
	ff		 mov	 DWORD PTR $T20[ebp], esp
  006b7	50		 push	 eax
  006b8	ff 15 00 00 00
	00		 call	 DWORD PTR __imp_??0?$CStringT@DV?$StrTraitMFC_DLL@DV?$ChTraitsCRT@D@ATL@@@@@ATL@@QAE@ABV01@@Z
  006be	51		 push	 ecx
  006bf	8d 85 f8 fe ff
	ff		 lea	 eax, DWORD PTR _kb_01230$[ebp+116]
  006c5	89 a5 70 ff ff
	ff		 mov	 DWORD PTR $T4[ebp], esp
  006cb	8b cc		 mov	 ecx, esp
  006cd	c6 45 fc 1e	 mov	 BYTE PTR __$EHRec$[ebp+8], 30 ; 0000001eH
  006d1	50		 push	 eax
  006d2	ff 15 00 00 00
	00		 call	 DWORD PTR __imp_??0?$CStringT@DV?$StrTraitMFC_DLL@DV?$ChTraitsCRT@D@ATL@@@@@ATL@@QAE@ABV01@@Z
  006d8	51		 push	 ecx
  006d9	8d 85 e4 fe ff
	ff		 lea	 eax, DWORD PTR _kb_01230$[ebp+96]
  006df	c6 45 fc 1f	 mov	 BYTE PTR __$EHRec$[ebp+8], 31 ; 0000001fH
  006e3	8b cc		 mov	 ecx, esp
  006e5	50		 push	 eax
  006e6	ff 15 00 00 00
	00		 call	 DWORD PTR __imp_??0?$CStringT@DV?$StrTraitMFC_DLL@DV?$ChTraitsCRT@D@ATL@@@@@ATL@@QAE@ABV01@@Z
  006ec	8b ce		 mov	 ecx, esi
  006ee	c6 45 fc 09	 mov	 BYTE PTR __$EHRec$[ebp+8], 9
  006f2	e8 00 00 00 00	 call	 ?SetHogaData_Sub@CFloatingHogaDlg@@QAEXV?$CStringT@DV?$StrTraitMFC_DLL@DV?$ChTraitsCRT@D@ATL@@@@@ATL@@00H@Z ; CFloatingHogaDlg::SetHogaData_Sub

; 1232 : 
; 1233 : 	//  / 5
; 1234 : 	m_10HogaData.nBidho5 = atoi(kb_01230.m_szbidho5);

  006f7	ff b5 e8 fe ff
	ff		 push	 DWORD PTR _kb_01230$[ebp+100]
  006fd	ff 15 00 00 00
	00		 call	 DWORD PTR __imp__atoi

; 1235 : 	n5HogaMaesuJan += atoi(kb_01230.m_szbidrem5);

  00703	ff b5 fc fe ff
	ff		 push	 DWORD PTR _kb_01230$[ebp+120]
  00709	89 86 64 01 00
	00		 mov	 DWORD PTR [esi+356], eax
  0070f	ff 15 00 00 00
	00		 call	 DWORD PTR __imp__atoi
  00715	83 c4 08	 add	 esp, 8
  00718	03 f8		 add	 edi, eax

; 1236 : 	SetHogaData_Sub(kb_01230.m_szbidho5, kb_01230.m_szbidrem5, m_strPreClosePrice, FALSE);

  0071a	8d 86 e8 01 00
	00		 lea	 eax, DWORD PTR [esi+488]
  00720	6a 00		 push	 0
  00722	51		 push	 ecx
  00723	8b cc		 mov	 ecx, esp
  00725	89 a5 7c ff ff
	ff		 mov	 DWORD PTR $T19[ebp], esp
  0072b	50		 push	 eax
  0072c	ff 15 00 00 00
	00		 call	 DWORD PTR __imp_??0?$CStringT@DV?$StrTraitMFC_DLL@DV?$ChTraitsCRT@D@ATL@@@@@ATL@@QAE@ABV01@@Z
  00732	51		 push	 ecx
  00733	8d 85 fc fe ff
	ff		 lea	 eax, DWORD PTR _kb_01230$[ebp+120]
  00739	89 a5 70 ff ff
	ff		 mov	 DWORD PTR $T3[ebp], esp
  0073f	8b cc		 mov	 ecx, esp
  00741	c6 45 fc 20	 mov	 BYTE PTR __$EHRec$[ebp+8], 32 ; 00000020H
  00745	50		 push	 eax
  00746	ff 15 00 00 00
	00		 call	 DWORD PTR __imp_??0?$CStringT@DV?$StrTraitMFC_DLL@DV?$ChTraitsCRT@D@ATL@@@@@ATL@@QAE@ABV01@@Z
  0074c	51		 push	 ecx
  0074d	8d 85 e8 fe ff
	ff		 lea	 eax, DWORD PTR _kb_01230$[ebp+100]
  00753	c6 45 fc 21	 mov	 BYTE PTR __$EHRec$[ebp+8], 33 ; 00000021H
  00757	8b cc		 mov	 ecx, esp
  00759	50		 push	 eax
  0075a	ff 15 00 00 00
	00		 call	 DWORD PTR __imp_??0?$CStringT@DV?$StrTraitMFC_DLL@DV?$ChTraitsCRT@D@ATL@@@@@ATL@@QAE@ABV01@@Z
  00760	8b ce		 mov	 ecx, esi
  00762	c6 45 fc 09	 mov	 BYTE PTR __$EHRec$[ebp+8], 9
  00766	e8 00 00 00 00	 call	 ?SetHogaData_Sub@CFloatingHogaDlg@@QAEXV?$CStringT@DV?$StrTraitMFC_DLL@DV?$ChTraitsCRT@D@ATL@@@@@ATL@@00H@Z ; CFloatingHogaDlg::SetHogaData_Sub

; 1237 : 
; 1238 : 	//---------------------------------------------------------------------------------------------->>
; 1239 : 	// 5   
; 1240 : 	nRow = m_n5HogaSumRow;		
; 1241 : 	sTemp1.Format("%d", n5HogaMaedoJan);

  0076b	ff b5 74 ff ff
	ff		 push	 DWORD PTR _n5HogaMaedoJan$1$[ebp]
  00771	8b b6 d4 01 00
	00		 mov	 esi, DWORD PTR [esi+468]
  00777	8d 45 88	 lea	 eax, DWORD PTR _sTemp1$[ebp]
  0077a	68 00 00 00 00	 push	 OFFSET ??_C@_02DPKJAMEF@?$CFd@
  0077f	50		 push	 eax
  00780	ff 15 00 00 00
	00		 call	 DWORD PTR __imp_?Format@?$CStringT@DV?$StrTraitMFC_DLL@DV?$ChTraitsCRT@D@ATL@@@@@ATL@@QAAXPBDZZ

; 1242 : 	strText = m_Util.GetComma(sTemp1);

  00786	8b 8d 78 ff ff
	ff		 mov	 ecx, DWORD PTR tv2394[ebp]
  0078c	8d 45 8c	 lea	 eax, DWORD PTR $T47[ebp]
  0078f	83 c4 0c	 add	 esp, 12			; 0000000cH
  00792	ff 75 88	 push	 DWORD PTR _sTemp1$[ebp]
  00795	50		 push	 eax
  00796	e8 00 00 00 00	 call	 ?GetComma@CUtil@@QAE?AV?$CStringT@DV?$StrTraitMFC_DLL@DV?$ChTraitsCRT@D@ATL@@@@@ATL@@PBD@Z ; CUtil::GetComma
  0079b	50		 push	 eax
  0079c	8d 4d 84	 lea	 ecx, DWORD PTR _strText$[ebp]
  0079f	c6 45 fc 22	 mov	 BYTE PTR __$EHRec$[ebp+8], 34 ; 00000022H
  007a3	ff 15 00 00 00
	00		 call	 DWORD PTR __imp_??4?$CStringT@DV?$StrTraitMFC_DLL@DV?$ChTraitsCRT@D@ATL@@@@@ATL@@QAEAAV01@ABV01@@Z
  007a9	8d 4d 8c	 lea	 ecx, DWORD PTR $T47[ebp]
  007ac	c6 45 fc 09	 mov	 BYTE PTR __$EHRec$[ebp+8], 9
  007b0	ff 15 00 00 00
	00		 call	 DWORD PTR __imp_??1?$CStringT@DV?$StrTraitMFC_DLL@DV?$ChTraitsCRT@D@ATL@@@@@ATL@@QAE@XZ

; 1243 : 	CompareNUpdateHogaData(nRow, MAEDO_JAN_COL, strText, 0, COLOR_BLACK);

  007b6	6a 00		 push	 0
  007b8	6a 00		 push	 0
  007ba	51		 push	 ecx
  007bb	8d 45 84	 lea	 eax, DWORD PTR _strText$[ebp]
  007be	8b cc		 mov	 ecx, esp
  007c0	50		 push	 eax
  007c1	ff 15 00 00 00
	00		 call	 DWORD PTR __imp_??0?$CStringT@DV?$StrTraitMFC_DLL@DV?$ChTraitsCRT@D@ATL@@@@@ATL@@QAE@ABV01@@Z
  007c7	6a 03		 push	 3
  007c9	56		 push	 esi
  007ca	8b b5 6c ff ff
	ff		 mov	 esi, DWORD PTR _this$GSCopy$1$[ebp]
  007d0	8b ce		 mov	 ecx, esi
  007d2	e8 00 00 00 00	 call	 ?CompareNUpdateHogaData@CFloatingHogaDlg@@QAEXHHV?$CStringT@DV?$StrTraitMFC_DLL@DV?$ChTraitsCRT@D@ATL@@@@@ATL@@HK@Z ; CFloatingHogaDlg::CompareNUpdateHogaData

; 1244 : 	
; 1245 : 	// 5   
; 1246 : 	nRow = m_n5HogaSumRow;		

  007d7	8b b6 d4 01 00
	00		 mov	 esi, DWORD PTR [esi+468]

; 1247 : 	sTemp1.Format("%d", n5HogaMaesuJan);

  007dd	8d 45 88	 lea	 eax, DWORD PTR _sTemp1$[ebp]
  007e0	57		 push	 edi
  007e1	68 00 00 00 00	 push	 OFFSET ??_C@_02DPKJAMEF@?$CFd@
  007e6	50		 push	 eax
  007e7	ff 15 00 00 00
	00		 call	 DWORD PTR __imp_?Format@?$CStringT@DV?$StrTraitMFC_DLL@DV?$ChTraitsCRT@D@ATL@@@@@ATL@@QAAXPBDZZ

; 1248 : 	strText = m_Util.GetComma(sTemp1);

  007ed	8b 8d 78 ff ff
	ff		 mov	 ecx, DWORD PTR tv2394[ebp]
  007f3	8d 45 8c	 lea	 eax, DWORD PTR $T46[ebp]
  007f6	83 c4 0c	 add	 esp, 12			; 0000000cH
  007f9	ff 75 88	 push	 DWORD PTR _sTemp1$[ebp]
  007fc	50		 push	 eax
  007fd	e8 00 00 00 00	 call	 ?GetComma@CUtil@@QAE?AV?$CStringT@DV?$StrTraitMFC_DLL@DV?$ChTraitsCRT@D@ATL@@@@@ATL@@PBD@Z ; CUtil::GetComma
  00802	50		 push	 eax
  00803	8d 4d 84	 lea	 ecx, DWORD PTR _strText$[ebp]
  00806	c6 45 fc 23	 mov	 BYTE PTR __$EHRec$[ebp+8], 35 ; 00000023H
  0080a	ff 15 00 00 00
	00		 call	 DWORD PTR __imp_??4?$CStringT@DV?$StrTraitMFC_DLL@DV?$ChTraitsCRT@D@ATL@@@@@ATL@@QAEAAV01@ABV01@@Z
  00810	8d 4d 8c	 lea	 ecx, DWORD PTR $T46[ebp]
  00813	c6 45 fc 09	 mov	 BYTE PTR __$EHRec$[ebp+8], 9
  00817	ff 15 00 00 00
	00		 call	 DWORD PTR __imp_??1?$CStringT@DV?$StrTraitMFC_DLL@DV?$ChTraitsCRT@D@ATL@@@@@ATL@@QAE@XZ

; 1249 : 	CompareNUpdateHogaData(nRow, MAESU_JAN_COL, strText, 0, COLOR_BLACK);

  0081d	6a 00		 push	 0
  0081f	6a 00		 push	 0
  00821	51		 push	 ecx
  00822	8d 45 84	 lea	 eax, DWORD PTR _strText$[ebp]
  00825	8b cc		 mov	 ecx, esp
  00827	50		 push	 eax
  00828	ff 15 00 00 00
	00		 call	 DWORD PTR __imp_??0?$CStringT@DV?$StrTraitMFC_DLL@DV?$ChTraitsCRT@D@ATL@@@@@ATL@@QAE@ABV01@@Z
  0082e	8b bd 6c ff ff
	ff		 mov	 edi, DWORD PTR _this$GSCopy$1$[ebp]
  00834	8b cf		 mov	 ecx, edi
  00836	6a 06		 push	 6
  00838	56		 push	 esi
  00839	e8 00 00 00 00	 call	 ?CompareNUpdateHogaData@CFloatingHogaDlg@@QAEXHHV?$CStringT@DV?$StrTraitMFC_DLL@DV?$ChTraitsCRT@D@ATL@@@@@ATL@@HK@Z ; CFloatingHogaDlg::CompareNUpdateHogaData

; 1250 : 	
; 1251 : 	//   
; 1252 : 	nRow = m_nTotalSumRow;		
; 1253 : 	strText = m_Util.GetComma(kb_01230.m_sztotofferrem);

  0083e	ff b5 00 ff ff
	ff		 push	 DWORD PTR _kb_01230$[ebp+124]
  00844	8b b7 d8 01 00
	00		 mov	 esi, DWORD PTR [edi+472]
  0084a	8d 45 8c	 lea	 eax, DWORD PTR $T45[ebp]
  0084d	50		 push	 eax
  0084e	8d 8f 84 01 00
	00		 lea	 ecx, DWORD PTR [edi+388]
  00854	e8 00 00 00 00	 call	 ?GetComma@CUtil@@QAE?AV?$CStringT@DV?$StrTraitMFC_DLL@DV?$ChTraitsCRT@D@ATL@@@@@ATL@@PBD@Z ; CUtil::GetComma
  00859	c6 45 fc 24	 mov	 BYTE PTR __$EHRec$[ebp+8], 36 ; 00000024H
  0085d	50		 push	 eax
  0085e	8d 4d 84	 lea	 ecx, DWORD PTR _strText$[ebp]
  00861	ff 15 00 00 00
	00		 call	 DWORD PTR __imp_??4?$CStringT@DV?$StrTraitMFC_DLL@DV?$ChTraitsCRT@D@ATL@@@@@ATL@@QAEAAV01@ABV01@@Z
  00867	8d 4d 8c	 lea	 ecx, DWORD PTR $T45[ebp]
  0086a	c6 45 fc 09	 mov	 BYTE PTR __$EHRec$[ebp+8], 9
  0086e	ff 15 00 00 00
	00		 call	 DWORD PTR __imp_??1?$CStringT@DV?$StrTraitMFC_DLL@DV?$ChTraitsCRT@D@ATL@@@@@ATL@@QAE@XZ

; 1254 : 	CompareNUpdateHogaData(nRow, MAEDO_JAN_COL, strText, 0, COLOR_BLACK);

  00874	6a 00		 push	 0
  00876	6a 00		 push	 0
  00878	51		 push	 ecx
  00879	8d 45 84	 lea	 eax, DWORD PTR _strText$[ebp]
  0087c	8b cc		 mov	 ecx, esp
  0087e	50		 push	 eax
  0087f	ff 15 00 00 00
	00		 call	 DWORD PTR __imp_??0?$CStringT@DV?$StrTraitMFC_DLL@DV?$ChTraitsCRT@D@ATL@@@@@ATL@@QAE@ABV01@@Z
  00885	6a 03		 push	 3
  00887	56		 push	 esi
  00888	8b cf		 mov	 ecx, edi
  0088a	e8 00 00 00 00	 call	 ?CompareNUpdateHogaData@CFloatingHogaDlg@@QAEXHHV?$CStringT@DV?$StrTraitMFC_DLL@DV?$ChTraitsCRT@D@ATL@@@@@ATL@@HK@Z ; CFloatingHogaDlg::CompareNUpdateHogaData

; 1255 : 	
; 1256 : 	//   
; 1257 : 	nRow = m_nTotalSumRow;		
; 1258 : 	strText = m_Util.GetComma(kb_01230.m_sztotbidrem);

  0088f	ff b5 04 ff ff
	ff		 push	 DWORD PTR _kb_01230$[ebp+128]
  00895	8b b7 d8 01 00
	00		 mov	 esi, DWORD PTR [edi+472]
  0089b	8d 45 8c	 lea	 eax, DWORD PTR $T44[ebp]
  0089e	50		 push	 eax
  0089f	8d 8f 84 01 00
	00		 lea	 ecx, DWORD PTR [edi+388]
  008a5	e8 00 00 00 00	 call	 ?GetComma@CUtil@@QAE?AV?$CStringT@DV?$StrTraitMFC_DLL@DV?$ChTraitsCRT@D@ATL@@@@@ATL@@PBD@Z ; CUtil::GetComma
  008aa	50		 push	 eax
  008ab	8d 4d 84	 lea	 ecx, DWORD PTR _strText$[ebp]
  008ae	c6 45 fc 25	 mov	 BYTE PTR __$EHRec$[ebp+8], 37 ; 00000025H
  008b2	ff 15 00 00 00
	00		 call	 DWORD PTR __imp_??4?$CStringT@DV?$StrTraitMFC_DLL@DV?$ChTraitsCRT@D@ATL@@@@@ATL@@QAEAAV01@ABV01@@Z
  008b8	8d 4d 8c	 lea	 ecx, DWORD PTR $T44[ebp]
  008bb	c6 45 fc 09	 mov	 BYTE PTR __$EHRec$[ebp+8], 9
  008bf	ff 15 00 00 00
	00		 call	 DWORD PTR __imp_??1?$CStringT@DV?$StrTraitMFC_DLL@DV?$ChTraitsCRT@D@ATL@@@@@ATL@@QAE@XZ

; 1259 : 	CompareNUpdateHogaData(nRow, MAESU_JAN_COL, strText, 0, COLOR_BLACK);

  008c5	6a 00		 push	 0
  008c7	6a 00		 push	 0
  008c9	51		 push	 ecx
  008ca	8d 45 84	 lea	 eax, DWORD PTR _strText$[ebp]
  008cd	8b cc		 mov	 ecx, esp
  008cf	50		 push	 eax
  008d0	ff 15 00 00 00
	00		 call	 DWORD PTR __imp_??0?$CStringT@DV?$StrTraitMFC_DLL@DV?$ChTraitsCRT@D@ATL@@@@@ATL@@QAE@ABV01@@Z
  008d6	6a 06		 push	 6
  008d8	56		 push	 esi
  008d9	8b cf		 mov	 ecx, edi
  008db	e8 00 00 00 00	 call	 ?CompareNUpdateHogaData@CFloatingHogaDlg@@QAEXHHV?$CStringT@DV?$StrTraitMFC_DLL@DV?$ChTraitsCRT@D@ATL@@@@@ATL@@HK@Z ; CFloatingHogaDlg::CompareNUpdateHogaData

; 1260 : 
; 1261 : 	//  
; 1262 : 	nRow = m_nExtraVolRow;		
; 1263 : 	strText = m_Util.GetComma(kb_01230.m_sztmofferrem);

  008e0	ff b5 08 ff ff
	ff		 push	 DWORD PTR _kb_01230$[ebp+132]
  008e6	8b b7 dc 01 00
	00		 mov	 esi, DWORD PTR [edi+476]
  008ec	8d 45 8c	 lea	 eax, DWORD PTR $T43[ebp]
  008ef	50		 push	 eax
  008f0	8d 8f 84 01 00
	00		 lea	 ecx, DWORD PTR [edi+388]
  008f6	e8 00 00 00 00	 call	 ?GetComma@CUtil@@QAE?AV?$CStringT@DV?$StrTraitMFC_DLL@DV?$ChTraitsCRT@D@ATL@@@@@ATL@@PBD@Z ; CUtil::GetComma
  008fb	50		 push	 eax
  008fc	8d 4d 84	 lea	 ecx, DWORD PTR _strText$[ebp]
  008ff	c6 45 fc 26	 mov	 BYTE PTR __$EHRec$[ebp+8], 38 ; 00000026H
  00903	ff 15 00 00 00
	00		 call	 DWORD PTR __imp_??4?$CStringT@DV?$StrTraitMFC_DLL@DV?$ChTraitsCRT@D@ATL@@@@@ATL@@QAEAAV01@ABV01@@Z
  00909	8d 4d 8c	 lea	 ecx, DWORD PTR $T43[ebp]
  0090c	c6 45 fc 09	 mov	 BYTE PTR __$EHRec$[ebp+8], 9
  00910	ff 15 00 00 00
	00		 call	 DWORD PTR __imp_??1?$CStringT@DV?$StrTraitMFC_DLL@DV?$ChTraitsCRT@D@ATL@@@@@ATL@@QAE@XZ

; 1264 : 	CompareNUpdateHogaData(nRow, MAEDO_JAN_COL, strText, 0, COLOR_BLACK);

  00916	6a 00		 push	 0
  00918	6a 00		 push	 0
  0091a	51		 push	 ecx
  0091b	8d 45 84	 lea	 eax, DWORD PTR _strText$[ebp]
  0091e	8b cc		 mov	 ecx, esp
  00920	50		 push	 eax
  00921	ff 15 00 00 00
	00		 call	 DWORD PTR __imp_??0?$CStringT@DV?$StrTraitMFC_DLL@DV?$ChTraitsCRT@D@ATL@@@@@ATL@@QAE@ABV01@@Z
  00927	6a 03		 push	 3
  00929	56		 push	 esi
  0092a	8b cf		 mov	 ecx, edi
  0092c	e8 00 00 00 00	 call	 ?CompareNUpdateHogaData@CFloatingHogaDlg@@QAEXHHV?$CStringT@DV?$StrTraitMFC_DLL@DV?$ChTraitsCRT@D@ATL@@@@@ATL@@HK@Z ; CFloatingHogaDlg::CompareNUpdateHogaData

; 1265 : 	
; 1266 : 	//  
; 1267 : 	nRow = m_nExtraVolRow;		
; 1268 : 	strText = m_Util.GetComma(kb_01230.m_sztmbidrem);

  00931	ff b5 0c ff ff
	ff		 push	 DWORD PTR _kb_01230$[ebp+136]
  00937	8b b7 dc 01 00
	00		 mov	 esi, DWORD PTR [edi+476]
  0093d	8d 45 8c	 lea	 eax, DWORD PTR $T42[ebp]
  00940	50		 push	 eax
  00941	8d 8f 84 01 00
	00		 lea	 ecx, DWORD PTR [edi+388]
  00947	e8 00 00 00 00	 call	 ?GetComma@CUtil@@QAE?AV?$CStringT@DV?$StrTraitMFC_DLL@DV?$ChTraitsCRT@D@ATL@@@@@ATL@@PBD@Z ; CUtil::GetComma
  0094c	50		 push	 eax
  0094d	8d 4d 84	 lea	 ecx, DWORD PTR _strText$[ebp]
  00950	c6 45 fc 27	 mov	 BYTE PTR __$EHRec$[ebp+8], 39 ; 00000027H
  00954	ff 15 00 00 00
	00		 call	 DWORD PTR __imp_??4?$CStringT@DV?$StrTraitMFC_DLL@DV?$ChTraitsCRT@D@ATL@@@@@ATL@@QAEAAV01@ABV01@@Z
  0095a	8d 4d 8c	 lea	 ecx, DWORD PTR $T42[ebp]
  0095d	c6 45 fc 09	 mov	 BYTE PTR __$EHRec$[ebp+8], 9
  00961	ff 15 00 00 00
	00		 call	 DWORD PTR __imp_??1?$CStringT@DV?$StrTraitMFC_DLL@DV?$ChTraitsCRT@D@ATL@@@@@ATL@@QAE@XZ

; 1269 : 	CompareNUpdateHogaData(nRow, MAESU_JAN_COL, strText, 0, COLOR_BLACK);

  00967	6a 00		 push	 0
  00969	6a 00		 push	 0
  0096b	51		 push	 ecx
  0096c	8d 45 84	 lea	 eax, DWORD PTR _strText$[ebp]
  0096f	8b cc		 mov	 ecx, esp
  00971	50		 push	 eax
  00972	ff 15 00 00 00
	00		 call	 DWORD PTR __imp_??0?$CStringT@DV?$StrTraitMFC_DLL@DV?$ChTraitsCRT@D@ATL@@@@@ATL@@QAE@ABV01@@Z
  00978	6a 06		 push	 6
  0097a	56		 push	 esi
  0097b	8b cf		 mov	 ecx, edi
  0097d	e8 00 00 00 00	 call	 ?CompareNUpdateHogaData@CFloatingHogaDlg@@QAEXHHV?$CStringT@DV?$StrTraitMFC_DLL@DV?$ChTraitsCRT@D@ATL@@@@@ATL@@HK@Z ; CFloatingHogaDlg::CompareNUpdateHogaData

; 1270 : 	// <<---------------------------------------------------------------------------------------------
; 1271 : 	
; 1272 : 	// 
; 1273 : 	strExpRate.Format("%s", kb_01230.m_szyerate);

  00982	ff b5 18 ff ff
	ff		 push	 DWORD PTR _kb_01230$[ebp+148]
  00988	8d 85 54 ff ff
	ff		 lea	 eax, DWORD PTR _strExpRate$[ebp]
  0098e	68 00 00 00 00	 push	 OFFSET ??_C@_02DKCKIIND@?$CFs@
  00993	50		 push	 eax
  00994	ff 15 00 00 00
	00		 call	 DWORD PTR __imp_?Format@?$CStringT@DV?$StrTraitMFC_DLL@DV?$ChTraitsCRT@D@ATL@@@@@ATL@@QAAXPBDZZ
  0099a	83 c4 0c	 add	 esp, 12			; 0000000cH

; 1274 : 
; 1275 : 	// 
; 1276 : 	strSHigh = m_Util.GetComma(kb_01230.m_szhigh);

  0099d	8d 45 8c	 lea	 eax, DWORD PTR $T41[ebp]
  009a0	8d 8f 84 01 00
	00		 lea	 ecx, DWORD PTR [edi+388]
  009a6	ff b5 1c ff ff
	ff		 push	 DWORD PTR _kb_01230$[ebp+152]
  009ac	50		 push	 eax
  009ad	e8 00 00 00 00	 call	 ?GetComma@CUtil@@QAE?AV?$CStringT@DV?$StrTraitMFC_DLL@DV?$ChTraitsCRT@D@ATL@@@@@ATL@@PBD@Z ; CUtil::GetComma
  009b2	50		 push	 eax
  009b3	8d 8d 40 ff ff
	ff		 lea	 ecx, DWORD PTR _strSHigh$[ebp]
  009b9	c6 45 fc 28	 mov	 BYTE PTR __$EHRec$[ebp+8], 40 ; 00000028H
  009bd	ff 15 00 00 00
	00		 call	 DWORD PTR __imp_??4?$CStringT@DV?$StrTraitMFC_DLL@DV?$ChTraitsCRT@D@ATL@@@@@ATL@@QAEAAV01@ABV01@@Z
  009c3	8d 4d 8c	 lea	 ecx, DWORD PTR $T41[ebp]
  009c6	c6 45 fc 09	 mov	 BYTE PTR __$EHRec$[ebp+8], 9
  009ca	ff 15 00 00 00
	00		 call	 DWORD PTR __imp_??1?$CStringT@DV?$StrTraitMFC_DLL@DV?$ChTraitsCRT@D@ATL@@@@@ATL@@QAE@XZ

; 1277 : 	
; 1278 : 	// 
; 1279 : 	strSLow = m_Util.GetComma(kb_01230.m_szlow);	

  009d0	ff b5 20 ff ff
	ff		 push	 DWORD PTR _kb_01230$[ebp+156]
  009d6	8d 45 8c	 lea	 eax, DWORD PTR $T40[ebp]
  009d9	50		 push	 eax
  009da	8d 8f 84 01 00
	00		 lea	 ecx, DWORD PTR [edi+388]
  009e0	e8 00 00 00 00	 call	 ?GetComma@CUtil@@QAE?AV?$CStringT@DV?$StrTraitMFC_DLL@DV?$ChTraitsCRT@D@ATL@@@@@ATL@@PBD@Z ; CUtil::GetComma
  009e5	50		 push	 eax
  009e6	8d 8d 44 ff ff
	ff		 lea	 ecx, DWORD PTR _strSLow$[ebp]
  009ec	c6 45 fc 29	 mov	 BYTE PTR __$EHRec$[ebp+8], 41 ; 00000029H
  009f0	ff 15 00 00 00
	00		 call	 DWORD PTR __imp_??4?$CStringT@DV?$StrTraitMFC_DLL@DV?$ChTraitsCRT@D@ATL@@@@@ATL@@QAEAAV01@ABV01@@Z
  009f6	8d 4d 8c	 lea	 ecx, DWORD PTR $T40[ebp]
  009f9	c6 45 fc 09	 mov	 BYTE PTR __$EHRec$[ebp+8], 9
  009fd	ff 15 00 00 00
	00		 call	 DWORD PTR __imp_??1?$CStringT@DV?$StrTraitMFC_DLL@DV?$ChTraitsCRT@D@ATL@@@@@ATL@@QAE@XZ

; 1280 : 
; 1281 : 	// ***** 10   *****
; 1282 : 	int nHogaData[TENHOGA_SAVED_CNT] = {0,};

  00a03	6a 60		 push	 96			; 00000060H
  00a05	8d 45 90	 lea	 eax, DWORD PTR _nHogaData$[ebp]
  00a08	6a 00		 push	 0
  00a0a	50		 push	 eax
  00a0b	e8 00 00 00 00	 call	 _memset
  00a10	83 c4 0c	 add	 esp, 12			; 0000000cH

; 1283 : 	if (m_bIsTenHoga == TRUE)

  00a13	83 bf c0 01 00
	00 01		 cmp	 DWORD PTR [edi+448], 1
  00a1a	0f 85 e9 00 00
	00		 jne	 $LN273@SetHogaDat

; 1284 : 	{
; 1285 : 		m_10HogaData.nHighLimit = m_nHighLimit;

  00a20	8b 87 ec 01 00
	00		 mov	 eax, DWORD PTR [edi+492]

; 1286 : 		
; 1287 : 		sTemp1 = m_pGridCtrl->GetItemText(ETC_HOGAUP_ROW, HOGA_COL);	sTemp1.Remove(',');

  00a26	8b 8f cc 00 00
	00		 mov	 ecx, DWORD PTR [edi+204]
  00a2c	6a 04		 push	 4
  00a2e	89 87 24 01 00
	00		 mov	 DWORD PTR [edi+292], eax
  00a34	8d 45 8c	 lea	 eax, DWORD PTR $T39[ebp]
  00a37	6a 03		 push	 3
  00a39	50		 push	 eax
  00a3a	e8 00 00 00 00	 call	 ?GetItemText@CExGridCtrl@@QAE?AV?$CStringT@DV?$StrTraitMFC_DLL@DV?$ChTraitsCRT@D@ATL@@@@@ATL@@HH@Z ; CExGridCtrl::GetItemText
  00a3f	50		 push	 eax
  00a40	8d 4d 88	 lea	 ecx, DWORD PTR _sTemp1$[ebp]
  00a43	c6 45 fc 2a	 mov	 BYTE PTR __$EHRec$[ebp+8], 42 ; 0000002aH
  00a47	ff 15 00 00 00
	00		 call	 DWORD PTR __imp_??4?$CStringT@DV?$StrTraitMFC_DLL@DV?$ChTraitsCRT@D@ATL@@@@@ATL@@QAEAAV01@ABV01@@Z
  00a4d	8d 4d 8c	 lea	 ecx, DWORD PTR $T39[ebp]
  00a50	c6 45 fc 09	 mov	 BYTE PTR __$EHRec$[ebp+8], 9
  00a54	ff 15 00 00 00
	00		 call	 DWORD PTR __imp_??1?$CStringT@DV?$StrTraitMFC_DLL@DV?$ChTraitsCRT@D@ATL@@@@@ATL@@QAE@XZ
  00a5a	6a 2c		 push	 44			; 0000002cH
  00a5c	8d 4d 88	 lea	 ecx, DWORD PTR _sTemp1$[ebp]
  00a5f	ff 15 00 00 00
	00		 call	 DWORD PTR __imp_?Remove@?$CStringT@DV?$StrTraitMFC_DLL@DV?$ChTraitsCRT@D@ATL@@@@@ATL@@QAEHD@Z

; 1288 : 		m_10HogaData.nExtraUp = atoi(sTemp1);

  00a65	ff 75 88	 push	 DWORD PTR _sTemp1$[ebp]
  00a68	8b 35 00 00 00
	00		 mov	 esi, DWORD PTR __imp__atoi
  00a6e	ff d6		 call	 esi

; 1289 : 		
; 1290 : 		sTemp1 = m_pGridCtrl->GetItemText(m_nLowLimitRow-1, HOGA_COL);	sTemp1.Remove(',');

  00a70	8b 8f cc 00 00
	00		 mov	 ecx, DWORD PTR [edi+204]
  00a76	83 c4 04	 add	 esp, 4
  00a79	89 87 28 01 00
	00		 mov	 DWORD PTR [edi+296], eax
  00a7f	8b 87 d0 01 00
	00		 mov	 eax, DWORD PTR [edi+464]
  00a85	48		 dec	 eax
  00a86	6a 04		 push	 4
  00a88	50		 push	 eax
  00a89	8d 45 8c	 lea	 eax, DWORD PTR $T38[ebp]
  00a8c	50		 push	 eax
  00a8d	e8 00 00 00 00	 call	 ?GetItemText@CExGridCtrl@@QAE?AV?$CStringT@DV?$StrTraitMFC_DLL@DV?$ChTraitsCRT@D@ATL@@@@@ATL@@HH@Z ; CExGridCtrl::GetItemText
  00a92	50		 push	 eax
  00a93	8d 4d 88	 lea	 ecx, DWORD PTR _sTemp1$[ebp]
  00a96	c6 45 fc 2b	 mov	 BYTE PTR __$EHRec$[ebp+8], 43 ; 0000002bH
  00a9a	ff 15 00 00 00
	00		 call	 DWORD PTR __imp_??4?$CStringT@DV?$StrTraitMFC_DLL@DV?$ChTraitsCRT@D@ATL@@@@@ATL@@QAEAAV01@ABV01@@Z
  00aa0	8d 4d 8c	 lea	 ecx, DWORD PTR $T38[ebp]
  00aa3	c6 45 fc 09	 mov	 BYTE PTR __$EHRec$[ebp+8], 9
  00aa7	ff 15 00 00 00
	00		 call	 DWORD PTR __imp_??1?$CStringT@DV?$StrTraitMFC_DLL@DV?$ChTraitsCRT@D@ATL@@@@@ATL@@QAE@XZ
  00aad	6a 2c		 push	 44			; 0000002cH
  00aaf	8d 4d 88	 lea	 ecx, DWORD PTR _sTemp1$[ebp]
  00ab2	ff 15 00 00 00
	00		 call	 DWORD PTR __imp_?Remove@?$CStringT@DV?$StrTraitMFC_DLL@DV?$ChTraitsCRT@D@ATL@@@@@ATL@@QAEHD@Z

; 1291 : 		m_10HogaData.nExtraDown = atoi(sTemp1);

  00ab8	ff 75 88	 push	 DWORD PTR _sTemp1$[ebp]
  00abb	ff d6		 call	 esi
  00abd	89 87 7c 01 00
	00		 mov	 DWORD PTR [edi+380], eax
  00ac3	83 c4 04	 add	 esp, 4

; 1292 : 		
; 1293 : 		m_10HogaData.nLowLimit = m_nLowLimit;

  00ac6	8b 87 f0 01 00
	00		 mov	 eax, DWORD PTR [edi+496]
  00acc	89 87 80 01 00
	00		 mov	 DWORD PTR [edi+384], eax

; 1294 : 
; 1295 : 		memcpy(nHogaData, &m_10HogaData, TEN_HOGADATA_SIZE);

  00ad2	8d 87 24 01 00
	00		 lea	 eax, DWORD PTR [edi+292]
  00ad8	0f 10 00	 movups	 xmm0, XMMWORD PTR [eax]
  00adb	0f 11 45 90	 movups	 XMMWORD PTR _nHogaData$[ebp], xmm0
  00adf	0f 10 40 10	 movups	 xmm0, XMMWORD PTR [eax+16]
  00ae3	0f 11 45 a0	 movups	 XMMWORD PTR _nHogaData$[ebp+16], xmm0
  00ae7	0f 10 40 20	 movups	 xmm0, XMMWORD PTR [eax+32]
  00aeb	0f 11 45 b0	 movups	 XMMWORD PTR _nHogaData$[ebp+32], xmm0
  00aef	0f 10 40 30	 movups	 xmm0, XMMWORD PTR [eax+48]
  00af3	0f 11 45 c0	 movups	 XMMWORD PTR _nHogaData$[ebp+48], xmm0
  00af7	0f 10 40 40	 movups	 xmm0, XMMWORD PTR [eax+64]
  00afb	0f 11 45 d0	 movups	 XMMWORD PTR _nHogaData$[ebp+64], xmm0
  00aff	0f 10 40 50	 movups	 xmm0, XMMWORD PTR [eax+80]
  00b03	0f 11 45 e0	 movups	 XMMWORD PTR _nHogaData$[ebp+80], xmm0
  00b07	eb 06		 jmp	 SHORT $LN11@SetHogaDat
$LN273@SetHogaDat:

; 1283 : 	if (m_bIsTenHoga == TRUE)

  00b09	8b 35 00 00 00
	00		 mov	 esi, DWORD PTR __imp__atoi
$LN11@SetHogaDat:

; 1296 : 	}
; 1297 : 	//*********************************
; 1298 : 
; 1299 : 
; 1300 : 	// ********************************************************************
; 1301 : 	//     
; 1302 : 	// *********************
; 1303 : 	CString strSign, strChange, strChangeRate;

  00b0f	8d 8d 48 ff ff
	ff		 lea	 ecx, DWORD PTR _strSign$[ebp]
  00b15	ff 15 00 00 00
	00		 call	 DWORD PTR __imp_??0?$CStringT@DV?$StrTraitMFC_DLL@DV?$ChTraitsCRT@D@ATL@@@@@ATL@@QAE@XZ
  00b1b	8d 8d 60 ff ff
	ff		 lea	 ecx, DWORD PTR _strChange$[ebp]
  00b21	ff 15 00 00 00
	00		 call	 DWORD PTR __imp_??0?$CStringT@DV?$StrTraitMFC_DLL@DV?$ChTraitsCRT@D@ATL@@@@@ATL@@QAE@XZ
  00b27	8d 8d 64 ff ff
	ff		 lea	 ecx, DWORD PTR _strChangeRate$[ebp]
  00b2d	ff 15 00 00 00
	00		 call	 DWORD PTR __imp_??0?$CStringT@DV?$StrTraitMFC_DLL@DV?$ChTraitsCRT@D@ATL@@@@@ATL@@QAE@XZ

; 1304 : 	CString strSVol, strSPrice;

  00b33	8d 8d 4c ff ff
	ff		 lea	 ecx, DWORD PTR _strSVol$[ebp]
  00b39	ff 15 00 00 00
	00		 call	 DWORD PTR __imp_??0?$CStringT@DV?$StrTraitMFC_DLL@DV?$ChTraitsCRT@D@ATL@@@@@ATL@@QAE@XZ
  00b3f	8d 8d 50 ff ff
	ff		 lea	 ecx, DWORD PTR _strSPrice$[ebp]
  00b45	ff 15 00 00 00
	00		 call	 DWORD PTR __imp_??0?$CStringT@DV?$StrTraitMFC_DLL@DV?$ChTraitsCRT@D@ATL@@@@@ATL@@QAE@XZ

; 1305 : 	COLORREF clrChange;
; 1306 : 	
; 1307 : 	// 
; 1308 : 	sTemp1.Format("%1.1s", kb_01230.m_szsign);		sTemp1.TrimLeft();		sTemp1.TrimRight();

  00b4b	ff b5 9c fe ff
	ff		 push	 DWORD PTR _kb_01230$[ebp+24]
  00b51	8d 45 88	 lea	 eax, DWORD PTR _sTemp1$[ebp]
  00b54	c6 45 fc 30	 mov	 BYTE PTR __$EHRec$[ebp+8], 48 ; 00000030H
  00b58	68 00 00 00 00	 push	 OFFSET ??_C@_05OEELCGHA@?$CF1?41s@
  00b5d	50		 push	 eax
  00b5e	ff 15 00 00 00
	00		 call	 DWORD PTR __imp_?Format@?$CStringT@DV?$StrTraitMFC_DLL@DV?$ChTraitsCRT@D@ATL@@@@@ATL@@QAAXPBDZZ
  00b64	83 c4 0c	 add	 esp, 12			; 0000000cH
  00b67	8d 4d 88	 lea	 ecx, DWORD PTR _sTemp1$[ebp]
  00b6a	ff 15 00 00 00
	00		 call	 DWORD PTR __imp_?TrimLeft@?$CStringT@DV?$StrTraitMFC_DLL@DV?$ChTraitsCRT@D@ATL@@@@@ATL@@QAEAAV12@XZ
  00b70	8d 4d 88	 lea	 ecx, DWORD PTR _sTemp1$[ebp]
  00b73	ff 15 00 00 00
	00		 call	 DWORD PTR __imp_?TrimRight@?$CStringT@DV?$StrTraitMFC_DLL@DV?$ChTraitsCRT@D@ATL@@@@@ATL@@QAEAAV12@XZ

; 1309 : 	strSign = kb_01230.m_szsign;

  00b79	8d 85 9c fe ff
	ff		 lea	 eax, DWORD PTR _kb_01230$[ebp+24]
  00b7f	50		 push	 eax
  00b80	8d 8d 48 ff ff
	ff		 lea	 ecx, DWORD PTR _strSign$[ebp]
  00b86	ff 15 00 00 00
	00		 call	 DWORD PTR __imp_??4?$CStringT@DV?$StrTraitMFC_DLL@DV?$ChTraitsCRT@D@ATL@@@@@ATL@@QAEAAV01@ABV01@@Z

; 1310 : 	int nSign = atoi(kb_01230.m_szsign);

  00b8c	ff b5 9c fe ff
	ff		 push	 DWORD PTR _kb_01230$[ebp+24]
  00b92	ff d6		 call	 esi
  00b94	83 c4 04	 add	 esp, 4

; 1311 : 	
; 1312 : 	// 
; 1313 : 	sTemp1 = kb_01230.m_szchange;

  00b97	8d 4d 88	 lea	 ecx, DWORD PTR _sTemp1$[ebp]
  00b9a	8b f0		 mov	 esi, eax
  00b9c	8d 85 a0 fe ff
	ff		 lea	 eax, DWORD PTR _kb_01230$[ebp+28]
  00ba2	50		 push	 eax
  00ba3	ff 15 00 00 00
	00		 call	 DWORD PTR __imp_??4?$CStringT@DV?$StrTraitMFC_DLL@DV?$ChTraitsCRT@D@ATL@@@@@ATL@@QAEAAV01@ABV01@@Z

; 1314 : 	sTemp1.Remove('-');

  00ba9	6a 2d		 push	 45			; 0000002dH
  00bab	8d 4d 88	 lea	 ecx, DWORD PTR _sTemp1$[ebp]
  00bae	ff 15 00 00 00
	00		 call	 DWORD PTR __imp_?Remove@?$CStringT@DV?$StrTraitMFC_DLL@DV?$ChTraitsCRT@D@ATL@@@@@ATL@@QAEHD@Z

; 1315 : 	strChange = m_Util.GetComma(sTemp1);

  00bb4	ff 75 88	 push	 DWORD PTR _sTemp1$[ebp]
  00bb7	8d 45 8c	 lea	 eax, DWORD PTR $T37[ebp]
  00bba	50		 push	 eax
  00bbb	8d 8f 84 01 00
	00		 lea	 ecx, DWORD PTR [edi+388]
  00bc1	e8 00 00 00 00	 call	 ?GetComma@CUtil@@QAE?AV?$CStringT@DV?$StrTraitMFC_DLL@DV?$ChTraitsCRT@D@ATL@@@@@ATL@@PBD@Z ; CUtil::GetComma
  00bc6	50		 push	 eax
  00bc7	8d 8d 60 ff ff
	ff		 lea	 ecx, DWORD PTR _strChange$[ebp]
  00bcd	c6 45 fc 31	 mov	 BYTE PTR __$EHRec$[ebp+8], 49 ; 00000031H
  00bd1	ff 15 00 00 00
	00		 call	 DWORD PTR __imp_??4?$CStringT@DV?$StrTraitMFC_DLL@DV?$ChTraitsCRT@D@ATL@@@@@ATL@@QAEAAV01@ABV01@@Z
  00bd7	8d 4d 8c	 lea	 ecx, DWORD PTR $T37[ebp]
  00bda	c6 45 fc 30	 mov	 BYTE PTR __$EHRec$[ebp+8], 48 ; 00000030H
  00bde	ff 15 00 00 00
	00		 call	 DWORD PTR __imp_??1?$CStringT@DV?$StrTraitMFC_DLL@DV?$ChTraitsCRT@D@ATL@@@@@ATL@@QAE@XZ

; 1316 : 	
; 1317 : 	sTemp1 = m_Util.GetSignSimbol(nSign);

  00be4	56		 push	 esi
  00be5	8d 45 8c	 lea	 eax, DWORD PTR $T36[ebp]
  00be8	50		 push	 eax
  00be9	8d 8f 84 01 00
	00		 lea	 ecx, DWORD PTR [edi+388]
  00bef	e8 00 00 00 00	 call	 ?GetSignSimbol@CUtil@@QAE?AV?$CStringT@DV?$StrTraitMFC_DLL@DV?$ChTraitsCRT@D@ATL@@@@@ATL@@H@Z ; CUtil::GetSignSimbol
  00bf4	50		 push	 eax
  00bf5	8d 4d 88	 lea	 ecx, DWORD PTR _sTemp1$[ebp]
  00bf8	c6 45 fc 32	 mov	 BYTE PTR __$EHRec$[ebp+8], 50 ; 00000032H
  00bfc	ff 15 00 00 00
	00		 call	 DWORD PTR __imp_??4?$CStringT@DV?$StrTraitMFC_DLL@DV?$ChTraitsCRT@D@ATL@@@@@ATL@@QAEAAV01@ABV01@@Z
  00c02	8d 4d 8c	 lea	 ecx, DWORD PTR $T36[ebp]
  00c05	ff 15 00 00 00
	00		 call	 DWORD PTR __imp_??1?$CStringT@DV?$StrTraitMFC_DLL@DV?$ChTraitsCRT@D@ATL@@@@@ATL@@QAE@XZ
; File C:\Program Files (x86)\Microsoft Visual Studio\2019\Community\VC\Tools\MSVC\14.29.30133\atlmfc\include\cstringt.h

; 2401 : 		CStringT strResult( str1.GetManager() );

  00c0b	8d 4d 88	 lea	 ecx, DWORD PTR _sTemp1$[ebp]
; File D:\git\src\IBK\IBK_DRFN\ProjSrc\SrcDrfn\Chart\MULTICHART\FloatingHogaDlg.cpp

; 1318 : 	strChange = sTemp1 + " " + strChange;

  00c0e	c6 45 fc 33	 mov	 BYTE PTR __$EHRec$[ebp+8], 51 ; 00000033H
; File C:\Program Files (x86)\Microsoft Visual Studio\2019\Community\VC\Tools\MSVC\14.29.30133\atlmfc\include\cstringt.h

; 2401 : 		CStringT strResult( str1.GetManager() );

  00c12	ff 15 00 00 00
	00		 call	 DWORD PTR __imp_?GetManager@?$CStringT@DV?$StrTraitMFC_DLL@DV?$ChTraitsCRT@D@ATL@@@@@ATL@@QBEPAUIAtlStringMgr@2@XZ
  00c18	50		 push	 eax
  00c19	8d 8d 6c ff ff
	ff		 lea	 ecx, DWORD PTR $T2[ebp]
  00c1f	ff 15 00 00 00
	00		 call	 DWORD PTR __imp_??0?$CStringT@DV?$StrTraitMFC_DLL@DV?$ChTraitsCRT@D@ATL@@@@@ATL@@QAE@PAUIAtlStringMgr@1@@Z
; File C:\Program Files (x86)\Microsoft Visual Studio\2019\Community\VC\Tools\MSVC\14.29.30133\atlmfc\include\atlsimpstr.h

; 519  : 		return( GetData()->nDataLength );

  00c25	8b 45 88	 mov	 eax, DWORD PTR _sTemp1$[ebp]
; File C:\Program Files (x86)\Microsoft Visual Studio\2019\Community\VC\Tools\MSVC\14.29.30133\atlmfc\include\cstringt.h

; 2403 : 		CThisSimpleString::Concatenate( strResult, str1, str1.GetLength(), psz2, CThisSimpleString::StringLength( psz2 ) );

  00c28	6a 01		 push	 1
  00c2a	68 00 00 00 00	 push	 OFFSET ??_C@_01CLKCMJKC@?5@

; 2404 : 
; 2405 : 		return( strResult );

  00c2f	c7 45 80 01 00
	00 00		 mov	 DWORD PTR $T24[ebp], 1
  00c36	ff 70 f4	 push	 DWORD PTR [eax-12]
  00c39	50		 push	 eax
  00c3a	8d 85 6c ff ff
	ff		 lea	 eax, DWORD PTR $T2[ebp]
  00c40	50		 push	 eax

; 2403 : 		CThisSimpleString::Concatenate( strResult, str1, str1.GetLength(), psz2, CThisSimpleString::StringLength( psz2 ) );

  00c41	ff 15 00 00 00
	00		 call	 DWORD PTR __imp_?Concatenate@?$CSimpleStringT@D$00@ATL@@KAXAAV12@PBDH1H@Z
  00c47	83 c4 14	 add	 esp, 20			; 00000014H

; 2390 : 		CStringT strResult( str1.GetManager() );

  00c4a	8d 8d 6c ff ff
	ff		 lea	 ecx, DWORD PTR $T2[ebp]
; File D:\git\src\IBK\IBK_DRFN\ProjSrc\SrcDrfn\Chart\MULTICHART\FloatingHogaDlg.cpp

; 1318 : 	strChange = sTemp1 + " " + strChange;

  00c50	c6 45 fc 34	 mov	 BYTE PTR __$EHRec$[ebp+8], 52 ; 00000034H
; File C:\Program Files (x86)\Microsoft Visual Studio\2019\Community\VC\Tools\MSVC\14.29.30133\atlmfc\include\cstringt.h

; 2390 : 		CStringT strResult( str1.GetManager() );

  00c54	ff 15 00 00 00
	00		 call	 DWORD PTR __imp_?GetManager@?$CStringT@DV?$StrTraitMFC_DLL@DV?$ChTraitsCRT@D@ATL@@@@@ATL@@QBEPAUIAtlStringMgr@2@XZ
  00c5a	50		 push	 eax
  00c5b	8d 8d 78 ff ff
	ff		 lea	 ecx, DWORD PTR $T18[ebp]
  00c61	ff 15 00 00 00
	00		 call	 DWORD PTR __imp_??0?$CStringT@DV?$StrTraitMFC_DLL@DV?$ChTraitsCRT@D@ATL@@@@@ATL@@QAE@PAUIAtlStringMgr@1@@Z
; File C:\Program Files (x86)\Microsoft Visual Studio\2019\Community\VC\Tools\MSVC\14.29.30133\atlmfc\include\atlsimpstr.h

; 519  : 		return( GetData()->nDataLength );

  00c67	8b 85 60 ff ff
	ff		 mov	 eax, DWORD PTR _strChange$[ebp]
  00c6d	8b 8d 6c ff ff
	ff		 mov	 ecx, DWORD PTR $T2[ebp]
; File C:\Program Files (x86)\Microsoft Visual Studio\2019\Community\VC\Tools\MSVC\14.29.30133\atlmfc\include\cstringt.h

; 2394 : 		return( strResult );

  00c73	c7 45 80 03 00
	00 00		 mov	 DWORD PTR $T24[ebp], 3
  00c7a	ff 70 f4	 push	 DWORD PTR [eax-12]
  00c7d	50		 push	 eax
  00c7e	ff 71 f4	 push	 DWORD PTR [ecx-12]
  00c81	8d 85 78 ff ff
	ff		 lea	 eax, DWORD PTR $T18[ebp]
  00c87	51		 push	 ecx
  00c88	50		 push	 eax
  00c89	ff 15 00 00 00
	00		 call	 DWORD PTR __imp_?Concatenate@?$CSimpleStringT@D$00@ATL@@KAXAAV12@PBDH1H@Z
  00c8f	83 c4 14	 add	 esp, 20			; 00000014H
; File D:\git\src\IBK\IBK_DRFN\ProjSrc\SrcDrfn\Chart\MULTICHART\FloatingHogaDlg.cpp

; 1318 : 	strChange = sTemp1 + " " + strChange;

  00c92	8d 85 78 ff ff
	ff		 lea	 eax, DWORD PTR $T18[ebp]
  00c98	8d 8d 60 ff ff
	ff		 lea	 ecx, DWORD PTR _strChange$[ebp]
  00c9e	50		 push	 eax
  00c9f	ff 15 00 00 00
	00		 call	 DWORD PTR __imp_??4?$CStringT@DV?$StrTraitMFC_DLL@DV?$ChTraitsCRT@D@ATL@@@@@ATL@@QAEAAV01@ABV01@@Z
  00ca5	8d 8d 78 ff ff
	ff		 lea	 ecx, DWORD PTR $T18[ebp]
  00cab	ff 15 00 00 00
	00		 call	 DWORD PTR __imp_??1?$CStringT@DV?$StrTraitMFC_DLL@DV?$ChTraitsCRT@D@ATL@@@@@ATL@@QAE@XZ
  00cb1	8d 8d 6c ff ff
	ff		 lea	 ecx, DWORD PTR $T2[ebp]
  00cb7	c6 45 fc 30	 mov	 BYTE PTR __$EHRec$[ebp+8], 48 ; 00000030H
  00cbb	ff 15 00 00 00
	00		 call	 DWORD PTR __imp_??1?$CStringT@DV?$StrTraitMFC_DLL@DV?$ChTraitsCRT@D@ATL@@@@@ATL@@QAE@XZ

; 1319 : 	
; 1320 : 	// 
; 1321 : 	sTemp1 = kb_01230.m_szrate;

  00cc1	8d 85 a4 fe ff
	ff		 lea	 eax, DWORD PTR _kb_01230$[ebp+32]
  00cc7	50		 push	 eax
  00cc8	8d 4d 88	 lea	 ecx, DWORD PTR _sTemp1$[ebp]
  00ccb	ff 15 00 00 00
	00		 call	 DWORD PTR __imp_??4?$CStringT@DV?$StrTraitMFC_DLL@DV?$ChTraitsCRT@D@ATL@@@@@ATL@@QAEAAV01@ABV01@@Z

; 1322 : 	sTemp1.Remove('-');

  00cd1	6a 2d		 push	 45			; 0000002dH
  00cd3	8d 4d 88	 lea	 ecx, DWORD PTR _sTemp1$[ebp]
  00cd6	ff 15 00 00 00
	00		 call	 DWORD PTR __imp_?Remove@?$CStringT@DV?$StrTraitMFC_DLL@DV?$ChTraitsCRT@D@ATL@@@@@ATL@@QAEHD@Z

; 1323 : 	
; 1324 : 	sTemp1.Format("%.2f", atof(sTemp1));

  00cdc	ff 75 88	 push	 DWORD PTR _sTemp1$[ebp]
  00cdf	ff 15 00 00 00
	00		 call	 DWORD PTR __imp__atof
  00ce5	51		 push	 ecx
  00ce6	dd 1c 24	 fstp	 QWORD PTR [esp]
  00ce9	8d 45 88	 lea	 eax, DWORD PTR _sTemp1$[ebp]
  00cec	68 00 00 00 00	 push	 OFFSET ??_C@_04GEFJINEE@?$CF?42f@
  00cf1	50		 push	 eax
  00cf2	ff 15 00 00 00
	00		 call	 DWORD PTR __imp_?Format@?$CStringT@DV?$StrTraitMFC_DLL@DV?$ChTraitsCRT@D@ATL@@@@@ATL@@QAAXPBDZZ
  00cf8	83 c4 10	 add	 esp, 16			; 00000010H
; File C:\Program Files (x86)\Microsoft Visual Studio\2019\Community\VC\Tools\MSVC\14.29.30133\atlmfc\include\cstringt.h

; 2401 : 		CStringT strResult( str1.GetManager() );

  00cfb	8d 4d 88	 lea	 ecx, DWORD PTR _sTemp1$[ebp]
; File D:\git\src\IBK\IBK_DRFN\ProjSrc\SrcDrfn\Chart\MULTICHART\FloatingHogaDlg.cpp

; 1325 : 	strChangeRate = sTemp1 + "%";

  00cfe	c6 45 fc 35	 mov	 BYTE PTR __$EHRec$[ebp+8], 53 ; 00000035H
; File C:\Program Files (x86)\Microsoft Visual Studio\2019\Community\VC\Tools\MSVC\14.29.30133\atlmfc\include\cstringt.h

; 2401 : 		CStringT strResult( str1.GetManager() );

  00d02	ff 15 00 00 00
	00		 call	 DWORD PTR __imp_?GetManager@?$CStringT@DV?$StrTraitMFC_DLL@DV?$ChTraitsCRT@D@ATL@@@@@ATL@@QBEPAUIAtlStringMgr@2@XZ
  00d08	50		 push	 eax
  00d09	8d 8d 78 ff ff
	ff		 lea	 ecx, DWORD PTR $T17[ebp]
  00d0f	ff 15 00 00 00
	00		 call	 DWORD PTR __imp_??0?$CStringT@DV?$StrTraitMFC_DLL@DV?$ChTraitsCRT@D@ATL@@@@@ATL@@QAE@PAUIAtlStringMgr@1@@Z
; File C:\Program Files (x86)\Microsoft Visual Studio\2019\Community\VC\Tools\MSVC\14.29.30133\atlmfc\include\atlsimpstr.h

; 519  : 		return( GetData()->nDataLength );

  00d15	8b 45 88	 mov	 eax, DWORD PTR _sTemp1$[ebp]
; File C:\Program Files (x86)\Microsoft Visual Studio\2019\Community\VC\Tools\MSVC\14.29.30133\atlmfc\include\cstringt.h

; 2403 : 		CThisSimpleString::Concatenate( strResult, str1, str1.GetLength(), psz2, CThisSimpleString::StringLength( psz2 ) );

  00d18	6a 01		 push	 1
  00d1a	68 00 00 00 00	 push	 OFFSET ??_C@_01FGNFDNOH@?$CF@

; 2404 : 
; 2405 : 		return( strResult );

  00d1f	c7 45 80 04 00
	00 00		 mov	 DWORD PTR $T24[ebp], 4
  00d26	ff 70 f4	 push	 DWORD PTR [eax-12]
  00d29	50		 push	 eax
  00d2a	8d 85 78 ff ff
	ff		 lea	 eax, DWORD PTR $T17[ebp]
  00d30	50		 push	 eax
  00d31	ff 15 00 00 00
	00		 call	 DWORD PTR __imp_?Concatenate@?$CSimpleStringT@D$00@ATL@@KAXAAV12@PBDH1H@Z
  00d37	83 c4 14	 add	 esp, 20			; 00000014H
; File D:\git\src\IBK\IBK_DRFN\ProjSrc\SrcDrfn\Chart\MULTICHART\FloatingHogaDlg.cpp

; 1325 : 	strChangeRate = sTemp1 + "%";

  00d3a	8d 85 78 ff ff
	ff		 lea	 eax, DWORD PTR $T17[ebp]
  00d40	8d 8d 64 ff ff
	ff		 lea	 ecx, DWORD PTR _strChangeRate$[ebp]
  00d46	50		 push	 eax
  00d47	ff 15 00 00 00
	00		 call	 DWORD PTR __imp_??4?$CStringT@DV?$StrTraitMFC_DLL@DV?$ChTraitsCRT@D@ATL@@@@@ATL@@QAEAAV01@ABV01@@Z
  00d4d	8d 8d 78 ff ff
	ff		 lea	 ecx, DWORD PTR $T17[ebp]
  00d53	c6 45 fc 30	 mov	 BYTE PTR __$EHRec$[ebp+8], 48 ; 00000030H
  00d57	ff 15 00 00 00
	00		 call	 DWORD PTR __imp_??1?$CStringT@DV?$StrTraitMFC_DLL@DV?$ChTraitsCRT@D@ATL@@@@@ATL@@QAE@XZ

; 1326 : 
; 1327 : 	// 
; 1328 : 	fCurVol = atoi(kb_01230.m_szvolume);

  00d5d	ff b5 a8 fe ff
	ff		 push	 DWORD PTR _kb_01230$[ebp+36]
  00d63	ff 15 00 00 00
	00		 call	 DWORD PTR __imp__atoi
  00d69	83 c4 04	 add	 esp, 4

; 1329 : 	strSVol = m_Util.GetVolUnit(kb_01230.m_szvolume);

  00d6c	8d 45 8c	 lea	 eax, DWORD PTR $T35[ebp]
  00d6f	8d 8f 84 01 00
	00		 lea	 ecx, DWORD PTR [edi+388]
  00d75	ff b5 a8 fe ff
	ff		 push	 DWORD PTR _kb_01230$[ebp+36]
  00d7b	50		 push	 eax
  00d7c	e8 00 00 00 00	 call	 ?GetVolUnit@CUtil@@QAE?AV?$CStringT@DV?$StrTraitMFC_DLL@DV?$ChTraitsCRT@D@ATL@@@@@ATL@@PBD@Z ; CUtil::GetVolUnit
  00d81	c6 45 fc 36	 mov	 BYTE PTR __$EHRec$[ebp+8], 54 ; 00000036H
  00d85	8d 8d 4c ff ff
	ff		 lea	 ecx, DWORD PTR _strSVol$[ebp]
  00d8b	50		 push	 eax
  00d8c	ff 15 00 00 00
	00		 call	 DWORD PTR __imp_??4?$CStringT@DV?$StrTraitMFC_DLL@DV?$ChTraitsCRT@D@ATL@@@@@ATL@@QAEAAV01@ABV01@@Z
  00d92	8d 4d 8c	 lea	 ecx, DWORD PTR $T35[ebp]
  00d95	c6 45 fc 30	 mov	 BYTE PTR __$EHRec$[ebp+8], 48 ; 00000030H
  00d99	ff 15 00 00 00
	00		 call	 DWORD PTR __imp_??1?$CStringT@DV?$StrTraitMFC_DLL@DV?$ChTraitsCRT@D@ATL@@@@@ATL@@QAE@XZ

; 1330 : 	
; 1331 : 	// 
; 1332 : 	strSPrice =	m_Util.GetPriceUnit(kb_01230.m_sztrade_cost);

  00d9f	ff b5 ac fe ff
	ff		 push	 DWORD PTR _kb_01230$[ebp+40]
  00da5	8d 45 8c	 lea	 eax, DWORD PTR $T34[ebp]
  00da8	50		 push	 eax
  00da9	8d 8f 84 01 00
	00		 lea	 ecx, DWORD PTR [edi+388]
  00daf	e8 00 00 00 00	 call	 ?GetPriceUnit@CUtil@@QAE?AV?$CStringT@DV?$StrTraitMFC_DLL@DV?$ChTraitsCRT@D@ATL@@@@@ATL@@PBD@Z ; CUtil::GetPriceUnit
  00db4	50		 push	 eax
  00db5	8d 8d 50 ff ff
	ff		 lea	 ecx, DWORD PTR _strSPrice$[ebp]
  00dbb	c6 45 fc 37	 mov	 BYTE PTR __$EHRec$[ebp+8], 55 ; 00000037H
  00dbf	ff 15 00 00 00
	00		 call	 DWORD PTR __imp_??4?$CStringT@DV?$StrTraitMFC_DLL@DV?$ChTraitsCRT@D@ATL@@@@@ATL@@QAEAAV01@ABV01@@Z
  00dc5	8d 4d 8c	 lea	 ecx, DWORD PTR $T34[ebp]
  00dc8	ff 15 00 00 00
	00		 call	 DWORD PTR __imp_??1?$CStringT@DV?$StrTraitMFC_DLL@DV?$ChTraitsCRT@D@ATL@@@@@ATL@@QAE@XZ

; 1333 : 
; 1334 : 	//  
; 1335 : /*
; 1336 : 	fPreVol = atoi(kb_01230.m_szjnilvolume);
; 1337 : 	m_strPreVol = kb_01230.m_szjnilvolume;
; 1338 : 	strSPreVol = m_Util.GetVolUnit(kb_01230.m_szjnilvolume);
; 1339 : 
; 1340 : 	//   %
; 1341 : 	if (fCurVol == 0 || fPreVol == 0)
; 1342 : 		strSVolPer = "";
; 1343 : 	else
; 1344 : 	{
; 1345 : 		fPercent = fCurVol * 100. / fPreVol;
; 1346 : 		sTemp1.Format("%.1f", fPercent);
; 1347 : 		strSVolPer = m_Util.GetComma(sTemp1);
; 1348 : 	}
; 1349 : */
; 1350 : 
; 1351 : 	// ####  ####
; 1352 : 	CString		strExpPrice, strExpVol;

  00dce	8d 8d 58 ff ff
	ff		 lea	 ecx, DWORD PTR _strExpPrice$[ebp]
  00dd4	ff 15 00 00 00
	00		 call	 DWORD PTR __imp_??0?$CStringT@DV?$StrTraitMFC_DLL@DV?$ChTraitsCRT@D@ATL@@@@@ATL@@QAE@XZ
  00dda	8d 8d 5c ff ff
	ff		 lea	 ecx, DWORD PTR _strExpVol$[ebp]
  00de0	ff 15 00 00 00
	00		 call	 DWORD PTR __imp_??0?$CStringT@DV?$StrTraitMFC_DLL@DV?$ChTraitsCRT@D@ATL@@@@@ATL@@QAE@XZ

; 1353 : 	CString		strPrice, strPrePrice;

  00de6	8d 8d 68 ff ff
	ff		 lea	 ecx, DWORD PTR _strPrice$[ebp]
  00dec	ff 15 00 00 00
	00		 call	 DWORD PTR __imp_??0?$CStringT@DV?$StrTraitMFC_DLL@DV?$ChTraitsCRT@D@ATL@@@@@ATL@@QAE@XZ
  00df2	8d 8d 3c ff ff
	ff		 lea	 ecx, DWORD PTR _strPrePrice$[ebp]
  00df8	ff 15 00 00 00
	00		 call	 DWORD PTR __imp_??0?$CStringT@DV?$StrTraitMFC_DLL@DV?$ChTraitsCRT@D@ATL@@@@@ATL@@QAE@XZ

; 1354 : 	long		lChange=0, lPrice=0;
; 1355 : 	
; 1356 : 	m_chSign = kb_01230.m_szsign[0];

  00dfe	6a 00		 push	 0
  00e00	8d 8d 9c fe ff
	ff		 lea	 ecx, DWORD PTR _kb_01230$[ebp+24]
  00e06	c6 45 fc 3b	 mov	 BYTE PTR __$EHRec$[ebp+8], 59 ; 0000003bH
  00e0a	ff 15 00 00 00
	00		 call	 DWORD PTR __imp_??A?$CSimpleStringT@D$00@ATL@@QBEDH@Z

; 1357 : //>> [QC No]090803HMC075
; 1358 : //	int nSign = atoi(kb_01230.m_szsign);
; 1359 : 	int nYSign = atoi(kb_01230.m_szjnilysign);

  00e10	ff b5 28 ff ff
	ff		 push	 DWORD PTR _kb_01230$[ebp+164]
  00e16	88 87 14 02 00
	00		 mov	 BYTE PTR [edi+532], al
  00e1c	ff 15 00 00 00
	00		 call	 DWORD PTR __imp__atoi
  00e22	83 c4 04	 add	 esp, 4
  00e25	89 85 74 ff ff
	ff		 mov	 DWORD PTR _nYSign$1$[ebp], eax

; 1360 : //<< [QC No]090803HMC075
; 1361 : //	if(m_chSign == '9')
; 1362 : 	{
; 1363 : 		//  
; 1364 : 		strPrice = kb_01230.m_szyeprice;

  00e2b	8d 85 8c fe ff
	ff		 lea	 eax, DWORD PTR _kb_01230$[ebp+8]
  00e31	8d 8d 68 ff ff
	ff		 lea	 ecx, DWORD PTR _strPrice$[ebp]
  00e37	50		 push	 eax
  00e38	ff 15 00 00 00
	00		 call	 DWORD PTR __imp_??4?$CStringT@DV?$StrTraitMFC_DLL@DV?$ChTraitsCRT@D@ATL@@@@@ATL@@QAEAAV01@ABV01@@Z

; 1365 : 
; 1366 : 		strExpPrice = /*"*" + */m_Util.GetComma(strPrice);

  00e3e	ff b5 68 ff ff
	ff		 push	 DWORD PTR _strPrice$[ebp]
  00e44	8d 45 8c	 lea	 eax, DWORD PTR $T33[ebp]
  00e47	50		 push	 eax
  00e48	8d 8f 84 01 00
	00		 lea	 ecx, DWORD PTR [edi+388]
  00e4e	e8 00 00 00 00	 call	 ?GetComma@CUtil@@QAE?AV?$CStringT@DV?$StrTraitMFC_DLL@DV?$ChTraitsCRT@D@ATL@@@@@ATL@@PBD@Z ; CUtil::GetComma
  00e53	50		 push	 eax
  00e54	8d 8d 58 ff ff
	ff		 lea	 ecx, DWORD PTR _strExpPrice$[ebp]
  00e5a	c6 45 fc 3c	 mov	 BYTE PTR __$EHRec$[ebp+8], 60 ; 0000003cH
  00e5e	ff 15 00 00 00
	00		 call	 DWORD PTR __imp_??4?$CStringT@DV?$StrTraitMFC_DLL@DV?$ChTraitsCRT@D@ATL@@@@@ATL@@QAEAAV01@ABV01@@Z
  00e64	8d 4d 8c	 lea	 ecx, DWORD PTR $T33[ebp]
  00e67	c6 45 fc 3b	 mov	 BYTE PTR __$EHRec$[ebp+8], 59 ; 0000003bH
  00e6b	ff 15 00 00 00
	00		 call	 DWORD PTR __imp_??1?$CStringT@DV?$StrTraitMFC_DLL@DV?$ChTraitsCRT@D@ATL@@@@@ATL@@QAE@XZ

; 1368 : 		strExpVol = m_Util.GetComma(kb_01230.m_szyevolume) + "";

  00e71	ff b5 90 fe ff
	ff		 push	 DWORD PTR _kb_01230$[ebp+12]
  00e77	8d 45 8c	 lea	 eax, DWORD PTR $T32[ebp]
  00e7a	50		 push	 eax
  00e7b	8d 8f 84 01 00
	00		 lea	 ecx, DWORD PTR [edi+388]
  00e81	e8 00 00 00 00	 call	 ?GetComma@CUtil@@QAE?AV?$CStringT@DV?$StrTraitMFC_DLL@DV?$ChTraitsCRT@D@ATL@@@@@ATL@@PBD@Z ; CUtil::GetComma
  00e86	8b f0		 mov	 esi, eax
; File C:\Program Files (x86)\Microsoft Visual Studio\2019\Community\VC\Tools\MSVC\14.29.30133\atlmfc\include\cstringt.h

; 2401 : 		CStringT strResult( str1.GetManager() );

  00e88	8b ce		 mov	 ecx, esi
; File D:\git\src\IBK\IBK_DRFN\ProjSrc\SrcDrfn\Chart\MULTICHART\FloatingHogaDlg.cpp

; 1368 : 		strExpVol = m_Util.GetComma(kb_01230.m_szyevolume) + "";

  00e8a	c6 45 fc 3e	 mov	 BYTE PTR __$EHRec$[ebp+8], 62 ; 0000003eH
; File C:\Program Files (x86)\Microsoft Visual Studio\2019\Community\VC\Tools\MSVC\14.29.30133\atlmfc\include\cstringt.h

; 2401 : 		CStringT strResult( str1.GetManager() );

  00e8e	ff 15 00 00 00
	00		 call	 DWORD PTR __imp_?GetManager@?$CStringT@DV?$StrTraitMFC_DLL@DV?$ChTraitsCRT@D@ATL@@@@@ATL@@QBEPAUIAtlStringMgr@2@XZ
  00e94	50		 push	 eax
  00e95	8d 8d 78 ff ff
	ff		 lea	 ecx, DWORD PTR $T16[ebp]
  00e9b	ff 15 00 00 00
	00		 call	 DWORD PTR __imp_??0?$CStringT@DV?$StrTraitMFC_DLL@DV?$ChTraitsCRT@D@ATL@@@@@ATL@@QAE@PAUIAtlStringMgr@1@@Z
; File C:\Program Files (x86)\Microsoft Visual Studio\2019\Community\VC\Tools\MSVC\14.29.30133\atlmfc\include\atlsimpstr.h

; 519  : 		return( GetData()->nDataLength );

  00ea1	8b 06		 mov	 eax, DWORD PTR [esi]
; File C:\Program Files (x86)\Microsoft Visual Studio\2019\Community\VC\Tools\MSVC\14.29.30133\atlmfc\include\cstringt.h

; 2403 : 		CThisSimpleString::Concatenate( strResult, str1, str1.GetLength(), psz2, CThisSimpleString::StringLength( psz2 ) );

  00ea3	6a 02		 push	 2
  00ea5	68 00 00 00 00	 push	 OFFSET ??_C@_02EHLBLIAD@?A?V@

; 2404 : 
; 2405 : 		return( strResult );

  00eaa	c7 45 80 08 00
	00 00		 mov	 DWORD PTR $T24[ebp], 8
  00eb1	ff 70 f4	 push	 DWORD PTR [eax-12]
  00eb4	50		 push	 eax
  00eb5	8d 85 78 ff ff
	ff		 lea	 eax, DWORD PTR $T16[ebp]
  00ebb	50		 push	 eax
  00ebc	ff 15 00 00 00
	00		 call	 DWORD PTR __imp_?Concatenate@?$CSimpleStringT@D$00@ATL@@KAXAAV12@PBDH1H@Z
  00ec2	83 c4 14	 add	 esp, 20			; 00000014H
; File D:\git\src\IBK\IBK_DRFN\ProjSrc\SrcDrfn\Chart\MULTICHART\FloatingHogaDlg.cpp

; 1368 : 		strExpVol = m_Util.GetComma(kb_01230.m_szyevolume) + "";

  00ec5	8d 85 78 ff ff
	ff		 lea	 eax, DWORD PTR $T16[ebp]
  00ecb	8d 8d 5c ff ff
	ff		 lea	 ecx, DWORD PTR _strExpVol$[ebp]
  00ed1	50		 push	 eax
  00ed2	ff 15 00 00 00
	00		 call	 DWORD PTR __imp_??4?$CStringT@DV?$StrTraitMFC_DLL@DV?$ChTraitsCRT@D@ATL@@@@@ATL@@QAEAAV01@ABV01@@Z
  00ed8	8d 8d 78 ff ff
	ff		 lea	 ecx, DWORD PTR $T16[ebp]
  00ede	ff 15 00 00 00
	00		 call	 DWORD PTR __imp_??1?$CStringT@DV?$StrTraitMFC_DLL@DV?$ChTraitsCRT@D@ATL@@@@@ATL@@QAE@XZ
  00ee4	8d 4d 8c	 lea	 ecx, DWORD PTR $T32[ebp]
  00ee7	c6 45 fc 3b	 mov	 BYTE PTR __$EHRec$[ebp+8], 59 ; 0000003bH
  00eeb	ff 15 00 00 00
	00		 call	 DWORD PTR __imp_??1?$CStringT@DV?$StrTraitMFC_DLL@DV?$ChTraitsCRT@D@ATL@@@@@ATL@@QAE@XZ

; 1369 : 
; 1370 : 		long lPrice = atol(strPrice);

  00ef1	ff b5 68 ff ff
	ff		 push	 DWORD PTR _strPrice$[ebp]
  00ef7	8b 35 00 00 00
	00		 mov	 esi, DWORD PTR __imp__atol
  00efd	ff d6		 call	 esi

; 1371 : 		long lExpRate = atol(strExpRate);

  00eff	ff b5 54 ff ff
	ff		 push	 DWORD PTR _strExpRate$[ebp]
  00f05	ff d6		 call	 esi
  00f07	83 c4 08	 add	 esp, 8

; 1372 : //		double dChangeRate = (double)((double)lExpRate/(double)(lPrice-lExpRate)) * 100.;
; 1373 : 		//double dChangeRate = (double)((double)atol(kb_01230.m_szyerate));
; 1374 : 		//strChangeRate.Format("%.2f", dChangeRate);
; 1375 : 		strChangeRate = kb_01230.m_szyerate;

  00f0a	8d 85 18 ff ff
	ff		 lea	 eax, DWORD PTR _kb_01230$[ebp+148]
  00f10	8d 8d 64 ff ff
	ff		 lea	 ecx, DWORD PTR _strChangeRate$[ebp]
  00f16	50		 push	 eax
  00f17	ff 15 00 00 00
	00		 call	 DWORD PTR __imp_??4?$CStringT@DV?$StrTraitMFC_DLL@DV?$ChTraitsCRT@D@ATL@@@@@ATL@@QAEAAV01@ABV01@@Z

; 1376 : 		strChangeRate += "%";

  00f1d	68 00 00 00 00	 push	 OFFSET ??_C@_01FGNFDNOH@?$CF@
  00f22	8d 8d 64 ff ff
	ff		 lea	 ecx, DWORD PTR _strChangeRate$[ebp]
  00f28	ff 15 00 00 00
	00		 call	 DWORD PTR __imp_??Y?$CStringT@DV?$StrTraitMFC_DLL@DV?$ChTraitsCRT@D@ATL@@@@@ATL@@QAEAAV01@PBD@Z

; 1377 : 
; 1378 : 		if ( nYSign < 3 )

  00f2e	8b 85 74 ff ff
	ff		 mov	 eax, DWORD PTR _nYSign$1$[ebp]
  00f34	83 f8 03	 cmp	 eax, 3
  00f37	7d 07		 jge	 SHORT $LN12@SetHogaDat

; 1379 : 			clrChange = COLOR_RED;

  00f39	be ff 00 00 00	 mov	 esi, 255		; 000000ffH
  00f3e	eb 0d		 jmp	 SHORT $LN14@SetHogaDat
$LN12@SetHogaDat:

; 1380 : 		else if ( nYSign > 3 )

  00f40	33 f6		 xor	 esi, esi
  00f42	b9 00 00 ff 00	 mov	 ecx, 16711680		; 00ff0000H
  00f47	83 f8 03	 cmp	 eax, 3
  00f4a	0f 4f f1	 cmovg	 esi, ecx
$LN14@SetHogaDat:

; 1381 : 			clrChange = COLOR_BLUE;
; 1382 : 		else
; 1383 : 			clrChange = COLOR_BLACK;
; 1384 : 
; 1385 : 		CompareNUpdateHogaData(9, MAESU_JAN_COL, "", 0, COLOR_BLACK);

  00f4d	6a 00		 push	 0
  00f4f	6a 00		 push	 0
  00f51	51		 push	 ecx
  00f52	8b cc		 mov	 ecx, esp
  00f54	68 00 00 00 00	 push	 OFFSET ??_C@_0L@NIGCCKF@?$LP?$LJ?$LL?s?C?$LM?$LA?a?$LA?$KB@
  00f59	ff 15 00 00 00
	00		 call	 DWORD PTR __imp_??0?$CStringT@DV?$StrTraitMFC_DLL@DV?$ChTraitsCRT@D@ATL@@@@@ATL@@QAE@PBD@Z
  00f5f	6a 06		 push	 6
  00f61	6a 09		 push	 9
  00f63	8b cf		 mov	 ecx, edi
  00f65	e8 00 00 00 00	 call	 ?CompareNUpdateHogaData@CFloatingHogaDlg@@QAEXHHV?$CStringT@DV?$StrTraitMFC_DLL@DV?$ChTraitsCRT@D@ATL@@@@@ATL@@HK@Z ; CFloatingHogaDlg::CompareNUpdateHogaData

; 1386 : 		CompareNUpdateHogaData(10, MAESU_JAN_COL, strExpPrice, GVIF_FGCLR, clrChange);

  00f6a	56		 push	 esi
  00f6b	6a 20		 push	 32			; 00000020H
  00f6d	51		 push	 ecx
  00f6e	8d 85 58 ff ff
	ff		 lea	 eax, DWORD PTR _strExpPrice$[ebp]
  00f74	8b cc		 mov	 ecx, esp
  00f76	50		 push	 eax
  00f77	ff 15 00 00 00
	00		 call	 DWORD PTR __imp_??0?$CStringT@DV?$StrTraitMFC_DLL@DV?$ChTraitsCRT@D@ATL@@@@@ATL@@QAE@ABV01@@Z
  00f7d	6a 06		 push	 6
  00f7f	6a 0a		 push	 10			; 0000000aH
  00f81	8b cf		 mov	 ecx, edi
  00f83	e8 00 00 00 00	 call	 ?CompareNUpdateHogaData@CFloatingHogaDlg@@QAEXHHV?$CStringT@DV?$StrTraitMFC_DLL@DV?$ChTraitsCRT@D@ATL@@@@@ATL@@HK@Z ; CFloatingHogaDlg::CompareNUpdateHogaData

; 1387 : 		CompareNUpdateHogaData(11, MAESU_JAN_COL, strChangeRate, GVIF_FGCLR, clrChange);

  00f88	56		 push	 esi
  00f89	6a 20		 push	 32			; 00000020H
  00f8b	51		 push	 ecx
  00f8c	8d 85 64 ff ff
	ff		 lea	 eax, DWORD PTR _strChangeRate$[ebp]
  00f92	8b cc		 mov	 ecx, esp
  00f94	50		 push	 eax
  00f95	ff 15 00 00 00
	00		 call	 DWORD PTR __imp_??0?$CStringT@DV?$StrTraitMFC_DLL@DV?$ChTraitsCRT@D@ATL@@@@@ATL@@QAE@ABV01@@Z
  00f9b	6a 06		 push	 6
  00f9d	6a 0b		 push	 11			; 0000000bH
  00f9f	8b cf		 mov	 ecx, edi
  00fa1	e8 00 00 00 00	 call	 ?CompareNUpdateHogaData@CFloatingHogaDlg@@QAEXHHV?$CStringT@DV?$StrTraitMFC_DLL@DV?$ChTraitsCRT@D@ATL@@@@@ATL@@HK@Z ; CFloatingHogaDlg::CompareNUpdateHogaData

; 1388 : 		CompareNUpdateHogaData(12, MAESU_JAN_COL, "", 0, COLOR_BLACK);

  00fa6	6a 00		 push	 0
  00fa8	6a 00		 push	 0
  00faa	51		 push	 ecx
  00fab	8b cc		 mov	 ecx, esp
  00fad	68 00 00 00 00	 push	 OFFSET ??_C@_0L@IPFBCIOP@?$LP?$LJ?$LL?s?C?$LM?$LA?a?$LH?$KO@
  00fb2	ff 15 00 00 00
	00		 call	 DWORD PTR __imp_??0?$CStringT@DV?$StrTraitMFC_DLL@DV?$ChTraitsCRT@D@ATL@@@@@ATL@@QAE@PBD@Z
  00fb8	6a 06		 push	 6
  00fba	6a 0c		 push	 12			; 0000000cH
  00fbc	8b cf		 mov	 ecx, edi
  00fbe	e8 00 00 00 00	 call	 ?CompareNUpdateHogaData@CFloatingHogaDlg@@QAEXHHV?$CStringT@DV?$StrTraitMFC_DLL@DV?$ChTraitsCRT@D@ATL@@@@@ATL@@HK@Z ; CFloatingHogaDlg::CompareNUpdateHogaData

; 1389 : 		CompareNUpdateHogaData(13, MAESU_JAN_COL, strExpVol, 0, COLOR_BLACK);

  00fc3	6a 00		 push	 0
  00fc5	6a 00		 push	 0
  00fc7	51		 push	 ecx
  00fc8	8d 85 5c ff ff
	ff		 lea	 eax, DWORD PTR _strExpVol$[ebp]
  00fce	8b cc		 mov	 ecx, esp
  00fd0	50		 push	 eax
  00fd1	ff 15 00 00 00
	00		 call	 DWORD PTR __imp_??0?$CStringT@DV?$StrTraitMFC_DLL@DV?$ChTraitsCRT@D@ATL@@@@@ATL@@QAE@ABV01@@Z
  00fd7	6a 06		 push	 6
  00fd9	6a 0d		 push	 13			; 0000000dH
  00fdb	8b cf		 mov	 ecx, edi
  00fdd	e8 00 00 00 00	 call	 ?CompareNUpdateHogaData@CFloatingHogaDlg@@QAEXHHV?$CStringT@DV?$StrTraitMFC_DLL@DV?$ChTraitsCRT@D@ATL@@@@@ATL@@HK@Z ; CFloatingHogaDlg::CompareNUpdateHogaData

; 1390 : 	}
; 1391 : //	else
; 1392 : //	{
; 1393 : //		CompareNUpdateHogaData(9, MAESU_JAN_COL, "", 0, COLOR_BLACK);
; 1394 : //		CompareNUpdateHogaData(10, MAESU_JAN_COL, "*0", GVIF_FGCLR, clrChange);
; 1395 : //		CompareNUpdateHogaData(11, MAESU_JAN_COL, "0.00%", GVIF_FGCLR, clrChange);
; 1396 : //		CompareNUpdateHogaData(12, MAESU_JAN_COL, "", 0, COLOR_BLACK);
; 1397 : //		CompareNUpdateHogaData(13, MAESU_JAN_COL, "0", 0, COLOR_BLACK);
; 1398 : //	}
; 1399 : 	// **********************************************************************
; 1400 : 
; 1401 : 
; 1402 : 	// ****************************************************************
; 1403 : 	//  
; 1404 : 	// ***********************************************
; 1405 : 	// ***  ***
; 1406 : 	if (atol(strPrice) > 0)

  00fe2	ff b5 68 ff ff
	ff		 push	 DWORD PTR _strPrice$[ebp]
  00fe8	ff 15 00 00 00
	00		 call	 DWORD PTR __imp__atol
  00fee	83 c4 04	 add	 esp, 4
  00ff1	85 c0		 test	 eax, eax
  00ff3	7f 2f		 jg	 SHORT $LN17@SetHogaDat

; 1407 : 	{
; 1408 : 		//    .
; 1409 : 		// , , , ()
; 1410 : 		//m_ChartData.nOpen = m_ChartData.nHigh = m_ChartData.nLow = m_ChartData.nClose = atoi(strPrice);
; 1411 : 		//m_pGridCtrl->DrawCandleChart(&m_ChartData, &m_MapGridAllData, nHogaData);		// 
; 1412 : 	}
; 1413 : 	// ***  ***
; 1414 : 	else
; 1415 : 	{
; 1416 : 		strPrice = m_Util.GetNumber(m_strCurPrice);

  00ff5	ff b7 e4 01 00
	00		 push	 DWORD PTR [edi+484]
  00ffb	8d 45 8c	 lea	 eax, DWORD PTR $T31[ebp]
  00ffe	50		 push	 eax
  00fff	8d 8f 84 01 00
	00		 lea	 ecx, DWORD PTR [edi+388]
  01005	e8 00 00 00 00	 call	 ?GetNumber@CUtil@@QAE?AV?$CStringT@DV?$StrTraitMFC_DLL@DV?$ChTraitsCRT@D@ATL@@@@@ATL@@PBD@Z ; CUtil::GetNumber
  0100a	50		 push	 eax
  0100b	8d 8d 68 ff ff
	ff		 lea	 ecx, DWORD PTR _strPrice$[ebp]
  01011	c6 45 fc 3f	 mov	 BYTE PTR __$EHRec$[ebp+8], 63 ; 0000003fH
  01015	ff 15 00 00 00
	00		 call	 DWORD PTR __imp_??4?$CStringT@DV?$StrTraitMFC_DLL@DV?$ChTraitsCRT@D@ATL@@@@@ATL@@QAEAAV01@ABV01@@Z
  0101b	8d 4d 8c	 lea	 ecx, DWORD PTR $T31[ebp]
  0101e	ff 15 00 00 00
	00		 call	 DWORD PTR __imp_??1?$CStringT@DV?$StrTraitMFC_DLL@DV?$ChTraitsCRT@D@ATL@@@@@ATL@@QAE@XZ
$LN17@SetHogaDat:

; 1417 : 	}
; 1418 : 
; 1419 : 	if (m_bIsTenHoga == TRUE)

  01024	83 bf c0 01 00
	00 01		 cmp	 DWORD PTR [edi+448], 1
  0102b	75 37		 jne	 SHORT $LN20@SetHogaDat

; 1420 : 	{
; 1421 : 		// (    ) ----------------->>>
; 1422 : 		BOOL bFindRow = FALSE;
; 1423 : 		int nPriceTemp = atoi(strPrice);

  0102d	ff b5 68 ff ff
	ff		 push	 DWORD PTR _strPrice$[ebp]
  01033	ff 15 00 00 00
	00		 call	 DWORD PTR __imp__atoi
  01039	8b c8		 mov	 ecx, eax
  0103b	83 c4 04	 add	 esp, 4

; 1424 : 
; 1425 : 		for(int nCnt = 1; nCnt < TENHOGA_SAVED_CNT-1; nCnt++)

  0103e	b8 01 00 00 00	 mov	 eax, 1
$LL4@SetHogaDat:

; 1426 : 		{
; 1427 : 			if (nPriceTemp ==  nHogaData[nCnt])

  01043	3b 4c 85 90	 cmp	 ecx, DWORD PTR _nHogaData$[ebp+eax*4]
  01047	74 12		 je	 SHORT $LN268@SetHogaDat

; 1424 : 
; 1425 : 		for(int nCnt = 1; nCnt < TENHOGA_SAVED_CNT-1; nCnt++)

  01049	40		 inc	 eax
  0104a	83 f8 17	 cmp	 eax, 23			; 00000017H
  0104d	7c f4		 jl	 SHORT $LL4@SetHogaDat

; 1431 : 				break;
; 1432 : 			}
; 1433 : 		}
; 1434 : 		if (bFindRow == FALSE)
; 1435 : 		{
; 1436 : 			m_nCurPriceRow = -1;

  0104f	c7 87 cc 01 00
	00 ff ff ff ff	 mov	 DWORD PTR [edi+460], -1
  01059	eb 09		 jmp	 SHORT $LN20@SetHogaDat
$LN268@SetHogaDat:

; 1428 : 			{
; 1429 : 				bFindRow = TRUE;
; 1430 : 				m_nCurPriceRow = nCnt+HIGH_ROW;

  0105b	83 c0 02	 add	 eax, 2
  0105e	89 87 cc 01 00
	00		 mov	 DWORD PTR [edi+460], eax
$LN20@SetHogaDat:

; 1437 : 		}
; 1438 : 	}
; 1439 : 	// *******************************************************************
; 1440 : }

  01064	8d 8d 3c ff ff
	ff		 lea	 ecx, DWORD PTR _strPrePrice$[ebp]
  0106a	ff 15 00 00 00
	00		 call	 DWORD PTR __imp_??1?$CStringT@DV?$StrTraitMFC_DLL@DV?$ChTraitsCRT@D@ATL@@@@@ATL@@QAE@XZ
  01070	8d 8d 68 ff ff
	ff		 lea	 ecx, DWORD PTR _strPrice$[ebp]
  01076	ff 15 00 00 00
	00		 call	 DWORD PTR __imp_??1?$CStringT@DV?$StrTraitMFC_DLL@DV?$ChTraitsCRT@D@ATL@@@@@ATL@@QAE@XZ
  0107c	8d 8d 5c ff ff
	ff		 lea	 ecx, DWORD PTR _strExpVol$[ebp]
  01082	ff 15 00 00 00
	00		 call	 DWORD PTR __imp_??1?$CStringT@DV?$StrTraitMFC_DLL@DV?$ChTraitsCRT@D@ATL@@@@@ATL@@QAE@XZ
  01088	8d 8d 58 ff ff
	ff		 lea	 ecx, DWORD PTR _strExpPrice$[ebp]
  0108e	ff 15 00 00 00
	00		 call	 DWORD PTR __imp_??1?$CStringT@DV?$StrTraitMFC_DLL@DV?$ChTraitsCRT@D@ATL@@@@@ATL@@QAE@XZ
  01094	8d 8d 50 ff ff
	ff		 lea	 ecx, DWORD PTR _strSPrice$[ebp]
  0109a	ff 15 00 00 00
	00		 call	 DWORD PTR __imp_??1?$CStringT@DV?$StrTraitMFC_DLL@DV?$ChTraitsCRT@D@ATL@@@@@ATL@@QAE@XZ
  010a0	8d 8d 4c ff ff
	ff		 lea	 ecx, DWORD PTR _strSVol$[ebp]
  010a6	ff 15 00 00 00
	00		 call	 DWORD PTR __imp_??1?$CStringT@DV?$StrTraitMFC_DLL@DV?$ChTraitsCRT@D@ATL@@@@@ATL@@QAE@XZ
  010ac	8d 8d 64 ff ff
	ff		 lea	 ecx, DWORD PTR _strChangeRate$[ebp]
  010b2	ff 15 00 00 00
	00		 call	 DWORD PTR __imp_??1?$CStringT@DV?$StrTraitMFC_DLL@DV?$ChTraitsCRT@D@ATL@@@@@ATL@@QAE@XZ
  010b8	8d 8d 60 ff ff
	ff		 lea	 ecx, DWORD PTR _strChange$[ebp]
  010be	ff 15 00 00 00
	00		 call	 DWORD PTR __imp_??1?$CStringT@DV?$StrTraitMFC_DLL@DV?$ChTraitsCRT@D@ATL@@@@@ATL@@QAE@XZ
  010c4	8d 8d 48 ff ff
	ff		 lea	 ecx, DWORD PTR _strSign$[ebp]
  010ca	ff 15 00 00 00
	00		 call	 DWORD PTR __imp_??1?$CStringT@DV?$StrTraitMFC_DLL@DV?$ChTraitsCRT@D@ATL@@@@@ATL@@QAE@XZ
$LN111@SetHogaDat:
  010d0	8d 8d 38 ff ff
	ff		 lea	 ecx, DWORD PTR _strSVolPer$[ebp]
  010d6	ff 15 00 00 00
	00		 call	 DWORD PTR __imp_??1?$CStringT@DV?$StrTraitMFC_DLL@DV?$ChTraitsCRT@D@ATL@@@@@ATL@@QAE@XZ
  010dc	8d 8d 34 ff ff
	ff		 lea	 ecx, DWORD PTR _strSPreVol$[ebp]
  010e2	ff 15 00 00 00
	00		 call	 DWORD PTR __imp_??1?$CStringT@DV?$StrTraitMFC_DLL@DV?$ChTraitsCRT@D@ATL@@@@@ATL@@QAE@XZ
  010e8	8d 8d 44 ff ff
	ff		 lea	 ecx, DWORD PTR _strSLow$[ebp]
  010ee	ff 15 00 00 00
	00		 call	 DWORD PTR __imp_??1?$CStringT@DV?$StrTraitMFC_DLL@DV?$ChTraitsCRT@D@ATL@@@@@ATL@@QAE@XZ
  010f4	8d 8d 40 ff ff
	ff		 lea	 ecx, DWORD PTR _strSHigh$[ebp]
  010fa	ff 15 00 00 00
	00		 call	 DWORD PTR __imp_??1?$CStringT@DV?$StrTraitMFC_DLL@DV?$ChTraitsCRT@D@ATL@@@@@ATL@@QAE@XZ
  01100	8d 8d 54 ff ff
	ff		 lea	 ecx, DWORD PTR _strExpRate$[ebp]
  01106	ff 15 00 00 00
	00		 call	 DWORD PTR __imp_??1?$CStringT@DV?$StrTraitMFC_DLL@DV?$ChTraitsCRT@D@ATL@@@@@ATL@@QAE@XZ
  0110c	8d 4d 84	 lea	 ecx, DWORD PTR _strText$[ebp]
  0110f	ff 15 00 00 00
	00		 call	 DWORD PTR __imp_??1?$CStringT@DV?$StrTraitMFC_DLL@DV?$ChTraitsCRT@D@ATL@@@@@ATL@@QAE@XZ
  01115	8d 8d 30 ff ff
	ff		 lea	 ecx, DWORD PTR _sTemp2$[ebp]
  0111b	ff 15 00 00 00
	00		 call	 DWORD PTR __imp_??1?$CStringT@DV?$StrTraitMFC_DLL@DV?$ChTraitsCRT@D@ATL@@@@@ATL@@QAE@XZ
  01121	8d 4d 88	 lea	 ecx, DWORD PTR _sTemp1$[ebp]
  01124	ff 15 00 00 00
	00		 call	 DWORD PTR __imp_??1?$CStringT@DV?$StrTraitMFC_DLL@DV?$ChTraitsCRT@D@ATL@@@@@ATL@@QAE@XZ
  0112a	8d 8d 2c ff ff
	ff		 lea	 ecx, DWORD PTR _sTemp$[ebp]
  01130	ff 15 00 00 00
	00		 call	 DWORD PTR __imp_??1?$CStringT@DV?$StrTraitMFC_DLL@DV?$ChTraitsCRT@D@ATL@@@@@ATL@@QAE@XZ
  01136	8d 8d 84 fe ff
	ff		 lea	 ecx, DWORD PTR _kb_01230$[ebp]
  0113c	e8 00 00 00 00	 call	 ??1CKB_01230@@QAE@XZ
$LN1@SetHogaDat:
  01141	8b 4d f4	 mov	 ecx, DWORD PTR __$EHRec$[ebp]
  01144	64 89 0d 00 00
	00 00		 mov	 DWORD PTR fs:0, ecx
  0114b	59		 pop	 ecx
  0114c	5f		 pop	 edi
  0114d	5e		 pop	 esi
  0114e	8b 4d f0	 mov	 ecx, DWORD PTR __$ArrayPad$[ebp]
  01151	33 cd		 xor	 ecx, ebp
  01153	e8 00 00 00 00	 call	 @__security_check_cookie@4
  01158	8b e5		 mov	 esp, ebp
  0115a	5d		 pop	 ebp
  0115b	c2 0c 00	 ret	 12			; 0000000cH
_TEXT	ENDS
;	COMDAT text$x
text$x	SEGMENT
__unwindfunclet$?SetHogaData@CFloatingHogaDlg@@QAEXPADHH@Z$0:
  00000	8d 8d 84 fe ff
	ff		 lea	 ecx, DWORD PTR _kb_01230$[ebp]
  00006	e9 00 00 00 00	 jmp	 ??1CKB_01230@@QAE@XZ
__unwindfunclet$?SetHogaData@CFloatingHogaDlg@@QAEXPADHH@Z$1:
  0000b	8d 8d 2c ff ff
	ff		 lea	 ecx, DWORD PTR _sTemp$[ebp]
  00011	ff 25 00 00 00
	00		 jmp	 DWORD PTR __imp_??1?$CStringT@DV?$StrTraitMFC_DLL@DV?$ChTraitsCRT@D@ATL@@@@@ATL@@QAE@XZ
__unwindfunclet$?SetHogaData@CFloatingHogaDlg@@QAEXPADHH@Z$2:
  00017	8d 4d 88	 lea	 ecx, DWORD PTR _sTemp1$[ebp]
  0001a	ff 25 00 00 00
	00		 jmp	 DWORD PTR __imp_??1?$CStringT@DV?$StrTraitMFC_DLL@DV?$ChTraitsCRT@D@ATL@@@@@ATL@@QAE@XZ
__unwindfunclet$?SetHogaData@CFloatingHogaDlg@@QAEXPADHH@Z$3:
  00020	8d 8d 30 ff ff
	ff		 lea	 ecx, DWORD PTR _sTemp2$[ebp]
  00026	ff 25 00 00 00
	00		 jmp	 DWORD PTR __imp_??1?$CStringT@DV?$StrTraitMFC_DLL@DV?$ChTraitsCRT@D@ATL@@@@@ATL@@QAE@XZ
__unwindfunclet$?SetHogaData@CFloatingHogaDlg@@QAEXPADHH@Z$4:
  0002c	8d 4d 84	 lea	 ecx, DWORD PTR _strText$[ebp]
  0002f	ff 25 00 00 00
	00		 jmp	 DWORD PTR __imp_??1?$CStringT@DV?$StrTraitMFC_DLL@DV?$ChTraitsCRT@D@ATL@@@@@ATL@@QAE@XZ
__unwindfunclet$?SetHogaData@CFloatingHogaDlg@@QAEXPADHH@Z$5:
  00035	8d 8d 54 ff ff
	ff		 lea	 ecx, DWORD PTR _strExpRate$[ebp]
  0003b	ff 25 00 00 00
	00		 jmp	 DWORD PTR __imp_??1?$CStringT@DV?$StrTraitMFC_DLL@DV?$ChTraitsCRT@D@ATL@@@@@ATL@@QAE@XZ
__unwindfunclet$?SetHogaData@CFloatingHogaDlg@@QAEXPADHH@Z$6:
  00041	8d 8d 40 ff ff
	ff		 lea	 ecx, DWORD PTR _strSHigh$[ebp]
  00047	ff 25 00 00 00
	00		 jmp	 DWORD PTR __imp_??1?$CStringT@DV?$StrTraitMFC_DLL@DV?$ChTraitsCRT@D@ATL@@@@@ATL@@QAE@XZ
__unwindfunclet$?SetHogaData@CFloatingHogaDlg@@QAEXPADHH@Z$7:
  0004d	8d 8d 44 ff ff
	ff		 lea	 ecx, DWORD PTR _strSLow$[ebp]
  00053	ff 25 00 00 00
	00		 jmp	 DWORD PTR __imp_??1?$CStringT@DV?$StrTraitMFC_DLL@DV?$ChTraitsCRT@D@ATL@@@@@ATL@@QAE@XZ
__unwindfunclet$?SetHogaData@CFloatingHogaDlg@@QAEXPADHH@Z$8:
  00059	8d 8d 34 ff ff
	ff		 lea	 ecx, DWORD PTR _strSPreVol$[ebp]
  0005f	ff 25 00 00 00
	00		 jmp	 DWORD PTR __imp_??1?$CStringT@DV?$StrTraitMFC_DLL@DV?$ChTraitsCRT@D@ATL@@@@@ATL@@QAE@XZ
__unwindfunclet$?SetHogaData@CFloatingHogaDlg@@QAEXPADHH@Z$9:
  00065	8d 8d 38 ff ff
	ff		 lea	 ecx, DWORD PTR _strSVolPer$[ebp]
  0006b	ff 25 00 00 00
	00		 jmp	 DWORD PTR __imp_??1?$CStringT@DV?$StrTraitMFC_DLL@DV?$ChTraitsCRT@D@ATL@@@@@ATL@@QAE@XZ
__unwindfunclet$?SetHogaData@CFloatingHogaDlg@@QAEXPADHH@Z$10:
  00071	8d 4d 80	 lea	 ecx, DWORD PTR $T30[ebp]
  00074	ff 25 00 00 00
	00		 jmp	 DWORD PTR __imp_??1?$CStringT@DV?$StrTraitMFC_DLL@DV?$ChTraitsCRT@D@ATL@@@@@ATL@@QAE@XZ
__unwindfunclet$?SetHogaData@CFloatingHogaDlg@@QAEXPADHH@Z$11:
  0007a	8d 4d 80	 lea	 ecx, DWORD PTR $T29[ebp]
  0007d	ff 25 00 00 00
	00		 jmp	 DWORD PTR __imp_??1?$CStringT@DV?$StrTraitMFC_DLL@DV?$ChTraitsCRT@D@ATL@@@@@ATL@@QAE@XZ
__unwindfunclet$?SetHogaData@CFloatingHogaDlg@@QAEXPADHH@Z$12:
  00083	8d 4d 80	 lea	 ecx, DWORD PTR $T28[ebp]
  00086	ff 25 00 00 00
	00		 jmp	 DWORD PTR __imp_??1?$CStringT@DV?$StrTraitMFC_DLL@DV?$ChTraitsCRT@D@ATL@@@@@ATL@@QAE@XZ
__unwindfunclet$?SetHogaData@CFloatingHogaDlg@@QAEXPADHH@Z$15:
  0008c	8d 4d 80	 lea	 ecx, DWORD PTR $T27[ebp]
  0008f	ff 25 00 00 00
	00		 jmp	 DWORD PTR __imp_??1?$CStringT@DV?$StrTraitMFC_DLL@DV?$ChTraitsCRT@D@ATL@@@@@ATL@@QAE@XZ
__unwindfunclet$?SetHogaData@CFloatingHogaDlg@@QAEXPADHH@Z$18:
  00095	8b 8d 74 ff ff
	ff		 mov	 ecx, DWORD PTR $T15[ebp]
  0009b	ff 25 00 00 00
	00		 jmp	 DWORD PTR __imp_??1?$CStringT@DV?$StrTraitMFC_DLL@DV?$ChTraitsCRT@D@ATL@@@@@ATL@@QAE@XZ
__unwindfunclet$?SetHogaData@CFloatingHogaDlg@@QAEXPADHH@Z$19:
  000a1	8b 4d 80	 mov	 ecx, DWORD PTR $T26[ebp]
  000a4	ff 25 00 00 00
	00		 jmp	 DWORD PTR __imp_??1?$CStringT@DV?$StrTraitMFC_DLL@DV?$ChTraitsCRT@D@ATL@@@@@ATL@@QAE@XZ
__unwindfunclet$?SetHogaData@CFloatingHogaDlg@@QAEXPADHH@Z$21:
  000aa	8b 8d 70 ff ff
	ff		 mov	 ecx, DWORD PTR $T11[ebp]
  000b0	ff 25 00 00 00
	00		 jmp	 DWORD PTR __imp_??1?$CStringT@DV?$StrTraitMFC_DLL@DV?$ChTraitsCRT@D@ATL@@@@@ATL@@QAE@XZ
__unwindfunclet$?SetHogaData@CFloatingHogaDlg@@QAEXPADHH@Z$22:
  000b6	8b 8d 74 ff ff
	ff		 mov	 ecx, DWORD PTR $T14[ebp]
  000bc	ff 25 00 00 00
	00		 jmp	 DWORD PTR __imp_??1?$CStringT@DV?$StrTraitMFC_DLL@DV?$ChTraitsCRT@D@ATL@@@@@ATL@@QAE@XZ
__unwindfunclet$?SetHogaData@CFloatingHogaDlg@@QAEXPADHH@Z$24:
  000c2	8b 8d 70 ff ff
	ff		 mov	 ecx, DWORD PTR $T10[ebp]
  000c8	ff 25 00 00 00
	00		 jmp	 DWORD PTR __imp_??1?$CStringT@DV?$StrTraitMFC_DLL@DV?$ChTraitsCRT@D@ATL@@@@@ATL@@QAE@XZ
__unwindfunclet$?SetHogaData@CFloatingHogaDlg@@QAEXPADHH@Z$25:
  000ce	8b 8d 74 ff ff
	ff		 mov	 ecx, DWORD PTR $T13[ebp]
  000d4	ff 25 00 00 00
	00		 jmp	 DWORD PTR __imp_??1?$CStringT@DV?$StrTraitMFC_DLL@DV?$ChTraitsCRT@D@ATL@@@@@ATL@@QAE@XZ
__unwindfunclet$?SetHogaData@CFloatingHogaDlg@@QAEXPADHH@Z$27:
  000da	8b 8d 70 ff ff
	ff		 mov	 ecx, DWORD PTR $T9[ebp]
  000e0	ff 25 00 00 00
	00		 jmp	 DWORD PTR __imp_??1?$CStringT@DV?$StrTraitMFC_DLL@DV?$ChTraitsCRT@D@ATL@@@@@ATL@@QAE@XZ
__unwindfunclet$?SetHogaData@CFloatingHogaDlg@@QAEXPADHH@Z$28:
  000e6	8b 8d 74 ff ff
	ff		 mov	 ecx, DWORD PTR $T12[ebp]
  000ec	ff 25 00 00 00
	00		 jmp	 DWORD PTR __imp_??1?$CStringT@DV?$StrTraitMFC_DLL@DV?$ChTraitsCRT@D@ATL@@@@@ATL@@QAE@XZ
__unwindfunclet$?SetHogaData@CFloatingHogaDlg@@QAEXPADHH@Z$30:
  000f2	8b 8d 70 ff ff
	ff		 mov	 ecx, DWORD PTR $T8[ebp]
  000f8	ff 25 00 00 00
	00		 jmp	 DWORD PTR __imp_??1?$CStringT@DV?$StrTraitMFC_DLL@DV?$ChTraitsCRT@D@ATL@@@@@ATL@@QAE@XZ
__unwindfunclet$?SetHogaData@CFloatingHogaDlg@@QAEXPADHH@Z$31:
  000fe	8b 4d 80	 mov	 ecx, DWORD PTR $T25[ebp]
  00101	ff 25 00 00 00
	00		 jmp	 DWORD PTR __imp_??1?$CStringT@DV?$StrTraitMFC_DLL@DV?$ChTraitsCRT@D@ATL@@@@@ATL@@QAE@XZ
__unwindfunclet$?SetHogaData@CFloatingHogaDlg@@QAEXPADHH@Z$33:
  00107	8b 8d 7c ff ff
	ff		 mov	 ecx, DWORD PTR $T23[ebp]
  0010d	ff 25 00 00 00
	00		 jmp	 DWORD PTR __imp_??1?$CStringT@DV?$StrTraitMFC_DLL@DV?$ChTraitsCRT@D@ATL@@@@@ATL@@QAE@XZ
__unwindfunclet$?SetHogaData@CFloatingHogaDlg@@QAEXPADHH@Z$34:
  00113	8b 8d 70 ff ff
	ff		 mov	 ecx, DWORD PTR $T7[ebp]
  00119	ff 25 00 00 00
	00		 jmp	 DWORD PTR __imp_??1?$CStringT@DV?$StrTraitMFC_DLL@DV?$ChTraitsCRT@D@ATL@@@@@ATL@@QAE@XZ
__unwindfunclet$?SetHogaData@CFloatingHogaDlg@@QAEXPADHH@Z$36:
  0011f	8b 8d 7c ff ff
	ff		 mov	 ecx, DWORD PTR $T22[ebp]
  00125	ff 25 00 00 00
	00		 jmp	 DWORD PTR __imp_??1?$CStringT@DV?$StrTraitMFC_DLL@DV?$ChTraitsCRT@D@ATL@@@@@ATL@@QAE@XZ
__unwindfunclet$?SetHogaData@CFloatingHogaDlg@@QAEXPADHH@Z$37:
  0012b	8b 8d 70 ff ff
	ff		 mov	 ecx, DWORD PTR $T6[ebp]
  00131	ff 25 00 00 00
	00		 jmp	 DWORD PTR __imp_??1?$CStringT@DV?$StrTraitMFC_DLL@DV?$ChTraitsCRT@D@ATL@@@@@ATL@@QAE@XZ
__unwindfunclet$?SetHogaData@CFloatingHogaDlg@@QAEXPADHH@Z$39:
  00137	8b 8d 7c ff ff
	ff		 mov	 ecx, DWORD PTR $T21[ebp]
  0013d	ff 25 00 00 00
	00		 jmp	 DWORD PTR __imp_??1?$CStringT@DV?$StrTraitMFC_DLL@DV?$ChTraitsCRT@D@ATL@@@@@ATL@@QAE@XZ
__unwindfunclet$?SetHogaData@CFloatingHogaDlg@@QAEXPADHH@Z$40:
  00143	8b 8d 70 ff ff
	ff		 mov	 ecx, DWORD PTR $T5[ebp]
  00149	ff 25 00 00 00
	00		 jmp	 DWORD PTR __imp_??1?$CStringT@DV?$StrTraitMFC_DLL@DV?$ChTraitsCRT@D@ATL@@@@@ATL@@QAE@XZ
__unwindfunclet$?SetHogaData@CFloatingHogaDlg@@QAEXPADHH@Z$42:
  0014f	8b 8d 7c ff ff
	ff		 mov	 ecx, DWORD PTR $T20[ebp]
  00155	ff 25 00 00 00
	00		 jmp	 DWORD PTR __imp_??1?$CStringT@DV?$StrTraitMFC_DLL@DV?$ChTraitsCRT@D@ATL@@@@@ATL@@QAE@XZ
__unwindfunclet$?SetHogaData@CFloatingHogaDlg@@QAEXPADHH@Z$43:
  0015b	8b 8d 70 ff ff
	ff		 mov	 ecx, DWORD PTR $T4[ebp]
  00161	ff 25 00 00 00
	00		 jmp	 DWORD PTR __imp_??1?$CStringT@DV?$StrTraitMFC_DLL@DV?$ChTraitsCRT@D@ATL@@@@@ATL@@QAE@XZ
__unwindfunclet$?SetHogaData@CFloatingHogaDlg@@QAEXPADHH@Z$45:
  00167	8b 8d 7c ff ff
	ff		 mov	 ecx, DWORD PTR $T19[ebp]
  0016d	ff 25 00 00 00
	00		 jmp	 DWORD PTR __imp_??1?$CStringT@DV?$StrTraitMFC_DLL@DV?$ChTraitsCRT@D@ATL@@@@@ATL@@QAE@XZ
__unwindfunclet$?SetHogaData@CFloatingHogaDlg@@QAEXPADHH@Z$46:
  00173	8b 8d 70 ff ff
	ff		 mov	 ecx, DWORD PTR $T3[ebp]
  00179	ff 25 00 00 00
	00		 jmp	 DWORD PTR __imp_??1?$CStringT@DV?$StrTraitMFC_DLL@DV?$ChTraitsCRT@D@ATL@@@@@ATL@@QAE@XZ
__unwindfunclet$?SetHogaData@CFloatingHogaDlg@@QAEXPADHH@Z$48:
  0017f	8d 4d 8c	 lea	 ecx, DWORD PTR $T47[ebp]
  00182	ff 25 00 00 00
	00		 jmp	 DWORD PTR __imp_??1?$CStringT@DV?$StrTraitMFC_DLL@DV?$ChTraitsCRT@D@ATL@@@@@ATL@@QAE@XZ
__unwindfunclet$?SetHogaData@CFloatingHogaDlg@@QAEXPADHH@Z$50:
  00188	8d 4d 8c	 lea	 ecx, DWORD PTR $T46[ebp]
  0018b	ff 25 00 00 00
	00		 jmp	 DWORD PTR __imp_??1?$CStringT@DV?$StrTraitMFC_DLL@DV?$ChTraitsCRT@D@ATL@@@@@ATL@@QAE@XZ
__unwindfunclet$?SetHogaData@CFloatingHogaDlg@@QAEXPADHH@Z$52:
  00191	8d 4d 8c	 lea	 ecx, DWORD PTR $T45[ebp]
  00194	ff 25 00 00 00
	00		 jmp	 DWORD PTR __imp_??1?$CStringT@DV?$StrTraitMFC_DLL@DV?$ChTraitsCRT@D@ATL@@@@@ATL@@QAE@XZ
__unwindfunclet$?SetHogaData@CFloatingHogaDlg@@QAEXPADHH@Z$54:
  0019a	8d 4d 8c	 lea	 ecx, DWORD PTR $T44[ebp]
  0019d	ff 25 00 00 00
	00		 jmp	 DWORD PTR __imp_??1?$CStringT@DV?$StrTraitMFC_DLL@DV?$ChTraitsCRT@D@ATL@@@@@ATL@@QAE@XZ
__unwindfunclet$?SetHogaData@CFloatingHogaDlg@@QAEXPADHH@Z$56:
  001a3	8d 4d 8c	 lea	 ecx, DWORD PTR $T43[ebp]
  001a6	ff 25 00 00 00
	00		 jmp	 DWORD PTR __imp_??1?$CStringT@DV?$StrTraitMFC_DLL@DV?$ChTraitsCRT@D@ATL@@@@@ATL@@QAE@XZ
__unwindfunclet$?SetHogaData@CFloatingHogaDlg@@QAEXPADHH@Z$58:
  001ac	8d 4d 8c	 lea	 ecx, DWORD PTR $T42[ebp]
  001af	ff 25 00 00 00
	00		 jmp	 DWORD PTR __imp_??1?$CStringT@DV?$StrTraitMFC_DLL@DV?$ChTraitsCRT@D@ATL@@@@@ATL@@QAE@XZ
__unwindfunclet$?SetHogaData@CFloatingHogaDlg@@QAEXPADHH@Z$60:
  001b5	8d 4d 8c	 lea	 ecx, DWORD PTR $T41[ebp]
  001b8	ff 25 00 00 00
	00		 jmp	 DWORD PTR __imp_??1?$CStringT@DV?$StrTraitMFC_DLL@DV?$ChTraitsCRT@D@ATL@@@@@ATL@@QAE@XZ
__unwindfunclet$?SetHogaData@CFloatingHogaDlg@@QAEXPADHH@Z$61:
  001be	8d 4d 8c	 lea	 ecx, DWORD PTR $T40[ebp]
  001c1	ff 25 00 00 00
	00		 jmp	 DWORD PTR __imp_??1?$CStringT@DV?$StrTraitMFC_DLL@DV?$ChTraitsCRT@D@ATL@@@@@ATL@@QAE@XZ
__unwindfunclet$?SetHogaData@CFloatingHogaDlg@@QAEXPADHH@Z$62:
  001c7	8d 4d 8c	 lea	 ecx, DWORD PTR $T39[ebp]
  001ca	ff 25 00 00 00
	00		 jmp	 DWORD PTR __imp_??1?$CStringT@DV?$StrTraitMFC_DLL@DV?$ChTraitsCRT@D@ATL@@@@@ATL@@QAE@XZ
__unwindfunclet$?SetHogaData@CFloatingHogaDlg@@QAEXPADHH@Z$63:
  001d0	8d 4d 8c	 lea	 ecx, DWORD PTR $T38[ebp]
  001d3	ff 25 00 00 00
	00		 jmp	 DWORD PTR __imp_??1?$CStringT@DV?$StrTraitMFC_DLL@DV?$ChTraitsCRT@D@ATL@@@@@ATL@@QAE@XZ
__unwindfunclet$?SetHogaData@CFloatingHogaDlg@@QAEXPADHH@Z$64:
  001d9	8d 8d 48 ff ff
	ff		 lea	 ecx, DWORD PTR _strSign$[ebp]
  001df	ff 25 00 00 00
	00		 jmp	 DWORD PTR __imp_??1?$CStringT@DV?$StrTraitMFC_DLL@DV?$ChTraitsCRT@D@ATL@@@@@ATL@@QAE@XZ
__unwindfunclet$?SetHogaData@CFloatingHogaDlg@@QAEXPADHH@Z$65:
  001e5	8d 8d 60 ff ff
	ff		 lea	 ecx, DWORD PTR _strChange$[ebp]
  001eb	ff 25 00 00 00
	00		 jmp	 DWORD PTR __imp_??1?$CStringT@DV?$StrTraitMFC_DLL@DV?$ChTraitsCRT@D@ATL@@@@@ATL@@QAE@XZ
__unwindfunclet$?SetHogaData@CFloatingHogaDlg@@QAEXPADHH@Z$66:
  001f1	8d 8d 64 ff ff
	ff		 lea	 ecx, DWORD PTR _strChangeRate$[ebp]
  001f7	ff 25 00 00 00
	00		 jmp	 DWORD PTR __imp_??1?$CStringT@DV?$StrTraitMFC_DLL@DV?$ChTraitsCRT@D@ATL@@@@@ATL@@QAE@XZ
__unwindfunclet$?SetHogaData@CFloatingHogaDlg@@QAEXPADHH@Z$67:
  001fd	8d 8d 4c ff ff
	ff		 lea	 ecx, DWORD PTR _strSVol$[ebp]
  00203	ff 25 00 00 00
	00		 jmp	 DWORD PTR __imp_??1?$CStringT@DV?$StrTraitMFC_DLL@DV?$ChTraitsCRT@D@ATL@@@@@ATL@@QAE@XZ
__unwindfunclet$?SetHogaData@CFloatingHogaDlg@@QAEXPADHH@Z$68:
  00209	8d 8d 50 ff ff
	ff		 lea	 ecx, DWORD PTR _strSPrice$[ebp]
  0020f	ff 25 00 00 00
	00		 jmp	 DWORD PTR __imp_??1?$CStringT@DV?$StrTraitMFC_DLL@DV?$ChTraitsCRT@D@ATL@@@@@ATL@@QAE@XZ
__unwindfunclet$?SetHogaData@CFloatingHogaDlg@@QAEXPADHH@Z$69:
  00215	8d 4d 8c	 lea	 ecx, DWORD PTR $T37[ebp]
  00218	ff 25 00 00 00
	00		 jmp	 DWORD PTR __imp_??1?$CStringT@DV?$StrTraitMFC_DLL@DV?$ChTraitsCRT@D@ATL@@@@@ATL@@QAE@XZ
__unwindfunclet$?SetHogaData@CFloatingHogaDlg@@QAEXPADHH@Z$70:
  0021e	8d 4d 8c	 lea	 ecx, DWORD PTR $T36[ebp]
  00221	ff 25 00 00 00
	00		 jmp	 DWORD PTR __imp_??1?$CStringT@DV?$StrTraitMFC_DLL@DV?$ChTraitsCRT@D@ATL@@@@@ATL@@QAE@XZ
__unwindfunclet$?SetHogaData@CFloatingHogaDlg@@QAEXPADHH@Z$89:
  00227	8b 45 80	 mov	 eax, DWORD PTR $T24[ebp]
  0022a	83 e0 01	 and	 eax, 1
  0022d	0f 84 10 00 00
	00		 je	 $LN191@SetHogaDat
  00233	83 65 80 fe	 and	 DWORD PTR $T24[ebp], -2	; fffffffeH
  00237	8d 8d 6c ff ff
	ff		 lea	 ecx, DWORD PTR $T2[ebp]
  0023d	ff 25 00 00 00
	00		 jmp	 DWORD PTR __imp_??1?$CStringT@DV?$StrTraitMFC_DLL@DV?$ChTraitsCRT@D@ATL@@@@@ATL@@QAE@XZ
$LN191@SetHogaDat:
  00243	c3		 ret	 0
__unwindfunclet$?SetHogaData@CFloatingHogaDlg@@QAEXPADHH@Z$90:
  00244	8b 45 80	 mov	 eax, DWORD PTR $T24[ebp]
  00247	83 e0 02	 and	 eax, 2
  0024a	0f 84 10 00 00
	00		 je	 $LN204@SetHogaDat
  00250	83 65 80 fd	 and	 DWORD PTR $T24[ebp], -3	; fffffffdH
  00254	8d 8d 78 ff ff
	ff		 lea	 ecx, DWORD PTR $T18[ebp]
  0025a	ff 25 00 00 00
	00		 jmp	 DWORD PTR __imp_??1?$CStringT@DV?$StrTraitMFC_DLL@DV?$ChTraitsCRT@D@ATL@@@@@ATL@@QAE@XZ
$LN204@SetHogaDat:
  00260	c3		 ret	 0
__unwindfunclet$?SetHogaData@CFloatingHogaDlg@@QAEXPADHH@Z$91:
  00261	8b 45 80	 mov	 eax, DWORD PTR $T24[ebp]
  00264	83 e0 04	 and	 eax, 4
  00267	0f 84 10 00 00
	00		 je	 $LN222@SetHogaDat
  0026d	83 65 80 fb	 and	 DWORD PTR $T24[ebp], -5	; fffffffbH
  00271	8d 8d 78 ff ff
	ff		 lea	 ecx, DWORD PTR $T17[ebp]
  00277	ff 25 00 00 00
	00		 jmp	 DWORD PTR __imp_??1?$CStringT@DV?$StrTraitMFC_DLL@DV?$ChTraitsCRT@D@ATL@@@@@ATL@@QAE@XZ
$LN222@SetHogaDat:
  0027d	c3		 ret	 0
__unwindfunclet$?SetHogaData@CFloatingHogaDlg@@QAEXPADHH@Z$74:
  0027e	8d 4d 8c	 lea	 ecx, DWORD PTR $T35[ebp]
  00281	ff 25 00 00 00
	00		 jmp	 DWORD PTR __imp_??1?$CStringT@DV?$StrTraitMFC_DLL@DV?$ChTraitsCRT@D@ATL@@@@@ATL@@QAE@XZ
__unwindfunclet$?SetHogaData@CFloatingHogaDlg@@QAEXPADHH@Z$75:
  00287	8d 4d 8c	 lea	 ecx, DWORD PTR $T34[ebp]
  0028a	ff 25 00 00 00
	00		 jmp	 DWORD PTR __imp_??1?$CStringT@DV?$StrTraitMFC_DLL@DV?$ChTraitsCRT@D@ATL@@@@@ATL@@QAE@XZ
__unwindfunclet$?SetHogaData@CFloatingHogaDlg@@QAEXPADHH@Z$76:
  00290	8d 8d 58 ff ff
	ff		 lea	 ecx, DWORD PTR _strExpPrice$[ebp]
  00296	ff 25 00 00 00
	00		 jmp	 DWORD PTR __imp_??1?$CStringT@DV?$StrTraitMFC_DLL@DV?$ChTraitsCRT@D@ATL@@@@@ATL@@QAE@XZ
__unwindfunclet$?SetHogaData@CFloatingHogaDlg@@QAEXPADHH@Z$77:
  0029c	8d 8d 5c ff ff
	ff		 lea	 ecx, DWORD PTR _strExpVol$[ebp]
  002a2	ff 25 00 00 00
	00		 jmp	 DWORD PTR __imp_??1?$CStringT@DV?$StrTraitMFC_DLL@DV?$ChTraitsCRT@D@ATL@@@@@ATL@@QAE@XZ
__unwindfunclet$?SetHogaData@CFloatingHogaDlg@@QAEXPADHH@Z$78:
  002a8	8d 8d 68 ff ff
	ff		 lea	 ecx, DWORD PTR _strPrice$[ebp]
  002ae	ff 25 00 00 00
	00		 jmp	 DWORD PTR __imp_??1?$CStringT@DV?$StrTraitMFC_DLL@DV?$ChTraitsCRT@D@ATL@@@@@ATL@@QAE@XZ
__unwindfunclet$?SetHogaData@CFloatingHogaDlg@@QAEXPADHH@Z$79:
  002b4	8d 8d 3c ff ff
	ff		 lea	 ecx, DWORD PTR _strPrePrice$[ebp]
  002ba	ff 25 00 00 00
	00		 jmp	 DWORD PTR __imp_??1?$CStringT@DV?$StrTraitMFC_DLL@DV?$ChTraitsCRT@D@ATL@@@@@ATL@@QAE@XZ
__unwindfunclet$?SetHogaData@CFloatingHogaDlg@@QAEXPADHH@Z$80:
  002c0	8d 4d 8c	 lea	 ecx, DWORD PTR $T33[ebp]
  002c3	ff 25 00 00 00
	00		 jmp	 DWORD PTR __imp_??1?$CStringT@DV?$StrTraitMFC_DLL@DV?$ChTraitsCRT@D@ATL@@@@@ATL@@QAE@XZ
__unwindfunclet$?SetHogaData@CFloatingHogaDlg@@QAEXPADHH@Z$81:
  002c9	8d 4d 8c	 lea	 ecx, DWORD PTR $T32[ebp]
  002cc	ff 25 00 00 00
	00		 jmp	 DWORD PTR __imp_??1?$CStringT@DV?$StrTraitMFC_DLL@DV?$ChTraitsCRT@D@ATL@@@@@ATL@@QAE@XZ
__unwindfunclet$?SetHogaData@CFloatingHogaDlg@@QAEXPADHH@Z$92:
  002d2	8b 45 80	 mov	 eax, DWORD PTR $T24[ebp]
  002d5	83 e0 08	 and	 eax, 8
  002d8	0f 84 10 00 00
	00		 je	 $LN247@SetHogaDat
  002de	83 65 80 f7	 and	 DWORD PTR $T24[ebp], -9	; fffffff7H
  002e2	8d 8d 78 ff ff
	ff		 lea	 ecx, DWORD PTR $T16[ebp]
  002e8	ff 25 00 00 00
	00		 jmp	 DWORD PTR __imp_??1?$CStringT@DV?$StrTraitMFC_DLL@DV?$ChTraitsCRT@D@ATL@@@@@ATL@@QAE@XZ
$LN247@SetHogaDat:
  002ee	c3		 ret	 0
__unwindfunclet$?SetHogaData@CFloatingHogaDlg@@QAEXPADHH@Z$88:
  002ef	8d 4d 8c	 lea	 ecx, DWORD PTR $T31[ebp]
  002f2	ff 25 00 00 00
	00		 jmp	 DWORD PTR __imp_??1?$CStringT@DV?$StrTraitMFC_DLL@DV?$ChTraitsCRT@D@ATL@@@@@ATL@@QAE@XZ
  002f8	cc		 int	 3
  002f9	cc		 int	 3
  002fa	cc		 int	 3
  002fb	cc		 int	 3
  002fc	cc		 int	 3
__ehhandler$?SetHogaData@CFloatingHogaDlg@@QAEXPADHH@Z:
  002fd	90		 npad	 1
  002fe	90		 npad	 1
  002ff	8b 54 24 08	 mov	 edx, DWORD PTR [esp+8]
  00303	8d 42 0c	 lea	 eax, DWORD PTR [edx+12]
  00306	8b 8a 84 fe ff
	ff		 mov	 ecx, DWORD PTR [edx-380]
  0030c	33 c8		 xor	 ecx, eax
  0030e	e8 00 00 00 00	 call	 @__security_check_cookie@4
  00313	8b 4a fc	 mov	 ecx, DWORD PTR [edx-4]
  00316	33 c8		 xor	 ecx, eax
  00318	e8 00 00 00 00	 call	 @__security_check_cookie@4
  0031d	b8 00 00 00 00	 mov	 eax, OFFSET __ehfuncinfo$?SetHogaData@CFloatingHogaDlg@@QAEXPADHH@Z
  00322	e9 00 00 00 00	 jmp	 ___CxxFrameHandler3
text$x	ENDS
?SetHogaData@CFloatingHogaDlg@@QAEXPADHH@Z ENDP		; CFloatingHogaDlg::SetHogaData
; Function compile flags: /Ogtp
; File D:\git\src\IBK\IBK_DRFN\ProjSrc\SrcDrfn\Chart\MULTICHART\FloatingHogaDlg.cpp
;	COMDAT ?DisplayClear_AllHogaData@CFloatingHogaDlg@@QAEXXZ
_TEXT	SEGMENT
?DisplayClear_AllHogaData@CFloatingHogaDlg@@QAEXXZ PROC	; CFloatingHogaDlg::DisplayClear_AllHogaData, COMDAT
; _this$ = ecx

; 1071 : {

  00000	53		 push	 ebx
  00001	56		 push	 esi
  00002	57		 push	 edi
  00003	8b f9		 mov	 edi, ecx

; 1072 : 	int i;
; 1073 : 	int nState;
; 1074 : 
; 1075 : 	//for( i=MARKETPRICE_ROW; i <= m_nLowLimitRow; i++ )
; 1076 : 	for( i=HIGH_ROW; i <= m_nLowLimitRow; i++ )

  00005	bb 02 00 00 00	 mov	 ebx, 2
  0000a	8b b7 d0 01 00
	00		 mov	 esi, DWORD PTR [edi+464]
  00010	3b f3		 cmp	 esi, ebx
  00012	0f 8c a2 00 00
	00		 jl	 $LN3@DisplayCle
  00018	0f 1f 84 00 00
	00 00 00	 npad	 8
$LL4@DisplayCle:

; 1077 : 	{	
; 1078 : 		m_pGridCtrl->SetItemText(i, HOGA_COL, "");

  00020	8b 8f cc 00 00
	00		 mov	 ecx, DWORD PTR [edi+204]
  00026	68 00 00 00 00	 push	 OFFSET ??_C@_00CNPNBAHC@@
  0002b	6a 04		 push	 4
  0002d	53		 push	 ebx
  0002e	e8 00 00 00 00	 call	 ?SetItemText@CExGridCtrl@@QAEHHHPBD@Z ; CExGridCtrl::SetItemText

; 1079 : 		m_pGridCtrl->SetItemText(i, MAEDO_JAN_COL, "");

  00033	8b 8f cc 00 00
	00		 mov	 ecx, DWORD PTR [edi+204]
  00039	68 00 00 00 00	 push	 OFFSET ??_C@_00CNPNBAHC@@
  0003e	6a 03		 push	 3
  00040	53		 push	 ebx
  00041	e8 00 00 00 00	 call	 ?SetItemText@CExGridCtrl@@QAEHHHPBD@Z ; CExGridCtrl::SetItemText

; 1080 : 		m_pGridCtrl->SetItemText(i, MAESU_JAN_COL, "");

  00046	8b 8f cc 00 00
	00		 mov	 ecx, DWORD PTR [edi+204]
  0004c	68 00 00 00 00	 push	 OFFSET ??_C@_00CNPNBAHC@@
  00051	6a 06		 push	 6
  00053	53		 push	 ebx
  00054	e8 00 00 00 00	 call	 ?SetItemText@CExGridCtrl@@QAEHHHPBD@Z ; CExGridCtrl::SetItemText

; 1081 : 
; 1082 : 		nState = m_pGridCtrl->GetItemState(i, HOGA_COL);

  00059	8b 8f cc 00 00
	00		 mov	 ecx, DWORD PTR [edi+204]
  0005f	6a 04		 push	 4
  00061	53		 push	 ebx
  00062	e8 00 00 00 00	 call	 ?GetItemState@CExGridCtrl@@QAEIHH@Z ; CExGridCtrl::GetItemState

; 1083 : 		nState &= ~GVIS_STATIC;
; 1084 : //		nState &= ~GVIS_CHARTPRICE;
; 1085 : 		m_pGridCtrl->SetItemState(i, HOGA_COL, nState);

  00067	8b 8f cc 00 00
	00		 mov	 ecx, DWORD PTR [edi+204]
  0006d	25 ff ef ff ff	 and	 eax, -4097		; ffffefffH
  00072	50		 push	 eax
  00073	6a 04		 push	 4
  00075	53		 push	 ebx
  00076	e8 00 00 00 00	 call	 ?SetItemState@CExGridCtrl@@QAEHHHI@Z ; CExGridCtrl::SetItemState

; 1086 : 
; 1087 : 		m_pGridCtrl->RedrawCell(i, HOGA_COL);

  0007b	8b 8f cc 00 00
	00		 mov	 ecx, DWORD PTR [edi+204]
  00081	6a 00		 push	 0
  00083	6a 04		 push	 4
  00085	53		 push	 ebx
  00086	e8 00 00 00 00	 call	 ?RedrawCell@CExGridCtrl@@QAEHHHPAVCDC@@@Z ; CExGridCtrl::RedrawCell

; 1088 : 		m_pGridCtrl->RedrawCell(i, MAEDO_JAN_COL);

  0008b	8b 8f cc 00 00
	00		 mov	 ecx, DWORD PTR [edi+204]
  00091	6a 00		 push	 0
  00093	6a 03		 push	 3
  00095	53		 push	 ebx
  00096	e8 00 00 00 00	 call	 ?RedrawCell@CExGridCtrl@@QAEHHHPAVCDC@@@Z ; CExGridCtrl::RedrawCell

; 1089 : 		m_pGridCtrl->RedrawCell(i, MAESU_JAN_COL);

  0009b	8b 8f cc 00 00
	00		 mov	 ecx, DWORD PTR [edi+204]
  000a1	6a 00		 push	 0
  000a3	6a 06		 push	 6
  000a5	53		 push	 ebx
  000a6	e8 00 00 00 00	 call	 ?RedrawCell@CExGridCtrl@@QAEHHHPAVCDC@@@Z ; CExGridCtrl::RedrawCell
  000ab	8b b7 d0 01 00
	00		 mov	 esi, DWORD PTR [edi+464]
  000b1	43		 inc	 ebx
  000b2	3b de		 cmp	 ebx, esi
  000b4	0f 8e 66 ff ff
	ff		 jle	 $LL4@DisplayCle
$LN3@DisplayCle:

; 1090 : 	}
; 1091 : 	for( i=m_nLowLimitRow; i <= m_nLowLimitRow+3; i++ )

  000ba	8d 46 03	 lea	 eax, DWORD PTR [esi+3]
  000bd	3b f0		 cmp	 esi, eax
  000bf	7f 54		 jg	 SHORT $LN6@DisplayCle
$LL7@DisplayCle:

; 1092 : 	{
; 1093 : 		m_pGridCtrl->SetItemText(i, MAEDO_JAN_COL, "");

  000c1	8b 8f cc 00 00
	00		 mov	 ecx, DWORD PTR [edi+204]
  000c7	68 00 00 00 00	 push	 OFFSET ??_C@_00CNPNBAHC@@
  000cc	6a 03		 push	 3
  000ce	56		 push	 esi
  000cf	e8 00 00 00 00	 call	 ?SetItemText@CExGridCtrl@@QAEHHHPBD@Z ; CExGridCtrl::SetItemText

; 1094 : 		m_pGridCtrl->SetItemText(i, MAESU_JAN_COL, "");

  000d4	8b 8f cc 00 00
	00		 mov	 ecx, DWORD PTR [edi+204]
  000da	68 00 00 00 00	 push	 OFFSET ??_C@_00CNPNBAHC@@
  000df	6a 06		 push	 6
  000e1	56		 push	 esi
  000e2	e8 00 00 00 00	 call	 ?SetItemText@CExGridCtrl@@QAEHHHPBD@Z ; CExGridCtrl::SetItemText

; 1095 : 		m_pGridCtrl->RedrawCell(i, MAEDO_JAN_COL);

  000e7	8b 8f cc 00 00
	00		 mov	 ecx, DWORD PTR [edi+204]
  000ed	6a 00		 push	 0
  000ef	6a 03		 push	 3
  000f1	56		 push	 esi
  000f2	e8 00 00 00 00	 call	 ?RedrawCell@CExGridCtrl@@QAEHHHPAVCDC@@@Z ; CExGridCtrl::RedrawCell

; 1096 : 		m_pGridCtrl->RedrawCell(i, MAESU_JAN_COL);

  000f7	8b 8f cc 00 00
	00		 mov	 ecx, DWORD PTR [edi+204]
  000fd	6a 00		 push	 0
  000ff	6a 06		 push	 6
  00101	56		 push	 esi
  00102	e8 00 00 00 00	 call	 ?RedrawCell@CExGridCtrl@@QAEHHHPAVCDC@@@Z ; CExGridCtrl::RedrawCell
  00107	8b 87 d0 01 00
	00		 mov	 eax, DWORD PTR [edi+464]
  0010d	46		 inc	 esi
  0010e	83 c0 03	 add	 eax, 3
  00111	3b f0		 cmp	 esi, eax
  00113	7e ac		 jle	 SHORT $LL7@DisplayCle
$LN6@DisplayCle:
  00115	5f		 pop	 edi

; 1097 : 	}
; 1098 : }

  00116	5e		 pop	 esi
  00117	5b		 pop	 ebx
  00118	c3		 ret	 0
?DisplayClear_AllHogaData@CFloatingHogaDlg@@QAEXXZ ENDP	; CFloatingHogaDlg::DisplayClear_AllHogaData
_TEXT	ENDS
; Function compile flags: /Ogtp
; File D:\git\src\IBK\IBK_DRFN\ProjSrc\SrcDrfn\Chart\MULTICHART\FloatingHogaDlg.cpp
; File C:\Program Files (x86)\Microsoft Visual Studio\2019\Community\VC\Tools\MSVC\14.29.30133\atlmfc\include\afxtempl.h
; File D:\git\src\IBK\IBK_DRFN\ProjSrc\SrcDrfn\Chart\MULTICHART\FloatingHogaDlg.cpp
; File C:\Program Files (x86)\Microsoft Visual Studio\2019\Community\VC\Tools\MSVC\14.29.30133\atlmfc\include\afxtempl.h
; File D:\git\src\IBK\IBK_DRFN\ProjSrc\SrcDrfn\Chart\MULTICHART\FloatingHogaDlg.cpp
; File C:\Program Files (x86)\Microsoft Visual Studio\2019\Community\VC\Tools\MSVC\14.29.30133\atlmfc\include\afxtempl.h
; File D:\git\src\IBK\IBK_DRFN\ProjSrc\SrcDrfn\Chart\MULTICHART\FloatingHogaDlg.cpp
; File C:\Program Files (x86)\Microsoft Visual Studio\2019\Community\VC\Tools\MSVC\14.29.30133\atlmfc\include\cstringt.h
; File D:\git\src\IBK\IBK_DRFN\ProjSrc\SrcDrfn\Chart\MULTICHART\FloatingHogaDlg.cpp
; File C:\Program Files (x86)\Microsoft Visual Studio\2019\Community\VC\Tools\MSVC\14.29.30133\atlmfc\include\cstringt.h
; File D:\git\src\IBK\IBK_DRFN\ProjSrc\SrcDrfn\Chart\MULTICHART\FloatingHogaDlg.cpp
; File C:\Program Files (x86)\Microsoft Visual Studio\2019\Community\VC\Tools\MSVC\14.29.30133\atlmfc\include\cstringt.h
; File D:\git\src\IBK\IBK_DRFN\ProjSrc\SrcDrfn\Chart\MULTICHART\FloatingHogaDlg.cpp
; File C:\Program Files (x86)\Microsoft Visual Studio\2019\Community\VC\Tools\MSVC\14.29.30133\atlmfc\include\atlsimpstr.h
; File D:\git\src\IBK\IBK_DRFN\ProjSrc\SrcDrfn\Chart\MULTICHART\FloatingHogaDlg.cpp
; File C:\Program Files (x86)\Microsoft Visual Studio\2019\Community\VC\Tools\MSVC\14.29.30133\atlmfc\include\afxtempl.h
; File D:\git\src\IBK\IBK_DRFN\ProjSrc\SrcDrfn\Chart\MULTICHART\FloatingHogaDlg.cpp
;	COMDAT ?CheckRealHogaDataWithinHogaData@CFloatingHogaDlg@@QAEHV?$CStringT@DV?$StrTraitMFC_DLL@DV?$ChTraitsCRT@D@ATL@@@@@ATL@@PAH@Z
_TEXT	SEGMENT
_nCount$1$ = -40					; size = 4
tv576 = -36						; size = 4
tv575 = -32						; size = 4
_pHogaDataBottom$1$ = -32				; size = 4
$T2 = -32						; size = 4
$T3 = -32						; size = 4
$T4 = -32						; size = 4
$T5 = -28						; size = 4
$T6 = -28						; size = 4
$T7 = -28						; size = 4
_this$1$ = -24						; size = 4
_bFind$1$ = -20						; size = 4
_nHogaBottom$1$ = -20					; size = 4
$T8 = -20						; size = 4
$T9 = -20						; size = 4
_nHogaTop$1$ = -16					; size = 4
$T10 = -16						; size = 4
__$EHRec$ = -12						; size = 12
_strData$ = 8						; size = 4
_nIndex$ = 12						; size = 4
?CheckRealHogaDataWithinHogaData@CFloatingHogaDlg@@QAEHV?$CStringT@DV?$StrTraitMFC_DLL@DV?$ChTraitsCRT@D@ATL@@@@@ATL@@PAH@Z PROC ; CFloatingHogaDlg::CheckRealHogaDataWithinHogaData, COMDAT
; _this$ = ecx

; 2203 : {

  00000	55		 push	 ebp
  00001	8b ec		 mov	 ebp, esp
  00003	6a ff		 push	 -1
  00005	68 00 00 00 00	 push	 __ehhandler$?CheckRealHogaDataWithinHogaData@CFloatingHogaDlg@@QAEHV?$CStringT@DV?$StrTraitMFC_DLL@DV?$ChTraitsCRT@D@ATL@@@@@ATL@@PAH@Z
  0000a	64 a1 00 00 00
	00		 mov	 eax, DWORD PTR fs:0
  00010	50		 push	 eax
  00011	83 ec 1c	 sub	 esp, 28			; 0000001cH
  00014	53		 push	 ebx
  00015	56		 push	 esi
  00016	57		 push	 edi
  00017	a1 00 00 00 00	 mov	 eax, DWORD PTR ___security_cookie
  0001c	33 c5		 xor	 eax, ebp
  0001e	50		 push	 eax
  0001f	8d 45 f4	 lea	 eax, DWORD PTR __$EHRec$[ebp]
  00022	64 a3 00 00 00
	00		 mov	 DWORD PTR fs:0, eax
  00028	8b d9		 mov	 ebx, ecx
  0002a	89 5d e8	 mov	 DWORD PTR _this$1$[ebp], ebx

; 2204 : 	int nCount = m_HogaData.GetSize();

  0002d	8b 83 90 01 00
	00		 mov	 eax, DWORD PTR [ebx+400]
  00033	c7 45 fc 00 00
	00 00		 mov	 DWORD PTR __$EHRec$[ebp+8], 0
  0003a	89 45 d8	 mov	 DWORD PTR _nCount$1$[ebp], eax

; 2205 : 	int nHogaTop, nHogaBottom, nHogaPrice;
; 2206 : 
; 2207 : 	CHogaData *pHogaDataTop = NULL;
; 2208 : 	CHogaData *pHogaDataBottom = NULL;
; 2209 : 
; 2210 : 	if( m_HogaData.GetSize() <= 0 )

  0003d	85 c0		 test	 eax, eax
  0003f	0f 8e 27 02 00
	00		 jle	 $LN30@CheckRealH
; File C:\Program Files (x86)\Microsoft Visual Studio\2019\Community\VC\Tools\MSVC\14.29.30133\atlmfc\include\afxtempl.h

; 289  : 		return m_pData[nIndex];

  00045	8b 93 8c 01 00
	00		 mov	 edx, DWORD PTR [ebx+396]
; File D:\git\src\IBK\IBK_DRFN\ProjSrc\SrcDrfn\Chart\MULTICHART\FloatingHogaDlg.cpp

; 2214 : 	pHogaDataTop = m_HogaData.GetAt(0);

  0004b	8b 32		 mov	 esi, DWORD PTR [edx]

; 2215 : 	if( pHogaDataTop == NULL )

  0004d	85 f6		 test	 esi, esi
  0004f	0f 84 17 02 00
	00		 je	 $LN30@CheckRealH

; 2219 : 	pHogaDataBottom = m_HogaData.GetAt(nCount-1);

  00055	8d 48 ff	 lea	 ecx, DWORD PTR [eax-1]
; File C:\Program Files (x86)\Microsoft Visual Studio\2019\Community\VC\Tools\MSVC\14.29.30133\atlmfc\include\afxtempl.h

; 288  : 	if(nIndex >= 0 && nIndex < m_nSize)

  00058	85 c9		 test	 ecx, ecx
  0005a	0f 88 2e 02 00
	00		 js	 $LN36@CheckRealH
  00060	3b c8		 cmp	 ecx, eax
  00062	0f 8d 26 02 00
	00		 jge	 $LN36@CheckRealH
; File D:\git\src\IBK\IBK_DRFN\ProjSrc\SrcDrfn\Chart\MULTICHART\FloatingHogaDlg.cpp

; 2219 : 	pHogaDataBottom = m_HogaData.GetAt(nCount-1);

  00068	8b 04 8a	 mov	 eax, DWORD PTR [edx+ecx*4]
  0006b	89 45 e0	 mov	 DWORD PTR _pHogaDataBottom$1$[ebp], eax

; 2220 : 	if( pHogaDataBottom == NULL )

  0006e	85 c0		 test	 eax, eax
  00070	0f 84 f6 01 00
	00		 je	 $LN30@CheckRealH

; 2221 : 		return NOT_FOUND;
; 2222 : 		
; 2223 : 	nHogaTop = atoi(m_Util.GetNumber(pHogaDataTop->m_strText));

  00076	ff 76 18	 push	 DWORD PTR [esi+24]
  00079	8d bb 84 01 00
	00		 lea	 edi, DWORD PTR [ebx+388]
  0007f	8d 45 ec	 lea	 eax, DWORD PTR $T9[ebp]
  00082	89 7d dc	 mov	 DWORD PTR tv576[ebp], edi
  00085	50		 push	 eax
  00086	8b cf		 mov	 ecx, edi
  00088	e8 00 00 00 00	 call	 ?GetNumber@CUtil@@QAE?AV?$CStringT@DV?$StrTraitMFC_DLL@DV?$ChTraitsCRT@D@ATL@@@@@ATL@@PBD@Z ; CUtil::GetNumber
  0008d	8b 35 00 00 00
	00		 mov	 esi, DWORD PTR __imp__atoi
  00093	ff 30		 push	 DWORD PTR [eax]
  00095	ff d6		 call	 esi
  00097	83 c4 04	 add	 esp, 4
  0009a	89 45 f0	 mov	 DWORD PTR _nHogaTop$1$[ebp], eax
  0009d	8d 4d ec	 lea	 ecx, DWORD PTR $T9[ebp]
  000a0	ff 15 00 00 00
	00		 call	 DWORD PTR __imp_??1?$CStringT@DV?$StrTraitMFC_DLL@DV?$ChTraitsCRT@D@ATL@@@@@ATL@@QAE@XZ

; 2224 : 	if( nHogaTop == 0 )

  000a6	83 7d f0 00	 cmp	 DWORD PTR _nHogaTop$1$[ebp], 0
  000aa	75 44		 jne	 SHORT $LN8@CheckRealH

; 2225 : 		nHogaTop = atoi(m_Util.GetNumber(m_pGridCtrl->GetItemText(HIGH_ROW, HOGA_COL)));

  000ac	8b 8b cc 00 00
	00		 mov	 ecx, DWORD PTR [ebx+204]
  000b2	8d 45 e4	 lea	 eax, DWORD PTR $T7[ebp]
  000b5	6a 04		 push	 4
  000b7	6a 02		 push	 2
  000b9	50		 push	 eax
  000ba	e8 00 00 00 00	 call	 ?GetItemText@CExGridCtrl@@QAE?AV?$CStringT@DV?$StrTraitMFC_DLL@DV?$ChTraitsCRT@D@ATL@@@@@ATL@@HH@Z ; CExGridCtrl::GetItemText
  000bf	ff 30		 push	 DWORD PTR [eax]
  000c1	8d 45 ec	 lea	 eax, DWORD PTR $T8[ebp]
  000c4	c6 45 fc 01	 mov	 BYTE PTR __$EHRec$[ebp+8], 1
  000c8	50		 push	 eax
  000c9	8b cf		 mov	 ecx, edi
  000cb	e8 00 00 00 00	 call	 ?GetNumber@CUtil@@QAE?AV?$CStringT@DV?$StrTraitMFC_DLL@DV?$ChTraitsCRT@D@ATL@@@@@ATL@@PBD@Z ; CUtil::GetNumber
  000d0	ff 30		 push	 DWORD PTR [eax]
  000d2	ff d6		 call	 esi
  000d4	83 c4 04	 add	 esp, 4
  000d7	89 45 f0	 mov	 DWORD PTR _nHogaTop$1$[ebp], eax
  000da	8d 4d ec	 lea	 ecx, DWORD PTR $T8[ebp]
  000dd	ff 15 00 00 00
	00		 call	 DWORD PTR __imp_??1?$CStringT@DV?$StrTraitMFC_DLL@DV?$ChTraitsCRT@D@ATL@@@@@ATL@@QAE@XZ
  000e3	8d 4d e4	 lea	 ecx, DWORD PTR $T7[ebp]
  000e6	c6 45 fc 00	 mov	 BYTE PTR __$EHRec$[ebp+8], 0
  000ea	ff 15 00 00 00
	00		 call	 DWORD PTR __imp_??1?$CStringT@DV?$StrTraitMFC_DLL@DV?$ChTraitsCRT@D@ATL@@@@@ATL@@QAE@XZ
$LN8@CheckRealH:

; 2226 : 	
; 2227 : 	nHogaBottom = atoi(m_Util.GetNumber(pHogaDataBottom->m_strText));

  000f0	8b 45 e0	 mov	 eax, DWORD PTR _pHogaDataBottom$1$[ebp]
  000f3	8b cf		 mov	 ecx, edi
  000f5	ff 70 18	 push	 DWORD PTR [eax+24]
  000f8	8d 45 e0	 lea	 eax, DWORD PTR $T4[ebp]
  000fb	50		 push	 eax
  000fc	e8 00 00 00 00	 call	 ?GetNumber@CUtil@@QAE?AV?$CStringT@DV?$StrTraitMFC_DLL@DV?$ChTraitsCRT@D@ATL@@@@@ATL@@PBD@Z ; CUtil::GetNumber
  00101	ff 30		 push	 DWORD PTR [eax]
  00103	ff d6		 call	 esi
  00105	83 c4 04	 add	 esp, 4
  00108	89 45 ec	 mov	 DWORD PTR _nHogaBottom$1$[ebp], eax
  0010b	8d 4d e0	 lea	 ecx, DWORD PTR $T4[ebp]
  0010e	ff 15 00 00 00
	00		 call	 DWORD PTR __imp_??1?$CStringT@DV?$StrTraitMFC_DLL@DV?$ChTraitsCRT@D@ATL@@@@@ATL@@QAE@XZ

; 2228 : 	if( nHogaBottom == 0 )

  00114	83 7d ec 00	 cmp	 DWORD PTR _nHogaBottom$1$[ebp], 0
  00118	75 48		 jne	 SHORT $LN9@CheckRealH

; 2229 : 		nHogaBottom = atoi(m_Util.GetNumber(m_pGridCtrl->GetItemText(m_nLowLimitRow, HOGA_COL)));

  0011a	8b 8b cc 00 00
	00		 mov	 ecx, DWORD PTR [ebx+204]
  00120	8d 45 e4	 lea	 eax, DWORD PTR $T6[ebp]
  00123	6a 04		 push	 4
  00125	ff b3 d0 01 00
	00		 push	 DWORD PTR [ebx+464]
  0012b	50		 push	 eax
  0012c	e8 00 00 00 00	 call	 ?GetItemText@CExGridCtrl@@QAE?AV?$CStringT@DV?$StrTraitMFC_DLL@DV?$ChTraitsCRT@D@ATL@@@@@ATL@@HH@Z ; CExGridCtrl::GetItemText
  00131	ff 30		 push	 DWORD PTR [eax]
  00133	8d 45 e0	 lea	 eax, DWORD PTR $T3[ebp]
  00136	c6 45 fc 02	 mov	 BYTE PTR __$EHRec$[ebp+8], 2
  0013a	50		 push	 eax
  0013b	8b cf		 mov	 ecx, edi
  0013d	e8 00 00 00 00	 call	 ?GetNumber@CUtil@@QAE?AV?$CStringT@DV?$StrTraitMFC_DLL@DV?$ChTraitsCRT@D@ATL@@@@@ATL@@PBD@Z ; CUtil::GetNumber
  00142	ff 30		 push	 DWORD PTR [eax]
  00144	ff d6		 call	 esi
  00146	83 c4 04	 add	 esp, 4
  00149	89 45 ec	 mov	 DWORD PTR _nHogaBottom$1$[ebp], eax
  0014c	8d 4d e0	 lea	 ecx, DWORD PTR $T3[ebp]
  0014f	ff 15 00 00 00
	00		 call	 DWORD PTR __imp_??1?$CStringT@DV?$StrTraitMFC_DLL@DV?$ChTraitsCRT@D@ATL@@@@@ATL@@QAE@XZ
  00155	8d 4d e4	 lea	 ecx, DWORD PTR $T6[ebp]
  00158	c6 45 fc 00	 mov	 BYTE PTR __$EHRec$[ebp+8], 0
  0015c	ff 15 00 00 00
	00		 call	 DWORD PTR __imp_??1?$CStringT@DV?$StrTraitMFC_DLL@DV?$ChTraitsCRT@D@ATL@@@@@ATL@@QAE@XZ
$LN9@CheckRealH:

; 2230 : 
; 2231 : 	nHogaPrice = atoi(m_Util.GetNumber(strData));

  00162	ff 75 08	 push	 DWORD PTR _strData$[ebp]
  00165	8d 45 e0	 lea	 eax, DWORD PTR $T2[ebp]
  00168	8b cf		 mov	 ecx, edi
  0016a	50		 push	 eax
  0016b	e8 00 00 00 00	 call	 ?GetNumber@CUtil@@QAE?AV?$CStringT@DV?$StrTraitMFC_DLL@DV?$ChTraitsCRT@D@ATL@@@@@ATL@@PBD@Z ; CUtil::GetNumber
  00170	ff 30		 push	 DWORD PTR [eax]
  00172	ff d6		 call	 esi
  00174	83 c4 04	 add	 esp, 4
  00177	8d 4d e0	 lea	 ecx, DWORD PTR $T2[ebp]
  0017a	8b f0		 mov	 esi, eax
  0017c	ff 15 00 00 00
	00		 call	 DWORD PTR __imp_??1?$CStringT@DV?$StrTraitMFC_DLL@DV?$ChTraitsCRT@D@ATL@@@@@ATL@@QAE@XZ

; 2232 : 
; 2233 : 	//   
; 2234 : 	if( nHogaTop < nHogaPrice )				//  10  

  00182	39 75 f0	 cmp	 DWORD PTR _nHogaTop$1$[ebp], esi
  00185	7d 0a		 jge	 SHORT $LN10@CheckRealH

; 2235 : 	{
; 2236 : 		return BIG_HOGA;

  00187	be 01 00 00 00	 mov	 esi, 1
  0018c	e9 de 00 00 00	 jmp	 $LN34@CheckRealH
$LN10@CheckRealH:

; 2237 : 	}
; 2238 : 	else if( nHogaBottom > nHogaPrice )		//  10  

  00191	39 75 ec	 cmp	 DWORD PTR _nHogaBottom$1$[ebp], esi
  00194	7e 0a		 jle	 SHORT $LN12@CheckRealH

; 2239 : 	{
; 2240 : 		return SMALL_HOGA;

  00196	be 02 00 00 00	 mov	 esi, 2
  0019b	e9 cf 00 00 00	 jmp	 $LN34@CheckRealH
$LN12@CheckRealH:

; 2241 : 	}
; 2242 : 	
; 2243 : 	int i;	
; 2244 : 	CHogaData *pHogaData = NULL;
; 2245 : 	BOOL bFind = FALSE;

  001a0	33 c0		 xor	 eax, eax

; 2246 : 	for(i=0; i<nCount; i++)

  001a2	33 f6		 xor	 esi, esi
  001a4	89 45 ec	 mov	 DWORD PTR _bFind$1$[ebp], eax
$LL4@CheckRealH:
; File C:\Program Files (x86)\Microsoft Visual Studio\2019\Community\VC\Tools\MSVC\14.29.30133\atlmfc\include\afxtempl.h

; 288  : 	if(nIndex >= 0 && nIndex < m_nSize)

  001a7	85 f6		 test	 esi, esi
  001a9	0f 88 df 00 00
	00		 js	 $LN36@CheckRealH
  001af	3b b3 90 01 00
	00		 cmp	 esi, DWORD PTR [ebx+400]
  001b5	0f 8d d3 00 00
	00		 jge	 $LN36@CheckRealH

; 289  : 		return m_pData[nIndex];

  001bb	8b 83 8c 01 00
	00		 mov	 eax, DWORD PTR [ebx+396]
; File D:\git\src\IBK\IBK_DRFN\ProjSrc\SrcDrfn\Chart\MULTICHART\FloatingHogaDlg.cpp

; 2248 : 		pHogaData = m_HogaData.GetAt(i);

  001c1	8b 3c b0	 mov	 edi, DWORD PTR [eax+esi*4]

; 2249 : 		if( pHogaData == NULL )

  001c4	85 ff		 test	 edi, edi
  001c6	0f 84 82 00 00
	00		 je	 $LN2@CheckRealH
; File C:\Program Files (x86)\Microsoft Visual Studio\2019\Community\VC\Tools\MSVC\14.29.30133\atlmfc\include\cstringt.h

; 2479 : 		return(str1.Compare(str2) == 0);

  001cc	ff 75 08	 push	 DWORD PTR _strData$[ebp]
; File D:\git\src\IBK\IBK_DRFN\ProjSrc\SrcDrfn\Chart\MULTICHART\FloatingHogaDlg.cpp

; 2252 : 		if( pHogaData->m_strText == strData )

  001cf	8d 47 18	 lea	 eax, DWORD PTR [edi+24]
; File C:\Program Files (x86)\Microsoft Visual Studio\2019\Community\VC\Tools\MSVC\14.29.30133\atlmfc\include\cstringt.h

; 2479 : 		return(str1.Compare(str2) == 0);

  001d2	8b c8		 mov	 ecx, eax
; File D:\git\src\IBK\IBK_DRFN\ProjSrc\SrcDrfn\Chart\MULTICHART\FloatingHogaDlg.cpp

; 2252 : 		if( pHogaData->m_strText == strData )

  001d4	89 45 e0	 mov	 DWORD PTR tv575[ebp], eax
; File C:\Program Files (x86)\Microsoft Visual Studio\2019\Community\VC\Tools\MSVC\14.29.30133\atlmfc\include\cstringt.h

; 2479 : 		return(str1.Compare(str2) == 0);

  001d7	ff 15 00 00 00
	00		 call	 DWORD PTR __imp_?Compare@?$CStringT@DV?$StrTraitMFC_DLL@DV?$ChTraitsCRT@D@ATL@@@@@ATL@@QBEHPBD@Z
  001dd	85 c0		 test	 eax, eax
; File D:\git\src\IBK\IBK_DRFN\ProjSrc\SrcDrfn\Chart\MULTICHART\FloatingHogaDlg.cpp

; 2252 : 		if( pHogaData->m_strText == strData )

  001df	74 7b		 je	 SHORT $LN78@CheckRealH

; 2256 : 		}				
; 2257 : 		else 
; 2258 : 		{
; 2259 : 			if( bFind == FALSE )

  001e1	83 7d ec 00	 cmp	 DWORD PTR _bFind$1$[ebp], 0
  001e5	75 67		 jne	 SHORT $LN2@CheckRealH

; 2261 : 				if( atol(m_Util.GetOnlyNumber(pHogaData->m_strText)) < atol(m_Util.GetOnlyNumber(strData)))

  001e7	8b 45 e0	 mov	 eax, DWORD PTR tv575[ebp]
  001ea	8b 4d dc	 mov	 ecx, DWORD PTR tv576[ebp]
  001ed	ff 30		 push	 DWORD PTR [eax]
  001ef	8d 45 f0	 lea	 eax, DWORD PTR $T10[ebp]
  001f2	50		 push	 eax
  001f3	e8 00 00 00 00	 call	 ?GetOnlyNumber@CUtil@@QAE?AV?$CStringT@DV?$StrTraitMFC_DLL@DV?$ChTraitsCRT@D@ATL@@@@@ATL@@PBD@Z ; CUtil::GetOnlyNumber
  001f8	8b d8		 mov	 ebx, eax
  001fa	ff 75 08	 push	 DWORD PTR _strData$[ebp]
  001fd	8b 4d dc	 mov	 ecx, DWORD PTR tv576[ebp]
  00200	8d 45 e4	 lea	 eax, DWORD PTR $T5[ebp]
  00203	50		 push	 eax
  00204	c6 45 fc 03	 mov	 BYTE PTR __$EHRec$[ebp+8], 3
  00208	e8 00 00 00 00	 call	 ?GetOnlyNumber@CUtil@@QAE?AV?$CStringT@DV?$StrTraitMFC_DLL@DV?$ChTraitsCRT@D@ATL@@@@@ATL@@PBD@Z ; CUtil::GetOnlyNumber
  0020d	ff 33		 push	 DWORD PTR [ebx]
; File C:\Program Files (x86)\Microsoft Visual Studio\2019\Community\VC\Tools\MSVC\14.29.30133\atlmfc\include\atlsimpstr.h

; 377  : 		return( m_pszData );

  0020f	8b 38		 mov	 edi, DWORD PTR [eax]
; File D:\git\src\IBK\IBK_DRFN\ProjSrc\SrcDrfn\Chart\MULTICHART\FloatingHogaDlg.cpp

; 2261 : 				if( atol(m_Util.GetOnlyNumber(pHogaData->m_strText)) < atol(m_Util.GetOnlyNumber(strData)))

  00211	ff 15 00 00 00
	00		 call	 DWORD PTR __imp__atol
  00217	57		 push	 edi
  00218	8b d8		 mov	 ebx, eax
  0021a	ff 15 00 00 00
	00		 call	 DWORD PTR __imp__atol
  00220	83 c4 08	 add	 esp, 8
  00223	8d 4d e4	 lea	 ecx, DWORD PTR $T5[ebp]
  00226	8b f8		 mov	 edi, eax
  00228	ff 15 00 00 00
	00		 call	 DWORD PTR __imp_??1?$CStringT@DV?$StrTraitMFC_DLL@DV?$ChTraitsCRT@D@ATL@@@@@ATL@@QAE@XZ
  0022e	8d 4d f0	 lea	 ecx, DWORD PTR $T10[ebp]
  00231	c6 45 fc 00	 mov	 BYTE PTR __$EHRec$[ebp+8], 0
  00235	ff 15 00 00 00
	00		 call	 DWORD PTR __imp_??1?$CStringT@DV?$StrTraitMFC_DLL@DV?$ChTraitsCRT@D@ATL@@@@@ATL@@QAE@XZ
  0023b	3b df		 cmp	 ebx, edi
  0023d	8b 5d e8	 mov	 ebx, DWORD PTR _this$1$[ebp]
  00240	7d 0c		 jge	 SHORT $LN2@CheckRealH

; 2262 : 				{
; 2263 : 					*nIndex = i;

  00242	8b 45 0c	 mov	 eax, DWORD PTR _nIndex$[ebp]

; 2264 : 					bFind = TRUE;

  00245	c7 45 ec 01 00
	00 00		 mov	 DWORD PTR _bFind$1$[ebp], 1
  0024c	89 30		 mov	 DWORD PTR [eax], esi
$LN2@CheckRealH:

; 2246 : 	for(i=0; i<nCount; i++)

  0024e	46		 inc	 esi
  0024f	3b 75 d8	 cmp	 esi, DWORD PTR _nCount$1$[ebp]
  00252	0f 8c 4f ff ff
	ff		 jl	 $LL4@CheckRealH

; 2265 : 				}
; 2266 : 			}
; 2267 : 		}
; 2268 : 	}
; 2269 : 
; 2270 : 	return WITHIN_HOGA;

  00258	33 f6		 xor	 esi, esi
  0025a	eb 13		 jmp	 SHORT $LN34@CheckRealH
$LN78@CheckRealH:

; 2253 : 		{
; 2254 : 			pHogaData->m_nRow = m_nHogaRow;

  0025c	8b 83 00 02 00
	00		 mov	 eax, DWORD PTR [ebx+512]

; 2255 : 			return EQUAL_HOGA;			

  00262	be 03 00 00 00	 mov	 esi, 3
  00267	89 47 04	 mov	 DWORD PTR [edi+4], eax
  0026a	eb 03		 jmp	 SHORT $LN34@CheckRealH
$LN30@CheckRealH:
  0026c	83 ce ff	 or	 esi, -1
$LN34@CheckRealH:

; 2265 : 				}
; 2266 : 			}
; 2267 : 		}
; 2268 : 	}
; 2269 : 
; 2270 : 	return WITHIN_HOGA;

  0026f	8d 4d 08	 lea	 ecx, DWORD PTR _strData$[ebp]
  00272	ff 15 00 00 00
	00		 call	 DWORD PTR __imp_??1?$CStringT@DV?$StrTraitMFC_DLL@DV?$ChTraitsCRT@D@ATL@@@@@ATL@@QAE@XZ
  00278	8b c6		 mov	 eax, esi

; 2271 : }

  0027a	8b 4d f4	 mov	 ecx, DWORD PTR __$EHRec$[ebp]
  0027d	64 89 0d 00 00
	00 00		 mov	 DWORD PTR fs:0, ecx
  00284	59		 pop	 ecx
  00285	5f		 pop	 edi
  00286	5e		 pop	 esi
  00287	5b		 pop	 ebx
  00288	8b e5		 mov	 esp, ebp
  0028a	5d		 pop	 ebp
  0028b	c2 08 00	 ret	 8
$LN36@CheckRealH:
; File C:\Program Files (x86)\Microsoft Visual Studio\2019\Community\VC\Tools\MSVC\14.29.30133\atlmfc\include\afxtempl.h

; 290  : 	AfxThrowInvalidArgException();

  0028e	e8 00 00 00 00	 call	 ?AfxThrowInvalidArgException@@YGXXZ ; AfxThrowInvalidArgException
$LN85@CheckRealH:
  00293	cc		 int	 3
_TEXT	ENDS
;	COMDAT text$x
text$x	SEGMENT
__unwindfunclet$?CheckRealHogaDataWithinHogaData@CFloatingHogaDlg@@QAEHV?$CStringT@DV?$StrTraitMFC_DLL@DV?$ChTraitsCRT@D@ATL@@@@@ATL@@PAH@Z$0:
  00000	8d 4d 08	 lea	 ecx, DWORD PTR _strData$[ebp]
  00003	ff 25 00 00 00
	00		 jmp	 DWORD PTR __imp_??1?$CStringT@DV?$StrTraitMFC_DLL@DV?$ChTraitsCRT@D@ATL@@@@@ATL@@QAE@XZ
__unwindfunclet$?CheckRealHogaDataWithinHogaData@CFloatingHogaDlg@@QAEHV?$CStringT@DV?$StrTraitMFC_DLL@DV?$ChTraitsCRT@D@ATL@@@@@ATL@@PAH@Z$2:
  00009	8d 4d e4	 lea	 ecx, DWORD PTR $T7[ebp]
  0000c	ff 25 00 00 00
	00		 jmp	 DWORD PTR __imp_??1?$CStringT@DV?$StrTraitMFC_DLL@DV?$ChTraitsCRT@D@ATL@@@@@ATL@@QAE@XZ
__unwindfunclet$?CheckRealHogaDataWithinHogaData@CFloatingHogaDlg@@QAEHV?$CStringT@DV?$StrTraitMFC_DLL@DV?$ChTraitsCRT@D@ATL@@@@@ATL@@PAH@Z$5:
  00012	8d 4d e4	 lea	 ecx, DWORD PTR $T6[ebp]
  00015	ff 25 00 00 00
	00		 jmp	 DWORD PTR __imp_??1?$CStringT@DV?$StrTraitMFC_DLL@DV?$ChTraitsCRT@D@ATL@@@@@ATL@@QAE@XZ
__unwindfunclet$?CheckRealHogaDataWithinHogaData@CFloatingHogaDlg@@QAEHV?$CStringT@DV?$StrTraitMFC_DLL@DV?$ChTraitsCRT@D@ATL@@@@@ATL@@PAH@Z$8:
  0001b	8d 4d f0	 lea	 ecx, DWORD PTR $T10[ebp]
  0001e	ff 25 00 00 00
	00		 jmp	 DWORD PTR __imp_??1?$CStringT@DV?$StrTraitMFC_DLL@DV?$ChTraitsCRT@D@ATL@@@@@ATL@@QAE@XZ
  00024	cc		 int	 3
  00025	cc		 int	 3
  00026	cc		 int	 3
  00027	cc		 int	 3
  00028	cc		 int	 3
__ehhandler$?CheckRealHogaDataWithinHogaData@CFloatingHogaDlg@@QAEHV?$CStringT@DV?$StrTraitMFC_DLL@DV?$ChTraitsCRT@D@ATL@@@@@ATL@@PAH@Z:
  00029	90		 npad	 1
  0002a	90		 npad	 1
  0002b	8b 54 24 08	 mov	 edx, DWORD PTR [esp+8]
  0002f	8d 42 0c	 lea	 eax, DWORD PTR [edx+12]
  00032	8b 4a d4	 mov	 ecx, DWORD PTR [edx-44]
  00035	33 c8		 xor	 ecx, eax
  00037	e8 00 00 00 00	 call	 @__security_check_cookie@4
  0003c	b8 00 00 00 00	 mov	 eax, OFFSET __ehfuncinfo$?CheckRealHogaDataWithinHogaData@CFloatingHogaDlg@@QAEHV?$CStringT@DV?$StrTraitMFC_DLL@DV?$ChTraitsCRT@D@ATL@@@@@ATL@@PAH@Z
  00041	e9 00 00 00 00	 jmp	 ___CxxFrameHandler3
text$x	ENDS
?CheckRealHogaDataWithinHogaData@CFloatingHogaDlg@@QAEHV?$CStringT@DV?$StrTraitMFC_DLL@DV?$ChTraitsCRT@D@ATL@@@@@ATL@@PAH@Z ENDP ; CFloatingHogaDlg::CheckRealHogaDataWithinHogaData
; Function compile flags: /Ogtp
; File D:\git\src\IBK\IBK_DRFN\ProjSrc\SrcDrfn\Chart\MULTICHART\FloatingHogaDlg.cpp
;	COMDAT ?SetRealHogaData_Rem@CFloatingHogaDlg@@QAEXV?$CStringT@DV?$StrTraitMFC_DLL@DV?$ChTraitsCRT@D@ATL@@@@@ATL@@H@Z
_TEXT	SEGMENT
_sTemp1$ = -16						; size = 4
__$EHRec$ = -12						; size = 12
_strNumber$ = 8						; size = 4
$T2 = 12						; size = 4
_bMaeDo$ = 12						; size = 4
?SetRealHogaData_Rem@CFloatingHogaDlg@@QAEXV?$CStringT@DV?$StrTraitMFC_DLL@DV?$ChTraitsCRT@D@ATL@@@@@ATL@@H@Z PROC ; CFloatingHogaDlg::SetRealHogaData_Rem, COMDAT
; _this$ = ecx

; 2466 : {

  00000	55		 push	 ebp
  00001	8b ec		 mov	 ebp, esp
  00003	6a ff		 push	 -1
  00005	68 00 00 00 00	 push	 __ehhandler$?SetRealHogaData_Rem@CFloatingHogaDlg@@QAEXV?$CStringT@DV?$StrTraitMFC_DLL@DV?$ChTraitsCRT@D@ATL@@@@@ATL@@H@Z
  0000a	64 a1 00 00 00
	00		 mov	 eax, DWORD PTR fs:0
  00010	50		 push	 eax
  00011	51		 push	 ecx
  00012	56		 push	 esi
  00013	57		 push	 edi
  00014	a1 00 00 00 00	 mov	 eax, DWORD PTR ___security_cookie
  00019	33 c5		 xor	 eax, ebp
  0001b	50		 push	 eax
  0001c	8d 45 f4	 lea	 eax, DWORD PTR __$EHRec$[ebp]
  0001f	64 a3 00 00 00
	00		 mov	 DWORD PTR fs:0, eax
  00025	8b f9		 mov	 edi, ecx

; 2467 : 	CString		sTemp1;

  00027	8d 4d f0	 lea	 ecx, DWORD PTR _sTemp1$[ebp]
  0002a	c7 45 fc 00 00
	00 00		 mov	 DWORD PTR __$EHRec$[ebp+8], 0
  00031	ff 15 00 00 00
	00		 call	 DWORD PTR __imp_??0?$CStringT@DV?$StrTraitMFC_DLL@DV?$ChTraitsCRT@D@ATL@@@@@ATL@@QAE@XZ

; 2468 : 	int			nCol;
; 2469 : 
; 2470 : 	// 
; 2471 : 	nCol = (bMaeDo == TRUE) ? MAEDO_JAN_COL : MAESU_JAN_COL;

  00037	83 7d 0c 01	 cmp	 DWORD PTR _bMaeDo$[ebp], 1

; 2472 : 	sTemp1 = m_Util.GetComma(strNumber);

  0003b	8d 8f 84 01 00
	00		 lea	 ecx, DWORD PTR [edi+388]
  00041	ff 75 08	 push	 DWORD PTR _strNumber$[ebp]
  00044	b8 03 00 00 00	 mov	 eax, 3
  00049	c6 45 fc 01	 mov	 BYTE PTR __$EHRec$[ebp+8], 1
  0004d	be 06 00 00 00	 mov	 esi, 6
  00052	0f 44 f0	 cmove	 esi, eax
  00055	8d 45 0c	 lea	 eax, DWORD PTR $T2[ebp]
  00058	50		 push	 eax
  00059	e8 00 00 00 00	 call	 ?GetComma@CUtil@@QAE?AV?$CStringT@DV?$StrTraitMFC_DLL@DV?$ChTraitsCRT@D@ATL@@@@@ATL@@PBD@Z ; CUtil::GetComma
  0005e	50		 push	 eax
  0005f	8d 4d f0	 lea	 ecx, DWORD PTR _sTemp1$[ebp]
  00062	c6 45 fc 02	 mov	 BYTE PTR __$EHRec$[ebp+8], 2
  00066	ff 15 00 00 00
	00		 call	 DWORD PTR __imp_??4?$CStringT@DV?$StrTraitMFC_DLL@DV?$ChTraitsCRT@D@ATL@@@@@ATL@@QAEAAV01@ABV01@@Z
  0006c	8d 4d 0c	 lea	 ecx, DWORD PTR $T2[ebp]
  0006f	c6 45 fc 01	 mov	 BYTE PTR __$EHRec$[ebp+8], 1
  00073	ff 15 00 00 00
	00		 call	 DWORD PTR __imp_??1?$CStringT@DV?$StrTraitMFC_DLL@DV?$ChTraitsCRT@D@ATL@@@@@ATL@@QAE@XZ

; 2473 : 	CompareNUpdateHogaData(m_nHogaRow, nCol, sTemp1, GVIF_FGCLR, COLOR_BLACK);

  00079	6a 00		 push	 0
  0007b	6a 20		 push	 32			; 00000020H
  0007d	51		 push	 ecx
  0007e	8d 45 f0	 lea	 eax, DWORD PTR _sTemp1$[ebp]
  00081	8b cc		 mov	 ecx, esp
  00083	50		 push	 eax
  00084	ff 15 00 00 00
	00		 call	 DWORD PTR __imp_??0?$CStringT@DV?$StrTraitMFC_DLL@DV?$ChTraitsCRT@D@ATL@@@@@ATL@@QAE@ABV01@@Z
  0008a	56		 push	 esi
  0008b	ff b7 00 02 00
	00		 push	 DWORD PTR [edi+512]
  00091	8b cf		 mov	 ecx, edi
  00093	e8 00 00 00 00	 call	 ?CompareNUpdateHogaData@CFloatingHogaDlg@@QAEXHHV?$CStringT@DV?$StrTraitMFC_DLL@DV?$ChTraitsCRT@D@ATL@@@@@ATL@@HK@Z ; CFloatingHogaDlg::CompareNUpdateHogaData

; 2474 : }

  00098	8d 4d f0	 lea	 ecx, DWORD PTR _sTemp1$[ebp]
  0009b	ff 15 00 00 00
	00		 call	 DWORD PTR __imp_??1?$CStringT@DV?$StrTraitMFC_DLL@DV?$ChTraitsCRT@D@ATL@@@@@ATL@@QAE@XZ
  000a1	8d 4d 08	 lea	 ecx, DWORD PTR _strNumber$[ebp]
  000a4	ff 15 00 00 00
	00		 call	 DWORD PTR __imp_??1?$CStringT@DV?$StrTraitMFC_DLL@DV?$ChTraitsCRT@D@ATL@@@@@ATL@@QAE@XZ
  000aa	8b 4d f4	 mov	 ecx, DWORD PTR __$EHRec$[ebp]
  000ad	64 89 0d 00 00
	00 00		 mov	 DWORD PTR fs:0, ecx
  000b4	59		 pop	 ecx
  000b5	5f		 pop	 edi
  000b6	5e		 pop	 esi
  000b7	8b e5		 mov	 esp, ebp
  000b9	5d		 pop	 ebp
  000ba	c2 08 00	 ret	 8
_TEXT	ENDS
;	COMDAT text$x
text$x	SEGMENT
__unwindfunclet$?SetRealHogaData_Rem@CFloatingHogaDlg@@QAEXV?$CStringT@DV?$StrTraitMFC_DLL@DV?$ChTraitsCRT@D@ATL@@@@@ATL@@H@Z$0:
  00000	8d 4d 08	 lea	 ecx, DWORD PTR _strNumber$[ebp]
  00003	ff 25 00 00 00
	00		 jmp	 DWORD PTR __imp_??1?$CStringT@DV?$StrTraitMFC_DLL@DV?$ChTraitsCRT@D@ATL@@@@@ATL@@QAE@XZ
__unwindfunclet$?SetRealHogaData_Rem@CFloatingHogaDlg@@QAEXV?$CStringT@DV?$StrTraitMFC_DLL@DV?$ChTraitsCRT@D@ATL@@@@@ATL@@H@Z$1:
  00009	8d 4d f0	 lea	 ecx, DWORD PTR _sTemp1$[ebp]
  0000c	ff 25 00 00 00
	00		 jmp	 DWORD PTR __imp_??1?$CStringT@DV?$StrTraitMFC_DLL@DV?$ChTraitsCRT@D@ATL@@@@@ATL@@QAE@XZ
__unwindfunclet$?SetRealHogaData_Rem@CFloatingHogaDlg@@QAEXV?$CStringT@DV?$StrTraitMFC_DLL@DV?$ChTraitsCRT@D@ATL@@@@@ATL@@H@Z$2:
  00012	8d 4d 0c	 lea	 ecx, DWORD PTR $T2[ebp]
  00015	ff 25 00 00 00
	00		 jmp	 DWORD PTR __imp_??1?$CStringT@DV?$StrTraitMFC_DLL@DV?$ChTraitsCRT@D@ATL@@@@@ATL@@QAE@XZ
  0001b	cc		 int	 3
  0001c	cc		 int	 3
  0001d	cc		 int	 3
  0001e	cc		 int	 3
  0001f	cc		 int	 3
__ehhandler$?SetRealHogaData_Rem@CFloatingHogaDlg@@QAEXV?$CStringT@DV?$StrTraitMFC_DLL@DV?$ChTraitsCRT@D@ATL@@@@@ATL@@H@Z:
  00020	90		 npad	 1
  00021	90		 npad	 1
  00022	8b 54 24 08	 mov	 edx, DWORD PTR [esp+8]
  00026	8d 42 0c	 lea	 eax, DWORD PTR [edx+12]
  00029	8b 4a f0	 mov	 ecx, DWORD PTR [edx-16]
  0002c	33 c8		 xor	 ecx, eax
  0002e	e8 00 00 00 00	 call	 @__security_check_cookie@4
  00033	b8 00 00 00 00	 mov	 eax, OFFSET __ehfuncinfo$?SetRealHogaData_Rem@CFloatingHogaDlg@@QAEXV?$CStringT@DV?$StrTraitMFC_DLL@DV?$ChTraitsCRT@D@ATL@@@@@ATL@@H@Z
  00038	e9 00 00 00 00	 jmp	 ___CxxFrameHandler3
text$x	ENDS
?SetRealHogaData_Rem@CFloatingHogaDlg@@QAEXV?$CStringT@DV?$StrTraitMFC_DLL@DV?$ChTraitsCRT@D@ATL@@@@@ATL@@H@Z ENDP ; CFloatingHogaDlg::SetRealHogaData_Rem
; Function compile flags: /Ogtp
; File D:\git\src\IBK\IBK_DRFN\ProjSrc\SrcDrfn\Chart\MULTICHART\FloatingHogaDlg.cpp
; File C:\Program Files (x86)\Microsoft Visual Studio\2019\Community\VC\Tools\MSVC\14.29.30133\atlmfc\include\cstringt.h
; File D:\git\src\IBK\IBK_DRFN\ProjSrc\SrcDrfn\Chart\MULTICHART\FloatingHogaDlg.cpp
; File C:\Program Files (x86)\Microsoft Visual Studio\2019\Community\VC\Tools\MSVC\14.29.30133\atlmfc\include\afx.inl
; File D:\git\src\IBK\IBK_DRFN\ProjSrc\SrcDrfn\Chart\MULTICHART\FloatingHogaDlg.cpp
; File C:\Program Files (x86)\Microsoft Visual Studio\2019\Community\VC\Tools\MSVC\14.29.30133\atlmfc\include\afxtempl.h
; File D:\git\src\IBK\IBK_DRFN\ProjSrc\SrcDrfn\Chart\MULTICHART\FloatingHogaDlg.cpp
; File C:\Program Files (x86)\Microsoft Visual Studio\2019\Community\VC\Tools\MSVC\14.29.30133\atlmfc\include\afxtempl.h
; File D:\git\src\IBK\IBK_DRFN\ProjSrc\SrcDrfn\Chart\MULTICHART\FloatingHogaDlg.cpp
; File C:\Program Files (x86)\Microsoft Visual Studio\2019\Community\VC\Tools\MSVC\14.29.30133\atlmfc\include\afxtempl.h
; File C:\Program Files (x86)\Windows Kits\10\Include\10.0.22000.0\ucrt\corecrt_memcpy_s.h
; File C:\Program Files (x86)\Microsoft Visual Studio\2019\Community\VC\Tools\MSVC\14.29.30133\atlmfc\include\atlchecked.h
; File C:\Program Files (x86)\Microsoft Visual Studio\2019\Community\VC\Tools\MSVC\14.29.30133\atlmfc\include\afxtempl.h
; File D:\git\src\IBK\IBK_DRFN\ProjSrc\SrcDrfn\Chart\MULTICHART\FloatingHogaDlg.cpp
; File C:\Program Files (x86)\Windows Kits\10\Include\10.0.22000.0\ucrt\corecrt_memcpy_s.h
; File C:\Program Files (x86)\Microsoft Visual Studio\2019\Community\VC\Tools\MSVC\14.29.30133\atlmfc\include\atlchecked.h
; File C:\Program Files (x86)\Windows Kits\10\Include\10.0.22000.0\ucrt\corecrt_memcpy_s.h
; File C:\Program Files (x86)\Microsoft Visual Studio\2019\Community\VC\Tools\MSVC\14.29.30133\atlmfc\include\afxtempl.h
; File C:\Program Files (x86)\Windows Kits\10\Include\10.0.22000.0\ucrt\corecrt_memcpy_s.h
; File C:\Program Files (x86)\Microsoft Visual Studio\2019\Community\VC\Tools\MSVC\14.29.30133\atlmfc\include\atlchecked.h
; File C:\Program Files (x86)\Windows Kits\10\Include\10.0.22000.0\ucrt\corecrt_memcpy_s.h
; File C:\Program Files (x86)\Microsoft Visual Studio\2019\Community\VC\Tools\MSVC\14.29.30133\atlmfc\include\atlchecked.h
; File C:\Program Files (x86)\Microsoft Visual Studio\2019\Community\VC\Tools\MSVC\14.29.30133\atlmfc\include\afxtempl.h
; File C:\Program Files (x86)\Microsoft Visual Studio\2019\Community\VC\Tools\MSVC\14.29.30133\atlmfc\include\atlchecked.h
; File C:\Program Files (x86)\Microsoft Visual Studio\2019\Community\VC\Tools\MSVC\14.29.30133\atlmfc\include\afxtempl.h
; File D:\git\src\IBK\IBK_DRFN\ProjSrc\SrcDrfn\Chart\MULTICHART\FloatingHogaDlg.cpp
; File C:\Program Files (x86)\Microsoft Visual Studio\2019\Community\VC\Tools\MSVC\14.29.30133\atlmfc\include\afx.inl
; File D:\git\src\IBK\IBK_DRFN\ProjSrc\SrcDrfn\Chart\MULTICHART\FloatingHogaDlg.cpp
; File C:\Program Files (x86)\Microsoft Visual Studio\2019\Community\VC\Tools\MSVC\14.29.30133\atlmfc\include\afxtempl.h
; File D:\git\src\IBK\IBK_DRFN\ProjSrc\SrcDrfn\Chart\MULTICHART\FloatingHogaDlg.cpp
;	COMDAT ?SetRealHogaData_Sub@CFloatingHogaDlg@@QAEXV?$CStringT@DV?$StrTraitMFC_DLL@DV?$ChTraitsCRT@D@ATL@@@@@ATL@@0H@Z
_TEXT	SEGMENT
_nIndex$1$ = -44					; size = 4
_nRet$1$ = -44						; size = 4
tv1452 = -40						; size = 4
$T2 = -40						; size = 4
$T3 = -40						; size = 4
_pNewData$1$ = -36					; size = 4
__S2$1$ = -32						; size = 4
$T4 = -32						; size = 4
_lTemp1$1$ = -32					; size = 4
_sTemp1$ = -28						; size = 4
$T5 = -24						; size = 4
_nIndex$6 = -24						; size = 4
$T7 = -24						; size = 4
$T8 = -24						; size = 4
__S1max$1$ = -20					; size = 4
_sTemp$9 = -20						; size = 4
_strText$ = -16						; size = 4
__$EHRec$ = -12						; size = 12
_strHoga$ = 8						; size = 4
_strPreClosePrice$ = 12					; size = 4
_bMaeDo$ = 16						; size = 4
?SetRealHogaData_Sub@CFloatingHogaDlg@@QAEXV?$CStringT@DV?$StrTraitMFC_DLL@DV?$ChTraitsCRT@D@ATL@@@@@ATL@@0H@Z PROC ; CFloatingHogaDlg::SetRealHogaData_Sub, COMDAT
; _this$ = ecx

; 2110 : {	

  00000	55		 push	 ebp
  00001	8b ec		 mov	 ebp, esp
  00003	6a ff		 push	 -1
  00005	68 00 00 00 00	 push	 __ehhandler$?SetRealHogaData_Sub@CFloatingHogaDlg@@QAEXV?$CStringT@DV?$StrTraitMFC_DLL@DV?$ChTraitsCRT@D@ATL@@@@@ATL@@0H@Z
  0000a	64 a1 00 00 00
	00		 mov	 eax, DWORD PTR fs:0
  00010	50		 push	 eax
  00011	83 ec 20	 sub	 esp, 32			; 00000020H
  00014	53		 push	 ebx
  00015	56		 push	 esi
  00016	57		 push	 edi
  00017	a1 00 00 00 00	 mov	 eax, DWORD PTR ___security_cookie
  0001c	33 c5		 xor	 eax, ebp
  0001e	50		 push	 eax
  0001f	8d 45 f4	 lea	 eax, DWORD PTR __$EHRec$[ebp]
  00022	64 a3 00 00 00
	00		 mov	 DWORD PTR fs:0, eax
  00028	8b d9		 mov	 ebx, ecx
  0002a	c7 45 fc 00 00
	00 00		 mov	 DWORD PTR __$EHRec$[ebp+8], 0

; 2111 : 	CString		sTemp1, strText;

  00031	8d 4d e4	 lea	 ecx, DWORD PTR _sTemp1$[ebp]
  00034	ff 15 00 00 00
	00		 call	 DWORD PTR __imp_??0?$CStringT@DV?$StrTraitMFC_DLL@DV?$ChTraitsCRT@D@ATL@@@@@ATL@@QAE@XZ
  0003a	8d 4d f0	 lea	 ecx, DWORD PTR _strText$[ebp]
  0003d	ff 15 00 00 00
	00		 call	 DWORD PTR __imp_??0?$CStringT@DV?$StrTraitMFC_DLL@DV?$ChTraitsCRT@D@ATL@@@@@ATL@@QAE@XZ

; 2112 : 	COLORREF	crFgClr;
; 2113 : 	int			nMask;
; 2114 : 	int			nCol;
; 2115 : 
; 2116 : 	// 
; 2117 : 	//nCol = (bMaeDo == TRUE) ? MAEDO_JAN_COL : MAESU_JAN_COL;
; 2118 : 	//sTemp1 = m_Util.GetComma(strNumber);
; 2119 : 	//CompareNUpdateHogaData(m_nHogaRow, nCol, sTemp1, GVIF_FGCLR, COLOR_BLACK);
; 2120 : 	
; 2121 : 	//  
; 2122 : 	nCol	= HOGA_COL;
; 2123 : 	strText = m_Util.GetComma(strHoga);

  00043	ff 75 08	 push	 DWORD PTR _strHoga$[ebp]
  00046	8d 4d e8	 lea	 ecx, DWORD PTR $T8[ebp]
  00049	c6 45 fc 03	 mov	 BYTE PTR __$EHRec$[ebp+8], 3
  0004d	51		 push	 ecx
  0004e	8d 8b 84 01 00
	00		 lea	 ecx, DWORD PTR [ebx+388]
  00054	e8 00 00 00 00	 call	 ?GetComma@CUtil@@QAE?AV?$CStringT@DV?$StrTraitMFC_DLL@DV?$ChTraitsCRT@D@ATL@@@@@ATL@@PBD@Z ; CUtil::GetComma
  00059	50		 push	 eax
  0005a	8d 4d f0	 lea	 ecx, DWORD PTR _strText$[ebp]
  0005d	c6 45 fc 04	 mov	 BYTE PTR __$EHRec$[ebp+8], 4
  00061	ff 15 00 00 00
	00		 call	 DWORD PTR __imp_??4?$CStringT@DV?$StrTraitMFC_DLL@DV?$ChTraitsCRT@D@ATL@@@@@ATL@@QAEAAV01@ABV01@@Z
  00067	8d 4d e8	 lea	 ecx, DWORD PTR $T8[ebp]
  0006a	c6 45 fc 03	 mov	 BYTE PTR __$EHRec$[ebp+8], 3
  0006e	ff 15 00 00 00
	00		 call	 DWORD PTR __imp_??1?$CStringT@DV?$StrTraitMFC_DLL@DV?$ChTraitsCRT@D@ATL@@@@@ATL@@QAE@XZ

; 2126 : 	if (m_nHogaRow == HIGH_ROW || m_nHogaRow == m_nLowLimitRow)

  00074	8b 83 00 02 00
	00		 mov	 eax, DWORD PTR [ebx+512]
  0007a	8b 35 00 00 00
	00		 mov	 esi, DWORD PTR __imp__atol
  00080	83 f8 02	 cmp	 eax, 2
  00083	0f 84 87 00 00
	00		 je	 $LN4@SetRealHog
  00089	3b 83 d0 01 00
	00		 cmp	 eax, DWORD PTR [ebx+464]
  0008f	74 7f		 je	 SHORT $LN4@SetRealHog

; 2129 : 	}
; 2130 : 	else
; 2131 : 	{
; 2132 : 		int lTemp1, lTemp2;
; 2133 : 		lTemp1 = atol(strHoga);

  00091	ff 75 08	 push	 DWORD PTR _strHoga$[ebp]
  00094	ff d6		 call	 esi
  00096	83 c4 04	 add	 esp, 4

; 2134 : 		CString sTemp;

  00099	8d 4d ec	 lea	 ecx, DWORD PTR _sTemp$9[ebp]
  0009c	8b f8		 mov	 edi, eax
  0009e	89 7d e0	 mov	 DWORD PTR _lTemp1$1$[ebp], edi
  000a1	ff 15 00 00 00
	00		 call	 DWORD PTR __imp_??0?$CStringT@DV?$StrTraitMFC_DLL@DV?$ChTraitsCRT@D@ATL@@@@@ATL@@QAE@XZ

; 2135 : 		sTemp = m_Util.GetNumber(strPreClosePrice);

  000a7	ff 75 0c	 push	 DWORD PTR _strPreClosePrice$[ebp]
  000aa	8d 45 e8	 lea	 eax, DWORD PTR $T7[ebp]
  000ad	c6 45 fc 05	 mov	 BYTE PTR __$EHRec$[ebp+8], 5
  000b1	50		 push	 eax
  000b2	8d 8b 84 01 00
	00		 lea	 ecx, DWORD PTR [ebx+388]
  000b8	e8 00 00 00 00	 call	 ?GetNumber@CUtil@@QAE?AV?$CStringT@DV?$StrTraitMFC_DLL@DV?$ChTraitsCRT@D@ATL@@@@@ATL@@PBD@Z ; CUtil::GetNumber
  000bd	50		 push	 eax
  000be	8d 4d ec	 lea	 ecx, DWORD PTR _sTemp$9[ebp]
  000c1	c6 45 fc 06	 mov	 BYTE PTR __$EHRec$[ebp+8], 6
  000c5	ff 15 00 00 00
	00		 call	 DWORD PTR __imp_??4?$CStringT@DV?$StrTraitMFC_DLL@DV?$ChTraitsCRT@D@ATL@@@@@ATL@@QAEAAV01@ABV01@@Z
  000cb	8d 4d e8	 lea	 ecx, DWORD PTR $T7[ebp]
  000ce	ff 15 00 00 00
	00		 call	 DWORD PTR __imp_??1?$CStringT@DV?$StrTraitMFC_DLL@DV?$ChTraitsCRT@D@ATL@@@@@ATL@@QAE@XZ

; 2136 : 		lTemp2 = atol(sTemp);

  000d4	ff 75 ec	 push	 DWORD PTR _sTemp$9[ebp]
  000d7	ff d6		 call	 esi
  000d9	83 c4 04	 add	 esp, 4

; 2137 : 		
; 2138 : 		if( lTemp1 > lTemp2 )			

  000dc	3b f8		 cmp	 edi, eax
  000de	7e 14		 jle	 SHORT $LN5@SetRealHog

; 2141 : 			crFgClr = COLOR_BLUE;		// 
; 2142 : 		else
; 2143 : 			crFgClr = COLOR_BLACK;
; 2144 : 	}

  000e0	8d 4d ec	 lea	 ecx, DWORD PTR _sTemp$9[ebp]
  000e3	c6 45 fc 03	 mov	 BYTE PTR __$EHRec$[ebp+8], 3
  000e7	bf ff 00 00 00	 mov	 edi, 255		; 000000ffH
  000ec	ff 15 00 00 00
	00		 call	 DWORD PTR __imp_??1?$CStringT@DV?$StrTraitMFC_DLL@DV?$ChTraitsCRT@D@ATL@@@@@ATL@@QAE@XZ
  000f2	eb 21		 jmp	 SHORT $LN3@SetRealHog
$LN5@SetRealHog:

; 2139 : 			crFgClr = COLOR_RED;		// 
; 2140 : 		else if( lTemp1 < lTemp2 )		

  000f4	33 ff		 xor	 edi, edi

; 2141 : 			crFgClr = COLOR_BLUE;		// 
; 2142 : 		else
; 2143 : 			crFgClr = COLOR_BLACK;
; 2144 : 	}

  000f6	c6 45 fc 03	 mov	 BYTE PTR __$EHRec$[ebp+8], 3
  000fa	39 45 e0	 cmp	 DWORD PTR _lTemp1$1$[ebp], eax
  000fd	b9 00 00 ff 00	 mov	 ecx, 16711680		; 00ff0000H
  00102	0f 4c f9	 cmovl	 edi, ecx
  00105	8d 4d ec	 lea	 ecx, DWORD PTR _sTemp$9[ebp]
  00108	ff 15 00 00 00
	00		 call	 DWORD PTR __imp_??1?$CStringT@DV?$StrTraitMFC_DLL@DV?$ChTraitsCRT@D@ATL@@@@@ATL@@QAE@XZ
  0010e	eb 05		 jmp	 SHORT $LN3@SetRealHog
$LN4@SetRealHog:

; 2127 : 	{
; 2128 : 		crFgClr = COLOR_WHITE;

  00110	bf ff ff ff 00	 mov	 edi, 16777215		; 00ffffffH
$LN3@SetRealHog:

; 2145 : 
; 2146 : 	nMask = GVIF_FGCLR;	
; 2147 : 	CompareNUpdateHogaData(m_nHogaRow, nCol, strText, nMask, crFgClr);

  00115	57		 push	 edi
  00116	6a 20		 push	 32			; 00000020H
  00118	51		 push	 ecx
  00119	8d 45 f0	 lea	 eax, DWORD PTR _strText$[ebp]
  0011c	8b cc		 mov	 ecx, esp
  0011e	50		 push	 eax
  0011f	ff 15 00 00 00
	00		 call	 DWORD PTR __imp_??0?$CStringT@DV?$StrTraitMFC_DLL@DV?$ChTraitsCRT@D@ATL@@@@@ATL@@QAE@ABV01@@Z
  00125	6a 04		 push	 4
  00127	ff b3 00 02 00
	00		 push	 DWORD PTR [ebx+512]
  0012d	8b cb		 mov	 ecx, ebx
  0012f	e8 00 00 00 00	 call	 ?CompareNUpdateHogaData@CFloatingHogaDlg@@QAEXHHV?$CStringT@DV?$StrTraitMFC_DLL@DV?$ChTraitsCRT@D@ATL@@@@@ATL@@HK@Z ; CFloatingHogaDlg::CompareNUpdateHogaData

; 2148 : 	
; 2149 : 	//           
; 2150 : 	// m_HogaDataList   .
; 2151 : 	if( nCol == HOGA_COL && atol(strHoga) != 0 )

  00134	ff 75 08	 push	 DWORD PTR _strHoga$[ebp]
  00137	ff d6		 call	 esi
  00139	83 c4 04	 add	 esp, 4
  0013c	85 c0		 test	 eax, eax
  0013e	0f 84 a3 03 00
	00		 je	 $LN16@SetRealHog
; File C:\Program Files (x86)\Microsoft Visual Studio\2019\Community\VC\Tools\MSVC\14.29.30133\atlmfc\include\cstringt.h

; 2486 : 		return(str1.Compare(psz2) == 0);

  00144	68 00 00 00 00	 push	 OFFSET ??_C@_00CNPNBAHC@@
  00149	8d 4d f0	 lea	 ecx, DWORD PTR _strText$[ebp]
  0014c	ff 15 00 00 00
	00		 call	 DWORD PTR __imp_?Compare@?$CStringT@DV?$StrTraitMFC_DLL@DV?$ChTraitsCRT@D@ATL@@@@@ATL@@QBEHPBD@Z
  00152	85 c0		 test	 eax, eax
; File D:\git\src\IBK\IBK_DRFN\ProjSrc\SrcDrfn\Chart\MULTICHART\FloatingHogaDlg.cpp

; 2153 : 		if( strText == "" )

  00154	75 0b		 jne	 SHORT $LN10@SetRealHog

; 2154 : 		{
; 2155 : 			m_nHogaRow++;

  00156	ff 83 00 02 00
	00		 inc	 DWORD PTR [ebx+512]
  0015c	e9 86 03 00 00	 jmp	 $LN16@SetRealHog
$LN10@SetRealHog:

; 2156 : 			return;
; 2157 : 		}
; 2158 : 		
; 2159 : 		int nIndex = -1;
; 2160 : 		int nRet = CheckRealHogaDataWithinHogaData(strText, &nIndex);

  00161	8d 45 e8	 lea	 eax, DWORD PTR _nIndex$6[ebp]
  00164	c7 45 e8 ff ff
	ff ff		 mov	 DWORD PTR _nIndex$6[ebp], -1
  0016b	50		 push	 eax
  0016c	51		 push	 ecx
  0016d	8d 45 f0	 lea	 eax, DWORD PTR _strText$[ebp]
  00170	8b cc		 mov	 ecx, esp
  00172	50		 push	 eax
  00173	ff 15 00 00 00
	00		 call	 DWORD PTR __imp_??0?$CStringT@DV?$StrTraitMFC_DLL@DV?$ChTraitsCRT@D@ATL@@@@@ATL@@QAE@ABV01@@Z
  00179	8b cb		 mov	 ecx, ebx
  0017b	e8 00 00 00 00	 call	 ?CheckRealHogaDataWithinHogaData@CFloatingHogaDlg@@QAEHV?$CStringT@DV?$StrTraitMFC_DLL@DV?$ChTraitsCRT@D@ATL@@@@@ATL@@PAH@Z ; CFloatingHogaDlg::CheckRealHogaDataWithinHogaData
  00180	89 45 d4	 mov	 DWORD PTR _nRet$1$[ebp], eax

; 2161 : 
; 2162 : 		if( nRet == BIG_HOGA || nRet == SMALL_HOGA )

  00183	83 f8 01	 cmp	 eax, 1
  00186	0f 84 e4 02 00
	00		 je	 $LN13@SetRealHog
  0018c	83 f8 02	 cmp	 eax, 2
  0018f	0f 84 db 02 00
	00		 je	 $LN13@SetRealHog

; 2180 : 		}	
; 2181 : 		else if( nRet == WITHIN_HOGA && nIndex != -1 )

  00195	85 c0		 test	 eax, eax
  00197	0f 85 4a 03 00
	00		 jne	 $LN16@SetRealHog
  0019d	8b 75 e8	 mov	 esi, DWORD PTR _nIndex$6[ebp]
  001a0	89 75 d4	 mov	 DWORD PTR _nIndex$1$[ebp], esi
  001a3	83 fe ff	 cmp	 esi, -1
  001a6	0f 84 3b 03 00
	00		 je	 $LN16@SetRealHog
; File C:\Program Files (x86)\Microsoft Visual Studio\2019\Community\VC\Tools\MSVC\14.29.30133\atlmfc\include\afx.inl

; 116  : 	{ return ::operator new(nSize); }

  001ac	6a 1c		 push	 28			; 0000001cH
  001ae	e8 00 00 00 00	 call	 ??2@YAPAXI@Z		; operator new
  001b3	83 c4 04	 add	 esp, 4
; File D:\git\src\IBK\IBK_DRFN\ProjSrc\SrcDrfn\Chart\MULTICHART\FloatingHogaDlg.cpp

; 2185 : 			pHogaData = new CHogaData;

  001b6	89 45 d8	 mov	 DWORD PTR $T2[ebp], eax
  001b9	c6 45 fc 08	 mov	 BYTE PTR __$EHRec$[ebp+8], 8
  001bd	85 c0		 test	 eax, eax
  001bf	74 0e		 je	 SHORT $LN21@SetRealHog
  001c1	8b c8		 mov	 ecx, eax
  001c3	e8 00 00 00 00	 call	 ??0CHogaData@@QAE@XZ	; CHogaData::CHogaData
  001c8	8b c8		 mov	 ecx, eax
  001ca	89 45 e8	 mov	 DWORD PTR $T5[ebp], eax
  001cd	eb 05		 jmp	 SHORT $LN22@SetRealHog
$LN21@SetRealHog:
  001cf	33 c9		 xor	 ecx, ecx
  001d1	89 4d e8	 mov	 DWORD PTR $T5[ebp], ecx
$LN22@SetRealHog:

; 2186 : 			pHogaData->m_nRow = m_nHogaRow;		

  001d4	8b 83 00 02 00
	00		 mov	 eax, DWORD PTR [ebx+512]
  001da	89 41 04	 mov	 DWORD PTR [ecx+4], eax

; 2187 : 			pHogaData->m_nCol = HOGA_COL;
; 2188 : 			pHogaData->m_strText = strText;

  001dd	8d 45 f0	 lea	 eax, DWORD PTR _strText$[ebp]
  001e0	c7 41 08 04 00
	00 00		 mov	 DWORD PTR [ecx+8], 4
  001e7	83 c1 18	 add	 ecx, 24			; 00000018H
  001ea	50		 push	 eax
  001eb	c6 45 fc 03	 mov	 BYTE PTR __$EHRec$[ebp+8], 3
  001ef	ff 15 00 00 00
	00		 call	 DWORD PTR __imp_??4?$CStringT@DV?$StrTraitMFC_DLL@DV?$ChTraitsCRT@D@ATL@@@@@ATL@@QAEAAV01@ABV01@@Z

; 2189 : 			
; 2190 : 			//  
; 2191 : 			pHogaData->m_crFgClr = crFgClr;

  001f5	8b 45 e8	 mov	 eax, DWORD PTR $T5[ebp]

; 2192 : 			pHogaData->m_nMask = GVIF_FGCLR;
; 2193 : 			
; 2194 : 			//  
; 2195 : 			m_HogaData.InsertAt(nIndex, pHogaData);	

  001f8	8d 8b 88 01 00
	00		 lea	 ecx, DWORD PTR [ebx+392]
  001fe	89 78 14	 mov	 DWORD PTR [eax+20], edi
  00201	c7 40 0c 20 00
	00 00		 mov	 DWORD PTR [eax+12], 32	; 00000020H
  00208	85 f6		 test	 esi, esi
; File C:\Program Files (x86)\Microsoft Visual Studio\2019\Community\VC\Tools\MSVC\14.29.30133\atlmfc\include\afxtempl.h

; 553  : 	if(nIndex < 0 || nCount <= 0)

  0020a	0f 88 0f 03 00
	00		 js	 $LN61@SetRealHog

; 555  : 
; 556  : 	if (nIndex >= m_nSize)

  00210	8b bb 90 01 00
	00		 mov	 edi, DWORD PTR [ebx+400]
  00216	3b f7		 cmp	 esi, edi
  00218	0f 8c d3 01 00
	00		 jl	 $LN62@SetRealHog

; 378  : 	if (nNewSize == 0)

  0021e	8b 8b 8c 01 00
	00		 mov	 ecx, DWORD PTR [ebx+396]

; 559  : 		SetSize(nIndex + nCount, -1);   // grow so nIndex is valid

  00224	46		 inc	 esi
  00225	89 75 e0	 mov	 DWORD PTR $T4[ebp], esi

; 390  : 	else if (m_pData == NULL)

  00228	85 c9		 test	 ecx, ecx
  0022a	75 4d		 jne	 SHORT $LN86@SetRealHog

; 391  : 	{
; 392  : 		// create buffer big enough to hold number of requested elements or
; 393  : 		// m_nGrowBy elements, whichever is larger.
; 394  : #ifdef SIZE_T_MAX
; 395  : 		ASSERT(nNewSize <= SIZE_T_MAX/sizeof(TYPE));    // no overflow
; 396  : #endif
; 397  : 		size_t nAllocSize = __max(nNewSize, m_nGrowBy);

  0022c	8b bb 98 01 00
	00		 mov	 edi, DWORD PTR [ebx+408]
  00232	3b f7		 cmp	 esi, edi
  00234	0f 4f fe	 cmovg	 edi, esi

; 398  : 		m_pData = (TYPE*) new BYTE[(size_t)nAllocSize * sizeof(TYPE)];

  00237	8d 34 bd 00 00
	00 00		 lea	 esi, DWORD PTR [edi*4]
  0023e	56		 push	 esi
  0023f	e8 00 00 00 00	 call	 ??_U@YAPAXI@Z		; operator new[]

; 399  : 		memset((void*)m_pData, 0, (size_t)nAllocSize * sizeof(TYPE));

  00244	56		 push	 esi
  00245	6a 00		 push	 0
  00247	50		 push	 eax
  00248	89 83 8c 01 00
	00		 mov	 DWORD PTR [ebx+396], eax
  0024e	e8 00 00 00 00	 call	 _memset

; 400  : 		for( int i = 0; i < nNewSize; i++ )
; 401  : #pragma push_macro("new")
; 402  : #undef new
; 403  : 			::new( (void*)( m_pData + i ) ) TYPE;
; 404  : #pragma pop_macro("new")
; 405  : 		m_nSize = nNewSize;
; 406  : 		m_nMaxSize = nAllocSize;
; 407  : 	}

  00253	8b 75 e0	 mov	 esi, DWORD PTR $T4[ebp]
  00256	83 c4 10	 add	 esp, 16			; 00000010H
  00259	89 bb 94 01 00
	00		 mov	 DWORD PTR [ebx+404], edi

; 560  : 	}

  0025f	89 b3 90 01 00
	00		 mov	 DWORD PTR [ebx+400], esi
  00265	8b 75 d4	 mov	 esi, DWORD PTR _nIndex$1$[ebp]

; 575  : 		for( int i = 0; i < nCount; i++ )
; 576  : #pragma push_macro("new")
; 577  : #undef new
; 578  : 			::new( (void*)( m_pData + nIndex + i ) ) TYPE;
; 579  : #pragma pop_macro("new")
; 580  : 	}
; 581  : 
; 582  : 	// insert new value in the gap
; 583  : 	ASSERT(nIndex + nCount <= m_nSize);
; 584  : 	while (nCount--)
; 585  : 		m_pData[nIndex++] = newElement;

  00268	8b 83 8c 01 00
	00		 mov	 eax, DWORD PTR [ebx+396]
  0026e	8b 4d e8	 mov	 ecx, DWORD PTR $T5[ebp]
  00271	89 0c b0	 mov	 DWORD PTR [eax+esi*4], ecx
; File D:\git\src\IBK\IBK_DRFN\ProjSrc\SrcDrfn\Chart\MULTICHART\FloatingHogaDlg.cpp

; 2126 : 	if (m_nHogaRow == HIGH_ROW || m_nHogaRow == m_nLowLimitRow)

  00274	e9 6e 02 00 00	 jmp	 $LN16@SetRealHog
$LN86@SetRealHog:
; File C:\Program Files (x86)\Microsoft Visual Studio\2019\Community\VC\Tools\MSVC\14.29.30133\atlmfc\include\afxtempl.h

; 408  : 	else if (nNewSize <= m_nMaxSize)

  00279	3b b3 94 01 00
	00		 cmp	 esi, DWORD PTR [ebx+404]
  0027f	7f 38		 jg	 SHORT $LN88@SetRealHog

; 409  : 	{
; 410  : 		// it fits
; 411  : 		if (nNewSize > m_nSize)

  00281	3b f7		 cmp	 esi, edi
  00283	0f 8e f9 00 00
	00		 jle	 $LN89@SetRealHog

; 412  : 		{
; 413  : 			// initialize the new elements
; 414  : 			memset((void*)(m_pData + m_nSize), 0, (size_t)(nNewSize-m_nSize) * sizeof(TYPE));

  00289	8b c6		 mov	 eax, esi
  0028b	2b c7		 sub	 eax, edi
  0028d	c1 e0 02	 shl	 eax, 2
  00290	50		 push	 eax
  00291	8d 04 b9	 lea	 eax, DWORD PTR [ecx+edi*4]
  00294	6a 00		 push	 0
  00296	50		 push	 eax
  00297	e8 00 00 00 00	 call	 _memset

; 560  : 	}

  0029c	89 b3 90 01 00
	00		 mov	 DWORD PTR [ebx+400], esi

; 414  : 			memset((void*)(m_pData + m_nSize), 0, (size_t)(nNewSize-m_nSize) * sizeof(TYPE));

  002a2	83 c4 0c	 add	 esp, 12			; 0000000cH

; 560  : 	}

  002a5	8b 75 d4	 mov	 esi, DWORD PTR _nIndex$1$[ebp]

; 575  : 		for( int i = 0; i < nCount; i++ )
; 576  : #pragma push_macro("new")
; 577  : #undef new
; 578  : 			::new( (void*)( m_pData + nIndex + i ) ) TYPE;
; 579  : #pragma pop_macro("new")
; 580  : 	}
; 581  : 
; 582  : 	// insert new value in the gap
; 583  : 	ASSERT(nIndex + nCount <= m_nSize);
; 584  : 	while (nCount--)
; 585  : 		m_pData[nIndex++] = newElement;

  002a8	8b 83 8c 01 00
	00		 mov	 eax, DWORD PTR [ebx+396]
  002ae	8b 4d e8	 mov	 ecx, DWORD PTR $T5[ebp]
  002b1	89 0c b0	 mov	 DWORD PTR [eax+esi*4], ecx
; File D:\git\src\IBK\IBK_DRFN\ProjSrc\SrcDrfn\Chart\MULTICHART\FloatingHogaDlg.cpp

; 2126 : 	if (m_nHogaRow == HIGH_ROW || m_nHogaRow == m_nLowLimitRow)

  002b4	e9 2e 02 00 00	 jmp	 $LN16@SetRealHog
$LN88@SetRealHog:
; File C:\Program Files (x86)\Microsoft Visual Studio\2019\Community\VC\Tools\MSVC\14.29.30133\atlmfc\include\afxtempl.h

; 432  : 		nGrowBy = m_nGrowBy;

  002b9	8b 83 98 01 00
	00		 mov	 eax, DWORD PTR [ebx+408]

; 433  : 		if (nGrowBy == 0)

  002bf	85 c0		 test	 eax, eax
  002c1	75 21		 jne	 SHORT $LN101@SetRealHog

; 434  : 		{
; 435  : 			// heuristically determine growth when nGrowBy == 0
; 436  : 			//  (this avoids heap fragmentation in many situations)
; 437  : 			nGrowBy = m_nSize / 8;

  002c3	8b c7		 mov	 eax, edi
  002c5	99		 cdq
  002c6	83 e2 07	 and	 edx, 7
  002c9	03 c2		 add	 eax, edx
  002cb	c1 f8 03	 sar	 eax, 3

; 438  : 			nGrowBy = (nGrowBy < 4) ? 4 : ((nGrowBy > 1024) ? 1024 : nGrowBy);

  002ce	83 f8 04	 cmp	 eax, 4
  002d1	7d 07		 jge	 SHORT $LN100@SetRealHog
  002d3	b8 04 00 00 00	 mov	 eax, 4
  002d8	eb 0a		 jmp	 SHORT $LN101@SetRealHog
$LN100@SetRealHog:
  002da	b9 00 04 00 00	 mov	 ecx, 1024		; 00000400H
  002df	3b c1		 cmp	 eax, ecx
  002e1	0f 4f c1	 cmovg	 eax, ecx
$LN101@SetRealHog:

; 439  : 		}
; 440  : 		INT_PTR nNewMax;
; 441  : 		if (nNewSize < m_nMaxSize + nGrowBy)

  002e4	8b 8b 94 01 00
	00		 mov	 ecx, DWORD PTR [ebx+404]
  002ea	03 c1		 add	 eax, ecx

; 442  : 			nNewMax = m_nMaxSize + nGrowBy;  // granularity
; 443  : 		else
; 444  : 			nNewMax = nNewSize;  // no slush
; 445  : 
; 446  : 		ASSERT(nNewMax >= m_nMaxSize);  // no wrap around
; 447  : 
; 448  : 		if(nNewMax  < m_nMaxSize)

  002ec	3b f0		 cmp	 esi, eax
  002ee	0f 4d c6	 cmovge	 eax, esi
  002f1	89 45 d8	 mov	 DWORD PTR tv1452[ebp], eax
  002f4	3b c1		 cmp	 eax, ecx
  002f6	0f 8c 23 02 00
	00		 jl	 $LN61@SetRealHog

; 449  : 			AfxThrowInvalidArgException();
; 450  : 
; 451  : #ifdef SIZE_T_MAX
; 452  : 		ASSERT(nNewMax <= SIZE_T_MAX/sizeof(TYPE)); // no overflow
; 453  : #endif
; 454  : 		TYPE* pNewData = (TYPE*) new BYTE[(size_t)nNewMax * sizeof(TYPE)];

  002fc	c1 e0 02	 shl	 eax, 2
  002ff	50		 push	 eax
  00300	89 45 ec	 mov	 DWORD PTR __S1max$1$[ebp], eax
  00303	e8 00 00 00 00	 call	 ??_U@YAPAXI@Z		; operator new[]

; 455  : 
; 456  : 		// copy new data from old
; 457  : 		::ATL::Checked::memcpy_s(pNewData, (size_t)nNewMax * sizeof(TYPE),

  00308	8b bb 90 01 00
	00		 mov	 edi, DWORD PTR [ebx+400]
  0030e	83 c4 04	 add	 esp, 4
  00311	8b 93 8c 01 00
	00		 mov	 edx, DWORD PTR [ebx+396]
  00317	c1 e7 02	 shl	 edi, 2
  0031a	89 45 dc	 mov	 DWORD PTR _pNewData$1$[ebp], eax
  0031d	89 55 e0	 mov	 DWORD PTR __S2$1$[ebp], edx
; File C:\Program Files (x86)\Windows Kits\10\Include\10.0.22000.0\ucrt\corecrt_memcpy_s.h

; 46   :         if (_SourceSize == 0)

  00320	85 ff		 test	 edi, edi
  00322	0f 84 8a 00 00
	00		 je	 $LN161@SetRealHog

; 47   :         {
; 48   :             return 0;
; 49   :         }
; 50   : 
; 51   :         _CRT_MEMCPY_S_VALIDATE_RETURN_ERRCODE(_Destination != NULL, EINVAL);

  00328	85 c0		 test	 eax, eax
  0032a	75 70		 jne	 SHORT $LN106@SetRealHog
$LN160@SetRealHog:
; File C:\Program Files (x86)\Microsoft Visual Studio\2019\Community\VC\Tools\MSVC\14.29.30133\atlmfc\include\atlchecked.h

; 69   : 	ATLMFC_CRT_ERRORCHECK(::memcpy_s(_S1, _S1max, _S2, _N));

  0032c	ff 15 00 00 00
	00		 call	 DWORD PTR __imp___errno
  00332	c7 00 16 00 00
	00		 mov	 DWORD PTR [eax], 22	; 00000016H
  00338	ff 15 00 00 00
	00		 call	 DWORD PTR __imp___invalid_parameter_noinfo
$LN110@SetRealHog:
  0033e	b9 16 00 00 00	 mov	 ecx, 22			; 00000016H
$LN104@SetRealHog:
  00343	51		 push	 ecx
  00344	e8 00 00 00 00	 call	 ?AfxCrtErrorCheck@@YAHH@Z ; AfxCrtErrorCheck
; File C:\Program Files (x86)\Microsoft Visual Studio\2019\Community\VC\Tools\MSVC\14.29.30133\atlmfc\include\afxtempl.h

; 462  : 		memset((void*)(pNewData + m_nSize), 0, (size_t)(nNewSize-m_nSize) * sizeof(TYPE));

  00349	8b 8b 90 01 00
	00		 mov	 ecx, DWORD PTR [ebx+400]
  0034f	8b c6		 mov	 eax, esi
  00351	8b 7d dc	 mov	 edi, DWORD PTR _pNewData$1$[ebp]
  00354	2b c1		 sub	 eax, ecx
  00356	c1 e0 02	 shl	 eax, 2
  00359	50		 push	 eax
  0035a	6a 00		 push	 0
  0035c	8d 04 8f	 lea	 eax, DWORD PTR [edi+ecx*4]
  0035f	50		 push	 eax
  00360	e8 00 00 00 00	 call	 _memset

; 463  : 		for( int i = 0; i < nNewSize-m_nSize; i++ )
; 464  : #pragma push_macro("new")
; 465  : #undef new
; 466  : 			::new( (void*)( pNewData + m_nSize + i ) ) TYPE;
; 467  : #pragma pop_macro("new")
; 468  : 
; 469  : 		// get rid of old stuff (note: no destructors called)
; 470  : 		delete[] (BYTE*)m_pData;

  00365	ff b3 8c 01 00
	00		 push	 DWORD PTR [ebx+396]
  0036b	e8 00 00 00 00	 call	 ??_V@YAXPAX@Z		; operator delete[]

; 471  : 		m_pData = pNewData;
; 472  : 		m_nSize = nNewSize;
; 473  : 		m_nMaxSize = nNewMax;

  00370	8b 45 d8	 mov	 eax, DWORD PTR tv1452[ebp]
  00373	83 c4 14	 add	 esp, 20			; 00000014H
  00376	89 bb 8c 01 00
	00		 mov	 DWORD PTR [ebx+396], edi
  0037c	89 83 94 01 00
	00		 mov	 DWORD PTR [ebx+404], eax
$LN89@SetRealHog:

; 560  : 	}

  00382	89 b3 90 01 00
	00		 mov	 DWORD PTR [ebx+400], esi
  00388	8b 75 d4	 mov	 esi, DWORD PTR _nIndex$1$[ebp]

; 575  : 		for( int i = 0; i < nCount; i++ )
; 576  : #pragma push_macro("new")
; 577  : #undef new
; 578  : 			::new( (void*)( m_pData + nIndex + i ) ) TYPE;
; 579  : #pragma pop_macro("new")
; 580  : 	}
; 581  : 
; 582  : 	// insert new value in the gap
; 583  : 	ASSERT(nIndex + nCount <= m_nSize);
; 584  : 	while (nCount--)
; 585  : 		m_pData[nIndex++] = newElement;

  0038b	8b 83 8c 01 00
	00		 mov	 eax, DWORD PTR [ebx+396]
  00391	8b 4d e8	 mov	 ecx, DWORD PTR $T5[ebp]
  00394	89 0c b0	 mov	 DWORD PTR [eax+esi*4], ecx
; File D:\git\src\IBK\IBK_DRFN\ProjSrc\SrcDrfn\Chart\MULTICHART\FloatingHogaDlg.cpp

; 2126 : 	if (m_nHogaRow == HIGH_ROW || m_nHogaRow == m_nLowLimitRow)

  00397	e9 4b 01 00 00	 jmp	 $LN16@SetRealHog
$LN106@SetRealHog:
; File C:\Program Files (x86)\Windows Kits\10\Include\10.0.22000.0\ucrt\corecrt_memcpy_s.h

; 52   :         if (_Source == NULL || _DestinationSize < _SourceSize)

  0039c	8b 4d ec	 mov	 ecx, DWORD PTR __S1max$1$[ebp]
  0039f	85 d2		 test	 edx, edx
  003a1	74 13		 je	 SHORT $LN108@SetRealHog
  003a3	3b cf		 cmp	 ecx, edi
  003a5	72 0f		 jb	 SHORT $LN108@SetRealHog

; 58   : 
; 59   :             // Unreachable, but required to suppress /analyze warnings:
; 60   :             return EINVAL;
; 61   :         }
; 62   :         memcpy(_Destination, _Source, _SourceSize);

  003a7	57		 push	 edi
  003a8	52		 push	 edx
  003a9	50		 push	 eax
  003aa	e8 00 00 00 00	 call	 _memcpy
  003af	83 c4 0c	 add	 esp, 12			; 0000000cH
$LN161@SetRealHog:
; File C:\Program Files (x86)\Microsoft Visual Studio\2019\Community\VC\Tools\MSVC\14.29.30133\atlmfc\include\atlchecked.h

; 69   : 	ATLMFC_CRT_ERRORCHECK(::memcpy_s(_S1, _S1max, _S2, _N));

  003b2	33 c9		 xor	 ecx, ecx
  003b4	eb 8d		 jmp	 SHORT $LN104@SetRealHog
$LN108@SetRealHog:
; File C:\Program Files (x86)\Windows Kits\10\Include\10.0.22000.0\ucrt\corecrt_memcpy_s.h

; 54   :             memset(_Destination, 0, _DestinationSize);

  003b6	51		 push	 ecx
  003b7	6a 00		 push	 0
  003b9	50		 push	 eax
  003ba	e8 00 00 00 00	 call	 _memset
  003bf	83 c4 0c	 add	 esp, 12			; 0000000cH

; 55   : 
; 56   :             _CRT_MEMCPY_S_VALIDATE_RETURN_ERRCODE(_Source != NULL,                 EINVAL);

  003c2	83 7d e0 00	 cmp	 DWORD PTR __S2$1$[ebp], 0
  003c6	0f 84 60 ff ff
	ff		 je	 $LN160@SetRealHog

; 57   :             _CRT_MEMCPY_S_VALIDATE_RETURN_ERRCODE(_DestinationSize >= _SourceSize, ERANGE);

  003cc	39 7d ec	 cmp	 DWORD PTR __S1max$1$[ebp], edi
  003cf	0f 83 69 ff ff
	ff		 jae	 $LN110@SetRealHog
  003d5	ff 15 00 00 00
	00		 call	 DWORD PTR __imp___errno
  003db	c7 00 22 00 00
	00		 mov	 DWORD PTR [eax], 34	; 00000022H
  003e1	ff 15 00 00 00
	00		 call	 DWORD PTR __imp___invalid_parameter_noinfo
  003e7	b9 22 00 00 00	 mov	 ecx, 34			; 00000022H
  003ec	e9 52 ff ff ff	 jmp	 $LN104@SetRealHog
$LN62@SetRealHog:
; File C:\Program Files (x86)\Microsoft Visual Studio\2019\Community\VC\Tools\MSVC\14.29.30133\atlmfc\include\afxtempl.h

; 565  : 		SetSize(m_nSize + nCount, -1);  // grow it to new size

  003f1	6a ff		 push	 -1
  003f3	8d 47 01	 lea	 eax, DWORD PTR [edi+1]
  003f6	50		 push	 eax
  003f7	e8 00 00 00 00	 call	 ?SetSize@?$CArray@PAVCHogaData@@PAV1@@@QAEXHH@Z ; CArray<CHogaData *,CHogaData *>::SetSize

; 566  : 		// destroy intial data before copying over it
; 567  : 		for( int i = 0; i < nCount; i++ )
; 568  : 			(m_pData + nOldSize + i)->~TYPE();
; 569  : 		// shift old data up to fill gap
; 570  : 		::ATL::Checked::memmove_s(m_pData + nIndex + nCount, (nOldSize-nIndex) * sizeof(TYPE),

  003fc	8b 83 8c 01 00
	00		 mov	 eax, DWORD PTR [ebx+396]
  00402	8d 0c b5 00 00
	00 00		 lea	 ecx, DWORD PTR [esi*4]
  00409	2b fe		 sub	 edi, esi
  0040b	03 c1		 add	 eax, ecx
  0040d	c1 e7 02	 shl	 edi, 2
  00410	8d 48 04	 lea	 ecx, DWORD PTR [eax+4]
; File C:\Program Files (x86)\Windows Kits\10\Include\10.0.22000.0\ucrt\corecrt_memcpy_s.h

; 74   :         if (_SourceSize == 0)

  00413	85 ff		 test	 edi, edi
  00415	74 2c		 je	 SHORT $LN162@SetRealHog

; 75   :         {
; 76   :             return 0;
; 77   :         }
; 78   : 
; 79   :         _CRT_MEMCPY_S_VALIDATE_RETURN_ERRCODE(_Destination != NULL,            EINVAL);

  00417	85 c9		 test	 ecx, ecx
  00419	75 19		 jne	 SHORT $LN117@SetRealHog
$LN163@SetRealHog:
; File C:\Program Files (x86)\Microsoft Visual Studio\2019\Community\VC\Tools\MSVC\14.29.30133\atlmfc\include\atlchecked.h

; 87   : 	ATLMFC_CRT_ERRORCHECK(::memmove_s(_S1, _S1max, _S2, _N));

  0041b	ff 15 00 00 00
	00		 call	 DWORD PTR __imp___errno
  00421	c7 00 16 00 00
	00		 mov	 DWORD PTR [eax], 22	; 00000016H
  00427	ff 15 00 00 00
	00		 call	 DWORD PTR __imp___invalid_parameter_noinfo
  0042d	b8 16 00 00 00	 mov	 eax, 22			; 00000016H
  00432	eb 11		 jmp	 SHORT $LN115@SetRealHog
$LN117@SetRealHog:
; File C:\Program Files (x86)\Windows Kits\10\Include\10.0.22000.0\ucrt\corecrt_memcpy_s.h

; 80   :         _CRT_MEMCPY_S_VALIDATE_RETURN_ERRCODE(_Source != NULL,                 EINVAL);

  00434	85 c0		 test	 eax, eax
  00436	74 e3		 je	 SHORT $LN163@SetRealHog

; 81   :         _CRT_MEMCPY_S_VALIDATE_RETURN_ERRCODE(_DestinationSize >= _SourceSize, ERANGE);
; 82   : 
; 83   :         memmove(_Destination, _Source, _SourceSize);

  00438	57		 push	 edi
  00439	50		 push	 eax
  0043a	51		 push	 ecx
  0043b	e8 00 00 00 00	 call	 _memmove
  00440	83 c4 0c	 add	 esp, 12			; 0000000cH
$LN162@SetRealHog:
; File C:\Program Files (x86)\Microsoft Visual Studio\2019\Community\VC\Tools\MSVC\14.29.30133\atlmfc\include\atlchecked.h

; 87   : 	ATLMFC_CRT_ERRORCHECK(::memmove_s(_S1, _S1max, _S2, _N));

  00443	33 c0		 xor	 eax, eax
$LN115@SetRealHog:
  00445	50		 push	 eax
  00446	e8 00 00 00 00	 call	 ?AfxCrtErrorCheck@@YAHH@Z ; AfxCrtErrorCheck
; File C:\Program Files (x86)\Microsoft Visual Studio\2019\Community\VC\Tools\MSVC\14.29.30133\atlmfc\include\afxtempl.h

; 574  : 		memset((void*)(m_pData + nIndex), 0, (size_t)nCount * sizeof(TYPE));

  0044b	8b 83 8c 01 00
	00		 mov	 eax, DWORD PTR [ebx+396]
  00451	8d 0c b5 00 00
	00 00		 lea	 ecx, DWORD PTR [esi*4]
; File C:\Program Files (x86)\Microsoft Visual Studio\2019\Community\VC\Tools\MSVC\14.29.30133\atlmfc\include\atlchecked.h

; 87   : 	ATLMFC_CRT_ERRORCHECK(::memmove_s(_S1, _S1max, _S2, _N));

  00458	83 c4 04	 add	 esp, 4
; File C:\Program Files (x86)\Microsoft Visual Studio\2019\Community\VC\Tools\MSVC\14.29.30133\atlmfc\include\afxtempl.h

; 574  : 		memset((void*)(m_pData + nIndex), 0, (size_t)nCount * sizeof(TYPE));

  0045b	c7 04 08 00 00
	00 00		 mov	 DWORD PTR [eax+ecx], 0

; 575  : 		for( int i = 0; i < nCount; i++ )
; 576  : #pragma push_macro("new")
; 577  : #undef new
; 578  : 			::new( (void*)( m_pData + nIndex + i ) ) TYPE;
; 579  : #pragma pop_macro("new")
; 580  : 	}
; 581  : 
; 582  : 	// insert new value in the gap
; 583  : 	ASSERT(nIndex + nCount <= m_nSize);
; 584  : 	while (nCount--)
; 585  : 		m_pData[nIndex++] = newElement;

  00462	8b 83 8c 01 00
	00		 mov	 eax, DWORD PTR [ebx+396]
  00468	8b 4d e8	 mov	 ecx, DWORD PTR $T5[ebp]
  0046b	89 0c b0	 mov	 DWORD PTR [eax+esi*4], ecx
; File D:\git\src\IBK\IBK_DRFN\ProjSrc\SrcDrfn\Chart\MULTICHART\FloatingHogaDlg.cpp

; 2126 : 	if (m_nHogaRow == HIGH_ROW || m_nHogaRow == m_nLowLimitRow)

  0046e	eb 77		 jmp	 SHORT $LN16@SetRealHog
$LN13@SetRealHog:
; File C:\Program Files (x86)\Microsoft Visual Studio\2019\Community\VC\Tools\MSVC\14.29.30133\atlmfc\include\afx.inl

; 116  : 	{ return ::operator new(nSize); }

  00470	6a 1c		 push	 28			; 0000001cH
  00472	e8 00 00 00 00	 call	 ??2@YAPAXI@Z		; operator new
  00477	83 c4 04	 add	 esp, 4
; File D:\git\src\IBK\IBK_DRFN\ProjSrc\SrcDrfn\Chart\MULTICHART\FloatingHogaDlg.cpp

; 2166 : 			pHogaData = new CHogaData;

  0047a	89 45 d8	 mov	 DWORD PTR $T3[ebp], eax
  0047d	c6 45 fc 07	 mov	 BYTE PTR __$EHRec$[ebp+8], 7
  00481	85 c0		 test	 eax, eax
  00483	74 0b		 je	 SHORT $LN19@SetRealHog
  00485	8b c8		 mov	 ecx, eax
  00487	e8 00 00 00 00	 call	 ??0CHogaData@@QAE@XZ	; CHogaData::CHogaData
  0048c	8b f0		 mov	 esi, eax
  0048e	eb 02		 jmp	 SHORT $LN20@SetRealHog
$LN19@SetRealHog:
  00490	33 f6		 xor	 esi, esi
$LN20@SetRealHog:

; 2167 : 			pHogaData->m_nRow = m_nHogaRow;		

  00492	8b 83 00 02 00
	00		 mov	 eax, DWORD PTR [ebx+512]

; 2168 : 			pHogaData->m_nCol = HOGA_COL;
; 2169 : 			pHogaData->m_strText = strText;

  00498	8d 4e 18	 lea	 ecx, DWORD PTR [esi+24]
  0049b	89 46 04	 mov	 DWORD PTR [esi+4], eax
  0049e	8d 45 f0	 lea	 eax, DWORD PTR _strText$[ebp]
  004a1	50		 push	 eax
  004a2	c6 45 fc 03	 mov	 BYTE PTR __$EHRec$[ebp+8], 3
  004a6	c7 46 08 04 00
	00 00		 mov	 DWORD PTR [esi+8], 4
  004ad	ff 15 00 00 00
	00		 call	 DWORD PTR __imp_??4?$CStringT@DV?$StrTraitMFC_DLL@DV?$ChTraitsCRT@D@ATL@@@@@ATL@@QAEAAV01@ABV01@@Z

; 2170 : 			
; 2171 : 			//  
; 2172 : 			pHogaData->m_crFgClr = crFgClr;
; 2173 : 			pHogaData->m_nMask = GVIF_FGCLR;
; 2174 : 			
; 2175 : 			//  
; 2176 : 			if( nRet == BIG_HOGA )

  004b3	8b 45 d4	 mov	 eax, DWORD PTR _nRet$1$[ebp]
  004b6	89 7e 14	 mov	 DWORD PTR [esi+20], edi
  004b9	c7 46 0c 20 00
	00 00		 mov	 DWORD PTR [esi+12], 32	; 00000020H
  004c0	83 f8 01	 cmp	 eax, 1
  004c3	75 11		 jne	 SHORT $LN14@SetRealHog

; 2177 : 				m_HogaData.InsertAt(0, pHogaData);

  004c5	50		 push	 eax
  004c6	56		 push	 esi
  004c7	6a 00		 push	 0
  004c9	8d 8b 88 01 00
	00		 lea	 ecx, DWORD PTR [ebx+392]
  004cf	e8 00 00 00 00	 call	 ?InsertAt@?$CArray@PAVCHogaData@@PAV1@@@QAEXHPAVCHogaData@@H@Z ; CArray<CHogaData *,CHogaData *>::InsertAt
  004d4	eb 11		 jmp	 SHORT $LN16@SetRealHog
$LN14@SetRealHog:

; 2178 : 			else if( nRet == SMALL_HOGA )

  004d6	83 f8 02	 cmp	 eax, 2
  004d9	75 0c		 jne	 SHORT $LN16@SetRealHog

; 2179 : 				m_HogaData.Add(pHogaData);

  004db	56		 push	 esi
  004dc	8d 8b 88 01 00
	00		 lea	 ecx, DWORD PTR [ebx+392]
  004e2	e8 00 00 00 00	 call	 ?Add@?$CArray@PAVCHogaData@@PAV1@@@QAEHPAVCHogaData@@@Z ; CArray<CHogaData *,CHogaData *>::Add
$LN16@SetRealHog:

; 2200 : }

  004e7	8d 4d f0	 lea	 ecx, DWORD PTR _strText$[ebp]
  004ea	ff 15 00 00 00
	00		 call	 DWORD PTR __imp_??1?$CStringT@DV?$StrTraitMFC_DLL@DV?$ChTraitsCRT@D@ATL@@@@@ATL@@QAE@XZ
  004f0	8d 4d e4	 lea	 ecx, DWORD PTR _sTemp1$[ebp]
  004f3	ff 15 00 00 00
	00		 call	 DWORD PTR __imp_??1?$CStringT@DV?$StrTraitMFC_DLL@DV?$ChTraitsCRT@D@ATL@@@@@ATL@@QAE@XZ
  004f9	8d 4d 08	 lea	 ecx, DWORD PTR _strHoga$[ebp]
  004fc	ff 15 00 00 00
	00		 call	 DWORD PTR __imp_??1?$CStringT@DV?$StrTraitMFC_DLL@DV?$ChTraitsCRT@D@ATL@@@@@ATL@@QAE@XZ
  00502	8d 4d 0c	 lea	 ecx, DWORD PTR _strPreClosePrice$[ebp]
  00505	ff 15 00 00 00
	00		 call	 DWORD PTR __imp_??1?$CStringT@DV?$StrTraitMFC_DLL@DV?$ChTraitsCRT@D@ATL@@@@@ATL@@QAE@XZ
  0050b	8b 4d f4	 mov	 ecx, DWORD PTR __$EHRec$[ebp]
  0050e	64 89 0d 00 00
	00 00		 mov	 DWORD PTR fs:0, ecx
  00515	59		 pop	 ecx
  00516	5f		 pop	 edi
  00517	5e		 pop	 esi
  00518	5b		 pop	 ebx
  00519	8b e5		 mov	 esp, ebp
  0051b	5d		 pop	 ebp
  0051c	c2 0c 00	 ret	 12			; 0000000cH
$LN61@SetRealHog:
; File C:\Program Files (x86)\Microsoft Visual Studio\2019\Community\VC\Tools\MSVC\14.29.30133\atlmfc\include\afxtempl.h

; 554  : 		AfxThrowInvalidArgException();

  0051f	e8 00 00 00 00	 call	 ?AfxThrowInvalidArgException@@YGXXZ ; AfxThrowInvalidArgException
$LN159@SetRealHog:
  00524	cc		 int	 3
_TEXT	ENDS
;	COMDAT text$x
text$x	SEGMENT
__unwindfunclet$?SetRealHogaData_Sub@CFloatingHogaDlg@@QAEXV?$CStringT@DV?$StrTraitMFC_DLL@DV?$ChTraitsCRT@D@ATL@@@@@ATL@@0H@Z$0:
  00000	8d 4d 0c	 lea	 ecx, DWORD PTR _strPreClosePrice$[ebp]
  00003	ff 25 00 00 00
	00		 jmp	 DWORD PTR __imp_??1?$CStringT@DV?$StrTraitMFC_DLL@DV?$ChTraitsCRT@D@ATL@@@@@ATL@@QAE@XZ
__unwindfunclet$?SetRealHogaData_Sub@CFloatingHogaDlg@@QAEXV?$CStringT@DV?$StrTraitMFC_DLL@DV?$ChTraitsCRT@D@ATL@@@@@ATL@@0H@Z$1:
  00009	8d 4d 08	 lea	 ecx, DWORD PTR _strHoga$[ebp]
  0000c	ff 25 00 00 00
	00		 jmp	 DWORD PTR __imp_??1?$CStringT@DV?$StrTraitMFC_DLL@DV?$ChTraitsCRT@D@ATL@@@@@ATL@@QAE@XZ
__unwindfunclet$?SetRealHogaData_Sub@CFloatingHogaDlg@@QAEXV?$CStringT@DV?$StrTraitMFC_DLL@DV?$ChTraitsCRT@D@ATL@@@@@ATL@@0H@Z$2:
  00012	8d 4d e4	 lea	 ecx, DWORD PTR _sTemp1$[ebp]
  00015	ff 25 00 00 00
	00		 jmp	 DWORD PTR __imp_??1?$CStringT@DV?$StrTraitMFC_DLL@DV?$ChTraitsCRT@D@ATL@@@@@ATL@@QAE@XZ
__unwindfunclet$?SetRealHogaData_Sub@CFloatingHogaDlg@@QAEXV?$CStringT@DV?$StrTraitMFC_DLL@DV?$ChTraitsCRT@D@ATL@@@@@ATL@@0H@Z$3:
  0001b	8d 4d f0	 lea	 ecx, DWORD PTR _strText$[ebp]
  0001e	ff 25 00 00 00
	00		 jmp	 DWORD PTR __imp_??1?$CStringT@DV?$StrTraitMFC_DLL@DV?$ChTraitsCRT@D@ATL@@@@@ATL@@QAE@XZ
__unwindfunclet$?SetRealHogaData_Sub@CFloatingHogaDlg@@QAEXV?$CStringT@DV?$StrTraitMFC_DLL@DV?$ChTraitsCRT@D@ATL@@@@@ATL@@0H@Z$4:
  00024	8d 4d e8	 lea	 ecx, DWORD PTR $T8[ebp]
  00027	ff 25 00 00 00
	00		 jmp	 DWORD PTR __imp_??1?$CStringT@DV?$StrTraitMFC_DLL@DV?$ChTraitsCRT@D@ATL@@@@@ATL@@QAE@XZ
__unwindfunclet$?SetRealHogaData_Sub@CFloatingHogaDlg@@QAEXV?$CStringT@DV?$StrTraitMFC_DLL@DV?$ChTraitsCRT@D@ATL@@@@@ATL@@0H@Z$5:
  0002d	8d 4d ec	 lea	 ecx, DWORD PTR _sTemp$9[ebp]
  00030	ff 25 00 00 00
	00		 jmp	 DWORD PTR __imp_??1?$CStringT@DV?$StrTraitMFC_DLL@DV?$ChTraitsCRT@D@ATL@@@@@ATL@@QAE@XZ
__unwindfunclet$?SetRealHogaData_Sub@CFloatingHogaDlg@@QAEXV?$CStringT@DV?$StrTraitMFC_DLL@DV?$ChTraitsCRT@D@ATL@@@@@ATL@@0H@Z$6:
  00036	8d 4d e8	 lea	 ecx, DWORD PTR $T7[ebp]
  00039	ff 25 00 00 00
	00		 jmp	 DWORD PTR __imp_??1?$CStringT@DV?$StrTraitMFC_DLL@DV?$ChTraitsCRT@D@ATL@@@@@ATL@@QAE@XZ
__unwindfunclet$?SetRealHogaData_Sub@CFloatingHogaDlg@@QAEXV?$CStringT@DV?$StrTraitMFC_DLL@DV?$ChTraitsCRT@D@ATL@@@@@ATL@@0H@Z$10:
  0003f	8b 45 d8	 mov	 eax, DWORD PTR $T2[ebp]
  00042	50		 push	 eax
  00043	e8 00 00 00 00	 call	 ??3CObject@@SGXPAX@Z	; CObject::operator delete
  00048	c3		 ret	 0
__unwindfunclet$?SetRealHogaData_Sub@CFloatingHogaDlg@@QAEXV?$CStringT@DV?$StrTraitMFC_DLL@DV?$ChTraitsCRT@D@ATL@@@@@ATL@@0H@Z$9:
  00049	8b 45 d8	 mov	 eax, DWORD PTR $T3[ebp]
  0004c	50		 push	 eax
  0004d	e8 00 00 00 00	 call	 ??3CObject@@SGXPAX@Z	; CObject::operator delete
  00052	c3		 ret	 0
  00053	cc		 int	 3
  00054	cc		 int	 3
  00055	cc		 int	 3
  00056	cc		 int	 3
  00057	cc		 int	 3
__ehhandler$?SetRealHogaData_Sub@CFloatingHogaDlg@@QAEXV?$CStringT@DV?$StrTraitMFC_DLL@DV?$ChTraitsCRT@D@ATL@@@@@ATL@@0H@Z:
  00058	90		 npad	 1
  00059	90		 npad	 1
  0005a	8b 54 24 08	 mov	 edx, DWORD PTR [esp+8]
  0005e	8d 42 0c	 lea	 eax, DWORD PTR [edx+12]
  00061	8b 4a d0	 mov	 ecx, DWORD PTR [edx-48]
  00064	33 c8		 xor	 ecx, eax
  00066	e8 00 00 00 00	 call	 @__security_check_cookie@4
  0006b	b8 00 00 00 00	 mov	 eax, OFFSET __ehfuncinfo$?SetRealHogaData_Sub@CFloatingHogaDlg@@QAEXV?$CStringT@DV?$StrTraitMFC_DLL@DV?$ChTraitsCRT@D@ATL@@@@@ATL@@0H@Z
  00070	e9 00 00 00 00	 jmp	 ___CxxFrameHandler3
text$x	ENDS
?SetRealHogaData_Sub@CFloatingHogaDlg@@QAEXV?$CStringT@DV?$StrTraitMFC_DLL@DV?$ChTraitsCRT@D@ATL@@@@@ATL@@0H@Z ENDP ; CFloatingHogaDlg::SetRealHogaData_Sub
; Function compile flags: /Ogtp
; File D:\git\src\IBK\IBK_DRFN\ProjSrc\SrcDrfn\Chart\MULTICHART\FloatingHogaDlg.cpp
; File D:\git\src\IBK\IBK_DRFN\ProjSrc\SrcDrfn\Chart\MULTICHART\FloatingHogaDlg.h
; File D:\git\src\IBK\IBK_DRFN\ProjSrc\SrcDrfn\Chart\MULTICHART\FloatingHogaDlg.cpp
; File D:\git\src\IBK\IBK_DRFN\ProjSrc\SrcDrfn\Chart\MULTICHART\FloatingHogaDlg.h
; File D:\git\src\IBK\IBK_DRFN\ProjSrc\SrcDrfn\Chart\MULTICHART\FloatingHogaDlg.cpp
; File C:\Program Files (x86)\Microsoft Visual Studio\2019\Community\VC\Tools\MSVC\14.29.30133\atlmfc\include\cstringt.h
; File D:\git\src\IBK\IBK_DRFN\ProjSrc\SrcDrfn\Chart\MULTICHART\FloatingHogaDlg.cpp
; File C:\Program Files (x86)\Microsoft Visual Studio\2019\Community\VC\Tools\MSVC\14.29.30133\atlmfc\include\cstringt.h
; File C:\Program Files (x86)\Microsoft Visual Studio\2019\Community\VC\Tools\MSVC\14.29.30133\atlmfc\include\atlsimpstr.h
; File C:\Program Files (x86)\Microsoft Visual Studio\2019\Community\VC\Tools\MSVC\14.29.30133\atlmfc\include\cstringt.h
; File D:\git\src\IBK\IBK_DRFN\ProjSrc\SrcDrfn\Chart\MULTICHART\FloatingHogaDlg.cpp
;	COMDAT ?SetRealYeShangData@CFloatingHogaDlg@@QAEXPBD@Z
_TEXT	SEGMENT
$T2 = -100						; size = 4
_strPrice$ = -96					; size = 4
_strExpPrice$ = -92					; size = 4
_strExpVol$ = -88					; size = 4
_strExpRate$ = -84					; size = 4
_strChangeRate$ = -80					; size = 4
_kbReal_KXYS$ = -76					; size = 28
$T3 = -48						; size = 4
_sTemp1$4 = -44						; size = 4
$T5 = -44						; size = 4
$T6 = -44						; size = 4
_sTmp$7 = -40						; size = 21
__$ArrayPad$ = -16					; size = 4
__$EHRec$ = -12						; size = 12
_pRealStruct$ = 8					; size = 4
?SetRealYeShangData@CFloatingHogaDlg@@QAEXPBD@Z PROC	; CFloatingHogaDlg::SetRealYeShangData, COMDAT
; _this$ = ecx

; 2584 : {

  00000	55		 push	 ebp
  00001	8b ec		 mov	 ebp, esp
  00003	6a ff		 push	 -1
  00005	68 00 00 00 00	 push	 __ehhandler$?SetRealYeShangData@CFloatingHogaDlg@@QAEXPBD@Z
  0000a	64 a1 00 00 00
	00		 mov	 eax, DWORD PTR fs:0
  00010	50		 push	 eax
  00011	83 ec 58	 sub	 esp, 88			; 00000058H
  00014	a1 00 00 00 00	 mov	 eax, DWORD PTR ___security_cookie
  00019	33 c5		 xor	 eax, ebp
  0001b	89 45 f0	 mov	 DWORD PTR __$ArrayPad$[ebp], eax
  0001e	53		 push	 ebx
  0001f	56		 push	 esi
  00020	50		 push	 eax
  00021	8d 45 f4	 lea	 eax, DWORD PTR __$EHRec$[ebp]
  00024	64 a3 00 00 00
	00		 mov	 DWORD PTR fs:0, eax
  0002a	8b d9		 mov	 ebx, ecx
  0002c	8b 75 08	 mov	 esi, DWORD PTR _pRealStruct$[ebp]
  0002f	c7 45 9c 00 00
	00 00		 mov	 DWORD PTR $T2[ebp], 0

; 2585 : 	if(!m_pGridCtrl)

  00036	83 bb cc 00 00
	00 00		 cmp	 DWORD PTR [ebx+204], 0
  0003d	0f 84 c4 03 00
	00		 je	 $LN66@SetRealYeS
; File D:\git\src\IBK\IBK_DRFN\ProjSrc\SrcDrfn\Chart\MULTICHART\FloatingHogaDlg.h

; 57   : 	CKBREAL_KXYS()

  00043	8d 4d b8	 lea	 ecx, DWORD PTR _kbReal_KXYS$[ebp+4]
  00046	c7 45 b4 00 00
	00 00		 mov	 DWORD PTR _kbReal_KXYS$[ebp], OFFSET ??_7CKBREAL_KXYS@@6B@
  0004d	ff 15 00 00 00
	00		 call	 DWORD PTR __imp_??0?$CStringT@DV?$StrTraitMFC_DLL@DV?$ChTraitsCRT@D@ATL@@@@@ATL@@QAE@XZ
  00053	8d 4d bc	 lea	 ecx, DWORD PTR _kbReal_KXYS$[ebp+8]
  00056	ff 15 00 00 00
	00		 call	 DWORD PTR __imp_??0?$CStringT@DV?$StrTraitMFC_DLL@DV?$ChTraitsCRT@D@ATL@@@@@ATL@@QAE@XZ
  0005c	8d 4d c0	 lea	 ecx, DWORD PTR _kbReal_KXYS$[ebp+12]
  0005f	ff 15 00 00 00
	00		 call	 DWORD PTR __imp_??0?$CStringT@DV?$StrTraitMFC_DLL@DV?$ChTraitsCRT@D@ATL@@@@@ATL@@QAE@XZ
  00065	8d 4d c4	 lea	 ecx, DWORD PTR _kbReal_KXYS$[ebp+16]
  00068	ff 15 00 00 00
	00		 call	 DWORD PTR __imp_??0?$CStringT@DV?$StrTraitMFC_DLL@DV?$ChTraitsCRT@D@ATL@@@@@ATL@@QAE@XZ
  0006e	8d 4d c8	 lea	 ecx, DWORD PTR _kbReal_KXYS$[ebp+20]
  00071	ff 15 00 00 00
	00		 call	 DWORD PTR __imp_??0?$CStringT@DV?$StrTraitMFC_DLL@DV?$ChTraitsCRT@D@ATL@@@@@ATL@@QAE@XZ
  00077	8d 4d cc	 lea	 ecx, DWORD PTR _kbReal_KXYS$[ebp+24]
  0007a	ff 15 00 00 00
	00		 call	 DWORD PTR __imp_??0?$CStringT@DV?$StrTraitMFC_DLL@DV?$ChTraitsCRT@D@ATL@@@@@ATL@@QAE@XZ

; 63   : 		CString sTemp1 ;

  00080	8d 4d d4	 lea	 ecx, DWORD PTR _sTemp1$4[ebp]
; File D:\git\src\IBK\IBK_DRFN\ProjSrc\SrcDrfn\Chart\MULTICHART\FloatingHogaDlg.cpp

; 2588 : 	CKBREAL_KXYS kbReal_KXYS;

  00083	c7 45 fc 00 00
	00 00		 mov	 DWORD PTR __$EHRec$[ebp+8], 0
; File D:\git\src\IBK\IBK_DRFN\ProjSrc\SrcDrfn\Chart\MULTICHART\FloatingHogaDlg.h

; 63   : 		CString sTemp1 ;

  0008a	ff 15 00 00 00
	00		 call	 DWORD PTR __imp_??0?$CStringT@DV?$StrTraitMFC_DLL@DV?$ChTraitsCRT@D@ATL@@@@@ATL@@QAE@XZ

; 64   : 		char sTmp[20+1];
; 65   : 
; 66   : //>> [QC No]090803HMC075
; 67   : 		DATA_MEMCOPY(sTmp, pInput, kshcode);	

  00090	8b 06		 mov	 eax, DWORD PTR [esi]
  00092	8d 4d b8	 lea	 ecx, DWORD PTR _kbReal_KXYS$[ebp+4]
  00095	89 45 d8	 mov	 DWORD PTR _sTmp$7[ebp], eax
  00098	0f b7 46 04	 movzx	 eax, WORD PTR [esi+4]
  0009c	66 89 45 dc	 mov	 WORD PTR _sTmp$7[ebp+4], ax
  000a0	8d 45 d8	 lea	 eax, DWORD PTR _sTmp$7[ebp]
  000a3	50		 push	 eax
  000a4	c6 45 fc 01	 mov	 BYTE PTR __$EHRec$[ebp+8], 1
  000a8	c6 45 de 00	 mov	 BYTE PTR _sTmp$7[ebp+6], 0
  000ac	ff 15 00 00 00
	00		 call	 DWORD PTR __imp_??4?$CStringT@DV?$StrTraitMFC_DLL@DV?$ChTraitsCRT@D@ATL@@@@@ATL@@QAEAAV01@PBD@Z
  000b2	8d 4d b8	 lea	 ecx, DWORD PTR _kbReal_KXYS$[ebp+4]
  000b5	ff 15 00 00 00
	00		 call	 DWORD PTR __imp_?TrimLeft@?$CStringT@DV?$StrTraitMFC_DLL@DV?$ChTraitsCRT@D@ATL@@@@@ATL@@QAEAAV12@XZ
  000bb	8d 4d b8	 lea	 ecx, DWORD PTR _kbReal_KXYS$[ebp+4]
  000be	ff 15 00 00 00
	00		 call	 DWORD PTR __imp_?TrimRight@?$CStringT@DV?$StrTraitMFC_DLL@DV?$ChTraitsCRT@D@ATL@@@@@ATL@@QAEAAV12@XZ

; 68   : //		DATA_MEMCOPY(sTmp, pInput, preychange);	
; 69   : 		DATA_MEMCOPY(sTmp, pInput, jnilychange);	

  000c4	8b 46 2b	 mov	 eax, DWORD PTR [esi+43]
  000c7	8b 4e 2f	 mov	 ecx, DWORD PTR [esi+47]
  000ca	89 45 d8	 mov	 DWORD PTR _sTmp$7[ebp], eax
  000cd	8d 45 d8	 lea	 eax, DWORD PTR _sTmp$7[ebp]
  000d0	89 4d dc	 mov	 DWORD PTR _sTmp$7[ebp+4], ecx
  000d3	8d 4d bc	 lea	 ecx, DWORD PTR _kbReal_KXYS$[ebp+8]
  000d6	50		 push	 eax
  000d7	c6 45 e0 00	 mov	 BYTE PTR _sTmp$7[ebp+8], 0
  000db	ff 15 00 00 00
	00		 call	 DWORD PTR __imp_??4?$CStringT@DV?$StrTraitMFC_DLL@DV?$ChTraitsCRT@D@ATL@@@@@ATL@@QAEAAV01@PBD@Z
  000e1	8d 4d bc	 lea	 ecx, DWORD PTR _kbReal_KXYS$[ebp+8]
  000e4	ff 15 00 00 00
	00		 call	 DWORD PTR __imp_?TrimLeft@?$CStringT@DV?$StrTraitMFC_DLL@DV?$ChTraitsCRT@D@ATL@@@@@ATL@@QAEAAV12@XZ
  000ea	8d 4d bc	 lea	 ecx, DWORD PTR _kbReal_KXYS$[ebp+8]
  000ed	ff 15 00 00 00
	00		 call	 DWORD PTR __imp_?TrimRight@?$CStringT@DV?$StrTraitMFC_DLL@DV?$ChTraitsCRT@D@ATL@@@@@ATL@@QAEAAV12@XZ

; 70   : 		DATA_MEMCOPY(sTmp, pInput, yeprice);	

  000f3	8b 46 0e	 mov	 eax, DWORD PTR [esi+14]
  000f6	8b 4e 12	 mov	 ecx, DWORD PTR [esi+18]
  000f9	89 45 d8	 mov	 DWORD PTR _sTmp$7[ebp], eax
  000fc	8d 45 d8	 lea	 eax, DWORD PTR _sTmp$7[ebp]
  000ff	89 4d dc	 mov	 DWORD PTR _sTmp$7[ebp+4], ecx
  00102	8d 4d c0	 lea	 ecx, DWORD PTR _kbReal_KXYS$[ebp+12]
  00105	50		 push	 eax
  00106	c6 45 e0 00	 mov	 BYTE PTR _sTmp$7[ebp+8], 0
  0010a	ff 15 00 00 00
	00		 call	 DWORD PTR __imp_??4?$CStringT@DV?$StrTraitMFC_DLL@DV?$ChTraitsCRT@D@ATL@@@@@ATL@@QAEAAV01@PBD@Z
  00110	8d 4d c0	 lea	 ecx, DWORD PTR _kbReal_KXYS$[ebp+12]
  00113	ff 15 00 00 00
	00		 call	 DWORD PTR __imp_?TrimLeft@?$CStringT@DV?$StrTraitMFC_DLL@DV?$ChTraitsCRT@D@ATL@@@@@ATL@@QAEAAV12@XZ
  00119	8d 4d c0	 lea	 ecx, DWORD PTR _kbReal_KXYS$[ebp+12]
  0011c	ff 15 00 00 00
	00		 call	 DWORD PTR __imp_?TrimRight@?$CStringT@DV?$StrTraitMFC_DLL@DV?$ChTraitsCRT@D@ATL@@@@@ATL@@QAEAAV12@XZ

; 71   : 		DATA_MEMCOPY(sTmp, pInput, yevolume);	

  00122	8b 46 4c	 mov	 eax, DWORD PTR [esi+76]
  00125	8d 4d c4	 lea	 ecx, DWORD PTR _kbReal_KXYS$[ebp+16]
  00128	f3 0f 7e 46 44	 movq	 xmm0, QWORD PTR [esi+68]
  0012d	89 45 e0	 mov	 DWORD PTR _sTmp$7[ebp+8], eax
  00130	8d 45 d8	 lea	 eax, DWORD PTR _sTmp$7[ebp]
  00133	50		 push	 eax
  00134	66 0f d6 45 d8	 movq	 QWORD PTR _sTmp$7[ebp], xmm0
  00139	c6 45 e4 00	 mov	 BYTE PTR _sTmp$7[ebp+12], 0
  0013d	ff 15 00 00 00
	00		 call	 DWORD PTR __imp_??4?$CStringT@DV?$StrTraitMFC_DLL@DV?$ChTraitsCRT@D@ATL@@@@@ATL@@QAEAAV01@PBD@Z
  00143	8d 4d c4	 lea	 ecx, DWORD PTR _kbReal_KXYS$[ebp+16]
  00146	ff 15 00 00 00
	00		 call	 DWORD PTR __imp_?TrimLeft@?$CStringT@DV?$StrTraitMFC_DLL@DV?$ChTraitsCRT@D@ATL@@@@@ATL@@QAEAAV12@XZ
  0014c	8d 4d c4	 lea	 ecx, DWORD PTR _kbReal_KXYS$[ebp+16]
  0014f	ff 15 00 00 00
	00		 call	 DWORD PTR __imp_?TrimRight@?$CStringT@DV?$StrTraitMFC_DLL@DV?$ChTraitsCRT@D@ATL@@@@@ATL@@QAEAAV12@XZ

; 72   : //		DATA_MEMCOPY(sTmp, pInput, preysign);	
; 73   : 		DATA_MEMCOPY(sTmp, pInput, jnilysign);	

  00155	8a 46 29	 mov	 al, BYTE PTR [esi+41]
  00158	8d 4d c8	 lea	 ecx, DWORD PTR _kbReal_KXYS$[ebp+20]
  0015b	88 45 d8	 mov	 BYTE PTR _sTmp$7[ebp], al
  0015e	8d 45 d8	 lea	 eax, DWORD PTR _sTmp$7[ebp]
  00161	50		 push	 eax
  00162	c6 45 d9 00	 mov	 BYTE PTR _sTmp$7[ebp+1], 0
  00166	ff 15 00 00 00
	00		 call	 DWORD PTR __imp_??4?$CStringT@DV?$StrTraitMFC_DLL@DV?$ChTraitsCRT@D@ATL@@@@@ATL@@QAEAAV01@PBD@Z
  0016c	8d 4d c8	 lea	 ecx, DWORD PTR _kbReal_KXYS$[ebp+20]
  0016f	ff 15 00 00 00
	00		 call	 DWORD PTR __imp_?TrimLeft@?$CStringT@DV?$StrTraitMFC_DLL@DV?$ChTraitsCRT@D@ATL@@@@@ATL@@QAEAAV12@XZ
  00175	8d 4d c8	 lea	 ecx, DWORD PTR _kbReal_KXYS$[ebp+20]
  00178	ff 15 00 00 00
	00		 call	 DWORD PTR __imp_?TrimRight@?$CStringT@DV?$StrTraitMFC_DLL@DV?$ChTraitsCRT@D@ATL@@@@@ATL@@QAEAAV12@XZ

; 74   : 		DATA_MEMCOPY(sTmp, pInput, jnilydrate);	

  0017e	8b 46 34	 mov	 eax, DWORD PTR [esi+52]
  00181	8d 4d cc	 lea	 ecx, DWORD PTR _kbReal_KXYS$[ebp+24]
  00184	89 45 d8	 mov	 DWORD PTR _sTmp$7[ebp], eax
  00187	0f b7 46 38	 movzx	 eax, WORD PTR [esi+56]
  0018b	66 89 45 dc	 mov	 WORD PTR _sTmp$7[ebp+4], ax
  0018f	8d 45 d8	 lea	 eax, DWORD PTR _sTmp$7[ebp]
  00192	50		 push	 eax
  00193	c6 45 de 00	 mov	 BYTE PTR _sTmp$7[ebp+6], 0
  00197	ff 15 00 00 00
	00		 call	 DWORD PTR __imp_??4?$CStringT@DV?$StrTraitMFC_DLL@DV?$ChTraitsCRT@D@ATL@@@@@ATL@@QAEAAV01@PBD@Z
  0019d	8d 4d cc	 lea	 ecx, DWORD PTR _kbReal_KXYS$[ebp+24]
  001a0	ff 15 00 00 00
	00		 call	 DWORD PTR __imp_?TrimLeft@?$CStringT@DV?$StrTraitMFC_DLL@DV?$ChTraitsCRT@D@ATL@@@@@ATL@@QAEAAV12@XZ
  001a6	8d 4d cc	 lea	 ecx, DWORD PTR _kbReal_KXYS$[ebp+24]
  001a9	ff 15 00 00 00
	00		 call	 DWORD PTR __imp_?TrimRight@?$CStringT@DV?$StrTraitMFC_DLL@DV?$ChTraitsCRT@D@ATL@@@@@ATL@@QAEAAV12@XZ

; 75   : //<< [QC No]090803HMC075
; 76   : 	}

  001af	8d 4d d4	 lea	 ecx, DWORD PTR _sTemp1$4[ebp]
  001b2	ff 15 00 00 00
	00		 call	 DWORD PTR __imp_??1?$CStringT@DV?$StrTraitMFC_DLL@DV?$ChTraitsCRT@D@ATL@@@@@ATL@@QAE@XZ
; File D:\git\src\IBK\IBK_DRFN\ProjSrc\SrcDrfn\Chart\MULTICHART\FloatingHogaDlg.cpp

; 2591 : 	CString	strPrice, strExpPrice, strExpVol, strExpRate, strChangeRate;

  001b8	8d 4d a0	 lea	 ecx, DWORD PTR _strPrice$[ebp]
  001bb	ff 15 00 00 00
	00		 call	 DWORD PTR __imp_??0?$CStringT@DV?$StrTraitMFC_DLL@DV?$ChTraitsCRT@D@ATL@@@@@ATL@@QAE@XZ
  001c1	8d 4d a4	 lea	 ecx, DWORD PTR _strExpPrice$[ebp]
  001c4	ff 15 00 00 00
	00		 call	 DWORD PTR __imp_??0?$CStringT@DV?$StrTraitMFC_DLL@DV?$ChTraitsCRT@D@ATL@@@@@ATL@@QAE@XZ
  001ca	8d 4d a8	 lea	 ecx, DWORD PTR _strExpVol$[ebp]
  001cd	ff 15 00 00 00
	00		 call	 DWORD PTR __imp_??0?$CStringT@DV?$StrTraitMFC_DLL@DV?$ChTraitsCRT@D@ATL@@@@@ATL@@QAE@XZ
  001d3	8d 4d ac	 lea	 ecx, DWORD PTR _strExpRate$[ebp]
  001d6	ff 15 00 00 00
	00		 call	 DWORD PTR __imp_??0?$CStringT@DV?$StrTraitMFC_DLL@DV?$ChTraitsCRT@D@ATL@@@@@ATL@@QAE@XZ
  001dc	8d 4d b0	 lea	 ecx, DWORD PTR _strChangeRate$[ebp]
  001df	ff 15 00 00 00
	00		 call	 DWORD PTR __imp_??0?$CStringT@DV?$StrTraitMFC_DLL@DV?$ChTraitsCRT@D@ATL@@@@@ATL@@QAE@XZ

; 2592 : //>> [QC No]090803HMC075
; 2593 : //	strExpRate.Format("%s", kbReal_KXYS.m_szpreychange);
; 2594 : 	strExpRate.Format("%s", kbReal_KXYS.m_szjnilychange);

  001e5	ff 75 bc	 push	 DWORD PTR _kbReal_KXYS$[ebp+8]
  001e8	8d 45 ac	 lea	 eax, DWORD PTR _strExpRate$[ebp]
  001eb	c6 45 fc 06	 mov	 BYTE PTR __$EHRec$[ebp+8], 6
  001ef	68 00 00 00 00	 push	 OFFSET ??_C@_02DKCKIIND@?$CFs@
  001f4	50		 push	 eax
  001f5	ff 15 00 00 00
	00		 call	 DWORD PTR __imp_?Format@?$CStringT@DV?$StrTraitMFC_DLL@DV?$ChTraitsCRT@D@ATL@@@@@ATL@@QAAXPBDZZ
  001fb	83 c4 0c	 add	 esp, 12			; 0000000cH

; 2595 : //<< [QC No]090803HMC075
; 2596 : 
; 2597 : 	{
; 2598 : 		//  
; 2599 : 		strPrice = kbReal_KXYS.m_szyeprice;

  001fe	8d 45 c0	 lea	 eax, DWORD PTR _kbReal_KXYS$[ebp+12]
  00201	8d 4d a0	 lea	 ecx, DWORD PTR _strPrice$[ebp]
  00204	50		 push	 eax
  00205	ff 15 00 00 00
	00		 call	 DWORD PTR __imp_??4?$CStringT@DV?$StrTraitMFC_DLL@DV?$ChTraitsCRT@D@ATL@@@@@ATL@@QAEAAV01@ABV01@@Z

; 2600 : 		strExpPrice = /*"*" + */m_Util.GetComma(kbReal_KXYS.m_szyeprice);

  0020b	ff 75 c0	 push	 DWORD PTR _kbReal_KXYS$[ebp+12]
  0020e	8d 45 d4	 lea	 eax, DWORD PTR $T6[ebp]
  00211	50		 push	 eax
  00212	8d 8b 84 01 00
	00		 lea	 ecx, DWORD PTR [ebx+388]
  00218	e8 00 00 00 00	 call	 ?GetComma@CUtil@@QAE?AV?$CStringT@DV?$StrTraitMFC_DLL@DV?$ChTraitsCRT@D@ATL@@@@@ATL@@PBD@Z ; CUtil::GetComma
  0021d	50		 push	 eax
  0021e	8d 4d a4	 lea	 ecx, DWORD PTR _strExpPrice$[ebp]
  00221	c6 45 fc 07	 mov	 BYTE PTR __$EHRec$[ebp+8], 7
  00225	ff 15 00 00 00
	00		 call	 DWORD PTR __imp_??4?$CStringT@DV?$StrTraitMFC_DLL@DV?$ChTraitsCRT@D@ATL@@@@@ATL@@QAEAAV01@ABV01@@Z
  0022b	8d 4d d4	 lea	 ecx, DWORD PTR $T6[ebp]
  0022e	c6 45 fc 06	 mov	 BYTE PTR __$EHRec$[ebp+8], 6
  00232	ff 15 00 00 00
	00		 call	 DWORD PTR __imp_??1?$CStringT@DV?$StrTraitMFC_DLL@DV?$ChTraitsCRT@D@ATL@@@@@ATL@@QAE@XZ

; 2602 : 		strExpVol = m_Util.GetComma(kbReal_KXYS.m_szyevolume) + "";

  00238	ff 75 c4	 push	 DWORD PTR _kbReal_KXYS$[ebp+16]
  0023b	8d 45 d0	 lea	 eax, DWORD PTR $T3[ebp]
  0023e	50		 push	 eax
  0023f	8d 8b 84 01 00
	00		 lea	 ecx, DWORD PTR [ebx+388]
  00245	e8 00 00 00 00	 call	 ?GetComma@CUtil@@QAE?AV?$CStringT@DV?$StrTraitMFC_DLL@DV?$ChTraitsCRT@D@ATL@@@@@ATL@@PBD@Z ; CUtil::GetComma
  0024a	8b f0		 mov	 esi, eax
; File C:\Program Files (x86)\Microsoft Visual Studio\2019\Community\VC\Tools\MSVC\14.29.30133\atlmfc\include\cstringt.h

; 2401 : 		CStringT strResult( str1.GetManager() );

  0024c	8b ce		 mov	 ecx, esi
; File D:\git\src\IBK\IBK_DRFN\ProjSrc\SrcDrfn\Chart\MULTICHART\FloatingHogaDlg.cpp

; 2602 : 		strExpVol = m_Util.GetComma(kbReal_KXYS.m_szyevolume) + "";

  0024e	c6 45 fc 09	 mov	 BYTE PTR __$EHRec$[ebp+8], 9
; File C:\Program Files (x86)\Microsoft Visual Studio\2019\Community\VC\Tools\MSVC\14.29.30133\atlmfc\include\cstringt.h

; 2401 : 		CStringT strResult( str1.GetManager() );

  00252	ff 15 00 00 00
	00		 call	 DWORD PTR __imp_?GetManager@?$CStringT@DV?$StrTraitMFC_DLL@DV?$ChTraitsCRT@D@ATL@@@@@ATL@@QBEPAUIAtlStringMgr@2@XZ
  00258	50		 push	 eax
  00259	8d 4d d4	 lea	 ecx, DWORD PTR $T5[ebp]
  0025c	ff 15 00 00 00
	00		 call	 DWORD PTR __imp_??0?$CStringT@DV?$StrTraitMFC_DLL@DV?$ChTraitsCRT@D@ATL@@@@@ATL@@QAE@PAUIAtlStringMgr@1@@Z
; File C:\Program Files (x86)\Microsoft Visual Studio\2019\Community\VC\Tools\MSVC\14.29.30133\atlmfc\include\atlsimpstr.h

; 519  : 		return( GetData()->nDataLength );

  00262	8b 06		 mov	 eax, DWORD PTR [esi]
; File C:\Program Files (x86)\Microsoft Visual Studio\2019\Community\VC\Tools\MSVC\14.29.30133\atlmfc\include\cstringt.h

; 2403 : 		CThisSimpleString::Concatenate( strResult, str1, str1.GetLength(), psz2, CThisSimpleString::StringLength( psz2 ) );

  00264	6a 02		 push	 2
  00266	68 00 00 00 00	 push	 OFFSET ??_C@_02EHLBLIAD@?A?V@

; 2404 : 
; 2405 : 		return( strResult );

  0026b	c7 45 9c 01 00
	00 00		 mov	 DWORD PTR $T2[ebp], 1
  00272	ff 70 f4	 push	 DWORD PTR [eax-12]
  00275	50		 push	 eax
  00276	8d 45 d4	 lea	 eax, DWORD PTR $T5[ebp]
  00279	50		 push	 eax
  0027a	ff 15 00 00 00
	00		 call	 DWORD PTR __imp_?Concatenate@?$CSimpleStringT@D$00@ATL@@KAXAAV12@PBDH1H@Z
  00280	83 c4 14	 add	 esp, 20			; 00000014H
; File D:\git\src\IBK\IBK_DRFN\ProjSrc\SrcDrfn\Chart\MULTICHART\FloatingHogaDlg.cpp

; 2602 : 		strExpVol = m_Util.GetComma(kbReal_KXYS.m_szyevolume) + "";

  00283	8d 45 d4	 lea	 eax, DWORD PTR $T5[ebp]
  00286	50		 push	 eax
  00287	8d 4d a8	 lea	 ecx, DWORD PTR _strExpVol$[ebp]
  0028a	ff 15 00 00 00
	00		 call	 DWORD PTR __imp_??4?$CStringT@DV?$StrTraitMFC_DLL@DV?$ChTraitsCRT@D@ATL@@@@@ATL@@QAEAAV01@ABV01@@Z
  00290	8d 4d d4	 lea	 ecx, DWORD PTR $T5[ebp]
  00293	ff 15 00 00 00
	00		 call	 DWORD PTR __imp_??1?$CStringT@DV?$StrTraitMFC_DLL@DV?$ChTraitsCRT@D@ATL@@@@@ATL@@QAE@XZ
  00299	8d 4d d0	 lea	 ecx, DWORD PTR $T3[ebp]
  0029c	c6 45 fc 06	 mov	 BYTE PTR __$EHRec$[ebp+8], 6
  002a0	ff 15 00 00 00
	00		 call	 DWORD PTR __imp_??1?$CStringT@DV?$StrTraitMFC_DLL@DV?$ChTraitsCRT@D@ATL@@@@@ATL@@QAE@XZ

; 2603 : 		
; 2604 : 		long lPrice = atol(strPrice);

  002a6	ff 75 a0	 push	 DWORD PTR _strPrice$[ebp]
  002a9	8b 35 00 00 00
	00		 mov	 esi, DWORD PTR __imp__atol
  002af	ff d6		 call	 esi

; 2605 : 		long lExpRate = atol(strExpRate);

  002b1	ff 75 ac	 push	 DWORD PTR _strExpRate$[ebp]
  002b4	ff d6		 call	 esi

; 2606 : //		double dChangeRate = (double)((double)lExpRate/(double)(lPrice-lExpRate)) * 100.;
; 2607 : 		double dChangeRate = (double)((double)atol(kbReal_KXYS.m_szjnilydrate)/100.);

  002b6	ff 75 cc	 push	 DWORD PTR _kbReal_KXYS$[ebp+24]
  002b9	ff d6		 call	 esi

; 2608 : 		strChangeRate.Format("%.2f", dChangeRate);

  002bb	83 c4 04	 add	 esp, 4
  002be	66 0f 6e c0	 movd	 xmm0, eax
  002c2	8d 45 b0	 lea	 eax, DWORD PTR _strChangeRate$[ebp]
  002c5	f3 0f e6 c0	 cvtdq2pd xmm0, xmm0
  002c9	f2 0f 5e 05 00
	00 00 00	 divsd	 xmm0, QWORD PTR __real@4059000000000000
  002d1	f2 0f 11 04 24	 movsd	 QWORD PTR [esp], xmm0
  002d6	68 00 00 00 00	 push	 OFFSET ??_C@_04GEFJINEE@?$CF?42f@
  002db	50		 push	 eax
  002dc	ff 15 00 00 00
	00		 call	 DWORD PTR __imp_?Format@?$CStringT@DV?$StrTraitMFC_DLL@DV?$ChTraitsCRT@D@ATL@@@@@ATL@@QAAXPBDZZ
  002e2	83 c4 10	 add	 esp, 16			; 00000010H

; 2609 : 		strChangeRate += "%";

  002e5	8d 4d b0	 lea	 ecx, DWORD PTR _strChangeRate$[ebp]
  002e8	68 00 00 00 00	 push	 OFFSET ??_C@_01FGNFDNOH@?$CF@
  002ed	ff 15 00 00 00
	00		 call	 DWORD PTR __imp_??Y?$CStringT@DV?$StrTraitMFC_DLL@DV?$ChTraitsCRT@D@ATL@@@@@ATL@@QAEAAV01@PBD@Z

; 2610 : 		
; 2611 : 		COLORREF clrChange;
; 2612 : //>> [QC No]090803HMC075
; 2613 : //		int nSign = atoi(kbReal_KXYS.m_szpreysign);
; 2614 : 		int nYSign = atoi(kbReal_KXYS.m_szjnilysign);

  002f3	ff 75 c8	 push	 DWORD PTR _kbReal_KXYS$[ebp+20]
  002f6	ff 15 00 00 00
	00		 call	 DWORD PTR __imp__atoi
  002fc	83 c4 04	 add	 esp, 4

; 2615 : //<< [QC No]090803HMC075
; 2616 : 		if ( nYSign < 3 )

  002ff	83 f8 03	 cmp	 eax, 3
  00302	7d 07		 jge	 SHORT $LN3@SetRealYeS

; 2617 : 			clrChange = COLOR_RED;

  00304	be ff 00 00 00	 mov	 esi, 255		; 000000ffH
  00309	eb 0d		 jmp	 SHORT $LN5@SetRealYeS
$LN3@SetRealYeS:

; 2618 : 		else if ( nYSign > 3 )

  0030b	33 f6		 xor	 esi, esi
  0030d	b9 00 00 ff 00	 mov	 ecx, 16711680		; 00ff0000H
  00312	83 f8 03	 cmp	 eax, 3
  00315	0f 4f f1	 cmovg	 esi, ecx
$LN5@SetRealYeS:

; 2619 : 			clrChange = COLOR_BLUE;
; 2620 : 		else
; 2621 : 			clrChange = COLOR_BLACK;
; 2622 : 		
; 2623 : 		CompareNUpdateHogaData(9, MAESU_JAN_COL, "", 0, COLOR_BLACK);

  00318	6a 00		 push	 0
  0031a	6a 00		 push	 0
  0031c	51		 push	 ecx
  0031d	8b cc		 mov	 ecx, esp
  0031f	68 00 00 00 00	 push	 OFFSET ??_C@_0L@NIGCCKF@?$LP?$LJ?$LL?s?C?$LM?$LA?a?$LA?$KB@
  00324	ff 15 00 00 00
	00		 call	 DWORD PTR __imp_??0?$CStringT@DV?$StrTraitMFC_DLL@DV?$ChTraitsCRT@D@ATL@@@@@ATL@@QAE@PBD@Z
  0032a	6a 06		 push	 6
  0032c	6a 09		 push	 9
  0032e	8b cb		 mov	 ecx, ebx
  00330	e8 00 00 00 00	 call	 ?CompareNUpdateHogaData@CFloatingHogaDlg@@QAEXHHV?$CStringT@DV?$StrTraitMFC_DLL@DV?$ChTraitsCRT@D@ATL@@@@@ATL@@HK@Z ; CFloatingHogaDlg::CompareNUpdateHogaData

; 2624 : 		CompareNUpdateHogaData(10, MAESU_JAN_COL, strExpPrice, GVIF_FGCLR, clrChange);

  00335	56		 push	 esi
  00336	6a 20		 push	 32			; 00000020H
  00338	51		 push	 ecx
  00339	8d 45 a4	 lea	 eax, DWORD PTR _strExpPrice$[ebp]
  0033c	8b cc		 mov	 ecx, esp
  0033e	50		 push	 eax
  0033f	ff 15 00 00 00
	00		 call	 DWORD PTR __imp_??0?$CStringT@DV?$StrTraitMFC_DLL@DV?$ChTraitsCRT@D@ATL@@@@@ATL@@QAE@ABV01@@Z
  00345	6a 06		 push	 6
  00347	6a 0a		 push	 10			; 0000000aH
  00349	8b cb		 mov	 ecx, ebx
  0034b	e8 00 00 00 00	 call	 ?CompareNUpdateHogaData@CFloatingHogaDlg@@QAEXHHV?$CStringT@DV?$StrTraitMFC_DLL@DV?$ChTraitsCRT@D@ATL@@@@@ATL@@HK@Z ; CFloatingHogaDlg::CompareNUpdateHogaData

; 2625 : 		CompareNUpdateHogaData(11, MAESU_JAN_COL, strChangeRate, GVIF_FGCLR, clrChange);

  00350	56		 push	 esi
  00351	6a 20		 push	 32			; 00000020H
  00353	51		 push	 ecx
  00354	8d 45 b0	 lea	 eax, DWORD PTR _strChangeRate$[ebp]
  00357	8b cc		 mov	 ecx, esp
  00359	50		 push	 eax
  0035a	ff 15 00 00 00
	00		 call	 DWORD PTR __imp_??0?$CStringT@DV?$StrTraitMFC_DLL@DV?$ChTraitsCRT@D@ATL@@@@@ATL@@QAE@ABV01@@Z
  00360	6a 06		 push	 6
  00362	6a 0b		 push	 11			; 0000000bH
  00364	8b cb		 mov	 ecx, ebx
  00366	e8 00 00 00 00	 call	 ?CompareNUpdateHogaData@CFloatingHogaDlg@@QAEXHHV?$CStringT@DV?$StrTraitMFC_DLL@DV?$ChTraitsCRT@D@ATL@@@@@ATL@@HK@Z ; CFloatingHogaDlg::CompareNUpdateHogaData

; 2626 : 		CompareNUpdateHogaData(12, MAESU_JAN_COL, "", 0, COLOR_BLACK);

  0036b	6a 00		 push	 0
  0036d	6a 00		 push	 0
  0036f	51		 push	 ecx
  00370	8b cc		 mov	 ecx, esp
  00372	68 00 00 00 00	 push	 OFFSET ??_C@_0L@IPFBCIOP@?$LP?$LJ?$LL?s?C?$LM?$LA?a?$LH?$KO@
  00377	ff 15 00 00 00
	00		 call	 DWORD PTR __imp_??0?$CStringT@DV?$StrTraitMFC_DLL@DV?$ChTraitsCRT@D@ATL@@@@@ATL@@QAE@PBD@Z
  0037d	6a 06		 push	 6
  0037f	6a 0c		 push	 12			; 0000000cH
  00381	8b cb		 mov	 ecx, ebx
  00383	e8 00 00 00 00	 call	 ?CompareNUpdateHogaData@CFloatingHogaDlg@@QAEXHHV?$CStringT@DV?$StrTraitMFC_DLL@DV?$ChTraitsCRT@D@ATL@@@@@ATL@@HK@Z ; CFloatingHogaDlg::CompareNUpdateHogaData

; 2627 : 		CompareNUpdateHogaData(13, MAESU_JAN_COL, strExpVol, 0, COLOR_BLACK);

  00388	6a 00		 push	 0
  0038a	6a 00		 push	 0
  0038c	51		 push	 ecx
  0038d	8d 45 a8	 lea	 eax, DWORD PTR _strExpVol$[ebp]
  00390	8b cc		 mov	 ecx, esp
  00392	50		 push	 eax
  00393	ff 15 00 00 00
	00		 call	 DWORD PTR __imp_??0?$CStringT@DV?$StrTraitMFC_DLL@DV?$ChTraitsCRT@D@ATL@@@@@ATL@@QAE@ABV01@@Z
  00399	6a 06		 push	 6
  0039b	6a 0d		 push	 13			; 0000000dH
  0039d	8b cb		 mov	 ecx, ebx
  0039f	e8 00 00 00 00	 call	 ?CompareNUpdateHogaData@CFloatingHogaDlg@@QAEXHHV?$CStringT@DV?$StrTraitMFC_DLL@DV?$ChTraitsCRT@D@ATL@@@@@ATL@@HK@Z ; CFloatingHogaDlg::CompareNUpdateHogaData

; 2628 : 	}
; 2629 : }

  003a4	8d 4d b0	 lea	 ecx, DWORD PTR _strChangeRate$[ebp]
  003a7	ff 15 00 00 00
	00		 call	 DWORD PTR __imp_??1?$CStringT@DV?$StrTraitMFC_DLL@DV?$ChTraitsCRT@D@ATL@@@@@ATL@@QAE@XZ
  003ad	8d 4d ac	 lea	 ecx, DWORD PTR _strExpRate$[ebp]
  003b0	ff 15 00 00 00
	00		 call	 DWORD PTR __imp_??1?$CStringT@DV?$StrTraitMFC_DLL@DV?$ChTraitsCRT@D@ATL@@@@@ATL@@QAE@XZ
  003b6	8d 4d a8	 lea	 ecx, DWORD PTR _strExpVol$[ebp]
  003b9	ff 15 00 00 00
	00		 call	 DWORD PTR __imp_??1?$CStringT@DV?$StrTraitMFC_DLL@DV?$ChTraitsCRT@D@ATL@@@@@ATL@@QAE@XZ
  003bf	8d 4d a4	 lea	 ecx, DWORD PTR _strExpPrice$[ebp]
  003c2	ff 15 00 00 00
	00		 call	 DWORD PTR __imp_??1?$CStringT@DV?$StrTraitMFC_DLL@DV?$ChTraitsCRT@D@ATL@@@@@ATL@@QAE@XZ
  003c8	8d 4d a0	 lea	 ecx, DWORD PTR _strPrice$[ebp]
  003cb	ff 15 00 00 00
	00		 call	 DWORD PTR __imp_??1?$CStringT@DV?$StrTraitMFC_DLL@DV?$ChTraitsCRT@D@ATL@@@@@ATL@@QAE@XZ
  003d1	8d 4d cc	 lea	 ecx, DWORD PTR _kbReal_KXYS$[ebp+24]
  003d4	ff 15 00 00 00
	00		 call	 DWORD PTR __imp_??1?$CStringT@DV?$StrTraitMFC_DLL@DV?$ChTraitsCRT@D@ATL@@@@@ATL@@QAE@XZ
  003da	8d 4d c8	 lea	 ecx, DWORD PTR _kbReal_KXYS$[ebp+20]
  003dd	ff 15 00 00 00
	00		 call	 DWORD PTR __imp_??1?$CStringT@DV?$StrTraitMFC_DLL@DV?$ChTraitsCRT@D@ATL@@@@@ATL@@QAE@XZ
  003e3	8d 4d c4	 lea	 ecx, DWORD PTR _kbReal_KXYS$[ebp+16]
  003e6	ff 15 00 00 00
	00		 call	 DWORD PTR __imp_??1?$CStringT@DV?$StrTraitMFC_DLL@DV?$ChTraitsCRT@D@ATL@@@@@ATL@@QAE@XZ
  003ec	8d 4d c0	 lea	 ecx, DWORD PTR _kbReal_KXYS$[ebp+12]
  003ef	ff 15 00 00 00
	00		 call	 DWORD PTR __imp_??1?$CStringT@DV?$StrTraitMFC_DLL@DV?$ChTraitsCRT@D@ATL@@@@@ATL@@QAE@XZ
  003f5	8d 4d bc	 lea	 ecx, DWORD PTR _kbReal_KXYS$[ebp+8]
  003f8	ff 15 00 00 00
	00		 call	 DWORD PTR __imp_??1?$CStringT@DV?$StrTraitMFC_DLL@DV?$ChTraitsCRT@D@ATL@@@@@ATL@@QAE@XZ
  003fe	8d 4d b8	 lea	 ecx, DWORD PTR _kbReal_KXYS$[ebp+4]
  00401	ff 15 00 00 00
	00		 call	 DWORD PTR __imp_??1?$CStringT@DV?$StrTraitMFC_DLL@DV?$ChTraitsCRT@D@ATL@@@@@ATL@@QAE@XZ
$LN66@SetRealYeS:
  00407	8b 4d f4	 mov	 ecx, DWORD PTR __$EHRec$[ebp]
  0040a	64 89 0d 00 00
	00 00		 mov	 DWORD PTR fs:0, ecx
  00411	59		 pop	 ecx
  00412	5e		 pop	 esi
  00413	5b		 pop	 ebx
  00414	8b 4d f0	 mov	 ecx, DWORD PTR __$ArrayPad$[ebp]
  00417	33 cd		 xor	 ecx, ebp
  00419	e8 00 00 00 00	 call	 @__security_check_cookie@4
  0041e	8b e5		 mov	 esp, ebp
  00420	5d		 pop	 ebp
  00421	c2 04 00	 ret	 4
_TEXT	ENDS
;	COMDAT text$x
text$x	SEGMENT
__unwindfunclet$?SetRealYeShangData@CFloatingHogaDlg@@QAEXPBD@Z$0:
  00000	8d 4d b4	 lea	 ecx, DWORD PTR _kbReal_KXYS$[ebp]
  00003	e9 00 00 00 00	 jmp	 ??1CKBREAL_KXYS@@QAE@XZ
__unwindfunclet$?SetRealYeShangData@CFloatingHogaDlg@@QAEXPBD@Z$14:
  00008	8d 4d d4	 lea	 ecx, DWORD PTR _sTemp1$4[ebp]
  0000b	ff 25 00 00 00
	00		 jmp	 DWORD PTR __imp_??1?$CStringT@DV?$StrTraitMFC_DLL@DV?$ChTraitsCRT@D@ATL@@@@@ATL@@QAE@XZ
__unwindfunclet$?SetRealYeShangData@CFloatingHogaDlg@@QAEXPBD@Z$1:
  00011	8d 4d a0	 lea	 ecx, DWORD PTR _strPrice$[ebp]
  00014	ff 25 00 00 00
	00		 jmp	 DWORD PTR __imp_??1?$CStringT@DV?$StrTraitMFC_DLL@DV?$ChTraitsCRT@D@ATL@@@@@ATL@@QAE@XZ
__unwindfunclet$?SetRealYeShangData@CFloatingHogaDlg@@QAEXPBD@Z$2:
  0001a	8d 4d a4	 lea	 ecx, DWORD PTR _strExpPrice$[ebp]
  0001d	ff 25 00 00 00
	00		 jmp	 DWORD PTR __imp_??1?$CStringT@DV?$StrTraitMFC_DLL@DV?$ChTraitsCRT@D@ATL@@@@@ATL@@QAE@XZ
__unwindfunclet$?SetRealYeShangData@CFloatingHogaDlg@@QAEXPBD@Z$3:
  00023	8d 4d a8	 lea	 ecx, DWORD PTR _strExpVol$[ebp]
  00026	ff 25 00 00 00
	00		 jmp	 DWORD PTR __imp_??1?$CStringT@DV?$StrTraitMFC_DLL@DV?$ChTraitsCRT@D@ATL@@@@@ATL@@QAE@XZ
__unwindfunclet$?SetRealYeShangData@CFloatingHogaDlg@@QAEXPBD@Z$4:
  0002c	8d 4d ac	 lea	 ecx, DWORD PTR _strExpRate$[ebp]
  0002f	ff 25 00 00 00
	00		 jmp	 DWORD PTR __imp_??1?$CStringT@DV?$StrTraitMFC_DLL@DV?$ChTraitsCRT@D@ATL@@@@@ATL@@QAE@XZ
__unwindfunclet$?SetRealYeShangData@CFloatingHogaDlg@@QAEXPBD@Z$5:
  00035	8d 4d b0	 lea	 ecx, DWORD PTR _strChangeRate$[ebp]
  00038	ff 25 00 00 00
	00		 jmp	 DWORD PTR __imp_??1?$CStringT@DV?$StrTraitMFC_DLL@DV?$ChTraitsCRT@D@ATL@@@@@ATL@@QAE@XZ
__unwindfunclet$?SetRealYeShangData@CFloatingHogaDlg@@QAEXPBD@Z$6:
  0003e	8d 4d d4	 lea	 ecx, DWORD PTR $T6[ebp]
  00041	ff 25 00 00 00
	00		 jmp	 DWORD PTR __imp_??1?$CStringT@DV?$StrTraitMFC_DLL@DV?$ChTraitsCRT@D@ATL@@@@@ATL@@QAE@XZ
__unwindfunclet$?SetRealYeShangData@CFloatingHogaDlg@@QAEXPBD@Z$7:
  00047	8d 4d d0	 lea	 ecx, DWORD PTR $T3[ebp]
  0004a	ff 25 00 00 00
	00		 jmp	 DWORD PTR __imp_??1?$CStringT@DV?$StrTraitMFC_DLL@DV?$ChTraitsCRT@D@ATL@@@@@ATL@@QAE@XZ
__unwindfunclet$?SetRealYeShangData@CFloatingHogaDlg@@QAEXPBD@Z$15:
  00050	8b 45 9c	 mov	 eax, DWORD PTR $T2[ebp]
  00053	83 e0 01	 and	 eax, 1
  00056	0f 84 0d 00 00
	00		 je	 $LN47@SetRealYeS
  0005c	83 65 9c fe	 and	 DWORD PTR $T2[ebp], -2	; fffffffeH
  00060	8d 4d d4	 lea	 ecx, DWORD PTR $T5[ebp]
  00063	ff 25 00 00 00
	00		 jmp	 DWORD PTR __imp_??1?$CStringT@DV?$StrTraitMFC_DLL@DV?$ChTraitsCRT@D@ATL@@@@@ATL@@QAE@XZ
$LN47@SetRealYeS:
  00069	c3		 ret	 0
  0006a	cc		 int	 3
  0006b	cc		 int	 3
  0006c	cc		 int	 3
  0006d	cc		 int	 3
  0006e	cc		 int	 3
__ehhandler$?SetRealYeShangData@CFloatingHogaDlg@@QAEXPBD@Z:
  0006f	90		 npad	 1
  00070	90		 npad	 1
  00071	8b 54 24 08	 mov	 edx, DWORD PTR [esp+8]
  00075	8d 42 0c	 lea	 eax, DWORD PTR [edx+12]
  00078	8b 4a 9c	 mov	 ecx, DWORD PTR [edx-100]
  0007b	33 c8		 xor	 ecx, eax
  0007d	e8 00 00 00 00	 call	 @__security_check_cookie@4
  00082	8b 4a fc	 mov	 ecx, DWORD PTR [edx-4]
  00085	33 c8		 xor	 ecx, eax
  00087	e8 00 00 00 00	 call	 @__security_check_cookie@4
  0008c	b8 00 00 00 00	 mov	 eax, OFFSET __ehfuncinfo$?SetRealYeShangData@CFloatingHogaDlg@@QAEXPBD@Z
  00091	e9 00 00 00 00	 jmp	 ___CxxFrameHandler3
text$x	ENDS
?SetRealYeShangData@CFloatingHogaDlg@@QAEXPBD@Z ENDP	; CFloatingHogaDlg::SetRealYeShangData
; Function compile flags: /Ogtp
; File D:\git\src\IBK\IBK_DRFN\ProjSrc\SrcDrfn\Chart\MULTICHART\FloatingHogaDlg.cpp
; File C:\Program Files (x86)\Microsoft Visual Studio\2019\Community\VC\Tools\MSVC\14.29.30133\atlmfc\include\cstringt.h
; File D:\git\src\IBK\IBK_DRFN\ProjSrc\SrcDrfn\Chart\MULTICHART\FloatingHogaDlg.cpp
; File C:\Program Files (x86)\Microsoft Visual Studio\2019\Community\VC\Tools\MSVC\14.29.30133\atlmfc\include\cstringt.h
; File D:\git\src\IBK\IBK_DRFN\ProjSrc\SrcDrfn\Chart\MULTICHART\FloatingHogaDlg.cpp
; File C:\Program Files (x86)\Microsoft Visual Studio\2019\Community\VC\Tools\MSVC\14.29.30133\atlmfc\include\cstringt.h
; File D:\git\src\IBK\IBK_DRFN\ProjSrc\SrcDrfn\Chart\MULTICHART\FloatingHogaDlg.cpp
; File C:\Program Files (x86)\Microsoft Visual Studio\2019\Community\VC\Tools\MSVC\14.29.30133\atlmfc\include\cstringt.h
; File D:\git\src\IBK\IBK_DRFN\ProjSrc\SrcDrfn\Chart\MULTICHART\FloatingHogaDlg.cpp
; File C:\Program Files (x86)\Microsoft Visual Studio\2019\Community\VC\Tools\MSVC\14.29.30133\atlmfc\include\atlsimpstr.h
; File D:\git\src\IBK\IBK_DRFN\ProjSrc\SrcDrfn\Chart\MULTICHART\FloatingHogaDlg.cpp
; File C:\Program Files (x86)\Microsoft Visual Studio\2019\Community\VC\Tools\MSVC\14.29.30133\atlmfc\include\atlsimpstr.h
; File D:\git\src\IBK\IBK_DRFN\ProjSrc\SrcDrfn\Chart\MULTICHART\FloatingHogaDlg.cpp
;	COMDAT ?SetRealHogaData@CFloatingHogaDlg@@QAEXKV?$CStringT@DV?$StrTraitMFC_DLL@DV?$ChTraitsCRT@D@ATL@@@@@ATL@@J@Z
_TEXT	SEGMENT
_realData$2 = -112					; size = 96
_realData$3 = -112					; size = 96
_strData$ = -16						; size = 4
__$EHRec$ = -12						; size = 12
_dwMethodKey$ = 8					; size = 4
_strCode$ = 12						; size = 4
_szFlag$4 = 16						; size = 4
__pMapRealData$ = 16					; size = 4
?SetRealHogaData@CFloatingHogaDlg@@QAEXKV?$CStringT@DV?$StrTraitMFC_DLL@DV?$ChTraitsCRT@D@ATL@@@@@ATL@@J@Z PROC ; CFloatingHogaDlg::SetRealHogaData, COMDAT
; _this$ = ecx

; 2632 : {

  00000	55		 push	 ebp
  00001	8b ec		 mov	 ebp, esp
  00003	6a ff		 push	 -1
  00005	68 00 00 00 00	 push	 __ehhandler$?SetRealHogaData@CFloatingHogaDlg@@QAEXKV?$CStringT@DV?$StrTraitMFC_DLL@DV?$ChTraitsCRT@D@ATL@@@@@ATL@@J@Z
  0000a	64 a1 00 00 00
	00		 mov	 eax, DWORD PTR fs:0
  00010	50		 push	 eax
  00011	83 ec 64	 sub	 esp, 100		; 00000064H
  00014	56		 push	 esi
  00015	57		 push	 edi
  00016	a1 00 00 00 00	 mov	 eax, DWORD PTR ___security_cookie
  0001b	33 c5		 xor	 eax, ebp
  0001d	50		 push	 eax
  0001e	8d 45 f4	 lea	 eax, DWORD PTR __$EHRec$[ebp]
  00021	64 a3 00 00 00
	00		 mov	 DWORD PTR fs:0, eax
  00027	8b f9		 mov	 edi, ecx

; 2633 : 	CString strData;

  00029	8d 4d f0	 lea	 ecx, DWORD PTR _strData$[ebp]
  0002c	c7 45 fc 00 00
	00 00		 mov	 DWORD PTR __$EHRec$[ebp+8], 0
  00033	ff 15 00 00 00
	00		 call	 DWORD PTR __imp_??0?$CStringT@DV?$StrTraitMFC_DLL@DV?$ChTraitsCRT@D@ATL@@@@@ATL@@QAE@XZ

; 2634 : 
; 2635 : 	if(dwMethodKey==0)

  00039	8b 45 08	 mov	 eax, DWORD PTR _dwMethodKey$[ebp]
  0003c	c6 45 fc 01	 mov	 BYTE PTR __$EHRec$[ebp+8], 1
  00040	85 c0		 test	 eax, eax
  00042	0f 85 bb 01 00
	00		 jne	 $LN2@SetRealHog

; 2636 : 	{
; 2637 : 		CMapStringToString* pMapRealData = (CMapStringToString*)_pMapRealData;
; 2638 : 		if (!pMapRealData->Lookup(_T("071"), strData))

  00048	8b 75 10	 mov	 esi, DWORD PTR __pMapRealData$[ebp]
  0004b	8d 45 f0	 lea	 eax, DWORD PTR _strData$[ebp]
  0004e	50		 push	 eax
  0004f	68 00 00 00 00	 push	 OFFSET ??_C@_03MJOJCMOF@071@
  00054	8b ce		 mov	 ecx, esi
  00056	e8 00 00 00 00	 call	 ?Lookup@CMapStringToString@@QBEHPBDAAV?$CStringT@DV?$StrTraitMFC_DLL@DV?$ChTraitsCRT@D@ATL@@@@@ATL@@@Z ; CMapStringToString::Lookup
  0005b	85 c0		 test	 eax, eax
  0005d	0f 84 76 03 00
	00		 je	 $LN6@SetRealHog

; 2639 : 			return;
; 2640 : 		
; 2641 : 		CKBREAL_KXH1 realData;

  00063	8d 4d 90	 lea	 ecx, DWORD PTR _realData$3[ebp]
  00066	e8 00 00 00 00	 call	 ??0CKBREAL_KXH1@@QAE@XZ	; CKBREAL_KXH1::CKBREAL_KXH1

; 2642 : 		realData.m_szkshcode = strCode;

  0006b	8d 45 0c	 lea	 eax, DWORD PTR _strCode$[ebp]
  0006e	c6 45 fc 02	 mov	 BYTE PTR __$EHRec$[ebp+8], 2
  00072	50		 push	 eax
  00073	8d 4d 94	 lea	 ecx, DWORD PTR _realData$3[ebp+4]
  00076	ff 15 00 00 00
	00		 call	 DWORD PTR __imp_??4?$CStringT@DV?$StrTraitMFC_DLL@DV?$ChTraitsCRT@D@ATL@@@@@ATL@@QAEAAV01@ABV01@@Z
; File C:\Program Files (x86)\Microsoft Visual Studio\2019\Community\VC\Tools\MSVC\14.29.30133\atlmfc\include\cstringt.h

; 2560 : 		return( str1.Compare( str2 ) != 0 );

  0007c	ff 75 0c	 push	 DWORD PTR _strCode$[ebp]
; File D:\git\src\IBK\IBK_DRFN\ProjSrc\SrcDrfn\Chart\MULTICHART\FloatingHogaDlg.cpp

; 2644 : 		if( m_strCode != strCode )	return;

  0007f	8d 8f c4 00 00
	00		 lea	 ecx, DWORD PTR [edi+196]
; File C:\Program Files (x86)\Microsoft Visual Studio\2019\Community\VC\Tools\MSVC\14.29.30133\atlmfc\include\cstringt.h

; 2560 : 		return( str1.Compare( str2 ) != 0 );

  00085	ff 15 00 00 00
	00		 call	 DWORD PTR __imp_?Compare@?$CStringT@DV?$StrTraitMFC_DLL@DV?$ChTraitsCRT@D@ATL@@@@@ATL@@QBEHPBD@Z
  0008b	85 c0		 test	 eax, eax
; File D:\git\src\IBK\IBK_DRFN\ProjSrc\SrcDrfn\Chart\MULTICHART\FloatingHogaDlg.cpp

; 2644 : 		if( m_strCode != strCode )	return;

  0008d	0f 85 3e 03 00
	00		 jne	 $LN40@SetRealHog

; 2645 : 
; 2646 : 		pMapRealData->Lookup(_T("071"), realData.m_szbidho1);

  00093	8d 45 9c	 lea	 eax, DWORD PTR _realData$3[ebp+12]
  00096	8b ce		 mov	 ecx, esi
  00098	50		 push	 eax
  00099	68 00 00 00 00	 push	 OFFSET ??_C@_03MJOJCMOF@071@
  0009e	e8 00 00 00 00	 call	 ?Lookup@CMapStringToString@@QBEHPBDAAV?$CStringT@DV?$StrTraitMFC_DLL@DV?$ChTraitsCRT@D@ATL@@@@@ATL@@@Z ; CMapStringToString::Lookup

; 2647 : 		pMapRealData->Lookup(_T("072"), realData.m_szbidho2);

  000a3	8d 45 ac	 lea	 eax, DWORD PTR _realData$3[ebp+28]
  000a6	8b ce		 mov	 ecx, esi
  000a8	50		 push	 eax
  000a9	68 00 00 00 00	 push	 OFFSET ??_C@_03OCMEHPCG@072@
  000ae	e8 00 00 00 00	 call	 ?Lookup@CMapStringToString@@QBEHPBDAAV?$CStringT@DV?$StrTraitMFC_DLL@DV?$ChTraitsCRT@D@ATL@@@@@ATL@@@Z ; CMapStringToString::Lookup

; 2648 : 		pMapRealData->Lookup(_T("073"), realData.m_szbidho3);

  000b3	8d 45 bc	 lea	 eax, DWORD PTR _realData$3[ebp+44]
  000b6	8b ce		 mov	 ecx, esi
  000b8	50		 push	 eax
  000b9	68 00 00 00 00	 push	 OFFSET ??_C@_03PLNPEOGH@073@
  000be	e8 00 00 00 00	 call	 ?Lookup@CMapStringToString@@QBEHPBDAAV?$CStringT@DV?$StrTraitMFC_DLL@DV?$ChTraitsCRT@D@ATL@@@@@ATL@@@Z ; CMapStringToString::Lookup

; 2649 : 		pMapRealData->Lookup(_T("074"), realData.m_szbidho4);

  000c3	8d 45 cc	 lea	 eax, DWORD PTR _realData$3[ebp+60]
  000c6	8b ce		 mov	 ecx, esi
  000c8	50		 push	 eax
  000c9	68 00 00 00 00	 push	 OFFSET ??_C@_03LEJONIKA@074@
  000ce	e8 00 00 00 00	 call	 ?Lookup@CMapStringToString@@QBEHPBDAAV?$CStringT@DV?$StrTraitMFC_DLL@DV?$ChTraitsCRT@D@ATL@@@@@ATL@@@Z ; CMapStringToString::Lookup

; 2650 : 		pMapRealData->Lookup(_T("075"), realData.m_szbidho5);

  000d3	8d 45 dc	 lea	 eax, DWORD PTR _realData$3[ebp+76]
  000d6	8b ce		 mov	 ecx, esi
  000d8	50		 push	 eax
  000d9	68 00 00 00 00	 push	 OFFSET ??_C@_03KNIFOJOB@075@
  000de	e8 00 00 00 00	 call	 ?Lookup@CMapStringToString@@QBEHPBDAAV?$CStringT@DV?$StrTraitMFC_DLL@DV?$ChTraitsCRT@D@ATL@@@@@ATL@@@Z ; CMapStringToString::Lookup

; 2651 : 		pMapRealData->Lookup(_T("051"), realData.m_szofferho1);

  000e3	8d 45 98	 lea	 eax, DWORD PTR _realData$3[ebp+8]
  000e6	8b ce		 mov	 ecx, esi
  000e8	50		 push	 eax
  000e9	68 00 00 00 00	 push	 OFFSET ??_C@_03MKGNPIIL@051@
  000ee	e8 00 00 00 00	 call	 ?Lookup@CMapStringToString@@QBEHPBDAAV?$CStringT@DV?$StrTraitMFC_DLL@DV?$ChTraitsCRT@D@ATL@@@@@ATL@@@Z ; CMapStringToString::Lookup

; 2652 : 		pMapRealData->Lookup(_T("052"), realData.m_szofferho2);

  000f3	8d 45 a8	 lea	 eax, DWORD PTR _realData$3[ebp+24]
  000f6	8b ce		 mov	 ecx, esi
  000f8	50		 push	 eax
  000f9	68 00 00 00 00	 push	 OFFSET ??_C@_03OBEAKLEI@052@
  000fe	e8 00 00 00 00	 call	 ?Lookup@CMapStringToString@@QBEHPBDAAV?$CStringT@DV?$StrTraitMFC_DLL@DV?$ChTraitsCRT@D@ATL@@@@@ATL@@@Z ; CMapStringToString::Lookup

; 2653 : 		pMapRealData->Lookup(_T("053"), realData.m_szofferho3);

  00103	8d 45 b8	 lea	 eax, DWORD PTR _realData$3[ebp+40]
  00106	8b ce		 mov	 ecx, esi
  00108	50		 push	 eax
  00109	68 00 00 00 00	 push	 OFFSET ??_C@_03PIFLJKAJ@053@
  0010e	e8 00 00 00 00	 call	 ?Lookup@CMapStringToString@@QBEHPBDAAV?$CStringT@DV?$StrTraitMFC_DLL@DV?$ChTraitsCRT@D@ATL@@@@@ATL@@@Z ; CMapStringToString::Lookup

; 2654 : 		pMapRealData->Lookup(_T("054"), realData.m_szofferho4);

  00113	8d 45 c8	 lea	 eax, DWORD PTR _realData$3[ebp+56]
  00116	8b ce		 mov	 ecx, esi
  00118	50		 push	 eax
  00119	68 00 00 00 00	 push	 OFFSET ??_C@_03LHBKAMMO@054@
  0011e	e8 00 00 00 00	 call	 ?Lookup@CMapStringToString@@QBEHPBDAAV?$CStringT@DV?$StrTraitMFC_DLL@DV?$ChTraitsCRT@D@ATL@@@@@ATL@@@Z ; CMapStringToString::Lookup

; 2655 : 		pMapRealData->Lookup(_T("055"), realData.m_szofferho5);

  00123	8d 45 d8	 lea	 eax, DWORD PTR _realData$3[ebp+72]
  00126	8b ce		 mov	 ecx, esi
  00128	50		 push	 eax
  00129	68 00 00 00 00	 push	 OFFSET ??_C@_03KOABDNIP@055@
  0012e	e8 00 00 00 00	 call	 ?Lookup@CMapStringToString@@QBEHPBDAAV?$CStringT@DV?$StrTraitMFC_DLL@DV?$ChTraitsCRT@D@ATL@@@@@ATL@@@Z ; CMapStringToString::Lookup

; 2656 : 		pMapRealData->Lookup(_T("061"), realData.m_szbidrem1);

  00133	8d 45 a4	 lea	 eax, DWORD PTR _realData$3[ebp+20]
  00136	8b ce		 mov	 ecx, esi
  00138	50		 push	 eax
  00139	68 00 00 00 00	 push	 OFFSET ??_C@_03MICLEGNC@061@
  0013e	e8 00 00 00 00	 call	 ?Lookup@CMapStringToString@@QBEHPBDAAV?$CStringT@DV?$StrTraitMFC_DLL@DV?$ChTraitsCRT@D@ATL@@@@@ATL@@@Z ; CMapStringToString::Lookup

; 2657 : 		pMapRealData->Lookup(_T("062"), realData.m_szbidrem2);

  00143	8d 45 b4	 lea	 eax, DWORD PTR _realData$3[ebp+36]
  00146	8b ce		 mov	 ecx, esi
  00148	50		 push	 eax
  00149	68 00 00 00 00	 push	 OFFSET ??_C@_03ODAGBFBB@062@
  0014e	e8 00 00 00 00	 call	 ?Lookup@CMapStringToString@@QBEHPBDAAV?$CStringT@DV?$StrTraitMFC_DLL@DV?$ChTraitsCRT@D@ATL@@@@@ATL@@@Z ; CMapStringToString::Lookup

; 2658 : 		pMapRealData->Lookup(_T("063"), realData.m_szbidrem3);

  00153	8d 45 c4	 lea	 eax, DWORD PTR _realData$3[ebp+52]
  00156	8b ce		 mov	 ecx, esi
  00158	50		 push	 eax
  00159	68 00 00 00 00	 push	 OFFSET ??_C@_03PKBNCEFA@063@
  0015e	e8 00 00 00 00	 call	 ?Lookup@CMapStringToString@@QBEHPBDAAV?$CStringT@DV?$StrTraitMFC_DLL@DV?$ChTraitsCRT@D@ATL@@@@@ATL@@@Z ; CMapStringToString::Lookup

; 2659 : 		pMapRealData->Lookup(_T("064"), realData.m_szbidrem4);

  00163	8d 45 d4	 lea	 eax, DWORD PTR _realData$3[ebp+68]
  00166	8b ce		 mov	 ecx, esi
  00168	50		 push	 eax
  00169	68 00 00 00 00	 push	 OFFSET ??_C@_03LFFMLCJH@064@
  0016e	e8 00 00 00 00	 call	 ?Lookup@CMapStringToString@@QBEHPBDAAV?$CStringT@DV?$StrTraitMFC_DLL@DV?$ChTraitsCRT@D@ATL@@@@@ATL@@@Z ; CMapStringToString::Lookup

; 2660 : 		pMapRealData->Lookup(_T("065"), realData.m_szbidrem5);

  00173	8d 45 e4	 lea	 eax, DWORD PTR _realData$3[ebp+84]
  00176	8b ce		 mov	 ecx, esi
  00178	50		 push	 eax
  00179	68 00 00 00 00	 push	 OFFSET ??_C@_03KMEHIDNG@065@
  0017e	e8 00 00 00 00	 call	 ?Lookup@CMapStringToString@@QBEHPBDAAV?$CStringT@DV?$StrTraitMFC_DLL@DV?$ChTraitsCRT@D@ATL@@@@@ATL@@@Z ; CMapStringToString::Lookup

; 2661 : 		pMapRealData->Lookup(_T("041"), realData.m_szofferrem1);

  00183	8d 45 a0	 lea	 eax, DWORD PTR _realData$3[ebp+16]
  00186	8b ce		 mov	 ecx, esi
  00188	50		 push	 eax
  00189	68 00 00 00 00	 push	 OFFSET ??_C@_03MLKPJCLM@041@
  0018e	e8 00 00 00 00	 call	 ?Lookup@CMapStringToString@@QBEHPBDAAV?$CStringT@DV?$StrTraitMFC_DLL@DV?$ChTraitsCRT@D@ATL@@@@@ATL@@@Z ; CMapStringToString::Lookup

; 2662 : 		pMapRealData->Lookup(_T("042"), realData.m_szofferrem2);

  00193	8d 45 b0	 lea	 eax, DWORD PTR _realData$3[ebp+32]
  00196	50		 push	 eax
  00197	68 00 00 00 00	 push	 OFFSET ??_C@_03OAICMBHP@042@
  0019c	8b ce		 mov	 ecx, esi
  0019e	e8 00 00 00 00	 call	 ?Lookup@CMapStringToString@@QBEHPBDAAV?$CStringT@DV?$StrTraitMFC_DLL@DV?$ChTraitsCRT@D@ATL@@@@@ATL@@@Z ; CMapStringToString::Lookup

; 2663 : 		pMapRealData->Lookup(_T("043"), realData.m_szofferrem3);

  001a3	8d 45 c0	 lea	 eax, DWORD PTR _realData$3[ebp+48]
  001a6	8b ce		 mov	 ecx, esi
  001a8	50		 push	 eax
  001a9	68 00 00 00 00	 push	 OFFSET ??_C@_03PJJJPADO@043@
  001ae	e8 00 00 00 00	 call	 ?Lookup@CMapStringToString@@QBEHPBDAAV?$CStringT@DV?$StrTraitMFC_DLL@DV?$ChTraitsCRT@D@ATL@@@@@ATL@@@Z ; CMapStringToString::Lookup

; 2664 : 		pMapRealData->Lookup(_T("044"), realData.m_szofferrem4);

  001b3	8d 45 d0	 lea	 eax, DWORD PTR _realData$3[ebp+64]
  001b6	8b ce		 mov	 ecx, esi
  001b8	50		 push	 eax
  001b9	68 00 00 00 00	 push	 OFFSET ??_C@_03LGNIGGPJ@044@
  001be	e8 00 00 00 00	 call	 ?Lookup@CMapStringToString@@QBEHPBDAAV?$CStringT@DV?$StrTraitMFC_DLL@DV?$ChTraitsCRT@D@ATL@@@@@ATL@@@Z ; CMapStringToString::Lookup

; 2665 : 		pMapRealData->Lookup(_T("045"), realData.m_szofferrem5);

  001c3	8d 45 e0	 lea	 eax, DWORD PTR _realData$3[ebp+80]
  001c6	8b ce		 mov	 ecx, esi
  001c8	50		 push	 eax
  001c9	68 00 00 00 00	 push	 OFFSET ??_C@_03KPMDFHLI@045@
  001ce	e8 00 00 00 00	 call	 ?Lookup@CMapStringToString@@QBEHPBDAAV?$CStringT@DV?$StrTraitMFC_DLL@DV?$ChTraitsCRT@D@ATL@@@@@ATL@@@Z ; CMapStringToString::Lookup

; 2666 : 		
; 2667 : 		pMapRealData->Lookup(_T("101"), realData.m_sztotofferrem);

  001d3	8d 45 e8	 lea	 eax, DWORD PTR _realData$3[ebp+88]
  001d6	8b ce		 mov	 ecx, esi
  001d8	50		 push	 eax
  001d9	68 00 00 00 00	 push	 OFFSET ??_C@_03HEBKFNAF@101@
  001de	e8 00 00 00 00	 call	 ?Lookup@CMapStringToString@@QBEHPBDAAV?$CStringT@DV?$StrTraitMFC_DLL@DV?$ChTraitsCRT@D@ATL@@@@@ATL@@@Z ; CMapStringToString::Lookup

; 2668 : 		pMapRealData->Lookup(_T("106"), realData.m_sztotbidrem);

  001e3	8d 45 ec	 lea	 eax, DWORD PTR _realData$3[ebp+92]
  001e6	8b ce		 mov	 ecx, esi
  001e8	50		 push	 eax
  001e9	68 00 00 00 00	 push	 OFFSET ??_C@_03DLFLMLMC@106@
  001ee	e8 00 00 00 00	 call	 ?Lookup@CMapStringToString@@QBEHPBDAAV?$CStringT@DV?$StrTraitMFC_DLL@DV?$ChTraitsCRT@D@ATL@@@@@ATL@@@Z ; CMapStringToString::Lookup

; 2669 : 
; 2670 : 		SetRealHogaData(realData);

  001f3	8d 45 90	 lea	 eax, DWORD PTR _realData$3[ebp]
  001f6	8b cf		 mov	 ecx, edi
  001f8	50		 push	 eax
  001f9	e8 00 00 00 00	 call	 ?SetRealHogaData@CFloatingHogaDlg@@QAEXAAVCKBREAL_KXH1@@@Z ; CFloatingHogaDlg::SetRealHogaData

; 2671 : 	}

  001fe	e9 ce 01 00 00	 jmp	 $LN40@SetRealHog
$LN2@SetRealHog:

; 2672 : 	else if(dwMethodKey==1)

  00203	83 f8 01	 cmp	 eax, 1
  00206	0f 85 cd 01 00
	00		 jne	 $LN6@SetRealHog

; 2673 : 	{
; 2674 : 		DWORD* pArrData = (DWORD*)_pMapRealData;
; 2675 : 
; 2676 : 		strData = (char*)pArrData[ 71];

  0020c	8b 75 10	 mov	 esi, DWORD PTR __pMapRealData$[ebp]
  0020f	8d 4d f0	 lea	 ecx, DWORD PTR _strData$[ebp]
  00212	ff b6 1c 01 00
	00		 push	 DWORD PTR [esi+284]
  00218	ff 15 00 00 00
	00		 call	 DWORD PTR __imp_??4?$CStringT@DV?$StrTraitMFC_DLL@DV?$ChTraitsCRT@D@ATL@@@@@ATL@@QAEAAV01@PBD@Z

; 2677 : //		if(strData.IsEmpty()==TRUE)	return;
; 2678 : 		
; 2679 : 		CKBREAL_KXH1 realData;

  0021e	8d 4d 90	 lea	 ecx, DWORD PTR _realData$2[ebp]
  00221	e8 00 00 00 00	 call	 ??0CKBREAL_KXH1@@QAE@XZ	; CKBREAL_KXH1::CKBREAL_KXH1

; 2680 : 		CString szFlag = (char*)pArrData[ 0];

  00226	ff 36		 push	 DWORD PTR [esi]
  00228	8d 4d 10	 lea	 ecx, DWORD PTR _szFlag$4[ebp]
  0022b	c6 45 fc 03	 mov	 BYTE PTR __$EHRec$[ebp+8], 3
  0022f	ff 15 00 00 00
	00		 call	 DWORD PTR __imp_??0?$CStringT@DV?$StrTraitMFC_DLL@DV?$ChTraitsCRT@D@ATL@@@@@ATL@@QAE@PBD@Z

; 2681 : 
; 2682 : 		realData.m_szkshcode	= strCode;

  00235	8d 45 0c	 lea	 eax, DWORD PTR _strCode$[ebp]
  00238	c6 45 fc 04	 mov	 BYTE PTR __$EHRec$[ebp+8], 4
  0023c	50		 push	 eax
  0023d	8d 4d 94	 lea	 ecx, DWORD PTR _realData$2[ebp+4]
  00240	ff 15 00 00 00
	00		 call	 DWORD PTR __imp_??4?$CStringT@DV?$StrTraitMFC_DLL@DV?$ChTraitsCRT@D@ATL@@@@@ATL@@QAEAAV01@ABV01@@Z
; File C:\Program Files (x86)\Microsoft Visual Studio\2019\Community\VC\Tools\MSVC\14.29.30133\atlmfc\include\cstringt.h

; 2560 : 		return( str1.Compare( str2 ) != 0 );

  00246	ff 75 0c	 push	 DWORD PTR _strCode$[ebp]
; File D:\git\src\IBK\IBK_DRFN\ProjSrc\SrcDrfn\Chart\MULTICHART\FloatingHogaDlg.cpp

; 2683 : 		if( m_strCode != strCode )	return;

  00249	8d 8f c4 00 00
	00		 lea	 ecx, DWORD PTR [edi+196]
; File C:\Program Files (x86)\Microsoft Visual Studio\2019\Community\VC\Tools\MSVC\14.29.30133\atlmfc\include\cstringt.h

; 2560 : 		return( str1.Compare( str2 ) != 0 );

  0024f	ff 15 00 00 00
	00		 call	 DWORD PTR __imp_?Compare@?$CStringT@DV?$StrTraitMFC_DLL@DV?$ChTraitsCRT@D@ATL@@@@@ATL@@QBEHPBD@Z
  00255	85 c0		 test	 eax, eax
; File D:\git\src\IBK\IBK_DRFN\ProjSrc\SrcDrfn\Chart\MULTICHART\FloatingHogaDlg.cpp

; 2683 : 		if( m_strCode != strCode )	return;

  00257	0f 85 6b 01 00
	00		 jne	 $LN17@SetRealHog

; 2684 : 
; 2685 : 		realData.m_szbidho1		= (char*)pArrData[ 71];

  0025d	ff b6 1c 01 00
	00		 push	 DWORD PTR [esi+284]
  00263	8d 4d 9c	 lea	 ecx, DWORD PTR _realData$2[ebp+12]
  00266	ff 15 00 00 00
	00		 call	 DWORD PTR __imp_??4?$CStringT@DV?$StrTraitMFC_DLL@DV?$ChTraitsCRT@D@ATL@@@@@ATL@@QAEAAV01@PBD@Z

; 2686 : 		realData.m_szbidho2		= (char*)pArrData[ 72];

  0026c	ff b6 20 01 00
	00		 push	 DWORD PTR [esi+288]
  00272	8d 4d ac	 lea	 ecx, DWORD PTR _realData$2[ebp+28]
  00275	ff 15 00 00 00
	00		 call	 DWORD PTR __imp_??4?$CStringT@DV?$StrTraitMFC_DLL@DV?$ChTraitsCRT@D@ATL@@@@@ATL@@QAEAAV01@PBD@Z
; File C:\Program Files (x86)\Microsoft Visual Studio\2019\Community\VC\Tools\MSVC\14.29.30133\atlmfc\include\atlsimpstr.h

; 533  : 		return( GetLength() == 0 );

  0027b	8b 45 98	 mov	 eax, DWORD PTR _realData$2[ebp+8]
  0027e	83 78 f4 00	 cmp	 DWORD PTR [eax-12], 0
; File D:\git\src\IBK\IBK_DRFN\ProjSrc\SrcDrfn\Chart\MULTICHART\FloatingHogaDlg.cpp

; 2688 : 		if(realData.m_szofferho1.IsEmpty() && realData.m_szbidho1.IsEmpty())

  00282	75 0d		 jne	 SHORT $LN8@SetRealHog
; File C:\Program Files (x86)\Microsoft Visual Studio\2019\Community\VC\Tools\MSVC\14.29.30133\atlmfc\include\atlsimpstr.h

; 533  : 		return( GetLength() == 0 );

  00284	8b 45 9c	 mov	 eax, DWORD PTR _realData$2[ebp+12]
  00287	83 78 f4 00	 cmp	 DWORD PTR [eax-12], 0
; File D:\git\src\IBK\IBK_DRFN\ProjSrc\SrcDrfn\Chart\MULTICHART\FloatingHogaDlg.cpp

; 2688 : 		if(realData.m_szofferho1.IsEmpty() && realData.m_szbidho1.IsEmpty())

  0028b	0f 84 37 01 00
	00		 je	 $LN17@SetRealHog
$LN8@SetRealHog:

; 2689 : 			return;
; 2690 : 
; 2691 : 		realData.m_szbidho3		= (char*)pArrData[ 73];

  00291	ff b6 24 01 00
	00		 push	 DWORD PTR [esi+292]
  00297	8d 4d bc	 lea	 ecx, DWORD PTR _realData$2[ebp+44]
  0029a	ff 15 00 00 00
	00		 call	 DWORD PTR __imp_??4?$CStringT@DV?$StrTraitMFC_DLL@DV?$ChTraitsCRT@D@ATL@@@@@ATL@@QAEAAV01@PBD@Z

; 2692 : 		realData.m_szbidho4		= (char*)pArrData[ 74];

  002a0	ff b6 28 01 00
	00		 push	 DWORD PTR [esi+296]
  002a6	8d 4d cc	 lea	 ecx, DWORD PTR _realData$2[ebp+60]
  002a9	ff 15 00 00 00
	00		 call	 DWORD PTR __imp_??4?$CStringT@DV?$StrTraitMFC_DLL@DV?$ChTraitsCRT@D@ATL@@@@@ATL@@QAEAAV01@PBD@Z

; 2693 : 		realData.m_szbidho5		= (char*)pArrData[ 75];

  002af	ff b6 2c 01 00
	00		 push	 DWORD PTR [esi+300]
  002b5	8d 4d dc	 lea	 ecx, DWORD PTR _realData$2[ebp+76]
  002b8	ff 15 00 00 00
	00		 call	 DWORD PTR __imp_??4?$CStringT@DV?$StrTraitMFC_DLL@DV?$ChTraitsCRT@D@ATL@@@@@ATL@@QAEAAV01@PBD@Z

; 2694 : 		realData.m_szofferho1	= (char*)pArrData[ 51];

  002be	ff b6 cc 00 00
	00		 push	 DWORD PTR [esi+204]
  002c4	8d 4d 98	 lea	 ecx, DWORD PTR _realData$2[ebp+8]
  002c7	ff 15 00 00 00
	00		 call	 DWORD PTR __imp_??4?$CStringT@DV?$StrTraitMFC_DLL@DV?$ChTraitsCRT@D@ATL@@@@@ATL@@QAEAAV01@PBD@Z

; 2695 : 		realData.m_szofferho2	= (char*)pArrData[ 52];

  002cd	ff b6 d0 00 00
	00		 push	 DWORD PTR [esi+208]
  002d3	8d 4d a8	 lea	 ecx, DWORD PTR _realData$2[ebp+24]
  002d6	ff 15 00 00 00
	00		 call	 DWORD PTR __imp_??4?$CStringT@DV?$StrTraitMFC_DLL@DV?$ChTraitsCRT@D@ATL@@@@@ATL@@QAEAAV01@PBD@Z

; 2696 : 		realData.m_szofferho3	= (char*)pArrData[ 53];

  002dc	ff b6 d4 00 00
	00		 push	 DWORD PTR [esi+212]
  002e2	8d 4d b8	 lea	 ecx, DWORD PTR _realData$2[ebp+40]
  002e5	ff 15 00 00 00
	00		 call	 DWORD PTR __imp_??4?$CStringT@DV?$StrTraitMFC_DLL@DV?$ChTraitsCRT@D@ATL@@@@@ATL@@QAEAAV01@PBD@Z

; 2697 : 		realData.m_szofferho4	= (char*)pArrData[ 54];

  002eb	ff b6 d8 00 00
	00		 push	 DWORD PTR [esi+216]
  002f1	8d 4d c8	 lea	 ecx, DWORD PTR _realData$2[ebp+56]
  002f4	ff 15 00 00 00
	00		 call	 DWORD PTR __imp_??4?$CStringT@DV?$StrTraitMFC_DLL@DV?$ChTraitsCRT@D@ATL@@@@@ATL@@QAEAAV01@PBD@Z

; 2698 : 		realData.m_szofferho5	= (char*)pArrData[ 55];

  002fa	ff b6 dc 00 00
	00		 push	 DWORD PTR [esi+220]
  00300	8d 4d d8	 lea	 ecx, DWORD PTR _realData$2[ebp+72]
  00303	ff 15 00 00 00
	00		 call	 DWORD PTR __imp_??4?$CStringT@DV?$StrTraitMFC_DLL@DV?$ChTraitsCRT@D@ATL@@@@@ATL@@QAEAAV01@PBD@Z

; 2699 : 		realData.m_szbidrem1	= (char*)pArrData[ 61];

  00309	ff b6 f4 00 00
	00		 push	 DWORD PTR [esi+244]
  0030f	8d 4d a4	 lea	 ecx, DWORD PTR _realData$2[ebp+20]
  00312	ff 15 00 00 00
	00		 call	 DWORD PTR __imp_??4?$CStringT@DV?$StrTraitMFC_DLL@DV?$ChTraitsCRT@D@ATL@@@@@ATL@@QAEAAV01@PBD@Z

; 2700 : 		realData.m_szbidrem2	= (char*)pArrData[ 62];

  00318	ff b6 f8 00 00
	00		 push	 DWORD PTR [esi+248]
  0031e	8d 4d b4	 lea	 ecx, DWORD PTR _realData$2[ebp+36]
  00321	ff 15 00 00 00
	00		 call	 DWORD PTR __imp_??4?$CStringT@DV?$StrTraitMFC_DLL@DV?$ChTraitsCRT@D@ATL@@@@@ATL@@QAEAAV01@PBD@Z

; 2701 : 		realData.m_szbidrem3	= (char*)pArrData[ 63];

  00327	ff b6 fc 00 00
	00		 push	 DWORD PTR [esi+252]
  0032d	8d 4d c4	 lea	 ecx, DWORD PTR _realData$2[ebp+52]
  00330	ff 15 00 00 00
	00		 call	 DWORD PTR __imp_??4?$CStringT@DV?$StrTraitMFC_DLL@DV?$ChTraitsCRT@D@ATL@@@@@ATL@@QAEAAV01@PBD@Z

; 2702 : 		realData.m_szbidrem4	= (char*)pArrData[ 64];

  00336	ff b6 00 01 00
	00		 push	 DWORD PTR [esi+256]
  0033c	8d 4d d4	 lea	 ecx, DWORD PTR _realData$2[ebp+68]
  0033f	ff 15 00 00 00
	00		 call	 DWORD PTR __imp_??4?$CStringT@DV?$StrTraitMFC_DLL@DV?$ChTraitsCRT@D@ATL@@@@@ATL@@QAEAAV01@PBD@Z

; 2703 : 		realData.m_szbidrem5	= (char*)pArrData[ 65];

  00345	ff b6 04 01 00
	00		 push	 DWORD PTR [esi+260]
  0034b	8d 4d e4	 lea	 ecx, DWORD PTR _realData$2[ebp+84]
  0034e	ff 15 00 00 00
	00		 call	 DWORD PTR __imp_??4?$CStringT@DV?$StrTraitMFC_DLL@DV?$ChTraitsCRT@D@ATL@@@@@ATL@@QAEAAV01@PBD@Z

; 2704 : 		realData.m_szofferrem1	= (char*)pArrData[ 41];

  00354	ff b6 a4 00 00
	00		 push	 DWORD PTR [esi+164]
  0035a	8d 4d a0	 lea	 ecx, DWORD PTR _realData$2[ebp+16]
  0035d	ff 15 00 00 00
	00		 call	 DWORD PTR __imp_??4?$CStringT@DV?$StrTraitMFC_DLL@DV?$ChTraitsCRT@D@ATL@@@@@ATL@@QAEAAV01@PBD@Z

; 2705 : 		realData.m_szofferrem2	= (char*)pArrData[ 42];

  00363	ff b6 a8 00 00
	00		 push	 DWORD PTR [esi+168]
  00369	8d 4d b0	 lea	 ecx, DWORD PTR _realData$2[ebp+32]
  0036c	ff 15 00 00 00
	00		 call	 DWORD PTR __imp_??4?$CStringT@DV?$StrTraitMFC_DLL@DV?$ChTraitsCRT@D@ATL@@@@@ATL@@QAEAAV01@PBD@Z

; 2706 : 		realData.m_szofferrem3	= (char*)pArrData[ 43];

  00372	ff b6 ac 00 00
	00		 push	 DWORD PTR [esi+172]
  00378	8d 4d c0	 lea	 ecx, DWORD PTR _realData$2[ebp+48]
  0037b	ff 15 00 00 00
	00		 call	 DWORD PTR __imp_??4?$CStringT@DV?$StrTraitMFC_DLL@DV?$ChTraitsCRT@D@ATL@@@@@ATL@@QAEAAV01@PBD@Z

; 2707 : 		realData.m_szofferrem4	= (char*)pArrData[ 44];

  00381	ff b6 b0 00 00
	00		 push	 DWORD PTR [esi+176]
  00387	8d 4d d0	 lea	 ecx, DWORD PTR _realData$2[ebp+64]
  0038a	ff 15 00 00 00
	00		 call	 DWORD PTR __imp_??4?$CStringT@DV?$StrTraitMFC_DLL@DV?$ChTraitsCRT@D@ATL@@@@@ATL@@QAEAAV01@PBD@Z

; 2708 : 		realData.m_szofferrem5	= (char*)pArrData[ 45];

  00390	ff b6 b4 00 00
	00		 push	 DWORD PTR [esi+180]
  00396	8d 4d e0	 lea	 ecx, DWORD PTR _realData$2[ebp+80]
  00399	ff 15 00 00 00
	00		 call	 DWORD PTR __imp_??4?$CStringT@DV?$StrTraitMFC_DLL@DV?$ChTraitsCRT@D@ATL@@@@@ATL@@QAEAAV01@PBD@Z

; 2709 : 		
; 2710 : 		realData.m_sztotofferrem = (char*)pArrData[101];

  0039f	ff b6 94 01 00
	00		 push	 DWORD PTR [esi+404]
  003a5	8d 4d e8	 lea	 ecx, DWORD PTR _realData$2[ebp+88]
  003a8	ff 15 00 00 00
	00		 call	 DWORD PTR __imp_??4?$CStringT@DV?$StrTraitMFC_DLL@DV?$ChTraitsCRT@D@ATL@@@@@ATL@@QAEAAV01@PBD@Z

; 2711 : 		realData.m_sztotbidrem	 = (char*)pArrData[106];

  003ae	ff b6 a8 01 00
	00		 push	 DWORD PTR [esi+424]
  003b4	8d 4d ec	 lea	 ecx, DWORD PTR _realData$2[ebp+92]
  003b7	ff 15 00 00 00
	00		 call	 DWORD PTR __imp_??4?$CStringT@DV?$StrTraitMFC_DLL@DV?$ChTraitsCRT@D@ATL@@@@@ATL@@QAEAAV01@PBD@Z

; 2712 : 
; 2713 : 		SetRealHogaData(realData);

  003bd	8d 45 90	 lea	 eax, DWORD PTR _realData$2[ebp]
  003c0	8b cf		 mov	 ecx, edi
  003c2	50		 push	 eax
  003c3	e8 00 00 00 00	 call	 ?SetRealHogaData@CFloatingHogaDlg@@QAEXAAVCKBREAL_KXH1@@@Z ; CFloatingHogaDlg::SetRealHogaData
$LN17@SetRealHog:

; 2714 : 	}	
; 2715 : }

  003c8	8d 4d 10	 lea	 ecx, DWORD PTR _szFlag$4[ebp]
  003cb	ff 15 00 00 00
	00		 call	 DWORD PTR __imp_??1?$CStringT@DV?$StrTraitMFC_DLL@DV?$ChTraitsCRT@D@ATL@@@@@ATL@@QAE@XZ
$LN40@SetRealHog:
  003d1	8d 4d 90	 lea	 ecx, DWORD PTR _realData$2[ebp]
  003d4	e8 00 00 00 00	 call	 ??1CKBREAL_KXH1@@QAE@XZ
$LN6@SetRealHog:
  003d9	8d 4d f0	 lea	 ecx, DWORD PTR _strData$[ebp]
  003dc	ff 15 00 00 00
	00		 call	 DWORD PTR __imp_??1?$CStringT@DV?$StrTraitMFC_DLL@DV?$ChTraitsCRT@D@ATL@@@@@ATL@@QAE@XZ
  003e2	8d 4d 0c	 lea	 ecx, DWORD PTR _strCode$[ebp]
  003e5	ff 15 00 00 00
	00		 call	 DWORD PTR __imp_??1?$CStringT@DV?$StrTraitMFC_DLL@DV?$ChTraitsCRT@D@ATL@@@@@ATL@@QAE@XZ
  003eb	8b 4d f4	 mov	 ecx, DWORD PTR __$EHRec$[ebp]
  003ee	64 89 0d 00 00
	00 00		 mov	 DWORD PTR fs:0, ecx
  003f5	59		 pop	 ecx
  003f6	5f		 pop	 edi
  003f7	5e		 pop	 esi
  003f8	8b e5		 mov	 esp, ebp
  003fa	5d		 pop	 ebp
  003fb	c2 0c 00	 ret	 12			; 0000000cH
_TEXT	ENDS
;	COMDAT text$x
text$x	SEGMENT
__unwindfunclet$?SetRealHogaData@CFloatingHogaDlg@@QAEXKV?$CStringT@DV?$StrTraitMFC_DLL@DV?$ChTraitsCRT@D@ATL@@@@@ATL@@J@Z$0:
  00000	8d 4d 0c	 lea	 ecx, DWORD PTR _strCode$[ebp]
  00003	ff 25 00 00 00
	00		 jmp	 DWORD PTR __imp_??1?$CStringT@DV?$StrTraitMFC_DLL@DV?$ChTraitsCRT@D@ATL@@@@@ATL@@QAE@XZ
__unwindfunclet$?SetRealHogaData@CFloatingHogaDlg@@QAEXKV?$CStringT@DV?$StrTraitMFC_DLL@DV?$ChTraitsCRT@D@ATL@@@@@ATL@@J@Z$1:
  00009	8d 4d f0	 lea	 ecx, DWORD PTR _strData$[ebp]
  0000c	ff 25 00 00 00
	00		 jmp	 DWORD PTR __imp_??1?$CStringT@DV?$StrTraitMFC_DLL@DV?$ChTraitsCRT@D@ATL@@@@@ATL@@QAE@XZ
__unwindfunclet$?SetRealHogaData@CFloatingHogaDlg@@QAEXKV?$CStringT@DV?$StrTraitMFC_DLL@DV?$ChTraitsCRT@D@ATL@@@@@ATL@@J@Z$2:
  00012	8d 4d 90	 lea	 ecx, DWORD PTR _realData$3[ebp]
  00015	e9 00 00 00 00	 jmp	 ??1CKBREAL_KXH1@@QAE@XZ
__unwindfunclet$?SetRealHogaData@CFloatingHogaDlg@@QAEXKV?$CStringT@DV?$StrTraitMFC_DLL@DV?$ChTraitsCRT@D@ATL@@@@@ATL@@J@Z$3:
  0001a	8d 4d 90	 lea	 ecx, DWORD PTR _realData$2[ebp]
  0001d	e9 00 00 00 00	 jmp	 ??1CKBREAL_KXH1@@QAE@XZ
__unwindfunclet$?SetRealHogaData@CFloatingHogaDlg@@QAEXKV?$CStringT@DV?$StrTraitMFC_DLL@DV?$ChTraitsCRT@D@ATL@@@@@ATL@@J@Z$4:
  00022	8d 4d 10	 lea	 ecx, DWORD PTR _szFlag$4[ebp]
  00025	ff 25 00 00 00
	00		 jmp	 DWORD PTR __imp_??1?$CStringT@DV?$StrTraitMFC_DLL@DV?$ChTraitsCRT@D@ATL@@@@@ATL@@QAE@XZ
  0002b	cc		 int	 3
  0002c	cc		 int	 3
  0002d	cc		 int	 3
  0002e	cc		 int	 3
  0002f	cc		 int	 3
__ehhandler$?SetRealHogaData@CFloatingHogaDlg@@QAEXKV?$CStringT@DV?$StrTraitMFC_DLL@DV?$ChTraitsCRT@D@ATL@@@@@ATL@@J@Z:
  00030	90		 npad	 1
  00031	90		 npad	 1
  00032	8b 54 24 08	 mov	 edx, DWORD PTR [esp+8]
  00036	8d 42 0c	 lea	 eax, DWORD PTR [edx+12]
  00039	8b 4a 90	 mov	 ecx, DWORD PTR [edx-112]
  0003c	33 c8		 xor	 ecx, eax
  0003e	e8 00 00 00 00	 call	 @__security_check_cookie@4
  00043	b8 00 00 00 00	 mov	 eax, OFFSET __ehfuncinfo$?SetRealHogaData@CFloatingHogaDlg@@QAEXKV?$CStringT@DV?$StrTraitMFC_DLL@DV?$ChTraitsCRT@D@ATL@@@@@ATL@@J@Z
  00048	e9 00 00 00 00	 jmp	 ___CxxFrameHandler3
text$x	ENDS
?SetRealHogaData@CFloatingHogaDlg@@QAEXKV?$CStringT@DV?$StrTraitMFC_DLL@DV?$ChTraitsCRT@D@ATL@@@@@ATL@@J@Z ENDP ; CFloatingHogaDlg::SetRealHogaData
; Function compile flags: /Ogtp
; File D:\git\src\IBK\IBK_DRFN\ProjSrc\SrcDrfn\Chart\MULTICHART\FloatingHogaDlg.cpp
; File C:\Program Files (x86)\Microsoft Visual Studio\2019\Community\VC\Tools\MSVC\14.29.30133\atlmfc\include\afxtempl.h
; File D:\git\src\IBK\IBK_DRFN\ProjSrc\SrcDrfn\Chart\MULTICHART\FloatingHogaDlg.cpp
; File C:\Program Files (x86)\Microsoft Visual Studio\2019\Community\VC\Tools\MSVC\14.29.30133\atlmfc\include\cstringt.h
; File D:\git\src\IBK\IBK_DRFN\ProjSrc\SrcDrfn\Chart\MULTICHART\FloatingHogaDlg.cpp
; File C:\Program Files (x86)\Microsoft Visual Studio\2019\Community\VC\Tools\MSVC\14.29.30133\atlmfc\include\cstringt.h
; File D:\git\src\IBK\IBK_DRFN\ProjSrc\SrcDrfn\Chart\MULTICHART\FloatingHogaDlg.cpp
; File C:\Program Files (x86)\Microsoft Visual Studio\2019\Community\VC\Tools\MSVC\14.29.30133\atlmfc\include\afxtempl.h
; File D:\git\src\IBK\IBK_DRFN\ProjSrc\SrcDrfn\Chart\MULTICHART\FloatingHogaDlg.cpp
;	COMDAT ?SetRealHogaData@CFloatingHogaDlg@@QAEXAAVCKBREAL_KXH1@@@Z
_TEXT	SEGMENT
$T2 = -36						; size = 4
$T3 = -36						; size = 4
$T4 = -36						; size = 4
$T5 = -36						; size = 4
$T6 = -36						; size = 4
$T7 = -36						; size = 4
$T8 = -36						; size = 4
$T9 = -36						; size = 4
$T10 = -36						; size = 4
$T11 = -32						; size = 4
$T12 = -32						; size = 4
$T13 = -32						; size = 4
_n5HogaMaesuJan$1$ = -28				; size = 4
_sTemp1$ = -24						; size = 4
_sTemp$ = -20						; size = 4
_strText$ = -16						; size = 4
__$EHRec$ = -12						; size = 12
$T14 = 8						; size = 4
$T15 = 8						; size = 4
$T16 = 8						; size = 4
$T17 = 8						; size = 4
_kbReal_KXH1$ = 8					; size = 4
?SetRealHogaData@CFloatingHogaDlg@@QAEXAAVCKBREAL_KXH1@@@Z PROC ; CFloatingHogaDlg::SetRealHogaData, COMDAT
; _this$ = ecx

; 2734 : {

  00000	55		 push	 ebp
  00001	8b ec		 mov	 ebp, esp
  00003	6a ff		 push	 -1
  00005	68 00 00 00 00	 push	 __ehhandler$?SetRealHogaData@CFloatingHogaDlg@@QAEXAAVCKBREAL_KXH1@@@Z
  0000a	64 a1 00 00 00
	00		 mov	 eax, DWORD PTR fs:0
  00010	50		 push	 eax
  00011	83 ec 18	 sub	 esp, 24			; 00000018H
  00014	53		 push	 ebx
  00015	56		 push	 esi
  00016	57		 push	 edi
  00017	a1 00 00 00 00	 mov	 eax, DWORD PTR ___security_cookie
  0001c	33 c5		 xor	 eax, ebp
  0001e	50		 push	 eax
  0001f	8d 45 f4	 lea	 eax, DWORD PTR __$EHRec$[ebp]
  00022	64 a3 00 00 00
	00		 mov	 DWORD PTR fs:0, eax
  00028	8b f1		 mov	 esi, ecx

; 2735 : 	if(!m_pGridCtrl)	return;

  0002a	83 be cc 00 00
	00 00		 cmp	 DWORD PTR [esi+204], 0
  00031	0f 84 a8 06 00
	00		 je	 $LN1@SetRealHog

; 2720 : 	kbReal_KXH1.m_szofferho1.Remove('-');

  00037	8b 5d 08	 mov	 ebx, DWORD PTR _kbReal_KXH1$[ebp]
  0003a	6a 2d		 push	 45			; 0000002dH
  0003c	8d 4b 08	 lea	 ecx, DWORD PTR [ebx+8]
  0003f	ff 15 00 00 00
	00		 call	 DWORD PTR __imp_?Remove@?$CStringT@DV?$StrTraitMFC_DLL@DV?$ChTraitsCRT@D@ATL@@@@@ATL@@QAEHD@Z

; 2721 : 	kbReal_KXH1.m_szofferho2.Remove('-');

  00045	8d 4b 18	 lea	 ecx, DWORD PTR [ebx+24]
  00048	6a 2d		 push	 45			; 0000002dH
  0004a	ff 15 00 00 00
	00		 call	 DWORD PTR __imp_?Remove@?$CStringT@DV?$StrTraitMFC_DLL@DV?$ChTraitsCRT@D@ATL@@@@@ATL@@QAEHD@Z

; 2722 : 	kbReal_KXH1.m_szofferho3.Remove('-');

  00050	8d 4b 28	 lea	 ecx, DWORD PTR [ebx+40]
  00053	6a 2d		 push	 45			; 0000002dH
  00055	ff 15 00 00 00
	00		 call	 DWORD PTR __imp_?Remove@?$CStringT@DV?$StrTraitMFC_DLL@DV?$ChTraitsCRT@D@ATL@@@@@ATL@@QAEHD@Z

; 2723 : 	kbReal_KXH1.m_szofferho4.Remove('-');

  0005b	8d 4b 38	 lea	 ecx, DWORD PTR [ebx+56]
  0005e	6a 2d		 push	 45			; 0000002dH
  00060	ff 15 00 00 00
	00		 call	 DWORD PTR __imp_?Remove@?$CStringT@DV?$StrTraitMFC_DLL@DV?$ChTraitsCRT@D@ATL@@@@@ATL@@QAEHD@Z

; 2724 : 	kbReal_KXH1.m_szofferho5.Remove('-');

  00066	6a 2d		 push	 45			; 0000002dH
  00068	8d 4b 48	 lea	 ecx, DWORD PTR [ebx+72]
  0006b	ff 15 00 00 00
	00		 call	 DWORD PTR __imp_?Remove@?$CStringT@DV?$StrTraitMFC_DLL@DV?$ChTraitsCRT@D@ATL@@@@@ATL@@QAEHD@Z

; 2725 : 
; 2726 : 	kbReal_KXH1.m_szbidho1.Remove('-');

  00071	8d 4b 0c	 lea	 ecx, DWORD PTR [ebx+12]
  00074	6a 2d		 push	 45			; 0000002dH
  00076	ff 15 00 00 00
	00		 call	 DWORD PTR __imp_?Remove@?$CStringT@DV?$StrTraitMFC_DLL@DV?$ChTraitsCRT@D@ATL@@@@@ATL@@QAEHD@Z

; 2727 : 	kbReal_KXH1.m_szbidho2.Remove('-');

  0007c	8d 4b 1c	 lea	 ecx, DWORD PTR [ebx+28]
  0007f	6a 2d		 push	 45			; 0000002dH
  00081	ff 15 00 00 00
	00		 call	 DWORD PTR __imp_?Remove@?$CStringT@DV?$StrTraitMFC_DLL@DV?$ChTraitsCRT@D@ATL@@@@@ATL@@QAEHD@Z

; 2728 : 	kbReal_KXH1.m_szbidho3.Remove('-');

  00087	8d 4b 2c	 lea	 ecx, DWORD PTR [ebx+44]
  0008a	6a 2d		 push	 45			; 0000002dH
  0008c	ff 15 00 00 00
	00		 call	 DWORD PTR __imp_?Remove@?$CStringT@DV?$StrTraitMFC_DLL@DV?$ChTraitsCRT@D@ATL@@@@@ATL@@QAEHD@Z

; 2729 : 	kbReal_KXH1.m_szbidho4.Remove('-');

  00092	8d 4b 3c	 lea	 ecx, DWORD PTR [ebx+60]
  00095	6a 2d		 push	 45			; 0000002dH
  00097	ff 15 00 00 00
	00		 call	 DWORD PTR __imp_?Remove@?$CStringT@DV?$StrTraitMFC_DLL@DV?$ChTraitsCRT@D@ATL@@@@@ATL@@QAEHD@Z

; 2730 : 	kbReal_KXH1.m_szbidho5.Remove('-');

  0009d	8d 4b 4c	 lea	 ecx, DWORD PTR [ebx+76]
  000a0	6a 2d		 push	 45			; 0000002dH
  000a2	ff 15 00 00 00
	00		 call	 DWORD PTR __imp_?Remove@?$CStringT@DV?$StrTraitMFC_DLL@DV?$ChTraitsCRT@D@ATL@@@@@ATL@@QAEHD@Z

; 2736 : 
; 2737 : 	RemoveExtra(kbReal_KXH1);
; 2738 : 
; 2739 : 	//     ------------------->
; 2740 : 	int nCount = m_HogaData.GetSize();

  000a8	8b 96 90 01 00
	00		 mov	 edx, DWORD PTR [esi+400]

; 2741 : 	CHogaData *pHogaData = NULL;
; 2742 : 	for(int i=0; i<nCount; i++)

  000ae	33 c9		 xor	 ecx, ecx
  000b0	85 d2		 test	 edx, edx
  000b2	7e 2d		 jle	 SHORT $LN3@SetRealHog
$LL4@SetRealHog:
; File C:\Program Files (x86)\Microsoft Visual Studio\2019\Community\VC\Tools\MSVC\14.29.30133\atlmfc\include\afxtempl.h

; 288  : 	if(nIndex >= 0 && nIndex < m_nSize)

  000b4	85 c9		 test	 ecx, ecx
  000b6	0f 88 37 06 00
	00		 js	 $LN62@SetRealHog
  000bc	3b 8e 90 01 00
	00		 cmp	 ecx, DWORD PTR [esi+400]
  000c2	0f 8d 2b 06 00
	00		 jge	 $LN62@SetRealHog

; 289  : 		return m_pData[nIndex];

  000c8	8b 86 8c 01 00
	00		 mov	 eax, DWORD PTR [esi+396]
; File D:\git\src\IBK\IBK_DRFN\ProjSrc\SrcDrfn\Chart\MULTICHART\FloatingHogaDlg.cpp

; 2744 : 		pHogaData = m_HogaData.GetAt(i);

  000ce	8b 04 88	 mov	 eax, DWORD PTR [eax+ecx*4]

; 2745 : 		if( pHogaData == NULL )

  000d1	85 c0		 test	 eax, eax
  000d3	74 07		 je	 SHORT $LN2@SetRealHog

; 2746 : 			continue;
; 2747 : 
; 2748 : 		pHogaData->m_nRow = -1;

  000d5	c7 40 04 ff ff
	ff ff		 mov	 DWORD PTR [eax+4], -1
$LN2@SetRealHog:

; 2741 : 	CHogaData *pHogaData = NULL;
; 2742 : 	for(int i=0; i<nCount; i++)

  000dc	41		 inc	 ecx
  000dd	3b ca		 cmp	 ecx, edx
  000df	7c d3		 jl	 SHORT $LL4@SetRealHog
$LN3@SetRealHog:

; 2749 : 	}
; 2750 : 	// <----------------------------------------------------
; 2751 : 
; 2752 : 	CString sTemp, sTemp1, strText;

  000e1	8d 4d ec	 lea	 ecx, DWORD PTR _sTemp$[ebp]
  000e4	ff 15 00 00 00
	00		 call	 DWORD PTR __imp_??0?$CStringT@DV?$StrTraitMFC_DLL@DV?$ChTraitsCRT@D@ATL@@@@@ATL@@QAE@XZ
  000ea	8d 4d e8	 lea	 ecx, DWORD PTR _sTemp1$[ebp]
  000ed	c7 45 fc 00 00
	00 00		 mov	 DWORD PTR __$EHRec$[ebp+8], 0
  000f4	ff 15 00 00 00
	00		 call	 DWORD PTR __imp_??0?$CStringT@DV?$StrTraitMFC_DLL@DV?$ChTraitsCRT@D@ATL@@@@@ATL@@QAE@XZ
  000fa	8d 4d f0	 lea	 ecx, DWORD PTR _strText$[ebp]
  000fd	ff 15 00 00 00
	00		 call	 DWORD PTR __imp_??0?$CStringT@DV?$StrTraitMFC_DLL@DV?$ChTraitsCRT@D@ATL@@@@@ATL@@QAE@XZ
; File C:\Program Files (x86)\Microsoft Visual Studio\2019\Community\VC\Tools\MSVC\14.29.30133\atlmfc\include\cstringt.h

; 2560 : 		return( str1.Compare( str2 ) != 0 );

  00103	ff 73 04	 push	 DWORD PTR [ebx+4]
; File D:\git\src\IBK\IBK_DRFN\ProjSrc\SrcDrfn\Chart\MULTICHART\FloatingHogaDlg.cpp

; 2757 : 	if( m_strCode != kbReal_KXH1.m_szkshcode )

  00106	8d 8e c4 00 00
	00		 lea	 ecx, DWORD PTR [esi+196]
  0010c	c6 45 fc 02	 mov	 BYTE PTR __$EHRec$[ebp+8], 2
  00110	c7 45 e4 00 00
	00 00		 mov	 DWORD PTR _n5HogaMaesuJan$1$[ebp], 0
; File C:\Program Files (x86)\Microsoft Visual Studio\2019\Community\VC\Tools\MSVC\14.29.30133\atlmfc\include\cstringt.h

; 2560 : 		return( str1.Compare( str2 ) != 0 );

  00117	ff 15 00 00 00
	00		 call	 DWORD PTR __imp_?Compare@?$CStringT@DV?$StrTraitMFC_DLL@DV?$ChTraitsCRT@D@ATL@@@@@ATL@@QBEHPBD@Z
  0011d	85 c0		 test	 eax, eax
; File D:\git\src\IBK\IBK_DRFN\ProjSrc\SrcDrfn\Chart\MULTICHART\FloatingHogaDlg.cpp

; 2757 : 	if( m_strCode != kbReal_KXH1.m_szkshcode )

  0011f	0f 85 9f 05 00
	00		 jne	 $LN58@SetRealHog

; 2758 : 		return;
; 2759 : 
; 2760 : 	//////////////////////////////////////////////////////////////////////////
; 2761 : 	//    
; 2762 : 	////////////////////////////////////////////////////////////////////////// 
; 2763 : 	m_nHogaRow = MAEDO_ROW;
; 2764 : 	m_nHogaRangeForColor = 0;

  00125	89 86 e0 01 00
	00		 mov	 DWORD PTR [esi+480], eax

; 2765 : 
; 2766 : 	//  / 5
; 2767 : 	m_nHogaRow += 5;

  0012b	c7 86 00 02 00
	00 09 00 00 00	 mov	 DWORD PTR [esi+512], 9

; 2768 : 	m_10HogaData.nOfferho5 = atoi(kbReal_KXH1.m_szofferho5);

  00135	ff 73 48	 push	 DWORD PTR [ebx+72]
  00138	ff 15 00 00 00
	00		 call	 DWORD PTR __imp__atoi
  0013e	83 c4 04	 add	 esp, 4
  00141	89 86 40 01 00
	00		 mov	 DWORD PTR [esi+320], eax

; 2769 : 	SetRealHogaData_Sub(kbReal_KXH1.m_szofferho5, m_strPreClosePrice, TRUE);

  00147	8d be e8 01 00
	00		 lea	 edi, DWORD PTR [esi+488]
  0014d	6a 01		 push	 1
  0014f	51		 push	 ecx
  00150	8b cc		 mov	 ecx, esp
  00152	89 65 e0	 mov	 DWORD PTR $T13[ebp], esp
  00155	57		 push	 edi
  00156	ff 15 00 00 00
	00		 call	 DWORD PTR __imp_??0?$CStringT@DV?$StrTraitMFC_DLL@DV?$ChTraitsCRT@D@ATL@@@@@ATL@@QAE@ABV01@@Z
  0015c	51		 push	 ecx
  0015d	8d 43 48	 lea	 eax, DWORD PTR [ebx+72]
  00160	c6 45 fc 03	 mov	 BYTE PTR __$EHRec$[ebp+8], 3
  00164	8b cc		 mov	 ecx, esp
  00166	50		 push	 eax
  00167	ff 15 00 00 00
	00		 call	 DWORD PTR __imp_??0?$CStringT@DV?$StrTraitMFC_DLL@DV?$ChTraitsCRT@D@ATL@@@@@ATL@@QAE@ABV01@@Z
  0016d	8b ce		 mov	 ecx, esi
  0016f	c6 45 fc 02	 mov	 BYTE PTR __$EHRec$[ebp+8], 2
  00173	e8 00 00 00 00	 call	 ?SetRealHogaData_Sub@CFloatingHogaDlg@@QAEXV?$CStringT@DV?$StrTraitMFC_DLL@DV?$ChTraitsCRT@D@ATL@@@@@ATL@@0H@Z ; CFloatingHogaDlg::SetRealHogaData_Sub

; 2770 : 	SetRealHogaData_Rem(kbReal_KXH1.m_szofferrem5, TRUE);

  00178	6a 01		 push	 1
  0017a	51		 push	 ecx
  0017b	8d 43 50	 lea	 eax, DWORD PTR [ebx+80]
  0017e	8b cc		 mov	 ecx, esp
  00180	50		 push	 eax
  00181	ff 15 00 00 00
	00		 call	 DWORD PTR __imp_??0?$CStringT@DV?$StrTraitMFC_DLL@DV?$ChTraitsCRT@D@ATL@@@@@ATL@@QAE@ABV01@@Z
  00187	8b ce		 mov	 ecx, esi
  00189	e8 00 00 00 00	 call	 ?SetRealHogaData_Rem@CFloatingHogaDlg@@QAEXV?$CStringT@DV?$StrTraitMFC_DLL@DV?$ChTraitsCRT@D@ATL@@@@@ATL@@H@Z ; CFloatingHogaDlg::SetRealHogaData_Rem

; 2771 : 	
; 2772 : 
; 2773 : 	//  / 4
; 2774 : 	m_nHogaRow++;

  0018e	ff 86 00 02 00
	00		 inc	 DWORD PTR [esi+512]

; 2775 : 	m_10HogaData.nOfferho4 = atoi(kbReal_KXH1.m_szofferho4);

  00194	ff 73 38	 push	 DWORD PTR [ebx+56]
  00197	ff 15 00 00 00
	00		 call	 DWORD PTR __imp__atoi
  0019d	83 c4 04	 add	 esp, 4
  001a0	89 86 44 01 00
	00		 mov	 DWORD PTR [esi+324], eax

; 2776 : 	SetRealHogaData_Sub(kbReal_KXH1.m_szofferho4, m_strPreClosePrice, TRUE);

  001a6	6a 01		 push	 1
  001a8	51		 push	 ecx
  001a9	8b cc		 mov	 ecx, esp
  001ab	89 65 dc	 mov	 DWORD PTR $T10[ebp], esp
  001ae	57		 push	 edi
  001af	ff 15 00 00 00
	00		 call	 DWORD PTR __imp_??0?$CStringT@DV?$StrTraitMFC_DLL@DV?$ChTraitsCRT@D@ATL@@@@@ATL@@QAE@ABV01@@Z
  001b5	51		 push	 ecx
  001b6	8d 43 38	 lea	 eax, DWORD PTR [ebx+56]
  001b9	c6 45 fc 04	 mov	 BYTE PTR __$EHRec$[ebp+8], 4
  001bd	8b cc		 mov	 ecx, esp
  001bf	50		 push	 eax
  001c0	ff 15 00 00 00
	00		 call	 DWORD PTR __imp_??0?$CStringT@DV?$StrTraitMFC_DLL@DV?$ChTraitsCRT@D@ATL@@@@@ATL@@QAE@ABV01@@Z
  001c6	8b ce		 mov	 ecx, esi
  001c8	c6 45 fc 02	 mov	 BYTE PTR __$EHRec$[ebp+8], 2
  001cc	e8 00 00 00 00	 call	 ?SetRealHogaData_Sub@CFloatingHogaDlg@@QAEXV?$CStringT@DV?$StrTraitMFC_DLL@DV?$ChTraitsCRT@D@ATL@@@@@ATL@@0H@Z ; CFloatingHogaDlg::SetRealHogaData_Sub

; 2777 : 	SetRealHogaData_Rem(kbReal_KXH1.m_szofferrem4, TRUE);

  001d1	6a 01		 push	 1
  001d3	51		 push	 ecx
  001d4	8d 43 40	 lea	 eax, DWORD PTR [ebx+64]
  001d7	8b cc		 mov	 ecx, esp
  001d9	50		 push	 eax
  001da	ff 15 00 00 00
	00		 call	 DWORD PTR __imp_??0?$CStringT@DV?$StrTraitMFC_DLL@DV?$ChTraitsCRT@D@ATL@@@@@ATL@@QAE@ABV01@@Z
  001e0	8b ce		 mov	 ecx, esi
  001e2	e8 00 00 00 00	 call	 ?SetRealHogaData_Rem@CFloatingHogaDlg@@QAEXV?$CStringT@DV?$StrTraitMFC_DLL@DV?$ChTraitsCRT@D@ATL@@@@@ATL@@H@Z ; CFloatingHogaDlg::SetRealHogaData_Rem

; 2778 : 
; 2779 : 	//  / 3
; 2780 : 	m_nHogaRow++;

  001e7	ff 86 00 02 00
	00		 inc	 DWORD PTR [esi+512]

; 2781 : 	m_10HogaData.nOfferho3 = atoi(kbReal_KXH1.m_szofferho3);

  001ed	ff 73 28	 push	 DWORD PTR [ebx+40]
  001f0	ff 15 00 00 00
	00		 call	 DWORD PTR __imp__atoi
  001f6	83 c4 04	 add	 esp, 4
  001f9	89 86 48 01 00
	00		 mov	 DWORD PTR [esi+328], eax

; 2782 : 	SetRealHogaData_Sub(kbReal_KXH1.m_szofferho3, m_strPreClosePrice, TRUE);

  001ff	6a 01		 push	 1
  00201	51		 push	 ecx
  00202	8b cc		 mov	 ecx, esp
  00204	89 65 dc	 mov	 DWORD PTR $T9[ebp], esp
  00207	57		 push	 edi
  00208	ff 15 00 00 00
	00		 call	 DWORD PTR __imp_??0?$CStringT@DV?$StrTraitMFC_DLL@DV?$ChTraitsCRT@D@ATL@@@@@ATL@@QAE@ABV01@@Z
  0020e	51		 push	 ecx
  0020f	8d 43 28	 lea	 eax, DWORD PTR [ebx+40]
  00212	c6 45 fc 05	 mov	 BYTE PTR __$EHRec$[ebp+8], 5
  00216	8b cc		 mov	 ecx, esp
  00218	50		 push	 eax
  00219	ff 15 00 00 00
	00		 call	 DWORD PTR __imp_??0?$CStringT@DV?$StrTraitMFC_DLL@DV?$ChTraitsCRT@D@ATL@@@@@ATL@@QAE@ABV01@@Z
  0021f	8b ce		 mov	 ecx, esi
  00221	c6 45 fc 02	 mov	 BYTE PTR __$EHRec$[ebp+8], 2
  00225	e8 00 00 00 00	 call	 ?SetRealHogaData_Sub@CFloatingHogaDlg@@QAEXV?$CStringT@DV?$StrTraitMFC_DLL@DV?$ChTraitsCRT@D@ATL@@@@@ATL@@0H@Z ; CFloatingHogaDlg::SetRealHogaData_Sub

; 2783 : 	SetRealHogaData_Rem(kbReal_KXH1.m_szofferrem3, TRUE);

  0022a	6a 01		 push	 1
  0022c	51		 push	 ecx
  0022d	8d 43 30	 lea	 eax, DWORD PTR [ebx+48]
  00230	8b cc		 mov	 ecx, esp
  00232	50		 push	 eax
  00233	ff 15 00 00 00
	00		 call	 DWORD PTR __imp_??0?$CStringT@DV?$StrTraitMFC_DLL@DV?$ChTraitsCRT@D@ATL@@@@@ATL@@QAE@ABV01@@Z
  00239	8b ce		 mov	 ecx, esi
  0023b	e8 00 00 00 00	 call	 ?SetRealHogaData_Rem@CFloatingHogaDlg@@QAEXV?$CStringT@DV?$StrTraitMFC_DLL@DV?$ChTraitsCRT@D@ATL@@@@@ATL@@H@Z ; CFloatingHogaDlg::SetRealHogaData_Rem

; 2784 : 	
; 2785 : 	//  / 2
; 2786 : 	m_nHogaRow++;

  00240	ff 86 00 02 00
	00		 inc	 DWORD PTR [esi+512]

; 2787 : 	m_10HogaData.nOfferho2 = atoi(kbReal_KXH1.m_szofferho2);

  00246	ff 73 18	 push	 DWORD PTR [ebx+24]
  00249	ff 15 00 00 00
	00		 call	 DWORD PTR __imp__atoi
  0024f	83 c4 04	 add	 esp, 4
  00252	89 86 4c 01 00
	00		 mov	 DWORD PTR [esi+332], eax

; 2788 : 	SetRealHogaData_Sub(kbReal_KXH1.m_szofferho2, m_strPreClosePrice, TRUE);

  00258	6a 01		 push	 1
  0025a	51		 push	 ecx
  0025b	8b cc		 mov	 ecx, esp
  0025d	89 65 dc	 mov	 DWORD PTR $T8[ebp], esp
  00260	57		 push	 edi
  00261	ff 15 00 00 00
	00		 call	 DWORD PTR __imp_??0?$CStringT@DV?$StrTraitMFC_DLL@DV?$ChTraitsCRT@D@ATL@@@@@ATL@@QAE@ABV01@@Z
  00267	51		 push	 ecx
  00268	8d 43 18	 lea	 eax, DWORD PTR [ebx+24]
  0026b	c6 45 fc 06	 mov	 BYTE PTR __$EHRec$[ebp+8], 6
  0026f	8b cc		 mov	 ecx, esp
  00271	50		 push	 eax
  00272	ff 15 00 00 00
	00		 call	 DWORD PTR __imp_??0?$CStringT@DV?$StrTraitMFC_DLL@DV?$ChTraitsCRT@D@ATL@@@@@ATL@@QAE@ABV01@@Z
  00278	8b ce		 mov	 ecx, esi
  0027a	c6 45 fc 02	 mov	 BYTE PTR __$EHRec$[ebp+8], 2
  0027e	e8 00 00 00 00	 call	 ?SetRealHogaData_Sub@CFloatingHogaDlg@@QAEXV?$CStringT@DV?$StrTraitMFC_DLL@DV?$ChTraitsCRT@D@ATL@@@@@ATL@@0H@Z ; CFloatingHogaDlg::SetRealHogaData_Sub

; 2789 : 	SetRealHogaData_Rem(kbReal_KXH1.m_szofferrem2, TRUE);

  00283	6a 01		 push	 1
  00285	51		 push	 ecx
  00286	8d 43 20	 lea	 eax, DWORD PTR [ebx+32]
  00289	8b cc		 mov	 ecx, esp
  0028b	50		 push	 eax
  0028c	ff 15 00 00 00
	00		 call	 DWORD PTR __imp_??0?$CStringT@DV?$StrTraitMFC_DLL@DV?$ChTraitsCRT@D@ATL@@@@@ATL@@QAE@ABV01@@Z
  00292	8b ce		 mov	 ecx, esi
  00294	e8 00 00 00 00	 call	 ?SetRealHogaData_Rem@CFloatingHogaDlg@@QAEXV?$CStringT@DV?$StrTraitMFC_DLL@DV?$ChTraitsCRT@D@ATL@@@@@ATL@@H@Z ; CFloatingHogaDlg::SetRealHogaData_Rem

; 2790 : 
; 2791 : 	//  / 1
; 2792 : 	m_nHogaRow++;

  00299	ff 86 00 02 00
	00		 inc	 DWORD PTR [esi+512]

; 2793 : 	m_10HogaData.nOfferho1 = atoi(kbReal_KXH1.m_szofferho1);

  0029f	ff 73 08	 push	 DWORD PTR [ebx+8]
  002a2	ff 15 00 00 00
	00		 call	 DWORD PTR __imp__atoi
  002a8	83 c4 04	 add	 esp, 4
  002ab	89 86 50 01 00
	00		 mov	 DWORD PTR [esi+336], eax

; 2794 : 	SetRealHogaData_Sub(kbReal_KXH1.m_szofferho1, m_strPreClosePrice, TRUE);

  002b1	6a 01		 push	 1
  002b3	51		 push	 ecx
  002b4	8b cc		 mov	 ecx, esp
  002b6	89 65 dc	 mov	 DWORD PTR $T7[ebp], esp
  002b9	57		 push	 edi
  002ba	ff 15 00 00 00
	00		 call	 DWORD PTR __imp_??0?$CStringT@DV?$StrTraitMFC_DLL@DV?$ChTraitsCRT@D@ATL@@@@@ATL@@QAE@ABV01@@Z
  002c0	51		 push	 ecx
  002c1	8d 43 08	 lea	 eax, DWORD PTR [ebx+8]
  002c4	c6 45 fc 07	 mov	 BYTE PTR __$EHRec$[ebp+8], 7
  002c8	8b cc		 mov	 ecx, esp
  002ca	50		 push	 eax
  002cb	ff 15 00 00 00
	00		 call	 DWORD PTR __imp_??0?$CStringT@DV?$StrTraitMFC_DLL@DV?$ChTraitsCRT@D@ATL@@@@@ATL@@QAE@ABV01@@Z
  002d1	8b ce		 mov	 ecx, esi
  002d3	c6 45 fc 02	 mov	 BYTE PTR __$EHRec$[ebp+8], 2
  002d7	e8 00 00 00 00	 call	 ?SetRealHogaData_Sub@CFloatingHogaDlg@@QAEXV?$CStringT@DV?$StrTraitMFC_DLL@DV?$ChTraitsCRT@D@ATL@@@@@ATL@@0H@Z ; CFloatingHogaDlg::SetRealHogaData_Sub

; 2795 : 	SetRealHogaData_Rem(kbReal_KXH1.m_szofferrem1, TRUE);

  002dc	6a 01		 push	 1
  002de	51		 push	 ecx
  002df	8d 43 10	 lea	 eax, DWORD PTR [ebx+16]
  002e2	8b cc		 mov	 ecx, esp
  002e4	50		 push	 eax
  002e5	ff 15 00 00 00
	00		 call	 DWORD PTR __imp_??0?$CStringT@DV?$StrTraitMFC_DLL@DV?$ChTraitsCRT@D@ATL@@@@@ATL@@QAE@ABV01@@Z
  002eb	8b ce		 mov	 ecx, esi
  002ed	e8 00 00 00 00	 call	 ?SetRealHogaData_Rem@CFloatingHogaDlg@@QAEXV?$CStringT@DV?$StrTraitMFC_DLL@DV?$ChTraitsCRT@D@ATL@@@@@ATL@@H@Z ; CFloatingHogaDlg::SetRealHogaData_Rem

; 2796 : 	
; 2797 : 	//////////////////////////////////////////////////////////////////////////////////
; 2798 : 	//    
; 2799 : 	//////////////////////////////////////////////////////////////////////////////////
; 2800 : 	m_nHogaRow = MAESU_ROW;  

  002f2	c7 86 00 02 00
	00 0e 00 00 00	 mov	 DWORD PTR [esi+512], 14	; 0000000eH

; 2801 : 	
; 2802 : 	//  / 1
; 2803 : 	m_10HogaData.nBidho1 = atoi(kbReal_KXH1.m_szbidho1);

  002fc	ff 73 0c	 push	 DWORD PTR [ebx+12]
  002ff	ff 15 00 00 00
	00		 call	 DWORD PTR __imp__atoi
  00305	83 c4 04	 add	 esp, 4
  00308	89 86 54 01 00
	00		 mov	 DWORD PTR [esi+340], eax

; 2804 : 	SetRealHogaData_Sub(kbReal_KXH1.m_szbidho1, m_strPreClosePrice, FALSE);

  0030e	6a 00		 push	 0
  00310	51		 push	 ecx
  00311	8b cc		 mov	 ecx, esp
  00313	89 65 dc	 mov	 DWORD PTR $T6[ebp], esp
  00316	57		 push	 edi
  00317	ff 15 00 00 00
	00		 call	 DWORD PTR __imp_??0?$CStringT@DV?$StrTraitMFC_DLL@DV?$ChTraitsCRT@D@ATL@@@@@ATL@@QAE@ABV01@@Z
  0031d	51		 push	 ecx
  0031e	c6 45 fc 08	 mov	 BYTE PTR __$EHRec$[ebp+8], 8
  00322	8b cc		 mov	 ecx, esp
  00324	8d 43 0c	 lea	 eax, DWORD PTR [ebx+12]
  00327	50		 push	 eax
  00328	ff 15 00 00 00
	00		 call	 DWORD PTR __imp_??0?$CStringT@DV?$StrTraitMFC_DLL@DV?$ChTraitsCRT@D@ATL@@@@@ATL@@QAE@ABV01@@Z
  0032e	8b ce		 mov	 ecx, esi
  00330	c6 45 fc 02	 mov	 BYTE PTR __$EHRec$[ebp+8], 2
  00334	e8 00 00 00 00	 call	 ?SetRealHogaData_Sub@CFloatingHogaDlg@@QAEXV?$CStringT@DV?$StrTraitMFC_DLL@DV?$ChTraitsCRT@D@ATL@@@@@ATL@@0H@Z ; CFloatingHogaDlg::SetRealHogaData_Sub

; 2805 : 	SetRealHogaData_Rem(kbReal_KXH1.m_szbidrem1, FALSE);

  00339	6a 00		 push	 0
  0033b	51		 push	 ecx
  0033c	8d 43 14	 lea	 eax, DWORD PTR [ebx+20]
  0033f	8b cc		 mov	 ecx, esp
  00341	50		 push	 eax
  00342	ff 15 00 00 00
	00		 call	 DWORD PTR __imp_??0?$CStringT@DV?$StrTraitMFC_DLL@DV?$ChTraitsCRT@D@ATL@@@@@ATL@@QAE@ABV01@@Z
  00348	8b ce		 mov	 ecx, esi
  0034a	e8 00 00 00 00	 call	 ?SetRealHogaData_Rem@CFloatingHogaDlg@@QAEXV?$CStringT@DV?$StrTraitMFC_DLL@DV?$ChTraitsCRT@D@ATL@@@@@ATL@@H@Z ; CFloatingHogaDlg::SetRealHogaData_Rem

; 2806 : 	
; 2807 : 	//  / 2
; 2808 : 	m_nHogaRow++;

  0034f	ff 86 00 02 00
	00		 inc	 DWORD PTR [esi+512]

; 2809 : 	m_10HogaData.nBidho2 = atoi(kbReal_KXH1.m_szbidho2);

  00355	ff 73 1c	 push	 DWORD PTR [ebx+28]
  00358	ff 15 00 00 00
	00		 call	 DWORD PTR __imp__atoi
  0035e	83 c4 04	 add	 esp, 4
  00361	89 86 58 01 00
	00		 mov	 DWORD PTR [esi+344], eax

; 2810 : 	SetRealHogaData_Sub(kbReal_KXH1.m_szbidho2, m_strPreClosePrice, FALSE);

  00367	6a 00		 push	 0
  00369	51		 push	 ecx
  0036a	8b cc		 mov	 ecx, esp
  0036c	89 65 dc	 mov	 DWORD PTR $T5[ebp], esp
  0036f	57		 push	 edi
  00370	ff 15 00 00 00
	00		 call	 DWORD PTR __imp_??0?$CStringT@DV?$StrTraitMFC_DLL@DV?$ChTraitsCRT@D@ATL@@@@@ATL@@QAE@ABV01@@Z
  00376	51		 push	 ecx
  00377	8d 43 1c	 lea	 eax, DWORD PTR [ebx+28]
  0037a	c6 45 fc 09	 mov	 BYTE PTR __$EHRec$[ebp+8], 9
  0037e	8b cc		 mov	 ecx, esp
  00380	50		 push	 eax
  00381	ff 15 00 00 00
	00		 call	 DWORD PTR __imp_??0?$CStringT@DV?$StrTraitMFC_DLL@DV?$ChTraitsCRT@D@ATL@@@@@ATL@@QAE@ABV01@@Z
  00387	8b ce		 mov	 ecx, esi
  00389	c6 45 fc 02	 mov	 BYTE PTR __$EHRec$[ebp+8], 2
  0038d	e8 00 00 00 00	 call	 ?SetRealHogaData_Sub@CFloatingHogaDlg@@QAEXV?$CStringT@DV?$StrTraitMFC_DLL@DV?$ChTraitsCRT@D@ATL@@@@@ATL@@0H@Z ; CFloatingHogaDlg::SetRealHogaData_Sub

; 2811 : 	SetRealHogaData_Rem(kbReal_KXH1.m_szbidrem2, FALSE);

  00392	6a 00		 push	 0
  00394	51		 push	 ecx
  00395	8d 43 24	 lea	 eax, DWORD PTR [ebx+36]
  00398	8b cc		 mov	 ecx, esp
  0039a	50		 push	 eax
  0039b	ff 15 00 00 00
	00		 call	 DWORD PTR __imp_??0?$CStringT@DV?$StrTraitMFC_DLL@DV?$ChTraitsCRT@D@ATL@@@@@ATL@@QAE@ABV01@@Z
  003a1	8b ce		 mov	 ecx, esi
  003a3	e8 00 00 00 00	 call	 ?SetRealHogaData_Rem@CFloatingHogaDlg@@QAEXV?$CStringT@DV?$StrTraitMFC_DLL@DV?$ChTraitsCRT@D@ATL@@@@@ATL@@H@Z ; CFloatingHogaDlg::SetRealHogaData_Rem

; 2812 : 
; 2813 : 	//  / 3
; 2814 : 	m_nHogaRow++;

  003a8	ff 86 00 02 00
	00		 inc	 DWORD PTR [esi+512]

; 2815 : 	m_10HogaData.nBidho3 = atoi(kbReal_KXH1.m_szbidho3);

  003ae	ff 73 2c	 push	 DWORD PTR [ebx+44]
  003b1	ff 15 00 00 00
	00		 call	 DWORD PTR __imp__atoi
  003b7	83 c4 04	 add	 esp, 4
  003ba	89 86 5c 01 00
	00		 mov	 DWORD PTR [esi+348], eax

; 2816 : 	SetRealHogaData_Sub(kbReal_KXH1.m_szbidho3, m_strPreClosePrice, FALSE);

  003c0	6a 00		 push	 0
  003c2	51		 push	 ecx
  003c3	8b cc		 mov	 ecx, esp
  003c5	89 65 dc	 mov	 DWORD PTR $T4[ebp], esp
  003c8	57		 push	 edi
  003c9	ff 15 00 00 00
	00		 call	 DWORD PTR __imp_??0?$CStringT@DV?$StrTraitMFC_DLL@DV?$ChTraitsCRT@D@ATL@@@@@ATL@@QAE@ABV01@@Z
  003cf	51		 push	 ecx
  003d0	8d 43 2c	 lea	 eax, DWORD PTR [ebx+44]
  003d3	c6 45 fc 0a	 mov	 BYTE PTR __$EHRec$[ebp+8], 10 ; 0000000aH
  003d7	8b cc		 mov	 ecx, esp
  003d9	50		 push	 eax
  003da	ff 15 00 00 00
	00		 call	 DWORD PTR __imp_??0?$CStringT@DV?$StrTraitMFC_DLL@DV?$ChTraitsCRT@D@ATL@@@@@ATL@@QAE@ABV01@@Z
  003e0	8b ce		 mov	 ecx, esi
  003e2	c6 45 fc 02	 mov	 BYTE PTR __$EHRec$[ebp+8], 2
  003e6	e8 00 00 00 00	 call	 ?SetRealHogaData_Sub@CFloatingHogaDlg@@QAEXV?$CStringT@DV?$StrTraitMFC_DLL@DV?$ChTraitsCRT@D@ATL@@@@@ATL@@0H@Z ; CFloatingHogaDlg::SetRealHogaData_Sub

; 2817 : 	SetRealHogaData_Rem(kbReal_KXH1.m_szbidrem3, FALSE);

  003eb	6a 00		 push	 0
  003ed	51		 push	 ecx
  003ee	8d 43 34	 lea	 eax, DWORD PTR [ebx+52]
  003f1	8b cc		 mov	 ecx, esp
  003f3	50		 push	 eax
  003f4	ff 15 00 00 00
	00		 call	 DWORD PTR __imp_??0?$CStringT@DV?$StrTraitMFC_DLL@DV?$ChTraitsCRT@D@ATL@@@@@ATL@@QAE@ABV01@@Z
  003fa	8b ce		 mov	 ecx, esi
  003fc	e8 00 00 00 00	 call	 ?SetRealHogaData_Rem@CFloatingHogaDlg@@QAEXV?$CStringT@DV?$StrTraitMFC_DLL@DV?$ChTraitsCRT@D@ATL@@@@@ATL@@H@Z ; CFloatingHogaDlg::SetRealHogaData_Rem

; 2818 : 
; 2819 : 	//  / 4
; 2820 : 	m_nHogaRow++;

  00401	ff 86 00 02 00
	00		 inc	 DWORD PTR [esi+512]

; 2821 : 	m_10HogaData.nBidho4 = atoi(kbReal_KXH1.m_szbidho4);

  00407	ff 73 3c	 push	 DWORD PTR [ebx+60]
  0040a	ff 15 00 00 00
	00		 call	 DWORD PTR __imp__atoi
  00410	83 c4 04	 add	 esp, 4
  00413	89 86 60 01 00
	00		 mov	 DWORD PTR [esi+352], eax

; 2822 : 	SetRealHogaData_Sub(kbReal_KXH1.m_szbidho4, m_strPreClosePrice, FALSE);

  00419	6a 00		 push	 0
  0041b	51		 push	 ecx
  0041c	8b cc		 mov	 ecx, esp
  0041e	89 65 dc	 mov	 DWORD PTR $T3[ebp], esp
  00421	57		 push	 edi
  00422	ff 15 00 00 00
	00		 call	 DWORD PTR __imp_??0?$CStringT@DV?$StrTraitMFC_DLL@DV?$ChTraitsCRT@D@ATL@@@@@ATL@@QAE@ABV01@@Z
  00428	51		 push	 ecx
  00429	8d 43 3c	 lea	 eax, DWORD PTR [ebx+60]
  0042c	c6 45 fc 0b	 mov	 BYTE PTR __$EHRec$[ebp+8], 11 ; 0000000bH
  00430	8b cc		 mov	 ecx, esp
  00432	50		 push	 eax
  00433	ff 15 00 00 00
	00		 call	 DWORD PTR __imp_??0?$CStringT@DV?$StrTraitMFC_DLL@DV?$ChTraitsCRT@D@ATL@@@@@ATL@@QAE@ABV01@@Z
  00439	8b ce		 mov	 ecx, esi
  0043b	c6 45 fc 02	 mov	 BYTE PTR __$EHRec$[ebp+8], 2
  0043f	e8 00 00 00 00	 call	 ?SetRealHogaData_Sub@CFloatingHogaDlg@@QAEXV?$CStringT@DV?$StrTraitMFC_DLL@DV?$ChTraitsCRT@D@ATL@@@@@ATL@@0H@Z ; CFloatingHogaDlg::SetRealHogaData_Sub

; 2823 : 	SetRealHogaData_Rem(kbReal_KXH1.m_szbidrem4, FALSE);

  00444	6a 00		 push	 0
  00446	51		 push	 ecx
  00447	8d 43 44	 lea	 eax, DWORD PTR [ebx+68]
  0044a	8b cc		 mov	 ecx, esp
  0044c	50		 push	 eax
  0044d	ff 15 00 00 00
	00		 call	 DWORD PTR __imp_??0?$CStringT@DV?$StrTraitMFC_DLL@DV?$ChTraitsCRT@D@ATL@@@@@ATL@@QAE@ABV01@@Z
  00453	8b ce		 mov	 ecx, esi
  00455	e8 00 00 00 00	 call	 ?SetRealHogaData_Rem@CFloatingHogaDlg@@QAEXV?$CStringT@DV?$StrTraitMFC_DLL@DV?$ChTraitsCRT@D@ATL@@@@@ATL@@H@Z ; CFloatingHogaDlg::SetRealHogaData_Rem

; 2824 : 
; 2825 : 	//  / 5
; 2826 : 	m_nHogaRow++;

  0045a	ff 86 00 02 00
	00		 inc	 DWORD PTR [esi+512]

; 2827 : 	m_10HogaData.nBidho5 = atoi(kbReal_KXH1.m_szbidho5);

  00460	ff 73 4c	 push	 DWORD PTR [ebx+76]
  00463	ff 15 00 00 00
	00		 call	 DWORD PTR __imp__atoi
  00469	83 c4 04	 add	 esp, 4
  0046c	89 86 64 01 00
	00		 mov	 DWORD PTR [esi+356], eax

; 2828 : 	SetRealHogaData_Sub(kbReal_KXH1.m_szbidho5, m_strPreClosePrice, FALSE);

  00472	6a 00		 push	 0
  00474	51		 push	 ecx
  00475	8b cc		 mov	 ecx, esp
  00477	89 65 dc	 mov	 DWORD PTR $T2[ebp], esp
  0047a	57		 push	 edi
  0047b	ff 15 00 00 00
	00		 call	 DWORD PTR __imp_??0?$CStringT@DV?$StrTraitMFC_DLL@DV?$ChTraitsCRT@D@ATL@@@@@ATL@@QAE@ABV01@@Z
  00481	51		 push	 ecx
  00482	8d 43 4c	 lea	 eax, DWORD PTR [ebx+76]
  00485	c6 45 fc 0c	 mov	 BYTE PTR __$EHRec$[ebp+8], 12 ; 0000000cH
  00489	8b cc		 mov	 ecx, esp
  0048b	50		 push	 eax
  0048c	ff 15 00 00 00
	00		 call	 DWORD PTR __imp_??0?$CStringT@DV?$StrTraitMFC_DLL@DV?$ChTraitsCRT@D@ATL@@@@@ATL@@QAE@ABV01@@Z
  00492	8b ce		 mov	 ecx, esi
  00494	c6 45 fc 02	 mov	 BYTE PTR __$EHRec$[ebp+8], 2
  00498	e8 00 00 00 00	 call	 ?SetRealHogaData_Sub@CFloatingHogaDlg@@QAEXV?$CStringT@DV?$StrTraitMFC_DLL@DV?$ChTraitsCRT@D@ATL@@@@@ATL@@0H@Z ; CFloatingHogaDlg::SetRealHogaData_Sub

; 2829 : 	SetRealHogaData_Rem(kbReal_KXH1.m_szbidrem5, FALSE);

  0049d	6a 00		 push	 0
  0049f	51		 push	 ecx
  004a0	8d 43 54	 lea	 eax, DWORD PTR [ebx+84]
  004a3	8b cc		 mov	 ecx, esp
  004a5	50		 push	 eax
  004a6	ff 15 00 00 00
	00		 call	 DWORD PTR __imp_??0?$CStringT@DV?$StrTraitMFC_DLL@DV?$ChTraitsCRT@D@ATL@@@@@ATL@@QAE@ABV01@@Z
  004ac	8b ce		 mov	 ecx, esi
  004ae	e8 00 00 00 00	 call	 ?SetRealHogaData_Rem@CFloatingHogaDlg@@QAEXV?$CStringT@DV?$StrTraitMFC_DLL@DV?$ChTraitsCRT@D@ATL@@@@@ATL@@H@Z ; CFloatingHogaDlg::SetRealHogaData_Rem

; 2830 : 
; 2831 : 	//  ---------------------------------------------------------------------------->>
; 2832 : 	// 5   
; 2833 : 	{
; 2834 : 		for(int row=MAEDO_ROW+5; row < MAEDO_ROW+10; row++)

  004b3	bf 09 00 00 00	 mov	 edi, 9
  004b8	33 db		 xor	 ebx, ebx
  004ba	66 0f 1f 44 00
	00		 npad	 6
$LL7@SetRealHog:

; 2835 : 		{
; 2836 : 			sTemp = m_pGridCtrl->GetItemText(row, MAEDO_JAN_COL);

  004c0	8b 8e cc 00 00
	00		 mov	 ecx, DWORD PTR [esi+204]
  004c6	8d 45 e0	 lea	 eax, DWORD PTR $T12[ebp]
  004c9	6a 03		 push	 3
  004cb	57		 push	 edi
  004cc	50		 push	 eax
  004cd	e8 00 00 00 00	 call	 ?GetItemText@CExGridCtrl@@QAE?AV?$CStringT@DV?$StrTraitMFC_DLL@DV?$ChTraitsCRT@D@ATL@@@@@ATL@@HH@Z ; CExGridCtrl::GetItemText
  004d2	50		 push	 eax
  004d3	8d 4d ec	 lea	 ecx, DWORD PTR _sTemp$[ebp]
  004d6	c6 45 fc 0d	 mov	 BYTE PTR __$EHRec$[ebp+8], 13 ; 0000000dH
  004da	ff 15 00 00 00
	00		 call	 DWORD PTR __imp_??4?$CStringT@DV?$StrTraitMFC_DLL@DV?$ChTraitsCRT@D@ATL@@@@@ATL@@QAEAAV01@ABV01@@Z
  004e0	8d 4d e0	 lea	 ecx, DWORD PTR $T12[ebp]
  004e3	c6 45 fc 02	 mov	 BYTE PTR __$EHRec$[ebp+8], 2
  004e7	ff 15 00 00 00
	00		 call	 DWORD PTR __imp_??1?$CStringT@DV?$StrTraitMFC_DLL@DV?$ChTraitsCRT@D@ATL@@@@@ATL@@QAE@XZ

; 2837 : 			sTemp.Remove(',');

  004ed	6a 2c		 push	 44			; 0000002cH
  004ef	8d 4d ec	 lea	 ecx, DWORD PTR _sTemp$[ebp]
  004f2	ff 15 00 00 00
	00		 call	 DWORD PTR __imp_?Remove@?$CStringT@DV?$StrTraitMFC_DLL@DV?$ChTraitsCRT@D@ATL@@@@@ATL@@QAEHD@Z

; 2838 : 			n5HogaMaedoJan += atoi(sTemp);

  004f8	ff 75 ec	 push	 DWORD PTR _sTemp$[ebp]
  004fb	ff 15 00 00 00
	00		 call	 DWORD PTR __imp__atoi
  00501	47		 inc	 edi
  00502	83 c4 04	 add	 esp, 4
  00505	03 d8		 add	 ebx, eax
  00507	83 ff 0e	 cmp	 edi, 14			; 0000000eH
  0050a	7c b4		 jl	 SHORT $LL7@SetRealHog

; 2839 : 		}
; 2840 : 		sTemp1.Format("%d", n5HogaMaedoJan);

  0050c	53		 push	 ebx
  0050d	8d 45 e8	 lea	 eax, DWORD PTR _sTemp1$[ebp]
  00510	68 00 00 00 00	 push	 OFFSET ??_C@_02DPKJAMEF@?$CFd@
  00515	50		 push	 eax
  00516	ff 15 00 00 00
	00		 call	 DWORD PTR __imp_?Format@?$CStringT@DV?$StrTraitMFC_DLL@DV?$ChTraitsCRT@D@ATL@@@@@ATL@@QAAXPBDZZ
  0051c	83 c4 0c	 add	 esp, 12			; 0000000cH

; 2841 : 		strText = m_Util.GetComma(sTemp1);

  0051f	8d 4d e0	 lea	 ecx, DWORD PTR $T11[ebp]
  00522	ff 75 e8	 push	 DWORD PTR _sTemp1$[ebp]
  00525	51		 push	 ecx
  00526	8d 8e 84 01 00
	00		 lea	 ecx, DWORD PTR [esi+388]
  0052c	e8 00 00 00 00	 call	 ?GetComma@CUtil@@QAE?AV?$CStringT@DV?$StrTraitMFC_DLL@DV?$ChTraitsCRT@D@ATL@@@@@ATL@@PBD@Z ; CUtil::GetComma
  00531	50		 push	 eax
  00532	8d 4d f0	 lea	 ecx, DWORD PTR _strText$[ebp]
  00535	c6 45 fc 0e	 mov	 BYTE PTR __$EHRec$[ebp+8], 14 ; 0000000eH
  00539	ff 15 00 00 00
	00		 call	 DWORD PTR __imp_??4?$CStringT@DV?$StrTraitMFC_DLL@DV?$ChTraitsCRT@D@ATL@@@@@ATL@@QAEAAV01@ABV01@@Z
  0053f	8d 4d e0	 lea	 ecx, DWORD PTR $T11[ebp]
  00542	c6 45 fc 02	 mov	 BYTE PTR __$EHRec$[ebp+8], 2
  00546	ff 15 00 00 00
	00		 call	 DWORD PTR __imp_??1?$CStringT@DV?$StrTraitMFC_DLL@DV?$ChTraitsCRT@D@ATL@@@@@ATL@@QAE@XZ

; 2842 : 		nRow = m_n5HogaSumRow;

  0054c	8b be d4 01 00
	00		 mov	 edi, DWORD PTR [esi+468]

; 2843 : 		CompareNUpdateHogaData(nRow, MAEDO_JAN_COL, strText, 0, COLOR_BLACK);

  00552	8d 45 f0	 lea	 eax, DWORD PTR _strText$[ebp]
  00555	6a 00		 push	 0
  00557	6a 00		 push	 0
  00559	51		 push	 ecx
  0055a	8b cc		 mov	 ecx, esp
  0055c	50		 push	 eax
  0055d	ff 15 00 00 00
	00		 call	 DWORD PTR __imp_??0?$CStringT@DV?$StrTraitMFC_DLL@DV?$ChTraitsCRT@D@ATL@@@@@ATL@@QAE@ABV01@@Z
  00563	6a 03		 push	 3
  00565	57		 push	 edi
  00566	8b ce		 mov	 ecx, esi
  00568	e8 00 00 00 00	 call	 ?CompareNUpdateHogaData@CFloatingHogaDlg@@QAEXHHV?$CStringT@DV?$StrTraitMFC_DLL@DV?$ChTraitsCRT@D@ATL@@@@@ATL@@HK@Z ; CFloatingHogaDlg::CompareNUpdateHogaData
  0056d	8b 5d 08	 mov	 ebx, DWORD PTR _kbReal_KXH1$[ebp]

; 2844 : 	}
; 2845 : 	
; 2846 : 	// 5   
; 2847 : 	{
; 2848 : 		for(int row=MAESU_ROW; row < MAESU_ROW+5; row++)

  00570	bf 0e 00 00 00	 mov	 edi, 14			; 0000000eH
$LL10@SetRealHog:

; 2849 : 		{
; 2850 : 			sTemp = m_pGridCtrl->GetItemText(row, MAESU_JAN_COL);

  00575	8b 8e cc 00 00
	00		 mov	 ecx, DWORD PTR [esi+204]
  0057b	8d 45 08	 lea	 eax, DWORD PTR $T17[ebp]
  0057e	6a 06		 push	 6
  00580	57		 push	 edi
  00581	50		 push	 eax
  00582	e8 00 00 00 00	 call	 ?GetItemText@CExGridCtrl@@QAE?AV?$CStringT@DV?$StrTraitMFC_DLL@DV?$ChTraitsCRT@D@ATL@@@@@ATL@@HH@Z ; CExGridCtrl::GetItemText
  00587	50		 push	 eax
  00588	8d 4d ec	 lea	 ecx, DWORD PTR _sTemp$[ebp]
  0058b	c6 45 fc 0f	 mov	 BYTE PTR __$EHRec$[ebp+8], 15 ; 0000000fH
  0058f	ff 15 00 00 00
	00		 call	 DWORD PTR __imp_??4?$CStringT@DV?$StrTraitMFC_DLL@DV?$ChTraitsCRT@D@ATL@@@@@ATL@@QAEAAV01@ABV01@@Z
  00595	8d 4d 08	 lea	 ecx, DWORD PTR $T17[ebp]
  00598	c6 45 fc 02	 mov	 BYTE PTR __$EHRec$[ebp+8], 2
  0059c	ff 15 00 00 00
	00		 call	 DWORD PTR __imp_??1?$CStringT@DV?$StrTraitMFC_DLL@DV?$ChTraitsCRT@D@ATL@@@@@ATL@@QAE@XZ

; 2851 : 			sTemp.Remove(',');

  005a2	6a 2c		 push	 44			; 0000002cH
  005a4	8d 4d ec	 lea	 ecx, DWORD PTR _sTemp$[ebp]
  005a7	ff 15 00 00 00
	00		 call	 DWORD PTR __imp_?Remove@?$CStringT@DV?$StrTraitMFC_DLL@DV?$ChTraitsCRT@D@ATL@@@@@ATL@@QAEHD@Z

; 2852 : 			n5HogaMaesuJan += atoi(sTemp);

  005ad	ff 75 ec	 push	 DWORD PTR _sTemp$[ebp]
  005b0	ff 15 00 00 00
	00		 call	 DWORD PTR __imp__atoi
  005b6	8b 4d e4	 mov	 ecx, DWORD PTR _n5HogaMaesuJan$1$[ebp]
  005b9	47		 inc	 edi
  005ba	03 c8		 add	 ecx, eax
  005bc	83 c4 04	 add	 esp, 4
  005bf	89 4d e4	 mov	 DWORD PTR _n5HogaMaesuJan$1$[ebp], ecx
  005c2	83 ff 13	 cmp	 edi, 19			; 00000013H
  005c5	7c ae		 jl	 SHORT $LL10@SetRealHog

; 2853 : 		}
; 2854 : 		sTemp1.Format("%d", n5HogaMaesuJan);

  005c7	51		 push	 ecx
  005c8	8d 45 e8	 lea	 eax, DWORD PTR _sTemp1$[ebp]
  005cb	68 00 00 00 00	 push	 OFFSET ??_C@_02DPKJAMEF@?$CFd@
  005d0	50		 push	 eax
  005d1	ff 15 00 00 00
	00		 call	 DWORD PTR __imp_?Format@?$CStringT@DV?$StrTraitMFC_DLL@DV?$ChTraitsCRT@D@ATL@@@@@ATL@@QAAXPBDZZ
  005d7	83 c4 0c	 add	 esp, 12			; 0000000cH

; 2855 : 		strText = m_Util.GetComma(sTemp1);

  005da	8d 45 08	 lea	 eax, DWORD PTR $T16[ebp]
  005dd	8d 8e 84 01 00
	00		 lea	 ecx, DWORD PTR [esi+388]
  005e3	ff 75 e8	 push	 DWORD PTR _sTemp1$[ebp]
  005e6	50		 push	 eax
  005e7	e8 00 00 00 00	 call	 ?GetComma@CUtil@@QAE?AV?$CStringT@DV?$StrTraitMFC_DLL@DV?$ChTraitsCRT@D@ATL@@@@@ATL@@PBD@Z ; CUtil::GetComma
  005ec	50		 push	 eax
  005ed	8d 4d f0	 lea	 ecx, DWORD PTR _strText$[ebp]
  005f0	c6 45 fc 10	 mov	 BYTE PTR __$EHRec$[ebp+8], 16 ; 00000010H
  005f4	ff 15 00 00 00
	00		 call	 DWORD PTR __imp_??4?$CStringT@DV?$StrTraitMFC_DLL@DV?$ChTraitsCRT@D@ATL@@@@@ATL@@QAEAAV01@ABV01@@Z
  005fa	8d 4d 08	 lea	 ecx, DWORD PTR $T16[ebp]
  005fd	c6 45 fc 02	 mov	 BYTE PTR __$EHRec$[ebp+8], 2
  00601	ff 15 00 00 00
	00		 call	 DWORD PTR __imp_??1?$CStringT@DV?$StrTraitMFC_DLL@DV?$ChTraitsCRT@D@ATL@@@@@ATL@@QAE@XZ

; 2856 : 		nRow = m_n5HogaSumRow;

  00607	8b be d4 01 00
	00		 mov	 edi, DWORD PTR [esi+468]

; 2857 : 		CompareNUpdateHogaData(nRow, MAESU_JAN_COL, strText, 0, COLOR_BLACK);

  0060d	8d 45 f0	 lea	 eax, DWORD PTR _strText$[ebp]
  00610	6a 00		 push	 0
  00612	6a 00		 push	 0
  00614	51		 push	 ecx
  00615	8b cc		 mov	 ecx, esp
  00617	50		 push	 eax
  00618	ff 15 00 00 00
	00		 call	 DWORD PTR __imp_??0?$CStringT@DV?$StrTraitMFC_DLL@DV?$ChTraitsCRT@D@ATL@@@@@ATL@@QAE@ABV01@@Z
  0061e	6a 06		 push	 6
  00620	57		 push	 edi
  00621	8b ce		 mov	 ecx, esi
  00623	e8 00 00 00 00	 call	 ?CompareNUpdateHogaData@CFloatingHogaDlg@@QAEXHHV?$CStringT@DV?$StrTraitMFC_DLL@DV?$ChTraitsCRT@D@ATL@@@@@ATL@@HK@Z ; CFloatingHogaDlg::CompareNUpdateHogaData

; 2858 : 	}
; 2859 : 
; 2860 : 	//   
; 2861 : 	nRow = m_nTotalSumRow;
; 2862 : 	strText = m_Util.GetComma(kbReal_KXH1.m_sztotofferrem);

  00628	ff 73 58	 push	 DWORD PTR [ebx+88]
  0062b	8b be d8 01 00
	00		 mov	 edi, DWORD PTR [esi+472]
  00631	8d 45 08	 lea	 eax, DWORD PTR $T15[ebp]
  00634	50		 push	 eax
  00635	8d 8e 84 01 00
	00		 lea	 ecx, DWORD PTR [esi+388]
  0063b	e8 00 00 00 00	 call	 ?GetComma@CUtil@@QAE?AV?$CStringT@DV?$StrTraitMFC_DLL@DV?$ChTraitsCRT@D@ATL@@@@@ATL@@PBD@Z ; CUtil::GetComma
  00640	50		 push	 eax
  00641	8d 4d f0	 lea	 ecx, DWORD PTR _strText$[ebp]
  00644	c6 45 fc 11	 mov	 BYTE PTR __$EHRec$[ebp+8], 17 ; 00000011H
  00648	ff 15 00 00 00
	00		 call	 DWORD PTR __imp_??4?$CStringT@DV?$StrTraitMFC_DLL@DV?$ChTraitsCRT@D@ATL@@@@@ATL@@QAEAAV01@ABV01@@Z
  0064e	8d 4d 08	 lea	 ecx, DWORD PTR $T15[ebp]
  00651	c6 45 fc 02	 mov	 BYTE PTR __$EHRec$[ebp+8], 2
  00655	ff 15 00 00 00
	00		 call	 DWORD PTR __imp_??1?$CStringT@DV?$StrTraitMFC_DLL@DV?$ChTraitsCRT@D@ATL@@@@@ATL@@QAE@XZ

; 2863 : 	CompareNUpdateHogaData(nRow, MAEDO_JAN_COL, strText, 0, COLOR_BLACK);

  0065b	6a 00		 push	 0
  0065d	6a 00		 push	 0
  0065f	51		 push	 ecx
  00660	8d 45 f0	 lea	 eax, DWORD PTR _strText$[ebp]
  00663	8b cc		 mov	 ecx, esp
  00665	50		 push	 eax
  00666	ff 15 00 00 00
	00		 call	 DWORD PTR __imp_??0?$CStringT@DV?$StrTraitMFC_DLL@DV?$ChTraitsCRT@D@ATL@@@@@ATL@@QAE@ABV01@@Z
  0066c	6a 03		 push	 3
  0066e	57		 push	 edi
  0066f	8b ce		 mov	 ecx, esi
  00671	e8 00 00 00 00	 call	 ?CompareNUpdateHogaData@CFloatingHogaDlg@@QAEXHHV?$CStringT@DV?$StrTraitMFC_DLL@DV?$ChTraitsCRT@D@ATL@@@@@ATL@@HK@Z ; CFloatingHogaDlg::CompareNUpdateHogaData

; 2864 : 
; 2865 : 	//   
; 2866 : 	nRow = m_nTotalSumRow;
; 2867 : 	strText = m_Util.GetComma(kbReal_KXH1.m_sztotbidrem);

  00676	ff 73 5c	 push	 DWORD PTR [ebx+92]
  00679	8b be d8 01 00
	00		 mov	 edi, DWORD PTR [esi+472]
  0067f	8d 45 08	 lea	 eax, DWORD PTR $T14[ebp]
  00682	50		 push	 eax
  00683	8d 8e 84 01 00
	00		 lea	 ecx, DWORD PTR [esi+388]
  00689	e8 00 00 00 00	 call	 ?GetComma@CUtil@@QAE?AV?$CStringT@DV?$StrTraitMFC_DLL@DV?$ChTraitsCRT@D@ATL@@@@@ATL@@PBD@Z ; CUtil::GetComma
  0068e	50		 push	 eax
  0068f	8d 4d f0	 lea	 ecx, DWORD PTR _strText$[ebp]
  00692	c6 45 fc 12	 mov	 BYTE PTR __$EHRec$[ebp+8], 18 ; 00000012H
  00696	ff 15 00 00 00
	00		 call	 DWORD PTR __imp_??4?$CStringT@DV?$StrTraitMFC_DLL@DV?$ChTraitsCRT@D@ATL@@@@@ATL@@QAEAAV01@ABV01@@Z
  0069c	8d 4d 08	 lea	 ecx, DWORD PTR $T14[ebp]
  0069f	c6 45 fc 02	 mov	 BYTE PTR __$EHRec$[ebp+8], 2
  006a3	ff 15 00 00 00
	00		 call	 DWORD PTR __imp_??1?$CStringT@DV?$StrTraitMFC_DLL@DV?$ChTraitsCRT@D@ATL@@@@@ATL@@QAE@XZ

; 2868 : 	CompareNUpdateHogaData(nRow, MAESU_JAN_COL, strText, 0, COLOR_BLACK);

  006a9	6a 00		 push	 0
  006ab	6a 00		 push	 0
  006ad	51		 push	 ecx
  006ae	8d 45 f0	 lea	 eax, DWORD PTR _strText$[ebp]
  006b1	8b cc		 mov	 ecx, esp
  006b3	50		 push	 eax
  006b4	ff 15 00 00 00
	00		 call	 DWORD PTR __imp_??0?$CStringT@DV?$StrTraitMFC_DLL@DV?$ChTraitsCRT@D@ATL@@@@@ATL@@QAE@ABV01@@Z
  006ba	6a 06		 push	 6
  006bc	57		 push	 edi
  006bd	8b ce		 mov	 ecx, esi
  006bf	e8 00 00 00 00	 call	 ?CompareNUpdateHogaData@CFloatingHogaDlg@@QAEXHHV?$CStringT@DV?$StrTraitMFC_DLL@DV?$ChTraitsCRT@D@ATL@@@@@ATL@@HK@Z ; CFloatingHogaDlg::CompareNUpdateHogaData
$LN58@SetRealHog:

; 2869 : }

  006c4	8d 4d f0	 lea	 ecx, DWORD PTR _strText$[ebp]
  006c7	ff 15 00 00 00
	00		 call	 DWORD PTR __imp_??1?$CStringT@DV?$StrTraitMFC_DLL@DV?$ChTraitsCRT@D@ATL@@@@@ATL@@QAE@XZ
  006cd	8d 4d e8	 lea	 ecx, DWORD PTR _sTemp1$[ebp]
  006d0	ff 15 00 00 00
	00		 call	 DWORD PTR __imp_??1?$CStringT@DV?$StrTraitMFC_DLL@DV?$ChTraitsCRT@D@ATL@@@@@ATL@@QAE@XZ
  006d6	8d 4d ec	 lea	 ecx, DWORD PTR _sTemp$[ebp]
  006d9	ff 15 00 00 00
	00		 call	 DWORD PTR __imp_??1?$CStringT@DV?$StrTraitMFC_DLL@DV?$ChTraitsCRT@D@ATL@@@@@ATL@@QAE@XZ
$LN1@SetRealHog:
  006df	8b 4d f4	 mov	 ecx, DWORD PTR __$EHRec$[ebp]
  006e2	64 89 0d 00 00
	00 00		 mov	 DWORD PTR fs:0, ecx
  006e9	59		 pop	 ecx
  006ea	5f		 pop	 edi
  006eb	5e		 pop	 esi
  006ec	5b		 pop	 ebx
  006ed	8b e5		 mov	 esp, ebp
  006ef	5d		 pop	 ebp
  006f0	c2 04 00	 ret	 4
$LN62@SetRealHog:
; File C:\Program Files (x86)\Microsoft Visual Studio\2019\Community\VC\Tools\MSVC\14.29.30133\atlmfc\include\afxtempl.h

; 290  : 	AfxThrowInvalidArgException();

  006f3	e8 00 00 00 00	 call	 ?AfxThrowInvalidArgException@@YGXXZ ; AfxThrowInvalidArgException
$LN114@SetRealHog:
  006f8	cc		 int	 3
_TEXT	ENDS
;	COMDAT text$x
text$x	SEGMENT
__unwindfunclet$?SetRealHogaData@CFloatingHogaDlg@@QAEXAAVCKBREAL_KXH1@@@Z$0:
  00000	8d 4d ec	 lea	 ecx, DWORD PTR _sTemp$[ebp]
  00003	ff 25 00 00 00
	00		 jmp	 DWORD PTR __imp_??1?$CStringT@DV?$StrTraitMFC_DLL@DV?$ChTraitsCRT@D@ATL@@@@@ATL@@QAE@XZ
__unwindfunclet$?SetRealHogaData@CFloatingHogaDlg@@QAEXAAVCKBREAL_KXH1@@@Z$1:
  00009	8d 4d e8	 lea	 ecx, DWORD PTR _sTemp1$[ebp]
  0000c	ff 25 00 00 00
	00		 jmp	 DWORD PTR __imp_??1?$CStringT@DV?$StrTraitMFC_DLL@DV?$ChTraitsCRT@D@ATL@@@@@ATL@@QAE@XZ
__unwindfunclet$?SetRealHogaData@CFloatingHogaDlg@@QAEXAAVCKBREAL_KXH1@@@Z$2:
  00012	8d 4d f0	 lea	 ecx, DWORD PTR _strText$[ebp]
  00015	ff 25 00 00 00
	00		 jmp	 DWORD PTR __imp_??1?$CStringT@DV?$StrTraitMFC_DLL@DV?$ChTraitsCRT@D@ATL@@@@@ATL@@QAE@XZ
__unwindfunclet$?SetRealHogaData@CFloatingHogaDlg@@QAEXAAVCKBREAL_KXH1@@@Z$3:
  0001b	8b 4d e0	 mov	 ecx, DWORD PTR $T13[ebp]
  0001e	ff 25 00 00 00
	00		 jmp	 DWORD PTR __imp_??1?$CStringT@DV?$StrTraitMFC_DLL@DV?$ChTraitsCRT@D@ATL@@@@@ATL@@QAE@XZ
__unwindfunclet$?SetRealHogaData@CFloatingHogaDlg@@QAEXAAVCKBREAL_KXH1@@@Z$6:
  00024	8b 4d dc	 mov	 ecx, DWORD PTR $T10[ebp]
  00027	ff 25 00 00 00
	00		 jmp	 DWORD PTR __imp_??1?$CStringT@DV?$StrTraitMFC_DLL@DV?$ChTraitsCRT@D@ATL@@@@@ATL@@QAE@XZ
__unwindfunclet$?SetRealHogaData@CFloatingHogaDlg@@QAEXAAVCKBREAL_KXH1@@@Z$9:
  0002d	8b 4d dc	 mov	 ecx, DWORD PTR $T9[ebp]
  00030	ff 25 00 00 00
	00		 jmp	 DWORD PTR __imp_??1?$CStringT@DV?$StrTraitMFC_DLL@DV?$ChTraitsCRT@D@ATL@@@@@ATL@@QAE@XZ
__unwindfunclet$?SetRealHogaData@CFloatingHogaDlg@@QAEXAAVCKBREAL_KXH1@@@Z$12:
  00036	8b 4d dc	 mov	 ecx, DWORD PTR $T8[ebp]
  00039	ff 25 00 00 00
	00		 jmp	 DWORD PTR __imp_??1?$CStringT@DV?$StrTraitMFC_DLL@DV?$ChTraitsCRT@D@ATL@@@@@ATL@@QAE@XZ
__unwindfunclet$?SetRealHogaData@CFloatingHogaDlg@@QAEXAAVCKBREAL_KXH1@@@Z$15:
  0003f	8b 4d dc	 mov	 ecx, DWORD PTR $T7[ebp]
  00042	ff 25 00 00 00
	00		 jmp	 DWORD PTR __imp_??1?$CStringT@DV?$StrTraitMFC_DLL@DV?$ChTraitsCRT@D@ATL@@@@@ATL@@QAE@XZ
__unwindfunclet$?SetRealHogaData@CFloatingHogaDlg@@QAEXAAVCKBREAL_KXH1@@@Z$18:
  00048	8b 4d dc	 mov	 ecx, DWORD PTR $T6[ebp]
  0004b	ff 25 00 00 00
	00		 jmp	 DWORD PTR __imp_??1?$CStringT@DV?$StrTraitMFC_DLL@DV?$ChTraitsCRT@D@ATL@@@@@ATL@@QAE@XZ
__unwindfunclet$?SetRealHogaData@CFloatingHogaDlg@@QAEXAAVCKBREAL_KXH1@@@Z$21:
  00051	8b 4d dc	 mov	 ecx, DWORD PTR $T5[ebp]
  00054	ff 25 00 00 00
	00		 jmp	 DWORD PTR __imp_??1?$CStringT@DV?$StrTraitMFC_DLL@DV?$ChTraitsCRT@D@ATL@@@@@ATL@@QAE@XZ
__unwindfunclet$?SetRealHogaData@CFloatingHogaDlg@@QAEXAAVCKBREAL_KXH1@@@Z$24:
  0005a	8b 4d dc	 mov	 ecx, DWORD PTR $T4[ebp]
  0005d	ff 25 00 00 00
	00		 jmp	 DWORD PTR __imp_??1?$CStringT@DV?$StrTraitMFC_DLL@DV?$ChTraitsCRT@D@ATL@@@@@ATL@@QAE@XZ
__unwindfunclet$?SetRealHogaData@CFloatingHogaDlg@@QAEXAAVCKBREAL_KXH1@@@Z$27:
  00063	8b 4d dc	 mov	 ecx, DWORD PTR $T3[ebp]
  00066	ff 25 00 00 00
	00		 jmp	 DWORD PTR __imp_??1?$CStringT@DV?$StrTraitMFC_DLL@DV?$ChTraitsCRT@D@ATL@@@@@ATL@@QAE@XZ
__unwindfunclet$?SetRealHogaData@CFloatingHogaDlg@@QAEXAAVCKBREAL_KXH1@@@Z$30:
  0006c	8b 4d dc	 mov	 ecx, DWORD PTR $T2[ebp]
  0006f	ff 25 00 00 00
	00		 jmp	 DWORD PTR __imp_??1?$CStringT@DV?$StrTraitMFC_DLL@DV?$ChTraitsCRT@D@ATL@@@@@ATL@@QAE@XZ
__unwindfunclet$?SetRealHogaData@CFloatingHogaDlg@@QAEXAAVCKBREAL_KXH1@@@Z$33:
  00075	8d 4d e0	 lea	 ecx, DWORD PTR $T12[ebp]
  00078	ff 25 00 00 00
	00		 jmp	 DWORD PTR __imp_??1?$CStringT@DV?$StrTraitMFC_DLL@DV?$ChTraitsCRT@D@ATL@@@@@ATL@@QAE@XZ
__unwindfunclet$?SetRealHogaData@CFloatingHogaDlg@@QAEXAAVCKBREAL_KXH1@@@Z$34:
  0007e	8d 4d e0	 lea	 ecx, DWORD PTR $T11[ebp]
  00081	ff 25 00 00 00
	00		 jmp	 DWORD PTR __imp_??1?$CStringT@DV?$StrTraitMFC_DLL@DV?$ChTraitsCRT@D@ATL@@@@@ATL@@QAE@XZ
__unwindfunclet$?SetRealHogaData@CFloatingHogaDlg@@QAEXAAVCKBREAL_KXH1@@@Z$36:
  00087	8d 4d 08	 lea	 ecx, DWORD PTR $T17[ebp]
  0008a	ff 25 00 00 00
	00		 jmp	 DWORD PTR __imp_??1?$CStringT@DV?$StrTraitMFC_DLL@DV?$ChTraitsCRT@D@ATL@@@@@ATL@@QAE@XZ
__unwindfunclet$?SetRealHogaData@CFloatingHogaDlg@@QAEXAAVCKBREAL_KXH1@@@Z$37:
  00090	8d 4d 08	 lea	 ecx, DWORD PTR $T16[ebp]
  00093	ff 25 00 00 00
	00		 jmp	 DWORD PTR __imp_??1?$CStringT@DV?$StrTraitMFC_DLL@DV?$ChTraitsCRT@D@ATL@@@@@ATL@@QAE@XZ
__unwindfunclet$?SetRealHogaData@CFloatingHogaDlg@@QAEXAAVCKBREAL_KXH1@@@Z$39:
  00099	8d 4d 08	 lea	 ecx, DWORD PTR $T15[ebp]
  0009c	ff 25 00 00 00
	00		 jmp	 DWORD PTR __imp_??1?$CStringT@DV?$StrTraitMFC_DLL@DV?$ChTraitsCRT@D@ATL@@@@@ATL@@QAE@XZ
__unwindfunclet$?SetRealHogaData@CFloatingHogaDlg@@QAEXAAVCKBREAL_KXH1@@@Z$41:
  000a2	8d 4d 08	 lea	 ecx, DWORD PTR $T14[ebp]
  000a5	ff 25 00 00 00
	00		 jmp	 DWORD PTR __imp_??1?$CStringT@DV?$StrTraitMFC_DLL@DV?$ChTraitsCRT@D@ATL@@@@@ATL@@QAE@XZ
  000ab	cc		 int	 3
  000ac	cc		 int	 3
  000ad	cc		 int	 3
  000ae	cc		 int	 3
  000af	cc		 int	 3
__ehhandler$?SetRealHogaData@CFloatingHogaDlg@@QAEXAAVCKBREAL_KXH1@@@Z:
  000b0	90		 npad	 1
  000b1	90		 npad	 1
  000b2	8b 54 24 08	 mov	 edx, DWORD PTR [esp+8]
  000b6	8d 42 0c	 lea	 eax, DWORD PTR [edx+12]
  000b9	8b 4a d8	 mov	 ecx, DWORD PTR [edx-40]
  000bc	33 c8		 xor	 ecx, eax
  000be	e8 00 00 00 00	 call	 @__security_check_cookie@4
  000c3	b8 00 00 00 00	 mov	 eax, OFFSET __ehfuncinfo$?SetRealHogaData@CFloatingHogaDlg@@QAEXAAVCKBREAL_KXH1@@@Z
  000c8	e9 00 00 00 00	 jmp	 ___CxxFrameHandler3
text$x	ENDS
?SetRealHogaData@CFloatingHogaDlg@@QAEXAAVCKBREAL_KXH1@@@Z ENDP ; CFloatingHogaDlg::SetRealHogaData
; Function compile flags: /Ogtp
; File D:\git\src\IBK\IBK_DRFN\ProjSrc\SrcDrfn\Chart\MULTICHART\FloatingHogaDlg.cpp
;	COMDAT ?RecvHogaData@CFloatingHogaDlg@@QAEXHPAD@Z
_TEXT	SEGMENT
_nLength$ = 8						; size = 4
_pData$ = 12						; size = 4
?RecvHogaData@CFloatingHogaDlg@@QAEXHPAD@Z PROC		; CFloatingHogaDlg::RecvHogaData, COMDAT
; _this$ = ecx

; 1005 : {

  00000	55		 push	 ebp
  00001	8b ec		 mov	 ebp, esp
  00003	56		 push	 esi
  00004	8b f1		 mov	 esi, ecx

; 1006 : 	int nLen = nLength;
; 1007 : 	
; 1008 : 	DisplayClear_AllHogaData();					//   

  00006	e8 00 00 00 00	 call	 ?DisplayClear_AllHogaData@CFloatingHogaDlg@@QAEXXZ ; CFloatingHogaDlg::DisplayClear_AllHogaData

; 1009 : 
; 1010 : 	if (m_bIsTenHoga == TRUE)

  0000b	83 be c0 01 00
	00 01		 cmp	 DWORD PTR [esi+448], 1
  00012	75 0f		 jne	 SHORT $LN2@RecvHogaDa

; 1011 : 	{
; 1012 : 		SetHogaData(pData, nLen);				//  m_HogaData 		

  00014	6a 00		 push	 0
  00016	ff 75 08	 push	 DWORD PTR _nLength$[ebp]
  00019	8b ce		 mov	 ecx, esi
  0001b	ff 75 0c	 push	 DWORD PTR _pData$[ebp]
  0001e	e8 00 00 00 00	 call	 ?SetHogaData@CFloatingHogaDlg@@QAEXPADHH@Z ; CFloatingHogaDlg::SetHogaData
$LN2@RecvHogaDa:
  00023	5e		 pop	 esi

; 1013 : 		
; 1014 : 		//sy, nam
; 1015 : 		//    
; 1016 : 		//if (m_nThreeStateDaebiType != e_PROFIT_PER)
; 1017 : 		//	SetDaebiOrProfit(FALSE);
; 1018 : 	}
; 1019 : /*	else
; 1020 : 	{
; 1021 : 		if (m_bUseLimitHoga == TRUE)
; 1022 : 		{
; 1023 : 			SetHogaData(pData, nLen, TRUE);			//    
; 1024 : 			MakeFullHogaGrid();
; 1025 : 		}
; 1026 : 		m_bUseLimitHoga = TRUE;
; 1027 : 
; 1028 : 		SetFullHogaDataToGrid();					//    					
; 1029 : 		SetHogaData(pData, nLen);				//  m_HogaData 
; 1030 : 		SetRsvdOdrInfoAtGrid_FullHoga();			//    
; 1031 : 
; 1032 : 		//    
; 1033 : 		if (m_nThreeStateDaebiType != e_PROFIT_PER)
; 1034 : 			SetDaebiOrProfit(FALSE);
; 1035 : 
; 1036 : 		//      -------->
; 1037 : 		SetChartPriceRow();		
; 1038 : 		if(m_bMoveChartPriceRow)
; 1039 : 		{
; 1040 : 			ResortHogaRow(m_nChartPriceRow);	//  Scroll
; 1041 : 			m_bMoveChartPriceRow = FALSE;
; 1042 : 		}
; 1043 : 		else
; 1044 : 		{
; 1045 : 			ResortHogaRow(m_nCurPriceRow);		//  Scroll
; 1046 : 		}
; 1047 : 		// <----------------------------------------
; 1048 : 	}*/
; 1049 : }	

  00024	5d		 pop	 ebp
  00025	c2 08 00	 ret	 8
?RecvHogaData@CFloatingHogaDlg@@QAEXHPAD@Z ENDP		; CFloatingHogaDlg::RecvHogaData
_TEXT	ENDS
; Function compile flags: /Ogtp
; File D:\git\src\IBK\IBK_DRFN\ProjSrc\SrcDrfn\Chart\MULTICHART\FloatingHogaDlg.cpp
;	COMDAT ?SendTrHoga@CFloatingHogaDlg@@QAEXXZ
_TEXT	SEGMENT
?SendTrHoga@CFloatingHogaDlg@@QAEXXZ PROC		; CFloatingHogaDlg::SendTrHoga, COMDAT
; _this$ = ecx

; 998  : 	HogaMemoryFree();	

  00000	e9 00 00 00 00	 jmp	 ?HogaMemoryFree@CFloatingHogaDlg@@QAEXXZ ; CFloatingHogaDlg::HogaMemoryFree
?SendTrHoga@CFloatingHogaDlg@@QAEXXZ ENDP		; CFloatingHogaDlg::SendTrHoga
_TEXT	ENDS
; Function compile flags: /Ogtp
; File D:\git\src\IBK\IBK_DRFN\ProjSrc\SrcDrfn\Chart\MULTICHART\FloatingHogaDlg.cpp
; File C:\Program Files (x86)\Microsoft Visual Studio\2019\Community\VC\Tools\MSVC\14.29.30133\atlmfc\include\afxtempl.h
; File D:\git\src\IBK\IBK_DRFN\ProjSrc\SrcDrfn\Chart\MULTICHART\FloatingHogaDlg.cpp
; File C:\Program Files (x86)\Microsoft Visual Studio\2019\Community\VC\Tools\MSVC\14.29.30133\atlmfc\include\afxtempl.h
; File D:\git\src\IBK\IBK_DRFN\ProjSrc\SrcDrfn\Chart\MULTICHART\FloatingHogaDlg.cpp
; File C:\Program Files (x86)\Microsoft Visual Studio\2019\Community\VC\Tools\MSVC\14.29.30133\atlmfc\include\afxtempl.h
; File D:\git\src\IBK\IBK_DRFN\ProjSrc\SrcDrfn\Chart\MULTICHART\FloatingHogaDlg.cpp
;	COMDAT ?HogaMemoryFree@CFloatingHogaDlg@@QAEXXZ
_TEXT	SEGMENT
?HogaMemoryFree@CFloatingHogaDlg@@QAEXXZ PROC		; CFloatingHogaDlg::HogaMemoryFree, COMDAT
; _this$ = ecx

; 1612 : {

  00000	53		 push	 ebx
  00001	56		 push	 esi
  00002	57		 push	 edi
  00003	8b f9		 mov	 edi, ecx

; 1613 : 	int i=0; 
; 1614 : 	int nCount = m_HogaData.GetSize();
; 1615 : 	CObject *pObj=NULL;
; 1616 : 	for(i=0; i<nCount; i++)

  00005	33 f6		 xor	 esi, esi
  00007	8b 9f 90 01 00
	00		 mov	 ebx, DWORD PTR [edi+400]
  0000d	85 db		 test	 ebx, ebx
  0000f	7e 25		 jle	 SHORT $LN3@HogaMemory
$LL4@HogaMemory:
; File C:\Program Files (x86)\Microsoft Visual Studio\2019\Community\VC\Tools\MSVC\14.29.30133\atlmfc\include\afxtempl.h

; 288  : 	if(nIndex >= 0 && nIndex < m_nSize)

  00011	85 f6		 test	 esi, esi
  00013	78 56		 js	 SHORT $LN9@HogaMemory
  00015	3b b7 90 01 00
	00		 cmp	 esi, DWORD PTR [edi+400]
  0001b	7d 4e		 jge	 SHORT $LN9@HogaMemory
; File D:\git\src\IBK\IBK_DRFN\ProjSrc\SrcDrfn\Chart\MULTICHART\FloatingHogaDlg.cpp

; 1619 : 		delete pObj;

  0001d	8b 87 8c 01 00
	00		 mov	 eax, DWORD PTR [edi+396]
  00023	8b 0c b0	 mov	 ecx, DWORD PTR [eax+esi*4]
  00026	85 c9		 test	 ecx, ecx
  00028	74 07		 je	 SHORT $LN2@HogaMemory
  0002a	8b 01		 mov	 eax, DWORD PTR [ecx]
  0002c	6a 01		 push	 1
  0002e	ff 50 04	 call	 DWORD PTR [eax+4]
$LN2@HogaMemory:

; 1613 : 	int i=0; 
; 1614 : 	int nCount = m_HogaData.GetSize();
; 1615 : 	CObject *pObj=NULL;
; 1616 : 	for(i=0; i<nCount; i++)

  00031	46		 inc	 esi
  00032	3b f3		 cmp	 esi, ebx
  00034	7c db		 jl	 SHORT $LL4@HogaMemory
$LN3@HogaMemory:
; File C:\Program Files (x86)\Microsoft Visual Studio\2019\Community\VC\Tools\MSVC\14.29.30133\atlmfc\include\afxtempl.h

; 381  : 		if (m_pData != NULL)

  00036	8b 87 8c 01 00
	00		 mov	 eax, DWORD PTR [edi+396]
  0003c	85 c0		 test	 eax, eax
  0003e	74 13		 je	 SHORT $LN34@HogaMemory

; 382  : 		{
; 383  : 			for( int i = 0; i < m_nSize; i++ )
; 384  : 				(m_pData + i)->~TYPE();
; 385  : 			delete[] (BYTE*)m_pData;

  00040	50		 push	 eax
  00041	e8 00 00 00 00	 call	 ??_V@YAXPAX@Z		; operator delete[]
  00046	83 c4 04	 add	 esp, 4

; 386  : 			m_pData = NULL;

  00049	c7 87 8c 01 00
	00 00 00 00 00	 mov	 DWORD PTR [edi+396], 0
$LN34@HogaMemory:

; 387  : 		}
; 388  : 		m_nSize = m_nMaxSize = 0;

  00053	c7 87 94 01 00
	00 00 00 00 00	 mov	 DWORD PTR [edi+404], 0
  0005d	c7 87 90 01 00
	00 00 00 00 00	 mov	 DWORD PTR [edi+400], 0
  00067	5f		 pop	 edi
  00068	5e		 pop	 esi
  00069	5b		 pop	 ebx
; File D:\git\src\IBK\IBK_DRFN\ProjSrc\SrcDrfn\Chart\MULTICHART\FloatingHogaDlg.cpp

; 1623 : }

  0006a	c3		 ret	 0
$LN9@HogaMemory:
; File C:\Program Files (x86)\Microsoft Visual Studio\2019\Community\VC\Tools\MSVC\14.29.30133\atlmfc\include\afxtempl.h

; 290  : 	AfxThrowInvalidArgException();

  0006b	e8 00 00 00 00	 call	 ?AfxThrowInvalidArgException@@YGXXZ ; AfxThrowInvalidArgException
$LN70@HogaMemory:
  00070	cc		 int	 3
?HogaMemoryFree@CFloatingHogaDlg@@QAEXXZ ENDP		; CFloatingHogaDlg::HogaMemoryFree
_TEXT	ENDS
; Function compile flags: /Ogtp
; File C:\Program Files (x86)\Microsoft Visual Studio\2019\Community\VC\Tools\MSVC\14.29.30133\atlmfc\include\afxtempl.h
; File C:\Program Files (x86)\Microsoft Visual Studio\2019\Community\VC\Tools\MSVC\14.29.30133\atlmfc\include\afx.inl
;	COMDAT ??_G?$CArray@PAVCHogaData@@PAV1@@@UAEPAXI@Z
_TEXT	SEGMENT
___flags$ = 8						; size = 4
??_G?$CArray@PAVCHogaData@@PAV1@@@UAEPAXI@Z PROC	; CArray<CHogaData *,CHogaData *>::`scalar deleting destructor', COMDAT
; _this$ = ecx
  00000	55		 push	 ebp
  00001	8b ec		 mov	 ebp, esp
; File C:\Program Files (x86)\Microsoft Visual Studio\2019\Community\VC\Tools\MSVC\14.29.30133\atlmfc\include\afxtempl.h

; 355  : {

  00003	56		 push	 esi
  00004	8b f1		 mov	 esi, ecx

; 356  : 	ASSERT_VALID(this);
; 357  : 
; 358  : 	if (m_pData != NULL)

  00006	8b 46 04	 mov	 eax, DWORD PTR [esi+4]
  00009	c7 06 00 00 00
	00		 mov	 DWORD PTR [esi], OFFSET ??_7?$CArray@PAVCHogaData@@PAV1@@@6B@
  0000f	85 c0		 test	 eax, eax
  00011	74 09		 je	 SHORT $LN11@scalar

; 359  : 	{
; 360  : 		for( int i = 0; i < m_nSize; i++ )
; 361  : 			(m_pData + i)->~TYPE();
; 362  : 		delete[] (BYTE*)m_pData;

  00013	50		 push	 eax
  00014	e8 00 00 00 00	 call	 ??_V@YAXPAX@Z		; operator delete[]
  00019	83 c4 04	 add	 esp, 4
$LN11@scalar:
  0001c	8b 45 08	 mov	 eax, DWORD PTR ___flags$[ebp]
  0001f	a8 01		 test	 al, 1
  00021	74 1f		 je	 SHORT $LN20@scalar
  00023	a8 04		 test	 al, 4
  00025	75 10		 jne	 SHORT $LN3@scalar
; File C:\Program Files (x86)\Microsoft Visual Studio\2019\Community\VC\Tools\MSVC\14.29.30133\atlmfc\include\afx.inl

; 112  : 	{ ::operator delete(p); }

  00027	56		 push	 esi
  00028	e8 00 00 00 00	 call	 ??3@YAXPAX@Z		; operator delete
  0002d	83 c4 04	 add	 esp, 4
  00030	8b c6		 mov	 eax, esi
  00032	5e		 pop	 esi
  00033	5d		 pop	 ebp
  00034	c2 04 00	 ret	 4
$LN3@scalar:
  00037	6a 14		 push	 20			; 00000014H
  00039	56		 push	 esi
  0003a	e8 00 00 00 00	 call	 ?__global_delete@@YAXPAXI@Z ; __global_delete
  0003f	83 c4 08	 add	 esp, 8
$LN20@scalar:
  00042	8b c6		 mov	 eax, esi
  00044	5e		 pop	 esi
  00045	5d		 pop	 ebp
  00046	c2 04 00	 ret	 4
??_G?$CArray@PAVCHogaData@@PAV1@@@UAEPAXI@Z ENDP	; CArray<CHogaData *,CHogaData *>::`scalar deleting destructor'
_TEXT	ENDS
; Function compile flags: /Ogtp
; File C:\Program Files (x86)\Microsoft Visual Studio\2019\Community\VC\Tools\MSVC\14.29.30133\atlmfc\include\afxtempl.h
; File C:\Program Files (x86)\Microsoft Visual Studio\2019\Community\VC\Tools\MSVC\14.29.30133\atlmfc\include\afx.inl
; File C:\Program Files (x86)\Microsoft Visual Studio\2019\Community\VC\Tools\MSVC\14.29.30133\atlmfc\include\afxtempl.h
; File C:\Program Files (x86)\Microsoft Visual Studio\2019\Community\VC\Tools\MSVC\14.29.30133\atlmfc\include\afx.inl
; File C:\Program Files (x86)\Microsoft Visual Studio\2019\Community\VC\Tools\MSVC\14.29.30133\atlmfc\include\afxtempl.h
; File C:\Program Files (x86)\Microsoft Visual Studio\2019\Community\VC\Tools\MSVC\14.29.30133\atlmfc\include\afx.inl
; File C:\Program Files (x86)\Microsoft Visual Studio\2019\Community\VC\Tools\MSVC\14.29.30133\atlmfc\include\afxtempl.h
; File C:\Program Files (x86)\Microsoft Visual Studio\2019\Community\VC\Tools\MSVC\14.29.30133\atlmfc\include\afx.inl
; File C:\Program Files (x86)\Microsoft Visual Studio\2019\Community\VC\Tools\MSVC\14.29.30133\atlmfc\include\afxtempl.h
;	COMDAT ?Serialize@?$CArray@PAVCHogaData@@PAV1@@@UAEXAAVCArchive@@@Z
_TEXT	SEGMENT
_pData$1$ = -4						; size = 4
_ar$ = 8						; size = 4
?Serialize@?$CArray@PAVCHogaData@@PAV1@@@UAEXAAVCArchive@@@Z PROC ; CArray<CHogaData *,CHogaData *>::Serialize, COMDAT
; _this$ = ecx

; 633  : {

  00000	55		 push	 ebp
  00001	8b ec		 mov	 ebp, esp
  00003	51		 push	 ecx
  00004	53		 push	 ebx
  00005	56		 push	 esi
  00006	57		 push	 edi
  00007	8b f9		 mov	 edi, ecx
; File C:\Program Files (x86)\Microsoft Visual Studio\2019\Community\VC\Tools\MSVC\14.29.30133\atlmfc\include\afx.inl

; 212  : 	{ return (m_nMode & CArchive::load) == 0; }

  00009	8b 4d 08	 mov	 ecx, DWORD PTR _ar$[ebp]
  0000c	8b 41 18	 mov	 eax, DWORD PTR [ecx+24]
  0000f	f7 d0		 not	 eax
  00011	a8 01		 test	 al, 1
; File C:\Program Files (x86)\Microsoft Visual Studio\2019\Community\VC\Tools\MSVC\14.29.30133\atlmfc\include\afxtempl.h

; 637  : 	if (ar.IsStoring())

  00013	74 0a		 je	 SHORT $LN2@Serialize

; 638  : 	{
; 639  : 		ar.WriteCount(m_nSize);

  00015	ff 77 08	 push	 DWORD PTR [edi+8]
  00018	e8 00 00 00 00	 call	 ?WriteCount@CArchive@@QAEXK@Z ; CArchive::WriteCount

; 640  : 	}

  0001d	eb 0f		 jmp	 SHORT $LN3@Serialize
$LN2@Serialize:

; 641  : 	else
; 642  : 	{
; 643  : 		DWORD_PTR nOldSize = ar.ReadCount();

  0001f	e8 00 00 00 00	 call	 ?ReadCount@CArchive@@QAEKXZ ; CArchive::ReadCount

; 644  : 		SetSize(nOldSize, -1);

  00024	6a ff		 push	 -1
  00026	50		 push	 eax
  00027	8b cf		 mov	 ecx, edi
  00029	e8 00 00 00 00	 call	 ?SetSize@?$CArray@PAVCHogaData@@PAV1@@@QAEXHH@Z ; CArray<CHogaData *,CHogaData *>::SetSize
$LN3@Serialize:

; 645  : 	}
; 646  : 	SerializeElements<TYPE>(ar, m_pData, m_nSize);

  0002e	8b 77 08	 mov	 esi, DWORD PTR [edi+8]
  00031	8b 4f 04	 mov	 ecx, DWORD PTR [edi+4]
  00034	89 4d fc	 mov	 DWORD PTR _pData$1$[ebp], ecx

; 68   : 	ENSURE(nCount == 0 || pElements != NULL);

  00037	85 f6		 test	 esi, esi
  00039	74 08		 je	 SHORT $LN8@Serialize
  0003b	85 c9		 test	 ecx, ecx
  0003d	0f 84 8c 00 00
	00		 je	 $LN40@Serialize
$LN8@Serialize:
; File C:\Program Files (x86)\Microsoft Visual Studio\2019\Community\VC\Tools\MSVC\14.29.30133\atlmfc\include\afx.inl

; 212  : 	{ return (m_nMode & CArchive::load) == 0; }

  00043	8b 55 08	 mov	 edx, DWORD PTR _ar$[ebp]
  00046	8b 42 18	 mov	 eax, DWORD PTR [edx+24]
  00049	f7 d0		 not	 eax
  0004b	a8 01		 test	 al, 1
; File C:\Program Files (x86)\Microsoft Visual Studio\2019\Community\VC\Tools\MSVC\14.29.30133\atlmfc\include\afxtempl.h

; 73   : 	if (ar.IsStoring())

  0004d	74 36		 je	 SHORT $LN16@Serialize

; 74   : 	{
; 75   : 		TYPE* pData;
; 76   : 		UINT_PTR nElementsLeft;
; 77   : 
; 78   : 		nElementsLeft = nCount;
; 79   : 		pData = pElements;
; 80   : 		while( nElementsLeft > 0 )

  0004f	85 f6		 test	 esi, esi
  00051	74 29		 je	 SHORT $LN14@Serialize
$LL11@Serialize:

; 81   : 		{
; 82   : 			UINT nElementsToWrite;
; 83   : 
; 84   : 			nElementsToWrite = UINT(__min(nElementsLeft, INT_MAX/sizeof(TYPE)));

  00053	bb ff ff ff 1f	 mov	 ebx, 536870911		; 1fffffffH
  00058	3b f3		 cmp	 esi, ebx
  0005a	0f 42 de	 cmovb	 ebx, esi

; 85   : 			ar.Write(pData, nElementsToWrite*sizeof(TYPE));

  0005d	8d 3c 9d 00 00
	00 00		 lea	 edi, DWORD PTR [ebx*4]
  00064	57		 push	 edi
  00065	51		 push	 ecx
  00066	8b ca		 mov	 ecx, edx
  00068	e8 00 00 00 00	 call	 ?Write@CArchive@@QAEXPBXI@Z ; CArchive::Write

; 86   : 			nElementsLeft -= nElementsToWrite;
; 87   : 			pData += nElementsToWrite;

  0006d	8b 4d fc	 mov	 ecx, DWORD PTR _pData$1$[ebp]
  00070	8b 55 08	 mov	 edx, DWORD PTR _ar$[ebp]
  00073	03 cf		 add	 ecx, edi
  00075	89 4d fc	 mov	 DWORD PTR _pData$1$[ebp], ecx
  00078	2b f3		 sub	 esi, ebx
  0007a	75 d7		 jne	 SHORT $LL11@Serialize
$LN14@Serialize:
  0007c	5f		 pop	 edi

; 647  : }

  0007d	5e		 pop	 esi
  0007e	5b		 pop	 ebx
  0007f	8b e5		 mov	 esp, ebp
  00081	5d		 pop	 ebp
  00082	c2 04 00	 ret	 4
$LN16@Serialize:

; 97   : 		while( nElementsLeft > 0 )

  00085	85 f6		 test	 esi, esi
  00087	74 f3		 je	 SHORT $LN14@Serialize
  00089	0f 1f 80 00 00
	00 00		 npad	 7
$LL13@Serialize:

; 98   : 		{
; 99   : 			UINT nElementsToRead;
; 100  : 
; 101  : 			nElementsToRead = UINT(__min(nElementsLeft, INT_MAX/sizeof(TYPE)));

  00090	bf ff ff ff 1f	 mov	 edi, 536870911		; 1fffffffH
  00095	3b f7		 cmp	 esi, edi
  00097	0f 42 fe	 cmovb	 edi, esi

; 102  : 			ar.EnsureRead(pData, nElementsToRead*sizeof(TYPE));

  0009a	8d 1c bd 00 00
	00 00		 lea	 ebx, DWORD PTR [edi*4]
; File C:\Program Files (x86)\Microsoft Visual Studio\2019\Community\VC\Tools\MSVC\14.29.30133\atlmfc\include\afx.inl

; 399  : 	UINT nRead=Read(lpBuf, nCount);

  000a1	53		 push	 ebx
  000a2	51		 push	 ecx
  000a3	8b ca		 mov	 ecx, edx
  000a5	e8 00 00 00 00	 call	 ?Read@CArchive@@QAEIPAXI@Z ; CArchive::Read

; 400  : 	if(nRead!=nCount)

  000aa	3b c3		 cmp	 eax, ebx
  000ac	75 18		 jne	 SHORT $LN30@Serialize
; File C:\Program Files (x86)\Microsoft Visual Studio\2019\Community\VC\Tools\MSVC\14.29.30133\atlmfc\include\afxtempl.h

; 97   : 		while( nElementsLeft > 0 )

  000ae	8b 4d fc	 mov	 ecx, DWORD PTR _pData$1$[ebp]
  000b1	8b 55 08	 mov	 edx, DWORD PTR _ar$[ebp]

; 103  : 			nElementsLeft -= nElementsToRead;
; 104  : 			pData += nElementsToRead;

  000b4	03 cb		 add	 ecx, ebx
  000b6	89 4d fc	 mov	 DWORD PTR _pData$1$[ebp], ecx
  000b9	2b f7		 sub	 esi, edi
  000bb	75 d3		 jne	 SHORT $LL13@Serialize

; 647  : }

  000bd	5f		 pop	 edi
  000be	5e		 pop	 esi
  000bf	5b		 pop	 ebx
  000c0	8b e5		 mov	 esp, ebp
  000c2	5d		 pop	 ebp
  000c3	c2 04 00	 ret	 4
$LN30@Serialize:
; File C:\Program Files (x86)\Microsoft Visual Studio\2019\Community\VC\Tools\MSVC\14.29.30133\atlmfc\include\afx.inl

; 402  : 		AfxThrowArchiveException(CArchiveException::endOfFile);

  000c6	6a 00		 push	 0
  000c8	6a 03		 push	 3
  000ca	e8 00 00 00 00	 call	 ?AfxThrowArchiveException@@YGXHPBD@Z ; AfxThrowArchiveException
$LN40@Serialize:
; File C:\Program Files (x86)\Microsoft Visual Studio\2019\Community\VC\Tools\MSVC\14.29.30133\atlmfc\include\afxtempl.h

; 68   : 	ENSURE(nCount == 0 || pElements != NULL);

  000cf	e8 00 00 00 00	 call	 ?AfxThrowInvalidArgException@@YGXXZ ; AfxThrowInvalidArgException
$LN38@Serialize:
  000d4	cc		 int	 3
?Serialize@?$CArray@PAVCHogaData@@PAV1@@@UAEXAAVCArchive@@@Z ENDP ; CArray<CHogaData *,CHogaData *>::Serialize
_TEXT	ENDS
; Function compile flags: /Ogtp
; File C:\Program Files (x86)\Microsoft Visual Studio\2019\Community\VC\Tools\MSVC\14.29.30133\atlmfc\include\afxtempl.h
;	COMDAT ??1?$CArray@PAVCHogaData@@PAV1@@@UAE@XZ
_TEXT	SEGMENT
??1?$CArray@PAVCHogaData@@PAV1@@@UAE@XZ PROC		; CArray<CHogaData *,CHogaData *>::~CArray<CHogaData *,CHogaData *>, COMDAT
; _this$ = ecx

; 356  : 	ASSERT_VALID(this);
; 357  : 
; 358  : 	if (m_pData != NULL)

  00000	8b 41 04	 mov	 eax, DWORD PTR [ecx+4]
  00003	c7 01 00 00 00
	00		 mov	 DWORD PTR [ecx], OFFSET ??_7?$CArray@PAVCHogaData@@PAV1@@@6B@
  00009	85 c0		 test	 eax, eax
  0000b	74 07		 je	 SHORT $LN5@CArray

; 359  : 	{
; 360  : 		for( int i = 0; i < m_nSize; i++ )
; 361  : 			(m_pData + i)->~TYPE();
; 362  : 		delete[] (BYTE*)m_pData;

  0000d	50		 push	 eax
  0000e	e8 00 00 00 00	 call	 ??_V@YAXPAX@Z		; operator delete[]
  00013	59		 pop	 ecx
$LN5@CArray:

; 363  : 	}
; 364  : }

  00014	c3		 ret	 0
??1?$CArray@PAVCHogaData@@PAV1@@@UAE@XZ ENDP		; CArray<CHogaData *,CHogaData *>::~CArray<CHogaData *,CHogaData *>
_TEXT	ENDS
; Function compile flags: /Ogtp
; File C:\Program Files (x86)\Microsoft Visual Studio\2019\Community\VC\Tools\MSVC\14.29.30133\atlmfc\include\afxtempl.h
; File C:\Program Files (x86)\Windows Kits\10\Include\10.0.22000.0\ucrt\corecrt_memcpy_s.h
; File C:\Program Files (x86)\Microsoft Visual Studio\2019\Community\VC\Tools\MSVC\14.29.30133\atlmfc\include\atlchecked.h
; File C:\Program Files (x86)\Windows Kits\10\Include\10.0.22000.0\ucrt\corecrt_memcpy_s.h
; File C:\Program Files (x86)\Microsoft Visual Studio\2019\Community\VC\Tools\MSVC\14.29.30133\atlmfc\include\atlchecked.h
; File C:\Program Files (x86)\Microsoft Visual Studio\2019\Community\VC\Tools\MSVC\14.29.30133\atlmfc\include\afxtempl.h
;	COMDAT ?InsertAt@?$CArray@PAVCHogaData@@PAV1@@@QAEXHPAVCHogaData@@H@Z
_TEXT	SEGMENT
tv323 = 8						; size = 4
_nIndex$ = 8						; size = 4
_newElement$ = 12					; size = 4
__S2$1$ = 16						; size = 4
__N$1$ = 16						; size = 4
_nCount$ = 16						; size = 4
?InsertAt@?$CArray@PAVCHogaData@@PAV1@@@QAEXHPAVCHogaData@@H@Z PROC ; CArray<CHogaData *,CHogaData *>::InsertAt, COMDAT
; _this$ = ecx

; 548  : {

  00000	55		 push	 ebp
  00001	8b ec		 mov	 ebp, esp
  00003	53		 push	 ebx
  00004	56		 push	 esi
  00005	8b 75 10	 mov	 esi, DWORD PTR _nCount$[ebp]
  00008	8b d9		 mov	 ebx, ecx
  0000a	57		 push	 edi
  0000b	8b 7d 08	 mov	 edi, DWORD PTR _nIndex$[ebp]

; 549  : 	ASSERT_VALID(this);
; 550  : 	ASSERT(nIndex >= 0);    // will expand to meet need
; 551  : 	ASSERT(nCount > 0);     // zero or negative size not allowed
; 552  : 
; 553  : 	if(nIndex < 0 || nCount <= 0)

  0000e	85 ff		 test	 edi, edi
  00010	0f 88 c0 00 00
	00		 js	 $LN11@InsertAt
  00016	85 f6		 test	 esi, esi
  00018	0f 8e b8 00 00
	00		 jle	 $LN11@InsertAt

; 555  : 
; 556  : 	if (nIndex >= m_nSize)

  0001e	8b 43 08	 mov	 eax, DWORD PTR [ebx+8]
  00021	8d 0c 3e	 lea	 ecx, DWORD PTR [esi+edi]
  00024	89 45 10	 mov	 DWORD PTR __N$1$[ebp], eax
  00027	89 4d 08	 mov	 DWORD PTR tv323[ebp], ecx
  0002a	6a ff		 push	 -1
  0002c	3b f8		 cmp	 edi, eax
  0002e	7c 0d		 jl	 SHORT $LN12@InsertAt

; 557  : 	{
; 558  : 		// adding after the end of the array
; 559  : 		SetSize(nIndex + nCount, -1);   // grow so nIndex is valid

  00030	51		 push	 ecx
  00031	8b cb		 mov	 ecx, ebx
  00033	e8 00 00 00 00	 call	 ?SetSize@?$CArray@PAVCHogaData@@PAV1@@@QAEXHH@Z ; CArray<CHogaData *,CHogaData *>::SetSize
  00038	c1 e7 02	 shl	 edi, 2

; 560  : 	}

  0003b	eb 77		 jmp	 SHORT $LN7@InsertAt
$LN12@InsertAt:

; 561  : 	else
; 562  : 	{
; 563  : 		// inserting in the middle of the array
; 564  : 		INT_PTR nOldSize = m_nSize;
; 565  : 		SetSize(m_nSize + nCount, -1);  // grow it to new size

  0003d	03 c6		 add	 eax, esi
  0003f	8b cb		 mov	 ecx, ebx
  00041	50		 push	 eax
  00042	e8 00 00 00 00	 call	 ?SetSize@?$CArray@PAVCHogaData@@PAV1@@@QAEXHH@Z ; CArray<CHogaData *,CHogaData *>::SetSize

; 566  : 		// destroy intial data before copying over it
; 567  : 		for( int i = 0; i < nCount; i++ )
; 568  : 			(m_pData + nOldSize + i)->~TYPE();
; 569  : 		// shift old data up to fill gap
; 570  : 		::ATL::Checked::memmove_s(m_pData + nIndex + nCount, (nOldSize-nIndex) * sizeof(TYPE),

  00047	8b 4d 10	 mov	 ecx, DWORD PTR __N$1$[ebp]
  0004a	8b 43 04	 mov	 eax, DWORD PTR [ebx+4]
  0004d	2b cf		 sub	 ecx, edi
  0004f	c1 e7 02	 shl	 edi, 2
  00052	c1 e1 02	 shl	 ecx, 2
  00055	8d 14 07	 lea	 edx, DWORD PTR [edi+eax]
  00058	89 55 10	 mov	 DWORD PTR __S2$1$[ebp], edx
  0005b	8b 55 08	 mov	 edx, DWORD PTR tv323[ebp]
  0005e	8d 14 90	 lea	 edx, DWORD PTR [eax+edx*4]
; File C:\Program Files (x86)\Windows Kits\10\Include\10.0.22000.0\ucrt\corecrt_memcpy_s.h

; 74   :         if (_SourceSize == 0)

  00061	85 c9		 test	 ecx, ecx
  00063	74 2f		 je	 SHORT $LN38@InsertAt

; 75   :         {
; 76   :             return 0;
; 77   :         }
; 78   : 
; 79   :         _CRT_MEMCPY_S_VALIDATE_RETURN_ERRCODE(_Destination != NULL,            EINVAL);

  00065	85 d2		 test	 edx, edx
  00067	75 19		 jne	 SHORT $LN19@InsertAt
$LN39@InsertAt:
; File C:\Program Files (x86)\Microsoft Visual Studio\2019\Community\VC\Tools\MSVC\14.29.30133\atlmfc\include\atlchecked.h

; 87   : 	ATLMFC_CRT_ERRORCHECK(::memmove_s(_S1, _S1max, _S2, _N));

  00069	ff 15 00 00 00
	00		 call	 DWORD PTR __imp___errno
  0006f	c7 00 16 00 00
	00		 mov	 DWORD PTR [eax], 22	; 00000016H
  00075	ff 15 00 00 00
	00		 call	 DWORD PTR __imp___invalid_parameter_noinfo
  0007b	b8 16 00 00 00	 mov	 eax, 22			; 00000016H
  00080	eb 14		 jmp	 SHORT $LN17@InsertAt
$LN19@InsertAt:
; File C:\Program Files (x86)\Windows Kits\10\Include\10.0.22000.0\ucrt\corecrt_memcpy_s.h

; 80   :         _CRT_MEMCPY_S_VALIDATE_RETURN_ERRCODE(_Source != NULL,                 EINVAL);

  00082	8b 45 10	 mov	 eax, DWORD PTR __S2$1$[ebp]
  00085	85 c0		 test	 eax, eax
  00087	74 e0		 je	 SHORT $LN39@InsertAt

; 81   :         _CRT_MEMCPY_S_VALIDATE_RETURN_ERRCODE(_DestinationSize >= _SourceSize, ERANGE);
; 82   : 
; 83   :         memmove(_Destination, _Source, _SourceSize);

  00089	51		 push	 ecx
  0008a	50		 push	 eax
  0008b	52		 push	 edx
  0008c	e8 00 00 00 00	 call	 _memmove
  00091	83 c4 0c	 add	 esp, 12			; 0000000cH
$LN38@InsertAt:
; File C:\Program Files (x86)\Microsoft Visual Studio\2019\Community\VC\Tools\MSVC\14.29.30133\atlmfc\include\atlchecked.h

; 87   : 	ATLMFC_CRT_ERRORCHECK(::memmove_s(_S1, _S1max, _S2, _N));

  00094	33 c0		 xor	 eax, eax
$LN17@InsertAt:
  00096	50		 push	 eax
  00097	e8 00 00 00 00	 call	 ?AfxCrtErrorCheck@@YAHH@Z ; AfxCrtErrorCheck
; File C:\Program Files (x86)\Microsoft Visual Studio\2019\Community\VC\Tools\MSVC\14.29.30133\atlmfc\include\afxtempl.h

; 574  : 		memset((void*)(m_pData + nIndex), 0, (size_t)nCount * sizeof(TYPE));

  0009c	8d 04 b5 00 00
	00 00		 lea	 eax, DWORD PTR [esi*4]
  000a3	50		 push	 eax
  000a4	8b 43 04	 mov	 eax, DWORD PTR [ebx+4]
  000a7	03 c7		 add	 eax, edi
  000a9	6a 00		 push	 0
  000ab	50		 push	 eax
  000ac	e8 00 00 00 00	 call	 _memset
  000b1	83 c4 10	 add	 esp, 16			; 00000010H
$LN7@InsertAt:
  000b4	8b 4d 0c	 mov	 ecx, DWORD PTR _newElement$[ebp]
  000b7	66 0f 1f 84 00
	00 00 00 00	 npad	 9
$LL8@InsertAt:

; 575  : 		for( int i = 0; i < nCount; i++ )
; 576  : #pragma push_macro("new")
; 577  : #undef new
; 578  : 			::new( (void*)( m_pData + nIndex + i ) ) TYPE;
; 579  : #pragma pop_macro("new")
; 580  : 	}
; 581  : 
; 582  : 	// insert new value in the gap
; 583  : 	ASSERT(nIndex + nCount <= m_nSize);
; 584  : 	while (nCount--)
; 585  : 		m_pData[nIndex++] = newElement;

  000c0	8b 43 04	 mov	 eax, DWORD PTR [ebx+4]
  000c3	8d 7f 04	 lea	 edi, DWORD PTR [edi+4]
  000c6	89 4c 07 fc	 mov	 DWORD PTR [edi+eax-4], ecx
  000ca	83 ee 01	 sub	 esi, 1
  000cd	75 f1		 jne	 SHORT $LL8@InsertAt

; 549  : 	ASSERT_VALID(this);
; 550  : 	ASSERT(nIndex >= 0);    // will expand to meet need
; 551  : 	ASSERT(nCount > 0);     // zero or negative size not allowed
; 552  : 
; 553  : 	if(nIndex < 0 || nCount <= 0)

  000cf	5f		 pop	 edi
  000d0	5e		 pop	 esi
  000d1	5b		 pop	 ebx

; 586  : }

  000d2	5d		 pop	 ebp
  000d3	c2 0c 00	 ret	 12			; 0000000cH
$LN11@InsertAt:

; 554  : 		AfxThrowInvalidArgException();

  000d6	e8 00 00 00 00	 call	 ?AfxThrowInvalidArgException@@YGXXZ ; AfxThrowInvalidArgException
$LN37@InsertAt:
  000db	cc		 int	 3
?InsertAt@?$CArray@PAVCHogaData@@PAV1@@@QAEXHPAVCHogaData@@H@Z ENDP ; CArray<CHogaData *,CHogaData *>::InsertAt
_TEXT	ENDS
; Function compile flags: /Ogtp
; File C:\Program Files (x86)\Microsoft Visual Studio\2019\Community\VC\Tools\MSVC\14.29.30133\atlmfc\include\afxtempl.h
;	COMDAT ?Add@?$CArray@PAVCHogaData@@PAV1@@@QAEHPAVCHogaData@@@Z
_TEXT	SEGMENT
_newElement$ = 8					; size = 4
?Add@?$CArray@PAVCHogaData@@PAV1@@@QAEHPAVCHogaData@@@Z PROC ; CArray<CHogaData *,CHogaData *>::Add, COMDAT
; _this$ = ecx

; 333  : 	{ INT_PTR nIndex = m_nSize;

  00000	55		 push	 ebp
  00001	8b ec		 mov	 ebp, esp
  00003	56		 push	 esi
  00004	57		 push	 edi
  00005	8b f9		 mov	 edi, ecx
  00007	8b 77 08	 mov	 esi, DWORD PTR [edi+8]

; 538  : 	if(nIndex < 0)

  0000a	85 f6		 test	 esi, esi
  0000c	78 1e		 js	 SHORT $LN10@Add

; 540  : 
; 541  : 	if (nIndex >= m_nSize)
; 542  : 		SetSize(nIndex+1, -1);

  0000e	6a ff		 push	 -1
  00010	8d 4e 01	 lea	 ecx, DWORD PTR [esi+1]
  00013	51		 push	 ecx
  00014	8b cf		 mov	 ecx, edi
  00016	e8 00 00 00 00	 call	 ?SetSize@?$CArray@PAVCHogaData@@PAV1@@@QAEXHH@Z ; CArray<CHogaData *,CHogaData *>::SetSize

; 543  : 	m_pData[nIndex] = newElement;

  0001b	8b 57 04	 mov	 edx, DWORD PTR [edi+4]

; 334  : 		SetAtGrow(nIndex, newElement);
; 335  : 		return nIndex; }

  0001e	8b c6		 mov	 eax, esi

; 543  : 	m_pData[nIndex] = newElement;

  00020	8b 4d 08	 mov	 ecx, DWORD PTR _newElement$[ebp]

; 334  : 		SetAtGrow(nIndex, newElement);
; 335  : 		return nIndex; }

  00023	5f		 pop	 edi

; 543  : 	m_pData[nIndex] = newElement;

  00024	89 0c b2	 mov	 DWORD PTR [edx+esi*4], ecx

; 334  : 		SetAtGrow(nIndex, newElement);
; 335  : 		return nIndex; }

  00027	5e		 pop	 esi
  00028	5d		 pop	 ebp
  00029	c2 04 00	 ret	 4
$LN10@Add:

; 539  : 		AfxThrowInvalidArgException();

  0002c	e8 00 00 00 00	 call	 ?AfxThrowInvalidArgException@@YGXXZ ; AfxThrowInvalidArgException
$LN8@Add:
  00031	cc		 int	 3
?Add@?$CArray@PAVCHogaData@@PAV1@@@QAEHPAVCHogaData@@@Z ENDP ; CArray<CHogaData *,CHogaData *>::Add
_TEXT	ENDS
; Function compile flags: /Ogtp
; File C:\Program Files (x86)\Microsoft Visual Studio\2019\Community\VC\Tools\MSVC\14.29.30133\atlmfc\include\afxtempl.h
;	COMDAT ?SetAtGrow@?$CArray@PAVCHogaData@@PAV1@@@QAEXHPAVCHogaData@@@Z
_TEXT	SEGMENT
_nIndex$ = 8						; size = 4
_newElement$ = 12					; size = 4
?SetAtGrow@?$CArray@PAVCHogaData@@PAV1@@@QAEXHPAVCHogaData@@@Z PROC ; CArray<CHogaData *,CHogaData *>::SetAtGrow, COMDAT
; _this$ = ecx

; 534  : {

  00000	55		 push	 ebp
  00001	8b ec		 mov	 ebp, esp
  00003	56		 push	 esi

; 535  : 	ASSERT_VALID(this);
; 536  : 	ASSERT(nIndex >= 0);
; 537  : 
; 538  : 	if(nIndex < 0)

  00004	8b 75 08	 mov	 esi, DWORD PTR _nIndex$[ebp]
  00007	57		 push	 edi
  00008	8b f9		 mov	 edi, ecx
  0000a	85 f6		 test	 esi, esi
  0000c	78 1f		 js	 SHORT $LN7@SetAtGrow

; 540  : 
; 541  : 	if (nIndex >= m_nSize)

  0000e	3b 77 08	 cmp	 esi, DWORD PTR [edi+8]
  00011	7c 0b		 jl	 SHORT $LN3@SetAtGrow

; 542  : 		SetSize(nIndex+1, -1);

  00013	6a ff		 push	 -1
  00015	8d 46 01	 lea	 eax, DWORD PTR [esi+1]
  00018	50		 push	 eax
  00019	e8 00 00 00 00	 call	 ?SetSize@?$CArray@PAVCHogaData@@PAV1@@@QAEXHH@Z ; CArray<CHogaData *,CHogaData *>::SetSize
$LN3@SetAtGrow:

; 543  : 	m_pData[nIndex] = newElement;

  0001e	8b 4f 04	 mov	 ecx, DWORD PTR [edi+4]
  00021	8b 45 0c	 mov	 eax, DWORD PTR _newElement$[ebp]
  00024	5f		 pop	 edi
  00025	89 04 b1	 mov	 DWORD PTR [ecx+esi*4], eax
  00028	5e		 pop	 esi

; 544  : }

  00029	5d		 pop	 ebp
  0002a	c2 08 00	 ret	 8
$LN7@SetAtGrow:

; 539  : 		AfxThrowInvalidArgException();

  0002d	e8 00 00 00 00	 call	 ?AfxThrowInvalidArgException@@YGXXZ ; AfxThrowInvalidArgException
$LN5@SetAtGrow:
  00032	cc		 int	 3
?SetAtGrow@?$CArray@PAVCHogaData@@PAV1@@@QAEXHPAVCHogaData@@@Z ENDP ; CArray<CHogaData *,CHogaData *>::SetAtGrow
_TEXT	ENDS
; Function compile flags: /Ogtp
; File C:\Program Files (x86)\Microsoft Visual Studio\2019\Community\VC\Tools\MSVC\14.29.30133\atlmfc\include\afxtempl.h
; File C:\Program Files (x86)\Windows Kits\10\Include\10.0.22000.0\ucrt\corecrt_memcpy_s.h
; File C:\Program Files (x86)\Microsoft Visual Studio\2019\Community\VC\Tools\MSVC\14.29.30133\atlmfc\include\atlchecked.h
; File C:\Program Files (x86)\Microsoft Visual Studio\2019\Community\VC\Tools\MSVC\14.29.30133\atlmfc\include\afxtempl.h
; File C:\Program Files (x86)\Windows Kits\10\Include\10.0.22000.0\ucrt\corecrt_memcpy_s.h
; File C:\Program Files (x86)\Microsoft Visual Studio\2019\Community\VC\Tools\MSVC\14.29.30133\atlmfc\include\atlchecked.h
; File C:\Program Files (x86)\Windows Kits\10\Include\10.0.22000.0\ucrt\corecrt_memcpy_s.h
; File C:\Program Files (x86)\Microsoft Visual Studio\2019\Community\VC\Tools\MSVC\14.29.30133\atlmfc\include\afxtempl.h
;	COMDAT ?SetSize@?$CArray@PAVCHogaData@@PAV1@@@QAEXHH@Z
_TEXT	SEGMENT
__N$1$ = -4						; size = 4
__S2$1$ = 8						; size = 4
_nNewSize$ = 8						; size = 4
_pNewData$1$ = 12					; size = 4
_nGrowBy$ = 12						; size = 4
?SetSize@?$CArray@PAVCHogaData@@PAV1@@@QAEXHH@Z PROC	; CArray<CHogaData *,CHogaData *>::SetSize, COMDAT
; _this$ = ecx

; 368  : {

  00000	55		 push	 ebp
  00001	8b ec		 mov	 ebp, esp
  00003	51		 push	 ecx
  00004	53		 push	 ebx
  00005	56		 push	 esi

; 369  : 	ASSERT_VALID(this);
; 370  : 	ASSERT(nNewSize >= 0);
; 371  : 
; 372  : 	if(nNewSize < 0 )

  00006	8b 75 08	 mov	 esi, DWORD PTR _nNewSize$[ebp]
  00009	8b d9		 mov	 ebx, ecx
  0000b	57		 push	 edi
  0000c	85 f6		 test	 esi, esi
  0000e	0f 88 c2 01 00
	00		 js	 $LN70@SetSize

; 373  : 		AfxThrowInvalidArgException();
; 374  : 
; 375  : 	if (nGrowBy >= 0)

  00014	8b 45 0c	 mov	 eax, DWORD PTR _nGrowBy$[ebp]
  00017	85 c0		 test	 eax, eax
  00019	78 03		 js	 SHORT $LN69@SetSize

; 376  : 		m_nGrowBy = nGrowBy;  // set new size

  0001b	89 43 10	 mov	 DWORD PTR [ebx+16], eax
$LN69@SetSize:

; 377  : 
; 378  : 	if (nNewSize == 0)

  0001e	8b 4b 04	 mov	 ecx, DWORD PTR [ebx+4]
  00021	85 f6		 test	 esi, esi
  00023	75 27		 jne	 SHORT $LN19@SetSize

; 379  : 	{
; 380  : 		// shrink to nothing
; 381  : 		if (m_pData != NULL)

  00025	85 c9		 test	 ecx, ecx
  00027	74 0c		 je	 SHORT $LN21@SetSize

; 382  : 		{
; 383  : 			for( int i = 0; i < m_nSize; i++ )
; 384  : 				(m_pData + i)->~TYPE();
; 385  : 			delete[] (BYTE*)m_pData;

  00029	51		 push	 ecx
  0002a	e8 00 00 00 00	 call	 ??_V@YAXPAX@Z		; operator delete[]
  0002f	83 c4 04	 add	 esp, 4

; 386  : 			m_pData = NULL;

  00032	89 73 04	 mov	 DWORD PTR [ebx+4], esi
$LN21@SetSize:

; 472  : 		m_nSize = nNewSize;
; 473  : 		m_nMaxSize = nNewMax;
; 474  : 	}
; 475  : }

  00035	5f		 pop	 edi
  00036	5e		 pop	 esi
  00037	c7 43 0c 00 00
	00 00		 mov	 DWORD PTR [ebx+12], 0
  0003e	c7 43 08 00 00
	00 00		 mov	 DWORD PTR [ebx+8], 0
  00045	5b		 pop	 ebx
  00046	8b e5		 mov	 esp, ebp
  00048	5d		 pop	 ebp
  00049	c2 08 00	 ret	 8
$LN19@SetSize:

; 387  : 		}
; 388  : 		m_nSize = m_nMaxSize = 0;
; 389  : 	}
; 390  : 	else if (m_pData == NULL)

  0004c	85 c9		 test	 ecx, ecx
  0004e	75 36		 jne	 SHORT $LN22@SetSize

; 391  : 	{
; 392  : 		// create buffer big enough to hold number of requested elements or
; 393  : 		// m_nGrowBy elements, whichever is larger.
; 394  : #ifdef SIZE_T_MAX
; 395  : 		ASSERT(nNewSize <= SIZE_T_MAX/sizeof(TYPE));    // no overflow
; 396  : #endif
; 397  : 		size_t nAllocSize = __max(nNewSize, m_nGrowBy);

  00050	8b 7b 10	 mov	 edi, DWORD PTR [ebx+16]
  00053	3b f7		 cmp	 esi, edi
  00055	0f 4f fe	 cmovg	 edi, esi

; 398  : 		m_pData = (TYPE*) new BYTE[(size_t)nAllocSize * sizeof(TYPE)];

  00058	8d 34 bd 00 00
	00 00		 lea	 esi, DWORD PTR [edi*4]
  0005f	56		 push	 esi
  00060	e8 00 00 00 00	 call	 ??_U@YAPAXI@Z		; operator new[]

; 399  : 		memset((void*)m_pData, 0, (size_t)nAllocSize * sizeof(TYPE));

  00065	56		 push	 esi
  00066	6a 00		 push	 0
  00068	50		 push	 eax
  00069	89 43 04	 mov	 DWORD PTR [ebx+4], eax
  0006c	e8 00 00 00 00	 call	 _memset

; 400  : 		for( int i = 0; i < nNewSize; i++ )
; 401  : #pragma push_macro("new")
; 402  : #undef new
; 403  : 			::new( (void*)( m_pData + i ) ) TYPE;
; 404  : #pragma pop_macro("new")
; 405  : 		m_nSize = nNewSize;

  00071	8b 45 08	 mov	 eax, DWORD PTR _nNewSize$[ebp]
  00074	83 c4 10	 add	 esp, 16			; 00000010H

; 472  : 		m_nSize = nNewSize;
; 473  : 		m_nMaxSize = nNewMax;
; 474  : 	}
; 475  : }

  00077	89 7b 0c	 mov	 DWORD PTR [ebx+12], edi
  0007a	89 43 08	 mov	 DWORD PTR [ebx+8], eax
  0007d	5f		 pop	 edi
  0007e	5e		 pop	 esi
  0007f	5b		 pop	 ebx
  00080	8b e5		 mov	 esp, ebp
  00082	5d		 pop	 ebp
  00083	c2 08 00	 ret	 8
$LN22@SetSize:

; 406  : 		m_nMaxSize = nAllocSize;
; 407  : 	}
; 408  : 	else if (nNewSize <= m_nMaxSize)

  00086	8b 7b 0c	 mov	 edi, DWORD PTR [ebx+12]
  00089	3b f7		 cmp	 esi, edi
  0008b	7f 29		 jg	 SHORT $LN24@SetSize

; 409  : 	{
; 410  : 		// it fits
; 411  : 		if (nNewSize > m_nSize)

  0008d	8b 53 08	 mov	 edx, DWORD PTR [ebx+8]
  00090	3b f2		 cmp	 esi, edx
  00092	7e 16		 jle	 SHORT $LN26@SetSize

; 412  : 		{
; 413  : 			// initialize the new elements
; 414  : 			memset((void*)(m_pData + m_nSize), 0, (size_t)(nNewSize-m_nSize) * sizeof(TYPE));

  00094	8b c6		 mov	 eax, esi
  00096	2b c2		 sub	 eax, edx
  00098	c1 e0 02	 shl	 eax, 2
  0009b	50		 push	 eax
  0009c	8d 04 91	 lea	 eax, DWORD PTR [ecx+edx*4]
  0009f	6a 00		 push	 0
  000a1	50		 push	 eax
  000a2	e8 00 00 00 00	 call	 _memset
  000a7	83 c4 0c	 add	 esp, 12			; 0000000cH
$LN26@SetSize:

; 415  : 			for( int i = 0; i < nNewSize-m_nSize; i++ )
; 416  : #pragma push_macro("new")
; 417  : #undef new
; 418  : 				::new( (void*)( m_pData + m_nSize + i ) ) TYPE;
; 419  : #pragma pop_macro("new")
; 420  : 		}
; 421  : 		else if (m_nSize > nNewSize)
; 422  : 		{
; 423  : 			// destroy the old elements
; 424  : 			for( int i = 0; i < m_nSize-nNewSize; i++ )
; 425  : 				(m_pData + nNewSize + i)->~TYPE();
; 426  : 		}
; 427  : 		m_nSize = nNewSize;

  000aa	5f		 pop	 edi
  000ab	89 73 08	 mov	 DWORD PTR [ebx+8], esi

; 472  : 		m_nSize = nNewSize;
; 473  : 		m_nMaxSize = nNewMax;
; 474  : 	}
; 475  : }

  000ae	5e		 pop	 esi
  000af	5b		 pop	 ebx
  000b0	8b e5		 mov	 esp, ebp
  000b2	5d		 pop	 ebp
  000b3	c2 08 00	 ret	 8
$LN24@SetSize:

; 428  : 	}
; 429  : 	else
; 430  : 	{
; 431  : 		// otherwise, grow array
; 432  : 		nGrowBy = m_nGrowBy;

  000b6	8b 43 10	 mov	 eax, DWORD PTR [ebx+16]

; 433  : 		if (nGrowBy == 0)

  000b9	85 c0		 test	 eax, eax
  000bb	75 22		 jne	 SHORT $LN37@SetSize

; 434  : 		{
; 435  : 			// heuristically determine growth when nGrowBy == 0
; 436  : 			//  (this avoids heap fragmentation in many situations)
; 437  : 			nGrowBy = m_nSize / 8;

  000bd	8b 43 08	 mov	 eax, DWORD PTR [ebx+8]
  000c0	99		 cdq
  000c1	83 e2 07	 and	 edx, 7
  000c4	03 c2		 add	 eax, edx
  000c6	c1 f8 03	 sar	 eax, 3

; 438  : 			nGrowBy = (nGrowBy < 4) ? 4 : ((nGrowBy > 1024) ? 1024 : nGrowBy);

  000c9	83 f8 04	 cmp	 eax, 4
  000cc	7d 07		 jge	 SHORT $LN36@SetSize
  000ce	b8 04 00 00 00	 mov	 eax, 4
  000d3	eb 0a		 jmp	 SHORT $LN37@SetSize
$LN36@SetSize:
  000d5	b9 00 04 00 00	 mov	 ecx, 1024		; 00000400H
  000da	3b c1		 cmp	 eax, ecx
  000dc	0f 4f c1	 cmovg	 eax, ecx
$LN37@SetSize:

; 439  : 		}
; 440  : 		INT_PTR nNewMax;
; 441  : 		if (nNewSize < m_nMaxSize + nGrowBy)

  000df	03 f8		 add	 edi, eax
  000e1	3b f7		 cmp	 esi, edi
  000e3	7d 0b		 jge	 SHORT $LN30@SetSize

; 445  : 
; 446  : 		ASSERT(nNewMax >= m_nMaxSize);  // no wrap around
; 447  : 
; 448  : 		if(nNewMax  < m_nMaxSize)

  000e5	3b 7b 0c	 cmp	 edi, DWORD PTR [ebx+12]
  000e8	0f 8c e8 00 00
	00		 jl	 $LN70@SetSize
  000ee	eb 02		 jmp	 SHORT $LN32@SetSize
$LN30@SetSize:

; 442  : 			nNewMax = m_nMaxSize + nGrowBy;  // granularity
; 443  : 		else
; 444  : 			nNewMax = nNewSize;  // no slush

  000f0	8b fe		 mov	 edi, esi
$LN32@SetSize:

; 450  : 
; 451  : #ifdef SIZE_T_MAX
; 452  : 		ASSERT(nNewMax <= SIZE_T_MAX/sizeof(TYPE)); // no overflow
; 453  : #endif
; 454  : 		TYPE* pNewData = (TYPE*) new BYTE[(size_t)nNewMax * sizeof(TYPE)];

  000f2	8d 04 bd 00 00
	00 00		 lea	 eax, DWORD PTR [edi*4]
  000f9	50		 push	 eax
  000fa	e8 00 00 00 00	 call	 ??_U@YAPAXI@Z		; operator new[]

; 455  : 
; 456  : 		// copy new data from old
; 457  : 		::ATL::Checked::memcpy_s(pNewData, (size_t)nNewMax * sizeof(TYPE),

  000ff	8b 53 04	 mov	 edx, DWORD PTR [ebx+4]
  00102	8b c8		 mov	 ecx, eax
  00104	8b 43 08	 mov	 eax, DWORD PTR [ebx+8]
  00107	83 c4 04	 add	 esp, 4
  0010a	c1 e0 02	 shl	 eax, 2
  0010d	89 4d 0c	 mov	 DWORD PTR _pNewData$1$[ebp], ecx
  00110	89 45 fc	 mov	 DWORD PTR __N$1$[ebp], eax
  00113	89 55 08	 mov	 DWORD PTR __S2$1$[ebp], edx
; File C:\Program Files (x86)\Windows Kits\10\Include\10.0.22000.0\ucrt\corecrt_memcpy_s.h

; 46   :         if (_SourceSize == 0)

  00116	85 c0		 test	 eax, eax
  00118	74 76		 je	 SHORT $LN74@SetSize

; 47   :         {
; 48   :             return 0;
; 49   :         }
; 50   : 
; 51   :         _CRT_MEMCPY_S_VALIDATE_RETURN_ERRCODE(_Destination != NULL, EINVAL);

  0011a	85 c9		 test	 ecx, ecx
  0011c	75 56		 jne	 SHORT $LN42@SetSize
$LN73@SetSize:
; File C:\Program Files (x86)\Microsoft Visual Studio\2019\Community\VC\Tools\MSVC\14.29.30133\atlmfc\include\atlchecked.h

; 69   : 	ATLMFC_CRT_ERRORCHECK(::memcpy_s(_S1, _S1max, _S2, _N));

  0011e	ff 15 00 00 00
	00		 call	 DWORD PTR __imp___errno
  00124	c7 00 16 00 00
	00		 mov	 DWORD PTR [eax], 22	; 00000016H
  0012a	ff 15 00 00 00
	00		 call	 DWORD PTR __imp___invalid_parameter_noinfo
$LN46@SetSize:
  00130	b8 16 00 00 00	 mov	 eax, 22			; 00000016H
$LN40@SetSize:
  00135	50		 push	 eax
  00136	e8 00 00 00 00	 call	 ?AfxCrtErrorCheck@@YAHH@Z ; AfxCrtErrorCheck
; File C:\Program Files (x86)\Microsoft Visual Studio\2019\Community\VC\Tools\MSVC\14.29.30133\atlmfc\include\afxtempl.h

; 462  : 		memset((void*)(pNewData + m_nSize), 0, (size_t)(nNewSize-m_nSize) * sizeof(TYPE));

  0013b	8b 4b 08	 mov	 ecx, DWORD PTR [ebx+8]
  0013e	8b c6		 mov	 eax, esi
  00140	2b c1		 sub	 eax, ecx
  00142	c1 e0 02	 shl	 eax, 2
  00145	50		 push	 eax
  00146	8b 45 0c	 mov	 eax, DWORD PTR _pNewData$1$[ebp]
  00149	6a 00		 push	 0
  0014b	8d 04 88	 lea	 eax, DWORD PTR [eax+ecx*4]
  0014e	50		 push	 eax
  0014f	e8 00 00 00 00	 call	 _memset

; 463  : 		for( int i = 0; i < nNewSize-m_nSize; i++ )
; 464  : #pragma push_macro("new")
; 465  : #undef new
; 466  : 			::new( (void*)( pNewData + m_nSize + i ) ) TYPE;
; 467  : #pragma pop_macro("new")
; 468  : 
; 469  : 		// get rid of old stuff (note: no destructors called)
; 470  : 		delete[] (BYTE*)m_pData;

  00154	ff 73 04	 push	 DWORD PTR [ebx+4]
  00157	e8 00 00 00 00	 call	 ??_V@YAXPAX@Z		; operator delete[]

; 471  : 		m_pData = pNewData;

  0015c	8b 45 0c	 mov	 eax, DWORD PTR _pNewData$1$[ebp]
  0015f	83 c4 14	 add	 esp, 20			; 00000014H

; 472  : 		m_nSize = nNewSize;
; 473  : 		m_nMaxSize = nNewMax;
; 474  : 	}
; 475  : }

  00162	89 7b 0c	 mov	 DWORD PTR [ebx+12], edi
  00165	89 73 08	 mov	 DWORD PTR [ebx+8], esi
  00168	89 43 04	 mov	 DWORD PTR [ebx+4], eax
  0016b	5f		 pop	 edi
  0016c	5e		 pop	 esi
  0016d	5b		 pop	 ebx
  0016e	8b e5		 mov	 esp, ebp
  00170	5d		 pop	 ebp
  00171	c2 08 00	 ret	 8
$LN42@SetSize:
; File C:\Program Files (x86)\Windows Kits\10\Include\10.0.22000.0\ucrt\corecrt_memcpy_s.h

; 52   :         if (_Source == NULL || _DestinationSize < _SourceSize)

  00174	85 d2		 test	 edx, edx
  00176	8d 14 bd 00 00
	00 00		 lea	 edx, DWORD PTR [edi*4]
  0017d	74 15		 je	 SHORT $LN44@SetSize
  0017f	3b d0		 cmp	 edx, eax
  00181	72 11		 jb	 SHORT $LN44@SetSize

; 58   : 
; 59   :             // Unreachable, but required to suppress /analyze warnings:
; 60   :             return EINVAL;
; 61   :         }
; 62   :         memcpy(_Destination, _Source, _SourceSize);

  00183	50		 push	 eax
  00184	ff 75 08	 push	 DWORD PTR __S2$1$[ebp]
  00187	51		 push	 ecx
  00188	e8 00 00 00 00	 call	 _memcpy
  0018d	83 c4 0c	 add	 esp, 12			; 0000000cH
$LN74@SetSize:
; File C:\Program Files (x86)\Microsoft Visual Studio\2019\Community\VC\Tools\MSVC\14.29.30133\atlmfc\include\atlchecked.h

; 69   : 	ATLMFC_CRT_ERRORCHECK(::memcpy_s(_S1, _S1max, _S2, _N));

  00190	33 c0		 xor	 eax, eax
  00192	eb a1		 jmp	 SHORT $LN40@SetSize
$LN44@SetSize:
; File C:\Program Files (x86)\Windows Kits\10\Include\10.0.22000.0\ucrt\corecrt_memcpy_s.h

; 54   :             memset(_Destination, 0, _DestinationSize);

  00194	52		 push	 edx
  00195	6a 00		 push	 0
  00197	51		 push	 ecx
  00198	e8 00 00 00 00	 call	 _memset
  0019d	83 c4 0c	 add	 esp, 12			; 0000000cH

; 55   : 
; 56   :             _CRT_MEMCPY_S_VALIDATE_RETURN_ERRCODE(_Source != NULL,                 EINVAL);

  001a0	83 7d 08 00	 cmp	 DWORD PTR __S2$1$[ebp], 0
  001a4	0f 84 74 ff ff
	ff		 je	 $LN73@SetSize

; 57   :             _CRT_MEMCPY_S_VALIDATE_RETURN_ERRCODE(_DestinationSize >= _SourceSize, ERANGE);

  001aa	8d 04 bd 00 00
	00 00		 lea	 eax, DWORD PTR [edi*4]
  001b1	3b 45 fc	 cmp	 eax, DWORD PTR __N$1$[ebp]
  001b4	0f 83 76 ff ff
	ff		 jae	 $LN46@SetSize
  001ba	ff 15 00 00 00
	00		 call	 DWORD PTR __imp___errno
  001c0	c7 00 22 00 00
	00		 mov	 DWORD PTR [eax], 34	; 00000022H
  001c6	ff 15 00 00 00
	00		 call	 DWORD PTR __imp___invalid_parameter_noinfo
  001cc	b8 22 00 00 00	 mov	 eax, 34			; 00000022H
  001d1	e9 5f ff ff ff	 jmp	 $LN40@SetSize
$LN70@SetSize:
; File C:\Program Files (x86)\Microsoft Visual Studio\2019\Community\VC\Tools\MSVC\14.29.30133\atlmfc\include\afxtempl.h

; 449  : 			AfxThrowInvalidArgException();

  001d6	e8 00 00 00 00	 call	 ?AfxThrowInvalidArgException@@YGXXZ ; AfxThrowInvalidArgException
$LN72@SetSize:
  001db	cc		 int	 3
?SetSize@?$CArray@PAVCHogaData@@PAV1@@@QAEXHH@Z ENDP	; CArray<CHogaData *,CHogaData *>::SetSize
_TEXT	ENDS
; Function compile flags: /Ogtp
; File C:\Program Files (x86)\Microsoft Visual Studio\2019\Community\VC\Tools\MSVC\14.29.30133\atlmfc\include\afxtempl.h
;	COMDAT ??0?$CArray@PAVCHogaData@@PAV1@@@QAE@XZ
_TEXT	SEGMENT
??0?$CArray@PAVCHogaData@@PAV1@@@QAE@XZ PROC		; CArray<CHogaData *,CHogaData *>::CArray<CHogaData *,CHogaData *>, COMDAT
; _this$ = ecx

; 348  : {

  00000	c7 01 00 00 00
	00		 mov	 DWORD PTR [ecx], OFFSET ??_7?$CArray@PAVCHogaData@@PAV1@@@6B@

; 349  : 	m_pData = NULL;
; 350  : 	m_nSize = m_nMaxSize = m_nGrowBy = 0;
; 351  : }

  00006	8b c1		 mov	 eax, ecx
  00008	c7 41 04 00 00
	00 00		 mov	 DWORD PTR [ecx+4], 0
  0000f	c7 41 10 00 00
	00 00		 mov	 DWORD PTR [ecx+16], 0
  00016	c7 41 0c 00 00
	00 00		 mov	 DWORD PTR [ecx+12], 0
  0001d	c7 41 08 00 00
	00 00		 mov	 DWORD PTR [ecx+8], 0
  00024	c3		 ret	 0
??0?$CArray@PAVCHogaData@@PAV1@@@QAE@XZ ENDP		; CArray<CHogaData *,CHogaData *>::CArray<CHogaData *,CHogaData *>
_TEXT	ENDS
; Function compile flags: /Ogtp
; File C:\Program Files (x86)\Microsoft Visual Studio\2019\Community\VC\Tools\MSVC\14.29.30133\atlmfc\include\afx.inl
;	COMDAT ??_G?$CMap@GGV?$CStringT@DV?$StrTraitMFC_DLL@DV?$ChTraitsCRT@D@ATL@@@@@ATL@@V12@@@UAEPAXI@Z
_TEXT	SEGMENT
___flags$ = 8						; size = 4
??_G?$CMap@GGV?$CStringT@DV?$StrTraitMFC_DLL@DV?$ChTraitsCRT@D@ATL@@@@@ATL@@V12@@@UAEPAXI@Z PROC ; CMap<unsigned short,unsigned short,ATL::CStringT<char,StrTraitMFC_DLL<char,ATL::ChTraitsCRT<char> > >,ATL::CStringT<char,StrTraitMFC_DLL<char,ATL::ChTraitsCRT<char> > > >::`scalar deleting destructor', COMDAT
; _this$ = ecx
  00000	55		 push	 ebp
  00001	8b ec		 mov	 ebp, esp
  00003	56		 push	 esi
  00004	8b f1		 mov	 esi, ecx
  00006	e8 00 00 00 00	 call	 ??1?$CMap@GGV?$CStringT@DV?$StrTraitMFC_DLL@DV?$ChTraitsCRT@D@ATL@@@@@ATL@@V12@@@UAE@XZ ; CMap<unsigned short,unsigned short,ATL::CStringT<char,StrTraitMFC_DLL<char,ATL::ChTraitsCRT<char> > >,ATL::CStringT<char,StrTraitMFC_DLL<char,ATL::ChTraitsCRT<char> > > >::~CMap<unsigned short,unsigned short,ATL::CStringT<char,StrTraitMFC_DLL<char,ATL::ChTraitsCRT<char> > >,ATL::CStringT<char,StrTraitMFC_DLL<char,ATL::ChTraitsCRT<char> > > >
  0000b	8b 45 08	 mov	 eax, DWORD PTR ___flags$[ebp]
  0000e	a8 01		 test	 al, 1
  00010	74 1f		 je	 SHORT $LN9@scalar
  00012	a8 04		 test	 al, 4
  00014	75 10		 jne	 SHORT $LN3@scalar

; 112  : 	{ ::operator delete(p); }

  00016	56		 push	 esi
  00017	e8 00 00 00 00	 call	 ??3@YAXPAX@Z		; operator delete
  0001c	83 c4 04	 add	 esp, 4
  0001f	8b c6		 mov	 eax, esi
  00021	5e		 pop	 esi
  00022	5d		 pop	 ebp
  00023	c2 04 00	 ret	 4
$LN3@scalar:
  00026	6a 1c		 push	 28			; 0000001cH
  00028	56		 push	 esi
  00029	e8 00 00 00 00	 call	 ?__global_delete@@YAXPAXI@Z ; __global_delete
  0002e	83 c4 08	 add	 esp, 8
$LN9@scalar:
  00031	8b c6		 mov	 eax, esi
  00033	5e		 pop	 esi
  00034	5d		 pop	 ebp
  00035	c2 04 00	 ret	 4
??_G?$CMap@GGV?$CStringT@DV?$StrTraitMFC_DLL@DV?$ChTraitsCRT@D@ATL@@@@@ATL@@V12@@@UAEPAXI@Z ENDP ; CMap<unsigned short,unsigned short,ATL::CStringT<char,StrTraitMFC_DLL<char,ATL::ChTraitsCRT<char> > >,ATL::CStringT<char,StrTraitMFC_DLL<char,ATL::ChTraitsCRT<char> > > >::`scalar deleting destructor'
_TEXT	ENDS
; Function compile flags: /Ogtp
; File C:\Program Files (x86)\Microsoft Visual Studio\2019\Community\VC\Tools\MSVC\14.29.30133\atlmfc\include\afxtempl.h
; File C:\Program Files (x86)\Microsoft Visual Studio\2019\Community\VC\Tools\MSVC\14.29.30133\atlmfc\include\afx.inl
; File C:\Program Files (x86)\Microsoft Visual Studio\2019\Community\VC\Tools\MSVC\14.29.30133\atlmfc\include\afxtempl.h
; File C:\Program Files (x86)\Microsoft Visual Studio\2019\Community\VC\Tools\MSVC\14.29.30133\atlmfc\include\afx.inl
; File C:\Program Files (x86)\Microsoft Visual Studio\2019\Community\VC\Tools\MSVC\14.29.30133\atlmfc\include\afxtempl.h
; File C:\Program Files (x86)\Microsoft Visual Studio\2019\Community\VC\Tools\MSVC\14.29.30133\atlmfc\include\afx.inl
; File C:\Program Files (x86)\Microsoft Visual Studio\2019\Community\VC\Tools\MSVC\14.29.30133\atlmfc\include\afxtempl.h
; File C:\Program Files (x86)\Microsoft Visual Studio\2019\Community\VC\Tools\MSVC\14.29.30133\atlmfc\include\afx.inl
; File C:\Program Files (x86)\Microsoft Visual Studio\2019\Community\VC\Tools\MSVC\14.29.30133\atlmfc\include\afxtempl.h
; File C:\Program Files (x86)\Microsoft Visual Studio\2019\Community\VC\Tools\MSVC\14.29.30133\atlmfc\include\afx.inl
; File C:\Program Files (x86)\Microsoft Visual Studio\2019\Community\VC\Tools\MSVC\14.29.30133\atlmfc\include\afxtempl.h
; File C:\Program Files (x86)\Microsoft Visual Studio\2019\Community\VC\Tools\MSVC\14.29.30133\atlmfc\include\afx.inl
; File C:\Program Files (x86)\Microsoft Visual Studio\2019\Community\VC\Tools\MSVC\14.29.30133\atlmfc\include\afxtempl.h
; File C:\Program Files (x86)\Microsoft Visual Studio\2019\Community\VC\Tools\MSVC\14.29.30133\atlmfc\include\afx.inl
; File C:\Program Files (x86)\Microsoft Visual Studio\2019\Community\VC\Tools\MSVC\14.29.30133\atlmfc\include\afxtempl.h
; File C:\Program Files (x86)\Microsoft Visual Studio\2019\Community\VC\Tools\MSVC\14.29.30133\atlmfc\include\afx.inl
; File C:\Program Files (x86)\Microsoft Visual Studio\2019\Community\VC\Tools\MSVC\14.29.30133\atlmfc\include\afxtempl.h
;	COMDAT ?Serialize@?$CMap@GGV?$CStringT@DV?$StrTraitMFC_DLL@DV?$ChTraitsCRT@D@ATL@@@@@ATL@@V12@@@UAEXAAVCArchive@@@Z
_TEXT	SEGMENT
_nNewCount$1$ = -36					; size = 4
_pValue$1$ = -36					; size = 4
_this$1$ = -32						; size = 4
_newKey$2 = -28						; size = 2
_pData$1$ = -24						; size = 4
_nElementsLeft$1$ = -24					; size = 4
_nHash$1$ = -24						; size = 4
_pData$1$ = -20						; size = 4
_pAssoc$1$ = -20					; size = 4
_pData$1$ = -16						; size = 4
$T3 = -16						; size = 4
__$EHRec$ = -12						; size = 12
_newValue$4 = 8						; size = 4
_ar$ = 8						; size = 4
?Serialize@?$CMap@GGV?$CStringT@DV?$StrTraitMFC_DLL@DV?$ChTraitsCRT@D@ATL@@@@@ATL@@V12@@@UAEXAAVCArchive@@@Z PROC ; CMap<unsigned short,unsigned short,ATL::CStringT<char,StrTraitMFC_DLL<char,ATL::ChTraitsCRT<char> > >,ATL::CStringT<char,StrTraitMFC_DLL<char,ATL::ChTraitsCRT<char> > > >::Serialize, COMDAT
; _this$ = ecx

; 1743 : {

  00000	55		 push	 ebp
  00001	8b ec		 mov	 ebp, esp
  00003	6a ff		 push	 -1
  00005	68 00 00 00 00	 push	 __ehhandler$?Serialize@?$CMap@GGV?$CStringT@DV?$StrTraitMFC_DLL@DV?$ChTraitsCRT@D@ATL@@@@@ATL@@V12@@@UAEXAAVCArchive@@@Z
  0000a	64 a1 00 00 00
	00		 mov	 eax, DWORD PTR fs:0
  00010	50		 push	 eax
  00011	83 ec 18	 sub	 esp, 24			; 00000018H
  00014	53		 push	 ebx
  00015	56		 push	 esi
  00016	57		 push	 edi
  00017	a1 00 00 00 00	 mov	 eax, DWORD PTR ___security_cookie
  0001c	33 c5		 xor	 eax, ebp
  0001e	50		 push	 eax
  0001f	8d 45 f4	 lea	 eax, DWORD PTR __$EHRec$[ebp]
  00022	64 a3 00 00 00
	00		 mov	 DWORD PTR fs:0, eax
  00028	8b f1		 mov	 esi, ecx
  0002a	89 75 e0	 mov	 DWORD PTR _this$1$[ebp], esi
; File C:\Program Files (x86)\Microsoft Visual Studio\2019\Community\VC\Tools\MSVC\14.29.30133\atlmfc\include\afx.inl

; 212  : 	{ return (m_nMode & CArchive::load) == 0; }

  0002d	8b 5d 08	 mov	 ebx, DWORD PTR _ar$[ebp]
; File C:\Program Files (x86)\Microsoft Visual Studio\2019\Community\VC\Tools\MSVC\14.29.30133\atlmfc\include\afxtempl.h

; 1748 : 	if (ar.IsStoring())

  00030	8b cb		 mov	 ecx, ebx
; File C:\Program Files (x86)\Microsoft Visual Studio\2019\Community\VC\Tools\MSVC\14.29.30133\atlmfc\include\afx.inl

; 212  : 	{ return (m_nMode & CArchive::load) == 0; }

  00032	8b 43 18	 mov	 eax, DWORD PTR [ebx+24]
  00035	f7 d0		 not	 eax
  00037	a8 01		 test	 al, 1
; File C:\Program Files (x86)\Microsoft Visual Studio\2019\Community\VC\Tools\MSVC\14.29.30133\atlmfc\include\afxtempl.h

; 1748 : 	if (ar.IsStoring())

  00039	0f 84 ff 00 00
	00		 je	 $LN10@Serialize

; 1749 : 	{
; 1750 : 		ar.WriteCount(m_nCount);

  0003f	ff 76 0c	 push	 DWORD PTR [esi+12]
  00042	e8 00 00 00 00	 call	 ?WriteCount@CArchive@@QAEXK@Z ; CArchive::WriteCount

; 1751 : 		if (m_nCount == 0)

  00047	83 7e 0c 00	 cmp	 DWORD PTR [esi+12], 0
  0004b	0f 84 0e 02 00
	00		 je	 $LN80@Serialize

; 1752 : 			return;  // nothing more to do
; 1753 : 
; 1754 : 		ASSERT(m_pHashTable != NULL);
; 1755 : 		if (m_pHashTable != NULL)

  00051	83 7e 04 00	 cmp	 DWORD PTR [esi+4], 0
  00055	0f 84 04 02 00
	00		 je	 $LN80@Serialize

; 1756 : 		{
; 1757 : 			for (UINT nHash = 0; nHash < m_nHashTableSize; nHash++)

  0005b	33 c9		 xor	 ecx, ecx
  0005d	89 4d e8	 mov	 DWORD PTR _nHash$1$[ebp], ecx
  00060	39 4e 08	 cmp	 DWORD PTR [esi+8], ecx
  00063	0f 86 f6 01 00
	00		 jbe	 $LN80@Serialize
  00069	0f 1f 80 00 00
	00 00		 npad	 7
$LL4@Serialize:

; 1758 : 			{
; 1759 : 				CAssoc* pAssoc;
; 1760 : 				for (pAssoc = m_pHashTable[nHash]; pAssoc != NULL; pAssoc = pAssoc->pNext)

  00070	8b 46 04	 mov	 eax, DWORD PTR [esi+4]
  00073	8b 14 88	 mov	 edx, DWORD PTR [eax+ecx*4]
  00076	89 55 ec	 mov	 DWORD PTR _pAssoc$1$[ebp], edx
  00079	85 d2		 test	 edx, edx
  0007b	0f 84 9c 00 00
	00		 je	 $LN2@Serialize
$LL7@Serialize:
; File C:\Program Files (x86)\Microsoft Visual Studio\2019\Community\VC\Tools\MSVC\14.29.30133\atlmfc\include\afx.inl

; 212  : 	{ return (m_nMode & CArchive::load) == 0; }

  00081	8b 4d 08	 mov	 ecx, DWORD PTR _ar$[ebp]
; File C:\Program Files (x86)\Microsoft Visual Studio\2019\Community\VC\Tools\MSVC\14.29.30133\atlmfc\include\afxtempl.h

; 1770 : 					pValue = reinterpret_cast< VALUE* >( &reinterpret_cast< int& >( static_cast< VALUE& >( pAssoc->value ) ) );

  00084	8d 42 04	 lea	 eax, DWORD PTR [edx+4]
  00087	89 45 dc	 mov	 DWORD PTR _pValue$1$[ebp], eax
; File C:\Program Files (x86)\Microsoft Visual Studio\2019\Community\VC\Tools\MSVC\14.29.30133\atlmfc\include\afx.inl

; 212  : 	{ return (m_nMode & CArchive::load) == 0; }

  0008a	8b 41 18	 mov	 eax, DWORD PTR [ecx+24]
  0008d	f7 d0		 not	 eax
  0008f	a8 01		 test	 al, 1
; File C:\Program Files (x86)\Microsoft Visual Studio\2019\Community\VC\Tools\MSVC\14.29.30133\atlmfc\include\afxtempl.h

; 73   : 	if (ar.IsStoring())

  00091	74 32		 je	 SHORT $LN28@Serialize

; 74   : 	{
; 75   : 		TYPE* pData;
; 76   : 		UINT_PTR nElementsLeft;
; 77   : 
; 78   : 		nElementsLeft = nCount;

  00093	bb 01 00 00 00	 mov	 ebx, 1

; 79   : 		pData = pElements;

  00098	89 55 f0	 mov	 DWORD PTR _pData$1$[ebp], edx
  0009b	8b c2		 mov	 eax, edx
  0009d	0f 1f 00	 npad	 3
$LL23@Serialize:

; 80   : 		while( nElementsLeft > 0 )
; 81   : 		{
; 82   : 			UINT nElementsToWrite;
; 83   : 
; 84   : 			nElementsToWrite = UINT(__min(nElementsLeft, INT_MAX/sizeof(TYPE)));

  000a0	bf ff ff ff 3f	 mov	 edi, 1073741823		; 3fffffffH
  000a5	3b df		 cmp	 ebx, edi
  000a7	0f 42 fb	 cmovb	 edi, ebx

; 85   : 			ar.Write(pData, nElementsToWrite*sizeof(TYPE));

  000aa	8d 34 3f	 lea	 esi, DWORD PTR [edi+edi]
  000ad	56		 push	 esi
  000ae	50		 push	 eax
  000af	e8 00 00 00 00	 call	 ?Write@CArchive@@QAEXPBXI@Z ; CArchive::Write

; 87   : 			pData += nElementsToWrite;

  000b4	8b 45 f0	 mov	 eax, DWORD PTR _pData$1$[ebp]
  000b7	8b 4d 08	 mov	 ecx, DWORD PTR _ar$[ebp]
  000ba	03 c6		 add	 eax, esi
  000bc	89 45 f0	 mov	 DWORD PTR _pData$1$[ebp], eax
  000bf	2b df		 sub	 ebx, edi
  000c1	75 dd		 jne	 SHORT $LL23@Serialize

; 88   : 		}
; 89   : 	}

  000c3	eb 33		 jmp	 SHORT $LN26@Serialize
$LN28@Serialize:

; 90   : 	else
; 91   : 	{
; 92   : 		TYPE* pData;
; 93   : 		UINT_PTR nElementsLeft;
; 94   : 
; 95   : 		nElementsLeft = nCount;

  000c5	be 01 00 00 00	 mov	 esi, 1

; 96   : 		pData = pElements;

  000ca	8b da		 mov	 ebx, edx
  000cc	0f 1f 40 00	 npad	 4
$LL25@Serialize:

; 98   : 		{
; 99   : 			UINT nElementsToRead;
; 100  : 
; 101  : 			nElementsToRead = UINT(__min(nElementsLeft, INT_MAX/sizeof(TYPE)));

  000d0	bf ff ff ff 3f	 mov	 edi, 1073741823		; 3fffffffH
  000d5	3b f7		 cmp	 esi, edi
  000d7	0f 42 fe	 cmovb	 edi, esi

; 102  : 			ar.EnsureRead(pData, nElementsToRead*sizeof(TYPE));

  000da	8d 04 3f	 lea	 eax, DWORD PTR [edi+edi]
; File C:\Program Files (x86)\Microsoft Visual Studio\2019\Community\VC\Tools\MSVC\14.29.30133\atlmfc\include\afx.inl

; 399  : 	UINT nRead=Read(lpBuf, nCount);

  000dd	50		 push	 eax
  000de	53		 push	 ebx
  000df	e8 00 00 00 00	 call	 ?Read@CArchive@@QAEIPAXI@Z ; CArchive::Read

; 400  : 	if(nRead!=nCount)

  000e4	8d 0c 3f	 lea	 ecx, DWORD PTR [edi+edi]
  000e7	3b c1		 cmp	 eax, ecx
  000e9	0f 85 84 01 00
	00		 jne	 $LN70@Serialize
; File C:\Program Files (x86)\Microsoft Visual Studio\2019\Community\VC\Tools\MSVC\14.29.30133\atlmfc\include\afxtempl.h

; 97   : 		while( nElementsLeft > 0 )

  000ef	03 d9		 add	 ebx, ecx
  000f1	8b 4d 08	 mov	 ecx, DWORD PTR _ar$[ebp]

; 103  : 			nElementsLeft -= nElementsToRead;

  000f4	2b f7		 sub	 esi, edi
  000f6	75 d8		 jne	 SHORT $LL25@Serialize
$LN26@Serialize:

; 1771 : 					SerializeElements<KEY>(ar, pKey, 1);
; 1772 : 					SerializeElements<VALUE>(ar, pValue, 1);

  000f8	8b 5d 08	 mov	 ebx, DWORD PTR _ar$[ebp]
  000fb	6a 01		 push	 1
  000fd	ff 75 dc	 push	 DWORD PTR _pValue$1$[ebp]
  00100	53		 push	 ebx
  00101	e8 00 00 00 00	 call	 ??$SerializeElements@V?$CStringT@DV?$StrTraitMFC_DLL@DV?$ChTraitsCRT@D@ATL@@@@@ATL@@@@YGXAAVCArchive@@PAV?$CStringT@DV?$StrTraitMFC_DLL@DV?$ChTraitsCRT@D@ATL@@@@@ATL@@H@Z ; SerializeElements<ATL::CStringT<char,StrTraitMFC_DLL<char,ATL::ChTraitsCRT<char> > > >
  00106	8b 55 ec	 mov	 edx, DWORD PTR _pAssoc$1$[ebp]
  00109	8b 52 08	 mov	 edx, DWORD PTR [edx+8]
  0010c	89 55 ec	 mov	 DWORD PTR _pAssoc$1$[ebp], edx
  0010f	85 d2		 test	 edx, edx
  00111	0f 85 6a ff ff
	ff		 jne	 $LL7@Serialize
  00117	8b 4d e8	 mov	 ecx, DWORD PTR _nHash$1$[ebp]
  0011a	8b 75 e0	 mov	 esi, DWORD PTR _this$1$[ebp]
$LN2@Serialize:

; 1756 : 		{
; 1757 : 			for (UINT nHash = 0; nHash < m_nHashTableSize; nHash++)

  0011d	41		 inc	 ecx
  0011e	89 4d e8	 mov	 DWORD PTR _nHash$1$[ebp], ecx
  00121	3b 4e 08	 cmp	 ecx, DWORD PTR [esi+8]
  00124	0f 82 46 ff ff
	ff		 jb	 $LL4@Serialize

; 1788 : 	}
; 1789 : }

  0012a	8b 4d f4	 mov	 ecx, DWORD PTR __$EHRec$[ebp]
  0012d	64 89 0d 00 00
	00 00		 mov	 DWORD PTR fs:0, ecx
  00134	59		 pop	 ecx
  00135	5f		 pop	 edi
  00136	5e		 pop	 esi
  00137	5b		 pop	 ebx
  00138	8b e5		 mov	 esp, ebp
  0013a	5d		 pop	 ebp
  0013b	c2 04 00	 ret	 4
$LN10@Serialize:

; 1773 : 				}
; 1774 : 			}
; 1775 : 		}
; 1776 : 	}
; 1777 : 	else
; 1778 : 	{
; 1779 : 		DWORD_PTR nNewCount = ar.ReadCount();

  0013e	e8 00 00 00 00	 call	 ?ReadCount@CArchive@@QAEKXZ ; CArchive::ReadCount

; 1780 : 		while (nNewCount--)

  00143	85 c0		 test	 eax, eax
  00145	0f 84 14 01 00
	00		 je	 $LN80@Serialize
  0014b	0f 1f 44 00 00	 npad	 5
$LL8@Serialize:

; 1783 : 			VALUE newValue[1];

  00150	ff 35 00 00 00
	00		 push	 DWORD PTR __imp_??1?$CStringT@DV?$StrTraitMFC_DLL@DV?$ChTraitsCRT@D@ATL@@@@@ATL@@QAE@XZ
  00156	48		 dec	 eax
  00157	ff 35 00 00 00
	00		 push	 DWORD PTR __imp_??0?$CStringT@DV?$StrTraitMFC_DLL@DV?$ChTraitsCRT@D@ATL@@@@@ATL@@QAE@XZ
  0015d	89 45 dc	 mov	 DWORD PTR _nNewCount$1$[ebp], eax
  00160	8d 45 08	 lea	 eax, DWORD PTR _newValue$4[ebp]
  00163	6a 01		 push	 1
  00165	6a 04		 push	 4
  00167	50		 push	 eax
  00168	e8 00 00 00 00	 call	 ??_L@YGXPAXIIP6EX0@Z1@Z
; File C:\Program Files (x86)\Microsoft Visual Studio\2019\Community\VC\Tools\MSVC\14.29.30133\atlmfc\include\afx.inl

; 212  : 	{ return (m_nMode & CArchive::load) == 0; }

  0016d	8b 43 18	 mov	 eax, DWORD PTR [ebx+24]
  00170	f7 d0		 not	 eax
; File C:\Program Files (x86)\Microsoft Visual Studio\2019\Community\VC\Tools\MSVC\14.29.30133\atlmfc\include\afxtempl.h

; 1783 : 			VALUE newValue[1];

  00172	c7 45 fc 00 00
	00 00		 mov	 DWORD PTR __$EHRec$[ebp+8], 0
; File C:\Program Files (x86)\Microsoft Visual Studio\2019\Community\VC\Tools\MSVC\14.29.30133\atlmfc\include\afx.inl

; 212  : 	{ return (m_nMode & CArchive::load) == 0; }

  00179	a8 01		 test	 al, 1
; File C:\Program Files (x86)\Microsoft Visual Studio\2019\Community\VC\Tools\MSVC\14.29.30133\atlmfc\include\afxtempl.h

; 73   : 	if (ar.IsStoring())

  0017b	74 3f		 je	 SHORT $LN49@Serialize

; 74   : 	{
; 75   : 		TYPE* pData;
; 76   : 		UINT_PTR nElementsLeft;
; 77   : 
; 78   : 		nElementsLeft = nCount;

  0017d	b8 01 00 00 00	 mov	 eax, 1

; 79   : 		pData = pElements;

  00182	8d 4d e4	 lea	 ecx, DWORD PTR _newKey$2[ebp]
  00185	89 45 e8	 mov	 DWORD PTR _nElementsLeft$1$[ebp], eax
  00188	89 4d ec	 mov	 DWORD PTR _pData$1$[ebp], ecx
  0018b	0f 1f 44 00 00	 npad	 5
$LL44@Serialize:

; 80   : 		while( nElementsLeft > 0 )
; 81   : 		{
; 82   : 			UINT nElementsToWrite;
; 83   : 
; 84   : 			nElementsToWrite = UINT(__min(nElementsLeft, INT_MAX/sizeof(TYPE)));

  00190	bf ff ff ff 3f	 mov	 edi, 1073741823		; 3fffffffH
  00195	3b c7		 cmp	 eax, edi
  00197	0f 42 f8	 cmovb	 edi, eax

; 85   : 			ar.Write(pData, nElementsToWrite*sizeof(TYPE));

  0019a	8d 34 3f	 lea	 esi, DWORD PTR [edi+edi]
  0019d	56		 push	 esi
  0019e	51		 push	 ecx
  0019f	8b cb		 mov	 ecx, ebx
  001a1	e8 00 00 00 00	 call	 ?Write@CArchive@@QAEXPBXI@Z ; CArchive::Write

; 86   : 			nElementsLeft -= nElementsToWrite;

  001a6	8b 45 e8	 mov	 eax, DWORD PTR _nElementsLeft$1$[ebp]

; 87   : 			pData += nElementsToWrite;

  001a9	8b 4d ec	 mov	 ecx, DWORD PTR _pData$1$[ebp]
  001ac	2b c7		 sub	 eax, edi
  001ae	03 ce		 add	 ecx, esi
  001b0	89 45 e8	 mov	 DWORD PTR _nElementsLeft$1$[ebp], eax
  001b3	89 4d ec	 mov	 DWORD PTR _pData$1$[ebp], ecx
  001b6	85 c0		 test	 eax, eax
  001b8	75 d6		 jne	 SHORT $LL44@Serialize

; 88   : 		}
; 89   : 	}

  001ba	eb 41		 jmp	 SHORT $LN47@Serialize
$LN49@Serialize:

; 96   : 		pData = pElements;

  001bc	8d 45 e4	 lea	 eax, DWORD PTR _newKey$2[ebp]
  001bf	be 01 00 00 00	 mov	 esi, 1
  001c4	89 45 e8	 mov	 DWORD PTR _pData$1$[ebp], eax
  001c7	66 0f 1f 84 00
	00 00 00 00	 npad	 9
$LL46@Serialize:

; 98   : 		{
; 99   : 			UINT nElementsToRead;
; 100  : 
; 101  : 			nElementsToRead = UINT(__min(nElementsLeft, INT_MAX/sizeof(TYPE)));

  001d0	bf ff ff ff 3f	 mov	 edi, 1073741823		; 3fffffffH
  001d5	3b f7		 cmp	 esi, edi
  001d7	0f 42 fe	 cmovb	 edi, esi

; 102  : 			ar.EnsureRead(pData, nElementsToRead*sizeof(TYPE));

  001da	8d 0c 3f	 lea	 ecx, DWORD PTR [edi+edi]
; File C:\Program Files (x86)\Microsoft Visual Studio\2019\Community\VC\Tools\MSVC\14.29.30133\atlmfc\include\afx.inl

; 399  : 	UINT nRead=Read(lpBuf, nCount);

  001dd	51		 push	 ecx
  001de	50		 push	 eax
  001df	8b cb		 mov	 ecx, ebx
  001e1	e8 00 00 00 00	 call	 ?Read@CArchive@@QAEIPAXI@Z ; CArchive::Read

; 400  : 	if(nRead!=nCount)

  001e6	8d 0c 3f	 lea	 ecx, DWORD PTR [edi+edi]
  001e9	3b c1		 cmp	 eax, ecx
  001eb	0f 85 82 00 00
	00		 jne	 $LN70@Serialize
; File C:\Program Files (x86)\Microsoft Visual Studio\2019\Community\VC\Tools\MSVC\14.29.30133\atlmfc\include\afxtempl.h

; 104  : 			pData += nElementsToRead;

  001f1	8b 45 e8	 mov	 eax, DWORD PTR _pData$1$[ebp]
  001f4	03 c1		 add	 eax, ecx
  001f6	89 45 e8	 mov	 DWORD PTR _pData$1$[ebp], eax
  001f9	2b f7		 sub	 esi, edi
  001fb	75 d3		 jne	 SHORT $LL46@Serialize
$LN47@Serialize:

; 1784 : 			SerializeElements<KEY>(ar, newKey, 1);
; 1785 : 			SerializeElements<VALUE>(ar, newValue, 1);

  001fd	6a 01		 push	 1
  001ff	8d 45 08	 lea	 eax, DWORD PTR _newValue$4[ebp]
  00202	50		 push	 eax
  00203	53		 push	 ebx
  00204	e8 00 00 00 00	 call	 ??$SerializeElements@V?$CStringT@DV?$StrTraitMFC_DLL@DV?$ChTraitsCRT@D@ATL@@@@@ATL@@@@YGXAAVCArchive@@PAV?$CStringT@DV?$StrTraitMFC_DLL@DV?$ChTraitsCRT@D@ATL@@@@@ATL@@H@Z ; SerializeElements<ATL::CStringT<char,StrTraitMFC_DLL<char,ATL::ChTraitsCRT<char> > > >

; 1786 : 			SetAt(newKey[0], newValue[0]);

  00209	8d 45 08	 lea	 eax, DWORD PTR _newValue$4[ebp]
  0020c	50		 push	 eax
  0020d	8d 4d f0	 lea	 ecx, DWORD PTR $T3[ebp]
  00210	ff 15 00 00 00
	00		 call	 DWORD PTR __imp_??0?$CStringT@DV?$StrTraitMFC_DLL@DV?$ChTraitsCRT@D@ATL@@@@@ATL@@QAE@ABV01@@Z

; 1350 : 	{ (*this)[key] = newValue; }

  00216	8b 4d e0	 mov	 ecx, DWORD PTR _this$1$[ebp]
  00219	8d 45 f0	 lea	 eax, DWORD PTR $T3[ebp]
  0021c	50		 push	 eax
  0021d	ff 75 e4	 push	 DWORD PTR _newKey$2[ebp]
  00220	c6 45 fc 01	 mov	 BYTE PTR __$EHRec$[ebp+8], 1
  00224	e8 00 00 00 00	 call	 ??A?$CMap@GGV?$CStringT@DV?$StrTraitMFC_DLL@DV?$ChTraitsCRT@D@ATL@@@@@ATL@@V12@@@QAEAAV?$CStringT@DV?$StrTraitMFC_DLL@DV?$ChTraitsCRT@D@ATL@@@@@ATL@@G@Z ; CMap<unsigned short,unsigned short,ATL::CStringT<char,StrTraitMFC_DLL<char,ATL::ChTraitsCRT<char> > >,ATL::CStringT<char,StrTraitMFC_DLL<char,ATL::ChTraitsCRT<char> > > >::operator[]
  00229	8b c8		 mov	 ecx, eax
  0022b	ff 15 00 00 00
	00		 call	 DWORD PTR __imp_??4?$CStringT@DV?$StrTraitMFC_DLL@DV?$ChTraitsCRT@D@ATL@@@@@ATL@@QAEAAV01@ABV01@@Z
  00231	8d 4d f0	 lea	 ecx, DWORD PTR $T3[ebp]
  00234	ff 15 00 00 00
	00		 call	 DWORD PTR __imp_??1?$CStringT@DV?$StrTraitMFC_DLL@DV?$ChTraitsCRT@D@ATL@@@@@ATL@@QAE@XZ

; 1787 : 		}

  0023a	ff 35 00 00 00
	00		 push	 DWORD PTR __imp_??1?$CStringT@DV?$StrTraitMFC_DLL@DV?$ChTraitsCRT@D@ATL@@@@@ATL@@QAE@XZ
  00240	8d 45 08	 lea	 eax, DWORD PTR _newValue$4[ebp]
  00243	c7 45 fc ff ff
	ff ff		 mov	 DWORD PTR __$EHRec$[ebp+8], -1
  0024a	6a 01		 push	 1
  0024c	6a 04		 push	 4
  0024e	50		 push	 eax
  0024f	e8 00 00 00 00	 call	 ??_M@YGXPAXIIP6EX0@Z@Z
  00254	8b 45 dc	 mov	 eax, DWORD PTR _nNewCount$1$[ebp]
  00257	85 c0		 test	 eax, eax
  00259	0f 85 f1 fe ff
	ff		 jne	 $LL8@Serialize
$LN80@Serialize:

; 1788 : 	}
; 1789 : }

  0025f	8b 4d f4	 mov	 ecx, DWORD PTR __$EHRec$[ebp]
  00262	64 89 0d 00 00
	00 00		 mov	 DWORD PTR fs:0, ecx
  00269	59		 pop	 ecx
  0026a	5f		 pop	 edi
  0026b	5e		 pop	 esi
  0026c	5b		 pop	 ebx
  0026d	8b e5		 mov	 esp, ebp
  0026f	5d		 pop	 ebp
  00270	c2 04 00	 ret	 4
$LN70@Serialize:
  00273	6a 00		 push	 0
  00275	6a 03		 push	 3
  00277	e8 00 00 00 00	 call	 ?AfxThrowArchiveException@@YGXHPBD@Z ; AfxThrowArchiveException
$LN100@Serialize:
  0027c	cc		 int	 3
_TEXT	ENDS
;	COMDAT text$x
text$x	SEGMENT
__unwindfunclet$?Serialize@?$CMap@GGV?$CStringT@DV?$StrTraitMFC_DLL@DV?$ChTraitsCRT@D@ATL@@@@@ATL@@V12@@@UAEXAAVCArchive@@@Z$0:
  00000	a1 00 00 00 00	 mov	 eax, DWORD PTR __imp_??1?$CStringT@DV?$StrTraitMFC_DLL@DV?$ChTraitsCRT@D@ATL@@@@@ATL@@QAE@XZ
  00005	50		 push	 eax
  00006	6a 01		 push	 1
  00008	6a 04		 push	 4
  0000a	8d 45 08	 lea	 eax, DWORD PTR _newValue$4[ebp]
  0000d	50		 push	 eax
  0000e	e8 00 00 00 00	 call	 ??_M@YGXPAXIIP6EX0@Z@Z
  00013	c3		 ret	 0
__unwindfunclet$?Serialize@?$CMap@GGV?$CStringT@DV?$StrTraitMFC_DLL@DV?$ChTraitsCRT@D@ATL@@@@@ATL@@V12@@@UAEXAAVCArchive@@@Z$2:
  00014	8d 4d f0	 lea	 ecx, DWORD PTR $T3[ebp]
  00017	ff 25 00 00 00
	00		 jmp	 DWORD PTR __imp_??1?$CStringT@DV?$StrTraitMFC_DLL@DV?$ChTraitsCRT@D@ATL@@@@@ATL@@QAE@XZ
  0001d	cc		 int	 3
  0001e	cc		 int	 3
  0001f	cc		 int	 3
  00020	cc		 int	 3
  00021	cc		 int	 3
__ehhandler$?Serialize@?$CMap@GGV?$CStringT@DV?$StrTraitMFC_DLL@DV?$ChTraitsCRT@D@ATL@@@@@ATL@@V12@@@UAEXAAVCArchive@@@Z:
  00022	90		 npad	 1
  00023	90		 npad	 1
  00024	8b 54 24 08	 mov	 edx, DWORD PTR [esp+8]
  00028	8d 42 0c	 lea	 eax, DWORD PTR [edx+12]
  0002b	8b 4a d8	 mov	 ecx, DWORD PTR [edx-40]
  0002e	33 c8		 xor	 ecx, eax
  00030	e8 00 00 00 00	 call	 @__security_check_cookie@4
  00035	b8 00 00 00 00	 mov	 eax, OFFSET __ehfuncinfo$?Serialize@?$CMap@GGV?$CStringT@DV?$StrTraitMFC_DLL@DV?$ChTraitsCRT@D@ATL@@@@@ATL@@V12@@@UAEXAAVCArchive@@@Z
  0003a	e9 00 00 00 00	 jmp	 ___CxxFrameHandler3
text$x	ENDS
?Serialize@?$CMap@GGV?$CStringT@DV?$StrTraitMFC_DLL@DV?$ChTraitsCRT@D@ATL@@@@@ATL@@V12@@@UAEXAAVCArchive@@@Z ENDP ; CMap<unsigned short,unsigned short,ATL::CStringT<char,StrTraitMFC_DLL<char,ATL::ChTraitsCRT<char> > >,ATL::CStringT<char,StrTraitMFC_DLL<char,ATL::ChTraitsCRT<char> > > >::Serialize
; Function compile flags: /Ogtp
; File C:\Program Files (x86)\Microsoft Visual Studio\2019\Community\VC\Tools\MSVC\14.29.30133\atlmfc\include\afxtempl.h
;	COMDAT ??1?$CMap@GGV?$CStringT@DV?$StrTraitMFC_DLL@DV?$ChTraitsCRT@D@ATL@@@@@ATL@@V12@@@UAE@XZ
_TEXT	SEGMENT
__$EHRec$ = -12						; size = 12
??1?$CMap@GGV?$CStringT@DV?$StrTraitMFC_DLL@DV?$ChTraitsCRT@D@ATL@@@@@ATL@@V12@@@UAE@XZ PROC ; CMap<unsigned short,unsigned short,ATL::CStringT<char,StrTraitMFC_DLL<char,ATL::ChTraitsCRT<char> > >,ATL::CStringT<char,StrTraitMFC_DLL<char,ATL::ChTraitsCRT<char> > > >::~CMap<unsigned short,unsigned short,ATL::CStringT<char,StrTraitMFC_DLL<char,ATL::ChTraitsCRT<char> > >,ATL::CStringT<char,StrTraitMFC_DLL<char,ATL::ChTraitsCRT<char> > > >, COMDAT
; _this$ = ecx

; 1472 : {

  00000	55		 push	 ebp
  00001	8b ec		 mov	 ebp, esp
  00003	6a ff		 push	 -1
  00005	68 00 00 00 00	 push	 __ehhandler$??1?$CMap@GGV?$CStringT@DV?$StrTraitMFC_DLL@DV?$ChTraitsCRT@D@ATL@@@@@ATL@@V12@@@UAE@XZ
  0000a	64 a1 00 00 00
	00		 mov	 eax, DWORD PTR fs:0
  00010	50		 push	 eax
  00011	53		 push	 ebx
  00012	56		 push	 esi
  00013	57		 push	 edi
  00014	a1 00 00 00 00	 mov	 eax, DWORD PTR ___security_cookie
  00019	33 c5		 xor	 eax, ebp
  0001b	50		 push	 eax
  0001c	8d 45 f4	 lea	 eax, DWORD PTR __$EHRec$[ebp]
  0001f	64 a3 00 00 00
	00		 mov	 DWORD PTR fs:0, eax
  00025	8b f9		 mov	 edi, ecx

; 1446 : 	if (m_pHashTable != NULL)

  00027	8b 47 04	 mov	 eax, DWORD PTR [edi+4]

; 1472 : {

  0002a	c7 07 00 00 00
	00		 mov	 DWORD PTR [edi], OFFSET ??_7?$CMap@GGV?$CStringT@DV?$StrTraitMFC_DLL@DV?$ChTraitsCRT@D@ATL@@@@@ATL@@V12@@@6B@

; 1446 : 	if (m_pHashTable != NULL)

  00030	85 c0		 test	 eax, eax
  00032	74 49		 je	 SHORT $LN10@CMap

; 1447 : 	{
; 1448 : 		// destroy elements (values and keys)
; 1449 : 		for (UINT nHash = 0; nHash < m_nHashTableSize; nHash++)

  00034	33 db		 xor	 ebx, ebx
  00036	39 5f 08	 cmp	 DWORD PTR [edi+8], ebx
  00039	76 32		 jbe	 SHORT $LN5@CMap
  0003b	0f 1f 44 00 00	 npad	 5
$LL6@CMap:

; 1450 : 		{
; 1451 : 			CAssoc* pAssoc;
; 1452 : 			for (pAssoc = m_pHashTable[nHash]; pAssoc != NULL;

  00040	8b 34 98	 mov	 esi, DWORD PTR [eax+ebx*4]
  00043	8b c8		 mov	 ecx, eax
  00045	85 f6		 test	 esi, esi
  00047	74 1c		 je	 SHORT $LN4@CMap
  00049	0f 1f 80 00 00
	00 00		 npad	 7
$LL9@CMap:
  00050	8d 4e 04	 lea	 ecx, DWORD PTR [esi+4]
  00053	ff 15 00 00 00
	00		 call	 DWORD PTR __imp_??1?$CStringT@DV?$StrTraitMFC_DLL@DV?$ChTraitsCRT@D@ATL@@@@@ATL@@QAE@XZ

; 1453 : 			  pAssoc = pAssoc->pNext)

  00059	8b 76 08	 mov	 esi, DWORD PTR [esi+8]
  0005c	85 f6		 test	 esi, esi
  0005e	75 f0		 jne	 SHORT $LL9@CMap
  00060	8b 47 04	 mov	 eax, DWORD PTR [edi+4]
  00063	8b c8		 mov	 ecx, eax
$LN4@CMap:

; 1447 : 	{
; 1448 : 		// destroy elements (values and keys)
; 1449 : 		for (UINT nHash = 0; nHash < m_nHashTableSize; nHash++)

  00065	43		 inc	 ebx
  00066	3b 5f 08	 cmp	 ebx, DWORD PTR [edi+8]
  00069	72 d5		 jb	 SHORT $LL6@CMap
  0006b	8b c1		 mov	 eax, ecx
$LN5@CMap:

; 1454 : 			{
; 1455 : 				pAssoc->CAssoc::~CAssoc();
; 1456 : 			}
; 1457 : 		}
; 1458 : 
; 1459 : 		// free hash table
; 1460 : 		delete[] m_pHashTable;

  0006d	50		 push	 eax
  0006e	e8 00 00 00 00	 call	 ??_V@YAXPAX@Z		; operator delete[]
  00073	83 c4 04	 add	 esp, 4

; 1461 : 		m_pHashTable = NULL;

  00076	c7 47 04 00 00
	00 00		 mov	 DWORD PTR [edi+4], 0
$LN10@CMap:

; 1462 : 	}
; 1463 : 
; 1464 : 	m_nCount = 0;
; 1465 : 	m_pFreeList = NULL;
; 1466 : 	m_pBlocks->FreeDataChain();

  0007d	8b 4f 14	 mov	 ecx, DWORD PTR [edi+20]
  00080	c7 47 0c 00 00
	00 00		 mov	 DWORD PTR [edi+12], 0
  00087	c7 47 10 00 00
	00 00		 mov	 DWORD PTR [edi+16], 0
  0008e	e8 00 00 00 00	 call	 ?FreeDataChain@CPlex@@QAEXXZ ; CPlex::FreeDataChain

; 1467 : 	m_pBlocks = NULL;

  00093	c7 47 14 00 00
	00 00		 mov	 DWORD PTR [edi+20], 0

; 1473 : 	RemoveAll();
; 1474 : 	ASSERT(m_nCount == 0);
; 1475 : }

  0009a	8b 4d f4	 mov	 ecx, DWORD PTR __$EHRec$[ebp]
  0009d	64 89 0d 00 00
	00 00		 mov	 DWORD PTR fs:0, ecx
  000a4	59		 pop	 ecx
  000a5	5f		 pop	 edi
  000a6	5e		 pop	 esi
  000a7	5b		 pop	 ebx
  000a8	8b e5		 mov	 esp, ebp
  000aa	5d		 pop	 ebp
  000ab	c3		 ret	 0
  000ac	cc		 int	 3
  000ad	cc		 int	 3
  000ae	cc		 int	 3
  000af	cc		 int	 3
  000b0	cc		 int	 3
_TEXT	ENDS
;	COMDAT text$x
text$x	SEGMENT
__ehhandler$??1?$CMap@GGV?$CStringT@DV?$StrTraitMFC_DLL@DV?$ChTraitsCRT@D@ATL@@@@@ATL@@V12@@@UAE@XZ:
  00000	90		 npad	 1
  00001	90		 npad	 1
  00002	8b 54 24 08	 mov	 edx, DWORD PTR [esp+8]
  00006	8d 42 0c	 lea	 eax, DWORD PTR [edx+12]
  00009	8b 4a f0	 mov	 ecx, DWORD PTR [edx-16]
  0000c	33 c8		 xor	 ecx, eax
  0000e	e8 00 00 00 00	 call	 @__security_check_cookie@4
  00013	b8 00 00 00 00	 mov	 eax, OFFSET __ehfuncinfo$??1?$CMap@GGV?$CStringT@DV?$StrTraitMFC_DLL@DV?$ChTraitsCRT@D@ATL@@@@@ATL@@V12@@@UAE@XZ
  00018	e9 00 00 00 00	 jmp	 ___CxxFrameHandler3
text$x	ENDS
??1?$CMap@GGV?$CStringT@DV?$StrTraitMFC_DLL@DV?$ChTraitsCRT@D@ATL@@@@@ATL@@V12@@@UAE@XZ ENDP ; CMap<unsigned short,unsigned short,ATL::CStringT<char,StrTraitMFC_DLL<char,ATL::ChTraitsCRT<char> > >,ATL::CStringT<char,StrTraitMFC_DLL<char,ATL::ChTraitsCRT<char> > > >::~CMap<unsigned short,unsigned short,ATL::CStringT<char,StrTraitMFC_DLL<char,ATL::ChTraitsCRT<char> > >,ATL::CStringT<char,StrTraitMFC_DLL<char,ATL::ChTraitsCRT<char> > > >
; Function compile flags: /Ogtp
; File C:\Program Files (x86)\Microsoft Visual Studio\2019\Community\VC\Tools\MSVC\14.29.30133\atlmfc\include\afxtempl.h
;	COMDAT ?GetAssocAt@?$CMap@GGV?$CStringT@DV?$StrTraitMFC_DLL@DV?$ChTraitsCRT@D@ATL@@@@@ATL@@V12@@@IBEPAVCAssoc@1@GAAI0@Z
_TEXT	SEGMENT
_key$ = 8						; size = 2
_nHashBucket$ = 12					; size = 4
_nHashValue$ = 16					; size = 4
?GetAssocAt@?$CMap@GGV?$CStringT@DV?$StrTraitMFC_DLL@DV?$ChTraitsCRT@D@ATL@@@@@ATL@@V12@@@IBEPAVCAssoc@1@GAAI0@Z PROC ; CMap<unsigned short,unsigned short,ATL::CStringT<char,StrTraitMFC_DLL<char,ATL::ChTraitsCRT<char> > >,ATL::CStringT<char,StrTraitMFC_DLL<char,ATL::ChTraitsCRT<char> > > >::GetAssocAt, COMDAT
; _this$ = ecx

; 1532 : {

  00000	55		 push	 ebp
  00001	8b ec		 mov	 ebp, esp

; 165  : 	ldiv_t HashVal = ldiv((long)(ARG_KEY)key, 127773);

  00003	33 d2		 xor	 edx, edx

; 1532 : {

  00005	56		 push	 esi

; 165  : 	ldiv_t HashVal = ldiv((long)(ARG_KEY)key, 127773);

  00006	66 8b 75 08	 mov	 si, WORD PTR _key$[ebp]

; 1532 : {

  0000a	57		 push	 edi

; 165  : 	ldiv_t HashVal = ldiv((long)(ARG_KEY)key, 127773);

  0000b	bf 1d f3 01 00	 mov	 edi, 127773		; 0001f31dH
  00010	0f b7 c6	 movzx	 eax, si
  00013	f7 f7		 div	 edi

; 1533 : 	nHashValue = HashKey<ARG_KEY>(key);

  00015	8b 7d 10	 mov	 edi, DWORD PTR _nHashValue$[ebp]

; 165  : 	ldiv_t HashVal = ldiv((long)(ARG_KEY)key, 127773);

  00018	69 d2 a7 41 00
	00		 imul	 edx, edx, 16807

; 1533 : 	nHashValue = HashKey<ARG_KEY>(key);

  0001e	85 d2		 test	 edx, edx
  00020	8d 82 ff ff ff
	7f		 lea	 eax, DWORD PTR [edx+2147483647]
  00026	0f 49 c2	 cmovns	 eax, edx

; 1534 : 	nHashBucket = nHashValue % m_nHashTableSize;

  00029	33 d2		 xor	 edx, edx
  0002b	89 07		 mov	 DWORD PTR [edi], eax
  0002d	f7 71 08	 div	 DWORD PTR [ecx+8]
  00030	8b 45 0c	 mov	 eax, DWORD PTR _nHashBucket$[ebp]
  00033	89 10		 mov	 DWORD PTR [eax], edx

; 1535 : 
; 1536 : 	if (m_pHashTable == NULL)

  00035	8b 41 04	 mov	 eax, DWORD PTR [ecx+4]
  00038	85 c0		 test	 eax, eax
  0003a	74 1a		 je	 SHORT $LN26@GetAssocAt

; 1537 : 		return NULL;
; 1538 : 
; 1539 : 	// see if it exists
; 1540 : 	CAssoc* pAssoc;
; 1541 : 	for (pAssoc = m_pHashTable[nHashBucket]; pAssoc != NULL; pAssoc = pAssoc->pNext)

  0003c	8b 04 90	 mov	 eax, DWORD PTR [eax+edx*4]
  0003f	85 c0		 test	 eax, eax
  00041	74 13		 je	 SHORT $LN26@GetAssocAt

; 1542 : 	{
; 1543 : 		if (pAssoc->nHashValue == nHashValue && CompareElements(&pAssoc->key, &key))

  00043	8b 0f		 mov	 ecx, DWORD PTR [edi]
$LL4@GetAssocAt:
  00045	39 48 0c	 cmp	 DWORD PTR [eax+12], ecx
  00048	75 05		 jne	 SHORT $LN2@GetAssocAt

; 156  : 	return *pElement1 == *pElement2;

  0004a	66 39 30	 cmp	 WORD PTR [eax], si

; 1542 : 	{
; 1543 : 		if (pAssoc->nHashValue == nHashValue && CompareElements(&pAssoc->key, &key))

  0004d	74 09		 je	 SHORT $LN1@GetAssocAt
$LN2@GetAssocAt:

; 1537 : 		return NULL;
; 1538 : 
; 1539 : 	// see if it exists
; 1540 : 	CAssoc* pAssoc;
; 1541 : 	for (pAssoc = m_pHashTable[nHashBucket]; pAssoc != NULL; pAssoc = pAssoc->pNext)

  0004f	8b 40 08	 mov	 eax, DWORD PTR [eax+8]
  00052	85 c0		 test	 eax, eax
  00054	75 ef		 jne	 SHORT $LL4@GetAssocAt
$LN26@GetAssocAt:

; 1544 : 			return pAssoc;
; 1545 : 	}
; 1546 : 	return NULL;

  00056	33 c0		 xor	 eax, eax
$LN1@GetAssocAt:
  00058	5f		 pop	 edi

; 1547 : }

  00059	5e		 pop	 esi
  0005a	5d		 pop	 ebp
  0005b	c2 0c 00	 ret	 12			; 0000000cH
?GetAssocAt@?$CMap@GGV?$CStringT@DV?$StrTraitMFC_DLL@DV?$ChTraitsCRT@D@ATL@@@@@ATL@@V12@@@IBEPAVCAssoc@1@GAAI0@Z ENDP ; CMap<unsigned short,unsigned short,ATL::CStringT<char,StrTraitMFC_DLL<char,ATL::ChTraitsCRT<char> > >,ATL::CStringT<char,StrTraitMFC_DLL<char,ATL::ChTraitsCRT<char> > > >::GetAssocAt
_TEXT	ENDS
; Function compile flags: /Ogtp
; File C:\Program Files (x86)\Microsoft Visual Studio\2019\Community\VC\Tools\MSVC\14.29.30133\atlmfc\include\afxtempl.h
;	COMDAT ?NewAssoc@?$CMap@GGV?$CStringT@DV?$StrTraitMFC_DLL@DV?$ChTraitsCRT@D@ATL@@@@@ATL@@V12@@@IAEPAVCAssoc@1@G@Z
_TEXT	SEGMENT
_key$ = 8						; size = 2
?NewAssoc@?$CMap@GGV?$CStringT@DV?$StrTraitMFC_DLL@DV?$ChTraitsCRT@D@ATL@@@@@ATL@@V12@@@IAEPAVCAssoc@1@G@Z PROC ; CMap<unsigned short,unsigned short,ATL::CStringT<char,StrTraitMFC_DLL<char,ATL::ChTraitsCRT<char> > >,ATL::CStringT<char,StrTraitMFC_DLL<char,ATL::ChTraitsCRT<char> > > >::NewAssoc, COMDAT
; _this$ = ecx

; 1480 : {

  00000	55		 push	 ebp
  00001	8b ec		 mov	 ebp, esp
  00003	56		 push	 esi
  00004	8b f1		 mov	 esi, ecx
  00006	57		 push	 edi

; 1481 : 	if (m_pFreeList == NULL)

  00007	83 7e 10 00	 cmp	 DWORD PTR [esi+16], 0
  0000b	75 34		 jne	 SHORT $LN7@NewAssoc

; 1482 : 	{
; 1483 : 		// add another block
; 1484 : 		CPlex* newBlock = CPlex::Create(m_pBlocks, m_nBlockSize, sizeof(CMap::CAssoc));

  0000d	6a 10		 push	 16			; 00000010H
  0000f	ff 76 18	 push	 DWORD PTR [esi+24]
  00012	8d 46 14	 lea	 eax, DWORD PTR [esi+20]
  00015	50		 push	 eax
  00016	e8 00 00 00 00	 call	 ?Create@CPlex@@SGPAU1@AAPAU1@II@Z ; CPlex::Create

; 1485 : 		// chain them into free list
; 1486 : 		CMap::CAssoc* pAssoc = (CMap::CAssoc*) newBlock->data();
; 1487 : 		// free in reverse order to make it easier to debug
; 1488 : 		pAssoc += m_nBlockSize - 1;

  0001b	8b 56 18	 mov	 edx, DWORD PTR [esi+24]
  0001e	83 c0 08	 add	 eax, 8
  00021	8b ca		 mov	 ecx, edx
  00023	c1 e1 04	 shl	 ecx, 4
  00026	83 c1 f0	 add	 ecx, -16		; fffffff0H
  00029	03 c1		 add	 eax, ecx

; 1489 : 		for (INT_PTR i = m_nBlockSize-1; i >= 0; i--, pAssoc--)

  0002b	83 c2 ff	 add	 edx, -1
  0002e	78 11		 js	 SHORT $LN7@NewAssoc
$LL4@NewAssoc:

; 1490 : 		{
; 1491 : 			pAssoc->pNext = m_pFreeList;

  00030	8b 4e 10	 mov	 ecx, DWORD PTR [esi+16]
  00033	89 48 08	 mov	 DWORD PTR [eax+8], ecx

; 1492 : 			m_pFreeList = pAssoc;

  00036	89 46 10	 mov	 DWORD PTR [esi+16], eax
  00039	83 e8 10	 sub	 eax, 16			; 00000010H
  0003c	83 ea 01	 sub	 edx, 1
  0003f	79 ef		 jns	 SHORT $LL4@NewAssoc
$LN7@NewAssoc:

; 1493 : 		}
; 1494 : 	}
; 1495 : 	ENSURE(m_pFreeList != NULL);  // we must have something

  00041	8b 7e 10	 mov	 edi, DWORD PTR [esi+16]
  00044	85 ff		 test	 edi, edi
  00046	74 30		 je	 SHORT $LN21@NewAssoc

; 1496 : 
; 1497 : 	CMap::CAssoc* pAssoc = m_pFreeList;
; 1498 : 
; 1499 : 	// zero the memory
; 1500 : 	CMap::CAssoc* pTemp = pAssoc->pNext;

  00048	8b 47 08	 mov	 eax, DWORD PTR [edi+8]
  0004b	0f 57 c0	 xorps	 xmm0, xmm0

; 1501 : 	memset( pAssoc, 0, sizeof(CMap::CAssoc) );

  0004e	0f 11 07	 movups	 XMMWORD PTR [edi], xmm0

; 1502 : 	pAssoc->pNext = pTemp;

  00051	89 47 08	 mov	 DWORD PTR [edi+8], eax

; 1503 : 
; 1504 : 	m_pFreeList = m_pFreeList->pNext;

  00054	8b 4e 10	 mov	 ecx, DWORD PTR [esi+16]
  00057	8b 49 08	 mov	 ecx, DWORD PTR [ecx+8]

; 1505 : 	m_nCount++;

  0005a	ff 46 0c	 inc	 DWORD PTR [esi+12]
  0005d	89 4e 10	 mov	 DWORD PTR [esi+16], ecx

; 1256 : 		CPair( ARG_KEY keyval ) : key( keyval )	{}

  00060	66 8b 4d 08	 mov	 cx, WORD PTR _key$[ebp]
  00064	66 89 0f	 mov	 WORD PTR [edi], cx
  00067	8d 4f 04	 lea	 ecx, DWORD PTR [edi+4]
  0006a	ff 15 00 00 00
	00		 call	 DWORD PTR __imp_??0?$CStringT@DV?$StrTraitMFC_DLL@DV?$ChTraitsCRT@D@ATL@@@@@ATL@@QAE@XZ

; 1506 : 	ASSERT(m_nCount > 0);  // make sure we don't overflow
; 1507 : #pragma push_macro("new")
; 1508 : #undef new
; 1509 : 	::new(pAssoc) CMap::CAssoc(key);
; 1510 : #pragma pop_macro("new")
; 1511 : 	return pAssoc;

  00070	8b c7		 mov	 eax, edi
  00072	5f		 pop	 edi
  00073	5e		 pop	 esi

; 1512 : }

  00074	5d		 pop	 ebp
  00075	c2 04 00	 ret	 4
$LN21@NewAssoc:

; 1493 : 		}
; 1494 : 	}
; 1495 : 	ENSURE(m_pFreeList != NULL);  // we must have something

  00078	e8 00 00 00 00	 call	 ?AfxThrowInvalidArgException@@YGXXZ ; AfxThrowInvalidArgException
$LN19@NewAssoc:
  0007d	cc		 int	 3
?NewAssoc@?$CMap@GGV?$CStringT@DV?$StrTraitMFC_DLL@DV?$ChTraitsCRT@D@ATL@@@@@ATL@@V12@@@IAEPAVCAssoc@1@G@Z ENDP ; CMap<unsigned short,unsigned short,ATL::CStringT<char,StrTraitMFC_DLL<char,ATL::ChTraitsCRT<char> > >,ATL::CStringT<char,StrTraitMFC_DLL<char,ATL::ChTraitsCRT<char> > > >::NewAssoc
_TEXT	ENDS
; Function compile flags: /Ogtp
; File C:\Program Files (x86)\Microsoft Visual Studio\2019\Community\VC\Tools\MSVC\14.29.30133\atlmfc\include\afxtempl.h
;	COMDAT ?InitHashTable@?$CMap@GGV?$CStringT@DV?$StrTraitMFC_DLL@DV?$ChTraitsCRT@D@ATL@@@@@ATL@@V12@@@QAEXIH@Z
_TEXT	SEGMENT
_nHashSize$ = 8						; size = 4
_bAllocNow$ = 12					; size = 4
?InitHashTable@?$CMap@GGV?$CStringT@DV?$StrTraitMFC_DLL@DV?$ChTraitsCRT@D@ATL@@@@@ATL@@V12@@@QAEXIH@Z PROC ; CMap<unsigned short,unsigned short,ATL::CStringT<char,StrTraitMFC_DLL<char,ATL::ChTraitsCRT<char> > >,ATL::CStringT<char,StrTraitMFC_DLL<char,ATL::ChTraitsCRT<char> > > >::InitHashTable, COMDAT
; _this$ = ecx

; 1420 : {

  00000	55		 push	 ebp
  00001	8b ec		 mov	 ebp, esp
  00003	56		 push	 esi
  00004	8b f1		 mov	 esi, ecx
  00006	57		 push	 edi

; 1421 : 	ASSERT_VALID(this);
; 1422 : 	ASSERT(m_nCount == 0);
; 1423 : 	ASSERT(nHashSize > 0);
; 1424 : 
; 1425 : 	if (m_pHashTable != NULL)

  00007	8b 46 04	 mov	 eax, DWORD PTR [esi+4]
  0000a	85 c0		 test	 eax, eax
  0000c	74 10		 je	 SHORT $LN5@InitHashTa

; 1426 : 	{
; 1427 : 		// free hash table
; 1428 : 		delete[] m_pHashTable;

  0000e	50		 push	 eax
  0000f	e8 00 00 00 00	 call	 ??_V@YAXPAX@Z		; operator delete[]
  00014	83 c4 04	 add	 esp, 4

; 1429 : 		m_pHashTable = NULL;

  00017	c7 46 04 00 00
	00 00		 mov	 DWORD PTR [esi+4], 0
$LN5@InitHashTa:

; 1430 : 	}
; 1431 : 
; 1432 : 	if (bAllocNow)

  0001e	83 7d 0c 00	 cmp	 DWORD PTR _bAllocNow$[ebp], 0
  00022	8b 7d 08	 mov	 edi, DWORD PTR _nHashSize$[ebp]
  00025	74 37		 je	 SHORT $LN6@InitHashTa

; 1433 : 	{
; 1434 : 		m_pHashTable = new CAssoc* [nHashSize];

  00027	33 c9		 xor	 ecx, ecx
  00029	8b c7		 mov	 eax, edi
  0002b	ba 04 00 00 00	 mov	 edx, 4
  00030	f7 e2		 mul	 edx
  00032	0f 90 c1	 seto	 cl
  00035	f7 d9		 neg	 ecx
  00037	0b c8		 or	 ecx, eax
  00039	51		 push	 ecx
  0003a	e8 00 00 00 00	 call	 ??_U@YAPAXI@Z		; operator new[]
  0003f	8b c8		 mov	 ecx, eax
  00041	83 c4 04	 add	 esp, 4
  00044	89 4e 04	 mov	 DWORD PTR [esi+4], ecx

; 1435 : 		ENSURE(m_pHashTable != NULL);

  00047	85 c9		 test	 ecx, ecx
  00049	74 1c		 je	 SHORT $LN11@InitHashTa

; 1436 : 		memset(m_pHashTable, 0, sizeof(CAssoc*) * nHashSize);

  0004b	8d 04 bd 00 00
	00 00		 lea	 eax, DWORD PTR [edi*4]
  00052	50		 push	 eax
  00053	6a 00		 push	 0
  00055	51		 push	 ecx
  00056	e8 00 00 00 00	 call	 _memset
  0005b	83 c4 0c	 add	 esp, 12			; 0000000cH
$LN6@InitHashTa:

; 1437 : 	}
; 1438 : 	m_nHashTableSize = nHashSize;

  0005e	89 7e 08	 mov	 DWORD PTR [esi+8], edi
  00061	5f		 pop	 edi
  00062	5e		 pop	 esi

; 1439 : }

  00063	5d		 pop	 ebp
  00064	c2 08 00	 ret	 8
$LN11@InitHashTa:

; 1435 : 		ENSURE(m_pHashTable != NULL);

  00067	e8 00 00 00 00	 call	 ?AfxThrowInvalidArgException@@YGXXZ ; AfxThrowInvalidArgException
$LN9@InitHashTa:
  0006c	cc		 int	 3
?InitHashTable@?$CMap@GGV?$CStringT@DV?$StrTraitMFC_DLL@DV?$ChTraitsCRT@D@ATL@@@@@ATL@@V12@@@QAEXIH@Z ENDP ; CMap<unsigned short,unsigned short,ATL::CStringT<char,StrTraitMFC_DLL<char,ATL::ChTraitsCRT<char> > >,ATL::CStringT<char,StrTraitMFC_DLL<char,ATL::ChTraitsCRT<char> > > >::InitHashTable
_TEXT	ENDS
; Function compile flags: /Ogtp
; File C:\Program Files (x86)\Microsoft Visual Studio\2019\Community\VC\Tools\MSVC\14.29.30133\atlmfc\include\afxtempl.h
;	COMDAT ?RemoveAll@?$CMap@GGV?$CStringT@DV?$StrTraitMFC_DLL@DV?$ChTraitsCRT@D@ATL@@@@@ATL@@V12@@@QAEXXZ
_TEXT	SEGMENT
?RemoveAll@?$CMap@GGV?$CStringT@DV?$StrTraitMFC_DLL@DV?$ChTraitsCRT@D@ATL@@@@@ATL@@V12@@@QAEXXZ PROC ; CMap<unsigned short,unsigned short,ATL::CStringT<char,StrTraitMFC_DLL<char,ATL::ChTraitsCRT<char> > >,ATL::CStringT<char,StrTraitMFC_DLL<char,ATL::ChTraitsCRT<char> > > >::RemoveAll, COMDAT
; _this$ = ecx

; 1443 : {

  00000	57		 push	 edi
  00001	8b f9		 mov	 edi, ecx

; 1444 : 	ASSERT_VALID(this);
; 1445 : 
; 1446 : 	if (m_pHashTable != NULL)

  00003	8b 47 04	 mov	 eax, DWORD PTR [edi+4]
  00006	85 c0		 test	 eax, eax
  00008	74 45		 je	 SHORT $LN8@RemoveAll

; 1447 : 	{
; 1448 : 		// destroy elements (values and keys)
; 1449 : 		for (UINT nHash = 0; nHash < m_nHashTableSize; nHash++)

  0000a	53		 push	 ebx
  0000b	33 db		 xor	 ebx, ebx
  0000d	39 5f 08	 cmp	 DWORD PTR [edi+8], ebx
  00010	76 2c		 jbe	 SHORT $LN3@RemoveAll
  00012	56		 push	 esi
$LL4@RemoveAll:

; 1450 : 		{
; 1451 : 			CAssoc* pAssoc;
; 1452 : 			for (pAssoc = m_pHashTable[nHash]; pAssoc != NULL;

  00013	8b 34 98	 mov	 esi, DWORD PTR [eax+ebx*4]
  00016	8b c8		 mov	 ecx, eax
  00018	85 f6		 test	 esi, esi
  0001a	74 19		 je	 SHORT $LN2@RemoveAll
  0001c	0f 1f 40 00	 npad	 4
$LL7@RemoveAll:
  00020	8d 4e 04	 lea	 ecx, DWORD PTR [esi+4]
  00023	ff 15 00 00 00
	00		 call	 DWORD PTR __imp_??1?$CStringT@DV?$StrTraitMFC_DLL@DV?$ChTraitsCRT@D@ATL@@@@@ATL@@QAE@XZ

; 1453 : 			  pAssoc = pAssoc->pNext)

  00029	8b 76 08	 mov	 esi, DWORD PTR [esi+8]
  0002c	85 f6		 test	 esi, esi
  0002e	75 f0		 jne	 SHORT $LL7@RemoveAll
  00030	8b 47 04	 mov	 eax, DWORD PTR [edi+4]
  00033	8b c8		 mov	 ecx, eax
$LN2@RemoveAll:

; 1447 : 	{
; 1448 : 		// destroy elements (values and keys)
; 1449 : 		for (UINT nHash = 0; nHash < m_nHashTableSize; nHash++)

  00035	43		 inc	 ebx
  00036	3b 5f 08	 cmp	 ebx, DWORD PTR [edi+8]
  00039	72 d8		 jb	 SHORT $LL4@RemoveAll
  0003b	8b c1		 mov	 eax, ecx
  0003d	5e		 pop	 esi
$LN3@RemoveAll:

; 1454 : 			{
; 1455 : 				pAssoc->CAssoc::~CAssoc();
; 1456 : 			}
; 1457 : 		}
; 1458 : 
; 1459 : 		// free hash table
; 1460 : 		delete[] m_pHashTable;

  0003e	50		 push	 eax
  0003f	e8 00 00 00 00	 call	 ??_V@YAXPAX@Z		; operator delete[]
  00044	83 c4 04	 add	 esp, 4

; 1461 : 		m_pHashTable = NULL;

  00047	c7 47 04 00 00
	00 00		 mov	 DWORD PTR [edi+4], 0
  0004e	5b		 pop	 ebx
$LN8@RemoveAll:

; 1462 : 	}
; 1463 : 
; 1464 : 	m_nCount = 0;
; 1465 : 	m_pFreeList = NULL;
; 1466 : 	m_pBlocks->FreeDataChain();

  0004f	8b 4f 14	 mov	 ecx, DWORD PTR [edi+20]
  00052	c7 47 0c 00 00
	00 00		 mov	 DWORD PTR [edi+12], 0
  00059	c7 47 10 00 00
	00 00		 mov	 DWORD PTR [edi+16], 0
  00060	e8 00 00 00 00	 call	 ?FreeDataChain@CPlex@@QAEXXZ ; CPlex::FreeDataChain

; 1467 : 	m_pBlocks = NULL;

  00065	c7 47 14 00 00
	00 00		 mov	 DWORD PTR [edi+20], 0
  0006c	5f		 pop	 edi

; 1468 : }

  0006d	c3		 ret	 0
?RemoveAll@?$CMap@GGV?$CStringT@DV?$StrTraitMFC_DLL@DV?$ChTraitsCRT@D@ATL@@@@@ATL@@V12@@@QAEXXZ ENDP ; CMap<unsigned short,unsigned short,ATL::CStringT<char,StrTraitMFC_DLL<char,ATL::ChTraitsCRT<char> > >,ATL::CStringT<char,StrTraitMFC_DLL<char,ATL::ChTraitsCRT<char> > > >::RemoveAll
_TEXT	ENDS
; Function compile flags: /Ogtp
; File C:\Program Files (x86)\Microsoft Visual Studio\2019\Community\VC\Tools\MSVC\14.29.30133\atlmfc\include\afxtempl.h
;	COMDAT ??A?$CMap@GGV?$CStringT@DV?$StrTraitMFC_DLL@DV?$ChTraitsCRT@D@ATL@@@@@ATL@@V12@@@QAEAAV?$CStringT@DV?$StrTraitMFC_DLL@DV?$ChTraitsCRT@D@ATL@@@@@ATL@@G@Z
_TEXT	SEGMENT
_nHashBucket$1$ = -4					; size = 4
_key$ = 8						; size = 2
??A?$CMap@GGV?$CStringT@DV?$StrTraitMFC_DLL@DV?$ChTraitsCRT@D@ATL@@@@@ATL@@V12@@@QAEAAV?$CStringT@DV?$StrTraitMFC_DLL@DV?$ChTraitsCRT@D@ATL@@@@@ATL@@G@Z PROC ; CMap<unsigned short,unsigned short,ATL::CStringT<char,StrTraitMFC_DLL<char,ATL::ChTraitsCRT<char> > >,ATL::CStringT<char,StrTraitMFC_DLL<char,ATL::ChTraitsCRT<char> > > >::operator[], COMDAT
; _this$ = ecx

; 1585 : {

  00000	55		 push	 ebp
  00001	8b ec		 mov	 ebp, esp
  00003	51		 push	 ecx
  00004	53		 push	 ebx
  00005	56		 push	 esi
  00006	57		 push	 edi
  00007	8b f9		 mov	 edi, ecx

; 165  : 	ldiv_t HashVal = ldiv((long)(ARG_KEY)key, 127773);

  00009	33 d2		 xor	 edx, edx
  0000b	66 8b 4d 08	 mov	 cx, WORD PTR _key$[ebp]
  0000f	be 1d f3 01 00	 mov	 esi, 127773		; 0001f31dH
  00014	0f b7 c1	 movzx	 eax, cx
  00017	f7 f6		 div	 esi

; 1534 : 	nHashBucket = nHashValue % m_nHashTableSize;

  00019	8b 77 08	 mov	 esi, DWORD PTR [edi+8]

; 165  : 	ldiv_t HashVal = ldiv((long)(ARG_KEY)key, 127773);

  0001c	69 c2 a7 41 00
	00		 imul	 eax, edx, 16807

; 1534 : 	nHashBucket = nHashValue % m_nHashTableSize;

  00022	85 c0		 test	 eax, eax
  00024	8d 98 ff ff ff
	7f		 lea	 ebx, DWORD PTR [eax+2147483647]
  0002a	0f 49 d8	 cmovns	 ebx, eax
  0002d	33 d2		 xor	 edx, edx
  0002f	8b c3		 mov	 eax, ebx
  00031	f7 f6		 div	 esi

; 1535 : 
; 1536 : 	if (m_pHashTable == NULL)

  00033	8b 47 04	 mov	 eax, DWORD PTR [edi+4]
  00036	89 55 fc	 mov	 DWORD PTR _nHashBucket$1$[ebp], edx
  00039	85 c0		 test	 eax, eax
  0003b	75 47		 jne	 SHORT $LN13@operator

; 1434 : 		m_pHashTable = new CAssoc* [nHashSize];

  0003d	33 c9		 xor	 ecx, ecx
  0003f	8b c6		 mov	 eax, esi
  00041	ba 04 00 00 00	 mov	 edx, 4
  00046	f7 e2		 mul	 edx
  00048	0f 90 c1	 seto	 cl
  0004b	f7 d9		 neg	 ecx
  0004d	0b c8		 or	 ecx, eax
  0004f	51		 push	 ecx
  00050	e8 00 00 00 00	 call	 ??_U@YAPAXI@Z		; operator new[]
  00055	83 c4 04	 add	 esp, 4
  00058	89 47 04	 mov	 DWORD PTR [edi+4], eax

; 1435 : 		ENSURE(m_pHashTable != NULL);

  0005b	85 c0		 test	 eax, eax
  0005d	0f 84 ce 00 00
	00		 je	 $LN63@operator

; 1436 : 		memset(m_pHashTable, 0, sizeof(CAssoc*) * nHashSize);

  00063	8d 0c b5 00 00
	00 00		 lea	 ecx, DWORD PTR [esi*4]
  0006a	51		 push	 ecx
  0006b	6a 00		 push	 0
  0006d	50		 push	 eax
  0006e	e8 00 00 00 00	 call	 _memset
  00073	83 c4 0c	 add	 esp, 12			; 0000000cH

; 1437 : 	}
; 1438 : 	m_nHashTableSize = nHashSize;

  00076	89 77 08	 mov	 DWORD PTR [edi+8], esi

; 1586 : 	ASSERT_VALID(this);
; 1587 : 
; 1588 : 	UINT nHashBucket, nHashValue;
; 1589 : 	CAssoc* pAssoc;
; 1590 : 	if ((pAssoc = GetAssocAt(key, nHashBucket, nHashValue)) == NULL)
; 1591 : 	{
; 1592 : 		if (m_pHashTable == NULL)
; 1593 : 			InitHashTable(m_nHashTableSize);
; 1594 : 
; 1595 : 		ENSURE(m_pHashTable);

  00079	83 7f 04 00	 cmp	 DWORD PTR [edi+4], 0
  0007d	75 26		 jne	 SHORT $LN2@operator
  0007f	e9 ad 00 00 00	 jmp	 $LN63@operator
$LN13@operator:

; 1541 : 	for (pAssoc = m_pHashTable[nHashBucket]; pAssoc != NULL; pAssoc = pAssoc->pNext)

  00084	8b 34 90	 mov	 esi, DWORD PTR [eax+edx*4]
  00087	85 f6		 test	 esi, esi
  00089	74 1a		 je	 SHORT $LN2@operator
  0008b	0f 1f 44 00 00	 npad	 5
$LL12@operator:

; 1542 : 	{
; 1543 : 		if (pAssoc->nHashValue == nHashValue && CompareElements(&pAssoc->key, &key))

  00090	39 5e 0c	 cmp	 DWORD PTR [esi+12], ebx
  00093	75 09		 jne	 SHORT $LN10@operator

; 156  : 	return *pElement1 == *pElement2;

  00095	66 39 0e	 cmp	 WORD PTR [esi], cx

; 1543 : 		if (pAssoc->nHashValue == nHashValue && CompareElements(&pAssoc->key, &key))

  00098	0f 84 87 00 00
	00		 je	 $LN5@operator
$LN10@operator:

; 1537 : 		return NULL;
; 1538 : 
; 1539 : 	// see if it exists
; 1540 : 	CAssoc* pAssoc;
; 1541 : 	for (pAssoc = m_pHashTable[nHashBucket]; pAssoc != NULL; pAssoc = pAssoc->pNext)

  0009e	8b 76 08	 mov	 esi, DWORD PTR [esi+8]
  000a1	85 f6		 test	 esi, esi
  000a3	75 eb		 jne	 SHORT $LL12@operator
$LN2@operator:

; 1481 : 	if (m_pFreeList == NULL)

  000a5	83 7f 10 00	 cmp	 DWORD PTR [edi+16], 0
  000a9	75 36		 jne	 SHORT $LN43@operator

; 1482 : 	{
; 1483 : 		// add another block
; 1484 : 		CPlex* newBlock = CPlex::Create(m_pBlocks, m_nBlockSize, sizeof(CMap::CAssoc));

  000ab	6a 10		 push	 16			; 00000010H
  000ad	ff 77 18	 push	 DWORD PTR [edi+24]
  000b0	8d 47 14	 lea	 eax, DWORD PTR [edi+20]
  000b3	50		 push	 eax
  000b4	e8 00 00 00 00	 call	 ?Create@CPlex@@SGPAU1@AAPAU1@II@Z ; CPlex::Create

; 1485 : 		// chain them into free list
; 1486 : 		CMap::CAssoc* pAssoc = (CMap::CAssoc*) newBlock->data();
; 1487 : 		// free in reverse order to make it easier to debug
; 1488 : 		pAssoc += m_nBlockSize - 1;

  000b9	8b 57 18	 mov	 edx, DWORD PTR [edi+24]
  000bc	83 c0 08	 add	 eax, 8
  000bf	8b ca		 mov	 ecx, edx
  000c1	c1 e1 04	 shl	 ecx, 4
  000c4	83 c1 f0	 add	 ecx, -16		; fffffff0H
  000c7	03 c8		 add	 ecx, eax

; 1489 : 		for (INT_PTR i = m_nBlockSize-1; i >= 0; i--, pAssoc--)

  000c9	83 c2 ff	 add	 edx, -1
  000cc	78 13		 js	 SHORT $LN43@operator
  000ce	66 90		 npad	 2
$LL40@operator:

; 1490 : 		{
; 1491 : 			pAssoc->pNext = m_pFreeList;

  000d0	8b 47 10	 mov	 eax, DWORD PTR [edi+16]
  000d3	89 41 08	 mov	 DWORD PTR [ecx+8], eax

; 1492 : 			m_pFreeList = pAssoc;

  000d6	89 4f 10	 mov	 DWORD PTR [edi+16], ecx
  000d9	83 e9 10	 sub	 ecx, 16			; 00000010H
  000dc	83 ea 01	 sub	 edx, 1
  000df	79 ef		 jns	 SHORT $LL40@operator
$LN43@operator:

; 1493 : 		}
; 1494 : 	}
; 1495 : 	ENSURE(m_pFreeList != NULL);  // we must have something

  000e1	8b 77 10	 mov	 esi, DWORD PTR [edi+16]
  000e4	85 f6		 test	 esi, esi
  000e6	74 49		 je	 SHORT $LN63@operator

; 1496 : 
; 1497 : 	CMap::CAssoc* pAssoc = m_pFreeList;
; 1498 : 
; 1499 : 	// zero the memory
; 1500 : 	CMap::CAssoc* pTemp = pAssoc->pNext;

  000e8	8b 46 08	 mov	 eax, DWORD PTR [esi+8]

; 1256 : 		CPair( ARG_KEY keyval ) : key( keyval )	{}

  000eb	8d 4e 04	 lea	 ecx, DWORD PTR [esi+4]
  000ee	0f 57 c0	 xorps	 xmm0, xmm0

; 1501 : 	memset( pAssoc, 0, sizeof(CMap::CAssoc) );

  000f1	0f 11 06	 movups	 XMMWORD PTR [esi], xmm0

; 1502 : 	pAssoc->pNext = pTemp;

  000f4	89 46 08	 mov	 DWORD PTR [esi+8], eax

; 1503 : 
; 1504 : 	m_pFreeList = m_pFreeList->pNext;

  000f7	8b 47 10	 mov	 eax, DWORD PTR [edi+16]
  000fa	8b 40 08	 mov	 eax, DWORD PTR [eax+8]

; 1505 : 	m_nCount++;

  000fd	ff 47 0c	 inc	 DWORD PTR [edi+12]
  00100	89 47 10	 mov	 DWORD PTR [edi+16], eax

; 1256 : 		CPair( ARG_KEY keyval ) : key( keyval )	{}

  00103	66 8b 45 08	 mov	 ax, WORD PTR _key$[ebp]
  00107	66 89 06	 mov	 WORD PTR [esi], ax
  0010a	ff 15 00 00 00
	00		 call	 DWORD PTR __imp_??0?$CStringT@DV?$StrTraitMFC_DLL@DV?$ChTraitsCRT@D@ATL@@@@@ATL@@QAE@XZ

; 1596 : 		// it doesn't exist, add a new Association
; 1597 : 		pAssoc = NewAssoc(key);
; 1598 : 		pAssoc->nHashValue = nHashValue;
; 1599 : 		//'pAssoc->value' is a constructed object, nothing more
; 1600 : 
; 1601 : 		// put into hash table
; 1602 : 		pAssoc->pNext = m_pHashTable[nHashBucket];

  00110	8b 4d fc	 mov	 ecx, DWORD PTR _nHashBucket$1$[ebp]
  00113	89 5e 0c	 mov	 DWORD PTR [esi+12], ebx
  00116	8b 47 04	 mov	 eax, DWORD PTR [edi+4]
  00119	8b 04 88	 mov	 eax, DWORD PTR [eax+ecx*4]
  0011c	89 46 08	 mov	 DWORD PTR [esi+8], eax

; 1603 : 		m_pHashTable[nHashBucket] = pAssoc;

  0011f	8b 47 04	 mov	 eax, DWORD PTR [edi+4]
  00122	89 34 88	 mov	 DWORD PTR [eax+ecx*4], esi
$LN5@operator:

; 1604 : 	}
; 1605 : 	return pAssoc->value;  // return new reference
; 1606 : }

  00125	5f		 pop	 edi
  00126	8d 46 04	 lea	 eax, DWORD PTR [esi+4]
  00129	5e		 pop	 esi
  0012a	5b		 pop	 ebx
  0012b	8b e5		 mov	 esp, ebp
  0012d	5d		 pop	 ebp
  0012e	c2 04 00	 ret	 4
$LN63@operator:

; 1495 : 	ENSURE(m_pFreeList != NULL);  // we must have something

  00131	e8 00 00 00 00	 call	 ?AfxThrowInvalidArgException@@YGXXZ ; AfxThrowInvalidArgException
$LN65@operator:
  00136	cc		 int	 3
??A?$CMap@GGV?$CStringT@DV?$StrTraitMFC_DLL@DV?$ChTraitsCRT@D@ATL@@@@@ATL@@V12@@@QAEAAV?$CStringT@DV?$StrTraitMFC_DLL@DV?$ChTraitsCRT@D@ATL@@@@@ATL@@G@Z ENDP ; CMap<unsigned short,unsigned short,ATL::CStringT<char,StrTraitMFC_DLL<char,ATL::ChTraitsCRT<char> > >,ATL::CStringT<char,StrTraitMFC_DLL<char,ATL::ChTraitsCRT<char> > > >::operator[]
_TEXT	ENDS
; Function compile flags: /Ogtp
; File C:\Program Files (x86)\Microsoft Visual Studio\2019\Community\VC\Tools\MSVC\14.29.30133\atlmfc\include\afxtempl.h
;	COMDAT ??0?$CMap@GGV?$CStringT@DV?$StrTraitMFC_DLL@DV?$ChTraitsCRT@D@ATL@@@@@ATL@@V12@@@QAE@H@Z
_TEXT	SEGMENT
_nBlockSize$ = 8					; size = 4
??0?$CMap@GGV?$CStringT@DV?$StrTraitMFC_DLL@DV?$ChTraitsCRT@D@ATL@@@@@ATL@@V12@@@QAE@H@Z PROC ; CMap<unsigned short,unsigned short,ATL::CStringT<char,StrTraitMFC_DLL<char,ATL::ChTraitsCRT<char> > >,ATL::CStringT<char,StrTraitMFC_DLL<char,ATL::ChTraitsCRT<char> > > >::CMap<unsigned short,unsigned short,ATL::CStringT<char,StrTraitMFC_DLL<char,ATL::ChTraitsCRT<char> > >,ATL::CStringT<char,StrTraitMFC_DLL<char,ATL::ChTraitsCRT<char> > > >, COMDAT
; _this$ = ecx

; 1403 : {

  00000	55		 push	 ebp
  00001	8b ec		 mov	 ebp, esp

; 1404 : 	ASSERT(nBlockSize > 0);
; 1405 : 
; 1406 : 	m_pHashTable = NULL;
; 1407 : 	m_nHashTableSize = 17;  // default size
; 1408 : 	m_nCount = 0;
; 1409 : 	m_pFreeList = NULL;
; 1410 : 	m_pBlocks = NULL;
; 1411 : 	m_nBlockSize = nBlockSize;

  00003	8b 45 08	 mov	 eax, DWORD PTR _nBlockSize$[ebp]
  00006	89 41 18	 mov	 DWORD PTR [ecx+24], eax

; 1412 : }

  00009	8b c1		 mov	 eax, ecx
  0000b	c7 01 00 00 00
	00		 mov	 DWORD PTR [ecx], OFFSET ??_7?$CMap@GGV?$CStringT@DV?$StrTraitMFC_DLL@DV?$ChTraitsCRT@D@ATL@@@@@ATL@@V12@@@6B@
  00011	c7 41 04 00 00
	00 00		 mov	 DWORD PTR [ecx+4], 0
  00018	c7 41 08 11 00
	00 00		 mov	 DWORD PTR [ecx+8], 17	; 00000011H
  0001f	c7 41 0c 00 00
	00 00		 mov	 DWORD PTR [ecx+12], 0
  00026	c7 41 10 00 00
	00 00		 mov	 DWORD PTR [ecx+16], 0
  0002d	c7 41 14 00 00
	00 00		 mov	 DWORD PTR [ecx+20], 0
  00034	5d		 pop	 ebp
  00035	c2 04 00	 ret	 4
??0?$CMap@GGV?$CStringT@DV?$StrTraitMFC_DLL@DV?$ChTraitsCRT@D@ATL@@@@@ATL@@V12@@@QAE@H@Z ENDP ; CMap<unsigned short,unsigned short,ATL::CStringT<char,StrTraitMFC_DLL<char,ATL::ChTraitsCRT<char> > >,ATL::CStringT<char,StrTraitMFC_DLL<char,ATL::ChTraitsCRT<char> > > >::CMap<unsigned short,unsigned short,ATL::CStringT<char,StrTraitMFC_DLL<char,ATL::ChTraitsCRT<char> > >,ATL::CStringT<char,StrTraitMFC_DLL<char,ATL::ChTraitsCRT<char> > > >
_TEXT	ENDS
; Function compile flags: /Ogtp
; File D:\git\src\IBK\IBK_DRFN\ProjSrc\SrcDrfn\Chart\MULTICHART\FloatingHogaDlg.cpp
; File C:\Program Files (x86)\Microsoft Visual Studio\2019\Community\VC\Tools\MSVC\14.29.30133\atlmfc\include\afxtempl.h
; File D:\git\src\IBK\IBK_DRFN\ProjSrc\SrcDrfn\Chart\MULTICHART\FloatingHogaDlg.cpp
; File C:\Program Files (x86)\Microsoft Visual Studio\2019\Community\VC\Tools\MSVC\14.29.30133\atlmfc\include\atltypes.h
; File C:\Program Files (x86)\Microsoft Visual Studio\2019\Community\VC\Tools\MSVC\14.29.30133\atlmfc\include\afxwin1.inl
; File D:\git\src\IBK\IBK_DRFN\ProjSrc\SrcDrfn\Chart\chart_common\Grid\Util.h
; File C:\Program Files (x86)\Microsoft Visual Studio\2019\Community\VC\Tools\MSVC\14.29.30133\atlmfc\include\afxtempl.h
; File D:\git\src\IBK\IBK_DRFN\ProjSrc\SrcDrfn\Chart\MULTICHART\FloatingHogaDlg.cpp
; File C:\Program Files (x86)\Microsoft Visual Studio\2019\Community\VC\Tools\MSVC\14.29.30133\atlmfc\include\atltypes.h
; File D:\git\src\IBK\IBK_DRFN\ProjSrc\SrcDrfn\Chart\MULTICHART\FloatingHogaDlg.cpp
; File C:\Program Files (x86)\Microsoft Visual Studio\2019\Community\VC\Tools\MSVC\14.29.30133\atlmfc\include\afxwin2.inl
; File D:\git\src\IBK\IBK_DRFN\ProjSrc\SrcDrfn\Chart\MULTICHART\FloatingHogaDlg.cpp
; File C:\Program Files (x86)\Microsoft Visual Studio\2019\Community\VC\Tools\MSVC\14.29.30133\atlmfc\include\afxwin2.inl
; File D:\git\src\IBK\IBK_DRFN\ProjSrc\SrcDrfn\Chart\MULTICHART\FloatingHogaDlg.cpp
;	COMDAT ??0CFloatingHogaDlg@@QAE@PAVCWnd@@@Z
_TEXT	SEGMENT
_this$ = -16						; size = 4
__$EHRec$ = -12						; size = 12
_this$ = 8						; size = 4
_pParent$ = 8						; size = 4
??0CFloatingHogaDlg@@QAE@PAVCWnd@@@Z PROC		; CFloatingHogaDlg::CFloatingHogaDlg, COMDAT
; _this$ = ecx

; 28   : {

  00000	55		 push	 ebp
  00001	8b ec		 mov	 ebp, esp
  00003	6a ff		 push	 -1
  00005	68 00 00 00 00	 push	 __ehhandler$??0CFloatingHogaDlg@@QAE@PAVCWnd@@@Z
  0000a	64 a1 00 00 00
	00		 mov	 eax, DWORD PTR fs:0
  00010	50		 push	 eax
  00011	51		 push	 ecx
  00012	56		 push	 esi
  00013	57		 push	 edi
  00014	a1 00 00 00 00	 mov	 eax, DWORD PTR ___security_cookie
  00019	33 c5		 xor	 eax, ebp
  0001b	50		 push	 eax
  0001c	8d 45 f4	 lea	 eax, DWORD PTR __$EHRec$[ebp]
  0001f	64 a3 00 00 00
	00		 mov	 DWORD PTR fs:0, eax
  00025	8b f1		 mov	 esi, ecx
  00027	89 75 f0	 mov	 DWORD PTR _this$[ebp], esi

; 27   : 	: CRscDlg(CFloatingHogaDlg::IDD, pParent)

  0002a	ff 75 08	 push	 DWORD PTR _pParent$[ebp]
  0002d	68 81 00 00 00	 push	 129			; 00000081H
  00032	e8 00 00 00 00	 call	 ??0CRscDlg@@QAE@IPAVCWnd@@@Z ; CRscDlg::CRscDlg

; 28   : {

  00037	c7 06 00 00 00
	00		 mov	 DWORD PTR [esi], OFFSET ??_7CFloatingHogaDlg@@6B@
  0003d	c7 45 fc 00 00
	00 00		 mov	 DWORD PTR __$EHRec$[ebp+8], 0
; File C:\Program Files (x86)\Microsoft Visual Studio\2019\Community\VC\Tools\MSVC\14.29.30133\atlmfc\include\afxtempl.h

; 1403 : {

  00044	c7 86 a8 00 00
	00 00 00 00 00	 mov	 DWORD PTR [esi+168], OFFSET ??_7?$CMap@GGV?$CStringT@DV?$StrTraitMFC_DLL@DV?$ChTraitsCRT@D@ATL@@@@@ATL@@V12@@@6B@

; 1404 : 	ASSERT(nBlockSize > 0);
; 1405 : 
; 1406 : 	m_pHashTable = NULL;

  0004e	c7 86 ac 00 00
	00 00 00 00 00	 mov	 DWORD PTR [esi+172], 0

; 1407 : 	m_nHashTableSize = 17;  // default size

  00058	c7 86 b0 00 00
	00 11 00 00 00	 mov	 DWORD PTR [esi+176], 17	; 00000011H

; 1408 : 	m_nCount = 0;

  00062	c7 86 b4 00 00
	00 00 00 00 00	 mov	 DWORD PTR [esi+180], 0

; 1409 : 	m_pFreeList = NULL;

  0006c	c7 86 b8 00 00
	00 00 00 00 00	 mov	 DWORD PTR [esi+184], 0

; 1410 : 	m_pBlocks = NULL;

  00076	c7 86 bc 00 00
	00 00 00 00 00	 mov	 DWORD PTR [esi+188], 0

; 1411 : 	m_nBlockSize = nBlockSize;

  00080	c7 86 c0 00 00
	00 0a 00 00 00	 mov	 DWORD PTR [esi+192], 10	; 0000000aH
; File D:\git\src\IBK\IBK_DRFN\ProjSrc\SrcDrfn\Chart\MULTICHART\FloatingHogaDlg.cpp

; 28   : {

  0008a	8d 8e c4 00 00
	00		 lea	 ecx, DWORD PTR [esi+196]
  00090	ff 15 00 00 00
	00		 call	 DWORD PTR __imp_??0?$CStringT@DV?$StrTraitMFC_DLL@DV?$ChTraitsCRT@D@ATL@@@@@ATL@@QAE@XZ
  00096	8d 8e c8 00 00
	00		 lea	 ecx, DWORD PTR [esi+200]
  0009c	ff 15 00 00 00
	00		 call	 DWORD PTR __imp_??0?$CStringT@DV?$StrTraitMFC_DLL@DV?$ChTraitsCRT@D@ATL@@@@@ATL@@QAE@XZ
; File C:\Program Files (x86)\Microsoft Visual Studio\2019\Community\VC\Tools\MSVC\14.29.30133\atlmfc\include\atltypes.h

; 528  : 	left = 0;

  000a2	c7 86 d0 00 00
	00 00 00 00 00	 mov	 DWORD PTR [esi+208], 0

; 529  : 	top = 0;

  000ac	c7 86 d4 00 00
	00 00 00 00 00	 mov	 DWORD PTR [esi+212], 0

; 530  : 	right = 0;

  000b6	c7 86 d8 00 00
	00 00 00 00 00	 mov	 DWORD PTR [esi+216], 0

; 531  : 	bottom = 0;

  000c0	c7 86 dc 00 00
	00 00 00 00 00	 mov	 DWORD PTR [esi+220], 0
; File C:\Program Files (x86)\Microsoft Visual Studio\2019\Community\VC\Tools\MSVC\14.29.30133\atlmfc\include\afxwin1.inl

; 70   : 	{ m_hObject = NULL; }

  000ca	c7 86 20 01 00
	00 00 00 00 00	 mov	 DWORD PTR [esi+288], 0

; 153  : 	{ }

  000d4	c7 86 1c 01 00
	00 00 00 00 00	 mov	 DWORD PTR [esi+284], OFFSET ??_7CFont@@6B@
; File D:\git\src\IBK\IBK_DRFN\ProjSrc\SrcDrfn\Chart\chart_common\Grid\Util.h

; 26   : 	CUtil()			{};

  000de	c7 86 84 01 00
	00 00 00 00 00	 mov	 DWORD PTR [esi+388], OFFSET ??_7CUtil@@6B@
; File C:\Program Files (x86)\Microsoft Visual Studio\2019\Community\VC\Tools\MSVC\14.29.30133\atlmfc\include\afxtempl.h

; 348  : {

  000e8	c7 86 88 01 00
	00 00 00 00 00	 mov	 DWORD PTR [esi+392], OFFSET ??_7?$CArray@PAVCHogaData@@PAV1@@@6B@

; 349  : 	m_pData = NULL;

  000f2	c7 86 8c 01 00
	00 00 00 00 00	 mov	 DWORD PTR [esi+396], 0

; 350  : 	m_nSize = m_nMaxSize = m_nGrowBy = 0;

  000fc	c7 86 98 01 00
	00 00 00 00 00	 mov	 DWORD PTR [esi+408], 0
  00106	c7 86 94 01 00
	00 00 00 00 00	 mov	 DWORD PTR [esi+404], 0
  00110	c7 86 90 01 00
	00 00 00 00 00	 mov	 DWORD PTR [esi+400], 0
; File D:\git\src\IBK\IBK_DRFN\ProjSrc\SrcDrfn\Chart\MULTICHART\FloatingHogaDlg.cpp

; 28   : {

  0011a	8d 8e e4 01 00
	00		 lea	 ecx, DWORD PTR [esi+484]
  00120	ff 15 00 00 00
	00		 call	 DWORD PTR __imp_??0?$CStringT@DV?$StrTraitMFC_DLL@DV?$ChTraitsCRT@D@ATL@@@@@ATL@@QAE@XZ
  00126	8d be e8 01 00
	00		 lea	 edi, DWORD PTR [esi+488]
  0012c	8b cf		 mov	 ecx, edi
  0012e	ff 15 00 00 00
	00		 call	 DWORD PTR __imp_??0?$CStringT@DV?$StrTraitMFC_DLL@DV?$ChTraitsCRT@D@ATL@@@@@ATL@@QAE@XZ
  00134	8d 8e f4 01 00
	00		 lea	 ecx, DWORD PTR [esi+500]
  0013a	ff 15 00 00 00
	00		 call	 DWORD PTR __imp_??0?$CStringT@DV?$StrTraitMFC_DLL@DV?$ChTraitsCRT@D@ATL@@@@@ATL@@QAE@XZ
  00140	8d 8e f8 01 00
	00		 lea	 ecx, DWORD PTR [esi+504]
  00146	ff 15 00 00 00
	00		 call	 DWORD PTR __imp_??0?$CStringT@DV?$StrTraitMFC_DLL@DV?$ChTraitsCRT@D@ATL@@@@@ATL@@QAE@XZ
  0014c	8d 8e 0c 02 00
	00		 lea	 ecx, DWORD PTR [esi+524]
  00152	ff 15 00 00 00
	00		 call	 DWORD PTR __imp_??0?$CStringT@DV?$StrTraitMFC_DLL@DV?$ChTraitsCRT@D@ATL@@@@@ATL@@QAE@XZ
  00158	8d 8e 38 02 00
	00		 lea	 ecx, DWORD PTR [esi+568]
  0015e	c6 45 fc 0a	 mov	 BYTE PTR __$EHRec$[ebp+8], 10 ; 0000000aH
; File C:\Program Files (x86)\Microsoft Visual Studio\2019\Community\VC\Tools\MSVC\14.29.30133\atlmfc\include\atltypes.h

; 528  : 	left = 0;

  00162	c7 86 20 02 00
	00 00 00 00 00	 mov	 DWORD PTR [esi+544], 0

; 529  : 	top = 0;

  0016c	c7 86 24 02 00
	00 00 00 00 00	 mov	 DWORD PTR [esi+548], 0

; 530  : 	right = 0;

  00176	c7 86 28 02 00
	00 00 00 00 00	 mov	 DWORD PTR [esi+552], 0

; 531  : 	bottom = 0;

  00180	c7 86 2c 02 00
	00 00 00 00 00	 mov	 DWORD PTR [esi+556], 0
; File D:\git\src\IBK\IBK_DRFN\ProjSrc\SrcDrfn\Chart\MULTICHART\FloatingHogaDlg.cpp

; 28   : {

  0018a	e8 00 00 00 00	 call	 ??0CPowLabel@@QAE@XZ	; CPowLabel::CPowLabel
  0018f	8d 8e 70 03 00
	00		 lea	 ecx, DWORD PTR [esi+880]
  00195	c6 45 fc 0b	 mov	 BYTE PTR __$EHRec$[ebp+8], 11 ; 0000000bH
  00199	e8 00 00 00 00	 call	 ??0CPowLabel@@QAE@XZ	; CPowLabel::CPowLabel
  0019e	8d 8e a8 04 00
	00		 lea	 ecx, DWORD PTR [esi+1192]
  001a4	c6 45 fc 0c	 mov	 BYTE PTR __$EHRec$[ebp+8], 12 ; 0000000cH
  001a8	e8 00 00 00 00	 call	 ??0CPowLabel@@QAE@XZ	; CPowLabel::CPowLabel
  001ad	81 c6 e0 05 00
	00		 add	 esi, 1504		; 000005e0H
  001b3	c6 45 fc 0d	 mov	 BYTE PTR __$EHRec$[ebp+8], 13 ; 0000000dH
; File C:\Program Files (x86)\Microsoft Visual Studio\2019\Community\VC\Tools\MSVC\14.29.30133\atlmfc\include\afxwin2.inl

; 622  : 	{ }

  001b7	8b ce		 mov	 ecx, esi
; File D:\git\src\IBK\IBK_DRFN\ProjSrc\SrcDrfn\Chart\MULTICHART\FloatingHogaDlg.cpp

; 28   : {

  001b9	89 75 08	 mov	 DWORD PTR _this$[ebp], esi
; File C:\Program Files (x86)\Microsoft Visual Studio\2019\Community\VC\Tools\MSVC\14.29.30133\atlmfc\include\afxwin2.inl

; 622  : 	{ }

  001bc	e8 00 00 00 00	 call	 ??0CWnd@@QAE@XZ		; CWnd::CWnd
  001c1	c7 06 00 00 00
	00		 mov	 DWORD PTR [esi], OFFSET ??_7CButton@@6B@
; File D:\git\src\IBK\IBK_DRFN\ProjSrc\SrcDrfn\Chart\MULTICHART\FloatingHogaDlg.cpp

; 32   : 	m_bIconState = TRUE;

  001c7	8b 75 f0	 mov	 esi, DWORD PTR _this$[ebp]

; 33   : 	m_bCapTure	 = FALSE;
; 34   : 	m_pMainDlg	 = NULL;
; 35   : 
; 36   : 	m_strCode				= _T("");

  001ca	68 00 00 00 00	 push	 OFFSET ??_C@_00CNPNBAHC@@
  001cf	c6 45 fc 0e	 mov	 BYTE PTR __$EHRec$[ebp+8], 14 ; 0000000eH
  001d3	8d 8e c4 00 00
	00		 lea	 ecx, DWORD PTR [esi+196]
  001d9	c7 86 1c 02 00
	00 01 00 00 00	 mov	 DWORD PTR [esi+540], 1
  001e3	c7 86 30 02 00
	00 00 00 00 00	 mov	 DWORD PTR [esi+560], 0
  001ed	c7 86 34 02 00
	00 00 00 00 00	 mov	 DWORD PTR [esi+564], 0
  001f7	ff 15 00 00 00
	00		 call	 DWORD PTR __imp_??4?$CStringT@DV?$StrTraitMFC_DLL@DV?$ChTraitsCRT@D@ATL@@@@@ATL@@QAEAAV01@PBD@Z

; 37   : 	m_strOldCode			= _T("");

  001fd	68 00 00 00 00	 push	 OFFSET ??_C@_00CNPNBAHC@@
  00202	8d 8e c8 00 00
	00		 lea	 ecx, DWORD PTR [esi+200]
  00208	ff 15 00 00 00
	00		 call	 DWORD PTR __imp_??4?$CStringT@DV?$StrTraitMFC_DLL@DV?$ChTraitsCRT@D@ATL@@@@@ATL@@QAEAAV01@PBD@Z
  0020e	0f 57 c0	 xorps	 xmm0, xmm0

; 38   : 	
; 39   : 	//   ------------>
; 40   : 	m_bExpandRight			= FALSE;

  00211	c7 86 9c 01 00
	00 00 00 00 00	 mov	 DWORD PTR [esi+412], 0

; 41   : 	m_bExpandBottom			= FALSE;
; 42   : 	m_bOpenCol				= FALSE;
; 43   : 	m_bIsFirstLoad			= FALSE;
; 44   : 	m_bIsShowReserveCol		= FALSE;					//  /
; 45   : 	// <----------------------------
; 46   : 		
; 47   : 	m_pGridCtrl		= NULL;	
; 48   : 	m_rectGrid		= CRect(0, 0, 0, 0);	//  	
; 49   : 		
; 50   : 	m_strCurPrice		= _T("");		// 

  0021b	68 00 00 00 00	 push	 OFFSET ??_C@_00CNPNBAHC@@
  00220	8d 8e e4 01 00
	00		 lea	 ecx, DWORD PTR [esi+484]
  00226	c7 86 a0 01 00
	00 00 00 00 00	 mov	 DWORD PTR [esi+416], 0
  00230	c7 86 a4 01 00
	00 00 00 00 00	 mov	 DWORD PTR [esi+420], 0
  0023a	c7 86 a8 01 00
	00 00 00 00 00	 mov	 DWORD PTR [esi+424], 0
  00244	c7 86 ac 01 00
	00 00 00 00 00	 mov	 DWORD PTR [esi+428], 0
  0024e	c7 86 cc 00 00
	00 00 00 00 00	 mov	 DWORD PTR [esi+204], 0
  00258	0f 11 86 d0 00
	00 00		 movups	 XMMWORD PTR [esi+208], xmm0
  0025f	ff 15 00 00 00
	00		 call	 DWORD PTR __imp_??4?$CStringT@DV?$StrTraitMFC_DLL@DV?$ChTraitsCRT@D@ATL@@@@@ATL@@QAEAAV01@PBD@Z

; 51   : 	m_strPreClosePrice	= _T("");		// 

  00265	68 00 00 00 00	 push	 OFFSET ??_C@_00CNPNBAHC@@
  0026a	8b cf		 mov	 ecx, edi
  0026c	ff 15 00 00 00
	00		 call	 DWORD PTR __imp_??4?$CStringT@DV?$StrTraitMFC_DLL@DV?$ChTraitsCRT@D@ATL@@@@@ATL@@QAEAAV01@PBD@Z

; 52   : 	m_nHighLimit		=  0;			// 
; 53   : 	m_nLowLimit			=  0;			// 
; 54   : 	m_strPreVol			= _T("");		// 				JSJ_ITCastle_Add_040502

  00272	68 00 00 00 00	 push	 OFFSET ??_C@_00CNPNBAHC@@
  00277	8d 8e f4 01 00
	00		 lea	 ecx, DWORD PTR [esi+500]
  0027d	c7 86 ec 01 00
	00 00 00 00 00	 mov	 DWORD PTR [esi+492], 0
  00287	c7 86 f0 01 00
	00 00 00 00 00	 mov	 DWORD PTR [esi+496], 0
  00291	ff 15 00 00 00
	00		 call	 DWORD PTR __imp_??4?$CStringT@DV?$StrTraitMFC_DLL@DV?$ChTraitsCRT@D@ATL@@@@@ATL@@QAEAAV01@PBD@Z

; 55   : 	m_strSEqualPer		= _T("");		//  	JSJ_ITCastle_Add_040706

  00297	68 00 00 00 00	 push	 OFFSET ??_C@_00CNPNBAHC@@
  0029c	8d 8e f8 01 00
	00		 lea	 ecx, DWORD PTR [esi+504]
  002a2	ff 15 00 00 00
	00		 call	 DWORD PTR __imp_??4?$CStringT@DV?$StrTraitMFC_DLL@DV?$ChTraitsCRT@D@ATL@@@@@ATL@@QAEAAV01@PBD@Z

; 56   : 	m_nMaedoPosJango	=  0;			//   
; 57   : 	m_nHogaRow			= -1;
; 58   : 	m_nStaticRow		= -1;
; 59   : 	m_nChartPriceRow	= -1;			//    
; 60   : 	m_strChartPrice		= _T("");		//   

  002a8	68 00 00 00 00	 push	 OFFSET ??_C@_00CNPNBAHC@@
  002ad	8d 8e 0c 02 00
	00		 lea	 ecx, DWORD PTR [esi+524]
  002b3	c7 86 fc 01 00
	00 00 00 00 00	 mov	 DWORD PTR [esi+508], 0
  002bd	c7 86 00 02 00
	00 ff ff ff ff	 mov	 DWORD PTR [esi+512], -1
  002c7	c7 86 04 02 00
	00 ff ff ff ff	 mov	 DWORD PTR [esi+516], -1
  002d1	c7 86 08 02 00
	00 ff ff ff ff	 mov	 DWORD PTR [esi+520], -1
  002db	ff 15 00 00 00
	00		 call	 DWORD PTR __imp_??4?$CStringT@DV?$StrTraitMFC_DLL@DV?$ChTraitsCRT@D@ATL@@@@@ATL@@QAEAAV01@PBD@Z
  002e1	0f 57 c0	 xorps	 xmm0, xmm0

; 61   : 	m_bMoveChartPriceRow= FALSE;		//   

  002e4	c7 86 10 02 00
	00 00 00 00 00	 mov	 DWORD PTR [esi+528], 0

; 62   : 	m_nHogaRangeForColor= -1;			//  

  002ee	c7 86 e0 01 00
	00 ff ff ff ff	 mov	 DWORD PTR [esi+480], -1

; 63   : 
; 64   : 	
; 65   : 	// Full Hoga -------------------->
; 66   : 	m_bIsTenHoga		= TRUE;					// 10 <-> Full 
; 67   : 	m_bUseLimitHoga		= TRUE;					//  
; 68   : 	m_nTotalRowCnt		= -1;					//  
; 69   : 	m_nCurPriceRow		= PRICE_ROW;			// 
; 70   : 	m_nLowLimitRow		= LOW_ROW;				//  
; 71   : 	m_n5HogaSumRow		= TENHOGA_ROW_5HOSUM;	// 5 
; 72   : 	m_nTotalSumRow		= TENHOGA_ROW_TOTSUM;	//  
; 73   : 	m_nExtraVolRow		= TENHOGA_ROW_EXTRAVOL;	// 
; 74   : 	// <----------------------------------
; 75   : 
; 76   : 	m_nThreeStateDaebiType = e_DAEBI;	//    
; 77   : //	m_hBitmap = NULL;
; 78   : 	m_dlgOriRect = CRect(0,0,0,0);
; 79   : 	// end
; 80   : 
; 81   : 	m_pDrdsLib = NULL;
; 82   : }

  002f8	8b c6		 mov	 eax, esi
  002fa	c7 86 c0 01 00
	00 01 00 00 00	 mov	 DWORD PTR [esi+448], 1
  00304	c7 86 c4 01 00
	00 01 00 00 00	 mov	 DWORD PTR [esi+452], 1
  0030e	c7 86 c8 01 00
	00 ff ff ff ff	 mov	 DWORD PTR [esi+456], -1
  00318	c7 86 cc 01 00
	00 0e 00 00 00	 mov	 DWORD PTR [esi+460], 14	; 0000000eH
  00322	c7 86 d0 01 00
	00 19 00 00 00	 mov	 DWORD PTR [esi+464], 25	; 00000019H
  0032c	c7 86 d4 01 00
	00 1a 00 00 00	 mov	 DWORD PTR [esi+468], 26	; 0000001aH
  00336	c7 86 d8 01 00
	00 1b 00 00 00	 mov	 DWORD PTR [esi+472], 27	; 0000001bH
  00340	c7 86 dc 01 00
	00 1c 00 00 00	 mov	 DWORD PTR [esi+476], 28	; 0000001cH
  0034a	c7 86 18 02 00
	00 00 00 00 00	 mov	 DWORD PTR [esi+536], 0
  00354	0f 11 86 20 02
	00 00		 movups	 XMMWORD PTR [esi+544], xmm0
  0035b	c7 86 60 06 00
	00 00 00 00 00	 mov	 DWORD PTR [esi+1632], 0
  00365	8b 4d f4	 mov	 ecx, DWORD PTR __$EHRec$[ebp]
  00368	64 89 0d 00 00
	00 00		 mov	 DWORD PTR fs:0, ecx
  0036f	59		 pop	 ecx
  00370	5f		 pop	 edi
  00371	5e		 pop	 esi
  00372	8b e5		 mov	 esp, ebp
  00374	5d		 pop	 ebp
  00375	c2 04 00	 ret	 4
_TEXT	ENDS
;	COMDAT text$x
text$x	SEGMENT
__unwindfunclet$??0CFloatingHogaDlg@@QAE@PAVCWnd@@@Z$0:
  00000	8b 4d f0	 mov	 ecx, DWORD PTR _this$[ebp]
  00003	e9 00 00 00 00	 jmp	 ??1CRscDlg@@UAE@XZ
__unwindfunclet$??0CFloatingHogaDlg@@QAE@PAVCWnd@@@Z$1:
  00008	8b 4d f0	 mov	 ecx, DWORD PTR _this$[ebp]
  0000b	81 c1 a8 00 00
	00		 add	 ecx, 168		; 000000a8H
  00011	e9 00 00 00 00	 jmp	 ??1?$CMap@GGV?$CStringT@DV?$StrTraitMFC_DLL@DV?$ChTraitsCRT@D@ATL@@@@@ATL@@V12@@@UAE@XZ ; CMap<unsigned short,unsigned short,ATL::CStringT<char,StrTraitMFC_DLL<char,ATL::ChTraitsCRT<char> > >,ATL::CStringT<char,StrTraitMFC_DLL<char,ATL::ChTraitsCRT<char> > > >::~CMap<unsigned short,unsigned short,ATL::CStringT<char,StrTraitMFC_DLL<char,ATL::ChTraitsCRT<char> > >,ATL::CStringT<char,StrTraitMFC_DLL<char,ATL::ChTraitsCRT<char> > > >
__unwindfunclet$??0CFloatingHogaDlg@@QAE@PAVCWnd@@@Z$2:
  00016	8b 4d f0	 mov	 ecx, DWORD PTR _this$[ebp]
  00019	81 c1 c4 00 00
	00		 add	 ecx, 196		; 000000c4H
  0001f	ff 25 00 00 00
	00		 jmp	 DWORD PTR __imp_??1?$CStringT@DV?$StrTraitMFC_DLL@DV?$ChTraitsCRT@D@ATL@@@@@ATL@@QAE@XZ
__unwindfunclet$??0CFloatingHogaDlg@@QAE@PAVCWnd@@@Z$3:
  00025	8b 4d f0	 mov	 ecx, DWORD PTR _this$[ebp]
  00028	81 c1 c8 00 00
	00		 add	 ecx, 200		; 000000c8H
  0002e	ff 25 00 00 00
	00		 jmp	 DWORD PTR __imp_??1?$CStringT@DV?$StrTraitMFC_DLL@DV?$ChTraitsCRT@D@ATL@@@@@ATL@@QAE@XZ
__unwindfunclet$??0CFloatingHogaDlg@@QAE@PAVCWnd@@@Z$4:
  00034	8b 4d f0	 mov	 ecx, DWORD PTR _this$[ebp]
  00037	81 c1 1c 01 00
	00		 add	 ecx, 284		; 0000011cH
  0003d	e9 00 00 00 00	 jmp	 ??1CFont@@UAE@XZ	; CFont::~CFont
__unwindfunclet$??0CFloatingHogaDlg@@QAE@PAVCWnd@@@Z$5:
  00042	8b 4d f0	 mov	 ecx, DWORD PTR _this$[ebp]
  00045	81 c1 88 01 00
	00		 add	 ecx, 392		; 00000188H
  0004b	e9 00 00 00 00	 jmp	 ??1?$CArray@PAVCHogaData@@PAV1@@@UAE@XZ ; CArray<CHogaData *,CHogaData *>::~CArray<CHogaData *,CHogaData *>
__unwindfunclet$??0CFloatingHogaDlg@@QAE@PAVCWnd@@@Z$6:
  00050	8b 4d f0	 mov	 ecx, DWORD PTR _this$[ebp]
  00053	81 c1 e4 01 00
	00		 add	 ecx, 484		; 000001e4H
  00059	ff 25 00 00 00
	00		 jmp	 DWORD PTR __imp_??1?$CStringT@DV?$StrTraitMFC_DLL@DV?$ChTraitsCRT@D@ATL@@@@@ATL@@QAE@XZ
__unwindfunclet$??0CFloatingHogaDlg@@QAE@PAVCWnd@@@Z$7:
  0005f	8b 4d f0	 mov	 ecx, DWORD PTR _this$[ebp]
  00062	81 c1 e8 01 00
	00		 add	 ecx, 488		; 000001e8H
  00068	ff 25 00 00 00
	00		 jmp	 DWORD PTR __imp_??1?$CStringT@DV?$StrTraitMFC_DLL@DV?$ChTraitsCRT@D@ATL@@@@@ATL@@QAE@XZ
__unwindfunclet$??0CFloatingHogaDlg@@QAE@PAVCWnd@@@Z$8:
  0006e	8b 4d f0	 mov	 ecx, DWORD PTR _this$[ebp]
  00071	81 c1 f4 01 00
	00		 add	 ecx, 500		; 000001f4H
  00077	ff 25 00 00 00
	00		 jmp	 DWORD PTR __imp_??1?$CStringT@DV?$StrTraitMFC_DLL@DV?$ChTraitsCRT@D@ATL@@@@@ATL@@QAE@XZ
__unwindfunclet$??0CFloatingHogaDlg@@QAE@PAVCWnd@@@Z$9:
  0007d	8b 4d f0	 mov	 ecx, DWORD PTR _this$[ebp]
  00080	81 c1 f8 01 00
	00		 add	 ecx, 504		; 000001f8H
  00086	ff 25 00 00 00
	00		 jmp	 DWORD PTR __imp_??1?$CStringT@DV?$StrTraitMFC_DLL@DV?$ChTraitsCRT@D@ATL@@@@@ATL@@QAE@XZ
__unwindfunclet$??0CFloatingHogaDlg@@QAE@PAVCWnd@@@Z$10:
  0008c	8b 4d f0	 mov	 ecx, DWORD PTR _this$[ebp]
  0008f	81 c1 0c 02 00
	00		 add	 ecx, 524		; 0000020cH
  00095	ff 25 00 00 00
	00		 jmp	 DWORD PTR __imp_??1?$CStringT@DV?$StrTraitMFC_DLL@DV?$ChTraitsCRT@D@ATL@@@@@ATL@@QAE@XZ
__unwindfunclet$??0CFloatingHogaDlg@@QAE@PAVCWnd@@@Z$11:
  0009b	8b 4d f0	 mov	 ecx, DWORD PTR _this$[ebp]
  0009e	81 c1 38 02 00
	00		 add	 ecx, 568		; 00000238H
  000a4	e9 00 00 00 00	 jmp	 ??1CPowLabel@@UAE@XZ	; CPowLabel::~CPowLabel
__unwindfunclet$??0CFloatingHogaDlg@@QAE@PAVCWnd@@@Z$12:
  000a9	8b 4d f0	 mov	 ecx, DWORD PTR _this$[ebp]
  000ac	81 c1 70 03 00
	00		 add	 ecx, 880		; 00000370H
  000b2	e9 00 00 00 00	 jmp	 ??1CPowLabel@@UAE@XZ	; CPowLabel::~CPowLabel
__unwindfunclet$??0CFloatingHogaDlg@@QAE@PAVCWnd@@@Z$13:
  000b7	8b 4d f0	 mov	 ecx, DWORD PTR _this$[ebp]
  000ba	81 c1 a8 04 00
	00		 add	 ecx, 1192		; 000004a8H
  000c0	e9 00 00 00 00	 jmp	 ??1CPowLabel@@UAE@XZ	; CPowLabel::~CPowLabel
__unwindfunclet$??0CFloatingHogaDlg@@QAE@PAVCWnd@@@Z$14:
  000c5	8b 4d f0	 mov	 ecx, DWORD PTR _this$[ebp]
  000c8	81 c1 e0 05 00
	00		 add	 ecx, 1504		; 000005e0H
  000ce	e9 00 00 00 00	 jmp	 ??1CButton@@UAE@XZ	; CButton::~CButton
  000d3	cc		 int	 3
  000d4	cc		 int	 3
  000d5	cc		 int	 3
  000d6	cc		 int	 3
  000d7	cc		 int	 3
__ehhandler$??0CFloatingHogaDlg@@QAE@PAVCWnd@@@Z:
  000d8	90		 npad	 1
  000d9	90		 npad	 1
  000da	8b 54 24 08	 mov	 edx, DWORD PTR [esp+8]
  000de	8d 42 0c	 lea	 eax, DWORD PTR [edx+12]
  000e1	8b 4a f0	 mov	 ecx, DWORD PTR [edx-16]
  000e4	33 c8		 xor	 ecx, eax
  000e6	e8 00 00 00 00	 call	 @__security_check_cookie@4
  000eb	b8 00 00 00 00	 mov	 eax, OFFSET __ehfuncinfo$??0CFloatingHogaDlg@@QAE@PAVCWnd@@@Z
  000f0	e9 00 00 00 00	 jmp	 ___CxxFrameHandler3
text$x	ENDS
??0CFloatingHogaDlg@@QAE@PAVCWnd@@@Z ENDP		; CFloatingHogaDlg::CFloatingHogaDlg
; Function compile flags: /Ogtp
; File D:\git\src\IBK\IBK_DRFN\ProjSrc\SrcDrfn\Chart\MULTICHART\FloatingHogaDlg.cpp
;	COMDAT ?SetMarkRealCurPrice@CFloatingHogaDlg@@QAEXPADH@Z
_TEXT	SEGMENT
_pData$ = 8						; size = 4
_nSize$ = 12						; size = 4
?SetMarkRealCurPrice@CFloatingHogaDlg@@QAEXPADH@Z PROC	; CFloatingHogaDlg::SetMarkRealCurPrice, COMDAT
; _this$ = ecx

; 2356 : //	STPriceData* Op = (STPriceData*) pData;
; 2357 : //
; 2358 : //	CString strPrice, strCode, sTemp1;	
; 2359 : //	strCode.Format("%*.*s",  sizeof(Op->shcode)	,sizeof(Op->shcode)	,Op->shcode); strCode.TrimLeft() ; strCode.TrimRight() ;
; 2360 : //
; 2361 : //	//  Return;
; 2362 : //	if(strCode.CompareNoCase(m_strCode) != 0) return;
; 2363 : //
; 2364 : //	// 
; 2365 : //	sTemp1.Format("%9.9s", Op->price);	sTemp1.TrimLeft();		sTemp1.TrimRight();	
; 2366 : //	strPrice = m_Util.GetComma(sTemp1);
; 2367 : //	m_strCurPrice = strPrice;
; 2368 : //	//strPrice.Format("%*.*s", sizeof(Op->price)	,sizeof(Op->price)	,Op->price)	; strPrice.TrimLeft(); strPrice.TrimRight();
; 2369 : //
; 2370 : ////	// ***** 10   *****
; 2371 : ////	int nHogaData[TENHOGA_SAVED_CNT] = {0,};
; 2372 : ////	if (m_bIsTenHoga == TRUE)
; 2373 : ////	{
; 2374 : ////		m_10HogaData.nHighLimit = m_nHighLimit;
; 2375 : ////		
; 2376 : ////		sTemp1 = m_pGridCtrl->GetItemText(ETC_HOGAUP_ROW, HOGA_COL);	sTemp1.Remove(',');
; 2377 : ////		m_10HogaData.nExtraUp = atoi(sTemp1);
; 2378 : ////		
; 2379 : ////		sTemp1 = m_pGridCtrl->GetItemText(m_nLowLimitRow-1, HOGA_COL);	sTemp1.Remove(',');
; 2380 : ////		m_10HogaData.nExtraDown = atoi(sTemp1);
; 2381 : ////		
; 2382 : ////		m_10HogaData.nLowLimit = m_nLowLimit;
; 2383 : ////
; 2384 : ////		memcpy(nHogaData, &m_10HogaData, TEN_HOGADATA_SIZE);
; 2385 : ////	}
; 2386 : ////	//*********************************
; 2387 : //
; 2388 : //
; 2389 : //
; 2390 : //	if (m_bIsTenHoga == TRUE)
; 2391 : //	{
; 2392 : //		int nHogaData[TENHOGA_SAVED_CNT] = {0,};	
; 2393 : //		m_10HogaData.nHighLimit = m_nHighLimit;
; 2394 : //		
; 2395 : //		sTemp1 = m_pGridCtrl->GetItemText(ETC_HOGAUP_ROW, HOGA_COL);	sTemp1.Remove(',');
; 2396 : //		m_10HogaData.nExtraUp = atoi(sTemp1);
; 2397 : //		
; 2398 : //		sTemp1 = m_pGridCtrl->GetItemText(m_nLowLimitRow-1, HOGA_COL);	sTemp1.Remove(',');
; 2399 : //		m_10HogaData.nExtraDown = atoi(sTemp1);
; 2400 : //		
; 2401 : //		m_10HogaData.nLowLimit = m_nLowLimit;
; 2402 : //
; 2403 : //		memcpy(nHogaData, &m_10HogaData, TEN_HOGADATA_SIZE);
; 2404 : //
; 2405 : //		// (    ) ----------------->>>
; 2406 : //		BOOL bFindRow = FALSE;
; 2407 : //		int nPriceTemp = atoi(m_Util.GetNumber(m_strCurPrice));//atoi(strPrice);
; 2408 : //
; 2409 : //		for(int nCnt = 1; nCnt < TENHOGA_SAVED_CNT-1; nCnt++)
; 2410 : //		{
; 2411 : //			if (nPriceTemp ==  nHogaData[nCnt])
; 2412 : //			{
; 2413 : //				bFindRow = TRUE;
; 2414 : //				m_nCurPriceRow = nCnt+HIGH_ROW;
; 2415 : //				break;
; 2416 : //			}
; 2417 : //		}
; 2418 : //		if (bFindRow == FALSE)
; 2419 : //		{
; 2420 : //			m_nCurPriceRow = -1;
; 2421 : //		}
; 2422 : //
; 2423 : //		m_pGridCtrl->SetCurPriceRow(m_nCurPriceRow);
; 2424 : //		// <<<---------------------------------------------------------
; 2425 : //
; 2426 : //
; 2427 : ///*		// (    ) ----------------->>>
; 2428 : //		BOOL bFindRow = FALSE;
; 2429 : //		int nPriceTemp = atoi(m_Util.GetNumber(m_strCurPrice));
; 2430 : //
; 2431 : //		for(int nCnt = 1; nCnt < TENHOGA_SAVED_CNT-1; nCnt++)
; 2432 : //		{
; 2433 : //			if (nPriceTemp ==  nHogaData[nCnt])
; 2434 : //			{
; 2435 : //				bFindRow = TRUE;
; 2436 : //				m_nCurPriceRow = nCnt+HIGH_ROW;
; 2437 : //				break;
; 2438 : //			}
; 2439 : //		}
; 2440 : //		if (bFindRow == FALSE)
; 2441 : //		{
; 2442 : //			m_nCurPriceRow = -1;
; 2443 : //		}
; 2444 : //
; 2445 : //		m_pGridCtrl->SetCurPriceRow(m_nCurPriceRow);
; 2446 : //		// <<<---------------------------------------------------------*/
; 2447 : //	}
; 2448 : }

  00000	c2 08 00	 ret	 8
?SetMarkRealCurPrice@CFloatingHogaDlg@@QAEXPADH@Z ENDP	; CFloatingHogaDlg::SetMarkRealCurPrice
_TEXT	ENDS
; Function compile flags: /Ogtp
;	COMDAT ??1CKBREAL_KXYS@@QAE@XZ
_TEXT	SEGMENT
??1CKBREAL_KXYS@@QAE@XZ PROC				; CKBREAL_KXYS::~CKBREAL_KXYS, COMDAT
; _this$ = ecx
  00000	56		 push	 esi
  00001	8b f1		 mov	 esi, ecx
  00003	8d 4e 18	 lea	 ecx, DWORD PTR [esi+24]
  00006	ff 15 00 00 00
	00		 call	 DWORD PTR __imp_??1?$CStringT@DV?$StrTraitMFC_DLL@DV?$ChTraitsCRT@D@ATL@@@@@ATL@@QAE@XZ
  0000c	8d 4e 14	 lea	 ecx, DWORD PTR [esi+20]
  0000f	ff 15 00 00 00
	00		 call	 DWORD PTR __imp_??1?$CStringT@DV?$StrTraitMFC_DLL@DV?$ChTraitsCRT@D@ATL@@@@@ATL@@QAE@XZ
  00015	8d 4e 10	 lea	 ecx, DWORD PTR [esi+16]
  00018	ff 15 00 00 00
	00		 call	 DWORD PTR __imp_??1?$CStringT@DV?$StrTraitMFC_DLL@DV?$ChTraitsCRT@D@ATL@@@@@ATL@@QAE@XZ
  0001e	8d 4e 0c	 lea	 ecx, DWORD PTR [esi+12]
  00021	ff 15 00 00 00
	00		 call	 DWORD PTR __imp_??1?$CStringT@DV?$StrTraitMFC_DLL@DV?$ChTraitsCRT@D@ATL@@@@@ATL@@QAE@XZ
  00027	8d 4e 08	 lea	 ecx, DWORD PTR [esi+8]
  0002a	ff 15 00 00 00
	00		 call	 DWORD PTR __imp_??1?$CStringT@DV?$StrTraitMFC_DLL@DV?$ChTraitsCRT@D@ATL@@@@@ATL@@QAE@XZ
  00030	8d 4e 04	 lea	 ecx, DWORD PTR [esi+4]
  00033	5e		 pop	 esi
  00034	ff 25 00 00 00
	00		 jmp	 DWORD PTR __imp_??1?$CStringT@DV?$StrTraitMFC_DLL@DV?$ChTraitsCRT@D@ATL@@@@@ATL@@QAE@XZ
??1CKBREAL_KXYS@@QAE@XZ ENDP				; CKBREAL_KXYS::~CKBREAL_KXYS
_TEXT	ENDS
; Function compile flags: /Ogtp
; File D:\git\src\IBK\IBK_DRFN\ProjSrc\SrcDrfn\Chart\MULTICHART\FloatingHogaDlg.h
;	COMDAT ?Convert@CKBREAL_KXYS@@UAEXPAU_KXYS_OutBlock@@@Z
_TEXT	SEGMENT
_sTemp1$ = -44						; size = 4
_sTmp$ = -40						; size = 21
__$ArrayPad$ = -16					; size = 4
__$EHRec$ = -12						; size = 12
_pInput$ = 8						; size = 4
?Convert@CKBREAL_KXYS@@UAEXPAU_KXYS_OutBlock@@@Z PROC	; CKBREAL_KXYS::Convert, COMDAT
; _this$ = ecx

; 62   : 	{

  00000	55		 push	 ebp
  00001	8b ec		 mov	 ebp, esp
  00003	6a ff		 push	 -1
  00005	68 00 00 00 00	 push	 __ehhandler$?Convert@CKBREAL_KXYS@@UAEXPAU_KXYS_OutBlock@@@Z
  0000a	64 a1 00 00 00
	00		 mov	 eax, DWORD PTR fs:0
  00010	50		 push	 eax
  00011	83 ec 20	 sub	 esp, 32			; 00000020H
  00014	a1 00 00 00 00	 mov	 eax, DWORD PTR ___security_cookie
  00019	33 c5		 xor	 eax, ebp
  0001b	89 45 f0	 mov	 DWORD PTR __$ArrayPad$[ebp], eax
  0001e	53		 push	 ebx
  0001f	56		 push	 esi
  00020	57		 push	 edi
  00021	50		 push	 eax
  00022	8d 45 f4	 lea	 eax, DWORD PTR __$EHRec$[ebp]
  00025	64 a3 00 00 00
	00		 mov	 DWORD PTR fs:0, eax
  0002b	8b d9		 mov	 ebx, ecx
  0002d	8b 7d 08	 mov	 edi, DWORD PTR _pInput$[ebp]

; 63   : 		CString sTemp1 ;

  00030	8d 4d d4	 lea	 ecx, DWORD PTR _sTemp1$[ebp]
  00033	ff 15 00 00 00
	00		 call	 DWORD PTR __imp_??0?$CStringT@DV?$StrTraitMFC_DLL@DV?$ChTraitsCRT@D@ATL@@@@@ATL@@QAE@XZ

; 64   : 		char sTmp[20+1];
; 65   : 
; 66   : //>> [QC No]090803HMC075
; 67   : 		DATA_MEMCOPY(sTmp, pInput, kshcode);	

  00039	8b 07		 mov	 eax, DWORD PTR [edi]
  0003b	8d 4b 04	 lea	 ecx, DWORD PTR [ebx+4]
  0003e	89 45 d8	 mov	 DWORD PTR _sTmp$[ebp], eax
  00041	0f b7 47 04	 movzx	 eax, WORD PTR [edi+4]
  00045	66 89 45 dc	 mov	 WORD PTR _sTmp$[ebp+4], ax
  00049	8d 45 d8	 lea	 eax, DWORD PTR _sTmp$[ebp]
  0004c	50		 push	 eax
  0004d	c7 45 fc 00 00
	00 00		 mov	 DWORD PTR __$EHRec$[ebp+8], 0
  00054	c6 45 de 00	 mov	 BYTE PTR _sTmp$[ebp+6], 0
  00058	ff 15 00 00 00
	00		 call	 DWORD PTR __imp_??4?$CStringT@DV?$StrTraitMFC_DLL@DV?$ChTraitsCRT@D@ATL@@@@@ATL@@QAEAAV01@PBD@Z
  0005e	8d 4b 04	 lea	 ecx, DWORD PTR [ebx+4]
  00061	ff 15 00 00 00
	00		 call	 DWORD PTR __imp_?TrimLeft@?$CStringT@DV?$StrTraitMFC_DLL@DV?$ChTraitsCRT@D@ATL@@@@@ATL@@QAEAAV12@XZ
  00067	8d 4b 04	 lea	 ecx, DWORD PTR [ebx+4]
  0006a	ff 15 00 00 00
	00		 call	 DWORD PTR __imp_?TrimRight@?$CStringT@DV?$StrTraitMFC_DLL@DV?$ChTraitsCRT@D@ATL@@@@@ATL@@QAEAAV12@XZ

; 68   : //		DATA_MEMCOPY(sTmp, pInput, preychange);	
; 69   : 		DATA_MEMCOPY(sTmp, pInput, jnilychange);	

  00070	8b 47 2b	 mov	 eax, DWORD PTR [edi+43]
  00073	8b 4f 2f	 mov	 ecx, DWORD PTR [edi+47]
  00076	89 45 d8	 mov	 DWORD PTR _sTmp$[ebp], eax
  00079	8d 45 d8	 lea	 eax, DWORD PTR _sTmp$[ebp]
  0007c	89 4d dc	 mov	 DWORD PTR _sTmp$[ebp+4], ecx
  0007f	8d 4b 08	 lea	 ecx, DWORD PTR [ebx+8]
  00082	50		 push	 eax
  00083	c6 45 e0 00	 mov	 BYTE PTR _sTmp$[ebp+8], 0
  00087	ff 15 00 00 00
	00		 call	 DWORD PTR __imp_??4?$CStringT@DV?$StrTraitMFC_DLL@DV?$ChTraitsCRT@D@ATL@@@@@ATL@@QAEAAV01@PBD@Z
  0008d	8d 4b 08	 lea	 ecx, DWORD PTR [ebx+8]
  00090	ff 15 00 00 00
	00		 call	 DWORD PTR __imp_?TrimLeft@?$CStringT@DV?$StrTraitMFC_DLL@DV?$ChTraitsCRT@D@ATL@@@@@ATL@@QAEAAV12@XZ
  00096	8d 4b 08	 lea	 ecx, DWORD PTR [ebx+8]
  00099	ff 15 00 00 00
	00		 call	 DWORD PTR __imp_?TrimRight@?$CStringT@DV?$StrTraitMFC_DLL@DV?$ChTraitsCRT@D@ATL@@@@@ATL@@QAEAAV12@XZ

; 70   : 		DATA_MEMCOPY(sTmp, pInput, yeprice);	

  0009f	8b 47 0e	 mov	 eax, DWORD PTR [edi+14]
  000a2	8b 4f 12	 mov	 ecx, DWORD PTR [edi+18]
  000a5	89 45 d8	 mov	 DWORD PTR _sTmp$[ebp], eax
  000a8	8d 45 d8	 lea	 eax, DWORD PTR _sTmp$[ebp]
  000ab	89 4d dc	 mov	 DWORD PTR _sTmp$[ebp+4], ecx
  000ae	8d 4b 0c	 lea	 ecx, DWORD PTR [ebx+12]
  000b1	50		 push	 eax
  000b2	c6 45 e0 00	 mov	 BYTE PTR _sTmp$[ebp+8], 0
  000b6	ff 15 00 00 00
	00		 call	 DWORD PTR __imp_??4?$CStringT@DV?$StrTraitMFC_DLL@DV?$ChTraitsCRT@D@ATL@@@@@ATL@@QAEAAV01@PBD@Z
  000bc	8d 4b 0c	 lea	 ecx, DWORD PTR [ebx+12]
  000bf	ff 15 00 00 00
	00		 call	 DWORD PTR __imp_?TrimLeft@?$CStringT@DV?$StrTraitMFC_DLL@DV?$ChTraitsCRT@D@ATL@@@@@ATL@@QAEAAV12@XZ
  000c5	8d 4b 0c	 lea	 ecx, DWORD PTR [ebx+12]
  000c8	ff 15 00 00 00
	00		 call	 DWORD PTR __imp_?TrimRight@?$CStringT@DV?$StrTraitMFC_DLL@DV?$ChTraitsCRT@D@ATL@@@@@ATL@@QAEAAV12@XZ

; 71   : 		DATA_MEMCOPY(sTmp, pInput, yevolume);	

  000ce	8b 47 4c	 mov	 eax, DWORD PTR [edi+76]
  000d1	8d 4b 10	 lea	 ecx, DWORD PTR [ebx+16]
  000d4	f3 0f 7e 47 44	 movq	 xmm0, QWORD PTR [edi+68]
  000d9	89 45 e0	 mov	 DWORD PTR _sTmp$[ebp+8], eax
  000dc	8d 45 d8	 lea	 eax, DWORD PTR _sTmp$[ebp]
  000df	50		 push	 eax
  000e0	66 0f d6 45 d8	 movq	 QWORD PTR _sTmp$[ebp], xmm0
  000e5	c6 45 e4 00	 mov	 BYTE PTR _sTmp$[ebp+12], 0
  000e9	ff 15 00 00 00
	00		 call	 DWORD PTR __imp_??4?$CStringT@DV?$StrTraitMFC_DLL@DV?$ChTraitsCRT@D@ATL@@@@@ATL@@QAEAAV01@PBD@Z
  000ef	8d 4b 10	 lea	 ecx, DWORD PTR [ebx+16]
  000f2	ff 15 00 00 00
	00		 call	 DWORD PTR __imp_?TrimLeft@?$CStringT@DV?$StrTraitMFC_DLL@DV?$ChTraitsCRT@D@ATL@@@@@ATL@@QAEAAV12@XZ
  000f8	8d 4b 10	 lea	 ecx, DWORD PTR [ebx+16]
  000fb	ff 15 00 00 00
	00		 call	 DWORD PTR __imp_?TrimRight@?$CStringT@DV?$StrTraitMFC_DLL@DV?$ChTraitsCRT@D@ATL@@@@@ATL@@QAEAAV12@XZ

; 72   : //		DATA_MEMCOPY(sTmp, pInput, preysign);	
; 73   : 		DATA_MEMCOPY(sTmp, pInput, jnilysign);	

  00101	8a 47 29	 mov	 al, BYTE PTR [edi+41]
  00104	8d 4b 14	 lea	 ecx, DWORD PTR [ebx+20]
  00107	88 45 d8	 mov	 BYTE PTR _sTmp$[ebp], al
  0010a	8d 45 d8	 lea	 eax, DWORD PTR _sTmp$[ebp]
  0010d	50		 push	 eax
  0010e	c6 45 d9 00	 mov	 BYTE PTR _sTmp$[ebp+1], 0
  00112	ff 15 00 00 00
	00		 call	 DWORD PTR __imp_??4?$CStringT@DV?$StrTraitMFC_DLL@DV?$ChTraitsCRT@D@ATL@@@@@ATL@@QAEAAV01@PBD@Z
  00118	8d 4b 14	 lea	 ecx, DWORD PTR [ebx+20]
  0011b	ff 15 00 00 00
	00		 call	 DWORD PTR __imp_?TrimLeft@?$CStringT@DV?$StrTraitMFC_DLL@DV?$ChTraitsCRT@D@ATL@@@@@ATL@@QAEAAV12@XZ
  00121	8d 4b 14	 lea	 ecx, DWORD PTR [ebx+20]
  00124	ff 15 00 00 00
	00		 call	 DWORD PTR __imp_?TrimRight@?$CStringT@DV?$StrTraitMFC_DLL@DV?$ChTraitsCRT@D@ATL@@@@@ATL@@QAEAAV12@XZ

; 74   : 		DATA_MEMCOPY(sTmp, pInput, jnilydrate);	

  0012a	8b 47 34	 mov	 eax, DWORD PTR [edi+52]
  0012d	8d 4b 18	 lea	 ecx, DWORD PTR [ebx+24]
  00130	89 45 d8	 mov	 DWORD PTR _sTmp$[ebp], eax
  00133	0f b7 47 38	 movzx	 eax, WORD PTR [edi+56]
  00137	66 89 45 dc	 mov	 WORD PTR _sTmp$[ebp+4], ax
  0013b	8d 45 d8	 lea	 eax, DWORD PTR _sTmp$[ebp]
  0013e	50		 push	 eax
  0013f	c6 45 de 00	 mov	 BYTE PTR _sTmp$[ebp+6], 0
  00143	ff 15 00 00 00
	00		 call	 DWORD PTR __imp_??4?$CStringT@DV?$StrTraitMFC_DLL@DV?$ChTraitsCRT@D@ATL@@@@@ATL@@QAEAAV01@PBD@Z
  00149	8d 4b 18	 lea	 ecx, DWORD PTR [ebx+24]
  0014c	ff 15 00 00 00
	00		 call	 DWORD PTR __imp_?TrimLeft@?$CStringT@DV?$StrTraitMFC_DLL@DV?$ChTraitsCRT@D@ATL@@@@@ATL@@QAEAAV12@XZ
  00152	8d 4b 18	 lea	 ecx, DWORD PTR [ebx+24]
  00155	ff 15 00 00 00
	00		 call	 DWORD PTR __imp_?TrimRight@?$CStringT@DV?$StrTraitMFC_DLL@DV?$ChTraitsCRT@D@ATL@@@@@ATL@@QAEAAV12@XZ

; 75   : //<< [QC No]090803HMC075
; 76   : 	}

  0015b	8d 4d d4	 lea	 ecx, DWORD PTR _sTemp1$[ebp]
  0015e	ff 15 00 00 00
	00		 call	 DWORD PTR __imp_??1?$CStringT@DV?$StrTraitMFC_DLL@DV?$ChTraitsCRT@D@ATL@@@@@ATL@@QAE@XZ
  00164	8b 4d f4	 mov	 ecx, DWORD PTR __$EHRec$[ebp]
  00167	64 89 0d 00 00
	00 00		 mov	 DWORD PTR fs:0, ecx
  0016e	59		 pop	 ecx
  0016f	5f		 pop	 edi
  00170	5e		 pop	 esi
  00171	5b		 pop	 ebx
  00172	8b 4d f0	 mov	 ecx, DWORD PTR __$ArrayPad$[ebp]
  00175	33 cd		 xor	 ecx, ebp
  00177	e8 00 00 00 00	 call	 @__security_check_cookie@4
  0017c	8b e5		 mov	 esp, ebp
  0017e	5d		 pop	 ebp
  0017f	c2 04 00	 ret	 4
_TEXT	ENDS
;	COMDAT text$x
text$x	SEGMENT
__unwindfunclet$?Convert@CKBREAL_KXYS@@UAEXPAU_KXYS_OutBlock@@@Z$0:
  00000	8d 4d d4	 lea	 ecx, DWORD PTR _sTemp1$[ebp]
  00003	ff 25 00 00 00
	00		 jmp	 DWORD PTR __imp_??1?$CStringT@DV?$StrTraitMFC_DLL@DV?$ChTraitsCRT@D@ATL@@@@@ATL@@QAE@XZ
  00009	cc		 int	 3
  0000a	cc		 int	 3
  0000b	cc		 int	 3
  0000c	cc		 int	 3
  0000d	cc		 int	 3
__ehhandler$?Convert@CKBREAL_KXYS@@UAEXPAU_KXYS_OutBlock@@@Z:
  0000e	90		 npad	 1
  0000f	90		 npad	 1
  00010	8b 54 24 08	 mov	 edx, DWORD PTR [esp+8]
  00014	8d 42 0c	 lea	 eax, DWORD PTR [edx+12]
  00017	8b 4a d0	 mov	 ecx, DWORD PTR [edx-48]
  0001a	33 c8		 xor	 ecx, eax
  0001c	e8 00 00 00 00	 call	 @__security_check_cookie@4
  00021	8b 4a fc	 mov	 ecx, DWORD PTR [edx-4]
  00024	33 c8		 xor	 ecx, eax
  00026	e8 00 00 00 00	 call	 @__security_check_cookie@4
  0002b	b8 00 00 00 00	 mov	 eax, OFFSET __ehfuncinfo$?Convert@CKBREAL_KXYS@@UAEXPAU_KXYS_OutBlock@@@Z
  00030	e9 00 00 00 00	 jmp	 ___CxxFrameHandler3
text$x	ENDS
?Convert@CKBREAL_KXYS@@UAEXPAU_KXYS_OutBlock@@@Z ENDP	; CKBREAL_KXYS::Convert
; Function compile flags: /Ogtp
;	COMDAT ??1CKBREAL_KXH1@@QAE@XZ
_TEXT	SEGMENT
??1CKBREAL_KXH1@@QAE@XZ PROC				; CKBREAL_KXH1::~CKBREAL_KXH1, COMDAT
; _this$ = ecx
  00000	56		 push	 esi
  00001	8b f1		 mov	 esi, ecx
  00003	8d 4e 5c	 lea	 ecx, DWORD PTR [esi+92]
  00006	ff 15 00 00 00
	00		 call	 DWORD PTR __imp_??1?$CStringT@DV?$StrTraitMFC_DLL@DV?$ChTraitsCRT@D@ATL@@@@@ATL@@QAE@XZ
  0000c	8d 4e 58	 lea	 ecx, DWORD PTR [esi+88]
  0000f	ff 15 00 00 00
	00		 call	 DWORD PTR __imp_??1?$CStringT@DV?$StrTraitMFC_DLL@DV?$ChTraitsCRT@D@ATL@@@@@ATL@@QAE@XZ
  00015	8d 4e 54	 lea	 ecx, DWORD PTR [esi+84]
  00018	ff 15 00 00 00
	00		 call	 DWORD PTR __imp_??1?$CStringT@DV?$StrTraitMFC_DLL@DV?$ChTraitsCRT@D@ATL@@@@@ATL@@QAE@XZ
  0001e	8d 4e 50	 lea	 ecx, DWORD PTR [esi+80]
  00021	ff 15 00 00 00
	00		 call	 DWORD PTR __imp_??1?$CStringT@DV?$StrTraitMFC_DLL@DV?$ChTraitsCRT@D@ATL@@@@@ATL@@QAE@XZ
  00027	8d 4e 4c	 lea	 ecx, DWORD PTR [esi+76]
  0002a	ff 15 00 00 00
	00		 call	 DWORD PTR __imp_??1?$CStringT@DV?$StrTraitMFC_DLL@DV?$ChTraitsCRT@D@ATL@@@@@ATL@@QAE@XZ
  00030	8d 4e 48	 lea	 ecx, DWORD PTR [esi+72]
  00033	ff 15 00 00 00
	00		 call	 DWORD PTR __imp_??1?$CStringT@DV?$StrTraitMFC_DLL@DV?$ChTraitsCRT@D@ATL@@@@@ATL@@QAE@XZ
  00039	8d 4e 44	 lea	 ecx, DWORD PTR [esi+68]
  0003c	ff 15 00 00 00
	00		 call	 DWORD PTR __imp_??1?$CStringT@DV?$StrTraitMFC_DLL@DV?$ChTraitsCRT@D@ATL@@@@@ATL@@QAE@XZ
  00042	8d 4e 40	 lea	 ecx, DWORD PTR [esi+64]
  00045	ff 15 00 00 00
	00		 call	 DWORD PTR __imp_??1?$CStringT@DV?$StrTraitMFC_DLL@DV?$ChTraitsCRT@D@ATL@@@@@ATL@@QAE@XZ
  0004b	8d 4e 3c	 lea	 ecx, DWORD PTR [esi+60]
  0004e	ff 15 00 00 00
	00		 call	 DWORD PTR __imp_??1?$CStringT@DV?$StrTraitMFC_DLL@DV?$ChTraitsCRT@D@ATL@@@@@ATL@@QAE@XZ
  00054	8d 4e 38	 lea	 ecx, DWORD PTR [esi+56]
  00057	ff 15 00 00 00
	00		 call	 DWORD PTR __imp_??1?$CStringT@DV?$StrTraitMFC_DLL@DV?$ChTraitsCRT@D@ATL@@@@@ATL@@QAE@XZ
  0005d	8d 4e 34	 lea	 ecx, DWORD PTR [esi+52]
  00060	ff 15 00 00 00
	00		 call	 DWORD PTR __imp_??1?$CStringT@DV?$StrTraitMFC_DLL@DV?$ChTraitsCRT@D@ATL@@@@@ATL@@QAE@XZ
  00066	8d 4e 30	 lea	 ecx, DWORD PTR [esi+48]
  00069	ff 15 00 00 00
	00		 call	 DWORD PTR __imp_??1?$CStringT@DV?$StrTraitMFC_DLL@DV?$ChTraitsCRT@D@ATL@@@@@ATL@@QAE@XZ
  0006f	8d 4e 2c	 lea	 ecx, DWORD PTR [esi+44]
  00072	ff 15 00 00 00
	00		 call	 DWORD PTR __imp_??1?$CStringT@DV?$StrTraitMFC_DLL@DV?$ChTraitsCRT@D@ATL@@@@@ATL@@QAE@XZ
  00078	8d 4e 28	 lea	 ecx, DWORD PTR [esi+40]
  0007b	ff 15 00 00 00
	00		 call	 DWORD PTR __imp_??1?$CStringT@DV?$StrTraitMFC_DLL@DV?$ChTraitsCRT@D@ATL@@@@@ATL@@QAE@XZ
  00081	8d 4e 24	 lea	 ecx, DWORD PTR [esi+36]
  00084	ff 15 00 00 00
	00		 call	 DWORD PTR __imp_??1?$CStringT@DV?$StrTraitMFC_DLL@DV?$ChTraitsCRT@D@ATL@@@@@ATL@@QAE@XZ
  0008a	8d 4e 20	 lea	 ecx, DWORD PTR [esi+32]
  0008d	ff 15 00 00 00
	00		 call	 DWORD PTR __imp_??1?$CStringT@DV?$StrTraitMFC_DLL@DV?$ChTraitsCRT@D@ATL@@@@@ATL@@QAE@XZ
  00093	8d 4e 1c	 lea	 ecx, DWORD PTR [esi+28]
  00096	ff 15 00 00 00
	00		 call	 DWORD PTR __imp_??1?$CStringT@DV?$StrTraitMFC_DLL@DV?$ChTraitsCRT@D@ATL@@@@@ATL@@QAE@XZ
  0009c	8d 4e 18	 lea	 ecx, DWORD PTR [esi+24]
  0009f	ff 15 00 00 00
	00		 call	 DWORD PTR __imp_??1?$CStringT@DV?$StrTraitMFC_DLL@DV?$ChTraitsCRT@D@ATL@@@@@ATL@@QAE@XZ
  000a5	8d 4e 14	 lea	 ecx, DWORD PTR [esi+20]
  000a8	ff 15 00 00 00
	00		 call	 DWORD PTR __imp_??1?$CStringT@DV?$StrTraitMFC_DLL@DV?$ChTraitsCRT@D@ATL@@@@@ATL@@QAE@XZ
  000ae	8d 4e 10	 lea	 ecx, DWORD PTR [esi+16]
  000b1	ff 15 00 00 00
	00		 call	 DWORD PTR __imp_??1?$CStringT@DV?$StrTraitMFC_DLL@DV?$ChTraitsCRT@D@ATL@@@@@ATL@@QAE@XZ
  000b7	8d 4e 0c	 lea	 ecx, DWORD PTR [esi+12]
  000ba	ff 15 00 00 00
	00		 call	 DWORD PTR __imp_??1?$CStringT@DV?$StrTraitMFC_DLL@DV?$ChTraitsCRT@D@ATL@@@@@ATL@@QAE@XZ
  000c0	8d 4e 08	 lea	 ecx, DWORD PTR [esi+8]
  000c3	ff 15 00 00 00
	00		 call	 DWORD PTR __imp_??1?$CStringT@DV?$StrTraitMFC_DLL@DV?$ChTraitsCRT@D@ATL@@@@@ATL@@QAE@XZ
  000c9	8d 4e 04	 lea	 ecx, DWORD PTR [esi+4]
  000cc	5e		 pop	 esi
  000cd	ff 25 00 00 00
	00		 jmp	 DWORD PTR __imp_??1?$CStringT@DV?$StrTraitMFC_DLL@DV?$ChTraitsCRT@D@ATL@@@@@ATL@@QAE@XZ
??1CKBREAL_KXH1@@QAE@XZ ENDP				; CKBREAL_KXH1::~CKBREAL_KXH1
_TEXT	ENDS
; Function compile flags: /Ogtp
; File D:\git\src\IBK\IBK_DRFN\ProjSrc\SrcDrfn\Chart\CommonTR\KXH1.h
;	COMDAT ?Convert@CKBREAL_KXH1@@UAEXPAU_KXH1_OutBlock@@@Z
_TEXT	SEGMENT
_sTemp1$ = -44						; size = 4
_sTmp$ = -40						; size = 21
__$ArrayPad$ = -16					; size = 4
__$EHRec$ = -12						; size = 12
_pInput$ = 8						; size = 4
?Convert@CKBREAL_KXH1@@UAEXPAU_KXH1_OutBlock@@@Z PROC	; CKBREAL_KXH1::Convert, COMDAT
; _this$ = ecx

; 126  : 	{

  00000	55		 push	 ebp
  00001	8b ec		 mov	 ebp, esp
  00003	6a ff		 push	 -1
  00005	68 00 00 00 00	 push	 __ehhandler$?Convert@CKBREAL_KXH1@@UAEXPAU_KXH1_OutBlock@@@Z
  0000a	64 a1 00 00 00
	00		 mov	 eax, DWORD PTR fs:0
  00010	50		 push	 eax
  00011	83 ec 20	 sub	 esp, 32			; 00000020H
  00014	a1 00 00 00 00	 mov	 eax, DWORD PTR ___security_cookie
  00019	33 c5		 xor	 eax, ebp
  0001b	89 45 f0	 mov	 DWORD PTR __$ArrayPad$[ebp], eax
  0001e	53		 push	 ebx
  0001f	56		 push	 esi
  00020	57		 push	 edi
  00021	50		 push	 eax
  00022	8d 45 f4	 lea	 eax, DWORD PTR __$EHRec$[ebp]
  00025	64 a3 00 00 00
	00		 mov	 DWORD PTR fs:0, eax
  0002b	8b d9		 mov	 ebx, ecx
  0002d	8b 7d 08	 mov	 edi, DWORD PTR _pInput$[ebp]

; 127  : 		CString sTemp1 ;

  00030	8d 4d d4	 lea	 ecx, DWORD PTR _sTemp1$[ebp]
  00033	ff 15 00 00 00
	00		 call	 DWORD PTR __imp_??0?$CStringT@DV?$StrTraitMFC_DLL@DV?$ChTraitsCRT@D@ATL@@@@@ATL@@QAE@XZ

; 128  : 		char sTmp[20+1];
; 129  : 
; 130  : 		DATA_MEMCOPY(sTmp, pInput, kshcode);		/*  []				*/

  00039	8b 07		 mov	 eax, DWORD PTR [edi]
  0003b	8d 4b 04	 lea	 ecx, DWORD PTR [ebx+4]
  0003e	89 45 d8	 mov	 DWORD PTR _sTmp$[ebp], eax
  00041	66 8b 47 04	 mov	 ax, WORD PTR [edi+4]
  00045	66 89 45 dc	 mov	 WORD PTR _sTmp$[ebp+4], ax
  00049	8d 45 d8	 lea	 eax, DWORD PTR _sTmp$[ebp]
  0004c	50		 push	 eax
  0004d	c7 45 fc 00 00
	00 00		 mov	 DWORD PTR __$EHRec$[ebp+8], 0
  00054	c6 45 de 00	 mov	 BYTE PTR _sTmp$[ebp+6], 0
  00058	ff 15 00 00 00
	00		 call	 DWORD PTR __imp_??4?$CStringT@DV?$StrTraitMFC_DLL@DV?$ChTraitsCRT@D@ATL@@@@@ATL@@QAEAAV01@PBD@Z
  0005e	8d 4b 04	 lea	 ecx, DWORD PTR [ebx+4]
  00061	ff 15 00 00 00
	00		 call	 DWORD PTR __imp_?TrimLeft@?$CStringT@DV?$StrTraitMFC_DLL@DV?$ChTraitsCRT@D@ATL@@@@@ATL@@QAEAAV12@XZ
  00067	8d 4b 04	 lea	 ecx, DWORD PTR [ebx+4]
  0006a	ff 15 00 00 00
	00		 call	 DWORD PTR __imp_?TrimRight@?$CStringT@DV?$StrTraitMFC_DLL@DV?$ChTraitsCRT@D@ATL@@@@@ATL@@QAEAAV12@XZ

; 131  : 		DATA_MEMCOPY(sTmp, pInput, offerho1);		/*  [ 1]			*/

  00070	8b 47 0e	 mov	 eax, DWORD PTR [edi+14]
  00073	8b 4f 12	 mov	 ecx, DWORD PTR [edi+18]
  00076	89 45 d8	 mov	 DWORD PTR _sTmp$[ebp], eax
  00079	8d 45 d8	 lea	 eax, DWORD PTR _sTmp$[ebp]
  0007c	89 4d dc	 mov	 DWORD PTR _sTmp$[ebp+4], ecx
  0007f	8d 4b 08	 lea	 ecx, DWORD PTR [ebx+8]
  00082	50		 push	 eax
  00083	c6 45 e0 00	 mov	 BYTE PTR _sTmp$[ebp+8], 0
  00087	ff 15 00 00 00
	00		 call	 DWORD PTR __imp_??4?$CStringT@DV?$StrTraitMFC_DLL@DV?$ChTraitsCRT@D@ATL@@@@@ATL@@QAEAAV01@PBD@Z
  0008d	8d 4b 08	 lea	 ecx, DWORD PTR [ebx+8]
  00090	ff 15 00 00 00
	00		 call	 DWORD PTR __imp_?TrimLeft@?$CStringT@DV?$StrTraitMFC_DLL@DV?$ChTraitsCRT@D@ATL@@@@@ATL@@QAEAAV12@XZ
  00096	8d 4b 08	 lea	 ecx, DWORD PTR [ebx+8]
  00099	ff 15 00 00 00
	00		 call	 DWORD PTR __imp_?TrimRight@?$CStringT@DV?$StrTraitMFC_DLL@DV?$ChTraitsCRT@D@ATL@@@@@ATL@@QAEAAV12@XZ

; 132  : 		DATA_MEMCOPY(sTmp, pInput, bidho1);			/*  [ 1]			*/

  0009f	8b 47 17	 mov	 eax, DWORD PTR [edi+23]
  000a2	8b 4f 1b	 mov	 ecx, DWORD PTR [edi+27]
  000a5	89 45 d8	 mov	 DWORD PTR _sTmp$[ebp], eax
  000a8	8d 45 d8	 lea	 eax, DWORD PTR _sTmp$[ebp]
  000ab	89 4d dc	 mov	 DWORD PTR _sTmp$[ebp+4], ecx
  000ae	8d 4b 0c	 lea	 ecx, DWORD PTR [ebx+12]
  000b1	50		 push	 eax
  000b2	c6 45 e0 00	 mov	 BYTE PTR _sTmp$[ebp+8], 0
  000b6	ff 15 00 00 00
	00		 call	 DWORD PTR __imp_??4?$CStringT@DV?$StrTraitMFC_DLL@DV?$ChTraitsCRT@D@ATL@@@@@ATL@@QAEAAV01@PBD@Z
  000bc	8d 4b 0c	 lea	 ecx, DWORD PTR [ebx+12]
  000bf	ff 15 00 00 00
	00		 call	 DWORD PTR __imp_?TrimLeft@?$CStringT@DV?$StrTraitMFC_DLL@DV?$ChTraitsCRT@D@ATL@@@@@ATL@@QAEAAV12@XZ
  000c5	8d 4b 0c	 lea	 ecx, DWORD PTR [ebx+12]
  000c8	ff 15 00 00 00
	00		 call	 DWORD PTR __imp_?TrimRight@?$CStringT@DV?$StrTraitMFC_DLL@DV?$ChTraitsCRT@D@ATL@@@@@ATL@@QAEAAV12@XZ

; 133  : 		DATA_MEMCOPY(sTmp, pInput, offerrem1);		/*  [  1]		*/

  000ce	8b 47 28	 mov	 eax, DWORD PTR [edi+40]
  000d1	8d 4b 10	 lea	 ecx, DWORD PTR [ebx+16]
  000d4	f3 0f 7e 47 20	 movq	 xmm0, QWORD PTR [edi+32]
  000d9	89 45 e0	 mov	 DWORD PTR _sTmp$[ebp+8], eax
  000dc	8d 45 d8	 lea	 eax, DWORD PTR _sTmp$[ebp]
  000df	50		 push	 eax
  000e0	66 0f d6 45 d8	 movq	 QWORD PTR _sTmp$[ebp], xmm0
  000e5	c6 45 e4 00	 mov	 BYTE PTR _sTmp$[ebp+12], 0
  000e9	ff 15 00 00 00
	00		 call	 DWORD PTR __imp_??4?$CStringT@DV?$StrTraitMFC_DLL@DV?$ChTraitsCRT@D@ATL@@@@@ATL@@QAEAAV01@PBD@Z
  000ef	8d 4b 10	 lea	 ecx, DWORD PTR [ebx+16]
  000f2	ff 15 00 00 00
	00		 call	 DWORD PTR __imp_?TrimLeft@?$CStringT@DV?$StrTraitMFC_DLL@DV?$ChTraitsCRT@D@ATL@@@@@ATL@@QAEAAV12@XZ
  000f8	8d 4b 10	 lea	 ecx, DWORD PTR [ebx+16]
  000fb	ff 15 00 00 00
	00		 call	 DWORD PTR __imp_?TrimRight@?$CStringT@DV?$StrTraitMFC_DLL@DV?$ChTraitsCRT@D@ATL@@@@@ATL@@QAEAAV12@XZ

; 134  : 		DATA_MEMCOPY(sTmp, pInput, bidrem1);		/*  [  1]		*/

  00101	8b 47 35	 mov	 eax, DWORD PTR [edi+53]
  00104	8d 4b 14	 lea	 ecx, DWORD PTR [ebx+20]
  00107	f3 0f 7e 47 2d	 movq	 xmm0, QWORD PTR [edi+45]
  0010c	89 45 e0	 mov	 DWORD PTR _sTmp$[ebp+8], eax
  0010f	8d 45 d8	 lea	 eax, DWORD PTR _sTmp$[ebp]
  00112	50		 push	 eax
  00113	66 0f d6 45 d8	 movq	 QWORD PTR _sTmp$[ebp], xmm0
  00118	c6 45 e4 00	 mov	 BYTE PTR _sTmp$[ebp+12], 0
  0011c	ff 15 00 00 00
	00		 call	 DWORD PTR __imp_??4?$CStringT@DV?$StrTraitMFC_DLL@DV?$ChTraitsCRT@D@ATL@@@@@ATL@@QAEAAV01@PBD@Z
  00122	8d 4b 14	 lea	 ecx, DWORD PTR [ebx+20]
  00125	ff 15 00 00 00
	00		 call	 DWORD PTR __imp_?TrimLeft@?$CStringT@DV?$StrTraitMFC_DLL@DV?$ChTraitsCRT@D@ATL@@@@@ATL@@QAEAAV12@XZ
  0012b	8d 4b 14	 lea	 ecx, DWORD PTR [ebx+20]
  0012e	ff 15 00 00 00
	00		 call	 DWORD PTR __imp_?TrimRight@?$CStringT@DV?$StrTraitMFC_DLL@DV?$ChTraitsCRT@D@ATL@@@@@ATL@@QAEAAV12@XZ

; 135  : 		DATA_MEMCOPY(sTmp, pInput, offerho2);		/*  [ 2]			*/

  00134	8b 47 54	 mov	 eax, DWORD PTR [edi+84]
  00137	8b 4f 58	 mov	 ecx, DWORD PTR [edi+88]
  0013a	89 45 d8	 mov	 DWORD PTR _sTmp$[ebp], eax
  0013d	8d 45 d8	 lea	 eax, DWORD PTR _sTmp$[ebp]
  00140	89 4d dc	 mov	 DWORD PTR _sTmp$[ebp+4], ecx
  00143	8d 4b 18	 lea	 ecx, DWORD PTR [ebx+24]
  00146	50		 push	 eax
  00147	c6 45 e0 00	 mov	 BYTE PTR _sTmp$[ebp+8], 0
  0014b	ff 15 00 00 00
	00		 call	 DWORD PTR __imp_??4?$CStringT@DV?$StrTraitMFC_DLL@DV?$ChTraitsCRT@D@ATL@@@@@ATL@@QAEAAV01@PBD@Z
  00151	8d 4b 18	 lea	 ecx, DWORD PTR [ebx+24]
  00154	ff 15 00 00 00
	00		 call	 DWORD PTR __imp_?TrimLeft@?$CStringT@DV?$StrTraitMFC_DLL@DV?$ChTraitsCRT@D@ATL@@@@@ATL@@QAEAAV12@XZ
  0015a	8d 4b 18	 lea	 ecx, DWORD PTR [ebx+24]
  0015d	ff 15 00 00 00
	00		 call	 DWORD PTR __imp_?TrimRight@?$CStringT@DV?$StrTraitMFC_DLL@DV?$ChTraitsCRT@D@ATL@@@@@ATL@@QAEAAV12@XZ

; 136  : 		DATA_MEMCOPY(sTmp, pInput, bidho2);			/*  [ 2]			*/

  00163	8b 47 5d	 mov	 eax, DWORD PTR [edi+93]
  00166	8b 4f 61	 mov	 ecx, DWORD PTR [edi+97]
  00169	89 45 d8	 mov	 DWORD PTR _sTmp$[ebp], eax
  0016c	8d 45 d8	 lea	 eax, DWORD PTR _sTmp$[ebp]
  0016f	89 4d dc	 mov	 DWORD PTR _sTmp$[ebp+4], ecx
  00172	8d 4b 1c	 lea	 ecx, DWORD PTR [ebx+28]
  00175	50		 push	 eax
  00176	c6 45 e0 00	 mov	 BYTE PTR _sTmp$[ebp+8], 0
  0017a	ff 15 00 00 00
	00		 call	 DWORD PTR __imp_??4?$CStringT@DV?$StrTraitMFC_DLL@DV?$ChTraitsCRT@D@ATL@@@@@ATL@@QAEAAV01@PBD@Z
  00180	8d 4b 1c	 lea	 ecx, DWORD PTR [ebx+28]
  00183	ff 15 00 00 00
	00		 call	 DWORD PTR __imp_?TrimLeft@?$CStringT@DV?$StrTraitMFC_DLL@DV?$ChTraitsCRT@D@ATL@@@@@ATL@@QAEAAV12@XZ
  00189	8d 4b 1c	 lea	 ecx, DWORD PTR [ebx+28]
  0018c	ff 15 00 00 00
	00		 call	 DWORD PTR __imp_?TrimRight@?$CStringT@DV?$StrTraitMFC_DLL@DV?$ChTraitsCRT@D@ATL@@@@@ATL@@QAEAAV12@XZ

; 137  : 		DATA_MEMCOPY(sTmp, pInput, offerrem2);		/*  [  2]		*/

  00192	8b 47 6e	 mov	 eax, DWORD PTR [edi+110]
  00195	8d 4b 20	 lea	 ecx, DWORD PTR [ebx+32]
  00198	f3 0f 7e 47 66	 movq	 xmm0, QWORD PTR [edi+102]
  0019d	89 45 e0	 mov	 DWORD PTR _sTmp$[ebp+8], eax
  001a0	8d 45 d8	 lea	 eax, DWORD PTR _sTmp$[ebp]
  001a3	50		 push	 eax
  001a4	66 0f d6 45 d8	 movq	 QWORD PTR _sTmp$[ebp], xmm0
  001a9	c6 45 e4 00	 mov	 BYTE PTR _sTmp$[ebp+12], 0
  001ad	ff 15 00 00 00
	00		 call	 DWORD PTR __imp_??4?$CStringT@DV?$StrTraitMFC_DLL@DV?$ChTraitsCRT@D@ATL@@@@@ATL@@QAEAAV01@PBD@Z
  001b3	8d 4b 20	 lea	 ecx, DWORD PTR [ebx+32]
  001b6	ff 15 00 00 00
	00		 call	 DWORD PTR __imp_?TrimLeft@?$CStringT@DV?$StrTraitMFC_DLL@DV?$ChTraitsCRT@D@ATL@@@@@ATL@@QAEAAV12@XZ
  001bc	8d 4b 20	 lea	 ecx, DWORD PTR [ebx+32]
  001bf	ff 15 00 00 00
	00		 call	 DWORD PTR __imp_?TrimRight@?$CStringT@DV?$StrTraitMFC_DLL@DV?$ChTraitsCRT@D@ATL@@@@@ATL@@QAEAAV12@XZ

; 138  : 		DATA_MEMCOPY(sTmp, pInput, bidrem2);		/*  [  2]		*/

  001c5	8b 47 7b	 mov	 eax, DWORD PTR [edi+123]
  001c8	8d 4b 24	 lea	 ecx, DWORD PTR [ebx+36]
  001cb	f3 0f 7e 47 73	 movq	 xmm0, QWORD PTR [edi+115]
  001d0	89 45 e0	 mov	 DWORD PTR _sTmp$[ebp+8], eax
  001d3	8d 45 d8	 lea	 eax, DWORD PTR _sTmp$[ebp]
  001d6	50		 push	 eax
  001d7	66 0f d6 45 d8	 movq	 QWORD PTR _sTmp$[ebp], xmm0
  001dc	c6 45 e4 00	 mov	 BYTE PTR _sTmp$[ebp+12], 0
  001e0	ff 15 00 00 00
	00		 call	 DWORD PTR __imp_??4?$CStringT@DV?$StrTraitMFC_DLL@DV?$ChTraitsCRT@D@ATL@@@@@ATL@@QAEAAV01@PBD@Z
  001e6	8d 4b 24	 lea	 ecx, DWORD PTR [ebx+36]
  001e9	ff 15 00 00 00
	00		 call	 DWORD PTR __imp_?TrimLeft@?$CStringT@DV?$StrTraitMFC_DLL@DV?$ChTraitsCRT@D@ATL@@@@@ATL@@QAEAAV12@XZ
  001ef	8d 4b 24	 lea	 ecx, DWORD PTR [ebx+36]
  001f2	ff 15 00 00 00
	00		 call	 DWORD PTR __imp_?TrimRight@?$CStringT@DV?$StrTraitMFC_DLL@DV?$ChTraitsCRT@D@ATL@@@@@ATL@@QAEAAV12@XZ

; 139  : 		DATA_MEMCOPY(sTmp, pInput, offerho3);		/*  [ 3]			*/

  001f8	8b 87 9a 00 00
	00		 mov	 eax, DWORD PTR [edi+154]
  001fe	8b 8f 9e 00 00
	00		 mov	 ecx, DWORD PTR [edi+158]
  00204	89 45 d8	 mov	 DWORD PTR _sTmp$[ebp], eax
  00207	8d 45 d8	 lea	 eax, DWORD PTR _sTmp$[ebp]
  0020a	89 4d dc	 mov	 DWORD PTR _sTmp$[ebp+4], ecx
  0020d	8d 4b 28	 lea	 ecx, DWORD PTR [ebx+40]
  00210	50		 push	 eax
  00211	c6 45 e0 00	 mov	 BYTE PTR _sTmp$[ebp+8], 0
  00215	ff 15 00 00 00
	00		 call	 DWORD PTR __imp_??4?$CStringT@DV?$StrTraitMFC_DLL@DV?$ChTraitsCRT@D@ATL@@@@@ATL@@QAEAAV01@PBD@Z
  0021b	8d 4b 28	 lea	 ecx, DWORD PTR [ebx+40]
  0021e	ff 15 00 00 00
	00		 call	 DWORD PTR __imp_?TrimLeft@?$CStringT@DV?$StrTraitMFC_DLL@DV?$ChTraitsCRT@D@ATL@@@@@ATL@@QAEAAV12@XZ
  00224	8d 4b 28	 lea	 ecx, DWORD PTR [ebx+40]
  00227	ff 15 00 00 00
	00		 call	 DWORD PTR __imp_?TrimRight@?$CStringT@DV?$StrTraitMFC_DLL@DV?$ChTraitsCRT@D@ATL@@@@@ATL@@QAEAAV12@XZ

; 140  : 		DATA_MEMCOPY(sTmp, pInput, bidho3);			/*  [ 3]			*/

  0022d	8b 87 a3 00 00
	00		 mov	 eax, DWORD PTR [edi+163]
  00233	8b 8f a7 00 00
	00		 mov	 ecx, DWORD PTR [edi+167]
  00239	89 45 d8	 mov	 DWORD PTR _sTmp$[ebp], eax
  0023c	8d 45 d8	 lea	 eax, DWORD PTR _sTmp$[ebp]
  0023f	89 4d dc	 mov	 DWORD PTR _sTmp$[ebp+4], ecx
  00242	8d 4b 2c	 lea	 ecx, DWORD PTR [ebx+44]
  00245	50		 push	 eax
  00246	c6 45 e0 00	 mov	 BYTE PTR _sTmp$[ebp+8], 0
  0024a	ff 15 00 00 00
	00		 call	 DWORD PTR __imp_??4?$CStringT@DV?$StrTraitMFC_DLL@DV?$ChTraitsCRT@D@ATL@@@@@ATL@@QAEAAV01@PBD@Z
  00250	8d 4b 2c	 lea	 ecx, DWORD PTR [ebx+44]
  00253	ff 15 00 00 00
	00		 call	 DWORD PTR __imp_?TrimLeft@?$CStringT@DV?$StrTraitMFC_DLL@DV?$ChTraitsCRT@D@ATL@@@@@ATL@@QAEAAV12@XZ
  00259	8d 4b 2c	 lea	 ecx, DWORD PTR [ebx+44]
  0025c	ff 15 00 00 00
	00		 call	 DWORD PTR __imp_?TrimRight@?$CStringT@DV?$StrTraitMFC_DLL@DV?$ChTraitsCRT@D@ATL@@@@@ATL@@QAEAAV12@XZ

; 141  : 		DATA_MEMCOPY(sTmp, pInput, offerrem3);		/*  [  3]		*/

  00262	8b 87 b4 00 00
	00		 mov	 eax, DWORD PTR [edi+180]
  00268	8d 4b 30	 lea	 ecx, DWORD PTR [ebx+48]
  0026b	f3 0f 7e 87 ac
	00 00 00	 movq	 xmm0, QWORD PTR [edi+172]
  00273	89 45 e0	 mov	 DWORD PTR _sTmp$[ebp+8], eax
  00276	8d 45 d8	 lea	 eax, DWORD PTR _sTmp$[ebp]
  00279	50		 push	 eax
  0027a	66 0f d6 45 d8	 movq	 QWORD PTR _sTmp$[ebp], xmm0
  0027f	c6 45 e4 00	 mov	 BYTE PTR _sTmp$[ebp+12], 0
  00283	ff 15 00 00 00
	00		 call	 DWORD PTR __imp_??4?$CStringT@DV?$StrTraitMFC_DLL@DV?$ChTraitsCRT@D@ATL@@@@@ATL@@QAEAAV01@PBD@Z
  00289	8d 4b 30	 lea	 ecx, DWORD PTR [ebx+48]
  0028c	ff 15 00 00 00
	00		 call	 DWORD PTR __imp_?TrimLeft@?$CStringT@DV?$StrTraitMFC_DLL@DV?$ChTraitsCRT@D@ATL@@@@@ATL@@QAEAAV12@XZ
  00292	8d 4b 30	 lea	 ecx, DWORD PTR [ebx+48]
  00295	ff 15 00 00 00
	00		 call	 DWORD PTR __imp_?TrimRight@?$CStringT@DV?$StrTraitMFC_DLL@DV?$ChTraitsCRT@D@ATL@@@@@ATL@@QAEAAV12@XZ

; 142  : 		DATA_MEMCOPY(sTmp, pInput, bidrem3);		/*  [  3]		*/

  0029b	f3 0f 7e 87 b9
	00 00 00	 movq	 xmm0, QWORD PTR [edi+185]
  002a3	8b 87 c1 00 00
	00		 mov	 eax, DWORD PTR [edi+193]
  002a9	8d 4b 34	 lea	 ecx, DWORD PTR [ebx+52]
  002ac	89 45 e0	 mov	 DWORD PTR _sTmp$[ebp+8], eax
  002af	8d 45 d8	 lea	 eax, DWORD PTR _sTmp$[ebp]
  002b2	50		 push	 eax
  002b3	66 0f d6 45 d8	 movq	 QWORD PTR _sTmp$[ebp], xmm0
  002b8	c6 45 e4 00	 mov	 BYTE PTR _sTmp$[ebp+12], 0
  002bc	ff 15 00 00 00
	00		 call	 DWORD PTR __imp_??4?$CStringT@DV?$StrTraitMFC_DLL@DV?$ChTraitsCRT@D@ATL@@@@@ATL@@QAEAAV01@PBD@Z
  002c2	8d 4b 34	 lea	 ecx, DWORD PTR [ebx+52]
  002c5	ff 15 00 00 00
	00		 call	 DWORD PTR __imp_?TrimLeft@?$CStringT@DV?$StrTraitMFC_DLL@DV?$ChTraitsCRT@D@ATL@@@@@ATL@@QAEAAV12@XZ
  002cb	8d 4b 34	 lea	 ecx, DWORD PTR [ebx+52]
  002ce	ff 15 00 00 00
	00		 call	 DWORD PTR __imp_?TrimRight@?$CStringT@DV?$StrTraitMFC_DLL@DV?$ChTraitsCRT@D@ATL@@@@@ATL@@QAEAAV12@XZ

; 143  : 		DATA_MEMCOPY(sTmp, pInput, offerho4);		/*  [ 4]			*/

  002d4	8b 87 e0 00 00
	00		 mov	 eax, DWORD PTR [edi+224]
  002da	8b 8f e4 00 00
	00		 mov	 ecx, DWORD PTR [edi+228]
  002e0	89 45 d8	 mov	 DWORD PTR _sTmp$[ebp], eax
  002e3	8d 45 d8	 lea	 eax, DWORD PTR _sTmp$[ebp]
  002e6	89 4d dc	 mov	 DWORD PTR _sTmp$[ebp+4], ecx
  002e9	8d 4b 38	 lea	 ecx, DWORD PTR [ebx+56]
  002ec	50		 push	 eax
  002ed	c6 45 e0 00	 mov	 BYTE PTR _sTmp$[ebp+8], 0
  002f1	ff 15 00 00 00
	00		 call	 DWORD PTR __imp_??4?$CStringT@DV?$StrTraitMFC_DLL@DV?$ChTraitsCRT@D@ATL@@@@@ATL@@QAEAAV01@PBD@Z
  002f7	8d 4b 38	 lea	 ecx, DWORD PTR [ebx+56]
  002fa	ff 15 00 00 00
	00		 call	 DWORD PTR __imp_?TrimLeft@?$CStringT@DV?$StrTraitMFC_DLL@DV?$ChTraitsCRT@D@ATL@@@@@ATL@@QAEAAV12@XZ
  00300	8d 4b 38	 lea	 ecx, DWORD PTR [ebx+56]
  00303	ff 15 00 00 00
	00		 call	 DWORD PTR __imp_?TrimRight@?$CStringT@DV?$StrTraitMFC_DLL@DV?$ChTraitsCRT@D@ATL@@@@@ATL@@QAEAAV12@XZ

; 144  : 		DATA_MEMCOPY(sTmp, pInput, bidho4);			/*  [ 4]			*/

  00309	8b 87 e9 00 00
	00		 mov	 eax, DWORD PTR [edi+233]
  0030f	8b 8f ed 00 00
	00		 mov	 ecx, DWORD PTR [edi+237]
  00315	89 45 d8	 mov	 DWORD PTR _sTmp$[ebp], eax
  00318	8d 45 d8	 lea	 eax, DWORD PTR _sTmp$[ebp]
  0031b	89 4d dc	 mov	 DWORD PTR _sTmp$[ebp+4], ecx
  0031e	8d 4b 3c	 lea	 ecx, DWORD PTR [ebx+60]
  00321	50		 push	 eax
  00322	c6 45 e0 00	 mov	 BYTE PTR _sTmp$[ebp+8], 0
  00326	ff 15 00 00 00
	00		 call	 DWORD PTR __imp_??4?$CStringT@DV?$StrTraitMFC_DLL@DV?$ChTraitsCRT@D@ATL@@@@@ATL@@QAEAAV01@PBD@Z
  0032c	8d 4b 3c	 lea	 ecx, DWORD PTR [ebx+60]
  0032f	ff 15 00 00 00
	00		 call	 DWORD PTR __imp_?TrimLeft@?$CStringT@DV?$StrTraitMFC_DLL@DV?$ChTraitsCRT@D@ATL@@@@@ATL@@QAEAAV12@XZ
  00335	8d 4b 3c	 lea	 ecx, DWORD PTR [ebx+60]
  00338	ff 15 00 00 00
	00		 call	 DWORD PTR __imp_?TrimRight@?$CStringT@DV?$StrTraitMFC_DLL@DV?$ChTraitsCRT@D@ATL@@@@@ATL@@QAEAAV12@XZ

; 145  : 		DATA_MEMCOPY(sTmp, pInput, offerrem4);		/*  [  4]		*/

  0033e	8b 87 fa 00 00
	00		 mov	 eax, DWORD PTR [edi+250]
  00344	8d 4b 40	 lea	 ecx, DWORD PTR [ebx+64]
  00347	f3 0f 7e 87 f2
	00 00 00	 movq	 xmm0, QWORD PTR [edi+242]
  0034f	89 45 e0	 mov	 DWORD PTR _sTmp$[ebp+8], eax
  00352	8d 45 d8	 lea	 eax, DWORD PTR _sTmp$[ebp]
  00355	50		 push	 eax
  00356	66 0f d6 45 d8	 movq	 QWORD PTR _sTmp$[ebp], xmm0
  0035b	c6 45 e4 00	 mov	 BYTE PTR _sTmp$[ebp+12], 0
  0035f	ff 15 00 00 00
	00		 call	 DWORD PTR __imp_??4?$CStringT@DV?$StrTraitMFC_DLL@DV?$ChTraitsCRT@D@ATL@@@@@ATL@@QAEAAV01@PBD@Z
  00365	8d 4b 40	 lea	 ecx, DWORD PTR [ebx+64]
  00368	ff 15 00 00 00
	00		 call	 DWORD PTR __imp_?TrimLeft@?$CStringT@DV?$StrTraitMFC_DLL@DV?$ChTraitsCRT@D@ATL@@@@@ATL@@QAEAAV12@XZ
  0036e	8d 4b 40	 lea	 ecx, DWORD PTR [ebx+64]
  00371	ff 15 00 00 00
	00		 call	 DWORD PTR __imp_?TrimRight@?$CStringT@DV?$StrTraitMFC_DLL@DV?$ChTraitsCRT@D@ATL@@@@@ATL@@QAEAAV12@XZ

; 146  : 		DATA_MEMCOPY(sTmp, pInput, bidrem4);		/*  [  4]		*/

  00377	8b 87 07 01 00
	00		 mov	 eax, DWORD PTR [edi+263]
  0037d	8d 4b 44	 lea	 ecx, DWORD PTR [ebx+68]
  00380	f3 0f 7e 87 ff
	00 00 00	 movq	 xmm0, QWORD PTR [edi+255]
  00388	89 45 e0	 mov	 DWORD PTR _sTmp$[ebp+8], eax
  0038b	8d 45 d8	 lea	 eax, DWORD PTR _sTmp$[ebp]
  0038e	50		 push	 eax
  0038f	66 0f d6 45 d8	 movq	 QWORD PTR _sTmp$[ebp], xmm0
  00394	c6 45 e4 00	 mov	 BYTE PTR _sTmp$[ebp+12], 0
  00398	ff 15 00 00 00
	00		 call	 DWORD PTR __imp_??4?$CStringT@DV?$StrTraitMFC_DLL@DV?$ChTraitsCRT@D@ATL@@@@@ATL@@QAEAAV01@PBD@Z
  0039e	8d 4b 44	 lea	 ecx, DWORD PTR [ebx+68]
  003a1	ff 15 00 00 00
	00		 call	 DWORD PTR __imp_?TrimLeft@?$CStringT@DV?$StrTraitMFC_DLL@DV?$ChTraitsCRT@D@ATL@@@@@ATL@@QAEAAV12@XZ
  003a7	8d 4b 44	 lea	 ecx, DWORD PTR [ebx+68]
  003aa	ff 15 00 00 00
	00		 call	 DWORD PTR __imp_?TrimRight@?$CStringT@DV?$StrTraitMFC_DLL@DV?$ChTraitsCRT@D@ATL@@@@@ATL@@QAEAAV12@XZ

; 147  : 		DATA_MEMCOPY(sTmp, pInput, offerho5);		/*  [ 5]			*/

  003b0	8b 87 26 01 00
	00		 mov	 eax, DWORD PTR [edi+294]
  003b6	8b 8f 2a 01 00
	00		 mov	 ecx, DWORD PTR [edi+298]
  003bc	89 45 d8	 mov	 DWORD PTR _sTmp$[ebp], eax
  003bf	8d 45 d8	 lea	 eax, DWORD PTR _sTmp$[ebp]
  003c2	89 4d dc	 mov	 DWORD PTR _sTmp$[ebp+4], ecx
  003c5	8d 4b 48	 lea	 ecx, DWORD PTR [ebx+72]
  003c8	50		 push	 eax
  003c9	c6 45 e0 00	 mov	 BYTE PTR _sTmp$[ebp+8], 0
  003cd	ff 15 00 00 00
	00		 call	 DWORD PTR __imp_??4?$CStringT@DV?$StrTraitMFC_DLL@DV?$ChTraitsCRT@D@ATL@@@@@ATL@@QAEAAV01@PBD@Z
  003d3	8d 4b 48	 lea	 ecx, DWORD PTR [ebx+72]
  003d6	ff 15 00 00 00
	00		 call	 DWORD PTR __imp_?TrimLeft@?$CStringT@DV?$StrTraitMFC_DLL@DV?$ChTraitsCRT@D@ATL@@@@@ATL@@QAEAAV12@XZ
  003dc	8d 4b 48	 lea	 ecx, DWORD PTR [ebx+72]
  003df	ff 15 00 00 00
	00		 call	 DWORD PTR __imp_?TrimRight@?$CStringT@DV?$StrTraitMFC_DLL@DV?$ChTraitsCRT@D@ATL@@@@@ATL@@QAEAAV12@XZ

; 148  : 		DATA_MEMCOPY(sTmp, pInput, bidho5);			/*  [ 5]			*/

  003e5	8b 87 2f 01 00
	00		 mov	 eax, DWORD PTR [edi+303]
  003eb	8b 8f 33 01 00
	00		 mov	 ecx, DWORD PTR [edi+307]
  003f1	89 45 d8	 mov	 DWORD PTR _sTmp$[ebp], eax
  003f4	89 4d dc	 mov	 DWORD PTR _sTmp$[ebp+4], ecx
  003f7	8d 45 d8	 lea	 eax, DWORD PTR _sTmp$[ebp]
  003fa	c6 45 e0 00	 mov	 BYTE PTR _sTmp$[ebp+8], 0
  003fe	50		 push	 eax
  003ff	8d 4b 4c	 lea	 ecx, DWORD PTR [ebx+76]
  00402	ff 15 00 00 00
	00		 call	 DWORD PTR __imp_??4?$CStringT@DV?$StrTraitMFC_DLL@DV?$ChTraitsCRT@D@ATL@@@@@ATL@@QAEAAV01@PBD@Z
  00408	8d 4b 4c	 lea	 ecx, DWORD PTR [ebx+76]
  0040b	ff 15 00 00 00
	00		 call	 DWORD PTR __imp_?TrimLeft@?$CStringT@DV?$StrTraitMFC_DLL@DV?$ChTraitsCRT@D@ATL@@@@@ATL@@QAEAAV12@XZ
  00411	8d 4b 4c	 lea	 ecx, DWORD PTR [ebx+76]
  00414	ff 15 00 00 00
	00		 call	 DWORD PTR __imp_?TrimRight@?$CStringT@DV?$StrTraitMFC_DLL@DV?$ChTraitsCRT@D@ATL@@@@@ATL@@QAEAAV12@XZ

; 149  : 		DATA_MEMCOPY(sTmp, pInput, offerrem5);		/*  [  5]		*/

  0041a	8b 87 40 01 00
	00		 mov	 eax, DWORD PTR [edi+320]
  00420	8d 4b 50	 lea	 ecx, DWORD PTR [ebx+80]
  00423	f3 0f 7e 87 38
	01 00 00	 movq	 xmm0, QWORD PTR [edi+312]
  0042b	89 45 e0	 mov	 DWORD PTR _sTmp$[ebp+8], eax
  0042e	8d 45 d8	 lea	 eax, DWORD PTR _sTmp$[ebp]
  00431	50		 push	 eax
  00432	66 0f d6 45 d8	 movq	 QWORD PTR _sTmp$[ebp], xmm0
  00437	c6 45 e4 00	 mov	 BYTE PTR _sTmp$[ebp+12], 0
  0043b	ff 15 00 00 00
	00		 call	 DWORD PTR __imp_??4?$CStringT@DV?$StrTraitMFC_DLL@DV?$ChTraitsCRT@D@ATL@@@@@ATL@@QAEAAV01@PBD@Z
  00441	8d 4b 50	 lea	 ecx, DWORD PTR [ebx+80]
  00444	ff 15 00 00 00
	00		 call	 DWORD PTR __imp_?TrimLeft@?$CStringT@DV?$StrTraitMFC_DLL@DV?$ChTraitsCRT@D@ATL@@@@@ATL@@QAEAAV12@XZ
  0044a	8d 4b 50	 lea	 ecx, DWORD PTR [ebx+80]
  0044d	ff 15 00 00 00
	00		 call	 DWORD PTR __imp_?TrimRight@?$CStringT@DV?$StrTraitMFC_DLL@DV?$ChTraitsCRT@D@ATL@@@@@ATL@@QAEAAV12@XZ

; 150  : 		DATA_MEMCOPY(sTmp, pInput, bidrem5);		/*  [  5]		*/

  00453	8b 87 4d 01 00
	00		 mov	 eax, DWORD PTR [edi+333]
  00459	8d 4b 54	 lea	 ecx, DWORD PTR [ebx+84]
  0045c	f3 0f 7e 87 45
	01 00 00	 movq	 xmm0, QWORD PTR [edi+325]
  00464	89 45 e0	 mov	 DWORD PTR _sTmp$[ebp+8], eax
  00467	8d 45 d8	 lea	 eax, DWORD PTR _sTmp$[ebp]
  0046a	50		 push	 eax
  0046b	66 0f d6 45 d8	 movq	 QWORD PTR _sTmp$[ebp], xmm0
  00470	c6 45 e4 00	 mov	 BYTE PTR _sTmp$[ebp+12], 0
  00474	ff 15 00 00 00
	00		 call	 DWORD PTR __imp_??4?$CStringT@DV?$StrTraitMFC_DLL@DV?$ChTraitsCRT@D@ATL@@@@@ATL@@QAEAAV01@PBD@Z
  0047a	8d 4b 54	 lea	 ecx, DWORD PTR [ebx+84]
  0047d	ff 15 00 00 00
	00		 call	 DWORD PTR __imp_?TrimLeft@?$CStringT@DV?$StrTraitMFC_DLL@DV?$ChTraitsCRT@D@ATL@@@@@ATL@@QAEAAV12@XZ
  00483	8d 4b 54	 lea	 ecx, DWORD PTR [ebx+84]
  00486	ff 15 00 00 00
	00		 call	 DWORD PTR __imp_?TrimRight@?$CStringT@DV?$StrTraitMFC_DLL@DV?$ChTraitsCRT@D@ATL@@@@@ATL@@QAEAAV12@XZ

; 151  : 		DATA_MEMCOPY(sTmp, pInput, totofferrem);	/*  []		*/

  0048c	8b 87 d2 02 00
	00		 mov	 eax, DWORD PTR [edi+722]
  00492	8d 4b 58	 lea	 ecx, DWORD PTR [ebx+88]
  00495	f3 0f 7e 87 ca
	02 00 00	 movq	 xmm0, QWORD PTR [edi+714]
  0049d	89 45 e0	 mov	 DWORD PTR _sTmp$[ebp+8], eax
  004a0	8d 45 d8	 lea	 eax, DWORD PTR _sTmp$[ebp]
  004a3	50		 push	 eax
  004a4	66 0f d6 45 d8	 movq	 QWORD PTR _sTmp$[ebp], xmm0
  004a9	c6 45 e4 00	 mov	 BYTE PTR _sTmp$[ebp+12], 0
  004ad	ff 15 00 00 00
	00		 call	 DWORD PTR __imp_??4?$CStringT@DV?$StrTraitMFC_DLL@DV?$ChTraitsCRT@D@ATL@@@@@ATL@@QAEAAV01@PBD@Z
  004b3	8d 4b 58	 lea	 ecx, DWORD PTR [ebx+88]
  004b6	ff 15 00 00 00
	00		 call	 DWORD PTR __imp_?TrimLeft@?$CStringT@DV?$StrTraitMFC_DLL@DV?$ChTraitsCRT@D@ATL@@@@@ATL@@QAEAAV12@XZ
  004bc	8d 4b 58	 lea	 ecx, DWORD PTR [ebx+88]
  004bf	ff 15 00 00 00
	00		 call	 DWORD PTR __imp_?TrimRight@?$CStringT@DV?$StrTraitMFC_DLL@DV?$ChTraitsCRT@D@ATL@@@@@ATL@@QAEAAV12@XZ

; 152  : 		DATA_MEMCOPY(sTmp, pInput, totbidrem);		/*  []		*/

  004c5	8b 87 df 02 00
	00		 mov	 eax, DWORD PTR [edi+735]
  004cb	8d 4b 5c	 lea	 ecx, DWORD PTR [ebx+92]
  004ce	f3 0f 7e 87 d7
	02 00 00	 movq	 xmm0, QWORD PTR [edi+727]
  004d6	89 45 e0	 mov	 DWORD PTR _sTmp$[ebp+8], eax
  004d9	8d 45 d8	 lea	 eax, DWORD PTR _sTmp$[ebp]
  004dc	50		 push	 eax
  004dd	66 0f d6 45 d8	 movq	 QWORD PTR _sTmp$[ebp], xmm0
  004e2	c6 45 e4 00	 mov	 BYTE PTR _sTmp$[ebp+12], 0
  004e6	ff 15 00 00 00
	00		 call	 DWORD PTR __imp_??4?$CStringT@DV?$StrTraitMFC_DLL@DV?$ChTraitsCRT@D@ATL@@@@@ATL@@QAEAAV01@PBD@Z
  004ec	8d 4b 5c	 lea	 ecx, DWORD PTR [ebx+92]
  004ef	ff 15 00 00 00
	00		 call	 DWORD PTR __imp_?TrimLeft@?$CStringT@DV?$StrTraitMFC_DLL@DV?$ChTraitsCRT@D@ATL@@@@@ATL@@QAEAAV12@XZ
  004f5	8d 4b 5c	 lea	 ecx, DWORD PTR [ebx+92]
  004f8	ff 15 00 00 00
	00		 call	 DWORD PTR __imp_?TrimRight@?$CStringT@DV?$StrTraitMFC_DLL@DV?$ChTraitsCRT@D@ATL@@@@@ATL@@QAEAAV12@XZ

; 153  : 	}

  004fe	8d 4d d4	 lea	 ecx, DWORD PTR _sTemp1$[ebp]
  00501	ff 15 00 00 00
	00		 call	 DWORD PTR __imp_??1?$CStringT@DV?$StrTraitMFC_DLL@DV?$ChTraitsCRT@D@ATL@@@@@ATL@@QAE@XZ
  00507	8b 4d f4	 mov	 ecx, DWORD PTR __$EHRec$[ebp]
  0050a	64 89 0d 00 00
	00 00		 mov	 DWORD PTR fs:0, ecx
  00511	59		 pop	 ecx
  00512	5f		 pop	 edi
  00513	5e		 pop	 esi
  00514	5b		 pop	 ebx
  00515	8b 4d f0	 mov	 ecx, DWORD PTR __$ArrayPad$[ebp]
  00518	33 cd		 xor	 ecx, ebp
  0051a	e8 00 00 00 00	 call	 @__security_check_cookie@4
  0051f	8b e5		 mov	 esp, ebp
  00521	5d		 pop	 ebp
  00522	c2 04 00	 ret	 4
_TEXT	ENDS
;	COMDAT text$x
text$x	SEGMENT
__unwindfunclet$?Convert@CKBREAL_KXH1@@UAEXPAU_KXH1_OutBlock@@@Z$0:
  00000	8d 4d d4	 lea	 ecx, DWORD PTR _sTemp1$[ebp]
  00003	ff 25 00 00 00
	00		 jmp	 DWORD PTR __imp_??1?$CStringT@DV?$StrTraitMFC_DLL@DV?$ChTraitsCRT@D@ATL@@@@@ATL@@QAE@XZ
  00009	cc		 int	 3
  0000a	cc		 int	 3
  0000b	cc		 int	 3
  0000c	cc		 int	 3
  0000d	cc		 int	 3
__ehhandler$?Convert@CKBREAL_KXH1@@UAEXPAU_KXH1_OutBlock@@@Z:
  0000e	90		 npad	 1
  0000f	90		 npad	 1
  00010	8b 54 24 08	 mov	 edx, DWORD PTR [esp+8]
  00014	8d 42 0c	 lea	 eax, DWORD PTR [edx+12]
  00017	8b 4a d0	 mov	 ecx, DWORD PTR [edx-48]
  0001a	33 c8		 xor	 ecx, eax
  0001c	e8 00 00 00 00	 call	 @__security_check_cookie@4
  00021	8b 4a fc	 mov	 ecx, DWORD PTR [edx-4]
  00024	33 c8		 xor	 ecx, eax
  00026	e8 00 00 00 00	 call	 @__security_check_cookie@4
  0002b	b8 00 00 00 00	 mov	 eax, OFFSET __ehfuncinfo$?Convert@CKBREAL_KXH1@@UAEXPAU_KXH1_OutBlock@@@Z
  00030	e9 00 00 00 00	 jmp	 ___CxxFrameHandler3
text$x	ENDS
?Convert@CKBREAL_KXH1@@UAEXPAU_KXH1_OutBlock@@@Z ENDP	; CKBREAL_KXH1::Convert
; Function compile flags: /Ogtp
; File D:\git\src\IBK\IBK_DRFN\ProjSrc\SrcDrfn\Chart\CommonTR\KXH1.h
;	COMDAT ??0CKBREAL_KXH1@@QAE@XZ
_TEXT	SEGMENT
_this$ = -4						; size = 4
??0CKBREAL_KXH1@@QAE@XZ PROC				; CKBREAL_KXH1::CKBREAL_KXH1, COMDAT
; _this$ = ecx

; 121  : 	CKBREAL_KXH1()

  00000	55		 push	 ebp
  00001	8b ec		 mov	 ebp, esp
  00003	51		 push	 ecx
  00004	56		 push	 esi
  00005	8b f1		 mov	 esi, ecx
  00007	89 75 fc	 mov	 DWORD PTR _this$[ebp], esi
  0000a	8d 4e 04	 lea	 ecx, DWORD PTR [esi+4]
  0000d	c7 06 00 00 00
	00		 mov	 DWORD PTR [esi], OFFSET ??_7CKBREAL_KXH1@@6B@
  00013	ff 15 00 00 00
	00		 call	 DWORD PTR __imp_??0?$CStringT@DV?$StrTraitMFC_DLL@DV?$ChTraitsCRT@D@ATL@@@@@ATL@@QAE@XZ
  00019	8d 4e 08	 lea	 ecx, DWORD PTR [esi+8]
  0001c	ff 15 00 00 00
	00		 call	 DWORD PTR __imp_??0?$CStringT@DV?$StrTraitMFC_DLL@DV?$ChTraitsCRT@D@ATL@@@@@ATL@@QAE@XZ
  00022	8d 4e 0c	 lea	 ecx, DWORD PTR [esi+12]
  00025	ff 15 00 00 00
	00		 call	 DWORD PTR __imp_??0?$CStringT@DV?$StrTraitMFC_DLL@DV?$ChTraitsCRT@D@ATL@@@@@ATL@@QAE@XZ
  0002b	8d 4e 10	 lea	 ecx, DWORD PTR [esi+16]
  0002e	ff 15 00 00 00
	00		 call	 DWORD PTR __imp_??0?$CStringT@DV?$StrTraitMFC_DLL@DV?$ChTraitsCRT@D@ATL@@@@@ATL@@QAE@XZ
  00034	8d 4e 14	 lea	 ecx, DWORD PTR [esi+20]
  00037	ff 15 00 00 00
	00		 call	 DWORD PTR __imp_??0?$CStringT@DV?$StrTraitMFC_DLL@DV?$ChTraitsCRT@D@ATL@@@@@ATL@@QAE@XZ
  0003d	8d 4e 18	 lea	 ecx, DWORD PTR [esi+24]
  00040	ff 15 00 00 00
	00		 call	 DWORD PTR __imp_??0?$CStringT@DV?$StrTraitMFC_DLL@DV?$ChTraitsCRT@D@ATL@@@@@ATL@@QAE@XZ
  00046	8d 4e 1c	 lea	 ecx, DWORD PTR [esi+28]
  00049	ff 15 00 00 00
	00		 call	 DWORD PTR __imp_??0?$CStringT@DV?$StrTraitMFC_DLL@DV?$ChTraitsCRT@D@ATL@@@@@ATL@@QAE@XZ
  0004f	8d 4e 20	 lea	 ecx, DWORD PTR [esi+32]
  00052	ff 15 00 00 00
	00		 call	 DWORD PTR __imp_??0?$CStringT@DV?$StrTraitMFC_DLL@DV?$ChTraitsCRT@D@ATL@@@@@ATL@@QAE@XZ
  00058	8d 4e 24	 lea	 ecx, DWORD PTR [esi+36]
  0005b	ff 15 00 00 00
	00		 call	 DWORD PTR __imp_??0?$CStringT@DV?$StrTraitMFC_DLL@DV?$ChTraitsCRT@D@ATL@@@@@ATL@@QAE@XZ
  00061	8d 4e 28	 lea	 ecx, DWORD PTR [esi+40]
  00064	ff 15 00 00 00
	00		 call	 DWORD PTR __imp_??0?$CStringT@DV?$StrTraitMFC_DLL@DV?$ChTraitsCRT@D@ATL@@@@@ATL@@QAE@XZ
  0006a	8d 4e 2c	 lea	 ecx, DWORD PTR [esi+44]
  0006d	ff 15 00 00 00
	00		 call	 DWORD PTR __imp_??0?$CStringT@DV?$StrTraitMFC_DLL@DV?$ChTraitsCRT@D@ATL@@@@@ATL@@QAE@XZ
  00073	8d 4e 30	 lea	 ecx, DWORD PTR [esi+48]
  00076	ff 15 00 00 00
	00		 call	 DWORD PTR __imp_??0?$CStringT@DV?$StrTraitMFC_DLL@DV?$ChTraitsCRT@D@ATL@@@@@ATL@@QAE@XZ
  0007c	8d 4e 34	 lea	 ecx, DWORD PTR [esi+52]
  0007f	ff 15 00 00 00
	00		 call	 DWORD PTR __imp_??0?$CStringT@DV?$StrTraitMFC_DLL@DV?$ChTraitsCRT@D@ATL@@@@@ATL@@QAE@XZ
  00085	8d 4e 38	 lea	 ecx, DWORD PTR [esi+56]
  00088	ff 15 00 00 00
	00		 call	 DWORD PTR __imp_??0?$CStringT@DV?$StrTraitMFC_DLL@DV?$ChTraitsCRT@D@ATL@@@@@ATL@@QAE@XZ
  0008e	8d 4e 3c	 lea	 ecx, DWORD PTR [esi+60]
  00091	ff 15 00 00 00
	00		 call	 DWORD PTR __imp_??0?$CStringT@DV?$StrTraitMFC_DLL@DV?$ChTraitsCRT@D@ATL@@@@@ATL@@QAE@XZ
  00097	8d 4e 40	 lea	 ecx, DWORD PTR [esi+64]
  0009a	ff 15 00 00 00
	00		 call	 DWORD PTR __imp_??0?$CStringT@DV?$StrTraitMFC_DLL@DV?$ChTraitsCRT@D@ATL@@@@@ATL@@QAE@XZ
  000a0	8d 4e 44	 lea	 ecx, DWORD PTR [esi+68]
  000a3	ff 15 00 00 00
	00		 call	 DWORD PTR __imp_??0?$CStringT@DV?$StrTraitMFC_DLL@DV?$ChTraitsCRT@D@ATL@@@@@ATL@@QAE@XZ
  000a9	8d 4e 48	 lea	 ecx, DWORD PTR [esi+72]
  000ac	ff 15 00 00 00
	00		 call	 DWORD PTR __imp_??0?$CStringT@DV?$StrTraitMFC_DLL@DV?$ChTraitsCRT@D@ATL@@@@@ATL@@QAE@XZ
  000b2	8d 4e 4c	 lea	 ecx, DWORD PTR [esi+76]
  000b5	ff 15 00 00 00
	00		 call	 DWORD PTR __imp_??0?$CStringT@DV?$StrTraitMFC_DLL@DV?$ChTraitsCRT@D@ATL@@@@@ATL@@QAE@XZ
  000bb	8d 4e 50	 lea	 ecx, DWORD PTR [esi+80]
  000be	ff 15 00 00 00
	00		 call	 DWORD PTR __imp_??0?$CStringT@DV?$StrTraitMFC_DLL@DV?$ChTraitsCRT@D@ATL@@@@@ATL@@QAE@XZ
  000c4	8d 4e 54	 lea	 ecx, DWORD PTR [esi+84]
  000c7	ff 15 00 00 00
	00		 call	 DWORD PTR __imp_??0?$CStringT@DV?$StrTraitMFC_DLL@DV?$ChTraitsCRT@D@ATL@@@@@ATL@@QAE@XZ
  000cd	8d 4e 58	 lea	 ecx, DWORD PTR [esi+88]
  000d0	ff 15 00 00 00
	00		 call	 DWORD PTR __imp_??0?$CStringT@DV?$StrTraitMFC_DLL@DV?$ChTraitsCRT@D@ATL@@@@@ATL@@QAE@XZ
  000d6	8d 4e 5c	 lea	 ecx, DWORD PTR [esi+92]
  000d9	ff 15 00 00 00
	00		 call	 DWORD PTR __imp_??0?$CStringT@DV?$StrTraitMFC_DLL@DV?$ChTraitsCRT@D@ATL@@@@@ATL@@QAE@XZ

; 122  : 	{
; 123  : 	}

  000df	8b c6		 mov	 eax, esi
  000e1	5e		 pop	 esi
  000e2	8b e5		 mov	 esp, ebp
  000e4	5d		 pop	 ebp
  000e5	c3		 ret	 0
??0CKBREAL_KXH1@@QAE@XZ ENDP				; CKBREAL_KXH1::CKBREAL_KXH1
_TEXT	ENDS
; Function compile flags: /Ogtp
;	COMDAT ??1CKB_01230@@QAE@XZ
_TEXT	SEGMENT
??1CKB_01230@@QAE@XZ PROC				; CKB_01230::~CKB_01230, COMDAT
; _this$ = ecx
  00000	56		 push	 esi
  00001	8b f1		 mov	 esi, ecx
  00003	8d 8e a4 00 00
	00		 lea	 ecx, DWORD PTR [esi+164]
  00009	ff 15 00 00 00
	00		 call	 DWORD PTR __imp_??1?$CStringT@DV?$StrTraitMFC_DLL@DV?$ChTraitsCRT@D@ATL@@@@@ATL@@QAE@XZ
  0000f	8d 8e a0 00 00
	00		 lea	 ecx, DWORD PTR [esi+160]
  00015	ff 15 00 00 00
	00		 call	 DWORD PTR __imp_??1?$CStringT@DV?$StrTraitMFC_DLL@DV?$ChTraitsCRT@D@ATL@@@@@ATL@@QAE@XZ
  0001b	8d 8e 9c 00 00
	00		 lea	 ecx, DWORD PTR [esi+156]
  00021	ff 15 00 00 00
	00		 call	 DWORD PTR __imp_??1?$CStringT@DV?$StrTraitMFC_DLL@DV?$ChTraitsCRT@D@ATL@@@@@ATL@@QAE@XZ
  00027	8d 8e 98 00 00
	00		 lea	 ecx, DWORD PTR [esi+152]
  0002d	ff 15 00 00 00
	00		 call	 DWORD PTR __imp_??1?$CStringT@DV?$StrTraitMFC_DLL@DV?$ChTraitsCRT@D@ATL@@@@@ATL@@QAE@XZ
  00033	8d 8e 94 00 00
	00		 lea	 ecx, DWORD PTR [esi+148]
  00039	ff 15 00 00 00
	00		 call	 DWORD PTR __imp_??1?$CStringT@DV?$StrTraitMFC_DLL@DV?$ChTraitsCRT@D@ATL@@@@@ATL@@QAE@XZ
  0003f	8d 8e 90 00 00
	00		 lea	 ecx, DWORD PTR [esi+144]
  00045	ff 15 00 00 00
	00		 call	 DWORD PTR __imp_??1?$CStringT@DV?$StrTraitMFC_DLL@DV?$ChTraitsCRT@D@ATL@@@@@ATL@@QAE@XZ
  0004b	8d 8e 8c 00 00
	00		 lea	 ecx, DWORD PTR [esi+140]
  00051	ff 15 00 00 00
	00		 call	 DWORD PTR __imp_??1?$CStringT@DV?$StrTraitMFC_DLL@DV?$ChTraitsCRT@D@ATL@@@@@ATL@@QAE@XZ
  00057	8d 8e 88 00 00
	00		 lea	 ecx, DWORD PTR [esi+136]
  0005d	ff 15 00 00 00
	00		 call	 DWORD PTR __imp_??1?$CStringT@DV?$StrTraitMFC_DLL@DV?$ChTraitsCRT@D@ATL@@@@@ATL@@QAE@XZ
  00063	8d 8e 84 00 00
	00		 lea	 ecx, DWORD PTR [esi+132]
  00069	ff 15 00 00 00
	00		 call	 DWORD PTR __imp_??1?$CStringT@DV?$StrTraitMFC_DLL@DV?$ChTraitsCRT@D@ATL@@@@@ATL@@QAE@XZ
  0006f	8d 8e 80 00 00
	00		 lea	 ecx, DWORD PTR [esi+128]
  00075	ff 15 00 00 00
	00		 call	 DWORD PTR __imp_??1?$CStringT@DV?$StrTraitMFC_DLL@DV?$ChTraitsCRT@D@ATL@@@@@ATL@@QAE@XZ
  0007b	8d 4e 7c	 lea	 ecx, DWORD PTR [esi+124]
  0007e	ff 15 00 00 00
	00		 call	 DWORD PTR __imp_??1?$CStringT@DV?$StrTraitMFC_DLL@DV?$ChTraitsCRT@D@ATL@@@@@ATL@@QAE@XZ
  00084	8d 4e 78	 lea	 ecx, DWORD PTR [esi+120]
  00087	ff 15 00 00 00
	00		 call	 DWORD PTR __imp_??1?$CStringT@DV?$StrTraitMFC_DLL@DV?$ChTraitsCRT@D@ATL@@@@@ATL@@QAE@XZ
  0008d	8d 4e 74	 lea	 ecx, DWORD PTR [esi+116]
  00090	ff 15 00 00 00
	00		 call	 DWORD PTR __imp_??1?$CStringT@DV?$StrTraitMFC_DLL@DV?$ChTraitsCRT@D@ATL@@@@@ATL@@QAE@XZ
  00096	8d 4e 70	 lea	 ecx, DWORD PTR [esi+112]
  00099	ff 15 00 00 00
	00		 call	 DWORD PTR __imp_??1?$CStringT@DV?$StrTraitMFC_DLL@DV?$ChTraitsCRT@D@ATL@@@@@ATL@@QAE@XZ
  0009f	8d 4e 6c	 lea	 ecx, DWORD PTR [esi+108]
  000a2	ff 15 00 00 00
	00		 call	 DWORD PTR __imp_??1?$CStringT@DV?$StrTraitMFC_DLL@DV?$ChTraitsCRT@D@ATL@@@@@ATL@@QAE@XZ
  000a8	8d 4e 68	 lea	 ecx, DWORD PTR [esi+104]
  000ab	ff 15 00 00 00
	00		 call	 DWORD PTR __imp_??1?$CStringT@DV?$StrTraitMFC_DLL@DV?$ChTraitsCRT@D@ATL@@@@@ATL@@QAE@XZ
  000b1	8d 4e 64	 lea	 ecx, DWORD PTR [esi+100]
  000b4	ff 15 00 00 00
	00		 call	 DWORD PTR __imp_??1?$CStringT@DV?$StrTraitMFC_DLL@DV?$ChTraitsCRT@D@ATL@@@@@ATL@@QAE@XZ
  000ba	8d 4e 60	 lea	 ecx, DWORD PTR [esi+96]
  000bd	ff 15 00 00 00
	00		 call	 DWORD PTR __imp_??1?$CStringT@DV?$StrTraitMFC_DLL@DV?$ChTraitsCRT@D@ATL@@@@@ATL@@QAE@XZ
  000c3	8d 4e 5c	 lea	 ecx, DWORD PTR [esi+92]
  000c6	ff 15 00 00 00
	00		 call	 DWORD PTR __imp_??1?$CStringT@DV?$StrTraitMFC_DLL@DV?$ChTraitsCRT@D@ATL@@@@@ATL@@QAE@XZ
  000cc	8d 4e 58	 lea	 ecx, DWORD PTR [esi+88]
  000cf	ff 15 00 00 00
	00		 call	 DWORD PTR __imp_??1?$CStringT@DV?$StrTraitMFC_DLL@DV?$ChTraitsCRT@D@ATL@@@@@ATL@@QAE@XZ
  000d5	8d 4e 54	 lea	 ecx, DWORD PTR [esi+84]
  000d8	ff 15 00 00 00
	00		 call	 DWORD PTR __imp_??1?$CStringT@DV?$StrTraitMFC_DLL@DV?$ChTraitsCRT@D@ATL@@@@@ATL@@QAE@XZ
  000de	8d 4e 50	 lea	 ecx, DWORD PTR [esi+80]
  000e1	ff 15 00 00 00
	00		 call	 DWORD PTR __imp_??1?$CStringT@DV?$StrTraitMFC_DLL@DV?$ChTraitsCRT@D@ATL@@@@@ATL@@QAE@XZ
  000e7	8d 4e 4c	 lea	 ecx, DWORD PTR [esi+76]
  000ea	ff 15 00 00 00
	00		 call	 DWORD PTR __imp_??1?$CStringT@DV?$StrTraitMFC_DLL@DV?$ChTraitsCRT@D@ATL@@@@@ATL@@QAE@XZ
  000f0	8d 4e 48	 lea	 ecx, DWORD PTR [esi+72]
  000f3	ff 15 00 00 00
	00		 call	 DWORD PTR __imp_??1?$CStringT@DV?$StrTraitMFC_DLL@DV?$ChTraitsCRT@D@ATL@@@@@ATL@@QAE@XZ
  000f9	8d 4e 44	 lea	 ecx, DWORD PTR [esi+68]
  000fc	ff 15 00 00 00
	00		 call	 DWORD PTR __imp_??1?$CStringT@DV?$StrTraitMFC_DLL@DV?$ChTraitsCRT@D@ATL@@@@@ATL@@QAE@XZ
  00102	8d 4e 40	 lea	 ecx, DWORD PTR [esi+64]
  00105	ff 15 00 00 00
	00		 call	 DWORD PTR __imp_??1?$CStringT@DV?$StrTraitMFC_DLL@DV?$ChTraitsCRT@D@ATL@@@@@ATL@@QAE@XZ
  0010b	8d 4e 3c	 lea	 ecx, DWORD PTR [esi+60]
  0010e	ff 15 00 00 00
	00		 call	 DWORD PTR __imp_??1?$CStringT@DV?$StrTraitMFC_DLL@DV?$ChTraitsCRT@D@ATL@@@@@ATL@@QAE@XZ
  00114	8d 4e 38	 lea	 ecx, DWORD PTR [esi+56]
  00117	ff 15 00 00 00
	00		 call	 DWORD PTR __imp_??1?$CStringT@DV?$StrTraitMFC_DLL@DV?$ChTraitsCRT@D@ATL@@@@@ATL@@QAE@XZ
  0011d	8d 4e 34	 lea	 ecx, DWORD PTR [esi+52]
  00120	ff 15 00 00 00
	00		 call	 DWORD PTR __imp_??1?$CStringT@DV?$StrTraitMFC_DLL@DV?$ChTraitsCRT@D@ATL@@@@@ATL@@QAE@XZ
  00126	8d 4e 30	 lea	 ecx, DWORD PTR [esi+48]
  00129	ff 15 00 00 00
	00		 call	 DWORD PTR __imp_??1?$CStringT@DV?$StrTraitMFC_DLL@DV?$ChTraitsCRT@D@ATL@@@@@ATL@@QAE@XZ
  0012f	8d 4e 2c	 lea	 ecx, DWORD PTR [esi+44]
  00132	ff 15 00 00 00
	00		 call	 DWORD PTR __imp_??1?$CStringT@DV?$StrTraitMFC_DLL@DV?$ChTraitsCRT@D@ATL@@@@@ATL@@QAE@XZ
  00138	8d 4e 28	 lea	 ecx, DWORD PTR [esi+40]
  0013b	ff 15 00 00 00
	00		 call	 DWORD PTR __imp_??1?$CStringT@DV?$StrTraitMFC_DLL@DV?$ChTraitsCRT@D@ATL@@@@@ATL@@QAE@XZ
  00141	8d 4e 24	 lea	 ecx, DWORD PTR [esi+36]
  00144	ff 15 00 00 00
	00		 call	 DWORD PTR __imp_??1?$CStringT@DV?$StrTraitMFC_DLL@DV?$ChTraitsCRT@D@ATL@@@@@ATL@@QAE@XZ
  0014a	8d 4e 20	 lea	 ecx, DWORD PTR [esi+32]
  0014d	ff 15 00 00 00
	00		 call	 DWORD PTR __imp_??1?$CStringT@DV?$StrTraitMFC_DLL@DV?$ChTraitsCRT@D@ATL@@@@@ATL@@QAE@XZ
  00153	8d 4e 1c	 lea	 ecx, DWORD PTR [esi+28]
  00156	ff 15 00 00 00
	00		 call	 DWORD PTR __imp_??1?$CStringT@DV?$StrTraitMFC_DLL@DV?$ChTraitsCRT@D@ATL@@@@@ATL@@QAE@XZ
  0015c	8d 4e 18	 lea	 ecx, DWORD PTR [esi+24]
  0015f	ff 15 00 00 00
	00		 call	 DWORD PTR __imp_??1?$CStringT@DV?$StrTraitMFC_DLL@DV?$ChTraitsCRT@D@ATL@@@@@ATL@@QAE@XZ
  00165	8d 4e 14	 lea	 ecx, DWORD PTR [esi+20]
  00168	ff 15 00 00 00
	00		 call	 DWORD PTR __imp_??1?$CStringT@DV?$StrTraitMFC_DLL@DV?$ChTraitsCRT@D@ATL@@@@@ATL@@QAE@XZ
  0016e	8d 4e 10	 lea	 ecx, DWORD PTR [esi+16]
  00171	ff 15 00 00 00
	00		 call	 DWORD PTR __imp_??1?$CStringT@DV?$StrTraitMFC_DLL@DV?$ChTraitsCRT@D@ATL@@@@@ATL@@QAE@XZ
  00177	8d 4e 0c	 lea	 ecx, DWORD PTR [esi+12]
  0017a	ff 15 00 00 00
	00		 call	 DWORD PTR __imp_??1?$CStringT@DV?$StrTraitMFC_DLL@DV?$ChTraitsCRT@D@ATL@@@@@ATL@@QAE@XZ
  00180	8d 4e 08	 lea	 ecx, DWORD PTR [esi+8]
  00183	ff 15 00 00 00
	00		 call	 DWORD PTR __imp_??1?$CStringT@DV?$StrTraitMFC_DLL@DV?$ChTraitsCRT@D@ATL@@@@@ATL@@QAE@XZ
  00189	8d 4e 04	 lea	 ecx, DWORD PTR [esi+4]
  0018c	5e		 pop	 esi
  0018d	ff 25 00 00 00
	00		 jmp	 DWORD PTR __imp_??1?$CStringT@DV?$StrTraitMFC_DLL@DV?$ChTraitsCRT@D@ATL@@@@@ATL@@QAE@XZ
??1CKB_01230@@QAE@XZ ENDP				; CKB_01230::~CKB_01230
_TEXT	ENDS
; Function compile flags: /Ogtp
; File D:\git\src\IBK\IBK_DRFN\ProjSrc\SrcDrfn\Chart\commontr\KB_01230.H
;	COMDAT ?Convert@CKB_01230@@UAEXPAU_k01230Out2@@@Z
_TEXT	SEGMENT
_sTemp1$ = -76						; size = 4
_this$GSCopy$1$ = -72					; size = 4
_sTmp$ = -68						; size = 51
__$ArrayPad$ = -16					; size = 4
__$EHRec$ = -12						; size = 12
_pInput$ = 8						; size = 4
?Convert@CKB_01230@@UAEXPAU_k01230Out2@@@Z PROC		; CKB_01230::Convert, COMDAT
; _this$ = ecx

; 314  : 	{

  00000	55		 push	 ebp
  00001	8b ec		 mov	 ebp, esp
  00003	6a ff		 push	 -1
  00005	68 00 00 00 00	 push	 __ehhandler$?Convert@CKB_01230@@UAEXPAU_k01230Out2@@@Z
  0000a	64 a1 00 00 00
	00		 mov	 eax, DWORD PTR fs:0
  00010	50		 push	 eax
  00011	83 ec 40	 sub	 esp, 64			; 00000040H
  00014	a1 00 00 00 00	 mov	 eax, DWORD PTR ___security_cookie
  00019	33 c5		 xor	 eax, ebp
  0001b	89 45 f0	 mov	 DWORD PTR __$ArrayPad$[ebp], eax
  0001e	56		 push	 esi
  0001f	57		 push	 edi
  00020	50		 push	 eax
  00021	8d 45 f4	 lea	 eax, DWORD PTR __$EHRec$[ebp]
  00024	64 a3 00 00 00
	00		 mov	 DWORD PTR fs:0, eax
  0002a	8b f1		 mov	 esi, ecx
  0002c	89 75 b8	 mov	 DWORD PTR _this$GSCopy$1$[ebp], esi
  0002f	8b 7d 08	 mov	 edi, DWORD PTR _pInput$[ebp]

; 315  : 		CString sTemp1 ;

  00032	8d 4d b4	 lea	 ecx, DWORD PTR _sTemp1$[ebp]
  00035	ff 15 00 00 00
	00		 call	 DWORD PTR __imp_??0?$CStringT@DV?$StrTraitMFC_DLL@DV?$ChTraitsCRT@D@ATL@@@@@ATL@@QAE@XZ

; 316  : 		char sTmp[50+1];
; 317  : 
; 318  : //		DATA_MEMCOPY(sTmp, pInput, shcode);			/* (20)                      */
; 319  : 		DATA_MEMCOPY(sTmp, pInput, recprice);		/* (8)                       */

  0003b	8b 07		 mov	 eax, DWORD PTR [edi]
  0003d	83 c6 04	 add	 esi, 4
  00040	8b 4f 04	 mov	 ecx, DWORD PTR [edi+4]
  00043	89 45 bc	 mov	 DWORD PTR _sTmp$[ebp], eax
  00046	8d 45 bc	 lea	 eax, DWORD PTR _sTmp$[ebp]
  00049	89 4d c0	 mov	 DWORD PTR _sTmp$[ebp+4], ecx
  0004c	8b ce		 mov	 ecx, esi
  0004e	50		 push	 eax
  0004f	c7 45 fc 00 00
	00 00		 mov	 DWORD PTR __$EHRec$[ebp+8], 0
  00056	c6 45 c4 00	 mov	 BYTE PTR _sTmp$[ebp+8], 0
  0005a	ff 15 00 00 00
	00		 call	 DWORD PTR __imp_??4?$CStringT@DV?$StrTraitMFC_DLL@DV?$ChTraitsCRT@D@ATL@@@@@ATL@@QAEAAV01@PBD@Z
  00060	8b ce		 mov	 ecx, esi
  00062	ff 15 00 00 00
	00		 call	 DWORD PTR __imp_?TrimLeft@?$CStringT@DV?$StrTraitMFC_DLL@DV?$ChTraitsCRT@D@ATL@@@@@ATL@@QAEAAV12@XZ
  00068	8b ce		 mov	 ecx, esi
  0006a	ff 15 00 00 00
	00		 call	 DWORD PTR __imp_?TrimRight@?$CStringT@DV?$StrTraitMFC_DLL@DV?$ChTraitsCRT@D@ATL@@@@@ATL@@QAEAAV12@XZ

; 320  : 		DATA_MEMCOPY(sTmp, pInput, yeprice);		/* (8)                 */

  00070	8b 47 08	 mov	 eax, DWORD PTR [edi+8]
  00073	8b 4f 0c	 mov	 ecx, DWORD PTR [edi+12]
  00076	8b 75 b8	 mov	 esi, DWORD PTR _this$GSCopy$1$[ebp]
  00079	89 45 bc	 mov	 DWORD PTR _sTmp$[ebp], eax
  0007c	83 c6 08	 add	 esi, 8
  0007f	8d 45 bc	 lea	 eax, DWORD PTR _sTmp$[ebp]
  00082	89 4d c0	 mov	 DWORD PTR _sTmp$[ebp+4], ecx
  00085	50		 push	 eax
  00086	8b ce		 mov	 ecx, esi
  00088	c6 45 c4 00	 mov	 BYTE PTR _sTmp$[ebp+8], 0
  0008c	ff 15 00 00 00
	00		 call	 DWORD PTR __imp_??4?$CStringT@DV?$StrTraitMFC_DLL@DV?$ChTraitsCRT@D@ATL@@@@@ATL@@QAEAAV01@PBD@Z
  00092	8b ce		 mov	 ecx, esi
  00094	ff 15 00 00 00
	00		 call	 DWORD PTR __imp_?TrimLeft@?$CStringT@DV?$StrTraitMFC_DLL@DV?$ChTraitsCRT@D@ATL@@@@@ATL@@QAEAAV12@XZ
  0009a	8b ce		 mov	 ecx, esi
  0009c	ff 15 00 00 00
	00		 call	 DWORD PTR __imp_?TrimRight@?$CStringT@DV?$StrTraitMFC_DLL@DV?$ChTraitsCRT@D@ATL@@@@@ATL@@QAEAAV12@XZ

; 321  : 		DATA_MEMCOPY(sTmp, pInput, yevolume);		/* (8)                 */

  000a2	8b 47 10	 mov	 eax, DWORD PTR [edi+16]
  000a5	8b 4f 14	 mov	 ecx, DWORD PTR [edi+20]
  000a8	8b 75 b8	 mov	 esi, DWORD PTR _this$GSCopy$1$[ebp]
  000ab	89 45 bc	 mov	 DWORD PTR _sTmp$[ebp], eax
  000ae	83 c6 0c	 add	 esi, 12			; 0000000cH
  000b1	8d 45 bc	 lea	 eax, DWORD PTR _sTmp$[ebp]
  000b4	89 4d c0	 mov	 DWORD PTR _sTmp$[ebp+4], ecx
  000b7	50		 push	 eax
  000b8	8b ce		 mov	 ecx, esi
  000ba	c6 45 c4 00	 mov	 BYTE PTR _sTmp$[ebp+8], 0
  000be	ff 15 00 00 00
	00		 call	 DWORD PTR __imp_??4?$CStringT@DV?$StrTraitMFC_DLL@DV?$ChTraitsCRT@D@ATL@@@@@ATL@@QAEAAV01@PBD@Z
  000c4	8b ce		 mov	 ecx, esi
  000c6	ff 15 00 00 00
	00		 call	 DWORD PTR __imp_?TrimLeft@?$CStringT@DV?$StrTraitMFC_DLL@DV?$ChTraitsCRT@D@ATL@@@@@ATL@@QAEAAV12@XZ
  000cc	8b ce		 mov	 ecx, esi
  000ce	ff 15 00 00 00
	00		 call	 DWORD PTR __imp_?TrimRight@?$CStringT@DV?$StrTraitMFC_DLL@DV?$ChTraitsCRT@D@ATL@@@@@ATL@@QAEAAV12@XZ

; 322  : 		DATA_MEMCOPY(sTmp, pInput, hname);			/* (40)                      */

  000d4	8b 47 28	 mov	 eax, DWORD PTR [edi+40]
  000d7	0f 10 47 18	 movups	 xmm0, XMMWORD PTR [edi+24]
  000db	8b 75 b8	 mov	 esi, DWORD PTR _this$GSCopy$1$[ebp]
  000de	89 45 cc	 mov	 DWORD PTR _sTmp$[ebp+16], eax
  000e1	83 c6 10	 add	 esi, 16			; 00000010H
  000e4	8d 45 bc	 lea	 eax, DWORD PTR _sTmp$[ebp]
  000e7	c6 45 d0 00	 mov	 BYTE PTR _sTmp$[ebp+20], 0
  000eb	50		 push	 eax
  000ec	8b ce		 mov	 ecx, esi
  000ee	0f 11 45 bc	 movups	 XMMWORD PTR _sTmp$[ebp], xmm0
  000f2	ff 15 00 00 00
	00		 call	 DWORD PTR __imp_??4?$CStringT@DV?$StrTraitMFC_DLL@DV?$ChTraitsCRT@D@ATL@@@@@ATL@@QAEAAV01@PBD@Z
  000f8	8b ce		 mov	 ecx, esi
  000fa	ff 15 00 00 00
	00		 call	 DWORD PTR __imp_?TrimLeft@?$CStringT@DV?$StrTraitMFC_DLL@DV?$ChTraitsCRT@D@ATL@@@@@ATL@@QAEAAV12@XZ
  00100	8b ce		 mov	 ecx, esi
  00102	ff 15 00 00 00
	00		 call	 DWORD PTR __imp_?TrimRight@?$CStringT@DV?$StrTraitMFC_DLL@DV?$ChTraitsCRT@D@ATL@@@@@ATL@@QAEAAV12@XZ

; 323  : 		DATA_MEMCOPY(sTmp, pInput, price);			/* (8)                       */

  00108	8b 47 2c	 mov	 eax, DWORD PTR [edi+44]
  0010b	8b 4f 30	 mov	 ecx, DWORD PTR [edi+48]
  0010e	8b 75 b8	 mov	 esi, DWORD PTR _this$GSCopy$1$[ebp]
  00111	89 45 bc	 mov	 DWORD PTR _sTmp$[ebp], eax
  00114	83 c6 14	 add	 esi, 20			; 00000014H
  00117	8d 45 bc	 lea	 eax, DWORD PTR _sTmp$[ebp]
  0011a	89 4d c0	 mov	 DWORD PTR _sTmp$[ebp+4], ecx
  0011d	50		 push	 eax
  0011e	8b ce		 mov	 ecx, esi
  00120	c6 45 c4 00	 mov	 BYTE PTR _sTmp$[ebp+8], 0
  00124	ff 15 00 00 00
	00		 call	 DWORD PTR __imp_??4?$CStringT@DV?$StrTraitMFC_DLL@DV?$ChTraitsCRT@D@ATL@@@@@ATL@@QAEAAV01@PBD@Z
  0012a	8b ce		 mov	 ecx, esi
  0012c	ff 15 00 00 00
	00		 call	 DWORD PTR __imp_?TrimLeft@?$CStringT@DV?$StrTraitMFC_DLL@DV?$ChTraitsCRT@D@ATL@@@@@ATL@@QAEAAV12@XZ
  00132	8b ce		 mov	 ecx, esi
  00134	ff 15 00 00 00
	00		 call	 DWORD PTR __imp_?TrimRight@?$CStringT@DV?$StrTraitMFC_DLL@DV?$ChTraitsCRT@D@ATL@@@@@ATL@@QAEAAV12@XZ

; 324  : 		DATA_MEMCOPY(sTmp, pInput, sign);			/* (1)           */

  0013a	0f b6 47 34	 movzx	 eax, BYTE PTR [edi+52]
  0013e	88 45 bc	 mov	 BYTE PTR _sTmp$[ebp], al
  00141	8b 75 b8	 mov	 esi, DWORD PTR _this$GSCopy$1$[ebp]
  00144	8d 45 bc	 lea	 eax, DWORD PTR _sTmp$[ebp]
  00147	83 c6 18	 add	 esi, 24			; 00000018H
  0014a	c6 45 bd 00	 mov	 BYTE PTR _sTmp$[ebp+1], 0
  0014e	50		 push	 eax
  0014f	8b ce		 mov	 ecx, esi
  00151	ff 15 00 00 00
	00		 call	 DWORD PTR __imp_??4?$CStringT@DV?$StrTraitMFC_DLL@DV?$ChTraitsCRT@D@ATL@@@@@ATL@@QAEAAV01@PBD@Z
  00157	8b ce		 mov	 ecx, esi
  00159	ff 15 00 00 00
	00		 call	 DWORD PTR __imp_?TrimLeft@?$CStringT@DV?$StrTraitMFC_DLL@DV?$ChTraitsCRT@D@ATL@@@@@ATL@@QAEAAV12@XZ
  0015f	8b ce		 mov	 ecx, esi
  00161	ff 15 00 00 00
	00		 call	 DWORD PTR __imp_?TrimRight@?$CStringT@DV?$StrTraitMFC_DLL@DV?$ChTraitsCRT@D@ATL@@@@@ATL@@QAEAAV12@XZ

; 325  : 		DATA_MEMCOPY(sTmp, pInput, change);			/* (8)               */

  00167	8b 47 35	 mov	 eax, DWORD PTR [edi+53]
  0016a	8b 4f 39	 mov	 ecx, DWORD PTR [edi+57]
  0016d	8b 75 b8	 mov	 esi, DWORD PTR _this$GSCopy$1$[ebp]
  00170	89 45 bc	 mov	 DWORD PTR _sTmp$[ebp], eax
  00173	83 c6 1c	 add	 esi, 28			; 0000001cH
  00176	8d 45 bc	 lea	 eax, DWORD PTR _sTmp$[ebp]
  00179	89 4d c0	 mov	 DWORD PTR _sTmp$[ebp+4], ecx
  0017c	50		 push	 eax
  0017d	8b ce		 mov	 ecx, esi
  0017f	c6 45 c4 00	 mov	 BYTE PTR _sTmp$[ebp+8], 0
  00183	ff 15 00 00 00
	00		 call	 DWORD PTR __imp_??4?$CStringT@DV?$StrTraitMFC_DLL@DV?$ChTraitsCRT@D@ATL@@@@@ATL@@QAEAAV01@PBD@Z
  00189	8b ce		 mov	 ecx, esi
  0018b	ff 15 00 00 00
	00		 call	 DWORD PTR __imp_?TrimLeft@?$CStringT@DV?$StrTraitMFC_DLL@DV?$ChTraitsCRT@D@ATL@@@@@ATL@@QAEAAV12@XZ
  00191	8b ce		 mov	 ecx, esi
  00193	ff 15 00 00 00
	00		 call	 DWORD PTR __imp_?TrimRight@?$CStringT@DV?$StrTraitMFC_DLL@DV?$ChTraitsCRT@D@ATL@@@@@ATL@@QAEAAV12@XZ

; 326  : 		DATA_MEMCOPY(sTmp, pInput, rate);			/* (7)         */

  00199	8b 47 3d	 mov	 eax, DWORD PTR [edi+61]
  0019c	8b 75 b8	 mov	 esi, DWORD PTR _this$GSCopy$1$[ebp]
  0019f	89 45 bc	 mov	 DWORD PTR _sTmp$[ebp], eax
  001a2	83 c6 20	 add	 esi, 32			; 00000020H
  001a5	0f b7 47 41	 movzx	 eax, WORD PTR [edi+65]
  001a9	8b ce		 mov	 ecx, esi
  001ab	66 89 45 c0	 mov	 WORD PTR _sTmp$[ebp+4], ax
  001af	0f b6 47 43	 movzx	 eax, BYTE PTR [edi+67]
  001b3	88 45 c2	 mov	 BYTE PTR _sTmp$[ebp+6], al
  001b6	8d 45 bc	 lea	 eax, DWORD PTR _sTmp$[ebp]
  001b9	50		 push	 eax
  001ba	c6 45 c3 00	 mov	 BYTE PTR _sTmp$[ebp+7], 0
  001be	ff 15 00 00 00
	00		 call	 DWORD PTR __imp_??4?$CStringT@DV?$StrTraitMFC_DLL@DV?$ChTraitsCRT@D@ATL@@@@@ATL@@QAEAAV01@PBD@Z
  001c4	8b ce		 mov	 ecx, esi
  001c6	ff 15 00 00 00
	00		 call	 DWORD PTR __imp_?TrimLeft@?$CStringT@DV?$StrTraitMFC_DLL@DV?$ChTraitsCRT@D@ATL@@@@@ATL@@QAEAAV12@XZ
  001cc	8b ce		 mov	 ecx, esi
  001ce	ff 15 00 00 00
	00		 call	 DWORD PTR __imp_?TrimRight@?$CStringT@DV?$StrTraitMFC_DLL@DV?$ChTraitsCRT@D@ATL@@@@@ATL@@QAEAAV12@XZ

; 327  : 		DATA_MEMCOPY(sTmp, pInput, volume);			/* (12)                      */

  001d4	8b 47 4c	 mov	 eax, DWORD PTR [edi+76]
  001d7	8b 75 b8	 mov	 esi, DWORD PTR _this$GSCopy$1$[ebp]
  001da	f3 0f 7e 47 44	 movq	 xmm0, QWORD PTR [edi+68]
  001df	83 c6 24	 add	 esi, 36			; 00000024H
  001e2	89 45 c4	 mov	 DWORD PTR _sTmp$[ebp+8], eax
  001e5	8b ce		 mov	 ecx, esi
  001e7	8d 45 bc	 lea	 eax, DWORD PTR _sTmp$[ebp]
  001ea	66 0f d6 45 bc	 movq	 QWORD PTR _sTmp$[ebp], xmm0
  001ef	50		 push	 eax
  001f0	c6 45 c8 00	 mov	 BYTE PTR _sTmp$[ebp+12], 0
  001f4	ff 15 00 00 00
	00		 call	 DWORD PTR __imp_??4?$CStringT@DV?$StrTraitMFC_DLL@DV?$ChTraitsCRT@D@ATL@@@@@ATL@@QAEAAV01@PBD@Z
  001fa	8b ce		 mov	 ecx, esi
  001fc	ff 15 00 00 00
	00		 call	 DWORD PTR __imp_?TrimLeft@?$CStringT@DV?$StrTraitMFC_DLL@DV?$ChTraitsCRT@D@ATL@@@@@ATL@@QAEAAV12@XZ
  00202	8b ce		 mov	 ecx, esi
  00204	ff 15 00 00 00
	00		 call	 DWORD PTR __imp_?TrimRight@?$CStringT@DV?$StrTraitMFC_DLL@DV?$ChTraitsCRT@D@ATL@@@@@ATL@@QAEAAV12@XZ

; 328  : 		DATA_MEMCOPY(sTmp, pInput, trade_cost);		/* (15)                    */

  0020a	8b 47 50	 mov	 eax, DWORD PTR [edi+80]
  0020d	8b 4f 54	 mov	 ecx, DWORD PTR [edi+84]
  00210	8b 75 b8	 mov	 esi, DWORD PTR _this$GSCopy$1$[ebp]
  00213	89 45 bc	 mov	 DWORD PTR _sTmp$[ebp], eax
  00216	83 c6 28	 add	 esi, 40			; 00000028H
  00219	8d 45 bc	 lea	 eax, DWORD PTR _sTmp$[ebp]
  0021c	89 4d c0	 mov	 DWORD PTR _sTmp$[ebp+4], ecx
  0021f	50		 push	 eax
  00220	8b ce		 mov	 ecx, esi
  00222	c6 45 c4 00	 mov	 BYTE PTR _sTmp$[ebp+8], 0
  00226	ff 15 00 00 00
	00		 call	 DWORD PTR __imp_??4?$CStringT@DV?$StrTraitMFC_DLL@DV?$ChTraitsCRT@D@ATL@@@@@ATL@@QAEAAV01@PBD@Z
  0022c	8b ce		 mov	 ecx, esi
  0022e	ff 15 00 00 00
	00		 call	 DWORD PTR __imp_?TrimLeft@?$CStringT@DV?$StrTraitMFC_DLL@DV?$ChTraitsCRT@D@ATL@@@@@ATL@@QAEAAV12@XZ
  00234	8b ce		 mov	 ecx, esi
  00236	ff 15 00 00 00
	00		 call	 DWORD PTR __imp_?TrimRight@?$CStringT@DV?$StrTraitMFC_DLL@DV?$ChTraitsCRT@D@ATL@@@@@ATL@@QAEAAV12@XZ

; 329  : 		DATA_MEMCOPY(sTmp, pInput, offerho1);		/* 1(8)                    */

  0023c	8b 47 58	 mov	 eax, DWORD PTR [edi+88]
  0023f	8b 75 b8	 mov	 esi, DWORD PTR _this$GSCopy$1$[ebp]
  00242	8b 4f 5c	 mov	 ecx, DWORD PTR [edi+92]
  00245	83 c6 2c	 add	 esi, 44			; 0000002cH
  00248	89 45 bc	 mov	 DWORD PTR _sTmp$[ebp], eax
  0024b	8d 45 bc	 lea	 eax, DWORD PTR _sTmp$[ebp]
  0024e	89 4d c0	 mov	 DWORD PTR _sTmp$[ebp+4], ecx
  00251	c6 45 c4 00	 mov	 BYTE PTR _sTmp$[ebp+8], 0
  00255	50		 push	 eax
  00256	8b ce		 mov	 ecx, esi
  00258	ff 15 00 00 00
	00		 call	 DWORD PTR __imp_??4?$CStringT@DV?$StrTraitMFC_DLL@DV?$ChTraitsCRT@D@ATL@@@@@ATL@@QAEAAV01@PBD@Z
  0025e	8b ce		 mov	 ecx, esi
  00260	ff 15 00 00 00
	00		 call	 DWORD PTR __imp_?TrimLeft@?$CStringT@DV?$StrTraitMFC_DLL@DV?$ChTraitsCRT@D@ATL@@@@@ATL@@QAEAAV12@XZ
  00266	8b ce		 mov	 ecx, esi
  00268	ff 15 00 00 00
	00		 call	 DWORD PTR __imp_?TrimRight@?$CStringT@DV?$StrTraitMFC_DLL@DV?$ChTraitsCRT@D@ATL@@@@@ATL@@QAEAAV12@XZ

; 330  : 		DATA_MEMCOPY(sTmp, pInput, offerho2);		/* 2(8)                    */

  0026e	8b 47 60	 mov	 eax, DWORD PTR [edi+96]
  00271	8b 4f 64	 mov	 ecx, DWORD PTR [edi+100]
  00274	8b 75 b8	 mov	 esi, DWORD PTR _this$GSCopy$1$[ebp]
  00277	89 45 bc	 mov	 DWORD PTR _sTmp$[ebp], eax
  0027a	83 c6 30	 add	 esi, 48			; 00000030H
  0027d	8d 45 bc	 lea	 eax, DWORD PTR _sTmp$[ebp]
  00280	89 4d c0	 mov	 DWORD PTR _sTmp$[ebp+4], ecx
  00283	50		 push	 eax
  00284	8b ce		 mov	 ecx, esi
  00286	c6 45 c4 00	 mov	 BYTE PTR _sTmp$[ebp+8], 0
  0028a	ff 15 00 00 00
	00		 call	 DWORD PTR __imp_??4?$CStringT@DV?$StrTraitMFC_DLL@DV?$ChTraitsCRT@D@ATL@@@@@ATL@@QAEAAV01@PBD@Z
  00290	8b ce		 mov	 ecx, esi
  00292	ff 15 00 00 00
	00		 call	 DWORD PTR __imp_?TrimLeft@?$CStringT@DV?$StrTraitMFC_DLL@DV?$ChTraitsCRT@D@ATL@@@@@ATL@@QAEAAV12@XZ
  00298	8b ce		 mov	 ecx, esi
  0029a	ff 15 00 00 00
	00		 call	 DWORD PTR __imp_?TrimRight@?$CStringT@DV?$StrTraitMFC_DLL@DV?$ChTraitsCRT@D@ATL@@@@@ATL@@QAEAAV12@XZ

; 331  : 		DATA_MEMCOPY(sTmp, pInput, offerho3);		/* 3(8)                    */

  002a0	8b 47 68	 mov	 eax, DWORD PTR [edi+104]
  002a3	8b 4f 6c	 mov	 ecx, DWORD PTR [edi+108]
  002a6	8b 75 b8	 mov	 esi, DWORD PTR _this$GSCopy$1$[ebp]
  002a9	89 45 bc	 mov	 DWORD PTR _sTmp$[ebp], eax
  002ac	83 c6 34	 add	 esi, 52			; 00000034H
  002af	8d 45 bc	 lea	 eax, DWORD PTR _sTmp$[ebp]
  002b2	89 4d c0	 mov	 DWORD PTR _sTmp$[ebp+4], ecx
  002b5	50		 push	 eax
  002b6	8b ce		 mov	 ecx, esi
  002b8	c6 45 c4 00	 mov	 BYTE PTR _sTmp$[ebp+8], 0
  002bc	ff 15 00 00 00
	00		 call	 DWORD PTR __imp_??4?$CStringT@DV?$StrTraitMFC_DLL@DV?$ChTraitsCRT@D@ATL@@@@@ATL@@QAEAAV01@PBD@Z
  002c2	8b ce		 mov	 ecx, esi
  002c4	ff 15 00 00 00
	00		 call	 DWORD PTR __imp_?TrimLeft@?$CStringT@DV?$StrTraitMFC_DLL@DV?$ChTraitsCRT@D@ATL@@@@@ATL@@QAEAAV12@XZ
  002ca	8b ce		 mov	 ecx, esi
  002cc	ff 15 00 00 00
	00		 call	 DWORD PTR __imp_?TrimRight@?$CStringT@DV?$StrTraitMFC_DLL@DV?$ChTraitsCRT@D@ATL@@@@@ATL@@QAEAAV12@XZ

; 332  : 		DATA_MEMCOPY(sTmp, pInput, offerho4);		/* 4(8)                    */

  002d2	8b 47 70	 mov	 eax, DWORD PTR [edi+112]
  002d5	8b 4f 74	 mov	 ecx, DWORD PTR [edi+116]
  002d8	8b 75 b8	 mov	 esi, DWORD PTR _this$GSCopy$1$[ebp]
  002db	89 45 bc	 mov	 DWORD PTR _sTmp$[ebp], eax
  002de	83 c6 38	 add	 esi, 56			; 00000038H
  002e1	8d 45 bc	 lea	 eax, DWORD PTR _sTmp$[ebp]
  002e4	89 4d c0	 mov	 DWORD PTR _sTmp$[ebp+4], ecx
  002e7	50		 push	 eax
  002e8	8b ce		 mov	 ecx, esi
  002ea	c6 45 c4 00	 mov	 BYTE PTR _sTmp$[ebp+8], 0
  002ee	ff 15 00 00 00
	00		 call	 DWORD PTR __imp_??4?$CStringT@DV?$StrTraitMFC_DLL@DV?$ChTraitsCRT@D@ATL@@@@@ATL@@QAEAAV01@PBD@Z
  002f4	8b ce		 mov	 ecx, esi
  002f6	ff 15 00 00 00
	00		 call	 DWORD PTR __imp_?TrimLeft@?$CStringT@DV?$StrTraitMFC_DLL@DV?$ChTraitsCRT@D@ATL@@@@@ATL@@QAEAAV12@XZ
  002fc	8b ce		 mov	 ecx, esi
  002fe	ff 15 00 00 00
	00		 call	 DWORD PTR __imp_?TrimRight@?$CStringT@DV?$StrTraitMFC_DLL@DV?$ChTraitsCRT@D@ATL@@@@@ATL@@QAEAAV12@XZ

; 333  : 		DATA_MEMCOPY(sTmp, pInput, offerho5);		/* 5(8)                    */

  00304	8b 47 78	 mov	 eax, DWORD PTR [edi+120]
  00307	8b 4f 7c	 mov	 ecx, DWORD PTR [edi+124]
  0030a	8b 75 b8	 mov	 esi, DWORD PTR _this$GSCopy$1$[ebp]
  0030d	89 45 bc	 mov	 DWORD PTR _sTmp$[ebp], eax
  00310	83 c6 3c	 add	 esi, 60			; 0000003cH
  00313	8d 45 bc	 lea	 eax, DWORD PTR _sTmp$[ebp]
  00316	89 4d c0	 mov	 DWORD PTR _sTmp$[ebp+4], ecx
  00319	50		 push	 eax
  0031a	8b ce		 mov	 ecx, esi
  0031c	c6 45 c4 00	 mov	 BYTE PTR _sTmp$[ebp+8], 0
  00320	ff 15 00 00 00
	00		 call	 DWORD PTR __imp_??4?$CStringT@DV?$StrTraitMFC_DLL@DV?$ChTraitsCRT@D@ATL@@@@@ATL@@QAEAAV01@PBD@Z
  00326	8b ce		 mov	 ecx, esi
  00328	ff 15 00 00 00
	00		 call	 DWORD PTR __imp_?TrimLeft@?$CStringT@DV?$StrTraitMFC_DLL@DV?$ChTraitsCRT@D@ATL@@@@@ATL@@QAEAAV12@XZ
  0032e	8b ce		 mov	 ecx, esi
  00330	ff 15 00 00 00
	00		 call	 DWORD PTR __imp_?TrimRight@?$CStringT@DV?$StrTraitMFC_DLL@DV?$ChTraitsCRT@D@ATL@@@@@ATL@@QAEAAV12@XZ

; 334  : 		DATA_MEMCOPY(sTmp, pInput, offerrem1);		/* 1(8)                */

  00336	8b 87 80 00 00
	00		 mov	 eax, DWORD PTR [edi+128]
  0033c	8b 8f 84 00 00
	00		 mov	 ecx, DWORD PTR [edi+132]
  00342	8b 75 b8	 mov	 esi, DWORD PTR _this$GSCopy$1$[ebp]
  00345	89 45 bc	 mov	 DWORD PTR _sTmp$[ebp], eax
  00348	83 c6 40	 add	 esi, 64			; 00000040H
  0034b	8d 45 bc	 lea	 eax, DWORD PTR _sTmp$[ebp]
  0034e	89 4d c0	 mov	 DWORD PTR _sTmp$[ebp+4], ecx
  00351	50		 push	 eax
  00352	8b ce		 mov	 ecx, esi
  00354	c6 45 c4 00	 mov	 BYTE PTR _sTmp$[ebp+8], 0
  00358	ff 15 00 00 00
	00		 call	 DWORD PTR __imp_??4?$CStringT@DV?$StrTraitMFC_DLL@DV?$ChTraitsCRT@D@ATL@@@@@ATL@@QAEAAV01@PBD@Z
  0035e	8b ce		 mov	 ecx, esi
  00360	ff 15 00 00 00
	00		 call	 DWORD PTR __imp_?TrimLeft@?$CStringT@DV?$StrTraitMFC_DLL@DV?$ChTraitsCRT@D@ATL@@@@@ATL@@QAEAAV12@XZ
  00366	8b ce		 mov	 ecx, esi
  00368	ff 15 00 00 00
	00		 call	 DWORD PTR __imp_?TrimRight@?$CStringT@DV?$StrTraitMFC_DLL@DV?$ChTraitsCRT@D@ATL@@@@@ATL@@QAEAAV12@XZ

; 335  : 		DATA_MEMCOPY(sTmp, pInput, offerrem2);		/* 2(8)                */

  0036e	8b 87 88 00 00
	00		 mov	 eax, DWORD PTR [edi+136]
  00374	8b 8f 8c 00 00
	00		 mov	 ecx, DWORD PTR [edi+140]
  0037a	8b 75 b8	 mov	 esi, DWORD PTR _this$GSCopy$1$[ebp]
  0037d	89 45 bc	 mov	 DWORD PTR _sTmp$[ebp], eax
  00380	83 c6 44	 add	 esi, 68			; 00000044H
  00383	8d 45 bc	 lea	 eax, DWORD PTR _sTmp$[ebp]
  00386	89 4d c0	 mov	 DWORD PTR _sTmp$[ebp+4], ecx
  00389	50		 push	 eax
  0038a	8b ce		 mov	 ecx, esi
  0038c	c6 45 c4 00	 mov	 BYTE PTR _sTmp$[ebp+8], 0
  00390	ff 15 00 00 00
	00		 call	 DWORD PTR __imp_??4?$CStringT@DV?$StrTraitMFC_DLL@DV?$ChTraitsCRT@D@ATL@@@@@ATL@@QAEAAV01@PBD@Z
  00396	8b ce		 mov	 ecx, esi
  00398	ff 15 00 00 00
	00		 call	 DWORD PTR __imp_?TrimLeft@?$CStringT@DV?$StrTraitMFC_DLL@DV?$ChTraitsCRT@D@ATL@@@@@ATL@@QAEAAV12@XZ
  0039e	8b ce		 mov	 ecx, esi
  003a0	ff 15 00 00 00
	00		 call	 DWORD PTR __imp_?TrimRight@?$CStringT@DV?$StrTraitMFC_DLL@DV?$ChTraitsCRT@D@ATL@@@@@ATL@@QAEAAV12@XZ

; 336  : 		DATA_MEMCOPY(sTmp, pInput, offerrem3);		/* 3(8)                */

  003a6	8b 87 90 00 00
	00		 mov	 eax, DWORD PTR [edi+144]
  003ac	8b 8f 94 00 00
	00		 mov	 ecx, DWORD PTR [edi+148]
  003b2	8b 75 b8	 mov	 esi, DWORD PTR _this$GSCopy$1$[ebp]
  003b5	89 45 bc	 mov	 DWORD PTR _sTmp$[ebp], eax
  003b8	83 c6 48	 add	 esi, 72			; 00000048H
  003bb	8d 45 bc	 lea	 eax, DWORD PTR _sTmp$[ebp]
  003be	89 4d c0	 mov	 DWORD PTR _sTmp$[ebp+4], ecx
  003c1	50		 push	 eax
  003c2	8b ce		 mov	 ecx, esi
  003c4	c6 45 c4 00	 mov	 BYTE PTR _sTmp$[ebp+8], 0
  003c8	ff 15 00 00 00
	00		 call	 DWORD PTR __imp_??4?$CStringT@DV?$StrTraitMFC_DLL@DV?$ChTraitsCRT@D@ATL@@@@@ATL@@QAEAAV01@PBD@Z
  003ce	8b ce		 mov	 ecx, esi
  003d0	ff 15 00 00 00
	00		 call	 DWORD PTR __imp_?TrimLeft@?$CStringT@DV?$StrTraitMFC_DLL@DV?$ChTraitsCRT@D@ATL@@@@@ATL@@QAEAAV12@XZ
  003d6	8b ce		 mov	 ecx, esi
  003d8	ff 15 00 00 00
	00		 call	 DWORD PTR __imp_?TrimRight@?$CStringT@DV?$StrTraitMFC_DLL@DV?$ChTraitsCRT@D@ATL@@@@@ATL@@QAEAAV12@XZ

; 337  : 		DATA_MEMCOPY(sTmp, pInput, offerrem4);		/* 4(8)                */

  003de	8b 87 98 00 00
	00		 mov	 eax, DWORD PTR [edi+152]
  003e4	8b 8f 9c 00 00
	00		 mov	 ecx, DWORD PTR [edi+156]
  003ea	8b 75 b8	 mov	 esi, DWORD PTR _this$GSCopy$1$[ebp]
  003ed	89 45 bc	 mov	 DWORD PTR _sTmp$[ebp], eax
  003f0	83 c6 4c	 add	 esi, 76			; 0000004cH
  003f3	8d 45 bc	 lea	 eax, DWORD PTR _sTmp$[ebp]
  003f6	89 4d c0	 mov	 DWORD PTR _sTmp$[ebp+4], ecx
  003f9	50		 push	 eax
  003fa	8b ce		 mov	 ecx, esi
  003fc	c6 45 c4 00	 mov	 BYTE PTR _sTmp$[ebp+8], 0
  00400	ff 15 00 00 00
	00		 call	 DWORD PTR __imp_??4?$CStringT@DV?$StrTraitMFC_DLL@DV?$ChTraitsCRT@D@ATL@@@@@ATL@@QAEAAV01@PBD@Z
  00406	8b ce		 mov	 ecx, esi
  00408	ff 15 00 00 00
	00		 call	 DWORD PTR __imp_?TrimLeft@?$CStringT@DV?$StrTraitMFC_DLL@DV?$ChTraitsCRT@D@ATL@@@@@ATL@@QAEAAV12@XZ
  0040e	8b ce		 mov	 ecx, esi
  00410	ff 15 00 00 00
	00		 call	 DWORD PTR __imp_?TrimRight@?$CStringT@DV?$StrTraitMFC_DLL@DV?$ChTraitsCRT@D@ATL@@@@@ATL@@QAEAAV12@XZ

; 338  : 		DATA_MEMCOPY(sTmp, pInput, offerrem5);		/* 5(8)                */

  00416	8b 87 a0 00 00
	00		 mov	 eax, DWORD PTR [edi+160]
  0041c	8b 8f a4 00 00
	00		 mov	 ecx, DWORD PTR [edi+164]
  00422	8b 75 b8	 mov	 esi, DWORD PTR _this$GSCopy$1$[ebp]
  00425	89 45 bc	 mov	 DWORD PTR _sTmp$[ebp], eax
  00428	83 c6 50	 add	 esi, 80			; 00000050H
  0042b	8d 45 bc	 lea	 eax, DWORD PTR _sTmp$[ebp]
  0042e	89 4d c0	 mov	 DWORD PTR _sTmp$[ebp+4], ecx
  00431	50		 push	 eax
  00432	8b ce		 mov	 ecx, esi
  00434	c6 45 c4 00	 mov	 BYTE PTR _sTmp$[ebp+8], 0
  00438	ff 15 00 00 00
	00		 call	 DWORD PTR __imp_??4?$CStringT@DV?$StrTraitMFC_DLL@DV?$ChTraitsCRT@D@ATL@@@@@ATL@@QAEAAV01@PBD@Z
  0043e	8b ce		 mov	 ecx, esi
  00440	ff 15 00 00 00
	00		 call	 DWORD PTR __imp_?TrimLeft@?$CStringT@DV?$StrTraitMFC_DLL@DV?$ChTraitsCRT@D@ATL@@@@@ATL@@QAEAAV12@XZ
  00446	8b ce		 mov	 ecx, esi
  00448	ff 15 00 00 00
	00		 call	 DWORD PTR __imp_?TrimRight@?$CStringT@DV?$StrTraitMFC_DLL@DV?$ChTraitsCRT@D@ATL@@@@@ATL@@QAEAAV12@XZ

; 339  : 		DATA_MEMCOPY(sTmp, pInput, bidho1);			/* 1(8)                    */

  0044e	8b 87 a8 00 00
	00		 mov	 eax, DWORD PTR [edi+168]
  00454	8b 8f ac 00 00
	00		 mov	 ecx, DWORD PTR [edi+172]
  0045a	8b 75 b8	 mov	 esi, DWORD PTR _this$GSCopy$1$[ebp]
  0045d	89 45 bc	 mov	 DWORD PTR _sTmp$[ebp], eax
  00460	83 c6 54	 add	 esi, 84			; 00000054H
  00463	8d 45 bc	 lea	 eax, DWORD PTR _sTmp$[ebp]
  00466	89 4d c0	 mov	 DWORD PTR _sTmp$[ebp+4], ecx
  00469	50		 push	 eax
  0046a	8b ce		 mov	 ecx, esi
  0046c	c6 45 c4 00	 mov	 BYTE PTR _sTmp$[ebp+8], 0
  00470	ff 15 00 00 00
	00		 call	 DWORD PTR __imp_??4?$CStringT@DV?$StrTraitMFC_DLL@DV?$ChTraitsCRT@D@ATL@@@@@ATL@@QAEAAV01@PBD@Z
  00476	8b ce		 mov	 ecx, esi
  00478	ff 15 00 00 00
	00		 call	 DWORD PTR __imp_?TrimLeft@?$CStringT@DV?$StrTraitMFC_DLL@DV?$ChTraitsCRT@D@ATL@@@@@ATL@@QAEAAV12@XZ
  0047e	8b ce		 mov	 ecx, esi
  00480	ff 15 00 00 00
	00		 call	 DWORD PTR __imp_?TrimRight@?$CStringT@DV?$StrTraitMFC_DLL@DV?$ChTraitsCRT@D@ATL@@@@@ATL@@QAEAAV12@XZ

; 340  : 		DATA_MEMCOPY(sTmp, pInput, bidho2);			/* 2(8)                    */

  00486	8b 87 b0 00 00
	00		 mov	 eax, DWORD PTR [edi+176]
  0048c	8b 8f b4 00 00
	00		 mov	 ecx, DWORD PTR [edi+180]
  00492	89 45 bc	 mov	 DWORD PTR _sTmp$[ebp], eax
  00495	89 4d c0	 mov	 DWORD PTR _sTmp$[ebp+4], ecx
  00498	c6 45 c4 00	 mov	 BYTE PTR _sTmp$[ebp+8], 0
  0049c	8b 75 b8	 mov	 esi, DWORD PTR _this$GSCopy$1$[ebp]
  0049f	8d 45 bc	 lea	 eax, DWORD PTR _sTmp$[ebp]
  004a2	83 c6 58	 add	 esi, 88			; 00000058H
  004a5	50		 push	 eax
  004a6	8b ce		 mov	 ecx, esi
  004a8	ff 15 00 00 00
	00		 call	 DWORD PTR __imp_??4?$CStringT@DV?$StrTraitMFC_DLL@DV?$ChTraitsCRT@D@ATL@@@@@ATL@@QAEAAV01@PBD@Z
  004ae	8b ce		 mov	 ecx, esi
  004b0	ff 15 00 00 00
	00		 call	 DWORD PTR __imp_?TrimLeft@?$CStringT@DV?$StrTraitMFC_DLL@DV?$ChTraitsCRT@D@ATL@@@@@ATL@@QAEAAV12@XZ
  004b6	8b ce		 mov	 ecx, esi
  004b8	ff 15 00 00 00
	00		 call	 DWORD PTR __imp_?TrimRight@?$CStringT@DV?$StrTraitMFC_DLL@DV?$ChTraitsCRT@D@ATL@@@@@ATL@@QAEAAV12@XZ

; 341  : 		DATA_MEMCOPY(sTmp, pInput, bidho3);			/* 3(8)                    */

  004be	8b 87 b8 00 00
	00		 mov	 eax, DWORD PTR [edi+184]
  004c4	8b 8f bc 00 00
	00		 mov	 ecx, DWORD PTR [edi+188]
  004ca	8b 75 b8	 mov	 esi, DWORD PTR _this$GSCopy$1$[ebp]
  004cd	89 45 bc	 mov	 DWORD PTR _sTmp$[ebp], eax
  004d0	83 c6 5c	 add	 esi, 92			; 0000005cH
  004d3	8d 45 bc	 lea	 eax, DWORD PTR _sTmp$[ebp]
  004d6	89 4d c0	 mov	 DWORD PTR _sTmp$[ebp+4], ecx
  004d9	50		 push	 eax
  004da	8b ce		 mov	 ecx, esi
  004dc	c6 45 c4 00	 mov	 BYTE PTR _sTmp$[ebp+8], 0
  004e0	ff 15 00 00 00
	00		 call	 DWORD PTR __imp_??4?$CStringT@DV?$StrTraitMFC_DLL@DV?$ChTraitsCRT@D@ATL@@@@@ATL@@QAEAAV01@PBD@Z
  004e6	8b ce		 mov	 ecx, esi
  004e8	ff 15 00 00 00
	00		 call	 DWORD PTR __imp_?TrimLeft@?$CStringT@DV?$StrTraitMFC_DLL@DV?$ChTraitsCRT@D@ATL@@@@@ATL@@QAEAAV12@XZ
  004ee	8b ce		 mov	 ecx, esi
  004f0	ff 15 00 00 00
	00		 call	 DWORD PTR __imp_?TrimRight@?$CStringT@DV?$StrTraitMFC_DLL@DV?$ChTraitsCRT@D@ATL@@@@@ATL@@QAEAAV12@XZ

; 342  : 		DATA_MEMCOPY(sTmp, pInput, bidho4);			/* 4(8)                    */

  004f6	8b 87 c0 00 00
	00		 mov	 eax, DWORD PTR [edi+192]
  004fc	8b 8f c4 00 00
	00		 mov	 ecx, DWORD PTR [edi+196]
  00502	8b 75 b8	 mov	 esi, DWORD PTR _this$GSCopy$1$[ebp]
  00505	89 45 bc	 mov	 DWORD PTR _sTmp$[ebp], eax
  00508	83 c6 60	 add	 esi, 96			; 00000060H
  0050b	8d 45 bc	 lea	 eax, DWORD PTR _sTmp$[ebp]
  0050e	89 4d c0	 mov	 DWORD PTR _sTmp$[ebp+4], ecx
  00511	50		 push	 eax
  00512	8b ce		 mov	 ecx, esi
  00514	c6 45 c4 00	 mov	 BYTE PTR _sTmp$[ebp+8], 0
  00518	ff 15 00 00 00
	00		 call	 DWORD PTR __imp_??4?$CStringT@DV?$StrTraitMFC_DLL@DV?$ChTraitsCRT@D@ATL@@@@@ATL@@QAEAAV01@PBD@Z
  0051e	8b ce		 mov	 ecx, esi
  00520	ff 15 00 00 00
	00		 call	 DWORD PTR __imp_?TrimLeft@?$CStringT@DV?$StrTraitMFC_DLL@DV?$ChTraitsCRT@D@ATL@@@@@ATL@@QAEAAV12@XZ
  00526	8b ce		 mov	 ecx, esi
  00528	ff 15 00 00 00
	00		 call	 DWORD PTR __imp_?TrimRight@?$CStringT@DV?$StrTraitMFC_DLL@DV?$ChTraitsCRT@D@ATL@@@@@ATL@@QAEAAV12@XZ

; 343  : 		DATA_MEMCOPY(sTmp, pInput, bidho5);			/* 5(8)                    */

  0052e	8b 87 c8 00 00
	00		 mov	 eax, DWORD PTR [edi+200]
  00534	8b 8f cc 00 00
	00		 mov	 ecx, DWORD PTR [edi+204]
  0053a	8b 75 b8	 mov	 esi, DWORD PTR _this$GSCopy$1$[ebp]
  0053d	89 45 bc	 mov	 DWORD PTR _sTmp$[ebp], eax
  00540	83 c6 64	 add	 esi, 100		; 00000064H
  00543	8d 45 bc	 lea	 eax, DWORD PTR _sTmp$[ebp]
  00546	89 4d c0	 mov	 DWORD PTR _sTmp$[ebp+4], ecx
  00549	50		 push	 eax
  0054a	8b ce		 mov	 ecx, esi
  0054c	c6 45 c4 00	 mov	 BYTE PTR _sTmp$[ebp+8], 0
  00550	ff 15 00 00 00
	00		 call	 DWORD PTR __imp_??4?$CStringT@DV?$StrTraitMFC_DLL@DV?$ChTraitsCRT@D@ATL@@@@@ATL@@QAEAAV01@PBD@Z
  00556	8b ce		 mov	 ecx, esi
  00558	ff 15 00 00 00
	00		 call	 DWORD PTR __imp_?TrimLeft@?$CStringT@DV?$StrTraitMFC_DLL@DV?$ChTraitsCRT@D@ATL@@@@@ATL@@QAEAAV12@XZ
  0055e	8b ce		 mov	 ecx, esi
  00560	ff 15 00 00 00
	00		 call	 DWORD PTR __imp_?TrimRight@?$CStringT@DV?$StrTraitMFC_DLL@DV?$ChTraitsCRT@D@ATL@@@@@ATL@@QAEAAV12@XZ

; 344  : 		DATA_MEMCOPY(sTmp, pInput, bidrem1);		/* 1(8)                */

  00566	8b 87 d0 00 00
	00		 mov	 eax, DWORD PTR [edi+208]
  0056c	8b 8f d4 00 00
	00		 mov	 ecx, DWORD PTR [edi+212]
  00572	8b 75 b8	 mov	 esi, DWORD PTR _this$GSCopy$1$[ebp]
  00575	89 45 bc	 mov	 DWORD PTR _sTmp$[ebp], eax
  00578	83 c6 68	 add	 esi, 104		; 00000068H
  0057b	8d 45 bc	 lea	 eax, DWORD PTR _sTmp$[ebp]
  0057e	89 4d c0	 mov	 DWORD PTR _sTmp$[ebp+4], ecx
  00581	50		 push	 eax
  00582	8b ce		 mov	 ecx, esi
  00584	c6 45 c4 00	 mov	 BYTE PTR _sTmp$[ebp+8], 0
  00588	ff 15 00 00 00
	00		 call	 DWORD PTR __imp_??4?$CStringT@DV?$StrTraitMFC_DLL@DV?$ChTraitsCRT@D@ATL@@@@@ATL@@QAEAAV01@PBD@Z
  0058e	8b ce		 mov	 ecx, esi
  00590	ff 15 00 00 00
	00		 call	 DWORD PTR __imp_?TrimLeft@?$CStringT@DV?$StrTraitMFC_DLL@DV?$ChTraitsCRT@D@ATL@@@@@ATL@@QAEAAV12@XZ
  00596	8b ce		 mov	 ecx, esi
  00598	ff 15 00 00 00
	00		 call	 DWORD PTR __imp_?TrimRight@?$CStringT@DV?$StrTraitMFC_DLL@DV?$ChTraitsCRT@D@ATL@@@@@ATL@@QAEAAV12@XZ

; 345  : 		DATA_MEMCOPY(sTmp, pInput, bidrem2);		/* 2(8)                */

  0059e	8b 87 d8 00 00
	00		 mov	 eax, DWORD PTR [edi+216]
  005a4	8b 8f dc 00 00
	00		 mov	 ecx, DWORD PTR [edi+220]
  005aa	8b 75 b8	 mov	 esi, DWORD PTR _this$GSCopy$1$[ebp]
  005ad	89 45 bc	 mov	 DWORD PTR _sTmp$[ebp], eax
  005b0	83 c6 6c	 add	 esi, 108		; 0000006cH
  005b3	8d 45 bc	 lea	 eax, DWORD PTR _sTmp$[ebp]
  005b6	89 4d c0	 mov	 DWORD PTR _sTmp$[ebp+4], ecx
  005b9	50		 push	 eax
  005ba	8b ce		 mov	 ecx, esi
  005bc	c6 45 c4 00	 mov	 BYTE PTR _sTmp$[ebp+8], 0
  005c0	ff 15 00 00 00
	00		 call	 DWORD PTR __imp_??4?$CStringT@DV?$StrTraitMFC_DLL@DV?$ChTraitsCRT@D@ATL@@@@@ATL@@QAEAAV01@PBD@Z
  005c6	8b ce		 mov	 ecx, esi
  005c8	ff 15 00 00 00
	00		 call	 DWORD PTR __imp_?TrimLeft@?$CStringT@DV?$StrTraitMFC_DLL@DV?$ChTraitsCRT@D@ATL@@@@@ATL@@QAEAAV12@XZ
  005ce	8b ce		 mov	 ecx, esi
  005d0	ff 15 00 00 00
	00		 call	 DWORD PTR __imp_?TrimRight@?$CStringT@DV?$StrTraitMFC_DLL@DV?$ChTraitsCRT@D@ATL@@@@@ATL@@QAEAAV12@XZ

; 346  : 		DATA_MEMCOPY(sTmp, pInput, bidrem3);		/* 3(8)                */

  005d6	8b 87 e0 00 00
	00		 mov	 eax, DWORD PTR [edi+224]
  005dc	8b 8f e4 00 00
	00		 mov	 ecx, DWORD PTR [edi+228]
  005e2	8b 75 b8	 mov	 esi, DWORD PTR _this$GSCopy$1$[ebp]
  005e5	89 45 bc	 mov	 DWORD PTR _sTmp$[ebp], eax
  005e8	83 c6 70	 add	 esi, 112		; 00000070H
  005eb	8d 45 bc	 lea	 eax, DWORD PTR _sTmp$[ebp]
  005ee	89 4d c0	 mov	 DWORD PTR _sTmp$[ebp+4], ecx
  005f1	50		 push	 eax
  005f2	8b ce		 mov	 ecx, esi
  005f4	c6 45 c4 00	 mov	 BYTE PTR _sTmp$[ebp+8], 0
  005f8	ff 15 00 00 00
	00		 call	 DWORD PTR __imp_??4?$CStringT@DV?$StrTraitMFC_DLL@DV?$ChTraitsCRT@D@ATL@@@@@ATL@@QAEAAV01@PBD@Z
  005fe	8b ce		 mov	 ecx, esi
  00600	ff 15 00 00 00
	00		 call	 DWORD PTR __imp_?TrimLeft@?$CStringT@DV?$StrTraitMFC_DLL@DV?$ChTraitsCRT@D@ATL@@@@@ATL@@QAEAAV12@XZ
  00606	8b ce		 mov	 ecx, esi
  00608	ff 15 00 00 00
	00		 call	 DWORD PTR __imp_?TrimRight@?$CStringT@DV?$StrTraitMFC_DLL@DV?$ChTraitsCRT@D@ATL@@@@@ATL@@QAEAAV12@XZ

; 347  : 		DATA_MEMCOPY(sTmp, pInput, bidrem4);		/* 4(8)                */

  0060e	8b 87 e8 00 00
	00		 mov	 eax, DWORD PTR [edi+232]
  00614	8b 8f ec 00 00
	00		 mov	 ecx, DWORD PTR [edi+236]
  0061a	8b 75 b8	 mov	 esi, DWORD PTR _this$GSCopy$1$[ebp]
  0061d	89 45 bc	 mov	 DWORD PTR _sTmp$[ebp], eax
  00620	83 c6 74	 add	 esi, 116		; 00000074H
  00623	8d 45 bc	 lea	 eax, DWORD PTR _sTmp$[ebp]
  00626	89 4d c0	 mov	 DWORD PTR _sTmp$[ebp+4], ecx
  00629	50		 push	 eax
  0062a	8b ce		 mov	 ecx, esi
  0062c	c6 45 c4 00	 mov	 BYTE PTR _sTmp$[ebp+8], 0
  00630	ff 15 00 00 00
	00		 call	 DWORD PTR __imp_??4?$CStringT@DV?$StrTraitMFC_DLL@DV?$ChTraitsCRT@D@ATL@@@@@ATL@@QAEAAV01@PBD@Z
  00636	8b ce		 mov	 ecx, esi
  00638	ff 15 00 00 00
	00		 call	 DWORD PTR __imp_?TrimLeft@?$CStringT@DV?$StrTraitMFC_DLL@DV?$ChTraitsCRT@D@ATL@@@@@ATL@@QAEAAV12@XZ
  0063e	8b ce		 mov	 ecx, esi
  00640	ff 15 00 00 00
	00		 call	 DWORD PTR __imp_?TrimRight@?$CStringT@DV?$StrTraitMFC_DLL@DV?$ChTraitsCRT@D@ATL@@@@@ATL@@QAEAAV12@XZ

; 348  : 		DATA_MEMCOPY(sTmp, pInput, bidrem5);		/* 5(8)                */

  00646	8b 87 f0 00 00
	00		 mov	 eax, DWORD PTR [edi+240]
  0064c	8b 8f f4 00 00
	00		 mov	 ecx, DWORD PTR [edi+244]
  00652	8b 75 b8	 mov	 esi, DWORD PTR _this$GSCopy$1$[ebp]
  00655	89 45 bc	 mov	 DWORD PTR _sTmp$[ebp], eax
  00658	83 c6 78	 add	 esi, 120		; 00000078H
  0065b	8d 45 bc	 lea	 eax, DWORD PTR _sTmp$[ebp]
  0065e	89 4d c0	 mov	 DWORD PTR _sTmp$[ebp+4], ecx
  00661	50		 push	 eax
  00662	8b ce		 mov	 ecx, esi
  00664	c6 45 c4 00	 mov	 BYTE PTR _sTmp$[ebp+8], 0
  00668	ff 15 00 00 00
	00		 call	 DWORD PTR __imp_??4?$CStringT@DV?$StrTraitMFC_DLL@DV?$ChTraitsCRT@D@ATL@@@@@ATL@@QAEAAV01@PBD@Z
  0066e	8b ce		 mov	 ecx, esi
  00670	ff 15 00 00 00
	00		 call	 DWORD PTR __imp_?TrimLeft@?$CStringT@DV?$StrTraitMFC_DLL@DV?$ChTraitsCRT@D@ATL@@@@@ATL@@QAEAAV12@XZ
  00676	8b ce		 mov	 ecx, esi
  00678	ff 15 00 00 00
	00		 call	 DWORD PTR __imp_?TrimRight@?$CStringT@DV?$StrTraitMFC_DLL@DV?$ChTraitsCRT@D@ATL@@@@@ATL@@QAEAAV12@XZ

; 349  : 		DATA_MEMCOPY(sTmp, pInput, totofferrem);	/* (8)               */

  0067e	8b 87 f8 00 00
	00		 mov	 eax, DWORD PTR [edi+248]
  00684	8b 8f fc 00 00
	00		 mov	 ecx, DWORD PTR [edi+252]
  0068a	8b 75 b8	 mov	 esi, DWORD PTR _this$GSCopy$1$[ebp]
  0068d	89 45 bc	 mov	 DWORD PTR _sTmp$[ebp], eax
  00690	83 c6 7c	 add	 esi, 124		; 0000007cH
  00693	8d 45 bc	 lea	 eax, DWORD PTR _sTmp$[ebp]
  00696	89 4d c0	 mov	 DWORD PTR _sTmp$[ebp+4], ecx
  00699	50		 push	 eax
  0069a	8b ce		 mov	 ecx, esi
  0069c	c6 45 c4 00	 mov	 BYTE PTR _sTmp$[ebp+8], 0
  006a0	ff 15 00 00 00
	00		 call	 DWORD PTR __imp_??4?$CStringT@DV?$StrTraitMFC_DLL@DV?$ChTraitsCRT@D@ATL@@@@@ATL@@QAEAAV01@PBD@Z
  006a6	8b ce		 mov	 ecx, esi
  006a8	ff 15 00 00 00
	00		 call	 DWORD PTR __imp_?TrimLeft@?$CStringT@DV?$StrTraitMFC_DLL@DV?$ChTraitsCRT@D@ATL@@@@@ATL@@QAEAAV12@XZ
  006ae	8b ce		 mov	 ecx, esi
  006b0	ff 15 00 00 00
	00		 call	 DWORD PTR __imp_?TrimRight@?$CStringT@DV?$StrTraitMFC_DLL@DV?$ChTraitsCRT@D@ATL@@@@@ATL@@QAEAAV12@XZ

; 350  : 		DATA_MEMCOPY(sTmp, pInput, totbidrem);		/* (8)               */

  006b6	8b 87 00 01 00
	00		 mov	 eax, DWORD PTR [edi+256]
  006bc	8b 8f 04 01 00
	00		 mov	 ecx, DWORD PTR [edi+260]
  006c2	8b 75 b8	 mov	 esi, DWORD PTR _this$GSCopy$1$[ebp]
  006c5	89 45 bc	 mov	 DWORD PTR _sTmp$[ebp], eax
  006c8	83 ee 80	 sub	 esi, -128		; ffffff80H
  006cb	8d 45 bc	 lea	 eax, DWORD PTR _sTmp$[ebp]
  006ce	89 4d c0	 mov	 DWORD PTR _sTmp$[ebp+4], ecx
  006d1	50		 push	 eax
  006d2	8b ce		 mov	 ecx, esi
  006d4	c6 45 c4 00	 mov	 BYTE PTR _sTmp$[ebp+8], 0
  006d8	ff 15 00 00 00
	00		 call	 DWORD PTR __imp_??4?$CStringT@DV?$StrTraitMFC_DLL@DV?$ChTraitsCRT@D@ATL@@@@@ATL@@QAEAAV01@PBD@Z
  006de	8b ce		 mov	 ecx, esi
  006e0	ff 15 00 00 00
	00		 call	 DWORD PTR __imp_?TrimLeft@?$CStringT@DV?$StrTraitMFC_DLL@DV?$ChTraitsCRT@D@ATL@@@@@ATL@@QAEAAV12@XZ
  006e6	8b ce		 mov	 ecx, esi
  006e8	ff 15 00 00 00
	00		 call	 DWORD PTR __imp_?TrimRight@?$CStringT@DV?$StrTraitMFC_DLL@DV?$ChTraitsCRT@D@ATL@@@@@ATL@@QAEAAV12@XZ

; 351  : 		DATA_MEMCOPY(sTmp, pInput, tmofferrem);		/* (8)               */

  006ee	8b 87 08 01 00
	00		 mov	 eax, DWORD PTR [edi+264]
  006f4	8b 8f 0c 01 00
	00		 mov	 ecx, DWORD PTR [edi+268]
  006fa	8b 75 b8	 mov	 esi, DWORD PTR _this$GSCopy$1$[ebp]
  006fd	89 45 bc	 mov	 DWORD PTR _sTmp$[ebp], eax
  00700	81 c6 84 00 00
	00		 add	 esi, 132		; 00000084H
  00706	8d 45 bc	 lea	 eax, DWORD PTR _sTmp$[ebp]
  00709	89 4d c0	 mov	 DWORD PTR _sTmp$[ebp+4], ecx
  0070c	50		 push	 eax
  0070d	8b ce		 mov	 ecx, esi
  0070f	c6 45 c4 00	 mov	 BYTE PTR _sTmp$[ebp+8], 0
  00713	ff 15 00 00 00
	00		 call	 DWORD PTR __imp_??4?$CStringT@DV?$StrTraitMFC_DLL@DV?$ChTraitsCRT@D@ATL@@@@@ATL@@QAEAAV01@PBD@Z
  00719	8b ce		 mov	 ecx, esi
  0071b	ff 15 00 00 00
	00		 call	 DWORD PTR __imp_?TrimLeft@?$CStringT@DV?$StrTraitMFC_DLL@DV?$ChTraitsCRT@D@ATL@@@@@ATL@@QAEAAV12@XZ
  00721	8b ce		 mov	 ecx, esi
  00723	ff 15 00 00 00
	00		 call	 DWORD PTR __imp_?TrimRight@?$CStringT@DV?$StrTraitMFC_DLL@DV?$ChTraitsCRT@D@ATL@@@@@ATL@@QAEAAV12@XZ

; 352  : 		DATA_MEMCOPY(sTmp, pInput, tmbidrem);		/* (8)               */

  00729	8b 87 10 01 00
	00		 mov	 eax, DWORD PTR [edi+272]
  0072f	8b 8f 14 01 00
	00		 mov	 ecx, DWORD PTR [edi+276]
  00735	8b 75 b8	 mov	 esi, DWORD PTR _this$GSCopy$1$[ebp]
  00738	89 45 bc	 mov	 DWORD PTR _sTmp$[ebp], eax
  0073b	81 c6 88 00 00
	00		 add	 esi, 136		; 00000088H
  00741	8d 45 bc	 lea	 eax, DWORD PTR _sTmp$[ebp]
  00744	89 4d c0	 mov	 DWORD PTR _sTmp$[ebp+4], ecx
  00747	50		 push	 eax
  00748	8b ce		 mov	 ecx, esi
  0074a	c6 45 c4 00	 mov	 BYTE PTR _sTmp$[ebp+8], 0
  0074e	ff 15 00 00 00
	00		 call	 DWORD PTR __imp_??4?$CStringT@DV?$StrTraitMFC_DLL@DV?$ChTraitsCRT@D@ATL@@@@@ATL@@QAEAAV01@PBD@Z
  00754	8b ce		 mov	 ecx, esi
  00756	ff 15 00 00 00
	00		 call	 DWORD PTR __imp_?TrimLeft@?$CStringT@DV?$StrTraitMFC_DLL@DV?$ChTraitsCRT@D@ATL@@@@@ATL@@QAEAAV12@XZ
  0075c	8b ce		 mov	 ecx, esi
  0075e	ff 15 00 00 00
	00		 call	 DWORD PTR __imp_?TrimRight@?$CStringT@DV?$StrTraitMFC_DLL@DV?$ChTraitsCRT@D@ATL@@@@@ATL@@QAEAAV12@XZ

; 353  : 		DATA_MEMCOPY(sTmp, pInput, uplmtprice);		/* (8)                       */

  00764	8b 87 18 01 00
	00		 mov	 eax, DWORD PTR [edi+280]
  0076a	8b 8f 1c 01 00
	00		 mov	 ecx, DWORD PTR [edi+284]
  00770	8b 75 b8	 mov	 esi, DWORD PTR _this$GSCopy$1$[ebp]
  00773	89 45 bc	 mov	 DWORD PTR _sTmp$[ebp], eax
  00776	81 c6 8c 00 00
	00		 add	 esi, 140		; 0000008cH
  0077c	8d 45 bc	 lea	 eax, DWORD PTR _sTmp$[ebp]
  0077f	89 4d c0	 mov	 DWORD PTR _sTmp$[ebp+4], ecx
  00782	50		 push	 eax
  00783	8b ce		 mov	 ecx, esi
  00785	c6 45 c4 00	 mov	 BYTE PTR _sTmp$[ebp+8], 0
  00789	ff 15 00 00 00
	00		 call	 DWORD PTR __imp_??4?$CStringT@DV?$StrTraitMFC_DLL@DV?$ChTraitsCRT@D@ATL@@@@@ATL@@QAEAAV01@PBD@Z
  0078f	8b ce		 mov	 ecx, esi
  00791	ff 15 00 00 00
	00		 call	 DWORD PTR __imp_?TrimLeft@?$CStringT@DV?$StrTraitMFC_DLL@DV?$ChTraitsCRT@D@ATL@@@@@ATL@@QAEAAV12@XZ
  00797	8b ce		 mov	 ecx, esi
  00799	ff 15 00 00 00
	00		 call	 DWORD PTR __imp_?TrimRight@?$CStringT@DV?$StrTraitMFC_DLL@DV?$ChTraitsCRT@D@ATL@@@@@ATL@@QAEAAV12@XZ

; 354  : 		DATA_MEMCOPY(sTmp, pInput, dnlmtprice);		/* (8)                       */

  0079f	8b 87 20 01 00
	00		 mov	 eax, DWORD PTR [edi+288]
  007a5	8b 8f 24 01 00
	00		 mov	 ecx, DWORD PTR [edi+292]
  007ab	8b 75 b8	 mov	 esi, DWORD PTR _this$GSCopy$1$[ebp]
  007ae	89 45 bc	 mov	 DWORD PTR _sTmp$[ebp], eax
  007b1	81 c6 90 00 00
	00		 add	 esi, 144		; 00000090H
  007b7	8d 45 bc	 lea	 eax, DWORD PTR _sTmp$[ebp]
  007ba	89 4d c0	 mov	 DWORD PTR _sTmp$[ebp+4], ecx
  007bd	50		 push	 eax
  007be	8b ce		 mov	 ecx, esi
  007c0	c6 45 c4 00	 mov	 BYTE PTR _sTmp$[ebp+8], 0
  007c4	ff 15 00 00 00
	00		 call	 DWORD PTR __imp_??4?$CStringT@DV?$StrTraitMFC_DLL@DV?$ChTraitsCRT@D@ATL@@@@@ATL@@QAEAAV01@PBD@Z
  007ca	8b ce		 mov	 ecx, esi
  007cc	ff 15 00 00 00
	00		 call	 DWORD PTR __imp_?TrimLeft@?$CStringT@DV?$StrTraitMFC_DLL@DV?$ChTraitsCRT@D@ATL@@@@@ATL@@QAEAAV12@XZ
  007d2	8b ce		 mov	 ecx, esi
  007d4	ff 15 00 00 00
	00		 call	 DWORD PTR __imp_?TrimRight@?$CStringT@DV?$StrTraitMFC_DLL@DV?$ChTraitsCRT@D@ATL@@@@@ATL@@QAEAAV12@XZ

; 355  : 		DATA_MEMCOPY(sTmp, pInput, yerate);			/* (8)     */

  007da	8b 87 28 01 00
	00		 mov	 eax, DWORD PTR [edi+296]
  007e0	8b 75 b8	 mov	 esi, DWORD PTR _this$GSCopy$1$[ebp]
  007e3	89 45 bc	 mov	 DWORD PTR _sTmp$[ebp], eax
  007e6	81 c6 94 00 00
	00		 add	 esi, 148		; 00000094H
  007ec	0f b7 87 2c 01
	00 00		 movzx	 eax, WORD PTR [edi+300]
  007f3	8b ce		 mov	 ecx, esi
  007f5	66 89 45 c0	 mov	 WORD PTR _sTmp$[ebp+4], ax
  007f9	8d 45 bc	 lea	 eax, DWORD PTR _sTmp$[ebp]
  007fc	50		 push	 eax
  007fd	c6 45 c2 00	 mov	 BYTE PTR _sTmp$[ebp+6], 0
  00801	ff 15 00 00 00
	00		 call	 DWORD PTR __imp_??4?$CStringT@DV?$StrTraitMFC_DLL@DV?$ChTraitsCRT@D@ATL@@@@@ATL@@QAEAAV01@PBD@Z
  00807	8b ce		 mov	 ecx, esi
  00809	ff 15 00 00 00
	00		 call	 DWORD PTR __imp_?TrimLeft@?$CStringT@DV?$StrTraitMFC_DLL@DV?$ChTraitsCRT@D@ATL@@@@@ATL@@QAEAAV12@XZ
  0080f	8b ce		 mov	 ecx, esi
  00811	ff 15 00 00 00
	00		 call	 DWORD PTR __imp_?TrimRight@?$CStringT@DV?$StrTraitMFC_DLL@DV?$ChTraitsCRT@D@ATL@@@@@ATL@@QAEAAV12@XZ

; 356  : 		DATA_MEMCOPY(sTmp, pInput, high);			/* (8)                         */

  00817	8b 87 2e 01 00
	00		 mov	 eax, DWORD PTR [edi+302]
  0081d	8b 75 b8	 mov	 esi, DWORD PTR _this$GSCopy$1$[ebp]
  00820	8b 8f 32 01 00
	00		 mov	 ecx, DWORD PTR [edi+306]
  00826	81 c6 98 00 00
	00		 add	 esi, 152		; 00000098H
  0082c	89 45 bc	 mov	 DWORD PTR _sTmp$[ebp], eax
  0082f	8d 45 bc	 lea	 eax, DWORD PTR _sTmp$[ebp]
  00832	89 4d c0	 mov	 DWORD PTR _sTmp$[ebp+4], ecx
  00835	c6 45 c4 00	 mov	 BYTE PTR _sTmp$[ebp+8], 0
  00839	50		 push	 eax
  0083a	8b ce		 mov	 ecx, esi
  0083c	ff 15 00 00 00
	00		 call	 DWORD PTR __imp_??4?$CStringT@DV?$StrTraitMFC_DLL@DV?$ChTraitsCRT@D@ATL@@@@@ATL@@QAEAAV01@PBD@Z
  00842	8b ce		 mov	 ecx, esi
  00844	ff 15 00 00 00
	00		 call	 DWORD PTR __imp_?TrimLeft@?$CStringT@DV?$StrTraitMFC_DLL@DV?$ChTraitsCRT@D@ATL@@@@@ATL@@QAEAAV12@XZ
  0084a	8b ce		 mov	 ecx, esi
  0084c	ff 15 00 00 00
	00		 call	 DWORD PTR __imp_?TrimRight@?$CStringT@DV?$StrTraitMFC_DLL@DV?$ChTraitsCRT@D@ATL@@@@@ATL@@QAEAAV12@XZ

; 357  : 		DATA_MEMCOPY(sTmp, pInput, low);			/* (8)                         */

  00852	8b 87 36 01 00
	00		 mov	 eax, DWORD PTR [edi+310]
  00858	8b 8f 3a 01 00
	00		 mov	 ecx, DWORD PTR [edi+314]
  0085e	8b 75 b8	 mov	 esi, DWORD PTR _this$GSCopy$1$[ebp]
  00861	89 45 bc	 mov	 DWORD PTR _sTmp$[ebp], eax
  00864	81 c6 9c 00 00
	00		 add	 esi, 156		; 0000009cH
  0086a	8d 45 bc	 lea	 eax, DWORD PTR _sTmp$[ebp]
  0086d	89 4d c0	 mov	 DWORD PTR _sTmp$[ebp+4], ecx
  00870	50		 push	 eax
  00871	8b ce		 mov	 ecx, esi
  00873	c6 45 c4 00	 mov	 BYTE PTR _sTmp$[ebp+8], 0
  00877	ff 15 00 00 00
	00		 call	 DWORD PTR __imp_??4?$CStringT@DV?$StrTraitMFC_DLL@DV?$ChTraitsCRT@D@ATL@@@@@ATL@@QAEAAV01@PBD@Z
  0087d	8b ce		 mov	 ecx, esi
  0087f	ff 15 00 00 00
	00		 call	 DWORD PTR __imp_?TrimLeft@?$CStringT@DV?$StrTraitMFC_DLL@DV?$ChTraitsCRT@D@ATL@@@@@ATL@@QAEAAV12@XZ
  00885	8b ce		 mov	 ecx, esi
  00887	ff 15 00 00 00
	00		 call	 DWORD PTR __imp_?TrimRight@?$CStringT@DV?$StrTraitMFC_DLL@DV?$ChTraitsCRT@D@ATL@@@@@ATL@@QAEAAV12@XZ

; 358  : 		DATA_MEMCOPY(sTmp, pInput, volrate);		/* (12)                  */

  0088d	8b 87 3e 01 00
	00		 mov	 eax, DWORD PTR [edi+318]
  00893	8b 75 b8	 mov	 esi, DWORD PTR _this$GSCopy$1$[ebp]
  00896	89 45 bc	 mov	 DWORD PTR _sTmp$[ebp], eax
  00899	81 c6 a0 00 00
	00		 add	 esi, 160		; 000000a0H
  0089f	0f b7 87 42 01
	00 00		 movzx	 eax, WORD PTR [edi+322]
  008a6	8b ce		 mov	 ecx, esi
  008a8	66 89 45 c0	 mov	 WORD PTR _sTmp$[ebp+4], ax
  008ac	0f b6 87 44 01
	00 00		 movzx	 eax, BYTE PTR [edi+324]
  008b3	88 45 c2	 mov	 BYTE PTR _sTmp$[ebp+6], al
  008b6	8d 45 bc	 lea	 eax, DWORD PTR _sTmp$[ebp]
  008b9	50		 push	 eax
  008ba	c6 45 c3 00	 mov	 BYTE PTR _sTmp$[ebp+7], 0
  008be	ff 15 00 00 00
	00		 call	 DWORD PTR __imp_??4?$CStringT@DV?$StrTraitMFC_DLL@DV?$ChTraitsCRT@D@ATL@@@@@ATL@@QAEAAV01@PBD@Z
  008c4	8b ce		 mov	 ecx, esi
  008c6	ff 15 00 00 00
	00		 call	 DWORD PTR __imp_?TrimLeft@?$CStringT@DV?$StrTraitMFC_DLL@DV?$ChTraitsCRT@D@ATL@@@@@ATL@@QAEAAV12@XZ
  008cc	8b ce		 mov	 ecx, esi
  008ce	ff 15 00 00 00
	00		 call	 DWORD PTR __imp_?TrimRight@?$CStringT@DV?$StrTraitMFC_DLL@DV?$ChTraitsCRT@D@ATL@@@@@ATL@@QAEAAV12@XZ

; 359  : 		DATA_MEMCOPY(sTmp, pInput, jnilysign);		/* (1)   */

  008d4	0f b6 87 45 01
	00 00		 movzx	 eax, BYTE PTR [edi+325]
  008db	8b 75 b8	 mov	 esi, DWORD PTR _this$GSCopy$1$[ebp]
  008de	88 45 bc	 mov	 BYTE PTR _sTmp$[ebp], al
  008e1	81 c6 a4 00 00
	00		 add	 esi, 164		; 000000a4H
  008e7	8d 45 bc	 lea	 eax, DWORD PTR _sTmp$[ebp]
  008ea	c6 45 bd 00	 mov	 BYTE PTR _sTmp$[ebp+1], 0
  008ee	50		 push	 eax
  008ef	8b ce		 mov	 ecx, esi
  008f1	ff 15 00 00 00
	00		 call	 DWORD PTR __imp_??4?$CStringT@DV?$StrTraitMFC_DLL@DV?$ChTraitsCRT@D@ATL@@@@@ATL@@QAEAAV01@PBD@Z
  008f7	8b ce		 mov	 ecx, esi
  008f9	ff 15 00 00 00
	00		 call	 DWORD PTR __imp_?TrimLeft@?$CStringT@DV?$StrTraitMFC_DLL@DV?$ChTraitsCRT@D@ATL@@@@@ATL@@QAEAAV12@XZ
  008ff	8b ce		 mov	 ecx, esi
  00901	ff 15 00 00 00
	00		 call	 DWORD PTR __imp_?TrimRight@?$CStringT@DV?$StrTraitMFC_DLL@DV?$ChTraitsCRT@D@ATL@@@@@ATL@@QAEAAV12@XZ

; 360  : //		DATA_MEMCOPY(sTmp, pInput, listing);		/* (12)                  */
; 361  : 	}

  00907	8d 4d b4	 lea	 ecx, DWORD PTR _sTemp1$[ebp]
  0090a	ff 15 00 00 00
	00		 call	 DWORD PTR __imp_??1?$CStringT@DV?$StrTraitMFC_DLL@DV?$ChTraitsCRT@D@ATL@@@@@ATL@@QAE@XZ
  00910	8b 4d f4	 mov	 ecx, DWORD PTR __$EHRec$[ebp]
  00913	64 89 0d 00 00
	00 00		 mov	 DWORD PTR fs:0, ecx
  0091a	59		 pop	 ecx
  0091b	5f		 pop	 edi
  0091c	5e		 pop	 esi
  0091d	8b 4d f0	 mov	 ecx, DWORD PTR __$ArrayPad$[ebp]
  00920	33 cd		 xor	 ecx, ebp
  00922	e8 00 00 00 00	 call	 @__security_check_cookie@4
  00927	8b e5		 mov	 esp, ebp
  00929	5d		 pop	 ebp
  0092a	c2 04 00	 ret	 4
_TEXT	ENDS
;	COMDAT text$x
text$x	SEGMENT
__unwindfunclet$?Convert@CKB_01230@@UAEXPAU_k01230Out2@@@Z$0:
  00000	8d 4d b4	 lea	 ecx, DWORD PTR _sTemp1$[ebp]
  00003	ff 25 00 00 00
	00		 jmp	 DWORD PTR __imp_??1?$CStringT@DV?$StrTraitMFC_DLL@DV?$ChTraitsCRT@D@ATL@@@@@ATL@@QAE@XZ
  00009	cc		 int	 3
  0000a	cc		 int	 3
  0000b	cc		 int	 3
  0000c	cc		 int	 3
  0000d	cc		 int	 3
__ehhandler$?Convert@CKB_01230@@UAEXPAU_k01230Out2@@@Z:
  0000e	90		 npad	 1
  0000f	90		 npad	 1
  00010	8b 54 24 08	 mov	 edx, DWORD PTR [esp+8]
  00014	8d 42 0c	 lea	 eax, DWORD PTR [edx+12]
  00017	8b 4a b4	 mov	 ecx, DWORD PTR [edx-76]
  0001a	33 c8		 xor	 ecx, eax
  0001c	e8 00 00 00 00	 call	 @__security_check_cookie@4
  00021	8b 4a fc	 mov	 ecx, DWORD PTR [edx-4]
  00024	33 c8		 xor	 ecx, eax
  00026	e8 00 00 00 00	 call	 @__security_check_cookie@4
  0002b	b8 00 00 00 00	 mov	 eax, OFFSET __ehfuncinfo$?Convert@CKB_01230@@UAEXPAU_k01230Out2@@@Z
  00030	e9 00 00 00 00	 jmp	 ___CxxFrameHandler3
text$x	ENDS
?Convert@CKB_01230@@UAEXPAU_k01230Out2@@@Z ENDP		; CKB_01230::Convert
; Function compile flags: /Ogtp
; File D:\git\src\IBK\IBK_DRFN\ProjSrc\SrcDrfn\Chart\commontr\KB_01230.H
;	COMDAT ??0CKB_01230@@QAE@XZ
_TEXT	SEGMENT
_this$ = -4						; size = 4
??0CKB_01230@@QAE@XZ PROC				; CKB_01230::CKB_01230, COMDAT
; _this$ = ecx

; 309  : 	CKB_01230()

  00000	55		 push	 ebp
  00001	8b ec		 mov	 ebp, esp
  00003	51		 push	 ecx
  00004	56		 push	 esi
  00005	8b f1		 mov	 esi, ecx
  00007	89 75 fc	 mov	 DWORD PTR _this$[ebp], esi
  0000a	8d 4e 04	 lea	 ecx, DWORD PTR [esi+4]
  0000d	c7 06 00 00 00
	00		 mov	 DWORD PTR [esi], OFFSET ??_7CKB_01230@@6B@
  00013	ff 15 00 00 00
	00		 call	 DWORD PTR __imp_??0?$CStringT@DV?$StrTraitMFC_DLL@DV?$ChTraitsCRT@D@ATL@@@@@ATL@@QAE@XZ
  00019	8d 4e 08	 lea	 ecx, DWORD PTR [esi+8]
  0001c	ff 15 00 00 00
	00		 call	 DWORD PTR __imp_??0?$CStringT@DV?$StrTraitMFC_DLL@DV?$ChTraitsCRT@D@ATL@@@@@ATL@@QAE@XZ
  00022	8d 4e 0c	 lea	 ecx, DWORD PTR [esi+12]
  00025	ff 15 00 00 00
	00		 call	 DWORD PTR __imp_??0?$CStringT@DV?$StrTraitMFC_DLL@DV?$ChTraitsCRT@D@ATL@@@@@ATL@@QAE@XZ
  0002b	8d 4e 10	 lea	 ecx, DWORD PTR [esi+16]
  0002e	ff 15 00 00 00
	00		 call	 DWORD PTR __imp_??0?$CStringT@DV?$StrTraitMFC_DLL@DV?$ChTraitsCRT@D@ATL@@@@@ATL@@QAE@XZ
  00034	8d 4e 14	 lea	 ecx, DWORD PTR [esi+20]
  00037	ff 15 00 00 00
	00		 call	 DWORD PTR __imp_??0?$CStringT@DV?$StrTraitMFC_DLL@DV?$ChTraitsCRT@D@ATL@@@@@ATL@@QAE@XZ
  0003d	8d 4e 18	 lea	 ecx, DWORD PTR [esi+24]
  00040	ff 15 00 00 00
	00		 call	 DWORD PTR __imp_??0?$CStringT@DV?$StrTraitMFC_DLL@DV?$ChTraitsCRT@D@ATL@@@@@ATL@@QAE@XZ
  00046	8d 4e 1c	 lea	 ecx, DWORD PTR [esi+28]
  00049	ff 15 00 00 00
	00		 call	 DWORD PTR __imp_??0?$CStringT@DV?$StrTraitMFC_DLL@DV?$ChTraitsCRT@D@ATL@@@@@ATL@@QAE@XZ
  0004f	8d 4e 20	 lea	 ecx, DWORD PTR [esi+32]
  00052	ff 15 00 00 00
	00		 call	 DWORD PTR __imp_??0?$CStringT@DV?$StrTraitMFC_DLL@DV?$ChTraitsCRT@D@ATL@@@@@ATL@@QAE@XZ
  00058	8d 4e 24	 lea	 ecx, DWORD PTR [esi+36]
  0005b	ff 15 00 00 00
	00		 call	 DWORD PTR __imp_??0?$CStringT@DV?$StrTraitMFC_DLL@DV?$ChTraitsCRT@D@ATL@@@@@ATL@@QAE@XZ
  00061	8d 4e 28	 lea	 ecx, DWORD PTR [esi+40]
  00064	ff 15 00 00 00
	00		 call	 DWORD PTR __imp_??0?$CStringT@DV?$StrTraitMFC_DLL@DV?$ChTraitsCRT@D@ATL@@@@@ATL@@QAE@XZ
  0006a	8d 4e 2c	 lea	 ecx, DWORD PTR [esi+44]
  0006d	ff 15 00 00 00
	00		 call	 DWORD PTR __imp_??0?$CStringT@DV?$StrTraitMFC_DLL@DV?$ChTraitsCRT@D@ATL@@@@@ATL@@QAE@XZ
  00073	8d 4e 30	 lea	 ecx, DWORD PTR [esi+48]
  00076	ff 15 00 00 00
	00		 call	 DWORD PTR __imp_??0?$CStringT@DV?$StrTraitMFC_DLL@DV?$ChTraitsCRT@D@ATL@@@@@ATL@@QAE@XZ
  0007c	8d 4e 34	 lea	 ecx, DWORD PTR [esi+52]
  0007f	ff 15 00 00 00
	00		 call	 DWORD PTR __imp_??0?$CStringT@DV?$StrTraitMFC_DLL@DV?$ChTraitsCRT@D@ATL@@@@@ATL@@QAE@XZ
  00085	8d 4e 38	 lea	 ecx, DWORD PTR [esi+56]
  00088	ff 15 00 00 00
	00		 call	 DWORD PTR __imp_??0?$CStringT@DV?$StrTraitMFC_DLL@DV?$ChTraitsCRT@D@ATL@@@@@ATL@@QAE@XZ
  0008e	8d 4e 3c	 lea	 ecx, DWORD PTR [esi+60]
  00091	ff 15 00 00 00
	00		 call	 DWORD PTR __imp_??0?$CStringT@DV?$StrTraitMFC_DLL@DV?$ChTraitsCRT@D@ATL@@@@@ATL@@QAE@XZ
  00097	8d 4e 40	 lea	 ecx, DWORD PTR [esi+64]
  0009a	ff 15 00 00 00
	00		 call	 DWORD PTR __imp_??0?$CStringT@DV?$StrTraitMFC_DLL@DV?$ChTraitsCRT@D@ATL@@@@@ATL@@QAE@XZ
  000a0	8d 4e 44	 lea	 ecx, DWORD PTR [esi+68]
  000a3	ff 15 00 00 00
	00		 call	 DWORD PTR __imp_??0?$CStringT@DV?$StrTraitMFC_DLL@DV?$ChTraitsCRT@D@ATL@@@@@ATL@@QAE@XZ
  000a9	8d 4e 48	 lea	 ecx, DWORD PTR [esi+72]
  000ac	ff 15 00 00 00
	00		 call	 DWORD PTR __imp_??0?$CStringT@DV?$StrTraitMFC_DLL@DV?$ChTraitsCRT@D@ATL@@@@@ATL@@QAE@XZ
  000b2	8d 4e 4c	 lea	 ecx, DWORD PTR [esi+76]
  000b5	ff 15 00 00 00
	00		 call	 DWORD PTR __imp_??0?$CStringT@DV?$StrTraitMFC_DLL@DV?$ChTraitsCRT@D@ATL@@@@@ATL@@QAE@XZ
  000bb	8d 4e 50	 lea	 ecx, DWORD PTR [esi+80]
  000be	ff 15 00 00 00
	00		 call	 DWORD PTR __imp_??0?$CStringT@DV?$StrTraitMFC_DLL@DV?$ChTraitsCRT@D@ATL@@@@@ATL@@QAE@XZ
  000c4	8d 4e 54	 lea	 ecx, DWORD PTR [esi+84]
  000c7	ff 15 00 00 00
	00		 call	 DWORD PTR __imp_??0?$CStringT@DV?$StrTraitMFC_DLL@DV?$ChTraitsCRT@D@ATL@@@@@ATL@@QAE@XZ
  000cd	8d 4e 58	 lea	 ecx, DWORD PTR [esi+88]
  000d0	ff 15 00 00 00
	00		 call	 DWORD PTR __imp_??0?$CStringT@DV?$StrTraitMFC_DLL@DV?$ChTraitsCRT@D@ATL@@@@@ATL@@QAE@XZ
  000d6	8d 4e 5c	 lea	 ecx, DWORD PTR [esi+92]
  000d9	ff 15 00 00 00
	00		 call	 DWORD PTR __imp_??0?$CStringT@DV?$StrTraitMFC_DLL@DV?$ChTraitsCRT@D@ATL@@@@@ATL@@QAE@XZ
  000df	8d 4e 60	 lea	 ecx, DWORD PTR [esi+96]
  000e2	ff 15 00 00 00
	00		 call	 DWORD PTR __imp_??0?$CStringT@DV?$StrTraitMFC_DLL@DV?$ChTraitsCRT@D@ATL@@@@@ATL@@QAE@XZ
  000e8	8d 4e 64	 lea	 ecx, DWORD PTR [esi+100]
  000eb	ff 15 00 00 00
	00		 call	 DWORD PTR __imp_??0?$CStringT@DV?$StrTraitMFC_DLL@DV?$ChTraitsCRT@D@ATL@@@@@ATL@@QAE@XZ
  000f1	8d 4e 68	 lea	 ecx, DWORD PTR [esi+104]
  000f4	ff 15 00 00 00
	00		 call	 DWORD PTR __imp_??0?$CStringT@DV?$StrTraitMFC_DLL@DV?$ChTraitsCRT@D@ATL@@@@@ATL@@QAE@XZ
  000fa	8d 4e 6c	 lea	 ecx, DWORD PTR [esi+108]
  000fd	ff 15 00 00 00
	00		 call	 DWORD PTR __imp_??0?$CStringT@DV?$StrTraitMFC_DLL@DV?$ChTraitsCRT@D@ATL@@@@@ATL@@QAE@XZ
  00103	8d 4e 70	 lea	 ecx, DWORD PTR [esi+112]
  00106	ff 15 00 00 00
	00		 call	 DWORD PTR __imp_??0?$CStringT@DV?$StrTraitMFC_DLL@DV?$ChTraitsCRT@D@ATL@@@@@ATL@@QAE@XZ
  0010c	8d 4e 74	 lea	 ecx, DWORD PTR [esi+116]
  0010f	ff 15 00 00 00
	00		 call	 DWORD PTR __imp_??0?$CStringT@DV?$StrTraitMFC_DLL@DV?$ChTraitsCRT@D@ATL@@@@@ATL@@QAE@XZ
  00115	8d 4e 78	 lea	 ecx, DWORD PTR [esi+120]
  00118	ff 15 00 00 00
	00		 call	 DWORD PTR __imp_??0?$CStringT@DV?$StrTraitMFC_DLL@DV?$ChTraitsCRT@D@ATL@@@@@ATL@@QAE@XZ
  0011e	8d 4e 7c	 lea	 ecx, DWORD PTR [esi+124]
  00121	ff 15 00 00 00
	00		 call	 DWORD PTR __imp_??0?$CStringT@DV?$StrTraitMFC_DLL@DV?$ChTraitsCRT@D@ATL@@@@@ATL@@QAE@XZ
  00127	8d 8e 80 00 00
	00		 lea	 ecx, DWORD PTR [esi+128]
  0012d	ff 15 00 00 00
	00		 call	 DWORD PTR __imp_??0?$CStringT@DV?$StrTraitMFC_DLL@DV?$ChTraitsCRT@D@ATL@@@@@ATL@@QAE@XZ
  00133	8d 8e 84 00 00
	00		 lea	 ecx, DWORD PTR [esi+132]
  00139	ff 15 00 00 00
	00		 call	 DWORD PTR __imp_??0?$CStringT@DV?$StrTraitMFC_DLL@DV?$ChTraitsCRT@D@ATL@@@@@ATL@@QAE@XZ
  0013f	8d 8e 88 00 00
	00		 lea	 ecx, DWORD PTR [esi+136]
  00145	ff 15 00 00 00
	00		 call	 DWORD PTR __imp_??0?$CStringT@DV?$StrTraitMFC_DLL@DV?$ChTraitsCRT@D@ATL@@@@@ATL@@QAE@XZ
  0014b	8d 8e 8c 00 00
	00		 lea	 ecx, DWORD PTR [esi+140]
  00151	ff 15 00 00 00
	00		 call	 DWORD PTR __imp_??0?$CStringT@DV?$StrTraitMFC_DLL@DV?$ChTraitsCRT@D@ATL@@@@@ATL@@QAE@XZ
  00157	8d 8e 90 00 00
	00		 lea	 ecx, DWORD PTR [esi+144]
  0015d	ff 15 00 00 00
	00		 call	 DWORD PTR __imp_??0?$CStringT@DV?$StrTraitMFC_DLL@DV?$ChTraitsCRT@D@ATL@@@@@ATL@@QAE@XZ
  00163	8d 8e 94 00 00
	00		 lea	 ecx, DWORD PTR [esi+148]
  00169	ff 15 00 00 00
	00		 call	 DWORD PTR __imp_??0?$CStringT@DV?$StrTraitMFC_DLL@DV?$ChTraitsCRT@D@ATL@@@@@ATL@@QAE@XZ
  0016f	8d 8e 98 00 00
	00		 lea	 ecx, DWORD PTR [esi+152]
  00175	ff 15 00 00 00
	00		 call	 DWORD PTR __imp_??0?$CStringT@DV?$StrTraitMFC_DLL@DV?$ChTraitsCRT@D@ATL@@@@@ATL@@QAE@XZ
  0017b	8d 8e 9c 00 00
	00		 lea	 ecx, DWORD PTR [esi+156]
  00181	ff 15 00 00 00
	00		 call	 DWORD PTR __imp_??0?$CStringT@DV?$StrTraitMFC_DLL@DV?$ChTraitsCRT@D@ATL@@@@@ATL@@QAE@XZ
  00187	8d 8e a0 00 00
	00		 lea	 ecx, DWORD PTR [esi+160]
  0018d	ff 15 00 00 00
	00		 call	 DWORD PTR __imp_??0?$CStringT@DV?$StrTraitMFC_DLL@DV?$ChTraitsCRT@D@ATL@@@@@ATL@@QAE@XZ
  00193	8d 8e a4 00 00
	00		 lea	 ecx, DWORD PTR [esi+164]
  00199	ff 15 00 00 00
	00		 call	 DWORD PTR __imp_??0?$CStringT@DV?$StrTraitMFC_DLL@DV?$ChTraitsCRT@D@ATL@@@@@ATL@@QAE@XZ

; 310  : 	{
; 311  : 	}

  0019f	8b c6		 mov	 eax, esi
  001a1	5e		 pop	 esi
  001a2	8b e5		 mov	 esp, ebp
  001a4	5d		 pop	 ebp
  001a5	c3		 ret	 0
??0CKB_01230@@QAE@XZ ENDP				; CKB_01230::CKB_01230
_TEXT	ENDS
; Function compile flags: /Ogtp
;	COMDAT ??1_GV_ITEM@@QAE@XZ
_TEXT	SEGMENT
??1_GV_ITEM@@QAE@XZ PROC				; _GV_ITEM::~_GV_ITEM, COMDAT
; _this$ = ecx
  00000	83 c1 64	 add	 ecx, 100		; 00000064H
  00003	ff 25 00 00 00
	00		 jmp	 DWORD PTR __imp_??1?$CStringT@DV?$StrTraitMFC_DLL@DV?$ChTraitsCRT@D@ATL@@@@@ATL@@QAE@XZ
??1_GV_ITEM@@QAE@XZ ENDP				; _GV_ITEM::~_GV_ITEM
_TEXT	ENDS
; Function compile flags: /Ogtp
; File C:\Program Files (x86)\Microsoft Visual Studio\2019\Community\VC\Tools\MSVC\14.29.30133\atlmfc\include\afx.inl
;	COMDAT ??_GCUtil@@UAEPAXI@Z
_TEXT	SEGMENT
___flags$ = 8						; size = 4
??_GCUtil@@UAEPAXI@Z PROC				; CUtil::`scalar deleting destructor', COMDAT
; _this$ = ecx
  00000	55		 push	 ebp
  00001	8b ec		 mov	 ebp, esp
  00003	8b 45 08	 mov	 eax, DWORD PTR ___flags$[ebp]
  00006	56		 push	 esi
  00007	8b f1		 mov	 esi, ecx
  00009	a8 01		 test	 al, 1
  0000b	74 1f		 je	 SHORT $LN9@scalar
  0000d	a8 04		 test	 al, 4
  0000f	75 10		 jne	 SHORT $LN3@scalar

; 112  : 	{ ::operator delete(p); }

  00011	56		 push	 esi
  00012	e8 00 00 00 00	 call	 ??3@YAXPAX@Z		; operator delete
  00017	83 c4 04	 add	 esp, 4
  0001a	8b c6		 mov	 eax, esi
  0001c	5e		 pop	 esi
  0001d	5d		 pop	 ebp
  0001e	c2 04 00	 ret	 4
$LN3@scalar:
  00021	6a 04		 push	 4
  00023	56		 push	 esi
  00024	e8 00 00 00 00	 call	 ?__global_delete@@YAXPAXI@Z ; __global_delete
  00029	83 c4 08	 add	 esp, 8
$LN9@scalar:
  0002c	8b c6		 mov	 eax, esi
  0002e	5e		 pop	 esi
  0002f	5d		 pop	 ebp
  00030	c2 04 00	 ret	 4
??_GCUtil@@UAEPAXI@Z ENDP				; CUtil::`scalar deleting destructor'
_TEXT	ENDS
; Function compile flags: /Ogtp
;	COMDAT ??1CRscDlg@@UAE@XZ
_TEXT	SEGMENT
??1CRscDlg@@UAE@XZ PROC					; CRscDlg::~CRscDlg, COMDAT
; _this$ = ecx
  00000	e9 00 00 00 00	 jmp	 ??1CDialog@@UAE@XZ	; CDialog::~CDialog
??1CRscDlg@@UAE@XZ ENDP					; CRscDlg::~CRscDlg
_TEXT	ENDS
; Function compile flags: /Ogtp
; File D:\git\src\IBK\IBK_DRFN\ProjSrc\SrcDrfn\Chart\MULTICHART\define\ChartMsgDef.h
;	COMDAT ??__ERMSG_SETINFO@@YAXXZ
text$di	SEGMENT
??__ERMSG_SETINFO@@YAXXZ PROC				; `dynamic initializer for 'RMSG_SETINFO'', COMDAT

; 238  : const UINT RMSG_SETINFO = ::RegisterWindowMessage(_T("RMSG_SETINFO"));

  00000	68 00 00 00 00	 push	 OFFSET ??_C@_0N@HABLPHJG@RMSG_SETINFO@
  00005	ff 15 00 00 00
	00		 call	 DWORD PTR __imp__RegisterWindowMessageA@4
  0000b	a3 00 00 00 00	 mov	 DWORD PTR ?RMSG_SETINFO@@3IB, eax
  00010	c3		 ret	 0
??__ERMSG_SETINFO@@YAXXZ ENDP				; `dynamic initializer for 'RMSG_SETINFO''
text$di	ENDS
; Function compile flags: /Ogtp
; File D:\git\src\IBK\IBK_DRFN\ProjSrc\SrcDrfn\Chart\MULTICHART\define\ChartMsgDef.h
;	COMDAT ??__ERMSG_GETINFO@@YAXXZ
text$di	SEGMENT
??__ERMSG_GETINFO@@YAXXZ PROC				; `dynamic initializer for 'RMSG_GETINFO'', COMDAT

; 237  : const UINT RMSG_GETINFO = ::RegisterWindowMessage(_T("RMSG_GETINFO"));

  00000	68 00 00 00 00	 push	 OFFSET ??_C@_0N@IIOKMIEH@RMSG_GETINFO@
  00005	ff 15 00 00 00
	00		 call	 DWORD PTR __imp__RegisterWindowMessageA@4
  0000b	a3 00 00 00 00	 mov	 DWORD PTR ?RMSG_GETINFO@@3IB, eax
  00010	c3		 ret	 0
??__ERMSG_GETINFO@@YAXXZ ENDP				; `dynamic initializer for 'RMSG_GETINFO''
text$di	ENDS
; Function compile flags: /Ogtp
; File D:\git\src\IBK\IBK_DRFN\ProjSrc\SrcDrfn\Chart\MULTICHART\define\ChartMsgDef.h
;	COMDAT ??__ERMSG_SETINITIALCHARTDATA@@YAXXZ
text$di	SEGMENT
??__ERMSG_SETINITIALCHARTDATA@@YAXXZ PROC		; `dynamic initializer for 'RMSG_SETINITIALCHARTDATA'', COMDAT

; 235  : const UINT RMSG_SETINITIALCHARTDATA = ::RegisterWindowMessage(_T("RMSG_SETINITIALCHARTDATA"));

  00000	68 00 00 00 00	 push	 OFFSET ??_C@_0BJ@OGNAJHHI@RMSG_SETINITIALCHARTDATA@
  00005	ff 15 00 00 00
	00		 call	 DWORD PTR __imp__RegisterWindowMessageA@4
  0000b	a3 00 00 00 00	 mov	 DWORD PTR ?RMSG_SETINITIALCHARTDATA@@3IB, eax
  00010	c3		 ret	 0
??__ERMSG_SETINITIALCHARTDATA@@YAXXZ ENDP		; `dynamic initializer for 'RMSG_SETINITIALCHARTDATA''
text$di	ENDS
; Function compile flags: /Ogtp
; File D:\git\src\IBK\IBK_DRFN\ProjSrc\SrcDrfn\Chart\MULTICHART\define\ChartMsgDef.h
;	COMDAT ??__ERMSG_ADD_PLATFORM_MENU@@YAXXZ
text$di	SEGMENT
??__ERMSG_ADD_PLATFORM_MENU@@YAXXZ PROC			; `dynamic initializer for 'RMSG_ADD_PLATFORM_MENU'', COMDAT

; 233  : const UINT RMSG_ADD_PLATFORM_MENU = ::RegisterWindowMessage(_T("RMSG_ADD_PLATFORM_MENU"));

  00000	68 00 00 00 00	 push	 OFFSET ??_C@_0BH@IFDMIMBP@RMSG_ADD_PLATFORM_MENU@
  00005	ff 15 00 00 00
	00		 call	 DWORD PTR __imp__RegisterWindowMessageA@4
  0000b	a3 00 00 00 00	 mov	 DWORD PTR ?RMSG_ADD_PLATFORM_MENU@@3IB, eax
  00010	c3		 ret	 0
??__ERMSG_ADD_PLATFORM_MENU@@YAXXZ ENDP			; `dynamic initializer for 'RMSG_ADD_PLATFORM_MENU''
text$di	ENDS
; Function compile flags: /Ogtp
; File D:\git\src\IBK\IBK_DRFN\ProjSrc\SrcDrfn\Chart\MULTICHART\define\ChartMsgDef.h
;	COMDAT ??__ERMSG_CHANGE_CROSSLINE@@YAXXZ
text$di	SEGMENT
??__ERMSG_CHANGE_CROSSLINE@@YAXXZ PROC			; `dynamic initializer for 'RMSG_CHANGE_CROSSLINE'', COMDAT

; 231  : const UINT RMSG_CHANGE_CROSSLINE = ::RegisterWindowMessage(_T("RMSG_CHANGE_CROSSLINE"));

  00000	68 00 00 00 00	 push	 OFFSET ??_C@_0BG@LNLCJKPF@RMSG_CHANGE_CROSSLINE@
  00005	ff 15 00 00 00
	00		 call	 DWORD PTR __imp__RegisterWindowMessageA@4
  0000b	a3 00 00 00 00	 mov	 DWORD PTR ?RMSG_CHANGE_CROSSLINE@@3IB, eax
  00010	c3		 ret	 0
??__ERMSG_CHANGE_CROSSLINE@@YAXXZ ENDP			; `dynamic initializer for 'RMSG_CHANGE_CROSSLINE''
text$di	ENDS
; Function compile flags: /Ogtp
; File D:\git\src\IBK\IBK_DRFN\ProjSrc\SrcDrfn\Chart\MULTICHART\define\ChartMsgDef.h
;	COMDAT ??__ERMSG_CHANGEVERTSCALETYPE@@YAXXZ
text$di	SEGMENT
??__ERMSG_CHANGEVERTSCALETYPE@@YAXXZ PROC		; `dynamic initializer for 'RMSG_CHANGEVERTSCALETYPE'', COMDAT

; 229  : const UINT RMSG_CHANGEVERTSCALETYPE = ::RegisterWindowMessage(_T("RMSG_CHANGEVERTSCALETYPE"));

  00000	68 00 00 00 00	 push	 OFFSET ??_C@_0BJ@JLKHIBIK@RMSG_CHANGEVERTSCALETYPE@
  00005	ff 15 00 00 00
	00		 call	 DWORD PTR __imp__RegisterWindowMessageA@4
  0000b	a3 00 00 00 00	 mov	 DWORD PTR ?RMSG_CHANGEVERTSCALETYPE@@3IB, eax
  00010	c3		 ret	 0
??__ERMSG_CHANGEVERTSCALETYPE@@YAXXZ ENDP		; `dynamic initializer for 'RMSG_CHANGEVERTSCALETYPE''
text$di	ENDS
; Function compile flags: /Ogtp
; File D:\git\src\IBK\IBK_DRFN\ProjSrc\SrcDrfn\Chart\MULTICHART\define\ChartMsgDef.h
;	COMDAT ??__ERMSG_GET_SKINCOLOR@@YAXXZ
text$di	SEGMENT
??__ERMSG_GET_SKINCOLOR@@YAXXZ PROC			; `dynamic initializer for 'RMSG_GET_SKINCOLOR'', COMDAT

; 226  : const UINT RMSG_GET_SKINCOLOR = ::RegisterWindowMessage(_T("RMSG_GET_SKINCOLOR"));

  00000	68 00 00 00 00	 push	 OFFSET ??_C@_0BD@FLDNDDHK@RMSG_GET_SKINCOLOR@
  00005	ff 15 00 00 00
	00		 call	 DWORD PTR __imp__RegisterWindowMessageA@4
  0000b	a3 00 00 00 00	 mov	 DWORD PTR ?RMSG_GET_SKINCOLOR@@3IB, eax
  00010	c3		 ret	 0
??__ERMSG_GET_SKINCOLOR@@YAXXZ ENDP			; `dynamic initializer for 'RMSG_GET_SKINCOLOR''
text$di	ENDS
; Function compile flags: /Ogtp
; File D:\git\src\IBK\IBK_DRFN\ProjSrc\SrcDrfn\Chart\MULTICHART\define\ChartMsgDef.h
;	COMDAT ??__ERMSG_CHANGE_SKINCOLOR@@YAXXZ
text$di	SEGMENT
??__ERMSG_CHANGE_SKINCOLOR@@YAXXZ PROC			; `dynamic initializer for 'RMSG_CHANGE_SKINCOLOR'', COMDAT

; 225  : const UINT RMSG_CHANGE_SKINCOLOR = ::RegisterWindowMessage(_T("RMSG_CHANGE_SKINCOLOR"));

  00000	68 00 00 00 00	 push	 OFFSET ??_C@_0BG@CNPAHNGG@RMSG_CHANGE_SKINCOLOR@
  00005	ff 15 00 00 00
	00		 call	 DWORD PTR __imp__RegisterWindowMessageA@4
  0000b	a3 00 00 00 00	 mov	 DWORD PTR ?RMSG_CHANGE_SKINCOLOR@@3IB, eax
  00010	c3		 ret	 0
??__ERMSG_CHANGE_SKINCOLOR@@YAXXZ ENDP			; `dynamic initializer for 'RMSG_CHANGE_SKINCOLOR''
text$di	ENDS
; Function compile flags: /Ogtp
; File D:\git\src\IBK\IBK_DRFN\ProjSrc\SrcDrfn\Chart\MULTICHART\define\ChartMsgDef.h
;	COMDAT ??__ERMSG_GET_USERID@@YAXXZ
text$di	SEGMENT
??__ERMSG_GET_USERID@@YAXXZ PROC			; `dynamic initializer for 'RMSG_GET_USERID'', COMDAT

; 215  : const UINT RMSG_GET_USERID = ::RegisterWindowMessage(_T("RMSG_GET_USERID"));	// User ID 

  00000	68 00 00 00 00	 push	 OFFSET ??_C@_0BA@HKNFENJL@RMSG_GET_USERID@
  00005	ff 15 00 00 00
	00		 call	 DWORD PTR __imp__RegisterWindowMessageA@4
  0000b	a3 00 00 00 00	 mov	 DWORD PTR ?RMSG_GET_USERID@@3IB, eax
  00010	c3		 ret	 0
??__ERMSG_GET_USERID@@YAXXZ ENDP			; `dynamic initializer for 'RMSG_GET_USERID''
text$di	ENDS
; Function compile flags: /Ogtp
; File D:\git\src\IBK\IBK_DRFN\ProjSrc\SrcDrfn\Chart\MULTICHART\define\ChartMsgDef.h
;	COMDAT ??__ERMS_ANALYSIS_FUNC@@YAXXZ
text$di	SEGMENT
??__ERMS_ANALYSIS_FUNC@@YAXXZ PROC			; `dynamic initializer for 'RMS_ANALYSIS_FUNC'', COMDAT

; 211  : const UINT RMS_ANALYSIS_FUNC	= ::RegisterWindowMessage(_T("RMS_ANALYSIS_FUNC"));

  00000	68 00 00 00 00	 push	 OFFSET ??_C@_0BC@MMPGLPDH@RMS_ANALYSIS_FUNC@
  00005	ff 15 00 00 00
	00		 call	 DWORD PTR __imp__RegisterWindowMessageA@4
  0000b	a3 00 00 00 00	 mov	 DWORD PTR ?RMS_ANALYSIS_FUNC@@3IB, eax
  00010	c3		 ret	 0
??__ERMS_ANALYSIS_FUNC@@YAXXZ ENDP			; `dynamic initializer for 'RMS_ANALYSIS_FUNC''
text$di	ENDS
; Function compile flags: /Ogtp
; File D:\git\src\IBK\IBK_DRFN\ProjSrc\SrcDrfn\Chart\MULTICHART\define\ChartMsgDef.h
;	COMDAT ??__ERMSG_CHARTMAIN@@YAXXZ
text$di	SEGMENT
??__ERMSG_CHARTMAIN@@YAXXZ PROC				; `dynamic initializer for 'RMSG_CHARTMAIN'', COMDAT

; 208  : const UINT RMSG_CHARTMAIN		= ::RegisterWindowMessage(_T("RMSG_CHARTMAIN"));

  00000	68 00 00 00 00	 push	 OFFSET ??_C@_0P@KHFCBIOH@RMSG_CHARTMAIN@
  00005	ff 15 00 00 00
	00		 call	 DWORD PTR __imp__RegisterWindowMessageA@4
  0000b	a3 00 00 00 00	 mov	 DWORD PTR ?RMSG_CHARTMAIN@@3IB, eax
  00010	c3		 ret	 0
??__ERMSG_CHARTMAIN@@YAXXZ ENDP				; `dynamic initializer for 'RMSG_CHARTMAIN''
text$di	ENDS
; Function compile flags: /Ogtp
; File D:\git\src\IBK\IBK_DRFN\ProjSrc\SrcDrfn\Chart\MULTICHART\define\ChartMsgDef.h
;	COMDAT ??__ERMSG_SETQUERYOPT@@YAXXZ
text$di	SEGMENT
??__ERMSG_SETQUERYOPT@@YAXXZ PROC			; `dynamic initializer for 'RMSG_SETQUERYOPT'', COMDAT

; 183  : const UINT RMSG_SETQUERYOPT = ::RegisterWindowMessage(_T("RMSG_SETQUERYOPT"));

  00000	68 00 00 00 00	 push	 OFFSET ??_C@_0BB@CNOFPEHG@RMSG_SETQUERYOPT@
  00005	ff 15 00 00 00
	00		 call	 DWORD PTR __imp__RegisterWindowMessageA@4
  0000b	a3 00 00 00 00	 mov	 DWORD PTR ?RMSG_SETQUERYOPT@@3IB, eax
  00010	c3		 ret	 0
??__ERMSG_SETQUERYOPT@@YAXXZ ENDP			; `dynamic initializer for 'RMSG_SETQUERYOPT''
text$di	ENDS
; Function compile flags: /Ogtp
; File D:\git\src\IBK\IBK_DRFN\ProjSrc\SrcDrfn\Chart\commontr\TRDefine.h
;	COMDAT ??__ERMSG_GETSIGNAL_REAL@@YAXXZ
text$di	SEGMENT
??__ERMSG_GETSIGNAL_REAL@@YAXXZ PROC			; `dynamic initializer for 'RMSG_GETSIGNAL_REAL'', COMDAT

; 213  : const UINT RMSG_GETSIGNAL_REAL = ::RegisterWindowMessage(_T("RMSG_GETSIGNAL_REAL"));

  00000	68 00 00 00 00	 push	 OFFSET ??_C@_0BE@FJPKENOB@RMSG_GETSIGNAL_REAL@
  00005	ff 15 00 00 00
	00		 call	 DWORD PTR __imp__RegisterWindowMessageA@4
  0000b	a3 00 00 00 00	 mov	 DWORD PTR ?RMSG_GETSIGNAL_REAL@@3IB, eax
  00010	c3		 ret	 0
??__ERMSG_GETSIGNAL_REAL@@YAXXZ ENDP			; `dynamic initializer for 'RMSG_GETSIGNAL_REAL''
text$di	ENDS
; Function compile flags: /Ogtp
; File D:\git\src\IBK\IBK_DRFN\ProjSrc\SrcDrfn\inc\IBaseDefine.h
;	COMDAT ?AfxGetPctrInterface@@YGJH@Z
_TEXT	SEGMENT
_hMainWnd$ = -36					; size = 4
_szClipFormat$2 = -32					; size = 4
_aBufWnd$3 = -28					; size = 9
__$ArrayPad$ = -16					; size = 4
__$EHRec$ = -12						; size = 12
_nID$ = 8						; size = 4
?AfxGetPctrInterface@@YGJH@Z PROC			; AfxGetPctrInterface, COMDAT

; 260  : {

  00000	55		 push	 ebp
  00001	8b ec		 mov	 ebp, esp
  00003	6a ff		 push	 -1
  00005	68 00 00 00 00	 push	 __ehhandler$?AfxGetPctrInterface@@YGJH@Z
  0000a	64 a1 00 00 00
	00		 mov	 eax, DWORD PTR fs:0
  00010	50		 push	 eax
  00011	83 ec 18	 sub	 esp, 24			; 00000018H
  00014	a1 00 00 00 00	 mov	 eax, DWORD PTR ___security_cookie
  00019	33 c5		 xor	 eax, ebp
  0001b	89 45 f0	 mov	 DWORD PTR __$ArrayPad$[ebp], eax
  0001e	50		 push	 eax
  0001f	8d 45 f4	 lea	 eax, DWORD PTR __$EHRec$[ebp]
  00022	64 a3 00 00 00
	00		 mov	 DWORD PTR fs:0, eax
  00028	0f 57 c0	 xorps	 xmm0, xmm0

; 261  : 	HWND hMainWnd;
; 262  : 	AfxGetHanaroMainWnd(hMainWnd);

  0002b	c7 45 dc 00 00
	00 00		 mov	 DWORD PTR _hMainWnd$[ebp], 0
  00032	8d 4d e0	 lea	 ecx, DWORD PTR _szClipFormat$2[ebp]
  00035	66 0f d6 45 e4	 movq	 QWORD PTR _aBufWnd$3[ebp], xmm0
  0003a	c6 45 ec 00	 mov	 BYTE PTR _aBufWnd$3[ebp+8], 0
  0003e	ff 15 00 00 00
	00		 call	 DWORD PTR __imp_??0?$CStringT@DV?$StrTraitMFC_DLL@DV?$ChTraitsCRT@D@ATL@@@@@ATL@@QAE@XZ
  00044	68 00 00 00 00	 push	 OFFSET ??_C@_0M@CBBNGGHM@PcTrMng?4dll@
  00049	c7 45 fc 00 00
	00 00		 mov	 DWORD PTR __$EHRec$[ebp+8], 0
  00050	ff 15 00 00 00
	00		 call	 DWORD PTR __imp__GetModuleHandleA@4
  00056	50		 push	 eax
  00057	68 00 00 00 00	 push	 OFFSET ??_C@_0P@IDMAJEGN@HANAROPCTRMAIN@
  0005c	8d 45 e0	 lea	 eax, DWORD PTR _szClipFormat$2[ebp]
  0005f	68 00 00 00 00	 push	 OFFSET ??_C@_06NDLAHCHE@?$CFs?$CF08X@
  00064	50		 push	 eax
  00065	ff 15 00 00 00
	00		 call	 DWORD PTR __imp_?Format@?$CStringT@DV?$StrTraitMFC_DLL@DV?$ChTraitsCRT@D@ATL@@@@@ATL@@QAAXPBDZZ
  0006b	83 c4 10	 add	 esp, 16			; 00000010H
  0006e	8d 45 e4	 lea	 eax, DWORD PTR _aBufWnd$3[ebp]
  00071	6a 09		 push	 9
  00073	50		 push	 eax
  00074	ff 75 e0	 push	 DWORD PTR _szClipFormat$2[ebp]
  00077	ff 15 00 00 00
	00		 call	 DWORD PTR __imp__GetEnvironmentVariableA@12
  0007d	8d 45 dc	 lea	 eax, DWORD PTR _hMainWnd$[ebp]
  00080	50		 push	 eax
  00081	8d 45 e4	 lea	 eax, DWORD PTR _aBufWnd$3[ebp]
  00084	68 00 00 00 00	 push	 OFFSET ??_C@_02EMFKHFLK@?$CFX@
  00089	50		 push	 eax
  0008a	e8 00 00 00 00	 call	 _sscanf
  0008f	83 c4 0c	 add	 esp, 12			; 0000000cH
  00092	8d 4d e0	 lea	 ecx, DWORD PTR _szClipFormat$2[ebp]
  00095	ff 15 00 00 00
	00		 call	 DWORD PTR __imp_??1?$CStringT@DV?$StrTraitMFC_DLL@DV?$ChTraitsCRT@D@ATL@@@@@ATL@@QAE@XZ

; 263  : 
; 264  : 	return ::SendMessage(hMainWnd, RMSG_INTERFACE, (WPARAM)nID, 0);

  0009b	6a 00		 push	 0
  0009d	ff 75 08	 push	 DWORD PTR _nID$[ebp]
  000a0	ff 35 00 00 00
	00		 push	 DWORD PTR ?RMSG_INTERFACE@@3IB
  000a6	ff 75 dc	 push	 DWORD PTR _hMainWnd$[ebp]
  000a9	ff 15 00 00 00
	00		 call	 DWORD PTR __imp__SendMessageA@16

; 265  : }

  000af	8b 4d f4	 mov	 ecx, DWORD PTR __$EHRec$[ebp]
  000b2	64 89 0d 00 00
	00 00		 mov	 DWORD PTR fs:0, ecx
  000b9	59		 pop	 ecx
  000ba	8b 4d f0	 mov	 ecx, DWORD PTR __$ArrayPad$[ebp]
  000bd	33 cd		 xor	 ecx, ebp
  000bf	e8 00 00 00 00	 call	 @__security_check_cookie@4
  000c4	8b e5		 mov	 esp, ebp
  000c6	5d		 pop	 ebp
  000c7	c2 04 00	 ret	 4
_TEXT	ENDS
;	COMDAT text$x
text$x	SEGMENT
__unwindfunclet$?AfxGetPctrInterface@@YGJH@Z$0:
  00000	8d 4d e0	 lea	 ecx, DWORD PTR _szClipFormat$2[ebp]
  00003	ff 25 00 00 00
	00		 jmp	 DWORD PTR __imp_??1?$CStringT@DV?$StrTraitMFC_DLL@DV?$ChTraitsCRT@D@ATL@@@@@ATL@@QAE@XZ
  00009	cc		 int	 3
  0000a	cc		 int	 3
  0000b	cc		 int	 3
  0000c	cc		 int	 3
  0000d	cc		 int	 3
__ehhandler$?AfxGetPctrInterface@@YGJH@Z:
  0000e	90		 npad	 1
  0000f	90		 npad	 1
  00010	8b 54 24 08	 mov	 edx, DWORD PTR [esp+8]
  00014	8d 42 0c	 lea	 eax, DWORD PTR [edx+12]
  00017	8b 4a e4	 mov	 ecx, DWORD PTR [edx-28]
  0001a	33 c8		 xor	 ecx, eax
  0001c	e8 00 00 00 00	 call	 @__security_check_cookie@4
  00021	8b 4a fc	 mov	 ecx, DWORD PTR [edx-4]
  00024	33 c8		 xor	 ecx, eax
  00026	e8 00 00 00 00	 call	 @__security_check_cookie@4
  0002b	b8 00 00 00 00	 mov	 eax, OFFSET __ehfuncinfo$?AfxGetPctrInterface@@YGJH@Z
  00030	e9 00 00 00 00	 jmp	 ___CxxFrameHandler3
text$x	ENDS
?AfxGetPctrInterface@@YGJH@Z ENDP			; AfxGetPctrInterface
; Function compile flags: /Ogtp
; File D:\git\src\IBK\IBK_DRFN\ProjSrc\SrcDrfn\inc\IBaseDefine.h
;	COMDAT ??__ERMSG_INTERFACE@@YAXXZ
text$di	SEGMENT
??__ERMSG_INTERFACE@@YAXXZ PROC				; `dynamic initializer for 'RMSG_INTERFACE'', COMDAT

; 170  : const UINT RMSG_INTERFACE = ::RegisterWindowMessage("RMSG_INTERFACE");

  00000	68 00 00 00 00	 push	 OFFSET ??_C@_0P@BKKCOCLK@RMSG_INTERFACE@
  00005	ff 15 00 00 00
	00		 call	 DWORD PTR __imp__RegisterWindowMessageA@4
  0000b	a3 00 00 00 00	 mov	 DWORD PTR ?RMSG_INTERFACE@@3IB, eax
  00010	c3		 ret	 0
??__ERMSG_INTERFACE@@YAXXZ ENDP				; `dynamic initializer for 'RMSG_INTERFACE''
text$di	ENDS
; Function compile flags: /Ogtp
; File C:\Program Files (x86)\Microsoft Visual Studio\2019\Community\VC\Tools\MSVC\14.29.30133\atlmfc\include\afx.inl
;	COMDAT ??_GCButton@@UAEPAXI@Z
_TEXT	SEGMENT
___flags$ = 8						; size = 4
??_GCButton@@UAEPAXI@Z PROC				; CButton::`scalar deleting destructor', COMDAT
; _this$ = ecx
  00000	55		 push	 ebp
  00001	8b ec		 mov	 ebp, esp
  00003	56		 push	 esi
  00004	8b f1		 mov	 esi, ecx
  00006	e8 00 00 00 00	 call	 ??1CButton@@UAE@XZ	; CButton::~CButton
  0000b	8b 45 08	 mov	 eax, DWORD PTR ___flags$[ebp]
  0000e	a8 01		 test	 al, 1
  00010	74 22		 je	 SHORT $LN9@scalar
  00012	a8 04		 test	 al, 4
  00014	75 10		 jne	 SHORT $LN3@scalar

; 112  : 	{ ::operator delete(p); }

  00016	56		 push	 esi
  00017	e8 00 00 00 00	 call	 ??3@YAXPAX@Z		; operator delete
  0001c	83 c4 04	 add	 esp, 4
  0001f	8b c6		 mov	 eax, esi
  00021	5e		 pop	 esi
  00022	5d		 pop	 ebp
  00023	c2 04 00	 ret	 4
$LN3@scalar:
  00026	68 80 00 00 00	 push	 128			; 00000080H
  0002b	56		 push	 esi
  0002c	e8 00 00 00 00	 call	 ?__global_delete@@YAXPAXI@Z ; __global_delete
  00031	83 c4 08	 add	 esp, 8
$LN9@scalar:
  00034	8b c6		 mov	 eax, esi
  00036	5e		 pop	 esi
  00037	5d		 pop	 ebp
  00038	c2 04 00	 ret	 4
??_GCButton@@UAEPAXI@Z ENDP				; CButton::`scalar deleting destructor'
_TEXT	ENDS
; Function compile flags: /Ogtp
; File C:\Program Files (x86)\Microsoft Visual Studio\2019\Community\VC\Tools\MSVC\14.29.30133\atlmfc\include\afxwin2.inl
;	COMDAT ?EndModalState@CWnd@@UAEXXZ
_TEXT	SEGMENT
?EndModalState@CWnd@@UAEXXZ PROC			; CWnd::EndModalState, COMDAT
; _this$ = ecx

; 567  : 	{ ::EnableWindow(m_hWnd, TRUE); }

  00000	6a 01		 push	 1
  00002	ff 71 20	 push	 DWORD PTR [ecx+32]
  00005	ff 15 00 00 00
	00		 call	 DWORD PTR __imp__EnableWindow@8
  0000b	c3		 ret	 0
?EndModalState@CWnd@@UAEXXZ ENDP			; CWnd::EndModalState
_TEXT	ENDS
; Function compile flags: /Ogtp
; File C:\Program Files (x86)\Microsoft Visual Studio\2019\Community\VC\Tools\MSVC\14.29.30133\atlmfc\include\afxwin2.inl
;	COMDAT ?BeginModalState@CWnd@@UAEXXZ
_TEXT	SEGMENT
?BeginModalState@CWnd@@UAEXXZ PROC			; CWnd::BeginModalState, COMDAT
; _this$ = ecx

; 565  : 	{ ::EnableWindow(m_hWnd, FALSE); }

  00000	6a 00		 push	 0
  00002	ff 71 20	 push	 DWORD PTR [ecx+32]
  00005	ff 15 00 00 00
	00		 call	 DWORD PTR __imp__EnableWindow@8
  0000b	c3		 ret	 0
?BeginModalState@CWnd@@UAEXXZ ENDP			; CWnd::BeginModalState
_TEXT	ENDS
; Function compile flags: /Ogtp
; File C:\Program Files (x86)\Microsoft Visual Studio\2019\Community\VC\Tools\MSVC\14.29.30133\atlmfc\include\afxwin2.inl
;	COMDAT ?DoDataExchange@CWnd@@MAEXPAVCDataExchange@@@Z
_TEXT	SEGMENT
___formal$ = 8						; size = 4
?DoDataExchange@CWnd@@MAEXPAVCDataExchange@@@Z PROC	; CWnd::DoDataExchange, COMDAT
; _this$ = ecx

; 561  : 	{ } // default does nothing

  00000	c2 04 00	 ret	 4
?DoDataExchange@CWnd@@MAEXPAVCDataExchange@@@Z ENDP	; CWnd::DoDataExchange
_TEXT	ENDS
; Function compile flags: /Ogtp
; File C:\Program Files (x86)\Microsoft Visual Studio\2019\Community\VC\Tools\MSVC\14.29.30133\atlmfc\include\afxwin1.inl
; File C:\Program Files (x86)\Microsoft Visual Studio\2019\Community\VC\Tools\MSVC\14.29.30133\atlmfc\include\afx.inl
;	COMDAT ??_GCBitmap@@UAEPAXI@Z
_TEXT	SEGMENT
___flags$ = 8						; size = 4
??_GCBitmap@@UAEPAXI@Z PROC				; CBitmap::`scalar deleting destructor', COMDAT
; _this$ = ecx
  00000	55		 push	 ebp
  00001	8b ec		 mov	 ebp, esp
; File C:\Program Files (x86)\Microsoft Visual Studio\2019\Community\VC\Tools\MSVC\14.29.30133\atlmfc\include\afxwin1.inl

; 179  : 	{ }

  00003	56		 push	 esi
  00004	8b f1		 mov	 esi, ecx
  00006	c7 06 00 00 00
	00		 mov	 DWORD PTR [esi], OFFSET ??_7CBitmap@@6B@
  0000c	e8 00 00 00 00	 call	 ??1CGdiObject@@UAE@XZ	; CGdiObject::~CGdiObject
  00011	8b 45 08	 mov	 eax, DWORD PTR ___flags$[ebp]
  00014	a8 01		 test	 al, 1
  00016	74 1f		 je	 SHORT $LN12@scalar
  00018	a8 04		 test	 al, 4
  0001a	75 10		 jne	 SHORT $LN3@scalar
; File C:\Program Files (x86)\Microsoft Visual Studio\2019\Community\VC\Tools\MSVC\14.29.30133\atlmfc\include\afx.inl

; 112  : 	{ ::operator delete(p); }

  0001c	56		 push	 esi
  0001d	e8 00 00 00 00	 call	 ??3@YAXPAX@Z		; operator delete
  00022	83 c4 04	 add	 esp, 4
  00025	8b c6		 mov	 eax, esi
  00027	5e		 pop	 esi
  00028	5d		 pop	 ebp
  00029	c2 04 00	 ret	 4
$LN3@scalar:
  0002c	6a 08		 push	 8
  0002e	56		 push	 esi
  0002f	e8 00 00 00 00	 call	 ?__global_delete@@YAXPAXI@Z ; __global_delete
  00034	83 c4 08	 add	 esp, 8
$LN12@scalar:
  00037	8b c6		 mov	 eax, esi
  00039	5e		 pop	 esi
  0003a	5d		 pop	 ebp
  0003b	c2 04 00	 ret	 4
??_GCBitmap@@UAEPAXI@Z ENDP				; CBitmap::`scalar deleting destructor'
_TEXT	ENDS
; Function compile flags: /Ogtp
; File C:\Program Files (x86)\Microsoft Visual Studio\2019\Community\VC\Tools\MSVC\14.29.30133\atlmfc\include\afxwin1.inl
;	COMDAT ??1CBitmap@@UAE@XZ
_TEXT	SEGMENT
??1CBitmap@@UAE@XZ PROC					; CBitmap::~CBitmap, COMDAT
; _this$ = ecx

; 179  : 	{ }

  00000	c7 01 00 00 00
	00		 mov	 DWORD PTR [ecx], OFFSET ??_7CBitmap@@6B@
  00006	e9 00 00 00 00	 jmp	 ??1CGdiObject@@UAE@XZ	; CGdiObject::~CGdiObject
??1CBitmap@@UAE@XZ ENDP					; CBitmap::~CBitmap
_TEXT	ENDS
; Function compile flags: /Ogtp
; File C:\Program Files (x86)\Microsoft Visual Studio\2019\Community\VC\Tools\MSVC\14.29.30133\atlmfc\include\afxwin1.inl
; File C:\Program Files (x86)\Microsoft Visual Studio\2019\Community\VC\Tools\MSVC\14.29.30133\atlmfc\include\afx.inl
;	COMDAT ??_GCFont@@UAEPAXI@Z
_TEXT	SEGMENT
___flags$ = 8						; size = 4
??_GCFont@@UAEPAXI@Z PROC				; CFont::`scalar deleting destructor', COMDAT
; _this$ = ecx
  00000	55		 push	 ebp
  00001	8b ec		 mov	 ebp, esp
; File C:\Program Files (x86)\Microsoft Visual Studio\2019\Community\VC\Tools\MSVC\14.29.30133\atlmfc\include\afxwin1.inl

; 155  : 	{ }

  00003	56		 push	 esi
  00004	8b f1		 mov	 esi, ecx
  00006	c7 06 00 00 00
	00		 mov	 DWORD PTR [esi], OFFSET ??_7CFont@@6B@
  0000c	e8 00 00 00 00	 call	 ??1CGdiObject@@UAE@XZ	; CGdiObject::~CGdiObject
  00011	8b 45 08	 mov	 eax, DWORD PTR ___flags$[ebp]
  00014	a8 01		 test	 al, 1
  00016	74 1f		 je	 SHORT $LN12@scalar
  00018	a8 04		 test	 al, 4
  0001a	75 10		 jne	 SHORT $LN3@scalar
; File C:\Program Files (x86)\Microsoft Visual Studio\2019\Community\VC\Tools\MSVC\14.29.30133\atlmfc\include\afx.inl

; 112  : 	{ ::operator delete(p); }

  0001c	56		 push	 esi
  0001d	e8 00 00 00 00	 call	 ??3@YAXPAX@Z		; operator delete
  00022	83 c4 04	 add	 esp, 4
  00025	8b c6		 mov	 eax, esi
  00027	5e		 pop	 esi
  00028	5d		 pop	 ebp
  00029	c2 04 00	 ret	 4
$LN3@scalar:
  0002c	6a 08		 push	 8
  0002e	56		 push	 esi
  0002f	e8 00 00 00 00	 call	 ?__global_delete@@YAXPAXI@Z ; __global_delete
  00034	83 c4 08	 add	 esp, 8
$LN12@scalar:
  00037	8b c6		 mov	 eax, esi
  00039	5e		 pop	 esi
  0003a	5d		 pop	 ebp
  0003b	c2 04 00	 ret	 4
??_GCFont@@UAEPAXI@Z ENDP				; CFont::`scalar deleting destructor'
_TEXT	ENDS
; Function compile flags: /Ogtp
; File C:\Program Files (x86)\Microsoft Visual Studio\2019\Community\VC\Tools\MSVC\14.29.30133\atlmfc\include\afxwin1.inl
;	COMDAT ??1CFont@@UAE@XZ
_TEXT	SEGMENT
??1CFont@@UAE@XZ PROC					; CFont::~CFont, COMDAT
; _this$ = ecx

; 155  : 	{ }

  00000	c7 01 00 00 00
	00		 mov	 DWORD PTR [ecx], OFFSET ??_7CFont@@6B@
  00006	e9 00 00 00 00	 jmp	 ??1CGdiObject@@UAE@XZ	; CGdiObject::~CGdiObject
??1CFont@@UAE@XZ ENDP					; CFont::~CFont
_TEXT	ENDS
; Function compile flags: /Ogtp
; File C:\Program Files (x86)\Microsoft Visual Studio\2019\Community\VC\Tools\MSVC\14.29.30133\atlmfc\include\afx.inl
;	COMDAT ??_GCGdiObject@@UAEPAXI@Z
_TEXT	SEGMENT
___flags$ = 8						; size = 4
??_GCGdiObject@@UAEPAXI@Z PROC				; CGdiObject::`scalar deleting destructor', COMDAT
; _this$ = ecx
  00000	55		 push	 ebp
  00001	8b ec		 mov	 ebp, esp
  00003	56		 push	 esi
  00004	8b f1		 mov	 esi, ecx
  00006	e8 00 00 00 00	 call	 ??1CGdiObject@@UAE@XZ	; CGdiObject::~CGdiObject
  0000b	8b 45 08	 mov	 eax, DWORD PTR ___flags$[ebp]
  0000e	a8 01		 test	 al, 1
  00010	74 1f		 je	 SHORT $LN9@scalar
  00012	a8 04		 test	 al, 4
  00014	75 10		 jne	 SHORT $LN3@scalar

; 112  : 	{ ::operator delete(p); }

  00016	56		 push	 esi
  00017	e8 00 00 00 00	 call	 ??3@YAXPAX@Z		; operator delete
  0001c	83 c4 04	 add	 esp, 4
  0001f	8b c6		 mov	 eax, esi
  00021	5e		 pop	 esi
  00022	5d		 pop	 ebp
  00023	c2 04 00	 ret	 4
$LN3@scalar:
  00026	6a 08		 push	 8
  00028	56		 push	 esi
  00029	e8 00 00 00 00	 call	 ?__global_delete@@YAXPAXI@Z ; __global_delete
  0002e	83 c4 08	 add	 esp, 8
$LN9@scalar:
  00031	8b c6		 mov	 eax, esi
  00033	5e		 pop	 esi
  00034	5d		 pop	 ebp
  00035	c2 04 00	 ret	 4
??_GCGdiObject@@UAEPAXI@Z ENDP				; CGdiObject::`scalar deleting destructor'
_TEXT	ENDS
; Function compile flags: /Ogtp
; File C:\Program Files (x86)\Microsoft Visual Studio\2019\Community\VC\Tools\MSVC\14.29.30133\atlmfc\include\afxwin1.inl
;	COMDAT ??1CGdiObject@@UAE@XZ
_TEXT	SEGMENT
_pException$2 = -540					; size = 4
_strMsg$3 = -536					; size = 4
_szErrorMessage$4 = -532				; size = 512
__$ArrayPad$ = -20					; size = 4
__$EHRec$ = -16						; size = 16
??1CGdiObject@@UAE@XZ PROC				; CGdiObject::~CGdiObject, COMDAT
; _this$ = ecx

; 74   : {

  00000	55		 push	 ebp
  00001	8b ec		 mov	 ebp, esp
  00003	6a ff		 push	 -1
  00005	68 00 00 00 00	 push	 __ehhandler$??1CGdiObject@@UAE@XZ
  0000a	64 a1 00 00 00
	00		 mov	 eax, DWORD PTR fs:0
  00010	50		 push	 eax
  00011	81 ec 10 02 00
	00		 sub	 esp, 528		; 00000210H
  00017	a1 00 00 00 00	 mov	 eax, DWORD PTR ___security_cookie
  0001c	33 c5		 xor	 eax, ebp
  0001e	89 45 ec	 mov	 DWORD PTR __$ArrayPad$[ebp], eax
  00021	53		 push	 ebx
  00022	56		 push	 esi
  00023	57		 push	 edi
  00024	50		 push	 eax
  00025	8d 45 f4	 lea	 eax, DWORD PTR __$EHRec$[ebp+4]
  00028	64 a3 00 00 00
	00		 mov	 DWORD PTR fs:0, eax
  0002e	89 65 f0	 mov	 DWORD PTR __$EHRec$[ebp], esp
  00031	c7 01 00 00 00
	00		 mov	 DWORD PTR [ecx], OFFSET ??_7CGdiObject@@6B@

; 75   : 	AFX_BEGIN_DESTRUCTOR

  00037	c7 45 fc 00 00
	00 00		 mov	 DWORD PTR __$EHRec$[ebp+12], 0

; 76   : 	DeleteObject();

  0003e	e8 00 00 00 00	 call	 ?DeleteObject@CGdiObject@@QAEHXZ ; CGdiObject::DeleteObject
$LN18@CGdiObject:

; 78   : }

  00043	8b 4d f4	 mov	 ecx, DWORD PTR __$EHRec$[ebp+4]
  00046	64 89 0d 00 00
	00 00		 mov	 DWORD PTR fs:0, ecx
  0004d	59		 pop	 ecx
  0004e	5f		 pop	 edi
  0004f	5e		 pop	 esi
  00050	5b		 pop	 ebx
  00051	8b 4d ec	 mov	 ecx, DWORD PTR __$ArrayPad$[ebp]
  00054	33 cd		 xor	 ecx, ebp
  00056	e8 00 00 00 00	 call	 @__security_check_cookie@4
  0005b	8b e5		 mov	 esp, ebp
  0005d	5d		 pop	 ebp
  0005e	c3		 ret	 0
__catch$??1CGdiObject@@UAE@XZ$0:

; 77   : 	AFX_END_DESTRUCTOR

  0005f	8d 8d e8 fd ff
	ff		 lea	 ecx, DWORD PTR _strMsg$3[ebp]
  00065	ff 15 00 00 00
	00		 call	 DWORD PTR __imp_??0?$CStringT@DV?$StrTraitMFC_DLL@DV?$ChTraitsCRT@D@ATL@@@@@ATL@@QAE@XZ
  0006b	8b b5 e4 fd ff
	ff		 mov	 esi, DWORD PTR _pException$2[ebp]
  00071	8d 8d ec fd ff
	ff		 lea	 ecx, DWORD PTR _szErrorMessage$4[ebp]
  00077	6a 00		 push	 0
  00079	68 00 02 00 00	 push	 512			; 00000200H
  0007e	51		 push	 ecx
  0007f	8b 06		 mov	 eax, DWORD PTR [esi]
  00081	8b ce		 mov	 ecx, esi
  00083	c6 45 fc 02	 mov	 BYTE PTR __$EHRec$[ebp+12], 2
  00087	ff 50 14	 call	 DWORD PTR [eax+20]
  0008a	85 c0		 test	 eax, eax
  0008c	74 2a		 je	 SHORT $LN9@CGdiObject
  0008e	8d 85 ec fd ff
	ff		 lea	 eax, DWORD PTR _szErrorMessage$4[ebp]
  00094	50		 push	 eax
  00095	6a 4d		 push	 77			; 0000004dH
  00097	68 00 00 00 00	 push	 OFFSET ??_C@_0HD@JJCHHHNK@C?3?2Program?5Files?5?$CIx86?$CJ?2Microsof@
  0009c	68 00 00 00 00	 push	 OFFSET ??_C@_0BP@OIEOKIDM@Exception?5thrown?5in?5destructor@
  000a1	8d 85 e8 fd ff
	ff		 lea	 eax, DWORD PTR _strMsg$3[ebp]
  000a7	68 00 00 00 00	 push	 OFFSET ??_C@_0BB@HBOOMJBF@?$CFTs?5?$CI?$CFTs?3?$CFd?$CJ?6?$CFTs@
  000ac	50		 push	 eax
  000ad	ff 15 00 00 00
	00		 call	 DWORD PTR __imp_?Format@?$CStringT@DV?$StrTraitMFC_DLL@DV?$ChTraitsCRT@D@ATL@@@@@ATL@@QAAXPBDZZ
  000b3	83 c4 18	 add	 esp, 24			; 00000018H
  000b6	eb 21		 jmp	 SHORT $LN10@CGdiObject
$LN9@CGdiObject:
  000b8	6a 4d		 push	 77			; 0000004dH
  000ba	68 00 00 00 00	 push	 OFFSET ??_C@_0HD@JJCHHHNK@C?3?2Program?5Files?5?$CIx86?$CJ?2Microsof@
  000bf	68 00 00 00 00	 push	 OFFSET ??_C@_0BP@OIEOKIDM@Exception?5thrown?5in?5destructor@
  000c4	8d 85 e8 fd ff
	ff		 lea	 eax, DWORD PTR _strMsg$3[ebp]
  000ca	68 00 00 00 00	 push	 OFFSET ??_C@_0N@OMEMOKLE@?$CFTs?5?$CI?$CFTs?3?$CFd?$CJ@
  000cf	50		 push	 eax
  000d0	ff 15 00 00 00
	00		 call	 DWORD PTR __imp_?Format@?$CStringT@DV?$StrTraitMFC_DLL@DV?$ChTraitsCRT@D@ATL@@@@@ATL@@QAAXPBDZZ
  000d6	83 c4 14	 add	 esp, 20			; 00000014H
$LN10@CGdiObject:
  000d9	6a 00		 push	 0
  000db	6a 00		 push	 0
  000dd	ff b5 e8 fd ff
	ff		 push	 DWORD PTR _strMsg$3[ebp]
  000e3	e8 00 00 00 00	 call	 ?AfxMessageBox@@YGHPBDII@Z ; AfxMessageBox
  000e8	8d 8d e8 fd ff
	ff		 lea	 ecx, DWORD PTR _strMsg$3[ebp]
  000ee	ff 15 00 00 00
	00		 call	 DWORD PTR __imp_??1?$CStringT@DV?$StrTraitMFC_DLL@DV?$ChTraitsCRT@D@ATL@@@@@ATL@@QAE@XZ
  000f4	8b 06		 mov	 eax, DWORD PTR [esi]
  000f6	8b ce		 mov	 ecx, esi
  000f8	6a 01		 push	 1
  000fa	ff 50 04	 call	 DWORD PTR [eax+4]
  000fd	b8 00 00 00 00	 mov	 eax, $LN18@CGdiObject
  00102	c3		 ret	 0
_TEXT	ENDS
;	COMDAT text$x
text$x	SEGMENT
__unwindfunclet$??1CGdiObject@@UAE@XZ$2:
  00000	8d 8d e8 fd ff
	ff		 lea	 ecx, DWORD PTR _strMsg$3[ebp]
  00006	ff 25 00 00 00
	00		 jmp	 DWORD PTR __imp_??1?$CStringT@DV?$StrTraitMFC_DLL@DV?$ChTraitsCRT@D@ATL@@@@@ATL@@QAE@XZ
  0000c	cc		 int	 3
  0000d	cc		 int	 3
  0000e	cc		 int	 3
  0000f	cc		 int	 3
  00010	cc		 int	 3
__ehhandler$??1CGdiObject@@UAE@XZ:
  00011	90		 npad	 1
  00012	90		 npad	 1
  00013	8b 54 24 08	 mov	 edx, DWORD PTR [esp+8]
  00017	8d 42 0c	 lea	 eax, DWORD PTR [edx+12]
  0001a	8b 8a e0 fd ff
	ff		 mov	 ecx, DWORD PTR [edx-544]
  00020	33 c8		 xor	 ecx, eax
  00022	e8 00 00 00 00	 call	 @__security_check_cookie@4
  00027	8b 4a f8	 mov	 ecx, DWORD PTR [edx-8]
  0002a	33 c8		 xor	 ecx, eax
  0002c	e8 00 00 00 00	 call	 @__security_check_cookie@4
  00031	b8 00 00 00 00	 mov	 eax, OFFSET __ehfuncinfo$??1CGdiObject@@UAE@XZ
  00036	e9 00 00 00 00	 jmp	 ___CxxFrameHandler3
text$x	ENDS
??1CGdiObject@@UAE@XZ ENDP				; CGdiObject::~CGdiObject
; Function compile flags: /Ogtp
; File C:\Program Files (x86)\Microsoft Visual Studio\2019\Community\VC\Tools\MSVC\14.29.30133\atlmfc\include\afx.inl
;	COMDAT ?Dump@CObject@@UBEXAAVCDumpContext@@@Z
_TEXT	SEGMENT
___formal$ = 8						; size = 4
?Dump@CObject@@UBEXAAVCDumpContext@@@Z PROC		; CObject::Dump, COMDAT
; _this$ = ecx

; 122  : 	{ /* no dumping in release builds */ }

  00000	c2 04 00	 ret	 4
?Dump@CObject@@UBEXAAVCDumpContext@@@Z ENDP		; CObject::Dump
_TEXT	ENDS
; Function compile flags: /Ogtp
; File C:\Program Files (x86)\Microsoft Visual Studio\2019\Community\VC\Tools\MSVC\14.29.30133\atlmfc\include\afx.inl
;	COMDAT ?AssertValid@CObject@@UBEXXZ
_TEXT	SEGMENT
?AssertValid@CObject@@UBEXXZ PROC			; CObject::AssertValid, COMDAT
; _this$ = ecx

; 120  : 	{ /* no asserts in release builds */ }

  00000	c2 00 00	 ret	 0
?AssertValid@CObject@@UBEXXZ ENDP			; CObject::AssertValid
_TEXT	ENDS
; Function compile flags: /Ogtp
; File C:\Program Files (x86)\Microsoft Visual Studio\2019\Community\VC\Tools\MSVC\14.29.30133\atlmfc\include\afx.inl
;	COMDAT ?Serialize@CObject@@UAEXAAVCArchive@@@Z
_TEXT	SEGMENT
___formal$ = 8						; size = 4
?Serialize@CObject@@UAEXAAVCArchive@@@Z PROC		; CObject::Serialize, COMDAT
; _this$ = ecx

; 106  : 	{ /* CObject does not serialize anything by default */ }

  00000	c2 04 00	 ret	 4
?Serialize@CObject@@UAEXAAVCArchive@@@Z ENDP		; CObject::Serialize
_TEXT	ENDS
; Function compile flags: /Ogtp
; File C:\Program Files (x86)\Microsoft Visual Studio\2019\Community\VC\Tools\MSVC\14.29.30133\atlmfc\include\afx.inl
;	COMDAT ??3CObject@@SGXPAX@Z
_TEXT	SEGMENT
_p$ = 8							; size = 4
??3CObject@@SGXPAX@Z PROC				; CObject::operator delete, COMDAT

; 112  : 	{ ::operator delete(p); }

  00000	55		 push	 ebp
  00001	8b ec		 mov	 ebp, esp
  00003	ff 75 08	 push	 DWORD PTR _p$[ebp]
  00006	e8 00 00 00 00	 call	 ??3@YAXPAX@Z		; operator delete
  0000b	83 c4 04	 add	 esp, 4
  0000e	5d		 pop	 ebp
  0000f	c2 04 00	 ret	 4
??3CObject@@SGXPAX@Z ENDP				; CObject::operator delete
_TEXT	ENDS
; Function compile flags: /Ogtp
; File C:\Program Files (x86)\Microsoft Visual Studio\2019\Community\VC\Tools\MSVC\14.29.30133\atlmfc\include\afx.inl
;	COMDAT ??1CObject@@UAE@XZ
_TEXT	SEGMENT
??1CObject@@UAE@XZ PROC					; CObject::~CObject, COMDAT
; _this$ = ecx

; 104  : 	{ }

  00000	c2 00 00	 ret	 0
??1CObject@@UAE@XZ ENDP					; CObject::~CObject
_TEXT	ENDS
; Function compile flags: /Ogtp
; File C:\Program Files (x86)\Microsoft Visual Studio\2019\Community\VC\Tools\MSVC\14.29.30133\atlmfc\include\afx.h
;	COMDAT ?AfxCrtErrorCheck@@YAHH@Z
_TEXT	SEGMENT
_error$ = 8						; size = 4
?AfxCrtErrorCheck@@YAHH@Z PROC				; AfxCrtErrorCheck, COMDAT

; 503  : {

  00000	55		 push	 ebp
  00001	8b ec		 mov	 ebp, esp

; 504  : 	switch(error)

  00003	8b 4d 08	 mov	 ecx, DWORD PTR _error$[ebp]
  00006	83 f9 50	 cmp	 ecx, 80			; 00000050H
  00009	77 17		 ja	 SHORT $LN9@AfxCrtErro
  0000b	0f b6 81 00 00
	00 00		 movzx	 eax, BYTE PTR $LN11@AfxCrtErro[ecx]
  00012	ff 24 85 00 00
	00 00		 jmp	 DWORD PTR $LN12@AfxCrtErro[eax*4]
$LN4@AfxCrtErro:

; 505  : 	{
; 506  : 	case ENOMEM:
; 507  : 		AfxThrowMemoryException();

  00019	e9 00 00 00 00	 jmp	 ?AfxThrowMemoryException@@YGXXZ ; AfxThrowMemoryException
$LN7@AfxCrtErro:

; 518  : 		break;
; 519  : 	}
; 520  : 	return error;

  0001e	8b c1		 mov	 eax, ecx

; 521  : }

  00020	5d		 pop	 ebp
  00021	c3		 ret	 0
$LN9@AfxCrtErro:

; 508  : 		break;
; 509  : 	case EINVAL:
; 510  : 	case ERANGE:
; 511  : 		AfxThrowInvalidArgException();
; 512  : 		break;
; 513  : 	case STRUNCATE:
; 514  : 	case 0:
; 515  : 		break;
; 516  : 	default:
; 517  : 		AfxThrowInvalidArgException();

  00022	e9 00 00 00 00	 jmp	 ?AfxThrowInvalidArgException@@YGXXZ ; AfxThrowInvalidArgException
  00027	90		 npad	 1
$LN12@AfxCrtErro:

; 521  : }

  00028	00 00 00 00	 DD	 $LN7@AfxCrtErro
  0002c	00 00 00 00	 DD	 $LN4@AfxCrtErro
  00030	00 00 00 00	 DD	 $LN9@AfxCrtErro
  00034	00 00 00 00	 DD	 $LN9@AfxCrtErro
$LN11@AfxCrtErro:
  00038	00		 DB	 0
  00039	03		 DB	 3
  0003a	03		 DB	 3
  0003b	03		 DB	 3
  0003c	03		 DB	 3
  0003d	03		 DB	 3
  0003e	03		 DB	 3
  0003f	03		 DB	 3
  00040	03		 DB	 3
  00041	03		 DB	 3
  00042	03		 DB	 3
  00043	03		 DB	 3
  00044	01		 DB	 1
  00045	03		 DB	 3
  00046	03		 DB	 3
  00047	03		 DB	 3
  00048	03		 DB	 3
  00049	03		 DB	 3
  0004a	03		 DB	 3
  0004b	03		 DB	 3
  0004c	03		 DB	 3
  0004d	03		 DB	 3
  0004e	02		 DB	 2
  0004f	03		 DB	 3
  00050	03		 DB	 3
  00051	03		 DB	 3
  00052	03		 DB	 3
  00053	03		 DB	 3
  00054	03		 DB	 3
  00055	03		 DB	 3
  00056	03		 DB	 3
  00057	03		 DB	 3
  00058	03		 DB	 3
  00059	03		 DB	 3
  0005a	02		 DB	 2
  0005b	03		 DB	 3
  0005c	03		 DB	 3
  0005d	03		 DB	 3
  0005e	03		 DB	 3
  0005f	03		 DB	 3
  00060	03		 DB	 3
  00061	03		 DB	 3
  00062	03		 DB	 3
  00063	03		 DB	 3
  00064	03		 DB	 3
  00065	03		 DB	 3
  00066	03		 DB	 3
  00067	03		 DB	 3
  00068	03		 DB	 3
  00069	03		 DB	 3
  0006a	03		 DB	 3
  0006b	03		 DB	 3
  0006c	03		 DB	 3
  0006d	03		 DB	 3
  0006e	03		 DB	 3
  0006f	03		 DB	 3
  00070	03		 DB	 3
  00071	03		 DB	 3
  00072	03		 DB	 3
  00073	03		 DB	 3
  00074	03		 DB	 3
  00075	03		 DB	 3
  00076	03		 DB	 3
  00077	03		 DB	 3
  00078	03		 DB	 3
  00079	03		 DB	 3
  0007a	03		 DB	 3
  0007b	03		 DB	 3
  0007c	03		 DB	 3
  0007d	03		 DB	 3
  0007e	03		 DB	 3
  0007f	03		 DB	 3
  00080	03		 DB	 3
  00081	03		 DB	 3
  00082	03		 DB	 3
  00083	03		 DB	 3
  00084	03		 DB	 3
  00085	03		 DB	 3
  00086	03		 DB	 3
  00087	03		 DB	 3
  00088	00		 DB	 0
?AfxCrtErrorCheck@@YAHH@Z ENDP				; AfxCrtErrorCheck
_TEXT	ENDS
; Function compile flags: /Ogtp
; File C:\Program Files (x86)\Windows Kits\10\Include\10.0.22000.0\ucrt\stdio.h
;	COMDAT _sscanf
_TEXT	SEGMENT
__Buffer$ = 8						; size = 4
__Format$ = 12						; size = 4
_sscanf	PROC						; COMDAT

; 2247 :     {

  00000	55		 push	 ebp
  00001	8b ec		 mov	 ebp, esp

; 2153 :         return __stdio_common_vsscanf(

  00003	8d 45 10	 lea	 eax, DWORD PTR __Format$[ebp+4]
  00006	50		 push	 eax
  00007	6a 00		 push	 0
  00009	ff 75 0c	 push	 DWORD PTR __Format$[ebp]
  0000c	6a ff		 push	 -1
  0000e	ff 75 08	 push	 DWORD PTR __Buffer$[ebp]
  00011	e8 00 00 00 00	 call	 ___local_stdio_scanf_options
  00016	ff 70 04	 push	 DWORD PTR [eax+4]
  00019	ff 30		 push	 DWORD PTR [eax]
  0001b	ff 15 00 00 00
	00		 call	 DWORD PTR __imp____stdio_common_vsscanf
  00021	83 c4 1c	 add	 esp, 28			; 0000001cH

; 2248 :         int _Result;
; 2249 :         va_list _ArgList;
; 2250 :         __crt_va_start(_ArgList, _Format);
; 2251 :         _Result = _vsscanf_l(_Buffer, _Format, NULL, _ArgList);
; 2252 :         __crt_va_end(_ArgList);
; 2253 :         return _Result;
; 2254 :     }

  00024	5d		 pop	 ebp
  00025	c3		 ret	 0
_sscanf	ENDP
_TEXT	ENDS
; Function compile flags: /Ogtp
; File C:\Program Files (x86)\Windows Kits\10\Include\10.0.22000.0\ucrt\corecrt_stdio_config.h
;	COMDAT ___local_stdio_scanf_options
_TEXT	SEGMENT
___local_stdio_scanf_options PROC			; COMDAT

; 101  :         static unsigned __int64 _OptionsStorage;
; 102  :         return &_OptionsStorage;

  00000	b8 00 00 00 00	 mov	 eax, OFFSET ?_OptionsStorage@?1??__local_stdio_scanf_options@@9@4_KA ; `__local_stdio_scanf_options'::`2'::_OptionsStorage

; 103  :     }

  00005	c3		 ret	 0
___local_stdio_scanf_options ENDP
_TEXT	ENDS
; Function compile flags: /Ogtp
; File D:\git\src\IBK\IBK_DRFN\ProjSrc\SrcDrfn\Chart\MULTICHART\FloatingHogaDlg.cpp
;	COMDAT ?__empty_global_delete@@YAXPAXI@Z
_TEXT	SEGMENT
___formal$ = 8						; size = 4
___formal$ = 12						; size = 4
?__empty_global_delete@@YAXPAXI@Z PROC			; __empty_global_delete, COMDAT

  00000	c2 00 00	 ret	 0
?__empty_global_delete@@YAXPAXI@Z ENDP			; __empty_global_delete
_TEXT	ENDS
; Function compile flags: /Ogtp
; File D:\git\src\IBK\IBK_DRFN\ProjSrc\SrcDrfn\Chart\MULTICHART\FloatingHogaDlg.cpp
;	COMDAT ?__empty_global_delete@@YAXPAX@Z
_TEXT	SEGMENT
___formal$ = 8						; size = 4
?__empty_global_delete@@YAXPAX@Z PROC			; __empty_global_delete, COMDAT

  00000	c2 00 00	 ret	 0
?__empty_global_delete@@YAXPAX@Z ENDP			; __empty_global_delete
_TEXT	ENDS
END
