; Listing generated by Microsoft (R) Optimizing Compiler Version 19.29.30145.0 

	TITLE	D:\git\src\IBK\IBK_DRFN\#DRfn-CS\_Obj\MultiChart\GfxOutBarCtrl.obj
	.686P
	.XMM
	include listing.inc
	.model	flat

INCLUDELIB MSVCRT
INCLUDELIB OLDNAMES

PUBLIC	?__empty_global_delete@@YAXPAX@Z		; __empty_global_delete
PUBLIC	?__empty_global_delete@@YAXPAXI@Z		; __empty_global_delete
PUBLIC	??1CObject@@UAE@XZ				; CObject::~CObject
PUBLIC	??3CObject@@SGXPAX@Z				; CObject::operator delete
PUBLIC	?Serialize@CObject@@UAEXAAVCArchive@@@Z		; CObject::Serialize
PUBLIC	?AssertValid@CObject@@UBEXXZ			; CObject::AssertValid
PUBLIC	?Dump@CObject@@UBEXAAVCDumpContext@@@Z		; CObject::Dump
PUBLIC	?_AfxInitManaged@@YAHXZ				; _AfxInitManaged
PUBLIC	??1CGdiObject@@UAE@XZ				; CGdiObject::~CGdiObject
PUBLIC	??_GCGdiObject@@UAEPAXI@Z			; CGdiObject::`scalar deleting destructor'
PUBLIC	??1CPen@@UAE@XZ					; CPen::~CPen
PUBLIC	??_GCPen@@UAEPAXI@Z				; CPen::`scalar deleting destructor'
PUBLIC	??1CFont@@UAE@XZ				; CFont::~CFont
PUBLIC	??_GCFont@@UAEPAXI@Z				; CFont::`scalar deleting destructor'
PUBLIC	??1CBitmap@@UAE@XZ				; CBitmap::~CBitmap
PUBLIC	??_GCBitmap@@UAEPAXI@Z				; CBitmap::`scalar deleting destructor'
PUBLIC	??1CRgn@@UAE@XZ					; CRgn::~CRgn
PUBLIC	??_GCRgn@@UAEPAXI@Z				; CRgn::`scalar deleting destructor'
PUBLIC	?DrawTextA@CDC@@UAEHPBDHPAUtagRECT@@I@Z		; CDC::DrawTextA
PUBLIC	?OnRButtonDown@CWnd@@IAEXIVCPoint@@@Z		; CWnd::OnRButtonDown
PUBLIC	?DoDataExchange@CWnd@@MAEXPAVCDataExchange@@@Z	; CWnd::DoDataExchange
PUBLIC	?BeginModalState@CWnd@@UAEXXZ			; CWnd::BeginModalState
PUBLIC	?EndModalState@CWnd@@UAEXXZ			; CWnd::EndModalState
PUBLIC	?_GetBaseClass@CGfxOutBarCtrl@@KGPAUCRuntimeClass@@XZ ; CGfxOutBarCtrl::_GetBaseClass
PUBLIC	?GetThisClass@CGfxOutBarCtrl@@SGPAUCRuntimeClass@@XZ ; CGfxOutBarCtrl::GetThisClass
PUBLIC	?GetRuntimeClass@CGfxOutBarCtrl@@UBEPAUCRuntimeClass@@XZ ; CGfxOutBarCtrl::GetRuntimeClass
PUBLIC	?CreateObject@CGfxOutBarCtrl@@SGPAVCObject@@XZ	; CGfxOutBarCtrl::CreateObject
PUBLIC	??0CGfxOutBarCtrl@@QAE@XZ			; CGfxOutBarCtrl::CGfxOutBarCtrl
PUBLIC	??0CBarItem@CGfxOutBarCtrl@@QAE@PBDHK@Z		; CGfxOutBarCtrl::CBarItem::CBarItem
PUBLIC	??1CBarItem@CGfxOutBarCtrl@@UAE@XZ		; CGfxOutBarCtrl::CBarItem::~CBarItem
PUBLIC	??_GCBarItem@CGfxOutBarCtrl@@UAEPAXI@Z		; CGfxOutBarCtrl::CBarItem::`scalar deleting destructor'
PUBLIC	??0CBarFolder@CGfxOutBarCtrl@@QAE@PBDK@Z	; CGfxOutBarCtrl::CBarFolder::CBarFolder
PUBLIC	??1CBarFolder@CGfxOutBarCtrl@@UAE@XZ		; CGfxOutBarCtrl::CBarFolder::~CBarFolder
PUBLIC	?CleanUp@CBarFolder@CGfxOutBarCtrl@@QAEXXZ	; CGfxOutBarCtrl::CBarFolder::CleanUp
PUBLIC	?GetItemCount@CBarFolder@CGfxOutBarCtrl@@QAEHXZ	; CGfxOutBarCtrl::CBarFolder::GetItemCount
PUBLIC	?InsertItem@CBarFolder@CGfxOutBarCtrl@@QAEHHPBDHK@Z ; CGfxOutBarCtrl::CBarFolder::InsertItem
PUBLIC	??_GCBarFolder@CGfxOutBarCtrl@@UAEPAXI@Z	; CGfxOutBarCtrl::CBarFolder::`scalar deleting destructor'
PUBLIC	?DeleteAllFolder@CGfxOutBarCtrl@@QAEXXZ		; CGfxOutBarCtrl::DeleteAllFolder
PUBLIC	?SetBackColor@CGfxOutBarCtrl@@QAEXHKKKK@Z	; CGfxOutBarCtrl::SetBackColor
PUBLIC	?DrawAnimItem@CGfxOutBarCtrl@@QAEXHHH@Z		; CGfxOutBarCtrl::DrawAnimItem
PUBLIC	?SetAnimSelHighlight@CGfxOutBarCtrl@@QAEXH@Z	; CGfxOutBarCtrl::SetAnimSelHighlight
PUBLIC	?GetFolderData@CGfxOutBarCtrl@@QAEKH@Z		; CGfxOutBarCtrl::GetFolderData
PUBLIC	?SetFolderData@CGfxOutBarCtrl@@QAEXHK@Z		; CGfxOutBarCtrl::SetFolderData
PUBLIC	?GetFolderText@CGfxOutBarCtrl@@QAE?AV?$CStringT@DV?$StrTraitMFC_DLL@DV?$ChTraitsCRT@D@ATL@@@@@ATL@@H@Z ; CGfxOutBarCtrl::GetFolderText
PUBLIC	?GetFolderChild@CGfxOutBarCtrl@@QAEPAVCWnd@@H@Z	; CGfxOutBarCtrl::GetFolderChild
PUBLIC	?AddFolderBar@CGfxOutBarCtrl@@QAEHPBDPAVCWnd@@K@Z ; CGfxOutBarCtrl::AddFolderBar
PUBLIC	?GetItemText@CGfxOutBarCtrl@@QAE?AV?$CStringT@DV?$StrTraitMFC_DLL@DV?$ChTraitsCRT@D@ATL@@@@@ATL@@H@Z ; CGfxOutBarCtrl::GetItemText
PUBLIC	?AnimateFolderScroll@CGfxOutBarCtrl@@QAEXHH@Z	; CGfxOutBarCtrl::AnimateFolderScroll
PUBLIC	?GetDragItemRect@CGfxOutBarCtrl@@QAEHHAAVCRect@@@Z ; CGfxOutBarCtrl::GetDragItemRect
PUBLIC	?DrawDragArrow@CGfxOutBarCtrl@@QAEXPAVCDC@@HH@Z	; CGfxOutBarCtrl::DrawDragArrow
PUBLIC	?SetItemImage@CGfxOutBarCtrl@@QAEXHH@Z		; CGfxOutBarCtrl::SetItemImage
PUBLIC	?SetItemData@CGfxOutBarCtrl@@QAEXHK@Z		; CGfxOutBarCtrl::SetItemData
PUBLIC	?GetItemImage@CGfxOutBarCtrl@@QBEHH@Z		; CGfxOutBarCtrl::GetItemImage
PUBLIC	?GetItemData@CGfxOutBarCtrl@@QBEKH@Z		; CGfxOutBarCtrl::GetItemData
PUBLIC	?IsValidItem@CGfxOutBarCtrl@@QBE_NH@Z		; CGfxOutBarCtrl::IsValidItem
PUBLIC	?RemoveItem@CGfxOutBarCtrl@@QAEXH@Z		; CGfxOutBarCtrl::RemoveItem
PUBLIC	?SetItemText@CGfxOutBarCtrl@@QAEXHPBD@Z		; CGfxOutBarCtrl::SetItemText
PUBLIC	?SetFolderText@CGfxOutBarCtrl@@QAEXHPBD@Z	; CGfxOutBarCtrl::SetFolderText
PUBLIC	?GetLabelRect@CGfxOutBarCtrl@@QAEXHHAAVCRect@@@Z ; CGfxOutBarCtrl::GetLabelRect
PUBLIC	?GetIconRect@CGfxOutBarCtrl@@QAEXHHAAVCRect@@@Z	; CGfxOutBarCtrl::GetIconRect
PUBLIC	?HighlightItem@CGfxOutBarCtrl@@QAEXH_N@Z	; CGfxOutBarCtrl::HighlightItem
PUBLIC	?GetVisibleRange@CGfxOutBarCtrl@@QAEXHAAH0@Z	; CGfxOutBarCtrl::GetVisibleRange
PUBLIC	?DrawItem@CGfxOutBarCtrl@@QAEXPAVCDC@@HVCRect@@H_N@Z ; CGfxOutBarCtrl::DrawItem
PUBLIC	?GetFolderImageList@CGfxOutBarCtrl@@QBEPAVCImageList@@H_N@Z ; CGfxOutBarCtrl::GetFolderImageList
PUBLIC	?GetItemSize@CGfxOutBarCtrl@@QAE?AVCSize@@HHH@Z	; CGfxOutBarCtrl::GetItemSize
PUBLIC	?PaintItems@CGfxOutBarCtrl@@QAEXPAVCDC@@HVCRect@@@Z ; CGfxOutBarCtrl::PaintItems
PUBLIC	?GetImageList@CGfxOutBarCtrl@@QAEPAVCImageList@@PAV2@H@Z ; CGfxOutBarCtrl::GetImageList
PUBLIC	?SetFolderImageList@CGfxOutBarCtrl@@QAEPAVCImageList@@HPAV2@H@Z ; CGfxOutBarCtrl::SetFolderImageList
PUBLIC	?SetImageList@CGfxOutBarCtrl@@QAEPAVCImageList@@PAV2@H@Z ; CGfxOutBarCtrl::SetImageList
PUBLIC	?GetCountPerPage@CGfxOutBarCtrl@@QBEHXZ		; CGfxOutBarCtrl::GetCountPerPage
PUBLIC	?RemoveFolder@CGfxOutBarCtrl@@QAEXH@Z		; CGfxOutBarCtrl::RemoveFolder
PUBLIC	?GetSelFolder@CGfxOutBarCtrl@@QBEHXZ		; CGfxOutBarCtrl::GetSelFolder
PUBLIC	?GetFolderCount@CGfxOutBarCtrl@@QBEHXZ		; CGfxOutBarCtrl::GetFolderCount
PUBLIC	?SetSelFolder@CGfxOutBarCtrl@@QAEXH@Z		; CGfxOutBarCtrl::SetSelFolder
PUBLIC	?SetSelFolder@CGfxOutBarCtrl@@QAEHPBD@Z		; CGfxOutBarCtrl::SetSelFolder
PUBLIC	?GetItemCount@CGfxOutBarCtrl@@QBEHXZ		; CGfxOutBarCtrl::GetItemCount
PUBLIC	?InsertItem@CGfxOutBarCtrl@@QAEHHHPBDHK@Z	; CGfxOutBarCtrl::InsertItem
PUBLIC	?HighlightFolder@CGfxOutBarCtrl@@QAEXH@Z	; CGfxOutBarCtrl::HighlightFolder
PUBLIC	?HitTestEx@CGfxOutBarCtrl@@QAEHABVCPoint@@AAH@Z	; CGfxOutBarCtrl::HitTestEx
PUBLIC	?GetInsideRect@CGfxOutBarCtrl@@QBEXAAVCRect@@@Z	; CGfxOutBarCtrl::GetInsideRect
PUBLIC	?AddFolder@CGfxOutBarCtrl@@QAEHPBDK@Z		; CGfxOutBarCtrl::AddFolder
PUBLIC	?GetItemRect@CGfxOutBarCtrl@@QAEXHHAAVCRect@@@Z	; CGfxOutBarCtrl::GetItemRect
PUBLIC	?GetFolderRect@CGfxOutBarCtrl@@QBE_NHAAVCRect@@@Z ; CGfxOutBarCtrl::GetFolderRect
PUBLIC	?ModifyFlag@CGfxOutBarCtrl@@QAEXABK0I@Z		; CGfxOutBarCtrl::ModifyFlag
PUBLIC	?GetFlag@CGfxOutBarCtrl@@QBEKXZ			; CGfxOutBarCtrl::GetFlag
PUBLIC	?SetSmallIconView@CGfxOutBarCtrl@@QAEX_N@Z	; CGfxOutBarCtrl::SetSmallIconView
PUBLIC	?IsSmallIconView@CGfxOutBarCtrl@@QBE_NXZ	; CGfxOutBarCtrl::IsSmallIconView
PUBLIC	?Create@CGfxOutBarCtrl@@QAEHKABUtagRECT@@PAVCWnd@@IK@Z ; CGfxOutBarCtrl::Create
PUBLIC	??1CGfxOutBarCtrl@@UAE@XZ			; CGfxOutBarCtrl::~CGfxOutBarCtrl
PUBLIC	?SetFolderImageList@CGfxOutBarCtrl@@QAEXPAVCImageList@@HHH@Z ; CGfxOutBarCtrl::SetFolderImageList
PUBLIC	?DrawFolder@CGfxOutBarCtrl@@IAEXPAVCDC@@HVCRect@@_N@Z ; CGfxOutBarCtrl::DrawFolder
PUBLIC	?OnCreate@CGfxOutBarCtrl@@IAEHPAUtagCREATESTRUCTA@@@Z ; CGfxOutBarCtrl::OnCreate
PUBLIC	?OnTimer@CGfxOutBarCtrl@@IAEXI@Z		; CGfxOutBarCtrl::OnTimer
PUBLIC	?OnPaint@CGfxOutBarCtrl@@IAEXXZ			; CGfxOutBarCtrl::OnPaint
PUBLIC	?OnEraseBkgnd@CGfxOutBarCtrl@@IAEHPAVCDC@@@Z	; CGfxOutBarCtrl::OnEraseBkgnd
PUBLIC	?OnMouseMove@CGfxOutBarCtrl@@IAEXIVCPoint@@@Z	; CGfxOutBarCtrl::OnMouseMove
PUBLIC	?OnLButtonDown@CGfxOutBarCtrl@@IAEXIVCPoint@@@Z	; CGfxOutBarCtrl::OnLButtonDown
PUBLIC	?OnSetCursor@CGfxOutBarCtrl@@IAEHPAVCWnd@@II@Z	; CGfxOutBarCtrl::OnSetCursor
PUBLIC	?OnSize@CGfxOutBarCtrl@@IAEXIHH@Z		; CGfxOutBarCtrl::OnSize
PUBLIC	?OnGfxLargeicon@CGfxOutBarCtrl@@IAEXXZ		; CGfxOutBarCtrl::OnGfxLargeicon
PUBLIC	?OnUpdateGfxLargeicon@CGfxOutBarCtrl@@IAEXPAVCCmdUI@@@Z ; CGfxOutBarCtrl::OnUpdateGfxLargeicon
PUBLIC	?OnGfxSmallicon@CGfxOutBarCtrl@@IAEXXZ		; CGfxOutBarCtrl::OnGfxSmallicon
PUBLIC	?OnUpdateGfxSmallicon@CGfxOutBarCtrl@@IAEXPAVCCmdUI@@@Z ; CGfxOutBarCtrl::OnUpdateGfxSmallicon
PUBLIC	?OnGfxRemoveitem@CGfxOutBarCtrl@@IAEXXZ		; CGfxOutBarCtrl::OnGfxRemoveitem
PUBLIC	?OnUpdateGfxRemoveitem@CGfxOutBarCtrl@@IAEXPAVCCmdUI@@@Z ; CGfxOutBarCtrl::OnUpdateGfxRemoveitem
PUBLIC	?OnUpdateGfxRenameitem@CGfxOutBarCtrl@@IAEXPAVCCmdUI@@@Z ; CGfxOutBarCtrl::OnUpdateGfxRenameitem
PUBLIC	?OnDestroy@CGfxOutBarCtrl@@IAEXXZ		; CGfxOutBarCtrl::OnDestroy
PUBLIC	?OnLButtonDblClk@CGfxOutBarCtrl@@IAEXIVCPoint@@@Z ; CGfxOutBarCtrl::OnLButtonDblClk
PUBLIC	?GetThisMessageMap@CGfxOutBarCtrl@@KGPBUAFX_MSGMAP@@XZ ; CGfxOutBarCtrl::GetThisMessageMap
PUBLIC	?GetMessageMap@CGfxOutBarCtrl@@MBEPBUAFX_MSGMAP@@XZ ; CGfxOutBarCtrl::GetMessageMap
PUBLIC	??_GCGfxOutBarCtrl@@UAEPAXI@Z			; CGfxOutBarCtrl::`scalar deleting destructor'
PUBLIC	??_R0PAVCException@@@8				; CException * `RTTI Type Descriptor'
PUBLIC	??_7CGdiObject@@6B@				; CGdiObject::`vftable'
PUBLIC	??_7CPen@@6B@					; CPen::`vftable'
PUBLIC	??_7CFont@@6B@					; CFont::`vftable'
PUBLIC	??_7CBitmap@@6B@				; CBitmap::`vftable'
PUBLIC	??_7CRgn@@6B@					; CRgn::`vftable'
PUBLIC	??_C@_0HD@JJCHHHNK@C?3?2Program?5Files?5?$CIx86?$CJ?2Microsof@ ; `string'
PUBLIC	??_C@_0BP@OIEOKIDM@Exception?5thrown?5in?5destructor@ ; `string'
PUBLIC	??_C@_0BB@HBOOMJBF@?$CFTs?5?$CI?$CFTs?3?$CFd?$CJ?6?$CFTs@ ; `string'
PUBLIC	??_C@_0N@OMEMOKLE@?$CFTs?5?$CI?$CFTs?3?$CFd?$CJ@ ; `string'
PUBLIC	??_C@_02DKCKIIND@?$CFs@				; `string'
PUBLIC	??_R0?AVCObject@@@8				; CObject `RTTI Type Descriptor'
PUBLIC	??_R3CObject@@8					; CObject::`RTTI Class Hierarchy Descriptor'
PUBLIC	??_R2CObject@@8					; CObject::`RTTI Base Class Array'
PUBLIC	??_R1A@?0A@EA@CObject@@8			; CObject::`RTTI Base Class Descriptor at (0,-1,0,64)'
PUBLIC	??_R4CGdiObject@@6B@				; CGdiObject::`RTTI Complete Object Locator'
PUBLIC	??_R0?AVCGdiObject@@@8				; CGdiObject `RTTI Type Descriptor'
PUBLIC	??_R3CGdiObject@@8				; CGdiObject::`RTTI Class Hierarchy Descriptor'
PUBLIC	??_R2CGdiObject@@8				; CGdiObject::`RTTI Base Class Array'
PUBLIC	??_R1A@?0A@EA@CGdiObject@@8			; CGdiObject::`RTTI Base Class Descriptor at (0,-1,0,64)'
PUBLIC	??_R4CPen@@6B@					; CPen::`RTTI Complete Object Locator'
PUBLIC	??_R0?AVCPen@@@8				; CPen `RTTI Type Descriptor'
PUBLIC	??_R3CPen@@8					; CPen::`RTTI Class Hierarchy Descriptor'
PUBLIC	??_R2CPen@@8					; CPen::`RTTI Base Class Array'
PUBLIC	??_R1A@?0A@EA@CPen@@8				; CPen::`RTTI Base Class Descriptor at (0,-1,0,64)'
PUBLIC	??_R4CFont@@6B@					; CFont::`RTTI Complete Object Locator'
PUBLIC	??_R0?AVCFont@@@8				; CFont `RTTI Type Descriptor'
PUBLIC	??_R3CFont@@8					; CFont::`RTTI Class Hierarchy Descriptor'
PUBLIC	??_R2CFont@@8					; CFont::`RTTI Base Class Array'
PUBLIC	??_R1A@?0A@EA@CFont@@8				; CFont::`RTTI Base Class Descriptor at (0,-1,0,64)'
PUBLIC	??_R4CBitmap@@6B@				; CBitmap::`RTTI Complete Object Locator'
PUBLIC	??_R0?AVCBitmap@@@8				; CBitmap `RTTI Type Descriptor'
PUBLIC	??_R3CBitmap@@8					; CBitmap::`RTTI Class Hierarchy Descriptor'
PUBLIC	??_R2CBitmap@@8					; CBitmap::`RTTI Base Class Array'
PUBLIC	??_R1A@?0A@EA@CBitmap@@8			; CBitmap::`RTTI Base Class Descriptor at (0,-1,0,64)'
PUBLIC	??_R4CRgn@@6B@					; CRgn::`RTTI Complete Object Locator'
PUBLIC	??_R0?AVCRgn@@@8				; CRgn `RTTI Type Descriptor'
PUBLIC	??_R3CRgn@@8					; CRgn::`RTTI Class Hierarchy Descriptor'
PUBLIC	??_R2CRgn@@8					; CRgn::`RTTI Base Class Array'
PUBLIC	??_R1A@?0A@EA@CRgn@@8				; CRgn::`RTTI Base Class Descriptor at (0,-1,0,64)'
PUBLIC	??_R1A@?0A@EA@CWnd@@8				; CWnd::`RTTI Base Class Descriptor at (0,-1,0,64)'
PUBLIC	??_R0?AVCWnd@@@8				; CWnd `RTTI Type Descriptor'
PUBLIC	??_R3CWnd@@8					; CWnd::`RTTI Class Hierarchy Descriptor'
PUBLIC	??_R2CWnd@@8					; CWnd::`RTTI Base Class Array'
PUBLIC	??_R1A@?0A@EA@CCmdTarget@@8			; CCmdTarget::`RTTI Base Class Descriptor at (0,-1,0,64)'
PUBLIC	??_R0?AVCCmdTarget@@@8				; CCmdTarget `RTTI Type Descriptor'
PUBLIC	??_R3CCmdTarget@@8				; CCmdTarget::`RTTI Class Hierarchy Descriptor'
PUBLIC	??_R2CCmdTarget@@8				; CCmdTarget::`RTTI Base Class Array'
PUBLIC	?classCGfxOutBarCtrl@CGfxOutBarCtrl@@2UCRuntimeClass@@B ; CGfxOutBarCtrl::classCGfxOutBarCtrl
PUBLIC	??_7CBarItem@CGfxOutBarCtrl@@6B@		; CGfxOutBarCtrl::CBarItem::`vftable'
PUBLIC	??_7CBarFolder@CGfxOutBarCtrl@@6B@		; CGfxOutBarCtrl::CBarFolder::`vftable'
PUBLIC	??_7CGfxOutBarCtrl@@6B@				; CGfxOutBarCtrl::`vftable'
PUBLIC	??_C@_0P@MGLBNAEE@CGfxOutBarCtrl@		; `string'
PUBLIC	??_C@_06MFMMLLPC@?$LB?$LM?$LI?$LC?C?$LM@	; `string'
PUBLIC	??_C@_0O@FPEFBHNP@SelFolder?$DN?$CFd?6@		; `string'
PUBLIC	??_C@_0BD@DJDMGDBG@top?$DN?$CFd?0?5bottom?$DN?$CFd?6@ ; `string'
PUBLIC	??_C@_0BF@LOJNHKGH@width?$DN?$CFd?0?5height?$DN?$CFd?6@ ; `string'
PUBLIC	??_R4CGfxOutBarCtrl@@6B@			; CGfxOutBarCtrl::`RTTI Complete Object Locator'
PUBLIC	??_R0?AVCGfxOutBarCtrl@@@8			; CGfxOutBarCtrl `RTTI Type Descriptor'
PUBLIC	??_R3CGfxOutBarCtrl@@8				; CGfxOutBarCtrl::`RTTI Class Hierarchy Descriptor'
PUBLIC	??_R2CGfxOutBarCtrl@@8				; CGfxOutBarCtrl::`RTTI Base Class Array'
PUBLIC	??_R1A@?0A@EA@CGfxOutBarCtrl@@8			; CGfxOutBarCtrl::`RTTI Base Class Descriptor at (0,-1,0,64)'
PUBLIC	??_R4CBarItem@CGfxOutBarCtrl@@6B@		; CGfxOutBarCtrl::CBarItem::`RTTI Complete Object Locator'
PUBLIC	??_R0?AVCBarItem@CGfxOutBarCtrl@@@8		; CGfxOutBarCtrl::CBarItem `RTTI Type Descriptor'
PUBLIC	??_R3CBarItem@CGfxOutBarCtrl@@8			; CGfxOutBarCtrl::CBarItem::`RTTI Class Hierarchy Descriptor'
PUBLIC	??_R2CBarItem@CGfxOutBarCtrl@@8			; CGfxOutBarCtrl::CBarItem::`RTTI Base Class Array'
PUBLIC	??_R1A@?0A@EA@CBarItem@CGfxOutBarCtrl@@8	; CGfxOutBarCtrl::CBarItem::`RTTI Base Class Descriptor at (0,-1,0,64)'
PUBLIC	??_R4CBarFolder@CGfxOutBarCtrl@@6B@		; CGfxOutBarCtrl::CBarFolder::`RTTI Complete Object Locator'
PUBLIC	??_R0?AVCBarFolder@CGfxOutBarCtrl@@@8		; CGfxOutBarCtrl::CBarFolder `RTTI Type Descriptor'
PUBLIC	??_R3CBarFolder@CGfxOutBarCtrl@@8		; CGfxOutBarCtrl::CBarFolder::`RTTI Class Hierarchy Descriptor'
PUBLIC	??_R2CBarFolder@CGfxOutBarCtrl@@8		; CGfxOutBarCtrl::CBarFolder::`RTTI Base Class Array'
PUBLIC	??_R1A@?0A@EA@CBarFolder@CGfxOutBarCtrl@@8	; CGfxOutBarCtrl::CBarFolder::`RTTI Base Class Descriptor at (0,-1,0,64)'
PUBLIC	__xmm@00000190000000000000000000000000
EXTRN	??2@YAPAXI@Z:PROC				; operator new
EXTRN	??3@YAXPAX@Z:PROC				; operator delete
EXTRN	??3@YAXPAXI@Z:PROC				; operator delete
EXTRN	?__global_delete@@YAXPAXI@Z:PROC		; __global_delete
EXTRN	??_U@YAPAXI@Z:PROC				; operator new[]
EXTRN	??_V@YAXPAX@Z:PROC				; operator delete[]
EXTRN	___std_terminate:PROC
EXTRN	__imp__OutputDebugStringA@4:PROC
EXTRN	__imp__Sleep@4:PROC
EXTRN	__imp__lstrcpyA@8:PROC
EXTRN	__imp__lstrlenA@4:PROC
EXTRN	__imp__BitBlt@36:PROC
EXTRN	__imp__CreateCompatibleBitmap@12:PROC
EXTRN	__imp__CreateCompatibleDC@4:PROC
EXTRN	__imp__CreateFontIndirectA@4:PROC
EXTRN	__imp__CreateRectRgnIndirect@4:PROC
EXTRN	__imp__GetTextExtentPoint32A@16:PROC
EXTRN	__imp__GetObjectA@12:PROC
EXTRN	__imp__DrawFrameControl@16:PROC
EXTRN	__imp__GetMessageA@16:PROC
EXTRN	__imp__DispatchMessageA@4:PROC
EXTRN	__imp__GetMessagePos@0:PROC
EXTRN	__imp__SendMessageA@16:PROC
EXTRN	__imp__IsChild@8:PROC
EXTRN	__imp__GetFocus@0:PROC
EXTRN	__imp__GetCapture@0:PROC
EXTRN	__imp__SetCapture@4:PROC
EXTRN	__imp__ReleaseCapture@0:PROC
EXTRN	__imp__SetTimer@16:PROC
EXTRN	__imp__KillTimer@8:PROC
EXTRN	__imp__EnableWindow@8:PROC
EXTRN	__imp__GetSystemMetrics@4:PROC
EXTRN	__imp__DrawTextA@20:PROC
EXTRN	__imp__UpdateWindow@4:PROC
EXTRN	__imp__InvalidateRect@12:PROC
EXTRN	__imp__GetClientRect@8:PROC
EXTRN	__imp__SetCursor@4:PROC
EXTRN	__imp__GetCursor@0:PROC
EXTRN	__imp__ScreenToClient@8:PROC
EXTRN	__imp__GetSysColor@4:PROC
EXTRN	__imp__SetRect@20:PROC
EXTRN	__imp__CopyRect@8:PROC
EXTRN	__imp__InflateRect@12:PROC
EXTRN	__imp__OffsetRect@12:PROC
EXTRN	__imp__PtInRect@12:PROC
EXTRN	__imp__GetParent@4:PROC
EXTRN	__imp__LoadCursorW@8:PROC
EXTRN	__imp__ImageList_Draw@24:PROC
EXTRN	__imp__ImageList_GetImageInfo@12:PROC
EXTRN	?AfxThrowInvalidArgException@@YGXXZ:PROC	; AfxThrowInvalidArgException
EXTRN	__imp_??0?$CStringT@DV?$StrTraitMFC_DLL@DV?$ChTraitsCRT@D@ATL@@@@@ATL@@QAE@XZ:PROC
EXTRN	__imp_??0?$CStringT@DV?$StrTraitMFC_DLL@DV?$ChTraitsCRT@D@ATL@@@@@ATL@@QAE@PBD@Z:PROC
EXTRN	__imp_??1?$CStringT@DV?$StrTraitMFC_DLL@DV?$ChTraitsCRT@D@ATL@@@@@ATL@@QAE@XZ:PROC
EXTRN	__imp_??4?$CStringT@DV?$StrTraitMFC_DLL@DV?$ChTraitsCRT@D@ATL@@@@@ATL@@QAEAAV01@ABV01@@Z:PROC
EXTRN	__imp_??4?$CStringT@DV?$StrTraitMFC_DLL@DV?$ChTraitsCRT@D@ATL@@@@@ATL@@QAEAAV01@PBD@Z:PROC
EXTRN	__imp_?CompareNoCase@?$CStringT@DV?$StrTraitMFC_DLL@DV?$ChTraitsCRT@D@ATL@@@@@ATL@@QBEHPBD@Z:PROC
EXTRN	__imp_?Format@?$CStringT@DV?$StrTraitMFC_DLL@DV?$ChTraitsCRT@D@ATL@@@@@ATL@@QAAXPBDZZ:PROC
EXTRN	??0CPtrArray@@QAE@XZ:PROC			; CPtrArray::CPtrArray
EXTRN	?SetSize@CPtrArray@@QAEXHH@Z:PROC		; CPtrArray::SetSize
EXTRN	?SetAtGrow@CPtrArray@@QAEXHPAX@Z:PROC		; CPtrArray::SetAtGrow
EXTRN	?InsertAt@CPtrArray@@QAEXHPAXH@Z:PROC		; CPtrArray::InsertAt
EXTRN	?RemoveAt@CPtrArray@@QAEXHH@Z:PROC		; CPtrArray::RemoveAt
EXTRN	??1CPtrArray@@UAE@XZ:PROC			; CPtrArray::~CPtrArray
EXTRN	?AfxGetModuleState@@YGPAVAFX_MODULE_STATE@@XZ:PROC ; AfxGetModuleState
EXTRN	?AfxGetStaticModuleState@@YGPAVAFX_MODULE_STATE@@XZ:PROC ; AfxGetStaticModuleState
EXTRN	??0AFX_MAINTAIN_STATE2@@QAE@PAVAFX_MODULE_STATE@@@Z:PROC ; AFX_MAINTAIN_STATE2::AFX_MAINTAIN_STATE2
EXTRN	??1AFX_MAINTAIN_STATE2@@QAE@XZ:PROC		; AFX_MAINTAIN_STATE2::~AFX_MAINTAIN_STATE2
EXTRN	?GetRuntimeClass@CGdiObject@@UBEPAUCRuntimeClass@@XZ:PROC ; CGdiObject::GetRuntimeClass
EXTRN	?Attach@CGdiObject@@QAEHPAX@Z:PROC		; CGdiObject::Attach
EXTRN	?DeleteObject@CGdiObject@@QAEHXZ:PROC		; CGdiObject::DeleteObject
EXTRN	??_ECGdiObject@@UAEPAXI@Z:PROC			; CGdiObject::`vector deleting destructor'
EXTRN	?GetRuntimeClass@CPen@@UBEPAUCRuntimeClass@@XZ:PROC ; CPen::GetRuntimeClass
EXTRN	??0CPen@@QAE@HHK@Z:PROC				; CPen::CPen
EXTRN	??_ECPen@@UAEPAXI@Z:PROC			; CPen::`vector deleting destructor'
EXTRN	?GetRuntimeClass@CFont@@UBEPAUCRuntimeClass@@XZ:PROC ; CFont::GetRuntimeClass
EXTRN	??_ECFont@@UAEPAXI@Z:PROC			; CFont::`vector deleting destructor'
EXTRN	?GetRuntimeClass@CBitmap@@UBEPAUCRuntimeClass@@XZ:PROC ; CBitmap::GetRuntimeClass
EXTRN	??_ECBitmap@@UAEPAXI@Z:PROC			; CBitmap::`vector deleting destructor'
EXTRN	?GetRuntimeClass@CRgn@@UBEPAUCRuntimeClass@@XZ:PROC ; CRgn::GetRuntimeClass
EXTRN	??_ECRgn@@UAEPAXI@Z:PROC			; CRgn::`vector deleting destructor'
EXTRN	?Attach@CDC@@QAEHPAUHDC__@@@Z:PROC		; CDC::Attach
EXTRN	??0CDC@@QAE@XZ:PROC				; CDC::CDC
EXTRN	?SaveDC@CDC@@UAEHXZ:PROC			; CDC::SaveDC
EXTRN	?RestoreDC@CDC@@UAEHH@Z:PROC			; CDC::RestoreDC
EXTRN	?SelectObject@CDC@@QAEPAVCPen@@PAV2@@Z:PROC	; CDC::SelectObject
EXTRN	?SelectObject@CDC@@UAEPAVCFont@@PAV2@@Z:PROC	; CDC::SelectObject
EXTRN	?SetBkMode@CDC@@QAEHH@Z:PROC			; CDC::SetBkMode
EXTRN	?SetTextColor@CDC@@UAEKK@Z:PROC			; CDC::SetTextColor
EXTRN	?SelectClipRgn@CDC@@QAEHPAVCRgn@@@Z:PROC	; CDC::SelectClipRgn
EXTRN	?ExcludeClipRect@CDC@@QAEHPBUtagRECT@@@Z:PROC	; CDC::ExcludeClipRect
EXTRN	?MoveTo@CDC@@QAE?AVCPoint@@HH@Z:PROC		; CDC::MoveTo
EXTRN	?LineTo@CDC@@QAEHHH@Z:PROC			; CDC::LineTo
EXTRN	?FillSolidRect@CDC@@QAEXPBUtagRECT@@K@Z:PROC	; CDC::FillSolidRect
EXTRN	?Draw3dRect@CDC@@QAEXPBUtagRECT@@KK@Z:PROC	; CDC::Draw3dRect
EXTRN	??1CDC@@UAE@XZ:PROC				; CDC::~CDC
EXTRN	?SelectGdiObject@CDC@@KGPAVCGdiObject@@PAUHDC__@@PAX@Z:PROC ; CDC::SelectGdiObject
EXTRN	??0CPaintDC@@QAE@PAVCWnd@@@Z:PROC		; CPaintDC::CPaintDC
EXTRN	??1CPaintDC@@UAE@XZ:PROC			; CPaintDC::~CPaintDC
EXTRN	??0CClientDC@@QAE@PAVCWnd@@@Z:PROC		; CClientDC::CClientDC
EXTRN	??1CClientDC@@UAE@XZ:PROC			; CClientDC::~CClientDC
EXTRN	?OnCmdMsg@CCmdTarget@@UAEHIHPAXPAUAFX_CMDHANDLERINFO@@@Z:PROC ; CCmdTarget::OnCmdMsg
EXTRN	?IsInvokeAllowed@CCmdTarget@@UAEHJ@Z:PROC	; CCmdTarget::IsInvokeAllowed
EXTRN	?GetDispatchIID@CCmdTarget@@UAEHPAU_GUID@@@Z:PROC ; CCmdTarget::GetDispatchIID
EXTRN	?GetTypeInfoCount@CCmdTarget@@UAEIXZ:PROC	; CCmdTarget::GetTypeInfoCount
EXTRN	?GetTypeLibCache@CCmdTarget@@UAEPAVCTypeLibCache@@XZ:PROC ; CCmdTarget::GetTypeLibCache
EXTRN	?GetTypeLib@CCmdTarget@@UAEJKPAPAUITypeLib@@@Z:PROC ; CCmdTarget::GetTypeLib
EXTRN	?GetCommandMap@CCmdTarget@@MBEPBUAFX_OLECMDMAP@@XZ:PROC ; CCmdTarget::GetCommandMap
EXTRN	?GetDispatchMap@CCmdTarget@@MBEPBUAFX_DISPMAP@@XZ:PROC ; CCmdTarget::GetDispatchMap
EXTRN	?GetConnectionMap@CCmdTarget@@MBEPBUAFX_CONNECTIONMAP@@XZ:PROC ; CCmdTarget::GetConnectionMap
EXTRN	?GetEventSinkMap@CCmdTarget@@MBEPBUAFX_EVENTSINKMAP@@XZ:PROC ; CCmdTarget::GetEventSinkMap
EXTRN	?OnCreateAggregates@CCmdTarget@@UAEHXZ:PROC	; CCmdTarget::OnCreateAggregates
EXTRN	?GetInterfaceHook@CCmdTarget@@UAEPAUIUnknown@@PBX@Z:PROC ; CCmdTarget::GetInterfaceHook
EXTRN	?GetExtraConnectionPoints@CCmdTarget@@MAEHPAVCPtrArray@@@Z:PROC ; CCmdTarget::GetExtraConnectionPoints
EXTRN	?GetConnectionHook@CCmdTarget@@MAEPAUIConnectionPoint@@ABU_GUID@@@Z:PROC ; CCmdTarget::GetConnectionHook
EXTRN	?GetThisClass@CWnd@@SGPAUCRuntimeClass@@XZ:PROC	; CWnd::GetThisClass
EXTRN	??0CWnd@@QAE@XZ:PROC				; CWnd::CWnd
EXTRN	?FromHandle@CWnd@@SGPAV1@PAUHWND__@@@Z:PROC	; CWnd::FromHandle
EXTRN	?PreSubclassWindow@CWnd@@UAEXXZ:PROC		; CWnd::PreSubclassWindow
EXTRN	?Create@CWnd@@UAEHPBD0KABUtagRECT@@PAV1@IPAUCCreateContext@@@Z:PROC ; CWnd::Create
EXTRN	?CreateEx@CWnd@@UAEHKPBD0KHHHHPAUHWND__@@PAUHMENU__@@PAX@Z:PROC ; CWnd::CreateEx
EXTRN	?CreateEx@CWnd@@UAEHKPBD0KABUtagRECT@@PAV1@IPAX@Z:PROC ; CWnd::CreateEx
EXTRN	?DestroyWindow@CWnd@@UAEHXZ:PROC		; CWnd::DestroyWindow
EXTRN	?PreCreateWindow@CWnd@@UAEHAAUtagCREATESTRUCTA@@@Z:PROC ; CWnd::PreCreateWindow
EXTRN	?CalcWindowRect@CWnd@@UAEXPAUtagRECT@@I@Z:PROC	; CWnd::CalcWindowRect
EXTRN	?GetMenu@CWnd@@UBEPAVCMenu@@XZ:PROC		; CWnd::GetMenu
EXTRN	?SetMenu@CWnd@@UAEHPAVCMenu@@@Z:PROC		; CWnd::SetMenu
EXTRN	?MoveWindow@CWnd@@QAEXHHHHH@Z:PROC		; CWnd::MoveWindow
EXTRN	?SetWindowPos@CWnd@@QAEHPBV1@HHHHI@Z:PROC	; CWnd::SetWindowPos
EXTRN	?ShowWindow@CWnd@@QAEHH@Z:PROC			; CWnd::ShowWindow
EXTRN	?OnToolHitTest@CWnd@@UBEHVCPoint@@PAUtagTOOLINFOA@@@Z:PROC ; CWnd::OnToolHitTest
EXTRN	?SetFocus@CWnd@@QAEPAV1@XZ:PROC			; CWnd::SetFocus
EXTRN	?GetScrollBarCtrl@CWnd@@UBEPAVCScrollBar@@H@Z:PROC ; CWnd::GetScrollBarCtrl
EXTRN	?WinHelpA@CWnd@@UAEXKI@Z:PROC			; CWnd::WinHelpA
EXTRN	?HtmlHelpA@CWnd@@UAEXKI@Z:PROC			; CWnd::HtmlHelpA
EXTRN	?WinHelpInternal@CWnd@@UAEXKI@Z:PROC		; CWnd::WinHelpInternal
EXTRN	?ContinueModal@CWnd@@UAEHXZ:PROC		; CWnd::ContinueModal
EXTRN	?EndModalLoop@CWnd@@UAEXH@Z:PROC		; CWnd::EndModalLoop
EXTRN	?OnDrawIconicThumbnailOrLivePreview@CWnd@@UAEXAAVCDC@@VCRect@@VCSize@@HAAH@Z:PROC ; CWnd::OnDrawIconicThumbnailOrLivePreview
EXTRN	?GetInterfaceMap@CWnd@@MBEPBUAFX_INTERFACEMAP@@XZ:PROC ; CWnd::GetInterfaceMap
EXTRN	?EnsureStdObj@CWnd@@UAEJXZ:PROC			; CWnd::EnsureStdObj
EXTRN	?get_accParent@CWnd@@UAEJPAPAUIDispatch@@@Z:PROC ; CWnd::get_accParent
EXTRN	?get_accChildCount@CWnd@@UAEJPAJ@Z:PROC		; CWnd::get_accChildCount
EXTRN	?get_accChild@CWnd@@UAEJUtagVARIANT@@PAPAUIDispatch@@@Z:PROC ; CWnd::get_accChild
EXTRN	?get_accName@CWnd@@UAEJUtagVARIANT@@PAPA_W@Z:PROC ; CWnd::get_accName
EXTRN	?get_accValue@CWnd@@UAEJUtagVARIANT@@PAPA_W@Z:PROC ; CWnd::get_accValue
EXTRN	?get_accDescription@CWnd@@UAEJUtagVARIANT@@PAPA_W@Z:PROC ; CWnd::get_accDescription
EXTRN	?get_accRole@CWnd@@UAEJUtagVARIANT@@PAU2@@Z:PROC ; CWnd::get_accRole
EXTRN	?get_accState@CWnd@@UAEJUtagVARIANT@@PAU2@@Z:PROC ; CWnd::get_accState
EXTRN	?get_accHelp@CWnd@@UAEJUtagVARIANT@@PAPA_W@Z:PROC ; CWnd::get_accHelp
EXTRN	?get_accHelpTopic@CWnd@@UAEJPAPA_WUtagVARIANT@@PAJ@Z:PROC ; CWnd::get_accHelpTopic
EXTRN	?get_accKeyboardShortcut@CWnd@@UAEJUtagVARIANT@@PAPA_W@Z:PROC ; CWnd::get_accKeyboardShortcut
EXTRN	?get_accFocus@CWnd@@UAEJPAUtagVARIANT@@@Z:PROC	; CWnd::get_accFocus
EXTRN	?get_accSelection@CWnd@@UAEJPAUtagVARIANT@@@Z:PROC ; CWnd::get_accSelection
EXTRN	?get_accDefaultAction@CWnd@@UAEJUtagVARIANT@@PAPA_W@Z:PROC ; CWnd::get_accDefaultAction
EXTRN	?accSelect@CWnd@@UAEJJUtagVARIANT@@@Z:PROC	; CWnd::accSelect
EXTRN	?accLocation@CWnd@@UAEJPAJ000UtagVARIANT@@@Z:PROC ; CWnd::accLocation
EXTRN	?accNavigate@CWnd@@UAEJJUtagVARIANT@@PAU2@@Z:PROC ; CWnd::accNavigate
EXTRN	?accHitTest@CWnd@@UAEJJJPAUtagVARIANT@@@Z:PROC	; CWnd::accHitTest
EXTRN	?accDoDefaultAction@CWnd@@UAEJUtagVARIANT@@@Z:PROC ; CWnd::accDoDefaultAction
EXTRN	?put_accName@CWnd@@UAEJUtagVARIANT@@PA_W@Z:PROC	; CWnd::put_accName
EXTRN	?put_accValue@CWnd@@UAEJUtagVARIANT@@PA_W@Z:PROC ; CWnd::put_accValue
EXTRN	?SetProxy@CWnd@@UAEJPAUIAccessibleProxy@@@Z:PROC ; CWnd::SetProxy
EXTRN	?CreateAccessibleProxy@CWnd@@UAEJIJPAJ@Z:PROC	; CWnd::CreateAccessibleProxy
EXTRN	?OnCommand@CWnd@@MAEHIJ@Z:PROC			; CWnd::OnCommand
EXTRN	?OnNotify@CWnd@@MAEHIJPAJ@Z:PROC		; CWnd::OnNotify
EXTRN	?OnDestroy@CWnd@@IAEXXZ:PROC			; CWnd::OnDestroy
EXTRN	?GetSuperWndProcAddr@CWnd@@MAEPAP6GJPAUHWND__@@IIJ@ZXZ:PROC ; CWnd::GetSuperWndProcAddr
EXTRN	?PreTranslateMessage@CWnd@@UAEHPAUtagMSG@@@Z:PROC ; CWnd::PreTranslateMessage
EXTRN	?OnAmbientProperty@CWnd@@UAEHPAVCOleControlSite@@JPAUtagVARIANT@@@Z:PROC ; CWnd::OnAmbientProperty
EXTRN	?WindowProc@CWnd@@MAEJIIJ@Z:PROC		; CWnd::WindowProc
EXTRN	?OnWndMsg@CWnd@@MAEHIIJPAJ@Z:PROC		; CWnd::OnWndMsg
EXTRN	?Default@CWnd@@IAEJXZ:PROC			; CWnd::Default
EXTRN	?DefWindowProcA@CWnd@@MAEJIIJ@Z:PROC		; CWnd::DefWindowProcA
EXTRN	?PostNcDestroy@CWnd@@MAEXXZ:PROC		; CWnd::PostNcDestroy
EXTRN	?OnChildNotify@CWnd@@MAEHIIJPAJ@Z:PROC		; CWnd::OnChildNotify
EXTRN	?OnTouchInputs@CWnd@@MAEHIPAUtagTOUCHINPUT@@@Z:PROC ; CWnd::OnTouchInputs
EXTRN	?OnTouchInput@CWnd@@MAEHVCPoint@@HHPAUtagTOUCHINPUT@@@Z:PROC ; CWnd::OnTouchInput
EXTRN	?GetGestureStatus@CWnd@@MAEKVCPoint@@@Z:PROC	; CWnd::GetGestureStatus
EXTRN	?OnGestureZoom@CWnd@@MAEHVCPoint@@J@Z:PROC	; CWnd::OnGestureZoom
EXTRN	?OnGesturePan@CWnd@@MAEHVCPoint@@0@Z:PROC	; CWnd::OnGesturePan
EXTRN	?OnGestureRotate@CWnd@@MAEHVCPoint@@N@Z:PROC	; CWnd::OnGestureRotate
EXTRN	?OnGestureTwoFingerTap@CWnd@@MAEHVCPoint@@@Z:PROC ; CWnd::OnGestureTwoFingerTap
EXTRN	?OnGesturePressAndTap@CWnd@@MAEHVCPoint@@J@Z:PROC ; CWnd::OnGesturePressAndTap
EXTRN	?ResizeDynamicLayout@CWnd@@MAEXXZ:PROC		; CWnd::ResizeDynamicLayout
EXTRN	??1CWnd@@UAE@XZ:PROC				; CWnd::~CWnd
EXTRN	?CheckAutoCenter@CWnd@@UAEHXZ:PROC		; CWnd::CheckAutoCenter
EXTRN	?IsFrameWnd@CWnd@@UBEHXZ:PROC			; CWnd::IsFrameWnd
EXTRN	?OnFinalRelease@CWnd@@UAEXXZ:PROC		; CWnd::OnFinalRelease
EXTRN	?CreateControlContainer@CWnd@@MAEHPAPAVCOleControlContainer@@@Z:PROC ; CWnd::CreateControlContainer
EXTRN	?CreateControlSite@CWnd@@MAEHPAVCOleControlContainer@@PAPAVCOleControlSite@@IABU_GUID@@@Z:PROC ; CWnd::CreateControlSite
EXTRN	?SetOccDialogInfo@CWnd@@MAEHPAU_AFX_OCC_DIALOG_INFO@@@Z:PROC ; CWnd::SetOccDialogInfo
EXTRN	?GetOccDialogInfo@CWnd@@MAEPAU_AFX_OCC_DIALOG_INFO@@XZ:PROC ; CWnd::GetOccDialogInfo
EXTRN	?GetThisMessageMap@CWnd@@KGPBUAFX_MSGMAP@@XZ:PROC ; CWnd::GetThisMessageMap
EXTRN	?AfxFindResourceHandle@@YGPAUHINSTANCE__@@PBD0@Z:PROC ; AfxFindResourceHandle
EXTRN	?AfxMessageBox@@YGHPBDII@Z:PROC			; AfxMessageBox
EXTRN	?AfxLockTempMaps@@YGXXZ:PROC			; AfxLockTempMaps
EXTRN	?AfxUnlockTempMaps@@YGHH@Z:PROC			; AfxUnlockTempMaps
EXTRN	??_ECBarItem@CGfxOutBarCtrl@@UAEPAXI@Z:PROC	; CGfxOutBarCtrl::CBarItem::`vector deleting destructor'
EXTRN	??_ECBarFolder@CGfxOutBarCtrl@@UAEPAXI@Z:PROC	; CGfxOutBarCtrl::CBarFolder::`vector deleting destructor'
EXTRN	??_ECGfxOutBarCtrl@@UAEPAXI@Z:PROC		; CGfxOutBarCtrl::`vector deleting destructor'
EXTRN	@__security_check_cookie@4:PROC
EXTRN	___CxxFrameHandler3:PROC
EXTRN	_memset:PROC
EXTRN	??_7type_info@@6B@:QWORD			; type_info::`vftable'
EXTRN	___security_cookie:DWORD
;	COMDAT ?bOldPressed@?1??HighlightItem@CGfxOutBarCtrl@@QAEXH_N@Z@4_NA
_BSS	SEGMENT
?bOldPressed@?1??HighlightItem@CGfxOutBarCtrl@@QAEXH_N@Z@4_NA DB 01H DUP (?) ; `CGfxOutBarCtrl::HighlightItem'::`2'::bOldPressed
_BSS	ENDS
;	COMDAT __xmm@00000190000000000000000000000000
CONST	SEGMENT
__xmm@00000190000000000000000000000000 DB 00H, 00H, 00H, 00H, 00H, 00H, 00H
	DB	00H, 00H, 00H, 00H, 00H, 090H, 01H, 00H, 00H
CONST	ENDS
;	COMDAT ??_R1A@?0A@EA@CBarFolder@CGfxOutBarCtrl@@8
rdata$r	SEGMENT
??_R1A@?0A@EA@CBarFolder@CGfxOutBarCtrl@@8 DD FLAT:??_R0?AVCBarFolder@CGfxOutBarCtrl@@@8 ; CGfxOutBarCtrl::CBarFolder::`RTTI Base Class Descriptor at (0,-1,0,64)'
	DD	00H
	DD	00H
	DD	0ffffffffH
	DD	00H
	DD	040H
	DD	FLAT:??_R3CBarFolder@CGfxOutBarCtrl@@8
rdata$r	ENDS
;	COMDAT ??_R2CBarFolder@CGfxOutBarCtrl@@8
rdata$r	SEGMENT
??_R2CBarFolder@CGfxOutBarCtrl@@8 DD FLAT:??_R1A@?0A@EA@CBarFolder@CGfxOutBarCtrl@@8 ; CGfxOutBarCtrl::CBarFolder::`RTTI Base Class Array'
rdata$r	ENDS
;	COMDAT ??_R3CBarFolder@CGfxOutBarCtrl@@8
rdata$r	SEGMENT
??_R3CBarFolder@CGfxOutBarCtrl@@8 DD 00H		; CGfxOutBarCtrl::CBarFolder::`RTTI Class Hierarchy Descriptor'
	DD	00H
	DD	01H
	DD	FLAT:??_R2CBarFolder@CGfxOutBarCtrl@@8
rdata$r	ENDS
;	COMDAT ??_R0?AVCBarFolder@CGfxOutBarCtrl@@@8
data$rs	SEGMENT
??_R0?AVCBarFolder@CGfxOutBarCtrl@@@8 DD FLAT:??_7type_info@@6B@ ; CGfxOutBarCtrl::CBarFolder `RTTI Type Descriptor'
	DD	00H
	DB	'.?AVCBarFolder@CGfxOutBarCtrl@@', 00H
data$rs	ENDS
;	COMDAT ??_R4CBarFolder@CGfxOutBarCtrl@@6B@
rdata$r	SEGMENT
??_R4CBarFolder@CGfxOutBarCtrl@@6B@ DD 00H		; CGfxOutBarCtrl::CBarFolder::`RTTI Complete Object Locator'
	DD	00H
	DD	00H
	DD	FLAT:??_R0?AVCBarFolder@CGfxOutBarCtrl@@@8
	DD	FLAT:??_R3CBarFolder@CGfxOutBarCtrl@@8
rdata$r	ENDS
;	COMDAT ??_R1A@?0A@EA@CBarItem@CGfxOutBarCtrl@@8
rdata$r	SEGMENT
??_R1A@?0A@EA@CBarItem@CGfxOutBarCtrl@@8 DD FLAT:??_R0?AVCBarItem@CGfxOutBarCtrl@@@8 ; CGfxOutBarCtrl::CBarItem::`RTTI Base Class Descriptor at (0,-1,0,64)'
	DD	00H
	DD	00H
	DD	0ffffffffH
	DD	00H
	DD	040H
	DD	FLAT:??_R3CBarItem@CGfxOutBarCtrl@@8
rdata$r	ENDS
;	COMDAT ??_R2CBarItem@CGfxOutBarCtrl@@8
rdata$r	SEGMENT
??_R2CBarItem@CGfxOutBarCtrl@@8 DD FLAT:??_R1A@?0A@EA@CBarItem@CGfxOutBarCtrl@@8 ; CGfxOutBarCtrl::CBarItem::`RTTI Base Class Array'
rdata$r	ENDS
;	COMDAT ??_R3CBarItem@CGfxOutBarCtrl@@8
rdata$r	SEGMENT
??_R3CBarItem@CGfxOutBarCtrl@@8 DD 00H			; CGfxOutBarCtrl::CBarItem::`RTTI Class Hierarchy Descriptor'
	DD	00H
	DD	01H
	DD	FLAT:??_R2CBarItem@CGfxOutBarCtrl@@8
rdata$r	ENDS
;	COMDAT ??_R0?AVCBarItem@CGfxOutBarCtrl@@@8
data$rs	SEGMENT
??_R0?AVCBarItem@CGfxOutBarCtrl@@@8 DD FLAT:??_7type_info@@6B@ ; CGfxOutBarCtrl::CBarItem `RTTI Type Descriptor'
	DD	00H
	DB	'.?AVCBarItem@CGfxOutBarCtrl@@', 00H
data$rs	ENDS
;	COMDAT ??_R4CBarItem@CGfxOutBarCtrl@@6B@
rdata$r	SEGMENT
??_R4CBarItem@CGfxOutBarCtrl@@6B@ DD 00H		; CGfxOutBarCtrl::CBarItem::`RTTI Complete Object Locator'
	DD	00H
	DD	00H
	DD	FLAT:??_R0?AVCBarItem@CGfxOutBarCtrl@@@8
	DD	FLAT:??_R3CBarItem@CGfxOutBarCtrl@@8
rdata$r	ENDS
;	COMDAT ??_R1A@?0A@EA@CGfxOutBarCtrl@@8
rdata$r	SEGMENT
??_R1A@?0A@EA@CGfxOutBarCtrl@@8 DD FLAT:??_R0?AVCGfxOutBarCtrl@@@8 ; CGfxOutBarCtrl::`RTTI Base Class Descriptor at (0,-1,0,64)'
	DD	03H
	DD	00H
	DD	0ffffffffH
	DD	00H
	DD	040H
	DD	FLAT:??_R3CGfxOutBarCtrl@@8
rdata$r	ENDS
;	COMDAT ??_R2CGfxOutBarCtrl@@8
rdata$r	SEGMENT
??_R2CGfxOutBarCtrl@@8 DD FLAT:??_R1A@?0A@EA@CGfxOutBarCtrl@@8 ; CGfxOutBarCtrl::`RTTI Base Class Array'
	DD	FLAT:??_R1A@?0A@EA@CWnd@@8
	DD	FLAT:??_R1A@?0A@EA@CCmdTarget@@8
	DD	FLAT:??_R1A@?0A@EA@CObject@@8
rdata$r	ENDS
;	COMDAT ??_R3CGfxOutBarCtrl@@8
rdata$r	SEGMENT
??_R3CGfxOutBarCtrl@@8 DD 00H				; CGfxOutBarCtrl::`RTTI Class Hierarchy Descriptor'
	DD	00H
	DD	04H
	DD	FLAT:??_R2CGfxOutBarCtrl@@8
rdata$r	ENDS
;	COMDAT ??_R0?AVCGfxOutBarCtrl@@@8
data$rs	SEGMENT
??_R0?AVCGfxOutBarCtrl@@@8 DD FLAT:??_7type_info@@6B@	; CGfxOutBarCtrl `RTTI Type Descriptor'
	DD	00H
	DB	'.?AVCGfxOutBarCtrl@@', 00H
data$rs	ENDS
;	COMDAT ??_R4CGfxOutBarCtrl@@6B@
rdata$r	SEGMENT
??_R4CGfxOutBarCtrl@@6B@ DD 00H				; CGfxOutBarCtrl::`RTTI Complete Object Locator'
	DD	00H
	DD	00H
	DD	FLAT:??_R0?AVCGfxOutBarCtrl@@@8
	DD	FLAT:??_R3CGfxOutBarCtrl@@8
rdata$r	ENDS
;	COMDAT ??_C@_0BF@LOJNHKGH@width?$DN?$CFd?0?5height?$DN?$CFd?6@
CONST	SEGMENT
??_C@_0BF@LOJNHKGH@width?$DN?$CFd?0?5height?$DN?$CFd?6@ DB 'width=%d, hei'
	DB	'ght=%d', 0aH, 00H				; `string'
CONST	ENDS
;	COMDAT ??_C@_0BD@DJDMGDBG@top?$DN?$CFd?0?5bottom?$DN?$CFd?6@
CONST	SEGMENT
??_C@_0BD@DJDMGDBG@top?$DN?$CFd?0?5bottom?$DN?$CFd?6@ DB 'top=%d, bottom='
	DB	'%d', 0aH, 00H				; `string'
CONST	ENDS
;	COMDAT ??_C@_0O@FPEFBHNP@SelFolder?$DN?$CFd?6@
CONST	SEGMENT
??_C@_0O@FPEFBHNP@SelFolder?$DN?$CFd?6@ DB 'SelFolder=%d', 0aH, 00H ; `string'
CONST	ENDS
;	COMDAT ??_C@_06MFMMLLPC@?$LB?$LM?$LI?$LC?C?$LM@
CONST	SEGMENT
??_C@_06MFMMLLPC@?$LB?$LM?$LI?$LC?C?$LM@ DB 0b1H, 0bcH, 0b8H, 0b2H, 0c3H, 0bcH
	DB	00H						; `string'
CONST	ENDS
;	COMDAT ?messageMap@?1??GetThisMessageMap@CGfxOutBarCtrl@@KGPBUAFX_MSGMAP@@XZ@4U3@B
CONST	SEGMENT
?messageMap@?1??GetThisMessageMap@CGfxOutBarCtrl@@KGPBUAFX_MSGMAP@@XZ@4U3@B DD FLAT:?GetThisMessageMap@CWnd@@KGPBUAFX_MSGMAP@@XZ ; `CGfxOutBarCtrl::GetThisMessageMap'::`2'::messageMap
	DD	FLAT:?_messageEntries@?1??GetThisMessageMap@CGfxOutBarCtrl@@KGPBUAFX_MSGMAP@@XZ@4QBUAFX_MSGMAP_ENTRY@@B
CONST	ENDS
;	COMDAT ?_messageEntries@?1??GetThisMessageMap@CGfxOutBarCtrl@@KGPBUAFX_MSGMAP@@XZ@4QBUAFX_MSGMAP_ENTRY@@B
CONST	SEGMENT
?_messageEntries@?1??GetThisMessageMap@CGfxOutBarCtrl@@KGPBUAFX_MSGMAP@@XZ@4QBUAFX_MSGMAP_ENTRY@@B DD 01H ; `CGfxOutBarCtrl::GetThisMessageMap'::`2'::_messageEntries
	DD	00H
	DD	00H
	DD	00H
	DD	0dH
	DD	FLAT:?OnCreate@CGfxOutBarCtrl@@IAEHPAUtagCREATESTRUCTA@@@Z
	DD	0113H
	DD	00H
	DD	00H
	DD	00H
	DD	015H
	DD	FLAT:?OnTimer@CGfxOutBarCtrl@@IAEXI@Z
	DD	0fH
	DD	00H
	DD	00H
	DD	00H
	DD	013H
	DD	FLAT:?OnPaint@CGfxOutBarCtrl@@IAEXXZ
	DD	014H
	DD	00H
	DD	00H
	DD	00H
	DD	01H
	DD	FLAT:?OnEraseBkgnd@CGfxOutBarCtrl@@IAEHPAVCDC@@@Z
	DD	0200H
	DD	00H
	DD	00H
	DD	00H
	DD	036H
	DD	FLAT:?OnMouseMove@CGfxOutBarCtrl@@IAEXIVCPoint@@@Z
	DD	0201H
	DD	00H
	DD	00H
	DD	00H
	DD	036H
	DD	FLAT:?OnLButtonDown@CGfxOutBarCtrl@@IAEXIVCPoint@@@Z
	DD	020H
	DD	00H
	DD	00H
	DD	00H
	DD	05H
	DD	FLAT:?OnSetCursor@CGfxOutBarCtrl@@IAEHPAVCWnd@@II@Z
	DD	05H
	DD	00H
	DD	00H
	DD	00H
	DD	01aH
	DD	FLAT:?OnSize@CGfxOutBarCtrl@@IAEXIHH@Z
	DD	0111H
	DD	00H
	DD	0c351H
	DD	0c351H
	DD	03aH
	DD	FLAT:?OnGfxLargeicon@CGfxOutBarCtrl@@IAEXXZ
	DD	0111H
	DD	0ffffffffH
	DD	0c351H
	DD	0c351H
	DD	042H
	DD	FLAT:?OnUpdateGfxLargeicon@CGfxOutBarCtrl@@IAEXPAVCCmdUI@@@Z
	DD	0111H
	DD	00H
	DD	0c350H
	DD	0c350H
	DD	03aH
	DD	FLAT:?OnGfxSmallicon@CGfxOutBarCtrl@@IAEXXZ
	DD	0111H
	DD	0ffffffffH
	DD	0c350H
	DD	0c350H
	DD	042H
	DD	FLAT:?OnUpdateGfxSmallicon@CGfxOutBarCtrl@@IAEXPAVCCmdUI@@@Z
	DD	0111H
	DD	00H
	DD	0c353H
	DD	0c353H
	DD	03aH
	DD	FLAT:?OnGfxRemoveitem@CGfxOutBarCtrl@@IAEXXZ
	DD	0111H
	DD	0ffffffffH
	DD	0c353H
	DD	0c353H
	DD	042H
	DD	FLAT:?OnUpdateGfxRemoveitem@CGfxOutBarCtrl@@IAEXPAVCCmdUI@@@Z
	DD	0111H
	DD	0ffffffffH
	DD	0c352H
	DD	0c352H
	DD	042H
	DD	FLAT:?OnUpdateGfxRenameitem@CGfxOutBarCtrl@@IAEXPAVCCmdUI@@@Z
	DD	02H
	DD	00H
	DD	00H
	DD	00H
	DD	013H
	DD	FLAT:?OnDestroy@CGfxOutBarCtrl@@IAEXXZ
	DD	0204H
	DD	00H
	DD	00H
	DD	00H
	DD	036H
	DD	FLAT:?OnRButtonDown@CWnd@@IAEXIVCPoint@@@Z
	DD	0203H
	DD	00H
	DD	00H
	DD	00H
	DD	036H
	DD	FLAT:?OnLButtonDblClk@CGfxOutBarCtrl@@IAEXIVCPoint@@@Z
	DD	00H
	DD	00H
	DD	00H
	DD	00H
	DD	00H
	DD	00H
CONST	ENDS
;	COMDAT ??_C@_0P@MGLBNAEE@CGfxOutBarCtrl@
CONST	SEGMENT
??_C@_0P@MGLBNAEE@CGfxOutBarCtrl@ DB 'CGfxOutBarCtrl', 00H ; `string'
CONST	ENDS
;	COMDAT ??_7CGfxOutBarCtrl@@6B@
CONST	SEGMENT
??_7CGfxOutBarCtrl@@6B@ DD FLAT:??_R4CGfxOutBarCtrl@@6B@ ; CGfxOutBarCtrl::`vftable'
	DD	FLAT:?GetRuntimeClass@CGfxOutBarCtrl@@UBEPAUCRuntimeClass@@XZ
	DD	FLAT:??_ECGfxOutBarCtrl@@UAEPAXI@Z
	DD	FLAT:?Serialize@CObject@@UAEXAAVCArchive@@@Z
	DD	FLAT:?AssertValid@CObject@@UBEXXZ
	DD	FLAT:?Dump@CObject@@UBEXAAVCDumpContext@@@Z
	DD	FLAT:?OnCmdMsg@CCmdTarget@@UAEHIHPAXPAUAFX_CMDHANDLERINFO@@@Z
	DD	FLAT:?OnFinalRelease@CWnd@@UAEXXZ
	DD	FLAT:?IsInvokeAllowed@CCmdTarget@@UAEHJ@Z
	DD	FLAT:?GetDispatchIID@CCmdTarget@@UAEHPAU_GUID@@@Z
	DD	FLAT:?GetTypeInfoCount@CCmdTarget@@UAEIXZ
	DD	FLAT:?GetTypeLibCache@CCmdTarget@@UAEPAVCTypeLibCache@@XZ
	DD	FLAT:?GetTypeLib@CCmdTarget@@UAEJKPAPAUITypeLib@@@Z
	DD	FLAT:?GetMessageMap@CGfxOutBarCtrl@@MBEPBUAFX_MSGMAP@@XZ
	DD	FLAT:?GetCommandMap@CCmdTarget@@MBEPBUAFX_OLECMDMAP@@XZ
	DD	FLAT:?GetDispatchMap@CCmdTarget@@MBEPBUAFX_DISPMAP@@XZ
	DD	FLAT:?GetConnectionMap@CCmdTarget@@MBEPBUAFX_CONNECTIONMAP@@XZ
	DD	FLAT:?GetInterfaceMap@CWnd@@MBEPBUAFX_INTERFACEMAP@@XZ
	DD	FLAT:?GetEventSinkMap@CCmdTarget@@MBEPBUAFX_EVENTSINKMAP@@XZ
	DD	FLAT:?OnCreateAggregates@CCmdTarget@@UAEHXZ
	DD	FLAT:?GetInterfaceHook@CCmdTarget@@UAEPAUIUnknown@@PBX@Z
	DD	FLAT:?GetExtraConnectionPoints@CCmdTarget@@MAEHPAVCPtrArray@@@Z
	DD	FLAT:?GetConnectionHook@CCmdTarget@@MAEPAUIConnectionPoint@@ABU_GUID@@@Z
	DD	FLAT:?PreSubclassWindow@CWnd@@UAEXXZ
	DD	FLAT:?Create@CWnd@@UAEHPBD0KABUtagRECT@@PAV1@IPAUCCreateContext@@@Z
	DD	FLAT:?CreateEx@CWnd@@UAEHKPBD0KABUtagRECT@@PAV1@IPAX@Z
	DD	FLAT:?CreateEx@CWnd@@UAEHKPBD0KHHHHPAUHWND__@@PAUHMENU__@@PAX@Z
	DD	FLAT:?DestroyWindow@CWnd@@UAEHXZ
	DD	FLAT:?PreCreateWindow@CWnd@@UAEHAAUtagCREATESTRUCTA@@@Z
	DD	FLAT:?CalcWindowRect@CWnd@@UAEXPAUtagRECT@@I@Z
	DD	FLAT:?GetMenu@CWnd@@UBEPAVCMenu@@XZ
	DD	FLAT:?SetMenu@CWnd@@UAEHPAVCMenu@@@Z
	DD	FLAT:?OnToolHitTest@CWnd@@UBEHVCPoint@@PAUtagTOOLINFOA@@@Z
	DD	FLAT:?GetScrollBarCtrl@CWnd@@UBEPAVCScrollBar@@H@Z
	DD	FLAT:?WinHelpA@CWnd@@UAEXKI@Z
	DD	FLAT:?HtmlHelpA@CWnd@@UAEXKI@Z
	DD	FLAT:?WinHelpInternal@CWnd@@UAEXKI@Z
	DD	FLAT:?ContinueModal@CWnd@@UAEHXZ
	DD	FLAT:?EndModalLoop@CWnd@@UAEXH@Z
	DD	FLAT:?OnDrawIconicThumbnailOrLivePreview@CWnd@@UAEXAAVCDC@@VCRect@@VCSize@@HAAH@Z
	DD	FLAT:?EnsureStdObj@CWnd@@UAEJXZ
	DD	FLAT:?get_accParent@CWnd@@UAEJPAPAUIDispatch@@@Z
	DD	FLAT:?get_accChildCount@CWnd@@UAEJPAJ@Z
	DD	FLAT:?get_accChild@CWnd@@UAEJUtagVARIANT@@PAPAUIDispatch@@@Z
	DD	FLAT:?get_accName@CWnd@@UAEJUtagVARIANT@@PAPA_W@Z
	DD	FLAT:?get_accValue@CWnd@@UAEJUtagVARIANT@@PAPA_W@Z
	DD	FLAT:?get_accDescription@CWnd@@UAEJUtagVARIANT@@PAPA_W@Z
	DD	FLAT:?get_accRole@CWnd@@UAEJUtagVARIANT@@PAU2@@Z
	DD	FLAT:?get_accState@CWnd@@UAEJUtagVARIANT@@PAU2@@Z
	DD	FLAT:?get_accHelp@CWnd@@UAEJUtagVARIANT@@PAPA_W@Z
	DD	FLAT:?get_accHelpTopic@CWnd@@UAEJPAPA_WUtagVARIANT@@PAJ@Z
	DD	FLAT:?get_accKeyboardShortcut@CWnd@@UAEJUtagVARIANT@@PAPA_W@Z
	DD	FLAT:?get_accFocus@CWnd@@UAEJPAUtagVARIANT@@@Z
	DD	FLAT:?get_accSelection@CWnd@@UAEJPAUtagVARIANT@@@Z
	DD	FLAT:?get_accDefaultAction@CWnd@@UAEJUtagVARIANT@@PAPA_W@Z
	DD	FLAT:?accSelect@CWnd@@UAEJJUtagVARIANT@@@Z
	DD	FLAT:?accLocation@CWnd@@UAEJPAJ000UtagVARIANT@@@Z
	DD	FLAT:?accNavigate@CWnd@@UAEJJUtagVARIANT@@PAU2@@Z
	DD	FLAT:?accHitTest@CWnd@@UAEJJJPAUtagVARIANT@@@Z
	DD	FLAT:?accDoDefaultAction@CWnd@@UAEJUtagVARIANT@@@Z
	DD	FLAT:?put_accName@CWnd@@UAEJUtagVARIANT@@PA_W@Z
	DD	FLAT:?put_accValue@CWnd@@UAEJUtagVARIANT@@PA_W@Z
	DD	FLAT:?SetProxy@CWnd@@UAEJPAUIAccessibleProxy@@@Z
	DD	FLAT:?CreateAccessibleProxy@CWnd@@UAEJIJPAJ@Z
	DD	FLAT:?OnCommand@CWnd@@MAEHIJ@Z
	DD	FLAT:?OnNotify@CWnd@@MAEHIJPAJ@Z
	DD	FLAT:?GetSuperWndProcAddr@CWnd@@MAEPAP6GJPAUHWND__@@IIJ@ZXZ
	DD	FLAT:?DoDataExchange@CWnd@@MAEXPAVCDataExchange@@@Z
	DD	FLAT:?BeginModalState@CWnd@@UAEXXZ
	DD	FLAT:?EndModalState@CWnd@@UAEXXZ
	DD	FLAT:?PreTranslateMessage@CWnd@@UAEHPAUtagMSG@@@Z
	DD	FLAT:?OnAmbientProperty@CWnd@@UAEHPAVCOleControlSite@@JPAUtagVARIANT@@@Z
	DD	FLAT:?WindowProc@CWnd@@MAEJIIJ@Z
	DD	FLAT:?OnWndMsg@CWnd@@MAEHIIJPAJ@Z
	DD	FLAT:?DefWindowProcA@CWnd@@MAEJIIJ@Z
	DD	FLAT:?PostNcDestroy@CWnd@@MAEXXZ
	DD	FLAT:?OnChildNotify@CWnd@@MAEHIIJPAJ@Z
	DD	FLAT:?OnTouchInputs@CWnd@@MAEHIPAUtagTOUCHINPUT@@@Z
	DD	FLAT:?OnTouchInput@CWnd@@MAEHVCPoint@@HHPAUtagTOUCHINPUT@@@Z
	DD	FLAT:?GetGestureStatus@CWnd@@MAEKVCPoint@@@Z
	DD	FLAT:?OnGestureZoom@CWnd@@MAEHVCPoint@@J@Z
	DD	FLAT:?OnGesturePan@CWnd@@MAEHVCPoint@@0@Z
	DD	FLAT:?OnGestureRotate@CWnd@@MAEHVCPoint@@N@Z
	DD	FLAT:?OnGestureTwoFingerTap@CWnd@@MAEHVCPoint@@@Z
	DD	FLAT:?OnGesturePressAndTap@CWnd@@MAEHVCPoint@@J@Z
	DD	FLAT:?ResizeDynamicLayout@CWnd@@MAEXXZ
	DD	FLAT:?CheckAutoCenter@CWnd@@UAEHXZ
	DD	FLAT:?IsFrameWnd@CWnd@@UBEHXZ
	DD	FLAT:?CreateControlContainer@CWnd@@MAEHPAPAVCOleControlContainer@@@Z
	DD	FLAT:?CreateControlSite@CWnd@@MAEHPAVCOleControlContainer@@PAPAVCOleControlSite@@IABU_GUID@@@Z
	DD	FLAT:?SetOccDialogInfo@CWnd@@MAEHPAU_AFX_OCC_DIALOG_INFO@@@Z
	DD	FLAT:?GetOccDialogInfo@CWnd@@MAEPAU_AFX_OCC_DIALOG_INFO@@XZ
CONST	ENDS
;	COMDAT ??_7CBarFolder@CGfxOutBarCtrl@@6B@
CONST	SEGMENT
??_7CBarFolder@CGfxOutBarCtrl@@6B@ DD FLAT:??_R4CBarFolder@CGfxOutBarCtrl@@6B@ ; CGfxOutBarCtrl::CBarFolder::`vftable'
	DD	FLAT:??_ECBarFolder@CGfxOutBarCtrl@@UAEPAXI@Z
CONST	ENDS
;	COMDAT ??_7CBarItem@CGfxOutBarCtrl@@6B@
CONST	SEGMENT
??_7CBarItem@CGfxOutBarCtrl@@6B@ DD FLAT:??_R4CBarItem@CGfxOutBarCtrl@@6B@ ; CGfxOutBarCtrl::CBarItem::`vftable'
	DD	FLAT:??_ECBarItem@CGfxOutBarCtrl@@UAEPAXI@Z
CONST	ENDS
;	COMDAT ?classCGfxOutBarCtrl@CGfxOutBarCtrl@@2UCRuntimeClass@@B
CONST	SEGMENT
?classCGfxOutBarCtrl@CGfxOutBarCtrl@@2UCRuntimeClass@@B DD FLAT:??_C@_0P@MGLBNAEE@CGfxOutBarCtrl@ ; CGfxOutBarCtrl::classCGfxOutBarCtrl
	DD	0170H
	DD	0ffffH
	DD	FLAT:?CreateObject@CGfxOutBarCtrl@@SGPAVCObject@@XZ
	DD	FLAT:?_GetBaseClass@CGfxOutBarCtrl@@KGPAUCRuntimeClass@@XZ
	DD	00H
	DD	00H
CONST	ENDS
;	COMDAT ??_R2CCmdTarget@@8
rdata$r	SEGMENT
??_R2CCmdTarget@@8 DD FLAT:??_R1A@?0A@EA@CCmdTarget@@8	; CCmdTarget::`RTTI Base Class Array'
	DD	FLAT:??_R1A@?0A@EA@CObject@@8
rdata$r	ENDS
;	COMDAT ??_R3CCmdTarget@@8
rdata$r	SEGMENT
??_R3CCmdTarget@@8 DD 00H				; CCmdTarget::`RTTI Class Hierarchy Descriptor'
	DD	00H
	DD	02H
	DD	FLAT:??_R2CCmdTarget@@8
rdata$r	ENDS
;	COMDAT ??_R0?AVCCmdTarget@@@8
data$rs	SEGMENT
??_R0?AVCCmdTarget@@@8 DD FLAT:??_7type_info@@6B@	; CCmdTarget `RTTI Type Descriptor'
	DD	00H
	DB	'.?AVCCmdTarget@@', 00H
data$rs	ENDS
;	COMDAT ??_R1A@?0A@EA@CCmdTarget@@8
rdata$r	SEGMENT
??_R1A@?0A@EA@CCmdTarget@@8 DD FLAT:??_R0?AVCCmdTarget@@@8 ; CCmdTarget::`RTTI Base Class Descriptor at (0,-1,0,64)'
	DD	01H
	DD	00H
	DD	0ffffffffH
	DD	00H
	DD	040H
	DD	FLAT:??_R3CCmdTarget@@8
rdata$r	ENDS
;	COMDAT ??_R2CWnd@@8
rdata$r	SEGMENT
??_R2CWnd@@8 DD	FLAT:??_R1A@?0A@EA@CWnd@@8		; CWnd::`RTTI Base Class Array'
	DD	FLAT:??_R1A@?0A@EA@CCmdTarget@@8
	DD	FLAT:??_R1A@?0A@EA@CObject@@8
rdata$r	ENDS
;	COMDAT ??_R3CWnd@@8
rdata$r	SEGMENT
??_R3CWnd@@8 DD	00H					; CWnd::`RTTI Class Hierarchy Descriptor'
	DD	00H
	DD	03H
	DD	FLAT:??_R2CWnd@@8
rdata$r	ENDS
;	COMDAT ??_R0?AVCWnd@@@8
data$rs	SEGMENT
??_R0?AVCWnd@@@8 DD FLAT:??_7type_info@@6B@		; CWnd `RTTI Type Descriptor'
	DD	00H
	DB	'.?AVCWnd@@', 00H
data$rs	ENDS
;	COMDAT ??_R1A@?0A@EA@CWnd@@8
rdata$r	SEGMENT
??_R1A@?0A@EA@CWnd@@8 DD FLAT:??_R0?AVCWnd@@@8		; CWnd::`RTTI Base Class Descriptor at (0,-1,0,64)'
	DD	02H
	DD	00H
	DD	0ffffffffH
	DD	00H
	DD	040H
	DD	FLAT:??_R3CWnd@@8
rdata$r	ENDS
;	COMDAT ??_R1A@?0A@EA@CRgn@@8
rdata$r	SEGMENT
??_R1A@?0A@EA@CRgn@@8 DD FLAT:??_R0?AVCRgn@@@8		; CRgn::`RTTI Base Class Descriptor at (0,-1,0,64)'
	DD	02H
	DD	00H
	DD	0ffffffffH
	DD	00H
	DD	040H
	DD	FLAT:??_R3CRgn@@8
rdata$r	ENDS
;	COMDAT ??_R2CRgn@@8
rdata$r	SEGMENT
??_R2CRgn@@8 DD	FLAT:??_R1A@?0A@EA@CRgn@@8		; CRgn::`RTTI Base Class Array'
	DD	FLAT:??_R1A@?0A@EA@CGdiObject@@8
	DD	FLAT:??_R1A@?0A@EA@CObject@@8
rdata$r	ENDS
;	COMDAT ??_R3CRgn@@8
rdata$r	SEGMENT
??_R3CRgn@@8 DD	00H					; CRgn::`RTTI Class Hierarchy Descriptor'
	DD	00H
	DD	03H
	DD	FLAT:??_R2CRgn@@8
rdata$r	ENDS
;	COMDAT ??_R0?AVCRgn@@@8
data$rs	SEGMENT
??_R0?AVCRgn@@@8 DD FLAT:??_7type_info@@6B@		; CRgn `RTTI Type Descriptor'
	DD	00H
	DB	'.?AVCRgn@@', 00H
data$rs	ENDS
;	COMDAT ??_R4CRgn@@6B@
rdata$r	SEGMENT
??_R4CRgn@@6B@ DD 00H					; CRgn::`RTTI Complete Object Locator'
	DD	00H
	DD	00H
	DD	FLAT:??_R0?AVCRgn@@@8
	DD	FLAT:??_R3CRgn@@8
rdata$r	ENDS
;	COMDAT ??_R1A@?0A@EA@CBitmap@@8
rdata$r	SEGMENT
??_R1A@?0A@EA@CBitmap@@8 DD FLAT:??_R0?AVCBitmap@@@8	; CBitmap::`RTTI Base Class Descriptor at (0,-1,0,64)'
	DD	02H
	DD	00H
	DD	0ffffffffH
	DD	00H
	DD	040H
	DD	FLAT:??_R3CBitmap@@8
rdata$r	ENDS
;	COMDAT ??_R2CBitmap@@8
rdata$r	SEGMENT
??_R2CBitmap@@8 DD FLAT:??_R1A@?0A@EA@CBitmap@@8	; CBitmap::`RTTI Base Class Array'
	DD	FLAT:??_R1A@?0A@EA@CGdiObject@@8
	DD	FLAT:??_R1A@?0A@EA@CObject@@8
rdata$r	ENDS
;	COMDAT ??_R3CBitmap@@8
rdata$r	SEGMENT
??_R3CBitmap@@8 DD 00H					; CBitmap::`RTTI Class Hierarchy Descriptor'
	DD	00H
	DD	03H
	DD	FLAT:??_R2CBitmap@@8
rdata$r	ENDS
;	COMDAT ??_R0?AVCBitmap@@@8
data$rs	SEGMENT
??_R0?AVCBitmap@@@8 DD FLAT:??_7type_info@@6B@		; CBitmap `RTTI Type Descriptor'
	DD	00H
	DB	'.?AVCBitmap@@', 00H
data$rs	ENDS
;	COMDAT ??_R4CBitmap@@6B@
rdata$r	SEGMENT
??_R4CBitmap@@6B@ DD 00H				; CBitmap::`RTTI Complete Object Locator'
	DD	00H
	DD	00H
	DD	FLAT:??_R0?AVCBitmap@@@8
	DD	FLAT:??_R3CBitmap@@8
rdata$r	ENDS
;	COMDAT ??_R1A@?0A@EA@CFont@@8
rdata$r	SEGMENT
??_R1A@?0A@EA@CFont@@8 DD FLAT:??_R0?AVCFont@@@8	; CFont::`RTTI Base Class Descriptor at (0,-1,0,64)'
	DD	02H
	DD	00H
	DD	0ffffffffH
	DD	00H
	DD	040H
	DD	FLAT:??_R3CFont@@8
rdata$r	ENDS
;	COMDAT ??_R2CFont@@8
rdata$r	SEGMENT
??_R2CFont@@8 DD FLAT:??_R1A@?0A@EA@CFont@@8		; CFont::`RTTI Base Class Array'
	DD	FLAT:??_R1A@?0A@EA@CGdiObject@@8
	DD	FLAT:??_R1A@?0A@EA@CObject@@8
rdata$r	ENDS
;	COMDAT ??_R3CFont@@8
rdata$r	SEGMENT
??_R3CFont@@8 DD 00H					; CFont::`RTTI Class Hierarchy Descriptor'
	DD	00H
	DD	03H
	DD	FLAT:??_R2CFont@@8
rdata$r	ENDS
;	COMDAT ??_R0?AVCFont@@@8
data$rs	SEGMENT
??_R0?AVCFont@@@8 DD FLAT:??_7type_info@@6B@		; CFont `RTTI Type Descriptor'
	DD	00H
	DB	'.?AVCFont@@', 00H
data$rs	ENDS
;	COMDAT ??_R4CFont@@6B@
rdata$r	SEGMENT
??_R4CFont@@6B@ DD 00H					; CFont::`RTTI Complete Object Locator'
	DD	00H
	DD	00H
	DD	FLAT:??_R0?AVCFont@@@8
	DD	FLAT:??_R3CFont@@8
rdata$r	ENDS
;	COMDAT ??_R1A@?0A@EA@CPen@@8
rdata$r	SEGMENT
??_R1A@?0A@EA@CPen@@8 DD FLAT:??_R0?AVCPen@@@8		; CPen::`RTTI Base Class Descriptor at (0,-1,0,64)'
	DD	02H
	DD	00H
	DD	0ffffffffH
	DD	00H
	DD	040H
	DD	FLAT:??_R3CPen@@8
rdata$r	ENDS
;	COMDAT ??_R2CPen@@8
rdata$r	SEGMENT
??_R2CPen@@8 DD	FLAT:??_R1A@?0A@EA@CPen@@8		; CPen::`RTTI Base Class Array'
	DD	FLAT:??_R1A@?0A@EA@CGdiObject@@8
	DD	FLAT:??_R1A@?0A@EA@CObject@@8
rdata$r	ENDS
;	COMDAT ??_R3CPen@@8
rdata$r	SEGMENT
??_R3CPen@@8 DD	00H					; CPen::`RTTI Class Hierarchy Descriptor'
	DD	00H
	DD	03H
	DD	FLAT:??_R2CPen@@8
rdata$r	ENDS
;	COMDAT ??_R0?AVCPen@@@8
data$rs	SEGMENT
??_R0?AVCPen@@@8 DD FLAT:??_7type_info@@6B@		; CPen `RTTI Type Descriptor'
	DD	00H
	DB	'.?AVCPen@@', 00H
data$rs	ENDS
;	COMDAT ??_R4CPen@@6B@
rdata$r	SEGMENT
??_R4CPen@@6B@ DD 00H					; CPen::`RTTI Complete Object Locator'
	DD	00H
	DD	00H
	DD	FLAT:??_R0?AVCPen@@@8
	DD	FLAT:??_R3CPen@@8
rdata$r	ENDS
;	COMDAT ??_R1A@?0A@EA@CGdiObject@@8
rdata$r	SEGMENT
??_R1A@?0A@EA@CGdiObject@@8 DD FLAT:??_R0?AVCGdiObject@@@8 ; CGdiObject::`RTTI Base Class Descriptor at (0,-1,0,64)'
	DD	01H
	DD	00H
	DD	0ffffffffH
	DD	00H
	DD	040H
	DD	FLAT:??_R3CGdiObject@@8
rdata$r	ENDS
;	COMDAT ??_R2CGdiObject@@8
rdata$r	SEGMENT
??_R2CGdiObject@@8 DD FLAT:??_R1A@?0A@EA@CGdiObject@@8	; CGdiObject::`RTTI Base Class Array'
	DD	FLAT:??_R1A@?0A@EA@CObject@@8
rdata$r	ENDS
;	COMDAT ??_R3CGdiObject@@8
rdata$r	SEGMENT
??_R3CGdiObject@@8 DD 00H				; CGdiObject::`RTTI Class Hierarchy Descriptor'
	DD	00H
	DD	02H
	DD	FLAT:??_R2CGdiObject@@8
rdata$r	ENDS
;	COMDAT ??_R0?AVCGdiObject@@@8
data$rs	SEGMENT
??_R0?AVCGdiObject@@@8 DD FLAT:??_7type_info@@6B@	; CGdiObject `RTTI Type Descriptor'
	DD	00H
	DB	'.?AVCGdiObject@@', 00H
data$rs	ENDS
;	COMDAT ??_R4CGdiObject@@6B@
rdata$r	SEGMENT
??_R4CGdiObject@@6B@ DD 00H				; CGdiObject::`RTTI Complete Object Locator'
	DD	00H
	DD	00H
	DD	FLAT:??_R0?AVCGdiObject@@@8
	DD	FLAT:??_R3CGdiObject@@8
rdata$r	ENDS
;	COMDAT ??_R1A@?0A@EA@CObject@@8
rdata$r	SEGMENT
??_R1A@?0A@EA@CObject@@8 DD FLAT:??_R0?AVCObject@@@8	; CObject::`RTTI Base Class Descriptor at (0,-1,0,64)'
	DD	00H
	DD	00H
	DD	0ffffffffH
	DD	00H
	DD	040H
	DD	FLAT:??_R3CObject@@8
rdata$r	ENDS
;	COMDAT ??_R2CObject@@8
rdata$r	SEGMENT
??_R2CObject@@8 DD FLAT:??_R1A@?0A@EA@CObject@@8	; CObject::`RTTI Base Class Array'
rdata$r	ENDS
;	COMDAT ??_R3CObject@@8
rdata$r	SEGMENT
??_R3CObject@@8 DD 00H					; CObject::`RTTI Class Hierarchy Descriptor'
	DD	00H
	DD	01H
	DD	FLAT:??_R2CObject@@8
rdata$r	ENDS
;	COMDAT ??_R0?AVCObject@@@8
data$rs	SEGMENT
??_R0?AVCObject@@@8 DD FLAT:??_7type_info@@6B@		; CObject `RTTI Type Descriptor'
	DD	00H
	DB	'.?AVCObject@@', 00H
data$rs	ENDS
;	COMDAT ??_C@_02DKCKIIND@?$CFs@
CONST	SEGMENT
??_C@_02DKCKIIND@?$CFs@ DB '%s', 00H			; `string'
CONST	ENDS
;	COMDAT ??_C@_0N@OMEMOKLE@?$CFTs?5?$CI?$CFTs?3?$CFd?$CJ@
CONST	SEGMENT
??_C@_0N@OMEMOKLE@?$CFTs?5?$CI?$CFTs?3?$CFd?$CJ@ DB '%Ts (%Ts:%d)', 00H ; `string'
CONST	ENDS
;	COMDAT ??_C@_0BB@HBOOMJBF@?$CFTs?5?$CI?$CFTs?3?$CFd?$CJ?6?$CFTs@
CONST	SEGMENT
??_C@_0BB@HBOOMJBF@?$CFTs?5?$CI?$CFTs?3?$CFd?$CJ?6?$CFTs@ DB '%Ts (%Ts:%d'
	DB	')', 0aH, '%Ts', 00H				; `string'
CONST	ENDS
;	COMDAT ??_C@_0BP@OIEOKIDM@Exception?5thrown?5in?5destructor@
CONST	SEGMENT
??_C@_0BP@OIEOKIDM@Exception?5thrown?5in?5destructor@ DB 'Exception throw'
	DB	'n in destructor', 00H			; `string'
CONST	ENDS
;	COMDAT ??_C@_0HD@JJCHHHNK@C?3?2Program?5Files?5?$CIx86?$CJ?2Microsof@
CONST	SEGMENT
??_C@_0HD@JJCHHHNK@C?3?2Program?5Files?5?$CIx86?$CJ?2Microsof@ DB 'C:\Pro'
	DB	'gram Files (x86)\Microsoft Visual Studio\2019\Community\VC\To'
	DB	'ols\MSVC\14.29.30133\atlmfc\include\afxwin1.inl', 00H ; `string'
CONST	ENDS
;	COMDAT ??_7CRgn@@6B@
CONST	SEGMENT
??_7CRgn@@6B@ DD FLAT:??_R4CRgn@@6B@			; CRgn::`vftable'
	DD	FLAT:?GetRuntimeClass@CRgn@@UBEPAUCRuntimeClass@@XZ
	DD	FLAT:??_ECRgn@@UAEPAXI@Z
	DD	FLAT:?Serialize@CObject@@UAEXAAVCArchive@@@Z
	DD	FLAT:?AssertValid@CObject@@UBEXXZ
	DD	FLAT:?Dump@CObject@@UBEXAAVCDumpContext@@@Z
CONST	ENDS
;	COMDAT ??_7CBitmap@@6B@
CONST	SEGMENT
??_7CBitmap@@6B@ DD FLAT:??_R4CBitmap@@6B@		; CBitmap::`vftable'
	DD	FLAT:?GetRuntimeClass@CBitmap@@UBEPAUCRuntimeClass@@XZ
	DD	FLAT:??_ECBitmap@@UAEPAXI@Z
	DD	FLAT:?Serialize@CObject@@UAEXAAVCArchive@@@Z
	DD	FLAT:?AssertValid@CObject@@UBEXXZ
	DD	FLAT:?Dump@CObject@@UBEXAAVCDumpContext@@@Z
CONST	ENDS
;	COMDAT ??_7CFont@@6B@
CONST	SEGMENT
??_7CFont@@6B@ DD FLAT:??_R4CFont@@6B@			; CFont::`vftable'
	DD	FLAT:?GetRuntimeClass@CFont@@UBEPAUCRuntimeClass@@XZ
	DD	FLAT:??_ECFont@@UAEPAXI@Z
	DD	FLAT:?Serialize@CObject@@UAEXAAVCArchive@@@Z
	DD	FLAT:?AssertValid@CObject@@UBEXXZ
	DD	FLAT:?Dump@CObject@@UBEXAAVCDumpContext@@@Z
CONST	ENDS
;	COMDAT ??_7CPen@@6B@
CONST	SEGMENT
??_7CPen@@6B@ DD FLAT:??_R4CPen@@6B@			; CPen::`vftable'
	DD	FLAT:?GetRuntimeClass@CPen@@UBEPAUCRuntimeClass@@XZ
	DD	FLAT:??_ECPen@@UAEPAXI@Z
	DD	FLAT:?Serialize@CObject@@UAEXAAVCArchive@@@Z
	DD	FLAT:?AssertValid@CObject@@UBEXXZ
	DD	FLAT:?Dump@CObject@@UBEXAAVCDumpContext@@@Z
CONST	ENDS
;	COMDAT ??_7CGdiObject@@6B@
CONST	SEGMENT
??_7CGdiObject@@6B@ DD FLAT:??_R4CGdiObject@@6B@	; CGdiObject::`vftable'
	DD	FLAT:?GetRuntimeClass@CGdiObject@@UBEPAUCRuntimeClass@@XZ
	DD	FLAT:??_ECGdiObject@@UAEPAXI@Z
	DD	FLAT:?Serialize@CObject@@UAEXAAVCArchive@@@Z
	DD	FLAT:?AssertValid@CObject@@UBEXXZ
	DD	FLAT:?Dump@CObject@@UBEXAAVCDumpContext@@@Z
CONST	ENDS
;	COMDAT ??_R0PAVCException@@@8
data$r	SEGMENT
??_R0PAVCException@@@8 DD FLAT:??_7type_info@@6B@	; CException * `RTTI Type Descriptor'
	DD	00H
	DB	'.PAVCException@@', 00H
data$r	ENDS
;	COMDAT xdata$x
xdata$x	SEGMENT
__unwindtable$?OnLButtonDblClk@CGfxOutBarCtrl@@IAEXIVCPoint@@@Z DD 0ffffffffH
	DD	FLAT:__unwindfunclet$?OnLButtonDblClk@CGfxOutBarCtrl@@IAEXIVCPoint@@@Z$6
	DD	0ffffffffH
	DD	FLAT:__unwindfunclet$?OnLButtonDblClk@CGfxOutBarCtrl@@IAEXIVCPoint@@@Z$7
	DD	0ffffffffH
	DD	FLAT:__unwindfunclet$?OnLButtonDblClk@CGfxOutBarCtrl@@IAEXIVCPoint@@@Z$8
	DD	0ffffffffH
	DD	FLAT:__unwindfunclet$?OnLButtonDblClk@CGfxOutBarCtrl@@IAEXIVCPoint@@@Z$9
__ehfuncinfo$?OnLButtonDblClk@CGfxOutBarCtrl@@IAEXIVCPoint@@@Z DD 019930522H
	DD	04H
	DD	FLAT:__unwindtable$?OnLButtonDblClk@CGfxOutBarCtrl@@IAEXIVCPoint@@@Z
	DD	2 DUP(00H)
	DD	2 DUP(00H)
	DD	00H
	DD	01H
xdata$x	ENDS
;	COMDAT xdata$x
xdata$x	SEGMENT
__unwindtable$?OnSize@CGfxOutBarCtrl@@IAEXIHH@Z DD 0ffffffffH
	DD	FLAT:__unwindfunclet$?OnSize@CGfxOutBarCtrl@@IAEXIHH@Z$0
__ehfuncinfo$?OnSize@CGfxOutBarCtrl@@IAEXIHH@Z DD 019930522H
	DD	01H
	DD	FLAT:__unwindtable$?OnSize@CGfxOutBarCtrl@@IAEXIHH@Z
	DD	2 DUP(00H)
	DD	2 DUP(00H)
	DD	00H
	DD	01H
xdata$x	ENDS
;	COMDAT xdata$x
xdata$x	SEGMENT
__unwindtable$?OnLButtonDown@CGfxOutBarCtrl@@IAEXIVCPoint@@@Z DD 0ffffffffH
	DD	FLAT:__unwindfunclet$?OnLButtonDown@CGfxOutBarCtrl@@IAEXIVCPoint@@@Z$6
	DD	0ffffffffH
	DD	FLAT:__unwindfunclet$?OnLButtonDown@CGfxOutBarCtrl@@IAEXIVCPoint@@@Z$7
	DD	0ffffffffH
	DD	FLAT:__unwindfunclet$?OnLButtonDown@CGfxOutBarCtrl@@IAEXIVCPoint@@@Z$8
	DD	0ffffffffH
	DD	FLAT:__unwindfunclet$?OnLButtonDown@CGfxOutBarCtrl@@IAEXIVCPoint@@@Z$9
__ehfuncinfo$?OnLButtonDown@CGfxOutBarCtrl@@IAEXIVCPoint@@@Z DD 019930522H
	DD	04H
	DD	FLAT:__unwindtable$?OnLButtonDown@CGfxOutBarCtrl@@IAEXIVCPoint@@@Z
	DD	2 DUP(00H)
	DD	2 DUP(00H)
	DD	00H
	DD	01H
xdata$x	ENDS
;	COMDAT xdata$x
xdata$x	SEGMENT
__unwindtable$?OnPaint@CGfxOutBarCtrl@@IAEXXZ DD 0ffffffffH
	DD	FLAT:__unwindfunclet$?OnPaint@CGfxOutBarCtrl@@IAEXXZ$0
	DD	00H
	DD	FLAT:__unwindfunclet$?OnPaint@CGfxOutBarCtrl@@IAEXXZ$1
	DD	01H
	DD	FLAT:__unwindfunclet$?OnPaint@CGfxOutBarCtrl@@IAEXXZ$2
__ehfuncinfo$?OnPaint@CGfxOutBarCtrl@@IAEXXZ DD 019930522H
	DD	03H
	DD	FLAT:__unwindtable$?OnPaint@CGfxOutBarCtrl@@IAEXXZ
	DD	2 DUP(00H)
	DD	2 DUP(00H)
	DD	00H
	DD	01H
xdata$x	ENDS
;	COMDAT xdata$x
xdata$x	SEGMENT
__ehfuncinfo$?DrawFolder@CGfxOutBarCtrl@@IAEXPAVCDC@@HVCRect@@_N@Z DD 019930522H
	DD	08H
	DD	FLAT:__unwindtable$?DrawFolder@CGfxOutBarCtrl@@IAEXPAVCDC@@HVCRect@@_N@Z
	DD	2 DUP(00H)
	DD	2 DUP(00H)
	DD	00H
	DD	01H
__unwindtable$?DrawFolder@CGfxOutBarCtrl@@IAEXPAVCDC@@HVCRect@@_N@Z DD 0ffffffffH
	DD	FLAT:__unwindfunclet$?DrawFolder@CGfxOutBarCtrl@@IAEXPAVCDC@@HVCRect@@_N@Z$0
	DD	00H
	DD	FLAT:__unwindfunclet$?DrawFolder@CGfxOutBarCtrl@@IAEXPAVCDC@@HVCRect@@_N@Z$1
	DD	0ffffffffH
	DD	FLAT:__unwindfunclet$?DrawFolder@CGfxOutBarCtrl@@IAEXPAVCDC@@HVCRect@@_N@Z$2
	DD	0ffffffffH
	DD	FLAT:__unwindfunclet$?DrawFolder@CGfxOutBarCtrl@@IAEXPAVCDC@@HVCRect@@_N@Z$3
	DD	03H
	DD	FLAT:__unwindfunclet$?DrawFolder@CGfxOutBarCtrl@@IAEXPAVCDC@@HVCRect@@_N@Z$4
	DD	04H
	DD	FLAT:__unwindfunclet$?DrawFolder@CGfxOutBarCtrl@@IAEXPAVCDC@@HVCRect@@_N@Z$5
	DD	0ffffffffH
	DD	FLAT:__unwindfunclet$?DrawFolder@CGfxOutBarCtrl@@IAEXPAVCDC@@HVCRect@@_N@Z$6
	DD	06H
	DD	FLAT:__unwindfunclet$?DrawFolder@CGfxOutBarCtrl@@IAEXPAVCDC@@HVCRect@@_N@Z$7
xdata$x	ENDS
;	COMDAT xdata$x
xdata$x	SEGMENT
__unwindtable$?AddFolder@CGfxOutBarCtrl@@QAEHPBDK@Z DD 0ffffffffH
	DD	FLAT:__unwindfunclet$?AddFolder@CGfxOutBarCtrl@@QAEHPBDK@Z$0
	DD	00H
	DD	FLAT:__unwindfunclet$?AddFolder@CGfxOutBarCtrl@@QAEHPBDK@Z$1
__ehfuncinfo$?AddFolder@CGfxOutBarCtrl@@QAEHPBDK@Z DD 019930522H
	DD	02H
	DD	FLAT:__unwindtable$?AddFolder@CGfxOutBarCtrl@@QAEHPBDK@Z
	DD	2 DUP(00H)
	DD	2 DUP(00H)
	DD	00H
	DD	01H
xdata$x	ENDS
;	COMDAT xdata$x
xdata$x	SEGMENT
__ehfuncinfo$?HighlightFolder@CGfxOutBarCtrl@@QAEXH@Z DD 019930522H
	DD	05H
	DD	FLAT:__unwindtable$?HighlightFolder@CGfxOutBarCtrl@@QAEXH@Z
	DD	2 DUP(00H)
	DD	2 DUP(00H)
	DD	00H
	DD	01H
__unwindtable$?HighlightFolder@CGfxOutBarCtrl@@QAEXH@Z DD 0ffffffffH
	DD	FLAT:__unwindfunclet$?HighlightFolder@CGfxOutBarCtrl@@QAEXH@Z$0
	DD	00H
	DD	FLAT:__unwindfunclet$?HighlightFolder@CGfxOutBarCtrl@@QAEXH@Z$1
	DD	00H
	DD	FLAT:__unwindfunclet$?HighlightFolder@CGfxOutBarCtrl@@QAEXH@Z$2
	DD	0ffffffffH
	DD	FLAT:__unwindfunclet$?HighlightFolder@CGfxOutBarCtrl@@QAEXH@Z$3
	DD	03H
	DD	FLAT:__unwindfunclet$?HighlightFolder@CGfxOutBarCtrl@@QAEXH@Z$4
xdata$x	ENDS
;	COMDAT xdata$x
xdata$x	SEGMENT
__unwindtable$?InsertItem@CGfxOutBarCtrl@@QAEHHHPBDHK@Z DD 0ffffffffH
	DD	FLAT:__unwindfunclet$?InsertItem@CGfxOutBarCtrl@@QAEHHHPBDHK@Z$0
__ehfuncinfo$?InsertItem@CGfxOutBarCtrl@@QAEHHHPBDHK@Z DD 019930522H
	DD	01H
	DD	FLAT:__unwindtable$?InsertItem@CGfxOutBarCtrl@@QAEHHHPBDHK@Z
	DD	2 DUP(00H)
	DD	2 DUP(00H)
	DD	00H
	DD	01H
xdata$x	ENDS
;	COMDAT xdata$x
xdata$x	SEGMENT
__unwindtable$?SetSelFolder@CGfxOutBarCtrl@@QAEHPBD@Z DD 0ffffffffH
	DD	FLAT:__unwindfunclet$?SetSelFolder@CGfxOutBarCtrl@@QAEHPBD@Z$0
	DD	00H
	DD	FLAT:__unwindfunclet$?SetSelFolder@CGfxOutBarCtrl@@QAEHPBD@Z$2
__ehfuncinfo$?SetSelFolder@CGfxOutBarCtrl@@QAEHPBD@Z DD 019930522H
	DD	02H
	DD	FLAT:__unwindtable$?SetSelFolder@CGfxOutBarCtrl@@QAEHPBD@Z
	DD	2 DUP(00H)
	DD	2 DUP(00H)
	DD	00H
	DD	01H
xdata$x	ENDS
;	COMDAT xdata$x
xdata$x	SEGMENT
__unwindtable$?PaintItems@CGfxOutBarCtrl@@QAEXPAVCDC@@HVCRect@@@Z DD 0ffffffffH
	DD	FLAT:__unwindfunclet$?PaintItems@CGfxOutBarCtrl@@QAEXPAVCDC@@HVCRect@@@Z$0
__ehfuncinfo$?PaintItems@CGfxOutBarCtrl@@QAEXPAVCDC@@HVCRect@@@Z DD 019930522H
	DD	01H
	DD	FLAT:__unwindtable$?PaintItems@CGfxOutBarCtrl@@QAEXPAVCDC@@HVCRect@@@Z
	DD	2 DUP(00H)
	DD	2 DUP(00H)
	DD	00H
	DD	01H
xdata$x	ENDS
;	COMDAT xdata$x
xdata$x	SEGMENT
__unwindtable$?GetItemSize@CGfxOutBarCtrl@@QAE?AVCSize@@HHH@Z DD 0ffffffffH
	DD	FLAT:__unwindfunclet$?GetItemSize@CGfxOutBarCtrl@@QAE?AVCSize@@HHH@Z$0
__ehfuncinfo$?GetItemSize@CGfxOutBarCtrl@@QAE?AVCSize@@HHH@Z DD 019930522H
	DD	01H
	DD	FLAT:__unwindtable$?GetItemSize@CGfxOutBarCtrl@@QAE?AVCSize@@HHH@Z
	DD	2 DUP(00H)
	DD	2 DUP(00H)
	DD	00H
	DD	01H
xdata$x	ENDS
;	COMDAT xdata$x
xdata$x	SEGMENT
__unwindtable$?DrawItem@CGfxOutBarCtrl@@QAEXPAVCDC@@HVCRect@@H_N@Z DD 0ffffffffH
	DD	FLAT:__unwindfunclet$?DrawItem@CGfxOutBarCtrl@@QAEXPAVCDC@@HVCRect@@H_N@Z$0
__ehfuncinfo$?DrawItem@CGfxOutBarCtrl@@QAEXPAVCDC@@HVCRect@@H_N@Z DD 019930522H
	DD	01H
	DD	FLAT:__unwindtable$?DrawItem@CGfxOutBarCtrl@@QAEXPAVCDC@@HVCRect@@H_N@Z
	DD	2 DUP(00H)
	DD	2 DUP(00H)
	DD	00H
	DD	01H
xdata$x	ENDS
;	COMDAT xdata$x
xdata$x	SEGMENT
__unwindtable$?HighlightItem@CGfxOutBarCtrl@@QAEXH_N@Z DD 0ffffffffH
	DD	FLAT:__unwindfunclet$?HighlightItem@CGfxOutBarCtrl@@QAEXH_N@Z$0
	DD	00H
	DD	FLAT:__unwindfunclet$?HighlightItem@CGfxOutBarCtrl@@QAEXH_N@Z$1
__ehfuncinfo$?HighlightItem@CGfxOutBarCtrl@@QAEXH_N@Z DD 019930522H
	DD	02H
	DD	FLAT:__unwindtable$?HighlightItem@CGfxOutBarCtrl@@QAEXH_N@Z
	DD	2 DUP(00H)
	DD	2 DUP(00H)
	DD	00H
	DD	01H
xdata$x	ENDS
;	COMDAT xdata$x
xdata$x	SEGMENT
__unwindtable$?AnimateFolderScroll@CGfxOutBarCtrl@@QAEXHH@Z DD 0ffffffffH
	DD	FLAT:__unwindfunclet$?AnimateFolderScroll@CGfxOutBarCtrl@@QAEXHH@Z$0
	DD	00H
	DD	FLAT:__unwindfunclet$?AnimateFolderScroll@CGfxOutBarCtrl@@QAEXHH@Z$1
	DD	01H
	DD	FLAT:__unwindfunclet$?AnimateFolderScroll@CGfxOutBarCtrl@@QAEXHH@Z$2
	DD	02H
	DD	FLAT:__unwindfunclet$?AnimateFolderScroll@CGfxOutBarCtrl@@QAEXHH@Z$3
__ehfuncinfo$?AnimateFolderScroll@CGfxOutBarCtrl@@QAEXHH@Z DD 019930522H
	DD	04H
	DD	FLAT:__unwindtable$?AnimateFolderScroll@CGfxOutBarCtrl@@QAEXHH@Z
	DD	2 DUP(00H)
	DD	2 DUP(00H)
	DD	00H
	DD	01H
xdata$x	ENDS
;	COMDAT xdata$x
xdata$x	SEGMENT
__unwindtable$?GetItemText@CGfxOutBarCtrl@@QAE?AV?$CStringT@DV?$StrTraitMFC_DLL@DV?$ChTraitsCRT@D@ATL@@@@@ATL@@H@Z DD 0ffffffffH
	DD	FLAT:__unwindfunclet$?GetItemText@CGfxOutBarCtrl@@QAE?AV?$CStringT@DV?$StrTraitMFC_DLL@DV?$ChTraitsCRT@D@ATL@@@@@ATL@@H@Z$0
__ehfuncinfo$?GetItemText@CGfxOutBarCtrl@@QAE?AV?$CStringT@DV?$StrTraitMFC_DLL@DV?$ChTraitsCRT@D@ATL@@@@@ATL@@H@Z DD 019930522H
	DD	01H
	DD	FLAT:__unwindtable$?GetItemText@CGfxOutBarCtrl@@QAE?AV?$CStringT@DV?$StrTraitMFC_DLL@DV?$ChTraitsCRT@D@ATL@@@@@ATL@@H@Z
	DD	2 DUP(00H)
	DD	2 DUP(00H)
	DD	00H
	DD	01H
xdata$x	ENDS
;	COMDAT xdata$x
xdata$x	SEGMENT
__unwindtable$?AddFolderBar@CGfxOutBarCtrl@@QAEHPBDPAVCWnd@@K@Z DD 0ffffffffH
	DD	FLAT:__unwindfunclet$?AddFolderBar@CGfxOutBarCtrl@@QAEHPBDPAVCWnd@@K@Z$0
	DD	00H
	DD	FLAT:__unwindfunclet$?AddFolderBar@CGfxOutBarCtrl@@QAEHPBDPAVCWnd@@K@Z$1
__ehfuncinfo$?AddFolderBar@CGfxOutBarCtrl@@QAEHPBDPAVCWnd@@K@Z DD 019930522H
	DD	02H
	DD	FLAT:__unwindtable$?AddFolderBar@CGfxOutBarCtrl@@QAEHPBDPAVCWnd@@K@Z
	DD	2 DUP(00H)
	DD	2 DUP(00H)
	DD	00H
	DD	01H
xdata$x	ENDS
;	COMDAT xdata$x
xdata$x	SEGMENT
__unwindtable$?GetFolderText@CGfxOutBarCtrl@@QAE?AV?$CStringT@DV?$StrTraitMFC_DLL@DV?$ChTraitsCRT@D@ATL@@@@@ATL@@H@Z DD 0ffffffffH
	DD	FLAT:__unwindfunclet$?GetFolderText@CGfxOutBarCtrl@@QAE?AV?$CStringT@DV?$StrTraitMFC_DLL@DV?$ChTraitsCRT@D@ATL@@@@@ATL@@H@Z$0
__ehfuncinfo$?GetFolderText@CGfxOutBarCtrl@@QAE?AV?$CStringT@DV?$StrTraitMFC_DLL@DV?$ChTraitsCRT@D@ATL@@@@@ATL@@H@Z DD 019930522H
	DD	01H
	DD	FLAT:__unwindtable$?GetFolderText@CGfxOutBarCtrl@@QAE?AV?$CStringT@DV?$StrTraitMFC_DLL@DV?$ChTraitsCRT@D@ATL@@@@@ATL@@H@Z
	DD	2 DUP(00H)
	DD	2 DUP(00H)
	DD	00H
	DD	01H
xdata$x	ENDS
;	COMDAT xdata$x
xdata$x	SEGMENT
__unwindtable$?DrawAnimItem@CGfxOutBarCtrl@@QAEXHHH@Z DD 0ffffffffH
	DD	FLAT:__unwindfunclet$?DrawAnimItem@CGfxOutBarCtrl@@QAEXHHH@Z$0
__ehfuncinfo$?DrawAnimItem@CGfxOutBarCtrl@@QAEXHHH@Z DD 019930522H
	DD	01H
	DD	FLAT:__unwindtable$?DrawAnimItem@CGfxOutBarCtrl@@QAEXHHH@Z
	DD	2 DUP(00H)
	DD	2 DUP(00H)
	DD	00H
	DD	01H
xdata$x	ENDS
;	COMDAT xdata$x
xdata$x	SEGMENT
__unwindtable$??_GCBarFolder@CGfxOutBarCtrl@@UAEPAXI@Z DD 0ffffffffH
	DD	FLAT:___std_terminate
__ehfuncinfo$??_GCBarFolder@CGfxOutBarCtrl@@UAEPAXI@Z DD 019930522H
	DD	01H
	DD	FLAT:__unwindtable$??_GCBarFolder@CGfxOutBarCtrl@@UAEPAXI@Z
	DD	2 DUP(00H)
	DD	2 DUP(00H)
	DD	00H
	DD	05H
xdata$x	ENDS
;	COMDAT xdata$x
xdata$x	SEGMENT
__unwindtable$?InsertItem@CBarFolder@CGfxOutBarCtrl@@QAEHHPBDHK@Z DD 0ffffffffH
	DD	FLAT:__unwindfunclet$?InsertItem@CBarFolder@CGfxOutBarCtrl@@QAEHHPBDHK@Z$0
__ehfuncinfo$?InsertItem@CBarFolder@CGfxOutBarCtrl@@QAEHHPBDHK@Z DD 019930522H
	DD	01H
	DD	FLAT:__unwindtable$?InsertItem@CBarFolder@CGfxOutBarCtrl@@QAEHHPBDHK@Z
	DD	2 DUP(00H)
	DD	2 DUP(00H)
	DD	00H
	DD	01H
xdata$x	ENDS
;	COMDAT xdata$x
xdata$x	SEGMENT
__ehfuncinfo$??1CBarFolder@CGfxOutBarCtrl@@UAE@XZ DD 019930522H
	DD	00H
	DD	00H
	DD	2 DUP(00H)
	DD	2 DUP(00H)
	DD	00H
	DD	05H
xdata$x	ENDS
;	COMDAT xdata$x
xdata$x	SEGMENT
__unwindtable$??0CBarFolder@CGfxOutBarCtrl@@QAE@PBDK@Z DD 0ffffffffH
	DD	FLAT:__unwindfunclet$??0CBarFolder@CGfxOutBarCtrl@@QAE@PBDK@Z$0
__ehfuncinfo$??0CBarFolder@CGfxOutBarCtrl@@QAE@PBDK@Z DD 019930522H
	DD	01H
	DD	FLAT:__unwindtable$??0CBarFolder@CGfxOutBarCtrl@@QAE@PBDK@Z
	DD	2 DUP(00H)
	DD	2 DUP(00H)
	DD	00H
	DD	01H
xdata$x	ENDS
;	COMDAT xdata$x
xdata$x	SEGMENT
__ehfuncinfo$??0CGfxOutBarCtrl@@QAE@XZ DD 019930522H
	DD	05H
	DD	FLAT:__unwindtable$??0CGfxOutBarCtrl@@QAE@XZ
	DD	2 DUP(00H)
	DD	2 DUP(00H)
	DD	00H
	DD	01H
__unwindtable$??0CGfxOutBarCtrl@@QAE@XZ DD 0ffffffffH
	DD	FLAT:__unwindfunclet$??0CGfxOutBarCtrl@@QAE@XZ$0
	DD	00H
	DD	FLAT:__unwindfunclet$??0CGfxOutBarCtrl@@QAE@XZ$1
	DD	01H
	DD	FLAT:__unwindfunclet$??0CGfxOutBarCtrl@@QAE@XZ$2
	DD	02H
	DD	FLAT:__unwindfunclet$??0CGfxOutBarCtrl@@QAE@XZ$3
	DD	03H
	DD	FLAT:__unwindfunclet$??0CGfxOutBarCtrl@@QAE@XZ$4
xdata$x	ENDS
;	COMDAT xdata$x
xdata$x	SEGMENT
__unwindtable$?CreateObject@CGfxOutBarCtrl@@SGPAVCObject@@XZ DD 0ffffffffH
	DD	FLAT:__unwindfunclet$?CreateObject@CGfxOutBarCtrl@@SGPAVCObject@@XZ$0
__ehfuncinfo$?CreateObject@CGfxOutBarCtrl@@SGPAVCObject@@XZ DD 019930522H
	DD	01H
	DD	FLAT:__unwindtable$?CreateObject@CGfxOutBarCtrl@@SGPAVCObject@@XZ
	DD	2 DUP(00H)
	DD	2 DUP(00H)
	DD	00H
	DD	01H
xdata$x	ENDS
;	COMDAT xdata$x
xdata$x	SEGMENT
__catchsym$??1CGdiObject@@UAE@XZ$3 DD 00H
	DD	FLAT:??_R0PAVCException@@@8
	DD	0fffffde4H
	DD	FLAT:__catch$??1CGdiObject@@UAE@XZ$0
__tryblocktable$??1CGdiObject@@UAE@XZ DD 00H
	DD	00H
	DD	02H
	DD	01H
	DD	FLAT:__catchsym$??1CGdiObject@@UAE@XZ$3
__unwindtable$??1CGdiObject@@UAE@XZ DD 0ffffffffH
	DD	00H
	DD	0ffffffffH
	DD	00H
	DD	01H
	DD	FLAT:__unwindfunclet$??1CGdiObject@@UAE@XZ$2
__ehfuncinfo$??1CGdiObject@@UAE@XZ DD 019930522H
	DD	03H
	DD	FLAT:__unwindtable$??1CGdiObject@@UAE@XZ
	DD	01H
	DD	FLAT:__tryblocktable$??1CGdiObject@@UAE@XZ
	DD	2 DUP(00H)
	DD	00H
	DD	05H
xdata$x	ENDS
; Function compile flags: /Ogtp
; File D:\git\src\IBK\IBK_DRFN\ProjSrc\SrcDrfn\Chart\MULTICHART\control\GfxOutBarCtrl.cpp
; File C:\Program Files (x86)\Microsoft Visual Studio\2019\Community\VC\Tools\MSVC\14.29.30133\atlmfc\include\afxwin1.inl
; File D:\git\src\IBK\IBK_DRFN\ProjSrc\SrcDrfn\Chart\MULTICHART\control\GfxOutBarCtrl.cpp
; File C:\Program Files (x86)\Microsoft Visual Studio\2019\Community\VC\Tools\MSVC\14.29.30133\atlmfc\include\afx.inl
;	COMDAT ??_GCGfxOutBarCtrl@@UAEPAXI@Z
_TEXT	SEGMENT
___flags$ = 8						; size = 4
??_GCGfxOutBarCtrl@@UAEPAXI@Z PROC			; CGfxOutBarCtrl::`scalar deleting destructor', COMDAT
; _this$ = ecx
  00000	55		 push	 ebp
  00001	8b ec		 mov	 ebp, esp
; File D:\git\src\IBK\IBK_DRFN\ProjSrc\SrcDrfn\Chart\MULTICHART\control\GfxOutBarCtrl.cpp

; 118  : {

  00003	56		 push	 esi
  00004	8b f1		 mov	 esi, ecx

; 119  : }

  00006	8d 8e 54 01 00
	00		 lea	 ecx, DWORD PTR [esi+340]
  0000c	c7 06 00 00 00
	00		 mov	 DWORD PTR [esi], OFFSET ??_7CGfxOutBarCtrl@@6B@
; File C:\Program Files (x86)\Microsoft Visual Studio\2019\Community\VC\Tools\MSVC\14.29.30133\atlmfc\include\afxwin1.inl

; 155  : 	{ }

  00012	c7 01 00 00 00
	00		 mov	 DWORD PTR [ecx], OFFSET ??_7CFont@@6B@
  00018	e8 00 00 00 00	 call	 ??1CGdiObject@@UAE@XZ	; CGdiObject::~CGdiObject
; File D:\git\src\IBK\IBK_DRFN\ProjSrc\SrcDrfn\Chart\MULTICHART\control\GfxOutBarCtrl.cpp

; 119  : }

  0001d	8d 8e 04 01 00
	00		 lea	 ecx, DWORD PTR [esi+260]
  00023	e8 00 00 00 00	 call	 ??1CPtrArray@@UAE@XZ	; CPtrArray::~CPtrArray
  00028	8b ce		 mov	 ecx, esi
  0002a	e8 00 00 00 00	 call	 ??1CWnd@@UAE@XZ		; CWnd::~CWnd
  0002f	8b 45 08	 mov	 eax, DWORD PTR ___flags$[ebp]
  00032	a8 01		 test	 al, 1
  00034	74 22		 je	 SHORT $LN15@scalar
  00036	a8 04		 test	 al, 4
  00038	75 10		 jne	 SHORT $LN3@scalar
; File C:\Program Files (x86)\Microsoft Visual Studio\2019\Community\VC\Tools\MSVC\14.29.30133\atlmfc\include\afx.inl

; 112  : 	{ ::operator delete(p); }

  0003a	56		 push	 esi
  0003b	e8 00 00 00 00	 call	 ??3@YAXPAX@Z		; operator delete
  00040	83 c4 04	 add	 esp, 4
  00043	8b c6		 mov	 eax, esi
  00045	5e		 pop	 esi
  00046	5d		 pop	 ebp
  00047	c2 04 00	 ret	 4
$LN3@scalar:
  0004a	68 70 01 00 00	 push	 368			; 00000170H
  0004f	56		 push	 esi
  00050	e8 00 00 00 00	 call	 ?__global_delete@@YAXPAXI@Z ; __global_delete
  00055	83 c4 08	 add	 esp, 8
$LN15@scalar:
  00058	8b c6		 mov	 eax, esi
  0005a	5e		 pop	 esi
  0005b	5d		 pop	 ebp
  0005c	c2 04 00	 ret	 4
??_GCGfxOutBarCtrl@@UAEPAXI@Z ENDP			; CGfxOutBarCtrl::`scalar deleting destructor'
_TEXT	ENDS
; Function compile flags: /Ogtp
; File D:\git\src\IBK\IBK_DRFN\ProjSrc\SrcDrfn\Chart\MULTICHART\control\GfxOutBarCtrl.cpp
;	COMDAT ?GetMessageMap@CGfxOutBarCtrl@@MBEPBUAFX_MSGMAP@@XZ
_TEXT	SEGMENT
?GetMessageMap@CGfxOutBarCtrl@@MBEPBUAFX_MSGMAP@@XZ PROC ; CGfxOutBarCtrl::GetMessageMap, COMDAT
; _this$ = ecx

; 121  : BEGIN_MESSAGE_MAP(CGfxOutBarCtrl, CWnd)

  00000	b8 00 00 00 00	 mov	 eax, OFFSET ?messageMap@?1??GetThisMessageMap@CGfxOutBarCtrl@@KGPBUAFX_MSGMAP@@XZ@4U3@B
  00005	c3		 ret	 0
?GetMessageMap@CGfxOutBarCtrl@@MBEPBUAFX_MSGMAP@@XZ ENDP ; CGfxOutBarCtrl::GetMessageMap
_TEXT	ENDS
; Function compile flags: /Ogtp
; File D:\git\src\IBK\IBK_DRFN\ProjSrc\SrcDrfn\Chart\MULTICHART\control\GfxOutBarCtrl.cpp
;	COMDAT ?GetThisMessageMap@CGfxOutBarCtrl@@KGPBUAFX_MSGMAP@@XZ
_TEXT	SEGMENT
?GetThisMessageMap@CGfxOutBarCtrl@@KGPBUAFX_MSGMAP@@XZ PROC ; CGfxOutBarCtrl::GetThisMessageMap, COMDAT

; 122  : 	//{{AFX_MSG_MAP(CGfxOutBarCtrl)
; 123  : 	ON_WM_CREATE()
; 124  : 	ON_WM_TIMER()
; 125  : 	ON_WM_PAINT()
; 126  : 	ON_WM_ERASEBKGND()
; 127  : 	ON_WM_MOUSEMOVE()
; 128  : 	ON_WM_LBUTTONDOWN()
; 129  : 	ON_WM_SETCURSOR()
; 130  : 	ON_WM_SIZE()
; 131  : 	ON_COMMAND(ID_GFX_LARGEICON, OnGfxLargeicon)
; 132  : 	ON_UPDATE_COMMAND_UI(ID_GFX_LARGEICON, OnUpdateGfxLargeicon)
; 133  : 	ON_COMMAND(ID_GFX_SMALLICON, OnGfxSmallicon)
; 134  : 	ON_UPDATE_COMMAND_UI(ID_GFX_SMALLICON, OnUpdateGfxSmallicon)
; 135  : 	ON_COMMAND(ID_GFX_REMOVEITEM, OnGfxRemoveitem)
; 136  : 	ON_UPDATE_COMMAND_UI(ID_GFX_REMOVEITEM, OnUpdateGfxRemoveitem)
; 137  : 	ON_UPDATE_COMMAND_UI(ID_GFX_RENAMEITEM, OnUpdateGfxRenameitem)
; 138  : 	ON_WM_DESTROY()
; 139  : 	ON_WM_RBUTTONDOWN()
; 140  : 	ON_WM_LBUTTONDBLCLK()
; 141  : 	//}}AFX_MSG_MAP
; 142  : END_MESSAGE_MAP()

  00000	b8 00 00 00 00	 mov	 eax, OFFSET ?messageMap@?1??GetThisMessageMap@CGfxOutBarCtrl@@KGPBUAFX_MSGMAP@@XZ@4U3@B
  00005	c3		 ret	 0
?GetThisMessageMap@CGfxOutBarCtrl@@KGPBUAFX_MSGMAP@@XZ ENDP ; CGfxOutBarCtrl::GetThisMessageMap
_TEXT	ENDS
; Function compile flags: /Ogtp
; File D:\git\src\IBK\IBK_DRFN\ProjSrc\SrcDrfn\Chart\MULTICHART\control\GfxOutBarCtrl.cpp
; File C:\Program Files (x86)\Microsoft Visual Studio\2019\Community\VC\Tools\MSVC\14.29.30133\atlmfc\include\afxwin2.inl
; File D:\git\src\IBK\IBK_DRFN\ProjSrc\SrcDrfn\Chart\MULTICHART\control\GfxOutBarCtrl.cpp
; File C:\Program Files (x86)\Microsoft Visual Studio\2019\Community\VC\Tools\MSVC\14.29.30133\atlmfc\include\atltypes.h
; File D:\git\src\IBK\IBK_DRFN\ProjSrc\SrcDrfn\Chart\MULTICHART\control\GfxOutBarCtrl.cpp
; File C:\Program Files (x86)\Microsoft Visual Studio\2019\Community\VC\Tools\MSVC\14.29.30133\atlmfc\include\atltypes.h
; File D:\git\src\IBK\IBK_DRFN\ProjSrc\SrcDrfn\Chart\MULTICHART\control\GfxOutBarCtrl.cpp
; File C:\Program Files (x86)\Microsoft Visual Studio\2019\Community\VC\Tools\MSVC\14.29.30133\atlmfc\include\afxwin2.inl
; File D:\git\src\IBK\IBK_DRFN\ProjSrc\SrcDrfn\Chart\MULTICHART\control\GfxOutBarCtrl.cpp
; File C:\Program Files (x86)\Microsoft Visual Studio\2019\Community\VC\Tools\MSVC\14.29.30133\atlmfc\include\afxwin2.inl
; File D:\git\src\IBK\IBK_DRFN\ProjSrc\SrcDrfn\Chart\MULTICHART\control\GfxOutBarCtrl.cpp
; File C:\Program Files (x86)\Microsoft Visual Studio\2019\Community\VC\Tools\MSVC\14.29.30133\atlmfc\include\atltypes.h
; File D:\git\src\IBK\IBK_DRFN\ProjSrc\SrcDrfn\Chart\MULTICHART\control\GfxOutBarCtrl.cpp
; File C:\Program Files (x86)\Microsoft Visual Studio\2019\Community\VC\Tools\MSVC\14.29.30133\atlmfc\include\atltypes.h
; File D:\git\src\IBK\IBK_DRFN\ProjSrc\SrcDrfn\Chart\MULTICHART\control\GfxOutBarCtrl.cpp
; File C:\Program Files (x86)\Microsoft Visual Studio\2019\Community\VC\Tools\MSVC\14.29.30133\atlmfc\include\afxwin2.inl
; File D:\git\src\IBK\IBK_DRFN\ProjSrc\SrcDrfn\Chart\MULTICHART\control\GfxOutBarCtrl.cpp
; File C:\Program Files (x86)\Microsoft Visual Studio\2019\Community\VC\Tools\MSVC\14.29.30133\atlmfc\include\afxwin2.inl
; File D:\git\src\IBK\IBK_DRFN\ProjSrc\SrcDrfn\Chart\MULTICHART\control\GfxOutBarCtrl.cpp
; File C:\Program Files (x86)\Microsoft Visual Studio\2019\Community\VC\Tools\MSVC\14.29.30133\atlmfc\include\atltypes.h
; File D:\git\src\IBK\IBK_DRFN\ProjSrc\SrcDrfn\Chart\MULTICHART\control\GfxOutBarCtrl.cpp
; File C:\Program Files (x86)\Microsoft Visual Studio\2019\Community\VC\Tools\MSVC\14.29.30133\atlmfc\include\afxwin2.inl
; File D:\git\src\IBK\IBK_DRFN\ProjSrc\SrcDrfn\Chart\MULTICHART\control\GfxOutBarCtrl.cpp
; File C:\Program Files (x86)\Microsoft Visual Studio\2019\Community\VC\Tools\MSVC\14.29.30133\atlmfc\include\afxwin2.inl
; File D:\git\src\IBK\IBK_DRFN\ProjSrc\SrcDrfn\Chart\MULTICHART\control\GfxOutBarCtrl.cpp
; File C:\Program Files (x86)\Microsoft Visual Studio\2019\Community\VC\Tools\MSVC\14.29.30133\atlmfc\include\afxwin2.inl
; File D:\git\src\IBK\IBK_DRFN\ProjSrc\SrcDrfn\Chart\MULTICHART\control\GfxOutBarCtrl.cpp
; File C:\Program Files (x86)\Microsoft Visual Studio\2019\Community\VC\Tools\MSVC\14.29.30133\atlmfc\include\atltypes.h
; File D:\git\src\IBK\IBK_DRFN\ProjSrc\SrcDrfn\Chart\MULTICHART\control\GfxOutBarCtrl.cpp
; File C:\Program Files (x86)\Microsoft Visual Studio\2019\Community\VC\Tools\MSVC\14.29.30133\atlmfc\include\atltypes.h
; File D:\git\src\IBK\IBK_DRFN\ProjSrc\SrcDrfn\Chart\MULTICHART\control\GfxOutBarCtrl.cpp
; File C:\Program Files (x86)\Microsoft Visual Studio\2019\Community\VC\Tools\MSVC\14.29.30133\atlmfc\include\atltypes.h
; File D:\git\src\IBK\IBK_DRFN\ProjSrc\SrcDrfn\Chart\MULTICHART\control\GfxOutBarCtrl.cpp
; File C:\Program Files (x86)\Microsoft Visual Studio\2019\Community\VC\Tools\MSVC\14.29.30133\atlmfc\include\atltypes.h
; File C:\Program Files (x86)\Microsoft Visual Studio\2019\Community\VC\Tools\MSVC\14.29.30133\atlmfc\include\afxwin2.inl
; File D:\git\src\IBK\IBK_DRFN\ProjSrc\SrcDrfn\Chart\MULTICHART\control\GfxOutBarCtrl.cpp
; File C:\Program Files (x86)\Microsoft Visual Studio\2019\Community\VC\Tools\MSVC\14.29.30133\atlmfc\include\atltypes.h
; File D:\git\src\IBK\IBK_DRFN\ProjSrc\SrcDrfn\Chart\MULTICHART\control\GfxOutBarCtrl.cpp
; File C:\Program Files (x86)\Microsoft Visual Studio\2019\Community\VC\Tools\MSVC\14.29.30133\atlmfc\include\atltypes.h
; File C:\Program Files (x86)\Microsoft Visual Studio\2019\Community\VC\Tools\MSVC\14.29.30133\atlmfc\include\afxwin2.inl
; File D:\git\src\IBK\IBK_DRFN\ProjSrc\SrcDrfn\Chart\MULTICHART\control\GfxOutBarCtrl.cpp
; File C:\Program Files (x86)\Microsoft Visual Studio\2019\Community\VC\Tools\MSVC\14.29.30133\atlmfc\include\afxwin2.inl
; File D:\git\src\IBK\IBK_DRFN\ProjSrc\SrcDrfn\Chart\MULTICHART\control\GfxOutBarCtrl.cpp
; File C:\Program Files (x86)\Microsoft Visual Studio\2019\Community\VC\Tools\MSVC\14.29.30133\atlmfc\include\afxwin2.inl
; File D:\git\src\IBK\IBK_DRFN\ProjSrc\SrcDrfn\Chart\MULTICHART\control\GfxOutBarCtrl.cpp
; File C:\Program Files (x86)\Microsoft Visual Studio\2019\Community\VC\Tools\MSVC\14.29.30133\atlmfc\include\afxwin1.inl
; File D:\git\src\IBK\IBK_DRFN\ProjSrc\SrcDrfn\Chart\MULTICHART\control\GfxOutBarCtrl.cpp
; File C:\Program Files (x86)\Microsoft Visual Studio\2019\Community\VC\Tools\MSVC\14.29.30133\atlmfc\include\afxwin1.inl
; File C:\Program Files (x86)\Microsoft Visual Studio\2019\Community\VC\Tools\MSVC\14.29.30133\atlmfc\include\afxwin2.inl
; File D:\git\src\IBK\IBK_DRFN\ProjSrc\SrcDrfn\Chart\MULTICHART\control\GfxOutBarCtrl.cpp
; File C:\Program Files (x86)\Microsoft Visual Studio\2019\Community\VC\Tools\MSVC\14.29.30133\atlmfc\include\afxwin2.inl
; File D:\git\src\IBK\IBK_DRFN\ProjSrc\SrcDrfn\Chart\MULTICHART\control\GfxOutBarCtrl.cpp
; File C:\Program Files (x86)\Microsoft Visual Studio\2019\Community\VC\Tools\MSVC\14.29.30133\atlmfc\include\afxwin1.inl
; File C:\Program Files (x86)\Microsoft Visual Studio\2019\Community\VC\Tools\MSVC\14.29.30133\atlmfc\include\atltypes.h
; File D:\git\src\IBK\IBK_DRFN\ProjSrc\SrcDrfn\Chart\MULTICHART\control\GfxOutBarCtrl.cpp
; File C:\Program Files (x86)\Microsoft Visual Studio\2019\Community\VC\Tools\MSVC\14.29.30133\atlmfc\include\atltypes.h
; File D:\git\src\IBK\IBK_DRFN\ProjSrc\SrcDrfn\Chart\MULTICHART\control\GfxOutBarCtrl.cpp
; File C:\Program Files (x86)\Microsoft Visual Studio\2019\Community\VC\Tools\MSVC\14.29.30133\atlmfc\include\atltypes.h
; File C:\Program Files (x86)\Microsoft Visual Studio\2019\Community\VC\Tools\MSVC\14.29.30133\atlmfc\include\afxcoll.inl
; File D:\git\src\IBK\IBK_DRFN\ProjSrc\SrcDrfn\Chart\MULTICHART\control\GfxOutBarCtrl.cpp
; File C:\Program Files (x86)\Microsoft Visual Studio\2019\Community\VC\Tools\MSVC\14.29.30133\atlmfc\include\afxcoll.inl
; File D:\git\src\IBK\IBK_DRFN\ProjSrc\SrcDrfn\Chart\MULTICHART\control\GfxOutBarCtrl.cpp
; File C:\Program Files (x86)\Microsoft Visual Studio\2019\Community\VC\Tools\MSVC\14.29.30133\atlmfc\include\atltypes.h
; File D:\git\src\IBK\IBK_DRFN\ProjSrc\SrcDrfn\Chart\MULTICHART\control\GfxOutBarCtrl.cpp
; File C:\Program Files (x86)\Microsoft Visual Studio\2019\Community\VC\Tools\MSVC\14.29.30133\atlmfc\include\afxwin2.inl
; File D:\git\src\IBK\IBK_DRFN\ProjSrc\SrcDrfn\Chart\MULTICHART\control\GfxOutBarCtrl.cpp
; File C:\Program Files (x86)\Microsoft Visual Studio\2019\Community\VC\Tools\MSVC\14.29.30133\atlmfc\include\afxwin2.inl
; File D:\git\src\IBK\IBK_DRFN\ProjSrc\SrcDrfn\Chart\MULTICHART\control\GfxOutBarCtrl.cpp
; File C:\Program Files (x86)\Microsoft Visual Studio\2019\Community\VC\Tools\MSVC\14.29.30133\atlmfc\include\afxwin2.inl
; File D:\git\src\IBK\IBK_DRFN\ProjSrc\SrcDrfn\Chart\MULTICHART\control\GfxOutBarCtrl.cpp
; File C:\Program Files (x86)\Microsoft Visual Studio\2019\Community\VC\Tools\MSVC\14.29.30133\atlmfc\include\atltypes.h
; File C:\Program Files (x86)\Microsoft Visual Studio\2019\Community\VC\Tools\MSVC\14.29.30133\atlmfc\include\afxwin2.inl
; File C:\Program Files (x86)\Microsoft Visual Studio\2019\Community\VC\Tools\MSVC\14.29.30133\atlmfc\include\atltypes.h
; File D:\git\src\IBK\IBK_DRFN\ProjSrc\SrcDrfn\Chart\MULTICHART\control\GfxOutBarCtrl.cpp
; File C:\Program Files (x86)\Microsoft Visual Studio\2019\Community\VC\Tools\MSVC\14.29.30133\atlmfc\include\atltypes.h
; File C:\Program Files (x86)\Microsoft Visual Studio\2019\Community\VC\Tools\MSVC\14.29.30133\atlmfc\include\afxwin2.inl
; File C:\Program Files (x86)\Microsoft Visual Studio\2019\Community\VC\Tools\MSVC\14.29.30133\atlmfc\include\atltypes.h
; File C:\Program Files (x86)\Microsoft Visual Studio\2019\Community\VC\Tools\MSVC\14.29.30133\atlmfc\include\afxwin2.inl
; File C:\Program Files (x86)\Microsoft Visual Studio\2019\Community\VC\Tools\MSVC\14.29.30133\atlmfc\include\atltypes.h
; File D:\git\src\IBK\IBK_DRFN\ProjSrc\SrcDrfn\Chart\MULTICHART\control\GfxOutBarCtrl.cpp
; File C:\Program Files (x86)\Microsoft Visual Studio\2019\Community\VC\Tools\MSVC\14.29.30133\atlmfc\include\atltypes.h
; File C:\Program Files (x86)\Microsoft Visual Studio\2019\Community\VC\Tools\MSVC\14.29.30133\atlmfc\include\afxcoll.inl
; File D:\git\src\IBK\IBK_DRFN\ProjSrc\SrcDrfn\Chart\MULTICHART\control\GfxOutBarCtrl.cpp
; File C:\Program Files (x86)\Microsoft Visual Studio\2019\Community\VC\Tools\MSVC\14.29.30133\atlmfc\include\afxcoll.inl
; File D:\git\src\IBK\IBK_DRFN\ProjSrc\SrcDrfn\Chart\MULTICHART\control\GfxOutBarCtrl.cpp
; File C:\Program Files (x86)\Microsoft Visual Studio\2019\Community\VC\Tools\MSVC\14.29.30133\atlmfc\include\atltypes.h
; File D:\git\src\IBK\IBK_DRFN\ProjSrc\SrcDrfn\Chart\MULTICHART\control\GfxOutBarCtrl.cpp
; File C:\Program Files (x86)\Microsoft Visual Studio\2019\Community\VC\Tools\MSVC\14.29.30133\atlmfc\include\afxwin2.inl
; File D:\git\src\IBK\IBK_DRFN\ProjSrc\SrcDrfn\Chart\MULTICHART\control\GfxOutBarCtrl.cpp
; File C:\Program Files (x86)\Microsoft Visual Studio\2019\Community\VC\Tools\MSVC\14.29.30133\atlmfc\include\afxwin2.inl
; File D:\git\src\IBK\IBK_DRFN\ProjSrc\SrcDrfn\Chart\MULTICHART\control\GfxOutBarCtrl.cpp
; File C:\Program Files (x86)\Microsoft Visual Studio\2019\Community\VC\Tools\MSVC\14.29.30133\atlmfc\include\afxwin2.inl
; File D:\git\src\IBK\IBK_DRFN\ProjSrc\SrcDrfn\Chart\MULTICHART\control\GfxOutBarCtrl.cpp
; File C:\Program Files (x86)\Microsoft Visual Studio\2019\Community\VC\Tools\MSVC\14.29.30133\atlmfc\include\afxwin2.inl
; File D:\git\src\IBK\IBK_DRFN\ProjSrc\SrcDrfn\Chart\MULTICHART\control\GfxOutBarCtrl.cpp
; File C:\Program Files (x86)\Microsoft Visual Studio\2019\Community\VC\Tools\MSVC\14.29.30133\atlmfc\include\afxwin1.inl
; File D:\git\src\IBK\IBK_DRFN\ProjSrc\SrcDrfn\Chart\MULTICHART\control\GfxOutBarCtrl.cpp
; File C:\Program Files (x86)\Microsoft Visual Studio\2019\Community\VC\Tools\MSVC\14.29.30133\atlmfc\include\afxwin1.inl
; File C:\Program Files (x86)\Microsoft Visual Studio\2019\Community\VC\Tools\MSVC\14.29.30133\atlmfc\include\afxwin2.inl
; File D:\git\src\IBK\IBK_DRFN\ProjSrc\SrcDrfn\Chart\MULTICHART\control\GfxOutBarCtrl.cpp
; File C:\Program Files (x86)\Microsoft Visual Studio\2019\Community\VC\Tools\MSVC\14.29.30133\atlmfc\include\afxwin2.inl
; File D:\git\src\IBK\IBK_DRFN\ProjSrc\SrcDrfn\Chart\MULTICHART\control\GfxOutBarCtrl.cpp
; File C:\Program Files (x86)\Microsoft Visual Studio\2019\Community\VC\Tools\MSVC\14.29.30133\atlmfc\include\afxwin1.inl
; File C:\Program Files (x86)\Microsoft Visual Studio\2019\Community\VC\Tools\MSVC\14.29.30133\atlmfc\include\atltypes.h
; File D:\git\src\IBK\IBK_DRFN\ProjSrc\SrcDrfn\Chart\MULTICHART\control\GfxOutBarCtrl.cpp
; File C:\Program Files (x86)\Microsoft Visual Studio\2019\Community\VC\Tools\MSVC\14.29.30133\atlmfc\include\atltypes.h
; File D:\git\src\IBK\IBK_DRFN\ProjSrc\SrcDrfn\Chart\MULTICHART\control\GfxOutBarCtrl.cpp
; File C:\Program Files (x86)\Microsoft Visual Studio\2019\Community\VC\Tools\MSVC\14.29.30133\atlmfc\include\atltypes.h
; File D:\git\src\IBK\IBK_DRFN\ProjSrc\SrcDrfn\Chart\MULTICHART\control\GfxOutBarCtrl.cpp
; File C:\Program Files (x86)\Microsoft Visual Studio\2019\Community\VC\Tools\MSVC\14.29.30133\atlmfc\include\afxwin2.inl
; File D:\git\src\IBK\IBK_DRFN\ProjSrc\SrcDrfn\Chart\MULTICHART\control\GfxOutBarCtrl.cpp
; File C:\Program Files (x86)\Microsoft Visual Studio\2019\Community\VC\Tools\MSVC\14.29.30133\atlmfc\include\afxwin2.inl
; File D:\git\src\IBK\IBK_DRFN\ProjSrc\SrcDrfn\Chart\MULTICHART\control\GfxOutBarCtrl.cpp
; File C:\Program Files (x86)\Microsoft Visual Studio\2019\Community\VC\Tools\MSVC\14.29.30133\atlmfc\include\afxwin2.inl
; File D:\git\src\IBK\IBK_DRFN\ProjSrc\SrcDrfn\Chart\MULTICHART\control\GfxOutBarCtrl.cpp
; File C:\Program Files (x86)\Microsoft Visual Studio\2019\Community\VC\Tools\MSVC\14.29.30133\atlmfc\include\atltypes.h
; File C:\Program Files (x86)\Microsoft Visual Studio\2019\Community\VC\Tools\MSVC\14.29.30133\atlmfc\include\afxwin2.inl
; File C:\Program Files (x86)\Microsoft Visual Studio\2019\Community\VC\Tools\MSVC\14.29.30133\atlmfc\include\atltypes.h
; File D:\git\src\IBK\IBK_DRFN\ProjSrc\SrcDrfn\Chart\MULTICHART\control\GfxOutBarCtrl.cpp
; File C:\Program Files (x86)\Microsoft Visual Studio\2019\Community\VC\Tools\MSVC\14.29.30133\atlmfc\include\atltypes.h
; File C:\Program Files (x86)\Microsoft Visual Studio\2019\Community\VC\Tools\MSVC\14.29.30133\atlmfc\include\afxwin2.inl
; File C:\Program Files (x86)\Microsoft Visual Studio\2019\Community\VC\Tools\MSVC\14.29.30133\atlmfc\include\atltypes.h
; File C:\Program Files (x86)\Microsoft Visual Studio\2019\Community\VC\Tools\MSVC\14.29.30133\atlmfc\include\afxwin2.inl
; File C:\Program Files (x86)\Microsoft Visual Studio\2019\Community\VC\Tools\MSVC\14.29.30133\atlmfc\include\atltypes.h
; File D:\git\src\IBK\IBK_DRFN\ProjSrc\SrcDrfn\Chart\MULTICHART\control\GfxOutBarCtrl.cpp
; File C:\Program Files (x86)\Microsoft Visual Studio\2019\Community\VC\Tools\MSVC\14.29.30133\atlmfc\include\afxwin2.inl
; File D:\git\src\IBK\IBK_DRFN\ProjSrc\SrcDrfn\Chart\MULTICHART\control\GfxOutBarCtrl.cpp
; File C:\Program Files (x86)\Microsoft Visual Studio\2019\Community\VC\Tools\MSVC\14.29.30133\atlmfc\include\afxwin2.inl
; File D:\git\src\IBK\IBK_DRFN\ProjSrc\SrcDrfn\Chart\MULTICHART\control\GfxOutBarCtrl.cpp
; File C:\Program Files (x86)\Microsoft Visual Studio\2019\Community\VC\Tools\MSVC\14.29.30133\atlmfc\include\afxwin2.inl
; File D:\git\src\IBK\IBK_DRFN\ProjSrc\SrcDrfn\Chart\MULTICHART\control\GfxOutBarCtrl.cpp
; File C:\Program Files (x86)\Microsoft Visual Studio\2019\Community\VC\Tools\MSVC\14.29.30133\atlmfc\include\afxwin2.inl
; File D:\git\src\IBK\IBK_DRFN\ProjSrc\SrcDrfn\Chart\MULTICHART\control\GfxOutBarCtrl.cpp
;	COMDAT ?OnLButtonDblClk@CGfxOutBarCtrl@@IAEXIVCPoint@@@Z
_TEXT	SEGMENT
_dc$2 = -208						; size = 20
_dc$3 = -208						; size = 20
_msg$4 = -188						; size = 28
_dc$5 = -180						; size = 20
_msg$6 = -160						; size = 28
_msg$7 = -160						; size = 28
_msg$8 = -160						; size = 28
_pt$9 = -132						; size = 8
_pt$10 = -132						; size = 8
_hCur$1$ = -128						; size = 4
_ht$1$ = -128						; size = 4
_idx$11 = -124						; size = 4
_idx$12 = -124						; size = 4
_index$ = -124						; size = 4
_bHigh$1$ = -117					; size = 1
_bHigh$1$ = -117					; size = 1
_inRc$ = -116						; size = 16
_crc$13 = -100						; size = 16
_dc$14 = -84						; size = 20
_crc$15 = -80						; size = 16
_itrc$16 = -80						; size = 16
_itrc$17 = -80						; size = 16
_rc$18 = -80						; size = 16
_crc$19 = -64						; size = 16
_crc$20 = -48						; size = 16
_pt$21 = -40						; size = 8
_pt$22 = -40						; size = 8
_crc$23 = -32						; size = 16
_crc$24 = -32						; size = 16
_rc$25 = -32						; size = 16
_rc$26 = -32						; size = 16
_rc$27 = -32						; size = 16
__$ArrayPad$ = -16					; size = 4
__$EHRec$ = -12						; size = 12
_nFlags$ = 8						; size = 4
_point$ = 12						; size = 8
?OnLButtonDblClk@CGfxOutBarCtrl@@IAEXIVCPoint@@@Z PROC	; CGfxOutBarCtrl::OnLButtonDblClk, COMDAT
; _this$ = ecx

; 2528 : {

  00000	55		 push	 ebp
  00001	8b ec		 mov	 ebp, esp
  00003	6a ff		 push	 -1
  00005	68 00 00 00 00	 push	 __ehhandler$?OnLButtonDblClk@CGfxOutBarCtrl@@IAEXIVCPoint@@@Z
  0000a	64 a1 00 00 00
	00		 mov	 eax, DWORD PTR fs:0
  00010	50		 push	 eax
  00011	81 ec c4 00 00
	00		 sub	 esp, 196		; 000000c4H
  00017	a1 00 00 00 00	 mov	 eax, DWORD PTR ___security_cookie
  0001c	33 c5		 xor	 eax, ebp
  0001e	89 45 f0	 mov	 DWORD PTR __$ArrayPad$[ebp], eax
  00021	56		 push	 esi
  00022	57		 push	 edi
  00023	50		 push	 eax
  00024	8d 45 f4	 lea	 eax, DWORD PTR __$EHRec$[ebp]
  00027	64 a3 00 00 00
	00		 mov	 DWORD PTR fs:0, eax
  0002d	8b f1		 mov	 esi, ecx
; File C:\Program Files (x86)\Microsoft Visual Studio\2019\Community\VC\Tools\MSVC\14.29.30133\atlmfc\include\afxwin2.inl

; 165  : 	{ return CWnd::FromHandle(::GetFocus()); }

  0002f	ff 15 00 00 00
	00		 call	 DWORD PTR __imp__GetFocus@0
  00035	50		 push	 eax
  00036	e8 00 00 00 00	 call	 ?FromHandle@CWnd@@SGPAV1@PAUHWND__@@@Z ; CWnd::FromHandle
; File D:\git\src\IBK\IBK_DRFN\ProjSrc\SrcDrfn\Chart\MULTICHART\control\GfxOutBarCtrl.cpp

; 2529 : 	if (GetFocus() != this) SetFocus();

  0003b	3b c6		 cmp	 eax, esi
  0003d	74 07		 je	 SHORT $LN22@OnLButtonD
  0003f	8b ce		 mov	 ecx, esi
  00041	e8 00 00 00 00	 call	 ?SetFocus@CWnd@@QAEPAV1@XZ ; CWnd::SetFocus
$LN22@OnLButtonD:

; 2530 : 
; 2531 : 	int index, ht = HitTestEx(point, index);

  00046	8d 45 84	 lea	 eax, DWORD PTR _index$[ebp]
  00049	8b ce		 mov	 ecx, esi
  0004b	50		 push	 eax
  0004c	8d 45 0c	 lea	 eax, DWORD PTR _point$[ebp]
  0004f	50		 push	 eax
  00050	e8 00 00 00 00	 call	 ?HitTestEx@CGfxOutBarCtrl@@QAEHABVCPoint@@AAH@Z ; CGfxOutBarCtrl::HitTestEx
  00055	89 45 80	 mov	 DWORD PTR _ht$1$[ebp], eax
  00058	0f 57 c0	 xorps	 xmm0, xmm0

; 2535 : 	GetInsideRect(inRc);

  0005b	8d 45 8c	 lea	 eax, DWORD PTR _inRc$[ebp]
  0005e	c7 86 30 01 00
	00 ff ff ff ff	 mov	 DWORD PTR [esi+304], -1
  00068	50		 push	 eax
  00069	8b ce		 mov	 ecx, esi
; File C:\Program Files (x86)\Microsoft Visual Studio\2019\Community\VC\Tools\MSVC\14.29.30133\atlmfc\include\atltypes.h

; 528  : 	left = 0;

  0006b	0f 11 45 8c	 movups	 XMMWORD PTR _inRc$[ebp], xmm0
; File D:\git\src\IBK\IBK_DRFN\ProjSrc\SrcDrfn\Chart\MULTICHART\control\GfxOutBarCtrl.cpp

; 2535 : 	GetInsideRect(inRc);

  0006f	e8 00 00 00 00	 call	 ?GetInsideRect@CGfxOutBarCtrl@@QBEXAAVCRect@@@Z ; CGfxOutBarCtrl::GetInsideRect

; 2536 : 
; 2537 : 	if (ht == htFolder)

  00074	8b 45 80	 mov	 eax, DWORD PTR _ht$1$[ebp]
  00077	8b 3d 00 00 00
	00		 mov	 edi, DWORD PTR __imp__GetCapture@0
  0007d	85 c0		 test	 eax, eax
  0007f	0f 85 74 01 00
	00		 jne	 $LN23@OnLButtonD

; 2541 : 		GetFolderRect(index, rc);

  00085	8d 45 e0	 lea	 eax, DWORD PTR _rc$27[ebp]
  00088	c6 45 8b 01	 mov	 BYTE PTR _bHigh$1$[ebp], 1
  0008c	50		 push	 eax
  0008d	ff 75 84	 push	 DWORD PTR _index$[ebp]
  00090	0f 57 c0	 xorps	 xmm0, xmm0
  00093	8b ce		 mov	 ecx, esi
; File C:\Program Files (x86)\Microsoft Visual Studio\2019\Community\VC\Tools\MSVC\14.29.30133\atlmfc\include\atltypes.h

; 528  : 	left = 0;

  00095	0f 11 45 e0	 movups	 XMMWORD PTR _rc$27[ebp], xmm0
; File D:\git\src\IBK\IBK_DRFN\ProjSrc\SrcDrfn\Chart\MULTICHART\control\GfxOutBarCtrl.cpp

; 2541 : 		GetFolderRect(index, rc);

  00099	e8 00 00 00 00	 call	 ?GetFolderRect@CGfxOutBarCtrl@@QBE_NHAAVCRect@@@Z ; CGfxOutBarCtrl::GetFolderRect

; 2542 : 
; 2543 : 		if (::GetCapture() == NULL)

  0009e	ff d7		 call	 edi
  000a0	85 c0		 test	 eax, eax
  000a2	0f 85 f8 00 00
	00		 jne	 $LN353@OnLButtonD
; File C:\Program Files (x86)\Microsoft Visual Studio\2019\Community\VC\Tools\MSVC\14.29.30133\atlmfc\include\afxwin2.inl

; 163  : 	{ ASSERT(::IsWindow(m_hWnd)); return CWnd::FromHandle(::SetCapture(m_hWnd)); }

  000a8	ff 76 20	 push	 DWORD PTR [esi+32]
  000ab	ff 15 00 00 00
	00		 call	 DWORD PTR __imp__SetCapture@4
  000b1	50		 push	 eax
  000b2	e8 00 00 00 00	 call	 ?FromHandle@CWnd@@SGPAV1@PAUHWND__@@@Z ; CWnd::FromHandle
; File D:\git\src\IBK\IBK_DRFN\ProjSrc\SrcDrfn\Chart\MULTICHART\control\GfxOutBarCtrl.cpp

; 2547 : 			CClientDC dc(this);

  000b7	56		 push	 esi
  000b8	8d 4d ac	 lea	 ecx, DWORD PTR _dc$14[ebp]
  000bb	e8 00 00 00 00	 call	 ??0CClientDC@@QAE@PAVCWnd@@@Z ; CClientDC::CClientDC

; 2548 : 			DrawFolder(&dc, index, rc, true);

  000c0	0f 10 45 e0	 movups	 xmm0, XMMWORD PTR _rc$27[ebp]
  000c4	6a 01		 push	 1
  000c6	83 ec 10	 sub	 esp, 16			; 00000010H
  000c9	c7 45 fc 00 00
	00 00		 mov	 DWORD PTR __$EHRec$[ebp+8], 0
  000d0	8b c4		 mov	 eax, esp
  000d2	8b ce		 mov	 ecx, esi
  000d4	ff 75 84	 push	 DWORD PTR _index$[ebp]
  000d7	0f 11 00	 movups	 XMMWORD PTR [eax], xmm0
  000da	8d 45 ac	 lea	 eax, DWORD PTR _dc$14[ebp]
  000dd	50		 push	 eax
  000de	e8 00 00 00 00	 call	 ?DrawFolder@CGfxOutBarCtrl@@IAEXPAVCDC@@HVCRect@@_N@Z ; CGfxOutBarCtrl::DrawFolder

; 2549 : 			AfxLockTempMaps();

  000e3	e8 00 00 00 00	 call	 ?AfxLockTempMaps@@YGXXZ	; AfxLockTempMaps

; 2550 : 			for (;;)
; 2551 : 			{
; 2552 : 				MSG msg;
; 2553 : 				VERIFY(::GetMessage(&msg, NULL, 0, 0));

  000e8	6a 00		 push	 0
  000ea	6a 00		 push	 0
  000ec	6a 00		 push	 0
  000ee	8d 85 60 ff ff
	ff		 lea	 eax, DWORD PTR _msg$8[ebp]
  000f4	50		 push	 eax
  000f5	ff 15 00 00 00
	00		 call	 DWORD PTR __imp__GetMessageA@16
; File C:\Program Files (x86)\Microsoft Visual Studio\2019\Community\VC\Tools\MSVC\14.29.30133\atlmfc\include\afxwin2.inl

; 161  : 	{ return CWnd::FromHandle(::GetCapture()); }

  000fb	ff d7		 call	 edi
  000fd	50		 push	 eax
  000fe	e8 00 00 00 00	 call	 ?FromHandle@CWnd@@SGPAV1@PAUHWND__@@@Z ; CWnd::FromHandle
; File D:\git\src\IBK\IBK_DRFN\ProjSrc\SrcDrfn\Chart\MULTICHART\control\GfxOutBarCtrl.cpp

; 2555 : 				if (CWnd::GetCapture() != this) break;

  00103	3b c6		 cmp	 eax, esi
  00105	75 73		 jne	 SHORT $ExitLoop2$369
  00107	66 0f 1f 84 00
	00 00 00 00	 npad	 9
$LL2@OnLButtonD:

; 2556 : 
; 2557 : 				switch (msg.message)

  00110	8b 85 64 ff ff
	ff		 mov	 eax, DWORD PTR _msg$8[ebp+4]
  00116	3d 00 01 00 00	 cmp	 eax, 256		; 00000100H
  0011b	0f 84 9d 00 00
	00		 je	 $LN30@OnLButtonD
  00121	3d 02 02 00 00	 cmp	 eax, 514		; 00000202H
  00126	0f 85 9b 00 00
	00		 jne	 $LN31@OnLButtonD

; 2558 : 				{
; 2559 : 				//case WM_MOUSEMOVE:
; 2560 : 				//	{
; 2561 : 				//		CPoint pt(msg.lParam);
; 2562 : 				//		int idx, ht1 = HitTestEx(pt, idx);
; 2563 : 				//		if (ht1 == htFolder && idx == index)
; 2564 : 				//		{
; 2565 : 				//			if (!bHigh)
; 2566 : 				//			{
; 2567 : 				//				DrawFolder(&dc, index, rc, true);
; 2568 : 				//				bHigh = true;
; 2569 : 				//			}
; 2570 : 				//		}
; 2571 : 				//		else
; 2572 : 				//		{
; 2573 : 				//			if (bHigh)
; 2574 : 				//			{
; 2575 : 				//				DrawFolder(&dc, index, rc, false);
; 2576 : 				//				bHigh = false;
; 2577 : 				//			}
; 2578 : 				//		}
; 2579 : 				//	}
; 2580 : 				//	break;
; 2581 : 
; 2582 : 				case WM_LBUTTONUP:
; 2583 : 					{
; 2584 : 						if (bHigh)
; 2585 : 						{
; 2586 : 							DrawFolder(&dc, index, rc, true);

  0012c	0f 10 45 e0	 movups	 xmm0, XMMWORD PTR _rc$27[ebp]
  00130	6a 01		 push	 1
  00132	83 ec 10	 sub	 esp, 16			; 00000010H
  00135	8b ce		 mov	 ecx, esi
  00137	8b c4		 mov	 eax, esp
  00139	ff 75 84	 push	 DWORD PTR _index$[ebp]
  0013c	0f 11 00	 movups	 XMMWORD PTR [eax], xmm0
  0013f	8d 45 ac	 lea	 eax, DWORD PTR _dc$14[ebp]
  00142	50		 push	 eax
  00143	e8 00 00 00 00	 call	 ?DrawFolder@CGfxOutBarCtrl@@IAEXPAVCDC@@HVCRect@@_N@Z ; CGfxOutBarCtrl::DrawFolder
; File C:\Program Files (x86)\Microsoft Visual Studio\2019\Community\VC\Tools\MSVC\14.29.30133\atlmfc\include\atltypes.h

; 424  : 	x = (short)LOWORD(dwPoint);

  00148	8b 8d 6c ff ff
	ff		 mov	 ecx, DWORD PTR _msg$8[ebp+12]
  0014e	0f bf c1	 movsx	 eax, cx
  00151	89 45 d8	 mov	 DWORD PTR _pt$22[ebp], eax

; 425  : 	y = (short)HIWORD(dwPoint);

  00154	c1 e9 10	 shr	 ecx, 16			; 00000010H
  00157	0f bf c1	 movsx	 eax, cx
; File D:\git\src\IBK\IBK_DRFN\ProjSrc\SrcDrfn\Chart\MULTICHART\control\GfxOutBarCtrl.cpp

; 2590 : 						int idx, ht1 = HitTestEx(pt, idx);

  0015a	8b ce		 mov	 ecx, esi
; File C:\Program Files (x86)\Microsoft Visual Studio\2019\Community\VC\Tools\MSVC\14.29.30133\atlmfc\include\atltypes.h

; 425  : 	y = (short)HIWORD(dwPoint);

  0015c	89 45 dc	 mov	 DWORD PTR _pt$22[ebp+4], eax
; File D:\git\src\IBK\IBK_DRFN\ProjSrc\SrcDrfn\Chart\MULTICHART\control\GfxOutBarCtrl.cpp

; 2590 : 						int idx, ht1 = HitTestEx(pt, idx);

  0015f	8d 45 84	 lea	 eax, DWORD PTR _idx$12[ebp]
  00162	50		 push	 eax
  00163	8d 45 d8	 lea	 eax, DWORD PTR _pt$22[ebp]
  00166	c6 45 8b 00	 mov	 BYTE PTR _bHigh$1$[ebp], 0
  0016a	50		 push	 eax
  0016b	e8 00 00 00 00	 call	 ?HitTestEx@CGfxOutBarCtrl@@QAEHABVCPoint@@AAH@Z ; CGfxOutBarCtrl::HitTestEx

; 2591 : 						SetSelFolder(idx);

  00170	ff 75 84	 push	 DWORD PTR _idx$12[ebp]
  00173	8b ce		 mov	 ecx, esi
  00175	e8 00 00 00 00	 call	 ?SetSelFolder@CGfxOutBarCtrl@@QAEXH@Z ; CGfxOutBarCtrl::SetSelFolder
$ExitLoop2$369:

; 2602 : 					break;
; 2603 : 				}
; 2604 : 			}
; 2605 : 
; 2606 : 		ExitLoop2:
; 2607 : 			ReleaseCapture();

  0017a	ff 15 00 00 00
	00		 call	 DWORD PTR __imp__ReleaseCapture@0

; 2608 : 			AfxUnlockTempMaps(FALSE);

  00180	6a 00		 push	 0
  00182	e8 00 00 00 00	 call	 ?AfxUnlockTempMaps@@YGHH@Z ; AfxUnlockTempMaps

; 2609 : 		}

  00187	8d 4d ac	 lea	 ecx, DWORD PTR _dc$14[ebp]
  0018a	c7 45 fc ff ff
	ff ff		 mov	 DWORD PTR __$EHRec$[ebp+8], -1
  00191	e8 00 00 00 00	 call	 ??1CClientDC@@UAE@XZ	; CClientDC::~CClientDC

; 2610 : 		if (bHigh) InvalidateRect(rc, false);

  00196	80 7d 8b 00	 cmp	 BYTE PTR _bHigh$1$[ebp], 0
  0019a	0f 84 c5 02 00
	00		 je	 $LN364@OnLButtonD
$LN353@OnLButtonD:
; File C:\Program Files (x86)\Microsoft Visual Studio\2019\Community\VC\Tools\MSVC\14.29.30133\atlmfc\include\afxwin2.inl

; 116  : 	{ ASSERT(::IsWindow(m_hWnd)); ::InvalidateRect(m_hWnd, lpRect, bErase); }

  001a0	6a 00		 push	 0
  001a2	8d 45 e0	 lea	 eax, DWORD PTR _rc$27[ebp]
  001a5	50		 push	 eax
  001a6	ff 76 20	 push	 DWORD PTR [esi+32]
  001a9	ff 15 00 00 00
	00		 call	 DWORD PTR __imp__InvalidateRect@12
  001af	c7 86 24 01 00
	00 ff ff ff ff	 mov	 DWORD PTR [esi+292], -1
; File D:\git\src\IBK\IBK_DRFN\ProjSrc\SrcDrfn\Chart\MULTICHART\control\GfxOutBarCtrl.cpp

; 2611 : 	}

  001b9	e9 80 08 00 00	 jmp	 $LN78@OnLButtonD
$LN30@OnLButtonD:

; 2592 : 					}
; 2593 : 
; 2594 : 					goto ExitLoop2;
; 2595 : 
; 2596 : 				case WM_KEYDOWN:	
; 2597 : 					if (msg.wParam != VK_ESCAPE) 

  001be	83 bd 68 ff ff
	ff 1b		 cmp	 DWORD PTR _msg$8[ebp+8], 27 ; 0000001bH
  001c5	75 0d		 jne	 SHORT $LN5@OnLButtonD
$LN31@OnLButtonD:

; 2598 : 						break;
; 2599 : 
; 2600 : 				default:
; 2601 : 					DispatchMessage(&msg);

  001c7	8d 85 60 ff ff
	ff		 lea	 eax, DWORD PTR _msg$8[ebp]
  001cd	50		 push	 eax
  001ce	ff 15 00 00 00
	00		 call	 DWORD PTR __imp__DispatchMessageA@4
$LN5@OnLButtonD:

; 2550 : 			for (;;)
; 2551 : 			{
; 2552 : 				MSG msg;
; 2553 : 				VERIFY(::GetMessage(&msg, NULL, 0, 0));

  001d4	6a 00		 push	 0
  001d6	6a 00		 push	 0
  001d8	6a 00		 push	 0
  001da	8d 85 60 ff ff
	ff		 lea	 eax, DWORD PTR _msg$8[ebp]
  001e0	50		 push	 eax
  001e1	ff 15 00 00 00
	00		 call	 DWORD PTR __imp__GetMessageA@16
; File C:\Program Files (x86)\Microsoft Visual Studio\2019\Community\VC\Tools\MSVC\14.29.30133\atlmfc\include\afxwin2.inl

; 161  : 	{ return CWnd::FromHandle(::GetCapture()); }

  001e7	ff d7		 call	 edi
  001e9	50		 push	 eax
  001ea	e8 00 00 00 00	 call	 ?FromHandle@CWnd@@SGPAV1@PAUHWND__@@@Z ; CWnd::FromHandle
; File D:\git\src\IBK\IBK_DRFN\ProjSrc\SrcDrfn\Chart\MULTICHART\control\GfxOutBarCtrl.cpp

; 2555 : 				if (CWnd::GetCapture() != this) break;

  001ef	3b c6		 cmp	 eax, esi
  001f1	0f 84 19 ff ff
	ff		 je	 $LL2@OnLButtonD
  001f7	eb 81		 jmp	 SHORT $ExitLoop2$369
$LN23@OnLButtonD:

; 2612 : 	else iLastSelectedFolder = -1;

  001f9	c7 86 1c 01 00
	00 ff ff ff ff	 mov	 DWORD PTR [esi+284], -1

; 2613 : 
; 2614 : 	if (ht == htItem)

  00203	83 f8 01	 cmp	 eax, 1
  00206	0f 85 5c 02 00
	00		 jne	 $LN34@OnLButtonD

; 2619 : 		GetItemRect(iSelFolder, index, rc);

  0020c	8b 7d 84	 mov	 edi, DWORD PTR _index$[ebp]
  0020f	0f 57 c0	 xorps	 xmm0, xmm0
  00212	88 45 8b	 mov	 BYTE PTR _bHigh$1$[ebp], al
  00215	8b ce		 mov	 ecx, esi
  00217	8d 45 b0	 lea	 eax, DWORD PTR _rc$18[ebp]
  0021a	c7 86 2c 01 00
	00 ff ff ff ff	 mov	 DWORD PTR [esi+300], -1
  00224	50		 push	 eax
  00225	57		 push	 edi
  00226	ff b6 34 01 00
	00		 push	 DWORD PTR [esi+308]
; File C:\Program Files (x86)\Microsoft Visual Studio\2019\Community\VC\Tools\MSVC\14.29.30133\atlmfc\include\atltypes.h

; 528  : 	left = 0;

  0022c	0f 11 45 b0	 movups	 XMMWORD PTR _rc$18[ebp], xmm0
; File D:\git\src\IBK\IBK_DRFN\ProjSrc\SrcDrfn\Chart\MULTICHART\control\GfxOutBarCtrl.cpp

; 2619 : 		GetItemRect(iSelFolder, index, rc);

  00230	e8 00 00 00 00	 call	 ?GetItemRect@CGfxOutBarCtrl@@QAEXHHAAVCRect@@@Z ; CGfxOutBarCtrl::GetItemRect

; 2620 : 
; 2621 : 		HCURSOR hCur = GetCursor();

  00235	ff 15 00 00 00
	00		 call	 DWORD PTR __imp__GetCursor@0
  0023b	89 45 80	 mov	 DWORD PTR _hCur$1$[ebp], eax

; 2622 : 
; 2623 : 		if (::GetCapture() == NULL)

  0023e	ff 15 00 00 00
	00		 call	 DWORD PTR __imp__GetCapture@0
  00244	85 c0		 test	 eax, eax
  00246	0f 85 f4 01 00
	00		 jne	 $LN36@OnLButtonD
; File C:\Program Files (x86)\Microsoft Visual Studio\2019\Community\VC\Tools\MSVC\14.29.30133\atlmfc\include\afxwin2.inl

; 163  : 	{ ASSERT(::IsWindow(m_hWnd)); return CWnd::FromHandle(::SetCapture(m_hWnd)); }

  0024c	ff 76 20	 push	 DWORD PTR [esi+32]
  0024f	ff 15 00 00 00
	00		 call	 DWORD PTR __imp__SetCapture@4
  00255	50		 push	 eax
  00256	e8 00 00 00 00	 call	 ?FromHandle@CWnd@@SGPAV1@PAUHWND__@@@Z ; CWnd::FromHandle
; File D:\git\src\IBK\IBK_DRFN\ProjSrc\SrcDrfn\Chart\MULTICHART\control\GfxOutBarCtrl.cpp

; 2627 : 			CClientDC dc(this);

  0025b	56		 push	 esi
  0025c	8d 8d 30 ff ff
	ff		 lea	 ecx, DWORD PTR _dc$3[ebp]
  00262	e8 00 00 00 00	 call	 ??0CClientDC@@QAE@PAVCWnd@@@Z ; CClientDC::CClientDC

; 2628 : 			HighlightItem(index, true);

  00267	6a 01		 push	 1
  00269	57		 push	 edi
  0026a	8b ce		 mov	 ecx, esi
  0026c	c7 45 fc 01 00
	00 00		 mov	 DWORD PTR __$EHRec$[ebp+8], 1
  00273	e8 00 00 00 00	 call	 ?HighlightItem@CGfxOutBarCtrl@@QAEXH_N@Z ; CGfxOutBarCtrl::HighlightItem

; 2629 : 			AfxLockTempMaps();

  00278	e8 00 00 00 00	 call	 ?AfxLockTempMaps@@YGXXZ	; AfxLockTempMaps

; 2630 : 			for (;;)
; 2631 : 			{
; 2632 : 				MSG msg;
; 2633 : 				VERIFY(::GetMessage(&msg, NULL, 0, 0));

  0027d	6a 00		 push	 0
  0027f	6a 00		 push	 0
  00281	6a 00		 push	 0
  00283	8d 85 60 ff ff
	ff		 lea	 eax, DWORD PTR _msg$7[ebp]
  00289	50		 push	 eax
  0028a	ff 15 00 00 00
	00		 call	 DWORD PTR __imp__GetMessageA@16
; File C:\Program Files (x86)\Microsoft Visual Studio\2019\Community\VC\Tools\MSVC\14.29.30133\atlmfc\include\afxwin2.inl

; 161  : 	{ return CWnd::FromHandle(::GetCapture()); }

  00290	ff 15 00 00 00
	00		 call	 DWORD PTR __imp__GetCapture@0
  00296	50		 push	 eax
  00297	e8 00 00 00 00	 call	 ?FromHandle@CWnd@@SGPAV1@PAUHWND__@@@Z ; CWnd::FromHandle
; File D:\git\src\IBK\IBK_DRFN\ProjSrc\SrcDrfn\Chart\MULTICHART\control\GfxOutBarCtrl.cpp

; 2635 : 				if (CWnd::GetCapture() != this) break;

  0029c	3b c6		 cmp	 eax, esi
  0029e	0f 85 7d 01 00
	00		 jne	 $ExitLoop4$370
$LL7@OnLButtonD:

; 2636 : 
; 2637 : 				switch (msg.message)

  002a4	8b 85 64 ff ff
	ff		 mov	 eax, DWORD PTR _msg$7[ebp+4]
  002aa	83 f8 20	 cmp	 eax, 32			; 00000020H
  002ad	74 16		 je	 SHORT $LN38@OnLButtonD
  002af	3d 02 02 00 00	 cmp	 eax, 514		; 00000202H
  002b4	74 40		 je	 SHORT $LN355@OnLButtonD

; 2746 : 									rc.InflateRect(1,1);
; 2747 : 									InvalidateRect(rc);
; 2748 : 								}
; 2749 : 
; 2750 : 								GetOwner()->SendMessage(WMU_OUTBAR_NOTIFY, NM_OB_ITEMDBCLICK, idx);
; 2751 : 							}
; 2752 : 						}
; 2753 : 						else
; 2754 : 						{
; 2755 : 							if (ht1 == htItem)
; 2756 : 							{
; 2757 : 								if (idx != index)
; 2758 : 								{
; 2759 : 									OUTBAR_INFO ob;
; 2760 : 									ob.iDragFrom = iSelFolder;
; 2761 : 									ob.iDragTo = index;
; 2762 : 									if (GetOwner()->SendMessage(WMU_OUTBAR_NOTIFY, NM_OB_DRAGITEM, (LPARAM) &ob))
; 2763 : 									{
; 2764 : 										CBarFolder * pbf = (CBarFolder *) arFolder.GetAt(iSelFolder);
; 2765 : 										CBarItem * piFrom = (CBarItem *) pbf->arItems.GetAt(index);
; 2766 : 										pbf->arItems.RemoveAt(index);
; 2767 : 										if (idx > index) idx --;
; 2768 : 										pbf->arItems.InsertAt(idx, piFrom);
; 2769 : 									}
; 2770 : 								}
; 2771 : 							}
; 2772 : 							else
; 2773 : 							{
; 2774 : 								CRect rcItem;
; 2775 : 								GetItemRect(iSelFolder, GetItemCount() - 1, rcItem);
; 2776 : 								if (pt.y > rcItem.bottom && pt.y < inRc.bottom)
; 2777 : 								{
; 2778 : 									OUTBAR_INFO ob;
; 2779 : 									ob.iDragFrom = iSelFolder;
; 2780 : 									ob.iDragTo = index;
; 2781 : 									if (GetOwner()->SendMessage(WMU_OUTBAR_NOTIFY, NM_OB_DRAGITEM, (LPARAM) &ob))
; 2782 : 									{
; 2783 : 										CBarFolder * pbf = (CBarFolder *) arFolder.GetAt(iSelFolder);
; 2784 : 										CBarItem * piFrom = (CBarItem *) pbf->arItems.GetAt(index);
; 2785 : 										pbf->arItems.RemoveAt(index);
; 2786 : 										pbf->arItems.Add((void *) piFrom);
; 2787 : 									}
; 2788 : 								}
; 2789 : 							}
; 2790 : 						}
; 2791 : 					}
; 2792 : 
; 2793 : 					goto ExitLoop4;
; 2794 : 
; 2795 : 				default:
; 2796 : 					DispatchMessage(&msg);

  002b6	8d 85 60 ff ff
	ff		 lea	 eax, DWORD PTR _msg$7[ebp]
  002bc	50		 push	 eax
  002bd	ff 15 00 00 00
	00		 call	 DWORD PTR __imp__DispatchMessageA@4
  002c3	eb 09		 jmp	 SHORT $LN10@OnLButtonD
$LN38@OnLButtonD:

; 2638 : 				{
; 2639 : 				//case WM_MOUSEMOVE:
; 2640 : 				//	{
; 2641 : 				//		CPoint pt(msg.lParam);
; 2642 : 				//		int idx, ht1 = HitTestEx(pt, idx);
; 2643 : 				//		if (bDragging)
; 2644 : 				//		{
; 2645 : 				//			if (ht1 == htItem) 
; 2646 : 				//			{
; 2647 : 				//				DrawDragArrow(&dc, index, idx);
; 2648 : 				//				SetCursor(hDragCursor);
; 2649 : 				//				hCur = hDragCursor;
; 2650 : 				//			}
; 2651 : 				//			else 
; 2652 : 				//			{
; 2653 : 				//				CRect rcItem;
; 2654 : 				//				GetItemRect(iSelFolder, GetItemCount() - 1, rcItem);
; 2655 : 				//				if (pt.y > rcItem.bottom && pt.y < inRc.bottom)
; 2656 : 				//				{
; 2657 : 				//					DrawDragArrow(&dc, index, GetItemCount());
; 2658 : 				//					SetCursor(hDragCursor);
; 2659 : 				//					hCur = hDragCursor;
; 2660 : 				//				}
; 2661 : 				//				else
; 2662 : 				//				{
; 2663 : 				//					DrawDragArrow(&dc, index, -1);
; 2664 : 				//					SetCursor(hNoDragCursor);
; 2665 : 				//					hCur = hNoDragCursor;
; 2666 : 				//				}
; 2667 : 				//			}
; 2668 : 				//		}
; 2669 : 				//		else
; 2670 : 				//		{
; 2671 : 				//			if (ht1 == htItem && idx == index)
; 2672 : 				//			{
; 2673 : 				//				if (!bHigh)
; 2674 : 				//				{
; 2675 : 				//					HighlightItem(index, true);
; 2676 : 				//					bHigh = true;
; 2677 : 				//					bPressedHighlight = true;
; 2678 : 				//				}
; 2679 : 				//			}
; 2680 : 				//			else 
; 2681 : 				//			{
; 2682 : 				//				if (ht1 == htItem)
; 2683 : 				//				{
; 2684 : 				//					if (bHigh)
; 2685 : 				//					{
; 2686 : 				//						HighlightItem(index, false);
; 2687 : 				//						bHigh = false;
; 2688 : 				//						bPressedHighlight = false;
; 2689 : 				//					}
; 2690 : 				//				}
; 2691 : 				//				else
; 2692 : 				//				{
; 2693 : 				//					if (dwFlags&fDragItems)
; 2694 : 				//					{
; 2695 : 				//						HighlightItem(index, true);
; 2696 : 				//						bHigh = true;
; 2697 : 				//						bDragging = true;
; 2698 : 
; 2699 : 				//						SetCursor(hDragCursor);
; 2700 : 				//						hCur = hDragCursor;
; 2701 : 
; 2702 : 				//						bPressedHighlight = true;
; 2703 : 				//					}
; 2704 : 				//				}
; 2705 : 				//			}
; 2706 : 				//		}
; 2707 : 				//	}
; 2708 : 				//	break;
; 2709 : 
; 2710 : 				case WM_SETCURSOR:
; 2711 : 					SetCursor(hCur);

  002c5	ff 75 80	 push	 DWORD PTR _hCur$1$[ebp]
  002c8	ff 15 00 00 00
	00		 call	 DWORD PTR __imp__SetCursor@4
$LN10@OnLButtonD:

; 2630 : 			for (;;)
; 2631 : 			{
; 2632 : 				MSG msg;
; 2633 : 				VERIFY(::GetMessage(&msg, NULL, 0, 0));

  002ce	6a 00		 push	 0
  002d0	6a 00		 push	 0
  002d2	6a 00		 push	 0
  002d4	8d 85 60 ff ff
	ff		 lea	 eax, DWORD PTR _msg$7[ebp]
  002da	50		 push	 eax
  002db	ff 15 00 00 00
	00		 call	 DWORD PTR __imp__GetMessageA@16
; File C:\Program Files (x86)\Microsoft Visual Studio\2019\Community\VC\Tools\MSVC\14.29.30133\atlmfc\include\afxwin2.inl

; 161  : 	{ return CWnd::FromHandle(::GetCapture()); }

  002e1	ff 15 00 00 00
	00		 call	 DWORD PTR __imp__GetCapture@0
  002e7	50		 push	 eax
  002e8	e8 00 00 00 00	 call	 ?FromHandle@CWnd@@SGPAV1@PAUHWND__@@@Z ; CWnd::FromHandle
; File D:\git\src\IBK\IBK_DRFN\ProjSrc\SrcDrfn\Chart\MULTICHART\control\GfxOutBarCtrl.cpp

; 2635 : 				if (CWnd::GetCapture() != this) break;

  002ed	3b c6		 cmp	 eax, esi
  002ef	74 b3		 je	 SHORT $LL7@OnLButtonD
  002f1	e9 2b 01 00 00	 jmp	 $ExitLoop4$370
$LN355@OnLButtonD:

; 2712 : 					break;
; 2713 : 
; 2714 : 				case WM_LBUTTONUP:
; 2715 : 					{
; 2716 : 						if (bHigh)
; 2717 : 						{
; 2718 : 							HighlightItem(-1);

  002f6	6a 00		 push	 0
  002f8	6a ff		 push	 -1
  002fa	8b ce		 mov	 ecx, esi
  002fc	e8 00 00 00 00	 call	 ?HighlightItem@CGfxOutBarCtrl@@QAEXH_N@Z ; CGfxOutBarCtrl::HighlightItem
; File C:\Program Files (x86)\Microsoft Visual Studio\2019\Community\VC\Tools\MSVC\14.29.30133\atlmfc\include\atltypes.h

; 424  : 	x = (short)LOWORD(dwPoint);

  00301	8b 8d 6c ff ff
	ff		 mov	 ecx, DWORD PTR _msg$7[ebp+12]
  00307	0f bf c1	 movsx	 eax, cx
  0030a	89 45 d8	 mov	 DWORD PTR _pt$21[ebp], eax

; 425  : 	y = (short)HIWORD(dwPoint);

  0030d	c1 e9 10	 shr	 ecx, 16			; 00000010H
  00310	0f bf c1	 movsx	 eax, cx
; File D:\git\src\IBK\IBK_DRFN\ProjSrc\SrcDrfn\Chart\MULTICHART\control\GfxOutBarCtrl.cpp

; 2722 : 						int idx, ht1 = HitTestEx(pt, idx);

  00313	8b ce		 mov	 ecx, esi
; File C:\Program Files (x86)\Microsoft Visual Studio\2019\Community\VC\Tools\MSVC\14.29.30133\atlmfc\include\atltypes.h

; 425  : 	y = (short)HIWORD(dwPoint);

  00315	89 45 dc	 mov	 DWORD PTR _pt$21[ebp+4], eax
; File D:\git\src\IBK\IBK_DRFN\ProjSrc\SrcDrfn\Chart\MULTICHART\control\GfxOutBarCtrl.cpp

; 2722 : 						int idx, ht1 = HitTestEx(pt, idx);

  00318	8d 45 84	 lea	 eax, DWORD PTR _idx$11[ebp]
  0031b	50		 push	 eax
  0031c	8d 45 d8	 lea	 eax, DWORD PTR _pt$21[ebp]
  0031f	c6 45 8b 00	 mov	 BYTE PTR _bHigh$1$[ebp], 0
  00323	50		 push	 eax
  00324	e8 00 00 00 00	 call	 ?HitTestEx@CGfxOutBarCtrl@@QAEHABVCPoint@@AAH@Z ; CGfxOutBarCtrl::HitTestEx

; 2723 : 						if (!bDragging)
; 2724 : 						{
; 2725 : 							if (ht1 == htItem && idx == index) 

  00329	83 f8 01	 cmp	 eax, 1
  0032c	0f 85 ef 00 00
	00		 jne	 $ExitLoop4$370
  00332	39 7d 84	 cmp	 DWORD PTR _idx$11[ebp], edi
  00335	0f 85 e6 00 00
	00		 jne	 $ExitLoop4$370

; 2726 : 							{
; 2727 : 								if (iSelAnimTiming > 0 && index != iLastSel && iLastSel >= 0)

  0033b	83 be f8 00 00
	00 00		 cmp	 DWORD PTR [esi+248], 0
  00342	7e 1a		 jle	 SHORT $LN44@OnLButtonD
  00344	8b 86 f4 00 00
	00		 mov	 eax, DWORD PTR [esi+244]
  0034a	3b f8		 cmp	 edi, eax
  0034c	74 10		 je	 SHORT $LN44@OnLButtonD
  0034e	85 c0		 test	 eax, eax
  00350	78 0c		 js	 SHORT $LN44@OnLButtonD

; 2728 : 								{
; 2729 : 									DrawAnimItem(0, 0, iLastSel);

  00352	50		 push	 eax
  00353	6a 00		 push	 0
  00355	6a 00		 push	 0
  00357	8b ce		 mov	 ecx, esi
  00359	e8 00 00 00 00	 call	 ?DrawAnimItem@CGfxOutBarCtrl@@QAEXHHH@Z ; CGfxOutBarCtrl::DrawAnimItem
$LN44@OnLButtonD:

; 2730 : 								}
; 2731 : 
; 2732 : 								if (dwFlags&fSelHighlight && iLastSel >= 0)

  0035e	8b 86 00 01 00
	00		 mov	 eax, DWORD PTR [esi+256]
  00364	a9 00 02 00 00	 test	 eax, 512		; 00000200H
  00369	74 46		 je	 SHORT $LN45@OnLButtonD
  0036b	8b 8e f4 00 00
	00		 mov	 ecx, DWORD PTR [esi+244]
  00371	85 c9		 test	 ecx, ecx
  00373	78 3c		 js	 SHORT $LN45@OnLButtonD

; 2735 : 									GetIconRect(iSelFolder, iLastSel, rc);

  00375	8d 45 e0	 lea	 eax, DWORD PTR _rc$26[ebp]
  00378	0f 57 c0	 xorps	 xmm0, xmm0
  0037b	50		 push	 eax
  0037c	51		 push	 ecx
  0037d	ff b6 34 01 00
	00		 push	 DWORD PTR [esi+308]
  00383	8b ce		 mov	 ecx, esi
; File C:\Program Files (x86)\Microsoft Visual Studio\2019\Community\VC\Tools\MSVC\14.29.30133\atlmfc\include\atltypes.h

; 528  : 	left = 0;

  00385	0f 11 45 e0	 movups	 XMMWORD PTR _rc$26[ebp], xmm0
; File D:\git\src\IBK\IBK_DRFN\ProjSrc\SrcDrfn\Chart\MULTICHART\control\GfxOutBarCtrl.cpp

; 2735 : 									GetIconRect(iSelFolder, iLastSel, rc);

  00389	e8 00 00 00 00	 call	 ?GetIconRect@CGfxOutBarCtrl@@QAEXHHAAVCRect@@@Z ; CGfxOutBarCtrl::GetIconRect
; File C:\Program Files (x86)\Microsoft Visual Studio\2019\Community\VC\Tools\MSVC\14.29.30133\atlmfc\include\atltypes.h

; 686  : 	::InflateRect(this, x, y);

  0038e	6a 01		 push	 1
  00390	6a 01		 push	 1
  00392	8d 45 e0	 lea	 eax, DWORD PTR _rc$26[ebp]
  00395	50		 push	 eax
  00396	ff 15 00 00 00
	00		 call	 DWORD PTR __imp__InflateRect@12
; File C:\Program Files (x86)\Microsoft Visual Studio\2019\Community\VC\Tools\MSVC\14.29.30133\atlmfc\include\afxwin2.inl

; 116  : 	{ ASSERT(::IsWindow(m_hWnd)); ::InvalidateRect(m_hWnd, lpRect, bErase); }

  0039c	6a 01		 push	 1
  0039e	8d 45 e0	 lea	 eax, DWORD PTR _rc$26[ebp]
  003a1	50		 push	 eax
  003a2	ff 76 20	 push	 DWORD PTR [esi+32]
  003a5	ff 15 00 00 00
	00		 call	 DWORD PTR __imp__InvalidateRect@12
  003ab	8b 86 00 01 00
	00		 mov	 eax, DWORD PTR [esi+256]
$LN45@OnLButtonD:
; File D:\git\src\IBK\IBK_DRFN\ProjSrc\SrcDrfn\Chart\MULTICHART\control\GfxOutBarCtrl.cpp

; 2740 : 								iLastSel = index;

  003b1	89 be f4 00 00
	00		 mov	 DWORD PTR [esi+244], edi

; 2741 : 
; 2742 : 								if (dwFlags&fSelHighlight && iLastSel >= 0)

  003b7	a9 00 02 00 00	 test	 eax, 512		; 00000200H
  003bc	74 3a		 je	 SHORT $LN46@OnLButtonD
  003be	85 ff		 test	 edi, edi
  003c0	78 36		 js	 SHORT $LN46@OnLButtonD

; 2745 : 									GetIconRect(iSelFolder, iLastSel, rc);

  003c2	8d 45 e0	 lea	 eax, DWORD PTR _rc$25[ebp]
  003c5	0f 57 c0	 xorps	 xmm0, xmm0
  003c8	50		 push	 eax
  003c9	57		 push	 edi
  003ca	ff b6 34 01 00
	00		 push	 DWORD PTR [esi+308]
  003d0	8b ce		 mov	 ecx, esi
; File C:\Program Files (x86)\Microsoft Visual Studio\2019\Community\VC\Tools\MSVC\14.29.30133\atlmfc\include\atltypes.h

; 528  : 	left = 0;

  003d2	0f 11 45 e0	 movups	 XMMWORD PTR _rc$25[ebp], xmm0
; File D:\git\src\IBK\IBK_DRFN\ProjSrc\SrcDrfn\Chart\MULTICHART\control\GfxOutBarCtrl.cpp

; 2745 : 									GetIconRect(iSelFolder, iLastSel, rc);

  003d6	e8 00 00 00 00	 call	 ?GetIconRect@CGfxOutBarCtrl@@QAEXHHAAVCRect@@@Z ; CGfxOutBarCtrl::GetIconRect
; File C:\Program Files (x86)\Microsoft Visual Studio\2019\Community\VC\Tools\MSVC\14.29.30133\atlmfc\include\atltypes.h

; 686  : 	::InflateRect(this, x, y);

  003db	6a 01		 push	 1
  003dd	6a 01		 push	 1
  003df	8d 45 e0	 lea	 eax, DWORD PTR _rc$25[ebp]
  003e2	50		 push	 eax
  003e3	ff 15 00 00 00
	00		 call	 DWORD PTR __imp__InflateRect@12
; File C:\Program Files (x86)\Microsoft Visual Studio\2019\Community\VC\Tools\MSVC\14.29.30133\atlmfc\include\afxwin2.inl

; 116  : 	{ ASSERT(::IsWindow(m_hWnd)); ::InvalidateRect(m_hWnd, lpRect, bErase); }

  003e9	6a 01		 push	 1
  003eb	8d 45 e0	 lea	 eax, DWORD PTR _rc$25[ebp]
  003ee	50		 push	 eax
  003ef	ff 76 20	 push	 DWORD PTR [esi+32]
  003f2	ff 15 00 00 00
	00		 call	 DWORD PTR __imp__InvalidateRect@12
$LN46@OnLButtonD:

; 27   : 	{ return m_hWndOwner != NULL ? CWnd::FromHandle(m_hWndOwner) : GetParent(); }

  003f8	8b 46 5c	 mov	 eax, DWORD PTR [esi+92]
  003fb	85 c0		 test	 eax, eax
  003fd	75 09		 jne	 SHORT $LN138@OnLButtonD

; 213  : 	{ ASSERT(::IsWindow(m_hWnd)); return CWnd::FromHandle(::GetParent(m_hWnd)); }

  003ff	ff 76 20	 push	 DWORD PTR [esi+32]
  00402	ff 15 00 00 00
	00		 call	 DWORD PTR __imp__GetParent@4
$LN138@OnLButtonD:

; 32   : 	{ ASSERT(::IsWindow(m_hWnd)); return ::SendMessage(m_hWnd, message, wParam, lParam); }

  00408	50		 push	 eax
  00409	e8 00 00 00 00	 call	 ?FromHandle@CWnd@@SGPAV1@PAUHWND__@@@Z ; CWnd::FromHandle
  0040e	ff 75 84	 push	 DWORD PTR _idx$11[ebp]
  00411	6a 06		 push	 6
  00413	68 c1 08 00 00	 push	 2241			; 000008c1H
  00418	ff 70 20	 push	 DWORD PTR [eax+32]
  0041b	ff 15 00 00 00
	00		 call	 DWORD PTR __imp__SendMessageA@16
$ExitLoop4$370:
; File D:\git\src\IBK\IBK_DRFN\ProjSrc\SrcDrfn\Chart\MULTICHART\control\GfxOutBarCtrl.cpp

; 2802 : 			ReleaseCapture();

  00421	ff 15 00 00 00
	00		 call	 DWORD PTR __imp__ReleaseCapture@0

; 2803 : 			AfxUnlockTempMaps(FALSE);

  00427	6a 00		 push	 0
  00429	e8 00 00 00 00	 call	 ?AfxUnlockTempMaps@@YGHH@Z ; AfxUnlockTempMaps

; 2804 : 			if (bDragging) 
; 2805 : 			{
; 2806 : 				Invalidate();
; 2807 : 			}
; 2808 : 		}

  0042e	8d 8d 30 ff ff
	ff		 lea	 ecx, DWORD PTR _dc$3[ebp]
  00434	c7 45 fc ff ff
	ff ff		 mov	 DWORD PTR __$EHRec$[ebp+8], -1
  0043b	e8 00 00 00 00	 call	 ??1CClientDC@@UAE@XZ	; CClientDC::~CClientDC
$LN36@OnLButtonD:

; 2809 : 		bPressedHighlight = false;
; 2810 : 		if (bHigh) InvalidateRect(rc, false);

  00440	80 7d 8b 00	 cmp	 BYTE PTR _bHigh$1$[ebp], 0
  00444	c6 86 28 01 00
	00 00		 mov	 BYTE PTR [esi+296], 0
  0044b	0f 84 ed 05 00
	00		 je	 $LN78@OnLButtonD
; File C:\Program Files (x86)\Microsoft Visual Studio\2019\Community\VC\Tools\MSVC\14.29.30133\atlmfc\include\afxwin2.inl

; 116  : 	{ ASSERT(::IsWindow(m_hWnd)); ::InvalidateRect(m_hWnd, lpRect, bErase); }

  00451	6a 00		 push	 0
  00453	8d 45 b0	 lea	 eax, DWORD PTR _rc$18[ebp]
  00456	50		 push	 eax
  00457	ff 76 20	 push	 DWORD PTR [esi+32]
  0045a	ff 15 00 00 00
	00		 call	 DWORD PTR __imp__InvalidateRect@12
; File D:\git\src\IBK\IBK_DRFN\ProjSrc\SrcDrfn\Chart\MULTICHART\control\GfxOutBarCtrl.cpp

; 2811 : 	}

  00460	e9 d9 05 00 00	 jmp	 $LN78@OnLButtonD
$LN364@OnLButtonD:

; 2610 : 		if (bHigh) InvalidateRect(rc, false);

  00465	8b 45 80	 mov	 eax, DWORD PTR _ht$1$[ebp]
$LN34@OnLButtonD:

; 2812 : 	else iLastItemHighlighted = -1;

  00468	c7 86 24 01 00
	00 ff ff ff ff	 mov	 DWORD PTR [esi+292], -1

; 2813 : 
; 2814 : 	if (ht == htDownScroll)

  00472	83 f8 03	 cmp	 eax, 3
  00475	0f 85 0f 03 00
	00		 jne	 $LN59@OnLButtonD

; 2815 : 	{
; 2816 : 		bLooping = true;

  0047b	c6 86 e4 00 00
	00 01		 mov	 BYTE PTR [esi+228], 1

; 2817 : 		bool bHigh = true;
; 2818 : 
; 2819 : 		if (::GetCapture() == NULL)

  00482	ff d7		 call	 edi
  00484	85 c0		 test	 eax, eax
  00486	0f 85 b2 05 00
	00		 jne	 $LN78@OnLButtonD
; File C:\Program Files (x86)\Microsoft Visual Studio\2019\Community\VC\Tools\MSVC\14.29.30133\atlmfc\include\afxwin2.inl

; 163  : 	{ ASSERT(::IsWindow(m_hWnd)); return CWnd::FromHandle(::SetCapture(m_hWnd)); }

  0048c	ff 76 20	 push	 DWORD PTR [esi+32]
  0048f	ff 15 00 00 00
	00		 call	 DWORD PTR __imp__SetCapture@4
  00495	50		 push	 eax
  00496	e8 00 00 00 00	 call	 ?FromHandle@CWnd@@SGPAV1@PAUHWND__@@@Z ; CWnd::FromHandle
; File D:\git\src\IBK\IBK_DRFN\ProjSrc\SrcDrfn\Chart\MULTICHART\control\GfxOutBarCtrl.cpp

; 2823 : 			CClientDC dc(this);

  0049b	56		 push	 esi
  0049c	8d 8d 30 ff ff
	ff		 lea	 ecx, DWORD PTR _dc$2[ebp]
  004a2	e8 00 00 00 00	 call	 ??0CClientDC@@QAE@PAVCWnd@@@Z ; CClientDC::CClientDC
; File C:\Program Files (x86)\Microsoft Visual Studio\2019\Community\VC\Tools\MSVC\14.29.30133\atlmfc\include\afxwin1.inl

; 512  : 	{ ASSERT(m_hDC != NULL); return ::DrawFrameControl(m_hDC, lpRect, nType, nState); }

  004a7	68 01 02 00 00	 push	 513			; 00000201H
  004ac	6a 03		 push	 3
; File D:\git\src\IBK\IBK_DRFN\ProjSrc\SrcDrfn\Chart\MULTICHART\control\GfxOutBarCtrl.cpp

; 2824 : 			dc.DrawFrameControl(rcDownArrow, DFC_SCROLL, DFCS_SCROLLDOWN|DFCS_PUSHED);

  004ae	8d 86 d4 00 00
	00		 lea	 eax, DWORD PTR [esi+212]
  004b4	c7 45 fc 02 00
	00 00		 mov	 DWORD PTR __$EHRec$[ebp+8], 2
; File C:\Program Files (x86)\Microsoft Visual Studio\2019\Community\VC\Tools\MSVC\14.29.30133\atlmfc\include\afxwin1.inl

; 512  : 	{ ASSERT(m_hDC != NULL); return ::DrawFrameControl(m_hDC, lpRect, nType, nState); }

  004bb	50		 push	 eax
  004bc	ff b5 34 ff ff
	ff		 push	 DWORD PTR _dc$2[ebp+4]
  004c2	ff 15 00 00 00
	00		 call	 DWORD PTR __imp__DrawFrameControl@16
; File C:\Program Files (x86)\Microsoft Visual Studio\2019\Community\VC\Tools\MSVC\14.29.30133\atlmfc\include\afxwin2.inl

; 152  : 	{ ASSERT(::IsWindow(m_hWnd)); return ::SetTimer(m_hWnd, nIDEvent, nElapse,

  004c8	6a 00		 push	 0
  004ca	68 2c 01 00 00	 push	 300			; 0000012cH
  004cf	6a 02		 push	 2
  004d1	ff 76 20	 push	 DWORD PTR [esi+32]
  004d4	ff 15 00 00 00
	00		 call	 DWORD PTR __imp__SetTimer@16
; File D:\git\src\IBK\IBK_DRFN\ProjSrc\SrcDrfn\Chart\MULTICHART\control\GfxOutBarCtrl.cpp

; 2826 : 			AfxLockTempMaps();

  004da	e8 00 00 00 00	 call	 ?AfxLockTempMaps@@YGXXZ	; AfxLockTempMaps

; 2827 : 			for (;;)
; 2828 : 			{
; 2829 : 				MSG msg;
; 2830 : 				VERIFY(::GetMessage(&msg, NULL, 0, 0));

  004df	6a 00		 push	 0
  004e1	6a 00		 push	 0
  004e3	6a 00		 push	 0
  004e5	8d 85 44 ff ff
	ff		 lea	 eax, DWORD PTR _msg$4[ebp]
  004eb	50		 push	 eax
  004ec	ff 15 00 00 00
	00		 call	 DWORD PTR __imp__GetMessageA@16
; File C:\Program Files (x86)\Microsoft Visual Studio\2019\Community\VC\Tools\MSVC\14.29.30133\atlmfc\include\afxwin2.inl

; 161  : 	{ return CWnd::FromHandle(::GetCapture()); }

  004f2	ff d7		 call	 edi
  004f4	50		 push	 eax
  004f5	e8 00 00 00 00	 call	 ?FromHandle@CWnd@@SGPAV1@PAUHWND__@@@Z ; CWnd::FromHandle
; File D:\git\src\IBK\IBK_DRFN\ProjSrc\SrcDrfn\Chart\MULTICHART\control\GfxOutBarCtrl.cpp

; 2832 : 				if (CWnd::GetCapture() != this) break;

  004fa	3b c6		 cmp	 eax, esi
  004fc	0f 85 c7 00 00
	00		 jne	 $ExitLoop3$371
$LL12@OnLButtonD:

; 2833 : 
; 2834 : 				switch (msg.message)

  00502	8b 85 48 ff ff
	ff		 mov	 eax, DWORD PTR _msg$4[ebp+4]
  00508	2d 00 01 00 00	 sub	 eax, 256		; 00000100H
  0050d	0f 84 16 02 00
	00		 je	 $LN74@OnLButtonD
  00513	83 e8 13	 sub	 eax, 19			; 00000013H
  00516	0f 84 41 01 00
	00		 je	 $LN66@OnLButtonD
  0051c	2d ef 00 00 00	 sub	 eax, 239		; 000000efH
  00521	0f 85 0b 02 00
	00		 jne	 $LN75@OnLButtonD
; File C:\Program Files (x86)\Microsoft Visual Studio\2019\Community\VC\Tools\MSVC\14.29.30133\atlmfc\include\afxwin1.inl

; 512  : 	{ ASSERT(m_hDC != NULL); return ::DrawFrameControl(m_hDC, lpRect, nType, nState); }

  00527	6a 01		 push	 1
  00529	6a 03		 push	 3
  0052b	8d be d4 00 00
	00		 lea	 edi, DWORD PTR [esi+212]
  00531	57		 push	 edi
  00532	ff b5 34 ff ff
	ff		 push	 DWORD PTR _dc$2[ebp+4]
  00538	ff 15 00 00 00
	00		 call	 DWORD PTR __imp__DrawFrameControl@16
; File C:\Program Files (x86)\Microsoft Visual Studio\2019\Community\VC\Tools\MSVC\14.29.30133\atlmfc\include\atltypes.h

; 424  : 	x = (short)LOWORD(dwPoint);

  0053e	8b 85 50 ff ff
	ff		 mov	 eax, DWORD PTR _msg$4[ebp+12]
  00544	0f bf c8	 movsx	 ecx, ax

; 425  : 	y = (short)HIWORD(dwPoint);

  00547	c1 e8 10	 shr	 eax, 16			; 00000010H
  0054a	98		 cwde

; 648  : 	return ::PtInRect(this, point);

  0054b	50		 push	 eax
  0054c	51		 push	 ecx
  0054d	57		 push	 edi
; File D:\git\src\IBK\IBK_DRFN\ProjSrc\SrcDrfn\Chart\MULTICHART\control\GfxOutBarCtrl.cpp

; 2869 : 						bDownArrow = false;

  0054e	c6 86 c1 00 00
	00 00		 mov	 BYTE PTR [esi+193], 0
; File C:\Program Files (x86)\Microsoft Visual Studio\2019\Community\VC\Tools\MSVC\14.29.30133\atlmfc\include\atltypes.h

; 648  : 	return ::PtInRect(this, point);

  00555	ff 15 00 00 00
	00		 call	 DWORD PTR __imp__PtInRect@12
; File D:\git\src\IBK\IBK_DRFN\ProjSrc\SrcDrfn\Chart\MULTICHART\control\GfxOutBarCtrl.cpp

; 2871 : 						if (rcDownArrow.PtInRect(pt))

  0055b	85 c0		 test	 eax, eax
  0055d	74 6a		 je	 SHORT $ExitLoop3$371

; 1502 : 	CBarFolder * pbf = (CBarFolder *) arFolder.GetAt(iSelFolder);

  0055f	8b 8e 34 01 00
	00		 mov	 ecx, DWORD PTR [esi+308]
  00565	0f 57 c0	 xorps	 xmm0, xmm0
; File C:\Program Files (x86)\Microsoft Visual Studio\2019\Community\VC\Tools\MSVC\14.29.30133\atlmfc\include\atltypes.h

; 528  : 	left = 0;

  00568	0f 11 45 b0	 movups	 XMMWORD PTR _itrc$17[ebp], xmm0
; File C:\Program Files (x86)\Microsoft Visual Studio\2019\Community\VC\Tools\MSVC\14.29.30133\atlmfc\include\afxcoll.inl

; 203  : 		if( nIndex < 0 || nIndex >= m_nSize )

  0056c	85 c9		 test	 ecx, ecx
  0056e	0f 88 ee 04 00
	00		 js	 $LN195@OnLButtonD
  00574	3b 8e 0c 01 00
	00		 cmp	 ecx, DWORD PTR [esi+268]
  0057a	0f 8d e2 04 00
	00		 jge	 $LN195@OnLButtonD

; 205  : 		return m_pData[nIndex]; }

  00580	8b 86 08 01 00
	00		 mov	 eax, DWORD PTR [esi+264]
; File D:\git\src\IBK\IBK_DRFN\ProjSrc\SrcDrfn\Chart\MULTICHART\control\GfxOutBarCtrl.cpp

; 2874 : 							GetItemRect(iSelFolder, GetItemCount() - 1, itrc);

  00586	8d 55 b0	 lea	 edx, DWORD PTR _itrc$17[ebp]
  00589	52		 push	 edx
; File C:\Program Files (x86)\Microsoft Visual Studio\2019\Community\VC\Tools\MSVC\14.29.30133\atlmfc\include\afxcoll.inl

; 205  : 		return m_pData[nIndex]; }

  0058a	8b 04 88	 mov	 eax, DWORD PTR [eax+ecx*4]
; File D:\git\src\IBK\IBK_DRFN\ProjSrc\SrcDrfn\Chart\MULTICHART\control\GfxOutBarCtrl.cpp

; 1503 : 	return 	pbf->GetItemCount();

  0058d	8b 40 1c	 mov	 eax, DWORD PTR [eax+28]

; 2874 : 							GetItemRect(iSelFolder, GetItemCount() - 1, itrc);

  00590	48		 dec	 eax
  00591	50		 push	 eax
  00592	51		 push	 ecx
  00593	8b ce		 mov	 ecx, esi
  00595	e8 00 00 00 00	 call	 ?GetItemRect@CGfxOutBarCtrl@@QAEXHHAAVCRect@@@Z ; CGfxOutBarCtrl::GetItemRect

; 2876 : 							GetInsideRect(crc);

  0059a	8d 45 e0	 lea	 eax, DWORD PTR _crc$24[ebp]
  0059d	0f 57 c0	 xorps	 xmm0, xmm0
  005a0	50		 push	 eax
  005a1	8b ce		 mov	 ecx, esi
; File C:\Program Files (x86)\Microsoft Visual Studio\2019\Community\VC\Tools\MSVC\14.29.30133\atlmfc\include\atltypes.h

; 528  : 	left = 0;

  005a3	0f 11 45 e0	 movups	 XMMWORD PTR _crc$24[ebp], xmm0
; File D:\git\src\IBK\IBK_DRFN\ProjSrc\SrcDrfn\Chart\MULTICHART\control\GfxOutBarCtrl.cpp

; 2876 : 							GetInsideRect(crc);

  005a7	e8 00 00 00 00	 call	 ?GetInsideRect@CGfxOutBarCtrl@@QBEXAAVCRect@@@Z ; CGfxOutBarCtrl::GetInsideRect

; 2877 : 							if (itrc.bottom > crc.bottom)

  005ac	8b 45 bc	 mov	 eax, DWORD PTR _itrc$17[ebp+12]
  005af	3b 45 ec	 cmp	 eax, DWORD PTR _crc$24[ebp+12]
  005b2	7e 15		 jle	 SHORT $ExitLoop3$371

; 2878 : 							{
; 2879 : 								iFirstItem ++;

  005b4	ff 86 20 01 00
	00		 inc	 DWORD PTR [esi+288]
; File C:\Program Files (x86)\Microsoft Visual Studio\2019\Community\VC\Tools\MSVC\14.29.30133\atlmfc\include\afxwin2.inl

; 116  : 	{ ASSERT(::IsWindow(m_hWnd)); ::InvalidateRect(m_hWnd, lpRect, bErase); }

  005ba	8d 45 e0	 lea	 eax, DWORD PTR _crc$24[ebp]
  005bd	6a 01		 push	 1
  005bf	50		 push	 eax
  005c0	ff 76 20	 push	 DWORD PTR [esi+32]
  005c3	ff 15 00 00 00
	00		 call	 DWORD PTR __imp__InvalidateRect@12
$ExitLoop3$371:

; 155  : 	{ ASSERT(::IsWindow(m_hWnd)); return ::KillTimer(m_hWnd, nIDEvent); }

  005c9	6a 02		 push	 2
  005cb	ff 76 20	 push	 DWORD PTR [esi+32]
  005ce	ff 15 00 00 00
	00		 call	 DWORD PTR __imp__KillTimer@8
; File D:\git\src\IBK\IBK_DRFN\ProjSrc\SrcDrfn\Chart\MULTICHART\control\GfxOutBarCtrl.cpp

; 2927 : 			ReleaseCapture();

  005d4	ff 15 00 00 00
	00		 call	 DWORD PTR __imp__ReleaseCapture@0

; 2928 : 			AfxUnlockTempMaps(FALSE);

  005da	6a 00		 push	 0
  005dc	e8 00 00 00 00	 call	 ?AfxUnlockTempMaps@@YGHH@Z ; AfxUnlockTempMaps
; File C:\Program Files (x86)\Microsoft Visual Studio\2019\Community\VC\Tools\MSVC\14.29.30133\atlmfc\include\afxwin2.inl

; 86   : 	{ ASSERT(::IsWindow(m_hWnd)); ::GetClientRect(m_hWnd, lpRect); }

  005e1	8d 45 d0	 lea	 eax, DWORD PTR _crc$20[ebp]
; File D:\git\src\IBK\IBK_DRFN\ProjSrc\SrcDrfn\Chart\MULTICHART\control\GfxOutBarCtrl.cpp

; 2929 : 			bLooping = false;

  005e4	c6 86 e4 00 00
	00 00		 mov	 BYTE PTR [esi+228], 0
; File C:\Program Files (x86)\Microsoft Visual Studio\2019\Community\VC\Tools\MSVC\14.29.30133\atlmfc\include\afxwin2.inl

; 86   : 	{ ASSERT(::IsWindow(m_hWnd)); ::GetClientRect(m_hWnd, lpRect); }

  005eb	50		 push	 eax
  005ec	ff 76 20	 push	 DWORD PTR [esi+32]
  005ef	0f 57 c0	 xorps	 xmm0, xmm0
; File D:\git\src\IBK\IBK_DRFN\ProjSrc\SrcDrfn\Chart\MULTICHART\control\GfxOutBarCtrl.cpp

; 2930 : 			bDownPressed = false;

  005f2	c6 86 c3 00 00
	00 00		 mov	 BYTE PTR [esi+195], 0

; 2931 : 			bDownArrow = false;

  005f9	c6 86 c1 00 00
	00 00		 mov	 BYTE PTR [esi+193], 0
; File C:\Program Files (x86)\Microsoft Visual Studio\2019\Community\VC\Tools\MSVC\14.29.30133\atlmfc\include\atltypes.h

; 528  : 	left = 0;

  00600	0f 11 45 d0	 movups	 XMMWORD PTR _crc$20[ebp], xmm0
; File C:\Program Files (x86)\Microsoft Visual Studio\2019\Community\VC\Tools\MSVC\14.29.30133\atlmfc\include\afxwin2.inl

; 86   : 	{ ASSERT(::IsWindow(m_hWnd)); ::GetClientRect(m_hWnd, lpRect); }

  00604	ff 15 00 00 00
	00		 call	 DWORD PTR __imp__GetClientRect@8
; File C:\Program Files (x86)\Microsoft Visual Studio\2019\Community\VC\Tools\MSVC\14.29.30133\atlmfc\include\atltypes.h

; 698  : 	::InflateRect(this, -x, -y);

  0060a	6a fc		 push	 -4			; fffffffcH
  0060c	6a fc		 push	 -4			; fffffffcH
  0060e	8d 45 d0	 lea	 eax, DWORD PTR _crc$20[ebp]
  00611	50		 push	 eax
  00612	ff 15 00 00 00
	00		 call	 DWORD PTR __imp__InflateRect@12
; File D:\git\src\IBK\IBK_DRFN\ProjSrc\SrcDrfn\Chart\MULTICHART\control\GfxOutBarCtrl.cpp

; 783  : 	if (arFolder.GetSize() > 0)

  00618	8b be 0c 01 00
	00		 mov	 edi, DWORD PTR [esi+268]
  0061e	85 ff		 test	 edi, edi
  00620	0f 8e 4a 01 00
	00		 jle	 $LN226@OnLButtonD

; 784  : 	{
; 785  : 		int max = arFolder.GetSize();
; 786  : 		rect.top += iFolderHeight * (iSelFolder + 1);

  00626	8b 96 34 01 00
	00		 mov	 edx, DWORD PTR [esi+308]

; 787  : 		if(iSelFolder == arFolder.GetSize() - 1)

  0062c	2b fa		 sub	 edi, edx
  0062e	8b 8e a0 00 00
	00		 mov	 ecx, DWORD PTR [esi+160]
  00634	4f		 dec	 edi
  00635	0f af f9	 imul	 edi, ecx
  00638	8d 42 01	 lea	 eax, DWORD PTR [edx+1]
  0063b	0f af c1	 imul	 eax, ecx
  0063e	01 45 d4	 add	 DWORD PTR _crc$20[ebp+4], eax
  00641	8b 86 0c 01 00
	00		 mov	 eax, DWORD PTR [esi+268]
  00647	48		 dec	 eax
  00648	3b d0		 cmp	 edx, eax
  0064a	0f 85 17 01 00
	00		 jne	 $LN227@OnLButtonD

; 788  : 			rect.bottom -= (max - iSelFolder - 1)*iFolderHeight + 1;

  00650	83 c8 ff	 or	 eax, -1
  00653	2b c7		 sub	 eax, edi
  00655	01 45 dc	 add	 DWORD PTR _crc$20[ebp+12], eax
  00658	e9 0d 01 00 00	 jmp	 $LN228@OnLButtonD
$LN66@OnLButtonD:

; 2880 : 								InvalidateRect(crc, true);
; 2881 : 							}
; 2882 : 						}
; 2883 : 					}
; 2884 : 					goto ExitLoop3;
; 2885 : 
; 2886 : 
; 2887 : 				case WM_TIMER:
; 2888 : 					{
; 2889 : 						if (msg.wParam == 2)

  0065d	83 bd 4c ff ff
	ff 02		 cmp	 DWORD PTR _msg$4[ebp+8], 2
  00664	0f 85 d5 00 00
	00		 jne	 $LN15@OnLButtonD
; File C:\Program Files (x86)\Microsoft Visual Studio\2019\Community\VC\Tools\MSVC\14.29.30133\atlmfc\include\atltypes.h

; 414  : 	*(POINT*)this = initPt;

  0066a	8b 85 58 ff ff
	ff		 mov	 eax, DWORD PTR _msg$4[ebp+20]
  00670	8b 8d 5c ff ff
	ff		 mov	 ecx, DWORD PTR _msg$4[ebp+24]
  00676	89 85 7c ff ff
	ff		 mov	 DWORD PTR _pt$10[ebp], eax
; File C:\Program Files (x86)\Microsoft Visual Studio\2019\Community\VC\Tools\MSVC\14.29.30133\atlmfc\include\afxwin2.inl

; 94   : 	{ ASSERT(::IsWindow(m_hWnd)); ::ScreenToClient(m_hWnd, lpPoint); }

  0067c	8d 85 7c ff ff
	ff		 lea	 eax, DWORD PTR _pt$10[ebp]
  00682	50		 push	 eax
  00683	ff 76 20	 push	 DWORD PTR [esi+32]
; File C:\Program Files (x86)\Microsoft Visual Studio\2019\Community\VC\Tools\MSVC\14.29.30133\atlmfc\include\atltypes.h

; 414  : 	*(POINT*)this = initPt;

  00686	89 4d 80	 mov	 DWORD PTR _pt$10[ebp+4], ecx
; File C:\Program Files (x86)\Microsoft Visual Studio\2019\Community\VC\Tools\MSVC\14.29.30133\atlmfc\include\afxwin2.inl

; 94   : 	{ ASSERT(::IsWindow(m_hWnd)); ::ScreenToClient(m_hWnd, lpPoint); }

  00689	ff 15 00 00 00
	00		 call	 DWORD PTR __imp__ScreenToClient@8
; File C:\Program Files (x86)\Microsoft Visual Studio\2019\Community\VC\Tools\MSVC\14.29.30133\atlmfc\include\atltypes.h

; 648  : 	return ::PtInRect(this, point);

  0068f	ff 75 80	 push	 DWORD PTR _pt$10[ebp+4]
  00692	8d 86 d4 00 00
	00		 lea	 eax, DWORD PTR [esi+212]
  00698	ff b5 7c ff ff
	ff		 push	 DWORD PTR _pt$10[ebp]
  0069e	50		 push	 eax
  0069f	ff 15 00 00 00
	00		 call	 DWORD PTR __imp__PtInRect@12
; File D:\git\src\IBK\IBK_DRFN\ProjSrc\SrcDrfn\Chart\MULTICHART\control\GfxOutBarCtrl.cpp

; 2895 : 								if (rcDownArrow.PtInRect(pt))

  006a5	85 c0		 test	 eax, eax
  006a7	74 77		 je	 SHORT $LN69@OnLButtonD

; 1502 : 	CBarFolder * pbf = (CBarFolder *) arFolder.GetAt(iSelFolder);

  006a9	8b 8e 34 01 00
	00		 mov	 ecx, DWORD PTR [esi+308]
  006af	0f 57 c0	 xorps	 xmm0, xmm0

; 2896 : 								{
; 2897 : 									bDownPressed = true;

  006b2	c6 86 c3 00 00
	00 01		 mov	 BYTE PTR [esi+195], 1
; File C:\Program Files (x86)\Microsoft Visual Studio\2019\Community\VC\Tools\MSVC\14.29.30133\atlmfc\include\atltypes.h

; 528  : 	left = 0;

  006b9	0f 11 45 b0	 movups	 XMMWORD PTR _itrc$16[ebp], xmm0
; File C:\Program Files (x86)\Microsoft Visual Studio\2019\Community\VC\Tools\MSVC\14.29.30133\atlmfc\include\afxcoll.inl

; 203  : 		if( nIndex < 0 || nIndex >= m_nSize )

  006bd	85 c9		 test	 ecx, ecx
  006bf	0f 88 9d 03 00
	00		 js	 $LN195@OnLButtonD
  006c5	3b 8e 0c 01 00
	00		 cmp	 ecx, DWORD PTR [esi+268]
  006cb	0f 8d 91 03 00
	00		 jge	 $LN195@OnLButtonD

; 205  : 		return m_pData[nIndex]; }

  006d1	8b 86 08 01 00
	00		 mov	 eax, DWORD PTR [esi+264]
; File D:\git\src\IBK\IBK_DRFN\ProjSrc\SrcDrfn\Chart\MULTICHART\control\GfxOutBarCtrl.cpp

; 2899 : 									GetItemRect(iSelFolder, GetItemCount() - 1, itrc);

  006d7	8d 55 b0	 lea	 edx, DWORD PTR _itrc$16[ebp]
  006da	52		 push	 edx
; File C:\Program Files (x86)\Microsoft Visual Studio\2019\Community\VC\Tools\MSVC\14.29.30133\atlmfc\include\afxcoll.inl

; 205  : 		return m_pData[nIndex]; }

  006db	8b 04 88	 mov	 eax, DWORD PTR [eax+ecx*4]
; File D:\git\src\IBK\IBK_DRFN\ProjSrc\SrcDrfn\Chart\MULTICHART\control\GfxOutBarCtrl.cpp

; 1503 : 	return 	pbf->GetItemCount();

  006de	8b 40 1c	 mov	 eax, DWORD PTR [eax+28]

; 2899 : 									GetItemRect(iSelFolder, GetItemCount() - 1, itrc);

  006e1	48		 dec	 eax
  006e2	50		 push	 eax
  006e3	51		 push	 ecx
  006e4	8b ce		 mov	 ecx, esi
  006e6	e8 00 00 00 00	 call	 ?GetItemRect@CGfxOutBarCtrl@@QAEXHHAAVCRect@@@Z ; CGfxOutBarCtrl::GetItemRect

; 2901 : 									GetInsideRect(crc);

  006eb	8d 45 e0	 lea	 eax, DWORD PTR _crc$23[ebp]
  006ee	0f 57 c0	 xorps	 xmm0, xmm0
  006f1	50		 push	 eax
  006f2	8b ce		 mov	 ecx, esi
; File C:\Program Files (x86)\Microsoft Visual Studio\2019\Community\VC\Tools\MSVC\14.29.30133\atlmfc\include\atltypes.h

; 528  : 	left = 0;

  006f4	0f 11 45 e0	 movups	 XMMWORD PTR _crc$23[ebp], xmm0
; File D:\git\src\IBK\IBK_DRFN\ProjSrc\SrcDrfn\Chart\MULTICHART\control\GfxOutBarCtrl.cpp

; 2901 : 									GetInsideRect(crc);

  006f8	e8 00 00 00 00	 call	 ?GetInsideRect@CGfxOutBarCtrl@@QBEXAAVCRect@@@Z ; CGfxOutBarCtrl::GetInsideRect

; 2902 : 									if (itrc.bottom > crc.bottom)

  006fd	8b 45 bc	 mov	 eax, DWORD PTR _itrc$16[ebp+12]
  00700	3b 45 ec	 cmp	 eax, DWORD PTR _crc$23[ebp+12]
  00703	0f 8e c0 fe ff
	ff		 jle	 $ExitLoop3$371

; 2903 : 									{
; 2904 : 										iFirstItem ++;

  00709	ff 86 20 01 00
	00		 inc	 DWORD PTR [esi+288]
; File C:\Program Files (x86)\Microsoft Visual Studio\2019\Community\VC\Tools\MSVC\14.29.30133\atlmfc\include\afxwin2.inl

; 116  : 	{ ASSERT(::IsWindow(m_hWnd)); ::InvalidateRect(m_hWnd, lpRect, bErase); }

  0070f	8d 45 e0	 lea	 eax, DWORD PTR _crc$23[ebp]
  00712	6a 01		 push	 1
  00714	50		 push	 eax
  00715	ff 76 20	 push	 DWORD PTR [esi+32]
  00718	ff 15 00 00 00
	00		 call	 DWORD PTR __imp__InvalidateRect@12
; File D:\git\src\IBK\IBK_DRFN\ProjSrc\SrcDrfn\Chart\MULTICHART\control\GfxOutBarCtrl.cpp

; 2908 : 								}

  0071e	eb 1f		 jmp	 SHORT $LN15@OnLButtonD
$LN69@OnLButtonD:

; 2909 : 								else bDownPressed = false;

  00720	c6 86 c3 00 00
	00 00		 mov	 BYTE PTR [esi+195], 0

; 2910 : 							}
; 2911 : 						}
; 2912 : 						break;

  00727	eb 16		 jmp	 SHORT $LN15@OnLButtonD
$LN74@OnLButtonD:

; 2913 : 					}
; 2914 : 
; 2915 : 				case WM_KEYDOWN:	
; 2916 : 					if (msg.wParam != VK_ESCAPE) 

  00729	83 bd 4c ff ff
	ff 1b		 cmp	 DWORD PTR _msg$4[ebp+8], 27 ; 0000001bH
  00730	75 0d		 jne	 SHORT $LN15@OnLButtonD
$LN75@OnLButtonD:

; 2917 : 						break;
; 2918 : 
; 2919 : 				default:
; 2920 : 					DispatchMessage(&msg);

  00732	8d 85 44 ff ff
	ff		 lea	 eax, DWORD PTR _msg$4[ebp]
  00738	50		 push	 eax
  00739	ff 15 00 00 00
	00		 call	 DWORD PTR __imp__DispatchMessageA@4
$LN15@OnLButtonD:

; 2827 : 			for (;;)
; 2828 : 			{
; 2829 : 				MSG msg;
; 2830 : 				VERIFY(::GetMessage(&msg, NULL, 0, 0));

  0073f	6a 00		 push	 0
  00741	6a 00		 push	 0
  00743	6a 00		 push	 0
  00745	8d 85 44 ff ff
	ff		 lea	 eax, DWORD PTR _msg$4[ebp]
  0074b	50		 push	 eax
  0074c	ff 15 00 00 00
	00		 call	 DWORD PTR __imp__GetMessageA@16
; File C:\Program Files (x86)\Microsoft Visual Studio\2019\Community\VC\Tools\MSVC\14.29.30133\atlmfc\include\afxwin2.inl

; 161  : 	{ return CWnd::FromHandle(::GetCapture()); }

  00752	ff d7		 call	 edi
  00754	50		 push	 eax
  00755	e8 00 00 00 00	 call	 ?FromHandle@CWnd@@SGPAV1@PAUHWND__@@@Z ; CWnd::FromHandle
; File D:\git\src\IBK\IBK_DRFN\ProjSrc\SrcDrfn\Chart\MULTICHART\control\GfxOutBarCtrl.cpp

; 2832 : 				if (CWnd::GetCapture() != this) break;

  0075a	3b c6		 cmp	 eax, esi
  0075c	0f 84 a0 fd ff
	ff		 je	 $LL12@OnLButtonD
  00762	e9 62 fe ff ff	 jmp	 $ExitLoop3$371
$LN227@OnLButtonD:

; 790  : 			rect.bottom -= (max - iSelFolder - 1)*iFolderHeight;

  00767	29 7d dc	 sub	 DWORD PTR _crc$20[ebp+12], edi
$LN228@OnLButtonD:

; 791  : 		rect.left += 1;//+ 2;

  0076a	ff 45 d0	 inc	 DWORD PTR _crc$20[ebp]

; 792  : 		rect.right -= 1;

  0076d	ff 4d d8	 dec	 DWORD PTR _crc$20[ebp+8]
$LN226@OnLButtonD:
; File C:\Program Files (x86)\Microsoft Visual Studio\2019\Community\VC\Tools\MSVC\14.29.30133\atlmfc\include\afxwin2.inl

; 116  : 	{ ASSERT(::IsWindow(m_hWnd)); ::InvalidateRect(m_hWnd, lpRect, bErase); }

  00770	6a 01		 push	 1
  00772	8d 45 d0	 lea	 eax, DWORD PTR _crc$20[ebp]
  00775	50		 push	 eax
  00776	ff 76 20	 push	 DWORD PTR [esi+32]
  00779	ff 15 00 00 00
	00		 call	 DWORD PTR __imp__InvalidateRect@12
; File D:\git\src\IBK\IBK_DRFN\ProjSrc\SrcDrfn\Chart\MULTICHART\control\GfxOutBarCtrl.cpp

; 2935 : 		}

  0077f	8d 8d 30 ff ff
	ff		 lea	 ecx, DWORD PTR _dc$2[ebp]
  00785	e9 a8 02 00 00	 jmp	 $LN367@OnLButtonD
$LN59@OnLButtonD:

; 2936 : 	}
; 2937 : 
; 2938 : 	if (ht == htUpScroll)

  0078a	83 f8 02	 cmp	 eax, 2
  0078d	0f 85 ab 02 00
	00		 jne	 $LN78@OnLButtonD

; 2939 : 	{
; 2940 : 		bLooping = true;

  00793	c6 86 e4 00 00
	00 01		 mov	 BYTE PTR [esi+228], 1

; 2941 : 		bool bHigh = true;
; 2942 : 
; 2943 : 		if (::GetCapture() == NULL)

  0079a	ff d7		 call	 edi
  0079c	85 c0		 test	 eax, eax
  0079e	0f 85 9a 02 00
	00		 jne	 $LN78@OnLButtonD
; File C:\Program Files (x86)\Microsoft Visual Studio\2019\Community\VC\Tools\MSVC\14.29.30133\atlmfc\include\afxwin2.inl

; 163  : 	{ ASSERT(::IsWindow(m_hWnd)); return CWnd::FromHandle(::SetCapture(m_hWnd)); }

  007a4	ff 76 20	 push	 DWORD PTR [esi+32]
  007a7	ff 15 00 00 00
	00		 call	 DWORD PTR __imp__SetCapture@4
  007ad	50		 push	 eax
  007ae	e8 00 00 00 00	 call	 ?FromHandle@CWnd@@SGPAV1@PAUHWND__@@@Z ; CWnd::FromHandle
; File D:\git\src\IBK\IBK_DRFN\ProjSrc\SrcDrfn\Chart\MULTICHART\control\GfxOutBarCtrl.cpp

; 2947 : 			CClientDC dc(this);

  007b3	56		 push	 esi
  007b4	8d 8d 4c ff ff
	ff		 lea	 ecx, DWORD PTR _dc$5[ebp]
  007ba	e8 00 00 00 00	 call	 ??0CClientDC@@QAE@PAVCWnd@@@Z ; CClientDC::CClientDC
; File C:\Program Files (x86)\Microsoft Visual Studio\2019\Community\VC\Tools\MSVC\14.29.30133\atlmfc\include\afxwin1.inl

; 512  : 	{ ASSERT(m_hDC != NULL); return ::DrawFrameControl(m_hDC, lpRect, nType, nState); }

  007bf	68 00 02 00 00	 push	 512			; 00000200H
  007c4	6a 03		 push	 3
; File D:\git\src\IBK\IBK_DRFN\ProjSrc\SrcDrfn\Chart\MULTICHART\control\GfxOutBarCtrl.cpp

; 2948 : 			dc.DrawFrameControl(rcUpArrow, DFC_SCROLL, DFCS_SCROLLUP|DFCS_PUSHED);

  007c6	8d 86 c4 00 00
	00		 lea	 eax, DWORD PTR [esi+196]
  007cc	c7 45 fc 03 00
	00 00		 mov	 DWORD PTR __$EHRec$[ebp+8], 3
; File C:\Program Files (x86)\Microsoft Visual Studio\2019\Community\VC\Tools\MSVC\14.29.30133\atlmfc\include\afxwin1.inl

; 512  : 	{ ASSERT(m_hDC != NULL); return ::DrawFrameControl(m_hDC, lpRect, nType, nState); }

  007d3	50		 push	 eax
  007d4	ff b5 50 ff ff
	ff		 push	 DWORD PTR _dc$5[ebp+4]
  007da	ff 15 00 00 00
	00		 call	 DWORD PTR __imp__DrawFrameControl@16
; File C:\Program Files (x86)\Microsoft Visual Studio\2019\Community\VC\Tools\MSVC\14.29.30133\atlmfc\include\afxwin2.inl

; 152  : 	{ ASSERT(::IsWindow(m_hWnd)); return ::SetTimer(m_hWnd, nIDEvent, nElapse,

  007e0	6a 00		 push	 0
  007e2	68 2c 01 00 00	 push	 300			; 0000012cH
  007e7	6a 02		 push	 2
  007e9	ff 76 20	 push	 DWORD PTR [esi+32]
  007ec	ff 15 00 00 00
	00		 call	 DWORD PTR __imp__SetTimer@16
; File D:\git\src\IBK\IBK_DRFN\ProjSrc\SrcDrfn\Chart\MULTICHART\control\GfxOutBarCtrl.cpp

; 2950 : 			AfxLockTempMaps();

  007f2	e8 00 00 00 00	 call	 ?AfxLockTempMaps@@YGXXZ	; AfxLockTempMaps

; 2951 : 			for (;;)
; 2952 : 			{
; 2953 : 				MSG msg;
; 2954 : 				VERIFY(::GetMessage(&msg, NULL, 0, 0));

  007f7	6a 00		 push	 0
  007f9	6a 00		 push	 0
  007fb	6a 00		 push	 0
  007fd	8d 85 60 ff ff
	ff		 lea	 eax, DWORD PTR _msg$6[ebp]
  00803	50		 push	 eax
  00804	ff 15 00 00 00
	00		 call	 DWORD PTR __imp__GetMessageA@16
; File C:\Program Files (x86)\Microsoft Visual Studio\2019\Community\VC\Tools\MSVC\14.29.30133\atlmfc\include\afxwin2.inl

; 161  : 	{ return CWnd::FromHandle(::GetCapture()); }

  0080a	ff d7		 call	 edi
  0080c	50		 push	 eax
  0080d	e8 00 00 00 00	 call	 ?FromHandle@CWnd@@SGPAV1@PAUHWND__@@@Z ; CWnd::FromHandle
; File D:\git\src\IBK\IBK_DRFN\ProjSrc\SrcDrfn\Chart\MULTICHART\control\GfxOutBarCtrl.cpp

; 2956 : 				if (CWnd::GetCapture() != this) break;

  00812	3b c6		 cmp	 eax, esi
  00814	0f 85 94 00 00
	00		 jne	 $ExitLoop$372
  0081a	66 0f 1f 44 00
	00		 npad	 6
$LL17@OnLButtonD:

; 2957 : 
; 2958 : 				switch (msg.message)

  00820	8b 85 64 ff ff
	ff		 mov	 eax, DWORD PTR _msg$6[ebp+4]
  00826	2d 00 01 00 00	 sub	 eax, 256		; 00000100H
  0082b	0f 84 a5 01 00
	00		 je	 $LN93@OnLButtonD
  00831	83 e8 13	 sub	 eax, 19			; 00000013H
  00834	0f 84 08 01 00
	00		 je	 $LN85@OnLButtonD
  0083a	2d ef 00 00 00	 sub	 eax, 239		; 000000efH
  0083f	0f 85 9a 01 00
	00		 jne	 $LN94@OnLButtonD
; File C:\Program Files (x86)\Microsoft Visual Studio\2019\Community\VC\Tools\MSVC\14.29.30133\atlmfc\include\afxwin1.inl

; 512  : 	{ ASSERT(m_hDC != NULL); return ::DrawFrameControl(m_hDC, lpRect, nType, nState); }

  00845	50		 push	 eax
  00846	6a 03		 push	 3
  00848	8d be c4 00 00
	00		 lea	 edi, DWORD PTR [esi+196]
  0084e	57		 push	 edi
  0084f	ff b5 50 ff ff
	ff		 push	 DWORD PTR _dc$5[ebp+4]
  00855	ff 15 00 00 00
	00		 call	 DWORD PTR __imp__DrawFrameControl@16
; File C:\Program Files (x86)\Microsoft Visual Studio\2019\Community\VC\Tools\MSVC\14.29.30133\atlmfc\include\atltypes.h

; 424  : 	x = (short)LOWORD(dwPoint);

  0085b	8b 85 6c ff ff
	ff		 mov	 eax, DWORD PTR _msg$6[ebp+12]
  00861	0f bf c8	 movsx	 ecx, ax

; 425  : 	y = (short)HIWORD(dwPoint);

  00864	c1 e8 10	 shr	 eax, 16			; 00000010H
  00867	98		 cwde

; 648  : 	return ::PtInRect(this, point);

  00868	50		 push	 eax
  00869	51		 push	 ecx
  0086a	57		 push	 edi
; File D:\git\src\IBK\IBK_DRFN\ProjSrc\SrcDrfn\Chart\MULTICHART\control\GfxOutBarCtrl.cpp

; 2993 : 						bUpArrow = false;

  0086b	c6 86 c0 00 00
	00 00		 mov	 BYTE PTR [esi+192], 0
; File C:\Program Files (x86)\Microsoft Visual Studio\2019\Community\VC\Tools\MSVC\14.29.30133\atlmfc\include\atltypes.h

; 648  : 	return ::PtInRect(this, point);

  00872	ff 15 00 00 00
	00		 call	 DWORD PTR __imp__PtInRect@12
; File D:\git\src\IBK\IBK_DRFN\ProjSrc\SrcDrfn\Chart\MULTICHART\control\GfxOutBarCtrl.cpp

; 2995 : 						if (rcUpArrow.PtInRect(pt))

  00878	85 c0		 test	 eax, eax
  0087a	74 32		 je	 SHORT $ExitLoop$372

; 2996 : 						{
; 2997 : 							if (iFirstItem > 0 ) 

  0087c	8b 86 20 01 00
	00		 mov	 eax, DWORD PTR [esi+288]
  00882	85 c0		 test	 eax, eax
  00884	7e 28		 jle	 SHORT $ExitLoop$372

; 2998 : 							{
; 2999 : 								iFirstItem --;

  00886	48		 dec	 eax
  00887	0f 57 c0	 xorps	 xmm0, xmm0
  0088a	89 86 20 01 00
	00		 mov	 DWORD PTR [esi+288], eax

; 3001 : 								GetInsideRect(crc);

  00890	8b ce		 mov	 ecx, esi
  00892	8d 45 b0	 lea	 eax, DWORD PTR _crc$15[ebp]
  00895	50		 push	 eax
; File C:\Program Files (x86)\Microsoft Visual Studio\2019\Community\VC\Tools\MSVC\14.29.30133\atlmfc\include\atltypes.h

; 528  : 	left = 0;

  00896	0f 11 45 b0	 movups	 XMMWORD PTR _crc$15[ebp], xmm0
; File D:\git\src\IBK\IBK_DRFN\ProjSrc\SrcDrfn\Chart\MULTICHART\control\GfxOutBarCtrl.cpp

; 3001 : 								GetInsideRect(crc);

  0089a	e8 00 00 00 00	 call	 ?GetInsideRect@CGfxOutBarCtrl@@QBEXAAVCRect@@@Z ; CGfxOutBarCtrl::GetInsideRect
; File C:\Program Files (x86)\Microsoft Visual Studio\2019\Community\VC\Tools\MSVC\14.29.30133\atlmfc\include\afxwin2.inl

; 116  : 	{ ASSERT(::IsWindow(m_hWnd)); ::InvalidateRect(m_hWnd, lpRect, bErase); }

  0089f	6a 01		 push	 1
  008a1	8d 45 b0	 lea	 eax, DWORD PTR _crc$15[ebp]
  008a4	50		 push	 eax
  008a5	ff 76 20	 push	 DWORD PTR [esi+32]
  008a8	ff 15 00 00 00
	00		 call	 DWORD PTR __imp__InvalidateRect@12
$ExitLoop$372:

; 155  : 	{ ASSERT(::IsWindow(m_hWnd)); return ::KillTimer(m_hWnd, nIDEvent); }

  008ae	6a 02		 push	 2
  008b0	ff 76 20	 push	 DWORD PTR [esi+32]
  008b3	ff 15 00 00 00
	00		 call	 DWORD PTR __imp__KillTimer@8
; File D:\git\src\IBK\IBK_DRFN\ProjSrc\SrcDrfn\Chart\MULTICHART\control\GfxOutBarCtrl.cpp

; 3045 : 			ReleaseCapture();

  008b9	ff 15 00 00 00
	00		 call	 DWORD PTR __imp__ReleaseCapture@0

; 3046 : 			AfxUnlockTempMaps(FALSE);

  008bf	6a 00		 push	 0
  008c1	e8 00 00 00 00	 call	 ?AfxUnlockTempMaps@@YGHH@Z ; AfxUnlockTempMaps
; File C:\Program Files (x86)\Microsoft Visual Studio\2019\Community\VC\Tools\MSVC\14.29.30133\atlmfc\include\afxwin2.inl

; 86   : 	{ ASSERT(::IsWindow(m_hWnd)); ::GetClientRect(m_hWnd, lpRect); }

  008c6	8d 45 c0	 lea	 eax, DWORD PTR _crc$19[ebp]
; File D:\git\src\IBK\IBK_DRFN\ProjSrc\SrcDrfn\Chart\MULTICHART\control\GfxOutBarCtrl.cpp

; 3047 : 			bLooping = false;

  008c9	c6 86 e4 00 00
	00 00		 mov	 BYTE PTR [esi+228], 0
; File C:\Program Files (x86)\Microsoft Visual Studio\2019\Community\VC\Tools\MSVC\14.29.30133\atlmfc\include\afxwin2.inl

; 86   : 	{ ASSERT(::IsWindow(m_hWnd)); ::GetClientRect(m_hWnd, lpRect); }

  008d0	50		 push	 eax
  008d1	ff 76 20	 push	 DWORD PTR [esi+32]
  008d4	0f 57 c0	 xorps	 xmm0, xmm0
; File D:\git\src\IBK\IBK_DRFN\ProjSrc\SrcDrfn\Chart\MULTICHART\control\GfxOutBarCtrl.cpp

; 3048 : 			bUpPressed = false;

  008d7	c6 86 c2 00 00
	00 00		 mov	 BYTE PTR [esi+194], 0

; 3049 : 			bUpArrow = false;

  008de	c6 86 c0 00 00
	00 00		 mov	 BYTE PTR [esi+192], 0
; File C:\Program Files (x86)\Microsoft Visual Studio\2019\Community\VC\Tools\MSVC\14.29.30133\atlmfc\include\atltypes.h

; 528  : 	left = 0;

  008e5	0f 11 45 c0	 movups	 XMMWORD PTR _crc$19[ebp], xmm0
; File C:\Program Files (x86)\Microsoft Visual Studio\2019\Community\VC\Tools\MSVC\14.29.30133\atlmfc\include\afxwin2.inl

; 86   : 	{ ASSERT(::IsWindow(m_hWnd)); ::GetClientRect(m_hWnd, lpRect); }

  008e9	ff 15 00 00 00
	00		 call	 DWORD PTR __imp__GetClientRect@8
; File C:\Program Files (x86)\Microsoft Visual Studio\2019\Community\VC\Tools\MSVC\14.29.30133\atlmfc\include\atltypes.h

; 698  : 	::InflateRect(this, -x, -y);

  008ef	6a fc		 push	 -4			; fffffffcH
  008f1	6a fc		 push	 -4			; fffffffcH
  008f3	8d 45 c0	 lea	 eax, DWORD PTR _crc$19[ebp]
  008f6	50		 push	 eax
  008f7	ff 15 00 00 00
	00		 call	 DWORD PTR __imp__InflateRect@12
; File D:\git\src\IBK\IBK_DRFN\ProjSrc\SrcDrfn\Chart\MULTICHART\control\GfxOutBarCtrl.cpp

; 783  : 	if (arFolder.GetSize() > 0)

  008fd	8b be 0c 01 00
	00		 mov	 edi, DWORD PTR [esi+268]
  00903	85 ff		 test	 edi, edi
  00905	0f 8e 12 01 00
	00		 jle	 $LN269@OnLButtonD

; 784  : 	{
; 785  : 		int max = arFolder.GetSize();
; 786  : 		rect.top += iFolderHeight * (iSelFolder + 1);

  0090b	8b 96 34 01 00
	00		 mov	 edx, DWORD PTR [esi+308]

; 787  : 		if(iSelFolder == arFolder.GetSize() - 1)

  00911	2b fa		 sub	 edi, edx
  00913	8b 8e a0 00 00
	00		 mov	 ecx, DWORD PTR [esi+160]
  00919	4f		 dec	 edi
  0091a	0f af f9	 imul	 edi, ecx
  0091d	8d 42 01	 lea	 eax, DWORD PTR [edx+1]
  00920	0f af c1	 imul	 eax, ecx
  00923	01 45 c4	 add	 DWORD PTR _crc$19[ebp+4], eax
  00926	8b 86 0c 01 00
	00		 mov	 eax, DWORD PTR [esi+268]
  0092c	48		 dec	 eax
  0092d	3b d0		 cmp	 edx, eax
  0092f	0f 85 df 00 00
	00		 jne	 $LN270@OnLButtonD

; 788  : 			rect.bottom -= (max - iSelFolder - 1)*iFolderHeight + 1;

  00935	83 c8 ff	 or	 eax, -1
  00938	2b c7		 sub	 eax, edi
  0093a	01 45 cc	 add	 DWORD PTR _crc$19[ebp+12], eax
  0093d	e9 d5 00 00 00	 jmp	 $LN271@OnLButtonD
$LN85@OnLButtonD:

; 3002 : 								InvalidateRect(crc, true);
; 3003 : 							}
; 3004 : 						}
; 3005 : 					}
; 3006 : 
; 3007 : 					goto ExitLoop;
; 3008 : 
; 3009 : 				case WM_TIMER:
; 3010 : 					{
; 3011 : 						if (msg.wParam == 2)

  00942	83 bd 68 ff ff
	ff 02		 cmp	 DWORD PTR _msg$6[ebp+8], 2
  00949	0f 85 9d 00 00
	00		 jne	 $LN20@OnLButtonD
; File C:\Program Files (x86)\Microsoft Visual Studio\2019\Community\VC\Tools\MSVC\14.29.30133\atlmfc\include\atltypes.h

; 414  : 	*(POINT*)this = initPt;

  0094f	8b 85 74 ff ff
	ff		 mov	 eax, DWORD PTR _msg$6[ebp+20]
  00955	8b 8d 78 ff ff
	ff		 mov	 ecx, DWORD PTR _msg$6[ebp+24]
  0095b	89 85 7c ff ff
	ff		 mov	 DWORD PTR _pt$9[ebp], eax
; File C:\Program Files (x86)\Microsoft Visual Studio\2019\Community\VC\Tools\MSVC\14.29.30133\atlmfc\include\afxwin2.inl

; 94   : 	{ ASSERT(::IsWindow(m_hWnd)); ::ScreenToClient(m_hWnd, lpPoint); }

  00961	8d 85 7c ff ff
	ff		 lea	 eax, DWORD PTR _pt$9[ebp]
  00967	50		 push	 eax
  00968	ff 76 20	 push	 DWORD PTR [esi+32]
; File C:\Program Files (x86)\Microsoft Visual Studio\2019\Community\VC\Tools\MSVC\14.29.30133\atlmfc\include\atltypes.h

; 414  : 	*(POINT*)this = initPt;

  0096b	89 4d 80	 mov	 DWORD PTR _pt$9[ebp+4], ecx
; File C:\Program Files (x86)\Microsoft Visual Studio\2019\Community\VC\Tools\MSVC\14.29.30133\atlmfc\include\afxwin2.inl

; 94   : 	{ ASSERT(::IsWindow(m_hWnd)); ::ScreenToClient(m_hWnd, lpPoint); }

  0096e	ff 15 00 00 00
	00		 call	 DWORD PTR __imp__ScreenToClient@8
; File C:\Program Files (x86)\Microsoft Visual Studio\2019\Community\VC\Tools\MSVC\14.29.30133\atlmfc\include\atltypes.h

; 648  : 	return ::PtInRect(this, point);

  00974	ff 75 80	 push	 DWORD PTR _pt$9[ebp+4]
  00977	8d 86 c4 00 00
	00		 lea	 eax, DWORD PTR [esi+196]
  0097d	ff b5 7c ff ff
	ff		 push	 DWORD PTR _pt$9[ebp]
  00983	50		 push	 eax
  00984	ff 15 00 00 00
	00		 call	 DWORD PTR __imp__PtInRect@12
; File D:\git\src\IBK\IBK_DRFN\ProjSrc\SrcDrfn\Chart\MULTICHART\control\GfxOutBarCtrl.cpp

; 3017 : 								if (rcUpArrow.PtInRect(pt))

  0098a	85 c0		 test	 eax, eax
  0098c	74 3f		 je	 SHORT $LN88@OnLButtonD

; 3018 : 								{
; 3019 : 									bUpPressed = true;
; 3020 : 									if (iFirstItem > 0) 

  0098e	8b 86 20 01 00
	00		 mov	 eax, DWORD PTR [esi+288]
  00994	c6 86 c2 00 00
	00 01		 mov	 BYTE PTR [esi+194], 1
  0099b	85 c0		 test	 eax, eax
  0099d	0f 8e 0b ff ff
	ff		 jle	 $ExitLoop$372

; 3021 : 									{
; 3022 : 										iFirstItem --;

  009a3	48		 dec	 eax
  009a4	0f 57 c0	 xorps	 xmm0, xmm0
  009a7	89 86 20 01 00
	00		 mov	 DWORD PTR [esi+288], eax

; 3023 : 										CRect crc;
; 3024 : 										GetInsideRect(crc);

  009ad	8b ce		 mov	 ecx, esi
  009af	8d 45 9c	 lea	 eax, DWORD PTR _crc$13[ebp]
  009b2	50		 push	 eax
  009b3	0f 11 45 9c	 movups	 XMMWORD PTR _crc$13[ebp], xmm0
  009b7	e8 00 00 00 00	 call	 ?GetInsideRect@CGfxOutBarCtrl@@QBEXAAVCRect@@@Z ; CGfxOutBarCtrl::GetInsideRect
; File C:\Program Files (x86)\Microsoft Visual Studio\2019\Community\VC\Tools\MSVC\14.29.30133\atlmfc\include\afxwin2.inl

; 116  : 	{ ASSERT(::IsWindow(m_hWnd)); ::InvalidateRect(m_hWnd, lpRect, bErase); }

  009bc	6a 01		 push	 1
  009be	8d 45 9c	 lea	 eax, DWORD PTR _crc$13[ebp]
  009c1	50		 push	 eax
  009c2	ff 76 20	 push	 DWORD PTR [esi+32]
  009c5	ff 15 00 00 00
	00		 call	 DWORD PTR __imp__InvalidateRect@12
; File D:\git\src\IBK\IBK_DRFN\ProjSrc\SrcDrfn\Chart\MULTICHART\control\GfxOutBarCtrl.cpp

; 3028 : 								}

  009cb	eb 1f		 jmp	 SHORT $LN20@OnLButtonD
$LN88@OnLButtonD:

; 3029 : 								else bUpPressed = false;

  009cd	c6 86 c2 00 00
	00 00		 mov	 BYTE PTR [esi+194], 0

; 3030 : 							}
; 3031 : 						}
; 3032 : 						break;

  009d4	eb 16		 jmp	 SHORT $LN20@OnLButtonD
$LN93@OnLButtonD:

; 3033 : 					}
; 3034 : 				case WM_KEYDOWN:	
; 3035 : 					if (msg.wParam != VK_ESCAPE) break;

  009d6	83 bd 68 ff ff
	ff 1b		 cmp	 DWORD PTR _msg$6[ebp+8], 27 ; 0000001bH
  009dd	75 0d		 jne	 SHORT $LN20@OnLButtonD
$LN94@OnLButtonD:

; 3036 : 
; 3037 : 				default:
; 3038 : 					DispatchMessage(&msg);

  009df	8d 85 60 ff ff
	ff		 lea	 eax, DWORD PTR _msg$6[ebp]
  009e5	50		 push	 eax
  009e6	ff 15 00 00 00
	00		 call	 DWORD PTR __imp__DispatchMessageA@4
$LN20@OnLButtonD:

; 2951 : 			for (;;)
; 2952 : 			{
; 2953 : 				MSG msg;
; 2954 : 				VERIFY(::GetMessage(&msg, NULL, 0, 0));

  009ec	6a 00		 push	 0
  009ee	6a 00		 push	 0
  009f0	6a 00		 push	 0
  009f2	8d 85 60 ff ff
	ff		 lea	 eax, DWORD PTR _msg$6[ebp]
  009f8	50		 push	 eax
  009f9	ff 15 00 00 00
	00		 call	 DWORD PTR __imp__GetMessageA@16
; File C:\Program Files (x86)\Microsoft Visual Studio\2019\Community\VC\Tools\MSVC\14.29.30133\atlmfc\include\afxwin2.inl

; 161  : 	{ return CWnd::FromHandle(::GetCapture()); }

  009ff	ff d7		 call	 edi
  00a01	50		 push	 eax
  00a02	e8 00 00 00 00	 call	 ?FromHandle@CWnd@@SGPAV1@PAUHWND__@@@Z ; CWnd::FromHandle
; File D:\git\src\IBK\IBK_DRFN\ProjSrc\SrcDrfn\Chart\MULTICHART\control\GfxOutBarCtrl.cpp

; 2956 : 				if (CWnd::GetCapture() != this) break;

  00a07	3b c6		 cmp	 eax, esi
  00a09	0f 84 11 fe ff
	ff		 je	 $LL17@OnLButtonD
  00a0f	e9 9a fe ff ff	 jmp	 $ExitLoop$372
$LN270@OnLButtonD:

; 790  : 			rect.bottom -= (max - iSelFolder - 1)*iFolderHeight;

  00a14	29 7d cc	 sub	 DWORD PTR _crc$19[ebp+12], edi
$LN271@OnLButtonD:

; 791  : 		rect.left += 1;//+ 2;

  00a17	ff 45 c0	 inc	 DWORD PTR _crc$19[ebp]

; 792  : 		rect.right -= 1;

  00a1a	ff 4d c8	 dec	 DWORD PTR _crc$19[ebp+8]
$LN269@OnLButtonD:
; File C:\Program Files (x86)\Microsoft Visual Studio\2019\Community\VC\Tools\MSVC\14.29.30133\atlmfc\include\afxwin2.inl

; 116  : 	{ ASSERT(::IsWindow(m_hWnd)); ::InvalidateRect(m_hWnd, lpRect, bErase); }

  00a1d	6a 01		 push	 1
  00a1f	8d 45 c0	 lea	 eax, DWORD PTR _crc$19[ebp]
  00a22	50		 push	 eax
  00a23	ff 76 20	 push	 DWORD PTR [esi+32]
  00a26	ff 15 00 00 00
	00		 call	 DWORD PTR __imp__InvalidateRect@12
; File D:\git\src\IBK\IBK_DRFN\ProjSrc\SrcDrfn\Chart\MULTICHART\control\GfxOutBarCtrl.cpp

; 3053 : 		}

  00a2c	8d 8d 4c ff ff
	ff		 lea	 ecx, DWORD PTR _dc$5[ebp]
$LN367@OnLButtonD:
; File C:\Program Files (x86)\Microsoft Visual Studio\2019\Community\VC\Tools\MSVC\14.29.30133\atlmfc\include\afxwin2.inl

; 430  : 	{ Default(); }

  00a32	c7 45 fc ff ff
	ff ff		 mov	 DWORD PTR __$EHRec$[ebp+8], -1
  00a39	e8 00 00 00 00	 call	 ??1CClientDC@@UAE@XZ	; CClientDC::~CClientDC
$LN78@OnLButtonD:
  00a3e	8b ce		 mov	 ecx, esi
  00a40	e8 00 00 00 00	 call	 ?Default@CWnd@@IAEJXZ	; CWnd::Default
; File D:\git\src\IBK\IBK_DRFN\ProjSrc\SrcDrfn\Chart\MULTICHART\control\GfxOutBarCtrl.cpp

; 3057 : }

  00a45	8b 4d f4	 mov	 ecx, DWORD PTR __$EHRec$[ebp]
  00a48	64 89 0d 00 00
	00 00		 mov	 DWORD PTR fs:0, ecx
  00a4f	59		 pop	 ecx
  00a50	5f		 pop	 edi
  00a51	5e		 pop	 esi
  00a52	8b 4d f0	 mov	 ecx, DWORD PTR __$ArrayPad$[ebp]
  00a55	33 cd		 xor	 ecx, ebp
  00a57	e8 00 00 00 00	 call	 @__security_check_cookie@4
  00a5c	8b e5		 mov	 esp, ebp
  00a5e	5d		 pop	 ebp
  00a5f	c2 0c 00	 ret	 12			; 0000000cH
$LN195@OnLButtonD:
  00a62	e8 00 00 00 00	 call	 ?AfxThrowInvalidArgException@@YGXXZ ; AfxThrowInvalidArgException
$LN366@OnLButtonD:
  00a67	cc		 int	 3
_TEXT	ENDS
;	COMDAT text$x
text$x	SEGMENT
__unwindfunclet$?OnLButtonDblClk@CGfxOutBarCtrl@@IAEXIVCPoint@@@Z$6:
  00000	8d 4d ac	 lea	 ecx, DWORD PTR _dc$14[ebp]
  00003	e9 00 00 00 00	 jmp	 ??1CClientDC@@UAE@XZ	; CClientDC::~CClientDC
__unwindfunclet$?OnLButtonDblClk@CGfxOutBarCtrl@@IAEXIVCPoint@@@Z$7:
  00008	8d 8d 30 ff ff
	ff		 lea	 ecx, DWORD PTR _dc$3[ebp]
  0000e	e9 00 00 00 00	 jmp	 ??1CClientDC@@UAE@XZ	; CClientDC::~CClientDC
__unwindfunclet$?OnLButtonDblClk@CGfxOutBarCtrl@@IAEXIVCPoint@@@Z$8:
  00013	8d 8d 30 ff ff
	ff		 lea	 ecx, DWORD PTR _dc$2[ebp]
  00019	e9 00 00 00 00	 jmp	 ??1CClientDC@@UAE@XZ	; CClientDC::~CClientDC
__unwindfunclet$?OnLButtonDblClk@CGfxOutBarCtrl@@IAEXIVCPoint@@@Z$9:
  0001e	8d 8d 4c ff ff
	ff		 lea	 ecx, DWORD PTR _dc$5[ebp]
  00024	e9 00 00 00 00	 jmp	 ??1CClientDC@@UAE@XZ	; CClientDC::~CClientDC
  00029	cc		 int	 3
  0002a	cc		 int	 3
  0002b	cc		 int	 3
  0002c	cc		 int	 3
  0002d	cc		 int	 3
__ehhandler$?OnLButtonDblClk@CGfxOutBarCtrl@@IAEXIVCPoint@@@Z:
  0002e	90		 npad	 1
  0002f	90		 npad	 1
  00030	8b 54 24 08	 mov	 edx, DWORD PTR [esp+8]
  00034	8d 42 0c	 lea	 eax, DWORD PTR [edx+12]
  00037	8b 8a 30 ff ff
	ff		 mov	 ecx, DWORD PTR [edx-208]
  0003d	33 c8		 xor	 ecx, eax
  0003f	e8 00 00 00 00	 call	 @__security_check_cookie@4
  00044	8b 4a fc	 mov	 ecx, DWORD PTR [edx-4]
  00047	33 c8		 xor	 ecx, eax
  00049	e8 00 00 00 00	 call	 @__security_check_cookie@4
  0004e	b8 00 00 00 00	 mov	 eax, OFFSET __ehfuncinfo$?OnLButtonDblClk@CGfxOutBarCtrl@@IAEXIVCPoint@@@Z
  00053	e9 00 00 00 00	 jmp	 ___CxxFrameHandler3
text$x	ENDS
?OnLButtonDblClk@CGfxOutBarCtrl@@IAEXIVCPoint@@@Z ENDP	; CGfxOutBarCtrl::OnLButtonDblClk
; Function compile flags: /Ogtp
; File D:\git\src\IBK\IBK_DRFN\ProjSrc\SrcDrfn\Chart\MULTICHART\control\GfxOutBarCtrl.cpp
; File C:\Program Files (x86)\Microsoft Visual Studio\2019\Community\VC\Tools\MSVC\14.29.30133\atlmfc\include\afxwin1.inl
; File D:\git\src\IBK\IBK_DRFN\ProjSrc\SrcDrfn\Chart\MULTICHART\control\GfxOutBarCtrl.cpp
; File C:\Program Files (x86)\Microsoft Visual Studio\2019\Community\VC\Tools\MSVC\14.29.30133\atlmfc\include\afxcoll.inl
; File D:\git\src\IBK\IBK_DRFN\ProjSrc\SrcDrfn\Chart\MULTICHART\control\GfxOutBarCtrl.cpp
; File C:\Program Files (x86)\Microsoft Visual Studio\2019\Community\VC\Tools\MSVC\14.29.30133\atlmfc\include\afxcoll.inl
; File D:\git\src\IBK\IBK_DRFN\ProjSrc\SrcDrfn\Chart\MULTICHART\control\GfxOutBarCtrl.cpp
; File C:\Program Files (x86)\Microsoft Visual Studio\2019\Community\VC\Tools\MSVC\14.29.30133\atlmfc\include\afxcoll.inl
; File D:\git\src\IBK\IBK_DRFN\ProjSrc\SrcDrfn\Chart\MULTICHART\control\GfxOutBarCtrl.cpp
;	COMDAT ?OnDestroy@CGfxOutBarCtrl@@IAEXXZ
_TEXT	SEGMENT
?OnDestroy@CGfxOutBarCtrl@@IAEXXZ PROC			; CGfxOutBarCtrl::OnDestroy, COMDAT
; _this$ = ecx

; 2518 : {

  00000	56		 push	 esi
  00001	57		 push	 edi
  00002	8b f9		 mov	 edi, ecx

; 2519 : 	if(m_Font.GetSafeHandle())

  00004	8d 8f 54 01 00
	00		 lea	 ecx, DWORD PTR [edi+340]
; File C:\Program Files (x86)\Microsoft Visual Studio\2019\Community\VC\Tools\MSVC\14.29.30133\atlmfc\include\afxwin1.inl

; 68   : 	{ return this == NULL ? NULL : m_hObject; }

  0000a	85 c9		 test	 ecx, ecx
  0000c	74 0b		 je	 SHORT $LN2@OnDestroy
; File D:\git\src\IBK\IBK_DRFN\ProjSrc\SrcDrfn\Chart\MULTICHART\control\GfxOutBarCtrl.cpp

; 2519 : 	if(m_Font.GetSafeHandle())

  0000e	83 79 04 00	 cmp	 DWORD PTR [ecx+4], 0
  00012	74 05		 je	 SHORT $LN2@OnDestroy

; 2520 : 		m_Font.DeleteObject();

  00014	e8 00 00 00 00	 call	 ?DeleteObject@CGdiObject@@QAEHXZ ; CGdiObject::DeleteObject
$LN2@OnDestroy:

; 2521 : 
; 2522 : 	CWnd::OnDestroy();

  00019	8b cf		 mov	 ecx, edi
  0001b	e8 00 00 00 00	 call	 ?OnDestroy@CWnd@@IAEXXZ	; CWnd::OnDestroy

; 2509 : 	for (int t = 0; t < arFolder.GetSize(); t++)

  00020	8b 97 0c 01 00
	00		 mov	 edx, DWORD PTR [edi+268]
  00026	33 f6		 xor	 esi, esi
  00028	85 d2		 test	 edx, edx
  0002a	7e 2a		 jle	 SHORT $LN35@OnDestroy
  0002c	0f 1f 40 00	 npad	 4
$LL13@OnDestroy:
; File C:\Program Files (x86)\Microsoft Visual Studio\2019\Community\VC\Tools\MSVC\14.29.30133\atlmfc\include\afxcoll.inl

; 203  : 		if( nIndex < 0 || nIndex >= m_nSize )

  00030	85 f6		 test	 esi, esi
  00032	78 4f		 js	 SHORT $LN31@OnDestroy
  00034	3b f2		 cmp	 esi, edx
  00036	7d 4b		 jge	 SHORT $LN31@OnDestroy
; File D:\git\src\IBK\IBK_DRFN\ProjSrc\SrcDrfn\Chart\MULTICHART\control\GfxOutBarCtrl.cpp

; 2511 : 		if (arFolder.GetAt(t)) delete (CBarFolder*) arFolder.GetAt(t);

  00038	8b 87 08 01 00
	00		 mov	 eax, DWORD PTR [edi+264]
  0003e	8b 0c b0	 mov	 ecx, DWORD PTR [eax+esi*4]
  00041	85 c9		 test	 ecx, ecx
  00043	74 0c		 je	 SHORT $LN11@OnDestroy
  00045	8b 01		 mov	 eax, DWORD PTR [ecx]
  00047	6a 01		 push	 1
  00049	ff 10		 call	 DWORD PTR [eax]
  0004b	8b 97 0c 01 00
	00		 mov	 edx, DWORD PTR [edi+268]
$LN11@OnDestroy:

; 2509 : 	for (int t = 0; t < arFolder.GetSize(); t++)

  00051	46		 inc	 esi
  00052	3b f2		 cmp	 esi, edx
  00054	7c da		 jl	 SHORT $LL13@OnDestroy
$LN35@OnDestroy:
; File C:\Program Files (x86)\Microsoft Visual Studio\2019\Community\VC\Tools\MSVC\14.29.30133\atlmfc\include\afxcoll.inl

; 200  : 	{ SetSize(0); }

  00056	6a ff		 push	 -1
  00058	6a 00		 push	 0
  0005a	8d 8f 04 01 00
	00		 lea	 ecx, DWORD PTR [edi+260]
  00060	e8 00 00 00 00	 call	 ?SetSize@CPtrArray@@QAEXHH@Z ; CPtrArray::SetSize
; File D:\git\src\IBK\IBK_DRFN\ProjSrc\SrcDrfn\Chart\MULTICHART\control\GfxOutBarCtrl.cpp

; 2524 : 	delete pBlackPen;

  00065	8b 8f 4c 01 00
	00		 mov	 ecx, DWORD PTR [edi+332]

; 2514 : 	iSelFolder = 0;

  0006b	c7 87 34 01 00
	00 00 00 00 00	 mov	 DWORD PTR [edi+308], 0

; 2524 : 	delete pBlackPen;

  00075	5f		 pop	 edi
  00076	5e		 pop	 esi
  00077	85 c9		 test	 ecx, ecx
  00079	74 07		 je	 SHORT $LN4@OnDestroy
  0007b	8b 01		 mov	 eax, DWORD PTR [ecx]
  0007d	6a 01		 push	 1
  0007f	ff 50 04	 call	 DWORD PTR [eax+4]
$LN4@OnDestroy:

; 2525 : }

  00082	c3		 ret	 0
$LN31@OnDestroy:
; File C:\Program Files (x86)\Microsoft Visual Studio\2019\Community\VC\Tools\MSVC\14.29.30133\atlmfc\include\afxcoll.inl

; 204  : 			AfxThrowInvalidArgException();

  00083	e8 00 00 00 00	 call	 ?AfxThrowInvalidArgException@@YGXXZ ; AfxThrowInvalidArgException
$LN37@OnDestroy:
  00088	cc		 int	 3
?OnDestroy@CGfxOutBarCtrl@@IAEXXZ ENDP			; CGfxOutBarCtrl::OnDestroy
_TEXT	ENDS
; Function compile flags: /Ogtp
; File D:\git\src\IBK\IBK_DRFN\ProjSrc\SrcDrfn\Chart\MULTICHART\control\GfxOutBarCtrl.cpp
;	COMDAT ?OnUpdateGfxRenameitem@CGfxOutBarCtrl@@IAEXPAVCCmdUI@@@Z
_TEXT	SEGMENT
_pCmdUI$ = 8						; size = 4
?OnUpdateGfxRenameitem@CGfxOutBarCtrl@@IAEXPAVCCmdUI@@@Z PROC ; CGfxOutBarCtrl::OnUpdateGfxRenameitem, COMDAT
; _this$ = ecx

; 2118 : }

  00000	c2 04 00	 ret	 4
?OnUpdateGfxRenameitem@CGfxOutBarCtrl@@IAEXPAVCCmdUI@@@Z ENDP ; CGfxOutBarCtrl::OnUpdateGfxRenameitem
_TEXT	ENDS
; Function compile flags: /Ogtp
; File D:\git\src\IBK\IBK_DRFN\ProjSrc\SrcDrfn\Chart\MULTICHART\control\GfxOutBarCtrl.cpp
;	COMDAT ?OnUpdateGfxRemoveitem@CGfxOutBarCtrl@@IAEXPAVCCmdUI@@@Z
_TEXT	SEGMENT
_pCmdUI$ = 8						; size = 4
?OnUpdateGfxRemoveitem@CGfxOutBarCtrl@@IAEXPAVCCmdUI@@@Z PROC ; CGfxOutBarCtrl::OnUpdateGfxRemoveitem, COMDAT
; _this$ = ecx

; 2113 : 		
; 2114 : }

  00000	c2 04 00	 ret	 4
?OnUpdateGfxRemoveitem@CGfxOutBarCtrl@@IAEXPAVCCmdUI@@@Z ENDP ; CGfxOutBarCtrl::OnUpdateGfxRemoveitem
_TEXT	ENDS
; Function compile flags: /Ogtp
; File D:\git\src\IBK\IBK_DRFN\ProjSrc\SrcDrfn\Chart\MULTICHART\control\GfxOutBarCtrl.cpp
; File C:\Program Files (x86)\Microsoft Visual Studio\2019\Community\VC\Tools\MSVC\14.29.30133\atlmfc\include\afxcoll.inl
; File D:\git\src\IBK\IBK_DRFN\ProjSrc\SrcDrfn\Chart\MULTICHART\control\GfxOutBarCtrl.cpp
; File C:\Program Files (x86)\Microsoft Visual Studio\2019\Community\VC\Tools\MSVC\14.29.30133\atlmfc\include\afxwin2.inl
; File D:\git\src\IBK\IBK_DRFN\ProjSrc\SrcDrfn\Chart\MULTICHART\control\GfxOutBarCtrl.cpp
; File C:\Program Files (x86)\Microsoft Visual Studio\2019\Community\VC\Tools\MSVC\14.29.30133\atlmfc\include\afxcoll.inl
; File D:\git\src\IBK\IBK_DRFN\ProjSrc\SrcDrfn\Chart\MULTICHART\control\GfxOutBarCtrl.cpp
; File C:\Program Files (x86)\Microsoft Visual Studio\2019\Community\VC\Tools\MSVC\14.29.30133\atlmfc\include\atltypes.h
; File D:\git\src\IBK\IBK_DRFN\ProjSrc\SrcDrfn\Chart\MULTICHART\control\GfxOutBarCtrl.cpp
; File C:\Program Files (x86)\Microsoft Visual Studio\2019\Community\VC\Tools\MSVC\14.29.30133\atlmfc\include\afxwin2.inl
; File C:\Program Files (x86)\Microsoft Visual Studio\2019\Community\VC\Tools\MSVC\14.29.30133\atlmfc\include\afxcoll.inl
; File D:\git\src\IBK\IBK_DRFN\ProjSrc\SrcDrfn\Chart\MULTICHART\control\GfxOutBarCtrl.cpp
;	COMDAT ?OnGfxRemoveitem@CGfxOutBarCtrl@@IAEXXZ
_TEXT	SEGMENT
_rc$1 = -20						; size = 16
__$ArrayPad$ = -4					; size = 4
?OnGfxRemoveitem@CGfxOutBarCtrl@@IAEXXZ PROC		; CGfxOutBarCtrl::OnGfxRemoveitem, COMDAT
; _this$ = ecx

; 2100 : {

  00000	55		 push	 ebp
  00001	8b ec		 mov	 ebp, esp
  00003	83 ec 14	 sub	 esp, 20			; 00000014H
  00006	a1 00 00 00 00	 mov	 eax, DWORD PTR ___security_cookie
  0000b	33 c5		 xor	 eax, ebp
  0000d	89 45 fc	 mov	 DWORD PTR __$ArrayPad$[ebp], eax
  00010	53		 push	 ebx
  00011	56		 push	 esi
  00012	8b f1		 mov	 esi, ecx
  00014	57		 push	 edi

; 2101 : 	if (iHitInternal1 == htFolder)

  00015	8b 86 e8 00 00
	00		 mov	 eax, DWORD PTR [esi+232]
  0001b	85 c0		 test	 eax, eax
  0001d	0f 85 83 00 00
	00		 jne	 $LN2@OnGfxRemov

; 2102 : 	{
; 2103 : 		RemoveFolder(iHitInternal2);

  00023	8b be ec 00 00
	00		 mov	 edi, DWORD PTR [esi+236]
; File C:\Program Files (x86)\Microsoft Visual Studio\2019\Community\VC\Tools\MSVC\14.29.30133\atlmfc\include\afxcoll.inl

; 203  : 		if( nIndex < 0 || nIndex >= m_nSize )

  00029	85 ff		 test	 edi, edi
  0002b	0f 88 db 00 00
	00		 js	 $LN27@OnGfxRemov
  00031	3b be 0c 01 00
	00		 cmp	 edi, DWORD PTR [esi+268]
  00037	0f 8d cf 00 00
	00		 jge	 $LN27@OnGfxRemov
; File D:\git\src\IBK\IBK_DRFN\ProjSrc\SrcDrfn\Chart\MULTICHART\control\GfxOutBarCtrl.cpp

; 1572 : 	delete pbf;

  0003d	8b 86 08 01 00
	00		 mov	 eax, DWORD PTR [esi+264]
  00043	8b 0c b8	 mov	 ecx, DWORD PTR [eax+edi*4]
  00046	85 c9		 test	 ecx, ecx
  00048	74 06		 je	 SHORT $LN10@OnGfxRemov
  0004a	8b 01		 mov	 eax, DWORD PTR [ecx]
  0004c	6a 01		 push	 1
  0004e	ff 10		 call	 DWORD PTR [eax]
$LN10@OnGfxRemov:

; 1573 : 	arFolder.RemoveAt(index);

  00050	6a 01		 push	 1
  00052	57		 push	 edi
  00053	8d 8e 04 01 00
	00		 lea	 ecx, DWORD PTR [esi+260]
  00059	e8 00 00 00 00	 call	 ?RemoveAt@CPtrArray@@QAEXHH@Z ; CPtrArray::RemoveAt

; 1574 : 	if (iSelFolder >= index) iSelFolder = index - 1;

  0005e	8b 86 34 01 00
	00		 mov	 eax, DWORD PTR [esi+308]
  00064	3b c7		 cmp	 eax, edi
  00066	7c 09		 jl	 SHORT $LN7@OnGfxRemov
  00068	8d 47 ff	 lea	 eax, DWORD PTR [edi-1]
  0006b	89 86 34 01 00
	00		 mov	 DWORD PTR [esi+308], eax
$LN7@OnGfxRemov:

; 1575 : 	if (iSelFolder < 0 && GetFolderCount() > 0) iSelFolder = 0;

  00071	85 c0		 test	 eax, eax
  00073	79 13		 jns	 SHORT $LN8@OnGfxRemov
  00075	83 be 0c 01 00
	00 00		 cmp	 DWORD PTR [esi+268], 0
  0007c	7e 0a		 jle	 SHORT $LN8@OnGfxRemov
  0007e	c7 86 34 01 00
	00 00 00 00 00	 mov	 DWORD PTR [esi+308], 0
$LN8@OnGfxRemov:
; File C:\Program Files (x86)\Microsoft Visual Studio\2019\Community\VC\Tools\MSVC\14.29.30133\atlmfc\include\afxwin2.inl

; 114  : 	{ ASSERT(::IsWindow(m_hWnd)); ::InvalidateRect(m_hWnd, NULL, bErase); }

  00088	6a 01		 push	 1
  0008a	6a 00		 push	 0
$LN61@OnGfxRemov:
; File D:\git\src\IBK\IBK_DRFN\ProjSrc\SrcDrfn\Chart\MULTICHART\control\GfxOutBarCtrl.cpp

; 2109 : }

  0008c	ff 76 20	 push	 DWORD PTR [esi+32]
  0008f	ff 15 00 00 00
	00		 call	 DWORD PTR __imp__InvalidateRect@12
$LN21@OnGfxRemov:
  00095	8b 4d fc	 mov	 ecx, DWORD PTR __$ArrayPad$[ebp]
  00098	5f		 pop	 edi
  00099	5e		 pop	 esi
  0009a	33 cd		 xor	 ecx, ebp
  0009c	5b		 pop	 ebx
  0009d	e8 00 00 00 00	 call	 @__security_check_cookie@4
  000a2	8b e5		 mov	 esp, ebp
  000a4	5d		 pop	 ebp
  000a5	c3		 ret	 0
$LN2@OnGfxRemov:

; 2104 : 	}
; 2105 : 	else if (iHitInternal1 == htItem)

  000a6	83 f8 01	 cmp	 eax, 1
  000a9	75 ea		 jne	 SHORT $LN21@OnGfxRemov

; 2123 : 	CBarFolder * pbf = (CBarFolder *) arFolder.GetAt(iSelFolder);

  000ab	8b 8e 34 01 00
	00		 mov	 ecx, DWORD PTR [esi+308]

; 2106 : 	{
; 2107 : 		RemoveItem(iHitInternal2);

  000b1	8b be ec 00 00
	00		 mov	 edi, DWORD PTR [esi+236]
; File C:\Program Files (x86)\Microsoft Visual Studio\2019\Community\VC\Tools\MSVC\14.29.30133\atlmfc\include\afxcoll.inl

; 203  : 		if( nIndex < 0 || nIndex >= m_nSize )

  000b7	85 c9		 test	 ecx, ecx
  000b9	78 51		 js	 SHORT $LN27@OnGfxRemov
  000bb	3b 8e 0c 01 00
	00		 cmp	 ecx, DWORD PTR [esi+268]
  000c1	7d 49		 jge	 SHORT $LN27@OnGfxRemov

; 205  : 		return m_pData[nIndex]; }

  000c3	8b 86 08 01 00
	00		 mov	 eax, DWORD PTR [esi+264]
  000c9	8b 04 88	 mov	 eax, DWORD PTR [eax+ecx*4]
; File D:\git\src\IBK\IBK_DRFN\ProjSrc\SrcDrfn\Chart\MULTICHART\control\GfxOutBarCtrl.cpp

; 2141 : 	return (index >= 0 && index < pbf->GetItemCount());

  000cc	85 ff		 test	 edi, edi
  000ce	78 c5		 js	 SHORT $LN21@OnGfxRemov
  000d0	3b 78 1c	 cmp	 edi, DWORD PTR [eax+28]
  000d3	7d c0		 jge	 SHORT $LN21@OnGfxRemov
  000d5	8d 58 14	 lea	 ebx, DWORD PTR [eax+20]

; 2128 : 		delete i;

  000d8	8b 40 18	 mov	 eax, DWORD PTR [eax+24]
  000db	8b 0c b8	 mov	 ecx, DWORD PTR [eax+edi*4]
  000de	85 c9		 test	 ecx, ecx
  000e0	74 06		 je	 SHORT $LN23@OnGfxRemov
  000e2	8b 01		 mov	 eax, DWORD PTR [ecx]
  000e4	6a 01		 push	 1
  000e6	ff 10		 call	 DWORD PTR [eax]
$LN23@OnGfxRemov:

; 2129 : 
; 2130 : 		pbf->arItems.RemoveAt(index);

  000e8	6a 01		 push	 1
  000ea	57		 push	 edi
  000eb	8b cb		 mov	 ecx, ebx
  000ed	e8 00 00 00 00	 call	 ?RemoveAt@CPtrArray@@QAEXHH@Z ; CPtrArray::RemoveAt

; 2132 : 		GetInsideRect(rc);

  000f2	8d 45 ec	 lea	 eax, DWORD PTR _rc$1[ebp]
  000f5	0f 57 c0	 xorps	 xmm0, xmm0
  000f8	50		 push	 eax
  000f9	8b ce		 mov	 ecx, esi
; File C:\Program Files (x86)\Microsoft Visual Studio\2019\Community\VC\Tools\MSVC\14.29.30133\atlmfc\include\atltypes.h

; 528  : 	left = 0;

  000fb	0f 11 45 ec	 movups	 XMMWORD PTR _rc$1[ebp], xmm0
; File D:\git\src\IBK\IBK_DRFN\ProjSrc\SrcDrfn\Chart\MULTICHART\control\GfxOutBarCtrl.cpp

; 2132 : 		GetInsideRect(rc);

  000ff	e8 00 00 00 00	 call	 ?GetInsideRect@CGfxOutBarCtrl@@QBEXAAVCRect@@@Z ; CGfxOutBarCtrl::GetInsideRect
; File C:\Program Files (x86)\Microsoft Visual Studio\2019\Community\VC\Tools\MSVC\14.29.30133\atlmfc\include\afxwin2.inl

; 116  : 	{ ASSERT(::IsWindow(m_hWnd)); ::InvalidateRect(m_hWnd, lpRect, bErase); }

  00104	6a 01		 push	 1
  00106	8d 45 ec	 lea	 eax, DWORD PTR _rc$1[ebp]
  00109	50		 push	 eax
  0010a	eb 80		 jmp	 SHORT $LN61@OnGfxRemov
$LN27@OnGfxRemov:
; File C:\Program Files (x86)\Microsoft Visual Studio\2019\Community\VC\Tools\MSVC\14.29.30133\atlmfc\include\afxcoll.inl

; 204  : 			AfxThrowInvalidArgException();

  0010c	e8 00 00 00 00	 call	 ?AfxThrowInvalidArgException@@YGXXZ ; AfxThrowInvalidArgException
$LN60@OnGfxRemov:
  00111	cc		 int	 3
?OnGfxRemoveitem@CGfxOutBarCtrl@@IAEXXZ ENDP		; CGfxOutBarCtrl::OnGfxRemoveitem
_TEXT	ENDS
; Function compile flags: /Ogtp
; File D:\git\src\IBK\IBK_DRFN\ProjSrc\SrcDrfn\Chart\MULTICHART\control\GfxOutBarCtrl.cpp
;	COMDAT ?OnUpdateGfxSmallicon@CGfxOutBarCtrl@@IAEXPAVCCmdUI@@@Z
_TEXT	SEGMENT
_pCmdUI$ = 8						; size = 4
?OnUpdateGfxSmallicon@CGfxOutBarCtrl@@IAEXPAVCCmdUI@@@Z PROC ; CGfxOutBarCtrl::OnUpdateGfxSmallicon, COMDAT
; _this$ = ecx

; 2095 : {

  00000	55		 push	 ebp
  00001	8b ec		 mov	 ebp, esp

; 2096 : 	pCmdUI->Enable(!IsSmallIconView());

  00003	8b 55 08	 mov	 edx, DWORD PTR _pCmdUI$[ebp]

; 186  : 	return dwFlags&fSmallIcon;

  00006	0f b6 81 00 01
	00 00		 movzx	 eax, BYTE PTR [ecx+256]

; 2096 : 	pCmdUI->Enable(!IsSmallIconView());

  0000d	8b ca		 mov	 ecx, edx
  0000f	56		 push	 esi

; 186  : 	return dwFlags&fSmallIcon;

  00010	f7 d0		 not	 eax

; 2096 : 	pCmdUI->Enable(!IsSmallIconView());

  00012	8b 32		 mov	 esi, DWORD PTR [edx]

; 186  : 	return dwFlags&fSmallIcon;

  00014	83 e0 01	 and	 eax, 1

; 2096 : 	pCmdUI->Enable(!IsSmallIconView());

  00017	50		 push	 eax
  00018	ff 16		 call	 DWORD PTR [esi]
  0001a	5e		 pop	 esi

; 2097 : }

  0001b	5d		 pop	 ebp
  0001c	c2 04 00	 ret	 4
?OnUpdateGfxSmallicon@CGfxOutBarCtrl@@IAEXPAVCCmdUI@@@Z ENDP ; CGfxOutBarCtrl::OnUpdateGfxSmallicon
_TEXT	ENDS
; Function compile flags: /Ogtp
; File D:\git\src\IBK\IBK_DRFN\ProjSrc\SrcDrfn\Chart\MULTICHART\control\GfxOutBarCtrl.cpp
; File C:\Program Files (x86)\Microsoft Visual Studio\2019\Community\VC\Tools\MSVC\14.29.30133\atlmfc\include\atltypes.h
; File D:\git\src\IBK\IBK_DRFN\ProjSrc\SrcDrfn\Chart\MULTICHART\control\GfxOutBarCtrl.cpp
; File C:\Program Files (x86)\Microsoft Visual Studio\2019\Community\VC\Tools\MSVC\14.29.30133\atlmfc\include\afxwin2.inl
; File D:\git\src\IBK\IBK_DRFN\ProjSrc\SrcDrfn\Chart\MULTICHART\control\GfxOutBarCtrl.cpp
; File C:\Program Files (x86)\Microsoft Visual Studio\2019\Community\VC\Tools\MSVC\14.29.30133\atlmfc\include\afxwin2.inl
; File D:\git\src\IBK\IBK_DRFN\ProjSrc\SrcDrfn\Chart\MULTICHART\control\GfxOutBarCtrl.cpp
;	COMDAT ?OnGfxSmallicon@CGfxOutBarCtrl@@IAEXXZ
_TEXT	SEGMENT
_rc$1 = -20						; size = 16
__$ArrayPad$ = -4					; size = 4
?OnGfxSmallicon@CGfxOutBarCtrl@@IAEXXZ PROC		; CGfxOutBarCtrl::OnGfxSmallicon, COMDAT
; _this$ = ecx

; 2089 : {

  00000	55		 push	 ebp
  00001	8b ec		 mov	 ebp, esp
  00003	83 ec 14	 sub	 esp, 20			; 00000014H
  00006	a1 00 00 00 00	 mov	 eax, DWORD PTR ___security_cookie
  0000b	33 c5		 xor	 eax, ebp
  0000d	89 45 fc	 mov	 DWORD PTR __$ArrayPad$[ebp], eax
  00010	56		 push	 esi
  00011	8b f1		 mov	 esi, ecx

; 186  : 	return dwFlags&fSmallIcon;

  00013	f6 86 00 01 00
	00 01		 test	 BYTE PTR [esi+256], 1

; 191  : 	iFirstItem = 0;

  0001a	c7 86 20 01 00
	00 00 00 00 00	 mov	 DWORD PTR [esi+288], 0

; 192  : 
; 193  : 	if (bSet)
; 194  : 	{
; 195  : 		if (!IsSmallIconView()) 

  00024	75 26		 jne	 SHORT $LN6@OnGfxSmall

; 196  : 		{
; 197  : 			dwFlags |= fSmallIcon;

  00026	83 8e 00 01 00
	00 01		 or	 DWORD PTR [esi+256], 1

; 199  : 			GetInsideRect(rc);

  0002d	8d 45 ec	 lea	 eax, DWORD PTR _rc$1[ebp]
  00030	0f 57 c0	 xorps	 xmm0, xmm0
  00033	50		 push	 eax
; File C:\Program Files (x86)\Microsoft Visual Studio\2019\Community\VC\Tools\MSVC\14.29.30133\atlmfc\include\atltypes.h

; 528  : 	left = 0;

  00034	0f 11 45 ec	 movups	 XMMWORD PTR _rc$1[ebp], xmm0
; File D:\git\src\IBK\IBK_DRFN\ProjSrc\SrcDrfn\Chart\MULTICHART\control\GfxOutBarCtrl.cpp

; 199  : 			GetInsideRect(rc);

  00038	e8 00 00 00 00	 call	 ?GetInsideRect@CGfxOutBarCtrl@@QBEXAAVCRect@@@Z ; CGfxOutBarCtrl::GetInsideRect
; File C:\Program Files (x86)\Microsoft Visual Studio\2019\Community\VC\Tools\MSVC\14.29.30133\atlmfc\include\afxwin2.inl

; 116  : 	{ ASSERT(::IsWindow(m_hWnd)); ::InvalidateRect(m_hWnd, lpRect, bErase); }

  0003d	6a 00		 push	 0
  0003f	8d 45 ec	 lea	 eax, DWORD PTR _rc$1[ebp]
  00042	50		 push	 eax
  00043	ff 76 20	 push	 DWORD PTR [esi+32]
  00046	ff 15 00 00 00
	00		 call	 DWORD PTR __imp__InvalidateRect@12
$LN6@OnGfxSmall:

; 114  : 	{ ASSERT(::IsWindow(m_hWnd)); ::InvalidateRect(m_hWnd, NULL, bErase); }

  0004c	6a 01		 push	 1
  0004e	6a 00		 push	 0
  00050	ff 76 20	 push	 DWORD PTR [esi+32]
  00053	ff 15 00 00 00
	00		 call	 DWORD PTR __imp__InvalidateRect@12
; File D:\git\src\IBK\IBK_DRFN\ProjSrc\SrcDrfn\Chart\MULTICHART\control\GfxOutBarCtrl.cpp

; 2092 : }

  00059	8b 4d fc	 mov	 ecx, DWORD PTR __$ArrayPad$[ebp]
  0005c	33 cd		 xor	 ecx, ebp
; File C:\Program Files (x86)\Microsoft Visual Studio\2019\Community\VC\Tools\MSVC\14.29.30133\atlmfc\include\afxwin2.inl

; 114  : 	{ ASSERT(::IsWindow(m_hWnd)); ::InvalidateRect(m_hWnd, NULL, bErase); }

  0005e	5e		 pop	 esi
; File D:\git\src\IBK\IBK_DRFN\ProjSrc\SrcDrfn\Chart\MULTICHART\control\GfxOutBarCtrl.cpp

; 2092 : }

  0005f	e8 00 00 00 00	 call	 @__security_check_cookie@4
  00064	8b e5		 mov	 esp, ebp
  00066	5d		 pop	 ebp
  00067	c3		 ret	 0
?OnGfxSmallicon@CGfxOutBarCtrl@@IAEXXZ ENDP		; CGfxOutBarCtrl::OnGfxSmallicon
_TEXT	ENDS
; Function compile flags: /Ogtp
; File D:\git\src\IBK\IBK_DRFN\ProjSrc\SrcDrfn\Chart\MULTICHART\control\GfxOutBarCtrl.cpp
;	COMDAT ?OnUpdateGfxLargeicon@CGfxOutBarCtrl@@IAEXPAVCCmdUI@@@Z
_TEXT	SEGMENT
_pCmdUI$ = 8						; size = 4
?OnUpdateGfxLargeicon@CGfxOutBarCtrl@@IAEXPAVCCmdUI@@@Z PROC ; CGfxOutBarCtrl::OnUpdateGfxLargeicon, COMDAT
; _this$ = ecx

; 2084 : {

  00000	55		 push	 ebp
  00001	8b ec		 mov	 ebp, esp

; 2085 : 	pCmdUI->Enable(IsSmallIconView());

  00003	8b 55 08	 mov	 edx, DWORD PTR _pCmdUI$[ebp]

; 186  : 	return dwFlags&fSmallIcon;

  00006	0f b6 81 00 01
	00 00		 movzx	 eax, BYTE PTR [ecx+256]

; 2085 : 	pCmdUI->Enable(IsSmallIconView());

  0000d	8b ca		 mov	 ecx, edx
  0000f	56		 push	 esi

; 186  : 	return dwFlags&fSmallIcon;

  00010	83 e0 01	 and	 eax, 1

; 2085 : 	pCmdUI->Enable(IsSmallIconView());

  00013	8b 32		 mov	 esi, DWORD PTR [edx]
  00015	50		 push	 eax
  00016	ff 16		 call	 DWORD PTR [esi]
  00018	5e		 pop	 esi

; 2086 : }

  00019	5d		 pop	 ebp
  0001a	c2 04 00	 ret	 4
?OnUpdateGfxLargeicon@CGfxOutBarCtrl@@IAEXPAVCCmdUI@@@Z ENDP ; CGfxOutBarCtrl::OnUpdateGfxLargeicon
_TEXT	ENDS
; Function compile flags: /Ogtp
; File D:\git\src\IBK\IBK_DRFN\ProjSrc\SrcDrfn\Chart\MULTICHART\control\GfxOutBarCtrl.cpp
; File C:\Program Files (x86)\Microsoft Visual Studio\2019\Community\VC\Tools\MSVC\14.29.30133\atlmfc\include\atltypes.h
; File D:\git\src\IBK\IBK_DRFN\ProjSrc\SrcDrfn\Chart\MULTICHART\control\GfxOutBarCtrl.cpp
; File C:\Program Files (x86)\Microsoft Visual Studio\2019\Community\VC\Tools\MSVC\14.29.30133\atlmfc\include\afxwin2.inl
; File D:\git\src\IBK\IBK_DRFN\ProjSrc\SrcDrfn\Chart\MULTICHART\control\GfxOutBarCtrl.cpp
; File C:\Program Files (x86)\Microsoft Visual Studio\2019\Community\VC\Tools\MSVC\14.29.30133\atlmfc\include\afxwin2.inl
; File D:\git\src\IBK\IBK_DRFN\ProjSrc\SrcDrfn\Chart\MULTICHART\control\GfxOutBarCtrl.cpp
;	COMDAT ?OnGfxLargeicon@CGfxOutBarCtrl@@IAEXXZ
_TEXT	SEGMENT
_rc$1 = -20						; size = 16
__$ArrayPad$ = -4					; size = 4
?OnGfxLargeicon@CGfxOutBarCtrl@@IAEXXZ PROC		; CGfxOutBarCtrl::OnGfxLargeicon, COMDAT
; _this$ = ecx

; 2078 : {

  00000	55		 push	 ebp
  00001	8b ec		 mov	 ebp, esp
  00003	83 ec 14	 sub	 esp, 20			; 00000014H
  00006	a1 00 00 00 00	 mov	 eax, DWORD PTR ___security_cookie
  0000b	33 c5		 xor	 eax, ebp
  0000d	89 45 fc	 mov	 DWORD PTR __$ArrayPad$[ebp], eax
  00010	56		 push	 esi
  00011	8b f1		 mov	 esi, ecx

; 186  : 	return dwFlags&fSmallIcon;

  00013	f6 86 00 01 00
	00 01		 test	 BYTE PTR [esi+256], 1

; 191  : 	iFirstItem = 0;

  0001a	c7 86 20 01 00
	00 00 00 00 00	 mov	 DWORD PTR [esi+288], 0

; 192  : 
; 193  : 	if (bSet)
; 194  : 	{
; 195  : 		if (!IsSmallIconView()) 
; 196  : 		{
; 197  : 			dwFlags |= fSmallIcon;
; 198  : 			CRect rc;
; 199  : 			GetInsideRect(rc);
; 200  : 			InvalidateRect(rc, false);
; 201  : 		}
; 202  : 	}
; 203  : 	else
; 204  : 	{
; 205  : 		if (IsSmallIconView()) 

  00024	74 26		 je	 SHORT $LN7@OnGfxLarge

; 206  : 		{
; 207  : 			dwFlags &= ~fSmallIcon;

  00026	83 a6 00 01 00
	00 fe		 and	 DWORD PTR [esi+256], -2	; fffffffeH

; 209  : 			GetInsideRect(rc);

  0002d	8d 45 ec	 lea	 eax, DWORD PTR _rc$1[ebp]
  00030	0f 57 c0	 xorps	 xmm0, xmm0
  00033	50		 push	 eax
; File C:\Program Files (x86)\Microsoft Visual Studio\2019\Community\VC\Tools\MSVC\14.29.30133\atlmfc\include\atltypes.h

; 528  : 	left = 0;

  00034	0f 11 45 ec	 movups	 XMMWORD PTR _rc$1[ebp], xmm0
; File D:\git\src\IBK\IBK_DRFN\ProjSrc\SrcDrfn\Chart\MULTICHART\control\GfxOutBarCtrl.cpp

; 209  : 			GetInsideRect(rc);

  00038	e8 00 00 00 00	 call	 ?GetInsideRect@CGfxOutBarCtrl@@QBEXAAVCRect@@@Z ; CGfxOutBarCtrl::GetInsideRect
; File C:\Program Files (x86)\Microsoft Visual Studio\2019\Community\VC\Tools\MSVC\14.29.30133\atlmfc\include\afxwin2.inl

; 116  : 	{ ASSERT(::IsWindow(m_hWnd)); ::InvalidateRect(m_hWnd, lpRect, bErase); }

  0003d	6a 00		 push	 0
  0003f	8d 45 ec	 lea	 eax, DWORD PTR _rc$1[ebp]
  00042	50		 push	 eax
  00043	ff 76 20	 push	 DWORD PTR [esi+32]
  00046	ff 15 00 00 00
	00		 call	 DWORD PTR __imp__InvalidateRect@12
$LN7@OnGfxLarge:

; 114  : 	{ ASSERT(::IsWindow(m_hWnd)); ::InvalidateRect(m_hWnd, NULL, bErase); }

  0004c	6a 01		 push	 1
  0004e	6a 00		 push	 0
  00050	ff 76 20	 push	 DWORD PTR [esi+32]
  00053	ff 15 00 00 00
	00		 call	 DWORD PTR __imp__InvalidateRect@12
; File D:\git\src\IBK\IBK_DRFN\ProjSrc\SrcDrfn\Chart\MULTICHART\control\GfxOutBarCtrl.cpp

; 2081 : }

  00059	8b 4d fc	 mov	 ecx, DWORD PTR __$ArrayPad$[ebp]
  0005c	33 cd		 xor	 ecx, ebp
; File C:\Program Files (x86)\Microsoft Visual Studio\2019\Community\VC\Tools\MSVC\14.29.30133\atlmfc\include\afxwin2.inl

; 114  : 	{ ASSERT(::IsWindow(m_hWnd)); ::InvalidateRect(m_hWnd, NULL, bErase); }

  0005e	5e		 pop	 esi
; File D:\git\src\IBK\IBK_DRFN\ProjSrc\SrcDrfn\Chart\MULTICHART\control\GfxOutBarCtrl.cpp

; 2081 : }

  0005f	e8 00 00 00 00	 call	 @__security_check_cookie@4
  00064	8b e5		 mov	 esp, ebp
  00066	5d		 pop	 ebp
  00067	c3		 ret	 0
?OnGfxLargeicon@CGfxOutBarCtrl@@IAEXXZ ENDP		; CGfxOutBarCtrl::OnGfxLargeicon
_TEXT	ENDS
; Function compile flags: /Ogtp
; File D:\git\src\IBK\IBK_DRFN\ProjSrc\SrcDrfn\Chart\MULTICHART\control\GfxOutBarCtrl.cpp
; File C:\Program Files (x86)\Microsoft Visual Studio\2019\Community\VC\Tools\MSVC\14.29.30133\atlmfc\include\afxwin2.inl
; File D:\git\src\IBK\IBK_DRFN\ProjSrc\SrcDrfn\Chart\MULTICHART\control\GfxOutBarCtrl.cpp
; File C:\Program Files (x86)\Microsoft Visual Studio\2019\Community\VC\Tools\MSVC\14.29.30133\atlmfc\include\atltypes.h
; File D:\git\src\IBK\IBK_DRFN\ProjSrc\SrcDrfn\Chart\MULTICHART\control\GfxOutBarCtrl.cpp
; File C:\Program Files (x86)\Microsoft Visual Studio\2019\Community\VC\Tools\MSVC\14.29.30133\atlmfc\include\atltypes.h
; File D:\git\src\IBK\IBK_DRFN\ProjSrc\SrcDrfn\Chart\MULTICHART\control\GfxOutBarCtrl.cpp
; File C:\Program Files (x86)\Microsoft Visual Studio\2019\Community\VC\Tools\MSVC\14.29.30133\atlmfc\include\afxcoll.inl
; File D:\git\src\IBK\IBK_DRFN\ProjSrc\SrcDrfn\Chart\MULTICHART\control\GfxOutBarCtrl.cpp
; File C:\Program Files (x86)\Microsoft Visual Studio\2019\Community\VC\Tools\MSVC\14.29.30133\atlmfc\include\atltypes.h
; File D:\git\src\IBK\IBK_DRFN\ProjSrc\SrcDrfn\Chart\MULTICHART\control\GfxOutBarCtrl.cpp
; File C:\Program Files (x86)\Microsoft Visual Studio\2019\Community\VC\Tools\MSVC\14.29.30133\atlmfc\include\atltypes.h
; File D:\git\src\IBK\IBK_DRFN\ProjSrc\SrcDrfn\Chart\MULTICHART\control\GfxOutBarCtrl.cpp
; File C:\Program Files (x86)\Microsoft Visual Studio\2019\Community\VC\Tools\MSVC\14.29.30133\atlmfc\include\afxcoll.inl
; File D:\git\src\IBK\IBK_DRFN\ProjSrc\SrcDrfn\Chart\MULTICHART\control\GfxOutBarCtrl.cpp
;	COMDAT ?OnSize@CGfxOutBarCtrl@@IAEXIHH@Z
_TEXT	SEGMENT
_szDebug$ = -36						; size = 4
_rc$2 = -32						; size = 16
__$ArrayPad$ = -16					; size = 4
__$EHRec$ = -12						; size = 12
_nType$ = 8						; size = 4
_cx$ = 12						; size = 4
_cy$ = 16						; size = 4
?OnSize@CGfxOutBarCtrl@@IAEXIHH@Z PROC			; CGfxOutBarCtrl::OnSize, COMDAT
; _this$ = ecx

; 1889 : {

  00000	55		 push	 ebp
  00001	8b ec		 mov	 ebp, esp
  00003	6a ff		 push	 -1
  00005	68 00 00 00 00	 push	 __ehhandler$?OnSize@CGfxOutBarCtrl@@IAEXIHH@Z
  0000a	64 a1 00 00 00
	00		 mov	 eax, DWORD PTR fs:0
  00010	50		 push	 eax
  00011	83 ec 18	 sub	 esp, 24			; 00000018H
  00014	a1 00 00 00 00	 mov	 eax, DWORD PTR ___security_cookie
  00019	33 c5		 xor	 eax, ebp
  0001b	89 45 f0	 mov	 DWORD PTR __$ArrayPad$[ebp], eax
  0001e	53		 push	 ebx
  0001f	56		 push	 esi
  00020	57		 push	 edi
  00021	50		 push	 eax
  00022	8d 45 f4	 lea	 eax, DWORD PTR __$EHRec$[ebp]
  00025	64 a3 00 00 00
	00		 mov	 DWORD PTR fs:0, eax
  0002b	8b f9		 mov	 edi, ecx

; 1890 : 	bUpArrow = bDownArrow = false;

  0002d	66 c7 87 c0 00
	00 00 00 00	 mov	 WORD PTR [edi+192], 0
; File C:\Program Files (x86)\Microsoft Visual Studio\2019\Community\VC\Tools\MSVC\14.29.30133\atlmfc\include\afxwin2.inl

; 330  : 	{ Default(); }

  00036	e8 00 00 00 00	 call	 ?Default@CWnd@@IAEJXZ	; CWnd::Default
; File D:\git\src\IBK\IBK_DRFN\ProjSrc\SrcDrfn\Chart\MULTICHART\control\GfxOutBarCtrl.cpp

; 1893 : 	CString szDebug;

  0003b	8d 4d dc	 lea	 ecx, DWORD PTR _szDebug$[ebp]
  0003e	ff 15 00 00 00
	00		 call	 DWORD PTR __imp_??0?$CStringT@DV?$StrTraitMFC_DLL@DV?$ChTraitsCRT@D@ATL@@@@@ATL@@QAE@XZ

; 1894 : 
; 1895 : 	int t, max = GetFolderCount();

  00044	8b 9f 0c 01 00
	00		 mov	 ebx, DWORD PTR [edi+268]
  0004a	c7 45 fc 00 00
	00 00		 mov	 DWORD PTR __$EHRec$[ebp+8], 0

; 1896 : 	if(max>0)

  00051	85 db		 test	 ebx, ebx
  00053	0f 8e 39 01 00
	00		 jle	 $LN3@OnSize
; File C:\Program Files (x86)\Microsoft Visual Studio\2019\Community\VC\Tools\MSVC\14.29.30133\atlmfc\include\atltypes.h

; 542  : 	right = r;

  00059	8b 45 0c	 mov	 eax, DWORD PTR _cx$[ebp]
  0005c	89 45 e8	 mov	 DWORD PTR _rc$2[ebp+8], eax

; 543  : 	bottom = b;

  0005f	8b 45 10	 mov	 eax, DWORD PTR _cy$[ebp]

; 698  : 	::InflateRect(this, -x, -y);

  00062	6a fc		 push	 -4			; fffffffcH

; 543  : 	bottom = b;

  00064	89 45 ec	 mov	 DWORD PTR _rc$2[ebp+12], eax

; 698  : 	::InflateRect(this, -x, -y);

  00067	8d 45 e0	 lea	 eax, DWORD PTR _rc$2[ebp]
  0006a	6a fc		 push	 -4			; fffffffcH
  0006c	50		 push	 eax

; 540  : 	left = l;

  0006d	c7 45 e0 00 00
	00 00		 mov	 DWORD PTR _rc$2[ebp], 0

; 541  : 	top = t;

  00074	c7 45 e4 00 00
	00 00		 mov	 DWORD PTR _rc$2[ebp+4], 0

; 698  : 	::InflateRect(this, -x, -y);

  0007b	ff 15 00 00 00
	00		 call	 DWORD PTR __imp__InflateRect@12
; File D:\git\src\IBK\IBK_DRFN\ProjSrc\SrcDrfn\Chart\MULTICHART\control\GfxOutBarCtrl.cpp

; 1904 : 			if (arFolder.GetSize() > 0)

  00081	8b b7 0c 01 00
	00		 mov	 esi, DWORD PTR [edi+268]
  00087	85 f6		 test	 esi, esi
  00089	0f 8e 8c 00 00
	00		 jle	 $LN54@OnSize

; 1905 : 			{
; 1906 : 				int max = arFolder.GetSize();
; 1907 : 				rc.top += iFolderHeight * (iSelFolder + 1);

  0008f	8b 8f 34 01 00
	00		 mov	 ecx, DWORD PTR [edi+308]

; 1908 : 				{
; 1909 : 					szDebug.Format("SelFolder=%d\n", iSelFolder);

  00095	51		 push	 ecx
  00096	68 00 00 00 00	 push	 OFFSET ??_C@_0O@FPEFBHNP@SelFolder?$DN?$CFd?6@
  0009b	8d 41 01	 lea	 eax, DWORD PTR [ecx+1]
  0009e	0f af 87 a0 00
	00 00		 imul	 eax, DWORD PTR [edi+160]
  000a5	01 45 e4	 add	 DWORD PTR _rc$2[ebp+4], eax
  000a8	8d 45 dc	 lea	 eax, DWORD PTR _szDebug$[ebp]
  000ab	50		 push	 eax
  000ac	ff 15 00 00 00
	00		 call	 DWORD PTR __imp_?Format@?$CStringT@DV?$StrTraitMFC_DLL@DV?$ChTraitsCRT@D@ATL@@@@@ATL@@QAAXPBDZZ
  000b2	83 c4 0c	 add	 esp, 12			; 0000000cH

; 1910 : 					OutputDebugString(szDebug);

  000b5	ff 75 dc	 push	 DWORD PTR _szDebug$[ebp]
  000b8	ff 15 00 00 00
	00		 call	 DWORD PTR __imp__OutputDebugStringA@4

; 1911 : 				}
; 1912 : 				
; 1913 : 				if(iSelFolder == arFolder.GetSize() - 1)

  000be	8b 8f 34 01 00
	00		 mov	 ecx, DWORD PTR [edi+308]
  000c4	2b f1		 sub	 esi, ecx
  000c6	8b 87 0c 01 00
	00		 mov	 eax, DWORD PTR [edi+268]
  000cc	4e		 dec	 esi
  000cd	0f af b7 a0 00
	00 00		 imul	 esi, DWORD PTR [edi+160]
  000d4	48		 dec	 eax
  000d5	3b c8		 cmp	 ecx, eax
  000d7	8b 4d ec	 mov	 ecx, DWORD PTR _rc$2[ebp+12]
  000da	75 09		 jne	 SHORT $LN7@OnSize

; 1914 : 					rc.bottom -= (max - iSelFolder - 1)*iFolderHeight + 1;

  000dc	83 c8 ff	 or	 eax, -1
  000df	2b c6		 sub	 eax, esi
  000e1	03 c8		 add	 ecx, eax
  000e3	eb 02		 jmp	 SHORT $LN57@OnSize
$LN7@OnSize:

; 1915 : 				else
; 1916 : 					rc.bottom -= (max - iSelFolder - 1)*iFolderHeight;

  000e5	2b ce		 sub	 ecx, esi
$LN57@OnSize:

; 1917 : 
; 1918 : 				{
; 1919 : 					szDebug.Format("top=%d, bottom=%d\n", rc.top, rc.bottom);

  000e7	8b 35 00 00 00
	00		 mov	 esi, DWORD PTR __imp_?Format@?$CStringT@DV?$StrTraitMFC_DLL@DV?$ChTraitsCRT@D@ATL@@@@@ATL@@QAAXPBDZZ
  000ed	8d 45 dc	 lea	 eax, DWORD PTR _szDebug$[ebp]
  000f0	51		 push	 ecx
  000f1	ff 75 e4	 push	 DWORD PTR _rc$2[ebp+4]
  000f4	89 4d ec	 mov	 DWORD PTR _rc$2[ebp+12], ecx
  000f7	68 00 00 00 00	 push	 OFFSET ??_C@_0BD@DJDMGDBG@top?$DN?$CFd?0?5bottom?$DN?$CFd?6@
  000fc	50		 push	 eax
  000fd	ff d6		 call	 esi
  000ff	83 c4 10	 add	 esp, 16			; 00000010H

; 1920 : 					OutputDebugString(szDebug);

  00102	ff 75 dc	 push	 DWORD PTR _szDebug$[ebp]
  00105	ff 15 00 00 00
	00		 call	 DWORD PTR __imp__OutputDebugStringA@4

; 1921 : 				}
; 1922 : 
; 1923 : 				rc.left += 1;//+ 2;

  0010b	8b 55 e0	 mov	 edx, DWORD PTR _rc$2[ebp]

; 1924 : 				rc.right -= 1;    

  0010e	8b 4d e8	 mov	 ecx, DWORD PTR _rc$2[ebp+8]
  00111	42		 inc	 edx
  00112	49		 dec	 ecx
  00113	89 55 e0	 mov	 DWORD PTR _rc$2[ebp], edx
  00116	89 4d e8	 mov	 DWORD PTR _rc$2[ebp+8], ecx
  00119	eb 0c		 jmp	 SHORT $LN6@OnSize
$LN54@OnSize:

; 1904 : 			if (arFolder.GetSize() > 0)

  0011b	8b 4d e8	 mov	 ecx, DWORD PTR _rc$2[ebp+8]
  0011e	8b 55 e0	 mov	 edx, DWORD PTR _rc$2[ebp]
  00121	8b 35 00 00 00
	00		 mov	 esi, DWORD PTR __imp_?Format@?$CStringT@DV?$StrTraitMFC_DLL@DV?$ChTraitsCRT@D@ATL@@@@@ATL@@QAAXPBDZZ
$LN6@OnSize:
; File C:\Program Files (x86)\Microsoft Visual Studio\2019\Community\VC\Tools\MSVC\14.29.30133\atlmfc\include\atltypes.h

; 581  : 	return bottom - top;

  00127	8b 45 ec	 mov	 eax, DWORD PTR _rc$2[ebp+12]

; 576  : 	return right - left;

  0012a	2b ca		 sub	 ecx, edx

; 581  : 	return bottom - top;

  0012c	2b 45 e4	 sub	 eax, DWORD PTR _rc$2[ebp+4]
; File D:\git\src\IBK\IBK_DRFN\ProjSrc\SrcDrfn\Chart\MULTICHART\control\GfxOutBarCtrl.cpp

; 1928 : 			szDebug.Format("width=%d, height=%d\n", rc.Width(), rc.Height());

  0012f	50		 push	 eax
  00130	51		 push	 ecx
  00131	8d 45 dc	 lea	 eax, DWORD PTR _szDebug$[ebp]
  00134	68 00 00 00 00	 push	 OFFSET ??_C@_0BF@LOJNHKGH@width?$DN?$CFd?0?5height?$DN?$CFd?6@
  00139	50		 push	 eax
  0013a	ff d6		 call	 esi
  0013c	83 c4 10	 add	 esp, 16			; 00000010H

; 1929 : 			OutputDebugString(szDebug);

  0013f	ff 75 dc	 push	 DWORD PTR _szDebug$[ebp]
  00142	ff 15 00 00 00
	00		 call	 DWORD PTR __imp__OutputDebugStringA@4

; 1930 : 		}
; 1931 : 		for (t = 0; t < max; t++)

  00148	33 f6		 xor	 esi, esi
  0014a	66 0f 1f 44 00
	00		 npad	 6
$LL4@OnSize:
; File C:\Program Files (x86)\Microsoft Visual Studio\2019\Community\VC\Tools\MSVC\14.29.30133\atlmfc\include\afxcoll.inl

; 203  : 		if( nIndex < 0 || nIndex >= m_nSize )

  00150	85 f6		 test	 esi, esi
  00152	78 65		 js	 SHORT $LN30@OnSize
  00154	8b 87 0c 01 00
	00		 mov	 eax, DWORD PTR [edi+268]
  0015a	3b f0		 cmp	 esi, eax
  0015c	7d 5b		 jge	 SHORT $LN30@OnSize
; File D:\git\src\IBK\IBK_DRFN\ProjSrc\SrcDrfn\Chart\MULTICHART\control\GfxOutBarCtrl.cpp

; 2457 : 	if (nFolderCnt)

  0015e	85 c0		 test	 eax, eax
  00160	74 2b		 je	 SHORT $LN2@OnSize

; 2458 : 	{
; 2459 : 		if (iFolder < 0) iFolder = iSelFolder;
; 2460 : 		if (nFolderCnt <= iFolder) return NULL;
; 2461 : 		CBarFolder * pbf = (CBarFolder *) arFolder.GetAt(iFolder);
; 2462 : 		return pbf->pChild;

  00162	8b 87 08 01 00
	00		 mov	 eax, DWORD PTR [edi+264]
  00168	8b 04 b0	 mov	 eax, DWORD PTR [eax+esi*4]
  0016b	8b 48 28	 mov	 ecx, DWORD PTR [eax+40]

; 1932 : 		{
; 1933 : 			CBarFolder * pbf = (CBarFolder *) arFolder.GetAt(t);
; 1934 : 			CWnd * pc = GetFolderChild(t);
; 1935 : 			if (pc) 

  0016e	85 c9		 test	 ecx, ecx
  00170	74 1b		 je	 SHORT $LN2@OnSize
; File C:\Program Files (x86)\Microsoft Visual Studio\2019\Community\VC\Tools\MSVC\14.29.30133\atlmfc\include\atltypes.h

; 581  : 	return bottom - top;

  00172	8b 45 ec	 mov	 eax, DWORD PTR _rc$2[ebp+12]
  00175	2b 45 e4	 sub	 eax, DWORD PTR _rc$2[ebp+4]
; File D:\git\src\IBK\IBK_DRFN\ProjSrc\SrcDrfn\Chart\MULTICHART\control\GfxOutBarCtrl.cpp

; 1938 : 				pc->SetWindowPos(0, 0, 0, rc.Width(), rc.Height(), SWP_NOMOVE|SWP_NOACTIVATE|SWP_NOZORDER);

  00178	6a 16		 push	 22			; 00000016H
  0017a	50		 push	 eax
; File C:\Program Files (x86)\Microsoft Visual Studio\2019\Community\VC\Tools\MSVC\14.29.30133\atlmfc\include\atltypes.h

; 576  : 	return right - left;

  0017b	8b 45 e8	 mov	 eax, DWORD PTR _rc$2[ebp+8]
  0017e	2b 45 e0	 sub	 eax, DWORD PTR _rc$2[ebp]
; File D:\git\src\IBK\IBK_DRFN\ProjSrc\SrcDrfn\Chart\MULTICHART\control\GfxOutBarCtrl.cpp

; 1938 : 				pc->SetWindowPos(0, 0, 0, rc.Width(), rc.Height(), SWP_NOMOVE|SWP_NOACTIVATE|SWP_NOZORDER);

  00181	50		 push	 eax
  00182	6a 00		 push	 0
  00184	6a 00		 push	 0
  00186	6a 00		 push	 0
  00188	e8 00 00 00 00	 call	 ?SetWindowPos@CWnd@@QAEHPBV1@HHHHI@Z ; CWnd::SetWindowPos
$LN2@OnSize:

; 1930 : 		}
; 1931 : 		for (t = 0; t < max; t++)

  0018d	46		 inc	 esi
  0018e	3b f3		 cmp	 esi, ebx
  00190	7c be		 jl	 SHORT $LL4@OnSize
$LN3@OnSize:

; 1942 : } 

  00192	8d 4d dc	 lea	 ecx, DWORD PTR _szDebug$[ebp]
  00195	ff 15 00 00 00
	00		 call	 DWORD PTR __imp_??1?$CStringT@DV?$StrTraitMFC_DLL@DV?$ChTraitsCRT@D@ATL@@@@@ATL@@QAE@XZ
  0019b	8b 4d f4	 mov	 ecx, DWORD PTR __$EHRec$[ebp]
  0019e	64 89 0d 00 00
	00 00		 mov	 DWORD PTR fs:0, ecx
  001a5	59		 pop	 ecx
  001a6	5f		 pop	 edi
  001a7	5e		 pop	 esi
  001a8	5b		 pop	 ebx
  001a9	8b 4d f0	 mov	 ecx, DWORD PTR __$ArrayPad$[ebp]
  001ac	33 cd		 xor	 ecx, ebp
  001ae	e8 00 00 00 00	 call	 @__security_check_cookie@4
  001b3	8b e5		 mov	 esp, ebp
  001b5	5d		 pop	 ebp
  001b6	c2 0c 00	 ret	 12			; 0000000cH
$LN30@OnSize:
; File C:\Program Files (x86)\Microsoft Visual Studio\2019\Community\VC\Tools\MSVC\14.29.30133\atlmfc\include\afxcoll.inl

; 204  : 			AfxThrowInvalidArgException();

  001b9	e8 00 00 00 00	 call	 ?AfxThrowInvalidArgException@@YGXXZ ; AfxThrowInvalidArgException
$LN56@OnSize:
  001be	cc		 int	 3
_TEXT	ENDS
;	COMDAT text$x
text$x	SEGMENT
__unwindfunclet$?OnSize@CGfxOutBarCtrl@@IAEXIHH@Z$0:
  00000	8d 4d dc	 lea	 ecx, DWORD PTR _szDebug$[ebp]
  00003	ff 25 00 00 00
	00		 jmp	 DWORD PTR __imp_??1?$CStringT@DV?$StrTraitMFC_DLL@DV?$ChTraitsCRT@D@ATL@@@@@ATL@@QAE@XZ
  00009	cc		 int	 3
  0000a	cc		 int	 3
  0000b	cc		 int	 3
  0000c	cc		 int	 3
  0000d	cc		 int	 3
__ehhandler$?OnSize@CGfxOutBarCtrl@@IAEXIHH@Z:
  0000e	90		 npad	 1
  0000f	90		 npad	 1
  00010	8b 54 24 08	 mov	 edx, DWORD PTR [esp+8]
  00014	8d 42 0c	 lea	 eax, DWORD PTR [edx+12]
  00017	8b 4a d8	 mov	 ecx, DWORD PTR [edx-40]
  0001a	33 c8		 xor	 ecx, eax
  0001c	e8 00 00 00 00	 call	 @__security_check_cookie@4
  00021	8b 4a fc	 mov	 ecx, DWORD PTR [edx-4]
  00024	33 c8		 xor	 ecx, eax
  00026	e8 00 00 00 00	 call	 @__security_check_cookie@4
  0002b	b8 00 00 00 00	 mov	 eax, OFFSET __ehfuncinfo$?OnSize@CGfxOutBarCtrl@@IAEXIHH@Z
  00030	e9 00 00 00 00	 jmp	 ___CxxFrameHandler3
text$x	ENDS
?OnSize@CGfxOutBarCtrl@@IAEXIHH@Z ENDP			; CGfxOutBarCtrl::OnSize
; Function compile flags: /Ogtp
; File D:\git\src\IBK\IBK_DRFN\ProjSrc\SrcDrfn\Chart\MULTICHART\control\GfxOutBarCtrl.cpp
; File C:\Program Files (x86)\Microsoft Visual Studio\2019\Community\VC\Tools\MSVC\14.29.30133\atlmfc\include\atltypes.h
; File C:\Program Files (x86)\Microsoft Visual Studio\2019\Community\VC\Tools\MSVC\14.29.30133\atlmfc\include\afxwin2.inl
; File C:\Program Files (x86)\Microsoft Visual Studio\2019\Community\VC\Tools\MSVC\14.29.30133\atlmfc\include\atltypes.h
; File C:\Program Files (x86)\Microsoft Visual Studio\2019\Community\VC\Tools\MSVC\14.29.30133\atlmfc\include\afxwin2.inl
; File D:\git\src\IBK\IBK_DRFN\ProjSrc\SrcDrfn\Chart\MULTICHART\control\GfxOutBarCtrl.cpp
; File C:\Program Files (x86)\Microsoft Visual Studio\2019\Community\VC\Tools\MSVC\14.29.30133\atlmfc\include\afxwin2.inl
; File D:\git\src\IBK\IBK_DRFN\ProjSrc\SrcDrfn\Chart\MULTICHART\control\GfxOutBarCtrl.cpp
;	COMDAT ?OnSetCursor@CGfxOutBarCtrl@@IAEHPAVCWnd@@II@Z
_TEXT	SEGMENT
_pt$ = -12						; size = 8
_index$ = -4						; size = 4
_pWnd$ = 8						; size = 4
_nHitTest$ = 12						; size = 4
_message$ = 16						; size = 4
?OnSetCursor@CGfxOutBarCtrl@@IAEHPAVCWnd@@II@Z PROC	; CGfxOutBarCtrl::OnSetCursor, COMDAT
; _this$ = ecx

; 1852 : {

  00000	55		 push	 ebp
  00001	8b ec		 mov	 ebp, esp
  00003	83 ec 0c	 sub	 esp, 12			; 0000000cH
  00006	56		 push	 esi
  00007	8b f1		 mov	 esi, ecx

; 1853 : 	CPoint pt(GetMessagePos());

  00009	ff 15 00 00 00
	00		 call	 DWORD PTR __imp__GetMessagePos@0
; File C:\Program Files (x86)\Microsoft Visual Studio\2019\Community\VC\Tools\MSVC\14.29.30133\atlmfc\include\atltypes.h

; 424  : 	x = (short)LOWORD(dwPoint);

  0000f	0f bf d0	 movsx	 edx, ax

; 425  : 	y = (short)HIWORD(dwPoint);

  00012	c1 e8 10	 shr	 eax, 16			; 00000010H
  00015	98		 cwde
  00016	89 45 f8	 mov	 DWORD PTR _pt$[ebp+4], eax
; File C:\Program Files (x86)\Microsoft Visual Studio\2019\Community\VC\Tools\MSVC\14.29.30133\atlmfc\include\afxwin2.inl

; 94   : 	{ ASSERT(::IsWindow(m_hWnd)); ::ScreenToClient(m_hWnd, lpPoint); }

  00019	8d 45 f4	 lea	 eax, DWORD PTR _pt$[ebp]
  0001c	50		 push	 eax
  0001d	ff 76 20	 push	 DWORD PTR [esi+32]
; File C:\Program Files (x86)\Microsoft Visual Studio\2019\Community\VC\Tools\MSVC\14.29.30133\atlmfc\include\atltypes.h

; 424  : 	x = (short)LOWORD(dwPoint);

  00020	89 55 f4	 mov	 DWORD PTR _pt$[ebp], edx
; File C:\Program Files (x86)\Microsoft Visual Studio\2019\Community\VC\Tools\MSVC\14.29.30133\atlmfc\include\afxwin2.inl

; 94   : 	{ ASSERT(::IsWindow(m_hWnd)); ::ScreenToClient(m_hWnd, lpPoint); }

  00023	ff 15 00 00 00
	00		 call	 DWORD PTR __imp__ScreenToClient@8
; File D:\git\src\IBK\IBK_DRFN\ProjSrc\SrcDrfn\Chart\MULTICHART\control\GfxOutBarCtrl.cpp

; 1855 : 	int index, ht = HitTestEx(pt, index);

  00029	8d 45 fc	 lea	 eax, DWORD PTR _index$[ebp]
  0002c	8b ce		 mov	 ecx, esi
  0002e	50		 push	 eax
  0002f	8d 45 f4	 lea	 eax, DWORD PTR _pt$[ebp]
  00032	50		 push	 eax
  00033	e8 00 00 00 00	 call	 ?HitTestEx@CGfxOutBarCtrl@@QAEHABVCPoint@@AAH@Z ; CGfxOutBarCtrl::HitTestEx

; 1856 : 	if (ht == htFolder)

  00038	85 c0		 test	 eax, eax
  0003a	75 18		 jne	 SHORT $LN2@OnSetCurso

; 1857 : 	{
; 1858 : 		SetCursor(hHandCursor);

  0003c	ff b6 40 01 00
	00		 push	 DWORD PTR [esi+320]
  00042	ff 15 00 00 00
	00		 call	 DWORD PTR __imp__SetCursor@4

; 1859 : 		return true;

  00048	b8 01 00 00 00	 mov	 eax, 1
  0004d	5e		 pop	 esi

; 1863 : }

  0004e	8b e5		 mov	 esp, ebp
  00050	5d		 pop	 ebp
  00051	c2 0c 00	 ret	 12			; 0000000cH
$LN2@OnSetCurso:
; File C:\Program Files (x86)\Microsoft Visual Studio\2019\Community\VC\Tools\MSVC\14.29.30133\atlmfc\include\afxwin2.inl

; 326  : 	{ return (BOOL)Default(); }

  00054	8b ce		 mov	 ecx, esi
  00056	e8 00 00 00 00	 call	 ?Default@CWnd@@IAEJXZ	; CWnd::Default
  0005b	5e		 pop	 esi
; File D:\git\src\IBK\IBK_DRFN\ProjSrc\SrcDrfn\Chart\MULTICHART\control\GfxOutBarCtrl.cpp

; 1863 : }

  0005c	8b e5		 mov	 esp, ebp
  0005e	5d		 pop	 ebp
  0005f	c2 0c 00	 ret	 12			; 0000000cH
?OnSetCursor@CGfxOutBarCtrl@@IAEHPAVCWnd@@II@Z ENDP	; CGfxOutBarCtrl::OnSetCursor
_TEXT	ENDS
; Function compile flags: /Ogtp
; File D:\git\src\IBK\IBK_DRFN\ProjSrc\SrcDrfn\Chart\MULTICHART\control\GfxOutBarCtrl.cpp
; File C:\Program Files (x86)\Microsoft Visual Studio\2019\Community\VC\Tools\MSVC\14.29.30133\atlmfc\include\afxwin2.inl
; File D:\git\src\IBK\IBK_DRFN\ProjSrc\SrcDrfn\Chart\MULTICHART\control\GfxOutBarCtrl.cpp
; File C:\Program Files (x86)\Microsoft Visual Studio\2019\Community\VC\Tools\MSVC\14.29.30133\atlmfc\include\atltypes.h
; File D:\git\src\IBK\IBK_DRFN\ProjSrc\SrcDrfn\Chart\MULTICHART\control\GfxOutBarCtrl.cpp
; File C:\Program Files (x86)\Microsoft Visual Studio\2019\Community\VC\Tools\MSVC\14.29.30133\atlmfc\include\atltypes.h
; File D:\git\src\IBK\IBK_DRFN\ProjSrc\SrcDrfn\Chart\MULTICHART\control\GfxOutBarCtrl.cpp
; File C:\Program Files (x86)\Microsoft Visual Studio\2019\Community\VC\Tools\MSVC\14.29.30133\atlmfc\include\afxwin2.inl
; File D:\git\src\IBK\IBK_DRFN\ProjSrc\SrcDrfn\Chart\MULTICHART\control\GfxOutBarCtrl.cpp
; File C:\Program Files (x86)\Microsoft Visual Studio\2019\Community\VC\Tools\MSVC\14.29.30133\atlmfc\include\afxwin2.inl
; File D:\git\src\IBK\IBK_DRFN\ProjSrc\SrcDrfn\Chart\MULTICHART\control\GfxOutBarCtrl.cpp
; File C:\Program Files (x86)\Microsoft Visual Studio\2019\Community\VC\Tools\MSVC\14.29.30133\atlmfc\include\atltypes.h
; File D:\git\src\IBK\IBK_DRFN\ProjSrc\SrcDrfn\Chart\MULTICHART\control\GfxOutBarCtrl.cpp
; File C:\Program Files (x86)\Microsoft Visual Studio\2019\Community\VC\Tools\MSVC\14.29.30133\atlmfc\include\atltypes.h
; File D:\git\src\IBK\IBK_DRFN\ProjSrc\SrcDrfn\Chart\MULTICHART\control\GfxOutBarCtrl.cpp
; File C:\Program Files (x86)\Microsoft Visual Studio\2019\Community\VC\Tools\MSVC\14.29.30133\atlmfc\include\afxwin2.inl
; File D:\git\src\IBK\IBK_DRFN\ProjSrc\SrcDrfn\Chart\MULTICHART\control\GfxOutBarCtrl.cpp
; File C:\Program Files (x86)\Microsoft Visual Studio\2019\Community\VC\Tools\MSVC\14.29.30133\atlmfc\include\afxwin2.inl
; File D:\git\src\IBK\IBK_DRFN\ProjSrc\SrcDrfn\Chart\MULTICHART\control\GfxOutBarCtrl.cpp
; File C:\Program Files (x86)\Microsoft Visual Studio\2019\Community\VC\Tools\MSVC\14.29.30133\atlmfc\include\atltypes.h
; File D:\git\src\IBK\IBK_DRFN\ProjSrc\SrcDrfn\Chart\MULTICHART\control\GfxOutBarCtrl.cpp
; File C:\Program Files (x86)\Microsoft Visual Studio\2019\Community\VC\Tools\MSVC\14.29.30133\atlmfc\include\afxwin2.inl
; File D:\git\src\IBK\IBK_DRFN\ProjSrc\SrcDrfn\Chart\MULTICHART\control\GfxOutBarCtrl.cpp
; File C:\Program Files (x86)\Microsoft Visual Studio\2019\Community\VC\Tools\MSVC\14.29.30133\atlmfc\include\afxwin2.inl
; File D:\git\src\IBK\IBK_DRFN\ProjSrc\SrcDrfn\Chart\MULTICHART\control\GfxOutBarCtrl.cpp
; File C:\Program Files (x86)\Microsoft Visual Studio\2019\Community\VC\Tools\MSVC\14.29.30133\atlmfc\include\afxwin2.inl
; File D:\git\src\IBK\IBK_DRFN\ProjSrc\SrcDrfn\Chart\MULTICHART\control\GfxOutBarCtrl.cpp
; File C:\Program Files (x86)\Microsoft Visual Studio\2019\Community\VC\Tools\MSVC\14.29.30133\atlmfc\include\atltypes.h
; File D:\git\src\IBK\IBK_DRFN\ProjSrc\SrcDrfn\Chart\MULTICHART\control\GfxOutBarCtrl.cpp
; File C:\Program Files (x86)\Microsoft Visual Studio\2019\Community\VC\Tools\MSVC\14.29.30133\atlmfc\include\atltypes.h
; File D:\git\src\IBK\IBK_DRFN\ProjSrc\SrcDrfn\Chart\MULTICHART\control\GfxOutBarCtrl.cpp
; File C:\Program Files (x86)\Microsoft Visual Studio\2019\Community\VC\Tools\MSVC\14.29.30133\atlmfc\include\atltypes.h
; File D:\git\src\IBK\IBK_DRFN\ProjSrc\SrcDrfn\Chart\MULTICHART\control\GfxOutBarCtrl.cpp
; File C:\Program Files (x86)\Microsoft Visual Studio\2019\Community\VC\Tools\MSVC\14.29.30133\atlmfc\include\atltypes.h
; File C:\Program Files (x86)\Microsoft Visual Studio\2019\Community\VC\Tools\MSVC\14.29.30133\atlmfc\include\afxwin2.inl
; File D:\git\src\IBK\IBK_DRFN\ProjSrc\SrcDrfn\Chart\MULTICHART\control\GfxOutBarCtrl.cpp
; File C:\Program Files (x86)\Microsoft Visual Studio\2019\Community\VC\Tools\MSVC\14.29.30133\atlmfc\include\atltypes.h
; File D:\git\src\IBK\IBK_DRFN\ProjSrc\SrcDrfn\Chart\MULTICHART\control\GfxOutBarCtrl.cpp
; File C:\Program Files (x86)\Microsoft Visual Studio\2019\Community\VC\Tools\MSVC\14.29.30133\atlmfc\include\atltypes.h
; File C:\Program Files (x86)\Microsoft Visual Studio\2019\Community\VC\Tools\MSVC\14.29.30133\atlmfc\include\afxwin2.inl
; File D:\git\src\IBK\IBK_DRFN\ProjSrc\SrcDrfn\Chart\MULTICHART\control\GfxOutBarCtrl.cpp
; File C:\Program Files (x86)\Microsoft Visual Studio\2019\Community\VC\Tools\MSVC\14.29.30133\atlmfc\include\afxwin2.inl
; File D:\git\src\IBK\IBK_DRFN\ProjSrc\SrcDrfn\Chart\MULTICHART\control\GfxOutBarCtrl.cpp
; File C:\Program Files (x86)\Microsoft Visual Studio\2019\Community\VC\Tools\MSVC\14.29.30133\atlmfc\include\afxwin2.inl
; File D:\git\src\IBK\IBK_DRFN\ProjSrc\SrcDrfn\Chart\MULTICHART\control\GfxOutBarCtrl.cpp
; File C:\Program Files (x86)\Microsoft Visual Studio\2019\Community\VC\Tools\MSVC\14.29.30133\atlmfc\include\afxwin2.inl
; File D:\git\src\IBK\IBK_DRFN\ProjSrc\SrcDrfn\Chart\MULTICHART\control\GfxOutBarCtrl.cpp
; File C:\Program Files (x86)\Microsoft Visual Studio\2019\Community\VC\Tools\MSVC\14.29.30133\atlmfc\include\afxwin1.inl
; File D:\git\src\IBK\IBK_DRFN\ProjSrc\SrcDrfn\Chart\MULTICHART\control\GfxOutBarCtrl.cpp
; File C:\Program Files (x86)\Microsoft Visual Studio\2019\Community\VC\Tools\MSVC\14.29.30133\atlmfc\include\afxwin1.inl
; File C:\Program Files (x86)\Microsoft Visual Studio\2019\Community\VC\Tools\MSVC\14.29.30133\atlmfc\include\afxwin2.inl
; File D:\git\src\IBK\IBK_DRFN\ProjSrc\SrcDrfn\Chart\MULTICHART\control\GfxOutBarCtrl.cpp
; File C:\Program Files (x86)\Microsoft Visual Studio\2019\Community\VC\Tools\MSVC\14.29.30133\atlmfc\include\afxwin2.inl
; File D:\git\src\IBK\IBK_DRFN\ProjSrc\SrcDrfn\Chart\MULTICHART\control\GfxOutBarCtrl.cpp
; File C:\Program Files (x86)\Microsoft Visual Studio\2019\Community\VC\Tools\MSVC\14.29.30133\atlmfc\include\afxwin1.inl
; File C:\Program Files (x86)\Microsoft Visual Studio\2019\Community\VC\Tools\MSVC\14.29.30133\atlmfc\include\atltypes.h
; File D:\git\src\IBK\IBK_DRFN\ProjSrc\SrcDrfn\Chart\MULTICHART\control\GfxOutBarCtrl.cpp
; File C:\Program Files (x86)\Microsoft Visual Studio\2019\Community\VC\Tools\MSVC\14.29.30133\atlmfc\include\atltypes.h
; File D:\git\src\IBK\IBK_DRFN\ProjSrc\SrcDrfn\Chart\MULTICHART\control\GfxOutBarCtrl.cpp
; File C:\Program Files (x86)\Microsoft Visual Studio\2019\Community\VC\Tools\MSVC\14.29.30133\atlmfc\include\atltypes.h
; File C:\Program Files (x86)\Microsoft Visual Studio\2019\Community\VC\Tools\MSVC\14.29.30133\atlmfc\include\afxcoll.inl
; File D:\git\src\IBK\IBK_DRFN\ProjSrc\SrcDrfn\Chart\MULTICHART\control\GfxOutBarCtrl.cpp
; File C:\Program Files (x86)\Microsoft Visual Studio\2019\Community\VC\Tools\MSVC\14.29.30133\atlmfc\include\afxcoll.inl
; File D:\git\src\IBK\IBK_DRFN\ProjSrc\SrcDrfn\Chart\MULTICHART\control\GfxOutBarCtrl.cpp
; File C:\Program Files (x86)\Microsoft Visual Studio\2019\Community\VC\Tools\MSVC\14.29.30133\atlmfc\include\atltypes.h
; File D:\git\src\IBK\IBK_DRFN\ProjSrc\SrcDrfn\Chart\MULTICHART\control\GfxOutBarCtrl.cpp
; File C:\Program Files (x86)\Microsoft Visual Studio\2019\Community\VC\Tools\MSVC\14.29.30133\atlmfc\include\afxwin2.inl
; File D:\git\src\IBK\IBK_DRFN\ProjSrc\SrcDrfn\Chart\MULTICHART\control\GfxOutBarCtrl.cpp
; File C:\Program Files (x86)\Microsoft Visual Studio\2019\Community\VC\Tools\MSVC\14.29.30133\atlmfc\include\afxwin2.inl
; File D:\git\src\IBK\IBK_DRFN\ProjSrc\SrcDrfn\Chart\MULTICHART\control\GfxOutBarCtrl.cpp
; File C:\Program Files (x86)\Microsoft Visual Studio\2019\Community\VC\Tools\MSVC\14.29.30133\atlmfc\include\afxwin2.inl
; File D:\git\src\IBK\IBK_DRFN\ProjSrc\SrcDrfn\Chart\MULTICHART\control\GfxOutBarCtrl.cpp
; File C:\Program Files (x86)\Microsoft Visual Studio\2019\Community\VC\Tools\MSVC\14.29.30133\atlmfc\include\atltypes.h
; File C:\Program Files (x86)\Microsoft Visual Studio\2019\Community\VC\Tools\MSVC\14.29.30133\atlmfc\include\afxwin2.inl
; File C:\Program Files (x86)\Microsoft Visual Studio\2019\Community\VC\Tools\MSVC\14.29.30133\atlmfc\include\atltypes.h
; File D:\git\src\IBK\IBK_DRFN\ProjSrc\SrcDrfn\Chart\MULTICHART\control\GfxOutBarCtrl.cpp
; File C:\Program Files (x86)\Microsoft Visual Studio\2019\Community\VC\Tools\MSVC\14.29.30133\atlmfc\include\atltypes.h
; File C:\Program Files (x86)\Microsoft Visual Studio\2019\Community\VC\Tools\MSVC\14.29.30133\atlmfc\include\afxwin2.inl
; File C:\Program Files (x86)\Microsoft Visual Studio\2019\Community\VC\Tools\MSVC\14.29.30133\atlmfc\include\atltypes.h
; File C:\Program Files (x86)\Microsoft Visual Studio\2019\Community\VC\Tools\MSVC\14.29.30133\atlmfc\include\afxwin2.inl
; File C:\Program Files (x86)\Microsoft Visual Studio\2019\Community\VC\Tools\MSVC\14.29.30133\atlmfc\include\atltypes.h
; File D:\git\src\IBK\IBK_DRFN\ProjSrc\SrcDrfn\Chart\MULTICHART\control\GfxOutBarCtrl.cpp
; File C:\Program Files (x86)\Microsoft Visual Studio\2019\Community\VC\Tools\MSVC\14.29.30133\atlmfc\include\atltypes.h
; File C:\Program Files (x86)\Microsoft Visual Studio\2019\Community\VC\Tools\MSVC\14.29.30133\atlmfc\include\afxcoll.inl
; File D:\git\src\IBK\IBK_DRFN\ProjSrc\SrcDrfn\Chart\MULTICHART\control\GfxOutBarCtrl.cpp
; File C:\Program Files (x86)\Microsoft Visual Studio\2019\Community\VC\Tools\MSVC\14.29.30133\atlmfc\include\afxcoll.inl
; File D:\git\src\IBK\IBK_DRFN\ProjSrc\SrcDrfn\Chart\MULTICHART\control\GfxOutBarCtrl.cpp
; File C:\Program Files (x86)\Microsoft Visual Studio\2019\Community\VC\Tools\MSVC\14.29.30133\atlmfc\include\atltypes.h
; File D:\git\src\IBK\IBK_DRFN\ProjSrc\SrcDrfn\Chart\MULTICHART\control\GfxOutBarCtrl.cpp
; File C:\Program Files (x86)\Microsoft Visual Studio\2019\Community\VC\Tools\MSVC\14.29.30133\atlmfc\include\afxwin2.inl
; File D:\git\src\IBK\IBK_DRFN\ProjSrc\SrcDrfn\Chart\MULTICHART\control\GfxOutBarCtrl.cpp
; File C:\Program Files (x86)\Microsoft Visual Studio\2019\Community\VC\Tools\MSVC\14.29.30133\atlmfc\include\afxwin2.inl
; File D:\git\src\IBK\IBK_DRFN\ProjSrc\SrcDrfn\Chart\MULTICHART\control\GfxOutBarCtrl.cpp
; File C:\Program Files (x86)\Microsoft Visual Studio\2019\Community\VC\Tools\MSVC\14.29.30133\atlmfc\include\afxwin2.inl
; File D:\git\src\IBK\IBK_DRFN\ProjSrc\SrcDrfn\Chart\MULTICHART\control\GfxOutBarCtrl.cpp
; File C:\Program Files (x86)\Microsoft Visual Studio\2019\Community\VC\Tools\MSVC\14.29.30133\atlmfc\include\afxwin2.inl
; File D:\git\src\IBK\IBK_DRFN\ProjSrc\SrcDrfn\Chart\MULTICHART\control\GfxOutBarCtrl.cpp
; File C:\Program Files (x86)\Microsoft Visual Studio\2019\Community\VC\Tools\MSVC\14.29.30133\atlmfc\include\afxwin1.inl
; File D:\git\src\IBK\IBK_DRFN\ProjSrc\SrcDrfn\Chart\MULTICHART\control\GfxOutBarCtrl.cpp
; File C:\Program Files (x86)\Microsoft Visual Studio\2019\Community\VC\Tools\MSVC\14.29.30133\atlmfc\include\afxwin1.inl
; File C:\Program Files (x86)\Microsoft Visual Studio\2019\Community\VC\Tools\MSVC\14.29.30133\atlmfc\include\afxwin2.inl
; File D:\git\src\IBK\IBK_DRFN\ProjSrc\SrcDrfn\Chart\MULTICHART\control\GfxOutBarCtrl.cpp
; File C:\Program Files (x86)\Microsoft Visual Studio\2019\Community\VC\Tools\MSVC\14.29.30133\atlmfc\include\afxwin2.inl
; File D:\git\src\IBK\IBK_DRFN\ProjSrc\SrcDrfn\Chart\MULTICHART\control\GfxOutBarCtrl.cpp
; File C:\Program Files (x86)\Microsoft Visual Studio\2019\Community\VC\Tools\MSVC\14.29.30133\atlmfc\include\afxwin1.inl
; File C:\Program Files (x86)\Microsoft Visual Studio\2019\Community\VC\Tools\MSVC\14.29.30133\atlmfc\include\atltypes.h
; File D:\git\src\IBK\IBK_DRFN\ProjSrc\SrcDrfn\Chart\MULTICHART\control\GfxOutBarCtrl.cpp
; File C:\Program Files (x86)\Microsoft Visual Studio\2019\Community\VC\Tools\MSVC\14.29.30133\atlmfc\include\atltypes.h
; File D:\git\src\IBK\IBK_DRFN\ProjSrc\SrcDrfn\Chart\MULTICHART\control\GfxOutBarCtrl.cpp
; File C:\Program Files (x86)\Microsoft Visual Studio\2019\Community\VC\Tools\MSVC\14.29.30133\atlmfc\include\atltypes.h
; File D:\git\src\IBK\IBK_DRFN\ProjSrc\SrcDrfn\Chart\MULTICHART\control\GfxOutBarCtrl.cpp
; File C:\Program Files (x86)\Microsoft Visual Studio\2019\Community\VC\Tools\MSVC\14.29.30133\atlmfc\include\afxwin2.inl
; File D:\git\src\IBK\IBK_DRFN\ProjSrc\SrcDrfn\Chart\MULTICHART\control\GfxOutBarCtrl.cpp
; File C:\Program Files (x86)\Microsoft Visual Studio\2019\Community\VC\Tools\MSVC\14.29.30133\atlmfc\include\afxwin2.inl
; File D:\git\src\IBK\IBK_DRFN\ProjSrc\SrcDrfn\Chart\MULTICHART\control\GfxOutBarCtrl.cpp
; File C:\Program Files (x86)\Microsoft Visual Studio\2019\Community\VC\Tools\MSVC\14.29.30133\atlmfc\include\afxwin2.inl
; File D:\git\src\IBK\IBK_DRFN\ProjSrc\SrcDrfn\Chart\MULTICHART\control\GfxOutBarCtrl.cpp
; File C:\Program Files (x86)\Microsoft Visual Studio\2019\Community\VC\Tools\MSVC\14.29.30133\atlmfc\include\atltypes.h
; File C:\Program Files (x86)\Microsoft Visual Studio\2019\Community\VC\Tools\MSVC\14.29.30133\atlmfc\include\afxwin2.inl
; File C:\Program Files (x86)\Microsoft Visual Studio\2019\Community\VC\Tools\MSVC\14.29.30133\atlmfc\include\atltypes.h
; File D:\git\src\IBK\IBK_DRFN\ProjSrc\SrcDrfn\Chart\MULTICHART\control\GfxOutBarCtrl.cpp
; File C:\Program Files (x86)\Microsoft Visual Studio\2019\Community\VC\Tools\MSVC\14.29.30133\atlmfc\include\atltypes.h
; File C:\Program Files (x86)\Microsoft Visual Studio\2019\Community\VC\Tools\MSVC\14.29.30133\atlmfc\include\afxwin2.inl
; File C:\Program Files (x86)\Microsoft Visual Studio\2019\Community\VC\Tools\MSVC\14.29.30133\atlmfc\include\atltypes.h
; File C:\Program Files (x86)\Microsoft Visual Studio\2019\Community\VC\Tools\MSVC\14.29.30133\atlmfc\include\afxwin2.inl
; File C:\Program Files (x86)\Microsoft Visual Studio\2019\Community\VC\Tools\MSVC\14.29.30133\atlmfc\include\atltypes.h
; File D:\git\src\IBK\IBK_DRFN\ProjSrc\SrcDrfn\Chart\MULTICHART\control\GfxOutBarCtrl.cpp
; File C:\Program Files (x86)\Microsoft Visual Studio\2019\Community\VC\Tools\MSVC\14.29.30133\atlmfc\include\afxwin2.inl
; File D:\git\src\IBK\IBK_DRFN\ProjSrc\SrcDrfn\Chart\MULTICHART\control\GfxOutBarCtrl.cpp
; File C:\Program Files (x86)\Microsoft Visual Studio\2019\Community\VC\Tools\MSVC\14.29.30133\atlmfc\include\afxwin2.inl
; File D:\git\src\IBK\IBK_DRFN\ProjSrc\SrcDrfn\Chart\MULTICHART\control\GfxOutBarCtrl.cpp
; File C:\Program Files (x86)\Microsoft Visual Studio\2019\Community\VC\Tools\MSVC\14.29.30133\atlmfc\include\afxwin2.inl
; File D:\git\src\IBK\IBK_DRFN\ProjSrc\SrcDrfn\Chart\MULTICHART\control\GfxOutBarCtrl.cpp
; File C:\Program Files (x86)\Microsoft Visual Studio\2019\Community\VC\Tools\MSVC\14.29.30133\atlmfc\include\afxwin2.inl
; File D:\git\src\IBK\IBK_DRFN\ProjSrc\SrcDrfn\Chart\MULTICHART\control\GfxOutBarCtrl.cpp
;	COMDAT ?OnLButtonDown@CGfxOutBarCtrl@@IAEXIVCPoint@@@Z
_TEXT	SEGMENT
_dc$2 = -184						; size = 20
_dc$3 = -184						; size = 20
_dc$4 = -184						; size = 20
_msg$5 = -164						; size = 28
_dc$6 = -156						; size = 20
_msg$7 = -136						; size = 28
_msg$8 = -136						; size = 28
_msg$9 = -136						; size = 28
_pt$10 = -108						; size = 8
_hCur$1$ = -104						; size = 4
_idx$11 = -104						; size = 4
_idx$12 = -104						; size = 4
_index$ = -104						; size = 4
_bHigh$1$ = -97						; size = 1
_inRc$ = -96						; size = 16
_crc$13 = -80						; size = 16
_itrc$14 = -64						; size = 16
_itrc$15 = -64						; size = 16
_pt$16 = -56						; size = 8
_pt$17 = -56						; size = 8
_pt$18 = -56						; size = 8
_crc$19 = -48						; size = 16
_crc$20 = -48						; size = 16
_rc$21 = -48						; size = 16
_rc$22 = -48						; size = 16
_crc$23 = -32						; size = 16
_crc$24 = -32						; size = 16
_crc$25 = -32						; size = 16
_rc$26 = -32						; size = 16
_rc$27 = -32						; size = 16
__$ArrayPad$ = -16					; size = 4
__$EHRec$ = -12						; size = 12
_nFlags$ = 8						; size = 4
_point$ = 12						; size = 8
?OnLButtonDown@CGfxOutBarCtrl@@IAEXIVCPoint@@@Z PROC	; CGfxOutBarCtrl::OnLButtonDown, COMDAT
; _this$ = ecx

; 958  : {

  00000	55		 push	 ebp
  00001	8b ec		 mov	 ebp, esp
  00003	6a ff		 push	 -1
  00005	68 00 00 00 00	 push	 __ehhandler$?OnLButtonDown@CGfxOutBarCtrl@@IAEXIVCPoint@@@Z
  0000a	64 a1 00 00 00
	00		 mov	 eax, DWORD PTR fs:0
  00010	50		 push	 eax
  00011	81 ec ac 00 00
	00		 sub	 esp, 172		; 000000acH
  00017	a1 00 00 00 00	 mov	 eax, DWORD PTR ___security_cookie
  0001c	33 c5		 xor	 eax, ebp
  0001e	89 45 f0	 mov	 DWORD PTR __$ArrayPad$[ebp], eax
  00021	56		 push	 esi
  00022	57		 push	 edi
  00023	50		 push	 eax
  00024	8d 45 f4	 lea	 eax, DWORD PTR __$EHRec$[ebp]
  00027	64 a3 00 00 00
	00		 mov	 DWORD PTR fs:0, eax
  0002d	8b f1		 mov	 esi, ecx
; File C:\Program Files (x86)\Microsoft Visual Studio\2019\Community\VC\Tools\MSVC\14.29.30133\atlmfc\include\afxwin2.inl

; 165  : 	{ return CWnd::FromHandle(::GetFocus()); }

  0002f	ff 15 00 00 00
	00		 call	 DWORD PTR __imp__GetFocus@0
  00035	50		 push	 eax
  00036	e8 00 00 00 00	 call	 ?FromHandle@CWnd@@SGPAV1@PAUHWND__@@@Z ; CWnd::FromHandle
; File D:\git\src\IBK\IBK_DRFN\ProjSrc\SrcDrfn\Chart\MULTICHART\control\GfxOutBarCtrl.cpp

; 959  : 	if (GetFocus() != this) SetFocus();

  0003b	3b c6		 cmp	 eax, esi
  0003d	74 07		 je	 SHORT $LN22@OnLButtonD
  0003f	8b ce		 mov	 ecx, esi
  00041	e8 00 00 00 00	 call	 ?SetFocus@CWnd@@QAEPAV1@XZ ; CWnd::SetFocus
$LN22@OnLButtonD:

; 960  : 
; 961  : 	int index, ht = HitTestEx(point, index);

  00046	8d 45 98	 lea	 eax, DWORD PTR _index$[ebp]
  00049	8b ce		 mov	 ecx, esi
  0004b	50		 push	 eax
  0004c	8d 45 0c	 lea	 eax, DWORD PTR _point$[ebp]
  0004f	50		 push	 eax
  00050	e8 00 00 00 00	 call	 ?HitTestEx@CGfxOutBarCtrl@@QAEHABVCPoint@@AAH@Z ; CGfxOutBarCtrl::HitTestEx
  00055	8b f8		 mov	 edi, eax

; 962  : 	iLastDragItemDrawType = -1;

  00057	c7 86 30 01 00
	00 ff ff ff ff	 mov	 DWORD PTR [esi+304], -1

; 965  : 	GetInsideRect(inRc);

  00061	8d 45 a0	 lea	 eax, DWORD PTR _inRc$[ebp]
  00064	0f 57 c0	 xorps	 xmm0, xmm0
  00067	50		 push	 eax
  00068	8b ce		 mov	 ecx, esi
; File C:\Program Files (x86)\Microsoft Visual Studio\2019\Community\VC\Tools\MSVC\14.29.30133\atlmfc\include\atltypes.h

; 528  : 	left = 0;

  0006a	0f 11 45 a0	 movups	 XMMWORD PTR _inRc$[ebp], xmm0
; File D:\git\src\IBK\IBK_DRFN\ProjSrc\SrcDrfn\Chart\MULTICHART\control\GfxOutBarCtrl.cpp

; 965  : 	GetInsideRect(inRc);

  0006e	e8 00 00 00 00	 call	 ?GetInsideRect@CGfxOutBarCtrl@@QBEXAAVCRect@@@Z ; CGfxOutBarCtrl::GetInsideRect

; 966  : 
; 967  : 	if (ht == htFolder)

  00073	85 ff		 test	 edi, edi
  00075	0f 85 2d 01 00
	00		 jne	 $LN23@OnLButtonD

; 971  : 		GetFolderRect(index, rc);

  0007b	8d 45 d0	 lea	 eax, DWORD PTR _rc$22[ebp]
  0007e	0f 57 c0	 xorps	 xmm0, xmm0
  00081	50		 push	 eax
  00082	ff 75 98	 push	 DWORD PTR _index$[ebp]
  00085	8b ce		 mov	 ecx, esi
; File C:\Program Files (x86)\Microsoft Visual Studio\2019\Community\VC\Tools\MSVC\14.29.30133\atlmfc\include\atltypes.h

; 528  : 	left = 0;

  00087	0f 11 45 d0	 movups	 XMMWORD PTR _rc$22[ebp], xmm0
; File D:\git\src\IBK\IBK_DRFN\ProjSrc\SrcDrfn\Chart\MULTICHART\control\GfxOutBarCtrl.cpp

; 971  : 		GetFolderRect(index, rc);

  0008b	e8 00 00 00 00	 call	 ?GetFolderRect@CGfxOutBarCtrl@@QBE_NHAAVCRect@@@Z ; CGfxOutBarCtrl::GetFolderRect

; 972  : 
; 973  : 		if (::GetCapture() == NULL)

  00090	8b 3d 00 00 00
	00		 mov	 edi, DWORD PTR __imp__GetCapture@0
  00096	ff d7		 call	 edi
  00098	85 c0		 test	 eax, eax
  0009a	0f 85 b2 00 00
	00		 jne	 $LN366@OnLButtonD
; File C:\Program Files (x86)\Microsoft Visual Studio\2019\Community\VC\Tools\MSVC\14.29.30133\atlmfc\include\afxwin2.inl

; 163  : 	{ ASSERT(::IsWindow(m_hWnd)); return CWnd::FromHandle(::SetCapture(m_hWnd)); }

  000a0	ff 76 20	 push	 DWORD PTR [esi+32]
  000a3	ff 15 00 00 00
	00		 call	 DWORD PTR __imp__SetCapture@4
  000a9	50		 push	 eax
  000aa	e8 00 00 00 00	 call	 ?FromHandle@CWnd@@SGPAV1@PAUHWND__@@@Z ; CWnd::FromHandle
; File D:\git\src\IBK\IBK_DRFN\ProjSrc\SrcDrfn\Chart\MULTICHART\control\GfxOutBarCtrl.cpp

; 977  : 			CClientDC dc(this);

  000af	56		 push	 esi
  000b0	8d 8d 48 ff ff
	ff		 lea	 ecx, DWORD PTR _dc$4[ebp]
  000b6	e8 00 00 00 00	 call	 ??0CClientDC@@QAE@PAVCWnd@@@Z ; CClientDC::CClientDC
  000bb	c7 45 fc 00 00
	00 00		 mov	 DWORD PTR __$EHRec$[ebp+8], 0

; 978  : 			//DrawFolder(&dc, index, rc, true);
; 979  : 			AfxLockTempMaps();

  000c2	e8 00 00 00 00	 call	 ?AfxLockTempMaps@@YGXXZ	; AfxLockTempMaps

; 980  : 			for (;;)
; 981  : 			{
; 982  : 				MSG msg;
; 983  : 				VERIFY(::GetMessage(&msg, NULL, 0, 0));

  000c7	6a 00		 push	 0
  000c9	6a 00		 push	 0
  000cb	6a 00		 push	 0
  000cd	8d 85 78 ff ff
	ff		 lea	 eax, DWORD PTR _msg$9[ebp]
  000d3	50		 push	 eax
  000d4	ff 15 00 00 00
	00		 call	 DWORD PTR __imp__GetMessageA@16
; File C:\Program Files (x86)\Microsoft Visual Studio\2019\Community\VC\Tools\MSVC\14.29.30133\atlmfc\include\afxwin2.inl

; 161  : 	{ return CWnd::FromHandle(::GetCapture()); }

  000da	ff d7		 call	 edi
  000dc	50		 push	 eax
  000dd	e8 00 00 00 00	 call	 ?FromHandle@CWnd@@SGPAV1@PAUHWND__@@@Z ; CWnd::FromHandle
; File D:\git\src\IBK\IBK_DRFN\ProjSrc\SrcDrfn\Chart\MULTICHART\control\GfxOutBarCtrl.cpp

; 985  : 				if (CWnd::GetCapture() != this) break;

  000e2	3b c6		 cmp	 eax, esi
  000e4	75 4d		 jne	 SHORT $ExitLoop2$382
  000e6	66 66 0f 1f 84
	00 00 00 00 00	 npad	 10
$LL2@OnLButtonD:

; 986  : 
; 987  : 				switch (msg.message)

  000f0	8b 85 7c ff ff
	ff		 mov	 eax, DWORD PTR _msg$9[ebp+4]
  000f6	3d 00 01 00 00	 cmp	 eax, 256		; 00000100H
  000fb	74 73		 je	 SHORT $LN30@OnLButtonD
  000fd	3d 02 02 00 00	 cmp	 eax, 514		; 00000202H
  00102	75 72		 jne	 SHORT $LN31@OnLButtonD
; File C:\Program Files (x86)\Microsoft Visual Studio\2019\Community\VC\Tools\MSVC\14.29.30133\atlmfc\include\atltypes.h

; 424  : 	x = (short)LOWORD(dwPoint);

  00104	8b 4d 84	 mov	 ecx, DWORD PTR _msg$9[ebp+12]
  00107	0f bf c1	 movsx	 eax, cx
  0010a	89 45 c8	 mov	 DWORD PTR _pt$18[ebp], eax

; 425  : 	y = (short)HIWORD(dwPoint);

  0010d	c1 e9 10	 shr	 ecx, 16			; 00000010H
  00110	0f bf c1	 movsx	 eax, cx
; File D:\git\src\IBK\IBK_DRFN\ProjSrc\SrcDrfn\Chart\MULTICHART\control\GfxOutBarCtrl.cpp

; 1020 : 						int idx, ht1 = HitTestEx(pt, idx);

  00113	8b ce		 mov	 ecx, esi
; File C:\Program Files (x86)\Microsoft Visual Studio\2019\Community\VC\Tools\MSVC\14.29.30133\atlmfc\include\atltypes.h

; 425  : 	y = (short)HIWORD(dwPoint);

  00115	89 45 cc	 mov	 DWORD PTR _pt$18[ebp+4], eax
; File D:\git\src\IBK\IBK_DRFN\ProjSrc\SrcDrfn\Chart\MULTICHART\control\GfxOutBarCtrl.cpp

; 1020 : 						int idx, ht1 = HitTestEx(pt, idx);

  00118	8d 45 98	 lea	 eax, DWORD PTR _idx$12[ebp]
  0011b	50		 push	 eax
  0011c	8d 45 c8	 lea	 eax, DWORD PTR _pt$18[ebp]
  0011f	50		 push	 eax
  00120	e8 00 00 00 00	 call	 ?HitTestEx@CGfxOutBarCtrl@@QAEHABVCPoint@@AAH@Z ; CGfxOutBarCtrl::HitTestEx

; 1021 : 						if (ht1 == htFolder)// && idx != iSelFolder)

  00125	85 c0		 test	 eax, eax
  00127	75 0a		 jne	 SHORT $ExitLoop2$382

; 1022 : 							SetSelFolder(idx);

  00129	ff 75 98	 push	 DWORD PTR _idx$12[ebp]
  0012c	8b ce		 mov	 ecx, esi
  0012e	e8 00 00 00 00	 call	 ?SetSelFolder@CGfxOutBarCtrl@@QAEXH@Z ; CGfxOutBarCtrl::SetSelFolder
$ExitLoop2$382:

; 1033 : 					break;
; 1034 : 				}
; 1035 : 			}
; 1036 : 
; 1037 : 		ExitLoop2:
; 1038 : 			ReleaseCapture();

  00133	ff 15 00 00 00
	00		 call	 DWORD PTR __imp__ReleaseCapture@0

; 1039 : 			AfxUnlockTempMaps(FALSE);

  00139	6a 00		 push	 0
  0013b	e8 00 00 00 00	 call	 ?AfxUnlockTempMaps@@YGHH@Z ; AfxUnlockTempMaps

; 1040 : 		}

  00140	8d 8d 48 ff ff
	ff		 lea	 ecx, DWORD PTR _dc$4[ebp]
  00146	c7 45 fc ff ff
	ff ff		 mov	 DWORD PTR __$EHRec$[ebp+8], -1
  0014d	e8 00 00 00 00	 call	 ??1CClientDC@@UAE@XZ	; CClientDC::~CClientDC
$LN366@OnLButtonD:
; File C:\Program Files (x86)\Microsoft Visual Studio\2019\Community\VC\Tools\MSVC\14.29.30133\atlmfc\include\afxwin2.inl

; 116  : 	{ ASSERT(::IsWindow(m_hWnd)); ::InvalidateRect(m_hWnd, lpRect, bErase); }

  00152	6a 00		 push	 0
  00154	8d 45 d0	 lea	 eax, DWORD PTR _rc$22[ebp]
  00157	50		 push	 eax
  00158	ff 76 20	 push	 DWORD PTR [esi+32]
  0015b	ff 15 00 00 00
	00		 call	 DWORD PTR __imp__InvalidateRect@12
  00161	c7 86 24 01 00
	00 ff ff ff ff	 mov	 DWORD PTR [esi+292], -1
; File D:\git\src\IBK\IBK_DRFN\ProjSrc\SrcDrfn\Chart\MULTICHART\control\GfxOutBarCtrl.cpp

; 1042 : 	}

  0016b	e9 76 08 00 00	 jmp	 $LN78@OnLButtonD
$LN30@OnLButtonD:

; 1023 : 					}
; 1024 : 
; 1025 : 					goto ExitLoop2;
; 1026 : 
; 1027 : 				case WM_KEYDOWN:	
; 1028 : 					if (msg.wParam != VK_ESCAPE) 

  00170	83 7d 80 1b	 cmp	 DWORD PTR _msg$9[ebp+8], 27 ; 0000001bH
  00174	75 0d		 jne	 SHORT $LN5@OnLButtonD
$LN31@OnLButtonD:

; 1029 : 						break;
; 1030 : 
; 1031 : 				default:
; 1032 : 					DispatchMessage(&msg);

  00176	8d 85 78 ff ff
	ff		 lea	 eax, DWORD PTR _msg$9[ebp]
  0017c	50		 push	 eax
  0017d	ff 15 00 00 00
	00		 call	 DWORD PTR __imp__DispatchMessageA@4
$LN5@OnLButtonD:

; 980  : 			for (;;)
; 981  : 			{
; 982  : 				MSG msg;
; 983  : 				VERIFY(::GetMessage(&msg, NULL, 0, 0));

  00183	6a 00		 push	 0
  00185	6a 00		 push	 0
  00187	6a 00		 push	 0
  00189	8d 85 78 ff ff
	ff		 lea	 eax, DWORD PTR _msg$9[ebp]
  0018f	50		 push	 eax
  00190	ff 15 00 00 00
	00		 call	 DWORD PTR __imp__GetMessageA@16
; File C:\Program Files (x86)\Microsoft Visual Studio\2019\Community\VC\Tools\MSVC\14.29.30133\atlmfc\include\afxwin2.inl

; 161  : 	{ return CWnd::FromHandle(::GetCapture()); }

  00196	ff d7		 call	 edi
  00198	50		 push	 eax
  00199	e8 00 00 00 00	 call	 ?FromHandle@CWnd@@SGPAV1@PAUHWND__@@@Z ; CWnd::FromHandle
; File D:\git\src\IBK\IBK_DRFN\ProjSrc\SrcDrfn\Chart\MULTICHART\control\GfxOutBarCtrl.cpp

; 985  : 				if (CWnd::GetCapture() != this) break;

  0019e	3b c6		 cmp	 eax, esi
  001a0	0f 84 4a ff ff
	ff		 je	 $LL2@OnLButtonD
  001a6	eb 8b		 jmp	 SHORT $ExitLoop2$382
$LN23@OnLButtonD:

; 1043 : 	else iLastSelectedFolder = -1;

  001a8	c7 86 1c 01 00
	00 ff ff ff ff	 mov	 DWORD PTR [esi+284], -1

; 1044 : 
; 1045 : 	if (ht == htItem)

  001b2	83 ff 01	 cmp	 edi, 1
  001b5	0f 85 6a 02 00
	00		 jne	 $LN34@OnLButtonD

; 1050 : 		GetItemRect(iSelFolder, index, rc);

  001bb	8b 7d 98	 mov	 edi, DWORD PTR _index$[ebp]
  001be	8d 45 d0	 lea	 eax, DWORD PTR _rc$21[ebp]
  001c1	50		 push	 eax
  001c2	57		 push	 edi
  001c3	ff b6 34 01 00
	00		 push	 DWORD PTR [esi+308]
  001c9	0f 57 c0	 xorps	 xmm0, xmm0
  001cc	c7 86 2c 01 00
	00 ff ff ff ff	 mov	 DWORD PTR [esi+300], -1
  001d6	8b ce		 mov	 ecx, esi
  001d8	c6 45 9f 01	 mov	 BYTE PTR _bHigh$1$[ebp], 1
; File C:\Program Files (x86)\Microsoft Visual Studio\2019\Community\VC\Tools\MSVC\14.29.30133\atlmfc\include\atltypes.h

; 528  : 	left = 0;

  001dc	0f 11 45 d0	 movups	 XMMWORD PTR _rc$21[ebp], xmm0
; File D:\git\src\IBK\IBK_DRFN\ProjSrc\SrcDrfn\Chart\MULTICHART\control\GfxOutBarCtrl.cpp

; 1050 : 		GetItemRect(iSelFolder, index, rc);

  001e0	e8 00 00 00 00	 call	 ?GetItemRect@CGfxOutBarCtrl@@QAEXHHAAVCRect@@@Z ; CGfxOutBarCtrl::GetItemRect

; 1051 : 
; 1052 : 		HCURSOR hCur = GetCursor();

  001e5	ff 15 00 00 00
	00		 call	 DWORD PTR __imp__GetCursor@0
  001eb	89 45 98	 mov	 DWORD PTR _hCur$1$[ebp], eax

; 1053 : 
; 1054 : 		if (::GetCapture() == NULL)

  001ee	ff 15 00 00 00
	00		 call	 DWORD PTR __imp__GetCapture@0
  001f4	85 c0		 test	 eax, eax
  001f6	0f 85 04 02 00
	00		 jne	 $LN36@OnLButtonD
; File C:\Program Files (x86)\Microsoft Visual Studio\2019\Community\VC\Tools\MSVC\14.29.30133\atlmfc\include\afxwin2.inl

; 163  : 	{ ASSERT(::IsWindow(m_hWnd)); return CWnd::FromHandle(::SetCapture(m_hWnd)); }

  001fc	ff 76 20	 push	 DWORD PTR [esi+32]
  001ff	ff 15 00 00 00
	00		 call	 DWORD PTR __imp__SetCapture@4
  00205	50		 push	 eax
  00206	e8 00 00 00 00	 call	 ?FromHandle@CWnd@@SGPAV1@PAUHWND__@@@Z ; CWnd::FromHandle
; File D:\git\src\IBK\IBK_DRFN\ProjSrc\SrcDrfn\Chart\MULTICHART\control\GfxOutBarCtrl.cpp

; 1058 : 			CClientDC dc(this);

  0020b	56		 push	 esi
  0020c	8d 8d 48 ff ff
	ff		 lea	 ecx, DWORD PTR _dc$3[ebp]
  00212	e8 00 00 00 00	 call	 ??0CClientDC@@QAE@PAVCWnd@@@Z ; CClientDC::CClientDC

; 1059 : 			HighlightItem(index, true);

  00217	6a 01		 push	 1
  00219	57		 push	 edi
  0021a	8b ce		 mov	 ecx, esi
  0021c	c7 45 fc 01 00
	00 00		 mov	 DWORD PTR __$EHRec$[ebp+8], 1
  00223	e8 00 00 00 00	 call	 ?HighlightItem@CGfxOutBarCtrl@@QAEXH_N@Z ; CGfxOutBarCtrl::HighlightItem

; 1060 : 			AfxLockTempMaps();

  00228	e8 00 00 00 00	 call	 ?AfxLockTempMaps@@YGXXZ	; AfxLockTempMaps

; 1061 : 			for (;;)
; 1062 : 			{
; 1063 : 				MSG msg;
; 1064 : 				VERIFY(::GetMessage(&msg, NULL, 0, 0));

  0022d	6a 00		 push	 0
  0022f	6a 00		 push	 0
  00231	6a 00		 push	 0
  00233	8d 85 78 ff ff
	ff		 lea	 eax, DWORD PTR _msg$8[ebp]
  00239	50		 push	 eax
  0023a	ff 15 00 00 00
	00		 call	 DWORD PTR __imp__GetMessageA@16
; File C:\Program Files (x86)\Microsoft Visual Studio\2019\Community\VC\Tools\MSVC\14.29.30133\atlmfc\include\afxwin2.inl

; 161  : 	{ return CWnd::FromHandle(::GetCapture()); }

  00240	ff 15 00 00 00
	00		 call	 DWORD PTR __imp__GetCapture@0
  00246	50		 push	 eax
  00247	e8 00 00 00 00	 call	 ?FromHandle@CWnd@@SGPAV1@PAUHWND__@@@Z ; CWnd::FromHandle
; File D:\git\src\IBK\IBK_DRFN\ProjSrc\SrcDrfn\Chart\MULTICHART\control\GfxOutBarCtrl.cpp

; 1066 : 				if (CWnd::GetCapture() != this) break;

  0024c	3b c6		 cmp	 eax, esi
  0024e	0f 85 8d 01 00
	00		 jne	 $ExitLoop4$383
$LL7@OnLButtonD:

; 1067 : 
; 1068 : 				switch (msg.message)

  00254	8b 85 7c ff ff
	ff		 mov	 eax, DWORD PTR _msg$8[ebp+4]
  0025a	83 f8 20	 cmp	 eax, 32			; 00000020H
  0025d	74 16		 je	 SHORT $LN38@OnLButtonD
  0025f	3d 02 02 00 00	 cmp	 eax, 514		; 00000202H
  00264	74 40		 je	 SHORT $LN367@OnLButtonD

; 1177 : 									rc.InflateRect(1,1);
; 1178 : 									InvalidateRect(rc);
; 1179 : 								}
; 1180 : 
; 1181 : 								GetOwner()->SendMessage(WMU_OUTBAR_NOTIFY, NM_OB_ITEMCLICK, idx);
; 1182 : 								Invalidate();
; 1183 : 							}
; 1184 : 						}
; 1185 : 						else
; 1186 : 						{
; 1187 : 							if (ht1 == htItem)
; 1188 : 							{
; 1189 : 								if (idx != index)
; 1190 : 								{
; 1191 : 									OUTBAR_INFO ob;
; 1192 : 									ob.iDragFrom = iSelFolder;
; 1193 : 									ob.iDragTo = index;
; 1194 : 									if (GetOwner()->SendMessage(WMU_OUTBAR_NOTIFY, NM_OB_DRAGITEM, (LPARAM) &ob))
; 1195 : 									{
; 1196 : 										CBarFolder * pbf = (CBarFolder *) arFolder.GetAt(iSelFolder);
; 1197 : 										CBarItem * piFrom = (CBarItem *) pbf->arItems.GetAt(index);
; 1198 : 										pbf->arItems.RemoveAt(index);
; 1199 : 										if (idx > index) idx --;
; 1200 : 										pbf->arItems.InsertAt(idx, piFrom);
; 1201 : 									}
; 1202 : 								}
; 1203 : 							}
; 1204 : 							else
; 1205 : 							{
; 1206 : 								CRect rcItem;
; 1207 : 								GetItemRect(iSelFolder, GetItemCount() - 1, rcItem);
; 1208 : 								if (pt.y > rcItem.bottom && pt.y < inRc.bottom)
; 1209 : 								{
; 1210 : 									OUTBAR_INFO ob;
; 1211 : 									ob.iDragFrom = iSelFolder;
; 1212 : 									ob.iDragTo = index;
; 1213 : 									if (GetOwner()->SendMessage(WMU_OUTBAR_NOTIFY, NM_OB_DRAGITEM, (LPARAM) &ob))
; 1214 : 									{
; 1215 : 										CBarFolder * pbf = (CBarFolder *) arFolder.GetAt(iSelFolder);
; 1216 : 										CBarItem * piFrom = (CBarItem *) pbf->arItems.GetAt(index);
; 1217 : 										pbf->arItems.RemoveAt(index);
; 1218 : 										pbf->arItems.Add((void *) piFrom);
; 1219 : 									}
; 1220 : 								}
; 1221 : 							}
; 1222 : 						}
; 1223 : 					}
; 1224 : 
; 1225 : 					goto ExitLoop4;
; 1226 : 
; 1227 : 				default:
; 1228 : 					DispatchMessage(&msg);

  00266	8d 85 78 ff ff
	ff		 lea	 eax, DWORD PTR _msg$8[ebp]
  0026c	50		 push	 eax
  0026d	ff 15 00 00 00
	00		 call	 DWORD PTR __imp__DispatchMessageA@4
  00273	eb 09		 jmp	 SHORT $LN10@OnLButtonD
$LN38@OnLButtonD:

; 1069 : 				{
; 1070 : 				//case WM_MOUSEMOVE:
; 1071 : 				//	{
; 1072 : 				//		CPoint pt(msg.lParam);
; 1073 : 				//		int idx, ht1 = HitTestEx(pt, idx);
; 1074 : 				//		if (bDragging)
; 1075 : 				//		{
; 1076 : 				//			if (ht1 == htItem) 
; 1077 : 				//			{
; 1078 : 				//				DrawDragArrow(&dc, index, idx);
; 1079 : 				//				SetCursor(hDragCursor);
; 1080 : 				//				hCur = hDragCursor;
; 1081 : 				//			}
; 1082 : 				//			else 
; 1083 : 				//			{
; 1084 : 				//				CRect rcItem;
; 1085 : 				//				GetItemRect(iSelFolder, GetItemCount() - 1, rcItem);
; 1086 : 				//				if (pt.y > rcItem.bottom && pt.y < inRc.bottom)
; 1087 : 				//				{
; 1088 : 				//					DrawDragArrow(&dc, index, GetItemCount());
; 1089 : 				//					SetCursor(hDragCursor);
; 1090 : 				//					hCur = hDragCursor;
; 1091 : 				//				}
; 1092 : 				//				else
; 1093 : 				//				{
; 1094 : 				//					DrawDragArrow(&dc, index, -1);
; 1095 : 				//					SetCursor(hNoDragCursor);
; 1096 : 				//					hCur = hNoDragCursor;
; 1097 : 				//				}
; 1098 : 				//			}
; 1099 : 				//		}
; 1100 : 				//		else
; 1101 : 				//		{
; 1102 : 				//			if (ht1 == htItem && idx == index)
; 1103 : 				//			{
; 1104 : 				//				if (!bHigh)
; 1105 : 				//				{
; 1106 : 				//					HighlightItem(index, true);
; 1107 : 				//					bHigh = true;
; 1108 : 				//					bPressedHighlight = true;
; 1109 : 				//				}
; 1110 : 				//			}
; 1111 : 				//			else 
; 1112 : 				//			{
; 1113 : 				//				if (ht1 == htItem)
; 1114 : 				//				{
; 1115 : 				//					if (bHigh)
; 1116 : 				//					{
; 1117 : 				//						HighlightItem(index, false);
; 1118 : 				//						bHigh = false;
; 1119 : 				//						bPressedHighlight = false;
; 1120 : 				//					}
; 1121 : 				//				}
; 1122 : 				//				else
; 1123 : 				//				{
; 1124 : 				//					if (dwFlags&fDragItems)
; 1125 : 				//					{
; 1126 : 				//						HighlightItem(index, true);
; 1127 : 				//						bHigh = true;
; 1128 : 				//						bDragging = true;
; 1129 : 
; 1130 : 				//						SetCursor(hDragCursor);
; 1131 : 				//						hCur = hDragCursor;
; 1132 : 
; 1133 : 				//						bPressedHighlight = true;
; 1134 : 				//					}
; 1135 : 				//				}
; 1136 : 				//			}
; 1137 : 				//		}
; 1138 : 				//	}
; 1139 : 				//	break;
; 1140 : 
; 1141 : 				case WM_SETCURSOR:
; 1142 : 					SetCursor(hCur);

  00275	ff 75 98	 push	 DWORD PTR _hCur$1$[ebp]
  00278	ff 15 00 00 00
	00		 call	 DWORD PTR __imp__SetCursor@4
$LN10@OnLButtonD:

; 1061 : 			for (;;)
; 1062 : 			{
; 1063 : 				MSG msg;
; 1064 : 				VERIFY(::GetMessage(&msg, NULL, 0, 0));

  0027e	6a 00		 push	 0
  00280	6a 00		 push	 0
  00282	6a 00		 push	 0
  00284	8d 85 78 ff ff
	ff		 lea	 eax, DWORD PTR _msg$8[ebp]
  0028a	50		 push	 eax
  0028b	ff 15 00 00 00
	00		 call	 DWORD PTR __imp__GetMessageA@16
; File C:\Program Files (x86)\Microsoft Visual Studio\2019\Community\VC\Tools\MSVC\14.29.30133\atlmfc\include\afxwin2.inl

; 161  : 	{ return CWnd::FromHandle(::GetCapture()); }

  00291	ff 15 00 00 00
	00		 call	 DWORD PTR __imp__GetCapture@0
  00297	50		 push	 eax
  00298	e8 00 00 00 00	 call	 ?FromHandle@CWnd@@SGPAV1@PAUHWND__@@@Z ; CWnd::FromHandle
; File D:\git\src\IBK\IBK_DRFN\ProjSrc\SrcDrfn\Chart\MULTICHART\control\GfxOutBarCtrl.cpp

; 1066 : 				if (CWnd::GetCapture() != this) break;

  0029d	3b c6		 cmp	 eax, esi
  0029f	74 b3		 je	 SHORT $LL7@OnLButtonD
  002a1	e9 3b 01 00 00	 jmp	 $ExitLoop4$383
$LN367@OnLButtonD:

; 1143 : 					break;
; 1144 : 
; 1145 : 				case WM_LBUTTONUP:
; 1146 : 					{
; 1147 : 						if (bHigh)
; 1148 : 						{
; 1149 : 							HighlightItem(-1);

  002a6	6a 00		 push	 0
  002a8	6a ff		 push	 -1
  002aa	8b ce		 mov	 ecx, esi
  002ac	e8 00 00 00 00	 call	 ?HighlightItem@CGfxOutBarCtrl@@QAEXH_N@Z ; CGfxOutBarCtrl::HighlightItem
; File C:\Program Files (x86)\Microsoft Visual Studio\2019\Community\VC\Tools\MSVC\14.29.30133\atlmfc\include\atltypes.h

; 424  : 	x = (short)LOWORD(dwPoint);

  002b1	8b 4d 84	 mov	 ecx, DWORD PTR _msg$8[ebp+12]
  002b4	0f bf c1	 movsx	 eax, cx
  002b7	89 45 c8	 mov	 DWORD PTR _pt$17[ebp], eax

; 425  : 	y = (short)HIWORD(dwPoint);

  002ba	c1 e9 10	 shr	 ecx, 16			; 00000010H
  002bd	0f bf c1	 movsx	 eax, cx
; File D:\git\src\IBK\IBK_DRFN\ProjSrc\SrcDrfn\Chart\MULTICHART\control\GfxOutBarCtrl.cpp

; 1153 : 						int idx, ht1 = HitTestEx(pt, idx);

  002c0	8b ce		 mov	 ecx, esi
; File C:\Program Files (x86)\Microsoft Visual Studio\2019\Community\VC\Tools\MSVC\14.29.30133\atlmfc\include\atltypes.h

; 425  : 	y = (short)HIWORD(dwPoint);

  002c2	89 45 cc	 mov	 DWORD PTR _pt$17[ebp+4], eax
; File D:\git\src\IBK\IBK_DRFN\ProjSrc\SrcDrfn\Chart\MULTICHART\control\GfxOutBarCtrl.cpp

; 1153 : 						int idx, ht1 = HitTestEx(pt, idx);

  002c5	8d 45 98	 lea	 eax, DWORD PTR _idx$11[ebp]
  002c8	50		 push	 eax
  002c9	8d 45 c8	 lea	 eax, DWORD PTR _pt$17[ebp]
  002cc	c6 45 9f 00	 mov	 BYTE PTR _bHigh$1$[ebp], 0
  002d0	50		 push	 eax
  002d1	e8 00 00 00 00	 call	 ?HitTestEx@CGfxOutBarCtrl@@QAEHABVCPoint@@AAH@Z ; CGfxOutBarCtrl::HitTestEx

; 1154 : 						if (!bDragging)
; 1155 : 						{
; 1156 : 							if (ht1 == htItem && idx == index) 

  002d6	83 f8 01	 cmp	 eax, 1
  002d9	0f 85 02 01 00
	00		 jne	 $ExitLoop4$383
  002df	39 7d 98	 cmp	 DWORD PTR _idx$11[ebp], edi
  002e2	0f 85 f9 00 00
	00		 jne	 $ExitLoop4$383

; 1157 : 							{
; 1158 : 								if (iSelAnimTiming > 0 && index != iLastSel && iLastSel >= 0)

  002e8	83 be f8 00 00
	00 00		 cmp	 DWORD PTR [esi+248], 0
  002ef	7e 1a		 jle	 SHORT $LN44@OnLButtonD
  002f1	8b 86 f4 00 00
	00		 mov	 eax, DWORD PTR [esi+244]
  002f7	3b f8		 cmp	 edi, eax
  002f9	74 10		 je	 SHORT $LN44@OnLButtonD
  002fb	85 c0		 test	 eax, eax
  002fd	78 0c		 js	 SHORT $LN44@OnLButtonD

; 1159 : 								{
; 1160 : 									DrawAnimItem(0, 0, iLastSel);

  002ff	50		 push	 eax
  00300	6a 00		 push	 0
  00302	6a 00		 push	 0
  00304	8b ce		 mov	 ecx, esi
  00306	e8 00 00 00 00	 call	 ?DrawAnimItem@CGfxOutBarCtrl@@QAEXHHH@Z ; CGfxOutBarCtrl::DrawAnimItem
$LN44@OnLButtonD:

; 1161 : 								}
; 1162 : 
; 1163 : 								if (dwFlags&fSelHighlight && iLastSel >= 0)

  0030b	8b 86 00 01 00
	00		 mov	 eax, DWORD PTR [esi+256]
  00311	a9 00 02 00 00	 test	 eax, 512		; 00000200H
  00316	74 46		 je	 SHORT $LN45@OnLButtonD
  00318	8b 8e f4 00 00
	00		 mov	 ecx, DWORD PTR [esi+244]
  0031e	85 c9		 test	 ecx, ecx
  00320	78 3c		 js	 SHORT $LN45@OnLButtonD

; 1166 : 									GetIconRect(iSelFolder, iLastSel, rc);

  00322	8d 45 e0	 lea	 eax, DWORD PTR _rc$27[ebp]
  00325	0f 57 c0	 xorps	 xmm0, xmm0
  00328	50		 push	 eax
  00329	51		 push	 ecx
  0032a	ff b6 34 01 00
	00		 push	 DWORD PTR [esi+308]
  00330	8b ce		 mov	 ecx, esi
; File C:\Program Files (x86)\Microsoft Visual Studio\2019\Community\VC\Tools\MSVC\14.29.30133\atlmfc\include\atltypes.h

; 528  : 	left = 0;

  00332	0f 11 45 e0	 movups	 XMMWORD PTR _rc$27[ebp], xmm0
; File D:\git\src\IBK\IBK_DRFN\ProjSrc\SrcDrfn\Chart\MULTICHART\control\GfxOutBarCtrl.cpp

; 1166 : 									GetIconRect(iSelFolder, iLastSel, rc);

  00336	e8 00 00 00 00	 call	 ?GetIconRect@CGfxOutBarCtrl@@QAEXHHAAVCRect@@@Z ; CGfxOutBarCtrl::GetIconRect
; File C:\Program Files (x86)\Microsoft Visual Studio\2019\Community\VC\Tools\MSVC\14.29.30133\atlmfc\include\atltypes.h

; 686  : 	::InflateRect(this, x, y);

  0033b	6a 01		 push	 1
  0033d	6a 01		 push	 1
  0033f	8d 45 e0	 lea	 eax, DWORD PTR _rc$27[ebp]
  00342	50		 push	 eax
  00343	ff 15 00 00 00
	00		 call	 DWORD PTR __imp__InflateRect@12
; File C:\Program Files (x86)\Microsoft Visual Studio\2019\Community\VC\Tools\MSVC\14.29.30133\atlmfc\include\afxwin2.inl

; 116  : 	{ ASSERT(::IsWindow(m_hWnd)); ::InvalidateRect(m_hWnd, lpRect, bErase); }

  00349	6a 01		 push	 1
  0034b	8d 45 e0	 lea	 eax, DWORD PTR _rc$27[ebp]
  0034e	50		 push	 eax
  0034f	ff 76 20	 push	 DWORD PTR [esi+32]
  00352	ff 15 00 00 00
	00		 call	 DWORD PTR __imp__InvalidateRect@12
  00358	8b 86 00 01 00
	00		 mov	 eax, DWORD PTR [esi+256]
$LN45@OnLButtonD:
; File D:\git\src\IBK\IBK_DRFN\ProjSrc\SrcDrfn\Chart\MULTICHART\control\GfxOutBarCtrl.cpp

; 1171 : 								iLastSel = index;

  0035e	89 be f4 00 00
	00		 mov	 DWORD PTR [esi+244], edi

; 1173 : 								if (dwFlags&fSelHighlight && iLastSel >= 0)

  00364	a9 00 02 00 00	 test	 eax, 512		; 00000200H
  00369	74 3e		 je	 SHORT $LN377@OnLButtonD
  0036b	85 ff		 test	 edi, edi
  0036d	78 3a		 js	 SHORT $LN377@OnLButtonD

; 1176 : 									GetIconRect(iSelFolder, iLastSel, rc);

  0036f	8d 45 e0	 lea	 eax, DWORD PTR _rc$26[ebp]
  00372	0f 57 c0	 xorps	 xmm0, xmm0
  00375	50		 push	 eax
  00376	57		 push	 edi
  00377	ff b6 34 01 00
	00		 push	 DWORD PTR [esi+308]
  0037d	8b ce		 mov	 ecx, esi
; File C:\Program Files (x86)\Microsoft Visual Studio\2019\Community\VC\Tools\MSVC\14.29.30133\atlmfc\include\atltypes.h

; 528  : 	left = 0;

  0037f	0f 11 45 e0	 movups	 XMMWORD PTR _rc$26[ebp], xmm0
; File D:\git\src\IBK\IBK_DRFN\ProjSrc\SrcDrfn\Chart\MULTICHART\control\GfxOutBarCtrl.cpp

; 1176 : 									GetIconRect(iSelFolder, iLastSel, rc);

  00383	e8 00 00 00 00	 call	 ?GetIconRect@CGfxOutBarCtrl@@QAEXHHAAVCRect@@@Z ; CGfxOutBarCtrl::GetIconRect
; File C:\Program Files (x86)\Microsoft Visual Studio\2019\Community\VC\Tools\MSVC\14.29.30133\atlmfc\include\atltypes.h

; 686  : 	::InflateRect(this, x, y);

  00388	6a 01		 push	 1
  0038a	6a 01		 push	 1
  0038c	8d 45 e0	 lea	 eax, DWORD PTR _rc$26[ebp]
  0038f	50		 push	 eax
  00390	ff 15 00 00 00
	00		 call	 DWORD PTR __imp__InflateRect@12
; File C:\Program Files (x86)\Microsoft Visual Studio\2019\Community\VC\Tools\MSVC\14.29.30133\atlmfc\include\afxwin2.inl

; 116  : 	{ ASSERT(::IsWindow(m_hWnd)); ::InvalidateRect(m_hWnd, lpRect, bErase); }

  00396	8b 3d 00 00 00
	00		 mov	 edi, DWORD PTR __imp__InvalidateRect@12
  0039c	8d 45 e0	 lea	 eax, DWORD PTR _rc$26[ebp]
  0039f	6a 01		 push	 1
  003a1	50		 push	 eax
  003a2	ff 76 20	 push	 DWORD PTR [esi+32]
  003a5	ff d7		 call	 edi
; File D:\git\src\IBK\IBK_DRFN\ProjSrc\SrcDrfn\Chart\MULTICHART\control\GfxOutBarCtrl.cpp

; 1173 : 								if (dwFlags&fSelHighlight && iLastSel >= 0)

  003a7	eb 06		 jmp	 SHORT $LN46@OnLButtonD
$LN377@OnLButtonD:
; File C:\Program Files (x86)\Microsoft Visual Studio\2019\Community\VC\Tools\MSVC\14.29.30133\atlmfc\include\afxwin2.inl

; 27   : 	{ return m_hWndOwner != NULL ? CWnd::FromHandle(m_hWndOwner) : GetParent(); }

  003a9	8b 3d 00 00 00
	00		 mov	 edi, DWORD PTR __imp__InvalidateRect@12
$LN46@OnLButtonD:
  003af	8b 46 5c	 mov	 eax, DWORD PTR [esi+92]
  003b2	85 c0		 test	 eax, eax
  003b4	75 09		 jne	 SHORT $LN138@OnLButtonD

; 213  : 	{ ASSERT(::IsWindow(m_hWnd)); return CWnd::FromHandle(::GetParent(m_hWnd)); }

  003b6	ff 76 20	 push	 DWORD PTR [esi+32]
  003b9	ff 15 00 00 00
	00		 call	 DWORD PTR __imp__GetParent@4
$LN138@OnLButtonD:

; 32   : 	{ ASSERT(::IsWindow(m_hWnd)); return ::SendMessage(m_hWnd, message, wParam, lParam); }

  003bf	50		 push	 eax
  003c0	e8 00 00 00 00	 call	 ?FromHandle@CWnd@@SGPAV1@PAUHWND__@@@Z ; CWnd::FromHandle
  003c5	ff 75 98	 push	 DWORD PTR _idx$11[ebp]
  003c8	6a 01		 push	 1
  003ca	68 c1 08 00 00	 push	 2241			; 000008c1H
  003cf	ff 70 20	 push	 DWORD PTR [eax+32]
  003d2	ff 15 00 00 00
	00		 call	 DWORD PTR __imp__SendMessageA@16

; 114  : 	{ ASSERT(::IsWindow(m_hWnd)); ::InvalidateRect(m_hWnd, NULL, bErase); }

  003d8	6a 01		 push	 1
  003da	6a 00		 push	 0
  003dc	ff 76 20	 push	 DWORD PTR [esi+32]
  003df	ff d7		 call	 edi
$ExitLoop4$383:
; File D:\git\src\IBK\IBK_DRFN\ProjSrc\SrcDrfn\Chart\MULTICHART\control\GfxOutBarCtrl.cpp

; 1234 : 			ReleaseCapture();

  003e1	ff 15 00 00 00
	00		 call	 DWORD PTR __imp__ReleaseCapture@0

; 1235 : 			AfxUnlockTempMaps(FALSE);

  003e7	6a 00		 push	 0
  003e9	e8 00 00 00 00	 call	 ?AfxUnlockTempMaps@@YGHH@Z ; AfxUnlockTempMaps

; 1236 : 			if (bDragging) 
; 1237 : 			{
; 1238 : 				Invalidate();
; 1239 : 			}
; 1240 : 		}

  003ee	8d 8d 48 ff ff
	ff		 lea	 ecx, DWORD PTR _dc$3[ebp]
  003f4	c7 45 fc ff ff
	ff ff		 mov	 DWORD PTR __$EHRec$[ebp+8], -1
  003fb	e8 00 00 00 00	 call	 ??1CClientDC@@UAE@XZ	; CClientDC::~CClientDC
$LN36@OnLButtonD:

; 1241 : 		bPressedHighlight = false;
; 1242 : 		if (bHigh) InvalidateRect(rc, false);

  00400	80 7d 9f 00	 cmp	 BYTE PTR _bHigh$1$[ebp], 0
  00404	c6 86 28 01 00
	00 00		 mov	 BYTE PTR [esi+296], 0
  0040b	0f 84 d5 05 00
	00		 je	 $LN78@OnLButtonD
; File C:\Program Files (x86)\Microsoft Visual Studio\2019\Community\VC\Tools\MSVC\14.29.30133\atlmfc\include\afxwin2.inl

; 116  : 	{ ASSERT(::IsWindow(m_hWnd)); ::InvalidateRect(m_hWnd, lpRect, bErase); }

  00411	6a 00		 push	 0
  00413	8d 45 d0	 lea	 eax, DWORD PTR _rc$21[ebp]
  00416	50		 push	 eax
  00417	ff 76 20	 push	 DWORD PTR [esi+32]
  0041a	ff 15 00 00 00
	00		 call	 DWORD PTR __imp__InvalidateRect@12
; File D:\git\src\IBK\IBK_DRFN\ProjSrc\SrcDrfn\Chart\MULTICHART\control\GfxOutBarCtrl.cpp

; 1243 : 	}

  00420	e9 c1 05 00 00	 jmp	 $LN78@OnLButtonD
$LN34@OnLButtonD:

; 1244 : 	else iLastItemHighlighted = -1;

  00425	c7 86 24 01 00
	00 ff ff ff ff	 mov	 DWORD PTR [esi+292], -1

; 1245 : 
; 1246 : 	if (ht == htDownScroll)

  0042f	83 ff 03	 cmp	 edi, 3
  00432	0f 85 10 03 00
	00		 jne	 $LN59@OnLButtonD

; 1247 : 	{
; 1248 : 		bLooping = true;
; 1249 : 		bool bHigh = true;
; 1250 : 
; 1251 : 		if (::GetCapture() == NULL)

  00438	8b 3d 00 00 00
	00		 mov	 edi, DWORD PTR __imp__GetCapture@0
  0043e	c6 86 e4 00 00
	00 01		 mov	 BYTE PTR [esi+228], 1
  00445	ff d7		 call	 edi
  00447	85 c0		 test	 eax, eax
  00449	0f 85 97 05 00
	00		 jne	 $LN78@OnLButtonD
; File C:\Program Files (x86)\Microsoft Visual Studio\2019\Community\VC\Tools\MSVC\14.29.30133\atlmfc\include\afxwin2.inl

; 163  : 	{ ASSERT(::IsWindow(m_hWnd)); return CWnd::FromHandle(::SetCapture(m_hWnd)); }

  0044f	ff 76 20	 push	 DWORD PTR [esi+32]
  00452	ff 15 00 00 00
	00		 call	 DWORD PTR __imp__SetCapture@4
  00458	50		 push	 eax
  00459	e8 00 00 00 00	 call	 ?FromHandle@CWnd@@SGPAV1@PAUHWND__@@@Z ; CWnd::FromHandle
; File D:\git\src\IBK\IBK_DRFN\ProjSrc\SrcDrfn\Chart\MULTICHART\control\GfxOutBarCtrl.cpp

; 1255 : 			CClientDC dc(this);

  0045e	56		 push	 esi
  0045f	8d 8d 48 ff ff
	ff		 lea	 ecx, DWORD PTR _dc$2[ebp]
  00465	e8 00 00 00 00	 call	 ??0CClientDC@@QAE@PAVCWnd@@@Z ; CClientDC::CClientDC
; File C:\Program Files (x86)\Microsoft Visual Studio\2019\Community\VC\Tools\MSVC\14.29.30133\atlmfc\include\afxwin1.inl

; 512  : 	{ ASSERT(m_hDC != NULL); return ::DrawFrameControl(m_hDC, lpRect, nType, nState); }

  0046a	68 01 02 00 00	 push	 513			; 00000201H
  0046f	6a 03		 push	 3
; File D:\git\src\IBK\IBK_DRFN\ProjSrc\SrcDrfn\Chart\MULTICHART\control\GfxOutBarCtrl.cpp

; 1256 : 			dc.DrawFrameControl(rcDownArrow, DFC_SCROLL, DFCS_SCROLLDOWN|DFCS_PUSHED);

  00471	8d 86 d4 00 00
	00		 lea	 eax, DWORD PTR [esi+212]
  00477	c7 45 fc 02 00
	00 00		 mov	 DWORD PTR __$EHRec$[ebp+8], 2
; File C:\Program Files (x86)\Microsoft Visual Studio\2019\Community\VC\Tools\MSVC\14.29.30133\atlmfc\include\afxwin1.inl

; 512  : 	{ ASSERT(m_hDC != NULL); return ::DrawFrameControl(m_hDC, lpRect, nType, nState); }

  0047e	50		 push	 eax
  0047f	ff b5 4c ff ff
	ff		 push	 DWORD PTR _dc$2[ebp+4]
  00485	ff 15 00 00 00
	00		 call	 DWORD PTR __imp__DrawFrameControl@16
; File C:\Program Files (x86)\Microsoft Visual Studio\2019\Community\VC\Tools\MSVC\14.29.30133\atlmfc\include\afxwin2.inl

; 152  : 	{ ASSERT(::IsWindow(m_hWnd)); return ::SetTimer(m_hWnd, nIDEvent, nElapse,

  0048b	6a 00		 push	 0
  0048d	68 2c 01 00 00	 push	 300			; 0000012cH
  00492	6a 02		 push	 2
  00494	ff 76 20	 push	 DWORD PTR [esi+32]
  00497	ff 15 00 00 00
	00		 call	 DWORD PTR __imp__SetTimer@16
; File D:\git\src\IBK\IBK_DRFN\ProjSrc\SrcDrfn\Chart\MULTICHART\control\GfxOutBarCtrl.cpp

; 1258 : 			AfxLockTempMaps();

  0049d	e8 00 00 00 00	 call	 ?AfxLockTempMaps@@YGXXZ	; AfxLockTempMaps

; 1259 : 			for (;;)
; 1260 : 			{
; 1261 : 				MSG msg;
; 1262 : 				VERIFY(::GetMessage(&msg, NULL, 0, 0));

  004a2	6a 00		 push	 0
  004a4	6a 00		 push	 0
  004a6	6a 00		 push	 0
  004a8	8d 85 5c ff ff
	ff		 lea	 eax, DWORD PTR _msg$5[ebp]
  004ae	50		 push	 eax
  004af	ff 15 00 00 00
	00		 call	 DWORD PTR __imp__GetMessageA@16
; File C:\Program Files (x86)\Microsoft Visual Studio\2019\Community\VC\Tools\MSVC\14.29.30133\atlmfc\include\afxwin2.inl

; 161  : 	{ return CWnd::FromHandle(::GetCapture()); }

  004b5	ff d7		 call	 edi
  004b7	50		 push	 eax
  004b8	e8 00 00 00 00	 call	 ?FromHandle@CWnd@@SGPAV1@PAUHWND__@@@Z ; CWnd::FromHandle
; File D:\git\src\IBK\IBK_DRFN\ProjSrc\SrcDrfn\Chart\MULTICHART\control\GfxOutBarCtrl.cpp

; 1264 : 				if (CWnd::GetCapture() != this) break;

  004bd	3b c6		 cmp	 eax, esi
  004bf	0f 85 c7 00 00
	00		 jne	 $ExitLoop3$384
$LL12@OnLButtonD:

; 1265 : 
; 1266 : 				switch (msg.message)

  004c5	8b 85 60 ff ff
	ff		 mov	 eax, DWORD PTR _msg$5[ebp+4]
  004cb	2d 00 01 00 00	 sub	 eax, 256		; 00000100H
  004d0	0f 84 11 02 00
	00		 je	 $LN74@OnLButtonD
  004d6	83 e8 13	 sub	 eax, 19			; 00000013H
  004d9	0f 84 41 01 00
	00		 je	 $LN66@OnLButtonD
  004df	2d ef 00 00 00	 sub	 eax, 239		; 000000efH
  004e4	0f 85 06 02 00
	00		 jne	 $LN75@OnLButtonD
; File C:\Program Files (x86)\Microsoft Visual Studio\2019\Community\VC\Tools\MSVC\14.29.30133\atlmfc\include\afxwin1.inl

; 512  : 	{ ASSERT(m_hDC != NULL); return ::DrawFrameControl(m_hDC, lpRect, nType, nState); }

  004ea	6a 01		 push	 1
  004ec	6a 03		 push	 3
  004ee	8d be d4 00 00
	00		 lea	 edi, DWORD PTR [esi+212]
  004f4	57		 push	 edi
  004f5	ff b5 4c ff ff
	ff		 push	 DWORD PTR _dc$2[ebp+4]
  004fb	ff 15 00 00 00
	00		 call	 DWORD PTR __imp__DrawFrameControl@16
; File C:\Program Files (x86)\Microsoft Visual Studio\2019\Community\VC\Tools\MSVC\14.29.30133\atlmfc\include\atltypes.h

; 424  : 	x = (short)LOWORD(dwPoint);

  00501	8b 85 68 ff ff
	ff		 mov	 eax, DWORD PTR _msg$5[ebp+12]
  00507	0f bf c8	 movsx	 ecx, ax

; 425  : 	y = (short)HIWORD(dwPoint);

  0050a	c1 e8 10	 shr	 eax, 16			; 00000010H
  0050d	98		 cwde

; 648  : 	return ::PtInRect(this, point);

  0050e	50		 push	 eax
  0050f	51		 push	 ecx
  00510	57		 push	 edi
; File D:\git\src\IBK\IBK_DRFN\ProjSrc\SrcDrfn\Chart\MULTICHART\control\GfxOutBarCtrl.cpp

; 1301 : 						bDownArrow = false;

  00511	c6 86 c1 00 00
	00 00		 mov	 BYTE PTR [esi+193], 0
; File C:\Program Files (x86)\Microsoft Visual Studio\2019\Community\VC\Tools\MSVC\14.29.30133\atlmfc\include\atltypes.h

; 648  : 	return ::PtInRect(this, point);

  00518	ff 15 00 00 00
	00		 call	 DWORD PTR __imp__PtInRect@12
; File D:\git\src\IBK\IBK_DRFN\ProjSrc\SrcDrfn\Chart\MULTICHART\control\GfxOutBarCtrl.cpp

; 1303 : 						if (rcDownArrow.PtInRect(pt))

  0051e	85 c0		 test	 eax, eax
  00520	74 6a		 je	 SHORT $ExitLoop3$384

; 1502 : 	CBarFolder * pbf = (CBarFolder *) arFolder.GetAt(iSelFolder);

  00522	8b 8e 34 01 00
	00		 mov	 ecx, DWORD PTR [esi+308]
  00528	0f 57 c0	 xorps	 xmm0, xmm0
; File C:\Program Files (x86)\Microsoft Visual Studio\2019\Community\VC\Tools\MSVC\14.29.30133\atlmfc\include\atltypes.h

; 528  : 	left = 0;

  0052b	0f 11 45 c0	 movups	 XMMWORD PTR _itrc$15[ebp], xmm0
; File C:\Program Files (x86)\Microsoft Visual Studio\2019\Community\VC\Tools\MSVC\14.29.30133\atlmfc\include\afxcoll.inl

; 203  : 		if( nIndex < 0 || nIndex >= m_nSize )

  0052f	85 c9		 test	 ecx, ecx
  00531	0f 88 d3 04 00
	00		 js	 $LN197@OnLButtonD
  00537	3b 8e 0c 01 00
	00		 cmp	 ecx, DWORD PTR [esi+268]
  0053d	0f 8d c7 04 00
	00		 jge	 $LN197@OnLButtonD

; 205  : 		return m_pData[nIndex]; }

  00543	8b 86 08 01 00
	00		 mov	 eax, DWORD PTR [esi+264]
; File D:\git\src\IBK\IBK_DRFN\ProjSrc\SrcDrfn\Chart\MULTICHART\control\GfxOutBarCtrl.cpp

; 1306 : 							GetItemRect(iSelFolder, GetItemCount() - 1, itrc);

  00549	8d 55 c0	 lea	 edx, DWORD PTR _itrc$15[ebp]
  0054c	52		 push	 edx
; File C:\Program Files (x86)\Microsoft Visual Studio\2019\Community\VC\Tools\MSVC\14.29.30133\atlmfc\include\afxcoll.inl

; 205  : 		return m_pData[nIndex]; }

  0054d	8b 04 88	 mov	 eax, DWORD PTR [eax+ecx*4]
; File D:\git\src\IBK\IBK_DRFN\ProjSrc\SrcDrfn\Chart\MULTICHART\control\GfxOutBarCtrl.cpp

; 1503 : 	return 	pbf->GetItemCount();

  00550	8b 40 1c	 mov	 eax, DWORD PTR [eax+28]

; 1306 : 							GetItemRect(iSelFolder, GetItemCount() - 1, itrc);

  00553	48		 dec	 eax
  00554	50		 push	 eax
  00555	51		 push	 ecx
  00556	8b ce		 mov	 ecx, esi
  00558	e8 00 00 00 00	 call	 ?GetItemRect@CGfxOutBarCtrl@@QAEXHHAAVCRect@@@Z ; CGfxOutBarCtrl::GetItemRect

; 1308 : 							GetInsideRect(crc);

  0055d	8d 45 e0	 lea	 eax, DWORD PTR _crc$25[ebp]
  00560	0f 57 c0	 xorps	 xmm0, xmm0
  00563	50		 push	 eax
  00564	8b ce		 mov	 ecx, esi
; File C:\Program Files (x86)\Microsoft Visual Studio\2019\Community\VC\Tools\MSVC\14.29.30133\atlmfc\include\atltypes.h

; 528  : 	left = 0;

  00566	0f 11 45 e0	 movups	 XMMWORD PTR _crc$25[ebp], xmm0
; File D:\git\src\IBK\IBK_DRFN\ProjSrc\SrcDrfn\Chart\MULTICHART\control\GfxOutBarCtrl.cpp

; 1308 : 							GetInsideRect(crc);

  0056a	e8 00 00 00 00	 call	 ?GetInsideRect@CGfxOutBarCtrl@@QBEXAAVCRect@@@Z ; CGfxOutBarCtrl::GetInsideRect

; 1309 : 							if (itrc.bottom > crc.bottom)

  0056f	8b 45 cc	 mov	 eax, DWORD PTR _itrc$15[ebp+12]
  00572	3b 45 ec	 cmp	 eax, DWORD PTR _crc$25[ebp+12]
  00575	7e 15		 jle	 SHORT $ExitLoop3$384

; 1310 : 							{
; 1311 : 								iFirstItem ++;

  00577	ff 86 20 01 00
	00		 inc	 DWORD PTR [esi+288]
; File C:\Program Files (x86)\Microsoft Visual Studio\2019\Community\VC\Tools\MSVC\14.29.30133\atlmfc\include\afxwin2.inl

; 116  : 	{ ASSERT(::IsWindow(m_hWnd)); ::InvalidateRect(m_hWnd, lpRect, bErase); }

  0057d	8d 45 e0	 lea	 eax, DWORD PTR _crc$25[ebp]
  00580	6a 01		 push	 1
  00582	50		 push	 eax
  00583	ff 76 20	 push	 DWORD PTR [esi+32]
  00586	ff 15 00 00 00
	00		 call	 DWORD PTR __imp__InvalidateRect@12
$ExitLoop3$384:

; 155  : 	{ ASSERT(::IsWindow(m_hWnd)); return ::KillTimer(m_hWnd, nIDEvent); }

  0058c	6a 02		 push	 2
  0058e	ff 76 20	 push	 DWORD PTR [esi+32]
  00591	ff 15 00 00 00
	00		 call	 DWORD PTR __imp__KillTimer@8
; File D:\git\src\IBK\IBK_DRFN\ProjSrc\SrcDrfn\Chart\MULTICHART\control\GfxOutBarCtrl.cpp

; 1359 : 			ReleaseCapture();

  00597	ff 15 00 00 00
	00		 call	 DWORD PTR __imp__ReleaseCapture@0

; 1360 : 			AfxUnlockTempMaps(FALSE);

  0059d	6a 00		 push	 0
  0059f	e8 00 00 00 00	 call	 ?AfxUnlockTempMaps@@YGHH@Z ; AfxUnlockTempMaps
; File C:\Program Files (x86)\Microsoft Visual Studio\2019\Community\VC\Tools\MSVC\14.29.30133\atlmfc\include\afxwin2.inl

; 86   : 	{ ASSERT(::IsWindow(m_hWnd)); ::GetClientRect(m_hWnd, lpRect); }

  005a4	8d 45 d0	 lea	 eax, DWORD PTR _crc$20[ebp]
; File D:\git\src\IBK\IBK_DRFN\ProjSrc\SrcDrfn\Chart\MULTICHART\control\GfxOutBarCtrl.cpp

; 1361 : 			bLooping = false;

  005a7	c6 86 e4 00 00
	00 00		 mov	 BYTE PTR [esi+228], 0
; File C:\Program Files (x86)\Microsoft Visual Studio\2019\Community\VC\Tools\MSVC\14.29.30133\atlmfc\include\afxwin2.inl

; 86   : 	{ ASSERT(::IsWindow(m_hWnd)); ::GetClientRect(m_hWnd, lpRect); }

  005ae	50		 push	 eax
  005af	ff 76 20	 push	 DWORD PTR [esi+32]
  005b2	0f 57 c0	 xorps	 xmm0, xmm0
; File D:\git\src\IBK\IBK_DRFN\ProjSrc\SrcDrfn\Chart\MULTICHART\control\GfxOutBarCtrl.cpp

; 1362 : 			bDownPressed = false;

  005b5	c6 86 c3 00 00
	00 00		 mov	 BYTE PTR [esi+195], 0

; 1363 : 			bDownArrow = false;

  005bc	c6 86 c1 00 00
	00 00		 mov	 BYTE PTR [esi+193], 0
; File C:\Program Files (x86)\Microsoft Visual Studio\2019\Community\VC\Tools\MSVC\14.29.30133\atlmfc\include\atltypes.h

; 528  : 	left = 0;

  005c3	0f 11 45 d0	 movups	 XMMWORD PTR _crc$20[ebp], xmm0
; File C:\Program Files (x86)\Microsoft Visual Studio\2019\Community\VC\Tools\MSVC\14.29.30133\atlmfc\include\afxwin2.inl

; 86   : 	{ ASSERT(::IsWindow(m_hWnd)); ::GetClientRect(m_hWnd, lpRect); }

  005c7	ff 15 00 00 00
	00		 call	 DWORD PTR __imp__GetClientRect@8
; File C:\Program Files (x86)\Microsoft Visual Studio\2019\Community\VC\Tools\MSVC\14.29.30133\atlmfc\include\atltypes.h

; 698  : 	::InflateRect(this, -x, -y);

  005cd	6a fc		 push	 -4			; fffffffcH
  005cf	6a fc		 push	 -4			; fffffffcH
  005d1	8d 45 d0	 lea	 eax, DWORD PTR _crc$20[ebp]
  005d4	50		 push	 eax
  005d5	ff 15 00 00 00
	00		 call	 DWORD PTR __imp__InflateRect@12
; File D:\git\src\IBK\IBK_DRFN\ProjSrc\SrcDrfn\Chart\MULTICHART\control\GfxOutBarCtrl.cpp

; 783  : 	if (arFolder.GetSize() > 0)

  005db	8b be 0c 01 00
	00		 mov	 edi, DWORD PTR [esi+268]
  005e1	85 ff		 test	 edi, edi
  005e3	0f 8e 45 01 00
	00		 jle	 $LN228@OnLButtonD

; 784  : 	{
; 785  : 		int max = arFolder.GetSize();
; 786  : 		rect.top += iFolderHeight * (iSelFolder + 1);

  005e9	8b 96 34 01 00
	00		 mov	 edx, DWORD PTR [esi+308]

; 787  : 		if(iSelFolder == arFolder.GetSize() - 1)

  005ef	2b fa		 sub	 edi, edx
  005f1	8b 8e a0 00 00
	00		 mov	 ecx, DWORD PTR [esi+160]
  005f7	4f		 dec	 edi
  005f8	0f af f9	 imul	 edi, ecx
  005fb	8d 42 01	 lea	 eax, DWORD PTR [edx+1]
  005fe	0f af c1	 imul	 eax, ecx
  00601	01 45 d4	 add	 DWORD PTR _crc$20[ebp+4], eax
  00604	8b 86 0c 01 00
	00		 mov	 eax, DWORD PTR [esi+268]
  0060a	48		 dec	 eax
  0060b	3b d0		 cmp	 edx, eax
  0060d	0f 85 12 01 00
	00		 jne	 $LN229@OnLButtonD

; 788  : 			rect.bottom -= (max - iSelFolder - 1)*iFolderHeight + 1;

  00613	83 c8 ff	 or	 eax, -1
  00616	2b c7		 sub	 eax, edi
  00618	01 45 dc	 add	 DWORD PTR _crc$20[ebp+12], eax
  0061b	e9 08 01 00 00	 jmp	 $LN230@OnLButtonD
$LN66@OnLButtonD:

; 1312 : 								InvalidateRect(crc, true);
; 1313 : 							}
; 1314 : 						}
; 1315 : 					}
; 1316 : 					goto ExitLoop3;
; 1317 : 
; 1318 : 
; 1319 : 				case WM_TIMER:
; 1320 : 					{
; 1321 : 						if (msg.wParam == 2)

  00620	83 bd 64 ff ff
	ff 02		 cmp	 DWORD PTR _msg$5[ebp+8], 2
  00627	0f 85 d0 00 00
	00		 jne	 $LN15@OnLButtonD
; File C:\Program Files (x86)\Microsoft Visual Studio\2019\Community\VC\Tools\MSVC\14.29.30133\atlmfc\include\atltypes.h

; 414  : 	*(POINT*)this = initPt;

  0062d	8b 85 70 ff ff
	ff		 mov	 eax, DWORD PTR _msg$5[ebp+20]
  00633	8b 8d 74 ff ff
	ff		 mov	 ecx, DWORD PTR _msg$5[ebp+24]
  00639	89 45 94	 mov	 DWORD PTR _pt$10[ebp], eax
; File C:\Program Files (x86)\Microsoft Visual Studio\2019\Community\VC\Tools\MSVC\14.29.30133\atlmfc\include\afxwin2.inl

; 94   : 	{ ASSERT(::IsWindow(m_hWnd)); ::ScreenToClient(m_hWnd, lpPoint); }

  0063c	8d 45 94	 lea	 eax, DWORD PTR _pt$10[ebp]
  0063f	50		 push	 eax
  00640	ff 76 20	 push	 DWORD PTR [esi+32]
; File C:\Program Files (x86)\Microsoft Visual Studio\2019\Community\VC\Tools\MSVC\14.29.30133\atlmfc\include\atltypes.h

; 414  : 	*(POINT*)this = initPt;

  00643	89 4d 98	 mov	 DWORD PTR _pt$10[ebp+4], ecx
; File C:\Program Files (x86)\Microsoft Visual Studio\2019\Community\VC\Tools\MSVC\14.29.30133\atlmfc\include\afxwin2.inl

; 94   : 	{ ASSERT(::IsWindow(m_hWnd)); ::ScreenToClient(m_hWnd, lpPoint); }

  00646	ff 15 00 00 00
	00		 call	 DWORD PTR __imp__ScreenToClient@8
; File C:\Program Files (x86)\Microsoft Visual Studio\2019\Community\VC\Tools\MSVC\14.29.30133\atlmfc\include\atltypes.h

; 648  : 	return ::PtInRect(this, point);

  0064c	ff 75 98	 push	 DWORD PTR _pt$10[ebp+4]
  0064f	8d 86 d4 00 00
	00		 lea	 eax, DWORD PTR [esi+212]
  00655	ff 75 94	 push	 DWORD PTR _pt$10[ebp]
  00658	50		 push	 eax
  00659	ff 15 00 00 00
	00		 call	 DWORD PTR __imp__PtInRect@12
; File D:\git\src\IBK\IBK_DRFN\ProjSrc\SrcDrfn\Chart\MULTICHART\control\GfxOutBarCtrl.cpp

; 1327 : 								if (rcDownArrow.PtInRect(pt))

  0065f	85 c0		 test	 eax, eax
  00661	0f 84 77 00 00
	00		 je	 $LN69@OnLButtonD

; 1502 : 	CBarFolder * pbf = (CBarFolder *) arFolder.GetAt(iSelFolder);

  00667	8b 8e 34 01 00
	00		 mov	 ecx, DWORD PTR [esi+308]
  0066d	0f 57 c0	 xorps	 xmm0, xmm0

; 1328 : 								{
; 1329 : 									bDownPressed = true;

  00670	c6 86 c3 00 00
	00 01		 mov	 BYTE PTR [esi+195], 1
; File C:\Program Files (x86)\Microsoft Visual Studio\2019\Community\VC\Tools\MSVC\14.29.30133\atlmfc\include\atltypes.h

; 528  : 	left = 0;

  00677	0f 11 45 c0	 movups	 XMMWORD PTR _itrc$14[ebp], xmm0
; File C:\Program Files (x86)\Microsoft Visual Studio\2019\Community\VC\Tools\MSVC\14.29.30133\atlmfc\include\afxcoll.inl

; 203  : 		if( nIndex < 0 || nIndex >= m_nSize )

  0067b	85 c9		 test	 ecx, ecx
  0067d	0f 88 87 03 00
	00		 js	 $LN197@OnLButtonD
  00683	3b 8e 0c 01 00
	00		 cmp	 ecx, DWORD PTR [esi+268]
  00689	0f 8d 7b 03 00
	00		 jge	 $LN197@OnLButtonD

; 205  : 		return m_pData[nIndex]; }

  0068f	8b 86 08 01 00
	00		 mov	 eax, DWORD PTR [esi+264]
; File D:\git\src\IBK\IBK_DRFN\ProjSrc\SrcDrfn\Chart\MULTICHART\control\GfxOutBarCtrl.cpp

; 1331 : 									GetItemRect(iSelFolder, GetItemCount() - 1, itrc);

  00695	8d 55 c0	 lea	 edx, DWORD PTR _itrc$14[ebp]
  00698	52		 push	 edx
; File C:\Program Files (x86)\Microsoft Visual Studio\2019\Community\VC\Tools\MSVC\14.29.30133\atlmfc\include\afxcoll.inl

; 205  : 		return m_pData[nIndex]; }

  00699	8b 04 88	 mov	 eax, DWORD PTR [eax+ecx*4]
; File D:\git\src\IBK\IBK_DRFN\ProjSrc\SrcDrfn\Chart\MULTICHART\control\GfxOutBarCtrl.cpp

; 1503 : 	return 	pbf->GetItemCount();

  0069c	8b 40 1c	 mov	 eax, DWORD PTR [eax+28]

; 1331 : 									GetItemRect(iSelFolder, GetItemCount() - 1, itrc);

  0069f	48		 dec	 eax
  006a0	50		 push	 eax
  006a1	51		 push	 ecx
  006a2	8b ce		 mov	 ecx, esi
  006a4	e8 00 00 00 00	 call	 ?GetItemRect@CGfxOutBarCtrl@@QAEXHHAAVCRect@@@Z ; CGfxOutBarCtrl::GetItemRect

; 1333 : 									GetInsideRect(crc);

  006a9	8d 45 e0	 lea	 eax, DWORD PTR _crc$24[ebp]
  006ac	0f 57 c0	 xorps	 xmm0, xmm0
  006af	50		 push	 eax
  006b0	8b ce		 mov	 ecx, esi
; File C:\Program Files (x86)\Microsoft Visual Studio\2019\Community\VC\Tools\MSVC\14.29.30133\atlmfc\include\atltypes.h

; 528  : 	left = 0;

  006b2	0f 11 45 e0	 movups	 XMMWORD PTR _crc$24[ebp], xmm0
; File D:\git\src\IBK\IBK_DRFN\ProjSrc\SrcDrfn\Chart\MULTICHART\control\GfxOutBarCtrl.cpp

; 1333 : 									GetInsideRect(crc);

  006b6	e8 00 00 00 00	 call	 ?GetInsideRect@CGfxOutBarCtrl@@QBEXAAVCRect@@@Z ; CGfxOutBarCtrl::GetInsideRect

; 1334 : 									if (itrc.bottom > crc.bottom)

  006bb	8b 45 cc	 mov	 eax, DWORD PTR _itrc$14[ebp+12]
  006be	3b 45 ec	 cmp	 eax, DWORD PTR _crc$24[ebp+12]
  006c1	0f 8e c5 fe ff
	ff		 jle	 $ExitLoop3$384

; 1335 : 									{
; 1336 : 										iFirstItem ++;

  006c7	ff 86 20 01 00
	00		 inc	 DWORD PTR [esi+288]
; File C:\Program Files (x86)\Microsoft Visual Studio\2019\Community\VC\Tools\MSVC\14.29.30133\atlmfc\include\afxwin2.inl

; 116  : 	{ ASSERT(::IsWindow(m_hWnd)); ::InvalidateRect(m_hWnd, lpRect, bErase); }

  006cd	8d 45 e0	 lea	 eax, DWORD PTR _crc$24[ebp]
  006d0	6a 01		 push	 1
  006d2	50		 push	 eax
  006d3	ff 76 20	 push	 DWORD PTR [esi+32]
  006d6	ff 15 00 00 00
	00		 call	 DWORD PTR __imp__InvalidateRect@12
; File D:\git\src\IBK\IBK_DRFN\ProjSrc\SrcDrfn\Chart\MULTICHART\control\GfxOutBarCtrl.cpp

; 1340 : 								}

  006dc	eb 1f		 jmp	 SHORT $LN15@OnLButtonD
$LN69@OnLButtonD:

; 1341 : 								else bDownPressed = false;

  006de	c6 86 c3 00 00
	00 00		 mov	 BYTE PTR [esi+195], 0

; 1342 : 							}
; 1343 : 						}
; 1344 : 						break;

  006e5	eb 16		 jmp	 SHORT $LN15@OnLButtonD
$LN74@OnLButtonD:

; 1345 : 					}
; 1346 : 
; 1347 : 				case WM_KEYDOWN:	
; 1348 : 					if (msg.wParam != VK_ESCAPE) 

  006e7	83 bd 64 ff ff
	ff 1b		 cmp	 DWORD PTR _msg$5[ebp+8], 27 ; 0000001bH
  006ee	75 0d		 jne	 SHORT $LN15@OnLButtonD
$LN75@OnLButtonD:

; 1349 : 						break;
; 1350 : 
; 1351 : 				default:
; 1352 : 					DispatchMessage(&msg);

  006f0	8d 85 5c ff ff
	ff		 lea	 eax, DWORD PTR _msg$5[ebp]
  006f6	50		 push	 eax
  006f7	ff 15 00 00 00
	00		 call	 DWORD PTR __imp__DispatchMessageA@4
$LN15@OnLButtonD:

; 1259 : 			for (;;)
; 1260 : 			{
; 1261 : 				MSG msg;
; 1262 : 				VERIFY(::GetMessage(&msg, NULL, 0, 0));

  006fd	6a 00		 push	 0
  006ff	6a 00		 push	 0
  00701	6a 00		 push	 0
  00703	8d 85 5c ff ff
	ff		 lea	 eax, DWORD PTR _msg$5[ebp]
  00709	50		 push	 eax
  0070a	ff 15 00 00 00
	00		 call	 DWORD PTR __imp__GetMessageA@16
; File C:\Program Files (x86)\Microsoft Visual Studio\2019\Community\VC\Tools\MSVC\14.29.30133\atlmfc\include\afxwin2.inl

; 161  : 	{ return CWnd::FromHandle(::GetCapture()); }

  00710	ff d7		 call	 edi
  00712	50		 push	 eax
  00713	e8 00 00 00 00	 call	 ?FromHandle@CWnd@@SGPAV1@PAUHWND__@@@Z ; CWnd::FromHandle
; File D:\git\src\IBK\IBK_DRFN\ProjSrc\SrcDrfn\Chart\MULTICHART\control\GfxOutBarCtrl.cpp

; 1264 : 				if (CWnd::GetCapture() != this) break;

  00718	3b c6		 cmp	 eax, esi
  0071a	0f 84 a5 fd ff
	ff		 je	 $LL12@OnLButtonD
  00720	e9 67 fe ff ff	 jmp	 $ExitLoop3$384
$LN229@OnLButtonD:

; 790  : 			rect.bottom -= (max - iSelFolder - 1)*iFolderHeight;

  00725	29 7d dc	 sub	 DWORD PTR _crc$20[ebp+12], edi
$LN230@OnLButtonD:

; 791  : 		rect.left += 1;//+ 2;

  00728	ff 45 d0	 inc	 DWORD PTR _crc$20[ebp]

; 792  : 		rect.right -= 1;

  0072b	ff 4d d8	 dec	 DWORD PTR _crc$20[ebp+8]
$LN228@OnLButtonD:
; File C:\Program Files (x86)\Microsoft Visual Studio\2019\Community\VC\Tools\MSVC\14.29.30133\atlmfc\include\afxwin2.inl

; 116  : 	{ ASSERT(::IsWindow(m_hWnd)); ::InvalidateRect(m_hWnd, lpRect, bErase); }

  0072e	6a 01		 push	 1
  00730	8d 45 d0	 lea	 eax, DWORD PTR _crc$20[ebp]
  00733	50		 push	 eax
  00734	ff 76 20	 push	 DWORD PTR [esi+32]
  00737	ff 15 00 00 00
	00		 call	 DWORD PTR __imp__InvalidateRect@12
; File D:\git\src\IBK\IBK_DRFN\ProjSrc\SrcDrfn\Chart\MULTICHART\control\GfxOutBarCtrl.cpp

; 1367 : 		}

  0073d	8d 8d 48 ff ff
	ff		 lea	 ecx, DWORD PTR _dc$2[ebp]
  00743	e9 92 02 00 00	 jmp	 $LN380@OnLButtonD
$LN59@OnLButtonD:

; 1368 : 	}
; 1369 : 
; 1370 : 	if (ht == htUpScroll)

  00748	83 ff 02	 cmp	 edi, 2
  0074b	0f 85 95 02 00
	00		 jne	 $LN78@OnLButtonD

; 1371 : 	{
; 1372 : 		bLooping = true;
; 1373 : 		bool bHigh = true;
; 1374 : 
; 1375 : 		if (::GetCapture() == NULL)

  00751	8b 3d 00 00 00
	00		 mov	 edi, DWORD PTR __imp__GetCapture@0
  00757	c6 86 e4 00 00
	00 01		 mov	 BYTE PTR [esi+228], 1
  0075e	ff d7		 call	 edi
  00760	85 c0		 test	 eax, eax
  00762	0f 85 7e 02 00
	00		 jne	 $LN78@OnLButtonD
; File C:\Program Files (x86)\Microsoft Visual Studio\2019\Community\VC\Tools\MSVC\14.29.30133\atlmfc\include\afxwin2.inl

; 163  : 	{ ASSERT(::IsWindow(m_hWnd)); return CWnd::FromHandle(::SetCapture(m_hWnd)); }

  00768	ff 76 20	 push	 DWORD PTR [esi+32]
  0076b	ff 15 00 00 00
	00		 call	 DWORD PTR __imp__SetCapture@4
  00771	50		 push	 eax
  00772	e8 00 00 00 00	 call	 ?FromHandle@CWnd@@SGPAV1@PAUHWND__@@@Z ; CWnd::FromHandle
; File D:\git\src\IBK\IBK_DRFN\ProjSrc\SrcDrfn\Chart\MULTICHART\control\GfxOutBarCtrl.cpp

; 1379 : 			CClientDC dc(this);

  00777	56		 push	 esi
  00778	8d 8d 64 ff ff
	ff		 lea	 ecx, DWORD PTR _dc$6[ebp]
  0077e	e8 00 00 00 00	 call	 ??0CClientDC@@QAE@PAVCWnd@@@Z ; CClientDC::CClientDC
; File C:\Program Files (x86)\Microsoft Visual Studio\2019\Community\VC\Tools\MSVC\14.29.30133\atlmfc\include\afxwin1.inl

; 512  : 	{ ASSERT(m_hDC != NULL); return ::DrawFrameControl(m_hDC, lpRect, nType, nState); }

  00783	68 00 02 00 00	 push	 512			; 00000200H
  00788	6a 03		 push	 3
; File D:\git\src\IBK\IBK_DRFN\ProjSrc\SrcDrfn\Chart\MULTICHART\control\GfxOutBarCtrl.cpp

; 1380 : 			dc.DrawFrameControl(rcUpArrow, DFC_SCROLL, DFCS_SCROLLUP|DFCS_PUSHED);

  0078a	8d 86 c4 00 00
	00		 lea	 eax, DWORD PTR [esi+196]
  00790	c7 45 fc 03 00
	00 00		 mov	 DWORD PTR __$EHRec$[ebp+8], 3
; File C:\Program Files (x86)\Microsoft Visual Studio\2019\Community\VC\Tools\MSVC\14.29.30133\atlmfc\include\afxwin1.inl

; 512  : 	{ ASSERT(m_hDC != NULL); return ::DrawFrameControl(m_hDC, lpRect, nType, nState); }

  00797	50		 push	 eax
  00798	ff b5 68 ff ff
	ff		 push	 DWORD PTR _dc$6[ebp+4]
  0079e	ff 15 00 00 00
	00		 call	 DWORD PTR __imp__DrawFrameControl@16
; File C:\Program Files (x86)\Microsoft Visual Studio\2019\Community\VC\Tools\MSVC\14.29.30133\atlmfc\include\afxwin2.inl

; 152  : 	{ ASSERT(::IsWindow(m_hWnd)); return ::SetTimer(m_hWnd, nIDEvent, nElapse,

  007a4	6a 00		 push	 0
  007a6	68 2c 01 00 00	 push	 300			; 0000012cH
  007ab	6a 02		 push	 2
  007ad	ff 76 20	 push	 DWORD PTR [esi+32]
  007b0	ff 15 00 00 00
	00		 call	 DWORD PTR __imp__SetTimer@16
; File D:\git\src\IBK\IBK_DRFN\ProjSrc\SrcDrfn\Chart\MULTICHART\control\GfxOutBarCtrl.cpp

; 1382 : 			AfxLockTempMaps();

  007b6	e8 00 00 00 00	 call	 ?AfxLockTempMaps@@YGXXZ	; AfxLockTempMaps

; 1383 : 			for (;;)
; 1384 : 			{
; 1385 : 				MSG msg;
; 1386 : 				VERIFY(::GetMessage(&msg, NULL, 0, 0));

  007bb	6a 00		 push	 0
  007bd	6a 00		 push	 0
  007bf	6a 00		 push	 0
  007c1	8d 85 78 ff ff
	ff		 lea	 eax, DWORD PTR _msg$7[ebp]
  007c7	50		 push	 eax
  007c8	ff 15 00 00 00
	00		 call	 DWORD PTR __imp__GetMessageA@16
; File C:\Program Files (x86)\Microsoft Visual Studio\2019\Community\VC\Tools\MSVC\14.29.30133\atlmfc\include\afxwin2.inl

; 161  : 	{ return CWnd::FromHandle(::GetCapture()); }

  007ce	ff d7		 call	 edi
  007d0	50		 push	 eax
  007d1	e8 00 00 00 00	 call	 ?FromHandle@CWnd@@SGPAV1@PAUHWND__@@@Z ; CWnd::FromHandle
; File D:\git\src\IBK\IBK_DRFN\ProjSrc\SrcDrfn\Chart\MULTICHART\control\GfxOutBarCtrl.cpp

; 1388 : 				if (CWnd::GetCapture() != this) break;

  007d6	3b c6		 cmp	 eax, esi
  007d8	0f 85 8d 00 00
	00		 jne	 $ExitLoop$385
  007de	66 90		 npad	 2
$LL17@OnLButtonD:

; 1389 : 
; 1390 : 				switch (msg.message)

  007e0	8b 85 7c ff ff
	ff		 mov	 eax, DWORD PTR _msg$7[ebp+4]
  007e6	2d 00 01 00 00	 sub	 eax, 256		; 00000100H
  007eb	0f 84 90 01 00
	00		 je	 $LN93@OnLButtonD
  007f1	83 e8 13	 sub	 eax, 19			; 00000013H
  007f4	0f 84 05 01 00
	00		 je	 $LN85@OnLButtonD
  007fa	2d ef 00 00 00	 sub	 eax, 239		; 000000efH
  007ff	0f 85 82 01 00
	00		 jne	 $LN94@OnLButtonD
; File C:\Program Files (x86)\Microsoft Visual Studio\2019\Community\VC\Tools\MSVC\14.29.30133\atlmfc\include\afxwin1.inl

; 512  : 	{ ASSERT(m_hDC != NULL); return ::DrawFrameControl(m_hDC, lpRect, nType, nState); }

  00805	50		 push	 eax
  00806	6a 03		 push	 3
  00808	8d be c4 00 00
	00		 lea	 edi, DWORD PTR [esi+196]
  0080e	57		 push	 edi
  0080f	ff b5 68 ff ff
	ff		 push	 DWORD PTR _dc$6[ebp+4]
  00815	ff 15 00 00 00
	00		 call	 DWORD PTR __imp__DrawFrameControl@16
; File C:\Program Files (x86)\Microsoft Visual Studio\2019\Community\VC\Tools\MSVC\14.29.30133\atlmfc\include\atltypes.h

; 424  : 	x = (short)LOWORD(dwPoint);

  0081b	8b 45 84	 mov	 eax, DWORD PTR _msg$7[ebp+12]
  0081e	0f bf c8	 movsx	 ecx, ax

; 425  : 	y = (short)HIWORD(dwPoint);

  00821	c1 e8 10	 shr	 eax, 16			; 00000010H
  00824	98		 cwde

; 648  : 	return ::PtInRect(this, point);

  00825	50		 push	 eax
  00826	51		 push	 ecx
  00827	57		 push	 edi
; File D:\git\src\IBK\IBK_DRFN\ProjSrc\SrcDrfn\Chart\MULTICHART\control\GfxOutBarCtrl.cpp

; 1425 : 						bUpArrow = false;

  00828	c6 86 c0 00 00
	00 00		 mov	 BYTE PTR [esi+192], 0
; File C:\Program Files (x86)\Microsoft Visual Studio\2019\Community\VC\Tools\MSVC\14.29.30133\atlmfc\include\atltypes.h

; 648  : 	return ::PtInRect(this, point);

  0082f	ff 15 00 00 00
	00		 call	 DWORD PTR __imp__PtInRect@12
; File D:\git\src\IBK\IBK_DRFN\ProjSrc\SrcDrfn\Chart\MULTICHART\control\GfxOutBarCtrl.cpp

; 1427 : 						if (rcUpArrow.PtInRect(pt))

  00835	85 c0		 test	 eax, eax
  00837	74 32		 je	 SHORT $ExitLoop$385

; 1428 : 						{
; 1429 : 							if (iFirstItem > 0 ) 

  00839	8b 86 20 01 00
	00		 mov	 eax, DWORD PTR [esi+288]
  0083f	85 c0		 test	 eax, eax
  00841	7e 28		 jle	 SHORT $ExitLoop$385

; 1430 : 							{
; 1431 : 								iFirstItem --;

  00843	48		 dec	 eax
  00844	0f 57 c0	 xorps	 xmm0, xmm0
  00847	89 86 20 01 00
	00		 mov	 DWORD PTR [esi+288], eax

; 1433 : 								GetInsideRect(crc);

  0084d	8b ce		 mov	 ecx, esi
  0084f	8d 45 d0	 lea	 eax, DWORD PTR _crc$19[ebp]
  00852	50		 push	 eax
; File C:\Program Files (x86)\Microsoft Visual Studio\2019\Community\VC\Tools\MSVC\14.29.30133\atlmfc\include\atltypes.h

; 528  : 	left = 0;

  00853	0f 11 45 d0	 movups	 XMMWORD PTR _crc$19[ebp], xmm0
; File D:\git\src\IBK\IBK_DRFN\ProjSrc\SrcDrfn\Chart\MULTICHART\control\GfxOutBarCtrl.cpp

; 1433 : 								GetInsideRect(crc);

  00857	e8 00 00 00 00	 call	 ?GetInsideRect@CGfxOutBarCtrl@@QBEXAAVCRect@@@Z ; CGfxOutBarCtrl::GetInsideRect
; File C:\Program Files (x86)\Microsoft Visual Studio\2019\Community\VC\Tools\MSVC\14.29.30133\atlmfc\include\afxwin2.inl

; 116  : 	{ ASSERT(::IsWindow(m_hWnd)); ::InvalidateRect(m_hWnd, lpRect, bErase); }

  0085c	6a 01		 push	 1
  0085e	8d 45 d0	 lea	 eax, DWORD PTR _crc$19[ebp]
  00861	50		 push	 eax
  00862	ff 76 20	 push	 DWORD PTR [esi+32]
  00865	ff 15 00 00 00
	00		 call	 DWORD PTR __imp__InvalidateRect@12
$ExitLoop$385:

; 155  : 	{ ASSERT(::IsWindow(m_hWnd)); return ::KillTimer(m_hWnd, nIDEvent); }

  0086b	6a 02		 push	 2
  0086d	ff 76 20	 push	 DWORD PTR [esi+32]
  00870	ff 15 00 00 00
	00		 call	 DWORD PTR __imp__KillTimer@8
; File D:\git\src\IBK\IBK_DRFN\ProjSrc\SrcDrfn\Chart\MULTICHART\control\GfxOutBarCtrl.cpp

; 1477 : 			ReleaseCapture();

  00876	ff 15 00 00 00
	00		 call	 DWORD PTR __imp__ReleaseCapture@0

; 1478 : 			AfxUnlockTempMaps(FALSE);

  0087c	6a 00		 push	 0
  0087e	e8 00 00 00 00	 call	 ?AfxUnlockTempMaps@@YGHH@Z ; AfxUnlockTempMaps
; File C:\Program Files (x86)\Microsoft Visual Studio\2019\Community\VC\Tools\MSVC\14.29.30133\atlmfc\include\afxwin2.inl

; 86   : 	{ ASSERT(::IsWindow(m_hWnd)); ::GetClientRect(m_hWnd, lpRect); }

  00883	8d 45 e0	 lea	 eax, DWORD PTR _crc$23[ebp]
; File D:\git\src\IBK\IBK_DRFN\ProjSrc\SrcDrfn\Chart\MULTICHART\control\GfxOutBarCtrl.cpp

; 1479 : 			bLooping = false;

  00886	c6 86 e4 00 00
	00 00		 mov	 BYTE PTR [esi+228], 0
; File C:\Program Files (x86)\Microsoft Visual Studio\2019\Community\VC\Tools\MSVC\14.29.30133\atlmfc\include\afxwin2.inl

; 86   : 	{ ASSERT(::IsWindow(m_hWnd)); ::GetClientRect(m_hWnd, lpRect); }

  0088d	50		 push	 eax
  0088e	ff 76 20	 push	 DWORD PTR [esi+32]
  00891	0f 57 c0	 xorps	 xmm0, xmm0
; File D:\git\src\IBK\IBK_DRFN\ProjSrc\SrcDrfn\Chart\MULTICHART\control\GfxOutBarCtrl.cpp

; 1480 : 			bUpPressed = false;

  00894	c6 86 c2 00 00
	00 00		 mov	 BYTE PTR [esi+194], 0

; 1481 : 			bUpArrow = false;

  0089b	c6 86 c0 00 00
	00 00		 mov	 BYTE PTR [esi+192], 0
; File C:\Program Files (x86)\Microsoft Visual Studio\2019\Community\VC\Tools\MSVC\14.29.30133\atlmfc\include\atltypes.h

; 528  : 	left = 0;

  008a2	0f 11 45 e0	 movups	 XMMWORD PTR _crc$23[ebp], xmm0
; File C:\Program Files (x86)\Microsoft Visual Studio\2019\Community\VC\Tools\MSVC\14.29.30133\atlmfc\include\afxwin2.inl

; 86   : 	{ ASSERT(::IsWindow(m_hWnd)); ::GetClientRect(m_hWnd, lpRect); }

  008a6	ff 15 00 00 00
	00		 call	 DWORD PTR __imp__GetClientRect@8
; File C:\Program Files (x86)\Microsoft Visual Studio\2019\Community\VC\Tools\MSVC\14.29.30133\atlmfc\include\atltypes.h

; 698  : 	::InflateRect(this, -x, -y);

  008ac	6a fc		 push	 -4			; fffffffcH
  008ae	6a fc		 push	 -4			; fffffffcH
  008b0	8d 45 e0	 lea	 eax, DWORD PTR _crc$23[ebp]
  008b3	50		 push	 eax
  008b4	ff 15 00 00 00
	00		 call	 DWORD PTR __imp__InflateRect@12
; File D:\git\src\IBK\IBK_DRFN\ProjSrc\SrcDrfn\Chart\MULTICHART\control\GfxOutBarCtrl.cpp

; 783  : 	if (arFolder.GetSize() > 0)

  008ba	8b be 0c 01 00
	00		 mov	 edi, DWORD PTR [esi+268]
  008c0	85 ff		 test	 edi, edi
  008c2	0f 8e fd 00 00
	00		 jle	 $LN271@OnLButtonD

; 784  : 	{
; 785  : 		int max = arFolder.GetSize();
; 786  : 		rect.top += iFolderHeight * (iSelFolder + 1);

  008c8	8b 96 34 01 00
	00		 mov	 edx, DWORD PTR [esi+308]

; 787  : 		if(iSelFolder == arFolder.GetSize() - 1)

  008ce	2b fa		 sub	 edi, edx
  008d0	8b 8e a0 00 00
	00		 mov	 ecx, DWORD PTR [esi+160]
  008d6	4f		 dec	 edi
  008d7	0f af f9	 imul	 edi, ecx
  008da	8d 42 01	 lea	 eax, DWORD PTR [edx+1]
  008dd	0f af c1	 imul	 eax, ecx
  008e0	01 45 e4	 add	 DWORD PTR _crc$23[ebp+4], eax
  008e3	8b 86 0c 01 00
	00		 mov	 eax, DWORD PTR [esi+268]
  008e9	48		 dec	 eax
  008ea	3b d0		 cmp	 edx, eax
  008ec	0f 85 ca 00 00
	00		 jne	 $LN272@OnLButtonD

; 788  : 			rect.bottom -= (max - iSelFolder - 1)*iFolderHeight + 1;

  008f2	83 c8 ff	 or	 eax, -1
  008f5	2b c7		 sub	 eax, edi
  008f7	01 45 ec	 add	 DWORD PTR _crc$23[ebp+12], eax
  008fa	e9 c0 00 00 00	 jmp	 $LN273@OnLButtonD
$LN85@OnLButtonD:

; 1434 : 								InvalidateRect(crc, true);
; 1435 : 							}
; 1436 : 						}
; 1437 : 					}
; 1438 : 
; 1439 : 					goto ExitLoop;
; 1440 : 
; 1441 : 				case WM_TIMER:
; 1442 : 					{
; 1443 : 						if (msg.wParam == 2)

  008ff	83 7d 80 02	 cmp	 DWORD PTR _msg$7[ebp+8], 2
  00903	0f 85 8b 00 00
	00		 jne	 $LN20@OnLButtonD
; File C:\Program Files (x86)\Microsoft Visual Studio\2019\Community\VC\Tools\MSVC\14.29.30133\atlmfc\include\atltypes.h

; 414  : 	*(POINT*)this = initPt;

  00909	8b 45 8c	 mov	 eax, DWORD PTR _msg$7[ebp+20]
  0090c	8b 4d 90	 mov	 ecx, DWORD PTR _msg$7[ebp+24]
  0090f	89 45 c8	 mov	 DWORD PTR _pt$16[ebp], eax
; File C:\Program Files (x86)\Microsoft Visual Studio\2019\Community\VC\Tools\MSVC\14.29.30133\atlmfc\include\afxwin2.inl

; 94   : 	{ ASSERT(::IsWindow(m_hWnd)); ::ScreenToClient(m_hWnd, lpPoint); }

  00912	8d 45 c8	 lea	 eax, DWORD PTR _pt$16[ebp]
  00915	50		 push	 eax
  00916	ff 76 20	 push	 DWORD PTR [esi+32]
; File C:\Program Files (x86)\Microsoft Visual Studio\2019\Community\VC\Tools\MSVC\14.29.30133\atlmfc\include\atltypes.h

; 414  : 	*(POINT*)this = initPt;

  00919	89 4d cc	 mov	 DWORD PTR _pt$16[ebp+4], ecx
; File C:\Program Files (x86)\Microsoft Visual Studio\2019\Community\VC\Tools\MSVC\14.29.30133\atlmfc\include\afxwin2.inl

; 94   : 	{ ASSERT(::IsWindow(m_hWnd)); ::ScreenToClient(m_hWnd, lpPoint); }

  0091c	ff 15 00 00 00
	00		 call	 DWORD PTR __imp__ScreenToClient@8
; File C:\Program Files (x86)\Microsoft Visual Studio\2019\Community\VC\Tools\MSVC\14.29.30133\atlmfc\include\atltypes.h

; 648  : 	return ::PtInRect(this, point);

  00922	ff 75 cc	 push	 DWORD PTR _pt$16[ebp+4]
  00925	8d 86 c4 00 00
	00		 lea	 eax, DWORD PTR [esi+196]
  0092b	ff 75 c8	 push	 DWORD PTR _pt$16[ebp]
  0092e	50		 push	 eax
  0092f	ff 15 00 00 00
	00		 call	 DWORD PTR __imp__PtInRect@12
; File D:\git\src\IBK\IBK_DRFN\ProjSrc\SrcDrfn\Chart\MULTICHART\control\GfxOutBarCtrl.cpp

; 1449 : 								if (rcUpArrow.PtInRect(pt))

  00935	85 c0		 test	 eax, eax
  00937	74 3f		 je	 SHORT $LN88@OnLButtonD

; 1450 : 								{
; 1451 : 									bUpPressed = true;
; 1452 : 									if (iFirstItem > 0) 

  00939	8b 86 20 01 00
	00		 mov	 eax, DWORD PTR [esi+288]
  0093f	c6 86 c2 00 00
	00 01		 mov	 BYTE PTR [esi+194], 1
  00946	85 c0		 test	 eax, eax
  00948	0f 8e 1d ff ff
	ff		 jle	 $ExitLoop$385

; 1453 : 									{
; 1454 : 										iFirstItem --;

  0094e	48		 dec	 eax
  0094f	0f 57 c0	 xorps	 xmm0, xmm0
  00952	89 86 20 01 00
	00		 mov	 DWORD PTR [esi+288], eax

; 1455 : 										CRect crc;
; 1456 : 										GetInsideRect(crc);

  00958	8b ce		 mov	 ecx, esi
  0095a	8d 45 b0	 lea	 eax, DWORD PTR _crc$13[ebp]
  0095d	50		 push	 eax
  0095e	0f 11 45 b0	 movups	 XMMWORD PTR _crc$13[ebp], xmm0
  00962	e8 00 00 00 00	 call	 ?GetInsideRect@CGfxOutBarCtrl@@QBEXAAVCRect@@@Z ; CGfxOutBarCtrl::GetInsideRect
; File C:\Program Files (x86)\Microsoft Visual Studio\2019\Community\VC\Tools\MSVC\14.29.30133\atlmfc\include\afxwin2.inl

; 116  : 	{ ASSERT(::IsWindow(m_hWnd)); ::InvalidateRect(m_hWnd, lpRect, bErase); }

  00967	6a 01		 push	 1
  00969	8d 45 b0	 lea	 eax, DWORD PTR _crc$13[ebp]
  0096c	50		 push	 eax
  0096d	ff 76 20	 push	 DWORD PTR [esi+32]
  00970	ff 15 00 00 00
	00		 call	 DWORD PTR __imp__InvalidateRect@12
; File D:\git\src\IBK\IBK_DRFN\ProjSrc\SrcDrfn\Chart\MULTICHART\control\GfxOutBarCtrl.cpp

; 1460 : 								}

  00976	eb 1c		 jmp	 SHORT $LN20@OnLButtonD
$LN88@OnLButtonD:

; 1461 : 								else bUpPressed = false;

  00978	c6 86 c2 00 00
	00 00		 mov	 BYTE PTR [esi+194], 0

; 1462 : 							}
; 1463 : 						}
; 1464 : 						break;

  0097f	eb 13		 jmp	 SHORT $LN20@OnLButtonD
$LN93@OnLButtonD:

; 1465 : 					}
; 1466 : 				case WM_KEYDOWN:	
; 1467 : 					if (msg.wParam != VK_ESCAPE) break;

  00981	83 7d 80 1b	 cmp	 DWORD PTR _msg$7[ebp+8], 27 ; 0000001bH
  00985	75 0d		 jne	 SHORT $LN20@OnLButtonD
$LN94@OnLButtonD:

; 1468 : 
; 1469 : 				default:
; 1470 : 					DispatchMessage(&msg);

  00987	8d 85 78 ff ff
	ff		 lea	 eax, DWORD PTR _msg$7[ebp]
  0098d	50		 push	 eax
  0098e	ff 15 00 00 00
	00		 call	 DWORD PTR __imp__DispatchMessageA@4
$LN20@OnLButtonD:

; 1383 : 			for (;;)
; 1384 : 			{
; 1385 : 				MSG msg;
; 1386 : 				VERIFY(::GetMessage(&msg, NULL, 0, 0));

  00994	6a 00		 push	 0
  00996	6a 00		 push	 0
  00998	6a 00		 push	 0
  0099a	8d 85 78 ff ff
	ff		 lea	 eax, DWORD PTR _msg$7[ebp]
  009a0	50		 push	 eax
  009a1	ff 15 00 00 00
	00		 call	 DWORD PTR __imp__GetMessageA@16
; File C:\Program Files (x86)\Microsoft Visual Studio\2019\Community\VC\Tools\MSVC\14.29.30133\atlmfc\include\afxwin2.inl

; 161  : 	{ return CWnd::FromHandle(::GetCapture()); }

  009a7	ff d7		 call	 edi
  009a9	50		 push	 eax
  009aa	e8 00 00 00 00	 call	 ?FromHandle@CWnd@@SGPAV1@PAUHWND__@@@Z ; CWnd::FromHandle
; File D:\git\src\IBK\IBK_DRFN\ProjSrc\SrcDrfn\Chart\MULTICHART\control\GfxOutBarCtrl.cpp

; 1388 : 				if (CWnd::GetCapture() != this) break;

  009af	3b c6		 cmp	 eax, esi
  009b1	0f 84 29 fe ff
	ff		 je	 $LL17@OnLButtonD
  009b7	e9 af fe ff ff	 jmp	 $ExitLoop$385
$LN272@OnLButtonD:

; 790  : 			rect.bottom -= (max - iSelFolder - 1)*iFolderHeight;

  009bc	29 7d ec	 sub	 DWORD PTR _crc$23[ebp+12], edi
$LN273@OnLButtonD:

; 791  : 		rect.left += 1;//+ 2;

  009bf	ff 45 e0	 inc	 DWORD PTR _crc$23[ebp]

; 792  : 		rect.right -= 1;

  009c2	ff 4d e8	 dec	 DWORD PTR _crc$23[ebp+8]
$LN271@OnLButtonD:
; File C:\Program Files (x86)\Microsoft Visual Studio\2019\Community\VC\Tools\MSVC\14.29.30133\atlmfc\include\afxwin2.inl

; 116  : 	{ ASSERT(::IsWindow(m_hWnd)); ::InvalidateRect(m_hWnd, lpRect, bErase); }

  009c5	6a 01		 push	 1
  009c7	8d 45 e0	 lea	 eax, DWORD PTR _crc$23[ebp]
  009ca	50		 push	 eax
  009cb	ff 76 20	 push	 DWORD PTR [esi+32]
  009ce	ff 15 00 00 00
	00		 call	 DWORD PTR __imp__InvalidateRect@12
; File D:\git\src\IBK\IBK_DRFN\ProjSrc\SrcDrfn\Chart\MULTICHART\control\GfxOutBarCtrl.cpp

; 1485 : 		}

  009d4	8d 8d 64 ff ff
	ff		 lea	 ecx, DWORD PTR _dc$6[ebp]
$LN380@OnLButtonD:
; File C:\Program Files (x86)\Microsoft Visual Studio\2019\Community\VC\Tools\MSVC\14.29.30133\atlmfc\include\afxwin2.inl

; 432  : 	{ Default(); }

  009da	c7 45 fc ff ff
	ff ff		 mov	 DWORD PTR __$EHRec$[ebp+8], -1
  009e1	e8 00 00 00 00	 call	 ??1CClientDC@@UAE@XZ	; CClientDC::~CClientDC
$LN78@OnLButtonD:
  009e6	8b ce		 mov	 ecx, esi
  009e8	e8 00 00 00 00	 call	 ?Default@CWnd@@IAEJXZ	; CWnd::Default
; File D:\git\src\IBK\IBK_DRFN\ProjSrc\SrcDrfn\Chart\MULTICHART\control\GfxOutBarCtrl.cpp

; 1489 : }

  009ed	8b 4d f4	 mov	 ecx, DWORD PTR __$EHRec$[ebp]
  009f0	64 89 0d 00 00
	00 00		 mov	 DWORD PTR fs:0, ecx
  009f7	59		 pop	 ecx
  009f8	5f		 pop	 edi
  009f9	5e		 pop	 esi
  009fa	8b 4d f0	 mov	 ecx, DWORD PTR __$ArrayPad$[ebp]
  009fd	33 cd		 xor	 ecx, ebp
  009ff	e8 00 00 00 00	 call	 @__security_check_cookie@4
  00a04	8b e5		 mov	 esp, ebp
  00a06	5d		 pop	 ebp
  00a07	c2 0c 00	 ret	 12			; 0000000cH
$LN197@OnLButtonD:
  00a0a	e8 00 00 00 00	 call	 ?AfxThrowInvalidArgException@@YGXXZ ; AfxThrowInvalidArgException
$LN379@OnLButtonD:
  00a0f	cc		 int	 3
_TEXT	ENDS
;	COMDAT text$x
text$x	SEGMENT
__unwindfunclet$?OnLButtonDown@CGfxOutBarCtrl@@IAEXIVCPoint@@@Z$6:
  00000	8d 8d 48 ff ff
	ff		 lea	 ecx, DWORD PTR _dc$4[ebp]
  00006	e9 00 00 00 00	 jmp	 ??1CClientDC@@UAE@XZ	; CClientDC::~CClientDC
__unwindfunclet$?OnLButtonDown@CGfxOutBarCtrl@@IAEXIVCPoint@@@Z$7:
  0000b	8d 8d 48 ff ff
	ff		 lea	 ecx, DWORD PTR _dc$3[ebp]
  00011	e9 00 00 00 00	 jmp	 ??1CClientDC@@UAE@XZ	; CClientDC::~CClientDC
__unwindfunclet$?OnLButtonDown@CGfxOutBarCtrl@@IAEXIVCPoint@@@Z$8:
  00016	8d 8d 48 ff ff
	ff		 lea	 ecx, DWORD PTR _dc$2[ebp]
  0001c	e9 00 00 00 00	 jmp	 ??1CClientDC@@UAE@XZ	; CClientDC::~CClientDC
__unwindfunclet$?OnLButtonDown@CGfxOutBarCtrl@@IAEXIVCPoint@@@Z$9:
  00021	8d 8d 64 ff ff
	ff		 lea	 ecx, DWORD PTR _dc$6[ebp]
  00027	e9 00 00 00 00	 jmp	 ??1CClientDC@@UAE@XZ	; CClientDC::~CClientDC
  0002c	cc		 int	 3
  0002d	cc		 int	 3
  0002e	cc		 int	 3
  0002f	cc		 int	 3
  00030	cc		 int	 3
__ehhandler$?OnLButtonDown@CGfxOutBarCtrl@@IAEXIVCPoint@@@Z:
  00031	90		 npad	 1
  00032	90		 npad	 1
  00033	8b 54 24 08	 mov	 edx, DWORD PTR [esp+8]
  00037	8d 42 0c	 lea	 eax, DWORD PTR [edx+12]
  0003a	8b 8a 48 ff ff
	ff		 mov	 ecx, DWORD PTR [edx-184]
  00040	33 c8		 xor	 ecx, eax
  00042	e8 00 00 00 00	 call	 @__security_check_cookie@4
  00047	8b 4a fc	 mov	 ecx, DWORD PTR [edx-4]
  0004a	33 c8		 xor	 ecx, eax
  0004c	e8 00 00 00 00	 call	 @__security_check_cookie@4
  00051	b8 00 00 00 00	 mov	 eax, OFFSET __ehfuncinfo$?OnLButtonDown@CGfxOutBarCtrl@@IAEXIVCPoint@@@Z
  00056	e9 00 00 00 00	 jmp	 ___CxxFrameHandler3
text$x	ENDS
?OnLButtonDown@CGfxOutBarCtrl@@IAEXIVCPoint@@@Z ENDP	; CGfxOutBarCtrl::OnLButtonDown
; Function compile flags: /Ogtp
; File D:\git\src\IBK\IBK_DRFN\ProjSrc\SrcDrfn\Chart\MULTICHART\control\GfxOutBarCtrl.cpp
; File C:\Program Files (x86)\Microsoft Visual Studio\2019\Community\VC\Tools\MSVC\14.29.30133\atlmfc\include\afxwin2.inl
; File D:\git\src\IBK\IBK_DRFN\ProjSrc\SrcDrfn\Chart\MULTICHART\control\GfxOutBarCtrl.cpp
;	COMDAT ?OnMouseMove@CGfxOutBarCtrl@@IAEXIVCPoint@@@Z
_TEXT	SEGMENT
_nFlags$ = 8						; size = 4
_point$ = 12						; size = 8
?OnMouseMove@CGfxOutBarCtrl@@IAEXIVCPoint@@@Z PROC	; CGfxOutBarCtrl::OnMouseMove, COMDAT
; _this$ = ecx
; File C:\Program Files (x86)\Microsoft Visual Studio\2019\Community\VC\Tools\MSVC\14.29.30133\atlmfc\include\afxwin2.inl

; 454  : 	{ Default(); }

  00000	e8 00 00 00 00	 call	 ?Default@CWnd@@IAEJXZ	; CWnd::Default
; File D:\git\src\IBK\IBK_DRFN\ProjSrc\SrcDrfn\Chart\MULTICHART\control\GfxOutBarCtrl.cpp

; 819  : }

  00005	c2 0c 00	 ret	 12			; 0000000cH
?OnMouseMove@CGfxOutBarCtrl@@IAEXIVCPoint@@@Z ENDP	; CGfxOutBarCtrl::OnMouseMove
_TEXT	ENDS
; Function compile flags: /Ogtp
; File D:\git\src\IBK\IBK_DRFN\ProjSrc\SrcDrfn\Chart\MULTICHART\control\GfxOutBarCtrl.cpp
;	COMDAT ?OnEraseBkgnd@CGfxOutBarCtrl@@IAEHPAVCDC@@@Z
_TEXT	SEGMENT
_pDC$ = 8						; size = 4
?OnEraseBkgnd@CGfxOutBarCtrl@@IAEHPAVCDC@@@Z PROC	; CGfxOutBarCtrl::OnEraseBkgnd, COMDAT
; _this$ = ecx

; 455  : 	return true;

  00000	b8 01 00 00 00	 mov	 eax, 1

; 456  : }

  00005	c2 04 00	 ret	 4
?OnEraseBkgnd@CGfxOutBarCtrl@@IAEHPAVCDC@@@Z ENDP	; CGfxOutBarCtrl::OnEraseBkgnd
_TEXT	ENDS
; Function compile flags: /Ogtp
; File D:\git\src\IBK\IBK_DRFN\ProjSrc\SrcDrfn\Chart\MULTICHART\control\GfxOutBarCtrl.cpp
; File C:\Program Files (x86)\Microsoft Visual Studio\2019\Community\VC\Tools\MSVC\14.29.30133\atlmfc\include\afxwin2.inl
; File C:\Program Files (x86)\Microsoft Visual Studio\2019\Community\VC\Tools\MSVC\14.29.30133\atlmfc\include\atltypes.h
; File C:\Program Files (x86)\Microsoft Visual Studio\2019\Community\VC\Tools\MSVC\14.29.30133\atlmfc\include\afxwin2.inl
; File D:\git\src\IBK\IBK_DRFN\ProjSrc\SrcDrfn\Chart\MULTICHART\control\GfxOutBarCtrl.cpp
; File C:\Program Files (x86)\Microsoft Visual Studio\2019\Community\VC\Tools\MSVC\14.29.30133\atlmfc\include\afxwin1.inl
; File D:\git\src\IBK\IBK_DRFN\ProjSrc\SrcDrfn\Chart\MULTICHART\control\GfxOutBarCtrl.cpp
; File C:\Program Files (x86)\Microsoft Visual Studio\2019\Community\VC\Tools\MSVC\14.29.30133\atlmfc\include\afxwin1.inl
; File C:\Program Files (x86)\Microsoft Visual Studio\2019\Community\VC\Tools\MSVC\14.29.30133\atlmfc\include\atltypes.h
; File C:\Program Files (x86)\Microsoft Visual Studio\2019\Community\VC\Tools\MSVC\14.29.30133\atlmfc\include\afxwin1.inl
; File D:\git\src\IBK\IBK_DRFN\ProjSrc\SrcDrfn\Chart\MULTICHART\control\GfxOutBarCtrl.cpp
; File C:\Program Files (x86)\Microsoft Visual Studio\2019\Community\VC\Tools\MSVC\14.29.30133\atlmfc\include\afxwin1.inl
; File D:\git\src\IBK\IBK_DRFN\ProjSrc\SrcDrfn\Chart\MULTICHART\control\GfxOutBarCtrl.cpp
; File C:\Program Files (x86)\Microsoft Visual Studio\2019\Community\VC\Tools\MSVC\14.29.30133\atlmfc\include\atltypes.h
; File D:\git\src\IBK\IBK_DRFN\ProjSrc\SrcDrfn\Chart\MULTICHART\control\GfxOutBarCtrl.cpp
; File C:\Program Files (x86)\Microsoft Visual Studio\2019\Community\VC\Tools\MSVC\14.29.30133\atlmfc\include\afxcoll.inl
; File D:\git\src\IBK\IBK_DRFN\ProjSrc\SrcDrfn\Chart\MULTICHART\control\GfxOutBarCtrl.cpp
; File C:\Program Files (x86)\Microsoft Visual Studio\2019\Community\VC\Tools\MSVC\14.29.30133\atlmfc\include\atltypes.h
; File D:\git\src\IBK\IBK_DRFN\ProjSrc\SrcDrfn\Chart\MULTICHART\control\GfxOutBarCtrl.cpp
; File C:\Program Files (x86)\Microsoft Visual Studio\2019\Community\VC\Tools\MSVC\14.29.30133\atlmfc\include\afxcoll.inl
; File D:\git\src\IBK\IBK_DRFN\ProjSrc\SrcDrfn\Chart\MULTICHART\control\GfxOutBarCtrl.cpp
; File C:\Program Files (x86)\Microsoft Visual Studio\2019\Community\VC\Tools\MSVC\14.29.30133\atlmfc\include\atltypes.h
; File D:\git\src\IBK\IBK_DRFN\ProjSrc\SrcDrfn\Chart\MULTICHART\control\GfxOutBarCtrl.cpp
; File C:\Program Files (x86)\Microsoft Visual Studio\2019\Community\VC\Tools\MSVC\14.29.30133\atlmfc\include\atltypes.h
; File D:\git\src\IBK\IBK_DRFN\ProjSrc\SrcDrfn\Chart\MULTICHART\control\GfxOutBarCtrl.cpp
; File C:\Program Files (x86)\Microsoft Visual Studio\2019\Community\VC\Tools\MSVC\14.29.30133\atlmfc\include\atltypes.h
; File D:\git\src\IBK\IBK_DRFN\ProjSrc\SrcDrfn\Chart\MULTICHART\control\GfxOutBarCtrl.cpp
; File C:\Program Files (x86)\Microsoft Visual Studio\2019\Community\VC\Tools\MSVC\14.29.30133\atlmfc\include\atltypes.h
; File D:\git\src\IBK\IBK_DRFN\ProjSrc\SrcDrfn\Chart\MULTICHART\control\GfxOutBarCtrl.cpp
; File C:\Program Files (x86)\Microsoft Visual Studio\2019\Community\VC\Tools\MSVC\14.29.30133\atlmfc\include\atltypes.h
; File D:\git\src\IBK\IBK_DRFN\ProjSrc\SrcDrfn\Chart\MULTICHART\control\GfxOutBarCtrl.cpp
; File C:\Program Files (x86)\Microsoft Visual Studio\2019\Community\VC\Tools\MSVC\14.29.30133\atlmfc\include\atltypes.h
; File D:\git\src\IBK\IBK_DRFN\ProjSrc\SrcDrfn\Chart\MULTICHART\control\GfxOutBarCtrl.cpp
; File C:\Program Files (x86)\Microsoft Visual Studio\2019\Community\VC\Tools\MSVC\14.29.30133\atlmfc\include\afxwin1.inl
; File D:\git\src\IBK\IBK_DRFN\ProjSrc\SrcDrfn\Chart\MULTICHART\control\GfxOutBarCtrl.cpp
; File C:\Program Files (x86)\Microsoft Visual Studio\2019\Community\VC\Tools\MSVC\14.29.30133\atlmfc\include\afxwin1.inl
; File D:\git\src\IBK\IBK_DRFN\ProjSrc\SrcDrfn\Chart\MULTICHART\control\GfxOutBarCtrl.cpp
; File C:\Program Files (x86)\Microsoft Visual Studio\2019\Community\VC\Tools\MSVC\14.29.30133\atlmfc\include\afxcoll.inl
; File D:\git\src\IBK\IBK_DRFN\ProjSrc\SrcDrfn\Chart\MULTICHART\control\GfxOutBarCtrl.cpp
; File C:\Program Files (x86)\Microsoft Visual Studio\2019\Community\VC\Tools\MSVC\14.29.30133\atlmfc\include\afxwin1.inl
; File D:\git\src\IBK\IBK_DRFN\ProjSrc\SrcDrfn\Chart\MULTICHART\control\GfxOutBarCtrl.cpp
; File C:\Program Files (x86)\Microsoft Visual Studio\2019\Community\VC\Tools\MSVC\14.29.30133\atlmfc\include\afxwin1.inl
; File D:\git\src\IBK\IBK_DRFN\ProjSrc\SrcDrfn\Chart\MULTICHART\control\GfxOutBarCtrl.cpp
; File C:\Program Files (x86)\Microsoft Visual Studio\2019\Community\VC\Tools\MSVC\14.29.30133\atlmfc\include\atltypes.h
; File C:\Program Files (x86)\Microsoft Visual Studio\2019\Community\VC\Tools\MSVC\14.29.30133\atlmfc\include\afxwin1.inl
; File D:\git\src\IBK\IBK_DRFN\ProjSrc\SrcDrfn\Chart\MULTICHART\control\GfxOutBarCtrl.cpp
; File C:\Program Files (x86)\Microsoft Visual Studio\2019\Community\VC\Tools\MSVC\14.29.30133\atlmfc\include\afxwin1.inl
; File D:\git\src\IBK\IBK_DRFN\ProjSrc\SrcDrfn\Chart\MULTICHART\control\GfxOutBarCtrl.cpp
; File C:\Program Files (x86)\Microsoft Visual Studio\2019\Community\VC\Tools\MSVC\14.29.30133\atlmfc\include\afxcoll.inl
; File D:\git\src\IBK\IBK_DRFN\ProjSrc\SrcDrfn\Chart\MULTICHART\control\GfxOutBarCtrl.cpp
;	COMDAT ?OnPaint@CGfxOutBarCtrl@@IAEXXZ
_TEXT	SEGMENT
_obmp$1$ = -184						; size = 4
_bmp$ = -180						; size = 8
_l$2 = -172						; size = 4
_memDC$ = -168						; size = 16
$T3 = -152						; size = 4
_f$4 = -152						; size = 4
_dc$ = -148						; size = 84
_frc$ = -64						; size = 16
_clientRc$ = -48					; size = 16
_rc$ = -32						; size = 16
__$ArrayPad$ = -16					; size = 4
__$EHRec$ = -12						; size = 12
?OnPaint@CGfxOutBarCtrl@@IAEXXZ PROC			; CGfxOutBarCtrl::OnPaint, COMDAT
; _this$ = ecx

; 362  : {

  00000	55		 push	 ebp
  00001	8b ec		 mov	 ebp, esp
  00003	6a ff		 push	 -1
  00005	68 00 00 00 00	 push	 __ehhandler$?OnPaint@CGfxOutBarCtrl@@IAEXXZ
  0000a	64 a1 00 00 00
	00		 mov	 eax, DWORD PTR fs:0
  00010	50		 push	 eax
  00011	81 ec ac 00 00
	00		 sub	 esp, 172		; 000000acH
  00017	a1 00 00 00 00	 mov	 eax, DWORD PTR ___security_cookie
  0001c	33 c5		 xor	 eax, ebp
  0001e	89 45 f0	 mov	 DWORD PTR __$ArrayPad$[ebp], eax
  00021	56		 push	 esi
  00022	57		 push	 edi
  00023	50		 push	 eax
  00024	8d 45 f4	 lea	 eax, DWORD PTR __$EHRec$[ebp]
  00027	64 a3 00 00 00
	00		 mov	 DWORD PTR fs:0, eax
  0002d	8b f1		 mov	 esi, ecx
; File C:\Program Files (x86)\Microsoft Visual Studio\2019\Community\VC\Tools\MSVC\14.29.30133\atlmfc\include\afxwin2.inl

; 86   : 	{ ASSERT(::IsWindow(m_hWnd)); ::GetClientRect(m_hWnd, lpRect); }

  0002f	8d 45 d0	 lea	 eax, DWORD PTR _clientRc$[ebp]
  00032	0f 57 c0	 xorps	 xmm0, xmm0
  00035	50		 push	 eax
  00036	ff 76 20	 push	 DWORD PTR [esi+32]
; File C:\Program Files (x86)\Microsoft Visual Studio\2019\Community\VC\Tools\MSVC\14.29.30133\atlmfc\include\atltypes.h

; 528  : 	left = 0;

  00039	0f 11 45 d0	 movups	 XMMWORD PTR _clientRc$[ebp], xmm0
; File C:\Program Files (x86)\Microsoft Visual Studio\2019\Community\VC\Tools\MSVC\14.29.30133\atlmfc\include\afxwin2.inl

; 86   : 	{ ASSERT(::IsWindow(m_hWnd)); ::GetClientRect(m_hWnd, lpRect); }

  0003d	ff 15 00 00 00
	00		 call	 DWORD PTR __imp__GetClientRect@8
; File D:\git\src\IBK\IBK_DRFN\ProjSrc\SrcDrfn\Chart\MULTICHART\control\GfxOutBarCtrl.cpp

; 365  : 	CPaintDC dc(this);

  00043	56		 push	 esi
  00044	8d 8d 6c ff ff
	ff		 lea	 ecx, DWORD PTR _dc$[ebp]
  0004a	e8 00 00 00 00	 call	 ??0CPaintDC@@QAE@PAVCWnd@@@Z ; CPaintDC::CPaintDC

; 366  : 	CDC memDC;

  0004f	8d 8d 58 ff ff
	ff		 lea	 ecx, DWORD PTR _memDC$[ebp]
  00055	c7 45 fc 00 00
	00 00		 mov	 DWORD PTR __$EHRec$[ebp+8], 0
  0005c	e8 00 00 00 00	 call	 ??0CDC@@QAE@XZ		; CDC::CDC
; File C:\Program Files (x86)\Microsoft Visual Studio\2019\Community\VC\Tools\MSVC\14.29.30133\atlmfc\include\afxwin1.inl

; 330  : 	{ return Attach(::CreateCompatibleDC(pDC->GetSafeHdc())); }

  00061	ff b5 70 ff ff
	ff		 push	 DWORD PTR _dc$[ebp+4]
; File D:\git\src\IBK\IBK_DRFN\ProjSrc\SrcDrfn\Chart\MULTICHART\control\GfxOutBarCtrl.cpp

; 366  : 	CDC memDC;

  00067	c6 45 fc 01	 mov	 BYTE PTR __$EHRec$[ebp+8], 1
; File C:\Program Files (x86)\Microsoft Visual Studio\2019\Community\VC\Tools\MSVC\14.29.30133\atlmfc\include\afxwin1.inl

; 330  : 	{ return Attach(::CreateCompatibleDC(pDC->GetSafeHdc())); }

  0006b	ff 15 00 00 00
	00		 call	 DWORD PTR __imp__CreateCompatibleDC@4
  00071	50		 push	 eax
  00072	8d 8d 58 ff ff
	ff		 lea	 ecx, DWORD PTR _memDC$[ebp]
  00078	e8 00 00 00 00	 call	 ?Attach@CDC@@QAEHPAUHDC__@@@Z ; CDC::Attach

; 70   : 	{ m_hObject = NULL; }

  0007d	c7 85 50 ff ff
	ff 00 00 00 00	 mov	 DWORD PTR _bmp$[ebp+4], 0

; 177  : 	{ }

  00087	c7 85 4c ff ff
	ff 00 00 00 00	 mov	 DWORD PTR _bmp$[ebp], OFFSET ??_7CBitmap@@6B@
; File C:\Program Files (x86)\Microsoft Visual Studio\2019\Community\VC\Tools\MSVC\14.29.30133\atlmfc\include\atltypes.h

; 581  : 	return bottom - top;

  00091	8b 4d dc	 mov	 ecx, DWORD PTR _clientRc$[ebp+12]
  00094	2b 4d d4	 sub	 ecx, DWORD PTR _clientRc$[ebp+4]

; 576  : 	return right - left;

  00097	8b 45 d8	 mov	 eax, DWORD PTR _clientRc$[ebp+8]
  0009a	2b 45 d0	 sub	 eax, DWORD PTR _clientRc$[ebp]
; File C:\Program Files (x86)\Microsoft Visual Studio\2019\Community\VC\Tools\MSVC\14.29.30133\atlmfc\include\afxwin1.inl

; 217  : 	{ return Attach(::CreateCompatibleBitmap(pDC->m_hDC, nWidth, nHeight)); }

  0009d	51		 push	 ecx
  0009e	50		 push	 eax
  0009f	ff b5 70 ff ff
	ff		 push	 DWORD PTR _dc$[ebp+4]
; File D:\git\src\IBK\IBK_DRFN\ProjSrc\SrcDrfn\Chart\MULTICHART\control\GfxOutBarCtrl.cpp

; 368  : 	CBitmap bmp;

  000a5	c6 45 fc 02	 mov	 BYTE PTR __$EHRec$[ebp+8], 2
; File C:\Program Files (x86)\Microsoft Visual Studio\2019\Community\VC\Tools\MSVC\14.29.30133\atlmfc\include\afxwin1.inl

; 217  : 	{ return Attach(::CreateCompatibleBitmap(pDC->m_hDC, nWidth, nHeight)); }

  000a9	ff 15 00 00 00
	00		 call	 DWORD PTR __imp__CreateCompatibleBitmap@12
  000af	50		 push	 eax
  000b0	8d 8d 4c ff ff
	ff		 lea	 ecx, DWORD PTR _bmp$[ebp]
  000b6	e8 00 00 00 00	 call	 ?Attach@CGdiObject@@QAEHPAX@Z ; CGdiObject::Attach

; 361  : 	{ ASSERT(m_hDC != NULL); return (CBitmap*) SelectGdiObject(m_hDC, pBitmap->GetSafeHandle()); }

  000bb	ff b5 50 ff ff
	ff		 push	 DWORD PTR _bmp$[ebp+4]
  000c1	ff b5 5c ff ff
	ff		 push	 DWORD PTR _memDC$[ebp+4]
  000c7	e8 00 00 00 00	 call	 ?SelectGdiObject@CDC@@KGPAVCGdiObject@@PAUHDC__@@PAX@Z ; CDC::SelectGdiObject
; File D:\git\src\IBK\IBK_DRFN\ProjSrc\SrcDrfn\Chart\MULTICHART\control\GfxOutBarCtrl.cpp

; 370  : 	CBitmap * obmp = memDC.SelectObject(&bmp);

  000cc	89 85 48 ff ff
	ff		 mov	 DWORD PTR _obmp$1$[ebp], eax

; 371  : 
; 372  : 	CDC * pDC = &memDC;
; 373  : 
; 374  : 	pDC->FillSolidRect(clientRc, RGB(255,255,255));

  000d2	8d 8d 58 ff ff
	ff		 lea	 ecx, DWORD PTR _memDC$[ebp]
  000d8	68 ff ff ff 00	 push	 16777215		; 00ffffffH
  000dd	8d 45 d0	 lea	 eax, DWORD PTR _clientRc$[ebp]
  000e0	50		 push	 eax
  000e1	e8 00 00 00 00	 call	 ?FillSolidRect@CDC@@QAEXPBUtagRECT@@K@Z ; CDC::FillSolidRect

; 375  : 	pDC->Draw3dRect(clientRc, RGB(120,120,120), RGB(120,120,120));

  000e6	68 78 78 78 00	 push	 7895160			; 00787878H
  000eb	68 78 78 78 00	 push	 7895160			; 00787878H
  000f0	8d 45 d0	 lea	 eax, DWORD PTR _clientRc$[ebp]
  000f3	50		 push	 eax
  000f4	8d 8d 58 ff ff
	ff		 lea	 ecx, DWORD PTR _memDC$[ebp]
  000fa	e8 00 00 00 00	 call	 ?Draw3dRect@CDC@@QAEXPBUtagRECT@@KK@Z ; CDC::Draw3dRect

; 378  : 	GetInsideRect(rc);

  000ff	8d 45 e0	 lea	 eax, DWORD PTR _rc$[ebp]
  00102	0f 57 c0	 xorps	 xmm0, xmm0
  00105	50		 push	 eax
  00106	8b ce		 mov	 ecx, esi
; File C:\Program Files (x86)\Microsoft Visual Studio\2019\Community\VC\Tools\MSVC\14.29.30133\atlmfc\include\atltypes.h

; 528  : 	left = 0;

  00108	0f 11 45 e0	 movups	 XMMWORD PTR _rc$[ebp], xmm0
; File D:\git\src\IBK\IBK_DRFN\ProjSrc\SrcDrfn\Chart\MULTICHART\control\GfxOutBarCtrl.cpp

; 378  : 	GetInsideRect(rc);

  0010c	e8 00 00 00 00	 call	 ?GetInsideRect@CGfxOutBarCtrl@@QBEXAAVCRect@@@Z ; CGfxOutBarCtrl::GetInsideRect

; 379  : 	pDC->FillSolidRect(rc, RGB(255,255,255));

  00111	68 ff ff ff 00	 push	 16777215		; 00ffffffH
  00116	8d 45 e0	 lea	 eax, DWORD PTR _rc$[ebp]
  00119	50		 push	 eax
  0011a	8d 8d 58 ff ff
	ff		 lea	 ecx, DWORD PTR _memDC$[ebp]
  00120	e8 00 00 00 00	 call	 ?FillSolidRect@CDC@@QAEXPBUtagRECT@@K@Z ; CDC::FillSolidRect

; 2455 : 	int nFolderCnt = GetFolderCount();

  00125	8b 8e 0c 01 00
	00		 mov	 ecx, DWORD PTR [esi+268]
  0012b	89 8d 68 ff ff
	ff		 mov	 DWORD PTR $T3[ebp], ecx

; 2456 : 	if (nFolderCnt <= iFolder) return NULL;

  00131	83 f9 ff	 cmp	 ecx, -1
  00134	7e 25		 jle	 SHORT $LN122@OnPaint

; 2457 : 	if (nFolderCnt)

  00136	85 c9		 test	 ecx, ecx
  00138	74 21		 je	 SHORT $LN122@OnPaint

; 2458 : 	{
; 2459 : 		if (iFolder < 0) iFolder = iSelFolder;

  0013a	8b 96 34 01 00
	00		 mov	 edx, DWORD PTR [esi+308]

; 2460 : 		if (nFolderCnt <= iFolder) return NULL;

  00140	3b ca		 cmp	 ecx, edx
  00142	7e 17		 jle	 SHORT $LN122@OnPaint
; File C:\Program Files (x86)\Microsoft Visual Studio\2019\Community\VC\Tools\MSVC\14.29.30133\atlmfc\include\afxcoll.inl

; 203  : 		if( nIndex < 0 || nIndex >= m_nSize )

  00144	85 d2		 test	 edx, edx
  00146	0f 88 4a 03 00
	00		 js	 $LN90@OnPaint
; File D:\git\src\IBK\IBK_DRFN\ProjSrc\SrcDrfn\Chart\MULTICHART\control\GfxOutBarCtrl.cpp

; 2462 : 		return pbf->pChild;

  0014c	8b 86 08 01 00
	00		 mov	 eax, DWORD PTR [esi+264]
  00152	8b 04 90	 mov	 eax, DWORD PTR [eax+edx*4]

; 380  : 	if (!GetFolderChild()) pDC->FillSolidRect(rc, crBackGroundColor);

  00155	83 78 28 00	 cmp	 DWORD PTR [eax+40], 0
  00159	75 21		 jne	 SHORT $LN5@OnPaint
$LN122@OnPaint:
  0015b	ff b6 80 00 00
	00		 push	 DWORD PTR [esi+128]
  00161	8d 45 e0	 lea	 eax, DWORD PTR _rc$[ebp]
  00164	50		 push	 eax
  00165	8d 8d 58 ff ff
	ff		 lea	 ecx, DWORD PTR _memDC$[ebp]
  0016b	e8 00 00 00 00	 call	 ?FillSolidRect@CDC@@QAEXPBUtagRECT@@K@Z ; CDC::FillSolidRect
  00170	8b 8e 0c 01 00
	00		 mov	 ecx, DWORD PTR [esi+268]
  00176	89 8d 68 ff ff
	ff		 mov	 DWORD PTR $T3[ebp], ecx
$LN5@OnPaint:

; 381  : 
; 382  : 	int max = arFolder.GetSize();

  0017c	0f 57 c0	 xorps	 xmm0, xmm0
  0017f	33 ff		 xor	 edi, edi
  00181	8b c1		 mov	 eax, ecx
; File C:\Program Files (x86)\Microsoft Visual Studio\2019\Community\VC\Tools\MSVC\14.29.30133\atlmfc\include\atltypes.h

; 528  : 	left = 0;

  00183	0f 11 45 c0	 movups	 XMMWORD PTR _frc$[ebp], xmm0
; File D:\git\src\IBK\IBK_DRFN\ProjSrc\SrcDrfn\Chart\MULTICHART\control\GfxOutBarCtrl.cpp

; 385  : 	for (int t = 0; t < max; t++)

  00187	85 c9		 test	 ecx, ecx
  00189	7e 4d		 jle	 SHORT $LN128@OnPaint
  0018b	0f 1f 44 00 00	 npad	 5
$LL4@OnPaint:

; 386  : 	{
; 387  : 		GetFolderRect(t, frc);

  00190	8d 45 c0	 lea	 eax, DWORD PTR _frc$[ebp]
  00193	8b ce		 mov	 ecx, esi
  00195	50		 push	 eax
  00196	57		 push	 edi
  00197	e8 00 00 00 00	 call	 ?GetFolderRect@CGfxOutBarCtrl@@QBE_NHAAVCRect@@@Z ; CGfxOutBarCtrl::GetFolderRect

; 388  : 
; 389  : 		if( t == iSelFolder)

  0019c	8b ce		 mov	 ecx, esi
  0019e	0f 10 45 c0	 movups	 xmm0, XMMWORD PTR _frc$[ebp]
  001a2	3b be 34 01 00
	00		 cmp	 edi, DWORD PTR [esi+308]
  001a8	75 04		 jne	 SHORT $LN6@OnPaint

; 390  : 			DrawFolder(pDC, t, frc, TRUE);

  001aa	6a 01		 push	 1
  001ac	eb 02		 jmp	 SHORT $LN129@OnPaint
$LN6@OnPaint:

; 391  : 		else
; 392  : 			DrawFolder(pDC, t, frc, false);

  001ae	6a 00		 push	 0
$LN129@OnPaint:

; 385  : 	for (int t = 0; t < max; t++)

  001b0	83 ec 10	 sub	 esp, 16			; 00000010H
  001b3	8b c4		 mov	 eax, esp
  001b5	57		 push	 edi
  001b6	0f 11 00	 movups	 XMMWORD PTR [eax], xmm0
  001b9	8d 85 58 ff ff
	ff		 lea	 eax, DWORD PTR _memDC$[ebp]
  001bf	50		 push	 eax
  001c0	e8 00 00 00 00	 call	 ?DrawFolder@CGfxOutBarCtrl@@IAEXPAVCDC@@HVCRect@@_N@Z ; CGfxOutBarCtrl::DrawFolder
  001c5	47		 inc	 edi
  001c6	3b bd 68 ff ff
	ff		 cmp	 edi, DWORD PTR $T3[ebp]
  001cc	7c c2		 jl	 SHORT $LL4@OnPaint

; 2459 : 		if (iFolder < 0) iFolder = iSelFolder;

  001ce	8b 8e 0c 01 00
	00		 mov	 ecx, DWORD PTR [esi+268]
  001d4	8b c1		 mov	 eax, ecx

; 393  : 
; 394  : 	}
; 395  : 
; 396  : 	//GetFolderRect(iSelFolder, frc);
; 397  : 	//DrawFolder(pDC, iSelFolder, frc, true);
; 398  : 
; 399  : 	// FolderCount 0  .  
; 400  : 	if (GetFolderCount() && !GetFolderChild())

  001d6	85 c9		 test	 ecx, ecx
$LN128@OnPaint:
  001d8	0f 84 ea 01 00
	00		 je	 $LN8@OnPaint

; 2456 : 	if (nFolderCnt <= iFolder) return NULL;

  001de	8b 96 34 01 00
	00		 mov	 edx, DWORD PTR [esi+308]
  001e4	83 f9 ff	 cmp	 ecx, -1
  001e7	7e 27		 jle	 SHORT $LN124@OnPaint

; 2460 : 		if (nFolderCnt <= iFolder) return NULL;

  001e9	3b ca		 cmp	 ecx, edx
  001eb	7e 23		 jle	 SHORT $LN124@OnPaint
; File C:\Program Files (x86)\Microsoft Visual Studio\2019\Community\VC\Tools\MSVC\14.29.30133\atlmfc\include\afxcoll.inl

; 203  : 		if( nIndex < 0 || nIndex >= m_nSize )

  001ed	85 d2		 test	 edx, edx
  001ef	0f 88 a1 02 00
	00		 js	 $LN90@OnPaint
  001f5	3b d0		 cmp	 edx, eax
  001f7	0f 8d 99 02 00
	00		 jge	 $LN90@OnPaint
; File D:\git\src\IBK\IBK_DRFN\ProjSrc\SrcDrfn\Chart\MULTICHART\control\GfxOutBarCtrl.cpp

; 2462 : 		return pbf->pChild;

  001fd	8b 86 08 01 00
	00		 mov	 eax, DWORD PTR [esi+264]
  00203	8b 04 90	 mov	 eax, DWORD PTR [eax+edx*4]

; 393  : 
; 394  : 	}
; 395  : 
; 396  : 	//GetFolderRect(iSelFolder, frc);
; 397  : 	//DrawFolder(pDC, iSelFolder, frc, true);
; 398  : 
; 399  : 	// FolderCount 0  .  
; 400  : 	if (GetFolderCount() && !GetFolderChild())

  00206	83 78 28 00	 cmp	 DWORD PTR [eax+40], 0
  0020a	0f 85 b8 01 00
	00		 jne	 $LN8@OnPaint
$LN124@OnPaint:

; 401  : 	{
; 402  : 		int f=0,l=0;
; 403  : 		GetVisibleRange(iSelFolder, f,l);

  00210	8d 85 54 ff ff
	ff		 lea	 eax, DWORD PTR _l$2[ebp]
  00216	c7 85 68 ff ff
	ff 00 00 00 00	 mov	 DWORD PTR _f$4[ebp], 0
  00220	50		 push	 eax
  00221	8d 85 68 ff ff
	ff		 lea	 eax, DWORD PTR _f$4[ebp]
  00227	c7 85 54 ff ff
	ff 00 00 00 00	 mov	 DWORD PTR _l$2[ebp], 0
  00231	50		 push	 eax
  00232	52		 push	 edx
  00233	8b ce		 mov	 ecx, esi
  00235	e8 00 00 00 00	 call	 ?GetVisibleRange@CGfxOutBarCtrl@@QAEXHAAH0@Z ; CGfxOutBarCtrl::GetVisibleRange

; 404  : 		rcUpArrow.SetRect(0,0,GetSystemMetrics(SM_CXVSCROLL), GetSystemMetrics(SM_CXVSCROLL));

  0023a	6a 02		 push	 2
  0023c	ff 15 00 00 00
	00		 call	 DWORD PTR __imp__GetSystemMetrics@4
  00242	6a 02		 push	 2
  00244	8b f8		 mov	 edi, eax
  00246	ff 15 00 00 00
	00		 call	 DWORD PTR __imp__GetSystemMetrics@4
; File C:\Program Files (x86)\Microsoft Visual Studio\2019\Community\VC\Tools\MSVC\14.29.30133\atlmfc\include\atltypes.h

; 657  : 	::SetRect(this, x1, y1, x2, y2);

  0024c	57		 push	 edi
  0024d	50		 push	 eax
  0024e	6a 00		 push	 0
; File D:\git\src\IBK\IBK_DRFN\ProjSrc\SrcDrfn\Chart\MULTICHART\control\GfxOutBarCtrl.cpp

; 404  : 		rcUpArrow.SetRect(0,0,GetSystemMetrics(SM_CXVSCROLL), GetSystemMetrics(SM_CXVSCROLL));

  00250	8d 8e c4 00 00
	00		 lea	 ecx, DWORD PTR [esi+196]
; File C:\Program Files (x86)\Microsoft Visual Studio\2019\Community\VC\Tools\MSVC\14.29.30133\atlmfc\include\atltypes.h

; 657  : 	::SetRect(this, x1, y1, x2, y2);

  00256	6a 00		 push	 0
  00258	51		 push	 ecx
  00259	ff 15 00 00 00
	00		 call	 DWORD PTR __imp__SetRect@20
; File D:\git\src\IBK\IBK_DRFN\ProjSrc\SrcDrfn\Chart\MULTICHART\control\GfxOutBarCtrl.cpp

; 405  : 		rcDownArrow = rcUpArrow;

  0025f	0f 10 86 c4 00
	00 00		 movups	 xmm0, XMMWORD PTR [esi+196]

; 406  : 		rcUpArrow.OffsetRect(rc.right - 5 - GetSystemMetrics(SM_CXVSCROLL), rc.top +5);

  00266	8b 7d e4	 mov	 edi, DWORD PTR _rc$[ebp+4]
  00269	6a 02		 push	 2
  0026b	0f 11 86 d4 00
	00 00		 movups	 XMMWORD PTR [esi+212], xmm0
  00272	83 c7 05	 add	 edi, 5
  00275	ff 15 00 00 00
	00		 call	 DWORD PTR __imp__GetSystemMetrics@4
  0027b	8b 4d e8	 mov	 ecx, DWORD PTR _rc$[ebp+8]
  0027e	2b c8		 sub	 ecx, eax
; File C:\Program Files (x86)\Microsoft Visual Studio\2019\Community\VC\Tools\MSVC\14.29.30133\atlmfc\include\atltypes.h

; 710  : 	::OffsetRect(this, x, y);

  00280	8d 86 c4 00 00
	00		 lea	 eax, DWORD PTR [esi+196]
  00286	57		 push	 edi
; File D:\git\src\IBK\IBK_DRFN\ProjSrc\SrcDrfn\Chart\MULTICHART\control\GfxOutBarCtrl.cpp

; 406  : 		rcUpArrow.OffsetRect(rc.right - 5 - GetSystemMetrics(SM_CXVSCROLL), rc.top +5);

  00287	83 e9 05	 sub	 ecx, 5
; File C:\Program Files (x86)\Microsoft Visual Studio\2019\Community\VC\Tools\MSVC\14.29.30133\atlmfc\include\atltypes.h

; 710  : 	::OffsetRect(this, x, y);

  0028a	51		 push	 ecx
  0028b	50		 push	 eax
  0028c	ff 15 00 00 00
	00		 call	 DWORD PTR __imp__OffsetRect@12
; File D:\git\src\IBK\IBK_DRFN\ProjSrc\SrcDrfn\Chart\MULTICHART\control\GfxOutBarCtrl.cpp

; 407  : 		rcDownArrow.OffsetRect(rc.right - 5 - GetSystemMetrics(SM_CXVSCROLL), rc.bottom - 5 - GetSystemMetrics(SM_CXVSCROLL));

  00292	6a 02		 push	 2
  00294	ff 15 00 00 00
	00		 call	 DWORD PTR __imp__GetSystemMetrics@4
  0029a	8b 7d ec	 mov	 edi, DWORD PTR _rc$[ebp+12]
  0029d	2b f8		 sub	 edi, eax
  0029f	6a 02		 push	 2
  002a1	83 ef 05	 sub	 edi, 5
  002a4	ff 15 00 00 00
	00		 call	 DWORD PTR __imp__GetSystemMetrics@4
  002aa	8b 4d e8	 mov	 ecx, DWORD PTR _rc$[ebp+8]
  002ad	2b c8		 sub	 ecx, eax
; File C:\Program Files (x86)\Microsoft Visual Studio\2019\Community\VC\Tools\MSVC\14.29.30133\atlmfc\include\atltypes.h

; 710  : 	::OffsetRect(this, x, y);

  002af	8d 86 d4 00 00
	00		 lea	 eax, DWORD PTR [esi+212]
  002b5	57		 push	 edi
; File D:\git\src\IBK\IBK_DRFN\ProjSrc\SrcDrfn\Chart\MULTICHART\control\GfxOutBarCtrl.cpp

; 407  : 		rcDownArrow.OffsetRect(rc.right - 5 - GetSystemMetrics(SM_CXVSCROLL), rc.bottom - 5 - GetSystemMetrics(SM_CXVSCROLL));

  002b6	83 e9 05	 sub	 ecx, 5
; File C:\Program Files (x86)\Microsoft Visual Studio\2019\Community\VC\Tools\MSVC\14.29.30133\atlmfc\include\atltypes.h

; 710  : 	::OffsetRect(this, x, y);

  002b9	51		 push	 ecx
  002ba	50		 push	 eax
  002bb	ff 15 00 00 00
	00		 call	 DWORD PTR __imp__OffsetRect@12
; File D:\git\src\IBK\IBK_DRFN\ProjSrc\SrcDrfn\Chart\MULTICHART\control\GfxOutBarCtrl.cpp

; 409  : 		if (f > 0)

  002c1	83 bd 68 ff ff
	ff 00		 cmp	 DWORD PTR _f$4[ebp], 0
  002c8	8b 3d 00 00 00
	00		 mov	 edi, DWORD PTR __imp__DrawFrameControl@16
  002ce	7e 4d		 jle	 SHORT $LN9@OnPaint

; 411  : 			if (bUpPressed) pDC->DrawFrameControl(rcUpArrow, DFC_SCROLL, DFCS_SCROLLUP|DFCS_PUSHED);

  002d0	80 be c2 00 00
	00 00		 cmp	 BYTE PTR [esi+194], 0
  002d7	8d 86 c4 00 00
	00		 lea	 eax, DWORD PTR [esi+196]
  002dd	74 07		 je	 SHORT $LN11@OnPaint
; File C:\Program Files (x86)\Microsoft Visual Studio\2019\Community\VC\Tools\MSVC\14.29.30133\atlmfc\include\afxwin1.inl

; 512  : 	{ ASSERT(m_hDC != NULL); return ::DrawFrameControl(m_hDC, lpRect, nType, nState); }

  002df	68 00 02 00 00	 push	 512			; 00000200H
; File D:\git\src\IBK\IBK_DRFN\ProjSrc\SrcDrfn\Chart\MULTICHART\control\GfxOutBarCtrl.cpp

; 411  : 			if (bUpPressed) pDC->DrawFrameControl(rcUpArrow, DFC_SCROLL, DFCS_SCROLLUP|DFCS_PUSHED);

  002e4	eb 02		 jmp	 SHORT $LN130@OnPaint
$LN11@OnPaint:
; File C:\Program Files (x86)\Microsoft Visual Studio\2019\Community\VC\Tools\MSVC\14.29.30133\atlmfc\include\afxwin1.inl

; 512  : 	{ ASSERT(m_hDC != NULL); return ::DrawFrameControl(m_hDC, lpRect, nType, nState); }

  002e6	6a 00		 push	 0
$LN130@OnPaint:
; File D:\git\src\IBK\IBK_DRFN\ProjSrc\SrcDrfn\Chart\MULTICHART\control\GfxOutBarCtrl.cpp

; 413  : 			bUpArrow = true;

  002e8	6a 03		 push	 3
  002ea	50		 push	 eax
  002eb	ff b5 5c ff ff
	ff		 push	 DWORD PTR _memDC$[ebp+4]
  002f1	ff d7		 call	 edi

; 414  : 			pDC->ExcludeClipRect(rcUpArrow);

  002f3	8d 86 c4 00 00
	00		 lea	 eax, DWORD PTR [esi+196]
  002f9	c6 86 c0 00 00
	00 01		 mov	 BYTE PTR [esi+192], 1
  00300	50		 push	 eax
  00301	8d 8d 58 ff ff
	ff		 lea	 ecx, DWORD PTR _memDC$[ebp]
  00307	e8 00 00 00 00	 call	 ?ExcludeClipRect@CDC@@QAEHPBUtagRECT@@@Z ; CDC::ExcludeClipRect

; 415  : 
; 416  : 			rc.top += (iFolderHeight + iGap);

  0030c	8b 86 a4 00 00
	00		 mov	 eax, DWORD PTR [esi+164]
  00312	03 86 a0 00 00
	00		 add	 eax, DWORD PTR [esi+160]
  00318	01 45 e4	 add	 DWORD PTR _rc$[ebp+4], eax

; 417  : 		}

  0031b	eb 07		 jmp	 SHORT $LN10@OnPaint
$LN9@OnPaint:

; 418  : 		else 
; 419  : 			bUpArrow = false;

  0031d	c6 86 c0 00 00
	00 00		 mov	 BYTE PTR [esi+192], 0
$LN10@OnPaint:

; 1502 : 	CBarFolder * pbf = (CBarFolder *) arFolder.GetAt(iSelFolder);

  00324	8b 8e 34 01 00
	00		 mov	 ecx, DWORD PTR [esi+308]
; File C:\Program Files (x86)\Microsoft Visual Studio\2019\Community\VC\Tools\MSVC\14.29.30133\atlmfc\include\afxcoll.inl

; 203  : 		if( nIndex < 0 || nIndex >= m_nSize )

  0032a	85 c9		 test	 ecx, ecx
  0032c	0f 88 64 01 00
	00		 js	 $LN90@OnPaint
  00332	3b 8e 0c 01 00
	00		 cmp	 ecx, DWORD PTR [esi+268]
  00338	0f 8d 58 01 00
	00		 jge	 $LN90@OnPaint
; File D:\git\src\IBK\IBK_DRFN\ProjSrc\SrcDrfn\Chart\MULTICHART\control\GfxOutBarCtrl.cpp

; 421  : 		if (l < GetItemCount() - 1)

  0033e	8b 86 08 01 00
	00		 mov	 eax, DWORD PTR [esi+264]
  00344	8b 04 88	 mov	 eax, DWORD PTR [eax+ecx*4]
  00347	8b 40 1c	 mov	 eax, DWORD PTR [eax+28]
  0034a	48		 dec	 eax
  0034b	39 85 54 ff ff
	ff		 cmp	 DWORD PTR _l$2[ebp], eax
  00351	7d 53		 jge	 SHORT $LN13@OnPaint

; 423  : 			if (bDownPressed) pDC->DrawFrameControl(rcDownArrow, DFC_SCROLL, DFCS_SCROLLDOWN|DFCS_PUSHED);

  00353	80 be c3 00 00
	00 00		 cmp	 BYTE PTR [esi+195], 0
  0035a	8d 86 d4 00 00
	00		 lea	 eax, DWORD PTR [esi+212]
  00360	74 07		 je	 SHORT $LN15@OnPaint
; File C:\Program Files (x86)\Microsoft Visual Studio\2019\Community\VC\Tools\MSVC\14.29.30133\atlmfc\include\afxwin1.inl

; 512  : 	{ ASSERT(m_hDC != NULL); return ::DrawFrameControl(m_hDC, lpRect, nType, nState); }

  00362	68 01 02 00 00	 push	 513			; 00000201H
; File D:\git\src\IBK\IBK_DRFN\ProjSrc\SrcDrfn\Chart\MULTICHART\control\GfxOutBarCtrl.cpp

; 423  : 			if (bDownPressed) pDC->DrawFrameControl(rcDownArrow, DFC_SCROLL, DFCS_SCROLLDOWN|DFCS_PUSHED);

  00367	eb 02		 jmp	 SHORT $LN131@OnPaint
$LN15@OnPaint:
; File C:\Program Files (x86)\Microsoft Visual Studio\2019\Community\VC\Tools\MSVC\14.29.30133\atlmfc\include\afxwin1.inl

; 512  : 	{ ASSERT(m_hDC != NULL); return ::DrawFrameControl(m_hDC, lpRect, nType, nState); }

  00369	6a 01		 push	 1
$LN131@OnPaint:
; File D:\git\src\IBK\IBK_DRFN\ProjSrc\SrcDrfn\Chart\MULTICHART\control\GfxOutBarCtrl.cpp

; 425  : 			bDownArrow = true;

  0036b	6a 03		 push	 3
  0036d	50		 push	 eax
  0036e	ff b5 5c ff ff
	ff		 push	 DWORD PTR _memDC$[ebp+4]
  00374	ff d7		 call	 edi

; 426  : 			pDC->ExcludeClipRect(rcDownArrow);

  00376	8d 86 d4 00 00
	00		 lea	 eax, DWORD PTR [esi+212]
  0037c	c6 86 c1 00 00
	00 01		 mov	 BYTE PTR [esi+193], 1
  00383	50		 push	 eax
  00384	8d 8d 58 ff ff
	ff		 lea	 ecx, DWORD PTR _memDC$[ebp]
  0038a	e8 00 00 00 00	 call	 ?ExcludeClipRect@CDC@@QAEHPBUtagRECT@@@Z ; CDC::ExcludeClipRect

; 427  : 
; 428  : 			rc.bottom -= (iFolderHeight + iGap);

  0038f	8b 86 a4 00 00
	00		 mov	 eax, DWORD PTR [esi+164]
  00395	03 86 a0 00 00
	00		 add	 eax, DWORD PTR [esi+160]
  0039b	29 45 ec	 sub	 DWORD PTR _rc$[ebp+12], eax
  0039e	8b 8e 34 01 00
	00		 mov	 ecx, DWORD PTR [esi+308]

; 429  : 		}

  003a4	eb 07		 jmp	 SHORT $LN14@OnPaint
$LN13@OnPaint:

; 430  : 		else bDownArrow = false;

  003a6	c6 86 c1 00 00
	00 00		 mov	 BYTE PTR [esi+193], 0
$LN14@OnPaint:

; 431  : 
; 432  : 		PaintItems(pDC, iSelFolder, rc);

  003ad	0f 10 45 e0	 movups	 xmm0, XMMWORD PTR _rc$[ebp]
  003b1	83 ec 10	 sub	 esp, 16			; 00000010H
  003b4	8b c4		 mov	 eax, esp
  003b6	51		 push	 ecx
  003b7	0f 11 00	 movups	 XMMWORD PTR [eax], xmm0
  003ba	8d 85 58 ff ff
	ff		 lea	 eax, DWORD PTR _memDC$[ebp]
  003c0	8b ce		 mov	 ecx, esi
  003c2	50		 push	 eax
  003c3	e8 00 00 00 00	 call	 ?PaintItems@CGfxOutBarCtrl@@QAEXPAVCDC@@HVCRect@@@Z ; CGfxOutBarCtrl::PaintItems
$LN8@OnPaint:
; File C:\Program Files (x86)\Microsoft Visual Studio\2019\Community\VC\Tools\MSVC\14.29.30133\atlmfc\include\atltypes.h

; 581  : 	return bottom - top;

  003c8	8b 55 dc	 mov	 edx, DWORD PTR _clientRc$[ebp+12]
  003cb	8b 7d d4	 mov	 edi, DWORD PTR _clientRc$[ebp+4]
  003ce	2b d7		 sub	 edx, edi

; 576  : 	return right - left;

  003d0	8b 45 d8	 mov	 eax, DWORD PTR _clientRc$[ebp+8]
  003d3	8b 4d d0	 mov	 ecx, DWORD PTR _clientRc$[ebp]
  003d6	2b c1		 sub	 eax, ecx
; File C:\Program Files (x86)\Microsoft Visual Studio\2019\Community\VC\Tools\MSVC\14.29.30133\atlmfc\include\afxwin1.inl

; 552  : 	{ ASSERT(m_hDC != NULL); return ::BitBlt(m_hDC, x, y, nWidth, nHeight,

  003d8	68 20 00 cc 00	 push	 13369376		; 00cc0020H
  003dd	6a 00		 push	 0
  003df	6a 00		 push	 0
  003e1	ff b5 5c ff ff
	ff		 push	 DWORD PTR _memDC$[ebp+4]
  003e7	52		 push	 edx
  003e8	50		 push	 eax
  003e9	57		 push	 edi
  003ea	51		 push	 ecx
  003eb	ff b5 70 ff ff
	ff		 push	 DWORD PTR _dc$[ebp+4]
  003f1	ff 15 00 00 00
	00		 call	 DWORD PTR __imp__BitBlt@36

; 68   : 	{ return this == NULL ? NULL : m_hObject; }

  003f7	8b 85 48 ff ff
	ff		 mov	 eax, DWORD PTR _obmp$1$[ebp]
  003fd	85 c0		 test	 eax, eax
  003ff	74 03		 je	 SHORT $LN112@OnPaint
$LN111@OnPaint:
  00401	8b 40 04	 mov	 eax, DWORD PTR [eax+4]
$LN112@OnPaint:

; 361  : 	{ ASSERT(m_hDC != NULL); return (CBitmap*) SelectGdiObject(m_hDC, pBitmap->GetSafeHandle()); }

  00404	50		 push	 eax
  00405	ff b5 5c ff ff
	ff		 push	 DWORD PTR _memDC$[ebp+4]
  0040b	e8 00 00 00 00	 call	 ?SelectGdiObject@CDC@@KGPAVCGdiObject@@PAUHDC__@@PAX@Z ; CDC::SelectGdiObject
; File D:\git\src\IBK\IBK_DRFN\ProjSrc\SrcDrfn\Chart\MULTICHART\control\GfxOutBarCtrl.cpp

; 439  : 	if (iLastFolderHighlighted >= 0)

  00410	8b 86 18 01 00
	00		 mov	 eax, DWORD PTR [esi+280]
  00416	85 c0		 test	 eax, eax
  00418	78 12		 js	 SHORT $LN17@OnPaint

; 440  : 	{
; 441  : 		int i = iLastFolderHighlighted;
; 442  : 		iLastFolderHighlighted = -1;
; 443  : 		HighlightFolder(i);

  0041a	50		 push	 eax
  0041b	8b ce		 mov	 ecx, esi
  0041d	c7 86 18 01 00
	00 ff ff ff ff	 mov	 DWORD PTR [esi+280], -1
  00427	e8 00 00 00 00	 call	 ?HighlightFolder@CGfxOutBarCtrl@@QAEXH@Z ; CGfxOutBarCtrl::HighlightFolder
$LN17@OnPaint:

; 444  : 	}
; 445  : 	if (iLastItemHighlighted >= 0)

  0042c	8b 8e 24 01 00
	00		 mov	 ecx, DWORD PTR [esi+292]
  00432	85 c9		 test	 ecx, ecx
  00434	78 1a		 js	 SHORT $LN18@OnPaint

; 446  : 	{
; 447  : 		int i = iLastItemHighlighted;
; 448  : 		iLastItemHighlighted = -1;
; 449  : 		HighlightItem(i, bPressedHighlight);

  00436	0f b6 86 28 01
	00 00		 movzx	 eax, BYTE PTR [esi+296]
  0043d	50		 push	 eax
  0043e	51		 push	 ecx
  0043f	8b ce		 mov	 ecx, esi
  00441	c7 86 24 01 00
	00 ff ff ff ff	 mov	 DWORD PTR [esi+292], -1
  0044b	e8 00 00 00 00	 call	 ?HighlightItem@CGfxOutBarCtrl@@QAEXH_N@Z ; CGfxOutBarCtrl::HighlightItem
$LN18@OnPaint:
; File C:\Program Files (x86)\Microsoft Visual Studio\2019\Community\VC\Tools\MSVC\14.29.30133\atlmfc\include\afxwin1.inl

; 179  : 	{ }

  00450	8d 8d 4c ff ff
	ff		 lea	 ecx, DWORD PTR _bmp$[ebp]
  00456	c7 85 4c ff ff
	ff 00 00 00 00	 mov	 DWORD PTR _bmp$[ebp], OFFSET ??_7CBitmap@@6B@
  00460	e8 00 00 00 00	 call	 ??1CGdiObject@@UAE@XZ	; CGdiObject::~CGdiObject
; File D:\git\src\IBK\IBK_DRFN\ProjSrc\SrcDrfn\Chart\MULTICHART\control\GfxOutBarCtrl.cpp

; 451  : }

  00465	8d 8d 58 ff ff
	ff		 lea	 ecx, DWORD PTR _memDC$[ebp]
  0046b	e8 00 00 00 00	 call	 ??1CDC@@UAE@XZ		; CDC::~CDC
  00470	8d 8d 6c ff ff
	ff		 lea	 ecx, DWORD PTR _dc$[ebp]
  00476	e8 00 00 00 00	 call	 ??1CPaintDC@@UAE@XZ	; CPaintDC::~CPaintDC
  0047b	8b 4d f4	 mov	 ecx, DWORD PTR __$EHRec$[ebp]
  0047e	64 89 0d 00 00
	00 00		 mov	 DWORD PTR fs:0, ecx
  00485	59		 pop	 ecx
  00486	5f		 pop	 edi
  00487	5e		 pop	 esi
  00488	8b 4d f0	 mov	 ecx, DWORD PTR __$ArrayPad$[ebp]
  0048b	33 cd		 xor	 ecx, ebp
  0048d	e8 00 00 00 00	 call	 @__security_check_cookie@4
  00492	8b e5		 mov	 esp, ebp
  00494	5d		 pop	 ebp
  00495	c3		 ret	 0
$LN90@OnPaint:
; File C:\Program Files (x86)\Microsoft Visual Studio\2019\Community\VC\Tools\MSVC\14.29.30133\atlmfc\include\afxcoll.inl

; 204  : 			AfxThrowInvalidArgException();

  00496	e8 00 00 00 00	 call	 ?AfxThrowInvalidArgException@@YGXXZ ; AfxThrowInvalidArgException
$LN127@OnPaint:
  0049b	cc		 int	 3
_TEXT	ENDS
;	COMDAT text$x
text$x	SEGMENT
__unwindfunclet$?OnPaint@CGfxOutBarCtrl@@IAEXXZ$0:
  00000	8d 8d 6c ff ff
	ff		 lea	 ecx, DWORD PTR _dc$[ebp]
  00006	e9 00 00 00 00	 jmp	 ??1CPaintDC@@UAE@XZ	; CPaintDC::~CPaintDC
__unwindfunclet$?OnPaint@CGfxOutBarCtrl@@IAEXXZ$1:
  0000b	8d 8d 58 ff ff
	ff		 lea	 ecx, DWORD PTR _memDC$[ebp]
  00011	e9 00 00 00 00	 jmp	 ??1CDC@@UAE@XZ		; CDC::~CDC
__unwindfunclet$?OnPaint@CGfxOutBarCtrl@@IAEXXZ$2:
  00016	8d 8d 4c ff ff
	ff		 lea	 ecx, DWORD PTR _bmp$[ebp]
  0001c	e9 00 00 00 00	 jmp	 ??1CBitmap@@UAE@XZ	; CBitmap::~CBitmap
  00021	cc		 int	 3
  00022	cc		 int	 3
  00023	cc		 int	 3
  00024	cc		 int	 3
  00025	cc		 int	 3
__ehhandler$?OnPaint@CGfxOutBarCtrl@@IAEXXZ:
  00026	90		 npad	 1
  00027	90		 npad	 1
  00028	8b 54 24 08	 mov	 edx, DWORD PTR [esp+8]
  0002c	8d 42 0c	 lea	 eax, DWORD PTR [edx+12]
  0002f	8b 8a 48 ff ff
	ff		 mov	 ecx, DWORD PTR [edx-184]
  00035	33 c8		 xor	 ecx, eax
  00037	e8 00 00 00 00	 call	 @__security_check_cookie@4
  0003c	8b 4a fc	 mov	 ecx, DWORD PTR [edx-4]
  0003f	33 c8		 xor	 ecx, eax
  00041	e8 00 00 00 00	 call	 @__security_check_cookie@4
  00046	b8 00 00 00 00	 mov	 eax, OFFSET __ehfuncinfo$?OnPaint@CGfxOutBarCtrl@@IAEXXZ
  0004b	e9 00 00 00 00	 jmp	 ___CxxFrameHandler3
text$x	ENDS
?OnPaint@CGfxOutBarCtrl@@IAEXXZ ENDP			; CGfxOutBarCtrl::OnPaint
; Function compile flags: /Ogtp
; File D:\git\src\IBK\IBK_DRFN\ProjSrc\SrcDrfn\Chart\MULTICHART\control\GfxOutBarCtrl.cpp
; File C:\Program Files (x86)\Microsoft Visual Studio\2019\Community\VC\Tools\MSVC\14.29.30133\atlmfc\include\atltypes.h
; File C:\Program Files (x86)\Microsoft Visual Studio\2019\Community\VC\Tools\MSVC\14.29.30133\atlmfc\include\afxwin2.inl
; File C:\Program Files (x86)\Microsoft Visual Studio\2019\Community\VC\Tools\MSVC\14.29.30133\atlmfc\include\atltypes.h
; File C:\Program Files (x86)\Microsoft Visual Studio\2019\Community\VC\Tools\MSVC\14.29.30133\atlmfc\include\afxwin2.inl
; File C:\Program Files (x86)\Microsoft Visual Studio\2019\Community\VC\Tools\MSVC\14.29.30133\atlmfc\include\atltypes.h
; File C:\Program Files (x86)\Microsoft Visual Studio\2019\Community\VC\Tools\MSVC\14.29.30133\atlmfc\include\afxwin2.inl
; File C:\Program Files (x86)\Microsoft Visual Studio\2019\Community\VC\Tools\MSVC\14.29.30133\atlmfc\include\atltypes.h
; File D:\git\src\IBK\IBK_DRFN\ProjSrc\SrcDrfn\Chart\MULTICHART\control\GfxOutBarCtrl.cpp
; File C:\Program Files (x86)\Microsoft Visual Studio\2019\Community\VC\Tools\MSVC\14.29.30133\atlmfc\include\afxwin2.inl
; File D:\git\src\IBK\IBK_DRFN\ProjSrc\SrcDrfn\Chart\MULTICHART\control\GfxOutBarCtrl.cpp
; File C:\Program Files (x86)\Microsoft Visual Studio\2019\Community\VC\Tools\MSVC\14.29.30133\atlmfc\include\afxwin2.inl
; File D:\git\src\IBK\IBK_DRFN\ProjSrc\SrcDrfn\Chart\MULTICHART\control\GfxOutBarCtrl.cpp
; File C:\Program Files (x86)\Microsoft Visual Studio\2019\Community\VC\Tools\MSVC\14.29.30133\atlmfc\include\afxwin2.inl
; File D:\git\src\IBK\IBK_DRFN\ProjSrc\SrcDrfn\Chart\MULTICHART\control\GfxOutBarCtrl.cpp
;	COMDAT ?OnTimer@CGfxOutBarCtrl@@IAEXI@Z
_TEXT	SEGMENT
_pt$1 = -28						; size = 8
_rc$2 = -20						; size = 16
__$ArrayPad$ = -4					; size = 4
_nIDEvent$ = 8						; size = 4
?OnTimer@CGfxOutBarCtrl@@IAEXI@Z PROC			; CGfxOutBarCtrl::OnTimer, COMDAT
; _this$ = ecx

; 265  : {

  00000	55		 push	 ebp
  00001	8b ec		 mov	 ebp, esp
  00003	83 ec 1c	 sub	 esp, 28			; 0000001cH
  00006	a1 00 00 00 00	 mov	 eax, DWORD PTR ___security_cookie
  0000b	33 c5		 xor	 eax, ebp
  0000d	89 45 fc	 mov	 DWORD PTR __$ArrayPad$[ebp], eax

; 266  : 	if (nIDEvent == 1)

  00010	8b 45 08	 mov	 eax, DWORD PTR _nIDEvent$[ebp]
  00013	56		 push	 esi
  00014	8b f1		 mov	 esi, ecx
  00016	83 f8 01	 cmp	 eax, 1
  00019	75 70		 jne	 SHORT $LN2@OnTimer

; 267  : 	{
; 268  : 		CPoint pt(GetMessagePos());

  0001b	ff 15 00 00 00
	00		 call	 DWORD PTR __imp__GetMessagePos@0
; File C:\Program Files (x86)\Microsoft Visual Studio\2019\Community\VC\Tools\MSVC\14.29.30133\atlmfc\include\atltypes.h

; 424  : 	x = (short)LOWORD(dwPoint);

  00021	0f bf c8	 movsx	 ecx, ax

; 425  : 	y = (short)HIWORD(dwPoint);

  00024	c1 e8 10	 shr	 eax, 16			; 00000010H
  00027	98		 cwde
  00028	89 45 e8	 mov	 DWORD PTR _pt$1[ebp+4], eax
; File C:\Program Files (x86)\Microsoft Visual Studio\2019\Community\VC\Tools\MSVC\14.29.30133\atlmfc\include\afxwin2.inl

; 94   : 	{ ASSERT(::IsWindow(m_hWnd)); ::ScreenToClient(m_hWnd, lpPoint); }

  0002b	8d 45 e4	 lea	 eax, DWORD PTR _pt$1[ebp]
  0002e	50		 push	 eax
  0002f	ff 76 20	 push	 DWORD PTR [esi+32]
; File C:\Program Files (x86)\Microsoft Visual Studio\2019\Community\VC\Tools\MSVC\14.29.30133\atlmfc\include\atltypes.h

; 424  : 	x = (short)LOWORD(dwPoint);

  00032	89 4d e4	 mov	 DWORD PTR _pt$1[ebp], ecx
; File C:\Program Files (x86)\Microsoft Visual Studio\2019\Community\VC\Tools\MSVC\14.29.30133\atlmfc\include\afxwin2.inl

; 94   : 	{ ASSERT(::IsWindow(m_hWnd)); ::ScreenToClient(m_hWnd, lpPoint); }

  00035	ff 15 00 00 00
	00		 call	 DWORD PTR __imp__ScreenToClient@8

; 86   : 	{ ASSERT(::IsWindow(m_hWnd)); ::GetClientRect(m_hWnd, lpRect); }

  0003b	8d 45 ec	 lea	 eax, DWORD PTR _rc$2[ebp]
  0003e	0f 57 c0	 xorps	 xmm0, xmm0
  00041	50		 push	 eax
  00042	ff 76 20	 push	 DWORD PTR [esi+32]
; File C:\Program Files (x86)\Microsoft Visual Studio\2019\Community\VC\Tools\MSVC\14.29.30133\atlmfc\include\atltypes.h

; 528  : 	left = 0;

  00045	0f 11 45 ec	 movups	 XMMWORD PTR _rc$2[ebp], xmm0
; File C:\Program Files (x86)\Microsoft Visual Studio\2019\Community\VC\Tools\MSVC\14.29.30133\atlmfc\include\afxwin2.inl

; 86   : 	{ ASSERT(::IsWindow(m_hWnd)); ::GetClientRect(m_hWnd, lpRect); }

  00049	ff 15 00 00 00
	00		 call	 DWORD PTR __imp__GetClientRect@8
; File C:\Program Files (x86)\Microsoft Visual Studio\2019\Community\VC\Tools\MSVC\14.29.30133\atlmfc\include\atltypes.h

; 648  : 	return ::PtInRect(this, point);

  0004f	ff 75 e8	 push	 DWORD PTR _pt$1[ebp+4]
  00052	8d 45 ec	 lea	 eax, DWORD PTR _rc$2[ebp]
  00055	ff 75 e4	 push	 DWORD PTR _pt$1[ebp]
  00058	50		 push	 eax
  00059	ff 15 00 00 00
	00		 call	 DWORD PTR __imp__PtInRect@12
; File D:\git\src\IBK\IBK_DRFN\ProjSrc\SrcDrfn\Chart\MULTICHART\control\GfxOutBarCtrl.cpp

; 274  : 		if (!(rc.PtInRect(pt)))

  0005f	85 c0		 test	 eax, eax
  00061	0f 85 bc 00 00
	00		 jne	 $LN10@OnTimer

; 275  : 		{
; 276  : 			HighlightFolder(-1);

  00067	6a ff		 push	 -1
  00069	8b ce		 mov	 ecx, esi
  0006b	e8 00 00 00 00	 call	 ?HighlightFolder@CGfxOutBarCtrl@@QAEXH@Z ; CGfxOutBarCtrl::HighlightFolder

; 277  : 			HighlightItem(-1);

  00070	6a 00		 push	 0
  00072	6a ff		 push	 -1
  00074	8b ce		 mov	 ecx, esi
  00076	e8 00 00 00 00	 call	 ?HighlightItem@CGfxOutBarCtrl@@QAEXH_N@Z ; CGfxOutBarCtrl::HighlightItem
; File C:\Program Files (x86)\Microsoft Visual Studio\2019\Community\VC\Tools\MSVC\14.29.30133\atlmfc\include\afxwin2.inl

; 155  : 	{ ASSERT(::IsWindow(m_hWnd)); return ::KillTimer(m_hWnd, nIDEvent); }

  0007b	6a 01		 push	 1
  0007d	ff 76 20	 push	 DWORD PTR [esi+32]
  00080	ff 15 00 00 00
	00		 call	 DWORD PTR __imp__KillTimer@8
; File D:\git\src\IBK\IBK_DRFN\ProjSrc\SrcDrfn\Chart\MULTICHART\control\GfxOutBarCtrl.cpp

; 280  : 	}

  00086	e9 98 00 00 00	 jmp	 $LN10@OnTimer
$LN2@OnTimer:

; 281  : 	else if (nIDEvent == 3 && iLastSel >= 0)

  0008b	83 f8 03	 cmp	 eax, 3
  0008e	0f 85 8f 00 00
	00		 jne	 $LN10@OnTimer
  00094	8b 8e f4 00 00
	00		 mov	 ecx, DWORD PTR [esi+244]
  0009a	85 c9		 test	 ecx, ecx
  0009c	0f 88 81 00 00
	00		 js	 $LN10@OnTimer

; 282  : 	{
; 283  : 		iSelAnimCount ++;

  000a2	ff 86 fc 00 00
	00		 inc	 DWORD PTR [esi+252]
  000a8	8b 86 fc 00 00
	00		 mov	 eax, DWORD PTR [esi+252]

; 284  : 		if (iSelAnimCount > 10) iSelAnimCount = -1;

  000ae	83 f8 0a	 cmp	 eax, 10			; 0000000aH
  000b1	7e 0c		 jle	 SHORT $LN6@OnTimer
  000b3	c7 86 fc 00 00
	00 ff ff ff ff	 mov	 DWORD PTR [esi+252], -1
  000bd	eb 64		 jmp	 SHORT $LN10@OnTimer
$LN6@OnTimer:

; 285  : 		if (iSelAnimCount == 0)

  000bf	85 c0		 test	 eax, eax
  000c1	75 12		 jne	 SHORT $LN7@OnTimer

; 286  : 			DrawAnimItem(-1, 1, iLastSel);

  000c3	51		 push	 ecx
  000c4	6a 01		 push	 1
  000c6	6a ff		 push	 -1
  000c8	8b ce		 mov	 ecx, esi
  000ca	e8 00 00 00 00	 call	 ?DrawAnimItem@CGfxOutBarCtrl@@QAEXHHH@Z ; CGfxOutBarCtrl::DrawAnimItem
  000cf	8b 86 fc 00 00
	00		 mov	 eax, DWORD PTR [esi+252]
$LN7@OnTimer:

; 287  : 		if (iSelAnimCount == 1)

  000d5	83 f8 01	 cmp	 eax, 1
  000d8	75 17		 jne	 SHORT $LN8@OnTimer

; 288  : 			DrawAnimItem(0, 0, iLastSel);

  000da	ff b6 f4 00 00
	00		 push	 DWORD PTR [esi+244]
  000e0	8b ce		 mov	 ecx, esi
  000e2	6a 00		 push	 0
  000e4	6a 00		 push	 0
  000e6	e8 00 00 00 00	 call	 ?DrawAnimItem@CGfxOutBarCtrl@@QAEXHHH@Z ; CGfxOutBarCtrl::DrawAnimItem
  000eb	8b 86 fc 00 00
	00		 mov	 eax, DWORD PTR [esi+252]
$LN8@OnTimer:

; 289  : 		if (iSelAnimCount == 2)

  000f1	83 f8 02	 cmp	 eax, 2
  000f4	75 17		 jne	 SHORT $LN9@OnTimer

; 290  : 			DrawAnimItem(1, 1, iLastSel);

  000f6	ff b6 f4 00 00
	00		 push	 DWORD PTR [esi+244]
  000fc	8b ce		 mov	 ecx, esi
  000fe	6a 01		 push	 1
  00100	6a 01		 push	 1
  00102	e8 00 00 00 00	 call	 ?DrawAnimItem@CGfxOutBarCtrl@@QAEXHHH@Z ; CGfxOutBarCtrl::DrawAnimItem
  00107	8b 86 fc 00 00
	00		 mov	 eax, DWORD PTR [esi+252]
$LN9@OnTimer:

; 291  : 		if (iSelAnimCount == 3)

  0010d	83 f8 03	 cmp	 eax, 3
  00110	75 11		 jne	 SHORT $LN10@OnTimer

; 292  : 			DrawAnimItem(0, 0, iLastSel);

  00112	ff b6 f4 00 00
	00		 push	 DWORD PTR [esi+244]
  00118	8b ce		 mov	 ecx, esi
  0011a	6a 00		 push	 0
  0011c	6a 00		 push	 0
  0011e	e8 00 00 00 00	 call	 ?DrawAnimItem@CGfxOutBarCtrl@@QAEXHHH@Z ; CGfxOutBarCtrl::DrawAnimItem
$LN10@OnTimer:
; File C:\Program Files (x86)\Microsoft Visual Studio\2019\Community\VC\Tools\MSVC\14.29.30133\atlmfc\include\afxwin2.inl

; 466  : 	{ Default(); }

  00123	8b ce		 mov	 ecx, esi
  00125	e8 00 00 00 00	 call	 ?Default@CWnd@@IAEJXZ	; CWnd::Default
; File D:\git\src\IBK\IBK_DRFN\ProjSrc\SrcDrfn\Chart\MULTICHART\control\GfxOutBarCtrl.cpp

; 295  : }

  0012a	8b 4d fc	 mov	 ecx, DWORD PTR __$ArrayPad$[ebp]
  0012d	33 cd		 xor	 ecx, ebp
; File C:\Program Files (x86)\Microsoft Visual Studio\2019\Community\VC\Tools\MSVC\14.29.30133\atlmfc\include\afxwin2.inl

; 466  : 	{ Default(); }

  0012f	5e		 pop	 esi
; File D:\git\src\IBK\IBK_DRFN\ProjSrc\SrcDrfn\Chart\MULTICHART\control\GfxOutBarCtrl.cpp

; 295  : }

  00130	e8 00 00 00 00	 call	 @__security_check_cookie@4
  00135	8b e5		 mov	 esp, ebp
  00137	5d		 pop	 ebp
  00138	c2 04 00	 ret	 4
?OnTimer@CGfxOutBarCtrl@@IAEXI@Z ENDP			; CGfxOutBarCtrl::OnTimer
_TEXT	ENDS
; Function compile flags: /Ogtp
; File D:\git\src\IBK\IBK_DRFN\ProjSrc\SrcDrfn\Chart\MULTICHART\control\GfxOutBarCtrl.cpp
; File C:\Program Files (x86)\Microsoft Visual Studio\2019\Community\VC\Tools\MSVC\14.29.30133\atlmfc\include\afxwin2.inl
; File D:\git\src\IBK\IBK_DRFN\ProjSrc\SrcDrfn\Chart\MULTICHART\control\GfxOutBarCtrl.cpp
; File C:\Program Files (x86)\Microsoft Visual Studio\2019\Community\VC\Tools\MSVC\14.29.30133\atlmfc\include\afxwin1.inl
; File D:\git\src\IBK\IBK_DRFN\ProjSrc\SrcDrfn\Chart\MULTICHART\control\GfxOutBarCtrl.cpp
; File C:\Program Files (x86)\Microsoft Visual Studio\2019\Community\VC\Tools\MSVC\14.29.30133\atlmfc\include\afxwin1.inl
; File D:\git\src\IBK\IBK_DRFN\ProjSrc\SrcDrfn\Chart\MULTICHART\control\GfxOutBarCtrl.cpp
; File C:\Program Files (x86)\Microsoft Visual Studio\2019\Community\VC\Tools\MSVC\14.29.30133\atlmfc\include\afxwin1.inl
; File D:\git\src\IBK\IBK_DRFN\ProjSrc\SrcDrfn\Chart\MULTICHART\control\GfxOutBarCtrl.cpp
; File C:\Program Files (x86)\Microsoft Visual Studio\2019\Community\VC\Tools\MSVC\14.29.30133\atlmfc\include\afxwin1.inl
; File D:\git\src\IBK\IBK_DRFN\ProjSrc\SrcDrfn\Chart\MULTICHART\control\GfxOutBarCtrl.cpp
;	COMDAT ?OnCreate@CGfxOutBarCtrl@@IAEHPAUtagCREATESTRUCTA@@@Z
_TEXT	SEGMENT
_lfont$ = -64						; size = 60
__$ArrayPad$ = -4					; size = 4
_lpCreateStruct$ = 8					; size = 4
?OnCreate@CGfxOutBarCtrl@@IAEHPAUtagCREATESTRUCTA@@@Z PROC ; CGfxOutBarCtrl::OnCreate, COMDAT
; _this$ = ecx

; 233  : {

  00000	55		 push	 ebp
  00001	8b ec		 mov	 ebp, esp
  00003	83 ec 40	 sub	 esp, 64			; 00000040H
  00006	a1 00 00 00 00	 mov	 eax, DWORD PTR ___security_cookie
  0000b	33 c5		 xor	 eax, ebp
  0000d	89 45 fc	 mov	 DWORD PTR __$ArrayPad$[ebp], eax
  00010	56		 push	 esi
  00011	8b f1		 mov	 esi, ecx
; File C:\Program Files (x86)\Microsoft Visual Studio\2019\Community\VC\Tools\MSVC\14.29.30133\atlmfc\include\afxwin2.inl

; 296  : 	{ return (int)Default(); }

  00013	e8 00 00 00 00	 call	 ?Default@CWnd@@IAEJXZ	; CWnd::Default
; File D:\git\src\IBK\IBK_DRFN\ProjSrc\SrcDrfn\Chart\MULTICHART\control\GfxOutBarCtrl.cpp

; 234  : 	if (CWnd::OnCreate(lpCreateStruct) == -1)

  00018	83 f8 ff	 cmp	 eax, -1
  0001b	74 7d		 je	 SHORT $LN9@OnCreate

; 249  : 	lfont.lfClipPrecision = CLIP_DEFAULT_PRECIS; 
; 250  : 	lfont.lfQuality = DEFAULT_QUALITY;
; 251  : 	lfont.lfPitchAndFamily = FF_ROMAN; 
; 252  : 	strcpy(lfont.lfFaceName, "");

  0001d	a1 00 00 00 00	 mov	 eax, DWORD PTR ??_C@_06MFMMLLPC@?$LB?$LM?$LI?$LC?C?$LM@
  00022	0f 57 c0	 xorps	 xmm0, xmm0
  00025	89 45 dc	 mov	 DWORD PTR _lfont$[ebp+28], eax
  00028	66 a1 04 00 00
	00		 mov	 ax, WORD PTR ??_C@_06MFMMLLPC@?$LB?$LM?$LI?$LC?C?$LM@+4
  0002e	66 89 45 e0	 mov	 WORD PTR _lfont$[ebp+32], ax
  00032	a0 06 00 00 00	 mov	 al, BYTE PTR ??_C@_06MFMMLLPC@?$LB?$LM?$LI?$LC?C?$LM@+6
  00037	88 45 e2	 mov	 BYTE PTR _lfont$[ebp+34], al
; File C:\Program Files (x86)\Microsoft Visual Studio\2019\Community\VC\Tools\MSVC\14.29.30133\atlmfc\include\afxwin1.inl

; 157  : 	{ return Attach(::CreateFontIndirect(lpLogFont)); }

  0003a	8d 45 c0	 lea	 eax, DWORD PTR _lfont$[ebp]
; File D:\git\src\IBK\IBK_DRFN\ProjSrc\SrcDrfn\Chart\MULTICHART\control\GfxOutBarCtrl.cpp

; 239  : 	::memset(&lfont, 0x00, sizeof(LOGFONT));

  0003d	66 0f 13 45 e3	 movlpd	 QWORD PTR _lfont$[ebp+35], xmm0
  00042	66 0f 13 45 eb	 movlpd	 QWORD PTR _lfont$[ebp+43], xmm0
  00047	66 0f 13 45 f3	 movlpd	 QWORD PTR _lfont$[ebp+51], xmm0

; 240  : 	lfont.lfWidth = 0; 

  0004c	0f 28 05 00 00
	00 00		 movaps	 xmm0, XMMWORD PTR __xmm@00000190000000000000000000000000
; File C:\Program Files (x86)\Microsoft Visual Studio\2019\Community\VC\Tools\MSVC\14.29.30133\atlmfc\include\afxwin1.inl

; 157  : 	{ return Attach(::CreateFontIndirect(lpLogFont)); }

  00053	50		 push	 eax
; File D:\git\src\IBK\IBK_DRFN\ProjSrc\SrcDrfn\Chart\MULTICHART\control\GfxOutBarCtrl.cpp

; 239  : 	::memset(&lfont, 0x00, sizeof(LOGFONT));

  00054	c6 45 fb 00	 mov	 BYTE PTR _lfont$[ebp+59], 0

; 240  : 	lfont.lfWidth = 0; 

  00058	0f 11 45 c4	 movups	 XMMWORD PTR _lfont$[ebp+4], xmm0

; 241  : 	lfont.lfEscapement = 0; 
; 242  : 	lfont.lfOrientation = 0; 
; 243  : 	lfont.lfWeight = FW_NORMAL; 
; 244  : 	lfont.lfItalic = 0; 

  0005c	c7 45 d4 00 00
	00 01		 mov	 DWORD PTR _lfont$[ebp+20], 16777216 ; 01000000H

; 245  : 	lfont.lfUnderline = 0; 
; 246  : 	lfont.lfStrikeOut = 0; 
; 247  : 	lfont.lfCharSet = DEFAULT_CHARSET; 
; 248  : 	lfont.lfOutPrecision = OUT_DEFAULT_PRECIS; 

  00063	c7 45 d8 00 00
	00 10		 mov	 DWORD PTR _lfont$[ebp+24], 268435456 ; 10000000H

; 253  : 	lfont.lfHeight = -12;

  0006a	c7 45 c0 f4 ff
	ff ff		 mov	 DWORD PTR _lfont$[ebp], -12 ; fffffff4H
; File C:\Program Files (x86)\Microsoft Visual Studio\2019\Community\VC\Tools\MSVC\14.29.30133\atlmfc\include\afxwin1.inl

; 157  : 	{ return Attach(::CreateFontIndirect(lpLogFont)); }

  00071	ff 15 00 00 00
	00		 call	 DWORD PTR __imp__CreateFontIndirectA@4
  00077	50		 push	 eax
; File D:\git\src\IBK\IBK_DRFN\ProjSrc\SrcDrfn\Chart\MULTICHART\control\GfxOutBarCtrl.cpp

; 255  : 	if(!m_Font.CreateFontIndirect(&lfont))

  00078	8d 8e 54 01 00
	00		 lea	 ecx, DWORD PTR [esi+340]
; File C:\Program Files (x86)\Microsoft Visual Studio\2019\Community\VC\Tools\MSVC\14.29.30133\atlmfc\include\afxwin1.inl

; 157  : 	{ return Attach(::CreateFontIndirect(lpLogFont)); }

  0007e	e8 00 00 00 00	 call	 ?Attach@CGdiObject@@QAEHPAX@Z ; CGdiObject::Attach
; File D:\git\src\IBK\IBK_DRFN\ProjSrc\SrcDrfn\Chart\MULTICHART\control\GfxOutBarCtrl.cpp

; 255  : 	if(!m_Font.CreateFontIndirect(&lfont))

  00083	85 c0		 test	 eax, eax
  00085	74 13		 je	 SHORT $LN9@OnCreate

; 256  : 	{
; 257  : 		TRACE("%s[%d] : Tool Button font  !", __FILE__, __LINE__);
; 258  : 		return -1;
; 259  : 	}
; 260  : 	
; 261  : 	return 0;

  00087	33 c0		 xor	 eax, eax
  00089	5e		 pop	 esi

; 262  : }

  0008a	8b 4d fc	 mov	 ecx, DWORD PTR __$ArrayPad$[ebp]
  0008d	33 cd		 xor	 ecx, ebp
  0008f	e8 00 00 00 00	 call	 @__security_check_cookie@4
  00094	8b e5		 mov	 esp, ebp
  00096	5d		 pop	 ebp
  00097	c2 04 00	 ret	 4
$LN9@OnCreate:
  0009a	8b 4d fc	 mov	 ecx, DWORD PTR __$ArrayPad$[ebp]
  0009d	83 c8 ff	 or	 eax, -1
  000a0	33 cd		 xor	 ecx, ebp
  000a2	5e		 pop	 esi
  000a3	e8 00 00 00 00	 call	 @__security_check_cookie@4
  000a8	8b e5		 mov	 esp, ebp
  000aa	5d		 pop	 ebp
  000ab	c2 04 00	 ret	 4
?OnCreate@CGfxOutBarCtrl@@IAEHPAUtagCREATESTRUCTA@@@Z ENDP ; CGfxOutBarCtrl::OnCreate
_TEXT	ENDS
; Function compile flags: /Ogtp
; File D:\git\src\IBK\IBK_DRFN\ProjSrc\SrcDrfn\Chart\MULTICHART\control\GfxOutBarCtrl.cpp
; File C:\Program Files (x86)\Microsoft Visual Studio\2019\Community\VC\Tools\MSVC\14.29.30133\atlmfc\include\afxcoll.inl
; File D:\git\src\IBK\IBK_DRFN\ProjSrc\SrcDrfn\Chart\MULTICHART\control\GfxOutBarCtrl.cpp
; File C:\Program Files (x86)\Microsoft Visual Studio\2019\Community\VC\Tools\MSVC\14.29.30133\atlmfc\include\afxcoll.inl
; File D:\git\src\IBK\IBK_DRFN\ProjSrc\SrcDrfn\Chart\MULTICHART\control\GfxOutBarCtrl.cpp
; File C:\Program Files (x86)\Microsoft Visual Studio\2019\Community\VC\Tools\MSVC\14.29.30133\atlmfc\include\afxwin1.inl
; File C:\Program Files (x86)\Microsoft Visual Studio\2019\Community\VC\Tools\MSVC\14.29.30133\atlmfc\include\atlsimpstr.h
; File C:\Program Files (x86)\Microsoft Visual Studio\2019\Community\VC\Tools\MSVC\14.29.30133\atlmfc\include\afxwin1.inl
; File D:\git\src\IBK\IBK_DRFN\ProjSrc\SrcDrfn\Chart\MULTICHART\control\GfxOutBarCtrl.cpp
; File C:\Program Files (x86)\Microsoft Visual Studio\2019\Community\VC\Tools\MSVC\14.29.30133\atlmfc\include\afxwin1.inl
; File D:\git\src\IBK\IBK_DRFN\ProjSrc\SrcDrfn\Chart\MULTICHART\control\GfxOutBarCtrl.cpp
; File C:\Program Files (x86)\Microsoft Visual Studio\2019\Community\VC\Tools\MSVC\14.29.30133\atlmfc\include\afxwin1.inl
; File D:\git\src\IBK\IBK_DRFN\ProjSrc\SrcDrfn\Chart\MULTICHART\control\GfxOutBarCtrl.cpp
; File C:\Program Files (x86)\Microsoft Visual Studio\2019\Community\VC\Tools\MSVC\14.29.30133\atlmfc\include\afxwin1.inl
; File D:\git\src\IBK\IBK_DRFN\ProjSrc\SrcDrfn\Chart\MULTICHART\control\GfxOutBarCtrl.cpp
; File C:\Program Files (x86)\Microsoft Visual Studio\2019\Community\VC\Tools\MSVC\14.29.30133\atlmfc\include\atlsimpstr.h
; File C:\Program Files (x86)\Microsoft Visual Studio\2019\Community\VC\Tools\MSVC\14.29.30133\atlmfc\include\afxwin1.inl
; File D:\git\src\IBK\IBK_DRFN\ProjSrc\SrcDrfn\Chart\MULTICHART\control\GfxOutBarCtrl.cpp
; File C:\Program Files (x86)\Microsoft Visual Studio\2019\Community\VC\Tools\MSVC\14.29.30133\atlmfc\include\afxwin1.inl
; File D:\git\src\IBK\IBK_DRFN\ProjSrc\SrcDrfn\Chart\MULTICHART\control\GfxOutBarCtrl.cpp
; File C:\Program Files (x86)\Microsoft Visual Studio\2019\Community\VC\Tools\MSVC\14.29.30133\atlmfc\include\afxwin2.inl
; File C:\Program Files (x86)\Microsoft Visual Studio\2019\Community\VC\Tools\MSVC\14.29.30133\atlmfc\include\atltypes.h
; File C:\Program Files (x86)\Microsoft Visual Studio\2019\Community\VC\Tools\MSVC\14.29.30133\atlmfc\include\afxwin2.inl
; File C:\Program Files (x86)\Microsoft Visual Studio\2019\Community\VC\Tools\MSVC\14.29.30133\atlmfc\include\atltypes.h
; File D:\git\src\IBK\IBK_DRFN\ProjSrc\SrcDrfn\Chart\MULTICHART\control\GfxOutBarCtrl.cpp
; File C:\Program Files (x86)\Microsoft Visual Studio\2019\Community\VC\Tools\MSVC\14.29.30133\atlmfc\include\afxwin1.inl
; File D:\git\src\IBK\IBK_DRFN\ProjSrc\SrcDrfn\Chart\MULTICHART\control\GfxOutBarCtrl.cpp
; File C:\Program Files (x86)\Microsoft Visual Studio\2019\Community\VC\Tools\MSVC\14.29.30133\atlmfc\include\afxwin1.inl
; File D:\git\src\IBK\IBK_DRFN\ProjSrc\SrcDrfn\Chart\MULTICHART\control\GfxOutBarCtrl.cpp
; File C:\Program Files (x86)\Microsoft Visual Studio\2019\Community\VC\Tools\MSVC\14.29.30133\atlmfc\include\afxwin1.inl
; File D:\git\src\IBK\IBK_DRFN\ProjSrc\SrcDrfn\Chart\MULTICHART\control\GfxOutBarCtrl.cpp
; File C:\Program Files (x86)\Microsoft Visual Studio\2019\Community\VC\Tools\MSVC\14.29.30133\atlmfc\include\afxwin1.inl
; File D:\git\src\IBK\IBK_DRFN\ProjSrc\SrcDrfn\Chart\MULTICHART\control\GfxOutBarCtrl.cpp
; File C:\Program Files (x86)\Microsoft Visual Studio\2019\Community\VC\Tools\MSVC\14.29.30133\atlmfc\include\afxwin1.inl
; File D:\git\src\IBK\IBK_DRFN\ProjSrc\SrcDrfn\Chart\MULTICHART\control\GfxOutBarCtrl.cpp
; File C:\Program Files (x86)\Microsoft Visual Studio\2019\Community\VC\Tools\MSVC\14.29.30133\atlmfc\include\atlsimpstr.h
; File C:\Program Files (x86)\Microsoft Visual Studio\2019\Community\VC\Tools\MSVC\14.29.30133\atlmfc\include\afxwin1.inl
; File D:\git\src\IBK\IBK_DRFN\ProjSrc\SrcDrfn\Chart\MULTICHART\control\GfxOutBarCtrl.cpp
; File C:\Program Files (x86)\Microsoft Visual Studio\2019\Community\VC\Tools\MSVC\14.29.30133\atlmfc\include\afxwin1.inl
; File D:\git\src\IBK\IBK_DRFN\ProjSrc\SrcDrfn\Chart\MULTICHART\control\GfxOutBarCtrl.cpp
; File C:\Program Files (x86)\Microsoft Visual Studio\2019\Community\VC\Tools\MSVC\14.29.30133\atlmfc\include\afxwin1.inl
; File D:\git\src\IBK\IBK_DRFN\ProjSrc\SrcDrfn\Chart\MULTICHART\control\GfxOutBarCtrl.cpp
; File C:\Program Files (x86)\Microsoft Visual Studio\2019\Community\VC\Tools\MSVC\14.29.30133\atlmfc\include\afxwin2.inl
; File C:\Program Files (x86)\Microsoft Visual Studio\2019\Community\VC\Tools\MSVC\14.29.30133\atlmfc\include\atltypes.h
; File C:\Program Files (x86)\Microsoft Visual Studio\2019\Community\VC\Tools\MSVC\14.29.30133\atlmfc\include\afxwin2.inl
; File C:\Program Files (x86)\Microsoft Visual Studio\2019\Community\VC\Tools\MSVC\14.29.30133\atlmfc\include\atltypes.h
; File D:\git\src\IBK\IBK_DRFN\ProjSrc\SrcDrfn\Chart\MULTICHART\control\GfxOutBarCtrl.cpp
; File C:\Program Files (x86)\Microsoft Visual Studio\2019\Community\VC\Tools\MSVC\14.29.30133\atlmfc\include\atltypes.h
; File D:\git\src\IBK\IBK_DRFN\ProjSrc\SrcDrfn\Chart\MULTICHART\control\GfxOutBarCtrl.cpp
; File C:\Program Files (x86)\Microsoft Visual Studio\2019\Community\VC\Tools\MSVC\14.29.30133\atlmfc\include\afxwin1.inl
; File C:\Program Files (x86)\Microsoft Visual Studio\2019\Community\VC\Tools\MSVC\14.29.30133\atlmfc\include\atlsimpstr.h
; File C:\Program Files (x86)\Microsoft Visual Studio\2019\Community\VC\Tools\MSVC\14.29.30133\atlmfc\include\afxwin1.inl
; File D:\git\src\IBK\IBK_DRFN\ProjSrc\SrcDrfn\Chart\MULTICHART\control\GfxOutBarCtrl.cpp
; File C:\Program Files (x86)\Microsoft Visual Studio\2019\Community\VC\Tools\MSVC\14.29.30133\atlmfc\include\afxwin1.inl
; File D:\git\src\IBK\IBK_DRFN\ProjSrc\SrcDrfn\Chart\MULTICHART\control\GfxOutBarCtrl.cpp
; File C:\Program Files (x86)\Microsoft Visual Studio\2019\Community\VC\Tools\MSVC\14.29.30133\atlmfc\include\afxwin1.inl
; File C:\Program Files (x86)\Microsoft Visual Studio\2019\Community\VC\Tools\MSVC\14.29.30133\atlmfc\include\afxcoll.inl
; File D:\git\src\IBK\IBK_DRFN\ProjSrc\SrcDrfn\Chart\MULTICHART\control\GfxOutBarCtrl.cpp
;	COMDAT ?DrawFolder@CGfxOutBarCtrl@@IAEXPAVCDC@@HVCRect@@_N@Z
_TEXT	SEGMENT
$T6 = -196						; size = 8
_pn1$7 = -196						; size = 8
_pn1$8 = -188						; size = 8
$T9 = -188						; size = 8
$T10 = -188						; size = 8
_boldfont$11 = -180					; size = 8
_pn1$12 = -180						; size = 8
_iIdx$GSCopy$1$ = -172					; size = 4
$T13 = -172						; size = 4
$T14 = -172						; size = 4
_pbf$1$ = -168						; size = 4
$T15 = -168						; size = 4
$T16 = -168						; size = 4
_this$GSCopy$1$ = -164					; size = 4
_obk$1$ = -164						; size = 4
_pDC$GSCopy$1$ = -160					; size = 4
_obk$1$ = -160						; size = 4
_rc$17 = -156						; size = 16
_rcTemp$18 = -140					; size = 16
_lfont$19 = -124					; size = 60
_rcTemp2$20 = -64					; size = 16
_rcTemp$21 = -48					; size = 16
_rc$22 = -32						; size = 16
_rectOutLine$23 = -32					; size = 16
__$ArrayPad$ = -16					; size = 4
__$EHRec$ = -12						; size = 12
_pDC$ = 8						; size = 4
_iIdx$ = 12						; size = 4
_rect$ = 16						; size = 16
_bSelected$ = 32					; size = 1
?DrawFolder@CGfxOutBarCtrl@@IAEXPAVCDC@@HVCRect@@_N@Z PROC ; CGfxOutBarCtrl::DrawFolder, COMDAT
; _this$ = ecx

; 520  : {

  00000	55		 push	 ebp
  00001	8b ec		 mov	 ebp, esp
  00003	6a ff		 push	 -1
  00005	68 00 00 00 00	 push	 __ehhandler$?DrawFolder@CGfxOutBarCtrl@@IAEXPAVCDC@@HVCRect@@_N@Z
  0000a	64 a1 00 00 00
	00		 mov	 eax, DWORD PTR fs:0
  00010	50		 push	 eax
  00011	81 ec b8 00 00
	00		 sub	 esp, 184		; 000000b8H
  00017	a1 00 00 00 00	 mov	 eax, DWORD PTR ___security_cookie
  0001c	33 c5		 xor	 eax, ebp
  0001e	89 45 f0	 mov	 DWORD PTR __$ArrayPad$[ebp], eax
  00021	56		 push	 esi
  00022	57		 push	 edi
  00023	50		 push	 eax
  00024	8d 45 f4	 lea	 eax, DWORD PTR __$EHRec$[ebp]
  00027	64 a3 00 00 00
	00		 mov	 DWORD PTR fs:0, eax
  0002d	8b f1		 mov	 esi, ecx
  0002f	89 b5 5c ff ff
	ff		 mov	 DWORD PTR _this$GSCopy$1$[ebp], esi
  00035	8b 4d 0c	 mov	 ecx, DWORD PTR _iIdx$[ebp]
  00038	8b 7d 08	 mov	 edi, DWORD PTR _pDC$[ebp]
  0003b	89 bd 60 ff ff
	ff		 mov	 DWORD PTR _pDC$GSCopy$1$[ebp], edi
  00041	89 8d 54 ff ff
	ff		 mov	 DWORD PTR _iIdx$GSCopy$1$[ebp], ecx
; File C:\Program Files (x86)\Microsoft Visual Studio\2019\Community\VC\Tools\MSVC\14.29.30133\atlmfc\include\afxcoll.inl

; 203  : 		if( nIndex < 0 || nIndex >= m_nSize )

  00047	85 c9		 test	 ecx, ecx
  00049	0f 88 3f 07 00
	00		 js	 $LN21@DrawFolder
  0004f	3b 8e 0c 01 00
	00		 cmp	 ecx, DWORD PTR [esi+268]
  00055	0f 8d 33 07 00
	00		 jge	 $LN21@DrawFolder
; File D:\git\src\IBK\IBK_DRFN\ProjSrc\SrcDrfn\Chart\MULTICHART\control\GfxOutBarCtrl.cpp

; 524  : 	if (!bSelected)

  0005b	80 7d 20 00	 cmp	 BYTE PTR _bSelected$[ebp], 0
; File C:\Program Files (x86)\Microsoft Visual Studio\2019\Community\VC\Tools\MSVC\14.29.30133\atlmfc\include\afxcoll.inl

; 205  : 		return m_pData[nIndex]; }

  0005f	8b 86 08 01 00
	00		 mov	 eax, DWORD PTR [esi+264]
  00065	8b 04 88	 mov	 eax, DWORD PTR [eax+ecx*4]
  00068	89 85 58 ff ff
	ff		 mov	 DWORD PTR _pbf$1$[ebp], eax
  0006e	8b 86 5c 01 00
	00		 mov	 eax, DWORD PTR [esi+348]
; File D:\git\src\IBK\IBK_DRFN\ProjSrc\SrcDrfn\Chart\MULTICHART\control\GfxOutBarCtrl.cpp

; 524  : 	if (!bSelected)

  00074	0f 85 54 02 00
	00		 jne	 $LN2@DrawFolder

; 525  : 	{
; 526  : 		if(!m_pFolderImageList)

  0007a	8b 8e 84 00 00
	00		 mov	 ecx, DWORD PTR [esi+132]
  00080	51		 push	 ecx
  00081	85 c0		 test	 eax, eax
  00083	0f 85 43 01 00
	00		 jne	 $LN4@DrawFolder

; 527  : 		{
; 528  : 			CPen pn1(PS_SOLID, 1, crBackGroundColor1);

  00089	6a 01		 push	 1
  0008b	50		 push	 eax
  0008c	8d 8d 4c ff ff
	ff		 lea	 ecx, DWORD PTR _pn1$12[ebp]
  00092	e8 00 00 00 00	 call	 ??0CPen@@QAE@HHK@Z	; CPen::CPen

; 529  : 			CPen * op = pDC->SelectObject(&pn1);

  00097	8d 85 4c ff ff
	ff		 lea	 eax, DWORD PTR _pn1$12[ebp]
  0009d	c7 45 fc 00 00
	00 00		 mov	 DWORD PTR __$EHRec$[ebp+8], 0
  000a4	50		 push	 eax
  000a5	8b cf		 mov	 ecx, edi
  000a7	e8 00 00 00 00	 call	 ?SelectObject@CDC@@QAEPAVCPen@@PAV2@@Z ; CDC::SelectObject

; 530  : 			pDC->MoveTo(rect.left, rect.top);

  000ac	ff 75 14	 push	 DWORD PTR _rect$[ebp+4]
  000af	8b f0		 mov	 esi, eax
  000b1	8b cf		 mov	 ecx, edi
  000b3	ff 75 10	 push	 DWORD PTR _rect$[ebp]
  000b6	8d 85 44 ff ff
	ff		 lea	 eax, DWORD PTR $T10[ebp]
  000bc	50		 push	 eax
  000bd	e8 00 00 00 00	 call	 ?MoveTo@CDC@@QAE?AVCPoint@@HH@Z ; CDC::MoveTo

; 531  : 			pDC->LineTo(rect.right, rect.top);

  000c2	ff 75 14	 push	 DWORD PTR _rect$[ebp+4]
  000c5	8b cf		 mov	 ecx, edi
  000c7	ff 75 18	 push	 DWORD PTR _rect$[ebp+8]
  000ca	e8 00 00 00 00	 call	 ?LineTo@CDC@@QAEHHH@Z	; CDC::LineTo

; 532  : 			pDC->SelectObject(op);

  000cf	56		 push	 esi
  000d0	8b cf		 mov	 ecx, edi
  000d2	e8 00 00 00 00	 call	 ?SelectObject@CDC@@QAEPAVCPen@@PAV2@@Z ; CDC::SelectObject

; 533  : 
; 534  : 			rect.top ++;

  000d7	ff 45 14	 inc	 DWORD PTR _rect$[ebp+4]

; 535  : 			pDC->FillSolidRect(rect, RGB(255,255,255));

  000da	8d 45 10	 lea	 eax, DWORD PTR _rect$[ebp]
  000dd	68 ff ff ff 00	 push	 16777215		; 00ffffffH
  000e2	50		 push	 eax
  000e3	8b cf		 mov	 ecx, edi
  000e5	e8 00 00 00 00	 call	 ?FillSolidRect@CDC@@QAEXPBUtagRECT@@K@Z ; CDC::FillSolidRect

; 536  : 			rect.left +=2;
; 537  : 			rect.top +=2;
; 538  : 			pDC->FillSolidRect(rect, cr3dUnFace);

  000ea	8b b5 5c ff ff
	ff		 mov	 esi, DWORD PTR _this$GSCopy$1$[ebp]
  000f0	8d 45 10	 lea	 eax, DWORD PTR _rect$[ebp]
  000f3	83 45 10 02	 add	 DWORD PTR _rect$[ebp], 2
  000f7	8b cf		 mov	 ecx, edi
  000f9	83 45 14 02	 add	 DWORD PTR _rect$[ebp+4], 2
  000fd	ff b6 94 00 00
	00		 push	 DWORD PTR [esi+148]
  00103	50		 push	 eax
  00104	e8 00 00 00 00	 call	 ?FillSolidRect@CDC@@QAEXPBUtagRECT@@K@Z ; CDC::FillSolidRect

; 539  : 			int obk = pDC->SetBkMode(TRANSPARENT);

  00109	6a 01		 push	 1
  0010b	8b cf		 mov	 ecx, edi
  0010d	e8 00 00 00 00	 call	 ?SetBkMode@CDC@@QAEHH@Z	; CDC::SetBkMode
  00112	8b f8		 mov	 edi, eax

; 540  : //			CFont * of = pDC->SelectObject(CFont::FromHandle((HFONT)GetStockObject(DEFAULT_GUI_FONT)));
; 541  : 			CFont * of = pDC->SelectObject(&m_Font);

  00114	8d 8e 54 01 00
	00		 lea	 ecx, DWORD PTR [esi+340]
  0011a	8b 85 60 ff ff
	ff		 mov	 eax, DWORD PTR _pDC$GSCopy$1$[ebp]
  00120	51		 push	 ecx
  00121	8b c8		 mov	 ecx, eax
  00123	8b 10		 mov	 edx, DWORD PTR [eax]
  00125	8b 52 30	 mov	 edx, DWORD PTR [edx+48]
  00128	ff d2		 call	 edx
  0012a	8b f0		 mov	 esi, eax

; 542  : 			pDC->SetTextColor(CLR_FONT_DEFAULT);

  0012c	8b 85 60 ff ff
	ff		 mov	 eax, DWORD PTR _pDC$GSCopy$1$[ebp]
  00132	68 00 00 01 00	 push	 65536			; 00010000H
  00137	8b c8		 mov	 ecx, eax
  00139	8b 10		 mov	 edx, DWORD PTR [eax]
  0013b	ff 52 38	 call	 DWORD PTR [edx+56]

; 543  : 			pDC->DrawText(CString(pbf->cName), rect, DT_CENTER|DT_VCENTER|DT_SINGLELINE);

  0013e	8b 85 58 ff ff
	ff		 mov	 eax, DWORD PTR _pbf$1$[ebp]
  00144	8d 8d 58 ff ff
	ff		 lea	 ecx, DWORD PTR $T16[ebp]
  0014a	ff 70 04	 push	 DWORD PTR [eax+4]
  0014d	ff 15 00 00 00
	00		 call	 DWORD PTR __imp_??0?$CStringT@DV?$StrTraitMFC_DLL@DV?$ChTraitsCRT@D@ATL@@@@@ATL@@QAE@PBD@Z
; File C:\Program Files (x86)\Microsoft Visual Studio\2019\Community\VC\Tools\MSVC\14.29.30133\atlmfc\include\afxwin1.inl

; 600  : 		return _AFX_FUNCNAME(DrawText)((LPCTSTR)str, (int)str.GetLength(), lpRect, nFormat); }

  00153	8b 8d 60 ff ff
	ff		 mov	 ecx, DWORD PTR _pDC$GSCopy$1$[ebp]
; File C:\Program Files (x86)\Microsoft Visual Studio\2019\Community\VC\Tools\MSVC\14.29.30133\atlmfc\include\atlsimpstr.h

; 519  : 		return( GetData()->nDataLength );

  00159	8b 00		 mov	 eax, DWORD PTR [eax]
; File C:\Program Files (x86)\Microsoft Visual Studio\2019\Community\VC\Tools\MSVC\14.29.30133\atlmfc\include\afxwin1.inl

; 600  : 		return _AFX_FUNCNAME(DrawText)((LPCTSTR)str, (int)str.GetLength(), lpRect, nFormat); }

  0015b	6a 25		 push	 37			; 00000025H
; File D:\git\src\IBK\IBK_DRFN\ProjSrc\SrcDrfn\Chart\MULTICHART\control\GfxOutBarCtrl.cpp

; 543  : 			pDC->DrawText(CString(pbf->cName), rect, DT_CENTER|DT_VCENTER|DT_SINGLELINE);

  0015d	c6 45 fc 01	 mov	 BYTE PTR __$EHRec$[ebp+8], 1
; File C:\Program Files (x86)\Microsoft Visual Studio\2019\Community\VC\Tools\MSVC\14.29.30133\atlmfc\include\afxwin1.inl

; 600  : 		return _AFX_FUNCNAME(DrawText)((LPCTSTR)str, (int)str.GetLength(), lpRect, nFormat); }

  00161	8b 11		 mov	 edx, DWORD PTR [ecx]
  00163	8d 4d 10	 lea	 ecx, DWORD PTR _rect$[ebp]
  00166	51		 push	 ecx
  00167	ff 70 f4	 push	 DWORD PTR [eax-12]
  0016a	8b 8d 60 ff ff
	ff		 mov	 ecx, DWORD PTR _pDC$GSCopy$1$[ebp]
  00170	50		 push	 eax
  00171	ff 52 70	 call	 DWORD PTR [edx+112]
; File D:\git\src\IBK\IBK_DRFN\ProjSrc\SrcDrfn\Chart\MULTICHART\control\GfxOutBarCtrl.cpp

; 543  : 			pDC->DrawText(CString(pbf->cName), rect, DT_CENTER|DT_VCENTER|DT_SINGLELINE);

  00174	8d 8d 58 ff ff
	ff		 lea	 ecx, DWORD PTR $T16[ebp]
  0017a	c6 45 fc 00	 mov	 BYTE PTR __$EHRec$[ebp+8], 0
  0017e	ff 15 00 00 00
	00		 call	 DWORD PTR __imp_??1?$CStringT@DV?$StrTraitMFC_DLL@DV?$ChTraitsCRT@D@ATL@@@@@ATL@@QAE@XZ

; 544  : 			pDC->SetBkMode(obk);

  00184	57		 push	 edi
  00185	8b bd 60 ff ff
	ff		 mov	 edi, DWORD PTR _pDC$GSCopy$1$[ebp]
  0018b	8b cf		 mov	 ecx, edi
  0018d	e8 00 00 00 00	 call	 ?SetBkMode@CDC@@QAEHH@Z	; CDC::SetBkMode

; 545  : 			pDC->SelectObject(of);

  00192	8b 07		 mov	 eax, DWORD PTR [edi]
  00194	8b cf		 mov	 ecx, edi
  00196	56		 push	 esi
  00197	ff 50 30	 call	 DWORD PTR [eax+48]
; File C:\Program Files (x86)\Microsoft Visual Studio\2019\Community\VC\Tools\MSVC\14.29.30133\atlmfc\include\afxwin1.inl

; 106  : 	{ }

  0019a	c7 85 4c ff ff
	ff 00 00 00 00	 mov	 DWORD PTR _pn1$12[ebp], OFFSET ??_7CPen@@6B@
  001a4	8d 8d 4c ff ff
	ff		 lea	 ecx, DWORD PTR _pn1$12[ebp]
$LN139@DrawFolder:
; File D:\git\src\IBK\IBK_DRFN\ProjSrc\SrcDrfn\Chart\MULTICHART\control\GfxOutBarCtrl.cpp

; 735  : }

  001aa	e8 00 00 00 00	 call	 ??1CGdiObject@@UAE@XZ	; CGdiObject::~CGdiObject
$LN110@DrawFolder:
  001af	8b 4d f4	 mov	 ecx, DWORD PTR __$EHRec$[ebp]
  001b2	64 89 0d 00 00
	00 00		 mov	 DWORD PTR fs:0, ecx
  001b9	59		 pop	 ecx
  001ba	5f		 pop	 edi
  001bb	5e		 pop	 esi
  001bc	8b 4d f0	 mov	 ecx, DWORD PTR __$ArrayPad$[ebp]
  001bf	33 cd		 xor	 ecx, ebp
  001c1	e8 00 00 00 00	 call	 @__security_check_cookie@4
  001c6	8b e5		 mov	 esp, ebp
  001c8	5d		 pop	 ebp
  001c9	c2 1c 00	 ret	 28			; 0000001cH
$LN4@DrawFolder:

; 546  : 		}
; 547  : 		else
; 548  : 		{
; 549  : 
; 550  : //			CPen pn1(PS_SOLID, 1, crBackGroundColor1);
; 551  : //			CPen * op = pDC->SelectObject(&pn1);
; 552  : //			pDC->MoveTo(rect.left, rect.top);
; 553  : //			pDC->LineTo(rect.right, rect.top);
; 554  : //			pDC->SelectObject(op);
; 555  : 
; 556  : 			//rect.top ++;
; 557  : //			pDC->FillSolidRect(rect, RGB(255,255,255));
; 558  : 			//rect.left +=2;
; 559  : 			//rect.top +=2;
; 560  : //			pDC->FillSolidRect(rect, cr3dUnFace);
; 561  : 			//2006.09.25 by LYH   
; 562  : //			CRect rcTemp, rcTemp2;
; 563  : //			CRect rc;
; 564  : //			GetClientRect(rc);
; 565  : //			rcTemp.top = rect.top;
; 566  : //			rcTemp.bottom = rc.bottom + 2;
; 567  : //			rcTemp.left = rect.left;
; 568  : //			rcTemp.right = rect.right;
; 569  : //			//2006.12.07   
; 570  : //			//LeftBar     
; 571  : //			//pDC->FillSolidRect(rcTemp, RGB(239,242,247));
; 572  : ////@ pDC->FillSolidRect(rcTemp, RGB(208,186,21));
; 573  : //			pDC->FillSolidRect(rcTemp, RGB(173,173,173));
; 574  : //			rcTemp.top = rect.top;// + 1 ;
; 575  : //			pDC->FillSolidRect(rcTemp, RGB(255,255,255));
; 576  : //			rcTemp2.top = rect.top + 1;// + 2 ;
; 577  : //			rcTemp2.bottom = rc.bottom + 2;
; 578  : //			rcTemp2.left = rect.left;
; 579  : //			rcTemp2.right = rect.right;
; 580  : //@ pDC->FillSolidRect(rcTemp2, RGB(255,253,225));
; 581  : 			pDC->FillSolidRect(rect, crBackGroundColor1);

  001cc	8d 45 10	 lea	 eax, DWORD PTR _rect$[ebp]
  001cf	8b cf		 mov	 ecx, edi
  001d1	50		 push	 eax
  001d2	e8 00 00 00 00	 call	 ?FillSolidRect@CDC@@QAEXPBUtagRECT@@K@Z ; CDC::FillSolidRect

; 582  : 			CRect rectOutLine(rect);
; 583  : 			if(iIdx == arFolder.GetSize() - 1)

  001d7	8b 96 0c 01 00
	00		 mov	 edx, DWORD PTR [esi+268]
  001dd	0f 10 45 10	 movups	 xmm0, XMMWORD PTR _rect$[ebp]
  001e1	8b 8d 54 ff ff
	ff		 mov	 ecx, DWORD PTR _iIdx$GSCopy$1$[ebp]
  001e7	4a		 dec	 edx
  001e8	8b 86 90 00 00
	00		 mov	 eax, DWORD PTR [esi+144]
  001ee	0f 11 45 e0	 movups	 XMMWORD PTR _rectOutLine$23[ebp], xmm0
  001f2	3b ca		 cmp	 ecx, edx
  001f4	74 0d		 je	 SHORT $LN7@DrawFolder

; 584  : 			{
; 585  : 				pDC->Draw3dRect(rect, cr3dFace, cr3dFace);
; 586  : 			}
; 587  : 			else
; 588  : 			{
; 589  : 				rectOutLine.bottom += 1;

  001f6	8b 45 1c	 mov	 eax, DWORD PTR _rect$[ebp+12]
  001f9	40		 inc	 eax
  001fa	89 45 ec	 mov	 DWORD PTR _rectOutLine$23[ebp+12], eax
  001fd	8b 86 90 00 00
	00		 mov	 eax, DWORD PTR [esi+144]
$LN7@DrawFolder:

; 590  : 				pDC->Draw3dRect(rectOutLine, cr3dFace, cr3dFace);
; 591  : 			}
; 592  : 			//2006.12.07  end
; 593  : 			//end
; 594  : 			
; 595  : 			int obk = pDC->SetBkMode(TRANSPARENT);

  00203	50		 push	 eax
  00204	50		 push	 eax
  00205	3b ca		 cmp	 ecx, edx
  00207	8d 45 e0	 lea	 eax, DWORD PTR _rectOutLine$23[ebp]
  0020a	8d 4d 10	 lea	 ecx, DWORD PTR _rect$[ebp]
  0020d	0f 44 c1	 cmove	 eax, ecx
  00210	8b cf		 mov	 ecx, edi
  00212	50		 push	 eax
  00213	e8 00 00 00 00	 call	 ?Draw3dRect@CDC@@QAEXPBUtagRECT@@KK@Z ; CDC::Draw3dRect
  00218	6a 01		 push	 1
  0021a	8b cf		 mov	 ecx, edi
  0021c	e8 00 00 00 00	 call	 ?SetBkMode@CDC@@QAEHH@Z	; CDC::SetBkMode
  00221	89 85 5c ff ff
	ff		 mov	 DWORD PTR _obk$1$[ebp], eax

; 596  : 
; 597  : //			CPen pn1(PS_SOLID, 1, RGB(173,173,173));
; 598  : //			CPen* pPnOld = pDC->SelectObject(&pn1);
; 599  : //			pDC->MoveTo(rect.left, rect.top + iFolderHeight - 1);
; 600  : //			pDC->LineTo(rect.right, rect.top + iFolderHeight - 1);
; 601  : //			pDC->SelectObject(pPnOld);
; 602  : 
; 603  : 			//2006.12.07   
; 604  : 			//LeftBar     
; 605  : 			//m_pFolderImageList->Draw(pDC, m_nNormal, CPoint(rect.left, rect.top), ILD_TRANSPARENT);
; 606  : 			m_pFolderImageList->Draw(pDC, m_nNormal, CPoint(rect.left, rect.top), ILD_TRANSPARENT);		

  00227	8b 86 5c 01 00
	00		 mov	 eax, DWORD PTR [esi+348]
; File C:\Program Files (x86)\Microsoft Visual Studio\2019\Community\VC\Tools\MSVC\14.29.30133\atlmfc\include\afxwin1.inl

; 316  : 	{ return this == NULL ? NULL : m_hDC; }

  0022d	85 ff		 test	 edi, edi
  0022f	75 04		 jne	 SHORT $LN41@DrawFolder
  00231	33 c9		 xor	 ecx, ecx
  00233	eb 03		 jmp	 SHORT $LN42@DrawFolder
$LN41@DrawFolder:
  00235	8b 4f 04	 mov	 ecx, DWORD PTR [edi+4]
$LN42@DrawFolder:

; 871  : 	{ ASSERT(m_hImageList != NULL); ASSERT(pDC != NULL); return ImageList_Draw(m_hImageList, nImage, pDC->GetSafeHdc(), pt.x, pt.y, nStyle); }

  00238	6a 01		 push	 1
  0023a	ff 75 14	 push	 DWORD PTR _rect$[ebp+4]
  0023d	ff 75 10	 push	 DWORD PTR _rect$[ebp]
  00240	51		 push	 ecx
  00241	ff b6 60 01 00
	00		 push	 DWORD PTR [esi+352]
  00247	ff 70 04	 push	 DWORD PTR [eax+4]
  0024a	ff 15 00 00 00
	00		 call	 DWORD PTR __imp__ImageList_Draw@24
; File D:\git\src\IBK\IBK_DRFN\ProjSrc\SrcDrfn\Chart\MULTICHART\control\GfxOutBarCtrl.cpp

; 609  : 			CFont * of = pDC->SelectObject(&m_Font);

  00250	8b 17		 mov	 edx, DWORD PTR [edi]
  00252	8d 86 54 01 00
	00		 lea	 eax, DWORD PTR [esi+340]
  00258	50		 push	 eax
  00259	8b cf		 mov	 ecx, edi
  0025b	8b 42 30	 mov	 eax, DWORD PTR [edx+48]
  0025e	ff d0		 call	 eax

; 610  : 			pDC->SetTextColor(CLR_FONT_DEFAULT);

  00260	8b 17		 mov	 edx, DWORD PTR [edi]
  00262	8b cf		 mov	 ecx, edi
  00264	68 00 00 01 00	 push	 65536			; 00010000H
  00269	8b f0		 mov	 esi, eax
  0026b	ff 52 38	 call	 DWORD PTR [edx+56]

; 612  : 			pDC->DrawText(CString(pbf->cName), rect, DT_LEFT|DT_VCENTER|DT_SINGLELINE);

  0026e	8b 85 58 ff ff
	ff		 mov	 eax, DWORD PTR _pbf$1$[ebp]
  00274	8d 8d 54 ff ff
	ff		 lea	 ecx, DWORD PTR $T14[ebp]
  0027a	83 45 10 19	 add	 DWORD PTR _rect$[ebp], 25 ; 00000019H
  0027e	ff 70 04	 push	 DWORD PTR [eax+4]
  00281	ff 15 00 00 00
	00		 call	 DWORD PTR __imp_??0?$CStringT@DV?$StrTraitMFC_DLL@DV?$ChTraitsCRT@D@ATL@@@@@ATL@@QAE@PBD@Z
; File C:\Program Files (x86)\Microsoft Visual Studio\2019\Community\VC\Tools\MSVC\14.29.30133\atlmfc\include\atlsimpstr.h

; 519  : 		return( GetData()->nDataLength );

  00287	8b 00		 mov	 eax, DWORD PTR [eax]
; File C:\Program Files (x86)\Microsoft Visual Studio\2019\Community\VC\Tools\MSVC\14.29.30133\atlmfc\include\afxwin1.inl

; 600  : 		return _AFX_FUNCNAME(DrawText)((LPCTSTR)str, (int)str.GetLength(), lpRect, nFormat); }

  00289	8d 4d 10	 lea	 ecx, DWORD PTR _rect$[ebp]
  0028c	8b 17		 mov	 edx, DWORD PTR [edi]
  0028e	6a 24		 push	 36			; 00000024H
  00290	51		 push	 ecx
  00291	ff 70 f4	 push	 DWORD PTR [eax-12]
  00294	8b cf		 mov	 ecx, edi
; File D:\git\src\IBK\IBK_DRFN\ProjSrc\SrcDrfn\Chart\MULTICHART\control\GfxOutBarCtrl.cpp

; 612  : 			pDC->DrawText(CString(pbf->cName), rect, DT_LEFT|DT_VCENTER|DT_SINGLELINE);

  00296	c7 45 fc 02 00
	00 00		 mov	 DWORD PTR __$EHRec$[ebp+8], 2
; File C:\Program Files (x86)\Microsoft Visual Studio\2019\Community\VC\Tools\MSVC\14.29.30133\atlmfc\include\afxwin1.inl

; 600  : 		return _AFX_FUNCNAME(DrawText)((LPCTSTR)str, (int)str.GetLength(), lpRect, nFormat); }

  0029d	50		 push	 eax
  0029e	ff 52 70	 call	 DWORD PTR [edx+112]
; File D:\git\src\IBK\IBK_DRFN\ProjSrc\SrcDrfn\Chart\MULTICHART\control\GfxOutBarCtrl.cpp

; 612  : 			pDC->DrawText(CString(pbf->cName), rect, DT_LEFT|DT_VCENTER|DT_SINGLELINE);

  002a1	8d 8d 54 ff ff
	ff		 lea	 ecx, DWORD PTR $T14[ebp]
  002a7	c7 45 fc ff ff
	ff ff		 mov	 DWORD PTR __$EHRec$[ebp+8], -1
  002ae	ff 15 00 00 00
	00		 call	 DWORD PTR __imp_??1?$CStringT@DV?$StrTraitMFC_DLL@DV?$ChTraitsCRT@D@ATL@@@@@ATL@@QAE@XZ

; 613  : 			pDC->SetBkMode(obk);

  002b4	ff b5 5c ff ff
	ff		 push	 DWORD PTR _obk$1$[ebp]
  002ba	8b cf		 mov	 ecx, edi
  002bc	e8 00 00 00 00	 call	 ?SetBkMode@CDC@@QAEHH@Z	; CDC::SetBkMode

; 614  : 			pDC->SelectObject(of);

  002c1	8b 07		 mov	 eax, DWORD PTR [edi]
  002c3	8b cf		 mov	 ecx, edi
  002c5	56		 push	 esi
  002c6	ff 50 30	 call	 DWORD PTR [eax+48]

; 615  : 		}
; 616  : 	}

  002c9	e9 e1 fe ff ff	 jmp	 $LN110@DrawFolder
$LN2@DrawFolder:

; 617  : 	else
; 618  : 	{
; 619  : 		if(m_pFolderImageList)

  002ce	85 c0		 test	 eax, eax
  002d0	0f 84 d3 02 00
	00		 je	 $LN8@DrawFolder
; File C:\Program Files (x86)\Microsoft Visual Studio\2019\Community\VC\Tools\MSVC\14.29.30133\atlmfc\include\afxwin2.inl

; 86   : 	{ ASSERT(::IsWindow(m_hWnd)); ::GetClientRect(m_hWnd, lpRect); }

  002d6	8d 45 e0	 lea	 eax, DWORD PTR _rc$22[ebp]
  002d9	0f 57 c0	 xorps	 xmm0, xmm0
  002dc	50		 push	 eax
  002dd	ff 76 20	 push	 DWORD PTR [esi+32]
; File C:\Program Files (x86)\Microsoft Visual Studio\2019\Community\VC\Tools\MSVC\14.29.30133\atlmfc\include\atltypes.h

; 528  : 	left = 0;

  002e0	0f 11 45 e0	 movups	 XMMWORD PTR _rc$22[ebp], xmm0
; File C:\Program Files (x86)\Microsoft Visual Studio\2019\Community\VC\Tools\MSVC\14.29.30133\atlmfc\include\afxwin2.inl

; 86   : 	{ ASSERT(::IsWindow(m_hWnd)); ::GetClientRect(m_hWnd, lpRect); }

  002e4	ff 15 00 00 00
	00		 call	 DWORD PTR __imp__GetClientRect@8
; File C:\Program Files (x86)\Microsoft Visual Studio\2019\Community\VC\Tools\MSVC\14.29.30133\atlmfc\include\atltypes.h

; 698  : 	::InflateRect(this, -x, -y);

  002ea	6a fc		 push	 -4			; fffffffcH
  002ec	6a fc		 push	 -4			; fffffffcH
  002ee	8d 45 e0	 lea	 eax, DWORD PTR _rc$22[ebp]
  002f1	50		 push	 eax
  002f2	ff 15 00 00 00
	00		 call	 DWORD PTR __imp__InflateRect@12
; File D:\git\src\IBK\IBK_DRFN\ProjSrc\SrcDrfn\Chart\MULTICHART\control\GfxOutBarCtrl.cpp

; 626  : 			rcTemp.top = rect.top;

  002f8	8b 45 14	 mov	 eax, DWORD PTR _rect$[ebp+4]

; 627  : 			rcTemp.bottom = rc.bottom - (arFolder.GetSize() - iSelFolder - 1)*(iFolderHeight+iGap);

  002fb	8b 8e 0c 01 00
	00		 mov	 ecx, DWORD PTR [esi+268]
  00301	2b 8e 34 01 00
	00		 sub	 ecx, DWORD PTR [esi+308]
  00307	89 45 d4	 mov	 DWORD PTR _rcTemp$21[ebp+4], eax
  0030a	49		 dec	 ecx
  0030b	8b 86 a0 00 00
	00		 mov	 eax, DWORD PTR [esi+160]
  00311	03 86 a4 00 00
	00		 add	 eax, DWORD PTR [esi+164]
  00317	0f af c8	 imul	 ecx, eax
  0031a	8b 45 ec	 mov	 eax, DWORD PTR _rc$22[ebp+12]

; 628  : 			rcTemp.left = rect.left;
; 629  : 			rcTemp.right = rect.right;
; 630  : 			//2006.12.07   
; 631  : 			//LeftBar     
; 632  : 			//pDC->FillSolidRect(rcTemp, RGB(239,242,247));
; 633  : //@	pDC->FillSolidRect(rcTemp, RGB(208,186,21));
; 634  : 			pDC->FillSolidRect(rcTemp, RGB(173,173,173));

  0031d	68 ad ad ad 00	 push	 11382189		; 00adadadH
  00322	2b c1		 sub	 eax, ecx
  00324	8b cf		 mov	 ecx, edi
  00326	89 45 dc	 mov	 DWORD PTR _rcTemp$21[ebp+12], eax
  00329	8b 45 10	 mov	 eax, DWORD PTR _rect$[ebp]
  0032c	89 45 d0	 mov	 DWORD PTR _rcTemp$21[ebp], eax
  0032f	8b 45 18	 mov	 eax, DWORD PTR _rect$[ebp+8]
  00332	89 45 d8	 mov	 DWORD PTR _rcTemp$21[ebp+8], eax
  00335	8d 45 d0	 lea	 eax, DWORD PTR _rcTemp$21[ebp]
  00338	50		 push	 eax
  00339	e8 00 00 00 00	 call	 ?FillSolidRect@CDC@@QAEXPBUtagRECT@@K@Z ; CDC::FillSolidRect

; 635  : 			rcTemp.top = rect.top;// + 1 ;

  0033e	8b 45 14	 mov	 eax, DWORD PTR _rect$[ebp+4]

; 636  : 			pDC->FillSolidRect(rcTemp, RGB(238,239,245));

  00341	8b cf		 mov	 ecx, edi
  00343	89 45 d4	 mov	 DWORD PTR _rcTemp$21[ebp+4], eax
  00346	8d 45 d0	 lea	 eax, DWORD PTR _rcTemp$21[ebp]
  00349	68 ee ef f5 00	 push	 16117742		; 00f5efeeH
  0034e	50		 push	 eax
  0034f	e8 00 00 00 00	 call	 ?FillSolidRect@CDC@@QAEXPBUtagRECT@@K@Z ; CDC::FillSolidRect

; 637  : 			rcTemp2.top = rect.top;// + 2 ;

  00354	8b 45 14	 mov	 eax, DWORD PTR _rect$[ebp+4]

; 638  : 			rcTemp2.bottom = rc.bottom - (arFolder.GetSize() - iSelFolder - 1)*(iFolderHeight+iGap);

  00357	8b 8e 0c 01 00
	00		 mov	 ecx, DWORD PTR [esi+268]
  0035d	2b 8e 34 01 00
	00		 sub	 ecx, DWORD PTR [esi+308]
  00363	89 45 c4	 mov	 DWORD PTR _rcTemp2$20[ebp+4], eax
  00366	49		 dec	 ecx
  00367	8b 86 a0 00 00
	00		 mov	 eax, DWORD PTR [esi+160]
  0036d	03 86 a4 00 00
	00		 add	 eax, DWORD PTR [esi+164]
  00373	0f af c8	 imul	 ecx, eax
  00376	8b 45 ec	 mov	 eax, DWORD PTR _rc$22[ebp+12]

; 639  : 			rcTemp2.left = rect.left;
; 640  : 			rcTemp2.right = rect.right;
; 641  : //@ pDC->FillSolidRect(rcTemp2, RGB(255,253,225));
; 642  : 			pDC->FillSolidRect(rcTemp2, RGB(255,246,181));//KHD : RGB(255,0,0));//crBackGroundColor1);

  00379	68 ff f6 b5 00	 push	 11925247		; 00b5f6ffH
  0037e	2b c1		 sub	 eax, ecx
  00380	8b cf		 mov	 ecx, edi
  00382	89 45 cc	 mov	 DWORD PTR _rcTemp2$20[ebp+12], eax
  00385	8b 45 10	 mov	 eax, DWORD PTR _rect$[ebp]
  00388	89 45 c0	 mov	 DWORD PTR _rcTemp2$20[ebp], eax
  0038b	8b 45 18	 mov	 eax, DWORD PTR _rect$[ebp+8]
  0038e	89 45 c8	 mov	 DWORD PTR _rcTemp2$20[ebp+8], eax
  00391	8d 45 c0	 lea	 eax, DWORD PTR _rcTemp2$20[ebp]
  00394	50		 push	 eax
  00395	e8 00 00 00 00	 call	 ?FillSolidRect@CDC@@QAEXPBUtagRECT@@K@Z ; CDC::FillSolidRect

; 643  : 			pDC->Draw3dRect(rcTemp2, cr3dFace, cr3dFace);

  0039a	8b 86 90 00 00
	00		 mov	 eax, DWORD PTR [esi+144]
  003a0	8b cf		 mov	 ecx, edi
  003a2	50		 push	 eax
  003a3	50		 push	 eax
  003a4	8d 45 c0	 lea	 eax, DWORD PTR _rcTemp2$20[ebp]
  003a7	50		 push	 eax
  003a8	e8 00 00 00 00	 call	 ?Draw3dRect@CDC@@QAEXPBUtagRECT@@KK@Z ; CDC::Draw3dRect

; 644  : 			//2006.12.07  end
; 645  : 			//end
; 646  : 
; 647  : 			//rect.top ++;
; 648  : 			int obk = pDC->SetBkMode(TRANSPARENT);

  003ad	6a 01		 push	 1
  003af	8b cf		 mov	 ecx, edi
  003b1	e8 00 00 00 00	 call	 ?SetBkMode@CDC@@QAEHH@Z	; CDC::SetBkMode

; 649  : 			//2006.12.07   
; 650  : 			//LeftBar     
; 651  : 			//m_pFolderImageList->Draw(pDC, m_nDown, CPoint(rect.left, rect.top), ILD_TRANSPARENT);
; 652  : 			m_pFolderImageList->Draw(pDC, m_nDown, CPoint(rect.left + 2, rect.top), ILD_TRANSPARENT);

  003b6	8b 96 5c 01 00
	00		 mov	 edx, DWORD PTR [esi+348]
  003bc	89 85 60 ff ff
	ff		 mov	 DWORD PTR _obk$1$[ebp], eax
  003c2	8b 45 10	 mov	 eax, DWORD PTR _rect$[ebp]
  003c5	83 c0 02	 add	 eax, 2
; File C:\Program Files (x86)\Microsoft Visual Studio\2019\Community\VC\Tools\MSVC\14.29.30133\atlmfc\include\afxwin1.inl

; 316  : 	{ return this == NULL ? NULL : m_hDC; }

  003c8	85 ff		 test	 edi, edi
  003ca	75 04		 jne	 SHORT $LN67@DrawFolder
  003cc	33 c9		 xor	 ecx, ecx
  003ce	eb 03		 jmp	 SHORT $LN68@DrawFolder
$LN67@DrawFolder:
  003d0	8b 4f 04	 mov	 ecx, DWORD PTR [edi+4]
$LN68@DrawFolder:

; 871  : 	{ ASSERT(m_hImageList != NULL); ASSERT(pDC != NULL); return ImageList_Draw(m_hImageList, nImage, pDC->GetSafeHdc(), pt.x, pt.y, nStyle); }

  003d3	6a 01		 push	 1
  003d5	ff 75 14	 push	 DWORD PTR _rect$[ebp+4]
  003d8	50		 push	 eax
  003d9	51		 push	 ecx
  003da	ff b6 64 01 00
	00		 push	 DWORD PTR [esi+356]
  003e0	ff 72 04	 push	 DWORD PTR [edx+4]
  003e3	ff 15 00 00 00
	00		 call	 DWORD PTR __imp__ImageList_Draw@24
; File D:\git\src\IBK\IBK_DRFN\ProjSrc\SrcDrfn\Chart\MULTICHART\control\GfxOutBarCtrl.cpp

; 656  : 			CPen pn1(PS_SOLID, 1, RGB(173,173,173));

  003e9	68 ad ad ad 00	 push	 11382189		; 00adadadH
  003ee	6a 01		 push	 1
  003f0	6a 00		 push	 0
  003f2	8d 8d 3c ff ff
	ff		 lea	 ecx, DWORD PTR _pn1$7[ebp]
  003f8	e8 00 00 00 00	 call	 ??0CPen@@QAE@HHK@Z	; CPen::CPen

; 657  : 			CPen* pPnOld = pDC->SelectObject(&pn1);

  003fd	8d 85 3c ff ff
	ff		 lea	 eax, DWORD PTR _pn1$7[ebp]
  00403	c7 45 fc 03 00
	00 00		 mov	 DWORD PTR __$EHRec$[ebp+8], 3
  0040a	50		 push	 eax
  0040b	8b cf		 mov	 ecx, edi
  0040d	e8 00 00 00 00	 call	 ?SelectObject@CDC@@QAEPAVCPen@@PAV2@@Z ; CDC::SelectObject

; 658  : 			pDC->MoveTo(rect.left, rect.top + iFolderHeight - 1);

  00412	8b 95 5c ff ff
	ff		 mov	 edx, DWORD PTR _this$GSCopy$1$[ebp]
  00418	8b f0		 mov	 esi, eax
  0041a	8b 4d 14	 mov	 ecx, DWORD PTR _rect$[ebp+4]
  0041d	8d 85 44 ff ff
	ff		 lea	 eax, DWORD PTR $T9[ebp]
  00423	49		 dec	 ecx
  00424	8b 92 a0 00 00
	00		 mov	 edx, DWORD PTR [edx+160]
  0042a	03 ca		 add	 ecx, edx
  0042c	51		 push	 ecx
  0042d	ff 75 10	 push	 DWORD PTR _rect$[ebp]
  00430	8b cf		 mov	 ecx, edi
  00432	50		 push	 eax
  00433	e8 00 00 00 00	 call	 ?MoveTo@CDC@@QAE?AVCPoint@@HH@Z ; CDC::MoveTo

; 659  : 			pDC->LineTo(rect.right, rect.top + iFolderHeight - 1);

  00438	8b 85 5c ff ff
	ff		 mov	 eax, DWORD PTR _this$GSCopy$1$[ebp]
  0043e	8b 88 a0 00 00
	00		 mov	 ecx, DWORD PTR [eax+160]
  00444	8b 45 14	 mov	 eax, DWORD PTR _rect$[ebp+4]
  00447	48		 dec	 eax
  00448	03 c1		 add	 eax, ecx
  0044a	8b cf		 mov	 ecx, edi
  0044c	50		 push	 eax
  0044d	ff 75 18	 push	 DWORD PTR _rect$[ebp+8]
  00450	e8 00 00 00 00	 call	 ?LineTo@CDC@@QAEHHH@Z	; CDC::LineTo

; 660  : 			pDC->SelectObject(pPnOld);

  00455	56		 push	 esi
  00456	8b cf		 mov	 ecx, edi
  00458	e8 00 00 00 00	 call	 ?SelectObject@CDC@@QAEPAVCPen@@PAV2@@Z ; CDC::SelectObject

; 661  : 
; 662  : 
; 663  : //			CFont * of = pDC->SelectObject(CFont::FromHandle((HFONT)GetStockObject(DEFAULT_GUI_FONT)));
; 664  : 			CFont * of = pDC->SelectObject(&m_Font);

  0045d	8b 17		 mov	 edx, DWORD PTR [edi]
  0045f	8b cf		 mov	 ecx, edi
  00461	8b 85 5c ff ff
	ff		 mov	 eax, DWORD PTR _this$GSCopy$1$[ebp]
  00467	05 54 01 00 00	 add	 eax, 340		; 00000154H
  0046c	50		 push	 eax
  0046d	8b 42 30	 mov	 eax, DWORD PTR [edx+48]
  00470	ff d0		 call	 eax
  00472	8b f0		 mov	 esi, eax
; File C:\Program Files (x86)\Microsoft Visual Studio\2019\Community\VC\Tools\MSVC\14.29.30133\atlmfc\include\afxwin1.inl

; 70   : 	{ m_hObject = NULL; }

  00474	c7 85 50 ff ff
	ff 00 00 00 00	 mov	 DWORD PTR _boldfont$11[ebp+4], 0

; 153  : 	{ }

  0047e	c7 85 4c ff ff
	ff 00 00 00 00	 mov	 DWORD PTR _boldfont$11[ebp], OFFSET ??_7CFont@@6B@
; File D:\git\src\IBK\IBK_DRFN\ProjSrc\SrcDrfn\Chart\MULTICHART\control\GfxOutBarCtrl.cpp

; 670  : 			memset(&lfont, 0X00,sizeof(LOGFONT));

  00488	6a 3c		 push	 60			; 0000003cH
  0048a	8d 45 84	 lea	 eax, DWORD PTR _lfont$19[ebp]
  0048d	c6 45 fc 04	 mov	 BYTE PTR __$EHRec$[ebp+8], 4
  00491	6a 00		 push	 0
  00493	50		 push	 eax
  00494	e8 00 00 00 00	 call	 _memset
  00499	83 c4 0c	 add	 esp, 12			; 0000000cH
; File C:\Program Files (x86)\Microsoft Visual Studio\2019\Community\VC\Tools\MSVC\14.29.30133\atlmfc\include\afxwin1.inl

; 169  : 		return ::GetObject(m_hObject, sizeof(LOGFONT), pLogFont); }

  0049c	8d 45 84	 lea	 eax, DWORD PTR _lfont$19[ebp]
  0049f	50		 push	 eax
  004a0	6a 3c		 push	 60			; 0000003cH
  004a2	ff 76 04	 push	 DWORD PTR [esi+4]
  004a5	ff 15 00 00 00
	00		 call	 DWORD PTR __imp__GetObjectA@12
; File D:\git\src\IBK\IBK_DRFN\ProjSrc\SrcDrfn\Chart\MULTICHART\control\GfxOutBarCtrl.cpp

; 684  : 			strcpy(lfont.lfFaceName, "");

  004ab	a1 00 00 00 00	 mov	 eax, DWORD PTR ??_C@_06MFMMLLPC@?$LB?$LM?$LI?$LC?C?$LM@
  004b0	89 45 a0	 mov	 DWORD PTR _lfont$19[ebp+28], eax
  004b3	66 a1 04 00 00
	00		 mov	 ax, WORD PTR ??_C@_06MFMMLLPC@?$LB?$LM?$LI?$LC?C?$LM@+4
  004b9	66 89 45 a4	 mov	 WORD PTR _lfont$19[ebp+32], ax
  004bd	a0 06 00 00 00	 mov	 al, BYTE PTR ??_C@_06MFMMLLPC@?$LB?$LM?$LI?$LC?C?$LM@+6
  004c2	88 45 a6	 mov	 BYTE PTR _lfont$19[ebp+34], al
; File C:\Program Files (x86)\Microsoft Visual Studio\2019\Community\VC\Tools\MSVC\14.29.30133\atlmfc\include\afxwin1.inl

; 157  : 	{ return Attach(::CreateFontIndirect(lpLogFont)); }

  004c5	8d 45 84	 lea	 eax, DWORD PTR _lfont$19[ebp]
  004c8	50		 push	 eax
; File D:\git\src\IBK\IBK_DRFN\ProjSrc\SrcDrfn\Chart\MULTICHART\control\GfxOutBarCtrl.cpp

; 672  : 			lfont.lfWidth = 0; 

  004c9	c7 45 88 00 00
	00 00		 mov	 DWORD PTR _lfont$19[ebp+4], 0

; 673  : 			lfont.lfEscapement = 0; 

  004d0	c7 45 8c 00 00
	00 00		 mov	 DWORD PTR _lfont$19[ebp+8], 0

; 674  : 			lfont.lfOrientation = 0; 

  004d7	c7 45 90 00 00
	00 00		 mov	 DWORD PTR _lfont$19[ebp+12], 0

; 675  : 			lfont.lfWeight = FW_NORMAL; 
; 676  : 			lfont.lfItalic = 0; 

  004de	c7 45 98 00 00
	00 01		 mov	 DWORD PTR _lfont$19[ebp+20], 16777216 ; 01000000H

; 677  : 			lfont.lfUnderline = 0; 
; 678  : 			lfont.lfStrikeOut = 0; 
; 679  : 			lfont.lfCharSet = DEFAULT_CHARSET; 
; 680  : 			lfont.lfOutPrecision = OUT_DEFAULT_PRECIS; 

  004e5	c7 45 9c 00 00
	00 10		 mov	 DWORD PTR _lfont$19[ebp+24], 268435456 ; 10000000H

; 685  : 			lfont.lfHeight = -12;

  004ec	c7 45 84 f4 ff
	ff ff		 mov	 DWORD PTR _lfont$19[ebp], -12 ; fffffff4H

; 686  : 			lfont.lfWeight = FW_BOLD;

  004f3	c7 45 94 bc 02
	00 00		 mov	 DWORD PTR _lfont$19[ebp+16], 700 ; 000002bcH
; File C:\Program Files (x86)\Microsoft Visual Studio\2019\Community\VC\Tools\MSVC\14.29.30133\atlmfc\include\afxwin1.inl

; 157  : 	{ return Attach(::CreateFontIndirect(lpLogFont)); }

  004fa	ff 15 00 00 00
	00		 call	 DWORD PTR __imp__CreateFontIndirectA@4
  00500	50		 push	 eax
  00501	8d 8d 4c ff ff
	ff		 lea	 ecx, DWORD PTR _boldfont$11[ebp]
  00507	e8 00 00 00 00	 call	 ?Attach@CGdiObject@@QAEHPAX@Z ; CGdiObject::Attach
; File D:\git\src\IBK\IBK_DRFN\ProjSrc\SrcDrfn\Chart\MULTICHART\control\GfxOutBarCtrl.cpp

; 689  : 			of = pDC->SelectObject(&boldfont);

  0050c	8b 07		 mov	 eax, DWORD PTR [edi]
  0050e	8d 8d 4c ff ff
	ff		 lea	 ecx, DWORD PTR _boldfont$11[ebp]
  00514	51		 push	 ecx
  00515	8b cf		 mov	 ecx, edi
  00517	8b 40 30	 mov	 eax, DWORD PTR [eax+48]
  0051a	ff d0		 call	 eax

; 690  : 			//2006.12.11   END
; 691  : 			pDC->SetTextColor(CLR_FONT_DEFAULT);

  0051c	8b 17		 mov	 edx, DWORD PTR [edi]
  0051e	8b cf		 mov	 ecx, edi
  00520	68 00 00 01 00	 push	 65536			; 00010000H
  00525	8b f0		 mov	 esi, eax
  00527	ff 52 38	 call	 DWORD PTR [edx+56]

; 693  : 			pDC->DrawText(CString(pbf->cName), rect, DT_LEFT|DT_VCENTER|DT_SINGLELINE);

  0052a	8b 85 58 ff ff
	ff		 mov	 eax, DWORD PTR _pbf$1$[ebp]
  00530	8d 8d 54 ff ff
	ff		 lea	 ecx, DWORD PTR $T13[ebp]
  00536	83 45 10 19	 add	 DWORD PTR _rect$[ebp], 25 ; 00000019H
  0053a	ff 70 04	 push	 DWORD PTR [eax+4]
  0053d	ff 15 00 00 00
	00		 call	 DWORD PTR __imp_??0?$CStringT@DV?$StrTraitMFC_DLL@DV?$ChTraitsCRT@D@ATL@@@@@ATL@@QAE@PBD@Z
; File C:\Program Files (x86)\Microsoft Visual Studio\2019\Community\VC\Tools\MSVC\14.29.30133\atlmfc\include\atlsimpstr.h

; 519  : 		return( GetData()->nDataLength );

  00543	8b 00		 mov	 eax, DWORD PTR [eax]
; File C:\Program Files (x86)\Microsoft Visual Studio\2019\Community\VC\Tools\MSVC\14.29.30133\atlmfc\include\afxwin1.inl

; 600  : 		return _AFX_FUNCNAME(DrawText)((LPCTSTR)str, (int)str.GetLength(), lpRect, nFormat); }

  00545	8d 4d 10	 lea	 ecx, DWORD PTR _rect$[ebp]
  00548	8b 17		 mov	 edx, DWORD PTR [edi]
  0054a	6a 24		 push	 36			; 00000024H
  0054c	51		 push	 ecx
  0054d	ff 70 f4	 push	 DWORD PTR [eax-12]
  00550	8b cf		 mov	 ecx, edi
; File D:\git\src\IBK\IBK_DRFN\ProjSrc\SrcDrfn\Chart\MULTICHART\control\GfxOutBarCtrl.cpp

; 693  : 			pDC->DrawText(CString(pbf->cName), rect, DT_LEFT|DT_VCENTER|DT_SINGLELINE);

  00552	c6 45 fc 05	 mov	 BYTE PTR __$EHRec$[ebp+8], 5
; File C:\Program Files (x86)\Microsoft Visual Studio\2019\Community\VC\Tools\MSVC\14.29.30133\atlmfc\include\afxwin1.inl

; 600  : 		return _AFX_FUNCNAME(DrawText)((LPCTSTR)str, (int)str.GetLength(), lpRect, nFormat); }

  00556	50		 push	 eax
  00557	ff 52 70	 call	 DWORD PTR [edx+112]
; File D:\git\src\IBK\IBK_DRFN\ProjSrc\SrcDrfn\Chart\MULTICHART\control\GfxOutBarCtrl.cpp

; 693  : 			pDC->DrawText(CString(pbf->cName), rect, DT_LEFT|DT_VCENTER|DT_SINGLELINE);

  0055a	8d 8d 54 ff ff
	ff		 lea	 ecx, DWORD PTR $T13[ebp]
  00560	c6 45 fc 04	 mov	 BYTE PTR __$EHRec$[ebp+8], 4
  00564	ff 15 00 00 00
	00		 call	 DWORD PTR __imp_??1?$CStringT@DV?$StrTraitMFC_DLL@DV?$ChTraitsCRT@D@ATL@@@@@ATL@@QAE@XZ

; 694  : 			pDC->SetBkMode(obk);

  0056a	ff b5 60 ff ff
	ff		 push	 DWORD PTR _obk$1$[ebp]
  00570	8b cf		 mov	 ecx, edi
  00572	e8 00 00 00 00	 call	 ?SetBkMode@CDC@@QAEHH@Z	; CDC::SetBkMode

; 695  : 			pDC->SelectObject(of);

  00577	8b 07		 mov	 eax, DWORD PTR [edi]
  00579	8b cf		 mov	 ecx, edi
  0057b	56		 push	 esi
  0057c	ff 50 30	 call	 DWORD PTR [eax+48]
; File C:\Program Files (x86)\Microsoft Visual Studio\2019\Community\VC\Tools\MSVC\14.29.30133\atlmfc\include\afxwin1.inl

; 155  : 	{ }

  0057f	8d 8d 4c ff ff
	ff		 lea	 ecx, DWORD PTR _boldfont$11[ebp]
  00585	c7 85 4c ff ff
	ff 00 00 00 00	 mov	 DWORD PTR _boldfont$11[ebp], OFFSET ??_7CFont@@6B@
  0058f	e8 00 00 00 00	 call	 ??1CGdiObject@@UAE@XZ	; CGdiObject::~CGdiObject

; 106  : 	{ }

  00594	c7 85 3c ff ff
	ff 00 00 00 00	 mov	 DWORD PTR _pn1$7[ebp], OFFSET ??_7CPen@@6B@
  0059e	8d 8d 3c ff ff
	ff		 lea	 ecx, DWORD PTR _pn1$7[ebp]
; File D:\git\src\IBK\IBK_DRFN\ProjSrc\SrcDrfn\Chart\MULTICHART\control\GfxOutBarCtrl.cpp

; 697  : 		}

  005a4	e9 01 fc ff ff	 jmp	 $LN139@DrawFolder
$LN8@DrawFolder:

; 698  : 		else
; 699  : 		{
; 700  : 			CPen pn1(PS_SOLID, 1, crBackGroundColor1);

  005a9	ff b6 84 00 00
	00		 push	 DWORD PTR [esi+132]
  005af	8d 8d 44 ff ff
	ff		 lea	 ecx, DWORD PTR _pn1$8[ebp]
  005b5	6a 01		 push	 1
  005b7	6a 00		 push	 0
  005b9	e8 00 00 00 00	 call	 ??0CPen@@QAE@HHK@Z	; CPen::CPen

; 701  : 			CPen * op = pDC->SelectObject(&pn1);

  005be	8d 85 44 ff ff
	ff		 lea	 eax, DWORD PTR _pn1$8[ebp]
  005c4	c7 45 fc 06 00
	00 00		 mov	 DWORD PTR __$EHRec$[ebp+8], 6
  005cb	50		 push	 eax
  005cc	8b cf		 mov	 ecx, edi
  005ce	e8 00 00 00 00	 call	 ?SelectObject@CDC@@QAEPAVCPen@@PAV2@@Z ; CDC::SelectObject

; 702  : 			pDC->MoveTo(rect.left, rect.top);

  005d3	ff 75 14	 push	 DWORD PTR _rect$[ebp+4]
  005d6	8b f0		 mov	 esi, eax
  005d8	8b cf		 mov	 ecx, edi
  005da	ff 75 10	 push	 DWORD PTR _rect$[ebp]
  005dd	8d 85 3c ff ff
	ff		 lea	 eax, DWORD PTR $T6[ebp]
  005e3	50		 push	 eax
  005e4	e8 00 00 00 00	 call	 ?MoveTo@CDC@@QAE?AVCPoint@@HH@Z ; CDC::MoveTo

; 703  : 			pDC->LineTo(rect.right, rect.top);

  005e9	ff 75 14	 push	 DWORD PTR _rect$[ebp+4]
  005ec	8b cf		 mov	 ecx, edi
  005ee	ff 75 18	 push	 DWORD PTR _rect$[ebp+8]
  005f1	e8 00 00 00 00	 call	 ?LineTo@CDC@@QAEHHH@Z	; CDC::LineTo

; 704  : 			pDC->SelectObject(op);

  005f6	56		 push	 esi
  005f7	8b cf		 mov	 ecx, edi
  005f9	e8 00 00 00 00	 call	 ?SelectObject@CDC@@QAEPAVCPen@@PAV2@@Z ; CDC::SelectObject
; File C:\Program Files (x86)\Microsoft Visual Studio\2019\Community\VC\Tools\MSVC\14.29.30133\atlmfc\include\afxwin2.inl

; 86   : 	{ ASSERT(::IsWindow(m_hWnd)); ::GetClientRect(m_hWnd, lpRect); }

  005fe	8d 85 64 ff ff
	ff		 lea	 eax, DWORD PTR _rc$17[ebp]
  00604	0f 57 c0	 xorps	 xmm0, xmm0
  00607	50		 push	 eax
  00608	8b 85 5c ff ff
	ff		 mov	 eax, DWORD PTR _this$GSCopy$1$[ebp]
; File C:\Program Files (x86)\Microsoft Visual Studio\2019\Community\VC\Tools\MSVC\14.29.30133\atlmfc\include\atltypes.h

; 528  : 	left = 0;

  0060e	0f 11 85 64 ff
	ff ff		 movups	 XMMWORD PTR _rc$17[ebp], xmm0
; File C:\Program Files (x86)\Microsoft Visual Studio\2019\Community\VC\Tools\MSVC\14.29.30133\atlmfc\include\afxwin2.inl

; 86   : 	{ ASSERT(::IsWindow(m_hWnd)); ::GetClientRect(m_hWnd, lpRect); }

  00615	ff 70 20	 push	 DWORD PTR [eax+32]
  00618	ff 15 00 00 00
	00		 call	 DWORD PTR __imp__GetClientRect@8
; File C:\Program Files (x86)\Microsoft Visual Studio\2019\Community\VC\Tools\MSVC\14.29.30133\atlmfc\include\atltypes.h

; 698  : 	::InflateRect(this, -x, -y);

  0061e	8b 3d 00 00 00
	00		 mov	 edi, DWORD PTR __imp__InflateRect@12
  00624	8d 85 64 ff ff
	ff		 lea	 eax, DWORD PTR _rc$17[ebp]
  0062a	6a fc		 push	 -4			; fffffffcH
  0062c	6a fc		 push	 -4			; fffffffcH
  0062e	50		 push	 eax
  0062f	ff d7		 call	 edi
; File D:\git\src\IBK\IBK_DRFN\ProjSrc\SrcDrfn\Chart\MULTICHART\control\GfxOutBarCtrl.cpp

; 711  : 			rcTemp.top = (iFolderHeight+iGap) * (iSelFolder + 1);

  00631	8b 95 5c ff ff
	ff		 mov	 edx, DWORD PTR _this$GSCopy$1$[ebp]

; 712  : 			rcTemp.bottom = rc.bottom - (arFolder.GetSize() - iSelFolder - 1)*(iFolderHeight+iGap);
; 713  : 			rcTemp.left = rect.left;
; 714  : 			rcTemp.right = rect.right;
; 715  : 			pDC->FillSolidRect(rcTemp, RGB(239,242,247));

  00637	68 ef f2 f7 00	 push	 16249583		; 00f7f2efH
  0063c	8b 8a 34 01 00
	00		 mov	 ecx, DWORD PTR [edx+308]
  00642	8b b2 a0 00 00
	00		 mov	 esi, DWORD PTR [edx+160]
  00648	03 b2 a4 00 00
	00		 add	 esi, DWORD PTR [edx+164]
  0064e	8b 92 0c 01 00
	00		 mov	 edx, DWORD PTR [edx+268]
  00654	8d 41 01	 lea	 eax, DWORD PTR [ecx+1]
  00657	2b d1		 sub	 edx, ecx
  00659	0f af c6	 imul	 eax, esi
  0065c	4a		 dec	 edx
  0065d	0f af d6	 imul	 edx, esi
  00660	8b b5 60 ff ff
	ff		 mov	 esi, DWORD PTR _pDC$GSCopy$1$[ebp]
  00666	8b ce		 mov	 ecx, esi
  00668	89 85 78 ff ff
	ff		 mov	 DWORD PTR _rcTemp$18[ebp+4], eax
  0066e	8b 85 70 ff ff
	ff		 mov	 eax, DWORD PTR _rc$17[ebp+12]
  00674	2b c2		 sub	 eax, edx
  00676	89 45 80	 mov	 DWORD PTR _rcTemp$18[ebp+12], eax
  00679	8b 45 10	 mov	 eax, DWORD PTR _rect$[ebp]
  0067c	89 85 74 ff ff
	ff		 mov	 DWORD PTR _rcTemp$18[ebp], eax
  00682	8b 45 18	 mov	 eax, DWORD PTR _rect$[ebp+8]
  00685	89 85 7c ff ff
	ff		 mov	 DWORD PTR _rcTemp$18[ebp+8], eax
  0068b	8d 85 74 ff ff
	ff		 lea	 eax, DWORD PTR _rcTemp$18[ebp]
  00691	50		 push	 eax
  00692	e8 00 00 00 00	 call	 ?FillSolidRect@CDC@@QAEXPBUtagRECT@@K@Z ; CDC::FillSolidRect

; 716  : 			//end
; 717  : 
; 718  : 			rect.top ++;

  00697	ff 45 14	 inc	 DWORD PTR _rect$[ebp+4]

; 719  : 			pDC->FillSolidRect(rect, RGB(255,255,255));

  0069a	8d 45 10	 lea	 eax, DWORD PTR _rect$[ebp]
  0069d	68 ff ff ff 00	 push	 16777215		; 00ffffffH
  006a2	50		 push	 eax
  006a3	8b ce		 mov	 ecx, esi
  006a5	e8 00 00 00 00	 call	 ?FillSolidRect@CDC@@QAEXPBUtagRECT@@K@Z ; CDC::FillSolidRect

; 720  : 			pDC->Draw3dRect(rect, crHilightBorder, crBackGroundColor1);

  006aa	8b 85 5c ff ff
	ff		 mov	 eax, DWORD PTR _this$GSCopy$1$[ebp]
  006b0	8b ce		 mov	 ecx, esi
  006b2	ff b0 84 00 00
	00		 push	 DWORD PTR [eax+132]
  006b8	ff b0 98 00 00
	00		 push	 DWORD PTR [eax+152]
  006be	8d 45 10	 lea	 eax, DWORD PTR _rect$[ebp]
  006c1	50		 push	 eax
  006c2	e8 00 00 00 00	 call	 ?Draw3dRect@CDC@@QAEXPBUtagRECT@@KK@Z ; CDC::Draw3dRect
; File C:\Program Files (x86)\Microsoft Visual Studio\2019\Community\VC\Tools\MSVC\14.29.30133\atlmfc\include\atltypes.h

; 686  : 	::InflateRect(this, x, y);

  006c7	6a ff		 push	 -1
  006c9	6a ff		 push	 -1
  006cb	8d 45 10	 lea	 eax, DWORD PTR _rect$[ebp]
  006ce	50		 push	 eax
  006cf	ff d7		 call	 edi
; File D:\git\src\IBK\IBK_DRFN\ProjSrc\SrcDrfn\Chart\MULTICHART\control\GfxOutBarCtrl.cpp

; 722  : 			pDC->FillSolidRect(rect, cr3dFace);

  006d1	8b 85 5c ff ff
	ff		 mov	 eax, DWORD PTR _this$GSCopy$1$[ebp]
  006d7	ff b0 90 00 00
	00		 push	 DWORD PTR [eax+144]
  006dd	8d 45 10	 lea	 eax, DWORD PTR _rect$[ebp]
  006e0	8b ce		 mov	 ecx, esi
  006e2	50		 push	 eax
  006e3	e8 00 00 00 00	 call	 ?FillSolidRect@CDC@@QAEXPBUtagRECT@@K@Z ; CDC::FillSolidRect

; 723  : 			int obk = pDC->SetBkMode(TRANSPARENT);

  006e8	6a 01		 push	 1
  006ea	8b ce		 mov	 ecx, esi
  006ec	e8 00 00 00 00	 call	 ?SetBkMode@CDC@@QAEHH@Z	; CDC::SetBkMode

; 724  : //			CFont * of = pDC->SelectObject(CFont::FromHandle((HFONT)GetStockObject(DEFAULT_GUI_FONT)));
; 725  : 			CFont * of = pDC->SelectObject(&m_Font);

  006f1	8b 16		 mov	 edx, DWORD PTR [esi]
  006f3	8b f8		 mov	 edi, eax
  006f5	8b 8d 5c ff ff
	ff		 mov	 ecx, DWORD PTR _this$GSCopy$1$[ebp]
  006fb	81 c1 54 01 00
	00		 add	 ecx, 340		; 00000154H
  00701	51		 push	 ecx
  00702	8b 52 30	 mov	 edx, DWORD PTR [edx+48]
  00705	8b ce		 mov	 ecx, esi
  00707	ff d2		 call	 edx
  00709	8b f0		 mov	 esi, eax

; 726  : 			pDC->SetTextColor(CLR_FONT_DEFAULT);

  0070b	8b 85 60 ff ff
	ff		 mov	 eax, DWORD PTR _pDC$GSCopy$1$[ebp]
  00711	68 00 00 01 00	 push	 65536			; 00010000H
  00716	8b c8		 mov	 ecx, eax
  00718	8b 10		 mov	 edx, DWORD PTR [eax]
  0071a	ff 52 38	 call	 DWORD PTR [edx+56]

; 727  : 			pDC->DrawText(CString(pbf->cName), rect, DT_CENTER|DT_VCENTER|DT_SINGLELINE);

  0071d	8b 85 58 ff ff
	ff		 mov	 eax, DWORD PTR _pbf$1$[ebp]
  00723	8d 8d 58 ff ff
	ff		 lea	 ecx, DWORD PTR $T15[ebp]
  00729	ff 70 04	 push	 DWORD PTR [eax+4]
  0072c	ff 15 00 00 00
	00		 call	 DWORD PTR __imp_??0?$CStringT@DV?$StrTraitMFC_DLL@DV?$ChTraitsCRT@D@ATL@@@@@ATL@@QAE@PBD@Z
; File C:\Program Files (x86)\Microsoft Visual Studio\2019\Community\VC\Tools\MSVC\14.29.30133\atlmfc\include\afxwin1.inl

; 600  : 		return _AFX_FUNCNAME(DrawText)((LPCTSTR)str, (int)str.GetLength(), lpRect, nFormat); }

  00732	8b 8d 60 ff ff
	ff		 mov	 ecx, DWORD PTR _pDC$GSCopy$1$[ebp]
; File C:\Program Files (x86)\Microsoft Visual Studio\2019\Community\VC\Tools\MSVC\14.29.30133\atlmfc\include\atlsimpstr.h

; 519  : 		return( GetData()->nDataLength );

  00738	8b 00		 mov	 eax, DWORD PTR [eax]
; File C:\Program Files (x86)\Microsoft Visual Studio\2019\Community\VC\Tools\MSVC\14.29.30133\atlmfc\include\afxwin1.inl

; 600  : 		return _AFX_FUNCNAME(DrawText)((LPCTSTR)str, (int)str.GetLength(), lpRect, nFormat); }

  0073a	6a 25		 push	 37			; 00000025H
; File D:\git\src\IBK\IBK_DRFN\ProjSrc\SrcDrfn\Chart\MULTICHART\control\GfxOutBarCtrl.cpp

; 727  : 			pDC->DrawText(CString(pbf->cName), rect, DT_CENTER|DT_VCENTER|DT_SINGLELINE);

  0073c	c6 45 fc 07	 mov	 BYTE PTR __$EHRec$[ebp+8], 7
; File C:\Program Files (x86)\Microsoft Visual Studio\2019\Community\VC\Tools\MSVC\14.29.30133\atlmfc\include\afxwin1.inl

; 600  : 		return _AFX_FUNCNAME(DrawText)((LPCTSTR)str, (int)str.GetLength(), lpRect, nFormat); }

  00740	8b 11		 mov	 edx, DWORD PTR [ecx]
  00742	8d 4d 10	 lea	 ecx, DWORD PTR _rect$[ebp]
  00745	51		 push	 ecx
  00746	ff 70 f4	 push	 DWORD PTR [eax-12]
  00749	8b 8d 60 ff ff
	ff		 mov	 ecx, DWORD PTR _pDC$GSCopy$1$[ebp]
  0074f	50		 push	 eax
  00750	ff 52 70	 call	 DWORD PTR [edx+112]
; File D:\git\src\IBK\IBK_DRFN\ProjSrc\SrcDrfn\Chart\MULTICHART\control\GfxOutBarCtrl.cpp

; 727  : 			pDC->DrawText(CString(pbf->cName), rect, DT_CENTER|DT_VCENTER|DT_SINGLELINE);

  00753	8d 8d 58 ff ff
	ff		 lea	 ecx, DWORD PTR $T15[ebp]
  00759	c6 45 fc 06	 mov	 BYTE PTR __$EHRec$[ebp+8], 6
  0075d	ff 15 00 00 00
	00		 call	 DWORD PTR __imp_??1?$CStringT@DV?$StrTraitMFC_DLL@DV?$ChTraitsCRT@D@ATL@@@@@ATL@@QAE@XZ

; 728  : 			pDC->SetBkMode(obk);

  00763	57		 push	 edi
  00764	8b bd 60 ff ff
	ff		 mov	 edi, DWORD PTR _pDC$GSCopy$1$[ebp]
  0076a	8b cf		 mov	 ecx, edi
  0076c	e8 00 00 00 00	 call	 ?SetBkMode@CDC@@QAEHH@Z	; CDC::SetBkMode

; 729  : 			pDC->SelectObject(of);

  00771	8b 07		 mov	 eax, DWORD PTR [edi]
  00773	8b cf		 mov	 ecx, edi
  00775	56		 push	 esi
  00776	ff 50 30	 call	 DWORD PTR [eax+48]
; File C:\Program Files (x86)\Microsoft Visual Studio\2019\Community\VC\Tools\MSVC\14.29.30133\atlmfc\include\afxwin1.inl

; 106  : 	{ }

  00779	c7 85 44 ff ff
	ff 00 00 00 00	 mov	 DWORD PTR _pn1$8[ebp], OFFSET ??_7CPen@@6B@
  00783	8d 8d 44 ff ff
	ff		 lea	 ecx, DWORD PTR _pn1$8[ebp]
  00789	e9 1c fa ff ff	 jmp	 $LN139@DrawFolder
$LN21@DrawFolder:
; File C:\Program Files (x86)\Microsoft Visual Studio\2019\Community\VC\Tools\MSVC\14.29.30133\atlmfc\include\afxcoll.inl

; 204  : 			AfxThrowInvalidArgException();

  0078e	e8 00 00 00 00	 call	 ?AfxThrowInvalidArgException@@YGXXZ ; AfxThrowInvalidArgException
$LN138@DrawFolder:
  00793	cc		 int	 3
_TEXT	ENDS
;	COMDAT text$x
text$x	SEGMENT
__unwindfunclet$?DrawFolder@CGfxOutBarCtrl@@IAEXPAVCDC@@HVCRect@@_N@Z$0:
  00000	8d 8d 4c ff ff
	ff		 lea	 ecx, DWORD PTR _pn1$12[ebp]
  00006	e9 00 00 00 00	 jmp	 ??1CPen@@UAE@XZ		; CPen::~CPen
__unwindfunclet$?DrawFolder@CGfxOutBarCtrl@@IAEXPAVCDC@@HVCRect@@_N@Z$1:
  0000b	8d 8d 58 ff ff
	ff		 lea	 ecx, DWORD PTR $T16[ebp]
  00011	ff 25 00 00 00
	00		 jmp	 DWORD PTR __imp_??1?$CStringT@DV?$StrTraitMFC_DLL@DV?$ChTraitsCRT@D@ATL@@@@@ATL@@QAE@XZ
__unwindfunclet$?DrawFolder@CGfxOutBarCtrl@@IAEXPAVCDC@@HVCRect@@_N@Z$2:
  00017	8d 8d 54 ff ff
	ff		 lea	 ecx, DWORD PTR $T14[ebp]
  0001d	ff 25 00 00 00
	00		 jmp	 DWORD PTR __imp_??1?$CStringT@DV?$StrTraitMFC_DLL@DV?$ChTraitsCRT@D@ATL@@@@@ATL@@QAE@XZ
__unwindfunclet$?DrawFolder@CGfxOutBarCtrl@@IAEXPAVCDC@@HVCRect@@_N@Z$3:
  00023	8d 8d 3c ff ff
	ff		 lea	 ecx, DWORD PTR _pn1$7[ebp]
  00029	e9 00 00 00 00	 jmp	 ??1CPen@@UAE@XZ		; CPen::~CPen
__unwindfunclet$?DrawFolder@CGfxOutBarCtrl@@IAEXPAVCDC@@HVCRect@@_N@Z$4:
  0002e	8d 8d 4c ff ff
	ff		 lea	 ecx, DWORD PTR _boldfont$11[ebp]
  00034	e9 00 00 00 00	 jmp	 ??1CFont@@UAE@XZ	; CFont::~CFont
__unwindfunclet$?DrawFolder@CGfxOutBarCtrl@@IAEXPAVCDC@@HVCRect@@_N@Z$5:
  00039	8d 8d 54 ff ff
	ff		 lea	 ecx, DWORD PTR $T13[ebp]
  0003f	ff 25 00 00 00
	00		 jmp	 DWORD PTR __imp_??1?$CStringT@DV?$StrTraitMFC_DLL@DV?$ChTraitsCRT@D@ATL@@@@@ATL@@QAE@XZ
__unwindfunclet$?DrawFolder@CGfxOutBarCtrl@@IAEXPAVCDC@@HVCRect@@_N@Z$6:
  00045	8d 8d 44 ff ff
	ff		 lea	 ecx, DWORD PTR _pn1$8[ebp]
  0004b	e9 00 00 00 00	 jmp	 ??1CPen@@UAE@XZ		; CPen::~CPen
__unwindfunclet$?DrawFolder@CGfxOutBarCtrl@@IAEXPAVCDC@@HVCRect@@_N@Z$7:
  00050	8d 8d 58 ff ff
	ff		 lea	 ecx, DWORD PTR $T15[ebp]
  00056	ff 25 00 00 00
	00		 jmp	 DWORD PTR __imp_??1?$CStringT@DV?$StrTraitMFC_DLL@DV?$ChTraitsCRT@D@ATL@@@@@ATL@@QAE@XZ
  0005c	cc		 int	 3
  0005d	cc		 int	 3
  0005e	cc		 int	 3
  0005f	cc		 int	 3
  00060	cc		 int	 3
__ehhandler$?DrawFolder@CGfxOutBarCtrl@@IAEXPAVCDC@@HVCRect@@_N@Z:
  00061	90		 npad	 1
  00062	90		 npad	 1
  00063	8b 54 24 08	 mov	 edx, DWORD PTR [esp+8]
  00067	8d 42 0c	 lea	 eax, DWORD PTR [edx+12]
  0006a	8b 8a 3c ff ff
	ff		 mov	 ecx, DWORD PTR [edx-196]
  00070	33 c8		 xor	 ecx, eax
  00072	e8 00 00 00 00	 call	 @__security_check_cookie@4
  00077	8b 4a fc	 mov	 ecx, DWORD PTR [edx-4]
  0007a	33 c8		 xor	 ecx, eax
  0007c	e8 00 00 00 00	 call	 @__security_check_cookie@4
  00081	b8 00 00 00 00	 mov	 eax, OFFSET __ehfuncinfo$?DrawFolder@CGfxOutBarCtrl@@IAEXPAVCDC@@HVCRect@@_N@Z
  00086	e9 00 00 00 00	 jmp	 ___CxxFrameHandler3
text$x	ENDS
?DrawFolder@CGfxOutBarCtrl@@IAEXPAVCDC@@HVCRect@@_N@Z ENDP ; CGfxOutBarCtrl::DrawFolder
; Function compile flags: /Ogtp
; File D:\git\src\IBK\IBK_DRFN\ProjSrc\SrcDrfn\Chart\MULTICHART\control\GfxOutBarCtrl.cpp
;	COMDAT ?SetFolderImageList@CGfxOutBarCtrl@@QAEXPAVCImageList@@HHH@Z
_TEXT	SEGMENT
_pImageList$ = 8					; size = 4
_nNormal$ = 12						; size = 4
_nDown$ = 16						; size = 4
_nOver$ = 20						; size = 4
?SetFolderImageList@CGfxOutBarCtrl@@QAEXPAVCImageList@@HHH@Z PROC ; CGfxOutBarCtrl::SetFolderImageList, COMDAT
; _this$ = ecx

; 3060 : {

  00000	55		 push	 ebp
  00001	8b ec		 mov	 ebp, esp

; 3061 : 	m_pFolderImageList = pImageList;

  00003	8b 45 08	 mov	 eax, DWORD PTR _pImageList$[ebp]
  00006	89 81 5c 01 00
	00		 mov	 DWORD PTR [ecx+348], eax

; 3062 : 	m_nNormal = nNormal;

  0000c	8b 45 0c	 mov	 eax, DWORD PTR _nNormal$[ebp]
  0000f	89 81 60 01 00
	00		 mov	 DWORD PTR [ecx+352], eax

; 3063 : 	m_nDown = nDown;

  00015	8b 45 10	 mov	 eax, DWORD PTR _nDown$[ebp]
  00018	89 81 64 01 00
	00		 mov	 DWORD PTR [ecx+356], eax

; 3064 : 	m_nOver = nOver;

  0001e	8b 45 14	 mov	 eax, DWORD PTR _nOver$[ebp]
  00021	89 81 68 01 00
	00		 mov	 DWORD PTR [ecx+360], eax

; 3065 : }

  00027	5d		 pop	 ebp
  00028	c2 10 00	 ret	 16			; 00000010H
?SetFolderImageList@CGfxOutBarCtrl@@QAEXPAVCImageList@@HHH@Z ENDP ; CGfxOutBarCtrl::SetFolderImageList
_TEXT	ENDS
; Function compile flags: /Ogtp
; File D:\git\src\IBK\IBK_DRFN\ProjSrc\SrcDrfn\Chart\MULTICHART\control\GfxOutBarCtrl.cpp
; File C:\Program Files (x86)\Microsoft Visual Studio\2019\Community\VC\Tools\MSVC\14.29.30133\atlmfc\include\afxwin1.inl
; File D:\git\src\IBK\IBK_DRFN\ProjSrc\SrcDrfn\Chart\MULTICHART\control\GfxOutBarCtrl.cpp
;	COMDAT ??1CGfxOutBarCtrl@@UAE@XZ
_TEXT	SEGMENT
??1CGfxOutBarCtrl@@UAE@XZ PROC				; CGfxOutBarCtrl::~CGfxOutBarCtrl, COMDAT
; _this$ = ecx

; 118  : {

  00000	56		 push	 esi
  00001	8b f1		 mov	 esi, ecx

; 119  : }

  00003	8d 8e 54 01 00
	00		 lea	 ecx, DWORD PTR [esi+340]
  00009	c7 06 00 00 00
	00		 mov	 DWORD PTR [esi], OFFSET ??_7CGfxOutBarCtrl@@6B@
; File C:\Program Files (x86)\Microsoft Visual Studio\2019\Community\VC\Tools\MSVC\14.29.30133\atlmfc\include\afxwin1.inl

; 155  : 	{ }

  0000f	c7 01 00 00 00
	00		 mov	 DWORD PTR [ecx], OFFSET ??_7CFont@@6B@
  00015	e8 00 00 00 00	 call	 ??1CGdiObject@@UAE@XZ	; CGdiObject::~CGdiObject
; File D:\git\src\IBK\IBK_DRFN\ProjSrc\SrcDrfn\Chart\MULTICHART\control\GfxOutBarCtrl.cpp

; 119  : }

  0001a	8d 8e 04 01 00
	00		 lea	 ecx, DWORD PTR [esi+260]
  00020	e8 00 00 00 00	 call	 ??1CPtrArray@@UAE@XZ	; CPtrArray::~CPtrArray
  00025	8b ce		 mov	 ecx, esi
  00027	5e		 pop	 esi
  00028	e9 00 00 00 00	 jmp	 ??1CWnd@@UAE@XZ		; CWnd::~CWnd
??1CGfxOutBarCtrl@@UAE@XZ ENDP				; CGfxOutBarCtrl::~CGfxOutBarCtrl
_TEXT	ENDS
; Function compile flags: /Ogtp
; File D:\git\src\IBK\IBK_DRFN\ProjSrc\SrcDrfn\Chart\MULTICHART\control\GfxOutBarCtrl.cpp
;	COMDAT ?Create@CGfxOutBarCtrl@@QAEHKABUtagRECT@@PAVCWnd@@IK@Z
_TEXT	SEGMENT
_dwStyle$ = 8						; size = 4
_rect$ = 12						; size = 4
_pParentWnd$ = 16					; size = 4
_nID$ = 20						; size = 4
_dwFlag$ = 24						; size = 4
?Create@CGfxOutBarCtrl@@QAEHKABUtagRECT@@PAVCWnd@@IK@Z PROC ; CGfxOutBarCtrl::Create, COMDAT
; _this$ = ecx

; 176  : {

  00000	55		 push	 ebp
  00001	8b ec		 mov	 ebp, esp

; 177  : 	dwFlags = dwFlag;

  00003	8b 45 18	 mov	 eax, DWORD PTR _dwFlag$[ebp]

; 178  : 	BOOL bRet = CWnd::CreateEx(NULL, NULL, NULL, dwStyle, rect, pParentWnd, nID);

  00006	6a 00		 push	 0
  00008	ff 75 14	 push	 DWORD PTR _nID$[ebp]
  0000b	89 81 00 01 00
	00		 mov	 DWORD PTR [ecx+256], eax
  00011	ff 75 10	 push	 DWORD PTR _pParentWnd$[ebp]
  00014	ff 75 0c	 push	 DWORD PTR _rect$[ebp]
  00017	ff 75 08	 push	 DWORD PTR _dwStyle$[ebp]
  0001a	6a 00		 push	 0
  0001c	6a 00		 push	 0
  0001e	6a 00		 push	 0
  00020	e8 00 00 00 00	 call	 ?CreateEx@CWnd@@UAEHKPBD0KABUtagRECT@@PAV1@IPAX@Z ; CWnd::CreateEx

; 179  : //	CWnd::ModifyStyleEx(0, WS_EX_CLIENTEDGE);
; 180  : 	//GFXOUTBARCTRL_CLASSNAME
; 181  : 	return bRet;
; 182  : }

  00025	5d		 pop	 ebp
  00026	c2 14 00	 ret	 20			; 00000014H
?Create@CGfxOutBarCtrl@@QAEHKABUtagRECT@@PAVCWnd@@IK@Z ENDP ; CGfxOutBarCtrl::Create
_TEXT	ENDS
; Function compile flags: /Ogtp
; File D:\git\src\IBK\IBK_DRFN\ProjSrc\SrcDrfn\Chart\MULTICHART\control\GfxOutBarCtrl.cpp
;	COMDAT ?IsSmallIconView@CGfxOutBarCtrl@@QBE_NXZ
_TEXT	SEGMENT
?IsSmallIconView@CGfxOutBarCtrl@@QBE_NXZ PROC		; CGfxOutBarCtrl::IsSmallIconView, COMDAT
; _this$ = ecx

; 186  : 	return dwFlags&fSmallIcon;

  00000	8a 81 00 01 00
	00		 mov	 al, BYTE PTR [ecx+256]
  00006	24 01		 and	 al, 1

; 187  : }

  00008	c3		 ret	 0
?IsSmallIconView@CGfxOutBarCtrl@@QBE_NXZ ENDP		; CGfxOutBarCtrl::IsSmallIconView
_TEXT	ENDS
; Function compile flags: /Ogtp
; File D:\git\src\IBK\IBK_DRFN\ProjSrc\SrcDrfn\Chart\MULTICHART\control\GfxOutBarCtrl.cpp
;	COMDAT ?SetSmallIconView@CGfxOutBarCtrl@@QAEX_N@Z
_TEXT	SEGMENT
_rc$1 = -20						; size = 16
__$ArrayPad$ = -4					; size = 4
_bSet$ = 8						; size = 1
?SetSmallIconView@CGfxOutBarCtrl@@QAEX_N@Z PROC		; CGfxOutBarCtrl::SetSmallIconView, COMDAT
; _this$ = ecx

; 190  : {

  00000	55		 push	 ebp
  00001	8b ec		 mov	 ebp, esp
  00003	83 ec 14	 sub	 esp, 20			; 00000014H
  00006	a1 00 00 00 00	 mov	 eax, DWORD PTR ___security_cookie
  0000b	33 c5		 xor	 eax, ebp
  0000d	89 45 fc	 mov	 DWORD PTR __$ArrayPad$[ebp], eax

; 191  : 	iFirstItem = 0;
; 192  : 
; 193  : 	if (bSet)

  00010	80 7d 08 00	 cmp	 BYTE PTR _bSet$[ebp], 0
  00014	56		 push	 esi
  00015	8b f1		 mov	 esi, ecx
  00017	8a 86 00 01 00
	00		 mov	 al, BYTE PTR [esi+256]
  0001d	c7 86 20 01 00
	00 00 00 00 00	 mov	 DWORD PTR [esi+288], 0
  00027	74 0d		 je	 SHORT $LN2@SetSmallIc

; 186  : 	return dwFlags&fSmallIcon;

  00029	a8 01		 test	 al, 1

; 194  : 	{
; 195  : 		if (!IsSmallIconView()) 

  0002b	75 33		 jne	 SHORT $LN5@SetSmallIc

; 196  : 		{
; 197  : 			dwFlags |= fSmallIcon;

  0002d	83 8e 00 01 00
	00 01		 or	 DWORD PTR [esi+256], 1

; 198  : 			CRect rc;
; 199  : 			GetInsideRect(rc);
; 200  : 			InvalidateRect(rc, false);
; 201  : 		}
; 202  : 	}

  00034	eb 0b		 jmp	 SHORT $LN41@SetSmallIc
$LN2@SetSmallIc:

; 186  : 	return dwFlags&fSmallIcon;

  00036	a8 01		 test	 al, 1

; 203  : 	else
; 204  : 	{
; 205  : 		if (IsSmallIconView()) 

  00038	74 26		 je	 SHORT $LN5@SetSmallIc

; 206  : 		{
; 207  : 			dwFlags &= ~fSmallIcon;

  0003a	83 a6 00 01 00
	00 fe		 and	 DWORD PTR [esi+256], -2	; fffffffeH
$LN41@SetSmallIc:

; 208  : 			CRect rc;
; 209  : 			GetInsideRect(rc);
; 210  : 			InvalidateRect(rc, false);
; 211  : 		}
; 212  : 	}
; 213  : }

  00041	8d 45 ec	 lea	 eax, DWORD PTR _rc$1[ebp]
  00044	0f 57 c0	 xorps	 xmm0, xmm0
  00047	50		 push	 eax
  00048	0f 11 45 ec	 movups	 XMMWORD PTR _rc$1[ebp], xmm0
  0004c	e8 00 00 00 00	 call	 ?GetInsideRect@CGfxOutBarCtrl@@QBEXAAVCRect@@@Z ; CGfxOutBarCtrl::GetInsideRect
  00051	6a 00		 push	 0
  00053	8d 45 ec	 lea	 eax, DWORD PTR _rc$1[ebp]
  00056	50		 push	 eax
  00057	ff 76 20	 push	 DWORD PTR [esi+32]
  0005a	ff 15 00 00 00
	00		 call	 DWORD PTR __imp__InvalidateRect@12
$LN5@SetSmallIc:
  00060	8b 4d fc	 mov	 ecx, DWORD PTR __$ArrayPad$[ebp]
  00063	33 cd		 xor	 ecx, ebp
  00065	5e		 pop	 esi
  00066	e8 00 00 00 00	 call	 @__security_check_cookie@4
  0006b	8b e5		 mov	 esp, ebp
  0006d	5d		 pop	 ebp
  0006e	c2 04 00	 ret	 4
?SetSmallIconView@CGfxOutBarCtrl@@QAEX_N@Z ENDP		; CGfxOutBarCtrl::SetSmallIconView
_TEXT	ENDS
; Function compile flags: /Ogtp
; File D:\git\src\IBK\IBK_DRFN\ProjSrc\SrcDrfn\Chart\MULTICHART\control\GfxOutBarCtrl.cpp
;	COMDAT ?GetFlag@CGfxOutBarCtrl@@QBEKXZ
_TEXT	SEGMENT
?GetFlag@CGfxOutBarCtrl@@QBEKXZ PROC			; CGfxOutBarCtrl::GetFlag, COMDAT
; _this$ = ecx

; 217  : 	return dwFlags;

  00000	8b 81 00 01 00
	00		 mov	 eax, DWORD PTR [ecx+256]

; 218  : }

  00006	c3		 ret	 0
?GetFlag@CGfxOutBarCtrl@@QBEKXZ ENDP			; CGfxOutBarCtrl::GetFlag
_TEXT	ENDS
; Function compile flags: /Ogtp
; File D:\git\src\IBK\IBK_DRFN\ProjSrc\SrcDrfn\Chart\MULTICHART\control\GfxOutBarCtrl.cpp
; File C:\Program Files (x86)\Microsoft Visual Studio\2019\Community\VC\Tools\MSVC\14.29.30133\atlmfc\include\afxwin2.inl
; File D:\git\src\IBK\IBK_DRFN\ProjSrc\SrcDrfn\Chart\MULTICHART\control\GfxOutBarCtrl.cpp
; File C:\Program Files (x86)\Microsoft Visual Studio\2019\Community\VC\Tools\MSVC\14.29.30133\atlmfc\include\afxwin2.inl
; File D:\git\src\IBK\IBK_DRFN\ProjSrc\SrcDrfn\Chart\MULTICHART\control\GfxOutBarCtrl.cpp
; File C:\Program Files (x86)\Microsoft Visual Studio\2019\Community\VC\Tools\MSVC\14.29.30133\atlmfc\include\afxwin2.inl
; File D:\git\src\IBK\IBK_DRFN\ProjSrc\SrcDrfn\Chart\MULTICHART\control\GfxOutBarCtrl.cpp
;	COMDAT ?ModifyFlag@CGfxOutBarCtrl@@QAEXABK0I@Z
_TEXT	SEGMENT
_dwRemove$ = 8						; size = 4
_dwAdd$ = 12						; size = 4
_redraw$ = 16						; size = 4
?ModifyFlag@CGfxOutBarCtrl@@QAEXABK0I@Z PROC		; CGfxOutBarCtrl::ModifyFlag, COMDAT
; _this$ = ecx

; 221  : {

  00000	55		 push	 ebp
  00001	8b ec		 mov	 ebp, esp

; 222  : 	if (dwRemove)	dwFlags &= ~(dwRemove);

  00003	8b 45 08	 mov	 eax, DWORD PTR _dwRemove$[ebp]
  00006	8b 00		 mov	 eax, DWORD PTR [eax]
  00008	85 c0		 test	 eax, eax
  0000a	74 08		 je	 SHORT $LN15@ModifyFlag
  0000c	f7 d0		 not	 eax
  0000e	21 81 00 01 00
	00		 and	 DWORD PTR [ecx+256], eax
$LN15@ModifyFlag:

; 223  : 	if (dwAdd)		dwFlags |= dwAdd;

  00014	8b 45 0c	 mov	 eax, DWORD PTR _dwAdd$[ebp]
  00017	8b 00		 mov	 eax, DWORD PTR [eax]
  00019	85 c0		 test	 eax, eax
  0001b	74 06		 je	 SHORT $LN3@ModifyFlag
  0001d	09 81 00 01 00
	00		 or	 DWORD PTR [ecx+256], eax
$LN3@ModifyFlag:
; File C:\Program Files (x86)\Microsoft Visual Studio\2019\Community\VC\Tools\MSVC\14.29.30133\atlmfc\include\afxwin2.inl

; 25   : 	{ return this == NULL ? NULL : m_hWnd; }

  00023	85 c9		 test	 ecx, ecx
  00025	74 21		 je	 SHORT $LN6@ModifyFlag
  00027	8b 51 20	 mov	 edx, DWORD PTR [ecx+32]
; File D:\git\src\IBK\IBK_DRFN\ProjSrc\SrcDrfn\Chart\MULTICHART\control\GfxOutBarCtrl.cpp

; 225  : 	if (GetSafeHwnd())

  0002a	85 d2		 test	 edx, edx
  0002c	74 1a		 je	 SHORT $LN6@ModifyFlag

; 226  : 	{
; 227  : 		if (redraw != 0) SetWindowPos(0,0,0,0,0,SWP_NOZORDER|SWP_NOSIZE|SWP_NOMOVE|redraw);

  0002e	8b 45 10	 mov	 eax, DWORD PTR _redraw$[ebp]
  00031	85 c0		 test	 eax, eax
  00033	74 17		 je	 SHORT $LN5@ModifyFlag
  00035	83 c8 07	 or	 eax, 7
  00038	50		 push	 eax
  00039	6a 00		 push	 0
  0003b	6a 00		 push	 0
  0003d	6a 00		 push	 0
  0003f	6a 00		 push	 0
  00041	6a 00		 push	 0
  00043	e8 00 00 00 00	 call	 ?SetWindowPos@CWnd@@QAEHPBV1@HHHHI@Z ; CWnd::SetWindowPos
$LN6@ModifyFlag:

; 230  : }

  00048	5d		 pop	 ebp
  00049	c2 0c 00	 ret	 12			; 0000000cH
$LN5@ModifyFlag:
; File C:\Program Files (x86)\Microsoft Visual Studio\2019\Community\VC\Tools\MSVC\14.29.30133\atlmfc\include\afxwin2.inl

; 114  : 	{ ASSERT(::IsWindow(m_hWnd)); ::InvalidateRect(m_hWnd, NULL, bErase); }

  0004c	c7 45 10 01 00
	00 00		 mov	 DWORD PTR _redraw$[ebp], 1
  00053	c7 45 0c 00 00
	00 00		 mov	 DWORD PTR _dwAdd$[ebp], 0
  0005a	89 55 08	 mov	 DWORD PTR _dwRemove$[ebp], edx
; File D:\git\src\IBK\IBK_DRFN\ProjSrc\SrcDrfn\Chart\MULTICHART\control\GfxOutBarCtrl.cpp

; 230  : }

  0005d	5d		 pop	 ebp
; File C:\Program Files (x86)\Microsoft Visual Studio\2019\Community\VC\Tools\MSVC\14.29.30133\atlmfc\include\afxwin2.inl

; 114  : 	{ ASSERT(::IsWindow(m_hWnd)); ::InvalidateRect(m_hWnd, NULL, bErase); }

  0005e	ff 25 00 00 00
	00		 jmp	 DWORD PTR __imp__InvalidateRect@12
?ModifyFlag@CGfxOutBarCtrl@@QAEXABK0I@Z ENDP		; CGfxOutBarCtrl::ModifyFlag
_TEXT	ENDS
; Function compile flags: /Ogtp
; File D:\git\src\IBK\IBK_DRFN\ProjSrc\SrcDrfn\Chart\MULTICHART\control\GfxOutBarCtrl.cpp
; File C:\Program Files (x86)\Microsoft Visual Studio\2019\Community\VC\Tools\MSVC\14.29.30133\atlmfc\include\afxwin2.inl
; File C:\Program Files (x86)\Microsoft Visual Studio\2019\Community\VC\Tools\MSVC\14.29.30133\atlmfc\include\atltypes.h
; File C:\Program Files (x86)\Microsoft Visual Studio\2019\Community\VC\Tools\MSVC\14.29.30133\atlmfc\include\afxwin2.inl
; File C:\Program Files (x86)\Microsoft Visual Studio\2019\Community\VC\Tools\MSVC\14.29.30133\atlmfc\include\atltypes.h
; File D:\git\src\IBK\IBK_DRFN\ProjSrc\SrcDrfn\Chart\MULTICHART\control\GfxOutBarCtrl.cpp
; File C:\Program Files (x86)\Microsoft Visual Studio\2019\Community\VC\Tools\MSVC\14.29.30133\atlmfc\include\atltypes.h
; File D:\git\src\IBK\IBK_DRFN\ProjSrc\SrcDrfn\Chart\MULTICHART\control\GfxOutBarCtrl.cpp
; File C:\Program Files (x86)\Microsoft Visual Studio\2019\Community\VC\Tools\MSVC\14.29.30133\atlmfc\include\atltypes.h
; File D:\git\src\IBK\IBK_DRFN\ProjSrc\SrcDrfn\Chart\MULTICHART\control\GfxOutBarCtrl.cpp
;	COMDAT ?GetFolderRect@CGfxOutBarCtrl@@QBE_NHAAVCRect@@@Z
_TEXT	SEGMENT
_this$GSCopy$1$ = -28					; size = 4
_rect$GSCopy$1$ = -24					; size = 4
_rc$1 = -20						; size = 16
__$ArrayPad$ = -4					; size = 4
_iIndex$ = 8						; size = 4
_rect$ = 12						; size = 4
?GetFolderRect@CGfxOutBarCtrl@@QBE_NHAAVCRect@@@Z PROC	; CGfxOutBarCtrl::GetFolderRect, COMDAT
; _this$ = ecx

; 459  : {

  00000	55		 push	 ebp
  00001	8b ec		 mov	 ebp, esp
  00003	83 ec 1c	 sub	 esp, 28			; 0000001cH
  00006	a1 00 00 00 00	 mov	 eax, DWORD PTR ___security_cookie
  0000b	33 c5		 xor	 eax, ebp
  0000d	89 45 fc	 mov	 DWORD PTR __$ArrayPad$[ebp], eax
  00010	8b 45 0c	 mov	 eax, DWORD PTR _rect$[ebp]
  00013	53		 push	 ebx
  00014	56		 push	 esi
  00015	57		 push	 edi

; 460  : 	int max = arFolder.GetSize();
; 461  : 	ASSERT(iIndex >= 0 && iIndex < max);
; 462  : 
; 463  : 	if (iIndex >= 0 && iIndex < max)

  00016	8b 7d 08	 mov	 edi, DWORD PTR _iIndex$[ebp]
  00019	8b f1		 mov	 esi, ecx
  0001b	89 75 e4	 mov	 DWORD PTR _this$GSCopy$1$[ebp], esi
  0001e	89 45 e8	 mov	 DWORD PTR _rect$GSCopy$1$[ebp], eax
  00021	85 ff		 test	 edi, edi
  00023	0f 88 b6 00 00
	00		 js	 $LN2@GetFolderR
  00029	8b 9e 0c 01 00
	00		 mov	 ebx, DWORD PTR [esi+268]
  0002f	3b fb		 cmp	 edi, ebx
  00031	0f 8d a8 00 00
	00		 jge	 $LN2@GetFolderR
; File C:\Program Files (x86)\Microsoft Visual Studio\2019\Community\VC\Tools\MSVC\14.29.30133\atlmfc\include\afxwin2.inl

; 86   : 	{ ASSERT(::IsWindow(m_hWnd)); ::GetClientRect(m_hWnd, lpRect); }

  00037	8d 45 ec	 lea	 eax, DWORD PTR _rc$1[ebp]
  0003a	0f 57 c0	 xorps	 xmm0, xmm0
  0003d	50		 push	 eax
  0003e	ff 76 20	 push	 DWORD PTR [esi+32]
; File C:\Program Files (x86)\Microsoft Visual Studio\2019\Community\VC\Tools\MSVC\14.29.30133\atlmfc\include\atltypes.h

; 528  : 	left = 0;

  00041	0f 11 45 ec	 movups	 XMMWORD PTR _rc$1[ebp], xmm0
; File C:\Program Files (x86)\Microsoft Visual Studio\2019\Community\VC\Tools\MSVC\14.29.30133\atlmfc\include\afxwin2.inl

; 86   : 	{ ASSERT(::IsWindow(m_hWnd)); ::GetClientRect(m_hWnd, lpRect); }

  00045	ff 15 00 00 00
	00		 call	 DWORD PTR __imp__GetClientRect@8
; File C:\Program Files (x86)\Microsoft Visual Studio\2019\Community\VC\Tools\MSVC\14.29.30133\atlmfc\include\atltypes.h

; 698  : 	::InflateRect(this, -x, -y);

  0004b	6a fc		 push	 -4			; fffffffcH
  0004d	6a fc		 push	 -4			; fffffffcH
  0004f	8d 45 ec	 lea	 eax, DWORD PTR _rc$1[ebp]
  00052	50		 push	 eax
  00053	ff 15 00 00 00
	00		 call	 DWORD PTR __imp__InflateRect@12
; File D:\git\src\IBK\IBK_DRFN\ProjSrc\SrcDrfn\Chart\MULTICHART\control\GfxOutBarCtrl.cpp

; 468  : 		if (iIndex > iSelFolder)

  00059	8b 45 e4	 mov	 eax, DWORD PTR _this$GSCopy$1$[ebp]
  0005c	8b b6 a4 00 00
	00		 mov	 esi, DWORD PTR [esi+164]
  00062	03 b0 a0 00 00
	00		 add	 esi, DWORD PTR [eax+160]
  00068	3b b8 34 01 00
	00		 cmp	 edi, DWORD PTR [eax+308]
  0006e	7e 3a		 jle	 SHORT $LN3@GetFolderR

; 469  : 			rect.SetRect(rc.left, rc.bottom - ((max - iIndex)) * (iFolderHeight+iGap), rc.right, 

  00070	8b 55 f8	 mov	 edx, DWORD PTR _rc$1[ebp+12]
  00073	2b df		 sub	 ebx, edi
  00075	8b c2		 mov	 eax, edx
  00077	8d 4b ff	 lea	 ecx, DWORD PTR [ebx-1]
  0007a	0f af de	 imul	 ebx, esi
  0007d	0f af ce	 imul	 ecx, esi
  00080	2b d3		 sub	 edx, ebx
  00082	2b c1		 sub	 eax, ecx
; File C:\Program Files (x86)\Microsoft Visual Studio\2019\Community\VC\Tools\MSVC\14.29.30133\atlmfc\include\atltypes.h

; 657  : 	::SetRect(this, x1, y1, x2, y2);

  00084	50		 push	 eax
  00085	ff 75 f4	 push	 DWORD PTR _rc$1[ebp+8]
  00088	52		 push	 edx
; File D:\git\src\IBK\IBK_DRFN\ProjSrc\SrcDrfn\Chart\MULTICHART\control\GfxOutBarCtrl.cpp

; 474  : 		return true;

  00089	ff 75 ec	 push	 DWORD PTR _rc$1[ebp]
  0008c	ff 75 e8	 push	 DWORD PTR _rect$GSCopy$1$[ebp]
  0008f	ff 15 00 00 00
	00		 call	 DWORD PTR __imp__SetRect@20
  00095	5f		 pop	 edi

; 475  : 	}
; 476  : 	return false;
; 477  : }

  00096	5e		 pop	 esi
  00097	b0 01		 mov	 al, 1
  00099	5b		 pop	 ebx
  0009a	8b 4d fc	 mov	 ecx, DWORD PTR __$ArrayPad$[ebp]
  0009d	33 cd		 xor	 ecx, ebp
  0009f	e8 00 00 00 00	 call	 @__security_check_cookie@4
  000a4	8b e5		 mov	 esp, ebp
  000a6	5d		 pop	 ebp
  000a7	c2 08 00	 ret	 8
$LN3@GetFolderR:

; 470  : 			rc.bottom - (max - iIndex - 1) * (iFolderHeight+iGap));
; 471  : 		else 
; 472  : 			rect.SetRect(rc.left, rc.top + iIndex * (iFolderHeight+iGap), rc.right, 

  000aa	8d 47 01	 lea	 eax, DWORD PTR [edi+1]
  000ad	0f af c6	 imul	 eax, esi
  000b0	0f af f7	 imul	 esi, edi
  000b3	03 45 f0	 add	 eax, DWORD PTR _rc$1[ebp+4]
  000b6	03 75 f0	 add	 esi, DWORD PTR _rc$1[ebp+4]
; File C:\Program Files (x86)\Microsoft Visual Studio\2019\Community\VC\Tools\MSVC\14.29.30133\atlmfc\include\atltypes.h

; 657  : 	::SetRect(this, x1, y1, x2, y2);

  000b9	50		 push	 eax
  000ba	ff 75 f4	 push	 DWORD PTR _rc$1[ebp+8]
  000bd	56		 push	 esi
; File D:\git\src\IBK\IBK_DRFN\ProjSrc\SrcDrfn\Chart\MULTICHART\control\GfxOutBarCtrl.cpp

; 474  : 		return true;

  000be	ff 75 ec	 push	 DWORD PTR _rc$1[ebp]
  000c1	ff 75 e8	 push	 DWORD PTR _rect$GSCopy$1$[ebp]
  000c4	ff 15 00 00 00
	00		 call	 DWORD PTR __imp__SetRect@20
  000ca	5f		 pop	 edi

; 475  : 	}
; 476  : 	return false;
; 477  : }

  000cb	5e		 pop	 esi
  000cc	b0 01		 mov	 al, 1
  000ce	5b		 pop	 ebx
  000cf	8b 4d fc	 mov	 ecx, DWORD PTR __$ArrayPad$[ebp]
  000d2	33 cd		 xor	 ecx, ebp
  000d4	e8 00 00 00 00	 call	 @__security_check_cookie@4
  000d9	8b e5		 mov	 esp, ebp
  000db	5d		 pop	 ebp
  000dc	c2 08 00	 ret	 8
$LN2@GetFolderR:
  000df	8b 4d fc	 mov	 ecx, DWORD PTR __$ArrayPad$[ebp]
  000e2	32 c0		 xor	 al, al
  000e4	5f		 pop	 edi
  000e5	5e		 pop	 esi
  000e6	33 cd		 xor	 ecx, ebp
  000e8	5b		 pop	 ebx
  000e9	e8 00 00 00 00	 call	 @__security_check_cookie@4
  000ee	8b e5		 mov	 esp, ebp
  000f0	5d		 pop	 ebp
  000f1	c2 08 00	 ret	 8
?GetFolderRect@CGfxOutBarCtrl@@QBE_NHAAVCRect@@@Z ENDP	; CGfxOutBarCtrl::GetFolderRect
_TEXT	ENDS
; Function compile flags: /Ogtp
; File D:\git\src\IBK\IBK_DRFN\ProjSrc\SrcDrfn\Chart\MULTICHART\control\GfxOutBarCtrl.cpp
; File C:\Program Files (x86)\Microsoft Visual Studio\2019\Community\VC\Tools\MSVC\14.29.30133\atlmfc\include\atltypes.h
; File D:\git\src\IBK\IBK_DRFN\ProjSrc\SrcDrfn\Chart\MULTICHART\control\GfxOutBarCtrl.cpp
; File C:\Program Files (x86)\Microsoft Visual Studio\2019\Community\VC\Tools\MSVC\14.29.30133\atlmfc\include\atltypes.h
; File D:\git\src\IBK\IBK_DRFN\ProjSrc\SrcDrfn\Chart\MULTICHART\control\GfxOutBarCtrl.cpp
; File C:\Program Files (x86)\Microsoft Visual Studio\2019\Community\VC\Tools\MSVC\14.29.30133\atlmfc\include\atltypes.h
; File D:\git\src\IBK\IBK_DRFN\ProjSrc\SrcDrfn\Chart\MULTICHART\control\GfxOutBarCtrl.cpp
;	COMDAT ?GetItemRect@CGfxOutBarCtrl@@QAEXHHAAVCRect@@@Z
_TEXT	SEGMENT
$T1 = -52						; size = 8
tv270 = -44						; size = 8
$T2 = -44						; size = 8
_rect$GSCopy$1$ = -36					; size = 4
_y$1$ = -32						; size = 4
_iFolder$GSCopy$1$ = -28				; size = 4
_iIndex$GSCopy$1$ = -24					; size = 4
_rc$ = -20						; size = 16
__$ArrayPad$ = -4					; size = 4
_iFolder$ = 8						; size = 4
_iIndex$ = 12						; size = 4
_rect$ = 16						; size = 4
?GetItemRect@CGfxOutBarCtrl@@QAEXHHAAVCRect@@@Z PROC	; CGfxOutBarCtrl::GetItemRect, COMDAT
; _this$ = ecx

; 480  : {

  00000	55		 push	 ebp
  00001	8b ec		 mov	 ebp, esp
  00003	83 ec 34	 sub	 esp, 52			; 00000034H
  00006	a1 00 00 00 00	 mov	 eax, DWORD PTR ___security_cookie
  0000b	33 c5		 xor	 eax, ebp
  0000d	89 45 fc	 mov	 DWORD PTR __$ArrayPad$[ebp], eax
  00010	8b 45 08	 mov	 eax, DWORD PTR _iFolder$[ebp]
  00013	0f 57 c0	 xorps	 xmm0, xmm0
  00016	89 45 e4	 mov	 DWORD PTR _iFolder$GSCopy$1$[ebp], eax
  00019	8b 45 0c	 mov	 eax, DWORD PTR _iIndex$[ebp]
  0001c	53		 push	 ebx
  0001d	56		 push	 esi
  0001e	89 45 e8	 mov	 DWORD PTR _iIndex$GSCopy$1$[ebp], eax
  00021	8b f1		 mov	 esi, ecx
  00023	8b 45 10	 mov	 eax, DWORD PTR _rect$[ebp]
  00026	89 45 dc	 mov	 DWORD PTR _rect$GSCopy$1$[ebp], eax

; 482  : 	GetInsideRect(rc);

  00029	8d 45 ec	 lea	 eax, DWORD PTR _rc$[ebp]
  0002c	57		 push	 edi
  0002d	50		 push	 eax
; File C:\Program Files (x86)\Microsoft Visual Studio\2019\Community\VC\Tools\MSVC\14.29.30133\atlmfc\include\atltypes.h

; 528  : 	left = 0;

  0002e	0f 11 45 ec	 movups	 XMMWORD PTR _rc$[ebp], xmm0
; File D:\git\src\IBK\IBK_DRFN\ProjSrc\SrcDrfn\Chart\MULTICHART\control\GfxOutBarCtrl.cpp

; 482  : 	GetInsideRect(rc);

  00032	e8 00 00 00 00	 call	 ?GetInsideRect@CGfxOutBarCtrl@@QBEXAAVCRect@@@Z ; CGfxOutBarCtrl::GetInsideRect

; 483  : 
; 484  : 	int top = rc.top;
; 485  : 	CSize sz(0,0);
; 486  : 	int y = 0;
; 487  : 	for (int t = 0; t < iIndex; t++)

  00037	8b 45 e8	 mov	 eax, DWORD PTR _iIndex$GSCopy$1$[ebp]
  0003a	33 ff		 xor	 edi, edi
  0003c	8b 5d f0	 mov	 ebx, DWORD PTR _rc$[ebp+4]
  0003f	c7 45 e0 00 00
	00 00		 mov	 DWORD PTR _y$1$[ebp], 0
  00046	85 c0		 test	 eax, eax
  00048	7e 57		 jle	 SHORT $LN25@GetItemRec
  0004a	66 0f 1f 44 00
	00		 npad	 6
$LL4@GetItemRec:

; 488  : 	{
; 489  : 		sz = GetItemSize(iFolder, t, ircAll);

  00050	6a 03		 push	 3
  00052	57		 push	 edi
  00053	ff 75 e4	 push	 DWORD PTR _iFolder$GSCopy$1$[ebp]
  00056	8d 45 cc	 lea	 eax, DWORD PTR $T1[ebp]
  00059	8b ce		 mov	 ecx, esi
  0005b	50		 push	 eax
  0005c	e8 00 00 00 00	 call	 ?GetItemSize@CGfxOutBarCtrl@@QAE?AVCSize@@HHH@Z ; CGfxOutBarCtrl::GetItemSize

; 186  : 	return dwFlags&fSmallIcon;

  00061	f6 86 00 01 00
	00 01		 test	 BYTE PTR [esi+256], 1

; 488  : 	{
; 489  : 		sz = GetItemSize(iFolder, t, ircAll);

  00068	8b 08		 mov	 ecx, DWORD PTR [eax]
  0006a	8b 40 04	 mov	 eax, DWORD PTR [eax+4]
  0006d	89 4d d4	 mov	 DWORD PTR tv270[ebp], ecx
  00070	8d 0c 18	 lea	 ecx, DWORD PTR [eax+ebx]

; 490  : 		top += sz.cy;
; 491  : 
; 492  : 		if (IsSmallIconView()) 

  00073	74 08		 je	 SHORT $LN5@GetItemRec

; 493  : 		{
; 494  : 			top += ySmallIconSpacing; 

  00075	8b 86 b0 00 00
	00		 mov	 eax, DWORD PTR [esi+176]

; 495  : 		}

  0007b	eb 06		 jmp	 SHORT $LN6@GetItemRec
$LN5@GetItemRec:

; 496  : 		else 
; 497  : 		{
; 498  : 			top += yLargeIconSpacing;

  0007d	8b 86 b4 00 00
	00		 mov	 eax, DWORD PTR [esi+180]
$LN6@GetItemRec:

; 499  : 		}
; 500  : 		if (t == iFirstItem - 1) y = top - rc.top;

  00083	8d 1c 01	 lea	 ebx, DWORD PTR [ecx+eax]
  00086	8b 86 20 01 00
	00		 mov	 eax, DWORD PTR [esi+288]
  0008c	48		 dec	 eax
  0008d	3b f8		 cmp	 edi, eax
  0008f	75 08		 jne	 SHORT $LN2@GetItemRec
  00091	8b c3		 mov	 eax, ebx
  00093	2b 45 f0	 sub	 eax, DWORD PTR _rc$[ebp+4]
  00096	89 45 e0	 mov	 DWORD PTR _y$1$[ebp], eax
$LN2@GetItemRec:

; 483  : 
; 484  : 	int top = rc.top;
; 485  : 	CSize sz(0,0);
; 486  : 	int y = 0;
; 487  : 	for (int t = 0; t < iIndex; t++)

  00099	8b 45 e8	 mov	 eax, DWORD PTR _iIndex$GSCopy$1$[ebp]
  0009c	47		 inc	 edi
  0009d	3b f8		 cmp	 edi, eax
  0009f	7c af		 jl	 SHORT $LL4@GetItemRec
$LN25@GetItemRec:

; 502  : 	sz = GetItemSize(iFolder, iIndex, ircAll);

  000a1	6a 03		 push	 3
  000a3	50		 push	 eax
  000a4	ff 75 e4	 push	 DWORD PTR _iFolder$GSCopy$1$[ebp]
  000a7	8d 45 d4	 lea	 eax, DWORD PTR $T2[ebp]
  000aa	8b ce		 mov	 ecx, esi
  000ac	50		 push	 eax
  000ad	e8 00 00 00 00	 call	 ?GetItemSize@CGfxOutBarCtrl@@QAE?AVCSize@@HHH@Z ; CGfxOutBarCtrl::GetItemSize
; File C:\Program Files (x86)\Microsoft Visual Studio\2019\Community\VC\Tools\MSVC\14.29.30133\atlmfc\include\atltypes.h

; 657  : 	::SetRect(this, x1, y1, x2, y2);

  000b2	8b 4d ec	 mov	 ecx, DWORD PTR _rc$[ebp]
; File D:\git\src\IBK\IBK_DRFN\ProjSrc\SrcDrfn\Chart\MULTICHART\control\GfxOutBarCtrl.cpp

; 502  : 	sz = GetItemSize(iFolder, iIndex, ircAll);

  000b5	8b 10		 mov	 edx, DWORD PTR [eax]
  000b7	8b 40 04	 mov	 eax, DWORD PTR [eax+4]
  000ba	03 c3		 add	 eax, ebx
; File C:\Program Files (x86)\Microsoft Visual Studio\2019\Community\VC\Tools\MSVC\14.29.30133\atlmfc\include\atltypes.h

; 657  : 	::SetRect(this, x1, y1, x2, y2);

  000bc	50		 push	 eax
  000bd	8d 04 0a	 lea	 eax, DWORD PTR [edx+ecx]
  000c0	50		 push	 eax
  000c1	53		 push	 ebx
  000c2	8b 5d dc	 mov	 ebx, DWORD PTR _rect$GSCopy$1$[ebp]
  000c5	51		 push	 ecx
  000c6	53		 push	 ebx
  000c7	ff 15 00 00 00
	00		 call	 DWORD PTR __imp__SetRect@20
; File D:\git\src\IBK\IBK_DRFN\ProjSrc\SrcDrfn\Chart\MULTICHART\control\GfxOutBarCtrl.cpp

; 505  : 	rect.top -= y;

  000cd	8b 45 e0	 mov	 eax, DWORD PTR _y$1$[ebp]
  000d0	29 43 04	 sub	 DWORD PTR [ebx+4], eax

; 506  : 	rect.bottom -= y;

  000d3	29 43 0c	 sub	 DWORD PTR [ebx+12], eax

; 507  : 
; 508  : 	rect.left += xLeftMargin;

  000d6	8b 86 b8 00 00
	00		 mov	 eax, DWORD PTR [esi+184]
  000dc	01 03		 add	 DWORD PTR [ebx], eax

; 509  : 	rect.top  += yTopMargin;

  000de	8b 86 bc 00 00
	00		 mov	 eax, DWORD PTR [esi+188]
  000e4	01 43 04	 add	 DWORD PTR [ebx+4], eax

; 510  : 	rect.bottom += yTopMargin;

  000e7	8b 86 bc 00 00
	00		 mov	 eax, DWORD PTR [esi+188]
  000ed	01 43 0c	 add	 DWORD PTR [ebx+12], eax

; 186  : 	return dwFlags&fSmallIcon;

  000f0	f6 86 00 01 00
	00 01		 test	 BYTE PTR [esi+256], 1

; 511  : 
; 512  : 	if (!IsSmallIconView()) 

  000f7	75 0b		 jne	 SHORT $LN8@GetItemRec

; 513  : 	{
; 514  : 		rect.left = rc.left;

  000f9	8b 45 ec	 mov	 eax, DWORD PTR _rc$[ebp]
  000fc	89 03		 mov	 DWORD PTR [ebx], eax

; 515  : 		rect.right = rc.right;

  000fe	8b 45 f4	 mov	 eax, DWORD PTR _rc$[ebp+8]
  00101	89 43 08	 mov	 DWORD PTR [ebx+8], eax
$LN8@GetItemRec:

; 516  : 	}
; 517  : }

  00104	8b 4d fc	 mov	 ecx, DWORD PTR __$ArrayPad$[ebp]
  00107	5f		 pop	 edi
  00108	5e		 pop	 esi
  00109	33 cd		 xor	 ecx, ebp
  0010b	5b		 pop	 ebx
  0010c	e8 00 00 00 00	 call	 @__security_check_cookie@4
  00111	8b e5		 mov	 esp, ebp
  00113	5d		 pop	 ebp
  00114	c2 0c 00	 ret	 12			; 0000000cH
?GetItemRect@CGfxOutBarCtrl@@QAEXHHAAVCRect@@@Z ENDP	; CGfxOutBarCtrl::GetItemRect
_TEXT	ENDS
; Function compile flags: /Ogtp
; File D:\git\src\IBK\IBK_DRFN\ProjSrc\SrcDrfn\Chart\MULTICHART\control\GfxOutBarCtrl.cpp
; File C:\Program Files (x86)\Microsoft Visual Studio\2019\Community\VC\Tools\MSVC\14.29.30133\atlmfc\include\afxcoll.inl
; File D:\git\src\IBK\IBK_DRFN\ProjSrc\SrcDrfn\Chart\MULTICHART\control\GfxOutBarCtrl.cpp
;	COMDAT ?AddFolder@CGfxOutBarCtrl@@QAEHPBDK@Z
_TEXT	SEGMENT
$T2 = -16						; size = 4
__$EHRec$ = -12						; size = 12
_cFolderName$ = 8					; size = 4
_exData$ = 12						; size = 4
?AddFolder@CGfxOutBarCtrl@@QAEHPBDK@Z PROC		; CGfxOutBarCtrl::AddFolder, COMDAT
; _this$ = ecx

; 738  : {

  00000	55		 push	 ebp
  00001	8b ec		 mov	 ebp, esp
  00003	6a ff		 push	 -1
  00005	68 00 00 00 00	 push	 __ehhandler$?AddFolder@CGfxOutBarCtrl@@QAEHPBDK@Z
  0000a	64 a1 00 00 00
	00		 mov	 eax, DWORD PTR fs:0
  00010	50		 push	 eax
  00011	51		 push	 ecx
  00012	53		 push	 ebx
  00013	56		 push	 esi
  00014	57		 push	 edi
  00015	a1 00 00 00 00	 mov	 eax, DWORD PTR ___security_cookie
  0001a	33 c5		 xor	 eax, ebp
  0001c	50		 push	 eax
  0001d	8d 45 f4	 lea	 eax, DWORD PTR __$EHRec$[ebp]
  00020	64 a3 00 00 00
	00		 mov	 DWORD PTR fs:0, eax
  00026	8b d9		 mov	 ebx, ecx

; 739  : 	CBarFolder * pbf = new CBarFolder(cFolderName, exData);

  00028	6a 2c		 push	 44			; 0000002cH
  0002a	e8 00 00 00 00	 call	 ??2@YAPAXI@Z		; operator new
  0002f	8b f0		 mov	 esi, eax
  00031	83 c4 04	 add	 esp, 4
  00034	89 75 f0	 mov	 DWORD PTR $T2[ebp], esi
  00037	c7 45 fc 00 00
	00 00		 mov	 DWORD PTR __$EHRec$[ebp+8], 0
  0003e	85 f6		 test	 esi, esi
  00040	74 59		 je	 SHORT $LN3@AddFolder

; 747  : {

  00042	8d 4e 14	 lea	 ecx, DWORD PTR [esi+20]
  00045	c7 06 00 00 00
	00		 mov	 DWORD PTR [esi], OFFSET ??_7CBarFolder@CGfxOutBarCtrl@@6B@
  0004b	e8 00 00 00 00	 call	 ??0CPtrArray@@QAE@XZ	; CPtrArray::CPtrArray

; 748  : 	cName = NULL;
; 749  : 	dwData = exData;
; 750  : 
; 751  : 	if (name)

  00050	8b 7d 08	 mov	 edi, DWORD PTR _cFolderName$[ebp]
  00053	8b 45 0c	 mov	 eax, DWORD PTR _exData$[ebp]
  00056	c6 45 fc 01	 mov	 BYTE PTR __$EHRec$[ebp+8], 1
  0005a	c7 46 04 00 00
	00 00		 mov	 DWORD PTR [esi+4], 0
  00061	89 46 08	 mov	 DWORD PTR [esi+8], eax
  00064	85 ff		 test	 edi, edi
  00066	74 1c		 je	 SHORT $LN7@AddFolder

; 752  : 	{
; 753  : 		cName = new char[lstrlen(name)+1];

  00068	57		 push	 edi
  00069	ff 15 00 00 00
	00		 call	 DWORD PTR __imp__lstrlenA@4
  0006f	40		 inc	 eax
  00070	50		 push	 eax
  00071	e8 00 00 00 00	 call	 ??_U@YAPAXI@Z		; operator new[]
  00076	83 c4 04	 add	 esp, 4
  00079	89 46 04	 mov	 DWORD PTR [esi+4], eax

; 754  : 		ASSERT(cName);
; 755  : 		lstrcpy(cName, name);

  0007c	57		 push	 edi
  0007d	50		 push	 eax
  0007e	ff 15 00 00 00
	00		 call	 DWORD PTR __imp__lstrcpyA@8
$LN7@AddFolder:

; 756  : 	}
; 757  : 	pLargeImageList = NULL;

  00084	c7 46 0c 00 00
	00 00		 mov	 DWORD PTR [esi+12], 0

; 758  : 	pSmallImageList = NULL;

  0008b	c7 46 10 00 00
	00 00		 mov	 DWORD PTR [esi+16], 0

; 759  : 	pChild = NULL;

  00092	c7 46 28 00 00
	00 00		 mov	 DWORD PTR [esi+40], 0

; 739  : 	CBarFolder * pbf = new CBarFolder(cFolderName, exData);

  00099	eb 02		 jmp	 SHORT $LN4@AddFolder
$LN3@AddFolder:
  0009b	33 f6		 xor	 esi, esi
$LN4@AddFolder:

; 740  : 	ASSERT(pbf);
; 741  : 	arFolder.Add((void *)pbf);

  0009d	8d 8b 04 01 00
	00		 lea	 ecx, DWORD PTR [ebx+260]
  000a3	c7 45 fc ff ff
	ff ff		 mov	 DWORD PTR __$EHRec$[ebp+8], -1
; File C:\Program Files (x86)\Microsoft Visual Studio\2019\Community\VC\Tools\MSVC\14.29.30133\atlmfc\include\afxcoll.inl

; 223  : 		SetAtGrow(nIndex, newElement);

  000aa	56		 push	 esi
  000ab	ff 71 08	 push	 DWORD PTR [ecx+8]
  000ae	e8 00 00 00 00	 call	 ?SetAtGrow@CPtrArray@@QAEXHPAX@Z ; CPtrArray::SetAtGrow
; File D:\git\src\IBK\IBK_DRFN\ProjSrc\SrcDrfn\Chart\MULTICHART\control\GfxOutBarCtrl.cpp

; 743  : 	return arFolder.GetSize() - 1;

  000b3	8b 83 0c 01 00
	00		 mov	 eax, DWORD PTR [ebx+268]
  000b9	48		 dec	 eax

; 744  : }

  000ba	8b 4d f4	 mov	 ecx, DWORD PTR __$EHRec$[ebp]
  000bd	64 89 0d 00 00
	00 00		 mov	 DWORD PTR fs:0, ecx
  000c4	59		 pop	 ecx
  000c5	5f		 pop	 edi
  000c6	5e		 pop	 esi
  000c7	5b		 pop	 ebx
  000c8	8b e5		 mov	 esp, ebp
  000ca	5d		 pop	 ebp
  000cb	c2 08 00	 ret	 8
_TEXT	ENDS
;	COMDAT text$x
text$x	SEGMENT
__unwindfunclet$?AddFolder@CGfxOutBarCtrl@@QAEHPBDK@Z$0:
  00000	6a 2c		 push	 44			; 0000002cH
  00002	8b 45 f0	 mov	 eax, DWORD PTR $T2[ebp]
  00005	50		 push	 eax
  00006	e8 00 00 00 00	 call	 ??3@YAXPAXI@Z		; operator delete
  0000b	83 c4 08	 add	 esp, 8
  0000e	c3		 ret	 0
__unwindfunclet$?AddFolder@CGfxOutBarCtrl@@QAEHPBDK@Z$1:
  0000f	8b 4d f0	 mov	 ecx, DWORD PTR $T2[ebp]
  00012	83 c1 14	 add	 ecx, 20			; 00000014H
  00015	e9 00 00 00 00	 jmp	 ??1CPtrArray@@UAE@XZ	; CPtrArray::~CPtrArray
  0001a	cc		 int	 3
  0001b	cc		 int	 3
  0001c	cc		 int	 3
  0001d	cc		 int	 3
  0001e	cc		 int	 3
__ehhandler$?AddFolder@CGfxOutBarCtrl@@QAEHPBDK@Z:
  0001f	90		 npad	 1
  00020	90		 npad	 1
  00021	8b 54 24 08	 mov	 edx, DWORD PTR [esp+8]
  00025	8d 42 0c	 lea	 eax, DWORD PTR [edx+12]
  00028	8b 4a ec	 mov	 ecx, DWORD PTR [edx-20]
  0002b	33 c8		 xor	 ecx, eax
  0002d	e8 00 00 00 00	 call	 @__security_check_cookie@4
  00032	b8 00 00 00 00	 mov	 eax, OFFSET __ehfuncinfo$?AddFolder@CGfxOutBarCtrl@@QAEHPBDK@Z
  00037	e9 00 00 00 00	 jmp	 ___CxxFrameHandler3
text$x	ENDS
?AddFolder@CGfxOutBarCtrl@@QAEHPBDK@Z ENDP		; CGfxOutBarCtrl::AddFolder
; Function compile flags: /Ogtp
; File D:\git\src\IBK\IBK_DRFN\ProjSrc\SrcDrfn\Chart\MULTICHART\control\GfxOutBarCtrl.cpp
; File C:\Program Files (x86)\Microsoft Visual Studio\2019\Community\VC\Tools\MSVC\14.29.30133\atlmfc\include\afxwin2.inl
; File D:\git\src\IBK\IBK_DRFN\ProjSrc\SrcDrfn\Chart\MULTICHART\control\GfxOutBarCtrl.cpp
; File C:\Program Files (x86)\Microsoft Visual Studio\2019\Community\VC\Tools\MSVC\14.29.30133\atlmfc\include\afxwin2.inl
; File C:\Program Files (x86)\Microsoft Visual Studio\2019\Community\VC\Tools\MSVC\14.29.30133\atlmfc\include\atltypes.h
; File D:\git\src\IBK\IBK_DRFN\ProjSrc\SrcDrfn\Chart\MULTICHART\control\GfxOutBarCtrl.cpp
;	COMDAT ?GetInsideRect@CGfxOutBarCtrl@@QBEXAAVCRect@@@Z
_TEXT	SEGMENT
_rect$ = 8						; size = 4
?GetInsideRect@CGfxOutBarCtrl@@QBEXAAVCRect@@@Z PROC	; CGfxOutBarCtrl::GetInsideRect, COMDAT
; _this$ = ecx

; 780  : {

  00000	55		 push	 ebp
  00001	8b ec		 mov	 ebp, esp
  00003	53		 push	 ebx
  00004	57		 push	 edi
; File C:\Program Files (x86)\Microsoft Visual Studio\2019\Community\VC\Tools\MSVC\14.29.30133\atlmfc\include\afxwin2.inl

; 86   : 	{ ASSERT(::IsWindow(m_hWnd)); ::GetClientRect(m_hWnd, lpRect); }

  00005	8b 7d 08	 mov	 edi, DWORD PTR _rect$[ebp]
; File D:\git\src\IBK\IBK_DRFN\ProjSrc\SrcDrfn\Chart\MULTICHART\control\GfxOutBarCtrl.cpp

; 780  : {

  00008	8b d9		 mov	 ebx, ecx
; File C:\Program Files (x86)\Microsoft Visual Studio\2019\Community\VC\Tools\MSVC\14.29.30133\atlmfc\include\afxwin2.inl

; 86   : 	{ ASSERT(::IsWindow(m_hWnd)); ::GetClientRect(m_hWnd, lpRect); }

  0000a	57		 push	 edi
  0000b	ff 73 20	 push	 DWORD PTR [ebx+32]
  0000e	ff 15 00 00 00
	00		 call	 DWORD PTR __imp__GetClientRect@8
; File C:\Program Files (x86)\Microsoft Visual Studio\2019\Community\VC\Tools\MSVC\14.29.30133\atlmfc\include\atltypes.h

; 698  : 	::InflateRect(this, -x, -y);

  00014	6a fc		 push	 -4			; fffffffcH
  00016	6a fc		 push	 -4			; fffffffcH
  00018	57		 push	 edi
  00019	ff 15 00 00 00
	00		 call	 DWORD PTR __imp__InflateRect@12
; File D:\git\src\IBK\IBK_DRFN\ProjSrc\SrcDrfn\Chart\MULTICHART\control\GfxOutBarCtrl.cpp

; 783  : 	if (arFolder.GetSize() > 0)

  0001f	8b 8b 0c 01 00
	00		 mov	 ecx, DWORD PTR [ebx+268]
  00025	85 c9		 test	 ecx, ecx
  00027	7e 3f		 jle	 SHORT $LN2@GetInsideR

; 784  : 	{
; 785  : 		int max = arFolder.GetSize();
; 786  : 		rect.top += iFolderHeight * (iSelFolder + 1);

  00029	8b 83 34 01 00
	00		 mov	 eax, DWORD PTR [ebx+308]

; 787  : 		if(iSelFolder == arFolder.GetSize() - 1)

  0002f	8b 57 0c	 mov	 edx, DWORD PTR [edi+12]
  00032	40		 inc	 eax
  00033	0f af 83 a0 00
	00 00		 imul	 eax, DWORD PTR [ebx+160]
  0003a	01 47 04	 add	 DWORD PTR [edi+4], eax
  0003d	2b 8b 34 01 00
	00		 sub	 ecx, DWORD PTR [ebx+308]
  00043	8b 83 0c 01 00
	00		 mov	 eax, DWORD PTR [ebx+268]
  00049	49		 dec	 ecx
  0004a	0f af 8b a0 00
	00 00		 imul	 ecx, DWORD PTR [ebx+160]
  00051	48		 dec	 eax
  00052	2b d1		 sub	 edx, ecx

; 788  : 			rect.bottom -= (max - iSelFolder - 1)*iFolderHeight + 1;
; 789  : 		else
; 790  : 			rect.bottom -= (max - iSelFolder - 1)*iFolderHeight;
; 791  : 		rect.left += 1;//+ 2;

  00054	39 83 34 01 00
	00		 cmp	 DWORD PTR [ebx+308], eax
  0005a	8d 4a ff	 lea	 ecx, DWORD PTR [edx-1]
  0005d	0f 45 ca	 cmovne	 ecx, edx
  00060	ff 07		 inc	 DWORD PTR [edi]

; 792  : 		rect.right -= 1;

  00062	ff 4f 08	 dec	 DWORD PTR [edi+8]
  00065	89 4f 0c	 mov	 DWORD PTR [edi+12], ecx
$LN2@GetInsideR:

; 793  : 
; 794  : 		//rect.top += (iFolderHeight+iGap) * (iSelFolder + 1);
; 795  : 		//rect.bottom -= (max - iSelFolder - 1)*(iFolderHeight+iGap) + 2;
; 796  : 		return;
; 797  : 	}
; 798  : }

  00068	5f		 pop	 edi
  00069	5b		 pop	 ebx
  0006a	5d		 pop	 ebp
  0006b	c2 04 00	 ret	 4
?GetInsideRect@CGfxOutBarCtrl@@QBEXAAVCRect@@@Z ENDP	; CGfxOutBarCtrl::GetInsideRect
_TEXT	ENDS
; Function compile flags: /Ogtp
; File D:\git\src\IBK\IBK_DRFN\ProjSrc\SrcDrfn\Chart\MULTICHART\control\GfxOutBarCtrl.cpp
; File C:\Program Files (x86)\Microsoft Visual Studio\2019\Community\VC\Tools\MSVC\14.29.30133\atlmfc\include\atltypes.h
; File D:\git\src\IBK\IBK_DRFN\ProjSrc\SrcDrfn\Chart\MULTICHART\control\GfxOutBarCtrl.cpp
; File C:\Program Files (x86)\Microsoft Visual Studio\2019\Community\VC\Tools\MSVC\14.29.30133\atlmfc\include\atltypes.h
; File D:\git\src\IBK\IBK_DRFN\ProjSrc\SrcDrfn\Chart\MULTICHART\control\GfxOutBarCtrl.cpp
; File C:\Program Files (x86)\Microsoft Visual Studio\2019\Community\VC\Tools\MSVC\14.29.30133\atlmfc\include\atltypes.h
; File D:\git\src\IBK\IBK_DRFN\ProjSrc\SrcDrfn\Chart\MULTICHART\control\GfxOutBarCtrl.cpp
; File C:\Program Files (x86)\Microsoft Visual Studio\2019\Community\VC\Tools\MSVC\14.29.30133\atlmfc\include\atltypes.h
; File D:\git\src\IBK\IBK_DRFN\ProjSrc\SrcDrfn\Chart\MULTICHART\control\GfxOutBarCtrl.cpp
; File C:\Program Files (x86)\Microsoft Visual Studio\2019\Community\VC\Tools\MSVC\14.29.30133\atlmfc\include\atltypes.h
; File D:\git\src\IBK\IBK_DRFN\ProjSrc\SrcDrfn\Chart\MULTICHART\control\GfxOutBarCtrl.cpp
; File C:\Program Files (x86)\Microsoft Visual Studio\2019\Community\VC\Tools\MSVC\14.29.30133\atlmfc\include\atltypes.h
; File D:\git\src\IBK\IBK_DRFN\ProjSrc\SrcDrfn\Chart\MULTICHART\control\GfxOutBarCtrl.cpp
; File C:\Program Files (x86)\Microsoft Visual Studio\2019\Community\VC\Tools\MSVC\14.29.30133\atlmfc\include\afxcoll.inl
; File D:\git\src\IBK\IBK_DRFN\ProjSrc\SrcDrfn\Chart\MULTICHART\control\GfxOutBarCtrl.cpp
; File C:\Program Files (x86)\Microsoft Visual Studio\2019\Community\VC\Tools\MSVC\14.29.30133\atlmfc\include\afxcoll.inl
; File D:\git\src\IBK\IBK_DRFN\ProjSrc\SrcDrfn\Chart\MULTICHART\control\GfxOutBarCtrl.cpp
; File C:\Program Files (x86)\Microsoft Visual Studio\2019\Community\VC\Tools\MSVC\14.29.30133\atlmfc\include\afxcoll.inl
; File D:\git\src\IBK\IBK_DRFN\ProjSrc\SrcDrfn\Chart\MULTICHART\control\GfxOutBarCtrl.cpp
; File C:\Program Files (x86)\Microsoft Visual Studio\2019\Community\VC\Tools\MSVC\14.29.30133\atlmfc\include\afxcoll.inl
; File D:\git\src\IBK\IBK_DRFN\ProjSrc\SrcDrfn\Chart\MULTICHART\control\GfxOutBarCtrl.cpp
; File C:\Program Files (x86)\Microsoft Visual Studio\2019\Community\VC\Tools\MSVC\14.29.30133\atlmfc\include\atltypes.h
; File D:\git\src\IBK\IBK_DRFN\ProjSrc\SrcDrfn\Chart\MULTICHART\control\GfxOutBarCtrl.cpp
; File C:\Program Files (x86)\Microsoft Visual Studio\2019\Community\VC\Tools\MSVC\14.29.30133\atlmfc\include\atltypes.h
; File D:\git\src\IBK\IBK_DRFN\ProjSrc\SrcDrfn\Chart\MULTICHART\control\GfxOutBarCtrl.cpp
; File C:\Program Files (x86)\Microsoft Visual Studio\2019\Community\VC\Tools\MSVC\14.29.30133\atlmfc\include\atltypes.h
; File D:\git\src\IBK\IBK_DRFN\ProjSrc\SrcDrfn\Chart\MULTICHART\control\GfxOutBarCtrl.cpp
; File C:\Program Files (x86)\Microsoft Visual Studio\2019\Community\VC\Tools\MSVC\14.29.30133\atlmfc\include\atltypes.h
; File D:\git\src\IBK\IBK_DRFN\ProjSrc\SrcDrfn\Chart\MULTICHART\control\GfxOutBarCtrl.cpp
; File C:\Program Files (x86)\Microsoft Visual Studio\2019\Community\VC\Tools\MSVC\14.29.30133\atlmfc\include\atltypes.h
; File D:\git\src\IBK\IBK_DRFN\ProjSrc\SrcDrfn\Chart\MULTICHART\control\GfxOutBarCtrl.cpp
;	COMDAT ?HitTestEx@CGfxOutBarCtrl@@QAEHABVCPoint@@AAH@Z
_TEXT	SEGMENT
_index$GSCopy$1$ = -48					; size = 4
_pbf$1$ = -44						; size = 4
_f$ = -44						; size = 4
_max$2$ = -40						; size = 4
_max$1$ = -40						; size = 4
_l$ = -40						; size = 4
_rc$ = -36						; size = 16
_itemRc$1 = -20						; size = 16
__$ArrayPad$ = -4					; size = 4
_point$ = 8						; size = 4
_index$ = 12						; size = 4
?HitTestEx@CGfxOutBarCtrl@@QAEHABVCPoint@@AAH@Z PROC	; CGfxOutBarCtrl::HitTestEx, COMDAT
; _this$ = ecx

; 822  : {

  00000	55		 push	 ebp
  00001	8b ec		 mov	 ebp, esp
  00003	83 ec 30	 sub	 esp, 48			; 00000030H
  00006	a1 00 00 00 00	 mov	 eax, DWORD PTR ___security_cookie
  0000b	33 c5		 xor	 eax, ebp
  0000d	89 45 fc	 mov	 DWORD PTR __$ArrayPad$[ebp], eax
  00010	8b 45 0c	 mov	 eax, DWORD PTR _index$[ebp]
  00013	53		 push	 ebx
  00014	8b 5d 08	 mov	 ebx, DWORD PTR _point$[ebp]
  00017	56		 push	 esi
  00018	8b f1		 mov	 esi, ecx
  0001a	89 45 d0	 mov	 DWORD PTR _index$GSCopy$1$[ebp], eax

; 823  : 	if (bUpArrow && rcUpArrow.PtInRect(point)) return htUpScroll;

  0001d	8b 0d 00 00 00
	00		 mov	 ecx, DWORD PTR __imp__PtInRect@12
  00023	80 be c0 00 00
	00 00		 cmp	 BYTE PTR [esi+192], 0
  0002a	74 2f		 je	 SHORT $LN8@HitTestEx
; File C:\Program Files (x86)\Microsoft Visual Studio\2019\Community\VC\Tools\MSVC\14.29.30133\atlmfc\include\atltypes.h

; 648  : 	return ::PtInRect(this, point);

  0002c	ff 73 04	 push	 DWORD PTR [ebx+4]
; File D:\git\src\IBK\IBK_DRFN\ProjSrc\SrcDrfn\Chart\MULTICHART\control\GfxOutBarCtrl.cpp

; 823  : 	if (bUpArrow && rcUpArrow.PtInRect(point)) return htUpScroll;

  0002f	8d 86 c4 00 00
	00		 lea	 eax, DWORD PTR [esi+196]
; File C:\Program Files (x86)\Microsoft Visual Studio\2019\Community\VC\Tools\MSVC\14.29.30133\atlmfc\include\atltypes.h

; 648  : 	return ::PtInRect(this, point);

  00035	ff 33		 push	 DWORD PTR [ebx]
  00037	50		 push	 eax
  00038	ff d1		 call	 ecx
; File D:\git\src\IBK\IBK_DRFN\ProjSrc\SrcDrfn\Chart\MULTICHART\control\GfxOutBarCtrl.cpp

; 823  : 	if (bUpArrow && rcUpArrow.PtInRect(point)) return htUpScroll;

  0003a	85 c0		 test	 eax, eax
  0003c	74 17		 je	 SHORT $LN83@HitTestEx
  0003e	5e		 pop	 esi
  0003f	b8 02 00 00 00	 mov	 eax, 2

; 889  : }

  00044	5b		 pop	 ebx
  00045	8b 4d fc	 mov	 ecx, DWORD PTR __$ArrayPad$[ebp]
  00048	33 cd		 xor	 ecx, ebp
  0004a	e8 00 00 00 00	 call	 @__security_check_cookie@4
  0004f	8b e5		 mov	 esp, ebp
  00051	5d		 pop	 ebp
  00052	c2 08 00	 ret	 8
$LN83@HitTestEx:

; 823  : 	if (bUpArrow && rcUpArrow.PtInRect(point)) return htUpScroll;

  00055	8b 0d 00 00 00
	00		 mov	 ecx, DWORD PTR __imp__PtInRect@12
$LN8@HitTestEx:

; 824  : 	if (bDownArrow && rcDownArrow.PtInRect(point)) return htDownScroll;

  0005b	80 be c1 00 00
	00 00		 cmp	 BYTE PTR [esi+193], 0
  00062	74 29		 je	 SHORT $LN9@HitTestEx
; File C:\Program Files (x86)\Microsoft Visual Studio\2019\Community\VC\Tools\MSVC\14.29.30133\atlmfc\include\atltypes.h

; 648  : 	return ::PtInRect(this, point);

  00064	ff 73 04	 push	 DWORD PTR [ebx+4]
; File D:\git\src\IBK\IBK_DRFN\ProjSrc\SrcDrfn\Chart\MULTICHART\control\GfxOutBarCtrl.cpp

; 824  : 	if (bDownArrow && rcDownArrow.PtInRect(point)) return htDownScroll;

  00067	8d 86 d4 00 00
	00		 lea	 eax, DWORD PTR [esi+212]
; File C:\Program Files (x86)\Microsoft Visual Studio\2019\Community\VC\Tools\MSVC\14.29.30133\atlmfc\include\atltypes.h

; 648  : 	return ::PtInRect(this, point);

  0006d	ff 33		 push	 DWORD PTR [ebx]
  0006f	50		 push	 eax
  00070	ff d1		 call	 ecx
; File D:\git\src\IBK\IBK_DRFN\ProjSrc\SrcDrfn\Chart\MULTICHART\control\GfxOutBarCtrl.cpp

; 824  : 	if (bDownArrow && rcDownArrow.PtInRect(point)) return htDownScroll;

  00072	85 c0		 test	 eax, eax
  00074	74 17		 je	 SHORT $LN9@HitTestEx
  00076	5e		 pop	 esi
  00077	b8 03 00 00 00	 mov	 eax, 3

; 889  : }

  0007c	5b		 pop	 ebx
  0007d	8b 4d fc	 mov	 ecx, DWORD PTR __$ArrayPad$[ebp]
  00080	33 cd		 xor	 ecx, ebp
  00082	e8 00 00 00 00	 call	 @__security_check_cookie@4
  00087	8b e5		 mov	 esp, ebp
  00089	5d		 pop	 ebp
  0008a	c2 08 00	 ret	 8
$LN9@HitTestEx:

; 825  : 
; 826  : 	int max = arFolder.GetSize(), t;

  0008d	8b 86 0c 01 00
	00		 mov	 eax, DWORD PTR [esi+268]
  00093	89 45 d8	 mov	 DWORD PTR _max$2$[ebp], eax

; 827  : 	//max 1  .
; 828  : 	if (max <1)	return -1;

  00096	83 f8 01	 cmp	 eax, 1
  00099	7d 15		 jge	 SHORT $LN10@HitTestEx
  0009b	5e		 pop	 esi
  0009c	83 c8 ff	 or	 eax, -1

; 889  : }

  0009f	5b		 pop	 ebx
  000a0	8b 4d fc	 mov	 ecx, DWORD PTR __$ArrayPad$[ebp]
  000a3	33 cd		 xor	 ecx, ebp
  000a5	e8 00 00 00 00	 call	 @__security_check_cookie@4
  000aa	8b e5		 mov	 esp, ebp
  000ac	5d		 pop	 ebp
  000ad	c2 08 00	 ret	 8
$LN10@HitTestEx:
  000b0	0f 57 c0	 xorps	 xmm0, xmm0
  000b3	57		 push	 edi
; File C:\Program Files (x86)\Microsoft Visual Studio\2019\Community\VC\Tools\MSVC\14.29.30133\atlmfc\include\atltypes.h

; 528  : 	left = 0;

  000b4	0f 11 45 dc	 movups	 XMMWORD PTR _rc$[ebp], xmm0
; File D:\git\src\IBK\IBK_DRFN\ProjSrc\SrcDrfn\Chart\MULTICHART\control\GfxOutBarCtrl.cpp

; 831  : 	for (t = 0; t < max; t++)

  000b8	33 ff		 xor	 edi, edi
  000ba	66 0f 1f 44 00
	00		 npad	 6
$LL4@HitTestEx:

; 832  : 	{
; 833  : 		GetFolderRect(t, rc);

  000c0	8d 45 dc	 lea	 eax, DWORD PTR _rc$[ebp]
  000c3	8b ce		 mov	 ecx, esi
  000c5	50		 push	 eax
  000c6	57		 push	 edi
  000c7	e8 00 00 00 00	 call	 ?GetFolderRect@CGfxOutBarCtrl@@QBE_NHAAVCRect@@@Z ; CGfxOutBarCtrl::GetFolderRect
; File C:\Program Files (x86)\Microsoft Visual Studio\2019\Community\VC\Tools\MSVC\14.29.30133\atlmfc\include\atltypes.h

; 648  : 	return ::PtInRect(this, point);

  000cc	ff 73 04	 push	 DWORD PTR [ebx+4]
  000cf	8d 45 dc	 lea	 eax, DWORD PTR _rc$[ebp]
  000d2	ff 33		 push	 DWORD PTR [ebx]
  000d4	50		 push	 eax
  000d5	ff 15 00 00 00
	00		 call	 DWORD PTR __imp__PtInRect@12
; File D:\git\src\IBK\IBK_DRFN\ProjSrc\SrcDrfn\Chart\MULTICHART\control\GfxOutBarCtrl.cpp

; 834  : 		if (rc.PtInRect(point)) 

  000db	85 c0		 test	 eax, eax
  000dd	0f 85 81 01 00
	00		 jne	 $LN64@HitTestEx

; 831  : 	for (t = 0; t < max; t++)

  000e3	47		 inc	 edi
  000e4	3b 7d d8	 cmp	 edi, DWORD PTR _max$2$[ebp]
  000e7	7c d7		 jl	 SHORT $LL4@HitTestEx

; 837  : 			return htFolder;
; 838  : 		}
; 839  : 	}
; 840  : 	
; 841  : 	GetInsideRect(rc);	

  000e9	8d 45 dc	 lea	 eax, DWORD PTR _rc$[ebp]
  000ec	8b ce		 mov	 ecx, esi
  000ee	50		 push	 eax
  000ef	e8 00 00 00 00	 call	 ?GetInsideRect@CGfxOutBarCtrl@@QBEXAAVCRect@@@Z ; CGfxOutBarCtrl::GetInsideRect

; 842  : 
; 843  : 	int f=0,l=0;
; 844  : 	GetVisibleRange(iSelFolder, f,l);

  000f4	8d 45 d8	 lea	 eax, DWORD PTR _l$[ebp]
  000f7	c7 45 d4 00 00
	00 00		 mov	 DWORD PTR _f$[ebp], 0
  000fe	50		 push	 eax
  000ff	8d 45 d4	 lea	 eax, DWORD PTR _f$[ebp]
  00102	c7 45 d8 00 00
	00 00		 mov	 DWORD PTR _l$[ebp], 0
  00109	50		 push	 eax
  0010a	ff b6 34 01 00
	00		 push	 DWORD PTR [esi+308]
  00110	8b ce		 mov	 ecx, esi
  00112	e8 00 00 00 00	 call	 ?GetVisibleRange@CGfxOutBarCtrl@@QAEXHAAH0@Z ; CGfxOutBarCtrl::GetVisibleRange

; 845  : 
; 846  : 	if (f > 0)

  00117	83 7d d4 00	 cmp	 DWORD PTR _f$[ebp], 0
  0011b	7e 0f		 jle	 SHORT $LN79@HitTestEx

; 847  : 		rc.top += (iFolderHeight+iGap);

  0011d	8b 86 a4 00 00
	00		 mov	 eax, DWORD PTR [esi+164]
  00123	03 86 a0 00 00
	00		 add	 eax, DWORD PTR [esi+160]
  00129	01 45 e0	 add	 DWORD PTR _rc$[ebp+4], eax
$LN79@HitTestEx:

; 1502 : 	CBarFolder * pbf = (CBarFolder *) arFolder.GetAt(iSelFolder);

  0012c	8b 8e 34 01 00
	00		 mov	 ecx, DWORD PTR [esi+308]
; File C:\Program Files (x86)\Microsoft Visual Studio\2019\Community\VC\Tools\MSVC\14.29.30133\atlmfc\include\afxcoll.inl

; 203  : 		if( nIndex < 0 || nIndex >= m_nSize )

  00132	85 c9		 test	 ecx, ecx
  00134	0f 88 44 01 00
	00		 js	 $LN48@HitTestEx
  0013a	3b 8e 0c 01 00
	00		 cmp	 ecx, DWORD PTR [esi+268]
  00140	0f 8d 38 01 00
	00		 jge	 $LN48@HitTestEx

; 205  : 		return m_pData[nIndex]; }

  00146	8b 96 08 01 00
	00		 mov	 edx, DWORD PTR [esi+264]
; File D:\git\src\IBK\IBK_DRFN\ProjSrc\SrcDrfn\Chart\MULTICHART\control\GfxOutBarCtrl.cpp

; 849  : 	if (l < GetItemCount() - 1)

  0014c	8b 04 8a	 mov	 eax, DWORD PTR [edx+ecx*4]
  0014f	8b 40 1c	 mov	 eax, DWORD PTR [eax+28]
  00152	48		 dec	 eax
  00153	39 45 d8	 cmp	 DWORD PTR _l$[ebp], eax
  00156	7d 0f		 jge	 SHORT $LN13@HitTestEx

; 850  : 		rc.bottom -= (iFolderHeight+iGap);

  00158	8b 86 a4 00 00
	00		 mov	 eax, DWORD PTR [esi+164]
  0015e	03 86 a0 00 00
	00		 add	 eax, DWORD PTR [esi+160]
  00164	29 45 e8	 sub	 DWORD PTR _rc$[ebp+12], eax
$LN13@HitTestEx:
; File C:\Program Files (x86)\Microsoft Visual Studio\2019\Community\VC\Tools\MSVC\14.29.30133\atlmfc\include\afxcoll.inl

; 205  : 		return m_pData[nIndex]; }

  00167	8b 04 8a	 mov	 eax, DWORD PTR [edx+ecx*4]
; File D:\git\src\IBK\IBK_DRFN\ProjSrc\SrcDrfn\Chart\MULTICHART\control\GfxOutBarCtrl.cpp

; 854  : 	for (t = iFirstItem; t < max; t++)

  0016a	8b be 20 01 00
	00		 mov	 edi, DWORD PTR [esi+288]
; File C:\Program Files (x86)\Microsoft Visual Studio\2019\Community\VC\Tools\MSVC\14.29.30133\atlmfc\include\afxcoll.inl

; 205  : 		return m_pData[nIndex]; }

  00170	89 45 d4	 mov	 DWORD PTR _pbf$1$[ebp], eax
; File D:\git\src\IBK\IBK_DRFN\ProjSrc\SrcDrfn\Chart\MULTICHART\control\GfxOutBarCtrl.cpp

; 853  : 	max = pbf->GetItemCount();

  00173	8b 48 1c	 mov	 ecx, DWORD PTR [eax+28]
  00176	89 4d d8	 mov	 DWORD PTR _max$1$[ebp], ecx

; 854  : 	for (t = iFirstItem; t < max; t++)

  00179	3b f9		 cmp	 edi, ecx
  0017b	0f 8d cd 00 00
	00		 jge	 $LN6@HitTestEx
$LL7@HitTestEx:
; File C:\Program Files (x86)\Microsoft Visual Studio\2019\Community\VC\Tools\MSVC\14.29.30133\atlmfc\include\afxcoll.inl

; 203  : 		if( nIndex < 0 || nIndex >= m_nSize )

  00181	85 ff		 test	 edi, edi
  00183	0f 88 f5 00 00
	00		 js	 $LN48@HitTestEx
  00189	3b 78 1c	 cmp	 edi, DWORD PTR [eax+28]
  0018c	0f 8d ec 00 00
	00		 jge	 $LN48@HitTestEx
; File D:\git\src\IBK\IBK_DRFN\ProjSrc\SrcDrfn\Chart\MULTICHART\control\GfxOutBarCtrl.cpp

; 186  : 	return dwFlags&fSmallIcon;

  00192	f6 86 00 01 00
	00 01		 test	 BYTE PTR [esi+256], 1

; 858  : 		if (!IsSmallIconView()) 

  00199	8d 4d ec	 lea	 ecx, DWORD PTR _itemRc$1[ebp]

; 186  : 	return dwFlags&fSmallIcon;

  0019c	8b 86 34 01 00
	00		 mov	 eax, DWORD PTR [esi+308]
  001a2	0f 57 c0	 xorps	 xmm0, xmm0

; 858  : 		if (!IsSmallIconView()) 

  001a5	51		 push	 ecx
  001a6	57		 push	 edi
; File C:\Program Files (x86)\Microsoft Visual Studio\2019\Community\VC\Tools\MSVC\14.29.30133\atlmfc\include\atltypes.h

; 528  : 	left = 0;

  001a7	0f 11 45 ec	 movups	 XMMWORD PTR _itemRc$1[ebp], xmm0
; File D:\git\src\IBK\IBK_DRFN\ProjSrc\SrcDrfn\Chart\MULTICHART\control\GfxOutBarCtrl.cpp

; 858  : 		if (!IsSmallIconView()) 

  001ab	8b ce		 mov	 ecx, esi
  001ad	50		 push	 eax
  001ae	75 40		 jne	 SHORT $LN14@HitTestEx

; 859  : 		{
; 860  : 			GetIconRect(iSelFolder, t, itemRc);

  001b0	e8 00 00 00 00	 call	 ?GetIconRect@CGfxOutBarCtrl@@QAEXHHAAVCRect@@@Z ; CGfxOutBarCtrl::GetIconRect
; File C:\Program Files (x86)\Microsoft Visual Studio\2019\Community\VC\Tools\MSVC\14.29.30133\atlmfc\include\atltypes.h

; 648  : 	return ::PtInRect(this, point);

  001b5	ff 73 04	 push	 DWORD PTR [ebx+4]
  001b8	8d 45 ec	 lea	 eax, DWORD PTR _itemRc$1[ebp]
  001bb	ff 33		 push	 DWORD PTR [ebx]
  001bd	50		 push	 eax
  001be	ff 15 00 00 00
	00		 call	 DWORD PTR __imp__PtInRect@12
; File D:\git\src\IBK\IBK_DRFN\ProjSrc\SrcDrfn\Chart\MULTICHART\control\GfxOutBarCtrl.cpp

; 861  : 			if (itemRc.PtInRect(point))

  001c4	85 c0		 test	 eax, eax
  001c6	75 69		 jne	 SHORT $LN70@HitTestEx

; 862  : 			{
; 863  : 				index = t;
; 864  : 				return htItem;
; 865  : 			}
; 866  : 			else if (itemRc.top > rc.bottom) break;

  001c8	8b 45 f0	 mov	 eax, DWORD PTR _itemRc$1[ebp+4]
  001cb	3b 45 e8	 cmp	 eax, DWORD PTR _rc$[ebp+12]
  001ce	7f 7e		 jg	 SHORT $LN6@HitTestEx

; 867  : 			GetLabelRect(iSelFolder, t, itemRc);

  001d0	8d 45 ec	 lea	 eax, DWORD PTR _itemRc$1[ebp]
  001d3	8b ce		 mov	 ecx, esi
  001d5	50		 push	 eax
  001d6	57		 push	 edi
  001d7	ff b6 34 01 00
	00		 push	 DWORD PTR [esi+308]
  001dd	e8 00 00 00 00	 call	 ?GetLabelRect@CGfxOutBarCtrl@@QAEXHHAAVCRect@@@Z ; CGfxOutBarCtrl::GetLabelRect

; 868  : 			itemRc.top -= yLargeIconLabelOffset;

  001e2	8b 86 ac 00 00
	00		 mov	 eax, DWORD PTR [esi+172]
  001e8	29 45 f0	 sub	 DWORD PTR _itemRc$1[ebp+4], eax
; File C:\Program Files (x86)\Microsoft Visual Studio\2019\Community\VC\Tools\MSVC\14.29.30133\atlmfc\include\atltypes.h

; 648  : 	return ::PtInRect(this, point);

  001eb	8d 45 ec	 lea	 eax, DWORD PTR _itemRc$1[ebp]
; File D:\git\src\IBK\IBK_DRFN\ProjSrc\SrcDrfn\Chart\MULTICHART\control\GfxOutBarCtrl.cpp

; 876  : 		}

  001ee	eb 1b		 jmp	 SHORT $LN88@HitTestEx
$LN14@HitTestEx:

; 877  : 		else
; 878  : 		{
; 879  : 			GetItemRect(iSelFolder, t, itemRc);

  001f0	e8 00 00 00 00	 call	 ?GetItemRect@CGfxOutBarCtrl@@QAEXHHAAVCRect@@@Z ; CGfxOutBarCtrl::GetItemRect
; File C:\Program Files (x86)\Microsoft Visual Studio\2019\Community\VC\Tools\MSVC\14.29.30133\atlmfc\include\atltypes.h

; 648  : 	return ::PtInRect(this, point);

  001f5	ff 73 04	 push	 DWORD PTR [ebx+4]
  001f8	8d 45 ec	 lea	 eax, DWORD PTR _itemRc$1[ebp]
  001fb	ff 33		 push	 DWORD PTR [ebx]
  001fd	50		 push	 eax
  001fe	ff 15 00 00 00
	00		 call	 DWORD PTR __imp__PtInRect@12
; File D:\git\src\IBK\IBK_DRFN\ProjSrc\SrcDrfn\Chart\MULTICHART\control\GfxOutBarCtrl.cpp

; 880  : 			if (itemRc.PtInRect(point) && rc.PtInRect(point))

  00204	85 c0		 test	 eax, eax
  00206	74 13		 je	 SHORT $LN22@HitTestEx
; File C:\Program Files (x86)\Microsoft Visual Studio\2019\Community\VC\Tools\MSVC\14.29.30133\atlmfc\include\atltypes.h

; 648  : 	return ::PtInRect(this, point);

  00208	8d 45 dc	 lea	 eax, DWORD PTR _rc$[ebp]
$LN88@HitTestEx:
; File D:\git\src\IBK\IBK_DRFN\ProjSrc\SrcDrfn\Chart\MULTICHART\control\GfxOutBarCtrl.cpp

; 854  : 	for (t = iFirstItem; t < max; t++)

  0020b	ff 73 04	 push	 DWORD PTR [ebx+4]
  0020e	ff 33		 push	 DWORD PTR [ebx]
  00210	50		 push	 eax
  00211	ff 15 00 00 00
	00		 call	 DWORD PTR __imp__PtInRect@12
  00217	85 c0		 test	 eax, eax
  00219	75 16		 jne	 SHORT $LN70@HitTestEx
$LN22@HitTestEx:
  0021b	8b 45 f0	 mov	 eax, DWORD PTR _itemRc$1[ebp+4]
  0021e	3b 45 e8	 cmp	 eax, DWORD PTR _rc$[ebp+12]
  00221	7f 2b		 jg	 SHORT $LN6@HitTestEx
  00223	47		 inc	 edi
  00224	3b 7d d8	 cmp	 edi, DWORD PTR _max$1$[ebp]
  00227	7d 25		 jge	 SHORT $LN6@HitTestEx
  00229	8b 45 d4	 mov	 eax, DWORD PTR _pbf$1$[ebp]
  0022c	e9 50 ff ff ff	 jmp	 $LL7@HitTestEx
$LN70@HitTestEx:

; 881  : 			{
; 882  : 				index = t;

  00231	8b 45 d0	 mov	 eax, DWORD PTR _index$GSCopy$1$[ebp]
  00234	89 38		 mov	 DWORD PTR [eax], edi

; 883  : 				return htItem;

  00236	b8 01 00 00 00	 mov	 eax, 1
  0023b	5f		 pop	 edi
  0023c	5e		 pop	 esi

; 889  : }

  0023d	5b		 pop	 ebx
  0023e	8b 4d fc	 mov	 ecx, DWORD PTR __$ArrayPad$[ebp]
  00241	33 cd		 xor	 ecx, ebp
  00243	e8 00 00 00 00	 call	 @__security_check_cookie@4
  00248	8b e5		 mov	 esp, ebp
  0024a	5d		 pop	 ebp
  0024b	c2 08 00	 ret	 8
$LN6@HitTestEx:
  0024e	5f		 pop	 edi
  0024f	5e		 pop	 esi

; 884  : 			}
; 885  : 			else if (itemRc.top > rc.bottom) break;
; 886  : 		}
; 887  : 	}
; 888  : 	return htNothing;

  00250	83 c8 ff	 or	 eax, -1

; 889  : }

  00253	5b		 pop	 ebx
  00254	8b 4d fc	 mov	 ecx, DWORD PTR __$ArrayPad$[ebp]
  00257	33 cd		 xor	 ecx, ebp
  00259	e8 00 00 00 00	 call	 @__security_check_cookie@4
  0025e	8b e5		 mov	 esp, ebp
  00260	5d		 pop	 ebp
  00261	c2 08 00	 ret	 8
$LN64@HitTestEx:

; 835  : 		{
; 836  : 			index = t;

  00264	8b 45 d0	 mov	 eax, DWORD PTR _index$GSCopy$1$[ebp]

; 889  : }

  00267	8b 4d fc	 mov	 ecx, DWORD PTR __$ArrayPad$[ebp]
  0026a	33 cd		 xor	 ecx, ebp
  0026c	89 38		 mov	 DWORD PTR [eax], edi
  0026e	33 c0		 xor	 eax, eax
  00270	5f		 pop	 edi
  00271	5e		 pop	 esi
  00272	5b		 pop	 ebx
  00273	e8 00 00 00 00	 call	 @__security_check_cookie@4
  00278	8b e5		 mov	 esp, ebp
  0027a	5d		 pop	 ebp
  0027b	c2 08 00	 ret	 8
$LN48@HitTestEx:
  0027e	e8 00 00 00 00	 call	 ?AfxThrowInvalidArgException@@YGXXZ ; AfxThrowInvalidArgException
$LN85@HitTestEx:
  00283	cc		 int	 3
?HitTestEx@CGfxOutBarCtrl@@QAEHABVCPoint@@AAH@Z ENDP	; CGfxOutBarCtrl::HitTestEx
_TEXT	ENDS
; Function compile flags: /Ogtp
; File D:\git\src\IBK\IBK_DRFN\ProjSrc\SrcDrfn\Chart\MULTICHART\control\GfxOutBarCtrl.cpp
; File C:\Program Files (x86)\Microsoft Visual Studio\2019\Community\VC\Tools\MSVC\14.29.30133\atlmfc\include\afxwin2.inl
; File D:\git\src\IBK\IBK_DRFN\ProjSrc\SrcDrfn\Chart\MULTICHART\control\GfxOutBarCtrl.cpp
; File C:\Program Files (x86)\Microsoft Visual Studio\2019\Community\VC\Tools\MSVC\14.29.30133\atlmfc\include\afxwin2.inl
; File D:\git\src\IBK\IBK_DRFN\ProjSrc\SrcDrfn\Chart\MULTICHART\control\GfxOutBarCtrl.cpp
; File C:\Program Files (x86)\Microsoft Visual Studio\2019\Community\VC\Tools\MSVC\14.29.30133\atlmfc\include\atltypes.h
; File D:\git\src\IBK\IBK_DRFN\ProjSrc\SrcDrfn\Chart\MULTICHART\control\GfxOutBarCtrl.cpp
; File C:\Program Files (x86)\Microsoft Visual Studio\2019\Community\VC\Tools\MSVC\14.29.30133\atlmfc\include\atltypes.h
; File D:\git\src\IBK\IBK_DRFN\ProjSrc\SrcDrfn\Chart\MULTICHART\control\GfxOutBarCtrl.cpp
; File C:\Program Files (x86)\Microsoft Visual Studio\2019\Community\VC\Tools\MSVC\14.29.30133\atlmfc\include\afxwin1.inl
; File D:\git\src\IBK\IBK_DRFN\ProjSrc\SrcDrfn\Chart\MULTICHART\control\GfxOutBarCtrl.cpp
;	COMDAT ?HighlightFolder@CGfxOutBarCtrl@@QAEXH@Z
_TEXT	SEGMENT
_dc$2 = -104						; size = 20
$T3 = -84						; size = 8
$T4 = -84						; size = 8
_dc$5 = -76						; size = 20
_pn$6 = -56						; size = 8
_pn$7 = -56						; size = 8
_pn$8 = -56						; size = 8
_rc$9 = -48						; size = 16
_rc$10 = -32						; size = 16
__$ArrayPad$ = -16					; size = 4
__$EHRec$ = -12						; size = 12
_index$ = 8						; size = 4
?HighlightFolder@CGfxOutBarCtrl@@QAEXH@Z PROC		; CGfxOutBarCtrl::HighlightFolder, COMDAT
; _this$ = ecx

; 892  : {

  00000	55		 push	 ebp
  00001	8b ec		 mov	 ebp, esp
  00003	6a ff		 push	 -1
  00005	68 00 00 00 00	 push	 __ehhandler$?HighlightFolder@CGfxOutBarCtrl@@QAEXH@Z
  0000a	64 a1 00 00 00
	00		 mov	 eax, DWORD PTR fs:0
  00010	50		 push	 eax
  00011	83 ec 5c	 sub	 esp, 92			; 0000005cH
  00014	a1 00 00 00 00	 mov	 eax, DWORD PTR ___security_cookie
  00019	33 c5		 xor	 eax, ebp
  0001b	89 45 f0	 mov	 DWORD PTR __$ArrayPad$[ebp], eax
  0001e	53		 push	 ebx
  0001f	56		 push	 esi
  00020	57		 push	 edi
  00021	50		 push	 eax
  00022	8d 45 f4	 lea	 eax, DWORD PTR __$EHRec$[ebp]
  00025	64 a3 00 00 00
	00		 mov	 DWORD PTR fs:0, eax
  0002b	8b f9		 mov	 edi, ecx
; File C:\Program Files (x86)\Microsoft Visual Studio\2019\Community\VC\Tools\MSVC\14.29.30133\atlmfc\include\afxwin2.inl

; 165  : 	{ return CWnd::FromHandle(::GetFocus()); }

  0002d	ff 15 00 00 00
	00		 call	 DWORD PTR __imp__GetFocus@0
  00033	50		 push	 eax
  00034	e8 00 00 00 00	 call	 ?FromHandle@CWnd@@SGPAV1@PAUHWND__@@@Z ; CWnd::FromHandle
; File D:\git\src\IBK\IBK_DRFN\ProjSrc\SrcDrfn\Chart\MULTICHART\control\GfxOutBarCtrl.cpp

; 894  : 	if (pf != NULL && pf != this && IsChild(pf)) return;

  00039	85 c0		 test	 eax, eax
  0003b	74 18		 je	 SHORT $LN2@HighlightF
  0003d	3b c7		 cmp	 eax, edi
  0003f	74 14		 je	 SHORT $LN2@HighlightF
; File C:\Program Files (x86)\Microsoft Visual Studio\2019\Community\VC\Tools\MSVC\14.29.30133\atlmfc\include\afxwin2.inl

; 211  : 	{ ASSERT(::IsWindow(m_hWnd)); return ::IsChild(m_hWnd, pWnd->GetSafeHwnd()); }

  00041	ff 70 20	 push	 DWORD PTR [eax+32]
  00044	ff 77 20	 push	 DWORD PTR [edi+32]
  00047	ff 15 00 00 00
	00		 call	 DWORD PTR __imp__IsChild@8
; File D:\git\src\IBK\IBK_DRFN\ProjSrc\SrcDrfn\Chart\MULTICHART\control\GfxOutBarCtrl.cpp

; 894  : 	if (pf != NULL && pf != this && IsChild(pf)) return;

  0004d	85 c0		 test	 eax, eax
  0004f	0f 85 9b 01 00
	00		 jne	 $LN9@HighlightF
$LN2@HighlightF:

; 895  : 
; 896  : 	if (iLastFolderHighlighted == index) return;

  00055	8b 87 18 01 00
	00		 mov	 eax, DWORD PTR [edi+280]
  0005b	8b 5d 08	 mov	 ebx, DWORD PTR _index$[ebp]
  0005e	3b c3		 cmp	 eax, ebx
  00060	0f 84 8a 01 00
	00		 je	 $LN9@HighlightF

; 897  : 
; 898  : 	if (iLastFolderHighlighted >= 0)

  00066	85 c0		 test	 eax, eax
  00068	0f 88 cf 00 00
	00		 js	 $LN5@HighlightF

; 901  : 		if (GetFolderRect(iLastFolderHighlighted, rc))

  0006e	8d 4d e0	 lea	 ecx, DWORD PTR _rc$10[ebp]
  00071	0f 57 c0	 xorps	 xmm0, xmm0
  00074	51		 push	 ecx
  00075	50		 push	 eax
  00076	8b cf		 mov	 ecx, edi
; File C:\Program Files (x86)\Microsoft Visual Studio\2019\Community\VC\Tools\MSVC\14.29.30133\atlmfc\include\atltypes.h

; 528  : 	left = 0;

  00078	0f 11 45 e0	 movups	 XMMWORD PTR _rc$10[ebp], xmm0
; File D:\git\src\IBK\IBK_DRFN\ProjSrc\SrcDrfn\Chart\MULTICHART\control\GfxOutBarCtrl.cpp

; 901  : 		if (GetFolderRect(iLastFolderHighlighted, rc))

  0007c	e8 00 00 00 00	 call	 ?GetFolderRect@CGfxOutBarCtrl@@QBE_NHAAVCRect@@@Z ; CGfxOutBarCtrl::GetFolderRect
  00081	84 c0		 test	 al, al
  00083	0f 84 b4 00 00
	00		 je	 $LN5@HighlightF

; 902  : 		{
; 903  : 			CClientDC dc(this);

  00089	57		 push	 edi
  0008a	8d 4d b4	 lea	 ecx, DWORD PTR _dc$5[ebp]
  0008d	e8 00 00 00 00	 call	 ??0CClientDC@@QAE@PAVCWnd@@@Z ; CClientDC::CClientDC

; 904  : 			if(iLastFolderHighlighted == iSelFolder)

  00092	8b 87 18 01 00
	00		 mov	 eax, DWORD PTR [edi+280]
  00098	8d 4d c8	 lea	 ecx, DWORD PTR _pn$8[ebp]
  0009b	c7 45 fc 00 00
	00 00		 mov	 DWORD PTR __$EHRec$[ebp+8], 0
  000a2	3b 87 34 01 00
	00		 cmp	 eax, DWORD PTR [edi+308]
  000a8	75 15		 jne	 SHORT $LN6@HighlightF

; 905  : 			{
; 906  : 				CPen pn(PS_SOLID, 1, crBackGroundColor1);

  000aa	ff b7 84 00 00
	00		 push	 DWORD PTR [edi+132]
  000b0	6a 01		 push	 1
  000b2	6a 00		 push	 0
  000b4	e8 00 00 00 00	 call	 ??0CPen@@QAE@HHK@Z	; CPen::CPen
  000b9	c6 45 fc 01	 mov	 BYTE PTR __$EHRec$[ebp+8], 1

; 907  : 				CPen * op = dc.SelectObject(&pn);
; 908  : 				dc.MoveTo(rc.left, rc.bottom-1);
; 909  : 				dc.LineTo(rc.right-1, rc.bottom-1);
; 910  : 				dc.LineTo(rc.right-1, rc.top);
; 911  : 				dc.SelectObject(op);
; 912  : 			}

  000bd	eb 13		 jmp	 SHORT $LN39@HighlightF
$LN6@HighlightF:

; 913  : 			else
; 914  : 			{
; 915  : 				CPen pn(PS_SOLID, 1, cr3dUnFace);

  000bf	ff b7 94 00 00
	00		 push	 DWORD PTR [edi+148]
  000c5	6a 01		 push	 1
  000c7	6a 00		 push	 0
  000c9	e8 00 00 00 00	 call	 ??0CPen@@QAE@HHK@Z	; CPen::CPen
  000ce	c6 45 fc 02	 mov	 BYTE PTR __$EHRec$[ebp+8], 2
$LN39@HighlightF:

; 916  : 				CPen * op = dc.SelectObject(&pn);
; 917  : 				dc.MoveTo(rc.left, rc.bottom-1);
; 918  : 				dc.LineTo(rc.right-1, rc.bottom-1);
; 919  : 				dc.LineTo(rc.right-1, rc.top);
; 920  : 				dc.SelectObject(op);
; 921  : 			}
; 922  : 			//CPen pn(PS_SOLID, 1, crBackGroundColor1);
; 923  : 			//CPen * op = dc.SelectObject(&pn);
; 924  : 			//dc.MoveTo(rc.left, rc.bottom-1);
; 925  : 			//dc.LineTo(rc.right-1, rc.bottom-1);
; 926  : 			//dc.LineTo(rc.right-1, rc.top);
; 927  : 			//CPen pn1(PS_SOLID, 1, cr3dFace);
; 928  : 			//dc.SelectObject(&pn1);
; 929  : 			//dc.MoveTo(rc.left+1, rc.bottom-2);
; 930  : 			//dc.LineTo(rc.right-2, rc.bottom-2);
; 931  : 			//dc.LineTo(rc.right-2, rc.top+1);
; 932  : 			//dc.SelectObject(op);
; 933  : 		}

  000d2	8d 45 c8	 lea	 eax, DWORD PTR _pn$7[ebp]
  000d5	8d 4d b4	 lea	 ecx, DWORD PTR _dc$5[ebp]
  000d8	50		 push	 eax
  000d9	e8 00 00 00 00	 call	 ?SelectObject@CDC@@QAEPAVCPen@@PAV2@@Z ; CDC::SelectObject
  000de	8b 4d ec	 mov	 ecx, DWORD PTR _rc$10[ebp+12]
  000e1	8b f0		 mov	 esi, eax
  000e3	49		 dec	 ecx
  000e4	8d 45 ac	 lea	 eax, DWORD PTR $T4[ebp]
  000e7	51		 push	 ecx
  000e8	ff 75 e0	 push	 DWORD PTR _rc$10[ebp]
  000eb	8d 4d b4	 lea	 ecx, DWORD PTR _dc$5[ebp]
  000ee	50		 push	 eax
  000ef	e8 00 00 00 00	 call	 ?MoveTo@CDC@@QAE?AVCPoint@@HH@Z ; CDC::MoveTo
  000f4	8b 45 ec	 mov	 eax, DWORD PTR _rc$10[ebp+12]
  000f7	8d 4d b4	 lea	 ecx, DWORD PTR _dc$5[ebp]
  000fa	48		 dec	 eax
  000fb	50		 push	 eax
  000fc	8b 45 e8	 mov	 eax, DWORD PTR _rc$10[ebp+8]
  000ff	48		 dec	 eax
  00100	50		 push	 eax
  00101	e8 00 00 00 00	 call	 ?LineTo@CDC@@QAEHHH@Z	; CDC::LineTo
  00106	8b 45 e8	 mov	 eax, DWORD PTR _rc$10[ebp+8]
  00109	8d 4d b4	 lea	 ecx, DWORD PTR _dc$5[ebp]
  0010c	ff 75 e4	 push	 DWORD PTR _rc$10[ebp+4]
  0010f	48		 dec	 eax
  00110	50		 push	 eax
  00111	e8 00 00 00 00	 call	 ?LineTo@CDC@@QAEHHH@Z	; CDC::LineTo
  00116	56		 push	 esi
  00117	8d 4d b4	 lea	 ecx, DWORD PTR _dc$5[ebp]
  0011a	e8 00 00 00 00	 call	 ?SelectObject@CDC@@QAEPAVCPen@@PAV2@@Z ; CDC::SelectObject
  0011f	8d 4d c8	 lea	 ecx, DWORD PTR _pn$7[ebp]
  00122	c7 45 c8 00 00
	00 00		 mov	 DWORD PTR _pn$7[ebp], OFFSET ??_7CPen@@6B@
  00129	e8 00 00 00 00	 call	 ??1CGdiObject@@UAE@XZ	; CGdiObject::~CGdiObject
  0012e	8d 4d b4	 lea	 ecx, DWORD PTR _dc$5[ebp]
  00131	c7 45 fc ff ff
	ff ff		 mov	 DWORD PTR __$EHRec$[ebp+8], -1
  00138	e8 00 00 00 00	 call	 ??1CClientDC@@UAE@XZ	; CClientDC::~CClientDC
$LN5@HighlightF:

; 934  : 	}
; 935  : 	iLastFolderHighlighted = index;

  0013d	89 9f 18 01 00
	00		 mov	 DWORD PTR [edi+280], ebx

; 936  : 	if (iLastFolderHighlighted >= 0)

  00143	85 db		 test	 ebx, ebx
  00145	0f 88 a5 00 00
	00		 js	 $LN9@HighlightF

; 939  : 		if (GetFolderRect(iLastFolderHighlighted, rc))

  0014b	8d 45 d0	 lea	 eax, DWORD PTR _rc$9[ebp]
  0014e	0f 57 c0	 xorps	 xmm0, xmm0
  00151	50		 push	 eax
  00152	53		 push	 ebx
  00153	8b cf		 mov	 ecx, edi
; File C:\Program Files (x86)\Microsoft Visual Studio\2019\Community\VC\Tools\MSVC\14.29.30133\atlmfc\include\atltypes.h

; 528  : 	left = 0;

  00155	0f 11 45 d0	 movups	 XMMWORD PTR _rc$9[ebp], xmm0
; File D:\git\src\IBK\IBK_DRFN\ProjSrc\SrcDrfn\Chart\MULTICHART\control\GfxOutBarCtrl.cpp

; 939  : 		if (GetFolderRect(iLastFolderHighlighted, rc))

  00159	e8 00 00 00 00	 call	 ?GetFolderRect@CGfxOutBarCtrl@@QBE_NHAAVCRect@@@Z ; CGfxOutBarCtrl::GetFolderRect
  0015e	84 c0		 test	 al, al
  00160	0f 84 8a 00 00
	00		 je	 $LN9@HighlightF

; 940  : 		{
; 941  : 			CClientDC dc(this);

  00166	57		 push	 edi
  00167	8d 4d 98	 lea	 ecx, DWORD PTR _dc$2[ebp]
  0016a	e8 00 00 00 00	 call	 ??0CClientDC@@QAE@PAVCWnd@@@Z ; CClientDC::CClientDC

; 942  : 			CPen pn(PS_SOLID, 1, crDkShadowBorder);

  0016f	ff b7 9c 00 00
	00		 push	 DWORD PTR [edi+156]
  00175	8d 4d c8	 lea	 ecx, DWORD PTR _pn$6[ebp]
  00178	c7 45 fc 03 00
	00 00		 mov	 DWORD PTR __$EHRec$[ebp+8], 3
  0017f	6a 01		 push	 1
  00181	6a 00		 push	 0
  00183	e8 00 00 00 00	 call	 ??0CPen@@QAE@HHK@Z	; CPen::CPen

; 943  : 			CPen * op = dc.SelectObject(&pn);

  00188	8d 45 c8	 lea	 eax, DWORD PTR _pn$6[ebp]
  0018b	c6 45 fc 04	 mov	 BYTE PTR __$EHRec$[ebp+8], 4
  0018f	50		 push	 eax
  00190	8d 4d 98	 lea	 ecx, DWORD PTR _dc$2[ebp]
  00193	e8 00 00 00 00	 call	 ?SelectObject@CDC@@QAEPAVCPen@@PAV2@@Z ; CDC::SelectObject

; 944  : 			dc.MoveTo(rc.left, rc.bottom-1);

  00198	8b 4d dc	 mov	 ecx, DWORD PTR _rc$9[ebp+12]
  0019b	8b f0		 mov	 esi, eax
  0019d	49		 dec	 ecx
  0019e	8d 45 ac	 lea	 eax, DWORD PTR $T3[ebp]
  001a1	51		 push	 ecx
  001a2	ff 75 d0	 push	 DWORD PTR _rc$9[ebp]
  001a5	8d 4d 98	 lea	 ecx, DWORD PTR _dc$2[ebp]
  001a8	50		 push	 eax
  001a9	e8 00 00 00 00	 call	 ?MoveTo@CDC@@QAE?AVCPoint@@HH@Z ; CDC::MoveTo

; 945  : 			dc.LineTo(rc.right-1, rc.bottom-1);

  001ae	8b 45 dc	 mov	 eax, DWORD PTR _rc$9[ebp+12]
  001b1	8d 4d 98	 lea	 ecx, DWORD PTR _dc$2[ebp]
  001b4	48		 dec	 eax
  001b5	50		 push	 eax
  001b6	8b 45 d8	 mov	 eax, DWORD PTR _rc$9[ebp+8]
  001b9	48		 dec	 eax
  001ba	50		 push	 eax
  001bb	e8 00 00 00 00	 call	 ?LineTo@CDC@@QAEHHH@Z	; CDC::LineTo

; 946  : 			dc.LineTo(rc.right-1, rc.top);

  001c0	8b 45 d8	 mov	 eax, DWORD PTR _rc$9[ebp+8]
  001c3	8d 4d 98	 lea	 ecx, DWORD PTR _dc$2[ebp]
  001c6	ff 75 d4	 push	 DWORD PTR _rc$9[ebp+4]
  001c9	48		 dec	 eax
  001ca	50		 push	 eax
  001cb	e8 00 00 00 00	 call	 ?LineTo@CDC@@QAEHHH@Z	; CDC::LineTo

; 947  : 			//CPen pn1(PS_SOLID, 1, crBackGroundColor1);
; 948  : 			//dc.SelectObject(&pn1);
; 949  : 			//dc.MoveTo(rc.left+1, rc.bottom-2);
; 950  : 			//dc.LineTo(rc.right-2, rc.bottom-2);
; 951  : 			//dc.LineTo(rc.right-2, rc.top+1);
; 952  : 			dc.SelectObject(op);

  001d0	56		 push	 esi
  001d1	8d 4d 98	 lea	 ecx, DWORD PTR _dc$2[ebp]
  001d4	e8 00 00 00 00	 call	 ?SelectObject@CDC@@QAEPAVCPen@@PAV2@@Z ; CDC::SelectObject
; File C:\Program Files (x86)\Microsoft Visual Studio\2019\Community\VC\Tools\MSVC\14.29.30133\atlmfc\include\afxwin1.inl

; 106  : 	{ }

  001d9	8d 4d c8	 lea	 ecx, DWORD PTR _pn$6[ebp]
  001dc	c7 45 c8 00 00
	00 00		 mov	 DWORD PTR _pn$6[ebp], OFFSET ??_7CPen@@6B@
  001e3	e8 00 00 00 00	 call	 ??1CGdiObject@@UAE@XZ	; CGdiObject::~CGdiObject
; File D:\git\src\IBK\IBK_DRFN\ProjSrc\SrcDrfn\Chart\MULTICHART\control\GfxOutBarCtrl.cpp

; 953  : 		}

  001e8	8d 4d 98	 lea	 ecx, DWORD PTR _dc$2[ebp]
  001eb	e8 00 00 00 00	 call	 ??1CClientDC@@UAE@XZ	; CClientDC::~CClientDC
$LN9@HighlightF:

; 954  : 	}
; 955  : }

  001f0	8b 4d f4	 mov	 ecx, DWORD PTR __$EHRec$[ebp]
  001f3	64 89 0d 00 00
	00 00		 mov	 DWORD PTR fs:0, ecx
  001fa	59		 pop	 ecx
  001fb	5f		 pop	 edi
  001fc	5e		 pop	 esi
  001fd	5b		 pop	 ebx
  001fe	8b 4d f0	 mov	 ecx, DWORD PTR __$ArrayPad$[ebp]
  00201	33 cd		 xor	 ecx, ebp
  00203	e8 00 00 00 00	 call	 @__security_check_cookie@4
  00208	8b e5		 mov	 esp, ebp
  0020a	5d		 pop	 ebp
  0020b	c2 04 00	 ret	 4
_TEXT	ENDS
;	COMDAT text$x
text$x	SEGMENT
__unwindfunclet$?HighlightFolder@CGfxOutBarCtrl@@QAEXH@Z$0:
  00000	8d 4d b4	 lea	 ecx, DWORD PTR _dc$5[ebp]
  00003	e9 00 00 00 00	 jmp	 ??1CClientDC@@UAE@XZ	; CClientDC::~CClientDC
__unwindfunclet$?HighlightFolder@CGfxOutBarCtrl@@QAEXH@Z$1:
  00008	8d 4d c8	 lea	 ecx, DWORD PTR _pn$8[ebp]
  0000b	e9 00 00 00 00	 jmp	 ??1CPen@@UAE@XZ		; CPen::~CPen
__unwindfunclet$?HighlightFolder@CGfxOutBarCtrl@@QAEXH@Z$2:
  00010	8d 4d c8	 lea	 ecx, DWORD PTR _pn$7[ebp]
  00013	e9 00 00 00 00	 jmp	 ??1CPen@@UAE@XZ		; CPen::~CPen
__unwindfunclet$?HighlightFolder@CGfxOutBarCtrl@@QAEXH@Z$3:
  00018	8d 4d 98	 lea	 ecx, DWORD PTR _dc$2[ebp]
  0001b	e9 00 00 00 00	 jmp	 ??1CClientDC@@UAE@XZ	; CClientDC::~CClientDC
__unwindfunclet$?HighlightFolder@CGfxOutBarCtrl@@QAEXH@Z$4:
  00020	8d 4d c8	 lea	 ecx, DWORD PTR _pn$6[ebp]
  00023	e9 00 00 00 00	 jmp	 ??1CPen@@UAE@XZ		; CPen::~CPen
  00028	cc		 int	 3
  00029	cc		 int	 3
  0002a	cc		 int	 3
  0002b	cc		 int	 3
  0002c	cc		 int	 3
__ehhandler$?HighlightFolder@CGfxOutBarCtrl@@QAEXH@Z:
  0002d	90		 npad	 1
  0002e	90		 npad	 1
  0002f	8b 54 24 08	 mov	 edx, DWORD PTR [esp+8]
  00033	8d 42 0c	 lea	 eax, DWORD PTR [edx+12]
  00036	8b 4a 94	 mov	 ecx, DWORD PTR [edx-108]
  00039	33 c8		 xor	 ecx, eax
  0003b	e8 00 00 00 00	 call	 @__security_check_cookie@4
  00040	8b 4a fc	 mov	 ecx, DWORD PTR [edx-4]
  00043	33 c8		 xor	 ecx, eax
  00045	e8 00 00 00 00	 call	 @__security_check_cookie@4
  0004a	b8 00 00 00 00	 mov	 eax, OFFSET __ehfuncinfo$?HighlightFolder@CGfxOutBarCtrl@@QAEXH@Z
  0004f	e9 00 00 00 00	 jmp	 ___CxxFrameHandler3
text$x	ENDS
?HighlightFolder@CGfxOutBarCtrl@@QAEXH@Z ENDP		; CGfxOutBarCtrl::HighlightFolder
; Function compile flags: /Ogtp
; File D:\git\src\IBK\IBK_DRFN\ProjSrc\SrcDrfn\Chart\MULTICHART\control\GfxOutBarCtrl.cpp
; File C:\Program Files (x86)\Microsoft Visual Studio\2019\Community\VC\Tools\MSVC\14.29.30133\atlmfc\include\afxcoll.inl
; File D:\git\src\IBK\IBK_DRFN\ProjSrc\SrcDrfn\Chart\MULTICHART\control\GfxOutBarCtrl.cpp
; File C:\Program Files (x86)\Microsoft Visual Studio\2019\Community\VC\Tools\MSVC\14.29.30133\atlmfc\include\afxcoll.inl
; File D:\git\src\IBK\IBK_DRFN\ProjSrc\SrcDrfn\Chart\MULTICHART\control\GfxOutBarCtrl.cpp
; File C:\Program Files (x86)\Microsoft Visual Studio\2019\Community\VC\Tools\MSVC\14.29.30133\atlmfc\include\afxcoll.inl
; File D:\git\src\IBK\IBK_DRFN\ProjSrc\SrcDrfn\Chart\MULTICHART\control\GfxOutBarCtrl.cpp
; File C:\Program Files (x86)\Microsoft Visual Studio\2019\Community\VC\Tools\MSVC\14.29.30133\atlmfc\include\afxcoll.inl
; File D:\git\src\IBK\IBK_DRFN\ProjSrc\SrcDrfn\Chart\MULTICHART\control\GfxOutBarCtrl.cpp
;	COMDAT ?InsertItem@CGfxOutBarCtrl@@QAEHHHPBDHK@Z
_TEXT	SEGMENT
__$EHRec$ = -12						; size = 12
_pbf$1$ = 8						; size = 4
_folder$ = 8						; size = 4
$T2 = 12						; size = 4
_index$ = 12						; size = 4
_text$ = 16						; size = 4
_image$ = 20						; size = 4
_exData$ = 24						; size = 4
?InsertItem@CGfxOutBarCtrl@@QAEHHHPBDHK@Z PROC		; CGfxOutBarCtrl::InsertItem, COMDAT
; _this$ = ecx

; 1493 : {

  00000	55		 push	 ebp
  00001	8b ec		 mov	 ebp, esp
  00003	6a ff		 push	 -1
  00005	68 00 00 00 00	 push	 __ehhandler$?InsertItem@CGfxOutBarCtrl@@QAEHHHPBDHK@Z
  0000a	64 a1 00 00 00
	00		 mov	 eax, DWORD PTR fs:0
  00010	50		 push	 eax
  00011	53		 push	 ebx
  00012	56		 push	 esi
  00013	57		 push	 edi
  00014	a1 00 00 00 00	 mov	 eax, DWORD PTR ___security_cookie
  00019	33 c5		 xor	 eax, ebp
  0001b	50		 push	 eax
  0001c	8d 45 f4	 lea	 eax, DWORD PTR __$EHRec$[ebp]
  0001f	64 a3 00 00 00
	00		 mov	 DWORD PTR fs:0, eax
; File C:\Program Files (x86)\Microsoft Visual Studio\2019\Community\VC\Tools\MSVC\14.29.30133\atlmfc\include\afxcoll.inl

; 203  : 		if( nIndex < 0 || nIndex >= m_nSize )

  00025	8b 55 08	 mov	 edx, DWORD PTR _folder$[ebp]
  00028	85 d2		 test	 edx, edx
  0002a	0f 88 bf 00 00
	00		 js	 $LN5@InsertItem
  00030	3b 91 0c 01 00
	00		 cmp	 edx, DWORD PTR [ecx+268]
  00036	0f 8d b3 00 00
	00		 jge	 $LN5@InsertItem

; 205  : 		return m_pData[nIndex]; }

  0003c	8b 81 08 01 00
	00		 mov	 eax, DWORD PTR [ecx+264]
; File D:\git\src\IBK\IBK_DRFN\ProjSrc\SrcDrfn\Chart\MULTICHART\control\GfxOutBarCtrl.cpp

; 1496 : 	return pbf->InsertItem(index, text, image, exData);

  00042	8b 5d 0c	 mov	 ebx, DWORD PTR _index$[ebp]
; File C:\Program Files (x86)\Microsoft Visual Studio\2019\Community\VC\Tools\MSVC\14.29.30133\atlmfc\include\afxcoll.inl

; 205  : 		return m_pData[nIndex]; }

  00045	8b 04 90	 mov	 eax, DWORD PTR [eax+edx*4]
  00048	89 45 08	 mov	 DWORD PTR _pbf$1$[ebp], eax
; File D:\git\src\IBK\IBK_DRFN\ProjSrc\SrcDrfn\Chart\MULTICHART\control\GfxOutBarCtrl.cpp

; 1581 : 	if (index < 0 || index > GetItemCount()) index = GetItemCount();

  0004b	8d 78 1c	 lea	 edi, DWORD PTR [eax+28]
  0004e	85 db		 test	 ebx, ebx
  00050	78 04		 js	 SHORT $LN22@InsertItem
  00052	3b 1f		 cmp	 ebx, DWORD PTR [edi]
  00054	7e 02		 jle	 SHORT $LN9@InsertItem
$LN22@InsertItem:
  00056	8b 1f		 mov	 ebx, DWORD PTR [edi]
$LN9@InsertItem:

; 1582 : 
; 1583 : 	int c = GetItemCount();
; 1584 : 
; 1585 : 	CBarItem * pbf = new CBarItem(text, image, exData);

  00058	6a 10		 push	 16			; 00000010H
  0005a	e8 00 00 00 00	 call	 ??2@YAPAXI@Z		; operator new
  0005f	8b f0		 mov	 esi, eax
  00061	83 c4 04	 add	 esp, 4
  00064	89 75 0c	 mov	 DWORD PTR $T2[ebp], esi
  00067	c7 45 fc 00 00
	00 00		 mov	 DWORD PTR __$EHRec$[ebp+8], 0
  0006e	85 f6		 test	 esi, esi
  00070	74 40		 je	 SHORT $LN14@InsertItem

; 1647 : 	iImageIndex = image;

  00072	8b 45 14	 mov	 eax, DWORD PTR _image$[ebp]
  00075	89 46 04	 mov	 DWORD PTR [esi+4], eax

; 1648 : 	dwData = exData;

  00078	8b 45 18	 mov	 eax, DWORD PTR _exData$[ebp]
  0007b	89 46 0c	 mov	 DWORD PTR [esi+12], eax

; 1649 : 	if (name)

  0007e	8b 45 10	 mov	 eax, DWORD PTR _text$[ebp]
  00081	c7 06 00 00 00
	00		 mov	 DWORD PTR [esi], OFFSET ??_7CBarItem@CGfxOutBarCtrl@@6B@
  00087	c7 46 08 00 00
	00 00		 mov	 DWORD PTR [esi+8], 0
  0008e	85 c0		 test	 eax, eax
  00090	74 22		 je	 SHORT $LN15@InsertItem

; 1650 : 	{
; 1651 : 		cItem = new char[lstrlen(name)+1];

  00092	50		 push	 eax
  00093	ff 15 00 00 00
	00		 call	 DWORD PTR __imp__lstrlenA@4
  00099	40		 inc	 eax
  0009a	50		 push	 eax
  0009b	e8 00 00 00 00	 call	 ??_U@YAPAXI@Z		; operator new[]
  000a0	83 c4 04	 add	 esp, 4
  000a3	89 46 08	 mov	 DWORD PTR [esi+8], eax

; 1652 : 		ASSERT(cItem);
; 1653 : 		lstrcpy(cItem, name);

  000a6	ff 75 10	 push	 DWORD PTR _text$[ebp]
  000a9	50		 push	 eax
  000aa	ff 15 00 00 00
	00		 call	 DWORD PTR __imp__lstrcpyA@8

; 1585 : 	CBarItem * pbf = new CBarItem(text, image, exData);

  000b0	eb 02		 jmp	 SHORT $LN15@InsertItem
$LN14@InsertItem:
  000b2	33 f6		 xor	 esi, esi
$LN15@InsertItem:

; 1586 : 	ASSERT(pbf);
; 1587 : 	if (index < GetItemCount()) 

  000b4	8b 4d 08	 mov	 ecx, DWORD PTR _pbf$1$[ebp]
  000b7	83 c1 14	 add	 ecx, 20			; 00000014H
  000ba	c7 45 fc ff ff
	ff ff		 mov	 DWORD PTR __$EHRec$[ebp+8], -1
  000c1	3b 1f		 cmp	 ebx, DWORD PTR [edi]
  000c3	7d 0b		 jge	 SHORT $LN11@InsertItem

; 1588 : 		arItems.InsertAt(index, (void *) pbf);

  000c5	6a 01		 push	 1
  000c7	56		 push	 esi
  000c8	53		 push	 ebx
  000c9	e8 00 00 00 00	 call	 ?InsertAt@CPtrArray@@QAEXHPAXH@Z ; CPtrArray::InsertAt
  000ce	eb 09		 jmp	 SHORT $LN12@InsertItem
$LN11@InsertItem:
; File C:\Program Files (x86)\Microsoft Visual Studio\2019\Community\VC\Tools\MSVC\14.29.30133\atlmfc\include\afxcoll.inl

; 223  : 		SetAtGrow(nIndex, newElement);

  000d0	56		 push	 esi
  000d1	ff 71 08	 push	 DWORD PTR [ecx+8]
  000d4	e8 00 00 00 00	 call	 ?SetAtGrow@CPtrArray@@QAEXHPAX@Z ; CPtrArray::SetAtGrow
$LN12@InsertItem:
; File D:\git\src\IBK\IBK_DRFN\ProjSrc\SrcDrfn\Chart\MULTICHART\control\GfxOutBarCtrl.cpp

; 1496 : 	return pbf->InsertItem(index, text, image, exData);

  000d9	8b c3		 mov	 eax, ebx

; 1497 : }

  000db	8b 4d f4	 mov	 ecx, DWORD PTR __$EHRec$[ebp]
  000de	64 89 0d 00 00
	00 00		 mov	 DWORD PTR fs:0, ecx
  000e5	59		 pop	 ecx
  000e6	5f		 pop	 edi
  000e7	5e		 pop	 esi
  000e8	5b		 pop	 ebx
  000e9	8b e5		 mov	 esp, ebp
  000eb	5d		 pop	 ebp
  000ec	c2 14 00	 ret	 20			; 00000014H
$LN5@InsertItem:
; File C:\Program Files (x86)\Microsoft Visual Studio\2019\Community\VC\Tools\MSVC\14.29.30133\atlmfc\include\afxcoll.inl

; 204  : 			AfxThrowInvalidArgException();

  000ef	e8 00 00 00 00	 call	 ?AfxThrowInvalidArgException@@YGXXZ ; AfxThrowInvalidArgException
$LN25@InsertItem:
  000f4	cc		 int	 3
_TEXT	ENDS
;	COMDAT text$x
text$x	SEGMENT
__unwindfunclet$?InsertItem@CGfxOutBarCtrl@@QAEHHHPBDHK@Z$0:
  00000	6a 10		 push	 16			; 00000010H
  00002	8b 45 0c	 mov	 eax, DWORD PTR $T2[ebp]
  00005	50		 push	 eax
  00006	e8 00 00 00 00	 call	 ??3@YAXPAXI@Z		; operator delete
  0000b	83 c4 08	 add	 esp, 8
  0000e	c3		 ret	 0
  0000f	cc		 int	 3
  00010	cc		 int	 3
  00011	cc		 int	 3
  00012	cc		 int	 3
  00013	cc		 int	 3
__ehhandler$?InsertItem@CGfxOutBarCtrl@@QAEHHHPBDHK@Z:
  00014	90		 npad	 1
  00015	90		 npad	 1
  00016	8b 54 24 08	 mov	 edx, DWORD PTR [esp+8]
  0001a	8d 42 0c	 lea	 eax, DWORD PTR [edx+12]
  0001d	8b 4a f0	 mov	 ecx, DWORD PTR [edx-16]
  00020	33 c8		 xor	 ecx, eax
  00022	e8 00 00 00 00	 call	 @__security_check_cookie@4
  00027	b8 00 00 00 00	 mov	 eax, OFFSET __ehfuncinfo$?InsertItem@CGfxOutBarCtrl@@QAEHHHPBDHK@Z
  0002c	e9 00 00 00 00	 jmp	 ___CxxFrameHandler3
text$x	ENDS
?InsertItem@CGfxOutBarCtrl@@QAEHHHPBDHK@Z ENDP		; CGfxOutBarCtrl::InsertItem
; Function compile flags: /Ogtp
; File D:\git\src\IBK\IBK_DRFN\ProjSrc\SrcDrfn\Chart\MULTICHART\control\GfxOutBarCtrl.cpp
; File C:\Program Files (x86)\Microsoft Visual Studio\2019\Community\VC\Tools\MSVC\14.29.30133\atlmfc\include\afxcoll.inl
; File D:\git\src\IBK\IBK_DRFN\ProjSrc\SrcDrfn\Chart\MULTICHART\control\GfxOutBarCtrl.cpp
; File C:\Program Files (x86)\Microsoft Visual Studio\2019\Community\VC\Tools\MSVC\14.29.30133\atlmfc\include\afxcoll.inl
; File D:\git\src\IBK\IBK_DRFN\ProjSrc\SrcDrfn\Chart\MULTICHART\control\GfxOutBarCtrl.cpp
;	COMDAT ?GetItemCount@CGfxOutBarCtrl@@QBEHXZ
_TEXT	SEGMENT
?GetItemCount@CGfxOutBarCtrl@@QBEHXZ PROC		; CGfxOutBarCtrl::GetItemCount, COMDAT
; _this$ = ecx

; 1501 : 	ASSERT(iSelFolder >= 0 && iSelFolder < GetFolderCount());
; 1502 : 	CBarFolder * pbf = (CBarFolder *) arFolder.GetAt(iSelFolder);

  00000	8b 91 34 01 00
	00		 mov	 edx, DWORD PTR [ecx+308]
; File C:\Program Files (x86)\Microsoft Visual Studio\2019\Community\VC\Tools\MSVC\14.29.30133\atlmfc\include\afxcoll.inl

; 203  : 		if( nIndex < 0 || nIndex >= m_nSize )

  00006	85 d2		 test	 edx, edx
  00008	78 15		 js	 SHORT $LN5@GetItemCou
  0000a	3b 91 0c 01 00
	00		 cmp	 edx, DWORD PTR [ecx+268]
  00010	7d 0d		 jge	 SHORT $LN5@GetItemCou
; File D:\git\src\IBK\IBK_DRFN\ProjSrc\SrcDrfn\Chart\MULTICHART\control\GfxOutBarCtrl.cpp

; 1503 : 	return 	pbf->GetItemCount();

  00012	8b 81 08 01 00
	00		 mov	 eax, DWORD PTR [ecx+264]
  00018	8b 04 90	 mov	 eax, DWORD PTR [eax+edx*4]
  0001b	8b 40 1c	 mov	 eax, DWORD PTR [eax+28]

; 1504 : }

  0001e	c3		 ret	 0
$LN5@GetItemCou:
; File C:\Program Files (x86)\Microsoft Visual Studio\2019\Community\VC\Tools\MSVC\14.29.30133\atlmfc\include\afxcoll.inl

; 204  : 			AfxThrowInvalidArgException();

  0001f	e9 00 00 00 00	 jmp	 ?AfxThrowInvalidArgException@@YGXXZ ; AfxThrowInvalidArgException
?GetItemCount@CGfxOutBarCtrl@@QBEHXZ ENDP		; CGfxOutBarCtrl::GetItemCount
_TEXT	ENDS
; Function compile flags: /Ogtp
; File D:\git\src\IBK\IBK_DRFN\ProjSrc\SrcDrfn\Chart\MULTICHART\control\GfxOutBarCtrl.cpp
; File C:\Program Files (x86)\Microsoft Visual Studio\2019\Community\VC\Tools\MSVC\14.29.30133\atlmfc\include\afxcoll.inl
; File D:\git\src\IBK\IBK_DRFN\ProjSrc\SrcDrfn\Chart\MULTICHART\control\GfxOutBarCtrl.cpp
; File C:\Program Files (x86)\Microsoft Visual Studio\2019\Community\VC\Tools\MSVC\14.29.30133\atlmfc\include\afxcoll.inl
; File D:\git\src\IBK\IBK_DRFN\ProjSrc\SrcDrfn\Chart\MULTICHART\control\GfxOutBarCtrl.cpp
; File C:\Program Files (x86)\Microsoft Visual Studio\2019\Community\VC\Tools\MSVC\14.29.30133\atlmfc\include\afxcoll.inl
; File D:\git\src\IBK\IBK_DRFN\ProjSrc\SrcDrfn\Chart\MULTICHART\control\GfxOutBarCtrl.cpp
;	COMDAT ?SetSelFolder@CGfxOutBarCtrl@@QAEHPBD@Z
_TEXT	SEGMENT
_nCnt$1$ = -28						; size = 4
_szText$ = -24						; size = 4
$T2 = -20						; size = 4
$T3 = -16						; size = 4
__$EHRec$ = -12						; size = 12
_szFolder$ = 8						; size = 4
?SetSelFolder@CGfxOutBarCtrl@@QAEHPBD@Z PROC		; CGfxOutBarCtrl::SetSelFolder, COMDAT
; _this$ = ecx

; 1507 : {

  00000	55		 push	 ebp
  00001	8b ec		 mov	 ebp, esp
  00003	6a ff		 push	 -1
  00005	68 00 00 00 00	 push	 __ehhandler$?SetSelFolder@CGfxOutBarCtrl@@QAEHPBD@Z
  0000a	64 a1 00 00 00
	00		 mov	 eax, DWORD PTR fs:0
  00010	50		 push	 eax
  00011	83 ec 10	 sub	 esp, 16			; 00000010H
  00014	53		 push	 ebx
  00015	56		 push	 esi
  00016	57		 push	 edi
  00017	a1 00 00 00 00	 mov	 eax, DWORD PTR ___security_cookie
  0001c	33 c5		 xor	 eax, ebp
  0001e	50		 push	 eax
  0001f	8d 45 f4	 lea	 eax, DWORD PTR __$EHRec$[ebp]
  00022	64 a3 00 00 00
	00		 mov	 DWORD PTR fs:0, eax
  00028	8b d9		 mov	 ebx, ecx
  0002a	c7 45 f0 00 00
	00 00		 mov	 DWORD PTR $T3[ebp], 0

; 1508 : 	int nCnt = GetFolderCount();
; 1509 : 	int i=0;
; 1510 : 	CString szText;

  00031	8d 4d e8	 lea	 ecx, DWORD PTR _szText$[ebp]
  00034	8b bb 0c 01 00
	00		 mov	 edi, DWORD PTR [ebx+268]
  0003a	33 f6		 xor	 esi, esi
  0003c	89 7d e4	 mov	 DWORD PTR _nCnt$1$[ebp], edi
  0003f	ff 15 00 00 00
	00		 call	 DWORD PTR __imp_??0?$CStringT@DV?$StrTraitMFC_DLL@DV?$ChTraitsCRT@D@ATL@@@@@ATL@@QAE@XZ
  00045	89 75 fc	 mov	 DWORD PTR __$EHRec$[ebp+8], esi

; 1511 : 	for(; i<nCnt; i++)

  00048	85 ff		 test	 edi, edi
  0004a	0f 8e 87 00 00
	00		 jle	 $LN3@SetSelFold
$LL4@SetSelFold:

; 1512 : 	{
; 1513 : 		szText = GetFolderText(i);

  00050	8b fe		 mov	 edi, esi
  00052	c6 45 fc 01	 mov	 BYTE PTR __$EHRec$[ebp+8], 1

; 2484 : 	if (iFolder < 0) iFolder = iSelFolder;

  00056	85 f6		 test	 esi, esi
  00058	79 0e		 jns	 SHORT $LN27@SetSelFold
  0005a	8b bb 34 01 00
	00		 mov	 edi, DWORD PTR [ebx+308]
; File C:\Program Files (x86)\Microsoft Visual Studio\2019\Community\VC\Tools\MSVC\14.29.30133\atlmfc\include\afxcoll.inl

; 203  : 		if( nIndex < 0 || nIndex >= m_nSize )

  00060	85 ff		 test	 edi, edi
  00062	0f 88 9b 00 00
	00		 js	 $LN17@SetSelFold
$LN27@SetSelFold:
  00068	3b bb 0c 01 00
	00		 cmp	 edi, DWORD PTR [ebx+268]
  0006e	0f 8d 8f 00 00
	00		 jge	 $LN17@SetSelFold

; 205  : 		return m_pData[nIndex]; }

  00074	8b 83 08 01 00
	00		 mov	 eax, DWORD PTR [ebx+264]
; File D:\git\src\IBK\IBK_DRFN\ProjSrc\SrcDrfn\Chart\MULTICHART\control\GfxOutBarCtrl.cpp

; 2486 : 	CString strText;

  0007a	8d 4d ec	 lea	 ecx, DWORD PTR $T2[ebp]
; File C:\Program Files (x86)\Microsoft Visual Studio\2019\Community\VC\Tools\MSVC\14.29.30133\atlmfc\include\afxcoll.inl

; 205  : 		return m_pData[nIndex]; }

  0007d	8b 3c b8	 mov	 edi, DWORD PTR [eax+edi*4]
; File D:\git\src\IBK\IBK_DRFN\ProjSrc\SrcDrfn\Chart\MULTICHART\control\GfxOutBarCtrl.cpp

; 2486 : 	CString strText;

  00080	ff 15 00 00 00
	00		 call	 DWORD PTR __imp_??0?$CStringT@DV?$StrTraitMFC_DLL@DV?$ChTraitsCRT@D@ATL@@@@@ATL@@QAE@XZ

; 2487 : 	strText.Format(_T("%s"), pbf->cName);
; 2488 : 	return strText;

  00086	83 4d f0 01	 or	 DWORD PTR $T3[ebp], 1
  0008a	8d 45 ec	 lea	 eax, DWORD PTR $T2[ebp]
  0008d	ff 77 04	 push	 DWORD PTR [edi+4]
  00090	68 00 00 00 00	 push	 OFFSET ??_C@_02DKCKIIND@?$CFs@
  00095	50		 push	 eax
  00096	ff 15 00 00 00
	00		 call	 DWORD PTR __imp_?Format@?$CStringT@DV?$StrTraitMFC_DLL@DV?$ChTraitsCRT@D@ATL@@@@@ATL@@QAAXPBDZZ
  0009c	83 c4 0c	 add	 esp, 12			; 0000000cH

; 1512 : 	{
; 1513 : 		szText = GetFolderText(i);

  0009f	8d 45 ec	 lea	 eax, DWORD PTR $T2[ebp]
  000a2	8d 4d e8	 lea	 ecx, DWORD PTR _szText$[ebp]
  000a5	50		 push	 eax
  000a6	ff 15 00 00 00
	00		 call	 DWORD PTR __imp_??4?$CStringT@DV?$StrTraitMFC_DLL@DV?$ChTraitsCRT@D@ATL@@@@@ATL@@QAEAAV01@ABV01@@Z
  000ac	83 65 f0 fe	 and	 DWORD PTR $T3[ebp], -2	; fffffffeH
  000b0	8d 4d ec	 lea	 ecx, DWORD PTR $T2[ebp]
  000b3	c6 45 fc 00	 mov	 BYTE PTR __$EHRec$[ebp+8], 0
  000b7	ff 15 00 00 00
	00		 call	 DWORD PTR __imp_??1?$CStringT@DV?$StrTraitMFC_DLL@DV?$ChTraitsCRT@D@ATL@@@@@ATL@@QAE@XZ

; 1514 : 		if(szText.CompareNoCase(szFolder)==0)

  000bd	ff 75 08	 push	 DWORD PTR _szFolder$[ebp]
  000c0	8d 4d e8	 lea	 ecx, DWORD PTR _szText$[ebp]
  000c3	ff 15 00 00 00
	00		 call	 DWORD PTR __imp_?CompareNoCase@?$CStringT@DV?$StrTraitMFC_DLL@DV?$ChTraitsCRT@D@ATL@@@@@ATL@@QBEHPBD@Z
  000c9	85 c0		 test	 eax, eax
  000cb	74 2c		 je	 SHORT $LN23@SetSelFold

; 1511 : 	for(; i<nCnt; i++)

  000cd	46		 inc	 esi
  000ce	3b 75 e4	 cmp	 esi, DWORD PTR _nCnt$1$[ebp]
  000d1	0f 8c 79 ff ff
	ff		 jl	 $LL4@SetSelFold
$LN3@SetSelFold:

; 1517 : 			return i;
; 1518 : 		}
; 1519 : 	}
; 1520 : 	return -1;

  000d7	83 ce ff	 or	 esi, -1
$LN9@SetSelFold:
  000da	8d 4d e8	 lea	 ecx, DWORD PTR _szText$[ebp]
  000dd	ff 15 00 00 00
	00		 call	 DWORD PTR __imp_??1?$CStringT@DV?$StrTraitMFC_DLL@DV?$ChTraitsCRT@D@ATL@@@@@ATL@@QAE@XZ
  000e3	8b c6		 mov	 eax, esi

; 1521 : }

  000e5	8b 4d f4	 mov	 ecx, DWORD PTR __$EHRec$[ebp]
  000e8	64 89 0d 00 00
	00 00		 mov	 DWORD PTR fs:0, ecx
  000ef	59		 pop	 ecx
  000f0	5f		 pop	 edi
  000f1	5e		 pop	 esi
  000f2	5b		 pop	 ebx
  000f3	8b e5		 mov	 esp, ebp
  000f5	5d		 pop	 ebp
  000f6	c2 04 00	 ret	 4
$LN23@SetSelFold:

; 1515 : 		{
; 1516 : 			SetSelFolder(i);

  000f9	56		 push	 esi
  000fa	8b cb		 mov	 ecx, ebx
  000fc	e8 00 00 00 00	 call	 ?SetSelFolder@CGfxOutBarCtrl@@QAEXH@Z ; CGfxOutBarCtrl::SetSelFolder
  00101	eb d7		 jmp	 SHORT $LN9@SetSelFold
$LN17@SetSelFold:
; File C:\Program Files (x86)\Microsoft Visual Studio\2019\Community\VC\Tools\MSVC\14.29.30133\atlmfc\include\afxcoll.inl

; 204  : 			AfxThrowInvalidArgException();

  00103	e8 00 00 00 00	 call	 ?AfxThrowInvalidArgException@@YGXXZ ; AfxThrowInvalidArgException
$LN29@SetSelFold:
  00108	cc		 int	 3
_TEXT	ENDS
;	COMDAT text$x
text$x	SEGMENT
__unwindfunclet$?SetSelFolder@CGfxOutBarCtrl@@QAEHPBD@Z$0:
  00000	8d 4d e8	 lea	 ecx, DWORD PTR _szText$[ebp]
  00003	ff 25 00 00 00
	00		 jmp	 DWORD PTR __imp_??1?$CStringT@DV?$StrTraitMFC_DLL@DV?$ChTraitsCRT@D@ATL@@@@@ATL@@QAE@XZ
__unwindfunclet$?SetSelFolder@CGfxOutBarCtrl@@QAEHPBD@Z$2:
  00009	8b 45 f0	 mov	 eax, DWORD PTR $T3[ebp]
  0000c	83 e0 01	 and	 eax, 1
  0000f	0f 84 0d 00 00
	00		 je	 $LN14@SetSelFold
  00015	83 65 f0 fe	 and	 DWORD PTR $T3[ebp], -2	; fffffffeH
  00019	8d 4d ec	 lea	 ecx, DWORD PTR $T2[ebp]
  0001c	ff 25 00 00 00
	00		 jmp	 DWORD PTR __imp_??1?$CStringT@DV?$StrTraitMFC_DLL@DV?$ChTraitsCRT@D@ATL@@@@@ATL@@QAE@XZ
$LN14@SetSelFold:
  00022	c3		 ret	 0
  00023	cc		 int	 3
  00024	cc		 int	 3
  00025	cc		 int	 3
  00026	cc		 int	 3
  00027	cc		 int	 3
__ehhandler$?SetSelFolder@CGfxOutBarCtrl@@QAEHPBD@Z:
  00028	90		 npad	 1
  00029	90		 npad	 1
  0002a	8b 54 24 08	 mov	 edx, DWORD PTR [esp+8]
  0002e	8d 42 0c	 lea	 eax, DWORD PTR [edx+12]
  00031	8b 4a e0	 mov	 ecx, DWORD PTR [edx-32]
  00034	33 c8		 xor	 ecx, eax
  00036	e8 00 00 00 00	 call	 @__security_check_cookie@4
  0003b	b8 00 00 00 00	 mov	 eax, OFFSET __ehfuncinfo$?SetSelFolder@CGfxOutBarCtrl@@QAEHPBD@Z
  00040	e9 00 00 00 00	 jmp	 ___CxxFrameHandler3
text$x	ENDS
?SetSelFolder@CGfxOutBarCtrl@@QAEHPBD@Z ENDP		; CGfxOutBarCtrl::SetSelFolder
; Function compile flags: /Ogtp
; File D:\git\src\IBK\IBK_DRFN\ProjSrc\SrcDrfn\Chart\MULTICHART\control\GfxOutBarCtrl.cpp
; File C:\Program Files (x86)\Microsoft Visual Studio\2019\Community\VC\Tools\MSVC\14.29.30133\atlmfc\include\afxcoll.inl
; File D:\git\src\IBK\IBK_DRFN\ProjSrc\SrcDrfn\Chart\MULTICHART\control\GfxOutBarCtrl.cpp
; File C:\Program Files (x86)\Microsoft Visual Studio\2019\Community\VC\Tools\MSVC\14.29.30133\atlmfc\include\afxcoll.inl
; File D:\git\src\IBK\IBK_DRFN\ProjSrc\SrcDrfn\Chart\MULTICHART\control\GfxOutBarCtrl.cpp
; File C:\Program Files (x86)\Microsoft Visual Studio\2019\Community\VC\Tools\MSVC\14.29.30133\atlmfc\include\atltypes.h
; File D:\git\src\IBK\IBK_DRFN\ProjSrc\SrcDrfn\Chart\MULTICHART\control\GfxOutBarCtrl.cpp
; File C:\Program Files (x86)\Microsoft Visual Studio\2019\Community\VC\Tools\MSVC\14.29.30133\atlmfc\include\afxwin2.inl
; File D:\git\src\IBK\IBK_DRFN\ProjSrc\SrcDrfn\Chart\MULTICHART\control\GfxOutBarCtrl.cpp
; File C:\Program Files (x86)\Microsoft Visual Studio\2019\Community\VC\Tools\MSVC\14.29.30133\atlmfc\include\afxwin2.inl
; File D:\git\src\IBK\IBK_DRFN\ProjSrc\SrcDrfn\Chart\MULTICHART\control\GfxOutBarCtrl.cpp
; File C:\Program Files (x86)\Microsoft Visual Studio\2019\Community\VC\Tools\MSVC\14.29.30133\atlmfc\include\afxwin2.inl
; File D:\git\src\IBK\IBK_DRFN\ProjSrc\SrcDrfn\Chart\MULTICHART\control\GfxOutBarCtrl.cpp
; File C:\Program Files (x86)\Microsoft Visual Studio\2019\Community\VC\Tools\MSVC\14.29.30133\atlmfc\include\afxwin2.inl
; File D:\git\src\IBK\IBK_DRFN\ProjSrc\SrcDrfn\Chart\MULTICHART\control\GfxOutBarCtrl.cpp
; File C:\Program Files (x86)\Microsoft Visual Studio\2019\Community\VC\Tools\MSVC\14.29.30133\atlmfc\include\afxcoll.inl
; File D:\git\src\IBK\IBK_DRFN\ProjSrc\SrcDrfn\Chart\MULTICHART\control\GfxOutBarCtrl.cpp
;	COMDAT ?SetSelFolder@CGfxOutBarCtrl@@QAEXH@Z
_TEXT	SEGMENT
_rc$1 = -20						; size = 16
__$ArrayPad$ = -4					; size = 4
_index$ = 8						; size = 4
?SetSelFolder@CGfxOutBarCtrl@@QAEXH@Z PROC		; CGfxOutBarCtrl::SetSelFolder, COMDAT
; _this$ = ecx

; 1524 : {

  00000	55		 push	 ebp
  00001	8b ec		 mov	 ebp, esp
  00003	83 ec 14	 sub	 esp, 20			; 00000014H
  00006	a1 00 00 00 00	 mov	 eax, DWORD PTR ___security_cookie
  0000b	33 c5		 xor	 eax, ebp
  0000d	89 45 fc	 mov	 DWORD PTR __$ArrayPad$[ebp], eax
  00010	56		 push	 esi
  00011	57		 push	 edi
  00012	8b f9		 mov	 edi, ecx

; 2455 : 	int nFolderCnt = GetFolderCount();

  00014	8b 87 0c 01 00
	00		 mov	 eax, DWORD PTR [edi+268]

; 2456 : 	if (nFolderCnt <= iFolder) return NULL;

  0001a	83 f8 ff	 cmp	 eax, -1
  0001d	7e 2d		 jle	 SHORT $LN2@SetSelFold

; 2457 : 	if (nFolderCnt)

  0001f	85 c0		 test	 eax, eax
  00021	74 29		 je	 SHORT $LN2@SetSelFold

; 2458 : 	{
; 2459 : 		if (iFolder < 0) iFolder = iSelFolder;

  00023	8b 8f 34 01 00
	00		 mov	 ecx, DWORD PTR [edi+308]

; 2460 : 		if (nFolderCnt <= iFolder) return NULL;

  00029	3b c1		 cmp	 eax, ecx
  0002b	7e 1f		 jle	 SHORT $LN2@SetSelFold
; File C:\Program Files (x86)\Microsoft Visual Studio\2019\Community\VC\Tools\MSVC\14.29.30133\atlmfc\include\afxcoll.inl

; 203  : 		if( nIndex < 0 || nIndex >= m_nSize )

  0002d	85 c9		 test	 ecx, ecx
  0002f	0f 88 05 01 00
	00		 js	 $LN27@SetSelFold
; File D:\git\src\IBK\IBK_DRFN\ProjSrc\SrcDrfn\Chart\MULTICHART\control\GfxOutBarCtrl.cpp

; 2462 : 		return pbf->pChild;

  00035	8b 87 08 01 00
	00		 mov	 eax, DWORD PTR [edi+264]
  0003b	8b 04 88	 mov	 eax, DWORD PTR [eax+ecx*4]
  0003e	8b 48 28	 mov	 ecx, DWORD PTR [eax+40]

; 1525 : 	ASSERT(index >= 0 && index < GetFolderCount());
; 1526 : //	if (index == iSelFolder) return;
; 1527 : 
; 1528 : 	CWnd * pc = GetFolderChild();
; 1529 : 	if (pc) pc->ShowWindow(SW_HIDE);

  00041	85 c9		 test	 ecx, ecx
  00043	74 07		 je	 SHORT $LN2@SetSelFold
  00045	6a 00		 push	 0
  00047	e8 00 00 00 00	 call	 ?ShowWindow@CWnd@@QAEHH@Z ; CWnd::ShowWindow
$LN2@SetSelFold:

; 1530 : 
; 1531 : 	if (index != iSelFolder)

  0004c	8b 87 34 01 00
	00		 mov	 eax, DWORD PTR [edi+308]
  00052	8b 75 08	 mov	 esi, DWORD PTR _index$[ebp]
  00055	3b f0		 cmp	 esi, eax
  00057	74 1e		 je	 SHORT $LN4@SetSelFold

; 1532 : 	{
; 1533 : 		if (dwFlags&fAnimation && lAnimationTickCount >= 0) AnimateFolderScroll(iSelFolder, index);

  00059	f7 87 00 01 00
	00 00 01 00 00	 test	 DWORD PTR [edi+256], 256 ; 00000100H
  00063	74 12		 je	 SHORT $LN4@SetSelFold
  00065	83 bf f0 00 00
	00 00		 cmp	 DWORD PTR [edi+240], 0
  0006c	7c 09		 jl	 SHORT $LN4@SetSelFold
  0006e	56		 push	 esi
  0006f	50		 push	 eax
  00070	8b cf		 mov	 ecx, edi
  00072	e8 00 00 00 00	 call	 ?AnimateFolderScroll@CGfxOutBarCtrl@@QAEXHH@Z ; CGfxOutBarCtrl::AnimateFolderScroll
$LN4@SetSelFold:

; 2455 : 	int nFolderCnt = GetFolderCount();

  00077	8b 87 0c 01 00
	00		 mov	 eax, DWORD PTR [edi+268]

; 1534 : 	}
; 1535 : 
; 1536 : 	iSelFolder = index;

  0007d	89 b7 34 01 00
	00		 mov	 DWORD PTR [edi+308], esi

; 1537 : 	iFirstItem = 0;

  00083	c7 87 20 01 00
	00 00 00 00 00	 mov	 DWORD PTR [edi+288], 0

; 1538 : 	iLastSel = -1;

  0008d	c7 87 f4 00 00
	00 ff ff ff ff	 mov	 DWORD PTR [edi+244], -1

; 2456 : 	if (nFolderCnt <= iFolder) return NULL;

  00097	83 f8 ff	 cmp	 eax, -1
  0009a	7e 5a		 jle	 SHORT $LN5@SetSelFold

; 2457 : 	if (nFolderCnt)

  0009c	85 c0		 test	 eax, eax
  0009e	74 56		 je	 SHORT $LN5@SetSelFold

; 2460 : 		if (nFolderCnt <= iFolder) return NULL;

  000a0	3b c6		 cmp	 eax, esi
  000a2	7e 52		 jle	 SHORT $LN5@SetSelFold
; File C:\Program Files (x86)\Microsoft Visual Studio\2019\Community\VC\Tools\MSVC\14.29.30133\atlmfc\include\afxcoll.inl

; 203  : 		if( nIndex < 0 || nIndex >= m_nSize )

  000a4	85 f6		 test	 esi, esi
  000a6	0f 88 8e 00 00
	00		 js	 $LN27@SetSelFold
; File D:\git\src\IBK\IBK_DRFN\ProjSrc\SrcDrfn\Chart\MULTICHART\control\GfxOutBarCtrl.cpp

; 2462 : 		return pbf->pChild;

  000ac	8b 87 08 01 00
	00		 mov	 eax, DWORD PTR [edi+264]
  000b2	53		 push	 ebx
  000b3	8b 04 b0	 mov	 eax, DWORD PTR [eax+esi*4]
  000b6	8b 58 28	 mov	 ebx, DWORD PTR [eax+40]

; 1539 : 
; 1540 : 	pc = GetFolderChild();
; 1541 : 	if (pc)

  000b9	85 db		 test	 ebx, ebx
  000bb	74 38		 je	 SHORT $LN43@SetSelFold

; 1544 : 		GetInsideRect(rc);

  000bd	8d 45 ec	 lea	 eax, DWORD PTR _rc$1[ebp]
  000c0	0f 57 c0	 xorps	 xmm0, xmm0
  000c3	50		 push	 eax
  000c4	8b cf		 mov	 ecx, edi
; File C:\Program Files (x86)\Microsoft Visual Studio\2019\Community\VC\Tools\MSVC\14.29.30133\atlmfc\include\atltypes.h

; 528  : 	left = 0;

  000c6	0f 11 45 ec	 movups	 XMMWORD PTR _rc$1[ebp], xmm0
; File D:\git\src\IBK\IBK_DRFN\ProjSrc\SrcDrfn\Chart\MULTICHART\control\GfxOutBarCtrl.cpp

; 1544 : 		GetInsideRect(rc);

  000ca	e8 00 00 00 00	 call	 ?GetInsideRect@CGfxOutBarCtrl@@QBEXAAVCRect@@@Z ; CGfxOutBarCtrl::GetInsideRect
; File C:\Program Files (x86)\Microsoft Visual Studio\2019\Community\VC\Tools\MSVC\14.29.30133\atlmfc\include\afxwin2.inl

; 73   : 	{ MoveWindow(lpRect->left, lpRect->top, lpRect->right - lpRect->left,

  000cf	8b 45 f8	 mov	 eax, DWORD PTR _rc$1[ebp+12]
  000d2	8b cb		 mov	 ecx, ebx
  000d4	8b 75 f0	 mov	 esi, DWORD PTR _rc$1[ebp+4]
  000d7	2b c6		 sub	 eax, esi
  000d9	8b 55 ec	 mov	 edx, DWORD PTR _rc$1[ebp]
  000dc	6a 01		 push	 1
  000de	50		 push	 eax
  000df	8b 45 f4	 mov	 eax, DWORD PTR _rc$1[ebp+8]
  000e2	2b c2		 sub	 eax, edx
  000e4	50		 push	 eax
  000e5	56		 push	 esi
  000e6	52		 push	 edx
  000e7	e8 00 00 00 00	 call	 ?MoveWindow@CWnd@@QAEXHHHHH@Z ; CWnd::MoveWindow
; File D:\git\src\IBK\IBK_DRFN\ProjSrc\SrcDrfn\Chart\MULTICHART\control\GfxOutBarCtrl.cpp

; 1550 : 		pc->ShowWindow(SW_SHOW);

  000ec	6a 05		 push	 5
  000ee	8b cb		 mov	 ecx, ebx
  000f0	e8 00 00 00 00	 call	 ?ShowWindow@CWnd@@QAEHH@Z ; CWnd::ShowWindow
$LN43@SetSelFold:
  000f5	5b		 pop	 ebx
$LN5@SetSelFold:
; File C:\Program Files (x86)\Microsoft Visual Studio\2019\Community\VC\Tools\MSVC\14.29.30133\atlmfc\include\afxwin2.inl

; 213  : 	{ ASSERT(::IsWindow(m_hWnd)); return CWnd::FromHandle(::GetParent(m_hWnd)); }

  000f6	ff 77 20	 push	 DWORD PTR [edi+32]
  000f9	ff 15 00 00 00
	00		 call	 DWORD PTR __imp__GetParent@4
  000ff	50		 push	 eax
  00100	e8 00 00 00 00	 call	 ?FromHandle@CWnd@@SGPAV1@PAUHWND__@@@Z ; CWnd::FromHandle

; 32   : 	{ ASSERT(::IsWindow(m_hWnd)); return ::SendMessage(m_hWnd, message, wParam, lParam); }

  00105	ff b7 34 01 00
	00		 push	 DWORD PTR [edi+308]
  0010b	6a 05		 push	 5
  0010d	68 c1 08 00 00	 push	 2241			; 000008c1H
  00112	ff 70 20	 push	 DWORD PTR [eax+32]
  00115	ff 15 00 00 00
	00		 call	 DWORD PTR __imp__SendMessageA@16

; 114  : 	{ ASSERT(::IsWindow(m_hWnd)); ::InvalidateRect(m_hWnd, NULL, bErase); }

  0011b	6a 01		 push	 1
  0011d	6a 00		 push	 0
  0011f	ff 77 20	 push	 DWORD PTR [edi+32]
  00122	ff 15 00 00 00
	00		 call	 DWORD PTR __imp__InvalidateRect@12
; File D:\git\src\IBK\IBK_DRFN\ProjSrc\SrcDrfn\Chart\MULTICHART\control\GfxOutBarCtrl.cpp

; 1556 : }

  00128	8b 4d fc	 mov	 ecx, DWORD PTR __$ArrayPad$[ebp]
; File C:\Program Files (x86)\Microsoft Visual Studio\2019\Community\VC\Tools\MSVC\14.29.30133\atlmfc\include\afxwin2.inl

; 114  : 	{ ASSERT(::IsWindow(m_hWnd)); ::InvalidateRect(m_hWnd, NULL, bErase); }

  0012b	5f		 pop	 edi
; File D:\git\src\IBK\IBK_DRFN\ProjSrc\SrcDrfn\Chart\MULTICHART\control\GfxOutBarCtrl.cpp

; 1556 : }

  0012c	33 cd		 xor	 ecx, ebp
; File C:\Program Files (x86)\Microsoft Visual Studio\2019\Community\VC\Tools\MSVC\14.29.30133\atlmfc\include\afxwin2.inl

; 114  : 	{ ASSERT(::IsWindow(m_hWnd)); ::InvalidateRect(m_hWnd, NULL, bErase); }

  0012e	5e		 pop	 esi
; File D:\git\src\IBK\IBK_DRFN\ProjSrc\SrcDrfn\Chart\MULTICHART\control\GfxOutBarCtrl.cpp

; 1556 : }

  0012f	e8 00 00 00 00	 call	 @__security_check_cookie@4
  00134	8b e5		 mov	 esp, ebp
  00136	5d		 pop	 ebp
  00137	c2 04 00	 ret	 4
$LN27@SetSelFold:
; File C:\Program Files (x86)\Microsoft Visual Studio\2019\Community\VC\Tools\MSVC\14.29.30133\atlmfc\include\afxcoll.inl

; 204  : 			AfxThrowInvalidArgException();

  0013a	e8 00 00 00 00	 call	 ?AfxThrowInvalidArgException@@YGXXZ ; AfxThrowInvalidArgException
$LN44@SetSelFold:
  0013f	cc		 int	 3
?SetSelFolder@CGfxOutBarCtrl@@QAEXH@Z ENDP		; CGfxOutBarCtrl::SetSelFolder
_TEXT	ENDS
; Function compile flags: /Ogtp
; File D:\git\src\IBK\IBK_DRFN\ProjSrc\SrcDrfn\Chart\MULTICHART\control\GfxOutBarCtrl.cpp
;	COMDAT ?GetFolderCount@CGfxOutBarCtrl@@QBEHXZ
_TEXT	SEGMENT
?GetFolderCount@CGfxOutBarCtrl@@QBEHXZ PROC		; CGfxOutBarCtrl::GetFolderCount, COMDAT
; _this$ = ecx

; 1560 : 	return arFolder.GetSize();

  00000	8b 81 0c 01 00
	00		 mov	 eax, DWORD PTR [ecx+268]

; 1561 : }

  00006	c3		 ret	 0
?GetFolderCount@CGfxOutBarCtrl@@QBEHXZ ENDP		; CGfxOutBarCtrl::GetFolderCount
_TEXT	ENDS
; Function compile flags: /Ogtp
; File D:\git\src\IBK\IBK_DRFN\ProjSrc\SrcDrfn\Chart\MULTICHART\control\GfxOutBarCtrl.cpp
;	COMDAT ?GetSelFolder@CGfxOutBarCtrl@@QBEHXZ
_TEXT	SEGMENT
?GetSelFolder@CGfxOutBarCtrl@@QBEHXZ PROC		; CGfxOutBarCtrl::GetSelFolder, COMDAT
; _this$ = ecx

; 1565 : 	return iSelFolder;

  00000	8b 81 34 01 00
	00		 mov	 eax, DWORD PTR [ecx+308]

; 1566 : }

  00006	c3		 ret	 0
?GetSelFolder@CGfxOutBarCtrl@@QBEHXZ ENDP		; CGfxOutBarCtrl::GetSelFolder
_TEXT	ENDS
; Function compile flags: /Ogtp
; File D:\git\src\IBK\IBK_DRFN\ProjSrc\SrcDrfn\Chart\MULTICHART\control\GfxOutBarCtrl.cpp
; File C:\Program Files (x86)\Microsoft Visual Studio\2019\Community\VC\Tools\MSVC\14.29.30133\atlmfc\include\afxcoll.inl
; File D:\git\src\IBK\IBK_DRFN\ProjSrc\SrcDrfn\Chart\MULTICHART\control\GfxOutBarCtrl.cpp
; File C:\Program Files (x86)\Microsoft Visual Studio\2019\Community\VC\Tools\MSVC\14.29.30133\atlmfc\include\afxcoll.inl
; File D:\git\src\IBK\IBK_DRFN\ProjSrc\SrcDrfn\Chart\MULTICHART\control\GfxOutBarCtrl.cpp
; File C:\Program Files (x86)\Microsoft Visual Studio\2019\Community\VC\Tools\MSVC\14.29.30133\atlmfc\include\afxwin2.inl
; File D:\git\src\IBK\IBK_DRFN\ProjSrc\SrcDrfn\Chart\MULTICHART\control\GfxOutBarCtrl.cpp
; File C:\Program Files (x86)\Microsoft Visual Studio\2019\Community\VC\Tools\MSVC\14.29.30133\atlmfc\include\afxcoll.inl
; File D:\git\src\IBK\IBK_DRFN\ProjSrc\SrcDrfn\Chart\MULTICHART\control\GfxOutBarCtrl.cpp
;	COMDAT ?RemoveFolder@CGfxOutBarCtrl@@QAEXH@Z
_TEXT	SEGMENT
_index$ = 8						; size = 4
?RemoveFolder@CGfxOutBarCtrl@@QAEXH@Z PROC		; CGfxOutBarCtrl::RemoveFolder, COMDAT
; _this$ = ecx

; 1569 : {

  00000	55		 push	 ebp
  00001	8b ec		 mov	 ebp, esp
  00003	53		 push	 ebx
  00004	56		 push	 esi
  00005	57		 push	 edi
; File C:\Program Files (x86)\Microsoft Visual Studio\2019\Community\VC\Tools\MSVC\14.29.30133\atlmfc\include\afxcoll.inl

; 203  : 		if( nIndex < 0 || nIndex >= m_nSize )

  00006	8b 7d 08	 mov	 edi, DWORD PTR _index$[ebp]
; File D:\git\src\IBK\IBK_DRFN\ProjSrc\SrcDrfn\Chart\MULTICHART\control\GfxOutBarCtrl.cpp

; 1569 : {

  00009	8b f1		 mov	 esi, ecx
; File C:\Program Files (x86)\Microsoft Visual Studio\2019\Community\VC\Tools\MSVC\14.29.30133\atlmfc\include\afxcoll.inl

; 203  : 		if( nIndex < 0 || nIndex >= m_nSize )

  0000b	85 ff		 test	 edi, edi
  0000d	78 67		 js	 SHORT $LN9@RemoveFold
  0000f	3b be 0c 01 00
	00		 cmp	 edi, DWORD PTR [esi+268]
  00015	7d 5f		 jge	 SHORT $LN9@RemoveFold
; File D:\git\src\IBK\IBK_DRFN\ProjSrc\SrcDrfn\Chart\MULTICHART\control\GfxOutBarCtrl.cpp

; 1572 : 	delete pbf;

  00017	8b 86 08 01 00
	00		 mov	 eax, DWORD PTR [esi+264]
  0001d	8b 0c b8	 mov	 ecx, DWORD PTR [eax+edi*4]
  00020	85 c9		 test	 ecx, ecx
  00022	74 06		 je	 SHORT $LN5@RemoveFold
  00024	8b 01		 mov	 eax, DWORD PTR [ecx]
  00026	6a 01		 push	 1
  00028	ff 10		 call	 DWORD PTR [eax]
$LN5@RemoveFold:

; 1573 : 	arFolder.RemoveAt(index);

  0002a	6a 01		 push	 1
  0002c	57		 push	 edi
  0002d	8d 8e 04 01 00
	00		 lea	 ecx, DWORD PTR [esi+260]
  00033	e8 00 00 00 00	 call	 ?RemoveAt@CPtrArray@@QAEXHH@Z ; CPtrArray::RemoveAt

; 1574 : 	if (iSelFolder >= index) iSelFolder = index - 1;

  00038	8b 86 34 01 00
	00		 mov	 eax, DWORD PTR [esi+308]
  0003e	3b c7		 cmp	 eax, edi
  00040	7c 09		 jl	 SHORT $LN2@RemoveFold
  00042	8d 47 ff	 lea	 eax, DWORD PTR [edi-1]
  00045	89 86 34 01 00
	00		 mov	 DWORD PTR [esi+308], eax
$LN2@RemoveFold:

; 1575 : 	if (iSelFolder < 0 && GetFolderCount() > 0) iSelFolder = 0;

  0004b	85 c0		 test	 eax, eax
  0004d	79 13		 jns	 SHORT $LN3@RemoveFold
  0004f	83 be 0c 01 00
	00 00		 cmp	 DWORD PTR [esi+268], 0
  00056	7e 0a		 jle	 SHORT $LN3@RemoveFold
  00058	c7 86 34 01 00
	00 00 00 00 00	 mov	 DWORD PTR [esi+308], 0
$LN3@RemoveFold:
; File C:\Program Files (x86)\Microsoft Visual Studio\2019\Community\VC\Tools\MSVC\14.29.30133\atlmfc\include\afxwin2.inl

; 114  : 	{ ASSERT(::IsWindow(m_hWnd)); ::InvalidateRect(m_hWnd, NULL, bErase); }

  00062	6a 01		 push	 1
  00064	6a 00		 push	 0
  00066	ff 76 20	 push	 DWORD PTR [esi+32]
  00069	ff 15 00 00 00
	00		 call	 DWORD PTR __imp__InvalidateRect@12
  0006f	5f		 pop	 edi
  00070	5e		 pop	 esi
  00071	5b		 pop	 ebx
; File D:\git\src\IBK\IBK_DRFN\ProjSrc\SrcDrfn\Chart\MULTICHART\control\GfxOutBarCtrl.cpp

; 1577 : }

  00072	5d		 pop	 ebp
  00073	c2 04 00	 ret	 4
$LN9@RemoveFold:
; File C:\Program Files (x86)\Microsoft Visual Studio\2019\Community\VC\Tools\MSVC\14.29.30133\atlmfc\include\afxcoll.inl

; 204  : 			AfxThrowInvalidArgException();

  00076	e8 00 00 00 00	 call	 ?AfxThrowInvalidArgException@@YGXXZ ; AfxThrowInvalidArgException
$LN14@RemoveFold:
  0007b	cc		 int	 3
?RemoveFolder@CGfxOutBarCtrl@@QAEXH@Z ENDP		; CGfxOutBarCtrl::RemoveFolder
_TEXT	ENDS
; Function compile flags: /Ogtp
; File D:\git\src\IBK\IBK_DRFN\ProjSrc\SrcDrfn\Chart\MULTICHART\control\GfxOutBarCtrl.cpp
;	COMDAT ?GetCountPerPage@CGfxOutBarCtrl@@QBEHXZ
_TEXT	SEGMENT
?GetCountPerPage@CGfxOutBarCtrl@@QBEHXZ PROC		; CGfxOutBarCtrl::GetCountPerPage, COMDAT
; _this$ = ecx

; 1599 : 	return 0;

  00000	33 c0		 xor	 eax, eax

; 1600 : }

  00002	c3		 ret	 0
?GetCountPerPage@CGfxOutBarCtrl@@QBEHXZ ENDP		; CGfxOutBarCtrl::GetCountPerPage
_TEXT	ENDS
; Function compile flags: /Ogtp
; File D:\git\src\IBK\IBK_DRFN\ProjSrc\SrcDrfn\Chart\MULTICHART\control\GfxOutBarCtrl.cpp
;	COMDAT ?SetImageList@CGfxOutBarCtrl@@QAEPAVCImageList@@PAV2@H@Z
_TEXT	SEGMENT
_pImageList$ = 8					; size = 4
_nImageList$ = 12					; size = 4
?SetImageList@CGfxOutBarCtrl@@QAEPAVCImageList@@PAV2@H@Z PROC ; CGfxOutBarCtrl::SetImageList, COMDAT
; _this$ = ecx

; 1603 : {

  00000	55		 push	 ebp
  00001	8b ec		 mov	 ebp, esp

; 1604 : 	CImageList * o = NULL;
; 1605 : 	if (nImageList == fSmallIcon)

  00003	8b 45 0c	 mov	 eax, DWORD PTR _nImageList$[ebp]
  00006	56		 push	 esi
  00007	8b f1		 mov	 esi, ecx
  00009	83 f8 01	 cmp	 eax, 1
  0000c	75 16		 jne	 SHORT $LN2@SetImageLi

; 1606 : 	{
; 1607 : 		o = pSmallImageList;

  0000e	8b 96 3c 01 00
	00		 mov	 edx, DWORD PTR [esi+316]

; 1608 : 		pSmallImageList = pImageList;

  00014	8b 45 08	 mov	 eax, DWORD PTR _pImageList$[ebp]
  00017	89 86 3c 01 00
	00		 mov	 DWORD PTR [esi+316], eax

; 1614 : 	}
; 1615 : 	return o;

  0001d	8b c2		 mov	 eax, edx
  0001f	5e		 pop	 esi

; 1616 : }

  00020	5d		 pop	 ebp
  00021	c2 08 00	 ret	 8
$LN2@SetImageLi:

; 1609 : 	}
; 1610 : 	else if (nImageList == fLargeIcon)

  00024	83 f8 02	 cmp	 eax, 2
  00027	75 16		 jne	 SHORT $LN6@SetImageLi

; 1611 : 	{
; 1612 : 		o = pLargeImageList;

  00029	8b 8e 38 01 00
	00		 mov	 ecx, DWORD PTR [esi+312]

; 1613 : 		pLargeImageList = pImageList;

  0002f	8b 45 08	 mov	 eax, DWORD PTR _pImageList$[ebp]
  00032	89 86 38 01 00
	00		 mov	 DWORD PTR [esi+312], eax

; 1614 : 	}
; 1615 : 	return o;

  00038	8b c1		 mov	 eax, ecx
  0003a	5e		 pop	 esi

; 1616 : }

  0003b	5d		 pop	 ebp
  0003c	c2 08 00	 ret	 8
$LN6@SetImageLi:

; 1614 : 	}
; 1615 : 	return o;

  0003f	33 c0		 xor	 eax, eax
  00041	5e		 pop	 esi

; 1616 : }

  00042	5d		 pop	 ebp
  00043	c2 08 00	 ret	 8
?SetImageList@CGfxOutBarCtrl@@QAEPAVCImageList@@PAV2@H@Z ENDP ; CGfxOutBarCtrl::SetImageList
_TEXT	ENDS
; Function compile flags: /Ogtp
; File D:\git\src\IBK\IBK_DRFN\ProjSrc\SrcDrfn\Chart\MULTICHART\control\GfxOutBarCtrl.cpp
; File C:\Program Files (x86)\Microsoft Visual Studio\2019\Community\VC\Tools\MSVC\14.29.30133\atlmfc\include\afxcoll.inl
; File D:\git\src\IBK\IBK_DRFN\ProjSrc\SrcDrfn\Chart\MULTICHART\control\GfxOutBarCtrl.cpp
; File C:\Program Files (x86)\Microsoft Visual Studio\2019\Community\VC\Tools\MSVC\14.29.30133\atlmfc\include\afxcoll.inl
; File D:\git\src\IBK\IBK_DRFN\ProjSrc\SrcDrfn\Chart\MULTICHART\control\GfxOutBarCtrl.cpp
; File C:\Program Files (x86)\Microsoft Visual Studio\2019\Community\VC\Tools\MSVC\14.29.30133\atlmfc\include\afxcoll.inl
; File D:\git\src\IBK\IBK_DRFN\ProjSrc\SrcDrfn\Chart\MULTICHART\control\GfxOutBarCtrl.cpp
;	COMDAT ?SetFolderImageList@CGfxOutBarCtrl@@QAEPAVCImageList@@HPAV2@H@Z
_TEXT	SEGMENT
_folder$ = 8						; size = 4
_pImageList$ = 12					; size = 4
_nImageList$ = 16					; size = 4
?SetFolderImageList@CGfxOutBarCtrl@@QAEPAVCImageList@@HPAV2@H@Z PROC ; CGfxOutBarCtrl::SetFolderImageList, COMDAT
; _this$ = ecx

; 1626 : {

  00000	55		 push	 ebp
  00001	8b ec		 mov	 ebp, esp
; File C:\Program Files (x86)\Microsoft Visual Studio\2019\Community\VC\Tools\MSVC\14.29.30133\atlmfc\include\afxcoll.inl

; 203  : 		if( nIndex < 0 || nIndex >= m_nSize )

  00003	8b 55 08	 mov	 edx, DWORD PTR _folder$[ebp]
  00006	85 d2		 test	 edx, edx
  00008	78 41		 js	 SHORT $LN8@SetFolderI
  0000a	3b 91 0c 01 00
	00		 cmp	 edx, DWORD PTR [ecx+268]
  00010	7d 39		 jge	 SHORT $LN8@SetFolderI

; 205  : 		return m_pData[nIndex]; }

  00012	8b 81 08 01 00
	00		 mov	 eax, DWORD PTR [ecx+264]
  00018	56		 push	 esi
; File D:\git\src\IBK\IBK_DRFN\ProjSrc\SrcDrfn\Chart\MULTICHART\control\GfxOutBarCtrl.cpp

; 1629 : 	CImageList * o = NULL;

  00019	33 f6		 xor	 esi, esi
; File C:\Program Files (x86)\Microsoft Visual Studio\2019\Community\VC\Tools\MSVC\14.29.30133\atlmfc\include\afxcoll.inl

; 205  : 		return m_pData[nIndex]; }

  0001b	8b 14 90	 mov	 edx, DWORD PTR [eax+edx*4]
; File D:\git\src\IBK\IBK_DRFN\ProjSrc\SrcDrfn\Chart\MULTICHART\control\GfxOutBarCtrl.cpp

; 1630 : 	if (nImageList == fSmallIcon)

  0001e	8b 45 10	 mov	 eax, DWORD PTR _nImageList$[ebp]
  00021	83 f8 01	 cmp	 eax, 1
  00024	75 10		 jne	 SHORT $LN2@SetFolderI

; 1631 : 	{
; 1632 : 		o = pbf->pSmallImageList;

  00026	8b 72 10	 mov	 esi, DWORD PTR [edx+16]

; 1633 : 		pbf->pSmallImageList = pImageList;

  00029	8b 45 0c	 mov	 eax, DWORD PTR _pImageList$[ebp]
  0002c	89 42 10	 mov	 DWORD PTR [edx+16], eax

; 1639 : 	}
; 1640 : 	return o;

  0002f	8b c6		 mov	 eax, esi
  00031	5e		 pop	 esi

; 1641 : }

  00032	5d		 pop	 ebp
  00033	c2 0c 00	 ret	 12			; 0000000cH
$LN2@SetFolderI:

; 1634 : 	}
; 1635 : 	else if (nImageList == fLargeIcon)

  00036	83 f8 02	 cmp	 eax, 2
  00039	75 09		 jne	 SHORT $LN4@SetFolderI

; 1636 : 	{
; 1637 : 		o = pbf->pLargeImageList;

  0003b	8b 72 0c	 mov	 esi, DWORD PTR [edx+12]

; 1638 : 		pbf->pLargeImageList = pImageList;

  0003e	8b 4d 0c	 mov	 ecx, DWORD PTR _pImageList$[ebp]
  00041	89 4a 0c	 mov	 DWORD PTR [edx+12], ecx
$LN4@SetFolderI:

; 1639 : 	}
; 1640 : 	return o;

  00044	8b c6		 mov	 eax, esi
  00046	5e		 pop	 esi

; 1641 : }

  00047	5d		 pop	 ebp
  00048	c2 0c 00	 ret	 12			; 0000000cH
$LN8@SetFolderI:
; File C:\Program Files (x86)\Microsoft Visual Studio\2019\Community\VC\Tools\MSVC\14.29.30133\atlmfc\include\afxcoll.inl

; 204  : 			AfxThrowInvalidArgException();

  0004b	e8 00 00 00 00	 call	 ?AfxThrowInvalidArgException@@YGXXZ ; AfxThrowInvalidArgException
$LN11@SetFolderI:
  00050	cc		 int	 3
?SetFolderImageList@CGfxOutBarCtrl@@QAEPAVCImageList@@HPAV2@H@Z ENDP ; CGfxOutBarCtrl::SetFolderImageList
_TEXT	ENDS
; Function compile flags: /Ogtp
; File D:\git\src\IBK\IBK_DRFN\ProjSrc\SrcDrfn\Chart\MULTICHART\control\GfxOutBarCtrl.cpp
;	COMDAT ?GetImageList@CGfxOutBarCtrl@@QAEPAVCImageList@@PAV2@H@Z
_TEXT	SEGMENT
_pImageList$ = 8					; size = 4
_nImageList$ = 12					; size = 4
?GetImageList@CGfxOutBarCtrl@@QAEPAVCImageList@@PAV2@H@Z PROC ; CGfxOutBarCtrl::GetImageList, COMDAT
; _this$ = ecx

; 1619 : {

  00000	55		 push	 ebp
  00001	8b ec		 mov	 ebp, esp

; 1620 : 	if (nImageList == fSmallIcon) return pSmallImageList;

  00003	8b 45 0c	 mov	 eax, DWORD PTR _nImageList$[ebp]
  00006	83 f8 01	 cmp	 eax, 1
  00009	75 0a		 jne	 SHORT $LN2@GetImageLi
  0000b	8b 81 3c 01 00
	00		 mov	 eax, DWORD PTR [ecx+316]

; 1623 : }

  00011	5d		 pop	 ebp
  00012	c2 08 00	 ret	 8
$LN2@GetImageLi:

; 1621 : 	else if (nImageList == fLargeIcon) return pLargeImageList;

  00015	83 f8 02	 cmp	 eax, 2
  00018	75 0a		 jne	 SHORT $LN4@GetImageLi
  0001a	8b 81 38 01 00
	00		 mov	 eax, DWORD PTR [ecx+312]

; 1623 : }

  00020	5d		 pop	 ebp
  00021	c2 08 00	 ret	 8
$LN4@GetImageLi:

; 1622 : 	return NULL;

  00024	33 c0		 xor	 eax, eax

; 1623 : }

  00026	5d		 pop	 ebp
  00027	c2 08 00	 ret	 8
?GetImageList@CGfxOutBarCtrl@@QAEPAVCImageList@@PAV2@H@Z ENDP ; CGfxOutBarCtrl::GetImageList
_TEXT	ENDS
; Function compile flags: /Ogtp
; File D:\git\src\IBK\IBK_DRFN\ProjSrc\SrcDrfn\Chart\MULTICHART\control\GfxOutBarCtrl.cpp
; File C:\Program Files (x86)\Microsoft Visual Studio\2019\Community\VC\Tools\MSVC\14.29.30133\atlmfc\include\afxcoll.inl
; File D:\git\src\IBK\IBK_DRFN\ProjSrc\SrcDrfn\Chart\MULTICHART\control\GfxOutBarCtrl.cpp
; File C:\Program Files (x86)\Microsoft Visual Studio\2019\Community\VC\Tools\MSVC\14.29.30133\atlmfc\include\afxcoll.inl
; File D:\git\src\IBK\IBK_DRFN\ProjSrc\SrcDrfn\Chart\MULTICHART\control\GfxOutBarCtrl.cpp
; File C:\Program Files (x86)\Microsoft Visual Studio\2019\Community\VC\Tools\MSVC\14.29.30133\atlmfc\include\afxwin1.inl
; File D:\git\src\IBK\IBK_DRFN\ProjSrc\SrcDrfn\Chart\MULTICHART\control\GfxOutBarCtrl.cpp
; File C:\Program Files (x86)\Microsoft Visual Studio\2019\Community\VC\Tools\MSVC\14.29.30133\atlmfc\include\afxwin1.inl
; File D:\git\src\IBK\IBK_DRFN\ProjSrc\SrcDrfn\Chart\MULTICHART\control\GfxOutBarCtrl.cpp
; File C:\Program Files (x86)\Microsoft Visual Studio\2019\Community\VC\Tools\MSVC\14.29.30133\atlmfc\include\afxcoll.inl
; File D:\git\src\IBK\IBK_DRFN\ProjSrc\SrcDrfn\Chart\MULTICHART\control\GfxOutBarCtrl.cpp
; File C:\Program Files (x86)\Microsoft Visual Studio\2019\Community\VC\Tools\MSVC\14.29.30133\atlmfc\include\atltypes.h
; File D:\git\src\IBK\IBK_DRFN\ProjSrc\SrcDrfn\Chart\MULTICHART\control\GfxOutBarCtrl.cpp
; File C:\Program Files (x86)\Microsoft Visual Studio\2019\Community\VC\Tools\MSVC\14.29.30133\atlmfc\include\afxwin1.inl
; File D:\git\src\IBK\IBK_DRFN\ProjSrc\SrcDrfn\Chart\MULTICHART\control\GfxOutBarCtrl.cpp
;	COMDAT ?PaintItems@CGfxOutBarCtrl@@QAEXPAVCDC@@HVCRect@@@Z
_TEXT	SEGMENT
_isdc$1$ = -60						; size = 4
_pbf$1$ = -56						; size = 4
_pDC$GSCopy$1$ = -52					; size = 4
_max$1$ = -48						; size = 4
_itemRegion$ = -44					; size = 8
_this$GSCopy$1$ = -36					; size = 4
_itemRc$2 = -32						; size = 16
__$ArrayPad$ = -16					; size = 4
__$EHRec$ = -12						; size = 12
_pDC$ = 8						; size = 4
_iFolder$ = 12						; size = 4
_rc$ = 16						; size = 16
?PaintItems@CGfxOutBarCtrl@@QAEXPAVCDC@@HVCRect@@@Z PROC ; CGfxOutBarCtrl::PaintItems, COMDAT
; _this$ = ecx

; 1668 : {

  00000	55		 push	 ebp
  00001	8b ec		 mov	 ebp, esp
  00003	6a ff		 push	 -1
  00005	68 00 00 00 00	 push	 __ehhandler$?PaintItems@CGfxOutBarCtrl@@QAEXPAVCDC@@HVCRect@@@Z
  0000a	64 a1 00 00 00
	00		 mov	 eax, DWORD PTR fs:0
  00010	50		 push	 eax
  00011	83 ec 30	 sub	 esp, 48			; 00000030H
  00014	a1 00 00 00 00	 mov	 eax, DWORD PTR ___security_cookie
  00019	33 c5		 xor	 eax, ebp
  0001b	89 45 f0	 mov	 DWORD PTR __$ArrayPad$[ebp], eax
  0001e	56		 push	 esi
  0001f	57		 push	 edi
  00020	50		 push	 eax
  00021	8d 45 f4	 lea	 eax, DWORD PTR __$EHRec$[ebp]
  00024	64 a3 00 00 00
	00		 mov	 DWORD PTR fs:0, eax
  0002a	89 4d dc	 mov	 DWORD PTR _this$GSCopy$1$[ebp], ecx
  0002d	8b 7d 0c	 mov	 edi, DWORD PTR _iFolder$[ebp]
  00030	8b 75 08	 mov	 esi, DWORD PTR _pDC$[ebp]
  00033	89 75 cc	 mov	 DWORD PTR _pDC$GSCopy$1$[ebp], esi
; File C:\Program Files (x86)\Microsoft Visual Studio\2019\Community\VC\Tools\MSVC\14.29.30133\atlmfc\include\afxcoll.inl

; 203  : 		if( nIndex < 0 || nIndex >= m_nSize )

  00036	85 ff		 test	 edi, edi
  00038	0f 88 fa 00 00
	00		 js	 $LN22@PaintItems
  0003e	3b b9 0c 01 00
	00		 cmp	 edi, DWORD PTR [ecx+268]
  00044	0f 8d ee 00 00
	00		 jge	 $LN22@PaintItems

; 205  : 		return m_pData[nIndex]; }

  0004a	8b 81 08 01 00
	00		 mov	 eax, DWORD PTR [ecx+264]
; File D:\git\src\IBK\IBK_DRFN\ProjSrc\SrcDrfn\Chart\MULTICHART\control\GfxOutBarCtrl.cpp

; 1674 : 	int isdc = pDC->SaveDC();

  00050	8b ce		 mov	 ecx, esi
; File C:\Program Files (x86)\Microsoft Visual Studio\2019\Community\VC\Tools\MSVC\14.29.30133\atlmfc\include\afxcoll.inl

; 205  : 		return m_pData[nIndex]; }

  00052	8b 04 b8	 mov	 eax, DWORD PTR [eax+edi*4]
  00055	89 45 c8	 mov	 DWORD PTR _pbf$1$[ebp], eax
; File D:\git\src\IBK\IBK_DRFN\ProjSrc\SrcDrfn\Chart\MULTICHART\control\GfxOutBarCtrl.cpp

; 1671 : 	int max = pbf->GetItemCount(), t;

  00058	8b 40 1c	 mov	 eax, DWORD PTR [eax+28]
  0005b	89 45 d0	 mov	 DWORD PTR _max$1$[ebp], eax

; 1674 : 	int isdc = pDC->SaveDC();

  0005e	8b 06		 mov	 eax, DWORD PTR [esi]
  00060	8b 40 24	 mov	 eax, DWORD PTR [eax+36]
  00063	ff d0		 call	 eax
  00065	89 45 c4	 mov	 DWORD PTR _isdc$1$[ebp], eax
; File C:\Program Files (x86)\Microsoft Visual Studio\2019\Community\VC\Tools\MSVC\14.29.30133\atlmfc\include\afxwin1.inl

; 70   : 	{ m_hObject = NULL; }

  00068	c7 45 d8 00 00
	00 00		 mov	 DWORD PTR _itemRegion$[ebp+4], 0

; 264  : 	{ }

  0006f	c7 45 d4 00 00
	00 00		 mov	 DWORD PTR _itemRegion$[ebp], OFFSET ??_7CRgn@@6B@

; 270  : 	{ return Attach(::CreateRectRgnIndirect(lpRect)); }

  00076	8d 45 10	 lea	 eax, DWORD PTR _rc$[ebp]
; File D:\git\src\IBK\IBK_DRFN\ProjSrc\SrcDrfn\Chart\MULTICHART\control\GfxOutBarCtrl.cpp

; 1675 : 	CRgn itemRegion;

  00079	c7 45 fc 00 00
	00 00		 mov	 DWORD PTR __$EHRec$[ebp+8], 0
; File C:\Program Files (x86)\Microsoft Visual Studio\2019\Community\VC\Tools\MSVC\14.29.30133\atlmfc\include\afxwin1.inl

; 270  : 	{ return Attach(::CreateRectRgnIndirect(lpRect)); }

  00080	50		 push	 eax
  00081	ff 15 00 00 00
	00		 call	 DWORD PTR __imp__CreateRectRgnIndirect@4
  00087	50		 push	 eax
  00088	8d 4d d4	 lea	 ecx, DWORD PTR _itemRegion$[ebp]
  0008b	e8 00 00 00 00	 call	 ?Attach@CGdiObject@@QAEHPAX@Z ; CGdiObject::Attach
; File D:\git\src\IBK\IBK_DRFN\ProjSrc\SrcDrfn\Chart\MULTICHART\control\GfxOutBarCtrl.cpp

; 1677 : 	pDC->SelectClipRgn(&itemRegion);

  00090	8d 45 d4	 lea	 eax, DWORD PTR _itemRegion$[ebp]
  00093	8b ce		 mov	 ecx, esi
  00095	50		 push	 eax
  00096	e8 00 00 00 00	 call	 ?SelectClipRgn@CDC@@QAEHPAVCRgn@@@Z ; CDC::SelectClipRgn

; 1678 : 	itemRegion.DeleteObject();

  0009b	8d 4d d4	 lea	 ecx, DWORD PTR _itemRegion$[ebp]
  0009e	e8 00 00 00 00	 call	 ?DeleteObject@CGdiObject@@QAEHXZ ; CGdiObject::DeleteObject

; 1679 : 	for (t = iFirstItem; t < max; t++)

  000a3	8b 45 dc	 mov	 eax, DWORD PTR _this$GSCopy$1$[ebp]
  000a6	8b b0 20 01 00
	00		 mov	 esi, DWORD PTR [eax+288]
  000ac	3b 75 d0	 cmp	 esi, DWORD PTR _max$1$[ebp]
  000af	7d 50		 jge	 SHORT $LN3@PaintItems
$LL4@PaintItems:
; File C:\Program Files (x86)\Microsoft Visual Studio\2019\Community\VC\Tools\MSVC\14.29.30133\atlmfc\include\afxcoll.inl

; 203  : 		if( nIndex < 0 || nIndex >= m_nSize )

  000b1	85 f6		 test	 esi, esi
  000b3	0f 88 7f 00 00
	00		 js	 $LN22@PaintItems
  000b9	8b 4d c8	 mov	 ecx, DWORD PTR _pbf$1$[ebp]
  000bc	3b 71 1c	 cmp	 esi, DWORD PTR [ecx+28]
  000bf	7d 77		 jge	 SHORT $LN22@PaintItems
; File D:\git\src\IBK\IBK_DRFN\ProjSrc\SrcDrfn\Chart\MULTICHART\control\GfxOutBarCtrl.cpp

; 1683 : 		GetItemRect(iFolder, t, itemRc);

  000c1	8d 4d e0	 lea	 ecx, DWORD PTR _itemRc$2[ebp]
  000c4	0f 57 c0	 xorps	 xmm0, xmm0
  000c7	51		 push	 ecx
  000c8	56		 push	 esi
  000c9	57		 push	 edi
  000ca	8b c8		 mov	 ecx, eax
; File C:\Program Files (x86)\Microsoft Visual Studio\2019\Community\VC\Tools\MSVC\14.29.30133\atlmfc\include\atltypes.h

; 528  : 	left = 0;

  000cc	0f 11 45 e0	 movups	 XMMWORD PTR _itemRc$2[ebp], xmm0
; File D:\git\src\IBK\IBK_DRFN\ProjSrc\SrcDrfn\Chart\MULTICHART\control\GfxOutBarCtrl.cpp

; 1683 : 		GetItemRect(iFolder, t, itemRc);

  000d0	e8 00 00 00 00	 call	 ?GetItemRect@CGfxOutBarCtrl@@QAEXHHAAVCRect@@@Z ; CGfxOutBarCtrl::GetItemRect

; 1684 : 		if (itemRc.top > rc.bottom) break;

  000d5	8b 45 e4	 mov	 eax, DWORD PTR _itemRc$2[ebp+4]
  000d8	3b 45 1c	 cmp	 eax, DWORD PTR _rc$[ebp+12]
  000db	7f 24		 jg	 SHORT $LN3@PaintItems

; 1685 : 		else DrawItem(pDC, iFolder, itemRc, t);

  000dd	0f 10 45 e0	 movups	 xmm0, XMMWORD PTR _itemRc$2[ebp]
  000e1	8b 4d dc	 mov	 ecx, DWORD PTR _this$GSCopy$1$[ebp]
  000e4	6a 00		 push	 0
  000e6	56		 push	 esi
  000e7	83 ec 10	 sub	 esp, 16			; 00000010H
  000ea	8b c4		 mov	 eax, esp
  000ec	57		 push	 edi
  000ed	ff 75 cc	 push	 DWORD PTR _pDC$GSCopy$1$[ebp]
  000f0	0f 11 00	 movups	 XMMWORD PTR [eax], xmm0
  000f3	e8 00 00 00 00	 call	 ?DrawItem@CGfxOutBarCtrl@@QAEXPAVCDC@@HVCRect@@H_N@Z ; CGfxOutBarCtrl::DrawItem
  000f8	8b 45 dc	 mov	 eax, DWORD PTR _this$GSCopy$1$[ebp]
  000fb	46		 inc	 esi
  000fc	3b 75 d0	 cmp	 esi, DWORD PTR _max$1$[ebp]
  000ff	7c b0		 jl	 SHORT $LL4@PaintItems
$LN3@PaintItems:

; 1686 : 	}
; 1687 : 	pDC->RestoreDC(isdc);

  00101	8b 4d cc	 mov	 ecx, DWORD PTR _pDC$GSCopy$1$[ebp]
  00104	ff 75 c4	 push	 DWORD PTR _isdc$1$[ebp]
  00107	8b 01		 mov	 eax, DWORD PTR [ecx]
  00109	ff 50 28	 call	 DWORD PTR [eax+40]
; File C:\Program Files (x86)\Microsoft Visual Studio\2019\Community\VC\Tools\MSVC\14.29.30133\atlmfc\include\afxwin1.inl

; 266  : 	{ }

  0010c	8d 4d d4	 lea	 ecx, DWORD PTR _itemRegion$[ebp]
  0010f	c7 45 d4 00 00
	00 00		 mov	 DWORD PTR _itemRegion$[ebp], OFFSET ??_7CRgn@@6B@
  00116	e8 00 00 00 00	 call	 ??1CGdiObject@@UAE@XZ	; CGdiObject::~CGdiObject
; File D:\git\src\IBK\IBK_DRFN\ProjSrc\SrcDrfn\Chart\MULTICHART\control\GfxOutBarCtrl.cpp

; 1688 : }

  0011b	8b 4d f4	 mov	 ecx, DWORD PTR __$EHRec$[ebp]
  0011e	64 89 0d 00 00
	00 00		 mov	 DWORD PTR fs:0, ecx
  00125	59		 pop	 ecx
  00126	5f		 pop	 edi
  00127	5e		 pop	 esi
  00128	8b 4d f0	 mov	 ecx, DWORD PTR __$ArrayPad$[ebp]
  0012b	33 cd		 xor	 ecx, ebp
  0012d	e8 00 00 00 00	 call	 @__security_check_cookie@4
  00132	8b e5		 mov	 esp, ebp
  00134	5d		 pop	 ebp
  00135	c2 18 00	 ret	 24			; 00000018H
$LN22@PaintItems:
  00138	e8 00 00 00 00	 call	 ?AfxThrowInvalidArgException@@YGXXZ ; AfxThrowInvalidArgException
$LN36@PaintItems:
  0013d	cc		 int	 3
_TEXT	ENDS
;	COMDAT text$x
text$x	SEGMENT
__unwindfunclet$?PaintItems@CGfxOutBarCtrl@@QAEXPAVCDC@@HVCRect@@@Z$0:
  00000	8d 4d d4	 lea	 ecx, DWORD PTR _itemRegion$[ebp]
  00003	e9 00 00 00 00	 jmp	 ??1CRgn@@UAE@XZ		; CRgn::~CRgn
  00008	cc		 int	 3
  00009	cc		 int	 3
  0000a	cc		 int	 3
  0000b	cc		 int	 3
  0000c	cc		 int	 3
__ehhandler$?PaintItems@CGfxOutBarCtrl@@QAEXPAVCDC@@HVCRect@@@Z:
  0000d	90		 npad	 1
  0000e	90		 npad	 1
  0000f	8b 54 24 08	 mov	 edx, DWORD PTR [esp+8]
  00013	8d 42 0c	 lea	 eax, DWORD PTR [edx+12]
  00016	8b 4a c4	 mov	 ecx, DWORD PTR [edx-60]
  00019	33 c8		 xor	 ecx, eax
  0001b	e8 00 00 00 00	 call	 @__security_check_cookie@4
  00020	8b 4a fc	 mov	 ecx, DWORD PTR [edx-4]
  00023	33 c8		 xor	 ecx, eax
  00025	e8 00 00 00 00	 call	 @__security_check_cookie@4
  0002a	b8 00 00 00 00	 mov	 eax, OFFSET __ehfuncinfo$?PaintItems@CGfxOutBarCtrl@@QAEXPAVCDC@@HVCRect@@@Z
  0002f	e9 00 00 00 00	 jmp	 ___CxxFrameHandler3
text$x	ENDS
?PaintItems@CGfxOutBarCtrl@@QAEXPAVCDC@@HVCRect@@@Z ENDP ; CGfxOutBarCtrl::PaintItems
; Function compile flags: /Ogtp
; File D:\git\src\IBK\IBK_DRFN\ProjSrc\SrcDrfn\Chart\MULTICHART\control\GfxOutBarCtrl.cpp
; File C:\Program Files (x86)\Microsoft Visual Studio\2019\Community\VC\Tools\MSVC\14.29.30133\atlmfc\include\afxcoll.inl
; File C:\Program Files (x86)\Microsoft Visual Studio\2019\Community\VC\Tools\MSVC\14.29.30133\atlmfc\include\atltypes.h
; File C:\Program Files (x86)\Microsoft Visual Studio\2019\Community\VC\Tools\MSVC\14.29.30133\atlmfc\include\afxcoll.inl
; File C:\Program Files (x86)\Microsoft Visual Studio\2019\Community\VC\Tools\MSVC\14.29.30133\atlmfc\include\atltypes.h
; File C:\Program Files (x86)\Microsoft Visual Studio\2019\Community\VC\Tools\MSVC\14.29.30133\atlmfc\include\afxcoll.inl
; File D:\git\src\IBK\IBK_DRFN\ProjSrc\SrcDrfn\Chart\MULTICHART\control\GfxOutBarCtrl.cpp
; File C:\Program Files (x86)\Microsoft Visual Studio\2019\Community\VC\Tools\MSVC\14.29.30133\atlmfc\include\atltypes.h
; File D:\git\src\IBK\IBK_DRFN\ProjSrc\SrcDrfn\Chart\MULTICHART\control\GfxOutBarCtrl.cpp
; File C:\Program Files (x86)\Microsoft Visual Studio\2019\Community\VC\Tools\MSVC\14.29.30133\atlmfc\include\afxwin1.inl
; File C:\Program Files (x86)\Microsoft Visual Studio\2019\Community\VC\Tools\MSVC\14.29.30133\atlmfc\include\atltypes.h
; File D:\git\src\IBK\IBK_DRFN\ProjSrc\SrcDrfn\Chart\MULTICHART\control\GfxOutBarCtrl.cpp
; File C:\Program Files (x86)\Microsoft Visual Studio\2019\Community\VC\Tools\MSVC\14.29.30133\atlmfc\include\afxwin1.inl
; File D:\git\src\IBK\IBK_DRFN\ProjSrc\SrcDrfn\Chart\MULTICHART\control\GfxOutBarCtrl.cpp
; File C:\Program Files (x86)\Microsoft Visual Studio\2019\Community\VC\Tools\MSVC\14.29.30133\atlmfc\include\atltypes.h
; File D:\git\src\IBK\IBK_DRFN\ProjSrc\SrcDrfn\Chart\MULTICHART\control\GfxOutBarCtrl.cpp
; File C:\Program Files (x86)\Microsoft Visual Studio\2019\Community\VC\Tools\MSVC\14.29.30133\atlmfc\include\afxwin1.inl
; File C:\Program Files (x86)\Microsoft Visual Studio\2019\Community\VC\Tools\MSVC\14.29.30133\atlmfc\include\atltypes.h
; File D:\git\src\IBK\IBK_DRFN\ProjSrc\SrcDrfn\Chart\MULTICHART\control\GfxOutBarCtrl.cpp
; File C:\Program Files (x86)\Microsoft Visual Studio\2019\Community\VC\Tools\MSVC\14.29.30133\atlmfc\include\afxcoll.inl
; File D:\git\src\IBK\IBK_DRFN\ProjSrc\SrcDrfn\Chart\MULTICHART\control\GfxOutBarCtrl.cpp
;	COMDAT ?GetItemSize@CGfxOutBarCtrl@@QAE?AVCSize@@HHH@Z
_TEXT	SEGMENT
_oft$1$ = -104						; size = 4
$T2 = -104						; size = 1
_szImage$1$ = -100					; size = 4
_szImage$2$ = -96					; size = 4
$T3 = -92						; size = 4
_pi$1$ = -88						; size = 4
_ii$4 = -84						; size = 32
_dc$5 = -52						; size = 20
$T6 = -48						; size = 16
_rc$7 = -32						; size = 16
_size$8 = -24						; size = 8
$T9 = -20						; size = 4
__$ArrayPad$ = -16					; size = 4
__$EHRec$ = -12						; size = 12
___$ReturnUdt$ = 8					; size = 4
_iFolder$ = 12						; size = 4
_index$ = 16						; size = 4
_type$ = 20						; size = 4
?GetItemSize@CGfxOutBarCtrl@@QAE?AVCSize@@HHH@Z PROC	; CGfxOutBarCtrl::GetItemSize, COMDAT
; _this$ = ecx

; 1692 : {

  00000	55		 push	 ebp
  00001	8b ec		 mov	 ebp, esp
  00003	6a ff		 push	 -1
  00005	68 00 00 00 00	 push	 __ehhandler$?GetItemSize@CGfxOutBarCtrl@@QAE?AVCSize@@HHH@Z
  0000a	64 a1 00 00 00
	00		 mov	 eax, DWORD PTR fs:0
  00010	50		 push	 eax
  00011	83 ec 5c	 sub	 esp, 92			; 0000005cH
  00014	a1 00 00 00 00	 mov	 eax, DWORD PTR ___security_cookie
  00019	33 c5		 xor	 eax, ebp
  0001b	89 45 f0	 mov	 DWORD PTR __$ArrayPad$[ebp], eax
  0001e	53		 push	 ebx
  0001f	56		 push	 esi
  00020	57		 push	 edi
  00021	50		 push	 eax
  00022	8d 45 f4	 lea	 eax, DWORD PTR __$EHRec$[ebp]
  00025	64 a3 00 00 00
	00		 mov	 DWORD PTR fs:0, eax
  0002b	8b f9		 mov	 edi, ecx
  0002d	8b 4d 0c	 mov	 ecx, DWORD PTR _iFolder$[ebp]
  00030	8b 75 08	 mov	 esi, DWORD PTR ___$ReturnUdt$[ebp]
  00033	8b 5d 10	 mov	 ebx, DWORD PTR _index$[ebp]
; File C:\Program Files (x86)\Microsoft Visual Studio\2019\Community\VC\Tools\MSVC\14.29.30133\atlmfc\include\afxcoll.inl

; 203  : 		if( nIndex < 0 || nIndex >= m_nSize )

  00036	85 c9		 test	 ecx, ecx
  00038	0f 88 1f 02 00
	00		 js	 $LN25@GetItemSiz
  0003e	3b 8f 0c 01 00
	00		 cmp	 ecx, DWORD PTR [edi+268]
  00044	0f 8d 13 02 00
	00		 jge	 $LN25@GetItemSiz

; 205  : 		return m_pData[nIndex]; }

  0004a	8b 87 08 01 00
	00		 mov	 eax, DWORD PTR [edi+264]
  00050	8b 04 88	 mov	 eax, DWORD PTR [eax+ecx*4]

; 203  : 		if( nIndex < 0 || nIndex >= m_nSize )

  00053	85 db		 test	 ebx, ebx
  00055	0f 88 02 02 00
	00		 js	 $LN25@GetItemSiz
  0005b	3b 58 1c	 cmp	 ebx, DWORD PTR [eax+28]
  0005e	0f 8d f9 01 00
	00		 jge	 $LN25@GetItemSiz

; 205  : 		return m_pData[nIndex]; }

  00064	8b 40 18	 mov	 eax, DWORD PTR [eax+24]
; File C:\Program Files (x86)\Microsoft Visual Studio\2019\Community\VC\Tools\MSVC\14.29.30133\atlmfc\include\atltypes.h

; 312  : 	cx = initCX;

  00067	c7 45 a0 00 00
	00 00		 mov	 DWORD PTR _szImage$2$[ebp], 0

; 313  : 	cy = initCY;

  0006e	c7 45 9c 00 00
	00 00		 mov	 DWORD PTR _szImage$1$[ebp], 0

; 312  : 	cx = initCX;

  00075	c7 45 a4 00 00
	00 00		 mov	 DWORD PTR $T3[ebp], 0
; File C:\Program Files (x86)\Microsoft Visual Studio\2019\Community\VC\Tools\MSVC\14.29.30133\atlmfc\include\afxcoll.inl

; 205  : 		return m_pData[nIndex]; }

  0007c	8b 1c 98	 mov	 ebx, DWORD PTR [eax+ebx*4]
; File C:\Program Files (x86)\Microsoft Visual Studio\2019\Community\VC\Tools\MSVC\14.29.30133\atlmfc\include\atltypes.h

; 312  : 	cx = initCX;

  0007f	c7 06 00 00 00
	00		 mov	 DWORD PTR [esi], 0

; 313  : 	cy = initCY;

  00085	c7 46 04 00 00
	00 00		 mov	 DWORD PTR [esi+4], 0
; File C:\Program Files (x86)\Microsoft Visual Studio\2019\Community\VC\Tools\MSVC\14.29.30133\atlmfc\include\afxcoll.inl

; 205  : 		return m_pData[nIndex]; }

  0008c	89 5d a8	 mov	 DWORD PTR _pi$1$[ebp], ebx
; File D:\git\src\IBK\IBK_DRFN\ProjSrc\SrcDrfn\Chart\MULTICHART\control\GfxOutBarCtrl.cpp

; 1703 : 	if (pi->iImageIndex >= 0)

  0008f	83 7b 04 00	 cmp	 DWORD PTR [ebx+4], 0
  00093	8b 5d 14	 mov	 ebx, DWORD PTR _type$[ebp]
; File C:\Program Files (x86)\Microsoft Visual Studio\2019\Community\VC\Tools\MSVC\14.29.30133\atlmfc\include\atltypes.h

; 313  : 	cy = initCY;

  00096	c7 45 ec 00 00
	00 00		 mov	 DWORD PTR $T9[ebp], 0
; File D:\git\src\IBK\IBK_DRFN\ProjSrc\SrcDrfn\Chart\MULTICHART\control\GfxOutBarCtrl.cpp

; 1703 : 	if (pi->iImageIndex >= 0)

  0009d	7c 54		 jl	 SHORT $LN4@GetItemSiz

; 1704 : 	{
; 1705 : 		if (type != ircLabel)

  0009f	83 fb 02	 cmp	 ebx, 2
  000a2	74 4f		 je	 SHORT $LN4@GetItemSiz

; 186  : 	return dwFlags&fSmallIcon;

  000a4	8a 87 00 01 00
	00		 mov	 al, BYTE PTR [edi+256]
  000aa	24 01		 and	 al, 1
  000ac	88 45 98	 mov	 BYTE PTR $T2[ebp], al

; 1706 : 		{
; 1707 : 			CImageList * il = GetFolderImageList(iFolder, IsSmallIconView());

  000af	ff 75 98	 push	 DWORD PTR $T2[ebp]
  000b2	51		 push	 ecx
  000b3	8b cf		 mov	 ecx, edi
  000b5	e8 00 00 00 00	 call	 ?GetFolderImageList@CGfxOutBarCtrl@@QBEPAVCImageList@@H_N@Z ; CGfxOutBarCtrl::GetFolderImageList
  000ba	8b c8		 mov	 ecx, eax

; 1708 : 			ASSERT(il);
; 1709 : 			if (il)

  000bc	85 c9		 test	 ecx, ecx
  000be	74 33		 je	 SHORT $LN4@GetItemSiz
; File C:\Program Files (x86)\Microsoft Visual Studio\2019\Community\VC\Tools\MSVC\14.29.30133\atlmfc\include\afxwin1.inl

; 881  : 	{ ASSERT(m_hImageList != NULL); return ImageList_GetImageInfo(m_hImageList, nImage, pImageInfo); }

  000c0	8d 45 ac	 lea	 eax, DWORD PTR _ii$4[ebp]
  000c3	50		 push	 eax
  000c4	8b 45 a8	 mov	 eax, DWORD PTR _pi$1$[ebp]
  000c7	ff 70 04	 push	 DWORD PTR [eax+4]
  000ca	ff 71 04	 push	 DWORD PTR [ecx+4]
  000cd	ff 15 00 00 00
	00		 call	 DWORD PTR __imp__ImageList_GetImageInfo@12
; File C:\Program Files (x86)\Microsoft Visual Studio\2019\Community\VC\Tools\MSVC\14.29.30133\atlmfc\include\atltypes.h

; 548  : 	::CopyRect(this, &srcRect);

  000d3	8d 45 bc	 lea	 eax, DWORD PTR _ii$4[ebp+16]
  000d6	50		 push	 eax
  000d7	8d 45 d0	 lea	 eax, DWORD PTR $T6[ebp]
  000da	50		 push	 eax
  000db	ff 15 00 00 00
	00		 call	 DWORD PTR __imp__CopyRect@8

; 586  : 	return CSize(right - left, bottom - top);

  000e1	8b 4d dc	 mov	 ecx, DWORD PTR $T6[ebp+12]
  000e4	2b 4d d4	 sub	 ecx, DWORD PTR $T6[ebp+4]
  000e7	8b 45 d8	 mov	 eax, DWORD PTR $T6[ebp+8]
  000ea	2b 45 d0	 sub	 eax, DWORD PTR $T6[ebp]
  000ed	89 4d 9c	 mov	 DWORD PTR _szImage$1$[ebp], ecx
  000f0	89 45 a0	 mov	 DWORD PTR _szImage$2$[ebp], eax
$LN4@GetItemSiz:
; File D:\git\src\IBK\IBK_DRFN\ProjSrc\SrcDrfn\Chart\MULTICHART\control\GfxOutBarCtrl.cpp

; 1717 : 	if (pi->cItem)

  000f3	8b 45 a8	 mov	 eax, DWORD PTR _pi$1$[ebp]
  000f6	83 78 08 00	 cmp	 DWORD PTR [eax+8], 0
  000fa	0f 84 c1 00 00
	00		 je	 $LN6@GetItemSiz

; 1718 : 	{
; 1719 : 		if (type != ircIcon)

  00100	83 fb 01	 cmp	 ebx, 1
  00103	0f 84 b8 00 00
	00		 je	 $LN6@GetItemSiz

; 1720 : 		{
; 1721 : 			CClientDC dc(this);

  00109	57		 push	 edi
  0010a	8d 4d cc	 lea	 ecx, DWORD PTR _dc$5[ebp]
  0010d	e8 00 00 00 00	 call	 ??0CClientDC@@QAE@PAVCWnd@@@Z ; CClientDC::CClientDC

; 1722 : //			CFont * oft = (CFont *) dc.SelectObject(CFont::FromHandle((HFONT)GetStockObject(DEFAULT_GUI_FONT)));
; 1723 : 			CFont * oft = dc.SelectObject(&m_Font);

  00112	8d 87 54 01 00
	00		 lea	 eax, DWORD PTR [edi+340]
  00118	c7 45 fc 00 00
	00 00		 mov	 DWORD PTR __$EHRec$[ebp+8], 0
  0011f	50		 push	 eax
  00120	8d 4d cc	 lea	 ecx, DWORD PTR _dc$5[ebp]
  00123	e8 00 00 00 00	 call	 ?SelectObject@CDC@@UAEPAVCFont@@PAV2@@Z ; CDC::SelectObject

; 186  : 	return dwFlags&fSmallIcon;

  00128	f6 87 00 01 00
	00 01		 test	 BYTE PTR [edi+256], 1

; 1722 : //			CFont * oft = (CFont *) dc.SelectObject(CFont::FromHandle((HFONT)GetStockObject(DEFAULT_GUI_FONT)));
; 1723 : 			CFont * oft = dc.SelectObject(&m_Font);

  0012f	89 45 98	 mov	 DWORD PTR _oft$1$[ebp], eax

; 1724 : 			if (IsSmallIconView())

  00132	74 2b		 je	 SHORT $LN7@GetItemSiz

; 1726 : 				szLabel = dc.GetTextExtent(pi->cItem, lstrlen(pi->cItem));

  00134	8b 45 a8	 mov	 eax, DWORD PTR _pi$1$[ebp]
  00137	ff 70 08	 push	 DWORD PTR [eax+8]
  0013a	ff 15 00 00 00
	00		 call	 DWORD PTR __imp__lstrlenA@4
; File C:\Program Files (x86)\Microsoft Visual Studio\2019\Community\VC\Tools\MSVC\14.29.30133\atlmfc\include\afxwin1.inl

; 632  : 		VERIFY(::GetTextExtentPoint32(m_hAttribDC, lpszString, nCount, &size));

  00140	8d 4d e8	 lea	 ecx, DWORD PTR _size$8[ebp]
  00143	51		 push	 ecx
  00144	50		 push	 eax
  00145	8b 45 a8	 mov	 eax, DWORD PTR _pi$1$[ebp]
  00148	ff 70 08	 push	 DWORD PTR [eax+8]
  0014b	ff 75 d4	 push	 DWORD PTR _dc$5[ebp+8]
  0014e	ff 15 00 00 00
	00		 call	 DWORD PTR __imp__GetTextExtentPoint32A@16
; File D:\git\src\IBK\IBK_DRFN\ProjSrc\SrcDrfn\Chart\MULTICHART\control\GfxOutBarCtrl.cpp

; 1726 : 				szLabel = dc.GetTextExtent(pi->cItem, lstrlen(pi->cItem));

  00154	8b 45 e8	 mov	 eax, DWORD PTR _size$8[ebp]
  00157	89 45 a4	 mov	 DWORD PTR $T3[ebp], eax
  0015a	8b 45 ec	 mov	 eax, DWORD PTR _size$8[ebp+4]

; 1727 : 			}

  0015d	eb 4c		 jmp	 SHORT $LN70@GetItemSiz
$LN7@GetItemSiz:

; 1731 : 				GetInsideRect(rc);

  0015f	8d 45 e0	 lea	 eax, DWORD PTR _rc$7[ebp]
  00162	0f 57 c0	 xorps	 xmm0, xmm0
  00165	50		 push	 eax
  00166	8b cf		 mov	 ecx, edi
; File C:\Program Files (x86)\Microsoft Visual Studio\2019\Community\VC\Tools\MSVC\14.29.30133\atlmfc\include\atltypes.h

; 528  : 	left = 0;

  00168	0f 11 45 e0	 movups	 XMMWORD PTR _rc$7[ebp], xmm0
; File D:\git\src\IBK\IBK_DRFN\ProjSrc\SrcDrfn\Chart\MULTICHART\control\GfxOutBarCtrl.cpp

; 1731 : 				GetInsideRect(rc);

  0016c	e8 00 00 00 00	 call	 ?GetInsideRect@CGfxOutBarCtrl@@QBEXAAVCRect@@@Z ; CGfxOutBarCtrl::GetInsideRect

; 1732 : 				rc.bottom = rc.top;

  00171	8b 45 e4	 mov	 eax, DWORD PTR _rc$7[ebp+4]
  00174	89 45 ec	 mov	 DWORD PTR _rc$7[ebp+12], eax

; 1733 : 				dc.DrawText(pi->cItem, lstrlen(pi->cItem), rc, DT_CALCRECT|DT_CENTER|DT_WORDBREAK);

  00177	8b 45 a8	 mov	 eax, DWORD PTR _pi$1$[ebp]
  0017a	ff 70 08	 push	 DWORD PTR [eax+8]
  0017d	ff 15 00 00 00
	00		 call	 DWORD PTR __imp__lstrlenA@4
; File C:\Program Files (x86)\Microsoft Visual Studio\2019\Community\VC\Tools\MSVC\14.29.30133\atlmfc\include\afxwin1.inl

; 594  : 		return ::DrawText(m_hDC, lpszString, nCount, lpRect, nFormat); }

  00183	68 11 04 00 00	 push	 1041			; 00000411H
  00188	8d 4d e0	 lea	 ecx, DWORD PTR _rc$7[ebp]
  0018b	51		 push	 ecx
  0018c	50		 push	 eax
  0018d	8b 45 a8	 mov	 eax, DWORD PTR _pi$1$[ebp]
  00190	ff 70 08	 push	 DWORD PTR [eax+8]
  00193	ff 75 d0	 push	 DWORD PTR _dc$5[ebp+4]
  00196	ff 15 00 00 00
	00		 call	 DWORD PTR __imp__DrawTextA@20
; File C:\Program Files (x86)\Microsoft Visual Studio\2019\Community\VC\Tools\MSVC\14.29.30133\atlmfc\include\atltypes.h

; 586  : 	return CSize(right - left, bottom - top);

  0019c	8b 45 e8	 mov	 eax, DWORD PTR _rc$7[ebp+8]
  0019f	2b 45 e0	 sub	 eax, DWORD PTR _rc$7[ebp]
  001a2	89 45 a4	 mov	 DWORD PTR $T3[ebp], eax
  001a5	8b 45 ec	 mov	 eax, DWORD PTR _rc$7[ebp+12]
  001a8	2b 45 e4	 sub	 eax, DWORD PTR _rc$7[ebp+4]
$LN70@GetItemSiz:
; File D:\git\src\IBK\IBK_DRFN\ProjSrc\SrcDrfn\Chart\MULTICHART\control\GfxOutBarCtrl.cpp

; 1736 : 			dc.SelectObject(oft);

  001ab	ff 75 98	 push	 DWORD PTR _oft$1$[ebp]
  001ae	8d 4d cc	 lea	 ecx, DWORD PTR _dc$5[ebp]
  001b1	89 45 ec	 mov	 DWORD PTR $T9[ebp], eax
  001b4	e8 00 00 00 00	 call	 ?SelectObject@CDC@@UAEPAVCFont@@PAV2@@Z ; CDC::SelectObject

; 1737 : 		}

  001b9	8d 4d cc	 lea	 ecx, DWORD PTR _dc$5[ebp]
  001bc	e8 00 00 00 00	 call	 ??1CClientDC@@UAE@XZ	; CClientDC::~CClientDC
$LN6@GetItemSiz:

; 186  : 	return dwFlags&fSmallIcon;

  001c1	f6 87 00 01 00
	00 01		 test	 BYTE PTR [edi+256], 1

; 1738 : 	}
; 1739 : 	if (IsSmallIconView())

  001c8	74 29		 je	 SHORT $LN9@GetItemSiz

; 1740 : 	{
; 1741 : 		if (type == ircIcon) szAll = szImage;

  001ca	83 fb 01	 cmp	 ebx, 1
  001cd	74 29		 je	 SHORT $LN73@GetItemSiz

; 1742 : 		else if (type == ircLabel) szAll = szLabel;

  001cf	83 fb 02	 cmp	 ebx, 2
  001d2	74 36		 je	 SHORT $LN72@GetItemSiz

; 1743 : 		else if (type == ircAll) szAll = CSize(szImage.cx + szLabel.cx + xSmallIconLabelOffset, szImage.cy > szLabel.cy ? szImage.cy : szLabel.cy);

  001d4	83 fb 03	 cmp	 ebx, 3
  001d7	75 64		 jne	 SHORT $LN20@GetItemSiz
  001d9	8b 87 a8 00 00
	00		 mov	 eax, DWORD PTR [edi+168]
  001df	03 45 a4	 add	 eax, DWORD PTR $T3[ebp]
  001e2	03 45 a0	 add	 eax, DWORD PTR _szImage$2$[ebp]
  001e5	8b 4d ec	 mov	 ecx, DWORD PTR $T9[ebp]
  001e8	39 4d 9c	 cmp	 DWORD PTR _szImage$1$[ebp], ecx
  001eb	89 06		 mov	 DWORD PTR [esi], eax
  001ed	0f 4f 4d 9c	 cmovg	 ecx, DWORD PTR _szImage$1$[ebp]

; 1744 : 	}

  001f1	eb 47		 jmp	 SHORT $LN71@GetItemSiz
$LN9@GetItemSiz:

; 1745 : 	else
; 1746 : 	{
; 1747 : 		if (type == ircIcon) szAll = szImage;

  001f3	83 fb 01	 cmp	 ebx, 1
  001f6	75 0d		 jne	 SHORT $LN16@GetItemSiz
$LN73@GetItemSiz:

; 1752 : 		}
; 1753 : 	}
; 1754 : 	return szAll;

  001f8	8b 4d a0	 mov	 ecx, DWORD PTR _szImage$2$[ebp]
  001fb	8b 7d 9c	 mov	 edi, DWORD PTR _szImage$1$[ebp]
  001fe	89 0e		 mov	 DWORD PTR [esi], ecx
  00200	89 7e 04	 mov	 DWORD PTR [esi+4], edi
  00203	eb 38		 jmp	 SHORT $LN20@GetItemSiz
$LN16@GetItemSiz:

; 1748 : 		else if (type == ircLabel) szAll = szLabel;

  00205	83 fb 02	 cmp	 ebx, 2
  00208	75 0d		 jne	 SHORT $LN18@GetItemSiz
$LN72@GetItemSiz:

; 1752 : 		}
; 1753 : 	}
; 1754 : 	return szAll;

  0020a	8b 4d a4	 mov	 ecx, DWORD PTR $T3[ebp]
  0020d	8b 45 ec	 mov	 eax, DWORD PTR $T9[ebp]
  00210	89 0e		 mov	 DWORD PTR [esi], ecx
  00212	89 46 04	 mov	 DWORD PTR [esi+4], eax
  00215	eb 26		 jmp	 SHORT $LN20@GetItemSiz
$LN18@GetItemSiz:

; 1749 : 		else if (type == ircAll) 

  00217	83 fb 03	 cmp	 ebx, 3
  0021a	75 21		 jne	 SHORT $LN20@GetItemSiz

; 1750 : 		{
; 1751 : 			szAll = CSize(szImage.cx > szLabel.cx ? szImage.cx : szLabel.cx, szLabel.cy + szImage.cy + yLargeIconLabelOffset + yLargeIconSpacing);

  0021c	8b 55 a4	 mov	 edx, DWORD PTR $T3[ebp]
  0021f	39 55 a0	 cmp	 DWORD PTR _szImage$2$[ebp], edx
  00222	8b 8f b4 00 00
	00		 mov	 ecx, DWORD PTR [edi+180]
  00228	0f 4f 55 a0	 cmovg	 edx, DWORD PTR _szImage$2$[ebp]
  0022c	03 8f ac 00 00
	00		 add	 ecx, DWORD PTR [edi+172]
  00232	03 4d ec	 add	 ecx, DWORD PTR $T9[ebp]
  00235	03 4d 9c	 add	 ecx, DWORD PTR _szImage$1$[ebp]
  00238	89 16		 mov	 DWORD PTR [esi], edx
$LN71@GetItemSiz:

; 1752 : 		}
; 1753 : 	}
; 1754 : 	return szAll;

  0023a	89 4e 04	 mov	 DWORD PTR [esi+4], ecx
$LN20@GetItemSiz:
  0023d	8b c6		 mov	 eax, esi

; 1755 : }

  0023f	8b 4d f4	 mov	 ecx, DWORD PTR __$EHRec$[ebp]
  00242	64 89 0d 00 00
	00 00		 mov	 DWORD PTR fs:0, ecx
  00249	59		 pop	 ecx
  0024a	5f		 pop	 edi
  0024b	5e		 pop	 esi
  0024c	5b		 pop	 ebx
  0024d	8b 4d f0	 mov	 ecx, DWORD PTR __$ArrayPad$[ebp]
  00250	33 cd		 xor	 ecx, ebp
  00252	e8 00 00 00 00	 call	 @__security_check_cookie@4
  00257	8b e5		 mov	 esp, ebp
  00259	5d		 pop	 ebp
  0025a	c2 10 00	 ret	 16			; 00000010H
$LN25@GetItemSiz:
; File C:\Program Files (x86)\Microsoft Visual Studio\2019\Community\VC\Tools\MSVC\14.29.30133\atlmfc\include\afxcoll.inl

; 204  : 			AfxThrowInvalidArgException();

  0025d	e8 00 00 00 00	 call	 ?AfxThrowInvalidArgException@@YGXXZ ; AfxThrowInvalidArgException
$LN69@GetItemSiz:
  00262	cc		 int	 3
_TEXT	ENDS
;	COMDAT text$x
text$x	SEGMENT
__unwindfunclet$?GetItemSize@CGfxOutBarCtrl@@QAE?AVCSize@@HHH@Z$0:
  00000	8d 4d cc	 lea	 ecx, DWORD PTR _dc$5[ebp]
  00003	e9 00 00 00 00	 jmp	 ??1CClientDC@@UAE@XZ	; CClientDC::~CClientDC
  00008	cc		 int	 3
  00009	cc		 int	 3
  0000a	cc		 int	 3
  0000b	cc		 int	 3
  0000c	cc		 int	 3
__ehhandler$?GetItemSize@CGfxOutBarCtrl@@QAE?AVCSize@@HHH@Z:
  0000d	90		 npad	 1
  0000e	90		 npad	 1
  0000f	8b 54 24 08	 mov	 edx, DWORD PTR [esp+8]
  00013	8d 42 0c	 lea	 eax, DWORD PTR [edx+12]
  00016	8b 4a 94	 mov	 ecx, DWORD PTR [edx-108]
  00019	33 c8		 xor	 ecx, eax
  0001b	e8 00 00 00 00	 call	 @__security_check_cookie@4
  00020	8b 4a fc	 mov	 ecx, DWORD PTR [edx-4]
  00023	33 c8		 xor	 ecx, eax
  00025	e8 00 00 00 00	 call	 @__security_check_cookie@4
  0002a	b8 00 00 00 00	 mov	 eax, OFFSET __ehfuncinfo$?GetItemSize@CGfxOutBarCtrl@@QAE?AVCSize@@HHH@Z
  0002f	e9 00 00 00 00	 jmp	 ___CxxFrameHandler3
text$x	ENDS
?GetItemSize@CGfxOutBarCtrl@@QAE?AVCSize@@HHH@Z ENDP	; CGfxOutBarCtrl::GetItemSize
; Function compile flags: /Ogtp
; File D:\git\src\IBK\IBK_DRFN\ProjSrc\SrcDrfn\Chart\MULTICHART\control\GfxOutBarCtrl.cpp
; File C:\Program Files (x86)\Microsoft Visual Studio\2019\Community\VC\Tools\MSVC\14.29.30133\atlmfc\include\afxcoll.inl
; File D:\git\src\IBK\IBK_DRFN\ProjSrc\SrcDrfn\Chart\MULTICHART\control\GfxOutBarCtrl.cpp
; File C:\Program Files (x86)\Microsoft Visual Studio\2019\Community\VC\Tools\MSVC\14.29.30133\atlmfc\include\afxcoll.inl
; File D:\git\src\IBK\IBK_DRFN\ProjSrc\SrcDrfn\Chart\MULTICHART\control\GfxOutBarCtrl.cpp
; File C:\Program Files (x86)\Microsoft Visual Studio\2019\Community\VC\Tools\MSVC\14.29.30133\atlmfc\include\afxcoll.inl
; File D:\git\src\IBK\IBK_DRFN\ProjSrc\SrcDrfn\Chart\MULTICHART\control\GfxOutBarCtrl.cpp
;	COMDAT ?GetFolderImageList@CGfxOutBarCtrl@@QBEPAVCImageList@@H_N@Z
_TEXT	SEGMENT
_index$ = 8						; size = 4
_bSmall$ = 12						; size = 1
?GetFolderImageList@CGfxOutBarCtrl@@QBEPAVCImageList@@H_N@Z PROC ; CGfxOutBarCtrl::GetFolderImageList, COMDAT
; _this$ = ecx

; 1758 : {

  00000	55		 push	 ebp
  00001	8b ec		 mov	 ebp, esp
; File C:\Program Files (x86)\Microsoft Visual Studio\2019\Community\VC\Tools\MSVC\14.29.30133\atlmfc\include\afxcoll.inl

; 203  : 		if( nIndex < 0 || nIndex >= m_nSize )

  00003	8b 55 08	 mov	 edx, DWORD PTR _index$[ebp]
  00006	85 d2		 test	 edx, edx
  00008	78 39		 js	 SHORT $LN10@GetFolderI
  0000a	3b 91 0c 01 00
	00		 cmp	 edx, DWORD PTR [ecx+268]
  00010	7d 31		 jge	 SHORT $LN10@GetFolderI
; File D:\git\src\IBK\IBK_DRFN\ProjSrc\SrcDrfn\Chart\MULTICHART\control\GfxOutBarCtrl.cpp

; 1761 : 	if (bSmall)

  00012	80 7d 0c 00	 cmp	 BYTE PTR _bSmall$[ebp], 0
; File C:\Program Files (x86)\Microsoft Visual Studio\2019\Community\VC\Tools\MSVC\14.29.30133\atlmfc\include\afxcoll.inl

; 205  : 		return m_pData[nIndex]; }

  00016	8b 81 08 01 00
	00		 mov	 eax, DWORD PTR [ecx+264]
  0001c	8b 04 90	 mov	 eax, DWORD PTR [eax+edx*4]
; File D:\git\src\IBK\IBK_DRFN\ProjSrc\SrcDrfn\Chart\MULTICHART\control\GfxOutBarCtrl.cpp

; 1761 : 	if (bSmall)

  0001f	74 11		 je	 SHORT $LN4@GetFolderI

; 1762 : 	{
; 1763 : 		if (pbf->pSmallImageList) return pbf->pSmallImageList; else return pSmallImageList;

  00021	8b 40 10	 mov	 eax, DWORD PTR [eax+16]
  00024	85 c0		 test	 eax, eax
  00026	75 06		 jne	 SHORT $LN6@GetFolderI
  00028	8b 81 3c 01 00
	00		 mov	 eax, DWORD PTR [ecx+316]
$LN6@GetFolderI:

; 1766 : }

  0002e	5d		 pop	 ebp
  0002f	c2 08 00	 ret	 8
$LN4@GetFolderI:

; 1764 : 	}
; 1765 : 	if (pbf->pLargeImageList) return pbf->pLargeImageList; else return pLargeImageList;

  00032	8b 40 0c	 mov	 eax, DWORD PTR [eax+12]
  00035	85 c0		 test	 eax, eax
  00037	75 f5		 jne	 SHORT $LN6@GetFolderI
  00039	8b 81 38 01 00
	00		 mov	 eax, DWORD PTR [ecx+312]

; 1766 : }

  0003f	5d		 pop	 ebp
  00040	c2 08 00	 ret	 8
$LN10@GetFolderI:
; File C:\Program Files (x86)\Microsoft Visual Studio\2019\Community\VC\Tools\MSVC\14.29.30133\atlmfc\include\afxcoll.inl

; 204  : 			AfxThrowInvalidArgException();

  00043	e8 00 00 00 00	 call	 ?AfxThrowInvalidArgException@@YGXXZ ; AfxThrowInvalidArgException
$LN13@GetFolderI:
  00048	cc		 int	 3
?GetFolderImageList@CGfxOutBarCtrl@@QBEPAVCImageList@@H_N@Z ENDP ; CGfxOutBarCtrl::GetFolderImageList
_TEXT	ENDS
; Function compile flags: /Ogtp
; File D:\git\src\IBK\IBK_DRFN\ProjSrc\SrcDrfn\Chart\MULTICHART\control\GfxOutBarCtrl.cpp
; File C:\Program Files (x86)\Microsoft Visual Studio\2019\Community\VC\Tools\MSVC\14.29.30133\atlmfc\include\afxcoll.inl
; File D:\git\src\IBK\IBK_DRFN\ProjSrc\SrcDrfn\Chart\MULTICHART\control\GfxOutBarCtrl.cpp
; File C:\Program Files (x86)\Microsoft Visual Studio\2019\Community\VC\Tools\MSVC\14.29.30133\atlmfc\include\afxcoll.inl
; File D:\git\src\IBK\IBK_DRFN\ProjSrc\SrcDrfn\Chart\MULTICHART\control\GfxOutBarCtrl.cpp
; File C:\Program Files (x86)\Microsoft Visual Studio\2019\Community\VC\Tools\MSVC\14.29.30133\atlmfc\include\afxcoll.inl
; File D:\git\src\IBK\IBK_DRFN\ProjSrc\SrcDrfn\Chart\MULTICHART\control\GfxOutBarCtrl.cpp
; File C:\Program Files (x86)\Microsoft Visual Studio\2019\Community\VC\Tools\MSVC\14.29.30133\atlmfc\include\afxwin1.inl
; File C:\Program Files (x86)\Microsoft Visual Studio\2019\Community\VC\Tools\MSVC\14.29.30133\atlmfc\include\atltypes.h
; File D:\git\src\IBK\IBK_DRFN\ProjSrc\SrcDrfn\Chart\MULTICHART\control\GfxOutBarCtrl.cpp
; File C:\Program Files (x86)\Microsoft Visual Studio\2019\Community\VC\Tools\MSVC\14.29.30133\atlmfc\include\atltypes.h
; File D:\git\src\IBK\IBK_DRFN\ProjSrc\SrcDrfn\Chart\MULTICHART\control\GfxOutBarCtrl.cpp
; File C:\Program Files (x86)\Microsoft Visual Studio\2019\Community\VC\Tools\MSVC\14.29.30133\atlmfc\include\afxwin1.inl
; File D:\git\src\IBK\IBK_DRFN\ProjSrc\SrcDrfn\Chart\MULTICHART\control\GfxOutBarCtrl.cpp
; File C:\Program Files (x86)\Microsoft Visual Studio\2019\Community\VC\Tools\MSVC\14.29.30133\atlmfc\include\afxwin1.inl
; File D:\git\src\IBK\IBK_DRFN\ProjSrc\SrcDrfn\Chart\MULTICHART\control\GfxOutBarCtrl.cpp
; File C:\Program Files (x86)\Microsoft Visual Studio\2019\Community\VC\Tools\MSVC\14.29.30133\atlmfc\include\atlsimpstr.h
; File C:\Program Files (x86)\Microsoft Visual Studio\2019\Community\VC\Tools\MSVC\14.29.30133\atlmfc\include\afxwin1.inl
; File D:\git\src\IBK\IBK_DRFN\ProjSrc\SrcDrfn\Chart\MULTICHART\control\GfxOutBarCtrl.cpp
; File C:\Program Files (x86)\Microsoft Visual Studio\2019\Community\VC\Tools\MSVC\14.29.30133\atlmfc\include\afxwin1.inl
; File D:\git\src\IBK\IBK_DRFN\ProjSrc\SrcDrfn\Chart\MULTICHART\control\GfxOutBarCtrl.cpp
; File C:\Program Files (x86)\Microsoft Visual Studio\2019\Community\VC\Tools\MSVC\14.29.30133\atlmfc\include\afxwin1.inl
; File C:\Program Files (x86)\Microsoft Visual Studio\2019\Community\VC\Tools\MSVC\14.29.30133\atlmfc\include\atltypes.h
; File D:\git\src\IBK\IBK_DRFN\ProjSrc\SrcDrfn\Chart\MULTICHART\control\GfxOutBarCtrl.cpp
; File C:\Program Files (x86)\Microsoft Visual Studio\2019\Community\VC\Tools\MSVC\14.29.30133\atlmfc\include\afxwin1.inl
; File D:\git\src\IBK\IBK_DRFN\ProjSrc\SrcDrfn\Chart\MULTICHART\control\GfxOutBarCtrl.cpp
; File C:\Program Files (x86)\Microsoft Visual Studio\2019\Community\VC\Tools\MSVC\14.29.30133\atlmfc\include\afxwin1.inl
; File D:\git\src\IBK\IBK_DRFN\ProjSrc\SrcDrfn\Chart\MULTICHART\control\GfxOutBarCtrl.cpp
; File C:\Program Files (x86)\Microsoft Visual Studio\2019\Community\VC\Tools\MSVC\14.29.30133\atlmfc\include\atltypes.h
; File D:\git\src\IBK\IBK_DRFN\ProjSrc\SrcDrfn\Chart\MULTICHART\control\GfxOutBarCtrl.cpp
; File C:\Program Files (x86)\Microsoft Visual Studio\2019\Community\VC\Tools\MSVC\14.29.30133\atlmfc\include\atltypes.h
; File D:\git\src\IBK\IBK_DRFN\ProjSrc\SrcDrfn\Chart\MULTICHART\control\GfxOutBarCtrl.cpp
; File C:\Program Files (x86)\Microsoft Visual Studio\2019\Community\VC\Tools\MSVC\14.29.30133\atlmfc\include\afxcoll.inl
; File D:\git\src\IBK\IBK_DRFN\ProjSrc\SrcDrfn\Chart\MULTICHART\control\GfxOutBarCtrl.cpp
;	COMDAT ?DrawItem@CGfxOutBarCtrl@@QAEXPAVCDC@@HVCRect@@H_N@Z
_TEXT	SEGMENT
_obk$1$ = -96						; size = 4
_index$GSCopy$1$ = -92					; size = 4
_oft$1$ = -88						; size = 4
_ocr$1$ = -84						; size = 4
_ima$1$ = -80						; size = 4
tv894 = -76						; size = 4
tv891 = -76						; size = 4
$T6 = -76						; size = 4
_pi$1$ = -72						; size = 4
$T7 = -65						; size = 1
_ii$8 = -64						; size = 32
_ii$9 = -64						; size = 32
_rc$10 = -32						; size = 16
$T11 = -32						; size = 16
$T12 = -32						; size = 16
__$ArrayPad$ = -16					; size = 4
__$EHRec$ = -12						; size = 12
_pDC$ = 8						; size = 4
_iFolder$ = 12						; size = 4
_rc$ = 16						; size = 16
_index$ = 32						; size = 4
_bOnlyImage$ = 36					; size = 1
?DrawItem@CGfxOutBarCtrl@@QAEXPAVCDC@@HVCRect@@H_N@Z PROC ; CGfxOutBarCtrl::DrawItem, COMDAT
; _this$ = ecx

; 1769 : {

  00000	55		 push	 ebp
  00001	8b ec		 mov	 ebp, esp
  00003	6a ff		 push	 -1
  00005	68 00 00 00 00	 push	 __ehhandler$?DrawItem@CGfxOutBarCtrl@@QAEXPAVCDC@@HVCRect@@H_N@Z
  0000a	64 a1 00 00 00
	00		 mov	 eax, DWORD PTR fs:0
  00010	50		 push	 eax
  00011	83 ec 54	 sub	 esp, 84			; 00000054H
  00014	a1 00 00 00 00	 mov	 eax, DWORD PTR ___security_cookie
  00019	33 c5		 xor	 eax, ebp
  0001b	89 45 f0	 mov	 DWORD PTR __$ArrayPad$[ebp], eax
  0001e	53		 push	 ebx
  0001f	56		 push	 esi
  00020	57		 push	 edi
  00021	50		 push	 eax
  00022	8d 45 f4	 lea	 eax, DWORD PTR __$EHRec$[ebp]
  00025	64 a3 00 00 00
	00		 mov	 DWORD PTR fs:0, eax
  0002b	8b f9		 mov	 edi, ecx

; 186  : 	return dwFlags&fSmallIcon;

  0002d	8a 87 00 01 00
	00		 mov	 al, BYTE PTR [edi+256]

; 1769 : {

  00033	8b 55 0c	 mov	 edx, DWORD PTR _iFolder$[ebp]

; 186  : 	return dwFlags&fSmallIcon;

  00036	24 01		 and	 al, 1

; 1769 : {

  00038	8b 4d 20	 mov	 ecx, DWORD PTR _index$[ebp]
  0003b	8b 5d 08	 mov	 ebx, DWORD PTR _pDC$[ebp]
  0003e	89 4d a4	 mov	 DWORD PTR _index$GSCopy$1$[ebp], ecx

; 186  : 	return dwFlags&fSmallIcon;

  00041	88 45 bf	 mov	 BYTE PTR $T7[ebp], al
; File C:\Program Files (x86)\Microsoft Visual Studio\2019\Community\VC\Tools\MSVC\14.29.30133\atlmfc\include\afxcoll.inl

; 203  : 		if( nIndex < 0 || nIndex >= m_nSize )

  00044	85 d2		 test	 edx, edx
  00046	0f 88 8c 02 00
	00		 js	 $LN24@DrawItem
  0004c	3b 97 0c 01 00
	00		 cmp	 edx, DWORD PTR [edi+268]
  00052	0f 8d 80 02 00
	00		 jge	 $LN24@DrawItem
; File D:\git\src\IBK\IBK_DRFN\ProjSrc\SrcDrfn\Chart\MULTICHART\control\GfxOutBarCtrl.cpp

; 1761 : 	if (bSmall)

  00058	80 7d bf 00	 cmp	 BYTE PTR $T7[ebp], 0
; File C:\Program Files (x86)\Microsoft Visual Studio\2019\Community\VC\Tools\MSVC\14.29.30133\atlmfc\include\afxcoll.inl

; 205  : 		return m_pData[nIndex]; }

  0005c	8b 87 08 01 00
	00		 mov	 eax, DWORD PTR [edi+264]
  00062	8b 04 90	 mov	 eax, DWORD PTR [eax+edx*4]
; File D:\git\src\IBK\IBK_DRFN\ProjSrc\SrcDrfn\Chart\MULTICHART\control\GfxOutBarCtrl.cpp

; 1761 : 	if (bSmall)

  00065	74 12		 je	 SHORT $LN18@DrawItem

; 1762 : 	{
; 1763 : 		if (pbf->pSmallImageList) return pbf->pSmallImageList; else return pSmallImageList;

  00067	8b 70 10	 mov	 esi, DWORD PTR [eax+16]
  0006a	89 75 b0	 mov	 DWORD PTR _ima$1$[ebp], esi
  0006d	85 f6		 test	 esi, esi
  0006f	75 1b		 jne	 SHORT $LN20@DrawItem
  00071	8b b7 3c 01 00
	00		 mov	 esi, DWORD PTR [edi+316]
  00077	eb 10		 jmp	 SHORT $LN102@DrawItem
$LN18@DrawItem:

; 1764 : 	}
; 1765 : 	if (pbf->pLargeImageList) return pbf->pLargeImageList; else return pLargeImageList;

  00079	8b 70 0c	 mov	 esi, DWORD PTR [eax+12]
  0007c	89 75 b0	 mov	 DWORD PTR _ima$1$[ebp], esi
  0007f	85 f6		 test	 esi, esi
  00081	75 09		 jne	 SHORT $LN20@DrawItem
  00083	8b b7 38 01 00
	00		 mov	 esi, DWORD PTR [edi+312]
$LN102@DrawItem:
; File C:\Program Files (x86)\Microsoft Visual Studio\2019\Community\VC\Tools\MSVC\14.29.30133\atlmfc\include\afxcoll.inl

; 203  : 		if( nIndex < 0 || nIndex >= m_nSize )

  00089	89 75 b0	 mov	 DWORD PTR _ima$1$[ebp], esi
$LN20@DrawItem:
  0008c	85 c9		 test	 ecx, ecx
  0008e	0f 88 44 02 00
	00		 js	 $LN24@DrawItem
  00094	3b 48 1c	 cmp	 ecx, DWORD PTR [eax+28]
  00097	0f 8d 3b 02 00
	00		 jge	 $LN24@DrawItem

; 205  : 		return m_pData[nIndex]; }

  0009d	8b 40 18	 mov	 eax, DWORD PTR [eax+24]
  000a0	8b 04 88	 mov	 eax, DWORD PTR [eax+ecx*4]
  000a3	89 45 b8	 mov	 DWORD PTR _pi$1$[ebp], eax
; File D:\git\src\IBK\IBK_DRFN\ProjSrc\SrcDrfn\Chart\MULTICHART\control\GfxOutBarCtrl.cpp

; 1782 : 	if(index == iLastSel && iFolder == iSelFolder)

  000a6	3b 8f f4 00 00
	00		 cmp	 ecx, DWORD PTR [edi+244]
  000ac	75 27		 jne	 SHORT $LN99@DrawItem
  000ae	3b 97 34 01 00
	00		 cmp	 edx, DWORD PTR [edi+308]
  000b4	75 1f		 jne	 SHORT $LN99@DrawItem

; 1783 : 	{
; 1784 : //		oft = (CFont *) pDC->SelectObject(CFont::FromHandle((HFONT)GetStockObject(DEFAULT_GUI_FONT)));
; 1785 : 		oft = (CFont *) pDC->SelectObject(&m_Font);

  000b6	8b 13		 mov	 edx, DWORD PTR [ebx]
  000b8	8d 87 54 01 00
	00		 lea	 eax, DWORD PTR [edi+340]
  000be	50		 push	 eax
  000bf	8b cb		 mov	 ecx, ebx
  000c1	ff 52 30	 call	 DWORD PTR [edx+48]

; 1786 : 		ocr = pDC->SetTextColor(RGB(255, 0, 0));

  000c4	8b 13		 mov	 edx, DWORD PTR [ebx]
  000c6	8b cb		 mov	 ecx, ebx
  000c8	68 ff 00 00 00	 push	 255			; 000000ffH
  000cd	89 45 a8	 mov	 DWORD PTR _oft$1$[ebp], eax
  000d0	ff 52 38	 call	 DWORD PTR [edx+56]

; 1787 : 	}

  000d3	eb 1e		 jmp	 SHORT $LN103@DrawItem
$LN99@DrawItem:

; 1788 : 	else
; 1789 : 	{
; 1790 : //		oft = (CFont *) pDC->SelectObject(CFont::FromHandle((HFONT)GetStockObject(DEFAULT_GUI_FONT)));
; 1791 : 		oft = (CFont *) pDC->SelectObject(&m_Font);

  000d5	8b 13		 mov	 edx, DWORD PTR [ebx]
  000d7	8d 87 54 01 00
	00		 lea	 eax, DWORD PTR [edi+340]
  000dd	50		 push	 eax
  000de	8b cb		 mov	 ecx, ebx
  000e0	ff 52 30	 call	 DWORD PTR [edx+48]

; 1792 : 		ocr = pDC->SetTextColor(crTextColor);

  000e3	ff b7 88 00 00
	00		 push	 DWORD PTR [edi+136]
  000e9	89 45 a8	 mov	 DWORD PTR _oft$1$[ebp], eax
  000ec	8b cb		 mov	 ecx, ebx
  000ee	8b 03		 mov	 eax, DWORD PTR [ebx]
  000f0	ff 50 38	 call	 DWORD PTR [eax+56]
$LN103@DrawItem:

; 1793 : 	}
; 1794 : 
; 1795 : 	int obk = pDC->SetBkMode(TRANSPARENT);

  000f3	6a 01		 push	 1
  000f5	8b cb		 mov	 ecx, ebx
  000f7	89 45 ac	 mov	 DWORD PTR _ocr$1$[ebp], eax
  000fa	e8 00 00 00 00	 call	 ?SetBkMode@CDC@@QAEHH@Z	; CDC::SetBkMode

; 186  : 	return dwFlags&fSmallIcon;

  000ff	8a 8f 00 01 00
	00		 mov	 cl, BYTE PTR [edi+256]
  00105	80 e1 01	 and	 cl, 1

; 1793 : 	}
; 1794 : 
; 1795 : 	int obk = pDC->SetBkMode(TRANSPARENT);

  00108	89 45 a0	 mov	 DWORD PTR _obk$1$[ebp], eax

; 1798 : 	{
; 1799 : 		if (ima)

  0010b	85 f6		 test	 esi, esi
  0010d	0f 84 30 01 00
	00		 je	 $LN9@DrawItem

; 1796 : 
; 1797 : 	if (IsSmallIconView())

  00113	8d 45 c0	 lea	 eax, DWORD PTR _ii$9[ebp]
  00116	50		 push	 eax
  00117	8b 45 b8	 mov	 eax, DWORD PTR _pi$1$[ebp]
  0011a	ff 70 04	 push	 DWORD PTR [eax+4]
  0011d	ff 76 04	 push	 DWORD PTR [esi+4]
  00120	84 c9		 test	 cl, cl
  00122	0f 84 a0 00 00
	00		 je	 $LN4@DrawItem
; File C:\Program Files (x86)\Microsoft Visual Studio\2019\Community\VC\Tools\MSVC\14.29.30133\atlmfc\include\afxwin1.inl

; 881  : 	{ ASSERT(m_hImageList != NULL); return ImageList_GetImageInfo(m_hImageList, nImage, pImageInfo); }

  00128	ff 15 00 00 00
	00		 call	 DWORD PTR __imp__ImageList_GetImageInfo@12
; File C:\Program Files (x86)\Microsoft Visual Studio\2019\Community\VC\Tools\MSVC\14.29.30133\atlmfc\include\atltypes.h

; 548  : 	::CopyRect(this, &srcRect);

  0012e	8d 45 d0	 lea	 eax, DWORD PTR _ii$9[ebp+16]
  00131	50		 push	 eax
  00132	8d 45 e0	 lea	 eax, DWORD PTR $T12[ebp]
  00135	50		 push	 eax
  00136	ff 15 00 00 00
	00		 call	 DWORD PTR __imp__CopyRect@8

; 586  : 	return CSize(right - left, bottom - top);

  0013c	8b 45 e8	 mov	 eax, DWORD PTR $T12[ebp+8]
  0013f	2b 45 e0	 sub	 eax, DWORD PTR $T12[ebp]
  00142	8b 4d ec	 mov	 ecx, DWORD PTR $T12[ebp+12]
  00145	2b 4d e4	 sub	 ecx, DWORD PTR $T12[ebp+4]
; File D:\git\src\IBK\IBK_DRFN\ProjSrc\SrcDrfn\Chart\MULTICHART\control\GfxOutBarCtrl.cpp

; 1805 : 			pt.x = rc.left + 2;

  00148	8b 75 10	 mov	 esi, DWORD PTR _rc$[ebp]
; File C:\Program Files (x86)\Microsoft Visual Studio\2019\Community\VC\Tools\MSVC\14.29.30133\atlmfc\include\atltypes.h

; 586  : 	return CSize(right - left, bottom - top);

  0014b	89 45 b4	 mov	 DWORD PTR tv894[ebp], eax
; File D:\git\src\IBK\IBK_DRFN\ProjSrc\SrcDrfn\Chart\MULTICHART\control\GfxOutBarCtrl.cpp

; 1805 : 			pt.x = rc.left + 2;

  0014e	83 c6 02	 add	 esi, 2

; 1806 : 			pt.y = rc.top + (rc.Height() - szImage.cy) / 2;

  00151	8b 45 1c	 mov	 eax, DWORD PTR _rc$[ebp+12]
  00154	2b c1		 sub	 eax, ecx
  00156	2b 45 14	 sub	 eax, DWORD PTR _rc$[ebp+4]
  00159	99		 cdq
  0015a	2b c2		 sub	 eax, edx
; File C:\Program Files (x86)\Microsoft Visual Studio\2019\Community\VC\Tools\MSVC\14.29.30133\atlmfc\include\afxwin1.inl

; 871  : 	{ ASSERT(m_hImageList != NULL); ASSERT(pDC != NULL); return ImageList_Draw(m_hImageList, nImage, pDC->GetSafeHdc(), pt.x, pt.y, nStyle); }

  0015c	6a 00		 push	 0
; File D:\git\src\IBK\IBK_DRFN\ProjSrc\SrcDrfn\Chart\MULTICHART\control\GfxOutBarCtrl.cpp

; 1806 : 			pt.y = rc.top + (rc.Height() - szImage.cy) / 2;

  0015e	d1 f8		 sar	 eax, 1
  00160	03 45 14	 add	 eax, DWORD PTR _rc$[ebp+4]
; File C:\Program Files (x86)\Microsoft Visual Studio\2019\Community\VC\Tools\MSVC\14.29.30133\atlmfc\include\afxwin1.inl

; 871  : 	{ ASSERT(m_hImageList != NULL); ASSERT(pDC != NULL); return ImageList_Draw(m_hImageList, nImage, pDC->GetSafeHdc(), pt.x, pt.y, nStyle); }

  00163	50		 push	 eax
  00164	8b 45 b0	 mov	 eax, DWORD PTR _ima$1$[ebp]
  00167	56		 push	 esi
  00168	ff 73 04	 push	 DWORD PTR [ebx+4]
  0016b	8b 75 b8	 mov	 esi, DWORD PTR _pi$1$[ebp]
  0016e	ff 76 04	 push	 DWORD PTR [esi+4]
  00171	ff 70 04	 push	 DWORD PTR [eax+4]
  00174	ff 15 00 00 00
	00		 call	 DWORD PTR __imp__ImageList_Draw@24
; File D:\git\src\IBK\IBK_DRFN\ProjSrc\SrcDrfn\Chart\MULTICHART\control\GfxOutBarCtrl.cpp

; 1809 : 			if (!bOnlyImage)

  0017a	80 7d 24 00	 cmp	 BYTE PTR _bOnlyImage$[ebp], 0
  0017e	0f 85 bf 00 00
	00		 jne	 $LN9@DrawItem

; 1810 : 			{
; 1811 : 				rc.left += szImage.cx + xSmallIconLabelOffset;

  00184	8b 87 a8 00 00
	00		 mov	 eax, DWORD PTR [edi+168]

; 1812 : 				pDC->TextOut(rc.left, rc.top, CString(pi->cItem));

  0018a	8d 4d b4	 lea	 ecx, DWORD PTR $T6[ebp]
  0018d	03 45 b4	 add	 eax, DWORD PTR tv894[ebp]
  00190	01 45 10	 add	 DWORD PTR _rc$[ebp], eax
  00193	ff 76 08	 push	 DWORD PTR [esi+8]
  00196	ff 15 00 00 00
	00		 call	 DWORD PTR __imp_??0?$CStringT@DV?$StrTraitMFC_DLL@DV?$ChTraitsCRT@D@ATL@@@@@ATL@@QAE@PBD@Z
; File C:\Program Files (x86)\Microsoft Visual Studio\2019\Community\VC\Tools\MSVC\14.29.30133\atlmfc\include\atlsimpstr.h

; 519  : 		return( GetData()->nDataLength );

  0019c	8b 00		 mov	 eax, DWORD PTR [eax]
; File C:\Program Files (x86)\Microsoft Visual Studio\2019\Community\VC\Tools\MSVC\14.29.30133\atlmfc\include\afxwin1.inl

; 574  : 	{ ASSERT(m_hDC != NULL); return TextOut(x, y, (LPCTSTR)str, (int)str.GetLength()); } // call virtual

  0019e	8b cb		 mov	 ecx, ebx
  001a0	8b 13		 mov	 edx, DWORD PTR [ebx]
; File D:\git\src\IBK\IBK_DRFN\ProjSrc\SrcDrfn\Chart\MULTICHART\control\GfxOutBarCtrl.cpp

; 1812 : 				pDC->TextOut(rc.left, rc.top, CString(pi->cItem));

  001a2	c7 45 fc 00 00
	00 00		 mov	 DWORD PTR __$EHRec$[ebp+8], 0
; File C:\Program Files (x86)\Microsoft Visual Studio\2019\Community\VC\Tools\MSVC\14.29.30133\atlmfc\include\afxwin1.inl

; 574  : 	{ ASSERT(m_hDC != NULL); return TextOut(x, y, (LPCTSTR)str, (int)str.GetLength()); } // call virtual

  001a9	ff 70 f4	 push	 DWORD PTR [eax-12]
  001ac	50		 push	 eax
  001ad	ff 75 14	 push	 DWORD PTR _rc$[ebp+4]
  001b0	ff 75 10	 push	 DWORD PTR _rc$[ebp]
  001b3	ff 52 64	 call	 DWORD PTR [edx+100]
; File D:\git\src\IBK\IBK_DRFN\ProjSrc\SrcDrfn\Chart\MULTICHART\control\GfxOutBarCtrl.cpp

; 1812 : 				pDC->TextOut(rc.left, rc.top, CString(pi->cItem));

  001b6	8d 4d b4	 lea	 ecx, DWORD PTR $T6[ebp]
  001b9	c7 45 fc ff ff
	ff ff		 mov	 DWORD PTR __$EHRec$[ebp+8], -1
  001c0	ff 15 00 00 00
	00		 call	 DWORD PTR __imp_??1?$CStringT@DV?$StrTraitMFC_DLL@DV?$ChTraitsCRT@D@ATL@@@@@ATL@@QAE@XZ

; 1813 : 			}
; 1814 : 			
; 1815 : 		}
; 1816 : 	}

  001c6	eb 7b		 jmp	 SHORT $LN9@DrawItem
$LN4@DrawItem:
; File C:\Program Files (x86)\Microsoft Visual Studio\2019\Community\VC\Tools\MSVC\14.29.30133\atlmfc\include\afxwin1.inl

; 881  : 	{ ASSERT(m_hImageList != NULL); return ImageList_GetImageInfo(m_hImageList, nImage, pImageInfo); }

  001c8	ff 15 00 00 00
	00		 call	 DWORD PTR __imp__ImageList_GetImageInfo@12
; File C:\Program Files (x86)\Microsoft Visual Studio\2019\Community\VC\Tools\MSVC\14.29.30133\atlmfc\include\atltypes.h

; 548  : 	::CopyRect(this, &srcRect);

  001ce	8d 45 d0	 lea	 eax, DWORD PTR _ii$8[ebp+16]
  001d1	50		 push	 eax
  001d2	8d 45 e0	 lea	 eax, DWORD PTR $T11[ebp]
  001d5	50		 push	 eax
  001d6	ff 15 00 00 00
	00		 call	 DWORD PTR __imp__CopyRect@8

; 586  : 	return CSize(right - left, bottom - top);

  001dc	8b 45 ec	 mov	 eax, DWORD PTR $T11[ebp+12]
  001df	2b 45 e4	 sub	 eax, DWORD PTR $T11[ebp+4]
  001e2	89 45 b4	 mov	 DWORD PTR tv891[ebp], eax
; File D:\git\src\IBK\IBK_DRFN\ProjSrc\SrcDrfn\Chart\MULTICHART\control\GfxOutBarCtrl.cpp

; 1825 : 			pt.x = rc.left + (rc.Width() - szImage.cx) / 2;

  001e5	8b 45 18	 mov	 eax, DWORD PTR _rc$[ebp+8]
  001e8	2b 45 e8	 sub	 eax, DWORD PTR $T11[ebp+8]
  001eb	2b 45 10	 sub	 eax, DWORD PTR _rc$[ebp]
  001ee	03 45 e0	 add	 eax, DWORD PTR $T11[ebp]
  001f1	99		 cdq
; File C:\Program Files (x86)\Microsoft Visual Studio\2019\Community\VC\Tools\MSVC\14.29.30133\atlmfc\include\afxwin1.inl

; 871  : 	{ ASSERT(m_hImageList != NULL); ASSERT(pDC != NULL); return ImageList_Draw(m_hImageList, nImage, pDC->GetSafeHdc(), pt.x, pt.y, nStyle); }

  001f2	6a 00		 push	 0
  001f4	ff 75 14	 push	 DWORD PTR _rc$[ebp+4]
; File D:\git\src\IBK\IBK_DRFN\ProjSrc\SrcDrfn\Chart\MULTICHART\control\GfxOutBarCtrl.cpp

; 1825 : 			pt.x = rc.left + (rc.Width() - szImage.cx) / 2;

  001f7	2b c2		 sub	 eax, edx
  001f9	d1 f8		 sar	 eax, 1
  001fb	03 45 10	 add	 eax, DWORD PTR _rc$[ebp]
; File C:\Program Files (x86)\Microsoft Visual Studio\2019\Community\VC\Tools\MSVC\14.29.30133\atlmfc\include\afxwin1.inl

; 871  : 	{ ASSERT(m_hImageList != NULL); ASSERT(pDC != NULL); return ImageList_Draw(m_hImageList, nImage, pDC->GetSafeHdc(), pt.x, pt.y, nStyle); }

  001fe	50		 push	 eax
  001ff	8b 45 b8	 mov	 eax, DWORD PTR _pi$1$[ebp]
  00202	ff 73 04	 push	 DWORD PTR [ebx+4]
  00205	ff 70 04	 push	 DWORD PTR [eax+4]
  00208	ff 76 04	 push	 DWORD PTR [esi+4]
  0020b	ff 15 00 00 00
	00		 call	 DWORD PTR __imp__ImageList_Draw@24
; File D:\git\src\IBK\IBK_DRFN\ProjSrc\SrcDrfn\Chart\MULTICHART\control\GfxOutBarCtrl.cpp

; 1828 : 			if (!bOnlyImage)

  00211	80 7d 24 00	 cmp	 BYTE PTR _bOnlyImage$[ebp], 0
  00215	75 2c		 jne	 SHORT $LN9@DrawItem

; 1829 : 			{
; 1830 : 				rc.top += szImage.cy + yLargeIconLabelOffset;

  00217	8b 87 ac 00 00
	00		 mov	 eax, DWORD PTR [edi+172]
  0021d	03 45 b4	 add	 eax, DWORD PTR tv891[ebp]
  00220	01 45 14	 add	 DWORD PTR _rc$[ebp+4], eax

; 1831 : 				pDC->DrawText(pi->cItem, lstrlen(pi->cItem), rc, DT_CENTER|DT_WORDBREAK);

  00223	8d 45 10	 lea	 eax, DWORD PTR _rc$[ebp]
  00226	8b 33		 mov	 esi, DWORD PTR [ebx]
  00228	6a 11		 push	 17			; 00000011H
  0022a	50		 push	 eax
  0022b	8b 45 b8	 mov	 eax, DWORD PTR _pi$1$[ebp]
  0022e	ff 70 08	 push	 DWORD PTR [eax+8]
  00231	ff 15 00 00 00
	00		 call	 DWORD PTR __imp__lstrlenA@4
  00237	50		 push	 eax
  00238	8b 45 b8	 mov	 eax, DWORD PTR _pi$1$[ebp]
  0023b	8b cb		 mov	 ecx, ebx
  0023d	ff 70 08	 push	 DWORD PTR [eax+8]
  00240	ff 56 70	 call	 DWORD PTR [esi+112]
$LN9@DrawItem:

; 1832 : 			}
; 1833 : 		}
; 1834 : 	}
; 1835 : 	
; 1836 : 	if (dwFlags&fSelHighlight && iLastSel == index && iLastSel >= 0)

  00243	f7 87 00 01 00
	00 00 02 00 00	 test	 DWORD PTR [edi+256], 512 ; 00000200H
  0024d	74 4d		 je	 SHORT $LN10@DrawItem
  0024f	8b 87 f4 00 00
	00		 mov	 eax, DWORD PTR [edi+244]
  00255	3b 45 a4	 cmp	 eax, DWORD PTR _index$GSCopy$1$[ebp]
  00258	75 42		 jne	 SHORT $LN10@DrawItem
  0025a	85 c0		 test	 eax, eax
  0025c	78 3e		 js	 SHORT $LN10@DrawItem

; 1839 : 		GetIconRect(iSelFolder, iLastSel, rc);

  0025e	8d 4d e0	 lea	 ecx, DWORD PTR _rc$10[ebp]
  00261	0f 57 c0	 xorps	 xmm0, xmm0
  00264	51		 push	 ecx
  00265	50		 push	 eax
  00266	ff b7 34 01 00
	00		 push	 DWORD PTR [edi+308]
  0026c	8b cf		 mov	 ecx, edi
; File C:\Program Files (x86)\Microsoft Visual Studio\2019\Community\VC\Tools\MSVC\14.29.30133\atlmfc\include\atltypes.h

; 528  : 	left = 0;

  0026e	0f 11 45 e0	 movups	 XMMWORD PTR _rc$10[ebp], xmm0
; File D:\git\src\IBK\IBK_DRFN\ProjSrc\SrcDrfn\Chart\MULTICHART\control\GfxOutBarCtrl.cpp

; 1839 : 		GetIconRect(iSelFolder, iLastSel, rc);

  00272	e8 00 00 00 00	 call	 ?GetIconRect@CGfxOutBarCtrl@@QAEXHHAAVCRect@@@Z ; CGfxOutBarCtrl::GetIconRect
; File C:\Program Files (x86)\Microsoft Visual Studio\2019\Community\VC\Tools\MSVC\14.29.30133\atlmfc\include\atltypes.h

; 686  : 	::InflateRect(this, x, y);

  00277	6a 01		 push	 1
  00279	6a 01		 push	 1
  0027b	8d 45 e0	 lea	 eax, DWORD PTR _rc$10[ebp]
  0027e	50		 push	 eax
  0027f	ff 15 00 00 00
	00		 call	 DWORD PTR __imp__InflateRect@12
; File D:\git\src\IBK\IBK_DRFN\ProjSrc\SrcDrfn\Chart\MULTICHART\control\GfxOutBarCtrl.cpp

; 1841 : 		pDC->Draw3dRect(rc, crDkShadowBorder, cr3dFace);

  00285	ff b7 90 00 00
	00		 push	 DWORD PTR [edi+144]
  0028b	8d 45 e0	 lea	 eax, DWORD PTR _rc$10[ebp]
  0028e	8b cb		 mov	 ecx, ebx
  00290	ff b7 9c 00 00
	00		 push	 DWORD PTR [edi+156]
  00296	50		 push	 eax
  00297	e8 00 00 00 00	 call	 ?Draw3dRect@CDC@@QAEXPBUtagRECT@@KK@Z ; CDC::Draw3dRect
$LN10@DrawItem:

; 1842 : 	}
; 1843 : 
; 1844 : 	pDC->SetTextColor(ocr);

  0029c	8b 03		 mov	 eax, DWORD PTR [ebx]
  0029e	8b cb		 mov	 ecx, ebx
  002a0	ff 75 ac	 push	 DWORD PTR _ocr$1$[ebp]
  002a3	ff 50 38	 call	 DWORD PTR [eax+56]

; 1845 : 	pDC->SelectObject(oft);

  002a6	8b 03		 mov	 eax, DWORD PTR [ebx]
  002a8	8b cb		 mov	 ecx, ebx
  002aa	ff 75 a8	 push	 DWORD PTR _oft$1$[ebp]
  002ad	ff 50 30	 call	 DWORD PTR [eax+48]

; 1846 : 	pDC->SetBkMode(obk);

  002b0	ff 75 a0	 push	 DWORD PTR _obk$1$[ebp]
  002b3	8b cb		 mov	 ecx, ebx
  002b5	e8 00 00 00 00	 call	 ?SetBkMode@CDC@@QAEHH@Z	; CDC::SetBkMode

; 1848 : }

  002ba	8b 4d f4	 mov	 ecx, DWORD PTR __$EHRec$[ebp]
  002bd	64 89 0d 00 00
	00 00		 mov	 DWORD PTR fs:0, ecx
  002c4	59		 pop	 ecx
  002c5	5f		 pop	 edi
  002c6	5e		 pop	 esi
  002c7	5b		 pop	 ebx
  002c8	8b 4d f0	 mov	 ecx, DWORD PTR __$ArrayPad$[ebp]
  002cb	33 cd		 xor	 ecx, ebp
  002cd	e8 00 00 00 00	 call	 @__security_check_cookie@4
  002d2	8b e5		 mov	 esp, ebp
  002d4	5d		 pop	 ebp
  002d5	c2 20 00	 ret	 32			; 00000020H
$LN24@DrawItem:
; File C:\Program Files (x86)\Microsoft Visual Studio\2019\Community\VC\Tools\MSVC\14.29.30133\atlmfc\include\afxcoll.inl

; 204  : 			AfxThrowInvalidArgException();

  002d8	e8 00 00 00 00	 call	 ?AfxThrowInvalidArgException@@YGXXZ ; AfxThrowInvalidArgException
$LN101@DrawItem:
  002dd	cc		 int	 3
_TEXT	ENDS
;	COMDAT text$x
text$x	SEGMENT
__unwindfunclet$?DrawItem@CGfxOutBarCtrl@@QAEXPAVCDC@@HVCRect@@H_N@Z$0:
  00000	8d 4d b4	 lea	 ecx, DWORD PTR $T6[ebp]
  00003	ff 25 00 00 00
	00		 jmp	 DWORD PTR __imp_??1?$CStringT@DV?$StrTraitMFC_DLL@DV?$ChTraitsCRT@D@ATL@@@@@ATL@@QAE@XZ
  00009	cc		 int	 3
  0000a	cc		 int	 3
  0000b	cc		 int	 3
  0000c	cc		 int	 3
  0000d	cc		 int	 3
__ehhandler$?DrawItem@CGfxOutBarCtrl@@QAEXPAVCDC@@HVCRect@@H_N@Z:
  0000e	90		 npad	 1
  0000f	90		 npad	 1
  00010	8b 54 24 08	 mov	 edx, DWORD PTR [esp+8]
  00014	8d 42 0c	 lea	 eax, DWORD PTR [edx+12]
  00017	8b 4a 9c	 mov	 ecx, DWORD PTR [edx-100]
  0001a	33 c8		 xor	 ecx, eax
  0001c	e8 00 00 00 00	 call	 @__security_check_cookie@4
  00021	8b 4a fc	 mov	 ecx, DWORD PTR [edx-4]
  00024	33 c8		 xor	 ecx, eax
  00026	e8 00 00 00 00	 call	 @__security_check_cookie@4
  0002b	b8 00 00 00 00	 mov	 eax, OFFSET __ehfuncinfo$?DrawItem@CGfxOutBarCtrl@@QAEXPAVCDC@@HVCRect@@H_N@Z
  00030	e9 00 00 00 00	 jmp	 ___CxxFrameHandler3
text$x	ENDS
?DrawItem@CGfxOutBarCtrl@@QAEXPAVCDC@@HVCRect@@H_N@Z ENDP ; CGfxOutBarCtrl::DrawItem
; Function compile flags: /Ogtp
; File D:\git\src\IBK\IBK_DRFN\ProjSrc\SrcDrfn\Chart\MULTICHART\control\GfxOutBarCtrl.cpp
; File C:\Program Files (x86)\Microsoft Visual Studio\2019\Community\VC\Tools\MSVC\14.29.30133\atlmfc\include\atltypes.h
; File D:\git\src\IBK\IBK_DRFN\ProjSrc\SrcDrfn\Chart\MULTICHART\control\GfxOutBarCtrl.cpp
; File C:\Program Files (x86)\Microsoft Visual Studio\2019\Community\VC\Tools\MSVC\14.29.30133\atlmfc\include\afxcoll.inl
; File D:\git\src\IBK\IBK_DRFN\ProjSrc\SrcDrfn\Chart\MULTICHART\control\GfxOutBarCtrl.cpp
; File C:\Program Files (x86)\Microsoft Visual Studio\2019\Community\VC\Tools\MSVC\14.29.30133\atlmfc\include\afxcoll.inl
; File D:\git\src\IBK\IBK_DRFN\ProjSrc\SrcDrfn\Chart\MULTICHART\control\GfxOutBarCtrl.cpp
; File C:\Program Files (x86)\Microsoft Visual Studio\2019\Community\VC\Tools\MSVC\14.29.30133\atlmfc\include\afxcoll.inl
; File D:\git\src\IBK\IBK_DRFN\ProjSrc\SrcDrfn\Chart\MULTICHART\control\GfxOutBarCtrl.cpp
; File C:\Program Files (x86)\Microsoft Visual Studio\2019\Community\VC\Tools\MSVC\14.29.30133\atlmfc\include\atltypes.h
; File D:\git\src\IBK\IBK_DRFN\ProjSrc\SrcDrfn\Chart\MULTICHART\control\GfxOutBarCtrl.cpp
;	COMDAT ?GetVisibleRange@CGfxOutBarCtrl@@QAEXHAAH0@Z
_TEXT	SEGMENT
_max$1$ = -48						; size = 4
_iFolder$GSCopy$1$ = -44				; size = 4
_this$GSCopy$1$ = -40					; size = 4
_rc$ = -36						; size = 16
_itemRc$1 = -20						; size = 16
__$ArrayPad$ = -4					; size = 4
_iFolder$ = 8						; size = 4
_first$ = 12						; size = 4
_last$ = 16						; size = 4
?GetVisibleRange@CGfxOutBarCtrl@@QAEXHAAH0@Z PROC	; CGfxOutBarCtrl::GetVisibleRange, COMDAT
; _this$ = ecx

; 1866 : {

  00000	55		 push	 ebp
  00001	8b ec		 mov	 ebp, esp
  00003	83 ec 30	 sub	 esp, 48			; 00000030H
  00006	a1 00 00 00 00	 mov	 eax, DWORD PTR ___security_cookie
  0000b	33 c5		 xor	 eax, ebp
  0000d	89 45 fc	 mov	 DWORD PTR __$ArrayPad$[ebp], eax
  00010	8b 55 0c	 mov	 edx, DWORD PTR _first$[ebp]
  00013	0f 57 c0	 xorps	 xmm0, xmm0
  00016	8b 45 08	 mov	 eax, DWORD PTR _iFolder$[ebp]
  00019	89 45 d4	 mov	 DWORD PTR _iFolder$GSCopy$1$[ebp], eax

; 1867 : 	first = iFirstItem;

  0001c	8b 81 20 01 00
	00		 mov	 eax, DWORD PTR [ecx+288]
  00022	57		 push	 edi
  00023	8b 7d 10	 mov	 edi, DWORD PTR _last$[ebp]
  00026	89 02		 mov	 DWORD PTR [edx], eax

; 1869 : 	GetInsideRect(rc);

  00028	8d 45 dc	 lea	 eax, DWORD PTR _rc$[ebp]
  0002b	50		 push	 eax
  0002c	89 4d d8	 mov	 DWORD PTR _this$GSCopy$1$[ebp], ecx
; File C:\Program Files (x86)\Microsoft Visual Studio\2019\Community\VC\Tools\MSVC\14.29.30133\atlmfc\include\atltypes.h

; 528  : 	left = 0;

  0002f	0f 11 45 dc	 movups	 XMMWORD PTR _rc$[ebp], xmm0
; File D:\git\src\IBK\IBK_DRFN\ProjSrc\SrcDrfn\Chart\MULTICHART\control\GfxOutBarCtrl.cpp

; 1869 : 	GetInsideRect(rc);

  00033	e8 00 00 00 00	 call	 ?GetInsideRect@CGfxOutBarCtrl@@QBEXAAVCRect@@@Z ; CGfxOutBarCtrl::GetInsideRect

; 1870 : 
; 1871 : 	if (arFolder.GetSize() <= iFolder)	return;

  00038	8b 4d d8	 mov	 ecx, DWORD PTR _this$GSCopy$1$[ebp]
  0003b	8b 55 d4	 mov	 edx, DWORD PTR _iFolder$GSCopy$1$[ebp]
  0003e	39 91 0c 01 00
	00		 cmp	 DWORD PTR [ecx+268], edx
  00044	7e 52		 jle	 SHORT $LN3@GetVisible
; File C:\Program Files (x86)\Microsoft Visual Studio\2019\Community\VC\Tools\MSVC\14.29.30133\atlmfc\include\afxcoll.inl

; 203  : 		if( nIndex < 0 || nIndex >= m_nSize )

  00046	85 d2		 test	 edx, edx
  00048	78 75		 js	 SHORT $LN18@GetVisible

; 205  : 		return m_pData[nIndex]; }

  0004a	8b 81 08 01 00
	00		 mov	 eax, DWORD PTR [ecx+264]
  00050	53		 push	 ebx
  00051	56		 push	 esi
; File D:\git\src\IBK\IBK_DRFN\ProjSrc\SrcDrfn\Chart\MULTICHART\control\GfxOutBarCtrl.cpp

; 1874 : 	for (t = iFirstItem; t < max; t++)

  00052	8b b1 20 01 00
	00		 mov	 esi, DWORD PTR [ecx+288]
; File C:\Program Files (x86)\Microsoft Visual Studio\2019\Community\VC\Tools\MSVC\14.29.30133\atlmfc\include\afxcoll.inl

; 205  : 		return m_pData[nIndex]; }

  00058	8b 1c 90	 mov	 ebx, DWORD PTR [eax+edx*4]
; File D:\git\src\IBK\IBK_DRFN\ProjSrc\SrcDrfn\Chart\MULTICHART\control\GfxOutBarCtrl.cpp

; 1873 : 	int max = pbf->GetItemCount(), t;

  0005b	8b 43 1c	 mov	 eax, DWORD PTR [ebx+28]
  0005e	89 45 d0	 mov	 DWORD PTR _max$1$[ebp], eax

; 1874 : 	for (t = iFirstItem; t < max; t++)

  00061	3b f0		 cmp	 esi, eax
  00063	7d 31		 jge	 SHORT $LN28@GetVisible
$LL4@GetVisible:
; File C:\Program Files (x86)\Microsoft Visual Studio\2019\Community\VC\Tools\MSVC\14.29.30133\atlmfc\include\afxcoll.inl

; 203  : 		if( nIndex < 0 || nIndex >= m_nSize )

  00065	85 f6		 test	 esi, esi
  00067	78 56		 js	 SHORT $LN18@GetVisible
  00069	3b 73 1c	 cmp	 esi, DWORD PTR [ebx+28]
  0006c	7d 51		 jge	 SHORT $LN18@GetVisible
; File D:\git\src\IBK\IBK_DRFN\ProjSrc\SrcDrfn\Chart\MULTICHART\control\GfxOutBarCtrl.cpp

; 1878 : 		GetItemRect(iFolder, t, itemRc);

  0006e	8d 45 ec	 lea	 eax, DWORD PTR _itemRc$1[ebp]
  00071	0f 57 c0	 xorps	 xmm0, xmm0
  00074	50		 push	 eax
  00075	56		 push	 esi
  00076	52		 push	 edx
; File C:\Program Files (x86)\Microsoft Visual Studio\2019\Community\VC\Tools\MSVC\14.29.30133\atlmfc\include\atltypes.h

; 528  : 	left = 0;

  00077	0f 11 45 ec	 movups	 XMMWORD PTR _itemRc$1[ebp], xmm0
; File D:\git\src\IBK\IBK_DRFN\ProjSrc\SrcDrfn\Chart\MULTICHART\control\GfxOutBarCtrl.cpp

; 1878 : 		GetItemRect(iFolder, t, itemRc);

  0007b	e8 00 00 00 00	 call	 ?GetItemRect@CGfxOutBarCtrl@@QAEXHHAAVCRect@@@Z ; CGfxOutBarCtrl::GetItemRect

; 1879 : 		if (itemRc.bottom > rc.bottom) 

  00080	8b 45 f8	 mov	 eax, DWORD PTR _itemRc$1[ebp+12]
  00083	3b 45 e8	 cmp	 eax, DWORD PTR _rc$[ebp+12]
  00086	7f 21		 jg	 SHORT $LN24@GetVisible

; 1874 : 	for (t = iFirstItem; t < max; t++)

  00088	8b 4d d8	 mov	 ecx, DWORD PTR _this$GSCopy$1$[ebp]
  0008b	8b 55 d4	 mov	 edx, DWORD PTR _iFolder$GSCopy$1$[ebp]

; 1880 : 		{
; 1881 : 			last = t - 1;
; 1882 : 			break;
; 1883 : 		}
; 1884 : 		else last = t;

  0008e	89 37		 mov	 DWORD PTR [edi], esi
  00090	46		 inc	 esi
  00091	3b 75 d0	 cmp	 esi, DWORD PTR _max$1$[ebp]
  00094	7c cf		 jl	 SHORT $LL4@GetVisible
$LN28@GetVisible:
  00096	5e		 pop	 esi
  00097	5b		 pop	 ebx
$LN3@GetVisible:
  00098	5f		 pop	 edi

; 1885 : 	}
; 1886 : }

  00099	8b 4d fc	 mov	 ecx, DWORD PTR __$ArrayPad$[ebp]
  0009c	33 cd		 xor	 ecx, ebp
  0009e	e8 00 00 00 00	 call	 @__security_check_cookie@4
  000a3	8b e5		 mov	 esp, ebp
  000a5	5d		 pop	 ebp
  000a6	c2 0c 00	 ret	 12			; 0000000cH
$LN24@GetVisible:
  000a9	8b 4d fc	 mov	 ecx, DWORD PTR __$ArrayPad$[ebp]
  000ac	4e		 dec	 esi
  000ad	89 37		 mov	 DWORD PTR [edi], esi
  000af	33 cd		 xor	 ecx, ebp
  000b1	5e		 pop	 esi
  000b2	5b		 pop	 ebx
  000b3	5f		 pop	 edi
  000b4	e8 00 00 00 00	 call	 @__security_check_cookie@4
  000b9	8b e5		 mov	 esp, ebp
  000bb	5d		 pop	 ebp
  000bc	c2 0c 00	 ret	 12			; 0000000cH
$LN18@GetVisible:
  000bf	e8 00 00 00 00	 call	 ?AfxThrowInvalidArgException@@YGXXZ ; AfxThrowInvalidArgException
$LN30@GetVisible:
  000c4	cc		 int	 3
?GetVisibleRange@CGfxOutBarCtrl@@QAEXHAAH0@Z ENDP	; CGfxOutBarCtrl::GetVisibleRange
_TEXT	ENDS
; Function compile flags: /Ogtp
; File D:\git\src\IBK\IBK_DRFN\ProjSrc\SrcDrfn\Chart\MULTICHART\control\GfxOutBarCtrl.cpp
; File C:\Program Files (x86)\Microsoft Visual Studio\2019\Community\VC\Tools\MSVC\14.29.30133\atlmfc\include\afxwin2.inl
; File D:\git\src\IBK\IBK_DRFN\ProjSrc\SrcDrfn\Chart\MULTICHART\control\GfxOutBarCtrl.cpp
; File C:\Program Files (x86)\Microsoft Visual Studio\2019\Community\VC\Tools\MSVC\14.29.30133\atlmfc\include\afxwin2.inl
; File D:\git\src\IBK\IBK_DRFN\ProjSrc\SrcDrfn\Chart\MULTICHART\control\GfxOutBarCtrl.cpp
; File C:\Program Files (x86)\Microsoft Visual Studio\2019\Community\VC\Tools\MSVC\14.29.30133\atlmfc\include\atltypes.h
; File D:\git\src\IBK\IBK_DRFN\ProjSrc\SrcDrfn\Chart\MULTICHART\control\GfxOutBarCtrl.cpp
; File C:\Program Files (x86)\Microsoft Visual Studio\2019\Community\VC\Tools\MSVC\14.29.30133\atlmfc\include\afxwin1.inl
; File D:\git\src\IBK\IBK_DRFN\ProjSrc\SrcDrfn\Chart\MULTICHART\control\GfxOutBarCtrl.cpp
; File C:\Program Files (x86)\Microsoft Visual Studio\2019\Community\VC\Tools\MSVC\14.29.30133\atlmfc\include\afxwin1.inl
; File D:\git\src\IBK\IBK_DRFN\ProjSrc\SrcDrfn\Chart\MULTICHART\control\GfxOutBarCtrl.cpp
; File C:\Program Files (x86)\Microsoft Visual Studio\2019\Community\VC\Tools\MSVC\14.29.30133\atlmfc\include\afxcoll.inl
; File D:\git\src\IBK\IBK_DRFN\ProjSrc\SrcDrfn\Chart\MULTICHART\control\GfxOutBarCtrl.cpp
; File C:\Program Files (x86)\Microsoft Visual Studio\2019\Community\VC\Tools\MSVC\14.29.30133\atlmfc\include\atltypes.h
; File D:\git\src\IBK\IBK_DRFN\ProjSrc\SrcDrfn\Chart\MULTICHART\control\GfxOutBarCtrl.cpp
; File C:\Program Files (x86)\Microsoft Visual Studio\2019\Community\VC\Tools\MSVC\14.29.30133\atlmfc\include\atltypes.h
; File D:\git\src\IBK\IBK_DRFN\ProjSrc\SrcDrfn\Chart\MULTICHART\control\GfxOutBarCtrl.cpp
; File C:\Program Files (x86)\Microsoft Visual Studio\2019\Community\VC\Tools\MSVC\14.29.30133\atlmfc\include\afxcoll.inl
; File D:\git\src\IBK\IBK_DRFN\ProjSrc\SrcDrfn\Chart\MULTICHART\control\GfxOutBarCtrl.cpp
; File C:\Program Files (x86)\Microsoft Visual Studio\2019\Community\VC\Tools\MSVC\14.29.30133\atlmfc\include\atltypes.h
; File D:\git\src\IBK\IBK_DRFN\ProjSrc\SrcDrfn\Chart\MULTICHART\control\GfxOutBarCtrl.cpp
; File C:\Program Files (x86)\Microsoft Visual Studio\2019\Community\VC\Tools\MSVC\14.29.30133\atlmfc\include\atltypes.h
; File D:\git\src\IBK\IBK_DRFN\ProjSrc\SrcDrfn\Chart\MULTICHART\control\GfxOutBarCtrl.cpp
; File C:\Program Files (x86)\Microsoft Visual Studio\2019\Community\VC\Tools\MSVC\14.29.30133\atlmfc\include\afxwin1.inl
; File D:\git\src\IBK\IBK_DRFN\ProjSrc\SrcDrfn\Chart\MULTICHART\control\GfxOutBarCtrl.cpp
; File C:\Program Files (x86)\Microsoft Visual Studio\2019\Community\VC\Tools\MSVC\14.29.30133\atlmfc\include\afxcoll.inl
; File D:\git\src\IBK\IBK_DRFN\ProjSrc\SrcDrfn\Chart\MULTICHART\control\GfxOutBarCtrl.cpp
;	COMDAT ?HighlightItem@CGfxOutBarCtrl@@QAEXH_N@Z
_TEXT	SEGMENT
_dc$ = -80						; size = 20
_isdc$1$ = -60						; size = 4
_itemRegion$ = -56					; size = 8
_irc$ = -48						; size = 16
_rc$2 = -32						; size = 16
_rc$3 = -32						; size = 16
__$ArrayPad$ = -16					; size = 4
__$EHRec$ = -12						; size = 12
_index$ = 8						; size = 4
_bPressed$ = 12						; size = 1
?HighlightItem@CGfxOutBarCtrl@@QAEXH_N@Z PROC		; CGfxOutBarCtrl::HighlightItem, COMDAT
; _this$ = ecx

; 1945 : {

  00000	55		 push	 ebp
  00001	8b ec		 mov	 ebp, esp
  00003	6a ff		 push	 -1
  00005	68 00 00 00 00	 push	 __ehhandler$?HighlightItem@CGfxOutBarCtrl@@QAEXH_N@Z
  0000a	64 a1 00 00 00
	00		 mov	 eax, DWORD PTR fs:0
  00010	50		 push	 eax
  00011	83 ec 44	 sub	 esp, 68			; 00000044H
  00014	a1 00 00 00 00	 mov	 eax, DWORD PTR ___security_cookie
  00019	33 c5		 xor	 eax, ebp
  0001b	89 45 f0	 mov	 DWORD PTR __$ArrayPad$[ebp], eax
  0001e	53		 push	 ebx
  0001f	56		 push	 esi
  00020	57		 push	 edi
  00021	50		 push	 eax
  00022	8d 45 f4	 lea	 eax, DWORD PTR __$EHRec$[ebp]
  00025	64 a3 00 00 00
	00		 mov	 DWORD PTR fs:0, eax
  0002b	8b f1		 mov	 esi, ecx
; File C:\Program Files (x86)\Microsoft Visual Studio\2019\Community\VC\Tools\MSVC\14.29.30133\atlmfc\include\afxwin2.inl

; 165  : 	{ return CWnd::FromHandle(::GetFocus()); }

  0002d	ff 15 00 00 00
	00		 call	 DWORD PTR __imp__GetFocus@0
  00033	50		 push	 eax
  00034	e8 00 00 00 00	 call	 ?FromHandle@CWnd@@SGPAV1@PAUHWND__@@@Z ; CWnd::FromHandle
; File D:\git\src\IBK\IBK_DRFN\ProjSrc\SrcDrfn\Chart\MULTICHART\control\GfxOutBarCtrl.cpp

; 1947 : 	if (pf != NULL && pf != this && IsChild(pf)) return;

  00039	85 c0		 test	 eax, eax
  0003b	74 18		 je	 SHORT $LN2@HighlightI
  0003d	3b c6		 cmp	 eax, esi
  0003f	74 14		 je	 SHORT $LN2@HighlightI
; File C:\Program Files (x86)\Microsoft Visual Studio\2019\Community\VC\Tools\MSVC\14.29.30133\atlmfc\include\afxwin2.inl

; 211  : 	{ ASSERT(::IsWindow(m_hWnd)); return ::IsChild(m_hWnd, pWnd->GetSafeHwnd()); }

  00041	ff 70 20	 push	 DWORD PTR [eax+32]
  00044	ff 76 20	 push	 DWORD PTR [esi+32]
  00047	ff 15 00 00 00
	00		 call	 DWORD PTR __imp__IsChild@8
; File D:\git\src\IBK\IBK_DRFN\ProjSrc\SrcDrfn\Chart\MULTICHART\control\GfxOutBarCtrl.cpp

; 1947 : 	if (pf != NULL && pf != this && IsChild(pf)) return;

  0004d	85 c0		 test	 eax, eax
  0004f	0f 85 c0 01 00
	00		 jne	 $LN1@HighlightI
$LN2@HighlightI:

; 1948 : 
; 1949 : 	static bool bOldPressed = false;
; 1950 : 	if (iLastItemHighlighted == index && bOldPressed == bPressed) return;

  00055	8b 7d 08	 mov	 edi, DWORD PTR _index$[ebp]
  00058	8a 5d 0c	 mov	 bl, BYTE PTR _bPressed$[ebp]
  0005b	39 be 24 01 00
	00		 cmp	 DWORD PTR [esi+292], edi
  00061	75 0c		 jne	 SHORT $LN3@HighlightI
  00063	38 1d 00 00 00
	00		 cmp	 BYTE PTR ?bOldPressed@?1??HighlightItem@CGfxOutBarCtrl@@QAEXH_N@Z@4_NA, bl
  00069	0f 84 a6 01 00
	00		 je	 $LN1@HighlightI
$LN3@HighlightI:

; 1951 : 
; 1952 : 	bOldPressed = bPressed;
; 1953 : 
; 1954 : 	CClientDC dc(this);

  0006f	56		 push	 esi
  00070	8d 4d b0	 lea	 ecx, DWORD PTR _dc$[ebp]
  00073	88 1d 00 00 00
	00		 mov	 BYTE PTR ?bOldPressed@?1??HighlightItem@CGfxOutBarCtrl@@QAEXH_N@Z@4_NA, bl
  00079	e8 00 00 00 00	 call	 ??0CClientDC@@QAE@PAVCWnd@@@Z ; CClientDC::CClientDC

; 1957 : 	GetInsideRect(irc);

  0007e	8d 45 d0	 lea	 eax, DWORD PTR _irc$[ebp]
  00081	c7 45 fc 00 00
	00 00		 mov	 DWORD PTR __$EHRec$[ebp+8], 0
  00088	0f 57 c0	 xorps	 xmm0, xmm0
  0008b	8b ce		 mov	 ecx, esi
  0008d	50		 push	 eax
; File C:\Program Files (x86)\Microsoft Visual Studio\2019\Community\VC\Tools\MSVC\14.29.30133\atlmfc\include\atltypes.h

; 528  : 	left = 0;

  0008e	0f 11 45 d0	 movups	 XMMWORD PTR _irc$[ebp], xmm0
; File D:\git\src\IBK\IBK_DRFN\ProjSrc\SrcDrfn\Chart\MULTICHART\control\GfxOutBarCtrl.cpp

; 1957 : 	GetInsideRect(irc);

  00092	e8 00 00 00 00	 call	 ?GetInsideRect@CGfxOutBarCtrl@@QBEXAAVCRect@@@Z ; CGfxOutBarCtrl::GetInsideRect

; 1958 : 	int isdc = dc.SaveDC();

  00097	8d 4d b0	 lea	 ecx, DWORD PTR _dc$[ebp]
  0009a	e8 00 00 00 00	 call	 ?SaveDC@CDC@@UAEHXZ	; CDC::SaveDC
  0009f	89 45 c4	 mov	 DWORD PTR _isdc$1$[ebp], eax
; File C:\Program Files (x86)\Microsoft Visual Studio\2019\Community\VC\Tools\MSVC\14.29.30133\atlmfc\include\afxwin1.inl

; 70   : 	{ m_hObject = NULL; }

  000a2	c7 45 cc 00 00
	00 00		 mov	 DWORD PTR _itemRegion$[ebp+4], 0

; 264  : 	{ }

  000a9	c7 45 c8 00 00
	00 00		 mov	 DWORD PTR _itemRegion$[ebp], OFFSET ??_7CRgn@@6B@

; 270  : 	{ return Attach(::CreateRectRgnIndirect(lpRect)); }

  000b0	8d 45 d0	 lea	 eax, DWORD PTR _irc$[ebp]
; File D:\git\src\IBK\IBK_DRFN\ProjSrc\SrcDrfn\Chart\MULTICHART\control\GfxOutBarCtrl.cpp

; 1959 : 	CRgn itemRegion;

  000b3	c6 45 fc 01	 mov	 BYTE PTR __$EHRec$[ebp+8], 1
; File C:\Program Files (x86)\Microsoft Visual Studio\2019\Community\VC\Tools\MSVC\14.29.30133\atlmfc\include\afxwin1.inl

; 270  : 	{ return Attach(::CreateRectRgnIndirect(lpRect)); }

  000b7	50		 push	 eax
  000b8	ff 15 00 00 00
	00		 call	 DWORD PTR __imp__CreateRectRgnIndirect@4
  000be	50		 push	 eax
  000bf	8d 4d c8	 lea	 ecx, DWORD PTR _itemRegion$[ebp]
  000c2	e8 00 00 00 00	 call	 ?Attach@CGdiObject@@QAEHPAX@Z ; CGdiObject::Attach
; File D:\git\src\IBK\IBK_DRFN\ProjSrc\SrcDrfn\Chart\MULTICHART\control\GfxOutBarCtrl.cpp

; 1961 : 	dc.SelectClipRgn(&itemRegion);

  000c7	8d 45 c8	 lea	 eax, DWORD PTR _itemRegion$[ebp]
  000ca	50		 push	 eax
  000cb	8d 4d b0	 lea	 ecx, DWORD PTR _dc$[ebp]
  000ce	e8 00 00 00 00	 call	 ?SelectClipRgn@CDC@@QAEHPAVCRgn@@@Z ; CDC::SelectClipRgn

; 1962 : 	itemRegion.DeleteObject();

  000d3	8d 4d c8	 lea	 ecx, DWORD PTR _itemRegion$[ebp]
  000d6	e8 00 00 00 00	 call	 ?DeleteObject@CGdiObject@@QAEHXZ ; CGdiObject::DeleteObject

; 1963 : 
; 1964 : 	COLORREF clrOldText = dc.SetTextColor(RGB(255, 0, 0));

  000db	68 ff 00 00 00	 push	 255			; 000000ffH
  000e0	8d 4d b0	 lea	 ecx, DWORD PTR _dc$[ebp]
  000e3	e8 00 00 00 00	 call	 ?SetTextColor@CDC@@UAEKK@Z ; CDC::SetTextColor

; 1965 : 
; 1966 : 	if (iLastItemHighlighted >= 0 && IsValidItem(iLastItemHighlighted))

  000e8	8b 96 24 01 00
	00		 mov	 edx, DWORD PTR [esi+292]
  000ee	85 d2		 test	 edx, edx
  000f0	78 5e		 js	 SHORT $LN4@HighlightI

; 2140 : 	CBarFolder * pbf = (CBarFolder *) arFolder.GetAt(iSelFolder);

  000f2	8b 8e 34 01 00
	00		 mov	 ecx, DWORD PTR [esi+308]
; File C:\Program Files (x86)\Microsoft Visual Studio\2019\Community\VC\Tools\MSVC\14.29.30133\atlmfc\include\afxcoll.inl

; 203  : 		if( nIndex < 0 || nIndex >= m_nSize )

  000f8	85 c9		 test	 ecx, ecx
  000fa	0f 88 37 01 00
	00		 js	 $LN57@HighlightI
  00100	3b 8e 0c 01 00
	00		 cmp	 ecx, DWORD PTR [esi+268]
  00106	0f 8d 2b 01 00
	00		 jge	 $LN57@HighlightI
; File D:\git\src\IBK\IBK_DRFN\ProjSrc\SrcDrfn\Chart\MULTICHART\control\GfxOutBarCtrl.cpp

; 2141 : 	return (index >= 0 && index < pbf->GetItemCount());

  0010c	8b 86 08 01 00
	00		 mov	 eax, DWORD PTR [esi+264]
  00112	8b 04 88	 mov	 eax, DWORD PTR [eax+ecx*4]
  00115	3b 50 1c	 cmp	 edx, DWORD PTR [eax+28]
  00118	7d 36		 jge	 SHORT $LN4@HighlightI

; 1969 : 		GetIconRect(iSelFolder, iLastItemHighlighted, rc);

  0011a	8d 45 e0	 lea	 eax, DWORD PTR _rc$3[ebp]
  0011d	0f 57 c0	 xorps	 xmm0, xmm0
  00120	50		 push	 eax
  00121	52		 push	 edx
  00122	51		 push	 ecx
  00123	8b ce		 mov	 ecx, esi
; File C:\Program Files (x86)\Microsoft Visual Studio\2019\Community\VC\Tools\MSVC\14.29.30133\atlmfc\include\atltypes.h

; 528  : 	left = 0;

  00125	0f 11 45 e0	 movups	 XMMWORD PTR _rc$3[ebp], xmm0
; File D:\git\src\IBK\IBK_DRFN\ProjSrc\SrcDrfn\Chart\MULTICHART\control\GfxOutBarCtrl.cpp

; 1969 : 		GetIconRect(iSelFolder, iLastItemHighlighted, rc);

  00129	e8 00 00 00 00	 call	 ?GetIconRect@CGfxOutBarCtrl@@QAEXHHAAVCRect@@@Z ; CGfxOutBarCtrl::GetIconRect
; File C:\Program Files (x86)\Microsoft Visual Studio\2019\Community\VC\Tools\MSVC\14.29.30133\atlmfc\include\atltypes.h

; 686  : 	::InflateRect(this, x, y);

  0012e	6a 01		 push	 1
  00130	6a 01		 push	 1
  00132	8d 45 e0	 lea	 eax, DWORD PTR _rc$3[ebp]
  00135	50		 push	 eax
  00136	ff 15 00 00 00
	00		 call	 DWORD PTR __imp__InflateRect@12
; File D:\git\src\IBK\IBK_DRFN\ProjSrc\SrcDrfn\Chart\MULTICHART\control\GfxOutBarCtrl.cpp

; 1971 : 		dc.Draw3dRect(rc, crBackGroundColor, crBackGroundColor);

  0013c	8b 86 80 00 00
	00		 mov	 eax, DWORD PTR [esi+128]
  00142	8d 4d b0	 lea	 ecx, DWORD PTR _dc$[ebp]
  00145	50		 push	 eax
  00146	50		 push	 eax
  00147	8d 45 e0	 lea	 eax, DWORD PTR _rc$3[ebp]
  0014a	50		 push	 eax
  0014b	e8 00 00 00 00	 call	 ?Draw3dRect@CDC@@QAEXPBUtagRECT@@KK@Z ; CDC::Draw3dRect
$LN4@HighlightI:

; 1972 : 	}
; 1973 : 	if (iSelAnimTiming > 0 && index == iLastSel)

  00150	83 be f8 00 00
	00 00		 cmp	 DWORD PTR [esi+248], 0
  00157	7e 08		 jle	 SHORT $LN104@HighlightI
  00159	3b be f4 00 00
	00		 cmp	 edi, DWORD PTR [esi+244]
  0015f	74 14		 je	 SHORT $LN13@HighlightI
$LN104@HighlightI:

; 1974 : 	{
; 1975 : 		iLastItemHighlighted = -1;
; 1976 : 		return;
; 1977 : 	}
; 1978 : 	if (dwFlags&fSelHighlight && iLastSel == index)

  00161	f7 86 00 01 00
	00 00 02 00 00	 test	 DWORD PTR [esi+256], 512 ; 00000200H
  0016b	74 14		 je	 SHORT $LN6@HighlightI
  0016d	39 be f4 00 00
	00		 cmp	 DWORD PTR [esi+244], edi
  00173	75 0c		 jne	 SHORT $LN6@HighlightI
$LN13@HighlightI:
  00175	c7 86 24 01 00
	00 ff ff ff ff	 mov	 DWORD PTR [esi+292], -1
  0017f	eb 7d		 jmp	 SHORT $LN14@HighlightI
$LN6@HighlightI:

; 1979 : 	{
; 1980 : 		iLastItemHighlighted = -1;
; 1981 : 		return;
; 1982 : 	}
; 1983 : 
; 1984 : 	iLastItemHighlighted = index;

  00181	89 be 24 01 00
	00		 mov	 DWORD PTR [esi+292], edi

; 1985 : 	if (iLastItemHighlighted >= 0 && IsValidItem(iLastItemHighlighted))

  00187	85 ff		 test	 edi, edi
  00189	78 68		 js	 SHORT $LN9@HighlightI

; 2140 : 	CBarFolder * pbf = (CBarFolder *) arFolder.GetAt(iSelFolder);

  0018b	8b 8e 34 01 00
	00		 mov	 ecx, DWORD PTR [esi+308]
; File C:\Program Files (x86)\Microsoft Visual Studio\2019\Community\VC\Tools\MSVC\14.29.30133\atlmfc\include\afxcoll.inl

; 203  : 		if( nIndex < 0 || nIndex >= m_nSize )

  00191	85 c9		 test	 ecx, ecx
  00193	0f 88 9e 00 00
	00		 js	 $LN57@HighlightI
  00199	3b 8e 0c 01 00
	00		 cmp	 ecx, DWORD PTR [esi+268]
  0019f	0f 8d 92 00 00
	00		 jge	 $LN57@HighlightI
; File D:\git\src\IBK\IBK_DRFN\ProjSrc\SrcDrfn\Chart\MULTICHART\control\GfxOutBarCtrl.cpp

; 2141 : 	return (index >= 0 && index < pbf->GetItemCount());

  001a5	8b 86 08 01 00
	00		 mov	 eax, DWORD PTR [esi+264]
  001ab	8b 04 88	 mov	 eax, DWORD PTR [eax+ecx*4]
  001ae	3b 78 1c	 cmp	 edi, DWORD PTR [eax+28]
  001b1	7d 40		 jge	 SHORT $LN9@HighlightI

; 1988 : 		GetIconRect(iSelFolder, iLastItemHighlighted, rc);

  001b3	8d 45 e0	 lea	 eax, DWORD PTR _rc$2[ebp]
  001b6	0f 57 c0	 xorps	 xmm0, xmm0
  001b9	50		 push	 eax
  001ba	57		 push	 edi
  001bb	51		 push	 ecx
  001bc	8b ce		 mov	 ecx, esi
; File C:\Program Files (x86)\Microsoft Visual Studio\2019\Community\VC\Tools\MSVC\14.29.30133\atlmfc\include\atltypes.h

; 528  : 	left = 0;

  001be	0f 11 45 e0	 movups	 XMMWORD PTR _rc$2[ebp], xmm0
; File D:\git\src\IBK\IBK_DRFN\ProjSrc\SrcDrfn\Chart\MULTICHART\control\GfxOutBarCtrl.cpp

; 1988 : 		GetIconRect(iSelFolder, iLastItemHighlighted, rc);

  001c2	e8 00 00 00 00	 call	 ?GetIconRect@CGfxOutBarCtrl@@QAEXHHAAVCRect@@@Z ; CGfxOutBarCtrl::GetIconRect
; File C:\Program Files (x86)\Microsoft Visual Studio\2019\Community\VC\Tools\MSVC\14.29.30133\atlmfc\include\atltypes.h

; 686  : 	::InflateRect(this, x, y);

  001c7	6a 01		 push	 1
  001c9	6a 01		 push	 1
  001cb	8d 45 e0	 lea	 eax, DWORD PTR _rc$2[ebp]
  001ce	50		 push	 eax
  001cf	ff 15 00 00 00
	00		 call	 DWORD PTR __imp__InflateRect@12
  001d5	8b 86 9c 00 00
	00		 mov	 eax, DWORD PTR [esi+156]
  001db	8b 8e 90 00 00
	00		 mov	 ecx, DWORD PTR [esi+144]
; File D:\git\src\IBK\IBK_DRFN\ProjSrc\SrcDrfn\Chart\MULTICHART\control\GfxOutBarCtrl.cpp

; 1990 : 		if (bPressed)

  001e1	84 db		 test	 bl, bl
  001e3	74 4e		 je	 SHORT $LN8@HighlightI

; 1991 : 			dc.Draw3dRect(rc, crDkShadowBorder, cr3dFace);

  001e5	51		 push	 ecx
  001e6	50		 push	 eax
$LN107@HighlightI:

; 1994 : 	}
; 1995 : 	dc.RestoreDC(isdc);

  001e7	8d 45 e0	 lea	 eax, DWORD PTR _rc$2[ebp]
  001ea	50		 push	 eax
  001eb	8d 4d b0	 lea	 ecx, DWORD PTR _dc$[ebp]
  001ee	e8 00 00 00 00	 call	 ?Draw3dRect@CDC@@QAEXPBUtagRECT@@KK@Z ; CDC::Draw3dRect
$LN9@HighlightI:
  001f3	ff 75 c4	 push	 DWORD PTR _isdc$1$[ebp]
  001f6	8d 4d b0	 lea	 ecx, DWORD PTR _dc$[ebp]
  001f9	e8 00 00 00 00	 call	 ?RestoreDC@CDC@@UAEHH@Z	; CDC::RestoreDC
$LN14@HighlightI:
; File C:\Program Files (x86)\Microsoft Visual Studio\2019\Community\VC\Tools\MSVC\14.29.30133\atlmfc\include\afxwin1.inl

; 266  : 	{ }

  001fe	8d 4d c8	 lea	 ecx, DWORD PTR _itemRegion$[ebp]
  00201	c7 45 c8 00 00
	00 00		 mov	 DWORD PTR _itemRegion$[ebp], OFFSET ??_7CRgn@@6B@
  00208	e8 00 00 00 00	 call	 ??1CGdiObject@@UAE@XZ	; CGdiObject::~CGdiObject
; File D:\git\src\IBK\IBK_DRFN\ProjSrc\SrcDrfn\Chart\MULTICHART\control\GfxOutBarCtrl.cpp

; 1996 : }

  0020d	8d 4d b0	 lea	 ecx, DWORD PTR _dc$[ebp]
  00210	e8 00 00 00 00	 call	 ??1CClientDC@@UAE@XZ	; CClientDC::~CClientDC
$LN1@HighlightI:
  00215	8b 4d f4	 mov	 ecx, DWORD PTR __$EHRec$[ebp]
  00218	64 89 0d 00 00
	00 00		 mov	 DWORD PTR fs:0, ecx
  0021f	59		 pop	 ecx
  00220	5f		 pop	 edi
  00221	5e		 pop	 esi
  00222	5b		 pop	 ebx
  00223	8b 4d f0	 mov	 ecx, DWORD PTR __$ArrayPad$[ebp]
  00226	33 cd		 xor	 ecx, ebp
  00228	e8 00 00 00 00	 call	 @__security_check_cookie@4
  0022d	8b e5		 mov	 esp, ebp
  0022f	5d		 pop	 ebp
  00230	c2 08 00	 ret	 8
$LN8@HighlightI:

; 1992 : 		else
; 1993 : 			dc.Draw3dRect(rc, cr3dFace, crDkShadowBorder);

  00233	50		 push	 eax
  00234	51		 push	 ecx
  00235	eb b0		 jmp	 SHORT $LN107@HighlightI
$LN57@HighlightI:
; File C:\Program Files (x86)\Microsoft Visual Studio\2019\Community\VC\Tools\MSVC\14.29.30133\atlmfc\include\afxcoll.inl

; 204  : 			AfxThrowInvalidArgException();

  00237	e8 00 00 00 00	 call	 ?AfxThrowInvalidArgException@@YGXXZ ; AfxThrowInvalidArgException
$LN106@HighlightI:
  0023c	cc		 int	 3
_TEXT	ENDS
;	COMDAT text$x
text$x	SEGMENT
__unwindfunclet$?HighlightItem@CGfxOutBarCtrl@@QAEXH_N@Z$0:
  00000	8d 4d b0	 lea	 ecx, DWORD PTR _dc$[ebp]
  00003	e9 00 00 00 00	 jmp	 ??1CClientDC@@UAE@XZ	; CClientDC::~CClientDC
__unwindfunclet$?HighlightItem@CGfxOutBarCtrl@@QAEXH_N@Z$1:
  00008	8d 4d c8	 lea	 ecx, DWORD PTR _itemRegion$[ebp]
  0000b	e9 00 00 00 00	 jmp	 ??1CRgn@@UAE@XZ		; CRgn::~CRgn
  00010	cc		 int	 3
  00011	cc		 int	 3
  00012	cc		 int	 3
  00013	cc		 int	 3
  00014	cc		 int	 3
__ehhandler$?HighlightItem@CGfxOutBarCtrl@@QAEXH_N@Z:
  00015	90		 npad	 1
  00016	90		 npad	 1
  00017	8b 54 24 08	 mov	 edx, DWORD PTR [esp+8]
  0001b	8d 42 0c	 lea	 eax, DWORD PTR [edx+12]
  0001e	8b 4a ac	 mov	 ecx, DWORD PTR [edx-84]
  00021	33 c8		 xor	 ecx, eax
  00023	e8 00 00 00 00	 call	 @__security_check_cookie@4
  00028	8b 4a fc	 mov	 ecx, DWORD PTR [edx-4]
  0002b	33 c8		 xor	 ecx, eax
  0002d	e8 00 00 00 00	 call	 @__security_check_cookie@4
  00032	b8 00 00 00 00	 mov	 eax, OFFSET __ehfuncinfo$?HighlightItem@CGfxOutBarCtrl@@QAEXH_N@Z
  00037	e9 00 00 00 00	 jmp	 ___CxxFrameHandler3
text$x	ENDS
?HighlightItem@CGfxOutBarCtrl@@QAEXH_N@Z ENDP		; CGfxOutBarCtrl::HighlightItem
; Function compile flags: /Ogtp
; File D:\git\src\IBK\IBK_DRFN\ProjSrc\SrcDrfn\Chart\MULTICHART\control\GfxOutBarCtrl.cpp
; File C:\Program Files (x86)\Microsoft Visual Studio\2019\Community\VC\Tools\MSVC\14.29.30133\atlmfc\include\atltypes.h
; File D:\git\src\IBK\IBK_DRFN\ProjSrc\SrcDrfn\Chart\MULTICHART\control\GfxOutBarCtrl.cpp
; File C:\Program Files (x86)\Microsoft Visual Studio\2019\Community\VC\Tools\MSVC\14.29.30133\atlmfc\include\afxcoll.inl
; File D:\git\src\IBK\IBK_DRFN\ProjSrc\SrcDrfn\Chart\MULTICHART\control\GfxOutBarCtrl.cpp
; File C:\Program Files (x86)\Microsoft Visual Studio\2019\Community\VC\Tools\MSVC\14.29.30133\atlmfc\include\afxcoll.inl
; File D:\git\src\IBK\IBK_DRFN\ProjSrc\SrcDrfn\Chart\MULTICHART\control\GfxOutBarCtrl.cpp
; File C:\Program Files (x86)\Microsoft Visual Studio\2019\Community\VC\Tools\MSVC\14.29.30133\atlmfc\include\afxcoll.inl
; File D:\git\src\IBK\IBK_DRFN\ProjSrc\SrcDrfn\Chart\MULTICHART\control\GfxOutBarCtrl.cpp
; File C:\Program Files (x86)\Microsoft Visual Studio\2019\Community\VC\Tools\MSVC\14.29.30133\atlmfc\include\atltypes.h
; File D:\git\src\IBK\IBK_DRFN\ProjSrc\SrcDrfn\Chart\MULTICHART\control\GfxOutBarCtrl.cpp
; File C:\Program Files (x86)\Microsoft Visual Studio\2019\Community\VC\Tools\MSVC\14.29.30133\atlmfc\include\afxwin1.inl
; File C:\Program Files (x86)\Microsoft Visual Studio\2019\Community\VC\Tools\MSVC\14.29.30133\atlmfc\include\atltypes.h
; File D:\git\src\IBK\IBK_DRFN\ProjSrc\SrcDrfn\Chart\MULTICHART\control\GfxOutBarCtrl.cpp
; File C:\Program Files (x86)\Microsoft Visual Studio\2019\Community\VC\Tools\MSVC\14.29.30133\atlmfc\include\atltypes.h
; File D:\git\src\IBK\IBK_DRFN\ProjSrc\SrcDrfn\Chart\MULTICHART\control\GfxOutBarCtrl.cpp
; File C:\Program Files (x86)\Microsoft Visual Studio\2019\Community\VC\Tools\MSVC\14.29.30133\atlmfc\include\atltypes.h
; File D:\git\src\IBK\IBK_DRFN\ProjSrc\SrcDrfn\Chart\MULTICHART\control\GfxOutBarCtrl.cpp
; File C:\Program Files (x86)\Microsoft Visual Studio\2019\Community\VC\Tools\MSVC\14.29.30133\atlmfc\include\atltypes.h
; File D:\git\src\IBK\IBK_DRFN\ProjSrc\SrcDrfn\Chart\MULTICHART\control\GfxOutBarCtrl.cpp
; File C:\Program Files (x86)\Microsoft Visual Studio\2019\Community\VC\Tools\MSVC\14.29.30133\atlmfc\include\atltypes.h
; File D:\git\src\IBK\IBK_DRFN\ProjSrc\SrcDrfn\Chart\MULTICHART\control\GfxOutBarCtrl.cpp
; File C:\Program Files (x86)\Microsoft Visual Studio\2019\Community\VC\Tools\MSVC\14.29.30133\atlmfc\include\afxcoll.inl
; File D:\git\src\IBK\IBK_DRFN\ProjSrc\SrcDrfn\Chart\MULTICHART\control\GfxOutBarCtrl.cpp
;	COMDAT ?GetIconRect@CGfxOutBarCtrl@@QAEXHHAAVCRect@@@Z
_TEXT	SEGMENT
$T2 = -96						; size = 8
_rect$GSCopy$1$ = -88					; size = 4
_spacing$1$ = -84					; size = 4
_szImage$1$ = -80					; size = 4
_iFolder$GSCopy$1$ = -80				; size = 4
_iIndex$GSCopy$1$ = -76					; size = 4
_szImage$2$ = -76					; size = 4
_top$1$ = -72						; size = 4
_ii$3 = -68						; size = 32
$T4 = -36						; size = 16
tv834 = -28						; size = 8
_rc$ = -20						; size = 16
__$ArrayPad$ = -4					; size = 4
_iFolder$ = 8						; size = 4
_iIndex$ = 12						; size = 4
_rect$ = 16						; size = 4
?GetIconRect@CGfxOutBarCtrl@@QAEXHHAAVCRect@@@Z PROC	; CGfxOutBarCtrl::GetIconRect, COMDAT
; _this$ = ecx

; 1999 : {

  00000	55		 push	 ebp
  00001	8b ec		 mov	 ebp, esp
  00003	83 ec 60	 sub	 esp, 96			; 00000060H
  00006	a1 00 00 00 00	 mov	 eax, DWORD PTR ___security_cookie
  0000b	33 c5		 xor	 eax, ebp
  0000d	89 45 fc	 mov	 DWORD PTR __$ArrayPad$[ebp], eax
  00010	8b 45 08	 mov	 eax, DWORD PTR _iFolder$[ebp]
  00013	0f 57 c0	 xorps	 xmm0, xmm0
  00016	89 45 b0	 mov	 DWORD PTR _iFolder$GSCopy$1$[ebp], eax
  00019	8b 45 0c	 mov	 eax, DWORD PTR _iIndex$[ebp]
  0001c	53		 push	 ebx
  0001d	89 45 b4	 mov	 DWORD PTR _iIndex$GSCopy$1$[ebp], eax
  00020	8b 45 10	 mov	 eax, DWORD PTR _rect$[ebp]
  00023	56		 push	 esi
  00024	57		 push	 edi
  00025	89 45 a8	 mov	 DWORD PTR _rect$GSCopy$1$[ebp], eax
  00028	8b f9		 mov	 edi, ecx

; 2001 : 	GetInsideRect(rc);

  0002a	8d 45 ec	 lea	 eax, DWORD PTR _rc$[ebp]
  0002d	50		 push	 eax
; File C:\Program Files (x86)\Microsoft Visual Studio\2019\Community\VC\Tools\MSVC\14.29.30133\atlmfc\include\atltypes.h

; 528  : 	left = 0;

  0002e	0f 11 45 ec	 movups	 XMMWORD PTR _rc$[ebp], xmm0
; File D:\git\src\IBK\IBK_DRFN\ProjSrc\SrcDrfn\Chart\MULTICHART\control\GfxOutBarCtrl.cpp

; 2001 : 	GetInsideRect(rc);

  00032	e8 00 00 00 00	 call	 ?GetInsideRect@CGfxOutBarCtrl@@QBEXAAVCRect@@@Z ; CGfxOutBarCtrl::GetInsideRect

; 2002 : 	int top = rc.top;

  00037	8b 4d f0	 mov	 ecx, DWORD PTR _rc$[ebp+4]

; 2003 : 	CSize sz(0,0);
; 2004 : 	int y = 0;

  0003a	33 db		 xor	 ebx, ebx

; 186  : 	return dwFlags&fSmallIcon;

  0003c	f6 87 00 01 00
	00 01		 test	 BYTE PTR [edi+256], 1

; 2002 : 	int top = rc.top;

  00043	89 4d b8	 mov	 DWORD PTR _top$1$[ebp], ecx

; 2005 : 	int spacing = IsSmallIconView() ? ySmallIconSpacing : yLargeIconSpacing;

  00046	74 08		 je	 SHORT $LN9@GetIconRec
  00048	8b 87 b0 00 00
	00		 mov	 eax, DWORD PTR [edi+176]
  0004e	eb 06		 jmp	 SHORT $LN116@GetIconRec
$LN9@GetIconRec:
  00050	8b 87 b4 00 00
	00		 mov	 eax, DWORD PTR [edi+180]
$LN116@GetIconRec:

; 2006 : 
; 2007 : 	for (int t = 0; t < iIndex; t++)

  00056	8b 55 b4	 mov	 edx, DWORD PTR _iIndex$GSCopy$1$[ebp]
  00059	33 f6		 xor	 esi, esi
  0005b	89 45 ac	 mov	 DWORD PTR _spacing$1$[ebp], eax
  0005e	85 d2		 test	 edx, edx
  00060	7e 3c		 jle	 SHORT $LN3@GetIconRec
$LL4@GetIconRec:

; 2008 : 	{
; 2009 : 		sz = GetItemSize(iFolder, t, ircAll);

  00062	6a 03		 push	 3
  00064	56		 push	 esi
  00065	ff 75 b0	 push	 DWORD PTR _iFolder$GSCopy$1$[ebp]
  00068	8d 45 a0	 lea	 eax, DWORD PTR $T2[ebp]
  0006b	8b cf		 mov	 ecx, edi
  0006d	50		 push	 eax
  0006e	e8 00 00 00 00	 call	 ?GetItemSize@CGfxOutBarCtrl@@QAE?AVCSize@@HHH@Z ; CGfxOutBarCtrl::GetItemSize
  00073	8b 08		 mov	 ecx, DWORD PTR [eax]
  00075	8b 40 04	 mov	 eax, DWORD PTR [eax+4]

; 2010 : 		top += sz.cy;
; 2011 : 		top += spacing;

  00078	03 45 ac	 add	 eax, DWORD PTR _spacing$1$[ebp]
  0007b	89 4d e4	 mov	 DWORD PTR tv834[ebp], ecx
  0007e	8b 4d b8	 mov	 ecx, DWORD PTR _top$1$[ebp]
  00081	03 c8		 add	 ecx, eax

; 2012 : 		if (t == iFirstItem - 1) y = top - rc.top;

  00083	8b 87 20 01 00
	00		 mov	 eax, DWORD PTR [edi+288]
  00089	48		 dec	 eax
  0008a	89 4d b8	 mov	 DWORD PTR _top$1$[ebp], ecx
  0008d	3b f0		 cmp	 esi, eax
  0008f	75 05		 jne	 SHORT $LN2@GetIconRec
  00091	8b d9		 mov	 ebx, ecx
  00093	2b 5d f0	 sub	 ebx, DWORD PTR _rc$[ebp+4]
$LN2@GetIconRec:

; 2006 : 
; 2007 : 	for (int t = 0; t < iIndex; t++)

  00096	8b 55 b4	 mov	 edx, DWORD PTR _iIndex$GSCopy$1$[ebp]
  00099	46		 inc	 esi
  0009a	3b f2		 cmp	 esi, edx
  0009c	7c c4		 jl	 SHORT $LL4@GetIconRec
$LN3@GetIconRec:

; 2014 : 	top += spacing;

  0009e	03 4d ac	 add	 ecx, DWORD PTR _spacing$1$[ebp]
; File C:\Program Files (x86)\Microsoft Visual Studio\2019\Community\VC\Tools\MSVC\14.29.30133\atlmfc\include\afxcoll.inl

; 203  : 		if( nIndex < 0 || nIndex >= m_nSize )

  000a1	8b 75 b0	 mov	 esi, DWORD PTR _iFolder$GSCopy$1$[ebp]
; File D:\git\src\IBK\IBK_DRFN\ProjSrc\SrcDrfn\Chart\MULTICHART\control\GfxOutBarCtrl.cpp

; 2014 : 	top += spacing;

  000a4	89 4d b8	 mov	 DWORD PTR _top$1$[ebp], ecx
; File C:\Program Files (x86)\Microsoft Visual Studio\2019\Community\VC\Tools\MSVC\14.29.30133\atlmfc\include\afxcoll.inl

; 203  : 		if( nIndex < 0 || nIndex >= m_nSize )

  000a7	85 f6		 test	 esi, esi
  000a9	0f 88 57 01 00
	00		 js	 $LN41@GetIconRec
  000af	3b b7 0c 01 00
	00		 cmp	 esi, DWORD PTR [edi+268]
  000b5	0f 8d 4b 01 00
	00		 jge	 $LN41@GetIconRec
; File D:\git\src\IBK\IBK_DRFN\ProjSrc\SrcDrfn\Chart\MULTICHART\control\GfxOutBarCtrl.cpp

; 1697 : 	CBarItem * pi = (CBarItem *) pbf->arItems.GetAt(index);

  000bb	8b 87 08 01 00
	00		 mov	 eax, DWORD PTR [edi+264]
  000c1	8b 34 b0	 mov	 esi, DWORD PTR [eax+esi*4]
; File C:\Program Files (x86)\Microsoft Visual Studio\2019\Community\VC\Tools\MSVC\14.29.30133\atlmfc\include\afxcoll.inl

; 203  : 		if( nIndex < 0 || nIndex >= m_nSize )

  000c4	85 d2		 test	 edx, edx
  000c6	0f 88 3a 01 00
	00		 js	 $LN41@GetIconRec
  000cc	3b 56 1c	 cmp	 edx, DWORD PTR [esi+28]
  000cf	0f 8d 31 01 00
	00		 jge	 $LN41@GetIconRec
; File D:\git\src\IBK\IBK_DRFN\ProjSrc\SrcDrfn\Chart\MULTICHART\control\GfxOutBarCtrl.cpp

; 1703 : 	if (pi->iImageIndex >= 0)

  000d5	8b 46 18	 mov	 eax, DWORD PTR [esi+24]
; File C:\Program Files (x86)\Microsoft Visual Studio\2019\Community\VC\Tools\MSVC\14.29.30133\atlmfc\include\atltypes.h

; 312  : 	cx = initCX;

  000d8	c7 45 b4 00 00
	00 00		 mov	 DWORD PTR _szImage$2$[ebp], 0

; 313  : 	cy = initCY;

  000df	c7 45 b0 00 00
	00 00		 mov	 DWORD PTR _szImage$1$[ebp], 0
; File D:\git\src\IBK\IBK_DRFN\ProjSrc\SrcDrfn\Chart\MULTICHART\control\GfxOutBarCtrl.cpp

; 1703 : 	if (pi->iImageIndex >= 0)

  000e6	8b 04 90	 mov	 eax, DWORD PTR [eax+edx*4]
  000e9	8b 50 04	 mov	 edx, DWORD PTR [eax+4]
  000ec	85 d2		 test	 edx, edx
  000ee	78 5c		 js	 SHORT $LN114@GetIconRec

; 186  : 	return dwFlags&fSmallIcon;

  000f0	f6 87 00 01 00
	00 01		 test	 BYTE PTR [edi+256], 1

; 1761 : 	if (bSmall)

  000f7	74 0f		 je	 SHORT $LN59@GetIconRec

; 1762 : 	{
; 1763 : 		if (pbf->pSmallImageList) return pbf->pSmallImageList; else return pSmallImageList;

  000f9	8b 46 10	 mov	 eax, DWORD PTR [esi+16]
  000fc	85 c0		 test	 eax, eax
  000fe	75 19		 jne	 SHORT $LN112@GetIconRec
  00100	8b 87 3c 01 00
	00		 mov	 eax, DWORD PTR [edi+316]
  00106	eb 0d		 jmp	 SHORT $LN61@GetIconRec
$LN59@GetIconRec:

; 1764 : 	}
; 1765 : 	if (pbf->pLargeImageList) return pbf->pLargeImageList; else return pLargeImageList;

  00108	8b 46 0c	 mov	 eax, DWORD PTR [esi+12]
  0010b	85 c0		 test	 eax, eax
  0010d	75 0a		 jne	 SHORT $LN112@GetIconRec
  0010f	8b 87 38 01 00
	00		 mov	 eax, DWORD PTR [edi+312]
$LN61@GetIconRec:

; 1709 : 			if (il)

  00115	85 c0		 test	 eax, eax
  00117	74 33		 je	 SHORT $LN114@GetIconRec
$LN112@GetIconRec:
; File C:\Program Files (x86)\Microsoft Visual Studio\2019\Community\VC\Tools\MSVC\14.29.30133\atlmfc\include\afxwin1.inl

; 881  : 	{ ASSERT(m_hImageList != NULL); return ImageList_GetImageInfo(m_hImageList, nImage, pImageInfo); }

  00119	8d 4d bc	 lea	 ecx, DWORD PTR _ii$3[ebp]
  0011c	51		 push	 ecx
  0011d	52		 push	 edx
  0011e	ff 70 04	 push	 DWORD PTR [eax+4]
  00121	ff 15 00 00 00
	00		 call	 DWORD PTR __imp__ImageList_GetImageInfo@12
; File C:\Program Files (x86)\Microsoft Visual Studio\2019\Community\VC\Tools\MSVC\14.29.30133\atlmfc\include\atltypes.h

; 548  : 	::CopyRect(this, &srcRect);

  00127	8d 45 cc	 lea	 eax, DWORD PTR _ii$3[ebp+16]
  0012a	50		 push	 eax
  0012b	8d 45 dc	 lea	 eax, DWORD PTR $T4[ebp]
  0012e	50		 push	 eax
  0012f	ff 15 00 00 00
	00		 call	 DWORD PTR __imp__CopyRect@8

; 586  : 	return CSize(right - left, bottom - top);

  00135	8b 55 e4	 mov	 edx, DWORD PTR $T4[ebp+8]
  00138	2b 55 dc	 sub	 edx, DWORD PTR $T4[ebp]
  0013b	8b 45 e8	 mov	 eax, DWORD PTR $T4[ebp+12]
  0013e	2b 45 e0	 sub	 eax, DWORD PTR $T4[ebp+4]
  00141	8b 4d b8	 mov	 ecx, DWORD PTR _top$1$[ebp]
  00144	89 55 b4	 mov	 DWORD PTR _szImage$2$[ebp], edx
  00147	89 45 b0	 mov	 DWORD PTR _szImage$1$[ebp], eax
; File D:\git\src\IBK\IBK_DRFN\ProjSrc\SrcDrfn\Chart\MULTICHART\control\GfxOutBarCtrl.cpp

; 1703 : 	if (pi->iImageIndex >= 0)

  0014a	eb 04		 jmp	 SHORT $LN20@GetIconRec
$LN114@GetIconRec:

; 186  : 	return dwFlags&fSmallIcon;

  0014c	33 c0		 xor	 eax, eax
  0014e	33 d2		 xor	 edx, edx
$LN20@GetIconRec:
  00150	f6 87 00 01 00
	00 01		 test	 BYTE PTR [edi+256], 1

; 1739 : 	if (IsSmallIconView())

  00157	74 59		 je	 SHORT $LN6@GetIconRec
; File C:\Program Files (x86)\Microsoft Visual Studio\2019\Community\VC\Tools\MSVC\14.29.30133\atlmfc\include\atltypes.h

; 657  : 	::SetRect(this, x1, y1, x2, y2);

  00159	8b 75 a8	 mov	 esi, DWORD PTR _rect$GSCopy$1$[ebp]
; File D:\git\src\IBK\IBK_DRFN\ProjSrc\SrcDrfn\Chart\MULTICHART\control\GfxOutBarCtrl.cpp

; 2019 : 		rect.SetRect(rc.left, top, rc.left + sz.cx, top + sz.cy);

  0015c	03 c1		 add	 eax, ecx
; File C:\Program Files (x86)\Microsoft Visual Studio\2019\Community\VC\Tools\MSVC\14.29.30133\atlmfc\include\atltypes.h

; 657  : 	::SetRect(this, x1, y1, x2, y2);

  0015e	8b 4d ec	 mov	 ecx, DWORD PTR _rc$[ebp]
  00161	50		 push	 eax
  00162	8d 04 0a	 lea	 eax, DWORD PTR [edx+ecx]
  00165	50		 push	 eax
  00166	ff 75 b8	 push	 DWORD PTR _top$1$[ebp]
  00169	51		 push	 ecx
  0016a	56		 push	 esi
  0016b	ff 15 00 00 00
	00		 call	 DWORD PTR __imp__SetRect@20
; File D:\git\src\IBK\IBK_DRFN\ProjSrc\SrcDrfn\Chart\MULTICHART\control\GfxOutBarCtrl.cpp

; 2020 : 		rect.left += xLeftMargin + 2;

  00171	8b 87 b8 00 00
	00		 mov	 eax, DWORD PTR [edi+184]
  00177	83 c0 02	 add	 eax, 2
  0017a	01 06		 add	 DWORD PTR [esi], eax

; 2021 : 		rect.right += xLeftMargin + 2;

  0017c	8b 87 b8 00 00
	00		 mov	 eax, DWORD PTR [edi+184]
  00182	83 c0 02	 add	 eax, 2
  00185	01 46 08	 add	 DWORD PTR [esi+8], eax

; 2022 : 		rect.top -= yTopMargin;

  00188	8b 87 bc 00 00
	00		 mov	 eax, DWORD PTR [edi+188]
  0018e	29 46 04	 sub	 DWORD PTR [esi+4], eax

; 2023 : 		rect.bottom -= yTopMargin;

  00191	8b 87 bc 00 00
	00		 mov	 eax, DWORD PTR [edi+188]

; 2024 : 
; 2025 : 		rect.top -= y;

  00197	29 5e 04	 sub	 DWORD PTR [esi+4], ebx

; 2026 : 		rect.bottom -= y;

  0019a	03 c3		 add	 eax, ebx
  0019c	29 46 0c	 sub	 DWORD PTR [esi+12], eax
  0019f	5f		 pop	 edi

; 2034 : }

  001a0	5e		 pop	 esi
  001a1	5b		 pop	 ebx
  001a2	8b 4d fc	 mov	 ecx, DWORD PTR __$ArrayPad$[ebp]
  001a5	33 cd		 xor	 ecx, ebp
  001a7	e8 00 00 00 00	 call	 @__security_check_cookie@4
  001ac	8b e5		 mov	 esp, ebp
  001ae	5d		 pop	 ebp
  001af	c2 0c 00	 ret	 12			; 0000000cH
$LN6@GetIconRec:

; 2030 : 		rect.SetRect(rc.left + (rc.Width() - sz.cx)/2, top, rc.left + (rc.Width() - sz.cx)/2 + sz.cx, top + sz.cy);

  001b2	8b 45 f4	 mov	 eax, DWORD PTR _rc$[ebp+8]
  001b5	8b 75 ec	 mov	 esi, DWORD PTR _rc$[ebp]
  001b8	2b c2		 sub	 eax, edx
  001ba	2b c6		 sub	 eax, esi
  001bc	99		 cdq
  001bd	2b c2		 sub	 eax, edx
  001bf	8b 55 b0	 mov	 edx, DWORD PTR _szImage$1$[ebp]
  001c2	03 d1		 add	 edx, ecx
  001c4	d1 f8		 sar	 eax, 1
  001c6	8b 4d b4	 mov	 ecx, DWORD PTR _szImage$2$[ebp]
; File C:\Program Files (x86)\Microsoft Visual Studio\2019\Community\VC\Tools\MSVC\14.29.30133\atlmfc\include\atltypes.h

; 657  : 	::SetRect(this, x1, y1, x2, y2);

  001c9	52		 push	 edx
; File D:\git\src\IBK\IBK_DRFN\ProjSrc\SrcDrfn\Chart\MULTICHART\control\GfxOutBarCtrl.cpp

; 2030 : 		rect.SetRect(rc.left + (rc.Width() - sz.cx)/2, top, rc.left + (rc.Width() - sz.cx)/2 + sz.cx, top + sz.cy);

  001ca	03 c8		 add	 ecx, eax
  001cc	03 c6		 add	 eax, esi
  001ce	03 ce		 add	 ecx, esi
; File C:\Program Files (x86)\Microsoft Visual Studio\2019\Community\VC\Tools\MSVC\14.29.30133\atlmfc\include\atltypes.h

; 657  : 	::SetRect(this, x1, y1, x2, y2);

  001d0	8b 75 a8	 mov	 esi, DWORD PTR _rect$GSCopy$1$[ebp]
  001d3	51		 push	 ecx
  001d4	ff 75 b8	 push	 DWORD PTR _top$1$[ebp]
  001d7	50		 push	 eax
  001d8	56		 push	 esi
  001d9	ff 15 00 00 00
	00		 call	 DWORD PTR __imp__SetRect@20
; File D:\git\src\IBK\IBK_DRFN\ProjSrc\SrcDrfn\Chart\MULTICHART\control\GfxOutBarCtrl.cpp

; 2034 : }

  001df	8b 4d fc	 mov	 ecx, DWORD PTR __$ArrayPad$[ebp]
  001e2	b8 fd ff ff ff	 mov	 eax, -3			; fffffffdH
  001e7	2b c3		 sub	 eax, ebx
  001e9	33 cd		 xor	 ecx, ebp
  001eb	01 46 04	 add	 DWORD PTR [esi+4], eax
  001ee	b8 fe ff ff ff	 mov	 eax, -2			; fffffffeH
  001f3	2b c3		 sub	 eax, ebx
  001f5	01 46 0c	 add	 DWORD PTR [esi+12], eax
  001f8	5f		 pop	 edi
  001f9	5e		 pop	 esi
  001fa	5b		 pop	 ebx
  001fb	e8 00 00 00 00	 call	 @__security_check_cookie@4
  00200	8b e5		 mov	 esp, ebp
  00202	5d		 pop	 ebp
  00203	c2 0c 00	 ret	 12			; 0000000cH
$LN41@GetIconRec:
; File C:\Program Files (x86)\Microsoft Visual Studio\2019\Community\VC\Tools\MSVC\14.29.30133\atlmfc\include\afxcoll.inl

; 204  : 			AfxThrowInvalidArgException();

  00206	e8 00 00 00 00	 call	 ?AfxThrowInvalidArgException@@YGXXZ ; AfxThrowInvalidArgException
$LN115@GetIconRec:
  0020b	cc		 int	 3
?GetIconRect@CGfxOutBarCtrl@@QAEXHHAAVCRect@@@Z ENDP	; CGfxOutBarCtrl::GetIconRect
_TEXT	ENDS
; Function compile flags: /Ogtp
; File D:\git\src\IBK\IBK_DRFN\ProjSrc\SrcDrfn\Chart\MULTICHART\control\GfxOutBarCtrl.cpp
; File C:\Program Files (x86)\Microsoft Visual Studio\2019\Community\VC\Tools\MSVC\14.29.30133\atlmfc\include\atltypes.h
; File D:\git\src\IBK\IBK_DRFN\ProjSrc\SrcDrfn\Chart\MULTICHART\control\GfxOutBarCtrl.cpp
; File C:\Program Files (x86)\Microsoft Visual Studio\2019\Community\VC\Tools\MSVC\14.29.30133\atlmfc\include\atltypes.h
; File D:\git\src\IBK\IBK_DRFN\ProjSrc\SrcDrfn\Chart\MULTICHART\control\GfxOutBarCtrl.cpp
; File C:\Program Files (x86)\Microsoft Visual Studio\2019\Community\VC\Tools\MSVC\14.29.30133\atlmfc\include\atltypes.h
; File D:\git\src\IBK\IBK_DRFN\ProjSrc\SrcDrfn\Chart\MULTICHART\control\GfxOutBarCtrl.cpp
; File C:\Program Files (x86)\Microsoft Visual Studio\2019\Community\VC\Tools\MSVC\14.29.30133\atlmfc\include\atltypes.h
; File D:\git\src\IBK\IBK_DRFN\ProjSrc\SrcDrfn\Chart\MULTICHART\control\GfxOutBarCtrl.cpp
; File C:\Program Files (x86)\Microsoft Visual Studio\2019\Community\VC\Tools\MSVC\14.29.30133\atlmfc\include\atltypes.h
; File D:\git\src\IBK\IBK_DRFN\ProjSrc\SrcDrfn\Chart\MULTICHART\control\GfxOutBarCtrl.cpp
;	COMDAT ?GetLabelRect@CGfxOutBarCtrl@@QAEXHHAAVCRect@@@Z
_TEXT	SEGMENT
$T1 = -60						; size = 8
tv358 = -52						; size = 8
$T2 = -52						; size = 8
_rect$GSCopy$1$ = -44					; size = 4
_szLabel$ = -40						; size = 8
_iFolder$GSCopy$1$ = -36				; size = 4
_spacing$1$ = -32					; size = 4
tv485 = -32						; size = 4
_top$1$ = -28						; size = 4
_iIndex$GSCopy$1$ = -24					; size = 4
tv507 = -24						; size = 4
_rc$ = -20						; size = 16
__$ArrayPad$ = -4					; size = 4
_iFolder$ = 8						; size = 4
_iIndex$ = 12						; size = 4
_rect$ = 16						; size = 4
?GetLabelRect@CGfxOutBarCtrl@@QAEXHHAAVCRect@@@Z PROC	; CGfxOutBarCtrl::GetLabelRect, COMDAT
; _this$ = ecx

; 2037 : {

  00000	55		 push	 ebp
  00001	8b ec		 mov	 ebp, esp
  00003	83 ec 3c	 sub	 esp, 60			; 0000003cH
  00006	a1 00 00 00 00	 mov	 eax, DWORD PTR ___security_cookie
  0000b	33 c5		 xor	 eax, ebp
  0000d	89 45 fc	 mov	 DWORD PTR __$ArrayPad$[ebp], eax
  00010	8b 45 08	 mov	 eax, DWORD PTR _iFolder$[ebp]
  00013	0f 57 c0	 xorps	 xmm0, xmm0
  00016	89 45 dc	 mov	 DWORD PTR _iFolder$GSCopy$1$[ebp], eax
  00019	8b 45 0c	 mov	 eax, DWORD PTR _iIndex$[ebp]
  0001c	53		 push	 ebx
  0001d	89 45 e8	 mov	 DWORD PTR _iIndex$GSCopy$1$[ebp], eax
  00020	8b 45 10	 mov	 eax, DWORD PTR _rect$[ebp]
  00023	56		 push	 esi
  00024	57		 push	 edi
  00025	89 45 d4	 mov	 DWORD PTR _rect$GSCopy$1$[ebp], eax
  00028	8b f9		 mov	 edi, ecx

; 2039 : 	GetInsideRect(rc);

  0002a	8d 45 ec	 lea	 eax, DWORD PTR _rc$[ebp]
  0002d	50		 push	 eax
; File C:\Program Files (x86)\Microsoft Visual Studio\2019\Community\VC\Tools\MSVC\14.29.30133\atlmfc\include\atltypes.h

; 528  : 	left = 0;

  0002e	0f 11 45 ec	 movups	 XMMWORD PTR _rc$[ebp], xmm0
; File D:\git\src\IBK\IBK_DRFN\ProjSrc\SrcDrfn\Chart\MULTICHART\control\GfxOutBarCtrl.cpp

; 2039 : 	GetInsideRect(rc);

  00032	e8 00 00 00 00	 call	 ?GetInsideRect@CGfxOutBarCtrl@@QBEXAAVCRect@@@Z ; CGfxOutBarCtrl::GetInsideRect

; 2040 : 	int top = rc.top;

  00037	8b 4d f0	 mov	 ecx, DWORD PTR _rc$[ebp+4]

; 2041 : 	CSize sz(0,0);
; 2042 : 	int y = 0;

  0003a	33 db		 xor	 ebx, ebx

; 186  : 	return dwFlags&fSmallIcon;

  0003c	f6 87 00 01 00
	00 01		 test	 BYTE PTR [edi+256], 1

; 2040 : 	int top = rc.top;

  00043	89 4d e4	 mov	 DWORD PTR _top$1$[ebp], ecx

; 2043 : 	int spacing = IsSmallIconView() ? ySmallIconSpacing : yLargeIconSpacing;

  00046	74 08		 je	 SHORT $LN9@GetLabelRe
  00048	8b 97 b0 00 00
	00		 mov	 edx, DWORD PTR [edi+176]
  0004e	eb 06		 jmp	 SHORT $LN31@GetLabelRe
$LN9@GetLabelRe:
  00050	8b 97 b4 00 00
	00		 mov	 edx, DWORD PTR [edi+180]
$LN31@GetLabelRe:

; 2044 : 
; 2045 : 	for (int t = 0; t < iIndex; t++)

  00056	33 f6		 xor	 esi, esi
  00058	89 55 e0	 mov	 DWORD PTR _spacing$1$[ebp], edx
  0005b	39 5d e8	 cmp	 DWORD PTR _iIndex$GSCopy$1$[ebp], ebx
  0005e	7e 3c		 jle	 SHORT $LN3@GetLabelRe
$LL4@GetLabelRe:

; 2046 : 	{
; 2047 : 		sz = GetItemSize(iFolder, t, ircAll);

  00060	6a 03		 push	 3
  00062	56		 push	 esi
  00063	ff 75 dc	 push	 DWORD PTR _iFolder$GSCopy$1$[ebp]
  00066	8d 45 c4	 lea	 eax, DWORD PTR $T1[ebp]
  00069	8b cf		 mov	 ecx, edi
  0006b	50		 push	 eax
  0006c	e8 00 00 00 00	 call	 ?GetItemSize@CGfxOutBarCtrl@@QAE?AVCSize@@HHH@Z ; CGfxOutBarCtrl::GetItemSize

; 2048 : 		top += sz.cy;
; 2049 : 		top += spacing;

  00071	8b 55 e0	 mov	 edx, DWORD PTR _spacing$1$[ebp]
  00074	8b 08		 mov	 ecx, DWORD PTR [eax]
  00076	8b 40 04	 mov	 eax, DWORD PTR [eax+4]
  00079	03 c2		 add	 eax, edx
  0007b	89 4d cc	 mov	 DWORD PTR tv358[ebp], ecx
  0007e	8b 4d e4	 mov	 ecx, DWORD PTR _top$1$[ebp]
  00081	03 c8		 add	 ecx, eax

; 2050 : 		if (t == iFirstItem - 1) y = top - rc.top;

  00083	8b 87 20 01 00
	00		 mov	 eax, DWORD PTR [edi+288]
  00089	48		 dec	 eax
  0008a	89 4d e4	 mov	 DWORD PTR _top$1$[ebp], ecx
  0008d	3b f0		 cmp	 esi, eax
  0008f	75 05		 jne	 SHORT $LN2@GetLabelRe
  00091	8b d9		 mov	 ebx, ecx
  00093	2b 5d f0	 sub	 ebx, DWORD PTR _rc$[ebp+4]
$LN2@GetLabelRe:

; 2044 : 
; 2045 : 	for (int t = 0; t < iIndex; t++)

  00096	46		 inc	 esi
  00097	3b 75 e8	 cmp	 esi, DWORD PTR _iIndex$GSCopy$1$[ebp]
  0009a	7c c4		 jl	 SHORT $LL4@GetLabelRe
$LN3@GetLabelRe:

; 2051 : 	}
; 2052 : 	top += spacing;
; 2053 : 
; 2054 : 	sz = GetItemSize(iFolder, iIndex, ircAll);

  0009c	8b 75 e8	 mov	 esi, DWORD PTR _iIndex$GSCopy$1$[ebp]
  0009f	8d 45 cc	 lea	 eax, DWORD PTR $T2[ebp]
  000a2	6a 03		 push	 3
  000a4	56		 push	 esi
  000a5	ff 75 dc	 push	 DWORD PTR _iFolder$GSCopy$1$[ebp]
  000a8	03 ca		 add	 ecx, edx
  000aa	89 4d e4	 mov	 DWORD PTR _top$1$[ebp], ecx
  000ad	8b cf		 mov	 ecx, edi
  000af	50		 push	 eax
  000b0	e8 00 00 00 00	 call	 ?GetItemSize@CGfxOutBarCtrl@@QAE?AVCSize@@HHH@Z ; CGfxOutBarCtrl::GetItemSize

; 2055 : 
; 2056 : 	CSize szLabel = GetItemSize(iFolder, iIndex, ircLabel);

  000b5	6a 02		 push	 2
  000b7	56		 push	 esi
  000b8	ff 75 dc	 push	 DWORD PTR _iFolder$GSCopy$1$[ebp]
  000bb	8b 08		 mov	 ecx, DWORD PTR [eax]
  000bd	8b 40 04	 mov	 eax, DWORD PTR [eax+4]
  000c0	89 45 e0	 mov	 DWORD PTR tv485[ebp], eax
  000c3	8d 45 d8	 lea	 eax, DWORD PTR _szLabel$[ebp]
  000c6	89 4d e8	 mov	 DWORD PTR tv507[ebp], ecx
  000c9	8b cf		 mov	 ecx, edi
  000cb	50		 push	 eax
  000cc	e8 00 00 00 00	 call	 ?GetItemSize@CGfxOutBarCtrl@@QAE?AVCSize@@HHH@Z ; CGfxOutBarCtrl::GetItemSize

; 186  : 	return dwFlags&fSmallIcon;

  000d1	f6 87 00 01 00
	00 01		 test	 BYTE PTR [edi+256], 1

; 2057 : 
; 2058 : 	if (IsSmallIconView())

  000d8	74 63		 je	 SHORT $LN6@GetLabelRe

; 2060 : 		rect.SetRect(rc.left, top, rc.left + sz.cx, top + sz.cy);

  000da	8b 55 e4	 mov	 edx, DWORD PTR _top$1$[ebp]
  000dd	8b 45 e0	 mov	 eax, DWORD PTR tv485[ebp]
; File C:\Program Files (x86)\Microsoft Visual Studio\2019\Community\VC\Tools\MSVC\14.29.30133\atlmfc\include\atltypes.h

; 657  : 	::SetRect(this, x1, y1, x2, y2);

  000e0	8b 4d ec	 mov	 ecx, DWORD PTR _rc$[ebp]
; File D:\git\src\IBK\IBK_DRFN\ProjSrc\SrcDrfn\Chart\MULTICHART\control\GfxOutBarCtrl.cpp

; 2060 : 		rect.SetRect(rc.left, top, rc.left + sz.cx, top + sz.cy);

  000e3	03 c2		 add	 eax, edx
; File C:\Program Files (x86)\Microsoft Visual Studio\2019\Community\VC\Tools\MSVC\14.29.30133\atlmfc\include\atltypes.h

; 657  : 	::SetRect(this, x1, y1, x2, y2);

  000e5	8b 5d d4	 mov	 ebx, DWORD PTR _rect$GSCopy$1$[ebp]
  000e8	50		 push	 eax
  000e9	8b 45 e8	 mov	 eax, DWORD PTR tv507[ebp]
  000ec	03 c1		 add	 eax, ecx
  000ee	50		 push	 eax
  000ef	52		 push	 edx
  000f0	51		 push	 ecx
  000f1	53		 push	 ebx
  000f2	ff 15 00 00 00
	00		 call	 DWORD PTR __imp__SetRect@20
; File D:\git\src\IBK\IBK_DRFN\ProjSrc\SrcDrfn\Chart\MULTICHART\control\GfxOutBarCtrl.cpp

; 2061 : 		rect.left += xLeftMargin + 2;

  000f8	8b 87 b8 00 00
	00		 mov	 eax, DWORD PTR [edi+184]
  000fe	83 c0 02	 add	 eax, 2
  00101	01 03		 add	 DWORD PTR [ebx], eax

; 2062 : 		rect.right += xLeftMargin + 2;

  00103	8b 87 b8 00 00
	00		 mov	 eax, DWORD PTR [edi+184]
  00109	83 c0 02	 add	 eax, 2
  0010c	01 43 08	 add	 DWORD PTR [ebx+8], eax

; 2063 : 		rect.top  += yTopMargin - 5;

  0010f	8b 87 bc 00 00
	00		 mov	 eax, DWORD PTR [edi+188]
  00115	83 e8 05	 sub	 eax, 5
  00118	01 43 04	 add	 DWORD PTR [ebx+4], eax

; 2064 : 		rect.bottom += yTopMargin - 5;

  0011b	8b 43 0c	 mov	 eax, DWORD PTR [ebx+12]
  0011e	83 c0 fb	 add	 eax, -5			; fffffffbH
  00121	03 87 bc 00 00
	00		 add	 eax, DWORD PTR [edi+188]
  00127	5f		 pop	 edi

; 2074 : 	}
; 2075 : }

  00128	5e		 pop	 esi
  00129	89 43 0c	 mov	 DWORD PTR [ebx+12], eax
  0012c	5b		 pop	 ebx
  0012d	8b 4d fc	 mov	 ecx, DWORD PTR __$ArrayPad$[ebp]
  00130	33 cd		 xor	 ecx, ebp
  00132	e8 00 00 00 00	 call	 @__security_check_cookie@4
  00137	8b e5		 mov	 esp, ebp
  00139	5d		 pop	 ebp
  0013a	c2 0c 00	 ret	 12			; 0000000cH
$LN6@GetLabelRe:

; 2068 : 		rect.SetRect(rc.left + (rc.Width() - sz.cx)/2, top, rc.left + (rc.Width() - sz.cx)/2 + sz.cx, top + sz.cy);

  0013d	8b 45 f4	 mov	 eax, DWORD PTR _rc$[ebp+8]
  00140	2b 45 e8	 sub	 eax, DWORD PTR tv507[ebp]
  00143	8b 75 ec	 mov	 esi, DWORD PTR _rc$[ebp]
  00146	2b c6		 sub	 eax, esi
  00148	8b 4d e0	 mov	 ecx, DWORD PTR tv485[ebp]
  0014b	99		 cdq
  0014c	2b c2		 sub	 eax, edx
  0014e	8b 55 e4	 mov	 edx, DWORD PTR _top$1$[ebp]
  00151	03 ca		 add	 ecx, edx
  00153	d1 f8		 sar	 eax, 1
; File C:\Program Files (x86)\Microsoft Visual Studio\2019\Community\VC\Tools\MSVC\14.29.30133\atlmfc\include\atltypes.h

; 657  : 	::SetRect(this, x1, y1, x2, y2);

  00155	51		 push	 ecx
; File D:\git\src\IBK\IBK_DRFN\ProjSrc\SrcDrfn\Chart\MULTICHART\control\GfxOutBarCtrl.cpp

; 2068 : 		rect.SetRect(rc.left + (rc.Width() - sz.cx)/2, top, rc.left + (rc.Width() - sz.cx)/2 + sz.cx, top + sz.cy);

  00156	8b 4d e8	 mov	 ecx, DWORD PTR tv507[ebp]
  00159	03 c8		 add	 ecx, eax
  0015b	03 c6		 add	 eax, esi
  0015d	03 ce		 add	 ecx, esi
; File C:\Program Files (x86)\Microsoft Visual Studio\2019\Community\VC\Tools\MSVC\14.29.30133\atlmfc\include\atltypes.h

; 657  : 	::SetRect(this, x1, y1, x2, y2);

  0015f	8b 75 d4	 mov	 esi, DWORD PTR _rect$GSCopy$1$[ebp]
  00162	51		 push	 ecx
  00163	52		 push	 edx
  00164	50		 push	 eax
  00165	56		 push	 esi
  00166	ff 15 00 00 00
	00		 call	 DWORD PTR __imp__SetRect@20
; File D:\git\src\IBK\IBK_DRFN\ProjSrc\SrcDrfn\Chart\MULTICHART\control\GfxOutBarCtrl.cpp

; 2069 : 		rect.top -= y + 3;

  0016c	b8 fd ff ff ff	 mov	 eax, -3			; fffffffdH
  00171	2b c3		 sub	 eax, ebx
  00173	01 46 04	 add	 DWORD PTR [esi+4], eax

; 2070 : 		rect.bottom -= y + 2;

  00176	b8 fe ff ff ff	 mov	 eax, -2			; fffffffeH
  0017b	2b c3		 sub	 eax, ebx
  0017d	01 46 0c	 add	 DWORD PTR [esi+12], eax
  00180	8b 4e 0c	 mov	 ecx, DWORD PTR [esi+12]

; 2071 : 
; 2072 : 		rect.bottom -=  yLargeIconSpacing;

  00183	2b 8f b4 00 00
	00		 sub	 ecx, DWORD PTR [edi+180]

; 2073 : 		rect.top    = rect.bottom - szLabel.cy;

  00189	8b c1		 mov	 eax, ecx
  0018b	2b 45 dc	 sub	 eax, DWORD PTR _szLabel$[ebp+4]
  0018e	89 46 04	 mov	 DWORD PTR [esi+4], eax

; 2074 : 	}
; 2075 : }

  00191	89 4e 0c	 mov	 DWORD PTR [esi+12], ecx
  00194	8b 4d fc	 mov	 ecx, DWORD PTR __$ArrayPad$[ebp]
  00197	5f		 pop	 edi
  00198	5e		 pop	 esi
  00199	33 cd		 xor	 ecx, ebp
  0019b	5b		 pop	 ebx
  0019c	e8 00 00 00 00	 call	 @__security_check_cookie@4
  001a1	8b e5		 mov	 esp, ebp
  001a3	5d		 pop	 ebp
  001a4	c2 0c 00	 ret	 12			; 0000000cH
?GetLabelRect@CGfxOutBarCtrl@@QAEXHHAAVCRect@@@Z ENDP	; CGfxOutBarCtrl::GetLabelRect
_TEXT	ENDS
; Function compile flags: /Ogtp
; File D:\git\src\IBK\IBK_DRFN\ProjSrc\SrcDrfn\Chart\MULTICHART\control\GfxOutBarCtrl.cpp
; File C:\Program Files (x86)\Microsoft Visual Studio\2019\Community\VC\Tools\MSVC\14.29.30133\atlmfc\include\afxcoll.inl
; File D:\git\src\IBK\IBK_DRFN\ProjSrc\SrcDrfn\Chart\MULTICHART\control\GfxOutBarCtrl.cpp
; File C:\Program Files (x86)\Microsoft Visual Studio\2019\Community\VC\Tools\MSVC\14.29.30133\atlmfc\include\afxcoll.inl
; File D:\git\src\IBK\IBK_DRFN\ProjSrc\SrcDrfn\Chart\MULTICHART\control\GfxOutBarCtrl.cpp
;	COMDAT ?SetFolderText@CGfxOutBarCtrl@@QAEXHPBD@Z
_TEXT	SEGMENT
_index$ = 8						; size = 4
_text$ = 12						; size = 4
?SetFolderText@CGfxOutBarCtrl@@QAEXHPBD@Z PROC		; CGfxOutBarCtrl::SetFolderText, COMDAT
; _this$ = ecx

; 149  : {

  00000	55		 push	 ebp
  00001	8b ec		 mov	 ebp, esp
; File C:\Program Files (x86)\Microsoft Visual Studio\2019\Community\VC\Tools\MSVC\14.29.30133\atlmfc\include\afxcoll.inl

; 203  : 		if( nIndex < 0 || nIndex >= m_nSize )

  00003	8b 55 08	 mov	 edx, DWORD PTR _index$[ebp]
  00006	85 d2		 test	 edx, edx
  00008	78 4a		 js	 SHORT $LN6@SetFolderT
  0000a	3b 91 0c 01 00
	00		 cmp	 edx, DWORD PTR [ecx+268]
  00010	7d 42		 jge	 SHORT $LN6@SetFolderT

; 205  : 		return m_pData[nIndex]; }

  00012	8b 81 08 01 00
	00		 mov	 eax, DWORD PTR [ecx+264]
  00018	57		 push	 edi
  00019	8b 3c 90	 mov	 edi, DWORD PTR [eax+edx*4]
; File D:\git\src\IBK\IBK_DRFN\ProjSrc\SrcDrfn\Chart\MULTICHART\control\GfxOutBarCtrl.cpp

; 152  : 	if (pbf->cName) 

  0001c	8b 47 04	 mov	 eax, DWORD PTR [edi+4]
  0001f	85 c0		 test	 eax, eax
  00021	74 10		 je	 SHORT $LN2@SetFolderT

; 153  : 	{
; 154  : 		delete [] pbf->cName;

  00023	50		 push	 eax
  00024	e8 00 00 00 00	 call	 ??_V@YAXPAX@Z		; operator delete[]
  00029	83 c4 04	 add	 esp, 4

; 155  : 		pbf->cName = NULL;

  0002c	c7 47 04 00 00
	00 00		 mov	 DWORD PTR [edi+4], 0
$LN2@SetFolderT:

; 156  : 	}
; 157  : 	pbf->cName = new char [lstrlen(text)+1];

  00033	ff 75 0c	 push	 DWORD PTR _text$[ebp]
  00036	ff 15 00 00 00
	00		 call	 DWORD PTR __imp__lstrlenA@4
  0003c	40		 inc	 eax
  0003d	50		 push	 eax
  0003e	e8 00 00 00 00	 call	 ??_U@YAPAXI@Z		; operator new[]
  00043	83 c4 04	 add	 esp, 4
  00046	89 47 04	 mov	 DWORD PTR [edi+4], eax

; 158  : 	lstrcpy(pbf->cName, text);

  00049	5f		 pop	 edi
  0004a	89 45 08	 mov	 DWORD PTR _index$[ebp], eax

; 159  : }

  0004d	5d		 pop	 ebp

; 158  : 	lstrcpy(pbf->cName, text);

  0004e	ff 25 00 00 00
	00		 jmp	 DWORD PTR __imp__lstrcpyA@8
$LN6@SetFolderT:
; File C:\Program Files (x86)\Microsoft Visual Studio\2019\Community\VC\Tools\MSVC\14.29.30133\atlmfc\include\afxcoll.inl

; 204  : 			AfxThrowInvalidArgException();

  00054	e8 00 00 00 00	 call	 ?AfxThrowInvalidArgException@@YGXXZ ; AfxThrowInvalidArgException
$LN10@SetFolderT:
  00059	cc		 int	 3
?SetFolderText@CGfxOutBarCtrl@@QAEXHPBD@Z ENDP		; CGfxOutBarCtrl::SetFolderText
_TEXT	ENDS
; Function compile flags: /Ogtp
; File D:\git\src\IBK\IBK_DRFN\ProjSrc\SrcDrfn\Chart\MULTICHART\control\GfxOutBarCtrl.cpp
; File C:\Program Files (x86)\Microsoft Visual Studio\2019\Community\VC\Tools\MSVC\14.29.30133\atlmfc\include\afxcoll.inl
; File D:\git\src\IBK\IBK_DRFN\ProjSrc\SrcDrfn\Chart\MULTICHART\control\GfxOutBarCtrl.cpp
; File C:\Program Files (x86)\Microsoft Visual Studio\2019\Community\VC\Tools\MSVC\14.29.30133\atlmfc\include\afxcoll.inl
; File D:\git\src\IBK\IBK_DRFN\ProjSrc\SrcDrfn\Chart\MULTICHART\control\GfxOutBarCtrl.cpp
; File C:\Program Files (x86)\Microsoft Visual Studio\2019\Community\VC\Tools\MSVC\14.29.30133\atlmfc\include\afxcoll.inl
; File D:\git\src\IBK\IBK_DRFN\ProjSrc\SrcDrfn\Chart\MULTICHART\control\GfxOutBarCtrl.cpp
; File C:\Program Files (x86)\Microsoft Visual Studio\2019\Community\VC\Tools\MSVC\14.29.30133\atlmfc\include\afxcoll.inl
; File D:\git\src\IBK\IBK_DRFN\ProjSrc\SrcDrfn\Chart\MULTICHART\control\GfxOutBarCtrl.cpp
;	COMDAT ?SetItemText@CGfxOutBarCtrl@@QAEXHPBD@Z
_TEXT	SEGMENT
_index$ = 8						; size = 4
_text$ = 12						; size = 4
?SetItemText@CGfxOutBarCtrl@@QAEXHPBD@Z PROC		; CGfxOutBarCtrl::SetItemText, COMDAT
; _this$ = ecx

; 162  : {

  00000	55		 push	 ebp
  00001	8b ec		 mov	 ebp, esp

; 163  : 	ASSERT(iSelFolder >= 0 && iSelFolder < GetFolderCount());
; 164  : 	CBarFolder * pbf = (CBarFolder *) arFolder.GetAt(iSelFolder);

  00003	8b 91 34 01 00
	00		 mov	 edx, DWORD PTR [ecx+308]
; File C:\Program Files (x86)\Microsoft Visual Studio\2019\Community\VC\Tools\MSVC\14.29.30133\atlmfc\include\afxcoll.inl

; 203  : 		if( nIndex < 0 || nIndex >= m_nSize )

  00009	85 d2		 test	 edx, edx
  0000b	78 5c		 js	 SHORT $LN6@SetItemTex
  0000d	3b 91 0c 01 00
	00		 cmp	 edx, DWORD PTR [ecx+268]
  00013	7d 54		 jge	 SHORT $LN6@SetItemTex
; File D:\git\src\IBK\IBK_DRFN\ProjSrc\SrcDrfn\Chart\MULTICHART\control\GfxOutBarCtrl.cpp

; 165  : 	CBarItem * pi = (CBarItem *) pbf->arItems.GetAt(index);

  00015	8b 81 08 01 00
	00		 mov	 eax, DWORD PTR [ecx+264]
; File C:\Program Files (x86)\Microsoft Visual Studio\2019\Community\VC\Tools\MSVC\14.29.30133\atlmfc\include\afxcoll.inl

; 203  : 		if( nIndex < 0 || nIndex >= m_nSize )

  0001b	8b 4d 08	 mov	 ecx, DWORD PTR _index$[ebp]
; File D:\git\src\IBK\IBK_DRFN\ProjSrc\SrcDrfn\Chart\MULTICHART\control\GfxOutBarCtrl.cpp

; 165  : 	CBarItem * pi = (CBarItem *) pbf->arItems.GetAt(index);

  0001e	8b 04 90	 mov	 eax, DWORD PTR [eax+edx*4]
; File C:\Program Files (x86)\Microsoft Visual Studio\2019\Community\VC\Tools\MSVC\14.29.30133\atlmfc\include\afxcoll.inl

; 203  : 		if( nIndex < 0 || nIndex >= m_nSize )

  00021	85 c9		 test	 ecx, ecx
  00023	78 44		 js	 SHORT $LN6@SetItemTex
  00025	3b 48 1c	 cmp	 ecx, DWORD PTR [eax+28]
  00028	7d 3f		 jge	 SHORT $LN6@SetItemTex

; 205  : 		return m_pData[nIndex]; }

  0002a	8b 40 18	 mov	 eax, DWORD PTR [eax+24]
  0002d	57		 push	 edi
  0002e	8b 3c 88	 mov	 edi, DWORD PTR [eax+ecx*4]
; File D:\git\src\IBK\IBK_DRFN\ProjSrc\SrcDrfn\Chart\MULTICHART\control\GfxOutBarCtrl.cpp

; 166  : 	if (pi->cItem) 

  00031	8b 47 08	 mov	 eax, DWORD PTR [edi+8]
  00034	85 c0		 test	 eax, eax
  00036	74 10		 je	 SHORT $LN2@SetItemTex

; 167  : 	{
; 168  : 		delete [] pi->cItem;

  00038	50		 push	 eax
  00039	e8 00 00 00 00	 call	 ??_V@YAXPAX@Z		; operator delete[]
  0003e	83 c4 04	 add	 esp, 4

; 169  : 		pi->cItem = NULL;

  00041	c7 47 08 00 00
	00 00		 mov	 DWORD PTR [edi+8], 0
$LN2@SetItemTex:

; 170  : 	}
; 171  : 	pi->cItem = new char [lstrlen(text)+1];

  00048	ff 75 0c	 push	 DWORD PTR _text$[ebp]
  0004b	ff 15 00 00 00
	00		 call	 DWORD PTR __imp__lstrlenA@4
  00051	40		 inc	 eax
  00052	50		 push	 eax
  00053	e8 00 00 00 00	 call	 ??_U@YAPAXI@Z		; operator new[]
  00058	83 c4 04	 add	 esp, 4
  0005b	89 47 08	 mov	 DWORD PTR [edi+8], eax

; 172  : 	lstrcpy(pi->cItem, text);

  0005e	5f		 pop	 edi
  0005f	89 45 08	 mov	 DWORD PTR _index$[ebp], eax

; 173  : }

  00062	5d		 pop	 ebp

; 172  : 	lstrcpy(pi->cItem, text);

  00063	ff 25 00 00 00
	00		 jmp	 DWORD PTR __imp__lstrcpyA@8
$LN6@SetItemTex:
; File C:\Program Files (x86)\Microsoft Visual Studio\2019\Community\VC\Tools\MSVC\14.29.30133\atlmfc\include\afxcoll.inl

; 204  : 			AfxThrowInvalidArgException();

  00069	e8 00 00 00 00	 call	 ?AfxThrowInvalidArgException@@YGXXZ ; AfxThrowInvalidArgException
$LN14@SetItemTex:
  0006e	cc		 int	 3
?SetItemText@CGfxOutBarCtrl@@QAEXHPBD@Z ENDP		; CGfxOutBarCtrl::SetItemText
_TEXT	ENDS
; Function compile flags: /Ogtp
; File D:\git\src\IBK\IBK_DRFN\ProjSrc\SrcDrfn\Chart\MULTICHART\control\GfxOutBarCtrl.cpp
; File C:\Program Files (x86)\Microsoft Visual Studio\2019\Community\VC\Tools\MSVC\14.29.30133\atlmfc\include\afxcoll.inl
; File D:\git\src\IBK\IBK_DRFN\ProjSrc\SrcDrfn\Chart\MULTICHART\control\GfxOutBarCtrl.cpp
; File C:\Program Files (x86)\Microsoft Visual Studio\2019\Community\VC\Tools\MSVC\14.29.30133\atlmfc\include\atltypes.h
; File D:\git\src\IBK\IBK_DRFN\ProjSrc\SrcDrfn\Chart\MULTICHART\control\GfxOutBarCtrl.cpp
; File C:\Program Files (x86)\Microsoft Visual Studio\2019\Community\VC\Tools\MSVC\14.29.30133\atlmfc\include\afxwin2.inl
; File D:\git\src\IBK\IBK_DRFN\ProjSrc\SrcDrfn\Chart\MULTICHART\control\GfxOutBarCtrl.cpp
; File C:\Program Files (x86)\Microsoft Visual Studio\2019\Community\VC\Tools\MSVC\14.29.30133\atlmfc\include\afxcoll.inl
; File D:\git\src\IBK\IBK_DRFN\ProjSrc\SrcDrfn\Chart\MULTICHART\control\GfxOutBarCtrl.cpp
;	COMDAT ?RemoveItem@CGfxOutBarCtrl@@QAEXH@Z
_TEXT	SEGMENT
_rc$1 = -20						; size = 16
__$ArrayPad$ = -4					; size = 4
_index$ = 8						; size = 4
?RemoveItem@CGfxOutBarCtrl@@QAEXH@Z PROC		; CGfxOutBarCtrl::RemoveItem, COMDAT
; _this$ = ecx

; 2121 : {

  00000	55		 push	 ebp
  00001	8b ec		 mov	 ebp, esp
  00003	83 ec 14	 sub	 esp, 20			; 00000014H
  00006	a1 00 00 00 00	 mov	 eax, DWORD PTR ___security_cookie
  0000b	33 c5		 xor	 eax, ebp
  0000d	89 45 fc	 mov	 DWORD PTR __$ArrayPad$[ebp], eax
  00010	56		 push	 esi
  00011	8b f1		 mov	 esi, ecx
  00013	57		 push	 edi
  00014	8b 7d 08	 mov	 edi, DWORD PTR _index$[ebp]

; 2122 : 	ASSERT(iSelFolder >= 0 && iSelFolder < GetFolderCount());
; 2123 : 	CBarFolder * pbf = (CBarFolder *) arFolder.GetAt(iSelFolder);

  00017	8b 8e 34 01 00
	00		 mov	 ecx, DWORD PTR [esi+308]
; File C:\Program Files (x86)\Microsoft Visual Studio\2019\Community\VC\Tools\MSVC\14.29.30133\atlmfc\include\afxcoll.inl

; 203  : 		if( nIndex < 0 || nIndex >= m_nSize )

  0001d	85 c9		 test	 ecx, ecx
  0001f	78 6c		 js	 SHORT $LN8@RemoveItem
  00021	3b 8e 0c 01 00
	00		 cmp	 ecx, DWORD PTR [esi+268]
  00027	7d 64		 jge	 SHORT $LN8@RemoveItem

; 205  : 		return m_pData[nIndex]; }

  00029	8b 86 08 01 00
	00		 mov	 eax, DWORD PTR [esi+264]
  0002f	8b 04 88	 mov	 eax, DWORD PTR [eax+ecx*4]
; File D:\git\src\IBK\IBK_DRFN\ProjSrc\SrcDrfn\Chart\MULTICHART\control\GfxOutBarCtrl.cpp

; 2141 : 	return (index >= 0 && index < pbf->GetItemCount());

  00032	85 ff		 test	 edi, edi
  00034	78 45		 js	 SHORT $LN2@RemoveItem
  00036	3b 78 1c	 cmp	 edi, DWORD PTR [eax+28]
  00039	7d 40		 jge	 SHORT $LN2@RemoveItem
  0003b	53		 push	 ebx
  0003c	8d 58 14	 lea	 ebx, DWORD PTR [eax+20]

; 2124 : 	ASSERT(index >= 0 && index < pbf->GetItemCount());
; 2125 : 	if (IsValidItem(index))
; 2126 : 	{
; 2127 : 		CBarItem * i = (CBarItem *) pbf->arItems.GetAt(index);
; 2128 : 		delete i;

  0003f	8b 40 18	 mov	 eax, DWORD PTR [eax+24]
  00042	8b 0c b8	 mov	 ecx, DWORD PTR [eax+edi*4]
  00045	85 c9		 test	 ecx, ecx
  00047	74 06		 je	 SHORT $LN4@RemoveItem
  00049	8b 01		 mov	 eax, DWORD PTR [ecx]
  0004b	6a 01		 push	 1
  0004d	ff 10		 call	 DWORD PTR [eax]
$LN4@RemoveItem:

; 2129 : 
; 2130 : 		pbf->arItems.RemoveAt(index);

  0004f	6a 01		 push	 1
  00051	57		 push	 edi
  00052	8b cb		 mov	 ecx, ebx
  00054	e8 00 00 00 00	 call	 ?RemoveAt@CPtrArray@@QAEXHH@Z ; CPtrArray::RemoveAt

; 2132 : 		GetInsideRect(rc);

  00059	8d 45 ec	 lea	 eax, DWORD PTR _rc$1[ebp]
  0005c	0f 57 c0	 xorps	 xmm0, xmm0
  0005f	50		 push	 eax
  00060	8b ce		 mov	 ecx, esi
; File C:\Program Files (x86)\Microsoft Visual Studio\2019\Community\VC\Tools\MSVC\14.29.30133\atlmfc\include\atltypes.h

; 528  : 	left = 0;

  00062	0f 11 45 ec	 movups	 XMMWORD PTR _rc$1[ebp], xmm0
; File D:\git\src\IBK\IBK_DRFN\ProjSrc\SrcDrfn\Chart\MULTICHART\control\GfxOutBarCtrl.cpp

; 2132 : 		GetInsideRect(rc);

  00066	e8 00 00 00 00	 call	 ?GetInsideRect@CGfxOutBarCtrl@@QBEXAAVCRect@@@Z ; CGfxOutBarCtrl::GetInsideRect
; File C:\Program Files (x86)\Microsoft Visual Studio\2019\Community\VC\Tools\MSVC\14.29.30133\atlmfc\include\afxwin2.inl

; 116  : 	{ ASSERT(::IsWindow(m_hWnd)); ::InvalidateRect(m_hWnd, lpRect, bErase); }

  0006b	6a 01		 push	 1
  0006d	8d 45 ec	 lea	 eax, DWORD PTR _rc$1[ebp]
  00070	50		 push	 eax
  00071	ff 76 20	 push	 DWORD PTR [esi+32]
  00074	ff 15 00 00 00
	00		 call	 DWORD PTR __imp__InvalidateRect@12
  0007a	5b		 pop	 ebx
$LN2@RemoveItem:
; File D:\git\src\IBK\IBK_DRFN\ProjSrc\SrcDrfn\Chart\MULTICHART\control\GfxOutBarCtrl.cpp

; 2135 : }

  0007b	8b 4d fc	 mov	 ecx, DWORD PTR __$ArrayPad$[ebp]
  0007e	5f		 pop	 edi
  0007f	33 cd		 xor	 ecx, ebp
  00081	5e		 pop	 esi
  00082	e8 00 00 00 00	 call	 @__security_check_cookie@4
  00087	8b e5		 mov	 esp, ebp
  00089	5d		 pop	 ebp
  0008a	c2 04 00	 ret	 4
$LN8@RemoveItem:
; File C:\Program Files (x86)\Microsoft Visual Studio\2019\Community\VC\Tools\MSVC\14.29.30133\atlmfc\include\afxcoll.inl

; 204  : 			AfxThrowInvalidArgException();

  0008d	e8 00 00 00 00	 call	 ?AfxThrowInvalidArgException@@YGXXZ ; AfxThrowInvalidArgException
$LN41@RemoveItem:
  00092	cc		 int	 3
?RemoveItem@CGfxOutBarCtrl@@QAEXH@Z ENDP		; CGfxOutBarCtrl::RemoveItem
_TEXT	ENDS
; Function compile flags: /Ogtp
; File D:\git\src\IBK\IBK_DRFN\ProjSrc\SrcDrfn\Chart\MULTICHART\control\GfxOutBarCtrl.cpp
; File C:\Program Files (x86)\Microsoft Visual Studio\2019\Community\VC\Tools\MSVC\14.29.30133\atlmfc\include\afxcoll.inl
; File D:\git\src\IBK\IBK_DRFN\ProjSrc\SrcDrfn\Chart\MULTICHART\control\GfxOutBarCtrl.cpp
; File C:\Program Files (x86)\Microsoft Visual Studio\2019\Community\VC\Tools\MSVC\14.29.30133\atlmfc\include\afxcoll.inl
; File D:\git\src\IBK\IBK_DRFN\ProjSrc\SrcDrfn\Chart\MULTICHART\control\GfxOutBarCtrl.cpp
;	COMDAT ?IsValidItem@CGfxOutBarCtrl@@QBE_NH@Z
_TEXT	SEGMENT
_index$ = 8						; size = 4
?IsValidItem@CGfxOutBarCtrl@@QBE_NH@Z PROC		; CGfxOutBarCtrl::IsValidItem, COMDAT
; _this$ = ecx

; 2138 : {

  00000	55		 push	 ebp
  00001	8b ec		 mov	 ebp, esp

; 2139 : 	ASSERT(iSelFolder >= 0 && iSelFolder < GetFolderCount());
; 2140 : 	CBarFolder * pbf = (CBarFolder *) arFolder.GetAt(iSelFolder);

  00003	8b 91 34 01 00
	00		 mov	 edx, DWORD PTR [ecx+308]
; File C:\Program Files (x86)\Microsoft Visual Studio\2019\Community\VC\Tools\MSVC\14.29.30133\atlmfc\include\afxcoll.inl

; 203  : 		if( nIndex < 0 || nIndex >= m_nSize )

  00009	85 d2		 test	 edx, edx
  0000b	78 2c		 js	 SHORT $LN7@IsValidIte
  0000d	3b 91 0c 01 00
	00		 cmp	 edx, DWORD PTR [ecx+268]
  00013	7d 24		 jge	 SHORT $LN7@IsValidIte
; File D:\git\src\IBK\IBK_DRFN\ProjSrc\SrcDrfn\Chart\MULTICHART\control\GfxOutBarCtrl.cpp

; 2141 : 	return (index >= 0 && index < pbf->GetItemCount());

  00015	56		 push	 esi
  00016	8b 75 08	 mov	 esi, DWORD PTR _index$[ebp]
  00019	85 f6		 test	 esi, esi
  0001b	78 15		 js	 SHORT $LN3@IsValidIte
  0001d	8b 81 08 01 00
	00		 mov	 eax, DWORD PTR [ecx+264]
  00023	8b 04 90	 mov	 eax, DWORD PTR [eax+edx*4]
  00026	3b 70 1c	 cmp	 esi, DWORD PTR [eax+28]
  00029	7d 07		 jge	 SHORT $LN3@IsValidIte
  0002b	b0 01		 mov	 al, 1
  0002d	5e		 pop	 esi

; 2142 : }

  0002e	5d		 pop	 ebp
  0002f	c2 04 00	 ret	 4
$LN3@IsValidIte:

; 2141 : 	return (index >= 0 && index < pbf->GetItemCount());

  00032	32 c0		 xor	 al, al
  00034	5e		 pop	 esi

; 2142 : }

  00035	5d		 pop	 ebp
  00036	c2 04 00	 ret	 4
$LN7@IsValidIte:
; File C:\Program Files (x86)\Microsoft Visual Studio\2019\Community\VC\Tools\MSVC\14.29.30133\atlmfc\include\afxcoll.inl

; 204  : 			AfxThrowInvalidArgException();

  00039	e8 00 00 00 00	 call	 ?AfxThrowInvalidArgException@@YGXXZ ; AfxThrowInvalidArgException
$LN10@IsValidIte:
  0003e	cc		 int	 3
?IsValidItem@CGfxOutBarCtrl@@QBE_NH@Z ENDP		; CGfxOutBarCtrl::IsValidItem
_TEXT	ENDS
; Function compile flags: /Ogtp
; File D:\git\src\IBK\IBK_DRFN\ProjSrc\SrcDrfn\Chart\MULTICHART\control\GfxOutBarCtrl.cpp
; File C:\Program Files (x86)\Microsoft Visual Studio\2019\Community\VC\Tools\MSVC\14.29.30133\atlmfc\include\afxcoll.inl
; File D:\git\src\IBK\IBK_DRFN\ProjSrc\SrcDrfn\Chart\MULTICHART\control\GfxOutBarCtrl.cpp
; File C:\Program Files (x86)\Microsoft Visual Studio\2019\Community\VC\Tools\MSVC\14.29.30133\atlmfc\include\afxcoll.inl
; File D:\git\src\IBK\IBK_DRFN\ProjSrc\SrcDrfn\Chart\MULTICHART\control\GfxOutBarCtrl.cpp
; File C:\Program Files (x86)\Microsoft Visual Studio\2019\Community\VC\Tools\MSVC\14.29.30133\atlmfc\include\afxcoll.inl
; File D:\git\src\IBK\IBK_DRFN\ProjSrc\SrcDrfn\Chart\MULTICHART\control\GfxOutBarCtrl.cpp
;	COMDAT ?GetItemData@CGfxOutBarCtrl@@QBEKH@Z
_TEXT	SEGMENT
_index$ = 8						; size = 4
?GetItemData@CGfxOutBarCtrl@@QBEKH@Z PROC		; CGfxOutBarCtrl::GetItemData, COMDAT
; _this$ = ecx

; 2145 : {

  00000	55		 push	 ebp
  00001	8b ec		 mov	 ebp, esp

; 2146 : 	ASSERT(iSelFolder >= 0 && iSelFolder < GetFolderCount());
; 2147 : 	CBarFolder * pbf = (CBarFolder *) arFolder.GetAt(iSelFolder);

  00003	8b 91 34 01 00
	00		 mov	 edx, DWORD PTR [ecx+308]
; File C:\Program Files (x86)\Microsoft Visual Studio\2019\Community\VC\Tools\MSVC\14.29.30133\atlmfc\include\afxcoll.inl

; 203  : 		if( nIndex < 0 || nIndex >= m_nSize )

  00009	85 d2		 test	 edx, edx
  0000b	78 30		 js	 SHORT $LN6@GetItemDat
  0000d	3b 91 0c 01 00
	00		 cmp	 edx, DWORD PTR [ecx+268]
  00013	7d 28		 jge	 SHORT $LN6@GetItemDat

; 205  : 		return m_pData[nIndex]; }

  00015	8b 81 08 01 00
	00		 mov	 eax, DWORD PTR [ecx+264]
; File D:\git\src\IBK\IBK_DRFN\ProjSrc\SrcDrfn\Chart\MULTICHART\control\GfxOutBarCtrl.cpp

; 2141 : 	return (index >= 0 && index < pbf->GetItemCount());

  0001b	8b 4d 08	 mov	 ecx, DWORD PTR _index$[ebp]
; File C:\Program Files (x86)\Microsoft Visual Studio\2019\Community\VC\Tools\MSVC\14.29.30133\atlmfc\include\afxcoll.inl

; 205  : 		return m_pData[nIndex]; }

  0001e	8b 04 90	 mov	 eax, DWORD PTR [eax+edx*4]
; File D:\git\src\IBK\IBK_DRFN\ProjSrc\SrcDrfn\Chart\MULTICHART\control\GfxOutBarCtrl.cpp

; 2141 : 	return (index >= 0 && index < pbf->GetItemCount());

  00021	85 c9		 test	 ecx, ecx
  00023	78 12		 js	 SHORT $LN2@GetItemDat
  00025	3b 48 1c	 cmp	 ecx, DWORD PTR [eax+28]
  00028	7d 0d		 jge	 SHORT $LN2@GetItemDat

; 2148 : 	if (IsValidItem(index))
; 2149 : 	{
; 2150 : 		CBarItem * i = (CBarItem *) pbf->arItems.GetAt(index);
; 2151 : 		return i->dwData;

  0002a	8b 40 18	 mov	 eax, DWORD PTR [eax+24]
  0002d	8b 04 88	 mov	 eax, DWORD PTR [eax+ecx*4]
  00030	8b 40 0c	 mov	 eax, DWORD PTR [eax+12]

; 2154 : }

  00033	5d		 pop	 ebp
  00034	c2 04 00	 ret	 4
$LN2@GetItemDat:

; 2152 : 	}
; 2153 : 	return 0;

  00037	33 c0		 xor	 eax, eax

; 2154 : }

  00039	5d		 pop	 ebp
  0003a	c2 04 00	 ret	 4
$LN6@GetItemDat:
; File C:\Program Files (x86)\Microsoft Visual Studio\2019\Community\VC\Tools\MSVC\14.29.30133\atlmfc\include\afxcoll.inl

; 204  : 			AfxThrowInvalidArgException();

  0003d	e8 00 00 00 00	 call	 ?AfxThrowInvalidArgException@@YGXXZ ; AfxThrowInvalidArgException
$LN23@GetItemDat:
  00042	cc		 int	 3
?GetItemData@CGfxOutBarCtrl@@QBEKH@Z ENDP		; CGfxOutBarCtrl::GetItemData
_TEXT	ENDS
; Function compile flags: /Ogtp
; File D:\git\src\IBK\IBK_DRFN\ProjSrc\SrcDrfn\Chart\MULTICHART\control\GfxOutBarCtrl.cpp
; File C:\Program Files (x86)\Microsoft Visual Studio\2019\Community\VC\Tools\MSVC\14.29.30133\atlmfc\include\afxcoll.inl
; File D:\git\src\IBK\IBK_DRFN\ProjSrc\SrcDrfn\Chart\MULTICHART\control\GfxOutBarCtrl.cpp
; File C:\Program Files (x86)\Microsoft Visual Studio\2019\Community\VC\Tools\MSVC\14.29.30133\atlmfc\include\afxcoll.inl
; File D:\git\src\IBK\IBK_DRFN\ProjSrc\SrcDrfn\Chart\MULTICHART\control\GfxOutBarCtrl.cpp
; File C:\Program Files (x86)\Microsoft Visual Studio\2019\Community\VC\Tools\MSVC\14.29.30133\atlmfc\include\afxcoll.inl
; File D:\git\src\IBK\IBK_DRFN\ProjSrc\SrcDrfn\Chart\MULTICHART\control\GfxOutBarCtrl.cpp
;	COMDAT ?GetItemImage@CGfxOutBarCtrl@@QBEHH@Z
_TEXT	SEGMENT
_index$ = 8						; size = 4
?GetItemImage@CGfxOutBarCtrl@@QBEHH@Z PROC		; CGfxOutBarCtrl::GetItemImage, COMDAT
; _this$ = ecx

; 2157 : {

  00000	55		 push	 ebp
  00001	8b ec		 mov	 ebp, esp

; 2158 : 	ASSERT(iSelFolder >= 0 && iSelFolder < GetFolderCount());
; 2159 : 	CBarFolder * pbf = (CBarFolder *) arFolder.GetAt(iSelFolder);

  00003	8b 91 34 01 00
	00		 mov	 edx, DWORD PTR [ecx+308]
; File C:\Program Files (x86)\Microsoft Visual Studio\2019\Community\VC\Tools\MSVC\14.29.30133\atlmfc\include\afxcoll.inl

; 203  : 		if( nIndex < 0 || nIndex >= m_nSize )

  00009	85 d2		 test	 edx, edx
  0000b	78 30		 js	 SHORT $LN6@GetItemIma
  0000d	3b 91 0c 01 00
	00		 cmp	 edx, DWORD PTR [ecx+268]
  00013	7d 28		 jge	 SHORT $LN6@GetItemIma

; 205  : 		return m_pData[nIndex]; }

  00015	8b 81 08 01 00
	00		 mov	 eax, DWORD PTR [ecx+264]
; File D:\git\src\IBK\IBK_DRFN\ProjSrc\SrcDrfn\Chart\MULTICHART\control\GfxOutBarCtrl.cpp

; 2141 : 	return (index >= 0 && index < pbf->GetItemCount());

  0001b	8b 4d 08	 mov	 ecx, DWORD PTR _index$[ebp]
; File C:\Program Files (x86)\Microsoft Visual Studio\2019\Community\VC\Tools\MSVC\14.29.30133\atlmfc\include\afxcoll.inl

; 205  : 		return m_pData[nIndex]; }

  0001e	8b 04 90	 mov	 eax, DWORD PTR [eax+edx*4]
; File D:\git\src\IBK\IBK_DRFN\ProjSrc\SrcDrfn\Chart\MULTICHART\control\GfxOutBarCtrl.cpp

; 2141 : 	return (index >= 0 && index < pbf->GetItemCount());

  00021	85 c9		 test	 ecx, ecx
  00023	78 12		 js	 SHORT $LN2@GetItemIma
  00025	3b 48 1c	 cmp	 ecx, DWORD PTR [eax+28]
  00028	7d 0d		 jge	 SHORT $LN2@GetItemIma

; 2160 : 	if (IsValidItem(index))
; 2161 : 	{
; 2162 : 		CBarItem * i = (CBarItem *) pbf->arItems.GetAt(index);
; 2163 : 		return i->iImageIndex;

  0002a	8b 40 18	 mov	 eax, DWORD PTR [eax+24]
  0002d	8b 04 88	 mov	 eax, DWORD PTR [eax+ecx*4]
  00030	8b 40 04	 mov	 eax, DWORD PTR [eax+4]

; 2166 : }

  00033	5d		 pop	 ebp
  00034	c2 04 00	 ret	 4
$LN2@GetItemIma:

; 2164 : 	}
; 2165 : 	return 0;

  00037	33 c0		 xor	 eax, eax

; 2166 : }

  00039	5d		 pop	 ebp
  0003a	c2 04 00	 ret	 4
$LN6@GetItemIma:
; File C:\Program Files (x86)\Microsoft Visual Studio\2019\Community\VC\Tools\MSVC\14.29.30133\atlmfc\include\afxcoll.inl

; 204  : 			AfxThrowInvalidArgException();

  0003d	e8 00 00 00 00	 call	 ?AfxThrowInvalidArgException@@YGXXZ ; AfxThrowInvalidArgException
$LN23@GetItemIma:
  00042	cc		 int	 3
?GetItemImage@CGfxOutBarCtrl@@QBEHH@Z ENDP		; CGfxOutBarCtrl::GetItemImage
_TEXT	ENDS
; Function compile flags: /Ogtp
; File D:\git\src\IBK\IBK_DRFN\ProjSrc\SrcDrfn\Chart\MULTICHART\control\GfxOutBarCtrl.cpp
; File C:\Program Files (x86)\Microsoft Visual Studio\2019\Community\VC\Tools\MSVC\14.29.30133\atlmfc\include\afxcoll.inl
; File D:\git\src\IBK\IBK_DRFN\ProjSrc\SrcDrfn\Chart\MULTICHART\control\GfxOutBarCtrl.cpp
; File C:\Program Files (x86)\Microsoft Visual Studio\2019\Community\VC\Tools\MSVC\14.29.30133\atlmfc\include\afxcoll.inl
; File D:\git\src\IBK\IBK_DRFN\ProjSrc\SrcDrfn\Chart\MULTICHART\control\GfxOutBarCtrl.cpp
; File C:\Program Files (x86)\Microsoft Visual Studio\2019\Community\VC\Tools\MSVC\14.29.30133\atlmfc\include\afxcoll.inl
; File D:\git\src\IBK\IBK_DRFN\ProjSrc\SrcDrfn\Chart\MULTICHART\control\GfxOutBarCtrl.cpp
;	COMDAT ?SetItemData@CGfxOutBarCtrl@@QAEXHK@Z
_TEXT	SEGMENT
_index$ = 8						; size = 4
_dwData$ = 12						; size = 4
?SetItemData@CGfxOutBarCtrl@@QAEXHK@Z PROC		; CGfxOutBarCtrl::SetItemData, COMDAT
; _this$ = ecx

; 2169 : {

  00000	55		 push	 ebp
  00001	8b ec		 mov	 ebp, esp

; 2170 : 	ASSERT(iSelFolder >= 0 && iSelFolder < GetFolderCount());
; 2171 : 	CBarFolder * pbf = (CBarFolder *) arFolder.GetAt(iSelFolder);

  00003	8b 91 34 01 00
	00		 mov	 edx, DWORD PTR [ecx+308]
; File C:\Program Files (x86)\Microsoft Visual Studio\2019\Community\VC\Tools\MSVC\14.29.30133\atlmfc\include\afxcoll.inl

; 203  : 		if( nIndex < 0 || nIndex >= m_nSize )

  00009	85 d2		 test	 edx, edx
  0000b	78 2d		 js	 SHORT $LN6@SetItemDat
  0000d	3b 91 0c 01 00
	00		 cmp	 edx, DWORD PTR [ecx+268]
  00013	7d 25		 jge	 SHORT $LN6@SetItemDat

; 205  : 		return m_pData[nIndex]; }

  00015	8b 81 08 01 00
	00		 mov	 eax, DWORD PTR [ecx+264]
; File D:\git\src\IBK\IBK_DRFN\ProjSrc\SrcDrfn\Chart\MULTICHART\control\GfxOutBarCtrl.cpp

; 2141 : 	return (index >= 0 && index < pbf->GetItemCount());

  0001b	8b 4d 08	 mov	 ecx, DWORD PTR _index$[ebp]
; File C:\Program Files (x86)\Microsoft Visual Studio\2019\Community\VC\Tools\MSVC\14.29.30133\atlmfc\include\afxcoll.inl

; 205  : 		return m_pData[nIndex]; }

  0001e	8b 04 90	 mov	 eax, DWORD PTR [eax+edx*4]
; File D:\git\src\IBK\IBK_DRFN\ProjSrc\SrcDrfn\Chart\MULTICHART\control\GfxOutBarCtrl.cpp

; 2141 : 	return (index >= 0 && index < pbf->GetItemCount());

  00021	85 c9		 test	 ecx, ecx
  00023	78 11		 js	 SHORT $LN2@SetItemDat
  00025	3b 48 1c	 cmp	 ecx, DWORD PTR [eax+28]
  00028	7d 0c		 jge	 SHORT $LN2@SetItemDat

; 2172 : 	if (IsValidItem(index))
; 2173 : 	{
; 2174 : 		CBarItem * i = (CBarItem *) pbf->arItems.GetAt(index);
; 2175 : 		i->dwData = dwData;

  0002a	8b 40 18	 mov	 eax, DWORD PTR [eax+24]
  0002d	8b 0c 88	 mov	 ecx, DWORD PTR [eax+ecx*4]
  00030	8b 45 0c	 mov	 eax, DWORD PTR _dwData$[ebp]
  00033	89 41 0c	 mov	 DWORD PTR [ecx+12], eax
$LN2@SetItemDat:

; 2177 : }

  00036	5d		 pop	 ebp
  00037	c2 08 00	 ret	 8
$LN6@SetItemDat:
; File C:\Program Files (x86)\Microsoft Visual Studio\2019\Community\VC\Tools\MSVC\14.29.30133\atlmfc\include\afxcoll.inl

; 204  : 			AfxThrowInvalidArgException();

  0003a	e8 00 00 00 00	 call	 ?AfxThrowInvalidArgException@@YGXXZ ; AfxThrowInvalidArgException
$LN23@SetItemDat:
  0003f	cc		 int	 3
?SetItemData@CGfxOutBarCtrl@@QAEXHK@Z ENDP		; CGfxOutBarCtrl::SetItemData
_TEXT	ENDS
; Function compile flags: /Ogtp
; File D:\git\src\IBK\IBK_DRFN\ProjSrc\SrcDrfn\Chart\MULTICHART\control\GfxOutBarCtrl.cpp
; File C:\Program Files (x86)\Microsoft Visual Studio\2019\Community\VC\Tools\MSVC\14.29.30133\atlmfc\include\afxcoll.inl
; File D:\git\src\IBK\IBK_DRFN\ProjSrc\SrcDrfn\Chart\MULTICHART\control\GfxOutBarCtrl.cpp
; File C:\Program Files (x86)\Microsoft Visual Studio\2019\Community\VC\Tools\MSVC\14.29.30133\atlmfc\include\afxcoll.inl
; File D:\git\src\IBK\IBK_DRFN\ProjSrc\SrcDrfn\Chart\MULTICHART\control\GfxOutBarCtrl.cpp
; File C:\Program Files (x86)\Microsoft Visual Studio\2019\Community\VC\Tools\MSVC\14.29.30133\atlmfc\include\afxcoll.inl
; File D:\git\src\IBK\IBK_DRFN\ProjSrc\SrcDrfn\Chart\MULTICHART\control\GfxOutBarCtrl.cpp
;	COMDAT ?SetItemImage@CGfxOutBarCtrl@@QAEXHH@Z
_TEXT	SEGMENT
_index$ = 8						; size = 4
_iImage$ = 12						; size = 4
?SetItemImage@CGfxOutBarCtrl@@QAEXHH@Z PROC		; CGfxOutBarCtrl::SetItemImage, COMDAT
; _this$ = ecx

; 2180 : {

  00000	55		 push	 ebp
  00001	8b ec		 mov	 ebp, esp

; 2181 : 	ASSERT(iSelFolder >= 0 && iSelFolder < GetFolderCount());
; 2182 : 	CBarFolder * pbf = (CBarFolder *) arFolder.GetAt(iSelFolder);

  00003	8b 91 34 01 00
	00		 mov	 edx, DWORD PTR [ecx+308]
; File C:\Program Files (x86)\Microsoft Visual Studio\2019\Community\VC\Tools\MSVC\14.29.30133\atlmfc\include\afxcoll.inl

; 203  : 		if( nIndex < 0 || nIndex >= m_nSize )

  00009	85 d2		 test	 edx, edx
  0000b	78 2d		 js	 SHORT $LN6@SetItemIma
  0000d	3b 91 0c 01 00
	00		 cmp	 edx, DWORD PTR [ecx+268]
  00013	7d 25		 jge	 SHORT $LN6@SetItemIma

; 205  : 		return m_pData[nIndex]; }

  00015	8b 81 08 01 00
	00		 mov	 eax, DWORD PTR [ecx+264]
; File D:\git\src\IBK\IBK_DRFN\ProjSrc\SrcDrfn\Chart\MULTICHART\control\GfxOutBarCtrl.cpp

; 2141 : 	return (index >= 0 && index < pbf->GetItemCount());

  0001b	8b 4d 08	 mov	 ecx, DWORD PTR _index$[ebp]
; File C:\Program Files (x86)\Microsoft Visual Studio\2019\Community\VC\Tools\MSVC\14.29.30133\atlmfc\include\afxcoll.inl

; 205  : 		return m_pData[nIndex]; }

  0001e	8b 04 90	 mov	 eax, DWORD PTR [eax+edx*4]
; File D:\git\src\IBK\IBK_DRFN\ProjSrc\SrcDrfn\Chart\MULTICHART\control\GfxOutBarCtrl.cpp

; 2141 : 	return (index >= 0 && index < pbf->GetItemCount());

  00021	85 c9		 test	 ecx, ecx
  00023	78 11		 js	 SHORT $LN2@SetItemIma
  00025	3b 48 1c	 cmp	 ecx, DWORD PTR [eax+28]
  00028	7d 0c		 jge	 SHORT $LN2@SetItemIma

; 2183 : 	if (IsValidItem(index))
; 2184 : 	{
; 2185 : 		CBarItem * i = (CBarItem *) pbf->arItems.GetAt(index);
; 2186 : 		i->iImageIndex = iImage;

  0002a	8b 40 18	 mov	 eax, DWORD PTR [eax+24]
  0002d	8b 0c 88	 mov	 ecx, DWORD PTR [eax+ecx*4]
  00030	8b 45 0c	 mov	 eax, DWORD PTR _iImage$[ebp]
  00033	89 41 04	 mov	 DWORD PTR [ecx+4], eax
$LN2@SetItemIma:

; 2188 : }

  00036	5d		 pop	 ebp
  00037	c2 08 00	 ret	 8
$LN6@SetItemIma:
; File C:\Program Files (x86)\Microsoft Visual Studio\2019\Community\VC\Tools\MSVC\14.29.30133\atlmfc\include\afxcoll.inl

; 204  : 			AfxThrowInvalidArgException();

  0003a	e8 00 00 00 00	 call	 ?AfxThrowInvalidArgException@@YGXXZ ; AfxThrowInvalidArgException
$LN23@SetItemIma:
  0003f	cc		 int	 3
?SetItemImage@CGfxOutBarCtrl@@QAEXHH@Z ENDP		; CGfxOutBarCtrl::SetItemImage
_TEXT	ENDS
; Function compile flags: /Ogtp
; File D:\git\src\IBK\IBK_DRFN\ProjSrc\SrcDrfn\Chart\MULTICHART\control\GfxOutBarCtrl.cpp
; File C:\Program Files (x86)\Microsoft Visual Studio\2019\Community\VC\Tools\MSVC\14.29.30133\atlmfc\include\atltypes.h
; File D:\git\src\IBK\IBK_DRFN\ProjSrc\SrcDrfn\Chart\MULTICHART\control\GfxOutBarCtrl.cpp
; File C:\Program Files (x86)\Microsoft Visual Studio\2019\Community\VC\Tools\MSVC\14.29.30133\atlmfc\include\afxwin2.inl
; File D:\git\src\IBK\IBK_DRFN\ProjSrc\SrcDrfn\Chart\MULTICHART\control\GfxOutBarCtrl.cpp
;	COMDAT ?DrawDragArrow@CGfxOutBarCtrl@@QAEXPAVCDC@@HH@Z
_TEXT	SEGMENT
$T1 = -28						; size = 8
$T2 = -28						; size = 8
$T3 = -28						; size = 8
$T4 = -28						; size = 8
$T5 = -28						; size = 8
$T6 = -28						; size = 8
$T7 = -28						; size = 8
$T8 = -28						; size = 8
$T9 = -28						; size = 8
$T10 = -28						; size = 8
$T11 = -28						; size = 8
$T12 = -28						; size = 8
$T13 = -28						; size = 8
$T14 = -28						; size = 8
$T15 = -28						; size = 8
$T16 = -28						; size = 8
_rc1$ = -20						; size = 16
__$ArrayPad$ = -4					; size = 4
_pDC$ = 8						; size = 4
_iFrom$ = 12						; size = 4
_iTo$ = 16						; size = 4
?DrawDragArrow@CGfxOutBarCtrl@@QAEXPAVCDC@@HH@Z PROC	; CGfxOutBarCtrl::DrawDragArrow, COMDAT
; _this$ = ecx

; 2191 : {

  00000	55		 push	 ebp
  00001	8b ec		 mov	 ebp, esp
  00003	83 ec 1c	 sub	 esp, 28			; 0000001cH
  00006	a1 00 00 00 00	 mov	 eax, DWORD PTR ___security_cookie
  0000b	33 c5		 xor	 eax, ebp
  0000d	89 45 fc	 mov	 DWORD PTR __$ArrayPad$[ebp], eax
  00010	53		 push	 ebx

; 2192 : 	if (iTo == iLastDragItemDraw) return;

  00011	8b 5d 10	 mov	 ebx, DWORD PTR _iTo$[ebp]
  00014	56		 push	 esi
  00015	8b f1		 mov	 esi, ecx
  00017	57		 push	 edi
  00018	8b 7d 08	 mov	 edi, DWORD PTR _pDC$[ebp]
  0001b	8b 86 2c 01 00
	00		 mov	 eax, DWORD PTR [esi+300]
  00021	3b d8		 cmp	 ebx, eax
  00023	0f 84 45 03 00
	00		 je	 $LN9@DrawDragAr
  00029	0f 57 c0	 xorps	 xmm0, xmm0
; File C:\Program Files (x86)\Microsoft Visual Studio\2019\Community\VC\Tools\MSVC\14.29.30133\atlmfc\include\atltypes.h

; 528  : 	left = 0;

  0002c	0f 11 45 ec	 movups	 XMMWORD PTR _rc1$[ebp], xmm0
; File D:\git\src\IBK\IBK_DRFN\ProjSrc\SrcDrfn\Chart\MULTICHART\control\GfxOutBarCtrl.cpp

; 2194 : 	if (iLastDragItemDraw >= 0)

  00030	85 c0		 test	 eax, eax
  00032	78 5a		 js	 SHORT $LN3@DrawDragAr

; 2195 : 	{
; 2196 : 		GetDragItemRect(iLastDragItemDraw, rc1);

  00034	8d 4d ec	 lea	 ecx, DWORD PTR _rc1$[ebp]
  00037	51		 push	 ecx
  00038	50		 push	 eax
  00039	8b ce		 mov	 ecx, esi
  0003b	e8 00 00 00 00	 call	 ?GetDragItemRect@CGfxOutBarCtrl@@QAEHHAAVCRect@@@Z ; CGfxOutBarCtrl::GetDragItemRect

; 2197 : 		if (iLastDragItemDrawType == 0) rc1.bottom = rc1.top + 5;

  00040	8b 86 30 01 00
	00		 mov	 eax, DWORD PTR [esi+304]
  00046	85 c0		 test	 eax, eax
  00048	75 05		 jne	 SHORT $LN4@DrawDragAr
  0004a	8b 45 f0	 mov	 eax, DWORD PTR _rc1$[ebp+4]
  0004d	eb 21		 jmp	 SHORT $LN19@DrawDragAr
$LN4@DrawDragAr:

; 2198 : 		else if (iLastDragItemDrawType == 1) { rc1.top -= 4; rc1.bottom = rc1.top + 9; }

  0004f	83 f8 01	 cmp	 eax, 1
  00052	75 0e		 jne	 SHORT $LN6@DrawDragAr
  00054	8b 45 f0	 mov	 eax, DWORD PTR _rc1$[ebp+4]
  00057	83 e8 04	 sub	 eax, 4
  0005a	89 45 f0	 mov	 DWORD PTR _rc1$[ebp+4], eax
  0005d	83 c0 09	 add	 eax, 9
  00060	eb 11		 jmp	 SHORT $LN20@DrawDragAr
$LN6@DrawDragAr:

; 2199 : 		else if (iLastDragItemDrawType == 2) { rc1.top -= 4; rc1.bottom = rc1.top + 5; }

  00062	83 f8 02	 cmp	 eax, 2
  00065	75 0f		 jne	 SHORT $LN8@DrawDragAr
  00067	8b 45 f0	 mov	 eax, DWORD PTR _rc1$[ebp+4]
  0006a	83 e8 04	 sub	 eax, 4
  0006d	89 45 f0	 mov	 DWORD PTR _rc1$[ebp+4], eax
$LN19@DrawDragAr:
; File C:\Program Files (x86)\Microsoft Visual Studio\2019\Community\VC\Tools\MSVC\14.29.30133\atlmfc\include\afxwin2.inl

; 116  : 	{ ASSERT(::IsWindow(m_hWnd)); ::InvalidateRect(m_hWnd, lpRect, bErase); }

  00070	83 c0 05	 add	 eax, 5
$LN20@DrawDragAr:
  00073	89 45 f8	 mov	 DWORD PTR _rc1$[ebp+12], eax
$LN8@DrawDragAr:
  00076	6a 01		 push	 1
  00078	8d 45 ec	 lea	 eax, DWORD PTR _rc1$[ebp]
  0007b	50		 push	 eax
  0007c	ff 76 20	 push	 DWORD PTR [esi+32]
  0007f	ff 15 00 00 00
	00		 call	 DWORD PTR __imp__InvalidateRect@12

; 106  : 	{ ASSERT(::IsWindow(m_hWnd)); ::UpdateWindow(m_hWnd); }

  00085	ff 76 20	 push	 DWORD PTR [esi+32]
  00088	ff 15 00 00 00
	00		 call	 DWORD PTR __imp__UpdateWindow@4
$LN3@DrawDragAr:
; File D:\git\src\IBK\IBK_DRFN\ProjSrc\SrcDrfn\Chart\MULTICHART\control\GfxOutBarCtrl.cpp

; 2203 : 	iLastDragItemDraw = iTo;

  0008e	89 9e 2c 01 00
	00		 mov	 DWORD PTR [esi+300], ebx

; 2204 : 
; 2205 : 	if (iLastDragItemDraw >= 0)

  00094	85 db		 test	 ebx, ebx
  00096	0f 88 d2 02 00
	00		 js	 $LN9@DrawDragAr

; 2206 : 	{
; 2207 : 		iLastDragItemDrawType = GetDragItemRect(iLastDragItemDraw, rc1);

  0009c	8d 45 ec	 lea	 eax, DWORD PTR _rc1$[ebp]
  0009f	8b ce		 mov	 ecx, esi
  000a1	50		 push	 eax
  000a2	53		 push	 ebx
  000a3	e8 00 00 00 00	 call	 ?GetDragItemRect@CGfxOutBarCtrl@@QAEHHAAVCRect@@@Z ; CGfxOutBarCtrl::GetDragItemRect

; 2208 : 
; 2209 : 		CPen * op = pDC->SelectObject(pBlackPen);

  000a8	ff b6 4c 01 00
	00		 push	 DWORD PTR [esi+332]
  000ae	8b cf		 mov	 ecx, edi
  000b0	89 86 30 01 00
	00		 mov	 DWORD PTR [esi+304], eax
  000b6	e8 00 00 00 00	 call	 ?SelectObject@CDC@@QAEPAVCPen@@PAV2@@Z ; CDC::SelectObject

; 2210 : 
; 2211 : 		pDC->MoveTo(rc1.left, rc1.top);

  000bb	ff 75 f0	 push	 DWORD PTR _rc1$[ebp+4]
  000be	8b d8		 mov	 ebx, eax
  000c0	8b cf		 mov	 ecx, edi
  000c2	ff 75 ec	 push	 DWORD PTR _rc1$[ebp]
  000c5	8d 45 e4	 lea	 eax, DWORD PTR $T16[ebp]
  000c8	50		 push	 eax
  000c9	e8 00 00 00 00	 call	 ?MoveTo@CDC@@QAE?AVCPoint@@HH@Z ; CDC::MoveTo

; 2212 : 		pDC->LineTo(rc1.right, rc1.top);

  000ce	ff 75 f0	 push	 DWORD PTR _rc1$[ebp+4]
  000d1	8b cf		 mov	 ecx, edi
  000d3	ff 75 f4	 push	 DWORD PTR _rc1$[ebp+8]
  000d6	e8 00 00 00 00	 call	 ?LineTo@CDC@@QAEHHH@Z	; CDC::LineTo

; 2213 : 
; 2214 : 		if (iLastDragItemDrawType != 2)

  000db	8b 86 30 01 00
	00		 mov	 eax, DWORD PTR [esi+304]
  000e1	83 f8 02	 cmp	 eax, 2
  000e4	0f 84 28 01 00
	00		 je	 $LN10@DrawDragAr

; 2215 : 		{
; 2216 : 			pDC->MoveTo(rc1.left, rc1.top+1);

  000ea	8b 45 f0	 mov	 eax, DWORD PTR _rc1$[ebp+4]
  000ed	8b cf		 mov	 ecx, edi
  000ef	40		 inc	 eax
  000f0	50		 push	 eax
  000f1	ff 75 ec	 push	 DWORD PTR _rc1$[ebp]
  000f4	8d 45 e4	 lea	 eax, DWORD PTR $T15[ebp]
  000f7	50		 push	 eax
  000f8	e8 00 00 00 00	 call	 ?MoveTo@CDC@@QAE?AVCPoint@@HH@Z ; CDC::MoveTo

; 2217 : 			pDC->LineTo(rc1.left + 7, rc1.top+1);

  000fd	8b 45 f0	 mov	 eax, DWORD PTR _rc1$[ebp+4]
  00100	8b cf		 mov	 ecx, edi
  00102	40		 inc	 eax
  00103	50		 push	 eax
  00104	8b 45 ec	 mov	 eax, DWORD PTR _rc1$[ebp]
  00107	83 c0 07	 add	 eax, 7
  0010a	50		 push	 eax
  0010b	e8 00 00 00 00	 call	 ?LineTo@CDC@@QAEHHH@Z	; CDC::LineTo

; 2218 : 			pDC->MoveTo(rc1.left, rc1.top+2);

  00110	8b 45 f0	 mov	 eax, DWORD PTR _rc1$[ebp+4]
  00113	8b cf		 mov	 ecx, edi
  00115	83 c0 02	 add	 eax, 2
  00118	50		 push	 eax
  00119	ff 75 ec	 push	 DWORD PTR _rc1$[ebp]
  0011c	8d 45 e4	 lea	 eax, DWORD PTR $T14[ebp]
  0011f	50		 push	 eax
  00120	e8 00 00 00 00	 call	 ?MoveTo@CDC@@QAE?AVCPoint@@HH@Z ; CDC::MoveTo

; 2219 : 			pDC->LineTo(rc1.left + 5, rc1.top+2);

  00125	8b 45 f0	 mov	 eax, DWORD PTR _rc1$[ebp+4]
  00128	8b cf		 mov	 ecx, edi
  0012a	83 c0 02	 add	 eax, 2
  0012d	50		 push	 eax
  0012e	8b 45 ec	 mov	 eax, DWORD PTR _rc1$[ebp]
  00131	83 c0 05	 add	 eax, 5
  00134	50		 push	 eax
  00135	e8 00 00 00 00	 call	 ?LineTo@CDC@@QAEHHH@Z	; CDC::LineTo

; 2220 : 			pDC->MoveTo(rc1.left, rc1.top+3);

  0013a	8b 45 f0	 mov	 eax, DWORD PTR _rc1$[ebp+4]
  0013d	8b cf		 mov	 ecx, edi
  0013f	83 c0 03	 add	 eax, 3
  00142	50		 push	 eax
  00143	ff 75 ec	 push	 DWORD PTR _rc1$[ebp]
  00146	8d 45 e4	 lea	 eax, DWORD PTR $T13[ebp]
  00149	50		 push	 eax
  0014a	e8 00 00 00 00	 call	 ?MoveTo@CDC@@QAE?AVCPoint@@HH@Z ; CDC::MoveTo

; 2221 : 			pDC->LineTo(rc1.left + 3, rc1.top+3);

  0014f	8b 45 f0	 mov	 eax, DWORD PTR _rc1$[ebp+4]
  00152	8b cf		 mov	 ecx, edi
  00154	83 c0 03	 add	 eax, 3
  00157	50		 push	 eax
  00158	8b 45 ec	 mov	 eax, DWORD PTR _rc1$[ebp]
  0015b	83 c0 03	 add	 eax, 3
  0015e	50		 push	 eax
  0015f	e8 00 00 00 00	 call	 ?LineTo@CDC@@QAEHHH@Z	; CDC::LineTo

; 2222 : 			pDC->MoveTo(rc1.left, rc1.top+4);

  00164	8b 45 f0	 mov	 eax, DWORD PTR _rc1$[ebp+4]
  00167	8b cf		 mov	 ecx, edi
  00169	83 c0 04	 add	 eax, 4
  0016c	50		 push	 eax
  0016d	ff 75 ec	 push	 DWORD PTR _rc1$[ebp]
  00170	8d 45 e4	 lea	 eax, DWORD PTR $T12[ebp]
  00173	50		 push	 eax
  00174	e8 00 00 00 00	 call	 ?MoveTo@CDC@@QAE?AVCPoint@@HH@Z ; CDC::MoveTo

; 2223 : 			pDC->LineTo(rc1.left + 1, rc1.top+4);

  00179	8b 45 f0	 mov	 eax, DWORD PTR _rc1$[ebp+4]
  0017c	8b cf		 mov	 ecx, edi
  0017e	83 c0 04	 add	 eax, 4
  00181	50		 push	 eax
  00182	8b 45 ec	 mov	 eax, DWORD PTR _rc1$[ebp]
  00185	40		 inc	 eax
  00186	50		 push	 eax
  00187	e8 00 00 00 00	 call	 ?LineTo@CDC@@QAEHHH@Z	; CDC::LineTo

; 2224 : 
; 2225 : 			pDC->MoveTo(rc1.right-1, rc1.top+1);

  0018c	8b 45 f0	 mov	 eax, DWORD PTR _rc1$[ebp+4]
  0018f	8b cf		 mov	 ecx, edi
  00191	40		 inc	 eax
  00192	50		 push	 eax
  00193	8b 45 f4	 mov	 eax, DWORD PTR _rc1$[ebp+8]
  00196	48		 dec	 eax
  00197	50		 push	 eax
  00198	8d 45 e4	 lea	 eax, DWORD PTR $T11[ebp]
  0019b	50		 push	 eax
  0019c	e8 00 00 00 00	 call	 ?MoveTo@CDC@@QAE?AVCPoint@@HH@Z ; CDC::MoveTo

; 2226 : 			pDC->LineTo(rc1.right - 7, rc1.top+1);

  001a1	8b 45 f0	 mov	 eax, DWORD PTR _rc1$[ebp+4]
  001a4	8b cf		 mov	 ecx, edi
  001a6	40		 inc	 eax
  001a7	50		 push	 eax
  001a8	8b 45 f4	 mov	 eax, DWORD PTR _rc1$[ebp+8]
  001ab	83 c0 f9	 add	 eax, -7			; fffffff9H
  001ae	50		 push	 eax
  001af	e8 00 00 00 00	 call	 ?LineTo@CDC@@QAEHHH@Z	; CDC::LineTo

; 2227 : 			pDC->MoveTo(rc1.right-1, rc1.top+2);

  001b4	8b 45 f0	 mov	 eax, DWORD PTR _rc1$[ebp+4]
  001b7	8b cf		 mov	 ecx, edi
  001b9	83 c0 02	 add	 eax, 2
  001bc	50		 push	 eax
  001bd	8b 45 f4	 mov	 eax, DWORD PTR _rc1$[ebp+8]
  001c0	48		 dec	 eax
  001c1	50		 push	 eax
  001c2	8d 45 e4	 lea	 eax, DWORD PTR $T10[ebp]
  001c5	50		 push	 eax
  001c6	e8 00 00 00 00	 call	 ?MoveTo@CDC@@QAE?AVCPoint@@HH@Z ; CDC::MoveTo

; 2228 : 			pDC->LineTo(rc1.right - 5, rc1.top+2);

  001cb	8b 45 f0	 mov	 eax, DWORD PTR _rc1$[ebp+4]
  001ce	8b cf		 mov	 ecx, edi
  001d0	83 c0 02	 add	 eax, 2
  001d3	50		 push	 eax
  001d4	8b 45 f4	 mov	 eax, DWORD PTR _rc1$[ebp+8]
  001d7	83 c0 fb	 add	 eax, -5			; fffffffbH
  001da	50		 push	 eax
  001db	e8 00 00 00 00	 call	 ?LineTo@CDC@@QAEHHH@Z	; CDC::LineTo

; 2229 : 			pDC->MoveTo(rc1.right-1, rc1.top+3);

  001e0	8b 45 f0	 mov	 eax, DWORD PTR _rc1$[ebp+4]
  001e3	8b cf		 mov	 ecx, edi
  001e5	83 c0 03	 add	 eax, 3
  001e8	50		 push	 eax
  001e9	8b 45 f4	 mov	 eax, DWORD PTR _rc1$[ebp+8]
  001ec	48		 dec	 eax
  001ed	50		 push	 eax
  001ee	8d 45 e4	 lea	 eax, DWORD PTR $T9[ebp]
  001f1	50		 push	 eax
  001f2	e8 00 00 00 00	 call	 ?MoveTo@CDC@@QAE?AVCPoint@@HH@Z ; CDC::MoveTo

; 2230 : 			pDC->LineTo(rc1.right - 3, rc1.top+3);

  001f7	8b 45 f0	 mov	 eax, DWORD PTR _rc1$[ebp+4]
  001fa	8b cf		 mov	 ecx, edi
  001fc	83 c0 03	 add	 eax, 3
  001ff	50		 push	 eax
  00200	8b 45 f4	 mov	 eax, DWORD PTR _rc1$[ebp+8]
  00203	83 c0 fd	 add	 eax, -3			; fffffffdH
  00206	50		 push	 eax
  00207	e8 00 00 00 00	 call	 ?LineTo@CDC@@QAEHHH@Z	; CDC::LineTo
  0020c	8b 86 30 01 00
	00		 mov	 eax, DWORD PTR [esi+304]
$LN10@DrawDragAr:

; 2231 : 		}
; 2232 : 		if (iLastDragItemDrawType != 0)

  00212	85 c0		 test	 eax, eax
  00214	0f 84 4c 01 00
	00		 je	 $LN11@DrawDragAr

; 2233 : 		{
; 2234 : 			pDC->MoveTo(rc1.left, rc1.top-1);

  0021a	8b 45 f0	 mov	 eax, DWORD PTR _rc1$[ebp+4]
  0021d	8b cf		 mov	 ecx, edi
  0021f	48		 dec	 eax
  00220	50		 push	 eax
  00221	ff 75 ec	 push	 DWORD PTR _rc1$[ebp]
  00224	8d 45 e4	 lea	 eax, DWORD PTR $T8[ebp]
  00227	50		 push	 eax
  00228	e8 00 00 00 00	 call	 ?MoveTo@CDC@@QAE?AVCPoint@@HH@Z ; CDC::MoveTo

; 2235 : 			pDC->LineTo(rc1.left + 7, rc1.top-1);

  0022d	8b 45 f0	 mov	 eax, DWORD PTR _rc1$[ebp+4]
  00230	8b cf		 mov	 ecx, edi
  00232	48		 dec	 eax
  00233	50		 push	 eax
  00234	8b 45 ec	 mov	 eax, DWORD PTR _rc1$[ebp]
  00237	83 c0 07	 add	 eax, 7
  0023a	50		 push	 eax
  0023b	e8 00 00 00 00	 call	 ?LineTo@CDC@@QAEHHH@Z	; CDC::LineTo

; 2236 : 			pDC->MoveTo(rc1.left, rc1.top-2);

  00240	8b 45 f0	 mov	 eax, DWORD PTR _rc1$[ebp+4]
  00243	8b cf		 mov	 ecx, edi
  00245	83 c0 fe	 add	 eax, -2			; fffffffeH
  00248	50		 push	 eax
  00249	ff 75 ec	 push	 DWORD PTR _rc1$[ebp]
  0024c	8d 45 e4	 lea	 eax, DWORD PTR $T7[ebp]
  0024f	50		 push	 eax
  00250	e8 00 00 00 00	 call	 ?MoveTo@CDC@@QAE?AVCPoint@@HH@Z ; CDC::MoveTo

; 2237 : 			pDC->LineTo(rc1.left + 5, rc1.top-2);

  00255	8b 45 f0	 mov	 eax, DWORD PTR _rc1$[ebp+4]
  00258	8b cf		 mov	 ecx, edi
  0025a	83 c0 fe	 add	 eax, -2			; fffffffeH
  0025d	50		 push	 eax
  0025e	8b 45 ec	 mov	 eax, DWORD PTR _rc1$[ebp]
  00261	83 c0 05	 add	 eax, 5
  00264	50		 push	 eax
  00265	e8 00 00 00 00	 call	 ?LineTo@CDC@@QAEHHH@Z	; CDC::LineTo

; 2238 : 			pDC->MoveTo(rc1.left, rc1.top-3);

  0026a	8b 45 f0	 mov	 eax, DWORD PTR _rc1$[ebp+4]
  0026d	8b cf		 mov	 ecx, edi
  0026f	83 c0 fd	 add	 eax, -3			; fffffffdH
  00272	50		 push	 eax
  00273	ff 75 ec	 push	 DWORD PTR _rc1$[ebp]
  00276	8d 45 e4	 lea	 eax, DWORD PTR $T6[ebp]
  00279	50		 push	 eax
  0027a	e8 00 00 00 00	 call	 ?MoveTo@CDC@@QAE?AVCPoint@@HH@Z ; CDC::MoveTo

; 2239 : 			pDC->LineTo(rc1.left + 3, rc1.top-3);

  0027f	8b 45 f0	 mov	 eax, DWORD PTR _rc1$[ebp+4]
  00282	8b cf		 mov	 ecx, edi
  00284	83 c0 fd	 add	 eax, -3			; fffffffdH
  00287	50		 push	 eax
  00288	8b 45 ec	 mov	 eax, DWORD PTR _rc1$[ebp]
  0028b	83 c0 03	 add	 eax, 3
  0028e	50		 push	 eax
  0028f	e8 00 00 00 00	 call	 ?LineTo@CDC@@QAEHHH@Z	; CDC::LineTo

; 2240 : 			pDC->MoveTo(rc1.left, rc1.top-4);

  00294	8b 45 f0	 mov	 eax, DWORD PTR _rc1$[ebp+4]
  00297	8b cf		 mov	 ecx, edi
  00299	83 c0 fc	 add	 eax, -4			; fffffffcH
  0029c	50		 push	 eax
  0029d	ff 75 ec	 push	 DWORD PTR _rc1$[ebp]
  002a0	8d 45 e4	 lea	 eax, DWORD PTR $T5[ebp]
  002a3	50		 push	 eax
  002a4	e8 00 00 00 00	 call	 ?MoveTo@CDC@@QAE?AVCPoint@@HH@Z ; CDC::MoveTo

; 2241 : 			pDC->LineTo(rc1.left + 1, rc1.top-4);

  002a9	8b 45 f0	 mov	 eax, DWORD PTR _rc1$[ebp+4]
  002ac	8b cf		 mov	 ecx, edi
  002ae	83 c0 fc	 add	 eax, -4			; fffffffcH
  002b1	50		 push	 eax
  002b2	8b 45 ec	 mov	 eax, DWORD PTR _rc1$[ebp]
  002b5	40		 inc	 eax
  002b6	50		 push	 eax
  002b7	e8 00 00 00 00	 call	 ?LineTo@CDC@@QAEHHH@Z	; CDC::LineTo

; 2242 : 
; 2243 : 			pDC->MoveTo(rc1.right-1, rc1.top-1);

  002bc	8b 45 f0	 mov	 eax, DWORD PTR _rc1$[ebp+4]
  002bf	8b cf		 mov	 ecx, edi
  002c1	48		 dec	 eax
  002c2	50		 push	 eax
  002c3	8b 45 f4	 mov	 eax, DWORD PTR _rc1$[ebp+8]
  002c6	48		 dec	 eax
  002c7	50		 push	 eax
  002c8	8d 45 e4	 lea	 eax, DWORD PTR $T4[ebp]
  002cb	50		 push	 eax
  002cc	e8 00 00 00 00	 call	 ?MoveTo@CDC@@QAE?AVCPoint@@HH@Z ; CDC::MoveTo

; 2244 : 			pDC->LineTo(rc1.right - 7, rc1.top-1);

  002d1	8b 45 f0	 mov	 eax, DWORD PTR _rc1$[ebp+4]
  002d4	8b cf		 mov	 ecx, edi
  002d6	48		 dec	 eax
  002d7	50		 push	 eax
  002d8	8b 45 f4	 mov	 eax, DWORD PTR _rc1$[ebp+8]
  002db	83 c0 f9	 add	 eax, -7			; fffffff9H
  002de	50		 push	 eax
  002df	e8 00 00 00 00	 call	 ?LineTo@CDC@@QAEHHH@Z	; CDC::LineTo

; 2245 : 			pDC->MoveTo(rc1.right-1, rc1.top-2);

  002e4	8b 45 f0	 mov	 eax, DWORD PTR _rc1$[ebp+4]
  002e7	8b cf		 mov	 ecx, edi
  002e9	83 c0 fe	 add	 eax, -2			; fffffffeH
  002ec	50		 push	 eax
  002ed	8b 45 f4	 mov	 eax, DWORD PTR _rc1$[ebp+8]
  002f0	48		 dec	 eax
  002f1	50		 push	 eax
  002f2	8d 45 e4	 lea	 eax, DWORD PTR $T3[ebp]
  002f5	50		 push	 eax
  002f6	e8 00 00 00 00	 call	 ?MoveTo@CDC@@QAE?AVCPoint@@HH@Z ; CDC::MoveTo

; 2246 : 			pDC->LineTo(rc1.right - 5, rc1.top-2);

  002fb	8b 45 f0	 mov	 eax, DWORD PTR _rc1$[ebp+4]
  002fe	8b cf		 mov	 ecx, edi
  00300	83 c0 fe	 add	 eax, -2			; fffffffeH
  00303	50		 push	 eax
  00304	8b 45 f4	 mov	 eax, DWORD PTR _rc1$[ebp+8]
  00307	83 c0 fb	 add	 eax, -5			; fffffffbH
  0030a	50		 push	 eax
  0030b	e8 00 00 00 00	 call	 ?LineTo@CDC@@QAEHHH@Z	; CDC::LineTo

; 2247 : 			pDC->MoveTo(rc1.right-1, rc1.top-3);

  00310	8b 45 f0	 mov	 eax, DWORD PTR _rc1$[ebp+4]
  00313	8b cf		 mov	 ecx, edi
  00315	83 c0 fd	 add	 eax, -3			; fffffffdH
  00318	50		 push	 eax
  00319	8b 45 f4	 mov	 eax, DWORD PTR _rc1$[ebp+8]
  0031c	48		 dec	 eax
  0031d	50		 push	 eax
  0031e	8d 45 e4	 lea	 eax, DWORD PTR $T2[ebp]
  00321	50		 push	 eax
  00322	e8 00 00 00 00	 call	 ?MoveTo@CDC@@QAE?AVCPoint@@HH@Z ; CDC::MoveTo

; 2248 : 			pDC->LineTo(rc1.right - 3, rc1.top-3);

  00327	8b 45 f0	 mov	 eax, DWORD PTR _rc1$[ebp+4]
  0032a	8b cf		 mov	 ecx, edi
  0032c	83 c0 fd	 add	 eax, -3			; fffffffdH
  0032f	50		 push	 eax
  00330	8b 45 f4	 mov	 eax, DWORD PTR _rc1$[ebp+8]
  00333	83 c0 fd	 add	 eax, -3			; fffffffdH
  00336	50		 push	 eax
  00337	e8 00 00 00 00	 call	 ?LineTo@CDC@@QAEHHH@Z	; CDC::LineTo

; 2249 : 			pDC->MoveTo(rc1.right-1, rc1.top-4);

  0033c	8b 45 f0	 mov	 eax, DWORD PTR _rc1$[ebp+4]
  0033f	8b cf		 mov	 ecx, edi
  00341	83 c0 fc	 add	 eax, -4			; fffffffcH
  00344	50		 push	 eax
  00345	8b 45 f4	 mov	 eax, DWORD PTR _rc1$[ebp+8]
  00348	48		 dec	 eax
  00349	50		 push	 eax
  0034a	8d 45 e4	 lea	 eax, DWORD PTR $T1[ebp]
  0034d	50		 push	 eax
  0034e	e8 00 00 00 00	 call	 ?MoveTo@CDC@@QAE?AVCPoint@@HH@Z ; CDC::MoveTo

; 2250 : 			pDC->LineTo(rc1.right - 1, rc1.top-4);

  00353	8b 45 f0	 mov	 eax, DWORD PTR _rc1$[ebp+4]
  00356	8b cf		 mov	 ecx, edi
  00358	83 c0 fc	 add	 eax, -4			; fffffffcH
  0035b	50		 push	 eax
  0035c	8b 45 f4	 mov	 eax, DWORD PTR _rc1$[ebp+8]
  0035f	48		 dec	 eax
  00360	50		 push	 eax
  00361	e8 00 00 00 00	 call	 ?LineTo@CDC@@QAEHHH@Z	; CDC::LineTo
$LN11@DrawDragAr:

; 2251 : 		}
; 2252 : 
; 2253 : 		pDC->SelectObject(op);

  00366	53		 push	 ebx
  00367	8b cf		 mov	 ecx, edi
  00369	e8 00 00 00 00	 call	 ?SelectObject@CDC@@QAEPAVCPen@@PAV2@@Z ; CDC::SelectObject
$LN9@DrawDragAr:

; 2254 : 	}
; 2255 : }

  0036e	8b 4d fc	 mov	 ecx, DWORD PTR __$ArrayPad$[ebp]
  00371	5f		 pop	 edi
  00372	5e		 pop	 esi
  00373	33 cd		 xor	 ecx, ebp
  00375	5b		 pop	 ebx
  00376	e8 00 00 00 00	 call	 @__security_check_cookie@4
  0037b	8b e5		 mov	 esp, ebp
  0037d	5d		 pop	 ebp
  0037e	c2 0c 00	 ret	 12			; 0000000cH
?DrawDragArrow@CGfxOutBarCtrl@@QAEXPAVCDC@@HH@Z ENDP	; CGfxOutBarCtrl::DrawDragArrow
_TEXT	ENDS
; Function compile flags: /Ogtp
; File D:\git\src\IBK\IBK_DRFN\ProjSrc\SrcDrfn\Chart\MULTICHART\control\GfxOutBarCtrl.cpp
; File C:\Program Files (x86)\Microsoft Visual Studio\2019\Community\VC\Tools\MSVC\14.29.30133\atlmfc\include\atltypes.h
; File D:\git\src\IBK\IBK_DRFN\ProjSrc\SrcDrfn\Chart\MULTICHART\control\GfxOutBarCtrl.cpp
; File C:\Program Files (x86)\Microsoft Visual Studio\2019\Community\VC\Tools\MSVC\14.29.30133\atlmfc\include\atltypes.h
; File D:\git\src\IBK\IBK_DRFN\ProjSrc\SrcDrfn\Chart\MULTICHART\control\GfxOutBarCtrl.cpp
; File C:\Program Files (x86)\Microsoft Visual Studio\2019\Community\VC\Tools\MSVC\14.29.30133\atlmfc\include\afxcoll.inl
; File D:\git\src\IBK\IBK_DRFN\ProjSrc\SrcDrfn\Chart\MULTICHART\control\GfxOutBarCtrl.cpp
; File C:\Program Files (x86)\Microsoft Visual Studio\2019\Community\VC\Tools\MSVC\14.29.30133\atlmfc\include\afxcoll.inl
; File D:\git\src\IBK\IBK_DRFN\ProjSrc\SrcDrfn\Chart\MULTICHART\control\GfxOutBarCtrl.cpp
; File C:\Program Files (x86)\Microsoft Visual Studio\2019\Community\VC\Tools\MSVC\14.29.30133\atlmfc\include\atltypes.h
; File D:\git\src\IBK\IBK_DRFN\ProjSrc\SrcDrfn\Chart\MULTICHART\control\GfxOutBarCtrl.cpp
; File C:\Program Files (x86)\Microsoft Visual Studio\2019\Community\VC\Tools\MSVC\14.29.30133\atlmfc\include\atltypes.h
; File D:\git\src\IBK\IBK_DRFN\ProjSrc\SrcDrfn\Chart\MULTICHART\control\GfxOutBarCtrl.cpp
; File C:\Program Files (x86)\Microsoft Visual Studio\2019\Community\VC\Tools\MSVC\14.29.30133\atlmfc\include\atltypes.h
; File D:\git\src\IBK\IBK_DRFN\ProjSrc\SrcDrfn\Chart\MULTICHART\control\GfxOutBarCtrl.cpp
; File C:\Program Files (x86)\Microsoft Visual Studio\2019\Community\VC\Tools\MSVC\14.29.30133\atlmfc\include\atltypes.h
; File D:\git\src\IBK\IBK_DRFN\ProjSrc\SrcDrfn\Chart\MULTICHART\control\GfxOutBarCtrl.cpp
; File C:\Program Files (x86)\Microsoft Visual Studio\2019\Community\VC\Tools\MSVC\14.29.30133\atlmfc\include\atltypes.h
; File D:\git\src\IBK\IBK_DRFN\ProjSrc\SrcDrfn\Chart\MULTICHART\control\GfxOutBarCtrl.cpp
; File C:\Program Files (x86)\Microsoft Visual Studio\2019\Community\VC\Tools\MSVC\14.29.30133\atlmfc\include\afxcoll.inl
; File D:\git\src\IBK\IBK_DRFN\ProjSrc\SrcDrfn\Chart\MULTICHART\control\GfxOutBarCtrl.cpp
;	COMDAT ?GetDragItemRect@CGfxOutBarCtrl@@QAEHHAAVCRect@@@Z
_TEXT	SEGMENT
_rc$ = -36						; size = 16
_crc$ = -20						; size = 16
__$ArrayPad$ = -4					; size = 4
_index$ = 8						; size = 4
_rect$ = 12						; size = 4
?GetDragItemRect@CGfxOutBarCtrl@@QAEHHAAVCRect@@@Z PROC	; CGfxOutBarCtrl::GetDragItemRect, COMDAT
; _this$ = ecx

; 2258 : {

  00000	55		 push	 ebp
  00001	8b ec		 mov	 ebp, esp
  00003	83 ec 24	 sub	 esp, 36			; 00000024H
  00006	a1 00 00 00 00	 mov	 eax, DWORD PTR ___security_cookie
  0000b	33 c5		 xor	 eax, ebp
  0000d	89 45 fc	 mov	 DWORD PTR __$ArrayPad$[ebp], eax
  00010	53		 push	 ebx
  00011	56		 push	 esi
  00012	8b 75 0c	 mov	 esi, DWORD PTR _rect$[ebp]

; 2260 : 	GetInsideRect(crc);

  00015	8d 45 ec	 lea	 eax, DWORD PTR _crc$[ebp]
  00018	57		 push	 edi
  00019	0f 57 c0	 xorps	 xmm0, xmm0
  0001c	8b f9		 mov	 edi, ecx
  0001e	50		 push	 eax
; File C:\Program Files (x86)\Microsoft Visual Studio\2019\Community\VC\Tools\MSVC\14.29.30133\atlmfc\include\atltypes.h

; 528  : 	left = 0;

  0001f	0f 11 45 dc	 movups	 XMMWORD PTR _rc$[ebp], xmm0
  00023	0f 11 45 ec	 movups	 XMMWORD PTR _crc$[ebp], xmm0
; File D:\git\src\IBK\IBK_DRFN\ProjSrc\SrcDrfn\Chart\MULTICHART\control\GfxOutBarCtrl.cpp

; 2260 : 	GetInsideRect(crc);

  00027	e8 00 00 00 00	 call	 ?GetInsideRect@CGfxOutBarCtrl@@QBEXAAVCRect@@@Z ; CGfxOutBarCtrl::GetInsideRect
; File C:\Program Files (x86)\Microsoft Visual Studio\2019\Community\VC\Tools\MSVC\14.29.30133\atlmfc\include\atltypes.h

; 686  : 	::InflateRect(this, x, y);

  0002c	6a 00		 push	 0
  0002e	6a fe		 push	 -2			; fffffffeH
  00030	8d 45 ec	 lea	 eax, DWORD PTR _crc$[ebp]
  00033	50		 push	 eax
  00034	ff 15 00 00 00
	00		 call	 DWORD PTR __imp__InflateRect@12
; File D:\git\src\IBK\IBK_DRFN\ProjSrc\SrcDrfn\Chart\MULTICHART\control\GfxOutBarCtrl.cpp

; 1502 : 	CBarFolder * pbf = (CBarFolder *) arFolder.GetAt(iSelFolder);

  0003a	8b 8f 34 01 00
	00		 mov	 ecx, DWORD PTR [edi+308]
; File C:\Program Files (x86)\Microsoft Visual Studio\2019\Community\VC\Tools\MSVC\14.29.30133\atlmfc\include\afxcoll.inl

; 203  : 		if( nIndex < 0 || nIndex >= m_nSize )

  00040	85 c9		 test	 ecx, ecx
  00042	0f 88 03 01 00
	00		 js	 $LN22@GetDragIte
  00048	3b 8f 0c 01 00
	00		 cmp	 ecx, DWORD PTR [edi+268]
  0004e	0f 8d f7 00 00
	00		 jge	 $LN22@GetDragIte
; File D:\git\src\IBK\IBK_DRFN\ProjSrc\SrcDrfn\Chart\MULTICHART\control\GfxOutBarCtrl.cpp

; 2263 : 	GetItemRect(iSelFolder, index < GetItemCount() ? index : index - 1, rc);

  00054	8b 5d 08	 mov	 ebx, DWORD PTR _index$[ebp]
  00057	8d 45 dc	 lea	 eax, DWORD PTR _rc$[ebp]
  0005a	50		 push	 eax
  0005b	8b 87 08 01 00
	00		 mov	 eax, DWORD PTR [edi+264]
  00061	8b 14 88	 mov	 edx, DWORD PTR [eax+ecx*4]
  00064	8d 4b ff	 lea	 ecx, DWORD PTR [ebx-1]
  00067	8b c3		 mov	 eax, ebx
  00069	3b 5a 1c	 cmp	 ebx, DWORD PTR [edx+28]
  0006c	0f 4d c1	 cmovge	 eax, ecx
  0006f	8b cf		 mov	 ecx, edi
  00071	50		 push	 eax
  00072	ff b7 34 01 00
	00		 push	 DWORD PTR [edi+308]
  00078	e8 00 00 00 00	 call	 ?GetItemRect@CGfxOutBarCtrl@@QAEXHHAAVCRect@@@Z ; CGfxOutBarCtrl::GetItemRect

; 1502 : 	CBarFolder * pbf = (CBarFolder *) arFolder.GetAt(iSelFolder);

  0007d	8b 8f 34 01 00
	00		 mov	 ecx, DWORD PTR [edi+308]
; File C:\Program Files (x86)\Microsoft Visual Studio\2019\Community\VC\Tools\MSVC\14.29.30133\atlmfc\include\afxcoll.inl

; 203  : 		if( nIndex < 0 || nIndex >= m_nSize )

  00083	85 c9		 test	 ecx, ecx
  00085	0f 88 c0 00 00
	00		 js	 $LN22@GetDragIte
  0008b	3b 8f 0c 01 00
	00		 cmp	 ecx, DWORD PTR [edi+268]
  00091	0f 8d b4 00 00
	00		 jge	 $LN22@GetDragIte
; File D:\git\src\IBK\IBK_DRFN\ProjSrc\SrcDrfn\Chart\MULTICHART\control\GfxOutBarCtrl.cpp

; 2265 : 	if (index < GetItemCount())

  00097	8b 87 08 01 00
	00		 mov	 eax, DWORD PTR [edi+264]
  0009d	8b 04 88	 mov	 eax, DWORD PTR [eax+ecx*4]
  000a0	8b 50 1c	 mov	 edx, DWORD PTR [eax+28]
  000a3	3b da		 cmp	 ebx, edx
  000a5	7d 08		 jge	 SHORT $LN2@GetDragIte

; 2266 : 	{
; 2267 : 		line = rc.top - 4;

  000a7	8b 4d e0	 mov	 ecx, DWORD PTR _rc$[ebp+4]
  000aa	83 c1 fc	 add	 ecx, -4			; fffffffcH

; 2268 : 	}

  000ad	eb 06		 jmp	 SHORT $LN3@GetDragIte
$LN2@GetDragIte:

; 2269 : 	else
; 2270 : 	{
; 2271 : 		line = rc.bottom + 6;

  000af	8b 4d e8	 mov	 ecx, DWORD PTR _rc$[ebp+12]
  000b2	83 c1 06	 add	 ecx, 6
$LN3@GetDragIte:

; 2272 : 	}
; 2273 : 	int tpe;
; 2274 : 	if (index == 0)

  000b5	85 db		 test	 ebx, ebx
  000b7	75 2a		 jne	 SHORT $LN49@GetDragIte

; 2276 : 		rect.SetRect(crc.left, line+2, crc.right, line + 7);

  000b9	8d 41 07	 lea	 eax, DWORD PTR [ecx+7]
; File C:\Program Files (x86)\Microsoft Visual Studio\2019\Community\VC\Tools\MSVC\14.29.30133\atlmfc\include\atltypes.h

; 657  : 	::SetRect(this, x1, y1, x2, y2);

  000bc	50		 push	 eax
  000bd	ff 75 f4	 push	 DWORD PTR _crc$[ebp+8]
; File D:\git\src\IBK\IBK_DRFN\ProjSrc\SrcDrfn\Chart\MULTICHART\control\GfxOutBarCtrl.cpp

; 2276 : 		rect.SetRect(crc.left, line+2, crc.right, line + 7);

  000c0	8d 41 02	 lea	 eax, DWORD PTR [ecx+2]
; File C:\Program Files (x86)\Microsoft Visual Studio\2019\Community\VC\Tools\MSVC\14.29.30133\atlmfc\include\atltypes.h

; 657  : 	::SetRect(this, x1, y1, x2, y2);

  000c3	50		 push	 eax
  000c4	ff 75 ec	 push	 DWORD PTR _crc$[ebp]
  000c7	56		 push	 esi
  000c8	ff 15 00 00 00
	00		 call	 DWORD PTR __imp__SetRect@20
; File D:\git\src\IBK\IBK_DRFN\ProjSrc\SrcDrfn\Chart\MULTICHART\control\GfxOutBarCtrl.cpp

; 2294 : 	return tpe;

  000ce	5f		 pop	 edi
  000cf	5e		 pop	 esi
  000d0	33 c0		 xor	 eax, eax
  000d2	5b		 pop	 ebx

; 2295 : }

  000d3	8b 4d fc	 mov	 ecx, DWORD PTR __$ArrayPad$[ebp]
  000d6	33 cd		 xor	 ecx, ebp
  000d8	e8 00 00 00 00	 call	 @__security_check_cookie@4
  000dd	8b e5		 mov	 esp, ebp
  000df	5d		 pop	 ebp
  000e0	c2 08 00	 ret	 8
$LN49@GetDragIte:

; 2277 : 		tpe = 0;
; 2278 : 	}
; 2279 : 	else if (index < GetItemCount())

  000e3	3b da		 cmp	 ebx, edx
  000e5	7d 3a		 jge	 SHORT $LN6@GetDragIte
; File C:\Program Files (x86)\Microsoft Visual Studio\2019\Community\VC\Tools\MSVC\14.29.30133\atlmfc\include\atltypes.h

; 657  : 	::SetRect(this, x1, y1, x2, y2);

  000e7	51		 push	 ecx
  000e8	ff 75 f4	 push	 DWORD PTR _crc$[ebp+8]
; File D:\git\src\IBK\IBK_DRFN\ProjSrc\SrcDrfn\Chart\MULTICHART\control\GfxOutBarCtrl.cpp

; 2281 : 		rect.SetRect(crc.left, line - 9, crc.right, line);

  000eb	8d 41 f7	 lea	 eax, DWORD PTR [ecx-9]
; File C:\Program Files (x86)\Microsoft Visual Studio\2019\Community\VC\Tools\MSVC\14.29.30133\atlmfc\include\atltypes.h

; 657  : 	::SetRect(this, x1, y1, x2, y2);

  000ee	50		 push	 eax
  000ef	ff 75 ec	 push	 DWORD PTR _crc$[ebp]
  000f2	56		 push	 esi
  000f3	ff 15 00 00 00
	00		 call	 DWORD PTR __imp__SetRect@20
; File D:\git\src\IBK\IBK_DRFN\ProjSrc\SrcDrfn\Chart\MULTICHART\control\GfxOutBarCtrl.cpp

; 2282 : 		tpe = 1;

  000f9	b8 01 00 00 00	 mov	 eax, 1

; 186  : 	return dwFlags&fSmallIcon;

  000fe	84 87 00 01 00
	00		 test	 BYTE PTR [edi+256], al

; 2283 : 		if (IsSmallIconView()) 

  00104	74 32		 je	 SHORT $LN7@GetDragIte

; 2284 : 		{
; 2285 : 			rect.top += 8;

  00106	83 46 04 08	 add	 DWORD PTR [esi+4], 8

; 2286 : 			rect.bottom += 8;

  0010a	83 46 0c 08	 add	 DWORD PTR [esi+12], 8

; 2294 : 	return tpe;

  0010e	5f		 pop	 edi
  0010f	5e		 pop	 esi
  00110	5b		 pop	 ebx

; 2295 : }

  00111	8b 4d fc	 mov	 ecx, DWORD PTR __$ArrayPad$[ebp]
  00114	33 cd		 xor	 ecx, ebp
  00116	e8 00 00 00 00	 call	 @__security_check_cookie@4
  0011b	8b e5		 mov	 esp, ebp
  0011d	5d		 pop	 ebp
  0011e	c2 08 00	 ret	 8
$LN6@GetDragIte:

; 2287 : 		}
; 2288 : 	}
; 2289 : 	else
; 2290 : 	{
; 2291 : 		rect.SetRect(crc.left, line, crc.right, line + 5);

  00121	8d 41 05	 lea	 eax, DWORD PTR [ecx+5]
; File C:\Program Files (x86)\Microsoft Visual Studio\2019\Community\VC\Tools\MSVC\14.29.30133\atlmfc\include\atltypes.h

; 657  : 	::SetRect(this, x1, y1, x2, y2);

  00124	50		 push	 eax
  00125	ff 75 f4	 push	 DWORD PTR _crc$[ebp+8]
  00128	51		 push	 ecx
  00129	ff 75 ec	 push	 DWORD PTR _crc$[ebp]
  0012c	56		 push	 esi
  0012d	ff 15 00 00 00
	00		 call	 DWORD PTR __imp__SetRect@20
; File D:\git\src\IBK\IBK_DRFN\ProjSrc\SrcDrfn\Chart\MULTICHART\control\GfxOutBarCtrl.cpp

; 2292 : 		tpe = 2;

  00133	b8 02 00 00 00	 mov	 eax, 2
$LN7@GetDragIte:

; 2295 : }

  00138	8b 4d fc	 mov	 ecx, DWORD PTR __$ArrayPad$[ebp]
  0013b	5f		 pop	 edi
  0013c	5e		 pop	 esi
  0013d	33 cd		 xor	 ecx, ebp
  0013f	5b		 pop	 ebx
  00140	e8 00 00 00 00	 call	 @__security_check_cookie@4
  00145	8b e5		 mov	 esp, ebp
  00147	5d		 pop	 ebp
  00148	c2 08 00	 ret	 8
$LN22@GetDragIte:
; File C:\Program Files (x86)\Microsoft Visual Studio\2019\Community\VC\Tools\MSVC\14.29.30133\atlmfc\include\afxcoll.inl

; 204  : 			AfxThrowInvalidArgException();

  0014b	e8 00 00 00 00	 call	 ?AfxThrowInvalidArgException@@YGXXZ ; AfxThrowInvalidArgException
$LN50@GetDragIte:
  00150	cc		 int	 3
?GetDragItemRect@CGfxOutBarCtrl@@QAEHHAAVCRect@@@Z ENDP	; CGfxOutBarCtrl::GetDragItemRect
_TEXT	ENDS
; Function compile flags: /Ogtp
; File D:\git\src\IBK\IBK_DRFN\ProjSrc\SrcDrfn\Chart\MULTICHART\control\GfxOutBarCtrl.cpp
; File C:\Program Files (x86)\Microsoft Visual Studio\2019\Community\VC\Tools\MSVC\14.29.30133\atlmfc\include\atltypes.h
; File D:\git\src\IBK\IBK_DRFN\ProjSrc\SrcDrfn\Chart\MULTICHART\control\GfxOutBarCtrl.cpp
; File C:\Program Files (x86)\Microsoft Visual Studio\2019\Community\VC\Tools\MSVC\14.29.30133\atlmfc\include\atltypes.h
; File D:\git\src\IBK\IBK_DRFN\ProjSrc\SrcDrfn\Chart\MULTICHART\control\GfxOutBarCtrl.cpp
; File C:\Program Files (x86)\Microsoft Visual Studio\2019\Community\VC\Tools\MSVC\14.29.30133\atlmfc\include\afxwin1.inl
; File D:\git\src\IBK\IBK_DRFN\ProjSrc\SrcDrfn\Chart\MULTICHART\control\GfxOutBarCtrl.cpp
; File C:\Program Files (x86)\Microsoft Visual Studio\2019\Community\VC\Tools\MSVC\14.29.30133\atlmfc\include\afxwin1.inl
; File D:\git\src\IBK\IBK_DRFN\ProjSrc\SrcDrfn\Chart\MULTICHART\control\GfxOutBarCtrl.cpp
; File C:\Program Files (x86)\Microsoft Visual Studio\2019\Community\VC\Tools\MSVC\14.29.30133\atlmfc\include\atltypes.h
; File D:\git\src\IBK\IBK_DRFN\ProjSrc\SrcDrfn\Chart\MULTICHART\control\GfxOutBarCtrl.cpp
; File C:\Program Files (x86)\Microsoft Visual Studio\2019\Community\VC\Tools\MSVC\14.29.30133\atlmfc\include\atltypes.h
; File C:\Program Files (x86)\Microsoft Visual Studio\2019\Community\VC\Tools\MSVC\14.29.30133\atlmfc\include\afxwin1.inl
; File D:\git\src\IBK\IBK_DRFN\ProjSrc\SrcDrfn\Chart\MULTICHART\control\GfxOutBarCtrl.cpp
; File C:\Program Files (x86)\Microsoft Visual Studio\2019\Community\VC\Tools\MSVC\14.29.30133\atlmfc\include\afxwin1.inl
; File D:\git\src\IBK\IBK_DRFN\ProjSrc\SrcDrfn\Chart\MULTICHART\control\GfxOutBarCtrl.cpp
; File C:\Program Files (x86)\Microsoft Visual Studio\2019\Community\VC\Tools\MSVC\14.29.30133\atlmfc\include\atltypes.h
; File D:\git\src\IBK\IBK_DRFN\ProjSrc\SrcDrfn\Chart\MULTICHART\control\GfxOutBarCtrl.cpp
; File C:\Program Files (x86)\Microsoft Visual Studio\2019\Community\VC\Tools\MSVC\14.29.30133\atlmfc\include\atltypes.h
; File C:\Program Files (x86)\Microsoft Visual Studio\2019\Community\VC\Tools\MSVC\14.29.30133\atlmfc\include\afxwin1.inl
; File D:\git\src\IBK\IBK_DRFN\ProjSrc\SrcDrfn\Chart\MULTICHART\control\GfxOutBarCtrl.cpp
; File C:\Program Files (x86)\Microsoft Visual Studio\2019\Community\VC\Tools\MSVC\14.29.30133\atlmfc\include\afxcoll.inl
; File D:\git\src\IBK\IBK_DRFN\ProjSrc\SrcDrfn\Chart\MULTICHART\control\GfxOutBarCtrl.cpp
; File C:\Program Files (x86)\Microsoft Visual Studio\2019\Community\VC\Tools\MSVC\14.29.30133\atlmfc\include\afxcoll.inl
; File D:\git\src\IBK\IBK_DRFN\ProjSrc\SrcDrfn\Chart\MULTICHART\control\GfxOutBarCtrl.cpp
; File C:\Program Files (x86)\Microsoft Visual Studio\2019\Community\VC\Tools\MSVC\14.29.30133\atlmfc\include\afxwin1.inl
; File D:\git\src\IBK\IBK_DRFN\ProjSrc\SrcDrfn\Chart\MULTICHART\control\GfxOutBarCtrl.cpp
; File C:\Program Files (x86)\Microsoft Visual Studio\2019\Community\VC\Tools\MSVC\14.29.30133\atlmfc\include\afxwin2.inl
; File D:\git\src\IBK\IBK_DRFN\ProjSrc\SrcDrfn\Chart\MULTICHART\control\GfxOutBarCtrl.cpp
; File C:\Program Files (x86)\Microsoft Visual Studio\2019\Community\VC\Tools\MSVC\14.29.30133\atlmfc\include\afxwin2.inl
; File D:\git\src\IBK\IBK_DRFN\ProjSrc\SrcDrfn\Chart\MULTICHART\control\GfxOutBarCtrl.cpp
; File C:\Program Files (x86)\Microsoft Visual Studio\2019\Community\VC\Tools\MSVC\14.29.30133\atlmfc\include\afxwin1.inl
; File C:\Program Files (x86)\Microsoft Visual Studio\2019\Community\VC\Tools\MSVC\14.29.30133\atlmfc\include\atltypes.h
; File D:\git\src\IBK\IBK_DRFN\ProjSrc\SrcDrfn\Chart\MULTICHART\control\GfxOutBarCtrl.cpp
; File C:\Program Files (x86)\Microsoft Visual Studio\2019\Community\VC\Tools\MSVC\14.29.30133\atlmfc\include\atltypes.h
; File D:\git\src\IBK\IBK_DRFN\ProjSrc\SrcDrfn\Chart\MULTICHART\control\GfxOutBarCtrl.cpp
; File C:\Program Files (x86)\Microsoft Visual Studio\2019\Community\VC\Tools\MSVC\14.29.30133\atlmfc\include\atltypes.h
; File D:\git\src\IBK\IBK_DRFN\ProjSrc\SrcDrfn\Chart\MULTICHART\control\GfxOutBarCtrl.cpp
; File C:\Program Files (x86)\Microsoft Visual Studio\2019\Community\VC\Tools\MSVC\14.29.30133\atlmfc\include\atltypes.h
; File D:\git\src\IBK\IBK_DRFN\ProjSrc\SrcDrfn\Chart\MULTICHART\control\GfxOutBarCtrl.cpp
; File C:\Program Files (x86)\Microsoft Visual Studio\2019\Community\VC\Tools\MSVC\14.29.30133\atlmfc\include\atltypes.h
; File D:\git\src\IBK\IBK_DRFN\ProjSrc\SrcDrfn\Chart\MULTICHART\control\GfxOutBarCtrl.cpp
; File C:\Program Files (x86)\Microsoft Visual Studio\2019\Community\VC\Tools\MSVC\14.29.30133\atlmfc\include\afxwin2.inl
; File D:\git\src\IBK\IBK_DRFN\ProjSrc\SrcDrfn\Chart\MULTICHART\control\GfxOutBarCtrl.cpp
; File C:\Program Files (x86)\Microsoft Visual Studio\2019\Community\VC\Tools\MSVC\14.29.30133\atlmfc\include\afxwin2.inl
; File D:\git\src\IBK\IBK_DRFN\ProjSrc\SrcDrfn\Chart\MULTICHART\control\GfxOutBarCtrl.cpp
; File C:\Program Files (x86)\Microsoft Visual Studio\2019\Community\VC\Tools\MSVC\14.29.30133\atlmfc\include\afxwin1.inl
; File D:\git\src\IBK\IBK_DRFN\ProjSrc\SrcDrfn\Chart\MULTICHART\control\GfxOutBarCtrl.cpp
; File C:\Program Files (x86)\Microsoft Visual Studio\2019\Community\VC\Tools\MSVC\14.29.30133\atlmfc\include\atltypes.h
; File D:\git\src\IBK\IBK_DRFN\ProjSrc\SrcDrfn\Chart\MULTICHART\control\GfxOutBarCtrl.cpp
; File C:\Program Files (x86)\Microsoft Visual Studio\2019\Community\VC\Tools\MSVC\14.29.30133\atlmfc\include\atltypes.h
; File D:\git\src\IBK\IBK_DRFN\ProjSrc\SrcDrfn\Chart\MULTICHART\control\GfxOutBarCtrl.cpp
; File C:\Program Files (x86)\Microsoft Visual Studio\2019\Community\VC\Tools\MSVC\14.29.30133\atlmfc\include\atltypes.h
; File D:\git\src\IBK\IBK_DRFN\ProjSrc\SrcDrfn\Chart\MULTICHART\control\GfxOutBarCtrl.cpp
; File C:\Program Files (x86)\Microsoft Visual Studio\2019\Community\VC\Tools\MSVC\14.29.30133\atlmfc\include\afxwin1.inl
; File D:\git\src\IBK\IBK_DRFN\ProjSrc\SrcDrfn\Chart\MULTICHART\control\GfxOutBarCtrl.cpp
; File C:\Program Files (x86)\Microsoft Visual Studio\2019\Community\VC\Tools\MSVC\14.29.30133\atlmfc\include\atltypes.h
; File D:\git\src\IBK\IBK_DRFN\ProjSrc\SrcDrfn\Chart\MULTICHART\control\GfxOutBarCtrl.cpp
; File C:\Program Files (x86)\Microsoft Visual Studio\2019\Community\VC\Tools\MSVC\14.29.30133\atlmfc\include\atltypes.h
; File D:\git\src\IBK\IBK_DRFN\ProjSrc\SrcDrfn\Chart\MULTICHART\control\GfxOutBarCtrl.cpp
; File C:\Program Files (x86)\Microsoft Visual Studio\2019\Community\VC\Tools\MSVC\14.29.30133\atlmfc\include\afxwin1.inl
; File C:\Program Files (x86)\Microsoft Visual Studio\2019\Community\VC\Tools\MSVC\14.29.30133\atlmfc\include\atltypes.h
; File C:\Program Files (x86)\Microsoft Visual Studio\2019\Community\VC\Tools\MSVC\14.29.30133\atlmfc\include\afxwin1.inl
; File D:\git\src\IBK\IBK_DRFN\ProjSrc\SrcDrfn\Chart\MULTICHART\control\GfxOutBarCtrl.cpp
; File C:\Program Files (x86)\Microsoft Visual Studio\2019\Community\VC\Tools\MSVC\14.29.30133\atlmfc\include\atltypes.h
; File C:\Program Files (x86)\Microsoft Visual Studio\2019\Community\VC\Tools\MSVC\14.29.30133\atlmfc\include\afxwin1.inl
; File D:\git\src\IBK\IBK_DRFN\ProjSrc\SrcDrfn\Chart\MULTICHART\control\GfxOutBarCtrl.cpp
; File C:\Program Files (x86)\Microsoft Visual Studio\2019\Community\VC\Tools\MSVC\14.29.30133\atlmfc\include\atltypes.h
; File D:\git\src\IBK\IBK_DRFN\ProjSrc\SrcDrfn\Chart\MULTICHART\control\GfxOutBarCtrl.cpp
; File C:\Program Files (x86)\Microsoft Visual Studio\2019\Community\VC\Tools\MSVC\14.29.30133\atlmfc\include\atltypes.h
; File D:\git\src\IBK\IBK_DRFN\ProjSrc\SrcDrfn\Chart\MULTICHART\control\GfxOutBarCtrl.cpp
; File C:\Program Files (x86)\Microsoft Visual Studio\2019\Community\VC\Tools\MSVC\14.29.30133\atlmfc\include\atltypes.h
; File D:\git\src\IBK\IBK_DRFN\ProjSrc\SrcDrfn\Chart\MULTICHART\control\GfxOutBarCtrl.cpp
; File C:\Program Files (x86)\Microsoft Visual Studio\2019\Community\VC\Tools\MSVC\14.29.30133\atlmfc\include\afxwin2.inl
; File D:\git\src\IBK\IBK_DRFN\ProjSrc\SrcDrfn\Chart\MULTICHART\control\GfxOutBarCtrl.cpp
; File C:\Program Files (x86)\Microsoft Visual Studio\2019\Community\VC\Tools\MSVC\14.29.30133\atlmfc\include\afxwin2.inl
; File D:\git\src\IBK\IBK_DRFN\ProjSrc\SrcDrfn\Chart\MULTICHART\control\GfxOutBarCtrl.cpp
; File C:\Program Files (x86)\Microsoft Visual Studio\2019\Community\VC\Tools\MSVC\14.29.30133\atlmfc\include\afxwin1.inl
; File D:\git\src\IBK\IBK_DRFN\ProjSrc\SrcDrfn\Chart\MULTICHART\control\GfxOutBarCtrl.cpp
; File C:\Program Files (x86)\Microsoft Visual Studio\2019\Community\VC\Tools\MSVC\14.29.30133\atlmfc\include\afxwin1.inl
; File D:\git\src\IBK\IBK_DRFN\ProjSrc\SrcDrfn\Chart\MULTICHART\control\GfxOutBarCtrl.cpp
; File C:\Program Files (x86)\Microsoft Visual Studio\2019\Community\VC\Tools\MSVC\14.29.30133\atlmfc\include\atltypes.h
; File D:\git\src\IBK\IBK_DRFN\ProjSrc\SrcDrfn\Chart\MULTICHART\control\GfxOutBarCtrl.cpp
; File C:\Program Files (x86)\Microsoft Visual Studio\2019\Community\VC\Tools\MSVC\14.29.30133\atlmfc\include\atltypes.h
; File D:\git\src\IBK\IBK_DRFN\ProjSrc\SrcDrfn\Chart\MULTICHART\control\GfxOutBarCtrl.cpp
; File C:\Program Files (x86)\Microsoft Visual Studio\2019\Community\VC\Tools\MSVC\14.29.30133\atlmfc\include\afxwin2.inl
; File D:\git\src\IBK\IBK_DRFN\ProjSrc\SrcDrfn\Chart\MULTICHART\control\GfxOutBarCtrl.cpp
; File C:\Program Files (x86)\Microsoft Visual Studio\2019\Community\VC\Tools\MSVC\14.29.30133\atlmfc\include\afxwin2.inl
; File D:\git\src\IBK\IBK_DRFN\ProjSrc\SrcDrfn\Chart\MULTICHART\control\GfxOutBarCtrl.cpp
; File C:\Program Files (x86)\Microsoft Visual Studio\2019\Community\VC\Tools\MSVC\14.29.30133\atlmfc\include\atltypes.h
; File D:\git\src\IBK\IBK_DRFN\ProjSrc\SrcDrfn\Chart\MULTICHART\control\GfxOutBarCtrl.cpp
; File C:\Program Files (x86)\Microsoft Visual Studio\2019\Community\VC\Tools\MSVC\14.29.30133\atlmfc\include\atltypes.h
; File D:\git\src\IBK\IBK_DRFN\ProjSrc\SrcDrfn\Chart\MULTICHART\control\GfxOutBarCtrl.cpp
; File C:\Program Files (x86)\Microsoft Visual Studio\2019\Community\VC\Tools\MSVC\14.29.30133\atlmfc\include\atltypes.h
; File D:\git\src\IBK\IBK_DRFN\ProjSrc\SrcDrfn\Chart\MULTICHART\control\GfxOutBarCtrl.cpp
; File C:\Program Files (x86)\Microsoft Visual Studio\2019\Community\VC\Tools\MSVC\14.29.30133\atlmfc\include\atltypes.h
; File D:\git\src\IBK\IBK_DRFN\ProjSrc\SrcDrfn\Chart\MULTICHART\control\GfxOutBarCtrl.cpp
; File C:\Program Files (x86)\Microsoft Visual Studio\2019\Community\VC\Tools\MSVC\14.29.30133\atlmfc\include\afxwin1.inl
; File C:\Program Files (x86)\Microsoft Visual Studio\2019\Community\VC\Tools\MSVC\14.29.30133\atlmfc\include\atltypes.h
; File D:\git\src\IBK\IBK_DRFN\ProjSrc\SrcDrfn\Chart\MULTICHART\control\GfxOutBarCtrl.cpp
; File C:\Program Files (x86)\Microsoft Visual Studio\2019\Community\VC\Tools\MSVC\14.29.30133\atlmfc\include\atltypes.h
; File D:\git\src\IBK\IBK_DRFN\ProjSrc\SrcDrfn\Chart\MULTICHART\control\GfxOutBarCtrl.cpp
; File C:\Program Files (x86)\Microsoft Visual Studio\2019\Community\VC\Tools\MSVC\14.29.30133\atlmfc\include\afxwin1.inl
; File C:\Program Files (x86)\Microsoft Visual Studio\2019\Community\VC\Tools\MSVC\14.29.30133\atlmfc\include\atltypes.h
; File C:\Program Files (x86)\Microsoft Visual Studio\2019\Community\VC\Tools\MSVC\14.29.30133\atlmfc\include\afxwin1.inl
; File D:\git\src\IBK\IBK_DRFN\ProjSrc\SrcDrfn\Chart\MULTICHART\control\GfxOutBarCtrl.cpp
; File C:\Program Files (x86)\Microsoft Visual Studio\2019\Community\VC\Tools\MSVC\14.29.30133\atlmfc\include\atltypes.h
; File C:\Program Files (x86)\Microsoft Visual Studio\2019\Community\VC\Tools\MSVC\14.29.30133\atlmfc\include\afxwin1.inl
; File D:\git\src\IBK\IBK_DRFN\ProjSrc\SrcDrfn\Chart\MULTICHART\control\GfxOutBarCtrl.cpp
; File C:\Program Files (x86)\Microsoft Visual Studio\2019\Community\VC\Tools\MSVC\14.29.30133\atlmfc\include\afxwin1.inl
; File D:\git\src\IBK\IBK_DRFN\ProjSrc\SrcDrfn\Chart\MULTICHART\control\GfxOutBarCtrl.cpp
; File C:\Program Files (x86)\Microsoft Visual Studio\2019\Community\VC\Tools\MSVC\14.29.30133\atlmfc\include\afxcoll.inl
; File D:\git\src\IBK\IBK_DRFN\ProjSrc\SrcDrfn\Chart\MULTICHART\control\GfxOutBarCtrl.cpp
;	COMDAT ?AnimateFolderScroll@CGfxOutBarCtrl@@QAEXHH@Z
_TEXT	SEGMENT
_dc$ = -164						; size = 20
_obmp$1$ = -144						; size = 4
_bmpFrom$ = -140					; size = 8
_bmpTo$ = -132						; size = 8
_memDC$ = -124						; size = 16
_iTo$GSCopy$1$ = -108					; size = 4
_fh$1$ = -108						; size = 4
_fh$1$ = -108						; size = 4
_iFrom$GSCopy$1$ = -104					; size = 4
_y$1$ = -104						; size = 4
_y$1$ = -104						; size = 4
_pWnd2$1$ = -100					; size = 4
tv1607 = -100						; size = 4
_rcFrom$2 = -96						; size = 16
_rcFrom$3 = -96						; size = 16
_ovpt$4 = -88						; size = 8
$T5 = -88						; size = 8
_rcTo$6 = -80						; size = 16
_rcTo$7 = -80						; size = 16
$T8 = -72						; size = 8
_ovpt$9 = -72						; size = 8
_pWnd1$1$ = -68						; size = 4
_rc1$ = -64						; size = 16
_rc$ = -48						; size = 16
_frc$ = -32						; size = 16
__$ArrayPad$ = -16					; size = 4
__$EHRec$ = -12						; size = 12
_iFrom$ = 8						; size = 4
_iTo$ = 12						; size = 4
?AnimateFolderScroll@CGfxOutBarCtrl@@QAEXHH@Z PROC	; CGfxOutBarCtrl::AnimateFolderScroll, COMDAT
; _this$ = ecx

; 2299 : {

  00000	55		 push	 ebp
  00001	8b ec		 mov	 ebp, esp
  00003	6a ff		 push	 -1
  00005	68 00 00 00 00	 push	 __ehhandler$?AnimateFolderScroll@CGfxOutBarCtrl@@QAEXHH@Z
  0000a	64 a1 00 00 00
	00		 mov	 eax, DWORD PTR fs:0
  00010	50		 push	 eax
  00011	81 ec 98 00 00
	00		 sub	 esp, 152		; 00000098H
  00017	a1 00 00 00 00	 mov	 eax, DWORD PTR ___security_cookie
  0001c	33 c5		 xor	 eax, ebp
  0001e	89 45 f0	 mov	 DWORD PTR __$ArrayPad$[ebp], eax
  00021	56		 push	 esi
  00022	57		 push	 edi
  00023	50		 push	 eax
  00024	8d 45 f4	 lea	 eax, DWORD PTR __$EHRec$[ebp]
  00027	64 a3 00 00 00
	00		 mov	 DWORD PTR fs:0, eax
  0002d	8b f9		 mov	 edi, ecx
  0002f	8b 45 08	 mov	 eax, DWORD PTR _iFrom$[ebp]
  00032	0f 57 c0	 xorps	 xmm0, xmm0
  00035	8b 75 0c	 mov	 esi, DWORD PTR _iTo$[ebp]
  00038	89 45 98	 mov	 DWORD PTR _iFrom$GSCopy$1$[ebp], eax

; 2304 : 	GetInsideRect(rc);

  0003b	8d 45 d0	 lea	 eax, DWORD PTR _rc$[ebp]
  0003e	50		 push	 eax
  0003f	89 75 94	 mov	 DWORD PTR _iTo$GSCopy$1$[ebp], esi
; File C:\Program Files (x86)\Microsoft Visual Studio\2019\Community\VC\Tools\MSVC\14.29.30133\atlmfc\include\atltypes.h

; 528  : 	left = 0;

  00042	0f 11 45 d0	 movups	 XMMWORD PTR _rc$[ebp], xmm0
  00046	0f 11 45 c0	 movups	 XMMWORD PTR _rc1$[ebp], xmm0
  0004a	0f 11 45 e0	 movups	 XMMWORD PTR _frc$[ebp], xmm0
; File D:\git\src\IBK\IBK_DRFN\ProjSrc\SrcDrfn\Chart\MULTICHART\control\GfxOutBarCtrl.cpp

; 2304 : 	GetInsideRect(rc);

  0004e	e8 00 00 00 00	 call	 ?GetInsideRect@CGfxOutBarCtrl@@QBEXAAVCRect@@@Z ; CGfxOutBarCtrl::GetInsideRect
; File C:\Program Files (x86)\Microsoft Visual Studio\2019\Community\VC\Tools\MSVC\14.29.30133\atlmfc\include\atltypes.h

; 581  : 	return bottom - top;

  00053	8b 4d dc	 mov	 ecx, DWORD PTR _rc$[ebp+12]
  00056	2b 4d d4	 sub	 ecx, DWORD PTR _rc$[ebp+4]

; 576  : 	return right - left;

  00059	8b 45 d8	 mov	 eax, DWORD PTR _rc$[ebp+8]
  0005c	2b 45 d0	 sub	 eax, DWORD PTR _rc$[ebp]

; 657  : 	::SetRect(this, x1, y1, x2, y2);

  0005f	51		 push	 ecx
  00060	50		 push	 eax
  00061	6a 00		 push	 0
  00063	6a 00		 push	 0
  00065	8d 45 c0	 lea	 eax, DWORD PTR _rc1$[ebp]
  00068	50		 push	 eax
  00069	ff 15 00 00 00
	00		 call	 DWORD PTR __imp__SetRect@20
; File D:\git\src\IBK\IBK_DRFN\ProjSrc\SrcDrfn\Chart\MULTICHART\control\GfxOutBarCtrl.cpp

; 2306 : 	GetFolderRect(iTo, frc);

  0006f	8d 45 e0	 lea	 eax, DWORD PTR _frc$[ebp]
  00072	8b cf		 mov	 ecx, edi
  00074	50		 push	 eax
  00075	56		 push	 esi
  00076	e8 00 00 00 00	 call	 ?GetFolderRect@CGfxOutBarCtrl@@QBE_NHAAVCRect@@@Z ; CGfxOutBarCtrl::GetFolderRect

; 2307 : 	frc1 = frc;
; 2308 : 
; 2309 : 	CClientDC dc(this);

  0007b	57		 push	 edi
  0007c	8d 8d 5c ff ff
	ff		 lea	 ecx, DWORD PTR _dc$[ebp]
  00082	e8 00 00 00 00	 call	 ??0CClientDC@@QAE@PAVCWnd@@@Z ; CClientDC::CClientDC

; 2310 : 	CDC memDC;

  00087	8d 4d 84	 lea	 ecx, DWORD PTR _memDC$[ebp]
  0008a	c7 45 fc 00 00
	00 00		 mov	 DWORD PTR __$EHRec$[ebp+8], 0
  00091	e8 00 00 00 00	 call	 ??0CDC@@QAE@XZ		; CDC::CDC
; File C:\Program Files (x86)\Microsoft Visual Studio\2019\Community\VC\Tools\MSVC\14.29.30133\atlmfc\include\afxwin1.inl

; 330  : 	{ return Attach(::CreateCompatibleDC(pDC->GetSafeHdc())); }

  00096	ff b5 60 ff ff
	ff		 push	 DWORD PTR _dc$[ebp+4]
; File D:\git\src\IBK\IBK_DRFN\ProjSrc\SrcDrfn\Chart\MULTICHART\control\GfxOutBarCtrl.cpp

; 2310 : 	CDC memDC;

  0009c	c6 45 fc 01	 mov	 BYTE PTR __$EHRec$[ebp+8], 1
; File C:\Program Files (x86)\Microsoft Visual Studio\2019\Community\VC\Tools\MSVC\14.29.30133\atlmfc\include\afxwin1.inl

; 330  : 	{ return Attach(::CreateCompatibleDC(pDC->GetSafeHdc())); }

  000a0	ff 15 00 00 00
	00		 call	 DWORD PTR __imp__CreateCompatibleDC@4
  000a6	50		 push	 eax
  000a7	8d 4d 84	 lea	 ecx, DWORD PTR _memDC$[ebp]
  000aa	e8 00 00 00 00	 call	 ?Attach@CDC@@QAEHPAUHDC__@@@Z ; CDC::Attach

; 70   : 	{ m_hObject = NULL; }

  000af	c7 85 78 ff ff
	ff 00 00 00 00	 mov	 DWORD PTR _bmpFrom$[ebp+4], 0

; 177  : 	{ }

  000b9	c7 85 74 ff ff
	ff 00 00 00 00	 mov	 DWORD PTR _bmpFrom$[ebp], OFFSET ??_7CBitmap@@6B@

; 70   : 	{ m_hObject = NULL; }

  000c3	c7 45 80 00 00
	00 00		 mov	 DWORD PTR _bmpTo$[ebp+4], 0

; 177  : 	{ }

  000ca	c7 85 7c ff ff
	ff 00 00 00 00	 mov	 DWORD PTR _bmpTo$[ebp], OFFSET ??_7CBitmap@@6B@
; File D:\git\src\IBK\IBK_DRFN\ProjSrc\SrcDrfn\Chart\MULTICHART\control\GfxOutBarCtrl.cpp

; 2313 : 	bmpFrom.CreateCompatibleBitmap(&dc, rc1.Width(), rc1.Height() + frc.Height() * 2);

  000d4	8b 4d ec	 mov	 ecx, DWORD PTR _frc$[ebp+12]
  000d7	2b 4d e4	 sub	 ecx, DWORD PTR _frc$[ebp+4]
; File C:\Program Files (x86)\Microsoft Visual Studio\2019\Community\VC\Tools\MSVC\14.29.30133\atlmfc\include\atltypes.h

; 576  : 	return right - left;

  000da	8b 45 c8	 mov	 eax, DWORD PTR _rc1$[ebp+8]
; File D:\git\src\IBK\IBK_DRFN\ProjSrc\SrcDrfn\Chart\MULTICHART\control\GfxOutBarCtrl.cpp

; 2313 : 	bmpFrom.CreateCompatibleBitmap(&dc, rc1.Width(), rc1.Height() + frc.Height() * 2);

  000dd	03 c9		 add	 ecx, ecx
  000df	2b 4d c4	 sub	 ecx, DWORD PTR _rc1$[ebp+4]
  000e2	03 4d cc	 add	 ecx, DWORD PTR _rc1$[ebp+12]
; File C:\Program Files (x86)\Microsoft Visual Studio\2019\Community\VC\Tools\MSVC\14.29.30133\atlmfc\include\atltypes.h

; 576  : 	return right - left;

  000e5	2b 45 c0	 sub	 eax, DWORD PTR _rc1$[ebp]
; File C:\Program Files (x86)\Microsoft Visual Studio\2019\Community\VC\Tools\MSVC\14.29.30133\atlmfc\include\afxwin1.inl

; 217  : 	{ return Attach(::CreateCompatibleBitmap(pDC->m_hDC, nWidth, nHeight)); }

  000e8	8b 35 00 00 00
	00		 mov	 esi, DWORD PTR __imp__CreateCompatibleBitmap@12
  000ee	51		 push	 ecx
  000ef	50		 push	 eax
  000f0	ff b5 60 ff ff
	ff		 push	 DWORD PTR _dc$[ebp+4]
; File D:\git\src\IBK\IBK_DRFN\ProjSrc\SrcDrfn\Chart\MULTICHART\control\GfxOutBarCtrl.cpp

; 2312 : 	CBitmap bmpFrom, bmpTo;

  000f6	c6 45 fc 03	 mov	 BYTE PTR __$EHRec$[ebp+8], 3
; File C:\Program Files (x86)\Microsoft Visual Studio\2019\Community\VC\Tools\MSVC\14.29.30133\atlmfc\include\afxwin1.inl

; 217  : 	{ return Attach(::CreateCompatibleBitmap(pDC->m_hDC, nWidth, nHeight)); }

  000fa	ff d6		 call	 esi
  000fc	50		 push	 eax
  000fd	8d 8d 74 ff ff
	ff		 lea	 ecx, DWORD PTR _bmpFrom$[ebp]
  00103	e8 00 00 00 00	 call	 ?Attach@CGdiObject@@QAEHPAX@Z ; CGdiObject::Attach
; File D:\git\src\IBK\IBK_DRFN\ProjSrc\SrcDrfn\Chart\MULTICHART\control\GfxOutBarCtrl.cpp

; 2314 : 	bmpTo.CreateCompatibleBitmap(&dc, rc1.Width(), rc1.Height() + frc.Height() * 2);

  00108	8b 4d ec	 mov	 ecx, DWORD PTR _frc$[ebp+12]
  0010b	2b 4d e4	 sub	 ecx, DWORD PTR _frc$[ebp+4]
; File C:\Program Files (x86)\Microsoft Visual Studio\2019\Community\VC\Tools\MSVC\14.29.30133\atlmfc\include\atltypes.h

; 576  : 	return right - left;

  0010e	8b 45 c8	 mov	 eax, DWORD PTR _rc1$[ebp+8]
; File D:\git\src\IBK\IBK_DRFN\ProjSrc\SrcDrfn\Chart\MULTICHART\control\GfxOutBarCtrl.cpp

; 2314 : 	bmpTo.CreateCompatibleBitmap(&dc, rc1.Width(), rc1.Height() + frc.Height() * 2);

  00111	03 c9		 add	 ecx, ecx
  00113	2b 4d c4	 sub	 ecx, DWORD PTR _rc1$[ebp+4]
  00116	03 4d cc	 add	 ecx, DWORD PTR _rc1$[ebp+12]
; File C:\Program Files (x86)\Microsoft Visual Studio\2019\Community\VC\Tools\MSVC\14.29.30133\atlmfc\include\atltypes.h

; 576  : 	return right - left;

  00119	2b 45 c0	 sub	 eax, DWORD PTR _rc1$[ebp]
; File C:\Program Files (x86)\Microsoft Visual Studio\2019\Community\VC\Tools\MSVC\14.29.30133\atlmfc\include\afxwin1.inl

; 217  : 	{ return Attach(::CreateCompatibleBitmap(pDC->m_hDC, nWidth, nHeight)); }

  0011c	51		 push	 ecx
  0011d	50		 push	 eax
  0011e	ff b5 60 ff ff
	ff		 push	 DWORD PTR _dc$[ebp+4]
  00124	ff d6		 call	 esi
  00126	50		 push	 eax
  00127	8d 8d 7c ff ff
	ff		 lea	 ecx, DWORD PTR _bmpTo$[ebp]
  0012d	e8 00 00 00 00	 call	 ?Attach@CGdiObject@@QAEHPAX@Z ; CGdiObject::Attach
; File D:\git\src\IBK\IBK_DRFN\ProjSrc\SrcDrfn\Chart\MULTICHART\control\GfxOutBarCtrl.cpp

; 2317 : 	CWnd * pWnd1 = GetFolderChild(iFrom);

  00132	8b 75 98	 mov	 esi, DWORD PTR _iFrom$GSCopy$1$[ebp]
  00135	8b d6		 mov	 edx, esi

; 2455 : 	int nFolderCnt = GetFolderCount();

  00137	8b 8f 0c 01 00
	00		 mov	 ecx, DWORD PTR [edi+268]

; 2456 : 	if (nFolderCnt <= iFolder) return NULL;

  0013d	3b ce		 cmp	 ecx, esi
  0013f	7e 2b		 jle	 SHORT $LN75@AnimateFol

; 2457 : 	if (nFolderCnt)

  00141	85 c9		 test	 ecx, ecx
  00143	74 27		 je	 SHORT $LN75@AnimateFol

; 2458 : 	{
; 2459 : 		if (iFolder < 0) iFolder = iSelFolder;

  00145	85 f6		 test	 esi, esi
  00147	79 12		 jns	 SHORT $LN299@AnimateFol
  00149	8b 97 34 01 00
	00		 mov	 edx, DWORD PTR [edi+308]

; 2460 : 		if (nFolderCnt <= iFolder) return NULL;

  0014f	3b ca		 cmp	 ecx, edx
  00151	7e 19		 jle	 SHORT $LN75@AnimateFol
; File C:\Program Files (x86)\Microsoft Visual Studio\2019\Community\VC\Tools\MSVC\14.29.30133\atlmfc\include\afxcoll.inl

; 203  : 		if( nIndex < 0 || nIndex >= m_nSize )

  00153	85 d2		 test	 edx, edx
  00155	0f 88 bb 05 00
	00		 js	 $LN93@AnimateFol
$LN299@AnimateFol:
; File D:\git\src\IBK\IBK_DRFN\ProjSrc\SrcDrfn\Chart\MULTICHART\control\GfxOutBarCtrl.cpp

; 2462 : 		return pbf->pChild;

  0015b	8b 87 08 01 00
	00		 mov	 eax, DWORD PTR [edi+264]
  00161	8b 04 90	 mov	 eax, DWORD PTR [eax+edx*4]
  00164	8b 40 28	 mov	 eax, DWORD PTR [eax+40]
  00167	89 45 bc	 mov	 DWORD PTR _pWnd1$1$[ebp], eax
  0016a	eb 07		 jmp	 SHORT $LN73@AnimateFol
$LN75@AnimateFol:

; 2318 : 	CWnd * pWnd2 = GetFolderChild(iTo);

  0016c	c7 45 bc 00 00
	00 00		 mov	 DWORD PTR _pWnd1$1$[ebp], 0
$LN73@AnimateFol:
  00173	8b 45 94	 mov	 eax, DWORD PTR _iTo$GSCopy$1$[ebp]
  00176	8b d0		 mov	 edx, eax

; 2456 : 	if (nFolderCnt <= iFolder) return NULL;

  00178	3b c8		 cmp	 ecx, eax
  0017a	7e 36		 jle	 SHORT $LN87@AnimateFol

; 2457 : 	if (nFolderCnt)

  0017c	85 c9		 test	 ecx, ecx
  0017e	74 32		 je	 SHORT $LN87@AnimateFol

; 2458 : 	{
; 2459 : 		if (iFolder < 0) iFolder = iSelFolder;

  00180	85 c0		 test	 eax, eax
  00182	79 0a		 jns	 SHORT $LN89@AnimateFol
  00184	8b 97 34 01 00
	00		 mov	 edx, DWORD PTR [edi+308]

; 2460 : 		if (nFolderCnt <= iFolder) return NULL;

  0018a	3b ca		 cmp	 ecx, edx
  0018c	7e 24		 jle	 SHORT $LN87@AnimateFol
$LN89@AnimateFol:
; File C:\Program Files (x86)\Microsoft Visual Studio\2019\Community\VC\Tools\MSVC\14.29.30133\atlmfc\include\afxcoll.inl

; 203  : 		if( nIndex < 0 || nIndex >= m_nSize )

  0018e	85 d2		 test	 edx, edx
  00190	0f 88 80 05 00
	00		 js	 $LN93@AnimateFol
  00196	3b d1		 cmp	 edx, ecx
  00198	0f 8d 78 05 00
	00		 jge	 $LN93@AnimateFol
; File D:\git\src\IBK\IBK_DRFN\ProjSrc\SrcDrfn\Chart\MULTICHART\control\GfxOutBarCtrl.cpp

; 2462 : 		return pbf->pChild;

  0019e	8b 87 08 01 00
	00		 mov	 eax, DWORD PTR [edi+264]
  001a4	8b 04 90	 mov	 eax, DWORD PTR [eax+edx*4]
  001a7	8b 70 28	 mov	 esi, DWORD PTR [eax+40]
  001aa	89 75 9c	 mov	 DWORD PTR _pWnd2$1$[ebp], esi
  001ad	8b 75 98	 mov	 esi, DWORD PTR _iFrom$GSCopy$1$[ebp]
  001b0	eb 07		 jmp	 SHORT $LN85@AnimateFol
$LN87@AnimateFol:
; File C:\Program Files (x86)\Microsoft Visual Studio\2019\Community\VC\Tools\MSVC\14.29.30133\atlmfc\include\afxwin1.inl

; 361  : 	{ ASSERT(m_hDC != NULL); return (CBitmap*) SelectGdiObject(m_hDC, pBitmap->GetSafeHandle()); }

  001b2	c7 45 9c 00 00
	00 00		 mov	 DWORD PTR _pWnd2$1$[ebp], 0
$LN85@AnimateFol:
  001b9	ff b5 78 ff ff
	ff		 push	 DWORD PTR _bmpFrom$[ebp+4]
  001bf	ff 75 88	 push	 DWORD PTR _memDC$[ebp+4]
  001c2	e8 00 00 00 00	 call	 ?SelectGdiObject@CDC@@KGPAVCGdiObject@@PAUHDC__@@PAX@Z ; CDC::SelectGdiObject
; File D:\git\src\IBK\IBK_DRFN\ProjSrc\SrcDrfn\Chart\MULTICHART\control\GfxOutBarCtrl.cpp

; 2321 : 	CBitmap * obmp = pDC->SelectObject(&bmpFrom);

  001c7	89 85 70 ff ff
	ff		 mov	 DWORD PTR _obmp$1$[ebp], eax

; 2322 : 	if (iTo > iFrom)

  001cd	39 75 94	 cmp	 DWORD PTR _iTo$GSCopy$1$[ebp], esi
  001d0	0f 8e 5e 02 00
	00		 jle	 $LN8@AnimateFol

; 2323 : 	{
; 2324 : 		rc1.bottom += frc.Height() * 2;

  001d6	8b 55 ec	 mov	 edx, DWORD PTR _frc$[ebp+12]

; 2325 : 		// bds     (040305)
; 2326 : 		//rc1.left += 5;
; 2327 : 		pDC->FillSolidRect(rc1, crBackGroundColor);

  001d9	8d 45 c0	 lea	 eax, DWORD PTR _rc1$[ebp]
  001dc	8b 4d cc	 mov	 ecx, DWORD PTR _rc1$[ebp+12]
  001df	2b 55 e4	 sub	 edx, DWORD PTR _frc$[ebp+4]
  001e2	ff b7 80 00 00
	00		 push	 DWORD PTR [edi+128]
  001e8	50		 push	 eax
  001e9	8d 0c 51	 lea	 ecx, DWORD PTR [ecx+edx*2]
  001ec	89 4d cc	 mov	 DWORD PTR _rc1$[ebp+12], ecx
  001ef	8d 4d 84	 lea	 ecx, DWORD PTR _memDC$[ebp]
  001f2	e8 00 00 00 00	 call	 ?FillSolidRect@CDC@@QAEXPBUtagRECT@@K@Z ; CDC::FillSolidRect

; 2328 : 		if (pWnd1) 

  001f7	8b 45 bc	 mov	 eax, DWORD PTR _pWnd1$1$[ebp]
  001fa	85 c0		 test	 eax, eax
  001fc	74 40		 je	 SHORT $LN10@AnimateFol

; 2330 : 			BOOL bPrev = pWnd1->ShowWindow(SW_SHOW);

  001fe	6a 05		 push	 5
  00200	8b c8		 mov	 ecx, eax
  00202	e8 00 00 00 00	 call	 ?ShowWindow@CWnd@@QAEHH@Z ; CWnd::ShowWindow
; File C:\Program Files (x86)\Microsoft Visual Studio\2019\Community\VC\Tools\MSVC\14.29.30133\atlmfc\include\afxwin2.inl

; 32   : 	{ ASSERT(::IsWindow(m_hWnd)); return ::SendMessage(m_hWnd, message, wParam, lParam); }

  00207	6a 00		 push	 0
  00209	ff 75 88	 push	 DWORD PTR _memDC$[ebp+4]
; File D:\git\src\IBK\IBK_DRFN\ProjSrc\SrcDrfn\Chart\MULTICHART\control\GfxOutBarCtrl.cpp

; 2330 : 			BOOL bPrev = pWnd1->ShowWindow(SW_SHOW);

  0020c	8b f0		 mov	 esi, eax
; File C:\Program Files (x86)\Microsoft Visual Studio\2019\Community\VC\Tools\MSVC\14.29.30133\atlmfc\include\afxwin2.inl

; 32   : 	{ ASSERT(::IsWindow(m_hWnd)); return ::SendMessage(m_hWnd, message, wParam, lParam); }

  0020e	8b 45 bc	 mov	 eax, DWORD PTR _pWnd1$1$[ebp]
  00211	6a 14		 push	 20			; 00000014H
  00213	ff 70 20	 push	 DWORD PTR [eax+32]
  00216	ff 15 00 00 00
	00		 call	 DWORD PTR __imp__SendMessageA@16
  0021c	8b 45 bc	 mov	 eax, DWORD PTR _pWnd1$1$[ebp]
  0021f	6a 00		 push	 0
  00221	ff 75 88	 push	 DWORD PTR _memDC$[ebp+4]
  00224	6a 0f		 push	 15			; 0000000fH
  00226	ff 70 20	 push	 DWORD PTR [eax+32]
  00229	ff 15 00 00 00
	00		 call	 DWORD PTR __imp__SendMessageA@16
; File D:\git\src\IBK\IBK_DRFN\ProjSrc\SrcDrfn\Chart\MULTICHART\control\GfxOutBarCtrl.cpp

; 2333 : 			if (!bPrev) pWnd1->ShowWindow(SW_HIDE);

  0022f	85 f6		 test	 esi, esi
  00231	75 23		 jne	 SHORT $LN11@AnimateFol
  00233	8b 4d bc	 mov	 ecx, DWORD PTR _pWnd1$1$[ebp]
  00236	56		 push	 esi
  00237	e8 00 00 00 00	 call	 ?ShowWindow@CWnd@@QAEHH@Z ; CWnd::ShowWindow

; 2334 : 		}

  0023c	eb 18		 jmp	 SHORT $LN11@AnimateFol
$LN10@AnimateFol:

; 2335 : 		else PaintItems(pDC, iFrom, rc1);

  0023e	0f 10 45 c0	 movups	 xmm0, XMMWORD PTR _rc1$[ebp]
  00242	83 ec 10	 sub	 esp, 16			; 00000010H
  00245	8b cf		 mov	 ecx, edi
  00247	8b c4		 mov	 eax, esp
  00249	56		 push	 esi
  0024a	0f 11 00	 movups	 XMMWORD PTR [eax], xmm0
  0024d	8d 45 84	 lea	 eax, DWORD PTR _memDC$[ebp]
  00250	50		 push	 eax
  00251	e8 00 00 00 00	 call	 ?PaintItems@CGfxOutBarCtrl@@QAEXPAVCDC@@HVCRect@@@Z ; CGfxOutBarCtrl::PaintItems
$LN11@AnimateFol:
; File C:\Program Files (x86)\Microsoft Visual Studio\2019\Community\VC\Tools\MSVC\14.29.30133\atlmfc\include\afxwin1.inl

; 361  : 	{ ASSERT(m_hDC != NULL); return (CBitmap*) SelectGdiObject(m_hDC, pBitmap->GetSafeHandle()); }

  00256	ff 75 80	 push	 DWORD PTR _bmpTo$[ebp+4]
  00259	ff 75 88	 push	 DWORD PTR _memDC$[ebp+4]
  0025c	e8 00 00 00 00	 call	 ?SelectGdiObject@CDC@@KGPAVCGdiObject@@PAUHDC__@@PAX@Z ; CDC::SelectGdiObject
; File C:\Program Files (x86)\Microsoft Visual Studio\2019\Community\VC\Tools\MSVC\14.29.30133\atlmfc\include\atltypes.h

; 581  : 	return bottom - top;

  00261	8b 45 ec	 mov	 eax, DWORD PTR _frc$[ebp+12]
  00264	2b 45 e4	 sub	 eax, DWORD PTR _frc$[ebp+4]

; 657  : 	::SetRect(this, x1, y1, x2, y2);

  00267	8b 35 00 00 00
	00		 mov	 esi, DWORD PTR __imp__SetRect@20
  0026d	50		 push	 eax

; 576  : 	return right - left;

  0026e	8b 45 e8	 mov	 eax, DWORD PTR _frc$[ebp+8]
  00271	2b 45 e0	 sub	 eax, DWORD PTR _frc$[ebp]

; 657  : 	::SetRect(this, x1, y1, x2, y2);

  00274	50		 push	 eax
  00275	6a 00		 push	 0
  00277	6a 00		 push	 0
  00279	8d 45 e0	 lea	 eax, DWORD PTR _frc$[ebp]
  0027c	50		 push	 eax
  0027d	ff d6		 call	 esi
; File D:\git\src\IBK\IBK_DRFN\ProjSrc\SrcDrfn\Chart\MULTICHART\control\GfxOutBarCtrl.cpp

; 2339 : 		rc1.SetRect(0,frc.Height(),rc.Width(), rc.Height()+frc.Height() * 2);

  0027f	8b 4d ec	 mov	 ecx, DWORD PTR _frc$[ebp+12]
  00282	2b 4d e4	 sub	 ecx, DWORD PTR _frc$[ebp+4]
  00285	8d 04 09	 lea	 eax, DWORD PTR [ecx+ecx]
; File C:\Program Files (x86)\Microsoft Visual Studio\2019\Community\VC\Tools\MSVC\14.29.30133\atlmfc\include\atltypes.h

; 657  : 	::SetRect(this, x1, y1, x2, y2);

  00288	2b 45 d4	 sub	 eax, DWORD PTR _rc$[ebp+4]
; File D:\git\src\IBK\IBK_DRFN\ProjSrc\SrcDrfn\Chart\MULTICHART\control\GfxOutBarCtrl.cpp

; 2339 : 		rc1.SetRect(0,frc.Height(),rc.Width(), rc.Height()+frc.Height() * 2);

  0028b	03 45 dc	 add	 eax, DWORD PTR _rc$[ebp+12]
; File C:\Program Files (x86)\Microsoft Visual Studio\2019\Community\VC\Tools\MSVC\14.29.30133\atlmfc\include\atltypes.h

; 657  : 	::SetRect(this, x1, y1, x2, y2);

  0028e	50		 push	 eax

; 576  : 	return right - left;

  0028f	8b 45 d8	 mov	 eax, DWORD PTR _rc$[ebp+8]
  00292	2b 45 d0	 sub	 eax, DWORD PTR _rc$[ebp]

; 657  : 	::SetRect(this, x1, y1, x2, y2);

  00295	50		 push	 eax
  00296	51		 push	 ecx
  00297	6a 00		 push	 0
  00299	8d 45 c0	 lea	 eax, DWORD PTR _rc1$[ebp]
  0029c	50		 push	 eax
  0029d	ff d6		 call	 esi
; File D:\git\src\IBK\IBK_DRFN\ProjSrc\SrcDrfn\Chart\MULTICHART\control\GfxOutBarCtrl.cpp

; 2340 : 		pDC->FillSolidRect(rc1, crBackGroundColor);

  0029f	ff b7 80 00 00
	00		 push	 DWORD PTR [edi+128]
  002a5	8d 45 c0	 lea	 eax, DWORD PTR _rc1$[ebp]
  002a8	50		 push	 eax
  002a9	8d 4d 84	 lea	 ecx, DWORD PTR _memDC$[ebp]
  002ac	e8 00 00 00 00	 call	 ?FillSolidRect@CDC@@QAEXPBUtagRECT@@K@Z ; CDC::FillSolidRect

; 2341 : 
; 2342 : 		if (pWnd2) 

  002b1	8b 75 9c	 mov	 esi, DWORD PTR _pWnd2$1$[ebp]
  002b4	85 f6		 test	 esi, esi
  002b6	74 6c		 je	 SHORT $LN13@AnimateFol
; File C:\Program Files (x86)\Microsoft Visual Studio\2019\Community\VC\Tools\MSVC\14.29.30133\atlmfc\include\atltypes.h

; 581  : 	return bottom - top;

  002b8	8b 45 ec	 mov	 eax, DWORD PTR _frc$[ebp+12]
; File D:\git\src\IBK\IBK_DRFN\ProjSrc\SrcDrfn\Chart\MULTICHART\control\GfxOutBarCtrl.cpp

; 2344 : 			CPoint ovpt = pDC->SetViewportOrg(0, frc.Height());

  002bb	8d 4d 84	 lea	 ecx, DWORD PTR _memDC$[ebp]
; File C:\Program Files (x86)\Microsoft Visual Studio\2019\Community\VC\Tools\MSVC\14.29.30133\atlmfc\include\atltypes.h

; 581  : 	return bottom - top;

  002be	2b 45 e4	 sub	 eax, DWORD PTR _frc$[ebp+4]
; File D:\git\src\IBK\IBK_DRFN\ProjSrc\SrcDrfn\Chart\MULTICHART\control\GfxOutBarCtrl.cpp

; 2344 : 			CPoint ovpt = pDC->SetViewportOrg(0, frc.Height());

  002c1	50		 push	 eax
  002c2	6a 00		 push	 0
  002c4	8d 45 b8	 lea	 eax, DWORD PTR _ovpt$9[ebp]
  002c7	50		 push	 eax
  002c8	8b 45 84	 mov	 eax, DWORD PTR _memDC$[ebp]
  002cb	ff 50 40	 call	 DWORD PTR [eax+64]

; 2345 : 			BOOL bPrev = pWnd2->ShowWindow(SW_SHOW);

  002ce	6a 05		 push	 5
  002d0	8b ce		 mov	 ecx, esi
  002d2	e8 00 00 00 00	 call	 ?ShowWindow@CWnd@@QAEHH@Z ; CWnd::ShowWindow
; File C:\Program Files (x86)\Microsoft Visual Studio\2019\Community\VC\Tools\MSVC\14.29.30133\atlmfc\include\afxwin2.inl

; 32   : 	{ ASSERT(::IsWindow(m_hWnd)); return ::SendMessage(m_hWnd, message, wParam, lParam); }

  002d7	6a 00		 push	 0
  002d9	ff 75 88	 push	 DWORD PTR _memDC$[ebp+4]
; File D:\git\src\IBK\IBK_DRFN\ProjSrc\SrcDrfn\Chart\MULTICHART\control\GfxOutBarCtrl.cpp

; 2345 : 			BOOL bPrev = pWnd2->ShowWindow(SW_SHOW);

  002dc	8b f0		 mov	 esi, eax
; File C:\Program Files (x86)\Microsoft Visual Studio\2019\Community\VC\Tools\MSVC\14.29.30133\atlmfc\include\afxwin2.inl

; 32   : 	{ ASSERT(::IsWindow(m_hWnd)); return ::SendMessage(m_hWnd, message, wParam, lParam); }

  002de	8b 45 9c	 mov	 eax, DWORD PTR _pWnd2$1$[ebp]
  002e1	6a 14		 push	 20			; 00000014H
  002e3	ff 70 20	 push	 DWORD PTR [eax+32]
  002e6	ff 15 00 00 00
	00		 call	 DWORD PTR __imp__SendMessageA@16
  002ec	8b 45 9c	 mov	 eax, DWORD PTR _pWnd2$1$[ebp]
  002ef	6a 00		 push	 0
  002f1	ff 75 88	 push	 DWORD PTR _memDC$[ebp+4]
  002f4	6a 0f		 push	 15			; 0000000fH
  002f6	ff 70 20	 push	 DWORD PTR [eax+32]
  002f9	ff 15 00 00 00
	00		 call	 DWORD PTR __imp__SendMessageA@16
; File D:\git\src\IBK\IBK_DRFN\ProjSrc\SrcDrfn\Chart\MULTICHART\control\GfxOutBarCtrl.cpp

; 2348 : 			if (!bPrev) pWnd2->ShowWindow(SW_HIDE);

  002ff	85 f6		 test	 esi, esi
  00301	75 09		 jne	 SHORT $LN15@AnimateFol
  00303	8b 4d 9c	 mov	 ecx, DWORD PTR _pWnd2$1$[ebp]
  00306	56		 push	 esi
  00307	e8 00 00 00 00	 call	 ?ShowWindow@CWnd@@QAEHH@Z ; CWnd::ShowWindow
$LN15@AnimateFol:
; File C:\Program Files (x86)\Microsoft Visual Studio\2019\Community\VC\Tools\MSVC\14.29.30133\atlmfc\include\afxwin1.inl

; 423  : 	{ ASSERT(m_hDC != NULL); return SetViewportOrg(point.x, point.y); }

  0030c	ff 75 bc	 push	 DWORD PTR _ovpt$9[ebp+4]
  0030f	8d 45 a8	 lea	 eax, DWORD PTR $T5[ebp]
  00312	ff 75 b8	 push	 DWORD PTR _ovpt$9[ebp]
  00315	8d 4d 84	 lea	 ecx, DWORD PTR _memDC$[ebp]
  00318	50		 push	 eax
  00319	8b 45 84	 mov	 eax, DWORD PTR _memDC$[ebp]
  0031c	ff 50 40	 call	 DWORD PTR [eax+64]
; File D:\git\src\IBK\IBK_DRFN\ProjSrc\SrcDrfn\Chart\MULTICHART\control\GfxOutBarCtrl.cpp

; 2350 : 		}

  0031f	8b 75 94	 mov	 esi, DWORD PTR _iTo$GSCopy$1$[ebp]
  00322	eb 1b		 jmp	 SHORT $LN14@AnimateFol
$LN13@AnimateFol:

; 2351 : 		else PaintItems(pDC, iTo, rc1);

  00324	0f 10 45 c0	 movups	 xmm0, XMMWORD PTR _rc1$[ebp]
  00328	8b 75 94	 mov	 esi, DWORD PTR _iTo$GSCopy$1$[ebp]
  0032b	83 ec 10	 sub	 esp, 16			; 00000010H
  0032e	8b c4		 mov	 eax, esp
  00330	8b cf		 mov	 ecx, edi
  00332	56		 push	 esi
  00333	0f 11 00	 movups	 XMMWORD PTR [eax], xmm0
  00336	8d 45 84	 lea	 eax, DWORD PTR _memDC$[ebp]
  00339	50		 push	 eax
  0033a	e8 00 00 00 00	 call	 ?PaintItems@CGfxOutBarCtrl@@QAEXPAVCDC@@HVCRect@@@Z ; CGfxOutBarCtrl::PaintItems
$LN14@AnimateFol:

; 2352 : 		DrawFolder(pDC, iTo, frc, false);

  0033f	0f 10 45 e0	 movups	 xmm0, XMMWORD PTR _frc$[ebp]
  00343	6a 00		 push	 0
  00345	83 ec 10	 sub	 esp, 16			; 00000010H
  00348	8b cf		 mov	 ecx, edi
  0034a	8b c4		 mov	 eax, esp
  0034c	56		 push	 esi
  0034d	0f 11 00	 movups	 XMMWORD PTR [eax], xmm0
  00350	8d 45 84	 lea	 eax, DWORD PTR _memDC$[ebp]
  00353	50		 push	 eax
  00354	e8 00 00 00 00	 call	 ?DrawFolder@CGfxOutBarCtrl@@IAEXPAVCDC@@HVCRect@@_N@Z ; CGfxOutBarCtrl::DrawFolder

; 2394 : 		GetFolderRect(iFrom, rcFrom);

  00359	8d 45 a0	 lea	 eax, DWORD PTR _rcFrom$3[ebp]
  0035c	0f 57 c0	 xorps	 xmm0, xmm0
  0035f	50		 push	 eax
  00360	ff 75 98	 push	 DWORD PTR _iFrom$GSCopy$1$[ebp]
  00363	8b cf		 mov	 ecx, edi
; File C:\Program Files (x86)\Microsoft Visual Studio\2019\Community\VC\Tools\MSVC\14.29.30133\atlmfc\include\atltypes.h

; 528  : 	left = 0;

  00365	0f 11 45 a0	 movups	 XMMWORD PTR _rcFrom$3[ebp], xmm0
  00369	0f 11 45 b0	 movups	 XMMWORD PTR _rcTo$7[ebp], xmm0
; File D:\git\src\IBK\IBK_DRFN\ProjSrc\SrcDrfn\Chart\MULTICHART\control\GfxOutBarCtrl.cpp

; 2394 : 		GetFolderRect(iFrom, rcFrom);

  0036d	e8 00 00 00 00	 call	 ?GetFolderRect@CGfxOutBarCtrl@@QBE_NHAAVCRect@@@Z ; CGfxOutBarCtrl::GetFolderRect

; 2395 : 		GetFolderRect(iTo, rcTo);

  00372	8d 45 b0	 lea	 eax, DWORD PTR _rcTo$7[ebp]
  00375	8b cf		 mov	 ecx, edi
  00377	50		 push	 eax
  00378	56		 push	 esi
  00379	e8 00 00 00 00	 call	 ?GetFolderRect@CGfxOutBarCtrl@@QBE_NHAAVCRect@@@Z ; CGfxOutBarCtrl::GetFolderRect
; File C:\Program Files (x86)\Microsoft Visual Studio\2019\Community\VC\Tools\MSVC\14.29.30133\atlmfc\include\atltypes.h

; 581  : 	return bottom - top;

  0037e	8b 4d ac	 mov	 ecx, DWORD PTR _rcFrom$3[ebp+12]
  00381	2b 4d a4	 sub	 ecx, DWORD PTR _rcFrom$3[ebp+4]
; File D:\git\src\IBK\IBK_DRFN\ProjSrc\SrcDrfn\Chart\MULTICHART\control\GfxOutBarCtrl.cpp

; 2397 : 		for (int y = rcTo.top - fh; y > rcFrom.bottom; y -= fh)

  00384	8b 75 b4	 mov	 esi, DWORD PTR _rcTo$7[ebp+4]
  00387	2b f1		 sub	 esi, ecx
; File C:\Program Files (x86)\Microsoft Visual Studio\2019\Community\VC\Tools\MSVC\14.29.30133\atlmfc\include\atltypes.h

; 581  : 	return bottom - top;

  00389	89 4d 94	 mov	 DWORD PTR _fh$1$[ebp], ecx
; File D:\git\src\IBK\IBK_DRFN\ProjSrc\SrcDrfn\Chart\MULTICHART\control\GfxOutBarCtrl.cpp

; 2397 : 		for (int y = rcTo.top - fh; y > rcFrom.bottom; y -= fh)

  0038c	89 75 98	 mov	 DWORD PTR _y$1$[ebp], esi
  0038f	3b 75 ac	 cmp	 esi, DWORD PTR _rcFrom$3[ebp+12]
  00392	0f 8e 0e 03 00
	00		 jle	 $LN6@AnimateFol
  00398	0f 1f 84 00 00
	00 00 00	 npad	 8
$LL4@AnimateFol:
; File C:\Program Files (x86)\Microsoft Visual Studio\2019\Community\VC\Tools\MSVC\14.29.30133\atlmfc\include\afxwin1.inl

; 361  : 	{ ASSERT(m_hDC != NULL); return (CBitmap*) SelectGdiObject(m_hDC, pBitmap->GetSafeHandle()); }

  003a0	ff b5 78 ff ff
	ff		 push	 DWORD PTR _bmpFrom$[ebp+4]
  003a6	ff 75 88	 push	 DWORD PTR _memDC$[ebp+4]
  003a9	e8 00 00 00 00	 call	 ?SelectGdiObject@CDC@@KGPAVCGdiObject@@PAUHDC__@@PAX@Z ; CDC::SelectGdiObject
; File D:\git\src\IBK\IBK_DRFN\ProjSrc\SrcDrfn\Chart\MULTICHART\control\GfxOutBarCtrl.cpp

; 2400 : 			dc.BitBlt(rc.left, rcFrom.bottom + 1, rc.Width(), y - rcFrom.bottom - 1, pDC, 0,fh, SRCCOPY);

  003ae	8b 45 ac	 mov	 eax, DWORD PTR _rcFrom$3[ebp+12]
  003b1	2b f0		 sub	 esi, eax
; File C:\Program Files (x86)\Microsoft Visual Studio\2019\Community\VC\Tools\MSVC\14.29.30133\atlmfc\include\atltypes.h

; 576  : 	return right - left;

  003b3	8b 4d d8	 mov	 ecx, DWORD PTR _rc$[ebp+8]
; File D:\git\src\IBK\IBK_DRFN\ProjSrc\SrcDrfn\Chart\MULTICHART\control\GfxOutBarCtrl.cpp

; 2400 : 			dc.BitBlt(rc.left, rcFrom.bottom + 1, rc.Width(), y - rcFrom.bottom - 1, pDC, 0,fh, SRCCOPY);

  003b6	4e		 dec	 esi
; File C:\Program Files (x86)\Microsoft Visual Studio\2019\Community\VC\Tools\MSVC\14.29.30133\atlmfc\include\atltypes.h

; 576  : 	return right - left;

  003b7	8b 55 d0	 mov	 edx, DWORD PTR _rc$[ebp]
; File D:\git\src\IBK\IBK_DRFN\ProjSrc\SrcDrfn\Chart\MULTICHART\control\GfxOutBarCtrl.cpp

; 2400 : 			dc.BitBlt(rc.left, rcFrom.bottom + 1, rc.Width(), y - rcFrom.bottom - 1, pDC, 0,fh, SRCCOPY);

  003ba	40		 inc	 eax
; File C:\Program Files (x86)\Microsoft Visual Studio\2019\Community\VC\Tools\MSVC\14.29.30133\atlmfc\include\afxwin1.inl

; 552  : 	{ ASSERT(m_hDC != NULL); return ::BitBlt(m_hDC, x, y, nWidth, nHeight,

  003bb	68 20 00 cc 00	 push	 13369376		; 00cc0020H
  003c0	ff 75 94	 push	 DWORD PTR _fh$1$[ebp]
; File C:\Program Files (x86)\Microsoft Visual Studio\2019\Community\VC\Tools\MSVC\14.29.30133\atlmfc\include\atltypes.h

; 576  : 	return right - left;

  003c3	2b ca		 sub	 ecx, edx
; File C:\Program Files (x86)\Microsoft Visual Studio\2019\Community\VC\Tools\MSVC\14.29.30133\atlmfc\include\afxwin1.inl

; 552  : 	{ ASSERT(m_hDC != NULL); return ::BitBlt(m_hDC, x, y, nWidth, nHeight,

  003c5	6a 00		 push	 0
  003c7	ff 75 88	 push	 DWORD PTR _memDC$[ebp+4]
  003ca	56		 push	 esi
  003cb	51		 push	 ecx
  003cc	50		 push	 eax
  003cd	52		 push	 edx
  003ce	ff b5 60 ff ff
	ff		 push	 DWORD PTR _dc$[ebp+4]
  003d4	ff 15 00 00 00
	00		 call	 DWORD PTR __imp__BitBlt@36

; 361  : 	{ ASSERT(m_hDC != NULL); return (CBitmap*) SelectGdiObject(m_hDC, pBitmap->GetSafeHandle()); }

  003da	ff 75 80	 push	 DWORD PTR _bmpTo$[ebp+4]
  003dd	ff 75 88	 push	 DWORD PTR _memDC$[ebp+4]
  003e0	e8 00 00 00 00	 call	 ?SelectGdiObject@CDC@@KGPAVCGdiObject@@PAUHDC__@@PAX@Z ; CDC::SelectGdiObject
; File D:\git\src\IBK\IBK_DRFN\ProjSrc\SrcDrfn\Chart\MULTICHART\control\GfxOutBarCtrl.cpp

; 2402 : 			dc.BitBlt(rc.left, y, rc.Width(), rc.bottom - y + fh, pDC, 0,0, SRCCOPY);

  003e5	8b 55 dc	 mov	 edx, DWORD PTR _rc$[ebp+12]
  003e8	8b 75 98	 mov	 esi, DWORD PTR _y$1$[ebp]
  003eb	2b d6		 sub	 edx, esi
  003ed	03 55 94	 add	 edx, DWORD PTR _fh$1$[ebp]
; File C:\Program Files (x86)\Microsoft Visual Studio\2019\Community\VC\Tools\MSVC\14.29.30133\atlmfc\include\atltypes.h

; 576  : 	return right - left;

  003f0	8b 45 d8	 mov	 eax, DWORD PTR _rc$[ebp+8]
  003f3	8b 4d d0	 mov	 ecx, DWORD PTR _rc$[ebp]
  003f6	2b c1		 sub	 eax, ecx
; File C:\Program Files (x86)\Microsoft Visual Studio\2019\Community\VC\Tools\MSVC\14.29.30133\atlmfc\include\afxwin1.inl

; 552  : 	{ ASSERT(m_hDC != NULL); return ::BitBlt(m_hDC, x, y, nWidth, nHeight,

  003f8	68 20 00 cc 00	 push	 13369376		; 00cc0020H
  003fd	6a 00		 push	 0
  003ff	6a 00		 push	 0
  00401	ff 75 88	 push	 DWORD PTR _memDC$[ebp+4]
  00404	52		 push	 edx
  00405	50		 push	 eax
  00406	56		 push	 esi
  00407	51		 push	 ecx
  00408	ff b5 60 ff ff
	ff		 push	 DWORD PTR _dc$[ebp+4]
  0040e	ff 15 00 00 00
	00		 call	 DWORD PTR __imp__BitBlt@36
; File D:\git\src\IBK\IBK_DRFN\ProjSrc\SrcDrfn\Chart\MULTICHART\control\GfxOutBarCtrl.cpp

; 2403 : 			Sleep(lAnimationTickCount);

  00414	ff b7 f0 00 00
	00		 push	 DWORD PTR [edi+240]
  0041a	ff 15 00 00 00
	00		 call	 DWORD PTR __imp__Sleep@4
  00420	2b 75 94	 sub	 esi, DWORD PTR _fh$1$[ebp]
  00423	89 75 98	 mov	 DWORD PTR _y$1$[ebp], esi
  00426	3b 75 ac	 cmp	 esi, DWORD PTR _rcFrom$3[ebp+12]
  00429	0f 8f 71 ff ff
	ff		 jg	 $LL4@AnimateFol

; 2404 : 		}
; 2405 : 	}

  0042f	e9 72 02 00 00	 jmp	 $LN6@AnimateFol
$LN8@AnimateFol:
; File C:\Program Files (x86)\Microsoft Visual Studio\2019\Community\VC\Tools\MSVC\14.29.30133\atlmfc\include\atltypes.h

; 581  : 	return bottom - top;

  00434	8b 45 ec	 mov	 eax, DWORD PTR _frc$[ebp+12]
  00437	2b 45 e4	 sub	 eax, DWORD PTR _frc$[ebp+4]

; 657  : 	::SetRect(this, x1, y1, x2, y2);

  0043a	50		 push	 eax

; 576  : 	return right - left;

  0043b	8b 45 e8	 mov	 eax, DWORD PTR _frc$[ebp+8]
  0043e	2b 45 e0	 sub	 eax, DWORD PTR _frc$[ebp]

; 657  : 	::SetRect(this, x1, y1, x2, y2);

  00441	50		 push	 eax
  00442	6a 00		 push	 0
  00444	6a 00		 push	 0
  00446	8d 45 e0	 lea	 eax, DWORD PTR _frc$[ebp]
  00449	50		 push	 eax
  0044a	ff 15 00 00 00
	00		 call	 DWORD PTR __imp__SetRect@20
; File D:\git\src\IBK\IBK_DRFN\ProjSrc\SrcDrfn\Chart\MULTICHART\control\GfxOutBarCtrl.cpp

; 2357 : 		rc1.top += frc.Height();

  00450	8b 4d ec	 mov	 ecx, DWORD PTR _frc$[ebp+12]
  00453	2b 4d e4	 sub	 ecx, DWORD PTR _frc$[ebp+4]

; 2358 : 		rc1.bottom += frc.Height() * 2;

  00456	8b 45 cc	 mov	 eax, DWORD PTR _rc1$[ebp+12]

; 2359 : 
; 2360 : 		// bds     (040305)
; 2361 : 		//rc1.left += 5;
; 2362 : 
; 2363 : 		pDC->FillSolidRect(rc1, crBackGroundColor);

  00459	ff b7 80 00 00
	00		 push	 DWORD PTR [edi+128]
  0045f	01 4d c4	 add	 DWORD PTR _rc1$[ebp+4], ecx
  00462	8d 04 48	 lea	 eax, DWORD PTR [eax+ecx*2]
  00465	89 45 cc	 mov	 DWORD PTR _rc1$[ebp+12], eax
  00468	8d 4d 84	 lea	 ecx, DWORD PTR _memDC$[ebp]
  0046b	8d 45 c0	 lea	 eax, DWORD PTR _rc1$[ebp]
  0046e	50		 push	 eax
  0046f	e8 00 00 00 00	 call	 ?FillSolidRect@CDC@@QAEXPBUtagRECT@@K@Z ; CDC::FillSolidRect

; 2364 : 		if (pWnd1) 

  00474	8b 75 bc	 mov	 esi, DWORD PTR _pWnd1$1$[ebp]
  00477	85 f6		 test	 esi, esi
  00479	74 69		 je	 SHORT $LN16@AnimateFol
; File C:\Program Files (x86)\Microsoft Visual Studio\2019\Community\VC\Tools\MSVC\14.29.30133\atlmfc\include\atltypes.h

; 581  : 	return bottom - top;

  0047b	8b 45 ec	 mov	 eax, DWORD PTR _frc$[ebp+12]
; File D:\git\src\IBK\IBK_DRFN\ProjSrc\SrcDrfn\Chart\MULTICHART\control\GfxOutBarCtrl.cpp

; 2366 : 			CPoint ovpt = pDC->SetViewportOrg(0, frc.Height());

  0047e	8d 4d 84	 lea	 ecx, DWORD PTR _memDC$[ebp]
; File C:\Program Files (x86)\Microsoft Visual Studio\2019\Community\VC\Tools\MSVC\14.29.30133\atlmfc\include\atltypes.h

; 581  : 	return bottom - top;

  00481	2b 45 e4	 sub	 eax, DWORD PTR _frc$[ebp+4]
; File D:\git\src\IBK\IBK_DRFN\ProjSrc\SrcDrfn\Chart\MULTICHART\control\GfxOutBarCtrl.cpp

; 2366 : 			CPoint ovpt = pDC->SetViewportOrg(0, frc.Height());

  00484	50		 push	 eax
  00485	6a 00		 push	 0
  00487	8d 45 a8	 lea	 eax, DWORD PTR _ovpt$4[ebp]
  0048a	50		 push	 eax
  0048b	8b 45 84	 mov	 eax, DWORD PTR _memDC$[ebp]
  0048e	ff 50 40	 call	 DWORD PTR [eax+64]

; 2367 : 			BOOL bPrev = pWnd1->ShowWindow(SW_SHOW);

  00491	6a 05		 push	 5
  00493	8b ce		 mov	 ecx, esi
  00495	e8 00 00 00 00	 call	 ?ShowWindow@CWnd@@QAEHH@Z ; CWnd::ShowWindow
; File C:\Program Files (x86)\Microsoft Visual Studio\2019\Community\VC\Tools\MSVC\14.29.30133\atlmfc\include\afxwin2.inl

; 32   : 	{ ASSERT(::IsWindow(m_hWnd)); return ::SendMessage(m_hWnd, message, wParam, lParam); }

  0049a	6a 00		 push	 0
  0049c	ff 75 88	 push	 DWORD PTR _memDC$[ebp+4]
; File D:\git\src\IBK\IBK_DRFN\ProjSrc\SrcDrfn\Chart\MULTICHART\control\GfxOutBarCtrl.cpp

; 2367 : 			BOOL bPrev = pWnd1->ShowWindow(SW_SHOW);

  0049f	8b f0		 mov	 esi, eax
; File C:\Program Files (x86)\Microsoft Visual Studio\2019\Community\VC\Tools\MSVC\14.29.30133\atlmfc\include\afxwin2.inl

; 32   : 	{ ASSERT(::IsWindow(m_hWnd)); return ::SendMessage(m_hWnd, message, wParam, lParam); }

  004a1	8b 45 bc	 mov	 eax, DWORD PTR _pWnd1$1$[ebp]
  004a4	6a 14		 push	 20			; 00000014H
  004a6	ff 70 20	 push	 DWORD PTR [eax+32]
  004a9	ff 15 00 00 00
	00		 call	 DWORD PTR __imp__SendMessageA@16
  004af	8b 45 bc	 mov	 eax, DWORD PTR _pWnd1$1$[ebp]
  004b2	6a 00		 push	 0
  004b4	ff 75 88	 push	 DWORD PTR _memDC$[ebp+4]
  004b7	6a 0f		 push	 15			; 0000000fH
  004b9	ff 70 20	 push	 DWORD PTR [eax+32]
  004bc	ff 15 00 00 00
	00		 call	 DWORD PTR __imp__SendMessageA@16
; File D:\git\src\IBK\IBK_DRFN\ProjSrc\SrcDrfn\Chart\MULTICHART\control\GfxOutBarCtrl.cpp

; 2370 : 			if (!bPrev) pWnd1->ShowWindow(SW_HIDE);

  004c2	85 f6		 test	 esi, esi
  004c4	75 09		 jne	 SHORT $LN18@AnimateFol
  004c6	8b 4d bc	 mov	 ecx, DWORD PTR _pWnd1$1$[ebp]
  004c9	56		 push	 esi
  004ca	e8 00 00 00 00	 call	 ?ShowWindow@CWnd@@QAEHH@Z ; CWnd::ShowWindow
$LN18@AnimateFol:
; File C:\Program Files (x86)\Microsoft Visual Studio\2019\Community\VC\Tools\MSVC\14.29.30133\atlmfc\include\afxwin1.inl

; 423  : 	{ ASSERT(m_hDC != NULL); return SetViewportOrg(point.x, point.y); }

  004cf	ff 75 ac	 push	 DWORD PTR _ovpt$4[ebp+4]
  004d2	8d 45 b8	 lea	 eax, DWORD PTR $T8[ebp]
  004d5	ff 75 a8	 push	 DWORD PTR _ovpt$4[ebp]
  004d8	8d 4d 84	 lea	 ecx, DWORD PTR _memDC$[ebp]
  004db	50		 push	 eax
  004dc	8b 45 84	 mov	 eax, DWORD PTR _memDC$[ebp]
  004df	ff 50 40	 call	 DWORD PTR [eax+64]
; File D:\git\src\IBK\IBK_DRFN\ProjSrc\SrcDrfn\Chart\MULTICHART\control\GfxOutBarCtrl.cpp

; 2372 : 		}

  004e2	eb 1a		 jmp	 SHORT $LN17@AnimateFol
$LN16@AnimateFol:

; 2373 : 		else PaintItems(pDC, iFrom, rc1);

  004e4	0f 10 45 c0	 movups	 xmm0, XMMWORD PTR _rc1$[ebp]
  004e8	83 ec 10	 sub	 esp, 16			; 00000010H
  004eb	8b cf		 mov	 ecx, edi
  004ed	8b c4		 mov	 eax, esp
  004ef	ff 75 98	 push	 DWORD PTR _iFrom$GSCopy$1$[ebp]
  004f2	0f 11 00	 movups	 XMMWORD PTR [eax], xmm0
  004f5	8d 45 84	 lea	 eax, DWORD PTR _memDC$[ebp]
  004f8	50		 push	 eax
  004f9	e8 00 00 00 00	 call	 ?PaintItems@CGfxOutBarCtrl@@QAEXPAVCDC@@HVCRect@@@Z ; CGfxOutBarCtrl::PaintItems
$LN17@AnimateFol:

; 2374 : 
; 2375 : 		DrawFolder(pDC, iFrom, frc, false);

  004fe	0f 10 45 e0	 movups	 xmm0, XMMWORD PTR _frc$[ebp]
  00502	6a 00		 push	 0
  00504	83 ec 10	 sub	 esp, 16			; 00000010H
  00507	8b cf		 mov	 ecx, edi
  00509	8b c4		 mov	 eax, esp
  0050b	ff 75 98	 push	 DWORD PTR _iFrom$GSCopy$1$[ebp]
  0050e	0f 11 00	 movups	 XMMWORD PTR [eax], xmm0
  00511	8d 45 84	 lea	 eax, DWORD PTR _memDC$[ebp]
  00514	50		 push	 eax
  00515	e8 00 00 00 00	 call	 ?DrawFolder@CGfxOutBarCtrl@@IAEXPAVCDC@@HVCRect@@_N@Z ; CGfxOutBarCtrl::DrawFolder
; File C:\Program Files (x86)\Microsoft Visual Studio\2019\Community\VC\Tools\MSVC\14.29.30133\atlmfc\include\afxwin1.inl

; 361  : 	{ ASSERT(m_hDC != NULL); return (CBitmap*) SelectGdiObject(m_hDC, pBitmap->GetSafeHandle()); }

  0051a	ff 75 80	 push	 DWORD PTR _bmpTo$[ebp+4]
  0051d	ff 75 88	 push	 DWORD PTR _memDC$[ebp+4]
  00520	e8 00 00 00 00	 call	 ?SelectGdiObject@CDC@@KGPAVCGdiObject@@PAUHDC__@@PAX@Z ; CDC::SelectGdiObject
; File D:\git\src\IBK\IBK_DRFN\ProjSrc\SrcDrfn\Chart\MULTICHART\control\GfxOutBarCtrl.cpp

; 2378 : 		rc1.SetRect(0,0,rc.Width(), rc.Height() + frc.Height() * 2);

  00525	8b 45 ec	 mov	 eax, DWORD PTR _frc$[ebp+12]
  00528	2b 45 e4	 sub	 eax, DWORD PTR _frc$[ebp+4]
  0052b	03 c0		 add	 eax, eax
; File C:\Program Files (x86)\Microsoft Visual Studio\2019\Community\VC\Tools\MSVC\14.29.30133\atlmfc\include\atltypes.h

; 657  : 	::SetRect(this, x1, y1, x2, y2);

  0052d	2b 45 d4	 sub	 eax, DWORD PTR _rc$[ebp+4]
; File D:\git\src\IBK\IBK_DRFN\ProjSrc\SrcDrfn\Chart\MULTICHART\control\GfxOutBarCtrl.cpp

; 2378 : 		rc1.SetRect(0,0,rc.Width(), rc.Height() + frc.Height() * 2);

  00530	03 45 dc	 add	 eax, DWORD PTR _rc$[ebp+12]
; File C:\Program Files (x86)\Microsoft Visual Studio\2019\Community\VC\Tools\MSVC\14.29.30133\atlmfc\include\atltypes.h

; 657  : 	::SetRect(this, x1, y1, x2, y2);

  00533	50		 push	 eax

; 576  : 	return right - left;

  00534	8b 45 d8	 mov	 eax, DWORD PTR _rc$[ebp+8]
  00537	2b 45 d0	 sub	 eax, DWORD PTR _rc$[ebp]

; 657  : 	::SetRect(this, x1, y1, x2, y2);

  0053a	50		 push	 eax
  0053b	6a 00		 push	 0
  0053d	6a 00		 push	 0
  0053f	8d 45 c0	 lea	 eax, DWORD PTR _rc1$[ebp]
  00542	50		 push	 eax
  00543	ff 15 00 00 00
	00		 call	 DWORD PTR __imp__SetRect@20
; File D:\git\src\IBK\IBK_DRFN\ProjSrc\SrcDrfn\Chart\MULTICHART\control\GfxOutBarCtrl.cpp

; 2379 : 		pDC->FillSolidRect(rc1, crBackGroundColor);

  00549	ff b7 80 00 00
	00		 push	 DWORD PTR [edi+128]
  0054f	8d 45 c0	 lea	 eax, DWORD PTR _rc1$[ebp]
  00552	50		 push	 eax
  00553	8d 4d 84	 lea	 ecx, DWORD PTR _memDC$[ebp]
  00556	e8 00 00 00 00	 call	 ?FillSolidRect@CDC@@QAEXPBUtagRECT@@K@Z ; CDC::FillSolidRect

; 2380 : 
; 2381 : 		if (pWnd2) 

  0055b	8b 45 9c	 mov	 eax, DWORD PTR _pWnd2$1$[ebp]
  0055e	85 c0		 test	 eax, eax
  00560	74 40		 je	 SHORT $LN19@AnimateFol

; 2383 : 			BOOL bPrev = pWnd2->ShowWindow(SW_SHOW);

  00562	6a 05		 push	 5
  00564	8b c8		 mov	 ecx, eax
  00566	e8 00 00 00 00	 call	 ?ShowWindow@CWnd@@QAEHH@Z ; CWnd::ShowWindow
; File C:\Program Files (x86)\Microsoft Visual Studio\2019\Community\VC\Tools\MSVC\14.29.30133\atlmfc\include\afxwin2.inl

; 32   : 	{ ASSERT(::IsWindow(m_hWnd)); return ::SendMessage(m_hWnd, message, wParam, lParam); }

  0056b	6a 00		 push	 0
  0056d	ff 75 88	 push	 DWORD PTR _memDC$[ebp+4]
; File D:\git\src\IBK\IBK_DRFN\ProjSrc\SrcDrfn\Chart\MULTICHART\control\GfxOutBarCtrl.cpp

; 2383 : 			BOOL bPrev = pWnd2->ShowWindow(SW_SHOW);

  00570	8b f0		 mov	 esi, eax
; File C:\Program Files (x86)\Microsoft Visual Studio\2019\Community\VC\Tools\MSVC\14.29.30133\atlmfc\include\afxwin2.inl

; 32   : 	{ ASSERT(::IsWindow(m_hWnd)); return ::SendMessage(m_hWnd, message, wParam, lParam); }

  00572	8b 45 9c	 mov	 eax, DWORD PTR _pWnd2$1$[ebp]
  00575	6a 14		 push	 20			; 00000014H
  00577	ff 70 20	 push	 DWORD PTR [eax+32]
  0057a	ff 15 00 00 00
	00		 call	 DWORD PTR __imp__SendMessageA@16
  00580	8b 45 9c	 mov	 eax, DWORD PTR _pWnd2$1$[ebp]
  00583	6a 00		 push	 0
  00585	ff 75 88	 push	 DWORD PTR _memDC$[ebp+4]
  00588	6a 0f		 push	 15			; 0000000fH
  0058a	ff 70 20	 push	 DWORD PTR [eax+32]
  0058d	ff 15 00 00 00
	00		 call	 DWORD PTR __imp__SendMessageA@16
; File D:\git\src\IBK\IBK_DRFN\ProjSrc\SrcDrfn\Chart\MULTICHART\control\GfxOutBarCtrl.cpp

; 2386 : 			if (!bPrev) pWnd2->ShowWindow(SW_HIDE);

  00593	85 f6		 test	 esi, esi
  00595	75 25		 jne	 SHORT $LN22@AnimateFol
  00597	8b 4d 9c	 mov	 ecx, DWORD PTR _pWnd2$1$[ebp]
  0059a	56		 push	 esi
  0059b	e8 00 00 00 00	 call	 ?ShowWindow@CWnd@@QAEHH@Z ; CWnd::ShowWindow

; 2387 : 		}

  005a0	eb 1a		 jmp	 SHORT $LN22@AnimateFol
$LN19@AnimateFol:

; 2388 : 		else PaintItems(pDC, iTo, rc1);

  005a2	0f 10 45 c0	 movups	 xmm0, XMMWORD PTR _rc1$[ebp]
  005a6	83 ec 10	 sub	 esp, 16			; 00000010H
  005a9	8b cf		 mov	 ecx, edi
  005ab	8b c4		 mov	 eax, esp
  005ad	ff 75 94	 push	 DWORD PTR _iTo$GSCopy$1$[ebp]
  005b0	0f 11 00	 movups	 XMMWORD PTR [eax], xmm0
  005b3	8d 45 84	 lea	 eax, DWORD PTR _memDC$[ebp]
  005b6	50		 push	 eax
  005b7	e8 00 00 00 00	 call	 ?PaintItems@CGfxOutBarCtrl@@QAEXPAVCDC@@HVCRect@@@Z ; CGfxOutBarCtrl::PaintItems
$LN22@AnimateFol:

; 2409 : 		GetFolderRect(iFrom, rcFrom);

  005bc	8d 45 a0	 lea	 eax, DWORD PTR _rcFrom$2[ebp]
  005bf	0f 57 c0	 xorps	 xmm0, xmm0
  005c2	50		 push	 eax
  005c3	ff 75 98	 push	 DWORD PTR _iFrom$GSCopy$1$[ebp]
  005c6	8b cf		 mov	 ecx, edi
; File C:\Program Files (x86)\Microsoft Visual Studio\2019\Community\VC\Tools\MSVC\14.29.30133\atlmfc\include\atltypes.h

; 528  : 	left = 0;

  005c8	0f 11 45 a0	 movups	 XMMWORD PTR _rcFrom$2[ebp], xmm0
  005cc	0f 11 45 b0	 movups	 XMMWORD PTR _rcTo$6[ebp], xmm0
; File D:\git\src\IBK\IBK_DRFN\ProjSrc\SrcDrfn\Chart\MULTICHART\control\GfxOutBarCtrl.cpp

; 2409 : 		GetFolderRect(iFrom, rcFrom);

  005d0	e8 00 00 00 00	 call	 ?GetFolderRect@CGfxOutBarCtrl@@QBE_NHAAVCRect@@@Z ; CGfxOutBarCtrl::GetFolderRect
; File C:\Program Files (x86)\Microsoft Visual Studio\2019\Community\VC\Tools\MSVC\14.29.30133\atlmfc\include\atltypes.h

; 581  : 	return bottom - top;

  005d5	8b 55 ac	 mov	 edx, DWORD PTR _rcFrom$2[ebp+12]
; File D:\git\src\IBK\IBK_DRFN\ProjSrc\SrcDrfn\Chart\MULTICHART\control\GfxOutBarCtrl.cpp

; 2411 : 		rcTo.SetRect(rc.left, rc.bottom, rc.right, rc.bottom - fh);

  005d8	8b 4d dc	 mov	 ecx, DWORD PTR _rc$[ebp+12]
  005db	8b c1		 mov	 eax, ecx
; File C:\Program Files (x86)\Microsoft Visual Studio\2019\Community\VC\Tools\MSVC\14.29.30133\atlmfc\include\atltypes.h

; 581  : 	return bottom - top;

  005dd	2b 55 a4	 sub	 edx, DWORD PTR _rcFrom$2[ebp+4]
; File D:\git\src\IBK\IBK_DRFN\ProjSrc\SrcDrfn\Chart\MULTICHART\control\GfxOutBarCtrl.cpp

; 2411 : 		rcTo.SetRect(rc.left, rc.bottom, rc.right, rc.bottom - fh);

  005e0	2b c2		 sub	 eax, edx
; File C:\Program Files (x86)\Microsoft Visual Studio\2019\Community\VC\Tools\MSVC\14.29.30133\atlmfc\include\atltypes.h

; 581  : 	return bottom - top;

  005e2	89 55 94	 mov	 DWORD PTR _fh$1$[ebp], edx

; 657  : 	::SetRect(this, x1, y1, x2, y2);

  005e5	50		 push	 eax
  005e6	ff 75 d8	 push	 DWORD PTR _rc$[ebp+8]
  005e9	8d 45 b0	 lea	 eax, DWORD PTR _rcTo$6[ebp]
  005ec	51		 push	 ecx
  005ed	ff 75 d0	 push	 DWORD PTR _rc$[ebp]
  005f0	50		 push	 eax
  005f1	ff 15 00 00 00
	00		 call	 DWORD PTR __imp__SetRect@20
; File D:\git\src\IBK\IBK_DRFN\ProjSrc\SrcDrfn\Chart\MULTICHART\control\GfxOutBarCtrl.cpp

; 2412 : 		for (int y = rcFrom.top + 1; y < rcTo.top - fh; y += fh)

  005f7	8b 75 a4	 mov	 esi, DWORD PTR _rcFrom$2[ebp+4]
  005fa	8b 45 b4	 mov	 eax, DWORD PTR _rcTo$6[ebp+4]
  005fd	46		 inc	 esi
  005fe	8b 4d 94	 mov	 ecx, DWORD PTR _fh$1$[ebp]
  00601	2b c1		 sub	 eax, ecx
  00603	89 75 98	 mov	 DWORD PTR _y$1$[ebp], esi
  00606	3b f0		 cmp	 esi, eax
  00608	0f 8d 98 00 00
	00		 jge	 $LN6@AnimateFol
  0060e	8d 04 09	 lea	 eax, DWORD PTR [ecx+ecx]
  00611	89 45 9c	 mov	 DWORD PTR tv1607[ebp], eax
$LL7@AnimateFol:
; File C:\Program Files (x86)\Microsoft Visual Studio\2019\Community\VC\Tools\MSVC\14.29.30133\atlmfc\include\afxwin1.inl

; 361  : 	{ ASSERT(m_hDC != NULL); return (CBitmap*) SelectGdiObject(m_hDC, pBitmap->GetSafeHandle()); }

  00614	ff 75 80	 push	 DWORD PTR _bmpTo$[ebp+4]
  00617	ff 75 88	 push	 DWORD PTR _memDC$[ebp+4]
  0061a	e8 00 00 00 00	 call	 ?SelectGdiObject@CDC@@KGPAVCGdiObject@@PAUHDC__@@PAX@Z ; CDC::SelectGdiObject
; File C:\Program Files (x86)\Microsoft Visual Studio\2019\Community\VC\Tools\MSVC\14.29.30133\atlmfc\include\atltypes.h

; 576  : 	return right - left;

  0061f	8b 45 d8	 mov	 eax, DWORD PTR _rc$[ebp+8]
; File D:\git\src\IBK\IBK_DRFN\ProjSrc\SrcDrfn\Chart\MULTICHART\control\GfxOutBarCtrl.cpp

; 2415 : 			dc.BitBlt(rc.left, rcFrom.top, rc.Width(), y - rcFrom.top - 1, pDC, 0, fh*2, SRCCOPY);

  00622	8b d6		 mov	 edx, esi
  00624	8b 75 a4	 mov	 esi, DWORD PTR _rcFrom$2[ebp+4]
  00627	2b d6		 sub	 edx, esi
; File C:\Program Files (x86)\Microsoft Visual Studio\2019\Community\VC\Tools\MSVC\14.29.30133\atlmfc\include\atltypes.h

; 576  : 	return right - left;

  00629	8b 4d d0	 mov	 ecx, DWORD PTR _rc$[ebp]
; File D:\git\src\IBK\IBK_DRFN\ProjSrc\SrcDrfn\Chart\MULTICHART\control\GfxOutBarCtrl.cpp

; 2415 : 			dc.BitBlt(rc.left, rcFrom.top, rc.Width(), y - rcFrom.top - 1, pDC, 0, fh*2, SRCCOPY);

  0062c	4a		 dec	 edx
; File C:\Program Files (x86)\Microsoft Visual Studio\2019\Community\VC\Tools\MSVC\14.29.30133\atlmfc\include\afxwin1.inl

; 552  : 	{ ASSERT(m_hDC != NULL); return ::BitBlt(m_hDC, x, y, nWidth, nHeight,

  0062d	68 20 00 cc 00	 push	 13369376		; 00cc0020H
  00632	ff 75 9c	 push	 DWORD PTR tv1607[ebp]
; File C:\Program Files (x86)\Microsoft Visual Studio\2019\Community\VC\Tools\MSVC\14.29.30133\atlmfc\include\atltypes.h

; 576  : 	return right - left;

  00635	2b c1		 sub	 eax, ecx
; File C:\Program Files (x86)\Microsoft Visual Studio\2019\Community\VC\Tools\MSVC\14.29.30133\atlmfc\include\afxwin1.inl

; 552  : 	{ ASSERT(m_hDC != NULL); return ::BitBlt(m_hDC, x, y, nWidth, nHeight,

  00637	6a 00		 push	 0
  00639	ff 75 88	 push	 DWORD PTR _memDC$[ebp+4]
  0063c	52		 push	 edx
  0063d	50		 push	 eax
  0063e	56		 push	 esi
  0063f	51		 push	 ecx
  00640	ff b5 60 ff ff
	ff		 push	 DWORD PTR _dc$[ebp+4]
  00646	ff 15 00 00 00
	00		 call	 DWORD PTR __imp__BitBlt@36

; 361  : 	{ ASSERT(m_hDC != NULL); return (CBitmap*) SelectGdiObject(m_hDC, pBitmap->GetSafeHandle()); }

  0064c	ff b5 78 ff ff
	ff		 push	 DWORD PTR _bmpFrom$[ebp+4]
  00652	ff 75 88	 push	 DWORD PTR _memDC$[ebp+4]
  00655	e8 00 00 00 00	 call	 ?SelectGdiObject@CDC@@KGPAVCGdiObject@@PAUHDC__@@PAX@Z ; CDC::SelectGdiObject
; File D:\git\src\IBK\IBK_DRFN\ProjSrc\SrcDrfn\Chart\MULTICHART\control\GfxOutBarCtrl.cpp

; 2417 : 			dc.BitBlt(rc.left, y, rc.Width(), rc.bottom - y, pDC, 0,0, SRCCOPY);

  0065a	8b 55 dc	 mov	 edx, DWORD PTR _rc$[ebp+12]
  0065d	8b 75 98	 mov	 esi, DWORD PTR _y$1$[ebp]
  00660	2b d6		 sub	 edx, esi
; File C:\Program Files (x86)\Microsoft Visual Studio\2019\Community\VC\Tools\MSVC\14.29.30133\atlmfc\include\atltypes.h

; 576  : 	return right - left;

  00662	8b 45 d8	 mov	 eax, DWORD PTR _rc$[ebp+8]
  00665	8b 4d d0	 mov	 ecx, DWORD PTR _rc$[ebp]
  00668	2b c1		 sub	 eax, ecx
; File C:\Program Files (x86)\Microsoft Visual Studio\2019\Community\VC\Tools\MSVC\14.29.30133\atlmfc\include\afxwin1.inl

; 552  : 	{ ASSERT(m_hDC != NULL); return ::BitBlt(m_hDC, x, y, nWidth, nHeight,

  0066a	68 20 00 cc 00	 push	 13369376		; 00cc0020H
  0066f	6a 00		 push	 0
  00671	6a 00		 push	 0
  00673	ff 75 88	 push	 DWORD PTR _memDC$[ebp+4]
  00676	52		 push	 edx
  00677	50		 push	 eax
  00678	56		 push	 esi
  00679	51		 push	 ecx
  0067a	ff b5 60 ff ff
	ff		 push	 DWORD PTR _dc$[ebp+4]
  00680	ff 15 00 00 00
	00		 call	 DWORD PTR __imp__BitBlt@36
; File D:\git\src\IBK\IBK_DRFN\ProjSrc\SrcDrfn\Chart\MULTICHART\control\GfxOutBarCtrl.cpp

; 2418 : 			Sleep(lAnimationTickCount);

  00686	ff b7 f0 00 00
	00		 push	 DWORD PTR [edi+240]
  0068c	ff 15 00 00 00
	00		 call	 DWORD PTR __imp__Sleep@4
  00692	8b 45 b4	 mov	 eax, DWORD PTR _rcTo$6[ebp+4]
  00695	03 75 94	 add	 esi, DWORD PTR _fh$1$[ebp]
  00698	2b 45 94	 sub	 eax, DWORD PTR _fh$1$[ebp]
  0069b	89 75 98	 mov	 DWORD PTR _y$1$[ebp], esi
  0069e	3b f0		 cmp	 esi, eax
  006a0	0f 8c 6e ff ff
	ff		 jl	 $LL7@AnimateFol
$LN6@AnimateFol:
; File C:\Program Files (x86)\Microsoft Visual Studio\2019\Community\VC\Tools\MSVC\14.29.30133\atlmfc\include\afxwin1.inl

; 68   : 	{ return this == NULL ? NULL : m_hObject; }

  006a6	8b 85 70 ff ff
	ff		 mov	 eax, DWORD PTR _obmp$1$[ebp]
  006ac	85 c0		 test	 eax, eax
  006ae	74 03		 je	 SHORT $LN281@AnimateFol
$LN280@AnimateFol:
  006b0	8b 40 04	 mov	 eax, DWORD PTR [eax+4]
$LN281@AnimateFol:

; 361  : 	{ ASSERT(m_hDC != NULL); return (CBitmap*) SelectGdiObject(m_hDC, pBitmap->GetSafeHandle()); }

  006b3	50		 push	 eax
  006b4	ff 75 88	 push	 DWORD PTR _memDC$[ebp+4]
  006b7	e8 00 00 00 00	 call	 ?SelectGdiObject@CDC@@KGPAVCGdiObject@@PAUHDC__@@PAX@Z ; CDC::SelectGdiObject

; 179  : 	{ }

  006bc	8d 8d 7c ff ff
	ff		 lea	 ecx, DWORD PTR _bmpTo$[ebp]
  006c2	c7 85 7c ff ff
	ff 00 00 00 00	 mov	 DWORD PTR _bmpTo$[ebp], OFFSET ??_7CBitmap@@6B@
  006cc	e8 00 00 00 00	 call	 ??1CGdiObject@@UAE@XZ	; CGdiObject::~CGdiObject
  006d1	8d 8d 74 ff ff
	ff		 lea	 ecx, DWORD PTR _bmpFrom$[ebp]
  006d7	c7 85 74 ff ff
	ff 00 00 00 00	 mov	 DWORD PTR _bmpFrom$[ebp], OFFSET ??_7CBitmap@@6B@
  006e1	e8 00 00 00 00	 call	 ??1CGdiObject@@UAE@XZ	; CGdiObject::~CGdiObject
; File D:\git\src\IBK\IBK_DRFN\ProjSrc\SrcDrfn\Chart\MULTICHART\control\GfxOutBarCtrl.cpp

; 2423 : }

  006e6	8d 4d 84	 lea	 ecx, DWORD PTR _memDC$[ebp]
  006e9	e8 00 00 00 00	 call	 ??1CDC@@UAE@XZ		; CDC::~CDC
  006ee	8d 8d 5c ff ff
	ff		 lea	 ecx, DWORD PTR _dc$[ebp]
  006f4	e8 00 00 00 00	 call	 ??1CClientDC@@UAE@XZ	; CClientDC::~CClientDC
  006f9	8b 4d f4	 mov	 ecx, DWORD PTR __$EHRec$[ebp]
  006fc	64 89 0d 00 00
	00 00		 mov	 DWORD PTR fs:0, ecx
  00703	59		 pop	 ecx
  00704	5f		 pop	 edi
  00705	5e		 pop	 esi
  00706	8b 4d f0	 mov	 ecx, DWORD PTR __$ArrayPad$[ebp]
  00709	33 cd		 xor	 ecx, ebp
  0070b	e8 00 00 00 00	 call	 @__security_check_cookie@4
  00710	8b e5		 mov	 esp, ebp
  00712	5d		 pop	 ebp
  00713	c2 08 00	 ret	 8
$LN93@AnimateFol:
; File C:\Program Files (x86)\Microsoft Visual Studio\2019\Community\VC\Tools\MSVC\14.29.30133\atlmfc\include\afxcoll.inl

; 204  : 			AfxThrowInvalidArgException();

  00716	e8 00 00 00 00	 call	 ?AfxThrowInvalidArgException@@YGXXZ ; AfxThrowInvalidArgException
$LN302@AnimateFol:
  0071b	cc		 int	 3
_TEXT	ENDS
;	COMDAT text$x
text$x	SEGMENT
__unwindfunclet$?AnimateFolderScroll@CGfxOutBarCtrl@@QAEXHH@Z$0:
  00000	8d 8d 5c ff ff
	ff		 lea	 ecx, DWORD PTR _dc$[ebp]
  00006	e9 00 00 00 00	 jmp	 ??1CClientDC@@UAE@XZ	; CClientDC::~CClientDC
__unwindfunclet$?AnimateFolderScroll@CGfxOutBarCtrl@@QAEXHH@Z$1:
  0000b	8d 4d 84	 lea	 ecx, DWORD PTR _memDC$[ebp]
  0000e	e9 00 00 00 00	 jmp	 ??1CDC@@UAE@XZ		; CDC::~CDC
__unwindfunclet$?AnimateFolderScroll@CGfxOutBarCtrl@@QAEXHH@Z$2:
  00013	8d 8d 74 ff ff
	ff		 lea	 ecx, DWORD PTR _bmpFrom$[ebp]
  00019	e9 00 00 00 00	 jmp	 ??1CBitmap@@UAE@XZ	; CBitmap::~CBitmap
__unwindfunclet$?AnimateFolderScroll@CGfxOutBarCtrl@@QAEXHH@Z$3:
  0001e	8d 8d 7c ff ff
	ff		 lea	 ecx, DWORD PTR _bmpTo$[ebp]
  00024	e9 00 00 00 00	 jmp	 ??1CBitmap@@UAE@XZ	; CBitmap::~CBitmap
  00029	cc		 int	 3
  0002a	cc		 int	 3
  0002b	cc		 int	 3
  0002c	cc		 int	 3
  0002d	cc		 int	 3
__ehhandler$?AnimateFolderScroll@CGfxOutBarCtrl@@QAEXHH@Z:
  0002e	90		 npad	 1
  0002f	90		 npad	 1
  00030	8b 54 24 08	 mov	 edx, DWORD PTR [esp+8]
  00034	8d 42 0c	 lea	 eax, DWORD PTR [edx+12]
  00037	8b 8a 5c ff ff
	ff		 mov	 ecx, DWORD PTR [edx-164]
  0003d	33 c8		 xor	 ecx, eax
  0003f	e8 00 00 00 00	 call	 @__security_check_cookie@4
  00044	8b 4a fc	 mov	 ecx, DWORD PTR [edx-4]
  00047	33 c8		 xor	 ecx, eax
  00049	e8 00 00 00 00	 call	 @__security_check_cookie@4
  0004e	b8 00 00 00 00	 mov	 eax, OFFSET __ehfuncinfo$?AnimateFolderScroll@CGfxOutBarCtrl@@QAEXHH@Z
  00053	e9 00 00 00 00	 jmp	 ___CxxFrameHandler3
text$x	ENDS
?AnimateFolderScroll@CGfxOutBarCtrl@@QAEXHH@Z ENDP	; CGfxOutBarCtrl::AnimateFolderScroll
; Function compile flags: /Ogtp
; File D:\git\src\IBK\IBK_DRFN\ProjSrc\SrcDrfn\Chart\MULTICHART\control\GfxOutBarCtrl.cpp
; File C:\Program Files (x86)\Microsoft Visual Studio\2019\Community\VC\Tools\MSVC\14.29.30133\atlmfc\include\afxcoll.inl
; File D:\git\src\IBK\IBK_DRFN\ProjSrc\SrcDrfn\Chart\MULTICHART\control\GfxOutBarCtrl.cpp
; File C:\Program Files (x86)\Microsoft Visual Studio\2019\Community\VC\Tools\MSVC\14.29.30133\atlmfc\include\afxcoll.inl
; File D:\git\src\IBK\IBK_DRFN\ProjSrc\SrcDrfn\Chart\MULTICHART\control\GfxOutBarCtrl.cpp
;	COMDAT ?GetItemText@CGfxOutBarCtrl@@QAE?AV?$CStringT@DV?$StrTraitMFC_DLL@DV?$ChTraitsCRT@D@ATL@@@@@ATL@@H@Z
_TEXT	SEGMENT
$T2 = -16						; size = 4
__$EHRec$ = -12						; size = 12
___$ReturnUdt$ = 8					; size = 4
_index$ = 12						; size = 4
?GetItemText@CGfxOutBarCtrl@@QAE?AV?$CStringT@DV?$StrTraitMFC_DLL@DV?$ChTraitsCRT@D@ATL@@@@@ATL@@H@Z PROC ; CGfxOutBarCtrl::GetItemText, COMDAT
; _this$ = ecx

; 2429 : {

  00000	55		 push	 ebp
  00001	8b ec		 mov	 ebp, esp
  00003	6a ff		 push	 -1
  00005	68 00 00 00 00	 push	 __ehhandler$?GetItemText@CGfxOutBarCtrl@@QAE?AV?$CStringT@DV?$StrTraitMFC_DLL@DV?$ChTraitsCRT@D@ATL@@@@@ATL@@H@Z
  0000a	64 a1 00 00 00
	00		 mov	 eax, DWORD PTR fs:0
  00010	50		 push	 eax
  00011	51		 push	 ecx
  00012	56		 push	 esi
  00013	57		 push	 edi
  00014	a1 00 00 00 00	 mov	 eax, DWORD PTR ___security_cookie
  00019	33 c5		 xor	 eax, ebp
  0001b	50		 push	 eax
  0001c	8d 45 f4	 lea	 eax, DWORD PTR __$EHRec$[ebp]
  0001f	64 a3 00 00 00
	00		 mov	 DWORD PTR fs:0, eax
  00025	8b f9		 mov	 edi, ecx
  00027	c7 45 f0 00 00
	00 00		 mov	 DWORD PTR $T2[ebp], 0

; 2430 : 	CString item;

  0002e	8b 75 08	 mov	 esi, DWORD PTR ___$ReturnUdt$[ebp]
  00031	8b ce		 mov	 ecx, esi
  00033	ff 15 00 00 00
	00		 call	 DWORD PTR __imp_??0?$CStringT@DV?$StrTraitMFC_DLL@DV?$ChTraitsCRT@D@ATL@@@@@ATL@@QAE@XZ

; 2438 : 	}
; 2439 : 	return item;

  00039	8b 8f 34 01 00
	00		 mov	 ecx, DWORD PTR [edi+308]
  0003f	c7 45 fc 00 00
	00 00		 mov	 DWORD PTR __$EHRec$[ebp+8], 0
  00046	c7 45 f0 01 00
	00 00		 mov	 DWORD PTR $T2[ebp], 1
; File C:\Program Files (x86)\Microsoft Visual Studio\2019\Community\VC\Tools\MSVC\14.29.30133\atlmfc\include\afxcoll.inl

; 203  : 		if( nIndex < 0 || nIndex >= m_nSize )

  0004d	85 c9		 test	 ecx, ecx
  0004f	78 48		 js	 SHORT $LN9@GetItemTex
  00051	3b 8f 0c 01 00
	00		 cmp	 ecx, DWORD PTR [edi+268]
  00057	7d 40		 jge	 SHORT $LN9@GetItemTex

; 205  : 		return m_pData[nIndex]; }

  00059	8b 87 08 01 00
	00		 mov	 eax, DWORD PTR [edi+264]
  0005f	8b 04 88	 mov	 eax, DWORD PTR [eax+ecx*4]
; File D:\git\src\IBK\IBK_DRFN\ProjSrc\SrcDrfn\Chart\MULTICHART\control\GfxOutBarCtrl.cpp

; 2141 : 	return (index >= 0 && index < pbf->GetItemCount());

  00062	8b 4d 0c	 mov	 ecx, DWORD PTR _index$[ebp]
  00065	85 c9		 test	 ecx, ecx
  00067	78 1b		 js	 SHORT $LN3@GetItemTex
  00069	3b 48 1c	 cmp	 ecx, DWORD PTR [eax+28]
  0006c	7d 16		 jge	 SHORT $LN3@GetItemTex

; 2431 : 
; 2432 : 	ASSERT(iSelFolder >= 0 && iSelFolder < GetFolderCount());
; 2433 : 	CBarFolder * pbf = (CBarFolder *) arFolder.GetAt(iSelFolder);
; 2434 : 	if (IsValidItem(index))
; 2435 : 	{
; 2436 : 		CBarItem * pi = (CBarItem *) pbf->arItems.GetAt(index);
; 2437 : 		if (pi->cItem) item = pi->cItem;

  0006e	8b 40 18	 mov	 eax, DWORD PTR [eax+24]
  00071	8b 0c 88	 mov	 ecx, DWORD PTR [eax+ecx*4]
  00074	8b 41 08	 mov	 eax, DWORD PTR [ecx+8]
  00077	85 c0		 test	 eax, eax
  00079	74 09		 je	 SHORT $LN3@GetItemTex
  0007b	50		 push	 eax
  0007c	8b ce		 mov	 ecx, esi
  0007e	ff 15 00 00 00
	00		 call	 DWORD PTR __imp_??4?$CStringT@DV?$StrTraitMFC_DLL@DV?$ChTraitsCRT@D@ATL@@@@@ATL@@QAEAAV01@PBD@Z
$LN3@GetItemTex:

; 2438 : 	}
; 2439 : 	return item;

  00084	8b c6		 mov	 eax, esi

; 2440 : }

  00086	8b 4d f4	 mov	 ecx, DWORD PTR __$EHRec$[ebp]
  00089	64 89 0d 00 00
	00 00		 mov	 DWORD PTR fs:0, ecx
  00090	59		 pop	 ecx
  00091	5f		 pop	 edi
  00092	5e		 pop	 esi
  00093	8b e5		 mov	 esp, ebp
  00095	5d		 pop	 ebp
  00096	c2 08 00	 ret	 8
$LN9@GetItemTex:
; File C:\Program Files (x86)\Microsoft Visual Studio\2019\Community\VC\Tools\MSVC\14.29.30133\atlmfc\include\afxcoll.inl

; 204  : 			AfxThrowInvalidArgException();

  00099	e8 00 00 00 00	 call	 ?AfxThrowInvalidArgException@@YGXXZ ; AfxThrowInvalidArgException
$LN27@GetItemTex:
  0009e	cc		 int	 3
_TEXT	ENDS
;	COMDAT text$x
text$x	SEGMENT
__unwindfunclet$?GetItemText@CGfxOutBarCtrl@@QAE?AV?$CStringT@DV?$StrTraitMFC_DLL@DV?$ChTraitsCRT@D@ATL@@@@@ATL@@H@Z$0:
  00000	8b 45 f0	 mov	 eax, DWORD PTR $T2[ebp]
  00003	83 e0 01	 and	 eax, 1
  00006	0f 84 0d 00 00
	00		 je	 $LN6@GetItemTex
  0000c	83 65 f0 fe	 and	 DWORD PTR $T2[ebp], -2	; fffffffeH
  00010	8b 4d 08	 mov	 ecx, DWORD PTR ___$ReturnUdt$[ebp]
  00013	ff 25 00 00 00
	00		 jmp	 DWORD PTR __imp_??1?$CStringT@DV?$StrTraitMFC_DLL@DV?$ChTraitsCRT@D@ATL@@@@@ATL@@QAE@XZ
$LN6@GetItemTex:
  00019	c3		 ret	 0
  0001a	cc		 int	 3
  0001b	cc		 int	 3
  0001c	cc		 int	 3
  0001d	cc		 int	 3
  0001e	cc		 int	 3
__ehhandler$?GetItemText@CGfxOutBarCtrl@@QAE?AV?$CStringT@DV?$StrTraitMFC_DLL@DV?$ChTraitsCRT@D@ATL@@@@@ATL@@H@Z:
  0001f	90		 npad	 1
  00020	90		 npad	 1
  00021	8b 54 24 08	 mov	 edx, DWORD PTR [esp+8]
  00025	8d 42 0c	 lea	 eax, DWORD PTR [edx+12]
  00028	8b 4a f0	 mov	 ecx, DWORD PTR [edx-16]
  0002b	33 c8		 xor	 ecx, eax
  0002d	e8 00 00 00 00	 call	 @__security_check_cookie@4
  00032	b8 00 00 00 00	 mov	 eax, OFFSET __ehfuncinfo$?GetItemText@CGfxOutBarCtrl@@QAE?AV?$CStringT@DV?$StrTraitMFC_DLL@DV?$ChTraitsCRT@D@ATL@@@@@ATL@@H@Z
  00037	e9 00 00 00 00	 jmp	 ___CxxFrameHandler3
text$x	ENDS
?GetItemText@CGfxOutBarCtrl@@QAE?AV?$CStringT@DV?$StrTraitMFC_DLL@DV?$ChTraitsCRT@D@ATL@@@@@ATL@@H@Z ENDP ; CGfxOutBarCtrl::GetItemText
; Function compile flags: /Ogtp
; File D:\git\src\IBK\IBK_DRFN\ProjSrc\SrcDrfn\Chart\MULTICHART\control\GfxOutBarCtrl.cpp
; File C:\Program Files (x86)\Microsoft Visual Studio\2019\Community\VC\Tools\MSVC\14.29.30133\atlmfc\include\afxcoll.inl
; File D:\git\src\IBK\IBK_DRFN\ProjSrc\SrcDrfn\Chart\MULTICHART\control\GfxOutBarCtrl.cpp
; File C:\Program Files (x86)\Microsoft Visual Studio\2019\Community\VC\Tools\MSVC\14.29.30133\atlmfc\include\afxcoll.inl
; File D:\git\src\IBK\IBK_DRFN\ProjSrc\SrcDrfn\Chart\MULTICHART\control\GfxOutBarCtrl.cpp
; File C:\Program Files (x86)\Microsoft Visual Studio\2019\Community\VC\Tools\MSVC\14.29.30133\atlmfc\include\afxcoll.inl
; File D:\git\src\IBK\IBK_DRFN\ProjSrc\SrcDrfn\Chart\MULTICHART\control\GfxOutBarCtrl.cpp
;	COMDAT ?AddFolderBar@CGfxOutBarCtrl@@QAEHPBDPAVCWnd@@K@Z
_TEXT	SEGMENT
$T2 = -16						; size = 4
__$EHRec$ = -12						; size = 12
_pFolder$ = 8						; size = 4
_pSon$ = 12						; size = 4
_exData$ = 16						; size = 4
?AddFolderBar@CGfxOutBarCtrl@@QAEHPBDPAVCWnd@@K@Z PROC	; CGfxOutBarCtrl::AddFolderBar, COMDAT
; _this$ = ecx

; 2443 : {

  00000	55		 push	 ebp
  00001	8b ec		 mov	 ebp, esp
  00003	6a ff		 push	 -1
  00005	68 00 00 00 00	 push	 __ehhandler$?AddFolderBar@CGfxOutBarCtrl@@QAEHPBDPAVCWnd@@K@Z
  0000a	64 a1 00 00 00
	00		 mov	 eax, DWORD PTR fs:0
  00010	50		 push	 eax
  00011	51		 push	 ecx
  00012	53		 push	 ebx
  00013	56		 push	 esi
  00014	57		 push	 edi
  00015	a1 00 00 00 00	 mov	 eax, DWORD PTR ___security_cookie
  0001a	33 c5		 xor	 eax, ebp
  0001c	50		 push	 eax
  0001d	8d 45 f4	 lea	 eax, DWORD PTR __$EHRec$[ebp]
  00020	64 a3 00 00 00
	00		 mov	 DWORD PTR fs:0, eax
  00026	8b d9		 mov	 ebx, ecx

; 2444 : 	CBarFolder * pbf = new CBarFolder(pFolder, exData);

  00028	6a 2c		 push	 44			; 0000002cH
  0002a	e8 00 00 00 00	 call	 ??2@YAPAXI@Z		; operator new
  0002f	8b f0		 mov	 esi, eax
  00031	83 c4 04	 add	 esp, 4
  00034	89 75 f0	 mov	 DWORD PTR $T2[ebp], esi
  00037	c7 45 fc 00 00
	00 00		 mov	 DWORD PTR __$EHRec$[ebp+8], 0
  0003e	85 f6		 test	 esi, esi
  00040	74 59		 je	 SHORT $LN3@AddFolderB

; 747  : {

  00042	8d 4e 14	 lea	 ecx, DWORD PTR [esi+20]
  00045	c7 06 00 00 00
	00		 mov	 DWORD PTR [esi], OFFSET ??_7CBarFolder@CGfxOutBarCtrl@@6B@
  0004b	e8 00 00 00 00	 call	 ??0CPtrArray@@QAE@XZ	; CPtrArray::CPtrArray

; 748  : 	cName = NULL;
; 749  : 	dwData = exData;
; 750  : 
; 751  : 	if (name)

  00050	8b 7d 08	 mov	 edi, DWORD PTR _pFolder$[ebp]
  00053	8b 45 10	 mov	 eax, DWORD PTR _exData$[ebp]
  00056	c6 45 fc 01	 mov	 BYTE PTR __$EHRec$[ebp+8], 1
  0005a	c7 46 04 00 00
	00 00		 mov	 DWORD PTR [esi+4], 0
  00061	89 46 08	 mov	 DWORD PTR [esi+8], eax
  00064	85 ff		 test	 edi, edi
  00066	74 1c		 je	 SHORT $LN7@AddFolderB

; 752  : 	{
; 753  : 		cName = new char[lstrlen(name)+1];

  00068	57		 push	 edi
  00069	ff 15 00 00 00
	00		 call	 DWORD PTR __imp__lstrlenA@4
  0006f	40		 inc	 eax
  00070	50		 push	 eax
  00071	e8 00 00 00 00	 call	 ??_U@YAPAXI@Z		; operator new[]
  00076	83 c4 04	 add	 esp, 4
  00079	89 46 04	 mov	 DWORD PTR [esi+4], eax

; 754  : 		ASSERT(cName);
; 755  : 		lstrcpy(cName, name);

  0007c	57		 push	 edi
  0007d	50		 push	 eax
  0007e	ff 15 00 00 00
	00		 call	 DWORD PTR __imp__lstrcpyA@8
$LN7@AddFolderB:

; 756  : 	}
; 757  : 	pLargeImageList = NULL;

  00084	c7 46 0c 00 00
	00 00		 mov	 DWORD PTR [esi+12], 0

; 758  : 	pSmallImageList = NULL;

  0008b	c7 46 10 00 00
	00 00		 mov	 DWORD PTR [esi+16], 0

; 759  : 	pChild = NULL;

  00092	c7 46 28 00 00
	00 00		 mov	 DWORD PTR [esi+40], 0

; 2444 : 	CBarFolder * pbf = new CBarFolder(pFolder, exData);

  00099	eb 02		 jmp	 SHORT $LN4@AddFolderB
$LN3@AddFolderB:
  0009b	33 f6		 xor	 esi, esi
$LN4@AddFolderB:

; 2446 : 	pbf->pChild = pSon;

  0009d	8b 45 0c	 mov	 eax, DWORD PTR _pSon$[ebp]

; 2447 : 
; 2448 : 	arFolder.Add((void *)pbf);

  000a0	8d 8b 04 01 00
	00		 lea	 ecx, DWORD PTR [ebx+260]
; File C:\Program Files (x86)\Microsoft Visual Studio\2019\Community\VC\Tools\MSVC\14.29.30133\atlmfc\include\afxcoll.inl

; 223  : 		SetAtGrow(nIndex, newElement);

  000a6	56		 push	 esi
; File D:\git\src\IBK\IBK_DRFN\ProjSrc\SrcDrfn\Chart\MULTICHART\control\GfxOutBarCtrl.cpp

; 2446 : 	pbf->pChild = pSon;

  000a7	89 46 28	 mov	 DWORD PTR [esi+40], eax
; File C:\Program Files (x86)\Microsoft Visual Studio\2019\Community\VC\Tools\MSVC\14.29.30133\atlmfc\include\afxcoll.inl

; 223  : 		SetAtGrow(nIndex, newElement);

  000aa	ff 71 08	 push	 DWORD PTR [ecx+8]
; File D:\git\src\IBK\IBK_DRFN\ProjSrc\SrcDrfn\Chart\MULTICHART\control\GfxOutBarCtrl.cpp

; 2444 : 	CBarFolder * pbf = new CBarFolder(pFolder, exData);

  000ad	c7 45 fc ff ff
	ff ff		 mov	 DWORD PTR __$EHRec$[ebp+8], -1
; File C:\Program Files (x86)\Microsoft Visual Studio\2019\Community\VC\Tools\MSVC\14.29.30133\atlmfc\include\afxcoll.inl

; 223  : 		SetAtGrow(nIndex, newElement);

  000b4	e8 00 00 00 00	 call	 ?SetAtGrow@CPtrArray@@QAEXHPAX@Z ; CPtrArray::SetAtGrow
; File D:\git\src\IBK\IBK_DRFN\ProjSrc\SrcDrfn\Chart\MULTICHART\control\GfxOutBarCtrl.cpp

; 2450 : 	return arFolder.GetSize() - 1;

  000b9	8b 83 0c 01 00
	00		 mov	 eax, DWORD PTR [ebx+268]
  000bf	48		 dec	 eax

; 2451 : }

  000c0	8b 4d f4	 mov	 ecx, DWORD PTR __$EHRec$[ebp]
  000c3	64 89 0d 00 00
	00 00		 mov	 DWORD PTR fs:0, ecx
  000ca	59		 pop	 ecx
  000cb	5f		 pop	 edi
  000cc	5e		 pop	 esi
  000cd	5b		 pop	 ebx
  000ce	8b e5		 mov	 esp, ebp
  000d0	5d		 pop	 ebp
  000d1	c2 0c 00	 ret	 12			; 0000000cH
_TEXT	ENDS
;	COMDAT text$x
text$x	SEGMENT
__unwindfunclet$?AddFolderBar@CGfxOutBarCtrl@@QAEHPBDPAVCWnd@@K@Z$0:
  00000	6a 2c		 push	 44			; 0000002cH
  00002	8b 45 f0	 mov	 eax, DWORD PTR $T2[ebp]
  00005	50		 push	 eax
  00006	e8 00 00 00 00	 call	 ??3@YAXPAXI@Z		; operator delete
  0000b	83 c4 08	 add	 esp, 8
  0000e	c3		 ret	 0
__unwindfunclet$?AddFolderBar@CGfxOutBarCtrl@@QAEHPBDPAVCWnd@@K@Z$1:
  0000f	8b 4d f0	 mov	 ecx, DWORD PTR $T2[ebp]
  00012	83 c1 14	 add	 ecx, 20			; 00000014H
  00015	e9 00 00 00 00	 jmp	 ??1CPtrArray@@UAE@XZ	; CPtrArray::~CPtrArray
  0001a	cc		 int	 3
  0001b	cc		 int	 3
  0001c	cc		 int	 3
  0001d	cc		 int	 3
  0001e	cc		 int	 3
__ehhandler$?AddFolderBar@CGfxOutBarCtrl@@QAEHPBDPAVCWnd@@K@Z:
  0001f	90		 npad	 1
  00020	90		 npad	 1
  00021	8b 54 24 08	 mov	 edx, DWORD PTR [esp+8]
  00025	8d 42 0c	 lea	 eax, DWORD PTR [edx+12]
  00028	8b 4a ec	 mov	 ecx, DWORD PTR [edx-20]
  0002b	33 c8		 xor	 ecx, eax
  0002d	e8 00 00 00 00	 call	 @__security_check_cookie@4
  00032	b8 00 00 00 00	 mov	 eax, OFFSET __ehfuncinfo$?AddFolderBar@CGfxOutBarCtrl@@QAEHPBDPAVCWnd@@K@Z
  00037	e9 00 00 00 00	 jmp	 ___CxxFrameHandler3
text$x	ENDS
?AddFolderBar@CGfxOutBarCtrl@@QAEHPBDPAVCWnd@@K@Z ENDP	; CGfxOutBarCtrl::AddFolderBar
; Function compile flags: /Ogtp
; File D:\git\src\IBK\IBK_DRFN\ProjSrc\SrcDrfn\Chart\MULTICHART\control\GfxOutBarCtrl.cpp
; File C:\Program Files (x86)\Microsoft Visual Studio\2019\Community\VC\Tools\MSVC\14.29.30133\atlmfc\include\afxcoll.inl
; File D:\git\src\IBK\IBK_DRFN\ProjSrc\SrcDrfn\Chart\MULTICHART\control\GfxOutBarCtrl.cpp
; File C:\Program Files (x86)\Microsoft Visual Studio\2019\Community\VC\Tools\MSVC\14.29.30133\atlmfc\include\afxcoll.inl
; File D:\git\src\IBK\IBK_DRFN\ProjSrc\SrcDrfn\Chart\MULTICHART\control\GfxOutBarCtrl.cpp
;	COMDAT ?GetFolderChild@CGfxOutBarCtrl@@QAEPAVCWnd@@H@Z
_TEXT	SEGMENT
_iFolder$ = 8						; size = 4
?GetFolderChild@CGfxOutBarCtrl@@QAEPAVCWnd@@H@Z PROC	; CGfxOutBarCtrl::GetFolderChild, COMDAT
; _this$ = ecx

; 2454 : {

  00000	55		 push	 ebp
  00001	8b ec		 mov	 ebp, esp

; 2455 : 	int nFolderCnt = GetFolderCount();

  00003	8b 81 0c 01 00
	00		 mov	 eax, DWORD PTR [ecx+268]

; 2456 : 	if (nFolderCnt <= iFolder) return NULL;

  00009	8b 55 08	 mov	 edx, DWORD PTR _iFolder$[ebp]
  0000c	3b c2		 cmp	 eax, edx
  0000e	7e 2a		 jle	 SHORT $LN3@GetFolderC

; 2457 : 	if (nFolderCnt)

  00010	85 c0		 test	 eax, eax
  00012	74 26		 je	 SHORT $LN3@GetFolderC

; 2458 : 	{
; 2459 : 		if (iFolder < 0) iFolder = iSelFolder;

  00014	85 d2		 test	 edx, edx
  00016	79 0e		 jns	 SHORT $LN14@GetFolderC
  00018	8b 91 34 01 00
	00		 mov	 edx, DWORD PTR [ecx+308]

; 2460 : 		if (nFolderCnt <= iFolder) return NULL;

  0001e	3b c2		 cmp	 eax, edx
  00020	7e 18		 jle	 SHORT $LN3@GetFolderC
; File C:\Program Files (x86)\Microsoft Visual Studio\2019\Community\VC\Tools\MSVC\14.29.30133\atlmfc\include\afxcoll.inl

; 203  : 		if( nIndex < 0 || nIndex >= m_nSize )

  00022	85 d2		 test	 edx, edx
  00024	78 1a		 js	 SHORT $LN9@GetFolderC
$LN14@GetFolderC:
  00026	3b d0		 cmp	 edx, eax
  00028	7d 16		 jge	 SHORT $LN9@GetFolderC
; File D:\git\src\IBK\IBK_DRFN\ProjSrc\SrcDrfn\Chart\MULTICHART\control\GfxOutBarCtrl.cpp

; 2462 : 		return pbf->pChild;

  0002a	8b 81 08 01 00
	00		 mov	 eax, DWORD PTR [ecx+264]
  00030	8b 04 90	 mov	 eax, DWORD PTR [eax+edx*4]
  00033	8b 40 28	 mov	 eax, DWORD PTR [eax+40]

; 2465 : }

  00036	5d		 pop	 ebp
  00037	c2 04 00	 ret	 4
$LN3@GetFolderC:

; 2463 : 	}
; 2464 : 	return NULL;

  0003a	33 c0		 xor	 eax, eax

; 2465 : }

  0003c	5d		 pop	 ebp
  0003d	c2 04 00	 ret	 4
$LN9@GetFolderC:
; File C:\Program Files (x86)\Microsoft Visual Studio\2019\Community\VC\Tools\MSVC\14.29.30133\atlmfc\include\afxcoll.inl

; 204  : 			AfxThrowInvalidArgException();

  00040	e8 00 00 00 00	 call	 ?AfxThrowInvalidArgException@@YGXXZ ; AfxThrowInvalidArgException
$LN12@GetFolderC:
  00045	cc		 int	 3
?GetFolderChild@CGfxOutBarCtrl@@QAEPAVCWnd@@H@Z ENDP	; CGfxOutBarCtrl::GetFolderChild
_TEXT	ENDS
; Function compile flags: /Ogtp
; File D:\git\src\IBK\IBK_DRFN\ProjSrc\SrcDrfn\Chart\MULTICHART\control\GfxOutBarCtrl.cpp
; File C:\Program Files (x86)\Microsoft Visual Studio\2019\Community\VC\Tools\MSVC\14.29.30133\atlmfc\include\afxcoll.inl
; File D:\git\src\IBK\IBK_DRFN\ProjSrc\SrcDrfn\Chart\MULTICHART\control\GfxOutBarCtrl.cpp
; File C:\Program Files (x86)\Microsoft Visual Studio\2019\Community\VC\Tools\MSVC\14.29.30133\atlmfc\include\afxcoll.inl
; File D:\git\src\IBK\IBK_DRFN\ProjSrc\SrcDrfn\Chart\MULTICHART\control\GfxOutBarCtrl.cpp
; File C:\Program Files (x86)\Microsoft Visual Studio\2019\Community\VC\Tools\MSVC\14.29.30133\atlmfc\include\afxcoll.inl
; File D:\git\src\IBK\IBK_DRFN\ProjSrc\SrcDrfn\Chart\MULTICHART\control\GfxOutBarCtrl.cpp
;	COMDAT ?GetFolderText@CGfxOutBarCtrl@@QAE?AV?$CStringT@DV?$StrTraitMFC_DLL@DV?$ChTraitsCRT@D@ATL@@@@@ATL@@H@Z
_TEXT	SEGMENT
$T2 = -16						; size = 4
__$EHRec$ = -12						; size = 12
___$ReturnUdt$ = 8					; size = 4
_iFolder$ = 12						; size = 4
?GetFolderText@CGfxOutBarCtrl@@QAE?AV?$CStringT@DV?$StrTraitMFC_DLL@DV?$ChTraitsCRT@D@ATL@@@@@ATL@@H@Z PROC ; CGfxOutBarCtrl::GetFolderText, COMDAT
; _this$ = ecx

; 2483 : {

  00000	55		 push	 ebp
  00001	8b ec		 mov	 ebp, esp
  00003	6a ff		 push	 -1
  00005	68 00 00 00 00	 push	 __ehhandler$?GetFolderText@CGfxOutBarCtrl@@QAE?AV?$CStringT@DV?$StrTraitMFC_DLL@DV?$ChTraitsCRT@D@ATL@@@@@ATL@@H@Z
  0000a	64 a1 00 00 00
	00		 mov	 eax, DWORD PTR fs:0
  00010	50		 push	 eax
  00011	51		 push	 ecx
  00012	56		 push	 esi
  00013	57		 push	 edi
  00014	a1 00 00 00 00	 mov	 eax, DWORD PTR ___security_cookie
  00019	33 c5		 xor	 eax, ebp
  0001b	50		 push	 eax
  0001c	8d 45 f4	 lea	 eax, DWORD PTR __$EHRec$[ebp]
  0001f	64 a3 00 00 00
	00		 mov	 DWORD PTR fs:0, eax

; 2484 : 	if (iFolder < 0) iFolder = iSelFolder;

  00025	8b 75 0c	 mov	 esi, DWORD PTR _iFolder$[ebp]
  00028	c7 45 fc 00 00
	00 00		 mov	 DWORD PTR __$EHRec$[ebp+8], 0
  0002f	c7 45 f0 00 00
	00 00		 mov	 DWORD PTR $T2[ebp], 0
  00036	85 f6		 test	 esi, esi
  00038	79 0a		 jns	 SHORT $LN11@GetFolderT
  0003a	8b b1 34 01 00
	00		 mov	 esi, DWORD PTR [ecx+308]
; File C:\Program Files (x86)\Microsoft Visual Studio\2019\Community\VC\Tools\MSVC\14.29.30133\atlmfc\include\afxcoll.inl

; 203  : 		if( nIndex < 0 || nIndex >= m_nSize )

  00040	85 f6		 test	 esi, esi
  00042	78 51		 js	 SHORT $LN8@GetFolderT
$LN11@GetFolderT:
  00044	3b b1 0c 01 00
	00		 cmp	 esi, DWORD PTR [ecx+268]
  0004a	7d 49		 jge	 SHORT $LN8@GetFolderT

; 205  : 		return m_pData[nIndex]; }

  0004c	8b 81 08 01 00
	00		 mov	 eax, DWORD PTR [ecx+264]
; File D:\git\src\IBK\IBK_DRFN\ProjSrc\SrcDrfn\Chart\MULTICHART\control\GfxOutBarCtrl.cpp

; 2486 : 	CString strText;

  00052	8b 7d 08	 mov	 edi, DWORD PTR ___$ReturnUdt$[ebp]
  00055	8b cf		 mov	 ecx, edi
; File C:\Program Files (x86)\Microsoft Visual Studio\2019\Community\VC\Tools\MSVC\14.29.30133\atlmfc\include\afxcoll.inl

; 205  : 		return m_pData[nIndex]; }

  00057	8b 34 b0	 mov	 esi, DWORD PTR [eax+esi*4]
; File D:\git\src\IBK\IBK_DRFN\ProjSrc\SrcDrfn\Chart\MULTICHART\control\GfxOutBarCtrl.cpp

; 2486 : 	CString strText;

  0005a	ff 15 00 00 00
	00		 call	 DWORD PTR __imp_??0?$CStringT@DV?$StrTraitMFC_DLL@DV?$ChTraitsCRT@D@ATL@@@@@ATL@@QAE@XZ

; 2487 : 	strText.Format(_T("%s"), pbf->cName);
; 2488 : 	return strText;

  00060	ff 76 04	 push	 DWORD PTR [esi+4]
  00063	c7 45 fc 00 00
	00 00		 mov	 DWORD PTR __$EHRec$[ebp+8], 0
  0006a	68 00 00 00 00	 push	 OFFSET ??_C@_02DKCKIIND@?$CFs@
  0006f	57		 push	 edi
  00070	c7 45 f0 01 00
	00 00		 mov	 DWORD PTR $T2[ebp], 1
  00077	ff 15 00 00 00
	00		 call	 DWORD PTR __imp_?Format@?$CStringT@DV?$StrTraitMFC_DLL@DV?$ChTraitsCRT@D@ATL@@@@@ATL@@QAAXPBDZZ
  0007d	83 c4 0c	 add	 esp, 12			; 0000000cH
  00080	8b c7		 mov	 eax, edi

; 2489 : }

  00082	8b 4d f4	 mov	 ecx, DWORD PTR __$EHRec$[ebp]
  00085	64 89 0d 00 00
	00 00		 mov	 DWORD PTR fs:0, ecx
  0008c	59		 pop	 ecx
  0008d	5f		 pop	 edi
  0008e	5e		 pop	 esi
  0008f	8b e5		 mov	 esp, ebp
  00091	5d		 pop	 ebp
  00092	c2 08 00	 ret	 8
$LN8@GetFolderT:
; File C:\Program Files (x86)\Microsoft Visual Studio\2019\Community\VC\Tools\MSVC\14.29.30133\atlmfc\include\afxcoll.inl

; 204  : 			AfxThrowInvalidArgException();

  00095	e8 00 00 00 00	 call	 ?AfxThrowInvalidArgException@@YGXXZ ; AfxThrowInvalidArgException
$LN13@GetFolderT:
  0009a	cc		 int	 3
_TEXT	ENDS
;	COMDAT text$x
text$x	SEGMENT
__unwindfunclet$?GetFolderText@CGfxOutBarCtrl@@QAE?AV?$CStringT@DV?$StrTraitMFC_DLL@DV?$ChTraitsCRT@D@ATL@@@@@ATL@@H@Z$0:
  00000	8b 45 f0	 mov	 eax, DWORD PTR $T2[ebp]
  00003	83 e0 01	 and	 eax, 1
  00006	0f 84 0d 00 00
	00		 je	 $LN5@GetFolderT
  0000c	83 65 f0 fe	 and	 DWORD PTR $T2[ebp], -2	; fffffffeH
  00010	8b 4d 08	 mov	 ecx, DWORD PTR ___$ReturnUdt$[ebp]
  00013	ff 25 00 00 00
	00		 jmp	 DWORD PTR __imp_??1?$CStringT@DV?$StrTraitMFC_DLL@DV?$ChTraitsCRT@D@ATL@@@@@ATL@@QAE@XZ
$LN5@GetFolderT:
  00019	c3		 ret	 0
  0001a	cc		 int	 3
  0001b	cc		 int	 3
  0001c	cc		 int	 3
  0001d	cc		 int	 3
  0001e	cc		 int	 3
__ehhandler$?GetFolderText@CGfxOutBarCtrl@@QAE?AV?$CStringT@DV?$StrTraitMFC_DLL@DV?$ChTraitsCRT@D@ATL@@@@@ATL@@H@Z:
  0001f	90		 npad	 1
  00020	90		 npad	 1
  00021	8b 54 24 08	 mov	 edx, DWORD PTR [esp+8]
  00025	8d 42 0c	 lea	 eax, DWORD PTR [edx+12]
  00028	8b 4a f0	 mov	 ecx, DWORD PTR [edx-16]
  0002b	33 c8		 xor	 ecx, eax
  0002d	e8 00 00 00 00	 call	 @__security_check_cookie@4
  00032	b8 00 00 00 00	 mov	 eax, OFFSET __ehfuncinfo$?GetFolderText@CGfxOutBarCtrl@@QAE?AV?$CStringT@DV?$StrTraitMFC_DLL@DV?$ChTraitsCRT@D@ATL@@@@@ATL@@H@Z
  00037	e9 00 00 00 00	 jmp	 ___CxxFrameHandler3
text$x	ENDS
?GetFolderText@CGfxOutBarCtrl@@QAE?AV?$CStringT@DV?$StrTraitMFC_DLL@DV?$ChTraitsCRT@D@ATL@@@@@ATL@@H@Z ENDP ; CGfxOutBarCtrl::GetFolderText
; Function compile flags: /Ogtp
; File D:\git\src\IBK\IBK_DRFN\ProjSrc\SrcDrfn\Chart\MULTICHART\control\GfxOutBarCtrl.cpp
; File C:\Program Files (x86)\Microsoft Visual Studio\2019\Community\VC\Tools\MSVC\14.29.30133\atlmfc\include\afxcoll.inl
; File D:\git\src\IBK\IBK_DRFN\ProjSrc\SrcDrfn\Chart\MULTICHART\control\GfxOutBarCtrl.cpp
; File C:\Program Files (x86)\Microsoft Visual Studio\2019\Community\VC\Tools\MSVC\14.29.30133\atlmfc\include\afxcoll.inl
; File D:\git\src\IBK\IBK_DRFN\ProjSrc\SrcDrfn\Chart\MULTICHART\control\GfxOutBarCtrl.cpp
;	COMDAT ?SetFolderData@CGfxOutBarCtrl@@QAEXHK@Z
_TEXT	SEGMENT
_iFolder$ = 8						; size = 4
_dwData$ = 12						; size = 4
?SetFolderData@CGfxOutBarCtrl@@QAEXHK@Z PROC		; CGfxOutBarCtrl::SetFolderData, COMDAT
; _this$ = ecx

; 2475 : {

  00000	55		 push	 ebp
  00001	8b ec		 mov	 ebp, esp

; 2476 : 	if (iFolder < 0) iFolder = iSelFolder;

  00003	8b 55 08	 mov	 edx, DWORD PTR _iFolder$[ebp]
  00006	85 d2		 test	 edx, edx
  00008	79 0a		 jns	 SHORT $LN10@SetFolderD
  0000a	8b 91 34 01 00
	00		 mov	 edx, DWORD PTR [ecx+308]
; File C:\Program Files (x86)\Microsoft Visual Studio\2019\Community\VC\Tools\MSVC\14.29.30133\atlmfc\include\afxcoll.inl

; 203  : 		if( nIndex < 0 || nIndex >= m_nSize )

  00010	85 d2		 test	 edx, edx
  00012	78 1f		 js	 SHORT $LN7@SetFolderD
$LN10@SetFolderD:
  00014	3b 91 0c 01 00
	00		 cmp	 edx, DWORD PTR [ecx+268]
  0001a	7d 17		 jge	 SHORT $LN7@SetFolderD

; 205  : 		return m_pData[nIndex]; }

  0001c	8b 81 08 01 00
	00		 mov	 eax, DWORD PTR [ecx+264]
  00022	8b 0c 90	 mov	 ecx, DWORD PTR [eax+edx*4]
; File D:\git\src\IBK\IBK_DRFN\ProjSrc\SrcDrfn\Chart\MULTICHART\control\GfxOutBarCtrl.cpp

; 2478 : 	if (pbf)

  00025	85 c9		 test	 ecx, ecx
  00027	74 06		 je	 SHORT $LN3@SetFolderD

; 2479 : 		pbf->dwData = dwData;

  00029	8b 45 0c	 mov	 eax, DWORD PTR _dwData$[ebp]
  0002c	89 41 08	 mov	 DWORD PTR [ecx+8], eax
$LN3@SetFolderD:

; 2480 : }

  0002f	5d		 pop	 ebp
  00030	c2 08 00	 ret	 8
$LN7@SetFolderD:
; File C:\Program Files (x86)\Microsoft Visual Studio\2019\Community\VC\Tools\MSVC\14.29.30133\atlmfc\include\afxcoll.inl

; 204  : 			AfxThrowInvalidArgException();

  00033	e8 00 00 00 00	 call	 ?AfxThrowInvalidArgException@@YGXXZ ; AfxThrowInvalidArgException
$LN11@SetFolderD:
  00038	cc		 int	 3
?SetFolderData@CGfxOutBarCtrl@@QAEXHK@Z ENDP		; CGfxOutBarCtrl::SetFolderData
_TEXT	ENDS
; Function compile flags: /Ogtp
; File D:\git\src\IBK\IBK_DRFN\ProjSrc\SrcDrfn\Chart\MULTICHART\control\GfxOutBarCtrl.cpp
; File C:\Program Files (x86)\Microsoft Visual Studio\2019\Community\VC\Tools\MSVC\14.29.30133\atlmfc\include\afxcoll.inl
; File D:\git\src\IBK\IBK_DRFN\ProjSrc\SrcDrfn\Chart\MULTICHART\control\GfxOutBarCtrl.cpp
; File C:\Program Files (x86)\Microsoft Visual Studio\2019\Community\VC\Tools\MSVC\14.29.30133\atlmfc\include\afxcoll.inl
; File D:\git\src\IBK\IBK_DRFN\ProjSrc\SrcDrfn\Chart\MULTICHART\control\GfxOutBarCtrl.cpp
;	COMDAT ?GetFolderData@CGfxOutBarCtrl@@QAEKH@Z
_TEXT	SEGMENT
_iFolder$ = 8						; size = 4
?GetFolderData@CGfxOutBarCtrl@@QAEKH@Z PROC		; CGfxOutBarCtrl::GetFolderData, COMDAT
; _this$ = ecx

; 2468 : {

  00000	55		 push	 ebp
  00001	8b ec		 mov	 ebp, esp

; 2469 : 	if (iFolder < 0) iFolder = iSelFolder;

  00003	8b 55 08	 mov	 edx, DWORD PTR _iFolder$[ebp]
  00006	85 d2		 test	 edx, edx
  00008	79 0a		 jns	 SHORT $LN9@GetFolderD
  0000a	8b 91 34 01 00
	00		 mov	 edx, DWORD PTR [ecx+308]
; File C:\Program Files (x86)\Microsoft Visual Studio\2019\Community\VC\Tools\MSVC\14.29.30133\atlmfc\include\afxcoll.inl

; 203  : 		if( nIndex < 0 || nIndex >= m_nSize )

  00010	85 d2		 test	 edx, edx
  00012	78 18		 js	 SHORT $LN6@GetFolderD
$LN9@GetFolderD:
  00014	3b 91 0c 01 00
	00		 cmp	 edx, DWORD PTR [ecx+268]
  0001a	7d 10		 jge	 SHORT $LN6@GetFolderD
; File D:\git\src\IBK\IBK_DRFN\ProjSrc\SrcDrfn\Chart\MULTICHART\control\GfxOutBarCtrl.cpp

; 2471 : 	return pbf->dwData;

  0001c	8b 81 08 01 00
	00		 mov	 eax, DWORD PTR [ecx+264]
  00022	8b 04 90	 mov	 eax, DWORD PTR [eax+edx*4]
  00025	8b 40 08	 mov	 eax, DWORD PTR [eax+8]

; 2472 : }

  00028	5d		 pop	 ebp
  00029	c2 04 00	 ret	 4
$LN6@GetFolderD:
; File C:\Program Files (x86)\Microsoft Visual Studio\2019\Community\VC\Tools\MSVC\14.29.30133\atlmfc\include\afxcoll.inl

; 204  : 			AfxThrowInvalidArgException();

  0002c	e8 00 00 00 00	 call	 ?AfxThrowInvalidArgException@@YGXXZ ; AfxThrowInvalidArgException
$LN10@GetFolderD:
  00031	cc		 int	 3
?GetFolderData@CGfxOutBarCtrl@@QAEKH@Z ENDP		; CGfxOutBarCtrl::GetFolderData
_TEXT	ENDS
; Function compile flags: /Ogtp
; File D:\git\src\IBK\IBK_DRFN\ProjSrc\SrcDrfn\Chart\MULTICHART\control\GfxOutBarCtrl.cpp
; File C:\Program Files (x86)\Microsoft Visual Studio\2019\Community\VC\Tools\MSVC\14.29.30133\atlmfc\include\afxwin2.inl
; File D:\git\src\IBK\IBK_DRFN\ProjSrc\SrcDrfn\Chart\MULTICHART\control\GfxOutBarCtrl.cpp
; File C:\Program Files (x86)\Microsoft Visual Studio\2019\Community\VC\Tools\MSVC\14.29.30133\atlmfc\include\afxwin2.inl
; File D:\git\src\IBK\IBK_DRFN\ProjSrc\SrcDrfn\Chart\MULTICHART\control\GfxOutBarCtrl.cpp
;	COMDAT ?SetAnimSelHighlight@CGfxOutBarCtrl@@QAEXH@Z
_TEXT	SEGMENT
_iTime$ = 8						; size = 4
?SetAnimSelHighlight@CGfxOutBarCtrl@@QAEXH@Z PROC	; CGfxOutBarCtrl::SetAnimSelHighlight, COMDAT
; _this$ = ecx

; 2492 : {

  00000	55		 push	 ebp
  00001	8b ec		 mov	 ebp, esp
  00003	56		 push	 esi

; 2493 : 	if (iTime <= 0) KillTimer(3);

  00004	8b 75 08	 mov	 esi, DWORD PTR _iTime$[ebp]
  00007	57		 push	 edi
  00008	8b f9		 mov	 edi, ecx
  0000a	8b 47 20	 mov	 eax, DWORD PTR [edi+32]
  0000d	85 f6		 test	 esi, esi
  0000f	7f 15		 jg	 SHORT $LN2@SetAnimSel
; File C:\Program Files (x86)\Microsoft Visual Studio\2019\Community\VC\Tools\MSVC\14.29.30133\atlmfc\include\afxwin2.inl

; 155  : 	{ ASSERT(::IsWindow(m_hWnd)); return ::KillTimer(m_hWnd, nIDEvent); }

  00011	6a 03		 push	 3
  00013	50		 push	 eax
  00014	ff 15 00 00 00
	00		 call	 DWORD PTR __imp__KillTimer@8
; File D:\git\src\IBK\IBK_DRFN\ProjSrc\SrcDrfn\Chart\MULTICHART\control\GfxOutBarCtrl.cpp

; 2496 : }

  0001a	89 b7 f8 00 00
	00		 mov	 DWORD PTR [edi+248], esi
  00020	5f		 pop	 edi
  00021	5e		 pop	 esi
  00022	5d		 pop	 ebp
  00023	c2 04 00	 ret	 4
$LN2@SetAnimSel:
; File C:\Program Files (x86)\Microsoft Visual Studio\2019\Community\VC\Tools\MSVC\14.29.30133\atlmfc\include\afxwin2.inl

; 152  : 	{ ASSERT(::IsWindow(m_hWnd)); return ::SetTimer(m_hWnd, nIDEvent, nElapse,

  00026	6a 00		 push	 0
  00028	56		 push	 esi
  00029	6a 03		 push	 3
  0002b	50		 push	 eax
  0002c	ff 15 00 00 00
	00		 call	 DWORD PTR __imp__SetTimer@16
; File D:\git\src\IBK\IBK_DRFN\ProjSrc\SrcDrfn\Chart\MULTICHART\control\GfxOutBarCtrl.cpp

; 2496 : }

  00032	89 b7 f8 00 00
	00		 mov	 DWORD PTR [edi+248], esi
  00038	5f		 pop	 edi
  00039	5e		 pop	 esi
  0003a	5d		 pop	 ebp
  0003b	c2 04 00	 ret	 4
?SetAnimSelHighlight@CGfxOutBarCtrl@@QAEXH@Z ENDP	; CGfxOutBarCtrl::SetAnimSelHighlight
_TEXT	ENDS
; Function compile flags: /Ogtp
; File D:\git\src\IBK\IBK_DRFN\ProjSrc\SrcDrfn\Chart\MULTICHART\control\GfxOutBarCtrl.cpp
; File C:\Program Files (x86)\Microsoft Visual Studio\2019\Community\VC\Tools\MSVC\14.29.30133\atlmfc\include\afxcoll.inl
; File D:\git\src\IBK\IBK_DRFN\ProjSrc\SrcDrfn\Chart\MULTICHART\control\GfxOutBarCtrl.cpp
; File C:\Program Files (x86)\Microsoft Visual Studio\2019\Community\VC\Tools\MSVC\14.29.30133\atlmfc\include\atltypes.h
; File D:\git\src\IBK\IBK_DRFN\ProjSrc\SrcDrfn\Chart\MULTICHART\control\GfxOutBarCtrl.cpp
; File C:\Program Files (x86)\Microsoft Visual Studio\2019\Community\VC\Tools\MSVC\14.29.30133\atlmfc\include\atltypes.h
; File D:\git\src\IBK\IBK_DRFN\ProjSrc\SrcDrfn\Chart\MULTICHART\control\GfxOutBarCtrl.cpp
; File C:\Program Files (x86)\Microsoft Visual Studio\2019\Community\VC\Tools\MSVC\14.29.30133\atlmfc\include\afxcoll.inl
; File D:\git\src\IBK\IBK_DRFN\ProjSrc\SrcDrfn\Chart\MULTICHART\control\GfxOutBarCtrl.cpp
; File C:\Program Files (x86)\Microsoft Visual Studio\2019\Community\VC\Tools\MSVC\14.29.30133\atlmfc\include\afxcoll.inl
; File D:\git\src\IBK\IBK_DRFN\ProjSrc\SrcDrfn\Chart\MULTICHART\control\GfxOutBarCtrl.cpp
; File C:\Program Files (x86)\Microsoft Visual Studio\2019\Community\VC\Tools\MSVC\14.29.30133\atlmfc\include\afxwin1.inl
; File C:\Program Files (x86)\Microsoft Visual Studio\2019\Community\VC\Tools\MSVC\14.29.30133\atlmfc\include\atltypes.h
; File D:\git\src\IBK\IBK_DRFN\ProjSrc\SrcDrfn\Chart\MULTICHART\control\GfxOutBarCtrl.cpp
; File C:\Program Files (x86)\Microsoft Visual Studio\2019\Community\VC\Tools\MSVC\14.29.30133\atlmfc\include\atltypes.h
; File D:\git\src\IBK\IBK_DRFN\ProjSrc\SrcDrfn\Chart\MULTICHART\control\GfxOutBarCtrl.cpp
; File C:\Program Files (x86)\Microsoft Visual Studio\2019\Community\VC\Tools\MSVC\14.29.30133\atlmfc\include\atltypes.h
; File D:\git\src\IBK\IBK_DRFN\ProjSrc\SrcDrfn\Chart\MULTICHART\control\GfxOutBarCtrl.cpp
; File C:\Program Files (x86)\Microsoft Visual Studio\2019\Community\VC\Tools\MSVC\14.29.30133\atlmfc\include\atltypes.h
; File D:\git\src\IBK\IBK_DRFN\ProjSrc\SrcDrfn\Chart\MULTICHART\control\GfxOutBarCtrl.cpp
; File C:\Program Files (x86)\Microsoft Visual Studio\2019\Community\VC\Tools\MSVC\14.29.30133\atlmfc\include\atltypes.h
; File D:\git\src\IBK\IBK_DRFN\ProjSrc\SrcDrfn\Chart\MULTICHART\control\GfxOutBarCtrl.cpp
; File C:\Program Files (x86)\Microsoft Visual Studio\2019\Community\VC\Tools\MSVC\14.29.30133\atlmfc\include\afxwin1.inl
; File D:\git\src\IBK\IBK_DRFN\ProjSrc\SrcDrfn\Chart\MULTICHART\control\GfxOutBarCtrl.cpp
; File C:\Program Files (x86)\Microsoft Visual Studio\2019\Community\VC\Tools\MSVC\14.29.30133\atlmfc\include\afxwin1.inl
; File D:\git\src\IBK\IBK_DRFN\ProjSrc\SrcDrfn\Chart\MULTICHART\control\GfxOutBarCtrl.cpp
; File C:\Program Files (x86)\Microsoft Visual Studio\2019\Community\VC\Tools\MSVC\14.29.30133\atlmfc\include\afxwin1.inl
; File C:\Program Files (x86)\Microsoft Visual Studio\2019\Community\VC\Tools\MSVC\14.29.30133\atlmfc\include\atltypes.h
; File D:\git\src\IBK\IBK_DRFN\ProjSrc\SrcDrfn\Chart\MULTICHART\control\GfxOutBarCtrl.cpp
; File C:\Program Files (x86)\Microsoft Visual Studio\2019\Community\VC\Tools\MSVC\14.29.30133\atlmfc\include\atltypes.h
; File D:\git\src\IBK\IBK_DRFN\ProjSrc\SrcDrfn\Chart\MULTICHART\control\GfxOutBarCtrl.cpp
; File C:\Program Files (x86)\Microsoft Visual Studio\2019\Community\VC\Tools\MSVC\14.29.30133\atlmfc\include\atltypes.h
; File D:\git\src\IBK\IBK_DRFN\ProjSrc\SrcDrfn\Chart\MULTICHART\control\GfxOutBarCtrl.cpp
; File C:\Program Files (x86)\Microsoft Visual Studio\2019\Community\VC\Tools\MSVC\14.29.30133\atlmfc\include\atltypes.h
; File D:\git\src\IBK\IBK_DRFN\ProjSrc\SrcDrfn\Chart\MULTICHART\control\GfxOutBarCtrl.cpp
; File C:\Program Files (x86)\Microsoft Visual Studio\2019\Community\VC\Tools\MSVC\14.29.30133\atlmfc\include\atltypes.h
; File D:\git\src\IBK\IBK_DRFN\ProjSrc\SrcDrfn\Chart\MULTICHART\control\GfxOutBarCtrl.cpp
; File C:\Program Files (x86)\Microsoft Visual Studio\2019\Community\VC\Tools\MSVC\14.29.30133\atlmfc\include\afxwin1.inl
; File D:\git\src\IBK\IBK_DRFN\ProjSrc\SrcDrfn\Chart\MULTICHART\control\GfxOutBarCtrl.cpp
;	COMDAT ?DrawAnimItem@CGfxOutBarCtrl@@QAEXHHH@Z
_TEXT	SEGMENT
_dc$6 = -144						; size = 20
_pi$1$ = -124						; size = 4
_this$GSCopy$1$ = -120					; size = 4
_ima$1$ = -116						; size = 4
_ii$7 = -112						; size = 32
_ii$8 = -112						; size = 32
_irc$ = -80						; size = 16
$T9 = -64						; size = 16
_rcBck$10 = -64						; size = 16
_rcBck$11 = -48						; size = 16
$T12 = -48						; size = 16
_rc$ = -32						; size = 16
__$ArrayPad$ = -16					; size = 4
__$EHRec$ = -12						; size = 12
_xoffset$ = 8						; size = 4
_yoffset$ = 12						; size = 4
_index$ = 16						; size = 4
?DrawAnimItem@CGfxOutBarCtrl@@QAEXHHH@Z PROC		; CGfxOutBarCtrl::DrawAnimItem, COMDAT
; _this$ = ecx

; 298  : {

  00000	55		 push	 ebp
  00001	8b ec		 mov	 ebp, esp
  00003	6a ff		 push	 -1
  00005	68 00 00 00 00	 push	 __ehhandler$?DrawAnimItem@CGfxOutBarCtrl@@QAEXHHH@Z
  0000a	64 a1 00 00 00
	00		 mov	 eax, DWORD PTR fs:0
  00010	50		 push	 eax
  00011	81 ec 84 00 00
	00		 sub	 esp, 132		; 00000084H
  00017	a1 00 00 00 00	 mov	 eax, DWORD PTR ___security_cookie
  0001c	33 c5		 xor	 eax, ebp
  0001e	89 45 f0	 mov	 DWORD PTR __$ArrayPad$[ebp], eax
  00021	53		 push	 ebx
  00022	56		 push	 esi
  00023	57		 push	 edi
  00024	50		 push	 eax
  00025	8d 45 f4	 lea	 eax, DWORD PTR __$EHRec$[ebp]
  00028	64 a3 00 00 00
	00		 mov	 DWORD PTR fs:0, eax
  0002e	8b d9		 mov	 ebx, ecx
  00030	89 5d 88	 mov	 DWORD PTR _this$GSCopy$1$[ebp], ebx

; 186  : 	return dwFlags&fSmallIcon;

  00033	8a 93 00 01 00
	00		 mov	 dl, BYTE PTR [ebx+256]

; 299  : 	CImageList * ima = GetFolderImageList(iSelFolder, IsSmallIconView());

  00039	8b 8b 34 01 00
	00		 mov	 ecx, DWORD PTR [ebx+308]

; 186  : 	return dwFlags&fSmallIcon;

  0003f	80 e2 01	 and	 dl, 1

; 298  : {

  00042	8b 7d 10	 mov	 edi, DWORD PTR _index$[ebp]
; File C:\Program Files (x86)\Microsoft Visual Studio\2019\Community\VC\Tools\MSVC\14.29.30133\atlmfc\include\afxcoll.inl

; 203  : 		if( nIndex < 0 || nIndex >= m_nSize )

  00045	85 c9		 test	 ecx, ecx
  00047	0f 88 39 02 00
	00		 js	 $LN30@DrawAnimIt
  0004d	3b 8b 0c 01 00
	00		 cmp	 ecx, DWORD PTR [ebx+268]
  00053	0f 8d 2d 02 00
	00		 jge	 $LN30@DrawAnimIt

; 205  : 		return m_pData[nIndex]; }

  00059	8b 83 08 01 00
	00		 mov	 eax, DWORD PTR [ebx+264]
  0005f	8b 34 88	 mov	 esi, DWORD PTR [eax+ecx*4]
; File D:\git\src\IBK\IBK_DRFN\ProjSrc\SrcDrfn\Chart\MULTICHART\control\GfxOutBarCtrl.cpp

; 1761 : 	if (bSmall)

  00062	84 d2		 test	 dl, dl
  00064	74 12		 je	 SHORT $LN14@DrawAnimIt

; 1762 : 	{
; 1763 : 		if (pbf->pSmallImageList) return pbf->pSmallImageList; else return pSmallImageList;

  00066	8b 76 10	 mov	 esi, DWORD PTR [esi+16]
  00069	89 75 8c	 mov	 DWORD PTR _ima$1$[ebp], esi
  0006c	85 f6		 test	 esi, esi
  0006e	75 1b		 jne	 SHORT $LN16@DrawAnimIt
  00070	8b b3 3c 01 00
	00		 mov	 esi, DWORD PTR [ebx+316]
  00076	eb 10		 jmp	 SHORT $LN80@DrawAnimIt
$LN14@DrawAnimIt:

; 1764 : 	}
; 1765 : 	if (pbf->pLargeImageList) return pbf->pLargeImageList; else return pLargeImageList;

  00078	8b 76 0c	 mov	 esi, DWORD PTR [esi+12]
  0007b	89 75 8c	 mov	 DWORD PTR _ima$1$[ebp], esi
  0007e	85 f6		 test	 esi, esi
  00080	75 09		 jne	 SHORT $LN16@DrawAnimIt
  00082	8b b3 38 01 00
	00		 mov	 esi, DWORD PTR [ebx+312]
$LN80@DrawAnimIt:
; File C:\Program Files (x86)\Microsoft Visual Studio\2019\Community\VC\Tools\MSVC\14.29.30133\atlmfc\include\atltypes.h

; 528  : 	left = 0;

  00088	89 75 8c	 mov	 DWORD PTR _ima$1$[ebp], esi
$LN16@DrawAnimIt:
  0008b	0f 57 c0	 xorps	 xmm0, xmm0
; File D:\git\src\IBK\IBK_DRFN\ProjSrc\SrcDrfn\Chart\MULTICHART\control\GfxOutBarCtrl.cpp

; 302  : 	GetInsideRect(irc);

  0008e	8d 45 b0	 lea	 eax, DWORD PTR _irc$[ebp]
  00091	50		 push	 eax
  00092	8b cb		 mov	 ecx, ebx
; File C:\Program Files (x86)\Microsoft Visual Studio\2019\Community\VC\Tools\MSVC\14.29.30133\atlmfc\include\atltypes.h

; 528  : 	left = 0;

  00094	0f 11 45 e0	 movups	 XMMWORD PTR _rc$[ebp], xmm0
  00098	0f 11 45 b0	 movups	 XMMWORD PTR _irc$[ebp], xmm0
; File D:\git\src\IBK\IBK_DRFN\ProjSrc\SrcDrfn\Chart\MULTICHART\control\GfxOutBarCtrl.cpp

; 302  : 	GetInsideRect(irc);

  0009c	e8 00 00 00 00	 call	 ?GetInsideRect@CGfxOutBarCtrl@@QBEXAAVCRect@@@Z ; CGfxOutBarCtrl::GetInsideRect

; 303  : 	GetItemRect(iSelFolder, iLastSel, rc);

  000a1	8d 45 e0	 lea	 eax, DWORD PTR _rc$[ebp]
  000a4	8b cb		 mov	 ecx, ebx
  000a6	50		 push	 eax
  000a7	ff b3 f4 00 00
	00		 push	 DWORD PTR [ebx+244]
  000ad	ff b3 34 01 00
	00		 push	 DWORD PTR [ebx+308]
  000b3	e8 00 00 00 00	 call	 ?GetItemRect@CGfxOutBarCtrl@@QAEXHHAAVCRect@@@Z ; CGfxOutBarCtrl::GetItemRect

; 304  : 
; 305  : 	if (iLastSel >= iFirstItem && irc.bottom > rc.bottom && irc.top < rc.top)

  000b8	8b 83 f4 00 00
	00		 mov	 eax, DWORD PTR [ebx+244]
  000be	3b 83 20 01 00
	00		 cmp	 eax, DWORD PTR [ebx+288]
  000c4	0f 8c 9e 01 00
	00		 jl	 $LN2@DrawAnimIt
  000ca	8b 45 bc	 mov	 eax, DWORD PTR _irc$[ebp+12]
  000cd	3b 45 ec	 cmp	 eax, DWORD PTR _rc$[ebp+12]
  000d0	0f 8e 92 01 00
	00		 jle	 $LN2@DrawAnimIt
  000d6	8b 45 b4	 mov	 eax, DWORD PTR _irc$[ebp+4]
  000d9	3b 45 e4	 cmp	 eax, DWORD PTR _rc$[ebp+4]
  000dc	0f 8d 86 01 00
	00		 jge	 $LN2@DrawAnimIt

; 306  : 	{
; 307  : 		ASSERT(iSelFolder >= 0 && iSelFolder < GetFolderCount());
; 308  : 		CBarFolder * pbf = (CBarFolder *) arFolder.GetAt(iSelFolder);

  000e2	8b 8b 34 01 00
	00		 mov	 ecx, DWORD PTR [ebx+308]
; File C:\Program Files (x86)\Microsoft Visual Studio\2019\Community\VC\Tools\MSVC\14.29.30133\atlmfc\include\afxcoll.inl

; 203  : 		if( nIndex < 0 || nIndex >= m_nSize )

  000e8	85 c9		 test	 ecx, ecx
  000ea	0f 88 96 01 00
	00		 js	 $LN30@DrawAnimIt
  000f0	3b 8b 0c 01 00
	00		 cmp	 ecx, DWORD PTR [ebx+268]
  000f6	0f 8d 8a 01 00
	00		 jge	 $LN30@DrawAnimIt

; 205  : 		return m_pData[nIndex]; }

  000fc	8b 83 08 01 00
	00		 mov	 eax, DWORD PTR [ebx+264]
  00102	8b 04 88	 mov	 eax, DWORD PTR [eax+ecx*4]

; 203  : 		if( nIndex < 0 || nIndex >= m_nSize )

  00105	85 ff		 test	 edi, edi
  00107	0f 88 79 01 00
	00		 js	 $LN30@DrawAnimIt
  0010d	3b 78 1c	 cmp	 edi, DWORD PTR [eax+28]
  00110	0f 8d 70 01 00
	00		 jge	 $LN30@DrawAnimIt

; 205  : 		return m_pData[nIndex]; }

  00116	8b 40 18	 mov	 eax, DWORD PTR [eax+24]
; File D:\git\src\IBK\IBK_DRFN\ProjSrc\SrcDrfn\Chart\MULTICHART\control\GfxOutBarCtrl.cpp

; 315  : 		CClientDC dc(this);

  00119	8d 8d 70 ff ff
	ff		 lea	 ecx, DWORD PTR _dc$6[ebp]
  0011f	53		 push	 ebx
; File C:\Program Files (x86)\Microsoft Visual Studio\2019\Community\VC\Tools\MSVC\14.29.30133\atlmfc\include\afxcoll.inl

; 205  : 		return m_pData[nIndex]; }

  00120	8b 3c b8	 mov	 edi, DWORD PTR [eax+edi*4]
  00123	89 7d 84	 mov	 DWORD PTR _pi$1$[ebp], edi
; File D:\git\src\IBK\IBK_DRFN\ProjSrc\SrcDrfn\Chart\MULTICHART\control\GfxOutBarCtrl.cpp

; 315  : 		CClientDC dc(this);

  00126	e8 00 00 00 00	 call	 ??0CClientDC@@QAE@PAVCWnd@@@Z ; CClientDC::CClientDC

; 186  : 	return dwFlags&fSmallIcon;

  0012b	8a 83 00 01 00
	00		 mov	 al, BYTE PTR [ebx+256]
  00131	24 01		 and	 al, 1

; 315  : 		CClientDC dc(this);

  00133	c7 45 fc 00 00
	00 00		 mov	 DWORD PTR __$EHRec$[ebp+8], 0

; 318  : 		{
; 319  : 			if (ima)

  0013a	85 f6		 test	 esi, esi
  0013c	0f 84 1b 01 00
	00		 je	 $LN6@DrawAnimIt

; 316  : 
; 317  : 		if (IsSmallIconView())

  00142	84 c0		 test	 al, al
  00144	8d 45 90	 lea	 eax, DWORD PTR _ii$8[ebp]
  00147	50		 push	 eax
  00148	ff 77 04	 push	 DWORD PTR [edi+4]
  0014b	ff 76 04	 push	 DWORD PTR [esi+4]
  0014e	74 7e		 je	 SHORT $LN3@DrawAnimIt
; File C:\Program Files (x86)\Microsoft Visual Studio\2019\Community\VC\Tools\MSVC\14.29.30133\atlmfc\include\afxwin1.inl

; 881  : 	{ ASSERT(m_hImageList != NULL); return ImageList_GetImageInfo(m_hImageList, nImage, pImageInfo); }

  00150	ff 15 00 00 00
	00		 call	 DWORD PTR __imp__ImageList_GetImageInfo@12
; File C:\Program Files (x86)\Microsoft Visual Studio\2019\Community\VC\Tools\MSVC\14.29.30133\atlmfc\include\atltypes.h

; 548  : 	::CopyRect(this, &srcRect);

  00156	8d 45 a0	 lea	 eax, DWORD PTR _ii$8[ebp+16]
  00159	50		 push	 eax
  0015a	8d 45 d0	 lea	 eax, DWORD PTR $T12[ebp]
  0015d	50		 push	 eax
  0015e	ff 15 00 00 00
	00		 call	 DWORD PTR __imp__CopyRect@8

; 586  : 	return CSize(right - left, bottom - top);

  00164	8b 7d dc	 mov	 edi, DWORD PTR $T12[ebp+12]
  00167	2b 7d d4	 sub	 edi, DWORD PTR $T12[ebp+4]
; File D:\git\src\IBK\IBK_DRFN\ProjSrc\SrcDrfn\Chart\MULTICHART\control\GfxOutBarCtrl.cpp

; 326  : 				pt.y = rc.top + (rc.Height() - szImage.cy) / 2;

  0016a	8b 45 ec	 mov	 eax, DWORD PTR _rc$[ebp+12]
  0016d	8b 4d e4	 mov	 ecx, DWORD PTR _rc$[ebp+4]
  00170	2b c7		 sub	 eax, edi
  00172	8b 5d e0	 mov	 ebx, DWORD PTR _rc$[ebp]
  00175	2b c1		 sub	 eax, ecx
  00177	99		 cdq
  00178	83 c3 02	 add	 ebx, 2
  0017b	2b c2		 sub	 eax, edx
  0017d	d1 f8		 sar	 eax, 1
  0017f	8d 34 08	 lea	 esi, DWORD PTR [eax+ecx]
; File C:\Program Files (x86)\Microsoft Visual Studio\2019\Community\VC\Tools\MSVC\14.29.30133\atlmfc\include\atltypes.h

; 542  : 	right = r;

  00182	8b cb		 mov	 ecx, ebx
  00184	2b 4d d0	 sub	 ecx, DWORD PTR $T12[ebp]
; File D:\git\src\IBK\IBK_DRFN\ProjSrc\SrcDrfn\Chart\MULTICHART\control\GfxOutBarCtrl.cpp

; 326  : 				pt.y = rc.top + (rc.Height() - szImage.cy) / 2;

  00187	8d 43 ff	 lea	 eax, DWORD PTR [ebx-1]
; File C:\Program Files (x86)\Microsoft Visual Studio\2019\Community\VC\Tools\MSVC\14.29.30133\atlmfc\include\atltypes.h

; 540  : 	left = l;

  0018a	89 45 c0	 mov	 DWORD PTR _rcBck$10[ebp], eax
  0018d	8d 46 ff	 lea	 eax, DWORD PTR [esi-1]

; 541  : 	top = t;

  00190	89 45 c4	 mov	 DWORD PTR _rcBck$10[ebp+4], eax
; File D:\git\src\IBK\IBK_DRFN\ProjSrc\SrcDrfn\Chart\MULTICHART\control\GfxOutBarCtrl.cpp

; 328  : 				CRect rcBck(pt.x-1, pt.y-1, pt.x + szImage.cx+2, pt.y + szImage.cy+2);

  00193	8b 45 d8	 mov	 eax, DWORD PTR $T12[ebp+8]
  00196	83 c0 02	 add	 eax, 2
  00199	03 c1		 add	 eax, ecx

; 329  : 				dc.FillSolidRect(rcBck, crBackGroundColor);

  0019b	8d 8d 70 ff ff
	ff		 lea	 ecx, DWORD PTR _dc$6[ebp]
; File C:\Program Files (x86)\Microsoft Visual Studio\2019\Community\VC\Tools\MSVC\14.29.30133\atlmfc\include\atltypes.h

; 542  : 	right = r;

  001a1	89 45 c8	 mov	 DWORD PTR _rcBck$10[ebp+8], eax
; File D:\git\src\IBK\IBK_DRFN\ProjSrc\SrcDrfn\Chart\MULTICHART\control\GfxOutBarCtrl.cpp

; 328  : 				CRect rcBck(pt.x-1, pt.y-1, pt.x + szImage.cx+2, pt.y + szImage.cy+2);

  001a4	8d 47 02	 lea	 eax, DWORD PTR [edi+2]
  001a7	03 c6		 add	 eax, esi
; File C:\Program Files (x86)\Microsoft Visual Studio\2019\Community\VC\Tools\MSVC\14.29.30133\atlmfc\include\atltypes.h

; 543  : 	bottom = b;

  001a9	89 45 cc	 mov	 DWORD PTR _rcBck$10[ebp+12], eax
; File D:\git\src\IBK\IBK_DRFN\ProjSrc\SrcDrfn\Chart\MULTICHART\control\GfxOutBarCtrl.cpp

; 329  : 				dc.FillSolidRect(rcBck, crBackGroundColor);

  001ac	8b 45 88	 mov	 eax, DWORD PTR _this$GSCopy$1$[ebp]
  001af	ff b0 80 00 00
	00		 push	 DWORD PTR [eax+128]
  001b5	8d 45 c0	 lea	 eax, DWORD PTR _rcBck$10[ebp]
  001b8	50		 push	 eax
  001b9	e8 00 00 00 00	 call	 ?FillSolidRect@CDC@@QAEXPBUtagRECT@@K@Z ; CDC::FillSolidRect
  001be	8b 4d 08	 mov	 ecx, DWORD PTR _xoffset$[ebp]

; 331  : 				pt.x += xoffset;

  001c1	8b 45 0c	 mov	 eax, DWORD PTR _yoffset$[ebp]
  001c4	03 cb		 add	 ecx, ebx
; File C:\Program Files (x86)\Microsoft Visual Studio\2019\Community\VC\Tools\MSVC\14.29.30133\atlmfc\include\afxwin1.inl

; 871  : 	{ ASSERT(m_hImageList != NULL); ASSERT(pDC != NULL); return ImageList_Draw(m_hImageList, nImage, pDC->GetSafeHdc(), pt.x, pt.y, nStyle); }

  001c6	6a 00		 push	 0
; File D:\git\src\IBK\IBK_DRFN\ProjSrc\SrcDrfn\Chart\MULTICHART\control\GfxOutBarCtrl.cpp

; 331  : 				pt.x += xoffset;

  001c8	03 c6		 add	 eax, esi
; File C:\Program Files (x86)\Microsoft Visual Studio\2019\Community\VC\Tools\MSVC\14.29.30133\atlmfc\include\afxwin1.inl

; 871  : 	{ ASSERT(m_hImageList != NULL); ASSERT(pDC != NULL); return ImageList_Draw(m_hImageList, nImage, pDC->GetSafeHdc(), pt.x, pt.y, nStyle); }

  001ca	50		 push	 eax
  001cb	51		 push	 ecx
; File D:\git\src\IBK\IBK_DRFN\ProjSrc\SrcDrfn\Chart\MULTICHART\control\GfxOutBarCtrl.cpp

; 337  : 		}

  001cc	eb 77		 jmp	 SHORT $LN81@DrawAnimIt
$LN3@DrawAnimIt:
; File C:\Program Files (x86)\Microsoft Visual Studio\2019\Community\VC\Tools\MSVC\14.29.30133\atlmfc\include\afxwin1.inl

; 881  : 	{ ASSERT(m_hImageList != NULL); return ImageList_GetImageInfo(m_hImageList, nImage, pImageInfo); }

  001ce	ff 15 00 00 00
	00		 call	 DWORD PTR __imp__ImageList_GetImageInfo@12
; File C:\Program Files (x86)\Microsoft Visual Studio\2019\Community\VC\Tools\MSVC\14.29.30133\atlmfc\include\atltypes.h

; 548  : 	::CopyRect(this, &srcRect);

  001d4	8d 45 a0	 lea	 eax, DWORD PTR _ii$7[ebp+16]
  001d7	50		 push	 eax
  001d8	8d 45 c0	 lea	 eax, DWORD PTR $T9[ebp]
  001db	50		 push	 eax
  001dc	ff 15 00 00 00
	00		 call	 DWORD PTR __imp__CopyRect@8

; 586  : 	return CSize(right - left, bottom - top);

  001e2	8b 75 c8	 mov	 esi, DWORD PTR $T9[ebp+8]
  001e5	2b 75 c0	 sub	 esi, DWORD PTR $T9[ebp]
; File D:\git\src\IBK\IBK_DRFN\ProjSrc\SrcDrfn\Chart\MULTICHART\control\GfxOutBarCtrl.cpp

; 346  : 				pt.x = rc.left + (rc.Width() - szImage.cx) / 2;

  001e8	8b 45 e8	 mov	 eax, DWORD PTR _rc$[ebp+8]
  001eb	8b 4d e0	 mov	 ecx, DWORD PTR _rc$[ebp]
  001ee	2b c6		 sub	 eax, esi

; 347  : 				pt.y = rc.top;

  001f0	8b 5d e4	 mov	 ebx, DWORD PTR _rc$[ebp+4]
  001f3	2b c1		 sub	 eax, ecx
  001f5	99		 cdq
  001f6	2b c2		 sub	 eax, edx
  001f8	d1 f8		 sar	 eax, 1
  001fa	8d 3c 08	 lea	 edi, DWORD PTR [eax+ecx]
; File C:\Program Files (x86)\Microsoft Visual Studio\2019\Community\VC\Tools\MSVC\14.29.30133\atlmfc\include\atltypes.h

; 543  : 	bottom = b;

  001fd	8b cb		 mov	 ecx, ebx
  001ff	2b 4d c4	 sub	 ecx, DWORD PTR $T9[ebp+4]
; File D:\git\src\IBK\IBK_DRFN\ProjSrc\SrcDrfn\Chart\MULTICHART\control\GfxOutBarCtrl.cpp

; 347  : 				pt.y = rc.top;

  00202	8d 47 ff	 lea	 eax, DWORD PTR [edi-1]
; File C:\Program Files (x86)\Microsoft Visual Studio\2019\Community\VC\Tools\MSVC\14.29.30133\atlmfc\include\atltypes.h

; 540  : 	left = l;

  00205	89 45 d0	 mov	 DWORD PTR _rcBck$11[ebp], eax
  00208	8d 43 ff	 lea	 eax, DWORD PTR [ebx-1]

; 541  : 	top = t;

  0020b	89 45 d4	 mov	 DWORD PTR _rcBck$11[ebp+4], eax
; File D:\git\src\IBK\IBK_DRFN\ProjSrc\SrcDrfn\Chart\MULTICHART\control\GfxOutBarCtrl.cpp

; 349  : 				CRect rcBck(pt.x-1, pt.y-1, pt.x + szImage.cx+2, pt.y + szImage.cy+2);

  0020e	8d 46 02	 lea	 eax, DWORD PTR [esi+2]
  00211	03 c7		 add	 eax, edi
; File C:\Program Files (x86)\Microsoft Visual Studio\2019\Community\VC\Tools\MSVC\14.29.30133\atlmfc\include\atltypes.h

; 542  : 	right = r;

  00213	89 45 d8	 mov	 DWORD PTR _rcBck$11[ebp+8], eax
; File D:\git\src\IBK\IBK_DRFN\ProjSrc\SrcDrfn\Chart\MULTICHART\control\GfxOutBarCtrl.cpp

; 349  : 				CRect rcBck(pt.x-1, pt.y-1, pt.x + szImage.cx+2, pt.y + szImage.cy+2);

  00216	8b 45 cc	 mov	 eax, DWORD PTR $T9[ebp+12]
  00219	83 c0 02	 add	 eax, 2
  0021c	03 c1		 add	 eax, ecx

; 350  : 				dc.FillSolidRect(rcBck, crBackGroundColor);

  0021e	8d 8d 70 ff ff
	ff		 lea	 ecx, DWORD PTR _dc$6[ebp]
; File C:\Program Files (x86)\Microsoft Visual Studio\2019\Community\VC\Tools\MSVC\14.29.30133\atlmfc\include\atltypes.h

; 543  : 	bottom = b;

  00224	89 45 dc	 mov	 DWORD PTR _rcBck$11[ebp+12], eax
; File D:\git\src\IBK\IBK_DRFN\ProjSrc\SrcDrfn\Chart\MULTICHART\control\GfxOutBarCtrl.cpp

; 350  : 				dc.FillSolidRect(rcBck, crBackGroundColor);

  00227	8b 45 88	 mov	 eax, DWORD PTR _this$GSCopy$1$[ebp]
  0022a	ff b0 80 00 00
	00		 push	 DWORD PTR [eax+128]
  00230	8d 45 d0	 lea	 eax, DWORD PTR _rcBck$11[ebp]
  00233	50		 push	 eax
  00234	e8 00 00 00 00	 call	 ?FillSolidRect@CDC@@QAEXPBUtagRECT@@K@Z ; CDC::FillSolidRect
  00239	8b 45 08	 mov	 eax, DWORD PTR _xoffset$[ebp]
  0023c	03 c7		 add	 eax, edi

; 351  : 
; 352  : 				pt.x += xoffset;
; 353  : 				pt.y += yoffset;

  0023e	03 5d 0c	 add	 ebx, DWORD PTR _yoffset$[ebp]
; File C:\Program Files (x86)\Microsoft Visual Studio\2019\Community\VC\Tools\MSVC\14.29.30133\atlmfc\include\afxwin1.inl

; 871  : 	{ ASSERT(m_hImageList != NULL); ASSERT(pDC != NULL); return ImageList_Draw(m_hImageList, nImage, pDC->GetSafeHdc(), pt.x, pt.y, nStyle); }

  00241	6a 00		 push	 0
  00243	53		 push	 ebx
  00244	50		 push	 eax
$LN81@DrawAnimIt:
; File D:\git\src\IBK\IBK_DRFN\ProjSrc\SrcDrfn\Chart\MULTICHART\control\GfxOutBarCtrl.cpp

; 358  : 	}

  00245	8b 45 84	 mov	 eax, DWORD PTR _pi$1$[ebp]
  00248	ff b5 74 ff ff
	ff		 push	 DWORD PTR _dc$6[ebp+4]
  0024e	ff 70 04	 push	 DWORD PTR [eax+4]
  00251	8b 45 8c	 mov	 eax, DWORD PTR _ima$1$[ebp]
  00254	ff 70 04	 push	 DWORD PTR [eax+4]
  00257	ff 15 00 00 00
	00		 call	 DWORD PTR __imp__ImageList_Draw@24
$LN6@DrawAnimIt:
  0025d	8d 8d 70 ff ff
	ff		 lea	 ecx, DWORD PTR _dc$6[ebp]
  00263	e8 00 00 00 00	 call	 ??1CClientDC@@UAE@XZ	; CClientDC::~CClientDC
$LN2@DrawAnimIt:

; 359  : }

  00268	8b 4d f4	 mov	 ecx, DWORD PTR __$EHRec$[ebp]
  0026b	64 89 0d 00 00
	00 00		 mov	 DWORD PTR fs:0, ecx
  00272	59		 pop	 ecx
  00273	5f		 pop	 edi
  00274	5e		 pop	 esi
  00275	5b		 pop	 ebx
  00276	8b 4d f0	 mov	 ecx, DWORD PTR __$ArrayPad$[ebp]
  00279	33 cd		 xor	 ecx, ebp
  0027b	e8 00 00 00 00	 call	 @__security_check_cookie@4
  00280	8b e5		 mov	 esp, ebp
  00282	5d		 pop	 ebp
  00283	c2 0c 00	 ret	 12			; 0000000cH
$LN30@DrawAnimIt:
  00286	e8 00 00 00 00	 call	 ?AfxThrowInvalidArgException@@YGXXZ ; AfxThrowInvalidArgException
$LN79@DrawAnimIt:
  0028b	cc		 int	 3
_TEXT	ENDS
;	COMDAT text$x
text$x	SEGMENT
__unwindfunclet$?DrawAnimItem@CGfxOutBarCtrl@@QAEXHHH@Z$0:
  00000	8d 8d 70 ff ff
	ff		 lea	 ecx, DWORD PTR _dc$6[ebp]
  00006	e9 00 00 00 00	 jmp	 ??1CClientDC@@UAE@XZ	; CClientDC::~CClientDC
  0000b	cc		 int	 3
  0000c	cc		 int	 3
  0000d	cc		 int	 3
  0000e	cc		 int	 3
  0000f	cc		 int	 3
__ehhandler$?DrawAnimItem@CGfxOutBarCtrl@@QAEXHHH@Z:
  00010	90		 npad	 1
  00011	90		 npad	 1
  00012	8b 54 24 08	 mov	 edx, DWORD PTR [esp+8]
  00016	8d 42 0c	 lea	 eax, DWORD PTR [edx+12]
  00019	8b 8a 6c ff ff
	ff		 mov	 ecx, DWORD PTR [edx-148]
  0001f	33 c8		 xor	 ecx, eax
  00021	e8 00 00 00 00	 call	 @__security_check_cookie@4
  00026	8b 4a fc	 mov	 ecx, DWORD PTR [edx-4]
  00029	33 c8		 xor	 ecx, eax
  0002b	e8 00 00 00 00	 call	 @__security_check_cookie@4
  00030	b8 00 00 00 00	 mov	 eax, OFFSET __ehfuncinfo$?DrawAnimItem@CGfxOutBarCtrl@@QAEXHHH@Z
  00035	e9 00 00 00 00	 jmp	 ___CxxFrameHandler3
text$x	ENDS
?DrawAnimItem@CGfxOutBarCtrl@@QAEXHHH@Z ENDP		; CGfxOutBarCtrl::DrawAnimItem
; Function compile flags: /Ogtp
; File D:\git\src\IBK\IBK_DRFN\ProjSrc\SrcDrfn\Chart\MULTICHART\control\GfxOutBarCtrl.cpp
;	COMDAT ?SetBackColor@CGfxOutBarCtrl@@QAEXHKKKK@Z
_TEXT	SEGMENT
_bGradient$ = 8						; size = 4
_bgTop$ = 12						; size = 4
_bgBottom$ = 16						; size = 4
_TextColor$ = 20					; size = 4
_sTextColor$ = 24					; size = 4
?SetBackColor@CGfxOutBarCtrl@@QAEXHKKKK@Z PROC		; CGfxOutBarCtrl::SetBackColor, COMDAT
; _this$ = ecx

; 2500 : {

  00000	55		 push	 ebp
  00001	8b ec		 mov	 ebp, esp

; 2501 : 	m_bGradient = FALSE;
; 2502 : 
; 2503 : 	crTextColor = TextColor;

  00003	8b 45 14	 mov	 eax, DWORD PTR _TextColor$[ebp]
  00006	89 81 88 00 00
	00		 mov	 DWORD PTR [ecx+136], eax

; 2504 : 	crSelTextColor = sTextColor;

  0000c	8b 45 18	 mov	 eax, DWORD PTR _sTextColor$[ebp]
  0000f	c7 81 50 01 00
	00 00 00 00 00	 mov	 DWORD PTR [ecx+336], 0
  00019	89 81 8c 00 00
	00		 mov	 DWORD PTR [ecx+140], eax

; 2505 : }

  0001f	5d		 pop	 ebp
  00020	c2 14 00	 ret	 20			; 00000014H
?SetBackColor@CGfxOutBarCtrl@@QAEXHKKKK@Z ENDP		; CGfxOutBarCtrl::SetBackColor
_TEXT	ENDS
; Function compile flags: /Ogtp
; File D:\git\src\IBK\IBK_DRFN\ProjSrc\SrcDrfn\Chart\MULTICHART\control\GfxOutBarCtrl.cpp
; File C:\Program Files (x86)\Microsoft Visual Studio\2019\Community\VC\Tools\MSVC\14.29.30133\atlmfc\include\afxcoll.inl
; File D:\git\src\IBK\IBK_DRFN\ProjSrc\SrcDrfn\Chart\MULTICHART\control\GfxOutBarCtrl.cpp
; File C:\Program Files (x86)\Microsoft Visual Studio\2019\Community\VC\Tools\MSVC\14.29.30133\atlmfc\include\afxcoll.inl
; File D:\git\src\IBK\IBK_DRFN\ProjSrc\SrcDrfn\Chart\MULTICHART\control\GfxOutBarCtrl.cpp
; File C:\Program Files (x86)\Microsoft Visual Studio\2019\Community\VC\Tools\MSVC\14.29.30133\atlmfc\include\afxcoll.inl
; File D:\git\src\IBK\IBK_DRFN\ProjSrc\SrcDrfn\Chart\MULTICHART\control\GfxOutBarCtrl.cpp
;	COMDAT ?DeleteAllFolder@CGfxOutBarCtrl@@QAEXXZ
_TEXT	SEGMENT
?DeleteAllFolder@CGfxOutBarCtrl@@QAEXXZ PROC		; CGfxOutBarCtrl::DeleteAllFolder, COMDAT
; _this$ = ecx

; 2508 : {

  00000	56		 push	 esi
  00001	57		 push	 edi
  00002	8b f9		 mov	 edi, ecx

; 2509 : 	for (int t = 0; t < arFolder.GetSize(); t++)

  00004	33 f6		 xor	 esi, esi
  00006	8b 97 0c 01 00
	00		 mov	 edx, DWORD PTR [edi+268]
  0000c	85 d2		 test	 edx, edx
  0000e	7e 26		 jle	 SHORT $LN25@DeleteAllF
$LL4@DeleteAllF:
; File C:\Program Files (x86)\Microsoft Visual Studio\2019\Community\VC\Tools\MSVC\14.29.30133\atlmfc\include\afxcoll.inl

; 203  : 		if( nIndex < 0 || nIndex >= m_nSize )

  00010	85 f6		 test	 esi, esi
  00012	78 3e		 js	 SHORT $LN21@DeleteAllF
  00014	3b f2		 cmp	 esi, edx
  00016	7d 3a		 jge	 SHORT $LN21@DeleteAllF
; File D:\git\src\IBK\IBK_DRFN\ProjSrc\SrcDrfn\Chart\MULTICHART\control\GfxOutBarCtrl.cpp

; 2511 : 		if (arFolder.GetAt(t)) delete (CBarFolder*) arFolder.GetAt(t);

  00018	8b 87 08 01 00
	00		 mov	 eax, DWORD PTR [edi+264]
  0001e	8b 0c b0	 mov	 ecx, DWORD PTR [eax+esi*4]
  00021	85 c9		 test	 ecx, ecx
  00023	74 0c		 je	 SHORT $LN2@DeleteAllF
  00025	8b 01		 mov	 eax, DWORD PTR [ecx]
  00027	6a 01		 push	 1
  00029	ff 10		 call	 DWORD PTR [eax]
  0002b	8b 97 0c 01 00
	00		 mov	 edx, DWORD PTR [edi+268]
$LN2@DeleteAllF:

; 2509 : 	for (int t = 0; t < arFolder.GetSize(); t++)

  00031	46		 inc	 esi
  00032	3b f2		 cmp	 esi, edx
  00034	7c da		 jl	 SHORT $LL4@DeleteAllF
$LN25@DeleteAllF:
; File C:\Program Files (x86)\Microsoft Visual Studio\2019\Community\VC\Tools\MSVC\14.29.30133\atlmfc\include\afxcoll.inl

; 200  : 	{ SetSize(0); }

  00036	6a ff		 push	 -1
  00038	6a 00		 push	 0
  0003a	8d 8f 04 01 00
	00		 lea	 ecx, DWORD PTR [edi+260]
  00040	e8 00 00 00 00	 call	 ?SetSize@CPtrArray@@QAEXHH@Z ; CPtrArray::SetSize
; File D:\git\src\IBK\IBK_DRFN\ProjSrc\SrcDrfn\Chart\MULTICHART\control\GfxOutBarCtrl.cpp

; 2514 : 	iSelFolder = 0;

  00045	c7 87 34 01 00
	00 00 00 00 00	 mov	 DWORD PTR [edi+308], 0
  0004f	5f		 pop	 edi
  00050	5e		 pop	 esi

; 2515 : }

  00051	c3		 ret	 0
$LN21@DeleteAllF:
; File C:\Program Files (x86)\Microsoft Visual Studio\2019\Community\VC\Tools\MSVC\14.29.30133\atlmfc\include\afxcoll.inl

; 204  : 			AfxThrowInvalidArgException();

  00052	e8 00 00 00 00	 call	 ?AfxThrowInvalidArgException@@YGXXZ ; AfxThrowInvalidArgException
$LN27@DeleteAllF:
  00057	cc		 int	 3
?DeleteAllFolder@CGfxOutBarCtrl@@QAEXXZ ENDP		; CGfxOutBarCtrl::DeleteAllFolder
_TEXT	ENDS
; Function compile flags: /Ogtp
; File D:\git\src\IBK\IBK_DRFN\ProjSrc\SrcDrfn\Chart\MULTICHART\control\GfxOutBarCtrl.cpp
; File C:\Program Files (x86)\Microsoft Visual Studio\2019\Community\VC\Tools\MSVC\14.29.30133\atlmfc\include\afxcoll.inl
; File D:\git\src\IBK\IBK_DRFN\ProjSrc\SrcDrfn\Chart\MULTICHART\control\GfxOutBarCtrl.cpp
; File C:\Program Files (x86)\Microsoft Visual Studio\2019\Community\VC\Tools\MSVC\14.29.30133\atlmfc\include\afxcoll.inl
; File D:\git\src\IBK\IBK_DRFN\ProjSrc\SrcDrfn\Chart\MULTICHART\control\GfxOutBarCtrl.cpp
; File C:\Program Files (x86)\Microsoft Visual Studio\2019\Community\VC\Tools\MSVC\14.29.30133\atlmfc\include\afxcoll.inl
;	COMDAT ??_GCBarFolder@CGfxOutBarCtrl@@UAEPAXI@Z
_TEXT	SEGMENT
__$EHRec$ = -12						; size = 12
___flags$ = 8						; size = 4
??_GCBarFolder@CGfxOutBarCtrl@@UAEPAXI@Z PROC		; CGfxOutBarCtrl::CBarFolder::`scalar deleting destructor', COMDAT
; _this$ = ecx
  00000	55		 push	 ebp
  00001	8b ec		 mov	 ebp, esp
  00003	6a ff		 push	 -1
  00005	68 00 00 00 00	 push	 __ehhandler$??_GCBarFolder@CGfxOutBarCtrl@@UAEPAXI@Z
  0000a	64 a1 00 00 00
	00		 mov	 eax, DWORD PTR fs:0
  00010	50		 push	 eax
  00011	56		 push	 esi
  00012	57		 push	 edi
  00013	a1 00 00 00 00	 mov	 eax, DWORD PTR ___security_cookie
  00018	33 c5		 xor	 eax, ebp
  0001a	50		 push	 eax
  0001b	8d 45 f4	 lea	 eax, DWORD PTR __$EHRec$[ebp]
  0001e	64 a3 00 00 00
	00		 mov	 DWORD PTR fs:0, eax
  00024	8b f9		 mov	 edi, ecx
; File D:\git\src\IBK\IBK_DRFN\ProjSrc\SrcDrfn\Chart\MULTICHART\control\GfxOutBarCtrl.cpp

; 764  : 	if (cName) delete [] cName;

  00026	8b 47 04	 mov	 eax, DWORD PTR [edi+4]
  00029	c7 45 fc 00 00
	00 00		 mov	 DWORD PTR __$EHRec$[ebp+8], 0
  00030	c7 07 00 00 00
	00		 mov	 DWORD PTR [edi], OFFSET ??_7CBarFolder@CGfxOutBarCtrl@@6B@
  00036	85 c0		 test	 eax, eax
  00038	74 09		 je	 SHORT $LN8@scalar
  0003a	50		 push	 eax
  0003b	e8 00 00 00 00	 call	 ??_V@YAXPAX@Z		; operator delete[]
  00040	83 c4 04	 add	 esp, 4
$LN8@scalar:

; 765  : 	for (int t = 0; t < arItems.GetSize(); t++)

  00043	8b 57 1c	 mov	 edx, DWORD PTR [edi+28]
  00046	33 f6		 xor	 esi, esi
  00048	85 d2		 test	 edx, edx
  0004a	7e 24		 jle	 SHORT $LN31@scalar
  0004c	0f 1f 40 00	 npad	 4
$LL7@scalar:
; File C:\Program Files (x86)\Microsoft Visual Studio\2019\Community\VC\Tools\MSVC\14.29.30133\atlmfc\include\afxcoll.inl

; 203  : 		if( nIndex < 0 || nIndex >= m_nSize )

  00050	85 f6		 test	 esi, esi
  00052	78 56		 js	 SHORT $LN27@scalar
  00054	3b f2		 cmp	 esi, edx
  00056	7d 52		 jge	 SHORT $LN27@scalar
; File D:\git\src\IBK\IBK_DRFN\ProjSrc\SrcDrfn\Chart\MULTICHART\control\GfxOutBarCtrl.cpp

; 766  : 		if (arItems.GetAt(t)) delete (CBarFolder*) arItems.GetAt(t);

  00058	8b 47 18	 mov	 eax, DWORD PTR [edi+24]
  0005b	8b 0c b0	 mov	 ecx, DWORD PTR [eax+esi*4]
  0005e	85 c9		 test	 ecx, ecx
  00060	74 09		 je	 SHORT $LN5@scalar
  00062	8b 01		 mov	 eax, DWORD PTR [ecx]
  00064	6a 01		 push	 1
  00066	ff 10		 call	 DWORD PTR [eax]
  00068	8b 57 1c	 mov	 edx, DWORD PTR [edi+28]
$LN5@scalar:

; 765  : 	for (int t = 0; t < arItems.GetSize(); t++)

  0006b	46		 inc	 esi
  0006c	3b f2		 cmp	 esi, edx
  0006e	7c e0		 jl	 SHORT $LL7@scalar
$LN31@scalar:
; File C:\Program Files (x86)\Microsoft Visual Studio\2019\Community\VC\Tools\MSVC\14.29.30133\atlmfc\include\afxcoll.inl

; 200  : 	{ SetSize(0); }

  00070	6a ff		 push	 -1
  00072	6a 00		 push	 0
  00074	8d 4f 14	 lea	 ecx, DWORD PTR [edi+20]
  00077	e8 00 00 00 00	 call	 ?SetSize@CPtrArray@@QAEXHH@Z ; CPtrArray::SetSize
; File D:\git\src\IBK\IBK_DRFN\ProjSrc\SrcDrfn\Chart\MULTICHART\control\GfxOutBarCtrl.cpp

; 769  : }

  0007c	8d 4f 14	 lea	 ecx, DWORD PTR [edi+20]
  0007f	e8 00 00 00 00	 call	 ??1CPtrArray@@UAE@XZ	; CPtrArray::~CPtrArray
  00084	f6 45 08 01	 test	 BYTE PTR ___flags$[ebp], 1
  00088	74 0b		 je	 SHORT $LN2@scalar
  0008a	6a 2c		 push	 44			; 0000002cH
  0008c	57		 push	 edi
  0008d	e8 00 00 00 00	 call	 ??3@YAXPAXI@Z		; operator delete
  00092	83 c4 08	 add	 esp, 8
$LN2@scalar:
  00095	8b c7		 mov	 eax, edi
  00097	8b 4d f4	 mov	 ecx, DWORD PTR __$EHRec$[ebp]
  0009a	64 89 0d 00 00
	00 00		 mov	 DWORD PTR fs:0, ecx
  000a1	59		 pop	 ecx
  000a2	5f		 pop	 edi
  000a3	5e		 pop	 esi
  000a4	8b e5		 mov	 esp, ebp
  000a6	5d		 pop	 ebp
  000a7	c2 04 00	 ret	 4
$LN27@scalar:
; File C:\Program Files (x86)\Microsoft Visual Studio\2019\Community\VC\Tools\MSVC\14.29.30133\atlmfc\include\afxcoll.inl

; 204  : 			AfxThrowInvalidArgException();

  000aa	e8 00 00 00 00	 call	 ?AfxThrowInvalidArgException@@YGXXZ ; AfxThrowInvalidArgException
$LN34@scalar:
  000af	cc		 int	 3
  000b0	cc		 int	 3
  000b1	cc		 int	 3
  000b2	cc		 int	 3
  000b3	cc		 int	 3
  000b4	cc		 int	 3
_TEXT	ENDS
;	COMDAT text$x
text$x	SEGMENT
__ehhandler$??_GCBarFolder@CGfxOutBarCtrl@@UAEPAXI@Z:
  00000	90		 npad	 1
  00001	90		 npad	 1
  00002	8b 54 24 08	 mov	 edx, DWORD PTR [esp+8]
  00006	8d 42 0c	 lea	 eax, DWORD PTR [edx+12]
  00009	8b 4a f4	 mov	 ecx, DWORD PTR [edx-12]
  0000c	33 c8		 xor	 ecx, eax
  0000e	e8 00 00 00 00	 call	 @__security_check_cookie@4
  00013	b8 00 00 00 00	 mov	 eax, OFFSET __ehfuncinfo$??_GCBarFolder@CGfxOutBarCtrl@@UAEPAXI@Z
  00018	e9 00 00 00 00	 jmp	 ___CxxFrameHandler3
text$x	ENDS
??_GCBarFolder@CGfxOutBarCtrl@@UAEPAXI@Z ENDP		; CGfxOutBarCtrl::CBarFolder::`scalar deleting destructor'
; Function compile flags: /Ogtp
; File D:\git\src\IBK\IBK_DRFN\ProjSrc\SrcDrfn\Chart\MULTICHART\control\GfxOutBarCtrl.cpp
; File C:\Program Files (x86)\Microsoft Visual Studio\2019\Community\VC\Tools\MSVC\14.29.30133\atlmfc\include\afxcoll.inl
; File D:\git\src\IBK\IBK_DRFN\ProjSrc\SrcDrfn\Chart\MULTICHART\control\GfxOutBarCtrl.cpp
;	COMDAT ?InsertItem@CBarFolder@CGfxOutBarCtrl@@QAEHHPBDHK@Z
_TEXT	SEGMENT
_this$1$ = -16						; size = 4
__$EHRec$ = -12						; size = 12
$T2 = 8							; size = 4
_index$ = 8						; size = 4
_text$ = 12						; size = 4
_image$ = 16						; size = 4
_exData$ = 20						; size = 4
?InsertItem@CBarFolder@CGfxOutBarCtrl@@QAEHHPBDHK@Z PROC ; CGfxOutBarCtrl::CBarFolder::InsertItem, COMDAT
; _this$ = ecx

; 1580 : {

  00000	55		 push	 ebp
  00001	8b ec		 mov	 ebp, esp
  00003	6a ff		 push	 -1
  00005	68 00 00 00 00	 push	 __ehhandler$?InsertItem@CBarFolder@CGfxOutBarCtrl@@QAEHHPBDHK@Z
  0000a	64 a1 00 00 00
	00		 mov	 eax, DWORD PTR fs:0
  00010	50		 push	 eax
  00011	51		 push	 ecx
  00012	53		 push	 ebx
  00013	56		 push	 esi
  00014	57		 push	 edi
  00015	a1 00 00 00 00	 mov	 eax, DWORD PTR ___security_cookie
  0001a	33 c5		 xor	 eax, ebp
  0001c	50		 push	 eax
  0001d	8d 45 f4	 lea	 eax, DWORD PTR __$EHRec$[ebp]
  00020	64 a3 00 00 00
	00		 mov	 DWORD PTR fs:0, eax
  00026	8b c1		 mov	 eax, ecx
  00028	89 45 f0	 mov	 DWORD PTR _this$1$[ebp], eax

; 1581 : 	if (index < 0 || index > GetItemCount()) index = GetItemCount();

  0002b	8b 7d 08	 mov	 edi, DWORD PTR _index$[ebp]
  0002e	8d 58 1c	 lea	 ebx, DWORD PTR [eax+28]
  00031	85 ff		 test	 edi, edi
  00033	78 04		 js	 SHORT $LN15@InsertItem
  00035	3b 3b		 cmp	 edi, DWORD PTR [ebx]
  00037	7e 02		 jle	 SHORT $LN2@InsertItem
$LN15@InsertItem:
  00039	8b 3b		 mov	 edi, DWORD PTR [ebx]
$LN2@InsertItem:

; 1582 : 
; 1583 : 	int c = GetItemCount();
; 1584 : 
; 1585 : 	CBarItem * pbf = new CBarItem(text, image, exData);

  0003b	6a 10		 push	 16			; 00000010H
  0003d	e8 00 00 00 00	 call	 ??2@YAPAXI@Z		; operator new
  00042	8b f0		 mov	 esi, eax
  00044	83 c4 04	 add	 esp, 4
  00047	89 75 08	 mov	 DWORD PTR $T2[ebp], esi
  0004a	c7 45 fc 00 00
	00 00		 mov	 DWORD PTR __$EHRec$[ebp+8], 0
  00051	85 f6		 test	 esi, esi
  00053	74 40		 je	 SHORT $LN7@InsertItem

; 1647 : 	iImageIndex = image;

  00055	8b 45 10	 mov	 eax, DWORD PTR _image$[ebp]
  00058	89 46 04	 mov	 DWORD PTR [esi+4], eax

; 1648 : 	dwData = exData;

  0005b	8b 45 14	 mov	 eax, DWORD PTR _exData$[ebp]
  0005e	89 46 0c	 mov	 DWORD PTR [esi+12], eax

; 1649 : 	if (name)

  00061	8b 45 0c	 mov	 eax, DWORD PTR _text$[ebp]
  00064	c7 06 00 00 00
	00		 mov	 DWORD PTR [esi], OFFSET ??_7CBarItem@CGfxOutBarCtrl@@6B@
  0006a	c7 46 08 00 00
	00 00		 mov	 DWORD PTR [esi+8], 0
  00071	85 c0		 test	 eax, eax
  00073	74 22		 je	 SHORT $LN8@InsertItem

; 1650 : 	{
; 1651 : 		cItem = new char[lstrlen(name)+1];

  00075	50		 push	 eax
  00076	ff 15 00 00 00
	00		 call	 DWORD PTR __imp__lstrlenA@4
  0007c	40		 inc	 eax
  0007d	50		 push	 eax
  0007e	e8 00 00 00 00	 call	 ??_U@YAPAXI@Z		; operator new[]
  00083	83 c4 04	 add	 esp, 4
  00086	89 46 08	 mov	 DWORD PTR [esi+8], eax

; 1652 : 		ASSERT(cItem);
; 1653 : 		lstrcpy(cItem, name);

  00089	ff 75 0c	 push	 DWORD PTR _text$[ebp]
  0008c	50		 push	 eax
  0008d	ff 15 00 00 00
	00		 call	 DWORD PTR __imp__lstrcpyA@8

; 1582 : 
; 1583 : 	int c = GetItemCount();
; 1584 : 
; 1585 : 	CBarItem * pbf = new CBarItem(text, image, exData);

  00093	eb 02		 jmp	 SHORT $LN8@InsertItem
$LN7@InsertItem:
  00095	33 f6		 xor	 esi, esi
$LN8@InsertItem:

; 1586 : 	ASSERT(pbf);
; 1587 : 	if (index < GetItemCount()) 

  00097	8b 4d f0	 mov	 ecx, DWORD PTR _this$1$[ebp]
  0009a	83 c1 14	 add	 ecx, 20			; 00000014H
  0009d	c7 45 fc ff ff
	ff ff		 mov	 DWORD PTR __$EHRec$[ebp+8], -1
  000a4	3b 3b		 cmp	 edi, DWORD PTR [ebx]
  000a6	7d 0b		 jge	 SHORT $LN4@InsertItem

; 1588 : 		arItems.InsertAt(index, (void *) pbf);

  000a8	6a 01		 push	 1
  000aa	56		 push	 esi
  000ab	57		 push	 edi
  000ac	e8 00 00 00 00	 call	 ?InsertAt@CPtrArray@@QAEXHPAXH@Z ; CPtrArray::InsertAt
  000b1	eb 09		 jmp	 SHORT $LN18@InsertItem
$LN4@InsertItem:
; File C:\Program Files (x86)\Microsoft Visual Studio\2019\Community\VC\Tools\MSVC\14.29.30133\atlmfc\include\afxcoll.inl

; 223  : 		SetAtGrow(nIndex, newElement);

  000b3	56		 push	 esi
  000b4	ff 71 08	 push	 DWORD PTR [ecx+8]
  000b7	e8 00 00 00 00	 call	 ?SetAtGrow@CPtrArray@@QAEXHPAX@Z ; CPtrArray::SetAtGrow
$LN18@InsertItem:
; File D:\git\src\IBK\IBK_DRFN\ProjSrc\SrcDrfn\Chart\MULTICHART\control\GfxOutBarCtrl.cpp

; 1595 : }

  000bc	8b c7		 mov	 eax, edi
  000be	8b 4d f4	 mov	 ecx, DWORD PTR __$EHRec$[ebp]
  000c1	64 89 0d 00 00
	00 00		 mov	 DWORD PTR fs:0, ecx
  000c8	59		 pop	 ecx
  000c9	5f		 pop	 edi
  000ca	5e		 pop	 esi
  000cb	5b		 pop	 ebx
  000cc	8b e5		 mov	 esp, ebp
  000ce	5d		 pop	 ebp
  000cf	c2 10 00	 ret	 16			; 00000010H
_TEXT	ENDS
;	COMDAT text$x
text$x	SEGMENT
__unwindfunclet$?InsertItem@CBarFolder@CGfxOutBarCtrl@@QAEHHPBDHK@Z$0:
  00000	6a 10		 push	 16			; 00000010H
  00002	8b 45 08	 mov	 eax, DWORD PTR $T2[ebp]
  00005	50		 push	 eax
  00006	e8 00 00 00 00	 call	 ??3@YAXPAXI@Z		; operator delete
  0000b	83 c4 08	 add	 esp, 8
  0000e	c3		 ret	 0
  0000f	cc		 int	 3
  00010	cc		 int	 3
  00011	cc		 int	 3
  00012	cc		 int	 3
  00013	cc		 int	 3
__ehhandler$?InsertItem@CBarFolder@CGfxOutBarCtrl@@QAEHHPBDHK@Z:
  00014	90		 npad	 1
  00015	90		 npad	 1
  00016	8b 54 24 08	 mov	 edx, DWORD PTR [esp+8]
  0001a	8d 42 0c	 lea	 eax, DWORD PTR [edx+12]
  0001d	8b 4a ec	 mov	 ecx, DWORD PTR [edx-20]
  00020	33 c8		 xor	 ecx, eax
  00022	e8 00 00 00 00	 call	 @__security_check_cookie@4
  00027	b8 00 00 00 00	 mov	 eax, OFFSET __ehfuncinfo$?InsertItem@CBarFolder@CGfxOutBarCtrl@@QAEHHPBDHK@Z
  0002c	e9 00 00 00 00	 jmp	 ___CxxFrameHandler3
text$x	ENDS
?InsertItem@CBarFolder@CGfxOutBarCtrl@@QAEHHPBDHK@Z ENDP ; CGfxOutBarCtrl::CBarFolder::InsertItem
; Function compile flags: /Ogtp
; File D:\git\src\IBK\IBK_DRFN\ProjSrc\SrcDrfn\Chart\MULTICHART\control\GfxOutBarCtrl.cpp
;	COMDAT ?GetItemCount@CBarFolder@CGfxOutBarCtrl@@QAEHXZ
_TEXT	SEGMENT
?GetItemCount@CBarFolder@CGfxOutBarCtrl@@QAEHXZ PROC	; CGfxOutBarCtrl::CBarFolder::GetItemCount, COMDAT
; _this$ = ecx

; 1664 : 	return arItems.GetSize();

  00000	8b 41 1c	 mov	 eax, DWORD PTR [ecx+28]

; 1665 : }

  00003	c3		 ret	 0
?GetItemCount@CBarFolder@CGfxOutBarCtrl@@QAEHXZ ENDP	; CGfxOutBarCtrl::CBarFolder::GetItemCount
_TEXT	ENDS
; Function compile flags: /Ogtp
; File D:\git\src\IBK\IBK_DRFN\ProjSrc\SrcDrfn\Chart\MULTICHART\control\GfxOutBarCtrl.cpp
; File C:\Program Files (x86)\Microsoft Visual Studio\2019\Community\VC\Tools\MSVC\14.29.30133\atlmfc\include\afxcoll.inl
; File D:\git\src\IBK\IBK_DRFN\ProjSrc\SrcDrfn\Chart\MULTICHART\control\GfxOutBarCtrl.cpp
; File C:\Program Files (x86)\Microsoft Visual Studio\2019\Community\VC\Tools\MSVC\14.29.30133\atlmfc\include\afxcoll.inl
; File D:\git\src\IBK\IBK_DRFN\ProjSrc\SrcDrfn\Chart\MULTICHART\control\GfxOutBarCtrl.cpp
; File C:\Program Files (x86)\Microsoft Visual Studio\2019\Community\VC\Tools\MSVC\14.29.30133\atlmfc\include\afxcoll.inl
; File D:\git\src\IBK\IBK_DRFN\ProjSrc\SrcDrfn\Chart\MULTICHART\control\GfxOutBarCtrl.cpp
;	COMDAT ?CleanUp@CBarFolder@CGfxOutBarCtrl@@QAEXXZ
_TEXT	SEGMENT
?CleanUp@CBarFolder@CGfxOutBarCtrl@@QAEXXZ PROC		; CGfxOutBarCtrl::CBarFolder::CleanUp, COMDAT
; _this$ = ecx

; 772  : {

  00000	56		 push	 esi
  00001	57		 push	 edi
  00002	8b f9		 mov	 edi, ecx

; 773  : 	if (cName) delete [] cName;

  00004	8b 47 04	 mov	 eax, DWORD PTR [edi+4]
  00007	85 c0		 test	 eax, eax
  00009	74 09		 je	 SHORT $LN5@CleanUp
  0000b	50		 push	 eax
  0000c	e8 00 00 00 00	 call	 ??_V@YAXPAX@Z		; operator delete[]
  00011	83 c4 04	 add	 esp, 4
$LN5@CleanUp:

; 774  : 	for (int t = 0; t < arItems.GetSize(); t++)

  00014	8b 47 1c	 mov	 eax, DWORD PTR [edi+28]
  00017	33 f6		 xor	 esi, esi
  00019	85 c0		 test	 eax, eax
  0001b	7e 23		 jle	 SHORT $LN26@CleanUp
  0001d	0f 1f 00	 npad	 3
$LL4@CleanUp:
; File C:\Program Files (x86)\Microsoft Visual Studio\2019\Community\VC\Tools\MSVC\14.29.30133\atlmfc\include\afxcoll.inl

; 203  : 		if( nIndex < 0 || nIndex >= m_nSize )

  00020	85 f6		 test	 esi, esi
  00022	78 2b		 js	 SHORT $LN22@CleanUp
  00024	3b f0		 cmp	 esi, eax
  00026	7d 27		 jge	 SHORT $LN22@CleanUp
; File D:\git\src\IBK\IBK_DRFN\ProjSrc\SrcDrfn\Chart\MULTICHART\control\GfxOutBarCtrl.cpp

; 775  : 		if (arItems.GetAt(t)) delete (CBarFolder*) arItems.GetAt(t);

  00028	8b 47 18	 mov	 eax, DWORD PTR [edi+24]
  0002b	8b 0c b0	 mov	 ecx, DWORD PTR [eax+esi*4]
  0002e	85 c9		 test	 ecx, ecx
  00030	74 06		 je	 SHORT $LN2@CleanUp
  00032	8b 01		 mov	 eax, DWORD PTR [ecx]
  00034	6a 01		 push	 1
  00036	ff 10		 call	 DWORD PTR [eax]
$LN2@CleanUp:

; 774  : 	for (int t = 0; t < arItems.GetSize(); t++)

  00038	8b 47 1c	 mov	 eax, DWORD PTR [edi+28]
  0003b	46		 inc	 esi
  0003c	3b f0		 cmp	 esi, eax
  0003e	7c e0		 jl	 SHORT $LL4@CleanUp
$LN26@CleanUp:
; File C:\Program Files (x86)\Microsoft Visual Studio\2019\Community\VC\Tools\MSVC\14.29.30133\atlmfc\include\afxcoll.inl

; 200  : 	{ SetSize(0); }

  00040	6a ff		 push	 -1
  00042	6a 00		 push	 0
  00044	8d 4f 14	 lea	 ecx, DWORD PTR [edi+20]
  00047	e8 00 00 00 00	 call	 ?SetSize@CPtrArray@@QAEXHH@Z ; CPtrArray::SetSize
  0004c	5f		 pop	 edi
  0004d	5e		 pop	 esi
; File D:\git\src\IBK\IBK_DRFN\ProjSrc\SrcDrfn\Chart\MULTICHART\control\GfxOutBarCtrl.cpp

; 778  : }

  0004e	c3		 ret	 0
$LN22@CleanUp:
; File C:\Program Files (x86)\Microsoft Visual Studio\2019\Community\VC\Tools\MSVC\14.29.30133\atlmfc\include\afxcoll.inl

; 204  : 			AfxThrowInvalidArgException();

  0004f	e8 00 00 00 00	 call	 ?AfxThrowInvalidArgException@@YGXXZ ; AfxThrowInvalidArgException
$LN28@CleanUp:
  00054	cc		 int	 3
?CleanUp@CBarFolder@CGfxOutBarCtrl@@QAEXXZ ENDP		; CGfxOutBarCtrl::CBarFolder::CleanUp
_TEXT	ENDS
; Function compile flags: /Ogtp
; File D:\git\src\IBK\IBK_DRFN\ProjSrc\SrcDrfn\Chart\MULTICHART\control\GfxOutBarCtrl.cpp
; File C:\Program Files (x86)\Microsoft Visual Studio\2019\Community\VC\Tools\MSVC\14.29.30133\atlmfc\include\afxcoll.inl
; File D:\git\src\IBK\IBK_DRFN\ProjSrc\SrcDrfn\Chart\MULTICHART\control\GfxOutBarCtrl.cpp
; File C:\Program Files (x86)\Microsoft Visual Studio\2019\Community\VC\Tools\MSVC\14.29.30133\atlmfc\include\afxcoll.inl
; File D:\git\src\IBK\IBK_DRFN\ProjSrc\SrcDrfn\Chart\MULTICHART\control\GfxOutBarCtrl.cpp
; File C:\Program Files (x86)\Microsoft Visual Studio\2019\Community\VC\Tools\MSVC\14.29.30133\atlmfc\include\afxcoll.inl
; File D:\git\src\IBK\IBK_DRFN\ProjSrc\SrcDrfn\Chart\MULTICHART\control\GfxOutBarCtrl.cpp
;	COMDAT ??1CBarFolder@CGfxOutBarCtrl@@UAE@XZ
_TEXT	SEGMENT
__$EHRec$ = -12						; size = 12
??1CBarFolder@CGfxOutBarCtrl@@UAE@XZ PROC		; CGfxOutBarCtrl::CBarFolder::~CBarFolder, COMDAT
; _this$ = ecx

; 763  : {

  00000	55		 push	 ebp
  00001	8b ec		 mov	 ebp, esp
  00003	6a ff		 push	 -1
  00005	68 00 00 00 00	 push	 __ehhandler$??1CBarFolder@CGfxOutBarCtrl@@UAE@XZ
  0000a	64 a1 00 00 00
	00		 mov	 eax, DWORD PTR fs:0
  00010	50		 push	 eax
  00011	56		 push	 esi
  00012	57		 push	 edi
  00013	a1 00 00 00 00	 mov	 eax, DWORD PTR ___security_cookie
  00018	33 c5		 xor	 eax, ebp
  0001a	50		 push	 eax
  0001b	8d 45 f4	 lea	 eax, DWORD PTR __$EHRec$[ebp]
  0001e	64 a3 00 00 00
	00		 mov	 DWORD PTR fs:0, eax
  00024	8b f9		 mov	 edi, ecx

; 764  : 	if (cName) delete [] cName;

  00026	8b 47 04	 mov	 eax, DWORD PTR [edi+4]
  00029	c7 07 00 00 00
	00		 mov	 DWORD PTR [edi], OFFSET ??_7CBarFolder@CGfxOutBarCtrl@@6B@
  0002f	85 c0		 test	 eax, eax
  00031	74 09		 je	 SHORT $LN5@CBarFolder
  00033	50		 push	 eax
  00034	e8 00 00 00 00	 call	 ??_V@YAXPAX@Z		; operator delete[]
  00039	83 c4 04	 add	 esp, 4
$LN5@CBarFolder:

; 765  : 	for (int t = 0; t < arItems.GetSize(); t++)

  0003c	8b 57 1c	 mov	 edx, DWORD PTR [edi+28]
  0003f	33 f6		 xor	 esi, esi
  00041	85 d2		 test	 edx, edx
  00043	7e 20		 jle	 SHORT $LN26@CBarFolder
$LL4@CBarFolder:
; File C:\Program Files (x86)\Microsoft Visual Studio\2019\Community\VC\Tools\MSVC\14.29.30133\atlmfc\include\afxcoll.inl

; 203  : 		if( nIndex < 0 || nIndex >= m_nSize )

  00045	85 f6		 test	 esi, esi
  00047	78 41		 js	 SHORT $LN22@CBarFolder
  00049	3b f2		 cmp	 esi, edx
  0004b	7d 3d		 jge	 SHORT $LN22@CBarFolder
; File D:\git\src\IBK\IBK_DRFN\ProjSrc\SrcDrfn\Chart\MULTICHART\control\GfxOutBarCtrl.cpp

; 766  : 		if (arItems.GetAt(t)) delete (CBarFolder*) arItems.GetAt(t);

  0004d	8b 47 18	 mov	 eax, DWORD PTR [edi+24]
  00050	8b 0c b0	 mov	 ecx, DWORD PTR [eax+esi*4]
  00053	85 c9		 test	 ecx, ecx
  00055	74 09		 je	 SHORT $LN2@CBarFolder
  00057	8b 01		 mov	 eax, DWORD PTR [ecx]
  00059	6a 01		 push	 1
  0005b	ff 10		 call	 DWORD PTR [eax]
  0005d	8b 57 1c	 mov	 edx, DWORD PTR [edi+28]
$LN2@CBarFolder:

; 765  : 	for (int t = 0; t < arItems.GetSize(); t++)

  00060	46		 inc	 esi
  00061	3b f2		 cmp	 esi, edx
  00063	7c e0		 jl	 SHORT $LL4@CBarFolder
$LN26@CBarFolder:
; File C:\Program Files (x86)\Microsoft Visual Studio\2019\Community\VC\Tools\MSVC\14.29.30133\atlmfc\include\afxcoll.inl

; 200  : 	{ SetSize(0); }

  00065	6a ff		 push	 -1
  00067	6a 00		 push	 0
  00069	8d 4f 14	 lea	 ecx, DWORD PTR [edi+20]
  0006c	e8 00 00 00 00	 call	 ?SetSize@CPtrArray@@QAEXHH@Z ; CPtrArray::SetSize
; File D:\git\src\IBK\IBK_DRFN\ProjSrc\SrcDrfn\Chart\MULTICHART\control\GfxOutBarCtrl.cpp

; 769  : }

  00071	8d 4f 14	 lea	 ecx, DWORD PTR [edi+20]
  00074	e8 00 00 00 00	 call	 ??1CPtrArray@@UAE@XZ	; CPtrArray::~CPtrArray
  00079	8b 4d f4	 mov	 ecx, DWORD PTR __$EHRec$[ebp]
  0007c	64 89 0d 00 00
	00 00		 mov	 DWORD PTR fs:0, ecx
  00083	59		 pop	 ecx
  00084	5f		 pop	 edi
  00085	5e		 pop	 esi
  00086	8b e5		 mov	 esp, ebp
  00088	5d		 pop	 ebp
  00089	c3		 ret	 0
$LN22@CBarFolder:
; File C:\Program Files (x86)\Microsoft Visual Studio\2019\Community\VC\Tools\MSVC\14.29.30133\atlmfc\include\afxcoll.inl

; 204  : 			AfxThrowInvalidArgException();

  0008a	e8 00 00 00 00	 call	 ?AfxThrowInvalidArgException@@YGXXZ ; AfxThrowInvalidArgException
$LN29@CBarFolder:
  0008f	cc		 int	 3
  00090	cc		 int	 3
  00091	cc		 int	 3
  00092	cc		 int	 3
  00093	cc		 int	 3
  00094	cc		 int	 3
_TEXT	ENDS
;	COMDAT text$x
text$x	SEGMENT
__ehhandler$??1CBarFolder@CGfxOutBarCtrl@@UAE@XZ:
  00000	90		 npad	 1
  00001	90		 npad	 1
  00002	8b 54 24 08	 mov	 edx, DWORD PTR [esp+8]
  00006	8d 42 0c	 lea	 eax, DWORD PTR [edx+12]
  00009	8b 4a f4	 mov	 ecx, DWORD PTR [edx-12]
  0000c	33 c8		 xor	 ecx, eax
  0000e	e8 00 00 00 00	 call	 @__security_check_cookie@4
  00013	b8 00 00 00 00	 mov	 eax, OFFSET __ehfuncinfo$??1CBarFolder@CGfxOutBarCtrl@@UAE@XZ
  00018	e9 00 00 00 00	 jmp	 ___CxxFrameHandler3
text$x	ENDS
??1CBarFolder@CGfxOutBarCtrl@@UAE@XZ ENDP		; CGfxOutBarCtrl::CBarFolder::~CBarFolder
; Function compile flags: /Ogtp
; File D:\git\src\IBK\IBK_DRFN\ProjSrc\SrcDrfn\Chart\MULTICHART\control\GfxOutBarCtrl.cpp
;	COMDAT ??0CBarFolder@CGfxOutBarCtrl@@QAE@PBDK@Z
_TEXT	SEGMENT
_this$ = -16						; size = 4
__$EHRec$ = -12						; size = 12
_name$ = 8						; size = 4
_exData$ = 12						; size = 4
??0CBarFolder@CGfxOutBarCtrl@@QAE@PBDK@Z PROC		; CGfxOutBarCtrl::CBarFolder::CBarFolder, COMDAT
; _this$ = ecx

; 747  : {

  00000	55		 push	 ebp
  00001	8b ec		 mov	 ebp, esp
  00003	6a ff		 push	 -1
  00005	68 00 00 00 00	 push	 __ehhandler$??0CBarFolder@CGfxOutBarCtrl@@QAE@PBDK@Z
  0000a	64 a1 00 00 00
	00		 mov	 eax, DWORD PTR fs:0
  00010	50		 push	 eax
  00011	51		 push	 ecx
  00012	56		 push	 esi
  00013	57		 push	 edi
  00014	a1 00 00 00 00	 mov	 eax, DWORD PTR ___security_cookie
  00019	33 c5		 xor	 eax, ebp
  0001b	50		 push	 eax
  0001c	8d 45 f4	 lea	 eax, DWORD PTR __$EHRec$[ebp]
  0001f	64 a3 00 00 00
	00		 mov	 DWORD PTR fs:0, eax
  00025	8b f1		 mov	 esi, ecx
  00027	89 75 f0	 mov	 DWORD PTR _this$[ebp], esi
  0002a	8d 4e 14	 lea	 ecx, DWORD PTR [esi+20]
  0002d	c7 06 00 00 00
	00		 mov	 DWORD PTR [esi], OFFSET ??_7CBarFolder@CGfxOutBarCtrl@@6B@
  00033	e8 00 00 00 00	 call	 ??0CPtrArray@@QAE@XZ	; CPtrArray::CPtrArray

; 748  : 	cName = NULL;
; 749  : 	dwData = exData;
; 750  : 
; 751  : 	if (name)

  00038	8b 7d 08	 mov	 edi, DWORD PTR _name$[ebp]
  0003b	8b 45 0c	 mov	 eax, DWORD PTR _exData$[ebp]
  0003e	c7 45 fc 00 00
	00 00		 mov	 DWORD PTR __$EHRec$[ebp+8], 0
  00045	c7 46 04 00 00
	00 00		 mov	 DWORD PTR [esi+4], 0
  0004c	89 46 08	 mov	 DWORD PTR [esi+8], eax
  0004f	85 ff		 test	 edi, edi
  00051	74 1c		 je	 SHORT $LN2@CBarFolder

; 752  : 	{
; 753  : 		cName = new char[lstrlen(name)+1];

  00053	57		 push	 edi
  00054	ff 15 00 00 00
	00		 call	 DWORD PTR __imp__lstrlenA@4
  0005a	40		 inc	 eax
  0005b	50		 push	 eax
  0005c	e8 00 00 00 00	 call	 ??_U@YAPAXI@Z		; operator new[]
  00061	83 c4 04	 add	 esp, 4
  00064	89 46 04	 mov	 DWORD PTR [esi+4], eax

; 754  : 		ASSERT(cName);
; 755  : 		lstrcpy(cName, name);

  00067	57		 push	 edi
  00068	50		 push	 eax
  00069	ff 15 00 00 00
	00		 call	 DWORD PTR __imp__lstrcpyA@8
$LN2@CBarFolder:

; 756  : 	}
; 757  : 	pLargeImageList = NULL;

  0006f	c7 46 0c 00 00
	00 00		 mov	 DWORD PTR [esi+12], 0

; 758  : 	pSmallImageList = NULL;
; 759  : 	pChild = NULL;
; 760  : }

  00076	8b c6		 mov	 eax, esi
  00078	c7 46 10 00 00
	00 00		 mov	 DWORD PTR [esi+16], 0
  0007f	c7 46 28 00 00
	00 00		 mov	 DWORD PTR [esi+40], 0
  00086	8b 4d f4	 mov	 ecx, DWORD PTR __$EHRec$[ebp]
  00089	64 89 0d 00 00
	00 00		 mov	 DWORD PTR fs:0, ecx
  00090	59		 pop	 ecx
  00091	5f		 pop	 edi
  00092	5e		 pop	 esi
  00093	8b e5		 mov	 esp, ebp
  00095	5d		 pop	 ebp
  00096	c2 08 00	 ret	 8
_TEXT	ENDS
;	COMDAT text$x
text$x	SEGMENT
__unwindfunclet$??0CBarFolder@CGfxOutBarCtrl@@QAE@PBDK@Z$0:
  00000	8b 4d f0	 mov	 ecx, DWORD PTR _this$[ebp]
  00003	83 c1 14	 add	 ecx, 20			; 00000014H
  00006	e9 00 00 00 00	 jmp	 ??1CPtrArray@@UAE@XZ	; CPtrArray::~CPtrArray
  0000b	cc		 int	 3
  0000c	cc		 int	 3
  0000d	cc		 int	 3
  0000e	cc		 int	 3
  0000f	cc		 int	 3
__ehhandler$??0CBarFolder@CGfxOutBarCtrl@@QAE@PBDK@Z:
  00010	90		 npad	 1
  00011	90		 npad	 1
  00012	8b 54 24 08	 mov	 edx, DWORD PTR [esp+8]
  00016	8d 42 0c	 lea	 eax, DWORD PTR [edx+12]
  00019	8b 4a f0	 mov	 ecx, DWORD PTR [edx-16]
  0001c	33 c8		 xor	 ecx, eax
  0001e	e8 00 00 00 00	 call	 @__security_check_cookie@4
  00023	b8 00 00 00 00	 mov	 eax, OFFSET __ehfuncinfo$??0CBarFolder@CGfxOutBarCtrl@@QAE@PBDK@Z
  00028	e9 00 00 00 00	 jmp	 ___CxxFrameHandler3
text$x	ENDS
??0CBarFolder@CGfxOutBarCtrl@@QAE@PBDK@Z ENDP		; CGfxOutBarCtrl::CBarFolder::CBarFolder
; Function compile flags: /Ogtp
; File D:\git\src\IBK\IBK_DRFN\ProjSrc\SrcDrfn\Chart\MULTICHART\control\GfxOutBarCtrl.cpp
;	COMDAT ??_GCBarItem@CGfxOutBarCtrl@@UAEPAXI@Z
_TEXT	SEGMENT
___flags$ = 8						; size = 4
??_GCBarItem@CGfxOutBarCtrl@@UAEPAXI@Z PROC		; CGfxOutBarCtrl::CBarItem::`scalar deleting destructor', COMDAT
; _this$ = ecx
  00000	55		 push	 ebp
  00001	8b ec		 mov	 ebp, esp

; 1658 : {

  00003	56		 push	 esi
  00004	8b f1		 mov	 esi, ecx

; 1659 : 	if (cItem) delete [] cItem;

  00006	8b 46 08	 mov	 eax, DWORD PTR [esi+8]
  00009	c7 06 00 00 00
	00		 mov	 DWORD PTR [esi], OFFSET ??_7CBarItem@CGfxOutBarCtrl@@6B@
  0000f	85 c0		 test	 eax, eax
  00011	74 09		 je	 SHORT $LN5@scalar
  00013	50		 push	 eax
  00014	e8 00 00 00 00	 call	 ??_V@YAXPAX@Z		; operator delete[]
  00019	83 c4 04	 add	 esp, 4
$LN5@scalar:
  0001c	f6 45 08 01	 test	 BYTE PTR ___flags$[ebp], 1
  00020	74 0b		 je	 SHORT $LN7@scalar
  00022	6a 10		 push	 16			; 00000010H
  00024	56		 push	 esi
  00025	e8 00 00 00 00	 call	 ??3@YAXPAXI@Z		; operator delete
  0002a	83 c4 08	 add	 esp, 8
$LN7@scalar:
  0002d	8b c6		 mov	 eax, esi
  0002f	5e		 pop	 esi
  00030	5d		 pop	 ebp
  00031	c2 04 00	 ret	 4
??_GCBarItem@CGfxOutBarCtrl@@UAEPAXI@Z ENDP		; CGfxOutBarCtrl::CBarItem::`scalar deleting destructor'
_TEXT	ENDS
; Function compile flags: /Ogtp
; File D:\git\src\IBK\IBK_DRFN\ProjSrc\SrcDrfn\Chart\MULTICHART\control\GfxOutBarCtrl.cpp
;	COMDAT ??1CBarItem@CGfxOutBarCtrl@@UAE@XZ
_TEXT	SEGMENT
??1CBarItem@CGfxOutBarCtrl@@UAE@XZ PROC			; CGfxOutBarCtrl::CBarItem::~CBarItem, COMDAT
; _this$ = ecx

; 1659 : 	if (cItem) delete [] cItem;

  00000	8b 41 08	 mov	 eax, DWORD PTR [ecx+8]
  00003	c7 01 00 00 00
	00		 mov	 DWORD PTR [ecx], OFFSET ??_7CBarItem@CGfxOutBarCtrl@@6B@
  00009	85 c0		 test	 eax, eax
  0000b	74 07		 je	 SHORT $LN2@CBarItem
  0000d	50		 push	 eax
  0000e	e8 00 00 00 00	 call	 ??_V@YAXPAX@Z		; operator delete[]
  00013	59		 pop	 ecx
$LN2@CBarItem:

; 1660 : }

  00014	c3		 ret	 0
??1CBarItem@CGfxOutBarCtrl@@UAE@XZ ENDP			; CGfxOutBarCtrl::CBarItem::~CBarItem
_TEXT	ENDS
; Function compile flags: /Ogtp
; File D:\git\src\IBK\IBK_DRFN\ProjSrc\SrcDrfn\Chart\MULTICHART\control\GfxOutBarCtrl.cpp
;	COMDAT ??0CBarItem@CGfxOutBarCtrl@@QAE@PBDHK@Z
_TEXT	SEGMENT
_name$ = 8						; size = 4
_image$ = 12						; size = 4
_exData$ = 16						; size = 4
??0CBarItem@CGfxOutBarCtrl@@QAE@PBDHK@Z PROC		; CGfxOutBarCtrl::CBarItem::CBarItem, COMDAT
; _this$ = ecx

; 1645 : {

  00000	55		 push	 ebp
  00001	8b ec		 mov	 ebp, esp

; 1646 : 	cItem = NULL;
; 1647 : 	iImageIndex = image;

  00003	8b 45 0c	 mov	 eax, DWORD PTR _image$[ebp]
  00006	56		 push	 esi
  00007	8b f1		 mov	 esi, ecx
  00009	57		 push	 edi

; 1648 : 	dwData = exData;
; 1649 : 	if (name)

  0000a	8b 7d 08	 mov	 edi, DWORD PTR _name$[ebp]
  0000d	89 46 04	 mov	 DWORD PTR [esi+4], eax
  00010	8b 45 10	 mov	 eax, DWORD PTR _exData$[ebp]
  00013	c7 06 00 00 00
	00		 mov	 DWORD PTR [esi], OFFSET ??_7CBarItem@CGfxOutBarCtrl@@6B@
  00019	c7 46 08 00 00
	00 00		 mov	 DWORD PTR [esi+8], 0
  00020	89 46 0c	 mov	 DWORD PTR [esi+12], eax
  00023	85 ff		 test	 edi, edi
  00025	74 1c		 je	 SHORT $LN4@CBarItem

; 1650 : 	{
; 1651 : 		cItem = new char[lstrlen(name)+1];

  00027	57		 push	 edi
  00028	ff 15 00 00 00
	00		 call	 DWORD PTR __imp__lstrlenA@4
  0002e	40		 inc	 eax
  0002f	50		 push	 eax
  00030	e8 00 00 00 00	 call	 ??_U@YAPAXI@Z		; operator new[]
  00035	83 c4 04	 add	 esp, 4
  00038	89 46 08	 mov	 DWORD PTR [esi+8], eax

; 1652 : 		ASSERT(cItem);
; 1653 : 		lstrcpy(cItem, name);

  0003b	57		 push	 edi
  0003c	50		 push	 eax
  0003d	ff 15 00 00 00
	00		 call	 DWORD PTR __imp__lstrcpyA@8
$LN4@CBarItem:

; 1654 : 	}
; 1655 : }

  00043	5f		 pop	 edi
  00044	8b c6		 mov	 eax, esi
  00046	5e		 pop	 esi
  00047	5d		 pop	 ebp
  00048	c2 0c 00	 ret	 12			; 0000000cH
??0CBarItem@CGfxOutBarCtrl@@QAE@PBDHK@Z ENDP		; CGfxOutBarCtrl::CBarItem::CBarItem
_TEXT	ENDS
; Function compile flags: /Ogtp
; File D:\git\src\IBK\IBK_DRFN\ProjSrc\SrcDrfn\Chart\MULTICHART\control\GfxOutBarCtrl.cpp
; File C:\Program Files (x86)\Microsoft Visual Studio\2019\Community\VC\Tools\MSVC\14.29.30133\atlmfc\include\atltypes.h
; File D:\git\src\IBK\IBK_DRFN\ProjSrc\SrcDrfn\Chart\MULTICHART\control\GfxOutBarCtrl.cpp
; File C:\Program Files (x86)\Microsoft Visual Studio\2019\Community\VC\Tools\MSVC\14.29.30133\atlmfc\include\atltypes.h
; File D:\git\src\IBK\IBK_DRFN\ProjSrc\SrcDrfn\Chart\MULTICHART\control\GfxOutBarCtrl.cpp
; File C:\Program Files (x86)\Microsoft Visual Studio\2019\Community\VC\Tools\MSVC\14.29.30133\atlmfc\include\afxwin1.inl
; File D:\git\src\IBK\IBK_DRFN\ProjSrc\SrcDrfn\Chart\MULTICHART\control\GfxOutBarCtrl.cpp
; File C:\Program Files (x86)\Microsoft Visual Studio\2019\Community\VC\Tools\MSVC\14.29.30133\atlmfc\include\afx.inl
; File D:\git\src\IBK\IBK_DRFN\ProjSrc\SrcDrfn\Chart\MULTICHART\control\GfxOutBarCtrl.cpp
; File C:\Program Files (x86)\Microsoft Visual Studio\2019\Community\VC\Tools\MSVC\14.29.30133\atlmfc\include\afx.inl
; File D:\git\src\IBK\IBK_DRFN\ProjSrc\SrcDrfn\Chart\MULTICHART\control\GfxOutBarCtrl.cpp
; File C:\Program Files (x86)\Microsoft Visual Studio\2019\Community\VC\Tools\MSVC\14.29.30133\atlmfc\include\afxwin1.inl
; File C:\Program Files (x86)\Microsoft Visual Studio\2019\Community\VC\Tools\MSVC\14.29.30133\atlmfc\include\afxwin2.inl
; File D:\git\src\IBK\IBK_DRFN\ProjSrc\SrcDrfn\Chart\MULTICHART\control\GfxOutBarCtrl.cpp
; File C:\Program Files (x86)\Microsoft Visual Studio\2019\Community\VC\Tools\MSVC\14.29.30133\atlmfc\include\afxwin1.inl
; File C:\Program Files (x86)\Microsoft Visual Studio\2019\Community\VC\Tools\MSVC\14.29.30133\atlmfc\include\afxwin2.inl
; File D:\git\src\IBK\IBK_DRFN\ProjSrc\SrcDrfn\Chart\MULTICHART\control\GfxOutBarCtrl.cpp
; File C:\Program Files (x86)\Microsoft Visual Studio\2019\Community\VC\Tools\MSVC\14.29.30133\atlmfc\include\afxwin1.inl
; File C:\Program Files (x86)\Microsoft Visual Studio\2019\Community\VC\Tools\MSVC\14.29.30133\atlmfc\include\afxwin2.inl
; File D:\git\src\IBK\IBK_DRFN\ProjSrc\SrcDrfn\Chart\MULTICHART\control\GfxOutBarCtrl.cpp
;	COMDAT ??0CGfxOutBarCtrl@@QAE@XZ
_TEXT	SEGMENT
__ctlState$ = -28					; size = 8
$T2 = -20						; size = 4
_this$ = -16						; size = 4
__$EHRec$ = -12						; size = 12
??0CGfxOutBarCtrl@@QAE@XZ PROC				; CGfxOutBarCtrl::CGfxOutBarCtrl, COMDAT
; _this$ = ecx

; 38   : {

  00000	55		 push	 ebp
  00001	8b ec		 mov	 ebp, esp
  00003	6a ff		 push	 -1
  00005	68 00 00 00 00	 push	 __ehhandler$??0CGfxOutBarCtrl@@QAE@XZ
  0000a	64 a1 00 00 00
	00		 mov	 eax, DWORD PTR fs:0
  00010	50		 push	 eax
  00011	83 ec 10	 sub	 esp, 16			; 00000010H
  00014	56		 push	 esi
  00015	57		 push	 edi
  00016	a1 00 00 00 00	 mov	 eax, DWORD PTR ___security_cookie
  0001b	33 c5		 xor	 eax, ebp
  0001d	50		 push	 eax
  0001e	8d 45 f4	 lea	 eax, DWORD PTR __$EHRec$[ebp]
  00021	64 a3 00 00 00
	00		 mov	 DWORD PTR fs:0, eax
  00027	8b f9		 mov	 edi, ecx
  00029	89 7d f0	 mov	 DWORD PTR _this$[ebp], edi
  0002c	e8 00 00 00 00	 call	 ??0CWnd@@QAE@XZ		; CWnd::CWnd
  00031	c7 07 00 00 00
	00		 mov	 DWORD PTR [edi], OFFSET ??_7CGfxOutBarCtrl@@6B@
  00037	8d 8f 04 01 00
	00		 lea	 ecx, DWORD PTR [edi+260]
; File C:\Program Files (x86)\Microsoft Visual Studio\2019\Community\VC\Tools\MSVC\14.29.30133\atlmfc\include\atltypes.h

; 528  : 	left = 0;

  0003d	c7 87 c4 00 00
	00 00 00 00 00	 mov	 DWORD PTR [edi+196], 0

; 529  : 	top = 0;

  00047	c7 87 c8 00 00
	00 00 00 00 00	 mov	 DWORD PTR [edi+200], 0

; 530  : 	right = 0;

  00051	c7 87 cc 00 00
	00 00 00 00 00	 mov	 DWORD PTR [edi+204], 0

; 531  : 	bottom = 0;

  0005b	c7 87 d0 00 00
	00 00 00 00 00	 mov	 DWORD PTR [edi+208], 0
; File D:\git\src\IBK\IBK_DRFN\ProjSrc\SrcDrfn\Chart\MULTICHART\control\GfxOutBarCtrl.cpp

; 38   : {

  00065	c7 45 fc 00 00
	00 00		 mov	 DWORD PTR __$EHRec$[ebp+8], 0
; File C:\Program Files (x86)\Microsoft Visual Studio\2019\Community\VC\Tools\MSVC\14.29.30133\atlmfc\include\atltypes.h

; 528  : 	left = 0;

  0006c	c7 87 d4 00 00
	00 00 00 00 00	 mov	 DWORD PTR [edi+212], 0

; 529  : 	top = 0;

  00076	c7 87 d8 00 00
	00 00 00 00 00	 mov	 DWORD PTR [edi+216], 0

; 530  : 	right = 0;

  00080	c7 87 dc 00 00
	00 00 00 00 00	 mov	 DWORD PTR [edi+220], 0

; 531  : 	bottom = 0;

  0008a	c7 87 e0 00 00
	00 00 00 00 00	 mov	 DWORD PTR [edi+224], 0
; File D:\git\src\IBK\IBK_DRFN\ProjSrc\SrcDrfn\Chart\MULTICHART\control\GfxOutBarCtrl.cpp

; 38   : {

  00094	e8 00 00 00 00	 call	 ??0CPtrArray@@QAE@XZ	; CPtrArray::CPtrArray
; File C:\Program Files (x86)\Microsoft Visual Studio\2019\Community\VC\Tools\MSVC\14.29.30133\atlmfc\include\afxwin1.inl

; 70   : 	{ m_hObject = NULL; }

  00099	c7 87 58 01 00
	00 00 00 00 00	 mov	 DWORD PTR [edi+344], 0

; 153  : 	{ }

  000a3	c7 87 54 01 00
	00 00 00 00 00	 mov	 DWORD PTR [edi+340], OFFSET ??_7CFont@@6B@
; File D:\git\src\IBK\IBK_DRFN\ProjSrc\SrcDrfn\Chart\MULTICHART\control\GfxOutBarCtrl.cpp

; 38   : {

  000ad	c6 45 fc 02	 mov	 BYTE PTR __$EHRec$[ebp+8], 2

; 39   : 
; 40   : 	AFX_MANAGE_STATE(AfxGetStaticModuleState());

  000b1	e8 00 00 00 00	 call	 ?AfxGetStaticModuleState@@YGPAVAFX_MODULE_STATE@@XZ ; AfxGetStaticModuleState
  000b6	50		 push	 eax
  000b7	8d 4d e4	 lea	 ecx, DWORD PTR __ctlState$[ebp]
  000ba	e8 00 00 00 00	 call	 ??0AFX_MAINTAIN_STATE2@@QAE@PAVAFX_MODULE_STATE@@@Z ; AFX_MAINTAIN_STATE2::AFX_MAINTAIN_STATE2

; 41   : 	//HINSTANCE hInstResourceClient = AfxGetResourceHandle();
; 42   : 	//AfxSetResourceHandle(g_hInstance);
; 43   : 
; 44   : 	crBackGroundColor = RGB(232,226,210);//GetSysColor(COLOR_BACKGROUND);//RGB(0,128,128);//
; 45   : 	crBackGroundColor1 = RGB(232,226,210);
; 46   : 	crTextColor = GetSysColor(COLOR_WINDOW);

  000bf	8b 35 00 00 00
	00		 mov	 esi, DWORD PTR __imp__GetSysColor@4
  000c5	6a 05		 push	 5
  000c7	c6 45 fc 03	 mov	 BYTE PTR __$EHRec$[ebp+8], 3
  000cb	c7 87 80 00 00
	00 e8 e2 d2 00	 mov	 DWORD PTR [edi+128], 13820648 ; 00d2e2e8H
  000d5	c7 87 84 00 00
	00 e8 e2 d2 00	 mov	 DWORD PTR [edi+132], 13820648 ; 00d2e2e8H
  000df	ff d6		 call	 esi

; 51   : 	cr3dUnFace = GetSysColor(COLOR_3DFACE);

  000e1	6a 0f		 push	 15			; 0000000fH
  000e3	89 87 88 00 00
	00		 mov	 DWORD PTR [edi+136], eax
  000e9	c7 87 90 00 00
	00 ff ff 00 00	 mov	 DWORD PTR [edi+144], 65535 ; 0000ffffH
  000f3	ff d6		 call	 esi
; File C:\Program Files (x86)\Microsoft Visual Studio\2019\Community\VC\Tools\MSVC\14.29.30133\atlmfc\include\afx.inl

; 116  : 	{ return ::operator new(nSize); }

  000f5	6a 08		 push	 8
; File D:\git\src\IBK\IBK_DRFN\ProjSrc\SrcDrfn\Chart\MULTICHART\control\GfxOutBarCtrl.cpp

; 51   : 	cr3dUnFace = GetSysColor(COLOR_3DFACE);

  000f7	89 87 94 00 00
	00		 mov	 DWORD PTR [edi+148], eax

; 52   : 
; 53   : 	crTextColor = RGB(255,255,255);

  000fd	c7 87 88 00 00
	00 ff ff ff 00	 mov	 DWORD PTR [edi+136], 16777215 ; 00ffffffH

; 54   : 	crHilightBorder = RGB(255,255,255);//GetSysColor(COLOR_3DHILIGHT);

  00107	c7 87 98 00 00
	00 ff ff ff 00	 mov	 DWORD PTR [edi+152], 16777215 ; 00ffffffH

; 55   : 
; 56   : 	crDkShadowBorder = RGB(186, 176, 141);//GetSysColor(COLOR_3DDKSHADOW); // 

  00111	c7 87 9c 00 00
	00 ba b0 8d 00	 mov	 DWORD PTR [edi+156], 9285818 ; 008db0baH
; File C:\Program Files (x86)\Microsoft Visual Studio\2019\Community\VC\Tools\MSVC\14.29.30133\atlmfc\include\afx.inl

; 116  : 	{ return ::operator new(nSize); }

  0011b	e8 00 00 00 00	 call	 ??2@YAPAXI@Z		; operator new
  00120	83 c4 04	 add	 esp, 4
; File D:\git\src\IBK\IBK_DRFN\ProjSrc\SrcDrfn\Chart\MULTICHART\control\GfxOutBarCtrl.cpp

; 59   : 	pBlackPen = new CPen(PS_SOLID, 1, RGB(143,155,178));

  00123	89 45 ec	 mov	 DWORD PTR $T2[ebp], eax
  00126	c6 45 fc 04	 mov	 BYTE PTR __$EHRec$[ebp+8], 4
  0012a	85 c0		 test	 eax, eax
  0012c	74 12		 je	 SHORT $LN3@CGfxOutBar
  0012e	68 8f 9b b2 00	 push	 11705231		; 00b29b8fH
  00133	6a 01		 push	 1
  00135	6a 00		 push	 0
  00137	8b c8		 mov	 ecx, eax
  00139	e8 00 00 00 00	 call	 ??0CPen@@QAE@HHK@Z	; CPen::CPen
  0013e	eb 02		 jmp	 SHORT $LN4@CGfxOutBar
$LN3@CGfxOutBar:
  00140	33 c0		 xor	 eax, eax
$LN4@CGfxOutBar:
  00142	c6 45 fc 03	 mov	 BYTE PTR __$EHRec$[ebp+8], 3
  00146	89 87 4c 01 00
	00		 mov	 DWORD PTR [edi+332], eax

; 60   : 
; 61   : 	iFolderHeight = 21;

  0014c	c7 87 a0 00 00
	00 15 00 00 00	 mov	 DWORD PTR [edi+160], 21	; 00000015H

; 62   : 	iGap = 0;

  00156	c7 87 a4 00 00
	00 00 00 00 00	 mov	 DWORD PTR [edi+164], 0

; 63   : 
; 64   : 	dwFlags = fDragItems|fEditGroups|fEditItems|fRemoveGroups|fRemoveItems|fAddGroups|fAnimation|fSelHighlight;

  00160	c7 87 00 01 00
	00 fc 03 00 00	 mov	 DWORD PTR [edi+256], 1020 ; 000003fcH

; 65   : 
; 66   : 	iSelFolder = 0;

  0016a	c7 87 34 01 00
	00 00 00 00 00	 mov	 DWORD PTR [edi+308], 0

; 67   : 
; 68   : 	iLastFolderHighlighted = -1;

  00174	c7 87 18 01 00
	00 ff ff ff ff	 mov	 DWORD PTR [edi+280], -1

; 69   : 	iLastSelectedFolder = -1;

  0017e	c7 87 1c 01 00
	00 ff ff ff ff	 mov	 DWORD PTR [edi+284], -1

; 70   : 	
; 71   : 	pLargeImageList = NULL;

  00188	c7 87 38 01 00
	00 00 00 00 00	 mov	 DWORD PTR [edi+312], 0

; 72   : 	pSmallImageList = NULL;

  00192	c7 87 3c 01 00
	00 00 00 00 00	 mov	 DWORD PTR [edi+316], 0

; 73   : 
; 74   : 	iFirstItem = 0;

  0019c	c7 87 20 01 00
	00 00 00 00 00	 mov	 DWORD PTR [edi+288], 0

; 75   : 
; 76   : 	xSmallIconLabelOffset = 4;

  001a6	c7 87 a8 00 00
	00 04 00 00 00	 mov	 DWORD PTR [edi+168], 4

; 77   : 	yLargeIconLabelOffset = 3;

  001b0	c7 87 ac 00 00
	00 03 00 00 00	 mov	 DWORD PTR [edi+172], 3

; 78   : 
; 79   : 	ySmallIconSpacing = 10;

  001ba	c7 87 b0 00 00
	00 0a 00 00 00	 mov	 DWORD PTR [edi+176], 10	; 0000000aH

; 80   : 	yLargeIconSpacing = 8;

  001c4	c7 87 b4 00 00
	00 08 00 00 00	 mov	 DWORD PTR [edi+180], 8

; 81   : 
; 82   : 	xLeftMargin = 5;

  001ce	c7 87 b8 00 00
	00 05 00 00 00	 mov	 DWORD PTR [edi+184], 5

; 83   : 	yTopMargin  = 5;

  001d8	c7 87 bc 00 00
	00 05 00 00 00	 mov	 DWORD PTR [edi+188], 5

; 84   : 
; 85   : 	bUpArrow = bDownArrow = false;

  001e2	66 c7 87 c0 00
	00 00 00 00	 mov	 WORD PTR [edi+192], 0
; File C:\Program Files (x86)\Microsoft Visual Studio\2019\Community\VC\Tools\MSVC\14.29.30133\atlmfc\include\afxwin1.inl

; 19   : 	{ return afxCurrentWinApp; }

  001eb	e8 00 00 00 00	 call	 ?AfxGetModuleState@@YGPAVAFX_MODULE_STATE@@XZ ; AfxGetModuleState
; File C:\Program Files (x86)\Microsoft Visual Studio\2019\Community\VC\Tools\MSVC\14.29.30133\atlmfc\include\afxwin2.inl

; 1044 : 	{ return ::LoadCursorW(AfxFindResourceHandle(ATL_MAKEINTRESOURCE(nIDResource),

  001f0	68 8f 00 00 00	 push	 143			; 0000008fH
  001f5	6a 0c		 push	 12			; 0000000cH
  001f7	68 8f 00 00 00	 push	 143			; 0000008fH
  001fc	e8 00 00 00 00	 call	 ?AfxFindResourceHandle@@YGPAUHINSTANCE__@@PBD0@Z ; AfxFindResourceHandle
  00201	8b 35 00 00 00
	00		 mov	 esi, DWORD PTR __imp__LoadCursorW@8
  00207	50		 push	 eax
  00208	ff d6		 call	 esi
  0020a	0f 57 c0	 xorps	 xmm0, xmm0
; File D:\git\src\IBK\IBK_DRFN\ProjSrc\SrcDrfn\Chart\MULTICHART\control\GfxOutBarCtrl.cpp

; 87   : 	hHandCursor = AfxGetApp()->LoadCursor(IDC_HANDCUR);

  0020d	89 87 40 01 00
	00		 mov	 DWORD PTR [edi+320], eax

; 88   : 
; 89   : 	rcUpArrow   = rcDownArrow = CRect(0,0,0,0);

  00213	0f 11 87 d4 00
	00 00		 movups	 XMMWORD PTR [edi+212], xmm0

; 90   : 
; 91   : 	bUpPressed = bDownPressed = false;

  0021a	66 c7 87 c2 00
	00 00 00 00	 mov	 WORD PTR [edi+194], 0
  00223	0f 11 87 c4 00
	00 00		 movups	 XMMWORD PTR [edi+196], xmm0

; 92   : 
; 93   : 	bLooping = false;

  0022a	c6 87 e4 00 00
	00 00		 mov	 BYTE PTR [edi+228], 0

; 94   : 
; 95   : 	iLastItemHighlighted = -1;

  00231	c7 87 24 01 00
	00 ff ff ff ff	 mov	 DWORD PTR [edi+292], -1

; 96   : 	bPressedHighlight = false;

  0023b	c6 87 28 01 00
	00 00		 mov	 BYTE PTR [edi+296], 0

; 97   : 
; 98   : 	iLastDragItemDraw = -1;

  00242	c7 87 2c 01 00
	00 ff ff ff ff	 mov	 DWORD PTR [edi+300], -1

; 99   : 
; 100  : 	lAnimationTickCount = 5;

  0024c	c7 87 f0 00 00
	00 05 00 00 00	 mov	 DWORD PTR [edi+240], 5
; File C:\Program Files (x86)\Microsoft Visual Studio\2019\Community\VC\Tools\MSVC\14.29.30133\atlmfc\include\afxwin1.inl

; 19   : 	{ return afxCurrentWinApp; }

  00256	e8 00 00 00 00	 call	 ?AfxGetModuleState@@YGPAVAFX_MODULE_STATE@@XZ ; AfxGetModuleState
; File C:\Program Files (x86)\Microsoft Visual Studio\2019\Community\VC\Tools\MSVC\14.29.30133\atlmfc\include\afxwin2.inl

; 1044 : 	{ return ::LoadCursorW(AfxFindResourceHandle(ATL_MAKEINTRESOURCE(nIDResource),

  0025b	68 ab 17 00 00	 push	 6059			; 000017abH
  00260	6a 0c		 push	 12			; 0000000cH
  00262	68 ab 17 00 00	 push	 6059			; 000017abH
  00267	e8 00 00 00 00	 call	 ?AfxFindResourceHandle@@YGPAUHINSTANCE__@@PBD0@Z ; AfxFindResourceHandle
  0026c	50		 push	 eax
  0026d	ff d6		 call	 esi
; File D:\git\src\IBK\IBK_DRFN\ProjSrc\SrcDrfn\Chart\MULTICHART\control\GfxOutBarCtrl.cpp

; 102  : 	hDragCursor = AfxGetApp()->LoadCursor(IDC_DRAGGING);

  0026f	89 87 44 01 00
	00		 mov	 DWORD PTR [edi+324], eax
; File C:\Program Files (x86)\Microsoft Visual Studio\2019\Community\VC\Tools\MSVC\14.29.30133\atlmfc\include\afxwin1.inl

; 19   : 	{ return afxCurrentWinApp; }

  00275	e8 00 00 00 00	 call	 ?AfxGetModuleState@@YGPAVAFX_MODULE_STATE@@XZ ; AfxGetModuleState
; File C:\Program Files (x86)\Microsoft Visual Studio\2019\Community\VC\Tools\MSVC\14.29.30133\atlmfc\include\afxwin2.inl

; 1044 : 	{ return ::LoadCursorW(AfxFindResourceHandle(ATL_MAKEINTRESOURCE(nIDResource),

  0027a	68 8b 00 00 00	 push	 139			; 0000008bH
  0027f	6a 0c		 push	 12			; 0000000cH
  00281	68 8b 00 00 00	 push	 139			; 0000008bH
  00286	e8 00 00 00 00	 call	 ?AfxFindResourceHandle@@YGPAUHINSTANCE__@@PBD0@Z ; AfxFindResourceHandle
  0028b	50		 push	 eax
  0028c	ff d6		 call	 esi
; File D:\git\src\IBK\IBK_DRFN\ProjSrc\SrcDrfn\Chart\MULTICHART\control\GfxOutBarCtrl.cpp

; 115  : }

  0028e	8d 4d e4	 lea	 ecx, DWORD PTR __ctlState$[ebp]
  00291	89 87 48 01 00
	00		 mov	 DWORD PTR [edi+328], eax
  00297	c7 87 f4 00 00
	00 ff ff ff ff	 mov	 DWORD PTR [edi+244], -1
  002a1	c7 87 fc 00 00
	00 00 00 00 00	 mov	 DWORD PTR [edi+252], 0
  002ab	c7 87 f8 00 00
	00 00 00 00 00	 mov	 DWORD PTR [edi+248], 0
  002b5	c7 87 50 01 00
	00 00 00 00 00	 mov	 DWORD PTR [edi+336], 0
  002bf	c7 87 5c 01 00
	00 00 00 00 00	 mov	 DWORD PTR [edi+348], 0
  002c9	e8 00 00 00 00	 call	 ??1AFX_MAINTAIN_STATE2@@QAE@XZ ; AFX_MAINTAIN_STATE2::~AFX_MAINTAIN_STATE2
  002ce	8b c7		 mov	 eax, edi
  002d0	8b 4d f4	 mov	 ecx, DWORD PTR __$EHRec$[ebp]
  002d3	64 89 0d 00 00
	00 00		 mov	 DWORD PTR fs:0, ecx
  002da	59		 pop	 ecx
  002db	5f		 pop	 edi
  002dc	5e		 pop	 esi
  002dd	8b e5		 mov	 esp, ebp
  002df	5d		 pop	 ebp
  002e0	c3		 ret	 0
_TEXT	ENDS
;	COMDAT text$x
text$x	SEGMENT
__unwindfunclet$??0CGfxOutBarCtrl@@QAE@XZ$0:
  00000	8b 4d f0	 mov	 ecx, DWORD PTR _this$[ebp]
  00003	e9 00 00 00 00	 jmp	 ??1CWnd@@UAE@XZ		; CWnd::~CWnd
__unwindfunclet$??0CGfxOutBarCtrl@@QAE@XZ$1:
  00008	8b 4d f0	 mov	 ecx, DWORD PTR _this$[ebp]
  0000b	81 c1 04 01 00
	00		 add	 ecx, 260		; 00000104H
  00011	e9 00 00 00 00	 jmp	 ??1CPtrArray@@UAE@XZ	; CPtrArray::~CPtrArray
__unwindfunclet$??0CGfxOutBarCtrl@@QAE@XZ$2:
  00016	8b 4d f0	 mov	 ecx, DWORD PTR _this$[ebp]
  00019	81 c1 54 01 00
	00		 add	 ecx, 340		; 00000154H
  0001f	e9 00 00 00 00	 jmp	 ??1CFont@@UAE@XZ	; CFont::~CFont
__unwindfunclet$??0CGfxOutBarCtrl@@QAE@XZ$3:
  00024	8d 4d e4	 lea	 ecx, DWORD PTR __ctlState$[ebp]
  00027	e9 00 00 00 00	 jmp	 ??1AFX_MAINTAIN_STATE2@@QAE@XZ ; AFX_MAINTAIN_STATE2::~AFX_MAINTAIN_STATE2
__unwindfunclet$??0CGfxOutBarCtrl@@QAE@XZ$4:
  0002c	8b 45 ec	 mov	 eax, DWORD PTR $T2[ebp]
  0002f	50		 push	 eax
  00030	e8 00 00 00 00	 call	 ??3CObject@@SGXPAX@Z	; CObject::operator delete
  00035	c3		 ret	 0
  00036	cc		 int	 3
  00037	cc		 int	 3
  00038	cc		 int	 3
  00039	cc		 int	 3
  0003a	cc		 int	 3
__ehhandler$??0CGfxOutBarCtrl@@QAE@XZ:
  0003b	90		 npad	 1
  0003c	90		 npad	 1
  0003d	8b 54 24 08	 mov	 edx, DWORD PTR [esp+8]
  00041	8d 42 0c	 lea	 eax, DWORD PTR [edx+12]
  00044	8b 4a e4	 mov	 ecx, DWORD PTR [edx-28]
  00047	33 c8		 xor	 ecx, eax
  00049	e8 00 00 00 00	 call	 @__security_check_cookie@4
  0004e	b8 00 00 00 00	 mov	 eax, OFFSET __ehfuncinfo$??0CGfxOutBarCtrl@@QAE@XZ
  00053	e9 00 00 00 00	 jmp	 ___CxxFrameHandler3
text$x	ENDS
??0CGfxOutBarCtrl@@QAE@XZ ENDP				; CGfxOutBarCtrl::CGfxOutBarCtrl
; Function compile flags: /Ogtp
; File D:\git\src\IBK\IBK_DRFN\ProjSrc\SrcDrfn\Chart\MULTICHART\control\GfxOutBarCtrl.cpp
; File C:\Program Files (x86)\Microsoft Visual Studio\2019\Community\VC\Tools\MSVC\14.29.30133\atlmfc\include\afx.inl
; File D:\git\src\IBK\IBK_DRFN\ProjSrc\SrcDrfn\Chart\MULTICHART\control\GfxOutBarCtrl.cpp
;	COMDAT ?CreateObject@CGfxOutBarCtrl@@SGPAVCObject@@XZ
_TEXT	SEGMENT
$T2 = -16						; size = 4
__$EHRec$ = -12						; size = 12
?CreateObject@CGfxOutBarCtrl@@SGPAVCObject@@XZ PROC	; CGfxOutBarCtrl::CreateObject, COMDAT

; 35   : IMPLEMENT_DYNCREATE(CGfxOutBarCtrl, CWnd)

  00000	55		 push	 ebp
  00001	8b ec		 mov	 ebp, esp
  00003	6a ff		 push	 -1
  00005	68 00 00 00 00	 push	 __ehhandler$?CreateObject@CGfxOutBarCtrl@@SGPAVCObject@@XZ
  0000a	64 a1 00 00 00
	00		 mov	 eax, DWORD PTR fs:0
  00010	50		 push	 eax
  00011	51		 push	 ecx
  00012	a1 00 00 00 00	 mov	 eax, DWORD PTR ___security_cookie
  00017	33 c5		 xor	 eax, ebp
  00019	50		 push	 eax
  0001a	8d 45 f4	 lea	 eax, DWORD PTR __$EHRec$[ebp]
  0001d	64 a3 00 00 00
	00		 mov	 DWORD PTR fs:0, eax
; File C:\Program Files (x86)\Microsoft Visual Studio\2019\Community\VC\Tools\MSVC\14.29.30133\atlmfc\include\afx.inl

; 116  : 	{ return ::operator new(nSize); }

  00023	68 70 01 00 00	 push	 368			; 00000170H
  00028	e8 00 00 00 00	 call	 ??2@YAPAXI@Z		; operator new
  0002d	83 c4 04	 add	 esp, 4
; File D:\git\src\IBK\IBK_DRFN\ProjSrc\SrcDrfn\Chart\MULTICHART\control\GfxOutBarCtrl.cpp

; 35   : IMPLEMENT_DYNCREATE(CGfxOutBarCtrl, CWnd)

  00030	89 45 f0	 mov	 DWORD PTR $T2[ebp], eax
  00033	c7 45 fc 00 00
	00 00		 mov	 DWORD PTR __$EHRec$[ebp+8], 0
  0003a	85 c0		 test	 eax, eax
  0003c	74 16		 je	 SHORT $LN3@CreateObje
  0003e	8b c8		 mov	 ecx, eax
  00040	e8 00 00 00 00	 call	 ??0CGfxOutBarCtrl@@QAE@XZ ; CGfxOutBarCtrl::CGfxOutBarCtrl
  00045	8b 4d f4	 mov	 ecx, DWORD PTR __$EHRec$[ebp]
  00048	64 89 0d 00 00
	00 00		 mov	 DWORD PTR fs:0, ecx
  0004f	59		 pop	 ecx
  00050	8b e5		 mov	 esp, ebp
  00052	5d		 pop	 ebp
  00053	c3		 ret	 0
$LN3@CreateObje:
  00054	33 c0		 xor	 eax, eax
  00056	8b 4d f4	 mov	 ecx, DWORD PTR __$EHRec$[ebp]
  00059	64 89 0d 00 00
	00 00		 mov	 DWORD PTR fs:0, ecx
  00060	59		 pop	 ecx
  00061	8b e5		 mov	 esp, ebp
  00063	5d		 pop	 ebp
  00064	c3		 ret	 0
_TEXT	ENDS
;	COMDAT text$x
text$x	SEGMENT
__unwindfunclet$?CreateObject@CGfxOutBarCtrl@@SGPAVCObject@@XZ$0:
  00000	8b 45 f0	 mov	 eax, DWORD PTR $T2[ebp]
  00003	50		 push	 eax
  00004	e8 00 00 00 00	 call	 ??3CObject@@SGXPAX@Z	; CObject::operator delete
  00009	c3		 ret	 0
  0000a	cc		 int	 3
  0000b	cc		 int	 3
  0000c	cc		 int	 3
  0000d	cc		 int	 3
  0000e	cc		 int	 3
__ehhandler$?CreateObject@CGfxOutBarCtrl@@SGPAVCObject@@XZ:
  0000f	90		 npad	 1
  00010	90		 npad	 1
  00011	8b 54 24 08	 mov	 edx, DWORD PTR [esp+8]
  00015	8d 42 0c	 lea	 eax, DWORD PTR [edx+12]
  00018	8b 4a f8	 mov	 ecx, DWORD PTR [edx-8]
  0001b	33 c8		 xor	 ecx, eax
  0001d	e8 00 00 00 00	 call	 @__security_check_cookie@4
  00022	b8 00 00 00 00	 mov	 eax, OFFSET __ehfuncinfo$?CreateObject@CGfxOutBarCtrl@@SGPAVCObject@@XZ
  00027	e9 00 00 00 00	 jmp	 ___CxxFrameHandler3
text$x	ENDS
?CreateObject@CGfxOutBarCtrl@@SGPAVCObject@@XZ ENDP	; CGfxOutBarCtrl::CreateObject
; Function compile flags: /Ogtp
; File D:\git\src\IBK\IBK_DRFN\ProjSrc\SrcDrfn\Chart\MULTICHART\control\GfxOutBarCtrl.cpp
;	COMDAT ?GetRuntimeClass@CGfxOutBarCtrl@@UBEPAUCRuntimeClass@@XZ
_TEXT	SEGMENT
?GetRuntimeClass@CGfxOutBarCtrl@@UBEPAUCRuntimeClass@@XZ PROC ; CGfxOutBarCtrl::GetRuntimeClass, COMDAT
; _this$ = ecx

; 35   : IMPLEMENT_DYNCREATE(CGfxOutBarCtrl, CWnd)

  00000	b8 00 00 00 00	 mov	 eax, OFFSET ?classCGfxOutBarCtrl@CGfxOutBarCtrl@@2UCRuntimeClass@@B ; CGfxOutBarCtrl::classCGfxOutBarCtrl
  00005	c3		 ret	 0
?GetRuntimeClass@CGfxOutBarCtrl@@UBEPAUCRuntimeClass@@XZ ENDP ; CGfxOutBarCtrl::GetRuntimeClass
_TEXT	ENDS
; Function compile flags: /Ogtp
; File D:\git\src\IBK\IBK_DRFN\ProjSrc\SrcDrfn\Chart\MULTICHART\control\GfxOutBarCtrl.cpp
;	COMDAT ?GetThisClass@CGfxOutBarCtrl@@SGPAUCRuntimeClass@@XZ
_TEXT	SEGMENT
?GetThisClass@CGfxOutBarCtrl@@SGPAUCRuntimeClass@@XZ PROC ; CGfxOutBarCtrl::GetThisClass, COMDAT

; 35   : IMPLEMENT_DYNCREATE(CGfxOutBarCtrl, CWnd)

  00000	b8 00 00 00 00	 mov	 eax, OFFSET ?classCGfxOutBarCtrl@CGfxOutBarCtrl@@2UCRuntimeClass@@B ; CGfxOutBarCtrl::classCGfxOutBarCtrl
  00005	c3		 ret	 0
?GetThisClass@CGfxOutBarCtrl@@SGPAUCRuntimeClass@@XZ ENDP ; CGfxOutBarCtrl::GetThisClass
_TEXT	ENDS
; Function compile flags: /Ogtp
; File D:\git\src\IBK\IBK_DRFN\ProjSrc\SrcDrfn\Chart\MULTICHART\control\GfxOutBarCtrl.cpp
;	COMDAT ?_GetBaseClass@CGfxOutBarCtrl@@KGPAUCRuntimeClass@@XZ
_TEXT	SEGMENT
?_GetBaseClass@CGfxOutBarCtrl@@KGPAUCRuntimeClass@@XZ PROC ; CGfxOutBarCtrl::_GetBaseClass, COMDAT

; 35   : IMPLEMENT_DYNCREATE(CGfxOutBarCtrl, CWnd)

  00000	e9 00 00 00 00	 jmp	 ?GetThisClass@CWnd@@SGPAUCRuntimeClass@@XZ ; CWnd::GetThisClass
?_GetBaseClass@CGfxOutBarCtrl@@KGPAUCRuntimeClass@@XZ ENDP ; CGfxOutBarCtrl::_GetBaseClass
_TEXT	ENDS
; Function compile flags: /Ogtp
; File C:\Program Files (x86)\Microsoft Visual Studio\2019\Community\VC\Tools\MSVC\14.29.30133\atlmfc\include\afxwin2.inl
;	COMDAT ?EndModalState@CWnd@@UAEXXZ
_TEXT	SEGMENT
?EndModalState@CWnd@@UAEXXZ PROC			; CWnd::EndModalState, COMDAT
; _this$ = ecx

; 567  : 	{ ::EnableWindow(m_hWnd, TRUE); }

  00000	6a 01		 push	 1
  00002	ff 71 20	 push	 DWORD PTR [ecx+32]
  00005	ff 15 00 00 00
	00		 call	 DWORD PTR __imp__EnableWindow@8
  0000b	c3		 ret	 0
?EndModalState@CWnd@@UAEXXZ ENDP			; CWnd::EndModalState
_TEXT	ENDS
; Function compile flags: /Ogtp
; File C:\Program Files (x86)\Microsoft Visual Studio\2019\Community\VC\Tools\MSVC\14.29.30133\atlmfc\include\afxwin2.inl
;	COMDAT ?BeginModalState@CWnd@@UAEXXZ
_TEXT	SEGMENT
?BeginModalState@CWnd@@UAEXXZ PROC			; CWnd::BeginModalState, COMDAT
; _this$ = ecx

; 565  : 	{ ::EnableWindow(m_hWnd, FALSE); }

  00000	6a 00		 push	 0
  00002	ff 71 20	 push	 DWORD PTR [ecx+32]
  00005	ff 15 00 00 00
	00		 call	 DWORD PTR __imp__EnableWindow@8
  0000b	c3		 ret	 0
?BeginModalState@CWnd@@UAEXXZ ENDP			; CWnd::BeginModalState
_TEXT	ENDS
; Function compile flags: /Ogtp
; File C:\Program Files (x86)\Microsoft Visual Studio\2019\Community\VC\Tools\MSVC\14.29.30133\atlmfc\include\afxwin2.inl
;	COMDAT ?DoDataExchange@CWnd@@MAEXPAVCDataExchange@@@Z
_TEXT	SEGMENT
___formal$ = 8						; size = 4
?DoDataExchange@CWnd@@MAEXPAVCDataExchange@@@Z PROC	; CWnd::DoDataExchange, COMDAT
; _this$ = ecx

; 561  : 	{ } // default does nothing

  00000	c2 04 00	 ret	 4
?DoDataExchange@CWnd@@MAEXPAVCDataExchange@@@Z ENDP	; CWnd::DoDataExchange
_TEXT	ENDS
; Function compile flags: /Ogtp
; File C:\Program Files (x86)\Microsoft Visual Studio\2019\Community\VC\Tools\MSVC\14.29.30133\atlmfc\include\afxwin2.inl
;	COMDAT ?OnRButtonDown@CWnd@@IAEXIVCPoint@@@Z
_TEXT	SEGMENT
___formal$ = 8						; size = 4
___formal$ = 12						; size = 8
?OnRButtonDown@CWnd@@IAEXIVCPoint@@@Z PROC		; CWnd::OnRButtonDown, COMDAT
; _this$ = ecx

; 462  : 	{ Default(); }

  00000	e8 00 00 00 00	 call	 ?Default@CWnd@@IAEJXZ	; CWnd::Default
  00005	c2 0c 00	 ret	 12			; 0000000cH
?OnRButtonDown@CWnd@@IAEXIVCPoint@@@Z ENDP		; CWnd::OnRButtonDown
_TEXT	ENDS
; Function compile flags: /Ogtp
; File C:\Program Files (x86)\Microsoft Visual Studio\2019\Community\VC\Tools\MSVC\14.29.30133\atlmfc\include\afxwin1.inl
;	COMDAT ?DrawTextA@CDC@@UAEHPBDHPAUtagRECT@@I@Z
_TEXT	SEGMENT
_lpszString$ = 8					; size = 4
_nCount$ = 12						; size = 4
_lpRect$ = 16						; size = 4
_nFormat$ = 20						; size = 4
?DrawTextA@CDC@@UAEHPBDHPAUtagRECT@@I@Z PROC		; CDC::DrawTextA, COMDAT
; _this$ = ecx

; 593  : 	{ ASSERT(m_hDC != NULL);

  00000	55		 push	 ebp
  00001	8b ec		 mov	 ebp, esp

; 594  : 		return ::DrawText(m_hDC, lpszString, nCount, lpRect, nFormat); }

  00003	ff 75 14	 push	 DWORD PTR _nFormat$[ebp]
  00006	ff 75 10	 push	 DWORD PTR _lpRect$[ebp]
  00009	ff 75 0c	 push	 DWORD PTR _nCount$[ebp]
  0000c	ff 75 08	 push	 DWORD PTR _lpszString$[ebp]
  0000f	ff 71 04	 push	 DWORD PTR [ecx+4]
  00012	ff 15 00 00 00
	00		 call	 DWORD PTR __imp__DrawTextA@20
  00018	5d		 pop	 ebp
  00019	c2 10 00	 ret	 16			; 00000010H
?DrawTextA@CDC@@UAEHPBDHPAUtagRECT@@I@Z ENDP		; CDC::DrawTextA
_TEXT	ENDS
; Function compile flags: /Ogtp
; File C:\Program Files (x86)\Microsoft Visual Studio\2019\Community\VC\Tools\MSVC\14.29.30133\atlmfc\include\afxwin1.inl
; File C:\Program Files (x86)\Microsoft Visual Studio\2019\Community\VC\Tools\MSVC\14.29.30133\atlmfc\include\afx.inl
;	COMDAT ??_GCRgn@@UAEPAXI@Z
_TEXT	SEGMENT
___flags$ = 8						; size = 4
??_GCRgn@@UAEPAXI@Z PROC				; CRgn::`scalar deleting destructor', COMDAT
; _this$ = ecx
  00000	55		 push	 ebp
  00001	8b ec		 mov	 ebp, esp
; File C:\Program Files (x86)\Microsoft Visual Studio\2019\Community\VC\Tools\MSVC\14.29.30133\atlmfc\include\afxwin1.inl

; 266  : 	{ }

  00003	56		 push	 esi
  00004	8b f1		 mov	 esi, ecx
  00006	c7 06 00 00 00
	00		 mov	 DWORD PTR [esi], OFFSET ??_7CRgn@@6B@
  0000c	e8 00 00 00 00	 call	 ??1CGdiObject@@UAE@XZ	; CGdiObject::~CGdiObject
  00011	8b 45 08	 mov	 eax, DWORD PTR ___flags$[ebp]
  00014	a8 01		 test	 al, 1
  00016	74 1f		 je	 SHORT $LN12@scalar
  00018	a8 04		 test	 al, 4
  0001a	75 10		 jne	 SHORT $LN3@scalar
; File C:\Program Files (x86)\Microsoft Visual Studio\2019\Community\VC\Tools\MSVC\14.29.30133\atlmfc\include\afx.inl

; 112  : 	{ ::operator delete(p); }

  0001c	56		 push	 esi
  0001d	e8 00 00 00 00	 call	 ??3@YAXPAX@Z		; operator delete
  00022	83 c4 04	 add	 esp, 4
  00025	8b c6		 mov	 eax, esi
  00027	5e		 pop	 esi
  00028	5d		 pop	 ebp
  00029	c2 04 00	 ret	 4
$LN3@scalar:
  0002c	6a 08		 push	 8
  0002e	56		 push	 esi
  0002f	e8 00 00 00 00	 call	 ?__global_delete@@YAXPAXI@Z ; __global_delete
  00034	83 c4 08	 add	 esp, 8
$LN12@scalar:
  00037	8b c6		 mov	 eax, esi
  00039	5e		 pop	 esi
  0003a	5d		 pop	 ebp
  0003b	c2 04 00	 ret	 4
??_GCRgn@@UAEPAXI@Z ENDP				; CRgn::`scalar deleting destructor'
_TEXT	ENDS
; Function compile flags: /Ogtp
; File C:\Program Files (x86)\Microsoft Visual Studio\2019\Community\VC\Tools\MSVC\14.29.30133\atlmfc\include\afxwin1.inl
;	COMDAT ??1CRgn@@UAE@XZ
_TEXT	SEGMENT
??1CRgn@@UAE@XZ PROC					; CRgn::~CRgn, COMDAT
; _this$ = ecx

; 266  : 	{ }

  00000	c7 01 00 00 00
	00		 mov	 DWORD PTR [ecx], OFFSET ??_7CRgn@@6B@
  00006	e9 00 00 00 00	 jmp	 ??1CGdiObject@@UAE@XZ	; CGdiObject::~CGdiObject
??1CRgn@@UAE@XZ ENDP					; CRgn::~CRgn
_TEXT	ENDS
; Function compile flags: /Ogtp
; File C:\Program Files (x86)\Microsoft Visual Studio\2019\Community\VC\Tools\MSVC\14.29.30133\atlmfc\include\afxwin1.inl
; File C:\Program Files (x86)\Microsoft Visual Studio\2019\Community\VC\Tools\MSVC\14.29.30133\atlmfc\include\afx.inl
;	COMDAT ??_GCBitmap@@UAEPAXI@Z
_TEXT	SEGMENT
___flags$ = 8						; size = 4
??_GCBitmap@@UAEPAXI@Z PROC				; CBitmap::`scalar deleting destructor', COMDAT
; _this$ = ecx
  00000	55		 push	 ebp
  00001	8b ec		 mov	 ebp, esp
; File C:\Program Files (x86)\Microsoft Visual Studio\2019\Community\VC\Tools\MSVC\14.29.30133\atlmfc\include\afxwin1.inl

; 179  : 	{ }

  00003	56		 push	 esi
  00004	8b f1		 mov	 esi, ecx
  00006	c7 06 00 00 00
	00		 mov	 DWORD PTR [esi], OFFSET ??_7CBitmap@@6B@
  0000c	e8 00 00 00 00	 call	 ??1CGdiObject@@UAE@XZ	; CGdiObject::~CGdiObject
  00011	8b 45 08	 mov	 eax, DWORD PTR ___flags$[ebp]
  00014	a8 01		 test	 al, 1
  00016	74 1f		 je	 SHORT $LN12@scalar
  00018	a8 04		 test	 al, 4
  0001a	75 10		 jne	 SHORT $LN3@scalar
; File C:\Program Files (x86)\Microsoft Visual Studio\2019\Community\VC\Tools\MSVC\14.29.30133\atlmfc\include\afx.inl

; 112  : 	{ ::operator delete(p); }

  0001c	56		 push	 esi
  0001d	e8 00 00 00 00	 call	 ??3@YAXPAX@Z		; operator delete
  00022	83 c4 04	 add	 esp, 4
  00025	8b c6		 mov	 eax, esi
  00027	5e		 pop	 esi
  00028	5d		 pop	 ebp
  00029	c2 04 00	 ret	 4
$LN3@scalar:
  0002c	6a 08		 push	 8
  0002e	56		 push	 esi
  0002f	e8 00 00 00 00	 call	 ?__global_delete@@YAXPAXI@Z ; __global_delete
  00034	83 c4 08	 add	 esp, 8
$LN12@scalar:
  00037	8b c6		 mov	 eax, esi
  00039	5e		 pop	 esi
  0003a	5d		 pop	 ebp
  0003b	c2 04 00	 ret	 4
??_GCBitmap@@UAEPAXI@Z ENDP				; CBitmap::`scalar deleting destructor'
_TEXT	ENDS
; Function compile flags: /Ogtp
; File C:\Program Files (x86)\Microsoft Visual Studio\2019\Community\VC\Tools\MSVC\14.29.30133\atlmfc\include\afxwin1.inl
;	COMDAT ??1CBitmap@@UAE@XZ
_TEXT	SEGMENT
??1CBitmap@@UAE@XZ PROC					; CBitmap::~CBitmap, COMDAT
; _this$ = ecx

; 179  : 	{ }

  00000	c7 01 00 00 00
	00		 mov	 DWORD PTR [ecx], OFFSET ??_7CBitmap@@6B@
  00006	e9 00 00 00 00	 jmp	 ??1CGdiObject@@UAE@XZ	; CGdiObject::~CGdiObject
??1CBitmap@@UAE@XZ ENDP					; CBitmap::~CBitmap
_TEXT	ENDS
; Function compile flags: /Ogtp
; File C:\Program Files (x86)\Microsoft Visual Studio\2019\Community\VC\Tools\MSVC\14.29.30133\atlmfc\include\afxwin1.inl
; File C:\Program Files (x86)\Microsoft Visual Studio\2019\Community\VC\Tools\MSVC\14.29.30133\atlmfc\include\afx.inl
;	COMDAT ??_GCFont@@UAEPAXI@Z
_TEXT	SEGMENT
___flags$ = 8						; size = 4
??_GCFont@@UAEPAXI@Z PROC				; CFont::`scalar deleting destructor', COMDAT
; _this$ = ecx
  00000	55		 push	 ebp
  00001	8b ec		 mov	 ebp, esp
; File C:\Program Files (x86)\Microsoft Visual Studio\2019\Community\VC\Tools\MSVC\14.29.30133\atlmfc\include\afxwin1.inl

; 155  : 	{ }

  00003	56		 push	 esi
  00004	8b f1		 mov	 esi, ecx
  00006	c7 06 00 00 00
	00		 mov	 DWORD PTR [esi], OFFSET ??_7CFont@@6B@
  0000c	e8 00 00 00 00	 call	 ??1CGdiObject@@UAE@XZ	; CGdiObject::~CGdiObject
  00011	8b 45 08	 mov	 eax, DWORD PTR ___flags$[ebp]
  00014	a8 01		 test	 al, 1
  00016	74 1f		 je	 SHORT $LN12@scalar
  00018	a8 04		 test	 al, 4
  0001a	75 10		 jne	 SHORT $LN3@scalar
; File C:\Program Files (x86)\Microsoft Visual Studio\2019\Community\VC\Tools\MSVC\14.29.30133\atlmfc\include\afx.inl

; 112  : 	{ ::operator delete(p); }

  0001c	56		 push	 esi
  0001d	e8 00 00 00 00	 call	 ??3@YAXPAX@Z		; operator delete
  00022	83 c4 04	 add	 esp, 4
  00025	8b c6		 mov	 eax, esi
  00027	5e		 pop	 esi
  00028	5d		 pop	 ebp
  00029	c2 04 00	 ret	 4
$LN3@scalar:
  0002c	6a 08		 push	 8
  0002e	56		 push	 esi
  0002f	e8 00 00 00 00	 call	 ?__global_delete@@YAXPAXI@Z ; __global_delete
  00034	83 c4 08	 add	 esp, 8
$LN12@scalar:
  00037	8b c6		 mov	 eax, esi
  00039	5e		 pop	 esi
  0003a	5d		 pop	 ebp
  0003b	c2 04 00	 ret	 4
??_GCFont@@UAEPAXI@Z ENDP				; CFont::`scalar deleting destructor'
_TEXT	ENDS
; Function compile flags: /Ogtp
; File C:\Program Files (x86)\Microsoft Visual Studio\2019\Community\VC\Tools\MSVC\14.29.30133\atlmfc\include\afxwin1.inl
;	COMDAT ??1CFont@@UAE@XZ
_TEXT	SEGMENT
??1CFont@@UAE@XZ PROC					; CFont::~CFont, COMDAT
; _this$ = ecx

; 155  : 	{ }

  00000	c7 01 00 00 00
	00		 mov	 DWORD PTR [ecx], OFFSET ??_7CFont@@6B@
  00006	e9 00 00 00 00	 jmp	 ??1CGdiObject@@UAE@XZ	; CGdiObject::~CGdiObject
??1CFont@@UAE@XZ ENDP					; CFont::~CFont
_TEXT	ENDS
; Function compile flags: /Ogtp
; File C:\Program Files (x86)\Microsoft Visual Studio\2019\Community\VC\Tools\MSVC\14.29.30133\atlmfc\include\afxwin1.inl
; File C:\Program Files (x86)\Microsoft Visual Studio\2019\Community\VC\Tools\MSVC\14.29.30133\atlmfc\include\afx.inl
;	COMDAT ??_GCPen@@UAEPAXI@Z
_TEXT	SEGMENT
___flags$ = 8						; size = 4
??_GCPen@@UAEPAXI@Z PROC				; CPen::`scalar deleting destructor', COMDAT
; _this$ = ecx
  00000	55		 push	 ebp
  00001	8b ec		 mov	 ebp, esp
; File C:\Program Files (x86)\Microsoft Visual Studio\2019\Community\VC\Tools\MSVC\14.29.30133\atlmfc\include\afxwin1.inl

; 106  : 	{ }

  00003	56		 push	 esi
  00004	8b f1		 mov	 esi, ecx
  00006	c7 06 00 00 00
	00		 mov	 DWORD PTR [esi], OFFSET ??_7CPen@@6B@
  0000c	e8 00 00 00 00	 call	 ??1CGdiObject@@UAE@XZ	; CGdiObject::~CGdiObject
  00011	8b 45 08	 mov	 eax, DWORD PTR ___flags$[ebp]
  00014	a8 01		 test	 al, 1
  00016	74 1f		 je	 SHORT $LN12@scalar
  00018	a8 04		 test	 al, 4
  0001a	75 10		 jne	 SHORT $LN3@scalar
; File C:\Program Files (x86)\Microsoft Visual Studio\2019\Community\VC\Tools\MSVC\14.29.30133\atlmfc\include\afx.inl

; 112  : 	{ ::operator delete(p); }

  0001c	56		 push	 esi
  0001d	e8 00 00 00 00	 call	 ??3@YAXPAX@Z		; operator delete
  00022	83 c4 04	 add	 esp, 4
  00025	8b c6		 mov	 eax, esi
  00027	5e		 pop	 esi
  00028	5d		 pop	 ebp
  00029	c2 04 00	 ret	 4
$LN3@scalar:
  0002c	6a 08		 push	 8
  0002e	56		 push	 esi
  0002f	e8 00 00 00 00	 call	 ?__global_delete@@YAXPAXI@Z ; __global_delete
  00034	83 c4 08	 add	 esp, 8
$LN12@scalar:
  00037	8b c6		 mov	 eax, esi
  00039	5e		 pop	 esi
  0003a	5d		 pop	 ebp
  0003b	c2 04 00	 ret	 4
??_GCPen@@UAEPAXI@Z ENDP				; CPen::`scalar deleting destructor'
_TEXT	ENDS
; Function compile flags: /Ogtp
; File C:\Program Files (x86)\Microsoft Visual Studio\2019\Community\VC\Tools\MSVC\14.29.30133\atlmfc\include\afxwin1.inl
;	COMDAT ??1CPen@@UAE@XZ
_TEXT	SEGMENT
??1CPen@@UAE@XZ PROC					; CPen::~CPen, COMDAT
; _this$ = ecx

; 106  : 	{ }

  00000	c7 01 00 00 00
	00		 mov	 DWORD PTR [ecx], OFFSET ??_7CPen@@6B@
  00006	e9 00 00 00 00	 jmp	 ??1CGdiObject@@UAE@XZ	; CGdiObject::~CGdiObject
??1CPen@@UAE@XZ ENDP					; CPen::~CPen
_TEXT	ENDS
; Function compile flags: /Ogtp
; File C:\Program Files (x86)\Microsoft Visual Studio\2019\Community\VC\Tools\MSVC\14.29.30133\atlmfc\include\afx.inl
;	COMDAT ??_GCGdiObject@@UAEPAXI@Z
_TEXT	SEGMENT
___flags$ = 8						; size = 4
??_GCGdiObject@@UAEPAXI@Z PROC				; CGdiObject::`scalar deleting destructor', COMDAT
; _this$ = ecx
  00000	55		 push	 ebp
  00001	8b ec		 mov	 ebp, esp
  00003	56		 push	 esi
  00004	8b f1		 mov	 esi, ecx
  00006	e8 00 00 00 00	 call	 ??1CGdiObject@@UAE@XZ	; CGdiObject::~CGdiObject
  0000b	8b 45 08	 mov	 eax, DWORD PTR ___flags$[ebp]
  0000e	a8 01		 test	 al, 1
  00010	74 1f		 je	 SHORT $LN9@scalar
  00012	a8 04		 test	 al, 4
  00014	75 10		 jne	 SHORT $LN3@scalar

; 112  : 	{ ::operator delete(p); }

  00016	56		 push	 esi
  00017	e8 00 00 00 00	 call	 ??3@YAXPAX@Z		; operator delete
  0001c	83 c4 04	 add	 esp, 4
  0001f	8b c6		 mov	 eax, esi
  00021	5e		 pop	 esi
  00022	5d		 pop	 ebp
  00023	c2 04 00	 ret	 4
$LN3@scalar:
  00026	6a 08		 push	 8
  00028	56		 push	 esi
  00029	e8 00 00 00 00	 call	 ?__global_delete@@YAXPAXI@Z ; __global_delete
  0002e	83 c4 08	 add	 esp, 8
$LN9@scalar:
  00031	8b c6		 mov	 eax, esi
  00033	5e		 pop	 esi
  00034	5d		 pop	 ebp
  00035	c2 04 00	 ret	 4
??_GCGdiObject@@UAEPAXI@Z ENDP				; CGdiObject::`scalar deleting destructor'
_TEXT	ENDS
; Function compile flags: /Ogtp
; File C:\Program Files (x86)\Microsoft Visual Studio\2019\Community\VC\Tools\MSVC\14.29.30133\atlmfc\include\afxwin1.inl
;	COMDAT ??1CGdiObject@@UAE@XZ
_TEXT	SEGMENT
_pException$2 = -540					; size = 4
_strMsg$3 = -536					; size = 4
_szErrorMessage$4 = -532				; size = 512
__$ArrayPad$ = -20					; size = 4
__$EHRec$ = -16						; size = 16
??1CGdiObject@@UAE@XZ PROC				; CGdiObject::~CGdiObject, COMDAT
; _this$ = ecx

; 74   : {

  00000	55		 push	 ebp
  00001	8b ec		 mov	 ebp, esp
  00003	6a ff		 push	 -1
  00005	68 00 00 00 00	 push	 __ehhandler$??1CGdiObject@@UAE@XZ
  0000a	64 a1 00 00 00
	00		 mov	 eax, DWORD PTR fs:0
  00010	50		 push	 eax
  00011	81 ec 10 02 00
	00		 sub	 esp, 528		; 00000210H
  00017	a1 00 00 00 00	 mov	 eax, DWORD PTR ___security_cookie
  0001c	33 c5		 xor	 eax, ebp
  0001e	89 45 ec	 mov	 DWORD PTR __$ArrayPad$[ebp], eax
  00021	53		 push	 ebx
  00022	56		 push	 esi
  00023	57		 push	 edi
  00024	50		 push	 eax
  00025	8d 45 f4	 lea	 eax, DWORD PTR __$EHRec$[ebp+4]
  00028	64 a3 00 00 00
	00		 mov	 DWORD PTR fs:0, eax
  0002e	89 65 f0	 mov	 DWORD PTR __$EHRec$[ebp], esp
  00031	c7 01 00 00 00
	00		 mov	 DWORD PTR [ecx], OFFSET ??_7CGdiObject@@6B@

; 75   : 	AFX_BEGIN_DESTRUCTOR

  00037	c7 45 fc 00 00
	00 00		 mov	 DWORD PTR __$EHRec$[ebp+12], 0

; 76   : 	DeleteObject();

  0003e	e8 00 00 00 00	 call	 ?DeleteObject@CGdiObject@@QAEHXZ ; CGdiObject::DeleteObject
$LN18@CGdiObject:

; 78   : }

  00043	8b 4d f4	 mov	 ecx, DWORD PTR __$EHRec$[ebp+4]
  00046	64 89 0d 00 00
	00 00		 mov	 DWORD PTR fs:0, ecx
  0004d	59		 pop	 ecx
  0004e	5f		 pop	 edi
  0004f	5e		 pop	 esi
  00050	5b		 pop	 ebx
  00051	8b 4d ec	 mov	 ecx, DWORD PTR __$ArrayPad$[ebp]
  00054	33 cd		 xor	 ecx, ebp
  00056	e8 00 00 00 00	 call	 @__security_check_cookie@4
  0005b	8b e5		 mov	 esp, ebp
  0005d	5d		 pop	 ebp
  0005e	c3		 ret	 0
__catch$??1CGdiObject@@UAE@XZ$0:

; 77   : 	AFX_END_DESTRUCTOR

  0005f	8d 8d e8 fd ff
	ff		 lea	 ecx, DWORD PTR _strMsg$3[ebp]
  00065	ff 15 00 00 00
	00		 call	 DWORD PTR __imp_??0?$CStringT@DV?$StrTraitMFC_DLL@DV?$ChTraitsCRT@D@ATL@@@@@ATL@@QAE@XZ
  0006b	8b b5 e4 fd ff
	ff		 mov	 esi, DWORD PTR _pException$2[ebp]
  00071	8d 8d ec fd ff
	ff		 lea	 ecx, DWORD PTR _szErrorMessage$4[ebp]
  00077	6a 00		 push	 0
  00079	68 00 02 00 00	 push	 512			; 00000200H
  0007e	51		 push	 ecx
  0007f	8b 06		 mov	 eax, DWORD PTR [esi]
  00081	8b ce		 mov	 ecx, esi
  00083	c6 45 fc 02	 mov	 BYTE PTR __$EHRec$[ebp+12], 2
  00087	ff 50 14	 call	 DWORD PTR [eax+20]
  0008a	85 c0		 test	 eax, eax
  0008c	74 2a		 je	 SHORT $LN9@CGdiObject
  0008e	8d 85 ec fd ff
	ff		 lea	 eax, DWORD PTR _szErrorMessage$4[ebp]
  00094	50		 push	 eax
  00095	6a 4d		 push	 77			; 0000004dH
  00097	68 00 00 00 00	 push	 OFFSET ??_C@_0HD@JJCHHHNK@C?3?2Program?5Files?5?$CIx86?$CJ?2Microsof@
  0009c	68 00 00 00 00	 push	 OFFSET ??_C@_0BP@OIEOKIDM@Exception?5thrown?5in?5destructor@
  000a1	8d 85 e8 fd ff
	ff		 lea	 eax, DWORD PTR _strMsg$3[ebp]
  000a7	68 00 00 00 00	 push	 OFFSET ??_C@_0BB@HBOOMJBF@?$CFTs?5?$CI?$CFTs?3?$CFd?$CJ?6?$CFTs@
  000ac	50		 push	 eax
  000ad	ff 15 00 00 00
	00		 call	 DWORD PTR __imp_?Format@?$CStringT@DV?$StrTraitMFC_DLL@DV?$ChTraitsCRT@D@ATL@@@@@ATL@@QAAXPBDZZ
  000b3	83 c4 18	 add	 esp, 24			; 00000018H
  000b6	eb 21		 jmp	 SHORT $LN10@CGdiObject
$LN9@CGdiObject:
  000b8	6a 4d		 push	 77			; 0000004dH
  000ba	68 00 00 00 00	 push	 OFFSET ??_C@_0HD@JJCHHHNK@C?3?2Program?5Files?5?$CIx86?$CJ?2Microsof@
  000bf	68 00 00 00 00	 push	 OFFSET ??_C@_0BP@OIEOKIDM@Exception?5thrown?5in?5destructor@
  000c4	8d 85 e8 fd ff
	ff		 lea	 eax, DWORD PTR _strMsg$3[ebp]
  000ca	68 00 00 00 00	 push	 OFFSET ??_C@_0N@OMEMOKLE@?$CFTs?5?$CI?$CFTs?3?$CFd?$CJ@
  000cf	50		 push	 eax
  000d0	ff 15 00 00 00
	00		 call	 DWORD PTR __imp_?Format@?$CStringT@DV?$StrTraitMFC_DLL@DV?$ChTraitsCRT@D@ATL@@@@@ATL@@QAAXPBDZZ
  000d6	83 c4 14	 add	 esp, 20			; 00000014H
$LN10@CGdiObject:
  000d9	6a 00		 push	 0
  000db	6a 00		 push	 0
  000dd	ff b5 e8 fd ff
	ff		 push	 DWORD PTR _strMsg$3[ebp]
  000e3	e8 00 00 00 00	 call	 ?AfxMessageBox@@YGHPBDII@Z ; AfxMessageBox
  000e8	8d 8d e8 fd ff
	ff		 lea	 ecx, DWORD PTR _strMsg$3[ebp]
  000ee	ff 15 00 00 00
	00		 call	 DWORD PTR __imp_??1?$CStringT@DV?$StrTraitMFC_DLL@DV?$ChTraitsCRT@D@ATL@@@@@ATL@@QAE@XZ
  000f4	8b 06		 mov	 eax, DWORD PTR [esi]
  000f6	8b ce		 mov	 ecx, esi
  000f8	6a 01		 push	 1
  000fa	ff 50 04	 call	 DWORD PTR [eax+4]
  000fd	b8 00 00 00 00	 mov	 eax, $LN18@CGdiObject
  00102	c3		 ret	 0
_TEXT	ENDS
;	COMDAT text$x
text$x	SEGMENT
__unwindfunclet$??1CGdiObject@@UAE@XZ$2:
  00000	8d 8d e8 fd ff
	ff		 lea	 ecx, DWORD PTR _strMsg$3[ebp]
  00006	ff 25 00 00 00
	00		 jmp	 DWORD PTR __imp_??1?$CStringT@DV?$StrTraitMFC_DLL@DV?$ChTraitsCRT@D@ATL@@@@@ATL@@QAE@XZ
  0000c	cc		 int	 3
  0000d	cc		 int	 3
  0000e	cc		 int	 3
  0000f	cc		 int	 3
  00010	cc		 int	 3
__ehhandler$??1CGdiObject@@UAE@XZ:
  00011	90		 npad	 1
  00012	90		 npad	 1
  00013	8b 54 24 08	 mov	 edx, DWORD PTR [esp+8]
  00017	8d 42 0c	 lea	 eax, DWORD PTR [edx+12]
  0001a	8b 8a e0 fd ff
	ff		 mov	 ecx, DWORD PTR [edx-544]
  00020	33 c8		 xor	 ecx, eax
  00022	e8 00 00 00 00	 call	 @__security_check_cookie@4
  00027	8b 4a f8	 mov	 ecx, DWORD PTR [edx-8]
  0002a	33 c8		 xor	 ecx, eax
  0002c	e8 00 00 00 00	 call	 @__security_check_cookie@4
  00031	b8 00 00 00 00	 mov	 eax, OFFSET __ehfuncinfo$??1CGdiObject@@UAE@XZ
  00036	e9 00 00 00 00	 jmp	 ___CxxFrameHandler3
text$x	ENDS
??1CGdiObject@@UAE@XZ ENDP				; CGdiObject::~CGdiObject
; Function compile flags: /Ogtp
; File C:\Program Files (x86)\Microsoft Visual Studio\2019\Community\VC\Tools\MSVC\14.29.30133\atlmfc\include\afx.inl
;	COMDAT ?_AfxInitManaged@@YAHXZ
_TEXT	SEGMENT
?_AfxInitManaged@@YAHXZ PROC				; _AfxInitManaged, COMDAT

; 87   : 	return 0;

  00000	33 c0		 xor	 eax, eax

; 88   : }

  00002	c3		 ret	 0
?_AfxInitManaged@@YAHXZ ENDP				; _AfxInitManaged
_TEXT	ENDS
; Function compile flags: /Ogtp
; File C:\Program Files (x86)\Microsoft Visual Studio\2019\Community\VC\Tools\MSVC\14.29.30133\atlmfc\include\afx.inl
;	COMDAT ?Dump@CObject@@UBEXAAVCDumpContext@@@Z
_TEXT	SEGMENT
___formal$ = 8						; size = 4
?Dump@CObject@@UBEXAAVCDumpContext@@@Z PROC		; CObject::Dump, COMDAT
; _this$ = ecx

; 122  : 	{ /* no dumping in release builds */ }

  00000	c2 04 00	 ret	 4
?Dump@CObject@@UBEXAAVCDumpContext@@@Z ENDP		; CObject::Dump
_TEXT	ENDS
; Function compile flags: /Ogtp
; File C:\Program Files (x86)\Microsoft Visual Studio\2019\Community\VC\Tools\MSVC\14.29.30133\atlmfc\include\afx.inl
;	COMDAT ?AssertValid@CObject@@UBEXXZ
_TEXT	SEGMENT
?AssertValid@CObject@@UBEXXZ PROC			; CObject::AssertValid, COMDAT
; _this$ = ecx

; 120  : 	{ /* no asserts in release builds */ }

  00000	c2 00 00	 ret	 0
?AssertValid@CObject@@UBEXXZ ENDP			; CObject::AssertValid
_TEXT	ENDS
; Function compile flags: /Ogtp
; File C:\Program Files (x86)\Microsoft Visual Studio\2019\Community\VC\Tools\MSVC\14.29.30133\atlmfc\include\afx.inl
;	COMDAT ?Serialize@CObject@@UAEXAAVCArchive@@@Z
_TEXT	SEGMENT
___formal$ = 8						; size = 4
?Serialize@CObject@@UAEXAAVCArchive@@@Z PROC		; CObject::Serialize, COMDAT
; _this$ = ecx

; 106  : 	{ /* CObject does not serialize anything by default */ }

  00000	c2 04 00	 ret	 4
?Serialize@CObject@@UAEXAAVCArchive@@@Z ENDP		; CObject::Serialize
_TEXT	ENDS
; Function compile flags: /Ogtp
; File C:\Program Files (x86)\Microsoft Visual Studio\2019\Community\VC\Tools\MSVC\14.29.30133\atlmfc\include\afx.inl
;	COMDAT ??3CObject@@SGXPAX@Z
_TEXT	SEGMENT
_p$ = 8							; size = 4
??3CObject@@SGXPAX@Z PROC				; CObject::operator delete, COMDAT

; 112  : 	{ ::operator delete(p); }

  00000	55		 push	 ebp
  00001	8b ec		 mov	 ebp, esp
  00003	ff 75 08	 push	 DWORD PTR _p$[ebp]
  00006	e8 00 00 00 00	 call	 ??3@YAXPAX@Z		; operator delete
  0000b	83 c4 04	 add	 esp, 4
  0000e	5d		 pop	 ebp
  0000f	c2 04 00	 ret	 4
??3CObject@@SGXPAX@Z ENDP				; CObject::operator delete
_TEXT	ENDS
; Function compile flags: /Ogtp
; File C:\Program Files (x86)\Microsoft Visual Studio\2019\Community\VC\Tools\MSVC\14.29.30133\atlmfc\include\afx.inl
;	COMDAT ??1CObject@@UAE@XZ
_TEXT	SEGMENT
??1CObject@@UAE@XZ PROC					; CObject::~CObject, COMDAT
; _this$ = ecx

; 104  : 	{ }

  00000	c2 00 00	 ret	 0
??1CObject@@UAE@XZ ENDP					; CObject::~CObject
_TEXT	ENDS
; Function compile flags: /Ogtp
; File D:\git\src\IBK\IBK_DRFN\ProjSrc\SrcDrfn\Chart\MULTICHART\control\GfxOutBarCtrl.cpp
;	COMDAT ?__empty_global_delete@@YAXPAXI@Z
_TEXT	SEGMENT
___formal$ = 8						; size = 4
___formal$ = 12						; size = 4
?__empty_global_delete@@YAXPAXI@Z PROC			; __empty_global_delete, COMDAT

  00000	c2 00 00	 ret	 0
?__empty_global_delete@@YAXPAXI@Z ENDP			; __empty_global_delete
_TEXT	ENDS
; Function compile flags: /Ogtp
; File D:\git\src\IBK\IBK_DRFN\ProjSrc\SrcDrfn\Chart\MULTICHART\control\GfxOutBarCtrl.cpp
;	COMDAT ?__empty_global_delete@@YAXPAX@Z
_TEXT	SEGMENT
___formal$ = 8						; size = 4
?__empty_global_delete@@YAXPAX@Z PROC			; __empty_global_delete, COMDAT

  00000	c2 00 00	 ret	 0
?__empty_global_delete@@YAXPAX@Z ENDP			; __empty_global_delete
_TEXT	ENDS
END
