; Listing generated by Microsoft (R) Optimizing Compiler Version 19.29.30148.0 

	TITLE	D:\git\src\IBK\IBK_DRFN\#DRfn-CS\_Obj\MultiChart\InputBarDlg.obj
	.686P
	.XMM
	include listing.inc
	.model	flat

INCLUDELIB MSVCRT
INCLUDELIB OLDNAMES

PUBLIC	??_C@_0BC@FHIPKCJJ@RMSG_FROMCODELIST@		; `string'
PUBLIC	??_C@_0BC@GGHIPHFD@RMSG_SETSHAREDATA@		; `string'
PUBLIC	??_C@_0O@JLGCPGDL@RMSG_OPENMAP2@		; `string'
PUBLIC	??_C@_0BL@ONHOHGGM@RMSG_FROMHOGAJUMUN_DESTROY@	; `string'
PUBLIC	??_C@_0BJ@LMIHANJC@RMSG_HOGACHANGEDATA_CODE@	; `string'
PUBLIC	??_C@_0BJ@NKAHNENP@RMSG_HOGACHANGEDATA_ACCT@	; `string'
PUBLIC	??_C@_0BA@OPONGCEC@RMSG_SHARED_PIN@		; `string'
PUBLIC	??_C@_0BE@NAJONFKO@RMSG_RESIZEFROMGWAN@		; `string'
PUBLIC	??_C@_0BB@JOGLHCCG@RMSG_MESSAGESHOW@		; `string'
PUBLIC	??_C@_0BC@ICLGGCHO@RMSG_GETSKINVALUE@		; `string'
PUBLIC	??_C@_0BH@KFIGLKAC@RMSG_GET_CONTROLHANDLE@	; `string'
PUBLIC	??_C@_0P@BKKCOCLK@RMSG_INTERFACE@		; `string'
PUBLIC	??_C@_0BB@IBKHOHJL@RMSG_REPLAY_REAL@		; `string'
PUBLIC	??_C@_0BB@JFLGBADG@RMSG_REPLAY_FAIL@		; `string'
PUBLIC	??_C@_0BI@KDGAIIMD@RMSG_REPLAY_CHANGE_DATE@	; `string'
PUBLIC	??_C@_0BA@NKHHCPON@RMSG_REPLAY_END@		; `string'
PUBLIC	??_C@_0BE@JFCIMCIP@RMSG_REPLAY_INC_SEC@		; `string'
PUBLIC	??_C@_0BG@GIAJEIJF@RMSG_REPLAY_TOTAL_SEC@	; `string'
PUBLIC	??_C@_0BE@FJPKENOB@RMSG_GETSIGNAL_REAL@		; `string'
PUBLIC	??_C@_0BB@CNOFPEHG@RMSG_SETQUERYOPT@		; `string'
PUBLIC	??_C@_0P@KHFCBIOH@RMSG_CHARTMAIN@		; `string'
PUBLIC	??_C@_0BC@MMPGLPDH@RMS_ANALYSIS_FUNC@		; `string'
PUBLIC	??_C@_0BA@HKNFENJL@RMSG_GET_USERID@		; `string'
PUBLIC	??_C@_0BG@CNPAHNGG@RMSG_CHANGE_SKINCOLOR@	; `string'
PUBLIC	??_C@_0BD@FLDNDDHK@RMSG_GET_SKINCOLOR@		; `string'
PUBLIC	??_C@_0BJ@JLKHIBIK@RMSG_CHANGEVERTSCALETYPE@	; `string'
PUBLIC	??_C@_0BG@LNLCJKPF@RMSG_CHANGE_CROSSLINE@	; `string'
PUBLIC	??_C@_0BH@IFDMIMBP@RMSG_ADD_PLATFORM_MENU@	; `string'
PUBLIC	??_C@_0BJ@OGNAJHHI@RMSG_SETINITIALCHARTDATA@	; `string'
PUBLIC	??_C@_0N@IIOKMIEH@RMSG_GETINFO@			; `string'
PUBLIC	??_C@_0N@HABLPHJG@RMSG_SETINFO@			; `string'
PUBLIC	?m_bInitFailed@CAtlBaseModule@ATL@@2_NA		; ATL::CAtlBaseModule::m_bInitFailed
PUBLIC	??_C@_0BE@LPIAJPJA@RMSG_GET_STDDLG_PTR@		; `string'
PUBLIC	?_pAtlModule@ATL@@3PAVCAtlModule@1@A		; ATL::_pAtlModule
PUBLIC	?WM_ATLGETHOST@ATL@@3IA				; ATL::WM_ATLGETHOST
PUBLIC	?WM_ATLGETCONTROL@ATL@@3IA			; ATL::WM_ATLGETCONTROL
PUBLIC	?_pAtlAutoThreadModule@ATL@@3PAUIAtlAutoThreadModule@1@A ; ATL::_pAtlAutoThreadModule
EXTRN	?_AtlBaseModule@ATL@@3VCAtlBaseModule@1@A:BYTE	; ATL::_AtlBaseModule
;	COMDAT ?m_bInitFailed@CAtlBaseModule@ATL@@2_NA
_BSS	SEGMENT
?m_bInitFailed@CAtlBaseModule@ATL@@2_NA DB 01H DUP (?)	; ATL::CAtlBaseModule::m_bInitFailed
_BSS	ENDS
;	COMDAT ?_pAtlModule@ATL@@3PAVCAtlModule@1@A
_BSS	SEGMENT
?_pAtlModule@ATL@@3PAVCAtlModule@1@A DD 01H DUP (?)	; ATL::_pAtlModule
_BSS	ENDS
;	COMDAT ?WM_ATLGETHOST@ATL@@3IA
_BSS	SEGMENT
?WM_ATLGETHOST@ATL@@3IA DD 01H DUP (?)			; ATL::WM_ATLGETHOST
_BSS	ENDS
;	COMDAT ?WM_ATLGETCONTROL@ATL@@3IA
_BSS	SEGMENT
?WM_ATLGETCONTROL@ATL@@3IA DD 01H DUP (?)		; ATL::WM_ATLGETCONTROL
_BSS	ENDS
;	COMDAT ?_pAtlAutoThreadModule@ATL@@3PAUIAtlAutoThreadModule@1@A
_BSS	SEGMENT
?_pAtlAutoThreadModule@ATL@@3PAUIAtlAutoThreadModule@1@A DD 01H DUP (?) ; ATL::_pAtlAutoThreadModule
_BSS	ENDS
;	COMDAT ??_C@_0BE@LPIAJPJA@RMSG_GET_STDDLG_PTR@
CONST	SEGMENT
??_C@_0BE@LPIAJPJA@RMSG_GET_STDDLG_PTR@ DB 'RMSG_GET_STDDLG_PTR', 00H ; `string'
CONST	ENDS
;	COMDAT ??_C@_0N@HABLPHJG@RMSG_SETINFO@
CONST	SEGMENT
??_C@_0N@HABLPHJG@RMSG_SETINFO@ DB 'RMSG_SETINFO', 00H	; `string'
CONST	ENDS
;	COMDAT ??_C@_0N@IIOKMIEH@RMSG_GETINFO@
CONST	SEGMENT
??_C@_0N@IIOKMIEH@RMSG_GETINFO@ DB 'RMSG_GETINFO', 00H	; `string'
CONST	ENDS
;	COMDAT ??_C@_0BJ@OGNAJHHI@RMSG_SETINITIALCHARTDATA@
CONST	SEGMENT
??_C@_0BJ@OGNAJHHI@RMSG_SETINITIALCHARTDATA@ DB 'RMSG_SETINITIALCHARTDATA'
	DB	00H						; `string'
CONST	ENDS
;	COMDAT ??_C@_0BH@IFDMIMBP@RMSG_ADD_PLATFORM_MENU@
CONST	SEGMENT
??_C@_0BH@IFDMIMBP@RMSG_ADD_PLATFORM_MENU@ DB 'RMSG_ADD_PLATFORM_MENU', 00H ; `string'
CONST	ENDS
;	COMDAT ??_C@_0BG@LNLCJKPF@RMSG_CHANGE_CROSSLINE@
CONST	SEGMENT
??_C@_0BG@LNLCJKPF@RMSG_CHANGE_CROSSLINE@ DB 'RMSG_CHANGE_CROSSLINE', 00H ; `string'
CONST	ENDS
;	COMDAT ??_C@_0BJ@JLKHIBIK@RMSG_CHANGEVERTSCALETYPE@
CONST	SEGMENT
??_C@_0BJ@JLKHIBIK@RMSG_CHANGEVERTSCALETYPE@ DB 'RMSG_CHANGEVERTSCALETYPE'
	DB	00H						; `string'
CONST	ENDS
;	COMDAT ??_C@_0BD@FLDNDDHK@RMSG_GET_SKINCOLOR@
CONST	SEGMENT
??_C@_0BD@FLDNDDHK@RMSG_GET_SKINCOLOR@ DB 'RMSG_GET_SKINCOLOR', 00H ; `string'
CONST	ENDS
;	COMDAT ??_C@_0BG@CNPAHNGG@RMSG_CHANGE_SKINCOLOR@
CONST	SEGMENT
??_C@_0BG@CNPAHNGG@RMSG_CHANGE_SKINCOLOR@ DB 'RMSG_CHANGE_SKINCOLOR', 00H ; `string'
CONST	ENDS
;	COMDAT ??_C@_0BA@HKNFENJL@RMSG_GET_USERID@
CONST	SEGMENT
??_C@_0BA@HKNFENJL@RMSG_GET_USERID@ DB 'RMSG_GET_USERID', 00H ; `string'
CONST	ENDS
;	COMDAT ??_C@_0BC@MMPGLPDH@RMS_ANALYSIS_FUNC@
CONST	SEGMENT
??_C@_0BC@MMPGLPDH@RMS_ANALYSIS_FUNC@ DB 'RMS_ANALYSIS_FUNC', 00H ; `string'
CONST	ENDS
;	COMDAT ??_C@_0P@KHFCBIOH@RMSG_CHARTMAIN@
CONST	SEGMENT
??_C@_0P@KHFCBIOH@RMSG_CHARTMAIN@ DB 'RMSG_CHARTMAIN', 00H ; `string'
CONST	ENDS
;	COMDAT ??_C@_0BB@CNOFPEHG@RMSG_SETQUERYOPT@
CONST	SEGMENT
??_C@_0BB@CNOFPEHG@RMSG_SETQUERYOPT@ DB 'RMSG_SETQUERYOPT', 00H ; `string'
CONST	ENDS
;	COMDAT ??_C@_0BE@FJPKENOB@RMSG_GETSIGNAL_REAL@
CONST	SEGMENT
??_C@_0BE@FJPKENOB@RMSG_GETSIGNAL_REAL@ DB 'RMSG_GETSIGNAL_REAL', 00H ; `string'
CONST	ENDS
;	COMDAT ??_C@_0BG@GIAJEIJF@RMSG_REPLAY_TOTAL_SEC@
CONST	SEGMENT
??_C@_0BG@GIAJEIJF@RMSG_REPLAY_TOTAL_SEC@ DB 'RMSG_REPLAY_TOTAL_SEC', 00H ; `string'
CONST	ENDS
;	COMDAT ??_C@_0BE@JFCIMCIP@RMSG_REPLAY_INC_SEC@
CONST	SEGMENT
??_C@_0BE@JFCIMCIP@RMSG_REPLAY_INC_SEC@ DB 'RMSG_REPLAY_INC_SEC', 00H ; `string'
CONST	ENDS
;	COMDAT ??_C@_0BA@NKHHCPON@RMSG_REPLAY_END@
CONST	SEGMENT
??_C@_0BA@NKHHCPON@RMSG_REPLAY_END@ DB 'RMSG_REPLAY_END', 00H ; `string'
CONST	ENDS
;	COMDAT ??_C@_0BI@KDGAIIMD@RMSG_REPLAY_CHANGE_DATE@
CONST	SEGMENT
??_C@_0BI@KDGAIIMD@RMSG_REPLAY_CHANGE_DATE@ DB 'RMSG_REPLAY_CHANGE_DATE', 00H ; `string'
CONST	ENDS
;	COMDAT ??_C@_0BB@JFLGBADG@RMSG_REPLAY_FAIL@
CONST	SEGMENT
??_C@_0BB@JFLGBADG@RMSG_REPLAY_FAIL@ DB 'RMSG_REPLAY_FAIL', 00H ; `string'
CONST	ENDS
;	COMDAT ??_C@_0BB@IBKHOHJL@RMSG_REPLAY_REAL@
CONST	SEGMENT
??_C@_0BB@IBKHOHJL@RMSG_REPLAY_REAL@ DB 'RMSG_REPLAY_REAL', 00H ; `string'
CONST	ENDS
;	COMDAT ??_C@_0P@BKKCOCLK@RMSG_INTERFACE@
CONST	SEGMENT
??_C@_0P@BKKCOCLK@RMSG_INTERFACE@ DB 'RMSG_INTERFACE', 00H ; `string'
CONST	ENDS
;	COMDAT ??_C@_0BH@KFIGLKAC@RMSG_GET_CONTROLHANDLE@
CONST	SEGMENT
??_C@_0BH@KFIGLKAC@RMSG_GET_CONTROLHANDLE@ DB 'RMSG_GET_CONTROLHANDLE', 00H ; `string'
CONST	ENDS
;	COMDAT ??_C@_0BC@ICLGGCHO@RMSG_GETSKINVALUE@
CONST	SEGMENT
??_C@_0BC@ICLGGCHO@RMSG_GETSKINVALUE@ DB 'RMSG_GETSKINVALUE', 00H ; `string'
CONST	ENDS
;	COMDAT ??_C@_0BB@JOGLHCCG@RMSG_MESSAGESHOW@
CONST	SEGMENT
??_C@_0BB@JOGLHCCG@RMSG_MESSAGESHOW@ DB 'RMSG_MESSAGESHOW', 00H ; `string'
CONST	ENDS
;	COMDAT ??_C@_0BE@NAJONFKO@RMSG_RESIZEFROMGWAN@
CONST	SEGMENT
??_C@_0BE@NAJONFKO@RMSG_RESIZEFROMGWAN@ DB 'RMSG_RESIZEFROMGWAN', 00H ; `string'
CONST	ENDS
;	COMDAT ??_C@_0BA@OPONGCEC@RMSG_SHARED_PIN@
CONST	SEGMENT
??_C@_0BA@OPONGCEC@RMSG_SHARED_PIN@ DB 'RMSG_SHARED_PIN', 00H ; `string'
CONST	ENDS
;	COMDAT ??_C@_0BJ@NKAHNENP@RMSG_HOGACHANGEDATA_ACCT@
CONST	SEGMENT
??_C@_0BJ@NKAHNENP@RMSG_HOGACHANGEDATA_ACCT@ DB 'RMSG_HOGACHANGEDATA_ACCT'
	DB	00H						; `string'
CONST	ENDS
;	COMDAT ??_C@_0BJ@LMIHANJC@RMSG_HOGACHANGEDATA_CODE@
CONST	SEGMENT
??_C@_0BJ@LMIHANJC@RMSG_HOGACHANGEDATA_CODE@ DB 'RMSG_HOGACHANGEDATA_CODE'
	DB	00H						; `string'
CONST	ENDS
;	COMDAT ??_C@_0BL@ONHOHGGM@RMSG_FROMHOGAJUMUN_DESTROY@
CONST	SEGMENT
??_C@_0BL@ONHOHGGM@RMSG_FROMHOGAJUMUN_DESTROY@ DB 'RMSG_FROMHOGAJUMUN_DES'
	DB	'TROY', 00H					; `string'
CONST	ENDS
;	COMDAT ??_C@_0O@JLGCPGDL@RMSG_OPENMAP2@
CONST	SEGMENT
??_C@_0O@JLGCPGDL@RMSG_OPENMAP2@ DB 'RMSG_OPENMAP2', 00H ; `string'
CONST	ENDS
;	COMDAT ??_C@_0BC@GGHIPHFD@RMSG_SETSHAREDATA@
CONST	SEGMENT
??_C@_0BC@GGHIPHFD@RMSG_SETSHAREDATA@ DB 'RMSG_SETSHAREDATA', 00H ; `string'
CONST	ENDS
;	COMDAT ??_C@_0BC@FHIPKCJJ@RMSG_FROMCODELIST@
CONST	SEGMENT
??_C@_0BC@FHIPKCJJ@RMSG_FROMCODELIST@ DB 'RMSG_FROMCODELIST', 00H ; `string'
CONST	ENDS
PUBLIC	?__empty_global_delete@@YAXPAX@Z		; __empty_global_delete
PUBLIC	?__empty_global_delete@@YAXPAXI@Z		; __empty_global_delete
PUBLIC	___local_stdio_printf_options
PUBLIC	___local_stdio_scanf_options
PUBLIC	_sprintf
PUBLIC	_sscanf
PUBLIC	??1CObject@@UAE@XZ				; CObject::~CObject
PUBLIC	??3CObject@@SGXPAX@Z				; CObject::operator delete
PUBLIC	?Serialize@CObject@@UAEXAAVCArchive@@@Z		; CObject::Serialize
PUBLIC	?AssertValid@CObject@@UBEXXZ			; CObject::AssertValid
PUBLIC	?Dump@CObject@@UBEXAAVCDumpContext@@@Z		; CObject::Dump
PUBLIC	?AtlThrowImpl@ATL@@YGXJ@Z			; ATL::AtlThrowImpl
PUBLIC	?_AtlRaiseException@ATL@@YAXKK@Z		; ATL::_AtlRaiseException
PUBLIC	?_AtlInitializeCriticalSectionEx@ATL@@YAHPAU_RTL_CRITICAL_SECTION@@KK@Z ; ATL::_AtlInitializeCriticalSectionEx
PUBLIC	??HATL@@YA?AV?$CStringT@DV?$StrTraitMFC_DLL@DV?$ChTraitsCRT@D@ATL@@@@@0@ABV10@0@Z ; ATL::operator+
PUBLIC	??HATL@@YA?AV?$CStringT@DV?$StrTraitMFC_DLL@DV?$ChTraitsCRT@D@ATL@@@@@0@ABV10@PBD@Z ; ATL::operator+
PUBLIC	??9ATL@@YA_NABV?$CStringT@DV?$StrTraitMFC_DLL@DV?$ChTraitsCRT@D@ATL@@@@@0@0@Z ; ATL::operator!=
PUBLIC	??1CGdiObject@@UAE@XZ				; CGdiObject::~CGdiObject
PUBLIC	??_GCGdiObject@@UAEPAXI@Z			; CGdiObject::`scalar deleting destructor'
PUBLIC	??1CBrush@@UAE@XZ				; CBrush::~CBrush
PUBLIC	??_GCBrush@@UAEPAXI@Z				; CBrush::`scalar deleting destructor'
PUBLIC	??1CBitmap@@UAE@XZ				; CBitmap::~CBitmap
PUBLIC	??_GCBitmap@@UAEPAXI@Z				; CBitmap::`scalar deleting destructor'
PUBLIC	??1CMenu@@UAE@XZ				; CMenu::~CMenu
PUBLIC	??_GCMenu@@UAEPAXI@Z				; CMenu::`scalar deleting destructor'
PUBLIC	?MoveWindow@CWnd@@QAEXPBUtagRECT@@H@Z		; CWnd::MoveWindow
PUBLIC	?DoDataExchange@CWnd@@MAEXPAVCDataExchange@@@Z	; CWnd::DoDataExchange
PUBLIC	?BeginModalState@CWnd@@UAEXXZ			; CWnd::BeginModalState
PUBLIC	?EndModalState@CWnd@@UAEXXZ			; CWnd::EndModalState
PUBLIC	??_GCStatic@@UAEPAXI@Z				; CStatic::`scalar deleting destructor'
PUBLIC	??_GCButton@@UAEPAXI@Z				; CButton::`scalar deleting destructor'
PUBLIC	?GetCount@CComboBox@@QBEHXZ			; CComboBox::GetCount
PUBLIC	?SetCurSel@CComboBox@@QAEHH@Z			; CComboBox::SetCurSel
PUBLIC	??_GCComboBox@@UAEPAXI@Z			; CComboBox::`scalar deleting destructor'
PUBLIC	??_GCSpinButtonCtrl@@UAEPAXI@Z			; CSpinButtonCtrl::`scalar deleting destructor'
PUBLIC	??1CRscDlg@@UAE@XZ				; CRscDlg::~CRscDlg
PUBLIC	??1stringdispid@CComTypeInfoHolder@ATL@@QAE@XZ	; ATL::CComTypeInfoHolder::stringdispid::~stringdispid
PUBLIC	??_Estringdispid@CComTypeInfoHolder@ATL@@QAEPAXI@Z ; ATL::CComTypeInfoHolder::stringdispid::`vector deleting destructor'
PUBLIC	??1_param@@QAE@XZ				; _param::~_param
PUBLIC	??1STINPUTCODEDATA2@@QAE@XZ			; STINPUTCODEDATA2::~STINPUTCODEDATA2
PUBLIC	?SetCurCodeNameToControl@CInputBarDlg@@QAEXV?$CStringT@DV?$StrTraitMFC_DLL@DV?$ChTraitsCRT@D@ATL@@@@@ATL@@@Z ; CInputBarDlg::SetCurCodeNameToControl
PUBLIC	?GetJongMokNameByCode@CInputBarDlg@@QAE?AV?$CStringT@DV?$StrTraitMFC_DLL@DV?$ChTraitsCRT@D@ATL@@@@@ATL@@V23@PBD@Z ; CInputBarDlg::GetJongMokNameByCode
PUBLIC	?GetMarketTypeFromTRCode@CInputBarDlg@@QAEHPBD@Z ; CInputBarDlg::GetMarketTypeFromTRCode
PUBLIC	?GetReplaySpeed@CInputBarDlg@@QAEJXZ		; CInputBarDlg::GetReplaySpeed
PUBLIC	?ReplayFail@CInputBarDlg@@QAEXXZ		; CInputBarDlg::ReplayFail
PUBLIC	?ReplayEnd@CInputBarDlg@@QAEXXZ			; CInputBarDlg::ReplayEnd
PUBLIC	?GetReplayStartTime@CInputBarDlg@@QAEJXZ	; CInputBarDlg::GetReplayStartTime
PUBLIC	?GetReplayDayBefore@CInputBarDlg@@QAEJXZ	; CInputBarDlg::GetReplayDayBefore
PUBLIC	?ChangeButtonColor@CInputBarDlg@@QAEXXZ		; CInputBarDlg::ChangeButtonColor
PUBLIC	?SetCurrentCode@CInputBarDlg@@QAEXV?$CStringT@DV?$StrTraitMFC_DLL@DV?$ChTraitsCRT@D@ATL@@@@@ATL@@@Z ; CInputBarDlg::SetCurrentCode
PUBLIC	?GetCurrentCode@CInputBarDlg@@QAE?AV?$CStringT@DV?$StrTraitMFC_DLL@DV?$ChTraitsCRT@D@ATL@@@@@ATL@@XZ ; CInputBarDlg::GetCurrentCode
PUBLIC	?InitBaseInfo@CInputBarDlg@@QAEXPAVCBaseDesk2@@H@Z ; CInputBarDlg::InitBaseInfo
PUBLIC	?SetKeyCodeChange@CInputBarDlg@@QAEXIJ@Z	; CInputBarDlg::SetKeyCodeChange
PUBLIC	?InitUpjongCodeCombo@CInputBarDlg@@QAEXI@Z	; CInputBarDlg::InitUpjongCodeCombo
PUBLIC	?ChangeMarket@CInputBarDlg@@QAEHIHH@Z		; CInputBarDlg::ChangeMarket
PUBLIC	??0CInputBarDlg@@QAE@PAVCWnd@@@Z		; CInputBarDlg::CInputBarDlg
PUBLIC	?HideLeftBarBtn@CInputBarDlg@@QAEXH@Z		; CInputBarDlg::HideLeftBarBtn
PUBLIC	?_DoSetPosCodeCodeName@CInputBarDlg@@QAEXAAVCRect@@@Z ; CInputBarDlg::_DoSetPosCodeCodeName
PUBLIC	?OnSelendokFOHistoryBtn@CInputBarDlg@@QAEXXZ	; CInputBarDlg::OnSelendokFOHistoryBtn
PUBLIC	?PreTranslateMessage@CInputBarDlg@@UAEHPAUtagMSG@@@Z ; CInputBarDlg::PreTranslateMessage
PUBLIC	?DoDataExchange@CInputBarDlg@@MAEXPAVCDataExchange@@@Z ; CInputBarDlg::DoDataExchange
PUBLIC	?WindowProc@CInputBarDlg@@MAEJIIJ@Z		; CInputBarDlg::WindowProc
PUBLIC	?LoadValue@CInputBarDlg@@IAEXXZ			; CInputBarDlg::LoadValue
PUBLIC	?SetExt@CInputBarDlg@@IAEXH@Z			; CInputBarDlg::SetExt
PUBLIC	?RemoveHistoryInfo@CInputBarDlg@@IAEXXZ		; CInputBarDlg::RemoveHistoryInfo
PUBLIC	?ChangeEditCode@CInputBarDlg@@IAEHHH@Z		; CInputBarDlg::ChangeEditCode
PUBLIC	?GetCodeNameAndGubun@CInputBarDlg@@IAE?AV?$CStringT@DV?$StrTraitMFC_DLL@DV?$ChTraitsCRT@D@ATL@@@@@ATL@@V23@@Z ; CInputBarDlg::GetCodeNameAndGubun
PUBLIC	?AddHistoryInfoListUpjong@CInputBarDlg@@IAEHV?$CStringT@DV?$StrTraitMFC_DLL@DV?$ChTraitsCRT@D@ATL@@@@@ATL@@0H@Z ; CInputBarDlg::AddHistoryInfoListUpjong
PUBLIC	?AddHistoryInfoListJongmok@CInputBarDlg@@IAEHV?$CStringT@DV?$StrTraitMFC_DLL@DV?$ChTraitsCRT@D@ATL@@@@@ATL@@0H@Z ; CInputBarDlg::AddHistoryInfoListJongmok
PUBLIC	?LoadInfoFutureList@CInputBarDlg@@IAEHXZ	; CInputBarDlg::LoadInfoFutureList
PUBLIC	?SetType@CInputBarDlg@@MAEXH@Z			; CInputBarDlg::SetType
PUBLIC	??0?$CList@PAVCHistory@@PAV1@@@QAE@H@Z		; CList<CHistory *,CHistory *>::CList<CHistory *,CHistory *>
PUBLIC	?RemoveHead@?$CList@PAVCHistory@@PAV1@@@QAEPAVCHistory@@XZ ; CList<CHistory *,CHistory *>::RemoveHead
PUBLIC	?AddTail@?$CList@PAVCHistory@@PAV1@@@QAEPAU__POSITION@@PAVCHistory@@@Z ; CList<CHistory *,CHistory *>::AddTail
PUBLIC	?RemoveAll@?$CList@PAVCHistory@@PAV1@@@QAEXXZ	; CList<CHistory *,CHistory *>::RemoveAll
PUBLIC	?RemoveAt@?$CList@PAVCHistory@@PAV1@@@QAEXPAU__POSITION@@@Z ; CList<CHistory *,CHistory *>::RemoveAt
PUBLIC	?NewNode@?$CList@PAVCHistory@@PAV1@@@IAEPAUCNode@1@PAU21@0@Z ; CList<CHistory *,CHistory *>::NewNode
PUBLIC	?FreeNode@?$CList@PAVCHistory@@PAV1@@@IAEXPAUCNode@1@@Z ; CList<CHistory *,CHistory *>::FreeNode
PUBLIC	??1?$CList@PAVCHistory@@PAV1@@@UAE@XZ		; CList<CHistory *,CHistory *>::~CList<CHistory *,CHistory *>
PUBLIC	?Serialize@?$CList@PAVCHistory@@PAV1@@@UAEXAAVCArchive@@@Z ; CList<CHistory *,CHistory *>::Serialize
PUBLIC	??_G?$CList@PAVCHistory@@PAV1@@@UAEPAXI@Z	; CList<CHistory *,CHistory *>::`scalar deleting destructor'
PUBLIC	?GetBitFromCodeInfoUpjong@CInputBarDlg@@IAEJXZ	; CInputBarDlg::GetBitFromCodeInfoUpjong
PUBLIC	?GetBitFromCodeInfoJongmok@CInputBarDlg@@IAEJXZ	; CInputBarDlg::GetBitFromCodeInfoJongmok
PUBLIC	?Init@CInputBarDlg@@MAEXXZ			; CInputBarDlg::Init
PUBLIC	?LoadIniValue@CInputBarDlg@@MAEXXZ		; CInputBarDlg::LoadIniValue
PUBLIC	?SaveIniValue@CInputBarDlg@@MAEXXZ		; CInputBarDlg::SaveIniValue
PUBLIC	?SetCodeName@CInputBarDlg@@MAEXHPBD0@Z		; CInputBarDlg::SetCodeName
PUBLIC	?GetEndDate@CInputBarDlg@@QAEHXZ		; CInputBarDlg::GetEndDate
PUBLIC	?SetReplayEachSec@CInputBarDlg@@QAEXV?$CStringT@DV?$StrTraitMFC_DLL@DV?$ChTraitsCRT@D@ATL@@@@@ATL@@@Z ; CInputBarDlg::SetReplayEachSec
PUBLIC	?SetReplayTotalSec@CInputBarDlg@@QAEXH@Z	; CInputBarDlg::SetReplayTotalSec
PUBLIC	?ChangeToolBarStatusForReplay@CInputBarDlg@@QAEXH@Z ; CInputBarDlg::ChangeToolBarStatusForReplay
PUBLIC	?SetEditZoomValue@CInputBarDlg@@QAEXV?$CStringT@DV?$StrTraitMFC_DLL@DV?$ChTraitsCRT@D@ATL@@@@@ATL@@HH@Z ; CInputBarDlg::SetEditZoomValue
PUBLIC	?ChangeToolBarForReplayChart@CInputBarDlg@@QAEXH@Z ; CInputBarDlg::ChangeToolBarForReplayChart
PUBLIC	?Replace_FutOptControl@CInputBarDlg@@QAEXXZ	; CInputBarDlg::Replace_FutOptControl
PUBLIC	?Replace_ForeignChartControl@CInputBarDlg@@QAEXXZ ; CInputBarDlg::Replace_ForeignChartControl
PUBLIC	?SetFocusCodeInput@CInputBarDlg@@QAEXXZ		; CInputBarDlg::SetFocusCodeInput
PUBLIC	?SaveChartType_IniFile@CInputBarDlg@@QAEXH@Z	; CInputBarDlg::SaveChartType_IniFile
PUBLIC	?SetCheckRevised@CInputBarDlg@@QAEXH@Z		; CInputBarDlg::SetCheckRevised
PUBLIC	?Enable_PeriodControl@CInputBarDlg@@QAEXH@Z	; CInputBarDlg::Enable_PeriodControl
PUBLIC	?SetLeftBarType@CInputBarDlg@@QAEXI@Z		; CInputBarDlg::SetLeftBarType
PUBLIC	?SetShowExtInputBarDlg@CInputBarDlg@@QAEXH@Z	; CInputBarDlg::SetShowExtInputBarDlg
PUBLIC	?UpdateBtNCbValue@CInputBarDlg@@QAEXXZ		; CInputBarDlg::UpdateBtNCbValue
PUBLIC	?SaveValue@CInputBarDlg@@QAEXXZ			; CInputBarDlg::SaveValue
PUBLIC	?GetTypeNumber@CInputBarDlg@@UAEJXZ		; CInputBarDlg::GetTypeNumber
PUBLIC	?SetMode@CInputBarDlg@@QAEXH@Z			; CInputBarDlg::SetMode
PUBLIC	?SetCodeInit@CInputBarDlg@@QAEXXZ		; CInputBarDlg::SetCodeInit
PUBLIC	?SetAllPosition@CInputBarDlg@@QAEXH@Z		; CInputBarDlg::SetAllPosition
PUBLIC	?SetViewCount@CInputBarDlg@@QAEXJ@Z		; CInputBarDlg::SetViewCount
PUBLIC	?GetViewCount@CInputBarDlg@@QAEXAAJ@Z		; CInputBarDlg::GetViewCount
PUBLIC	?GetAllCount@CInputBarDlg@@QAEHXZ		; CInputBarDlg::GetAllCount
PUBLIC	?ResetUnitValue@CInputBarDlg@@QAEXH@Z		; CInputBarDlg::ResetUnitValue
PUBLIC	?SetCodeDragAndDrop@CInputBarDlg@@QAEHV?$CStringT@DV?$StrTraitMFC_DLL@DV?$ChTraitsCRT@D@ATL@@@@@ATL@@H@Z ; CInputBarDlg::SetCodeDragAndDrop
PUBLIC	?GetLastHistoryCode@CInputBarDlg@@QAE?AV?$CStringT@DV?$StrTraitMFC_DLL@DV?$ChTraitsCRT@D@ATL@@@@@ATL@@H@Z ; CInputBarDlg::GetLastHistoryCode
PUBLIC	?SetLastHistoryCode@CInputBarDlg@@QAEXXZ	; CInputBarDlg::SetLastHistoryCode
PUBLIC	?GetCurrentMode@CInputBarDlg@@QAEHHH@Z		; CInputBarDlg::GetCurrentMode
PUBLIC	?SetShareCodeChanged@CInputBarDlg@@QAEXH@Z	; CInputBarDlg::SetShareCodeChanged
PUBLIC	?GetChartViewType@CInputBarDlg@@QAEHAAVCStringList@@@Z ; CInputBarDlg::GetChartViewType
PUBLIC	?SaveInputBar@CInputBarDlg@@QAEXXZ		; CInputBarDlg::SaveInputBar
PUBLIC	?RequestReplayMode@CInputBarDlg@@QAEXXZ		; CInputBarDlg::RequestReplayMode
PUBLIC	?InitChartMulitItem@CInputBarDlg@@QAEXPAU_ST_SELCHART@@@Z ; CInputBarDlg::InitChartMulitItem
PUBLIC	?GetReplayChartMode@CInputBarDlg@@QAEHXZ	; CInputBarDlg::GetReplayChartMode
PUBLIC	?SetReplayChartMode@CInputBarDlg@@QAEXH@Z	; CInputBarDlg::SetReplayChartMode
PUBLIC	?SetMultiTotalCount@CInputBarDlg@@QAEXH@Z	; CInputBarDlg::SetMultiTotalCount
PUBLIC	?SetMultiChartItemMode@CInputBarDlg@@QAEXXZ	; CInputBarDlg::SetMultiChartItemMode
PUBLIC	?EnableRequestMoreButton@CInputBarDlg@@QAEXH@Z	; CInputBarDlg::EnableRequestMoreButton
PUBLIC	?ChangeSkinColor@CInputBarDlg@@QAEXXZ		; CInputBarDlg::ChangeSkinColor
PUBLIC	?VerifySettingData@CInputBarDlg@@QAEXAAJ@Z	; CInputBarDlg::VerifySettingData
PUBLIC	?CreatedChartMng@CInputBarDlg@@UAEXXZ		; CInputBarDlg::CreatedChartMng
PUBLIC	?RecievedChartMng@CInputBarDlg@@UAEXXZ		; CInputBarDlg::RecievedChartMng
PUBLIC	?MoveCodeInputCtrl@CInputBarDlg@@UAEXXZ		; CInputBarDlg::MoveCodeInputCtrl
PUBLIC	?GetMarketStrToIndex@CInputBarDlg@@QAEHV?$CStringT@DV?$StrTraitMFC_DLL@DV?$ChTraitsCRT@D@ATL@@@@@ATL@@@Z ; CInputBarDlg::GetMarketStrToIndex
PUBLIC	?GetMarketIdxToCBIdx@CInputBarDlg@@QAEHH@Z	; CInputBarDlg::GetMarketIdxToCBIdx
PUBLIC	?InitMarketCombo@CInputBarDlg@@QAEHXZ		; CInputBarDlg::InitMarketCombo
PUBLIC	?OnCommand@CInputBarDlg@@MAEHIJ@Z		; CInputBarDlg::OnCommand
PUBLIC	?_DoChangeCodeCtrlUnit@CInputBarDlg@@IAEXHPBD@Z	; CInputBarDlg::_DoChangeCodeCtrlUnit
PUBLIC	?_DoCheckMarketTypeFromScreen@CInputBarDlg@@IAEXAAH@Z ; CInputBarDlg::_DoCheckMarketTypeFromScreen
PUBLIC	?_DoPreCheckCodeCtrlUnit@CInputBarDlg@@IAEHXZ	; CInputBarDlg::_DoPreCheckCodeCtrlUnit
PUBLIC	?_DoReplyResourceCheck@CInputBarDlg@@IAEXXZ	; CInputBarDlg::_DoReplyResourceCheck
PUBLIC	?Init_Size@CInputBarDlg@@IAEXXZ			; CInputBarDlg::Init_Size
PUBLIC	?OnCancel@CInputBarDlg@@MAEXXZ			; CInputBarDlg::OnCancel
PUBLIC	?OnOK@CInputBarDlg@@MAEXXZ			; CInputBarDlg::OnOK
PUBLIC	?OnInitDialog@CInputBarDlg@@MAEHXZ		; CInputBarDlg::OnInitDialog
PUBLIC	?OnSize@CInputBarDlg@@IAEXIHH@Z			; CInputBarDlg::OnSize
PUBLIC	?OnBtleft@CInputBarDlg@@IAEXXZ			; CInputBarDlg::OnBtleft
PUBLIC	?OnBtright@CInputBarDlg@@IAEXXZ			; CInputBarDlg::OnBtright
PUBLIC	?OnChkday@CInputBarDlg@@IAEXXZ			; CInputBarDlg::OnChkday
PUBLIC	?OnChkweek@CInputBarDlg@@IAEXXZ			; CInputBarDlg::OnChkweek
PUBLIC	?OnChkmonth@CInputBarDlg@@IAEXXZ		; CInputBarDlg::OnChkmonth
PUBLIC	?OnChkminute@CInputBarDlg@@IAEXXZ		; CInputBarDlg::OnChkminute
PUBLIC	?OnChksec@CInputBarDlg@@IAEXXZ			; CInputBarDlg::OnChksec
PUBLIC	?OnChktick@CInputBarDlg@@IAEXXZ			; CInputBarDlg::OnChktick
PUBLIC	?OnDeltaposSpinzoomvalue@CInputBarDlg@@IAEXPAUtagNMHDR@@PAJ@Z ; CInputBarDlg::OnDeltaposSpinzoomvalue
PUBLIC	?OnBtrequestdatmore@CInputBarDlg@@IAEXXZ	; CInputBarDlg::OnBtrequestdatmore
PUBLIC	?OnDestroy@CInputBarDlg@@IAEXXZ			; CInputBarDlg::OnDestroy
PUBLIC	?OnBtinc@CInputBarDlg@@IAEXXZ			; CInputBarDlg::OnBtinc
PUBLIC	?OnCtlColor@CInputBarDlg@@IAEPAUHBRUSH__@@PAVCDC@@PAVCWnd@@I@Z ; CInputBarDlg::OnCtlColor
PUBLIC	?OnBtresetperiod@CInputBarDlg@@IAEXXZ		; CInputBarDlg::OnBtresetperiod
PUBLIC	?OnRButtonUp@CInputBarDlg@@IAEXIVCPoint@@@Z	; CInputBarDlg::OnRButtonUp
PUBLIC	?OnChkextbar@CInputBarDlg@@IAEXXZ		; CInputBarDlg::OnChkextbar
PUBLIC	?OnBtinitial2@CInputBarDlg@@IAEXXZ		; CInputBarDlg::OnBtinitial2
PUBLIC	?OnChkshowscale2@CInputBarDlg@@IAEXXZ		; CInputBarDlg::OnChkshowscale2
PUBLIC	?OnChkyear@CInputBarDlg@@IAEXXZ			; CInputBarDlg::OnChkyear
PUBLIC	?OnDeltaposSpinDatecnt@CInputBarDlg@@IAEXPAUtagNMHDR@@PAJ@Z ; CInputBarDlg::OnDeltaposSpinDatecnt
PUBLIC	?OnChkRevised@CInputBarDlg@@IAEXXZ		; CInputBarDlg::OnChkRevised
PUBLIC	?OnSelendokCmbCharttype@CInputBarDlg@@IAEXXZ	; CInputBarDlg::OnSelendokCmbCharttype
PUBLIC	?OnButton1@CInputBarDlg@@IAEXXZ			; CInputBarDlg::OnButton1
PUBLIC	?OnChkForeignMainCode@CInputBarDlg@@IAEXI@Z	; CInputBarDlg::OnChkForeignMainCode
PUBLIC	?OnBtnForeignSendtr@CInputBarDlg@@IAEXXZ	; CInputBarDlg::OnBtnForeignSendtr
PUBLIC	?OnSelchangeCmbType@CInputBarDlg@@IAEXXZ	; CInputBarDlg::OnSelchangeCmbType
PUBLIC	?OnBtnPlayPause@CInputBarDlg@@IAEXXZ		; CInputBarDlg::OnBtnPlayPause
PUBLIC	?OnBtnStopReplay@CInputBarDlg@@IAEXXZ		; CInputBarDlg::OnBtnStopReplay
PUBLIC	?OnSelchangeCmbSpeed@CInputBarDlg@@IAEXXZ	; CInputBarDlg::OnSelchangeCmbSpeed
PUBLIC	?OnSetfocusEditperiod@CInputBarDlg@@IAEXXZ	; CInputBarDlg::OnSetfocusEditperiod
PUBLIC	?OnChangeEditperiod@CInputBarDlg@@IAEXXZ	; CInputBarDlg::OnChangeEditperiod
PUBLIC	?OnChkfirst@CInputBarDlg@@IAEXXZ		; CInputBarDlg::OnChkfirst
PUBLIC	?OnChksecond@CInputBarDlg@@IAEXXZ		; CInputBarDlg::OnChksecond
PUBLIC	?OnChkthird@CInputBarDlg@@IAEXXZ		; CInputBarDlg::OnChkthird
PUBLIC	?OnChkfourth@CInputBarDlg@@IAEXXZ		; CInputBarDlg::OnChkfourth
PUBLIC	?OnSelchangeCmbMin@CInputBarDlg@@IAEXXZ		; CInputBarDlg::OnSelchangeCmbMin
PUBLIC	?OnSelchangeCmbHour@CInputBarDlg@@IAEXXZ	; CInputBarDlg::OnSelchangeCmbHour
PUBLIC	?OnSelchangeCmbDay@CInputBarDlg@@IAEXXZ		; CInputBarDlg::OnSelchangeCmbDay
PUBLIC	?OnTimer@CInputBarDlg@@IAEXI@Z			; CInputBarDlg::OnTimer
PUBLIC	?OnSelchangeCbmarket@CInputBarDlg@@IAEXXZ	; CInputBarDlg::OnSelchangeCbmarket
PUBLIC	?OnBtperiod@CInputBarDlg@@IAEXXZ		; CInputBarDlg::OnBtperiod
PUBLIC	?OnBtsetenvir@CInputBarDlg@@IAEXXZ		; CInputBarDlg::OnBtsetenvir
PUBLIC	?OnBtmultichart@CInputBarDlg@@IAEXXZ		; CInputBarDlg::OnBtmultichart
PUBLIC	?OnSelchangeCodeInput@CInputBarDlg@@IAEXXZ	; CInputBarDlg::OnSelchangeCodeInput
PUBLIC	?OnBtSaveChart@CInputBarDlg@@IAEXXZ		; CInputBarDlg::OnBtSaveChart
PUBLIC	?OnEraseBkgnd@CInputBarDlg@@IAEHPAVCDC@@@Z	; CInputBarDlg::OnEraseBkgnd
PUBLIC	?OnPaint@CInputBarDlg@@IAEXXZ			; CInputBarDlg::OnPaint
PUBLIC	?OnCheckDow@CInputBarDlg@@IAEXXZ		; CInputBarDlg::OnCheckDow
PUBLIC	?OnCheckNasdaq@CInputBarDlg@@IAEXXZ		; CInputBarDlg::OnCheckNasdaq
PUBLIC	?OnCheckNikei@CInputBarDlg@@IAEXXZ		; CInputBarDlg::OnCheckNikei
PUBLIC	?OnCheckSp500@CInputBarDlg@@IAEXXZ		; CInputBarDlg::OnCheckSp500
PUBLIC	?OnCheckTwd@CInputBarDlg@@IAEXXZ		; CInputBarDlg::OnCheckTwd
PUBLIC	?OnChkQueryOpt@CInputBarDlg@@IAEXXZ		; CInputBarDlg::OnChkQueryOpt
PUBLIC	?OnBtJumun@CInputBarDlg@@IAEXXZ			; CInputBarDlg::OnBtJumun
PUBLIC	?OnBtnGwansim@CInputBarDlg@@IAEXXZ		; CInputBarDlg::OnBtnGwansim
PUBLIC	?OnSelBasedlgPopuplistctrl@CInputBarDlg@@IAEJIJ@Z ; CInputBarDlg::OnSelBasedlgPopuplistctrl
PUBLIC	?OnFromCodeList@CInputBarDlg@@IAEJIJ@Z		; CInputBarDlg::OnFromCodeList
PUBLIC	?GetThisMessageMap@CInputBarDlg@@KGPBUAFX_MSGMAP@@XZ ; CInputBarDlg::GetThisMessageMap
PUBLIC	?GetMessageMap@CInputBarDlg@@MBEPBUAFX_MSGMAP@@XZ ; CInputBarDlg::GetMessageMap
PUBLIC	?OnEnSetfocusEditFocus@CInputBarDlg@@QAEXXZ	; CInputBarDlg::OnEnSetfocusEditFocus
PUBLIC	?DoSelchangeCodeInput@CInputBarDlg@@QAEXXZ	; CInputBarDlg::DoSelchangeCodeInput
PUBLIC	?GetOldFututureCodeName@CInputBarDlg@@QAEHPBDAAV?$CStringT@DV?$StrTraitMFC_DLL@DV?$ChTraitsCRT@D@ATL@@@@@ATL@@@Z ; CInputBarDlg::GetOldFututureCodeName
PUBLIC	?GetComboMarket@CInputBarDlg@@QAEHXZ		; CInputBarDlg::GetComboMarket
PUBLIC	?SetChkType@CInputBarDlg@@QAEXD@Z		; CInputBarDlg::SetChkType
PUBLIC	?EnableQueryOpt@CInputBarDlg@@QAEXH@Z		; CInputBarDlg::EnableQueryOpt
PUBLIC	?SetQueryOpt@CInputBarDlg@@QAEXH@Z		; CInputBarDlg::SetQueryOpt
PUBLIC	?SetInitSymbol@CInputBarDlg@@QAEXXZ		; CInputBarDlg::SetInitSymbol
PUBLIC	?ParsingSymbol@CInputBarDlg@@QAEXPAD@Z		; CInputBarDlg::ParsingSymbol
PUBLIC	?SendSymbol@CInputBarDlg@@QAEXV?$CStringT@DV?$StrTraitMFC_DLL@DV?$ChTraitsCRT@D@ATL@@@@@ATL@@@Z ; CInputBarDlg::SendSymbol
PUBLIC	??1CInputBarDlg@@UAE@XZ				; CInputBarDlg::~CInputBarDlg
PUBLIC	??_GCInputBarDlg@@UAEPAXI@Z			; CInputBarDlg::`scalar deleting destructor'
PUBLIC	??1CSetCycleDlg@@UAE@XZ				; CSetCycleDlg::~CSetCycleDlg
PUBLIC	??$SerializeElements@PAVCHistory@@@@YGXAAVCArchive@@PAPAVCHistory@@H@Z ; SerializeElements<CHistory *>
PUBLIC	?_OptionsStorage@?1??__local_stdio_printf_options@@9@4_KA ; `__local_stdio_printf_options'::`2'::_OptionsStorage
PUBLIC	?_OptionsStorage@?1??__local_stdio_scanf_options@@9@4_KA ; `__local_stdio_scanf_options'::`2'::_OptionsStorage
PUBLIC	??_R0PAVCException@@@8				; CException * `RTTI Type Descriptor'
PUBLIC	??_C@_02DPKJAMEF@?$CFd@				; `string'
PUBLIC	?_AtlWinModule@ATL@@3VCAtlWinModule@1@A		; ATL::_AtlWinModule
PUBLIC	??_C@_00CNPNBAHC@@				; `string'
PUBLIC	??_7CGdiObject@@6B@				; CGdiObject::`vftable'
PUBLIC	??_7CBrush@@6B@					; CBrush::`vftable'
PUBLIC	??_7CBitmap@@6B@				; CBitmap::`vftable'
PUBLIC	??_7CMenu@@6B@					; CMenu::`vftable'
PUBLIC	??_7CStatic@@6B@				; CStatic::`vftable'
PUBLIC	??_7CButton@@6B@				; CButton::`vftable'
PUBLIC	??_7CComboBox@@6B@				; CComboBox::`vftable'
PUBLIC	??_C@_0HD@JJCHHHNK@C?3?2Program?5Files?5?$CIx86?$CJ?2Microsof@ ; `string'
PUBLIC	??_C@_0BP@OIEOKIDM@Exception?5thrown?5in?5destructor@ ; `string'
PUBLIC	??_C@_0BB@HBOOMJBF@?$CFTs?5?$CI?$CFTs?3?$CFd?$CJ?6?$CFTs@ ; `string'
PUBLIC	??_C@_0N@OMEMOKLE@?$CFTs?5?$CI?$CFTs?3?$CFd?$CJ@ ; `string'
PUBLIC	??_7CSpinButtonCtrl@@6B@			; CSpinButtonCtrl::`vftable'
PUBLIC	??_C@_01HIHLOKLC@1@				; `string'
PUBLIC	??_C@_02DKCKIIND@?$CFs@				; `string'
PUBLIC	??_C@_0M@CBBNGGHM@PcTrMng?4dll@			; `string'
PUBLIC	??_C@_0P@IDMAJEGN@HANAROPCTRMAIN@		; `string'
PUBLIC	??_C@_06NDLAHCHE@?$CFs?$CF08X@			; `string'
PUBLIC	??_C@_02EMFKHFLK@?$CFX@				; `string'
PUBLIC	??_C@_01GBGANLPD@0@				; `string'
PUBLIC	??_R0?AVCObject@@@8				; CObject `RTTI Type Descriptor'
PUBLIC	??_R3CObject@@8					; CObject::`RTTI Class Hierarchy Descriptor'
PUBLIC	??_R2CObject@@8					; CObject::`RTTI Base Class Array'
PUBLIC	??_R1A@?0A@EA@CObject@@8			; CObject::`RTTI Base Class Descriptor at (0,-1,0,64)'
PUBLIC	??_R4CGdiObject@@6B@				; CGdiObject::`RTTI Complete Object Locator'
PUBLIC	??_R0?AVCGdiObject@@@8				; CGdiObject `RTTI Type Descriptor'
PUBLIC	??_R3CGdiObject@@8				; CGdiObject::`RTTI Class Hierarchy Descriptor'
PUBLIC	??_R2CGdiObject@@8				; CGdiObject::`RTTI Base Class Array'
PUBLIC	??_R1A@?0A@EA@CGdiObject@@8			; CGdiObject::`RTTI Base Class Descriptor at (0,-1,0,64)'
PUBLIC	??_R4CBrush@@6B@				; CBrush::`RTTI Complete Object Locator'
PUBLIC	??_R0?AVCBrush@@@8				; CBrush `RTTI Type Descriptor'
PUBLIC	??_R3CBrush@@8					; CBrush::`RTTI Class Hierarchy Descriptor'
PUBLIC	??_R2CBrush@@8					; CBrush::`RTTI Base Class Array'
PUBLIC	??_R1A@?0A@EA@CBrush@@8				; CBrush::`RTTI Base Class Descriptor at (0,-1,0,64)'
PUBLIC	??_R4CBitmap@@6B@				; CBitmap::`RTTI Complete Object Locator'
PUBLIC	??_R0?AVCBitmap@@@8				; CBitmap `RTTI Type Descriptor'
PUBLIC	??_R3CBitmap@@8					; CBitmap::`RTTI Class Hierarchy Descriptor'
PUBLIC	??_R2CBitmap@@8					; CBitmap::`RTTI Base Class Array'
PUBLIC	??_R1A@?0A@EA@CBitmap@@8			; CBitmap::`RTTI Base Class Descriptor at (0,-1,0,64)'
PUBLIC	??_R4CMenu@@6B@					; CMenu::`RTTI Complete Object Locator'
PUBLIC	??_R0?AVCMenu@@@8				; CMenu `RTTI Type Descriptor'
PUBLIC	??_R3CMenu@@8					; CMenu::`RTTI Class Hierarchy Descriptor'
PUBLIC	??_R2CMenu@@8					; CMenu::`RTTI Base Class Array'
PUBLIC	??_R1A@?0A@EA@CMenu@@8				; CMenu::`RTTI Base Class Descriptor at (0,-1,0,64)'
PUBLIC	??_R4CStatic@@6B@				; CStatic::`RTTI Complete Object Locator'
PUBLIC	??_R0?AVCStatic@@@8				; CStatic `RTTI Type Descriptor'
PUBLIC	??_R3CStatic@@8					; CStatic::`RTTI Class Hierarchy Descriptor'
PUBLIC	??_R2CStatic@@8					; CStatic::`RTTI Base Class Array'
PUBLIC	??_R1A@?0A@EA@CStatic@@8			; CStatic::`RTTI Base Class Descriptor at (0,-1,0,64)'
PUBLIC	??_R1A@?0A@EA@CWnd@@8				; CWnd::`RTTI Base Class Descriptor at (0,-1,0,64)'
PUBLIC	??_R0?AVCWnd@@@8				; CWnd `RTTI Type Descriptor'
PUBLIC	??_R3CWnd@@8					; CWnd::`RTTI Class Hierarchy Descriptor'
PUBLIC	??_R2CWnd@@8					; CWnd::`RTTI Base Class Array'
PUBLIC	??_R1A@?0A@EA@CCmdTarget@@8			; CCmdTarget::`RTTI Base Class Descriptor at (0,-1,0,64)'
PUBLIC	??_R0?AVCCmdTarget@@@8				; CCmdTarget `RTTI Type Descriptor'
PUBLIC	??_R3CCmdTarget@@8				; CCmdTarget::`RTTI Class Hierarchy Descriptor'
PUBLIC	??_R2CCmdTarget@@8				; CCmdTarget::`RTTI Base Class Array'
PUBLIC	??_R4CButton@@6B@				; CButton::`RTTI Complete Object Locator'
PUBLIC	??_R0?AVCButton@@@8				; CButton `RTTI Type Descriptor'
PUBLIC	??_R3CButton@@8					; CButton::`RTTI Class Hierarchy Descriptor'
PUBLIC	??_R2CButton@@8					; CButton::`RTTI Base Class Array'
PUBLIC	??_R1A@?0A@EA@CButton@@8			; CButton::`RTTI Base Class Descriptor at (0,-1,0,64)'
PUBLIC	??_R4CComboBox@@6B@				; CComboBox::`RTTI Complete Object Locator'
PUBLIC	??_R0?AVCComboBox@@@8				; CComboBox `RTTI Type Descriptor'
PUBLIC	??_R3CComboBox@@8				; CComboBox::`RTTI Class Hierarchy Descriptor'
PUBLIC	??_R2CComboBox@@8				; CComboBox::`RTTI Base Class Array'
PUBLIC	??_R1A@?0A@EA@CComboBox@@8			; CComboBox::`RTTI Base Class Descriptor at (0,-1,0,64)'
PUBLIC	??_R1A@?0A@EA@CDialog@@8			; CDialog::`RTTI Base Class Descriptor at (0,-1,0,64)'
PUBLIC	??_R0?AVCDialog@@@8				; CDialog `RTTI Type Descriptor'
PUBLIC	??_R3CDialog@@8					; CDialog::`RTTI Class Hierarchy Descriptor'
PUBLIC	??_R2CDialog@@8					; CDialog::`RTTI Base Class Array'
PUBLIC	??_R4CSpinButtonCtrl@@6B@			; CSpinButtonCtrl::`RTTI Complete Object Locator'
PUBLIC	??_R0?AVCSpinButtonCtrl@@@8			; CSpinButtonCtrl `RTTI Type Descriptor'
PUBLIC	??_R3CSpinButtonCtrl@@8				; CSpinButtonCtrl::`RTTI Class Hierarchy Descriptor'
PUBLIC	??_R2CSpinButtonCtrl@@8				; CSpinButtonCtrl::`RTTI Base Class Array'
PUBLIC	??_R1A@?0A@EA@CSpinButtonCtrl@@8		; CSpinButtonCtrl::`RTTI Base Class Descriptor at (0,-1,0,64)'
PUBLIC	??_7?$CList@PAVCHistory@@PAV1@@@6B@		; CList<CHistory *,CHistory *>::`vftable'
PUBLIC	??_7CInputBarDlg@@6B@				; CInputBarDlg::`vftable'
PUBLIC	??_C@_0FJ@LLNFAMBB@?$LN?C?$LN?$LK?E?$NL?$LI?$KO?$LM?R?$LN?$LK?$LA?$KB?5?$LK?N?A?$LH?G?O?$LP?$KJ?5?H?$KN?$LI?i?$MA?$LL?5@ ; `string'
PUBLIC	??_C@_09POEKPOBJ@OldFuture@			; `string'
PUBLIC	??_C@_04LLNILLHO@?$LK?$KP?$LA?f@		; `string'
PUBLIC	??_C@_04GCBAIGJG@?$LK?P?G?R@			; `string'
PUBLIC	??_C@_04JLBNEAJO@?C?$NP?$LA?$KB@		; `string'
PUBLIC	??_C@_04CMGKGMOP@?A?$NP?C?$LI@			; `string'
PUBLIC	??_C@_04KLAEBMAO@?$LK?$LJ?$LB?b@		; `string'
PUBLIC	??_C@_0BD@CMCCCNBF@HANAROIGATEMANAGER@		; `string'
PUBLIC	??_C@_0L@ELCBJICN@?E?G?H?$KN?$LI?i?$LP?$KN?$LB?b@ ; `string'
PUBLIC	??_C@_0BB@KOLKMFBE@?$LF?$KF?$MA?L?E?$LI?C?$NP?$LA?$KB?$LK?N?$LI?$KD?$LB?b@ ; `string'
PUBLIC	??_C@_0O@KMDLLDML@?$MA?z?$MA?e?1?$LK?R?$LH?$KP?$LP?$MA?$LB?b@ ; `string'
PUBLIC	??_C@_02NNHDHLCM@?$MA?O@			; `string'
PUBLIC	??_C@_02EHLBLIAD@?A?V@				; `string'
PUBLIC	??_C@_02LMCMFDE@?$LP?y@				; `string'
PUBLIC	??_C@_02KLOOPHMK@?$LD?b@			; `string'
PUBLIC	??_C@_02EJEPJIDE@?$LK?P@			; `string'
PUBLIC	??_C@_02KCECDBDA@?C?J@				; `string'
PUBLIC	??_C@_02MEPHBMOK@?F?$LN@			; `string'
PUBLIC	??_C@_01BMBHCPLG@5@				; `string'
PUBLIC	??_C@_02PKFBJPLJ@10@				; `string'
PUBLIC	??_C@_02IHCGGLPM@15@				; `string'
PUBLIC	??_C@_04BEJMHLDE@?A?V?$LJ?$KO@			; `string'
PUBLIC	??_C@_08OMOHNJKO@?$LA?$PM?$LN?I?$LF?n?$LH?O@	; `string'
PUBLIC	??_C@_01FDFGLJHB@2@				; `string'
PUBLIC	??_C@_04KOACHJEN@Type@				; `string'
PUBLIC	??_C@_04JDPKJLKG@0000@				; `string'
PUBLIC	??_C@_09MOFKPBPG@TickValue@			; `string'
PUBLIC	??_C@_08DFLJKGLA@SecValue@			; `string'
PUBLIC	??_C@_08GHMDELNM@MinValue@			; `string'
PUBLIC	??_C@_08LKPMEEHC@DayValue@			; `string'
PUBLIC	??_C@_0N@GPHBBABK@LoadSaveCode@			; `string'
PUBLIC	??_C@_08HAHCMMAH@InputBar@			; `string'
PUBLIC	??_C@_07CLAOOEJF@Revised@			; `string'
PUBLIC	??_C@_03GGEOLGBL@Log@				; `string'
PUBLIC	??_C@_0L@FHMOAJKA@?E?G?H?$KN?$LI?i?$LE?$NN?$LB?b@ ; `string'
PUBLIC	??_C@_08FDIJDPJM@?$CFY?1?$CFm?1?$CFd@		; `string'
PUBLIC	??_C@_08IPHAHKJC@NOCHANGE@			; `string'
PUBLIC	??_C@_02HAOIJKIC@?$CFc@				; `string'
PUBLIC	??_C@_0BM@JICJIPBM@?A?$LG?H?$LI?$LA?$KB?$LE?I?G?Q?5?C?J?$LK?$MA?$MA?L?5?$LO?F?$LE?U?$LE?O?$LE?Y?4@ ; `string'
PUBLIC	??_C@_0CO@PIHPPGHH@?C?J?$LK?$MA?5?$LF?$KF?$MA?L?E?M?$LE?B?530?C?J?$LK?$MA?$LB?n?A?v?$LI?$LI?5?A?$LG?H?$LI@ ; `string'
PUBLIC	??_C@_0L@LBDLBPDK@Day?5Button@			; `string'
PUBLIC	??_C@_0L@BBAAEOPD@Min?5Button@			; `string'
PUBLIC	??_C@_0L@GPDKGOH@Sec?5Button@			; `string'
PUBLIC	??_C@_0M@FFNPHBNA@Tick?5Button@			; `string'
PUBLIC	??_C@_09OJDBNEOO@CntInView@			; `string'
PUBLIC	??_C@_0BO@FLGCEHLC@00000110000011010000000000000@ ; `string'
PUBLIC	??_C@_0BO@PBKECOPN@11000000000000000000000000000@ ; `string'
PUBLIC	??_C@_0BB@GKDGIIFF@SaveJipyoOneFile@		; `string'
PUBLIC	??_C@_0BD@MCKIPHBO@ShowExtInputBarDlg@		; `string'
PUBLIC	??_C@_05MPDBFDHF@Frame@				; `string'
PUBLIC	??_C@_08PJJEGACN@?$CF?915?415s@			; `string'
PUBLIC	??_C@_07GFIGONA@JMASTER@			; `string'
PUBLIC	??_C@_07MKPCGOEO@KMASTER@			; `string'
PUBLIC	??_C@_07KDMDENFH@UMASTER@			; `string'
PUBLIC	??_C@_0BA@NPMKMELP@FMASTER?3PMASTER@		; `string'
PUBLIC	??_C@_06GEKNBBDK@000000@			; `string'
PUBLIC	??_C@_02PPKAJPJL@?$CG?$CG@			; `string'
PUBLIC	??_C@_0CG@MLCLGLFF@?$LK?$LJ?$LB?b?5?$LI?p?$LF?e?$LH?N?5?$MA?$PM?H?$KP?G?O?$LE?B?$LF?$KF?5?$LN?G?F?P?G?O?$LP?$LE@ ; `string'
PUBLIC	??_C@_03BAAJCDMO@800@				; `string'
PUBLIC	??_C@_0BL@EJDAIAKJ@?C?V?$LE?k?$LA?$KB?$LE?I?G?Q?5?$LA?$KK?$MA?$LK?5360?$MA?T?$LE?O?$LE?Y?4@ ; `string'
PUBLIC	??_C@_03MDIFNIHN@360@				; `string'
PUBLIC	??_C@_0BJ@PAPHKBBP@?C?V?$LM?R?$LA?$KB?$LE?I?G?Q?5?$LA?$KK?$MA?$LK?51?$MA?T?$LE?O?$LE?Y?4@ ; `string'
PUBLIC	??_C@_0N@HALPONHC@?$LL?s?$LE?$NM?E?x?$LJ?Y?C?$OA?$LM?R@ ; `string'
PUBLIC	??_C@_0N@HMDDCPGP@?$LL?s?$LE?$NM?E?x?$LJ?Y?H?$KO?$LE?k@ ; `string'
PUBLIC	??_C@_04LJCLIJBJ@?$LM?$LD?A?$KE@		; `string'
PUBLIC	??_C@_08CHLAEBHP@?$CF02d?$CF02d@		; `string'
PUBLIC	??_C@_09MIEAAIKL@HourValue@			; `string'
PUBLIC	??_C@_05ELNNMDND@d1010@				; `string'
PUBLIC	??_C@_05FCMGPCJC@d1011@				; `string'
PUBLIC	??_C@_05CPLBAGNH@d1014@				; `string'
PUBLIC	??_C@_05HJOLKBFB@d1012@				; `string'
PUBLIC	??_C@_05GAPAJABA@d1013@				; `string'
PUBLIC	??_C@_05DMBEOOBE@d0515@				; `string'
PUBLIC	??_C@_0CP@HFINAPKI@?$LK?$LJ?$LB?b?B?w?F?$KO?$LE?B?5?$LP?x?$LE?$NM?$MA?$KH?5?B?w?F?$KO?$MA?O?$LG?$KH?$LI?$LI?5?$LN?G@ ; `string'
PUBLIC	??_C@_0CK@PPJEPEJC@?$LK?$LJ?$LB?b?$LB?b?$LE?I?$MA?$LK?5?A?V?$LN?D?$LA?z?5?$LM?$LB?$LP?I?5?A?$LO?$LI?q?$LI?$LI?5?$LA@ ; `string'
PUBLIC	??_C@_0CJ@BDIGEPHM@?$LK?$LJ?$LB?b?B?w?F?$KO?$LE?B?5?G?Q?5?A?$LO?$LI?q?$CI1X1?$CJ?$LP?$KB?$LM?$KN?$LI?$LI?5?$LA@ ; `string'
PUBLIC	??_C@_08LEDEEJEF@00000000@			; `string'
PUBLIC	??_C@_02MEGIOJNB@?$KC?$LK@			; `string'
PUBLIC	??_C@_02NONPIBCD@?$HM?$HM@			; `string'
PUBLIC	??_C@_07OBOGEKCK@WMASTER@			; `string'
PUBLIC	??_C@_07FBPHHLJP@FMASTER@			; `string'
PUBLIC	??_C@_07OLCDEDDD@PMASTER@			; `string'
PUBLIC	??_C@_08IHKFPFAE@FRMASTER@			; `string'
PUBLIC	??_C@_08GABLNBPO@FOMASTER@			; `string'
PUBLIC	??_C@_0BA@KIJOCLMM@COMMOCITYMASTER@		; `string'
PUBLIC	??_C@_03GOIFLICK@120@				; `string'
PUBLIC	??_C@_04FCMNJMCO@?$CFd?$CF?$CF@			; `string'
PUBLIC	??_C@_0CD@GMFOONLM@?$LK?$LJ?$LB?b?5?$LI?p?$LF?e?$LP?$KB?$LM?$KN?$LE?B?5?$LK?$KP?$LA?f?$MA?L?5?$LK?R?$LA?$KB?G?U?$LE?O@ ; `string'
PUBLIC	??_C@_04IMIHFAMF@?A?V?$LN?D@			; `string'
PUBLIC	??_C@_08CKONLPCE@?$LA?$PM?$LN?I?$LB?W?$LH?l@	; `string'
PUBLIC	??_C@_04JNBOBBCC@?$LM?$LB?$LP?I@		; `string'
PUBLIC	??_C@_09BJLLGFJL@?$LM?$LB?$LJ?$LA?1?$LP?I?$LM?G@ ; `string'
PUBLIC	??_C@_04NPANLHEB@?A?V?$LM?$LB@			; `string'
PUBLIC	??_C@_04LKDMKGND@?$LL?s?G?$LA@			; `string'
PUBLIC	??_C@_08OPOALDAF@?$LL?s?G?$LA?$LM?$LB?$LJ?$LA@	; `string'
PUBLIC	??_C@_03MMKGDKGA@001@				; `string'
PUBLIC	??_C@_07BFPKBOOB@DJI?$EADJC@			; `string'
PUBLIC	??_C@_06EJBADOFI@?2Icss?2@			; `string'
PUBLIC	??_C@_0BL@KPCEBCDH@DayWeekMonth_ChartInfo?4dat@	; `string'
PUBLIC	??_C@_02OCIIMEMP@01@				; `string'
PUBLIC	??_C@_02MJKFJHAM@02@				; `string'
PUBLIC	??_C@_02IGOEABML@05@				; `string'
PUBLIC	??_C@_0CA@CNADGDIG@?$LK?$LJ?$LB?b?B?w?F?$KO?$LE?B?5?G?Q?5?A?$LO?$LI?q?$LI?$LI?5?$LA?$KB?$LE?I?G?U?$LE?O?$LE?Y@ ; `string'
PUBLIC	??_C@_04GHLAOPMI@?$LO?w?A?$LO@			; `string'
PUBLIC	??_C@_08NDPAGPFD@?$LM?$LB?$LJ?$LA?$LP?I?$LM?G@	; `string'
PUBLIC	??_C@_08ODFAFGMO@?A?V?$LN?D?$LM?$LB?$LJ?$LA@	; `string'
PUBLIC	??_C@_04GCIHJOGB@?G?X?$LP?$NM@			; `string'
PUBLIC	??_C@_06ILKOJIAC@FO?A?v?G?$KF@			; `string'
PUBLIC	??_C@_0BE@DFKLNOIO@?$CFs?2Icss?2PctrMng?4cfg@	; `string'
PUBLIC	??_C@_06OOJNJOFD@Market@			; `string'
PUBLIC	??_C@_06ECJMBBCE@FO?A?v?$LM?v@			; `string'
PUBLIC	??_C@_08OOIINJIM@?$LN?C?$MA?e?A?v?G?$KF@	; `string'
PUBLIC	??_C@_04GPJMGCIE@X?5?51@			; `string'
PUBLIC	??_C@_04EELBDBEH@X?5?52@			; `string'
PUBLIC	??_C@_04BCOLJGMB@X?5?54@			; `string'
PUBLIC	??_C@_04LOFONJMN@X?5?58@			; `string'
PUBLIC	??_C@_04DNDJDNAE@X?516@				; `string'
PUBLIC	??_C@_04FKNBCMGO@X?532@				; `string'
PUBLIC	??_C@_04KEAEJAD@X?564@				; `string'
PUBLIC	??_C@_02CKFBEOMH@09@				; `string'
PUBLIC	??_C@_02ODEKKOPI@11@				; `string'
PUBLIC	??_C@_02MIGHPNDL@12@				; `string'
PUBLIC	??_C@_02NBHMMMHK@13@				; `string'
PUBLIC	??_C@_02JODNFKLN@14@				; `string'
PUBLIC	??_C@_02PLJDPFIO@00@				; `string'
PUBLIC	??_C@_02PIBHCBOA@20@				; `string'
PUBLIC	??_C@_02PJNFELNH@30@				; `string'
PUBLIC	??_C@_02PMJKFNFC@40@				; `string'
PUBLIC	??_C@_02PNFIDHGF@50@				; `string'
PUBLIC	??_C@_02NALOKGEN@03@				; `string'
PUBLIC	??_C@_0O@BJAMOKFN@?$CFs?$HM?$HM?$CFs?$HM?$CFs?$HM?$HM?$CFs@ ; `string'
PUBLIC	??_C@_0CI@IDELEHDO@IB101200?5?1p5?5?1t?1d?5catch_domino_@ ; `string'
PUBLIC	??_C@_0CI@EDCLLKLL@IB301200?5?1p5?5?1t?1d?5catch_domino_@ ; `string'
PUBLIC	??_C@_0BF@BKGJPFMB@?$CFs?2dev?2cx_symbol?4dll@	; `string'
PUBLIC	??_C@_08IHGIAAII@axCreate@			; `string'
PUBLIC	??_C@_05DMJBGLKD@17413@				; `string'
PUBLIC	??_C@_06MFMMLLPC@?$LB?$LM?$LI?$LC?C?$LM@	; `string'
PUBLIC	??_C@_0BF@HHEFDMFD@?1a89?1b91?1c92?1d69?1i99@	; `string'
PUBLIC	??_C@_0BF@HAOFIILE@1301?$CFc?$CFs?71021?717413?7@ ; `string'
PUBLIC	??_R4?$CList@PAVCHistory@@PAV1@@@6B@		; CList<CHistory *,CHistory *>::`RTTI Complete Object Locator'
PUBLIC	??_R0?AV?$CList@PAVCHistory@@PAV1@@@@8		; CList<CHistory *,CHistory *> `RTTI Type Descriptor'
PUBLIC	??_R3?$CList@PAVCHistory@@PAV1@@@8		; CList<CHistory *,CHistory *>::`RTTI Class Hierarchy Descriptor'
PUBLIC	??_R2?$CList@PAVCHistory@@PAV1@@@8		; CList<CHistory *,CHistory *>::`RTTI Base Class Array'
PUBLIC	??_R1A@?0A@EA@?$CList@PAVCHistory@@PAV1@@@8	; CList<CHistory *,CHistory *>::`RTTI Base Class Descriptor at (0,-1,0,64)'
PUBLIC	??_R4CInputBarDlg@@6B@				; CInputBarDlg::`RTTI Complete Object Locator'
PUBLIC	??_R0?AVCInputBarDlg@@@8			; CInputBarDlg `RTTI Type Descriptor'
PUBLIC	??_R3CInputBarDlg@@8				; CInputBarDlg::`RTTI Class Hierarchy Descriptor'
PUBLIC	??_R2CInputBarDlg@@8				; CInputBarDlg::`RTTI Base Class Array'
PUBLIC	??_R1A@?0A@EA@CInputBarDlg@@8			; CInputBarDlg::`RTTI Base Class Descriptor at (0,-1,0,64)'
PUBLIC	??_R1A@?0A@EA@CRscDlg@@8			; CRscDlg::`RTTI Base Class Descriptor at (0,-1,0,64)'
PUBLIC	??_R0?AVCRscDlg@@@8				; CRscDlg `RTTI Type Descriptor'
PUBLIC	??_R3CRscDlg@@8					; CRscDlg::`RTTI Class Hierarchy Descriptor'
PUBLIC	??_R2CRscDlg@@8					; CRscDlg::`RTTI Base Class Array'
PUBLIC	__real@4000000000000000
PUBLIC	__real@4059000000000000
PUBLIC	__xmm@00000000000000780000003c0000001e
PUBLIC	__xmm@00000004000000030000000200000001
PUBLIC	__xmm@0000000a000000050000000300000001
PUBLIC	__xmm@000000140000000f0000000a00000005
PUBLIC	__xmm@00000014000000820000000000000000
PUBLIC	__xmm@0000181d0000181c0000181b0000181a
EXTRN	??_M@YGXPAXIIP6EX0@Z@Z:PROC			; `eh vector destructor iterator'
EXTRN	??2@YAPAXI@Z:PROC				; operator new
EXTRN	??3@YAXPAX@Z:PROC				; operator delete
EXTRN	??3@YAXPAXI@Z:PROC				; operator delete
EXTRN	?__global_delete@@YAXPAXI@Z:PROC		; __global_delete
EXTRN	??_U@YAPAXI@Z:PROC				; operator new[]
EXTRN	??_V@YAXPAX@Z:PROC				; operator delete[]
EXTRN	??_V@YAXPAXI@Z:PROC				; operator delete[]
EXTRN	_atexit:PROC
EXTRN	___std_terminate:PROC
EXTRN	__imp__GetEnvironmentVariableA@12:PROC
EXTRN	__imp__RaiseException@16:PROC
EXTRN	__imp__GetLastError@0:PROC
EXTRN	__imp__InitializeCriticalSectionEx@12:PROC
EXTRN	__imp__DeleteCriticalSection@4:PROC
EXTRN	__imp__GetModuleHandleA@4:PROC
EXTRN	__imp__GetProcAddress@8:PROC
EXTRN	__imp__lstrcmpA@8:PROC
EXTRN	__imp__GetPrivateProfileIntA@16:PROC
EXTRN	__imp__GetPrivateProfileStringA@24:PROC
EXTRN	__imp__WritePrivateProfileStringA@16:PROC
EXTRN	__imp__BitBlt@36:PROC
EXTRN	__imp__CreateCompatibleBitmap@12:PROC
EXTRN	__imp__CreateCompatibleDC@4:PROC
EXTRN	__imp__CreateFontIndirectA@4:PROC
EXTRN	__imp__CreateSolidBrush@4:PROC
EXTRN	__imp__GetObjectA@12:PROC
EXTRN	__imp__RegisterWindowMessageA@4:PROC
EXTRN	__imp__SendMessageA@16:PROC
EXTRN	__imp__UnregisterClassA@8:PROC
EXTRN	__imp__IsWindow@4:PROC
EXTRN	__imp__IsChild@8:PROC
EXTRN	__imp__GetFocus@0:PROC
EXTRN	__imp__SetTimer@16:PROC
EXTRN	__imp__KillTimer@8:PROC
EXTRN	__imp__EnableWindow@8:PROC
EXTRN	__imp__CreatePopupMenu@0:PROC
EXTRN	__imp__AppendMenuA@16:PROC
EXTRN	__imp__InvalidateRect@12:PROC
EXTRN	__imp__GetClientRect@8:PROC
EXTRN	__imp__GetWindowRect@8:PROC
EXTRN	__imp__GetParent@4:PROC
EXTRN	__imp__SetParent@8:PROC
EXTRN	__imp__GetWindow@8:PROC
EXTRN	__imp____stdio_common_vsprintf:PROC
EXTRN	__imp____stdio_common_vsscanf:PROC
EXTRN	__imp__free:PROC
EXTRN	__imp__atoi:PROC
EXTRN	__imp__atol:PROC
EXTRN	__imp___localtime64_s:PROC
EXTRN	__imp__strftime:PROC
EXTRN	__imp___time64:PROC
EXTRN	?AfxThrowMemoryException@@YGXXZ:PROC		; AfxThrowMemoryException
EXTRN	?AfxThrowInvalidArgException@@YGXXZ:PROC	; AfxThrowInvalidArgException
EXTRN	?AfxThrowArchiveException@@YGXHPBD@Z:PROC	; AfxThrowArchiveException
EXTRN	?AfxThrowOleException@@YGXJ@Z:PROC		; AfxThrowOleException
EXTRN	?GetRuntimeClass@CObject@@UBEPAUCRuntimeClass@@XZ:PROC ; CObject::GetRuntimeClass
EXTRN	__imp__SysFreeString@4:PROC
EXTRN	__imp_??A?$CSimpleStringT@D$00@ATL@@QBEDH@Z:PROC
EXTRN	__imp_?Concatenate@?$CSimpleStringT@D$00@ATL@@KAXAAV12@PBDH1H@Z:PROC
EXTRN	__imp_??0?$CStringT@DV?$StrTraitMFC_DLL@DV?$ChTraitsCRT@D@ATL@@@@@ATL@@QAE@XZ:PROC
EXTRN	__imp_??0?$CStringT@DV?$StrTraitMFC_DLL@DV?$ChTraitsCRT@D@ATL@@@@@ATL@@QAE@PAUIAtlStringMgr@1@@Z:PROC
EXTRN	__imp_??0?$CStringT@DV?$StrTraitMFC_DLL@DV?$ChTraitsCRT@D@ATL@@@@@ATL@@QAE@ABV01@@Z:PROC
EXTRN	__imp_??0?$CStringT@DV?$StrTraitMFC_DLL@DV?$ChTraitsCRT@D@ATL@@@@@ATL@@QAE@PBD@Z:PROC
EXTRN	__imp_??1?$CStringT@DV?$StrTraitMFC_DLL@DV?$ChTraitsCRT@D@ATL@@@@@ATL@@QAE@XZ:PROC
EXTRN	__imp_??4?$CStringT@DV?$StrTraitMFC_DLL@DV?$ChTraitsCRT@D@ATL@@@@@ATL@@QAEAAV01@ABV01@@Z:PROC
EXTRN	__imp_??4?$CStringT@DV?$StrTraitMFC_DLL@DV?$ChTraitsCRT@D@ATL@@@@@ATL@@QAEAAV01@PBD@Z:PROC
EXTRN	__imp_??Y?$CStringT@DV?$StrTraitMFC_DLL@DV?$ChTraitsCRT@D@ATL@@@@@ATL@@QAEAAV01@ABV?$CSimpleStringT@D$00@1@@Z:PROC
EXTRN	__imp_?GetManager@?$CStringT@DV?$StrTraitMFC_DLL@DV?$ChTraitsCRT@D@ATL@@@@@ATL@@QBEPAUIAtlStringMgr@2@XZ:PROC
EXTRN	__imp_?Compare@?$CStringT@DV?$StrTraitMFC_DLL@DV?$ChTraitsCRT@D@ATL@@@@@ATL@@QBEHPBD@Z:PROC
EXTRN	__imp_?CompareNoCase@?$CStringT@DV?$StrTraitMFC_DLL@DV?$ChTraitsCRT@D@ATL@@@@@ATL@@QBEHPBD@Z:PROC
EXTRN	__imp_?Delete@?$CStringT@DV?$StrTraitMFC_DLL@DV?$ChTraitsCRT@D@ATL@@@@@ATL@@QAEHHH@Z:PROC
EXTRN	__imp_?Insert@?$CStringT@DV?$StrTraitMFC_DLL@DV?$ChTraitsCRT@D@ATL@@@@@ATL@@QAEHHD@Z:PROC
EXTRN	__imp_?Remove@?$CStringT@DV?$StrTraitMFC_DLL@DV?$ChTraitsCRT@D@ATL@@@@@ATL@@QAEHD@Z:PROC
EXTRN	__imp_?Find@?$CStringT@DV?$StrTraitMFC_DLL@DV?$ChTraitsCRT@D@ATL@@@@@ATL@@QBEHDH@Z:PROC
EXTRN	__imp_?Find@?$CStringT@DV?$StrTraitMFC_DLL@DV?$ChTraitsCRT@D@ATL@@@@@ATL@@QBEHPBDH@Z:PROC
EXTRN	__imp_?TrimRight@?$CStringT@DV?$StrTraitMFC_DLL@DV?$ChTraitsCRT@D@ATL@@@@@ATL@@QAEAAV12@XZ:PROC
EXTRN	__imp_?TrimLeft@?$CStringT@DV?$StrTraitMFC_DLL@DV?$ChTraitsCRT@D@ATL@@@@@ATL@@QAEAAV12@XZ:PROC
EXTRN	__imp_?TrimLeft@?$CStringT@DV?$StrTraitMFC_DLL@DV?$ChTraitsCRT@D@ATL@@@@@ATL@@QAEAAV12@D@Z:PROC
EXTRN	__imp_?Mid@?$CStringT@DV?$StrTraitMFC_DLL@DV?$ChTraitsCRT@D@ATL@@@@@ATL@@QBE?AV12@H@Z:PROC
EXTRN	__imp_?Mid@?$CStringT@DV?$StrTraitMFC_DLL@DV?$ChTraitsCRT@D@ATL@@@@@ATL@@QBE?AV12@HH@Z:PROC
EXTRN	__imp_?Right@?$CStringT@DV?$StrTraitMFC_DLL@DV?$ChTraitsCRT@D@ATL@@@@@ATL@@QBE?AV12@H@Z:PROC
EXTRN	__imp_?Left@?$CStringT@DV?$StrTraitMFC_DLL@DV?$ChTraitsCRT@D@ATL@@@@@ATL@@QBE?AV12@H@Z:PROC
EXTRN	__imp_?Format@?$CStringT@DV?$StrTraitMFC_DLL@DV?$ChTraitsCRT@D@ATL@@@@@ATL@@QAAXPBDZZ:PROC
EXTRN	?Read@CArchive@@QAEIPAXI@Z:PROC			; CArchive::Read
EXTRN	?Write@CArchive@@QAEXPBXI@Z:PROC		; CArchive::Write
EXTRN	?ReadCount@CArchive@@QAEKXZ:PROC		; CArchive::ReadCount
EXTRN	?WriteCount@CArchive@@QAEXK@Z:PROC		; CArchive::WriteCount
EXTRN	??0CStringArray@@QAE@XZ:PROC			; CStringArray::CStringArray
EXTRN	??1CStringArray@@UAE@XZ:PROC			; CStringArray::~CStringArray
EXTRN	?AddTail@CStringList@@QAEPAU__POSITION@@ABV?$CStringT@DV?$StrTraitMFC_DLL@DV?$ChTraitsCRT@D@ATL@@@@@ATL@@@Z:PROC ; CStringList::AddTail
EXTRN	?RemoveAll@CStringList@@QAEXXZ:PROC		; CStringList::RemoveAll
EXTRN	?Create@CPlex@@SGPAU1@AAPAU1@II@Z:PROC		; CPlex::Create
EXTRN	?FreeDataChain@CPlex@@QAEXXZ:PROC		; CPlex::FreeDataChain
EXTRN	?GetRuntimeClass@CGdiObject@@UBEPAUCRuntimeClass@@XZ:PROC ; CGdiObject::GetRuntimeClass
EXTRN	?FromHandle@CGdiObject@@SGPAV1@PAX@Z:PROC	; CGdiObject::FromHandle
EXTRN	?Attach@CGdiObject@@QAEHPAX@Z:PROC		; CGdiObject::Attach
EXTRN	?DeleteObject@CGdiObject@@QAEHXZ:PROC		; CGdiObject::DeleteObject
EXTRN	??_ECGdiObject@@UAEPAXI@Z:PROC			; CGdiObject::`vector deleting destructor'
EXTRN	?GetRuntimeClass@CBrush@@UBEPAUCRuntimeClass@@XZ:PROC ; CBrush::GetRuntimeClass
EXTRN	??_ECBrush@@UAEPAXI@Z:PROC			; CBrush::`vector deleting destructor'
EXTRN	?GetRuntimeClass@CBitmap@@UBEPAUCRuntimeClass@@XZ:PROC ; CBitmap::GetRuntimeClass
EXTRN	??_ECBitmap@@UAEPAXI@Z:PROC			; CBitmap::`vector deleting destructor'
EXTRN	?Attach@CDC@@QAEHPAUHDC__@@@Z:PROC		; CDC::Attach
EXTRN	??0CDC@@QAE@XZ:PROC				; CDC::CDC
EXTRN	?DeleteDC@CDC@@QAEHXZ:PROC			; CDC::DeleteDC
EXTRN	?FillSolidRect@CDC@@QAEXPBUtagRECT@@K@Z:PROC	; CDC::FillSolidRect
EXTRN	??1CDC@@UAE@XZ:PROC				; CDC::~CDC
EXTRN	?SelectGdiObject@CDC@@KGPAVCGdiObject@@PAUHDC__@@PAX@Z:PROC ; CDC::SelectGdiObject
EXTRN	??0CPaintDC@@QAE@PAVCWnd@@@Z:PROC		; CPaintDC::CPaintDC
EXTRN	??1CPaintDC@@UAE@XZ:PROC			; CPaintDC::~CPaintDC
EXTRN	?GetRuntimeClass@CMenu@@UBEPAUCRuntimeClass@@XZ:PROC ; CMenu::GetRuntimeClass
EXTRN	?DestroyMenu@CMenu@@QAEHXZ:PROC			; CMenu::DestroyMenu
EXTRN	?Attach@CMenu@@QAEHPAUHMENU__@@@Z:PROC		; CMenu::Attach
EXTRN	?TrackPopupMenu@CMenu@@QAEHIHHPAVCWnd@@PBUtagRECT@@@Z:PROC ; CMenu::TrackPopupMenu
EXTRN	?DrawItem@CMenu@@UAEXPAUtagDRAWITEMSTRUCT@@@Z:PROC ; CMenu::DrawItem
EXTRN	?MeasureItem@CMenu@@UAEXPAUtagMEASUREITEMSTRUCT@@@Z:PROC ; CMenu::MeasureItem
EXTRN	??_ECMenu@@UAEPAXI@Z:PROC			; CMenu::`vector deleting destructor'
EXTRN	?DDX_Check@@YGXPAVCDataExchange@@HAAH@Z:PROC	; DDX_Check
EXTRN	?DDX_Control@@YGXPAVCDataExchange@@HAAVCWnd@@@Z:PROC ; DDX_Control
EXTRN	?OnCmdMsg@CCmdTarget@@UAEHIHPAXPAUAFX_CMDHANDLERINFO@@@Z:PROC ; CCmdTarget::OnCmdMsg
EXTRN	?IsInvokeAllowed@CCmdTarget@@UAEHJ@Z:PROC	; CCmdTarget::IsInvokeAllowed
EXTRN	?GetDispatchIID@CCmdTarget@@UAEHPAU_GUID@@@Z:PROC ; CCmdTarget::GetDispatchIID
EXTRN	?GetTypeInfoCount@CCmdTarget@@UAEIXZ:PROC	; CCmdTarget::GetTypeInfoCount
EXTRN	?GetTypeLibCache@CCmdTarget@@UAEPAVCTypeLibCache@@XZ:PROC ; CCmdTarget::GetTypeLibCache
EXTRN	?GetTypeLib@CCmdTarget@@UAEJKPAPAUITypeLib@@@Z:PROC ; CCmdTarget::GetTypeLib
EXTRN	?GetCommandMap@CCmdTarget@@MBEPBUAFX_OLECMDMAP@@XZ:PROC ; CCmdTarget::GetCommandMap
EXTRN	?GetDispatchMap@CCmdTarget@@MBEPBUAFX_DISPMAP@@XZ:PROC ; CCmdTarget::GetDispatchMap
EXTRN	?GetConnectionMap@CCmdTarget@@MBEPBUAFX_CONNECTIONMAP@@XZ:PROC ; CCmdTarget::GetConnectionMap
EXTRN	?GetEventSinkMap@CCmdTarget@@MBEPBUAFX_EVENTSINKMAP@@XZ:PROC ; CCmdTarget::GetEventSinkMap
EXTRN	?OnCreateAggregates@CCmdTarget@@UAEHXZ:PROC	; CCmdTarget::OnCreateAggregates
EXTRN	?GetInterfaceHook@CCmdTarget@@UAEPAUIUnknown@@PBX@Z:PROC ; CCmdTarget::GetInterfaceHook
EXTRN	?GetExtraConnectionPoints@CCmdTarget@@MAEHPAVCPtrArray@@@Z:PROC ; CCmdTarget::GetExtraConnectionPoints
EXTRN	?GetConnectionHook@CCmdTarget@@MAEPAUIConnectionPoint@@ABU_GUID@@@Z:PROC ; CCmdTarget::GetConnectionHook
EXTRN	??0CWnd@@QAE@XZ:PROC				; CWnd::CWnd
EXTRN	?FromHandle@CWnd@@SGPAV1@PAUHWND__@@@Z:PROC	; CWnd::FromHandle
EXTRN	?PreSubclassWindow@CWnd@@UAEXXZ:PROC		; CWnd::PreSubclassWindow
EXTRN	?Create@CWnd@@UAEHPBD0KABUtagRECT@@PAV1@IPAUCCreateContext@@@Z:PROC ; CWnd::Create
EXTRN	?CreateEx@CWnd@@UAEHKPBD0KHHHHPAUHWND__@@PAUHMENU__@@PAX@Z:PROC ; CWnd::CreateEx
EXTRN	?CreateEx@CWnd@@UAEHKPBD0KABUtagRECT@@PAV1@IPAX@Z:PROC ; CWnd::CreateEx
EXTRN	?DestroyWindow@CWnd@@UAEHXZ:PROC		; CWnd::DestroyWindow
EXTRN	?PreCreateWindow@CWnd@@UAEHAAUtagCREATESTRUCTA@@@Z:PROC ; CWnd::PreCreateWindow
EXTRN	?CalcWindowRect@CWnd@@UAEXPAUtagRECT@@I@Z:PROC	; CWnd::CalcWindowRect
EXTRN	?GetDlgCtrlID@CWnd@@QBEHXZ:PROC			; CWnd::GetDlgCtrlID
EXTRN	?GetDlgItem@CWnd@@QBEPAV1@H@Z:PROC		; CWnd::GetDlgItem
EXTRN	?SetWindowTextA@CWnd@@QAEXPBD@Z:PROC		; CWnd::SetWindowTextA
EXTRN	?GetWindowTextA@CWnd@@QBEXAAV?$CStringT@DV?$StrTraitMFC_DLL@DV?$ChTraitsCRT@D@ATL@@@@@ATL@@@Z:PROC ; CWnd::GetWindowTextA
EXTRN	?GetMenu@CWnd@@UBEPAVCMenu@@XZ:PROC		; CWnd::GetMenu
EXTRN	?SetMenu@CWnd@@UAEHPAVCMenu@@@Z:PROC		; CWnd::SetMenu
EXTRN	?MoveWindow@CWnd@@QAEXHHHHH@Z:PROC		; CWnd::MoveWindow
EXTRN	?SetWindowPos@CWnd@@QAEHPBV1@HHHHI@Z:PROC	; CWnd::SetWindowPos
EXTRN	?ScreenToClient@CWnd@@QBEXPAUtagRECT@@@Z:PROC	; CWnd::ScreenToClient
EXTRN	?ShowWindow@CWnd@@QAEHH@Z:PROC			; CWnd::ShowWindow
EXTRN	?EnableToolTips@CWnd@@QAEHH@Z:PROC		; CWnd::EnableToolTips
EXTRN	?OnToolHitTest@CWnd@@UBEHVCPoint@@PAUtagTOOLINFOA@@@Z:PROC ; CWnd::OnToolHitTest
EXTRN	?EnableWindow@CWnd@@QAEHH@Z:PROC		; CWnd::EnableWindow
EXTRN	?GetDlgItemTextA@CWnd@@QBEHHAAV?$CStringT@DV?$StrTraitMFC_DLL@DV?$ChTraitsCRT@D@ATL@@@@@ATL@@@Z:PROC ; CWnd::GetDlgItemTextA
EXTRN	?SetDlgItemTextA@CWnd@@QAEXHPBD@Z:PROC		; CWnd::SetDlgItemTextA
EXTRN	?GetScrollBarCtrl@CWnd@@UBEPAVCScrollBar@@H@Z:PROC ; CWnd::GetScrollBarCtrl
EXTRN	?UpdateData@CWnd@@QAEHH@Z:PROC			; CWnd::UpdateData
EXTRN	?WinHelpA@CWnd@@UAEXKI@Z:PROC			; CWnd::WinHelpA
EXTRN	?HtmlHelpA@CWnd@@UAEXKI@Z:PROC			; CWnd::HtmlHelpA
EXTRN	?WinHelpInternal@CWnd@@UAEXKI@Z:PROC		; CWnd::WinHelpInternal
EXTRN	?ContinueModal@CWnd@@UAEHXZ:PROC		; CWnd::ContinueModal
EXTRN	?EndModalLoop@CWnd@@UAEXH@Z:PROC		; CWnd::EndModalLoop
EXTRN	?OnDrawIconicThumbnailOrLivePreview@CWnd@@UAEXAAVCDC@@VCRect@@VCSize@@HAAH@Z:PROC ; CWnd::OnDrawIconicThumbnailOrLivePreview
EXTRN	?GetInterfaceMap@CWnd@@MBEPBUAFX_INTERFACEMAP@@XZ:PROC ; CWnd::GetInterfaceMap
EXTRN	?EnsureStdObj@CWnd@@UAEJXZ:PROC			; CWnd::EnsureStdObj
EXTRN	?get_accParent@CWnd@@UAEJPAPAUIDispatch@@@Z:PROC ; CWnd::get_accParent
EXTRN	?get_accChildCount@CWnd@@UAEJPAJ@Z:PROC		; CWnd::get_accChildCount
EXTRN	?get_accChild@CWnd@@UAEJUtagVARIANT@@PAPAUIDispatch@@@Z:PROC ; CWnd::get_accChild
EXTRN	?get_accName@CWnd@@UAEJUtagVARIANT@@PAPA_W@Z:PROC ; CWnd::get_accName
EXTRN	?get_accValue@CWnd@@UAEJUtagVARIANT@@PAPA_W@Z:PROC ; CWnd::get_accValue
EXTRN	?get_accDescription@CWnd@@UAEJUtagVARIANT@@PAPA_W@Z:PROC ; CWnd::get_accDescription
EXTRN	?get_accRole@CWnd@@UAEJUtagVARIANT@@PAU2@@Z:PROC ; CWnd::get_accRole
EXTRN	?get_accState@CWnd@@UAEJUtagVARIANT@@PAU2@@Z:PROC ; CWnd::get_accState
EXTRN	?get_accHelp@CWnd@@UAEJUtagVARIANT@@PAPA_W@Z:PROC ; CWnd::get_accHelp
EXTRN	?get_accHelpTopic@CWnd@@UAEJPAPA_WUtagVARIANT@@PAJ@Z:PROC ; CWnd::get_accHelpTopic
EXTRN	?get_accKeyboardShortcut@CWnd@@UAEJUtagVARIANT@@PAPA_W@Z:PROC ; CWnd::get_accKeyboardShortcut
EXTRN	?get_accFocus@CWnd@@UAEJPAUtagVARIANT@@@Z:PROC	; CWnd::get_accFocus
EXTRN	?get_accSelection@CWnd@@UAEJPAUtagVARIANT@@@Z:PROC ; CWnd::get_accSelection
EXTRN	?get_accDefaultAction@CWnd@@UAEJUtagVARIANT@@PAPA_W@Z:PROC ; CWnd::get_accDefaultAction
EXTRN	?accSelect@CWnd@@UAEJJUtagVARIANT@@@Z:PROC	; CWnd::accSelect
EXTRN	?accLocation@CWnd@@UAEJPAJ000UtagVARIANT@@@Z:PROC ; CWnd::accLocation
EXTRN	?accNavigate@CWnd@@UAEJJUtagVARIANT@@PAU2@@Z:PROC ; CWnd::accNavigate
EXTRN	?accHitTest@CWnd@@UAEJJJPAUtagVARIANT@@@Z:PROC	; CWnd::accHitTest
EXTRN	?accDoDefaultAction@CWnd@@UAEJUtagVARIANT@@@Z:PROC ; CWnd::accDoDefaultAction
EXTRN	?put_accName@CWnd@@UAEJUtagVARIANT@@PA_W@Z:PROC	; CWnd::put_accName
EXTRN	?put_accValue@CWnd@@UAEJUtagVARIANT@@PA_W@Z:PROC ; CWnd::put_accValue
EXTRN	?SetProxy@CWnd@@UAEJPAUIAccessibleProxy@@@Z:PROC ; CWnd::SetProxy
EXTRN	?CreateAccessibleProxy@CWnd@@UAEJIJPAJ@Z:PROC	; CWnd::CreateAccessibleProxy
EXTRN	?OnCommand@CWnd@@MAEHIJ@Z:PROC			; CWnd::OnCommand
EXTRN	?OnNotify@CWnd@@MAEHIJPAJ@Z:PROC		; CWnd::OnNotify
EXTRN	?OnCtlColor@CWnd@@IAEPAUHBRUSH__@@PAVCDC@@PAV1@I@Z:PROC ; CWnd::OnCtlColor
EXTRN	?OnDestroy@CWnd@@IAEXXZ:PROC			; CWnd::OnDestroy
EXTRN	?GetSuperWndProcAddr@CWnd@@MAEPAP6GJPAUHWND__@@IIJ@ZXZ:PROC ; CWnd::GetSuperWndProcAddr
EXTRN	?PreTranslateMessage@CWnd@@UAEHPAUtagMSG@@@Z:PROC ; CWnd::PreTranslateMessage
EXTRN	?OnAmbientProperty@CWnd@@UAEHPAVCOleControlSite@@JPAUtagVARIANT@@@Z:PROC ; CWnd::OnAmbientProperty
EXTRN	?WindowProc@CWnd@@MAEJIIJ@Z:PROC		; CWnd::WindowProc
EXTRN	?OnWndMsg@CWnd@@MAEHIIJPAJ@Z:PROC		; CWnd::OnWndMsg
EXTRN	?Default@CWnd@@IAEJXZ:PROC			; CWnd::Default
EXTRN	?DefWindowProcA@CWnd@@MAEJIIJ@Z:PROC		; CWnd::DefWindowProcA
EXTRN	?PostNcDestroy@CWnd@@MAEXXZ:PROC		; CWnd::PostNcDestroy
EXTRN	?OnChildNotify@CWnd@@MAEHIIJPAJ@Z:PROC		; CWnd::OnChildNotify
EXTRN	?OnTouchInputs@CWnd@@MAEHIPAUtagTOUCHINPUT@@@Z:PROC ; CWnd::OnTouchInputs
EXTRN	?OnTouchInput@CWnd@@MAEHVCPoint@@HHPAUtagTOUCHINPUT@@@Z:PROC ; CWnd::OnTouchInput
EXTRN	?GetGestureStatus@CWnd@@MAEKVCPoint@@@Z:PROC	; CWnd::GetGestureStatus
EXTRN	?OnGestureZoom@CWnd@@MAEHVCPoint@@J@Z:PROC	; CWnd::OnGestureZoom
EXTRN	?OnGesturePan@CWnd@@MAEHVCPoint@@0@Z:PROC	; CWnd::OnGesturePan
EXTRN	?OnGestureRotate@CWnd@@MAEHVCPoint@@N@Z:PROC	; CWnd::OnGestureRotate
EXTRN	?OnGestureTwoFingerTap@CWnd@@MAEHVCPoint@@@Z:PROC ; CWnd::OnGestureTwoFingerTap
EXTRN	?OnGesturePressAndTap@CWnd@@MAEHVCPoint@@J@Z:PROC ; CWnd::OnGesturePressAndTap
EXTRN	?ResizeDynamicLayout@CWnd@@MAEXXZ:PROC		; CWnd::ResizeDynamicLayout
EXTRN	?CheckAutoCenter@CWnd@@UAEHXZ:PROC		; CWnd::CheckAutoCenter
EXTRN	?IsFrameWnd@CWnd@@UBEHXZ:PROC			; CWnd::IsFrameWnd
EXTRN	?OnFinalRelease@CWnd@@UAEXXZ:PROC		; CWnd::OnFinalRelease
EXTRN	?CreateControlContainer@CWnd@@MAEHPAPAVCOleControlContainer@@@Z:PROC ; CWnd::CreateControlContainer
EXTRN	?CreateControlSite@CWnd@@MAEHPAVCOleControlContainer@@PAPAVCOleControlSite@@IABU_GUID@@@Z:PROC ; CWnd::CreateControlSite
EXTRN	?SetOccDialogInfo@CWnd@@MAEHPAU_AFX_OCC_DIALOG_INFO@@@Z:PROC ; CWnd::SetOccDialogInfo
EXTRN	?GetOccDialogInfo@CWnd@@MAEPAU_AFX_OCC_DIALOG_INFO@@XZ:PROC ; CWnd::GetOccDialogInfo
EXTRN	?GetMessageMap@CWnd@@MBEPBUAFX_MSGMAP@@XZ:PROC	; CWnd::GetMessageMap
EXTRN	?GetRuntimeClass@CDialog@@UBEPAUCRuntimeClass@@XZ:PROC ; CDialog::GetRuntimeClass
EXTRN	?Create@CDialog@@UAEHPBDPAVCWnd@@@Z:PROC	; CDialog::Create
EXTRN	?CreateIndirect@CDialog@@UAEHPBUDLGTEMPLATE@@PAVCWnd@@PAX@Z:PROC ; CDialog::CreateIndirect
EXTRN	?CreateIndirect@CDialog@@UAEHPAXPAVCWnd@@@Z:PROC ; CDialog::CreateIndirect
EXTRN	?OnInitDialog@CDialog@@UAEHXZ:PROC		; CDialog::OnInitDialog
EXTRN	?OnSetFont@CDialog@@UAEXPAVCFont@@@Z:PROC	; CDialog::OnSetFont
EXTRN	??1CDialog@@UAE@XZ:PROC				; CDialog::~CDialog
EXTRN	?PreTranslateMessage@CDialog@@UAEHPAUtagMSG@@@Z:PROC ; CDialog::PreTranslateMessage
EXTRN	?OnCmdMsg@CDialog@@UAEHIHPAXPAUAFX_CMDHANDLERINFO@@@Z:PROC ; CDialog::OnCmdMsg
EXTRN	?CheckAutoCenter@CDialog@@UAEHXZ:PROC		; CDialog::CheckAutoCenter
EXTRN	?SetOccDialogInfo@CDialog@@MAEHPAU_AFX_OCC_DIALOG_INFO@@@Z:PROC ; CDialog::SetOccDialogInfo
EXTRN	?GetOccDialogInfo@CDialog@@MAEPAU_AFX_OCC_DIALOG_INFO@@XZ:PROC ; CDialog::GetOccDialogInfo
EXTRN	?PreInitDialog@CDialog@@MAEXXZ:PROC		; CDialog::PreInitDialog
EXTRN	?GetRuntimeClass@CStatic@@UBEPAUCRuntimeClass@@XZ:PROC ; CStatic::GetRuntimeClass
EXTRN	?Create@CStatic@@UAEHPBDKABUtagRECT@@PAVCWnd@@I@Z:PROC ; CStatic::Create
EXTRN	?DrawItem@CStatic@@UAEXPAUtagDRAWITEMSTRUCT@@@Z:PROC ; CStatic::DrawItem
EXTRN	??1CStatic@@UAE@XZ:PROC				; CStatic::~CStatic
EXTRN	?OnChildNotify@CStatic@@MAEHIIJPAJ@Z:PROC	; CStatic::OnChildNotify
EXTRN	??_ECStatic@@UAEPAXI@Z:PROC			; CStatic::`vector deleting destructor'
EXTRN	?GetRuntimeClass@CButton@@UBEPAUCRuntimeClass@@XZ:PROC ; CButton::GetRuntimeClass
EXTRN	?Create@CButton@@UAEHPBDKABUtagRECT@@PAVCWnd@@I@Z:PROC ; CButton::Create
EXTRN	?DrawItem@CButton@@UAEXPAUtagDRAWITEMSTRUCT@@@Z:PROC ; CButton::DrawItem
EXTRN	??1CButton@@UAE@XZ:PROC				; CButton::~CButton
EXTRN	?OnChildNotify@CButton@@MAEHIIJPAJ@Z:PROC	; CButton::OnChildNotify
EXTRN	??_ECButton@@UAEPAXI@Z:PROC			; CButton::`vector deleting destructor'
EXTRN	?GetRuntimeClass@CComboBox@@UBEPAUCRuntimeClass@@XZ:PROC ; CComboBox::GetRuntimeClass
EXTRN	?Create@CComboBox@@UAEHKABUtagRECT@@PAVCWnd@@I@Z:PROC ; CComboBox::Create
EXTRN	?GetLBText@CComboBox@@QBEXHAAV?$CStringT@DV?$StrTraitMFC_DLL@DV?$ChTraitsCRT@D@ATL@@@@@ATL@@@Z:PROC ; CComboBox::GetLBText
EXTRN	?DrawItem@CComboBox@@UAEXPAUtagDRAWITEMSTRUCT@@@Z:PROC ; CComboBox::DrawItem
EXTRN	?MeasureItem@CComboBox@@UAEXPAUtagMEASUREITEMSTRUCT@@@Z:PROC ; CComboBox::MeasureItem
EXTRN	?CompareItem@CComboBox@@UAEHPAUtagCOMPAREITEMSTRUCT@@@Z:PROC ; CComboBox::CompareItem
EXTRN	?DeleteItem@CComboBox@@UAEXPAUtagDELETEITEMSTRUCT@@@Z:PROC ; CComboBox::DeleteItem
EXTRN	??1CComboBox@@UAE@XZ:PROC			; CComboBox::~CComboBox
EXTRN	?OnChildNotify@CComboBox@@MAEHIIJPAJ@Z:PROC	; CComboBox::OnChildNotify
EXTRN	??_ECComboBox@@UAEPAXI@Z:PROC			; CComboBox::`vector deleting destructor'
EXTRN	??1CEdit@@UAE@XZ:PROC				; CEdit::~CEdit
EXTRN	?AfxMessageBox@@YGHPBDII@Z:PROC			; AfxMessageBox
EXTRN	?AfxLoadLibrary@@YGPAUHINSTANCE__@@PBD@Z:PROC	; AfxLoadLibrary
EXTRN	?AfxFreeLibrary@@YGHPAUHINSTANCE__@@@Z:PROC	; AfxFreeLibrary
EXTRN	?GetRuntimeClass@CSpinButtonCtrl@@UBEPAUCRuntimeClass@@XZ:PROC ; CSpinButtonCtrl::GetRuntimeClass
EXTRN	?Create@CSpinButtonCtrl@@UAEHKABUtagRECT@@PAVCWnd@@I@Z:PROC ; CSpinButtonCtrl::Create
EXTRN	?CreateEx@CSpinButtonCtrl@@UAEHKKABUtagRECT@@PAVCWnd@@I@Z:PROC ; CSpinButtonCtrl::CreateEx
EXTRN	??1CSpinButtonCtrl@@UAE@XZ:PROC			; CSpinButtonCtrl::~CSpinButtonCtrl
EXTRN	??_ECSpinButtonCtrl@@UAEPAXI@Z:PROC		; CSpinButtonCtrl::`vector deleting destructor'
EXTRN	?GetCommonDataInfo@@YAHPAUHWND__@@HH@Z:PROC	; GetCommonDataInfo
EXTRN	??0CRscDlg@@QAE@IPAVCWnd@@@Z:PROC		; CRscDlg::CRscDlg
EXTRN	?Create@CRscDlg@@UAEHIPAVCWnd@@@Z:PROC		; CRscDlg::Create
EXTRN	?DoModal@CRscDlg@@UAEHXZ:PROC			; CRscDlg::DoModal
EXTRN	?DoDataExchange@CRscDlg@@MAEXPAVCDataExchange@@@Z:PROC ; CRscDlg::DoDataExchange
EXTRN	?GetThisMessageMap@CRscDlg@@KGPBUAFX_MSGMAP@@XZ:PROC ; CRscDlg::GetThisMessageMap
EXTRN	??0CExComboBox@@QAE@H@Z:PROC			; CExComboBox::CExComboBox
EXTRN	??1CExComboBox@@UAE@XZ:PROC			; CExComboBox::~CExComboBox
EXTRN	??0CExEdit@@QAE@H@Z:PROC			; CExEdit::CExEdit
EXTRN	??1CExEdit@@UAE@XZ:PROC				; CExEdit::~CExEdit
EXTRN	??0CExStatic@@QAE@H@Z:PROC			; CExStatic::CExStatic
EXTRN	?SetStaticColor@CExStatic@@QAEHKKK@Z:PROC	; CExStatic::SetStaticColor
EXTRN	?SetText@CExStatic@@QAEXPBD@Z:PROC		; CExStatic::SetText
EXTRN	??1CExStatic@@UAE@XZ:PROC			; CExStatic::~CExStatic
EXTRN	??0CEditUsr@@QAE@XZ:PROC			; CEditUsr::CEditUsr
EXTRN	??1CEditUsr@@UAE@XZ:PROC			; CEditUsr::~CEditUsr
EXTRN	??0CILButton@@QAE@XZ:PROC			; CILButton::CILButton
EXTRN	?FP_vSetImage@CILButton@@QAEXPAVCImageList@@HHHV?$CStringT@DV?$StrTraitMFC_DLL@DV?$ChTraitsCRT@D@ATL@@@@@ATL@@HHH@Z:PROC ; CILButton::FP_vSetImage
EXTRN	?SetCheck@CILButton@@QAEXH@Z:PROC		; CILButton::SetCheck
EXTRN	?FP_vSetToolTipText@CILButton@@QAEXV?$CStringT@DV?$StrTraitMFC_DLL@DV?$ChTraitsCRT@D@ATL@@@@@ATL@@@Z:PROC ; CILButton::FP_vSetToolTipText
EXTRN	?SetBtnTitle@CILButton@@QAEXV?$CStringT@DV?$StrTraitMFC_DLL@DV?$ChTraitsCRT@D@ATL@@@@@ATL@@@Z:PROC ; CILButton::SetBtnTitle
EXTRN	??1CILButton@@UAE@XZ:PROC			; CILButton::~CILButton
EXTRN	?CreateCodeCtrl@CWinixCodeCtrl@@QAEHPAVCWnd@@00VCRect@@I@Z:PROC ; CWinixCodeCtrl::CreateCodeCtrl
EXTRN	?SetColor@CWinixCodeCtrl@@QAE_NKK@Z:PROC	; CWinixCodeCtrl::SetColor
EXTRN	?SetFocus@CWinixCodeCtrl@@QAE_NXZ:PROC		; CWinixCodeCtrl::SetFocus
EXTRN	??0CCodeCtrl@@QAE@PAVCWnd@@@Z:PROC		; CCodeCtrl::CCodeCtrl
EXTRN	?SetFixUnit@CCodeCtrl@@QAEXV?$CStringT@DV?$StrTraitMFC_DLL@DV?$ChTraitsCRT@D@ATL@@@@@ATL@@@Z:PROC ; CCodeCtrl::SetFixUnit
EXTRN	??0CFOHistoryBtnCtrl@@QAE@XZ:PROC		; CFOHistoryBtnCtrl::CFOHistoryBtnCtrl
EXTRN	?CreateFOHistoryBtn@CFOHistoryBtnCtrl@@QAE_NPAVCWnd@@0VCRect@@IHHH@Z:PROC ; CFOHistoryBtnCtrl::CreateFOHistoryBtn
EXTRN	?GetCode@CFOHistoryBtnCtrl@@QAE?AV?$CStringT@DV?$StrTraitMFC_DLL@DV?$ChTraitsCRT@D@ATL@@@@@ATL@@XZ:PROC ; CFOHistoryBtnCtrl::GetCode
EXTRN	?GetCodeName@CFOHistoryBtnCtrl@@QAE?AV?$CStringT@DV?$StrTraitMFC_DLL@DV?$ChTraitsCRT@D@ATL@@@@@ATL@@V23@@Z:PROC ; CFOHistoryBtnCtrl::GetCodeName
EXTRN	??0CTextProgressCtrl@@QAE@XZ:PROC		; CTextProgressCtrl::CTextProgressCtrl
EXTRN	?SetShowText@CTextProgressCtrl@@QAEXH@Z:PROC	; CTextProgressCtrl::SetShowText
EXTRN	??1CTextProgressCtrl@@UAE@XZ:PROC		; CTextProgressCtrl::~CTextProgressCtrl
EXTRN	??_E?$CList@PAVCHistory@@PAV1@@@UAEPAXI@Z:PROC	; CList<CHistory *,CHistory *>::`vector deleting destructor'
EXTRN	??_ECInputBarDlg@@UAEPAXI@Z:PROC		; CInputBarDlg::`vector deleting destructor'
EXTRN	?SetEndDate@CChartItem@@QAEXPBD@Z:PROC		; CChartItem::SetEndDate
EXTRN	?SetEndDateRequested@CChartItem@@QAEXPBD@Z:PROC	; CChartItem::SetEndDateRequested
EXTRN	?GetDataCode@CChartItem@@QAE?AV?$CStringT@DV?$StrTraitMFC_DLL@DV?$ChTraitsCRT@D@ATL@@@@@ATL@@H@Z:PROC ; CChartItem::GetDataCode
EXTRN	?GetpChartItemSelected@CChartMng@@QAEPAVCChartItem@@XZ:PROC ; CChartMng::GetpChartItemSelected
EXTRN	?SetMarketType@CChartMng@@QAEXH@Z:PROC		; CChartMng::SetMarketType
EXTRN	?LoadChart@CChartMng@@QAEHV?$CStringT@DV?$StrTraitMFC_DLL@DV?$ChTraitsCRT@D@ATL@@@@@ATL@@@Z:PROC ; CChartMng::LoadChart
EXTRN	?SaveChart@CChartMng@@QAEXV?$CStringT@DV?$StrTraitMFC_DLL@DV?$ChTraitsCRT@D@ATL@@@@@ATL@@@Z:PROC ; CChartMng::SaveChart
EXTRN	?SetSelChangeChart@CChartMng@@QAEXH@Z:PROC	; CChartMng::SetSelChangeChart
EXTRN	?IsAvailableForReplay@CChartMng@@QAEHXZ:PROC	; CChartMng::IsAvailableForReplay
EXTRN	?GetCurStatusInfo@CChartMng@@QAEXAADAAV?$CStringT@DV?$StrTraitMFC_DLL@DV?$ChTraitsCRT@D@ATL@@@@@ATL@@11AAJ@Z:PROC ; CChartMng::GetCurStatusInfo
EXTRN	?GetSendShareFlag@CChartMng@@QAEHXZ:PROC	; CChartMng::GetSendShareFlag
EXTRN	?SetQueryOpt@CExtInputBarDlg@@QAEXH@Z:PROC	; CExtInputBarDlg::SetQueryOpt
EXTRN	?CheckDataTypeForReplay@CStdDialog@@QAEHXZ:PROC	; CStdDialog::CheckDataTypeForReplay
EXTRN	?GetTimeSyncFlag@CStdDialog@@QAEHXZ:PROC	; CStdDialog::GetTimeSyncFlag
EXTRN	?SetTimeSyncFlag@CStdDialog@@QAEXH@Z:PROC	; CStdDialog::SetTimeSyncFlag
EXTRN	?RunReplay@CStdDialog@@QAEHHPAUREPLAY_INFO@@@Z:PROC ; CStdDialog::RunReplay
EXTRN	?ChangeSpeed@CStdDialog@@QAEXH@Z:PROC		; CStdDialog::ChangeSpeed
EXTRN	?Load_ReplayChart_Lib@CStdDialog@@QAEHXZ:PROC	; CStdDialog::Load_ReplayChart_Lib
EXTRN	?UnLoad_ReplayChart_Lib@CStdDialog@@QAEHXZ:PROC	; CStdDialog::UnLoad_ReplayChart_Lib
EXTRN	?Request_StockHogaData@CStdDialog@@QAEXV?$CStringT@DV?$StrTraitMFC_DLL@DV?$ChTraitsCRT@D@ATL@@@@@ATL@@@Z:PROC ; CStdDialog::Request_StockHogaData
EXTRN	?ChangeCode@CStdDialog@@QAEXPBDHH@Z:PROC	; CStdDialog::ChangeCode
EXTRN	?EnableQueryOpt@CStdDialog@@QAEXH@Z:PROC	; CStdDialog::EnableQueryOpt
EXTRN	?EnableAccount@CStdDialog@@QAEXH@Z:PROC		; CStdDialog::EnableAccount
EXTRN	?GetMarketTypeFromCode@CStdDialog@@QAEHV?$CStringT@DV?$StrTraitMFC_DLL@DV?$ChTraitsCRT@D@ATL@@@@@ATL@@AAH@Z:PROC ; CStdDialog::GetMarketTypeFromCode
EXTRN	?GetStatusEnable@CStdDialog@@QAEHXZ:PROC	; CStdDialog::GetStatusEnable
EXTRN	?SetLeftBarType@CStdDialog@@QAEXI@Z:PROC	; CStdDialog::SetLeftBarType
EXTRN	?SetShowExtInputBarDlg@CStdDialog@@QAEXH@Z:PROC	; CStdDialog::SetShowExtInputBarDlg
EXTRN	?ChangeStockMode@CStdDialog@@QAEXH@Z:PROC	; CStdDialog::ChangeStockMode
EXTRN	?GetMarketTypeFromItemCode@CStdDialog@@QAEHV?$CStringT@DV?$StrTraitMFC_DLL@DV?$ChTraitsCRT@D@ATL@@@@@ATL@@@Z:PROC ; CStdDialog::GetMarketTypeFromItemCode
EXTRN	?ChangeControlMarketType@CStdDialog@@QAEXH@Z:PROC ; CStdDialog::ChangeControlMarketType
EXTRN	?GetScreenNo@CStdDialog@@QAE?AV?$CStringT@DV?$StrTraitMFC_DLL@DV?$ChTraitsCRT@D@ATL@@@@@ATL@@XZ:PROC ; CStdDialog::GetScreenNo
EXTRN	?DoShareCode@CStdDialog@@QAEXPBD@Z:PROC		; CStdDialog::DoShareCode
EXTRN	?GetFirstCode@CStdDialog@@QAEHAAV?$CStringT@DV?$StrTraitMFC_DLL@DV?$ChTraitsCRT@D@ATL@@@@@ATL@@HAAH@Z:PROC ; CStdDialog::GetFirstCode
EXTRN	?IsChartScreen@CStdDialog@@QAEHPBD@Z:PROC	; CStdDialog::IsChartScreen
EXTRN	?SetSelFolder@CStdDialog@@QAEXPBD@Z:PROC	; CStdDialog::SetSelFolder
EXTRN	??0CSetCycleDlg@@QAE@PAVCWnd@@@Z:PROC		; CSetCycleDlg::CSetCycleDlg
EXTRN	??0CCodeDataFromInputBar@@QAE@XZ:PROC		; CCodeDataFromInputBar::CCodeDataFromInputBar
EXTRN	??1CCodeDataFromInputBar@@UAE@XZ:PROC		; CCodeDataFromInputBar::~CCodeDataFromInputBar
EXTRN	@__security_check_cookie@4:PROC
EXTRN	___CxxFrameHandler3:PROC
EXTRN	__libm_sse2_pow_precise:PROC
EXTRN	_memcpy:PROC
EXTRN	_memset:PROC
EXTRN	??_7type_info@@6B@:QWORD			; type_info::`vftable'
EXTRN	__imp_?wndTop@CWnd@@2V1@B:BYTE
EXTRN	?g_pPtUtilMng@@3PAUIPartnerUtilManager@@A:DWORD	; g_pPtUtilMng
EXTRN	?m_strCodeForMulti@CChartMng@@2V?$CStringT@DV?$StrTraitMFC_DLL@DV?$ChTraitsCRT@D@ATL@@@@@ATL@@A:DWORD ; CChartMng::m_strCodeForMulti
EXTRN	?m_ImgList_W20H20@CStdDialog@@2VCImageList@@A:QWORD ; CStdDialog::m_ImgList_W20H20
EXTRN	?m_ImgList_W46H20@CStdDialog@@2VCImageList@@A:QWORD ; CStdDialog::m_ImgList_W46H20
EXTRN	?m_ImgList_W17H20@CStdDialog@@2VCImageList@@A:QWORD ; CStdDialog::m_ImgList_W17H20
EXTRN	?m_ImgList_W46H20_Gwan@CStdDialog@@2VCImageList@@A:QWORD ; CStdDialog::m_ImgList_W46H20_Gwan
EXTRN	___security_cookie:DWORD
EXTRN	__fltused:DWORD
;	COMDAT ?_OptionsStorage@?1??__local_stdio_printf_options@@9@4_KA
_BSS	SEGMENT
?_OptionsStorage@?1??__local_stdio_printf_options@@9@4_KA DQ 01H DUP (?) ; `__local_stdio_printf_options'::`2'::_OptionsStorage
_BSS	ENDS
;	COMDAT ?_OptionsStorage@?1??__local_stdio_scanf_options@@9@4_KA
_BSS	SEGMENT
?_OptionsStorage@?1??__local_stdio_scanf_options@@9@4_KA DQ 01H DUP (?) ; `__local_stdio_scanf_options'::`2'::_OptionsStorage
_BSS	ENDS
_BSS	SEGMENT
?RMSG_INTERFACE@@3IB DD 01H DUP (?)			; RMSG_INTERFACE
?RMSG_GET_STDDLG_PTR@@3IB DD 01H DUP (?)		; RMSG_GET_STDDLG_PTR
?RMSG_REPLAY_REAL@@3IB DD 01H DUP (?)			; RMSG_REPLAY_REAL
?RMSG_REPLAY_FAIL@@3IB DD 01H DUP (?)			; RMSG_REPLAY_FAIL
?RMSG_REPLAY_CHANGE_DATE@@3IB DD 01H DUP (?)		; RMSG_REPLAY_CHANGE_DATE
?RMSG_REPLAY_END@@3IB DD 01H DUP (?)			; RMSG_REPLAY_END
?RMSG_REPLAY_INC_SEC@@3IB DD 01H DUP (?)		; RMSG_REPLAY_INC_SEC
?RMSG_REPLAY_TOTAL_SEC@@3IB DD 01H DUP (?)		; RMSG_REPLAY_TOTAL_SEC
?RMSG_GETSIGNAL_REAL@@3IB DD 01H DUP (?)		; RMSG_GETSIGNAL_REAL
?RMSG_SETQUERYOPT@@3IB DD 01H DUP (?)			; RMSG_SETQUERYOPT
?RMSG_CHARTMAIN@@3IB DD 01H DUP (?)			; RMSG_CHARTMAIN
?RMS_ANALYSIS_FUNC@@3IB DD 01H DUP (?)			; RMS_ANALYSIS_FUNC
?RMSG_GET_USERID@@3IB DD 01H DUP (?)			; RMSG_GET_USERID
?RMSG_CHANGE_SKINCOLOR@@3IB DD 01H DUP (?)		; RMSG_CHANGE_SKINCOLOR
?RMSG_GET_SKINCOLOR@@3IB DD 01H DUP (?)			; RMSG_GET_SKINCOLOR
?RMSG_CHANGEVERTSCALETYPE@@3IB DD 01H DUP (?)		; RMSG_CHANGEVERTSCALETYPE
?RMSG_CHANGE_CROSSLINE@@3IB DD 01H DUP (?)		; RMSG_CHANGE_CROSSLINE
?RMSG_ADD_PLATFORM_MENU@@3IB DD 01H DUP (?)		; RMSG_ADD_PLATFORM_MENU
?RMSG_SETINITIALCHARTDATA@@3IB DD 01H DUP (?)		; RMSG_SETINITIALCHARTDATA
?RMSG_GETINFO@@3IB DD 01H DUP (?)			; RMSG_GETINFO
?RMSG_SETINFO@@3IB DD 01H DUP (?)			; RMSG_SETINFO
?RMSG_FROMCODELIST@@3IB DD 01H DUP (?)			; RMSG_FROMCODELIST
?RMSG_SETSHAREDATA@@3IB DD 01H DUP (?)			; RMSG_SETSHAREDATA
?RMSG_OPENMAP2@@3IB DD 01H DUP (?)			; RMSG_OPENMAP2
?RMSG_FROMHOGAJUMUN_DESTROY@@3IB DD 01H DUP (?)		; RMSG_FROMHOGAJUMUN_DESTROY
?RMSG_HOGACHANGEDATA_CODE@@3IB DD 01H DUP (?)		; RMSG_HOGACHANGEDATA_CODE
?RMSG_HOGACHANGEDATA_ACCT@@3IB DD 01H DUP (?)		; RMSG_HOGACHANGEDATA_ACCT
?RMSG_SHARED_PIN@@3IB DD 01H DUP (?)			; RMSG_SHARED_PIN
?RMSG_RESIZEFROMGWAN@@3IB DD 01H DUP (?)		; RMSG_RESIZEFROMGWAN
?RMSG_MESSAGESHOW@@3IB DD 01H DUP (?)			; RMSG_MESSAGESHOW
?RMSG_GETSKINVALUE@@3IB DD 01H DUP (?)			; RMSG_GETSKINVALUE
?RMSG_GET_CONTROLHANDLE@@3IB DD 01H DUP (?)		; RMSG_GET_CONTROLHANDLE
_BSS	ENDS
;	COMDAT CRT$XCU
CRT$XCU	SEGMENT
?_AtlWinModule$initializer$@ATL@@3P6AXXZA DD FLAT:??__E_AtlWinModule@ATL@@YAXXZ ; ATL::_AtlWinModule$initializer$
CRT$XCU	ENDS
;	COMDAT __xmm@0000181d0000181c0000181b0000181a
CONST	SEGMENT
__xmm@0000181d0000181c0000181b0000181a DB 01aH, 018H, 00H, 00H, 01bH, 018H
	DB	00H, 00H, 01cH, 018H, 00H, 00H, 01dH, 018H, 00H, 00H
CONST	ENDS
;	COMDAT __xmm@00000014000000820000000000000000
CONST	SEGMENT
__xmm@00000014000000820000000000000000 DB 00H, 00H, 00H, 00H, 00H, 00H, 00H
	DB	00H, 082H, 00H, 00H, 00H, 014H, 00H, 00H, 00H
CONST	ENDS
;	COMDAT __xmm@000000140000000f0000000a00000005
CONST	SEGMENT
__xmm@000000140000000f0000000a00000005 DB 05H, 00H, 00H, 00H, 0aH, 00H, 00H
	DB	00H, 0fH, 00H, 00H, 00H, 014H, 00H, 00H, 00H
CONST	ENDS
;	COMDAT __xmm@0000000a000000050000000300000001
CONST	SEGMENT
__xmm@0000000a000000050000000300000001 DB 01H, 00H, 00H, 00H, 03H, 00H, 00H
	DB	00H, 05H, 00H, 00H, 00H, 0aH, 00H, 00H, 00H
CONST	ENDS
;	COMDAT __xmm@00000004000000030000000200000001
CONST	SEGMENT
__xmm@00000004000000030000000200000001 DB 01H, 00H, 00H, 00H, 02H, 00H, 00H
	DB	00H, 03H, 00H, 00H, 00H, 04H, 00H, 00H, 00H
CONST	ENDS
;	COMDAT __xmm@00000000000000780000003c0000001e
CONST	SEGMENT
__xmm@00000000000000780000003c0000001e DB 01eH, 00H, 00H, 00H, '<', 00H, 00H
	DB	00H, 'x', 00H, 00H, 00H, 00H, 00H, 00H, 00H
CONST	ENDS
;	COMDAT __real@4059000000000000
CONST	SEGMENT
__real@4059000000000000 DQ 04059000000000000r	; 100
CONST	ENDS
;	COMDAT __real@4000000000000000
CONST	SEGMENT
__real@4000000000000000 DQ 04000000000000000r	; 2
CONST	ENDS
;	COMDAT ??_R2CRscDlg@@8
rdata$r	SEGMENT
??_R2CRscDlg@@8 DD FLAT:??_R1A@?0A@EA@CRscDlg@@8	; CRscDlg::`RTTI Base Class Array'
	DD	FLAT:??_R1A@?0A@EA@CDialog@@8
	DD	FLAT:??_R1A@?0A@EA@CWnd@@8
	DD	FLAT:??_R1A@?0A@EA@CCmdTarget@@8
	DD	FLAT:??_R1A@?0A@EA@CObject@@8
rdata$r	ENDS
;	COMDAT ??_R3CRscDlg@@8
rdata$r	SEGMENT
??_R3CRscDlg@@8 DD 00H					; CRscDlg::`RTTI Class Hierarchy Descriptor'
	DD	00H
	DD	05H
	DD	FLAT:??_R2CRscDlg@@8
rdata$r	ENDS
;	COMDAT ??_R0?AVCRscDlg@@@8
data$rs	SEGMENT
??_R0?AVCRscDlg@@@8 DD FLAT:??_7type_info@@6B@		; CRscDlg `RTTI Type Descriptor'
	DD	00H
	DB	'.?AVCRscDlg@@', 00H
data$rs	ENDS
;	COMDAT ??_R1A@?0A@EA@CRscDlg@@8
rdata$r	SEGMENT
??_R1A@?0A@EA@CRscDlg@@8 DD FLAT:??_R0?AVCRscDlg@@@8	; CRscDlg::`RTTI Base Class Descriptor at (0,-1,0,64)'
	DD	04H
	DD	00H
	DD	0ffffffffH
	DD	00H
	DD	040H
	DD	FLAT:??_R3CRscDlg@@8
rdata$r	ENDS
;	COMDAT ??_R1A@?0A@EA@CInputBarDlg@@8
rdata$r	SEGMENT
??_R1A@?0A@EA@CInputBarDlg@@8 DD FLAT:??_R0?AVCInputBarDlg@@@8 ; CInputBarDlg::`RTTI Base Class Descriptor at (0,-1,0,64)'
	DD	05H
	DD	00H
	DD	0ffffffffH
	DD	00H
	DD	040H
	DD	FLAT:??_R3CInputBarDlg@@8
rdata$r	ENDS
;	COMDAT ??_R2CInputBarDlg@@8
rdata$r	SEGMENT
??_R2CInputBarDlg@@8 DD FLAT:??_R1A@?0A@EA@CInputBarDlg@@8 ; CInputBarDlg::`RTTI Base Class Array'
	DD	FLAT:??_R1A@?0A@EA@CRscDlg@@8
	DD	FLAT:??_R1A@?0A@EA@CDialog@@8
	DD	FLAT:??_R1A@?0A@EA@CWnd@@8
	DD	FLAT:??_R1A@?0A@EA@CCmdTarget@@8
	DD	FLAT:??_R1A@?0A@EA@CObject@@8
rdata$r	ENDS
;	COMDAT ??_R3CInputBarDlg@@8
rdata$r	SEGMENT
??_R3CInputBarDlg@@8 DD 00H				; CInputBarDlg::`RTTI Class Hierarchy Descriptor'
	DD	00H
	DD	06H
	DD	FLAT:??_R2CInputBarDlg@@8
rdata$r	ENDS
;	COMDAT ??_R0?AVCInputBarDlg@@@8
data$rs	SEGMENT
??_R0?AVCInputBarDlg@@@8 DD FLAT:??_7type_info@@6B@	; CInputBarDlg `RTTI Type Descriptor'
	DD	00H
	DB	'.?AVCInputBarDlg@@', 00H
data$rs	ENDS
;	COMDAT ??_R4CInputBarDlg@@6B@
rdata$r	SEGMENT
??_R4CInputBarDlg@@6B@ DD 00H				; CInputBarDlg::`RTTI Complete Object Locator'
	DD	00H
	DD	00H
	DD	FLAT:??_R0?AVCInputBarDlg@@@8
	DD	FLAT:??_R3CInputBarDlg@@8
rdata$r	ENDS
;	COMDAT ??_R1A@?0A@EA@?$CList@PAVCHistory@@PAV1@@@8
rdata$r	SEGMENT
??_R1A@?0A@EA@?$CList@PAVCHistory@@PAV1@@@8 DD FLAT:??_R0?AV?$CList@PAVCHistory@@PAV1@@@@8 ; CList<CHistory *,CHistory *>::`RTTI Base Class Descriptor at (0,-1,0,64)'
	DD	01H
	DD	00H
	DD	0ffffffffH
	DD	00H
	DD	040H
	DD	FLAT:??_R3?$CList@PAVCHistory@@PAV1@@@8
rdata$r	ENDS
;	COMDAT ??_R2?$CList@PAVCHistory@@PAV1@@@8
rdata$r	SEGMENT
??_R2?$CList@PAVCHistory@@PAV1@@@8 DD FLAT:??_R1A@?0A@EA@?$CList@PAVCHistory@@PAV1@@@8 ; CList<CHistory *,CHistory *>::`RTTI Base Class Array'
	DD	FLAT:??_R1A@?0A@EA@CObject@@8
rdata$r	ENDS
;	COMDAT ??_R3?$CList@PAVCHistory@@PAV1@@@8
rdata$r	SEGMENT
??_R3?$CList@PAVCHistory@@PAV1@@@8 DD 00H		; CList<CHistory *,CHistory *>::`RTTI Class Hierarchy Descriptor'
	DD	00H
	DD	02H
	DD	FLAT:??_R2?$CList@PAVCHistory@@PAV1@@@8
rdata$r	ENDS
;	COMDAT ??_R0?AV?$CList@PAVCHistory@@PAV1@@@@8
data$rs	SEGMENT
??_R0?AV?$CList@PAVCHistory@@PAV1@@@@8 DD FLAT:??_7type_info@@6B@ ; CList<CHistory *,CHistory *> `RTTI Type Descriptor'
	DD	00H
	DB	'.?AV?$CList@PAVCHistory@@PAV1@@@', 00H
data$rs	ENDS
;	COMDAT ??_R4?$CList@PAVCHistory@@PAV1@@@6B@
rdata$r	SEGMENT
??_R4?$CList@PAVCHistory@@PAV1@@@6B@ DD 00H		; CList<CHistory *,CHistory *>::`RTTI Complete Object Locator'
	DD	00H
	DD	00H
	DD	FLAT:??_R0?AV?$CList@PAVCHistory@@PAV1@@@@8
	DD	FLAT:??_R3?$CList@PAVCHistory@@PAV1@@@8
rdata$r	ENDS
;	COMDAT ??_C@_0BF@HAOFIILE@1301?$CFc?$CFs?71021?717413?7@
CONST	SEGMENT
??_C@_0BF@HAOFIILE@1301?$CFc?$CFs?71021?717413?7@ DB '1301%c%s', 09H, '10'
	DB	'21', 09H, '17413', 09H, 00H			; `string'
CONST	ENDS
;	COMDAT ??_C@_0BF@HHEFDMFD@?1a89?1b91?1c92?1d69?1i99@
CONST	SEGMENT
??_C@_0BF@HHEFDMFD@?1a89?1b91?1c92?1d69?1i99@ DB '/a89/b91/c92/d69/i99', 00H ; `string'
CONST	ENDS
;	COMDAT ??_C@_06MFMMLLPC@?$LB?$LM?$LI?$LC?C?$LM@
CONST	SEGMENT
??_C@_06MFMMLLPC@?$LB?$LM?$LI?$LC?C?$LM@ DB 0b1H, 0bcH, 0b8H, 0b2H, 0c3H, 0bcH
	DB	00H						; `string'
CONST	ENDS
;	COMDAT ??_C@_05DMJBGLKD@17413@
CONST	SEGMENT
??_C@_05DMJBGLKD@17413@ DB '17413', 00H			; `string'
CONST	ENDS
;	COMDAT ??_C@_08IHGIAAII@axCreate@
CONST	SEGMENT
??_C@_08IHGIAAII@axCreate@ DB 'axCreate', 00H		; `string'
CONST	ENDS
;	COMDAT ??_C@_0BF@BKGJPFMB@?$CFs?2dev?2cx_symbol?4dll@
CONST	SEGMENT
??_C@_0BF@BKGJPFMB@?$CFs?2dev?2cx_symbol?4dll@ DB '%s\dev\cx_symbol.dll', 00H ; `string'
CONST	ENDS
;	COMDAT ??_C@_0CI@EDCLLKLL@IB301200?5?1p5?5?1t?1d?5catch_domino_@
CONST	SEGMENT
??_C@_0CI@EDCLLKLL@IB301200?5?1p5?5?1t?1d?5catch_domino_@ DB 'IB301200 /p'
	DB	'5 /t/d catch_domino_data', 09H, '%s', 0aH, 00H ; `string'
CONST	ENDS
;	COMDAT ??_C@_0CI@IDELEHDO@IB101200?5?1p5?5?1t?1d?5catch_domino_@
CONST	SEGMENT
??_C@_0CI@IDELEHDO@IB101200?5?1p5?5?1t?1d?5catch_domino_@ DB 'IB101200 /p'
	DB	'5 /t/d catch_domino_data', 09H, '%s', 0aH, 00H ; `string'
CONST	ENDS
;	COMDAT ??_C@_0O@BJAMOKFN@?$CFs?$HM?$HM?$CFs?$HM?$CFs?$HM?$HM?$CFs@
CONST	SEGMENT
??_C@_0O@BJAMOKFN@?$CFs?$HM?$HM?$CFs?$HM?$CFs?$HM?$HM?$CFs@ DB '%s||%s|%s'
	DB	'||%s', 00H					; `string'
CONST	ENDS
;	COMDAT ??_C@_02NALOKGEN@03@
CONST	SEGMENT
??_C@_02NALOKGEN@03@ DB '03', 00H			; `string'
CONST	ENDS
;	COMDAT ??_C@_02PNFIDHGF@50@
CONST	SEGMENT
??_C@_02PNFIDHGF@50@ DB '50', 00H			; `string'
CONST	ENDS
;	COMDAT ??_C@_02PMJKFNFC@40@
CONST	SEGMENT
??_C@_02PMJKFNFC@40@ DB '40', 00H			; `string'
CONST	ENDS
;	COMDAT ??_C@_02PJNFELNH@30@
CONST	SEGMENT
??_C@_02PJNFELNH@30@ DB '30', 00H			; `string'
CONST	ENDS
;	COMDAT ??_C@_02PIBHCBOA@20@
CONST	SEGMENT
??_C@_02PIBHCBOA@20@ DB '20', 00H			; `string'
CONST	ENDS
;	COMDAT ??_C@_02PLJDPFIO@00@
CONST	SEGMENT
??_C@_02PLJDPFIO@00@ DB '00', 00H			; `string'
CONST	ENDS
;	COMDAT ??_C@_02JODNFKLN@14@
CONST	SEGMENT
??_C@_02JODNFKLN@14@ DB '14', 00H			; `string'
CONST	ENDS
;	COMDAT ??_C@_02NBHMMMHK@13@
CONST	SEGMENT
??_C@_02NBHMMMHK@13@ DB '13', 00H			; `string'
CONST	ENDS
;	COMDAT ??_C@_02MIGHPNDL@12@
CONST	SEGMENT
??_C@_02MIGHPNDL@12@ DB '12', 00H			; `string'
CONST	ENDS
;	COMDAT ??_C@_02ODEKKOPI@11@
CONST	SEGMENT
??_C@_02ODEKKOPI@11@ DB '11', 00H			; `string'
CONST	ENDS
;	COMDAT ??_C@_02CKFBEOMH@09@
CONST	SEGMENT
??_C@_02CKFBEOMH@09@ DB '09', 00H			; `string'
CONST	ENDS
;	COMDAT ??_C@_04KEAEJAD@X?564@
CONST	SEGMENT
??_C@_04KEAEJAD@X?564@ DB 'X 64', 00H			; `string'
CONST	ENDS
;	COMDAT ??_C@_04FKNBCMGO@X?532@
CONST	SEGMENT
??_C@_04FKNBCMGO@X?532@ DB 'X 32', 00H			; `string'
CONST	ENDS
;	COMDAT ??_C@_04DNDJDNAE@X?516@
CONST	SEGMENT
??_C@_04DNDJDNAE@X?516@ DB 'X 16', 00H			; `string'
CONST	ENDS
;	COMDAT ??_C@_04LOFONJMN@X?5?58@
CONST	SEGMENT
??_C@_04LOFONJMN@X?5?58@ DB 'X  8', 00H			; `string'
CONST	ENDS
;	COMDAT ??_C@_04BCOLJGMB@X?5?54@
CONST	SEGMENT
??_C@_04BCOLJGMB@X?5?54@ DB 'X  4', 00H			; `string'
CONST	ENDS
;	COMDAT ??_C@_04EELBDBEH@X?5?52@
CONST	SEGMENT
??_C@_04EELBDBEH@X?5?52@ DB 'X  2', 00H			; `string'
CONST	ENDS
;	COMDAT ??_C@_04GPJMGCIE@X?5?51@
CONST	SEGMENT
??_C@_04GPJMGCIE@X?5?51@ DB 'X  1', 00H			; `string'
CONST	ENDS
;	COMDAT ??_C@_08OOIINJIM@?$LN?C?$MA?e?A?v?G?$KF@
CONST	SEGMENT
??_C@_08OOIINJIM@?$LN?C?$MA?e?A?v?G?$KF@ DB 0bdH, 0c3H, 0c0H, 0e5H, 0c1H, 0f6H
	DB	0c7H, 0a5H, 00H				; `string'
CONST	ENDS
;	COMDAT ??_C@_06ECJMBBCE@FO?A?v?$LM?v@
CONST	SEGMENT
??_C@_06ECJMBBCE@FO?A?v?$LM?v@ DB 'FO', 0c1H, 0f6H, 0bcH, 0f6H, 00H ; `string'
CONST	ENDS
;	COMDAT ??_C@_06OOJNJOFD@Market@
CONST	SEGMENT
??_C@_06OOJNJOFD@Market@ DB 'Market', 00H		; `string'
CONST	ENDS
;	COMDAT ??_C@_0BE@DFKLNOIO@?$CFs?2Icss?2PctrMng?4cfg@
CONST	SEGMENT
??_C@_0BE@DFKLNOIO@?$CFs?2Icss?2PctrMng?4cfg@ DB '%s\Icss\PctrMng.cfg', 00H ; `string'
CONST	ENDS
;	COMDAT ??_C@_06ILKOJIAC@FO?A?v?G?$KF@
CONST	SEGMENT
??_C@_06ILKOJIAC@FO?A?v?G?$KF@ DB 'FO', 0c1H, 0f6H, 0c7H, 0a5H, 00H ; `string'
CONST	ENDS
;	COMDAT ??_C@_04GCIHJOGB@?G?X?$LP?$NM@
CONST	SEGMENT
??_C@_04GCIHJOGB@?G?X?$LP?$NM@ DB 0c7H, 0d8H, 0bfH, 0dcH, 00H ; `string'
CONST	ENDS
;	COMDAT ??_C@_08ODFAFGMO@?A?V?$LN?D?$LM?$LB?$LJ?$LA@
CONST	SEGMENT
??_C@_08ODFAFGMO@?A?V?$LN?D?$LM?$LB?$LJ?$LA@ DB 0c1H, 0d6H, 0bdH, 0c4H, 0bcH
	DB	0b1H, 0b9H, 0b0H, 00H			; `string'
CONST	ENDS
;	COMDAT ??_C@_08NDPAGPFD@?$LM?$LB?$LJ?$LA?$LP?I?$LM?G@
CONST	SEGMENT
??_C@_08NDPAGPFD@?$LM?$LB?$LJ?$LA?$LP?I?$LM?G@ DB 0bcH, 0b1H, 0b9H, 0b0H, 0bfH
	DB	0c9H, 0bcH, 0c7H, 00H			; `string'
CONST	ENDS
;	COMDAT ??_C@_04GHLAOPMI@?$LO?w?A?$LO@
CONST	SEGMENT
??_C@_04GHLAOPMI@?$LO?w?A?$LO@ DB 0beH, 0f7H, 0c1H, 0beH, 00H ; `string'
CONST	ENDS
;	COMDAT ??_C@_0CA@CNADGDIG@?$LK?$LJ?$LB?b?B?w?F?$KO?$LE?B?5?G?Q?5?A?$LO?$LI?q?$LI?$LI?5?$LA?$KB?$LE?I?G?U?$LE?O?$LE?Y@
CONST	SEGMENT
??_C@_0CA@CNADGDIG@?$LK?$LJ?$LB?b?B?w?F?$KO?$LE?B?5?G?Q?5?A?$LO?$LI?q?$LI?$LI?5?$LA?$KB?$LE?I?G?U?$LE?O?$LE?Y@ DB 0baH
	DB	0b9H, 0b1H, 0e2H, 0c2H, 0f7H, 0c6H, 0aeH, 0b4H, 0c2H, ' ', 0c7H
	DB	0d1H, ' ', 0c1H, 0beH, 0b8H, 0f1H, 0b8H, 0b8H, ' ', 0b0H, 0a1H
	DB	0b4H, 0c9H, 0c7H, 0d5H, 0b4H, 0cfH, 0b4H, 0d9H, 00H ; `string'
CONST	ENDS
;	COMDAT ??_C@_02IGOEABML@05@
CONST	SEGMENT
??_C@_02IGOEABML@05@ DB '05', 00H			; `string'
CONST	ENDS
;	COMDAT ??_C@_02MJKFJHAM@02@
CONST	SEGMENT
??_C@_02MJKFJHAM@02@ DB '02', 00H			; `string'
CONST	ENDS
;	COMDAT ??_C@_02OCIIMEMP@01@
CONST	SEGMENT
??_C@_02OCIIMEMP@01@ DB '01', 00H			; `string'
CONST	ENDS
;	COMDAT ??_C@_0BL@KPCEBCDH@DayWeekMonth_ChartInfo?4dat@
CONST	SEGMENT
??_C@_0BL@KPCEBCDH@DayWeekMonth_ChartInfo?4dat@ DB 'DayWeekMonth_ChartInf'
	DB	'o.dat', 00H					; `string'
CONST	ENDS
;	COMDAT ??_C@_06EJBADOFI@?2Icss?2@
CONST	SEGMENT
??_C@_06EJBADOFI@?2Icss?2@ DB '\Icss\', 00H		; `string'
CONST	ENDS
;	COMDAT ??_C@_07BFPKBOOB@DJI?$EADJC@
CONST	SEGMENT
??_C@_07BFPKBOOB@DJI?$EADJC@ DB 'DJI@DJC', 00H		; `string'
CONST	ENDS
;	COMDAT ??_C@_03MMKGDKGA@001@
CONST	SEGMENT
??_C@_03MMKGDKGA@001@ DB '001', 00H			; `string'
CONST	ENDS
;	COMDAT ??_C@_08OPOALDAF@?$LL?s?G?$LA?$LM?$LB?$LJ?$LA@
CONST	SEGMENT
??_C@_08OPOALDAF@?$LL?s?G?$LA?$LM?$LB?$LJ?$LA@ DB 0bbH, 0f3H, 0c7H, 0b0H, 0bcH
	DB	0b1H, 0b9H, 0b0H, 00H			; `string'
CONST	ENDS
;	COMDAT ??_C@_04LKDMKGND@?$LL?s?G?$LA@
CONST	SEGMENT
??_C@_04LKDMKGND@?$LL?s?G?$LA@ DB 0bbH, 0f3H, 0c7H, 0b0H, 00H ; `string'
CONST	ENDS
;	COMDAT ??_C@_04NPANLHEB@?A?V?$LM?$LB@
CONST	SEGMENT
??_C@_04NPANLHEB@?A?V?$LM?$LB@ DB 0c1H, 0d6H, 0bcH, 0b1H, 00H ; `string'
CONST	ENDS
;	COMDAT ??_C@_09BJLLGFJL@?$LM?$LB?$LJ?$LA?1?$LP?I?$LM?G@
CONST	SEGMENT
??_C@_09BJLLGFJL@?$LM?$LB?$LJ?$LA?1?$LP?I?$LM?G@ DB 0bcH, 0b1H, 0b9H, 0b0H
	DB	'/', 0bfH, 0c9H, 0bcH, 0c7H, 00H		; `string'
CONST	ENDS
;	COMDAT ??_C@_04JNBOBBCC@?$LM?$LB?$LP?I@
CONST	SEGMENT
??_C@_04JNBOBBCC@?$LM?$LB?$LP?I@ DB 0bcH, 0b1H, 0bfH, 0c9H, 00H ; `string'
CONST	ENDS
;	COMDAT ??_C@_08CKONLPCE@?$LA?$PM?$LN?I?$LB?W?$LH?l@
CONST	SEGMENT
??_C@_08CKONLPCE@?$LA?$PM?$LN?I?$LB?W?$LH?l@ DB 0b0H, 0fcH, 0bdH, 0c9H, 0b1H
	DB	0d7H, 0b7H, 0ecH, 00H			; `string'
CONST	ENDS
;	COMDAT ??_C@_04IMIHFAMF@?A?V?$LN?D@
CONST	SEGMENT
??_C@_04IMIHFAMF@?A?V?$LN?D@ DB 0c1H, 0d6H, 0bdH, 0c4H, 00H ; `string'
CONST	ENDS
;	COMDAT ??_C@_0CD@GMFOONLM@?$LK?$LJ?$LB?b?5?$LI?p?$LF?e?$LP?$KB?$LM?$KN?$LE?B?5?$LK?$KP?$LA?f?$MA?L?5?$LK?R?$LA?$KB?G?U?$LE?O@
CONST	SEGMENT
??_C@_0CD@GMFOONLM@?$LK?$LJ?$LB?b?5?$LI?p?$LF?e?$LP?$KB?$LM?$KN?$LE?B?5?$LK?$KP?$LA?f?$MA?L?5?$LK?R?$LA?$KB?G?U?$LE?O@ DB 0baH
	DB	0b9H, 0b1H, 0e2H, ' ', 0b8H, 0f0H, 0b5H, 0e5H, 0bfH, 0a1H, 0bcH
	DB	0adH, 0b4H, 0c2H, ' ', 0baH, 0afH, 0b0H, 0e6H, 0c0H, 0ccH, ' ', 0baH
	DB	0d2H, 0b0H, 0a1H, 0c7H, 0d5H, 0b4H, 0cfH, 0b4H, 0d9H, '.', 00H ; `string'
CONST	ENDS
;	COMDAT ??_C@_04FCMNJMCO@?$CFd?$CF?$CF@
CONST	SEGMENT
??_C@_04FCMNJMCO@?$CFd?$CF?$CF@ DB '%d%%', 00H		; `string'
CONST	ENDS
;	COMDAT ??_C@_03GOIFLICK@120@
CONST	SEGMENT
??_C@_03GOIFLICK@120@ DB '120', 00H			; `string'
CONST	ENDS
;	COMDAT ??_C@_0BA@KIJOCLMM@COMMOCITYMASTER@
CONST	SEGMENT
??_C@_0BA@KIJOCLMM@COMMOCITYMASTER@ DB 'COMMOCITYMASTER', 00H ; `string'
CONST	ENDS
;	COMDAT ??_C@_08GABLNBPO@FOMASTER@
CONST	SEGMENT
??_C@_08GABLNBPO@FOMASTER@ DB 'FOMASTER', 00H		; `string'
CONST	ENDS
;	COMDAT ??_C@_08IHKFPFAE@FRMASTER@
CONST	SEGMENT
??_C@_08IHKFPFAE@FRMASTER@ DB 'FRMASTER', 00H		; `string'
CONST	ENDS
;	COMDAT ??_C@_07OLCDEDDD@PMASTER@
CONST	SEGMENT
??_C@_07OLCDEDDD@PMASTER@ DB 'PMASTER', 00H		; `string'
CONST	ENDS
;	COMDAT ??_C@_07FBPHHLJP@FMASTER@
CONST	SEGMENT
??_C@_07FBPHHLJP@FMASTER@ DB 'FMASTER', 00H		; `string'
CONST	ENDS
;	COMDAT ??_C@_07OBOGEKCK@WMASTER@
CONST	SEGMENT
??_C@_07OBOGEKCK@WMASTER@ DB 'WMASTER', 00H		; `string'
CONST	ENDS
;	COMDAT ??_C@_02NONPIBCD@?$HM?$HM@
CONST	SEGMENT
??_C@_02NONPIBCD@?$HM?$HM@ DB '||', 00H			; `string'
CONST	ENDS
;	COMDAT ??_C@_02MEGIOJNB@?$KC?$LK@
CONST	SEGMENT
??_C@_02MEGIOJNB@?$KC?$LK@ DB 0a2H, 0baH, 00H		; `string'
CONST	ENDS
;	COMDAT ??_C@_08LEDEEJEF@00000000@
CONST	SEGMENT
??_C@_08LEDEEJEF@00000000@ DB '00000000', 00H		; `string'
CONST	ENDS
;	COMDAT ??_C@_0CJ@BDIGEPHM@?$LK?$LJ?$LB?b?B?w?F?$KO?$LE?B?5?G?Q?5?A?$LO?$LI?q?$CI1X1?$CJ?$LP?$KB?$LM?$KN?$LI?$LI?5?$LA@
CONST	SEGMENT
??_C@_0CJ@BDIGEPHM@?$LK?$LJ?$LB?b?B?w?F?$KO?$LE?B?5?G?Q?5?A?$LO?$LI?q?$CI1X1?$CJ?$LP?$KB?$LM?$KN?$LI?$LI?5?$LA@ DB 0baH
	DB	0b9H, 0b1H, 0e2H, 0c2H, 0f7H, 0c6H, 0aeH, 0b4H, 0c2H, ' ', 0c7H
	DB	0d1H, ' ', 0c1H, 0beH, 0b8H, 0f1H, '(1X1)', 0bfH, 0a1H, 0bcH, 0adH
	DB	0b8H, 0b8H, ' ', 0b0H, 0a1H, 0b4H, 0c9H, 0c7H, 0d5H, 0b4H, 0cfH
	DB	0b4H, 0d9H, 00H				; `string'
CONST	ENDS
;	COMDAT ??_C@_0CK@PPJEPEJC@?$LK?$LJ?$LB?b?$LB?b?$LE?I?$MA?$LK?5?A?V?$LN?D?$LA?z?5?$LM?$LB?$LP?I?5?A?$LO?$LI?q?$LI?$LI?5?$LA@
CONST	SEGMENT
??_C@_0CK@PPJEPEJC@?$LK?$LJ?$LB?b?$LB?b?$LE?I?$MA?$LK?5?A?V?$LN?D?$LA?z?5?$LM?$LB?$LP?I?5?A?$LO?$LI?q?$LI?$LI?5?$LA@ DB 0baH
	DB	0b9H, 0b1H, 0e2H, 0b1H, 0e2H, 0b4H, 0c9H, 0c0H, 0baH, ' ', 0c1H
	DB	0d6H, 0bdH, 0c4H, 0b0H, 0faH, ' ', 0bcH, 0b1H, 0bfH, 0c9H, ' ', 0c1H
	DB	0beH, 0b8H, 0f1H, 0b8H, 0b8H, ' ', 0b0H, 0a1H, 0b4H, 0c9H, 0c7H
	DB	0d5H, 0b4H, 0cfH, 0b4H, 0d9H, '.', 00H	; `string'
CONST	ENDS
;	COMDAT ??_C@_0CP@HFINAPKI@?$LK?$LJ?$LB?b?B?w?F?$KO?$LE?B?5?$LP?x?$LE?$NM?$MA?$KH?5?B?w?F?$KO?$MA?O?$LG?$KH?$LI?$LI?5?$LN?G@
CONST	SEGMENT
??_C@_0CP@HFINAPKI@?$LK?$LJ?$LB?b?B?w?F?$KO?$LE?B?5?$LP?x?$LE?$NM?$MA?$KH?5?B?w?F?$KO?$MA?O?$LG?$KH?$LI?$LI?5?$LN?G@ DB 0baH
	DB	0b9H, 0b1H, 0e2H, 0c2H, 0f7H, 0c6H, 0aeH, 0b4H, 0c2H, ' ', 0bfH
	DB	0f8H, 0b4H, 0dcH, 0c0H, 0a7H, ' ', 0c2H, 0f7H, 0c6H, 0aeH, 0c0H
	DB	0cfH, 0b6H, 0a7H, 0b8H, 0b8H, ' ', 0bdH, 0c7H, 0c7H, 0e0H, 0c0H
	DB	0ccH, ' ', 0b0H, 0a1H, 0b4H, 0c9H, 0c7H, 0d5H, 0b4H, 0cfH, 0b4H
	DB	0d9H, 00H					; `string'
CONST	ENDS
;	COMDAT ??_C@_05DMBEOOBE@d0515@
CONST	SEGMENT
??_C@_05DMBEOOBE@d0515@ DB 'd0515', 00H			; `string'
CONST	ENDS
;	COMDAT ??_C@_05GAPAJABA@d1013@
CONST	SEGMENT
??_C@_05GAPAJABA@d1013@ DB 'd1013', 00H			; `string'
CONST	ENDS
;	COMDAT ??_C@_05HJOLKBFB@d1012@
CONST	SEGMENT
??_C@_05HJOLKBFB@d1012@ DB 'd1012', 00H			; `string'
CONST	ENDS
;	COMDAT ??_C@_05CPLBAGNH@d1014@
CONST	SEGMENT
??_C@_05CPLBAGNH@d1014@ DB 'd1014', 00H			; `string'
CONST	ENDS
;	COMDAT ??_C@_05FCMGPCJC@d1011@
CONST	SEGMENT
??_C@_05FCMGPCJC@d1011@ DB 'd1011', 00H			; `string'
CONST	ENDS
;	COMDAT ??_C@_05ELNNMDND@d1010@
CONST	SEGMENT
??_C@_05ELNNMDND@d1010@ DB 'd1010', 00H			; `string'
CONST	ENDS
;	COMDAT ??_C@_09MIEAAIKL@HourValue@
CONST	SEGMENT
??_C@_09MIEAAIKL@HourValue@ DB 'HourValue', 00H		; `string'
CONST	ENDS
;	COMDAT ??_C@_08CHLAEBHP@?$CF02d?$CF02d@
CONST	SEGMENT
??_C@_08CHLAEBHP@?$CF02d?$CF02d@ DB '%02d%02d', 00H	; `string'
CONST	ENDS
;	COMDAT ??_C@_04LJCLIJBJ@?$LM?$LD?A?$KE@
CONST	SEGMENT
??_C@_04LJCLIJBJ@?$LM?$LD?A?$KE@ DB 0bcH, 0b3H, 0c1H, 0a4H, 00H ; `string'
CONST	ENDS
;	COMDAT ??_C@_0N@HMDDCPGP@?$LL?s?$LE?$NM?E?x?$LJ?Y?H?$KO?$LE?k@
CONST	SEGMENT
??_C@_0N@HMDDCPGP@?$LL?s?$LE?$NM?E?x?$LJ?Y?H?$KO?$LE?k@ DB 0bbH, 0f3H, 0b4H
	DB	0dcH, 0c5H, 0f8H, 0b9H, 0d9H, 0c8H, 0aeH, 0b4H, 0ebH, 00H ; `string'
CONST	ENDS
;	COMDAT ??_C@_0N@HALPONHC@?$LL?s?$LE?$NM?E?x?$LJ?Y?C?$OA?$LM?R@
CONST	SEGMENT
??_C@_0N@HALPONHC@?$LL?s?$LE?$NM?E?x?$LJ?Y?C?$OA?$LM?R@ DB 0bbH, 0f3H, 0b4H
	DB	0dcH, 0c5H, 0f8H, 0b9H, 0d9H, 0c3H, 0e0H, 0bcH, 0d2H, 00H ; `string'
CONST	ENDS
;	COMDAT ??_C@_0BJ@PAPHKBBP@?C?V?$LM?R?$LA?$KB?$LE?I?G?Q?5?$LA?$KK?$MA?$LK?51?$MA?T?$LE?O?$LE?Y?4@
CONST	SEGMENT
??_C@_0BJ@PAPHKBBP@?C?V?$LM?R?$LA?$KB?$LE?I?G?Q?5?$LA?$KK?$MA?$LK?51?$MA?T?$LE?O?$LE?Y?4@ DB 0c3H
	DB	0d6H, 0bcH, 0d2H, 0b0H, 0a1H, 0b4H, 0c9H, 0c7H, 0d1H, ' ', 0b0H
	DB	0aaH, 0c0H, 0baH, ' 1', 0c0H, 0d4H, 0b4H, 0cfH, 0b4H, 0d9H, '.'
	DB	00H						; `string'
CONST	ENDS
;	COMDAT ??_C@_03MDIFNIHN@360@
CONST	SEGMENT
??_C@_03MDIFNIHN@360@ DB '360', 00H			; `string'
CONST	ENDS
;	COMDAT ??_C@_0BL@EJDAIAKJ@?C?V?$LE?k?$LA?$KB?$LE?I?G?Q?5?$LA?$KK?$MA?$LK?5360?$MA?T?$LE?O?$LE?Y?4@
CONST	SEGMENT
??_C@_0BL@EJDAIAKJ@?C?V?$LE?k?$LA?$KB?$LE?I?G?Q?5?$LA?$KK?$MA?$LK?5360?$MA?T?$LE?O?$LE?Y?4@ DB 0c3H
	DB	0d6H, 0b4H, 0ebH, 0b0H, 0a1H, 0b4H, 0c9H, 0c7H, 0d1H, ' ', 0b0H
	DB	0aaH, 0c0H, 0baH, ' 360', 0c0H, 0d4H, 0b4H, 0cfH, 0b4H, 0d9H, '.'
	DB	00H						; `string'
CONST	ENDS
;	COMDAT ??_C@_03BAAJCDMO@800@
CONST	SEGMENT
??_C@_03BAAJCDMO@800@ DB '800', 00H			; `string'
CONST	ENDS
;	COMDAT ??_C@_0CG@MLCLGLFF@?$LK?$LJ?$LB?b?5?$LI?p?$LF?e?$LH?N?5?$MA?$PM?H?$KP?G?O?$LE?B?$LF?$KF?5?$LN?G?F?P?G?O?$LP?$LE@
CONST	SEGMENT
??_C@_0CG@MLCLGLFF@?$LK?$LJ?$LB?b?5?$LI?p?$LF?e?$LH?N?5?$MA?$PM?H?$KP?G?O?$LE?B?$LF?$KF?5?$LN?G?F?P?G?O?$LP?$LE@ DB 0baH
	DB	0b9H, 0b1H, 0e2H, ' ', 0b8H, 0f0H, 0b5H, 0e5H, 0b7H, 0ceH, ' ', 0c0H
	DB	0fcH, 0c8H, 0afH, 0c7H, 0cfH, 0b4H, 0c2H, 0b5H, 0a5H, ' ', 0bdH
	DB	0c7H, 0c6H, 0d0H, 0c7H, 0cfH, 0bfH, 0b4H, 0bdH, 0c0H, 0b4H, 0cfH
	DB	0b4H, 0d9H, 00H				; `string'
CONST	ENDS
;	COMDAT ??_C@_02PPKAJPJL@?$CG?$CG@
CONST	SEGMENT
??_C@_02PPKAJPJL@?$CG?$CG@ DB '&&', 00H			; `string'
CONST	ENDS
;	COMDAT ??_C@_06GEKNBBDK@000000@
CONST	SEGMENT
??_C@_06GEKNBBDK@000000@ DB '000000', 00H		; `string'
CONST	ENDS
;	COMDAT ??_C@_0BA@NPMKMELP@FMASTER?3PMASTER@
CONST	SEGMENT
??_C@_0BA@NPMKMELP@FMASTER?3PMASTER@ DB 'FMASTER:PMASTER', 00H ; `string'
CONST	ENDS
;	COMDAT ??_C@_07KDMDENFH@UMASTER@
CONST	SEGMENT
??_C@_07KDMDENFH@UMASTER@ DB 'UMASTER', 00H		; `string'
CONST	ENDS
;	COMDAT ??_C@_07MKPCGOEO@KMASTER@
CONST	SEGMENT
??_C@_07MKPCGOEO@KMASTER@ DB 'KMASTER', 00H		; `string'
CONST	ENDS
;	COMDAT ??_C@_07GFIGONA@JMASTER@
CONST	SEGMENT
??_C@_07GFIGONA@JMASTER@ DB 'JMASTER', 00H		; `string'
CONST	ENDS
;	COMDAT ??_C@_08PJJEGACN@?$CF?915?415s@
CONST	SEGMENT
??_C@_08PJJEGACN@?$CF?915?415s@ DB '%-15.15s', 00H	; `string'
CONST	ENDS
;	COMDAT ??_C@_05MPDBFDHF@Frame@
CONST	SEGMENT
??_C@_05MPDBFDHF@Frame@ DB 'Frame', 00H			; `string'
CONST	ENDS
;	COMDAT ??_C@_0BD@MCKIPHBO@ShowExtInputBarDlg@
CONST	SEGMENT
??_C@_0BD@MCKIPHBO@ShowExtInputBarDlg@ DB 'ShowExtInputBarDlg', 00H ; `string'
CONST	ENDS
;	COMDAT ??_C@_0BB@GKDGIIFF@SaveJipyoOneFile@
CONST	SEGMENT
??_C@_0BB@GKDGIIFF@SaveJipyoOneFile@ DB 'SaveJipyoOneFile', 00H ; `string'
CONST	ENDS
;	COMDAT ??_C@_0BO@PBKECOPN@11000000000000000000000000000@
CONST	SEGMENT
??_C@_0BO@PBKECOPN@11000000000000000000000000000@ DB '1100000000000000000'
	DB	'0000000000', 00H				; `string'
CONST	ENDS
;	COMDAT ??_C@_0BO@FLGCEHLC@00000110000011010000000000000@
CONST	SEGMENT
??_C@_0BO@FLGCEHLC@00000110000011010000000000000@ DB '0000011000001101000'
	DB	'0000000000', 00H				; `string'
CONST	ENDS
;	COMDAT ??_C@_09OJDBNEOO@CntInView@
CONST	SEGMENT
??_C@_09OJDBNEOO@CntInView@ DB 'CntInView', 00H		; `string'
CONST	ENDS
;	COMDAT ??_C@_0M@FFNPHBNA@Tick?5Button@
CONST	SEGMENT
??_C@_0M@FFNPHBNA@Tick?5Button@ DB 'Tick Button', 00H	; `string'
CONST	ENDS
;	COMDAT ??_C@_0L@GPDKGOH@Sec?5Button@
CONST	SEGMENT
??_C@_0L@GPDKGOH@Sec?5Button@ DB 'Sec Button', 00H	; `string'
CONST	ENDS
;	COMDAT ??_C@_0L@BBAAEOPD@Min?5Button@
CONST	SEGMENT
??_C@_0L@BBAAEOPD@Min?5Button@ DB 'Min Button', 00H	; `string'
CONST	ENDS
;	COMDAT ??_C@_0L@LBDLBPDK@Day?5Button@
CONST	SEGMENT
??_C@_0L@LBDLBPDK@Day?5Button@ DB 'Day Button', 00H	; `string'
CONST	ENDS
;	COMDAT ??_C@_0CO@PIHPPGHH@?C?J?$LK?$MA?5?$LF?$KF?$MA?L?E?M?$LE?B?530?C?J?$LK?$MA?$LB?n?A?v?$LI?$LI?5?A?$LG?H?$LI@
CONST	SEGMENT
??_C@_0CO@PIHPPGHH@?C?J?$LK?$MA?5?$LF?$KF?$MA?L?E?M?$LE?B?530?C?J?$LK?$MA?$LB?n?A?v?$LI?$LI?5?A?$LG?H?$LI@ DB 0c3H
	DB	0caH, 0baH, 0c0H, ' ', 0b5H, 0a5H, 0c0H, 0ccH, 0c5H, 0cdH, 0b4H
	DB	0c2H, ' 30', 0c3H, 0caH, 0baH, 0c0H, 0b1H, 0eeH, 0c1H, 0f6H, 0b8H
	DB	0b8H, ' ', 0c1H, 0b6H, 0c8H, 0b8H, 0b0H, 0a1H, ' ', 0b0H, 0a1H
	DB	0b4H, 0c9H, 0c7H, 0d5H, 0b4H, 0cfH, 0b4H, 0d9H, '.', 00H ; `string'
CONST	ENDS
;	COMDAT ??_C@_0BM@JICJIPBM@?A?$LG?H?$LI?$LA?$KB?$LE?I?G?Q?5?C?J?$LK?$MA?$MA?L?5?$LO?F?$LE?U?$LE?O?$LE?Y?4@
CONST	SEGMENT
??_C@_0BM@JICJIPBM@?A?$LG?H?$LI?$LA?$KB?$LE?I?G?Q?5?C?J?$LK?$MA?$MA?L?5?$LO?F?$LE?U?$LE?O?$LE?Y?4@ DB 0c1H
	DB	0b6H, 0c8H, 0b8H, 0b0H, 0a1H, 0b4H, 0c9H, 0c7H, 0d1H, ' ', 0c3H
	DB	0caH, 0baH, 0c0H, 0c0H, 0ccH, ' ', 0beH, 0c6H, 0b4H, 0d5H, 0b4H
	DB	0cfH, 0b4H, 0d9H, '.', 00H			; `string'
CONST	ENDS
;	COMDAT ??_C@_02HAOIJKIC@?$CFc@
CONST	SEGMENT
??_C@_02HAOIJKIC@?$CFc@ DB '%c', 00H			; `string'
CONST	ENDS
;	COMDAT ??_C@_08IPHAHKJC@NOCHANGE@
CONST	SEGMENT
??_C@_08IPHAHKJC@NOCHANGE@ DB 'NOCHANGE', 00H		; `string'
CONST	ENDS
;	COMDAT ??_C@_08FDIJDPJM@?$CFY?1?$CFm?1?$CFd@
CONST	SEGMENT
??_C@_08FDIJDPJM@?$CFY?1?$CFm?1?$CFd@ DB '%Y/%m/%d', 00H ; `string'
CONST	ENDS
;	COMDAT ??_C@_0L@FHMOAJKA@?E?G?H?$KN?$LI?i?$LE?$NN?$LB?b@
CONST	SEGMENT
??_C@_0L@FHMOAJKA@?E?G?H?$KN?$LI?i?$LE?$NN?$LB?b@ DB 0c5H, 0c7H, 0c8H, 0adH
	DB	0b8H, 0e9H, 0b4H, 0ddH, 0b1H, 0e2H, 00H	; `string'
CONST	ENDS
;	COMDAT ??_C@_03GGEOLGBL@Log@
CONST	SEGMENT
??_C@_03GGEOLGBL@Log@ DB 'Log', 00H			; `string'
CONST	ENDS
;	COMDAT ??_C@_07CLAOOEJF@Revised@
CONST	SEGMENT
??_C@_07CLAOOEJF@Revised@ DB 'Revised', 00H		; `string'
CONST	ENDS
;	COMDAT ??_C@_08HAHCMMAH@InputBar@
CONST	SEGMENT
??_C@_08HAHCMMAH@InputBar@ DB 'InputBar', 00H		; `string'
CONST	ENDS
;	COMDAT ??_C@_0N@GPHBBABK@LoadSaveCode@
CONST	SEGMENT
??_C@_0N@GPHBBABK@LoadSaveCode@ DB 'LoadSaveCode', 00H	; `string'
CONST	ENDS
;	COMDAT ??_C@_08LKPMEEHC@DayValue@
CONST	SEGMENT
??_C@_08LKPMEEHC@DayValue@ DB 'DayValue', 00H		; `string'
CONST	ENDS
;	COMDAT ??_C@_08GHMDELNM@MinValue@
CONST	SEGMENT
??_C@_08GHMDELNM@MinValue@ DB 'MinValue', 00H		; `string'
CONST	ENDS
;	COMDAT ??_C@_08DFLJKGLA@SecValue@
CONST	SEGMENT
??_C@_08DFLJKGLA@SecValue@ DB 'SecValue', 00H		; `string'
CONST	ENDS
;	COMDAT ??_C@_09MOFKPBPG@TickValue@
CONST	SEGMENT
??_C@_09MOFKPBPG@TickValue@ DB 'TickValue', 00H		; `string'
CONST	ENDS
;	COMDAT ??_C@_04JDPKJLKG@0000@
CONST	SEGMENT
??_C@_04JDPKJLKG@0000@ DB '0000', 00H			; `string'
CONST	ENDS
;	COMDAT ??_C@_04KOACHJEN@Type@
CONST	SEGMENT
??_C@_04KOACHJEN@Type@ DB 'Type', 00H			; `string'
CONST	ENDS
;	COMDAT ??_C@_01FDFGLJHB@2@
CONST	SEGMENT
??_C@_01FDFGLJHB@2@ DB '2', 00H				; `string'
CONST	ENDS
;	COMDAT ??_C@_08OMOHNJKO@?$LA?$PM?$LN?I?$LF?n?$LH?O@
CONST	SEGMENT
??_C@_08OMOHNJKO@?$LA?$PM?$LN?I?$LF?n?$LH?O@ DB 0b0H, 0fcH, 0bdH, 0c9H, 0b5H
	DB	0eeH, 0b7H, 0cfH, 00H			; `string'
CONST	ENDS
;	COMDAT ??_C@_04BEJMHLDE@?A?V?$LJ?$KO@
CONST	SEGMENT
??_C@_04BEJMHLDE@?A?V?$LJ?$KO@ DB 0c1H, 0d6H, 0b9H, 0aeH, 00H ; `string'
CONST	ENDS
;	COMDAT ??_C@_02IHCGGLPM@15@
CONST	SEGMENT
??_C@_02IHCGGLPM@15@ DB '15', 00H			; `string'
CONST	ENDS
;	COMDAT ??_C@_02PKFBJPLJ@10@
CONST	SEGMENT
??_C@_02PKFBJPLJ@10@ DB '10', 00H			; `string'
CONST	ENDS
;	COMDAT ??_C@_01BMBHCPLG@5@
CONST	SEGMENT
??_C@_01BMBHCPLG@5@ DB '5', 00H				; `string'
CONST	ENDS
;	COMDAT ??_C@_02MEPHBMOK@?F?$LN@
CONST	SEGMENT
??_C@_02MEPHBMOK@?F?$LN@ DB 0c6H, 0bdH, 00H		; `string'
CONST	ENDS
;	COMDAT ??_C@_02KCECDBDA@?C?J@
CONST	SEGMENT
??_C@_02KCECDBDA@?C?J@ DB 0c3H, 0caH, 00H		; `string'
CONST	ENDS
;	COMDAT ??_C@_02EJEPJIDE@?$LK?P@
CONST	SEGMENT
??_C@_02EJEPJIDE@?$LK?P@ DB 0baH, 0d0H, 00H		; `string'
CONST	ENDS
;	COMDAT ??_C@_02KLOOPHMK@?$LD?b@
CONST	SEGMENT
??_C@_02KLOOPHMK@?$LD?b@ DB 0b3H, 0e2H, 00H		; `string'
CONST	ENDS
;	COMDAT ??_C@_02LMCMFDE@?$LP?y@
CONST	SEGMENT
??_C@_02LMCMFDE@?$LP?y@ DB 0bfH, 0f9H, 00H		; `string'
CONST	ENDS
;	COMDAT ??_C@_02EHLBLIAD@?A?V@
CONST	SEGMENT
??_C@_02EHLBLIAD@?A?V@ DB 0c1H, 0d6H, 00H		; `string'
CONST	ENDS
;	COMDAT ??_C@_02NNHDHLCM@?$MA?O@
CONST	SEGMENT
??_C@_02NNHDHLCM@?$MA?O@ DB 0c0H, 0cfH, 00H		; `string'
CONST	ENDS
;	COMDAT ??_C@_0O@KMDLLDML@?$MA?z?$MA?e?1?$LK?R?$LH?$KP?$LP?$MA?$LB?b@
CONST	SEGMENT
??_C@_0O@KMDLLDML@?$MA?z?$MA?e?1?$LK?R?$LH?$KP?$LP?$MA?$LB?b@ DB 0c0H, 0faH
	DB	0c0H, 0e5H, '/', 0baH, 0d2H, 0b7H, 0afH, 0bfH, 0c0H, 0b1H, 0e2H
	DB	00H						; `string'
CONST	ENDS
;	COMDAT ??_C@_0BB@KOLKMFBE@?$LF?$KF?$MA?L?E?$LI?C?$NP?$LA?$KB?$LK?N?$LI?$KD?$LB?b@
CONST	SEGMENT
??_C@_0BB@KOLKMFBE@?$LF?$KF?$MA?L?E?$LI?C?$NP?$LA?$KB?$LK?N?$LI?$KD?$LB?b@ DB 0b5H
	DB	0a5H, 0c0H, 0ccH, 0c5H, 0b8H, 0c3H, 0dfH, 0b0H, 0a1H, 0baH, 0ceH
	DB	0b8H, 0a3H, 0b1H, 0e2H, 00H			; `string'
CONST	ENDS
;	COMDAT ??_C@_0L@ELCBJICN@?E?G?H?$KN?$LI?i?$LP?$KN?$LB?b@
CONST	SEGMENT
??_C@_0L@ELCBJICN@?E?G?H?$KN?$LI?i?$LP?$KN?$LB?b@ DB 0c5H, 0c7H, 0c8H, 0adH
	DB	0b8H, 0e9H, 0bfH, 0adH, 0b1H, 0e2H, 00H	; `string'
CONST	ENDS
;	COMDAT ??_C@_0BD@CMCCCNBF@HANAROIGATEMANAGER@
CONST	SEGMENT
??_C@_0BD@CMCCCNBF@HANAROIGATEMANAGER@ DB 'HANAROIGATEMANAGER', 00H ; `string'
CONST	ENDS
;	COMDAT ??_C@_04KLAEBMAO@?$LK?$LJ?$LB?b@
CONST	SEGMENT
??_C@_04KLAEBMAO@?$LK?$LJ?$LB?b@ DB 0baH, 0b9H, 0b1H, 0e2H, 00H ; `string'
CONST	ENDS
;	COMDAT ??_C@_04CMGKGMOP@?A?$NP?C?$LI@
CONST	SEGMENT
??_C@_04CMGKGMOP@?A?$NP?C?$LI@ DB 0c1H, 0dfH, 0c3H, 0b8H, 00H ; `string'
CONST	ENDS
;	COMDAT ??_C@_04JLBNEAJO@?C?$NP?$LA?$KB@
CONST	SEGMENT
??_C@_04JLBNEAJO@?C?$NP?$LA?$KB@ DB 0c3H, 0dfH, 0b0H, 0a1H, 00H ; `string'
CONST	ENDS
;	COMDAT ??_C@_04GCBAIGJG@?$LK?P?G?R@
CONST	SEGMENT
??_C@_04GCBAIGJG@?$LK?P?G?R@ DB 0baH, 0d0H, 0c7H, 0d2H, 00H ; `string'
CONST	ENDS
;	COMDAT ??_C@_04LLNILLHO@?$LK?$KP?$LA?f@
CONST	SEGMENT
??_C@_04LLNILLHO@?$LK?$KP?$LA?f@ DB 0baH, 0afH, 0b0H, 0e6H, 00H ; `string'
CONST	ENDS
;	COMDAT ??_C@_09POEKPOBJ@OldFuture@
CONST	SEGMENT
??_C@_09POEKPOBJ@OldFuture@ DB 'OldFuture', 00H		; `string'
CONST	ENDS
;	COMDAT ??_C@_0FJ@LLNFAMBB@?$LN?C?$LN?$LK?E?$NL?$LI?$KO?$LM?R?$LN?$LK?$LA?$KB?5?$LK?N?A?$LH?G?O?$LP?$KJ?5?H?$KN?$LI?i?$MA?$LL?5@
CONST	SEGMENT
??_C@_0FJ@LLNFAMBB@?$LN?C?$LN?$LK?E?$NL?$LI?$KO?$LM?R?$LN?$LK?$LA?$KB?5?$LK?N?A?$LH?G?O?$LP?$KJ?5?H?$KN?$LI?i?$MA?$LL?5@ DB 0bdH
	DB	0c3H, 0bdH, 0baH, 0c5H, 0dbH, 0b8H, 0aeH, 0bcH, 0d2H, 0bdH, 0baH
	DB	0b0H, 0a1H, ' ', 0baH, 0ceH, 0c1H, 0b7H, 0c7H, 0cfH, 0bfH, 0a9H
	DB	' ', 0c8H, 0adH, 0b8H, 0e9H, 0c0H, 0bbH, ' ', 0b6H, 0e7H, 0bfH
	DB	0efH, ' ', 0bcH, 0f6H, ' ', 0beH, 0f8H, 0bdH, 0c0H, 0b4H, 0cfH
	DB	0b4H, 0d9H, '. ', 0b4H, 0d9H, 0b8H, 0a5H, ' ', 0c8H, 0adH, 0b8H
	DB	0e9H, 0c0H, 0bbH, ' ', 0c1H, 0beH, 0b7H, 0e1H, 0c7H, 0cfH, 0b0H
	DB	0edH, ' ', 0bdH, 0c7H, 0c7H, 0e0H, 0c7H, 0cfH, 0bfH, 0a9H, ' ', 0c1H
	DB	0d6H, 0bdH, 0caH, 0bdH, 0c3H, 0bfH, 0c0H, '.', 00H ; `string'
CONST	ENDS
;	COMDAT ?messageMap@?1??GetThisMessageMap@CInputBarDlg@@KGPBUAFX_MSGMAP@@XZ@4U3@B
CONST	SEGMENT
?messageMap@?1??GetThisMessageMap@CInputBarDlg@@KGPBUAFX_MSGMAP@@XZ@4U3@B DD FLAT:?GetThisMessageMap@CRscDlg@@KGPBUAFX_MSGMAP@@XZ ; `CInputBarDlg::GetThisMessageMap'::`2'::messageMap
	DD	FLAT:?_messageEntries@?1??GetThisMessageMap@CInputBarDlg@@KGPBUAFX_MSGMAP@@XZ@4QBUAFX_MSGMAP_ENTRY@@B
CONST	ENDS
;	COMDAT ?_messageEntries@?1??GetThisMessageMap@CInputBarDlg@@KGPBUAFX_MSGMAP@@XZ@4QBUAFX_MSGMAP_ENTRY@@B
CONST	SEGMENT
?_messageEntries@?1??GetThisMessageMap@CInputBarDlg@@KGPBUAFX_MSGMAP@@XZ@4QBUAFX_MSGMAP_ENTRY@@B DD 05H ; `CInputBarDlg::GetThisMessageMap'::`2'::_messageEntries
	DD	00H
	DD	00H
	DD	00H
	DD	01aH
	DD	FLAT:?OnSize@CInputBarDlg@@IAEXIHH@Z
	DD	0111H
	DD	00H
	DD	01816H
	DD	01816H
	DD	03aH
	DD	FLAT:?OnBtleft@CInputBarDlg@@IAEXXZ
	DD	0111H
	DD	00H
	DD	01814H
	DD	01814H
	DD	03aH
	DD	FLAT:?OnChkday@CInputBarDlg@@IAEXXZ
	DD	0111H
	DD	00H
	DD	01818H
	DD	01818H
	DD	03aH
	DD	FLAT:?OnChkweek@CInputBarDlg@@IAEXXZ
	DD	0111H
	DD	00H
	DD	01819H
	DD	01819H
	DD	03aH
	DD	FLAT:?OnChkmonth@CInputBarDlg@@IAEXXZ
	DD	0111H
	DD	00H
	DD	01810H
	DD	01810H
	DD	03aH
	DD	FLAT:?OnChkminute@CInputBarDlg@@IAEXXZ
	DD	0111H
	DD	00H
	DD	01901H
	DD	01901H
	DD	03aH
	DD	FLAT:?OnChksec@CInputBarDlg@@IAEXXZ
	DD	0111H
	DD	00H
	DD	01811H
	DD	01811H
	DD	03aH
	DD	FLAT:?OnChktick@CInputBarDlg@@IAEXXZ
	DD	0111H
	DD	00H
	DD	01822H
	DD	01822H
	DD	03aH
	DD	FLAT:?OnChkyear@CInputBarDlg@@IAEXXZ
	DD	0111H
	DD	00H
	DD	017ecH
	DD	017ecH
	DD	03aH
	DD	FLAT:?OnBtrequestdatmore@CInputBarDlg@@IAEXXZ
	DD	02H
	DD	00H
	DD	00H
	DD	00H
	DD	013H
	DD	FLAT:?OnDestroy@CInputBarDlg@@IAEXXZ
	DD	0111H
	DD	00H
	DD	017f2H
	DD	017f2H
	DD	03aH
	DD	FLAT:?OnBtinc@CInputBarDlg@@IAEXXZ
	DD	019H
	DD	00H
	DD	00H
	DD	00H
	DD	08H
	DD	FLAT:?OnCtlColor@CInputBarDlg@@IAEPAUHBRUSH__@@PAVCDC@@PAVCWnd@@I@Z
	DD	0205H
	DD	00H
	DD	00H
	DD	00H
	DD	036H
	DD	FLAT:?OnRButtonUp@CInputBarDlg@@IAEXIVCPoint@@@Z
	DD	0111H
	DD	00H
	DD	0181eH
	DD	0181eH
	DD	03aH
	DD	FLAT:?OnChkextbar@CInputBarDlg@@IAEXXZ
	DD	04eH
	DD	0fd2eH
	DD	01809H
	DD	01809H
	DD	03eH
	DD	FLAT:?OnDeltaposSpinzoomvalue@CInputBarDlg@@IAEXPAUtagNMHDR@@PAJ@Z
	DD	04eH
	DD	0fd2eH
	DD	01790H
	DD	01790H
	DD	03eH
	DD	FLAT:?OnDeltaposSpinDatecnt@CInputBarDlg@@IAEXPAUtagNMHDR@@PAJ@Z
	DD	0111H
	DD	00H
	DD	01797H
	DD	01797H
	DD	03aH
	DD	FLAT:?OnChkRevised@CInputBarDlg@@IAEXXZ
	DD	0111H
	DD	09H
	DD	0178eH
	DD	0178eH
	DD	03aH
	DD	FLAT:?OnSelendokCmbCharttype@CInputBarDlg@@IAEXXZ
	DD	0111H
	DD	00H
	DD	01848H
	DD	01848H
	DD	03aH
	DD	FLAT:?OnButton1@CInputBarDlg@@IAEXXZ
	DD	0111H
	DD	00H
	DD	0185eH
	DD	0185eH
	DD	03aH
	DD	FLAT:?OnBtnForeignSendtr@CInputBarDlg@@IAEXXZ
	DD	0111H
	DD	01H
	DD	01794H
	DD	01794H
	DD	03aH
	DD	FLAT:?OnSelchangeCmbType@CInputBarDlg@@IAEXXZ
	DD	0111H
	DD	00H
	DD	01862H
	DD	01862H
	DD	03aH
	DD	FLAT:?OnBtnPlayPause@CInputBarDlg@@IAEXXZ
	DD	0111H
	DD	00H
	DD	01869H
	DD	01869H
	DD	03aH
	DD	FLAT:?OnBtnStopReplay@CInputBarDlg@@IAEXXZ
	DD	0111H
	DD	01H
	DD	0179aH
	DD	0179aH
	DD	03aH
	DD	FLAT:?OnSelchangeCmbSpeed@CInputBarDlg@@IAEXXZ
	DD	0111H
	DD	0100H
	DD	0178cH
	DD	0178cH
	DD	03aH
	DD	FLAT:?OnSetfocusEditperiod@CInputBarDlg@@IAEXXZ
	DD	0111H
	DD	0300H
	DD	0178cH
	DD	0178cH
	DD	03aH
	DD	FLAT:?OnChangeEditperiod@CInputBarDlg@@IAEXXZ
	DD	0111H
	DD	00H
	DD	0181aH
	DD	0181aH
	DD	03aH
	DD	FLAT:?OnChkfirst@CInputBarDlg@@IAEXXZ
	DD	0111H
	DD	00H
	DD	0181bH
	DD	0181bH
	DD	03aH
	DD	FLAT:?OnChksecond@CInputBarDlg@@IAEXXZ
	DD	0111H
	DD	00H
	DD	0181cH
	DD	0181cH
	DD	03aH
	DD	FLAT:?OnChkthird@CInputBarDlg@@IAEXXZ
	DD	0111H
	DD	00H
	DD	0181dH
	DD	0181dH
	DD	03aH
	DD	FLAT:?OnChkfourth@CInputBarDlg@@IAEXXZ
	DD	0111H
	DD	01H
	DD	017a1H
	DD	017a1H
	DD	03aH
	DD	FLAT:?OnSelchangeCmbMin@CInputBarDlg@@IAEXXZ
	DD	0111H
	DD	01H
	DD	017a0H
	DD	017a0H
	DD	03aH
	DD	FLAT:?OnSelchangeCmbHour@CInputBarDlg@@IAEXXZ
	DD	0111H
	DD	01H
	DD	017a6H
	DD	017a6H
	DD	03aH
	DD	FLAT:?OnSelchangeCmbDay@CInputBarDlg@@IAEXXZ
	DD	0113H
	DD	00H
	DD	00H
	DD	00H
	DD	015H
	DD	FLAT:?OnTimer@CInputBarDlg@@IAEXI@Z
	DD	0111H
	DD	01H
	DD	01792H
	DD	01792H
	DD	03aH
	DD	FLAT:?OnSelchangeCbmarket@CInputBarDlg@@IAEXXZ
	DD	0111H
	DD	00H
	DD	0182fH
	DD	0182fH
	DD	03aH
	DD	FLAT:?OnBtperiod@CInputBarDlg@@IAEXXZ
	DD	0111H
	DD	00H
	DD	01812H
	DD	01812H
	DD	03aH
	DD	FLAT:?OnBtmultichart@CInputBarDlg@@IAEXXZ
	DD	0111H
	DD	09H
	DD	036b7H
	DD	036b7H
	DD	03aH
	DD	FLAT:?OnSelchangeCodeInput@CInputBarDlg@@IAEXXZ
	DD	0111H
	DD	00H
	DD	01880H
	DD	01880H
	DD	03aH
	DD	FLAT:?OnBtSaveChart@CInputBarDlg@@IAEXXZ
	DD	014H
	DD	00H
	DD	00H
	DD	00H
	DD	01H
	DD	FLAT:?OnEraseBkgnd@CInputBarDlg@@IAEHPAVCDC@@@Z
	DD	0fH
	DD	00H
	DD	00H
	DD	00H
	DD	013H
	DD	FLAT:?OnPaint@CInputBarDlg@@IAEXXZ
	DD	0111H
	DD	00H
	DD	01859H
	DD	01859H
	DD	03aH
	DD	FLAT:?OnCheckDow@CInputBarDlg@@IAEXXZ
	DD	0111H
	DD	00H
	DD	01858H
	DD	01858H
	DD	03aH
	DD	FLAT:?OnCheckNasdaq@CInputBarDlg@@IAEXXZ
	DD	0111H
	DD	00H
	DD	0185bH
	DD	0185bH
	DD	03aH
	DD	FLAT:?OnCheckNikei@CInputBarDlg@@IAEXXZ
	DD	0111H
	DD	00H
	DD	0185aH
	DD	0185aH
	DD	03aH
	DD	FLAT:?OnCheckSp500@CInputBarDlg@@IAEXXZ
	DD	0111H
	DD	00H
	DD	0185cH
	DD	0185cH
	DD	03aH
	DD	FLAT:?OnCheckTwd@CInputBarDlg@@IAEXXZ
	DD	0111H
	DD	00H
	DD	0187fH
	DD	0187fH
	DD	03aH
	DD	FLAT:?OnChkQueryOpt@CInputBarDlg@@IAEXXZ
	DD	0111H
	DD	00H
	DD	01866H
	DD	01866H
	DD	03aH
	DD	FLAT:?OnBtJumun@CInputBarDlg@@IAEXXZ
	DD	0111H
	DD	00H
	DD	08089H
	DD	08089H
	DD	03aH
	DD	FLAT:?OnBtnGwansim@CInputBarDlg@@IAEXXZ
	DD	044dH
	DD	00H
	DD	00H
	DD	00H
	DD	0eH
	DD	FLAT:?OnSelBasedlgPopuplistctrl@CInputBarDlg@@IAEJIJ@Z
	DD	0c000H
	DD	00H
	DD	00H
	DD	00H
	DD	FLAT:?RMSG_FROMCODELIST@@3IB
	DD	FLAT:?OnFromCodeList@CInputBarDlg@@IAEJIJ@Z
	DD	0111H
	DD	0100H
	DD	0178fH
	DD	0178fH
	DD	03aH
	DD	FLAT:?OnEnSetfocusEditFocus@CInputBarDlg@@QAEXXZ
	DD	0111H
	DD	0300H
	DD	01786H
	DD	01786H
	DD	03aH
	DD	FLAT:?OnSelendokFOHistoryBtn@CInputBarDlg@@QAEXXZ
	DD	00H
	DD	00H
	DD	00H
	DD	00H
	DD	00H
	DD	00H
CONST	ENDS
;	COMDAT ??_7CInputBarDlg@@6B@
CONST	SEGMENT
??_7CInputBarDlg@@6B@ DD FLAT:??_R4CInputBarDlg@@6B@	; CInputBarDlg::`vftable'
	DD	FLAT:?GetRuntimeClass@CDialog@@UBEPAUCRuntimeClass@@XZ
	DD	FLAT:??_ECInputBarDlg@@UAEPAXI@Z
	DD	FLAT:?Serialize@CObject@@UAEXAAVCArchive@@@Z
	DD	FLAT:?AssertValid@CObject@@UBEXXZ
	DD	FLAT:?Dump@CObject@@UBEXAAVCDumpContext@@@Z
	DD	FLAT:?OnCmdMsg@CDialog@@UAEHIHPAXPAUAFX_CMDHANDLERINFO@@@Z
	DD	FLAT:?OnFinalRelease@CWnd@@UAEXXZ
	DD	FLAT:?IsInvokeAllowed@CCmdTarget@@UAEHJ@Z
	DD	FLAT:?GetDispatchIID@CCmdTarget@@UAEHPAU_GUID@@@Z
	DD	FLAT:?GetTypeInfoCount@CCmdTarget@@UAEIXZ
	DD	FLAT:?GetTypeLibCache@CCmdTarget@@UAEPAVCTypeLibCache@@XZ
	DD	FLAT:?GetTypeLib@CCmdTarget@@UAEJKPAPAUITypeLib@@@Z
	DD	FLAT:?GetMessageMap@CInputBarDlg@@MBEPBUAFX_MSGMAP@@XZ
	DD	FLAT:?GetCommandMap@CCmdTarget@@MBEPBUAFX_OLECMDMAP@@XZ
	DD	FLAT:?GetDispatchMap@CCmdTarget@@MBEPBUAFX_DISPMAP@@XZ
	DD	FLAT:?GetConnectionMap@CCmdTarget@@MBEPBUAFX_CONNECTIONMAP@@XZ
	DD	FLAT:?GetInterfaceMap@CWnd@@MBEPBUAFX_INTERFACEMAP@@XZ
	DD	FLAT:?GetEventSinkMap@CCmdTarget@@MBEPBUAFX_EVENTSINKMAP@@XZ
	DD	FLAT:?OnCreateAggregates@CCmdTarget@@UAEHXZ
	DD	FLAT:?GetInterfaceHook@CCmdTarget@@UAEPAUIUnknown@@PBX@Z
	DD	FLAT:?GetExtraConnectionPoints@CCmdTarget@@MAEHPAVCPtrArray@@@Z
	DD	FLAT:?GetConnectionHook@CCmdTarget@@MAEPAUIConnectionPoint@@ABU_GUID@@@Z
	DD	FLAT:?PreSubclassWindow@CWnd@@UAEXXZ
	DD	FLAT:?Create@CWnd@@UAEHPBD0KABUtagRECT@@PAV1@IPAUCCreateContext@@@Z
	DD	FLAT:?CreateEx@CWnd@@UAEHKPBD0KABUtagRECT@@PAV1@IPAX@Z
	DD	FLAT:?CreateEx@CWnd@@UAEHKPBD0KHHHHPAUHWND__@@PAUHMENU__@@PAX@Z
	DD	FLAT:?DestroyWindow@CWnd@@UAEHXZ
	DD	FLAT:?PreCreateWindow@CWnd@@UAEHAAUtagCREATESTRUCTA@@@Z
	DD	FLAT:?CalcWindowRect@CWnd@@UAEXPAUtagRECT@@I@Z
	DD	FLAT:?GetMenu@CWnd@@UBEPAVCMenu@@XZ
	DD	FLAT:?SetMenu@CWnd@@UAEHPAVCMenu@@@Z
	DD	FLAT:?OnToolHitTest@CWnd@@UBEHVCPoint@@PAUtagTOOLINFOA@@@Z
	DD	FLAT:?GetScrollBarCtrl@CWnd@@UBEPAVCScrollBar@@H@Z
	DD	FLAT:?WinHelpA@CWnd@@UAEXKI@Z
	DD	FLAT:?HtmlHelpA@CWnd@@UAEXKI@Z
	DD	FLAT:?WinHelpInternal@CWnd@@UAEXKI@Z
	DD	FLAT:?ContinueModal@CWnd@@UAEHXZ
	DD	FLAT:?EndModalLoop@CWnd@@UAEXH@Z
	DD	FLAT:?OnDrawIconicThumbnailOrLivePreview@CWnd@@UAEXAAVCDC@@VCRect@@VCSize@@HAAH@Z
	DD	FLAT:?EnsureStdObj@CWnd@@UAEJXZ
	DD	FLAT:?get_accParent@CWnd@@UAEJPAPAUIDispatch@@@Z
	DD	FLAT:?get_accChildCount@CWnd@@UAEJPAJ@Z
	DD	FLAT:?get_accChild@CWnd@@UAEJUtagVARIANT@@PAPAUIDispatch@@@Z
	DD	FLAT:?get_accName@CWnd@@UAEJUtagVARIANT@@PAPA_W@Z
	DD	FLAT:?get_accValue@CWnd@@UAEJUtagVARIANT@@PAPA_W@Z
	DD	FLAT:?get_accDescription@CWnd@@UAEJUtagVARIANT@@PAPA_W@Z
	DD	FLAT:?get_accRole@CWnd@@UAEJUtagVARIANT@@PAU2@@Z
	DD	FLAT:?get_accState@CWnd@@UAEJUtagVARIANT@@PAU2@@Z
	DD	FLAT:?get_accHelp@CWnd@@UAEJUtagVARIANT@@PAPA_W@Z
	DD	FLAT:?get_accHelpTopic@CWnd@@UAEJPAPA_WUtagVARIANT@@PAJ@Z
	DD	FLAT:?get_accKeyboardShortcut@CWnd@@UAEJUtagVARIANT@@PAPA_W@Z
	DD	FLAT:?get_accFocus@CWnd@@UAEJPAUtagVARIANT@@@Z
	DD	FLAT:?get_accSelection@CWnd@@UAEJPAUtagVARIANT@@@Z
	DD	FLAT:?get_accDefaultAction@CWnd@@UAEJUtagVARIANT@@PAPA_W@Z
	DD	FLAT:?accSelect@CWnd@@UAEJJUtagVARIANT@@@Z
	DD	FLAT:?accLocation@CWnd@@UAEJPAJ000UtagVARIANT@@@Z
	DD	FLAT:?accNavigate@CWnd@@UAEJJUtagVARIANT@@PAU2@@Z
	DD	FLAT:?accHitTest@CWnd@@UAEJJJPAUtagVARIANT@@@Z
	DD	FLAT:?accDoDefaultAction@CWnd@@UAEJUtagVARIANT@@@Z
	DD	FLAT:?put_accName@CWnd@@UAEJUtagVARIANT@@PA_W@Z
	DD	FLAT:?put_accValue@CWnd@@UAEJUtagVARIANT@@PA_W@Z
	DD	FLAT:?SetProxy@CWnd@@UAEJPAUIAccessibleProxy@@@Z
	DD	FLAT:?CreateAccessibleProxy@CWnd@@UAEJIJPAJ@Z
	DD	FLAT:?OnCommand@CInputBarDlg@@MAEHIJ@Z
	DD	FLAT:?OnNotify@CWnd@@MAEHIJPAJ@Z
	DD	FLAT:?GetSuperWndProcAddr@CWnd@@MAEPAP6GJPAUHWND__@@IIJ@ZXZ
	DD	FLAT:?DoDataExchange@CInputBarDlg@@MAEXPAVCDataExchange@@@Z
	DD	FLAT:?BeginModalState@CWnd@@UAEXXZ
	DD	FLAT:?EndModalState@CWnd@@UAEXXZ
	DD	FLAT:?PreTranslateMessage@CInputBarDlg@@UAEHPAUtagMSG@@@Z
	DD	FLAT:?OnAmbientProperty@CWnd@@UAEHPAVCOleControlSite@@JPAUtagVARIANT@@@Z
	DD	FLAT:?WindowProc@CInputBarDlg@@MAEJIIJ@Z
	DD	FLAT:?OnWndMsg@CWnd@@MAEHIIJPAJ@Z
	DD	FLAT:?DefWindowProcA@CWnd@@MAEJIIJ@Z
	DD	FLAT:?PostNcDestroy@CWnd@@MAEXXZ
	DD	FLAT:?OnChildNotify@CWnd@@MAEHIIJPAJ@Z
	DD	FLAT:?OnTouchInputs@CWnd@@MAEHIPAUtagTOUCHINPUT@@@Z
	DD	FLAT:?OnTouchInput@CWnd@@MAEHVCPoint@@HHPAUtagTOUCHINPUT@@@Z
	DD	FLAT:?GetGestureStatus@CWnd@@MAEKVCPoint@@@Z
	DD	FLAT:?OnGestureZoom@CWnd@@MAEHVCPoint@@J@Z
	DD	FLAT:?OnGesturePan@CWnd@@MAEHVCPoint@@0@Z
	DD	FLAT:?OnGestureRotate@CWnd@@MAEHVCPoint@@N@Z
	DD	FLAT:?OnGestureTwoFingerTap@CWnd@@MAEHVCPoint@@@Z
	DD	FLAT:?OnGesturePressAndTap@CWnd@@MAEHVCPoint@@J@Z
	DD	FLAT:?ResizeDynamicLayout@CWnd@@MAEXXZ
	DD	FLAT:?CheckAutoCenter@CDialog@@UAEHXZ
	DD	FLAT:?IsFrameWnd@CWnd@@UBEHXZ
	DD	FLAT:?CreateControlContainer@CWnd@@MAEHPAPAVCOleControlContainer@@@Z
	DD	FLAT:?CreateControlSite@CWnd@@MAEHPAVCOleControlContainer@@PAPAVCOleControlSite@@IABU_GUID@@@Z
	DD	FLAT:?SetOccDialogInfo@CDialog@@MAEHPAU_AFX_OCC_DIALOG_INFO@@@Z
	DD	FLAT:?GetOccDialogInfo@CDialog@@MAEPAU_AFX_OCC_DIALOG_INFO@@XZ
	DD	FLAT:?Create@CRscDlg@@UAEHIPAVCWnd@@@Z
	DD	FLAT:?Create@CDialog@@UAEHPBDPAVCWnd@@@Z
	DD	FLAT:?CreateIndirect@CDialog@@UAEHPAXPAVCWnd@@@Z
	DD	FLAT:?CreateIndirect@CDialog@@UAEHPBUDLGTEMPLATE@@PAVCWnd@@PAX@Z
	DD	FLAT:?DoModal@CRscDlg@@UAEHXZ
	DD	FLAT:?OnInitDialog@CInputBarDlg@@MAEHXZ
	DD	FLAT:?OnSetFont@CDialog@@UAEXPAVCFont@@@Z
	DD	FLAT:?OnOK@CInputBarDlg@@MAEXXZ
	DD	FLAT:?OnCancel@CInputBarDlg@@MAEXXZ
	DD	FLAT:?PreInitDialog@CDialog@@MAEXXZ
	DD	FLAT:?SetType@CInputBarDlg@@MAEXH@Z
	DD	FLAT:?Init@CInputBarDlg@@MAEXXZ
	DD	FLAT:?LoadIniValue@CInputBarDlg@@MAEXXZ
	DD	FLAT:?SaveIniValue@CInputBarDlg@@MAEXXZ
	DD	FLAT:?SetCodeName@CInputBarDlg@@MAEXHPBD0@Z
	DD	FLAT:?GetTypeNumber@CInputBarDlg@@UAEJXZ
	DD	FLAT:?CreatedChartMng@CInputBarDlg@@UAEXXZ
	DD	FLAT:?RecievedChartMng@CInputBarDlg@@UAEXXZ
	DD	FLAT:?MoveCodeInputCtrl@CInputBarDlg@@UAEXXZ
CONST	ENDS
;	COMDAT ??_7?$CList@PAVCHistory@@PAV1@@@6B@
CONST	SEGMENT
??_7?$CList@PAVCHistory@@PAV1@@@6B@ DD FLAT:??_R4?$CList@PAVCHistory@@PAV1@@@6B@ ; CList<CHistory *,CHistory *>::`vftable'
	DD	FLAT:?GetRuntimeClass@CObject@@UBEPAUCRuntimeClass@@XZ
	DD	FLAT:??_E?$CList@PAVCHistory@@PAV1@@@UAEPAXI@Z
	DD	FLAT:?Serialize@?$CList@PAVCHistory@@PAV1@@@UAEXAAVCArchive@@@Z
	DD	FLAT:?AssertValid@CObject@@UBEXXZ
	DD	FLAT:?Dump@CObject@@UBEXAAVCDumpContext@@@Z
CONST	ENDS
;	COMDAT ??_R1A@?0A@EA@CSpinButtonCtrl@@8
rdata$r	SEGMENT
??_R1A@?0A@EA@CSpinButtonCtrl@@8 DD FLAT:??_R0?AVCSpinButtonCtrl@@@8 ; CSpinButtonCtrl::`RTTI Base Class Descriptor at (0,-1,0,64)'
	DD	03H
	DD	00H
	DD	0ffffffffH
	DD	00H
	DD	040H
	DD	FLAT:??_R3CSpinButtonCtrl@@8
rdata$r	ENDS
;	COMDAT ??_R2CSpinButtonCtrl@@8
rdata$r	SEGMENT
??_R2CSpinButtonCtrl@@8 DD FLAT:??_R1A@?0A@EA@CSpinButtonCtrl@@8 ; CSpinButtonCtrl::`RTTI Base Class Array'
	DD	FLAT:??_R1A@?0A@EA@CWnd@@8
	DD	FLAT:??_R1A@?0A@EA@CCmdTarget@@8
	DD	FLAT:??_R1A@?0A@EA@CObject@@8
rdata$r	ENDS
;	COMDAT ??_R3CSpinButtonCtrl@@8
rdata$r	SEGMENT
??_R3CSpinButtonCtrl@@8 DD 00H				; CSpinButtonCtrl::`RTTI Class Hierarchy Descriptor'
	DD	00H
	DD	04H
	DD	FLAT:??_R2CSpinButtonCtrl@@8
rdata$r	ENDS
;	COMDAT ??_R0?AVCSpinButtonCtrl@@@8
data$rs	SEGMENT
??_R0?AVCSpinButtonCtrl@@@8 DD FLAT:??_7type_info@@6B@	; CSpinButtonCtrl `RTTI Type Descriptor'
	DD	00H
	DB	'.?AVCSpinButtonCtrl@@', 00H
data$rs	ENDS
;	COMDAT ??_R4CSpinButtonCtrl@@6B@
rdata$r	SEGMENT
??_R4CSpinButtonCtrl@@6B@ DD 00H			; CSpinButtonCtrl::`RTTI Complete Object Locator'
	DD	00H
	DD	00H
	DD	FLAT:??_R0?AVCSpinButtonCtrl@@@8
	DD	FLAT:??_R3CSpinButtonCtrl@@8
rdata$r	ENDS
;	COMDAT ??_R2CDialog@@8
rdata$r	SEGMENT
??_R2CDialog@@8 DD FLAT:??_R1A@?0A@EA@CDialog@@8	; CDialog::`RTTI Base Class Array'
	DD	FLAT:??_R1A@?0A@EA@CWnd@@8
	DD	FLAT:??_R1A@?0A@EA@CCmdTarget@@8
	DD	FLAT:??_R1A@?0A@EA@CObject@@8
rdata$r	ENDS
;	COMDAT ??_R3CDialog@@8
rdata$r	SEGMENT
??_R3CDialog@@8 DD 00H					; CDialog::`RTTI Class Hierarchy Descriptor'
	DD	00H
	DD	04H
	DD	FLAT:??_R2CDialog@@8
rdata$r	ENDS
;	COMDAT ??_R0?AVCDialog@@@8
data$rs	SEGMENT
??_R0?AVCDialog@@@8 DD FLAT:??_7type_info@@6B@		; CDialog `RTTI Type Descriptor'
	DD	00H
	DB	'.?AVCDialog@@', 00H
data$rs	ENDS
;	COMDAT ??_R1A@?0A@EA@CDialog@@8
rdata$r	SEGMENT
??_R1A@?0A@EA@CDialog@@8 DD FLAT:??_R0?AVCDialog@@@8	; CDialog::`RTTI Base Class Descriptor at (0,-1,0,64)'
	DD	03H
	DD	00H
	DD	0ffffffffH
	DD	00H
	DD	040H
	DD	FLAT:??_R3CDialog@@8
rdata$r	ENDS
;	COMDAT ??_R1A@?0A@EA@CComboBox@@8
rdata$r	SEGMENT
??_R1A@?0A@EA@CComboBox@@8 DD FLAT:??_R0?AVCComboBox@@@8 ; CComboBox::`RTTI Base Class Descriptor at (0,-1,0,64)'
	DD	03H
	DD	00H
	DD	0ffffffffH
	DD	00H
	DD	040H
	DD	FLAT:??_R3CComboBox@@8
rdata$r	ENDS
;	COMDAT ??_R2CComboBox@@8
rdata$r	SEGMENT
??_R2CComboBox@@8 DD FLAT:??_R1A@?0A@EA@CComboBox@@8	; CComboBox::`RTTI Base Class Array'
	DD	FLAT:??_R1A@?0A@EA@CWnd@@8
	DD	FLAT:??_R1A@?0A@EA@CCmdTarget@@8
	DD	FLAT:??_R1A@?0A@EA@CObject@@8
rdata$r	ENDS
;	COMDAT ??_R3CComboBox@@8
rdata$r	SEGMENT
??_R3CComboBox@@8 DD 00H				; CComboBox::`RTTI Class Hierarchy Descriptor'
	DD	00H
	DD	04H
	DD	FLAT:??_R2CComboBox@@8
rdata$r	ENDS
;	COMDAT ??_R0?AVCComboBox@@@8
data$rs	SEGMENT
??_R0?AVCComboBox@@@8 DD FLAT:??_7type_info@@6B@	; CComboBox `RTTI Type Descriptor'
	DD	00H
	DB	'.?AVCComboBox@@', 00H
data$rs	ENDS
;	COMDAT ??_R4CComboBox@@6B@
rdata$r	SEGMENT
??_R4CComboBox@@6B@ DD 00H				; CComboBox::`RTTI Complete Object Locator'
	DD	00H
	DD	00H
	DD	FLAT:??_R0?AVCComboBox@@@8
	DD	FLAT:??_R3CComboBox@@8
rdata$r	ENDS
;	COMDAT ??_R1A@?0A@EA@CButton@@8
rdata$r	SEGMENT
??_R1A@?0A@EA@CButton@@8 DD FLAT:??_R0?AVCButton@@@8	; CButton::`RTTI Base Class Descriptor at (0,-1,0,64)'
	DD	03H
	DD	00H
	DD	0ffffffffH
	DD	00H
	DD	040H
	DD	FLAT:??_R3CButton@@8
rdata$r	ENDS
;	COMDAT ??_R2CButton@@8
rdata$r	SEGMENT
??_R2CButton@@8 DD FLAT:??_R1A@?0A@EA@CButton@@8	; CButton::`RTTI Base Class Array'
	DD	FLAT:??_R1A@?0A@EA@CWnd@@8
	DD	FLAT:??_R1A@?0A@EA@CCmdTarget@@8
	DD	FLAT:??_R1A@?0A@EA@CObject@@8
rdata$r	ENDS
;	COMDAT ??_R3CButton@@8
rdata$r	SEGMENT
??_R3CButton@@8 DD 00H					; CButton::`RTTI Class Hierarchy Descriptor'
	DD	00H
	DD	04H
	DD	FLAT:??_R2CButton@@8
rdata$r	ENDS
;	COMDAT ??_R0?AVCButton@@@8
data$rs	SEGMENT
??_R0?AVCButton@@@8 DD FLAT:??_7type_info@@6B@		; CButton `RTTI Type Descriptor'
	DD	00H
	DB	'.?AVCButton@@', 00H
data$rs	ENDS
;	COMDAT ??_R4CButton@@6B@
rdata$r	SEGMENT
??_R4CButton@@6B@ DD 00H				; CButton::`RTTI Complete Object Locator'
	DD	00H
	DD	00H
	DD	FLAT:??_R0?AVCButton@@@8
	DD	FLAT:??_R3CButton@@8
rdata$r	ENDS
;	COMDAT ??_R2CCmdTarget@@8
rdata$r	SEGMENT
??_R2CCmdTarget@@8 DD FLAT:??_R1A@?0A@EA@CCmdTarget@@8	; CCmdTarget::`RTTI Base Class Array'
	DD	FLAT:??_R1A@?0A@EA@CObject@@8
rdata$r	ENDS
;	COMDAT ??_R3CCmdTarget@@8
rdata$r	SEGMENT
??_R3CCmdTarget@@8 DD 00H				; CCmdTarget::`RTTI Class Hierarchy Descriptor'
	DD	00H
	DD	02H
	DD	FLAT:??_R2CCmdTarget@@8
rdata$r	ENDS
;	COMDAT ??_R0?AVCCmdTarget@@@8
data$rs	SEGMENT
??_R0?AVCCmdTarget@@@8 DD FLAT:??_7type_info@@6B@	; CCmdTarget `RTTI Type Descriptor'
	DD	00H
	DB	'.?AVCCmdTarget@@', 00H
data$rs	ENDS
;	COMDAT ??_R1A@?0A@EA@CCmdTarget@@8
rdata$r	SEGMENT
??_R1A@?0A@EA@CCmdTarget@@8 DD FLAT:??_R0?AVCCmdTarget@@@8 ; CCmdTarget::`RTTI Base Class Descriptor at (0,-1,0,64)'
	DD	01H
	DD	00H
	DD	0ffffffffH
	DD	00H
	DD	040H
	DD	FLAT:??_R3CCmdTarget@@8
rdata$r	ENDS
;	COMDAT ??_R2CWnd@@8
rdata$r	SEGMENT
??_R2CWnd@@8 DD	FLAT:??_R1A@?0A@EA@CWnd@@8		; CWnd::`RTTI Base Class Array'
	DD	FLAT:??_R1A@?0A@EA@CCmdTarget@@8
	DD	FLAT:??_R1A@?0A@EA@CObject@@8
rdata$r	ENDS
;	COMDAT ??_R3CWnd@@8
rdata$r	SEGMENT
??_R3CWnd@@8 DD	00H					; CWnd::`RTTI Class Hierarchy Descriptor'
	DD	00H
	DD	03H
	DD	FLAT:??_R2CWnd@@8
rdata$r	ENDS
;	COMDAT ??_R0?AVCWnd@@@8
data$rs	SEGMENT
??_R0?AVCWnd@@@8 DD FLAT:??_7type_info@@6B@		; CWnd `RTTI Type Descriptor'
	DD	00H
	DB	'.?AVCWnd@@', 00H
data$rs	ENDS
;	COMDAT ??_R1A@?0A@EA@CWnd@@8
rdata$r	SEGMENT
??_R1A@?0A@EA@CWnd@@8 DD FLAT:??_R0?AVCWnd@@@8		; CWnd::`RTTI Base Class Descriptor at (0,-1,0,64)'
	DD	02H
	DD	00H
	DD	0ffffffffH
	DD	00H
	DD	040H
	DD	FLAT:??_R3CWnd@@8
rdata$r	ENDS
;	COMDAT ??_R1A@?0A@EA@CStatic@@8
rdata$r	SEGMENT
??_R1A@?0A@EA@CStatic@@8 DD FLAT:??_R0?AVCStatic@@@8	; CStatic::`RTTI Base Class Descriptor at (0,-1,0,64)'
	DD	03H
	DD	00H
	DD	0ffffffffH
	DD	00H
	DD	040H
	DD	FLAT:??_R3CStatic@@8
rdata$r	ENDS
;	COMDAT ??_R2CStatic@@8
rdata$r	SEGMENT
??_R2CStatic@@8 DD FLAT:??_R1A@?0A@EA@CStatic@@8	; CStatic::`RTTI Base Class Array'
	DD	FLAT:??_R1A@?0A@EA@CWnd@@8
	DD	FLAT:??_R1A@?0A@EA@CCmdTarget@@8
	DD	FLAT:??_R1A@?0A@EA@CObject@@8
rdata$r	ENDS
;	COMDAT ??_R3CStatic@@8
rdata$r	SEGMENT
??_R3CStatic@@8 DD 00H					; CStatic::`RTTI Class Hierarchy Descriptor'
	DD	00H
	DD	04H
	DD	FLAT:??_R2CStatic@@8
rdata$r	ENDS
;	COMDAT ??_R0?AVCStatic@@@8
data$rs	SEGMENT
??_R0?AVCStatic@@@8 DD FLAT:??_7type_info@@6B@		; CStatic `RTTI Type Descriptor'
	DD	00H
	DB	'.?AVCStatic@@', 00H
data$rs	ENDS
;	COMDAT ??_R4CStatic@@6B@
rdata$r	SEGMENT
??_R4CStatic@@6B@ DD 00H				; CStatic::`RTTI Complete Object Locator'
	DD	00H
	DD	00H
	DD	FLAT:??_R0?AVCStatic@@@8
	DD	FLAT:??_R3CStatic@@8
rdata$r	ENDS
;	COMDAT ??_R1A@?0A@EA@CMenu@@8
rdata$r	SEGMENT
??_R1A@?0A@EA@CMenu@@8 DD FLAT:??_R0?AVCMenu@@@8	; CMenu::`RTTI Base Class Descriptor at (0,-1,0,64)'
	DD	01H
	DD	00H
	DD	0ffffffffH
	DD	00H
	DD	040H
	DD	FLAT:??_R3CMenu@@8
rdata$r	ENDS
;	COMDAT ??_R2CMenu@@8
rdata$r	SEGMENT
??_R2CMenu@@8 DD FLAT:??_R1A@?0A@EA@CMenu@@8		; CMenu::`RTTI Base Class Array'
	DD	FLAT:??_R1A@?0A@EA@CObject@@8
rdata$r	ENDS
;	COMDAT ??_R3CMenu@@8
rdata$r	SEGMENT
??_R3CMenu@@8 DD 00H					; CMenu::`RTTI Class Hierarchy Descriptor'
	DD	00H
	DD	02H
	DD	FLAT:??_R2CMenu@@8
rdata$r	ENDS
;	COMDAT ??_R0?AVCMenu@@@8
data$rs	SEGMENT
??_R0?AVCMenu@@@8 DD FLAT:??_7type_info@@6B@		; CMenu `RTTI Type Descriptor'
	DD	00H
	DB	'.?AVCMenu@@', 00H
data$rs	ENDS
;	COMDAT ??_R4CMenu@@6B@
rdata$r	SEGMENT
??_R4CMenu@@6B@ DD 00H					; CMenu::`RTTI Complete Object Locator'
	DD	00H
	DD	00H
	DD	FLAT:??_R0?AVCMenu@@@8
	DD	FLAT:??_R3CMenu@@8
rdata$r	ENDS
;	COMDAT ??_R1A@?0A@EA@CBitmap@@8
rdata$r	SEGMENT
??_R1A@?0A@EA@CBitmap@@8 DD FLAT:??_R0?AVCBitmap@@@8	; CBitmap::`RTTI Base Class Descriptor at (0,-1,0,64)'
	DD	02H
	DD	00H
	DD	0ffffffffH
	DD	00H
	DD	040H
	DD	FLAT:??_R3CBitmap@@8
rdata$r	ENDS
;	COMDAT ??_R2CBitmap@@8
rdata$r	SEGMENT
??_R2CBitmap@@8 DD FLAT:??_R1A@?0A@EA@CBitmap@@8	; CBitmap::`RTTI Base Class Array'
	DD	FLAT:??_R1A@?0A@EA@CGdiObject@@8
	DD	FLAT:??_R1A@?0A@EA@CObject@@8
rdata$r	ENDS
;	COMDAT ??_R3CBitmap@@8
rdata$r	SEGMENT
??_R3CBitmap@@8 DD 00H					; CBitmap::`RTTI Class Hierarchy Descriptor'
	DD	00H
	DD	03H
	DD	FLAT:??_R2CBitmap@@8
rdata$r	ENDS
;	COMDAT ??_R0?AVCBitmap@@@8
data$rs	SEGMENT
??_R0?AVCBitmap@@@8 DD FLAT:??_7type_info@@6B@		; CBitmap `RTTI Type Descriptor'
	DD	00H
	DB	'.?AVCBitmap@@', 00H
data$rs	ENDS
;	COMDAT ??_R4CBitmap@@6B@
rdata$r	SEGMENT
??_R4CBitmap@@6B@ DD 00H				; CBitmap::`RTTI Complete Object Locator'
	DD	00H
	DD	00H
	DD	FLAT:??_R0?AVCBitmap@@@8
	DD	FLAT:??_R3CBitmap@@8
rdata$r	ENDS
;	COMDAT ??_R1A@?0A@EA@CBrush@@8
rdata$r	SEGMENT
??_R1A@?0A@EA@CBrush@@8 DD FLAT:??_R0?AVCBrush@@@8	; CBrush::`RTTI Base Class Descriptor at (0,-1,0,64)'
	DD	02H
	DD	00H
	DD	0ffffffffH
	DD	00H
	DD	040H
	DD	FLAT:??_R3CBrush@@8
rdata$r	ENDS
;	COMDAT ??_R2CBrush@@8
rdata$r	SEGMENT
??_R2CBrush@@8 DD FLAT:??_R1A@?0A@EA@CBrush@@8		; CBrush::`RTTI Base Class Array'
	DD	FLAT:??_R1A@?0A@EA@CGdiObject@@8
	DD	FLAT:??_R1A@?0A@EA@CObject@@8
rdata$r	ENDS
;	COMDAT ??_R3CBrush@@8
rdata$r	SEGMENT
??_R3CBrush@@8 DD 00H					; CBrush::`RTTI Class Hierarchy Descriptor'
	DD	00H
	DD	03H
	DD	FLAT:??_R2CBrush@@8
rdata$r	ENDS
;	COMDAT ??_R0?AVCBrush@@@8
data$rs	SEGMENT
??_R0?AVCBrush@@@8 DD FLAT:??_7type_info@@6B@		; CBrush `RTTI Type Descriptor'
	DD	00H
	DB	'.?AVCBrush@@', 00H
data$rs	ENDS
;	COMDAT ??_R4CBrush@@6B@
rdata$r	SEGMENT
??_R4CBrush@@6B@ DD 00H					; CBrush::`RTTI Complete Object Locator'
	DD	00H
	DD	00H
	DD	FLAT:??_R0?AVCBrush@@@8
	DD	FLAT:??_R3CBrush@@8
rdata$r	ENDS
;	COMDAT ??_R1A@?0A@EA@CGdiObject@@8
rdata$r	SEGMENT
??_R1A@?0A@EA@CGdiObject@@8 DD FLAT:??_R0?AVCGdiObject@@@8 ; CGdiObject::`RTTI Base Class Descriptor at (0,-1,0,64)'
	DD	01H
	DD	00H
	DD	0ffffffffH
	DD	00H
	DD	040H
	DD	FLAT:??_R3CGdiObject@@8
rdata$r	ENDS
;	COMDAT ??_R2CGdiObject@@8
rdata$r	SEGMENT
??_R2CGdiObject@@8 DD FLAT:??_R1A@?0A@EA@CGdiObject@@8	; CGdiObject::`RTTI Base Class Array'
	DD	FLAT:??_R1A@?0A@EA@CObject@@8
rdata$r	ENDS
;	COMDAT ??_R3CGdiObject@@8
rdata$r	SEGMENT
??_R3CGdiObject@@8 DD 00H				; CGdiObject::`RTTI Class Hierarchy Descriptor'
	DD	00H
	DD	02H
	DD	FLAT:??_R2CGdiObject@@8
rdata$r	ENDS
;	COMDAT ??_R0?AVCGdiObject@@@8
data$rs	SEGMENT
??_R0?AVCGdiObject@@@8 DD FLAT:??_7type_info@@6B@	; CGdiObject `RTTI Type Descriptor'
	DD	00H
	DB	'.?AVCGdiObject@@', 00H
data$rs	ENDS
;	COMDAT ??_R4CGdiObject@@6B@
rdata$r	SEGMENT
??_R4CGdiObject@@6B@ DD 00H				; CGdiObject::`RTTI Complete Object Locator'
	DD	00H
	DD	00H
	DD	FLAT:??_R0?AVCGdiObject@@@8
	DD	FLAT:??_R3CGdiObject@@8
rdata$r	ENDS
;	COMDAT ??_R1A@?0A@EA@CObject@@8
rdata$r	SEGMENT
??_R1A@?0A@EA@CObject@@8 DD FLAT:??_R0?AVCObject@@@8	; CObject::`RTTI Base Class Descriptor at (0,-1,0,64)'
	DD	00H
	DD	00H
	DD	0ffffffffH
	DD	00H
	DD	040H
	DD	FLAT:??_R3CObject@@8
rdata$r	ENDS
;	COMDAT ??_R2CObject@@8
rdata$r	SEGMENT
??_R2CObject@@8 DD FLAT:??_R1A@?0A@EA@CObject@@8	; CObject::`RTTI Base Class Array'
rdata$r	ENDS
;	COMDAT ??_R3CObject@@8
rdata$r	SEGMENT
??_R3CObject@@8 DD 00H					; CObject::`RTTI Class Hierarchy Descriptor'
	DD	00H
	DD	01H
	DD	FLAT:??_R2CObject@@8
rdata$r	ENDS
;	COMDAT ??_R0?AVCObject@@@8
data$rs	SEGMENT
??_R0?AVCObject@@@8 DD FLAT:??_7type_info@@6B@		; CObject `RTTI Type Descriptor'
	DD	00H
	DB	'.?AVCObject@@', 00H
data$rs	ENDS
;	COMDAT ??_C@_01GBGANLPD@0@
CONST	SEGMENT
??_C@_01GBGANLPD@0@ DB '0', 00H				; `string'
CONST	ENDS
;	COMDAT ??_C@_02EMFKHFLK@?$CFX@
CONST	SEGMENT
??_C@_02EMFKHFLK@?$CFX@ DB '%X', 00H			; `string'
CONST	ENDS
;	COMDAT ??_C@_06NDLAHCHE@?$CFs?$CF08X@
CONST	SEGMENT
??_C@_06NDLAHCHE@?$CFs?$CF08X@ DB '%s%08X', 00H		; `string'
CONST	ENDS
;	COMDAT ??_C@_0P@IDMAJEGN@HANAROPCTRMAIN@
CONST	SEGMENT
??_C@_0P@IDMAJEGN@HANAROPCTRMAIN@ DB 'HANAROPCTRMAIN', 00H ; `string'
CONST	ENDS
;	COMDAT ??_C@_0M@CBBNGGHM@PcTrMng?4dll@
CONST	SEGMENT
??_C@_0M@CBBNGGHM@PcTrMng?4dll@ DB 'PcTrMng.dll', 00H	; `string'
CONST	ENDS
;	COMDAT ??_C@_02DKCKIIND@?$CFs@
CONST	SEGMENT
??_C@_02DKCKIIND@?$CFs@ DB '%s', 00H			; `string'
CONST	ENDS
;	COMDAT ??_C@_01HIHLOKLC@1@
CONST	SEGMENT
??_C@_01HIHLOKLC@1@ DB '1', 00H				; `string'
CONST	ENDS
;	COMDAT ??_7CSpinButtonCtrl@@6B@
CONST	SEGMENT
??_7CSpinButtonCtrl@@6B@ DD FLAT:??_R4CSpinButtonCtrl@@6B@ ; CSpinButtonCtrl::`vftable'
	DD	FLAT:?GetRuntimeClass@CSpinButtonCtrl@@UBEPAUCRuntimeClass@@XZ
	DD	FLAT:??_ECSpinButtonCtrl@@UAEPAXI@Z
	DD	FLAT:?Serialize@CObject@@UAEXAAVCArchive@@@Z
	DD	FLAT:?AssertValid@CObject@@UBEXXZ
	DD	FLAT:?Dump@CObject@@UBEXAAVCDumpContext@@@Z
	DD	FLAT:?OnCmdMsg@CCmdTarget@@UAEHIHPAXPAUAFX_CMDHANDLERINFO@@@Z
	DD	FLAT:?OnFinalRelease@CWnd@@UAEXXZ
	DD	FLAT:?IsInvokeAllowed@CCmdTarget@@UAEHJ@Z
	DD	FLAT:?GetDispatchIID@CCmdTarget@@UAEHPAU_GUID@@@Z
	DD	FLAT:?GetTypeInfoCount@CCmdTarget@@UAEIXZ
	DD	FLAT:?GetTypeLibCache@CCmdTarget@@UAEPAVCTypeLibCache@@XZ
	DD	FLAT:?GetTypeLib@CCmdTarget@@UAEJKPAPAUITypeLib@@@Z
	DD	FLAT:?GetMessageMap@CWnd@@MBEPBUAFX_MSGMAP@@XZ
	DD	FLAT:?GetCommandMap@CCmdTarget@@MBEPBUAFX_OLECMDMAP@@XZ
	DD	FLAT:?GetDispatchMap@CCmdTarget@@MBEPBUAFX_DISPMAP@@XZ
	DD	FLAT:?GetConnectionMap@CCmdTarget@@MBEPBUAFX_CONNECTIONMAP@@XZ
	DD	FLAT:?GetInterfaceMap@CWnd@@MBEPBUAFX_INTERFACEMAP@@XZ
	DD	FLAT:?GetEventSinkMap@CCmdTarget@@MBEPBUAFX_EVENTSINKMAP@@XZ
	DD	FLAT:?OnCreateAggregates@CCmdTarget@@UAEHXZ
	DD	FLAT:?GetInterfaceHook@CCmdTarget@@UAEPAUIUnknown@@PBX@Z
	DD	FLAT:?GetExtraConnectionPoints@CCmdTarget@@MAEHPAVCPtrArray@@@Z
	DD	FLAT:?GetConnectionHook@CCmdTarget@@MAEPAUIConnectionPoint@@ABU_GUID@@@Z
	DD	FLAT:?PreSubclassWindow@CWnd@@UAEXXZ
	DD	FLAT:?Create@CWnd@@UAEHPBD0KABUtagRECT@@PAV1@IPAUCCreateContext@@@Z
	DD	FLAT:?CreateEx@CWnd@@UAEHKPBD0KABUtagRECT@@PAV1@IPAX@Z
	DD	FLAT:?CreateEx@CWnd@@UAEHKPBD0KHHHHPAUHWND__@@PAUHMENU__@@PAX@Z
	DD	FLAT:?DestroyWindow@CWnd@@UAEHXZ
	DD	FLAT:?PreCreateWindow@CWnd@@UAEHAAUtagCREATESTRUCTA@@@Z
	DD	FLAT:?CalcWindowRect@CWnd@@UAEXPAUtagRECT@@I@Z
	DD	FLAT:?GetMenu@CWnd@@UBEPAVCMenu@@XZ
	DD	FLAT:?SetMenu@CWnd@@UAEHPAVCMenu@@@Z
	DD	FLAT:?OnToolHitTest@CWnd@@UBEHVCPoint@@PAUtagTOOLINFOA@@@Z
	DD	FLAT:?GetScrollBarCtrl@CWnd@@UBEPAVCScrollBar@@H@Z
	DD	FLAT:?WinHelpA@CWnd@@UAEXKI@Z
	DD	FLAT:?HtmlHelpA@CWnd@@UAEXKI@Z
	DD	FLAT:?WinHelpInternal@CWnd@@UAEXKI@Z
	DD	FLAT:?ContinueModal@CWnd@@UAEHXZ
	DD	FLAT:?EndModalLoop@CWnd@@UAEXH@Z
	DD	FLAT:?OnDrawIconicThumbnailOrLivePreview@CWnd@@UAEXAAVCDC@@VCRect@@VCSize@@HAAH@Z
	DD	FLAT:?EnsureStdObj@CWnd@@UAEJXZ
	DD	FLAT:?get_accParent@CWnd@@UAEJPAPAUIDispatch@@@Z
	DD	FLAT:?get_accChildCount@CWnd@@UAEJPAJ@Z
	DD	FLAT:?get_accChild@CWnd@@UAEJUtagVARIANT@@PAPAUIDispatch@@@Z
	DD	FLAT:?get_accName@CWnd@@UAEJUtagVARIANT@@PAPA_W@Z
	DD	FLAT:?get_accValue@CWnd@@UAEJUtagVARIANT@@PAPA_W@Z
	DD	FLAT:?get_accDescription@CWnd@@UAEJUtagVARIANT@@PAPA_W@Z
	DD	FLAT:?get_accRole@CWnd@@UAEJUtagVARIANT@@PAU2@@Z
	DD	FLAT:?get_accState@CWnd@@UAEJUtagVARIANT@@PAU2@@Z
	DD	FLAT:?get_accHelp@CWnd@@UAEJUtagVARIANT@@PAPA_W@Z
	DD	FLAT:?get_accHelpTopic@CWnd@@UAEJPAPA_WUtagVARIANT@@PAJ@Z
	DD	FLAT:?get_accKeyboardShortcut@CWnd@@UAEJUtagVARIANT@@PAPA_W@Z
	DD	FLAT:?get_accFocus@CWnd@@UAEJPAUtagVARIANT@@@Z
	DD	FLAT:?get_accSelection@CWnd@@UAEJPAUtagVARIANT@@@Z
	DD	FLAT:?get_accDefaultAction@CWnd@@UAEJUtagVARIANT@@PAPA_W@Z
	DD	FLAT:?accSelect@CWnd@@UAEJJUtagVARIANT@@@Z
	DD	FLAT:?accLocation@CWnd@@UAEJPAJ000UtagVARIANT@@@Z
	DD	FLAT:?accNavigate@CWnd@@UAEJJUtagVARIANT@@PAU2@@Z
	DD	FLAT:?accHitTest@CWnd@@UAEJJJPAUtagVARIANT@@@Z
	DD	FLAT:?accDoDefaultAction@CWnd@@UAEJUtagVARIANT@@@Z
	DD	FLAT:?put_accName@CWnd@@UAEJUtagVARIANT@@PA_W@Z
	DD	FLAT:?put_accValue@CWnd@@UAEJUtagVARIANT@@PA_W@Z
	DD	FLAT:?SetProxy@CWnd@@UAEJPAUIAccessibleProxy@@@Z
	DD	FLAT:?CreateAccessibleProxy@CWnd@@UAEJIJPAJ@Z
	DD	FLAT:?OnCommand@CWnd@@MAEHIJ@Z
	DD	FLAT:?OnNotify@CWnd@@MAEHIJPAJ@Z
	DD	FLAT:?GetSuperWndProcAddr@CWnd@@MAEPAP6GJPAUHWND__@@IIJ@ZXZ
	DD	FLAT:?DoDataExchange@CWnd@@MAEXPAVCDataExchange@@@Z
	DD	FLAT:?BeginModalState@CWnd@@UAEXXZ
	DD	FLAT:?EndModalState@CWnd@@UAEXXZ
	DD	FLAT:?PreTranslateMessage@CWnd@@UAEHPAUtagMSG@@@Z
	DD	FLAT:?OnAmbientProperty@CWnd@@UAEHPAVCOleControlSite@@JPAUtagVARIANT@@@Z
	DD	FLAT:?WindowProc@CWnd@@MAEJIIJ@Z
	DD	FLAT:?OnWndMsg@CWnd@@MAEHIIJPAJ@Z
	DD	FLAT:?DefWindowProcA@CWnd@@MAEJIIJ@Z
	DD	FLAT:?PostNcDestroy@CWnd@@MAEXXZ
	DD	FLAT:?OnChildNotify@CWnd@@MAEHIIJPAJ@Z
	DD	FLAT:?OnTouchInputs@CWnd@@MAEHIPAUtagTOUCHINPUT@@@Z
	DD	FLAT:?OnTouchInput@CWnd@@MAEHVCPoint@@HHPAUtagTOUCHINPUT@@@Z
	DD	FLAT:?GetGestureStatus@CWnd@@MAEKVCPoint@@@Z
	DD	FLAT:?OnGestureZoom@CWnd@@MAEHVCPoint@@J@Z
	DD	FLAT:?OnGesturePan@CWnd@@MAEHVCPoint@@0@Z
	DD	FLAT:?OnGestureRotate@CWnd@@MAEHVCPoint@@N@Z
	DD	FLAT:?OnGestureTwoFingerTap@CWnd@@MAEHVCPoint@@@Z
	DD	FLAT:?OnGesturePressAndTap@CWnd@@MAEHVCPoint@@J@Z
	DD	FLAT:?ResizeDynamicLayout@CWnd@@MAEXXZ
	DD	FLAT:?CheckAutoCenter@CWnd@@UAEHXZ
	DD	FLAT:?IsFrameWnd@CWnd@@UBEHXZ
	DD	FLAT:?CreateControlContainer@CWnd@@MAEHPAPAVCOleControlContainer@@@Z
	DD	FLAT:?CreateControlSite@CWnd@@MAEHPAVCOleControlContainer@@PAPAVCOleControlSite@@IABU_GUID@@@Z
	DD	FLAT:?SetOccDialogInfo@CWnd@@MAEHPAU_AFX_OCC_DIALOG_INFO@@@Z
	DD	FLAT:?GetOccDialogInfo@CWnd@@MAEPAU_AFX_OCC_DIALOG_INFO@@XZ
	DD	FLAT:?Create@CSpinButtonCtrl@@UAEHKABUtagRECT@@PAVCWnd@@I@Z
	DD	FLAT:?CreateEx@CSpinButtonCtrl@@UAEHKKABUtagRECT@@PAVCWnd@@I@Z
CONST	ENDS
;	COMDAT ??_C@_0N@OMEMOKLE@?$CFTs?5?$CI?$CFTs?3?$CFd?$CJ@
CONST	SEGMENT
??_C@_0N@OMEMOKLE@?$CFTs?5?$CI?$CFTs?3?$CFd?$CJ@ DB '%Ts (%Ts:%d)', 00H ; `string'
CONST	ENDS
;	COMDAT ??_C@_0BB@HBOOMJBF@?$CFTs?5?$CI?$CFTs?3?$CFd?$CJ?6?$CFTs@
CONST	SEGMENT
??_C@_0BB@HBOOMJBF@?$CFTs?5?$CI?$CFTs?3?$CFd?$CJ?6?$CFTs@ DB '%Ts (%Ts:%d'
	DB	')', 0aH, '%Ts', 00H				; `string'
CONST	ENDS
;	COMDAT ??_C@_0BP@OIEOKIDM@Exception?5thrown?5in?5destructor@
CONST	SEGMENT
??_C@_0BP@OIEOKIDM@Exception?5thrown?5in?5destructor@ DB 'Exception throw'
	DB	'n in destructor', 00H			; `string'
CONST	ENDS
;	COMDAT ??_C@_0HD@JJCHHHNK@C?3?2Program?5Files?5?$CIx86?$CJ?2Microsof@
CONST	SEGMENT
??_C@_0HD@JJCHHHNK@C?3?2Program?5Files?5?$CIx86?$CJ?2Microsof@ DB 'C:\Pro'
	DB	'gram Files (x86)\Microsoft Visual Studio\2019\Community\VC\To'
	DB	'ols\MSVC\14.29.30133\atlmfc\include\afxwin1.inl', 00H ; `string'
CONST	ENDS
;	COMDAT ??_7CComboBox@@6B@
CONST	SEGMENT
??_7CComboBox@@6B@ DD FLAT:??_R4CComboBox@@6B@		; CComboBox::`vftable'
	DD	FLAT:?GetRuntimeClass@CComboBox@@UBEPAUCRuntimeClass@@XZ
	DD	FLAT:??_ECComboBox@@UAEPAXI@Z
	DD	FLAT:?Serialize@CObject@@UAEXAAVCArchive@@@Z
	DD	FLAT:?AssertValid@CObject@@UBEXXZ
	DD	FLAT:?Dump@CObject@@UBEXAAVCDumpContext@@@Z
	DD	FLAT:?OnCmdMsg@CCmdTarget@@UAEHIHPAXPAUAFX_CMDHANDLERINFO@@@Z
	DD	FLAT:?OnFinalRelease@CWnd@@UAEXXZ
	DD	FLAT:?IsInvokeAllowed@CCmdTarget@@UAEHJ@Z
	DD	FLAT:?GetDispatchIID@CCmdTarget@@UAEHPAU_GUID@@@Z
	DD	FLAT:?GetTypeInfoCount@CCmdTarget@@UAEIXZ
	DD	FLAT:?GetTypeLibCache@CCmdTarget@@UAEPAVCTypeLibCache@@XZ
	DD	FLAT:?GetTypeLib@CCmdTarget@@UAEJKPAPAUITypeLib@@@Z
	DD	FLAT:?GetMessageMap@CWnd@@MBEPBUAFX_MSGMAP@@XZ
	DD	FLAT:?GetCommandMap@CCmdTarget@@MBEPBUAFX_OLECMDMAP@@XZ
	DD	FLAT:?GetDispatchMap@CCmdTarget@@MBEPBUAFX_DISPMAP@@XZ
	DD	FLAT:?GetConnectionMap@CCmdTarget@@MBEPBUAFX_CONNECTIONMAP@@XZ
	DD	FLAT:?GetInterfaceMap@CWnd@@MBEPBUAFX_INTERFACEMAP@@XZ
	DD	FLAT:?GetEventSinkMap@CCmdTarget@@MBEPBUAFX_EVENTSINKMAP@@XZ
	DD	FLAT:?OnCreateAggregates@CCmdTarget@@UAEHXZ
	DD	FLAT:?GetInterfaceHook@CCmdTarget@@UAEPAUIUnknown@@PBX@Z
	DD	FLAT:?GetExtraConnectionPoints@CCmdTarget@@MAEHPAVCPtrArray@@@Z
	DD	FLAT:?GetConnectionHook@CCmdTarget@@MAEPAUIConnectionPoint@@ABU_GUID@@@Z
	DD	FLAT:?PreSubclassWindow@CWnd@@UAEXXZ
	DD	FLAT:?Create@CWnd@@UAEHPBD0KABUtagRECT@@PAV1@IPAUCCreateContext@@@Z
	DD	FLAT:?CreateEx@CWnd@@UAEHKPBD0KABUtagRECT@@PAV1@IPAX@Z
	DD	FLAT:?CreateEx@CWnd@@UAEHKPBD0KHHHHPAUHWND__@@PAUHMENU__@@PAX@Z
	DD	FLAT:?DestroyWindow@CWnd@@UAEHXZ
	DD	FLAT:?PreCreateWindow@CWnd@@UAEHAAUtagCREATESTRUCTA@@@Z
	DD	FLAT:?CalcWindowRect@CWnd@@UAEXPAUtagRECT@@I@Z
	DD	FLAT:?GetMenu@CWnd@@UBEPAVCMenu@@XZ
	DD	FLAT:?SetMenu@CWnd@@UAEHPAVCMenu@@@Z
	DD	FLAT:?OnToolHitTest@CWnd@@UBEHVCPoint@@PAUtagTOOLINFOA@@@Z
	DD	FLAT:?GetScrollBarCtrl@CWnd@@UBEPAVCScrollBar@@H@Z
	DD	FLAT:?WinHelpA@CWnd@@UAEXKI@Z
	DD	FLAT:?HtmlHelpA@CWnd@@UAEXKI@Z
	DD	FLAT:?WinHelpInternal@CWnd@@UAEXKI@Z
	DD	FLAT:?ContinueModal@CWnd@@UAEHXZ
	DD	FLAT:?EndModalLoop@CWnd@@UAEXH@Z
	DD	FLAT:?OnDrawIconicThumbnailOrLivePreview@CWnd@@UAEXAAVCDC@@VCRect@@VCSize@@HAAH@Z
	DD	FLAT:?EnsureStdObj@CWnd@@UAEJXZ
	DD	FLAT:?get_accParent@CWnd@@UAEJPAPAUIDispatch@@@Z
	DD	FLAT:?get_accChildCount@CWnd@@UAEJPAJ@Z
	DD	FLAT:?get_accChild@CWnd@@UAEJUtagVARIANT@@PAPAUIDispatch@@@Z
	DD	FLAT:?get_accName@CWnd@@UAEJUtagVARIANT@@PAPA_W@Z
	DD	FLAT:?get_accValue@CWnd@@UAEJUtagVARIANT@@PAPA_W@Z
	DD	FLAT:?get_accDescription@CWnd@@UAEJUtagVARIANT@@PAPA_W@Z
	DD	FLAT:?get_accRole@CWnd@@UAEJUtagVARIANT@@PAU2@@Z
	DD	FLAT:?get_accState@CWnd@@UAEJUtagVARIANT@@PAU2@@Z
	DD	FLAT:?get_accHelp@CWnd@@UAEJUtagVARIANT@@PAPA_W@Z
	DD	FLAT:?get_accHelpTopic@CWnd@@UAEJPAPA_WUtagVARIANT@@PAJ@Z
	DD	FLAT:?get_accKeyboardShortcut@CWnd@@UAEJUtagVARIANT@@PAPA_W@Z
	DD	FLAT:?get_accFocus@CWnd@@UAEJPAUtagVARIANT@@@Z
	DD	FLAT:?get_accSelection@CWnd@@UAEJPAUtagVARIANT@@@Z
	DD	FLAT:?get_accDefaultAction@CWnd@@UAEJUtagVARIANT@@PAPA_W@Z
	DD	FLAT:?accSelect@CWnd@@UAEJJUtagVARIANT@@@Z
	DD	FLAT:?accLocation@CWnd@@UAEJPAJ000UtagVARIANT@@@Z
	DD	FLAT:?accNavigate@CWnd@@UAEJJUtagVARIANT@@PAU2@@Z
	DD	FLAT:?accHitTest@CWnd@@UAEJJJPAUtagVARIANT@@@Z
	DD	FLAT:?accDoDefaultAction@CWnd@@UAEJUtagVARIANT@@@Z
	DD	FLAT:?put_accName@CWnd@@UAEJUtagVARIANT@@PA_W@Z
	DD	FLAT:?put_accValue@CWnd@@UAEJUtagVARIANT@@PA_W@Z
	DD	FLAT:?SetProxy@CWnd@@UAEJPAUIAccessibleProxy@@@Z
	DD	FLAT:?CreateAccessibleProxy@CWnd@@UAEJIJPAJ@Z
	DD	FLAT:?OnCommand@CWnd@@MAEHIJ@Z
	DD	FLAT:?OnNotify@CWnd@@MAEHIJPAJ@Z
	DD	FLAT:?GetSuperWndProcAddr@CWnd@@MAEPAP6GJPAUHWND__@@IIJ@ZXZ
	DD	FLAT:?DoDataExchange@CWnd@@MAEXPAVCDataExchange@@@Z
	DD	FLAT:?BeginModalState@CWnd@@UAEXXZ
	DD	FLAT:?EndModalState@CWnd@@UAEXXZ
	DD	FLAT:?PreTranslateMessage@CWnd@@UAEHPAUtagMSG@@@Z
	DD	FLAT:?OnAmbientProperty@CWnd@@UAEHPAVCOleControlSite@@JPAUtagVARIANT@@@Z
	DD	FLAT:?WindowProc@CWnd@@MAEJIIJ@Z
	DD	FLAT:?OnWndMsg@CWnd@@MAEHIIJPAJ@Z
	DD	FLAT:?DefWindowProcA@CWnd@@MAEJIIJ@Z
	DD	FLAT:?PostNcDestroy@CWnd@@MAEXXZ
	DD	FLAT:?OnChildNotify@CComboBox@@MAEHIIJPAJ@Z
	DD	FLAT:?OnTouchInputs@CWnd@@MAEHIPAUtagTOUCHINPUT@@@Z
	DD	FLAT:?OnTouchInput@CWnd@@MAEHVCPoint@@HHPAUtagTOUCHINPUT@@@Z
	DD	FLAT:?GetGestureStatus@CWnd@@MAEKVCPoint@@@Z
	DD	FLAT:?OnGestureZoom@CWnd@@MAEHVCPoint@@J@Z
	DD	FLAT:?OnGesturePan@CWnd@@MAEHVCPoint@@0@Z
	DD	FLAT:?OnGestureRotate@CWnd@@MAEHVCPoint@@N@Z
	DD	FLAT:?OnGestureTwoFingerTap@CWnd@@MAEHVCPoint@@@Z
	DD	FLAT:?OnGesturePressAndTap@CWnd@@MAEHVCPoint@@J@Z
	DD	FLAT:?ResizeDynamicLayout@CWnd@@MAEXXZ
	DD	FLAT:?CheckAutoCenter@CWnd@@UAEHXZ
	DD	FLAT:?IsFrameWnd@CWnd@@UBEHXZ
	DD	FLAT:?CreateControlContainer@CWnd@@MAEHPAPAVCOleControlContainer@@@Z
	DD	FLAT:?CreateControlSite@CWnd@@MAEHPAVCOleControlContainer@@PAPAVCOleControlSite@@IABU_GUID@@@Z
	DD	FLAT:?SetOccDialogInfo@CWnd@@MAEHPAU_AFX_OCC_DIALOG_INFO@@@Z
	DD	FLAT:?GetOccDialogInfo@CWnd@@MAEPAU_AFX_OCC_DIALOG_INFO@@XZ
	DD	FLAT:?Create@CComboBox@@UAEHKABUtagRECT@@PAVCWnd@@I@Z
	DD	FLAT:?DrawItem@CComboBox@@UAEXPAUtagDRAWITEMSTRUCT@@@Z
	DD	FLAT:?MeasureItem@CComboBox@@UAEXPAUtagMEASUREITEMSTRUCT@@@Z
	DD	FLAT:?CompareItem@CComboBox@@UAEHPAUtagCOMPAREITEMSTRUCT@@@Z
	DD	FLAT:?DeleteItem@CComboBox@@UAEXPAUtagDELETEITEMSTRUCT@@@Z
CONST	ENDS
;	COMDAT ??_7CButton@@6B@
CONST	SEGMENT
??_7CButton@@6B@ DD FLAT:??_R4CButton@@6B@		; CButton::`vftable'
	DD	FLAT:?GetRuntimeClass@CButton@@UBEPAUCRuntimeClass@@XZ
	DD	FLAT:??_ECButton@@UAEPAXI@Z
	DD	FLAT:?Serialize@CObject@@UAEXAAVCArchive@@@Z
	DD	FLAT:?AssertValid@CObject@@UBEXXZ
	DD	FLAT:?Dump@CObject@@UBEXAAVCDumpContext@@@Z
	DD	FLAT:?OnCmdMsg@CCmdTarget@@UAEHIHPAXPAUAFX_CMDHANDLERINFO@@@Z
	DD	FLAT:?OnFinalRelease@CWnd@@UAEXXZ
	DD	FLAT:?IsInvokeAllowed@CCmdTarget@@UAEHJ@Z
	DD	FLAT:?GetDispatchIID@CCmdTarget@@UAEHPAU_GUID@@@Z
	DD	FLAT:?GetTypeInfoCount@CCmdTarget@@UAEIXZ
	DD	FLAT:?GetTypeLibCache@CCmdTarget@@UAEPAVCTypeLibCache@@XZ
	DD	FLAT:?GetTypeLib@CCmdTarget@@UAEJKPAPAUITypeLib@@@Z
	DD	FLAT:?GetMessageMap@CWnd@@MBEPBUAFX_MSGMAP@@XZ
	DD	FLAT:?GetCommandMap@CCmdTarget@@MBEPBUAFX_OLECMDMAP@@XZ
	DD	FLAT:?GetDispatchMap@CCmdTarget@@MBEPBUAFX_DISPMAP@@XZ
	DD	FLAT:?GetConnectionMap@CCmdTarget@@MBEPBUAFX_CONNECTIONMAP@@XZ
	DD	FLAT:?GetInterfaceMap@CWnd@@MBEPBUAFX_INTERFACEMAP@@XZ
	DD	FLAT:?GetEventSinkMap@CCmdTarget@@MBEPBUAFX_EVENTSINKMAP@@XZ
	DD	FLAT:?OnCreateAggregates@CCmdTarget@@UAEHXZ
	DD	FLAT:?GetInterfaceHook@CCmdTarget@@UAEPAUIUnknown@@PBX@Z
	DD	FLAT:?GetExtraConnectionPoints@CCmdTarget@@MAEHPAVCPtrArray@@@Z
	DD	FLAT:?GetConnectionHook@CCmdTarget@@MAEPAUIConnectionPoint@@ABU_GUID@@@Z
	DD	FLAT:?PreSubclassWindow@CWnd@@UAEXXZ
	DD	FLAT:?Create@CWnd@@UAEHPBD0KABUtagRECT@@PAV1@IPAUCCreateContext@@@Z
	DD	FLAT:?CreateEx@CWnd@@UAEHKPBD0KABUtagRECT@@PAV1@IPAX@Z
	DD	FLAT:?CreateEx@CWnd@@UAEHKPBD0KHHHHPAUHWND__@@PAUHMENU__@@PAX@Z
	DD	FLAT:?DestroyWindow@CWnd@@UAEHXZ
	DD	FLAT:?PreCreateWindow@CWnd@@UAEHAAUtagCREATESTRUCTA@@@Z
	DD	FLAT:?CalcWindowRect@CWnd@@UAEXPAUtagRECT@@I@Z
	DD	FLAT:?GetMenu@CWnd@@UBEPAVCMenu@@XZ
	DD	FLAT:?SetMenu@CWnd@@UAEHPAVCMenu@@@Z
	DD	FLAT:?OnToolHitTest@CWnd@@UBEHVCPoint@@PAUtagTOOLINFOA@@@Z
	DD	FLAT:?GetScrollBarCtrl@CWnd@@UBEPAVCScrollBar@@H@Z
	DD	FLAT:?WinHelpA@CWnd@@UAEXKI@Z
	DD	FLAT:?HtmlHelpA@CWnd@@UAEXKI@Z
	DD	FLAT:?WinHelpInternal@CWnd@@UAEXKI@Z
	DD	FLAT:?ContinueModal@CWnd@@UAEHXZ
	DD	FLAT:?EndModalLoop@CWnd@@UAEXH@Z
	DD	FLAT:?OnDrawIconicThumbnailOrLivePreview@CWnd@@UAEXAAVCDC@@VCRect@@VCSize@@HAAH@Z
	DD	FLAT:?EnsureStdObj@CWnd@@UAEJXZ
	DD	FLAT:?get_accParent@CWnd@@UAEJPAPAUIDispatch@@@Z
	DD	FLAT:?get_accChildCount@CWnd@@UAEJPAJ@Z
	DD	FLAT:?get_accChild@CWnd@@UAEJUtagVARIANT@@PAPAUIDispatch@@@Z
	DD	FLAT:?get_accName@CWnd@@UAEJUtagVARIANT@@PAPA_W@Z
	DD	FLAT:?get_accValue@CWnd@@UAEJUtagVARIANT@@PAPA_W@Z
	DD	FLAT:?get_accDescription@CWnd@@UAEJUtagVARIANT@@PAPA_W@Z
	DD	FLAT:?get_accRole@CWnd@@UAEJUtagVARIANT@@PAU2@@Z
	DD	FLAT:?get_accState@CWnd@@UAEJUtagVARIANT@@PAU2@@Z
	DD	FLAT:?get_accHelp@CWnd@@UAEJUtagVARIANT@@PAPA_W@Z
	DD	FLAT:?get_accHelpTopic@CWnd@@UAEJPAPA_WUtagVARIANT@@PAJ@Z
	DD	FLAT:?get_accKeyboardShortcut@CWnd@@UAEJUtagVARIANT@@PAPA_W@Z
	DD	FLAT:?get_accFocus@CWnd@@UAEJPAUtagVARIANT@@@Z
	DD	FLAT:?get_accSelection@CWnd@@UAEJPAUtagVARIANT@@@Z
	DD	FLAT:?get_accDefaultAction@CWnd@@UAEJUtagVARIANT@@PAPA_W@Z
	DD	FLAT:?accSelect@CWnd@@UAEJJUtagVARIANT@@@Z
	DD	FLAT:?accLocation@CWnd@@UAEJPAJ000UtagVARIANT@@@Z
	DD	FLAT:?accNavigate@CWnd@@UAEJJUtagVARIANT@@PAU2@@Z
	DD	FLAT:?accHitTest@CWnd@@UAEJJJPAUtagVARIANT@@@Z
	DD	FLAT:?accDoDefaultAction@CWnd@@UAEJUtagVARIANT@@@Z
	DD	FLAT:?put_accName@CWnd@@UAEJUtagVARIANT@@PA_W@Z
	DD	FLAT:?put_accValue@CWnd@@UAEJUtagVARIANT@@PA_W@Z
	DD	FLAT:?SetProxy@CWnd@@UAEJPAUIAccessibleProxy@@@Z
	DD	FLAT:?CreateAccessibleProxy@CWnd@@UAEJIJPAJ@Z
	DD	FLAT:?OnCommand@CWnd@@MAEHIJ@Z
	DD	FLAT:?OnNotify@CWnd@@MAEHIJPAJ@Z
	DD	FLAT:?GetSuperWndProcAddr@CWnd@@MAEPAP6GJPAUHWND__@@IIJ@ZXZ
	DD	FLAT:?DoDataExchange@CWnd@@MAEXPAVCDataExchange@@@Z
	DD	FLAT:?BeginModalState@CWnd@@UAEXXZ
	DD	FLAT:?EndModalState@CWnd@@UAEXXZ
	DD	FLAT:?PreTranslateMessage@CWnd@@UAEHPAUtagMSG@@@Z
	DD	FLAT:?OnAmbientProperty@CWnd@@UAEHPAVCOleControlSite@@JPAUtagVARIANT@@@Z
	DD	FLAT:?WindowProc@CWnd@@MAEJIIJ@Z
	DD	FLAT:?OnWndMsg@CWnd@@MAEHIIJPAJ@Z
	DD	FLAT:?DefWindowProcA@CWnd@@MAEJIIJ@Z
	DD	FLAT:?PostNcDestroy@CWnd@@MAEXXZ
	DD	FLAT:?OnChildNotify@CButton@@MAEHIIJPAJ@Z
	DD	FLAT:?OnTouchInputs@CWnd@@MAEHIPAUtagTOUCHINPUT@@@Z
	DD	FLAT:?OnTouchInput@CWnd@@MAEHVCPoint@@HHPAUtagTOUCHINPUT@@@Z
	DD	FLAT:?GetGestureStatus@CWnd@@MAEKVCPoint@@@Z
	DD	FLAT:?OnGestureZoom@CWnd@@MAEHVCPoint@@J@Z
	DD	FLAT:?OnGesturePan@CWnd@@MAEHVCPoint@@0@Z
	DD	FLAT:?OnGestureRotate@CWnd@@MAEHVCPoint@@N@Z
	DD	FLAT:?OnGestureTwoFingerTap@CWnd@@MAEHVCPoint@@@Z
	DD	FLAT:?OnGesturePressAndTap@CWnd@@MAEHVCPoint@@J@Z
	DD	FLAT:?ResizeDynamicLayout@CWnd@@MAEXXZ
	DD	FLAT:?CheckAutoCenter@CWnd@@UAEHXZ
	DD	FLAT:?IsFrameWnd@CWnd@@UBEHXZ
	DD	FLAT:?CreateControlContainer@CWnd@@MAEHPAPAVCOleControlContainer@@@Z
	DD	FLAT:?CreateControlSite@CWnd@@MAEHPAVCOleControlContainer@@PAPAVCOleControlSite@@IABU_GUID@@@Z
	DD	FLAT:?SetOccDialogInfo@CWnd@@MAEHPAU_AFX_OCC_DIALOG_INFO@@@Z
	DD	FLAT:?GetOccDialogInfo@CWnd@@MAEPAU_AFX_OCC_DIALOG_INFO@@XZ
	DD	FLAT:?Create@CButton@@UAEHPBDKABUtagRECT@@PAVCWnd@@I@Z
	DD	FLAT:?DrawItem@CButton@@UAEXPAUtagDRAWITEMSTRUCT@@@Z
CONST	ENDS
;	COMDAT ??_7CStatic@@6B@
CONST	SEGMENT
??_7CStatic@@6B@ DD FLAT:??_R4CStatic@@6B@		; CStatic::`vftable'
	DD	FLAT:?GetRuntimeClass@CStatic@@UBEPAUCRuntimeClass@@XZ
	DD	FLAT:??_ECStatic@@UAEPAXI@Z
	DD	FLAT:?Serialize@CObject@@UAEXAAVCArchive@@@Z
	DD	FLAT:?AssertValid@CObject@@UBEXXZ
	DD	FLAT:?Dump@CObject@@UBEXAAVCDumpContext@@@Z
	DD	FLAT:?OnCmdMsg@CCmdTarget@@UAEHIHPAXPAUAFX_CMDHANDLERINFO@@@Z
	DD	FLAT:?OnFinalRelease@CWnd@@UAEXXZ
	DD	FLAT:?IsInvokeAllowed@CCmdTarget@@UAEHJ@Z
	DD	FLAT:?GetDispatchIID@CCmdTarget@@UAEHPAU_GUID@@@Z
	DD	FLAT:?GetTypeInfoCount@CCmdTarget@@UAEIXZ
	DD	FLAT:?GetTypeLibCache@CCmdTarget@@UAEPAVCTypeLibCache@@XZ
	DD	FLAT:?GetTypeLib@CCmdTarget@@UAEJKPAPAUITypeLib@@@Z
	DD	FLAT:?GetMessageMap@CWnd@@MBEPBUAFX_MSGMAP@@XZ
	DD	FLAT:?GetCommandMap@CCmdTarget@@MBEPBUAFX_OLECMDMAP@@XZ
	DD	FLAT:?GetDispatchMap@CCmdTarget@@MBEPBUAFX_DISPMAP@@XZ
	DD	FLAT:?GetConnectionMap@CCmdTarget@@MBEPBUAFX_CONNECTIONMAP@@XZ
	DD	FLAT:?GetInterfaceMap@CWnd@@MBEPBUAFX_INTERFACEMAP@@XZ
	DD	FLAT:?GetEventSinkMap@CCmdTarget@@MBEPBUAFX_EVENTSINKMAP@@XZ
	DD	FLAT:?OnCreateAggregates@CCmdTarget@@UAEHXZ
	DD	FLAT:?GetInterfaceHook@CCmdTarget@@UAEPAUIUnknown@@PBX@Z
	DD	FLAT:?GetExtraConnectionPoints@CCmdTarget@@MAEHPAVCPtrArray@@@Z
	DD	FLAT:?GetConnectionHook@CCmdTarget@@MAEPAUIConnectionPoint@@ABU_GUID@@@Z
	DD	FLAT:?PreSubclassWindow@CWnd@@UAEXXZ
	DD	FLAT:?Create@CWnd@@UAEHPBD0KABUtagRECT@@PAV1@IPAUCCreateContext@@@Z
	DD	FLAT:?CreateEx@CWnd@@UAEHKPBD0KABUtagRECT@@PAV1@IPAX@Z
	DD	FLAT:?CreateEx@CWnd@@UAEHKPBD0KHHHHPAUHWND__@@PAUHMENU__@@PAX@Z
	DD	FLAT:?DestroyWindow@CWnd@@UAEHXZ
	DD	FLAT:?PreCreateWindow@CWnd@@UAEHAAUtagCREATESTRUCTA@@@Z
	DD	FLAT:?CalcWindowRect@CWnd@@UAEXPAUtagRECT@@I@Z
	DD	FLAT:?GetMenu@CWnd@@UBEPAVCMenu@@XZ
	DD	FLAT:?SetMenu@CWnd@@UAEHPAVCMenu@@@Z
	DD	FLAT:?OnToolHitTest@CWnd@@UBEHVCPoint@@PAUtagTOOLINFOA@@@Z
	DD	FLAT:?GetScrollBarCtrl@CWnd@@UBEPAVCScrollBar@@H@Z
	DD	FLAT:?WinHelpA@CWnd@@UAEXKI@Z
	DD	FLAT:?HtmlHelpA@CWnd@@UAEXKI@Z
	DD	FLAT:?WinHelpInternal@CWnd@@UAEXKI@Z
	DD	FLAT:?ContinueModal@CWnd@@UAEHXZ
	DD	FLAT:?EndModalLoop@CWnd@@UAEXH@Z
	DD	FLAT:?OnDrawIconicThumbnailOrLivePreview@CWnd@@UAEXAAVCDC@@VCRect@@VCSize@@HAAH@Z
	DD	FLAT:?EnsureStdObj@CWnd@@UAEJXZ
	DD	FLAT:?get_accParent@CWnd@@UAEJPAPAUIDispatch@@@Z
	DD	FLAT:?get_accChildCount@CWnd@@UAEJPAJ@Z
	DD	FLAT:?get_accChild@CWnd@@UAEJUtagVARIANT@@PAPAUIDispatch@@@Z
	DD	FLAT:?get_accName@CWnd@@UAEJUtagVARIANT@@PAPA_W@Z
	DD	FLAT:?get_accValue@CWnd@@UAEJUtagVARIANT@@PAPA_W@Z
	DD	FLAT:?get_accDescription@CWnd@@UAEJUtagVARIANT@@PAPA_W@Z
	DD	FLAT:?get_accRole@CWnd@@UAEJUtagVARIANT@@PAU2@@Z
	DD	FLAT:?get_accState@CWnd@@UAEJUtagVARIANT@@PAU2@@Z
	DD	FLAT:?get_accHelp@CWnd@@UAEJUtagVARIANT@@PAPA_W@Z
	DD	FLAT:?get_accHelpTopic@CWnd@@UAEJPAPA_WUtagVARIANT@@PAJ@Z
	DD	FLAT:?get_accKeyboardShortcut@CWnd@@UAEJUtagVARIANT@@PAPA_W@Z
	DD	FLAT:?get_accFocus@CWnd@@UAEJPAUtagVARIANT@@@Z
	DD	FLAT:?get_accSelection@CWnd@@UAEJPAUtagVARIANT@@@Z
	DD	FLAT:?get_accDefaultAction@CWnd@@UAEJUtagVARIANT@@PAPA_W@Z
	DD	FLAT:?accSelect@CWnd@@UAEJJUtagVARIANT@@@Z
	DD	FLAT:?accLocation@CWnd@@UAEJPAJ000UtagVARIANT@@@Z
	DD	FLAT:?accNavigate@CWnd@@UAEJJUtagVARIANT@@PAU2@@Z
	DD	FLAT:?accHitTest@CWnd@@UAEJJJPAUtagVARIANT@@@Z
	DD	FLAT:?accDoDefaultAction@CWnd@@UAEJUtagVARIANT@@@Z
	DD	FLAT:?put_accName@CWnd@@UAEJUtagVARIANT@@PA_W@Z
	DD	FLAT:?put_accValue@CWnd@@UAEJUtagVARIANT@@PA_W@Z
	DD	FLAT:?SetProxy@CWnd@@UAEJPAUIAccessibleProxy@@@Z
	DD	FLAT:?CreateAccessibleProxy@CWnd@@UAEJIJPAJ@Z
	DD	FLAT:?OnCommand@CWnd@@MAEHIJ@Z
	DD	FLAT:?OnNotify@CWnd@@MAEHIJPAJ@Z
	DD	FLAT:?GetSuperWndProcAddr@CWnd@@MAEPAP6GJPAUHWND__@@IIJ@ZXZ
	DD	FLAT:?DoDataExchange@CWnd@@MAEXPAVCDataExchange@@@Z
	DD	FLAT:?BeginModalState@CWnd@@UAEXXZ
	DD	FLAT:?EndModalState@CWnd@@UAEXXZ
	DD	FLAT:?PreTranslateMessage@CWnd@@UAEHPAUtagMSG@@@Z
	DD	FLAT:?OnAmbientProperty@CWnd@@UAEHPAVCOleControlSite@@JPAUtagVARIANT@@@Z
	DD	FLAT:?WindowProc@CWnd@@MAEJIIJ@Z
	DD	FLAT:?OnWndMsg@CWnd@@MAEHIIJPAJ@Z
	DD	FLAT:?DefWindowProcA@CWnd@@MAEJIIJ@Z
	DD	FLAT:?PostNcDestroy@CWnd@@MAEXXZ
	DD	FLAT:?OnChildNotify@CStatic@@MAEHIIJPAJ@Z
	DD	FLAT:?OnTouchInputs@CWnd@@MAEHIPAUtagTOUCHINPUT@@@Z
	DD	FLAT:?OnTouchInput@CWnd@@MAEHVCPoint@@HHPAUtagTOUCHINPUT@@@Z
	DD	FLAT:?GetGestureStatus@CWnd@@MAEKVCPoint@@@Z
	DD	FLAT:?OnGestureZoom@CWnd@@MAEHVCPoint@@J@Z
	DD	FLAT:?OnGesturePan@CWnd@@MAEHVCPoint@@0@Z
	DD	FLAT:?OnGestureRotate@CWnd@@MAEHVCPoint@@N@Z
	DD	FLAT:?OnGestureTwoFingerTap@CWnd@@MAEHVCPoint@@@Z
	DD	FLAT:?OnGesturePressAndTap@CWnd@@MAEHVCPoint@@J@Z
	DD	FLAT:?ResizeDynamicLayout@CWnd@@MAEXXZ
	DD	FLAT:?CheckAutoCenter@CWnd@@UAEHXZ
	DD	FLAT:?IsFrameWnd@CWnd@@UBEHXZ
	DD	FLAT:?CreateControlContainer@CWnd@@MAEHPAPAVCOleControlContainer@@@Z
	DD	FLAT:?CreateControlSite@CWnd@@MAEHPAVCOleControlContainer@@PAPAVCOleControlSite@@IABU_GUID@@@Z
	DD	FLAT:?SetOccDialogInfo@CWnd@@MAEHPAU_AFX_OCC_DIALOG_INFO@@@Z
	DD	FLAT:?GetOccDialogInfo@CWnd@@MAEPAU_AFX_OCC_DIALOG_INFO@@XZ
	DD	FLAT:?Create@CStatic@@UAEHPBDKABUtagRECT@@PAVCWnd@@I@Z
	DD	FLAT:?DrawItem@CStatic@@UAEXPAUtagDRAWITEMSTRUCT@@@Z
CONST	ENDS
;	COMDAT ??_7CMenu@@6B@
CONST	SEGMENT
??_7CMenu@@6B@ DD FLAT:??_R4CMenu@@6B@			; CMenu::`vftable'
	DD	FLAT:?GetRuntimeClass@CMenu@@UBEPAUCRuntimeClass@@XZ
	DD	FLAT:??_ECMenu@@UAEPAXI@Z
	DD	FLAT:?Serialize@CObject@@UAEXAAVCArchive@@@Z
	DD	FLAT:?AssertValid@CObject@@UBEXXZ
	DD	FLAT:?Dump@CObject@@UBEXAAVCDumpContext@@@Z
	DD	FLAT:?DrawItem@CMenu@@UAEXPAUtagDRAWITEMSTRUCT@@@Z
	DD	FLAT:?MeasureItem@CMenu@@UAEXPAUtagMEASUREITEMSTRUCT@@@Z
CONST	ENDS
;	COMDAT ??_7CBitmap@@6B@
CONST	SEGMENT
??_7CBitmap@@6B@ DD FLAT:??_R4CBitmap@@6B@		; CBitmap::`vftable'
	DD	FLAT:?GetRuntimeClass@CBitmap@@UBEPAUCRuntimeClass@@XZ
	DD	FLAT:??_ECBitmap@@UAEPAXI@Z
	DD	FLAT:?Serialize@CObject@@UAEXAAVCArchive@@@Z
	DD	FLAT:?AssertValid@CObject@@UBEXXZ
	DD	FLAT:?Dump@CObject@@UBEXAAVCDumpContext@@@Z
CONST	ENDS
;	COMDAT ??_7CBrush@@6B@
CONST	SEGMENT
??_7CBrush@@6B@ DD FLAT:??_R4CBrush@@6B@		; CBrush::`vftable'
	DD	FLAT:?GetRuntimeClass@CBrush@@UBEPAUCRuntimeClass@@XZ
	DD	FLAT:??_ECBrush@@UAEPAXI@Z
	DD	FLAT:?Serialize@CObject@@UAEXAAVCArchive@@@Z
	DD	FLAT:?AssertValid@CObject@@UBEXXZ
	DD	FLAT:?Dump@CObject@@UBEXAAVCDumpContext@@@Z
CONST	ENDS
;	COMDAT ??_7CGdiObject@@6B@
CONST	SEGMENT
??_7CGdiObject@@6B@ DD FLAT:??_R4CGdiObject@@6B@	; CGdiObject::`vftable'
	DD	FLAT:?GetRuntimeClass@CGdiObject@@UBEPAUCRuntimeClass@@XZ
	DD	FLAT:??_ECGdiObject@@UAEPAXI@Z
	DD	FLAT:?Serialize@CObject@@UAEXAAVCArchive@@@Z
	DD	FLAT:?AssertValid@CObject@@UBEXXZ
	DD	FLAT:?Dump@CObject@@UBEXAAVCDumpContext@@@Z
CONST	ENDS
;	COMDAT ??_C@_00CNPNBAHC@@
CONST	SEGMENT
??_C@_00CNPNBAHC@@ DB 00H				; `string'
CONST	ENDS
;	COMDAT ?_AtlWinModule@ATL@@3VCAtlWinModule@1@A
_DATA	SEGMENT
?_AtlWinModule@ATL@@3VCAtlWinModule@1@A DD 02cH		; ATL::_AtlWinModule
	DB	24 DUP(00H)
	DD	00H
_DATA	ENDS
;	COMDAT ??_C@_02DPKJAMEF@?$CFd@
CONST	SEGMENT
??_C@_02DPKJAMEF@?$CFd@ DB '%d', 00H			; `string'
CONST	ENDS
;	COMDAT ??_R0PAVCException@@@8
data$r	SEGMENT
??_R0PAVCException@@@8 DD FLAT:??_7type_info@@6B@	; CException * `RTTI Type Descriptor'
	DD	00H
	DB	'.PAVCException@@', 00H
data$r	ENDS
;	COMDAT xdata$x
xdata$x	SEGMENT
__unwindtable$??1CInputBarDlg@@UAE@XZ DD 0ffffffffH
	DD	FLAT:___std_terminate
	DD	0ffffffffH
	DD	FLAT:___std_terminate
	DD	0ffffffffH
	DD	FLAT:___std_terminate
	DD	0ffffffffH
	DD	FLAT:___std_terminate
__ehfuncinfo$??1CInputBarDlg@@UAE@XZ DD 019930522H
	DD	04H
	DD	FLAT:__unwindtable$??1CInputBarDlg@@UAE@XZ
	DD	2 DUP(00H)
	DD	2 DUP(00H)
	DD	00H
	DD	05H
xdata$x	ENDS
;	COMDAT xdata$x
xdata$x	SEGMENT
__unwindtable$?SendSymbol@CInputBarDlg@@QAEXV?$CStringT@DV?$StrTraitMFC_DLL@DV?$ChTraitsCRT@D@ATL@@@@@ATL@@@Z DD 0ffffffffH
	DD	FLAT:__unwindfunclet$?SendSymbol@CInputBarDlg@@QAEXV?$CStringT@DV?$StrTraitMFC_DLL@DV?$ChTraitsCRT@D@ATL@@@@@ATL@@@Z$0
	DD	00H
	DD	FLAT:__unwindfunclet$?SendSymbol@CInputBarDlg@@QAEXV?$CStringT@DV?$StrTraitMFC_DLL@DV?$ChTraitsCRT@D@ATL@@@@@ATL@@@Z$1
__ehfuncinfo$?SendSymbol@CInputBarDlg@@QAEXV?$CStringT@DV?$StrTraitMFC_DLL@DV?$ChTraitsCRT@D@ATL@@@@@ATL@@@Z DD 019930522H
	DD	02H
	DD	FLAT:__unwindtable$?SendSymbol@CInputBarDlg@@QAEXV?$CStringT@DV?$StrTraitMFC_DLL@DV?$ChTraitsCRT@D@ATL@@@@@ATL@@@Z
	DD	2 DUP(00H)
	DD	2 DUP(00H)
	DD	00H
	DD	01H
xdata$x	ENDS
;	COMDAT xdata$x
xdata$x	SEGMENT
__ehfuncinfo$?ParsingSymbol@CInputBarDlg@@QAEXPAD@Z DD 019930522H
	DD	05H
	DD	FLAT:__unwindtable$?ParsingSymbol@CInputBarDlg@@QAEXPAD@Z
	DD	2 DUP(00H)
	DD	2 DUP(00H)
	DD	00H
	DD	01H
__unwindtable$?ParsingSymbol@CInputBarDlg@@QAEXPAD@Z DD 0ffffffffH
	DD	FLAT:__unwindfunclet$?ParsingSymbol@CInputBarDlg@@QAEXPAD@Z$0
	DD	00H
	DD	FLAT:__unwindfunclet$?ParsingSymbol@CInputBarDlg@@QAEXPAD@Z$1
	DD	00H
	DD	FLAT:__unwindfunclet$?ParsingSymbol@CInputBarDlg@@QAEXPAD@Z$2
	DD	02H
	DD	FLAT:__unwindfunclet$?ParsingSymbol@CInputBarDlg@@QAEXPAD@Z$3
	DD	02H
	DD	FLAT:__unwindfunclet$?ParsingSymbol@CInputBarDlg@@QAEXPAD@Z$4
xdata$x	ENDS
;	COMDAT xdata$x
xdata$x	SEGMENT
__unwindtable$?SetInitSymbol@CInputBarDlg@@QAEXXZ DD 0ffffffffH
	DD	FLAT:__unwindfunclet$?SetInitSymbol@CInputBarDlg@@QAEXXZ$0
	DD	00H
	DD	FLAT:__unwindfunclet$?SetInitSymbol@CInputBarDlg@@QAEXXZ$1
__ehfuncinfo$?SetInitSymbol@CInputBarDlg@@QAEXXZ DD 019930522H
	DD	02H
	DD	FLAT:__unwindtable$?SetInitSymbol@CInputBarDlg@@QAEXXZ
	DD	2 DUP(00H)
	DD	2 DUP(00H)
	DD	00H
	DD	01H
xdata$x	ENDS
;	COMDAT xdata$x
xdata$x	SEGMENT
__unwindtable$?GetOldFututureCodeName@CInputBarDlg@@QAEHPBDAAV?$CStringT@DV?$StrTraitMFC_DLL@DV?$ChTraitsCRT@D@ATL@@@@@ATL@@@Z DD 0ffffffffH
	DD	FLAT:__unwindfunclet$?GetOldFututureCodeName@CInputBarDlg@@QAEHPBDAAV?$CStringT@DV?$StrTraitMFC_DLL@DV?$ChTraitsCRT@D@ATL@@@@@ATL@@@Z$1
__ehfuncinfo$?GetOldFututureCodeName@CInputBarDlg@@QAEHPBDAAV?$CStringT@DV?$StrTraitMFC_DLL@DV?$ChTraitsCRT@D@ATL@@@@@ATL@@@Z DD 019930522H
	DD	01H
	DD	FLAT:__unwindtable$?GetOldFututureCodeName@CInputBarDlg@@QAEHPBDAAV?$CStringT@DV?$StrTraitMFC_DLL@DV?$ChTraitsCRT@D@ATL@@@@@ATL@@@Z
	DD	2 DUP(00H)
	DD	2 DUP(00H)
	DD	00H
	DD	01H
xdata$x	ENDS
;	COMDAT xdata$x
xdata$x	SEGMENT
__unwindtable$?DoSelchangeCodeInput@CInputBarDlg@@QAEXXZ DD 0ffffffffH
	DD	FLAT:__unwindfunclet$?DoSelchangeCodeInput@CInputBarDlg@@QAEXXZ$0
	DD	00H
	DD	FLAT:__unwindfunclet$?DoSelchangeCodeInput@CInputBarDlg@@QAEXXZ$2
	DD	01H
	DD	FLAT:__unwindfunclet$?DoSelchangeCodeInput@CInputBarDlg@@QAEXXZ$3
__ehfuncinfo$?DoSelchangeCodeInput@CInputBarDlg@@QAEXXZ DD 019930522H
	DD	03H
	DD	FLAT:__unwindtable$?DoSelchangeCodeInput@CInputBarDlg@@QAEXXZ
	DD	2 DUP(00H)
	DD	2 DUP(00H)
	DD	00H
	DD	01H
xdata$x	ENDS
;	COMDAT xdata$x
xdata$x	SEGMENT
__ehfuncinfo$?OnFromCodeList@CInputBarDlg@@IAEJIJ@Z DD 019930522H
	DD	07H
	DD	FLAT:__unwindtable$?OnFromCodeList@CInputBarDlg@@IAEJIJ@Z
	DD	2 DUP(00H)
	DD	2 DUP(00H)
	DD	00H
	DD	01H
__unwindtable$?OnFromCodeList@CInputBarDlg@@IAEJIJ@Z DD 0ffffffffH
	DD	FLAT:__unwindfunclet$?OnFromCodeList@CInputBarDlg@@IAEJIJ@Z$0
	DD	00H
	DD	FLAT:__unwindfunclet$?OnFromCodeList@CInputBarDlg@@IAEJIJ@Z$1
	DD	01H
	DD	FLAT:__unwindfunclet$?OnFromCodeList@CInputBarDlg@@IAEJIJ@Z$2
	DD	01H
	DD	FLAT:__unwindfunclet$?OnFromCodeList@CInputBarDlg@@IAEJIJ@Z$4
	DD	01H
	DD	FLAT:__unwindfunclet$?OnFromCodeList@CInputBarDlg@@IAEJIJ@Z$6
	DD	01H
	DD	FLAT:__unwindfunclet$?OnFromCodeList@CInputBarDlg@@IAEJIJ@Z$10
	DD	01H
	DD	FLAT:__unwindfunclet$?OnFromCodeList@CInputBarDlg@@IAEJIJ@Z$8
xdata$x	ENDS
;	COMDAT xdata$x
xdata$x	SEGMENT
__unwindtable$?OnSelBasedlgPopuplistctrl@CInputBarDlg@@IAEJIJ@Z DD 0ffffffffH
	DD	FLAT:__unwindfunclet$?OnSelBasedlgPopuplistctrl@CInputBarDlg@@IAEJIJ@Z$0
	DD	00H
	DD	FLAT:__unwindfunclet$?OnSelBasedlgPopuplistctrl@CInputBarDlg@@IAEJIJ@Z$1
	DD	01H
	DD	FLAT:__unwindfunclet$?OnSelBasedlgPopuplistctrl@CInputBarDlg@@IAEJIJ@Z$2
	DD	00H
	DD	FLAT:__unwindfunclet$?OnSelBasedlgPopuplistctrl@CInputBarDlg@@IAEJIJ@Z$3
__ehfuncinfo$?OnSelBasedlgPopuplistctrl@CInputBarDlg@@IAEJIJ@Z DD 019930522H
	DD	04H
	DD	FLAT:__unwindtable$?OnSelBasedlgPopuplistctrl@CInputBarDlg@@IAEJIJ@Z
	DD	2 DUP(00H)
	DD	2 DUP(00H)
	DD	00H
	DD	01H
xdata$x	ENDS
;	COMDAT xdata$x
xdata$x	SEGMENT
__ehfuncinfo$?OnBtnGwansim@CInputBarDlg@@IAEXXZ DD 019930522H
	DD	011H
	DD	FLAT:__unwindtable$?OnBtnGwansim@CInputBarDlg@@IAEXXZ
	DD	2 DUP(00H)
	DD	2 DUP(00H)
	DD	00H
	DD	01H
__unwindtable$?OnBtnGwansim@CInputBarDlg@@IAEXXZ DD 0ffffffffH
	DD	FLAT:__unwindfunclet$?OnBtnGwansim@CInputBarDlg@@IAEXXZ$0
	DD	00H
	DD	FLAT:__unwindfunclet$?OnBtnGwansim@CInputBarDlg@@IAEXXZ$1
	DD	01H
	DD	FLAT:__unwindfunclet$?OnBtnGwansim@CInputBarDlg@@IAEXXZ$2
	DD	02H
	DD	FLAT:__unwindfunclet$?OnBtnGwansim@CInputBarDlg@@IAEXXZ$3
	DD	01H
	DD	00H
	DD	00H
	DD	00H
	DD	02H
	DD	FLAT:__unwindfunclet$?OnBtnGwansim@CInputBarDlg@@IAEXXZ$4
	DD	06H
	DD	FLAT:__unwindfunclet$?OnBtnGwansim@CInputBarDlg@@IAEXXZ$5
	DD	01H
	DD	00H
	DD	00H
	DD	00H
	DD	07H
	DD	FLAT:__unwindfunclet$?OnBtnGwansim@CInputBarDlg@@IAEXXZ$6
	DD	07H
	DD	FLAT:__unwindfunclet$?OnBtnGwansim@CInputBarDlg@@IAEXXZ$9
	DD	01H
	DD	00H
	DD	00H
	DD	00H
	DD	0bH
	DD	FLAT:__unwindfunclet$?OnBtnGwansim@CInputBarDlg@@IAEXXZ$10
	DD	01H
	DD	FLAT:___std_terminate
	DD	00H
	DD	FLAT:___std_terminate
xdata$x	ENDS
;	COMDAT xdata$x
xdata$x	SEGMENT
__unwindtable$?OnBtJumun@CInputBarDlg@@IAEXXZ DD 0ffffffffH
	DD	FLAT:__unwindfunclet$?OnBtJumun@CInputBarDlg@@IAEXXZ$0
	DD	00H
	DD	FLAT:__unwindfunclet$?OnBtJumun@CInputBarDlg@@IAEXXZ$1
	DD	01H
	DD	FLAT:__unwindfunclet$?OnBtJumun@CInputBarDlg@@IAEXXZ$2
__ehfuncinfo$?OnBtJumun@CInputBarDlg@@IAEXXZ DD 019930522H
	DD	03H
	DD	FLAT:__unwindtable$?OnBtJumun@CInputBarDlg@@IAEXXZ
	DD	2 DUP(00H)
	DD	2 DUP(00H)
	DD	00H
	DD	01H
xdata$x	ENDS
;	COMDAT xdata$x
xdata$x	SEGMENT
__unwindtable$?OnPaint@CInputBarDlg@@IAEXXZ DD 0ffffffffH
	DD	FLAT:__unwindfunclet$?OnPaint@CInputBarDlg@@IAEXXZ$0
	DD	00H
	DD	FLAT:__unwindfunclet$?OnPaint@CInputBarDlg@@IAEXXZ$1
	DD	01H
	DD	FLAT:__unwindfunclet$?OnPaint@CInputBarDlg@@IAEXXZ$2
__ehfuncinfo$?OnPaint@CInputBarDlg@@IAEXXZ DD 019930522H
	DD	03H
	DD	FLAT:__unwindtable$?OnPaint@CInputBarDlg@@IAEXXZ
	DD	2 DUP(00H)
	DD	2 DUP(00H)
	DD	00H
	DD	01H
xdata$x	ENDS
;	COMDAT xdata$x
xdata$x	SEGMENT
__unwindtable$?OnSelchangeCodeInput@CInputBarDlg@@IAEXXZ DD 0ffffffffH
	DD	FLAT:__unwindfunclet$?OnSelchangeCodeInput@CInputBarDlg@@IAEXXZ$0
	DD	00H
	DD	FLAT:__unwindfunclet$?OnSelchangeCodeInput@CInputBarDlg@@IAEXXZ$1
__ehfuncinfo$?OnSelchangeCodeInput@CInputBarDlg@@IAEXXZ DD 019930522H
	DD	02H
	DD	FLAT:__unwindtable$?OnSelchangeCodeInput@CInputBarDlg@@IAEXXZ
	DD	2 DUP(00H)
	DD	2 DUP(00H)
	DD	00H
	DD	01H
xdata$x	ENDS
;	COMDAT xdata$x
xdata$x	SEGMENT
__unwindtable$?OnBtmultichart@CInputBarDlg@@IAEXXZ DD 0ffffffffH
	DD	FLAT:__unwindfunclet$?OnBtmultichart@CInputBarDlg@@IAEXXZ$3
	DD	00H
	DD	FLAT:__unwindfunclet$?OnBtmultichart@CInputBarDlg@@IAEXXZ$1
__ehfuncinfo$?OnBtmultichart@CInputBarDlg@@IAEXXZ DD 019930522H
	DD	02H
	DD	FLAT:__unwindtable$?OnBtmultichart@CInputBarDlg@@IAEXXZ
	DD	2 DUP(00H)
	DD	2 DUP(00H)
	DD	00H
	DD	01H
xdata$x	ENDS
;	COMDAT xdata$x
xdata$x	SEGMENT
__unwindtable$?OnBtperiod@CInputBarDlg@@IAEXXZ DD 0ffffffffH
	DD	FLAT:__unwindfunclet$?OnBtperiod@CInputBarDlg@@IAEXXZ$0
	DD	0ffffffffH
	DD	00H
	DD	00H
	DD	FLAT:__unwindfunclet$?OnBtperiod@CInputBarDlg@@IAEXXZ$1
	DD	0ffffffffH
	DD	FLAT:___std_terminate
__ehfuncinfo$?OnBtperiod@CInputBarDlg@@IAEXXZ DD 019930522H
	DD	04H
	DD	FLAT:__unwindtable$?OnBtperiod@CInputBarDlg@@IAEXXZ
	DD	2 DUP(00H)
	DD	2 DUP(00H)
	DD	00H
	DD	01H
xdata$x	ENDS
;	COMDAT xdata$x
xdata$x	SEGMENT
__unwindtable$?OnSelchangeCbmarket@CInputBarDlg@@IAEXXZ DD 0ffffffffH
	DD	FLAT:__unwindfunclet$?OnSelchangeCbmarket@CInputBarDlg@@IAEXXZ$0
__ehfuncinfo$?OnSelchangeCbmarket@CInputBarDlg@@IAEXXZ DD 019930522H
	DD	01H
	DD	FLAT:__unwindtable$?OnSelchangeCbmarket@CInputBarDlg@@IAEXXZ
	DD	2 DUP(00H)
	DD	2 DUP(00H)
	DD	00H
	DD	01H
xdata$x	ENDS
;	COMDAT xdata$x
xdata$x	SEGMENT
__ehfuncinfo$?OnTimer@CInputBarDlg@@IAEXI@Z DD 019930522H
	DD	05H
	DD	FLAT:__unwindtable$?OnTimer@CInputBarDlg@@IAEXI@Z
	DD	2 DUP(00H)
	DD	2 DUP(00H)
	DD	00H
	DD	01H
__unwindtable$?OnTimer@CInputBarDlg@@IAEXI@Z DD 0ffffffffH
	DD	FLAT:__unwindfunclet$?OnTimer@CInputBarDlg@@IAEXI@Z$0
	DD	00H
	DD	FLAT:__unwindfunclet$?OnTimer@CInputBarDlg@@IAEXI@Z$1
	DD	01H
	DD	FLAT:__unwindfunclet$?OnTimer@CInputBarDlg@@IAEXI@Z$2
	DD	02H
	DD	FLAT:__unwindfunclet$?OnTimer@CInputBarDlg@@IAEXI@Z$3
	DD	03H
	DD	FLAT:__unwindfunclet$?OnTimer@CInputBarDlg@@IAEXI@Z$4
xdata$x	ENDS
;	COMDAT xdata$x
xdata$x	SEGMENT
__unwindtable$?OnSelchangeCmbDay@CInputBarDlg@@IAEXXZ DD 0ffffffffH
	DD	FLAT:__unwindfunclet$?OnSelchangeCmbDay@CInputBarDlg@@IAEXXZ$0
__ehfuncinfo$?OnSelchangeCmbDay@CInputBarDlg@@IAEXXZ DD 019930522H
	DD	01H
	DD	FLAT:__unwindtable$?OnSelchangeCmbDay@CInputBarDlg@@IAEXXZ
	DD	2 DUP(00H)
	DD	2 DUP(00H)
	DD	00H
	DD	01H
xdata$x	ENDS
;	COMDAT xdata$x
xdata$x	SEGMENT
__ehfuncinfo$?OnSelchangeCmbHour@CInputBarDlg@@IAEXXZ DD 019930522H
	DD	07H
	DD	FLAT:__unwindtable$?OnSelchangeCmbHour@CInputBarDlg@@IAEXXZ
	DD	2 DUP(00H)
	DD	2 DUP(00H)
	DD	00H
	DD	01H
__unwindtable$?OnSelchangeCmbHour@CInputBarDlg@@IAEXXZ DD 0ffffffffH
	DD	FLAT:__unwindfunclet$?OnSelchangeCmbHour@CInputBarDlg@@IAEXXZ$0
	DD	00H
	DD	FLAT:__unwindfunclet$?OnSelchangeCmbHour@CInputBarDlg@@IAEXXZ$1
	DD	01H
	DD	FLAT:__unwindfunclet$?OnSelchangeCmbHour@CInputBarDlg@@IAEXXZ$2
	DD	01H
	DD	FLAT:__unwindfunclet$?OnSelchangeCmbHour@CInputBarDlg@@IAEXXZ$3
	DD	03H
	DD	FLAT:__unwindfunclet$?OnSelchangeCmbHour@CInputBarDlg@@IAEXXZ$4
	DD	04H
	DD	FLAT:__unwindfunclet$?OnSelchangeCmbHour@CInputBarDlg@@IAEXXZ$5
	DD	05H
	DD	FLAT:__unwindfunclet$?OnSelchangeCmbHour@CInputBarDlg@@IAEXXZ$6
xdata$x	ENDS
;	COMDAT xdata$x
xdata$x	SEGMENT
__ehfuncinfo$?OnSelchangeCmbMin@CInputBarDlg@@IAEXXZ DD 019930522H
	DD	05H
	DD	FLAT:__unwindtable$?OnSelchangeCmbMin@CInputBarDlg@@IAEXXZ
	DD	2 DUP(00H)
	DD	2 DUP(00H)
	DD	00H
	DD	01H
__unwindtable$?OnSelchangeCmbMin@CInputBarDlg@@IAEXXZ DD 0ffffffffH
	DD	FLAT:__unwindfunclet$?OnSelchangeCmbMin@CInputBarDlg@@IAEXXZ$0
	DD	00H
	DD	FLAT:__unwindfunclet$?OnSelchangeCmbMin@CInputBarDlg@@IAEXXZ$1
	DD	01H
	DD	FLAT:__unwindfunclet$?OnSelchangeCmbMin@CInputBarDlg@@IAEXXZ$2
	DD	01H
	DD	FLAT:__unwindfunclet$?OnSelchangeCmbMin@CInputBarDlg@@IAEXXZ$3
	DD	03H
	DD	FLAT:__unwindfunclet$?OnSelchangeCmbMin@CInputBarDlg@@IAEXXZ$4
xdata$x	ENDS
;	COMDAT xdata$x
xdata$x	SEGMENT
__unwindtable$?OnChkfourth@CInputBarDlg@@IAEXXZ DD 0ffffffffH
	DD	FLAT:__unwindfunclet$?OnChkfourth@CInputBarDlg@@IAEXXZ$0
__ehfuncinfo$?OnChkfourth@CInputBarDlg@@IAEXXZ DD 019930522H
	DD	01H
	DD	FLAT:__unwindtable$?OnChkfourth@CInputBarDlg@@IAEXXZ
	DD	2 DUP(00H)
	DD	2 DUP(00H)
	DD	00H
	DD	01H
xdata$x	ENDS
;	COMDAT xdata$x
xdata$x	SEGMENT
__unwindtable$?OnChkthird@CInputBarDlg@@IAEXXZ DD 0ffffffffH
	DD	FLAT:__unwindfunclet$?OnChkthird@CInputBarDlg@@IAEXXZ$0
__ehfuncinfo$?OnChkthird@CInputBarDlg@@IAEXXZ DD 019930522H
	DD	01H
	DD	FLAT:__unwindtable$?OnChkthird@CInputBarDlg@@IAEXXZ
	DD	2 DUP(00H)
	DD	2 DUP(00H)
	DD	00H
	DD	01H
xdata$x	ENDS
;	COMDAT xdata$x
xdata$x	SEGMENT
__unwindtable$?OnChksecond@CInputBarDlg@@IAEXXZ DD 0ffffffffH
	DD	FLAT:__unwindfunclet$?OnChksecond@CInputBarDlg@@IAEXXZ$0
__ehfuncinfo$?OnChksecond@CInputBarDlg@@IAEXXZ DD 019930522H
	DD	01H
	DD	FLAT:__unwindtable$?OnChksecond@CInputBarDlg@@IAEXXZ
	DD	2 DUP(00H)
	DD	2 DUP(00H)
	DD	00H
	DD	01H
xdata$x	ENDS
;	COMDAT xdata$x
xdata$x	SEGMENT
__unwindtable$?OnChkfirst@CInputBarDlg@@IAEXXZ DD 0ffffffffH
	DD	FLAT:__unwindfunclet$?OnChkfirst@CInputBarDlg@@IAEXXZ$0
__ehfuncinfo$?OnChkfirst@CInputBarDlg@@IAEXXZ DD 019930522H
	DD	01H
	DD	FLAT:__unwindtable$?OnChkfirst@CInputBarDlg@@IAEXXZ
	DD	2 DUP(00H)
	DD	2 DUP(00H)
	DD	00H
	DD	01H
xdata$x	ENDS
;	COMDAT xdata$x
xdata$x	SEGMENT
__unwindtable$?OnBtnPlayPause@CInputBarDlg@@IAEXXZ DD 0ffffffffH
	DD	FLAT:__unwindfunclet$?OnBtnPlayPause@CInputBarDlg@@IAEXXZ$0
	DD	00H
	DD	FLAT:__unwindfunclet$?OnBtnPlayPause@CInputBarDlg@@IAEXXZ$1
	DD	01H
	DD	FLAT:__unwindfunclet$?OnBtnPlayPause@CInputBarDlg@@IAEXXZ$2
__ehfuncinfo$?OnBtnPlayPause@CInputBarDlg@@IAEXXZ DD 019930522H
	DD	03H
	DD	FLAT:__unwindtable$?OnBtnPlayPause@CInputBarDlg@@IAEXXZ
	DD	2 DUP(00H)
	DD	2 DUP(00H)
	DD	00H
	DD	01H
xdata$x	ENDS
;	COMDAT xdata$x
xdata$x	SEGMENT
__unwindtable$?OnBtnForeignSendtr@CInputBarDlg@@IAEXXZ DD 0ffffffffH
	DD	FLAT:__unwindfunclet$?OnBtnForeignSendtr@CInputBarDlg@@IAEXXZ$0
	DD	0ffffffffH
	DD	FLAT:__unwindfunclet$?OnBtnForeignSendtr@CInputBarDlg@@IAEXXZ$2
	DD	01H
	DD	FLAT:__unwindfunclet$?OnBtnForeignSendtr@CInputBarDlg@@IAEXXZ$5
__ehfuncinfo$?OnBtnForeignSendtr@CInputBarDlg@@IAEXXZ DD 019930522H
	DD	03H
	DD	FLAT:__unwindtable$?OnBtnForeignSendtr@CInputBarDlg@@IAEXXZ
	DD	2 DUP(00H)
	DD	2 DUP(00H)
	DD	00H
	DD	01H
xdata$x	ENDS
;	COMDAT xdata$x
xdata$x	SEGMENT
__unwindtable$?OnSelendokCmbCharttype@CInputBarDlg@@IAEXXZ DD 0ffffffffH
	DD	FLAT:__unwindfunclet$?OnSelendokCmbCharttype@CInputBarDlg@@IAEXXZ$0
__ehfuncinfo$?OnSelendokCmbCharttype@CInputBarDlg@@IAEXXZ DD 019930522H
	DD	01H
	DD	FLAT:__unwindtable$?OnSelendokCmbCharttype@CInputBarDlg@@IAEXXZ
	DD	2 DUP(00H)
	DD	2 DUP(00H)
	DD	00H
	DD	01H
xdata$x	ENDS
;	COMDAT xdata$x
xdata$x	SEGMENT
__unwindtable$?OnDeltaposSpinDatecnt@CInputBarDlg@@IAEXPAUtagNMHDR@@PAJ@Z DD 0ffffffffH
	DD	FLAT:__unwindfunclet$?OnDeltaposSpinDatecnt@CInputBarDlg@@IAEXPAUtagNMHDR@@PAJ@Z$0
__ehfuncinfo$?OnDeltaposSpinDatecnt@CInputBarDlg@@IAEXPAUtagNMHDR@@PAJ@Z DD 019930522H
	DD	01H
	DD	FLAT:__unwindtable$?OnDeltaposSpinDatecnt@CInputBarDlg@@IAEXPAUtagNMHDR@@PAJ@Z
	DD	2 DUP(00H)
	DD	2 DUP(00H)
	DD	00H
	DD	01H
xdata$x	ENDS
;	COMDAT xdata$x
xdata$x	SEGMENT
__unwindtable$?OnBtinc@CInputBarDlg@@IAEXXZ DD 0ffffffffH
	DD	FLAT:__unwindfunclet$?OnBtinc@CInputBarDlg@@IAEXXZ$0
__ehfuncinfo$?OnBtinc@CInputBarDlg@@IAEXXZ DD 019930522H
	DD	01H
	DD	FLAT:__unwindtable$?OnBtinc@CInputBarDlg@@IAEXXZ
	DD	2 DUP(00H)
	DD	2 DUP(00H)
	DD	00H
	DD	01H
xdata$x	ENDS
;	COMDAT xdata$x
xdata$x	SEGMENT
__unwindtable$?OnDestroy@CInputBarDlg@@IAEXXZ DD 0ffffffffH
	DD	FLAT:__unwindfunclet$?OnDestroy@CInputBarDlg@@IAEXXZ$0
__ehfuncinfo$?OnDestroy@CInputBarDlg@@IAEXXZ DD 019930522H
	DD	01H
	DD	FLAT:__unwindtable$?OnDestroy@CInputBarDlg@@IAEXXZ
	DD	2 DUP(00H)
	DD	2 DUP(00H)
	DD	00H
	DD	01H
xdata$x	ENDS
;	COMDAT xdata$x
xdata$x	SEGMENT
__unwindtable$?OnDeltaposSpinzoomvalue@CInputBarDlg@@IAEXPAUtagNMHDR@@PAJ@Z DD 0ffffffffH
	DD	FLAT:__unwindfunclet$?OnDeltaposSpinzoomvalue@CInputBarDlg@@IAEXPAUtagNMHDR@@PAJ@Z$0
	DD	00H
	DD	FLAT:__unwindfunclet$?OnDeltaposSpinzoomvalue@CInputBarDlg@@IAEXPAUtagNMHDR@@PAJ@Z$1
__ehfuncinfo$?OnDeltaposSpinzoomvalue@CInputBarDlg@@IAEXPAUtagNMHDR@@PAJ@Z DD 019930522H
	DD	02H
	DD	FLAT:__unwindtable$?OnDeltaposSpinzoomvalue@CInputBarDlg@@IAEXPAUtagNMHDR@@PAJ@Z
	DD	2 DUP(00H)
	DD	2 DUP(00H)
	DD	00H
	DD	01H
xdata$x	ENDS
;	COMDAT xdata$x
xdata$x	SEGMENT
__unwindtable$?OnChktick@CInputBarDlg@@IAEXXZ DD 0ffffffffH
	DD	FLAT:__unwindfunclet$?OnChktick@CInputBarDlg@@IAEXXZ$0
__ehfuncinfo$?OnChktick@CInputBarDlg@@IAEXXZ DD 019930522H
	DD	01H
	DD	FLAT:__unwindtable$?OnChktick@CInputBarDlg@@IAEXXZ
	DD	2 DUP(00H)
	DD	2 DUP(00H)
	DD	00H
	DD	01H
xdata$x	ENDS
;	COMDAT xdata$x
xdata$x	SEGMENT
__unwindtable$?OnChksec@CInputBarDlg@@IAEXXZ DD 0ffffffffH
	DD	FLAT:__unwindfunclet$?OnChksec@CInputBarDlg@@IAEXXZ$0
__ehfuncinfo$?OnChksec@CInputBarDlg@@IAEXXZ DD 019930522H
	DD	01H
	DD	FLAT:__unwindtable$?OnChksec@CInputBarDlg@@IAEXXZ
	DD	2 DUP(00H)
	DD	2 DUP(00H)
	DD	00H
	DD	01H
xdata$x	ENDS
;	COMDAT xdata$x
xdata$x	SEGMENT
__unwindtable$?OnChkminute@CInputBarDlg@@IAEXXZ DD 0ffffffffH
	DD	FLAT:__unwindfunclet$?OnChkminute@CInputBarDlg@@IAEXXZ$0
__ehfuncinfo$?OnChkminute@CInputBarDlg@@IAEXXZ DD 019930522H
	DD	01H
	DD	FLAT:__unwindtable$?OnChkminute@CInputBarDlg@@IAEXXZ
	DD	2 DUP(00H)
	DD	2 DUP(00H)
	DD	00H
	DD	01H
xdata$x	ENDS
;	COMDAT xdata$x
xdata$x	SEGMENT
__unwindtable$?OnChkday@CInputBarDlg@@IAEXXZ DD 0ffffffffH
	DD	FLAT:__unwindfunclet$?OnChkday@CInputBarDlg@@IAEXXZ$0
__ehfuncinfo$?OnChkday@CInputBarDlg@@IAEXXZ DD 019930522H
	DD	01H
	DD	FLAT:__unwindtable$?OnChkday@CInputBarDlg@@IAEXXZ
	DD	2 DUP(00H)
	DD	2 DUP(00H)
	DD	00H
	DD	01H
xdata$x	ENDS
;	COMDAT xdata$x
xdata$x	SEGMENT
__unwindtable$?OnInitDialog@CInputBarDlg@@MAEHXZ DD 0ffffffffH
	DD	FLAT:__unwindfunclet$?OnInitDialog@CInputBarDlg@@MAEHXZ$0
	DD	0ffffffffH
	DD	FLAT:__unwindfunclet$?OnInitDialog@CInputBarDlg@@MAEHXZ$1
	DD	0ffffffffH
	DD	FLAT:__unwindfunclet$?OnInitDialog@CInputBarDlg@@MAEHXZ$3
	DD	0ffffffffH
	DD	FLAT:__unwindfunclet$?OnInitDialog@CInputBarDlg@@MAEHXZ$2
__ehfuncinfo$?OnInitDialog@CInputBarDlg@@MAEHXZ DD 019930522H
	DD	04H
	DD	FLAT:__unwindtable$?OnInitDialog@CInputBarDlg@@MAEHXZ
	DD	2 DUP(00H)
	DD	2 DUP(00H)
	DD	00H
	DD	01H
xdata$x	ENDS
;	COMDAT xdata$x
xdata$x	SEGMENT
__unwindtable$?_DoPreCheckCodeCtrlUnit@CInputBarDlg@@IAEHXZ DD 0ffffffffH
	DD	FLAT:__unwindfunclet$?_DoPreCheckCodeCtrlUnit@CInputBarDlg@@IAEHXZ$0
__ehfuncinfo$?_DoPreCheckCodeCtrlUnit@CInputBarDlg@@IAEHXZ DD 019930522H
	DD	01H
	DD	FLAT:__unwindtable$?_DoPreCheckCodeCtrlUnit@CInputBarDlg@@IAEHXZ
	DD	2 DUP(00H)
	DD	2 DUP(00H)
	DD	00H
	DD	01H
xdata$x	ENDS
;	COMDAT xdata$x
xdata$x	SEGMENT
__unwindtable$?_DoCheckMarketTypeFromScreen@CInputBarDlg@@IAEXAAH@Z DD 0ffffffffH
	DD	FLAT:__unwindfunclet$?_DoCheckMarketTypeFromScreen@CInputBarDlg@@IAEXAAH@Z$0
__ehfuncinfo$?_DoCheckMarketTypeFromScreen@CInputBarDlg@@IAEXAAH@Z DD 019930522H
	DD	01H
	DD	FLAT:__unwindtable$?_DoCheckMarketTypeFromScreen@CInputBarDlg@@IAEXAAH@Z
	DD	2 DUP(00H)
	DD	2 DUP(00H)
	DD	00H
	DD	01H
xdata$x	ENDS
;	COMDAT xdata$x
xdata$x	SEGMENT
__unwindtable$?_DoChangeCodeCtrlUnit@CInputBarDlg@@IAEXHPBD@Z DD 0ffffffffH
	DD	FLAT:__unwindfunclet$?_DoChangeCodeCtrlUnit@CInputBarDlg@@IAEXHPBD@Z$0
__ehfuncinfo$?_DoChangeCodeCtrlUnit@CInputBarDlg@@IAEXHPBD@Z DD 019930522H
	DD	01H
	DD	FLAT:__unwindtable$?_DoChangeCodeCtrlUnit@CInputBarDlg@@IAEXHPBD@Z
	DD	2 DUP(00H)
	DD	2 DUP(00H)
	DD	00H
	DD	01H
xdata$x	ENDS
;	COMDAT xdata$x
xdata$x	SEGMENT
__unwindtable$?GetMarketStrToIndex@CInputBarDlg@@QAEHV?$CStringT@DV?$StrTraitMFC_DLL@DV?$ChTraitsCRT@D@ATL@@@@@ATL@@@Z DD 0ffffffffH
	DD	FLAT:__unwindfunclet$?GetMarketStrToIndex@CInputBarDlg@@QAEHV?$CStringT@DV?$StrTraitMFC_DLL@DV?$ChTraitsCRT@D@ATL@@@@@ATL@@@Z$0
__ehfuncinfo$?GetMarketStrToIndex@CInputBarDlg@@QAEHV?$CStringT@DV?$StrTraitMFC_DLL@DV?$ChTraitsCRT@D@ATL@@@@@ATL@@@Z DD 019930522H
	DD	01H
	DD	FLAT:__unwindtable$?GetMarketStrToIndex@CInputBarDlg@@QAEHV?$CStringT@DV?$StrTraitMFC_DLL@DV?$ChTraitsCRT@D@ATL@@@@@ATL@@@Z
	DD	2 DUP(00H)
	DD	2 DUP(00H)
	DD	00H
	DD	01H
xdata$x	ENDS
;	COMDAT xdata$x
xdata$x	SEGMENT
__unwindtable$?SetMultiTotalCount@CInputBarDlg@@QAEXH@Z DD 0ffffffffH
	DD	FLAT:__unwindfunclet$?SetMultiTotalCount@CInputBarDlg@@QAEXH@Z$0
	DD	00H
	DD	FLAT:__unwindfunclet$?SetMultiTotalCount@CInputBarDlg@@QAEXH@Z$1
__ehfuncinfo$?SetMultiTotalCount@CInputBarDlg@@QAEXH@Z DD 019930522H
	DD	02H
	DD	FLAT:__unwindtable$?SetMultiTotalCount@CInputBarDlg@@QAEXH@Z
	DD	2 DUP(00H)
	DD	2 DUP(00H)
	DD	00H
	DD	01H
xdata$x	ENDS
;	COMDAT xdata$x
xdata$x	SEGMENT
__ehfuncinfo$?InitChartMulitItem@CInputBarDlg@@QAEXPAU_ST_SELCHART@@@Z DD 019930522H
	DD	016H
	DD	FLAT:__unwindtable$?InitChartMulitItem@CInputBarDlg@@QAEXPAU_ST_SELCHART@@@Z
	DD	2 DUP(00H)
	DD	2 DUP(00H)
	DD	00H
	DD	01H
__unwindtable$?InitChartMulitItem@CInputBarDlg@@QAEXPAU_ST_SELCHART@@@Z DD 0ffffffffH
	DD	FLAT:__unwindfunclet$?InitChartMulitItem@CInputBarDlg@@QAEXPAU_ST_SELCHART@@@Z$0
	DD	00H
	DD	FLAT:__unwindfunclet$?InitChartMulitItem@CInputBarDlg@@QAEXPAU_ST_SELCHART@@@Z$1
	DD	00H
	DD	FLAT:__unwindfunclet$?InitChartMulitItem@CInputBarDlg@@QAEXPAU_ST_SELCHART@@@Z$2
	DD	00H
	DD	FLAT:__unwindfunclet$?InitChartMulitItem@CInputBarDlg@@QAEXPAU_ST_SELCHART@@@Z$3
	DD	03H
	DD	FLAT:__unwindfunclet$?InitChartMulitItem@CInputBarDlg@@QAEXPAU_ST_SELCHART@@@Z$4
	DD	03H
	DD	FLAT:__unwindfunclet$?InitChartMulitItem@CInputBarDlg@@QAEXPAU_ST_SELCHART@@@Z$5
	DD	03H
	DD	FLAT:__unwindfunclet$?InitChartMulitItem@CInputBarDlg@@QAEXPAU_ST_SELCHART@@@Z$20
	DD	03H
	DD	FLAT:__unwindfunclet$?InitChartMulitItem@CInputBarDlg@@QAEXPAU_ST_SELCHART@@@Z$8
	DD	07H
	DD	FLAT:__unwindfunclet$?InitChartMulitItem@CInputBarDlg@@QAEXPAU_ST_SELCHART@@@Z$9
	DD	07H
	DD	FLAT:__unwindfunclet$?InitChartMulitItem@CInputBarDlg@@QAEXPAU_ST_SELCHART@@@Z$10
	DD	09H
	DD	FLAT:__unwindfunclet$?InitChartMulitItem@CInputBarDlg@@QAEXPAU_ST_SELCHART@@@Z$11
	DD	0aH
	DD	FLAT:__unwindfunclet$?InitChartMulitItem@CInputBarDlg@@QAEXPAU_ST_SELCHART@@@Z$12
	DD	09H
	DD	FLAT:__unwindfunclet$?InitChartMulitItem@CInputBarDlg@@QAEXPAU_ST_SELCHART@@@Z$26
	DD	0cH
	DD	FLAT:__unwindfunclet$?InitChartMulitItem@CInputBarDlg@@QAEXPAU_ST_SELCHART@@@Z$28
	DD	0dH
	DD	FLAT:__unwindfunclet$?InitChartMulitItem@CInputBarDlg@@QAEXPAU_ST_SELCHART@@@Z$29
	DD	03H
	DD	FLAT:__unwindfunclet$?InitChartMulitItem@CInputBarDlg@@QAEXPAU_ST_SELCHART@@@Z$14
	DD	0fH
	DD	FLAT:__unwindfunclet$?InitChartMulitItem@CInputBarDlg@@QAEXPAU_ST_SELCHART@@@Z$15
	DD	010H
	DD	FLAT:__unwindfunclet$?InitChartMulitItem@CInputBarDlg@@QAEXPAU_ST_SELCHART@@@Z$16
	DD	011H
	DD	FLAT:__unwindfunclet$?InitChartMulitItem@CInputBarDlg@@QAEXPAU_ST_SELCHART@@@Z$17
	DD	010H
	DD	FLAT:__unwindfunclet$?InitChartMulitItem@CInputBarDlg@@QAEXPAU_ST_SELCHART@@@Z$34
	DD	013H
	DD	FLAT:__unwindfunclet$?InitChartMulitItem@CInputBarDlg@@QAEXPAU_ST_SELCHART@@@Z$36
	DD	014H
	DD	FLAT:__unwindfunclet$?InitChartMulitItem@CInputBarDlg@@QAEXPAU_ST_SELCHART@@@Z$37
xdata$x	ENDS
;	COMDAT xdata$x
xdata$x	SEGMENT
__unwindtable$?SaveInputBar@CInputBarDlg@@QAEXXZ DD 0ffffffffH
	DD	FLAT:__unwindfunclet$?SaveInputBar@CInputBarDlg@@QAEXXZ$0
__ehfuncinfo$?SaveInputBar@CInputBarDlg@@QAEXXZ DD 019930522H
	DD	01H
	DD	FLAT:__unwindtable$?SaveInputBar@CInputBarDlg@@QAEXXZ
	DD	2 DUP(00H)
	DD	2 DUP(00H)
	DD	00H
	DD	01H
xdata$x	ENDS
;	COMDAT xdata$x
xdata$x	SEGMENT
__unwindtable$?GetChartViewType@CInputBarDlg@@QAEHAAVCStringList@@@Z DD 0ffffffffH
	DD	FLAT:__unwindfunclet$?GetChartViewType@CInputBarDlg@@QAEHAAVCStringList@@@Z$0
__ehfuncinfo$?GetChartViewType@CInputBarDlg@@QAEHAAVCStringList@@@Z DD 019930522H
	DD	01H
	DD	FLAT:__unwindtable$?GetChartViewType@CInputBarDlg@@QAEHAAVCStringList@@@Z
	DD	2 DUP(00H)
	DD	2 DUP(00H)
	DD	00H
	DD	01H
xdata$x	ENDS
;	COMDAT xdata$x
xdata$x	SEGMENT
__ehfuncinfo$?SetLastHistoryCode@CInputBarDlg@@QAEXXZ DD 019930522H
	DD	02fH
	DD	FLAT:__unwindtable$?SetLastHistoryCode@CInputBarDlg@@QAEXXZ
	DD	2 DUP(00H)
	DD	2 DUP(00H)
	DD	00H
	DD	01H
__unwindtable$?SetLastHistoryCode@CInputBarDlg@@QAEXXZ DD 0ffffffffH
	DD	FLAT:__unwindfunclet$?SetLastHistoryCode@CInputBarDlg@@QAEXXZ$0
	DD	0ffffffffH
	DD	FLAT:__unwindfunclet$?SetLastHistoryCode@CInputBarDlg@@QAEXXZ$1
	DD	0ffffffffH
	DD	FLAT:__unwindfunclet$?SetLastHistoryCode@CInputBarDlg@@QAEXXZ$5
	DD	02H
	DD	00H
	DD	03H
	DD	00H
	DD	04H
	DD	00H
	DD	04H
	DD	00H
	DD	02H
	DD	00H
	DD	07H
	DD	00H
	DD	08H
	DD	00H
	DD	08H
	DD	00H
	DD	02H
	DD	FLAT:__unwindfunclet$?SetLastHistoryCode@CInputBarDlg@@QAEXXZ$16
	DD	0bH
	DD	FLAT:__unwindfunclet$?SetLastHistoryCode@CInputBarDlg@@QAEXXZ$17
	DD	02H
	DD	00H
	DD	0dH
	DD	00H
	DD	02H
	DD	00H
	DD	02H
	DD	00H
	DD	0ffffffffH
	DD	FLAT:__unwindfunclet$?SetLastHistoryCode@CInputBarDlg@@QAEXXZ$23
	DD	011H
	DD	00H
	DD	012H
	DD	00H
	DD	013H
	DD	00H
	DD	013H
	DD	00H
	DD	011H
	DD	00H
	DD	016H
	DD	00H
	DD	017H
	DD	00H
	DD	017H
	DD	00H
	DD	011H
	DD	00H
	DD	01aH
	DD	00H
	DD	011H
	DD	FLAT:__unwindfunclet$?SetLastHistoryCode@CInputBarDlg@@QAEXXZ$36
	DD	01cH
	DD	FLAT:__unwindfunclet$?SetLastHistoryCode@CInputBarDlg@@QAEXXZ$37
	DD	011H
	DD	00H
	DD	011H
	DD	00H
	DD	0ffffffffH
	DD	FLAT:__unwindfunclet$?SetLastHistoryCode@CInputBarDlg@@QAEXXZ$41
	DD	020H
	DD	00H
	DD	021H
	DD	00H
	DD	022H
	DD	00H
	DD	022H
	DD	00H
	DD	020H
	DD	00H
	DD	025H
	DD	00H
	DD	026H
	DD	00H
	DD	026H
	DD	00H
	DD	020H
	DD	00H
	DD	029H
	DD	00H
	DD	020H
	DD	00H
	DD	02bH
	DD	00H
	DD	020H
	DD	FLAT:__unwindfunclet$?SetLastHistoryCode@CInputBarDlg@@QAEXXZ$57
	DD	020H
	DD	FLAT:__unwindfunclet$?SetLastHistoryCode@CInputBarDlg@@QAEXXZ$58
xdata$x	ENDS
;	COMDAT xdata$x
xdata$x	SEGMENT
__ehfuncinfo$?GetLastHistoryCode@CInputBarDlg@@QAE?AV?$CStringT@DV?$StrTraitMFC_DLL@DV?$ChTraitsCRT@D@ATL@@@@@ATL@@H@Z DD 019930522H
	DD	0fH
	DD	FLAT:__unwindtable$?GetLastHistoryCode@CInputBarDlg@@QAE?AV?$CStringT@DV?$StrTraitMFC_DLL@DV?$ChTraitsCRT@D@ATL@@@@@ATL@@H@Z
	DD	2 DUP(00H)
	DD	2 DUP(00H)
	DD	00H
	DD	01H
__unwindtable$?GetLastHistoryCode@CInputBarDlg@@QAE?AV?$CStringT@DV?$StrTraitMFC_DLL@DV?$ChTraitsCRT@D@ATL@@@@@ATL@@H@Z DD 0ffffffffH
	DD	FLAT:__unwindfunclet$?GetLastHistoryCode@CInputBarDlg@@QAE?AV?$CStringT@DV?$StrTraitMFC_DLL@DV?$ChTraitsCRT@D@ATL@@@@@ATL@@H@Z$0
	DD	00H
	DD	FLAT:__unwindfunclet$?GetLastHistoryCode@CInputBarDlg@@QAE?AV?$CStringT@DV?$StrTraitMFC_DLL@DV?$ChTraitsCRT@D@ATL@@@@@ATL@@H@Z$1
	DD	01H
	DD	FLAT:__unwindfunclet$?GetLastHistoryCode@CInputBarDlg@@QAE?AV?$CStringT@DV?$StrTraitMFC_DLL@DV?$ChTraitsCRT@D@ATL@@@@@ATL@@H@Z$2
	DD	02H
	DD	FLAT:__unwindfunclet$?GetLastHistoryCode@CInputBarDlg@@QAE?AV?$CStringT@DV?$StrTraitMFC_DLL@DV?$ChTraitsCRT@D@ATL@@@@@ATL@@H@Z$4
	DD	02H
	DD	FLAT:__unwindfunclet$?GetLastHistoryCode@CInputBarDlg@@QAE?AV?$CStringT@DV?$StrTraitMFC_DLL@DV?$ChTraitsCRT@D@ATL@@@@@ATL@@H@Z$5
	DD	00H
	DD	FLAT:__unwindfunclet$?GetLastHistoryCode@CInputBarDlg@@QAE?AV?$CStringT@DV?$StrTraitMFC_DLL@DV?$ChTraitsCRT@D@ATL@@@@@ATL@@H@Z$6
	DD	05H
	DD	FLAT:__unwindfunclet$?GetLastHistoryCode@CInputBarDlg@@QAE?AV?$CStringT@DV?$StrTraitMFC_DLL@DV?$ChTraitsCRT@D@ATL@@@@@ATL@@H@Z$7
	DD	06H
	DD	FLAT:__unwindfunclet$?GetLastHistoryCode@CInputBarDlg@@QAE?AV?$CStringT@DV?$StrTraitMFC_DLL@DV?$ChTraitsCRT@D@ATL@@@@@ATL@@H@Z$9
	DD	06H
	DD	FLAT:__unwindfunclet$?GetLastHistoryCode@CInputBarDlg@@QAE?AV?$CStringT@DV?$StrTraitMFC_DLL@DV?$ChTraitsCRT@D@ATL@@@@@ATL@@H@Z$10
	DD	00H
	DD	FLAT:__unwindfunclet$?GetLastHistoryCode@CInputBarDlg@@QAE?AV?$CStringT@DV?$StrTraitMFC_DLL@DV?$ChTraitsCRT@D@ATL@@@@@ATL@@H@Z$11
	DD	09H
	DD	FLAT:__unwindfunclet$?GetLastHistoryCode@CInputBarDlg@@QAE?AV?$CStringT@DV?$StrTraitMFC_DLL@DV?$ChTraitsCRT@D@ATL@@@@@ATL@@H@Z$12
	DD	00H
	DD	FLAT:__unwindfunclet$?GetLastHistoryCode@CInputBarDlg@@QAE?AV?$CStringT@DV?$StrTraitMFC_DLL@DV?$ChTraitsCRT@D@ATL@@@@@ATL@@H@Z$13
	DD	0bH
	DD	FLAT:__unwindfunclet$?GetLastHistoryCode@CInputBarDlg@@QAE?AV?$CStringT@DV?$StrTraitMFC_DLL@DV?$ChTraitsCRT@D@ATL@@@@@ATL@@H@Z$14
	DD	00H
	DD	FLAT:__unwindfunclet$?GetLastHistoryCode@CInputBarDlg@@QAE?AV?$CStringT@DV?$StrTraitMFC_DLL@DV?$ChTraitsCRT@D@ATL@@@@@ATL@@H@Z$16
	DD	00H
	DD	FLAT:__unwindfunclet$?GetLastHistoryCode@CInputBarDlg@@QAE?AV?$CStringT@DV?$StrTraitMFC_DLL@DV?$ChTraitsCRT@D@ATL@@@@@ATL@@H@Z$17
xdata$x	ENDS
;	COMDAT xdata$x
xdata$x	SEGMENT
__unwindtable$?GetAllCount@CInputBarDlg@@QAEHXZ DD 0ffffffffH
	DD	FLAT:__unwindfunclet$?GetAllCount@CInputBarDlg@@QAEHXZ$0
__ehfuncinfo$?GetAllCount@CInputBarDlg@@QAEHXZ DD 019930522H
	DD	01H
	DD	FLAT:__unwindtable$?GetAllCount@CInputBarDlg@@QAEHXZ
	DD	2 DUP(00H)
	DD	2 DUP(00H)
	DD	00H
	DD	01H
xdata$x	ENDS
;	COMDAT xdata$x
xdata$x	SEGMENT
__unwindtable$?SetCodeInit@CInputBarDlg@@QAEXXZ DD 0ffffffffH
	DD	FLAT:__unwindfunclet$?SetCodeInit@CInputBarDlg@@QAEXXZ$0
__ehfuncinfo$?SetCodeInit@CInputBarDlg@@QAEXXZ DD 019930522H
	DD	01H
	DD	FLAT:__unwindtable$?SetCodeInit@CInputBarDlg@@QAEXXZ
	DD	2 DUP(00H)
	DD	2 DUP(00H)
	DD	00H
	DD	01H
xdata$x	ENDS
;	COMDAT xdata$x
xdata$x	SEGMENT
__unwindtable$?GetTypeNumber@CInputBarDlg@@UAEJXZ DD 0ffffffffH
	DD	FLAT:__unwindfunclet$?GetTypeNumber@CInputBarDlg@@UAEJXZ$0
__ehfuncinfo$?GetTypeNumber@CInputBarDlg@@UAEJXZ DD 019930522H
	DD	01H
	DD	FLAT:__unwindtable$?GetTypeNumber@CInputBarDlg@@UAEJXZ
	DD	2 DUP(00H)
	DD	2 DUP(00H)
	DD	00H
	DD	01H
xdata$x	ENDS
;	COMDAT xdata$x
xdata$x	SEGMENT
__unwindtable$?SaveChartType_IniFile@CInputBarDlg@@QAEXH@Z DD 0ffffffffH
	DD	FLAT:__unwindfunclet$?SaveChartType_IniFile@CInputBarDlg@@QAEXH@Z$0
	DD	00H
	DD	FLAT:__unwindfunclet$?SaveChartType_IniFile@CInputBarDlg@@QAEXH@Z$1
	DD	01H
	DD	FLAT:__unwindfunclet$?SaveChartType_IniFile@CInputBarDlg@@QAEXH@Z$2
__ehfuncinfo$?SaveChartType_IniFile@CInputBarDlg@@QAEXH@Z DD 019930522H
	DD	03H
	DD	FLAT:__unwindtable$?SaveChartType_IniFile@CInputBarDlg@@QAEXH@Z
	DD	2 DUP(00H)
	DD	2 DUP(00H)
	DD	00H
	DD	01H
xdata$x	ENDS
;	COMDAT xdata$x
xdata$x	SEGMENT
__ehfuncinfo$?ChangeToolBarForReplayChart@CInputBarDlg@@QAEXH@Z DD 019930522H
	DD	06H
	DD	FLAT:__unwindtable$?ChangeToolBarForReplayChart@CInputBarDlg@@QAEXH@Z
	DD	2 DUP(00H)
	DD	2 DUP(00H)
	DD	00H
	DD	01H
__unwindtable$?ChangeToolBarForReplayChart@CInputBarDlg@@QAEXH@Z DD 0ffffffffH
	DD	FLAT:__unwindfunclet$?ChangeToolBarForReplayChart@CInputBarDlg@@QAEXH@Z$0
	DD	0ffffffffH
	DD	FLAT:__unwindfunclet$?ChangeToolBarForReplayChart@CInputBarDlg@@QAEXH@Z$2
	DD	01H
	DD	FLAT:__unwindfunclet$?ChangeToolBarForReplayChart@CInputBarDlg@@QAEXH@Z$5
	DD	01H
	DD	FLAT:__unwindfunclet$?ChangeToolBarForReplayChart@CInputBarDlg@@QAEXH@Z$6
	DD	03H
	DD	FLAT:__unwindfunclet$?ChangeToolBarForReplayChart@CInputBarDlg@@QAEXH@Z$7
	DD	04H
	DD	FLAT:__unwindfunclet$?ChangeToolBarForReplayChart@CInputBarDlg@@QAEXH@Z$8
xdata$x	ENDS
;	COMDAT xdata$x
xdata$x	SEGMENT
__unwindtable$?SetEditZoomValue@CInputBarDlg@@QAEXV?$CStringT@DV?$StrTraitMFC_DLL@DV?$ChTraitsCRT@D@ATL@@@@@ATL@@HH@Z DD 0ffffffffH
	DD	FLAT:__unwindfunclet$?SetEditZoomValue@CInputBarDlg@@QAEXV?$CStringT@DV?$StrTraitMFC_DLL@DV?$ChTraitsCRT@D@ATL@@@@@ATL@@HH@Z$0
	DD	00H
	DD	FLAT:__unwindfunclet$?SetEditZoomValue@CInputBarDlg@@QAEXV?$CStringT@DV?$StrTraitMFC_DLL@DV?$ChTraitsCRT@D@ATL@@@@@ATL@@HH@Z$1
	DD	01H
	DD	FLAT:__unwindfunclet$?SetEditZoomValue@CInputBarDlg@@QAEXV?$CStringT@DV?$StrTraitMFC_DLL@DV?$ChTraitsCRT@D@ATL@@@@@ATL@@HH@Z$2
__ehfuncinfo$?SetEditZoomValue@CInputBarDlg@@QAEXV?$CStringT@DV?$StrTraitMFC_DLL@DV?$ChTraitsCRT@D@ATL@@@@@ATL@@HH@Z DD 019930522H
	DD	03H
	DD	FLAT:__unwindtable$?SetEditZoomValue@CInputBarDlg@@QAEXV?$CStringT@DV?$StrTraitMFC_DLL@DV?$ChTraitsCRT@D@ATL@@@@@ATL@@HH@Z
	DD	2 DUP(00H)
	DD	2 DUP(00H)
	DD	00H
	DD	01H
xdata$x	ENDS
;	COMDAT xdata$x
xdata$x	SEGMENT
__unwindtable$?SetReplayEachSec@CInputBarDlg@@QAEXV?$CStringT@DV?$StrTraitMFC_DLL@DV?$ChTraitsCRT@D@ATL@@@@@ATL@@@Z DD 0ffffffffH
	DD	FLAT:__unwindfunclet$?SetReplayEachSec@CInputBarDlg@@QAEXV?$CStringT@DV?$StrTraitMFC_DLL@DV?$ChTraitsCRT@D@ATL@@@@@ATL@@@Z$0
	DD	00H
	DD	FLAT:__unwindfunclet$?SetReplayEachSec@CInputBarDlg@@QAEXV?$CStringT@DV?$StrTraitMFC_DLL@DV?$ChTraitsCRT@D@ATL@@@@@ATL@@@Z$1
__ehfuncinfo$?SetReplayEachSec@CInputBarDlg@@QAEXV?$CStringT@DV?$StrTraitMFC_DLL@DV?$ChTraitsCRT@D@ATL@@@@@ATL@@@Z DD 019930522H
	DD	02H
	DD	FLAT:__unwindtable$?SetReplayEachSec@CInputBarDlg@@QAEXV?$CStringT@DV?$StrTraitMFC_DLL@DV?$ChTraitsCRT@D@ATL@@@@@ATL@@@Z
	DD	2 DUP(00H)
	DD	2 DUP(00H)
	DD	00H
	DD	01H
xdata$x	ENDS
;	COMDAT xdata$x
xdata$x	SEGMENT
__unwindtable$?SaveIniValue@CInputBarDlg@@MAEXXZ DD 0ffffffffH
	DD	FLAT:__unwindfunclet$?SaveIniValue@CInputBarDlg@@MAEXXZ$0
	DD	00H
	DD	FLAT:__unwindfunclet$?SaveIniValue@CInputBarDlg@@MAEXXZ$1
__ehfuncinfo$?SaveIniValue@CInputBarDlg@@MAEXXZ DD 019930522H
	DD	02H
	DD	FLAT:__unwindtable$?SaveIniValue@CInputBarDlg@@MAEXXZ
	DD	2 DUP(00H)
	DD	2 DUP(00H)
	DD	00H
	DD	01H
xdata$x	ENDS
;	COMDAT xdata$x
xdata$x	SEGMENT
__ehfuncinfo$?Init@CInputBarDlg@@MAEXXZ DD 019930522H
	DD	07H
	DD	FLAT:__unwindtable$?Init@CInputBarDlg@@MAEXXZ
	DD	2 DUP(00H)
	DD	2 DUP(00H)
	DD	00H
	DD	01H
__unwindtable$?Init@CInputBarDlg@@MAEXXZ DD 0ffffffffH
	DD	FLAT:__unwindfunclet$?Init@CInputBarDlg@@MAEXXZ$0
	DD	00H
	DD	FLAT:__unwindfunclet$?Init@CInputBarDlg@@MAEXXZ$1
	DD	01H
	DD	FLAT:__unwindfunclet$?Init@CInputBarDlg@@MAEXXZ$2
	DD	02H
	DD	FLAT:__unwindfunclet$?Init@CInputBarDlg@@MAEXXZ$3
	DD	03H
	DD	FLAT:__unwindfunclet$?Init@CInputBarDlg@@MAEXXZ$4
	DD	04H
	DD	FLAT:__unwindfunclet$?Init@CInputBarDlg@@MAEXXZ$36
	DD	05H
	DD	FLAT:__unwindfunclet$?Init@CInputBarDlg@@MAEXXZ$37
xdata$x	ENDS
;	COMDAT xdata$x
xdata$x	SEGMENT
__unwindtable$?GetBitFromCodeInfoJongmok@CInputBarDlg@@IAEJXZ DD 0ffffffffH
	DD	FLAT:__unwindfunclet$?GetBitFromCodeInfoJongmok@CInputBarDlg@@IAEJXZ$0
__ehfuncinfo$?GetBitFromCodeInfoJongmok@CInputBarDlg@@IAEJXZ DD 019930522H
	DD	01H
	DD	FLAT:__unwindtable$?GetBitFromCodeInfoJongmok@CInputBarDlg@@IAEJXZ
	DD	2 DUP(00H)
	DD	2 DUP(00H)
	DD	00H
	DD	01H
xdata$x	ENDS
;	COMDAT xdata$x
xdata$x	SEGMENT
__unwindtable$?GetBitFromCodeInfoUpjong@CInputBarDlg@@IAEJXZ DD 0ffffffffH
	DD	FLAT:__unwindfunclet$?GetBitFromCodeInfoUpjong@CInputBarDlg@@IAEJXZ$0
__ehfuncinfo$?GetBitFromCodeInfoUpjong@CInputBarDlg@@IAEJXZ DD 019930522H
	DD	01H
	DD	FLAT:__unwindtable$?GetBitFromCodeInfoUpjong@CInputBarDlg@@IAEJXZ
	DD	2 DUP(00H)
	DD	2 DUP(00H)
	DD	00H
	DD	01H
xdata$x	ENDS
;	COMDAT xdata$x
xdata$x	SEGMENT
__unwindtable$??_G?$CList@PAVCHistory@@PAV1@@@UAEPAXI@Z DD 0ffffffffH
	DD	FLAT:___std_terminate
__ehfuncinfo$??_G?$CList@PAVCHistory@@PAV1@@@UAEPAXI@Z DD 019930522H
	DD	01H
	DD	FLAT:__unwindtable$??_G?$CList@PAVCHistory@@PAV1@@@UAEPAXI@Z
	DD	2 DUP(00H)
	DD	2 DUP(00H)
	DD	00H
	DD	05H
xdata$x	ENDS
;	COMDAT xdata$x
xdata$x	SEGMENT
__ehfuncinfo$??1?$CList@PAVCHistory@@PAV1@@@UAE@XZ DD 019930522H
	DD	00H
	DD	00H
	DD	2 DUP(00H)
	DD	2 DUP(00H)
	DD	00H
	DD	05H
xdata$x	ENDS
;	COMDAT xdata$x
xdata$x	SEGMENT
__unwindtable$?SetType@CInputBarDlg@@MAEXH@Z DD 0ffffffffH
	DD	FLAT:__unwindfunclet$?SetType@CInputBarDlg@@MAEXH@Z$0
	DD	00H
	DD	FLAT:__unwindfunclet$?SetType@CInputBarDlg@@MAEXH@Z$1
	DD	01H
	DD	FLAT:__unwindfunclet$?SetType@CInputBarDlg@@MAEXH@Z$3
	DD	01H
	DD	FLAT:__unwindfunclet$?SetType@CInputBarDlg@@MAEXH@Z$4
__ehfuncinfo$?SetType@CInputBarDlg@@MAEXH@Z DD 019930522H
	DD	04H
	DD	FLAT:__unwindtable$?SetType@CInputBarDlg@@MAEXH@Z
	DD	2 DUP(00H)
	DD	2 DUP(00H)
	DD	00H
	DD	01H
xdata$x	ENDS
;	COMDAT xdata$x
xdata$x	SEGMENT
__ehfuncinfo$?AddHistoryInfoListJongmok@CInputBarDlg@@IAEHV?$CStringT@DV?$StrTraitMFC_DLL@DV?$ChTraitsCRT@D@ATL@@@@@ATL@@0H@Z DD 019930522H
	DD	06H
	DD	FLAT:__unwindtable$?AddHistoryInfoListJongmok@CInputBarDlg@@IAEHV?$CStringT@DV?$StrTraitMFC_DLL@DV?$ChTraitsCRT@D@ATL@@@@@ATL@@0H@Z
	DD	2 DUP(00H)
	DD	2 DUP(00H)
	DD	00H
	DD	01H
__unwindtable$?AddHistoryInfoListJongmok@CInputBarDlg@@IAEHV?$CStringT@DV?$StrTraitMFC_DLL@DV?$ChTraitsCRT@D@ATL@@@@@ATL@@0H@Z DD 0ffffffffH
	DD	FLAT:__unwindfunclet$?AddHistoryInfoListJongmok@CInputBarDlg@@IAEHV?$CStringT@DV?$StrTraitMFC_DLL@DV?$ChTraitsCRT@D@ATL@@@@@ATL@@0H@Z$0
	DD	00H
	DD	FLAT:__unwindfunclet$?AddHistoryInfoListJongmok@CInputBarDlg@@IAEHV?$CStringT@DV?$StrTraitMFC_DLL@DV?$ChTraitsCRT@D@ATL@@@@@ATL@@0H@Z$1
	DD	01H
	DD	FLAT:__unwindfunclet$?AddHistoryInfoListJongmok@CInputBarDlg@@IAEHV?$CStringT@DV?$StrTraitMFC_DLL@DV?$ChTraitsCRT@D@ATL@@@@@ATL@@0H@Z$2
	DD	02H
	DD	FLAT:__unwindfunclet$?AddHistoryInfoListJongmok@CInputBarDlg@@IAEHV?$CStringT@DV?$StrTraitMFC_DLL@DV?$ChTraitsCRT@D@ATL@@@@@ATL@@0H@Z$3
	DD	03H
	DD	FLAT:__unwindfunclet$?AddHistoryInfoListJongmok@CInputBarDlg@@IAEHV?$CStringT@DV?$StrTraitMFC_DLL@DV?$ChTraitsCRT@D@ATL@@@@@ATL@@0H@Z$4
	DD	04H
	DD	FLAT:__unwindfunclet$?AddHistoryInfoListJongmok@CInputBarDlg@@IAEHV?$CStringT@DV?$StrTraitMFC_DLL@DV?$ChTraitsCRT@D@ATL@@@@@ATL@@0H@Z$5
xdata$x	ENDS
;	COMDAT xdata$x
xdata$x	SEGMENT
__ehfuncinfo$?AddHistoryInfoListUpjong@CInputBarDlg@@IAEHV?$CStringT@DV?$StrTraitMFC_DLL@DV?$ChTraitsCRT@D@ATL@@@@@ATL@@0H@Z DD 019930522H
	DD	06H
	DD	FLAT:__unwindtable$?AddHistoryInfoListUpjong@CInputBarDlg@@IAEHV?$CStringT@DV?$StrTraitMFC_DLL@DV?$ChTraitsCRT@D@ATL@@@@@ATL@@0H@Z
	DD	2 DUP(00H)
	DD	2 DUP(00H)
	DD	00H
	DD	01H
__unwindtable$?AddHistoryInfoListUpjong@CInputBarDlg@@IAEHV?$CStringT@DV?$StrTraitMFC_DLL@DV?$ChTraitsCRT@D@ATL@@@@@ATL@@0H@Z DD 0ffffffffH
	DD	FLAT:__unwindfunclet$?AddHistoryInfoListUpjong@CInputBarDlg@@IAEHV?$CStringT@DV?$StrTraitMFC_DLL@DV?$ChTraitsCRT@D@ATL@@@@@ATL@@0H@Z$0
	DD	00H
	DD	FLAT:__unwindfunclet$?AddHistoryInfoListUpjong@CInputBarDlg@@IAEHV?$CStringT@DV?$StrTraitMFC_DLL@DV?$ChTraitsCRT@D@ATL@@@@@ATL@@0H@Z$1
	DD	01H
	DD	FLAT:__unwindfunclet$?AddHistoryInfoListUpjong@CInputBarDlg@@IAEHV?$CStringT@DV?$StrTraitMFC_DLL@DV?$ChTraitsCRT@D@ATL@@@@@ATL@@0H@Z$2
	DD	02H
	DD	FLAT:__unwindfunclet$?AddHistoryInfoListUpjong@CInputBarDlg@@IAEHV?$CStringT@DV?$StrTraitMFC_DLL@DV?$ChTraitsCRT@D@ATL@@@@@ATL@@0H@Z$3
	DD	03H
	DD	FLAT:__unwindfunclet$?AddHistoryInfoListUpjong@CInputBarDlg@@IAEHV?$CStringT@DV?$StrTraitMFC_DLL@DV?$ChTraitsCRT@D@ATL@@@@@ATL@@0H@Z$4
	DD	04H
	DD	FLAT:__unwindfunclet$?AddHistoryInfoListUpjong@CInputBarDlg@@IAEHV?$CStringT@DV?$StrTraitMFC_DLL@DV?$ChTraitsCRT@D@ATL@@@@@ATL@@0H@Z$5
xdata$x	ENDS
;	COMDAT xdata$x
xdata$x	SEGMENT
__ehfuncinfo$?GetCodeNameAndGubun@CInputBarDlg@@IAE?AV?$CStringT@DV?$StrTraitMFC_DLL@DV?$ChTraitsCRT@D@ATL@@@@@ATL@@V23@@Z DD 019930522H
	DD	09H
	DD	FLAT:__unwindtable$?GetCodeNameAndGubun@CInputBarDlg@@IAE?AV?$CStringT@DV?$StrTraitMFC_DLL@DV?$ChTraitsCRT@D@ATL@@@@@ATL@@V23@@Z
	DD	2 DUP(00H)
	DD	2 DUP(00H)
	DD	00H
	DD	01H
__unwindtable$?GetCodeNameAndGubun@CInputBarDlg@@IAE?AV?$CStringT@DV?$StrTraitMFC_DLL@DV?$ChTraitsCRT@D@ATL@@@@@ATL@@V23@@Z DD 0ffffffffH
	DD	FLAT:__unwindfunclet$?GetCodeNameAndGubun@CInputBarDlg@@IAE?AV?$CStringT@DV?$StrTraitMFC_DLL@DV?$ChTraitsCRT@D@ATL@@@@@ATL@@V23@@Z$0
	DD	00H
	DD	FLAT:__unwindfunclet$?GetCodeNameAndGubun@CInputBarDlg@@IAE?AV?$CStringT@DV?$StrTraitMFC_DLL@DV?$ChTraitsCRT@D@ATL@@@@@ATL@@V23@@Z$1
	DD	01H
	DD	FLAT:__unwindfunclet$?GetCodeNameAndGubun@CInputBarDlg@@IAE?AV?$CStringT@DV?$StrTraitMFC_DLL@DV?$ChTraitsCRT@D@ATL@@@@@ATL@@V23@@Z$2
	DD	02H
	DD	FLAT:__unwindfunclet$?GetCodeNameAndGubun@CInputBarDlg@@IAE?AV?$CStringT@DV?$StrTraitMFC_DLL@DV?$ChTraitsCRT@D@ATL@@@@@ATL@@V23@@Z$3
	DD	02H
	DD	FLAT:__unwindfunclet$?GetCodeNameAndGubun@CInputBarDlg@@IAE?AV?$CStringT@DV?$StrTraitMFC_DLL@DV?$ChTraitsCRT@D@ATL@@@@@ATL@@V23@@Z$4
	DD	02H
	DD	FLAT:__unwindfunclet$?GetCodeNameAndGubun@CInputBarDlg@@IAE?AV?$CStringT@DV?$StrTraitMFC_DLL@DV?$ChTraitsCRT@D@ATL@@@@@ATL@@V23@@Z$6
	DD	05H
	DD	FLAT:__unwindfunclet$?GetCodeNameAndGubun@CInputBarDlg@@IAE?AV?$CStringT@DV?$StrTraitMFC_DLL@DV?$ChTraitsCRT@D@ATL@@@@@ATL@@V23@@Z$7
	DD	02H
	DD	FLAT:__unwindfunclet$?GetCodeNameAndGubun@CInputBarDlg@@IAE?AV?$CStringT@DV?$StrTraitMFC_DLL@DV?$ChTraitsCRT@D@ATL@@@@@ATL@@V23@@Z$8
	DD	02H
	DD	FLAT:__unwindfunclet$?GetCodeNameAndGubun@CInputBarDlg@@IAE?AV?$CStringT@DV?$StrTraitMFC_DLL@DV?$ChTraitsCRT@D@ATL@@@@@ATL@@V23@@Z$9
xdata$x	ENDS
;	COMDAT xdata$x
xdata$x	SEGMENT
__ehfuncinfo$?WindowProc@CInputBarDlg@@MAEJIIJ@Z DD 019930522H
	DD	021H
	DD	FLAT:__unwindtable$?WindowProc@CInputBarDlg@@MAEJIIJ@Z
	DD	2 DUP(00H)
	DD	2 DUP(00H)
	DD	00H
	DD	01H
__unwindtable$?WindowProc@CInputBarDlg@@MAEJIIJ@Z DD 0ffffffffH
	DD	FLAT:__unwindfunclet$?WindowProc@CInputBarDlg@@MAEJIIJ@Z$0
	DD	00H
	DD	FLAT:__unwindfunclet$?WindowProc@CInputBarDlg@@MAEJIIJ@Z$2
	DD	00H
	DD	FLAT:__unwindfunclet$?WindowProc@CInputBarDlg@@MAEJIIJ@Z$4
	DD	02H
	DD	FLAT:__unwindfunclet$?WindowProc@CInputBarDlg@@MAEJIIJ@Z$5
	DD	0ffffffffH
	DD	FLAT:__unwindfunclet$?WindowProc@CInputBarDlg@@MAEJIIJ@Z$9
	DD	0ffffffffH
	DD	FLAT:__unwindfunclet$?WindowProc@CInputBarDlg@@MAEJIIJ@Z$11
	DD	05H
	DD	FLAT:__unwindfunclet$?WindowProc@CInputBarDlg@@MAEJIIJ@Z$12
	DD	06H
	DD	FLAT:__unwindfunclet$?WindowProc@CInputBarDlg@@MAEJIIJ@Z$13
	DD	07H
	DD	FLAT:__unwindfunclet$?WindowProc@CInputBarDlg@@MAEJIIJ@Z$14
	DD	05H
	DD	FLAT:__unwindfunclet$?WindowProc@CInputBarDlg@@MAEJIIJ@Z$15
	DD	05H
	DD	FLAT:__unwindfunclet$?WindowProc@CInputBarDlg@@MAEJIIJ@Z$18
	DD	05H
	DD	FLAT:__unwindfunclet$?WindowProc@CInputBarDlg@@MAEJIIJ@Z$19
	DD	05H
	DD	FLAT:__unwindfunclet$?WindowProc@CInputBarDlg@@MAEJIIJ@Z$22
	DD	05H
	DD	FLAT:__unwindfunclet$?WindowProc@CInputBarDlg@@MAEJIIJ@Z$23
	DD	05H
	DD	FLAT:__unwindfunclet$?WindowProc@CInputBarDlg@@MAEJIIJ@Z$24
	DD	05H
	DD	FLAT:__unwindfunclet$?WindowProc@CInputBarDlg@@MAEJIIJ@Z$27
	DD	05H
	DD	FLAT:__unwindfunclet$?WindowProc@CInputBarDlg@@MAEJIIJ@Z$30
	DD	05H
	DD	FLAT:__unwindfunclet$?WindowProc@CInputBarDlg@@MAEJIIJ@Z$32
	DD	0ffffffffH
	DD	FLAT:__unwindfunclet$?WindowProc@CInputBarDlg@@MAEJIIJ@Z$33
	DD	012H
	DD	FLAT:__unwindfunclet$?WindowProc@CInputBarDlg@@MAEJIIJ@Z$35
	DD	013H
	DD	FLAT:__unwindfunclet$?WindowProc@CInputBarDlg@@MAEJIIJ@Z$36
	DD	013H
	DD	FLAT:__unwindfunclet$?WindowProc@CInputBarDlg@@MAEJIIJ@Z$38
	DD	0ffffffffH
	DD	FLAT:__unwindfunclet$?WindowProc@CInputBarDlg@@MAEJIIJ@Z$40
	DD	016H
	DD	FLAT:__unwindfunclet$?WindowProc@CInputBarDlg@@MAEJIIJ@Z$41
	DD	017H
	DD	FLAT:__unwindfunclet$?WindowProc@CInputBarDlg@@MAEJIIJ@Z$42
	DD	017H
	DD	FLAT:__unwindfunclet$?WindowProc@CInputBarDlg@@MAEJIIJ@Z$44
	DD	017H
	DD	FLAT:__unwindfunclet$?WindowProc@CInputBarDlg@@MAEJIIJ@Z$46
	DD	0ffffffffH
	DD	FLAT:__unwindfunclet$?WindowProc@CInputBarDlg@@MAEJIIJ@Z$48
	DD	0ffffffffH
	DD	FLAT:__unwindfunclet$?WindowProc@CInputBarDlg@@MAEJIIJ@Z$49
	DD	01cH
	DD	FLAT:__unwindfunclet$?WindowProc@CInputBarDlg@@MAEJIIJ@Z$50
	DD	01cH
	DD	FLAT:__unwindfunclet$?WindowProc@CInputBarDlg@@MAEJIIJ@Z$52
	DD	0ffffffffH
	DD	FLAT:__unwindfunclet$?WindowProc@CInputBarDlg@@MAEJIIJ@Z$54
	DD	0ffffffffH
	DD	FLAT:__unwindfunclet$?WindowProc@CInputBarDlg@@MAEJIIJ@Z$55
xdata$x	ENDS
;	COMDAT xdata$x
xdata$x	SEGMENT
__unwindtable$?PreTranslateMessage@CInputBarDlg@@UAEHPAUtagMSG@@@Z DD 0ffffffffH
	DD	FLAT:__unwindfunclet$?PreTranslateMessage@CInputBarDlg@@UAEHPAUtagMSG@@@Z$0
	DD	00H
	DD	FLAT:__unwindfunclet$?PreTranslateMessage@CInputBarDlg@@UAEHPAUtagMSG@@@Z$1
	DD	0ffffffffH
	DD	FLAT:__unwindfunclet$?PreTranslateMessage@CInputBarDlg@@UAEHPAUtagMSG@@@Z$3
	DD	0ffffffffH
	DD	FLAT:__unwindfunclet$?PreTranslateMessage@CInputBarDlg@@UAEHPAUtagMSG@@@Z$4
__ehfuncinfo$?PreTranslateMessage@CInputBarDlg@@UAEHPAUtagMSG@@@Z DD 019930522H
	DD	04H
	DD	FLAT:__unwindtable$?PreTranslateMessage@CInputBarDlg@@UAEHPAUtagMSG@@@Z
	DD	2 DUP(00H)
	DD	2 DUP(00H)
	DD	00H
	DD	01H
xdata$x	ENDS
;	COMDAT xdata$x
xdata$x	SEGMENT
__unwindtable$?OnSelendokFOHistoryBtn@CInputBarDlg@@QAEXXZ DD 0ffffffffH
	DD	FLAT:__unwindfunclet$?OnSelendokFOHistoryBtn@CInputBarDlg@@QAEXXZ$0
__ehfuncinfo$?OnSelendokFOHistoryBtn@CInputBarDlg@@QAEXXZ DD 019930522H
	DD	01H
	DD	FLAT:__unwindtable$?OnSelendokFOHistoryBtn@CInputBarDlg@@QAEXXZ
	DD	2 DUP(00H)
	DD	2 DUP(00H)
	DD	00H
	DD	01H
xdata$x	ENDS
;	COMDAT xdata$x
xdata$x	SEGMENT
__ehfuncinfo$??0CInputBarDlg@@QAE@PAVCWnd@@@Z DD 019930522H
	DD	038H
	DD	FLAT:__unwindtable$??0CInputBarDlg@@QAE@PAVCWnd@@@Z
	DD	2 DUP(00H)
	DD	2 DUP(00H)
	DD	00H
	DD	01H
__unwindtable$??0CInputBarDlg@@QAE@PAVCWnd@@@Z DD 0ffffffffH
	DD	FLAT:__unwindfunclet$??0CInputBarDlg@@QAE@PAVCWnd@@@Z$0
	DD	00H
	DD	FLAT:__unwindfunclet$??0CInputBarDlg@@QAE@PAVCWnd@@@Z$1
	DD	01H
	DD	FLAT:__unwindfunclet$??0CInputBarDlg@@QAE@PAVCWnd@@@Z$2
	DD	02H
	DD	FLAT:__unwindfunclet$??0CInputBarDlg@@QAE@PAVCWnd@@@Z$3
	DD	03H
	DD	FLAT:__unwindfunclet$??0CInputBarDlg@@QAE@PAVCWnd@@@Z$4
	DD	04H
	DD	FLAT:__unwindfunclet$??0CInputBarDlg@@QAE@PAVCWnd@@@Z$5
	DD	05H
	DD	FLAT:__unwindfunclet$??0CInputBarDlg@@QAE@PAVCWnd@@@Z$6
	DD	06H
	DD	FLAT:__unwindfunclet$??0CInputBarDlg@@QAE@PAVCWnd@@@Z$7
	DD	07H
	DD	FLAT:__unwindfunclet$??0CInputBarDlg@@QAE@PAVCWnd@@@Z$8
	DD	08H
	DD	FLAT:__unwindfunclet$??0CInputBarDlg@@QAE@PAVCWnd@@@Z$9
	DD	09H
	DD	FLAT:__unwindfunclet$??0CInputBarDlg@@QAE@PAVCWnd@@@Z$10
	DD	0aH
	DD	FLAT:__unwindfunclet$??0CInputBarDlg@@QAE@PAVCWnd@@@Z$11
	DD	0bH
	DD	FLAT:__unwindfunclet$??0CInputBarDlg@@QAE@PAVCWnd@@@Z$12
	DD	0cH
	DD	FLAT:__unwindfunclet$??0CInputBarDlg@@QAE@PAVCWnd@@@Z$13
	DD	0dH
	DD	FLAT:__unwindfunclet$??0CInputBarDlg@@QAE@PAVCWnd@@@Z$14
	DD	0eH
	DD	FLAT:__unwindfunclet$??0CInputBarDlg@@QAE@PAVCWnd@@@Z$15
	DD	0fH
	DD	FLAT:__unwindfunclet$??0CInputBarDlg@@QAE@PAVCWnd@@@Z$16
	DD	010H
	DD	FLAT:__unwindfunclet$??0CInputBarDlg@@QAE@PAVCWnd@@@Z$17
	DD	011H
	DD	FLAT:__unwindfunclet$??0CInputBarDlg@@QAE@PAVCWnd@@@Z$18
	DD	012H
	DD	FLAT:__unwindfunclet$??0CInputBarDlg@@QAE@PAVCWnd@@@Z$19
	DD	013H
	DD	FLAT:__unwindfunclet$??0CInputBarDlg@@QAE@PAVCWnd@@@Z$20
	DD	014H
	DD	FLAT:__unwindfunclet$??0CInputBarDlg@@QAE@PAVCWnd@@@Z$21
	DD	015H
	DD	FLAT:__unwindfunclet$??0CInputBarDlg@@QAE@PAVCWnd@@@Z$22
	DD	016H
	DD	FLAT:__unwindfunclet$??0CInputBarDlg@@QAE@PAVCWnd@@@Z$23
	DD	017H
	DD	FLAT:__unwindfunclet$??0CInputBarDlg@@QAE@PAVCWnd@@@Z$24
	DD	018H
	DD	FLAT:__unwindfunclet$??0CInputBarDlg@@QAE@PAVCWnd@@@Z$25
	DD	019H
	DD	FLAT:__unwindfunclet$??0CInputBarDlg@@QAE@PAVCWnd@@@Z$26
	DD	01aH
	DD	FLAT:__unwindfunclet$??0CInputBarDlg@@QAE@PAVCWnd@@@Z$27
	DD	01bH
	DD	FLAT:__unwindfunclet$??0CInputBarDlg@@QAE@PAVCWnd@@@Z$28
	DD	01cH
	DD	FLAT:__unwindfunclet$??0CInputBarDlg@@QAE@PAVCWnd@@@Z$29
	DD	01dH
	DD	FLAT:__unwindfunclet$??0CInputBarDlg@@QAE@PAVCWnd@@@Z$30
	DD	01eH
	DD	FLAT:__unwindfunclet$??0CInputBarDlg@@QAE@PAVCWnd@@@Z$31
	DD	01fH
	DD	FLAT:__unwindfunclet$??0CInputBarDlg@@QAE@PAVCWnd@@@Z$32
	DD	020H
	DD	FLAT:__unwindfunclet$??0CInputBarDlg@@QAE@PAVCWnd@@@Z$33
	DD	021H
	DD	FLAT:__unwindfunclet$??0CInputBarDlg@@QAE@PAVCWnd@@@Z$34
	DD	022H
	DD	FLAT:__unwindfunclet$??0CInputBarDlg@@QAE@PAVCWnd@@@Z$35
	DD	023H
	DD	FLAT:__unwindfunclet$??0CInputBarDlg@@QAE@PAVCWnd@@@Z$36
	DD	024H
	DD	FLAT:__unwindfunclet$??0CInputBarDlg@@QAE@PAVCWnd@@@Z$37
	DD	025H
	DD	FLAT:__unwindfunclet$??0CInputBarDlg@@QAE@PAVCWnd@@@Z$38
	DD	026H
	DD	FLAT:__unwindfunclet$??0CInputBarDlg@@QAE@PAVCWnd@@@Z$39
	DD	027H
	DD	FLAT:__unwindfunclet$??0CInputBarDlg@@QAE@PAVCWnd@@@Z$40
	DD	028H
	DD	FLAT:__unwindfunclet$??0CInputBarDlg@@QAE@PAVCWnd@@@Z$41
	DD	029H
	DD	FLAT:__unwindfunclet$??0CInputBarDlg@@QAE@PAVCWnd@@@Z$42
	DD	02aH
	DD	FLAT:__unwindfunclet$??0CInputBarDlg@@QAE@PAVCWnd@@@Z$43
	DD	02bH
	DD	FLAT:__unwindfunclet$??0CInputBarDlg@@QAE@PAVCWnd@@@Z$44
	DD	02cH
	DD	FLAT:__unwindfunclet$??0CInputBarDlg@@QAE@PAVCWnd@@@Z$45
	DD	02dH
	DD	FLAT:__unwindfunclet$??0CInputBarDlg@@QAE@PAVCWnd@@@Z$46
	DD	02eH
	DD	FLAT:__unwindfunclet$??0CInputBarDlg@@QAE@PAVCWnd@@@Z$47
	DD	02fH
	DD	FLAT:__unwindfunclet$??0CInputBarDlg@@QAE@PAVCWnd@@@Z$48
	DD	030H
	DD	FLAT:__unwindfunclet$??0CInputBarDlg@@QAE@PAVCWnd@@@Z$49
	DD	031H
	DD	FLAT:__unwindfunclet$??0CInputBarDlg@@QAE@PAVCWnd@@@Z$50
	DD	032H
	DD	FLAT:__unwindfunclet$??0CInputBarDlg@@QAE@PAVCWnd@@@Z$51
	DD	033H
	DD	FLAT:__unwindfunclet$??0CInputBarDlg@@QAE@PAVCWnd@@@Z$52
	DD	034H
	DD	FLAT:__unwindfunclet$??0CInputBarDlg@@QAE@PAVCWnd@@@Z$53
	DD	035H
	DD	FLAT:__unwindfunclet$??0CInputBarDlg@@QAE@PAVCWnd@@@Z$54
	DD	036H
	DD	FLAT:__unwindfunclet$??0CInputBarDlg@@QAE@PAVCWnd@@@Z$55
xdata$x	ENDS
;	COMDAT xdata$x
xdata$x	SEGMENT
__unwindtable$?ChangeMarket@CInputBarDlg@@QAEHIHH@Z DD 0ffffffffH
	DD	FLAT:__unwindfunclet$?ChangeMarket@CInputBarDlg@@QAEHIHH@Z$0
__ehfuncinfo$?ChangeMarket@CInputBarDlg@@QAEHIHH@Z DD 019930522H
	DD	01H
	DD	FLAT:__unwindtable$?ChangeMarket@CInputBarDlg@@QAEHIHH@Z
	DD	2 DUP(00H)
	DD	2 DUP(00H)
	DD	00H
	DD	01H
xdata$x	ENDS
;	COMDAT xdata$x
xdata$x	SEGMENT
__unwindtable$?SetKeyCodeChange@CInputBarDlg@@QAEXIJ@Z DD 0ffffffffH
	DD	FLAT:__unwindfunclet$?SetKeyCodeChange@CInputBarDlg@@QAEXIJ@Z$0
	DD	00H
	DD	FLAT:__unwindfunclet$?SetKeyCodeChange@CInputBarDlg@@QAEXIJ@Z$1
	DD	01H
	DD	FLAT:__unwindfunclet$?SetKeyCodeChange@CInputBarDlg@@QAEXIJ@Z$2
	DD	01H
	DD	FLAT:__unwindfunclet$?SetKeyCodeChange@CInputBarDlg@@QAEXIJ@Z$4
__ehfuncinfo$?SetKeyCodeChange@CInputBarDlg@@QAEXIJ@Z DD 019930522H
	DD	04H
	DD	FLAT:__unwindtable$?SetKeyCodeChange@CInputBarDlg@@QAEXIJ@Z
	DD	2 DUP(00H)
	DD	2 DUP(00H)
	DD	00H
	DD	01H
xdata$x	ENDS
;	COMDAT xdata$x
xdata$x	SEGMENT
__unwindtable$?InitBaseInfo@CInputBarDlg@@QAEXPAVCBaseDesk2@@H@Z DD 0ffffffffH
	DD	FLAT:__unwindfunclet$?InitBaseInfo@CInputBarDlg@@QAEXPAVCBaseDesk2@@H@Z$0
__ehfuncinfo$?InitBaseInfo@CInputBarDlg@@QAEXPAVCBaseDesk2@@H@Z DD 019930522H
	DD	01H
	DD	FLAT:__unwindtable$?InitBaseInfo@CInputBarDlg@@QAEXPAVCBaseDesk2@@H@Z
	DD	2 DUP(00H)
	DD	2 DUP(00H)
	DD	00H
	DD	01H
xdata$x	ENDS
;	COMDAT xdata$x
xdata$x	SEGMENT
__unwindtable$?SetCurrentCode@CInputBarDlg@@QAEXV?$CStringT@DV?$StrTraitMFC_DLL@DV?$ChTraitsCRT@D@ATL@@@@@ATL@@@Z DD 0ffffffffH
	DD	FLAT:__unwindfunclet$?SetCurrentCode@CInputBarDlg@@QAEXV?$CStringT@DV?$StrTraitMFC_DLL@DV?$ChTraitsCRT@D@ATL@@@@@ATL@@@Z$0
__ehfuncinfo$?SetCurrentCode@CInputBarDlg@@QAEXV?$CStringT@DV?$StrTraitMFC_DLL@DV?$ChTraitsCRT@D@ATL@@@@@ATL@@@Z DD 019930522H
	DD	01H
	DD	FLAT:__unwindtable$?SetCurrentCode@CInputBarDlg@@QAEXV?$CStringT@DV?$StrTraitMFC_DLL@DV?$ChTraitsCRT@D@ATL@@@@@ATL@@@Z
	DD	2 DUP(00H)
	DD	2 DUP(00H)
	DD	00H
	DD	01H
xdata$x	ENDS
;	COMDAT xdata$x
xdata$x	SEGMENT
__unwindtable$?GetReplayDayBefore@CInputBarDlg@@QAEJXZ DD 0ffffffffH
	DD	FLAT:__unwindfunclet$?GetReplayDayBefore@CInputBarDlg@@QAEJXZ$0
__ehfuncinfo$?GetReplayDayBefore@CInputBarDlg@@QAEJXZ DD 019930522H
	DD	01H
	DD	FLAT:__unwindtable$?GetReplayDayBefore@CInputBarDlg@@QAEJXZ
	DD	2 DUP(00H)
	DD	2 DUP(00H)
	DD	00H
	DD	01H
xdata$x	ENDS
;	COMDAT xdata$x
xdata$x	SEGMENT
__unwindtable$?GetReplayStartTime@CInputBarDlg@@QAEJXZ DD 0ffffffffH
	DD	FLAT:__unwindfunclet$?GetReplayStartTime@CInputBarDlg@@QAEJXZ$0
	DD	00H
	DD	FLAT:__unwindfunclet$?GetReplayStartTime@CInputBarDlg@@QAEJXZ$1
	DD	01H
	DD	FLAT:__unwindfunclet$?GetReplayStartTime@CInputBarDlg@@QAEJXZ$2
__ehfuncinfo$?GetReplayStartTime@CInputBarDlg@@QAEJXZ DD 019930522H
	DD	03H
	DD	FLAT:__unwindtable$?GetReplayStartTime@CInputBarDlg@@QAEJXZ
	DD	2 DUP(00H)
	DD	2 DUP(00H)
	DD	00H
	DD	01H
xdata$x	ENDS
;	COMDAT xdata$x
xdata$x	SEGMENT
__unwindtable$?GetReplaySpeed@CInputBarDlg@@QAEJXZ DD 0ffffffffH
	DD	FLAT:__unwindfunclet$?GetReplaySpeed@CInputBarDlg@@QAEJXZ$0
__ehfuncinfo$?GetReplaySpeed@CInputBarDlg@@QAEJXZ DD 019930522H
	DD	01H
	DD	FLAT:__unwindtable$?GetReplaySpeed@CInputBarDlg@@QAEJXZ
	DD	2 DUP(00H)
	DD	2 DUP(00H)
	DD	00H
	DD	01H
xdata$x	ENDS
;	COMDAT xdata$x
xdata$x	SEGMENT
__ehfuncinfo$?GetJongMokNameByCode@CInputBarDlg@@QAE?AV?$CStringT@DV?$StrTraitMFC_DLL@DV?$ChTraitsCRT@D@ATL@@@@@ATL@@V23@PBD@Z DD 019930522H
	DD	0cH
	DD	FLAT:__unwindtable$?GetJongMokNameByCode@CInputBarDlg@@QAE?AV?$CStringT@DV?$StrTraitMFC_DLL@DV?$ChTraitsCRT@D@ATL@@@@@ATL@@V23@PBD@Z
	DD	2 DUP(00H)
	DD	2 DUP(00H)
	DD	00H
	DD	01H
__unwindtable$?GetJongMokNameByCode@CInputBarDlg@@QAE?AV?$CStringT@DV?$StrTraitMFC_DLL@DV?$ChTraitsCRT@D@ATL@@@@@ATL@@V23@PBD@Z DD 0ffffffffH
	DD	FLAT:__unwindfunclet$?GetJongMokNameByCode@CInputBarDlg@@QAE?AV?$CStringT@DV?$StrTraitMFC_DLL@DV?$ChTraitsCRT@D@ATL@@@@@ATL@@V23@PBD@Z$0
	DD	00H
	DD	FLAT:__unwindfunclet$?GetJongMokNameByCode@CInputBarDlg@@QAE?AV?$CStringT@DV?$StrTraitMFC_DLL@DV?$ChTraitsCRT@D@ATL@@@@@ATL@@V23@PBD@Z$2
	DD	01H
	DD	FLAT:__unwindfunclet$?GetJongMokNameByCode@CInputBarDlg@@QAE?AV?$CStringT@DV?$StrTraitMFC_DLL@DV?$ChTraitsCRT@D@ATL@@@@@ATL@@V23@PBD@Z$3
	DD	01H
	DD	FLAT:__unwindfunclet$?GetJongMokNameByCode@CInputBarDlg@@QAE?AV?$CStringT@DV?$StrTraitMFC_DLL@DV?$ChTraitsCRT@D@ATL@@@@@ATL@@V23@PBD@Z$4
	DD	01H
	DD	FLAT:__unwindfunclet$?GetJongMokNameByCode@CInputBarDlg@@QAE?AV?$CStringT@DV?$StrTraitMFC_DLL@DV?$ChTraitsCRT@D@ATL@@@@@ATL@@V23@PBD@Z$5
	DD	01H
	DD	FLAT:__unwindfunclet$?GetJongMokNameByCode@CInputBarDlg@@QAE?AV?$CStringT@DV?$StrTraitMFC_DLL@DV?$ChTraitsCRT@D@ATL@@@@@ATL@@V23@PBD@Z$6
	DD	01H
	DD	FLAT:__unwindfunclet$?GetJongMokNameByCode@CInputBarDlg@@QAE?AV?$CStringT@DV?$StrTraitMFC_DLL@DV?$ChTraitsCRT@D@ATL@@@@@ATL@@V23@PBD@Z$7
	DD	01H
	DD	FLAT:__unwindfunclet$?GetJongMokNameByCode@CInputBarDlg@@QAE?AV?$CStringT@DV?$StrTraitMFC_DLL@DV?$ChTraitsCRT@D@ATL@@@@@ATL@@V23@PBD@Z$8
	DD	01H
	DD	FLAT:__unwindfunclet$?GetJongMokNameByCode@CInputBarDlg@@QAE?AV?$CStringT@DV?$StrTraitMFC_DLL@DV?$ChTraitsCRT@D@ATL@@@@@ATL@@V23@PBD@Z$9
	DD	01H
	DD	FLAT:__unwindfunclet$?GetJongMokNameByCode@CInputBarDlg@@QAE?AV?$CStringT@DV?$StrTraitMFC_DLL@DV?$ChTraitsCRT@D@ATL@@@@@ATL@@V23@PBD@Z$10
	DD	01H
	DD	FLAT:__unwindfunclet$?GetJongMokNameByCode@CInputBarDlg@@QAE?AV?$CStringT@DV?$StrTraitMFC_DLL@DV?$ChTraitsCRT@D@ATL@@@@@ATL@@V23@PBD@Z$11
	DD	01H
	DD	FLAT:__unwindfunclet$?GetJongMokNameByCode@CInputBarDlg@@QAE?AV?$CStringT@DV?$StrTraitMFC_DLL@DV?$ChTraitsCRT@D@ATL@@@@@ATL@@V23@PBD@Z$12
xdata$x	ENDS
;	COMDAT xdata$x
xdata$x	SEGMENT
__unwindtable$?SetCurCodeNameToControl@CInputBarDlg@@QAEXV?$CStringT@DV?$StrTraitMFC_DLL@DV?$ChTraitsCRT@D@ATL@@@@@ATL@@@Z DD 0ffffffffH
	DD	FLAT:__unwindfunclet$?SetCurCodeNameToControl@CInputBarDlg@@QAEXV?$CStringT@DV?$StrTraitMFC_DLL@DV?$ChTraitsCRT@D@ATL@@@@@ATL@@@Z$0
	DD	00H
	DD	FLAT:__unwindfunclet$?SetCurCodeNameToControl@CInputBarDlg@@QAEXV?$CStringT@DV?$StrTraitMFC_DLL@DV?$ChTraitsCRT@D@ATL@@@@@ATL@@@Z$1
	DD	01H
	DD	FLAT:__unwindfunclet$?SetCurCodeNameToControl@CInputBarDlg@@QAEXV?$CStringT@DV?$StrTraitMFC_DLL@DV?$ChTraitsCRT@D@ATL@@@@@ATL@@@Z$2
	DD	01H
	DD	FLAT:__unwindfunclet$?SetCurCodeNameToControl@CInputBarDlg@@QAEXV?$CStringT@DV?$StrTraitMFC_DLL@DV?$ChTraitsCRT@D@ATL@@@@@ATL@@@Z$4
__ehfuncinfo$?SetCurCodeNameToControl@CInputBarDlg@@QAEXV?$CStringT@DV?$StrTraitMFC_DLL@DV?$ChTraitsCRT@D@ATL@@@@@ATL@@@Z DD 019930522H
	DD	04H
	DD	FLAT:__unwindtable$?SetCurCodeNameToControl@CInputBarDlg@@QAEXV?$CStringT@DV?$StrTraitMFC_DLL@DV?$ChTraitsCRT@D@ATL@@@@@ATL@@@Z
	DD	2 DUP(00H)
	DD	2 DUP(00H)
	DD	00H
	DD	01H
xdata$x	ENDS
;	COMDAT xdata$x
xdata$x	SEGMENT
__ehfuncinfo$??_Estringdispid@CComTypeInfoHolder@ATL@@QAEPAXI@Z DD 019930522H
	DD	00H
	DD	00H
	DD	2 DUP(00H)
	DD	2 DUP(00H)
	DD	00H
	DD	05H
xdata$x	ENDS
;	COMDAT xdata$x
xdata$x	SEGMENT
__unwindtable$??0CHistory@@QAE@JPBD0@Z DD 0ffffffffH
	DD	FLAT:__unwindfunclet$??0CHistory@@QAE@JPBD0@Z$0
	DD	00H
	DD	FLAT:__unwindfunclet$??0CHistory@@QAE@JPBD0@Z$1
__ehfuncinfo$??0CHistory@@QAE@JPBD0@Z DD 019930522H
	DD	02H
	DD	FLAT:__unwindtable$??0CHistory@@QAE@JPBD0@Z
	DD	2 DUP(00H)
	DD	2 DUP(00H)
	DD	00H
	DD	01H
xdata$x	ENDS
;	COMDAT xdata$x
xdata$x	SEGMENT
__unwindtable$?AfxGetPctrInterface@@YGJH@Z DD 0ffffffffH
	DD	FLAT:__unwindfunclet$?AfxGetPctrInterface@@YGJH@Z$0
__ehfuncinfo$?AfxGetPctrInterface@@YGJH@Z DD 019930522H
	DD	01H
	DD	FLAT:__unwindtable$?AfxGetPctrInterface@@YGJH@Z
	DD	2 DUP(00H)
	DD	2 DUP(00H)
	DD	00H
	DD	01H
xdata$x	ENDS
;	COMDAT xdata$x
xdata$x	SEGMENT
__unwindtable$??_GCMenu@@UAEPAXI@Z DD 0ffffffffH
	DD	FLAT:___std_terminate
__ehfuncinfo$??_GCMenu@@UAEPAXI@Z DD 019930522H
	DD	01H
	DD	FLAT:__unwindtable$??_GCMenu@@UAEPAXI@Z
	DD	2 DUP(00H)
	DD	2 DUP(00H)
	DD	00H
	DD	05H
xdata$x	ENDS
;	COMDAT xdata$x
xdata$x	SEGMENT
__ehfuncinfo$??1CMenu@@UAE@XZ DD 019930522H
	DD	00H
	DD	00H
	DD	2 DUP(00H)
	DD	2 DUP(00H)
	DD	00H
	DD	05H
xdata$x	ENDS
;	COMDAT xdata$x
xdata$x	SEGMENT
__catchsym$??1CGdiObject@@UAE@XZ$3 DD 00H
	DD	FLAT:??_R0PAVCException@@@8
	DD	0fffffde4H
	DD	FLAT:__catch$??1CGdiObject@@UAE@XZ$0
__tryblocktable$??1CGdiObject@@UAE@XZ DD 00H
	DD	00H
	DD	02H
	DD	01H
	DD	FLAT:__catchsym$??1CGdiObject@@UAE@XZ$3
__unwindtable$??1CGdiObject@@UAE@XZ DD 0ffffffffH
	DD	00H
	DD	0ffffffffH
	DD	00H
	DD	01H
	DD	FLAT:__unwindfunclet$??1CGdiObject@@UAE@XZ$2
__ehfuncinfo$??1CGdiObject@@UAE@XZ DD 019930522H
	DD	03H
	DD	FLAT:__unwindtable$??1CGdiObject@@UAE@XZ
	DD	01H
	DD	FLAT:__tryblocktable$??1CGdiObject@@UAE@XZ
	DD	2 DUP(00H)
	DD	00H
	DD	05H
xdata$x	ENDS
;	COMDAT xdata$x
xdata$x	SEGMENT
__unwindtable$??HATL@@YA?AV?$CStringT@DV?$StrTraitMFC_DLL@DV?$ChTraitsCRT@D@ATL@@@@@0@ABV10@PBD@Z DD 0ffffffffH
	DD	FLAT:__unwindfunclet$??HATL@@YA?AV?$CStringT@DV?$StrTraitMFC_DLL@DV?$ChTraitsCRT@D@ATL@@@@@0@ABV10@PBD@Z$0
__ehfuncinfo$??HATL@@YA?AV?$CStringT@DV?$StrTraitMFC_DLL@DV?$ChTraitsCRT@D@ATL@@@@@0@ABV10@PBD@Z DD 019930522H
	DD	01H
	DD	FLAT:__unwindtable$??HATL@@YA?AV?$CStringT@DV?$StrTraitMFC_DLL@DV?$ChTraitsCRT@D@ATL@@@@@0@ABV10@PBD@Z
	DD	2 DUP(00H)
	DD	2 DUP(00H)
	DD	00H
	DD	01H
xdata$x	ENDS
;	COMDAT xdata$x
xdata$x	SEGMENT
__unwindtable$??HATL@@YA?AV?$CStringT@DV?$StrTraitMFC_DLL@DV?$ChTraitsCRT@D@ATL@@@@@0@ABV10@0@Z DD 0ffffffffH
	DD	FLAT:__unwindfunclet$??HATL@@YA?AV?$CStringT@DV?$StrTraitMFC_DLL@DV?$ChTraitsCRT@D@ATL@@@@@0@ABV10@0@Z$0
__ehfuncinfo$??HATL@@YA?AV?$CStringT@DV?$StrTraitMFC_DLL@DV?$ChTraitsCRT@D@ATL@@@@@0@ABV10@0@Z DD 019930522H
	DD	01H
	DD	FLAT:__unwindtable$??HATL@@YA?AV?$CStringT@DV?$StrTraitMFC_DLL@DV?$ChTraitsCRT@D@ATL@@@@@0@ABV10@0@Z
	DD	2 DUP(00H)
	DD	2 DUP(00H)
	DD	00H
	DD	01H
xdata$x	ENDS
CRT$XCU	SEGMENT
?RMSG_INTERFACE$initializer$@@3P6AXXZA DD FLAT:??__ERMSG_INTERFACE@@YAXXZ ; RMSG_INTERFACE$initializer$
CRT$XCU	ENDS
CRT$XCU	SEGMENT
?RMSG_GET_STDDLG_PTR$initializer$@@3P6AXXZA DD FLAT:??__ERMSG_GET_STDDLG_PTR@@YAXXZ ; RMSG_GET_STDDLG_PTR$initializer$
CRT$XCU	ENDS
CRT$XCU	SEGMENT
?RMSG_REPLAY_REAL$initializer$@@3P6AXXZA DD FLAT:??__ERMSG_REPLAY_REAL@@YAXXZ ; RMSG_REPLAY_REAL$initializer$
CRT$XCU	ENDS
CRT$XCU	SEGMENT
?RMSG_REPLAY_FAIL$initializer$@@3P6AXXZA DD FLAT:??__ERMSG_REPLAY_FAIL@@YAXXZ ; RMSG_REPLAY_FAIL$initializer$
CRT$XCU	ENDS
CRT$XCU	SEGMENT
?RMSG_REPLAY_CHANGE_DATE$initializer$@@3P6AXXZA DD FLAT:??__ERMSG_REPLAY_CHANGE_DATE@@YAXXZ ; RMSG_REPLAY_CHANGE_DATE$initializer$
CRT$XCU	ENDS
CRT$XCU	SEGMENT
?RMSG_REPLAY_END$initializer$@@3P6AXXZA DD FLAT:??__ERMSG_REPLAY_END@@YAXXZ ; RMSG_REPLAY_END$initializer$
CRT$XCU	ENDS
CRT$XCU	SEGMENT
?RMSG_REPLAY_INC_SEC$initializer$@@3P6AXXZA DD FLAT:??__ERMSG_REPLAY_INC_SEC@@YAXXZ ; RMSG_REPLAY_INC_SEC$initializer$
CRT$XCU	ENDS
CRT$XCU	SEGMENT
?RMSG_REPLAY_TOTAL_SEC$initializer$@@3P6AXXZA DD FLAT:??__ERMSG_REPLAY_TOTAL_SEC@@YAXXZ ; RMSG_REPLAY_TOTAL_SEC$initializer$
CRT$XCU	ENDS
CRT$XCU	SEGMENT
?RMSG_GETSIGNAL_REAL$initializer$@@3P6AXXZA DD FLAT:??__ERMSG_GETSIGNAL_REAL@@YAXXZ ; RMSG_GETSIGNAL_REAL$initializer$
CRT$XCU	ENDS
CRT$XCU	SEGMENT
?RMSG_SETQUERYOPT$initializer$@@3P6AXXZA DD FLAT:??__ERMSG_SETQUERYOPT@@YAXXZ ; RMSG_SETQUERYOPT$initializer$
CRT$XCU	ENDS
CRT$XCU	SEGMENT
?RMSG_CHARTMAIN$initializer$@@3P6AXXZA DD FLAT:??__ERMSG_CHARTMAIN@@YAXXZ ; RMSG_CHARTMAIN$initializer$
CRT$XCU	ENDS
CRT$XCU	SEGMENT
?RMS_ANALYSIS_FUNC$initializer$@@3P6AXXZA DD FLAT:??__ERMS_ANALYSIS_FUNC@@YAXXZ ; RMS_ANALYSIS_FUNC$initializer$
CRT$XCU	ENDS
CRT$XCU	SEGMENT
?RMSG_GET_USERID$initializer$@@3P6AXXZA DD FLAT:??__ERMSG_GET_USERID@@YAXXZ ; RMSG_GET_USERID$initializer$
CRT$XCU	ENDS
CRT$XCU	SEGMENT
?RMSG_CHANGE_SKINCOLOR$initializer$@@3P6AXXZA DD FLAT:??__ERMSG_CHANGE_SKINCOLOR@@YAXXZ ; RMSG_CHANGE_SKINCOLOR$initializer$
CRT$XCU	ENDS
CRT$XCU	SEGMENT
?RMSG_GET_SKINCOLOR$initializer$@@3P6AXXZA DD FLAT:??__ERMSG_GET_SKINCOLOR@@YAXXZ ; RMSG_GET_SKINCOLOR$initializer$
CRT$XCU	ENDS
CRT$XCU	SEGMENT
?RMSG_CHANGEVERTSCALETYPE$initializer$@@3P6AXXZA DD FLAT:??__ERMSG_CHANGEVERTSCALETYPE@@YAXXZ ; RMSG_CHANGEVERTSCALETYPE$initializer$
CRT$XCU	ENDS
CRT$XCU	SEGMENT
?RMSG_CHANGE_CROSSLINE$initializer$@@3P6AXXZA DD FLAT:??__ERMSG_CHANGE_CROSSLINE@@YAXXZ ; RMSG_CHANGE_CROSSLINE$initializer$
CRT$XCU	ENDS
CRT$XCU	SEGMENT
?RMSG_ADD_PLATFORM_MENU$initializer$@@3P6AXXZA DD FLAT:??__ERMSG_ADD_PLATFORM_MENU@@YAXXZ ; RMSG_ADD_PLATFORM_MENU$initializer$
CRT$XCU	ENDS
CRT$XCU	SEGMENT
?RMSG_SETINITIALCHARTDATA$initializer$@@3P6AXXZA DD FLAT:??__ERMSG_SETINITIALCHARTDATA@@YAXXZ ; RMSG_SETINITIALCHARTDATA$initializer$
CRT$XCU	ENDS
CRT$XCU	SEGMENT
?RMSG_GETINFO$initializer$@@3P6AXXZA DD FLAT:??__ERMSG_GETINFO@@YAXXZ ; RMSG_GETINFO$initializer$
CRT$XCU	ENDS
CRT$XCU	SEGMENT
?RMSG_SETINFO$initializer$@@3P6AXXZA DD FLAT:??__ERMSG_SETINFO@@YAXXZ ; RMSG_SETINFO$initializer$
CRT$XCU	ENDS
CRT$XCU	SEGMENT
?RMSG_FROMCODELIST$initializer$@@3P6AXXZA DD FLAT:??__ERMSG_FROMCODELIST@@YAXXZ ; RMSG_FROMCODELIST$initializer$
CRT$XCU	ENDS
CRT$XCU	SEGMENT
?RMSG_SETSHAREDATA$initializer$@@3P6AXXZA DD FLAT:??__ERMSG_SETSHAREDATA@@YAXXZ ; RMSG_SETSHAREDATA$initializer$
CRT$XCU	ENDS
CRT$XCU	SEGMENT
?RMSG_OPENMAP2$initializer$@@3P6AXXZA DD FLAT:??__ERMSG_OPENMAP2@@YAXXZ ; RMSG_OPENMAP2$initializer$
CRT$XCU	ENDS
CRT$XCU	SEGMENT
?RMSG_FROMHOGAJUMUN_DESTROY$initializer$@@3P6AXXZA DD FLAT:??__ERMSG_FROMHOGAJUMUN_DESTROY@@YAXXZ ; RMSG_FROMHOGAJUMUN_DESTROY$initializer$
CRT$XCU	ENDS
CRT$XCU	SEGMENT
?RMSG_HOGACHANGEDATA_CODE$initializer$@@3P6AXXZA DD FLAT:??__ERMSG_HOGACHANGEDATA_CODE@@YAXXZ ; RMSG_HOGACHANGEDATA_CODE$initializer$
CRT$XCU	ENDS
CRT$XCU	SEGMENT
?RMSG_HOGACHANGEDATA_ACCT$initializer$@@3P6AXXZA DD FLAT:??__ERMSG_HOGACHANGEDATA_ACCT@@YAXXZ ; RMSG_HOGACHANGEDATA_ACCT$initializer$
CRT$XCU	ENDS
CRT$XCU	SEGMENT
?RMSG_SHARED_PIN$initializer$@@3P6AXXZA DD FLAT:??__ERMSG_SHARED_PIN@@YAXXZ ; RMSG_SHARED_PIN$initializer$
CRT$XCU	ENDS
CRT$XCU	SEGMENT
?RMSG_RESIZEFROMGWAN$initializer$@@3P6AXXZA DD FLAT:??__ERMSG_RESIZEFROMGWAN@@YAXXZ ; RMSG_RESIZEFROMGWAN$initializer$
CRT$XCU	ENDS
CRT$XCU	SEGMENT
?RMSG_MESSAGESHOW$initializer$@@3P6AXXZA DD FLAT:??__ERMSG_MESSAGESHOW@@YAXXZ ; RMSG_MESSAGESHOW$initializer$
CRT$XCU	ENDS
CRT$XCU	SEGMENT
?RMSG_GETSKINVALUE$initializer$@@3P6AXXZA DD FLAT:??__ERMSG_GETSKINVALUE@@YAXXZ ; RMSG_GETSKINVALUE$initializer$
CRT$XCU	ENDS
CRT$XCU	SEGMENT
?RMSG_GET_CONTROLHANDLE$initializer$@@3P6AXXZA DD FLAT:??__ERMSG_GET_CONTROLHANDLE@@YAXXZ ; RMSG_GET_CONTROLHANDLE$initializer$
CRT$XCU	ENDS
; Function compile flags: /Ogtp
; File C:\Program Files (x86)\Microsoft Visual Studio\2019\Community\VC\Tools\MSVC\14.29.30133\atlmfc\include\afxtempl.h
; File C:\Program Files (x86)\Microsoft Visual Studio\2019\Community\VC\Tools\MSVC\14.29.30133\atlmfc\include\afx.inl
; File C:\Program Files (x86)\Microsoft Visual Studio\2019\Community\VC\Tools\MSVC\14.29.30133\atlmfc\include\afxtempl.h
; File C:\Program Files (x86)\Microsoft Visual Studio\2019\Community\VC\Tools\MSVC\14.29.30133\atlmfc\include\afx.inl
; File C:\Program Files (x86)\Microsoft Visual Studio\2019\Community\VC\Tools\MSVC\14.29.30133\atlmfc\include\afxtempl.h
; File C:\Program Files (x86)\Microsoft Visual Studio\2019\Community\VC\Tools\MSVC\14.29.30133\atlmfc\include\afx.inl
; File C:\Program Files (x86)\Microsoft Visual Studio\2019\Community\VC\Tools\MSVC\14.29.30133\atlmfc\include\afxtempl.h
;	COMDAT ??$SerializeElements@PAVCHistory@@@@YGXAAVCArchive@@PAPAVCHistory@@H@Z
_TEXT	SEGMENT
_ar$ = 8						; size = 4
_pElements$ = 12					; size = 4
_nCount$ = 16						; size = 4
??$SerializeElements@PAVCHistory@@@@YGXAAVCArchive@@PAPAVCHistory@@H@Z PROC ; SerializeElements<CHistory *>, COMDAT

; 67   : {

  00000	55		 push	 ebp
  00001	8b ec		 mov	 ebp, esp

; 68   : 	ENSURE(nCount == 0 || pElements != NULL);

  00003	8b 4d 0c	 mov	 ecx, DWORD PTR _pElements$[ebp]
  00006	53		 push	 ebx
  00007	56		 push	 esi
  00008	8b 75 10	 mov	 esi, DWORD PTR _nCount$[ebp]
  0000b	57		 push	 edi
  0000c	85 f6		 test	 esi, esi
  0000e	74 08		 je	 SHORT $LN2@SerializeE
  00010	85 c9		 test	 ecx, ecx
  00012	0f 84 89 00 00
	00		 je	 $LN34@SerializeE
$LN2@SerializeE:
; File C:\Program Files (x86)\Microsoft Visual Studio\2019\Community\VC\Tools\MSVC\14.29.30133\atlmfc\include\afx.inl

; 212  : 	{ return (m_nMode & CArchive::load) == 0; }

  00018	8b 55 08	 mov	 edx, DWORD PTR _ar$[ebp]
  0001b	8b 42 18	 mov	 eax, DWORD PTR [edx+24]
  0001e	f7 d0		 not	 eax
  00020	a8 01		 test	 al, 1
; File C:\Program Files (x86)\Microsoft Visual Studio\2019\Community\VC\Tools\MSVC\14.29.30133\atlmfc\include\afxtempl.h

; 73   : 	if (ar.IsStoring())

  00022	74 3c		 je	 SHORT $LN10@SerializeE

; 74   : 	{
; 75   : 		TYPE* pData;
; 76   : 		UINT_PTR nElementsLeft;
; 77   : 
; 78   : 		nElementsLeft = nCount;
; 79   : 		pData = pElements;
; 80   : 		while( nElementsLeft > 0 )

  00024	85 f6		 test	 esi, esi
  00026	74 31		 je	 SHORT $LN8@SerializeE
  00028	0f 1f 84 00 00
	00 00 00	 npad	 8
$LL5@SerializeE:

; 81   : 		{
; 82   : 			UINT nElementsToWrite;
; 83   : 
; 84   : 			nElementsToWrite = UINT(__min(nElementsLeft, INT_MAX/sizeof(TYPE)));

  00030	bb ff ff ff 1f	 mov	 ebx, 536870911		; 1fffffffH
  00035	3b f3		 cmp	 esi, ebx
  00037	0f 42 de	 cmovb	 ebx, esi

; 85   : 			ar.Write(pData, nElementsToWrite*sizeof(TYPE));

  0003a	8d 3c 9d 00 00
	00 00		 lea	 edi, DWORD PTR [ebx*4]
  00041	57		 push	 edi
  00042	51		 push	 ecx
  00043	8b ca		 mov	 ecx, edx
  00045	e8 00 00 00 00	 call	 ?Write@CArchive@@QAEXPBXI@Z ; CArchive::Write

; 86   : 			nElementsLeft -= nElementsToWrite;
; 87   : 			pData += nElementsToWrite;

  0004a	8b 4d 0c	 mov	 ecx, DWORD PTR _pElements$[ebp]
  0004d	8b 55 08	 mov	 edx, DWORD PTR _ar$[ebp]
  00050	03 cf		 add	 ecx, edi
  00052	89 4d 0c	 mov	 DWORD PTR _pElements$[ebp], ecx
  00055	2b f3		 sub	 esi, ebx
  00057	75 d7		 jne	 SHORT $LL5@SerializeE
$LN8@SerializeE:
  00059	5f		 pop	 edi

; 105  : 		}
; 106  : 	}
; 107  : }

  0005a	5e		 pop	 esi
  0005b	5b		 pop	 ebx
  0005c	5d		 pop	 ebp
  0005d	c2 0c 00	 ret	 12			; 0000000cH
$LN10@SerializeE:

; 97   : 		while( nElementsLeft > 0 )

  00060	85 f6		 test	 esi, esi
  00062	74 f5		 je	 SHORT $LN8@SerializeE
$LL7@SerializeE:

; 98   : 		{
; 99   : 			UINT nElementsToRead;
; 100  : 
; 101  : 			nElementsToRead = UINT(__min(nElementsLeft, INT_MAX/sizeof(TYPE)));

  00064	bf ff ff ff 1f	 mov	 edi, 536870911		; 1fffffffH
  00069	3b f7		 cmp	 esi, edi
  0006b	0f 42 fe	 cmovb	 edi, esi

; 102  : 			ar.EnsureRead(pData, nElementsToRead*sizeof(TYPE));

  0006e	8d 1c bd 00 00
	00 00		 lea	 ebx, DWORD PTR [edi*4]
; File C:\Program Files (x86)\Microsoft Visual Studio\2019\Community\VC\Tools\MSVC\14.29.30133\atlmfc\include\afx.inl

; 399  : 	UINT nRead=Read(lpBuf, nCount);

  00075	53		 push	 ebx
  00076	51		 push	 ecx
  00077	8b ca		 mov	 ecx, edx
  00079	e8 00 00 00 00	 call	 ?Read@CArchive@@QAEIPAXI@Z ; CArchive::Read

; 400  : 	if(nRead!=nCount)

  0007e	3b c3		 cmp	 eax, ebx
  00080	75 16		 jne	 SHORT $LN23@SerializeE
; File C:\Program Files (x86)\Microsoft Visual Studio\2019\Community\VC\Tools\MSVC\14.29.30133\atlmfc\include\afxtempl.h

; 97   : 		while( nElementsLeft > 0 )

  00082	8b 4d 0c	 mov	 ecx, DWORD PTR _pElements$[ebp]
  00085	8b 55 08	 mov	 edx, DWORD PTR _ar$[ebp]

; 103  : 			nElementsLeft -= nElementsToRead;
; 104  : 			pData += nElementsToRead;

  00088	03 cb		 add	 ecx, ebx
  0008a	89 4d 0c	 mov	 DWORD PTR _pElements$[ebp], ecx
  0008d	2b f7		 sub	 esi, edi
  0008f	75 d3		 jne	 SHORT $LL7@SerializeE

; 105  : 		}
; 106  : 	}
; 107  : }

  00091	5f		 pop	 edi
  00092	5e		 pop	 esi
  00093	5b		 pop	 ebx
  00094	5d		 pop	 ebp
  00095	c2 0c 00	 ret	 12			; 0000000cH
$LN23@SerializeE:
; File C:\Program Files (x86)\Microsoft Visual Studio\2019\Community\VC\Tools\MSVC\14.29.30133\atlmfc\include\afx.inl

; 402  : 		AfxThrowArchiveException(CArchiveException::endOfFile);

  00098	6a 00		 push	 0
  0009a	6a 03		 push	 3
  0009c	e8 00 00 00 00	 call	 ?AfxThrowArchiveException@@YGXHPBD@Z ; AfxThrowArchiveException
$LN34@SerializeE:
; File C:\Program Files (x86)\Microsoft Visual Studio\2019\Community\VC\Tools\MSVC\14.29.30133\atlmfc\include\afxtempl.h

; 68   : 	ENSURE(nCount == 0 || pElements != NULL);

  000a1	e8 00 00 00 00	 call	 ?AfxThrowInvalidArgException@@YGXXZ ; AfxThrowInvalidArgException
$LN32@SerializeE:
  000a6	cc		 int	 3
??$SerializeElements@PAVCHistory@@@@YGXAAVCArchive@@PAPAVCHistory@@H@Z ENDP ; SerializeElements<CHistory *>
_TEXT	ENDS
; Function compile flags: /Ogtp
; File D:\git\src\IBK\IBK_DRFN\ProjSrc\SrcDrfn\Chart\MULTICHART\InputBarDlg.cpp
;	COMDAT ??__ERMSG_GET_CONTROLHANDLE@@YAXXZ
text$di	SEGMENT
??__ERMSG_GET_CONTROLHANDLE@@YAXXZ PROC			; `dynamic initializer for 'RMSG_GET_CONTROLHANDLE'', COMDAT

; 28   : const UINT RMSG_GET_CONTROLHANDLE = ::RegisterWindowMessage(_T("RMSG_GET_CONTROLHANDLE"));

  00000	68 00 00 00 00	 push	 OFFSET ??_C@_0BH@KFIGLKAC@RMSG_GET_CONTROLHANDLE@
  00005	ff 15 00 00 00
	00		 call	 DWORD PTR __imp__RegisterWindowMessageA@4
  0000b	a3 00 00 00 00	 mov	 DWORD PTR ?RMSG_GET_CONTROLHANDLE@@3IB, eax
  00010	c3		 ret	 0
??__ERMSG_GET_CONTROLHANDLE@@YAXXZ ENDP			; `dynamic initializer for 'RMSG_GET_CONTROLHANDLE''
text$di	ENDS
; Function compile flags: /Ogtp
; File D:\git\src\IBK\IBK_DRFN\ProjSrc\SrcDrfn\Chart\MULTICHART\define\MessageDefine.h
;	COMDAT ??__ERMSG_GETSKINVALUE@@YAXXZ
text$di	SEGMENT
??__ERMSG_GETSKINVALUE@@YAXXZ PROC			; `dynamic initializer for 'RMSG_GETSKINVALUE'', COMDAT

; 55   : const UINT RMSG_GETSKINVALUE	=	::RegisterWindowMessage("RMSG_GETSKINVALUE");

  00000	68 00 00 00 00	 push	 OFFSET ??_C@_0BC@ICLGGCHO@RMSG_GETSKINVALUE@
  00005	ff 15 00 00 00
	00		 call	 DWORD PTR __imp__RegisterWindowMessageA@4
  0000b	a3 00 00 00 00	 mov	 DWORD PTR ?RMSG_GETSKINVALUE@@3IB, eax
  00010	c3		 ret	 0
??__ERMSG_GETSKINVALUE@@YAXXZ ENDP			; `dynamic initializer for 'RMSG_GETSKINVALUE''
text$di	ENDS
; Function compile flags: /Ogtp
; File D:\git\src\IBK\IBK_DRFN\ProjSrc\SrcDrfn\Chart\MULTICHART\define\MessageDefine.h
;	COMDAT ??__ERMSG_MESSAGESHOW@@YAXXZ
text$di	SEGMENT
??__ERMSG_MESSAGESHOW@@YAXXZ PROC			; `dynamic initializer for 'RMSG_MESSAGESHOW'', COMDAT

; 54   : const UINT RMSG_MESSAGESHOW = ::RegisterWindowMessage("RMSG_MESSAGESHOW");

  00000	68 00 00 00 00	 push	 OFFSET ??_C@_0BB@JOGLHCCG@RMSG_MESSAGESHOW@
  00005	ff 15 00 00 00
	00		 call	 DWORD PTR __imp__RegisterWindowMessageA@4
  0000b	a3 00 00 00 00	 mov	 DWORD PTR ?RMSG_MESSAGESHOW@@3IB, eax
  00010	c3		 ret	 0
??__ERMSG_MESSAGESHOW@@YAXXZ ENDP			; `dynamic initializer for 'RMSG_MESSAGESHOW''
text$di	ENDS
; Function compile flags: /Ogtp
; File D:\git\src\IBK\IBK_DRFN\ProjSrc\SrcDrfn\Chart\MULTICHART\define\MessageDefine.h
;	COMDAT ??__ERMSG_RESIZEFROMGWAN@@YAXXZ
text$di	SEGMENT
??__ERMSG_RESIZEFROMGWAN@@YAXXZ PROC			; `dynamic initializer for 'RMSG_RESIZEFROMGWAN'', COMDAT

; 53   : const UINT RMSG_RESIZEFROMGWAN = ::RegisterWindowMessage("RMSG_RESIZEFROMGWAN");

  00000	68 00 00 00 00	 push	 OFFSET ??_C@_0BE@NAJONFKO@RMSG_RESIZEFROMGWAN@
  00005	ff 15 00 00 00
	00		 call	 DWORD PTR __imp__RegisterWindowMessageA@4
  0000b	a3 00 00 00 00	 mov	 DWORD PTR ?RMSG_RESIZEFROMGWAN@@3IB, eax
  00010	c3		 ret	 0
??__ERMSG_RESIZEFROMGWAN@@YAXXZ ENDP			; `dynamic initializer for 'RMSG_RESIZEFROMGWAN''
text$di	ENDS
; Function compile flags: /Ogtp
; File D:\git\src\IBK\IBK_DRFN\ProjSrc\SrcDrfn\Chart\MULTICHART\define\MessageDefine.h
;	COMDAT ??__ERMSG_SHARED_PIN@@YAXXZ
text$di	SEGMENT
??__ERMSG_SHARED_PIN@@YAXXZ PROC			; `dynamic initializer for 'RMSG_SHARED_PIN'', COMDAT

; 52   : const UINT RMSG_SHARED_PIN = ::RegisterWindowMessage("RMSG_SHARED_PIN");

  00000	68 00 00 00 00	 push	 OFFSET ??_C@_0BA@OPONGCEC@RMSG_SHARED_PIN@
  00005	ff 15 00 00 00
	00		 call	 DWORD PTR __imp__RegisterWindowMessageA@4
  0000b	a3 00 00 00 00	 mov	 DWORD PTR ?RMSG_SHARED_PIN@@3IB, eax
  00010	c3		 ret	 0
??__ERMSG_SHARED_PIN@@YAXXZ ENDP			; `dynamic initializer for 'RMSG_SHARED_PIN''
text$di	ENDS
; Function compile flags: /Ogtp
; File D:\git\src\IBK\IBK_DRFN\ProjSrc\SrcDrfn\Chart\MULTICHART\define\MessageDefine.h
;	COMDAT ??__ERMSG_HOGACHANGEDATA_ACCT@@YAXXZ
text$di	SEGMENT
??__ERMSG_HOGACHANGEDATA_ACCT@@YAXXZ PROC		; `dynamic initializer for 'RMSG_HOGACHANGEDATA_ACCT'', COMDAT

; 51   : const UINT RMSG_HOGACHANGEDATA_ACCT = ::RegisterWindowMessage(_T("RMSG_HOGACHANGEDATA_ACCT"));

  00000	68 00 00 00 00	 push	 OFFSET ??_C@_0BJ@NKAHNENP@RMSG_HOGACHANGEDATA_ACCT@
  00005	ff 15 00 00 00
	00		 call	 DWORD PTR __imp__RegisterWindowMessageA@4
  0000b	a3 00 00 00 00	 mov	 DWORD PTR ?RMSG_HOGACHANGEDATA_ACCT@@3IB, eax
  00010	c3		 ret	 0
??__ERMSG_HOGACHANGEDATA_ACCT@@YAXXZ ENDP		; `dynamic initializer for 'RMSG_HOGACHANGEDATA_ACCT''
text$di	ENDS
; Function compile flags: /Ogtp
; File D:\git\src\IBK\IBK_DRFN\ProjSrc\SrcDrfn\Chart\MULTICHART\define\MessageDefine.h
;	COMDAT ??__ERMSG_HOGACHANGEDATA_CODE@@YAXXZ
text$di	SEGMENT
??__ERMSG_HOGACHANGEDATA_CODE@@YAXXZ PROC		; `dynamic initializer for 'RMSG_HOGACHANGEDATA_CODE'', COMDAT

; 50   : const UINT RMSG_HOGACHANGEDATA_CODE = ::RegisterWindowMessage(_T("RMSG_HOGACHANGEDATA_CODE"));

  00000	68 00 00 00 00	 push	 OFFSET ??_C@_0BJ@LMIHANJC@RMSG_HOGACHANGEDATA_CODE@
  00005	ff 15 00 00 00
	00		 call	 DWORD PTR __imp__RegisterWindowMessageA@4
  0000b	a3 00 00 00 00	 mov	 DWORD PTR ?RMSG_HOGACHANGEDATA_CODE@@3IB, eax
  00010	c3		 ret	 0
??__ERMSG_HOGACHANGEDATA_CODE@@YAXXZ ENDP		; `dynamic initializer for 'RMSG_HOGACHANGEDATA_CODE''
text$di	ENDS
; Function compile flags: /Ogtp
; File D:\git\src\IBK\IBK_DRFN\ProjSrc\SrcDrfn\Chart\MULTICHART\define\MessageDefine.h
;	COMDAT ??__ERMSG_FROMHOGAJUMUN_DESTROY@@YAXXZ
text$di	SEGMENT
??__ERMSG_FROMHOGAJUMUN_DESTROY@@YAXXZ PROC		; `dynamic initializer for 'RMSG_FROMHOGAJUMUN_DESTROY'', COMDAT

; 49   : const UINT RMSG_FROMHOGAJUMUN_DESTROY = ::RegisterWindowMessage(_T("RMSG_FROMHOGAJUMUN_DESTROY"));

  00000	68 00 00 00 00	 push	 OFFSET ??_C@_0BL@ONHOHGGM@RMSG_FROMHOGAJUMUN_DESTROY@
  00005	ff 15 00 00 00
	00		 call	 DWORD PTR __imp__RegisterWindowMessageA@4
  0000b	a3 00 00 00 00	 mov	 DWORD PTR ?RMSG_FROMHOGAJUMUN_DESTROY@@3IB, eax
  00010	c3		 ret	 0
??__ERMSG_FROMHOGAJUMUN_DESTROY@@YAXXZ ENDP		; `dynamic initializer for 'RMSG_FROMHOGAJUMUN_DESTROY''
text$di	ENDS
; Function compile flags: /Ogtp
; File D:\git\src\IBK\IBK_DRFN\ProjSrc\SrcDrfn\Chart\MULTICHART\define\MessageDefine.h
;	COMDAT ??__ERMSG_OPENMAP2@@YAXXZ
text$di	SEGMENT
??__ERMSG_OPENMAP2@@YAXXZ PROC				; `dynamic initializer for 'RMSG_OPENMAP2'', COMDAT

; 48   : const UINT	RMSG_OPENMAP2		= ::RegisterWindowMessage(_T("RMSG_OPENMAP2"));

  00000	68 00 00 00 00	 push	 OFFSET ??_C@_0O@JLGCPGDL@RMSG_OPENMAP2@
  00005	ff 15 00 00 00
	00		 call	 DWORD PTR __imp__RegisterWindowMessageA@4
  0000b	a3 00 00 00 00	 mov	 DWORD PTR ?RMSG_OPENMAP2@@3IB, eax
  00010	c3		 ret	 0
??__ERMSG_OPENMAP2@@YAXXZ ENDP				; `dynamic initializer for 'RMSG_OPENMAP2''
text$di	ENDS
; Function compile flags: /Ogtp
; File D:\git\src\IBK\IBK_DRFN\ProjSrc\SrcDrfn\Chart\MULTICHART\define\MessageDefine.h
;	COMDAT ??__ERMSG_SETSHAREDATA@@YAXXZ
text$di	SEGMENT
??__ERMSG_SETSHAREDATA@@YAXXZ PROC			; `dynamic initializer for 'RMSG_SETSHAREDATA'', COMDAT

; 46   : const UINT RMSG_SETSHAREDATA = ::RegisterWindowMessage(_T("RMSG_SETSHAREDATA"));

  00000	68 00 00 00 00	 push	 OFFSET ??_C@_0BC@GGHIPHFD@RMSG_SETSHAREDATA@
  00005	ff 15 00 00 00
	00		 call	 DWORD PTR __imp__RegisterWindowMessageA@4
  0000b	a3 00 00 00 00	 mov	 DWORD PTR ?RMSG_SETSHAREDATA@@3IB, eax
  00010	c3		 ret	 0
??__ERMSG_SETSHAREDATA@@YAXXZ ENDP			; `dynamic initializer for 'RMSG_SETSHAREDATA''
text$di	ENDS
; Function compile flags: /Ogtp
; File D:\git\src\IBK\IBK_DRFN\ProjSrc\SrcDrfn\Chart\MULTICHART\define\MessageDefine.h
;	COMDAT ??__ERMSG_FROMCODELIST@@YAXXZ
text$di	SEGMENT
??__ERMSG_FROMCODELIST@@YAXXZ PROC			; `dynamic initializer for 'RMSG_FROMCODELIST'', COMDAT

; 45   : const UINT RMSG_FROMCODELIST = ::RegisterWindowMessage(_T("RMSG_FROMCODELIST"));

  00000	68 00 00 00 00	 push	 OFFSET ??_C@_0BC@FHIPKCJJ@RMSG_FROMCODELIST@
  00005	ff 15 00 00 00
	00		 call	 DWORD PTR __imp__RegisterWindowMessageA@4
  0000b	a3 00 00 00 00	 mov	 DWORD PTR ?RMSG_FROMCODELIST@@3IB, eax
  00010	c3		 ret	 0
??__ERMSG_FROMCODELIST@@YAXXZ ENDP			; `dynamic initializer for 'RMSG_FROMCODELIST''
text$di	ENDS
; Function compile flags: /Ogtp
;	COMDAT ??1CSetCycleDlg@@UAE@XZ
_TEXT	SEGMENT
??1CSetCycleDlg@@UAE@XZ PROC				; CSetCycleDlg::~CSetCycleDlg, COMDAT
; _this$ = ecx
  00000	56		 push	 esi
  00001	8b f1		 mov	 esi, ecx
  00003	8d 8e a8 0c 00
	00		 lea	 ecx, DWORD PTR [esi+3240]
  00009	e8 00 00 00 00	 call	 ??1CEdit@@UAE@XZ	; CEdit::~CEdit
  0000e	8d 8e 28 0c 00
	00		 lea	 ecx, DWORD PTR [esi+3112]
  00014	e8 00 00 00 00	 call	 ??1CEdit@@UAE@XZ	; CEdit::~CEdit
  00019	8d 8e a8 0b 00
	00		 lea	 ecx, DWORD PTR [esi+2984]
  0001f	e8 00 00 00 00	 call	 ??1CEdit@@UAE@XZ	; CEdit::~CEdit
  00024	8d 8e 28 0b 00
	00		 lea	 ecx, DWORD PTR [esi+2856]
  0002a	e8 00 00 00 00	 call	 ??1CEdit@@UAE@XZ	; CEdit::~CEdit
  0002f	8d 8e a8 0a 00
	00		 lea	 ecx, DWORD PTR [esi+2728]
  00035	e8 00 00 00 00	 call	 ??1CEdit@@UAE@XZ	; CEdit::~CEdit
  0003a	8d 8e 28 0a 00
	00		 lea	 ecx, DWORD PTR [esi+2600]
  00040	e8 00 00 00 00	 call	 ??1CEdit@@UAE@XZ	; CEdit::~CEdit
  00045	8d 8e a8 09 00
	00		 lea	 ecx, DWORD PTR [esi+2472]
  0004b	e8 00 00 00 00	 call	 ??1CEdit@@UAE@XZ	; CEdit::~CEdit
  00050	8d 8e 28 09 00
	00		 lea	 ecx, DWORD PTR [esi+2344]
  00056	e8 00 00 00 00	 call	 ??1CEdit@@UAE@XZ	; CEdit::~CEdit
  0005b	8d 8e a8 08 00
	00		 lea	 ecx, DWORD PTR [esi+2216]
  00061	e8 00 00 00 00	 call	 ??1CEdit@@UAE@XZ	; CEdit::~CEdit
  00066	8d 8e 28 08 00
	00		 lea	 ecx, DWORD PTR [esi+2088]
  0006c	e8 00 00 00 00	 call	 ??1CEdit@@UAE@XZ	; CEdit::~CEdit
  00071	8d 8e a8 07 00
	00		 lea	 ecx, DWORD PTR [esi+1960]
  00077	e8 00 00 00 00	 call	 ??1CEdit@@UAE@XZ	; CEdit::~CEdit
  0007c	8d 8e 28 07 00
	00		 lea	 ecx, DWORD PTR [esi+1832]
  00082	e8 00 00 00 00	 call	 ??1CEdit@@UAE@XZ	; CEdit::~CEdit
  00087	8d 8e a8 06 00
	00		 lea	 ecx, DWORD PTR [esi+1704]
  0008d	e8 00 00 00 00	 call	 ??1CEdit@@UAE@XZ	; CEdit::~CEdit
  00092	8d 8e 28 06 00
	00		 lea	 ecx, DWORD PTR [esi+1576]
  00098	e8 00 00 00 00	 call	 ??1CEdit@@UAE@XZ	; CEdit::~CEdit
  0009d	8d 8e a8 05 00
	00		 lea	 ecx, DWORD PTR [esi+1448]
  000a3	e8 00 00 00 00	 call	 ??1CEdit@@UAE@XZ	; CEdit::~CEdit
  000a8	8d 8e 28 05 00
	00		 lea	 ecx, DWORD PTR [esi+1320]
  000ae	e8 00 00 00 00	 call	 ??1CEdit@@UAE@XZ	; CEdit::~CEdit
  000b3	8d 8e a8 04 00
	00		 lea	 ecx, DWORD PTR [esi+1192]
  000b9	e8 00 00 00 00	 call	 ??1CEdit@@UAE@XZ	; CEdit::~CEdit
  000be	8d 8e 28 04 00
	00		 lea	 ecx, DWORD PTR [esi+1064]
  000c4	e8 00 00 00 00	 call	 ??1CEdit@@UAE@XZ	; CEdit::~CEdit
  000c9	8d 8e a8 03 00
	00		 lea	 ecx, DWORD PTR [esi+936]
  000cf	e8 00 00 00 00	 call	 ??1CEdit@@UAE@XZ	; CEdit::~CEdit
  000d4	8d 8e 28 03 00
	00		 lea	 ecx, DWORD PTR [esi+808]
  000da	e8 00 00 00 00	 call	 ??1CEdit@@UAE@XZ	; CEdit::~CEdit
  000df	8d 8e a8 02 00
	00		 lea	 ecx, DWORD PTR [esi+680]
  000e5	e8 00 00 00 00	 call	 ??1CEdit@@UAE@XZ	; CEdit::~CEdit
  000ea	8d 8e 28 02 00
	00		 lea	 ecx, DWORD PTR [esi+552]
  000f0	e8 00 00 00 00	 call	 ??1CEdit@@UAE@XZ	; CEdit::~CEdit
  000f5	8d 8e a8 01 00
	00		 lea	 ecx, DWORD PTR [esi+424]
  000fb	e8 00 00 00 00	 call	 ??1CEdit@@UAE@XZ	; CEdit::~CEdit
  00100	8d 8e 28 01 00
	00		 lea	 ecx, DWORD PTR [esi+296]
  00106	e8 00 00 00 00	 call	 ??1CEdit@@UAE@XZ	; CEdit::~CEdit
  0010b	8d 8e a8 00 00
	00		 lea	 ecx, DWORD PTR [esi+168]
  00111	e8 00 00 00 00	 call	 ??1CButton@@UAE@XZ	; CButton::~CButton
  00116	8b ce		 mov	 ecx, esi
  00118	5e		 pop	 esi
  00119	e9 00 00 00 00	 jmp	 ??1CDialog@@UAE@XZ	; CDialog::~CDialog
??1CSetCycleDlg@@UAE@XZ ENDP				; CSetCycleDlg::~CSetCycleDlg
_TEXT	ENDS
; Function compile flags: /Ogtp
; File C:\Program Files (x86)\Microsoft Visual Studio\2019\Community\VC\Tools\MSVC\14.29.30133\atlmfc\include\afx.inl
;	COMDAT ??_GCInputBarDlg@@UAEPAXI@Z
_TEXT	SEGMENT
___flags$ = 8						; size = 4
??_GCInputBarDlg@@UAEPAXI@Z PROC			; CInputBarDlg::`scalar deleting destructor', COMDAT
; _this$ = ecx
  00000	55		 push	 ebp
  00001	8b ec		 mov	 ebp, esp
  00003	56		 push	 esi
  00004	8b f1		 mov	 esi, ecx
  00006	e8 00 00 00 00	 call	 ??1CInputBarDlg@@UAE@XZ
  0000b	8b 45 08	 mov	 eax, DWORD PTR ___flags$[ebp]
  0000e	a8 01		 test	 al, 1
  00010	74 22		 je	 SHORT $LN9@scalar
  00012	a8 04		 test	 al, 4
  00014	75 10		 jne	 SHORT $LN3@scalar

; 112  : 	{ ::operator delete(p); }

  00016	56		 push	 esi
  00017	e8 00 00 00 00	 call	 ??3@YAXPAX@Z		; operator delete
  0001c	83 c4 04	 add	 esp, 4
  0001f	8b c6		 mov	 eax, esi
  00021	5e		 pop	 esi
  00022	5d		 pop	 ebp
  00023	c2 04 00	 ret	 4
$LN3@scalar:
  00026	68 28 2d 00 00	 push	 11560			; 00002d28H
  0002b	56		 push	 esi
  0002c	e8 00 00 00 00	 call	 ?__global_delete@@YAXPAXI@Z ; __global_delete
  00031	83 c4 08	 add	 esp, 8
$LN9@scalar:
  00034	8b c6		 mov	 eax, esi
  00036	5e		 pop	 esi
  00037	5d		 pop	 ebp
  00038	c2 04 00	 ret	 4
??_GCInputBarDlg@@UAEPAXI@Z ENDP			; CInputBarDlg::`scalar deleting destructor'
_TEXT	ENDS
; Function compile flags: /Ogtp
; File C:\Program Files (x86)\Microsoft Visual Studio\2019\Community\VC\Tools\MSVC\14.29.30133\atlmfc\include\afxtempl.h
; File C:\Program Files (x86)\Microsoft Visual Studio\2019\Community\VC\Tools\MSVC\14.29.30133\atlmfc\include\afxwin1.inl
;	COMDAT ??1CInputBarDlg@@UAE@XZ
_TEXT	SEGMENT
__$EHRec$ = -12						; size = 12
??1CInputBarDlg@@UAE@XZ PROC				; CInputBarDlg::~CInputBarDlg, COMDAT
; _this$ = ecx
  00000	55		 push	 ebp
  00001	8b ec		 mov	 ebp, esp
  00003	6a ff		 push	 -1
  00005	68 00 00 00 00	 push	 __ehhandler$??1CInputBarDlg@@UAE@XZ
  0000a	64 a1 00 00 00
	00		 mov	 eax, DWORD PTR fs:0
  00010	50		 push	 eax
  00011	56		 push	 esi
  00012	a1 00 00 00 00	 mov	 eax, DWORD PTR ___security_cookie
  00017	33 c5		 xor	 eax, ebp
  00019	50		 push	 eax
  0001a	8d 45 f4	 lea	 eax, DWORD PTR __$EHRec$[ebp]
  0001d	64 a3 00 00 00
	00		 mov	 DWORD PTR fs:0, eax
  00023	8b f1		 mov	 esi, ecx
  00025	8d 8e 14 2d 00
	00		 lea	 ecx, DWORD PTR [esi+11540]
  0002b	ff 15 00 00 00
	00		 call	 DWORD PTR __imp_??1?$CStringT@DV?$StrTraitMFC_DLL@DV?$ChTraitsCRT@D@ATL@@@@@ATL@@QAE@XZ
; File C:\Program Files (x86)\Microsoft Visual Studio\2019\Community\VC\Tools\MSVC\14.29.30133\atlmfc\include\afxtempl.h

; 872  : 	m_pBlocks->FreeDataChain();

  00031	8b 8e 38 2c 00
	00		 mov	 ecx, DWORD PTR [esi+11320]

; 878  : {

  00037	c7 45 fc 00 00
	00 00		 mov	 DWORD PTR __$EHRec$[ebp+8], 0
  0003e	c7 86 24 2c 00
	00 00 00 00 00	 mov	 DWORD PTR [esi+11300], OFFSET ??_7?$CList@PAVCHistory@@PAV1@@@6B@

; 870  : 	m_nCount = 0;

  00048	c7 86 30 2c 00
	00 00 00 00 00	 mov	 DWORD PTR [esi+11312], 0

; 871  : 	m_pNodeHead = m_pNodeTail = m_pNodeFree = NULL;

  00052	c7 86 34 2c 00
	00 00 00 00 00	 mov	 DWORD PTR [esi+11316], 0
  0005c	c7 86 2c 2c 00
	00 00 00 00 00	 mov	 DWORD PTR [esi+11308], 0
  00066	c7 86 28 2c 00
	00 00 00 00 00	 mov	 DWORD PTR [esi+11304], 0

; 872  : 	m_pBlocks->FreeDataChain();

  00070	e8 00 00 00 00	 call	 ?FreeDataChain@CPlex@@QAEXXZ ; CPlex::FreeDataChain

; 873  : 	m_pBlocks = NULL;

  00075	c7 86 38 2c 00
	00 00 00 00 00	 mov	 DWORD PTR [esi+11320], 0

; 872  : 	m_pBlocks->FreeDataChain();

  0007f	8b 8e 1c 2c 00
	00		 mov	 ecx, DWORD PTR [esi+11292]

; 878  : {

  00085	c7 45 fc 01 00
	00 00		 mov	 DWORD PTR __$EHRec$[ebp+8], 1
  0008c	c7 86 08 2c 00
	00 00 00 00 00	 mov	 DWORD PTR [esi+11272], OFFSET ??_7?$CList@PAVCHistory@@PAV1@@@6B@

; 870  : 	m_nCount = 0;

  00096	c7 86 14 2c 00
	00 00 00 00 00	 mov	 DWORD PTR [esi+11284], 0

; 871  : 	m_pNodeHead = m_pNodeTail = m_pNodeFree = NULL;

  000a0	c7 86 18 2c 00
	00 00 00 00 00	 mov	 DWORD PTR [esi+11288], 0
  000aa	c7 86 10 2c 00
	00 00 00 00 00	 mov	 DWORD PTR [esi+11280], 0
  000b4	c7 86 0c 2c 00
	00 00 00 00 00	 mov	 DWORD PTR [esi+11276], 0

; 872  : 	m_pBlocks->FreeDataChain();

  000be	e8 00 00 00 00	 call	 ?FreeDataChain@CPlex@@QAEXXZ ; CPlex::FreeDataChain

; 873  : 	m_pBlocks = NULL;

  000c3	c7 86 1c 2c 00
	00 00 00 00 00	 mov	 DWORD PTR [esi+11292], 0

; 872  : 	m_pBlocks->FreeDataChain();

  000cd	8b 8e 00 2c 00
	00		 mov	 ecx, DWORD PTR [esi+11264]

; 878  : {

  000d3	c7 45 fc 02 00
	00 00		 mov	 DWORD PTR __$EHRec$[ebp+8], 2
  000da	c7 86 ec 2b 00
	00 00 00 00 00	 mov	 DWORD PTR [esi+11244], OFFSET ??_7?$CList@PAVCHistory@@PAV1@@@6B@

; 870  : 	m_nCount = 0;

  000e4	c7 86 f8 2b 00
	00 00 00 00 00	 mov	 DWORD PTR [esi+11256], 0

; 871  : 	m_pNodeHead = m_pNodeTail = m_pNodeFree = NULL;

  000ee	c7 86 fc 2b 00
	00 00 00 00 00	 mov	 DWORD PTR [esi+11260], 0
  000f8	c7 86 f4 2b 00
	00 00 00 00 00	 mov	 DWORD PTR [esi+11252], 0
  00102	c7 86 f0 2b 00
	00 00 00 00 00	 mov	 DWORD PTR [esi+11248], 0

; 872  : 	m_pBlocks->FreeDataChain();

  0010c	e8 00 00 00 00	 call	 ?FreeDataChain@CPlex@@QAEXXZ ; CPlex::FreeDataChain

; 873  : 	m_pBlocks = NULL;

  00111	c7 86 00 2c 00
	00 00 00 00 00	 mov	 DWORD PTR [esi+11264], 0

; 872  : 	m_pBlocks->FreeDataChain();

  0011b	8b 8e e4 2b 00
	00		 mov	 ecx, DWORD PTR [esi+11236]

; 878  : {

  00121	c7 45 fc 03 00
	00 00		 mov	 DWORD PTR __$EHRec$[ebp+8], 3
  00128	c7 86 d0 2b 00
	00 00 00 00 00	 mov	 DWORD PTR [esi+11216], OFFSET ??_7?$CList@PAVCHistory@@PAV1@@@6B@

; 870  : 	m_nCount = 0;

  00132	c7 86 dc 2b 00
	00 00 00 00 00	 mov	 DWORD PTR [esi+11228], 0

; 871  : 	m_pNodeHead = m_pNodeTail = m_pNodeFree = NULL;

  0013c	c7 86 e0 2b 00
	00 00 00 00 00	 mov	 DWORD PTR [esi+11232], 0
  00146	c7 86 d8 2b 00
	00 00 00 00 00	 mov	 DWORD PTR [esi+11224], 0
  00150	c7 86 d4 2b 00
	00 00 00 00 00	 mov	 DWORD PTR [esi+11220], 0

; 872  : 	m_pBlocks->FreeDataChain();

  0015a	e8 00 00 00 00	 call	 ?FreeDataChain@CPlex@@QAEXXZ ; CPlex::FreeDataChain
  0015f	8d 8e c0 2b 00
	00		 lea	 ecx, DWORD PTR [esi+11200]

; 873  : 	m_pBlocks = NULL;

  00165	c7 86 e4 2b 00
	00 00 00 00 00	 mov	 DWORD PTR [esi+11236], 0
  0016f	ff 15 00 00 00
	00		 call	 DWORD PTR __imp_??1?$CStringT@DV?$StrTraitMFC_DLL@DV?$ChTraitsCRT@D@ATL@@@@@ATL@@QAE@XZ
  00175	8d 8e bc 2b 00
	00		 lea	 ecx, DWORD PTR [esi+11196]
  0017b	ff 15 00 00 00
	00		 call	 DWORD PTR __imp_??1?$CStringT@DV?$StrTraitMFC_DLL@DV?$ChTraitsCRT@D@ATL@@@@@ATL@@QAE@XZ
  00181	8d 8e 9c 2b 00
	00		 lea	 ecx, DWORD PTR [esi+11164]
; File C:\Program Files (x86)\Microsoft Visual Studio\2019\Community\VC\Tools\MSVC\14.29.30133\atlmfc\include\afxwin1.inl

; 130  : 	{ }

  00187	c7 01 00 00 00
	00		 mov	 DWORD PTR [ecx], OFFSET ??_7CBrush@@6B@
  0018d	e8 00 00 00 00	 call	 ??1CGdiObject@@UAE@XZ	; CGdiObject::~CGdiObject
  00192	8d 8e f8 2a 00
	00		 lea	 ecx, DWORD PTR [esi+11000]
  00198	e8 00 00 00 00	 call	 ??1CButton@@UAE@XZ	; CButton::~CButton
  0019d	8d 8e 70 2a 00
	00		 lea	 ecx, DWORD PTR [esi+10864]
  001a3	e8 00 00 00 00	 call	 ??1CEditUsr@@UAE@XZ	; CEditUsr::~CEditUsr
  001a8	8d 8e f0 29 00
	00		 lea	 ecx, DWORD PTR [esi+10736]
  001ae	e8 00 00 00 00	 call	 ??1CStatic@@UAE@XZ	; CStatic::~CStatic
  001b3	8d 8e 90 28 00
	00		 lea	 ecx, DWORD PTR [esi+10384]
  001b9	e8 00 00 00 00	 call	 ??1CILButton@@UAE@XZ	; CILButton::~CILButton
  001be	8d 8e 30 27 00
	00		 lea	 ecx, DWORD PTR [esi+10032]
  001c4	e8 00 00 00 00	 call	 ??1CILButton@@UAE@XZ	; CILButton::~CILButton
  001c9	8d 8e d0 25 00
	00		 lea	 ecx, DWORD PTR [esi+9680]
  001cf	e8 00 00 00 00	 call	 ??1CILButton@@UAE@XZ	; CILButton::~CILButton
  001d4	8d 8e 50 25 00
	00		 lea	 ecx, DWORD PTR [esi+9552]
  001da	e8 00 00 00 00	 call	 ??1CSpinButtonCtrl@@UAE@XZ ; CSpinButtonCtrl::~CSpinButtonCtrl
  001df	8d 8e f0 23 00
	00		 lea	 ecx, DWORD PTR [esi+9200]
  001e5	e8 00 00 00 00	 call	 ??1CILButton@@UAE@XZ	; CILButton::~CILButton
  001ea	8d 8e 68 22 00
	00		 lea	 ecx, DWORD PTR [esi+8808]
  001f0	e8 00 00 00 00	 call	 ??1CILButton@@UAE@XZ	; CILButton::~CILButton
  001f5	8d 8e 08 21 00
	00		 lea	 ecx, DWORD PTR [esi+8456]
  001fb	e8 00 00 00 00	 call	 ??1CILButton@@UAE@XZ	; CILButton::~CILButton
  00200	8d 8e 88 20 00
	00		 lea	 ecx, DWORD PTR [esi+8328]
  00206	e8 00 00 00 00	 call	 ??1CStatic@@UAE@XZ	; CStatic::~CStatic
  0020b	8d 8e 00 20 00
	00		 lea	 ecx, DWORD PTR [esi+8192]
  00211	e8 00 00 00 00	 call	 ??1CStatic@@UAE@XZ	; CStatic::~CStatic
  00216	8d 8e 78 1f 00
	00		 lea	 ecx, DWORD PTR [esi+8056]
  0021c	e8 00 00 00 00	 call	 ??1CEditUsr@@UAE@XZ	; CEditUsr::~CEditUsr
  00221	8d 8e f0 1e 00
	00		 lea	 ecx, DWORD PTR [esi+7920]
  00227	e8 00 00 00 00	 call	 ??1CExEdit@@UAE@XZ	; CExEdit::~CExEdit
  0022c	8d 8e 90 1d 00
	00		 lea	 ecx, DWORD PTR [esi+7568]
  00232	e8 00 00 00 00	 call	 ??1CILButton@@UAE@XZ	; CILButton::~CILButton
  00237	8d 8e 30 1c 00
	00		 lea	 ecx, DWORD PTR [esi+7216]
  0023d	e8 00 00 00 00	 call	 ??1CILButton@@UAE@XZ	; CILButton::~CILButton
  00242	8d 8e d0 1a 00
	00		 lea	 ecx, DWORD PTR [esi+6864]
  00248	e8 00 00 00 00	 call	 ??1CILButton@@UAE@XZ	; CILButton::~CILButton
  0024d	8d 8e 70 19 00
	00		 lea	 ecx, DWORD PTR [esi+6512]
  00253	e8 00 00 00 00	 call	 ??1CILButton@@UAE@XZ	; CILButton::~CILButton
  00258	8d 8e 10 18 00
	00		 lea	 ecx, DWORD PTR [esi+6160]
  0025e	e8 00 00 00 00	 call	 ??1CILButton@@UAE@XZ	; CILButton::~CILButton
  00263	8d 8e b0 16 00
	00		 lea	 ecx, DWORD PTR [esi+5808]
  00269	e8 00 00 00 00	 call	 ??1CILButton@@UAE@XZ	; CILButton::~CILButton
  0026e	8d 8e 50 15 00
	00		 lea	 ecx, DWORD PTR [esi+5456]
  00274	e8 00 00 00 00	 call	 ??1CILButton@@UAE@XZ	; CILButton::~CILButton
  00279	8d 8e c8 14 00
	00		 lea	 ecx, DWORD PTR [esi+5320]
  0027f	e8 00 00 00 00	 call	 ??1CExStatic@@UAE@XZ	; CExStatic::~CExStatic
  00284	8d 8e 48 14 00
	00		 lea	 ecx, DWORD PTR [esi+5192]
  0028a	e8 00 00 00 00	 call	 ??1CComboBox@@UAE@XZ	; CComboBox::~CComboBox
  0028f	8d 8e e8 12 00
	00		 lea	 ecx, DWORD PTR [esi+4840]
  00295	e8 00 00 00 00	 call	 ??1CILButton@@UAE@XZ	; CILButton::~CILButton
  0029a	8d 8e 88 11 00
	00		 lea	 ecx, DWORD PTR [esi+4488]
  002a0	e8 00 00 00 00	 call	 ??1CILButton@@UAE@XZ	; CILButton::~CILButton
  002a5	8d 8e 00 11 00
	00		 lea	 ecx, DWORD PTR [esi+4352]
  002ab	e8 00 00 00 00	 call	 ??1CExComboBox@@UAE@XZ	; CExComboBox::~CExComboBox
  002b0	8d 8e 78 10 00
	00		 lea	 ecx, DWORD PTR [esi+4216]
  002b6	e8 00 00 00 00	 call	 ??1CExComboBox@@UAE@XZ	; CExComboBox::~CExComboBox
  002bb	8d 8e f0 0f 00
	00		 lea	 ecx, DWORD PTR [esi+4080]
  002c1	e8 00 00 00 00	 call	 ??1CExComboBox@@UAE@XZ	; CExComboBox::~CExComboBox
  002c6	8d 8e 68 0f 00
	00		 lea	 ecx, DWORD PTR [esi+3944]
  002cc	e8 00 00 00 00	 call	 ??1CExComboBox@@UAE@XZ	; CExComboBox::~CExComboBox
  002d1	8d 8e 08 0e 00
	00		 lea	 ecx, DWORD PTR [esi+3592]
  002d7	e8 00 00 00 00	 call	 ??1CILButton@@UAE@XZ	; CILButton::~CILButton
  002dc	8d 8e a8 0c 00
	00		 lea	 ecx, DWORD PTR [esi+3240]
  002e2	e8 00 00 00 00	 call	 ??1CILButton@@UAE@XZ	; CILButton::~CILButton
  002e7	8d 8e 48 0b 00
	00		 lea	 ecx, DWORD PTR [esi+2888]
  002ed	e8 00 00 00 00	 call	 ??1CILButton@@UAE@XZ	; CILButton::~CILButton
  002f2	8d 8e e8 09 00
	00		 lea	 ecx, DWORD PTR [esi+2536]
  002f8	e8 00 00 00 00	 call	 ??1CILButton@@UAE@XZ	; CILButton::~CILButton
  002fd	8d 8e 88 08 00
	00		 lea	 ecx, DWORD PTR [esi+2184]
  00303	e8 00 00 00 00	 call	 ??1CILButton@@UAE@XZ	; CILButton::~CILButton
  00308	8d 8e 28 07 00
	00		 lea	 ecx, DWORD PTR [esi+1832]
  0030e	e8 00 00 00 00	 call	 ??1CILButton@@UAE@XZ	; CILButton::~CILButton
  00313	8d 8e a0 06 00
	00		 lea	 ecx, DWORD PTR [esi+1696]
  00319	e8 00 00 00 00	 call	 ??1CExComboBox@@UAE@XZ	; CExComboBox::~CExComboBox
  0031e	8d 8e 20 06 00
	00		 lea	 ecx, DWORD PTR [esi+1568]
  00324	e8 00 00 00 00	 call	 ??1CButton@@UAE@XZ	; CButton::~CButton
  00329	8d 8e 98 05 00
	00		 lea	 ecx, DWORD PTR [esi+1432]
  0032f	e8 00 00 00 00	 call	 ??1CExComboBox@@UAE@XZ	; CExComboBox::~CExComboBox
  00334	8d 8e 18 05 00
	00		 lea	 ecx, DWORD PTR [esi+1304]
  0033a	e8 00 00 00 00	 call	 ??1CStatic@@UAE@XZ	; CStatic::~CStatic
  0033f	8d 8e 68 04 00
	00		 lea	 ecx, DWORD PTR [esi+1128]
  00345	e8 00 00 00 00	 call	 ??1CTextProgressCtrl@@UAE@XZ ; CTextProgressCtrl::~CTextProgressCtrl
  0034a	8d 8e 08 03 00
	00		 lea	 ecx, DWORD PTR [esi+776]
  00350	e8 00 00 00 00	 call	 ??1CILButton@@UAE@XZ	; CILButton::~CILButton
  00355	8d 8e 88 02 00
	00		 lea	 ecx, DWORD PTR [esi+648]
  0035b	e8 00 00 00 00	 call	 ??1CComboBox@@UAE@XZ	; CComboBox::~CComboBox
  00360	8d 8e 28 01 00
	00		 lea	 ecx, DWORD PTR [esi+296]
  00366	e8 00 00 00 00	 call	 ??1CILButton@@UAE@XZ	; CILButton::~CILButton
  0036b	8d 8e 00 01 00
	00		 lea	 ecx, DWORD PTR [esi+256]
  00371	ff 15 00 00 00
	00		 call	 DWORD PTR __imp_??1?$CStringT@DV?$StrTraitMFC_DLL@DV?$ChTraitsCRT@D@ATL@@@@@ATL@@QAE@XZ
  00377	8d 8e fc 00 00
	00		 lea	 ecx, DWORD PTR [esi+252]
  0037d	ff 15 00 00 00
	00		 call	 DWORD PTR __imp_??1?$CStringT@DV?$StrTraitMFC_DLL@DV?$ChTraitsCRT@D@ATL@@@@@ATL@@QAE@XZ
  00383	8d 8e f8 00 00
	00		 lea	 ecx, DWORD PTR [esi+248]
  00389	ff 15 00 00 00
	00		 call	 DWORD PTR __imp_??1?$CStringT@DV?$StrTraitMFC_DLL@DV?$ChTraitsCRT@D@ATL@@@@@ATL@@QAE@XZ
  0038f	8d 8e c8 00 00
	00		 lea	 ecx, DWORD PTR [esi+200]
  00395	ff 15 00 00 00
	00		 call	 DWORD PTR __imp_??1?$CStringT@DV?$StrTraitMFC_DLL@DV?$ChTraitsCRT@D@ATL@@@@@ATL@@QAE@XZ
  0039b	8b ce		 mov	 ecx, esi
  0039d	e8 00 00 00 00	 call	 ??1CDialog@@UAE@XZ	; CDialog::~CDialog
  003a2	8b 4d f4	 mov	 ecx, DWORD PTR __$EHRec$[ebp]
  003a5	64 89 0d 00 00
	00 00		 mov	 DWORD PTR fs:0, ecx
  003ac	59		 pop	 ecx
  003ad	5e		 pop	 esi
  003ae	8b e5		 mov	 esp, ebp
  003b0	5d		 pop	 ebp
  003b1	c3		 ret	 0
  003b2	cc		 int	 3
  003b3	cc		 int	 3
  003b4	cc		 int	 3
  003b5	cc		 int	 3
  003b6	cc		 int	 3
_TEXT	ENDS
;	COMDAT text$x
text$x	SEGMENT
__ehhandler$??1CInputBarDlg@@UAE@XZ:
  00000	90		 npad	 1
  00001	90		 npad	 1
  00002	8b 54 24 08	 mov	 edx, DWORD PTR [esp+8]
  00006	8d 42 0c	 lea	 eax, DWORD PTR [edx+12]
  00009	8b 4a f8	 mov	 ecx, DWORD PTR [edx-8]
  0000c	33 c8		 xor	 ecx, eax
  0000e	e8 00 00 00 00	 call	 @__security_check_cookie@4
  00013	b8 00 00 00 00	 mov	 eax, OFFSET __ehfuncinfo$??1CInputBarDlg@@UAE@XZ
  00018	e9 00 00 00 00	 jmp	 ___CxxFrameHandler3
text$x	ENDS
??1CInputBarDlg@@UAE@XZ ENDP				; CInputBarDlg::~CInputBarDlg
; Function compile flags: /Ogtp
; File D:\git\src\IBK\IBK_DRFN\ProjSrc\SrcDrfn\Chart\MULTICHART\InputBarDlg.cpp
; File C:\Program Files (x86)\Microsoft Visual Studio\2019\Community\VC\Tools\MSVC\14.29.30133\atlmfc\include\atlsimpstr.h
; File D:\git\src\IBK\IBK_DRFN\ProjSrc\SrcDrfn\Chart\MULTICHART\InputBarDlg.cpp
; File C:\Program Files (x86)\Microsoft Visual Studio\2019\Community\VC\Tools\MSVC\14.29.30133\atlmfc\include\atlsimpstr.h
; File D:\git\src\IBK\IBK_DRFN\ProjSrc\SrcDrfn\Chart\MULTICHART\InputBarDlg.cpp
; File C:\Program Files (x86)\Microsoft Visual Studio\2019\Community\VC\Tools\MSVC\14.29.30133\atlmfc\include\afxwin2.inl
; File C:\Program Files (x86)\Microsoft Visual Studio\2019\Community\VC\Tools\MSVC\14.29.30133\atlmfc\include\atlsimpstr.h
; File C:\Program Files (x86)\Microsoft Visual Studio\2019\Community\VC\Tools\MSVC\14.29.30133\atlmfc\include\afxwin2.inl
; File D:\git\src\IBK\IBK_DRFN\ProjSrc\SrcDrfn\Chart\MULTICHART\InputBarDlg.cpp
; File C:\Program Files (x86)\Microsoft Visual Studio\2019\Community\VC\Tools\MSVC\14.29.30133\atlmfc\include\afxwin2.inl
; File D:\git\src\IBK\IBK_DRFN\ProjSrc\SrcDrfn\Chart\MULTICHART\InputBarDlg.cpp
; File C:\Program Files (x86)\Microsoft Visual Studio\2019\Community\VC\Tools\MSVC\14.29.30133\atlmfc\include\afxwin2.inl
; File D:\git\src\IBK\IBK_DRFN\ProjSrc\SrcDrfn\Chart\MULTICHART\InputBarDlg.cpp
;	COMDAT ?SendSymbol@CInputBarDlg@@QAEXV?$CStringT@DV?$StrTraitMFC_DLL@DV?$ChTraitsCRT@D@ATL@@@@@ATL@@@Z
_TEXT	SEGMENT
_strData$ = -16						; size = 4
__$EHRec$ = -12						; size = 12
_strCode$ = 8						; size = 4
?SendSymbol@CInputBarDlg@@QAEXV?$CStringT@DV?$StrTraitMFC_DLL@DV?$ChTraitsCRT@D@ATL@@@@@ATL@@@Z PROC ; CInputBarDlg::SendSymbol, COMDAT
; _this$ = ecx

; 7309 : {

  00000	55		 push	 ebp
  00001	8b ec		 mov	 ebp, esp
  00003	6a ff		 push	 -1
  00005	68 00 00 00 00	 push	 __ehhandler$?SendSymbol@CInputBarDlg@@QAEXV?$CStringT@DV?$StrTraitMFC_DLL@DV?$ChTraitsCRT@D@ATL@@@@@ATL@@@Z
  0000a	64 a1 00 00 00
	00		 mov	 eax, DWORD PTR fs:0
  00010	50		 push	 eax
  00011	51		 push	 ecx
  00012	53		 push	 ebx
  00013	56		 push	 esi
  00014	57		 push	 edi
  00015	a1 00 00 00 00	 mov	 eax, DWORD PTR ___security_cookie
  0001a	33 c5		 xor	 eax, ebp
  0001c	50		 push	 eax
  0001d	8d 45 f4	 lea	 eax, DWORD PTR __$EHRec$[ebp]
  00020	64 a3 00 00 00
	00		 mov	 DWORD PTR fs:0, eax
  00026	8b f1		 mov	 esi, ecx

; 7310 : 	if(IsMiniBar()== TRUE) return; 

  00028	83 be c4 2b 00
	00 01		 cmp	 DWORD PTR [esi+11204], 1
  0002f	c7 45 fc 00 00
	00 00		 mov	 DWORD PTR __$EHRec$[ebp+8], 0
  00036	0f 84 cd 00 00
	00		 je	 $LN6@SendSymbol

; 7311 : 	CString strData;

  0003c	8d 4d f0	 lea	 ecx, DWORD PTR _strData$[ebp]
  0003f	ff 15 00 00 00
	00		 call	 DWORD PTR __imp_??0?$CStringT@DV?$StrTraitMFC_DLL@DV?$ChTraitsCRT@D@ATL@@@@@ATL@@QAE@XZ

; 7312 : 	strData.Format("1301%c%s\t1021\t17413\t", 0x7f, strCode);

  00045	ff 75 08	 push	 DWORD PTR _strCode$[ebp]
  00048	8d 45 f0	 lea	 eax, DWORD PTR _strData$[ebp]
  0004b	c6 45 fc 01	 mov	 BYTE PTR __$EHRec$[ebp+8], 1
  0004f	6a 7f		 push	 127			; 0000007fH
  00051	68 00 00 00 00	 push	 OFFSET ??_C@_0BF@HAOFIILE@1301?$CFc?$CFs?71021?717413?7@
  00056	50		 push	 eax
  00057	ff 15 00 00 00
	00		 call	 DWORD PTR __imp_?Format@?$CStringT@DV?$StrTraitMFC_DLL@DV?$ChTraitsCRT@D@ATL@@@@@ATL@@QAAXPBDZZ
; File C:\Program Files (x86)\Microsoft Visual Studio\2019\Community\VC\Tools\MSVC\14.29.30133\atlmfc\include\atlsimpstr.h

; 519  : 		return( GetData()->nDataLength );

  0005d	8b 45 f0	 mov	 eax, DWORD PTR _strData$[ebp]
  00060	8b 40 f4	 mov	 eax, DWORD PTR [eax-12]
; File D:\git\src\IBK\IBK_DRFN\ProjSrc\SrcDrfn\Chart\MULTICHART\InputBarDlg.cpp

; 7317 : 	wb = new char[L_userTH + strData.GetLength()];

  00063	83 c0 0a	 add	 eax, 10			; 0000000aH
  00066	50		 push	 eax
  00067	e8 00 00 00 00	 call	 ??_U@YAPAXI@Z		; operator new[]

; 7318 : 	FillMemory(wb, L_userTH + strData.GetLength(), ' ');

  0006c	8b 4d f0	 mov	 ecx, DWORD PTR _strData$[ebp]
  0006f	8b d8		 mov	 ebx, eax
  00071	8b 49 f4	 mov	 ecx, DWORD PTR [ecx-12]
  00074	83 c1 0a	 add	 ecx, 10			; 0000000aH
  00077	51		 push	 ecx
  00078	6a 20		 push	 32			; 00000020H
  0007a	53		 push	 ebx
  0007b	e8 00 00 00 00	 call	 _memset

; 7319 : 	userth = (struct _userTH *)wb;
; 7320 : 	CopyMemory(userth->trc, "POOPPOOP", sizeof(userth->trc));

  00080	c7 03 50 4f 4f
	50		 mov	 DWORD PTR [ebx], 1347374928 ; 504f4f50H
  00086	c7 43 04 50 4f
	4f 50		 mov	 DWORD PTR [ebx+4], 1347374928 ; 504f4f50H

; 7321 : 	userth->key  = TRKEY_SYMBOL;

  0008d	66 c7 43 08 18
	02		 mov	 WORD PTR [ebx+8], 536	; 00000218H

; 7323 : 	CopyMemory(&wb[L_userTH], (char *)strData.operator LPCTSTR(), strData.GetLength());

  00093	8b 45 f0	 mov	 eax, DWORD PTR _strData$[ebp]
  00096	ff 70 f4	 push	 DWORD PTR [eax-12]
  00099	50		 push	 eax
  0009a	8d 43 0a	 lea	 eax, DWORD PTR [ebx+10]
  0009d	50		 push	 eax
  0009e	e8 00 00 00 00	 call	 _memcpy
; File C:\Program Files (x86)\Microsoft Visual Studio\2019\Community\VC\Tools\MSVC\14.29.30133\atlmfc\include\atlsimpstr.h

; 519  : 		return( GetData()->nDataLength );

  000a3	8b 45 f0	 mov	 eax, DWORD PTR _strData$[ebp]
; File D:\git\src\IBK\IBK_DRFN\ProjSrc\SrcDrfn\Chart\MULTICHART\InputBarDlg.cpp

; 7323 : 	CopyMemory(&wb[L_userTH], (char *)strData.operator LPCTSTR(), strData.GetLength());

  000a6	83 c4 2c	 add	 esp, 44			; 0000002cH
; File C:\Program Files (x86)\Microsoft Visual Studio\2019\Community\VC\Tools\MSVC\14.29.30133\atlmfc\include\afxwin2.inl

; 213  : 	{ ASSERT(::IsWindow(m_hWnd)); return CWnd::FromHandle(::GetParent(m_hWnd)); }

  000a9	ff 76 20	 push	 DWORD PTR [esi+32]
; File C:\Program Files (x86)\Microsoft Visual Studio\2019\Community\VC\Tools\MSVC\14.29.30133\atlmfc\include\atlsimpstr.h

; 519  : 		return( GetData()->nDataLength );

  000ac	8b 78 f4	 mov	 edi, DWORD PTR [eax-12]
; File C:\Program Files (x86)\Microsoft Visual Studio\2019\Community\VC\Tools\MSVC\14.29.30133\atlmfc\include\afxwin2.inl

; 213  : 	{ ASSERT(::IsWindow(m_hWnd)); return CWnd::FromHandle(::GetParent(m_hWnd)); }

  000af	8b 35 00 00 00
	00		 mov	 esi, DWORD PTR __imp__GetParent@4
  000b5	ff d6		 call	 esi
  000b7	50		 push	 eax
  000b8	e8 00 00 00 00	 call	 ?FromHandle@CWnd@@SGPAV1@PAUHWND__@@@Z ; CWnd::FromHandle
  000bd	ff 70 20	 push	 DWORD PTR [eax+32]
  000c0	ff d6		 call	 esi
  000c2	50		 push	 eax
  000c3	e8 00 00 00 00	 call	 ?FromHandle@CWnd@@SGPAV1@PAUHWND__@@@Z ; CWnd::FromHandle
  000c8	ff 70 20	 push	 DWORD PTR [eax+32]
  000cb	ff d6		 call	 esi
  000cd	50		 push	 eax
  000ce	e8 00 00 00 00	 call	 ?FromHandle@CWnd@@SGPAV1@PAUHWND__@@@Z ; CWnd::FromHandle
  000d3	ff 70 20	 push	 DWORD PTR [eax+32]
  000d6	ff d6		 call	 esi
  000d8	50		 push	 eax
  000d9	e8 00 00 00 00	 call	 ?FromHandle@CWnd@@SGPAV1@PAUHWND__@@@Z ; CWnd::FromHandle
; File D:\git\src\IBK\IBK_DRFN\ProjSrc\SrcDrfn\Chart\MULTICHART\InputBarDlg.cpp

; 7325 : 	GetParent()->GetParent()->GetParent()->GetParent()->SendMessage(WM_USER, MAKEWPARAM(invokeTRx, strData.GetLength()), (LPARAM)wb);

  000de	0f b7 cf	 movzx	 ecx, di
; File C:\Program Files (x86)\Microsoft Visual Studio\2019\Community\VC\Tools\MSVC\14.29.30133\atlmfc\include\afxwin2.inl

; 32   : 	{ ASSERT(::IsWindow(m_hWnd)); return ::SendMessage(m_hWnd, message, wParam, lParam); }

  000e1	53		 push	 ebx
; File D:\git\src\IBK\IBK_DRFN\ProjSrc\SrcDrfn\Chart\MULTICHART\InputBarDlg.cpp

; 7325 : 	GetParent()->GetParent()->GetParent()->GetParent()->SendMessage(WM_USER, MAKEWPARAM(invokeTRx, strData.GetLength()), (LPARAM)wb);

  000e2	c1 e1 10	 shl	 ecx, 16			; 00000010H
  000e5	83 c9 02	 or	 ecx, 2
; File C:\Program Files (x86)\Microsoft Visual Studio\2019\Community\VC\Tools\MSVC\14.29.30133\atlmfc\include\afxwin2.inl

; 32   : 	{ ASSERT(::IsWindow(m_hWnd)); return ::SendMessage(m_hWnd, message, wParam, lParam); }

  000e8	51		 push	 ecx
  000e9	68 00 04 00 00	 push	 1024			; 00000400H
  000ee	ff 70 20	 push	 DWORD PTR [eax+32]
  000f1	ff 15 00 00 00
	00		 call	 DWORD PTR __imp__SendMessageA@16
; File D:\git\src\IBK\IBK_DRFN\ProjSrc\SrcDrfn\Chart\MULTICHART\InputBarDlg.cpp

; 7327 : 	delete[] wb;

  000f7	53		 push	 ebx
  000f8	e8 00 00 00 00	 call	 ??_V@YAXPAX@Z		; operator delete[]
  000fd	83 c4 04	 add	 esp, 4

; 7328 : }

  00100	8d 4d f0	 lea	 ecx, DWORD PTR _strData$[ebp]
  00103	ff 15 00 00 00
	00		 call	 DWORD PTR __imp_??1?$CStringT@DV?$StrTraitMFC_DLL@DV?$ChTraitsCRT@D@ATL@@@@@ATL@@QAE@XZ
$LN6@SendSymbol:
  00109	8d 4d 08	 lea	 ecx, DWORD PTR _strCode$[ebp]
  0010c	ff 15 00 00 00
	00		 call	 DWORD PTR __imp_??1?$CStringT@DV?$StrTraitMFC_DLL@DV?$ChTraitsCRT@D@ATL@@@@@ATL@@QAE@XZ
  00112	8b 4d f4	 mov	 ecx, DWORD PTR __$EHRec$[ebp]
  00115	64 89 0d 00 00
	00 00		 mov	 DWORD PTR fs:0, ecx
  0011c	59		 pop	 ecx
  0011d	5f		 pop	 edi
  0011e	5e		 pop	 esi
  0011f	5b		 pop	 ebx
  00120	8b e5		 mov	 esp, ebp
  00122	5d		 pop	 ebp
  00123	c2 04 00	 ret	 4
_TEXT	ENDS
;	COMDAT text$x
text$x	SEGMENT
__unwindfunclet$?SendSymbol@CInputBarDlg@@QAEXV?$CStringT@DV?$StrTraitMFC_DLL@DV?$ChTraitsCRT@D@ATL@@@@@ATL@@@Z$0:
  00000	8d 4d 08	 lea	 ecx, DWORD PTR _strCode$[ebp]
  00003	ff 25 00 00 00
	00		 jmp	 DWORD PTR __imp_??1?$CStringT@DV?$StrTraitMFC_DLL@DV?$ChTraitsCRT@D@ATL@@@@@ATL@@QAE@XZ
__unwindfunclet$?SendSymbol@CInputBarDlg@@QAEXV?$CStringT@DV?$StrTraitMFC_DLL@DV?$ChTraitsCRT@D@ATL@@@@@ATL@@@Z$1:
  00009	8d 4d f0	 lea	 ecx, DWORD PTR _strData$[ebp]
  0000c	ff 25 00 00 00
	00		 jmp	 DWORD PTR __imp_??1?$CStringT@DV?$StrTraitMFC_DLL@DV?$ChTraitsCRT@D@ATL@@@@@ATL@@QAE@XZ
  00012	cc		 int	 3
  00013	cc		 int	 3
  00014	cc		 int	 3
  00015	cc		 int	 3
  00016	cc		 int	 3
__ehhandler$?SendSymbol@CInputBarDlg@@QAEXV?$CStringT@DV?$StrTraitMFC_DLL@DV?$ChTraitsCRT@D@ATL@@@@@ATL@@@Z:
  00017	90		 npad	 1
  00018	90		 npad	 1
  00019	8b 54 24 08	 mov	 edx, DWORD PTR [esp+8]
  0001d	8d 42 0c	 lea	 eax, DWORD PTR [edx+12]
  00020	8b 4a ec	 mov	 ecx, DWORD PTR [edx-20]
  00023	33 c8		 xor	 ecx, eax
  00025	e8 00 00 00 00	 call	 @__security_check_cookie@4
  0002a	b8 00 00 00 00	 mov	 eax, OFFSET __ehfuncinfo$?SendSymbol@CInputBarDlg@@QAEXV?$CStringT@DV?$StrTraitMFC_DLL@DV?$ChTraitsCRT@D@ATL@@@@@ATL@@@Z
  0002f	e9 00 00 00 00	 jmp	 ___CxxFrameHandler3
text$x	ENDS
?SendSymbol@CInputBarDlg@@QAEXV?$CStringT@DV?$StrTraitMFC_DLL@DV?$ChTraitsCRT@D@ATL@@@@@ATL@@@Z ENDP ; CInputBarDlg::SendSymbol
; Function compile flags: /Ogtp
; File D:\git\src\IBK\IBK_DRFN\ProjSrc\SrcDrfn\Chart\MULTICHART\InputBarDlg.cpp
; File C:\Program Files (x86)\Microsoft Visual Studio\2019\Community\VC\Tools\MSVC\14.29.30133\atlmfc\include\atlsimpstr.h
; File D:\git\src\IBK\IBK_DRFN\ProjSrc\SrcDrfn\Chart\MULTICHART\InputBarDlg.cpp
;	COMDAT ?ParsingSymbol@CInputBarDlg@@QAEXPAD@Z
_TEXT	SEGMENT
$T2 = -20						; size = 4
$T3 = -20						; size = 4
_strCode$ = -16						; size = 4
__$EHRec$ = -12						; size = 12
_tempCode$4 = 8						; size = 4
$T5 = 8							; size = 4
_datb$ = 8						; size = 4
?ParsingSymbol@CInputBarDlg@@QAEXPAD@Z PROC		; CInputBarDlg::ParsingSymbol, COMDAT
; _this$ = ecx

; 7282 : {

  00000	55		 push	 ebp
  00001	8b ec		 mov	 ebp, esp
  00003	6a ff		 push	 -1
  00005	68 00 00 00 00	 push	 __ehhandler$?ParsingSymbol@CInputBarDlg@@QAEXPAD@Z
  0000a	64 a1 00 00 00
	00		 mov	 eax, DWORD PTR fs:0
  00010	50		 push	 eax
  00011	83 ec 08	 sub	 esp, 8
  00014	56		 push	 esi
  00015	57		 push	 edi
  00016	a1 00 00 00 00	 mov	 eax, DWORD PTR ___security_cookie
  0001b	33 c5		 xor	 eax, ebp
  0001d	50		 push	 eax
  0001e	8d 45 f4	 lea	 eax, DWORD PTR __$EHRec$[ebp]
  00021	64 a3 00 00 00
	00		 mov	 DWORD PTR fs:0, eax
  00027	8b f9		 mov	 edi, ecx

; 7283 : 	int	value;
; 7284 : 	CString	strCode;

  00029	8d 4d f0	 lea	 ecx, DWORD PTR _strCode$[ebp]
  0002c	ff 15 00 00 00
	00		 call	 DWORD PTR __imp_??0?$CStringT@DV?$StrTraitMFC_DLL@DV?$ChTraitsCRT@D@ATL@@@@@ATL@@QAE@XZ

; 7285 : 	
; 7286 : 	strCode  = CString(datb);

  00032	ff 75 08	 push	 DWORD PTR _datb$[ebp]
