; Listing generated by Microsoft (R) Optimizing Compiler Version 19.29.30148.0 

	TITLE	D:\git\src\IBK\IBK_DRFN\#DRfn-CS\_Obj\MultiChart\JongStatusInTab.obj
	.686P
	.XMM
	include listing.inc
	.model	flat

INCLUDELIB MSVCRT
INCLUDELIB OLDNAMES

PUBLIC	??_C@_0BE@FJPKENOB@RMSG_GETSIGNAL_REAL@		; `string'
PUBLIC	??_C@_0BB@CNOFPEHG@RMSG_SETQUERYOPT@		; `string'
PUBLIC	??_C@_0P@KHFCBIOH@RMSG_CHARTMAIN@		; `string'
PUBLIC	??_C@_0BC@MMPGLPDH@RMS_ANALYSIS_FUNC@		; `string'
PUBLIC	??_C@_0BA@HKNFENJL@RMSG_GET_USERID@		; `string'
PUBLIC	??_C@_0BG@CNPAHNGG@RMSG_CHANGE_SKINCOLOR@	; `string'
PUBLIC	??_C@_0BD@FLDNDDHK@RMSG_GET_SKINCOLOR@		; `string'
PUBLIC	??_C@_0BJ@JLKHIBIK@RMSG_CHANGEVERTSCALETYPE@	; `string'
PUBLIC	??_C@_0BG@LNLCJKPF@RMSG_CHANGE_CROSSLINE@	; `string'
PUBLIC	??_C@_0BH@IFDMIMBP@RMSG_ADD_PLATFORM_MENU@	; `string'
PUBLIC	??_C@_0BJ@OGNAJHHI@RMSG_SETINITIALCHARTDATA@	; `string'
PUBLIC	??_C@_0N@IIOKMIEH@RMSG_GETINFO@			; `string'
PUBLIC	??_C@_0N@HABLPHJG@RMSG_SETINFO@			; `string'
;	COMDAT ??_C@_0N@HABLPHJG@RMSG_SETINFO@
CONST	SEGMENT
??_C@_0N@HABLPHJG@RMSG_SETINFO@ DB 'RMSG_SETINFO', 00H	; `string'
CONST	ENDS
;	COMDAT ??_C@_0N@IIOKMIEH@RMSG_GETINFO@
CONST	SEGMENT
??_C@_0N@IIOKMIEH@RMSG_GETINFO@ DB 'RMSG_GETINFO', 00H	; `string'
CONST	ENDS
;	COMDAT ??_C@_0BJ@OGNAJHHI@RMSG_SETINITIALCHARTDATA@
CONST	SEGMENT
??_C@_0BJ@OGNAJHHI@RMSG_SETINITIALCHARTDATA@ DB 'RMSG_SETINITIALCHARTDATA'
	DB	00H						; `string'
CONST	ENDS
;	COMDAT ??_C@_0BH@IFDMIMBP@RMSG_ADD_PLATFORM_MENU@
CONST	SEGMENT
??_C@_0BH@IFDMIMBP@RMSG_ADD_PLATFORM_MENU@ DB 'RMSG_ADD_PLATFORM_MENU', 00H ; `string'
CONST	ENDS
;	COMDAT ??_C@_0BG@LNLCJKPF@RMSG_CHANGE_CROSSLINE@
CONST	SEGMENT
??_C@_0BG@LNLCJKPF@RMSG_CHANGE_CROSSLINE@ DB 'RMSG_CHANGE_CROSSLINE', 00H ; `string'
CONST	ENDS
;	COMDAT ??_C@_0BJ@JLKHIBIK@RMSG_CHANGEVERTSCALETYPE@
CONST	SEGMENT
??_C@_0BJ@JLKHIBIK@RMSG_CHANGEVERTSCALETYPE@ DB 'RMSG_CHANGEVERTSCALETYPE'
	DB	00H						; `string'
CONST	ENDS
;	COMDAT ??_C@_0BD@FLDNDDHK@RMSG_GET_SKINCOLOR@
CONST	SEGMENT
??_C@_0BD@FLDNDDHK@RMSG_GET_SKINCOLOR@ DB 'RMSG_GET_SKINCOLOR', 00H ; `string'
CONST	ENDS
;	COMDAT ??_C@_0BG@CNPAHNGG@RMSG_CHANGE_SKINCOLOR@
CONST	SEGMENT
??_C@_0BG@CNPAHNGG@RMSG_CHANGE_SKINCOLOR@ DB 'RMSG_CHANGE_SKINCOLOR', 00H ; `string'
CONST	ENDS
;	COMDAT ??_C@_0BA@HKNFENJL@RMSG_GET_USERID@
CONST	SEGMENT
??_C@_0BA@HKNFENJL@RMSG_GET_USERID@ DB 'RMSG_GET_USERID', 00H ; `string'
CONST	ENDS
;	COMDAT ??_C@_0BC@MMPGLPDH@RMS_ANALYSIS_FUNC@
CONST	SEGMENT
??_C@_0BC@MMPGLPDH@RMS_ANALYSIS_FUNC@ DB 'RMS_ANALYSIS_FUNC', 00H ; `string'
CONST	ENDS
;	COMDAT ??_C@_0P@KHFCBIOH@RMSG_CHARTMAIN@
CONST	SEGMENT
??_C@_0P@KHFCBIOH@RMSG_CHARTMAIN@ DB 'RMSG_CHARTMAIN', 00H ; `string'
CONST	ENDS
;	COMDAT ??_C@_0BB@CNOFPEHG@RMSG_SETQUERYOPT@
CONST	SEGMENT
??_C@_0BB@CNOFPEHG@RMSG_SETQUERYOPT@ DB 'RMSG_SETQUERYOPT', 00H ; `string'
CONST	ENDS
;	COMDAT ??_C@_0BE@FJPKENOB@RMSG_GETSIGNAL_REAL@
CONST	SEGMENT
??_C@_0BE@FJPKENOB@RMSG_GETSIGNAL_REAL@ DB 'RMSG_GETSIGNAL_REAL', 00H ; `string'
CONST	ENDS
PUBLIC	?__empty_global_delete@@YAXPAX@Z		; __empty_global_delete
PUBLIC	?__empty_global_delete@@YAXPAXI@Z		; __empty_global_delete
PUBLIC	??1CObject@@UAE@XZ				; CObject::~CObject
PUBLIC	?Serialize@CObject@@UAEXAAVCArchive@@@Z		; CObject::Serialize
PUBLIC	?AssertValid@CObject@@UBEXXZ			; CObject::AssertValid
PUBLIC	?Dump@CObject@@UBEXAAVCDumpContext@@@Z		; CObject::Dump
PUBLIC	??1CGdiObject@@UAE@XZ				; CGdiObject::~CGdiObject
PUBLIC	??_GCGdiObject@@UAEPAXI@Z			; CGdiObject::`scalar deleting destructor'
PUBLIC	??1CBrush@@UAE@XZ				; CBrush::~CBrush
PUBLIC	??_GCBrush@@UAEPAXI@Z				; CBrush::`scalar deleting destructor'
PUBLIC	?BeginModalState@CWnd@@UAEXXZ			; CWnd::BeginModalState
PUBLIC	?EndModalState@CWnd@@UAEXXZ			; CWnd::EndModalState
PUBLIC	??1CRscDlg@@UAE@XZ				; CRscDlg::~CRscDlg
PUBLIC	??0CJongStatusInTab@@QAE@PAVCWnd@@@Z		; CJongStatusInTab::CJongStatusInTab
PUBLIC	?DoDataExchange@CJongStatusInTab@@MAEXPAVCDataExchange@@@Z ; CJongStatusInTab::DoDataExchange
PUBLIC	?SetStatus@CJongStatusInTab@@QAEXJJJJJJN@Z	; CJongStatusInTab::SetStatus
PUBLIC	?UpdateStatus@CJongStatusInTab@@QAEXDDN@Z	; CJongStatusInTab::UpdateStatus
PUBLIC	?InitStatus@CJongStatusInTab@@QAEXXZ		; CJongStatusInTab::InitStatus
PUBLIC	?UpdateInCtrl@CJongStatusInTab@@AAEXXZ		; CJongStatusInTab::UpdateInCtrl
PUBLIC	?OnInitDialog@CJongStatusInTab@@MAEHXZ		; CJongStatusInTab::OnInitDialog
PUBLIC	?OnCtlColor@CJongStatusInTab@@IAEPAUHBRUSH__@@PAVCDC@@PAVCWnd@@I@Z ; CJongStatusInTab::OnCtlColor
PUBLIC	?OnDestroy@CJongStatusInTab@@IAEXXZ		; CJongStatusInTab::OnDestroy
PUBLIC	?PreTranslateMessage@CJongStatusInTab@@MAEHPAUtagMSG@@@Z ; CJongStatusInTab::PreTranslateMessage
PUBLIC	?GetThisMessageMap@CJongStatusInTab@@KGPBUAFX_MSGMAP@@XZ ; CJongStatusInTab::GetThisMessageMap
PUBLIC	?GetMessageMap@CJongStatusInTab@@MBEPBUAFX_MSGMAP@@XZ ; CJongStatusInTab::GetMessageMap
PUBLIC	??_GCJongStatusInTab@@UAEPAXI@Z			; CJongStatusInTab::`scalar deleting destructor'
PUBLIC	??_R0PAVCException@@@8				; CException * `RTTI Type Descriptor'
PUBLIC	??_C@_02DPKJAMEF@?$CFd@				; `string'
PUBLIC	??_C@_00CNPNBAHC@@				; `string'
PUBLIC	??_7CGdiObject@@6B@				; CGdiObject::`vftable'
PUBLIC	??_7CBrush@@6B@					; CBrush::`vftable'
PUBLIC	??_C@_0HD@JJCHHHNK@C?3?2Program?5Files?5?$CIx86?$CJ?2Microsof@ ; `string'
PUBLIC	??_C@_0BP@OIEOKIDM@Exception?5thrown?5in?5destructor@ ; `string'
PUBLIC	??_C@_0BB@HBOOMJBF@?$CFTs?5?$CI?$CFTs?3?$CFd?$CJ?6?$CFTs@ ; `string'
PUBLIC	??_C@_0N@OMEMOKLE@?$CFTs?5?$CI?$CFTs?3?$CFd?$CJ@ ; `string'
PUBLIC	??_C@_01GBGANLPD@0@				; `string'
PUBLIC	??_R0?AVCObject@@@8				; CObject `RTTI Type Descriptor'
PUBLIC	??_R3CObject@@8					; CObject::`RTTI Class Hierarchy Descriptor'
PUBLIC	??_R2CObject@@8					; CObject::`RTTI Base Class Array'
PUBLIC	??_R1A@?0A@EA@CObject@@8			; CObject::`RTTI Base Class Descriptor at (0,-1,0,64)'
PUBLIC	??_R4CGdiObject@@6B@				; CGdiObject::`RTTI Complete Object Locator'
PUBLIC	??_R0?AVCGdiObject@@@8				; CGdiObject `RTTI Type Descriptor'
PUBLIC	??_R3CGdiObject@@8				; CGdiObject::`RTTI Class Hierarchy Descriptor'
PUBLIC	??_R2CGdiObject@@8				; CGdiObject::`RTTI Base Class Array'
PUBLIC	??_R1A@?0A@EA@CGdiObject@@8			; CGdiObject::`RTTI Base Class Descriptor at (0,-1,0,64)'
PUBLIC	??_R4CBrush@@6B@				; CBrush::`RTTI Complete Object Locator'
PUBLIC	??_R0?AVCBrush@@@8				; CBrush `RTTI Type Descriptor'
PUBLIC	??_R3CBrush@@8					; CBrush::`RTTI Class Hierarchy Descriptor'
PUBLIC	??_R2CBrush@@8					; CBrush::`RTTI Base Class Array'
PUBLIC	??_R1A@?0A@EA@CBrush@@8				; CBrush::`RTTI Base Class Descriptor at (0,-1,0,64)'
PUBLIC	??_R1A@?0A@EA@CWnd@@8				; CWnd::`RTTI Base Class Descriptor at (0,-1,0,64)'
PUBLIC	??_R0?AVCWnd@@@8				; CWnd `RTTI Type Descriptor'
PUBLIC	??_R3CWnd@@8					; CWnd::`RTTI Class Hierarchy Descriptor'
PUBLIC	??_R2CWnd@@8					; CWnd::`RTTI Base Class Array'
PUBLIC	??_R1A@?0A@EA@CCmdTarget@@8			; CCmdTarget::`RTTI Base Class Descriptor at (0,-1,0,64)'
PUBLIC	??_R0?AVCCmdTarget@@@8				; CCmdTarget `RTTI Type Descriptor'
PUBLIC	??_R3CCmdTarget@@8				; CCmdTarget::`RTTI Class Hierarchy Descriptor'
PUBLIC	??_R2CCmdTarget@@8				; CCmdTarget::`RTTI Base Class Array'
PUBLIC	??_R1A@?0A@EA@CDialog@@8			; CDialog::`RTTI Base Class Descriptor at (0,-1,0,64)'
PUBLIC	??_R0?AVCDialog@@@8				; CDialog `RTTI Type Descriptor'
PUBLIC	??_R3CDialog@@8					; CDialog::`RTTI Class Hierarchy Descriptor'
PUBLIC	??_R2CDialog@@8					; CDialog::`RTTI Base Class Array'
PUBLIC	??_7CJongStatusInTab@@6B@			; CJongStatusInTab::`vftable'
PUBLIC	??_C@_04MGNKPMDF@?$LL?s?G?Q@			; `string'
PUBLIC	??_C@_04POFDFACB@?$LL?s?$LN?B@			; `string'
PUBLIC	??_C@_04NDMDMPLN@?$LK?$LI?G?U@			; `string'
PUBLIC	??_C@_04PNMFGEGC@?G?O?$LG?t@			; `string'
PUBLIC	??_C@_04EAAFLGOC@?G?O?G?Q@			; `string'
PUBLIC	??_C@_02MMCGBDJK@0?$CF@				; `string'
PUBLIC	??_C@_09PKGMEFNK@?$CF?$CL2?402f?$CF?$CF@	; `string'
PUBLIC	??_R4CJongStatusInTab@@6B@			; CJongStatusInTab::`RTTI Complete Object Locator'
PUBLIC	??_R0?AVCJongStatusInTab@@@8			; CJongStatusInTab `RTTI Type Descriptor'
PUBLIC	??_R3CJongStatusInTab@@8			; CJongStatusInTab::`RTTI Class Hierarchy Descriptor'
PUBLIC	??_R2CJongStatusInTab@@8			; CJongStatusInTab::`RTTI Base Class Array'
PUBLIC	??_R1A@?0A@EA@CJongStatusInTab@@8		; CJongStatusInTab::`RTTI Base Class Descriptor at (0,-1,0,64)'
PUBLIC	??_R1A@?0A@EA@CRscDlg@@8			; CRscDlg::`RTTI Base Class Descriptor at (0,-1,0,64)'
PUBLIC	??_R0?AVCRscDlg@@@8				; CRscDlg `RTTI Type Descriptor'
PUBLIC	??_R3CRscDlg@@8					; CRscDlg::`RTTI Class Hierarchy Descriptor'
PUBLIC	??_R2CRscDlg@@8					; CRscDlg::`RTTI Base Class Array'
EXTRN	??3@YAXPAX@Z:PROC				; operator delete
EXTRN	?__global_delete@@YAXPAXI@Z:PROC		; __global_delete
EXTRN	__imp__CreateSolidBrush@4:PROC
EXTRN	__imp__RegisterWindowMessageA@4:PROC
EXTRN	__imp__SendMessageA@16:PROC
EXTRN	__imp__EnableWindow@8:PROC
EXTRN	__imp_??0?$CStringT@DV?$StrTraitMFC_DLL@DV?$ChTraitsCRT@D@ATL@@@@@ATL@@QAE@XZ:PROC
EXTRN	__imp_??1?$CStringT@DV?$StrTraitMFC_DLL@DV?$ChTraitsCRT@D@ATL@@@@@ATL@@QAE@XZ:PROC
EXTRN	__imp_?Format@?$CStringT@DV?$StrTraitMFC_DLL@DV?$ChTraitsCRT@D@ATL@@@@@ATL@@QAAXPBDZZ:PROC
EXTRN	?GetRuntimeClass@CGdiObject@@UBEPAUCRuntimeClass@@XZ:PROC ; CGdiObject::GetRuntimeClass
EXTRN	?Attach@CGdiObject@@QAEHPAX@Z:PROC		; CGdiObject::Attach
EXTRN	?DeleteObject@CGdiObject@@QAEHXZ:PROC		; CGdiObject::DeleteObject
EXTRN	??_ECGdiObject@@UAEPAXI@Z:PROC			; CGdiObject::`vector deleting destructor'
EXTRN	?GetRuntimeClass@CBrush@@UBEPAUCRuntimeClass@@XZ:PROC ; CBrush::GetRuntimeClass
EXTRN	??_ECBrush@@UAEPAXI@Z:PROC			; CBrush::`vector deleting destructor'
EXTRN	?DDX_Control@@YGXPAVCDataExchange@@HAAVCWnd@@@Z:PROC ; DDX_Control
EXTRN	?IsInvokeAllowed@CCmdTarget@@UAEHJ@Z:PROC	; CCmdTarget::IsInvokeAllowed
EXTRN	?GetDispatchIID@CCmdTarget@@UAEHPAU_GUID@@@Z:PROC ; CCmdTarget::GetDispatchIID
EXTRN	?GetTypeInfoCount@CCmdTarget@@UAEIXZ:PROC	; CCmdTarget::GetTypeInfoCount
EXTRN	?GetTypeLibCache@CCmdTarget@@UAEPAVCTypeLibCache@@XZ:PROC ; CCmdTarget::GetTypeLibCache
EXTRN	?GetTypeLib@CCmdTarget@@UAEJKPAPAUITypeLib@@@Z:PROC ; CCmdTarget::GetTypeLib
EXTRN	?GetCommandMap@CCmdTarget@@MBEPBUAFX_OLECMDMAP@@XZ:PROC ; CCmdTarget::GetCommandMap
EXTRN	?GetDispatchMap@CCmdTarget@@MBEPBUAFX_DISPMAP@@XZ:PROC ; CCmdTarget::GetDispatchMap
EXTRN	?GetConnectionMap@CCmdTarget@@MBEPBUAFX_CONNECTIONMAP@@XZ:PROC ; CCmdTarget::GetConnectionMap
EXTRN	?GetEventSinkMap@CCmdTarget@@MBEPBUAFX_EVENTSINKMAP@@XZ:PROC ; CCmdTarget::GetEventSinkMap
EXTRN	?OnCreateAggregates@CCmdTarget@@UAEHXZ:PROC	; CCmdTarget::OnCreateAggregates
EXTRN	?GetInterfaceHook@CCmdTarget@@UAEPAUIUnknown@@PBX@Z:PROC ; CCmdTarget::GetInterfaceHook
EXTRN	?GetExtraConnectionPoints@CCmdTarget@@MAEHPAVCPtrArray@@@Z:PROC ; CCmdTarget::GetExtraConnectionPoints
EXTRN	?GetConnectionHook@CCmdTarget@@MAEPAUIConnectionPoint@@ABU_GUID@@@Z:PROC ; CCmdTarget::GetConnectionHook
EXTRN	?PreSubclassWindow@CWnd@@UAEXXZ:PROC		; CWnd::PreSubclassWindow
EXTRN	?Create@CWnd@@UAEHPBD0KABUtagRECT@@PAV1@IPAUCCreateContext@@@Z:PROC ; CWnd::Create
EXTRN	?CreateEx@CWnd@@UAEHKPBD0KHHHHPAUHWND__@@PAUHMENU__@@PAX@Z:PROC ; CWnd::CreateEx
EXTRN	?CreateEx@CWnd@@UAEHKPBD0KABUtagRECT@@PAV1@IPAX@Z:PROC ; CWnd::CreateEx
EXTRN	?DestroyWindow@CWnd@@UAEHXZ:PROC		; CWnd::DestroyWindow
EXTRN	?PreCreateWindow@CWnd@@UAEHAAUtagCREATESTRUCTA@@@Z:PROC ; CWnd::PreCreateWindow
EXTRN	?CalcWindowRect@CWnd@@UAEXPAUtagRECT@@I@Z:PROC	; CWnd::CalcWindowRect
EXTRN	?GetMenu@CWnd@@UBEPAVCMenu@@XZ:PROC		; CWnd::GetMenu
EXTRN	?SetMenu@CWnd@@UAEHPAVCMenu@@@Z:PROC		; CWnd::SetMenu
EXTRN	?OnToolHitTest@CWnd@@UBEHVCPoint@@PAUtagTOOLINFOA@@@Z:PROC ; CWnd::OnToolHitTest
EXTRN	?GetScrollBarCtrl@CWnd@@UBEPAVCScrollBar@@H@Z:PROC ; CWnd::GetScrollBarCtrl
EXTRN	?WinHelpA@CWnd@@UAEXKI@Z:PROC			; CWnd::WinHelpA
EXTRN	?HtmlHelpA@CWnd@@UAEXKI@Z:PROC			; CWnd::HtmlHelpA
EXTRN	?WinHelpInternal@CWnd@@UAEXKI@Z:PROC		; CWnd::WinHelpInternal
EXTRN	?ContinueModal@CWnd@@UAEHXZ:PROC		; CWnd::ContinueModal
EXTRN	?EndModalLoop@CWnd@@UAEXH@Z:PROC		; CWnd::EndModalLoop
EXTRN	?OnDrawIconicThumbnailOrLivePreview@CWnd@@UAEXAAVCDC@@VCRect@@VCSize@@HAAH@Z:PROC ; CWnd::OnDrawIconicThumbnailOrLivePreview
EXTRN	?GetInterfaceMap@CWnd@@MBEPBUAFX_INTERFACEMAP@@XZ:PROC ; CWnd::GetInterfaceMap
EXTRN	?EnsureStdObj@CWnd@@UAEJXZ:PROC			; CWnd::EnsureStdObj
EXTRN	?get_accParent@CWnd@@UAEJPAPAUIDispatch@@@Z:PROC ; CWnd::get_accParent
EXTRN	?get_accChildCount@CWnd@@UAEJPAJ@Z:PROC		; CWnd::get_accChildCount
EXTRN	?get_accChild@CWnd@@UAEJUtagVARIANT@@PAPAUIDispatch@@@Z:PROC ; CWnd::get_accChild
EXTRN	?get_accName@CWnd@@UAEJUtagVARIANT@@PAPA_W@Z:PROC ; CWnd::get_accName
EXTRN	?get_accValue@CWnd@@UAEJUtagVARIANT@@PAPA_W@Z:PROC ; CWnd::get_accValue
EXTRN	?get_accDescription@CWnd@@UAEJUtagVARIANT@@PAPA_W@Z:PROC ; CWnd::get_accDescription
EXTRN	?get_accRole@CWnd@@UAEJUtagVARIANT@@PAU2@@Z:PROC ; CWnd::get_accRole
EXTRN	?get_accState@CWnd@@UAEJUtagVARIANT@@PAU2@@Z:PROC ; CWnd::get_accState
EXTRN	?get_accHelp@CWnd@@UAEJUtagVARIANT@@PAPA_W@Z:PROC ; CWnd::get_accHelp
EXTRN	?get_accHelpTopic@CWnd@@UAEJPAPA_WUtagVARIANT@@PAJ@Z:PROC ; CWnd::get_accHelpTopic
EXTRN	?get_accKeyboardShortcut@CWnd@@UAEJUtagVARIANT@@PAPA_W@Z:PROC ; CWnd::get_accKeyboardShortcut
EXTRN	?get_accFocus@CWnd@@UAEJPAUtagVARIANT@@@Z:PROC	; CWnd::get_accFocus
EXTRN	?get_accSelection@CWnd@@UAEJPAUtagVARIANT@@@Z:PROC ; CWnd::get_accSelection
EXTRN	?get_accDefaultAction@CWnd@@UAEJUtagVARIANT@@PAPA_W@Z:PROC ; CWnd::get_accDefaultAction
EXTRN	?accSelect@CWnd@@UAEJJUtagVARIANT@@@Z:PROC	; CWnd::accSelect
EXTRN	?accLocation@CWnd@@UAEJPAJ000UtagVARIANT@@@Z:PROC ; CWnd::accLocation
EXTRN	?accNavigate@CWnd@@UAEJJUtagVARIANT@@PAU2@@Z:PROC ; CWnd::accNavigate
EXTRN	?accHitTest@CWnd@@UAEJJJPAUtagVARIANT@@@Z:PROC	; CWnd::accHitTest
EXTRN	?accDoDefaultAction@CWnd@@UAEJUtagVARIANT@@@Z:PROC ; CWnd::accDoDefaultAction
EXTRN	?put_accName@CWnd@@UAEJUtagVARIANT@@PA_W@Z:PROC	; CWnd::put_accName
EXTRN	?put_accValue@CWnd@@UAEJUtagVARIANT@@PA_W@Z:PROC ; CWnd::put_accValue
EXTRN	?SetProxy@CWnd@@UAEJPAUIAccessibleProxy@@@Z:PROC ; CWnd::SetProxy
EXTRN	?CreateAccessibleProxy@CWnd@@UAEJIJPAJ@Z:PROC	; CWnd::CreateAccessibleProxy
EXTRN	?OnCommand@CWnd@@MAEHIJ@Z:PROC			; CWnd::OnCommand
EXTRN	?OnNotify@CWnd@@MAEHIJPAJ@Z:PROC		; CWnd::OnNotify
EXTRN	?OnCtlColor@CWnd@@IAEPAUHBRUSH__@@PAVCDC@@PAV1@I@Z:PROC ; CWnd::OnCtlColor
EXTRN	?OnDestroy@CWnd@@IAEXXZ:PROC			; CWnd::OnDestroy
EXTRN	?GetSuperWndProcAddr@CWnd@@MAEPAP6GJPAUHWND__@@IIJ@ZXZ:PROC ; CWnd::GetSuperWndProcAddr
EXTRN	?OnAmbientProperty@CWnd@@UAEHPAVCOleControlSite@@JPAUtagVARIANT@@@Z:PROC ; CWnd::OnAmbientProperty
EXTRN	?WindowProc@CWnd@@MAEJIIJ@Z:PROC		; CWnd::WindowProc
EXTRN	?OnWndMsg@CWnd@@MAEHIIJPAJ@Z:PROC		; CWnd::OnWndMsg
EXTRN	?DefWindowProcA@CWnd@@MAEJIIJ@Z:PROC		; CWnd::DefWindowProcA
EXTRN	?PostNcDestroy@CWnd@@MAEXXZ:PROC		; CWnd::PostNcDestroy
EXTRN	?OnChildNotify@CWnd@@MAEHIIJPAJ@Z:PROC		; CWnd::OnChildNotify
EXTRN	?OnTouchInputs@CWnd@@MAEHIPAUtagTOUCHINPUT@@@Z:PROC ; CWnd::OnTouchInputs
EXTRN	?OnTouchInput@CWnd@@MAEHVCPoint@@HHPAUtagTOUCHINPUT@@@Z:PROC ; CWnd::OnTouchInput
EXTRN	?GetGestureStatus@CWnd@@MAEKVCPoint@@@Z:PROC	; CWnd::GetGestureStatus
EXTRN	?OnGestureZoom@CWnd@@MAEHVCPoint@@J@Z:PROC	; CWnd::OnGestureZoom
EXTRN	?OnGesturePan@CWnd@@MAEHVCPoint@@0@Z:PROC	; CWnd::OnGesturePan
EXTRN	?OnGestureRotate@CWnd@@MAEHVCPoint@@N@Z:PROC	; CWnd::OnGestureRotate
EXTRN	?OnGestureTwoFingerTap@CWnd@@MAEHVCPoint@@@Z:PROC ; CWnd::OnGestureTwoFingerTap
EXTRN	?OnGesturePressAndTap@CWnd@@MAEHVCPoint@@J@Z:PROC ; CWnd::OnGesturePressAndTap
EXTRN	?ResizeDynamicLayout@CWnd@@MAEXXZ:PROC		; CWnd::ResizeDynamicLayout
EXTRN	?IsFrameWnd@CWnd@@UBEHXZ:PROC			; CWnd::IsFrameWnd
EXTRN	?OnFinalRelease@CWnd@@UAEXXZ:PROC		; CWnd::OnFinalRelease
EXTRN	?CreateControlContainer@CWnd@@MAEHPAPAVCOleControlContainer@@@Z:PROC ; CWnd::CreateControlContainer
EXTRN	?CreateControlSite@CWnd@@MAEHPAVCOleControlContainer@@PAPAVCOleControlSite@@IABU_GUID@@@Z:PROC ; CWnd::CreateControlSite
EXTRN	?GetRuntimeClass@CDialog@@UBEPAUCRuntimeClass@@XZ:PROC ; CDialog::GetRuntimeClass
EXTRN	?Create@CDialog@@UAEHPBDPAVCWnd@@@Z:PROC	; CDialog::Create
EXTRN	?CreateIndirect@CDialog@@UAEHPBUDLGTEMPLATE@@PAVCWnd@@PAX@Z:PROC ; CDialog::CreateIndirect
EXTRN	?CreateIndirect@CDialog@@UAEHPAXPAVCWnd@@@Z:PROC ; CDialog::CreateIndirect
EXTRN	?OnInitDialog@CDialog@@UAEHXZ:PROC		; CDialog::OnInitDialog
EXTRN	?OnSetFont@CDialog@@UAEXPAVCFont@@@Z:PROC	; CDialog::OnSetFont
EXTRN	?OnOK@CDialog@@MAEXXZ:PROC			; CDialog::OnOK
EXTRN	?OnCancel@CDialog@@MAEXXZ:PROC			; CDialog::OnCancel
EXTRN	??1CDialog@@UAE@XZ:PROC				; CDialog::~CDialog
EXTRN	?PreTranslateMessage@CDialog@@UAEHPAUtagMSG@@@Z:PROC ; CDialog::PreTranslateMessage
EXTRN	?OnCmdMsg@CDialog@@UAEHIHPAXPAUAFX_CMDHANDLERINFO@@@Z:PROC ; CDialog::OnCmdMsg
EXTRN	?CheckAutoCenter@CDialog@@UAEHXZ:PROC		; CDialog::CheckAutoCenter
EXTRN	?SetOccDialogInfo@CDialog@@MAEHPAU_AFX_OCC_DIALOG_INFO@@@Z:PROC ; CDialog::SetOccDialogInfo
EXTRN	?GetOccDialogInfo@CDialog@@MAEPAU_AFX_OCC_DIALOG_INFO@@XZ:PROC ; CDialog::GetOccDialogInfo
EXTRN	?PreInitDialog@CDialog@@MAEXXZ:PROC		; CDialog::PreInitDialog
EXTRN	?AfxMessageBox@@YGHPBDII@Z:PROC			; AfxMessageBox
EXTRN	??0CToolTipCtrl@@QAE@XZ:PROC			; CToolTipCtrl::CToolTipCtrl
EXTRN	?AddTool@CToolTipCtrl@@QAEHPAVCWnd@@PBDPBUtagRECT@@I@Z:PROC ; CToolTipCtrl::AddTool
EXTRN	??1CToolTipCtrl@@UAE@XZ:PROC			; CToolTipCtrl::~CToolTipCtrl
EXTRN	??0CRscDlg@@QAE@IPAVCWnd@@@Z:PROC		; CRscDlg::CRscDlg
EXTRN	?Create@CRscDlg@@UAEHIPAVCWnd@@@Z:PROC		; CRscDlg::Create
EXTRN	?DoModal@CRscDlg@@UAEHXZ:PROC			; CRscDlg::DoModal
EXTRN	?DoDataExchange@CRscDlg@@MAEXPAVCDataExchange@@@Z:PROC ; CRscDlg::DoDataExchange
EXTRN	?GetThisMessageMap@CRscDlg@@KGPBUAFX_MSGMAP@@XZ:PROC ; CRscDlg::GetThisMessageMap
EXTRN	??0CExStatic@@QAE@H@Z:PROC			; CExStatic::CExStatic
EXTRN	?SetStaticColor@CExStatic@@QAEHKKK@Z:PROC	; CExStatic::SetStaticColor
EXTRN	?SetText@CExStatic@@QAEXPBD@Z:PROC		; CExStatic::SetText
EXTRN	??1CExStatic@@UAE@XZ:PROC			; CExStatic::~CExStatic
EXTRN	??_ECJongStatusInTab@@UAEPAXI@Z:PROC		; CJongStatusInTab::`vector deleting destructor'
EXTRN	@__security_check_cookie@4:PROC
EXTRN	___CxxFrameHandler3:PROC
EXTRN	??_7type_info@@6B@:QWORD			; type_info::`vftable'
EXTRN	___security_cookie:DWORD
EXTRN	__fltused:DWORD
_BSS	SEGMENT
?RMSG_GETSIGNAL_REAL@@3IB DD 01H DUP (?)		; RMSG_GETSIGNAL_REAL
?RMSG_SETQUERYOPT@@3IB DD 01H DUP (?)			; RMSG_SETQUERYOPT
?RMSG_CHARTMAIN@@3IB DD 01H DUP (?)			; RMSG_CHARTMAIN
?RMS_ANALYSIS_FUNC@@3IB DD 01H DUP (?)			; RMS_ANALYSIS_FUNC
?RMSG_GET_USERID@@3IB DD 01H DUP (?)			; RMSG_GET_USERID
?RMSG_CHANGE_SKINCOLOR@@3IB DD 01H DUP (?)		; RMSG_CHANGE_SKINCOLOR
?RMSG_GET_SKINCOLOR@@3IB DD 01H DUP (?)			; RMSG_GET_SKINCOLOR
?RMSG_CHANGEVERTSCALETYPE@@3IB DD 01H DUP (?)		; RMSG_CHANGEVERTSCALETYPE
?RMSG_CHANGE_CROSSLINE@@3IB DD 01H DUP (?)		; RMSG_CHANGE_CROSSLINE
?RMSG_ADD_PLATFORM_MENU@@3IB DD 01H DUP (?)		; RMSG_ADD_PLATFORM_MENU
?RMSG_SETINITIALCHARTDATA@@3IB DD 01H DUP (?)		; RMSG_SETINITIALCHARTDATA
?RMSG_GETINFO@@3IB DD 01H DUP (?)			; RMSG_GETINFO
?RMSG_SETINFO@@3IB DD 01H DUP (?)			; RMSG_SETINFO
_BSS	ENDS
CRT$XCU	SEGMENT
?RMSG_GETSIGNAL_REAL$initializer$@@3P6AXXZA DD FLAT:??__ERMSG_GETSIGNAL_REAL@@YAXXZ ; RMSG_GETSIGNAL_REAL$initializer$
CRT$XCU	ENDS
;	COMDAT ??_R2CRscDlg@@8
rdata$r	SEGMENT
??_R2CRscDlg@@8 DD FLAT:??_R1A@?0A@EA@CRscDlg@@8	; CRscDlg::`RTTI Base Class Array'
	DD	FLAT:??_R1A@?0A@EA@CDialog@@8
	DD	FLAT:??_R1A@?0A@EA@CWnd@@8
	DD	FLAT:??_R1A@?0A@EA@CCmdTarget@@8
	DD	FLAT:??_R1A@?0A@EA@CObject@@8
rdata$r	ENDS
;	COMDAT ??_R3CRscDlg@@8
rdata$r	SEGMENT
??_R3CRscDlg@@8 DD 00H					; CRscDlg::`RTTI Class Hierarchy Descriptor'
	DD	00H
	DD	05H
	DD	FLAT:??_R2CRscDlg@@8
rdata$r	ENDS
;	COMDAT ??_R0?AVCRscDlg@@@8
data$rs	SEGMENT
??_R0?AVCRscDlg@@@8 DD FLAT:??_7type_info@@6B@		; CRscDlg `RTTI Type Descriptor'
	DD	00H
	DB	'.?AVCRscDlg@@', 00H
data$rs	ENDS
;	COMDAT ??_R1A@?0A@EA@CRscDlg@@8
rdata$r	SEGMENT
??_R1A@?0A@EA@CRscDlg@@8 DD FLAT:??_R0?AVCRscDlg@@@8	; CRscDlg::`RTTI Base Class Descriptor at (0,-1,0,64)'
	DD	04H
	DD	00H
	DD	0ffffffffH
	DD	00H
	DD	040H
	DD	FLAT:??_R3CRscDlg@@8
rdata$r	ENDS
;	COMDAT ??_R1A@?0A@EA@CJongStatusInTab@@8
rdata$r	SEGMENT
??_R1A@?0A@EA@CJongStatusInTab@@8 DD FLAT:??_R0?AVCJongStatusInTab@@@8 ; CJongStatusInTab::`RTTI Base Class Descriptor at (0,-1,0,64)'
	DD	05H
	DD	00H
	DD	0ffffffffH
	DD	00H
	DD	040H
	DD	FLAT:??_R3CJongStatusInTab@@8
rdata$r	ENDS
;	COMDAT ??_R2CJongStatusInTab@@8
rdata$r	SEGMENT
??_R2CJongStatusInTab@@8 DD FLAT:??_R1A@?0A@EA@CJongStatusInTab@@8 ; CJongStatusInTab::`RTTI Base Class Array'
	DD	FLAT:??_R1A@?0A@EA@CRscDlg@@8
	DD	FLAT:??_R1A@?0A@EA@CDialog@@8
	DD	FLAT:??_R1A@?0A@EA@CWnd@@8
	DD	FLAT:??_R1A@?0A@EA@CCmdTarget@@8
	DD	FLAT:??_R1A@?0A@EA@CObject@@8
rdata$r	ENDS
;	COMDAT ??_R3CJongStatusInTab@@8
rdata$r	SEGMENT
??_R3CJongStatusInTab@@8 DD 00H				; CJongStatusInTab::`RTTI Class Hierarchy Descriptor'
	DD	00H
	DD	06H
	DD	FLAT:??_R2CJongStatusInTab@@8
rdata$r	ENDS
;	COMDAT ??_R0?AVCJongStatusInTab@@@8
data$rs	SEGMENT
??_R0?AVCJongStatusInTab@@@8 DD FLAT:??_7type_info@@6B@	; CJongStatusInTab `RTTI Type Descriptor'
	DD	00H
	DB	'.?AVCJongStatusInTab@@', 00H
data$rs	ENDS
;	COMDAT ??_R4CJongStatusInTab@@6B@
rdata$r	SEGMENT
??_R4CJongStatusInTab@@6B@ DD 00H			; CJongStatusInTab::`RTTI Complete Object Locator'
	DD	00H
	DD	00H
	DD	FLAT:??_R0?AVCJongStatusInTab@@@8
	DD	FLAT:??_R3CJongStatusInTab@@8
rdata$r	ENDS
;	COMDAT ??_C@_09PKGMEFNK@?$CF?$CL2?402f?$CF?$CF@
CONST	SEGMENT
??_C@_09PKGMEFNK@?$CF?$CL2?402f?$CF?$CF@ DB '%+2.02f%%', 00H ; `string'
CONST	ENDS
;	COMDAT ??_C@_02MMCGBDJK@0?$CF@
CONST	SEGMENT
??_C@_02MMCGBDJK@0?$CF@ DB '0%', 00H			; `string'
CONST	ENDS
;	COMDAT ??_C@_04EAAFLGOC@?G?O?G?Q@
CONST	SEGMENT
??_C@_04EAAFLGOC@?G?O?G?Q@ DB 0c7H, 0cfH, 0c7H, 0d1H, 00H ; `string'
CONST	ENDS
;	COMDAT ??_C@_04PNMFGEGC@?G?O?$LG?t@
CONST	SEGMENT
??_C@_04PNMFGEGC@?G?O?$LG?t@ DB 0c7H, 0cfH, 0b6H, 0f4H, 00H ; `string'
CONST	ENDS
;	COMDAT ??_C@_04NDMDMPLN@?$LK?$LI?G?U@
CONST	SEGMENT
??_C@_04NDMDMPLN@?$LK?$LI?G?U@ DB 0baH, 0b8H, 0c7H, 0d5H, 00H ; `string'
CONST	ENDS
;	COMDAT ??_C@_04POFDFACB@?$LL?s?$LN?B@
CONST	SEGMENT
??_C@_04POFDFACB@?$LL?s?$LN?B@ DB 0bbH, 0f3H, 0bdH, 0c2H, 00H ; `string'
CONST	ENDS
;	COMDAT ??_C@_04MGNKPMDF@?$LL?s?G?Q@
CONST	SEGMENT
??_C@_04MGNKPMDF@?$LL?s?G?Q@ DB 0bbH, 0f3H, 0c7H, 0d1H, 00H ; `string'
CONST	ENDS
;	COMDAT ?messageMap@?1??GetThisMessageMap@CJongStatusInTab@@KGPBUAFX_MSGMAP@@XZ@4U3@B
CONST	SEGMENT
?messageMap@?1??GetThisMessageMap@CJongStatusInTab@@KGPBUAFX_MSGMAP@@XZ@4U3@B DD FLAT:?GetThisMessageMap@CRscDlg@@KGPBUAFX_MSGMAP@@XZ ; `CJongStatusInTab::GetThisMessageMap'::`2'::messageMap
	DD	FLAT:?_messageEntries@?1??GetThisMessageMap@CJongStatusInTab@@KGPBUAFX_MSGMAP@@XZ@4QBUAFX_MSGMAP_ENTRY@@B
CONST	ENDS
;	COMDAT ?_messageEntries@?1??GetThisMessageMap@CJongStatusInTab@@KGPBUAFX_MSGMAP@@XZ@4QBUAFX_MSGMAP_ENTRY@@B
CONST	SEGMENT
?_messageEntries@?1??GetThisMessageMap@CJongStatusInTab@@KGPBUAFX_MSGMAP@@XZ@4QBUAFX_MSGMAP_ENTRY@@B DD 019H ; `CJongStatusInTab::GetThisMessageMap'::`2'::_messageEntries
	DD	00H
	DD	00H
	DD	00H
	DD	08H
	DD	FLAT:?OnCtlColor@CJongStatusInTab@@IAEPAUHBRUSH__@@PAVCDC@@PAVCWnd@@I@Z
	DD	02H
	DD	00H
	DD	00H
	DD	00H
	DD	013H
	DD	FLAT:?OnDestroy@CJongStatusInTab@@IAEXXZ
	DD	00H
	DD	00H
	DD	00H
	DD	00H
	DD	00H
	DD	00H
CONST	ENDS
;	COMDAT ??_7CJongStatusInTab@@6B@
CONST	SEGMENT
??_7CJongStatusInTab@@6B@ DD FLAT:??_R4CJongStatusInTab@@6B@ ; CJongStatusInTab::`vftable'
	DD	FLAT:?GetRuntimeClass@CDialog@@UBEPAUCRuntimeClass@@XZ
	DD	FLAT:??_ECJongStatusInTab@@UAEPAXI@Z
	DD	FLAT:?Serialize@CObject@@UAEXAAVCArchive@@@Z
	DD	FLAT:?AssertValid@CObject@@UBEXXZ
	DD	FLAT:?Dump@CObject@@UBEXAAVCDumpContext@@@Z
	DD	FLAT:?OnCmdMsg@CDialog@@UAEHIHPAXPAUAFX_CMDHANDLERINFO@@@Z
	DD	FLAT:?OnFinalRelease@CWnd@@UAEXXZ
	DD	FLAT:?IsInvokeAllowed@CCmdTarget@@UAEHJ@Z
	DD	FLAT:?GetDispatchIID@CCmdTarget@@UAEHPAU_GUID@@@Z
	DD	FLAT:?GetTypeInfoCount@CCmdTarget@@UAEIXZ
	DD	FLAT:?GetTypeLibCache@CCmdTarget@@UAEPAVCTypeLibCache@@XZ
	DD	FLAT:?GetTypeLib@CCmdTarget@@UAEJKPAPAUITypeLib@@@Z
	DD	FLAT:?GetMessageMap@CJongStatusInTab@@MBEPBUAFX_MSGMAP@@XZ
	DD	FLAT:?GetCommandMap@CCmdTarget@@MBEPBUAFX_OLECMDMAP@@XZ
	DD	FLAT:?GetDispatchMap@CCmdTarget@@MBEPBUAFX_DISPMAP@@XZ
	DD	FLAT:?GetConnectionMap@CCmdTarget@@MBEPBUAFX_CONNECTIONMAP@@XZ
	DD	FLAT:?GetInterfaceMap@CWnd@@MBEPBUAFX_INTERFACEMAP@@XZ
	DD	FLAT:?GetEventSinkMap@CCmdTarget@@MBEPBUAFX_EVENTSINKMAP@@XZ
	DD	FLAT:?OnCreateAggregates@CCmdTarget@@UAEHXZ
	DD	FLAT:?GetInterfaceHook@CCmdTarget@@UAEPAUIUnknown@@PBX@Z
	DD	FLAT:?GetExtraConnectionPoints@CCmdTarget@@MAEHPAVCPtrArray@@@Z
	DD	FLAT:?GetConnectionHook@CCmdTarget@@MAEPAUIConnectionPoint@@ABU_GUID@@@Z
	DD	FLAT:?PreSubclassWindow@CWnd@@UAEXXZ
	DD	FLAT:?Create@CWnd@@UAEHPBD0KABUtagRECT@@PAV1@IPAUCCreateContext@@@Z
	DD	FLAT:?CreateEx@CWnd@@UAEHKPBD0KABUtagRECT@@PAV1@IPAX@Z
	DD	FLAT:?CreateEx@CWnd@@UAEHKPBD0KHHHHPAUHWND__@@PAUHMENU__@@PAX@Z
	DD	FLAT:?DestroyWindow@CWnd@@UAEHXZ
	DD	FLAT:?PreCreateWindow@CWnd@@UAEHAAUtagCREATESTRUCTA@@@Z
	DD	FLAT:?CalcWindowRect@CWnd@@UAEXPAUtagRECT@@I@Z
	DD	FLAT:?GetMenu@CWnd@@UBEPAVCMenu@@XZ
	DD	FLAT:?SetMenu@CWnd@@UAEHPAVCMenu@@@Z
	DD	FLAT:?OnToolHitTest@CWnd@@UBEHVCPoint@@PAUtagTOOLINFOA@@@Z
	DD	FLAT:?GetScrollBarCtrl@CWnd@@UBEPAVCScrollBar@@H@Z
	DD	FLAT:?WinHelpA@CWnd@@UAEXKI@Z
	DD	FLAT:?HtmlHelpA@CWnd@@UAEXKI@Z
	DD	FLAT:?WinHelpInternal@CWnd@@UAEXKI@Z
	DD	FLAT:?ContinueModal@CWnd@@UAEHXZ
	DD	FLAT:?EndModalLoop@CWnd@@UAEXH@Z
	DD	FLAT:?OnDrawIconicThumbnailOrLivePreview@CWnd@@UAEXAAVCDC@@VCRect@@VCSize@@HAAH@Z
	DD	FLAT:?EnsureStdObj@CWnd@@UAEJXZ
	DD	FLAT:?get_accParent@CWnd@@UAEJPAPAUIDispatch@@@Z
	DD	FLAT:?get_accChildCount@CWnd@@UAEJPAJ@Z
	DD	FLAT:?get_accChild@CWnd@@UAEJUtagVARIANT@@PAPAUIDispatch@@@Z
	DD	FLAT:?get_accName@CWnd@@UAEJUtagVARIANT@@PAPA_W@Z
	DD	FLAT:?get_accValue@CWnd@@UAEJUtagVARIANT@@PAPA_W@Z
	DD	FLAT:?get_accDescription@CWnd@@UAEJUtagVARIANT@@PAPA_W@Z
	DD	FLAT:?get_accRole@CWnd@@UAEJUtagVARIANT@@PAU2@@Z
	DD	FLAT:?get_accState@CWnd@@UAEJUtagVARIANT@@PAU2@@Z
	DD	FLAT:?get_accHelp@CWnd@@UAEJUtagVARIANT@@PAPA_W@Z
	DD	FLAT:?get_accHelpTopic@CWnd@@UAEJPAPA_WUtagVARIANT@@PAJ@Z
	DD	FLAT:?get_accKeyboardShortcut@CWnd@@UAEJUtagVARIANT@@PAPA_W@Z
	DD	FLAT:?get_accFocus@CWnd@@UAEJPAUtagVARIANT@@@Z
	DD	FLAT:?get_accSelection@CWnd@@UAEJPAUtagVARIANT@@@Z
	DD	FLAT:?get_accDefaultAction@CWnd@@UAEJUtagVARIANT@@PAPA_W@Z
	DD	FLAT:?accSelect@CWnd@@UAEJJUtagVARIANT@@@Z
	DD	FLAT:?accLocation@CWnd@@UAEJPAJ000UtagVARIANT@@@Z
	DD	FLAT:?accNavigate@CWnd@@UAEJJUtagVARIANT@@PAU2@@Z
	DD	FLAT:?accHitTest@CWnd@@UAEJJJPAUtagVARIANT@@@Z
	DD	FLAT:?accDoDefaultAction@CWnd@@UAEJUtagVARIANT@@@Z
	DD	FLAT:?put_accName@CWnd@@UAEJUtagVARIANT@@PA_W@Z
	DD	FLAT:?put_accValue@CWnd@@UAEJUtagVARIANT@@PA_W@Z
	DD	FLAT:?SetProxy@CWnd@@UAEJPAUIAccessibleProxy@@@Z
	DD	FLAT:?CreateAccessibleProxy@CWnd@@UAEJIJPAJ@Z
	DD	FLAT:?OnCommand@CWnd@@MAEHIJ@Z
	DD	FLAT:?OnNotify@CWnd@@MAEHIJPAJ@Z
	DD	FLAT:?GetSuperWndProcAddr@CWnd@@MAEPAP6GJPAUHWND__@@IIJ@ZXZ
	DD	FLAT:?DoDataExchange@CJongStatusInTab@@MAEXPAVCDataExchange@@@Z
	DD	FLAT:?BeginModalState@CWnd@@UAEXXZ
	DD	FLAT:?EndModalState@CWnd@@UAEXXZ
	DD	FLAT:?PreTranslateMessage@CJongStatusInTab@@MAEHPAUtagMSG@@@Z
	DD	FLAT:?OnAmbientProperty@CWnd@@UAEHPAVCOleControlSite@@JPAUtagVARIANT@@@Z
	DD	FLAT:?WindowProc@CWnd@@MAEJIIJ@Z
	DD	FLAT:?OnWndMsg@CWnd@@MAEHIIJPAJ@Z
	DD	FLAT:?DefWindowProcA@CWnd@@MAEJIIJ@Z
	DD	FLAT:?PostNcDestroy@CWnd@@MAEXXZ
	DD	FLAT:?OnChildNotify@CWnd@@MAEHIIJPAJ@Z
	DD	FLAT:?OnTouchInputs@CWnd@@MAEHIPAUtagTOUCHINPUT@@@Z
	DD	FLAT:?OnTouchInput@CWnd@@MAEHVCPoint@@HHPAUtagTOUCHINPUT@@@Z
	DD	FLAT:?GetGestureStatus@CWnd@@MAEKVCPoint@@@Z
	DD	FLAT:?OnGestureZoom@CWnd@@MAEHVCPoint@@J@Z
	DD	FLAT:?OnGesturePan@CWnd@@MAEHVCPoint@@0@Z
	DD	FLAT:?OnGestureRotate@CWnd@@MAEHVCPoint@@N@Z
	DD	FLAT:?OnGestureTwoFingerTap@CWnd@@MAEHVCPoint@@@Z
	DD	FLAT:?OnGesturePressAndTap@CWnd@@MAEHVCPoint@@J@Z
	DD	FLAT:?ResizeDynamicLayout@CWnd@@MAEXXZ
	DD	FLAT:?CheckAutoCenter@CDialog@@UAEHXZ
	DD	FLAT:?IsFrameWnd@CWnd@@UBEHXZ
	DD	FLAT:?CreateControlContainer@CWnd@@MAEHPAPAVCOleControlContainer@@@Z
	DD	FLAT:?CreateControlSite@CWnd@@MAEHPAVCOleControlContainer@@PAPAVCOleControlSite@@IABU_GUID@@@Z
	DD	FLAT:?SetOccDialogInfo@CDialog@@MAEHPAU_AFX_OCC_DIALOG_INFO@@@Z
	DD	FLAT:?GetOccDialogInfo@CDialog@@MAEPAU_AFX_OCC_DIALOG_INFO@@XZ
	DD	FLAT:?Create@CRscDlg@@UAEHIPAVCWnd@@@Z
	DD	FLAT:?Create@CDialog@@UAEHPBDPAVCWnd@@@Z
	DD	FLAT:?CreateIndirect@CDialog@@UAEHPAXPAVCWnd@@@Z
	DD	FLAT:?CreateIndirect@CDialog@@UAEHPBUDLGTEMPLATE@@PAVCWnd@@PAX@Z
	DD	FLAT:?DoModal@CRscDlg@@UAEHXZ
	DD	FLAT:?OnInitDialog@CJongStatusInTab@@MAEHXZ
	DD	FLAT:?OnSetFont@CDialog@@UAEXPAVCFont@@@Z
	DD	FLAT:?OnOK@CDialog@@MAEXXZ
	DD	FLAT:?OnCancel@CDialog@@MAEXXZ
	DD	FLAT:?PreInitDialog@CDialog@@MAEXXZ
CONST	ENDS
;	COMDAT ??_R2CDialog@@8
rdata$r	SEGMENT
??_R2CDialog@@8 DD FLAT:??_R1A@?0A@EA@CDialog@@8	; CDialog::`RTTI Base Class Array'
	DD	FLAT:??_R1A@?0A@EA@CWnd@@8
	DD	FLAT:??_R1A@?0A@EA@CCmdTarget@@8
	DD	FLAT:??_R1A@?0A@EA@CObject@@8
rdata$r	ENDS
;	COMDAT ??_R3CDialog@@8
rdata$r	SEGMENT
??_R3CDialog@@8 DD 00H					; CDialog::`RTTI Class Hierarchy Descriptor'
	DD	00H
	DD	04H
	DD	FLAT:??_R2CDialog@@8
rdata$r	ENDS
;	COMDAT ??_R0?AVCDialog@@@8
data$rs	SEGMENT
??_R0?AVCDialog@@@8 DD FLAT:??_7type_info@@6B@		; CDialog `RTTI Type Descriptor'
	DD	00H
	DB	'.?AVCDialog@@', 00H
data$rs	ENDS
;	COMDAT ??_R1A@?0A@EA@CDialog@@8
rdata$r	SEGMENT
??_R1A@?0A@EA@CDialog@@8 DD FLAT:??_R0?AVCDialog@@@8	; CDialog::`RTTI Base Class Descriptor at (0,-1,0,64)'
	DD	03H
	DD	00H
	DD	0ffffffffH
	DD	00H
	DD	040H
	DD	FLAT:??_R3CDialog@@8
rdata$r	ENDS
;	COMDAT ??_R2CCmdTarget@@8
rdata$r	SEGMENT
??_R2CCmdTarget@@8 DD FLAT:??_R1A@?0A@EA@CCmdTarget@@8	; CCmdTarget::`RTTI Base Class Array'
	DD	FLAT:??_R1A@?0A@EA@CObject@@8
rdata$r	ENDS
;	COMDAT ??_R3CCmdTarget@@8
rdata$r	SEGMENT
??_R3CCmdTarget@@8 DD 00H				; CCmdTarget::`RTTI Class Hierarchy Descriptor'
	DD	00H
	DD	02H
	DD	FLAT:??_R2CCmdTarget@@8
rdata$r	ENDS
;	COMDAT ??_R0?AVCCmdTarget@@@8
data$rs	SEGMENT
??_R0?AVCCmdTarget@@@8 DD FLAT:??_7type_info@@6B@	; CCmdTarget `RTTI Type Descriptor'
	DD	00H
	DB	'.?AVCCmdTarget@@', 00H
data$rs	ENDS
;	COMDAT ??_R1A@?0A@EA@CCmdTarget@@8
rdata$r	SEGMENT
??_R1A@?0A@EA@CCmdTarget@@8 DD FLAT:??_R0?AVCCmdTarget@@@8 ; CCmdTarget::`RTTI Base Class Descriptor at (0,-1,0,64)'
	DD	01H
	DD	00H
	DD	0ffffffffH
	DD	00H
	DD	040H
	DD	FLAT:??_R3CCmdTarget@@8
rdata$r	ENDS
;	COMDAT ??_R2CWnd@@8
rdata$r	SEGMENT
??_R2CWnd@@8 DD	FLAT:??_R1A@?0A@EA@CWnd@@8		; CWnd::`RTTI Base Class Array'
	DD	FLAT:??_R1A@?0A@EA@CCmdTarget@@8
	DD	FLAT:??_R1A@?0A@EA@CObject@@8
rdata$r	ENDS
;	COMDAT ??_R3CWnd@@8
rdata$r	SEGMENT
??_R3CWnd@@8 DD	00H					; CWnd::`RTTI Class Hierarchy Descriptor'
	DD	00H
	DD	03H
	DD	FLAT:??_R2CWnd@@8
rdata$r	ENDS
;	COMDAT ??_R0?AVCWnd@@@8
data$rs	SEGMENT
??_R0?AVCWnd@@@8 DD FLAT:??_7type_info@@6B@		; CWnd `RTTI Type Descriptor'
	DD	00H
	DB	'.?AVCWnd@@', 00H
data$rs	ENDS
;	COMDAT ??_R1A@?0A@EA@CWnd@@8
rdata$r	SEGMENT
??_R1A@?0A@EA@CWnd@@8 DD FLAT:??_R0?AVCWnd@@@8		; CWnd::`RTTI Base Class Descriptor at (0,-1,0,64)'
	DD	02H
	DD	00H
	DD	0ffffffffH
	DD	00H
	DD	040H
	DD	FLAT:??_R3CWnd@@8
rdata$r	ENDS
;	COMDAT ??_R1A@?0A@EA@CBrush@@8
rdata$r	SEGMENT
??_R1A@?0A@EA@CBrush@@8 DD FLAT:??_R0?AVCBrush@@@8	; CBrush::`RTTI Base Class Descriptor at (0,-1,0,64)'
	DD	02H
	DD	00H
	DD	0ffffffffH
	DD	00H
	DD	040H
	DD	FLAT:??_R3CBrush@@8
rdata$r	ENDS
;	COMDAT ??_R2CBrush@@8
rdata$r	SEGMENT
??_R2CBrush@@8 DD FLAT:??_R1A@?0A@EA@CBrush@@8		; CBrush::`RTTI Base Class Array'
	DD	FLAT:??_R1A@?0A@EA@CGdiObject@@8
	DD	FLAT:??_R1A@?0A@EA@CObject@@8
rdata$r	ENDS
;	COMDAT ??_R3CBrush@@8
rdata$r	SEGMENT
??_R3CBrush@@8 DD 00H					; CBrush::`RTTI Class Hierarchy Descriptor'
	DD	00H
	DD	03H
	DD	FLAT:??_R2CBrush@@8
rdata$r	ENDS
;	COMDAT ??_R0?AVCBrush@@@8
data$rs	SEGMENT
??_R0?AVCBrush@@@8 DD FLAT:??_7type_info@@6B@		; CBrush `RTTI Type Descriptor'
	DD	00H
	DB	'.?AVCBrush@@', 00H
data$rs	ENDS
;	COMDAT ??_R4CBrush@@6B@
rdata$r	SEGMENT
??_R4CBrush@@6B@ DD 00H					; CBrush::`RTTI Complete Object Locator'
	DD	00H
	DD	00H
	DD	FLAT:??_R0?AVCBrush@@@8
	DD	FLAT:??_R3CBrush@@8
rdata$r	ENDS
;	COMDAT ??_R1A@?0A@EA@CGdiObject@@8
rdata$r	SEGMENT
??_R1A@?0A@EA@CGdiObject@@8 DD FLAT:??_R0?AVCGdiObject@@@8 ; CGdiObject::`RTTI Base Class Descriptor at (0,-1,0,64)'
	DD	01H
	DD	00H
	DD	0ffffffffH
	DD	00H
	DD	040H
	DD	FLAT:??_R3CGdiObject@@8
rdata$r	ENDS
;	COMDAT ??_R2CGdiObject@@8
rdata$r	SEGMENT
??_R2CGdiObject@@8 DD FLAT:??_R1A@?0A@EA@CGdiObject@@8	; CGdiObject::`RTTI Base Class Array'
	DD	FLAT:??_R1A@?0A@EA@CObject@@8
rdata$r	ENDS
;	COMDAT ??_R3CGdiObject@@8
rdata$r	SEGMENT
??_R3CGdiObject@@8 DD 00H				; CGdiObject::`RTTI Class Hierarchy Descriptor'
	DD	00H
	DD	02H
	DD	FLAT:??_R2CGdiObject@@8
rdata$r	ENDS
;	COMDAT ??_R0?AVCGdiObject@@@8
data$rs	SEGMENT
??_R0?AVCGdiObject@@@8 DD FLAT:??_7type_info@@6B@	; CGdiObject `RTTI Type Descriptor'
	DD	00H
	DB	'.?AVCGdiObject@@', 00H
data$rs	ENDS
;	COMDAT ??_R4CGdiObject@@6B@
rdata$r	SEGMENT
??_R4CGdiObject@@6B@ DD 00H				; CGdiObject::`RTTI Complete Object Locator'
	DD	00H
	DD	00H
	DD	FLAT:??_R0?AVCGdiObject@@@8
	DD	FLAT:??_R3CGdiObject@@8
rdata$r	ENDS
;	COMDAT ??_R1A@?0A@EA@CObject@@8
rdata$r	SEGMENT
??_R1A@?0A@EA@CObject@@8 DD FLAT:??_R0?AVCObject@@@8	; CObject::`RTTI Base Class Descriptor at (0,-1,0,64)'
	DD	00H
	DD	00H
	DD	0ffffffffH
	DD	00H
	DD	040H
	DD	FLAT:??_R3CObject@@8
rdata$r	ENDS
;	COMDAT ??_R2CObject@@8
rdata$r	SEGMENT
??_R2CObject@@8 DD FLAT:??_R1A@?0A@EA@CObject@@8	; CObject::`RTTI Base Class Array'
rdata$r	ENDS
;	COMDAT ??_R3CObject@@8
rdata$r	SEGMENT
??_R3CObject@@8 DD 00H					; CObject::`RTTI Class Hierarchy Descriptor'
	DD	00H
	DD	01H
	DD	FLAT:??_R2CObject@@8
rdata$r	ENDS
;	COMDAT ??_R0?AVCObject@@@8
data$rs	SEGMENT
??_R0?AVCObject@@@8 DD FLAT:??_7type_info@@6B@		; CObject `RTTI Type Descriptor'
	DD	00H
	DB	'.?AVCObject@@', 00H
data$rs	ENDS
;	COMDAT ??_C@_01GBGANLPD@0@
CONST	SEGMENT
??_C@_01GBGANLPD@0@ DB '0', 00H				; `string'
CONST	ENDS
;	COMDAT ??_C@_0N@OMEMOKLE@?$CFTs?5?$CI?$CFTs?3?$CFd?$CJ@
CONST	SEGMENT
??_C@_0N@OMEMOKLE@?$CFTs?5?$CI?$CFTs?3?$CFd?$CJ@ DB '%Ts (%Ts:%d)', 00H ; `string'
CONST	ENDS
;	COMDAT ??_C@_0BB@HBOOMJBF@?$CFTs?5?$CI?$CFTs?3?$CFd?$CJ?6?$CFTs@
CONST	SEGMENT
??_C@_0BB@HBOOMJBF@?$CFTs?5?$CI?$CFTs?3?$CFd?$CJ?6?$CFTs@ DB '%Ts (%Ts:%d'
	DB	')', 0aH, '%Ts', 00H				; `string'
CONST	ENDS
;	COMDAT ??_C@_0BP@OIEOKIDM@Exception?5thrown?5in?5destructor@
CONST	SEGMENT
??_C@_0BP@OIEOKIDM@Exception?5thrown?5in?5destructor@ DB 'Exception throw'
	DB	'n in destructor', 00H			; `string'
CONST	ENDS
;	COMDAT ??_C@_0HD@JJCHHHNK@C?3?2Program?5Files?5?$CIx86?$CJ?2Microsof@
CONST	SEGMENT
??_C@_0HD@JJCHHHNK@C?3?2Program?5Files?5?$CIx86?$CJ?2Microsof@ DB 'C:\Pro'
	DB	'gram Files (x86)\Microsoft Visual Studio\2019\Community\VC\To'
	DB	'ols\MSVC\14.29.30133\atlmfc\include\afxwin1.inl', 00H ; `string'
CONST	ENDS
;	COMDAT ??_7CBrush@@6B@
CONST	SEGMENT
??_7CBrush@@6B@ DD FLAT:??_R4CBrush@@6B@		; CBrush::`vftable'
	DD	FLAT:?GetRuntimeClass@CBrush@@UBEPAUCRuntimeClass@@XZ
	DD	FLAT:??_ECBrush@@UAEPAXI@Z
	DD	FLAT:?Serialize@CObject@@UAEXAAVCArchive@@@Z
	DD	FLAT:?AssertValid@CObject@@UBEXXZ
	DD	FLAT:?Dump@CObject@@UBEXAAVCDumpContext@@@Z
CONST	ENDS
;	COMDAT ??_7CGdiObject@@6B@
CONST	SEGMENT
??_7CGdiObject@@6B@ DD FLAT:??_R4CGdiObject@@6B@	; CGdiObject::`vftable'
	DD	FLAT:?GetRuntimeClass@CGdiObject@@UBEPAUCRuntimeClass@@XZ
	DD	FLAT:??_ECGdiObject@@UAEPAXI@Z
	DD	FLAT:?Serialize@CObject@@UAEXAAVCArchive@@@Z
	DD	FLAT:?AssertValid@CObject@@UBEXXZ
	DD	FLAT:?Dump@CObject@@UBEXAAVCDumpContext@@@Z
CONST	ENDS
;	COMDAT ??_C@_00CNPNBAHC@@
CONST	SEGMENT
??_C@_00CNPNBAHC@@ DB 00H				; `string'
CONST	ENDS
;	COMDAT ??_C@_02DPKJAMEF@?$CFd@
CONST	SEGMENT
??_C@_02DPKJAMEF@?$CFd@ DB '%d', 00H			; `string'
CONST	ENDS
;	COMDAT ??_R0PAVCException@@@8
data$r	SEGMENT
??_R0PAVCException@@@8 DD FLAT:??_7type_info@@6B@	; CException * `RTTI Type Descriptor'
	DD	00H
	DB	'.PAVCException@@', 00H
data$r	ENDS
;	COMDAT xdata$x
xdata$x	SEGMENT
__ehfuncinfo$?UpdateInCtrl@CJongStatusInTab@@AAEXXZ DD 019930522H
	DD	07H
	DD	FLAT:__unwindtable$?UpdateInCtrl@CJongStatusInTab@@AAEXXZ
	DD	2 DUP(00H)
	DD	2 DUP(00H)
	DD	00H
	DD	01H
__unwindtable$?UpdateInCtrl@CJongStatusInTab@@AAEXXZ DD 0ffffffffH
	DD	FLAT:__unwindfunclet$?UpdateInCtrl@CJongStatusInTab@@AAEXXZ$0
	DD	00H
	DD	FLAT:__unwindfunclet$?UpdateInCtrl@CJongStatusInTab@@AAEXXZ$1
	DD	01H
	DD	FLAT:__unwindfunclet$?UpdateInCtrl@CJongStatusInTab@@AAEXXZ$2
	DD	02H
	DD	FLAT:__unwindfunclet$?UpdateInCtrl@CJongStatusInTab@@AAEXXZ$3
	DD	03H
	DD	FLAT:__unwindfunclet$?UpdateInCtrl@CJongStatusInTab@@AAEXXZ$4
	DD	04H
	DD	FLAT:__unwindfunclet$?UpdateInCtrl@CJongStatusInTab@@AAEXXZ$5
	DD	05H
	DD	FLAT:__unwindfunclet$?UpdateInCtrl@CJongStatusInTab@@AAEXXZ$6
xdata$x	ENDS
;	COMDAT xdata$x
xdata$x	SEGMENT
__ehfuncinfo$??0CJongStatusInTab@@QAE@PAVCWnd@@@Z DD 019930522H
	DD	0eH
	DD	FLAT:__unwindtable$??0CJongStatusInTab@@QAE@PAVCWnd@@@Z
	DD	2 DUP(00H)
	DD	2 DUP(00H)
	DD	00H
	DD	01H
__unwindtable$??0CJongStatusInTab@@QAE@PAVCWnd@@@Z DD 0ffffffffH
	DD	FLAT:__unwindfunclet$??0CJongStatusInTab@@QAE@PAVCWnd@@@Z$0
	DD	00H
	DD	FLAT:__unwindfunclet$??0CJongStatusInTab@@QAE@PAVCWnd@@@Z$1
	DD	01H
	DD	FLAT:__unwindfunclet$??0CJongStatusInTab@@QAE@PAVCWnd@@@Z$2
	DD	02H
	DD	FLAT:__unwindfunclet$??0CJongStatusInTab@@QAE@PAVCWnd@@@Z$3
	DD	03H
	DD	FLAT:__unwindfunclet$??0CJongStatusInTab@@QAE@PAVCWnd@@@Z$4
	DD	04H
	DD	FLAT:__unwindfunclet$??0CJongStatusInTab@@QAE@PAVCWnd@@@Z$5
	DD	05H
	DD	FLAT:__unwindfunclet$??0CJongStatusInTab@@QAE@PAVCWnd@@@Z$6
	DD	06H
	DD	FLAT:__unwindfunclet$??0CJongStatusInTab@@QAE@PAVCWnd@@@Z$7
	DD	07H
	DD	FLAT:__unwindfunclet$??0CJongStatusInTab@@QAE@PAVCWnd@@@Z$8
	DD	08H
	DD	FLAT:__unwindfunclet$??0CJongStatusInTab@@QAE@PAVCWnd@@@Z$9
	DD	09H
	DD	FLAT:__unwindfunclet$??0CJongStatusInTab@@QAE@PAVCWnd@@@Z$10
	DD	0aH
	DD	FLAT:__unwindfunclet$??0CJongStatusInTab@@QAE@PAVCWnd@@@Z$11
	DD	0bH
	DD	FLAT:__unwindfunclet$??0CJongStatusInTab@@QAE@PAVCWnd@@@Z$12
	DD	0cH
	DD	FLAT:__unwindfunclet$??0CJongStatusInTab@@QAE@PAVCWnd@@@Z$13
xdata$x	ENDS
;	COMDAT xdata$x
xdata$x	SEGMENT
__catchsym$??1CGdiObject@@UAE@XZ$3 DD 00H
	DD	FLAT:??_R0PAVCException@@@8
	DD	0fffffde4H
	DD	FLAT:__catch$??1CGdiObject@@UAE@XZ$0
__tryblocktable$??1CGdiObject@@UAE@XZ DD 00H
	DD	00H
	DD	02H
	DD	01H
	DD	FLAT:__catchsym$??1CGdiObject@@UAE@XZ$3
__unwindtable$??1CGdiObject@@UAE@XZ DD 0ffffffffH
	DD	00H
	DD	0ffffffffH
	DD	00H
	DD	01H
	DD	FLAT:__unwindfunclet$??1CGdiObject@@UAE@XZ$2
__ehfuncinfo$??1CGdiObject@@UAE@XZ DD 019930522H
	DD	03H
	DD	FLAT:__unwindtable$??1CGdiObject@@UAE@XZ
	DD	01H
	DD	FLAT:__tryblocktable$??1CGdiObject@@UAE@XZ
	DD	2 DUP(00H)
	DD	00H
	DD	05H
xdata$x	ENDS
CRT$XCU	SEGMENT
?RMSG_SETQUERYOPT$initializer$@@3P6AXXZA DD FLAT:??__ERMSG_SETQUERYOPT@@YAXXZ ; RMSG_SETQUERYOPT$initializer$
CRT$XCU	ENDS
CRT$XCU	SEGMENT
?RMSG_CHARTMAIN$initializer$@@3P6AXXZA DD FLAT:??__ERMSG_CHARTMAIN@@YAXXZ ; RMSG_CHARTMAIN$initializer$
CRT$XCU	ENDS
CRT$XCU	SEGMENT
?RMS_ANALYSIS_FUNC$initializer$@@3P6AXXZA DD FLAT:??__ERMS_ANALYSIS_FUNC@@YAXXZ ; RMS_ANALYSIS_FUNC$initializer$
CRT$XCU	ENDS
CRT$XCU	SEGMENT
?RMSG_GET_USERID$initializer$@@3P6AXXZA DD FLAT:??__ERMSG_GET_USERID@@YAXXZ ; RMSG_GET_USERID$initializer$
CRT$XCU	ENDS
CRT$XCU	SEGMENT
?RMSG_CHANGE_SKINCOLOR$initializer$@@3P6AXXZA DD FLAT:??__ERMSG_CHANGE_SKINCOLOR@@YAXXZ ; RMSG_CHANGE_SKINCOLOR$initializer$
CRT$XCU	ENDS
CRT$XCU	SEGMENT
?RMSG_GET_SKINCOLOR$initializer$@@3P6AXXZA DD FLAT:??__ERMSG_GET_SKINCOLOR@@YAXXZ ; RMSG_GET_SKINCOLOR$initializer$
CRT$XCU	ENDS
CRT$XCU	SEGMENT
?RMSG_CHANGEVERTSCALETYPE$initializer$@@3P6AXXZA DD FLAT:??__ERMSG_CHANGEVERTSCALETYPE@@YAXXZ ; RMSG_CHANGEVERTSCALETYPE$initializer$
CRT$XCU	ENDS
CRT$XCU	SEGMENT
?RMSG_CHANGE_CROSSLINE$initializer$@@3P6AXXZA DD FLAT:??__ERMSG_CHANGE_CROSSLINE@@YAXXZ ; RMSG_CHANGE_CROSSLINE$initializer$
CRT$XCU	ENDS
CRT$XCU	SEGMENT
?RMSG_ADD_PLATFORM_MENU$initializer$@@3P6AXXZA DD FLAT:??__ERMSG_ADD_PLATFORM_MENU@@YAXXZ ; RMSG_ADD_PLATFORM_MENU$initializer$
CRT$XCU	ENDS
CRT$XCU	SEGMENT
?RMSG_SETINITIALCHARTDATA$initializer$@@3P6AXXZA DD FLAT:??__ERMSG_SETINITIALCHARTDATA@@YAXXZ ; RMSG_SETINITIALCHARTDATA$initializer$
CRT$XCU	ENDS
CRT$XCU	SEGMENT
?RMSG_GETINFO$initializer$@@3P6AXXZA DD FLAT:??__ERMSG_GETINFO@@YAXXZ ; RMSG_GETINFO$initializer$
CRT$XCU	ENDS
CRT$XCU	SEGMENT
?RMSG_SETINFO$initializer$@@3P6AXXZA DD FLAT:??__ERMSG_SETINFO@@YAXXZ ; RMSG_SETINFO$initializer$
CRT$XCU	ENDS
; Function compile flags: /Ogtp
; File D:\git\src\IBK\IBK_DRFN\ProjSrc\SrcDrfn\Chart\MULTICHART\define\ChartMsgDef.h
;	COMDAT ??__ERMSG_SETINFO@@YAXXZ
text$di	SEGMENT
??__ERMSG_SETINFO@@YAXXZ PROC				; `dynamic initializer for 'RMSG_SETINFO'', COMDAT

; 238  : const UINT RMSG_SETINFO = ::RegisterWindowMessage(_T("RMSG_SETINFO"));

  00000	68 00 00 00 00	 push	 OFFSET ??_C@_0N@HABLPHJG@RMSG_SETINFO@
  00005	ff 15 00 00 00
	00		 call	 DWORD PTR __imp__RegisterWindowMessageA@4
  0000b	a3 00 00 00 00	 mov	 DWORD PTR ?RMSG_SETINFO@@3IB, eax
  00010	c3		 ret	 0
??__ERMSG_SETINFO@@YAXXZ ENDP				; `dynamic initializer for 'RMSG_SETINFO''
text$di	ENDS
; Function compile flags: /Ogtp
; File D:\git\src\IBK\IBK_DRFN\ProjSrc\SrcDrfn\Chart\MULTICHART\define\ChartMsgDef.h
;	COMDAT ??__ERMSG_GETINFO@@YAXXZ
text$di	SEGMENT
??__ERMSG_GETINFO@@YAXXZ PROC				; `dynamic initializer for 'RMSG_GETINFO'', COMDAT

; 237  : const UINT RMSG_GETINFO = ::RegisterWindowMessage(_T("RMSG_GETINFO"));

  00000	68 00 00 00 00	 push	 OFFSET ??_C@_0N@IIOKMIEH@RMSG_GETINFO@
  00005	ff 15 00 00 00
	00		 call	 DWORD PTR __imp__RegisterWindowMessageA@4
  0000b	a3 00 00 00 00	 mov	 DWORD PTR ?RMSG_GETINFO@@3IB, eax
  00010	c3		 ret	 0
??__ERMSG_GETINFO@@YAXXZ ENDP				; `dynamic initializer for 'RMSG_GETINFO''
text$di	ENDS
; Function compile flags: /Ogtp
; File D:\git\src\IBK\IBK_DRFN\ProjSrc\SrcDrfn\Chart\MULTICHART\define\ChartMsgDef.h
;	COMDAT ??__ERMSG_SETINITIALCHARTDATA@@YAXXZ
text$di	SEGMENT
??__ERMSG_SETINITIALCHARTDATA@@YAXXZ PROC		; `dynamic initializer for 'RMSG_SETINITIALCHARTDATA'', COMDAT

; 235  : const UINT RMSG_SETINITIALCHARTDATA = ::RegisterWindowMessage(_T("RMSG_SETINITIALCHARTDATA"));

  00000	68 00 00 00 00	 push	 OFFSET ??_C@_0BJ@OGNAJHHI@RMSG_SETINITIALCHARTDATA@
  00005	ff 15 00 00 00
	00		 call	 DWORD PTR __imp__RegisterWindowMessageA@4
  0000b	a3 00 00 00 00	 mov	 DWORD PTR ?RMSG_SETINITIALCHARTDATA@@3IB, eax
  00010	c3		 ret	 0
??__ERMSG_SETINITIALCHARTDATA@@YAXXZ ENDP		; `dynamic initializer for 'RMSG_SETINITIALCHARTDATA''
text$di	ENDS
; Function compile flags: /Ogtp
; File D:\git\src\IBK\IBK_DRFN\ProjSrc\SrcDrfn\Chart\MULTICHART\define\ChartMsgDef.h
;	COMDAT ??__ERMSG_ADD_PLATFORM_MENU@@YAXXZ
text$di	SEGMENT
??__ERMSG_ADD_PLATFORM_MENU@@YAXXZ PROC			; `dynamic initializer for 'RMSG_ADD_PLATFORM_MENU'', COMDAT

; 233  : const UINT RMSG_ADD_PLATFORM_MENU = ::RegisterWindowMessage(_T("RMSG_ADD_PLATFORM_MENU"));

  00000	68 00 00 00 00	 push	 OFFSET ??_C@_0BH@IFDMIMBP@RMSG_ADD_PLATFORM_MENU@
  00005	ff 15 00 00 00
	00		 call	 DWORD PTR __imp__RegisterWindowMessageA@4
  0000b	a3 00 00 00 00	 mov	 DWORD PTR ?RMSG_ADD_PLATFORM_MENU@@3IB, eax
  00010	c3		 ret	 0
??__ERMSG_ADD_PLATFORM_MENU@@YAXXZ ENDP			; `dynamic initializer for 'RMSG_ADD_PLATFORM_MENU''
text$di	ENDS
; Function compile flags: /Ogtp
; File D:\git\src\IBK\IBK_DRFN\ProjSrc\SrcDrfn\Chart\MULTICHART\define\ChartMsgDef.h
;	COMDAT ??__ERMSG_CHANGE_CROSSLINE@@YAXXZ
text$di	SEGMENT
??__ERMSG_CHANGE_CROSSLINE@@YAXXZ PROC			; `dynamic initializer for 'RMSG_CHANGE_CROSSLINE'', COMDAT

; 231  : const UINT RMSG_CHANGE_CROSSLINE = ::RegisterWindowMessage(_T("RMSG_CHANGE_CROSSLINE"));

  00000	68 00 00 00 00	 push	 OFFSET ??_C@_0BG@LNLCJKPF@RMSG_CHANGE_CROSSLINE@
  00005	ff 15 00 00 00
	00		 call	 DWORD PTR __imp__RegisterWindowMessageA@4
  0000b	a3 00 00 00 00	 mov	 DWORD PTR ?RMSG_CHANGE_CROSSLINE@@3IB, eax
  00010	c3		 ret	 0
??__ERMSG_CHANGE_CROSSLINE@@YAXXZ ENDP			; `dynamic initializer for 'RMSG_CHANGE_CROSSLINE''
text$di	ENDS
; Function compile flags: /Ogtp
; File D:\git\src\IBK\IBK_DRFN\ProjSrc\SrcDrfn\Chart\MULTICHART\define\ChartMsgDef.h
;	COMDAT ??__ERMSG_CHANGEVERTSCALETYPE@@YAXXZ
text$di	SEGMENT
??__ERMSG_CHANGEVERTSCALETYPE@@YAXXZ PROC		; `dynamic initializer for 'RMSG_CHANGEVERTSCALETYPE'', COMDAT

; 229  : const UINT RMSG_CHANGEVERTSCALETYPE = ::RegisterWindowMessage(_T("RMSG_CHANGEVERTSCALETYPE"));

  00000	68 00 00 00 00	 push	 OFFSET ??_C@_0BJ@JLKHIBIK@RMSG_CHANGEVERTSCALETYPE@
  00005	ff 15 00 00 00
	00		 call	 DWORD PTR __imp__RegisterWindowMessageA@4
  0000b	a3 00 00 00 00	 mov	 DWORD PTR ?RMSG_CHANGEVERTSCALETYPE@@3IB, eax
  00010	c3		 ret	 0
??__ERMSG_CHANGEVERTSCALETYPE@@YAXXZ ENDP		; `dynamic initializer for 'RMSG_CHANGEVERTSCALETYPE''
text$di	ENDS
; Function compile flags: /Ogtp
; File D:\git\src\IBK\IBK_DRFN\ProjSrc\SrcDrfn\Chart\MULTICHART\define\ChartMsgDef.h
;	COMDAT ??__ERMSG_GET_SKINCOLOR@@YAXXZ
text$di	SEGMENT
??__ERMSG_GET_SKINCOLOR@@YAXXZ PROC			; `dynamic initializer for 'RMSG_GET_SKINCOLOR'', COMDAT

; 226  : const UINT RMSG_GET_SKINCOLOR = ::RegisterWindowMessage(_T("RMSG_GET_SKINCOLOR"));

  00000	68 00 00 00 00	 push	 OFFSET ??_C@_0BD@FLDNDDHK@RMSG_GET_SKINCOLOR@
  00005	ff 15 00 00 00
	00		 call	 DWORD PTR __imp__RegisterWindowMessageA@4
  0000b	a3 00 00 00 00	 mov	 DWORD PTR ?RMSG_GET_SKINCOLOR@@3IB, eax
  00010	c3		 ret	 0
??__ERMSG_GET_SKINCOLOR@@YAXXZ ENDP			; `dynamic initializer for 'RMSG_GET_SKINCOLOR''
text$di	ENDS
; Function compile flags: /Ogtp
; File D:\git\src\IBK\IBK_DRFN\ProjSrc\SrcDrfn\Chart\MULTICHART\define\ChartMsgDef.h
;	COMDAT ??__ERMSG_CHANGE_SKINCOLOR@@YAXXZ
text$di	SEGMENT
??__ERMSG_CHANGE_SKINCOLOR@@YAXXZ PROC			; `dynamic initializer for 'RMSG_CHANGE_SKINCOLOR'', COMDAT

; 225  : const UINT RMSG_CHANGE_SKINCOLOR = ::RegisterWindowMessage(_T("RMSG_CHANGE_SKINCOLOR"));

  00000	68 00 00 00 00	 push	 OFFSET ??_C@_0BG@CNPAHNGG@RMSG_CHANGE_SKINCOLOR@
  00005	ff 15 00 00 00
	00		 call	 DWORD PTR __imp__RegisterWindowMessageA@4
  0000b	a3 00 00 00 00	 mov	 DWORD PTR ?RMSG_CHANGE_SKINCOLOR@@3IB, eax
  00010	c3		 ret	 0
??__ERMSG_CHANGE_SKINCOLOR@@YAXXZ ENDP			; `dynamic initializer for 'RMSG_CHANGE_SKINCOLOR''
text$di	ENDS
; Function compile flags: /Ogtp
; File D:\git\src\IBK\IBK_DRFN\ProjSrc\SrcDrfn\Chart\MULTICHART\define\ChartMsgDef.h
;	COMDAT ??__ERMSG_GET_USERID@@YAXXZ
text$di	SEGMENT
??__ERMSG_GET_USERID@@YAXXZ PROC			; `dynamic initializer for 'RMSG_GET_USERID'', COMDAT

; 215  : const UINT RMSG_GET_USERID = ::RegisterWindowMessage(_T("RMSG_GET_USERID"));	// User ID ¾ò±â

  00000	68 00 00 00 00	 push	 OFFSET ??_C@_0BA@HKNFENJL@RMSG_GET_USERID@
  00005	ff 15 00 00 00
	00		 call	 DWORD PTR __imp__RegisterWindowMessageA@4
  0000b	a3 00 00 00 00	 mov	 DWORD PTR ?RMSG_GET_USERID@@3IB, eax
  00010	c3		 ret	 0
??__ERMSG_GET_USERID@@YAXXZ ENDP			; `dynamic initializer for 'RMSG_GET_USERID''
text$di	ENDS
; Function compile flags: /Ogtp
; File D:\git\src\IBK\IBK_DRFN\ProjSrc\SrcDrfn\Chart\MULTICHART\define\ChartMsgDef.h
;	COMDAT ??__ERMS_ANALYSIS_FUNC@@YAXXZ
text$di	SEGMENT
??__ERMS_ANALYSIS_FUNC@@YAXXZ PROC			; `dynamic initializer for 'RMS_ANALYSIS_FUNC'', COMDAT

; 211  : const UINT RMS_ANALYSIS_FUNC	= ::RegisterWindowMessage(_T("RMS_ANALYSIS_FUNC"));

  00000	68 00 00 00 00	 push	 OFFSET ??_C@_0BC@MMPGLPDH@RMS_ANALYSIS_FUNC@
  00005	ff 15 00 00 00
	00		 call	 DWORD PTR __imp__RegisterWindowMessageA@4
  0000b	a3 00 00 00 00	 mov	 DWORD PTR ?RMS_ANALYSIS_FUNC@@3IB, eax
  00010	c3		 ret	 0
??__ERMS_ANALYSIS_FUNC@@YAXXZ ENDP			; `dynamic initializer for 'RMS_ANALYSIS_FUNC''
text$di	ENDS
; Function compile flags: /Ogtp
; File D:\git\src\IBK\IBK_DRFN\ProjSrc\SrcDrfn\Chart\MULTICHART\define\ChartMsgDef.h
;	COMDAT ??__ERMSG_CHARTMAIN@@YAXXZ
text$di	SEGMENT
??__ERMSG_CHARTMAIN@@YAXXZ PROC				; `dynamic initializer for 'RMSG_CHARTMAIN'', COMDAT

; 208  : const UINT RMSG_CHARTMAIN		= ::RegisterWindowMessage(_T("RMSG_CHARTMAIN"));

  00000	68 00 00 00 00	 push	 OFFSET ??_C@_0P@KHFCBIOH@RMSG_CHARTMAIN@
  00005	ff 15 00 00 00
	00		 call	 DWORD PTR __imp__RegisterWindowMessageA@4
  0000b	a3 00 00 00 00	 mov	 DWORD PTR ?RMSG_CHARTMAIN@@3IB, eax
  00010	c3		 ret	 0
??__ERMSG_CHARTMAIN@@YAXXZ ENDP				; `dynamic initializer for 'RMSG_CHARTMAIN''
text$di	ENDS
; Function compile flags: /Ogtp
; File D:\git\src\IBK\IBK_DRFN\ProjSrc\SrcDrfn\Chart\MULTICHART\define\ChartMsgDef.h
;	COMDAT ??__ERMSG_SETQUERYOPT@@YAXXZ
text$di	SEGMENT
??__ERMSG_SETQUERYOPT@@YAXXZ PROC			; `dynamic initializer for 'RMSG_SETQUERYOPT'', COMDAT

; 183  : const UINT RMSG_SETQUERYOPT = ::RegisterWindowMessage(_T("RMSG_SETQUERYOPT"));

  00000	68 00 00 00 00	 push	 OFFSET ??_C@_0BB@CNOFPEHG@RMSG_SETQUERYOPT@
  00005	ff 15 00 00 00
	00		 call	 DWORD PTR __imp__RegisterWindowMessageA@4
  0000b	a3 00 00 00 00	 mov	 DWORD PTR ?RMSG_SETQUERYOPT@@3IB, eax
  00010	c3		 ret	 0
??__ERMSG_SETQUERYOPT@@YAXXZ ENDP			; `dynamic initializer for 'RMSG_SETQUERYOPT''
text$di	ENDS
; Function compile flags: /Ogtp
; File D:\git\src\IBK\IBK_DRFN\ProjSrc\SrcDrfn\Chart\commontr\TRDefine.h
;	COMDAT ??__ERMSG_GETSIGNAL_REAL@@YAXXZ
text$di	SEGMENT
??__ERMSG_GETSIGNAL_REAL@@YAXXZ PROC			; `dynamic initializer for 'RMSG_GETSIGNAL_REAL'', COMDAT

; 213  : const UINT RMSG_GETSIGNAL_REAL = ::RegisterWindowMessage(_T("RMSG_GETSIGNAL_REAL"));

  00000	68 00 00 00 00	 push	 OFFSET ??_C@_0BE@FJPKENOB@RMSG_GETSIGNAL_REAL@
  00005	ff 15 00 00 00
	00		 call	 DWORD PTR __imp__RegisterWindowMessageA@4
  0000b	a3 00 00 00 00	 mov	 DWORD PTR ?RMSG_GETSIGNAL_REAL@@3IB, eax
  00010	c3		 ret	 0
??__ERMSG_GETSIGNAL_REAL@@YAXXZ ENDP			; `dynamic initializer for 'RMSG_GETSIGNAL_REAL''
text$di	ENDS
; Function compile flags: /Ogtp
; File C:\Program Files (x86)\Microsoft Visual Studio\2019\Community\VC\Tools\MSVC\14.29.30133\atlmfc\include\afxwin1.inl
; File C:\Program Files (x86)\Microsoft Visual Studio\2019\Community\VC\Tools\MSVC\14.29.30133\atlmfc\include\afx.inl
;	COMDAT ??_GCJongStatusInTab@@UAEPAXI@Z
_TEXT	SEGMENT
___flags$ = 8						; size = 4
??_GCJongStatusInTab@@UAEPAXI@Z PROC			; CJongStatusInTab::`scalar deleting destructor', COMDAT
; _this$ = ecx
  00000	55		 push	 ebp
  00001	8b ec		 mov	 ebp, esp
; File C:\Program Files (x86)\Microsoft Visual Studio\2019\Community\VC\Tools\MSVC\14.29.30133\atlmfc\include\afxwin1.inl

; 130  : 	{ }

  00003	56		 push	 esi
  00004	8b f1		 mov	 esi, ecx
  00006	8d 8e c8 04 00
	00		 lea	 ecx, DWORD PTR [esi+1224]
  0000c	e8 00 00 00 00	 call	 ??1CToolTipCtrl@@UAE@XZ	; CToolTipCtrl::~CToolTipCtrl
  00011	8d 8e bc 04 00
	00		 lea	 ecx, DWORD PTR [esi+1212]
  00017	c7 01 00 00 00
	00		 mov	 DWORD PTR [ecx], OFFSET ??_7CBrush@@6B@
  0001d	e8 00 00 00 00	 call	 ??1CGdiObject@@UAE@XZ	; CGdiObject::~CGdiObject
  00022	8d 8e a0 04 00
	00		 lea	 ecx, DWORD PTR [esi+1184]
  00028	c7 01 00 00 00
	00		 mov	 DWORD PTR [ecx], OFFSET ??_7CBrush@@6B@
  0002e	e8 00 00 00 00	 call	 ??1CGdiObject@@UAE@XZ	; CGdiObject::~CGdiObject
  00033	8d 8e 98 04 00
	00		 lea	 ecx, DWORD PTR [esi+1176]
  00039	c7 01 00 00 00
	00		 mov	 DWORD PTR [ecx], OFFSET ??_7CBrush@@6B@
  0003f	e8 00 00 00 00	 call	 ??1CGdiObject@@UAE@XZ	; CGdiObject::~CGdiObject
  00044	8d 8e 90 04 00
	00		 lea	 ecx, DWORD PTR [esi+1168]
  0004a	c7 01 00 00 00
	00		 mov	 DWORD PTR [ecx], OFFSET ??_7CBrush@@6B@
  00050	e8 00 00 00 00	 call	 ??1CGdiObject@@UAE@XZ	; CGdiObject::~CGdiObject
  00055	8d 8e 88 04 00
	00		 lea	 ecx, DWORD PTR [esi+1160]
  0005b	c7 01 00 00 00
	00		 mov	 DWORD PTR [ecx], OFFSET ??_7CBrush@@6B@
  00061	e8 00 00 00 00	 call	 ??1CGdiObject@@UAE@XZ	; CGdiObject::~CGdiObject
  00066	8d 8e 80 04 00
	00		 lea	 ecx, DWORD PTR [esi+1152]
  0006c	c7 01 00 00 00
	00		 mov	 DWORD PTR [ecx], OFFSET ??_7CBrush@@6B@
  00072	e8 00 00 00 00	 call	 ??1CGdiObject@@UAE@XZ	; CGdiObject::~CGdiObject
  00077	8d 8e d8 03 00
	00		 lea	 ecx, DWORD PTR [esi+984]
  0007d	e8 00 00 00 00	 call	 ??1CExStatic@@UAE@XZ	; CExStatic::~CExStatic
  00082	8d 8e 50 03 00
	00		 lea	 ecx, DWORD PTR [esi+848]
  00088	e8 00 00 00 00	 call	 ??1CExStatic@@UAE@XZ	; CExStatic::~CExStatic
  0008d	8d 8e c8 02 00
	00		 lea	 ecx, DWORD PTR [esi+712]
  00093	e8 00 00 00 00	 call	 ??1CExStatic@@UAE@XZ	; CExStatic::~CExStatic
  00098	8d 8e 40 02 00
	00		 lea	 ecx, DWORD PTR [esi+576]
  0009e	e8 00 00 00 00	 call	 ??1CExStatic@@UAE@XZ	; CExStatic::~CExStatic
  000a3	8d 8e b8 01 00
	00		 lea	 ecx, DWORD PTR [esi+440]
  000a9	e8 00 00 00 00	 call	 ??1CExStatic@@UAE@XZ	; CExStatic::~CExStatic
  000ae	8d 8e 30 01 00
	00		 lea	 ecx, DWORD PTR [esi+304]
  000b4	e8 00 00 00 00	 call	 ??1CExStatic@@UAE@XZ	; CExStatic::~CExStatic
  000b9	8d 8e a8 00 00
	00		 lea	 ecx, DWORD PTR [esi+168]
  000bf	e8 00 00 00 00	 call	 ??1CExStatic@@UAE@XZ	; CExStatic::~CExStatic
  000c4	8b ce		 mov	 ecx, esi
  000c6	e8 00 00 00 00	 call	 ??1CDialog@@UAE@XZ	; CDialog::~CDialog
  000cb	8b 45 08	 mov	 eax, DWORD PTR ___flags$[ebp]
  000ce	a8 01		 test	 al, 1
  000d0	74 22		 je	 SHORT $LN33@scalar
  000d2	a8 04		 test	 al, 4
  000d4	75 10		 jne	 SHORT $LN3@scalar
; File C:\Program Files (x86)\Microsoft Visual Studio\2019\Community\VC\Tools\MSVC\14.29.30133\atlmfc\include\afx.inl

; 112  : 	{ ::operator delete(p); }

  000d6	56		 push	 esi
  000d7	e8 00 00 00 00	 call	 ??3@YAXPAX@Z		; operator delete
  000dc	83 c4 04	 add	 esp, 4
  000df	8b c6		 mov	 eax, esi
  000e1	5e		 pop	 esi
  000e2	5d		 pop	 ebp
  000e3	c2 04 00	 ret	 4
$LN3@scalar:
  000e6	68 68 05 00 00	 push	 1384			; 00000568H
  000eb	56		 push	 esi
  000ec	e8 00 00 00 00	 call	 ?__global_delete@@YAXPAXI@Z ; __global_delete
  000f1	83 c4 08	 add	 esp, 8
$LN33@scalar:
  000f4	8b c6		 mov	 eax, esi
  000f6	5e		 pop	 esi
  000f7	5d		 pop	 ebp
  000f8	c2 04 00	 ret	 4
??_GCJongStatusInTab@@UAEPAXI@Z ENDP			; CJongStatusInTab::`scalar deleting destructor'
_TEXT	ENDS
; Function compile flags: /Ogtp
; File D:\git\src\IBK\IBK_DRFN\ProjSrc\SrcDrfn\Chart\MULTICHART\JongStatusInTab.cpp
;	COMDAT ?GetMessageMap@CJongStatusInTab@@MBEPBUAFX_MSGMAP@@XZ
_TEXT	SEGMENT
?GetMessageMap@CJongStatusInTab@@MBEPBUAFX_MSGMAP@@XZ PROC ; CJongStatusInTab::GetMessageMap, COMDAT
; _this$ = ecx

; 60   : BEGIN_MESSAGE_MAP(CJongStatusInTab, CRscDlg)

  00000	b8 00 00 00 00	 mov	 eax, OFFSET ?messageMap@?1??GetThisMessageMap@CJongStatusInTab@@KGPBUAFX_MSGMAP@@XZ@4U3@B
  00005	c3		 ret	 0
?GetMessageMap@CJongStatusInTab@@MBEPBUAFX_MSGMAP@@XZ ENDP ; CJongStatusInTab::GetMessageMap
_TEXT	ENDS
; Function compile flags: /Ogtp
; File D:\git\src\IBK\IBK_DRFN\ProjSrc\SrcDrfn\Chart\MULTICHART\JongStatusInTab.cpp
;	COMDAT ?GetThisMessageMap@CJongStatusInTab@@KGPBUAFX_MSGMAP@@XZ
_TEXT	SEGMENT
?GetThisMessageMap@CJongStatusInTab@@KGPBUAFX_MSGMAP@@XZ PROC ; CJongStatusInTab::GetThisMessageMap, COMDAT

; 61   : 	//{{AFX_MSG_MAP(CJongStatusInTab)
; 62   : 	ON_WM_CTLCOLOR()
; 63   : 	ON_WM_DESTROY()
; 64   : 	//}}AFX_MSG_MAP
; 65   : END_MESSAGE_MAP()

  00000	b8 00 00 00 00	 mov	 eax, OFFSET ?messageMap@?1??GetThisMessageMap@CJongStatusInTab@@KGPBUAFX_MSGMAP@@XZ@4U3@B
  00005	c3		 ret	 0
?GetThisMessageMap@CJongStatusInTab@@KGPBUAFX_MSGMAP@@XZ ENDP ; CJongStatusInTab::GetThisMessageMap
_TEXT	ENDS
; Function compile flags: /Ogtp
; File D:\git\src\IBK\IBK_DRFN\ProjSrc\SrcDrfn\Chart\MULTICHART\JongStatusInTab.cpp
; File C:\Program Files (x86)\Microsoft Visual Studio\2019\Community\VC\Tools\MSVC\14.29.30133\atlmfc\include\afxwin2.inl
; File D:\git\src\IBK\IBK_DRFN\ProjSrc\SrcDrfn\Chart\MULTICHART\JongStatusInTab.cpp
; File C:\Program Files (x86)\Microsoft Visual Studio\2019\Community\VC\Tools\MSVC\14.29.30133\atlmfc\include\afxcmn.inl
; File D:\git\src\IBK\IBK_DRFN\ProjSrc\SrcDrfn\Chart\MULTICHART\JongStatusInTab.cpp
;	COMDAT ?PreTranslateMessage@CJongStatusInTab@@MAEHPAUtagMSG@@@Z
_TEXT	SEGMENT
_pMsg$ = 8						; size = 4
?PreTranslateMessage@CJongStatusInTab@@MAEHPAUtagMSG@@@Z PROC ; CJongStatusInTab::PreTranslateMessage, COMDAT
; _this$ = ecx

; 271  : {

  00000	55		 push	 ebp
  00001	8b ec		 mov	 ebp, esp
  00003	56		 push	 esi
  00004	8b f1		 mov	 esi, ecx

; 272  : 	if(m_ToolTip.GetSafeHwnd())

  00006	8d 86 c8 04 00
	00		 lea	 eax, DWORD PTR [esi+1224]
; File C:\Program Files (x86)\Microsoft Visual Studio\2019\Community\VC\Tools\MSVC\14.29.30133\atlmfc\include\afxwin2.inl

; 25   : 	{ return this == NULL ? NULL : m_hWnd; }

  0000c	85 c0		 test	 eax, eax
  0000e	74 1c		 je	 SHORT $LN2@PreTransla
; File D:\git\src\IBK\IBK_DRFN\ProjSrc\SrcDrfn\Chart\MULTICHART\JongStatusInTab.cpp

; 272  : 	if(m_ToolTip.GetSafeHwnd())

  00010	83 78 20 00	 cmp	 DWORD PTR [eax+32], 0
  00014	74 16		 je	 SHORT $LN2@PreTransla
; File C:\Program Files (x86)\Microsoft Visual Studio\2019\Community\VC\Tools\MSVC\14.29.30133\atlmfc\include\afxcmn.inl

; 429  : 	{ ASSERT(::IsWindow(m_hWnd));  ::SendMessage(m_hWnd, TTM_RELAYEVENT, 0, (LPARAM)lpMsg); }

  00016	ff 75 08	 push	 DWORD PTR _pMsg$[ebp]
  00019	6a 00		 push	 0
  0001b	68 07 04 00 00	 push	 1031			; 00000407H
  00020	ff b6 e8 04 00
	00		 push	 DWORD PTR [esi+1256]
  00026	ff 15 00 00 00
	00		 call	 DWORD PTR __imp__SendMessageA@16
$LN2@PreTransla:
; File D:\git\src\IBK\IBK_DRFN\ProjSrc\SrcDrfn\Chart\MULTICHART\JongStatusInTab.cpp

; 275  : 	return CDialog::PreTranslateMessage(pMsg);

  0002c	ff 75 08	 push	 DWORD PTR _pMsg$[ebp]
  0002f	8b ce		 mov	 ecx, esi
  00031	e8 00 00 00 00	 call	 ?PreTranslateMessage@CDialog@@UAEHPAUtagMSG@@@Z ; CDialog::PreTranslateMessage
  00036	5e		 pop	 esi

; 276  : }

  00037	5d		 pop	 ebp
  00038	c2 04 00	 ret	 4
?PreTranslateMessage@CJongStatusInTab@@MAEHPAUtagMSG@@@Z ENDP ; CJongStatusInTab::PreTranslateMessage
_TEXT	ENDS
; Function compile flags: /Ogtp
; File D:\git\src\IBK\IBK_DRFN\ProjSrc\SrcDrfn\Chart\MULTICHART\JongStatusInTab.cpp
; File C:\Program Files (x86)\Microsoft Visual Studio\2019\Community\VC\Tools\MSVC\14.29.30133\atlmfc\include\afxwin2.inl
; File D:\git\src\IBK\IBK_DRFN\ProjSrc\SrcDrfn\Chart\MULTICHART\JongStatusInTab.cpp
;	COMDAT ?OnDestroy@CJongStatusInTab@@IAEXXZ
_TEXT	SEGMENT
?OnDestroy@CJongStatusInTab@@IAEXXZ PROC		; CJongStatusInTab::OnDestroy, COMDAT
; _this$ = ecx

; 253  : {

  00000	56		 push	 esi
  00001	8b f1		 mov	 esi, ecx

; 254  : 	CRscDlg::OnDestroy();

  00003	e8 00 00 00 00	 call	 ?OnDestroy@CWnd@@IAEXXZ	; CWnd::OnDestroy

; 255  : 	
; 256  : 	// TODO: Add your message handler code here
; 257  : //	m_brUpLimit.DeleteObject();
; 258  : //	m_brUp.DeleteObject();
; 259  : //	m_brSteady.DeleteObject();
; 260  : //	m_brDown.DeleteObject();
; 261  : //	m_brDownLimit.DeleteObject();	
; 262  : 	m_brBkColor.DeleteObject();	

  00008	8d 8e bc 04 00
	00		 lea	 ecx, DWORD PTR [esi+1212]
  0000e	e8 00 00 00 00	 call	 ?DeleteObject@CGdiObject@@QAEHXZ ; CGdiObject::DeleteObject

; 264  : 	if (m_ToolTip.GetSafeHwnd())

  00013	8d 8e c8 04 00
	00		 lea	 ecx, DWORD PTR [esi+1224]
  00019	5e		 pop	 esi
; File C:\Program Files (x86)\Microsoft Visual Studio\2019\Community\VC\Tools\MSVC\14.29.30133\atlmfc\include\afxwin2.inl

; 25   : 	{ return this == NULL ? NULL : m_hWnd; }

  0001a	85 c9		 test	 ecx, ecx
  0001c	74 0b		 je	 SHORT $LN2@OnDestroy
; File D:\git\src\IBK\IBK_DRFN\ProjSrc\SrcDrfn\Chart\MULTICHART\JongStatusInTab.cpp

; 264  : 	if (m_ToolTip.GetSafeHwnd())

  0001e	83 79 20 00	 cmp	 DWORD PTR [ecx+32], 0
  00022	74 05		 je	 SHORT $LN2@OnDestroy

; 265  : 	{
; 266  : 		m_ToolTip.DestroyWindow();

  00024	8b 01		 mov	 eax, DWORD PTR [ecx]
  00026	ff 60 68	 jmp	 DWORD PTR [eax+104]
$LN2@OnDestroy:

; 267  : 	}
; 268  : }

  00029	c3		 ret	 0
?OnDestroy@CJongStatusInTab@@IAEXXZ ENDP		; CJongStatusInTab::OnDestroy
_TEXT	ENDS
; Function compile flags: /Ogtp
; File D:\git\src\IBK\IBK_DRFN\ProjSrc\SrcDrfn\Chart\MULTICHART\JongStatusInTab.cpp
; File C:\Program Files (x86)\Microsoft Visual Studio\2019\Community\VC\Tools\MSVC\14.29.30133\atlmfc\include\afxwin1.inl
; File D:\git\src\IBK\IBK_DRFN\ProjSrc\SrcDrfn\Chart\MULTICHART\JongStatusInTab.cpp
; File C:\Program Files (x86)\Microsoft Visual Studio\2019\Community\VC\Tools\MSVC\14.29.30133\atlmfc\include\afxwin1.inl
; File D:\git\src\IBK\IBK_DRFN\ProjSrc\SrcDrfn\Chart\MULTICHART\JongStatusInTab.cpp
;	COMDAT ?OnCtlColor@CJongStatusInTab@@IAEPAUHBRUSH__@@PAVCDC@@PAVCWnd@@I@Z
_TEXT	SEGMENT
_pDC$ = 8						; size = 4
_pWnd$ = 12						; size = 4
_nCtlColor$ = 16					; size = 4
?OnCtlColor@CJongStatusInTab@@IAEPAUHBRUSH__@@PAVCDC@@PAVCWnd@@I@Z PROC ; CJongStatusInTab::OnCtlColor, COMDAT
; _this$ = ecx

; 206  : {

  00000	55		 push	 ebp
  00001	8b ec		 mov	 ebp, esp
  00003	57		 push	 edi

; 207  : 	HBRUSH hbr = CRscDlg::OnCtlColor(pDC, pWnd, nCtlColor);

  00004	ff 75 10	 push	 DWORD PTR _nCtlColor$[ebp]
  00007	8b f9		 mov	 edi, ecx
  00009	ff 75 0c	 push	 DWORD PTR _pWnd$[ebp]
  0000c	ff 75 08	 push	 DWORD PTR _pDC$[ebp]
  0000f	e8 00 00 00 00	 call	 ?OnCtlColor@CWnd@@IAEPAUHBRUSH__@@PAVCDC@@PAV1@I@Z ; CWnd::OnCtlColor

; 208  : 	
; 209  : 	// TODO: Change any attributes of the DC here
; 210  : 	switch(nCtlColor) {

  00014	83 7d 10 04	 cmp	 DWORD PTR _nCtlColor$[ebp], 4
  00018	75 12		 jne	 SHORT $LN1@OnCtlColor

; 211  : //	case CTLCOLOR_STATIC:
; 212  : //		if(pWnd->GetDlgCtrlID() == IDC_UPLIMIT)
; 213  : //		{
; 214  : //			pDC->SetBkColor(m_crUpLimit);
; 215  : //			return (HBRUSH)m_brUpLimit;
; 216  : //		}		
; 217  : //		else if(pWnd->GetDlgCtrlID() == IDC_UP)
; 218  : //		{
; 219  : //			pDC->SetBkColor(m_crUp);
; 220  : //			return (HBRUSH)m_brUp;
; 221  : //		}		
; 222  : //		else if(pWnd->GetDlgCtrlID() == IDC_STEADY)
; 223  : //		{
; 224  : //			pDC->SetBkColor(m_crSteady);
; 225  : //			return (HBRUSH)m_brSteady;
; 226  : //		}		
; 227  : //		else if(pWnd->GetDlgCtrlID() == IDC_DOWN)
; 228  : //		{
; 229  : //			pDC->SetBkColor(m_crDown);
; 230  : //			return (HBRUSH)m_brDown;
; 231  : //		}		
; 232  : //		else if(pWnd->GetDlgCtrlID() == IDC_DOWNLIMIT)
; 233  : //		{
; 234  : //			pDC->SetBkColor(m_crDownLimit);
; 235  : //			return (HBRUSH)m_brDownLimit;
; 236  : //		}
; 237  : //		else if(pWnd->GetDlgCtrlID() == IDC_RATE)
; 238  : //		{
; 239  : //			pDC->SetBkColor(m_crBk);
; 240  : //			return (HBRUSH)m_brBkColor;
; 241  : //		}
; 242  : //		break;
; 243  : 	case CTLCOLOR_DLG:
; 244  : 		return m_brBkColor;

  0001a	8d 87 bc 04 00
	00		 lea	 eax, DWORD PTR [edi+1212]
; File C:\Program Files (x86)\Microsoft Visual Studio\2019\Community\VC\Tools\MSVC\14.29.30133\atlmfc\include\afxwin1.inl

; 124  : 	{ return (HBRUSH)(this == NULL ? NULL : m_hObject); }

  00020	85 c0		 test	 eax, eax
  00022	75 05		 jne	 SHORT $LN8@OnCtlColor
  00024	5f		 pop	 edi
; File D:\git\src\IBK\IBK_DRFN\ProjSrc\SrcDrfn\Chart\MULTICHART\JongStatusInTab.cpp

; 250  : }

  00025	5d		 pop	 ebp
  00026	c2 0c 00	 ret	 12			; 0000000cH
$LN8@OnCtlColor:
; File C:\Program Files (x86)\Microsoft Visual Studio\2019\Community\VC\Tools\MSVC\14.29.30133\atlmfc\include\afxwin1.inl

; 124  : 	{ return (HBRUSH)(this == NULL ? NULL : m_hObject); }

  00029	8b 40 04	 mov	 eax, DWORD PTR [eax+4]
$LN1@OnCtlColor:
  0002c	5f		 pop	 edi
; File D:\git\src\IBK\IBK_DRFN\ProjSrc\SrcDrfn\Chart\MULTICHART\JongStatusInTab.cpp

; 250  : }

  0002d	5d		 pop	 ebp
  0002e	c2 0c 00	 ret	 12			; 0000000cH
?OnCtlColor@CJongStatusInTab@@IAEPAUHBRUSH__@@PAVCDC@@PAVCWnd@@I@Z ENDP ; CJongStatusInTab::OnCtlColor
_TEXT	ENDS
; Function compile flags: /Ogtp
; File D:\git\src\IBK\IBK_DRFN\ProjSrc\SrcDrfn\Chart\MULTICHART\JongStatusInTab.cpp
; File C:\Program Files (x86)\Microsoft Visual Studio\2019\Community\VC\Tools\MSVC\14.29.30133\atlmfc\include\afxwin1.inl
; File D:\git\src\IBK\IBK_DRFN\ProjSrc\SrcDrfn\Chart\MULTICHART\JongStatusInTab.cpp
; File C:\Program Files (x86)\Microsoft Visual Studio\2019\Community\VC\Tools\MSVC\14.29.30133\atlmfc\include\afxwin1.inl
; File D:\git\src\IBK\IBK_DRFN\ProjSrc\SrcDrfn\Chart\MULTICHART\JongStatusInTab.cpp
; File C:\Program Files (x86)\Microsoft Visual Studio\2019\Community\VC\Tools\MSVC\14.29.30133\atlmfc\include\afxcmn.inl
; File D:\git\src\IBK\IBK_DRFN\ProjSrc\SrcDrfn\Chart\MULTICHART\JongStatusInTab.cpp
;	COMDAT ?OnInitDialog@CJongStatusInTab@@MAEHXZ
_TEXT	SEGMENT
?OnInitDialog@CJongStatusInTab@@MAEHXZ PROC		; CJongStatusInTab::OnInitDialog, COMDAT
; _this$ = ecx

; 71   : {

  00000	53		 push	 ebx
  00001	56		 push	 esi
  00002	57		 push	 edi
  00003	8b f9		 mov	 edi, ecx

; 72   : 	CRscDlg::OnInitDialog();

  00005	e8 00 00 00 00	 call	 ?OnInitDialog@CDialog@@UAEHXZ ; CDialog::OnInitDialog
; File C:\Program Files (x86)\Microsoft Visual Studio\2019\Community\VC\Tools\MSVC\14.29.30133\atlmfc\include\afxwin1.inl

; 132  : 	{ return Attach(::CreateSolidBrush(crColor)); }

  0000a	ff b7 c4 04 00
	00		 push	 DWORD PTR [edi+1220]
  00010	ff 15 00 00 00
	00		 call	 DWORD PTR __imp__CreateSolidBrush@4
  00016	50		 push	 eax
; File D:\git\src\IBK\IBK_DRFN\ProjSrc\SrcDrfn\Chart\MULTICHART\JongStatusInTab.cpp

; 81   : 	m_brBkColor.CreateSolidBrush(m_crBk);

  00017	8d 8f bc 04 00
	00		 lea	 ecx, DWORD PTR [edi+1212]
; File C:\Program Files (x86)\Microsoft Visual Studio\2019\Community\VC\Tools\MSVC\14.29.30133\atlmfc\include\afxwin1.inl

; 132  : 	{ return Attach(::CreateSolidBrush(crColor)); }

  0001d	e8 00 00 00 00	 call	 ?Attach@CGdiObject@@QAEHPAX@Z ; CGdiObject::Attach
; File D:\git\src\IBK\IBK_DRFN\ProjSrc\SrcDrfn\Chart\MULTICHART\JongStatusInTab.cpp

; 91   : 	m_stUpLimit.SetStaticColor(clrOutLine, m_crUpLimit, clrText);

  00022	68 00 00 01 00	 push	 65536			; 00010000H
  00027	ff b7 a8 04 00
	00		 push	 DWORD PTR [edi+1192]
  0002d	8d 9f 30 01 00
	00		 lea	 ebx, DWORD PTR [edi+304]
  00033	68 80 80 80 00	 push	 8421504			; 00808080H
  00038	8b cb		 mov	 ecx, ebx
  0003a	e8 00 00 00 00	 call	 ?SetStaticColor@CExStatic@@QAEHKKK@Z ; CExStatic::SetStaticColor

; 92   : 	m_stUp.SetStaticColor(clrOutLine, m_crUp, clrText);

  0003f	68 00 00 01 00	 push	 65536			; 00010000H
  00044	ff b7 ac 04 00
	00		 push	 DWORD PTR [edi+1196]
  0004a	8d 8f b8 01 00
	00		 lea	 ecx, DWORD PTR [edi+440]
  00050	68 80 80 80 00	 push	 8421504			; 00808080H
  00055	e8 00 00 00 00	 call	 ?SetStaticColor@CExStatic@@QAEHKKK@Z ; CExStatic::SetStaticColor

; 93   : 	m_stSteady.SetStaticColor(clrOutLine, m_crSteady, clrText);

  0005a	68 00 00 01 00	 push	 65536			; 00010000H
  0005f	ff b7 b0 04 00
	00		 push	 DWORD PTR [edi+1200]
  00065	8d 8f 40 02 00
	00		 lea	 ecx, DWORD PTR [edi+576]
  0006b	68 80 80 80 00	 push	 8421504			; 00808080H
  00070	e8 00 00 00 00	 call	 ?SetStaticColor@CExStatic@@QAEHKKK@Z ; CExStatic::SetStaticColor

; 94   : 	m_stDown.SetStaticColor(clrOutLine, m_crDown, clrText);

  00075	68 00 00 01 00	 push	 65536			; 00010000H
  0007a	ff b7 b4 04 00
	00		 push	 DWORD PTR [edi+1204]
  00080	8d 8f 50 03 00
	00		 lea	 ecx, DWORD PTR [edi+848]
  00086	68 80 80 80 00	 push	 8421504			; 00808080H
  0008b	e8 00 00 00 00	 call	 ?SetStaticColor@CExStatic@@QAEHKKK@Z ; CExStatic::SetStaticColor

; 95   : 	m_stDownLimit.SetStaticColor(clrOutLine, m_crDownLimit, clrText);

  00090	68 00 00 01 00	 push	 65536			; 00010000H
  00095	ff b7 b8 04 00
	00		 push	 DWORD PTR [edi+1208]
  0009b	8d 8f c8 02 00
	00		 lea	 ecx, DWORD PTR [edi+712]
  000a1	68 80 80 80 00	 push	 8421504			; 00808080H
  000a6	e8 00 00 00 00	 call	 ?SetStaticColor@CExStatic@@QAEHKKK@Z ; CExStatic::SetStaticColor
  000ab	0f 57 c0	 xorps	 xmm0, xmm0

; 155  : 	m_lUpLimit = 0;

  000ae	c7 87 60 04 00
	00 00 00 00 00	 mov	 DWORD PTR [edi+1120], 0

; 156  : 	m_lUp = 0;
; 157  : 	m_lSteady = 0;
; 158  : 	m_lDown = 0;
; 159  : 	m_lDownLimit = 0;
; 160  : 	m_lCnt = 0;
; 161  : 	m_dDaebiRate = 0;
; 162  : 	m_stUpLimit.SetText("0");

  000b8	68 00 00 00 00	 push	 OFFSET ??_C@_01GBGANLPD@0@
  000bd	8b cb		 mov	 ecx, ebx
  000bf	c7 87 64 04 00
	00 00 00 00 00	 mov	 DWORD PTR [edi+1124], 0
  000c9	c7 87 68 04 00
	00 00 00 00 00	 mov	 DWORD PTR [edi+1128], 0
  000d3	c7 87 6c 04 00
	00 00 00 00 00	 mov	 DWORD PTR [edi+1132], 0
  000dd	c7 87 70 04 00
	00 00 00 00 00	 mov	 DWORD PTR [edi+1136], 0
  000e7	c7 87 74 04 00
	00 00 00 00 00	 mov	 DWORD PTR [edi+1140], 0
  000f1	f2 0f 11 87 78
	04 00 00	 movsd	 QWORD PTR [edi+1144], xmm0
  000f9	e8 00 00 00 00	 call	 ?SetText@CExStatic@@QAEXPBD@Z ; CExStatic::SetText

; 163  : 	m_stUp.SetText("0");

  000fe	68 00 00 00 00	 push	 OFFSET ??_C@_01GBGANLPD@0@
  00103	8d 8f b8 01 00
	00		 lea	 ecx, DWORD PTR [edi+440]
  00109	e8 00 00 00 00	 call	 ?SetText@CExStatic@@QAEXPBD@Z ; CExStatic::SetText

; 164  : 	m_stSteady.SetText("0");

  0010e	68 00 00 00 00	 push	 OFFSET ??_C@_01GBGANLPD@0@
  00113	8d 8f 40 02 00
	00		 lea	 ecx, DWORD PTR [edi+576]
  00119	e8 00 00 00 00	 call	 ?SetText@CExStatic@@QAEXPBD@Z ; CExStatic::SetText

; 165  : 	m_stDown.SetText("0");

  0011e	68 00 00 00 00	 push	 OFFSET ??_C@_01GBGANLPD@0@
  00123	8d 8f 50 03 00
	00		 lea	 ecx, DWORD PTR [edi+848]
  00129	e8 00 00 00 00	 call	 ?SetText@CExStatic@@QAEXPBD@Z ; CExStatic::SetText

; 166  : 	m_stDownLimit.SetText("0");

  0012e	68 00 00 00 00	 push	 OFFSET ??_C@_01GBGANLPD@0@
  00133	8d 8f c8 02 00
	00		 lea	 ecx, DWORD PTR [edi+712]
  00139	e8 00 00 00 00	 call	 ?SetText@CExStatic@@QAEXPBD@Z ; CExStatic::SetText

; 167  : 	m_stCnt.SetText("0");

  0013e	68 00 00 00 00	 push	 OFFSET ??_C@_01GBGANLPD@0@
  00143	8d 8f d8 03 00
	00		 lea	 ecx, DWORD PTR [edi+984]
  00149	e8 00 00 00 00	 call	 ?SetText@CExStatic@@QAEXPBD@Z ; CExStatic::SetText

; 168  : 	m_stRate.SetText("0%");

  0014e	68 00 00 00 00	 push	 OFFSET ??_C@_02MMCGBDJK@0?$CF@
  00153	8d 8f a8 00 00
	00		 lea	 ecx, DWORD PTR [edi+168]
  00159	e8 00 00 00 00	 call	 ?SetText@CExStatic@@QAEXPBD@Z ; CExStatic::SetText

; 96   : 
; 97   : 
; 98   : 	InitStatus();
; 99   : 
; 100  : 	//{{ToolTip Add by LYH 2007.01.03
; 101  : 	// create tooltip
; 102  : 	if(!m_ToolTip.Create(this, TTS_ALWAYSTIP))

  0015e	8b 87 c8 04 00
	00		 mov	 eax, DWORD PTR [edi+1224]
  00164	8d b7 c8 04 00
	00		 lea	 esi, DWORD PTR [edi+1224]
  0016a	6a 01		 push	 1
  0016c	57		 push	 edi
  0016d	8b ce		 mov	 ecx, esi
  0016f	ff 90 6c 01 00
	00		 call	 DWORD PTR [eax+364]
  00175	85 c0		 test	 eax, eax
  00177	75 04		 jne	 SHORT $LN2@OnInitDial

; 111  : 	//}}
; 112  : 	return TRUE;  // return TRUE unless you set the focus to a control
; 113  : 	              // EXCEPTION: OCX Property Pages should return FALSE
; 114  : }

  00179	5f		 pop	 edi
  0017a	5e		 pop	 esi
  0017b	5b		 pop	 ebx
  0017c	c3		 ret	 0
$LN2@OnInitDial:
; File C:\Program Files (x86)\Microsoft Visual Studio\2019\Community\VC\Tools\MSVC\14.29.30133\atlmfc\include\afxcmn.inl

; 425  : 	{ ASSERT(::IsWindow(m_hWnd));  ::SendMessage(m_hWnd, TTM_ACTIVATE, bActivate, 0L); }

  0017d	6a 00		 push	 0
  0017f	6a 01		 push	 1
  00181	68 01 04 00 00	 push	 1025			; 00000401H
  00186	ff b7 e8 04 00
	00		 push	 DWORD PTR [edi+1256]
  0018c	ff 15 00 00 00
	00		 call	 DWORD PTR __imp__SendMessageA@16
; File D:\git\src\IBK\IBK_DRFN\ProjSrc\SrcDrfn\Chart\MULTICHART\JongStatusInTab.cpp

; 106  : 	m_ToolTip.AddTool(&m_stUpLimit, "»óÇÑ");

  00192	6a 00		 push	 0
  00194	6a 00		 push	 0
  00196	68 00 00 00 00	 push	 OFFSET ??_C@_04MGNKPMDF@?$LL?s?G?Q@
  0019b	53		 push	 ebx
  0019c	8b ce		 mov	 ecx, esi
  0019e	e8 00 00 00 00	 call	 ?AddTool@CToolTipCtrl@@QAEHPAVCWnd@@PBDPBUtagRECT@@I@Z ; CToolTipCtrl::AddTool

; 107  : 	m_ToolTip.AddTool(&m_stUp, "»ó½Â");

  001a3	6a 00		 push	 0
  001a5	6a 00		 push	 0
  001a7	68 00 00 00 00	 push	 OFFSET ??_C@_04POFDFACB@?$LL?s?$LN?B@
  001ac	8d 87 b8 01 00
	00		 lea	 eax, DWORD PTR [edi+440]
  001b2	8b ce		 mov	 ecx, esi
  001b4	50		 push	 eax
  001b5	e8 00 00 00 00	 call	 ?AddTool@CToolTipCtrl@@QAEHPAVCWnd@@PBDPBUtagRECT@@I@Z ; CToolTipCtrl::AddTool

; 108  : 	m_ToolTip.AddTool(&m_stSteady, "º¸ÇÕ");

  001ba	6a 00		 push	 0
  001bc	6a 00		 push	 0
  001be	68 00 00 00 00	 push	 OFFSET ??_C@_04NDMDMPLN@?$LK?$LI?G?U@
  001c3	8d 87 40 02 00
	00		 lea	 eax, DWORD PTR [edi+576]
  001c9	8b ce		 mov	 ecx, esi
  001cb	50		 push	 eax
  001cc	e8 00 00 00 00	 call	 ?AddTool@CToolTipCtrl@@QAEHPAVCWnd@@PBDPBUtagRECT@@I@Z ; CToolTipCtrl::AddTool

; 109  : 	m_ToolTip.AddTool(&m_stDown, "ÇÏ¶ô");

  001d1	6a 00		 push	 0
  001d3	6a 00		 push	 0
  001d5	68 00 00 00 00	 push	 OFFSET ??_C@_04PNMFGEGC@?G?O?$LG?t@
  001da	8d 87 50 03 00
	00		 lea	 eax, DWORD PTR [edi+848]
  001e0	8b ce		 mov	 ecx, esi
  001e2	50		 push	 eax
  001e3	e8 00 00 00 00	 call	 ?AddTool@CToolTipCtrl@@QAEHPAVCWnd@@PBDPBUtagRECT@@I@Z ; CToolTipCtrl::AddTool

; 110  : 	m_ToolTip.AddTool(&m_stDownLimit, "ÇÏÇÑ");

  001e8	6a 00		 push	 0
  001ea	6a 00		 push	 0
  001ec	68 00 00 00 00	 push	 OFFSET ??_C@_04EAAFLGOC@?G?O?G?Q@
  001f1	8d 87 c8 02 00
	00		 lea	 eax, DWORD PTR [edi+712]
  001f7	8b ce		 mov	 ecx, esi
  001f9	50		 push	 eax
  001fa	e8 00 00 00 00	 call	 ?AddTool@CToolTipCtrl@@QAEHPAVCWnd@@PBDPBUtagRECT@@I@Z ; CToolTipCtrl::AddTool
  001ff	5f		 pop	 edi

; 111  : 	//}}
; 112  : 	return TRUE;  // return TRUE unless you set the focus to a control
; 113  : 	              // EXCEPTION: OCX Property Pages should return FALSE
; 114  : }

  00200	5e		 pop	 esi
  00201	b8 01 00 00 00	 mov	 eax, 1
  00206	5b		 pop	 ebx
  00207	c3		 ret	 0
?OnInitDialog@CJongStatusInTab@@MAEHXZ ENDP		; CJongStatusInTab::OnInitDialog
_TEXT	ENDS
; Function compile flags: /Ogtp
; File D:\git\src\IBK\IBK_DRFN\ProjSrc\SrcDrfn\Chart\MULTICHART\JongStatusInTab.cpp
;	COMDAT ?UpdateInCtrl@CJongStatusInTab@@AAEXXZ
_TEXT	SEGMENT
_strUpLimit$ = -40					; size = 4
_strUp$ = -36						; size = 4
_strSteady$ = -32					; size = 4
_strDown$ = -28						; size = 4
_strDownLimit$ = -24					; size = 4
_strCnt$ = -20						; size = 4
_strDaebiRate$ = -16					; size = 4
__$EHRec$ = -12						; size = 12
?UpdateInCtrl@CJongStatusInTab@@AAEXXZ PROC		; CJongStatusInTab::UpdateInCtrl, COMDAT
; _this$ = ecx

; 173  : {

  00000	55		 push	 ebp
  00001	8b ec		 mov	 ebp, esp
  00003	6a ff		 push	 -1
  00005	68 00 00 00 00	 push	 __ehhandler$?UpdateInCtrl@CJongStatusInTab@@AAEXXZ
  0000a	64 a1 00 00 00
	00		 mov	 eax, DWORD PTR fs:0
  00010	50		 push	 eax
  00011	83 ec 1c	 sub	 esp, 28			; 0000001cH
  00014	56		 push	 esi
  00015	57		 push	 edi
  00016	a1 00 00 00 00	 mov	 eax, DWORD PTR ___security_cookie
  0001b	33 c5		 xor	 eax, ebp
  0001d	50		 push	 eax
  0001e	8d 45 f4	 lea	 eax, DWORD PTR __$EHRec$[ebp]
  00021	64 a3 00 00 00
	00		 mov	 DWORD PTR fs:0, eax
  00027	8b f1		 mov	 esi, ecx

; 174  : 	CString strUpLimit;

  00029	8d 4d d8	 lea	 ecx, DWORD PTR _strUpLimit$[ebp]
  0002c	ff 15 00 00 00
	00		 call	 DWORD PTR __imp_??0?$CStringT@DV?$StrTraitMFC_DLL@DV?$ChTraitsCRT@D@ATL@@@@@ATL@@QAE@XZ

; 175  : 	CString strUp;

  00032	8d 4d dc	 lea	 ecx, DWORD PTR _strUp$[ebp]
  00035	c7 45 fc 00 00
	00 00		 mov	 DWORD PTR __$EHRec$[ebp+8], 0
  0003c	ff 15 00 00 00
	00		 call	 DWORD PTR __imp_??0?$CStringT@DV?$StrTraitMFC_DLL@DV?$ChTraitsCRT@D@ATL@@@@@ATL@@QAE@XZ

; 176  : 	CString strSteady;

  00042	8d 4d e0	 lea	 ecx, DWORD PTR _strSteady$[ebp]
  00045	ff 15 00 00 00
	00		 call	 DWORD PTR __imp_??0?$CStringT@DV?$StrTraitMFC_DLL@DV?$ChTraitsCRT@D@ATL@@@@@ATL@@QAE@XZ

; 177  : 	CString strDown;

  0004b	8d 4d e4	 lea	 ecx, DWORD PTR _strDown$[ebp]
  0004e	ff 15 00 00 00
	00		 call	 DWORD PTR __imp_??0?$CStringT@DV?$StrTraitMFC_DLL@DV?$ChTraitsCRT@D@ATL@@@@@ATL@@QAE@XZ

; 178  : 	CString strDownLimit;

  00054	8d 4d e8	 lea	 ecx, DWORD PTR _strDownLimit$[ebp]
  00057	ff 15 00 00 00
	00		 call	 DWORD PTR __imp_??0?$CStringT@DV?$StrTraitMFC_DLL@DV?$ChTraitsCRT@D@ATL@@@@@ATL@@QAE@XZ

; 179  : 	CString strCnt;

  0005d	8d 4d ec	 lea	 ecx, DWORD PTR _strCnt$[ebp]
  00060	ff 15 00 00 00
	00		 call	 DWORD PTR __imp_??0?$CStringT@DV?$StrTraitMFC_DLL@DV?$ChTraitsCRT@D@ATL@@@@@ATL@@QAE@XZ

; 180  : 	CString strDaebiRate;

  00066	8d 4d f0	 lea	 ecx, DWORD PTR _strDaebiRate$[ebp]
  00069	ff 15 00 00 00
	00		 call	 DWORD PTR __imp_??0?$CStringT@DV?$StrTraitMFC_DLL@DV?$ChTraitsCRT@D@ATL@@@@@ATL@@QAE@XZ

; 181  : 	strUpLimit.Format("%d",m_lUpLimit);

  0006f	ff b6 60 04 00
	00		 push	 DWORD PTR [esi+1120]
  00075	8b 3d 00 00 00
	00		 mov	 edi, DWORD PTR __imp_?Format@?$CStringT@DV?$StrTraitMFC_DLL@DV?$ChTraitsCRT@D@ATL@@@@@ATL@@QAAXPBDZZ
  0007b	8d 45 d8	 lea	 eax, DWORD PTR _strUpLimit$[ebp]
  0007e	68 00 00 00 00	 push	 OFFSET ??_C@_02DPKJAMEF@?$CFd@
  00083	50		 push	 eax
  00084	c6 45 fc 06	 mov	 BYTE PTR __$EHRec$[ebp+8], 6
  00088	ff d7		 call	 edi

; 182  : 	strUp.Format("%d",m_lUp);

  0008a	ff b6 64 04 00
	00		 push	 DWORD PTR [esi+1124]
  00090	8d 45 dc	 lea	 eax, DWORD PTR _strUp$[ebp]
  00093	68 00 00 00 00	 push	 OFFSET ??_C@_02DPKJAMEF@?$CFd@
  00098	50		 push	 eax
  00099	ff d7		 call	 edi

; 183  : 	strSteady.Format("%d",m_lSteady);

  0009b	ff b6 68 04 00
	00		 push	 DWORD PTR [esi+1128]
  000a1	8d 45 e0	 lea	 eax, DWORD PTR _strSteady$[ebp]
  000a4	68 00 00 00 00	 push	 OFFSET ??_C@_02DPKJAMEF@?$CFd@
  000a9	50		 push	 eax
  000aa	ff d7		 call	 edi

; 184  : 	strDown.Format("%d",m_lDown);

  000ac	ff b6 6c 04 00
	00		 push	 DWORD PTR [esi+1132]
  000b2	8d 45 e4	 lea	 eax, DWORD PTR _strDown$[ebp]
  000b5	68 00 00 00 00	 push	 OFFSET ??_C@_02DPKJAMEF@?$CFd@
  000ba	50		 push	 eax
  000bb	ff d7		 call	 edi

; 185  : 	strDownLimit.Format("%d",m_lDownLimit);

  000bd	ff b6 70 04 00
	00		 push	 DWORD PTR [esi+1136]
  000c3	8d 45 e8	 lea	 eax, DWORD PTR _strDownLimit$[ebp]
  000c6	68 00 00 00 00	 push	 OFFSET ??_C@_02DPKJAMEF@?$CFd@
  000cb	50		 push	 eax
  000cc	ff d7		 call	 edi

; 186  : 	strCnt.Format("%d",m_lCnt);

  000ce	ff b6 74 04 00
	00		 push	 DWORD PTR [esi+1140]
  000d4	8d 45 ec	 lea	 eax, DWORD PTR _strCnt$[ebp]
  000d7	68 00 00 00 00	 push	 OFFSET ??_C@_02DPKJAMEF@?$CFd@
  000dc	50		 push	 eax
  000dd	ff d7		 call	 edi

; 187  : 	if(m_lCnt)

  000df	8b 86 74 04 00
	00		 mov	 eax, DWORD PTR [esi+1140]
  000e5	83 c4 48	 add	 esp, 72			; 00000048H
  000e8	85 c0		 test	 eax, eax
  000ea	74 2c		 je	 SHORT $LN2@UpdateInCt

; 188  : 	{
; 189  : 		strDaebiRate.Format("%+2.02f%%",m_dDaebiRate/(double)m_lCnt);

  000ec	f2 0f 10 8e 78
	04 00 00	 movsd	 xmm1, QWORD PTR [esi+1144]
  000f4	83 ec 08	 sub	 esp, 8
  000f7	66 0f 6e c0	 movd	 xmm0, eax
  000fb	8d 45 f0	 lea	 eax, DWORD PTR _strDaebiRate$[ebp]
  000fe	f3 0f e6 c0	 cvtdq2pd xmm0, xmm0
  00102	f2 0f 5e c8	 divsd	 xmm1, xmm0
  00106	f2 0f 11 0c 24	 movsd	 QWORD PTR [esp], xmm1
  0010b	68 00 00 00 00	 push	 OFFSET ??_C@_09PKGMEFNK@?$CF?$CL2?402f?$CF?$CF@
  00110	50		 push	 eax
  00111	ff d7		 call	 edi
  00113	83 c4 10	 add	 esp, 16			; 00000010H

; 190  : 	}

  00116	eb 0e		 jmp	 SHORT $LN3@UpdateInCt
$LN2@UpdateInCt:

; 191  : 	else
; 192  : 	{
; 193  : 		strDaebiRate.Format("");	

  00118	8d 45 f0	 lea	 eax, DWORD PTR _strDaebiRate$[ebp]
  0011b	68 00 00 00 00	 push	 OFFSET ??_C@_00CNPNBAHC@@
  00120	50		 push	 eax
  00121	ff d7		 call	 edi
  00123	83 c4 08	 add	 esp, 8
$LN3@UpdateInCt:

; 194  : 	}
; 195  : 	
; 196  : 	m_stUpLimit.SetText(strUpLimit);

  00126	ff 75 d8	 push	 DWORD PTR _strUpLimit$[ebp]
  00129	8d 8e 30 01 00
	00		 lea	 ecx, DWORD PTR [esi+304]
  0012f	e8 00 00 00 00	 call	 ?SetText@CExStatic@@QAEXPBD@Z ; CExStatic::SetText

; 197  : 	m_stUp.SetText(strUp);

  00134	ff 75 dc	 push	 DWORD PTR _strUp$[ebp]
  00137	8d 8e b8 01 00
	00		 lea	 ecx, DWORD PTR [esi+440]
  0013d	e8 00 00 00 00	 call	 ?SetText@CExStatic@@QAEXPBD@Z ; CExStatic::SetText

; 198  : 	m_stSteady.SetText(strSteady);

  00142	ff 75 e0	 push	 DWORD PTR _strSteady$[ebp]
  00145	8d 8e 40 02 00
	00		 lea	 ecx, DWORD PTR [esi+576]
  0014b	e8 00 00 00 00	 call	 ?SetText@CExStatic@@QAEXPBD@Z ; CExStatic::SetText

; 199  : 	m_stDown.SetText(strDown);

  00150	ff 75 e4	 push	 DWORD PTR _strDown$[ebp]
  00153	8d 8e 50 03 00
	00		 lea	 ecx, DWORD PTR [esi+848]
  00159	e8 00 00 00 00	 call	 ?SetText@CExStatic@@QAEXPBD@Z ; CExStatic::SetText

; 200  : 	m_stDownLimit.SetText(strDownLimit);

  0015e	ff 75 e8	 push	 DWORD PTR _strDownLimit$[ebp]
  00161	8d 8e c8 02 00
	00		 lea	 ecx, DWORD PTR [esi+712]
  00167	e8 00 00 00 00	 call	 ?SetText@CExStatic@@QAEXPBD@Z ; CExStatic::SetText

; 201  : 	m_stCnt.SetText(strCnt);

  0016c	ff 75 ec	 push	 DWORD PTR _strCnt$[ebp]
  0016f	8d 8e d8 03 00
	00		 lea	 ecx, DWORD PTR [esi+984]
  00175	e8 00 00 00 00	 call	 ?SetText@CExStatic@@QAEXPBD@Z ; CExStatic::SetText

; 202  : 	m_stRate.SetText(strDaebiRate);

  0017a	ff 75 f0	 push	 DWORD PTR _strDaebiRate$[ebp]
  0017d	8d 8e a8 00 00
	00		 lea	 ecx, DWORD PTR [esi+168]
  00183	e8 00 00 00 00	 call	 ?SetText@CExStatic@@QAEXPBD@Z ; CExStatic::SetText

; 203  : }

  00188	8d 4d f0	 lea	 ecx, DWORD PTR _strDaebiRate$[ebp]
  0018b	ff 15 00 00 00
	00		 call	 DWORD PTR __imp_??1?$CStringT@DV?$StrTraitMFC_DLL@DV?$ChTraitsCRT@D@ATL@@@@@ATL@@QAE@XZ
  00191	8d 4d ec	 lea	 ecx, DWORD PTR _strCnt$[ebp]
  00194	ff 15 00 00 00
	00		 call	 DWORD PTR __imp_??1?$CStringT@DV?$StrTraitMFC_DLL@DV?$ChTraitsCRT@D@ATL@@@@@ATL@@QAE@XZ
  0019a	8d 4d e8	 lea	 ecx, DWORD PTR _strDownLimit$[ebp]
  0019d	ff 15 00 00 00
	00		 call	 DWORD PTR __imp_??1?$CStringT@DV?$StrTraitMFC_DLL@DV?$ChTraitsCRT@D@ATL@@@@@ATL@@QAE@XZ
  001a3	8d 4d e4	 lea	 ecx, DWORD PTR _strDown$[ebp]
  001a6	ff 15 00 00 00
	00		 call	 DWORD PTR __imp_??1?$CStringT@DV?$StrTraitMFC_DLL@DV?$ChTraitsCRT@D@ATL@@@@@ATL@@QAE@XZ
  001ac	8d 4d e0	 lea	 ecx, DWORD PTR _strSteady$[ebp]
  001af	ff 15 00 00 00
	00		 call	 DWORD PTR __imp_??1?$CStringT@DV?$StrTraitMFC_DLL@DV?$ChTraitsCRT@D@ATL@@@@@ATL@@QAE@XZ
  001b5	8d 4d dc	 lea	 ecx, DWORD PTR _strUp$[ebp]
  001b8	ff 15 00 00 00
	00		 call	 DWORD PTR __imp_??1?$CStringT@DV?$StrTraitMFC_DLL@DV?$ChTraitsCRT@D@ATL@@@@@ATL@@QAE@XZ
  001be	8d 4d d8	 lea	 ecx, DWORD PTR _strUpLimit$[ebp]
  001c1	ff 15 00 00 00
	00		 call	 DWORD PTR __imp_??1?$CStringT@DV?$StrTraitMFC_DLL@DV?$ChTraitsCRT@D@ATL@@@@@ATL@@QAE@XZ
  001c7	8b 4d f4	 mov	 ecx, DWORD PTR __$EHRec$[ebp]
  001ca	64 89 0d 00 00
	00 00		 mov	 DWORD PTR fs:0, ecx
  001d1	59		 pop	 ecx
  001d2	5f		 pop	 edi
  001d3	5e		 pop	 esi
  001d4	8b e5		 mov	 esp, ebp
  001d6	5d		 pop	 ebp
  001d7	c3		 ret	 0
_TEXT	ENDS
;	COMDAT text$x
text$x	SEGMENT
__unwindfunclet$?UpdateInCtrl@CJongStatusInTab@@AAEXXZ$0:
  00000	8d 4d d8	 lea	 ecx, DWORD PTR _strUpLimit$[ebp]
  00003	ff 25 00 00 00
	00		 jmp	 DWORD PTR __imp_??1?$CStringT@DV?$StrTraitMFC_DLL@DV?$ChTraitsCRT@D@ATL@@@@@ATL@@QAE@XZ
__unwindfunclet$?UpdateInCtrl@CJongStatusInTab@@AAEXXZ$1:
  00009	8d 4d dc	 lea	 ecx, DWORD PTR _strUp$[ebp]
  0000c	ff 25 00 00 00
	00		 jmp	 DWORD PTR __imp_??1?$CStringT@DV?$StrTraitMFC_DLL@DV?$ChTraitsCRT@D@ATL@@@@@ATL@@QAE@XZ
__unwindfunclet$?UpdateInCtrl@CJongStatusInTab@@AAEXXZ$2:
  00012	8d 4d e0	 lea	 ecx, DWORD PTR _strSteady$[ebp]
  00015	ff 25 00 00 00
	00		 jmp	 DWORD PTR __imp_??1?$CStringT@DV?$StrTraitMFC_DLL@DV?$ChTraitsCRT@D@ATL@@@@@ATL@@QAE@XZ
__unwindfunclet$?UpdateInCtrl@CJongStatusInTab@@AAEXXZ$3:
  0001b	8d 4d e4	 lea	 ecx, DWORD PTR _strDown$[ebp]
  0001e	ff 25 00 00 00
	00		 jmp	 DWORD PTR __imp_??1?$CStringT@DV?$StrTraitMFC_DLL@DV?$ChTraitsCRT@D@ATL@@@@@ATL@@QAE@XZ
__unwindfunclet$?UpdateInCtrl@CJongStatusInTab@@AAEXXZ$4:
  00024	8d 4d e8	 lea	 ecx, DWORD PTR _strDownLimit$[ebp]
  00027	ff 25 00 00 00
	00		 jmp	 DWORD PTR __imp_??1?$CStringT@DV?$StrTraitMFC_DLL@DV?$ChTraitsCRT@D@ATL@@@@@ATL@@QAE@XZ
__unwindfunclet$?UpdateInCtrl@CJongStatusInTab@@AAEXXZ$5:
  0002d	8d 4d ec	 lea	 ecx, DWORD PTR _strCnt$[ebp]
  00030	ff 25 00 00 00
	00		 jmp	 DWORD PTR __imp_??1?$CStringT@DV?$StrTraitMFC_DLL@DV?$ChTraitsCRT@D@ATL@@@@@ATL@@QAE@XZ
__unwindfunclet$?UpdateInCtrl@CJongStatusInTab@@AAEXXZ$6:
  00036	8d 4d f0	 lea	 ecx, DWORD PTR _strDaebiRate$[ebp]
  00039	ff 25 00 00 00
	00		 jmp	 DWORD PTR __imp_??1?$CStringT@DV?$StrTraitMFC_DLL@DV?$ChTraitsCRT@D@ATL@@@@@ATL@@QAE@XZ
  0003f	cc		 int	 3
  00040	cc		 int	 3
  00041	cc		 int	 3
  00042	cc		 int	 3
  00043	cc		 int	 3
__ehhandler$?UpdateInCtrl@CJongStatusInTab@@AAEXXZ:
  00044	90		 npad	 1
  00045	90		 npad	 1
  00046	8b 54 24 08	 mov	 edx, DWORD PTR [esp+8]
  0004a	8d 42 0c	 lea	 eax, DWORD PTR [edx+12]
  0004d	8b 4a d8	 mov	 ecx, DWORD PTR [edx-40]
  00050	33 c8		 xor	 ecx, eax
  00052	e8 00 00 00 00	 call	 @__security_check_cookie@4
  00057	b8 00 00 00 00	 mov	 eax, OFFSET __ehfuncinfo$?UpdateInCtrl@CJongStatusInTab@@AAEXXZ
  0005c	e9 00 00 00 00	 jmp	 ___CxxFrameHandler3
text$x	ENDS
?UpdateInCtrl@CJongStatusInTab@@AAEXXZ ENDP		; CJongStatusInTab::UpdateInCtrl
; Function compile flags: /Ogtp
; File D:\git\src\IBK\IBK_DRFN\ProjSrc\SrcDrfn\Chart\MULTICHART\JongStatusInTab.cpp
;	COMDAT ?InitStatus@CJongStatusInTab@@QAEXXZ
_TEXT	SEGMENT
?InitStatus@CJongStatusInTab@@QAEXXZ PROC		; CJongStatusInTab::InitStatus, COMDAT
; _this$ = ecx

; 154  : {

  00000	56		 push	 esi
  00001	8b f1		 mov	 esi, ecx
  00003	0f 57 c0	 xorps	 xmm0, xmm0

; 155  : 	m_lUpLimit = 0;
; 156  : 	m_lUp = 0;
; 157  : 	m_lSteady = 0;
; 158  : 	m_lDown = 0;
; 159  : 	m_lDownLimit = 0;
; 160  : 	m_lCnt = 0;
; 161  : 	m_dDaebiRate = 0;
; 162  : 	m_stUpLimit.SetText("0");

  00006	68 00 00 00 00	 push	 OFFSET ??_C@_01GBGANLPD@0@
  0000b	8d 8e 30 01 00
	00		 lea	 ecx, DWORD PTR [esi+304]
  00011	c7 86 60 04 00
	00 00 00 00 00	 mov	 DWORD PTR [esi+1120], 0
  0001b	c7 86 64 04 00
	00 00 00 00 00	 mov	 DWORD PTR [esi+1124], 0
  00025	c7 86 68 04 00
	00 00 00 00 00	 mov	 DWORD PTR [esi+1128], 0
  0002f	c7 86 6c 04 00
	00 00 00 00 00	 mov	 DWORD PTR [esi+1132], 0
  00039	c7 86 70 04 00
	00 00 00 00 00	 mov	 DWORD PTR [esi+1136], 0
  00043	c7 86 74 04 00
	00 00 00 00 00	 mov	 DWORD PTR [esi+1140], 0
  0004d	f2 0f 11 86 78
	04 00 00	 movsd	 QWORD PTR [esi+1144], xmm0
  00055	e8 00 00 00 00	 call	 ?SetText@CExStatic@@QAEXPBD@Z ; CExStatic::SetText

; 163  : 	m_stUp.SetText("0");

  0005a	68 00 00 00 00	 push	 OFFSET ??_C@_01GBGANLPD@0@
  0005f	8d 8e b8 01 00
	00		 lea	 ecx, DWORD PTR [esi+440]
  00065	e8 00 00 00 00	 call	 ?SetText@CExStatic@@QAEXPBD@Z ; CExStatic::SetText

; 164  : 	m_stSteady.SetText("0");

  0006a	68 00 00 00 00	 push	 OFFSET ??_C@_01GBGANLPD@0@
  0006f	8d 8e 40 02 00
	00		 lea	 ecx, DWORD PTR [esi+576]
  00075	e8 00 00 00 00	 call	 ?SetText@CExStatic@@QAEXPBD@Z ; CExStatic::SetText

; 165  : 	m_stDown.SetText("0");

  0007a	68 00 00 00 00	 push	 OFFSET ??_C@_01GBGANLPD@0@
  0007f	8d 8e 50 03 00
	00		 lea	 ecx, DWORD PTR [esi+848]
  00085	e8 00 00 00 00	 call	 ?SetText@CExStatic@@QAEXPBD@Z ; CExStatic::SetText

; 166  : 	m_stDownLimit.SetText("0");

  0008a	68 00 00 00 00	 push	 OFFSET ??_C@_01GBGANLPD@0@
  0008f	8d 8e c8 02 00
	00		 lea	 ecx, DWORD PTR [esi+712]
  00095	e8 00 00 00 00	 call	 ?SetText@CExStatic@@QAEXPBD@Z ; CExStatic::SetText

; 167  : 	m_stCnt.SetText("0");

  0009a	68 00 00 00 00	 push	 OFFSET ??_C@_01GBGANLPD@0@
  0009f	8d 8e d8 03 00
	00		 lea	 ecx, DWORD PTR [esi+984]
  000a5	e8 00 00 00 00	 call	 ?SetText@CExStatic@@QAEXPBD@Z ; CExStatic::SetText

; 168  : 	m_stRate.SetText("0%");

  000aa	68 00 00 00 00	 push	 OFFSET ??_C@_02MMCGBDJK@0?$CF@
  000af	8d 8e a8 00 00
	00		 lea	 ecx, DWORD PTR [esi+168]
  000b5	e8 00 00 00 00	 call	 ?SetText@CExStatic@@QAEXPBD@Z ; CExStatic::SetText
  000ba	5e		 pop	 esi

; 169  : }

  000bb	c3		 ret	 0
?InitStatus@CJongStatusInTab@@QAEXXZ ENDP		; CJongStatusInTab::InitStatus
_TEXT	ENDS
; Function compile flags: /Ogtp
; File D:\git\src\IBK\IBK_DRFN\ProjSrc\SrcDrfn\Chart\MULTICHART\JongStatusInTab.cpp
;	COMDAT ?UpdateStatus@CJongStatusInTab@@QAEXDDN@Z
_TEXT	SEGMENT
_chSignNew$ = 8						; size = 1
_chSignOld$ = 12					; size = 1
_dDaebiRateChg$ = 16					; size = 8
?UpdateStatus@CJongStatusInTab@@QAEXDDN@Z PROC		; CJongStatusInTab::UpdateStatus, COMDAT
; _this$ = ecx

; 130  : {

  00000	55		 push	 ebp
  00001	8b ec		 mov	 ebp, esp

; 131  : 	switch(chSignNew)

  00003	0f be 45 08	 movsx	 eax, BYTE PTR _chSignNew$[ebp]
  00007	83 c0 cf	 add	 eax, -49		; ffffffcfH
  0000a	83 f8 04	 cmp	 eax, 4
  0000d	77 2d		 ja	 SHORT $LN2@UpdateStat
  0000f	ff 24 85 00 00
	00 00		 jmp	 DWORD PTR $LN17@UpdateStat[eax*4]
$LN6@UpdateStat:

; 132  : 	{
; 133  : 		case UP_LIMIT	:	m_lUpLimit++;		break;	// UpLimit

  00016	ff 81 60 04 00
	00		 inc	 DWORD PTR [ecx+1120]
  0001c	eb 1e		 jmp	 SHORT $LN2@UpdateStat
$LN7@UpdateStat:

; 134  : 		case UP			:	m_lUp++;			break;	// Up		

  0001e	ff 81 64 04 00
	00		 inc	 DWORD PTR [ecx+1124]
  00024	eb 16		 jmp	 SHORT $LN2@UpdateStat
$LN8@UpdateStat:

; 135  : 		case EQUAL		:	m_lSteady++;		break;	// Steady

  00026	ff 81 68 04 00
	00		 inc	 DWORD PTR [ecx+1128]
  0002c	eb 0e		 jmp	 SHORT $LN2@UpdateStat
$LN9@UpdateStat:

; 136  : 		case DOWN		:	m_lDown++;			break;	// Down

  0002e	ff 81 6c 04 00
	00		 inc	 DWORD PTR [ecx+1132]
  00034	eb 06		 jmp	 SHORT $LN2@UpdateStat
$LN10@UpdateStat:

; 137  : 		case DOWN_LIMIT	:	m_lDownLimit++;		break;	// DownLimit		

  00036	ff 81 70 04 00
	00		 inc	 DWORD PTR [ecx+1136]
$LN2@UpdateStat:

; 138  : 	}
; 139  : 	switch(chSignOld)

  0003c	0f be 45 0c	 movsx	 eax, BYTE PTR _chSignOld$[ebp]
  00040	83 c0 cf	 add	 eax, -49		; ffffffcfH
  00043	83 f8 04	 cmp	 eax, 4
  00046	77 2d		 ja	 SHORT $LN4@UpdateStat
  00048	ff 24 85 00 00
	00 00		 jmp	 DWORD PTR $LN18@UpdateStat[eax*4]
$LN11@UpdateStat:

; 140  : 	{
; 141  : 		case UP_LIMIT	:	m_lUpLimit--;		break;	// UpLimit

  0004f	ff 89 60 04 00
	00		 dec	 DWORD PTR [ecx+1120]
  00055	eb 1e		 jmp	 SHORT $LN4@UpdateStat
$LN12@UpdateStat:

; 142  : 		case UP			:	m_lUp--;			break;	// Up		

  00057	ff 89 64 04 00
	00		 dec	 DWORD PTR [ecx+1124]
  0005d	eb 16		 jmp	 SHORT $LN4@UpdateStat
$LN13@UpdateStat:

; 143  : 		case EQUAL		:	m_lSteady--;		break;	// Steady

  0005f	ff 89 68 04 00
	00		 dec	 DWORD PTR [ecx+1128]
  00065	eb 0e		 jmp	 SHORT $LN4@UpdateStat
$LN14@UpdateStat:

; 144  : 		case DOWN		:	m_lDown--;			break;	// Down

  00067	ff 89 6c 04 00
	00		 dec	 DWORD PTR [ecx+1132]
  0006d	eb 06		 jmp	 SHORT $LN4@UpdateStat
$LN15@UpdateStat:

; 145  : 		case DOWN_LIMIT	:	m_lDownLimit--;		break;	// DownLimit		

  0006f	ff 89 70 04 00
	00		 dec	 DWORD PTR [ecx+1136]
$LN4@UpdateStat:

; 146  : 	}
; 147  : 
; 148  : 
; 149  : 	m_dDaebiRate += dDaebiRateChg;

  00075	f2 0f 10 45 10	 movsd	 xmm0, QWORD PTR _dDaebiRateChg$[ebp]
  0007a	f2 0f 58 81 78
	04 00 00	 addsd	 xmm0, QWORD PTR [ecx+1144]
  00082	f2 0f 11 81 78
	04 00 00	 movsd	 QWORD PTR [ecx+1144], xmm0

; 150  : 	UpdateInCtrl();

  0008a	e8 00 00 00 00	 call	 ?UpdateInCtrl@CJongStatusInTab@@AAEXXZ ; CJongStatusInTab::UpdateInCtrl

; 151  : }

  0008f	5d		 pop	 ebp
  00090	c2 10 00	 ret	 16			; 00000010H
  00093	90		 npad	 1
$LN17@UpdateStat:
  00094	00 00 00 00	 DD	 $LN6@UpdateStat
  00098	00 00 00 00	 DD	 $LN7@UpdateStat
  0009c	00 00 00 00	 DD	 $LN8@UpdateStat
  000a0	00 00 00 00	 DD	 $LN10@UpdateStat
  000a4	00 00 00 00	 DD	 $LN9@UpdateStat
$LN18@UpdateStat:
  000a8	00 00 00 00	 DD	 $LN11@UpdateStat
  000ac	00 00 00 00	 DD	 $LN12@UpdateStat
  000b0	00 00 00 00	 DD	 $LN13@UpdateStat
  000b4	00 00 00 00	 DD	 $LN15@UpdateStat
  000b8	00 00 00 00	 DD	 $LN14@UpdateStat
?UpdateStatus@CJongStatusInTab@@QAEXDDN@Z ENDP		; CJongStatusInTab::UpdateStatus
_TEXT	ENDS
; Function compile flags: /Ogtp
; File D:\git\src\IBK\IBK_DRFN\ProjSrc\SrcDrfn\Chart\MULTICHART\JongStatusInTab.cpp
;	COMDAT ?SetStatus@CJongStatusInTab@@QAEXJJJJJJN@Z
_TEXT	SEGMENT
_lUpLimit$ = 8						; size = 4
_lUp$ = 12						; size = 4
_lSteady$ = 16						; size = 4
_lDown$ = 20						; size = 4
_lDownLimit$ = 24					; size = 4
_lCnt$ = 28						; size = 4
_dDaebiRateTotal$ = 32					; size = 8
?SetStatus@CJongStatusInTab@@QAEXJJJJJJN@Z PROC		; CJongStatusInTab::SetStatus, COMDAT
; _this$ = ecx

; 117  : {

  00000	55		 push	 ebp
  00001	8b ec		 mov	 ebp, esp

; 118  : 	m_lUpLimit = lUpLimit;

  00003	8b 45 08	 mov	 eax, DWORD PTR _lUpLimit$[ebp]

; 119  : 	m_lUp = lUp;
; 120  : 	m_lSteady = lSteady;
; 121  : 	m_lDown = lDown;
; 122  : 	m_lDownLimit = lDownLimit;
; 123  : 	m_lCnt = lCnt;
; 124  : 	m_dDaebiRate = dDaebiRateTotal;

  00006	f2 0f 10 45 20	 movsd	 xmm0, QWORD PTR _dDaebiRateTotal$[ebp]
  0000b	89 81 60 04 00
	00		 mov	 DWORD PTR [ecx+1120], eax
  00011	8b 45 0c	 mov	 eax, DWORD PTR _lUp$[ebp]
  00014	89 81 64 04 00
	00		 mov	 DWORD PTR [ecx+1124], eax
  0001a	8b 45 10	 mov	 eax, DWORD PTR _lSteady$[ebp]
  0001d	89 81 68 04 00
	00		 mov	 DWORD PTR [ecx+1128], eax
  00023	8b 45 14	 mov	 eax, DWORD PTR _lDown$[ebp]
  00026	89 81 6c 04 00
	00		 mov	 DWORD PTR [ecx+1132], eax
  0002c	8b 45 18	 mov	 eax, DWORD PTR _lDownLimit$[ebp]
  0002f	89 81 70 04 00
	00		 mov	 DWORD PTR [ecx+1136], eax
  00035	8b 45 1c	 mov	 eax, DWORD PTR _lCnt$[ebp]
  00038	89 81 74 04 00
	00		 mov	 DWORD PTR [ecx+1140], eax
  0003e	f2 0f 11 81 78
	04 00 00	 movsd	 QWORD PTR [ecx+1144], xmm0

; 125  : 
; 126  : 	UpdateInCtrl();

  00046	e8 00 00 00 00	 call	 ?UpdateInCtrl@CJongStatusInTab@@AAEXXZ ; CJongStatusInTab::UpdateInCtrl

; 127  : }

  0004b	5d		 pop	 ebp
  0004c	c2 20 00	 ret	 32			; 00000020H
?SetStatus@CJongStatusInTab@@QAEXJJJJJJN@Z ENDP		; CJongStatusInTab::SetStatus
_TEXT	ENDS
; Function compile flags: /Ogtp
; File D:\git\src\IBK\IBK_DRFN\ProjSrc\SrcDrfn\Chart\MULTICHART\JongStatusInTab.cpp
;	COMDAT ?DoDataExchange@CJongStatusInTab@@MAEXPAVCDataExchange@@@Z
_TEXT	SEGMENT
_pDX$ = 8						; size = 4
?DoDataExchange@CJongStatusInTab@@MAEXPAVCDataExchange@@@Z PROC ; CJongStatusInTab::DoDataExchange, COMDAT
; _this$ = ecx

; 46   : {

  00000	55		 push	 ebp
  00001	8b ec		 mov	 ebp, esp
  00003	56		 push	 esi
  00004	57		 push	 edi

; 47   : 	CRscDlg::DoDataExchange(pDX);

  00005	8b 7d 08	 mov	 edi, DWORD PTR _pDX$[ebp]
  00008	8b f1		 mov	 esi, ecx
  0000a	57		 push	 edi
  0000b	e8 00 00 00 00	 call	 ?DoDataExchange@CRscDlg@@MAEXPAVCDataExchange@@@Z ; CRscDlg::DoDataExchange

; 48   : 	//{{AFX_DATA_MAP(CJongStatusInTab)
; 49   : 	DDX_Control(pDX, IDC_RATE, m_stRate);

  00010	8d 86 a8 00 00
	00		 lea	 eax, DWORD PTR [esi+168]
  00016	50		 push	 eax
  00017	68 e7 17 00 00	 push	 6119			; 000017e7H
  0001c	57		 push	 edi
  0001d	e8 00 00 00 00	 call	 ?DDX_Control@@YGXPAVCDataExchange@@HAAVCWnd@@@Z ; DDX_Control

; 50   : 	DDX_Control(pDX, IDC_UPLIMIT, m_stUpLimit);

  00022	8d 86 30 01 00
	00		 lea	 eax, DWORD PTR [esi+304]
  00028	50		 push	 eax
  00029	68 e0 17 00 00	 push	 6112			; 000017e0H
  0002e	57		 push	 edi
  0002f	e8 00 00 00 00	 call	 ?DDX_Control@@YGXPAVCDataExchange@@HAAVCWnd@@@Z ; DDX_Control

; 51   : 	DDX_Control(pDX, IDC_UP, m_stUp);

  00034	8d 86 b8 01 00
	00		 lea	 eax, DWORD PTR [esi+440]
  0003a	50		 push	 eax
  0003b	68 e1 17 00 00	 push	 6113			; 000017e1H
  00040	57		 push	 edi
  00041	e8 00 00 00 00	 call	 ?DDX_Control@@YGXPAVCDataExchange@@HAAVCWnd@@@Z ; DDX_Control

; 52   : 	DDX_Control(pDX, IDC_STEADY, m_stSteady);

  00046	8d 86 40 02 00
	00		 lea	 eax, DWORD PTR [esi+576]
  0004c	50		 push	 eax
  0004d	68 e4 17 00 00	 push	 6116			; 000017e4H
  00052	57		 push	 edi
  00053	e8 00 00 00 00	 call	 ?DDX_Control@@YGXPAVCDataExchange@@HAAVCWnd@@@Z ; DDX_Control

; 53   : 	DDX_Control(pDX, IDC_DOWNLIMIT, m_stDownLimit);

  00058	8d 86 c8 02 00
	00		 lea	 eax, DWORD PTR [esi+712]
  0005e	50		 push	 eax
  0005f	68 e3 17 00 00	 push	 6115			; 000017e3H
  00064	57		 push	 edi
  00065	e8 00 00 00 00	 call	 ?DDX_Control@@YGXPAVCDataExchange@@HAAVCWnd@@@Z ; DDX_Control

; 54   : 	DDX_Control(pDX, IDC_DOWN, m_stDown);

  0006a	8d 86 50 03 00
	00		 lea	 eax, DWORD PTR [esi+848]
  00070	50		 push	 eax
  00071	68 e2 17 00 00	 push	 6114			; 000017e2H
  00076	57		 push	 edi
  00077	e8 00 00 00 00	 call	 ?DDX_Control@@YGXPAVCDataExchange@@HAAVCWnd@@@Z ; DDX_Control

; 55   : 	DDX_Control(pDX, IDC_CNT, m_stCnt);

  0007c	8d 86 d8 03 00
	00		 lea	 eax, DWORD PTR [esi+984]
  00082	50		 push	 eax
  00083	68 e5 17 00 00	 push	 6117			; 000017e5H
  00088	57		 push	 edi
  00089	e8 00 00 00 00	 call	 ?DDX_Control@@YGXPAVCDataExchange@@HAAVCWnd@@@Z ; DDX_Control
  0008e	5f		 pop	 edi
  0008f	5e		 pop	 esi

; 56   : 	//}}AFX_DATA_MAP
; 57   : }

  00090	5d		 pop	 ebp
  00091	c2 04 00	 ret	 4
?DoDataExchange@CJongStatusInTab@@MAEXPAVCDataExchange@@@Z ENDP ; CJongStatusInTab::DoDataExchange
_TEXT	ENDS
; Function compile flags: /Ogtp
; File D:\git\src\IBK\IBK_DRFN\ProjSrc\SrcDrfn\Chart\MULTICHART\JongStatusInTab.cpp
; File C:\Program Files (x86)\Microsoft Visual Studio\2019\Community\VC\Tools\MSVC\14.29.30133\atlmfc\include\afxwin1.inl
; File D:\git\src\IBK\IBK_DRFN\ProjSrc\SrcDrfn\Chart\MULTICHART\JongStatusInTab.cpp
;	COMDAT ??0CJongStatusInTab@@QAE@PAVCWnd@@@Z
_TEXT	SEGMENT
_this$ = -16						; size = 4
__$EHRec$ = -12						; size = 12
_pParent$ = 8						; size = 4
??0CJongStatusInTab@@QAE@PAVCWnd@@@Z PROC		; CJongStatusInTab::CJongStatusInTab, COMDAT
; _this$ = ecx

; 19   : {

  00000	55		 push	 ebp
  00001	8b ec		 mov	 ebp, esp
  00003	6a ff		 push	 -1
  00005	68 00 00 00 00	 push	 __ehhandler$??0CJongStatusInTab@@QAE@PAVCWnd@@@Z
  0000a	64 a1 00 00 00
	00		 mov	 eax, DWORD PTR fs:0
  00010	50		 push	 eax
  00011	51		 push	 ecx
  00012	56		 push	 esi
  00013	a1 00 00 00 00	 mov	 eax, DWORD PTR ___security_cookie
  00018	33 c5		 xor	 eax, ebp
  0001a	50		 push	 eax
  0001b	8d 45 f4	 lea	 eax, DWORD PTR __$EHRec$[ebp]
  0001e	64 a3 00 00 00
	00		 mov	 DWORD PTR fs:0, eax
  00024	8b f1		 mov	 esi, ecx
  00026	89 75 f0	 mov	 DWORD PTR _this$[ebp], esi

; 18   : 	: CRscDlg(CJongStatusInTab::IDD, pParent)

  00029	ff 75 08	 push	 DWORD PTR _pParent$[ebp]
  0002c	68 7d 17 00 00	 push	 6013			; 0000177dH
  00031	e8 00 00 00 00	 call	 ??0CRscDlg@@QAE@IPAVCWnd@@@Z ; CRscDlg::CRscDlg

; 19   : {

  00036	6a 00		 push	 0
  00038	8d 8e a8 00 00
	00		 lea	 ecx, DWORD PTR [esi+168]
  0003e	c7 45 fc 00 00
	00 00		 mov	 DWORD PTR __$EHRec$[ebp+8], 0
  00045	c7 06 00 00 00
	00		 mov	 DWORD PTR [esi], OFFSET ??_7CJongStatusInTab@@6B@
  0004b	e8 00 00 00 00	 call	 ??0CExStatic@@QAE@H@Z	; CExStatic::CExStatic
  00050	6a 00		 push	 0
  00052	8d 8e 30 01 00
	00		 lea	 ecx, DWORD PTR [esi+304]
  00058	c6 45 fc 01	 mov	 BYTE PTR __$EHRec$[ebp+8], 1
  0005c	e8 00 00 00 00	 call	 ??0CExStatic@@QAE@H@Z	; CExStatic::CExStatic
  00061	6a 00		 push	 0
  00063	8d 8e b8 01 00
	00		 lea	 ecx, DWORD PTR [esi+440]
  00069	c6 45 fc 02	 mov	 BYTE PTR __$EHRec$[ebp+8], 2
  0006d	e8 00 00 00 00	 call	 ??0CExStatic@@QAE@H@Z	; CExStatic::CExStatic
  00072	6a 00		 push	 0
  00074	8d 8e 40 02 00
	00		 lea	 ecx, DWORD PTR [esi+576]
  0007a	c6 45 fc 03	 mov	 BYTE PTR __$EHRec$[ebp+8], 3
  0007e	e8 00 00 00 00	 call	 ??0CExStatic@@QAE@H@Z	; CExStatic::CExStatic
  00083	6a 00		 push	 0
  00085	8d 8e c8 02 00
	00		 lea	 ecx, DWORD PTR [esi+712]
  0008b	c6 45 fc 04	 mov	 BYTE PTR __$EHRec$[ebp+8], 4
  0008f	e8 00 00 00 00	 call	 ??0CExStatic@@QAE@H@Z	; CExStatic::CExStatic
  00094	6a 00		 push	 0
  00096	8d 8e 50 03 00
	00		 lea	 ecx, DWORD PTR [esi+848]
  0009c	c6 45 fc 05	 mov	 BYTE PTR __$EHRec$[ebp+8], 5
  000a0	e8 00 00 00 00	 call	 ??0CExStatic@@QAE@H@Z	; CExStatic::CExStatic
  000a5	6a 00		 push	 0
  000a7	8d 8e d8 03 00
	00		 lea	 ecx, DWORD PTR [esi+984]
  000ad	c6 45 fc 06	 mov	 BYTE PTR __$EHRec$[ebp+8], 6
  000b1	e8 00 00 00 00	 call	 ??0CExStatic@@QAE@H@Z	; CExStatic::CExStatic
; File C:\Program Files (x86)\Microsoft Visual Studio\2019\Community\VC\Tools\MSVC\14.29.30133\atlmfc\include\afxwin1.inl

; 70   : 	{ m_hObject = NULL; }

  000b6	c7 86 84 04 00
	00 00 00 00 00	 mov	 DWORD PTR [esi+1156], 0

; 128  : 	{ }

  000c0	c7 86 80 04 00
	00 00 00 00 00	 mov	 DWORD PTR [esi+1152], OFFSET ??_7CBrush@@6B@

; 70   : 	{ m_hObject = NULL; }

  000ca	c7 86 8c 04 00
	00 00 00 00 00	 mov	 DWORD PTR [esi+1164], 0

; 128  : 	{ }

  000d4	c7 86 88 04 00
	00 00 00 00 00	 mov	 DWORD PTR [esi+1160], OFFSET ??_7CBrush@@6B@

; 70   : 	{ m_hObject = NULL; }

  000de	c7 86 94 04 00
	00 00 00 00 00	 mov	 DWORD PTR [esi+1172], 0

; 128  : 	{ }

  000e8	c7 86 90 04 00
	00 00 00 00 00	 mov	 DWORD PTR [esi+1168], OFFSET ??_7CBrush@@6B@

; 70   : 	{ m_hObject = NULL; }

  000f2	c7 86 9c 04 00
	00 00 00 00 00	 mov	 DWORD PTR [esi+1180], 0

; 128  : 	{ }

  000fc	c7 86 98 04 00
	00 00 00 00 00	 mov	 DWORD PTR [esi+1176], OFFSET ??_7CBrush@@6B@

; 70   : 	{ m_hObject = NULL; }

  00106	c7 86 a4 04 00
	00 00 00 00 00	 mov	 DWORD PTR [esi+1188], 0

; 128  : 	{ }

  00110	c7 86 a0 04 00
	00 00 00 00 00	 mov	 DWORD PTR [esi+1184], OFFSET ??_7CBrush@@6B@

; 70   : 	{ m_hObject = NULL; }

  0011a	c7 86 c0 04 00
	00 00 00 00 00	 mov	 DWORD PTR [esi+1216], 0

; 128  : 	{ }

  00124	c7 86 bc 04 00
	00 00 00 00 00	 mov	 DWORD PTR [esi+1212], OFFSET ??_7CBrush@@6B@
; File D:\git\src\IBK\IBK_DRFN\ProjSrc\SrcDrfn\Chart\MULTICHART\JongStatusInTab.cpp

; 19   : {

  0012e	8d 8e c8 04 00
	00		 lea	 ecx, DWORD PTR [esi+1224]
  00134	c6 45 fc 0d	 mov	 BYTE PTR __$EHRec$[ebp+8], 13 ; 0000000dH
  00138	e8 00 00 00 00	 call	 ??0CToolTipCtrl@@QAE@XZ	; CToolTipCtrl::CToolTipCtrl
  0013d	0f 57 c0	 xorps	 xmm0, xmm0

; 20   : 	//{{AFX_DATA_INIT(CJongStatusInTab)
; 21   : 		// NOTE: the ClassWizard will add member initialization here
; 22   : 	//}}AFX_DATA_INIT
; 23   : 	m_lUpLimit = 0;

  00140	c7 86 60 04 00
	00 00 00 00 00	 mov	 DWORD PTR [esi+1120], 0

; 24   : 	m_lUp = 0;

  0014a	c7 86 64 04 00
	00 00 00 00 00	 mov	 DWORD PTR [esi+1124], 0

; 25   : 	m_lSteady = 0;
; 26   : 	m_lDown = 0;
; 27   : 	m_lDownLimit = 0;
; 28   : 	m_lCnt = 0;
; 29   : 	m_dDaebiRate = 0;
; 30   : //	m_crUpLimit = RGB(190,2,1);
; 31   : //	m_crUp = RGB(221,130,47);
; 32   : //	m_crSteady = RGB(111,126,155);
; 33   : //	m_crDown = RGB(107,191,228);
; 34   : //	m_crDownLimit = RGB(1,83,165);
; 35   : //	m_crBk = CRLEFTBARBACK;
; 36   : 	m_crUpLimit = RGB(233,0,0);			// »óÇÑ 
; 37   : 	m_crUp = RGB(237,146,149);			// »ó½Â
; 38   : 	m_crSteady = RGB(191,195,200);		// º¸ÇÕ
; 39   : 	m_crDown = RGB(164,185,206);		// ÇÏ¶ô
; 40   : 	m_crDownLimit = RGB(155,155,253);		// ÇÏÇÑ
; 41   : 	m_crBk = CRBACK;
; 42   : }

  00154	8b c6		 mov	 eax, esi
  00156	c7 86 68 04 00
	00 00 00 00 00	 mov	 DWORD PTR [esi+1128], 0
  00160	c7 86 6c 04 00
	00 00 00 00 00	 mov	 DWORD PTR [esi+1132], 0
  0016a	c7 86 70 04 00
	00 00 00 00 00	 mov	 DWORD PTR [esi+1136], 0
  00174	c7 86 74 04 00
	00 00 00 00 00	 mov	 DWORD PTR [esi+1140], 0
  0017e	f2 0f 11 86 78
	04 00 00	 movsd	 QWORD PTR [esi+1144], xmm0
  00186	c7 86 a8 04 00
	00 e9 00 00 00	 mov	 DWORD PTR [esi+1192], 233 ; 000000e9H
  00190	c7 86 ac 04 00
	00 ed 92 95 00	 mov	 DWORD PTR [esi+1196], 9802477 ; 009592edH
  0019a	c7 86 b0 04 00
	00 bf c3 c8 00	 mov	 DWORD PTR [esi+1200], 13157311 ; 00c8c3bfH
  001a4	c7 86 b4 04 00
	00 a4 b9 ce 00	 mov	 DWORD PTR [esi+1204], 13547940 ; 00ceb9a4H
  001ae	c7 86 b8 04 00
	00 9b 9b fd 00	 mov	 DWORD PTR [esi+1208], 16620443 ; 00fd9b9bH
  001b8	c7 86 c4 04 00
	00 de e4 ea 00	 mov	 DWORD PTR [esi+1220], 15394014 ; 00eae4deH
  001c2	8b 4d f4	 mov	 ecx, DWORD PTR __$EHRec$[ebp]
  001c5	64 89 0d 00 00
	00 00		 mov	 DWORD PTR fs:0, ecx
  001cc	59		 pop	 ecx
  001cd	5e		 pop	 esi
  001ce	8b e5		 mov	 esp, ebp
  001d0	5d		 pop	 ebp
  001d1	c2 04 00	 ret	 4
_TEXT	ENDS
;	COMDAT text$x
text$x	SEGMENT
__unwindfunclet$??0CJongStatusInTab@@QAE@PAVCWnd@@@Z$0:
  00000	8b 4d f0	 mov	 ecx, DWORD PTR _this$[ebp]
  00003	e9 00 00 00 00	 jmp	 ??1CRscDlg@@UAE@XZ
__unwindfunclet$??0CJongStatusInTab@@QAE@PAVCWnd@@@Z$1:
  00008	8b 4d f0	 mov	 ecx, DWORD PTR _this$[ebp]
  0000b	81 c1 a8 00 00
	00		 add	 ecx, 168		; 000000a8H
  00011	e9 00 00 00 00	 jmp	 ??1CExStatic@@UAE@XZ	; CExStatic::~CExStatic
__unwindfunclet$??0CJongStatusInTab@@QAE@PAVCWnd@@@Z$2:
  00016	8b 4d f0	 mov	 ecx, DWORD PTR _this$[ebp]
  00019	81 c1 30 01 00
	00		 add	 ecx, 304		; 00000130H
  0001f	e9 00 00 00 00	 jmp	 ??1CExStatic@@UAE@XZ	; CExStatic::~CExStatic
__unwindfunclet$??0CJongStatusInTab@@QAE@PAVCWnd@@@Z$3:
  00024	8b 4d f0	 mov	 ecx, DWORD PTR _this$[ebp]
  00027	81 c1 b8 01 00
	00		 add	 ecx, 440		; 000001b8H
  0002d	e9 00 00 00 00	 jmp	 ??1CExStatic@@UAE@XZ	; CExStatic::~CExStatic
__unwindfunclet$??0CJongStatusInTab@@QAE@PAVCWnd@@@Z$4:
  00032	8b 4d f0	 mov	 ecx, DWORD PTR _this$[ebp]
  00035	81 c1 40 02 00
	00		 add	 ecx, 576		; 00000240H
  0003b	e9 00 00 00 00	 jmp	 ??1CExStatic@@UAE@XZ	; CExStatic::~CExStatic
__unwindfunclet$??0CJongStatusInTab@@QAE@PAVCWnd@@@Z$5:
  00040	8b 4d f0	 mov	 ecx, DWORD PTR _this$[ebp]
  00043	81 c1 c8 02 00
	00		 add	 ecx, 712		; 000002c8H
  00049	e9 00 00 00 00	 jmp	 ??1CExStatic@@UAE@XZ	; CExStatic::~CExStatic
__unwindfunclet$??0CJongStatusInTab@@QAE@PAVCWnd@@@Z$6:
  0004e	8b 4d f0	 mov	 ecx, DWORD PTR _this$[ebp]
  00051	81 c1 50 03 00
	00		 add	 ecx, 848		; 00000350H
  00057	e9 00 00 00 00	 jmp	 ??1CExStatic@@UAE@XZ	; CExStatic::~CExStatic
__unwindfunclet$??0CJongStatusInTab@@QAE@PAVCWnd@@@Z$7:
  0005c	8b 4d f0	 mov	 ecx, DWORD PTR _this$[ebp]
  0005f	81 c1 d8 03 00
	00		 add	 ecx, 984		; 000003d8H
  00065	e9 00 00 00 00	 jmp	 ??1CExStatic@@UAE@XZ	; CExStatic::~CExStatic
__unwindfunclet$??0CJongStatusInTab@@QAE@PAVCWnd@@@Z$8:
  0006a	8b 4d f0	 mov	 ecx, DWORD PTR _this$[ebp]
  0006d	81 c1 80 04 00
	00		 add	 ecx, 1152		; 00000480H
  00073	e9 00 00 00 00	 jmp	 ??1CBrush@@UAE@XZ	; CBrush::~CBrush
__unwindfunclet$??0CJongStatusInTab@@QAE@PAVCWnd@@@Z$9:
  00078	8b 4d f0	 mov	 ecx, DWORD PTR _this$[ebp]
  0007b	81 c1 88 04 00
	00		 add	 ecx, 1160		; 00000488H
  00081	e9 00 00 00 00	 jmp	 ??1CBrush@@UAE@XZ	; CBrush::~CBrush
__unwindfunclet$??0CJongStatusInTab@@QAE@PAVCWnd@@@Z$10:
  00086	8b 4d f0	 mov	 ecx, DWORD PTR _this$[ebp]
  00089	81 c1 90 04 00
	00		 add	 ecx, 1168		; 00000490H
  0008f	e9 00 00 00 00	 jmp	 ??1CBrush@@UAE@XZ	; CBrush::~CBrush
__unwindfunclet$??0CJongStatusInTab@@QAE@PAVCWnd@@@Z$11:
  00094	8b 4d f0	 mov	 ecx, DWORD PTR _this$[ebp]
  00097	81 c1 98 04 00
	00		 add	 ecx, 1176		; 00000498H
  0009d	e9 00 00 00 00	 jmp	 ??1CBrush@@UAE@XZ	; CBrush::~CBrush
__unwindfunclet$??0CJongStatusInTab@@QAE@PAVCWnd@@@Z$12:
  000a2	8b 4d f0	 mov	 ecx, DWORD PTR _this$[ebp]
  000a5	81 c1 a0 04 00
	00		 add	 ecx, 1184		; 000004a0H
  000ab	e9 00 00 00 00	 jmp	 ??1CBrush@@UAE@XZ	; CBrush::~CBrush
__unwindfunclet$??0CJongStatusInTab@@QAE@PAVCWnd@@@Z$13:
  000b0	8b 4d f0	 mov	 ecx, DWORD PTR _this$[ebp]
  000b3	81 c1 bc 04 00
	00		 add	 ecx, 1212		; 000004bcH
  000b9	e9 00 00 00 00	 jmp	 ??1CBrush@@UAE@XZ	; CBrush::~CBrush
  000be	cc		 int	 3
  000bf	cc		 int	 3
  000c0	cc		 int	 3
  000c1	cc		 int	 3
  000c2	cc		 int	 3
__ehhandler$??0CJongStatusInTab@@QAE@PAVCWnd@@@Z:
  000c3	90		 npad	 1
  000c4	90		 npad	 1
  000c5	8b 54 24 08	 mov	 edx, DWORD PTR [esp+8]
  000c9	8d 42 0c	 lea	 eax, DWORD PTR [edx+12]
  000cc	8b 4a f4	 mov	 ecx, DWORD PTR [edx-12]
  000cf	33 c8		 xor	 ecx, eax
  000d1	e8 00 00 00 00	 call	 @__security_check_cookie@4
  000d6	b8 00 00 00 00	 mov	 eax, OFFSET __ehfuncinfo$??0CJongStatusInTab@@QAE@PAVCWnd@@@Z
  000db	e9 00 00 00 00	 jmp	 ___CxxFrameHandler3
text$x	ENDS
??0CJongStatusInTab@@QAE@PAVCWnd@@@Z ENDP		; CJongStatusInTab::CJongStatusInTab
; Function compile flags: /Ogtp
;	COMDAT ??1CRscDlg@@UAE@XZ
_TEXT	SEGMENT
??1CRscDlg@@UAE@XZ PROC					; CRscDlg::~CRscDlg, COMDAT
; _this$ = ecx
  00000	e9 00 00 00 00	 jmp	 ??1CDialog@@UAE@XZ	; CDialog::~CDialog
??1CRscDlg@@UAE@XZ ENDP					; CRscDlg::~CRscDlg
_TEXT	ENDS
; Function compile flags: /Ogtp
; File C:\Program Files (x86)\Microsoft Visual Studio\2019\Community\VC\Tools\MSVC\14.29.30133\atlmfc\include\afxwin2.inl
;	COMDAT ?EndModalState@CWnd@@UAEXXZ
_TEXT	SEGMENT
?EndModalState@CWnd@@UAEXXZ PROC			; CWnd::EndModalState, COMDAT
; _this$ = ecx

; 567  : 	{ ::EnableWindow(m_hWnd, TRUE); }

  00000	6a 01		 push	 1
  00002	ff 71 20	 push	 DWORD PTR [ecx+32]
  00005	ff 15 00 00 00
	00		 call	 DWORD PTR __imp__EnableWindow@8
  0000b	c3		 ret	 0
?EndModalState@CWnd@@UAEXXZ ENDP			; CWnd::EndModalState
_TEXT	ENDS
; Function compile flags: /Ogtp
; File C:\Program Files (x86)\Microsoft Visual Studio\2019\Community\VC\Tools\MSVC\14.29.30133\atlmfc\include\afxwin2.inl
;	COMDAT ?BeginModalState@CWnd@@UAEXXZ
_TEXT	SEGMENT
?BeginModalState@CWnd@@UAEXXZ PROC			; CWnd::BeginModalState, COMDAT
; _this$ = ecx

; 565  : 	{ ::EnableWindow(m_hWnd, FALSE); }

  00000	6a 00		 push	 0
  00002	ff 71 20	 push	 DWORD PTR [ecx+32]
  00005	ff 15 00 00 00
	00		 call	 DWORD PTR __imp__EnableWindow@8
  0000b	c3		 ret	 0
?BeginModalState@CWnd@@UAEXXZ ENDP			; CWnd::BeginModalState
_TEXT	ENDS
; Function compile flags: /Ogtp
; File C:\Program Files (x86)\Microsoft Visual Studio\2019\Community\VC\Tools\MSVC\14.29.30133\atlmfc\include\afxwin1.inl
; File C:\Program Files (x86)\Microsoft Visual Studio\2019\Community\VC\Tools\MSVC\14.29.30133\atlmfc\include\afx.inl
;	COMDAT ??_GCBrush@@UAEPAXI@Z
_TEXT	SEGMENT
___flags$ = 8						; size = 4
??_GCBrush@@UAEPAXI@Z PROC				; CBrush::`scalar deleting destructor', COMDAT
; _this$ = ecx
  00000	55		 push	 ebp
  00001	8b ec		 mov	 ebp, esp
; File C:\Program Files (x86)\Microsoft Visual Studio\2019\Community\VC\Tools\MSVC\14.29.30133\atlmfc\include\afxwin1.inl

; 130  : 	{ }

  00003	56		 push	 esi
  00004	8b f1		 mov	 esi, ecx
  00006	c7 06 00 00 00
	00		 mov	 DWORD PTR [esi], OFFSET ??_7CBrush@@6B@
  0000c	e8 00 00 00 00	 call	 ??1CGdiObject@@UAE@XZ	; CGdiObject::~CGdiObject
  00011	8b 45 08	 mov	 eax, DWORD PTR ___flags$[ebp]
  00014	a8 01		 test	 al, 1
  00016	74 1f		 je	 SHORT $LN12@scalar
  00018	a8 04		 test	 al, 4
  0001a	75 10		 jne	 SHORT $LN3@scalar
; File C:\Program Files (x86)\Microsoft Visual Studio\2019\Community\VC\Tools\MSVC\14.29.30133\atlmfc\include\afx.inl

; 112  : 	{ ::operator delete(p); }

  0001c	56		 push	 esi
  0001d	e8 00 00 00 00	 call	 ??3@YAXPAX@Z		; operator delete
  00022	83 c4 04	 add	 esp, 4
  00025	8b c6		 mov	 eax, esi
  00027	5e		 pop	 esi
  00028	5d		 pop	 ebp
  00029	c2 04 00	 ret	 4
$LN3@scalar:
  0002c	6a 08		 push	 8
  0002e	56		 push	 esi
  0002f	e8 00 00 00 00	 call	 ?__global_delete@@YAXPAXI@Z ; __global_delete
  00034	83 c4 08	 add	 esp, 8
$LN12@scalar:
  00037	8b c6		 mov	 eax, esi
  00039	5e		 pop	 esi
  0003a	5d		 pop	 ebp
  0003b	c2 04 00	 ret	 4
??_GCBrush@@UAEPAXI@Z ENDP				; CBrush::`scalar deleting destructor'
_TEXT	ENDS
; Function compile flags: /Ogtp
; File C:\Program Files (x86)\Microsoft Visual Studio\2019\Community\VC\Tools\MSVC\14.29.30133\atlmfc\include\afxwin1.inl
;	COMDAT ??1CBrush@@UAE@XZ
_TEXT	SEGMENT
??1CBrush@@UAE@XZ PROC					; CBrush::~CBrush, COMDAT
; _this$ = ecx

; 130  : 	{ }

  00000	c7 01 00 00 00
	00		 mov	 DWORD PTR [ecx], OFFSET ??_7CBrush@@6B@
  00006	e9 00 00 00 00	 jmp	 ??1CGdiObject@@UAE@XZ	; CGdiObject::~CGdiObject
??1CBrush@@UAE@XZ ENDP					; CBrush::~CBrush
_TEXT	ENDS
; Function compile flags: /Ogtp
; File C:\Program Files (x86)\Microsoft Visual Studio\2019\Community\VC\Tools\MSVC\14.29.30133\atlmfc\include\afx.inl
;	COMDAT ??_GCGdiObject@@UAEPAXI@Z
_TEXT	SEGMENT
___flags$ = 8						; size = 4
??_GCGdiObject@@UAEPAXI@Z PROC				; CGdiObject::`scalar deleting destructor', COMDAT
; _this$ = ecx
  00000	55		 push	 ebp
  00001	8b ec		 mov	 ebp, esp
  00003	56		 push	 esi
  00004	8b f1		 mov	 esi, ecx
  00006	e8 00 00 00 00	 call	 ??1CGdiObject@@UAE@XZ	; CGdiObject::~CGdiObject
  0000b	8b 45 08	 mov	 eax, DWORD PTR ___flags$[ebp]
  0000e	a8 01		 test	 al, 1
  00010	74 1f		 je	 SHORT $LN9@scalar
  00012	a8 04		 test	 al, 4
  00014	75 10		 jne	 SHORT $LN3@scalar

; 112  : 	{ ::operator delete(p); }

  00016	56		 push	 esi
  00017	e8 00 00 00 00	 call	 ??3@YAXPAX@Z		; operator delete
  0001c	83 c4 04	 add	 esp, 4
  0001f	8b c6		 mov	 eax, esi
  00021	5e		 pop	 esi
  00022	5d		 pop	 ebp
  00023	c2 04 00	 ret	 4
$LN3@scalar:
  00026	6a 08		 push	 8
  00028	56		 push	 esi
  00029	e8 00 00 00 00	 call	 ?__global_delete@@YAXPAXI@Z ; __global_delete
  0002e	83 c4 08	 add	 esp, 8
$LN9@scalar:
  00031	8b c6		 mov	 eax, esi
  00033	5e		 pop	 esi
  00034	5d		 pop	 ebp
  00035	c2 04 00	 ret	 4
??_GCGdiObject@@UAEPAXI@Z ENDP				; CGdiObject::`scalar deleting destructor'
_TEXT	ENDS
; Function compile flags: /Ogtp
; File C:\Program Files (x86)\Microsoft Visual Studio\2019\Community\VC\Tools\MSVC\14.29.30133\atlmfc\include\afxwin1.inl
;	COMDAT ??1CGdiObject@@UAE@XZ
_TEXT	SEGMENT
_pException$2 = -540					; size = 4
_strMsg$3 = -536					; size = 4
_szErrorMessage$4 = -532				; size = 512
__$ArrayPad$ = -20					; size = 4
__$EHRec$ = -16						; size = 16
??1CGdiObject@@UAE@XZ PROC				; CGdiObject::~CGdiObject, COMDAT
; _this$ = ecx

; 74   : {

  00000	55		 push	 ebp
  00001	8b ec		 mov	 ebp, esp
  00003	6a ff		 push	 -1
  00005	68 00 00 00 00	 push	 __ehhandler$??1CGdiObject@@UAE@XZ
  0000a	64 a1 00 00 00
	00		 mov	 eax, DWORD PTR fs:0
  00010	50		 push	 eax
  00011	81 ec 10 02 00
	00		 sub	 esp, 528		; 00000210H
  00017	a1 00 00 00 00	 mov	 eax, DWORD PTR ___security_cookie
  0001c	33 c5		 xor	 eax, ebp
  0001e	89 45 ec	 mov	 DWORD PTR __$ArrayPad$[ebp], eax
  00021	53		 push	 ebx
  00022	56		 push	 esi
  00023	57		 push	 edi
  00024	50		 push	 eax
  00025	8d 45 f4	 lea	 eax, DWORD PTR __$EHRec$[ebp+4]
  00028	64 a3 00 00 00
	00		 mov	 DWORD PTR fs:0, eax
  0002e	89 65 f0	 mov	 DWORD PTR __$EHRec$[ebp], esp
  00031	c7 01 00 00 00
	00		 mov	 DWORD PTR [ecx], OFFSET ??_7CGdiObject@@6B@

; 75   : 	AFX_BEGIN_DESTRUCTOR

  00037	c7 45 fc 00 00
	00 00		 mov	 DWORD PTR __$EHRec$[ebp+12], 0

; 76   : 	DeleteObject();

  0003e	e8 00 00 00 00	 call	 ?DeleteObject@CGdiObject@@QAEHXZ ; CGdiObject::DeleteObject
$LN18@CGdiObject:

; 78   : }

  00043	8b 4d f4	 mov	 ecx, DWORD PTR __$EHRec$[ebp+4]
  00046	64 89 0d 00 00
	00 00		 mov	 DWORD PTR fs:0, ecx
  0004d	59		 pop	 ecx
  0004e	5f		 pop	 edi
  0004f	5e		 pop	 esi
  00050	5b		 pop	 ebx
  00051	8b 4d ec	 mov	 ecx, DWORD PTR __$ArrayPad$[ebp]
  00054	33 cd		 xor	 ecx, ebp
  00056	e8 00 00 00 00	 call	 @__security_check_cookie@4
  0005b	8b e5		 mov	 esp, ebp
  0005d	5d		 pop	 ebp
  0005e	c3		 ret	 0
__catch$??1CGdiObject@@UAE@XZ$0:

; 77   : 	AFX_END_DESTRUCTOR

  0005f	8d 8d e8 fd ff
	ff		 lea	 ecx, DWORD PTR _strMsg$3[ebp]
  00065	ff 15 00 00 00
	00		 call	 DWORD PTR __imp_??0?$CStringT@DV?$StrTraitMFC_DLL@DV?$ChTraitsCRT@D@ATL@@@@@ATL@@QAE@XZ
  0006b	8b b5 e4 fd ff
	ff		 mov	 esi, DWORD PTR _pException$2[ebp]
  00071	8d 8d ec fd ff
	ff		 lea	 ecx, DWORD PTR _szErrorMessage$4[ebp]
  00077	6a 00		 push	 0
  00079	68 00 02 00 00	 push	 512			; 00000200H
  0007e	51		 push	 ecx
  0007f	8b 06		 mov	 eax, DWORD PTR [esi]
  00081	8b ce		 mov	 ecx, esi
  00083	c6 45 fc 02	 mov	 BYTE PTR __$EHRec$[ebp+12], 2
  00087	ff 50 14	 call	 DWORD PTR [eax+20]
  0008a	85 c0		 test	 eax, eax
  0008c	74 2a		 je	 SHORT $LN9@CGdiObject
  0008e	8d 85 ec fd ff
	ff		 lea	 eax, DWORD PTR _szErrorMessage$4[ebp]
  00094	50		 push	 eax
  00095	6a 4d		 push	 77			; 0000004dH
  00097	68 00 00 00 00	 push	 OFFSET ??_C@_0HD@JJCHHHNK@C?3?2Program?5Files?5?$CIx86?$CJ?2Microsof@
  0009c	68 00 00 00 00	 push	 OFFSET ??_C@_0BP@OIEOKIDM@Exception?5thrown?5in?5destructor@
  000a1	8d 85 e8 fd ff
	ff		 lea	 eax, DWORD PTR _strMsg$3[ebp]
  000a7	68 00 00 00 00	 push	 OFFSET ??_C@_0BB@HBOOMJBF@?$CFTs?5?$CI?$CFTs?3?$CFd?$CJ?6?$CFTs@
  000ac	50		 push	 eax
  000ad	ff 15 00 00 00
	00		 call	 DWORD PTR __imp_?Format@?$CStringT@DV?$StrTraitMFC_DLL@DV?$ChTraitsCRT@D@ATL@@@@@ATL@@QAAXPBDZZ
  000b3	83 c4 18	 add	 esp, 24			; 00000018H
  000b6	eb 21		 jmp	 SHORT $LN10@CGdiObject
$LN9@CGdiObject:
  000b8	6a 4d		 push	 77			; 0000004dH
  000ba	68 00 00 00 00	 push	 OFFSET ??_C@_0HD@JJCHHHNK@C?3?2Program?5Files?5?$CIx86?$CJ?2Microsof@
  000bf	68 00 00 00 00	 push	 OFFSET ??_C@_0BP@OIEOKIDM@Exception?5thrown?5in?5destructor@
  000c4	8d 85 e8 fd ff
	ff		 lea	 eax, DWORD PTR _strMsg$3[ebp]
  000ca	68 00 00 00 00	 push	 OFFSET ??_C@_0N@OMEMOKLE@?$CFTs?5?$CI?$CFTs?3?$CFd?$CJ@
  000cf	50		 push	 eax
  000d0	ff 15 00 00 00
	00		 call	 DWORD PTR __imp_?Format@?$CStringT@DV?$StrTraitMFC_DLL@DV?$ChTraitsCRT@D@ATL@@@@@ATL@@QAAXPBDZZ
  000d6	83 c4 14	 add	 esp, 20			; 00000014H
$LN10@CGdiObject:
  000d9	6a 00		 push	 0
  000db	6a 00		 push	 0
  000dd	ff b5 e8 fd ff
	ff		 push	 DWORD PTR _strMsg$3[ebp]
  000e3	e8 00 00 00 00	 call	 ?AfxMessageBox@@YGHPBDII@Z ; AfxMessageBox
  000e8	8d 8d e8 fd ff
	ff		 lea	 ecx, DWORD PTR _strMsg$3[ebp]
  000ee	ff 15 00 00 00
	00		 call	 DWORD PTR __imp_??1?$CStringT@DV?$StrTraitMFC_DLL@DV?$ChTraitsCRT@D@ATL@@@@@ATL@@QAE@XZ
  000f4	8b 06		 mov	 eax, DWORD PTR [esi]
  000f6	8b ce		 mov	 ecx, esi
  000f8	6a 01		 push	 1
  000fa	ff 50 04	 call	 DWORD PTR [eax+4]
  000fd	b8 00 00 00 00	 mov	 eax, $LN18@CGdiObject
  00102	c3		 ret	 0
_TEXT	ENDS
;	COMDAT text$x
text$x	SEGMENT
__unwindfunclet$??1CGdiObject@@UAE@XZ$2:
  00000	8d 8d e8 fd ff
	ff		 lea	 ecx, DWORD PTR _strMsg$3[ebp]
  00006	ff 25 00 00 00
	00		 jmp	 DWORD PTR __imp_??1?$CStringT@DV?$StrTraitMFC_DLL@DV?$ChTraitsCRT@D@ATL@@@@@ATL@@QAE@XZ
  0000c	cc		 int	 3
  0000d	cc		 int	 3
  0000e	cc		 int	 3
  0000f	cc		 int	 3
  00010	cc		 int	 3
__ehhandler$??1CGdiObject@@UAE@XZ:
  00011	90		 npad	 1
  00012	90		 npad	 1
  00013	8b 54 24 08	 mov	 edx, DWORD PTR [esp+8]
  00017	8d 42 0c	 lea	 eax, DWORD PTR [edx+12]
  0001a	8b 8a e0 fd ff
	ff		 mov	 ecx, DWORD PTR [edx-544]
  00020	33 c8		 xor	 ecx, eax
  00022	e8 00 00 00 00	 call	 @__security_check_cookie@4
  00027	8b 4a f8	 mov	 ecx, DWORD PTR [edx-8]
  0002a	33 c8		 xor	 ecx, eax
  0002c	e8 00 00 00 00	 call	 @__security_check_cookie@4
  00031	b8 00 00 00 00	 mov	 eax, OFFSET __ehfuncinfo$??1CGdiObject@@UAE@XZ
  00036	e9 00 00 00 00	 jmp	 ___CxxFrameHandler3
text$x	ENDS
??1CGdiObject@@UAE@XZ ENDP				; CGdiObject::~CGdiObject
; Function compile flags: /Ogtp
; File C:\Program Files (x86)\Microsoft Visual Studio\2019\Community\VC\Tools\MSVC\14.29.30133\atlmfc\include\afx.inl
;	COMDAT ?Dump@CObject@@UBEXAAVCDumpContext@@@Z
_TEXT	SEGMENT
___formal$ = 8						; size = 4
?Dump@CObject@@UBEXAAVCDumpContext@@@Z PROC		; CObject::Dump, COMDAT
; _this$ = ecx

; 122  : 	{ /* no dumping in release builds */ }

  00000	c2 04 00	 ret	 4
?Dump@CObject@@UBEXAAVCDumpContext@@@Z ENDP		; CObject::Dump
_TEXT	ENDS
; Function compile flags: /Ogtp
; File C:\Program Files (x86)\Microsoft Visual Studio\2019\Community\VC\Tools\MSVC\14.29.30133\atlmfc\include\afx.inl
;	COMDAT ?AssertValid@CObject@@UBEXXZ
_TEXT	SEGMENT
?AssertValid@CObject@@UBEXXZ PROC			; CObject::AssertValid, COMDAT
; _this$ = ecx

; 120  : 	{ /* no asserts in release builds */ }

  00000	c2 00 00	 ret	 0
?AssertValid@CObject@@UBEXXZ ENDP			; CObject::AssertValid
_TEXT	ENDS
; Function compile flags: /Ogtp
; File C:\Program Files (x86)\Microsoft Visual Studio\2019\Community\VC\Tools\MSVC\14.29.30133\atlmfc\include\afx.inl
;	COMDAT ?Serialize@CObject@@UAEXAAVCArchive@@@Z
_TEXT	SEGMENT
___formal$ = 8						; size = 4
?Serialize@CObject@@UAEXAAVCArchive@@@Z PROC		; CObject::Serialize, COMDAT
; _this$ = ecx

; 106  : 	{ /* CObject does not serialize anything by default */ }

  00000	c2 04 00	 ret	 4
?Serialize@CObject@@UAEXAAVCArchive@@@Z ENDP		; CObject::Serialize
_TEXT	ENDS
; Function compile flags: /Ogtp
; File C:\Program Files (x86)\Microsoft Visual Studio\2019\Community\VC\Tools\MSVC\14.29.30133\atlmfc\include\afx.inl
;	COMDAT ??1CObject@@UAE@XZ
_TEXT	SEGMENT
??1CObject@@UAE@XZ PROC					; CObject::~CObject, COMDAT
; _this$ = ecx

; 104  : 	{ }

  00000	c2 00 00	 ret	 0
??1CObject@@UAE@XZ ENDP					; CObject::~CObject
_TEXT	ENDS
; Function compile flags: /Ogtp
; File D:\git\src\IBK\IBK_DRFN\ProjSrc\SrcDrfn\Chart\MULTICHART\JongStatusInTab.cpp
;	COMDAT ?__empty_global_delete@@YAXPAXI@Z
_TEXT	SEGMENT
___formal$ = 8						; size = 4
___formal$ = 12						; size = 4
?__empty_global_delete@@YAXPAXI@Z PROC			; __empty_global_delete, COMDAT

  00000	c2 00 00	 ret	 0
?__empty_global_delete@@YAXPAXI@Z ENDP			; __empty_global_delete
_TEXT	ENDS
; Function compile flags: /Ogtp
; File D:\git\src\IBK\IBK_DRFN\ProjSrc\SrcDrfn\Chart\MULTICHART\JongStatusInTab.cpp
;	COMDAT ?__empty_global_delete@@YAXPAX@Z
_TEXT	SEGMENT
___formal$ = 8						; size = 4
?__empty_global_delete@@YAXPAX@Z PROC			; __empty_global_delete, COMDAT

  00000	c2 00 00	 ret	 0
?__empty_global_delete@@YAXPAX@Z ENDP			; __empty_global_delete
_TEXT	ENDS
END
