; Listing generated by Microsoft (R) Optimizing Compiler Version 19.29.30148.0 

	TITLE	D:\git\src\IBK\IBK_DRFN\#DRfn-CS\_Obj\MultiChart\LeftBarDlg.obj
	.686P
	.XMM
	include listing.inc
	.model	flat

INCLUDELIB MSVCRT
INCLUDELIB OLDNAMES

PUBLIC	?WM_ATLGETHOST@ATL@@3IA				; ATL::WM_ATLGETHOST
PUBLIC	?WM_ATLGETCONTROL@ATL@@3IA			; ATL::WM_ATLGETCONTROL
PUBLIC	??_C@_0BE@KOIJLIKO@RMSG_ADDACCOUNTCODE@		; `string'
PUBLIC	??_C@_0BD@IBMNKIJA@RMSG_CHECKAVGPRICE@		; `string'
PUBLIC	??_C@_0BE@PFEEJKPO@RMSG_ADDACCOUNTCONC@		; `string'
PUBLIC	??_C@_0BD@OKKAEAJC@RMSG_RESETCONCDATA@		; `string'
PUBLIC	??_C@_0BB@IBKHOHJL@RMSG_REPLAY_REAL@		; `string'
PUBLIC	??_C@_0BB@JFLGBADG@RMSG_REPLAY_FAIL@		; `string'
PUBLIC	??_C@_0BI@KDGAIIMD@RMSG_REPLAY_CHANGE_DATE@	; `string'
PUBLIC	??_C@_0BA@NKHHCPON@RMSG_REPLAY_END@		; `string'
PUBLIC	??_C@_0BE@JFCIMCIP@RMSG_REPLAY_INC_SEC@		; `string'
PUBLIC	??_C@_0BG@GIAJEIJF@RMSG_REPLAY_TOTAL_SEC@	; `string'
PUBLIC	??_C@_0BE@FJPKENOB@RMSG_GETSIGNAL_REAL@		; `string'
PUBLIC	??_C@_0BB@CNOFPEHG@RMSG_SETQUERYOPT@		; `string'
PUBLIC	??_C@_0P@KHFCBIOH@RMSG_CHARTMAIN@		; `string'
PUBLIC	??_C@_0BC@MMPGLPDH@RMS_ANALYSIS_FUNC@		; `string'
PUBLIC	??_C@_0BA@HKNFENJL@RMSG_GET_USERID@		; `string'
PUBLIC	??_C@_0BG@CNPAHNGG@RMSG_CHANGE_SKINCOLOR@	; `string'
PUBLIC	??_C@_0BD@FLDNDDHK@RMSG_GET_SKINCOLOR@		; `string'
PUBLIC	??_C@_0BJ@JLKHIBIK@RMSG_CHANGEVERTSCALETYPE@	; `string'
PUBLIC	??_C@_0BG@LNLCJKPF@RMSG_CHANGE_CROSSLINE@	; `string'
PUBLIC	??_C@_0BH@IFDMIMBP@RMSG_ADD_PLATFORM_MENU@	; `string'
PUBLIC	??_C@_0BJ@OGNAJHHI@RMSG_SETINITIALCHARTDATA@	; `string'
PUBLIC	??_C@_0N@IIOKMIEH@RMSG_GETINFO@			; `string'
PUBLIC	??_C@_0N@HABLPHJG@RMSG_SETINFO@			; `string'
PUBLIC	?m_bInitFailed@CAtlBaseModule@ATL@@2_NA		; ATL::CAtlBaseModule::m_bInitFailed
PUBLIC	?_pAtlModule@ATL@@3PAVCAtlModule@1@A		; ATL::_pAtlModule
PUBLIC	?_pAtlAutoThreadModule@ATL@@3PAUIAtlAutoThreadModule@1@A ; ATL::_pAtlAutoThreadModule
EXTRN	?_AtlBaseModule@ATL@@3VCAtlBaseModule@1@A:BYTE	; ATL::_AtlBaseModule
;	COMDAT ?WM_ATLGETHOST@ATL@@3IA
_BSS	SEGMENT
?WM_ATLGETHOST@ATL@@3IA DD 01H DUP (?)			; ATL::WM_ATLGETHOST
_BSS	ENDS
;	COMDAT ?WM_ATLGETCONTROL@ATL@@3IA
_BSS	SEGMENT
?WM_ATLGETCONTROL@ATL@@3IA DD 01H DUP (?)		; ATL::WM_ATLGETCONTROL
_BSS	ENDS
;	COMDAT ?m_bInitFailed@CAtlBaseModule@ATL@@2_NA
_BSS	SEGMENT
?m_bInitFailed@CAtlBaseModule@ATL@@2_NA DB 01H DUP (?)	; ATL::CAtlBaseModule::m_bInitFailed
_BSS	ENDS
;	COMDAT ?_pAtlModule@ATL@@3PAVCAtlModule@1@A
_BSS	SEGMENT
?_pAtlModule@ATL@@3PAVCAtlModule@1@A DD 01H DUP (?)	; ATL::_pAtlModule
_BSS	ENDS
;	COMDAT ?_pAtlAutoThreadModule@ATL@@3PAUIAtlAutoThreadModule@1@A
_BSS	SEGMENT
?_pAtlAutoThreadModule@ATL@@3PAUIAtlAutoThreadModule@1@A DD 01H DUP (?) ; ATL::_pAtlAutoThreadModule
_BSS	ENDS
;	COMDAT ??_C@_0N@HABLPHJG@RMSG_SETINFO@
CONST	SEGMENT
??_C@_0N@HABLPHJG@RMSG_SETINFO@ DB 'RMSG_SETINFO', 00H	; `string'
CONST	ENDS
;	COMDAT ??_C@_0N@IIOKMIEH@RMSG_GETINFO@
CONST	SEGMENT
??_C@_0N@IIOKMIEH@RMSG_GETINFO@ DB 'RMSG_GETINFO', 00H	; `string'
CONST	ENDS
;	COMDAT ??_C@_0BJ@OGNAJHHI@RMSG_SETINITIALCHARTDATA@
CONST	SEGMENT
??_C@_0BJ@OGNAJHHI@RMSG_SETINITIALCHARTDATA@ DB 'RMSG_SETINITIALCHARTDATA'
	DB	00H						; `string'
CONST	ENDS
;	COMDAT ??_C@_0BH@IFDMIMBP@RMSG_ADD_PLATFORM_MENU@
CONST	SEGMENT
??_C@_0BH@IFDMIMBP@RMSG_ADD_PLATFORM_MENU@ DB 'RMSG_ADD_PLATFORM_MENU', 00H ; `string'
CONST	ENDS
;	COMDAT ??_C@_0BG@LNLCJKPF@RMSG_CHANGE_CROSSLINE@
CONST	SEGMENT
??_C@_0BG@LNLCJKPF@RMSG_CHANGE_CROSSLINE@ DB 'RMSG_CHANGE_CROSSLINE', 00H ; `string'
CONST	ENDS
;	COMDAT ??_C@_0BJ@JLKHIBIK@RMSG_CHANGEVERTSCALETYPE@
CONST	SEGMENT
??_C@_0BJ@JLKHIBIK@RMSG_CHANGEVERTSCALETYPE@ DB 'RMSG_CHANGEVERTSCALETYPE'
	DB	00H						; `string'
CONST	ENDS
;	COMDAT ??_C@_0BD@FLDNDDHK@RMSG_GET_SKINCOLOR@
CONST	SEGMENT
??_C@_0BD@FLDNDDHK@RMSG_GET_SKINCOLOR@ DB 'RMSG_GET_SKINCOLOR', 00H ; `string'
CONST	ENDS
;	COMDAT ??_C@_0BG@CNPAHNGG@RMSG_CHANGE_SKINCOLOR@
CONST	SEGMENT
??_C@_0BG@CNPAHNGG@RMSG_CHANGE_SKINCOLOR@ DB 'RMSG_CHANGE_SKINCOLOR', 00H ; `string'
CONST	ENDS
;	COMDAT ??_C@_0BA@HKNFENJL@RMSG_GET_USERID@
CONST	SEGMENT
??_C@_0BA@HKNFENJL@RMSG_GET_USERID@ DB 'RMSG_GET_USERID', 00H ; `string'
CONST	ENDS
;	COMDAT ??_C@_0BC@MMPGLPDH@RMS_ANALYSIS_FUNC@
CONST	SEGMENT
??_C@_0BC@MMPGLPDH@RMS_ANALYSIS_FUNC@ DB 'RMS_ANALYSIS_FUNC', 00H ; `string'
CONST	ENDS
;	COMDAT ??_C@_0P@KHFCBIOH@RMSG_CHARTMAIN@
CONST	SEGMENT
??_C@_0P@KHFCBIOH@RMSG_CHARTMAIN@ DB 'RMSG_CHARTMAIN', 00H ; `string'
CONST	ENDS
;	COMDAT ??_C@_0BB@CNOFPEHG@RMSG_SETQUERYOPT@
CONST	SEGMENT
??_C@_0BB@CNOFPEHG@RMSG_SETQUERYOPT@ DB 'RMSG_SETQUERYOPT', 00H ; `string'
CONST	ENDS
;	COMDAT ??_C@_0BE@FJPKENOB@RMSG_GETSIGNAL_REAL@
CONST	SEGMENT
??_C@_0BE@FJPKENOB@RMSG_GETSIGNAL_REAL@ DB 'RMSG_GETSIGNAL_REAL', 00H ; `string'
CONST	ENDS
;	COMDAT ??_C@_0BG@GIAJEIJF@RMSG_REPLAY_TOTAL_SEC@
CONST	SEGMENT
??_C@_0BG@GIAJEIJF@RMSG_REPLAY_TOTAL_SEC@ DB 'RMSG_REPLAY_TOTAL_SEC', 00H ; `string'
CONST	ENDS
;	COMDAT ??_C@_0BE@JFCIMCIP@RMSG_REPLAY_INC_SEC@
CONST	SEGMENT
??_C@_0BE@JFCIMCIP@RMSG_REPLAY_INC_SEC@ DB 'RMSG_REPLAY_INC_SEC', 00H ; `string'
CONST	ENDS
;	COMDAT ??_C@_0BA@NKHHCPON@RMSG_REPLAY_END@
CONST	SEGMENT
??_C@_0BA@NKHHCPON@RMSG_REPLAY_END@ DB 'RMSG_REPLAY_END', 00H ; `string'
CONST	ENDS
;	COMDAT ??_C@_0BI@KDGAIIMD@RMSG_REPLAY_CHANGE_DATE@
CONST	SEGMENT
??_C@_0BI@KDGAIIMD@RMSG_REPLAY_CHANGE_DATE@ DB 'RMSG_REPLAY_CHANGE_DATE', 00H ; `string'
CONST	ENDS
;	COMDAT ??_C@_0BB@JFLGBADG@RMSG_REPLAY_FAIL@
CONST	SEGMENT
??_C@_0BB@JFLGBADG@RMSG_REPLAY_FAIL@ DB 'RMSG_REPLAY_FAIL', 00H ; `string'
CONST	ENDS
;	COMDAT ??_C@_0BB@IBKHOHJL@RMSG_REPLAY_REAL@
CONST	SEGMENT
??_C@_0BB@IBKHOHJL@RMSG_REPLAY_REAL@ DB 'RMSG_REPLAY_REAL', 00H ; `string'
CONST	ENDS
;	COMDAT ??_C@_0BD@OKKAEAJC@RMSG_RESETCONCDATA@
CONST	SEGMENT
??_C@_0BD@OKKAEAJC@RMSG_RESETCONCDATA@ DB 'RMSG_RESETCONCDATA', 00H ; `string'
CONST	ENDS
;	COMDAT ??_C@_0BE@PFEEJKPO@RMSG_ADDACCOUNTCONC@
CONST	SEGMENT
??_C@_0BE@PFEEJKPO@RMSG_ADDACCOUNTCONC@ DB 'RMSG_ADDACCOUNTCONC', 00H ; `string'
CONST	ENDS
;	COMDAT ??_C@_0BD@IBMNKIJA@RMSG_CHECKAVGPRICE@
CONST	SEGMENT
??_C@_0BD@IBMNKIJA@RMSG_CHECKAVGPRICE@ DB 'RMSG_CHECKAVGPRICE', 00H ; `string'
CONST	ENDS
;	COMDAT ??_C@_0BE@KOIJLIKO@RMSG_ADDACCOUNTCODE@
CONST	SEGMENT
??_C@_0BE@KOIJLIKO@RMSG_ADDACCOUNTCODE@ DB 'RMSG_ADDACCOUNTCODE', 00H ; `string'
CONST	ENDS
PUBLIC	?__empty_global_delete@@YAXPAX@Z		; __empty_global_delete
PUBLIC	?__empty_global_delete@@YAXPAXI@Z		; __empty_global_delete
PUBLIC	??1CObject@@UAE@XZ				; CObject::~CObject
PUBLIC	?Serialize@CObject@@UAEXAAVCArchive@@@Z		; CObject::Serialize
PUBLIC	?AssertValid@CObject@@UBEXXZ			; CObject::AssertValid
PUBLIC	?Dump@CObject@@UBEXAAVCDumpContext@@@Z		; CObject::Dump
PUBLIC	?_AtlRaiseException@ATL@@YAXKK@Z		; ATL::_AtlRaiseException
PUBLIC	?_AtlInitializeCriticalSectionEx@ATL@@YAHPAU_RTL_CRITICAL_SECTION@@KK@Z ; ATL::_AtlInitializeCriticalSectionEx
PUBLIC	??1CGdiObject@@UAE@XZ				; CGdiObject::~CGdiObject
PUBLIC	??_GCGdiObject@@UAEPAXI@Z			; CGdiObject::`scalar deleting destructor'
PUBLIC	??1CBrush@@UAE@XZ				; CBrush::~CBrush
PUBLIC	??_GCBrush@@UAEPAXI@Z				; CBrush::`scalar deleting destructor'
PUBLIC	??1CBitmap@@UAE@XZ				; CBitmap::~CBitmap
PUBLIC	??_GCBitmap@@UAEPAXI@Z				; CBitmap::`scalar deleting destructor'
PUBLIC	?BeginModalState@CWnd@@UAEXXZ			; CWnd::BeginModalState
PUBLIC	?EndModalState@CWnd@@UAEXXZ			; CWnd::EndModalState
PUBLIC	?GetItemCount@CTabCtrl@@QBEHXZ			; CTabCtrl::GetItemCount
PUBLIC	??1CRscDlg@@UAE@XZ				; CRscDlg::~CRscDlg
PUBLIC	??0CLeftBarDlg@@QAE@PAVCWnd@@@Z			; CLeftBarDlg::CLeftBarDlg
PUBLIC	?StartSideBar@CLeftBarDlg@@QAEXXZ		; CLeftBarDlg::StartSideBar
PUBLIC	?EndSideBar@CLeftBarDlg@@QAEXXZ			; CLeftBarDlg::EndSideBar
PUBLIC	?GetIndicatorNameListIntoComboBox@CLeftBarDlg@@QAEXAAVCComboBox@@PBD@Z ; CLeftBarDlg::GetIndicatorNameListIntoComboBox
PUBLIC	?ChangeSkinColor@CLeftBarDlg@@QAEXXZ		; CLeftBarDlg::ChangeSkinColor
PUBLIC	?OnCodeAdvise@CLeftBarDlg@@QAEXV?$CStringT@DV?$StrTraitMFC_DLL@DV?$ChTraitsCRT@D@ATL@@@@@ATL@@@Z ; CLeftBarDlg::OnCodeAdvise
PUBLIC	?OnCodeUnAdvise@CLeftBarDlg@@QAEXV?$CStringT@DV?$StrTraitMFC_DLL@DV?$ChTraitsCRT@D@ATL@@@@@ATL@@@Z ; CLeftBarDlg::OnCodeUnAdvise
PUBLIC	?IsAdvisingCodeOf@CLeftBarDlg@@QAEHPBD@Z	; CLeftBarDlg::IsAdvisingCodeOf
PUBLIC	?SetRealPriceData@CLeftBarDlg@@QAEXPAX@Z	; CLeftBarDlg::SetRealPriceData
PUBLIC	?GetIndicatorNameListIntoListCtrl@CLeftBarDlg@@QAEXAAVCXListCtrl@@PBD@Z ; CLeftBarDlg::GetIndicatorNameListIntoListCtrl
PUBLIC	?GetIndicatorNameListIntoTreeCtrl@CLeftBarDlg@@QAEXAAVCTreeCtrl@@@Z ; CLeftBarDlg::GetIndicatorNameListIntoTreeCtrl
PUBLIC	?ReceiveData@CLeftBarDlg@@QAEJPAUHWND__@@PBD11PAXJ@Z ; CLeftBarDlg::ReceiveData
PUBLIC	?SetPacketFromOutSide@CLeftBarDlg@@QAEXV?$CStringT@DV?$StrTraitMFC_DLL@DV?$ChTraitsCRT@D@ATL@@@@@ATL@@@Z ; CLeftBarDlg::SetPacketFromOutSide
PUBLIC	?GetPacketFromOutSide@CLeftBarDlg@@QAE?AV?$CStringT@DV?$StrTraitMFC_DLL@DV?$ChTraitsCRT@D@ATL@@@@@ATL@@XZ ; CLeftBarDlg::GetPacketFromOutSide
PUBLIC	?EnableWindow@CLeftBarDlg@@QAEHH@Z		; CLeftBarDlg::EnableWindow
PUBLIC	?GetEnableWindow@CLeftBarDlg@@QAEHXZ		; CLeftBarDlg::GetEnableWindow
PUBLIC	?SetConfig@CLeftBarDlg@@QAEXH@Z			; CLeftBarDlg::SetConfig
PUBLIC	?GetUserPath@CLeftBarDlg@@QAE?AV?$CStringT@DV?$StrTraitMFC_DLL@DV?$ChTraitsCRT@D@ATL@@@@@ATL@@XZ ; CLeftBarDlg::GetUserPath
PUBLIC	?AddAccountCodeItem@CLeftBarDlg@@QAEXPAXJ@Z	; CLeftBarDlg::AddAccountCodeItem
PUBLIC	?MakeAccountConcData@CLeftBarDlg@@QAEXPAXJ@Z	; CLeftBarDlg::MakeAccountConcData
PUBLIC	?ResetConcData@CLeftBarDlg@@QAEXXZ		; CLeftBarDlg::ResetConcData
PUBLIC	?PreTranslateMessage@CLeftBarDlg@@UAEHPAUtagMSG@@@Z ; CLeftBarDlg::PreTranslateMessage
PUBLIC	?DoDataExchange@CLeftBarDlg@@MAEXPAVCDataExchange@@@Z ; CLeftBarDlg::DoDataExchange
PUBLIC	?WindowProc@CLeftBarDlg@@MAEJIIJ@Z		; CLeftBarDlg::WindowProc
PUBLIC	?OnInitDialog@CLeftBarDlg@@MAEHXZ		; CLeftBarDlg::OnInitDialog
PUBLIC	?OnSize@CLeftBarDlg@@IAEXIHH@Z			; CLeftBarDlg::OnSize
PUBLIC	?OnDestroy@CLeftBarDlg@@IAEXXZ			; CLeftBarDlg::OnDestroy
PUBLIC	?OnTimer@CLeftBarDlg@@IAEXI@Z			; CLeftBarDlg::OnTimer
PUBLIC	?OnBthidechart@CLeftBarDlg@@IAEXXZ		; CLeftBarDlg::OnBthidechart
PUBLIC	?OnCtlColor@CLeftBarDlg@@IAEPAUHBRUSH__@@PAVCDC@@PAVCWnd@@I@Z ; CLeftBarDlg::OnCtlColor
PUBLIC	?OnEraseBkgnd@CLeftBarDlg@@IAEHPAVCDC@@@Z	; CLeftBarDlg::OnEraseBkgnd
PUBLIC	?OnPaint@CLeftBarDlg@@IAEXXZ			; CLeftBarDlg::OnPaint
PUBLIC	?OnCheckAvgPrice@CLeftBarDlg@@IAEJIJ@Z		; CLeftBarDlg::OnCheckAvgPrice
PUBLIC	?GetThisMessageMap@CLeftBarDlg@@KGPBUAFX_MSGMAP@@XZ ; CLeftBarDlg::GetThisMessageMap
PUBLIC	?GetMessageMap@CLeftBarDlg@@MBEPBUAFX_MSGMAP@@XZ ; CLeftBarDlg::GetMessageMap
PUBLIC	??_GCLeftBarDlg@@UAEPAXI@Z			; CLeftBarDlg::`scalar deleting destructor'
PUBLIC	??1stringdispid@CComTypeInfoHolder@ATL@@QAE@XZ	; ATL::CComTypeInfoHolder::stringdispid::~stringdispid
PUBLIC	??_Estringdispid@CComTypeInfoHolder@ATL@@QAEPAXI@Z ; ATL::CComTypeInfoHolder::stringdispid::`vector deleting destructor'
PUBLIC	??1CRegFavoriteDlg@@UAE@XZ			; CRegFavoriteDlg::~CRegFavoriteDlg
PUBLIC	??_R0PAVCException@@@8				; CException * `RTTI Type Descriptor'
PUBLIC	??_C@_02DPKJAMEF@?$CFd@				; `string'
PUBLIC	?_AtlWinModule@ATL@@3VCAtlWinModule@1@A		; ATL::_AtlWinModule
PUBLIC	??_7CGdiObject@@6B@				; CGdiObject::`vftable'
PUBLIC	??_7CBrush@@6B@					; CBrush::`vftable'
PUBLIC	??_7CBitmap@@6B@				; CBitmap::`vftable'
PUBLIC	??_C@_0HD@JJCHHHNK@C?3?2Program?5Files?5?$CIx86?$CJ?2Microsof@ ; `string'
PUBLIC	??_C@_0BP@OIEOKIDM@Exception?5thrown?5in?5destructor@ ; `string'
PUBLIC	??_C@_0BB@HBOOMJBF@?$CFTs?5?$CI?$CFTs?3?$CFd?$CJ?6?$CFTs@ ; `string'
PUBLIC	??_C@_0N@OMEMOKLE@?$CFTs?5?$CI?$CFTs?3?$CFd?$CJ@ ; `string'
PUBLIC	??_C@_01GBGANLPD@0@				; `string'
PUBLIC	??_R0?AVCObject@@@8				; CObject `RTTI Type Descriptor'
PUBLIC	??_R3CObject@@8					; CObject::`RTTI Class Hierarchy Descriptor'
PUBLIC	??_R2CObject@@8					; CObject::`RTTI Base Class Array'
PUBLIC	??_R1A@?0A@EA@CObject@@8			; CObject::`RTTI Base Class Descriptor at (0,-1,0,64)'
PUBLIC	??_R4CGdiObject@@6B@				; CGdiObject::`RTTI Complete Object Locator'
PUBLIC	??_R0?AVCGdiObject@@@8				; CGdiObject `RTTI Type Descriptor'
PUBLIC	??_R3CGdiObject@@8				; CGdiObject::`RTTI Class Hierarchy Descriptor'
PUBLIC	??_R2CGdiObject@@8				; CGdiObject::`RTTI Base Class Array'
PUBLIC	??_R1A@?0A@EA@CGdiObject@@8			; CGdiObject::`RTTI Base Class Descriptor at (0,-1,0,64)'
PUBLIC	??_R4CBrush@@6B@				; CBrush::`RTTI Complete Object Locator'
PUBLIC	??_R0?AVCBrush@@@8				; CBrush `RTTI Type Descriptor'
PUBLIC	??_R3CBrush@@8					; CBrush::`RTTI Class Hierarchy Descriptor'
PUBLIC	??_R2CBrush@@8					; CBrush::`RTTI Base Class Array'
PUBLIC	??_R1A@?0A@EA@CBrush@@8				; CBrush::`RTTI Base Class Descriptor at (0,-1,0,64)'
PUBLIC	??_R4CBitmap@@6B@				; CBitmap::`RTTI Complete Object Locator'
PUBLIC	??_R0?AVCBitmap@@@8				; CBitmap `RTTI Type Descriptor'
PUBLIC	??_R3CBitmap@@8					; CBitmap::`RTTI Class Hierarchy Descriptor'
PUBLIC	??_R2CBitmap@@8					; CBitmap::`RTTI Base Class Array'
PUBLIC	??_R1A@?0A@EA@CBitmap@@8			; CBitmap::`RTTI Base Class Descriptor at (0,-1,0,64)'
PUBLIC	??_R1A@?0A@EA@CWnd@@8				; CWnd::`RTTI Base Class Descriptor at (0,-1,0,64)'
PUBLIC	??_R0?AVCWnd@@@8				; CWnd `RTTI Type Descriptor'
PUBLIC	??_R3CWnd@@8					; CWnd::`RTTI Class Hierarchy Descriptor'
PUBLIC	??_R2CWnd@@8					; CWnd::`RTTI Base Class Array'
PUBLIC	??_R1A@?0A@EA@CCmdTarget@@8			; CCmdTarget::`RTTI Base Class Descriptor at (0,-1,0,64)'
PUBLIC	??_R0?AVCCmdTarget@@@8				; CCmdTarget `RTTI Type Descriptor'
PUBLIC	??_R3CCmdTarget@@8				; CCmdTarget::`RTTI Class Hierarchy Descriptor'
PUBLIC	??_R2CCmdTarget@@8				; CCmdTarget::`RTTI Base Class Array'
PUBLIC	??_R1A@?0A@EA@CDialog@@8			; CDialog::`RTTI Base Class Descriptor at (0,-1,0,64)'
PUBLIC	??_R0?AVCDialog@@@8				; CDialog `RTTI Type Descriptor'
PUBLIC	??_R3CDialog@@8					; CDialog::`RTTI Class Hierarchy Descriptor'
PUBLIC	??_R2CDialog@@8					; CDialog::`RTTI Base Class Array'
PUBLIC	??_7CLeftBarDlg@@6B@				; CLeftBarDlg::`vftable'
PUBLIC	??_C@_06BJMHLMHN@TabPos@			; `string'
PUBLIC	??_C@_07IKJPBEOL@LeftBar@			; `string'
PUBLIC	??_R4CLeftBarDlg@@6B@				; CLeftBarDlg::`RTTI Complete Object Locator'
PUBLIC	??_R0?AVCLeftBarDlg@@@8				; CLeftBarDlg `RTTI Type Descriptor'
PUBLIC	??_R3CLeftBarDlg@@8				; CLeftBarDlg::`RTTI Class Hierarchy Descriptor'
PUBLIC	??_R2CLeftBarDlg@@8				; CLeftBarDlg::`RTTI Base Class Array'
PUBLIC	??_R1A@?0A@EA@CLeftBarDlg@@8			; CLeftBarDlg::`RTTI Base Class Descriptor at (0,-1,0,64)'
PUBLIC	??_R1A@?0A@EA@CRscDlg@@8			; CRscDlg::`RTTI Base Class Descriptor at (0,-1,0,64)'
PUBLIC	??_R0?AVCRscDlg@@@8				; CRscDlg `RTTI Type Descriptor'
PUBLIC	??_R3CRscDlg@@8					; CRscDlg::`RTTI Class Hierarchy Descriptor'
PUBLIC	??_R2CRscDlg@@8					; CRscDlg::`RTTI Base Class Array'
EXTRN	??_M@YGXPAXIIP6EX0@Z@Z:PROC			; `eh vector destructor iterator'
EXTRN	??3@YAXPAX@Z:PROC				; operator delete
EXTRN	??3@YAXPAXI@Z:PROC				; operator delete
EXTRN	?__global_delete@@YAXPAXI@Z:PROC		; __global_delete
EXTRN	??_V@YAXPAXI@Z:PROC				; operator delete[]
EXTRN	_atexit:PROC
EXTRN	__imp__RaiseException@16:PROC
EXTRN	__imp__GetLastError@0:PROC
EXTRN	__imp__InitializeCriticalSectionEx@12:PROC
EXTRN	__imp__DeleteCriticalSection@4:PROC
EXTRN	__imp__GetPrivateProfileStringA@24:PROC
EXTRN	__imp__WritePrivateProfileStringA@16:PROC
EXTRN	__imp__BitBlt@36:PROC
EXTRN	__imp__CreateCompatibleBitmap@12:PROC
EXTRN	__imp__CreateCompatibleDC@4:PROC
EXTRN	__imp__CreateSolidBrush@4:PROC
EXTRN	__imp__RegisterWindowMessageA@4:PROC
EXTRN	__imp__SendMessageA@16:PROC
EXTRN	__imp__UnregisterClassA@8:PROC
EXTRN	__imp__IsWindow@4:PROC
EXTRN	__imp__IsWindowVisible@4:PROC
EXTRN	__imp__SetTimer@16:PROC
EXTRN	__imp__KillTimer@8:PROC
EXTRN	__imp__EnableWindow@8:PROC
EXTRN	__imp__InvalidateRect@12:PROC
EXTRN	__imp__GetClientRect@8:PROC
EXTRN	__imp__GetWindowRect@8:PROC
EXTRN	__imp__GetCursorPos@4:PROC
EXTRN	__imp__PtInRect@12:PROC
EXTRN	__imp__GetParent@4:PROC
EXTRN	__imp__free:PROC
EXTRN	__imp__SysFreeString@4:PROC
EXTRN	__imp_?Empty@?$CSimpleStringT@D$00@ATL@@QAEXXZ:PROC
EXTRN	__imp_??0?$CStringT@DV?$StrTraitMFC_DLL@DV?$ChTraitsCRT@D@ATL@@@@@ATL@@QAE@XZ:PROC
EXTRN	__imp_??0?$CStringT@DV?$StrTraitMFC_DLL@DV?$ChTraitsCRT@D@ATL@@@@@ATL@@QAE@ABV01@@Z:PROC
EXTRN	__imp_??1?$CStringT@DV?$StrTraitMFC_DLL@DV?$ChTraitsCRT@D@ATL@@@@@ATL@@QAE@XZ:PROC
EXTRN	__imp_??4?$CStringT@DV?$StrTraitMFC_DLL@DV?$ChTraitsCRT@D@ATL@@@@@ATL@@QAEAAV01@ABV01@@Z:PROC
EXTRN	__imp_?Format@?$CStringT@DV?$StrTraitMFC_DLL@DV?$ChTraitsCRT@D@ATL@@@@@ATL@@QAAXPBDZZ:PROC
EXTRN	??0CStringList@@QAE@H@Z:PROC			; CStringList::CStringList
EXTRN	?AddTail@CStringList@@QAEPAU__POSITION@@ABV?$CStringT@DV?$StrTraitMFC_DLL@DV?$ChTraitsCRT@D@ATL@@@@@ATL@@@Z:PROC ; CStringList::AddTail
EXTRN	?RemoveAt@CStringList@@QAEXPAU__POSITION@@@Z:PROC ; CStringList::RemoveAt
EXTRN	?Find@CStringList@@QBEPAU__POSITION@@PBDPAU2@@Z:PROC ; CStringList::Find
EXTRN	??1CStringList@@UAE@XZ:PROC			; CStringList::~CStringList
EXTRN	?GetRuntimeClass@CGdiObject@@UBEPAUCRuntimeClass@@XZ:PROC ; CGdiObject::GetRuntimeClass
EXTRN	?Attach@CGdiObject@@QAEHPAX@Z:PROC		; CGdiObject::Attach
EXTRN	?DeleteObject@CGdiObject@@QAEHXZ:PROC		; CGdiObject::DeleteObject
EXTRN	??_ECGdiObject@@UAEPAXI@Z:PROC			; CGdiObject::`vector deleting destructor'
EXTRN	?GetRuntimeClass@CBrush@@UBEPAUCRuntimeClass@@XZ:PROC ; CBrush::GetRuntimeClass
EXTRN	??_ECBrush@@UAEPAXI@Z:PROC			; CBrush::`vector deleting destructor'
EXTRN	?GetRuntimeClass@CBitmap@@UBEPAUCRuntimeClass@@XZ:PROC ; CBitmap::GetRuntimeClass
EXTRN	??_ECBitmap@@UAEPAXI@Z:PROC			; CBitmap::`vector deleting destructor'
EXTRN	?Attach@CDC@@QAEHPAUHDC__@@@Z:PROC		; CDC::Attach
EXTRN	??0CDC@@QAE@XZ:PROC				; CDC::CDC
EXTRN	?DeleteDC@CDC@@QAEHXZ:PROC			; CDC::DeleteDC
EXTRN	?FillSolidRect@CDC@@QAEXPBUtagRECT@@K@Z:PROC	; CDC::FillSolidRect
EXTRN	??1CDC@@UAE@XZ:PROC				; CDC::~CDC
EXTRN	?SelectGdiObject@CDC@@KGPAVCGdiObject@@PAUHDC__@@PAX@Z:PROC ; CDC::SelectGdiObject
EXTRN	??0CPaintDC@@QAE@PAVCWnd@@@Z:PROC		; CPaintDC::CPaintDC
EXTRN	??1CPaintDC@@UAE@XZ:PROC			; CPaintDC::~CPaintDC
EXTRN	?DDX_Control@@YGXPAVCDataExchange@@HAAVCWnd@@@Z:PROC ; DDX_Control
EXTRN	?IsInvokeAllowed@CCmdTarget@@UAEHJ@Z:PROC	; CCmdTarget::IsInvokeAllowed
EXTRN	?GetDispatchIID@CCmdTarget@@UAEHPAU_GUID@@@Z:PROC ; CCmdTarget::GetDispatchIID
EXTRN	?GetTypeInfoCount@CCmdTarget@@UAEIXZ:PROC	; CCmdTarget::GetTypeInfoCount
EXTRN	?GetTypeLibCache@CCmdTarget@@UAEPAVCTypeLibCache@@XZ:PROC ; CCmdTarget::GetTypeLibCache
EXTRN	?GetTypeLib@CCmdTarget@@UAEJKPAPAUITypeLib@@@Z:PROC ; CCmdTarget::GetTypeLib
EXTRN	?GetCommandMap@CCmdTarget@@MBEPBUAFX_OLECMDMAP@@XZ:PROC ; CCmdTarget::GetCommandMap
EXTRN	?GetDispatchMap@CCmdTarget@@MBEPBUAFX_DISPMAP@@XZ:PROC ; CCmdTarget::GetDispatchMap
EXTRN	?GetConnectionMap@CCmdTarget@@MBEPBUAFX_CONNECTIONMAP@@XZ:PROC ; CCmdTarget::GetConnectionMap
EXTRN	?GetEventSinkMap@CCmdTarget@@MBEPBUAFX_EVENTSINKMAP@@XZ:PROC ; CCmdTarget::GetEventSinkMap
EXTRN	?OnCreateAggregates@CCmdTarget@@UAEHXZ:PROC	; CCmdTarget::OnCreateAggregates
EXTRN	?GetInterfaceHook@CCmdTarget@@UAEPAUIUnknown@@PBX@Z:PROC ; CCmdTarget::GetInterfaceHook
EXTRN	?GetExtraConnectionPoints@CCmdTarget@@MAEHPAVCPtrArray@@@Z:PROC ; CCmdTarget::GetExtraConnectionPoints
EXTRN	?GetConnectionHook@CCmdTarget@@MAEPAUIConnectionPoint@@ABU_GUID@@@Z:PROC ; CCmdTarget::GetConnectionHook
EXTRN	?ModifyStyle@CWnd@@QAEHKKI@Z:PROC		; CWnd::ModifyStyle
EXTRN	?FromHandle@CWnd@@SGPAV1@PAUHWND__@@@Z:PROC	; CWnd::FromHandle
EXTRN	?PreSubclassWindow@CWnd@@UAEXXZ:PROC		; CWnd::PreSubclassWindow
EXTRN	?Create@CWnd@@UAEHPBD0KABUtagRECT@@PAV1@IPAUCCreateContext@@@Z:PROC ; CWnd::Create
EXTRN	?CreateEx@CWnd@@UAEHKPBD0KHHHHPAUHWND__@@PAUHMENU__@@PAX@Z:PROC ; CWnd::CreateEx
EXTRN	?CreateEx@CWnd@@UAEHKPBD0KABUtagRECT@@PAV1@IPAX@Z:PROC ; CWnd::CreateEx
EXTRN	?DestroyWindow@CWnd@@UAEHXZ:PROC		; CWnd::DestroyWindow
EXTRN	?PreCreateWindow@CWnd@@UAEHAAUtagCREATESTRUCTA@@@Z:PROC ; CWnd::PreCreateWindow
EXTRN	?CalcWindowRect@CWnd@@UAEXPAUtagRECT@@I@Z:PROC	; CWnd::CalcWindowRect
EXTRN	?GetMenu@CWnd@@UBEPAVCMenu@@XZ:PROC		; CWnd::GetMenu
EXTRN	?SetMenu@CWnd@@UAEHPAVCMenu@@@Z:PROC		; CWnd::SetMenu
EXTRN	?MoveWindow@CWnd@@QAEXHHHHH@Z:PROC		; CWnd::MoveWindow
EXTRN	?SetWindowPos@CWnd@@QAEHPBV1@HHHHI@Z:PROC	; CWnd::SetWindowPos
EXTRN	?ScreenToClient@CWnd@@QBEXPAUtagRECT@@@Z:PROC	; CWnd::ScreenToClient
EXTRN	?ShowWindow@CWnd@@QAEHH@Z:PROC			; CWnd::ShowWindow
EXTRN	?OnToolHitTest@CWnd@@UBEHVCPoint@@PAUtagTOOLINFOA@@@Z:PROC ; CWnd::OnToolHitTest
EXTRN	?EnableWindow@CWnd@@QAEHH@Z:PROC		; CWnd::EnableWindow
EXTRN	?GetScrollBarCtrl@CWnd@@UBEPAVCScrollBar@@H@Z:PROC ; CWnd::GetScrollBarCtrl
EXTRN	?WinHelpA@CWnd@@UAEXKI@Z:PROC			; CWnd::WinHelpA
EXTRN	?HtmlHelpA@CWnd@@UAEXKI@Z:PROC			; CWnd::HtmlHelpA
EXTRN	?WinHelpInternal@CWnd@@UAEXKI@Z:PROC		; CWnd::WinHelpInternal
EXTRN	?ContinueModal@CWnd@@UAEHXZ:PROC		; CWnd::ContinueModal
EXTRN	?EndModalLoop@CWnd@@UAEXH@Z:PROC		; CWnd::EndModalLoop
EXTRN	?OnDrawIconicThumbnailOrLivePreview@CWnd@@UAEXAAVCDC@@VCRect@@VCSize@@HAAH@Z:PROC ; CWnd::OnDrawIconicThumbnailOrLivePreview
EXTRN	?GetInterfaceMap@CWnd@@MBEPBUAFX_INTERFACEMAP@@XZ:PROC ; CWnd::GetInterfaceMap
EXTRN	?EnsureStdObj@CWnd@@UAEJXZ:PROC			; CWnd::EnsureStdObj
EXTRN	?get_accParent@CWnd@@UAEJPAPAUIDispatch@@@Z:PROC ; CWnd::get_accParent
EXTRN	?get_accChildCount@CWnd@@UAEJPAJ@Z:PROC		; CWnd::get_accChildCount
EXTRN	?get_accChild@CWnd@@UAEJUtagVARIANT@@PAPAUIDispatch@@@Z:PROC ; CWnd::get_accChild
EXTRN	?get_accName@CWnd@@UAEJUtagVARIANT@@PAPA_W@Z:PROC ; CWnd::get_accName
EXTRN	?get_accValue@CWnd@@UAEJUtagVARIANT@@PAPA_W@Z:PROC ; CWnd::get_accValue
EXTRN	?get_accDescription@CWnd@@UAEJUtagVARIANT@@PAPA_W@Z:PROC ; CWnd::get_accDescription
EXTRN	?get_accRole@CWnd@@UAEJUtagVARIANT@@PAU2@@Z:PROC ; CWnd::get_accRole
EXTRN	?get_accState@CWnd@@UAEJUtagVARIANT@@PAU2@@Z:PROC ; CWnd::get_accState
EXTRN	?get_accHelp@CWnd@@UAEJUtagVARIANT@@PAPA_W@Z:PROC ; CWnd::get_accHelp
EXTRN	?get_accHelpTopic@CWnd@@UAEJPAPA_WUtagVARIANT@@PAJ@Z:PROC ; CWnd::get_accHelpTopic
EXTRN	?get_accKeyboardShortcut@CWnd@@UAEJUtagVARIANT@@PAPA_W@Z:PROC ; CWnd::get_accKeyboardShortcut
EXTRN	?get_accFocus@CWnd@@UAEJPAUtagVARIANT@@@Z:PROC	; CWnd::get_accFocus
EXTRN	?get_accSelection@CWnd@@UAEJPAUtagVARIANT@@@Z:PROC ; CWnd::get_accSelection
EXTRN	?get_accDefaultAction@CWnd@@UAEJUtagVARIANT@@PAPA_W@Z:PROC ; CWnd::get_accDefaultAction
EXTRN	?accSelect@CWnd@@UAEJJUtagVARIANT@@@Z:PROC	; CWnd::accSelect
EXTRN	?accLocation@CWnd@@UAEJPAJ000UtagVARIANT@@@Z:PROC ; CWnd::accLocation
EXTRN	?accNavigate@CWnd@@UAEJJUtagVARIANT@@PAU2@@Z:PROC ; CWnd::accNavigate
EXTRN	?accHitTest@CWnd@@UAEJJJPAUtagVARIANT@@@Z:PROC	; CWnd::accHitTest
EXTRN	?accDoDefaultAction@CWnd@@UAEJUtagVARIANT@@@Z:PROC ; CWnd::accDoDefaultAction
EXTRN	?put_accName@CWnd@@UAEJUtagVARIANT@@PA_W@Z:PROC	; CWnd::put_accName
EXTRN	?put_accValue@CWnd@@UAEJUtagVARIANT@@PA_W@Z:PROC ; CWnd::put_accValue
EXTRN	?SetProxy@CWnd@@UAEJPAUIAccessibleProxy@@@Z:PROC ; CWnd::SetProxy
EXTRN	?CreateAccessibleProxy@CWnd@@UAEJIJPAJ@Z:PROC	; CWnd::CreateAccessibleProxy
EXTRN	?OnCommand@CWnd@@MAEHIJ@Z:PROC			; CWnd::OnCommand
EXTRN	?OnNotify@CWnd@@MAEHIJPAJ@Z:PROC		; CWnd::OnNotify
EXTRN	?OnCtlColor@CWnd@@IAEPAUHBRUSH__@@PAVCDC@@PAV1@I@Z:PROC ; CWnd::OnCtlColor
EXTRN	?OnDestroy@CWnd@@IAEXXZ:PROC			; CWnd::OnDestroy
EXTRN	?GetSuperWndProcAddr@CWnd@@MAEPAP6GJPAUHWND__@@IIJ@ZXZ:PROC ; CWnd::GetSuperWndProcAddr
EXTRN	?OnAmbientProperty@CWnd@@UAEHPAVCOleControlSite@@JPAUtagVARIANT@@@Z:PROC ; CWnd::OnAmbientProperty
EXTRN	?WindowProc@CWnd@@MAEJIIJ@Z:PROC		; CWnd::WindowProc
EXTRN	?OnWndMsg@CWnd@@MAEHIIJPAJ@Z:PROC		; CWnd::OnWndMsg
EXTRN	?Default@CWnd@@IAEJXZ:PROC			; CWnd::Default
EXTRN	?DefWindowProcA@CWnd@@MAEJIIJ@Z:PROC		; CWnd::DefWindowProcA
EXTRN	?PostNcDestroy@CWnd@@MAEXXZ:PROC		; CWnd::PostNcDestroy
EXTRN	?OnChildNotify@CWnd@@MAEHIIJPAJ@Z:PROC		; CWnd::OnChildNotify
EXTRN	?OnTouchInputs@CWnd@@MAEHIPAUtagTOUCHINPUT@@@Z:PROC ; CWnd::OnTouchInputs
EXTRN	?OnTouchInput@CWnd@@MAEHVCPoint@@HHPAUtagTOUCHINPUT@@@Z:PROC ; CWnd::OnTouchInput
EXTRN	?GetGestureStatus@CWnd@@MAEKVCPoint@@@Z:PROC	; CWnd::GetGestureStatus
EXTRN	?OnGestureZoom@CWnd@@MAEHVCPoint@@J@Z:PROC	; CWnd::OnGestureZoom
EXTRN	?OnGesturePan@CWnd@@MAEHVCPoint@@0@Z:PROC	; CWnd::OnGesturePan
EXTRN	?OnGestureRotate@CWnd@@MAEHVCPoint@@N@Z:PROC	; CWnd::OnGestureRotate
EXTRN	?OnGestureTwoFingerTap@CWnd@@MAEHVCPoint@@@Z:PROC ; CWnd::OnGestureTwoFingerTap
EXTRN	?OnGesturePressAndTap@CWnd@@MAEHVCPoint@@J@Z:PROC ; CWnd::OnGesturePressAndTap
EXTRN	?ResizeDynamicLayout@CWnd@@MAEXXZ:PROC		; CWnd::ResizeDynamicLayout
EXTRN	?IsFrameWnd@CWnd@@UBEHXZ:PROC			; CWnd::IsFrameWnd
EXTRN	?OnFinalRelease@CWnd@@UAEXXZ:PROC		; CWnd::OnFinalRelease
EXTRN	?CreateControlContainer@CWnd@@MAEHPAPAVCOleControlContainer@@@Z:PROC ; CWnd::CreateControlContainer
EXTRN	?CreateControlSite@CWnd@@MAEHPAVCOleControlContainer@@PAPAVCOleControlSite@@IABU_GUID@@@Z:PROC ; CWnd::CreateControlSite
EXTRN	?GetRuntimeClass@CDialog@@UBEPAUCRuntimeClass@@XZ:PROC ; CDialog::GetRuntimeClass
EXTRN	?Create@CDialog@@UAEHPBDPAVCWnd@@@Z:PROC	; CDialog::Create
EXTRN	?CreateIndirect@CDialog@@UAEHPBUDLGTEMPLATE@@PAVCWnd@@PAX@Z:PROC ; CDialog::CreateIndirect
EXTRN	?CreateIndirect@CDialog@@UAEHPAXPAVCWnd@@@Z:PROC ; CDialog::CreateIndirect
EXTRN	?OnInitDialog@CDialog@@UAEHXZ:PROC		; CDialog::OnInitDialog
EXTRN	?OnSetFont@CDialog@@UAEXPAVCFont@@@Z:PROC	; CDialog::OnSetFont
EXTRN	?OnOK@CDialog@@MAEXXZ:PROC			; CDialog::OnOK
EXTRN	?OnCancel@CDialog@@MAEXXZ:PROC			; CDialog::OnCancel
EXTRN	??1CDialog@@UAE@XZ:PROC				; CDialog::~CDialog
EXTRN	?PreTranslateMessage@CDialog@@UAEHPAUtagMSG@@@Z:PROC ; CDialog::PreTranslateMessage
EXTRN	?OnCmdMsg@CDialog@@UAEHIHPAXPAUAFX_CMDHANDLERINFO@@@Z:PROC ; CDialog::OnCmdMsg
EXTRN	?CheckAutoCenter@CDialog@@UAEHXZ:PROC		; CDialog::CheckAutoCenter
EXTRN	?SetOccDialogInfo@CDialog@@MAEHPAU_AFX_OCC_DIALOG_INFO@@@Z:PROC ; CDialog::SetOccDialogInfo
EXTRN	?GetOccDialogInfo@CDialog@@MAEPAU_AFX_OCC_DIALOG_INFO@@XZ:PROC ; CDialog::GetOccDialogInfo
EXTRN	?PreInitDialog@CDialog@@MAEXXZ:PROC		; CDialog::PreInitDialog
EXTRN	??1CListBox@@UAE@XZ:PROC			; CListBox::~CListBox
EXTRN	?AfxMessageBox@@YGHPBDII@Z:PROC			; AfxMessageBox
EXTRN	??0CRscDlg@@QAE@IPAVCWnd@@@Z:PROC		; CRscDlg::CRscDlg
EXTRN	?Create@CRscDlg@@UAEHIPAVCWnd@@@Z:PROC		; CRscDlg::Create
EXTRN	?DoModal@CRscDlg@@UAEHXZ:PROC			; CRscDlg::DoModal
EXTRN	?DoDataExchange@CRscDlg@@MAEXPAVCDataExchange@@@Z:PROC ; CRscDlg::DoDataExchange
EXTRN	?GetThisMessageMap@CRscDlg@@KGPBUAFX_MSGMAP@@XZ:PROC ; CRscDlg::GetThisMessageMap
EXTRN	??0CXTabCtrl@@QAE@XZ:PROC			; CXTabCtrl::CXTabCtrl
EXTRN	?Init@CXTabCtrl@@QAEXPAVCWnd@@0H@Z:PROC		; CXTabCtrl::Init
EXTRN	?ShowTab@CXTabCtrl@@QAEXH@Z:PROC		; CXTabCtrl::ShowTab
EXTRN	?SetTopLeftCorner@CXTabCtrl@@QAEXVCPoint@@@Z:PROC ; CXTabCtrl::SetTopLeftCorner
EXTRN	??1CXTabCtrl@@UAE@XZ:PROC			; CXTabCtrl::~CXTabCtrl
EXTRN	?ChangeSkinColor@CXTabCtrl@@QAEXPAVCWnd@@@Z:PROC ; CXTabCtrl::ChangeSkinColor
EXTRN	??_ECLeftBarDlg@@UAEPAXI@Z:PROC			; CLeftBarDlg::`vector deleting destructor'
EXTRN	?GetIndicatorNameListIntoComboBox@CChartMng@@QAEXAAVCComboBox@@PBD@Z:PROC ; CChartMng::GetIndicatorNameListIntoComboBox
EXTRN	?GetIndicatorNameListIntoListCtrl@CChartMng@@QAEXAAVCXListCtrl@@PBD@Z:PROC ; CChartMng::GetIndicatorNameListIntoListCtrl
EXTRN	?GetIndicatorNameListIntoTreeCtrl@CChartMng@@QAEXAAVCTreeCtrl@@@Z:PROC ; CChartMng::GetIndicatorNameListIntoTreeCtrl
EXTRN	?EndSideBar@CRGBButton@@QAEXXZ:PROC		; CRGBButton::EndSideBar
EXTRN	?OnCodeAdvise@CStdDialog@@QAEXV?$CStringT@DV?$StrTraitMFC_DLL@DV?$ChTraitsCRT@D@ATL@@@@@ATL@@H@Z:PROC ; CStdDialog::OnCodeAdvise
EXTRN	?OnCodeUnAdvise@CStdDialog@@QAEXV?$CStringT@DV?$StrTraitMFC_DLL@DV?$ChTraitsCRT@D@ATL@@@@@ATL@@H@Z:PROC ; CStdDialog::OnCodeUnAdvise
EXTRN	?HideChart@CStdDialog@@QAEHXZ:PROC		; CStdDialog::HideChart
EXTRN	?IsSystemChart@CStdDialog@@QAEHXZ:PROC		; CStdDialog::IsSystemChart
EXTRN	?GetWidthOfLeftBar@CStdDialog@@QAEHXZ:PROC	; CStdDialog::GetWidthOfLeftBar
EXTRN	??0CRegFavoriteDlg@@QAE@PAVCWnd@@@Z:PROC	; CRegFavoriteDlg::CRegFavoriteDlg
EXTRN	@__security_check_cookie@4:PROC
EXTRN	___CxxFrameHandler3:PROC
EXTRN	??_7type_info@@6B@:QWORD			; type_info::`vftable'
EXTRN	___security_cookie:DWORD
_BSS	SEGMENT
?RMSG_REPLAY_REAL@@3IB DD 01H DUP (?)			; RMSG_REPLAY_REAL
?RMSG_REPLAY_FAIL@@3IB DD 01H DUP (?)			; RMSG_REPLAY_FAIL
?RMSG_REPLAY_CHANGE_DATE@@3IB DD 01H DUP (?)		; RMSG_REPLAY_CHANGE_DATE
?RMSG_REPLAY_END@@3IB DD 01H DUP (?)			; RMSG_REPLAY_END
?RMSG_REPLAY_INC_SEC@@3IB DD 01H DUP (?)		; RMSG_REPLAY_INC_SEC
?RMSG_REPLAY_TOTAL_SEC@@3IB DD 01H DUP (?)		; RMSG_REPLAY_TOTAL_SEC
?RMSG_GETSIGNAL_REAL@@3IB DD 01H DUP (?)		; RMSG_GETSIGNAL_REAL
?RMSG_SETQUERYOPT@@3IB DD 01H DUP (?)			; RMSG_SETQUERYOPT
?RMSG_CHARTMAIN@@3IB DD 01H DUP (?)			; RMSG_CHARTMAIN
?RMS_ANALYSIS_FUNC@@3IB DD 01H DUP (?)			; RMS_ANALYSIS_FUNC
?RMSG_GET_USERID@@3IB DD 01H DUP (?)			; RMSG_GET_USERID
?RMSG_CHANGE_SKINCOLOR@@3IB DD 01H DUP (?)		; RMSG_CHANGE_SKINCOLOR
?RMSG_GET_SKINCOLOR@@3IB DD 01H DUP (?)			; RMSG_GET_SKINCOLOR
?RMSG_CHANGEVERTSCALETYPE@@3IB DD 01H DUP (?)		; RMSG_CHANGEVERTSCALETYPE
?RMSG_CHANGE_CROSSLINE@@3IB DD 01H DUP (?)		; RMSG_CHANGE_CROSSLINE
?RMSG_ADD_PLATFORM_MENU@@3IB DD 01H DUP (?)		; RMSG_ADD_PLATFORM_MENU
?RMSG_SETINITIALCHARTDATA@@3IB DD 01H DUP (?)		; RMSG_SETINITIALCHARTDATA
?RMSG_GETINFO@@3IB DD 01H DUP (?)			; RMSG_GETINFO
?RMSG_SETINFO@@3IB DD 01H DUP (?)			; RMSG_SETINFO
?RMSG_ADDACCOUNTCODE@@3IB DD 01H DUP (?)		; RMSG_ADDACCOUNTCODE
?RMSG_CHECKAVGPRICE@@3IB DD 01H DUP (?)			; RMSG_CHECKAVGPRICE
?RMSG_ADDACCOUNTCONC@@3IB DD 01H DUP (?)		; RMSG_ADDACCOUNTCONC
?RMSG_RESETCONCDATA@@3IB DD 01H DUP (?)			; RMSG_RESETCONCDATA
_BSS	ENDS
;	COMDAT CRT$XCU
CRT$XCU	SEGMENT
?_AtlWinModule$initializer$@ATL@@3P6AXXZA DD FLAT:??__E_AtlWinModule@ATL@@YAXXZ ; ATL::_AtlWinModule$initializer$
CRT$XCU	ENDS
;	COMDAT ??_R2CRscDlg@@8
rdata$r	SEGMENT
??_R2CRscDlg@@8 DD FLAT:??_R1A@?0A@EA@CRscDlg@@8	; CRscDlg::`RTTI Base Class Array'
	DD	FLAT:??_R1A@?0A@EA@CDialog@@8
	DD	FLAT:??_R1A@?0A@EA@CWnd@@8
	DD	FLAT:??_R1A@?0A@EA@CCmdTarget@@8
	DD	FLAT:??_R1A@?0A@EA@CObject@@8
rdata$r	ENDS
;	COMDAT ??_R3CRscDlg@@8
rdata$r	SEGMENT
??_R3CRscDlg@@8 DD 00H					; CRscDlg::`RTTI Class Hierarchy Descriptor'
	DD	00H
	DD	05H
	DD	FLAT:??_R2CRscDlg@@8
rdata$r	ENDS
;	COMDAT ??_R0?AVCRscDlg@@@8
data$rs	SEGMENT
??_R0?AVCRscDlg@@@8 DD FLAT:??_7type_info@@6B@		; CRscDlg `RTTI Type Descriptor'
	DD	00H
	DB	'.?AVCRscDlg@@', 00H
data$rs	ENDS
;	COMDAT ??_R1A@?0A@EA@CRscDlg@@8
rdata$r	SEGMENT
??_R1A@?0A@EA@CRscDlg@@8 DD FLAT:??_R0?AVCRscDlg@@@8	; CRscDlg::`RTTI Base Class Descriptor at (0,-1,0,64)'
	DD	04H
	DD	00H
	DD	0ffffffffH
	DD	00H
	DD	040H
	DD	FLAT:??_R3CRscDlg@@8
rdata$r	ENDS
;	COMDAT ??_R1A@?0A@EA@CLeftBarDlg@@8
rdata$r	SEGMENT
??_R1A@?0A@EA@CLeftBarDlg@@8 DD FLAT:??_R0?AVCLeftBarDlg@@@8 ; CLeftBarDlg::`RTTI Base Class Descriptor at (0,-1,0,64)'
	DD	05H
	DD	00H
	DD	0ffffffffH
	DD	00H
	DD	040H
	DD	FLAT:??_R3CLeftBarDlg@@8
rdata$r	ENDS
;	COMDAT ??_R2CLeftBarDlg@@8
rdata$r	SEGMENT
??_R2CLeftBarDlg@@8 DD FLAT:??_R1A@?0A@EA@CLeftBarDlg@@8 ; CLeftBarDlg::`RTTI Base Class Array'
	DD	FLAT:??_R1A@?0A@EA@CRscDlg@@8
	DD	FLAT:??_R1A@?0A@EA@CDialog@@8
	DD	FLAT:??_R1A@?0A@EA@CWnd@@8
	DD	FLAT:??_R1A@?0A@EA@CCmdTarget@@8
	DD	FLAT:??_R1A@?0A@EA@CObject@@8
rdata$r	ENDS
;	COMDAT ??_R3CLeftBarDlg@@8
rdata$r	SEGMENT
??_R3CLeftBarDlg@@8 DD 00H				; CLeftBarDlg::`RTTI Class Hierarchy Descriptor'
	DD	00H
	DD	06H
	DD	FLAT:??_R2CLeftBarDlg@@8
rdata$r	ENDS
;	COMDAT ??_R0?AVCLeftBarDlg@@@8
data$rs	SEGMENT
??_R0?AVCLeftBarDlg@@@8 DD FLAT:??_7type_info@@6B@	; CLeftBarDlg `RTTI Type Descriptor'
	DD	00H
	DB	'.?AVCLeftBarDlg@@', 00H
data$rs	ENDS
;	COMDAT ??_R4CLeftBarDlg@@6B@
rdata$r	SEGMENT
??_R4CLeftBarDlg@@6B@ DD 00H				; CLeftBarDlg::`RTTI Complete Object Locator'
	DD	00H
	DD	00H
	DD	FLAT:??_R0?AVCLeftBarDlg@@@8
	DD	FLAT:??_R3CLeftBarDlg@@8
rdata$r	ENDS
;	COMDAT ??_C@_07IKJPBEOL@LeftBar@
CONST	SEGMENT
??_C@_07IKJPBEOL@LeftBar@ DB 'LeftBar', 00H		; `string'
CONST	ENDS
;	COMDAT ??_C@_06BJMHLMHN@TabPos@
CONST	SEGMENT
??_C@_06BJMHLMHN@TabPos@ DB 'TabPos', 00H		; `string'
CONST	ENDS
;	COMDAT ?messageMap@?1??GetThisMessageMap@CLeftBarDlg@@KGPBUAFX_MSGMAP@@XZ@4U3@B
CONST	SEGMENT
?messageMap@?1??GetThisMessageMap@CLeftBarDlg@@KGPBUAFX_MSGMAP@@XZ@4U3@B DD FLAT:?GetThisMessageMap@CRscDlg@@KGPBUAFX_MSGMAP@@XZ ; `CLeftBarDlg::GetThisMessageMap'::`2'::messageMap
	DD	FLAT:?_messageEntries@?1??GetThisMessageMap@CLeftBarDlg@@KGPBUAFX_MSGMAP@@XZ@4QBUAFX_MSGMAP_ENTRY@@B
CONST	ENDS
;	COMDAT ?_messageEntries@?1??GetThisMessageMap@CLeftBarDlg@@KGPBUAFX_MSGMAP@@XZ@4QBUAFX_MSGMAP_ENTRY@@B
CONST	SEGMENT
?_messageEntries@?1??GetThisMessageMap@CLeftBarDlg@@KGPBUAFX_MSGMAP@@XZ@4QBUAFX_MSGMAP_ENTRY@@B DD 05H ; `CLeftBarDlg::GetThisMessageMap'::`2'::_messageEntries
	DD	00H
	DD	00H
	DD	00H
	DD	01aH
	DD	FLAT:?OnSize@CLeftBarDlg@@IAEXIHH@Z
	DD	02H
	DD	00H
	DD	00H
	DD	00H
	DD	013H
	DD	FLAT:?OnDestroy@CLeftBarDlg@@IAEXXZ
	DD	0113H
	DD	00H
	DD	00H
	DD	00H
	DD	015H
	DD	FLAT:?OnTimer@CLeftBarDlg@@IAEXI@Z
	DD	0111H
	DD	00H
	DD	0178bH
	DD	0178bH
	DD	03aH
	DD	FLAT:?OnBthidechart@CLeftBarDlg@@IAEXXZ
	DD	019H
	DD	00H
	DD	00H
	DD	00H
	DD	08H
	DD	FLAT:?OnCtlColor@CLeftBarDlg@@IAEPAUHBRUSH__@@PAVCDC@@PAVCWnd@@I@Z
	DD	014H
	DD	00H
	DD	00H
	DD	00H
	DD	01H
	DD	FLAT:?OnEraseBkgnd@CLeftBarDlg@@IAEHPAVCDC@@@Z
	DD	0fH
	DD	00H
	DD	00H
	DD	00H
	DD	013H
	DD	FLAT:?OnPaint@CLeftBarDlg@@IAEXXZ
	DD	0c000H
	DD	00H
	DD	00H
	DD	00H
	DD	FLAT:?RMSG_CHECKAVGPRICE@@3IB
	DD	FLAT:?OnCheckAvgPrice@CLeftBarDlg@@IAEJIJ@Z
	DD	00H
	DD	00H
	DD	00H
	DD	00H
	DD	00H
	DD	00H
CONST	ENDS
;	COMDAT ??_7CLeftBarDlg@@6B@
CONST	SEGMENT
??_7CLeftBarDlg@@6B@ DD FLAT:??_R4CLeftBarDlg@@6B@	; CLeftBarDlg::`vftable'
	DD	FLAT:?GetRuntimeClass@CDialog@@UBEPAUCRuntimeClass@@XZ
	DD	FLAT:??_ECLeftBarDlg@@UAEPAXI@Z
	DD	FLAT:?Serialize@CObject@@UAEXAAVCArchive@@@Z
	DD	FLAT:?AssertValid@CObject@@UBEXXZ
	DD	FLAT:?Dump@CObject@@UBEXAAVCDumpContext@@@Z
	DD	FLAT:?OnCmdMsg@CDialog@@UAEHIHPAXPAUAFX_CMDHANDLERINFO@@@Z
	DD	FLAT:?OnFinalRelease@CWnd@@UAEXXZ
	DD	FLAT:?IsInvokeAllowed@CCmdTarget@@UAEHJ@Z
	DD	FLAT:?GetDispatchIID@CCmdTarget@@UAEHPAU_GUID@@@Z
	DD	FLAT:?GetTypeInfoCount@CCmdTarget@@UAEIXZ
	DD	FLAT:?GetTypeLibCache@CCmdTarget@@UAEPAVCTypeLibCache@@XZ
	DD	FLAT:?GetTypeLib@CCmdTarget@@UAEJKPAPAUITypeLib@@@Z
	DD	FLAT:?GetMessageMap@CLeftBarDlg@@MBEPBUAFX_MSGMAP@@XZ
	DD	FLAT:?GetCommandMap@CCmdTarget@@MBEPBUAFX_OLECMDMAP@@XZ
	DD	FLAT:?GetDispatchMap@CCmdTarget@@MBEPBUAFX_DISPMAP@@XZ
	DD	FLAT:?GetConnectionMap@CCmdTarget@@MBEPBUAFX_CONNECTIONMAP@@XZ
	DD	FLAT:?GetInterfaceMap@CWnd@@MBEPBUAFX_INTERFACEMAP@@XZ
	DD	FLAT:?GetEventSinkMap@CCmdTarget@@MBEPBUAFX_EVENTSINKMAP@@XZ
	DD	FLAT:?OnCreateAggregates@CCmdTarget@@UAEHXZ
	DD	FLAT:?GetInterfaceHook@CCmdTarget@@UAEPAUIUnknown@@PBX@Z
	DD	FLAT:?GetExtraConnectionPoints@CCmdTarget@@MAEHPAVCPtrArray@@@Z
	DD	FLAT:?GetConnectionHook@CCmdTarget@@MAEPAUIConnectionPoint@@ABU_GUID@@@Z
	DD	FLAT:?PreSubclassWindow@CWnd@@UAEXXZ
	DD	FLAT:?Create@CWnd@@UAEHPBD0KABUtagRECT@@PAV1@IPAUCCreateContext@@@Z
	DD	FLAT:?CreateEx@CWnd@@UAEHKPBD0KABUtagRECT@@PAV1@IPAX@Z
	DD	FLAT:?CreateEx@CWnd@@UAEHKPBD0KHHHHPAUHWND__@@PAUHMENU__@@PAX@Z
	DD	FLAT:?DestroyWindow@CWnd@@UAEHXZ
	DD	FLAT:?PreCreateWindow@CWnd@@UAEHAAUtagCREATESTRUCTA@@@Z
	DD	FLAT:?CalcWindowRect@CWnd@@UAEXPAUtagRECT@@I@Z
	DD	FLAT:?GetMenu@CWnd@@UBEPAVCMenu@@XZ
	DD	FLAT:?SetMenu@CWnd@@UAEHPAVCMenu@@@Z
	DD	FLAT:?OnToolHitTest@CWnd@@UBEHVCPoint@@PAUtagTOOLINFOA@@@Z
	DD	FLAT:?GetScrollBarCtrl@CWnd@@UBEPAVCScrollBar@@H@Z
	DD	FLAT:?WinHelpA@CWnd@@UAEXKI@Z
	DD	FLAT:?HtmlHelpA@CWnd@@UAEXKI@Z
	DD	FLAT:?WinHelpInternal@CWnd@@UAEXKI@Z
	DD	FLAT:?ContinueModal@CWnd@@UAEHXZ
	DD	FLAT:?EndModalLoop@CWnd@@UAEXH@Z
	DD	FLAT:?OnDrawIconicThumbnailOrLivePreview@CWnd@@UAEXAAVCDC@@VCRect@@VCSize@@HAAH@Z
	DD	FLAT:?EnsureStdObj@CWnd@@UAEJXZ
	DD	FLAT:?get_accParent@CWnd@@UAEJPAPAUIDispatch@@@Z
	DD	FLAT:?get_accChildCount@CWnd@@UAEJPAJ@Z
	DD	FLAT:?get_accChild@CWnd@@UAEJUtagVARIANT@@PAPAUIDispatch@@@Z
	DD	FLAT:?get_accName@CWnd@@UAEJUtagVARIANT@@PAPA_W@Z
	DD	FLAT:?get_accValue@CWnd@@UAEJUtagVARIANT@@PAPA_W@Z
	DD	FLAT:?get_accDescription@CWnd@@UAEJUtagVARIANT@@PAPA_W@Z
	DD	FLAT:?get_accRole@CWnd@@UAEJUtagVARIANT@@PAU2@@Z
	DD	FLAT:?get_accState@CWnd@@UAEJUtagVARIANT@@PAU2@@Z
	DD	FLAT:?get_accHelp@CWnd@@UAEJUtagVARIANT@@PAPA_W@Z
	DD	FLAT:?get_accHelpTopic@CWnd@@UAEJPAPA_WUtagVARIANT@@PAJ@Z
	DD	FLAT:?get_accKeyboardShortcut@CWnd@@UAEJUtagVARIANT@@PAPA_W@Z
	DD	FLAT:?get_accFocus@CWnd@@UAEJPAUtagVARIANT@@@Z
	DD	FLAT:?get_accSelection@CWnd@@UAEJPAUtagVARIANT@@@Z
	DD	FLAT:?get_accDefaultAction@CWnd@@UAEJUtagVARIANT@@PAPA_W@Z
	DD	FLAT:?accSelect@CWnd@@UAEJJUtagVARIANT@@@Z
	DD	FLAT:?accLocation@CWnd@@UAEJPAJ000UtagVARIANT@@@Z
	DD	FLAT:?accNavigate@CWnd@@UAEJJUtagVARIANT@@PAU2@@Z
	DD	FLAT:?accHitTest@CWnd@@UAEJJJPAUtagVARIANT@@@Z
	DD	FLAT:?accDoDefaultAction@CWnd@@UAEJUtagVARIANT@@@Z
	DD	FLAT:?put_accName@CWnd@@UAEJUtagVARIANT@@PA_W@Z
	DD	FLAT:?put_accValue@CWnd@@UAEJUtagVARIANT@@PA_W@Z
	DD	FLAT:?SetProxy@CWnd@@UAEJPAUIAccessibleProxy@@@Z
	DD	FLAT:?CreateAccessibleProxy@CWnd@@UAEJIJPAJ@Z
	DD	FLAT:?OnCommand@CWnd@@MAEHIJ@Z
	DD	FLAT:?OnNotify@CWnd@@MAEHIJPAJ@Z
	DD	FLAT:?GetSuperWndProcAddr@CWnd@@MAEPAP6GJPAUHWND__@@IIJ@ZXZ
	DD	FLAT:?DoDataExchange@CLeftBarDlg@@MAEXPAVCDataExchange@@@Z
	DD	FLAT:?BeginModalState@CWnd@@UAEXXZ
	DD	FLAT:?EndModalState@CWnd@@UAEXXZ
	DD	FLAT:?PreTranslateMessage@CLeftBarDlg@@UAEHPAUtagMSG@@@Z
	DD	FLAT:?OnAmbientProperty@CWnd@@UAEHPAVCOleControlSite@@JPAUtagVARIANT@@@Z
	DD	FLAT:?WindowProc@CLeftBarDlg@@MAEJIIJ@Z
	DD	FLAT:?OnWndMsg@CWnd@@MAEHIIJPAJ@Z
	DD	FLAT:?DefWindowProcA@CWnd@@MAEJIIJ@Z
	DD	FLAT:?PostNcDestroy@CWnd@@MAEXXZ
	DD	FLAT:?OnChildNotify@CWnd@@MAEHIIJPAJ@Z
	DD	FLAT:?OnTouchInputs@CWnd@@MAEHIPAUtagTOUCHINPUT@@@Z
	DD	FLAT:?OnTouchInput@CWnd@@MAEHVCPoint@@HHPAUtagTOUCHINPUT@@@Z
	DD	FLAT:?GetGestureStatus@CWnd@@MAEKVCPoint@@@Z
	DD	FLAT:?OnGestureZoom@CWnd@@MAEHVCPoint@@J@Z
	DD	FLAT:?OnGesturePan@CWnd@@MAEHVCPoint@@0@Z
	DD	FLAT:?OnGestureRotate@CWnd@@MAEHVCPoint@@N@Z
	DD	FLAT:?OnGestureTwoFingerTap@CWnd@@MAEHVCPoint@@@Z
	DD	FLAT:?OnGesturePressAndTap@CWnd@@MAEHVCPoint@@J@Z
	DD	FLAT:?ResizeDynamicLayout@CWnd@@MAEXXZ
	DD	FLAT:?CheckAutoCenter@CDialog@@UAEHXZ
	DD	FLAT:?IsFrameWnd@CWnd@@UBEHXZ
	DD	FLAT:?CreateControlContainer@CWnd@@MAEHPAPAVCOleControlContainer@@@Z
	DD	FLAT:?CreateControlSite@CWnd@@MAEHPAVCOleControlContainer@@PAPAVCOleControlSite@@IABU_GUID@@@Z
	DD	FLAT:?SetOccDialogInfo@CDialog@@MAEHPAU_AFX_OCC_DIALOG_INFO@@@Z
	DD	FLAT:?GetOccDialogInfo@CDialog@@MAEPAU_AFX_OCC_DIALOG_INFO@@XZ
	DD	FLAT:?Create@CRscDlg@@UAEHIPAVCWnd@@@Z
	DD	FLAT:?Create@CDialog@@UAEHPBDPAVCWnd@@@Z
	DD	FLAT:?CreateIndirect@CDialog@@UAEHPAXPAVCWnd@@@Z
	DD	FLAT:?CreateIndirect@CDialog@@UAEHPBUDLGTEMPLATE@@PAVCWnd@@PAX@Z
	DD	FLAT:?DoModal@CRscDlg@@UAEHXZ
	DD	FLAT:?OnInitDialog@CLeftBarDlg@@MAEHXZ
	DD	FLAT:?OnSetFont@CDialog@@UAEXPAVCFont@@@Z
	DD	FLAT:?OnOK@CDialog@@MAEXXZ
	DD	FLAT:?OnCancel@CDialog@@MAEXXZ
	DD	FLAT:?PreInitDialog@CDialog@@MAEXXZ
CONST	ENDS
;	COMDAT ??_R2CDialog@@8
rdata$r	SEGMENT
??_R2CDialog@@8 DD FLAT:??_R1A@?0A@EA@CDialog@@8	; CDialog::`RTTI Base Class Array'
	DD	FLAT:??_R1A@?0A@EA@CWnd@@8
	DD	FLAT:??_R1A@?0A@EA@CCmdTarget@@8
	DD	FLAT:??_R1A@?0A@EA@CObject@@8
rdata$r	ENDS
;	COMDAT ??_R3CDialog@@8
rdata$r	SEGMENT
??_R3CDialog@@8 DD 00H					; CDialog::`RTTI Class Hierarchy Descriptor'
	DD	00H
	DD	04H
	DD	FLAT:??_R2CDialog@@8
rdata$r	ENDS
;	COMDAT ??_R0?AVCDialog@@@8
data$rs	SEGMENT
??_R0?AVCDialog@@@8 DD FLAT:??_7type_info@@6B@		; CDialog `RTTI Type Descriptor'
	DD	00H
	DB	'.?AVCDialog@@', 00H
data$rs	ENDS
;	COMDAT ??_R1A@?0A@EA@CDialog@@8
rdata$r	SEGMENT
??_R1A@?0A@EA@CDialog@@8 DD FLAT:??_R0?AVCDialog@@@8	; CDialog::`RTTI Base Class Descriptor at (0,-1,0,64)'
	DD	03H
	DD	00H
	DD	0ffffffffH
	DD	00H
	DD	040H
	DD	FLAT:??_R3CDialog@@8
rdata$r	ENDS
;	COMDAT ??_R2CCmdTarget@@8
rdata$r	SEGMENT
??_R2CCmdTarget@@8 DD FLAT:??_R1A@?0A@EA@CCmdTarget@@8	; CCmdTarget::`RTTI Base Class Array'
	DD	FLAT:??_R1A@?0A@EA@CObject@@8
rdata$r	ENDS
;	COMDAT ??_R3CCmdTarget@@8
rdata$r	SEGMENT
??_R3CCmdTarget@@8 DD 00H				; CCmdTarget::`RTTI Class Hierarchy Descriptor'
	DD	00H
	DD	02H
	DD	FLAT:??_R2CCmdTarget@@8
rdata$r	ENDS
;	COMDAT ??_R0?AVCCmdTarget@@@8
data$rs	SEGMENT
??_R0?AVCCmdTarget@@@8 DD FLAT:??_7type_info@@6B@	; CCmdTarget `RTTI Type Descriptor'
	DD	00H
	DB	'.?AVCCmdTarget@@', 00H
data$rs	ENDS
;	COMDAT ??_R1A@?0A@EA@CCmdTarget@@8
rdata$r	SEGMENT
??_R1A@?0A@EA@CCmdTarget@@8 DD FLAT:??_R0?AVCCmdTarget@@@8 ; CCmdTarget::`RTTI Base Class Descriptor at (0,-1,0,64)'
	DD	01H
	DD	00H
	DD	0ffffffffH
	DD	00H
	DD	040H
	DD	FLAT:??_R3CCmdTarget@@8
rdata$r	ENDS
;	COMDAT ??_R2CWnd@@8
rdata$r	SEGMENT
??_R2CWnd@@8 DD	FLAT:??_R1A@?0A@EA@CWnd@@8		; CWnd::`RTTI Base Class Array'
	DD	FLAT:??_R1A@?0A@EA@CCmdTarget@@8
	DD	FLAT:??_R1A@?0A@EA@CObject@@8
rdata$r	ENDS
;	COMDAT ??_R3CWnd@@8
rdata$r	SEGMENT
??_R3CWnd@@8 DD	00H					; CWnd::`RTTI Class Hierarchy Descriptor'
	DD	00H
	DD	03H
	DD	FLAT:??_R2CWnd@@8
rdata$r	ENDS
;	COMDAT ??_R0?AVCWnd@@@8
data$rs	SEGMENT
??_R0?AVCWnd@@@8 DD FLAT:??_7type_info@@6B@		; CWnd `RTTI Type Descriptor'
	DD	00H
	DB	'.?AVCWnd@@', 00H
data$rs	ENDS
;	COMDAT ??_R1A@?0A@EA@CWnd@@8
rdata$r	SEGMENT
??_R1A@?0A@EA@CWnd@@8 DD FLAT:??_R0?AVCWnd@@@8		; CWnd::`RTTI Base Class Descriptor at (0,-1,0,64)'
	DD	02H
	DD	00H
	DD	0ffffffffH
	DD	00H
	DD	040H
	DD	FLAT:??_R3CWnd@@8
rdata$r	ENDS
;	COMDAT ??_R1A@?0A@EA@CBitmap@@8
rdata$r	SEGMENT
??_R1A@?0A@EA@CBitmap@@8 DD FLAT:??_R0?AVCBitmap@@@8	; CBitmap::`RTTI Base Class Descriptor at (0,-1,0,64)'
	DD	02H
	DD	00H
	DD	0ffffffffH
	DD	00H
	DD	040H
	DD	FLAT:??_R3CBitmap@@8
rdata$r	ENDS
;	COMDAT ??_R2CBitmap@@8
rdata$r	SEGMENT
??_R2CBitmap@@8 DD FLAT:??_R1A@?0A@EA@CBitmap@@8	; CBitmap::`RTTI Base Class Array'
	DD	FLAT:??_R1A@?0A@EA@CGdiObject@@8
	DD	FLAT:??_R1A@?0A@EA@CObject@@8
rdata$r	ENDS
;	COMDAT ??_R3CBitmap@@8
rdata$r	SEGMENT
??_R3CBitmap@@8 DD 00H					; CBitmap::`RTTI Class Hierarchy Descriptor'
	DD	00H
	DD	03H
	DD	FLAT:??_R2CBitmap@@8
rdata$r	ENDS
;	COMDAT ??_R0?AVCBitmap@@@8
data$rs	SEGMENT
??_R0?AVCBitmap@@@8 DD FLAT:??_7type_info@@6B@		; CBitmap `RTTI Type Descriptor'
	DD	00H
	DB	'.?AVCBitmap@@', 00H
data$rs	ENDS
;	COMDAT ??_R4CBitmap@@6B@
rdata$r	SEGMENT
??_R4CBitmap@@6B@ DD 00H				; CBitmap::`RTTI Complete Object Locator'
	DD	00H
	DD	00H
	DD	FLAT:??_R0?AVCBitmap@@@8
	DD	FLAT:??_R3CBitmap@@8
rdata$r	ENDS
;	COMDAT ??_R1A@?0A@EA@CBrush@@8
rdata$r	SEGMENT
??_R1A@?0A@EA@CBrush@@8 DD FLAT:??_R0?AVCBrush@@@8	; CBrush::`RTTI Base Class Descriptor at (0,-1,0,64)'
	DD	02H
	DD	00H
	DD	0ffffffffH
	DD	00H
	DD	040H
	DD	FLAT:??_R3CBrush@@8
rdata$r	ENDS
;	COMDAT ??_R2CBrush@@8
rdata$r	SEGMENT
??_R2CBrush@@8 DD FLAT:??_R1A@?0A@EA@CBrush@@8		; CBrush::`RTTI Base Class Array'
	DD	FLAT:??_R1A@?0A@EA@CGdiObject@@8
	DD	FLAT:??_R1A@?0A@EA@CObject@@8
rdata$r	ENDS
;	COMDAT ??_R3CBrush@@8
rdata$r	SEGMENT
??_R3CBrush@@8 DD 00H					; CBrush::`RTTI Class Hierarchy Descriptor'
	DD	00H
	DD	03H
	DD	FLAT:??_R2CBrush@@8
rdata$r	ENDS
;	COMDAT ??_R0?AVCBrush@@@8
data$rs	SEGMENT
??_R0?AVCBrush@@@8 DD FLAT:??_7type_info@@6B@		; CBrush `RTTI Type Descriptor'
	DD	00H
	DB	'.?AVCBrush@@', 00H
data$rs	ENDS
;	COMDAT ??_R4CBrush@@6B@
rdata$r	SEGMENT
??_R4CBrush@@6B@ DD 00H					; CBrush::`RTTI Complete Object Locator'
	DD	00H
	DD	00H
	DD	FLAT:??_R0?AVCBrush@@@8
	DD	FLAT:??_R3CBrush@@8
rdata$r	ENDS
;	COMDAT ??_R1A@?0A@EA@CGdiObject@@8
rdata$r	SEGMENT
??_R1A@?0A@EA@CGdiObject@@8 DD FLAT:??_R0?AVCGdiObject@@@8 ; CGdiObject::`RTTI Base Class Descriptor at (0,-1,0,64)'
	DD	01H
	DD	00H
	DD	0ffffffffH
	DD	00H
	DD	040H
	DD	FLAT:??_R3CGdiObject@@8
rdata$r	ENDS
;	COMDAT ??_R2CGdiObject@@8
rdata$r	SEGMENT
??_R2CGdiObject@@8 DD FLAT:??_R1A@?0A@EA@CGdiObject@@8	; CGdiObject::`RTTI Base Class Array'
	DD	FLAT:??_R1A@?0A@EA@CObject@@8
rdata$r	ENDS
;	COMDAT ??_R3CGdiObject@@8
rdata$r	SEGMENT
??_R3CGdiObject@@8 DD 00H				; CGdiObject::`RTTI Class Hierarchy Descriptor'
	DD	00H
	DD	02H
	DD	FLAT:??_R2CGdiObject@@8
rdata$r	ENDS
;	COMDAT ??_R0?AVCGdiObject@@@8
data$rs	SEGMENT
??_R0?AVCGdiObject@@@8 DD FLAT:??_7type_info@@6B@	; CGdiObject `RTTI Type Descriptor'
	DD	00H
	DB	'.?AVCGdiObject@@', 00H
data$rs	ENDS
;	COMDAT ??_R4CGdiObject@@6B@
rdata$r	SEGMENT
??_R4CGdiObject@@6B@ DD 00H				; CGdiObject::`RTTI Complete Object Locator'
	DD	00H
	DD	00H
	DD	FLAT:??_R0?AVCGdiObject@@@8
	DD	FLAT:??_R3CGdiObject@@8
rdata$r	ENDS
;	COMDAT ??_R1A@?0A@EA@CObject@@8
rdata$r	SEGMENT
??_R1A@?0A@EA@CObject@@8 DD FLAT:??_R0?AVCObject@@@8	; CObject::`RTTI Base Class Descriptor at (0,-1,0,64)'
	DD	00H
	DD	00H
	DD	0ffffffffH
	DD	00H
	DD	040H
	DD	FLAT:??_R3CObject@@8
rdata$r	ENDS
;	COMDAT ??_R2CObject@@8
rdata$r	SEGMENT
??_R2CObject@@8 DD FLAT:??_R1A@?0A@EA@CObject@@8	; CObject::`RTTI Base Class Array'
rdata$r	ENDS
;	COMDAT ??_R3CObject@@8
rdata$r	SEGMENT
??_R3CObject@@8 DD 00H					; CObject::`RTTI Class Hierarchy Descriptor'
	DD	00H
	DD	01H
	DD	FLAT:??_R2CObject@@8
rdata$r	ENDS
;	COMDAT ??_R0?AVCObject@@@8
data$rs	SEGMENT
??_R0?AVCObject@@@8 DD FLAT:??_7type_info@@6B@		; CObject `RTTI Type Descriptor'
	DD	00H
	DB	'.?AVCObject@@', 00H
data$rs	ENDS
;	COMDAT ??_C@_01GBGANLPD@0@
CONST	SEGMENT
??_C@_01GBGANLPD@0@ DB '0', 00H				; `string'
CONST	ENDS
;	COMDAT ??_C@_0N@OMEMOKLE@?$CFTs?5?$CI?$CFTs?3?$CFd?$CJ@
CONST	SEGMENT
??_C@_0N@OMEMOKLE@?$CFTs?5?$CI?$CFTs?3?$CFd?$CJ@ DB '%Ts (%Ts:%d)', 00H ; `string'
CONST	ENDS
;	COMDAT ??_C@_0BB@HBOOMJBF@?$CFTs?5?$CI?$CFTs?3?$CFd?$CJ?6?$CFTs@
CONST	SEGMENT
??_C@_0BB@HBOOMJBF@?$CFTs?5?$CI?$CFTs?3?$CFd?$CJ?6?$CFTs@ DB '%Ts (%Ts:%d'
	DB	')', 0aH, '%Ts', 00H				; `string'
CONST	ENDS
;	COMDAT ??_C@_0BP@OIEOKIDM@Exception?5thrown?5in?5destructor@
CONST	SEGMENT
??_C@_0BP@OIEOKIDM@Exception?5thrown?5in?5destructor@ DB 'Exception throw'
	DB	'n in destructor', 00H			; `string'
CONST	ENDS
;	COMDAT ??_C@_0HD@JJCHHHNK@C?3?2Program?5Files?5?$CIx86?$CJ?2Microsof@
CONST	SEGMENT
??_C@_0HD@JJCHHHNK@C?3?2Program?5Files?5?$CIx86?$CJ?2Microsof@ DB 'C:\Pro'
	DB	'gram Files (x86)\Microsoft Visual Studio\2019\Community\VC\To'
	DB	'ols\MSVC\14.29.30133\atlmfc\include\afxwin1.inl', 00H ; `string'
CONST	ENDS
;	COMDAT ??_7CBitmap@@6B@
CONST	SEGMENT
??_7CBitmap@@6B@ DD FLAT:??_R4CBitmap@@6B@		; CBitmap::`vftable'
	DD	FLAT:?GetRuntimeClass@CBitmap@@UBEPAUCRuntimeClass@@XZ
	DD	FLAT:??_ECBitmap@@UAEPAXI@Z
	DD	FLAT:?Serialize@CObject@@UAEXAAVCArchive@@@Z
	DD	FLAT:?AssertValid@CObject@@UBEXXZ
	DD	FLAT:?Dump@CObject@@UBEXAAVCDumpContext@@@Z
CONST	ENDS
;	COMDAT ??_7CBrush@@6B@
CONST	SEGMENT
??_7CBrush@@6B@ DD FLAT:??_R4CBrush@@6B@		; CBrush::`vftable'
	DD	FLAT:?GetRuntimeClass@CBrush@@UBEPAUCRuntimeClass@@XZ
	DD	FLAT:??_ECBrush@@UAEPAXI@Z
	DD	FLAT:?Serialize@CObject@@UAEXAAVCArchive@@@Z
	DD	FLAT:?AssertValid@CObject@@UBEXXZ
	DD	FLAT:?Dump@CObject@@UBEXAAVCDumpContext@@@Z
CONST	ENDS
;	COMDAT ??_7CGdiObject@@6B@
CONST	SEGMENT
??_7CGdiObject@@6B@ DD FLAT:??_R4CGdiObject@@6B@	; CGdiObject::`vftable'
	DD	FLAT:?GetRuntimeClass@CGdiObject@@UBEPAUCRuntimeClass@@XZ
	DD	FLAT:??_ECGdiObject@@UAEPAXI@Z
	DD	FLAT:?Serialize@CObject@@UAEXAAVCArchive@@@Z
	DD	FLAT:?AssertValid@CObject@@UBEXXZ
	DD	FLAT:?Dump@CObject@@UBEXAAVCDumpContext@@@Z
CONST	ENDS
;	COMDAT ?_AtlWinModule@ATL@@3VCAtlWinModule@1@A
_DATA	SEGMENT
?_AtlWinModule@ATL@@3VCAtlWinModule@1@A DD 02cH		; ATL::_AtlWinModule
	DB	24 DUP(00H)
	DD	00H
_DATA	ENDS
;	COMDAT ??_C@_02DPKJAMEF@?$CFd@
CONST	SEGMENT
??_C@_02DPKJAMEF@?$CFd@ DB '%d', 00H			; `string'
CONST	ENDS
;	COMDAT ??_R0PAVCException@@@8
data$r	SEGMENT
??_R0PAVCException@@@8 DD FLAT:??_7type_info@@6B@	; CException * `RTTI Type Descriptor'
	DD	00H
	DB	'.PAVCException@@', 00H
data$r	ENDS
;	COMDAT xdata$x
xdata$x	SEGMENT
__ehfuncinfo$??_Estringdispid@CComTypeInfoHolder@ATL@@QAEPAXI@Z DD 019930522H
	DD	00H
	DD	00H
	DD	2 DUP(00H)
	DD	2 DUP(00H)
	DD	00H
	DD	05H
xdata$x	ENDS
;	COMDAT xdata$x
xdata$x	SEGMENT
__unwindtable$?OnPaint@CLeftBarDlg@@IAEXXZ DD 0ffffffffH
	DD	FLAT:__unwindfunclet$?OnPaint@CLeftBarDlg@@IAEXXZ$0
	DD	00H
	DD	FLAT:__unwindfunclet$?OnPaint@CLeftBarDlg@@IAEXXZ$1
	DD	01H
	DD	FLAT:__unwindfunclet$?OnPaint@CLeftBarDlg@@IAEXXZ$2
__ehfuncinfo$?OnPaint@CLeftBarDlg@@IAEXXZ DD 019930522H
	DD	03H
	DD	FLAT:__unwindtable$?OnPaint@CLeftBarDlg@@IAEXXZ
	DD	2 DUP(00H)
	DD	2 DUP(00H)
	DD	00H
	DD	01H
xdata$x	ENDS
;	COMDAT xdata$x
xdata$x	SEGMENT
__unwindtable$?OnDestroy@CLeftBarDlg@@IAEXXZ DD 0ffffffffH
	DD	FLAT:__unwindfunclet$?OnDestroy@CLeftBarDlg@@IAEXXZ$0
	DD	00H
	DD	FLAT:__unwindfunclet$?OnDestroy@CLeftBarDlg@@IAEXXZ$1
__ehfuncinfo$?OnDestroy@CLeftBarDlg@@IAEXXZ DD 019930522H
	DD	02H
	DD	FLAT:__unwindtable$?OnDestroy@CLeftBarDlg@@IAEXXZ
	DD	2 DUP(00H)
	DD	2 DUP(00H)
	DD	00H
	DD	01H
xdata$x	ENDS
;	COMDAT xdata$x
xdata$x	SEGMENT
__unwindtable$?OnInitDialog@CLeftBarDlg@@MAEHXZ DD 0ffffffffH
	DD	FLAT:__unwindfunclet$?OnInitDialog@CLeftBarDlg@@MAEHXZ$0
	DD	00H
	DD	FLAT:__unwindfunclet$?OnInitDialog@CLeftBarDlg@@MAEHXZ$1
__ehfuncinfo$?OnInitDialog@CLeftBarDlg@@MAEHXZ DD 019930522H
	DD	02H
	DD	FLAT:__unwindtable$?OnInitDialog@CLeftBarDlg@@MAEHXZ
	DD	2 DUP(00H)
	DD	2 DUP(00H)
	DD	00H
	DD	01H
xdata$x	ENDS
;	COMDAT xdata$x
xdata$x	SEGMENT
__unwindtable$?WindowProc@CLeftBarDlg@@MAEJIIJ@Z DD 0ffffffffH
	DD	FLAT:__unwindfunclet$?WindowProc@CLeftBarDlg@@MAEJIIJ@Z$0
__ehfuncinfo$?WindowProc@CLeftBarDlg@@MAEJIIJ@Z DD 019930522H
	DD	01H
	DD	FLAT:__unwindtable$?WindowProc@CLeftBarDlg@@MAEJIIJ@Z
	DD	2 DUP(00H)
	DD	2 DUP(00H)
	DD	00H
	DD	01H
xdata$x	ENDS
;	COMDAT xdata$x
xdata$x	SEGMENT
__unwindtable$?SetConfig@CLeftBarDlg@@QAEXH@Z DD 0ffffffffH
	DD	FLAT:__unwindfunclet$?SetConfig@CLeftBarDlg@@QAEXH@Z$0
	DD	00H
	DD	FLAT:__unwindfunclet$?SetConfig@CLeftBarDlg@@QAEXH@Z$1
__ehfuncinfo$?SetConfig@CLeftBarDlg@@QAEXH@Z DD 019930522H
	DD	02H
	DD	FLAT:__unwindtable$?SetConfig@CLeftBarDlg@@QAEXH@Z
	DD	2 DUP(00H)
	DD	2 DUP(00H)
	DD	00H
	DD	01H
xdata$x	ENDS
;	COMDAT xdata$x
xdata$x	SEGMENT
__unwindtable$?SetPacketFromOutSide@CLeftBarDlg@@QAEXV?$CStringT@DV?$StrTraitMFC_DLL@DV?$ChTraitsCRT@D@ATL@@@@@ATL@@@Z DD 0ffffffffH
	DD	FLAT:__unwindfunclet$?SetPacketFromOutSide@CLeftBarDlg@@QAEXV?$CStringT@DV?$StrTraitMFC_DLL@DV?$ChTraitsCRT@D@ATL@@@@@ATL@@@Z$0
__ehfuncinfo$?SetPacketFromOutSide@CLeftBarDlg@@QAEXV?$CStringT@DV?$StrTraitMFC_DLL@DV?$ChTraitsCRT@D@ATL@@@@@ATL@@@Z DD 019930522H
	DD	01H
	DD	FLAT:__unwindtable$?SetPacketFromOutSide@CLeftBarDlg@@QAEXV?$CStringT@DV?$StrTraitMFC_DLL@DV?$ChTraitsCRT@D@ATL@@@@@ATL@@@Z
	DD	2 DUP(00H)
	DD	2 DUP(00H)
	DD	00H
	DD	01H
xdata$x	ENDS
;	COMDAT xdata$x
xdata$x	SEGMENT
__unwindtable$?OnCodeUnAdvise@CLeftBarDlg@@QAEXV?$CStringT@DV?$StrTraitMFC_DLL@DV?$ChTraitsCRT@D@ATL@@@@@ATL@@@Z DD 0ffffffffH
	DD	FLAT:__unwindfunclet$?OnCodeUnAdvise@CLeftBarDlg@@QAEXV?$CStringT@DV?$StrTraitMFC_DLL@DV?$ChTraitsCRT@D@ATL@@@@@ATL@@@Z$0
__ehfuncinfo$?OnCodeUnAdvise@CLeftBarDlg@@QAEXV?$CStringT@DV?$StrTraitMFC_DLL@DV?$ChTraitsCRT@D@ATL@@@@@ATL@@@Z DD 019930522H
	DD	01H
	DD	FLAT:__unwindtable$?OnCodeUnAdvise@CLeftBarDlg@@QAEXV?$CStringT@DV?$StrTraitMFC_DLL@DV?$ChTraitsCRT@D@ATL@@@@@ATL@@@Z
	DD	2 DUP(00H)
	DD	2 DUP(00H)
	DD	00H
	DD	01H
xdata$x	ENDS
;	COMDAT xdata$x
xdata$x	SEGMENT
__unwindtable$?OnCodeAdvise@CLeftBarDlg@@QAEXV?$CStringT@DV?$StrTraitMFC_DLL@DV?$ChTraitsCRT@D@ATL@@@@@ATL@@@Z DD 0ffffffffH
	DD	FLAT:__unwindfunclet$?OnCodeAdvise@CLeftBarDlg@@QAEXV?$CStringT@DV?$StrTraitMFC_DLL@DV?$ChTraitsCRT@D@ATL@@@@@ATL@@@Z$0
__ehfuncinfo$?OnCodeAdvise@CLeftBarDlg@@QAEXV?$CStringT@DV?$StrTraitMFC_DLL@DV?$ChTraitsCRT@D@ATL@@@@@ATL@@@Z DD 019930522H
	DD	01H
	DD	FLAT:__unwindtable$?OnCodeAdvise@CLeftBarDlg@@QAEXV?$CStringT@DV?$StrTraitMFC_DLL@DV?$ChTraitsCRT@D@ATL@@@@@ATL@@@Z
	DD	2 DUP(00H)
	DD	2 DUP(00H)
	DD	00H
	DD	01H
xdata$x	ENDS
;	COMDAT xdata$x
xdata$x	SEGMENT
__ehfuncinfo$??0CLeftBarDlg@@QAE@PAVCWnd@@@Z DD 019930522H
	DD	05H
	DD	FLAT:__unwindtable$??0CLeftBarDlg@@QAE@PAVCWnd@@@Z
	DD	2 DUP(00H)
	DD	2 DUP(00H)
	DD	00H
	DD	01H
__unwindtable$??0CLeftBarDlg@@QAE@PAVCWnd@@@Z DD 0ffffffffH
	DD	FLAT:__unwindfunclet$??0CLeftBarDlg@@QAE@PAVCWnd@@@Z$0
	DD	00H
	DD	FLAT:__unwindfunclet$??0CLeftBarDlg@@QAE@PAVCWnd@@@Z$1
	DD	01H
	DD	FLAT:__unwindfunclet$??0CLeftBarDlg@@QAE@PAVCWnd@@@Z$2
	DD	02H
	DD	FLAT:__unwindfunclet$??0CLeftBarDlg@@QAE@PAVCWnd@@@Z$3
	DD	03H
	DD	FLAT:__unwindfunclet$??0CLeftBarDlg@@QAE@PAVCWnd@@@Z$4
xdata$x	ENDS
;	COMDAT xdata$x
xdata$x	SEGMENT
__catchsym$??1CGdiObject@@UAE@XZ$3 DD 00H
	DD	FLAT:??_R0PAVCException@@@8
	DD	0fffffde4H
	DD	FLAT:__catch$??1CGdiObject@@UAE@XZ$0
__tryblocktable$??1CGdiObject@@UAE@XZ DD 00H
	DD	00H
	DD	02H
	DD	01H
	DD	FLAT:__catchsym$??1CGdiObject@@UAE@XZ$3
__unwindtable$??1CGdiObject@@UAE@XZ DD 0ffffffffH
	DD	00H
	DD	0ffffffffH
	DD	00H
	DD	01H
	DD	FLAT:__unwindfunclet$??1CGdiObject@@UAE@XZ$2
__ehfuncinfo$??1CGdiObject@@UAE@XZ DD 019930522H
	DD	03H
	DD	FLAT:__unwindtable$??1CGdiObject@@UAE@XZ
	DD	01H
	DD	FLAT:__tryblocktable$??1CGdiObject@@UAE@XZ
	DD	2 DUP(00H)
	DD	00H
	DD	05H
xdata$x	ENDS
CRT$XCU	SEGMENT
?RMSG_REPLAY_REAL$initializer$@@3P6AXXZA DD FLAT:??__ERMSG_REPLAY_REAL@@YAXXZ ; RMSG_REPLAY_REAL$initializer$
CRT$XCU	ENDS
CRT$XCU	SEGMENT
?RMSG_REPLAY_FAIL$initializer$@@3P6AXXZA DD FLAT:??__ERMSG_REPLAY_FAIL@@YAXXZ ; RMSG_REPLAY_FAIL$initializer$
CRT$XCU	ENDS
CRT$XCU	SEGMENT
?RMSG_REPLAY_CHANGE_DATE$initializer$@@3P6AXXZA DD FLAT:??__ERMSG_REPLAY_CHANGE_DATE@@YAXXZ ; RMSG_REPLAY_CHANGE_DATE$initializer$
CRT$XCU	ENDS
CRT$XCU	SEGMENT
?RMSG_REPLAY_END$initializer$@@3P6AXXZA DD FLAT:??__ERMSG_REPLAY_END@@YAXXZ ; RMSG_REPLAY_END$initializer$
CRT$XCU	ENDS
CRT$XCU	SEGMENT
?RMSG_REPLAY_INC_SEC$initializer$@@3P6AXXZA DD FLAT:??__ERMSG_REPLAY_INC_SEC@@YAXXZ ; RMSG_REPLAY_INC_SEC$initializer$
CRT$XCU	ENDS
CRT$XCU	SEGMENT
?RMSG_REPLAY_TOTAL_SEC$initializer$@@3P6AXXZA DD FLAT:??__ERMSG_REPLAY_TOTAL_SEC@@YAXXZ ; RMSG_REPLAY_TOTAL_SEC$initializer$
CRT$XCU	ENDS
CRT$XCU	SEGMENT
?RMSG_GETSIGNAL_REAL$initializer$@@3P6AXXZA DD FLAT:??__ERMSG_GETSIGNAL_REAL@@YAXXZ ; RMSG_GETSIGNAL_REAL$initializer$
CRT$XCU	ENDS
CRT$XCU	SEGMENT
?RMSG_SETQUERYOPT$initializer$@@3P6AXXZA DD FLAT:??__ERMSG_SETQUERYOPT@@YAXXZ ; RMSG_SETQUERYOPT$initializer$
CRT$XCU	ENDS
CRT$XCU	SEGMENT
?RMSG_CHARTMAIN$initializer$@@3P6AXXZA DD FLAT:??__ERMSG_CHARTMAIN@@YAXXZ ; RMSG_CHARTMAIN$initializer$
CRT$XCU	ENDS
CRT$XCU	SEGMENT
?RMS_ANALYSIS_FUNC$initializer$@@3P6AXXZA DD FLAT:??__ERMS_ANALYSIS_FUNC@@YAXXZ ; RMS_ANALYSIS_FUNC$initializer$
CRT$XCU	ENDS
CRT$XCU	SEGMENT
?RMSG_GET_USERID$initializer$@@3P6AXXZA DD FLAT:??__ERMSG_GET_USERID@@YAXXZ ; RMSG_GET_USERID$initializer$
CRT$XCU	ENDS
CRT$XCU	SEGMENT
?RMSG_CHANGE_SKINCOLOR$initializer$@@3P6AXXZA DD FLAT:??__ERMSG_CHANGE_SKINCOLOR@@YAXXZ ; RMSG_CHANGE_SKINCOLOR$initializer$
CRT$XCU	ENDS
CRT$XCU	SEGMENT
?RMSG_GET_SKINCOLOR$initializer$@@3P6AXXZA DD FLAT:??__ERMSG_GET_SKINCOLOR@@YAXXZ ; RMSG_GET_SKINCOLOR$initializer$
CRT$XCU	ENDS
CRT$XCU	SEGMENT
?RMSG_CHANGEVERTSCALETYPE$initializer$@@3P6AXXZA DD FLAT:??__ERMSG_CHANGEVERTSCALETYPE@@YAXXZ ; RMSG_CHANGEVERTSCALETYPE$initializer$
CRT$XCU	ENDS
CRT$XCU	SEGMENT
?RMSG_CHANGE_CROSSLINE$initializer$@@3P6AXXZA DD FLAT:??__ERMSG_CHANGE_CROSSLINE@@YAXXZ ; RMSG_CHANGE_CROSSLINE$initializer$
CRT$XCU	ENDS
CRT$XCU	SEGMENT
?RMSG_ADD_PLATFORM_MENU$initializer$@@3P6AXXZA DD FLAT:??__ERMSG_ADD_PLATFORM_MENU@@YAXXZ ; RMSG_ADD_PLATFORM_MENU$initializer$
CRT$XCU	ENDS
CRT$XCU	SEGMENT
?RMSG_SETINITIALCHARTDATA$initializer$@@3P6AXXZA DD FLAT:??__ERMSG_SETINITIALCHARTDATA@@YAXXZ ; RMSG_SETINITIALCHARTDATA$initializer$
CRT$XCU	ENDS
CRT$XCU	SEGMENT
?RMSG_GETINFO$initializer$@@3P6AXXZA DD FLAT:??__ERMSG_GETINFO@@YAXXZ ; RMSG_GETINFO$initializer$
CRT$XCU	ENDS
CRT$XCU	SEGMENT
?RMSG_SETINFO$initializer$@@3P6AXXZA DD FLAT:??__ERMSG_SETINFO@@YAXXZ ; RMSG_SETINFO$initializer$
CRT$XCU	ENDS
CRT$XCU	SEGMENT
?RMSG_ADDACCOUNTCODE$initializer$@@3P6AXXZA DD FLAT:??__ERMSG_ADDACCOUNTCODE@@YAXXZ ; RMSG_ADDACCOUNTCODE$initializer$
CRT$XCU	ENDS
CRT$XCU	SEGMENT
?RMSG_CHECKAVGPRICE$initializer$@@3P6AXXZA DD FLAT:??__ERMSG_CHECKAVGPRICE@@YAXXZ ; RMSG_CHECKAVGPRICE$initializer$
CRT$XCU	ENDS
CRT$XCU	SEGMENT
?RMSG_ADDACCOUNTCONC$initializer$@@3P6AXXZA DD FLAT:??__ERMSG_ADDACCOUNTCONC@@YAXXZ ; RMSG_ADDACCOUNTCONC$initializer$
CRT$XCU	ENDS
CRT$XCU	SEGMENT
?RMSG_RESETCONCDATA$initializer$@@3P6AXXZA DD FLAT:??__ERMSG_RESETCONCDATA@@YAXXZ ; RMSG_RESETCONCDATA$initializer$
CRT$XCU	ENDS
; Function compile flags: /Ogtp
; File D:\git\src\IBK\IBK_DRFN\ProjSrc\SrcDrfn\Chart\MULTICHART\LeftBarDlg.cpp
;	COMDAT ??__ERMSG_RESETCONCDATA@@YAXXZ
text$di	SEGMENT
??__ERMSG_RESETCONCDATA@@YAXXZ PROC			; `dynamic initializer for 'RMSG_RESETCONCDATA'', COMDAT

; 20   : const UINT RMSG_RESETCONCDATA		=   ::RegisterWindowMessage("RMSG_RESETCONCDATA");

  00000	68 00 00 00 00	 push	 OFFSET ??_C@_0BD@OKKAEAJC@RMSG_RESETCONCDATA@
  00005	ff 15 00 00 00
	00		 call	 DWORD PTR __imp__RegisterWindowMessageA@4
  0000b	a3 00 00 00 00	 mov	 DWORD PTR ?RMSG_RESETCONCDATA@@3IB, eax
  00010	c3		 ret	 0
??__ERMSG_RESETCONCDATA@@YAXXZ ENDP			; `dynamic initializer for 'RMSG_RESETCONCDATA''
text$di	ENDS
; Function compile flags: /Ogtp
; File D:\git\src\IBK\IBK_DRFN\ProjSrc\SrcDrfn\Chart\MULTICHART\LeftBarDlg.cpp
;	COMDAT ??__ERMSG_ADDACCOUNTCONC@@YAXXZ
text$di	SEGMENT
??__ERMSG_ADDACCOUNTCONC@@YAXXZ PROC			; `dynamic initializer for 'RMSG_ADDACCOUNTCONC'', COMDAT

; 19   : const UINT RMSG_ADDACCOUNTCONC		=   ::RegisterWindowMessage("RMSG_ADDACCOUNTCONC");

  00000	68 00 00 00 00	 push	 OFFSET ??_C@_0BE@PFEEJKPO@RMSG_ADDACCOUNTCONC@
  00005	ff 15 00 00 00
	00		 call	 DWORD PTR __imp__RegisterWindowMessageA@4
  0000b	a3 00 00 00 00	 mov	 DWORD PTR ?RMSG_ADDACCOUNTCONC@@3IB, eax
  00010	c3		 ret	 0
??__ERMSG_ADDACCOUNTCONC@@YAXXZ ENDP			; `dynamic initializer for 'RMSG_ADDACCOUNTCONC''
text$di	ENDS
; Function compile flags: /Ogtp
; File D:\git\src\IBK\IBK_DRFN\ProjSrc\SrcDrfn\Chart\MULTICHART\LeftBarDlg.cpp
;	COMDAT ??__ERMSG_CHECKAVGPRICE@@YAXXZ
text$di	SEGMENT
??__ERMSG_CHECKAVGPRICE@@YAXXZ PROC			; `dynamic initializer for 'RMSG_CHECKAVGPRICE'', COMDAT

; 18   : const UINT RMSG_CHECKAVGPRICE		=   ::RegisterWindowMessage("RMSG_CHECKAVGPRICE");

  00000	68 00 00 00 00	 push	 OFFSET ??_C@_0BD@IBMNKIJA@RMSG_CHECKAVGPRICE@
  00005	ff 15 00 00 00
	00		 call	 DWORD PTR __imp__RegisterWindowMessageA@4
  0000b	a3 00 00 00 00	 mov	 DWORD PTR ?RMSG_CHECKAVGPRICE@@3IB, eax
  00010	c3		 ret	 0
??__ERMSG_CHECKAVGPRICE@@YAXXZ ENDP			; `dynamic initializer for 'RMSG_CHECKAVGPRICE''
text$di	ENDS
; Function compile flags: /Ogtp
; File D:\git\src\IBK\IBK_DRFN\ProjSrc\SrcDrfn\Chart\MULTICHART\LeftBarDlg.cpp
;	COMDAT ??__ERMSG_ADDACCOUNTCODE@@YAXXZ
text$di	SEGMENT
??__ERMSG_ADDACCOUNTCODE@@YAXXZ PROC			; `dynamic initializer for 'RMSG_ADDACCOUNTCODE'', COMDAT

; 17   : const UINT RMSG_ADDACCOUNTCODE		=   ::RegisterWindowMessage("RMSG_ADDACCOUNTCODE");

  00000	68 00 00 00 00	 push	 OFFSET ??_C@_0BE@KOIJLIKO@RMSG_ADDACCOUNTCODE@
  00005	ff 15 00 00 00
	00		 call	 DWORD PTR __imp__RegisterWindowMessageA@4
  0000b	a3 00 00 00 00	 mov	 DWORD PTR ?RMSG_ADDACCOUNTCODE@@3IB, eax
  00010	c3		 ret	 0
??__ERMSG_ADDACCOUNTCODE@@YAXXZ ENDP			; `dynamic initializer for 'RMSG_ADDACCOUNTCODE''
text$di	ENDS
; Function compile flags: /Ogtp
;	COMDAT ??1CRegFavoriteDlg@@UAE@XZ
_TEXT	SEGMENT
??1CRegFavoriteDlg@@UAE@XZ PROC				; CRegFavoriteDlg::~CRegFavoriteDlg, COMDAT
; _this$ = ecx
  00000	56		 push	 esi
  00001	8b f1		 mov	 esi, ecx
  00003	8d 8e b0 00 00
	00		 lea	 ecx, DWORD PTR [esi+176]
  00009	e8 00 00 00 00	 call	 ??1CListBox@@UAE@XZ	; CListBox::~CListBox
  0000e	8b ce		 mov	 ecx, esi
  00010	5e		 pop	 esi
  00011	e9 00 00 00 00	 jmp	 ??1CDialog@@UAE@XZ	; CDialog::~CDialog
??1CRegFavoriteDlg@@UAE@XZ ENDP				; CRegFavoriteDlg::~CRegFavoriteDlg
_TEXT	ENDS
; Function compile flags: /Ogtp
; File C:\Program Files (x86)\Microsoft Visual Studio\2019\Community\VC\Tools\MSVC\14.29.30133\atlmfc\include\atlcomcli.h
;	COMDAT ??_Estringdispid@CComTypeInfoHolder@ATL@@QAEPAXI@Z
_TEXT	SEGMENT
__$EHRec$ = -12						; size = 12
___flags$ = 8						; size = 4
??_Estringdispid@CComTypeInfoHolder@ATL@@QAEPAXI@Z PROC	; ATL::CComTypeInfoHolder::stringdispid::`vector deleting destructor', COMDAT
; _this$ = ecx
  00000	55		 push	 ebp
  00001	8b ec		 mov	 ebp, esp
  00003	6a ff		 push	 -1
  00005	68 00 00 00 00	 push	 __ehhandler$??_Estringdispid@CComTypeInfoHolder@ATL@@QAEPAXI@Z
  0000a	64 a1 00 00 00
	00		 mov	 eax, DWORD PTR fs:0
  00010	50		 push	 eax
  00011	53		 push	 ebx
  00012	56		 push	 esi
  00013	57		 push	 edi
  00014	a1 00 00 00 00	 mov	 eax, DWORD PTR ___security_cookie
  00019	33 c5		 xor	 eax, ebp
  0001b	50		 push	 eax
  0001c	8d 45 f4	 lea	 eax, DWORD PTR __$EHRec$[ebp]
  0001f	64 a3 00 00 00
	00		 mov	 DWORD PTR fs:0, eax
  00025	8b f1		 mov	 esi, ecx
  00027	8b 45 08	 mov	 eax, DWORD PTR ___flags$[ebp]
  0002a	8b d8		 mov	 ebx, eax
  0002c	83 e3 01	 and	 ebx, 1
  0002f	a8 02		 test	 al, 2
  00031	74 43		 je	 SHORT $LN2@vector
  00033	68 00 00 00 00	 push	 OFFSET ??1stringdispid@CComTypeInfoHolder@ATL@@QAE@XZ
  00038	ff 76 fc	 push	 DWORD PTR [esi-4]
  0003b	8d 7e fc	 lea	 edi, DWORD PTR [esi-4]
  0003e	6a 0c		 push	 12			; 0000000cH
  00040	56		 push	 esi
  00041	e8 00 00 00 00	 call	 ??_M@YGXPAXIIP6EX0@Z@Z
  00046	85 db		 test	 ebx, ebx
  00048	74 16		 je	 SHORT $LN3@vector
  0004a	8b 0f		 mov	 ecx, DWORD PTR [edi]
  0004c	8d 0c 49	 lea	 ecx, DWORD PTR [ecx+ecx*2]
  0004f	8d 0c 8d 04 00
	00 00		 lea	 ecx, DWORD PTR [ecx*4+4]
  00056	51		 push	 ecx
  00057	57		 push	 edi
  00058	e8 00 00 00 00	 call	 ??_V@YAXPAXI@Z		; operator delete[]
  0005d	83 c4 08	 add	 esp, 8
$LN3@vector:
  00060	8b c7		 mov	 eax, edi
  00062	8b 4d f4	 mov	 ecx, DWORD PTR __$EHRec$[ebp]
  00065	64 89 0d 00 00
	00 00		 mov	 DWORD PTR fs:0, ecx
  0006c	59		 pop	 ecx
  0006d	5f		 pop	 edi
  0006e	5e		 pop	 esi
  0006f	5b		 pop	 ebx
  00070	8b e5		 mov	 esp, ebp
  00072	5d		 pop	 ebp
  00073	c2 04 00	 ret	 4
$LN2@vector:

; 1680 :     ::SysFreeString(m_str);

  00076	ff 36		 push	 DWORD PTR [esi]
  00078	ff 15 00 00 00
	00		 call	 DWORD PTR __imp__SysFreeString@4
  0007e	85 db		 test	 ebx, ebx
  00080	74 0b		 je	 SHORT $LN4@vector
  00082	6a 0c		 push	 12			; 0000000cH
  00084	56		 push	 esi
  00085	e8 00 00 00 00	 call	 ??3@YAXPAXI@Z		; operator delete
  0008a	83 c4 08	 add	 esp, 8
$LN4@vector:
  0008d	8b c6		 mov	 eax, esi
  0008f	8b 4d f4	 mov	 ecx, DWORD PTR __$EHRec$[ebp]
  00092	64 89 0d 00 00
	00 00		 mov	 DWORD PTR fs:0, ecx
  00099	59		 pop	 ecx
  0009a	5f		 pop	 edi
  0009b	5e		 pop	 esi
  0009c	5b		 pop	 ebx
  0009d	8b e5		 mov	 esp, ebp
  0009f	5d		 pop	 ebp
  000a0	c2 04 00	 ret	 4
  000a3	cc		 int	 3
  000a4	cc		 int	 3
  000a5	cc		 int	 3
  000a6	cc		 int	 3
  000a7	cc		 int	 3
_TEXT	ENDS
;	COMDAT text$x
text$x	SEGMENT
__ehhandler$??_Estringdispid@CComTypeInfoHolder@ATL@@QAEPAXI@Z:
  00000	90		 npad	 1
  00001	90		 npad	 1
  00002	8b 54 24 08	 mov	 edx, DWORD PTR [esp+8]
  00006	8d 42 0c	 lea	 eax, DWORD PTR [edx+12]
  00009	8b 4a f0	 mov	 ecx, DWORD PTR [edx-16]
  0000c	33 c8		 xor	 ecx, eax
  0000e	e8 00 00 00 00	 call	 @__security_check_cookie@4
  00013	b8 00 00 00 00	 mov	 eax, OFFSET __ehfuncinfo$??_Estringdispid@CComTypeInfoHolder@ATL@@QAEPAXI@Z
  00018	e9 00 00 00 00	 jmp	 ___CxxFrameHandler3
text$x	ENDS
??_Estringdispid@CComTypeInfoHolder@ATL@@QAEPAXI@Z ENDP	; ATL::CComTypeInfoHolder::stringdispid::`vector deleting destructor'
; Function compile flags: /Ogtp
; File C:\Program Files (x86)\Microsoft Visual Studio\2019\Community\VC\Tools\MSVC\14.29.30133\atlmfc\include\atlcomcli.h
;	COMDAT ??1stringdispid@CComTypeInfoHolder@ATL@@QAE@XZ
_TEXT	SEGMENT
??1stringdispid@CComTypeInfoHolder@ATL@@QAE@XZ PROC	; ATL::CComTypeInfoHolder::stringdispid::~stringdispid, COMDAT
; _this$ = ecx

; 1680 :     ::SysFreeString(m_str);

  00000	ff 31		 push	 DWORD PTR [ecx]
  00002	ff 15 00 00 00
	00		 call	 DWORD PTR __imp__SysFreeString@4
  00008	c3		 ret	 0
??1stringdispid@CComTypeInfoHolder@ATL@@QAE@XZ ENDP	; ATL::CComTypeInfoHolder::stringdispid::~stringdispid
_TEXT	ENDS
; Function compile flags: /Ogtp
; File D:\git\src\IBK\IBK_DRFN\ProjSrc\SrcDrfn\Chart\MULTICHART\define\ChartMsgDef.h
;	COMDAT ??__ERMSG_SETINFO@@YAXXZ
text$di	SEGMENT
??__ERMSG_SETINFO@@YAXXZ PROC				; `dynamic initializer for 'RMSG_SETINFO'', COMDAT

; 238  : const UINT RMSG_SETINFO = ::RegisterWindowMessage(_T("RMSG_SETINFO"));

  00000	68 00 00 00 00	 push	 OFFSET ??_C@_0N@HABLPHJG@RMSG_SETINFO@
  00005	ff 15 00 00 00
	00		 call	 DWORD PTR __imp__RegisterWindowMessageA@4
  0000b	a3 00 00 00 00	 mov	 DWORD PTR ?RMSG_SETINFO@@3IB, eax
  00010	c3		 ret	 0
??__ERMSG_SETINFO@@YAXXZ ENDP				; `dynamic initializer for 'RMSG_SETINFO''
text$di	ENDS
; Function compile flags: /Ogtp
; File D:\git\src\IBK\IBK_DRFN\ProjSrc\SrcDrfn\Chart\MULTICHART\define\ChartMsgDef.h
;	COMDAT ??__ERMSG_GETINFO@@YAXXZ
text$di	SEGMENT
??__ERMSG_GETINFO@@YAXXZ PROC				; `dynamic initializer for 'RMSG_GETINFO'', COMDAT

; 237  : const UINT RMSG_GETINFO = ::RegisterWindowMessage(_T("RMSG_GETINFO"));

  00000	68 00 00 00 00	 push	 OFFSET ??_C@_0N@IIOKMIEH@RMSG_GETINFO@
  00005	ff 15 00 00 00
	00		 call	 DWORD PTR __imp__RegisterWindowMessageA@4
  0000b	a3 00 00 00 00	 mov	 DWORD PTR ?RMSG_GETINFO@@3IB, eax
  00010	c3		 ret	 0
??__ERMSG_GETINFO@@YAXXZ ENDP				; `dynamic initializer for 'RMSG_GETINFO''
text$di	ENDS
; Function compile flags: /Ogtp
; File D:\git\src\IBK\IBK_DRFN\ProjSrc\SrcDrfn\Chart\MULTICHART\define\ChartMsgDef.h
;	COMDAT ??__ERMSG_SETINITIALCHARTDATA@@YAXXZ
text$di	SEGMENT
??__ERMSG_SETINITIALCHARTDATA@@YAXXZ PROC		; `dynamic initializer for 'RMSG_SETINITIALCHARTDATA'', COMDAT

; 235  : const UINT RMSG_SETINITIALCHARTDATA = ::RegisterWindowMessage(_T("RMSG_SETINITIALCHARTDATA"));

  00000	68 00 00 00 00	 push	 OFFSET ??_C@_0BJ@OGNAJHHI@RMSG_SETINITIALCHARTDATA@
  00005	ff 15 00 00 00
	00		 call	 DWORD PTR __imp__RegisterWindowMessageA@4
  0000b	a3 00 00 00 00	 mov	 DWORD PTR ?RMSG_SETINITIALCHARTDATA@@3IB, eax
  00010	c3		 ret	 0
??__ERMSG_SETINITIALCHARTDATA@@YAXXZ ENDP		; `dynamic initializer for 'RMSG_SETINITIALCHARTDATA''
text$di	ENDS
; Function compile flags: /Ogtp
; File D:\git\src\IBK\IBK_DRFN\ProjSrc\SrcDrfn\Chart\MULTICHART\define\ChartMsgDef.h
;	COMDAT ??__ERMSG_ADD_PLATFORM_MENU@@YAXXZ
text$di	SEGMENT
??__ERMSG_ADD_PLATFORM_MENU@@YAXXZ PROC			; `dynamic initializer for 'RMSG_ADD_PLATFORM_MENU'', COMDAT

; 233  : const UINT RMSG_ADD_PLATFORM_MENU = ::RegisterWindowMessage(_T("RMSG_ADD_PLATFORM_MENU"));

  00000	68 00 00 00 00	 push	 OFFSET ??_C@_0BH@IFDMIMBP@RMSG_ADD_PLATFORM_MENU@
  00005	ff 15 00 00 00
	00		 call	 DWORD PTR __imp__RegisterWindowMessageA@4
  0000b	a3 00 00 00 00	 mov	 DWORD PTR ?RMSG_ADD_PLATFORM_MENU@@3IB, eax
  00010	c3		 ret	 0
??__ERMSG_ADD_PLATFORM_MENU@@YAXXZ ENDP			; `dynamic initializer for 'RMSG_ADD_PLATFORM_MENU''
text$di	ENDS
; Function compile flags: /Ogtp
; File D:\git\src\IBK\IBK_DRFN\ProjSrc\SrcDrfn\Chart\MULTICHART\define\ChartMsgDef.h
;	COMDAT ??__ERMSG_CHANGE_CROSSLINE@@YAXXZ
text$di	SEGMENT
??__ERMSG_CHANGE_CROSSLINE@@YAXXZ PROC			; `dynamic initializer for 'RMSG_CHANGE_CROSSLINE'', COMDAT

; 231  : const UINT RMSG_CHANGE_CROSSLINE = ::RegisterWindowMessage(_T("RMSG_CHANGE_CROSSLINE"));

  00000	68 00 00 00 00	 push	 OFFSET ??_C@_0BG@LNLCJKPF@RMSG_CHANGE_CROSSLINE@
  00005	ff 15 00 00 00
	00		 call	 DWORD PTR __imp__RegisterWindowMessageA@4
  0000b	a3 00 00 00 00	 mov	 DWORD PTR ?RMSG_CHANGE_CROSSLINE@@3IB, eax
  00010	c3		 ret	 0
??__ERMSG_CHANGE_CROSSLINE@@YAXXZ ENDP			; `dynamic initializer for 'RMSG_CHANGE_CROSSLINE''
text$di	ENDS
; Function compile flags: /Ogtp
; File D:\git\src\IBK\IBK_DRFN\ProjSrc\SrcDrfn\Chart\MULTICHART\define\ChartMsgDef.h
;	COMDAT ??__ERMSG_CHANGEVERTSCALETYPE@@YAXXZ
text$di	SEGMENT
??__ERMSG_CHANGEVERTSCALETYPE@@YAXXZ PROC		; `dynamic initializer for 'RMSG_CHANGEVERTSCALETYPE'', COMDAT

; 229  : const UINT RMSG_CHANGEVERTSCALETYPE = ::RegisterWindowMessage(_T("RMSG_CHANGEVERTSCALETYPE"));

  00000	68 00 00 00 00	 push	 OFFSET ??_C@_0BJ@JLKHIBIK@RMSG_CHANGEVERTSCALETYPE@
  00005	ff 15 00 00 00
	00		 call	 DWORD PTR __imp__RegisterWindowMessageA@4
  0000b	a3 00 00 00 00	 mov	 DWORD PTR ?RMSG_CHANGEVERTSCALETYPE@@3IB, eax
  00010	c3		 ret	 0
??__ERMSG_CHANGEVERTSCALETYPE@@YAXXZ ENDP		; `dynamic initializer for 'RMSG_CHANGEVERTSCALETYPE''
text$di	ENDS
; Function compile flags: /Ogtp
; File D:\git\src\IBK\IBK_DRFN\ProjSrc\SrcDrfn\Chart\MULTICHART\define\ChartMsgDef.h
;	COMDAT ??__ERMSG_GET_SKINCOLOR@@YAXXZ
text$di	SEGMENT
??__ERMSG_GET_SKINCOLOR@@YAXXZ PROC			; `dynamic initializer for 'RMSG_GET_SKINCOLOR'', COMDAT

; 226  : const UINT RMSG_GET_SKINCOLOR = ::RegisterWindowMessage(_T("RMSG_GET_SKINCOLOR"));

  00000	68 00 00 00 00	 push	 OFFSET ??_C@_0BD@FLDNDDHK@RMSG_GET_SKINCOLOR@
  00005	ff 15 00 00 00
	00		 call	 DWORD PTR __imp__RegisterWindowMessageA@4
  0000b	a3 00 00 00 00	 mov	 DWORD PTR ?RMSG_GET_SKINCOLOR@@3IB, eax
  00010	c3		 ret	 0
??__ERMSG_GET_SKINCOLOR@@YAXXZ ENDP			; `dynamic initializer for 'RMSG_GET_SKINCOLOR''
text$di	ENDS
; Function compile flags: /Ogtp
; File D:\git\src\IBK\IBK_DRFN\ProjSrc\SrcDrfn\Chart\MULTICHART\define\ChartMsgDef.h
;	COMDAT ??__ERMSG_CHANGE_SKINCOLOR@@YAXXZ
text$di	SEGMENT
??__ERMSG_CHANGE_SKINCOLOR@@YAXXZ PROC			; `dynamic initializer for 'RMSG_CHANGE_SKINCOLOR'', COMDAT

; 225  : const UINT RMSG_CHANGE_SKINCOLOR = ::RegisterWindowMessage(_T("RMSG_CHANGE_SKINCOLOR"));

  00000	68 00 00 00 00	 push	 OFFSET ??_C@_0BG@CNPAHNGG@RMSG_CHANGE_SKINCOLOR@
  00005	ff 15 00 00 00
	00		 call	 DWORD PTR __imp__RegisterWindowMessageA@4
  0000b	a3 00 00 00 00	 mov	 DWORD PTR ?RMSG_CHANGE_SKINCOLOR@@3IB, eax
  00010	c3		 ret	 0
??__ERMSG_CHANGE_SKINCOLOR@@YAXXZ ENDP			; `dynamic initializer for 'RMSG_CHANGE_SKINCOLOR''
text$di	ENDS
; Function compile flags: /Ogtp
; File D:\git\src\IBK\IBK_DRFN\ProjSrc\SrcDrfn\Chart\MULTICHART\define\ChartMsgDef.h
;	COMDAT ??__ERMSG_GET_USERID@@YAXXZ
text$di	SEGMENT
??__ERMSG_GET_USERID@@YAXXZ PROC			; `dynamic initializer for 'RMSG_GET_USERID'', COMDAT

; 215  : const UINT RMSG_GET_USERID = ::RegisterWindowMessage(_T("RMSG_GET_USERID"));	// User ID 

  00000	68 00 00 00 00	 push	 OFFSET ??_C@_0BA@HKNFENJL@RMSG_GET_USERID@
  00005	ff 15 00 00 00
	00		 call	 DWORD PTR __imp__RegisterWindowMessageA@4
  0000b	a3 00 00 00 00	 mov	 DWORD PTR ?RMSG_GET_USERID@@3IB, eax
  00010	c3		 ret	 0
??__ERMSG_GET_USERID@@YAXXZ ENDP			; `dynamic initializer for 'RMSG_GET_USERID''
text$di	ENDS
; Function compile flags: /Ogtp
; File D:\git\src\IBK\IBK_DRFN\ProjSrc\SrcDrfn\Chart\MULTICHART\define\ChartMsgDef.h
;	COMDAT ??__ERMS_ANALYSIS_FUNC@@YAXXZ
text$di	SEGMENT
??__ERMS_ANALYSIS_FUNC@@YAXXZ PROC			; `dynamic initializer for 'RMS_ANALYSIS_FUNC'', COMDAT

; 211  : const UINT RMS_ANALYSIS_FUNC	= ::RegisterWindowMessage(_T("RMS_ANALYSIS_FUNC"));

  00000	68 00 00 00 00	 push	 OFFSET ??_C@_0BC@MMPGLPDH@RMS_ANALYSIS_FUNC@
  00005	ff 15 00 00 00
	00		 call	 DWORD PTR __imp__RegisterWindowMessageA@4
  0000b	a3 00 00 00 00	 mov	 DWORD PTR ?RMS_ANALYSIS_FUNC@@3IB, eax
  00010	c3		 ret	 0
??__ERMS_ANALYSIS_FUNC@@YAXXZ ENDP			; `dynamic initializer for 'RMS_ANALYSIS_FUNC''
text$di	ENDS
; Function compile flags: /Ogtp
; File D:\git\src\IBK\IBK_DRFN\ProjSrc\SrcDrfn\Chart\MULTICHART\define\ChartMsgDef.h
;	COMDAT ??__ERMSG_CHARTMAIN@@YAXXZ
text$di	SEGMENT
??__ERMSG_CHARTMAIN@@YAXXZ PROC				; `dynamic initializer for 'RMSG_CHARTMAIN'', COMDAT

; 208  : const UINT RMSG_CHARTMAIN		= ::RegisterWindowMessage(_T("RMSG_CHARTMAIN"));

  00000	68 00 00 00 00	 push	 OFFSET ??_C@_0P@KHFCBIOH@RMSG_CHARTMAIN@
  00005	ff 15 00 00 00
	00		 call	 DWORD PTR __imp__RegisterWindowMessageA@4
  0000b	a3 00 00 00 00	 mov	 DWORD PTR ?RMSG_CHARTMAIN@@3IB, eax
  00010	c3		 ret	 0
??__ERMSG_CHARTMAIN@@YAXXZ ENDP				; `dynamic initializer for 'RMSG_CHARTMAIN''
text$di	ENDS
; Function compile flags: /Ogtp
; File D:\git\src\IBK\IBK_DRFN\ProjSrc\SrcDrfn\Chart\MULTICHART\define\ChartMsgDef.h
;	COMDAT ??__ERMSG_SETQUERYOPT@@YAXXZ
text$di	SEGMENT
??__ERMSG_SETQUERYOPT@@YAXXZ PROC			; `dynamic initializer for 'RMSG_SETQUERYOPT'', COMDAT

; 183  : const UINT RMSG_SETQUERYOPT = ::RegisterWindowMessage(_T("RMSG_SETQUERYOPT"));

  00000	68 00 00 00 00	 push	 OFFSET ??_C@_0BB@CNOFPEHG@RMSG_SETQUERYOPT@
  00005	ff 15 00 00 00
	00		 call	 DWORD PTR __imp__RegisterWindowMessageA@4
  0000b	a3 00 00 00 00	 mov	 DWORD PTR ?RMSG_SETQUERYOPT@@3IB, eax
  00010	c3		 ret	 0
??__ERMSG_SETQUERYOPT@@YAXXZ ENDP			; `dynamic initializer for 'RMSG_SETQUERYOPT''
text$di	ENDS
; Function compile flags: /Ogtp
; File D:\git\src\IBK\IBK_DRFN\ProjSrc\SrcDrfn\Chart\commontr\TRDefine.h
;	COMDAT ??__ERMSG_GETSIGNAL_REAL@@YAXXZ
text$di	SEGMENT
??__ERMSG_GETSIGNAL_REAL@@YAXXZ PROC			; `dynamic initializer for 'RMSG_GETSIGNAL_REAL'', COMDAT

; 213  : const UINT RMSG_GETSIGNAL_REAL = ::RegisterWindowMessage(_T("RMSG_GETSIGNAL_REAL"));

  00000	68 00 00 00 00	 push	 OFFSET ??_C@_0BE@FJPKENOB@RMSG_GETSIGNAL_REAL@
  00005	ff 15 00 00 00
	00		 call	 DWORD PTR __imp__RegisterWindowMessageA@4
  0000b	a3 00 00 00 00	 mov	 DWORD PTR ?RMSG_GETSIGNAL_REAL@@3IB, eax
  00010	c3		 ret	 0
??__ERMSG_GETSIGNAL_REAL@@YAXXZ ENDP			; `dynamic initializer for 'RMSG_GETSIGNAL_REAL''
text$di	ENDS
; Function compile flags: /Ogtp
; File D:\git\src\IBK\IBK_DRFN\ProjSrc\SrcDrfn\Chart\chart_common\ReplayChartInfoDef.h
;	COMDAT ??__ERMSG_REPLAY_TOTAL_SEC@@YAXXZ
text$di	SEGMENT
??__ERMSG_REPLAY_TOTAL_SEC@@YAXXZ PROC			; `dynamic initializer for 'RMSG_REPLAY_TOTAL_SEC'', COMDAT

; 97   : 	const UINT RMSG_REPLAY_TOTAL_SEC = ::RegisterWindowMessage(_T("RMSG_REPLAY_TOTAL_SEC"));		//  () 

  00000	68 00 00 00 00	 push	 OFFSET ??_C@_0BG@GIAJEIJF@RMSG_REPLAY_TOTAL_SEC@
  00005	ff 15 00 00 00
	00		 call	 DWORD PTR __imp__RegisterWindowMessageA@4
  0000b	a3 00 00 00 00	 mov	 DWORD PTR ?RMSG_REPLAY_TOTAL_SEC@@3IB, eax
  00010	c3		 ret	 0
??__ERMSG_REPLAY_TOTAL_SEC@@YAXXZ ENDP			; `dynamic initializer for 'RMSG_REPLAY_TOTAL_SEC''
text$di	ENDS
; Function compile flags: /Ogtp
; File D:\git\src\IBK\IBK_DRFN\ProjSrc\SrcDrfn\Chart\chart_common\ReplayChartInfoDef.h
;	COMDAT ??__ERMSG_REPLAY_INC_SEC@@YAXXZ
text$di	SEGMENT
??__ERMSG_REPLAY_INC_SEC@@YAXXZ PROC			; `dynamic initializer for 'RMSG_REPLAY_INC_SEC'', COMDAT

; 96   : 	const UINT RMSG_REPLAY_INC_SEC = ::RegisterWindowMessage(_T("RMSG_REPLAY_INC_SEC"));			// 1   

  00000	68 00 00 00 00	 push	 OFFSET ??_C@_0BE@JFCIMCIP@RMSG_REPLAY_INC_SEC@
  00005	ff 15 00 00 00
	00		 call	 DWORD PTR __imp__RegisterWindowMessageA@4
  0000b	a3 00 00 00 00	 mov	 DWORD PTR ?RMSG_REPLAY_INC_SEC@@3IB, eax
  00010	c3		 ret	 0
??__ERMSG_REPLAY_INC_SEC@@YAXXZ ENDP			; `dynamic initializer for 'RMSG_REPLAY_INC_SEC''
text$di	ENDS
; Function compile flags: /Ogtp
; File D:\git\src\IBK\IBK_DRFN\ProjSrc\SrcDrfn\Chart\chart_common\ReplayChartInfoDef.h
;	COMDAT ??__ERMSG_REPLAY_END@@YAXXZ
text$di	SEGMENT
??__ERMSG_REPLAY_END@@YAXXZ PROC			; `dynamic initializer for 'RMSG_REPLAY_END'', COMDAT

; 95   : 	const UINT RMSG_REPLAY_END			= ::RegisterWindowMessage(_T("RMSG_REPLAY_END"));

  00000	68 00 00 00 00	 push	 OFFSET ??_C@_0BA@NKHHCPON@RMSG_REPLAY_END@
  00005	ff 15 00 00 00
	00		 call	 DWORD PTR __imp__RegisterWindowMessageA@4
  0000b	a3 00 00 00 00	 mov	 DWORD PTR ?RMSG_REPLAY_END@@3IB, eax
  00010	c3		 ret	 0
??__ERMSG_REPLAY_END@@YAXXZ ENDP			; `dynamic initializer for 'RMSG_REPLAY_END''
text$di	ENDS
; Function compile flags: /Ogtp
; File D:\git\src\IBK\IBK_DRFN\ProjSrc\SrcDrfn\Chart\chart_common\ReplayChartInfoDef.h
;	COMDAT ??__ERMSG_REPLAY_CHANGE_DATE@@YAXXZ
text$di	SEGMENT
??__ERMSG_REPLAY_CHANGE_DATE@@YAXXZ PROC		; `dynamic initializer for 'RMSG_REPLAY_CHANGE_DATE'', COMDAT

; 94   : 	const UINT RMSG_REPLAY_CHANGE_DATE	= ::RegisterWindowMessage(_T("RMSG_REPLAY_CHANGE_DATE"));

  00000	68 00 00 00 00	 push	 OFFSET ??_C@_0BI@KDGAIIMD@RMSG_REPLAY_CHANGE_DATE@
  00005	ff 15 00 00 00
	00		 call	 DWORD PTR __imp__RegisterWindowMessageA@4
  0000b	a3 00 00 00 00	 mov	 DWORD PTR ?RMSG_REPLAY_CHANGE_DATE@@3IB, eax
  00010	c3		 ret	 0
??__ERMSG_REPLAY_CHANGE_DATE@@YAXXZ ENDP		; `dynamic initializer for 'RMSG_REPLAY_CHANGE_DATE''
text$di	ENDS
; Function compile flags: /Ogtp
; File D:\git\src\IBK\IBK_DRFN\ProjSrc\SrcDrfn\Chart\chart_common\ReplayChartInfoDef.h
;	COMDAT ??__ERMSG_REPLAY_FAIL@@YAXXZ
text$di	SEGMENT
??__ERMSG_REPLAY_FAIL@@YAXXZ PROC			; `dynamic initializer for 'RMSG_REPLAY_FAIL'', COMDAT

; 93   : 	const UINT RMSG_REPLAY_FAIL			= ::RegisterWindowMessage(_T("RMSG_REPLAY_FAIL"));

  00000	68 00 00 00 00	 push	 OFFSET ??_C@_0BB@JFLGBADG@RMSG_REPLAY_FAIL@
  00005	ff 15 00 00 00
	00		 call	 DWORD PTR __imp__RegisterWindowMessageA@4
  0000b	a3 00 00 00 00	 mov	 DWORD PTR ?RMSG_REPLAY_FAIL@@3IB, eax
  00010	c3		 ret	 0
??__ERMSG_REPLAY_FAIL@@YAXXZ ENDP			; `dynamic initializer for 'RMSG_REPLAY_FAIL''
text$di	ENDS
; Function compile flags: /Ogtp
; File D:\git\src\IBK\IBK_DRFN\ProjSrc\SrcDrfn\Chart\chart_common\ReplayChartInfoDef.h
;	COMDAT ??__ERMSG_REPLAY_REAL@@YAXXZ
text$di	SEGMENT
??__ERMSG_REPLAY_REAL@@YAXXZ PROC			; `dynamic initializer for 'RMSG_REPLAY_REAL'', COMDAT

; 92   : 	const UINT RMSG_REPLAY_REAL			= ::RegisterWindowMessage(_T("RMSG_REPLAY_REAL"));

  00000	68 00 00 00 00	 push	 OFFSET ??_C@_0BB@IBKHOHJL@RMSG_REPLAY_REAL@
  00005	ff 15 00 00 00
	00		 call	 DWORD PTR __imp__RegisterWindowMessageA@4
  0000b	a3 00 00 00 00	 mov	 DWORD PTR ?RMSG_REPLAY_REAL@@3IB, eax
  00010	c3		 ret	 0
??__ERMSG_REPLAY_REAL@@YAXXZ ENDP			; `dynamic initializer for 'RMSG_REPLAY_REAL''
text$di	ENDS
; Function compile flags: /Ogtp
; File C:\Program Files (x86)\Microsoft Visual Studio\2019\Community\VC\Tools\MSVC\14.29.30133\atlmfc\include\afxwin1.inl
; File C:\Program Files (x86)\Microsoft Visual Studio\2019\Community\VC\Tools\MSVC\14.29.30133\atlmfc\include\afx.inl
;	COMDAT ??_GCLeftBarDlg@@UAEPAXI@Z
_TEXT	SEGMENT
___flags$ = 8						; size = 4
??_GCLeftBarDlg@@UAEPAXI@Z PROC				; CLeftBarDlg::`scalar deleting destructor', COMDAT
; _this$ = ecx
  00000	55		 push	 ebp
  00001	8b ec		 mov	 ebp, esp
; File C:\Program Files (x86)\Microsoft Visual Studio\2019\Community\VC\Tools\MSVC\14.29.30133\atlmfc\include\afxwin1.inl

; 130  : 	{ }

  00003	56		 push	 esi
  00004	8b f1		 mov	 esi, ecx
  00006	8d 8e ec 01 00
	00		 lea	 ecx, DWORD PTR [esi+492]
  0000c	ff 15 00 00 00
	00		 call	 DWORD PTR __imp_??1?$CStringT@DV?$StrTraitMFC_DLL@DV?$ChTraitsCRT@D@ATL@@@@@ATL@@QAE@XZ
  00012	8d 8e c0 01 00
	00		 lea	 ecx, DWORD PTR [esi+448]
  00018	e8 00 00 00 00	 call	 ??1CStringList@@UAE@XZ	; CStringList::~CStringList
  0001d	8d 8e b0 01 00
	00		 lea	 ecx, DWORD PTR [esi+432]
  00023	c7 01 00 00 00
	00		 mov	 DWORD PTR [ecx], OFFSET ??_7CBrush@@6B@
  00029	e8 00 00 00 00	 call	 ??1CGdiObject@@UAE@XZ	; CGdiObject::~CGdiObject
  0002e	8d 8e ac 01 00
	00		 lea	 ecx, DWORD PTR [esi+428]
  00034	ff 15 00 00 00
	00		 call	 DWORD PTR __imp_??1?$CStringT@DV?$StrTraitMFC_DLL@DV?$ChTraitsCRT@D@ATL@@@@@ATL@@QAE@XZ
  0003a	8d 8e a8 01 00
	00		 lea	 ecx, DWORD PTR [esi+424]
  00040	ff 15 00 00 00
	00		 call	 DWORD PTR __imp_??1?$CStringT@DV?$StrTraitMFC_DLL@DV?$ChTraitsCRT@D@ATL@@@@@ATL@@QAE@XZ
  00046	8d 8e c0 00 00
	00		 lea	 ecx, DWORD PTR [esi+192]
  0004c	e8 00 00 00 00	 call	 ??1CXTabCtrl@@UAE@XZ	; CXTabCtrl::~CXTabCtrl
  00051	8b ce		 mov	 ecx, esi
  00053	e8 00 00 00 00	 call	 ??1CDialog@@UAE@XZ	; CDialog::~CDialog
  00058	8b 45 08	 mov	 eax, DWORD PTR ___flags$[ebp]
  0005b	a8 01		 test	 al, 1
  0005d	74 22		 je	 SHORT $LN18@scalar
  0005f	a8 04		 test	 al, 4
  00061	75 10		 jne	 SHORT $LN3@scalar
; File C:\Program Files (x86)\Microsoft Visual Studio\2019\Community\VC\Tools\MSVC\14.29.30133\atlmfc\include\afx.inl

; 112  : 	{ ::operator delete(p); }

  00063	56		 push	 esi
  00064	e8 00 00 00 00	 call	 ??3@YAXPAX@Z		; operator delete
  00069	83 c4 04	 add	 esp, 4
  0006c	8b c6		 mov	 eax, esi
  0006e	5e		 pop	 esi
  0006f	5d		 pop	 ebp
  00070	c2 04 00	 ret	 4
$LN3@scalar:
  00073	68 f8 01 00 00	 push	 504			; 000001f8H
  00078	56		 push	 esi
  00079	e8 00 00 00 00	 call	 ?__global_delete@@YAXPAXI@Z ; __global_delete
  0007e	83 c4 08	 add	 esp, 8
$LN18@scalar:
  00081	8b c6		 mov	 eax, esi
  00083	5e		 pop	 esi
  00084	5d		 pop	 ebp
  00085	c2 04 00	 ret	 4
??_GCLeftBarDlg@@UAEPAXI@Z ENDP				; CLeftBarDlg::`scalar deleting destructor'
_TEXT	ENDS
; Function compile flags: /Ogtp
; File D:\git\src\IBK\IBK_DRFN\ProjSrc\SrcDrfn\Chart\MULTICHART\LeftBarDlg.cpp
;	COMDAT ?GetMessageMap@CLeftBarDlg@@MBEPBUAFX_MSGMAP@@XZ
_TEXT	SEGMENT
?GetMessageMap@CLeftBarDlg@@MBEPBUAFX_MSGMAP@@XZ PROC	; CLeftBarDlg::GetMessageMap, COMDAT
; _this$ = ecx

; 61   : BEGIN_MESSAGE_MAP(CLeftBarDlg, CRscDlg)

  00000	b8 00 00 00 00	 mov	 eax, OFFSET ?messageMap@?1??GetThisMessageMap@CLeftBarDlg@@KGPBUAFX_MSGMAP@@XZ@4U3@B
  00005	c3		 ret	 0
?GetMessageMap@CLeftBarDlg@@MBEPBUAFX_MSGMAP@@XZ ENDP	; CLeftBarDlg::GetMessageMap
_TEXT	ENDS
; Function compile flags: /Ogtp
; File D:\git\src\IBK\IBK_DRFN\ProjSrc\SrcDrfn\Chart\MULTICHART\LeftBarDlg.cpp
;	COMDAT ?GetThisMessageMap@CLeftBarDlg@@KGPBUAFX_MSGMAP@@XZ
_TEXT	SEGMENT
?GetThisMessageMap@CLeftBarDlg@@KGPBUAFX_MSGMAP@@XZ PROC ; CLeftBarDlg::GetThisMessageMap, COMDAT

; 62   : 	//{{AFX_MSG_MAP(CLeftBarDlg)
; 63   : 	ON_WM_SIZE()
; 64   : 	ON_WM_DESTROY()
; 65   : 	ON_WM_TIMER()
; 66   : 	ON_BN_CLICKED(IDC_BTHIDECHART, OnBthidechart)
; 67   : 	ON_WM_CTLCOLOR()
; 68   : 	ON_WM_ERASEBKGND()
; 69   : 	ON_WM_PAINT()
; 70   : 	//}}AFX_MSG_MAP
; 71   : 	ON_REGISTERED_MESSAGE( RMSG_CHECKAVGPRICE, OnCheckAvgPrice )
; 72   : END_MESSAGE_MAP()

  00000	b8 00 00 00 00	 mov	 eax, OFFSET ?messageMap@?1??GetThisMessageMap@CLeftBarDlg@@KGPBUAFX_MSGMAP@@XZ@4U3@B
  00005	c3		 ret	 0
?GetThisMessageMap@CLeftBarDlg@@KGPBUAFX_MSGMAP@@XZ ENDP ; CLeftBarDlg::GetThisMessageMap
_TEXT	ENDS
; Function compile flags: /Ogtp
; File D:\git\src\IBK\IBK_DRFN\ProjSrc\SrcDrfn\Chart\MULTICHART\LeftBarDlg.cpp
; File C:\Program Files (x86)\Microsoft Visual Studio\2019\Community\VC\Tools\MSVC\14.29.30133\atlmfc\include\afxwin2.inl
; File D:\git\src\IBK\IBK_DRFN\ProjSrc\SrcDrfn\Chart\MULTICHART\LeftBarDlg.cpp
; File C:\Program Files (x86)\Microsoft Visual Studio\2019\Community\VC\Tools\MSVC\14.29.30133\atlmfc\include\afxwin2.inl
; File D:\git\src\IBK\IBK_DRFN\ProjSrc\SrcDrfn\Chart\MULTICHART\LeftBarDlg.cpp
; File C:\Program Files (x86)\Microsoft Visual Studio\2019\Community\VC\Tools\MSVC\14.29.30133\atlmfc\include\afxwin2.inl
; File D:\git\src\IBK\IBK_DRFN\ProjSrc\SrcDrfn\Chart\MULTICHART\LeftBarDlg.cpp
;	COMDAT ?OnCheckAvgPrice@CLeftBarDlg@@IAEJIJ@Z
_TEXT	SEGMENT
_wParam$ = 8						; size = 4
_lParam$ = 12						; size = 4
?OnCheckAvgPrice@CLeftBarDlg@@IAEJIJ@Z PROC		; CLeftBarDlg::OnCheckAvgPrice, COMDAT
; _this$ = ecx

; 635  : {

  00000	55		 push	 ebp
  00001	8b ec		 mov	 ebp, esp

; 636  : 	if( m_tabctrl.GetSafeHwnd() )

  00003	8d 81 c0 00 00
	00		 lea	 eax, DWORD PTR [ecx+192]
; File C:\Program Files (x86)\Microsoft Visual Studio\2019\Community\VC\Tools\MSVC\14.29.30133\atlmfc\include\afxwin2.inl

; 25   : 	{ return this == NULL ? NULL : m_hWnd; }

  00009	85 c0		 test	 eax, eax
  0000b	74 2e		 je	 SHORT $LN3@OnCheckAvg
; File D:\git\src\IBK\IBK_DRFN\ProjSrc\SrcDrfn\Chart\MULTICHART\LeftBarDlg.cpp

; 636  : 	if( m_tabctrl.GetSafeHwnd() )

  0000d	83 78 20 00	 cmp	 DWORD PTR [eax+32], 0
  00011	74 28		 je	 SHORT $LN3@OnCheckAvg

; 637  : 	{
; 638  : 		CTabDlg *pTabCodeSearch = m_tabctrl.GetWndCodeSearch();

  00013	8b 81 9c 01 00
	00		 mov	 eax, DWORD PTR [ecx+412]

; 639  : 		if( pTabCodeSearch && pTabCodeSearch->GetSafeHwnd() )

  00019	85 c0		 test	 eax, eax
  0001b	74 1e		 je	 SHORT $LN3@OnCheckAvg
; File C:\Program Files (x86)\Microsoft Visual Studio\2019\Community\VC\Tools\MSVC\14.29.30133\atlmfc\include\afxwin2.inl

; 25   : 	{ return this == NULL ? NULL : m_hWnd; }

  0001d	8b 40 20	 mov	 eax, DWORD PTR [eax+32]
; File D:\git\src\IBK\IBK_DRFN\ProjSrc\SrcDrfn\Chart\MULTICHART\LeftBarDlg.cpp

; 639  : 		if( pTabCodeSearch && pTabCodeSearch->GetSafeHwnd() )

  00020	85 c0		 test	 eax, eax
  00022	74 17		 je	 SHORT $LN3@OnCheckAvg
; File C:\Program Files (x86)\Microsoft Visual Studio\2019\Community\VC\Tools\MSVC\14.29.30133\atlmfc\include\afxwin2.inl

; 32   : 	{ ASSERT(::IsWindow(m_hWnd)); return ::SendMessage(m_hWnd, message, wParam, lParam); }

  00024	ff 75 0c	 push	 DWORD PTR _lParam$[ebp]
  00027	ff 75 08	 push	 DWORD PTR _wParam$[ebp]
  0002a	ff 35 00 00 00
	00		 push	 DWORD PTR ?RMSG_CHECKAVGPRICE@@3IB
  00030	50		 push	 eax
  00031	ff 15 00 00 00
	00		 call	 DWORD PTR __imp__SendMessageA@16
; File D:\git\src\IBK\IBK_DRFN\ProjSrc\SrcDrfn\Chart\MULTICHART\LeftBarDlg.cpp

; 643  : }

  00037	5d		 pop	 ebp
  00038	c2 08 00	 ret	 8
$LN3@OnCheckAvg:

; 640  : 			return pTabCodeSearch->SendMessage(RMSG_CHECKAVGPRICE, wParam, lParam);
; 641  : 	}
; 642  : 	return 0L;

  0003b	33 c0		 xor	 eax, eax

; 643  : }

  0003d	5d		 pop	 ebp
  0003e	c2 08 00	 ret	 8
?OnCheckAvgPrice@CLeftBarDlg@@IAEJIJ@Z ENDP		; CLeftBarDlg::OnCheckAvgPrice
_TEXT	ENDS
; Function compile flags: /Ogtp
; File D:\git\src\IBK\IBK_DRFN\ProjSrc\SrcDrfn\Chart\MULTICHART\LeftBarDlg.cpp
; File C:\Program Files (x86)\Microsoft Visual Studio\2019\Community\VC\Tools\MSVC\14.29.30133\atlmfc\include\afxwin2.inl
; File D:\git\src\IBK\IBK_DRFN\ProjSrc\SrcDrfn\Chart\MULTICHART\LeftBarDlg.cpp
; File C:\Program Files (x86)\Microsoft Visual Studio\2019\Community\VC\Tools\MSVC\14.29.30133\atlmfc\include\afxwin2.inl
; File C:\Program Files (x86)\Microsoft Visual Studio\2019\Community\VC\Tools\MSVC\14.29.30133\atlmfc\include\atltypes.h
; File C:\Program Files (x86)\Microsoft Visual Studio\2019\Community\VC\Tools\MSVC\14.29.30133\atlmfc\include\afxwin2.inl
; File D:\git\src\IBK\IBK_DRFN\ProjSrc\SrcDrfn\Chart\MULTICHART\LeftBarDlg.cpp
; File C:\Program Files (x86)\Microsoft Visual Studio\2019\Community\VC\Tools\MSVC\14.29.30133\atlmfc\include\afxwin1.inl
; File D:\git\src\IBK\IBK_DRFN\ProjSrc\SrcDrfn\Chart\MULTICHART\LeftBarDlg.cpp
; File C:\Program Files (x86)\Microsoft Visual Studio\2019\Community\VC\Tools\MSVC\14.29.30133\atlmfc\include\afxwin1.inl
; File C:\Program Files (x86)\Microsoft Visual Studio\2019\Community\VC\Tools\MSVC\14.29.30133\atlmfc\include\atltypes.h
; File C:\Program Files (x86)\Microsoft Visual Studio\2019\Community\VC\Tools\MSVC\14.29.30133\atlmfc\include\afxwin1.inl
; File D:\git\src\IBK\IBK_DRFN\ProjSrc\SrcDrfn\Chart\MULTICHART\LeftBarDlg.cpp
; File C:\Program Files (x86)\Microsoft Visual Studio\2019\Community\VC\Tools\MSVC\14.29.30133\atlmfc\include\atltypes.h
; File C:\Program Files (x86)\Microsoft Visual Studio\2019\Community\VC\Tools\MSVC\14.29.30133\atlmfc\include\afxwin1.inl
; File D:\git\src\IBK\IBK_DRFN\ProjSrc\SrcDrfn\Chart\MULTICHART\LeftBarDlg.cpp
; File C:\Program Files (x86)\Microsoft Visual Studio\2019\Community\VC\Tools\MSVC\14.29.30133\atlmfc\include\afxwin1.inl
; File D:\git\src\IBK\IBK_DRFN\ProjSrc\SrcDrfn\Chart\MULTICHART\LeftBarDlg.cpp
;	COMDAT ?OnPaint@CLeftBarDlg@@IAEXXZ
_TEXT	SEGMENT
_memDC$ = -140						; size = 16
_bitmap$ = -124						; size = 8
_dc$ = -116						; size = 84
_rcClient$ = -32					; size = 16
__$ArrayPad$ = -16					; size = 4
__$EHRec$ = -12						; size = 12
?OnPaint@CLeftBarDlg@@IAEXXZ PROC			; CLeftBarDlg::OnPaint, COMDAT
; _this$ = ecx

; 592  : {

  00000	55		 push	 ebp
  00001	8b ec		 mov	 ebp, esp
  00003	6a ff		 push	 -1
  00005	68 00 00 00 00	 push	 __ehhandler$?OnPaint@CLeftBarDlg@@IAEXXZ
  0000a	64 a1 00 00 00
	00		 mov	 eax, DWORD PTR fs:0
  00010	50		 push	 eax
  00011	81 ec 80 00 00
	00		 sub	 esp, 128		; 00000080H
  00017	a1 00 00 00 00	 mov	 eax, DWORD PTR ___security_cookie
  0001c	33 c5		 xor	 eax, ebp
  0001e	89 45 f0	 mov	 DWORD PTR __$ArrayPad$[ebp], eax
  00021	56		 push	 esi
  00022	57		 push	 edi
  00023	50		 push	 eax
  00024	8d 45 f4	 lea	 eax, DWORD PTR __$EHRec$[ebp]
  00027	64 a3 00 00 00
	00		 mov	 DWORD PTR fs:0, eax
  0002d	8b f1		 mov	 esi, ecx

; 593  : 	CPaintDC dc(this); // device context for painting

  0002f	56		 push	 esi
  00030	8d 4d 8c	 lea	 ecx, DWORD PTR _dc$[ebp]
  00033	e8 00 00 00 00	 call	 ??0CPaintDC@@QAE@PAVCWnd@@@Z ; CPaintDC::CPaintDC
; File C:\Program Files (x86)\Microsoft Visual Studio\2019\Community\VC\Tools\MSVC\14.29.30133\atlmfc\include\afxwin2.inl

; 86   : 	{ ASSERT(::IsWindow(m_hWnd)); ::GetClientRect(m_hWnd, lpRect); }

  00038	8d 45 e0	 lea	 eax, DWORD PTR _rcClient$[ebp]
; File D:\git\src\IBK\IBK_DRFN\ProjSrc\SrcDrfn\Chart\MULTICHART\LeftBarDlg.cpp

; 593  : 	CPaintDC dc(this); // device context for painting

  0003b	c7 45 fc 00 00
	00 00		 mov	 DWORD PTR __$EHRec$[ebp+8], 0
; File C:\Program Files (x86)\Microsoft Visual Studio\2019\Community\VC\Tools\MSVC\14.29.30133\atlmfc\include\afxwin2.inl

; 86   : 	{ ASSERT(::IsWindow(m_hWnd)); ::GetClientRect(m_hWnd, lpRect); }

  00042	50		 push	 eax
  00043	ff 76 20	 push	 DWORD PTR [esi+32]
  00046	0f 57 c0	 xorps	 xmm0, xmm0
; File C:\Program Files (x86)\Microsoft Visual Studio\2019\Community\VC\Tools\MSVC\14.29.30133\atlmfc\include\atltypes.h

; 528  : 	left = 0;

  00049	0f 11 45 e0	 movups	 XMMWORD PTR _rcClient$[ebp], xmm0
; File C:\Program Files (x86)\Microsoft Visual Studio\2019\Community\VC\Tools\MSVC\14.29.30133\atlmfc\include\afxwin2.inl

; 86   : 	{ ASSERT(::IsWindow(m_hWnd)); ::GetClientRect(m_hWnd, lpRect); }

  0004d	ff 15 00 00 00
	00		 call	 DWORD PTR __imp__GetClientRect@8
; File D:\git\src\IBK\IBK_DRFN\ProjSrc\SrcDrfn\Chart\MULTICHART\LeftBarDlg.cpp

; 597  : 	CDC memDC;

  00053	8d 8d 74 ff ff
	ff		 lea	 ecx, DWORD PTR _memDC$[ebp]
  00059	e8 00 00 00 00	 call	 ??0CDC@@QAE@XZ		; CDC::CDC
; File C:\Program Files (x86)\Microsoft Visual Studio\2019\Community\VC\Tools\MSVC\14.29.30133\atlmfc\include\afxwin1.inl

; 70   : 	{ m_hObject = NULL; }

  0005e	c7 45 88 00 00
	00 00		 mov	 DWORD PTR _bitmap$[ebp+4], 0

; 177  : 	{ }

  00065	c7 45 84 00 00
	00 00		 mov	 DWORD PTR _bitmap$[ebp], OFFSET ??_7CBitmap@@6B@

; 330  : 	{ return Attach(::CreateCompatibleDC(pDC->GetSafeHdc())); }

  0006c	ff 75 90	 push	 DWORD PTR _dc$[ebp+4]
; File D:\git\src\IBK\IBK_DRFN\ProjSrc\SrcDrfn\Chart\MULTICHART\LeftBarDlg.cpp

; 598  : 	CBitmap bitmap;

  0006f	c6 45 fc 02	 mov	 BYTE PTR __$EHRec$[ebp+8], 2
; File C:\Program Files (x86)\Microsoft Visual Studio\2019\Community\VC\Tools\MSVC\14.29.30133\atlmfc\include\afxwin1.inl

; 330  : 	{ return Attach(::CreateCompatibleDC(pDC->GetSafeHdc())); }

  00073	ff 15 00 00 00
	00		 call	 DWORD PTR __imp__CreateCompatibleDC@4
  00079	50		 push	 eax
  0007a	8d 8d 74 ff ff
	ff		 lea	 ecx, DWORD PTR _memDC$[ebp]
  00080	e8 00 00 00 00	 call	 ?Attach@CDC@@QAEHPAUHDC__@@@Z ; CDC::Attach
; File C:\Program Files (x86)\Microsoft Visual Studio\2019\Community\VC\Tools\MSVC\14.29.30133\atlmfc\include\atltypes.h

; 581  : 	return bottom - top;

  00085	8b 4d ec	 mov	 ecx, DWORD PTR _rcClient$[ebp+12]
  00088	2b 4d e4	 sub	 ecx, DWORD PTR _rcClient$[ebp+4]

; 576  : 	return right - left;

  0008b	8b 45 e8	 mov	 eax, DWORD PTR _rcClient$[ebp+8]
  0008e	2b 45 e0	 sub	 eax, DWORD PTR _rcClient$[ebp]
; File C:\Program Files (x86)\Microsoft Visual Studio\2019\Community\VC\Tools\MSVC\14.29.30133\atlmfc\include\afxwin1.inl

; 217  : 	{ return Attach(::CreateCompatibleBitmap(pDC->m_hDC, nWidth, nHeight)); }

  00091	51		 push	 ecx
  00092	50		 push	 eax
  00093	ff 75 90	 push	 DWORD PTR _dc$[ebp+4]
  00096	ff 15 00 00 00
	00		 call	 DWORD PTR __imp__CreateCompatibleBitmap@12
  0009c	50		 push	 eax
  0009d	8d 4d 84	 lea	 ecx, DWORD PTR _bitmap$[ebp]
  000a0	e8 00 00 00 00	 call	 ?Attach@CGdiObject@@QAEHPAX@Z ; CGdiObject::Attach

; 361  : 	{ ASSERT(m_hDC != NULL); return (CBitmap*) SelectGdiObject(m_hDC, pBitmap->GetSafeHandle()); }

  000a5	ff 75 88	 push	 DWORD PTR _bitmap$[ebp+4]
  000a8	ff b5 78 ff ff
	ff		 push	 DWORD PTR _memDC$[ebp+4]
  000ae	e8 00 00 00 00	 call	 ?SelectGdiObject@CDC@@KGPAVCGdiObject@@PAUHDC__@@PAX@Z ; CDC::SelectGdiObject
; File D:\git\src\IBK\IBK_DRFN\ProjSrc\SrcDrfn\Chart\MULTICHART\LeftBarDlg.cpp

; 603  : 	memDC.FillSolidRect(rcClient, m_clrBk);

  000b3	ff b6 b8 01 00
	00		 push	 DWORD PTR [esi+440]
  000b9	8b f8		 mov	 edi, eax
  000bb	8d 8d 74 ff ff
	ff		 lea	 ecx, DWORD PTR _memDC$[ebp]
  000c1	8d 45 e0	 lea	 eax, DWORD PTR _rcClient$[ebp]
  000c4	50		 push	 eax
  000c5	e8 00 00 00 00	 call	 ?FillSolidRect@CDC@@QAEXPBUtagRECT@@K@Z ; CDC::FillSolidRect
; File C:\Program Files (x86)\Microsoft Visual Studio\2019\Community\VC\Tools\MSVC\14.29.30133\atlmfc\include\atltypes.h

; 581  : 	return bottom - top;

  000ca	8b 55 ec	 mov	 edx, DWORD PTR _rcClient$[ebp+12]
  000cd	8b 75 e4	 mov	 esi, DWORD PTR _rcClient$[ebp+4]
  000d0	2b d6		 sub	 edx, esi

; 576  : 	return right - left;

  000d2	8b 45 e8	 mov	 eax, DWORD PTR _rcClient$[ebp+8]
  000d5	8b 4d e0	 mov	 ecx, DWORD PTR _rcClient$[ebp]
  000d8	2b c1		 sub	 eax, ecx
; File C:\Program Files (x86)\Microsoft Visual Studio\2019\Community\VC\Tools\MSVC\14.29.30133\atlmfc\include\afxwin1.inl

; 552  : 	{ ASSERT(m_hDC != NULL); return ::BitBlt(m_hDC, x, y, nWidth, nHeight,

  000da	68 20 00 cc 00	 push	 13369376		; 00cc0020H
  000df	6a 00		 push	 0
  000e1	6a 00		 push	 0
  000e3	ff b5 78 ff ff
	ff		 push	 DWORD PTR _memDC$[ebp+4]
  000e9	52		 push	 edx
  000ea	50		 push	 eax
  000eb	56		 push	 esi
  000ec	51		 push	 ecx
  000ed	ff 75 90	 push	 DWORD PTR _dc$[ebp+4]
  000f0	ff 15 00 00 00
	00		 call	 DWORD PTR __imp__BitBlt@36

; 68   : 	{ return this == NULL ? NULL : m_hObject; }

  000f6	85 ff		 test	 edi, edi
  000f8	75 04		 jne	 SHORT $LN46@OnPaint
  000fa	33 c0		 xor	 eax, eax
  000fc	eb 03		 jmp	 SHORT $LN47@OnPaint
$LN46@OnPaint:
  000fe	8b 47 04	 mov	 eax, DWORD PTR [edi+4]
$LN47@OnPaint:

; 361  : 	{ ASSERT(m_hDC != NULL); return (CBitmap*) SelectGdiObject(m_hDC, pBitmap->GetSafeHandle()); }

  00101	50		 push	 eax
  00102	ff b5 78 ff ff
	ff		 push	 DWORD PTR _memDC$[ebp+4]
  00108	e8 00 00 00 00	 call	 ?SelectGdiObject@CDC@@KGPAVCGdiObject@@PAUHDC__@@PAX@Z ; CDC::SelectGdiObject
; File D:\git\src\IBK\IBK_DRFN\ProjSrc\SrcDrfn\Chart\MULTICHART\LeftBarDlg.cpp

; 606  : 	memDC.DeleteDC();

  0010d	8d 8d 74 ff ff
	ff		 lea	 ecx, DWORD PTR _memDC$[ebp]
  00113	e8 00 00 00 00	 call	 ?DeleteDC@CDC@@QAEHXZ	; CDC::DeleteDC

; 607  : 	bitmap.DeleteObject();

  00118	8d 4d 84	 lea	 ecx, DWORD PTR _bitmap$[ebp]
  0011b	e8 00 00 00 00	 call	 ?DeleteObject@CGdiObject@@QAEHXZ ; CGdiObject::DeleteObject
; File C:\Program Files (x86)\Microsoft Visual Studio\2019\Community\VC\Tools\MSVC\14.29.30133\atlmfc\include\afxwin1.inl

; 179  : 	{ }

  00120	8d 4d 84	 lea	 ecx, DWORD PTR _bitmap$[ebp]
  00123	c7 45 84 00 00
	00 00		 mov	 DWORD PTR _bitmap$[ebp], OFFSET ??_7CBitmap@@6B@
  0012a	e8 00 00 00 00	 call	 ??1CGdiObject@@UAE@XZ	; CGdiObject::~CGdiObject
; File D:\git\src\IBK\IBK_DRFN\ProjSrc\SrcDrfn\Chart\MULTICHART\LeftBarDlg.cpp

; 608  : }

  0012f	8d 8d 74 ff ff
	ff		 lea	 ecx, DWORD PTR _memDC$[ebp]
  00135	e8 00 00 00 00	 call	 ??1CDC@@UAE@XZ		; CDC::~CDC
  0013a	8d 4d 8c	 lea	 ecx, DWORD PTR _dc$[ebp]
  0013d	e8 00 00 00 00	 call	 ??1CPaintDC@@UAE@XZ	; CPaintDC::~CPaintDC
  00142	8b 4d f4	 mov	 ecx, DWORD PTR __$EHRec$[ebp]
  00145	64 89 0d 00 00
	00 00		 mov	 DWORD PTR fs:0, ecx
  0014c	59		 pop	 ecx
  0014d	5f		 pop	 edi
  0014e	5e		 pop	 esi
  0014f	8b 4d f0	 mov	 ecx, DWORD PTR __$ArrayPad$[ebp]
  00152	33 cd		 xor	 ecx, ebp
  00154	e8 00 00 00 00	 call	 @__security_check_cookie@4
  00159	8b e5		 mov	 esp, ebp
  0015b	5d		 pop	 ebp
  0015c	c3		 ret	 0
_TEXT	ENDS
;	COMDAT text$x
text$x	SEGMENT
__unwindfunclet$?OnPaint@CLeftBarDlg@@IAEXXZ$0:
  00000	8d 4d 8c	 lea	 ecx, DWORD PTR _dc$[ebp]
  00003	e9 00 00 00 00	 jmp	 ??1CPaintDC@@UAE@XZ	; CPaintDC::~CPaintDC
__unwindfunclet$?OnPaint@CLeftBarDlg@@IAEXXZ$1:
  00008	8d 8d 74 ff ff
	ff		 lea	 ecx, DWORD PTR _memDC$[ebp]
  0000e	e9 00 00 00 00	 jmp	 ??1CDC@@UAE@XZ		; CDC::~CDC
__unwindfunclet$?OnPaint@CLeftBarDlg@@IAEXXZ$2:
  00013	8d 4d 84	 lea	 ecx, DWORD PTR _bitmap$[ebp]
  00016	e9 00 00 00 00	 jmp	 ??1CBitmap@@UAE@XZ	; CBitmap::~CBitmap
  0001b	cc		 int	 3
  0001c	cc		 int	 3
  0001d	cc		 int	 3
  0001e	cc		 int	 3
  0001f	cc		 int	 3
__ehhandler$?OnPaint@CLeftBarDlg@@IAEXXZ:
  00020	90		 npad	 1
  00021	90		 npad	 1
  00022	8b 54 24 08	 mov	 edx, DWORD PTR [esp+8]
  00026	8d 42 0c	 lea	 eax, DWORD PTR [edx+12]
  00029	8b 8a 74 ff ff
	ff		 mov	 ecx, DWORD PTR [edx-140]
  0002f	33 c8		 xor	 ecx, eax
  00031	e8 00 00 00 00	 call	 @__security_check_cookie@4
  00036	8b 4a fc	 mov	 ecx, DWORD PTR [edx-4]
  00039	33 c8		 xor	 ecx, eax
  0003b	e8 00 00 00 00	 call	 @__security_check_cookie@4
  00040	b8 00 00 00 00	 mov	 eax, OFFSET __ehfuncinfo$?OnPaint@CLeftBarDlg@@IAEXXZ
  00045	e9 00 00 00 00	 jmp	 ___CxxFrameHandler3
text$x	ENDS
?OnPaint@CLeftBarDlg@@IAEXXZ ENDP			; CLeftBarDlg::OnPaint
; Function compile flags: /Ogtp
; File D:\git\src\IBK\IBK_DRFN\ProjSrc\SrcDrfn\Chart\MULTICHART\LeftBarDlg.cpp
;	COMDAT ?OnEraseBkgnd@CLeftBarDlg@@IAEHPAVCDC@@@Z
_TEXT	SEGMENT
_pDC$ = 8						; size = 4
?OnEraseBkgnd@CLeftBarDlg@@IAEHPAVCDC@@@Z PROC		; CLeftBarDlg::OnEraseBkgnd, COMDAT
; _this$ = ecx

; 588  : 	return TRUE;

  00000	b8 01 00 00 00	 mov	 eax, 1

; 589  : }

  00005	c2 04 00	 ret	 4
?OnEraseBkgnd@CLeftBarDlg@@IAEHPAVCDC@@@Z ENDP		; CLeftBarDlg::OnEraseBkgnd
_TEXT	ENDS
; Function compile flags: /Ogtp
; File D:\git\src\IBK\IBK_DRFN\ProjSrc\SrcDrfn\Chart\MULTICHART\LeftBarDlg.cpp
; File C:\Program Files (x86)\Microsoft Visual Studio\2019\Community\VC\Tools\MSVC\14.29.30133\atlmfc\include\afxwin1.inl
; File D:\git\src\IBK\IBK_DRFN\ProjSrc\SrcDrfn\Chart\MULTICHART\LeftBarDlg.cpp
;	COMDAT ?OnCtlColor@CLeftBarDlg@@IAEPAUHBRUSH__@@PAVCDC@@PAVCWnd@@I@Z
_TEXT	SEGMENT
_pDC$ = 8						; size = 4
_pWnd$ = 12						; size = 4
_nCtlColor$ = 16					; size = 4
?OnCtlColor@CLeftBarDlg@@IAEPAUHBRUSH__@@PAVCDC@@PAVCWnd@@I@Z PROC ; CLeftBarDlg::OnCtlColor, COMDAT
; _this$ = ecx

; 581  : {

  00000	55		 push	 ebp
  00001	8b ec		 mov	 ebp, esp
  00003	56		 push	 esi

; 582  : 	HBRUSH hbr = CRscDlg::OnCtlColor(pDC, pWnd, nCtlColor);

  00004	ff 75 10	 push	 DWORD PTR _nCtlColor$[ebp]
  00007	8b f1		 mov	 esi, ecx
  00009	ff 75 0c	 push	 DWORD PTR _pWnd$[ebp]
  0000c	ff 75 08	 push	 DWORD PTR _pDC$[ebp]
  0000f	e8 00 00 00 00	 call	 ?OnCtlColor@CWnd@@IAEPAUHBRUSH__@@PAVCDC@@PAV1@I@Z ; CWnd::OnCtlColor

; 583  : 	return m_brBkColor;

  00014	8d 86 b0 01 00
	00		 lea	 eax, DWORD PTR [esi+432]
  0001a	5e		 pop	 esi
; File C:\Program Files (x86)\Microsoft Visual Studio\2019\Community\VC\Tools\MSVC\14.29.30133\atlmfc\include\afxwin1.inl

; 124  : 	{ return (HBRUSH)(this == NULL ? NULL : m_hObject); }

  0001b	85 c0		 test	 eax, eax
  0001d	75 04		 jne	 SHORT $LN5@OnCtlColor
; File D:\git\src\IBK\IBK_DRFN\ProjSrc\SrcDrfn\Chart\MULTICHART\LeftBarDlg.cpp

; 584  : }

  0001f	5d		 pop	 ebp
  00020	c2 0c 00	 ret	 12			; 0000000cH
$LN5@OnCtlColor:

; 583  : 	return m_brBkColor;

  00023	8b 40 04	 mov	 eax, DWORD PTR [eax+4]

; 584  : }

  00026	5d		 pop	 ebp
  00027	c2 0c 00	 ret	 12			; 0000000cH
?OnCtlColor@CLeftBarDlg@@IAEPAUHBRUSH__@@PAVCDC@@PAVCWnd@@I@Z ENDP ; CLeftBarDlg::OnCtlColor
_TEXT	ENDS
; Function compile flags: /Ogtp
; File D:\git\src\IBK\IBK_DRFN\ProjSrc\SrcDrfn\Chart\MULTICHART\LeftBarDlg.cpp
;	COMDAT ?OnBthidechart@CLeftBarDlg@@IAEXXZ
_TEXT	SEGMENT
?OnBthidechart@CLeftBarDlg@@IAEXXZ PROC			; CLeftBarDlg::OnBthidechart, COMDAT
; _this$ = ecx

; 521  : 	// TODO: Add your control notification handler code here
; 522  : 	m_pStdDialog->HideChart();

  00000	8b 89 dc 01 00
	00		 mov	 ecx, DWORD PTR [ecx+476]
  00006	e9 00 00 00 00	 jmp	 ?HideChart@CStdDialog@@QAEHXZ ; CStdDialog::HideChart
?OnBthidechart@CLeftBarDlg@@IAEXXZ ENDP			; CLeftBarDlg::OnBthidechart
_TEXT	ENDS
; Function compile flags: /Ogtp
; File D:\git\src\IBK\IBK_DRFN\ProjSrc\SrcDrfn\Chart\MULTICHART\LeftBarDlg.cpp
; File C:\Program Files (x86)\Microsoft Visual Studio\2019\Community\VC\Tools\MSVC\14.29.30133\atlmfc\include\afxwin2.inl
; File D:\git\src\IBK\IBK_DRFN\ProjSrc\SrcDrfn\Chart\MULTICHART\LeftBarDlg.cpp
; File C:\Program Files (x86)\Microsoft Visual Studio\2019\Community\VC\Tools\MSVC\14.29.30133\atlmfc\include\afxwin2.inl
; File C:\Program Files (x86)\Microsoft Visual Studio\2019\Community\VC\Tools\MSVC\14.29.30133\atlmfc\include\atltypes.h
; File C:\Program Files (x86)\Microsoft Visual Studio\2019\Community\VC\Tools\MSVC\14.29.30133\atlmfc\include\afxwin2.inl
; File D:\git\src\IBK\IBK_DRFN\ProjSrc\SrcDrfn\Chart\MULTICHART\LeftBarDlg.cpp
; File C:\Program Files (x86)\Microsoft Visual Studio\2019\Community\VC\Tools\MSVC\14.29.30133\atlmfc\include\afxwin2.inl
; File D:\git\src\IBK\IBK_DRFN\ProjSrc\SrcDrfn\Chart\MULTICHART\LeftBarDlg.cpp
; File C:\Program Files (x86)\Microsoft Visual Studio\2019\Community\VC\Tools\MSVC\14.29.30133\atlmfc\include\afxcmn.inl
; File D:\git\src\IBK\IBK_DRFN\ProjSrc\SrcDrfn\Chart\MULTICHART\LeftBarDlg.cpp
; File C:\Program Files (x86)\Microsoft Visual Studio\2019\Community\VC\Tools\MSVC\14.29.30133\atlmfc\include\afxcmn.inl
; File C:\Program Files (x86)\Microsoft Visual Studio\2019\Community\VC\Tools\MSVC\14.29.30133\atlmfc\include\afxwin2.inl
; File D:\git\src\IBK\IBK_DRFN\ProjSrc\SrcDrfn\Chart\MULTICHART\LeftBarDlg.cpp
; File C:\Program Files (x86)\Microsoft Visual Studio\2019\Community\VC\Tools\MSVC\14.29.30133\atlmfc\include\afxwin2.inl
; File D:\git\src\IBK\IBK_DRFN\ProjSrc\SrcDrfn\Chart\MULTICHART\LeftBarDlg.cpp
; File C:\Program Files (x86)\Microsoft Visual Studio\2019\Community\VC\Tools\MSVC\14.29.30133\atlmfc\include\afxwin2.inl
; File C:\Program Files (x86)\Microsoft Visual Studio\2019\Community\VC\Tools\MSVC\14.29.30133\atlmfc\include\atltypes.h
; File C:\Program Files (x86)\Microsoft Visual Studio\2019\Community\VC\Tools\MSVC\14.29.30133\atlmfc\include\afxwin2.inl
; File D:\git\src\IBK\IBK_DRFN\ProjSrc\SrcDrfn\Chart\MULTICHART\LeftBarDlg.cpp
; File C:\Program Files (x86)\Microsoft Visual Studio\2019\Community\VC\Tools\MSVC\14.29.30133\atlmfc\include\atltypes.h
; File D:\git\src\IBK\IBK_DRFN\ProjSrc\SrcDrfn\Chart\MULTICHART\LeftBarDlg.cpp
; File C:\Program Files (x86)\Microsoft Visual Studio\2019\Community\VC\Tools\MSVC\14.29.30133\atlmfc\include\atltypes.h
; File D:\git\src\IBK\IBK_DRFN\ProjSrc\SrcDrfn\Chart\MULTICHART\LeftBarDlg.cpp
; File C:\Program Files (x86)\Microsoft Visual Studio\2019\Community\VC\Tools\MSVC\14.29.30133\atlmfc\include\afxwin2.inl
; File C:\Program Files (x86)\Microsoft Visual Studio\2019\Community\VC\Tools\MSVC\14.29.30133\atlmfc\include\atltypes.h
; File C:\Program Files (x86)\Microsoft Visual Studio\2019\Community\VC\Tools\MSVC\14.29.30133\atlmfc\include\afxwin2.inl
; File C:\Program Files (x86)\Microsoft Visual Studio\2019\Community\VC\Tools\MSVC\14.29.30133\atlmfc\include\atltypes.h
; File D:\git\src\IBK\IBK_DRFN\ProjSrc\SrcDrfn\Chart\MULTICHART\LeftBarDlg.cpp
; File C:\Program Files (x86)\Microsoft Visual Studio\2019\Community\VC\Tools\MSVC\14.29.30133\atlmfc\include\afxwin2.inl
; File D:\git\src\IBK\IBK_DRFN\ProjSrc\SrcDrfn\Chart\MULTICHART\LeftBarDlg.cpp
; File C:\Program Files (x86)\Microsoft Visual Studio\2019\Community\VC\Tools\MSVC\14.29.30133\atlmfc\include\afxcmn.inl
; File C:\Program Files (x86)\Microsoft Visual Studio\2019\Community\VC\Tools\MSVC\14.29.30133\atlmfc\include\afxwin2.inl
; File D:\git\src\IBK\IBK_DRFN\ProjSrc\SrcDrfn\Chart\MULTICHART\LeftBarDlg.cpp
; File C:\Program Files (x86)\Microsoft Visual Studio\2019\Community\VC\Tools\MSVC\14.29.30133\atlmfc\include\afxwin2.inl
; File D:\git\src\IBK\IBK_DRFN\ProjSrc\SrcDrfn\Chart\MULTICHART\LeftBarDlg.cpp
; File C:\Program Files (x86)\Microsoft Visual Studio\2019\Community\VC\Tools\MSVC\14.29.30133\atlmfc\include\afxwin2.inl
; File D:\git\src\IBK\IBK_DRFN\ProjSrc\SrcDrfn\Chart\MULTICHART\LeftBarDlg.cpp
; File C:\Program Files (x86)\Microsoft Visual Studio\2019\Community\VC\Tools\MSVC\14.29.30133\atlmfc\include\afxwin2.inl
; File D:\git\src\IBK\IBK_DRFN\ProjSrc\SrcDrfn\Chart\MULTICHART\LeftBarDlg.cpp
;	COMDAT ?OnTimer@CLeftBarDlg@@IAEXI@Z
_TEXT	SEGMENT
_rcSideBar$1$sroa$488$1$ = -56				; size = 4
_rcSideBar$2$sroa$481$1$ = -56				; size = 4
_rcLeftBar$3 = -52					; size = 16
_rcChart$4 = -36					; size = 16
_rcChart$5 = -20					; size = 16
_ptCurr$6 = -12						; size = 8
__$ArrayPad$ = -4					; size = 4
_nIDEvent$ = 8						; size = 4
?OnTimer@CLeftBarDlg@@IAEXI@Z PROC			; CLeftBarDlg::OnTimer, COMDAT
; _this$ = ecx

; 395  : {

  00000	55		 push	 ebp
  00001	8b ec		 mov	 ebp, esp
  00003	83 ec 38	 sub	 esp, 56			; 00000038H
  00006	a1 00 00 00 00	 mov	 eax, DWORD PTR ___security_cookie
  0000b	33 c5		 xor	 eax, ebp
  0000d	89 45 fc	 mov	 DWORD PTR __$ArrayPad$[ebp], eax

; 396  : 	// TODO: Add your message handler code here and/or call default
; 397  : 	if(nIDEvent==200)

  00010	8b 45 08	 mov	 eax, DWORD PTR _nIDEvent$[ebp]
  00013	57		 push	 edi
  00014	8b f9		 mov	 edi, ecx
  00016	3d c8 00 00 00	 cmp	 eax, 200		; 000000c8H
  0001b	75 18		 jne	 SHORT $LN2@OnTimer
; File C:\Program Files (x86)\Microsoft Visual Studio\2019\Community\VC\Tools\MSVC\14.29.30133\atlmfc\include\afxwin2.inl

; 155  : 	{ ASSERT(::IsWindow(m_hWnd)); return ::KillTimer(m_hWnd, nIDEvent); }

  0001d	50		 push	 eax
  0001e	ff 77 20	 push	 DWORD PTR [edi+32]
  00021	ff 15 00 00 00
	00		 call	 DWORD PTR __imp__KillTimer@8
; File D:\git\src\IBK\IBK_DRFN\ProjSrc\SrcDrfn\Chart\MULTICHART\LeftBarDlg.cpp

; 400  : 		SetConfig();		

  00027	6a 01		 push	 1
  00029	8b cf		 mov	 ecx, edi
  0002b	e8 00 00 00 00	 call	 ?SetConfig@CLeftBarDlg@@QAEXH@Z ; CLeftBarDlg::SetConfig

; 401  : 	}

  00030	e9 85 02 00 00	 jmp	 $LN14@OnTimer
$LN2@OnTimer:
  00035	53		 push	 ebx
  00036	56		 push	 esi

; 402  : 	else if(nIDEvent == 300)

  00037	3d 2c 01 00 00	 cmp	 eax, 300		; 0000012cH
  0003c	0f 85 00 01 00
	00		 jne	 $LN4@OnTimer
; File C:\Program Files (x86)\Microsoft Visual Studio\2019\Community\VC\Tools\MSVC\14.29.30133\atlmfc\include\afxwin2.inl

; 84   : 	{ ASSERT(::IsWindow(m_hWnd)); ::GetWindowRect(m_hWnd, lpRect); }

  00042	8d 45 ec	 lea	 eax, DWORD PTR _rcChart$5[ebp]
  00045	0f 57 c0	 xorps	 xmm0, xmm0
  00048	50		 push	 eax
  00049	8b 87 dc 01 00
	00		 mov	 eax, DWORD PTR [edi+476]
; File C:\Program Files (x86)\Microsoft Visual Studio\2019\Community\VC\Tools\MSVC\14.29.30133\atlmfc\include\atltypes.h

; 528  : 	left = 0;

  0004f	0f 11 45 ec	 movups	 XMMWORD PTR _rcChart$5[ebp], xmm0
; File C:\Program Files (x86)\Microsoft Visual Studio\2019\Community\VC\Tools\MSVC\14.29.30133\atlmfc\include\afxwin2.inl

; 84   : 	{ ASSERT(::IsWindow(m_hWnd)); ::GetWindowRect(m_hWnd, lpRect); }

  00053	ff 70 20	 push	 DWORD PTR [eax+32]
  00056	ff 15 00 00 00
	00		 call	 DWORD PTR __imp__GetWindowRect@8
; File D:\git\src\IBK\IBK_DRFN\ProjSrc\SrcDrfn\Chart\MULTICHART\LeftBarDlg.cpp

; 406  : 		ScreenToClient(rcChart);

  0005c	8d 45 ec	 lea	 eax, DWORD PTR _rcChart$5[ebp]
  0005f	8b cf		 mov	 ecx, edi
  00061	50		 push	 eax
  00062	e8 00 00 00 00	 call	 ?ScreenToClient@CWnd@@QBEXPAUtagRECT@@@Z ; CWnd::ScreenToClient

; 407  : 
; 408  : 		CRect rcSideBar;
; 409  : 		rcSideBar.top = rcChart.top-3;

  00067	8b 45 f0	 mov	 eax, DWORD PTR _rcChart$5[ebp+4]

; 410  : 		rcSideBar.bottom = rcChart.bottom+3;

  0006a	8b 5d f8	 mov	 ebx, DWORD PTR _rcChart$5[ebp+12]
  0006d	83 c0 fd	 add	 eax, -3			; fffffffdH

; 411  : 		rcSideBar.left = 0-3;//WIDTH_SIDEBAR;
; 412  : 		rcSideBar.right = rcSideBar.left + m_nSideBarIncrease;
; 413  : 
; 414  : 		if(m_nSideBarIncrease < m_pStdDialog->GetWidthOfLeftBar())

  00070	8b 8f dc 01 00
	00		 mov	 ecx, DWORD PTR [edi+476]
  00076	83 c3 03	 add	 ebx, 3
  00079	89 45 c8	 mov	 DWORD PTR _rcSideBar$1$sroa$488$1$[ebp], eax
  0007c	e8 00 00 00 00	 call	 ?GetWidthOfLeftBar@CStdDialog@@QAEHXZ ; CStdDialog::GetWidthOfLeftBar
  00081	39 87 b0 00 00
	00		 cmp	 DWORD PTR [edi+176], eax
  00087	0f 8d 90 00 00
	00		 jge	 $LN6@OnTimer

; 415  : 		{
; 416  : 			int nInterval = m_pStdDialog->GetWidthOfLeftBar() - m_nSideBarIncrease;

  0008d	8b 8f dc 01 00
	00		 mov	 ecx, DWORD PTR [edi+476]
  00093	8b b7 b0 00 00
	00		 mov	 esi, DWORD PTR [edi+176]
  00099	e8 00 00 00 00	 call	 ?GetWidthOfLeftBar@CStdDialog@@QAEHXZ ; CStdDialog::GetWidthOfLeftBar
  0009e	2b c6		 sub	 eax, esi

; 417  : 			if(nInterval > 0 && nInterval < 30)
; 418  : 			{
; 419  : 				m_nSideBarIncrease += nInterval;
; 420  : 			}
; 421  : 			else
; 422  : 			{
; 423  : 				m_nSideBarIncrease += 30;
; 424  : 			}
; 425  : 
; 426  : 			rcSideBar.right = rcSideBar.left + m_nSideBarIncrease;
; 427  : 			SetWindowPos(NULL, rcSideBar.left,rcSideBar.top,rcSideBar.Width(),rcSideBar.Height(), SWP_SHOWWINDOW);

  000a0	8d 56 1e	 lea	 edx, DWORD PTR [esi+30]
  000a3	6a 40		 push	 64			; 00000040H
  000a5	8d 48 ff	 lea	 ecx, DWORD PTR [eax-1]
  000a8	03 c6		 add	 eax, esi
  000aa	83 f9 1c	 cmp	 ecx, 28			; 0000001cH
  000ad	8b 4d c8	 mov	 ecx, DWORD PTR _rcSideBar$1$sroa$488$1$[ebp]
  000b0	0f 47 c2	 cmova	 eax, edx
  000b3	2b d9		 sub	 ebx, ecx
  000b5	53		 push	 ebx
  000b6	50		 push	 eax
  000b7	51		 push	 ecx
  000b8	6a fd		 push	 -3			; fffffffdH
  000ba	6a 00		 push	 0
  000bc	8b cf		 mov	 ecx, edi
  000be	89 87 b0 00 00
	00		 mov	 DWORD PTR [edi+176], eax
  000c4	e8 00 00 00 00	 call	 ?SetWindowPos@CWnd@@QAEHPBV1@HHHHI@Z ; CWnd::SetWindowPos

; 430  : 			if( m_tabctrl.GetSafeHwnd()  && m_tabctrl.GetItemCount() > 1 )

  000c9	8d 87 c0 00 00
	00		 lea	 eax, DWORD PTR [edi+192]
; File C:\Program Files (x86)\Microsoft Visual Studio\2019\Community\VC\Tools\MSVC\14.29.30133\atlmfc\include\afxwin2.inl

; 25   : 	{ return this == NULL ? NULL : m_hWnd; }

  000cf	85 c0		 test	 eax, eax
  000d1	74 33		 je	 SHORT $LN10@OnTimer
; File D:\git\src\IBK\IBK_DRFN\ProjSrc\SrcDrfn\Chart\MULTICHART\LeftBarDlg.cpp

; 430  : 			if( m_tabctrl.GetSafeHwnd()  && m_tabctrl.GetItemCount() > 1 )

  000d3	83 78 20 00	 cmp	 DWORD PTR [eax+32], 0
  000d7	74 2d		 je	 SHORT $LN10@OnTimer
; File C:\Program Files (x86)\Microsoft Visual Studio\2019\Community\VC\Tools\MSVC\14.29.30133\atlmfc\include\afxcmn.inl

; 564  : 	{ ASSERT(::IsWindow(m_hWnd)); return (int)::SendMessage(m_hWnd, TCM_GETITEMCOUNT, 0, 0L); }

  000d9	8b 35 00 00 00
	00		 mov	 esi, DWORD PTR __imp__SendMessageA@16
  000df	6a 00		 push	 0
  000e1	6a 00		 push	 0
  000e3	68 04 13 00 00	 push	 4868			; 00001304H
  000e8	ff b7 e0 00 00
	00		 push	 DWORD PTR [edi+224]
  000ee	ff d6		 call	 esi
; File D:\git\src\IBK\IBK_DRFN\ProjSrc\SrcDrfn\Chart\MULTICHART\LeftBarDlg.cpp

; 430  : 			if( m_tabctrl.GetSafeHwnd()  && m_tabctrl.GetItemCount() > 1 )

  000f0	83 f8 01	 cmp	 eax, 1
  000f3	7e 11		 jle	 SHORT $LN10@OnTimer
; File C:\Program Files (x86)\Microsoft Visual Studio\2019\Community\VC\Tools\MSVC\14.29.30133\atlmfc\include\afxcmn.inl

; 588  : 	{ ASSERT(::IsWindow(m_hWnd)); return (int)::SendMessage(m_hWnd, TCM_SETCURSEL, nItem, 0L); }

  000f5	6a 00		 push	 0
  000f7	6a 01		 push	 1
  000f9	68 0c 13 00 00	 push	 4876			; 0000130cH
  000fe	ff b7 e0 00 00
	00		 push	 DWORD PTR [edi+224]
  00104	ff d6		 call	 esi
$LN10@OnTimer:
; File C:\Program Files (x86)\Microsoft Visual Studio\2019\Community\VC\Tools\MSVC\14.29.30133\atlmfc\include\afxwin2.inl

; 152  : 	{ ASSERT(::IsWindow(m_hWnd)); return ::SetTimer(m_hWnd, nIDEvent, nElapse,

  00106	6a 00		 push	 0
  00108	6a 28		 push	 40			; 00000028H
  0010a	68 2c 01 00 00	 push	 300			; 0000012cH
  0010f	ff 77 20	 push	 DWORD PTR [edi+32]
  00112	ff 15 00 00 00
	00		 call	 DWORD PTR __imp__SetTimer@16
; File D:\git\src\IBK\IBK_DRFN\ProjSrc\SrcDrfn\Chart\MULTICHART\LeftBarDlg.cpp

; 437  : 		}

  00118	e9 9b 01 00 00	 jmp	 $LN95@OnTimer
$LN6@OnTimer:
; File C:\Program Files (x86)\Microsoft Visual Studio\2019\Community\VC\Tools\MSVC\14.29.30133\atlmfc\include\afxwin2.inl

; 155  : 	{ ASSERT(::IsWindow(m_hWnd)); return ::KillTimer(m_hWnd, nIDEvent); }

  0011d	68 2c 01 00 00	 push	 300			; 0000012cH
  00122	ff 77 20	 push	 DWORD PTR [edi+32]
  00125	ff 15 00 00 00
	00		 call	 DWORD PTR __imp__KillTimer@8

; 152  : 	{ ASSERT(::IsWindow(m_hWnd)); return ::SetTimer(m_hWnd, nIDEvent, nElapse,

  0012b	6a 00		 push	 0
  0012d	6a 28		 push	 40			; 00000028H
  0012f	68 90 01 00 00	 push	 400			; 00000190H
  00134	ff 77 20	 push	 DWORD PTR [edi+32]
  00137	ff 15 00 00 00
	00		 call	 DWORD PTR __imp__SetTimer@16
; File D:\git\src\IBK\IBK_DRFN\ProjSrc\SrcDrfn\Chart\MULTICHART\LeftBarDlg.cpp

; 444  : 	}

  0013d	e9 76 01 00 00	 jmp	 $LN95@OnTimer
$LN4@OnTimer:

; 445  : 	else if(nIDEvent == 400)

  00142	3d 90 01 00 00	 cmp	 eax, 400		; 00000190H
  00147	0f 85 6b 01 00
	00		 jne	 $LN95@OnTimer
; File C:\Program Files (x86)\Microsoft Visual Studio\2019\Community\VC\Tools\MSVC\14.29.30133\atlmfc\include\afxwin2.inl

; 84   : 	{ ASSERT(::IsWindow(m_hWnd)); ::GetWindowRect(m_hWnd, lpRect); }

  0014d	8b 35 00 00 00
	00		 mov	 esi, DWORD PTR __imp__GetWindowRect@8
  00153	8d 45 dc	 lea	 eax, DWORD PTR _rcChart$4[ebp]
  00156	50		 push	 eax
  00157	8b 87 dc 01 00
	00		 mov	 eax, DWORD PTR [edi+476]
  0015d	0f 57 c0	 xorps	 xmm0, xmm0
; File C:\Program Files (x86)\Microsoft Visual Studio\2019\Community\VC\Tools\MSVC\14.29.30133\atlmfc\include\atltypes.h

; 528  : 	left = 0;

  00160	0f 11 45 dc	 movups	 XMMWORD PTR _rcChart$4[ebp], xmm0
; File C:\Program Files (x86)\Microsoft Visual Studio\2019\Community\VC\Tools\MSVC\14.29.30133\atlmfc\include\afxwin2.inl

; 84   : 	{ ASSERT(::IsWindow(m_hWnd)); ::GetWindowRect(m_hWnd, lpRect); }

  00164	ff 70 20	 push	 DWORD PTR [eax+32]
  00167	ff d6		 call	 esi
; File D:\git\src\IBK\IBK_DRFN\ProjSrc\SrcDrfn\Chart\MULTICHART\LeftBarDlg.cpp

; 449  : 		ScreenToClient(rcChart);

  00169	8d 45 dc	 lea	 eax, DWORD PTR _rcChart$4[ebp]
  0016c	8b cf		 mov	 ecx, edi
  0016e	50		 push	 eax
  0016f	e8 00 00 00 00	 call	 ?ScreenToClient@CWnd@@QBEXPAUtagRECT@@@Z ; CWnd::ScreenToClient

; 452  : 		::GetCursorPos(&ptCurr);

  00174	8d 45 f4	 lea	 eax, DWORD PTR _ptCurr$6[ebp]
; File C:\Program Files (x86)\Microsoft Visual Studio\2019\Community\VC\Tools\MSVC\14.29.30133\atlmfc\include\atltypes.h

; 400  : 	x = 0;

  00177	c7 45 f4 00 00
	00 00		 mov	 DWORD PTR _ptCurr$6[ebp], 0
; File D:\git\src\IBK\IBK_DRFN\ProjSrc\SrcDrfn\Chart\MULTICHART\LeftBarDlg.cpp

; 452  : 		::GetCursorPos(&ptCurr);

  0017e	50		 push	 eax
; File C:\Program Files (x86)\Microsoft Visual Studio\2019\Community\VC\Tools\MSVC\14.29.30133\atlmfc\include\atltypes.h

; 401  : 	y = 0;

  0017f	c7 45 f8 00 00
	00 00		 mov	 DWORD PTR _ptCurr$6[ebp+4], 0
; File D:\git\src\IBK\IBK_DRFN\ProjSrc\SrcDrfn\Chart\MULTICHART\LeftBarDlg.cpp

; 452  : 		::GetCursorPos(&ptCurr);

  00186	ff 15 00 00 00
	00		 call	 DWORD PTR __imp__GetCursorPos@4
; File C:\Program Files (x86)\Microsoft Visual Studio\2019\Community\VC\Tools\MSVC\14.29.30133\atlmfc\include\afxwin2.inl

; 84   : 	{ ASSERT(::IsWindow(m_hWnd)); ::GetWindowRect(m_hWnd, lpRect); }

  0018c	8d 45 cc	 lea	 eax, DWORD PTR _rcLeftBar$3[ebp]
  0018f	0f 57 c0	 xorps	 xmm0, xmm0
  00192	50		 push	 eax
  00193	ff 77 20	 push	 DWORD PTR [edi+32]
; File C:\Program Files (x86)\Microsoft Visual Studio\2019\Community\VC\Tools\MSVC\14.29.30133\atlmfc\include\atltypes.h

; 528  : 	left = 0;

  00196	0f 11 45 cc	 movups	 XMMWORD PTR _rcLeftBar$3[ebp], xmm0
; File C:\Program Files (x86)\Microsoft Visual Studio\2019\Community\VC\Tools\MSVC\14.29.30133\atlmfc\include\afxwin2.inl

; 84   : 	{ ASSERT(::IsWindow(m_hWnd)); ::GetWindowRect(m_hWnd, lpRect); }

  0019a	ff d6		 call	 esi
; File C:\Program Files (x86)\Microsoft Visual Studio\2019\Community\VC\Tools\MSVC\14.29.30133\atlmfc\include\atltypes.h

; 648  : 	return ::PtInRect(this, point);

  0019c	ff 75 f8	 push	 DWORD PTR _ptCurr$6[ebp+4]
  0019f	8d 45 cc	 lea	 eax, DWORD PTR _rcLeftBar$3[ebp]
  001a2	ff 75 f4	 push	 DWORD PTR _ptCurr$6[ebp]
  001a5	50		 push	 eax
  001a6	ff 15 00 00 00
	00		 call	 DWORD PTR __imp__PtInRect@12
; File D:\git\src\IBK\IBK_DRFN\ProjSrc\SrcDrfn\Chart\MULTICHART\LeftBarDlg.cpp

; 455  : 		if(!rcLeftBar.PtInRect(ptCurr))

  001ac	85 c0		 test	 eax, eax
  001ae	0f 85 04 01 00
	00		 jne	 $LN95@OnTimer

; 456  : 		{
; 457  : 			CRect rcSideBar;
; 458  : 			rcSideBar.top = rcChart.top-3;

  001b4	8b 45 e0	 mov	 eax, DWORD PTR _rcChart$4[ebp+4]

; 459  : 			rcSideBar.bottom = rcChart.bottom+3;

  001b7	8b 5d e8	 mov	 ebx, DWORD PTR _rcChart$4[ebp+12]
  001ba	83 c0 fd	 add	 eax, -3			; fffffffdH

; 460  : 			rcSideBar.left = 0-3;//WIDTH_SIDEBAR;
; 461  : 			rcSideBar.right = rcSideBar.left + m_nSideBarIncrease;
; 462  : 
; 463  : 			if(m_nSideBarIncrease > 0)

  001bd	8b 8f dc 01 00
	00		 mov	 ecx, DWORD PTR [edi+476]
  001c3	83 c3 03	 add	 ebx, 3
  001c6	83 bf b0 00 00
	00 00		 cmp	 DWORD PTR [edi+176], 0
  001cd	89 45 c8	 mov	 DWORD PTR _rcSideBar$2$sroa$481$1$[ebp], eax
  001d0	7e 79		 jle	 SHORT $LN13@OnTimer

; 464  : 			{
; 465  : 				int nInterval = m_pStdDialog->GetWidthOfLeftBar() - m_nSideBarIncrease;

  001d2	e8 00 00 00 00	 call	 ?GetWidthOfLeftBar@CStdDialog@@QAEHXZ ; CStdDialog::GetWidthOfLeftBar
  001d7	8b b7 b0 00 00
	00		 mov	 esi, DWORD PTR [edi+176]
  001dd	2b c6		 sub	 eax, esi

; 466  : 				if(nInterval > 0 && nInterval < 30)
; 467  : 				{
; 468  : 					m_nSideBarIncrease -= nInterval;
; 469  : 				}
; 470  : 				else
; 471  : 				{
; 472  : 					m_nSideBarIncrease -= 30;
; 473  : 				}
; 474  : 
; 475  : 				rcSideBar.right = rcSideBar.left + m_nSideBarIncrease;
; 476  : 				SetWindowPos(NULL, rcSideBar.left,rcSideBar.top,rcSideBar.Width(),rcSideBar.Height(), SWP_SHOWWINDOW);

  001df	6a 40		 push	 64			; 00000040H
  001e1	8d 48 ff	 lea	 ecx, DWORD PTR [eax-1]
  001e4	8d 56 e2	 lea	 edx, DWORD PTR [esi-30]
  001e7	2b f0		 sub	 esi, eax
  001e9	8b 45 c8	 mov	 eax, DWORD PTR _rcSideBar$2$sroa$481$1$[ebp]
  001ec	83 f9 1c	 cmp	 ecx, 28			; 0000001cH
  001ef	8b cf		 mov	 ecx, edi
  001f1	0f 47 f2	 cmova	 esi, edx
  001f4	2b d8		 sub	 ebx, eax
  001f6	53		 push	 ebx
  001f7	56		 push	 esi
  001f8	50		 push	 eax
  001f9	6a fd		 push	 -3			; fffffffdH
  001fb	6a 00		 push	 0
  001fd	89 b7 b0 00 00
	00		 mov	 DWORD PTR [edi+176], esi
  00203	e8 00 00 00 00	 call	 ?SetWindowPos@CWnd@@QAEHPBV1@HHHHI@Z ; CWnd::SetWindowPos

; 479  : 				if( m_tabctrl.GetSafeHwnd()  && m_tabctrl.GetItemCount() > 1 )

  00208	8d 8f c0 00 00
	00		 lea	 ecx, DWORD PTR [edi+192]
; File C:\Program Files (x86)\Microsoft Visual Studio\2019\Community\VC\Tools\MSVC\14.29.30133\atlmfc\include\afxwin2.inl

; 25   : 	{ return this == NULL ? NULL : m_hWnd; }

  0020e	85 c9		 test	 ecx, ecx
  00210	74 25		 je	 SHORT $LN17@OnTimer
; File D:\git\src\IBK\IBK_DRFN\ProjSrc\SrcDrfn\Chart\MULTICHART\LeftBarDlg.cpp

; 479  : 				if( m_tabctrl.GetSafeHwnd()  && m_tabctrl.GetItemCount() > 1 )

  00212	83 79 20 00	 cmp	 DWORD PTR [ecx+32], 0
  00216	74 1f		 je	 SHORT $LN17@OnTimer
  00218	e8 00 00 00 00	 call	 ?GetItemCount@CTabCtrl@@QBEHXZ ; CTabCtrl::GetItemCount
  0021d	83 f8 01	 cmp	 eax, 1
  00220	7e 15		 jle	 SHORT $LN17@OnTimer
; File C:\Program Files (x86)\Microsoft Visual Studio\2019\Community\VC\Tools\MSVC\14.29.30133\atlmfc\include\afxcmn.inl

; 588  : 	{ ASSERT(::IsWindow(m_hWnd)); return (int)::SendMessage(m_hWnd, TCM_SETCURSEL, nItem, 0L); }

  00222	6a 00		 push	 0
  00224	6a 01		 push	 1
  00226	68 0c 13 00 00	 push	 4876			; 0000130cH
  0022b	ff b7 e0 00 00
	00		 push	 DWORD PTR [edi+224]
  00231	ff 15 00 00 00
	00		 call	 DWORD PTR __imp__SendMessageA@16
$LN17@OnTimer:
; File C:\Program Files (x86)\Microsoft Visual Studio\2019\Community\VC\Tools\MSVC\14.29.30133\atlmfc\include\afxwin2.inl

; 152  : 	{ ASSERT(::IsWindow(m_hWnd)); return ::SetTimer(m_hWnd, nIDEvent, nElapse,

  00237	6a 00		 push	 0
  00239	6a 0a		 push	 10			; 0000000aH
  0023b	68 90 01 00 00	 push	 400			; 00000190H
  00240	ff 77 20	 push	 DWORD PTR [edi+32]
  00243	ff 15 00 00 00
	00		 call	 DWORD PTR __imp__SetTimer@16
; File D:\git\src\IBK\IBK_DRFN\ProjSrc\SrcDrfn\Chart\MULTICHART\LeftBarDlg.cpp

; 486  : 			}

  00249	eb 6d		 jmp	 SHORT $LN95@OnTimer
$LN13@OnTimer:

; 487  : 			else
; 488  : 			{
; 489  : //				ModifyStyle(WS_POPUP|WS_THICKFRAME, WS_CHILD);
; 490  : 				m_nSideBarIncrease = 0;
; 491  : 				m_pStdDialog->m_btnSideBar.EndSideBar();

  0024b	81 c1 68 05 00
	00		 add	 ecx, 1384		; 00000568H
  00251	c7 87 b0 00 00
	00 00 00 00 00	 mov	 DWORD PTR [edi+176], 0
  0025b	e8 00 00 00 00	 call	 ?EndSideBar@CRGBButton@@QAEXXZ ; CRGBButton::EndSideBar
; File C:\Program Files (x86)\Microsoft Visual Studio\2019\Community\VC\Tools\MSVC\14.29.30133\atlmfc\include\afxwin2.inl

; 124  : 	{ ASSERT(::IsWindow(m_hWnd)); return ::IsWindowVisible(m_hWnd); }

  00260	8b 87 dc 01 00
	00		 mov	 eax, DWORD PTR [edi+476]
  00266	ff b0 88 05 00
	00		 push	 DWORD PTR [eax+1416]
  0026c	ff 15 00 00 00
	00		 call	 DWORD PTR __imp__IsWindowVisible@4
; File D:\git\src\IBK\IBK_DRFN\ProjSrc\SrcDrfn\Chart\MULTICHART\LeftBarDlg.cpp

; 493  : 				if(!m_pStdDialog->m_btnSideBar.IsWindowVisible())

  00272	8b 35 00 00 00
	00		 mov	 esi, DWORD PTR __imp__InvalidateRect@12
  00278	85 c0		 test	 eax, eax
  0027a	75 25		 jne	 SHORT $LN18@OnTimer

; 494  : 				{
; 495  : 					m_pStdDialog->m_btnSideBar.ShowWindow(SW_SHOW);

  0027c	8b 8f dc 01 00
	00		 mov	 ecx, DWORD PTR [edi+476]
  00282	6a 05		 push	 5
  00284	81 c1 68 05 00
	00		 add	 ecx, 1384		; 00000568H
  0028a	e8 00 00 00 00	 call	 ?ShowWindow@CWnd@@QAEHH@Z ; CWnd::ShowWindow
; File C:\Program Files (x86)\Microsoft Visual Studio\2019\Community\VC\Tools\MSVC\14.29.30133\atlmfc\include\afxwin2.inl

; 114  : 	{ ASSERT(::IsWindow(m_hWnd)); ::InvalidateRect(m_hWnd, NULL, bErase); }

  0028f	8b 87 dc 01 00
	00		 mov	 eax, DWORD PTR [edi+476]
  00295	6a 01		 push	 1
  00297	6a 00		 push	 0
  00299	ff b0 88 05 00
	00		 push	 DWORD PTR [eax+1416]
  0029f	ff d6		 call	 esi
$LN18@OnTimer:
  002a1	6a 01		 push	 1
  002a3	6a 00		 push	 0
  002a5	ff 77 20	 push	 DWORD PTR [edi+32]
  002a8	ff d6		 call	 esi

; 155  : 	{ ASSERT(::IsWindow(m_hWnd)); return ::KillTimer(m_hWnd, nIDEvent); }

  002aa	68 90 01 00 00	 push	 400			; 00000190H
  002af	ff 77 20	 push	 DWORD PTR [edi+32]
  002b2	ff 15 00 00 00
	00		 call	 DWORD PTR __imp__KillTimer@8
$LN95@OnTimer:
  002b8	5e		 pop	 esi
  002b9	5b		 pop	 ebx
$LN14@OnTimer:

; 466  : 	{ Default(); }

  002ba	8b cf		 mov	 ecx, edi
  002bc	e8 00 00 00 00	 call	 ?Default@CWnd@@IAEJXZ	; CWnd::Default
; File D:\git\src\IBK\IBK_DRFN\ProjSrc\SrcDrfn\Chart\MULTICHART\LeftBarDlg.cpp

; 506  : }

  002c1	8b 4d fc	 mov	 ecx, DWORD PTR __$ArrayPad$[ebp]
  002c4	33 cd		 xor	 ecx, ebp
; File C:\Program Files (x86)\Microsoft Visual Studio\2019\Community\VC\Tools\MSVC\14.29.30133\atlmfc\include\afxwin2.inl

; 466  : 	{ Default(); }

  002c6	5f		 pop	 edi
; File D:\git\src\IBK\IBK_DRFN\ProjSrc\SrcDrfn\Chart\MULTICHART\LeftBarDlg.cpp

; 506  : }

  002c7	e8 00 00 00 00	 call	 @__security_check_cookie@4
  002cc	8b e5		 mov	 esp, ebp
  002ce	5d		 pop	 ebp
  002cf	c2 04 00	 ret	 4
?OnTimer@CLeftBarDlg@@IAEXI@Z ENDP			; CLeftBarDlg::OnTimer
_TEXT	ENDS
; Function compile flags: /Ogtp
; File D:\git\src\IBK\IBK_DRFN\ProjSrc\SrcDrfn\Chart\MULTICHART\LeftBarDlg.cpp
; File C:\Program Files (x86)\Microsoft Visual Studio\2019\Community\VC\Tools\MSVC\14.29.30133\atlmfc\include\afxcmn.inl
; File D:\git\src\IBK\IBK_DRFN\ProjSrc\SrcDrfn\Chart\MULTICHART\LeftBarDlg.cpp
; File C:\Program Files (x86)\Microsoft Visual Studio\2019\Community\VC\Tools\MSVC\14.29.30133\atlmfc\include\afxcmn.inl
; File D:\git\src\IBK\IBK_DRFN\ProjSrc\SrcDrfn\Chart\MULTICHART\LeftBarDlg.cpp
;	COMDAT ?OnDestroy@CLeftBarDlg@@IAEXXZ
_TEXT	SEGMENT
_strCfgFile$2 = -20					; size = 4
_strTemp$3 = -16					; size = 4
__$EHRec$ = -12						; size = 12
?OnDestroy@CLeftBarDlg@@IAEXXZ PROC			; CLeftBarDlg::OnDestroy, COMDAT
; _this$ = ecx

; 155  : {

  00000	55		 push	 ebp
  00001	8b ec		 mov	 ebp, esp
  00003	6a ff		 push	 -1
  00005	68 00 00 00 00	 push	 __ehhandler$?OnDestroy@CLeftBarDlg@@IAEXXZ
  0000a	64 a1 00 00 00
	00		 mov	 eax, DWORD PTR fs:0
  00010	50		 push	 eax
  00011	83 ec 08	 sub	 esp, 8
  00014	56		 push	 esi
  00015	a1 00 00 00 00	 mov	 eax, DWORD PTR ___security_cookie
  0001a	33 c5		 xor	 eax, ebp
  0001c	50		 push	 eax
  0001d	8d 45 f4	 lea	 eax, DWORD PTR __$EHRec$[ebp]
  00020	64 a3 00 00 00
	00		 mov	 DWORD PTR fs:0, eax
  00026	8b f1		 mov	 esi, ecx

; 130  : 	if(m_pStdDialog->IsSystemChart())

  00028	8b 8e dc 01 00
	00		 mov	 ecx, DWORD PTR [esi+476]
  0002e	e8 00 00 00 00	 call	 ?IsSystemChart@CStdDialog@@QAEHXZ ; CStdDialog::IsSystemChart
  00033	85 c0		 test	 eax, eax
  00035	0f 85 80 00 00
	00		 jne	 $LN3@OnDestroy

; 131  : 	{
; 132  : 		if(bLoad && m_tabctrl.GetSafeHwnd() && m_tabctrl.GetItemCount() > 0 )
; 133  : 			m_tabctrl.SetCurSel(0);
; 134  : 
; 135  : 		return;
; 136  : 	}
; 137  : 
; 138  : 	CString strTemp;

  0003b	8d 4d f0	 lea	 ecx, DWORD PTR _strTemp$3[ebp]
  0003e	ff 15 00 00 00
	00		 call	 DWORD PTR __imp_??0?$CStringT@DV?$StrTraitMFC_DLL@DV?$ChTraitsCRT@D@ATL@@@@@ATL@@QAE@XZ

; 141  : 	CString strCfgFile = m_pStdDialog->m_strConfig;	

  00044	8b 86 dc 01 00
	00		 mov	 eax, DWORD PTR [esi+476]
  0004a	8d 4d ec	 lea	 ecx, DWORD PTR _strCfgFile$2[ebp]
  0004d	05 a8 07 00 00	 add	 eax, 1960		; 000007a8H
  00052	c7 45 fc 00 00
	00 00		 mov	 DWORD PTR __$EHRec$[ebp+8], 0
  00059	50		 push	 eax
  0005a	ff 15 00 00 00
	00		 call	 DWORD PTR __imp_??0?$CStringT@DV?$StrTraitMFC_DLL@DV?$ChTraitsCRT@D@ATL@@@@@ATL@@QAE@ABV01@@Z
; File C:\Program Files (x86)\Microsoft Visual Studio\2019\Community\VC\Tools\MSVC\14.29.30133\atlmfc\include\afxcmn.inl

; 586  : 	{ ASSERT(::IsWindow(m_hWnd)); return (int)::SendMessage(m_hWnd, TCM_GETCURSEL, 0, 0L); }

  00060	6a 00		 push	 0
  00062	6a 00		 push	 0
  00064	68 0b 13 00 00	 push	 4875			; 0000130bH
  00069	ff b6 e0 00 00
	00		 push	 DWORD PTR [esi+224]
; File D:\git\src\IBK\IBK_DRFN\ProjSrc\SrcDrfn\Chart\MULTICHART\LeftBarDlg.cpp

; 141  : 	CString strCfgFile = m_pStdDialog->m_strConfig;	

  0006f	c6 45 fc 01	 mov	 BYTE PTR __$EHRec$[ebp+8], 1
; File C:\Program Files (x86)\Microsoft Visual Studio\2019\Community\VC\Tools\MSVC\14.29.30133\atlmfc\include\afxcmn.inl

; 586  : 	{ ASSERT(::IsWindow(m_hWnd)); return (int)::SendMessage(m_hWnd, TCM_GETCURSEL, 0, 0L); }

  00073	ff 15 00 00 00
	00		 call	 DWORD PTR __imp__SendMessageA@16
; File D:\git\src\IBK\IBK_DRFN\ProjSrc\SrcDrfn\Chart\MULTICHART\LeftBarDlg.cpp

; 149  : 		strTemp.Format("%d",m_tabctrl.GetCurSel());

  00079	50		 push	 eax
  0007a	8d 45 f0	 lea	 eax, DWORD PTR _strTemp$3[ebp]
  0007d	68 00 00 00 00	 push	 OFFSET ??_C@_02DPKJAMEF@?$CFd@
  00082	50		 push	 eax
  00083	ff 15 00 00 00
	00		 call	 DWORD PTR __imp_?Format@?$CStringT@DV?$StrTraitMFC_DLL@DV?$ChTraitsCRT@D@ATL@@@@@ATL@@QAAXPBDZZ
  00089	83 c4 0c	 add	 esp, 12			; 0000000cH

; 150  : 		::WritePrivateProfileString("LeftBar","TabPos",strTemp, strCfgFile);

  0008c	ff 75 ec	 push	 DWORD PTR _strCfgFile$2[ebp]
  0008f	ff 75 f0	 push	 DWORD PTR _strTemp$3[ebp]
  00092	68 00 00 00 00	 push	 OFFSET ??_C@_06BJMHLMHN@TabPos@
  00097	68 00 00 00 00	 push	 OFFSET ??_C@_07IKJPBEOL@LeftBar@
  0009c	ff 15 00 00 00
	00		 call	 DWORD PTR __imp__WritePrivateProfileStringA@16

; 151  : 	}
; 152  : }

  000a2	8d 4d ec	 lea	 ecx, DWORD PTR _strCfgFile$2[ebp]
  000a5	ff 15 00 00 00
	00		 call	 DWORD PTR __imp_??1?$CStringT@DV?$StrTraitMFC_DLL@DV?$ChTraitsCRT@D@ATL@@@@@ATL@@QAE@XZ
  000ab	8d 4d f0	 lea	 ecx, DWORD PTR _strTemp$3[ebp]
  000ae	c7 45 fc ff ff
	ff ff		 mov	 DWORD PTR __$EHRec$[ebp+8], -1
  000b5	ff 15 00 00 00
	00		 call	 DWORD PTR __imp_??1?$CStringT@DV?$StrTraitMFC_DLL@DV?$ChTraitsCRT@D@ATL@@@@@ATL@@QAE@XZ
$LN3@OnDestroy:

; 156  : 	SetConfig(FALSE);
; 157  : 	m_brBkColor.DeleteObject();

  000bb	8d 8e b0 01 00
	00		 lea	 ecx, DWORD PTR [esi+432]
  000c1	e8 00 00 00 00	 call	 ?DeleteObject@CGdiObject@@QAEHXZ ; CGdiObject::DeleteObject

; 158  : 	CRscDlg::OnDestroy();	

  000c6	8b ce		 mov	 ecx, esi
  000c8	e8 00 00 00 00	 call	 ?OnDestroy@CWnd@@IAEXXZ	; CWnd::OnDestroy

; 159  : }

  000cd	8b 4d f4	 mov	 ecx, DWORD PTR __$EHRec$[ebp]
  000d0	64 89 0d 00 00
	00 00		 mov	 DWORD PTR fs:0, ecx
  000d7	59		 pop	 ecx
  000d8	5e		 pop	 esi
  000d9	8b e5		 mov	 esp, ebp
  000db	5d		 pop	 ebp
  000dc	c3		 ret	 0
_TEXT	ENDS
;	COMDAT text$x
text$x	SEGMENT
__unwindfunclet$?OnDestroy@CLeftBarDlg@@IAEXXZ$0:
  00000	8d 4d f0	 lea	 ecx, DWORD PTR _strTemp$3[ebp]
  00003	ff 25 00 00 00
	00		 jmp	 DWORD PTR __imp_??1?$CStringT@DV?$StrTraitMFC_DLL@DV?$ChTraitsCRT@D@ATL@@@@@ATL@@QAE@XZ
__unwindfunclet$?OnDestroy@CLeftBarDlg@@IAEXXZ$1:
  00009	8d 4d ec	 lea	 ecx, DWORD PTR _strCfgFile$2[ebp]
  0000c	ff 25 00 00 00
	00		 jmp	 DWORD PTR __imp_??1?$CStringT@DV?$StrTraitMFC_DLL@DV?$ChTraitsCRT@D@ATL@@@@@ATL@@QAE@XZ
  00012	cc		 int	 3
  00013	cc		 int	 3
  00014	cc		 int	 3
  00015	cc		 int	 3
  00016	cc		 int	 3
__ehhandler$?OnDestroy@CLeftBarDlg@@IAEXXZ:
  00017	90		 npad	 1
  00018	90		 npad	 1
  00019	8b 54 24 08	 mov	 edx, DWORD PTR [esp+8]
  0001d	8d 42 0c	 lea	 eax, DWORD PTR [edx+12]
  00020	8b 4a f0	 mov	 ecx, DWORD PTR [edx-16]
  00023	33 c8		 xor	 ecx, eax
  00025	e8 00 00 00 00	 call	 @__security_check_cookie@4
  0002a	b8 00 00 00 00	 mov	 eax, OFFSET __ehfuncinfo$?OnDestroy@CLeftBarDlg@@IAEXXZ
  0002f	e9 00 00 00 00	 jmp	 ___CxxFrameHandler3
text$x	ENDS
?OnDestroy@CLeftBarDlg@@IAEXXZ ENDP			; CLeftBarDlg::OnDestroy
; Function compile flags: /Ogtp
; File D:\git\src\IBK\IBK_DRFN\ProjSrc\SrcDrfn\Chart\MULTICHART\LeftBarDlg.cpp
; File C:\Program Files (x86)\Microsoft Visual Studio\2019\Community\VC\Tools\MSVC\14.29.30133\atlmfc\include\afxwin2.inl
; File D:\git\src\IBK\IBK_DRFN\ProjSrc\SrcDrfn\Chart\MULTICHART\LeftBarDlg.cpp
; File C:\Program Files (x86)\Microsoft Visual Studio\2019\Community\VC\Tools\MSVC\14.29.30133\atlmfc\include\afxwin2.inl
; File C:\Program Files (x86)\Microsoft Visual Studio\2019\Community\VC\Tools\MSVC\14.29.30133\atlmfc\include\atltypes.h
; File C:\Program Files (x86)\Microsoft Visual Studio\2019\Community\VC\Tools\MSVC\14.29.30133\atlmfc\include\afxwin2.inl
; File D:\git\src\IBK\IBK_DRFN\ProjSrc\SrcDrfn\Chart\MULTICHART\LeftBarDlg.cpp
; File C:\Program Files (x86)\Microsoft Visual Studio\2019\Community\VC\Tools\MSVC\14.29.30133\atlmfc\include\afxwin2.inl
; File D:\git\src\IBK\IBK_DRFN\ProjSrc\SrcDrfn\Chart\MULTICHART\LeftBarDlg.cpp
; File C:\Program Files (x86)\Microsoft Visual Studio\2019\Community\VC\Tools\MSVC\14.29.30133\atlmfc\include\afxwin2.inl
; File D:\git\src\IBK\IBK_DRFN\ProjSrc\SrcDrfn\Chart\MULTICHART\LeftBarDlg.cpp
;	COMDAT ?OnSize@CLeftBarDlg@@IAEXIHH@Z
_TEXT	SEGMENT
_rect$1 = -20						; size = 16
__$ArrayPad$ = -4					; size = 4
_nType$ = 8						; size = 4
_cx$ = 12						; size = 4
_cy$ = 16						; size = 4
?OnSize@CLeftBarDlg@@IAEXIHH@Z PROC			; CLeftBarDlg::OnSize, COMDAT
; _this$ = ecx

; 103  : {

  00000	55		 push	 ebp
  00001	8b ec		 mov	 ebp, esp
  00003	83 ec 14	 sub	 esp, 20			; 00000014H
  00006	a1 00 00 00 00	 mov	 eax, DWORD PTR ___security_cookie
  0000b	33 c5		 xor	 eax, ebp
  0000d	89 45 fc	 mov	 DWORD PTR __$ArrayPad$[ebp], eax
  00010	56		 push	 esi

; 104  : 	ModifyStyle(0, WS_CLIPCHILDREN);	// turn on CLIPCHILDREN

  00011	6a 00		 push	 0
  00013	68 00 00 00 02	 push	 33554432		; 02000000H
  00018	6a 00		 push	 0
  0001a	8b f1		 mov	 esi, ecx
  0001c	e8 00 00 00 00	 call	 ?ModifyStyle@CWnd@@QAEHKKI@Z ; CWnd::ModifyStyle
; File C:\Program Files (x86)\Microsoft Visual Studio\2019\Community\VC\Tools\MSVC\14.29.30133\atlmfc\include\afxwin2.inl

; 330  : 	{ Default(); }

  00021	8b ce		 mov	 ecx, esi
  00023	e8 00 00 00 00	 call	 ?Default@CWnd@@IAEJXZ	; CWnd::Default
; File D:\git\src\IBK\IBK_DRFN\ProjSrc\SrcDrfn\Chart\MULTICHART\LeftBarDlg.cpp

; 107  : 	if(m_pStdDialog->m_nChartType==2)

  00028	8b 86 dc 01 00
	00		 mov	 eax, DWORD PTR [esi+476]
  0002e	83 b8 c4 07 00
	00 02		 cmp	 DWORD PTR [eax+1988], 2
  00035	74 5a		 je	 SHORT $LN5@OnSize
; File C:\Program Files (x86)\Microsoft Visual Studio\2019\Community\VC\Tools\MSVC\14.29.30133\atlmfc\include\afxwin2.inl

; 86   : 	{ ASSERT(::IsWindow(m_hWnd)); ::GetClientRect(m_hWnd, lpRect); }

  00037	8d 45 ec	 lea	 eax, DWORD PTR _rect$1[ebp]
  0003a	0f 57 c0	 xorps	 xmm0, xmm0
  0003d	50		 push	 eax
  0003e	ff 76 20	 push	 DWORD PTR [esi+32]
; File C:\Program Files (x86)\Microsoft Visual Studio\2019\Community\VC\Tools\MSVC\14.29.30133\atlmfc\include\atltypes.h

; 528  : 	left = 0;

  00041	0f 11 45 ec	 movups	 XMMWORD PTR _rect$1[ebp], xmm0
; File C:\Program Files (x86)\Microsoft Visual Studio\2019\Community\VC\Tools\MSVC\14.29.30133\atlmfc\include\afxwin2.inl

; 86   : 	{ ASSERT(::IsWindow(m_hWnd)); ::GetClientRect(m_hWnd, lpRect); }

  00045	ff 15 00 00 00
	00		 call	 DWORD PTR __imp__GetClientRect@8
; File D:\git\src\IBK\IBK_DRFN\ProjSrc\SrcDrfn\Chart\MULTICHART\LeftBarDlg.cpp

; 117  : 		if(m_pStdDialog->GetLeftBarType() == 0)

  0004b	8b 86 dc 01 00
	00		 mov	 eax, DWORD PTR [esi+476]
  00051	8b 4d f4	 mov	 ecx, DWORD PTR _rect$1[ebp+8]
  00054	c7 45 f0 01 00
	00 00		 mov	 DWORD PTR _rect$1[ebp+4], 1
  0005b	83 b8 9c 12 00
	00 00		 cmp	 DWORD PTR [eax+4764], 0
  00062	75 06		 jne	 SHORT $LN4@OnSize

; 118  : 			rect.right -= 2;

  00064	83 e9 02	 sub	 ecx, 2
  00067	89 4d f4	 mov	 DWORD PTR _rect$1[ebp+8], ecx
$LN4@OnSize:

; 120  : 		if(m_tabctrl.GetSafeHwnd())

  0006a	8d 96 c0 00 00
	00		 lea	 edx, DWORD PTR [esi+192]
; File C:\Program Files (x86)\Microsoft Visual Studio\2019\Community\VC\Tools\MSVC\14.29.30133\atlmfc\include\afxwin2.inl

; 25   : 	{ return this == NULL ? NULL : m_hWnd; }

  00070	85 d2		 test	 edx, edx
  00072	74 1d		 je	 SHORT $LN5@OnSize
; File D:\git\src\IBK\IBK_DRFN\ProjSrc\SrcDrfn\Chart\MULTICHART\LeftBarDlg.cpp

; 120  : 		if(m_tabctrl.GetSafeHwnd())

  00074	83 7a 20 00	 cmp	 DWORD PTR [edx+32], 0
  00078	74 17		 je	 SHORT $LN5@OnSize
; File C:\Program Files (x86)\Microsoft Visual Studio\2019\Community\VC\Tools\MSVC\14.29.30133\atlmfc\include\afxwin2.inl

; 73   : 	{ MoveWindow(lpRect->left, lpRect->top, lpRect->right - lpRect->left,

  0007a	8b 45 f8	 mov	 eax, DWORD PTR _rect$1[ebp+12]
  0007d	6a 01		 push	 1
  0007f	48		 dec	 eax
  00080	50		 push	 eax
  00081	8b 45 ec	 mov	 eax, DWORD PTR _rect$1[ebp]
  00084	2b c8		 sub	 ecx, eax
  00086	51		 push	 ecx
  00087	6a 01		 push	 1
  00089	50		 push	 eax
  0008a	8b ca		 mov	 ecx, edx
  0008c	e8 00 00 00 00	 call	 ?MoveWindow@CWnd@@QAEXHHHHH@Z ; CWnd::MoveWindow
$LN5@OnSize:
; File D:\git\src\IBK\IBK_DRFN\ProjSrc\SrcDrfn\Chart\MULTICHART\LeftBarDlg.cpp

; 125  : 	ModifyStyle(WS_CLIPCHILDREN, 0);	// turn off CLIPCHILDREN

  00091	6a 00		 push	 0
  00093	6a 00		 push	 0
  00095	68 00 00 00 02	 push	 33554432		; 02000000H
  0009a	8b ce		 mov	 ecx, esi
  0009c	e8 00 00 00 00	 call	 ?ModifyStyle@CWnd@@QAEHKKI@Z ; CWnd::ModifyStyle

; 126  : }

  000a1	8b 4d fc	 mov	 ecx, DWORD PTR __$ArrayPad$[ebp]
  000a4	33 cd		 xor	 ecx, ebp
  000a6	5e		 pop	 esi
  000a7	e8 00 00 00 00	 call	 @__security_check_cookie@4
  000ac	8b e5		 mov	 esp, ebp
  000ae	5d		 pop	 ebp
  000af	c2 0c 00	 ret	 12			; 0000000cH
?OnSize@CLeftBarDlg@@IAEXIHH@Z ENDP			; CLeftBarDlg::OnSize
_TEXT	ENDS
; Function compile flags: /Ogtp
; File D:\git\src\IBK\IBK_DRFN\ProjSrc\SrcDrfn\Chart\MULTICHART\LeftBarDlg.cpp
; File C:\Program Files (x86)\Microsoft Visual Studio\2019\Community\VC\Tools\MSVC\14.29.30133\atlmfc\include\afxwin2.inl
; File C:\Program Files (x86)\Microsoft Visual Studio\2019\Community\VC\Tools\MSVC\14.29.30133\atlmfc\include\afxwin1.inl
; File D:\git\src\IBK\IBK_DRFN\ProjSrc\SrcDrfn\Chart\MULTICHART\LeftBarDlg.cpp
; File C:\Program Files (x86)\Microsoft Visual Studio\2019\Community\VC\Tools\MSVC\14.29.30133\atlmfc\include\afxwin1.inl
; File D:\git\src\IBK\IBK_DRFN\ProjSrc\SrcDrfn\Chart\MULTICHART\LeftBarDlg.cpp
; File C:\Program Files (x86)\Microsoft Visual Studio\2019\Community\VC\Tools\MSVC\14.29.30133\atlmfc\include\afxwin1.inl
; File D:\git\src\IBK\IBK_DRFN\ProjSrc\SrcDrfn\Chart\MULTICHART\LeftBarDlg.cpp
; File C:\Program Files (x86)\Microsoft Visual Studio\2019\Community\VC\Tools\MSVC\14.29.30133\atlmfc\include\afxwin2.inl
; File D:\git\src\IBK\IBK_DRFN\ProjSrc\SrcDrfn\Chart\MULTICHART\LeftBarDlg.cpp
; File C:\Program Files (x86)\Microsoft Visual Studio\2019\Community\VC\Tools\MSVC\14.29.30133\atlmfc\include\afxwin2.inl
; File D:\git\src\IBK\IBK_DRFN\ProjSrc\SrcDrfn\Chart\MULTICHART\LeftBarDlg.cpp
; File C:\Program Files (x86)\Microsoft Visual Studio\2019\Community\VC\Tools\MSVC\14.29.30133\atlmfc\include\afxcmn.inl
; File D:\git\src\IBK\IBK_DRFN\ProjSrc\SrcDrfn\Chart\MULTICHART\LeftBarDlg.cpp
; File C:\Program Files (x86)\Microsoft Visual Studio\2019\Community\VC\Tools\MSVC\14.29.30133\atlmfc\include\afxcmn.inl
; File D:\git\src\IBK\IBK_DRFN\ProjSrc\SrcDrfn\Chart\MULTICHART\LeftBarDlg.cpp
;	COMDAT ?OnInitDialog@CLeftBarDlg@@MAEHXZ
_TEXT	SEGMENT
_strImageUp$ = -20					; size = 4
_strImageDown$ = -16					; size = 4
__$EHRec$ = -12						; size = 12
?OnInitDialog@CLeftBarDlg@@MAEHXZ PROC			; CLeftBarDlg::OnInitDialog, COMDAT
; _this$ = ecx

; 78   : {

  00000	55		 push	 ebp
  00001	8b ec		 mov	 ebp, esp
  00003	6a ff		 push	 -1
  00005	68 00 00 00 00	 push	 __ehhandler$?OnInitDialog@CLeftBarDlg@@MAEHXZ
  0000a	64 a1 00 00 00
	00		 mov	 eax, DWORD PTR fs:0
  00010	50		 push	 eax
  00011	83 ec 08	 sub	 esp, 8
  00014	53		 push	 ebx
  00015	56		 push	 esi
  00016	57		 push	 edi
  00017	a1 00 00 00 00	 mov	 eax, DWORD PTR ___security_cookie
  0001c	33 c5		 xor	 eax, ebp
  0001e	50		 push	 eax
  0001f	8d 45 f4	 lea	 eax, DWORD PTR __$EHRec$[ebp]
  00022	64 a3 00 00 00
	00		 mov	 DWORD PTR fs:0, eax
  00028	8b f1		 mov	 esi, ecx

; 79   : 	CRscDlg::OnInitDialog();	

  0002a	e8 00 00 00 00	 call	 ?OnInitDialog@CDialog@@UAEHXZ ; CDialog::OnInitDialog

; 80   : 
; 81   : 	m_strRootPath = m_pStdDialog->m_strRootPath;

  0002f	8b 86 dc 01 00
	00		 mov	 eax, DWORD PTR [esi+476]
  00035	8d 8e a8 01 00
	00		 lea	 ecx, DWORD PTR [esi+424]
  0003b	05 b0 07 00 00	 add	 eax, 1968		; 000007b0H
  00040	50		 push	 eax
  00041	ff 15 00 00 00
	00		 call	 DWORD PTR __imp_??4?$CStringT@DV?$StrTraitMFC_DLL@DV?$ChTraitsCRT@D@ATL@@@@@ATL@@QAEAAV01@ABV01@@Z

; 82   : 	m_szImageDir = m_pStdDialog->m_szImageDir;

  00047	8b 86 dc 01 00
	00		 mov	 eax, DWORD PTR [esi+476]
  0004d	8d 8e ac 01 00
	00		 lea	 ecx, DWORD PTR [esi+428]
  00053	05 ac 07 00 00	 add	 eax, 1964		; 000007acH
  00058	50		 push	 eax
  00059	ff 15 00 00 00
	00		 call	 DWORD PTR __imp_??4?$CStringT@DV?$StrTraitMFC_DLL@DV?$ChTraitsCRT@D@ATL@@@@@ATL@@QAEAAV01@ABV01@@Z

; 84   : 	m_clrBk = (COLORREF)m_pStdDialog->SendMessage(RMSG_GET_SKINCOLOR, (WPARAM)0);

  0005f	8b 86 dc 01 00
	00		 mov	 eax, DWORD PTR [esi+476]
; File C:\Program Files (x86)\Microsoft Visual Studio\2019\Community\VC\Tools\MSVC\14.29.30133\atlmfc\include\afxwin2.inl

; 32   : 	{ ASSERT(::IsWindow(m_hWnd)); return ::SendMessage(m_hWnd, message, wParam, lParam); }

  00065	8b 1d 00 00 00
	00		 mov	 ebx, DWORD PTR __imp__SendMessageA@16
  0006b	6a 00		 push	 0
  0006d	6a 00		 push	 0
  0006f	ff 35 00 00 00
	00		 push	 DWORD PTR ?RMSG_GET_SKINCOLOR@@3IB
  00075	ff 70 20	 push	 DWORD PTR [eax+32]
  00078	ff d3		 call	 ebx
; File C:\Program Files (x86)\Microsoft Visual Studio\2019\Community\VC\Tools\MSVC\14.29.30133\atlmfc\include\afxwin1.inl

; 132  : 	{ return Attach(::CreateSolidBrush(crColor)); }

  0007a	50		 push	 eax
; File D:\git\src\IBK\IBK_DRFN\ProjSrc\SrcDrfn\Chart\MULTICHART\LeftBarDlg.cpp

; 84   : 	m_clrBk = (COLORREF)m_pStdDialog->SendMessage(RMSG_GET_SKINCOLOR, (WPARAM)0);

  0007b	89 86 b8 01 00
	00		 mov	 DWORD PTR [esi+440], eax
; File C:\Program Files (x86)\Microsoft Visual Studio\2019\Community\VC\Tools\MSVC\14.29.30133\atlmfc\include\afxwin1.inl

; 132  : 	{ return Attach(::CreateSolidBrush(crColor)); }

  00081	ff 15 00 00 00
	00		 call	 DWORD PTR __imp__CreateSolidBrush@4
  00087	50		 push	 eax
; File D:\git\src\IBK\IBK_DRFN\ProjSrc\SrcDrfn\Chart\MULTICHART\LeftBarDlg.cpp

; 85   : 	m_brBkColor.CreateSolidBrush(m_clrBk);	//RGB(222,222,222));

  00088	8d 8e b0 01 00
	00		 lea	 ecx, DWORD PTR [esi+432]
; File C:\Program Files (x86)\Microsoft Visual Studio\2019\Community\VC\Tools\MSVC\14.29.30133\atlmfc\include\afxwin1.inl

; 132  : 	{ return Attach(::CreateSolidBrush(crColor)); }

  0008e	e8 00 00 00 00	 call	 ?Attach@CGdiObject@@QAEHPAX@Z ; CGdiObject::Attach
; File D:\git\src\IBK\IBK_DRFN\ProjSrc\SrcDrfn\Chart\MULTICHART\LeftBarDlg.cpp

; 86   : 	CString strImageUp;

  00093	8d 4d ec	 lea	 ecx, DWORD PTR _strImageUp$[ebp]
  00096	ff 15 00 00 00
	00		 call	 DWORD PTR __imp_??0?$CStringT@DV?$StrTraitMFC_DLL@DV?$ChTraitsCRT@D@ATL@@@@@ATL@@QAE@XZ

; 87   : 	CString strImageDown;

  0009c	8d 4d f0	 lea	 ecx, DWORD PTR _strImageDown$[ebp]
  0009f	c7 45 fc 00 00
	00 00		 mov	 DWORD PTR __$EHRec$[ebp+8], 0
  000a6	ff 15 00 00 00
	00		 call	 DWORD PTR __imp_??0?$CStringT@DV?$StrTraitMFC_DLL@DV?$ChTraitsCRT@D@ATL@@@@@ATL@@QAE@XZ

; 89   : 	if( m_tabctrl.GetSafeHwnd() && ::IsWindow(m_tabctrl.GetSafeHwnd()) )

  000ac	8d be c0 00 00
	00		 lea	 edi, DWORD PTR [esi+192]
  000b2	c6 45 fc 01	 mov	 BYTE PTR __$EHRec$[ebp+8], 1
; File C:\Program Files (x86)\Microsoft Visual Studio\2019\Community\VC\Tools\MSVC\14.29.30133\atlmfc\include\afxwin2.inl

; 25   : 	{ return this == NULL ? NULL : m_hWnd; }

  000b6	85 ff		 test	 edi, edi
  000b8	74 66		 je	 SHORT $LN3@OnInitDial
  000ba	8b 47 20	 mov	 eax, DWORD PTR [edi+32]
; File D:\git\src\IBK\IBK_DRFN\ProjSrc\SrcDrfn\Chart\MULTICHART\LeftBarDlg.cpp

; 89   : 	if( m_tabctrl.GetSafeHwnd() && ::IsWindow(m_tabctrl.GetSafeHwnd()) )

  000bd	85 c0		 test	 eax, eax
  000bf	74 5f		 je	 SHORT $LN3@OnInitDial
  000c1	50		 push	 eax
  000c2	ff 15 00 00 00
	00		 call	 DWORD PTR __imp__IsWindow@4
  000c8	85 c0		 test	 eax, eax
  000ca	74 54		 je	 SHORT $LN3@OnInitDial
; File C:\Program Files (x86)\Microsoft Visual Studio\2019\Community\VC\Tools\MSVC\14.29.30133\atlmfc\include\afxwin2.inl

; 213  : 	{ ASSERT(::IsWindow(m_hWnd)); return CWnd::FromHandle(::GetParent(m_hWnd)); }

  000cc	ff 76 20	 push	 DWORD PTR [esi+32]
  000cf	ff 15 00 00 00
	00		 call	 DWORD PTR __imp__GetParent@4
  000d5	50		 push	 eax
  000d6	e8 00 00 00 00	 call	 ?FromHandle@CWnd@@SGPAV1@PAUHWND__@@@Z ; CWnd::FromHandle
; File D:\git\src\IBK\IBK_DRFN\ProjSrc\SrcDrfn\Chart\MULTICHART\LeftBarDlg.cpp

; 91   : 		m_tabctrl.Init(GetParent(),m_pChartMng, m_nMarketType);

  000db	ff b6 a8 00 00
	00		 push	 DWORD PTR [esi+168]
  000e1	8b cf		 mov	 ecx, edi
  000e3	ff b6 e0 01 00
	00		 push	 DWORD PTR [esi+480]
  000e9	50		 push	 eax
  000ea	e8 00 00 00 00	 call	 ?Init@CXTabCtrl@@QAEXPAVCWnd@@0H@Z ; CXTabCtrl::Init

; 92   : 		m_tabctrl.SetTopLeftCorner(CPoint(2,20));

  000ef	6a 14		 push	 20			; 00000014H
  000f1	6a 02		 push	 2
  000f3	8b cf		 mov	 ecx, edi
  000f5	e8 00 00 00 00	 call	 ?SetTopLeftCorner@CXTabCtrl@@QAEXVCPoint@@@Z ; CXTabCtrl::SetTopLeftCorner
; File C:\Program Files (x86)\Microsoft Visual Studio\2019\Community\VC\Tools\MSVC\14.29.30133\atlmfc\include\afxcmn.inl

; 564  : 	{ ASSERT(::IsWindow(m_hWnd)); return (int)::SendMessage(m_hWnd, TCM_GETITEMCOUNT, 0, 0L); }

  000fa	6a 00		 push	 0
  000fc	6a 00		 push	 0
  000fe	68 04 13 00 00	 push	 4868			; 00001304H
  00103	ff b6 e0 00 00
	00		 push	 DWORD PTR [esi+224]
  00109	ff d3		 call	 ebx
; File D:\git\src\IBK\IBK_DRFN\ProjSrc\SrcDrfn\Chart\MULTICHART\LeftBarDlg.cpp

; 94   : 		if( m_tabctrl.GetItemCount() > 0 )

  0010b	85 c0		 test	 eax, eax
  0010d	7e 11		 jle	 SHORT $LN3@OnInitDial
; File C:\Program Files (x86)\Microsoft Visual Studio\2019\Community\VC\Tools\MSVC\14.29.30133\atlmfc\include\afxcmn.inl

; 588  : 	{ ASSERT(::IsWindow(m_hWnd)); return (int)::SendMessage(m_hWnd, TCM_SETCURSEL, nItem, 0L); }

  0010f	6a 00		 push	 0
  00111	6a 00		 push	 0
  00113	68 0c 13 00 00	 push	 4876			; 0000130cH
  00118	ff b6 e0 00 00
	00		 push	 DWORD PTR [esi+224]
  0011e	ff d3		 call	 ebx
$LN3@OnInitDial:
; File D:\git\src\IBK\IBK_DRFN\ProjSrc\SrcDrfn\Chart\MULTICHART\LeftBarDlg.cpp

; 97   : 	return TRUE;  // return TRUE unless you set the focus to a control

  00120	8d 4d f0	 lea	 ecx, DWORD PTR _strImageDown$[ebp]
  00123	ff 15 00 00 00
	00		 call	 DWORD PTR __imp_??1?$CStringT@DV?$StrTraitMFC_DLL@DV?$ChTraitsCRT@D@ATL@@@@@ATL@@QAE@XZ
  00129	8d 4d ec	 lea	 ecx, DWORD PTR _strImageUp$[ebp]
  0012c	ff 15 00 00 00
	00		 call	 DWORD PTR __imp_??1?$CStringT@DV?$StrTraitMFC_DLL@DV?$ChTraitsCRT@D@ATL@@@@@ATL@@QAE@XZ
  00132	b8 01 00 00 00	 mov	 eax, 1

; 98   : 	              // EXCEPTION: OCX Property Pages should return FALSE
; 99   : }

  00137	8b 4d f4	 mov	 ecx, DWORD PTR __$EHRec$[ebp]
  0013a	64 89 0d 00 00
	00 00		 mov	 DWORD PTR fs:0, ecx
  00141	59		 pop	 ecx
  00142	5f		 pop	 edi
  00143	5e		 pop	 esi
  00144	5b		 pop	 ebx
  00145	8b e5		 mov	 esp, ebp
  00147	5d		 pop	 ebp
  00148	c3		 ret	 0
_TEXT	ENDS
;	COMDAT text$x
text$x	SEGMENT
__unwindfunclet$?OnInitDialog@CLeftBarDlg@@MAEHXZ$0:
  00000	8d 4d ec	 lea	 ecx, DWORD PTR _strImageUp$[ebp]
  00003	ff 25 00 00 00
	00		 jmp	 DWORD PTR __imp_??1?$CStringT@DV?$StrTraitMFC_DLL@DV?$ChTraitsCRT@D@ATL@@@@@ATL@@QAE@XZ
__unwindfunclet$?OnInitDialog@CLeftBarDlg@@MAEHXZ$1:
  00009	8d 4d f0	 lea	 ecx, DWORD PTR _strImageDown$[ebp]
  0000c	ff 25 00 00 00
	00		 jmp	 DWORD PTR __imp_??1?$CStringT@DV?$StrTraitMFC_DLL@DV?$ChTraitsCRT@D@ATL@@@@@ATL@@QAE@XZ
  00012	cc		 int	 3
  00013	cc		 int	 3
  00014	cc		 int	 3
  00015	cc		 int	 3
  00016	cc		 int	 3
__ehhandler$?OnInitDialog@CLeftBarDlg@@MAEHXZ:
  00017	90		 npad	 1
  00018	90		 npad	 1
  00019	8b 54 24 08	 mov	 edx, DWORD PTR [esp+8]
  0001d	8d 42 0c	 lea	 eax, DWORD PTR [edx+12]
  00020	8b 4a e8	 mov	 ecx, DWORD PTR [edx-24]
  00023	33 c8		 xor	 ecx, eax
  00025	e8 00 00 00 00	 call	 @__security_check_cookie@4
  0002a	b8 00 00 00 00	 mov	 eax, OFFSET __ehfuncinfo$?OnInitDialog@CLeftBarDlg@@MAEHXZ
  0002f	e9 00 00 00 00	 jmp	 ___CxxFrameHandler3
text$x	ENDS
?OnInitDialog@CLeftBarDlg@@MAEHXZ ENDP			; CLeftBarDlg::OnInitDialog
; Function compile flags: /Ogtp
; File D:\git\src\IBK\IBK_DRFN\ProjSrc\SrcDrfn\Chart\MULTICHART\LeftBarDlg.cpp
; File D:\git\src\IBK\IBK_DRFN\ProjSrc\SrcDrfn\Chart\MULTICHART\RegFavoriteDlg.h
; File D:\git\src\IBK\IBK_DRFN\ProjSrc\SrcDrfn\Chart\MULTICHART\LeftBarDlg.cpp
; File D:\git\src\IBK\IBK_DRFN\ProjSrc\SrcDrfn\Chart\MULTICHART\RegFavoriteDlg.h
; File D:\git\src\IBK\IBK_DRFN\ProjSrc\SrcDrfn\Chart\MULTICHART\LeftBarDlg.cpp
; File C:\Program Files (x86)\Microsoft Visual Studio\2019\Community\VC\Tools\MSVC\14.29.30133\atlmfc\include\afxwin2.inl
; File D:\git\src\IBK\IBK_DRFN\ProjSrc\SrcDrfn\Chart\MULTICHART\LeftBarDlg.cpp
; File C:\Program Files (x86)\Microsoft Visual Studio\2019\Community\VC\Tools\MSVC\14.29.30133\atlmfc\include\afxwin2.inl
; File D:\git\src\IBK\IBK_DRFN\ProjSrc\SrcDrfn\Chart\MULTICHART\LeftBarDlg.cpp
;	COMDAT ?WindowProc@CLeftBarDlg@@MAEJIIJ@Z
_TEXT	SEGMENT
_dlg$2 = -324						; size = 312
__$EHRec$ = -12						; size = 12
_message$ = 8						; size = 4
_wParam$ = 12						; size = 4
_lParam$ = 16						; size = 4
?WindowProc@CLeftBarDlg@@MAEJIIJ@Z PROC			; CLeftBarDlg::WindowProc, COMDAT
; _this$ = ecx

; 217  : {

  00000	55		 push	 ebp
  00001	8b ec		 mov	 ebp, esp
  00003	6a ff		 push	 -1
  00005	68 00 00 00 00	 push	 __ehhandler$?WindowProc@CLeftBarDlg@@MAEJIIJ@Z
  0000a	64 a1 00 00 00
	00		 mov	 eax, DWORD PTR fs:0
  00010	50		 push	 eax
  00011	81 ec 38 01 00
	00		 sub	 esp, 312		; 00000138H
  00017	53		 push	 ebx
  00018	56		 push	 esi
  00019	57		 push	 edi
  0001a	a1 00 00 00 00	 mov	 eax, DWORD PTR ___security_cookie
  0001f	33 c5		 xor	 eax, ebp
  00021	50		 push	 eax
  00022	8d 45 f4	 lea	 eax, DWORD PTR __$EHRec$[ebp]
  00025	64 a3 00 00 00
	00		 mov	 DWORD PTR fs:0, eax
  0002b	8b f1		 mov	 esi, ecx

; 218  : 	// TODO: Add your specialized code here and/or call the base class
; 219  : 	switch(message)

  0002d	8b 4d 08	 mov	 ecx, DWORD PTR _message$[ebp]
  00030	8b 7d 10	 mov	 edi, DWORD PTR _lParam$[ebp]
  00033	8b 5d 0c	 mov	 ebx, DWORD PTR _wParam$[ebp]
  00036	8d 81 f7 fb ff
	ff		 lea	 eax, DWORD PTR [ecx-1033]
  0003c	3d d4 00 00 00	 cmp	 eax, 212		; 000000d4H
  00041	0f 87 38 01 00
	00		 ja	 $LN23@WindowProc
  00047	0f b6 80 00 00
	00 00		 movzx	 eax, BYTE PTR $LN100@WindowProc[eax]
  0004e	ff 24 85 00 00
	00 00		 jmp	 DWORD PTR $LN101@WindowProc[eax*4]
$LN4@WindowProc:

; 220  : 	{
; 221  : 	case UMSG_SHOWREGFAVORITEDLG:
; 222  : 		{
; 223  : 			CRegFavoriteDlg dlg;

  00055	6a 00		 push	 0
  00057	8d 8d bc fe ff
	ff		 lea	 ecx, DWORD PTR _dlg$2[ebp]
  0005d	e8 00 00 00 00	 call	 ??0CRegFavoriteDlg@@QAE@PAVCWnd@@@Z ; CRegFavoriteDlg::CRegFavoriteDlg
; File D:\git\src\IBK\IBK_DRFN\ProjSrc\SrcDrfn\Chart\MULTICHART\RegFavoriteDlg.h

; 25   : 	void SetFavoriteThingsMng(CFavoriteThingsMng *pMng,long pFvrData) { m_pFavoriteMng = pMng; m_pFvrData = (stFvrData*)pFvrData; }

  00062	8b 86 bc 01 00
	00		 mov	 eax, DWORD PTR [esi+444]
; File D:\git\src\IBK\IBK_DRFN\ProjSrc\SrcDrfn\Chart\MULTICHART\LeftBarDlg.cpp

; 226  : 			dlg.DoModal();

  00068	8d 8d bc fe ff
	ff		 lea	 ecx, DWORD PTR _dlg$2[ebp]
  0006e	c7 45 fc 00 00
	00 00		 mov	 DWORD PTR __$EHRec$[ebp+8], 0
  00075	89 9d 68 ff ff
	ff		 mov	 DWORD PTR _dlg$2[ebp+172], ebx
; File D:\git\src\IBK\IBK_DRFN\ProjSrc\SrcDrfn\Chart\MULTICHART\RegFavoriteDlg.h

; 25   : 	void SetFavoriteThingsMng(CFavoriteThingsMng *pMng,long pFvrData) { m_pFavoriteMng = pMng; m_pFvrData = (stFvrData*)pFvrData; }

  0007b	89 45 ec	 mov	 DWORD PTR _dlg$2[ebp+304], eax
  0007e	89 7d f0	 mov	 DWORD PTR _dlg$2[ebp+308], edi
; File D:\git\src\IBK\IBK_DRFN\ProjSrc\SrcDrfn\Chart\MULTICHART\LeftBarDlg.cpp

; 226  : 			dlg.DoModal();

  00081	e8 00 00 00 00	 call	 ?DoModal@CRscDlg@@UAEHXZ ; CRscDlg::DoModal
  00086	8d 8d 6c ff ff
	ff		 lea	 ecx, DWORD PTR _dlg$2[ebp+176]

; 227  : 		}

  0008c	c7 45 fc ff ff
	ff ff		 mov	 DWORD PTR __$EHRec$[ebp+8], -1
  00093	e8 00 00 00 00	 call	 ??1CListBox@@UAE@XZ	; CListBox::~CListBox
  00098	8d 8d bc fe ff
	ff		 lea	 ecx, DWORD PTR _dlg$2[ebp]
  0009e	e8 00 00 00 00	 call	 ??1CDialog@@UAE@XZ	; CDialog::~CDialog

; 285  : 	case UMSG_RUN_AUTOTIMER:
; 286  : 		{
; 287  : 			if( m_tabctrl.GetSafeHwnd() )
; 288  : 			{
; 289  : 				CTabDlg *pTabCodeSearch = m_tabctrl.GetWndCodeSearch();
; 290  : 				if(pTabCodeSearch && pTabCodeSearch->GetSafeHwnd())
; 291  : 				{
; 292  : 					pTabCodeSearch->SendMessage(message, wParam, lParam);
; 293  : 				}
; 294  : 			}
; 295  : 		}
; 296  : 		break;
; 297  : 	case UMSG_IS_PLAYSTATE:
; 298  : 		{
; 299  : 			if( m_tabctrl.GetSafeHwnd() )
; 300  : 			{
; 301  : 				CTabDlg *pTabCodeSearch = m_tabctrl.GetWndCodeSearch();
; 302  : 				if(pTabCodeSearch && pTabCodeSearch->GetSafeHwnd())
; 303  : 				{
; 304  : 					pTabCodeSearch->SendMessage(message, wParam, lParam);
; 305  : 				}
; 306  : 			}
; 307  : 		}
; 308  : 		break;
; 309  : 	}
; 310  : 	return CRscDlg::WindowProc(message, wParam, lParam);

  000a3	e9 d7 00 00 00	 jmp	 $LN23@WindowProc
$LN5@WindowProc:
  000a8	8d 86 c0 00 00
	00		 lea	 eax, DWORD PTR [esi+192]
  000ae	85 c0		 test	 eax, eax
  000b0	0f 84 c9 00 00
	00		 je	 $LN23@WindowProc
  000b6	83 78 20 00	 cmp	 DWORD PTR [eax+32], 0
  000ba	0f 84 bf 00 00
	00		 je	 $LN23@WindowProc
  000c0	8b 86 98 01 00
	00		 mov	 eax, DWORD PTR [esi+408]
  000c6	8b 15 00 00 00
	00		 mov	 edx, DWORD PTR __imp__SendMessageA@16
  000cc	85 c0		 test	 eax, eax
  000ce	74 16		 je	 SHORT $LN7@WindowProc
  000d0	8b 40 20	 mov	 eax, DWORD PTR [eax+32]
  000d3	85 c0		 test	 eax, eax
  000d5	74 0f		 je	 SHORT $LN7@WindowProc
  000d7	57		 push	 edi
  000d8	53		 push	 ebx
  000d9	51		 push	 ecx
  000da	50		 push	 eax
  000db	ff d2		 call	 edx
  000dd	8b 4d 08	 mov	 ecx, DWORD PTR _message$[ebp]
  000e0	8b 15 00 00 00
	00		 mov	 edx, DWORD PTR __imp__SendMessageA@16
$LN7@WindowProc:
  000e6	8b 86 9c 01 00
	00		 mov	 eax, DWORD PTR [esi+412]
  000ec	85 c0		 test	 eax, eax
  000ee	0f 84 8b 00 00
	00		 je	 $LN23@WindowProc
  000f4	8b 40 20	 mov	 eax, DWORD PTR [eax+32]
  000f7	85 c0		 test	 eax, eax
  000f9	0f 84 80 00 00
	00		 je	 $LN23@WindowProc
  000ff	57		 push	 edi
  00100	53		 push	 ebx
  00101	51		 push	 ecx
  00102	50		 push	 eax
  00103	ff d2		 call	 edx
  00105	eb 78		 jmp	 SHORT $LN23@WindowProc
$LN13@WindowProc:
; File C:\Program Files (x86)\Microsoft Visual Studio\2019\Community\VC\Tools\MSVC\14.29.30133\atlmfc\include\afxwin2.inl

; 213  : 	{ ASSERT(::IsWindow(m_hWnd)); return CWnd::FromHandle(::GetParent(m_hWnd)); }

  00107	ff 76 20	 push	 DWORD PTR [esi+32]
  0010a	ff 15 00 00 00
	00		 call	 DWORD PTR __imp__GetParent@4
  00110	50		 push	 eax
  00111	e8 00 00 00 00	 call	 ?FromHandle@CWnd@@SGPAV1@PAUHWND__@@@Z ; CWnd::FromHandle

; 32   : 	{ ASSERT(::IsWindow(m_hWnd)); return ::SendMessage(m_hWnd, message, wParam, lParam); }

  00116	57		 push	 edi
  00117	53		 push	 ebx
  00118	68 3d 04 00 00	 push	 1085			; 0000043dH
  0011d	ff 70 20	 push	 DWORD PTR [eax+32]
; File D:\git\src\IBK\IBK_DRFN\ProjSrc\SrcDrfn\Chart\MULTICHART\LeftBarDlg.cpp

; 267  : 		break;

  00120	eb 57		 jmp	 SHORT $LN103@WindowProc
$LN14@WindowProc:

; 268  : 	case UMSG_GETFAVORITETHINGSMNG:
; 269  : 		{
; 270  : 			return (LRESULT)m_pFavoriteMng;

  00122	8b 86 bc 01 00
	00		 mov	 eax, DWORD PTR [esi+444]

; 311  : }

  00128	8b 4d f4	 mov	 ecx, DWORD PTR __$EHRec$[ebp]
  0012b	64 89 0d 00 00
	00 00		 mov	 DWORD PTR fs:0, ecx
  00132	59		 pop	 ecx
  00133	5f		 pop	 edi
  00134	5e		 pop	 esi
  00135	5b		 pop	 ebx
  00136	8b e5		 mov	 esp, ebp
  00138	5d		 pop	 ebp
  00139	c2 0c 00	 ret	 12			; 0000000cH
$LN15@WindowProc:

; 275  : 			if( m_tabctrl.GetSafeHwnd() )

  0013c	8d 86 c0 00 00
	00		 lea	 eax, DWORD PTR [esi+192]
; File C:\Program Files (x86)\Microsoft Visual Studio\2019\Community\VC\Tools\MSVC\14.29.30133\atlmfc\include\afxwin2.inl

; 25   : 	{ return this == NULL ? NULL : m_hWnd; }

  00142	85 c0		 test	 eax, eax
  00144	74 39		 je	 SHORT $LN23@WindowProc
; File D:\git\src\IBK\IBK_DRFN\ProjSrc\SrcDrfn\Chart\MULTICHART\LeftBarDlg.cpp

; 275  : 			if( m_tabctrl.GetSafeHwnd() )

  00146	83 78 20 00	 cmp	 DWORD PTR [eax+32], 0
  0014a	74 33		 je	 SHORT $LN23@WindowProc

; 276  : 			{
; 277  : 				CWnd *pWnd = m_tabctrl.GetWndFocused();

  0014c	8b 86 98 01 00
	00		 mov	 eax, DWORD PTR [esi+408]

; 278  : 				if(pWnd && pWnd->GetSafeHwnd())
; 279  : 				{
; 280  : 					pWnd->SendMessage(message,wParam,lParam);
; 281  : 				}	
; 282  : 			}
; 283  : 		}
; 284  : 		break;

  00152	eb 16		 jmp	 SHORT $LN106@WindowProc
$LN21@WindowProc:

; 285  : 	case UMSG_RUN_AUTOTIMER:
; 286  : 		{
; 287  : 			if( m_tabctrl.GetSafeHwnd() )
; 288  : 			{
; 289  : 				CTabDlg *pTabCodeSearch = m_tabctrl.GetWndCodeSearch();
; 290  : 				if(pTabCodeSearch && pTabCodeSearch->GetSafeHwnd())
; 291  : 				{
; 292  : 					pTabCodeSearch->SendMessage(message, wParam, lParam);
; 293  : 				}
; 294  : 			}
; 295  : 		}
; 296  : 		break;
; 297  : 	case UMSG_IS_PLAYSTATE:
; 298  : 		{
; 299  : 			if( m_tabctrl.GetSafeHwnd() )
; 300  : 			{
; 301  : 				CTabDlg *pTabCodeSearch = m_tabctrl.GetWndCodeSearch();
; 302  : 				if(pTabCodeSearch && pTabCodeSearch->GetSafeHwnd())
; 303  : 				{
; 304  : 					pTabCodeSearch->SendMessage(message, wParam, lParam);
; 305  : 				}
; 306  : 			}
; 307  : 		}
; 308  : 		break;
; 309  : 	}
; 310  : 	return CRscDlg::WindowProc(message, wParam, lParam);

  00154	8d 86 c0 00 00
	00		 lea	 eax, DWORD PTR [esi+192]
  0015a	85 c0		 test	 eax, eax
  0015c	74 21		 je	 SHORT $LN23@WindowProc
  0015e	83 78 20 00	 cmp	 DWORD PTR [eax+32], 0
  00162	74 1b		 je	 SHORT $LN23@WindowProc
  00164	8b 86 9c 01 00
	00		 mov	 eax, DWORD PTR [esi+412]
$LN106@WindowProc:
  0016a	85 c0		 test	 eax, eax
  0016c	74 11		 je	 SHORT $LN23@WindowProc
  0016e	8b 40 20	 mov	 eax, DWORD PTR [eax+32]
  00171	85 c0		 test	 eax, eax
  00173	74 0a		 je	 SHORT $LN23@WindowProc
  00175	57		 push	 edi
  00176	53		 push	 ebx
  00177	51		 push	 ecx
  00178	50		 push	 eax
$LN103@WindowProc:
  00179	ff 15 00 00 00
	00		 call	 DWORD PTR __imp__SendMessageA@16
$LN23@WindowProc:
  0017f	57		 push	 edi
  00180	53		 push	 ebx
  00181	ff 75 08	 push	 DWORD PTR _message$[ebp]
  00184	8b ce		 mov	 ecx, esi
  00186	e8 00 00 00 00	 call	 ?WindowProc@CWnd@@MAEJIIJ@Z ; CWnd::WindowProc

; 311  : }

  0018b	8b 4d f4	 mov	 ecx, DWORD PTR __$EHRec$[ebp]
  0018e	64 89 0d 00 00
	00 00		 mov	 DWORD PTR fs:0, ecx
  00195	59		 pop	 ecx
  00196	5f		 pop	 edi
  00197	5e		 pop	 esi
  00198	5b		 pop	 ebx
  00199	8b e5		 mov	 esp, ebp
  0019b	5d		 pop	 ebp
  0019c	c2 0c 00	 ret	 12			; 0000000cH
  0019f	90		 npad	 1
$LN101@WindowProc:
  001a0	00 00 00 00	 DD	 $LN5@WindowProc
  001a4	00 00 00 00	 DD	 $LN4@WindowProc
  001a8	00 00 00 00	 DD	 $LN13@WindowProc
  001ac	00 00 00 00	 DD	 $LN14@WindowProc
  001b0	00 00 00 00	 DD	 $LN15@WindowProc
  001b4	00 00 00 00	 DD	 $LN21@WindowProc
  001b8	00 00 00 00	 DD	 $LN23@WindowProc
$LN100@WindowProc:
  001bc	00		 DB	 0
  001bd	01		 DB	 1
  001be	06		 DB	 6
  001bf	06		 DB	 6
  001c0	06		 DB	 6
  001c1	06		 DB	 6
  001c2	06		 DB	 6
  001c3	06		 DB	 6
  001c4	06		 DB	 6
  001c5	06		 DB	 6
  001c6	06		 DB	 6
  001c7	06		 DB	 6
  001c8	06		 DB	 6
  001c9	06		 DB	 6
  001ca	06		 DB	 6
  001cb	06		 DB	 6
  001cc	06		 DB	 6
  001cd	06		 DB	 6
  001ce	06		 DB	 6
  001cf	06		 DB	 6
  001d0	06		 DB	 6
  001d1	06		 DB	 6
  001d2	06		 DB	 6
  001d3	06		 DB	 6
  001d4	06		 DB	 6
  001d5	06		 DB	 6
  001d6	06		 DB	 6
  001d7	06		 DB	 6
  001d8	06		 DB	 6
  001d9	06		 DB	 6
  001da	06		 DB	 6
  001db	06		 DB	 6
  001dc	06		 DB	 6
  001dd	06		 DB	 6
  001de	06		 DB	 6
  001df	06		 DB	 6
  001e0	06		 DB	 6
  001e1	06		 DB	 6
  001e2	06		 DB	 6
  001e3	06		 DB	 6
  001e4	06		 DB	 6
  001e5	06		 DB	 6
  001e6	06		 DB	 6
  001e7	06		 DB	 6
  001e8	06		 DB	 6
  001e9	06		 DB	 6
  001ea	06		 DB	 6
  001eb	06		 DB	 6
  001ec	06		 DB	 6
  001ed	06		 DB	 6
  001ee	06		 DB	 6
  001ef	06		 DB	 6
  001f0	02		 DB	 2
  001f1	00		 DB	 0
  001f2	03		 DB	 3
  001f3	06		 DB	 6
  001f4	06		 DB	 6
  001f5	06		 DB	 6
  001f6	06		 DB	 6
  001f7	06		 DB	 6
  001f8	06		 DB	 6
  001f9	06		 DB	 6
  001fa	06		 DB	 6
  001fb	06		 DB	 6
  001fc	06		 DB	 6
  001fd	06		 DB	 6
  001fe	06		 DB	 6
  001ff	06		 DB	 6
  00200	06		 DB	 6
  00201	06		 DB	 6
  00202	06		 DB	 6
  00203	06		 DB	 6
  00204	06		 DB	 6
  00205	06		 DB	 6
  00206	06		 DB	 6
  00207	06		 DB	 6
  00208	06		 DB	 6
  00209	06		 DB	 6
  0020a	06		 DB	 6
  0020b	06		 DB	 6
  0020c	06		 DB	 6
  0020d	06		 DB	 6
  0020e	06		 DB	 6
  0020f	06		 DB	 6
  00210	06		 DB	 6
  00211	06		 DB	 6
  00212	06		 DB	 6
  00213	06		 DB	 6
  00214	06		 DB	 6
  00215	06		 DB	 6
  00216	06		 DB	 6
  00217	06		 DB	 6
  00218	06		 DB	 6
  00219	06		 DB	 6
  0021a	06		 DB	 6
  0021b	06		 DB	 6
  0021c	06		 DB	 6
  0021d	06		 DB	 6
  0021e	06		 DB	 6
  0021f	06		 DB	 6
  00220	06		 DB	 6
  00221	06		 DB	 6
  00222	06		 DB	 6
  00223	06		 DB	 6
  00224	06		 DB	 6
  00225	06		 DB	 6
  00226	06		 DB	 6
  00227	06		 DB	 6
  00228	06		 DB	 6
  00229	06		 DB	 6
  0022a	06		 DB	 6
  0022b	06		 DB	 6
  0022c	06		 DB	 6
  0022d	06		 DB	 6
  0022e	06		 DB	 6
  0022f	06		 DB	 6
  00230	06		 DB	 6
  00231	06		 DB	 6
  00232	06		 DB	 6
  00233	06		 DB	 6
  00234	06		 DB	 6
  00235	06		 DB	 6
  00236	06		 DB	 6
  00237	06		 DB	 6
  00238	06		 DB	 6
  00239	06		 DB	 6
  0023a	06		 DB	 6
  0023b	06		 DB	 6
  0023c	06		 DB	 6
  0023d	06		 DB	 6
  0023e	06		 DB	 6
  0023f	06		 DB	 6
  00240	06		 DB	 6
  00241	06		 DB	 6
  00242	06		 DB	 6
  00243	06		 DB	 6
  00244	06		 DB	 6
  00245	06		 DB	 6
  00246	06		 DB	 6
  00247	06		 DB	 6
  00248	06		 DB	 6
  00249	06		 DB	 6
  0024a	06		 DB	 6
  0024b	06		 DB	 6
  0024c	06		 DB	 6
  0024d	06		 DB	 6
  0024e	06		 DB	 6
  0024f	06		 DB	 6
  00250	06		 DB	 6
  00251	06		 DB	 6
  00252	06		 DB	 6
  00253	06		 DB	 6
  00254	06		 DB	 6
  00255	06		 DB	 6
  00256	06		 DB	 6
  00257	06		 DB	 6
  00258	06		 DB	 6
  00259	06		 DB	 6
  0025a	06		 DB	 6
  0025b	06		 DB	 6
  0025c	06		 DB	 6
  0025d	06		 DB	 6
  0025e	06		 DB	 6
  0025f	06		 DB	 6
  00260	06		 DB	 6
  00261	04		 DB	 4
  00262	06		 DB	 6
  00263	06		 DB	 6
  00264	06		 DB	 6
  00265	06		 DB	 6
  00266	06		 DB	 6
  00267	06		 DB	 6
  00268	06		 DB	 6
  00269	06		 DB	 6
  0026a	06		 DB	 6
  0026b	06		 DB	 6
  0026c	06		 DB	 6
  0026d	06		 DB	 6
  0026e	06		 DB	 6
  0026f	06		 DB	 6
  00270	06		 DB	 6
  00271	06		 DB	 6
  00272	06		 DB	 6
  00273	06		 DB	 6
  00274	06		 DB	 6
  00275	06		 DB	 6
  00276	06		 DB	 6
  00277	06		 DB	 6
  00278	06		 DB	 6
  00279	06		 DB	 6
  0027a	06		 DB	 6
  0027b	06		 DB	 6
  0027c	06		 DB	 6
  0027d	06		 DB	 6
  0027e	06		 DB	 6
  0027f	06		 DB	 6
  00280	06		 DB	 6
  00281	06		 DB	 6
  00282	06		 DB	 6
  00283	06		 DB	 6
  00284	06		 DB	 6
  00285	06		 DB	 6
  00286	06		 DB	 6
  00287	06		 DB	 6
  00288	06		 DB	 6
  00289	06		 DB	 6
  0028a	06		 DB	 6
  0028b	06		 DB	 6
  0028c	06		 DB	 6
  0028d	06		 DB	 6
  0028e	06		 DB	 6
  0028f	05		 DB	 5
  00290	05		 DB	 5
_TEXT	ENDS
;	COMDAT text$x
text$x	SEGMENT
__unwindfunclet$?WindowProc@CLeftBarDlg@@MAEJIIJ@Z$0:
  00000	8d 8d bc fe ff
	ff		 lea	 ecx, DWORD PTR _dlg$2[ebp]
  00006	e9 00 00 00 00	 jmp	 ??1CRegFavoriteDlg@@UAE@XZ
  0000b	cc		 int	 3
  0000c	cc		 int	 3
  0000d	cc		 int	 3
  0000e	cc		 int	 3
  0000f	cc		 int	 3
__ehhandler$?WindowProc@CLeftBarDlg@@MAEJIIJ@Z:
  00010	90		 npad	 1
  00011	90		 npad	 1
  00012	8b 54 24 08	 mov	 edx, DWORD PTR [esp+8]
  00016	8d 42 0c	 lea	 eax, DWORD PTR [edx+12]
  00019	8b 8a b8 fe ff
	ff		 mov	 ecx, DWORD PTR [edx-328]
  0001f	33 c8		 xor	 ecx, eax
  00021	e8 00 00 00 00	 call	 @__security_check_cookie@4
  00026	b8 00 00 00 00	 mov	 eax, OFFSET __ehfuncinfo$?WindowProc@CLeftBarDlg@@MAEJIIJ@Z
  0002b	e9 00 00 00 00	 jmp	 ___CxxFrameHandler3
text$x	ENDS
?WindowProc@CLeftBarDlg@@MAEJIIJ@Z ENDP			; CLeftBarDlg::WindowProc
; Function compile flags: /Ogtp
; File D:\git\src\IBK\IBK_DRFN\ProjSrc\SrcDrfn\Chart\MULTICHART\LeftBarDlg.cpp
;	COMDAT ?DoDataExchange@CLeftBarDlg@@MAEXPAVCDataExchange@@@Z
_TEXT	SEGMENT
_pDX$ = 8						; size = 4
?DoDataExchange@CLeftBarDlg@@MAEXPAVCDataExchange@@@Z PROC ; CLeftBarDlg::DoDataExchange, COMDAT
; _this$ = ecx

; 52   : {

  00000	55		 push	 ebp
  00001	8b ec		 mov	 ebp, esp
  00003	56		 push	 esi

; 53   : 	CRscDlg::DoDataExchange(pDX);

  00004	ff 75 08	 push	 DWORD PTR _pDX$[ebp]
  00007	8b f1		 mov	 esi, ecx
  00009	e8 00 00 00 00	 call	 ?DoDataExchange@CRscDlg@@MAEXPAVCDataExchange@@@Z ; CRscDlg::DoDataExchange

; 54   : 	//{{AFX_DATA_MAP(CLeftBarDlg)
; 55   : 	//DDX_Control(pDX, IDC_BTHIDECHART, m_btHideChart);
; 56   : 	DDX_Control(pDX, IDC_TAB, m_tabctrl);

  0000e	8d 86 c0 00 00
	00		 lea	 eax, DWORD PTR [esi+192]
  00014	50		 push	 eax
  00015	68 70 17 00 00	 push	 6000			; 00001770H
  0001a	ff 75 08	 push	 DWORD PTR _pDX$[ebp]
  0001d	e8 00 00 00 00	 call	 ?DDX_Control@@YGXPAVCDataExchange@@HAAVCWnd@@@Z ; DDX_Control
  00022	5e		 pop	 esi

; 57   : 	//}}AFX_DATA_MAP
; 58   : }

  00023	5d		 pop	 ebp
  00024	c2 04 00	 ret	 4
?DoDataExchange@CLeftBarDlg@@MAEXPAVCDataExchange@@@Z ENDP ; CLeftBarDlg::DoDataExchange
_TEXT	ENDS
; Function compile flags: /Ogtp
; File D:\git\src\IBK\IBK_DRFN\ProjSrc\SrcDrfn\Chart\MULTICHART\LeftBarDlg.cpp
; File C:\Program Files (x86)\Microsoft Visual Studio\2019\Community\VC\Tools\MSVC\14.29.30133\atlmfc\include\afxwin2.inl
; File D:\git\src\IBK\IBK_DRFN\ProjSrc\SrcDrfn\Chart\MULTICHART\LeftBarDlg.cpp
; File C:\Program Files (x86)\Microsoft Visual Studio\2019\Community\VC\Tools\MSVC\14.29.30133\atlmfc\include\afxwin2.inl
; File D:\git\src\IBK\IBK_DRFN\ProjSrc\SrcDrfn\Chart\MULTICHART\LeftBarDlg.cpp
;	COMDAT ?PreTranslateMessage@CLeftBarDlg@@UAEHPAUtagMSG@@@Z
_TEXT	SEGMENT
_pMsg$ = 8						; size = 4
?PreTranslateMessage@CLeftBarDlg@@UAEHPAUtagMSG@@@Z PROC ; CLeftBarDlg::PreTranslateMessage, COMDAT
; _this$ = ecx

; 542  : {

  00000	55		 push	 ebp
  00001	8b ec		 mov	 ebp, esp
  00003	56		 push	 esi

; 543  : 	// TODO: Add your specialized code here and/or call the base class
; 544  : 	switch(pMsg->message)

  00004	8b 75 08	 mov	 esi, DWORD PTR _pMsg$[ebp]
  00007	57		 push	 edi
  00008	8b f9		 mov	 edi, ecx
  0000a	81 7e 04 00 01
	00 00		 cmp	 DWORD PTR [esi+4], 256	; 00000100H
  00011	75 15		 jne	 SHORT $LN4@PreTransla

; 545  : 	{
; 546  : 		case WM_KEYDOWN:
; 547  : 			switch(pMsg->wParam) 

  00013	8b 46 08	 mov	 eax, DWORD PTR [esi+8]
  00016	83 f8 0d	 cmp	 eax, 13			; 0000000dH
  00019	74 05		 je	 SHORT $LN7@PreTransla
  0001b	83 f8 1b	 cmp	 eax, 27			; 0000001bH
  0001e	75 08		 jne	 SHORT $LN4@PreTransla
$LN7@PreTransla:
  00020	5f		 pop	 edi

; 548  : 			{
; 549  : 			case VK_RETURN :
; 550  : 			case VK_ESCAPE :
; 551  : 				{
; 552  : 					return FALSE;			

  00021	33 c0		 xor	 eax, eax

; 568  : 		else
; 569  : 			return CRscDlg::PreTranslateMessage(pMsg);
; 570  : 	}
; 571  : 	else
; 572  : 		return CRscDlg::PreTranslateMessage(pMsg);
; 573  : }

  00023	5e		 pop	 esi
  00024	5d		 pop	 ebp
  00025	c2 04 00	 ret	 4
$LN4@PreTransla:

; 553  : 				}
; 554  : 				break;
; 555  : 			}		
; 556  : 			break;
; 557  : 	}
; 558  : //	return CRscDlg::PreTranslateMessage(pMsg);
; 559  : 
; 560  : //	if(pMsg->wParam == VK_HOME)
; 561  : //		return FALSE;
; 562  : 
; 563  : 	if(::IsWindow(m_hWnd))

  00028	ff 77 20	 push	 DWORD PTR [edi+32]
  0002b	ff 15 00 00 00
	00		 call	 DWORD PTR __imp__IsWindow@4
  00031	85 c0		 test	 eax, eax
  00033	74 33		 je	 SHORT $LN9@PreTransla
; File C:\Program Files (x86)\Microsoft Visual Studio\2019\Community\VC\Tools\MSVC\14.29.30133\atlmfc\include\afxwin2.inl

; 213  : 	{ ASSERT(::IsWindow(m_hWnd)); return CWnd::FromHandle(::GetParent(m_hWnd)); }

  00035	ff 77 20	 push	 DWORD PTR [edi+32]
  00038	ff 15 00 00 00
	00		 call	 DWORD PTR __imp__GetParent@4
  0003e	50		 push	 eax
  0003f	e8 00 00 00 00	 call	 ?FromHandle@CWnd@@SGPAV1@PAUHWND__@@@Z ; CWnd::FromHandle
; File D:\git\src\IBK\IBK_DRFN\ProjSrc\SrcDrfn\Chart\MULTICHART\LeftBarDlg.cpp

; 566  : 		if(pParent)

  00044	85 c0		 test	 eax, eax
  00046	74 20		 je	 SHORT $LN9@PreTransla
; File C:\Program Files (x86)\Microsoft Visual Studio\2019\Community\VC\Tools\MSVC\14.29.30133\atlmfc\include\afxwin2.inl

; 213  : 	{ ASSERT(::IsWindow(m_hWnd)); return CWnd::FromHandle(::GetParent(m_hWnd)); }

  00048	ff 77 20	 push	 DWORD PTR [edi+32]
  0004b	ff 15 00 00 00
	00		 call	 DWORD PTR __imp__GetParent@4
  00051	50		 push	 eax
  00052	e8 00 00 00 00	 call	 ?FromHandle@CWnd@@SGPAV1@PAUHWND__@@@Z ; CWnd::FromHandle
; File D:\git\src\IBK\IBK_DRFN\ProjSrc\SrcDrfn\Chart\MULTICHART\LeftBarDlg.cpp

; 567  : 			return GetParent()->PreTranslateMessage(pMsg);

  00057	56		 push	 esi
  00058	8b c8		 mov	 ecx, eax
  0005a	8b 10		 mov	 edx, DWORD PTR [eax]
  0005c	ff 92 14 01 00
	00		 call	 DWORD PTR [edx+276]
  00062	5f		 pop	 edi

; 568  : 		else
; 569  : 			return CRscDlg::PreTranslateMessage(pMsg);
; 570  : 	}
; 571  : 	else
; 572  : 		return CRscDlg::PreTranslateMessage(pMsg);
; 573  : }

  00063	5e		 pop	 esi
  00064	5d		 pop	 ebp
  00065	c2 04 00	 ret	 4
$LN9@PreTransla:
  00068	56		 push	 esi
  00069	8b cf		 mov	 ecx, edi
  0006b	e8 00 00 00 00	 call	 ?PreTranslateMessage@CDialog@@UAEHPAUtagMSG@@@Z ; CDialog::PreTranslateMessage
  00070	5f		 pop	 edi
  00071	5e		 pop	 esi
  00072	5d		 pop	 ebp
  00073	c2 04 00	 ret	 4
?PreTranslateMessage@CLeftBarDlg@@UAEHPAUtagMSG@@@Z ENDP ; CLeftBarDlg::PreTranslateMessage
_TEXT	ENDS
; Function compile flags: /Ogtp
; File D:\git\src\IBK\IBK_DRFN\ProjSrc\SrcDrfn\Chart\MULTICHART\LeftBarDlg.cpp
; File C:\Program Files (x86)\Microsoft Visual Studio\2019\Community\VC\Tools\MSVC\14.29.30133\atlmfc\include\afxwin2.inl
; File D:\git\src\IBK\IBK_DRFN\ProjSrc\SrcDrfn\Chart\MULTICHART\LeftBarDlg.cpp
; File C:\Program Files (x86)\Microsoft Visual Studio\2019\Community\VC\Tools\MSVC\14.29.30133\atlmfc\include\afxwin2.inl
; File D:\git\src\IBK\IBK_DRFN\ProjSrc\SrcDrfn\Chart\MULTICHART\LeftBarDlg.cpp
; File C:\Program Files (x86)\Microsoft Visual Studio\2019\Community\VC\Tools\MSVC\14.29.30133\atlmfc\include\afxwin2.inl
; File D:\git\src\IBK\IBK_DRFN\ProjSrc\SrcDrfn\Chart\MULTICHART\LeftBarDlg.cpp
;	COMDAT ?ResetConcData@CLeftBarDlg@@QAEXXZ
_TEXT	SEGMENT
?ResetConcData@CLeftBarDlg@@QAEXXZ PROC			; CLeftBarDlg::ResetConcData, COMDAT
; _this$ = ecx

; 657  : 	if( m_tabctrl.GetSafeHwnd() )

  00000	8d 81 c0 00 00
	00		 lea	 eax, DWORD PTR [ecx+192]
; File C:\Program Files (x86)\Microsoft Visual Studio\2019\Community\VC\Tools\MSVC\14.29.30133\atlmfc\include\afxwin2.inl

; 25   : 	{ return this == NULL ? NULL : m_hWnd; }

  00006	85 c0		 test	 eax, eax
  00008	74 28		 je	 SHORT $LN3@ResetConcD
; File D:\git\src\IBK\IBK_DRFN\ProjSrc\SrcDrfn\Chart\MULTICHART\LeftBarDlg.cpp

; 657  : 	if( m_tabctrl.GetSafeHwnd() )

  0000a	83 78 20 00	 cmp	 DWORD PTR [eax+32], 0
  0000e	74 22		 je	 SHORT $LN3@ResetConcD

; 658  : 	{
; 659  : 		CTabDlg *pTabCodeSearch = m_tabctrl.GetWndCodeSearch();

  00010	8b 81 9c 01 00
	00		 mov	 eax, DWORD PTR [ecx+412]

; 660  : 		if( pTabCodeSearch && pTabCodeSearch->GetSafeHwnd() )

  00016	85 c0		 test	 eax, eax
  00018	74 18		 je	 SHORT $LN3@ResetConcD
; File C:\Program Files (x86)\Microsoft Visual Studio\2019\Community\VC\Tools\MSVC\14.29.30133\atlmfc\include\afxwin2.inl

; 25   : 	{ return this == NULL ? NULL : m_hWnd; }

  0001a	8b 40 20	 mov	 eax, DWORD PTR [eax+32]
; File D:\git\src\IBK\IBK_DRFN\ProjSrc\SrcDrfn\Chart\MULTICHART\LeftBarDlg.cpp

; 660  : 		if( pTabCodeSearch && pTabCodeSearch->GetSafeHwnd() )

  0001d	85 c0		 test	 eax, eax
  0001f	74 11		 je	 SHORT $LN3@ResetConcD
; File C:\Program Files (x86)\Microsoft Visual Studio\2019\Community\VC\Tools\MSVC\14.29.30133\atlmfc\include\afxwin2.inl

; 32   : 	{ ASSERT(::IsWindow(m_hWnd)); return ::SendMessage(m_hWnd, message, wParam, lParam); }

  00021	6a 00		 push	 0
  00023	6a 00		 push	 0
  00025	ff 35 00 00 00
	00		 push	 DWORD PTR ?RMSG_RESETCONCDATA@@3IB
  0002b	50		 push	 eax
  0002c	ff 15 00 00 00
	00		 call	 DWORD PTR __imp__SendMessageA@16
$LN3@ResetConcD:
; File D:\git\src\IBK\IBK_DRFN\ProjSrc\SrcDrfn\Chart\MULTICHART\LeftBarDlg.cpp

; 663  : }

  00032	c3		 ret	 0
?ResetConcData@CLeftBarDlg@@QAEXXZ ENDP			; CLeftBarDlg::ResetConcData
_TEXT	ENDS
; Function compile flags: /Ogtp
; File D:\git\src\IBK\IBK_DRFN\ProjSrc\SrcDrfn\Chart\MULTICHART\LeftBarDlg.cpp
; File C:\Program Files (x86)\Microsoft Visual Studio\2019\Community\VC\Tools\MSVC\14.29.30133\atlmfc\include\afxwin2.inl
; File D:\git\src\IBK\IBK_DRFN\ProjSrc\SrcDrfn\Chart\MULTICHART\LeftBarDlg.cpp
; File C:\Program Files (x86)\Microsoft Visual Studio\2019\Community\VC\Tools\MSVC\14.29.30133\atlmfc\include\afxwin2.inl
; File D:\git\src\IBK\IBK_DRFN\ProjSrc\SrcDrfn\Chart\MULTICHART\LeftBarDlg.cpp
; File C:\Program Files (x86)\Microsoft Visual Studio\2019\Community\VC\Tools\MSVC\14.29.30133\atlmfc\include\afxwin2.inl
; File D:\git\src\IBK\IBK_DRFN\ProjSrc\SrcDrfn\Chart\MULTICHART\LeftBarDlg.cpp
;	COMDAT ?MakeAccountConcData@CLeftBarDlg@@QAEXPAXJ@Z
_TEXT	SEGMENT
_aTRData$ = 8						; size = 4
_dwTRDateLen$ = 12					; size = 4
?MakeAccountConcData@CLeftBarDlg@@QAEXPAXJ@Z PROC	; CLeftBarDlg::MakeAccountConcData, COMDAT
; _this$ = ecx

; 646  : {

  00000	55		 push	 ebp
  00001	8b ec		 mov	 ebp, esp

; 647  : 	if( m_tabctrl.GetSafeHwnd() )

  00003	8d 81 c0 00 00
	00		 lea	 eax, DWORD PTR [ecx+192]
; File C:\Program Files (x86)\Microsoft Visual Studio\2019\Community\VC\Tools\MSVC\14.29.30133\atlmfc\include\afxwin2.inl

; 25   : 	{ return this == NULL ? NULL : m_hWnd; }

  00009	85 c0		 test	 eax, eax
  0000b	74 2a		 je	 SHORT $LN3@MakeAccoun
; File D:\git\src\IBK\IBK_DRFN\ProjSrc\SrcDrfn\Chart\MULTICHART\LeftBarDlg.cpp

; 647  : 	if( m_tabctrl.GetSafeHwnd() )

  0000d	83 78 20 00	 cmp	 DWORD PTR [eax+32], 0
  00011	74 24		 je	 SHORT $LN3@MakeAccoun

; 648  : 	{
; 649  : 		CTabDlg *pTabCodeSearch = m_tabctrl.GetWndCodeSearch();

  00013	8b 81 9c 01 00
	00		 mov	 eax, DWORD PTR [ecx+412]

; 650  : 		if( pTabCodeSearch && pTabCodeSearch->GetSafeHwnd() )

  00019	85 c0		 test	 eax, eax
  0001b	74 1a		 je	 SHORT $LN3@MakeAccoun
; File C:\Program Files (x86)\Microsoft Visual Studio\2019\Community\VC\Tools\MSVC\14.29.30133\atlmfc\include\afxwin2.inl

; 25   : 	{ return this == NULL ? NULL : m_hWnd; }

  0001d	8b 40 20	 mov	 eax, DWORD PTR [eax+32]
; File D:\git\src\IBK\IBK_DRFN\ProjSrc\SrcDrfn\Chart\MULTICHART\LeftBarDlg.cpp

; 650  : 		if( pTabCodeSearch && pTabCodeSearch->GetSafeHwnd() )

  00020	85 c0		 test	 eax, eax
  00022	74 13		 je	 SHORT $LN3@MakeAccoun
; File C:\Program Files (x86)\Microsoft Visual Studio\2019\Community\VC\Tools\MSVC\14.29.30133\atlmfc\include\afxwin2.inl

; 32   : 	{ ASSERT(::IsWindow(m_hWnd)); return ::SendMessage(m_hWnd, message, wParam, lParam); }

  00024	ff 75 08	 push	 DWORD PTR _aTRData$[ebp]
  00027	ff 75 0c	 push	 DWORD PTR _dwTRDateLen$[ebp]
  0002a	ff 35 00 00 00
	00		 push	 DWORD PTR ?RMSG_ADDACCOUNTCONC@@3IB
  00030	50		 push	 eax
  00031	ff 15 00 00 00
	00		 call	 DWORD PTR __imp__SendMessageA@16
$LN3@MakeAccoun:
; File D:\git\src\IBK\IBK_DRFN\ProjSrc\SrcDrfn\Chart\MULTICHART\LeftBarDlg.cpp

; 653  : }

  00037	5d		 pop	 ebp
  00038	c2 08 00	 ret	 8
?MakeAccountConcData@CLeftBarDlg@@QAEXPAXJ@Z ENDP	; CLeftBarDlg::MakeAccountConcData
_TEXT	ENDS
; Function compile flags: /Ogtp
; File D:\git\src\IBK\IBK_DRFN\ProjSrc\SrcDrfn\Chart\MULTICHART\LeftBarDlg.cpp
; File C:\Program Files (x86)\Microsoft Visual Studio\2019\Community\VC\Tools\MSVC\14.29.30133\atlmfc\include\afxwin2.inl
; File D:\git\src\IBK\IBK_DRFN\ProjSrc\SrcDrfn\Chart\MULTICHART\LeftBarDlg.cpp
; File C:\Program Files (x86)\Microsoft Visual Studio\2019\Community\VC\Tools\MSVC\14.29.30133\atlmfc\include\afxwin2.inl
; File D:\git\src\IBK\IBK_DRFN\ProjSrc\SrcDrfn\Chart\MULTICHART\LeftBarDlg.cpp
; File C:\Program Files (x86)\Microsoft Visual Studio\2019\Community\VC\Tools\MSVC\14.29.30133\atlmfc\include\afxwin2.inl
; File D:\git\src\IBK\IBK_DRFN\ProjSrc\SrcDrfn\Chart\MULTICHART\LeftBarDlg.cpp
;	COMDAT ?AddAccountCodeItem@CLeftBarDlg@@QAEXPAXJ@Z
_TEXT	SEGMENT
_aTRData$ = 8						; size = 4
_dwTRDateLen$ = 12					; size = 4
?AddAccountCodeItem@CLeftBarDlg@@QAEXPAXJ@Z PROC	; CLeftBarDlg::AddAccountCodeItem, COMDAT
; _this$ = ecx

; 625  : {

  00000	55		 push	 ebp
  00001	8b ec		 mov	 ebp, esp

; 626  : 	if( m_tabctrl.GetSafeHwnd() )

  00003	8d 81 c0 00 00
	00		 lea	 eax, DWORD PTR [ecx+192]
; File C:\Program Files (x86)\Microsoft Visual Studio\2019\Community\VC\Tools\MSVC\14.29.30133\atlmfc\include\afxwin2.inl

; 25   : 	{ return this == NULL ? NULL : m_hWnd; }

  00009	85 c0		 test	 eax, eax
  0000b	74 2a		 je	 SHORT $LN3@AddAccount
; File D:\git\src\IBK\IBK_DRFN\ProjSrc\SrcDrfn\Chart\MULTICHART\LeftBarDlg.cpp

; 626  : 	if( m_tabctrl.GetSafeHwnd() )

  0000d	83 78 20 00	 cmp	 DWORD PTR [eax+32], 0
  00011	74 24		 je	 SHORT $LN3@AddAccount

; 627  : 	{
; 628  : 		CTabDlg *pTabCodeSearch = m_tabctrl.GetWndCodeSearch();

  00013	8b 81 9c 01 00
	00		 mov	 eax, DWORD PTR [ecx+412]

; 629  : 		if( pTabCodeSearch && pTabCodeSearch->GetSafeHwnd() )

  00019	85 c0		 test	 eax, eax
  0001b	74 1a		 je	 SHORT $LN3@AddAccount
; File C:\Program Files (x86)\Microsoft Visual Studio\2019\Community\VC\Tools\MSVC\14.29.30133\atlmfc\include\afxwin2.inl

; 25   : 	{ return this == NULL ? NULL : m_hWnd; }

  0001d	8b 40 20	 mov	 eax, DWORD PTR [eax+32]
; File D:\git\src\IBK\IBK_DRFN\ProjSrc\SrcDrfn\Chart\MULTICHART\LeftBarDlg.cpp

; 629  : 		if( pTabCodeSearch && pTabCodeSearch->GetSafeHwnd() )

  00020	85 c0		 test	 eax, eax
  00022	74 13		 je	 SHORT $LN3@AddAccount
; File C:\Program Files (x86)\Microsoft Visual Studio\2019\Community\VC\Tools\MSVC\14.29.30133\atlmfc\include\afxwin2.inl

; 32   : 	{ ASSERT(::IsWindow(m_hWnd)); return ::SendMessage(m_hWnd, message, wParam, lParam); }

  00024	ff 75 08	 push	 DWORD PTR _aTRData$[ebp]
  00027	ff 75 0c	 push	 DWORD PTR _dwTRDateLen$[ebp]
  0002a	ff 35 00 00 00
	00		 push	 DWORD PTR ?RMSG_ADDACCOUNTCODE@@3IB
  00030	50		 push	 eax
  00031	ff 15 00 00 00
	00		 call	 DWORD PTR __imp__SendMessageA@16
$LN3@AddAccount:
; File D:\git\src\IBK\IBK_DRFN\ProjSrc\SrcDrfn\Chart\MULTICHART\LeftBarDlg.cpp

; 632  : }

  00037	5d		 pop	 ebp
  00038	c2 08 00	 ret	 8
?AddAccountCodeItem@CLeftBarDlg@@QAEXPAXJ@Z ENDP	; CLeftBarDlg::AddAccountCodeItem
_TEXT	ENDS
; Function compile flags: /Ogtp
; File D:\git\src\IBK\IBK_DRFN\ProjSrc\SrcDrfn\Chart\MULTICHART\LeftBarDlg.cpp
;	COMDAT ?GetUserPath@CLeftBarDlg@@QAE?AV?$CStringT@DV?$StrTraitMFC_DLL@DV?$ChTraitsCRT@D@ATL@@@@@ATL@@XZ
_TEXT	SEGMENT
___$ReturnUdt$ = 8					; size = 4
?GetUserPath@CLeftBarDlg@@QAE?AV?$CStringT@DV?$StrTraitMFC_DLL@DV?$ChTraitsCRT@D@ATL@@@@@ATL@@XZ PROC ; CLeftBarDlg::GetUserPath, COMDAT
; _this$ = ecx

; 576  : {

  00000	55		 push	 ebp
  00001	8b ec		 mov	 ebp, esp

; 577  : 	return m_pStdDialog->m_strUserDir;

  00003	8b 81 dc 01 00
	00		 mov	 eax, DWORD PTR [ecx+476]
  00009	8b 4d 08	 mov	 ecx, DWORD PTR ___$ReturnUdt$[ebp]
  0000c	05 b4 07 00 00	 add	 eax, 1972		; 000007b4H
  00011	50		 push	 eax
  00012	ff 15 00 00 00
	00		 call	 DWORD PTR __imp_??0?$CStringT@DV?$StrTraitMFC_DLL@DV?$ChTraitsCRT@D@ATL@@@@@ATL@@QAE@ABV01@@Z
  00018	8b 45 08	 mov	 eax, DWORD PTR ___$ReturnUdt$[ebp]

; 578  : }

  0001b	5d		 pop	 ebp
  0001c	c2 04 00	 ret	 4
?GetUserPath@CLeftBarDlg@@QAE?AV?$CStringT@DV?$StrTraitMFC_DLL@DV?$ChTraitsCRT@D@ATL@@@@@ATL@@XZ ENDP ; CLeftBarDlg::GetUserPath
_TEXT	ENDS
; Function compile flags: /Ogtp
; File D:\git\src\IBK\IBK_DRFN\ProjSrc\SrcDrfn\Chart\MULTICHART\LeftBarDlg.cpp
; File C:\Program Files (x86)\Microsoft Visual Studio\2019\Community\VC\Tools\MSVC\14.29.30133\atlmfc\include\afxwin2.inl
; File D:\git\src\IBK\IBK_DRFN\ProjSrc\SrcDrfn\Chart\MULTICHART\LeftBarDlg.cpp
; File C:\Program Files (x86)\Microsoft Visual Studio\2019\Community\VC\Tools\MSVC\14.29.30133\atlmfc\include\afxcmn.inl
; File D:\git\src\IBK\IBK_DRFN\ProjSrc\SrcDrfn\Chart\MULTICHART\LeftBarDlg.cpp
; File C:\Program Files (x86)\Microsoft Visual Studio\2019\Community\VC\Tools\MSVC\14.29.30133\atlmfc\include\afxcmn.inl
; File D:\git\src\IBK\IBK_DRFN\ProjSrc\SrcDrfn\Chart\MULTICHART\LeftBarDlg.cpp
; File C:\Program Files (x86)\Microsoft Visual Studio\2019\Community\VC\Tools\MSVC\14.29.30133\atlmfc\include\afxwin2.inl
; File D:\git\src\IBK\IBK_DRFN\ProjSrc\SrcDrfn\Chart\MULTICHART\LeftBarDlg.cpp
; File C:\Program Files (x86)\Microsoft Visual Studio\2019\Community\VC\Tools\MSVC\14.29.30133\atlmfc\include\afxcmn.inl
; File D:\git\src\IBK\IBK_DRFN\ProjSrc\SrcDrfn\Chart\MULTICHART\LeftBarDlg.cpp
; File C:\Program Files (x86)\Microsoft Visual Studio\2019\Community\VC\Tools\MSVC\14.29.30133\atlmfc\include\afxcmn.inl
; File D:\git\src\IBK\IBK_DRFN\ProjSrc\SrcDrfn\Chart\MULTICHART\LeftBarDlg.cpp
; File C:\Program Files (x86)\Microsoft Visual Studio\2019\Community\VC\Tools\MSVC\14.29.30133\atlmfc\include\afxcmn.inl
; File D:\git\src\IBK\IBK_DRFN\ProjSrc\SrcDrfn\Chart\MULTICHART\LeftBarDlg.cpp
;	COMDAT ?SetConfig@CLeftBarDlg@@QAEXH@Z
_TEXT	SEGMENT
_strTemp$ = -88						; size = 4
_strCfgFile$ = -84					; size = 4
_szTemp$ = -80						; size = 64
__$ArrayPad$ = -16					; size = 4
__$EHRec$ = -12						; size = 12
_bLoad$ = 8						; size = 4
?SetConfig@CLeftBarDlg@@QAEXH@Z PROC			; CLeftBarDlg::SetConfig, COMDAT
; _this$ = ecx

; 129  : {

  00000	55		 push	 ebp
  00001	8b ec		 mov	 ebp, esp
  00003	6a ff		 push	 -1
  00005	68 00 00 00 00	 push	 __ehhandler$?SetConfig@CLeftBarDlg@@QAEXH@Z
  0000a	64 a1 00 00 00
	00		 mov	 eax, DWORD PTR fs:0
  00010	50		 push	 eax
  00011	83 ec 4c	 sub	 esp, 76			; 0000004cH
  00014	a1 00 00 00 00	 mov	 eax, DWORD PTR ___security_cookie
  00019	33 c5		 xor	 eax, ebp
  0001b	89 45 f0	 mov	 DWORD PTR __$ArrayPad$[ebp], eax
  0001e	56		 push	 esi
  0001f	57		 push	 edi
  00020	50		 push	 eax
  00021	8d 45 f4	 lea	 eax, DWORD PTR __$EHRec$[ebp]
  00024	64 a3 00 00 00
	00		 mov	 DWORD PTR fs:0, eax
  0002a	8b f1		 mov	 esi, ecx

; 130  : 	if(m_pStdDialog->IsSystemChart())

  0002c	8b 8e dc 01 00
	00		 mov	 ecx, DWORD PTR [esi+476]
  00032	e8 00 00 00 00	 call	 ?IsSystemChart@CStdDialog@@QAEHXZ ; CStdDialog::IsSystemChart
  00037	85 c0		 test	 eax, eax
  00039	74 57		 je	 SHORT $LN2@SetConfig

; 132  : 		if(bLoad && m_tabctrl.GetSafeHwnd() && m_tabctrl.GetItemCount() > 0 )

  0003b	83 7d 08 00	 cmp	 DWORD PTR _bLoad$[ebp], 0
  0003f	0f 84 25 01 00
	00		 je	 $LN1@SetConfig
  00045	8d 86 c0 00 00
	00		 lea	 eax, DWORD PTR [esi+192]
; File C:\Program Files (x86)\Microsoft Visual Studio\2019\Community\VC\Tools\MSVC\14.29.30133\atlmfc\include\afxwin2.inl

; 25   : 	{ return this == NULL ? NULL : m_hWnd; }

  0004b	85 c0		 test	 eax, eax
  0004d	0f 84 17 01 00
	00		 je	 $LN1@SetConfig
; File D:\git\src\IBK\IBK_DRFN\ProjSrc\SrcDrfn\Chart\MULTICHART\LeftBarDlg.cpp

; 132  : 		if(bLoad && m_tabctrl.GetSafeHwnd() && m_tabctrl.GetItemCount() > 0 )

  00053	83 78 20 00	 cmp	 DWORD PTR [eax+32], 0
  00057	0f 84 0d 01 00
	00		 je	 $LN1@SetConfig
; File C:\Program Files (x86)\Microsoft Visual Studio\2019\Community\VC\Tools\MSVC\14.29.30133\atlmfc\include\afxcmn.inl

; 564  : 	{ ASSERT(::IsWindow(m_hWnd)); return (int)::SendMessage(m_hWnd, TCM_GETITEMCOUNT, 0, 0L); }

  0005d	8b 3d 00 00 00
	00		 mov	 edi, DWORD PTR __imp__SendMessageA@16
  00063	6a 00		 push	 0
  00065	6a 00		 push	 0
  00067	68 04 13 00 00	 push	 4868			; 00001304H
  0006c	ff b6 e0 00 00
	00		 push	 DWORD PTR [esi+224]
  00072	ff d7		 call	 edi
; File D:\git\src\IBK\IBK_DRFN\ProjSrc\SrcDrfn\Chart\MULTICHART\LeftBarDlg.cpp

; 132  : 		if(bLoad && m_tabctrl.GetSafeHwnd() && m_tabctrl.GetItemCount() > 0 )

  00074	85 c0		 test	 eax, eax
  00076	0f 8e ee 00 00
	00		 jle	 $LN1@SetConfig
; File C:\Program Files (x86)\Microsoft Visual Studio\2019\Community\VC\Tools\MSVC\14.29.30133\atlmfc\include\afxcmn.inl

; 588  : 	{ ASSERT(::IsWindow(m_hWnd)); return (int)::SendMessage(m_hWnd, TCM_SETCURSEL, nItem, 0L); }

  0007c	6a 00		 push	 0
  0007e	6a 00		 push	 0
  00080	68 0c 13 00 00	 push	 4876			; 0000130cH
  00085	ff b6 e0 00 00
	00		 push	 DWORD PTR [esi+224]
  0008b	ff d7		 call	 edi
; File D:\git\src\IBK\IBK_DRFN\ProjSrc\SrcDrfn\Chart\MULTICHART\LeftBarDlg.cpp

; 135  : 		return;

  0008d	e9 d8 00 00 00	 jmp	 $LN1@SetConfig
$LN2@SetConfig:

; 136  : 	}
; 137  : 
; 138  : 	CString strTemp;

  00092	8d 4d a8	 lea	 ecx, DWORD PTR _strTemp$[ebp]
  00095	ff 15 00 00 00
	00		 call	 DWORD PTR __imp_??0?$CStringT@DV?$StrTraitMFC_DLL@DV?$ChTraitsCRT@D@ATL@@@@@ATL@@QAE@XZ

; 139  : 	char szTemp[64];	
; 140  : 
; 141  : 	CString strCfgFile = m_pStdDialog->m_strConfig;	

  0009b	8b 86 dc 01 00
	00		 mov	 eax, DWORD PTR [esi+476]
  000a1	8d 4d ac	 lea	 ecx, DWORD PTR _strCfgFile$[ebp]
  000a4	05 a8 07 00 00	 add	 eax, 1960		; 000007a8H
  000a9	c7 45 fc 00 00
	00 00		 mov	 DWORD PTR __$EHRec$[ebp+8], 0
  000b0	50		 push	 eax
  000b1	ff 15 00 00 00
	00		 call	 DWORD PTR __imp_??0?$CStringT@DV?$StrTraitMFC_DLL@DV?$ChTraitsCRT@D@ATL@@@@@ATL@@QAE@ABV01@@Z

; 142  : 	if(bLoad && m_tabctrl.GetSafeHwnd() && m_tabctrl.GetItemCount() > 1 )

  000b7	83 7d 08 00	 cmp	 DWORD PTR _bLoad$[ebp], 0
  000bb	8b 3d 00 00 00
	00		 mov	 edi, DWORD PTR __imp__SendMessageA@16
  000c1	c6 45 fc 01	 mov	 BYTE PTR __$EHRec$[ebp+8], 1
  000c5	74 57		 je	 SHORT $LN4@SetConfig
  000c7	8d 86 c0 00 00
	00		 lea	 eax, DWORD PTR [esi+192]
; File C:\Program Files (x86)\Microsoft Visual Studio\2019\Community\VC\Tools\MSVC\14.29.30133\atlmfc\include\afxwin2.inl

; 25   : 	{ return this == NULL ? NULL : m_hWnd; }

  000cd	85 c0		 test	 eax, eax
  000cf	74 4d		 je	 SHORT $LN4@SetConfig
; File D:\git\src\IBK\IBK_DRFN\ProjSrc\SrcDrfn\Chart\MULTICHART\LeftBarDlg.cpp

; 142  : 	if(bLoad && m_tabctrl.GetSafeHwnd() && m_tabctrl.GetItemCount() > 1 )

  000d1	83 78 20 00	 cmp	 DWORD PTR [eax+32], 0
  000d5	74 47		 je	 SHORT $LN4@SetConfig
; File C:\Program Files (x86)\Microsoft Visual Studio\2019\Community\VC\Tools\MSVC\14.29.30133\atlmfc\include\afxcmn.inl

; 564  : 	{ ASSERT(::IsWindow(m_hWnd)); return (int)::SendMessage(m_hWnd, TCM_GETITEMCOUNT, 0, 0L); }

  000d7	6a 00		 push	 0
  000d9	6a 00		 push	 0
  000db	68 04 13 00 00	 push	 4868			; 00001304H
  000e0	ff b6 e0 00 00
	00		 push	 DWORD PTR [esi+224]
  000e6	ff d7		 call	 edi
; File D:\git\src\IBK\IBK_DRFN\ProjSrc\SrcDrfn\Chart\MULTICHART\LeftBarDlg.cpp

; 142  : 	if(bLoad && m_tabctrl.GetSafeHwnd() && m_tabctrl.GetItemCount() > 1 )

  000e8	83 f8 01	 cmp	 eax, 1
  000eb	7e 31		 jle	 SHORT $LN4@SetConfig

; 143  : 	{
; 144  : 		::GetPrivateProfileString("LeftBar","TabPos","0",szTemp,sizeof(szTemp), strCfgFile);

  000ed	ff 75 ac	 push	 DWORD PTR _strCfgFile$[ebp]
  000f0	8d 45 b0	 lea	 eax, DWORD PTR _szTemp$[ebp]
  000f3	6a 40		 push	 64			; 00000040H
  000f5	50		 push	 eax
  000f6	68 00 00 00 00	 push	 OFFSET ??_C@_01GBGANLPD@0@
  000fb	68 00 00 00 00	 push	 OFFSET ??_C@_06BJMHLMHN@TabPos@
  00100	68 00 00 00 00	 push	 OFFSET ??_C@_07IKJPBEOL@LeftBar@
  00105	ff 15 00 00 00
	00		 call	 DWORD PTR __imp__GetPrivateProfileStringA@24
; File C:\Program Files (x86)\Microsoft Visual Studio\2019\Community\VC\Tools\MSVC\14.29.30133\atlmfc\include\afxcmn.inl

; 588  : 	{ ASSERT(::IsWindow(m_hWnd)); return (int)::SendMessage(m_hWnd, TCM_SETCURSEL, nItem, 0L); }

  0010b	6a 00		 push	 0
  0010d	6a 01		 push	 1
  0010f	68 0c 13 00 00	 push	 4876			; 0000130cH
  00114	ff b6 e0 00 00
	00		 push	 DWORD PTR [esi+224]
  0011a	ff d7		 call	 edi
; File D:\git\src\IBK\IBK_DRFN\ProjSrc\SrcDrfn\Chart\MULTICHART\LeftBarDlg.cpp

; 146  : 	}

  0011c	eb 3a		 jmp	 SHORT $LN5@SetConfig
$LN4@SetConfig:
; File C:\Program Files (x86)\Microsoft Visual Studio\2019\Community\VC\Tools\MSVC\14.29.30133\atlmfc\include\afxcmn.inl

; 586  : 	{ ASSERT(::IsWindow(m_hWnd)); return (int)::SendMessage(m_hWnd, TCM_GETCURSEL, 0, 0L); }

  0011e	6a 00		 push	 0
  00120	6a 00		 push	 0
  00122	68 0b 13 00 00	 push	 4875			; 0000130bH
  00127	ff b6 e0 00 00
	00		 push	 DWORD PTR [esi+224]
  0012d	ff d7		 call	 edi
; File D:\git\src\IBK\IBK_DRFN\ProjSrc\SrcDrfn\Chart\MULTICHART\LeftBarDlg.cpp

; 149  : 		strTemp.Format("%d",m_tabctrl.GetCurSel());

  0012f	50		 push	 eax
  00130	8d 45 a8	 lea	 eax, DWORD PTR _strTemp$[ebp]
  00133	68 00 00 00 00	 push	 OFFSET ??_C@_02DPKJAMEF@?$CFd@
  00138	50		 push	 eax
  00139	ff 15 00 00 00
	00		 call	 DWORD PTR __imp_?Format@?$CStringT@DV?$StrTraitMFC_DLL@DV?$ChTraitsCRT@D@ATL@@@@@ATL@@QAAXPBDZZ
  0013f	83 c4 0c	 add	 esp, 12			; 0000000cH

; 150  : 		::WritePrivateProfileString("LeftBar","TabPos",strTemp, strCfgFile);

  00142	ff 75 ac	 push	 DWORD PTR _strCfgFile$[ebp]
  00145	ff 75 a8	 push	 DWORD PTR _strTemp$[ebp]
  00148	68 00 00 00 00	 push	 OFFSET ??_C@_06BJMHLMHN@TabPos@
  0014d	68 00 00 00 00	 push	 OFFSET ??_C@_07IKJPBEOL@LeftBar@
  00152	ff 15 00 00 00
	00		 call	 DWORD PTR __imp__WritePrivateProfileStringA@16
$LN5@SetConfig:

; 151  : 	}
; 152  : }

  00158	8d 4d ac	 lea	 ecx, DWORD PTR _strCfgFile$[ebp]
  0015b	ff 15 00 00 00
	00		 call	 DWORD PTR __imp_??1?$CStringT@DV?$StrTraitMFC_DLL@DV?$ChTraitsCRT@D@ATL@@@@@ATL@@QAE@XZ
  00161	8d 4d a8	 lea	 ecx, DWORD PTR _strTemp$[ebp]
  00164	ff 15 00 00 00
	00		 call	 DWORD PTR __imp_??1?$CStringT@DV?$StrTraitMFC_DLL@DV?$ChTraitsCRT@D@ATL@@@@@ATL@@QAE@XZ
$LN1@SetConfig:
  0016a	8b 4d f4	 mov	 ecx, DWORD PTR __$EHRec$[ebp]
  0016d	64 89 0d 00 00
	00 00		 mov	 DWORD PTR fs:0, ecx
  00174	59		 pop	 ecx
  00175	5f		 pop	 edi
  00176	5e		 pop	 esi
  00177	8b 4d f0	 mov	 ecx, DWORD PTR __$ArrayPad$[ebp]
  0017a	33 cd		 xor	 ecx, ebp
  0017c	e8 00 00 00 00	 call	 @__security_check_cookie@4
  00181	8b e5		 mov	 esp, ebp
  00183	5d		 pop	 ebp
  00184	c2 04 00	 ret	 4
_TEXT	ENDS
;	COMDAT text$x
text$x	SEGMENT
__unwindfunclet$?SetConfig@CLeftBarDlg@@QAEXH@Z$0:
  00000	8d 4d a8	 lea	 ecx, DWORD PTR _strTemp$[ebp]
  00003	ff 25 00 00 00
	00		 jmp	 DWORD PTR __imp_??1?$CStringT@DV?$StrTraitMFC_DLL@DV?$ChTraitsCRT@D@ATL@@@@@ATL@@QAE@XZ
__unwindfunclet$?SetConfig@CLeftBarDlg@@QAEXH@Z$1:
  00009	8d 4d ac	 lea	 ecx, DWORD PTR _strCfgFile$[ebp]
  0000c	ff 25 00 00 00
	00		 jmp	 DWORD PTR __imp_??1?$CStringT@DV?$StrTraitMFC_DLL@DV?$ChTraitsCRT@D@ATL@@@@@ATL@@QAE@XZ
  00012	cc		 int	 3
  00013	cc		 int	 3
  00014	cc		 int	 3
  00015	cc		 int	 3
  00016	cc		 int	 3
__ehhandler$?SetConfig@CLeftBarDlg@@QAEXH@Z:
  00017	90		 npad	 1
  00018	90		 npad	 1
  00019	8b 54 24 08	 mov	 edx, DWORD PTR [esp+8]
  0001d	8d 42 0c	 lea	 eax, DWORD PTR [edx+12]
  00020	8b 4a a8	 mov	 ecx, DWORD PTR [edx-88]
  00023	33 c8		 xor	 ecx, eax
  00025	e8 00 00 00 00	 call	 @__security_check_cookie@4
  0002a	8b 4a fc	 mov	 ecx, DWORD PTR [edx-4]
  0002d	33 c8		 xor	 ecx, eax
  0002f	e8 00 00 00 00	 call	 @__security_check_cookie@4
  00034	b8 00 00 00 00	 mov	 eax, OFFSET __ehfuncinfo$?SetConfig@CLeftBarDlg@@QAEXH@Z
  00039	e9 00 00 00 00	 jmp	 ___CxxFrameHandler3
text$x	ENDS
?SetConfig@CLeftBarDlg@@QAEXH@Z ENDP			; CLeftBarDlg::SetConfig
; Function compile flags: /Ogtp
; File D:\git\src\IBK\IBK_DRFN\ProjSrc\SrcDrfn\Chart\MULTICHART\LeftBarDlg.cpp
;	COMDAT ?GetEnableWindow@CLeftBarDlg@@QAEHXZ
_TEXT	SEGMENT
?GetEnableWindow@CLeftBarDlg@@QAEHXZ PROC		; CLeftBarDlg::GetEnableWindow, COMDAT
; _this$ = ecx

; 516  : 	return m_bEnable;

  00000	8b 81 f0 01 00
	00		 mov	 eax, DWORD PTR [ecx+496]

; 517  : }

  00006	c3		 ret	 0
?GetEnableWindow@CLeftBarDlg@@QAEHXZ ENDP		; CLeftBarDlg::GetEnableWindow
_TEXT	ENDS
; Function compile flags: /Ogtp
; File D:\git\src\IBK\IBK_DRFN\ProjSrc\SrcDrfn\Chart\MULTICHART\LeftBarDlg.cpp
;	COMDAT ?EnableWindow@CLeftBarDlg@@QAEHH@Z
_TEXT	SEGMENT
_bEnable$ = 8						; size = 4
?EnableWindow@CLeftBarDlg@@QAEHH@Z PROC			; CLeftBarDlg::EnableWindow, COMDAT
; _this$ = ecx

; 509  : {

  00000	55		 push	 ebp
  00001	8b ec		 mov	 ebp, esp

; 510  : 	m_bEnable = bEnable;

  00003	8b 45 08	 mov	 eax, DWORD PTR _bEnable$[ebp]
  00006	89 81 f0 01 00
	00		 mov	 DWORD PTR [ecx+496], eax

; 511  : 	return CRscDlg::EnableWindow(bEnable);

  0000c	89 45 08	 mov	 DWORD PTR _bEnable$[ebp], eax

; 512  : }

  0000f	5d		 pop	 ebp

; 511  : 	return CRscDlg::EnableWindow(bEnable);

  00010	e9 00 00 00 00	 jmp	 ?EnableWindow@CWnd@@QAEHH@Z ; CWnd::EnableWindow
?EnableWindow@CLeftBarDlg@@QAEHH@Z ENDP			; CLeftBarDlg::EnableWindow
_TEXT	ENDS
; Function compile flags: /Ogtp
; File D:\git\src\IBK\IBK_DRFN\ProjSrc\SrcDrfn\Chart\MULTICHART\LeftBarDlg.cpp
;	COMDAT ?GetPacketFromOutSide@CLeftBarDlg@@QAE?AV?$CStringT@DV?$StrTraitMFC_DLL@DV?$ChTraitsCRT@D@ATL@@@@@ATL@@XZ
_TEXT	SEGMENT
___$ReturnUdt$ = 8					; size = 4
?GetPacketFromOutSide@CLeftBarDlg@@QAE?AV?$CStringT@DV?$StrTraitMFC_DLL@DV?$ChTraitsCRT@D@ATL@@@@@ATL@@XZ PROC ; CLeftBarDlg::GetPacketFromOutSide, COMDAT
; _this$ = ecx

; 373  : {		

  00000	55		 push	 ebp
  00001	8b ec		 mov	 ebp, esp

; 374  : 	return m_strPacketFromOutSide;

  00003	8d 81 ec 01 00
	00		 lea	 eax, DWORD PTR [ecx+492]
  00009	8b 4d 08	 mov	 ecx, DWORD PTR ___$ReturnUdt$[ebp]
  0000c	50		 push	 eax
  0000d	ff 15 00 00 00
	00		 call	 DWORD PTR __imp_??0?$CStringT@DV?$StrTraitMFC_DLL@DV?$ChTraitsCRT@D@ATL@@@@@ATL@@QAE@ABV01@@Z
  00013	8b 45 08	 mov	 eax, DWORD PTR ___$ReturnUdt$[ebp]

; 375  : }

  00016	5d		 pop	 ebp
  00017	c2 04 00	 ret	 4
?GetPacketFromOutSide@CLeftBarDlg@@QAE?AV?$CStringT@DV?$StrTraitMFC_DLL@DV?$ChTraitsCRT@D@ATL@@@@@ATL@@XZ ENDP ; CLeftBarDlg::GetPacketFromOutSide
_TEXT	ENDS
; Function compile flags: /Ogtp
; File D:\git\src\IBK\IBK_DRFN\ProjSrc\SrcDrfn\Chart\MULTICHART\LeftBarDlg.cpp
; File C:\Program Files (x86)\Microsoft Visual Studio\2019\Community\VC\Tools\MSVC\14.29.30133\atlmfc\include\afxwin2.inl
; File D:\git\src\IBK\IBK_DRFN\ProjSrc\SrcDrfn\Chart\MULTICHART\LeftBarDlg.cpp
; File C:\Program Files (x86)\Microsoft Visual Studio\2019\Community\VC\Tools\MSVC\14.29.30133\atlmfc\include\afxwin2.inl
; File D:\git\src\IBK\IBK_DRFN\ProjSrc\SrcDrfn\Chart\MULTICHART\LeftBarDlg.cpp
; File C:\Program Files (x86)\Microsoft Visual Studio\2019\Community\VC\Tools\MSVC\14.29.30133\atlmfc\include\afxwin2.inl
; File D:\git\src\IBK\IBK_DRFN\ProjSrc\SrcDrfn\Chart\MULTICHART\LeftBarDlg.cpp
;	COMDAT ?SetPacketFromOutSide@CLeftBarDlg@@QAEXV?$CStringT@DV?$StrTraitMFC_DLL@DV?$ChTraitsCRT@D@ATL@@@@@ATL@@@Z
_TEXT	SEGMENT
__$EHRec$ = -12						; size = 12
_strPacketFromOutSide$ = 8				; size = 4
?SetPacketFromOutSide@CLeftBarDlg@@QAEXV?$CStringT@DV?$StrTraitMFC_DLL@DV?$ChTraitsCRT@D@ATL@@@@@ATL@@@Z PROC ; CLeftBarDlg::SetPacketFromOutSide, COMDAT
; _this$ = ecx

; 358  : {	

  00000	55		 push	 ebp
  00001	8b ec		 mov	 ebp, esp
  00003	6a ff		 push	 -1
  00005	68 00 00 00 00	 push	 __ehhandler$?SetPacketFromOutSide@CLeftBarDlg@@QAEXV?$CStringT@DV?$StrTraitMFC_DLL@DV?$ChTraitsCRT@D@ATL@@@@@ATL@@@Z
  0000a	64 a1 00 00 00
	00		 mov	 eax, DWORD PTR fs:0
  00010	50		 push	 eax
  00011	56		 push	 esi
  00012	57		 push	 edi
  00013	a1 00 00 00 00	 mov	 eax, DWORD PTR ___security_cookie
  00018	33 c5		 xor	 eax, ebp
  0001a	50		 push	 eax
  0001b	8d 45 f4	 lea	 eax, DWORD PTR __$EHRec$[ebp]
  0001e	64 a3 00 00 00
	00		 mov	 DWORD PTR fs:0, eax
  00024	8b f9		 mov	 edi, ecx

; 359  : 	m_strPacketFromOutSide.Empty();

  00026	8d 8f ec 01 00
	00		 lea	 ecx, DWORD PTR [edi+492]
  0002c	c7 45 fc 00 00
	00 00		 mov	 DWORD PTR __$EHRec$[ebp+8], 0
  00033	ff 15 00 00 00
	00		 call	 DWORD PTR __imp_?Empty@?$CSimpleStringT@D$00@ATL@@QAEXXZ

; 360  : 	m_strPacketFromOutSide = strPacketFromOutSide;

  00039	8d 45 08	 lea	 eax, DWORD PTR _strPacketFromOutSide$[ebp]
  0003c	50		 push	 eax
  0003d	8d 8f ec 01 00
	00		 lea	 ecx, DWORD PTR [edi+492]
  00043	ff 15 00 00 00
	00		 call	 DWORD PTR __imp_??4?$CStringT@DV?$StrTraitMFC_DLL@DV?$ChTraitsCRT@D@ATL@@@@@ATL@@QAEAAV01@ABV01@@Z

; 361  : 	if(m_pChartMng->GetSafeHwnd()) // 2005. 04. 22 by Nam

  00049	8b 87 e0 01 00
	00		 mov	 eax, DWORD PTR [edi+480]
; File C:\Program Files (x86)\Microsoft Visual Studio\2019\Community\VC\Tools\MSVC\14.29.30133\atlmfc\include\afxwin2.inl

; 25   : 	{ return this == NULL ? NULL : m_hWnd; }

  0004f	85 c0		 test	 eax, eax
  00051	74 17		 je	 SHORT $LN2@SetPacketF
  00053	8b 40 20	 mov	 eax, DWORD PTR [eax+32]
; File D:\git\src\IBK\IBK_DRFN\ProjSrc\SrcDrfn\Chart\MULTICHART\LeftBarDlg.cpp

; 361  : 	if(m_pChartMng->GetSafeHwnd()) // 2005. 04. 22 by Nam

  00056	85 c0		 test	 eax, eax
  00058	74 10		 je	 SHORT $LN2@SetPacketF
; File C:\Program Files (x86)\Microsoft Visual Studio\2019\Community\VC\Tools\MSVC\14.29.30133\atlmfc\include\afxwin2.inl

; 32   : 	{ ASSERT(::IsWindow(m_hWnd)); return ::SendMessage(m_hWnd, message, wParam, lParam); }

  0005a	6a 00		 push	 0
  0005c	6a 00		 push	 0
  0005e	68 12 04 00 00	 push	 1042			; 00000412H
  00063	50		 push	 eax
  00064	ff 15 00 00 00
	00		 call	 DWORD PTR __imp__SendMessageA@16
$LN2@SetPacketF:
; File D:\git\src\IBK\IBK_DRFN\ProjSrc\SrcDrfn\Chart\MULTICHART\LeftBarDlg.cpp

; 363  : 	if( m_tabctrl.GetSafeHwnd() )

  0006a	8d b7 c0 00 00
	00		 lea	 esi, DWORD PTR [edi+192]
; File C:\Program Files (x86)\Microsoft Visual Studio\2019\Community\VC\Tools\MSVC\14.29.30133\atlmfc\include\afxwin2.inl

; 25   : 	{ return this == NULL ? NULL : m_hWnd; }

  00070	85 f6		 test	 esi, esi
  00072	74 27		 je	 SHORT $LN3@SetPacketF
; File D:\git\src\IBK\IBK_DRFN\ProjSrc\SrcDrfn\Chart\MULTICHART\LeftBarDlg.cpp

; 363  : 	if( m_tabctrl.GetSafeHwnd() )

  00074	83 7e 20 00	 cmp	 DWORD PTR [esi+32], 0
  00078	74 21		 je	 SHORT $LN3@SetPacketF

; 364  : 	{
; 365  : 		CTabDlg *pTabDlg = m_tabctrl.GetWndCodeSearch();

  0007a	8b 8f 9c 01 00
	00		 mov	 ecx, DWORD PTR [edi+412]

; 366  : 		if( pTabDlg && pTabDlg->GetSafeHwnd() )

  00080	85 c9		 test	 ecx, ecx
  00082	74 0e		 je	 SHORT $LN4@SetPacketF
  00084	83 79 20 00	 cmp	 DWORD PTR [ecx+32], 0
  00088	74 08		 je	 SHORT $LN4@SetPacketF

; 367  : 			pTabDlg->ReceiveDataFromOutSide();

  0008a	8b 01		 mov	 eax, DWORD PTR [ecx]
  0008c	ff 90 9c 01 00
	00		 call	 DWORD PTR [eax+412]
$LN4@SetPacketF:

; 368  : 		m_tabctrl.ShowTab(TABNO_CODESEARCH);

  00092	6a 00		 push	 0
  00094	8b ce		 mov	 ecx, esi
  00096	e8 00 00 00 00	 call	 ?ShowTab@CXTabCtrl@@QAEXH@Z ; CXTabCtrl::ShowTab
$LN3@SetPacketF:

; 369  : 	}
; 370  : }

  0009b	8d 4d 08	 lea	 ecx, DWORD PTR _strPacketFromOutSide$[ebp]
  0009e	ff 15 00 00 00
	00		 call	 DWORD PTR __imp_??1?$CStringT@DV?$StrTraitMFC_DLL@DV?$ChTraitsCRT@D@ATL@@@@@ATL@@QAE@XZ
  000a4	8b 4d f4	 mov	 ecx, DWORD PTR __$EHRec$[ebp]
  000a7	64 89 0d 00 00
	00 00		 mov	 DWORD PTR fs:0, ecx
  000ae	59		 pop	 ecx
  000af	5f		 pop	 edi
  000b0	5e		 pop	 esi
  000b1	8b e5		 mov	 esp, ebp
  000b3	5d		 pop	 ebp
  000b4	c2 04 00	 ret	 4
_TEXT	ENDS
;	COMDAT text$x
text$x	SEGMENT
__unwindfunclet$?SetPacketFromOutSide@CLeftBarDlg@@QAEXV?$CStringT@DV?$StrTraitMFC_DLL@DV?$ChTraitsCRT@D@ATL@@@@@ATL@@@Z$0:
  00000	8d 4d 08	 lea	 ecx, DWORD PTR _strPacketFromOutSide$[ebp]
  00003	ff 25 00 00 00
	00		 jmp	 DWORD PTR __imp_??1?$CStringT@DV?$StrTraitMFC_DLL@DV?$ChTraitsCRT@D@ATL@@@@@ATL@@QAE@XZ
  00009	cc		 int	 3
  0000a	cc		 int	 3
  0000b	cc		 int	 3
  0000c	cc		 int	 3
  0000d	cc		 int	 3
__ehhandler$?SetPacketFromOutSide@CLeftBarDlg@@QAEXV?$CStringT@DV?$StrTraitMFC_DLL@DV?$ChTraitsCRT@D@ATL@@@@@ATL@@@Z:
  0000e	90		 npad	 1
  0000f	90		 npad	 1
  00010	8b 54 24 08	 mov	 edx, DWORD PTR [esp+8]
  00014	8d 42 0c	 lea	 eax, DWORD PTR [edx+12]
  00017	8b 4a f4	 mov	 ecx, DWORD PTR [edx-12]
  0001a	33 c8		 xor	 ecx, eax
  0001c	e8 00 00 00 00	 call	 @__security_check_cookie@4
  00021	b8 00 00 00 00	 mov	 eax, OFFSET __ehfuncinfo$?SetPacketFromOutSide@CLeftBarDlg@@QAEXV?$CStringT@DV?$StrTraitMFC_DLL@DV?$ChTraitsCRT@D@ATL@@@@@ATL@@@Z
  00026	e9 00 00 00 00	 jmp	 ___CxxFrameHandler3
text$x	ENDS
?SetPacketFromOutSide@CLeftBarDlg@@QAEXV?$CStringT@DV?$StrTraitMFC_DLL@DV?$ChTraitsCRT@D@ATL@@@@@ATL@@@Z ENDP ; CLeftBarDlg::SetPacketFromOutSide
; Function compile flags: /Ogtp
; File D:\git\src\IBK\IBK_DRFN\ProjSrc\SrcDrfn\Chart\MULTICHART\LeftBarDlg.cpp
; File C:\Program Files (x86)\Microsoft Visual Studio\2019\Community\VC\Tools\MSVC\14.29.30133\atlmfc\include\afxwin2.inl
; File D:\git\src\IBK\IBK_DRFN\ProjSrc\SrcDrfn\Chart\MULTICHART\LeftBarDlg.cpp
;	COMDAT ?ReceiveData@CLeftBarDlg@@QAEJPAUHWND__@@PBD11PAXJ@Z
_TEXT	SEGMENT
_hTrComm$ = 8						; size = 4
_szTR$ = 12						; size = 4
_szMsgCode$ = 16					; size = 4
_szMessage$ = 20					; size = 4
_aTRData$ = 24						; size = 4
_dwTRDateLen$ = 28					; size = 4
?ReceiveData@CLeftBarDlg@@QAEJPAUHWND__@@PBD11PAXJ@Z PROC ; CLeftBarDlg::ReceiveData, COMDAT
; _this$ = ecx

; 162  : {

  00000	55		 push	 ebp
  00001	8b ec		 mov	 ebp, esp
  00003	56		 push	 esi
  00004	8b f1		 mov	 esi, ecx

; 163  : 	if( m_tabctrl.GetSafeHwnd() )

  00006	8d 86 c0 00 00
	00		 lea	 eax, DWORD PTR [esi+192]
; File C:\Program Files (x86)\Microsoft Visual Studio\2019\Community\VC\Tools\MSVC\14.29.30133\atlmfc\include\afxwin2.inl

; 25   : 	{ return this == NULL ? NULL : m_hWnd; }

  0000c	85 c0		 test	 eax, eax
  0000e	74 50		 je	 SHORT $LN12@ReceiveDat
; File D:\git\src\IBK\IBK_DRFN\ProjSrc\SrcDrfn\Chart\MULTICHART\LeftBarDlg.cpp

; 163  : 	if( m_tabctrl.GetSafeHwnd() )

  00010	83 78 20 00	 cmp	 DWORD PTR [eax+32], 0
  00014	74 4a		 je	 SHORT $LN12@ReceiveDat

; 164  : 	{
; 165  : 		CTabDlg *ptabDlg = (CTabDlg *)m_tabctrl.GetWndFocused();

  00016	8b 8e 98 01 00
	00		 mov	 ecx, DWORD PTR [esi+408]

; 166  : 		if(ptabDlg)

  0001c	8b 55 14	 mov	 edx, DWORD PTR _szMessage$[ebp]
  0001f	85 c9		 test	 ecx, ecx
  00021	74 1b		 je	 SHORT $LN3@ReceiveDat

; 167  : 		{
; 168  : 			ptabDlg->ReceiveData( hTrComm,  szTR,  szMsgCode,  szMessage,  aTRData,  dwTRDateLen);

  00023	ff 75 1c	 push	 DWORD PTR _dwTRDateLen$[ebp]
  00026	8b 01		 mov	 eax, DWORD PTR [ecx]
  00028	ff 75 18	 push	 DWORD PTR _aTRData$[ebp]
  0002b	52		 push	 edx
  0002c	ff 75 10	 push	 DWORD PTR _szMsgCode$[ebp]
  0002f	ff 75 0c	 push	 DWORD PTR _szTR$[ebp]
  00032	ff 75 08	 push	 DWORD PTR _hTrComm$[ebp]
  00035	ff 90 94 01 00
	00		 call	 DWORD PTR [eax+404]
  0003b	8b 55 14	 mov	 edx, DWORD PTR _szMessage$[ebp]
$LN3@ReceiveDat:

; 169  : 		}	
; 170  : 		ptabDlg = (CTabDlg *)m_tabctrl.GetWndCodeSearch();

  0003e	8b 8e 9c 01 00
	00		 mov	 ecx, DWORD PTR [esi+412]

; 171  : 		if(ptabDlg)

  00044	85 c9		 test	 ecx, ecx
  00046	74 18		 je	 SHORT $LN12@ReceiveDat

; 172  : 		{
; 173  : 			ptabDlg->ReceiveData( hTrComm,  szTR,  szMsgCode,  szMessage,  aTRData,  dwTRDateLen);

  00048	ff 75 1c	 push	 DWORD PTR _dwTRDateLen$[ebp]
  0004b	8b 01		 mov	 eax, DWORD PTR [ecx]
  0004d	ff 75 18	 push	 DWORD PTR _aTRData$[ebp]
  00050	52		 push	 edx
  00051	ff 75 10	 push	 DWORD PTR _szMsgCode$[ebp]
  00054	ff 75 0c	 push	 DWORD PTR _szTR$[ebp]
  00057	ff 75 08	 push	 DWORD PTR _hTrComm$[ebp]
  0005a	ff 90 94 01 00
	00		 call	 DWORD PTR [eax+404]
$LN12@ReceiveDat:

; 174  : 		}
; 175  : 	}
; 176  : 	return NULL;
; 177  : }

  00060	33 c0		 xor	 eax, eax
  00062	5e		 pop	 esi
  00063	5d		 pop	 ebp
  00064	c2 18 00	 ret	 24			; 00000018H
?ReceiveData@CLeftBarDlg@@QAEJPAUHWND__@@PBD11PAXJ@Z ENDP ; CLeftBarDlg::ReceiveData
_TEXT	ENDS
; Function compile flags: /Ogtp
; File D:\git\src\IBK\IBK_DRFN\ProjSrc\SrcDrfn\Chart\MULTICHART\LeftBarDlg.cpp
;	COMDAT ?GetIndicatorNameListIntoTreeCtrl@CLeftBarDlg@@QAEXAAVCTreeCtrl@@@Z
_TEXT	SEGMENT
_rxtreeCtrl$ = 8					; size = 4
?GetIndicatorNameListIntoTreeCtrl@CLeftBarDlg@@QAEXAAVCTreeCtrl@@@Z PROC ; CLeftBarDlg::GetIndicatorNameListIntoTreeCtrl, COMDAT
; _this$ = ecx

; 195  : {

  00000	55		 push	 ebp
  00001	8b ec		 mov	 ebp, esp

; 196  : 	//Han Hwa ======================================
; 197  : 	if(
; 198  : 		(m_pChartMng == NULL) ||

  00003	8b 89 e0 01 00
	00		 mov	 ecx, DWORD PTR [ecx+480]
  00009	85 c9		 test	 ecx, ecx
  0000b	74 0c		 je	 SHORT $LN3@GetIndicat
  0000d	83 79 20 00	 cmp	 DWORD PTR [ecx+32], 0
  00011	74 06		 je	 SHORT $LN3@GetIndicat

; 211  : 		}		
; 212  : 	}
; 213  : 	
; 214  : }

  00013	5d		 pop	 ebp

; 199  : 		(m_pChartMng->GetSafeHwnd() == NULL) 
; 200  : 		)
; 201  : 		return;
; 202  : 	//Han Hwa ======================================
; 203  : 
; 204  : 	//VERIFY(m_pChartMng);
; 205  : 	//VERIFY(m_pChartMng->GetSafeHwnd());
; 206  : 	if(m_pChartMng)
; 207  : 	{
; 208  : 		if(m_pChartMng->GetSafeHwnd())
; 209  : 		{
; 210  : 			m_pChartMng->GetIndicatorNameListIntoTreeCtrl(rxtreeCtrl);

  00014	e9 00 00 00 00	 jmp	 ?GetIndicatorNameListIntoTreeCtrl@CChartMng@@QAEXAAVCTreeCtrl@@@Z ; CChartMng::GetIndicatorNameListIntoTreeCtrl
$LN3@GetIndicat:

; 211  : 		}		
; 212  : 	}
; 213  : 	
; 214  : }

  00019	5d		 pop	 ebp
  0001a	c2 04 00	 ret	 4
?GetIndicatorNameListIntoTreeCtrl@CLeftBarDlg@@QAEXAAVCTreeCtrl@@@Z ENDP ; CLeftBarDlg::GetIndicatorNameListIntoTreeCtrl
_TEXT	ENDS
; Function compile flags: /Ogtp
; File D:\git\src\IBK\IBK_DRFN\ProjSrc\SrcDrfn\Chart\MULTICHART\LeftBarDlg.cpp
;	COMDAT ?GetIndicatorNameListIntoListCtrl@CLeftBarDlg@@QAEXAAVCXListCtrl@@PBD@Z
_TEXT	SEGMENT
_rxlistCtrl$ = 8					; size = 4
_p_strGroup$ = 12					; size = 4
?GetIndicatorNameListIntoListCtrl@CLeftBarDlg@@QAEXAAVCXListCtrl@@PBD@Z PROC ; CLeftBarDlg::GetIndicatorNameListIntoListCtrl, COMDAT
; _this$ = ecx

; 180  : {

  00000	55		 push	 ebp
  00001	8b ec		 mov	 ebp, esp

; 181  : 	//VERIFY(m_pChartMng);
; 182  : 	//VERIFY(m_pChartMng->GetSafeHwnd());
; 183  : 
; 184  : 	if(m_pChartMng)

  00003	8b 89 e0 01 00
	00		 mov	 ecx, DWORD PTR [ecx+480]
  00009	85 c9		 test	 ecx, ecx
  0000b	74 0c		 je	 SHORT $LN3@GetIndicat

; 185  : 	{
; 186  : 		if(m_pChartMng->GetSafeHwnd())

  0000d	83 79 20 00	 cmp	 DWORD PTR [ecx+32], 0
  00011	74 06		 je	 SHORT $LN3@GetIndicat

; 189  : 		}
; 190  : 	}
; 191  : 	
; 192  : }

  00013	5d		 pop	 ebp

; 187  : 		{
; 188  : 			m_pChartMng->GetIndicatorNameListIntoListCtrl(rxlistCtrl, p_strGroup);

  00014	e9 00 00 00 00	 jmp	 ?GetIndicatorNameListIntoListCtrl@CChartMng@@QAEXAAVCXListCtrl@@PBD@Z ; CChartMng::GetIndicatorNameListIntoListCtrl
$LN3@GetIndicat:

; 189  : 		}
; 190  : 	}
; 191  : 	
; 192  : }

  00019	5d		 pop	 ebp
  0001a	c2 08 00	 ret	 8
?GetIndicatorNameListIntoListCtrl@CLeftBarDlg@@QAEXAAVCXListCtrl@@PBD@Z ENDP ; CLeftBarDlg::GetIndicatorNameListIntoListCtrl
_TEXT	ENDS
; Function compile flags: /Ogtp
; File D:\git\src\IBK\IBK_DRFN\ProjSrc\SrcDrfn\Chart\MULTICHART\LeftBarDlg.cpp
; File C:\Program Files (x86)\Microsoft Visual Studio\2019\Community\VC\Tools\MSVC\14.29.30133\atlmfc\include\afxwin2.inl
; File D:\git\src\IBK\IBK_DRFN\ProjSrc\SrcDrfn\Chart\MULTICHART\LeftBarDlg.cpp
;	COMDAT ?SetRealPriceData@CLeftBarDlg@@QAEXPAX@Z
_TEXT	SEGMENT
_pData$ = 8						; size = 4
?SetRealPriceData@CLeftBarDlg@@QAEXPAX@Z PROC		; CLeftBarDlg::SetRealPriceData, COMDAT
; _this$ = ecx

; 341  : {

  00000	55		 push	 ebp
  00001	8b ec		 mov	 ebp, esp
  00003	56		 push	 esi
  00004	8b f1		 mov	 esi, ecx

; 342  : 	if( m_tabctrl.GetSafeHwnd() )

  00006	8d 86 c0 00 00
	00		 lea	 eax, DWORD PTR [esi+192]
; File C:\Program Files (x86)\Microsoft Visual Studio\2019\Community\VC\Tools\MSVC\14.29.30133\atlmfc\include\afxwin2.inl

; 25   : 	{ return this == NULL ? NULL : m_hWnd; }

  0000c	85 c0		 test	 eax, eax
  0000e	74 3b		 je	 SHORT $LN4@SetRealPri
; File D:\git\src\IBK\IBK_DRFN\ProjSrc\SrcDrfn\Chart\MULTICHART\LeftBarDlg.cpp

; 342  : 	if( m_tabctrl.GetSafeHwnd() )

  00010	83 78 20 00	 cmp	 DWORD PTR [eax+32], 0
  00014	74 35		 je	 SHORT $LN4@SetRealPri

; 343  : 	{
; 344  : 		CTabDlg *ptabDlg = (CTabDlg *)m_tabctrl.GetWndFocused();

  00016	8b 8e 98 01 00
	00		 mov	 ecx, DWORD PTR [esi+408]

; 345  : 		if(ptabDlg && ptabDlg->GetSafeHwnd())

  0001c	85 c9		 test	 ecx, ecx
  0001e	74 11		 je	 SHORT $LN3@SetRealPri
  00020	83 79 20 00	 cmp	 DWORD PTR [ecx+32], 0
  00024	74 0b		 je	 SHORT $LN3@SetRealPri

; 346  : 		{
; 347  : 			ptabDlg->SetRealPriceData(pData);

  00026	8b 01		 mov	 eax, DWORD PTR [ecx]
  00028	ff 75 08	 push	 DWORD PTR _pData$[ebp]
  0002b	ff 90 98 01 00
	00		 call	 DWORD PTR [eax+408]
$LN3@SetRealPri:

; 348  : 		}	
; 349  : 		ptabDlg = (CTabDlg *)m_tabctrl.GetWndCodeSearch();

  00031	8b 8e 9c 01 00
	00		 mov	 ecx, DWORD PTR [esi+412]

; 350  : 		if(ptabDlg && ptabDlg->GetSafeHwnd())

  00037	85 c9		 test	 ecx, ecx
  00039	74 10		 je	 SHORT $LN4@SetRealPri
  0003b	83 79 20 00	 cmp	 DWORD PTR [ecx+32], 0
  0003f	74 0a		 je	 SHORT $LN4@SetRealPri

; 351  : 		{
; 352  : 			ptabDlg->SetRealPriceData(pData);

  00041	8b 01		 mov	 eax, DWORD PTR [ecx]
  00043	5e		 pop	 esi

; 353  : 		}
; 354  : 	}
; 355  : }

  00044	5d		 pop	 ebp

; 351  : 		{
; 352  : 			ptabDlg->SetRealPriceData(pData);

  00045	ff a0 98 01 00
	00		 jmp	 DWORD PTR [eax+408]
$LN4@SetRealPri:
  0004b	5e		 pop	 esi

; 353  : 		}
; 354  : 	}
; 355  : }

  0004c	5d		 pop	 ebp
  0004d	c2 04 00	 ret	 4
?SetRealPriceData@CLeftBarDlg@@QAEXPAX@Z ENDP		; CLeftBarDlg::SetRealPriceData
_TEXT	ENDS
; Function compile flags: /Ogtp
; File D:\git\src\IBK\IBK_DRFN\ProjSrc\SrcDrfn\Chart\MULTICHART\LeftBarDlg.cpp
;	COMDAT ?IsAdvisingCodeOf@CLeftBarDlg@@QAEHPBD@Z
_TEXT	SEGMENT
_lpCode$ = 8						; size = 4
?IsAdvisingCodeOf@CLeftBarDlg@@QAEHPBD@Z PROC		; CLeftBarDlg::IsAdvisingCodeOf, COMDAT
; _this$ = ecx

; 314  : {

  00000	55		 push	 ebp
  00001	8b ec		 mov	 ebp, esp

; 315  : 	return (BOOL)m_Codes.Find(lpCode);

  00003	6a 00		 push	 0
  00005	ff 75 08	 push	 DWORD PTR _lpCode$[ebp]
  00008	81 c1 c0 01 00
	00		 add	 ecx, 448		; 000001c0H
  0000e	e8 00 00 00 00	 call	 ?Find@CStringList@@QBEPAU__POSITION@@PBDPAU2@@Z ; CStringList::Find

; 316  : }

  00013	5d		 pop	 ebp
  00014	c2 04 00	 ret	 4
?IsAdvisingCodeOf@CLeftBarDlg@@QAEHPBD@Z ENDP		; CLeftBarDlg::IsAdvisingCodeOf
_TEXT	ENDS
; Function compile flags: /Ogtp
; File D:\git\src\IBK\IBK_DRFN\ProjSrc\SrcDrfn\Chart\MULTICHART\LeftBarDlg.cpp
;	COMDAT ?OnCodeUnAdvise@CLeftBarDlg@@QAEXV?$CStringT@DV?$StrTraitMFC_DLL@DV?$ChTraitsCRT@D@ATL@@@@@ATL@@@Z
_TEXT	SEGMENT
__$EHRec$ = -12						; size = 12
_strCode$ = 8						; size = 4
?OnCodeUnAdvise@CLeftBarDlg@@QAEXV?$CStringT@DV?$StrTraitMFC_DLL@DV?$ChTraitsCRT@D@ATL@@@@@ATL@@@Z PROC ; CLeftBarDlg::OnCodeUnAdvise, COMDAT
; _this$ = ecx

; 330  : {

  00000	55		 push	 ebp
  00001	8b ec		 mov	 ebp, esp
  00003	6a ff		 push	 -1
  00005	68 00 00 00 00	 push	 __ehhandler$?OnCodeUnAdvise@CLeftBarDlg@@QAEXV?$CStringT@DV?$StrTraitMFC_DLL@DV?$ChTraitsCRT@D@ATL@@@@@ATL@@@Z
  0000a	64 a1 00 00 00
	00		 mov	 eax, DWORD PTR fs:0
  00010	50		 push	 eax
  00011	51		 push	 ecx
  00012	56		 push	 esi
  00013	57		 push	 edi
  00014	a1 00 00 00 00	 mov	 eax, DWORD PTR ___security_cookie
  00019	33 c5		 xor	 eax, ebp
  0001b	50		 push	 eax
  0001c	8d 45 f4	 lea	 eax, DWORD PTR __$EHRec$[ebp]
  0001f	64 a3 00 00 00
	00		 mov	 DWORD PTR fs:0, eax
  00025	8b f1		 mov	 esi, ecx

; 331  : 	POSITION pos;
; 332  : 	//     
; 333  : 	if( ( pos = m_Codes.Find(strCode) ) != NULL )

  00027	6a 00		 push	 0
  00029	ff 75 08	 push	 DWORD PTR _strCode$[ebp]
  0002c	8d 8e c0 01 00
	00		 lea	 ecx, DWORD PTR [esi+448]
  00032	c7 45 fc 00 00
	00 00		 mov	 DWORD PTR __$EHRec$[ebp+8], 0
  00039	e8 00 00 00 00	 call	 ?Find@CStringList@@QBEPAU__POSITION@@PBDPAU2@@Z ; CStringList::Find
  0003e	85 c0		 test	 eax, eax
  00040	74 26		 je	 SHORT $LN2@OnCodeUnAd

; 334  : 	{
; 335  : 		m_Codes.RemoveAt(pos);

  00042	50		 push	 eax
  00043	8d 8e c0 01 00
	00		 lea	 ecx, DWORD PTR [esi+448]
  00049	e8 00 00 00 00	 call	 ?RemoveAt@CStringList@@QAEXPAU__POSITION@@@Z ; CStringList::RemoveAt

; 336  : 		m_pStdDialog->OnCodeUnAdvise(strCode, FALSE);		//   :  - ojtaso (20070208)

  0004e	6a 00		 push	 0
  00050	51		 push	 ecx
  00051	8d 45 08	 lea	 eax, DWORD PTR _strCode$[ebp]
  00054	8b cc		 mov	 ecx, esp
  00056	50		 push	 eax
  00057	ff 15 00 00 00
	00		 call	 DWORD PTR __imp_??0?$CStringT@DV?$StrTraitMFC_DLL@DV?$ChTraitsCRT@D@ATL@@@@@ATL@@QAE@ABV01@@Z
  0005d	8b 8e dc 01 00
	00		 mov	 ecx, DWORD PTR [esi+476]
  00063	e8 00 00 00 00	 call	 ?OnCodeUnAdvise@CStdDialog@@QAEXV?$CStringT@DV?$StrTraitMFC_DLL@DV?$ChTraitsCRT@D@ATL@@@@@ATL@@H@Z ; CStdDialog::OnCodeUnAdvise
$LN2@OnCodeUnAd:

; 337  : 	}	
; 338  : }

  00068	8d 4d 08	 lea	 ecx, DWORD PTR _strCode$[ebp]
  0006b	ff 15 00 00 00
	00		 call	 DWORD PTR __imp_??1?$CStringT@DV?$StrTraitMFC_DLL@DV?$ChTraitsCRT@D@ATL@@@@@ATL@@QAE@XZ
  00071	8b 4d f4	 mov	 ecx, DWORD PTR __$EHRec$[ebp]
  00074	64 89 0d 00 00
	00 00		 mov	 DWORD PTR fs:0, ecx
  0007b	59		 pop	 ecx
  0007c	5f		 pop	 edi
  0007d	5e		 pop	 esi
  0007e	8b e5		 mov	 esp, ebp
  00080	5d		 pop	 ebp
  00081	c2 04 00	 ret	 4
_TEXT	ENDS
;	COMDAT text$x
text$x	SEGMENT
__unwindfunclet$?OnCodeUnAdvise@CLeftBarDlg@@QAEXV?$CStringT@DV?$StrTraitMFC_DLL@DV?$ChTraitsCRT@D@ATL@@@@@ATL@@@Z$0:
  00000	8d 4d 08	 lea	 ecx, DWORD PTR _strCode$[ebp]
  00003	ff 25 00 00 00
	00		 jmp	 DWORD PTR __imp_??1?$CStringT@DV?$StrTraitMFC_DLL@DV?$ChTraitsCRT@D@ATL@@@@@ATL@@QAE@XZ
  00009	cc		 int	 3
  0000a	cc		 int	 3
  0000b	cc		 int	 3
  0000c	cc		 int	 3
  0000d	cc		 int	 3
__ehhandler$?OnCodeUnAdvise@CLeftBarDlg@@QAEXV?$CStringT@DV?$StrTraitMFC_DLL@DV?$ChTraitsCRT@D@ATL@@@@@ATL@@@Z:
  0000e	90		 npad	 1
  0000f	90		 npad	 1
  00010	8b 54 24 08	 mov	 edx, DWORD PTR [esp+8]
  00014	8d 42 0c	 lea	 eax, DWORD PTR [edx+12]
  00017	8b 4a f0	 mov	 ecx, DWORD PTR [edx-16]
  0001a	33 c8		 xor	 ecx, eax
  0001c	e8 00 00 00 00	 call	 @__security_check_cookie@4
  00021	b8 00 00 00 00	 mov	 eax, OFFSET __ehfuncinfo$?OnCodeUnAdvise@CLeftBarDlg@@QAEXV?$CStringT@DV?$StrTraitMFC_DLL@DV?$ChTraitsCRT@D@ATL@@@@@ATL@@@Z
  00026	e9 00 00 00 00	 jmp	 ___CxxFrameHandler3
text$x	ENDS
?OnCodeUnAdvise@CLeftBarDlg@@QAEXV?$CStringT@DV?$StrTraitMFC_DLL@DV?$ChTraitsCRT@D@ATL@@@@@ATL@@@Z ENDP ; CLeftBarDlg::OnCodeUnAdvise
; Function compile flags: /Ogtp
; File D:\git\src\IBK\IBK_DRFN\ProjSrc\SrcDrfn\Chart\MULTICHART\LeftBarDlg.cpp
;	COMDAT ?OnCodeAdvise@CLeftBarDlg@@QAEXV?$CStringT@DV?$StrTraitMFC_DLL@DV?$ChTraitsCRT@D@ATL@@@@@ATL@@@Z
_TEXT	SEGMENT
__$EHRec$ = -12						; size = 12
_strCode$ = 8						; size = 4
?OnCodeAdvise@CLeftBarDlg@@QAEXV?$CStringT@DV?$StrTraitMFC_DLL@DV?$ChTraitsCRT@D@ATL@@@@@ATL@@@Z PROC ; CLeftBarDlg::OnCodeAdvise, COMDAT
; _this$ = ecx

; 319  : {

  00000	55		 push	 ebp
  00001	8b ec		 mov	 ebp, esp
  00003	6a ff		 push	 -1
  00005	68 00 00 00 00	 push	 __ehhandler$?OnCodeAdvise@CLeftBarDlg@@QAEXV?$CStringT@DV?$StrTraitMFC_DLL@DV?$ChTraitsCRT@D@ATL@@@@@ATL@@@Z
  0000a	64 a1 00 00 00
	00		 mov	 eax, DWORD PTR fs:0
  00010	50		 push	 eax
  00011	51		 push	 ecx
  00012	56		 push	 esi
  00013	57		 push	 edi
  00014	a1 00 00 00 00	 mov	 eax, DWORD PTR ___security_cookie
  00019	33 c5		 xor	 eax, ebp
  0001b	50		 push	 eax
  0001c	8d 45 f4	 lea	 eax, DWORD PTR __$EHRec$[ebp]
  0001f	64 a3 00 00 00
	00		 mov	 DWORD PTR fs:0, eax
  00025	8b f1		 mov	 esi, ecx

; 320  : 	POSITION pos;
; 321  : 	//     
; 322  : 	if( ( pos = m_Codes.Find(strCode) ) == NULL )

  00027	6a 00		 push	 0
  00029	ff 75 08	 push	 DWORD PTR _strCode$[ebp]
  0002c	8d 8e c0 01 00
	00		 lea	 ecx, DWORD PTR [esi+448]
  00032	c7 45 fc 00 00
	00 00		 mov	 DWORD PTR __$EHRec$[ebp+8], 0
  00039	e8 00 00 00 00	 call	 ?Find@CStringList@@QBEPAU__POSITION@@PBDPAU2@@Z ; CStringList::Find
  0003e	85 c0		 test	 eax, eax
  00040	75 29		 jne	 SHORT $LN2@OnCodeAdvi

; 323  : 	{
; 324  : 		m_Codes.AddTail(strCode);

  00042	8d 45 08	 lea	 eax, DWORD PTR _strCode$[ebp]
  00045	50		 push	 eax
  00046	8d 8e c0 01 00
	00		 lea	 ecx, DWORD PTR [esi+448]
  0004c	e8 00 00 00 00	 call	 ?AddTail@CStringList@@QAEPAU__POSITION@@ABV?$CStringT@DV?$StrTraitMFC_DLL@DV?$ChTraitsCRT@D@ATL@@@@@ATL@@@Z ; CStringList::AddTail

; 325  : 		m_pStdDialog->OnCodeAdvise(strCode, FALSE);		//   :  - ojtaso (20070208)	

  00051	6a 00		 push	 0
  00053	51		 push	 ecx
  00054	8d 45 08	 lea	 eax, DWORD PTR _strCode$[ebp]
  00057	8b cc		 mov	 ecx, esp
  00059	50		 push	 eax
  0005a	ff 15 00 00 00
	00		 call	 DWORD PTR __imp_??0?$CStringT@DV?$StrTraitMFC_DLL@DV?$ChTraitsCRT@D@ATL@@@@@ATL@@QAE@ABV01@@Z
  00060	8b 8e dc 01 00
	00		 mov	 ecx, DWORD PTR [esi+476]
  00066	e8 00 00 00 00	 call	 ?OnCodeAdvise@CStdDialog@@QAEXV?$CStringT@DV?$StrTraitMFC_DLL@DV?$ChTraitsCRT@D@ATL@@@@@ATL@@H@Z ; CStdDialog::OnCodeAdvise
$LN2@OnCodeAdvi:

; 326  : 	}	
; 327  : }

  0006b	8d 4d 08	 lea	 ecx, DWORD PTR _strCode$[ebp]
  0006e	ff 15 00 00 00
	00		 call	 DWORD PTR __imp_??1?$CStringT@DV?$StrTraitMFC_DLL@DV?$ChTraitsCRT@D@ATL@@@@@ATL@@QAE@XZ
  00074	8b 4d f4	 mov	 ecx, DWORD PTR __$EHRec$[ebp]
  00077	64 89 0d 00 00
	00 00		 mov	 DWORD PTR fs:0, ecx
  0007e	59		 pop	 ecx
  0007f	5f		 pop	 edi
  00080	5e		 pop	 esi
  00081	8b e5		 mov	 esp, ebp
  00083	5d		 pop	 ebp
  00084	c2 04 00	 ret	 4
_TEXT	ENDS
;	COMDAT text$x
text$x	SEGMENT
__unwindfunclet$?OnCodeAdvise@CLeftBarDlg@@QAEXV?$CStringT@DV?$StrTraitMFC_DLL@DV?$ChTraitsCRT@D@ATL@@@@@ATL@@@Z$0:
  00000	8d 4d 08	 lea	 ecx, DWORD PTR _strCode$[ebp]
  00003	ff 25 00 00 00
	00		 jmp	 DWORD PTR __imp_??1?$CStringT@DV?$StrTraitMFC_DLL@DV?$ChTraitsCRT@D@ATL@@@@@ATL@@QAE@XZ
  00009	cc		 int	 3
  0000a	cc		 int	 3
  0000b	cc		 int	 3
  0000c	cc		 int	 3
  0000d	cc		 int	 3
__ehhandler$?OnCodeAdvise@CLeftBarDlg@@QAEXV?$CStringT@DV?$StrTraitMFC_DLL@DV?$ChTraitsCRT@D@ATL@@@@@ATL@@@Z:
  0000e	90		 npad	 1
  0000f	90		 npad	 1
  00010	8b 54 24 08	 mov	 edx, DWORD PTR [esp+8]
  00014	8d 42 0c	 lea	 eax, DWORD PTR [edx+12]
  00017	8b 4a f0	 mov	 ecx, DWORD PTR [edx-16]
  0001a	33 c8		 xor	 ecx, eax
  0001c	e8 00 00 00 00	 call	 @__security_check_cookie@4
  00021	b8 00 00 00 00	 mov	 eax, OFFSET __ehfuncinfo$?OnCodeAdvise@CLeftBarDlg@@QAEXV?$CStringT@DV?$StrTraitMFC_DLL@DV?$ChTraitsCRT@D@ATL@@@@@ATL@@@Z
  00026	e9 00 00 00 00	 jmp	 ___CxxFrameHandler3
text$x	ENDS
?OnCodeAdvise@CLeftBarDlg@@QAEXV?$CStringT@DV?$StrTraitMFC_DLL@DV?$ChTraitsCRT@D@ATL@@@@@ATL@@@Z ENDP ; CLeftBarDlg::OnCodeAdvise
; Function compile flags: /Ogtp
; File D:\git\src\IBK\IBK_DRFN\ProjSrc\SrcDrfn\Chart\MULTICHART\LeftBarDlg.cpp
; File C:\Program Files (x86)\Microsoft Visual Studio\2019\Community\VC\Tools\MSVC\14.29.30133\atlmfc\include\afxwin2.inl
; File D:\git\src\IBK\IBK_DRFN\ProjSrc\SrcDrfn\Chart\MULTICHART\LeftBarDlg.cpp
; File C:\Program Files (x86)\Microsoft Visual Studio\2019\Community\VC\Tools\MSVC\14.29.30133\atlmfc\include\afxwin1.inl
; File D:\git\src\IBK\IBK_DRFN\ProjSrc\SrcDrfn\Chart\MULTICHART\LeftBarDlg.cpp
; File C:\Program Files (x86)\Microsoft Visual Studio\2019\Community\VC\Tools\MSVC\14.29.30133\atlmfc\include\afxwin2.inl
; File D:\git\src\IBK\IBK_DRFN\ProjSrc\SrcDrfn\Chart\MULTICHART\LeftBarDlg.cpp
; File C:\Program Files (x86)\Microsoft Visual Studio\2019\Community\VC\Tools\MSVC\14.29.30133\atlmfc\include\afxwin2.inl
; File D:\git\src\IBK\IBK_DRFN\ProjSrc\SrcDrfn\Chart\MULTICHART\LeftBarDlg.cpp
;	COMDAT ?ChangeSkinColor@CLeftBarDlg@@QAEXXZ
_TEXT	SEGMENT
?ChangeSkinColor@CLeftBarDlg@@QAEXXZ PROC		; CLeftBarDlg::ChangeSkinColor, COMDAT
; _this$ = ecx

; 611  : {

  00000	57		 push	 edi
  00001	8b f9		 mov	 edi, ecx

; 612  : 	if(m_pStdDialog)

  00003	8b 87 dc 01 00
	00		 mov	 eax, DWORD PTR [edi+476]
  00009	85 c0		 test	 eax, eax
  0000b	74 59		 je	 SHORT $LN3@ChangeSkin
; File C:\Program Files (x86)\Microsoft Visual Studio\2019\Community\VC\Tools\MSVC\14.29.30133\atlmfc\include\afxwin2.inl

; 32   : 	{ ASSERT(::IsWindow(m_hWnd)); return ::SendMessage(m_hWnd, message, wParam, lParam); }

  0000d	56		 push	 esi
  0000e	6a 00		 push	 0
  00010	6a 00		 push	 0
  00012	ff 35 00 00 00
	00		 push	 DWORD PTR ?RMSG_GET_SKINCOLOR@@3IB
  00018	ff 70 20	 push	 DWORD PTR [eax+32]
  0001b	ff 15 00 00 00
	00		 call	 DWORD PTR __imp__SendMessageA@16
; File D:\git\src\IBK\IBK_DRFN\ProjSrc\SrcDrfn\Chart\MULTICHART\LeftBarDlg.cpp

; 615  : 		m_brBkColor.DeleteObject();

  00021	8d 8f b0 01 00
	00		 lea	 ecx, DWORD PTR [edi+432]
  00027	89 87 b8 01 00
	00		 mov	 DWORD PTR [edi+440], eax
  0002d	e8 00 00 00 00	 call	 ?DeleteObject@CGdiObject@@QAEHXZ ; CGdiObject::DeleteObject
; File C:\Program Files (x86)\Microsoft Visual Studio\2019\Community\VC\Tools\MSVC\14.29.30133\atlmfc\include\afxwin1.inl

; 132  : 	{ return Attach(::CreateSolidBrush(crColor)); }

  00032	ff b7 b8 01 00
	00		 push	 DWORD PTR [edi+440]
  00038	ff 15 00 00 00
	00		 call	 DWORD PTR __imp__CreateSolidBrush@4
  0003e	50		 push	 eax
  0003f	8d 8f b0 01 00
	00		 lea	 ecx, DWORD PTR [edi+432]
  00045	e8 00 00 00 00	 call	 ?Attach@CGdiObject@@QAEHPAX@Z ; CGdiObject::Attach
; File D:\git\src\IBK\IBK_DRFN\ProjSrc\SrcDrfn\Chart\MULTICHART\LeftBarDlg.cpp

; 618  : 		if( m_tabctrl.GetSafeHwnd() )

  0004a	8d 8f c0 00 00
	00		 lea	 ecx, DWORD PTR [edi+192]
  00050	5e		 pop	 esi
; File C:\Program Files (x86)\Microsoft Visual Studio\2019\Community\VC\Tools\MSVC\14.29.30133\atlmfc\include\afxwin2.inl

; 25   : 	{ return this == NULL ? NULL : m_hWnd; }

  00051	85 c9		 test	 ecx, ecx
  00053	74 11		 je	 SHORT $LN3@ChangeSkin
; File D:\git\src\IBK\IBK_DRFN\ProjSrc\SrcDrfn\Chart\MULTICHART\LeftBarDlg.cpp

; 618  : 		if( m_tabctrl.GetSafeHwnd() )

  00055	83 79 20 00	 cmp	 DWORD PTR [ecx+32], 0
  00059	74 0b		 je	 SHORT $LN3@ChangeSkin

; 619  : 			m_tabctrl.ChangeSkinColor((CWnd*)m_pStdDialog);

  0005b	ff b7 dc 01 00
	00		 push	 DWORD PTR [edi+476]
  00061	e8 00 00 00 00	 call	 ?ChangeSkinColor@CXTabCtrl@@QAEXPAVCWnd@@@Z ; CXTabCtrl::ChangeSkinColor
$LN3@ChangeSkin:
; File C:\Program Files (x86)\Microsoft Visual Studio\2019\Community\VC\Tools\MSVC\14.29.30133\atlmfc\include\afxwin2.inl

; 114  : 	{ ASSERT(::IsWindow(m_hWnd)); ::InvalidateRect(m_hWnd, NULL, bErase); }

  00066	6a 01		 push	 1
  00068	6a 00		 push	 0
  0006a	ff 77 20	 push	 DWORD PTR [edi+32]
  0006d	ff 15 00 00 00
	00		 call	 DWORD PTR __imp__InvalidateRect@12
  00073	5f		 pop	 edi
; File D:\git\src\IBK\IBK_DRFN\ProjSrc\SrcDrfn\Chart\MULTICHART\LeftBarDlg.cpp

; 622  : }

  00074	c3		 ret	 0
?ChangeSkinColor@CLeftBarDlg@@QAEXXZ ENDP		; CLeftBarDlg::ChangeSkinColor
_TEXT	ENDS
; Function compile flags: /Ogtp
; File D:\git\src\IBK\IBK_DRFN\ProjSrc\SrcDrfn\Chart\MULTICHART\LeftBarDlg.cpp
; File C:\Program Files (x86)\Microsoft Visual Studio\2019\Community\VC\Tools\MSVC\14.29.30133\atlmfc\include\afxwin2.inl
; File D:\git\src\IBK\IBK_DRFN\ProjSrc\SrcDrfn\Chart\MULTICHART\LeftBarDlg.cpp
;	COMDAT ?GetIndicatorNameListIntoComboBox@CLeftBarDlg@@QAEXAAVCComboBox@@PBD@Z
_TEXT	SEGMENT
_rComboBox$ = 8						; size = 4
_p_strGroup$ = 12					; size = 4
?GetIndicatorNameListIntoComboBox@CLeftBarDlg@@QAEXAAVCComboBox@@PBD@Z PROC ; CLeftBarDlg::GetIndicatorNameListIntoComboBox, COMDAT
; _this$ = ecx

; 526  : {

  00000	55		 push	 ebp
  00001	8b ec		 mov	 ebp, esp

; 529  : 	if(NULL == m_pChartMng->GetSafeHwnd()) return;

  00003	8b 89 e0 01 00
	00		 mov	 ecx, DWORD PTR [ecx+480]
; File C:\Program Files (x86)\Microsoft Visual Studio\2019\Community\VC\Tools\MSVC\14.29.30133\atlmfc\include\afxwin2.inl

; 25   : 	{ return this == NULL ? NULL : m_hWnd; }

  00009	85 c9		 test	 ecx, ecx
  0000b	74 0c		 je	 SHORT $LN4@GetIndicat
; File D:\git\src\IBK\IBK_DRFN\ProjSrc\SrcDrfn\Chart\MULTICHART\LeftBarDlg.cpp

; 529  : 	if(NULL == m_pChartMng->GetSafeHwnd()) return;

  0000d	83 79 20 00	 cmp	 DWORD PTR [ecx+32], 0
  00011	74 06		 je	 SHORT $LN4@GetIndicat

; 538  : 		}		
; 539  : 	}	
; 540  : }

  00013	5d		 pop	 ebp

; 530  : 	//VERIFY(m_pChartMng->GetSafeHwnd());
; 531  : 
; 532  : 
; 533  : 	if(m_pChartMng)
; 534  : 	{
; 535  : 		if(m_pChartMng->GetSafeHwnd())
; 536  : 		{
; 537  : 			m_pChartMng->GetIndicatorNameListIntoComboBox(rComboBox, p_strGroup);

  00014	e9 00 00 00 00	 jmp	 ?GetIndicatorNameListIntoComboBox@CChartMng@@QAEXAAVCComboBox@@PBD@Z ; CChartMng::GetIndicatorNameListIntoComboBox
$LN4@GetIndicat:

; 538  : 		}		
; 539  : 	}	
; 540  : }

  00019	5d		 pop	 ebp
  0001a	c2 08 00	 ret	 8
?GetIndicatorNameListIntoComboBox@CLeftBarDlg@@QAEXAAVCComboBox@@PBD@Z ENDP ; CLeftBarDlg::GetIndicatorNameListIntoComboBox
_TEXT	ENDS
; Function compile flags: /Ogtp
; File D:\git\src\IBK\IBK_DRFN\ProjSrc\SrcDrfn\Chart\MULTICHART\LeftBarDlg.cpp
; File C:\Program Files (x86)\Microsoft Visual Studio\2019\Community\VC\Tools\MSVC\14.29.30133\atlmfc\include\afxwin2.inl
; File D:\git\src\IBK\IBK_DRFN\ProjSrc\SrcDrfn\Chart\MULTICHART\LeftBarDlg.cpp
;	COMDAT ?EndSideBar@CLeftBarDlg@@QAEXXZ
_TEXT	SEGMENT
?EndSideBar@CLeftBarDlg@@QAEXXZ PROC			; CLeftBarDlg::EndSideBar, COMDAT
; _this$ = ecx
; File C:\Program Files (x86)\Microsoft Visual Studio\2019\Community\VC\Tools\MSVC\14.29.30133\atlmfc\include\afxwin2.inl

; 152  : 	{ ASSERT(::IsWindow(m_hWnd)); return ::SetTimer(m_hWnd, nIDEvent, nElapse,

  00000	6a 00		 push	 0
  00002	6a 0a		 push	 10			; 0000000aH
  00004	68 90 01 00 00	 push	 400			; 00000190H
  00009	ff 71 20	 push	 DWORD PTR [ecx+32]
  0000c	ff 15 00 00 00
	00		 call	 DWORD PTR __imp__SetTimer@16
; File D:\git\src\IBK\IBK_DRFN\ProjSrc\SrcDrfn\Chart\MULTICHART\LeftBarDlg.cpp

; 392  : }

  00012	c3		 ret	 0
?EndSideBar@CLeftBarDlg@@QAEXXZ ENDP			; CLeftBarDlg::EndSideBar
_TEXT	ENDS
; Function compile flags: /Ogtp
; File D:\git\src\IBK\IBK_DRFN\ProjSrc\SrcDrfn\Chart\MULTICHART\LeftBarDlg.cpp
; File C:\Program Files (x86)\Microsoft Visual Studio\2019\Community\VC\Tools\MSVC\14.29.30133\atlmfc\include\afxwin2.inl
; File D:\git\src\IBK\IBK_DRFN\ProjSrc\SrcDrfn\Chart\MULTICHART\LeftBarDlg.cpp
; File C:\Program Files (x86)\Microsoft Visual Studio\2019\Community\VC\Tools\MSVC\14.29.30133\atlmfc\include\afxwin2.inl
; File D:\git\src\IBK\IBK_DRFN\ProjSrc\SrcDrfn\Chart\MULTICHART\LeftBarDlg.cpp
; File C:\Program Files (x86)\Microsoft Visual Studio\2019\Community\VC\Tools\MSVC\14.29.30133\atlmfc\include\afxwin2.inl
; File D:\git\src\IBK\IBK_DRFN\ProjSrc\SrcDrfn\Chart\MULTICHART\LeftBarDlg.cpp
; File C:\Program Files (x86)\Microsoft Visual Studio\2019\Community\VC\Tools\MSVC\14.29.30133\atlmfc\include\afxwin2.inl
; File D:\git\src\IBK\IBK_DRFN\ProjSrc\SrcDrfn\Chart\MULTICHART\LeftBarDlg.cpp
;	COMDAT ?StartSideBar@CLeftBarDlg@@QAEXXZ
_TEXT	SEGMENT
?StartSideBar@CLeftBarDlg@@QAEXXZ PROC			; CLeftBarDlg::StartSideBar, COMDAT
; _this$ = ecx

; 378  : {

  00000	56		 push	 esi
; File C:\Program Files (x86)\Microsoft Visual Studio\2019\Community\VC\Tools\MSVC\14.29.30133\atlmfc\include\afxwin2.inl

; 152  : 	{ ASSERT(::IsWindow(m_hWnd)); return ::SetTimer(m_hWnd, nIDEvent, nElapse,

  00001	6a 00		 push	 0
; File D:\git\src\IBK\IBK_DRFN\ProjSrc\SrcDrfn\Chart\MULTICHART\LeftBarDlg.cpp

; 378  : {

  00003	8b f1		 mov	 esi, ecx
; File C:\Program Files (x86)\Microsoft Visual Studio\2019\Community\VC\Tools\MSVC\14.29.30133\atlmfc\include\afxwin2.inl

; 152  : 	{ ASSERT(::IsWindow(m_hWnd)); return ::SetTimer(m_hWnd, nIDEvent, nElapse,

  00005	6a 0a		 push	 10			; 0000000aH
  00007	68 2c 01 00 00	 push	 300			; 0000012cH
  0000c	ff 76 20	 push	 DWORD PTR [esi+32]
; File D:\git\src\IBK\IBK_DRFN\ProjSrc\SrcDrfn\Chart\MULTICHART\LeftBarDlg.cpp

; 379  : 	m_nSideBarIncrease = 0;

  0000f	c7 86 b0 00 00
	00 00 00 00 00	 mov	 DWORD PTR [esi+176], 0
; File C:\Program Files (x86)\Microsoft Visual Studio\2019\Community\VC\Tools\MSVC\14.29.30133\atlmfc\include\afxwin2.inl

; 152  : 	{ ASSERT(::IsWindow(m_hWnd)); return ::SetTimer(m_hWnd, nIDEvent, nElapse,

  00019	ff 15 00 00 00
	00		 call	 DWORD PTR __imp__SetTimer@16

; 124  : 	{ ASSERT(::IsWindow(m_hWnd)); return ::IsWindowVisible(m_hWnd); }

  0001f	8b 86 dc 01 00
	00		 mov	 eax, DWORD PTR [esi+476]
  00025	ff b0 88 05 00
	00		 push	 DWORD PTR [eax+1416]
  0002b	ff 15 00 00 00
	00		 call	 DWORD PTR __imp__IsWindowVisible@4
; File D:\git\src\IBK\IBK_DRFN\ProjSrc\SrcDrfn\Chart\MULTICHART\LeftBarDlg.cpp

; 382  : 	if(m_pStdDialog->m_btnSideBar.IsWindowVisible())

  00031	85 c0		 test	 eax, eax
  00033	74 29		 je	 SHORT $LN2@StartSideB

; 383  : 	{
; 384  : 		m_pStdDialog->m_btnSideBar.ShowWindow(SW_HIDE);

  00035	8b 8e dc 01 00
	00		 mov	 ecx, DWORD PTR [esi+476]
  0003b	6a 00		 push	 0
  0003d	81 c1 68 05 00
	00		 add	 ecx, 1384		; 00000568H
  00043	e8 00 00 00 00	 call	 ?ShowWindow@CWnd@@QAEHH@Z ; CWnd::ShowWindow
; File C:\Program Files (x86)\Microsoft Visual Studio\2019\Community\VC\Tools\MSVC\14.29.30133\atlmfc\include\afxwin2.inl

; 114  : 	{ ASSERT(::IsWindow(m_hWnd)); ::InvalidateRect(m_hWnd, NULL, bErase); }

  00048	8b 86 dc 01 00
	00		 mov	 eax, DWORD PTR [esi+476]
  0004e	6a 01		 push	 1
  00050	6a 00		 push	 0
  00052	ff b0 88 05 00
	00		 push	 DWORD PTR [eax+1416]
  00058	ff 15 00 00 00
	00		 call	 DWORD PTR __imp__InvalidateRect@12
$LN2@StartSideB:
  0005e	5e		 pop	 esi
; File D:\git\src\IBK\IBK_DRFN\ProjSrc\SrcDrfn\Chart\MULTICHART\LeftBarDlg.cpp

; 387  : }

  0005f	c3		 ret	 0
?StartSideBar@CLeftBarDlg@@QAEXXZ ENDP			; CLeftBarDlg::StartSideBar
_TEXT	ENDS
; Function compile flags: /Ogtp
; File D:\git\src\IBK\IBK_DRFN\ProjSrc\SrcDrfn\Chart\MULTICHART\LeftBarDlg.cpp
; File C:\Program Files (x86)\Microsoft Visual Studio\2019\Community\VC\Tools\MSVC\14.29.30133\atlmfc\include\afxwin1.inl
; File D:\git\src\IBK\IBK_DRFN\ProjSrc\SrcDrfn\Chart\MULTICHART\LeftBarDlg.cpp
;	COMDAT ??0CLeftBarDlg@@QAE@PAVCWnd@@@Z
_TEXT	SEGMENT
_this$ = -16						; size = 4
__$EHRec$ = -12						; size = 12
_pParent$ = 8						; size = 4
??0CLeftBarDlg@@QAE@PAVCWnd@@@Z PROC			; CLeftBarDlg::CLeftBarDlg, COMDAT
; _this$ = ecx

; 35   : {

  00000	55		 push	 ebp
  00001	8b ec		 mov	 ebp, esp
  00003	6a ff		 push	 -1
  00005	68 00 00 00 00	 push	 __ehhandler$??0CLeftBarDlg@@QAE@PAVCWnd@@@Z
  0000a	64 a1 00 00 00
	00		 mov	 eax, DWORD PTR fs:0
  00010	50		 push	 eax
  00011	51		 push	 ecx
  00012	56		 push	 esi
  00013	a1 00 00 00 00	 mov	 eax, DWORD PTR ___security_cookie
  00018	33 c5		 xor	 eax, ebp
  0001a	50		 push	 eax
  0001b	8d 45 f4	 lea	 eax, DWORD PTR __$EHRec$[ebp]
  0001e	64 a3 00 00 00
	00		 mov	 DWORD PTR fs:0, eax
  00024	8b f1		 mov	 esi, ecx
  00026	89 75 f0	 mov	 DWORD PTR _this$[ebp], esi

; 34   : 	: CRscDlg(CLeftBarDlg::IDD, pParent)

  00029	ff 75 08	 push	 DWORD PTR _pParent$[ebp]
  0002c	68 70 17 00 00	 push	 6000			; 00001770H
  00031	e8 00 00 00 00	 call	 ??0CRscDlg@@QAE@IPAVCWnd@@@Z ; CRscDlg::CRscDlg

; 35   : {

  00036	8d 8e c0 00 00
	00		 lea	 ecx, DWORD PTR [esi+192]
  0003c	c7 45 fc 00 00
	00 00		 mov	 DWORD PTR __$EHRec$[ebp+8], 0
  00043	c7 06 00 00 00
	00		 mov	 DWORD PTR [esi], OFFSET ??_7CLeftBarDlg@@6B@
  00049	e8 00 00 00 00	 call	 ??0CXTabCtrl@@QAE@XZ	; CXTabCtrl::CXTabCtrl
  0004e	8d 8e a8 01 00
	00		 lea	 ecx, DWORD PTR [esi+424]
  00054	ff 15 00 00 00
	00		 call	 DWORD PTR __imp_??0?$CStringT@DV?$StrTraitMFC_DLL@DV?$ChTraitsCRT@D@ATL@@@@@ATL@@QAE@XZ
  0005a	8d 8e ac 01 00
	00		 lea	 ecx, DWORD PTR [esi+428]
  00060	ff 15 00 00 00
	00		 call	 DWORD PTR __imp_??0?$CStringT@DV?$StrTraitMFC_DLL@DV?$ChTraitsCRT@D@ATL@@@@@ATL@@QAE@XZ
; File C:\Program Files (x86)\Microsoft Visual Studio\2019\Community\VC\Tools\MSVC\14.29.30133\atlmfc\include\afxwin1.inl

; 70   : 	{ m_hObject = NULL; }

  00066	c7 86 b4 01 00
	00 00 00 00 00	 mov	 DWORD PTR [esi+436], 0

; 128  : 	{ }

  00070	c7 86 b0 01 00
	00 00 00 00 00	 mov	 DWORD PTR [esi+432], OFFSET ??_7CBrush@@6B@
; File D:\git\src\IBK\IBK_DRFN\ProjSrc\SrcDrfn\Chart\MULTICHART\LeftBarDlg.cpp

; 35   : {

  0007a	6a 0a		 push	 10			; 0000000aH
  0007c	8d 8e c0 01 00
	00		 lea	 ecx, DWORD PTR [esi+448]
  00082	c6 45 fc 04	 mov	 BYTE PTR __$EHRec$[ebp+8], 4
  00086	e8 00 00 00 00	 call	 ??0CStringList@@QAE@H@Z	; CStringList::CStringList
  0008b	8d 8e ec 01 00
	00		 lea	 ecx, DWORD PTR [esi+492]
  00091	ff 15 00 00 00
	00		 call	 DWORD PTR __imp_??0?$CStringT@DV?$StrTraitMFC_DLL@DV?$ChTraitsCRT@D@ATL@@@@@ATL@@QAE@XZ

; 36   : 	//{{AFX_DATA_INIT(CLeftBarDlg)
; 37   : 		// NOTE: the ClassWizard will add member initialization here
; 38   : 	//}}AFX_DATA_INIT
; 39   : 	m_pStdDialog = NULL;

  00097	c7 86 dc 01 00
	00 00 00 00 00	 mov	 DWORD PTR [esi+476], 0

; 40   : 	m_pChartMng = NULL;
; 41   : 	m_lJMaster = NULL;
; 42   : 	m_lKMaster = NULL;
; 43   : 	m_bEnable = FALSE;
; 44   : 	m_pFavoriteMng = NULL;
; 45   : 	m_bIgnoreShareData = FALSE;
; 46   : 
; 47   : 	m_nID = 1;
; 48   : }

  000a1	8b c6		 mov	 eax, esi
  000a3	c7 86 e0 01 00
	00 00 00 00 00	 mov	 DWORD PTR [esi+480], 0
  000ad	c7 86 e4 01 00
	00 00 00 00 00	 mov	 DWORD PTR [esi+484], 0
  000b7	c7 86 e8 01 00
	00 00 00 00 00	 mov	 DWORD PTR [esi+488], 0
  000c1	c7 86 f0 01 00
	00 00 00 00 00	 mov	 DWORD PTR [esi+496], 0
  000cb	c7 86 bc 01 00
	00 00 00 00 00	 mov	 DWORD PTR [esi+444], 0
  000d5	c7 86 f4 01 00
	00 00 00 00 00	 mov	 DWORD PTR [esi+500], 0
  000df	c7 86 b8 00 00
	00 01 00 00 00	 mov	 DWORD PTR [esi+184], 1
  000e9	8b 4d f4	 mov	 ecx, DWORD PTR __$EHRec$[ebp]
  000ec	64 89 0d 00 00
	00 00		 mov	 DWORD PTR fs:0, ecx
  000f3	59		 pop	 ecx
  000f4	5e		 pop	 esi
  000f5	8b e5		 mov	 esp, ebp
  000f7	5d		 pop	 ebp
  000f8	c2 04 00	 ret	 4
_TEXT	ENDS
;	COMDAT text$x
text$x	SEGMENT
__unwindfunclet$??0CLeftBarDlg@@QAE@PAVCWnd@@@Z$0:
  00000	8b 4d f0	 mov	 ecx, DWORD PTR _this$[ebp]
  00003	e9 00 00 00 00	 jmp	 ??1CRscDlg@@UAE@XZ
__unwindfunclet$??0CLeftBarDlg@@QAE@PAVCWnd@@@Z$1:
  00008	8b 4d f0	 mov	 ecx, DWORD PTR _this$[ebp]
  0000b	81 c1 c0 00 00
	00		 add	 ecx, 192		; 000000c0H
  00011	e9 00 00 00 00	 jmp	 ??1CXTabCtrl@@UAE@XZ	; CXTabCtrl::~CXTabCtrl
__unwindfunclet$??0CLeftBarDlg@@QAE@PAVCWnd@@@Z$2:
  00016	8b 4d f0	 mov	 ecx, DWORD PTR _this$[ebp]
  00019	81 c1 a8 01 00
	00		 add	 ecx, 424		; 000001a8H
  0001f	ff 25 00 00 00
	00		 jmp	 DWORD PTR __imp_??1?$CStringT@DV?$StrTraitMFC_DLL@DV?$ChTraitsCRT@D@ATL@@@@@ATL@@QAE@XZ
__unwindfunclet$??0CLeftBarDlg@@QAE@PAVCWnd@@@Z$3:
  00025	8b 4d f0	 mov	 ecx, DWORD PTR _this$[ebp]
  00028	81 c1 ac 01 00
	00		 add	 ecx, 428		; 000001acH
  0002e	ff 25 00 00 00
	00		 jmp	 DWORD PTR __imp_??1?$CStringT@DV?$StrTraitMFC_DLL@DV?$ChTraitsCRT@D@ATL@@@@@ATL@@QAE@XZ
__unwindfunclet$??0CLeftBarDlg@@QAE@PAVCWnd@@@Z$4:
  00034	8b 4d f0	 mov	 ecx, DWORD PTR _this$[ebp]
  00037	81 c1 b0 01 00
	00		 add	 ecx, 432		; 000001b0H
  0003d	e9 00 00 00 00	 jmp	 ??1CBrush@@UAE@XZ	; CBrush::~CBrush
  00042	cc		 int	 3
  00043	cc		 int	 3
  00044	cc		 int	 3
  00045	cc		 int	 3
  00046	cc		 int	 3
__ehhandler$??0CLeftBarDlg@@QAE@PAVCWnd@@@Z:
  00047	90		 npad	 1
  00048	90		 npad	 1
  00049	8b 54 24 08	 mov	 edx, DWORD PTR [esp+8]
  0004d	8d 42 0c	 lea	 eax, DWORD PTR [edx+12]
  00050	8b 4a f4	 mov	 ecx, DWORD PTR [edx-12]
  00053	33 c8		 xor	 ecx, eax
  00055	e8 00 00 00 00	 call	 @__security_check_cookie@4
  0005a	b8 00 00 00 00	 mov	 eax, OFFSET __ehfuncinfo$??0CLeftBarDlg@@QAE@PAVCWnd@@@Z
  0005f	e9 00 00 00 00	 jmp	 ___CxxFrameHandler3
text$x	ENDS
??0CLeftBarDlg@@QAE@PAVCWnd@@@Z ENDP			; CLeftBarDlg::CLeftBarDlg
; Function compile flags: /Ogtp
;	COMDAT ??1CRscDlg@@UAE@XZ
_TEXT	SEGMENT
??1CRscDlg@@UAE@XZ PROC					; CRscDlg::~CRscDlg, COMDAT
; _this$ = ecx
  00000	e9 00 00 00 00	 jmp	 ??1CDialog@@UAE@XZ	; CDialog::~CDialog
??1CRscDlg@@UAE@XZ ENDP					; CRscDlg::~CRscDlg
_TEXT	ENDS
; Function compile flags: /Ogtp
; File C:\Program Files (x86)\Microsoft Visual Studio\2019\Community\VC\Tools\MSVC\14.29.30133\atlmfc\include\afxcmn.inl
;	COMDAT ?GetItemCount@CTabCtrl@@QBEHXZ
_TEXT	SEGMENT
?GetItemCount@CTabCtrl@@QBEHXZ PROC			; CTabCtrl::GetItemCount, COMDAT
; _this$ = ecx

; 564  : 	{ ASSERT(::IsWindow(m_hWnd)); return (int)::SendMessage(m_hWnd, TCM_GETITEMCOUNT, 0, 0L); }

  00000	6a 00		 push	 0
  00002	6a 00		 push	 0
  00004	68 04 13 00 00	 push	 4868			; 00001304H
  00009	ff 71 20	 push	 DWORD PTR [ecx+32]
  0000c	ff 15 00 00 00
	00		 call	 DWORD PTR __imp__SendMessageA@16
  00012	c3		 ret	 0
?GetItemCount@CTabCtrl@@QBEHXZ ENDP			; CTabCtrl::GetItemCount
_TEXT	ENDS
; Function compile flags: /Ogtp
; File C:\Program Files (x86)\Microsoft Visual Studio\2019\Community\VC\Tools\MSVC\14.29.30133\atlmfc\include\afxwin2.inl
;	COMDAT ?EndModalState@CWnd@@UAEXXZ
_TEXT	SEGMENT
?EndModalState@CWnd@@UAEXXZ PROC			; CWnd::EndModalState, COMDAT
; _this$ = ecx

; 567  : 	{ ::EnableWindow(m_hWnd, TRUE); }

  00000	6a 01		 push	 1
  00002	ff 71 20	 push	 DWORD PTR [ecx+32]
  00005	ff 15 00 00 00
	00		 call	 DWORD PTR __imp__EnableWindow@8
  0000b	c3		 ret	 0
?EndModalState@CWnd@@UAEXXZ ENDP			; CWnd::EndModalState
_TEXT	ENDS
; Function compile flags: /Ogtp
; File C:\Program Files (x86)\Microsoft Visual Studio\2019\Community\VC\Tools\MSVC\14.29.30133\atlmfc\include\afxwin2.inl
;	COMDAT ?BeginModalState@CWnd@@UAEXXZ
_TEXT	SEGMENT
?BeginModalState@CWnd@@UAEXXZ PROC			; CWnd::BeginModalState, COMDAT
; _this$ = ecx

; 565  : 	{ ::EnableWindow(m_hWnd, FALSE); }

  00000	6a 00		 push	 0
  00002	ff 71 20	 push	 DWORD PTR [ecx+32]
  00005	ff 15 00 00 00
	00		 call	 DWORD PTR __imp__EnableWindow@8
  0000b	c3		 ret	 0
?BeginModalState@CWnd@@UAEXXZ ENDP			; CWnd::BeginModalState
_TEXT	ENDS
; Function compile flags: /Ogtp
; File C:\Program Files (x86)\Microsoft Visual Studio\2019\Community\VC\Tools\MSVC\14.29.30133\atlmfc\include\afxwin1.inl
; File C:\Program Files (x86)\Microsoft Visual Studio\2019\Community\VC\Tools\MSVC\14.29.30133\atlmfc\include\afx.inl
;	COMDAT ??_GCBitmap@@UAEPAXI@Z
_TEXT	SEGMENT
___flags$ = 8						; size = 4
??_GCBitmap@@UAEPAXI@Z PROC				; CBitmap::`scalar deleting destructor', COMDAT
; _this$ = ecx
  00000	55		 push	 ebp
  00001	8b ec		 mov	 ebp, esp
; File C:\Program Files (x86)\Microsoft Visual Studio\2019\Community\VC\Tools\MSVC\14.29.30133\atlmfc\include\afxwin1.inl

; 179  : 	{ }

  00003	56		 push	 esi
  00004	8b f1		 mov	 esi, ecx
  00006	c7 06 00 00 00
	00		 mov	 DWORD PTR [esi], OFFSET ??_7CBitmap@@6B@
  0000c	e8 00 00 00 00	 call	 ??1CGdiObject@@UAE@XZ	; CGdiObject::~CGdiObject
  00011	8b 45 08	 mov	 eax, DWORD PTR ___flags$[ebp]
  00014	a8 01		 test	 al, 1
  00016	74 1f		 je	 SHORT $LN12@scalar
  00018	a8 04		 test	 al, 4
  0001a	75 10		 jne	 SHORT $LN3@scalar
; File C:\Program Files (x86)\Microsoft Visual Studio\2019\Community\VC\Tools\MSVC\14.29.30133\atlmfc\include\afx.inl

; 112  : 	{ ::operator delete(p); }

  0001c	56		 push	 esi
  0001d	e8 00 00 00 00	 call	 ??3@YAXPAX@Z		; operator delete
  00022	83 c4 04	 add	 esp, 4
  00025	8b c6		 mov	 eax, esi
  00027	5e		 pop	 esi
  00028	5d		 pop	 ebp
  00029	c2 04 00	 ret	 4
$LN3@scalar:
  0002c	6a 08		 push	 8
  0002e	56		 push	 esi
  0002f	e8 00 00 00 00	 call	 ?__global_delete@@YAXPAXI@Z ; __global_delete
  00034	83 c4 08	 add	 esp, 8
$LN12@scalar:
  00037	8b c6		 mov	 eax, esi
  00039	5e		 pop	 esi
  0003a	5d		 pop	 ebp
  0003b	c2 04 00	 ret	 4
??_GCBitmap@@UAEPAXI@Z ENDP				; CBitmap::`scalar deleting destructor'
_TEXT	ENDS
; Function compile flags: /Ogtp
; File C:\Program Files (x86)\Microsoft Visual Studio\2019\Community\VC\Tools\MSVC\14.29.30133\atlmfc\include\afxwin1.inl
;	COMDAT ??1CBitmap@@UAE@XZ
_TEXT	SEGMENT
??1CBitmap@@UAE@XZ PROC					; CBitmap::~CBitmap, COMDAT
; _this$ = ecx

; 179  : 	{ }

  00000	c7 01 00 00 00
	00		 mov	 DWORD PTR [ecx], OFFSET ??_7CBitmap@@6B@
  00006	e9 00 00 00 00	 jmp	 ??1CGdiObject@@UAE@XZ	; CGdiObject::~CGdiObject
??1CBitmap@@UAE@XZ ENDP					; CBitmap::~CBitmap
_TEXT	ENDS
; Function compile flags: /Ogtp
; File C:\Program Files (x86)\Microsoft Visual Studio\2019\Community\VC\Tools\MSVC\14.29.30133\atlmfc\include\afxwin1.inl
; File C:\Program Files (x86)\Microsoft Visual Studio\2019\Community\VC\Tools\MSVC\14.29.30133\atlmfc\include\afx.inl
;	COMDAT ??_GCBrush@@UAEPAXI@Z
_TEXT	SEGMENT
___flags$ = 8						; size = 4
??_GCBrush@@UAEPAXI@Z PROC				; CBrush::`scalar deleting destructor', COMDAT
; _this$ = ecx
  00000	55		 push	 ebp
  00001	8b ec		 mov	 ebp, esp
; File C:\Program Files (x86)\Microsoft Visual Studio\2019\Community\VC\Tools\MSVC\14.29.30133\atlmfc\include\afxwin1.inl

; 130  : 	{ }

  00003	56		 push	 esi
  00004	8b f1		 mov	 esi, ecx
  00006	c7 06 00 00 00
	00		 mov	 DWORD PTR [esi], OFFSET ??_7CBrush@@6B@
  0000c	e8 00 00 00 00	 call	 ??1CGdiObject@@UAE@XZ	; CGdiObject::~CGdiObject
  00011	8b 45 08	 mov	 eax, DWORD PTR ___flags$[ebp]
  00014	a8 01		 test	 al, 1
  00016	74 1f		 je	 SHORT $LN12@scalar
  00018	a8 04		 test	 al, 4
  0001a	75 10		 jne	 SHORT $LN3@scalar
; File C:\Program Files (x86)\Microsoft Visual Studio\2019\Community\VC\Tools\MSVC\14.29.30133\atlmfc\include\afx.inl

; 112  : 	{ ::operator delete(p); }

  0001c	56		 push	 esi
  0001d	e8 00 00 00 00	 call	 ??3@YAXPAX@Z		; operator delete
  00022	83 c4 04	 add	 esp, 4
  00025	8b c6		 mov	 eax, esi
  00027	5e		 pop	 esi
  00028	5d		 pop	 ebp
  00029	c2 04 00	 ret	 4
$LN3@scalar:
  0002c	6a 08		 push	 8
  0002e	56		 push	 esi
  0002f	e8 00 00 00 00	 call	 ?__global_delete@@YAXPAXI@Z ; __global_delete
  00034	83 c4 08	 add	 esp, 8
$LN12@scalar:
  00037	8b c6		 mov	 eax, esi
  00039	5e		 pop	 esi
  0003a	5d		 pop	 ebp
  0003b	c2 04 00	 ret	 4
??_GCBrush@@UAEPAXI@Z ENDP				; CBrush::`scalar deleting destructor'
_TEXT	ENDS
; Function compile flags: /Ogtp
; File C:\Program Files (x86)\Microsoft Visual Studio\2019\Community\VC\Tools\MSVC\14.29.30133\atlmfc\include\afxwin1.inl
;	COMDAT ??1CBrush@@UAE@XZ
_TEXT	SEGMENT
??1CBrush@@UAE@XZ PROC					; CBrush::~CBrush, COMDAT
; _this$ = ecx

; 130  : 	{ }

  00000	c7 01 00 00 00
	00		 mov	 DWORD PTR [ecx], OFFSET ??_7CBrush@@6B@
  00006	e9 00 00 00 00	 jmp	 ??1CGdiObject@@UAE@XZ	; CGdiObject::~CGdiObject
??1CBrush@@UAE@XZ ENDP					; CBrush::~CBrush
_TEXT	ENDS
; Function compile flags: /Ogtp
; File C:\Program Files (x86)\Microsoft Visual Studio\2019\Community\VC\Tools\MSVC\14.29.30133\atlmfc\include\afx.inl
;	COMDAT ??_GCGdiObject@@UAEPAXI@Z
_TEXT	SEGMENT
___flags$ = 8						; size = 4
??_GCGdiObject@@UAEPAXI@Z PROC				; CGdiObject::`scalar deleting destructor', COMDAT
; _this$ = ecx
  00000	55		 push	 ebp
  00001	8b ec		 mov	 ebp, esp
  00003	56		 push	 esi
  00004	8b f1		 mov	 esi, ecx
  00006	e8 00 00 00 00	 call	 ??1CGdiObject@@UAE@XZ	; CGdiObject::~CGdiObject
  0000b	8b 45 08	 mov	 eax, DWORD PTR ___flags$[ebp]
  0000e	a8 01		 test	 al, 1
  00010	74 1f		 je	 SHORT $LN9@scalar
  00012	a8 04		 test	 al, 4
  00014	75 10		 jne	 SHORT $LN3@scalar

; 112  : 	{ ::operator delete(p); }

  00016	56		 push	 esi
  00017	e8 00 00 00 00	 call	 ??3@YAXPAX@Z		; operator delete
  0001c	83 c4 04	 add	 esp, 4
  0001f	8b c6		 mov	 eax, esi
  00021	5e		 pop	 esi
  00022	5d		 pop	 ebp
  00023	c2 04 00	 ret	 4
$LN3@scalar:
  00026	6a 08		 push	 8
  00028	56		 push	 esi
  00029	e8 00 00 00 00	 call	 ?__global_delete@@YAXPAXI@Z ; __global_delete
  0002e	83 c4 08	 add	 esp, 8
$LN9@scalar:
  00031	8b c6		 mov	 eax, esi
  00033	5e		 pop	 esi
  00034	5d		 pop	 ebp
  00035	c2 04 00	 ret	 4
??_GCGdiObject@@UAEPAXI@Z ENDP				; CGdiObject::`scalar deleting destructor'
_TEXT	ENDS
; Function compile flags: /Ogtp
; File C:\Program Files (x86)\Microsoft Visual Studio\2019\Community\VC\Tools\MSVC\14.29.30133\atlmfc\include\afxwin1.inl
;	COMDAT ??1CGdiObject@@UAE@XZ
_TEXT	SEGMENT
_pException$2 = -540					; size = 4
_strMsg$3 = -536					; size = 4
_szErrorMessage$4 = -532				; size = 512
__$ArrayPad$ = -20					; size = 4
__$EHRec$ = -16						; size = 16
??1CGdiObject@@UAE@XZ PROC				; CGdiObject::~CGdiObject, COMDAT
; _this$ = ecx

; 74   : {

  00000	55		 push	 ebp
  00001	8b ec		 mov	 ebp, esp
  00003	6a ff		 push	 -1
  00005	68 00 00 00 00	 push	 __ehhandler$??1CGdiObject@@UAE@XZ
  0000a	64 a1 00 00 00
	00		 mov	 eax, DWORD PTR fs:0
  00010	50		 push	 eax
  00011	81 ec 10 02 00
	00		 sub	 esp, 528		; 00000210H
  00017	a1 00 00 00 00	 mov	 eax, DWORD PTR ___security_cookie
  0001c	33 c5		 xor	 eax, ebp
  0001e	89 45 ec	 mov	 DWORD PTR __$ArrayPad$[ebp], eax
  00021	53		 push	 ebx
  00022	56		 push	 esi
  00023	57		 push	 edi
  00024	50		 push	 eax
  00025	8d 45 f4	 lea	 eax, DWORD PTR __$EHRec$[ebp+4]
  00028	64 a3 00 00 00
	00		 mov	 DWORD PTR fs:0, eax
  0002e	89 65 f0	 mov	 DWORD PTR __$EHRec$[ebp], esp
  00031	c7 01 00 00 00
	00		 mov	 DWORD PTR [ecx], OFFSET ??_7CGdiObject@@6B@

; 75   : 	AFX_BEGIN_DESTRUCTOR

  00037	c7 45 fc 00 00
	00 00		 mov	 DWORD PTR __$EHRec$[ebp+12], 0

; 76   : 	DeleteObject();

  0003e	e8 00 00 00 00	 call	 ?DeleteObject@CGdiObject@@QAEHXZ ; CGdiObject::DeleteObject
$LN18@CGdiObject:

; 78   : }

  00043	8b 4d f4	 mov	 ecx, DWORD PTR __$EHRec$[ebp+4]
  00046	64 89 0d 00 00
	00 00		 mov	 DWORD PTR fs:0, ecx
  0004d	59		 pop	 ecx
  0004e	5f		 pop	 edi
  0004f	5e		 pop	 esi
  00050	5b		 pop	 ebx
  00051	8b 4d ec	 mov	 ecx, DWORD PTR __$ArrayPad$[ebp]
  00054	33 cd		 xor	 ecx, ebp
  00056	e8 00 00 00 00	 call	 @__security_check_cookie@4
  0005b	8b e5		 mov	 esp, ebp
  0005d	5d		 pop	 ebp
  0005e	c3		 ret	 0
__catch$??1CGdiObject@@UAE@XZ$0:

; 77   : 	AFX_END_DESTRUCTOR

  0005f	8d 8d e8 fd ff
	ff		 lea	 ecx, DWORD PTR _strMsg$3[ebp]
  00065	ff 15 00 00 00
	00		 call	 DWORD PTR __imp_??0?$CStringT@DV?$StrTraitMFC_DLL@DV?$ChTraitsCRT@D@ATL@@@@@ATL@@QAE@XZ
  0006b	8b b5 e4 fd ff
	ff		 mov	 esi, DWORD PTR _pException$2[ebp]
  00071	8d 8d ec fd ff
	ff		 lea	 ecx, DWORD PTR _szErrorMessage$4[ebp]
  00077	6a 00		 push	 0
  00079	68 00 02 00 00	 push	 512			; 00000200H
  0007e	51		 push	 ecx
  0007f	8b 06		 mov	 eax, DWORD PTR [esi]
  00081	8b ce		 mov	 ecx, esi
  00083	c6 45 fc 02	 mov	 BYTE PTR __$EHRec$[ebp+12], 2
  00087	ff 50 14	 call	 DWORD PTR [eax+20]
  0008a	85 c0		 test	 eax, eax
  0008c	74 2a		 je	 SHORT $LN9@CGdiObject
  0008e	8d 85 ec fd ff
	ff		 lea	 eax, DWORD PTR _szErrorMessage$4[ebp]
  00094	50		 push	 eax
  00095	6a 4d		 push	 77			; 0000004dH
  00097	68 00 00 00 00	 push	 OFFSET ??_C@_0HD@JJCHHHNK@C?3?2Program?5Files?5?$CIx86?$CJ?2Microsof@
  0009c	68 00 00 00 00	 push	 OFFSET ??_C@_0BP@OIEOKIDM@Exception?5thrown?5in?5destructor@
  000a1	8d 85 e8 fd ff
	ff		 lea	 eax, DWORD PTR _strMsg$3[ebp]
  000a7	68 00 00 00 00	 push	 OFFSET ??_C@_0BB@HBOOMJBF@?$CFTs?5?$CI?$CFTs?3?$CFd?$CJ?6?$CFTs@
  000ac	50		 push	 eax
  000ad	ff 15 00 00 00
	00		 call	 DWORD PTR __imp_?Format@?$CStringT@DV?$StrTraitMFC_DLL@DV?$ChTraitsCRT@D@ATL@@@@@ATL@@QAAXPBDZZ
  000b3	83 c4 18	 add	 esp, 24			; 00000018H
  000b6	eb 21		 jmp	 SHORT $LN10@CGdiObject
$LN9@CGdiObject:
  000b8	6a 4d		 push	 77			; 0000004dH
  000ba	68 00 00 00 00	 push	 OFFSET ??_C@_0HD@JJCHHHNK@C?3?2Program?5Files?5?$CIx86?$CJ?2Microsof@
  000bf	68 00 00 00 00	 push	 OFFSET ??_C@_0BP@OIEOKIDM@Exception?5thrown?5in?5destructor@
  000c4	8d 85 e8 fd ff
	ff		 lea	 eax, DWORD PTR _strMsg$3[ebp]
  000ca	68 00 00 00 00	 push	 OFFSET ??_C@_0N@OMEMOKLE@?$CFTs?5?$CI?$CFTs?3?$CFd?$CJ@
  000cf	50		 push	 eax
  000d0	ff 15 00 00 00
	00		 call	 DWORD PTR __imp_?Format@?$CStringT@DV?$StrTraitMFC_DLL@DV?$ChTraitsCRT@D@ATL@@@@@ATL@@QAAXPBDZZ
  000d6	83 c4 14	 add	 esp, 20			; 00000014H
$LN10@CGdiObject:
  000d9	6a 00		 push	 0
  000db	6a 00		 push	 0
  000dd	ff b5 e8 fd ff
	ff		 push	 DWORD PTR _strMsg$3[ebp]
  000e3	e8 00 00 00 00	 call	 ?AfxMessageBox@@YGHPBDII@Z ; AfxMessageBox
  000e8	8d 8d e8 fd ff
	ff		 lea	 ecx, DWORD PTR _strMsg$3[ebp]
  000ee	ff 15 00 00 00
	00		 call	 DWORD PTR __imp_??1?$CStringT@DV?$StrTraitMFC_DLL@DV?$ChTraitsCRT@D@ATL@@@@@ATL@@QAE@XZ
  000f4	8b 06		 mov	 eax, DWORD PTR [esi]
  000f6	8b ce		 mov	 ecx, esi
  000f8	6a 01		 push	 1
  000fa	ff 50 04	 call	 DWORD PTR [eax+4]
  000fd	b8 00 00 00 00	 mov	 eax, $LN18@CGdiObject
  00102	c3		 ret	 0
_TEXT	ENDS
;	COMDAT text$x
text$x	SEGMENT
__unwindfunclet$??1CGdiObject@@UAE@XZ$2:
  00000	8d 8d e8 fd ff
	ff		 lea	 ecx, DWORD PTR _strMsg$3[ebp]
  00006	ff 25 00 00 00
	00		 jmp	 DWORD PTR __imp_??1?$CStringT@DV?$StrTraitMFC_DLL@DV?$ChTraitsCRT@D@ATL@@@@@ATL@@QAE@XZ
  0000c	cc		 int	 3
  0000d	cc		 int	 3
  0000e	cc		 int	 3
  0000f	cc		 int	 3
  00010	cc		 int	 3
__ehhandler$??1CGdiObject@@UAE@XZ:
  00011	90		 npad	 1
  00012	90		 npad	 1
  00013	8b 54 24 08	 mov	 edx, DWORD PTR [esp+8]
  00017	8d 42 0c	 lea	 eax, DWORD PTR [edx+12]
  0001a	8b 8a e0 fd ff
	ff		 mov	 ecx, DWORD PTR [edx-544]
  00020	33 c8		 xor	 ecx, eax
  00022	e8 00 00 00 00	 call	 @__security_check_cookie@4
  00027	8b 4a f8	 mov	 ecx, DWORD PTR [edx-8]
  0002a	33 c8		 xor	 ecx, eax
  0002c	e8 00 00 00 00	 call	 @__security_check_cookie@4
  00031	b8 00 00 00 00	 mov	 eax, OFFSET __ehfuncinfo$??1CGdiObject@@UAE@XZ
  00036	e9 00 00 00 00	 jmp	 ___CxxFrameHandler3
text$x	ENDS
??1CGdiObject@@UAE@XZ ENDP				; CGdiObject::~CGdiObject
; Function compile flags: /Ogtp
; File C:\Program Files (x86)\Microsoft Visual Studio\2019\Community\VC\Tools\MSVC\14.29.30133\atlmfc\include\atlbase.h
; File C:\Program Files (x86)\Microsoft Visual Studio\2019\Community\VC\Tools\MSVC\14.29.30133\atlmfc\include\atlsimpcoll.h
; File C:\Program Files (x86)\Microsoft Visual Studio\2019\Community\VC\Tools\MSVC\14.29.30133\atlmfc\include\atlbase.h
; File C:\Program Files (x86)\Microsoft Visual Studio\2019\Community\VC\Tools\MSVC\14.29.30133\atlmfc\include\atlsimpcoll.h
; File C:\Program Files (x86)\Microsoft Visual Studio\2019\Community\VC\Tools\MSVC\14.29.30133\atlmfc\include\atlcore.h
; File C:\Program Files (x86)\Microsoft Visual Studio\2019\Community\VC\Tools\MSVC\14.29.30133\atlmfc\include\atlsimpcoll.h
; File C:\Program Files (x86)\Microsoft Visual Studio\2019\Community\VC\Tools\MSVC\14.29.30133\atlmfc\include\atlcore.h
; File C:\Program Files (x86)\Microsoft Visual Studio\2019\Community\VC\Tools\MSVC\14.29.30133\atlmfc\include\atlbase.h
; File C:\Program Files (x86)\Microsoft Visual Studio\2019\Community\VC\Tools\MSVC\14.29.30133\atlmfc\include\atlsimpcoll.h
;	COMDAT ??__F_AtlWinModule@ATL@@YAXXZ
text$yd	SEGMENT
??__F_AtlWinModule@ATL@@YAXXZ PROC			; ATL::`dynamic atexit destructor for '_AtlWinModule'', COMDAT
; File C:\Program Files (x86)\Microsoft Visual Studio\2019\Community\VC\Tools\MSVC\14.29.30133\atlmfc\include\atlbase.h

; 7655 : 	if (pWinModule->cbSize == 0)

  00000	a1 00 00 00 00	 mov	 eax, DWORD PTR ?_AtlWinModule@ATL@@3VCAtlWinModule@1@A
  00005	8b 0d 00 00 00
	00		 mov	 ecx, DWORD PTR __imp__free

; 2957 : 		AtlWinModuleTerm(this, _AtlBaseModule.GetModuleInstance());

  0000b	57		 push	 edi
  0000c	8b 3d 04 00 00
	00		 mov	 edi, DWORD PTR ?_AtlBaseModule@ATL@@3VCAtlBaseModule@1@A+4

; 7655 : 	if (pWinModule->cbSize == 0)

  00012	85 c0		 test	 eax, eax
  00014	0f 84 93 00 00
	00		 je	 $LN8@dynamic

; 7656 : 		return S_OK;
; 7657 : 	if (pWinModule->cbSize != sizeof(_ATL_WIN_MODULE))

  0001a	83 f8 2c	 cmp	 eax, 44			; 0000002cH
  0001d	0f 85 8a 00 00
	00		 jne	 $LN8@dynamic

; 7658 : 		return E_INVALIDARG;
; 7659 : 
; 7660 : 	for (int i = 0; i < pWinModule->m_rgWindowClassAtoms.GetSize(); i++)

  00023	a1 24 00 00 00	 mov	 eax, DWORD PTR ?_AtlWinModule@ATL@@3VCAtlWinModule@1@A+36
  00028	56		 push	 esi
  00029	33 f6		 xor	 esi, esi
  0002b	85 c0		 test	 eax, eax
  0002d	7e 35		 jle	 SHORT $LN10@dynamic
  0002f	53		 push	 ebx
  00030	8b 1d 00 00 00
	00		 mov	 ebx, DWORD PTR __imp__UnregisterClassA@8
$LL11@dynamic:
; File C:\Program Files (x86)\Microsoft Visual Studio\2019\Community\VC\Tools\MSVC\14.29.30133\atlmfc\include\atlsimpcoll.h

; 238  : 		if(nIndex < 0 || nIndex >= m_nSize)

  00036	85 f6		 test	 esi, esi
  00038	0f 88 9e 00 00
	00		 js	 $LN46@dynamic
  0003e	3b f0		 cmp	 esi, eax
  00040	0f 8d 96 00 00
	00		 jge	 $LN46@dynamic
; File C:\Program Files (x86)\Microsoft Visual Studio\2019\Community\VC\Tools\MSVC\14.29.30133\atlmfc\include\atlbase.h

; 7661 : 		UnregisterClass((LPCTSTR)pWinModule->m_rgWindowClassAtoms[i], hInst);

  00046	a1 20 00 00 00	 mov	 eax, DWORD PTR ?_AtlWinModule@ATL@@3VCAtlWinModule@1@A+32
  0004b	57		 push	 edi
  0004c	0f b7 04 70	 movzx	 eax, WORD PTR [eax+esi*2]
  00050	50		 push	 eax
  00051	ff d3		 call	 ebx
  00053	a1 24 00 00 00	 mov	 eax, DWORD PTR ?_AtlWinModule@ATL@@3VCAtlWinModule@1@A+36
  00058	46		 inc	 esi
  00059	3b f0		 cmp	 esi, eax
  0005b	7c d9		 jl	 SHORT $LL11@dynamic
; File C:\Program Files (x86)\Microsoft Visual Studio\2019\Community\VC\Tools\MSVC\14.29.30133\atlmfc\include\atlsimpcoll.h

; 238  : 		if(nIndex < 0 || nIndex >= m_nSize)

  0005d	8b 0d 00 00 00
	00		 mov	 ecx, DWORD PTR __imp__free
  00063	5b		 pop	 ebx
$LN10@dynamic:

; 216  : 		if(m_aT != NULL)

  00064	a1 20 00 00 00	 mov	 eax, DWORD PTR ?_AtlWinModule@ATL@@3VCAtlWinModule@1@A+32
  00069	5e		 pop	 esi
  0006a	85 c0		 test	 eax, eax
  0006c	74 10		 je	 SHORT $LN25@dynamic

; 217  : 		{
; 218  : 			for(int i = 0; i < m_nSize; i++)
; 219  : 				m_aT[i].~T();
; 220  : 			free(m_aT);

  0006e	50		 push	 eax
  0006f	ff d1		 call	 ecx
  00071	83 c4 04	 add	 esp, 4

; 221  : 			m_aT = NULL;

  00074	c7 05 20 00 00
	00 00 00 00 00	 mov	 DWORD PTR ?_AtlWinModule@ATL@@3VCAtlWinModule@1@A+32, 0
$LN25@dynamic:
; File C:\Program Files (x86)\Microsoft Visual Studio\2019\Community\VC\Tools\MSVC\14.29.30133\atlmfc\include\atlcore.h

; 155  : 		DeleteCriticalSection(&m_sec);

  0007e	68 04 00 00 00	 push	 OFFSET ?_AtlWinModule@ATL@@3VCAtlWinModule@1@A+4
; File C:\Program Files (x86)\Microsoft Visual Studio\2019\Community\VC\Tools\MSVC\14.29.30133\atlmfc\include\atlsimpcoll.h

; 223  : 		m_nSize = 0;

  00083	c7 05 24 00 00
	00 00 00 00 00	 mov	 DWORD PTR ?_AtlWinModule@ATL@@3VCAtlWinModule@1@A+36, 0

; 224  : 		m_nAllocSize = 0;

  0008d	c7 05 28 00 00
	00 00 00 00 00	 mov	 DWORD PTR ?_AtlWinModule@ATL@@3VCAtlWinModule@1@A+40, 0
; File C:\Program Files (x86)\Microsoft Visual Studio\2019\Community\VC\Tools\MSVC\14.29.30133\atlmfc\include\atlcore.h

; 155  : 		DeleteCriticalSection(&m_sec);

  00097	ff 15 00 00 00
	00		 call	 DWORD PTR __imp__DeleteCriticalSection@4
; File C:\Program Files (x86)\Microsoft Visual Studio\2019\Community\VC\Tools\MSVC\14.29.30133\atlmfc\include\atlbase.h

; 7664 : 	pWinModule->cbSize = 0;

  0009d	8b 0d 00 00 00
	00		 mov	 ecx, DWORD PTR __imp__free
  000a3	c7 05 00 00 00
	00 00 00 00 00	 mov	 DWORD PTR ?_AtlWinModule@ATL@@3VCAtlWinModule@1@A, 0
$LN8@dynamic:
; File C:\Program Files (x86)\Microsoft Visual Studio\2019\Community\VC\Tools\MSVC\14.29.30133\atlmfc\include\atlsimpcoll.h

; 216  : 		if(m_aT != NULL)

  000ad	a1 20 00 00 00	 mov	 eax, DWORD PTR ?_AtlWinModule@ATL@@3VCAtlWinModule@1@A+32
  000b2	5f		 pop	 edi
  000b3	85 c0		 test	 eax, eax
  000b5	74 10		 je	 SHORT $LN40@dynamic

; 217  : 		{
; 218  : 			for(int i = 0; i < m_nSize; i++)
; 219  : 				m_aT[i].~T();
; 220  : 			free(m_aT);

  000b7	50		 push	 eax
  000b8	ff d1		 call	 ecx
  000ba	83 c4 04	 add	 esp, 4

; 221  : 			m_aT = NULL;

  000bd	c7 05 20 00 00
	00 00 00 00 00	 mov	 DWORD PTR ?_AtlWinModule@ATL@@3VCAtlWinModule@1@A+32, 0
$LN40@dynamic:

; 223  : 		m_nSize = 0;

  000c7	c7 05 24 00 00
	00 00 00 00 00	 mov	 DWORD PTR ?_AtlWinModule@ATL@@3VCAtlWinModule@1@A+36, 0

; 224  : 		m_nAllocSize = 0;

  000d1	c7 05 28 00 00
	00 00 00 00 00	 mov	 DWORD PTR ?_AtlWinModule@ATL@@3VCAtlWinModule@1@A+40, 0
  000db	c3		 ret	 0
$LN46@dynamic:

; 240  : 			_AtlRaiseException((DWORD)EXCEPTION_ARRAY_BOUNDS_EXCEEDED);

  000dc	6a 01		 push	 1
  000de	68 8c 00 00 c0	 push	 -1073741684		; c000008cH
  000e3	e8 00 00 00 00	 call	 ?_AtlRaiseException@ATL@@YAXKK@Z ; ATL::_AtlRaiseException
$LN56@dynamic:
  000e8	cc		 int	 3
??__F_AtlWinModule@ATL@@YAXXZ ENDP			; ATL::`dynamic atexit destructor for '_AtlWinModule''
text$yd	ENDS
; Function compile flags: /Ogtp
; File C:\Program Files (x86)\Microsoft Visual Studio\2019\Community\VC\Tools\MSVC\14.29.30133\atlmfc\include\atlbase.h
; File C:\Program Files (x86)\Microsoft Visual Studio\2019\Community\VC\Tools\MSVC\14.29.30133\atlmfc\include\atlwinverapi.h
; File C:\Program Files (x86)\Microsoft Visual Studio\2019\Community\VC\Tools\MSVC\14.29.30133\atlmfc\include\atlcore.h
; File C:\Program Files (x86)\Windows Kits\10\Include\10.0.22000.0\shared\winerror.h
; File C:\Program Files (x86)\Microsoft Visual Studio\2019\Community\VC\Tools\MSVC\14.29.30133\atlmfc\include\atlbase.h
;	COMDAT ??__E_AtlWinModule@ATL@@YAXXZ
text$di	SEGMENT
??__E_AtlWinModule@ATL@@YAXXZ PROC			; ATL::`dynamic initializer for '_AtlWinModule'', COMDAT
; File C:\Program Files (x86)\Microsoft Visual Studio\2019\Community\VC\Tools\MSVC\14.29.30133\atlmfc\include\atlwinverapi.h

; 730  : 	return ::InitializeCriticalSectionEx(lpCriticalSection, dwSpinCount, Flags);

  00000	6a 00		 push	 0
  00002	6a 00		 push	 0
  00004	68 04 00 00 00	 push	 OFFSET ?_AtlWinModule@ATL@@3VCAtlWinModule@1@A+4
  00009	ff 15 00 00 00
	00		 call	 DWORD PTR __imp__InitializeCriticalSectionEx@12
; File C:\Program Files (x86)\Microsoft Visual Studio\2019\Community\VC\Tools\MSVC\14.29.30133\atlmfc\include\atlcore.h

; 145  : 		if (!_AtlInitializeCriticalSectionEx(&m_sec, 0, 0))

  0000f	85 c0		 test	 eax, eax
  00011	75 27		 jne	 SHORT $LN4@dynamic

; 146  : 		{
; 147  : 			hRes = HRESULT_FROM_WIN32(GetLastError());

  00013	ff 15 00 00 00
	00		 call	 DWORD PTR __imp__GetLastError@0
; File C:\Program Files (x86)\Windows Kits\10\Include\10.0.22000.0\shared\winerror.h

; 29673: FORCEINLINE _Translates_Win32_to_HRESULT_(x) HRESULT HRESULT_FROM_WIN32(unsigned long x) { return (HRESULT)(x) <= 0 ? (HRESULT)(x) : (HRESULT) (((x) & 0x0000FFFF) | (FACILITY_WIN32 << 16) | 0x80000000);}

  00019	85 c0		 test	 eax, eax
  0001b	7e 0a		 jle	 SHORT $LN26@dynamic
  0001d	0f b7 c0	 movzx	 eax, ax
  00020	0d 00 00 07 80	 or	 eax, -2147024896	; 80070000H
; File C:\Program Files (x86)\Microsoft Visual Studio\2019\Community\VC\Tools\MSVC\14.29.30133\atlmfc\include\atlbase.h

; 2941 : 		if (FAILED(hr))

  00025	85 c0		 test	 eax, eax
$LN26@dynamic:
  00027	79 11		 jns	 SHORT $LN4@dynamic

; 2942 : 		{
; 2943 : 			ATLASSERT(0);
; 2944 : 			CAtlBaseModule::m_bInitFailed = true;

  00029	c6 05 00 00 00
	00 01		 mov	 BYTE PTR ?m_bInitFailed@CAtlBaseModule@ATL@@2_NA, 1 ; ATL::CAtlBaseModule::m_bInitFailed

; 2945 : 			cbSize = 0;

  00030	c7 05 00 00 00
	00 00 00 00 00	 mov	 DWORD PTR ?_AtlWinModule@ATL@@3VCAtlWinModule@1@A, 0
$LN4@dynamic:

; 2972 : __declspec(selectany) CAtlWinModule _AtlWinModule;

  0003a	68 00 00 00 00	 push	 OFFSET ??__F_AtlWinModule@ATL@@YAXXZ ; ATL::`dynamic atexit destructor for '_AtlWinModule''
  0003f	e8 00 00 00 00	 call	 _atexit
  00044	59		 pop	 ecx
  00045	c3		 ret	 0
??__E_AtlWinModule@ATL@@YAXXZ ENDP			; ATL::`dynamic initializer for '_AtlWinModule''
text$di	ENDS
; Function compile flags: /Ogtp
; File C:\Program Files (x86)\Microsoft Visual Studio\2019\Community\VC\Tools\MSVC\14.29.30133\atlmfc\include\atlwinverapi.h
;	COMDAT ?_AtlInitializeCriticalSectionEx@ATL@@YAHPAU_RTL_CRITICAL_SECTION@@KK@Z
_TEXT	SEGMENT
_lpCriticalSection$ = 8					; size = 4
_dwSpinCount$ = 12					; size = 4
_Flags$ = 16						; size = 4
?_AtlInitializeCriticalSectionEx@ATL@@YAHPAU_RTL_CRITICAL_SECTION@@KK@Z PROC ; ATL::_AtlInitializeCriticalSectionEx, COMDAT

; 727  : {

  00000	55		 push	 ebp
  00001	8b ec		 mov	 ebp, esp

; 728  : #if (NTDDI_VERSION >= NTDDI_VISTA) && !defined(_USING_V110_SDK71_) && !defined(_ATL_XP_TARGETING)
; 729  : 	// InitializeCriticalSectionEx is available in Vista or later, desktop or store apps
; 730  : 	return ::InitializeCriticalSectionEx(lpCriticalSection, dwSpinCount, Flags);

  00003	ff 75 10	 push	 DWORD PTR _Flags$[ebp]
  00006	ff 75 0c	 push	 DWORD PTR _dwSpinCount$[ebp]
  00009	ff 75 08	 push	 DWORD PTR _lpCriticalSection$[ebp]
  0000c	ff 15 00 00 00
	00		 call	 DWORD PTR __imp__InitializeCriticalSectionEx@12

; 731  : #else
; 732  : 	UNREFERENCED_PARAMETER(Flags);
; 733  : 
; 734  : 	// ...otherwise fall back to using InitializeCriticalSectionAndSpinCount.
; 735  : 	return ::InitializeCriticalSectionAndSpinCount(lpCriticalSection, dwSpinCount);
; 736  : #endif
; 737  : }

  00012	5d		 pop	 ebp
  00013	c3		 ret	 0
?_AtlInitializeCriticalSectionEx@ATL@@YAHPAU_RTL_CRITICAL_SECTION@@KK@Z ENDP ; ATL::_AtlInitializeCriticalSectionEx
_TEXT	ENDS
; Function compile flags: /Ogtp
; File C:\Program Files (x86)\Microsoft Visual Studio\2019\Community\VC\Tools\MSVC\14.29.30133\atlmfc\include\atlexcept.h
;	COMDAT ?_AtlRaiseException@ATL@@YAXKK@Z
_TEXT	SEGMENT
_dwExceptionCode$ = 8					; size = 4
_dwExceptionFlags$ = 12					; size = 4
?_AtlRaiseException@ATL@@YAXKK@Z PROC			; ATL::_AtlRaiseException, COMDAT

; 30   : {

  00000	55		 push	 ebp
  00001	8b ec		 mov	 ebp, esp

; 31   : 	RaiseException( dwExceptionCode, dwExceptionFlags, 0, NULL );

  00003	6a 00		 push	 0
  00005	6a 00		 push	 0
  00007	ff 75 0c	 push	 DWORD PTR _dwExceptionFlags$[ebp]
  0000a	ff 75 08	 push	 DWORD PTR _dwExceptionCode$[ebp]
  0000d	ff 15 00 00 00
	00		 call	 DWORD PTR __imp__RaiseException@16

; 32   : }

  00013	5d		 pop	 ebp
  00014	c3		 ret	 0
?_AtlRaiseException@ATL@@YAXKK@Z ENDP			; ATL::_AtlRaiseException
_TEXT	ENDS
; Function compile flags: /Ogtp
; File C:\Program Files (x86)\Microsoft Visual Studio\2019\Community\VC\Tools\MSVC\14.29.30133\atlmfc\include\afx.inl
;	COMDAT ?Dump@CObject@@UBEXAAVCDumpContext@@@Z
_TEXT	SEGMENT
___formal$ = 8						; size = 4
?Dump@CObject@@UBEXAAVCDumpContext@@@Z PROC		; CObject::Dump, COMDAT
; _this$ = ecx

; 122  : 	{ /* no dumping in release builds */ }

  00000	c2 04 00	 ret	 4
?Dump@CObject@@UBEXAAVCDumpContext@@@Z ENDP		; CObject::Dump
_TEXT	ENDS
; Function compile flags: /Ogtp
; File C:\Program Files (x86)\Microsoft Visual Studio\2019\Community\VC\Tools\MSVC\14.29.30133\atlmfc\include\afx.inl
;	COMDAT ?AssertValid@CObject@@UBEXXZ
_TEXT	SEGMENT
?AssertValid@CObject@@UBEXXZ PROC			; CObject::AssertValid, COMDAT
; _this$ = ecx

; 120  : 	{ /* no asserts in release builds */ }

  00000	c2 00 00	 ret	 0
?AssertValid@CObject@@UBEXXZ ENDP			; CObject::AssertValid
_TEXT	ENDS
; Function compile flags: /Ogtp
; File C:\Program Files (x86)\Microsoft Visual Studio\2019\Community\VC\Tools\MSVC\14.29.30133\atlmfc\include\afx.inl
;	COMDAT ?Serialize@CObject@@UAEXAAVCArchive@@@Z
_TEXT	SEGMENT
___formal$ = 8						; size = 4
?Serialize@CObject@@UAEXAAVCArchive@@@Z PROC		; CObject::Serialize, COMDAT
; _this$ = ecx

; 106  : 	{ /* CObject does not serialize anything by default */ }

  00000	c2 04 00	 ret	 4
?Serialize@CObject@@UAEXAAVCArchive@@@Z ENDP		; CObject::Serialize
_TEXT	ENDS
; Function compile flags: /Ogtp
; File C:\Program Files (x86)\Microsoft Visual Studio\2019\Community\VC\Tools\MSVC\14.29.30133\atlmfc\include\afx.inl
;	COMDAT ??1CObject@@UAE@XZ
_TEXT	SEGMENT
??1CObject@@UAE@XZ PROC					; CObject::~CObject, COMDAT
; _this$ = ecx

; 104  : 	{ }

  00000	c2 00 00	 ret	 0
??1CObject@@UAE@XZ ENDP					; CObject::~CObject
_TEXT	ENDS
; Function compile flags: /Ogtp
; File D:\git\src\IBK\IBK_DRFN\ProjSrc\SrcDrfn\Chart\MULTICHART\LeftBarDlg.cpp
;	COMDAT ?__empty_global_delete@@YAXPAXI@Z
_TEXT	SEGMENT
___formal$ = 8						; size = 4
___formal$ = 12						; size = 4
?__empty_global_delete@@YAXPAXI@Z PROC			; __empty_global_delete, COMDAT

  00000	c2 00 00	 ret	 0
?__empty_global_delete@@YAXPAXI@Z ENDP			; __empty_global_delete
_TEXT	ENDS
; Function compile flags: /Ogtp
; File D:\git\src\IBK\IBK_DRFN\ProjSrc\SrcDrfn\Chart\MULTICHART\LeftBarDlg.cpp
;	COMDAT ?__empty_global_delete@@YAXPAX@Z
_TEXT	SEGMENT
___formal$ = 8						; size = 4
?__empty_global_delete@@YAXPAX@Z PROC			; __empty_global_delete, COMDAT

  00000	c2 00 00	 ret	 0
?__empty_global_delete@@YAXPAX@Z ENDP			; __empty_global_delete
_TEXT	ENDS
END
