; Listing generated by Microsoft (R) Optimizing Compiler Version 19.29.30148.0 

	TITLE	D:\git\src\IBK\IBK_DRFN\#DRfn-CS\_Obj\MultiChart\LogMan.obj
	.686P
	.XMM
	include listing.inc
	.model	flat

INCLUDELIB MSVCRT
INCLUDELIB OLDNAMES

PUBLIC	?__empty_global_delete@@YAXPAX@Z		; __empty_global_delete
PUBLIC	?__empty_global_delete@@YAXPAXI@Z		; __empty_global_delete
PUBLIC	??1CObject@@UAE@XZ				; CObject::~CObject
PUBLIC	?Serialize@CObject@@UAEXAAVCArchive@@@Z		; CObject::Serialize
PUBLIC	?AssertValid@CObject@@UBEXXZ			; CObject::AssertValid
PUBLIC	?Dump@CObject@@UBEXAAVCDumpContext@@@Z		; CObject::Dump
PUBLIC	??1CException@@UAE@XZ				; CException::~CException
PUBLIC	??1AFX_EXCEPTION_LINK@@QAE@XZ			; AFX_EXCEPTION_LINK::~AFX_EXCEPTION_LINK
PUBLIC	??1CFileException@@UAE@XZ			; CFileException::~CFileException
PUBLIC	??_GCFileException@@UAEPAXI@Z			; CFileException::`scalar deleting destructor'
PUBLIC	??0CLogMan@@QAE@XZ				; CLogMan::CLogMan
PUBLIC	??1CLogMan@@UAE@XZ				; CLogMan::~CLogMan
PUBLIC	?AddLog@CLogMan@@QAEXV?$CStringT@DV?$StrTraitMFC_DLL@DV?$ChTraitsCRT@D@ATL@@@@@ATL@@@Z ; CLogMan::AddLog
PUBLIC	?SaveLogFile@CLogMan@@QAEXV?$CStringT@DV?$StrTraitMFC_DLL@DV?$ChTraitsCRT@D@ATL@@@@@ATL@@@Z ; CLogMan::SaveLogFile
PUBLIC	??_GCLogMan@@UAEPAXI@Z				; CLogMan::`scalar deleting destructor'
PUBLIC	??_7CFileException@@6B@				; CFileException::`vftable'
PUBLIC	??_7CLogMan@@6B@				; CLogMan::`vftable'
PUBLIC	??_R0?AVCObject@@@8				; CObject `RTTI Type Descriptor'
PUBLIC	??_R3CObject@@8					; CObject::`RTTI Class Hierarchy Descriptor'
PUBLIC	??_R2CObject@@8					; CObject::`RTTI Base Class Array'
PUBLIC	??_R1A@?0A@EA@CObject@@8			; CObject::`RTTI Base Class Descriptor at (0,-1,0,64)'
PUBLIC	??_R0?AVCException@@@8				; CException `RTTI Type Descriptor'
PUBLIC	??_R3CException@@8				; CException::`RTTI Class Hierarchy Descriptor'
PUBLIC	??_R2CException@@8				; CException::`RTTI Base Class Array'
PUBLIC	??_R1A@?0A@EA@CException@@8			; CException::`RTTI Base Class Descriptor at (0,-1,0,64)'
PUBLIC	??_R4CFileException@@6B@			; CFileException::`RTTI Complete Object Locator'
PUBLIC	??_R0?AVCFileException@@@8			; CFileException `RTTI Type Descriptor'
PUBLIC	??_R3CFileException@@8				; CFileException::`RTTI Class Hierarchy Descriptor'
PUBLIC	??_R2CFileException@@8				; CFileException::`RTTI Base Class Array'
PUBLIC	??_R1A@?0A@EA@CFileException@@8			; CFileException::`RTTI Base Class Descriptor at (0,-1,0,64)'
PUBLIC	??_C@_0CL@FGHFBDAH@?$CFs?2MultiChart?$CF04d?$CF02d?$CF02d_?$CF02d?$CF@ ; `string'
PUBLIC	??_C@_01EEMJAFIK@?6@				; `string'
PUBLIC	??_R0PAVCFileException@@@8			; CFileException * `RTTI Type Descriptor'
PUBLIC	??_R4CLogMan@@6B@				; CLogMan::`RTTI Complete Object Locator'
PUBLIC	??_R0?AVCLogMan@@@8				; CLogMan `RTTI Type Descriptor'
PUBLIC	??_R3CLogMan@@8					; CLogMan::`RTTI Class Hierarchy Descriptor'
PUBLIC	??_R2CLogMan@@8					; CLogMan::`RTTI Base Class Array'
PUBLIC	??_R1A@?0A@EA@CLogMan@@8			; CLogMan::`RTTI Base Class Descriptor at (0,-1,0,64)'
EXTRN	??3@YAXPAX@Z:PROC				; operator delete
EXTRN	??3@YAXPAXI@Z:PROC				; operator delete
EXTRN	?__global_delete@@YAXPAXI@Z:PROC		; __global_delete
EXTRN	___std_terminate:PROC
EXTRN	__imp___localtime64_s:PROC
EXTRN	__imp___time64:PROC
EXTRN	?AfxThrowMemoryException@@YGXXZ:PROC		; AfxThrowMemoryException
EXTRN	?AfxThrowInvalidArgException@@YGXXZ:PROC	; AfxThrowInvalidArgException
EXTRN	?AfxThrowOleException@@YGXJ@Z:PROC		; AfxThrowOleException
EXTRN	??0CException@@QAE@XZ:PROC			; CException::CException
EXTRN	?GetErrorMessage@CException@@UAEHPADIPAI@Z:PROC	; CException::GetErrorMessage
EXTRN	?ReportError@CException@@UAEHII@Z:PROC		; CException::ReportError
EXTRN	__imp_??0?$CStringT@DV?$StrTraitMFC_DLL@DV?$ChTraitsCRT@D@ATL@@@@@ATL@@QAE@XZ:PROC
EXTRN	__imp_??1?$CStringT@DV?$StrTraitMFC_DLL@DV?$ChTraitsCRT@D@ATL@@@@@ATL@@QAE@XZ:PROC
EXTRN	__imp_??4?$CStringT@DV?$StrTraitMFC_DLL@DV?$ChTraitsCRT@D@ATL@@@@@ATL@@QAEAAV01@PBD@Z:PROC
EXTRN	__imp_?Format@?$CStringT@DV?$StrTraitMFC_DLL@DV?$ChTraitsCRT@D@ATL@@@@@ATL@@QAAXPBDZZ:PROC
EXTRN	?AfxTryCleanup@@YGXXZ:PROC			; AfxTryCleanup
EXTRN	??0AFX_EXCEPTION_LINK@@QAE@XZ:PROC		; AFX_EXCEPTION_LINK::AFX_EXCEPTION_LINK
EXTRN	?GetRuntimeClass@CFileException@@UBEPAUCRuntimeClass@@XZ:PROC ; CFileException::GetRuntimeClass
EXTRN	?GetErrorMessage@CFileException@@UBEHPADIPAI@Z:PROC ; CFileException::GetErrorMessage
EXTRN	??_ECFileException@@UAEPAXI@Z:PROC		; CFileException::`vector deleting destructor'
EXTRN	??0CStdioFile@@QAE@XZ:PROC			; CStdioFile::CStdioFile
EXTRN	?WriteString@CStdioFile@@UAEXPBD@Z:PROC		; CStdioFile::WriteString
EXTRN	??1CStdioFile@@UAE@XZ:PROC			; CStdioFile::~CStdioFile
EXTRN	?Open@CStdioFile@@UAEHPBDIPAVCFileException@@@Z:PROC ; CStdioFile::Open
EXTRN	?Close@CStdioFile@@UAEXXZ:PROC			; CStdioFile::Close
EXTRN	??0CStringArray@@QAE@XZ:PROC			; CStringArray::CStringArray
EXTRN	?SetAtGrow@CStringArray@@QAEXHABV?$CStringT@DV?$StrTraitMFC_DLL@DV?$ChTraitsCRT@D@ATL@@@@@ATL@@@Z:PROC ; CStringArray::SetAtGrow
EXTRN	??1CStringArray@@UAE@XZ:PROC			; CStringArray::~CStringArray
EXTRN	??_ECLogMan@@UAEPAXI@Z:PROC			; CLogMan::`vector deleting destructor'
EXTRN	@__security_check_cookie@4:PROC
EXTRN	___CxxFrameHandler3:PROC
EXTRN	??_7type_info@@6B@:QWORD			; type_info::`vftable'
EXTRN	___security_cookie:DWORD
;	COMDAT ??_R1A@?0A@EA@CLogMan@@8
rdata$r	SEGMENT
??_R1A@?0A@EA@CLogMan@@8 DD FLAT:??_R0?AVCLogMan@@@8	; CLogMan::`RTTI Base Class Descriptor at (0,-1,0,64)'
	DD	00H
	DD	00H
	DD	0ffffffffH
	DD	00H
	DD	040H
	DD	FLAT:??_R3CLogMan@@8
rdata$r	ENDS
;	COMDAT ??_R2CLogMan@@8
rdata$r	SEGMENT
??_R2CLogMan@@8 DD FLAT:??_R1A@?0A@EA@CLogMan@@8	; CLogMan::`RTTI Base Class Array'
rdata$r	ENDS
;	COMDAT ??_R3CLogMan@@8
rdata$r	SEGMENT
??_R3CLogMan@@8 DD 00H					; CLogMan::`RTTI Class Hierarchy Descriptor'
	DD	00H
	DD	01H
	DD	FLAT:??_R2CLogMan@@8
rdata$r	ENDS
;	COMDAT ??_R0?AVCLogMan@@@8
data$rs	SEGMENT
??_R0?AVCLogMan@@@8 DD FLAT:??_7type_info@@6B@		; CLogMan `RTTI Type Descriptor'
	DD	00H
	DB	'.?AVCLogMan@@', 00H
data$rs	ENDS
;	COMDAT ??_R4CLogMan@@6B@
rdata$r	SEGMENT
??_R4CLogMan@@6B@ DD 00H				; CLogMan::`RTTI Complete Object Locator'
	DD	00H
	DD	00H
	DD	FLAT:??_R0?AVCLogMan@@@8
	DD	FLAT:??_R3CLogMan@@8
rdata$r	ENDS
;	COMDAT ??_R0PAVCFileException@@@8
data$r	SEGMENT
??_R0PAVCFileException@@@8 DD FLAT:??_7type_info@@6B@	; CFileException * `RTTI Type Descriptor'
	DD	00H
	DB	'.PAVCFileException@@', 00H
data$r	ENDS
;	COMDAT ??_C@_01EEMJAFIK@?6@
CONST	SEGMENT
??_C@_01EEMJAFIK@?6@ DB 0aH, 00H			; `string'
CONST	ENDS
;	COMDAT ??_C@_0CL@FGHFBDAH@?$CFs?2MultiChart?$CF04d?$CF02d?$CF02d_?$CF02d?$CF@
CONST	SEGMENT
??_C@_0CL@FGHFBDAH@?$CFs?2MultiChart?$CF04d?$CF02d?$CF02d_?$CF02d?$CF@ DB '%'
	DB	's\MultiChart%04d%02d%02d_%02d%02d%02d.log', 00H ; `string'
CONST	ENDS
;	COMDAT ??_R1A@?0A@EA@CFileException@@8
rdata$r	SEGMENT
??_R1A@?0A@EA@CFileException@@8 DD FLAT:??_R0?AVCFileException@@@8 ; CFileException::`RTTI Base Class Descriptor at (0,-1,0,64)'
	DD	02H
	DD	00H
	DD	0ffffffffH
	DD	00H
	DD	040H
	DD	FLAT:??_R3CFileException@@8
rdata$r	ENDS
;	COMDAT ??_R2CFileException@@8
rdata$r	SEGMENT
??_R2CFileException@@8 DD FLAT:??_R1A@?0A@EA@CFileException@@8 ; CFileException::`RTTI Base Class Array'
	DD	FLAT:??_R1A@?0A@EA@CException@@8
	DD	FLAT:??_R1A@?0A@EA@CObject@@8
rdata$r	ENDS
;	COMDAT ??_R3CFileException@@8
rdata$r	SEGMENT
??_R3CFileException@@8 DD 00H				; CFileException::`RTTI Class Hierarchy Descriptor'
	DD	00H
	DD	03H
	DD	FLAT:??_R2CFileException@@8
rdata$r	ENDS
;	COMDAT ??_R0?AVCFileException@@@8
data$rs	SEGMENT
??_R0?AVCFileException@@@8 DD FLAT:??_7type_info@@6B@	; CFileException `RTTI Type Descriptor'
	DD	00H
	DB	'.?AVCFileException@@', 00H
data$rs	ENDS
;	COMDAT ??_R4CFileException@@6B@
rdata$r	SEGMENT
??_R4CFileException@@6B@ DD 00H				; CFileException::`RTTI Complete Object Locator'
	DD	00H
	DD	00H
	DD	FLAT:??_R0?AVCFileException@@@8
	DD	FLAT:??_R3CFileException@@8
rdata$r	ENDS
;	COMDAT ??_R1A@?0A@EA@CException@@8
rdata$r	SEGMENT
??_R1A@?0A@EA@CException@@8 DD FLAT:??_R0?AVCException@@@8 ; CException::`RTTI Base Class Descriptor at (0,-1,0,64)'
	DD	01H
	DD	00H
	DD	0ffffffffH
	DD	00H
	DD	040H
	DD	FLAT:??_R3CException@@8
rdata$r	ENDS
;	COMDAT ??_R2CException@@8
rdata$r	SEGMENT
??_R2CException@@8 DD FLAT:??_R1A@?0A@EA@CException@@8	; CException::`RTTI Base Class Array'
	DD	FLAT:??_R1A@?0A@EA@CObject@@8
rdata$r	ENDS
;	COMDAT ??_R3CException@@8
rdata$r	SEGMENT
??_R3CException@@8 DD 00H				; CException::`RTTI Class Hierarchy Descriptor'
	DD	00H
	DD	02H
	DD	FLAT:??_R2CException@@8
rdata$r	ENDS
;	COMDAT ??_R0?AVCException@@@8
data$rs	SEGMENT
??_R0?AVCException@@@8 DD FLAT:??_7type_info@@6B@	; CException `RTTI Type Descriptor'
	DD	00H
	DB	'.?AVCException@@', 00H
data$rs	ENDS
;	COMDAT ??_R1A@?0A@EA@CObject@@8
rdata$r	SEGMENT
??_R1A@?0A@EA@CObject@@8 DD FLAT:??_R0?AVCObject@@@8	; CObject::`RTTI Base Class Descriptor at (0,-1,0,64)'
	DD	00H
	DD	00H
	DD	0ffffffffH
	DD	00H
	DD	040H
	DD	FLAT:??_R3CObject@@8
rdata$r	ENDS
;	COMDAT ??_R2CObject@@8
rdata$r	SEGMENT
??_R2CObject@@8 DD FLAT:??_R1A@?0A@EA@CObject@@8	; CObject::`RTTI Base Class Array'
rdata$r	ENDS
;	COMDAT ??_R3CObject@@8
rdata$r	SEGMENT
??_R3CObject@@8 DD 00H					; CObject::`RTTI Class Hierarchy Descriptor'
	DD	00H
	DD	01H
	DD	FLAT:??_R2CObject@@8
rdata$r	ENDS
;	COMDAT ??_R0?AVCObject@@@8
data$rs	SEGMENT
??_R0?AVCObject@@@8 DD FLAT:??_7type_info@@6B@		; CObject `RTTI Type Descriptor'
	DD	00H
	DB	'.?AVCObject@@', 00H
data$rs	ENDS
;	COMDAT ??_7CLogMan@@6B@
CONST	SEGMENT
??_7CLogMan@@6B@ DD FLAT:??_R4CLogMan@@6B@		; CLogMan::`vftable'
	DD	FLAT:??_ECLogMan@@UAEPAXI@Z
CONST	ENDS
;	COMDAT ??_7CFileException@@6B@
CONST	SEGMENT
??_7CFileException@@6B@ DD FLAT:??_R4CFileException@@6B@ ; CFileException::`vftable'
	DD	FLAT:?GetRuntimeClass@CFileException@@UBEPAUCRuntimeClass@@XZ
	DD	FLAT:??_ECFileException@@UAEPAXI@Z
	DD	FLAT:?Serialize@CObject@@UAEXAAVCArchive@@@Z
	DD	FLAT:?AssertValid@CObject@@UBEXXZ
	DD	FLAT:?Dump@CObject@@UBEXAAVCDumpContext@@@Z
	DD	FLAT:?GetErrorMessage@CException@@UAEHPADIPAI@Z
	DD	FLAT:?GetErrorMessage@CFileException@@UBEHPADIPAI@Z
	DD	FLAT:?ReportError@CException@@UAEHII@Z
CONST	ENDS
;	COMDAT xdata$x
xdata$x	SEGMENT
__catchsym$?SaveLogFile@CLogMan@@QAEXV?$CStringT@DV?$StrTraitMFC_DLL@DV?$ChTraitsCRT@D@ATL@@@@@ATL@@@Z$13 DD 00H
	DD	FLAT:??_R0PAVCFileException@@@8
	DD	0fffffec4H
	DD	FLAT:__catch$?SaveLogFile@CLogMan@@QAEXV?$CStringT@DV?$StrTraitMFC_DLL@DV?$ChTraitsCRT@D@ATL@@@@@ATL@@@Z$0
__tryblocktable$?SaveLogFile@CLogMan@@QAEXV?$CStringT@DV?$StrTraitMFC_DLL@DV?$ChTraitsCRT@D@ATL@@@@@ATL@@@Z DD 06H
	DD	06H
	DD	07H
	DD	01H
	DD	FLAT:__catchsym$?SaveLogFile@CLogMan@@QAEXV?$CStringT@DV?$StrTraitMFC_DLL@DV?$ChTraitsCRT@D@ATL@@@@@ATL@@@Z$13
__ehfuncinfo$?SaveLogFile@CLogMan@@QAEXV?$CStringT@DV?$StrTraitMFC_DLL@DV?$ChTraitsCRT@D@ATL@@@@@ATL@@@Z DD 019930522H
	DD	0aH
	DD	FLAT:__unwindtable$?SaveLogFile@CLogMan@@QAEXV?$CStringT@DV?$StrTraitMFC_DLL@DV?$ChTraitsCRT@D@ATL@@@@@ATL@@@Z
	DD	01H
	DD	FLAT:__tryblocktable$?SaveLogFile@CLogMan@@QAEXV?$CStringT@DV?$StrTraitMFC_DLL@DV?$ChTraitsCRT@D@ATL@@@@@ATL@@@Z
	DD	2 DUP(00H)
	DD	00H
	DD	01H
__unwindtable$?SaveLogFile@CLogMan@@QAEXV?$CStringT@DV?$StrTraitMFC_DLL@DV?$ChTraitsCRT@D@ATL@@@@@ATL@@@Z DD 0ffffffffH
	DD	FLAT:__unwindfunclet$?SaveLogFile@CLogMan@@QAEXV?$CStringT@DV?$StrTraitMFC_DLL@DV?$ChTraitsCRT@D@ATL@@@@@ATL@@@Z$2
	DD	00H
	DD	FLAT:__unwindfunclet$?SaveLogFile@CLogMan@@QAEXV?$CStringT@DV?$StrTraitMFC_DLL@DV?$ChTraitsCRT@D@ATL@@@@@ATL@@@Z$3
	DD	01H
	DD	FLAT:__unwindfunclet$?SaveLogFile@CLogMan@@QAEXV?$CStringT@DV?$StrTraitMFC_DLL@DV?$ChTraitsCRT@D@ATL@@@@@ATL@@@Z$4
	DD	02H
	DD	FLAT:__unwindfunclet$?SaveLogFile@CLogMan@@QAEXV?$CStringT@DV?$StrTraitMFC_DLL@DV?$ChTraitsCRT@D@ATL@@@@@ATL@@@Z$7
	DD	02H
	DD	FLAT:__unwindfunclet$?SaveLogFile@CLogMan@@QAEXV?$CStringT@DV?$StrTraitMFC_DLL@DV?$ChTraitsCRT@D@ATL@@@@@ATL@@@Z$5
	DD	04H
	DD	FLAT:__unwindfunclet$?SaveLogFile@CLogMan@@QAEXV?$CStringT@DV?$StrTraitMFC_DLL@DV?$ChTraitsCRT@D@ATL@@@@@ATL@@@Z$6
	DD	05H
	DD	00H
	DD	05H
	DD	00H
	DD	04H
	DD	FLAT:___std_terminate
	DD	04H
	DD	FLAT:___std_terminate
xdata$x	ENDS
;	COMDAT xdata$x
xdata$x	SEGMENT
__unwindtable$?AddLog@CLogMan@@QAEXV?$CStringT@DV?$StrTraitMFC_DLL@DV?$ChTraitsCRT@D@ATL@@@@@ATL@@@Z DD 0ffffffffH
	DD	FLAT:__unwindfunclet$?AddLog@CLogMan@@QAEXV?$CStringT@DV?$StrTraitMFC_DLL@DV?$ChTraitsCRT@D@ATL@@@@@ATL@@@Z$0
__ehfuncinfo$?AddLog@CLogMan@@QAEXV?$CStringT@DV?$StrTraitMFC_DLL@DV?$ChTraitsCRT@D@ATL@@@@@ATL@@@Z DD 019930522H
	DD	01H
	DD	FLAT:__unwindtable$?AddLog@CLogMan@@QAEXV?$CStringT@DV?$StrTraitMFC_DLL@DV?$ChTraitsCRT@D@ATL@@@@@ATL@@@Z
	DD	2 DUP(00H)
	DD	2 DUP(00H)
	DD	00H
	DD	01H
xdata$x	ENDS
;	COMDAT xdata$x
xdata$x	SEGMENT
__unwindtable$??0CFileException@@QAE@HJPBD@Z DD 0ffffffffH
	DD	FLAT:__unwindfunclet$??0CFileException@@QAE@HJPBD@Z$0
__ehfuncinfo$??0CFileException@@QAE@HJPBD@Z DD 019930522H
	DD	01H
	DD	FLAT:__unwindtable$??0CFileException@@QAE@HJPBD@Z
	DD	2 DUP(00H)
	DD	2 DUP(00H)
	DD	00H
	DD	01H
xdata$x	ENDS
;	COMDAT xdata$x
xdata$x	SEGMENT
__ehfuncinfo$??1AFX_EXCEPTION_LINK@@QAE@XZ DD 019930522H
	DD	00H
	DD	00H
	DD	2 DUP(00H)
	DD	2 DUP(00H)
	DD	00H
	DD	05H
xdata$x	ENDS
; Function compile flags: /Ogtp
; File D:\git\src\IBK\IBK_DRFN\ProjSrc\SrcDrfn\Chart\MULTICHART\LogMan.cpp
;	COMDAT ??_GCLogMan@@UAEPAXI@Z
_TEXT	SEGMENT
___flags$ = 8						; size = 4
??_GCLogMan@@UAEPAXI@Z PROC				; CLogMan::`scalar deleting destructor', COMDAT
; _this$ = ecx
  00000	55		 push	 ebp
  00001	8b ec		 mov	 ebp, esp

; 25   : {

  00003	56		 push	 esi
  00004	8b f1		 mov	 esi, ecx

; 26   : }

  00006	8d 4e 08	 lea	 ecx, DWORD PTR [esi+8]
  00009	c7 06 00 00 00
	00		 mov	 DWORD PTR [esi], OFFSET ??_7CLogMan@@6B@
  0000f	e8 00 00 00 00	 call	 ??1CStringArray@@UAE@XZ	; CStringArray::~CStringArray
  00014	f6 45 08 01	 test	 BYTE PTR ___flags$[ebp], 1
  00018	74 0b		 je	 SHORT $LN7@scalar
  0001a	6a 1c		 push	 28			; 0000001cH
  0001c	56		 push	 esi
  0001d	e8 00 00 00 00	 call	 ??3@YAXPAXI@Z		; operator delete
  00022	83 c4 08	 add	 esp, 8
$LN7@scalar:
  00025	8b c6		 mov	 eax, esi
  00027	5e		 pop	 esi
  00028	5d		 pop	 ebp
  00029	c2 04 00	 ret	 4
??_GCLogMan@@UAEPAXI@Z ENDP				; CLogMan::`scalar deleting destructor'
_TEXT	ENDS
; Function compile flags: /Ogtp
; File D:\git\src\IBK\IBK_DRFN\ProjSrc\SrcDrfn\Chart\MULTICHART\LogMan.cpp
; File C:\Program Files (x86)\Microsoft Visual Studio\2019\Community\VC\Tools\MSVC\14.29.30133\atlmfc\include\atltime.h
; File D:\git\src\IBK\IBK_DRFN\ProjSrc\SrcDrfn\Chart\MULTICHART\LogMan.cpp
; File C:\Program Files (x86)\Microsoft Visual Studio\2019\Community\VC\Tools\MSVC\14.29.30133\atlmfc\include\atltime.h
; File D:\git\src\IBK\IBK_DRFN\ProjSrc\SrcDrfn\Chart\MULTICHART\LogMan.cpp
; File C:\Program Files (x86)\Microsoft Visual Studio\2019\Community\VC\Tools\MSVC\14.29.30133\atlmfc\include\atltime.h
; File D:\git\src\IBK\IBK_DRFN\ProjSrc\SrcDrfn\Chart\MULTICHART\LogMan.cpp
; File C:\Program Files (x86)\Microsoft Visual Studio\2019\Community\VC\Tools\MSVC\14.29.30133\atlmfc\include\atltime.h
; File D:\git\src\IBK\IBK_DRFN\ProjSrc\SrcDrfn\Chart\MULTICHART\LogMan.cpp
; File C:\Program Files (x86)\Microsoft Visual Studio\2019\Community\VC\Tools\MSVC\14.29.30133\atlmfc\include\afx.inl
; File D:\git\src\IBK\IBK_DRFN\ProjSrc\SrcDrfn\Chart\MULTICHART\LogMan.cpp
; File C:\Program Files (x86)\Microsoft Visual Studio\2019\Community\VC\Tools\MSVC\14.29.30133\atlmfc\include\afx.inl
; File D:\git\src\IBK\IBK_DRFN\ProjSrc\SrcDrfn\Chart\MULTICHART\LogMan.cpp
; File C:\Program Files (x86)\Microsoft Visual Studio\2019\Community\VC\Tools\MSVC\14.29.30133\atlmfc\include\afxcoll.inl
; File D:\git\src\IBK\IBK_DRFN\ProjSrc\SrcDrfn\Chart\MULTICHART\LogMan.cpp
; File C:\Program Files (x86)\Microsoft Visual Studio\2019\Community\VC\Tools\MSVC\14.29.30133\atlmfc\include\afx.h
; File D:\git\src\IBK\IBK_DRFN\ProjSrc\SrcDrfn\Chart\MULTICHART\LogMan.cpp
; File C:\Program Files (x86)\Microsoft Visual Studio\2019\Community\VC\Tools\MSVC\14.29.30133\atlmfc\include\afx.h
; File D:\git\src\IBK\IBK_DRFN\ProjSrc\SrcDrfn\Chart\MULTICHART\LogMan.cpp
; File C:\Program Files (x86)\Microsoft Visual Studio\2019\Community\VC\Tools\MSVC\14.29.30133\atlmfc\include\afxcoll.inl
; File D:\git\src\IBK\IBK_DRFN\ProjSrc\SrcDrfn\Chart\MULTICHART\LogMan.cpp
;	COMDAT ?SaveLogFile@CLogMan@@QAEXV?$CStringT@DV?$StrTraitMFC_DLL@DV?$ChTraitsCRT@D@ATL@@@@@ATL@@@Z
_TEXT	SEGMENT
_e$2 = -316						; size = 4
_File$ = -312						; size = 24
__afxExceptionLink$3 = -288				; size = 8
$T4 = -284						; size = 4
$T5 = -280						; size = 4
$T6 = -276						; size = 4
$T7 = -272						; size = 4
_ex$ = -268						; size = 20
_time$ = -248						; size = 8
_strFilePath$ = -240					; size = 4
_ptmTemp$8 = -236					; size = 36
_ptmTemp$9 = -200					; size = 36
_ptmTemp$10 = -164					; size = 36
_ptmTemp$11 = -128					; size = 36
_ptmTemp$12 = -92					; size = 36
_ptmTemp$13 = -56					; size = 36
__$ArrayPad$ = -20					; size = 4
__$EHRec$ = -16						; size = 16
_strPath$ = 8						; size = 4
?SaveLogFile@CLogMan@@QAEXV?$CStringT@DV?$StrTraitMFC_DLL@DV?$ChTraitsCRT@D@ATL@@@@@ATL@@@Z PROC ; CLogMan::SaveLogFile, COMDAT
; _this$ = ecx

; 35   : {

  00000	55		 push	 ebp
  00001	8b ec		 mov	 ebp, esp
  00003	6a ff		 push	 -1
  00005	68 00 00 00 00	 push	 __ehhandler$?SaveLogFile@CLogMan@@QAEXV?$CStringT@DV?$StrTraitMFC_DLL@DV?$ChTraitsCRT@D@ATL@@@@@ATL@@@Z
  0000a	64 a1 00 00 00
	00		 mov	 eax, DWORD PTR fs:0
  00010	50		 push	 eax
  00011	81 ec 30 01 00
	00		 sub	 esp, 304		; 00000130H
  00017	a1 00 00 00 00	 mov	 eax, DWORD PTR ___security_cookie
  0001c	33 c5		 xor	 eax, ebp
  0001e	89 45 ec	 mov	 DWORD PTR __$ArrayPad$[ebp], eax
  00021	53		 push	 ebx
  00022	56		 push	 esi
  00023	57		 push	 edi
  00024	50		 push	 eax
  00025	8d 45 f4	 lea	 eax, DWORD PTR __$EHRec$[ebp+4]
  00028	64 a3 00 00 00
	00		 mov	 DWORD PTR fs:0, eax
  0002e	89 65 f0	 mov	 DWORD PTR __$EHRec$[ebp], esp
  00031	8b f9		 mov	 edi, ecx

; 36   : 	if (!m_bLogging)

  00033	83 7f 04 00	 cmp	 DWORD PTR [edi+4], 0
  00037	c7 45 fc 00 00
	00 00		 mov	 DWORD PTR __$EHRec$[ebp+12], 0
  0003e	0f 84 54 02 00
	00		 je	 $LN158@SaveLogFil
; File C:\Program Files (x86)\Microsoft Visual Studio\2019\Community\VC\Tools\MSVC\14.29.30133\atlmfc\include\atltime.h

; 374  : 	return( CTime( ::_time64( NULL ) ) );

  00044	6a 00		 push	 0
  00046	ff 15 00 00 00
	00		 call	 DWORD PTR __imp___time64
  0004c	83 c4 04	 add	 esp, 4

; 417  : 	m_time( time )

  0004f	89 85 08 ff ff
	ff		 mov	 DWORD PTR _time$[ebp], eax
; File D:\git\src\IBK\IBK_DRFN\ProjSrc\SrcDrfn\Chart\MULTICHART\LogMan.cpp

; 40   : 	CString strFilePath;

  00055	8d 8d 10 ff ff
	ff		 lea	 ecx, DWORD PTR _strFilePath$[ebp]
; File C:\Program Files (x86)\Microsoft Visual Studio\2019\Community\VC\Tools\MSVC\14.29.30133\atlmfc\include\atltime.h

; 417  : 	m_time( time )

  0005b	89 95 0c ff ff
	ff		 mov	 DWORD PTR _time$[ebp+4], edx
; File D:\git\src\IBK\IBK_DRFN\ProjSrc\SrcDrfn\Chart\MULTICHART\LogMan.cpp

; 40   : 	CString strFilePath;

  00061	ff 15 00 00 00
	00		 call	 DWORD PTR __imp_??0?$CStringT@DV?$StrTraitMFC_DLL@DV?$ChTraitsCRT@D@ATL@@@@@ATL@@QAE@XZ
; File C:\Program Files (x86)\Microsoft Visual Studio\2019\Community\VC\Tools\MSVC\14.29.30133\atlmfc\include\atltime.h

; 614  : 		errno_t err = _localtime64_s(&ptmTemp, &m_time);

  00067	8b 1d 00 00 00
	00		 mov	 ebx, DWORD PTR __imp___localtime64_s
  0006d	8d 85 08 ff ff
	ff		 lea	 eax, DWORD PTR _time$[ebp]
  00073	50		 push	 eax
  00074	8d 45 c8	 lea	 eax, DWORD PTR _ptmTemp$13[ebp]
; File D:\git\src\IBK\IBK_DRFN\ProjSrc\SrcDrfn\Chart\MULTICHART\LogMan.cpp

; 40   : 	CString strFilePath;

  00077	c6 45 fc 01	 mov	 BYTE PTR __$EHRec$[ebp+12], 1
; File C:\Program Files (x86)\Microsoft Visual Studio\2019\Community\VC\Tools\MSVC\14.29.30133\atlmfc\include\atltime.h

; 614  : 		errno_t err = _localtime64_s(&ptmTemp, &m_time);

  0007b	50		 push	 eax
  0007c	ff d3		 call	 ebx

; 615  : 
; 616  : 		if (err != 0)

  0007e	8b 4d c8	 mov	 ecx, DWORD PTR _ptmTemp$13[ebp]
  00081	83 ce ff	 or	 esi, -1
  00084	85 c0		 test	 eax, eax

; 614  : 		errno_t err = _localtime64_s(&ptmTemp, &m_time);

  00086	8d 85 08 ff ff
	ff		 lea	 eax, DWORD PTR _time$[ebp]
  0008c	50		 push	 eax
  0008d	8d 45 a4	 lea	 eax, DWORD PTR _ptmTemp$12[ebp]

; 616  : 		if (err != 0)

  00090	0f 45 ce	 cmovne	 ecx, esi

; 614  : 		errno_t err = _localtime64_s(&ptmTemp, &m_time);

  00093	50		 push	 eax

; 616  : 		if (err != 0)

  00094	89 8d f0 fe ff
	ff		 mov	 DWORD PTR $T7[ebp], ecx

; 614  : 		errno_t err = _localtime64_s(&ptmTemp, &m_time);

  0009a	ff d3		 call	 ebx

; 615  : 
; 616  : 		if (err != 0)

  0009c	8b 4d a8	 mov	 ecx, DWORD PTR _ptmTemp$12[ebp+4]
  0009f	85 c0		 test	 eax, eax

; 614  : 		errno_t err = _localtime64_s(&ptmTemp, &m_time);

  000a1	8d 85 08 ff ff
	ff		 lea	 eax, DWORD PTR _time$[ebp]
  000a7	50		 push	 eax
  000a8	8d 45 80	 lea	 eax, DWORD PTR _ptmTemp$11[ebp]

; 616  : 		if (err != 0)

  000ab	0f 45 ce	 cmovne	 ecx, esi

; 614  : 		errno_t err = _localtime64_s(&ptmTemp, &m_time);

  000ae	50		 push	 eax

; 616  : 		if (err != 0)

  000af	89 8d ec fe ff
	ff		 mov	 DWORD PTR $T6[ebp], ecx

; 614  : 		errno_t err = _localtime64_s(&ptmTemp, &m_time);

  000b5	ff d3		 call	 ebx

; 615  : 
; 616  : 		if (err != 0)

  000b7	8b 4d 88	 mov	 ecx, DWORD PTR _ptmTemp$11[ebp+8]
  000ba	85 c0		 test	 eax, eax

; 614  : 		errno_t err = _localtime64_s(&ptmTemp, &m_time);

  000bc	8d 85 08 ff ff
	ff		 lea	 eax, DWORD PTR _time$[ebp]
  000c2	50		 push	 eax
  000c3	8d 85 5c ff ff
	ff		 lea	 eax, DWORD PTR _ptmTemp$10[ebp]

; 616  : 		if (err != 0)

  000c9	0f 45 ce	 cmovne	 ecx, esi

; 614  : 		errno_t err = _localtime64_s(&ptmTemp, &m_time);

  000cc	50		 push	 eax

; 616  : 		if (err != 0)

  000cd	89 8d e8 fe ff
	ff		 mov	 DWORD PTR $T5[ebp], ecx

; 614  : 		errno_t err = _localtime64_s(&ptmTemp, &m_time);

  000d3	ff d3		 call	 ebx

; 615  : 
; 616  : 		if (err != 0)

  000d5	8b 8d 68 ff ff
	ff		 mov	 ecx, DWORD PTR _ptmTemp$10[ebp+12]
  000db	33 d2		 xor	 edx, edx
  000dd	85 c0		 test	 eax, eax

; 614  : 		errno_t err = _localtime64_s(&ptmTemp, &m_time);

  000df	8d 85 08 ff ff
	ff		 lea	 eax, DWORD PTR _time$[ebp]
  000e5	50		 push	 eax
  000e6	8d 85 38 ff ff
	ff		 lea	 eax, DWORD PTR _ptmTemp$9[ebp]

; 616  : 		if (err != 0)

  000ec	0f 45 ca	 cmovne	 ecx, edx

; 614  : 		errno_t err = _localtime64_s(&ptmTemp, &m_time);

  000ef	50		 push	 eax

; 616  : 		if (err != 0)

  000f0	89 8d e4 fe ff
	ff		 mov	 DWORD PTR $T4[ebp], ecx

; 614  : 		errno_t err = _localtime64_s(&ptmTemp, &m_time);

  000f6	ff d3		 call	 ebx
  000f8	83 c4 28	 add	 esp, 40			; 00000028H

; 615  : 
; 616  : 		if (err != 0)

  000fb	85 c0		 test	 eax, eax
  000fd	74 04		 je	 SHORT $LN102@SaveLogFil

; 671  : 	return ptm ? ptm->tm_mon + 1 : 0;

  000ff	33 f6		 xor	 esi, esi
  00101	eb 07		 jmp	 SHORT $LN92@SaveLogFil
$LN102@SaveLogFil:
  00103	8b b5 48 ff ff
	ff		 mov	 esi, DWORD PTR _ptmTemp$9[ebp+16]
  00109	46		 inc	 esi
$LN92@SaveLogFil:

; 614  : 		errno_t err = _localtime64_s(&ptmTemp, &m_time);

  0010a	8d 85 08 ff ff
	ff		 lea	 eax, DWORD PTR _time$[ebp]
  00110	50		 push	 eax
  00111	8d 85 14 ff ff
	ff		 lea	 eax, DWORD PTR _ptmTemp$8[ebp]
  00117	50		 push	 eax
  00118	ff d3		 call	 ebx
  0011a	83 c4 08	 add	 esp, 8

; 615  : 
; 616  : 		if (err != 0)

  0011d	85 c0		 test	 eax, eax
  0011f	74 04		 je	 SHORT $LN118@SaveLogFil

; 662  : 	return ptm ? (ptm->tm_year) + 1900 : 0 ;

  00121	33 c0		 xor	 eax, eax
  00123	eb 0b		 jmp	 SHORT $LN108@SaveLogFil
$LN118@SaveLogFil:
  00125	8b 85 28 ff ff
	ff		 mov	 eax, DWORD PTR _ptmTemp$8[ebp+20]
  0012b	05 6c 07 00 00	 add	 eax, 1900		; 0000076cH
$LN108@SaveLogFil:
; File D:\git\src\IBK\IBK_DRFN\ProjSrc\SrcDrfn\Chart\MULTICHART\LogMan.cpp

; 41   : 	strFilePath.Format(_T("%s\\MultiChart%04d%02d%02d_%02d%02d%02d.log"), strPath, time.GetYear(), time.GetMonth(), time.GetDay(), time.GetHour(), time.GetMinute(), time.GetSecond());

  00130	ff b5 f0 fe ff
	ff		 push	 DWORD PTR $T7[ebp]
  00136	ff b5 ec fe ff
	ff		 push	 DWORD PTR $T6[ebp]
  0013c	ff b5 e8 fe ff
	ff		 push	 DWORD PTR $T5[ebp]
  00142	ff b5 e4 fe ff
	ff		 push	 DWORD PTR $T4[ebp]
  00148	56		 push	 esi
  00149	50		 push	 eax
  0014a	ff 75 08	 push	 DWORD PTR _strPath$[ebp]
  0014d	8d 85 10 ff ff
	ff		 lea	 eax, DWORD PTR _strFilePath$[ebp]
  00153	68 00 00 00 00	 push	 OFFSET ??_C@_0CL@FGHFBDAH@?$CFs?2MultiChart?$CF04d?$CF02d?$CF02d_?$CF02d?$CF@
  00158	50		 push	 eax
  00159	ff 15 00 00 00
	00		 call	 DWORD PTR __imp_?Format@?$CStringT@DV?$StrTraitMFC_DLL@DV?$ChTraitsCRT@D@ATL@@@@@ATL@@QAAXPBDZZ
  0015f	83 c4 24	 add	 esp, 36			; 00000024H

; 43   : 	CStdioFile File;

  00162	8d 8d c8 fe ff
	ff		 lea	 ecx, DWORD PTR _File$[ebp]
  00168	e8 00 00 00 00	 call	 ??0CStdioFile@@QAE@XZ	; CStdioFile::CStdioFile
; File C:\Program Files (x86)\Microsoft Visual Studio\2019\Community\VC\Tools\MSVC\14.29.30133\atlmfc\include\afx.inl

; 168  : 	{ m_cause = cause; m_lOsError = lOsError; m_strFileName = pstrFileName; }

  0016d	8d 8d f4 fe ff
	ff		 lea	 ecx, DWORD PTR _ex$[ebp]
; File D:\git\src\IBK\IBK_DRFN\ProjSrc\SrcDrfn\Chart\MULTICHART\LogMan.cpp

; 43   : 	CStdioFile File;

  00173	c6 45 fc 02	 mov	 BYTE PTR __$EHRec$[ebp+12], 2
; File C:\Program Files (x86)\Microsoft Visual Studio\2019\Community\VC\Tools\MSVC\14.29.30133\atlmfc\include\afx.inl

; 168  : 	{ m_cause = cause; m_lOsError = lOsError; m_strFileName = pstrFileName; }

  00177	e8 00 00 00 00	 call	 ??0CException@@QAE@XZ	; CException::CException
  0017c	8d 8d 04 ff ff
	ff		 lea	 ecx, DWORD PTR _ex$[ebp+16]
  00182	c7 85 f4 fe ff
	ff 00 00 00 00	 mov	 DWORD PTR _ex$[ebp], OFFSET ??_7CFileException@@6B@
  0018c	ff 15 00 00 00
	00		 call	 DWORD PTR __imp_??0?$CStringT@DV?$StrTraitMFC_DLL@DV?$ChTraitsCRT@D@ATL@@@@@ATL@@QAE@XZ
  00192	6a 00		 push	 0
  00194	8d 8d 04 ff ff
	ff		 lea	 ecx, DWORD PTR _ex$[ebp+16]
  0019a	c6 45 fc 03	 mov	 BYTE PTR __$EHRec$[ebp+12], 3
  0019e	c7 85 fc fe ff
	ff 00 00 00 00	 mov	 DWORD PTR _ex$[ebp+8], 0
  001a8	c7 85 00 ff ff
	ff ff ff ff ff	 mov	 DWORD PTR _ex$[ebp+12], -1
  001b2	ff 15 00 00 00
	00		 call	 DWORD PTR __imp_??4?$CStringT@DV?$StrTraitMFC_DLL@DV?$ChTraitsCRT@D@ATL@@@@@ATL@@QAEAAV01@PBD@Z
; File D:\git\src\IBK\IBK_DRFN\ProjSrc\SrcDrfn\Chart\MULTICHART\LogMan.cpp

; 46   : 	if (!File.Open(strFilePath, CFile::modeWrite | CFile::modeCreate| CFile::typeText, &ex))

  001b8	8d 85 f4 fe ff
	ff		 lea	 eax, DWORD PTR _ex$[ebp]
  001be	c6 45 fc 04	 mov	 BYTE PTR __$EHRec$[ebp+12], 4
  001c2	50		 push	 eax
  001c3	68 01 50 00 00	 push	 20481			; 00005001H
  001c8	ff b5 10 ff ff
	ff		 push	 DWORD PTR _strFilePath$[ebp]
  001ce	8d 8d c8 fe ff
	ff		 lea	 ecx, DWORD PTR _File$[ebp]
  001d4	e8 00 00 00 00	 call	 ?Open@CStdioFile@@UAEHPBDIPAVCFileException@@@Z ; CStdioFile::Open
  001d9	85 c0		 test	 eax, eax
  001db	75 0f		 jne	 SHORT $LN6@SaveLogFil

; 47   : 	{
; 48   : 		ex.ReportError();

  001dd	50		 push	 eax
  001de	50		 push	 eax
  001df	8d 8d f4 fe ff
	ff		 lea	 ecx, DWORD PTR _ex$[ebp]
  001e5	e8 00 00 00 00	 call	 ?ReportError@CException@@UAEHII@Z ; CException::ReportError

; 49   : 		return;

  001ea	eb 7f		 jmp	 SHORT $LN159@SaveLogFil
$LN6@SaveLogFil:

; 50   : 	}
; 51   : 	
; 52   : 	TRY

  001ec	8d 8d e0 fe ff
	ff		 lea	 ecx, DWORD PTR __afxExceptionLink$3[ebp]
  001f2	e8 00 00 00 00	 call	 ??0AFX_EXCEPTION_LINK@@QAE@XZ ; AFX_EXCEPTION_LINK::AFX_EXCEPTION_LINK

; 53   : 	{
; 54   : 		int nSize = m_arLogMsg.GetSize();

  001f7	8b 5f 10	 mov	 ebx, DWORD PTR [edi+16]

; 55   : 		for (int i=0; i<nSize; i++)

  001fa	33 f6		 xor	 esi, esi
  001fc	c6 45 fc 06	 mov	 BYTE PTR __$EHRec$[ebp+12], 6
$LL4@SaveLogFil:
  00200	3b f3		 cmp	 esi, ebx
  00202	7d 35		 jge	 SHORT $LN3@SaveLogFil
; File C:\Program Files (x86)\Microsoft Visual Studio\2019\Community\VC\Tools\MSVC\14.29.30133\atlmfc\include\afxcoll.inl

; 289  : 		if( nIndex < 0 || nIndex >= m_nSize )

  00204	85 f6		 test	 esi, esi
  00206	0f 88 b3 00 00
	00		 js	 $LN131@SaveLogFil
  0020c	3b 77 10	 cmp	 esi, DWORD PTR [edi+16]
  0020f	0f 8d aa 00 00
	00		 jge	 $LN131@SaveLogFil

; 291  : 		return m_pData[nIndex]; }

  00215	8b 47 0c	 mov	 eax, DWORD PTR [edi+12]
; File D:\git\src\IBK\IBK_DRFN\ProjSrc\SrcDrfn\Chart\MULTICHART\LogMan.cpp

; 57   : 			File.WriteString(m_arLogMsg.GetAt(i));

  00218	8d 8d c8 fe ff
	ff		 lea	 ecx, DWORD PTR _File$[ebp]
  0021e	ff 34 b0	 push	 DWORD PTR [eax+esi*4]
  00221	e8 00 00 00 00	 call	 ?WriteString@CStdioFile@@UAEXPBD@Z ; CStdioFile::WriteString

; 58   : 			File.WriteString(_T("\n"));

  00226	68 00 00 00 00	 push	 OFFSET ??_C@_01EEMJAFIK@?6@
  0022b	8d 8d c8 fe ff
	ff		 lea	 ecx, DWORD PTR _File$[ebp]
  00231	e8 00 00 00 00	 call	 ?WriteString@CStdioFile@@UAEXPBD@Z ; CStdioFile::WriteString
  00236	46		 inc	 esi
  00237	eb c7		 jmp	 SHORT $LL4@SaveLogFil
$LN3@SaveLogFil:

; 59   : 		}
; 60   : 
; 61   : 		File.Close();

  00239	8d 8d c8 fe ff
	ff		 lea	 ecx, DWORD PTR _File$[ebp]
  0023f	e8 00 00 00 00	 call	 ?Close@CStdioFile@@UAEXXZ ; CStdioFile::Close
; File C:\Program Files (x86)\Microsoft Visual Studio\2019\Community\VC\Tools\MSVC\14.29.30133\atlmfc\include\afx.h

; 819  : 		{ AfxTryCleanup(); };

  00244	c7 45 fc 09 00
	00 00		 mov	 DWORD PTR __$EHRec$[ebp+12], 9
; File D:\git\src\IBK\IBK_DRFN\ProjSrc\SrcDrfn\Chart\MULTICHART\LogMan.cpp

; 69   : }

  0024b	eb 19		 jmp	 SHORT $LN160@SaveLogFil
__catch$?SaveLogFile@CLogMan@@QAEXV?$CStringT@DV?$StrTraitMFC_DLL@DV?$ChTraitsCRT@D@ATL@@@@@ATL@@@Z$0:

; 62   : 	}
; 63   : 	CATCH (CFileException, e)

  0024d	8b 85 c4 fe ff
	ff		 mov	 eax, DWORD PTR _e$2[ebp]
  00253	89 85 e4 fe ff
	ff		 mov	 DWORD PTR __afxExceptionLink$3[ebp+4], eax

; 64   : 	{
; 65   : 		return ;

  00259	b8 00 00 00 00	 mov	 eax, $LN17@SaveLogFil
  0025e	c3		 ret	 0
$LN17@SaveLogFil:
; File C:\Program Files (x86)\Microsoft Visual Studio\2019\Community\VC\Tools\MSVC\14.29.30133\atlmfc\include\afx.h

; 819  : 		{ AfxTryCleanup(); };

  0025f	c7 45 fc 08 00
	00 00		 mov	 DWORD PTR __$EHRec$[ebp+12], 8
$LN160@SaveLogFil:
; File D:\git\src\IBK\IBK_DRFN\ProjSrc\SrcDrfn\Chart\MULTICHART\LogMan.cpp

; 69   : }

  00266	e8 00 00 00 00	 call	 ?AfxTryCleanup@@YGXXZ	; AfxTryCleanup
$LN159@SaveLogFil:
  0026b	8d 8d 04 ff ff
	ff		 lea	 ecx, DWORD PTR _ex$[ebp+16]
  00271	c7 85 f4 fe ff
	ff 00 00 00 00	 mov	 DWORD PTR _ex$[ebp], OFFSET ??_7CFileException@@6B@
  0027b	ff 15 00 00 00
	00		 call	 DWORD PTR __imp_??1?$CStringT@DV?$StrTraitMFC_DLL@DV?$ChTraitsCRT@D@ATL@@@@@ATL@@QAE@XZ
  00281	8d 8d c8 fe ff
	ff		 lea	 ecx, DWORD PTR _File$[ebp]
  00287	e8 00 00 00 00	 call	 ??1CStdioFile@@UAE@XZ	; CStdioFile::~CStdioFile
  0028c	8d 8d 10 ff ff
	ff		 lea	 ecx, DWORD PTR _strFilePath$[ebp]
  00292	ff 15 00 00 00
	00		 call	 DWORD PTR __imp_??1?$CStringT@DV?$StrTraitMFC_DLL@DV?$ChTraitsCRT@D@ATL@@@@@ATL@@QAE@XZ
$LN158@SaveLogFil:
  00298	8d 4d 08	 lea	 ecx, DWORD PTR _strPath$[ebp]
  0029b	ff 15 00 00 00
	00		 call	 DWORD PTR __imp_??1?$CStringT@DV?$StrTraitMFC_DLL@DV?$ChTraitsCRT@D@ATL@@@@@ATL@@QAE@XZ
  002a1	8b 4d f4	 mov	 ecx, DWORD PTR __$EHRec$[ebp+4]
  002a4	64 89 0d 00 00
	00 00		 mov	 DWORD PTR fs:0, ecx
  002ab	59		 pop	 ecx
  002ac	5f		 pop	 edi
  002ad	5e		 pop	 esi
  002ae	5b		 pop	 ebx
  002af	8b 4d ec	 mov	 ecx, DWORD PTR __$ArrayPad$[ebp]
  002b2	33 cd		 xor	 ecx, ebp
  002b4	e8 00 00 00 00	 call	 @__security_check_cookie@4
  002b9	8b e5		 mov	 esp, ebp
  002bb	5d		 pop	 ebp
  002bc	c2 04 00	 ret	 4
$LN131@SaveLogFil:
; File C:\Program Files (x86)\Microsoft Visual Studio\2019\Community\VC\Tools\MSVC\14.29.30133\atlmfc\include\afxcoll.inl

; 290  : 			AfxThrowInvalidArgException();

  002bf	e8 00 00 00 00	 call	 ?AfxThrowInvalidArgException@@YGXXZ ; AfxThrowInvalidArgException
$LN157@SaveLogFil:
  002c4	cc		 int	 3
_TEXT	ENDS
;	COMDAT text$x
text$x	SEGMENT
__unwindfunclet$?SaveLogFile@CLogMan@@QAEXV?$CStringT@DV?$StrTraitMFC_DLL@DV?$ChTraitsCRT@D@ATL@@@@@ATL@@@Z$2:
  00000	8d 4d 08	 lea	 ecx, DWORD PTR _strPath$[ebp]
  00003	ff 25 00 00 00
	00		 jmp	 DWORD PTR __imp_??1?$CStringT@DV?$StrTraitMFC_DLL@DV?$ChTraitsCRT@D@ATL@@@@@ATL@@QAE@XZ
__unwindfunclet$?SaveLogFile@CLogMan@@QAEXV?$CStringT@DV?$StrTraitMFC_DLL@DV?$ChTraitsCRT@D@ATL@@@@@ATL@@@Z$3:
  00009	8d 8d 10 ff ff
	ff		 lea	 ecx, DWORD PTR _strFilePath$[ebp]
  0000f	ff 25 00 00 00
	00		 jmp	 DWORD PTR __imp_??1?$CStringT@DV?$StrTraitMFC_DLL@DV?$ChTraitsCRT@D@ATL@@@@@ATL@@QAE@XZ
__unwindfunclet$?SaveLogFile@CLogMan@@QAEXV?$CStringT@DV?$StrTraitMFC_DLL@DV?$ChTraitsCRT@D@ATL@@@@@ATL@@@Z$4:
  00015	8d 8d c8 fe ff
	ff		 lea	 ecx, DWORD PTR _File$[ebp]
  0001b	e9 00 00 00 00	 jmp	 ??1CStdioFile@@UAE@XZ	; CStdioFile::~CStdioFile
__unwindfunclet$?SaveLogFile@CLogMan@@QAEXV?$CStringT@DV?$StrTraitMFC_DLL@DV?$ChTraitsCRT@D@ATL@@@@@ATL@@@Z$7:
  00020	8d 8d 04 ff ff
	ff		 lea	 ecx, DWORD PTR _ex$[ebp+16]
  00026	ff 25 00 00 00
	00		 jmp	 DWORD PTR __imp_??1?$CStringT@DV?$StrTraitMFC_DLL@DV?$ChTraitsCRT@D@ATL@@@@@ATL@@QAE@XZ
__unwindfunclet$?SaveLogFile@CLogMan@@QAEXV?$CStringT@DV?$StrTraitMFC_DLL@DV?$ChTraitsCRT@D@ATL@@@@@ATL@@@Z$5:
  0002c	8d 8d f4 fe ff
	ff		 lea	 ecx, DWORD PTR _ex$[ebp]
  00032	e9 00 00 00 00	 jmp	 ??1CFileException@@UAE@XZ ; CFileException::~CFileException
__unwindfunclet$?SaveLogFile@CLogMan@@QAEXV?$CStringT@DV?$StrTraitMFC_DLL@DV?$ChTraitsCRT@D@ATL@@@@@ATL@@@Z$6:
  00037	8d 8d e0 fe ff
	ff		 lea	 ecx, DWORD PTR __afxExceptionLink$3[ebp]
  0003d	e9 00 00 00 00	 jmp	 ??1AFX_EXCEPTION_LINK@@QAE@XZ ; AFX_EXCEPTION_LINK::~AFX_EXCEPTION_LINK
  00042	cc		 int	 3
  00043	cc		 int	 3
  00044	cc		 int	 3
  00045	cc		 int	 3
  00046	cc		 int	 3
__ehhandler$?SaveLogFile@CLogMan@@QAEXV?$CStringT@DV?$StrTraitMFC_DLL@DV?$ChTraitsCRT@D@ATL@@@@@ATL@@@Z:
  00047	90		 npad	 1
  00048	90		 npad	 1
  00049	8b 54 24 08	 mov	 edx, DWORD PTR [esp+8]
  0004d	8d 42 0c	 lea	 eax, DWORD PTR [edx+12]
  00050	8b 8a c0 fe ff
	ff		 mov	 ecx, DWORD PTR [edx-320]
  00056	33 c8		 xor	 ecx, eax
  00058	e8 00 00 00 00	 call	 @__security_check_cookie@4
  0005d	8b 4a f8	 mov	 ecx, DWORD PTR [edx-8]
  00060	33 c8		 xor	 ecx, eax
  00062	e8 00 00 00 00	 call	 @__security_check_cookie@4
  00067	b8 00 00 00 00	 mov	 eax, OFFSET __ehfuncinfo$?SaveLogFile@CLogMan@@QAEXV?$CStringT@DV?$StrTraitMFC_DLL@DV?$ChTraitsCRT@D@ATL@@@@@ATL@@@Z
  0006c	e9 00 00 00 00	 jmp	 ___CxxFrameHandler3
text$x	ENDS
?SaveLogFile@CLogMan@@QAEXV?$CStringT@DV?$StrTraitMFC_DLL@DV?$ChTraitsCRT@D@ATL@@@@@ATL@@@Z ENDP ; CLogMan::SaveLogFile
; Function compile flags: /Ogtp
; File D:\git\src\IBK\IBK_DRFN\ProjSrc\SrcDrfn\Chart\MULTICHART\LogMan.cpp
; File C:\Program Files (x86)\Microsoft Visual Studio\2019\Community\VC\Tools\MSVC\14.29.30133\atlmfc\include\afxcoll.inl
; File D:\git\src\IBK\IBK_DRFN\ProjSrc\SrcDrfn\Chart\MULTICHART\LogMan.cpp
;	COMDAT ?AddLog@CLogMan@@QAEXV?$CStringT@DV?$StrTraitMFC_DLL@DV?$ChTraitsCRT@D@ATL@@@@@ATL@@@Z
_TEXT	SEGMENT
__$EHRec$ = -12						; size = 12
_strMsg$ = 8						; size = 4
?AddLog@CLogMan@@QAEXV?$CStringT@DV?$StrTraitMFC_DLL@DV?$ChTraitsCRT@D@ATL@@@@@ATL@@@Z PROC ; CLogMan::AddLog, COMDAT
; _this$ = ecx

; 29   : {

  00000	55		 push	 ebp
  00001	8b ec		 mov	 ebp, esp
  00003	6a ff		 push	 -1
  00005	68 00 00 00 00	 push	 __ehhandler$?AddLog@CLogMan@@QAEXV?$CStringT@DV?$StrTraitMFC_DLL@DV?$ChTraitsCRT@D@ATL@@@@@ATL@@@Z
  0000a	64 a1 00 00 00
	00		 mov	 eax, DWORD PTR fs:0
  00010	50		 push	 eax
  00011	a1 00 00 00 00	 mov	 eax, DWORD PTR ___security_cookie
  00016	33 c5		 xor	 eax, ebp
  00018	50		 push	 eax
  00019	8d 45 f4	 lea	 eax, DWORD PTR __$EHRec$[ebp]
  0001c	64 a3 00 00 00
	00		 mov	 DWORD PTR fs:0, eax

; 30   : 	if (m_bLogging)

  00022	83 79 04 00	 cmp	 DWORD PTR [ecx+4], 0
  00026	c7 45 fc 00 00
	00 00		 mov	 DWORD PTR __$EHRec$[ebp+8], 0
  0002d	74 0f		 je	 SHORT $LN2@AddLog

; 31   : 		m_arLogMsg.Add(strMsg);

  0002f	83 c1 08	 add	 ecx, 8
; File C:\Program Files (x86)\Microsoft Visual Studio\2019\Community\VC\Tools\MSVC\14.29.30133\atlmfc\include\afxcoll.inl

; 321  : 		SetAtGrow(nIndex, newElement);

  00032	8d 45 08	 lea	 eax, DWORD PTR _strMsg$[ebp]
  00035	50		 push	 eax
  00036	ff 71 08	 push	 DWORD PTR [ecx+8]
  00039	e8 00 00 00 00	 call	 ?SetAtGrow@CStringArray@@QAEXHABV?$CStringT@DV?$StrTraitMFC_DLL@DV?$ChTraitsCRT@D@ATL@@@@@ATL@@@Z ; CStringArray::SetAtGrow
$LN2@AddLog:
; File D:\git\src\IBK\IBK_DRFN\ProjSrc\SrcDrfn\Chart\MULTICHART\LogMan.cpp

; 32   : }

  0003e	8d 4d 08	 lea	 ecx, DWORD PTR _strMsg$[ebp]
  00041	ff 15 00 00 00
	00		 call	 DWORD PTR __imp_??1?$CStringT@DV?$StrTraitMFC_DLL@DV?$ChTraitsCRT@D@ATL@@@@@ATL@@QAE@XZ
  00047	8b 4d f4	 mov	 ecx, DWORD PTR __$EHRec$[ebp]
  0004a	64 89 0d 00 00
	00 00		 mov	 DWORD PTR fs:0, ecx
  00051	59		 pop	 ecx
  00052	8b e5		 mov	 esp, ebp
  00054	5d		 pop	 ebp
  00055	c2 04 00	 ret	 4
_TEXT	ENDS
;	COMDAT text$x
text$x	SEGMENT
__unwindfunclet$?AddLog@CLogMan@@QAEXV?$CStringT@DV?$StrTraitMFC_DLL@DV?$ChTraitsCRT@D@ATL@@@@@ATL@@@Z$0:
  00000	8d 4d 08	 lea	 ecx, DWORD PTR _strMsg$[ebp]
  00003	ff 25 00 00 00
	00		 jmp	 DWORD PTR __imp_??1?$CStringT@DV?$StrTraitMFC_DLL@DV?$ChTraitsCRT@D@ATL@@@@@ATL@@QAE@XZ
  00009	cc		 int	 3
  0000a	cc		 int	 3
  0000b	cc		 int	 3
  0000c	cc		 int	 3
  0000d	cc		 int	 3
__ehhandler$?AddLog@CLogMan@@QAEXV?$CStringT@DV?$StrTraitMFC_DLL@DV?$ChTraitsCRT@D@ATL@@@@@ATL@@@Z:
  0000e	90		 npad	 1
  0000f	90		 npad	 1
  00010	8b 54 24 08	 mov	 edx, DWORD PTR [esp+8]
  00014	8d 42 0c	 lea	 eax, DWORD PTR [edx+12]
  00017	8b 4a fc	 mov	 ecx, DWORD PTR [edx-4]
  0001a	33 c8		 xor	 ecx, eax
  0001c	e8 00 00 00 00	 call	 @__security_check_cookie@4
  00021	b8 00 00 00 00	 mov	 eax, OFFSET __ehfuncinfo$?AddLog@CLogMan@@QAEXV?$CStringT@DV?$StrTraitMFC_DLL@DV?$ChTraitsCRT@D@ATL@@@@@ATL@@@Z
  00026	e9 00 00 00 00	 jmp	 ___CxxFrameHandler3
text$x	ENDS
?AddLog@CLogMan@@QAEXV?$CStringT@DV?$StrTraitMFC_DLL@DV?$ChTraitsCRT@D@ATL@@@@@ATL@@@Z ENDP ; CLogMan::AddLog
; Function compile flags: /Ogtp
; File D:\git\src\IBK\IBK_DRFN\ProjSrc\SrcDrfn\Chart\MULTICHART\LogMan.cpp
;	COMDAT ??1CLogMan@@UAE@XZ
_TEXT	SEGMENT
??1CLogMan@@UAE@XZ PROC					; CLogMan::~CLogMan, COMDAT
; _this$ = ecx

; 25   : {

  00000	c7 01 00 00 00
	00		 mov	 DWORD PTR [ecx], OFFSET ??_7CLogMan@@6B@

; 26   : }

  00006	83 c1 08	 add	 ecx, 8
  00009	e9 00 00 00 00	 jmp	 ??1CStringArray@@UAE@XZ	; CStringArray::~CStringArray
??1CLogMan@@UAE@XZ ENDP					; CLogMan::~CLogMan
_TEXT	ENDS
; Function compile flags: /Ogtp
; File D:\git\src\IBK\IBK_DRFN\ProjSrc\SrcDrfn\Chart\MULTICHART\LogMan.cpp
;	COMDAT ??0CLogMan@@QAE@XZ
_TEXT	SEGMENT
_this$ = -4						; size = 4
??0CLogMan@@QAE@XZ PROC					; CLogMan::CLogMan, COMDAT
; _this$ = ecx

; 20   : {

  00000	55		 push	 ebp
  00001	8b ec		 mov	 ebp, esp
  00003	51		 push	 ecx
  00004	56		 push	 esi
  00005	8b f1		 mov	 esi, ecx
  00007	89 75 fc	 mov	 DWORD PTR _this$[ebp], esi
  0000a	8d 4e 08	 lea	 ecx, DWORD PTR [esi+8]
  0000d	c7 06 00 00 00
	00		 mov	 DWORD PTR [esi], OFFSET ??_7CLogMan@@6B@
  00013	e8 00 00 00 00	 call	 ??0CStringArray@@QAE@XZ	; CStringArray::CStringArray

; 21   : 	m_bLogging = FALSE;

  00018	c7 46 04 00 00
	00 00		 mov	 DWORD PTR [esi+4], 0

; 22   : }

  0001f	8b c6		 mov	 eax, esi
  00021	5e		 pop	 esi
  00022	8b e5		 mov	 esp, ebp
  00024	5d		 pop	 ebp
  00025	c3		 ret	 0
??0CLogMan@@QAE@XZ ENDP					; CLogMan::CLogMan
_TEXT	ENDS
; Function compile flags: /Ogtp
; File C:\Program Files (x86)\Microsoft Visual Studio\2019\Community\VC\Tools\MSVC\14.29.30133\atlmfc\include\afx.inl
;	COMDAT ??_GCFileException@@UAEPAXI@Z
_TEXT	SEGMENT
___flags$ = 8						; size = 4
??_GCFileException@@UAEPAXI@Z PROC			; CFileException::`scalar deleting destructor', COMDAT
; _this$ = ecx
  00000	55		 push	 ebp
  00001	8b ec		 mov	 ebp, esp

; 170  : 	{ }

  00003	56		 push	 esi
  00004	8b f1		 mov	 esi, ecx
  00006	8d 4e 10	 lea	 ecx, DWORD PTR [esi+16]
  00009	c7 06 00 00 00
	00		 mov	 DWORD PTR [esi], OFFSET ??_7CFileException@@6B@
  0000f	ff 15 00 00 00
	00		 call	 DWORD PTR __imp_??1?$CStringT@DV?$StrTraitMFC_DLL@DV?$ChTraitsCRT@D@ATL@@@@@ATL@@QAE@XZ
  00015	8b 45 08	 mov	 eax, DWORD PTR ___flags$[ebp]
  00018	a8 01		 test	 al, 1
  0001a	74 1f		 je	 SHORT $LN12@scalar
  0001c	a8 04		 test	 al, 4
  0001e	75 10		 jne	 SHORT $LN3@scalar

; 112  : 	{ ::operator delete(p); }

  00020	56		 push	 esi
  00021	e8 00 00 00 00	 call	 ??3@YAXPAX@Z		; operator delete
  00026	83 c4 04	 add	 esp, 4
  00029	8b c6		 mov	 eax, esi
  0002b	5e		 pop	 esi
  0002c	5d		 pop	 ebp
  0002d	c2 04 00	 ret	 4
$LN3@scalar:
  00030	6a 14		 push	 20			; 00000014H
  00032	56		 push	 esi
  00033	e8 00 00 00 00	 call	 ?__global_delete@@YAXPAXI@Z ; __global_delete
  00038	83 c4 08	 add	 esp, 8
$LN12@scalar:
  0003b	8b c6		 mov	 eax, esi
  0003d	5e		 pop	 esi
  0003e	5d		 pop	 ebp
  0003f	c2 04 00	 ret	 4
??_GCFileException@@UAEPAXI@Z ENDP			; CFileException::`scalar deleting destructor'
_TEXT	ENDS
; Function compile flags: /Ogtp
; File C:\Program Files (x86)\Microsoft Visual Studio\2019\Community\VC\Tools\MSVC\14.29.30133\atlmfc\include\afx.inl
;	COMDAT ??1CFileException@@UAE@XZ
_TEXT	SEGMENT
??1CFileException@@UAE@XZ PROC				; CFileException::~CFileException, COMDAT
; _this$ = ecx

; 170  : 	{ }

  00000	c7 01 00 00 00
	00		 mov	 DWORD PTR [ecx], OFFSET ??_7CFileException@@6B@
  00006	83 c1 10	 add	 ecx, 16			; 00000010H
  00009	ff 25 00 00 00
	00		 jmp	 DWORD PTR __imp_??1?$CStringT@DV?$StrTraitMFC_DLL@DV?$ChTraitsCRT@D@ATL@@@@@ATL@@QAE@XZ
??1CFileException@@UAE@XZ ENDP				; CFileException::~CFileException
_TEXT	ENDS
; Function compile flags: /Ogtp
; File C:\Program Files (x86)\Microsoft Visual Studio\2019\Community\VC\Tools\MSVC\14.29.30133\atlmfc\include\afx.h
;	COMDAT ??1AFX_EXCEPTION_LINK@@QAE@XZ
_TEXT	SEGMENT
__$EHRec$ = -12						; size = 12
??1AFX_EXCEPTION_LINK@@QAE@XZ PROC			; AFX_EXCEPTION_LINK::~AFX_EXCEPTION_LINK, COMDAT
; _this$ = ecx

; 819  : 		{ AfxTryCleanup(); };

  00000	55		 push	 ebp
  00001	8b ec		 mov	 ebp, esp
  00003	6a ff		 push	 -1
  00005	68 00 00 00 00	 push	 __ehhandler$??1AFX_EXCEPTION_LINK@@QAE@XZ
  0000a	64 a1 00 00 00
	00		 mov	 eax, DWORD PTR fs:0
  00010	50		 push	 eax
  00011	a1 00 00 00 00	 mov	 eax, DWORD PTR ___security_cookie
  00016	33 c5		 xor	 eax, ebp
  00018	50		 push	 eax
  00019	8d 45 f4	 lea	 eax, DWORD PTR __$EHRec$[ebp]
  0001c	64 a3 00 00 00
	00		 mov	 DWORD PTR fs:0, eax
  00022	e8 00 00 00 00	 call	 ?AfxTryCleanup@@YGXXZ	; AfxTryCleanup
  00027	8b 4d f4	 mov	 ecx, DWORD PTR __$EHRec$[ebp]
  0002a	64 89 0d 00 00
	00 00		 mov	 DWORD PTR fs:0, ecx
  00031	59		 pop	 ecx
  00032	8b e5		 mov	 esp, ebp
  00034	5d		 pop	 ebp
  00035	c3		 ret	 0
  00036	cc		 int	 3
  00037	cc		 int	 3
  00038	cc		 int	 3
  00039	cc		 int	 3
  0003a	cc		 int	 3
_TEXT	ENDS
;	COMDAT text$x
text$x	SEGMENT
__ehhandler$??1AFX_EXCEPTION_LINK@@QAE@XZ:
  00000	90		 npad	 1
  00001	90		 npad	 1
  00002	8b 54 24 08	 mov	 edx, DWORD PTR [esp+8]
  00006	8d 42 0c	 lea	 eax, DWORD PTR [edx+12]
  00009	8b 4a fc	 mov	 ecx, DWORD PTR [edx-4]
  0000c	33 c8		 xor	 ecx, eax
  0000e	e8 00 00 00 00	 call	 @__security_check_cookie@4
  00013	b8 00 00 00 00	 mov	 eax, OFFSET __ehfuncinfo$??1AFX_EXCEPTION_LINK@@QAE@XZ
  00018	e9 00 00 00 00	 jmp	 ___CxxFrameHandler3
text$x	ENDS
??1AFX_EXCEPTION_LINK@@QAE@XZ ENDP			; AFX_EXCEPTION_LINK::~AFX_EXCEPTION_LINK
; Function compile flags: /Ogtp
; File C:\Program Files (x86)\Microsoft Visual Studio\2019\Community\VC\Tools\MSVC\14.29.30133\atlmfc\include\afx.inl
;	COMDAT ??1CException@@UAE@XZ
_TEXT	SEGMENT
??1CException@@UAE@XZ PROC				; CException::~CException, COMDAT
; _this$ = ecx

; 134  : 	{ }

  00000	c2 00 00	 ret	 0
??1CException@@UAE@XZ ENDP				; CException::~CException
_TEXT	ENDS
; Function compile flags: /Ogtp
; File C:\Program Files (x86)\Microsoft Visual Studio\2019\Community\VC\Tools\MSVC\14.29.30133\atlmfc\include\afx.inl
;	COMDAT ?Dump@CObject@@UBEXAAVCDumpContext@@@Z
_TEXT	SEGMENT
___formal$ = 8						; size = 4
?Dump@CObject@@UBEXAAVCDumpContext@@@Z PROC		; CObject::Dump, COMDAT
; _this$ = ecx

; 122  : 	{ /* no dumping in release builds */ }

  00000	c2 04 00	 ret	 4
?Dump@CObject@@UBEXAAVCDumpContext@@@Z ENDP		; CObject::Dump
_TEXT	ENDS
; Function compile flags: /Ogtp
; File C:\Program Files (x86)\Microsoft Visual Studio\2019\Community\VC\Tools\MSVC\14.29.30133\atlmfc\include\afx.inl
;	COMDAT ?AssertValid@CObject@@UBEXXZ
_TEXT	SEGMENT
?AssertValid@CObject@@UBEXXZ PROC			; CObject::AssertValid, COMDAT
; _this$ = ecx

; 120  : 	{ /* no asserts in release builds */ }

  00000	c2 00 00	 ret	 0
?AssertValid@CObject@@UBEXXZ ENDP			; CObject::AssertValid
_TEXT	ENDS
; Function compile flags: /Ogtp
; File C:\Program Files (x86)\Microsoft Visual Studio\2019\Community\VC\Tools\MSVC\14.29.30133\atlmfc\include\afx.inl
;	COMDAT ?Serialize@CObject@@UAEXAAVCArchive@@@Z
_TEXT	SEGMENT
___formal$ = 8						; size = 4
?Serialize@CObject@@UAEXAAVCArchive@@@Z PROC		; CObject::Serialize, COMDAT
; _this$ = ecx

; 106  : 	{ /* CObject does not serialize anything by default */ }

  00000	c2 04 00	 ret	 4
?Serialize@CObject@@UAEXAAVCArchive@@@Z ENDP		; CObject::Serialize
_TEXT	ENDS
; Function compile flags: /Ogtp
; File C:\Program Files (x86)\Microsoft Visual Studio\2019\Community\VC\Tools\MSVC\14.29.30133\atlmfc\include\afx.inl
;	COMDAT ??1CObject@@UAE@XZ
_TEXT	SEGMENT
??1CObject@@UAE@XZ PROC					; CObject::~CObject, COMDAT
; _this$ = ecx

; 104  : 	{ }

  00000	c2 00 00	 ret	 0
??1CObject@@UAE@XZ ENDP					; CObject::~CObject
_TEXT	ENDS
; Function compile flags: /Ogtp
; File D:\git\src\IBK\IBK_DRFN\ProjSrc\SrcDrfn\Chart\MULTICHART\LogMan.cpp
;	COMDAT ?__empty_global_delete@@YAXPAXI@Z
_TEXT	SEGMENT
___formal$ = 8						; size = 4
___formal$ = 12						; size = 4
?__empty_global_delete@@YAXPAXI@Z PROC			; __empty_global_delete, COMDAT

  00000	c2 00 00	 ret	 0
?__empty_global_delete@@YAXPAXI@Z ENDP			; __empty_global_delete
_TEXT	ENDS
; Function compile flags: /Ogtp
; File D:\git\src\IBK\IBK_DRFN\ProjSrc\SrcDrfn\Chart\MULTICHART\LogMan.cpp
;	COMDAT ?__empty_global_delete@@YAXPAX@Z
_TEXT	SEGMENT
___formal$ = 8						; size = 4
?__empty_global_delete@@YAXPAX@Z PROC			; __empty_global_delete, COMDAT

  00000	c2 00 00	 ret	 0
?__empty_global_delete@@YAXPAX@Z ENDP			; __empty_global_delete
_TEXT	ENDS
END
