; Listing generated by Microsoft (R) Optimizing Compiler Version 19.29.30145.0 

	TITLE	D:\git\src\IBK\IBK_DRFN\#DRfn-CS\_Obj\MultiChart\MiniTickBarCFG.obj
	.686P
	.XMM
	include listing.inc
	.model	flat

INCLUDELIB MSVCRT
INCLUDELIB OLDNAMES

PUBLIC	??_C@_0BB@IBKHOHJL@RMSG_REPLAY_REAL@		; `string'
PUBLIC	??_C@_0BB@JFLGBADG@RMSG_REPLAY_FAIL@		; `string'
PUBLIC	??_C@_0BI@KDGAIIMD@RMSG_REPLAY_CHANGE_DATE@	; `string'
PUBLIC	??_C@_0BA@NKHHCPON@RMSG_REPLAY_END@		; `string'
PUBLIC	??_C@_0BE@JFCIMCIP@RMSG_REPLAY_INC_SEC@		; `string'
PUBLIC	??_C@_0BG@GIAJEIJF@RMSG_REPLAY_TOTAL_SEC@	; `string'
PUBLIC	??_C@_0BE@FJPKENOB@RMSG_GETSIGNAL_REAL@		; `string'
PUBLIC	??_C@_0BB@CNOFPEHG@RMSG_SETQUERYOPT@		; `string'
PUBLIC	??_C@_0P@KHFCBIOH@RMSG_CHARTMAIN@		; `string'
PUBLIC	??_C@_0BC@MMPGLPDH@RMS_ANALYSIS_FUNC@		; `string'
PUBLIC	??_C@_0BA@HKNFENJL@RMSG_GET_USERID@		; `string'
PUBLIC	??_C@_0BG@CNPAHNGG@RMSG_CHANGE_SKINCOLOR@	; `string'
PUBLIC	??_C@_0BD@FLDNDDHK@RMSG_GET_SKINCOLOR@		; `string'
PUBLIC	??_C@_0BJ@JLKHIBIK@RMSG_CHANGEVERTSCALETYPE@	; `string'
PUBLIC	??_C@_0BG@LNLCJKPF@RMSG_CHANGE_CROSSLINE@	; `string'
PUBLIC	??_C@_0BH@IFDMIMBP@RMSG_ADD_PLATFORM_MENU@	; `string'
PUBLIC	??_C@_0BJ@OGNAJHHI@RMSG_SETINITIALCHARTDATA@	; `string'
PUBLIC	??_C@_0N@IIOKMIEH@RMSG_GETINFO@			; `string'
PUBLIC	??_C@_0N@HABLPHJG@RMSG_SETINFO@			; `string'
PUBLIC	?m_bInitFailed@CAtlBaseModule@ATL@@2_NA		; ATL::CAtlBaseModule::m_bInitFailed
PUBLIC	?_pAtlModule@ATL@@3PAVCAtlModule@1@A		; ATL::_pAtlModule
PUBLIC	?WM_ATLGETHOST@ATL@@3IA				; ATL::WM_ATLGETHOST
PUBLIC	?WM_ATLGETCONTROL@ATL@@3IA			; ATL::WM_ATLGETCONTROL
PUBLIC	?_pAtlAutoThreadModule@ATL@@3PAUIAtlAutoThreadModule@1@A ; ATL::_pAtlAutoThreadModule
EXTRN	?_AtlBaseModule@ATL@@3VCAtlBaseModule@1@A:BYTE	; ATL::_AtlBaseModule
;	COMDAT ?m_bInitFailed@CAtlBaseModule@ATL@@2_NA
_BSS	SEGMENT
?m_bInitFailed@CAtlBaseModule@ATL@@2_NA DB 01H DUP (?)	; ATL::CAtlBaseModule::m_bInitFailed
_BSS	ENDS
;	COMDAT ?_pAtlModule@ATL@@3PAVCAtlModule@1@A
_BSS	SEGMENT
?_pAtlModule@ATL@@3PAVCAtlModule@1@A DD 01H DUP (?)	; ATL::_pAtlModule
_BSS	ENDS
;	COMDAT ?WM_ATLGETHOST@ATL@@3IA
_BSS	SEGMENT
?WM_ATLGETHOST@ATL@@3IA DD 01H DUP (?)			; ATL::WM_ATLGETHOST
_BSS	ENDS
;	COMDAT ?WM_ATLGETCONTROL@ATL@@3IA
_BSS	SEGMENT
?WM_ATLGETCONTROL@ATL@@3IA DD 01H DUP (?)		; ATL::WM_ATLGETCONTROL
_BSS	ENDS
;	COMDAT ?_pAtlAutoThreadModule@ATL@@3PAUIAtlAutoThreadModule@1@A
_BSS	SEGMENT
?_pAtlAutoThreadModule@ATL@@3PAUIAtlAutoThreadModule@1@A DD 01H DUP (?) ; ATL::_pAtlAutoThreadModule
_BSS	ENDS
;	COMDAT ??_C@_0N@HABLPHJG@RMSG_SETINFO@
CONST	SEGMENT
??_C@_0N@HABLPHJG@RMSG_SETINFO@ DB 'RMSG_SETINFO', 00H	; `string'
CONST	ENDS
;	COMDAT ??_C@_0N@IIOKMIEH@RMSG_GETINFO@
CONST	SEGMENT
??_C@_0N@IIOKMIEH@RMSG_GETINFO@ DB 'RMSG_GETINFO', 00H	; `string'
CONST	ENDS
;	COMDAT ??_C@_0BJ@OGNAJHHI@RMSG_SETINITIALCHARTDATA@
CONST	SEGMENT
??_C@_0BJ@OGNAJHHI@RMSG_SETINITIALCHARTDATA@ DB 'RMSG_SETINITIALCHARTDATA'
	DB	00H						; `string'
CONST	ENDS
;	COMDAT ??_C@_0BH@IFDMIMBP@RMSG_ADD_PLATFORM_MENU@
CONST	SEGMENT
??_C@_0BH@IFDMIMBP@RMSG_ADD_PLATFORM_MENU@ DB 'RMSG_ADD_PLATFORM_MENU', 00H ; `string'
CONST	ENDS
;	COMDAT ??_C@_0BG@LNLCJKPF@RMSG_CHANGE_CROSSLINE@
CONST	SEGMENT
??_C@_0BG@LNLCJKPF@RMSG_CHANGE_CROSSLINE@ DB 'RMSG_CHANGE_CROSSLINE', 00H ; `string'
CONST	ENDS
;	COMDAT ??_C@_0BJ@JLKHIBIK@RMSG_CHANGEVERTSCALETYPE@
CONST	SEGMENT
??_C@_0BJ@JLKHIBIK@RMSG_CHANGEVERTSCALETYPE@ DB 'RMSG_CHANGEVERTSCALETYPE'
	DB	00H						; `string'
CONST	ENDS
;	COMDAT ??_C@_0BD@FLDNDDHK@RMSG_GET_SKINCOLOR@
CONST	SEGMENT
??_C@_0BD@FLDNDDHK@RMSG_GET_SKINCOLOR@ DB 'RMSG_GET_SKINCOLOR', 00H ; `string'
CONST	ENDS
;	COMDAT ??_C@_0BG@CNPAHNGG@RMSG_CHANGE_SKINCOLOR@
CONST	SEGMENT
??_C@_0BG@CNPAHNGG@RMSG_CHANGE_SKINCOLOR@ DB 'RMSG_CHANGE_SKINCOLOR', 00H ; `string'
CONST	ENDS
;	COMDAT ??_C@_0BA@HKNFENJL@RMSG_GET_USERID@
CONST	SEGMENT
??_C@_0BA@HKNFENJL@RMSG_GET_USERID@ DB 'RMSG_GET_USERID', 00H ; `string'
CONST	ENDS
;	COMDAT ??_C@_0BC@MMPGLPDH@RMS_ANALYSIS_FUNC@
CONST	SEGMENT
??_C@_0BC@MMPGLPDH@RMS_ANALYSIS_FUNC@ DB 'RMS_ANALYSIS_FUNC', 00H ; `string'
CONST	ENDS
;	COMDAT ??_C@_0P@KHFCBIOH@RMSG_CHARTMAIN@
CONST	SEGMENT
??_C@_0P@KHFCBIOH@RMSG_CHARTMAIN@ DB 'RMSG_CHARTMAIN', 00H ; `string'
CONST	ENDS
;	COMDAT ??_C@_0BB@CNOFPEHG@RMSG_SETQUERYOPT@
CONST	SEGMENT
??_C@_0BB@CNOFPEHG@RMSG_SETQUERYOPT@ DB 'RMSG_SETQUERYOPT', 00H ; `string'
CONST	ENDS
;	COMDAT ??_C@_0BE@FJPKENOB@RMSG_GETSIGNAL_REAL@
CONST	SEGMENT
??_C@_0BE@FJPKENOB@RMSG_GETSIGNAL_REAL@ DB 'RMSG_GETSIGNAL_REAL', 00H ; `string'
CONST	ENDS
;	COMDAT ??_C@_0BG@GIAJEIJF@RMSG_REPLAY_TOTAL_SEC@
CONST	SEGMENT
??_C@_0BG@GIAJEIJF@RMSG_REPLAY_TOTAL_SEC@ DB 'RMSG_REPLAY_TOTAL_SEC', 00H ; `string'
CONST	ENDS
;	COMDAT ??_C@_0BE@JFCIMCIP@RMSG_REPLAY_INC_SEC@
CONST	SEGMENT
??_C@_0BE@JFCIMCIP@RMSG_REPLAY_INC_SEC@ DB 'RMSG_REPLAY_INC_SEC', 00H ; `string'
CONST	ENDS
;	COMDAT ??_C@_0BA@NKHHCPON@RMSG_REPLAY_END@
CONST	SEGMENT
??_C@_0BA@NKHHCPON@RMSG_REPLAY_END@ DB 'RMSG_REPLAY_END', 00H ; `string'
CONST	ENDS
;	COMDAT ??_C@_0BI@KDGAIIMD@RMSG_REPLAY_CHANGE_DATE@
CONST	SEGMENT
??_C@_0BI@KDGAIIMD@RMSG_REPLAY_CHANGE_DATE@ DB 'RMSG_REPLAY_CHANGE_DATE', 00H ; `string'
CONST	ENDS
;	COMDAT ??_C@_0BB@JFLGBADG@RMSG_REPLAY_FAIL@
CONST	SEGMENT
??_C@_0BB@JFLGBADG@RMSG_REPLAY_FAIL@ DB 'RMSG_REPLAY_FAIL', 00H ; `string'
CONST	ENDS
;	COMDAT ??_C@_0BB@IBKHOHJL@RMSG_REPLAY_REAL@
CONST	SEGMENT
??_C@_0BB@IBKHOHJL@RMSG_REPLAY_REAL@ DB 'RMSG_REPLAY_REAL', 00H ; `string'
CONST	ENDS
PUBLIC	?__empty_global_delete@@YAXPAX@Z		; __empty_global_delete
PUBLIC	?__empty_global_delete@@YAXPAXI@Z		; __empty_global_delete
PUBLIC	?Serialize@CObject@@UAEXAAVCArchive@@@Z		; CObject::Serialize
PUBLIC	?AssertValid@CObject@@UBEXXZ			; CObject::AssertValid
PUBLIC	?Dump@CObject@@UBEXAAVCDumpContext@@@Z		; CObject::Dump
PUBLIC	?_AtlRaiseException@ATL@@YAXKK@Z		; ATL::_AtlRaiseException
PUBLIC	?_AtlInitializeCriticalSectionEx@ATL@@YAHPAU_RTL_CRITICAL_SECTION@@KK@Z ; ATL::_AtlInitializeCriticalSectionEx
PUBLIC	?DoDataExchange@CWnd@@MAEXPAVCDataExchange@@@Z	; CWnd::DoDataExchange
PUBLIC	?BeginModalState@CWnd@@UAEXXZ			; CWnd::BeginModalState
PUBLIC	?EndModalState@CWnd@@UAEXXZ			; CWnd::EndModalState
PUBLIC	?Create@CDialog@@UAEHIPAVCWnd@@@Z		; CDialog::Create
PUBLIC	??0CMiniTickBarCFG@@QAE@PAVCSetTickButton@@PAVCWnd@@@Z ; CMiniTickBarCFG::CMiniTickBarCFG
PUBLIC	?SetTickButtonConfig@CMiniTickBarCFG@@QAEXXZ	; CMiniTickBarCFG::SetTickButtonConfig
PUBLIC	?DoDataExchange@CMiniTickBarCFG@@MAEXPAVCDataExchange@@@Z ; CMiniTickBarCFG::DoDataExchange
PUBLIC	?OnInitDialog@CMiniTickBarCFG@@MAEHXZ		; CMiniTickBarCFG::OnInitDialog
PUBLIC	?OnSelchangeCmbMarket@CMiniTickBarCFG@@IAEXI@Z	; CMiniTickBarCFG::OnSelchangeCmbMarket
PUBLIC	?OnSelchangeCmbDate@CMiniTickBarCFG@@IAEXI@Z	; CMiniTickBarCFG::OnSelchangeCmbDate
PUBLIC	?OnEditTick@CMiniTickBarCFG@@IAEXI@Z		; CMiniTickBarCFG::OnEditTick
PUBLIC	?OnSelchangeCmbAllday@CMiniTickBarCFG@@IAEXI@Z	; CMiniTickBarCFG::OnSelchangeCmbAllday
PUBLIC	?OnDeltaposSpinTick@CMiniTickBarCFG@@IAEXIPAUtagNMHDR@@PAJ@Z ; CMiniTickBarCFG::OnDeltaposSpinTick
PUBLIC	?GetThisMessageMap@CMiniTickBarCFG@@KGPBUAFX_MSGMAP@@XZ ; CMiniTickBarCFG::GetThisMessageMap
PUBLIC	?GetMessageMap@CMiniTickBarCFG@@MBEPBUAFX_MSGMAP@@XZ ; CMiniTickBarCFG::GetMessageMap
PUBLIC	??_GCMiniTickBarCFG@@UAEPAXI@Z			; CMiniTickBarCFG::`scalar deleting destructor'
PUBLIC	??1stringdispid@CComTypeInfoHolder@ATL@@QAE@XZ	; ATL::CComTypeInfoHolder::stringdispid::~stringdispid
PUBLIC	??_Estringdispid@CComTypeInfoHolder@ATL@@QAEPAXI@Z ; ATL::CComTypeInfoHolder::stringdispid::`vector deleting destructor'
PUBLIC	?_AtlWinModule@ATL@@3VCAtlWinModule@1@A		; ATL::_AtlWinModule
PUBLIC	??_C@_00CNPNBAHC@@				; `string'
PUBLIC	??_R0?AVCObject@@@8				; CObject `RTTI Type Descriptor'
PUBLIC	??_R3CObject@@8					; CObject::`RTTI Class Hierarchy Descriptor'
PUBLIC	??_R2CObject@@8					; CObject::`RTTI Base Class Array'
PUBLIC	??_R1A@?0A@EA@CObject@@8			; CObject::`RTTI Base Class Descriptor at (0,-1,0,64)'
PUBLIC	??_R1A@?0A@EA@CWnd@@8				; CWnd::`RTTI Base Class Descriptor at (0,-1,0,64)'
PUBLIC	??_R0?AVCWnd@@@8				; CWnd `RTTI Type Descriptor'
PUBLIC	??_R3CWnd@@8					; CWnd::`RTTI Class Hierarchy Descriptor'
PUBLIC	??_R2CWnd@@8					; CWnd::`RTTI Base Class Array'
PUBLIC	??_R1A@?0A@EA@CCmdTarget@@8			; CCmdTarget::`RTTI Base Class Descriptor at (0,-1,0,64)'
PUBLIC	??_R0?AVCCmdTarget@@@8				; CCmdTarget `RTTI Type Descriptor'
PUBLIC	??_R3CCmdTarget@@8				; CCmdTarget::`RTTI Class Hierarchy Descriptor'
PUBLIC	??_R2CCmdTarget@@8				; CCmdTarget::`RTTI Base Class Array'
PUBLIC	??_R1A@?0A@EA@CDialog@@8			; CDialog::`RTTI Base Class Descriptor at (0,-1,0,64)'
PUBLIC	??_R0?AVCDialog@@@8				; CDialog `RTTI Type Descriptor'
PUBLIC	??_R3CDialog@@8					; CDialog::`RTTI Class Hierarchy Descriptor'
PUBLIC	??_R2CDialog@@8					; CDialog::`RTTI Base Class Array'
PUBLIC	??_7CMiniTickBarCFG@@6B@			; CMiniTickBarCFG::`vftable'
PUBLIC	??_R4CMiniTickBarCFG@@6B@			; CMiniTickBarCFG::`RTTI Complete Object Locator'
PUBLIC	??_R0?AVCMiniTickBarCFG@@@8			; CMiniTickBarCFG `RTTI Type Descriptor'
PUBLIC	??_R3CMiniTickBarCFG@@8				; CMiniTickBarCFG::`RTTI Class Hierarchy Descriptor'
PUBLIC	??_R2CMiniTickBarCFG@@8				; CMiniTickBarCFG::`RTTI Base Class Array'
PUBLIC	??_R1A@?0A@EA@CMiniTickBarCFG@@8		; CMiniTickBarCFG::`RTTI Base Class Descriptor at (0,-1,0,64)'
EXTRN	??_L@YGXPAXIIP6EX0@Z1@Z:PROC			; `eh vector constructor iterator'
EXTRN	??_M@YGXPAXIIP6EX0@Z@Z:PROC			; `eh vector destructor iterator'
EXTRN	??3@YAXPAX@Z:PROC				; operator delete
EXTRN	??3@YAXPAXI@Z:PROC				; operator delete
EXTRN	?__global_delete@@YAXPAXI@Z:PROC		; __global_delete
EXTRN	??_V@YAXPAXI@Z:PROC				; operator delete[]
EXTRN	_atexit:PROC
EXTRN	___std_terminate:PROC
EXTRN	__imp__RaiseException@16:PROC
EXTRN	__imp__GetLastError@0:PROC
EXTRN	__imp__InitializeCriticalSectionEx@12:PROC
EXTRN	__imp__DeleteCriticalSection@4:PROC
EXTRN	__imp__RegisterWindowMessageA@4:PROC
EXTRN	__imp__UnregisterClassA@8:PROC
EXTRN	__imp__EnableWindow@8:PROC
EXTRN	__imp__free:PROC
EXTRN	__imp__SysFreeString@4:PROC
EXTRN	__imp_??0?$CStringT@DV?$StrTraitMFC_DLL@DV?$ChTraitsCRT@D@ATL@@@@@ATL@@QAE@XZ:PROC
EXTRN	__imp_??1?$CStringT@DV?$StrTraitMFC_DLL@DV?$ChTraitsCRT@D@ATL@@@@@ATL@@QAE@XZ:PROC
EXTRN	__imp_??4?$CStringT@DV?$StrTraitMFC_DLL@DV?$ChTraitsCRT@D@ATL@@@@@ATL@@QAEAAV01@ABV01@@Z:PROC
EXTRN	__imp_??4?$CStringT@DV?$StrTraitMFC_DLL@DV?$ChTraitsCRT@D@ATL@@@@@ATL@@QAEAAV01@PBD@Z:PROC
EXTRN	?DDX_Text@@YGXPAVCDataExchange@@HAAI@Z:PROC	; DDX_Text
EXTRN	?DDX_Text@@YGXPAVCDataExchange@@HAAV?$CStringT@DV?$StrTraitMFC_DLL@DV?$ChTraitsCRT@D@ATL@@@@@ATL@@@Z:PROC ; DDX_Text
EXTRN	?DDX_CBIndex@@YGXPAVCDataExchange@@HAAH@Z:PROC	; DDX_CBIndex
EXTRN	?IsInvokeAllowed@CCmdTarget@@UAEHJ@Z:PROC	; CCmdTarget::IsInvokeAllowed
EXTRN	?GetDispatchIID@CCmdTarget@@UAEHPAU_GUID@@@Z:PROC ; CCmdTarget::GetDispatchIID
EXTRN	?GetTypeInfoCount@CCmdTarget@@UAEIXZ:PROC	; CCmdTarget::GetTypeInfoCount
EXTRN	?GetTypeLibCache@CCmdTarget@@UAEPAVCTypeLibCache@@XZ:PROC ; CCmdTarget::GetTypeLibCache
EXTRN	?GetTypeLib@CCmdTarget@@UAEJKPAPAUITypeLib@@@Z:PROC ; CCmdTarget::GetTypeLib
EXTRN	?GetCommandMap@CCmdTarget@@MBEPBUAFX_OLECMDMAP@@XZ:PROC ; CCmdTarget::GetCommandMap
EXTRN	?GetDispatchMap@CCmdTarget@@MBEPBUAFX_DISPMAP@@XZ:PROC ; CCmdTarget::GetDispatchMap
EXTRN	?GetConnectionMap@CCmdTarget@@MBEPBUAFX_CONNECTIONMAP@@XZ:PROC ; CCmdTarget::GetConnectionMap
EXTRN	?GetEventSinkMap@CCmdTarget@@MBEPBUAFX_EVENTSINKMAP@@XZ:PROC ; CCmdTarget::GetEventSinkMap
EXTRN	?OnCreateAggregates@CCmdTarget@@UAEHXZ:PROC	; CCmdTarget::OnCreateAggregates
EXTRN	?GetInterfaceHook@CCmdTarget@@UAEPAUIUnknown@@PBX@Z:PROC ; CCmdTarget::GetInterfaceHook
EXTRN	?GetExtraConnectionPoints@CCmdTarget@@MAEHPAVCPtrArray@@@Z:PROC ; CCmdTarget::GetExtraConnectionPoints
EXTRN	?GetConnectionHook@CCmdTarget@@MAEPAUIConnectionPoint@@ABU_GUID@@@Z:PROC ; CCmdTarget::GetConnectionHook
EXTRN	?PreSubclassWindow@CWnd@@UAEXXZ:PROC		; CWnd::PreSubclassWindow
EXTRN	?Create@CWnd@@UAEHPBD0KABUtagRECT@@PAV1@IPAUCCreateContext@@@Z:PROC ; CWnd::Create
EXTRN	?CreateEx@CWnd@@UAEHKPBD0KHHHHPAUHWND__@@PAUHMENU__@@PAX@Z:PROC ; CWnd::CreateEx
EXTRN	?CreateEx@CWnd@@UAEHKPBD0KABUtagRECT@@PAV1@IPAX@Z:PROC ; CWnd::CreateEx
EXTRN	?DestroyWindow@CWnd@@UAEHXZ:PROC		; CWnd::DestroyWindow
EXTRN	?PreCreateWindow@CWnd@@UAEHAAUtagCREATESTRUCTA@@@Z:PROC ; CWnd::PreCreateWindow
EXTRN	?CalcWindowRect@CWnd@@UAEXPAUtagRECT@@I@Z:PROC	; CWnd::CalcWindowRect
EXTRN	?GetDlgItem@CWnd@@QBEPAV1@H@Z:PROC		; CWnd::GetDlgItem
EXTRN	?GetMenu@CWnd@@UBEPAVCMenu@@XZ:PROC		; CWnd::GetMenu
EXTRN	?SetMenu@CWnd@@UAEHPAVCMenu@@@Z:PROC		; CWnd::SetMenu
EXTRN	?ShowWindow@CWnd@@QAEHH@Z:PROC			; CWnd::ShowWindow
EXTRN	?OnToolHitTest@CWnd@@UBEHVCPoint@@PAUtagTOOLINFOA@@@Z:PROC ; CWnd::OnToolHitTest
EXTRN	?GetScrollBarCtrl@CWnd@@UBEPAVCScrollBar@@H@Z:PROC ; CWnd::GetScrollBarCtrl
EXTRN	?UpdateData@CWnd@@QAEHH@Z:PROC			; CWnd::UpdateData
EXTRN	?WinHelpA@CWnd@@UAEXKI@Z:PROC			; CWnd::WinHelpA
EXTRN	?HtmlHelpA@CWnd@@UAEXKI@Z:PROC			; CWnd::HtmlHelpA
EXTRN	?WinHelpInternal@CWnd@@UAEXKI@Z:PROC		; CWnd::WinHelpInternal
EXTRN	?ContinueModal@CWnd@@UAEHXZ:PROC		; CWnd::ContinueModal
EXTRN	?EndModalLoop@CWnd@@UAEXH@Z:PROC		; CWnd::EndModalLoop
EXTRN	?OnDrawIconicThumbnailOrLivePreview@CWnd@@UAEXAAVCDC@@VCRect@@VCSize@@HAAH@Z:PROC ; CWnd::OnDrawIconicThumbnailOrLivePreview
EXTRN	?GetInterfaceMap@CWnd@@MBEPBUAFX_INTERFACEMAP@@XZ:PROC ; CWnd::GetInterfaceMap
EXTRN	?EnsureStdObj@CWnd@@UAEJXZ:PROC			; CWnd::EnsureStdObj
EXTRN	?get_accParent@CWnd@@UAEJPAPAUIDispatch@@@Z:PROC ; CWnd::get_accParent
EXTRN	?get_accChildCount@CWnd@@UAEJPAJ@Z:PROC		; CWnd::get_accChildCount
EXTRN	?get_accChild@CWnd@@UAEJUtagVARIANT@@PAPAUIDispatch@@@Z:PROC ; CWnd::get_accChild
EXTRN	?get_accName@CWnd@@UAEJUtagVARIANT@@PAPA_W@Z:PROC ; CWnd::get_accName
EXTRN	?get_accValue@CWnd@@UAEJUtagVARIANT@@PAPA_W@Z:PROC ; CWnd::get_accValue
EXTRN	?get_accDescription@CWnd@@UAEJUtagVARIANT@@PAPA_W@Z:PROC ; CWnd::get_accDescription
EXTRN	?get_accRole@CWnd@@UAEJUtagVARIANT@@PAU2@@Z:PROC ; CWnd::get_accRole
EXTRN	?get_accState@CWnd@@UAEJUtagVARIANT@@PAU2@@Z:PROC ; CWnd::get_accState
EXTRN	?get_accHelp@CWnd@@UAEJUtagVARIANT@@PAPA_W@Z:PROC ; CWnd::get_accHelp
EXTRN	?get_accHelpTopic@CWnd@@UAEJPAPA_WUtagVARIANT@@PAJ@Z:PROC ; CWnd::get_accHelpTopic
EXTRN	?get_accKeyboardShortcut@CWnd@@UAEJUtagVARIANT@@PAPA_W@Z:PROC ; CWnd::get_accKeyboardShortcut
EXTRN	?get_accFocus@CWnd@@UAEJPAUtagVARIANT@@@Z:PROC	; CWnd::get_accFocus
EXTRN	?get_accSelection@CWnd@@UAEJPAUtagVARIANT@@@Z:PROC ; CWnd::get_accSelection
EXTRN	?get_accDefaultAction@CWnd@@UAEJUtagVARIANT@@PAPA_W@Z:PROC ; CWnd::get_accDefaultAction
EXTRN	?accSelect@CWnd@@UAEJJUtagVARIANT@@@Z:PROC	; CWnd::accSelect
EXTRN	?accLocation@CWnd@@UAEJPAJ000UtagVARIANT@@@Z:PROC ; CWnd::accLocation
EXTRN	?accNavigate@CWnd@@UAEJJUtagVARIANT@@PAU2@@Z:PROC ; CWnd::accNavigate
EXTRN	?accHitTest@CWnd@@UAEJJJPAUtagVARIANT@@@Z:PROC	; CWnd::accHitTest
EXTRN	?accDoDefaultAction@CWnd@@UAEJUtagVARIANT@@@Z:PROC ; CWnd::accDoDefaultAction
EXTRN	?put_accName@CWnd@@UAEJUtagVARIANT@@PA_W@Z:PROC	; CWnd::put_accName
EXTRN	?put_accValue@CWnd@@UAEJUtagVARIANT@@PA_W@Z:PROC ; CWnd::put_accValue
EXTRN	?SetProxy@CWnd@@UAEJPAUIAccessibleProxy@@@Z:PROC ; CWnd::SetProxy
EXTRN	?CreateAccessibleProxy@CWnd@@UAEJIJPAJ@Z:PROC	; CWnd::CreateAccessibleProxy
EXTRN	?OnCommand@CWnd@@MAEHIJ@Z:PROC			; CWnd::OnCommand
EXTRN	?OnNotify@CWnd@@MAEHIJPAJ@Z:PROC		; CWnd::OnNotify
EXTRN	?GetSuperWndProcAddr@CWnd@@MAEPAP6GJPAUHWND__@@IIJ@ZXZ:PROC ; CWnd::GetSuperWndProcAddr
EXTRN	?OnAmbientProperty@CWnd@@UAEHPAVCOleControlSite@@JPAUtagVARIANT@@@Z:PROC ; CWnd::OnAmbientProperty
EXTRN	?WindowProc@CWnd@@MAEJIIJ@Z:PROC		; CWnd::WindowProc
EXTRN	?OnWndMsg@CWnd@@MAEHIIJPAJ@Z:PROC		; CWnd::OnWndMsg
EXTRN	?DefWindowProcA@CWnd@@MAEJIIJ@Z:PROC		; CWnd::DefWindowProcA
EXTRN	?PostNcDestroy@CWnd@@MAEXXZ:PROC		; CWnd::PostNcDestroy
EXTRN	?OnChildNotify@CWnd@@MAEHIIJPAJ@Z:PROC		; CWnd::OnChildNotify
EXTRN	?OnTouchInputs@CWnd@@MAEHIPAUtagTOUCHINPUT@@@Z:PROC ; CWnd::OnTouchInputs
EXTRN	?OnTouchInput@CWnd@@MAEHVCPoint@@HHPAUtagTOUCHINPUT@@@Z:PROC ; CWnd::OnTouchInput
EXTRN	?GetGestureStatus@CWnd@@MAEKVCPoint@@@Z:PROC	; CWnd::GetGestureStatus
EXTRN	?OnGestureZoom@CWnd@@MAEHVCPoint@@J@Z:PROC	; CWnd::OnGestureZoom
EXTRN	?OnGesturePan@CWnd@@MAEHVCPoint@@0@Z:PROC	; CWnd::OnGesturePan
EXTRN	?OnGestureRotate@CWnd@@MAEHVCPoint@@N@Z:PROC	; CWnd::OnGestureRotate
EXTRN	?OnGestureTwoFingerTap@CWnd@@MAEHVCPoint@@@Z:PROC ; CWnd::OnGestureTwoFingerTap
EXTRN	?OnGesturePressAndTap@CWnd@@MAEHVCPoint@@J@Z:PROC ; CWnd::OnGesturePressAndTap
EXTRN	?ResizeDynamicLayout@CWnd@@MAEXXZ:PROC		; CWnd::ResizeDynamicLayout
EXTRN	?IsFrameWnd@CWnd@@UBEHXZ:PROC			; CWnd::IsFrameWnd
EXTRN	?OnFinalRelease@CWnd@@UAEXXZ:PROC		; CWnd::OnFinalRelease
EXTRN	?CreateControlContainer@CWnd@@MAEHPAPAVCOleControlContainer@@@Z:PROC ; CWnd::CreateControlContainer
EXTRN	?CreateControlSite@CWnd@@MAEHPAVCOleControlContainer@@PAPAVCOleControlSite@@IABU_GUID@@@Z:PROC ; CWnd::CreateControlSite
EXTRN	?GetRuntimeClass@CDialog@@UBEPAUCRuntimeClass@@XZ:PROC ; CDialog::GetRuntimeClass
EXTRN	?Create@CDialog@@UAEHPBDPAVCWnd@@@Z:PROC	; CDialog::Create
EXTRN	?CreateIndirect@CDialog@@UAEHPBUDLGTEMPLATE@@PAVCWnd@@PAX@Z:PROC ; CDialog::CreateIndirect
EXTRN	?CreateIndirect@CDialog@@UAEHPAXPAVCWnd@@@Z:PROC ; CDialog::CreateIndirect
EXTRN	??0CDialog@@QAE@IPAVCWnd@@@Z:PROC		; CDialog::CDialog
EXTRN	?DoModal@CDialog@@UAEHXZ:PROC			; CDialog::DoModal
EXTRN	?OnInitDialog@CDialog@@UAEHXZ:PROC		; CDialog::OnInitDialog
EXTRN	?OnSetFont@CDialog@@UAEXPAVCFont@@@Z:PROC	; CDialog::OnSetFont
EXTRN	?OnOK@CDialog@@MAEXXZ:PROC			; CDialog::OnOK
EXTRN	?OnCancel@CDialog@@MAEXXZ:PROC			; CDialog::OnCancel
EXTRN	??1CDialog@@UAE@XZ:PROC				; CDialog::~CDialog
EXTRN	?PreTranslateMessage@CDialog@@UAEHPAUtagMSG@@@Z:PROC ; CDialog::PreTranslateMessage
EXTRN	?OnCmdMsg@CDialog@@UAEHIHPAXPAUAFX_CMDHANDLERINFO@@@Z:PROC ; CDialog::OnCmdMsg
EXTRN	?CheckAutoCenter@CDialog@@UAEHXZ:PROC		; CDialog::CheckAutoCenter
EXTRN	?SetOccDialogInfo@CDialog@@MAEHPAU_AFX_OCC_DIALOG_INFO@@@Z:PROC ; CDialog::SetOccDialogInfo
EXTRN	?GetOccDialogInfo@CDialog@@MAEPAU_AFX_OCC_DIALOG_INFO@@XZ:PROC ; CDialog::GetOccDialogInfo
EXTRN	?PreInitDialog@CDialog@@MAEXXZ:PROC		; CDialog::PreInitDialog
EXTRN	?GetThisMessageMap@CDialog@@KGPBUAFX_MSGMAP@@XZ:PROC ; CDialog::GetThisMessageMap
EXTRN	??_ECMiniTickBarCFG@@UAEPAXI@Z:PROC		; CMiniTickBarCFG::`vector deleting destructor'
EXTRN	?GetTitle@CSetTickButton@@QAE?AV?$CStringT@DV?$StrTraitMFC_DLL@DV?$ChTraitsCRT@D@ATL@@@@@ATL@@H@Z:PROC ; CSetTickButton::GetTitle
EXTRN	?GetMarket@CSetTickButton@@QAEHH@Z:PROC		; CSetTickButton::GetMarket
EXTRN	?GetDateIndex@CSetTickButton@@QAEHH@Z:PROC	; CSetTickButton::GetDateIndex
EXTRN	?GetTick@CSetTickButton@@QAEHH@Z:PROC		; CSetTickButton::GetTick
EXTRN	?GetAllDay@CSetTickButton@@QAEHH@Z:PROC		; CSetTickButton::GetAllDay
EXTRN	?SetMarket@CSetTickButton@@QAEXHH@Z:PROC	; CSetTickButton::SetMarket
EXTRN	?SetDateIndex@CSetTickButton@@QAEXHH@Z:PROC	; CSetTickButton::SetDateIndex
EXTRN	?SetTick@CSetTickButton@@QAEXHH@Z:PROC		; CSetTickButton::SetTick
EXTRN	?SetAllDay@CSetTickButton@@QAEXHH@Z:PROC	; CSetTickButton::SetAllDay
EXTRN	?MakeTickButtonTitle@CSetTickButton@@QAE?AV?$CStringT@DV?$StrTraitMFC_DLL@DV?$ChTraitsCRT@D@ATL@@@@@ATL@@H@Z:PROC ; CSetTickButton::MakeTickButtonTitle
EXTRN	@__security_check_cookie@4:PROC
EXTRN	___CxxFrameHandler3:PROC
EXTRN	??_7type_info@@6B@:QWORD			; type_info::`vftable'
EXTRN	___security_cookie:DWORD
_BSS	SEGMENT
?RMSG_REPLAY_REAL@@3IB DD 01H DUP (?)			; RMSG_REPLAY_REAL
?RMSG_REPLAY_FAIL@@3IB DD 01H DUP (?)			; RMSG_REPLAY_FAIL
?RMSG_REPLAY_CHANGE_DATE@@3IB DD 01H DUP (?)		; RMSG_REPLAY_CHANGE_DATE
?RMSG_REPLAY_END@@3IB DD 01H DUP (?)			; RMSG_REPLAY_END
?RMSG_REPLAY_INC_SEC@@3IB DD 01H DUP (?)		; RMSG_REPLAY_INC_SEC
?RMSG_REPLAY_TOTAL_SEC@@3IB DD 01H DUP (?)		; RMSG_REPLAY_TOTAL_SEC
?RMSG_GETSIGNAL_REAL@@3IB DD 01H DUP (?)		; RMSG_GETSIGNAL_REAL
?RMSG_SETQUERYOPT@@3IB DD 01H DUP (?)			; RMSG_SETQUERYOPT
?RMSG_CHARTMAIN@@3IB DD 01H DUP (?)			; RMSG_CHARTMAIN
?RMS_ANALYSIS_FUNC@@3IB DD 01H DUP (?)			; RMS_ANALYSIS_FUNC
?RMSG_GET_USERID@@3IB DD 01H DUP (?)			; RMSG_GET_USERID
?RMSG_CHANGE_SKINCOLOR@@3IB DD 01H DUP (?)		; RMSG_CHANGE_SKINCOLOR
?RMSG_GET_SKINCOLOR@@3IB DD 01H DUP (?)			; RMSG_GET_SKINCOLOR
?RMSG_CHANGEVERTSCALETYPE@@3IB DD 01H DUP (?)		; RMSG_CHANGEVERTSCALETYPE
?RMSG_CHANGE_CROSSLINE@@3IB DD 01H DUP (?)		; RMSG_CHANGE_CROSSLINE
?RMSG_ADD_PLATFORM_MENU@@3IB DD 01H DUP (?)		; RMSG_ADD_PLATFORM_MENU
?RMSG_SETINITIALCHARTDATA@@3IB DD 01H DUP (?)		; RMSG_SETINITIALCHARTDATA
?RMSG_GETINFO@@3IB DD 01H DUP (?)			; RMSG_GETINFO
?RMSG_SETINFO@@3IB DD 01H DUP (?)			; RMSG_SETINFO
_BSS	ENDS
;	COMDAT CRT$XCU
CRT$XCU	SEGMENT
?_AtlWinModule$initializer$@ATL@@3P6AXXZA DD FLAT:??__E_AtlWinModule@ATL@@YAXXZ ; ATL::_AtlWinModule$initializer$
CRT$XCU	ENDS
;	COMDAT ??_R1A@?0A@EA@CMiniTickBarCFG@@8
rdata$r	SEGMENT
??_R1A@?0A@EA@CMiniTickBarCFG@@8 DD FLAT:??_R0?AVCMiniTickBarCFG@@@8 ; CMiniTickBarCFG::`RTTI Base Class Descriptor at (0,-1,0,64)'
	DD	04H
	DD	00H
	DD	0ffffffffH
	DD	00H
	DD	040H
	DD	FLAT:??_R3CMiniTickBarCFG@@8
rdata$r	ENDS
;	COMDAT ??_R2CMiniTickBarCFG@@8
rdata$r	SEGMENT
??_R2CMiniTickBarCFG@@8 DD FLAT:??_R1A@?0A@EA@CMiniTickBarCFG@@8 ; CMiniTickBarCFG::`RTTI Base Class Array'
	DD	FLAT:??_R1A@?0A@EA@CDialog@@8
	DD	FLAT:??_R1A@?0A@EA@CWnd@@8
	DD	FLAT:??_R1A@?0A@EA@CCmdTarget@@8
	DD	FLAT:??_R1A@?0A@EA@CObject@@8
rdata$r	ENDS
;	COMDAT ??_R3CMiniTickBarCFG@@8
rdata$r	SEGMENT
??_R3CMiniTickBarCFG@@8 DD 00H				; CMiniTickBarCFG::`RTTI Class Hierarchy Descriptor'
	DD	00H
	DD	05H
	DD	FLAT:??_R2CMiniTickBarCFG@@8
rdata$r	ENDS
;	COMDAT ??_R0?AVCMiniTickBarCFG@@@8
data$rs	SEGMENT
??_R0?AVCMiniTickBarCFG@@@8 DD FLAT:??_7type_info@@6B@	; CMiniTickBarCFG `RTTI Type Descriptor'
	DD	00H
	DB	'.?AVCMiniTickBarCFG@@', 00H
data$rs	ENDS
;	COMDAT ??_R4CMiniTickBarCFG@@6B@
rdata$r	SEGMENT
??_R4CMiniTickBarCFG@@6B@ DD 00H			; CMiniTickBarCFG::`RTTI Complete Object Locator'
	DD	00H
	DD	00H
	DD	FLAT:??_R0?AVCMiniTickBarCFG@@@8
	DD	FLAT:??_R3CMiniTickBarCFG@@8
rdata$r	ENDS
;	COMDAT ?messageMap@?1??GetThisMessageMap@CMiniTickBarCFG@@KGPBUAFX_MSGMAP@@XZ@4U3@B
CONST	SEGMENT
?messageMap@?1??GetThisMessageMap@CMiniTickBarCFG@@KGPBUAFX_MSGMAP@@XZ@4U3@B DD FLAT:?GetThisMessageMap@CDialog@@KGPBUAFX_MSGMAP@@XZ ; `CMiniTickBarCFG::GetThisMessageMap'::`2'::messageMap
	DD	FLAT:?_messageEntries@?1??GetThisMessageMap@CMiniTickBarCFG@@KGPBUAFX_MSGMAP@@XZ@4QBUAFX_MSGMAP_ENTRY@@B
CONST	ENDS
;	COMDAT ?_messageEntries@?1??GetThisMessageMap@CMiniTickBarCFG@@KGPBUAFX_MSGMAP@@XZ@4QBUAFX_MSGMAP_ENTRY@@B
CONST	SEGMENT
?_messageEntries@?1??GetThisMessageMap@CMiniTickBarCFG@@KGPBUAFX_MSGMAP@@XZ@4QBUAFX_MSGMAP_ENTRY@@B DD 0111H ; `CMiniTickBarCFG::GetThisMessageMap'::`2'::_messageEntries
	DD	01H
	DD	01876H
	DD	0187eH
	DD	03cH
	DD	FLAT:?OnSelchangeCmbMarket@CMiniTickBarCFG@@IAEXI@Z
	DD	0111H
	DD	01H
	DD	0187fH
	DD	01887H
	DD	03cH
	DD	FLAT:?OnSelchangeCmbDate@CMiniTickBarCFG@@IAEXI@Z
	DD	0111H
	DD	0200H
	DD	01888H
	DD	01890H
	DD	03cH
	DD	FLAT:?OnEditTick@CMiniTickBarCFG@@IAEXI@Z
	DD	0111H
	DD	01H
	DD	01891H
	DD	01899H
	DD	03cH
	DD	FLAT:?OnSelchangeCmbAllday@CMiniTickBarCFG@@IAEXI@Z
	DD	04eH
	DD	0fd2eH
	DD	018baH
	DD	018c2H
	DD	040H
	DD	FLAT:?OnDeltaposSpinTick@CMiniTickBarCFG@@IAEXIPAUtagNMHDR@@PAJ@Z
	DD	00H
	DD	00H
	DD	00H
	DD	00H
	DD	00H
	DD	00H
CONST	ENDS
;	COMDAT ??_7CMiniTickBarCFG@@6B@
CONST	SEGMENT
??_7CMiniTickBarCFG@@6B@ DD FLAT:??_R4CMiniTickBarCFG@@6B@ ; CMiniTickBarCFG::`vftable'
	DD	FLAT:?GetRuntimeClass@CDialog@@UBEPAUCRuntimeClass@@XZ
	DD	FLAT:??_ECMiniTickBarCFG@@UAEPAXI@Z
	DD	FLAT:?Serialize@CObject@@UAEXAAVCArchive@@@Z
	DD	FLAT:?AssertValid@CObject@@UBEXXZ
	DD	FLAT:?Dump@CObject@@UBEXAAVCDumpContext@@@Z
	DD	FLAT:?OnCmdMsg@CDialog@@UAEHIHPAXPAUAFX_CMDHANDLERINFO@@@Z
	DD	FLAT:?OnFinalRelease@CWnd@@UAEXXZ
	DD	FLAT:?IsInvokeAllowed@CCmdTarget@@UAEHJ@Z
	DD	FLAT:?GetDispatchIID@CCmdTarget@@UAEHPAU_GUID@@@Z
	DD	FLAT:?GetTypeInfoCount@CCmdTarget@@UAEIXZ
	DD	FLAT:?GetTypeLibCache@CCmdTarget@@UAEPAVCTypeLibCache@@XZ
	DD	FLAT:?GetTypeLib@CCmdTarget@@UAEJKPAPAUITypeLib@@@Z
	DD	FLAT:?GetMessageMap@CMiniTickBarCFG@@MBEPBUAFX_MSGMAP@@XZ
	DD	FLAT:?GetCommandMap@CCmdTarget@@MBEPBUAFX_OLECMDMAP@@XZ
	DD	FLAT:?GetDispatchMap@CCmdTarget@@MBEPBUAFX_DISPMAP@@XZ
	DD	FLAT:?GetConnectionMap@CCmdTarget@@MBEPBUAFX_CONNECTIONMAP@@XZ
	DD	FLAT:?GetInterfaceMap@CWnd@@MBEPBUAFX_INTERFACEMAP@@XZ
	DD	FLAT:?GetEventSinkMap@CCmdTarget@@MBEPBUAFX_EVENTSINKMAP@@XZ
	DD	FLAT:?OnCreateAggregates@CCmdTarget@@UAEHXZ
	DD	FLAT:?GetInterfaceHook@CCmdTarget@@UAEPAUIUnknown@@PBX@Z
	DD	FLAT:?GetExtraConnectionPoints@CCmdTarget@@MAEHPAVCPtrArray@@@Z
	DD	FLAT:?GetConnectionHook@CCmdTarget@@MAEPAUIConnectionPoint@@ABU_GUID@@@Z
	DD	FLAT:?PreSubclassWindow@CWnd@@UAEXXZ
	DD	FLAT:?Create@CWnd@@UAEHPBD0KABUtagRECT@@PAV1@IPAUCCreateContext@@@Z
	DD	FLAT:?CreateEx@CWnd@@UAEHKPBD0KABUtagRECT@@PAV1@IPAX@Z
	DD	FLAT:?CreateEx@CWnd@@UAEHKPBD0KHHHHPAUHWND__@@PAUHMENU__@@PAX@Z
	DD	FLAT:?DestroyWindow@CWnd@@UAEHXZ
	DD	FLAT:?PreCreateWindow@CWnd@@UAEHAAUtagCREATESTRUCTA@@@Z
	DD	FLAT:?CalcWindowRect@CWnd@@UAEXPAUtagRECT@@I@Z
	DD	FLAT:?GetMenu@CWnd@@UBEPAVCMenu@@XZ
	DD	FLAT:?SetMenu@CWnd@@UAEHPAVCMenu@@@Z
	DD	FLAT:?OnToolHitTest@CWnd@@UBEHVCPoint@@PAUtagTOOLINFOA@@@Z
	DD	FLAT:?GetScrollBarCtrl@CWnd@@UBEPAVCScrollBar@@H@Z
	DD	FLAT:?WinHelpA@CWnd@@UAEXKI@Z
	DD	FLAT:?HtmlHelpA@CWnd@@UAEXKI@Z
	DD	FLAT:?WinHelpInternal@CWnd@@UAEXKI@Z
	DD	FLAT:?ContinueModal@CWnd@@UAEHXZ
	DD	FLAT:?EndModalLoop@CWnd@@UAEXH@Z
	DD	FLAT:?OnDrawIconicThumbnailOrLivePreview@CWnd@@UAEXAAVCDC@@VCRect@@VCSize@@HAAH@Z
	DD	FLAT:?EnsureStdObj@CWnd@@UAEJXZ
	DD	FLAT:?get_accParent@CWnd@@UAEJPAPAUIDispatch@@@Z
	DD	FLAT:?get_accChildCount@CWnd@@UAEJPAJ@Z
	DD	FLAT:?get_accChild@CWnd@@UAEJUtagVARIANT@@PAPAUIDispatch@@@Z
	DD	FLAT:?get_accName@CWnd@@UAEJUtagVARIANT@@PAPA_W@Z
	DD	FLAT:?get_accValue@CWnd@@UAEJUtagVARIANT@@PAPA_W@Z
	DD	FLAT:?get_accDescription@CWnd@@UAEJUtagVARIANT@@PAPA_W@Z
	DD	FLAT:?get_accRole@CWnd@@UAEJUtagVARIANT@@PAU2@@Z
	DD	FLAT:?get_accState@CWnd@@UAEJUtagVARIANT@@PAU2@@Z
	DD	FLAT:?get_accHelp@CWnd@@UAEJUtagVARIANT@@PAPA_W@Z
	DD	FLAT:?get_accHelpTopic@CWnd@@UAEJPAPA_WUtagVARIANT@@PAJ@Z
	DD	FLAT:?get_accKeyboardShortcut@CWnd@@UAEJUtagVARIANT@@PAPA_W@Z
	DD	FLAT:?get_accFocus@CWnd@@UAEJPAUtagVARIANT@@@Z
	DD	FLAT:?get_accSelection@CWnd@@UAEJPAUtagVARIANT@@@Z
	DD	FLAT:?get_accDefaultAction@CWnd@@UAEJUtagVARIANT@@PAPA_W@Z
	DD	FLAT:?accSelect@CWnd@@UAEJJUtagVARIANT@@@Z
	DD	FLAT:?accLocation@CWnd@@UAEJPAJ000UtagVARIANT@@@Z
	DD	FLAT:?accNavigate@CWnd@@UAEJJUtagVARIANT@@PAU2@@Z
	DD	FLAT:?accHitTest@CWnd@@UAEJJJPAUtagVARIANT@@@Z
	DD	FLAT:?accDoDefaultAction@CWnd@@UAEJUtagVARIANT@@@Z
	DD	FLAT:?put_accName@CWnd@@UAEJUtagVARIANT@@PA_W@Z
	DD	FLAT:?put_accValue@CWnd@@UAEJUtagVARIANT@@PA_W@Z
	DD	FLAT:?SetProxy@CWnd@@UAEJPAUIAccessibleProxy@@@Z
	DD	FLAT:?CreateAccessibleProxy@CWnd@@UAEJIJPAJ@Z
	DD	FLAT:?OnCommand@CWnd@@MAEHIJ@Z
	DD	FLAT:?OnNotify@CWnd@@MAEHIJPAJ@Z
	DD	FLAT:?GetSuperWndProcAddr@CWnd@@MAEPAP6GJPAUHWND__@@IIJ@ZXZ
	DD	FLAT:?DoDataExchange@CMiniTickBarCFG@@MAEXPAVCDataExchange@@@Z
	DD	FLAT:?BeginModalState@CWnd@@UAEXXZ
	DD	FLAT:?EndModalState@CWnd@@UAEXXZ
	DD	FLAT:?PreTranslateMessage@CDialog@@UAEHPAUtagMSG@@@Z
	DD	FLAT:?OnAmbientProperty@CWnd@@UAEHPAVCOleControlSite@@JPAUtagVARIANT@@@Z
	DD	FLAT:?WindowProc@CWnd@@MAEJIIJ@Z
	DD	FLAT:?OnWndMsg@CWnd@@MAEHIIJPAJ@Z
	DD	FLAT:?DefWindowProcA@CWnd@@MAEJIIJ@Z
	DD	FLAT:?PostNcDestroy@CWnd@@MAEXXZ
	DD	FLAT:?OnChildNotify@CWnd@@MAEHIIJPAJ@Z
	DD	FLAT:?OnTouchInputs@CWnd@@MAEHIPAUtagTOUCHINPUT@@@Z
	DD	FLAT:?OnTouchInput@CWnd@@MAEHVCPoint@@HHPAUtagTOUCHINPUT@@@Z
	DD	FLAT:?GetGestureStatus@CWnd@@MAEKVCPoint@@@Z
	DD	FLAT:?OnGestureZoom@CWnd@@MAEHVCPoint@@J@Z
	DD	FLAT:?OnGesturePan@CWnd@@MAEHVCPoint@@0@Z
	DD	FLAT:?OnGestureRotate@CWnd@@MAEHVCPoint@@N@Z
	DD	FLAT:?OnGestureTwoFingerTap@CWnd@@MAEHVCPoint@@@Z
	DD	FLAT:?OnGesturePressAndTap@CWnd@@MAEHVCPoint@@J@Z
	DD	FLAT:?ResizeDynamicLayout@CWnd@@MAEXXZ
	DD	FLAT:?CheckAutoCenter@CDialog@@UAEHXZ
	DD	FLAT:?IsFrameWnd@CWnd@@UBEHXZ
	DD	FLAT:?CreateControlContainer@CWnd@@MAEHPAPAVCOleControlContainer@@@Z
	DD	FLAT:?CreateControlSite@CWnd@@MAEHPAVCOleControlContainer@@PAPAVCOleControlSite@@IABU_GUID@@@Z
	DD	FLAT:?SetOccDialogInfo@CDialog@@MAEHPAU_AFX_OCC_DIALOG_INFO@@@Z
	DD	FLAT:?GetOccDialogInfo@CDialog@@MAEPAU_AFX_OCC_DIALOG_INFO@@XZ
	DD	FLAT:?Create@CDialog@@UAEHIPAVCWnd@@@Z
	DD	FLAT:?Create@CDialog@@UAEHPBDPAVCWnd@@@Z
	DD	FLAT:?CreateIndirect@CDialog@@UAEHPAXPAVCWnd@@@Z
	DD	FLAT:?CreateIndirect@CDialog@@UAEHPBUDLGTEMPLATE@@PAVCWnd@@PAX@Z
	DD	FLAT:?DoModal@CDialog@@UAEHXZ
	DD	FLAT:?OnInitDialog@CMiniTickBarCFG@@MAEHXZ
	DD	FLAT:?OnSetFont@CDialog@@UAEXPAVCFont@@@Z
	DD	FLAT:?OnOK@CDialog@@MAEXXZ
	DD	FLAT:?OnCancel@CDialog@@MAEXXZ
	DD	FLAT:?PreInitDialog@CDialog@@MAEXXZ
CONST	ENDS
;	COMDAT ??_R2CDialog@@8
rdata$r	SEGMENT
??_R2CDialog@@8 DD FLAT:??_R1A@?0A@EA@CDialog@@8	; CDialog::`RTTI Base Class Array'
	DD	FLAT:??_R1A@?0A@EA@CWnd@@8
	DD	FLAT:??_R1A@?0A@EA@CCmdTarget@@8
	DD	FLAT:??_R1A@?0A@EA@CObject@@8
rdata$r	ENDS
;	COMDAT ??_R3CDialog@@8
rdata$r	SEGMENT
??_R3CDialog@@8 DD 00H					; CDialog::`RTTI Class Hierarchy Descriptor'
	DD	00H
	DD	04H
	DD	FLAT:??_R2CDialog@@8
rdata$r	ENDS
;	COMDAT ??_R0?AVCDialog@@@8
data$rs	SEGMENT
??_R0?AVCDialog@@@8 DD FLAT:??_7type_info@@6B@		; CDialog `RTTI Type Descriptor'
	DD	00H
	DB	'.?AVCDialog@@', 00H
data$rs	ENDS
;	COMDAT ??_R1A@?0A@EA@CDialog@@8
rdata$r	SEGMENT
??_R1A@?0A@EA@CDialog@@8 DD FLAT:??_R0?AVCDialog@@@8	; CDialog::`RTTI Base Class Descriptor at (0,-1,0,64)'
	DD	03H
	DD	00H
	DD	0ffffffffH
	DD	00H
	DD	040H
	DD	FLAT:??_R3CDialog@@8
rdata$r	ENDS
;	COMDAT ??_R2CCmdTarget@@8
rdata$r	SEGMENT
??_R2CCmdTarget@@8 DD FLAT:??_R1A@?0A@EA@CCmdTarget@@8	; CCmdTarget::`RTTI Base Class Array'
	DD	FLAT:??_R1A@?0A@EA@CObject@@8
rdata$r	ENDS
;	COMDAT ??_R3CCmdTarget@@8
rdata$r	SEGMENT
??_R3CCmdTarget@@8 DD 00H				; CCmdTarget::`RTTI Class Hierarchy Descriptor'
	DD	00H
	DD	02H
	DD	FLAT:??_R2CCmdTarget@@8
rdata$r	ENDS
;	COMDAT ??_R0?AVCCmdTarget@@@8
data$rs	SEGMENT
??_R0?AVCCmdTarget@@@8 DD FLAT:??_7type_info@@6B@	; CCmdTarget `RTTI Type Descriptor'
	DD	00H
	DB	'.?AVCCmdTarget@@', 00H
data$rs	ENDS
;	COMDAT ??_R1A@?0A@EA@CCmdTarget@@8
rdata$r	SEGMENT
??_R1A@?0A@EA@CCmdTarget@@8 DD FLAT:??_R0?AVCCmdTarget@@@8 ; CCmdTarget::`RTTI Base Class Descriptor at (0,-1,0,64)'
	DD	01H
	DD	00H
	DD	0ffffffffH
	DD	00H
	DD	040H
	DD	FLAT:??_R3CCmdTarget@@8
rdata$r	ENDS
;	COMDAT ??_R2CWnd@@8
rdata$r	SEGMENT
??_R2CWnd@@8 DD	FLAT:??_R1A@?0A@EA@CWnd@@8		; CWnd::`RTTI Base Class Array'
	DD	FLAT:??_R1A@?0A@EA@CCmdTarget@@8
	DD	FLAT:??_R1A@?0A@EA@CObject@@8
rdata$r	ENDS
;	COMDAT ??_R3CWnd@@8
rdata$r	SEGMENT
??_R3CWnd@@8 DD	00H					; CWnd::`RTTI Class Hierarchy Descriptor'
	DD	00H
	DD	03H
	DD	FLAT:??_R2CWnd@@8
rdata$r	ENDS
;	COMDAT ??_R0?AVCWnd@@@8
data$rs	SEGMENT
??_R0?AVCWnd@@@8 DD FLAT:??_7type_info@@6B@		; CWnd `RTTI Type Descriptor'
	DD	00H
	DB	'.?AVCWnd@@', 00H
data$rs	ENDS
;	COMDAT ??_R1A@?0A@EA@CWnd@@8
rdata$r	SEGMENT
??_R1A@?0A@EA@CWnd@@8 DD FLAT:??_R0?AVCWnd@@@8		; CWnd::`RTTI Base Class Descriptor at (0,-1,0,64)'
	DD	02H
	DD	00H
	DD	0ffffffffH
	DD	00H
	DD	040H
	DD	FLAT:??_R3CWnd@@8
rdata$r	ENDS
;	COMDAT ??_R1A@?0A@EA@CObject@@8
rdata$r	SEGMENT
??_R1A@?0A@EA@CObject@@8 DD FLAT:??_R0?AVCObject@@@8	; CObject::`RTTI Base Class Descriptor at (0,-1,0,64)'
	DD	00H
	DD	00H
	DD	0ffffffffH
	DD	00H
	DD	040H
	DD	FLAT:??_R3CObject@@8
rdata$r	ENDS
;	COMDAT ??_R2CObject@@8
rdata$r	SEGMENT
??_R2CObject@@8 DD FLAT:??_R1A@?0A@EA@CObject@@8	; CObject::`RTTI Base Class Array'
rdata$r	ENDS
;	COMDAT ??_R3CObject@@8
rdata$r	SEGMENT
??_R3CObject@@8 DD 00H					; CObject::`RTTI Class Hierarchy Descriptor'
	DD	00H
	DD	01H
	DD	FLAT:??_R2CObject@@8
rdata$r	ENDS
;	COMDAT ??_R0?AVCObject@@@8
data$rs	SEGMENT
??_R0?AVCObject@@@8 DD FLAT:??_7type_info@@6B@		; CObject `RTTI Type Descriptor'
	DD	00H
	DB	'.?AVCObject@@', 00H
data$rs	ENDS
;	COMDAT ??_C@_00CNPNBAHC@@
CONST	SEGMENT
??_C@_00CNPNBAHC@@ DB 00H				; `string'
CONST	ENDS
;	COMDAT ?_AtlWinModule@ATL@@3VCAtlWinModule@1@A
_DATA	SEGMENT
?_AtlWinModule@ATL@@3VCAtlWinModule@1@A DD 02cH		; ATL::_AtlWinModule
	DB	24 DUP(00H)
	DD	00H
_DATA	ENDS
;	COMDAT xdata$x
xdata$x	SEGMENT
__ehfuncinfo$??_Estringdispid@CComTypeInfoHolder@ATL@@QAEPAXI@Z DD 019930522H
	DD	00H
	DD	00H
	DD	2 DUP(00H)
	DD	2 DUP(00H)
	DD	00H
	DD	05H
xdata$x	ENDS
;	COMDAT xdata$x
xdata$x	SEGMENT
__unwindtable$??_GCMiniTickBarCFG@@UAEPAXI@Z DD 0ffffffffH
	DD	FLAT:___std_terminate
__ehfuncinfo$??_GCMiniTickBarCFG@@UAEPAXI@Z DD 019930522H
	DD	01H
	DD	FLAT:__unwindtable$??_GCMiniTickBarCFG@@UAEPAXI@Z
	DD	2 DUP(00H)
	DD	2 DUP(00H)
	DD	00H
	DD	05H
xdata$x	ENDS
;	COMDAT xdata$x
xdata$x	SEGMENT
__ehfuncinfo$??1CMiniTickBarCFG@@UAE@XZ DD 019930522H
	DD	00H
	DD	00H
	DD	2 DUP(00H)
	DD	2 DUP(00H)
	DD	00H
	DD	05H
xdata$x	ENDS
;	COMDAT xdata$x
xdata$x	SEGMENT
__unwindtable$?OnEditTick@CMiniTickBarCFG@@IAEXI@Z DD 0ffffffffH
	DD	FLAT:__unwindfunclet$?OnEditTick@CMiniTickBarCFG@@IAEXI@Z$0
__ehfuncinfo$?OnEditTick@CMiniTickBarCFG@@IAEXI@Z DD 019930522H
	DD	01H
	DD	FLAT:__unwindtable$?OnEditTick@CMiniTickBarCFG@@IAEXI@Z
	DD	2 DUP(00H)
	DD	2 DUP(00H)
	DD	00H
	DD	01H
xdata$x	ENDS
;	COMDAT xdata$x
xdata$x	SEGMENT
__unwindtable$?OnSelchangeCmbDate@CMiniTickBarCFG@@IAEXI@Z DD 0ffffffffH
	DD	FLAT:__unwindfunclet$?OnSelchangeCmbDate@CMiniTickBarCFG@@IAEXI@Z$0
__ehfuncinfo$?OnSelchangeCmbDate@CMiniTickBarCFG@@IAEXI@Z DD 019930522H
	DD	01H
	DD	FLAT:__unwindtable$?OnSelchangeCmbDate@CMiniTickBarCFG@@IAEXI@Z
	DD	2 DUP(00H)
	DD	2 DUP(00H)
	DD	00H
	DD	01H
xdata$x	ENDS
;	COMDAT xdata$x
xdata$x	SEGMENT
__unwindtable$?OnSelchangeCmbMarket@CMiniTickBarCFG@@IAEXI@Z DD 0ffffffffH
	DD	FLAT:__unwindfunclet$?OnSelchangeCmbMarket@CMiniTickBarCFG@@IAEXI@Z$0
__ehfuncinfo$?OnSelchangeCmbMarket@CMiniTickBarCFG@@IAEXI@Z DD 019930522H
	DD	01H
	DD	FLAT:__unwindtable$?OnSelchangeCmbMarket@CMiniTickBarCFG@@IAEXI@Z
	DD	2 DUP(00H)
	DD	2 DUP(00H)
	DD	00H
	DD	01H
xdata$x	ENDS
;	COMDAT xdata$x
xdata$x	SEGMENT
__unwindtable$?OnInitDialog@CMiniTickBarCFG@@MAEHXZ DD 0ffffffffH
	DD	FLAT:__unwindfunclet$?OnInitDialog@CMiniTickBarCFG@@MAEHXZ$0
__ehfuncinfo$?OnInitDialog@CMiniTickBarCFG@@MAEHXZ DD 019930522H
	DD	01H
	DD	FLAT:__unwindtable$?OnInitDialog@CMiniTickBarCFG@@MAEHXZ
	DD	2 DUP(00H)
	DD	2 DUP(00H)
	DD	00H
	DD	01H
xdata$x	ENDS
;	COMDAT xdata$x
xdata$x	SEGMENT
__unwindtable$?SetTickButtonConfig@CMiniTickBarCFG@@QAEXXZ DD 0ffffffffH
	DD	FLAT:__unwindfunclet$?SetTickButtonConfig@CMiniTickBarCFG@@QAEXXZ$0
__ehfuncinfo$?SetTickButtonConfig@CMiniTickBarCFG@@QAEXXZ DD 019930522H
	DD	01H
	DD	FLAT:__unwindtable$?SetTickButtonConfig@CMiniTickBarCFG@@QAEXXZ
	DD	2 DUP(00H)
	DD	2 DUP(00H)
	DD	00H
	DD	01H
xdata$x	ENDS
;	COMDAT xdata$x
xdata$x	SEGMENT
__unwindtable$??0CMiniTickBarCFG@@QAE@PAVCSetTickButton@@PAVCWnd@@@Z DD 0ffffffffH
	DD	FLAT:__unwindfunclet$??0CMiniTickBarCFG@@QAE@PAVCSetTickButton@@PAVCWnd@@@Z$0
	DD	00H
	DD	FLAT:__unwindfunclet$??0CMiniTickBarCFG@@QAE@PAVCSetTickButton@@PAVCWnd@@@Z$1
__ehfuncinfo$??0CMiniTickBarCFG@@QAE@PAVCSetTickButton@@PAVCWnd@@@Z DD 019930522H
	DD	02H
	DD	FLAT:__unwindtable$??0CMiniTickBarCFG@@QAE@PAVCSetTickButton@@PAVCWnd@@@Z
	DD	2 DUP(00H)
	DD	2 DUP(00H)
	DD	00H
	DD	01H
xdata$x	ENDS
CRT$XCU	SEGMENT
?RMSG_REPLAY_REAL$initializer$@@3P6AXXZA DD FLAT:??__ERMSG_REPLAY_REAL@@YAXXZ ; RMSG_REPLAY_REAL$initializer$
CRT$XCU	ENDS
CRT$XCU	SEGMENT
?RMSG_REPLAY_FAIL$initializer$@@3P6AXXZA DD FLAT:??__ERMSG_REPLAY_FAIL@@YAXXZ ; RMSG_REPLAY_FAIL$initializer$
CRT$XCU	ENDS
CRT$XCU	SEGMENT
?RMSG_REPLAY_CHANGE_DATE$initializer$@@3P6AXXZA DD FLAT:??__ERMSG_REPLAY_CHANGE_DATE@@YAXXZ ; RMSG_REPLAY_CHANGE_DATE$initializer$
CRT$XCU	ENDS
CRT$XCU	SEGMENT
?RMSG_REPLAY_END$initializer$@@3P6AXXZA DD FLAT:??__ERMSG_REPLAY_END@@YAXXZ ; RMSG_REPLAY_END$initializer$
CRT$XCU	ENDS
CRT$XCU	SEGMENT
?RMSG_REPLAY_INC_SEC$initializer$@@3P6AXXZA DD FLAT:??__ERMSG_REPLAY_INC_SEC@@YAXXZ ; RMSG_REPLAY_INC_SEC$initializer$
CRT$XCU	ENDS
CRT$XCU	SEGMENT
?RMSG_REPLAY_TOTAL_SEC$initializer$@@3P6AXXZA DD FLAT:??__ERMSG_REPLAY_TOTAL_SEC@@YAXXZ ; RMSG_REPLAY_TOTAL_SEC$initializer$
CRT$XCU	ENDS
CRT$XCU	SEGMENT
?RMSG_GETSIGNAL_REAL$initializer$@@3P6AXXZA DD FLAT:??__ERMSG_GETSIGNAL_REAL@@YAXXZ ; RMSG_GETSIGNAL_REAL$initializer$
CRT$XCU	ENDS
CRT$XCU	SEGMENT
?RMSG_SETQUERYOPT$initializer$@@3P6AXXZA DD FLAT:??__ERMSG_SETQUERYOPT@@YAXXZ ; RMSG_SETQUERYOPT$initializer$
CRT$XCU	ENDS
CRT$XCU	SEGMENT
?RMSG_CHARTMAIN$initializer$@@3P6AXXZA DD FLAT:??__ERMSG_CHARTMAIN@@YAXXZ ; RMSG_CHARTMAIN$initializer$
CRT$XCU	ENDS
CRT$XCU	SEGMENT
?RMS_ANALYSIS_FUNC$initializer$@@3P6AXXZA DD FLAT:??__ERMS_ANALYSIS_FUNC@@YAXXZ ; RMS_ANALYSIS_FUNC$initializer$
CRT$XCU	ENDS
CRT$XCU	SEGMENT
?RMSG_GET_USERID$initializer$@@3P6AXXZA DD FLAT:??__ERMSG_GET_USERID@@YAXXZ ; RMSG_GET_USERID$initializer$
CRT$XCU	ENDS
CRT$XCU	SEGMENT
?RMSG_CHANGE_SKINCOLOR$initializer$@@3P6AXXZA DD FLAT:??__ERMSG_CHANGE_SKINCOLOR@@YAXXZ ; RMSG_CHANGE_SKINCOLOR$initializer$
CRT$XCU	ENDS
CRT$XCU	SEGMENT
?RMSG_GET_SKINCOLOR$initializer$@@3P6AXXZA DD FLAT:??__ERMSG_GET_SKINCOLOR@@YAXXZ ; RMSG_GET_SKINCOLOR$initializer$
CRT$XCU	ENDS
CRT$XCU	SEGMENT
?RMSG_CHANGEVERTSCALETYPE$initializer$@@3P6AXXZA DD FLAT:??__ERMSG_CHANGEVERTSCALETYPE@@YAXXZ ; RMSG_CHANGEVERTSCALETYPE$initializer$
CRT$XCU	ENDS
CRT$XCU	SEGMENT
?RMSG_CHANGE_CROSSLINE$initializer$@@3P6AXXZA DD FLAT:??__ERMSG_CHANGE_CROSSLINE@@YAXXZ ; RMSG_CHANGE_CROSSLINE$initializer$
CRT$XCU	ENDS
CRT$XCU	SEGMENT
?RMSG_ADD_PLATFORM_MENU$initializer$@@3P6AXXZA DD FLAT:??__ERMSG_ADD_PLATFORM_MENU@@YAXXZ ; RMSG_ADD_PLATFORM_MENU$initializer$
CRT$XCU	ENDS
CRT$XCU	SEGMENT
?RMSG_SETINITIALCHARTDATA$initializer$@@3P6AXXZA DD FLAT:??__ERMSG_SETINITIALCHARTDATA@@YAXXZ ; RMSG_SETINITIALCHARTDATA$initializer$
CRT$XCU	ENDS
CRT$XCU	SEGMENT
?RMSG_GETINFO$initializer$@@3P6AXXZA DD FLAT:??__ERMSG_GETINFO@@YAXXZ ; RMSG_GETINFO$initializer$
CRT$XCU	ENDS
CRT$XCU	SEGMENT
?RMSG_SETINFO$initializer$@@3P6AXXZA DD FLAT:??__ERMSG_SETINFO@@YAXXZ ; RMSG_SETINFO$initializer$
CRT$XCU	ENDS
; Function compile flags: /Ogtp
; File D:\git\src\IBK\IBK_DRFN\ProjSrc\SrcDrfn\Chart\MULTICHART\define\ChartMsgDef.h
;	COMDAT ??__ERMSG_SETINFO@@YAXXZ
text$di	SEGMENT
??__ERMSG_SETINFO@@YAXXZ PROC				; `dynamic initializer for 'RMSG_SETINFO'', COMDAT

; 238  : const UINT RMSG_SETINFO = ::RegisterWindowMessage(_T("RMSG_SETINFO"));

  00000	68 00 00 00 00	 push	 OFFSET ??_C@_0N@HABLPHJG@RMSG_SETINFO@
  00005	ff 15 00 00 00
	00		 call	 DWORD PTR __imp__RegisterWindowMessageA@4
  0000b	a3 00 00 00 00	 mov	 DWORD PTR ?RMSG_SETINFO@@3IB, eax
  00010	c3		 ret	 0
??__ERMSG_SETINFO@@YAXXZ ENDP				; `dynamic initializer for 'RMSG_SETINFO''
text$di	ENDS
; Function compile flags: /Ogtp
; File D:\git\src\IBK\IBK_DRFN\ProjSrc\SrcDrfn\Chart\MULTICHART\define\ChartMsgDef.h
;	COMDAT ??__ERMSG_GETINFO@@YAXXZ
text$di	SEGMENT
??__ERMSG_GETINFO@@YAXXZ PROC				; `dynamic initializer for 'RMSG_GETINFO'', COMDAT

; 237  : const UINT RMSG_GETINFO = ::RegisterWindowMessage(_T("RMSG_GETINFO"));

  00000	68 00 00 00 00	 push	 OFFSET ??_C@_0N@IIOKMIEH@RMSG_GETINFO@
  00005	ff 15 00 00 00
	00		 call	 DWORD PTR __imp__RegisterWindowMessageA@4
  0000b	a3 00 00 00 00	 mov	 DWORD PTR ?RMSG_GETINFO@@3IB, eax
  00010	c3		 ret	 0
??__ERMSG_GETINFO@@YAXXZ ENDP				; `dynamic initializer for 'RMSG_GETINFO''
text$di	ENDS
; Function compile flags: /Ogtp
; File D:\git\src\IBK\IBK_DRFN\ProjSrc\SrcDrfn\Chart\MULTICHART\define\ChartMsgDef.h
;	COMDAT ??__ERMSG_SETINITIALCHARTDATA@@YAXXZ
text$di	SEGMENT
??__ERMSG_SETINITIALCHARTDATA@@YAXXZ PROC		; `dynamic initializer for 'RMSG_SETINITIALCHARTDATA'', COMDAT

; 235  : const UINT RMSG_SETINITIALCHARTDATA = ::RegisterWindowMessage(_T("RMSG_SETINITIALCHARTDATA"));

  00000	68 00 00 00 00	 push	 OFFSET ??_C@_0BJ@OGNAJHHI@RMSG_SETINITIALCHARTDATA@
  00005	ff 15 00 00 00
	00		 call	 DWORD PTR __imp__RegisterWindowMessageA@4
  0000b	a3 00 00 00 00	 mov	 DWORD PTR ?RMSG_SETINITIALCHARTDATA@@3IB, eax
  00010	c3		 ret	 0
??__ERMSG_SETINITIALCHARTDATA@@YAXXZ ENDP		; `dynamic initializer for 'RMSG_SETINITIALCHARTDATA''
text$di	ENDS
; Function compile flags: /Ogtp
; File D:\git\src\IBK\IBK_DRFN\ProjSrc\SrcDrfn\Chart\MULTICHART\define\ChartMsgDef.h
;	COMDAT ??__ERMSG_ADD_PLATFORM_MENU@@YAXXZ
text$di	SEGMENT
??__ERMSG_ADD_PLATFORM_MENU@@YAXXZ PROC			; `dynamic initializer for 'RMSG_ADD_PLATFORM_MENU'', COMDAT

; 233  : const UINT RMSG_ADD_PLATFORM_MENU = ::RegisterWindowMessage(_T("RMSG_ADD_PLATFORM_MENU"));

  00000	68 00 00 00 00	 push	 OFFSET ??_C@_0BH@IFDMIMBP@RMSG_ADD_PLATFORM_MENU@
  00005	ff 15 00 00 00
	00		 call	 DWORD PTR __imp__RegisterWindowMessageA@4
  0000b	a3 00 00 00 00	 mov	 DWORD PTR ?RMSG_ADD_PLATFORM_MENU@@3IB, eax
  00010	c3		 ret	 0
??__ERMSG_ADD_PLATFORM_MENU@@YAXXZ ENDP			; `dynamic initializer for 'RMSG_ADD_PLATFORM_MENU''
text$di	ENDS
; Function compile flags: /Ogtp
; File D:\git\src\IBK\IBK_DRFN\ProjSrc\SrcDrfn\Chart\MULTICHART\define\ChartMsgDef.h
;	COMDAT ??__ERMSG_CHANGE_CROSSLINE@@YAXXZ
text$di	SEGMENT
??__ERMSG_CHANGE_CROSSLINE@@YAXXZ PROC			; `dynamic initializer for 'RMSG_CHANGE_CROSSLINE'', COMDAT

; 231  : const UINT RMSG_CHANGE_CROSSLINE = ::RegisterWindowMessage(_T("RMSG_CHANGE_CROSSLINE"));

  00000	68 00 00 00 00	 push	 OFFSET ??_C@_0BG@LNLCJKPF@RMSG_CHANGE_CROSSLINE@
  00005	ff 15 00 00 00
	00		 call	 DWORD PTR __imp__RegisterWindowMessageA@4
  0000b	a3 00 00 00 00	 mov	 DWORD PTR ?RMSG_CHANGE_CROSSLINE@@3IB, eax
  00010	c3		 ret	 0
??__ERMSG_CHANGE_CROSSLINE@@YAXXZ ENDP			; `dynamic initializer for 'RMSG_CHANGE_CROSSLINE''
text$di	ENDS
; Function compile flags: /Ogtp
; File D:\git\src\IBK\IBK_DRFN\ProjSrc\SrcDrfn\Chart\MULTICHART\define\ChartMsgDef.h
;	COMDAT ??__ERMSG_CHANGEVERTSCALETYPE@@YAXXZ
text$di	SEGMENT
??__ERMSG_CHANGEVERTSCALETYPE@@YAXXZ PROC		; `dynamic initializer for 'RMSG_CHANGEVERTSCALETYPE'', COMDAT

; 229  : const UINT RMSG_CHANGEVERTSCALETYPE = ::RegisterWindowMessage(_T("RMSG_CHANGEVERTSCALETYPE"));

  00000	68 00 00 00 00	 push	 OFFSET ??_C@_0BJ@JLKHIBIK@RMSG_CHANGEVERTSCALETYPE@
  00005	ff 15 00 00 00
	00		 call	 DWORD PTR __imp__RegisterWindowMessageA@4
  0000b	a3 00 00 00 00	 mov	 DWORD PTR ?RMSG_CHANGEVERTSCALETYPE@@3IB, eax
  00010	c3		 ret	 0
??__ERMSG_CHANGEVERTSCALETYPE@@YAXXZ ENDP		; `dynamic initializer for 'RMSG_CHANGEVERTSCALETYPE''
text$di	ENDS
; Function compile flags: /Ogtp
; File D:\git\src\IBK\IBK_DRFN\ProjSrc\SrcDrfn\Chart\MULTICHART\define\ChartMsgDef.h
;	COMDAT ??__ERMSG_GET_SKINCOLOR@@YAXXZ
text$di	SEGMENT
??__ERMSG_GET_SKINCOLOR@@YAXXZ PROC			; `dynamic initializer for 'RMSG_GET_SKINCOLOR'', COMDAT

; 226  : const UINT RMSG_GET_SKINCOLOR = ::RegisterWindowMessage(_T("RMSG_GET_SKINCOLOR"));

  00000	68 00 00 00 00	 push	 OFFSET ??_C@_0BD@FLDNDDHK@RMSG_GET_SKINCOLOR@
  00005	ff 15 00 00 00
	00		 call	 DWORD PTR __imp__RegisterWindowMessageA@4
  0000b	a3 00 00 00 00	 mov	 DWORD PTR ?RMSG_GET_SKINCOLOR@@3IB, eax
  00010	c3		 ret	 0
??__ERMSG_GET_SKINCOLOR@@YAXXZ ENDP			; `dynamic initializer for 'RMSG_GET_SKINCOLOR''
text$di	ENDS
; Function compile flags: /Ogtp
; File D:\git\src\IBK\IBK_DRFN\ProjSrc\SrcDrfn\Chart\MULTICHART\define\ChartMsgDef.h
;	COMDAT ??__ERMSG_CHANGE_SKINCOLOR@@YAXXZ
text$di	SEGMENT
??__ERMSG_CHANGE_SKINCOLOR@@YAXXZ PROC			; `dynamic initializer for 'RMSG_CHANGE_SKINCOLOR'', COMDAT

; 225  : const UINT RMSG_CHANGE_SKINCOLOR = ::RegisterWindowMessage(_T("RMSG_CHANGE_SKINCOLOR"));

  00000	68 00 00 00 00	 push	 OFFSET ??_C@_0BG@CNPAHNGG@RMSG_CHANGE_SKINCOLOR@
  00005	ff 15 00 00 00
	00		 call	 DWORD PTR __imp__RegisterWindowMessageA@4
  0000b	a3 00 00 00 00	 mov	 DWORD PTR ?RMSG_CHANGE_SKINCOLOR@@3IB, eax
  00010	c3		 ret	 0
??__ERMSG_CHANGE_SKINCOLOR@@YAXXZ ENDP			; `dynamic initializer for 'RMSG_CHANGE_SKINCOLOR''
text$di	ENDS
; Function compile flags: /Ogtp
; File D:\git\src\IBK\IBK_DRFN\ProjSrc\SrcDrfn\Chart\MULTICHART\define\ChartMsgDef.h
;	COMDAT ??__ERMSG_GET_USERID@@YAXXZ
text$di	SEGMENT
??__ERMSG_GET_USERID@@YAXXZ PROC			; `dynamic initializer for 'RMSG_GET_USERID'', COMDAT

; 215  : const UINT RMSG_GET_USERID = ::RegisterWindowMessage(_T("RMSG_GET_USERID"));	// User ID 얻기

  00000	68 00 00 00 00	 push	 OFFSET ??_C@_0BA@HKNFENJL@RMSG_GET_USERID@
  00005	ff 15 00 00 00
	00		 call	 DWORD PTR __imp__RegisterWindowMessageA@4
  0000b	a3 00 00 00 00	 mov	 DWORD PTR ?RMSG_GET_USERID@@3IB, eax
  00010	c3		 ret	 0
??__ERMSG_GET_USERID@@YAXXZ ENDP			; `dynamic initializer for 'RMSG_GET_USERID''
text$di	ENDS
; Function compile flags: /Ogtp
; File D:\git\src\IBK\IBK_DRFN\ProjSrc\SrcDrfn\Chart\MULTICHART\define\ChartMsgDef.h
;	COMDAT ??__ERMS_ANALYSIS_FUNC@@YAXXZ
text$di	SEGMENT
??__ERMS_ANALYSIS_FUNC@@YAXXZ PROC			; `dynamic initializer for 'RMS_ANALYSIS_FUNC'', COMDAT

; 211  : const UINT RMS_ANALYSIS_FUNC	= ::RegisterWindowMessage(_T("RMS_ANALYSIS_FUNC"));

  00000	68 00 00 00 00	 push	 OFFSET ??_C@_0BC@MMPGLPDH@RMS_ANALYSIS_FUNC@
  00005	ff 15 00 00 00
	00		 call	 DWORD PTR __imp__RegisterWindowMessageA@4
  0000b	a3 00 00 00 00	 mov	 DWORD PTR ?RMS_ANALYSIS_FUNC@@3IB, eax
  00010	c3		 ret	 0
??__ERMS_ANALYSIS_FUNC@@YAXXZ ENDP			; `dynamic initializer for 'RMS_ANALYSIS_FUNC''
text$di	ENDS
; Function compile flags: /Ogtp
; File D:\git\src\IBK\IBK_DRFN\ProjSrc\SrcDrfn\Chart\MULTICHART\define\ChartMsgDef.h
;	COMDAT ??__ERMSG_CHARTMAIN@@YAXXZ
text$di	SEGMENT
??__ERMSG_CHARTMAIN@@YAXXZ PROC				; `dynamic initializer for 'RMSG_CHARTMAIN'', COMDAT

; 208  : const UINT RMSG_CHARTMAIN		= ::RegisterWindowMessage(_T("RMSG_CHARTMAIN"));

  00000	68 00 00 00 00	 push	 OFFSET ??_C@_0P@KHFCBIOH@RMSG_CHARTMAIN@
  00005	ff 15 00 00 00
	00		 call	 DWORD PTR __imp__RegisterWindowMessageA@4
  0000b	a3 00 00 00 00	 mov	 DWORD PTR ?RMSG_CHARTMAIN@@3IB, eax
  00010	c3		 ret	 0
??__ERMSG_CHARTMAIN@@YAXXZ ENDP				; `dynamic initializer for 'RMSG_CHARTMAIN''
text$di	ENDS
; Function compile flags: /Ogtp
; File D:\git\src\IBK\IBK_DRFN\ProjSrc\SrcDrfn\Chart\MULTICHART\define\ChartMsgDef.h
;	COMDAT ??__ERMSG_SETQUERYOPT@@YAXXZ
text$di	SEGMENT
??__ERMSG_SETQUERYOPT@@YAXXZ PROC			; `dynamic initializer for 'RMSG_SETQUERYOPT'', COMDAT

; 183  : const UINT RMSG_SETQUERYOPT = ::RegisterWindowMessage(_T("RMSG_SETQUERYOPT"));

  00000	68 00 00 00 00	 push	 OFFSET ??_C@_0BB@CNOFPEHG@RMSG_SETQUERYOPT@
  00005	ff 15 00 00 00
	00		 call	 DWORD PTR __imp__RegisterWindowMessageA@4
  0000b	a3 00 00 00 00	 mov	 DWORD PTR ?RMSG_SETQUERYOPT@@3IB, eax
  00010	c3		 ret	 0
??__ERMSG_SETQUERYOPT@@YAXXZ ENDP			; `dynamic initializer for 'RMSG_SETQUERYOPT''
text$di	ENDS
; Function compile flags: /Ogtp
; File D:\git\src\IBK\IBK_DRFN\ProjSrc\SrcDrfn\Chart\commontr\TRDefine.h
;	COMDAT ??__ERMSG_GETSIGNAL_REAL@@YAXXZ
text$di	SEGMENT
??__ERMSG_GETSIGNAL_REAL@@YAXXZ PROC			; `dynamic initializer for 'RMSG_GETSIGNAL_REAL'', COMDAT

; 213  : const UINT RMSG_GETSIGNAL_REAL = ::RegisterWindowMessage(_T("RMSG_GETSIGNAL_REAL"));

  00000	68 00 00 00 00	 push	 OFFSET ??_C@_0BE@FJPKENOB@RMSG_GETSIGNAL_REAL@
  00005	ff 15 00 00 00
	00		 call	 DWORD PTR __imp__RegisterWindowMessageA@4
  0000b	a3 00 00 00 00	 mov	 DWORD PTR ?RMSG_GETSIGNAL_REAL@@3IB, eax
  00010	c3		 ret	 0
??__ERMSG_GETSIGNAL_REAL@@YAXXZ ENDP			; `dynamic initializer for 'RMSG_GETSIGNAL_REAL''
text$di	ENDS
; Function compile flags: /Ogtp
; File D:\git\src\IBK\IBK_DRFN\ProjSrc\SrcDrfn\Chart\chart_common\ReplayChartInfoDef.h
;	COMDAT ??__ERMSG_REPLAY_TOTAL_SEC@@YAXXZ
text$di	SEGMENT
??__ERMSG_REPLAY_TOTAL_SEC@@YAXXZ PROC			; `dynamic initializer for 'RMSG_REPLAY_TOTAL_SEC'', COMDAT

; 97   : 	const UINT RMSG_REPLAY_TOTAL_SEC = ::RegisterWindowMessage(_T("RMSG_REPLAY_TOTAL_SEC"));		// 전체 시간(초단위)를 전송

  00000	68 00 00 00 00	 push	 OFFSET ??_C@_0BG@GIAJEIJF@RMSG_REPLAY_TOTAL_SEC@
  00005	ff 15 00 00 00
	00		 call	 DWORD PTR __imp__RegisterWindowMessageA@4
  0000b	a3 00 00 00 00	 mov	 DWORD PTR ?RMSG_REPLAY_TOTAL_SEC@@3IB, eax
  00010	c3		 ret	 0
??__ERMSG_REPLAY_TOTAL_SEC@@YAXXZ ENDP			; `dynamic initializer for 'RMSG_REPLAY_TOTAL_SEC''
text$di	ENDS
; Function compile flags: /Ogtp
; File D:\git\src\IBK\IBK_DRFN\ProjSrc\SrcDrfn\Chart\chart_common\ReplayChartInfoDef.h
;	COMDAT ??__ERMSG_REPLAY_INC_SEC@@YAXXZ
text$di	SEGMENT
??__ERMSG_REPLAY_INC_SEC@@YAXXZ PROC			; `dynamic initializer for 'RMSG_REPLAY_INC_SEC'', COMDAT

; 96   : 	const UINT RMSG_REPLAY_INC_SEC = ::RegisterWindowMessage(_T("RMSG_REPLAY_INC_SEC"));			// 1초가 증가 될때마다 전송

  00000	68 00 00 00 00	 push	 OFFSET ??_C@_0BE@JFCIMCIP@RMSG_REPLAY_INC_SEC@
  00005	ff 15 00 00 00
	00		 call	 DWORD PTR __imp__RegisterWindowMessageA@4
  0000b	a3 00 00 00 00	 mov	 DWORD PTR ?RMSG_REPLAY_INC_SEC@@3IB, eax
  00010	c3		 ret	 0
??__ERMSG_REPLAY_INC_SEC@@YAXXZ ENDP			; `dynamic initializer for 'RMSG_REPLAY_INC_SEC''
text$di	ENDS
; Function compile flags: /Ogtp
; File D:\git\src\IBK\IBK_DRFN\ProjSrc\SrcDrfn\Chart\chart_common\ReplayChartInfoDef.h
;	COMDAT ??__ERMSG_REPLAY_END@@YAXXZ
text$di	SEGMENT
??__ERMSG_REPLAY_END@@YAXXZ PROC			; `dynamic initializer for 'RMSG_REPLAY_END'', COMDAT

; 95   : 	const UINT RMSG_REPLAY_END			= ::RegisterWindowMessage(_T("RMSG_REPLAY_END"));

  00000	68 00 00 00 00	 push	 OFFSET ??_C@_0BA@NKHHCPON@RMSG_REPLAY_END@
  00005	ff 15 00 00 00
	00		 call	 DWORD PTR __imp__RegisterWindowMessageA@4
  0000b	a3 00 00 00 00	 mov	 DWORD PTR ?RMSG_REPLAY_END@@3IB, eax
  00010	c3		 ret	 0
??__ERMSG_REPLAY_END@@YAXXZ ENDP			; `dynamic initializer for 'RMSG_REPLAY_END''
text$di	ENDS
; Function compile flags: /Ogtp
; File D:\git\src\IBK\IBK_DRFN\ProjSrc\SrcDrfn\Chart\chart_common\ReplayChartInfoDef.h
;	COMDAT ??__ERMSG_REPLAY_CHANGE_DATE@@YAXXZ
text$di	SEGMENT
??__ERMSG_REPLAY_CHANGE_DATE@@YAXXZ PROC		; `dynamic initializer for 'RMSG_REPLAY_CHANGE_DATE'', COMDAT

; 94   : 	const UINT RMSG_REPLAY_CHANGE_DATE	= ::RegisterWindowMessage(_T("RMSG_REPLAY_CHANGE_DATE"));

  00000	68 00 00 00 00	 push	 OFFSET ??_C@_0BI@KDGAIIMD@RMSG_REPLAY_CHANGE_DATE@
  00005	ff 15 00 00 00
	00		 call	 DWORD PTR __imp__RegisterWindowMessageA@4
  0000b	a3 00 00 00 00	 mov	 DWORD PTR ?RMSG_REPLAY_CHANGE_DATE@@3IB, eax
  00010	c3		 ret	 0
??__ERMSG_REPLAY_CHANGE_DATE@@YAXXZ ENDP		; `dynamic initializer for 'RMSG_REPLAY_CHANGE_DATE''
text$di	ENDS
; Function compile flags: /Ogtp
; File D:\git\src\IBK\IBK_DRFN\ProjSrc\SrcDrfn\Chart\chart_common\ReplayChartInfoDef.h
;	COMDAT ??__ERMSG_REPLAY_FAIL@@YAXXZ
text$di	SEGMENT
??__ERMSG_REPLAY_FAIL@@YAXXZ PROC			; `dynamic initializer for 'RMSG_REPLAY_FAIL'', COMDAT

; 93   : 	const UINT RMSG_REPLAY_FAIL			= ::RegisterWindowMessage(_T("RMSG_REPLAY_FAIL"));

  00000	68 00 00 00 00	 push	 OFFSET ??_C@_0BB@JFLGBADG@RMSG_REPLAY_FAIL@
  00005	ff 15 00 00 00
	00		 call	 DWORD PTR __imp__RegisterWindowMessageA@4
  0000b	a3 00 00 00 00	 mov	 DWORD PTR ?RMSG_REPLAY_FAIL@@3IB, eax
  00010	c3		 ret	 0
??__ERMSG_REPLAY_FAIL@@YAXXZ ENDP			; `dynamic initializer for 'RMSG_REPLAY_FAIL''
text$di	ENDS
; Function compile flags: /Ogtp
; File D:\git\src\IBK\IBK_DRFN\ProjSrc\SrcDrfn\Chart\chart_common\ReplayChartInfoDef.h
;	COMDAT ??__ERMSG_REPLAY_REAL@@YAXXZ
text$di	SEGMENT
??__ERMSG_REPLAY_REAL@@YAXXZ PROC			; `dynamic initializer for 'RMSG_REPLAY_REAL'', COMDAT

; 92   : 	const UINT RMSG_REPLAY_REAL			= ::RegisterWindowMessage(_T("RMSG_REPLAY_REAL"));

  00000	68 00 00 00 00	 push	 OFFSET ??_C@_0BB@IBKHOHJL@RMSG_REPLAY_REAL@
  00005	ff 15 00 00 00
	00		 call	 DWORD PTR __imp__RegisterWindowMessageA@4
  0000b	a3 00 00 00 00	 mov	 DWORD PTR ?RMSG_REPLAY_REAL@@3IB, eax
  00010	c3		 ret	 0
??__ERMSG_REPLAY_REAL@@YAXXZ ENDP			; `dynamic initializer for 'RMSG_REPLAY_REAL''
text$di	ENDS
; Function compile flags: /Ogtp
; File C:\Program Files (x86)\Microsoft Visual Studio\2019\Community\VC\Tools\MSVC\14.29.30133\atlmfc\include\atlcomcli.h
;	COMDAT ??_Estringdispid@CComTypeInfoHolder@ATL@@QAEPAXI@Z
_TEXT	SEGMENT
__$EHRec$ = -12						; size = 12
___flags$ = 8						; size = 4
??_Estringdispid@CComTypeInfoHolder@ATL@@QAEPAXI@Z PROC	; ATL::CComTypeInfoHolder::stringdispid::`vector deleting destructor', COMDAT
; _this$ = ecx
  00000	55		 push	 ebp
  00001	8b ec		 mov	 ebp, esp
  00003	6a ff		 push	 -1
  00005	68 00 00 00 00	 push	 __ehhandler$??_Estringdispid@CComTypeInfoHolder@ATL@@QAEPAXI@Z
  0000a	64 a1 00 00 00
	00		 mov	 eax, DWORD PTR fs:0
  00010	50		 push	 eax
  00011	53		 push	 ebx
  00012	56		 push	 esi
  00013	57		 push	 edi
  00014	a1 00 00 00 00	 mov	 eax, DWORD PTR ___security_cookie
  00019	33 c5		 xor	 eax, ebp
  0001b	50		 push	 eax
  0001c	8d 45 f4	 lea	 eax, DWORD PTR __$EHRec$[ebp]
  0001f	64 a3 00 00 00
	00		 mov	 DWORD PTR fs:0, eax
  00025	8b f1		 mov	 esi, ecx
  00027	8b 45 08	 mov	 eax, DWORD PTR ___flags$[ebp]
  0002a	8b d8		 mov	 ebx, eax
  0002c	83 e3 01	 and	 ebx, 1
  0002f	a8 02		 test	 al, 2
  00031	74 43		 je	 SHORT $LN2@vector
  00033	68 00 00 00 00	 push	 OFFSET ??1stringdispid@CComTypeInfoHolder@ATL@@QAE@XZ
  00038	ff 76 fc	 push	 DWORD PTR [esi-4]
  0003b	8d 7e fc	 lea	 edi, DWORD PTR [esi-4]
  0003e	6a 0c		 push	 12			; 0000000cH
  00040	56		 push	 esi
  00041	e8 00 00 00 00	 call	 ??_M@YGXPAXIIP6EX0@Z@Z
  00046	85 db		 test	 ebx, ebx
  00048	74 16		 je	 SHORT $LN3@vector
  0004a	8b 0f		 mov	 ecx, DWORD PTR [edi]
  0004c	8d 0c 49	 lea	 ecx, DWORD PTR [ecx+ecx*2]
  0004f	8d 0c 8d 04 00
	00 00		 lea	 ecx, DWORD PTR [ecx*4+4]
  00056	51		 push	 ecx
  00057	57		 push	 edi
  00058	e8 00 00 00 00	 call	 ??_V@YAXPAXI@Z		; operator delete[]
  0005d	83 c4 08	 add	 esp, 8
$LN3@vector:
  00060	8b c7		 mov	 eax, edi
  00062	8b 4d f4	 mov	 ecx, DWORD PTR __$EHRec$[ebp]
  00065	64 89 0d 00 00
	00 00		 mov	 DWORD PTR fs:0, ecx
  0006c	59		 pop	 ecx
  0006d	5f		 pop	 edi
  0006e	5e		 pop	 esi
  0006f	5b		 pop	 ebx
  00070	8b e5		 mov	 esp, ebp
  00072	5d		 pop	 ebp
  00073	c2 04 00	 ret	 4
$LN2@vector:

; 1680 :     ::SysFreeString(m_str);

  00076	ff 36		 push	 DWORD PTR [esi]
  00078	ff 15 00 00 00
	00		 call	 DWORD PTR __imp__SysFreeString@4
  0007e	85 db		 test	 ebx, ebx
  00080	74 0b		 je	 SHORT $LN4@vector
  00082	6a 0c		 push	 12			; 0000000cH
  00084	56		 push	 esi
  00085	e8 00 00 00 00	 call	 ??3@YAXPAXI@Z		; operator delete
  0008a	83 c4 08	 add	 esp, 8
$LN4@vector:
  0008d	8b c6		 mov	 eax, esi
  0008f	8b 4d f4	 mov	 ecx, DWORD PTR __$EHRec$[ebp]
  00092	64 89 0d 00 00
	00 00		 mov	 DWORD PTR fs:0, ecx
  00099	59		 pop	 ecx
  0009a	5f		 pop	 edi
  0009b	5e		 pop	 esi
  0009c	5b		 pop	 ebx
  0009d	8b e5		 mov	 esp, ebp
  0009f	5d		 pop	 ebp
  000a0	c2 04 00	 ret	 4
  000a3	cc		 int	 3
  000a4	cc		 int	 3
  000a5	cc		 int	 3
  000a6	cc		 int	 3
  000a7	cc		 int	 3
_TEXT	ENDS
;	COMDAT text$x
text$x	SEGMENT
__ehhandler$??_Estringdispid@CComTypeInfoHolder@ATL@@QAEPAXI@Z:
  00000	90		 npad	 1
  00001	90		 npad	 1
  00002	8b 54 24 08	 mov	 edx, DWORD PTR [esp+8]
  00006	8d 42 0c	 lea	 eax, DWORD PTR [edx+12]
  00009	8b 4a f0	 mov	 ecx, DWORD PTR [edx-16]
  0000c	33 c8		 xor	 ecx, eax
  0000e	e8 00 00 00 00	 call	 @__security_check_cookie@4
  00013	b8 00 00 00 00	 mov	 eax, OFFSET __ehfuncinfo$??_Estringdispid@CComTypeInfoHolder@ATL@@QAEPAXI@Z
  00018	e9 00 00 00 00	 jmp	 ___CxxFrameHandler3
text$x	ENDS
??_Estringdispid@CComTypeInfoHolder@ATL@@QAEPAXI@Z ENDP	; ATL::CComTypeInfoHolder::stringdispid::`vector deleting destructor'
; Function compile flags: /Ogtp
; File C:\Program Files (x86)\Microsoft Visual Studio\2019\Community\VC\Tools\MSVC\14.29.30133\atlmfc\include\atlcomcli.h
;	COMDAT ??1stringdispid@CComTypeInfoHolder@ATL@@QAE@XZ
_TEXT	SEGMENT
??1stringdispid@CComTypeInfoHolder@ATL@@QAE@XZ PROC	; ATL::CComTypeInfoHolder::stringdispid::~stringdispid, COMDAT
; _this$ = ecx

; 1680 :     ::SysFreeString(m_str);

  00000	ff 31		 push	 DWORD PTR [ecx]
  00002	ff 15 00 00 00
	00		 call	 DWORD PTR __imp__SysFreeString@4
  00008	c3		 ret	 0
??1stringdispid@CComTypeInfoHolder@ATL@@QAE@XZ ENDP	; ATL::CComTypeInfoHolder::stringdispid::~stringdispid
_TEXT	ENDS
; Function compile flags: /Ogtp
; File C:\Program Files (x86)\Microsoft Visual Studio\2019\Community\VC\Tools\MSVC\14.29.30133\atlmfc\include\afx.inl
;	COMDAT ??_GCMiniTickBarCFG@@UAEPAXI@Z
_TEXT	SEGMENT
__$EHRec$ = -12						; size = 12
___flags$ = 8						; size = 4
??_GCMiniTickBarCFG@@UAEPAXI@Z PROC			; CMiniTickBarCFG::`scalar deleting destructor', COMDAT
; _this$ = ecx
  00000	55		 push	 ebp
  00001	8b ec		 mov	 ebp, esp
  00003	6a ff		 push	 -1
  00005	68 00 00 00 00	 push	 __ehhandler$??_GCMiniTickBarCFG@@UAEPAXI@Z
  0000a	64 a1 00 00 00
	00		 mov	 eax, DWORD PTR fs:0
  00010	50		 push	 eax
  00011	56		 push	 esi
  00012	a1 00 00 00 00	 mov	 eax, DWORD PTR ___security_cookie
  00017	33 c5		 xor	 eax, ebp
  00019	50		 push	 eax
  0001a	8d 45 f4	 lea	 eax, DWORD PTR __$EHRec$[ebp]
  0001d	64 a3 00 00 00
	00		 mov	 DWORD PTR fs:0, eax
  00023	8b f1		 mov	 esi, ecx
  00025	ff 35 00 00 00
	00		 push	 DWORD PTR __imp_??1?$CStringT@DV?$StrTraitMFC_DLL@DV?$ChTraitsCRT@D@ATL@@@@@ATL@@QAE@XZ
  0002b	8d 86 a8 00 00
	00		 lea	 eax, DWORD PTR [esi+168]
  00031	c7 45 fc 00 00
	00 00		 mov	 DWORD PTR __$EHRec$[ebp+8], 0
  00038	6a 09		 push	 9
  0003a	6a 04		 push	 4
  0003c	50		 push	 eax
  0003d	e8 00 00 00 00	 call	 ??_M@YGXPAXIIP6EX0@Z@Z
  00042	8b ce		 mov	 ecx, esi
  00044	e8 00 00 00 00	 call	 ??1CDialog@@UAE@XZ	; CDialog::~CDialog
  00049	8b 45 08	 mov	 eax, DWORD PTR ___flags$[ebp]
  0004c	a8 01		 test	 al, 1
  0004e	74 2f		 je	 SHORT $LN12@scalar
  00050	a8 04		 test	 al, 4
  00052	75 1d		 jne	 SHORT $LN3@scalar

; 112  : 	{ ::operator delete(p); }

  00054	56		 push	 esi
  00055	e8 00 00 00 00	 call	 ??3@YAXPAX@Z		; operator delete
  0005a	83 c4 04	 add	 esp, 4
  0005d	8b c6		 mov	 eax, esi
  0005f	8b 4d f4	 mov	 ecx, DWORD PTR __$EHRec$[ebp]
  00062	64 89 0d 00 00
	00 00		 mov	 DWORD PTR fs:0, ecx
  00069	59		 pop	 ecx
  0006a	5e		 pop	 esi
  0006b	8b e5		 mov	 esp, ebp
  0006d	5d		 pop	 ebp
  0006e	c2 04 00	 ret	 4
$LN3@scalar:
  00071	68 60 01 00 00	 push	 352			; 00000160H
  00076	56		 push	 esi
  00077	e8 00 00 00 00	 call	 ?__global_delete@@YAXPAXI@Z ; __global_delete
  0007c	83 c4 08	 add	 esp, 8
$LN12@scalar:
  0007f	8b c6		 mov	 eax, esi
  00081	8b 4d f4	 mov	 ecx, DWORD PTR __$EHRec$[ebp]
  00084	64 89 0d 00 00
	00 00		 mov	 DWORD PTR fs:0, ecx
  0008b	59		 pop	 ecx
  0008c	5e		 pop	 esi
  0008d	8b e5		 mov	 esp, ebp
  0008f	5d		 pop	 ebp
  00090	c2 04 00	 ret	 4
  00093	cc		 int	 3
  00094	cc		 int	 3
  00095	cc		 int	 3
  00096	cc		 int	 3
  00097	cc		 int	 3
_TEXT	ENDS
;	COMDAT text$x
text$x	SEGMENT
__ehhandler$??_GCMiniTickBarCFG@@UAEPAXI@Z:
  00000	90		 npad	 1
  00001	90		 npad	 1
  00002	8b 54 24 08	 mov	 edx, DWORD PTR [esp+8]
  00006	8d 42 0c	 lea	 eax, DWORD PTR [edx+12]
  00009	8b 4a f8	 mov	 ecx, DWORD PTR [edx-8]
  0000c	33 c8		 xor	 ecx, eax
  0000e	e8 00 00 00 00	 call	 @__security_check_cookie@4
  00013	b8 00 00 00 00	 mov	 eax, OFFSET __ehfuncinfo$??_GCMiniTickBarCFG@@UAEPAXI@Z
  00018	e9 00 00 00 00	 jmp	 ___CxxFrameHandler3
text$x	ENDS
??_GCMiniTickBarCFG@@UAEPAXI@Z ENDP			; CMiniTickBarCFG::`scalar deleting destructor'
; Function compile flags: /Ogtp
; File D:\git\src\IBK\IBK_DRFN\ProjSrc\SrcDrfn\Chart\MULTICHART\MiniTickBarCFG.cpp
;	COMDAT ?GetMessageMap@CMiniTickBarCFG@@MBEPBUAFX_MSGMAP@@XZ
_TEXT	SEGMENT
?GetMessageMap@CMiniTickBarCFG@@MBEPBUAFX_MSGMAP@@XZ PROC ; CMiniTickBarCFG::GetMessageMap, COMDAT
; _this$ = ecx

; 93   : BEGIN_MESSAGE_MAP(CMiniTickBarCFG, CDialog)

  00000	b8 00 00 00 00	 mov	 eax, OFFSET ?messageMap@?1??GetThisMessageMap@CMiniTickBarCFG@@KGPBUAFX_MSGMAP@@XZ@4U3@B
  00005	c3		 ret	 0
?GetMessageMap@CMiniTickBarCFG@@MBEPBUAFX_MSGMAP@@XZ ENDP ; CMiniTickBarCFG::GetMessageMap
_TEXT	ENDS
; Function compile flags: /Ogtp
; File D:\git\src\IBK\IBK_DRFN\ProjSrc\SrcDrfn\Chart\MULTICHART\MiniTickBarCFG.cpp
;	COMDAT ?GetThisMessageMap@CMiniTickBarCFG@@KGPBUAFX_MSGMAP@@XZ
_TEXT	SEGMENT
?GetThisMessageMap@CMiniTickBarCFG@@KGPBUAFX_MSGMAP@@XZ PROC ; CMiniTickBarCFG::GetThisMessageMap, COMDAT

; 94   : 	//{{AFX_MSG_MAP(CMiniTickBarCFG)
; 95   : 	//}}AFX_MSG_MAP
; 96   : 	ON_CONTROL_RANGE(CBN_SELCHANGE, IDC_CMB_MARKET_1, IDC_CMB_MARKET_9, OnSelchangeCmbMarket)
; 97   : 	ON_CONTROL_RANGE(CBN_SELCHANGE, IDC_CMB_DATE_1, IDC_CMB_DATE_9, OnSelchangeCmbDate)
; 98   : 	ON_CONTROL_RANGE(EN_KILLFOCUS, IDC_EDIT_TICK_1, IDC_EDIT_TICK_9, OnEditTick)
; 99   : 	ON_CONTROL_RANGE(CBN_SELCHANGE, IDC_CMB_ALLDAY_1, IDC_CMB_ALLDAY_9, OnSelchangeCmbAllday)
; 100  : 	ON_NOTIFY_RANGE(UDN_DELTAPOS, IDC_SPIN_TICK_1, IDC_SPIN_TICK_9, OnDeltaposSpinTick)
; 101  : END_MESSAGE_MAP()

  00000	b8 00 00 00 00	 mov	 eax, OFFSET ?messageMap@?1??GetThisMessageMap@CMiniTickBarCFG@@KGPBUAFX_MSGMAP@@XZ@4U3@B
  00005	c3		 ret	 0
?GetThisMessageMap@CMiniTickBarCFG@@KGPBUAFX_MSGMAP@@XZ ENDP ; CMiniTickBarCFG::GetThisMessageMap
_TEXT	ENDS
; Function compile flags: /Ogtp
; File D:\git\src\IBK\IBK_DRFN\ProjSrc\SrcDrfn\Chart\MULTICHART\MiniTickBarCFG.cpp
;	COMDAT ?OnDeltaposSpinTick@CMiniTickBarCFG@@IAEXIPAUtagNMHDR@@PAJ@Z
_TEXT	SEGMENT
_nID$ = 8						; size = 4
_pNMHDR$ = 12						; size = 4
_pResult$ = 16						; size = 4
?OnDeltaposSpinTick@CMiniTickBarCFG@@IAEXIPAUtagNMHDR@@PAJ@Z PROC ; CMiniTickBarCFG::OnDeltaposSpinTick, COMDAT
; _this$ = ecx

; 210  : {

  00000	55		 push	 ebp
  00001	8b ec		 mov	 ebp, esp
  00003	56		 push	 esi
  00004	57		 push	 edi

; 211  : 	NM_UPDOWN* pNMUpDown = (NM_UPDOWN*)pNMHDR;
; 212  : 
; 213  : 	UpdateData();

  00005	6a 01		 push	 1
  00007	8b f9		 mov	 edi, ecx
  00009	e8 00 00 00 00	 call	 ?UpdateData@CWnd@@QAEHH@Z ; CWnd::UpdateData

; 214  : 
; 215  : 	int nIndex = nID - IDC_SPIN_TICK_1;
; 216  : 	int nDelta = pNMUpDown->iDelta * -1;
; 217  : 
; 218  : 	m_nTick[nIndex] += nDelta;

  0000e	8b 45 08	 mov	 eax, DWORD PTR _nID$[ebp]
  00011	8b b4 87 2c 9e
	ff ff		 mov	 esi, DWORD PTR [edi+eax*4-25044]
  00018	8d 14 87	 lea	 edx, DWORD PTR [edi+eax*4]
  0001b	8b 45 0c	 mov	 eax, DWORD PTR _pNMHDR$[ebp]
  0001e	2b 70 10	 sub	 esi, DWORD PTR [eax+16]
  00021	89 b2 2c 9e ff
	ff		 mov	 DWORD PTR [edx-25044], esi

; 219  : 
; 220  : 	if(m_nTick[nIndex] <= 0)

  00027	75 0c		 jne	 SHORT $LN2@OnDeltapos

; 221  : 		m_nTick[nIndex] = 1;

  00029	c7 82 2c 9e ff
	ff 01 00 00 00	 mov	 DWORD PTR [edx-25044], 1
  00033	eb 0f		 jmp	 SHORT $LN4@OnDeltapos
$LN2@OnDeltapos:

; 222  : 	else if(m_nTick[nIndex] > 120)

  00035	83 fe 78	 cmp	 esi, 120		; 00000078H
  00038	76 0a		 jbe	 SHORT $LN4@OnDeltapos

; 223  : 		m_nTick[nIndex] = 120;

  0003a	c7 82 2c 9e ff
	ff 78 00 00 00	 mov	 DWORD PTR [edx-25044], 120 ; 00000078H
$LN4@OnDeltapos:

; 224  : 
; 225  : 	UpdateData(FALSE);

  00044	6a 00		 push	 0
  00046	8b cf		 mov	 ecx, edi
  00048	e8 00 00 00 00	 call	 ?UpdateData@CWnd@@QAEHH@Z ; CWnd::UpdateData

; 226  : 	
; 227  : 	*pResult = 0;

  0004d	8b 45 10	 mov	 eax, DWORD PTR _pResult$[ebp]
  00050	5f		 pop	 edi
  00051	5e		 pop	 esi
  00052	c7 00 00 00 00
	00		 mov	 DWORD PTR [eax], 0

; 228  : }

  00058	5d		 pop	 ebp
  00059	c2 0c 00	 ret	 12			; 0000000cH
?OnDeltaposSpinTick@CMiniTickBarCFG@@IAEXIPAUtagNMHDR@@PAJ@Z ENDP ; CMiniTickBarCFG::OnDeltaposSpinTick
_TEXT	ENDS
; Function compile flags: /Ogtp
; File D:\git\src\IBK\IBK_DRFN\ProjSrc\SrcDrfn\Chart\MULTICHART\MiniTickBarCFG.cpp
;	COMDAT ?OnSelchangeCmbAllday@CMiniTickBarCFG@@IAEXI@Z
_TEXT	SEGMENT
_nID$ = 8						; size = 4
?OnSelchangeCmbAllday@CMiniTickBarCFG@@IAEXI@Z PROC	; CMiniTickBarCFG::OnSelchangeCmbAllday, COMDAT
; _this$ = ecx

; 200  : {

  00000	55		 push	 ebp
  00001	8b ec		 mov	 ebp, esp
  00003	56		 push	 esi

; 201  : 	UpdateData();

  00004	6a 01		 push	 1
  00006	8b f1		 mov	 esi, ecx
  00008	e8 00 00 00 00	 call	 ?UpdateData@CWnd@@QAEHH@Z ; CWnd::UpdateData

; 202  : 
; 203  : 	int nIndex = nID - IDC_CMB_ALLDAY_1;

  0000d	8b 45 08	 mov	 eax, DWORD PTR _nID$[ebp]

; 204  : 	m_pTickButton->SetAllDay(nIndex, m_bAllDay[nIndex]);

  00010	8b 8e 5c 01 00
	00		 mov	 ecx, DWORD PTR [esi+348]
  00016	05 6f e7 ff ff	 add	 eax, -6289		; ffffe76fH
  0001b	ff b4 86 38 01
	00 00		 push	 DWORD PTR [esi+eax*4+312]
  00022	50		 push	 eax
  00023	e8 00 00 00 00	 call	 ?SetAllDay@CSetTickButton@@QAEXHH@Z ; CSetTickButton::SetAllDay

; 205  : 
; 206  : 	UpdateData(FALSE);

  00028	6a 00		 push	 0
  0002a	8b ce		 mov	 ecx, esi
  0002c	e8 00 00 00 00	 call	 ?UpdateData@CWnd@@QAEHH@Z ; CWnd::UpdateData
  00031	5e		 pop	 esi

; 207  : }

  00032	5d		 pop	 ebp
  00033	c2 04 00	 ret	 4
?OnSelchangeCmbAllday@CMiniTickBarCFG@@IAEXI@Z ENDP	; CMiniTickBarCFG::OnSelchangeCmbAllday
_TEXT	ENDS
; Function compile flags: /Ogtp
; File D:\git\src\IBK\IBK_DRFN\ProjSrc\SrcDrfn\Chart\MULTICHART\MiniTickBarCFG.cpp
;	COMDAT ?OnEditTick@CMiniTickBarCFG@@IAEXI@Z
_TEXT	SEGMENT
__$EHRec$ = -12						; size = 12
$T2 = 8							; size = 4
_nID$ = 8						; size = 4
?OnEditTick@CMiniTickBarCFG@@IAEXI@Z PROC		; CMiniTickBarCFG::OnEditTick, COMDAT
; _this$ = ecx

; 182  : {

  00000	55		 push	 ebp
  00001	8b ec		 mov	 ebp, esp
  00003	6a ff		 push	 -1
  00005	68 00 00 00 00	 push	 __ehhandler$?OnEditTick@CMiniTickBarCFG@@IAEXI@Z
  0000a	64 a1 00 00 00
	00		 mov	 eax, DWORD PTR fs:0
  00010	50		 push	 eax
  00011	56		 push	 esi
  00012	57		 push	 edi
  00013	a1 00 00 00 00	 mov	 eax, DWORD PTR ___security_cookie
  00018	33 c5		 xor	 eax, ebp
  0001a	50		 push	 eax
  0001b	8d 45 f4	 lea	 eax, DWORD PTR __$EHRec$[ebp]
  0001e	64 a3 00 00 00
	00		 mov	 DWORD PTR fs:0, eax
  00024	8b f1		 mov	 esi, ecx

; 183  : 	UpdateData();

  00026	6a 01		 push	 1
  00028	e8 00 00 00 00	 call	 ?UpdateData@CWnd@@QAEHH@Z ; CWnd::UpdateData

; 184  : 
; 185  : 	int nIndex = nID - IDC_EDIT_TICK_1;

  0002d	8b 7d 08	 mov	 edi, DWORD PTR _nID$[ebp]
  00030	81 c7 78 e7 ff
	ff		 add	 edi, -6280		; ffffe778H

; 186  : 
; 187  : 	if(m_nTick[nIndex] <= 0)

  00036	8b 84 be 14 01
	00 00		 mov	 eax, DWORD PTR [esi+edi*4+276]
  0003d	85 c0		 test	 eax, eax
  0003f	75 07		 jne	 SHORT $LN2@OnEditTick

; 188  : 		m_nTick[nIndex] = 1;

  00041	b8 01 00 00 00	 mov	 eax, 1
  00046	eb 0c		 jmp	 SHORT $LN8@OnEditTick
$LN2@OnEditTick:

; 189  : 	else if(m_nTick[nIndex] > 360) // KHD : 360으로 변경

  00048	3d 68 01 00 00	 cmp	 eax, 360		; 00000168H
  0004d	76 0c		 jbe	 SHORT $LN4@OnEditTick

; 190  : 		m_nTick[nIndex] = 360;

  0004f	b8 68 01 00 00	 mov	 eax, 360		; 00000168H
$LN8@OnEditTick:

; 191  : 
; 192  : 	m_pTickButton->SetTick(nIndex, m_nTick[nIndex]);

  00054	89 84 be 14 01
	00 00		 mov	 DWORD PTR [esi+edi*4+276], eax
$LN4@OnEditTick:
  0005b	8b 8e 5c 01 00
	00		 mov	 ecx, DWORD PTR [esi+348]
  00061	50		 push	 eax
  00062	57		 push	 edi
  00063	e8 00 00 00 00	 call	 ?SetTick@CSetTickButton@@QAEXHH@Z ; CSetTickButton::SetTick

; 193  : 
; 194  : 	m_strBtn[nIndex] = m_pTickButton->MakeTickButtonTitle(nIndex);

  00068	8b 8e 5c 01 00
	00		 mov	 ecx, DWORD PTR [esi+348]
  0006e	8d 45 08	 lea	 eax, DWORD PTR $T2[ebp]
  00071	57		 push	 edi
  00072	50		 push	 eax
  00073	e8 00 00 00 00	 call	 ?MakeTickButtonTitle@CSetTickButton@@QAE?AV?$CStringT@DV?$StrTraitMFC_DLL@DV?$ChTraitsCRT@D@ATL@@@@@ATL@@H@Z ; CSetTickButton::MakeTickButtonTitle
  00078	83 c7 2a	 add	 edi, 42			; 0000002aH
  0007b	c7 45 fc 00 00
	00 00		 mov	 DWORD PTR __$EHRec$[ebp+8], 0
  00082	50		 push	 eax
  00083	8d 0c be	 lea	 ecx, DWORD PTR [esi+edi*4]
  00086	ff 15 00 00 00
	00		 call	 DWORD PTR __imp_??4?$CStringT@DV?$StrTraitMFC_DLL@DV?$ChTraitsCRT@D@ATL@@@@@ATL@@QAEAAV01@ABV01@@Z
  0008c	8d 4d 08	 lea	 ecx, DWORD PTR $T2[ebp]
  0008f	c7 45 fc ff ff
	ff ff		 mov	 DWORD PTR __$EHRec$[ebp+8], -1
  00096	ff 15 00 00 00
	00		 call	 DWORD PTR __imp_??1?$CStringT@DV?$StrTraitMFC_DLL@DV?$ChTraitsCRT@D@ATL@@@@@ATL@@QAE@XZ

; 195  : 
; 196  : 	UpdateData(FALSE);

  0009c	6a 00		 push	 0
  0009e	8b ce		 mov	 ecx, esi
  000a0	e8 00 00 00 00	 call	 ?UpdateData@CWnd@@QAEHH@Z ; CWnd::UpdateData

; 197  : }

  000a5	8b 4d f4	 mov	 ecx, DWORD PTR __$EHRec$[ebp]
  000a8	64 89 0d 00 00
	00 00		 mov	 DWORD PTR fs:0, ecx
  000af	59		 pop	 ecx
  000b0	5f		 pop	 edi
  000b1	5e		 pop	 esi
  000b2	8b e5		 mov	 esp, ebp
  000b4	5d		 pop	 ebp
  000b5	c2 04 00	 ret	 4
_TEXT	ENDS
;	COMDAT text$x
text$x	SEGMENT
__unwindfunclet$?OnEditTick@CMiniTickBarCFG@@IAEXI@Z$0:
  00000	8d 4d 08	 lea	 ecx, DWORD PTR $T2[ebp]
  00003	ff 25 00 00 00
	00		 jmp	 DWORD PTR __imp_??1?$CStringT@DV?$StrTraitMFC_DLL@DV?$ChTraitsCRT@D@ATL@@@@@ATL@@QAE@XZ
  00009	cc		 int	 3
  0000a	cc		 int	 3
  0000b	cc		 int	 3
  0000c	cc		 int	 3
  0000d	cc		 int	 3
__ehhandler$?OnEditTick@CMiniTickBarCFG@@IAEXI@Z:
  0000e	90		 npad	 1
  0000f	90		 npad	 1
  00010	8b 54 24 08	 mov	 edx, DWORD PTR [esp+8]
  00014	8d 42 0c	 lea	 eax, DWORD PTR [edx+12]
  00017	8b 4a f4	 mov	 ecx, DWORD PTR [edx-12]
  0001a	33 c8		 xor	 ecx, eax
  0001c	e8 00 00 00 00	 call	 @__security_check_cookie@4
  00021	b8 00 00 00 00	 mov	 eax, OFFSET __ehfuncinfo$?OnEditTick@CMiniTickBarCFG@@IAEXI@Z
  00026	e9 00 00 00 00	 jmp	 ___CxxFrameHandler3
text$x	ENDS
?OnEditTick@CMiniTickBarCFG@@IAEXI@Z ENDP		; CMiniTickBarCFG::OnEditTick
; Function compile flags: /Ogtp
; File D:\git\src\IBK\IBK_DRFN\ProjSrc\SrcDrfn\Chart\MULTICHART\MiniTickBarCFG.cpp
;	COMDAT ?OnSelchangeCmbDate@CMiniTickBarCFG@@IAEXI@Z
_TEXT	SEGMENT
__$EHRec$ = -12						; size = 12
$T2 = 8							; size = 4
_nID$ = 8						; size = 4
?OnSelchangeCmbDate@CMiniTickBarCFG@@IAEXI@Z PROC	; CMiniTickBarCFG::OnSelchangeCmbDate, COMDAT
; _this$ = ecx

; 154  : {

  00000	55		 push	 ebp
  00001	8b ec		 mov	 ebp, esp
  00003	6a ff		 push	 -1
  00005	68 00 00 00 00	 push	 __ehhandler$?OnSelchangeCmbDate@CMiniTickBarCFG@@IAEXI@Z
  0000a	64 a1 00 00 00
	00		 mov	 eax, DWORD PTR fs:0
  00010	50		 push	 eax
  00011	53		 push	 ebx
  00012	56		 push	 esi
  00013	57		 push	 edi
  00014	a1 00 00 00 00	 mov	 eax, DWORD PTR ___security_cookie
  00019	33 c5		 xor	 eax, ebp
  0001b	50		 push	 eax
  0001c	8d 45 f4	 lea	 eax, DWORD PTR __$EHRec$[ebp]
  0001f	64 a3 00 00 00
	00		 mov	 DWORD PTR fs:0, eax
  00025	8b f9		 mov	 edi, ecx

; 155  : 	UpdateData();

  00027	6a 01		 push	 1
  00029	e8 00 00 00 00	 call	 ?UpdateData@CWnd@@QAEHH@Z ; CWnd::UpdateData

; 156  : 
; 157  : 	int nIndex = nID - IDC_CMB_DATE_1;

  0002e	8b 5d 08	 mov	 ebx, DWORD PTR _nID$[ebp]

; 158  : 	m_pTickButton->SetDateIndex(nIndex, m_nDate[nIndex]);

  00031	8b 8f 5c 01 00
	00		 mov	 ecx, DWORD PTR [edi+348]
  00037	81 c3 81 e7 ff
	ff		 add	 ebx, -6271		; ffffe781H
  0003d	ff b4 9f f0 00
	00 00		 push	 DWORD PTR [edi+ebx*4+240]
  00044	53		 push	 ebx
  00045	e8 00 00 00 00	 call	 ?SetDateIndex@CSetTickButton@@QAEXHH@Z ; CSetTickButton::SetDateIndex

; 159  : 
; 160  : 	m_strBtn[nIndex] = m_pTickButton->MakeTickButtonTitle(nIndex);

  0004a	8b 8f 5c 01 00
	00		 mov	 ecx, DWORD PTR [edi+348]
  00050	8d 45 08	 lea	 eax, DWORD PTR $T2[ebp]
  00053	53		 push	 ebx
  00054	50		 push	 eax
  00055	e8 00 00 00 00	 call	 ?MakeTickButtonTitle@CSetTickButton@@QAE?AV?$CStringT@DV?$StrTraitMFC_DLL@DV?$ChTraitsCRT@D@ATL@@@@@ATL@@H@Z ; CSetTickButton::MakeTickButtonTitle
  0005a	8d 4b 2a	 lea	 ecx, DWORD PTR [ebx+42]
  0005d	c7 45 fc 00 00
	00 00		 mov	 DWORD PTR __$EHRec$[ebp+8], 0
  00064	50		 push	 eax
  00065	8d 0c 8f	 lea	 ecx, DWORD PTR [edi+ecx*4]
  00068	ff 15 00 00 00
	00		 call	 DWORD PTR __imp_??4?$CStringT@DV?$StrTraitMFC_DLL@DV?$ChTraitsCRT@D@ATL@@@@@ATL@@QAEAAV01@ABV01@@Z
  0006e	8d 4d 08	 lea	 ecx, DWORD PTR $T2[ebp]
  00071	c7 45 fc ff ff
	ff ff		 mov	 DWORD PTR __$EHRec$[ebp+8], -1
  00078	ff 15 00 00 00
	00		 call	 DWORD PTR __imp_??1?$CStringT@DV?$StrTraitMFC_DLL@DV?$ChTraitsCRT@D@ATL@@@@@ATL@@QAE@XZ

; 161  : 
; 162  : 	UpdateData(FALSE);

  0007e	6a 00		 push	 0
  00080	8b cf		 mov	 ecx, edi
  00082	e8 00 00 00 00	 call	 ?UpdateData@CWnd@@QAEHH@Z ; CWnd::UpdateData

; 163  : 
; 164  : 	int nShow = m_nDate[nIndex] <= 1 ? SW_SHOW : SW_HIDE;

  00087	33 f6		 xor	 esi, esi
  00089	b8 05 00 00 00	 mov	 eax, 5
  0008e	83 bc 9f f0 00
	00 00 01	 cmp	 DWORD PTR [edi+ebx*4+240], 1

; 165  : 	GetDlgItem(IDC_EDIT_TICK_1 + nIndex)->ShowWindow(nShow);

  00096	8b cf		 mov	 ecx, edi
  00098	0f 4e f0	 cmovle	 esi, eax
  0009b	8d 83 88 18 00
	00		 lea	 eax, DWORD PTR [ebx+6280]
  000a1	56		 push	 esi
  000a2	50		 push	 eax
  000a3	e8 00 00 00 00	 call	 ?GetDlgItem@CWnd@@QBEPAV1@H@Z ; CWnd::GetDlgItem
  000a8	8b c8		 mov	 ecx, eax
  000aa	e8 00 00 00 00	 call	 ?ShowWindow@CWnd@@QAEHH@Z ; CWnd::ShowWindow

; 166  : 	GetDlgItem(IDC_CMB_ALLDAY_1 + nIndex)->ShowWindow(nShow);

  000af	56		 push	 esi
  000b0	8d 83 91 18 00
	00		 lea	 eax, DWORD PTR [ebx+6289]
  000b6	8b cf		 mov	 ecx, edi
  000b8	50		 push	 eax
  000b9	e8 00 00 00 00	 call	 ?GetDlgItem@CWnd@@QBEPAV1@H@Z ; CWnd::GetDlgItem
  000be	8b c8		 mov	 ecx, eax
  000c0	e8 00 00 00 00	 call	 ?ShowWindow@CWnd@@QAEHH@Z ; CWnd::ShowWindow

; 167  : 	GetDlgItem(IDC_SPIN_TICK_1 + nIndex)->ShowWindow(nShow);

  000c5	56		 push	 esi
  000c6	8d 83 ba 18 00
	00		 lea	 eax, DWORD PTR [ebx+6330]
  000cc	8b cf		 mov	 ecx, edi
  000ce	50		 push	 eax
  000cf	e8 00 00 00 00	 call	 ?GetDlgItem@CWnd@@QBEPAV1@H@Z ; CWnd::GetDlgItem
  000d4	8b c8		 mov	 ecx, eax
  000d6	e8 00 00 00 00	 call	 ?ShowWindow@CWnd@@QAEHH@Z ; CWnd::ShowWindow

; 168  : 
; 169  : 	if(m_nDate[nIndex] > 1)

  000db	83 bc 9f f0 00
	00 00 01	 cmp	 DWORD PTR [edi+ebx*4+240], 1
  000e3	8b 8f 5c 01 00
	00		 mov	 ecx, DWORD PTR [edi+348]
  000e9	7e 0f		 jle	 SHORT $LN2@OnSelchang

; 170  : 	{
; 171  : 		m_pTickButton->SetTick(nIndex, 1);

  000eb	6a 01		 push	 1
  000ed	53		 push	 ebx
  000ee	e8 00 00 00 00	 call	 ?SetTick@CSetTickButton@@QAEXHH@Z ; CSetTickButton::SetTick

; 172  : 		m_pTickButton->SetAllDay(nIndex, TRUE);

  000f3	b8 01 00 00 00	 mov	 eax, 1

; 173  : 	}

  000f8	eb 14		 jmp	 SHORT $LN3@OnSelchang
$LN2@OnSelchang:

; 174  : 	else
; 175  : 	{
; 176  : 		m_pTickButton->SetTick(nIndex, m_nTick[nIndex]);

  000fa	ff b4 9f 14 01
	00 00		 push	 DWORD PTR [edi+ebx*4+276]
  00101	53		 push	 ebx
  00102	e8 00 00 00 00	 call	 ?SetTick@CSetTickButton@@QAEXHH@Z ; CSetTickButton::SetTick

; 177  : 		m_pTickButton->SetAllDay(nIndex, m_bAllDay[nIndex]);

  00107	8b 84 9f 38 01
	00 00		 mov	 eax, DWORD PTR [edi+ebx*4+312]
$LN3@OnSelchang:

; 178  : 	}
; 179  : }

  0010e	8b 8f 5c 01 00
	00		 mov	 ecx, DWORD PTR [edi+348]
  00114	50		 push	 eax
  00115	53		 push	 ebx
  00116	e8 00 00 00 00	 call	 ?SetAllDay@CSetTickButton@@QAEXHH@Z ; CSetTickButton::SetAllDay
  0011b	8b 4d f4	 mov	 ecx, DWORD PTR __$EHRec$[ebp]
  0011e	64 89 0d 00 00
	00 00		 mov	 DWORD PTR fs:0, ecx
  00125	59		 pop	 ecx
  00126	5f		 pop	 edi
  00127	5e		 pop	 esi
  00128	5b		 pop	 ebx
  00129	8b e5		 mov	 esp, ebp
  0012b	5d		 pop	 ebp
  0012c	c2 04 00	 ret	 4
_TEXT	ENDS
;	COMDAT text$x
text$x	SEGMENT
__unwindfunclet$?OnSelchangeCmbDate@CMiniTickBarCFG@@IAEXI@Z$0:
  00000	8d 4d 08	 lea	 ecx, DWORD PTR $T2[ebp]
  00003	ff 25 00 00 00
	00		 jmp	 DWORD PTR __imp_??1?$CStringT@DV?$StrTraitMFC_DLL@DV?$ChTraitsCRT@D@ATL@@@@@ATL@@QAE@XZ
  00009	cc		 int	 3
  0000a	cc		 int	 3
  0000b	cc		 int	 3
  0000c	cc		 int	 3
  0000d	cc		 int	 3
__ehhandler$?OnSelchangeCmbDate@CMiniTickBarCFG@@IAEXI@Z:
  0000e	90		 npad	 1
  0000f	90		 npad	 1
  00010	8b 54 24 08	 mov	 edx, DWORD PTR [esp+8]
  00014	8d 42 0c	 lea	 eax, DWORD PTR [edx+12]
  00017	8b 4a f0	 mov	 ecx, DWORD PTR [edx-16]
  0001a	33 c8		 xor	 ecx, eax
  0001c	e8 00 00 00 00	 call	 @__security_check_cookie@4
  00021	b8 00 00 00 00	 mov	 eax, OFFSET __ehfuncinfo$?OnSelchangeCmbDate@CMiniTickBarCFG@@IAEXI@Z
  00026	e9 00 00 00 00	 jmp	 ___CxxFrameHandler3
text$x	ENDS
?OnSelchangeCmbDate@CMiniTickBarCFG@@IAEXI@Z ENDP	; CMiniTickBarCFG::OnSelchangeCmbDate
; Function compile flags: /Ogtp
; File D:\git\src\IBK\IBK_DRFN\ProjSrc\SrcDrfn\Chart\MULTICHART\MiniTickBarCFG.cpp
;	COMDAT ?OnSelchangeCmbMarket@CMiniTickBarCFG@@IAEXI@Z
_TEXT	SEGMENT
__$EHRec$ = -12						; size = 12
$T2 = 8							; size = 4
_nID$ = 8						; size = 4
?OnSelchangeCmbMarket@CMiniTickBarCFG@@IAEXI@Z PROC	; CMiniTickBarCFG::OnSelchangeCmbMarket, COMDAT
; _this$ = ecx

; 142  : {

  00000	55		 push	 ebp
  00001	8b ec		 mov	 ebp, esp
  00003	6a ff		 push	 -1
  00005	68 00 00 00 00	 push	 __ehhandler$?OnSelchangeCmbMarket@CMiniTickBarCFG@@IAEXI@Z
  0000a	64 a1 00 00 00
	00		 mov	 eax, DWORD PTR fs:0
  00010	50		 push	 eax
  00011	56		 push	 esi
  00012	57		 push	 edi
  00013	a1 00 00 00 00	 mov	 eax, DWORD PTR ___security_cookie
  00018	33 c5		 xor	 eax, ebp
  0001a	50		 push	 eax
  0001b	8d 45 f4	 lea	 eax, DWORD PTR __$EHRec$[ebp]
  0001e	64 a3 00 00 00
	00		 mov	 DWORD PTR fs:0, eax
  00024	8b f9		 mov	 edi, ecx

; 143  : 	UpdateData();

  00026	6a 01		 push	 1
  00028	e8 00 00 00 00	 call	 ?UpdateData@CWnd@@QAEHH@Z ; CWnd::UpdateData

; 144  : 
; 145  : 	int nIndex = nID - IDC_CMB_MARKET_1;

  0002d	8b 75 08	 mov	 esi, DWORD PTR _nID$[ebp]

; 146  : 	m_pTickButton->SetMarket(nIndex, m_nMarket[nIndex]);

  00030	8b 8f 5c 01 00
	00		 mov	 ecx, DWORD PTR [edi+348]
  00036	81 c6 8a e7 ff
	ff		 add	 esi, -6262		; ffffe78aH
  0003c	ff b4 b7 cc 00
	00 00		 push	 DWORD PTR [edi+esi*4+204]
  00043	56		 push	 esi
  00044	e8 00 00 00 00	 call	 ?SetMarket@CSetTickButton@@QAEXHH@Z ; CSetTickButton::SetMarket

; 147  : 
; 148  : 	m_strBtn[nIndex] = m_pTickButton->MakeTickButtonTitle(nIndex);

  00049	8b 8f 5c 01 00
	00		 mov	 ecx, DWORD PTR [edi+348]
  0004f	8d 45 08	 lea	 eax, DWORD PTR $T2[ebp]
  00052	56		 push	 esi
  00053	50		 push	 eax
  00054	e8 00 00 00 00	 call	 ?MakeTickButtonTitle@CSetTickButton@@QAE?AV?$CStringT@DV?$StrTraitMFC_DLL@DV?$ChTraitsCRT@D@ATL@@@@@ATL@@H@Z ; CSetTickButton::MakeTickButtonTitle
  00059	83 c6 2a	 add	 esi, 42			; 0000002aH
  0005c	c7 45 fc 00 00
	00 00		 mov	 DWORD PTR __$EHRec$[ebp+8], 0
  00063	50		 push	 eax
  00064	8d 0c b7	 lea	 ecx, DWORD PTR [edi+esi*4]
  00067	ff 15 00 00 00
	00		 call	 DWORD PTR __imp_??4?$CStringT@DV?$StrTraitMFC_DLL@DV?$ChTraitsCRT@D@ATL@@@@@ATL@@QAEAAV01@ABV01@@Z
  0006d	8d 4d 08	 lea	 ecx, DWORD PTR $T2[ebp]
  00070	c7 45 fc ff ff
	ff ff		 mov	 DWORD PTR __$EHRec$[ebp+8], -1
  00077	ff 15 00 00 00
	00		 call	 DWORD PTR __imp_??1?$CStringT@DV?$StrTraitMFC_DLL@DV?$ChTraitsCRT@D@ATL@@@@@ATL@@QAE@XZ

; 149  : 
; 150  : 	UpdateData(FALSE);

  0007d	6a 00		 push	 0
  0007f	8b cf		 mov	 ecx, edi
  00081	e8 00 00 00 00	 call	 ?UpdateData@CWnd@@QAEHH@Z ; CWnd::UpdateData

; 151  : }

  00086	8b 4d f4	 mov	 ecx, DWORD PTR __$EHRec$[ebp]
  00089	64 89 0d 00 00
	00 00		 mov	 DWORD PTR fs:0, ecx
  00090	59		 pop	 ecx
  00091	5f		 pop	 edi
  00092	5e		 pop	 esi
  00093	8b e5		 mov	 esp, ebp
  00095	5d		 pop	 ebp
  00096	c2 04 00	 ret	 4
_TEXT	ENDS
;	COMDAT text$x
text$x	SEGMENT
__unwindfunclet$?OnSelchangeCmbMarket@CMiniTickBarCFG@@IAEXI@Z$0:
  00000	8d 4d 08	 lea	 ecx, DWORD PTR $T2[ebp]
  00003	ff 25 00 00 00
	00		 jmp	 DWORD PTR __imp_??1?$CStringT@DV?$StrTraitMFC_DLL@DV?$ChTraitsCRT@D@ATL@@@@@ATL@@QAE@XZ
  00009	cc		 int	 3
  0000a	cc		 int	 3
  0000b	cc		 int	 3
  0000c	cc		 int	 3
  0000d	cc		 int	 3
__ehhandler$?OnSelchangeCmbMarket@CMiniTickBarCFG@@IAEXI@Z:
  0000e	90		 npad	 1
  0000f	90		 npad	 1
  00010	8b 54 24 08	 mov	 edx, DWORD PTR [esp+8]
  00014	8d 42 0c	 lea	 eax, DWORD PTR [edx+12]
  00017	8b 4a f4	 mov	 ecx, DWORD PTR [edx-12]
  0001a	33 c8		 xor	 ecx, eax
  0001c	e8 00 00 00 00	 call	 @__security_check_cookie@4
  00021	b8 00 00 00 00	 mov	 eax, OFFSET __ehfuncinfo$?OnSelchangeCmbMarket@CMiniTickBarCFG@@IAEXI@Z
  00026	e9 00 00 00 00	 jmp	 ___CxxFrameHandler3
text$x	ENDS
?OnSelchangeCmbMarket@CMiniTickBarCFG@@IAEXI@Z ENDP	; CMiniTickBarCFG::OnSelchangeCmbMarket
; Function compile flags: /Ogtp
; File D:\git\src\IBK\IBK_DRFN\ProjSrc\SrcDrfn\Chart\MULTICHART\MiniTickBarCFG.cpp
;	COMDAT ?OnInitDialog@CMiniTickBarCFG@@MAEHXZ
_TEXT	SEGMENT
$T2 = -20						; size = 4
tv472 = -16						; size = 4
__$EHRec$ = -12						; size = 12
?OnInitDialog@CMiniTickBarCFG@@MAEHXZ PROC		; CMiniTickBarCFG::OnInitDialog, COMDAT
; _this$ = ecx

; 107  : {

  00000	55		 push	 ebp
  00001	8b ec		 mov	 ebp, esp
  00003	6a ff		 push	 -1
  00005	68 00 00 00 00	 push	 __ehhandler$?OnInitDialog@CMiniTickBarCFG@@MAEHXZ
  0000a	64 a1 00 00 00
	00		 mov	 eax, DWORD PTR fs:0
  00010	50		 push	 eax
  00011	83 ec 08	 sub	 esp, 8
  00014	53		 push	 ebx
  00015	56		 push	 esi
  00016	57		 push	 edi
  00017	a1 00 00 00 00	 mov	 eax, DWORD PTR ___security_cookie
  0001c	33 c5		 xor	 eax, ebp
  0001e	50		 push	 eax
  0001f	8d 45 f4	 lea	 eax, DWORD PTR __$EHRec$[ebp]
  00022	64 a3 00 00 00
	00		 mov	 DWORD PTR fs:0, eax
  00028	8b d9		 mov	 ebx, ecx

; 108  : 	CDialog::OnInitDialog();

  0002a	e8 00 00 00 00	 call	 ?OnInitDialog@CDialog@@UAEHXZ ; CDialog::OnInitDialog

; 120  : 	if(!m_pTickButton)

  0002f	83 bb 5c 01 00
	00 00		 cmp	 DWORD PTR [ebx+348], 0
  00036	0f 84 d8 00 00
	00		 je	 $LN5@OnInitDial

; 121  : 		return;
; 122  : 
; 123  : 	for(int i = 0; i < 9; i++)

  0003c	8d bb cc 00 00
	00		 lea	 edi, DWORD PTR [ebx+204]
  00042	33 f6		 xor	 esi, esi
  00044	89 7d f0	 mov	 DWORD PTR tv472[ebp], edi
  00047	66 0f 1f 84 00
	00 00 00 00	 npad	 9
$LL6@OnInitDial:

; 124  : 	{
; 125  : 		m_strBtn[i] = m_pTickButton->GetTitle(i);

  00050	8b 8b 5c 01 00
	00		 mov	 ecx, DWORD PTR [ebx+348]
  00056	8d 45 ec	 lea	 eax, DWORD PTR $T2[ebp]
  00059	56		 push	 esi
  0005a	50		 push	 eax
  0005b	e8 00 00 00 00	 call	 ?GetTitle@CSetTickButton@@QAE?AV?$CStringT@DV?$StrTraitMFC_DLL@DV?$ChTraitsCRT@D@ATL@@@@@ATL@@H@Z ; CSetTickButton::GetTitle
  00060	50		 push	 eax
  00061	8d 4f dc	 lea	 ecx, DWORD PTR [edi-36]
  00064	c7 45 fc 00 00
	00 00		 mov	 DWORD PTR __$EHRec$[ebp+8], 0
  0006b	ff 15 00 00 00
	00		 call	 DWORD PTR __imp_??4?$CStringT@DV?$StrTraitMFC_DLL@DV?$ChTraitsCRT@D@ATL@@@@@ATL@@QAEAAV01@ABV01@@Z
  00071	8d 4d ec	 lea	 ecx, DWORD PTR $T2[ebp]
  00074	c7 45 fc ff ff
	ff ff		 mov	 DWORD PTR __$EHRec$[ebp+8], -1
  0007b	ff 15 00 00 00
	00		 call	 DWORD PTR __imp_??1?$CStringT@DV?$StrTraitMFC_DLL@DV?$ChTraitsCRT@D@ATL@@@@@ATL@@QAE@XZ

; 126  : 		m_nMarket[i] = m_pTickButton->GetMarket(i);

  00081	8b 8b 5c 01 00
	00		 mov	 ecx, DWORD PTR [ebx+348]
  00087	56		 push	 esi
  00088	e8 00 00 00 00	 call	 ?GetMarket@CSetTickButton@@QAEHH@Z ; CSetTickButton::GetMarket
  0008d	89 07		 mov	 DWORD PTR [edi], eax

; 127  : 		m_nDate[i] = m_pTickButton->GetDateIndex(i);

  0008f	8b 8b 5c 01 00
	00		 mov	 ecx, DWORD PTR [ebx+348]
  00095	56		 push	 esi
  00096	e8 00 00 00 00	 call	 ?GetDateIndex@CSetTickButton@@QAEHH@Z ; CSetTickButton::GetDateIndex
  0009b	89 47 24	 mov	 DWORD PTR [edi+36], eax

; 128  : 		m_nTick[i] = m_pTickButton->GetTick(i);

  0009e	8b 8b 5c 01 00
	00		 mov	 ecx, DWORD PTR [ebx+348]
  000a4	56		 push	 esi
  000a5	e8 00 00 00 00	 call	 ?GetTick@CSetTickButton@@QAEHH@Z ; CSetTickButton::GetTick
  000aa	89 47 48	 mov	 DWORD PTR [edi+72], eax

; 129  : 		m_bAllDay[i] = m_pTickButton->GetAllDay(i);

  000ad	8b 8b 5c 01 00
	00		 mov	 ecx, DWORD PTR [ebx+348]
  000b3	56		 push	 esi
  000b4	e8 00 00 00 00	 call	 ?GetAllDay@CSetTickButton@@QAEHH@Z ; CSetTickButton::GetAllDay

; 130  : 
; 131  : 		if(m_nDate[i] > 1)

  000b9	83 7f 24 01	 cmp	 DWORD PTR [edi+36], 1
  000bd	89 47 6c	 mov	 DWORD PTR [edi+108], eax
  000c0	7e 42		 jle	 SHORT $LN4@OnInitDial

; 132  : 		{
; 133  : 			GetDlgItem(IDC_EDIT_TICK_1 + i)->ShowWindow(SW_HIDE);

  000c2	8d be 91 18 00
	00		 lea	 edi, DWORD PTR [esi+6289]
  000c8	8b cb		 mov	 ecx, ebx
  000ca	6a 00		 push	 0
  000cc	8d 47 f7	 lea	 eax, DWORD PTR [edi-9]
  000cf	50		 push	 eax
  000d0	e8 00 00 00 00	 call	 ?GetDlgItem@CWnd@@QBEPAV1@H@Z ; CWnd::GetDlgItem
  000d5	8b c8		 mov	 ecx, eax
  000d7	e8 00 00 00 00	 call	 ?ShowWindow@CWnd@@QAEHH@Z ; CWnd::ShowWindow

; 134  : 			GetDlgItem(IDC_CMB_ALLDAY_1 + i)->ShowWindow(SW_HIDE);

  000dc	6a 00		 push	 0
  000de	57		 push	 edi
  000df	8b cb		 mov	 ecx, ebx
  000e1	e8 00 00 00 00	 call	 ?GetDlgItem@CWnd@@QBEPAV1@H@Z ; CWnd::GetDlgItem
  000e6	8b c8		 mov	 ecx, eax
  000e8	e8 00 00 00 00	 call	 ?ShowWindow@CWnd@@QAEHH@Z ; CWnd::ShowWindow

; 135  : 			GetDlgItem(IDC_SPIN_TICK_1 + i)->ShowWindow(SW_HIDE);

  000ed	6a 00		 push	 0
  000ef	8d 47 29	 lea	 eax, DWORD PTR [edi+41]
  000f2	8b cb		 mov	 ecx, ebx
  000f4	50		 push	 eax
  000f5	e8 00 00 00 00	 call	 ?GetDlgItem@CWnd@@QBEPAV1@H@Z ; CWnd::GetDlgItem
  000fa	8b c8		 mov	 ecx, eax
  000fc	e8 00 00 00 00	 call	 ?ShowWindow@CWnd@@QAEHH@Z ; CWnd::ShowWindow
  00101	8b 7d f0	 mov	 edi, DWORD PTR tv472[ebp]
$LN4@OnInitDial:

; 121  : 		return;
; 122  : 
; 123  : 	for(int i = 0; i < 9; i++)

  00104	46		 inc	 esi
  00105	83 c7 04	 add	 edi, 4
  00108	89 7d f0	 mov	 DWORD PTR tv472[ebp], edi
  0010b	83 fe 09	 cmp	 esi, 9
  0010e	0f 8c 3c ff ff
	ff		 jl	 $LL6@OnInitDial
$LN5@OnInitDial:

; 109  : 	
; 110  : 	SetTickButtonConfig();
; 111  : 	
; 112  : 	UpdateData(FALSE);

  00114	6a 00		 push	 0
  00116	8b cb		 mov	 ecx, ebx
  00118	e8 00 00 00 00	 call	 ?UpdateData@CWnd@@QAEHH@Z ; CWnd::UpdateData

; 113  : 
; 114  : 	return TRUE;  // return TRUE unless you set the focus to a control

  0011d	b8 01 00 00 00	 mov	 eax, 1

; 115  : 	              // EXCEPTION: OCX Property Pages should return FALSE
; 116  : }

  00122	8b 4d f4	 mov	 ecx, DWORD PTR __$EHRec$[ebp]
  00125	64 89 0d 00 00
	00 00		 mov	 DWORD PTR fs:0, ecx
  0012c	59		 pop	 ecx
  0012d	5f		 pop	 edi
  0012e	5e		 pop	 esi
  0012f	5b		 pop	 ebx
  00130	8b e5		 mov	 esp, ebp
  00132	5d		 pop	 ebp
  00133	c3		 ret	 0
_TEXT	ENDS
;	COMDAT text$x
text$x	SEGMENT
__unwindfunclet$?OnInitDialog@CMiniTickBarCFG@@MAEHXZ$0:
  00000	8d 4d ec	 lea	 ecx, DWORD PTR $T2[ebp]
  00003	ff 25 00 00 00
	00		 jmp	 DWORD PTR __imp_??1?$CStringT@DV?$StrTraitMFC_DLL@DV?$ChTraitsCRT@D@ATL@@@@@ATL@@QAE@XZ
  00009	cc		 int	 3
  0000a	cc		 int	 3
  0000b	cc		 int	 3
  0000c	cc		 int	 3
  0000d	cc		 int	 3
__ehhandler$?OnInitDialog@CMiniTickBarCFG@@MAEHXZ:
  0000e	90		 npad	 1
  0000f	90		 npad	 1
  00010	8b 54 24 08	 mov	 edx, DWORD PTR [esp+8]
  00014	8d 42 0c	 lea	 eax, DWORD PTR [edx+12]
  00017	8b 4a e8	 mov	 ecx, DWORD PTR [edx-24]
  0001a	33 c8		 xor	 ecx, eax
  0001c	e8 00 00 00 00	 call	 @__security_check_cookie@4
  00021	b8 00 00 00 00	 mov	 eax, OFFSET __ehfuncinfo$?OnInitDialog@CMiniTickBarCFG@@MAEHXZ
  00026	e9 00 00 00 00	 jmp	 ___CxxFrameHandler3
text$x	ENDS
?OnInitDialog@CMiniTickBarCFG@@MAEHXZ ENDP		; CMiniTickBarCFG::OnInitDialog
; Function compile flags: /Ogtp
; File D:\git\src\IBK\IBK_DRFN\ProjSrc\SrcDrfn\Chart\MULTICHART\MiniTickBarCFG.cpp
;	COMDAT ?DoDataExchange@CMiniTickBarCFG@@MAEXPAVCDataExchange@@@Z
_TEXT	SEGMENT
_pDX$ = 8						; size = 4
?DoDataExchange@CMiniTickBarCFG@@MAEXPAVCDataExchange@@@Z PROC ; CMiniTickBarCFG::DoDataExchange, COMDAT
; _this$ = ecx

; 37   : {

  00000	55		 push	 ebp
  00001	8b ec		 mov	 ebp, esp
  00003	56		 push	 esi

; 38   : 	CDialog::DoDataExchange(pDX);
; 39   : 	//{{AFX_DATA_MAP(CMiniTickBarCFG)
; 40   : 	//}}AFX_DATA_MAP
; 41   : 	DDX_Text(pDX, IDC_STC_BTN_1, m_strBtn[IDC_STC_BTN_1 - IDC_STC_BTN_1]);

  00004	8b 75 08	 mov	 esi, DWORD PTR _pDX$[ebp]
  00007	57		 push	 edi
  00008	8b f9		 mov	 edi, ecx
  0000a	8d 87 a8 00 00
	00		 lea	 eax, DWORD PTR [edi+168]
  00010	50		 push	 eax
  00011	68 9c 18 00 00	 push	 6300			; 0000189cH
  00016	56		 push	 esi
  00017	e8 00 00 00 00	 call	 ?DDX_Text@@YGXPAVCDataExchange@@HAAV?$CStringT@DV?$StrTraitMFC_DLL@DV?$ChTraitsCRT@D@ATL@@@@@ATL@@@Z ; DDX_Text

; 42   : 	DDX_Text(pDX, IDC_STC_BTN_2, m_strBtn[IDC_STC_BTN_2 - IDC_STC_BTN_1]);

  0001c	8d 87 ac 00 00
	00		 lea	 eax, DWORD PTR [edi+172]
  00022	50		 push	 eax
  00023	68 9d 18 00 00	 push	 6301			; 0000189dH
  00028	56		 push	 esi
  00029	e8 00 00 00 00	 call	 ?DDX_Text@@YGXPAVCDataExchange@@HAAV?$CStringT@DV?$StrTraitMFC_DLL@DV?$ChTraitsCRT@D@ATL@@@@@ATL@@@Z ; DDX_Text

; 43   : 	DDX_Text(pDX, IDC_STC_BTN_3, m_strBtn[IDC_STC_BTN_3 - IDC_STC_BTN_1]);

  0002e	8d 87 b0 00 00
	00		 lea	 eax, DWORD PTR [edi+176]
  00034	50		 push	 eax
  00035	68 9e 18 00 00	 push	 6302			; 0000189eH
  0003a	56		 push	 esi
  0003b	e8 00 00 00 00	 call	 ?DDX_Text@@YGXPAVCDataExchange@@HAAV?$CStringT@DV?$StrTraitMFC_DLL@DV?$ChTraitsCRT@D@ATL@@@@@ATL@@@Z ; DDX_Text

; 44   : 	DDX_Text(pDX, IDC_STC_BTN_4, m_strBtn[IDC_STC_BTN_4 - IDC_STC_BTN_1]);

  00040	8d 87 b4 00 00
	00		 lea	 eax, DWORD PTR [edi+180]
  00046	50		 push	 eax
  00047	68 9f 18 00 00	 push	 6303			; 0000189fH
  0004c	56		 push	 esi
  0004d	e8 00 00 00 00	 call	 ?DDX_Text@@YGXPAVCDataExchange@@HAAV?$CStringT@DV?$StrTraitMFC_DLL@DV?$ChTraitsCRT@D@ATL@@@@@ATL@@@Z ; DDX_Text

; 45   : 	DDX_Text(pDX, IDC_STC_BTN_5, m_strBtn[IDC_STC_BTN_5 - IDC_STC_BTN_1]);

  00052	8d 87 b8 00 00
	00		 lea	 eax, DWORD PTR [edi+184]
  00058	50		 push	 eax
  00059	68 a0 18 00 00	 push	 6304			; 000018a0H
  0005e	56		 push	 esi
  0005f	e8 00 00 00 00	 call	 ?DDX_Text@@YGXPAVCDataExchange@@HAAV?$CStringT@DV?$StrTraitMFC_DLL@DV?$ChTraitsCRT@D@ATL@@@@@ATL@@@Z ; DDX_Text

; 46   : 	DDX_Text(pDX, IDC_STC_BTN_6, m_strBtn[IDC_STC_BTN_6 - IDC_STC_BTN_1]);

  00064	8d 87 bc 00 00
	00		 lea	 eax, DWORD PTR [edi+188]
  0006a	50		 push	 eax
  0006b	68 a1 18 00 00	 push	 6305			; 000018a1H
  00070	56		 push	 esi
  00071	e8 00 00 00 00	 call	 ?DDX_Text@@YGXPAVCDataExchange@@HAAV?$CStringT@DV?$StrTraitMFC_DLL@DV?$ChTraitsCRT@D@ATL@@@@@ATL@@@Z ; DDX_Text

; 47   : 	DDX_Text(pDX, IDC_STC_BTN_7, m_strBtn[IDC_STC_BTN_7 - IDC_STC_BTN_1]);

  00076	8d 87 c0 00 00
	00		 lea	 eax, DWORD PTR [edi+192]
  0007c	50		 push	 eax
  0007d	68 a2 18 00 00	 push	 6306			; 000018a2H
  00082	56		 push	 esi
  00083	e8 00 00 00 00	 call	 ?DDX_Text@@YGXPAVCDataExchange@@HAAV?$CStringT@DV?$StrTraitMFC_DLL@DV?$ChTraitsCRT@D@ATL@@@@@ATL@@@Z ; DDX_Text

; 48   : 	DDX_Text(pDX, IDC_STC_BTN_8, m_strBtn[IDC_STC_BTN_8 - IDC_STC_BTN_1]);

  00088	8d 87 c4 00 00
	00		 lea	 eax, DWORD PTR [edi+196]
  0008e	50		 push	 eax
  0008f	68 a3 18 00 00	 push	 6307			; 000018a3H
  00094	56		 push	 esi
  00095	e8 00 00 00 00	 call	 ?DDX_Text@@YGXPAVCDataExchange@@HAAV?$CStringT@DV?$StrTraitMFC_DLL@DV?$ChTraitsCRT@D@ATL@@@@@ATL@@@Z ; DDX_Text

; 49   : 	DDX_Text(pDX, IDC_STC_BTN_9, m_strBtn[IDC_STC_BTN_9 - IDC_STC_BTN_1]);

  0009a	8d 87 c8 00 00
	00		 lea	 eax, DWORD PTR [edi+200]
  000a0	50		 push	 eax
  000a1	68 a4 18 00 00	 push	 6308			; 000018a4H
  000a6	56		 push	 esi
  000a7	e8 00 00 00 00	 call	 ?DDX_Text@@YGXPAVCDataExchange@@HAAV?$CStringT@DV?$StrTraitMFC_DLL@DV?$ChTraitsCRT@D@ATL@@@@@ATL@@@Z ; DDX_Text

; 50   : 	
; 51   : 	DDX_CBIndex(pDX, IDC_CMB_MARKET_1, m_nMarket[IDC_CMB_MARKET_1 - IDC_CMB_MARKET_1]);

  000ac	8d 87 cc 00 00
	00		 lea	 eax, DWORD PTR [edi+204]
  000b2	50		 push	 eax
  000b3	68 76 18 00 00	 push	 6262			; 00001876H
  000b8	56		 push	 esi
  000b9	e8 00 00 00 00	 call	 ?DDX_CBIndex@@YGXPAVCDataExchange@@HAAH@Z ; DDX_CBIndex

; 52   : 	DDX_CBIndex(pDX, IDC_CMB_MARKET_2, m_nMarket[IDC_CMB_MARKET_2 - IDC_CMB_MARKET_1]);

  000be	8d 87 d0 00 00
	00		 lea	 eax, DWORD PTR [edi+208]
  000c4	50		 push	 eax
  000c5	68 77 18 00 00	 push	 6263			; 00001877H
  000ca	56		 push	 esi
  000cb	e8 00 00 00 00	 call	 ?DDX_CBIndex@@YGXPAVCDataExchange@@HAAH@Z ; DDX_CBIndex

; 53   : 	DDX_CBIndex(pDX, IDC_CMB_MARKET_3, m_nMarket[IDC_CMB_MARKET_3 - IDC_CMB_MARKET_1]);

  000d0	8d 87 d4 00 00
	00		 lea	 eax, DWORD PTR [edi+212]
  000d6	50		 push	 eax
  000d7	68 78 18 00 00	 push	 6264			; 00001878H
  000dc	56		 push	 esi
  000dd	e8 00 00 00 00	 call	 ?DDX_CBIndex@@YGXPAVCDataExchange@@HAAH@Z ; DDX_CBIndex

; 54   : 	DDX_CBIndex(pDX, IDC_CMB_MARKET_4, m_nMarket[IDC_CMB_MARKET_4 - IDC_CMB_MARKET_1]);

  000e2	8d 87 d8 00 00
	00		 lea	 eax, DWORD PTR [edi+216]
  000e8	50		 push	 eax
  000e9	68 79 18 00 00	 push	 6265			; 00001879H
  000ee	56		 push	 esi
  000ef	e8 00 00 00 00	 call	 ?DDX_CBIndex@@YGXPAVCDataExchange@@HAAH@Z ; DDX_CBIndex

; 55   : 	DDX_CBIndex(pDX, IDC_CMB_MARKET_5, m_nMarket[IDC_CMB_MARKET_5 - IDC_CMB_MARKET_1]);

  000f4	8d 87 dc 00 00
	00		 lea	 eax, DWORD PTR [edi+220]
  000fa	50		 push	 eax
  000fb	68 7a 18 00 00	 push	 6266			; 0000187aH
  00100	56		 push	 esi
  00101	e8 00 00 00 00	 call	 ?DDX_CBIndex@@YGXPAVCDataExchange@@HAAH@Z ; DDX_CBIndex

; 56   : 	DDX_CBIndex(pDX, IDC_CMB_MARKET_6, m_nMarket[IDC_CMB_MARKET_6 - IDC_CMB_MARKET_1]);

  00106	8d 87 e0 00 00
	00		 lea	 eax, DWORD PTR [edi+224]
  0010c	50		 push	 eax
  0010d	68 7b 18 00 00	 push	 6267			; 0000187bH
  00112	56		 push	 esi
  00113	e8 00 00 00 00	 call	 ?DDX_CBIndex@@YGXPAVCDataExchange@@HAAH@Z ; DDX_CBIndex

; 57   : 	DDX_CBIndex(pDX, IDC_CMB_MARKET_7, m_nMarket[IDC_CMB_MARKET_7 - IDC_CMB_MARKET_1]);

  00118	8d 87 e4 00 00
	00		 lea	 eax, DWORD PTR [edi+228]
  0011e	50		 push	 eax
  0011f	68 7c 18 00 00	 push	 6268			; 0000187cH
  00124	56		 push	 esi
  00125	e8 00 00 00 00	 call	 ?DDX_CBIndex@@YGXPAVCDataExchange@@HAAH@Z ; DDX_CBIndex

; 58   : 	DDX_CBIndex(pDX, IDC_CMB_MARKET_8, m_nMarket[IDC_CMB_MARKET_8 - IDC_CMB_MARKET_1]);

  0012a	8d 87 e8 00 00
	00		 lea	 eax, DWORD PTR [edi+232]
  00130	50		 push	 eax
  00131	68 7d 18 00 00	 push	 6269			; 0000187dH
  00136	56		 push	 esi
  00137	e8 00 00 00 00	 call	 ?DDX_CBIndex@@YGXPAVCDataExchange@@HAAH@Z ; DDX_CBIndex

; 59   : 	DDX_CBIndex(pDX, IDC_CMB_MARKET_9, m_nMarket[IDC_CMB_MARKET_9 - IDC_CMB_MARKET_1]);

  0013c	8d 87 ec 00 00
	00		 lea	 eax, DWORD PTR [edi+236]
  00142	50		 push	 eax
  00143	68 7e 18 00 00	 push	 6270			; 0000187eH
  00148	56		 push	 esi
  00149	e8 00 00 00 00	 call	 ?DDX_CBIndex@@YGXPAVCDataExchange@@HAAH@Z ; DDX_CBIndex

; 60   : 
; 61   : 	DDX_CBIndex(pDX, IDC_CMB_DATE_1, m_nDate[IDC_CMB_DATE_1 - IDC_CMB_DATE_1]);

  0014e	8d 87 f0 00 00
	00		 lea	 eax, DWORD PTR [edi+240]
  00154	50		 push	 eax
  00155	68 7f 18 00 00	 push	 6271			; 0000187fH
  0015a	56		 push	 esi
  0015b	e8 00 00 00 00	 call	 ?DDX_CBIndex@@YGXPAVCDataExchange@@HAAH@Z ; DDX_CBIndex

; 62   : 	DDX_CBIndex(pDX, IDC_CMB_DATE_2, m_nDate[IDC_CMB_DATE_2 - IDC_CMB_DATE_1]);

  00160	8d 87 f4 00 00
	00		 lea	 eax, DWORD PTR [edi+244]
  00166	50		 push	 eax
  00167	68 80 18 00 00	 push	 6272			; 00001880H
  0016c	56		 push	 esi
  0016d	e8 00 00 00 00	 call	 ?DDX_CBIndex@@YGXPAVCDataExchange@@HAAH@Z ; DDX_CBIndex

; 63   : 	DDX_CBIndex(pDX, IDC_CMB_DATE_3, m_nDate[IDC_CMB_DATE_3 - IDC_CMB_DATE_1]);

  00172	8d 87 f8 00 00
	00		 lea	 eax, DWORD PTR [edi+248]
  00178	50		 push	 eax
  00179	68 81 18 00 00	 push	 6273			; 00001881H
  0017e	56		 push	 esi
  0017f	e8 00 00 00 00	 call	 ?DDX_CBIndex@@YGXPAVCDataExchange@@HAAH@Z ; DDX_CBIndex

; 64   : 	DDX_CBIndex(pDX, IDC_CMB_DATE_4, m_nDate[IDC_CMB_DATE_4 - IDC_CMB_DATE_1]);

  00184	8d 87 fc 00 00
	00		 lea	 eax, DWORD PTR [edi+252]
  0018a	50		 push	 eax
  0018b	68 82 18 00 00	 push	 6274			; 00001882H
  00190	56		 push	 esi
  00191	e8 00 00 00 00	 call	 ?DDX_CBIndex@@YGXPAVCDataExchange@@HAAH@Z ; DDX_CBIndex

; 65   : 	DDX_CBIndex(pDX, IDC_CMB_DATE_5, m_nDate[IDC_CMB_DATE_5 - IDC_CMB_DATE_1]);

  00196	8d 87 00 01 00
	00		 lea	 eax, DWORD PTR [edi+256]
  0019c	50		 push	 eax
  0019d	68 83 18 00 00	 push	 6275			; 00001883H
  001a2	56		 push	 esi
  001a3	e8 00 00 00 00	 call	 ?DDX_CBIndex@@YGXPAVCDataExchange@@HAAH@Z ; DDX_CBIndex

; 66   : 	DDX_CBIndex(pDX, IDC_CMB_DATE_6, m_nDate[IDC_CMB_DATE_6 - IDC_CMB_DATE_1]);

  001a8	8d 87 04 01 00
	00		 lea	 eax, DWORD PTR [edi+260]
  001ae	50		 push	 eax
  001af	68 84 18 00 00	 push	 6276			; 00001884H
  001b4	56		 push	 esi
  001b5	e8 00 00 00 00	 call	 ?DDX_CBIndex@@YGXPAVCDataExchange@@HAAH@Z ; DDX_CBIndex

; 67   : 	DDX_CBIndex(pDX, IDC_CMB_DATE_7, m_nDate[IDC_CMB_DATE_7 - IDC_CMB_DATE_1]);

  001ba	8d 87 08 01 00
	00		 lea	 eax, DWORD PTR [edi+264]
  001c0	50		 push	 eax
  001c1	68 85 18 00 00	 push	 6277			; 00001885H
  001c6	56		 push	 esi
  001c7	e8 00 00 00 00	 call	 ?DDX_CBIndex@@YGXPAVCDataExchange@@HAAH@Z ; DDX_CBIndex

; 68   : 	DDX_CBIndex(pDX, IDC_CMB_DATE_8, m_nDate[IDC_CMB_DATE_8 - IDC_CMB_DATE_1]);

  001cc	8d 87 0c 01 00
	00		 lea	 eax, DWORD PTR [edi+268]
  001d2	50		 push	 eax
  001d3	68 86 18 00 00	 push	 6278			; 00001886H
  001d8	56		 push	 esi
  001d9	e8 00 00 00 00	 call	 ?DDX_CBIndex@@YGXPAVCDataExchange@@HAAH@Z ; DDX_CBIndex

; 69   : 	DDX_CBIndex(pDX, IDC_CMB_DATE_9, m_nDate[IDC_CMB_DATE_9 - IDC_CMB_DATE_1]);

  001de	8d 87 10 01 00
	00		 lea	 eax, DWORD PTR [edi+272]
  001e4	50		 push	 eax
  001e5	68 87 18 00 00	 push	 6279			; 00001887H
  001ea	56		 push	 esi
  001eb	e8 00 00 00 00	 call	 ?DDX_CBIndex@@YGXPAVCDataExchange@@HAAH@Z ; DDX_CBIndex

; 70   : 
; 71   : 	DDX_Text(pDX, IDC_EDIT_TICK_1, m_nTick[IDC_EDIT_TICK_1 - IDC_EDIT_TICK_1]);

  001f0	8d 87 14 01 00
	00		 lea	 eax, DWORD PTR [edi+276]
  001f6	50		 push	 eax
  001f7	68 88 18 00 00	 push	 6280			; 00001888H
  001fc	56		 push	 esi
  001fd	e8 00 00 00 00	 call	 ?DDX_Text@@YGXPAVCDataExchange@@HAAI@Z ; DDX_Text

; 72   : 	DDX_Text(pDX, IDC_EDIT_TICK_2, m_nTick[IDC_EDIT_TICK_2 - IDC_EDIT_TICK_1]);

  00202	8d 87 18 01 00
	00		 lea	 eax, DWORD PTR [edi+280]
  00208	50		 push	 eax
  00209	68 89 18 00 00	 push	 6281			; 00001889H
  0020e	56		 push	 esi
  0020f	e8 00 00 00 00	 call	 ?DDX_Text@@YGXPAVCDataExchange@@HAAI@Z ; DDX_Text

; 73   : 	DDX_Text(pDX, IDC_EDIT_TICK_3, m_nTick[IDC_EDIT_TICK_3 - IDC_EDIT_TICK_1]);

  00214	8d 87 1c 01 00
	00		 lea	 eax, DWORD PTR [edi+284]
  0021a	50		 push	 eax
  0021b	68 8a 18 00 00	 push	 6282			; 0000188aH
  00220	56		 push	 esi
  00221	e8 00 00 00 00	 call	 ?DDX_Text@@YGXPAVCDataExchange@@HAAI@Z ; DDX_Text

; 74   : 	DDX_Text(pDX, IDC_EDIT_TICK_4, m_nTick[IDC_EDIT_TICK_4 - IDC_EDIT_TICK_1]);

  00226	8d 87 20 01 00
	00		 lea	 eax, DWORD PTR [edi+288]
  0022c	50		 push	 eax
  0022d	68 8b 18 00 00	 push	 6283			; 0000188bH
  00232	56		 push	 esi
  00233	e8 00 00 00 00	 call	 ?DDX_Text@@YGXPAVCDataExchange@@HAAI@Z ; DDX_Text

; 75   : 	DDX_Text(pDX, IDC_EDIT_TICK_5, m_nTick[IDC_EDIT_TICK_5 - IDC_EDIT_TICK_1]);

  00238	8d 87 24 01 00
	00		 lea	 eax, DWORD PTR [edi+292]
  0023e	50		 push	 eax
  0023f	68 8c 18 00 00	 push	 6284			; 0000188cH
  00244	56		 push	 esi
  00245	e8 00 00 00 00	 call	 ?DDX_Text@@YGXPAVCDataExchange@@HAAI@Z ; DDX_Text

; 76   : 	DDX_Text(pDX, IDC_EDIT_TICK_6, m_nTick[IDC_EDIT_TICK_6 - IDC_EDIT_TICK_1]);

  0024a	8d 87 28 01 00
	00		 lea	 eax, DWORD PTR [edi+296]
  00250	50		 push	 eax
  00251	68 8d 18 00 00	 push	 6285			; 0000188dH
  00256	56		 push	 esi
  00257	e8 00 00 00 00	 call	 ?DDX_Text@@YGXPAVCDataExchange@@HAAI@Z ; DDX_Text

; 77   : 	DDX_Text(pDX, IDC_EDIT_TICK_7, m_nTick[IDC_EDIT_TICK_7 - IDC_EDIT_TICK_1]);

  0025c	8d 87 2c 01 00
	00		 lea	 eax, DWORD PTR [edi+300]
  00262	50		 push	 eax
  00263	68 8e 18 00 00	 push	 6286			; 0000188eH
  00268	56		 push	 esi
  00269	e8 00 00 00 00	 call	 ?DDX_Text@@YGXPAVCDataExchange@@HAAI@Z ; DDX_Text

; 78   : 	DDX_Text(pDX, IDC_EDIT_TICK_8, m_nTick[IDC_EDIT_TICK_8 - IDC_EDIT_TICK_1]);

  0026e	8d 87 30 01 00
	00		 lea	 eax, DWORD PTR [edi+304]
  00274	50		 push	 eax
  00275	68 8f 18 00 00	 push	 6287			; 0000188fH
  0027a	56		 push	 esi
  0027b	e8 00 00 00 00	 call	 ?DDX_Text@@YGXPAVCDataExchange@@HAAI@Z ; DDX_Text

; 79   : 	DDX_Text(pDX, IDC_EDIT_TICK_9, m_nTick[IDC_EDIT_TICK_9 - IDC_EDIT_TICK_1]);

  00280	8d 87 34 01 00
	00		 lea	 eax, DWORD PTR [edi+308]
  00286	50		 push	 eax
  00287	68 90 18 00 00	 push	 6288			; 00001890H
  0028c	56		 push	 esi
  0028d	e8 00 00 00 00	 call	 ?DDX_Text@@YGXPAVCDataExchange@@HAAI@Z ; DDX_Text

; 80   : 
; 81   : 	DDX_CBIndex(pDX, IDC_CMB_ALLDAY_1, m_bAllDay[IDC_CMB_ALLDAY_1 - IDC_CMB_ALLDAY_1]);

  00292	8d 87 38 01 00
	00		 lea	 eax, DWORD PTR [edi+312]
  00298	50		 push	 eax
  00299	68 91 18 00 00	 push	 6289			; 00001891H
  0029e	56		 push	 esi
  0029f	e8 00 00 00 00	 call	 ?DDX_CBIndex@@YGXPAVCDataExchange@@HAAH@Z ; DDX_CBIndex

; 82   : 	DDX_CBIndex(pDX, IDC_CMB_ALLDAY_2, m_bAllDay[IDC_CMB_ALLDAY_2 - IDC_CMB_ALLDAY_1]);

  002a4	8d 87 3c 01 00
	00		 lea	 eax, DWORD PTR [edi+316]
  002aa	50		 push	 eax
  002ab	68 92 18 00 00	 push	 6290			; 00001892H
  002b0	56		 push	 esi
  002b1	e8 00 00 00 00	 call	 ?DDX_CBIndex@@YGXPAVCDataExchange@@HAAH@Z ; DDX_CBIndex

; 83   : 	DDX_CBIndex(pDX, IDC_CMB_ALLDAY_3, m_bAllDay[IDC_CMB_ALLDAY_3 - IDC_CMB_ALLDAY_1]);

  002b6	8d 87 40 01 00
	00		 lea	 eax, DWORD PTR [edi+320]
  002bc	50		 push	 eax
  002bd	68 93 18 00 00	 push	 6291			; 00001893H
  002c2	56		 push	 esi
  002c3	e8 00 00 00 00	 call	 ?DDX_CBIndex@@YGXPAVCDataExchange@@HAAH@Z ; DDX_CBIndex

; 84   : 	DDX_CBIndex(pDX, IDC_CMB_ALLDAY_4, m_bAllDay[IDC_CMB_ALLDAY_4 - IDC_CMB_ALLDAY_1]);

  002c8	8d 87 44 01 00
	00		 lea	 eax, DWORD PTR [edi+324]
  002ce	50		 push	 eax
  002cf	68 94 18 00 00	 push	 6292			; 00001894H
  002d4	56		 push	 esi
  002d5	e8 00 00 00 00	 call	 ?DDX_CBIndex@@YGXPAVCDataExchange@@HAAH@Z ; DDX_CBIndex

; 85   : 	DDX_CBIndex(pDX, IDC_CMB_ALLDAY_5, m_bAllDay[IDC_CMB_ALLDAY_5 - IDC_CMB_ALLDAY_1]);

  002da	8d 87 48 01 00
	00		 lea	 eax, DWORD PTR [edi+328]
  002e0	50		 push	 eax
  002e1	68 95 18 00 00	 push	 6293			; 00001895H
  002e6	56		 push	 esi
  002e7	e8 00 00 00 00	 call	 ?DDX_CBIndex@@YGXPAVCDataExchange@@HAAH@Z ; DDX_CBIndex

; 86   : 	DDX_CBIndex(pDX, IDC_CMB_ALLDAY_6, m_bAllDay[IDC_CMB_ALLDAY_6 - IDC_CMB_ALLDAY_1]);

  002ec	8d 87 4c 01 00
	00		 lea	 eax, DWORD PTR [edi+332]
  002f2	50		 push	 eax
  002f3	68 96 18 00 00	 push	 6294			; 00001896H
  002f8	56		 push	 esi
  002f9	e8 00 00 00 00	 call	 ?DDX_CBIndex@@YGXPAVCDataExchange@@HAAH@Z ; DDX_CBIndex

; 87   : 	DDX_CBIndex(pDX, IDC_CMB_ALLDAY_7, m_bAllDay[IDC_CMB_ALLDAY_7 - IDC_CMB_ALLDAY_1]);

  002fe	8d 87 50 01 00
	00		 lea	 eax, DWORD PTR [edi+336]
  00304	50		 push	 eax
  00305	68 97 18 00 00	 push	 6295			; 00001897H
  0030a	56		 push	 esi
  0030b	e8 00 00 00 00	 call	 ?DDX_CBIndex@@YGXPAVCDataExchange@@HAAH@Z ; DDX_CBIndex

; 88   : 	DDX_CBIndex(pDX, IDC_CMB_ALLDAY_8, m_bAllDay[IDC_CMB_ALLDAY_8 - IDC_CMB_ALLDAY_1]);

  00310	8d 87 54 01 00
	00		 lea	 eax, DWORD PTR [edi+340]
  00316	50		 push	 eax
  00317	68 98 18 00 00	 push	 6296			; 00001898H
  0031c	56		 push	 esi
  0031d	e8 00 00 00 00	 call	 ?DDX_CBIndex@@YGXPAVCDataExchange@@HAAH@Z ; DDX_CBIndex

; 89   : 	DDX_CBIndex(pDX, IDC_CMB_ALLDAY_9, m_bAllDay[IDC_CMB_ALLDAY_9 - IDC_CMB_ALLDAY_1]);

  00322	8d 87 58 01 00
	00		 lea	 eax, DWORD PTR [edi+344]
  00328	50		 push	 eax
  00329	68 99 18 00 00	 push	 6297			; 00001899H
  0032e	56		 push	 esi
  0032f	e8 00 00 00 00	 call	 ?DDX_CBIndex@@YGXPAVCDataExchange@@HAAH@Z ; DDX_CBIndex
  00334	5f		 pop	 edi
  00335	5e		 pop	 esi

; 90   : }

  00336	5d		 pop	 ebp
  00337	c2 04 00	 ret	 4
?DoDataExchange@CMiniTickBarCFG@@MAEXPAVCDataExchange@@@Z ENDP ; CMiniTickBarCFG::DoDataExchange
_TEXT	ENDS
; Function compile flags: /Ogtp
; File D:\git\src\IBK\IBK_DRFN\ProjSrc\SrcDrfn\Chart\MULTICHART\MiniTickBarCFG.cpp
;	COMDAT ?SetTickButtonConfig@CMiniTickBarCFG@@QAEXXZ
_TEXT	SEGMENT
$T2 = -20						; size = 4
_this$1$ = -16						; size = 4
__$EHRec$ = -12						; size = 12
?SetTickButtonConfig@CMiniTickBarCFG@@QAEXXZ PROC	; CMiniTickBarCFG::SetTickButtonConfig, COMDAT
; _this$ = ecx

; 119  : {

  00000	55		 push	 ebp
  00001	8b ec		 mov	 ebp, esp
  00003	6a ff		 push	 -1
  00005	68 00 00 00 00	 push	 __ehhandler$?SetTickButtonConfig@CMiniTickBarCFG@@QAEXXZ
  0000a	64 a1 00 00 00
	00		 mov	 eax, DWORD PTR fs:0
  00010	50		 push	 eax
  00011	83 ec 08	 sub	 esp, 8
  00014	53		 push	 ebx
  00015	56		 push	 esi
  00016	57		 push	 edi
  00017	a1 00 00 00 00	 mov	 eax, DWORD PTR ___security_cookie
  0001c	33 c5		 xor	 eax, ebp
  0001e	50		 push	 eax
  0001f	8d 45 f4	 lea	 eax, DWORD PTR __$EHRec$[ebp]
  00022	64 a3 00 00 00
	00		 mov	 DWORD PTR fs:0, eax
  00028	8b f9		 mov	 edi, ecx
  0002a	89 7d f0	 mov	 DWORD PTR _this$1$[ebp], edi

; 120  : 	if(!m_pTickButton)

  0002d	83 bf 5c 01 00
	00 00		 cmp	 DWORD PTR [edi+348], 0
  00034	0f 84 cb 00 00
	00		 je	 $LN3@SetTickBut

; 121  : 		return;
; 122  : 
; 123  : 	for(int i = 0; i < 9; i++)

  0003a	33 f6		 xor	 esi, esi
  0003c	8d 9f cc 00 00
	00		 lea	 ebx, DWORD PTR [edi+204]
$LL4@SetTickBut:

; 124  : 	{
; 125  : 		m_strBtn[i] = m_pTickButton->GetTitle(i);

  00042	8b 8f 5c 01 00
	00		 mov	 ecx, DWORD PTR [edi+348]
  00048	8d 45 ec	 lea	 eax, DWORD PTR $T2[ebp]
  0004b	56		 push	 esi
  0004c	50		 push	 eax
  0004d	e8 00 00 00 00	 call	 ?GetTitle@CSetTickButton@@QAE?AV?$CStringT@DV?$StrTraitMFC_DLL@DV?$ChTraitsCRT@D@ATL@@@@@ATL@@H@Z ; CSetTickButton::GetTitle
  00052	50		 push	 eax
  00053	8d 4b dc	 lea	 ecx, DWORD PTR [ebx-36]
  00056	c7 45 fc 00 00
	00 00		 mov	 DWORD PTR __$EHRec$[ebp+8], 0
  0005d	ff 15 00 00 00
	00		 call	 DWORD PTR __imp_??4?$CStringT@DV?$StrTraitMFC_DLL@DV?$ChTraitsCRT@D@ATL@@@@@ATL@@QAEAAV01@ABV01@@Z
  00063	8d 4d ec	 lea	 ecx, DWORD PTR $T2[ebp]
  00066	c7 45 fc ff ff
	ff ff		 mov	 DWORD PTR __$EHRec$[ebp+8], -1
  0006d	ff 15 00 00 00
	00		 call	 DWORD PTR __imp_??1?$CStringT@DV?$StrTraitMFC_DLL@DV?$ChTraitsCRT@D@ATL@@@@@ATL@@QAE@XZ

; 126  : 		m_nMarket[i] = m_pTickButton->GetMarket(i);

  00073	8b 8f 5c 01 00
	00		 mov	 ecx, DWORD PTR [edi+348]
  00079	56		 push	 esi
  0007a	e8 00 00 00 00	 call	 ?GetMarket@CSetTickButton@@QAEHH@Z ; CSetTickButton::GetMarket
  0007f	89 03		 mov	 DWORD PTR [ebx], eax

; 127  : 		m_nDate[i] = m_pTickButton->GetDateIndex(i);

  00081	8b 8f 5c 01 00
	00		 mov	 ecx, DWORD PTR [edi+348]
  00087	56		 push	 esi
  00088	e8 00 00 00 00	 call	 ?GetDateIndex@CSetTickButton@@QAEHH@Z ; CSetTickButton::GetDateIndex
  0008d	89 43 24	 mov	 DWORD PTR [ebx+36], eax

; 128  : 		m_nTick[i] = m_pTickButton->GetTick(i);

  00090	8b 8f 5c 01 00
	00		 mov	 ecx, DWORD PTR [edi+348]
  00096	56		 push	 esi
  00097	e8 00 00 00 00	 call	 ?GetTick@CSetTickButton@@QAEHH@Z ; CSetTickButton::GetTick
  0009c	89 43 48	 mov	 DWORD PTR [ebx+72], eax

; 129  : 		m_bAllDay[i] = m_pTickButton->GetAllDay(i);

  0009f	8b 8f 5c 01 00
	00		 mov	 ecx, DWORD PTR [edi+348]
  000a5	56		 push	 esi
  000a6	e8 00 00 00 00	 call	 ?GetAllDay@CSetTickButton@@QAEHH@Z ; CSetTickButton::GetAllDay

; 130  : 
; 131  : 		if(m_nDate[i] > 1)

  000ab	83 7b 24 01	 cmp	 DWORD PTR [ebx+36], 1
  000af	89 43 6c	 mov	 DWORD PTR [ebx+108], eax
  000b2	7e 44		 jle	 SHORT $LN2@SetTickBut

; 132  : 		{
; 133  : 			GetDlgItem(IDC_EDIT_TICK_1 + i)->ShowWindow(SW_HIDE);

  000b4	8b 4d f0	 mov	 ecx, DWORD PTR _this$1$[ebp]
  000b7	8d be 91 18 00
	00		 lea	 edi, DWORD PTR [esi+6289]
  000bd	6a 00		 push	 0
  000bf	8d 47 f7	 lea	 eax, DWORD PTR [edi-9]
  000c2	50		 push	 eax
  000c3	e8 00 00 00 00	 call	 ?GetDlgItem@CWnd@@QBEPAV1@H@Z ; CWnd::GetDlgItem
  000c8	8b c8		 mov	 ecx, eax
  000ca	e8 00 00 00 00	 call	 ?ShowWindow@CWnd@@QAEHH@Z ; CWnd::ShowWindow

; 134  : 			GetDlgItem(IDC_CMB_ALLDAY_1 + i)->ShowWindow(SW_HIDE);

  000cf	8b 4d f0	 mov	 ecx, DWORD PTR _this$1$[ebp]
  000d2	6a 00		 push	 0
  000d4	57		 push	 edi
  000d5	e8 00 00 00 00	 call	 ?GetDlgItem@CWnd@@QBEPAV1@H@Z ; CWnd::GetDlgItem
  000da	8b c8		 mov	 ecx, eax
  000dc	e8 00 00 00 00	 call	 ?ShowWindow@CWnd@@QAEHH@Z ; CWnd::ShowWindow

; 135  : 			GetDlgItem(IDC_SPIN_TICK_1 + i)->ShowWindow(SW_HIDE);

  000e1	8d 47 29	 lea	 eax, DWORD PTR [edi+41]
  000e4	8b 7d f0	 mov	 edi, DWORD PTR _this$1$[ebp]
  000e7	6a 00		 push	 0
  000e9	50		 push	 eax
  000ea	8b cf		 mov	 ecx, edi
  000ec	e8 00 00 00 00	 call	 ?GetDlgItem@CWnd@@QBEPAV1@H@Z ; CWnd::GetDlgItem
  000f1	8b c8		 mov	 ecx, eax
  000f3	e8 00 00 00 00	 call	 ?ShowWindow@CWnd@@QAEHH@Z ; CWnd::ShowWindow
$LN2@SetTickBut:

; 121  : 		return;
; 122  : 
; 123  : 	for(int i = 0; i < 9; i++)

  000f8	46		 inc	 esi
  000f9	83 c3 04	 add	 ebx, 4
  000fc	83 fe 09	 cmp	 esi, 9
  000ff	0f 8c 3d ff ff
	ff		 jl	 $LL4@SetTickBut
$LN3@SetTickBut:

; 136  : 		}
; 137  : 	}
; 138  : }

  00105	8b 4d f4	 mov	 ecx, DWORD PTR __$EHRec$[ebp]
  00108	64 89 0d 00 00
	00 00		 mov	 DWORD PTR fs:0, ecx
  0010f	59		 pop	 ecx
  00110	5f		 pop	 edi
  00111	5e		 pop	 esi
  00112	5b		 pop	 ebx
  00113	8b e5		 mov	 esp, ebp
  00115	5d		 pop	 ebp
  00116	c3		 ret	 0
_TEXT	ENDS
;	COMDAT text$x
text$x	SEGMENT
__unwindfunclet$?SetTickButtonConfig@CMiniTickBarCFG@@QAEXXZ$0:
  00000	8d 4d ec	 lea	 ecx, DWORD PTR $T2[ebp]
  00003	ff 25 00 00 00
	00		 jmp	 DWORD PTR __imp_??1?$CStringT@DV?$StrTraitMFC_DLL@DV?$ChTraitsCRT@D@ATL@@@@@ATL@@QAE@XZ
  00009	cc		 int	 3
  0000a	cc		 int	 3
  0000b	cc		 int	 3
  0000c	cc		 int	 3
  0000d	cc		 int	 3
__ehhandler$?SetTickButtonConfig@CMiniTickBarCFG@@QAEXXZ:
  0000e	90		 npad	 1
  0000f	90		 npad	 1
  00010	8b 54 24 08	 mov	 edx, DWORD PTR [esp+8]
  00014	8d 42 0c	 lea	 eax, DWORD PTR [edx+12]
  00017	8b 4a e8	 mov	 ecx, DWORD PTR [edx-24]
  0001a	33 c8		 xor	 ecx, eax
  0001c	e8 00 00 00 00	 call	 @__security_check_cookie@4
  00021	b8 00 00 00 00	 mov	 eax, OFFSET __ehfuncinfo$?SetTickButtonConfig@CMiniTickBarCFG@@QAEXXZ
  00026	e9 00 00 00 00	 jmp	 ___CxxFrameHandler3
text$x	ENDS
?SetTickButtonConfig@CMiniTickBarCFG@@QAEXXZ ENDP	; CMiniTickBarCFG::SetTickButtonConfig
; Function compile flags: /Ogtp
; File D:\git\src\IBK\IBK_DRFN\ProjSrc\SrcDrfn\Chart\MULTICHART\MiniTickBarCFG.cpp
;	COMDAT ??0CMiniTickBarCFG@@QAE@PAVCSetTickButton@@PAVCWnd@@@Z
_TEXT	SEGMENT
_this$ = -16						; size = 4
__$EHRec$ = -12						; size = 12
_pTickButton$ = 8					; size = 4
_pParent$ = 12						; size = 4
??0CMiniTickBarCFG@@QAE@PAVCSetTickButton@@PAVCWnd@@@Z PROC ; CMiniTickBarCFG::CMiniTickBarCFG, COMDAT
; _this$ = ecx

; 22   : {

  00000	55		 push	 ebp
  00001	8b ec		 mov	 ebp, esp
  00003	6a ff		 push	 -1
  00005	68 00 00 00 00	 push	 __ehhandler$??0CMiniTickBarCFG@@QAE@PAVCSetTickButton@@PAVCWnd@@@Z
  0000a	64 a1 00 00 00
	00		 mov	 eax, DWORD PTR fs:0
  00010	50		 push	 eax
  00011	51		 push	 ecx
  00012	53		 push	 ebx
  00013	56		 push	 esi
  00014	57		 push	 edi
  00015	a1 00 00 00 00	 mov	 eax, DWORD PTR ___security_cookie
  0001a	33 c5		 xor	 eax, ebp
  0001c	50		 push	 eax
  0001d	8d 45 f4	 lea	 eax, DWORD PTR __$EHRec$[ebp]
  00020	64 a3 00 00 00
	00		 mov	 DWORD PTR fs:0, eax
  00026	8b d9		 mov	 ebx, ecx
  00028	89 5d f0	 mov	 DWORD PTR _this$[ebp], ebx

; 20   : 	: CDialog(CMiniTickBarCFG::IDD, pParent),

  0002b	ff 75 0c	 push	 DWORD PTR _pParent$[ebp]
  0002e	68 e9 2e 00 00	 push	 12009			; 00002ee9H
  00033	e8 00 00 00 00	 call	 ??0CDialog@@QAE@IPAVCWnd@@@Z ; CDialog::CDialog

; 22   : {

  00038	ff 35 00 00 00
	00		 push	 DWORD PTR __imp_??1?$CStringT@DV?$StrTraitMFC_DLL@DV?$ChTraitsCRT@D@ATL@@@@@ATL@@QAE@XZ
  0003e	8d 83 a8 00 00
	00		 lea	 eax, DWORD PTR [ebx+168]
  00044	c7 45 fc 00 00
	00 00		 mov	 DWORD PTR __$EHRec$[ebp+8], 0
  0004b	ff 35 00 00 00
	00		 push	 DWORD PTR __imp_??0?$CStringT@DV?$StrTraitMFC_DLL@DV?$ChTraitsCRT@D@ATL@@@@@ATL@@QAE@XZ
  00051	c7 03 00 00 00
	00		 mov	 DWORD PTR [ebx], OFFSET ??_7CMiniTickBarCFG@@6B@
  00057	6a 09		 push	 9
  00059	6a 04		 push	 4
  0005b	50		 push	 eax
  0005c	e8 00 00 00 00	 call	 ??_L@YGXPAXIIP6EX0@Z1@Z

; 21   : 	m_pTickButton(pTickButton)

  00061	8b 45 08	 mov	 eax, DWORD PTR _pTickButton$[ebp]
  00064	8d b3 cc 00 00
	00		 lea	 esi, DWORD PTR [ebx+204]
  0006a	c6 45 fc 01	 mov	 BYTE PTR __$EHRec$[ebp+8], 1
  0006e	bf 09 00 00 00	 mov	 edi, 9
  00073	89 83 5c 01 00
	00		 mov	 DWORD PTR [ebx+348], eax
  00079	0f 1f 80 00 00
	00 00		 npad	 7
$LL4@CMiniTickB:

; 23   : 	//{{AFX_DATA_INIT(CMiniTickBarCFG)
; 24   : 	//}}AFX_DATA_INIT
; 25   : 	for(int i = 0; i < 9; i++)
; 26   : 	{
; 27   : 		m_strBtn[i] = _T("");

  00080	68 00 00 00 00	 push	 OFFSET ??_C@_00CNPNBAHC@@
  00085	8d 4e dc	 lea	 ecx, DWORD PTR [esi-36]
  00088	ff 15 00 00 00
	00		 call	 DWORD PTR __imp_??4?$CStringT@DV?$StrTraitMFC_DLL@DV?$ChTraitsCRT@D@ATL@@@@@ATL@@QAEAAV01@PBD@Z

; 28   : 		m_nMarket[i] = 0;

  0008e	c7 06 00 00 00
	00		 mov	 DWORD PTR [esi], 0
  00094	8d 76 04	 lea	 esi, DWORD PTR [esi+4]

; 29   : 		m_nDate[i] = 0;

  00097	c7 46 20 00 00
	00 00		 mov	 DWORD PTR [esi+32], 0

; 30   : 		m_nTick[i] = 1;

  0009e	c7 46 44 01 00
	00 00		 mov	 DWORD PTR [esi+68], 1

; 31   : 		m_bAllDay[i] = 1;

  000a5	c7 46 68 01 00
	00 00		 mov	 DWORD PTR [esi+104], 1
  000ac	83 ef 01	 sub	 edi, 1
  000af	75 cf		 jne	 SHORT $LL4@CMiniTickB

; 32   : 	}
; 33   : }

  000b1	8b c3		 mov	 eax, ebx
  000b3	8b 4d f4	 mov	 ecx, DWORD PTR __$EHRec$[ebp]
  000b6	64 89 0d 00 00
	00 00		 mov	 DWORD PTR fs:0, ecx
  000bd	59		 pop	 ecx
  000be	5f		 pop	 edi
  000bf	5e		 pop	 esi
  000c0	5b		 pop	 ebx
  000c1	8b e5		 mov	 esp, ebp
  000c3	5d		 pop	 ebp
  000c4	c2 08 00	 ret	 8
_TEXT	ENDS
;	COMDAT text$x
text$x	SEGMENT
__unwindfunclet$??0CMiniTickBarCFG@@QAE@PAVCSetTickButton@@PAVCWnd@@@Z$0:
  00000	8b 4d f0	 mov	 ecx, DWORD PTR _this$[ebp]
  00003	e9 00 00 00 00	 jmp	 ??1CDialog@@UAE@XZ	; CDialog::~CDialog
__unwindfunclet$??0CMiniTickBarCFG@@QAE@PAVCSetTickButton@@PAVCWnd@@@Z$1:
  00008	a1 00 00 00 00	 mov	 eax, DWORD PTR __imp_??1?$CStringT@DV?$StrTraitMFC_DLL@DV?$ChTraitsCRT@D@ATL@@@@@ATL@@QAE@XZ
  0000d	50		 push	 eax
  0000e	6a 09		 push	 9
  00010	6a 04		 push	 4
  00012	8b 45 f0	 mov	 eax, DWORD PTR _this$[ebp]
  00015	05 a8 00 00 00	 add	 eax, 168		; 000000a8H
  0001a	50		 push	 eax
  0001b	e8 00 00 00 00	 call	 ??_M@YGXPAXIIP6EX0@Z@Z
  00020	c3		 ret	 0
  00021	cc		 int	 3
  00022	cc		 int	 3
  00023	cc		 int	 3
  00024	cc		 int	 3
  00025	cc		 int	 3
__ehhandler$??0CMiniTickBarCFG@@QAE@PAVCSetTickButton@@PAVCWnd@@@Z:
  00026	90		 npad	 1
  00027	90		 npad	 1
  00028	8b 54 24 08	 mov	 edx, DWORD PTR [esp+8]
  0002c	8d 42 0c	 lea	 eax, DWORD PTR [edx+12]
  0002f	8b 4a ec	 mov	 ecx, DWORD PTR [edx-20]
  00032	33 c8		 xor	 ecx, eax
  00034	e8 00 00 00 00	 call	 @__security_check_cookie@4
  00039	b8 00 00 00 00	 mov	 eax, OFFSET __ehfuncinfo$??0CMiniTickBarCFG@@QAE@PAVCSetTickButton@@PAVCWnd@@@Z
  0003e	e9 00 00 00 00	 jmp	 ___CxxFrameHandler3
text$x	ENDS
??0CMiniTickBarCFG@@QAE@PAVCSetTickButton@@PAVCWnd@@@Z ENDP ; CMiniTickBarCFG::CMiniTickBarCFG
; Function compile flags: /Ogtp
; File C:\Program Files (x86)\Microsoft Visual Studio\2019\Community\VC\Tools\MSVC\14.29.30133\atlmfc\include\afxwin2.inl
;	COMDAT ?Create@CDialog@@UAEHIPAVCWnd@@@Z
_TEXT	SEGMENT
_nIDTemplate$ = 8					; size = 4
_pParentWnd$ = 12					; size = 4
?Create@CDialog@@UAEHIPAVCWnd@@@Z PROC			; CDialog::Create, COMDAT
; _this$ = ecx

; 585  : 	{ return CDialog::Create(ATL_MAKEINTRESOURCE(nIDTemplate), pParentWnd); }

  00000	55		 push	 ebp
  00001	8b ec		 mov	 ebp, esp
  00003	0f b7 45 08	 movzx	 eax, WORD PTR _nIDTemplate$[ebp]
  00007	89 45 08	 mov	 DWORD PTR _nIDTemplate$[ebp], eax
  0000a	5d		 pop	 ebp
  0000b	e9 00 00 00 00	 jmp	 ?Create@CDialog@@UAEHPBDPAVCWnd@@@Z ; CDialog::Create
?Create@CDialog@@UAEHIPAVCWnd@@@Z ENDP			; CDialog::Create
_TEXT	ENDS
; Function compile flags: /Ogtp
; File C:\Program Files (x86)\Microsoft Visual Studio\2019\Community\VC\Tools\MSVC\14.29.30133\atlmfc\include\afxwin2.inl
;	COMDAT ?EndModalState@CWnd@@UAEXXZ
_TEXT	SEGMENT
?EndModalState@CWnd@@UAEXXZ PROC			; CWnd::EndModalState, COMDAT
; _this$ = ecx

; 567  : 	{ ::EnableWindow(m_hWnd, TRUE); }

  00000	6a 01		 push	 1
  00002	ff 71 20	 push	 DWORD PTR [ecx+32]
  00005	ff 15 00 00 00
	00		 call	 DWORD PTR __imp__EnableWindow@8
  0000b	c3		 ret	 0
?EndModalState@CWnd@@UAEXXZ ENDP			; CWnd::EndModalState
_TEXT	ENDS
; Function compile flags: /Ogtp
; File C:\Program Files (x86)\Microsoft Visual Studio\2019\Community\VC\Tools\MSVC\14.29.30133\atlmfc\include\afxwin2.inl
;	COMDAT ?BeginModalState@CWnd@@UAEXXZ
_TEXT	SEGMENT
?BeginModalState@CWnd@@UAEXXZ PROC			; CWnd::BeginModalState, COMDAT
; _this$ = ecx

; 565  : 	{ ::EnableWindow(m_hWnd, FALSE); }

  00000	6a 00		 push	 0
  00002	ff 71 20	 push	 DWORD PTR [ecx+32]
  00005	ff 15 00 00 00
	00		 call	 DWORD PTR __imp__EnableWindow@8
  0000b	c3		 ret	 0
?BeginModalState@CWnd@@UAEXXZ ENDP			; CWnd::BeginModalState
_TEXT	ENDS
; Function compile flags: /Ogtp
; File C:\Program Files (x86)\Microsoft Visual Studio\2019\Community\VC\Tools\MSVC\14.29.30133\atlmfc\include\afxwin2.inl
;	COMDAT ?DoDataExchange@CWnd@@MAEXPAVCDataExchange@@@Z
_TEXT	SEGMENT
___formal$ = 8						; size = 4
?DoDataExchange@CWnd@@MAEXPAVCDataExchange@@@Z PROC	; CWnd::DoDataExchange, COMDAT
; _this$ = ecx

; 561  : 	{ } // default does nothing

  00000	c2 04 00	 ret	 4
?DoDataExchange@CWnd@@MAEXPAVCDataExchange@@@Z ENDP	; CWnd::DoDataExchange
_TEXT	ENDS
; Function compile flags: /Ogtp
; File C:\Program Files (x86)\Microsoft Visual Studio\2019\Community\VC\Tools\MSVC\14.29.30133\atlmfc\include\atlbase.h
; File C:\Program Files (x86)\Microsoft Visual Studio\2019\Community\VC\Tools\MSVC\14.29.30133\atlmfc\include\atlsimpcoll.h
; File C:\Program Files (x86)\Microsoft Visual Studio\2019\Community\VC\Tools\MSVC\14.29.30133\atlmfc\include\atlbase.h
; File C:\Program Files (x86)\Microsoft Visual Studio\2019\Community\VC\Tools\MSVC\14.29.30133\atlmfc\include\atlsimpcoll.h
; File C:\Program Files (x86)\Microsoft Visual Studio\2019\Community\VC\Tools\MSVC\14.29.30133\atlmfc\include\atlcore.h
; File C:\Program Files (x86)\Microsoft Visual Studio\2019\Community\VC\Tools\MSVC\14.29.30133\atlmfc\include\atlsimpcoll.h
; File C:\Program Files (x86)\Microsoft Visual Studio\2019\Community\VC\Tools\MSVC\14.29.30133\atlmfc\include\atlcore.h
; File C:\Program Files (x86)\Microsoft Visual Studio\2019\Community\VC\Tools\MSVC\14.29.30133\atlmfc\include\atlbase.h
; File C:\Program Files (x86)\Microsoft Visual Studio\2019\Community\VC\Tools\MSVC\14.29.30133\atlmfc\include\atlsimpcoll.h
;	COMDAT ??__F_AtlWinModule@ATL@@YAXXZ
text$yd	SEGMENT
??__F_AtlWinModule@ATL@@YAXXZ PROC			; ATL::`dynamic atexit destructor for '_AtlWinModule'', COMDAT
; File C:\Program Files (x86)\Microsoft Visual Studio\2019\Community\VC\Tools\MSVC\14.29.30133\atlmfc\include\atlbase.h

; 7655 : 	if (pWinModule->cbSize == 0)

  00000	a1 00 00 00 00	 mov	 eax, DWORD PTR ?_AtlWinModule@ATL@@3VCAtlWinModule@1@A
  00005	8b 0d 00 00 00
	00		 mov	 ecx, DWORD PTR __imp__free

; 2957 : 		AtlWinModuleTerm(this, _AtlBaseModule.GetModuleInstance());

  0000b	57		 push	 edi
  0000c	8b 3d 04 00 00
	00		 mov	 edi, DWORD PTR ?_AtlBaseModule@ATL@@3VCAtlBaseModule@1@A+4

; 7655 : 	if (pWinModule->cbSize == 0)

  00012	85 c0		 test	 eax, eax
  00014	0f 84 93 00 00
	00		 je	 $LN8@dynamic

; 7656 : 		return S_OK;
; 7657 : 	if (pWinModule->cbSize != sizeof(_ATL_WIN_MODULE))

  0001a	83 f8 2c	 cmp	 eax, 44			; 0000002cH
  0001d	0f 85 8a 00 00
	00		 jne	 $LN8@dynamic

; 7658 : 		return E_INVALIDARG;
; 7659 : 
; 7660 : 	for (int i = 0; i < pWinModule->m_rgWindowClassAtoms.GetSize(); i++)

  00023	a1 24 00 00 00	 mov	 eax, DWORD PTR ?_AtlWinModule@ATL@@3VCAtlWinModule@1@A+36
  00028	56		 push	 esi
  00029	33 f6		 xor	 esi, esi
  0002b	85 c0		 test	 eax, eax
  0002d	7e 35		 jle	 SHORT $LN10@dynamic
  0002f	53		 push	 ebx
  00030	8b 1d 00 00 00
	00		 mov	 ebx, DWORD PTR __imp__UnregisterClassA@8
$LL11@dynamic:
; File C:\Program Files (x86)\Microsoft Visual Studio\2019\Community\VC\Tools\MSVC\14.29.30133\atlmfc\include\atlsimpcoll.h

; 238  : 		if(nIndex < 0 || nIndex >= m_nSize)

  00036	85 f6		 test	 esi, esi
  00038	0f 88 9e 00 00
	00		 js	 $LN46@dynamic
  0003e	3b f0		 cmp	 esi, eax
  00040	0f 8d 96 00 00
	00		 jge	 $LN46@dynamic
; File C:\Program Files (x86)\Microsoft Visual Studio\2019\Community\VC\Tools\MSVC\14.29.30133\atlmfc\include\atlbase.h

; 7661 : 		UnregisterClass((LPCTSTR)pWinModule->m_rgWindowClassAtoms[i], hInst);

  00046	a1 20 00 00 00	 mov	 eax, DWORD PTR ?_AtlWinModule@ATL@@3VCAtlWinModule@1@A+32
  0004b	57		 push	 edi
  0004c	0f b7 04 70	 movzx	 eax, WORD PTR [eax+esi*2]
  00050	50		 push	 eax
  00051	ff d3		 call	 ebx
  00053	a1 24 00 00 00	 mov	 eax, DWORD PTR ?_AtlWinModule@ATL@@3VCAtlWinModule@1@A+36
  00058	46		 inc	 esi
  00059	3b f0		 cmp	 esi, eax
  0005b	7c d9		 jl	 SHORT $LL11@dynamic
; File C:\Program Files (x86)\Microsoft Visual Studio\2019\Community\VC\Tools\MSVC\14.29.30133\atlmfc\include\atlsimpcoll.h

; 238  : 		if(nIndex < 0 || nIndex >= m_nSize)

  0005d	8b 0d 00 00 00
	00		 mov	 ecx, DWORD PTR __imp__free
  00063	5b		 pop	 ebx
$LN10@dynamic:

; 216  : 		if(m_aT != NULL)

  00064	a1 20 00 00 00	 mov	 eax, DWORD PTR ?_AtlWinModule@ATL@@3VCAtlWinModule@1@A+32
  00069	5e		 pop	 esi
  0006a	85 c0		 test	 eax, eax
  0006c	74 10		 je	 SHORT $LN25@dynamic

; 217  : 		{
; 218  : 			for(int i = 0; i < m_nSize; i++)
; 219  : 				m_aT[i].~T();
; 220  : 			free(m_aT);

  0006e	50		 push	 eax
  0006f	ff d1		 call	 ecx
  00071	83 c4 04	 add	 esp, 4

; 221  : 			m_aT = NULL;

  00074	c7 05 20 00 00
	00 00 00 00 00	 mov	 DWORD PTR ?_AtlWinModule@ATL@@3VCAtlWinModule@1@A+32, 0
$LN25@dynamic:
; File C:\Program Files (x86)\Microsoft Visual Studio\2019\Community\VC\Tools\MSVC\14.29.30133\atlmfc\include\atlcore.h

; 155  : 		DeleteCriticalSection(&m_sec);

  0007e	68 04 00 00 00	 push	 OFFSET ?_AtlWinModule@ATL@@3VCAtlWinModule@1@A+4
; File C:\Program Files (x86)\Microsoft Visual Studio\2019\Community\VC\Tools\MSVC\14.29.30133\atlmfc\include\atlsimpcoll.h

; 223  : 		m_nSize = 0;

  00083	c7 05 24 00 00
	00 00 00 00 00	 mov	 DWORD PTR ?_AtlWinModule@ATL@@3VCAtlWinModule@1@A+36, 0

; 224  : 		m_nAllocSize = 0;

  0008d	c7 05 28 00 00
	00 00 00 00 00	 mov	 DWORD PTR ?_AtlWinModule@ATL@@3VCAtlWinModule@1@A+40, 0
; File C:\Program Files (x86)\Microsoft Visual Studio\2019\Community\VC\Tools\MSVC\14.29.30133\atlmfc\include\atlcore.h

; 155  : 		DeleteCriticalSection(&m_sec);

  00097	ff 15 00 00 00
	00		 call	 DWORD PTR __imp__DeleteCriticalSection@4
; File C:\Program Files (x86)\Microsoft Visual Studio\2019\Community\VC\Tools\MSVC\14.29.30133\atlmfc\include\atlbase.h

; 7664 : 	pWinModule->cbSize = 0;

  0009d	8b 0d 00 00 00
	00		 mov	 ecx, DWORD PTR __imp__free
  000a3	c7 05 00 00 00
	00 00 00 00 00	 mov	 DWORD PTR ?_AtlWinModule@ATL@@3VCAtlWinModule@1@A, 0
$LN8@dynamic:
; File C:\Program Files (x86)\Microsoft Visual Studio\2019\Community\VC\Tools\MSVC\14.29.30133\atlmfc\include\atlsimpcoll.h

; 216  : 		if(m_aT != NULL)

  000ad	a1 20 00 00 00	 mov	 eax, DWORD PTR ?_AtlWinModule@ATL@@3VCAtlWinModule@1@A+32
  000b2	5f		 pop	 edi
  000b3	85 c0		 test	 eax, eax
  000b5	74 10		 je	 SHORT $LN40@dynamic

; 217  : 		{
; 218  : 			for(int i = 0; i < m_nSize; i++)
; 219  : 				m_aT[i].~T();
; 220  : 			free(m_aT);

  000b7	50		 push	 eax
  000b8	ff d1		 call	 ecx
  000ba	83 c4 04	 add	 esp, 4

; 221  : 			m_aT = NULL;

  000bd	c7 05 20 00 00
	00 00 00 00 00	 mov	 DWORD PTR ?_AtlWinModule@ATL@@3VCAtlWinModule@1@A+32, 0
$LN40@dynamic:

; 223  : 		m_nSize = 0;

  000c7	c7 05 24 00 00
	00 00 00 00 00	 mov	 DWORD PTR ?_AtlWinModule@ATL@@3VCAtlWinModule@1@A+36, 0

; 224  : 		m_nAllocSize = 0;

  000d1	c7 05 28 00 00
	00 00 00 00 00	 mov	 DWORD PTR ?_AtlWinModule@ATL@@3VCAtlWinModule@1@A+40, 0
  000db	c3		 ret	 0
$LN46@dynamic:

; 240  : 			_AtlRaiseException((DWORD)EXCEPTION_ARRAY_BOUNDS_EXCEEDED);

  000dc	6a 01		 push	 1
  000de	68 8c 00 00 c0	 push	 -1073741684		; c000008cH
  000e3	e8 00 00 00 00	 call	 ?_AtlRaiseException@ATL@@YAXKK@Z ; ATL::_AtlRaiseException
$LN56@dynamic:
  000e8	cc		 int	 3
??__F_AtlWinModule@ATL@@YAXXZ ENDP			; ATL::`dynamic atexit destructor for '_AtlWinModule''
text$yd	ENDS
; Function compile flags: /Ogtp
; File C:\Program Files (x86)\Microsoft Visual Studio\2019\Community\VC\Tools\MSVC\14.29.30133\atlmfc\include\atlbase.h
; File C:\Program Files (x86)\Microsoft Visual Studio\2019\Community\VC\Tools\MSVC\14.29.30133\atlmfc\include\atlwinverapi.h
; File C:\Program Files (x86)\Microsoft Visual Studio\2019\Community\VC\Tools\MSVC\14.29.30133\atlmfc\include\atlcore.h
; File C:\Program Files (x86)\Windows Kits\10\Include\10.0.22000.0\shared\winerror.h
; File C:\Program Files (x86)\Microsoft Visual Studio\2019\Community\VC\Tools\MSVC\14.29.30133\atlmfc\include\atlbase.h
;	COMDAT ??__E_AtlWinModule@ATL@@YAXXZ
text$di	SEGMENT
??__E_AtlWinModule@ATL@@YAXXZ PROC			; ATL::`dynamic initializer for '_AtlWinModule'', COMDAT
; File C:\Program Files (x86)\Microsoft Visual Studio\2019\Community\VC\Tools\MSVC\14.29.30133\atlmfc\include\atlwinverapi.h

; 730  : 	return ::InitializeCriticalSectionEx(lpCriticalSection, dwSpinCount, Flags);

  00000	6a 00		 push	 0
  00002	6a 00		 push	 0
  00004	68 04 00 00 00	 push	 OFFSET ?_AtlWinModule@ATL@@3VCAtlWinModule@1@A+4
  00009	ff 15 00 00 00
	00		 call	 DWORD PTR __imp__InitializeCriticalSectionEx@12
; File C:\Program Files (x86)\Microsoft Visual Studio\2019\Community\VC\Tools\MSVC\14.29.30133\atlmfc\include\atlcore.h

; 145  : 		if (!_AtlInitializeCriticalSectionEx(&m_sec, 0, 0))

  0000f	85 c0		 test	 eax, eax
  00011	75 27		 jne	 SHORT $LN4@dynamic

; 146  : 		{
; 147  : 			hRes = HRESULT_FROM_WIN32(GetLastError());

  00013	ff 15 00 00 00
	00		 call	 DWORD PTR __imp__GetLastError@0
; File C:\Program Files (x86)\Windows Kits\10\Include\10.0.22000.0\shared\winerror.h

; 29673: FORCEINLINE _Translates_Win32_to_HRESULT_(x) HRESULT HRESULT_FROM_WIN32(unsigned long x) { return (HRESULT)(x) <= 0 ? (HRESULT)(x) : (HRESULT) (((x) & 0x0000FFFF) | (FACILITY_WIN32 << 16) | 0x80000000);}

  00019	85 c0		 test	 eax, eax
  0001b	7e 0a		 jle	 SHORT $LN26@dynamic
  0001d	0f b7 c0	 movzx	 eax, ax
  00020	0d 00 00 07 80	 or	 eax, -2147024896	; 80070000H
; File C:\Program Files (x86)\Microsoft Visual Studio\2019\Community\VC\Tools\MSVC\14.29.30133\atlmfc\include\atlbase.h

; 2941 : 		if (FAILED(hr))

  00025	85 c0		 test	 eax, eax
$LN26@dynamic:
  00027	79 11		 jns	 SHORT $LN4@dynamic

; 2942 : 		{
; 2943 : 			ATLASSERT(0);
; 2944 : 			CAtlBaseModule::m_bInitFailed = true;

  00029	c6 05 00 00 00
	00 01		 mov	 BYTE PTR ?m_bInitFailed@CAtlBaseModule@ATL@@2_NA, 1 ; ATL::CAtlBaseModule::m_bInitFailed

; 2945 : 			cbSize = 0;

  00030	c7 05 00 00 00
	00 00 00 00 00	 mov	 DWORD PTR ?_AtlWinModule@ATL@@3VCAtlWinModule@1@A, 0
$LN4@dynamic:

; 2972 : __declspec(selectany) CAtlWinModule _AtlWinModule;

  0003a	68 00 00 00 00	 push	 OFFSET ??__F_AtlWinModule@ATL@@YAXXZ ; ATL::`dynamic atexit destructor for '_AtlWinModule''
  0003f	e8 00 00 00 00	 call	 _atexit
  00044	59		 pop	 ecx
  00045	c3		 ret	 0
??__E_AtlWinModule@ATL@@YAXXZ ENDP			; ATL::`dynamic initializer for '_AtlWinModule''
text$di	ENDS
; Function compile flags: /Ogtp
; File C:\Program Files (x86)\Microsoft Visual Studio\2019\Community\VC\Tools\MSVC\14.29.30133\atlmfc\include\atlwinverapi.h
;	COMDAT ?_AtlInitializeCriticalSectionEx@ATL@@YAHPAU_RTL_CRITICAL_SECTION@@KK@Z
_TEXT	SEGMENT
_lpCriticalSection$ = 8					; size = 4
_dwSpinCount$ = 12					; size = 4
_Flags$ = 16						; size = 4
?_AtlInitializeCriticalSectionEx@ATL@@YAHPAU_RTL_CRITICAL_SECTION@@KK@Z PROC ; ATL::_AtlInitializeCriticalSectionEx, COMDAT

; 727  : {

  00000	55		 push	 ebp
  00001	8b ec		 mov	 ebp, esp

; 728  : #if (NTDDI_VERSION >= NTDDI_VISTA) && !defined(_USING_V110_SDK71_) && !defined(_ATL_XP_TARGETING)
; 729  : 	// InitializeCriticalSectionEx is available in Vista or later, desktop or store apps
; 730  : 	return ::InitializeCriticalSectionEx(lpCriticalSection, dwSpinCount, Flags);

  00003	ff 75 10	 push	 DWORD PTR _Flags$[ebp]
  00006	ff 75 0c	 push	 DWORD PTR _dwSpinCount$[ebp]
  00009	ff 75 08	 push	 DWORD PTR _lpCriticalSection$[ebp]
  0000c	ff 15 00 00 00
	00		 call	 DWORD PTR __imp__InitializeCriticalSectionEx@12

; 731  : #else
; 732  : 	UNREFERENCED_PARAMETER(Flags);
; 733  : 
; 734  : 	// ...otherwise fall back to using InitializeCriticalSectionAndSpinCount.
; 735  : 	return ::InitializeCriticalSectionAndSpinCount(lpCriticalSection, dwSpinCount);
; 736  : #endif
; 737  : }

  00012	5d		 pop	 ebp
  00013	c3		 ret	 0
?_AtlInitializeCriticalSectionEx@ATL@@YAHPAU_RTL_CRITICAL_SECTION@@KK@Z ENDP ; ATL::_AtlInitializeCriticalSectionEx
_TEXT	ENDS
; Function compile flags: /Ogtp
; File C:\Program Files (x86)\Microsoft Visual Studio\2019\Community\VC\Tools\MSVC\14.29.30133\atlmfc\include\atlexcept.h
;	COMDAT ?_AtlRaiseException@ATL@@YAXKK@Z
_TEXT	SEGMENT
_dwExceptionCode$ = 8					; size = 4
_dwExceptionFlags$ = 12					; size = 4
?_AtlRaiseException@ATL@@YAXKK@Z PROC			; ATL::_AtlRaiseException, COMDAT

; 30   : {

  00000	55		 push	 ebp
  00001	8b ec		 mov	 ebp, esp

; 31   : 	RaiseException( dwExceptionCode, dwExceptionFlags, 0, NULL );

  00003	6a 00		 push	 0
  00005	6a 00		 push	 0
  00007	ff 75 0c	 push	 DWORD PTR _dwExceptionFlags$[ebp]
  0000a	ff 75 08	 push	 DWORD PTR _dwExceptionCode$[ebp]
  0000d	ff 15 00 00 00
	00		 call	 DWORD PTR __imp__RaiseException@16

; 32   : }

  00013	5d		 pop	 ebp
  00014	c3		 ret	 0
?_AtlRaiseException@ATL@@YAXKK@Z ENDP			; ATL::_AtlRaiseException
_TEXT	ENDS
; Function compile flags: /Ogtp
; File C:\Program Files (x86)\Microsoft Visual Studio\2019\Community\VC\Tools\MSVC\14.29.30133\atlmfc\include\afx.inl
;	COMDAT ?Dump@CObject@@UBEXAAVCDumpContext@@@Z
_TEXT	SEGMENT
___formal$ = 8						; size = 4
?Dump@CObject@@UBEXAAVCDumpContext@@@Z PROC		; CObject::Dump, COMDAT
; _this$ = ecx

; 122  : 	{ /* no dumping in release builds */ }

  00000	c2 04 00	 ret	 4
?Dump@CObject@@UBEXAAVCDumpContext@@@Z ENDP		; CObject::Dump
_TEXT	ENDS
; Function compile flags: /Ogtp
; File C:\Program Files (x86)\Microsoft Visual Studio\2019\Community\VC\Tools\MSVC\14.29.30133\atlmfc\include\afx.inl
;	COMDAT ?AssertValid@CObject@@UBEXXZ
_TEXT	SEGMENT
?AssertValid@CObject@@UBEXXZ PROC			; CObject::AssertValid, COMDAT
; _this$ = ecx

; 120  : 	{ /* no asserts in release builds */ }

  00000	c2 00 00	 ret	 0
?AssertValid@CObject@@UBEXXZ ENDP			; CObject::AssertValid
_TEXT	ENDS
; Function compile flags: /Ogtp
; File C:\Program Files (x86)\Microsoft Visual Studio\2019\Community\VC\Tools\MSVC\14.29.30133\atlmfc\include\afx.inl
;	COMDAT ?Serialize@CObject@@UAEXAAVCArchive@@@Z
_TEXT	SEGMENT
___formal$ = 8						; size = 4
?Serialize@CObject@@UAEXAAVCArchive@@@Z PROC		; CObject::Serialize, COMDAT
; _this$ = ecx

; 106  : 	{ /* CObject does not serialize anything by default */ }

  00000	c2 04 00	 ret	 4
?Serialize@CObject@@UAEXAAVCArchive@@@Z ENDP		; CObject::Serialize
_TEXT	ENDS
; Function compile flags: /Ogtp
; File D:\git\src\IBK\IBK_DRFN\ProjSrc\SrcDrfn\Chart\MULTICHART\MiniTickBarCFG.cpp
;	COMDAT ?__empty_global_delete@@YAXPAXI@Z
_TEXT	SEGMENT
___formal$ = 8						; size = 4
___formal$ = 12						; size = 4
?__empty_global_delete@@YAXPAXI@Z PROC			; __empty_global_delete, COMDAT

  00000	c2 00 00	 ret	 0
?__empty_global_delete@@YAXPAXI@Z ENDP			; __empty_global_delete
_TEXT	ENDS
; Function compile flags: /Ogtp
; File D:\git\src\IBK\IBK_DRFN\ProjSrc\SrcDrfn\Chart\MULTICHART\MiniTickBarCFG.cpp
;	COMDAT ?__empty_global_delete@@YAXPAX@Z
_TEXT	SEGMENT
___formal$ = 8						; size = 4
?__empty_global_delete@@YAXPAX@Z PROC			; __empty_global_delete, COMDAT

  00000	c2 00 00	 ret	 0
?__empty_global_delete@@YAXPAX@Z ENDP			; __empty_global_delete
_TEXT	ENDS
END
