; Listing generated by Microsoft (R) Optimizing Compiler Version 19.29.30148.0 

	TITLE	D:\git\src\IBK\IBK_DRFN\#DRfn-CS\_Obj\MultiChart\MiniTickBarDlg.obj
	.686P
	.XMM
	include listing.inc
	.model	flat

INCLUDELIB MSVCRT
INCLUDELIB OLDNAMES

PUBLIC	??_C@_0BB@IBKHOHJL@RMSG_REPLAY_REAL@		; `string'
PUBLIC	??_C@_0BB@JFLGBADG@RMSG_REPLAY_FAIL@		; `string'
PUBLIC	??_C@_0BI@KDGAIIMD@RMSG_REPLAY_CHANGE_DATE@	; `string'
PUBLIC	??_C@_0BA@NKHHCPON@RMSG_REPLAY_END@		; `string'
PUBLIC	??_C@_0BE@JFCIMCIP@RMSG_REPLAY_INC_SEC@		; `string'
PUBLIC	??_C@_0BG@GIAJEIJF@RMSG_REPLAY_TOTAL_SEC@	; `string'
PUBLIC	??_C@_0BE@FJPKENOB@RMSG_GETSIGNAL_REAL@		; `string'
PUBLIC	??_C@_0BB@CNOFPEHG@RMSG_SETQUERYOPT@		; `string'
PUBLIC	??_C@_0P@KHFCBIOH@RMSG_CHARTMAIN@		; `string'
PUBLIC	??_C@_0BC@MMPGLPDH@RMS_ANALYSIS_FUNC@		; `string'
PUBLIC	??_C@_0BA@HKNFENJL@RMSG_GET_USERID@		; `string'
PUBLIC	??_C@_0BG@CNPAHNGG@RMSG_CHANGE_SKINCOLOR@	; `string'
PUBLIC	??_C@_0BD@FLDNDDHK@RMSG_GET_SKINCOLOR@		; `string'
PUBLIC	??_C@_0BJ@JLKHIBIK@RMSG_CHANGEVERTSCALETYPE@	; `string'
PUBLIC	??_C@_0BG@LNLCJKPF@RMSG_CHANGE_CROSSLINE@	; `string'
PUBLIC	??_C@_0BH@IFDMIMBP@RMSG_ADD_PLATFORM_MENU@	; `string'
PUBLIC	??_C@_0BJ@OGNAJHHI@RMSG_SETINITIALCHARTDATA@	; `string'
PUBLIC	??_C@_0N@IIOKMIEH@RMSG_GETINFO@			; `string'
PUBLIC	??_C@_0N@HABLPHJG@RMSG_SETINFO@			; `string'
PUBLIC	?m_bInitFailed@CAtlBaseModule@ATL@@2_NA		; ATL::CAtlBaseModule::m_bInitFailed
PUBLIC	?_pAtlModule@ATL@@3PAVCAtlModule@1@A		; ATL::_pAtlModule
PUBLIC	?WM_ATLGETHOST@ATL@@3IA				; ATL::WM_ATLGETHOST
PUBLIC	?WM_ATLGETCONTROL@ATL@@3IA			; ATL::WM_ATLGETCONTROL
PUBLIC	?_pAtlAutoThreadModule@ATL@@3PAUIAtlAutoThreadModule@1@A ; ATL::_pAtlAutoThreadModule
EXTRN	?_AtlBaseModule@ATL@@3VCAtlBaseModule@1@A:BYTE	; ATL::_AtlBaseModule
;	COMDAT ?m_bInitFailed@CAtlBaseModule@ATL@@2_NA
_BSS	SEGMENT
?m_bInitFailed@CAtlBaseModule@ATL@@2_NA DB 01H DUP (?)	; ATL::CAtlBaseModule::m_bInitFailed
_BSS	ENDS
;	COMDAT ?_pAtlModule@ATL@@3PAVCAtlModule@1@A
_BSS	SEGMENT
?_pAtlModule@ATL@@3PAVCAtlModule@1@A DD 01H DUP (?)	; ATL::_pAtlModule
_BSS	ENDS
;	COMDAT ?WM_ATLGETHOST@ATL@@3IA
_BSS	SEGMENT
?WM_ATLGETHOST@ATL@@3IA DD 01H DUP (?)			; ATL::WM_ATLGETHOST
_BSS	ENDS
;	COMDAT ?WM_ATLGETCONTROL@ATL@@3IA
_BSS	SEGMENT
?WM_ATLGETCONTROL@ATL@@3IA DD 01H DUP (?)		; ATL::WM_ATLGETCONTROL
_BSS	ENDS
;	COMDAT ?_pAtlAutoThreadModule@ATL@@3PAUIAtlAutoThreadModule@1@A
_BSS	SEGMENT
?_pAtlAutoThreadModule@ATL@@3PAUIAtlAutoThreadModule@1@A DD 01H DUP (?) ; ATL::_pAtlAutoThreadModule
_BSS	ENDS
;	COMDAT ??_C@_0N@HABLPHJG@RMSG_SETINFO@
CONST	SEGMENT
??_C@_0N@HABLPHJG@RMSG_SETINFO@ DB 'RMSG_SETINFO', 00H	; `string'
CONST	ENDS
;	COMDAT ??_C@_0N@IIOKMIEH@RMSG_GETINFO@
CONST	SEGMENT
??_C@_0N@IIOKMIEH@RMSG_GETINFO@ DB 'RMSG_GETINFO', 00H	; `string'
CONST	ENDS
;	COMDAT ??_C@_0BJ@OGNAJHHI@RMSG_SETINITIALCHARTDATA@
CONST	SEGMENT
??_C@_0BJ@OGNAJHHI@RMSG_SETINITIALCHARTDATA@ DB 'RMSG_SETINITIALCHARTDATA'
	DB	00H						; `string'
CONST	ENDS
;	COMDAT ??_C@_0BH@IFDMIMBP@RMSG_ADD_PLATFORM_MENU@
CONST	SEGMENT
??_C@_0BH@IFDMIMBP@RMSG_ADD_PLATFORM_MENU@ DB 'RMSG_ADD_PLATFORM_MENU', 00H ; `string'
CONST	ENDS
;	COMDAT ??_C@_0BG@LNLCJKPF@RMSG_CHANGE_CROSSLINE@
CONST	SEGMENT
??_C@_0BG@LNLCJKPF@RMSG_CHANGE_CROSSLINE@ DB 'RMSG_CHANGE_CROSSLINE', 00H ; `string'
CONST	ENDS
;	COMDAT ??_C@_0BJ@JLKHIBIK@RMSG_CHANGEVERTSCALETYPE@
CONST	SEGMENT
??_C@_0BJ@JLKHIBIK@RMSG_CHANGEVERTSCALETYPE@ DB 'RMSG_CHANGEVERTSCALETYPE'
	DB	00H						; `string'
CONST	ENDS
;	COMDAT ??_C@_0BD@FLDNDDHK@RMSG_GET_SKINCOLOR@
CONST	SEGMENT
??_C@_0BD@FLDNDDHK@RMSG_GET_SKINCOLOR@ DB 'RMSG_GET_SKINCOLOR', 00H ; `string'
CONST	ENDS
;	COMDAT ??_C@_0BG@CNPAHNGG@RMSG_CHANGE_SKINCOLOR@
CONST	SEGMENT
??_C@_0BG@CNPAHNGG@RMSG_CHANGE_SKINCOLOR@ DB 'RMSG_CHANGE_SKINCOLOR', 00H ; `string'
CONST	ENDS
;	COMDAT ??_C@_0BA@HKNFENJL@RMSG_GET_USERID@
CONST	SEGMENT
??_C@_0BA@HKNFENJL@RMSG_GET_USERID@ DB 'RMSG_GET_USERID', 00H ; `string'
CONST	ENDS
;	COMDAT ??_C@_0BC@MMPGLPDH@RMS_ANALYSIS_FUNC@
CONST	SEGMENT
??_C@_0BC@MMPGLPDH@RMS_ANALYSIS_FUNC@ DB 'RMS_ANALYSIS_FUNC', 00H ; `string'
CONST	ENDS
;	COMDAT ??_C@_0P@KHFCBIOH@RMSG_CHARTMAIN@
CONST	SEGMENT
??_C@_0P@KHFCBIOH@RMSG_CHARTMAIN@ DB 'RMSG_CHARTMAIN', 00H ; `string'
CONST	ENDS
;	COMDAT ??_C@_0BB@CNOFPEHG@RMSG_SETQUERYOPT@
CONST	SEGMENT
??_C@_0BB@CNOFPEHG@RMSG_SETQUERYOPT@ DB 'RMSG_SETQUERYOPT', 00H ; `string'
CONST	ENDS
;	COMDAT ??_C@_0BE@FJPKENOB@RMSG_GETSIGNAL_REAL@
CONST	SEGMENT
??_C@_0BE@FJPKENOB@RMSG_GETSIGNAL_REAL@ DB 'RMSG_GETSIGNAL_REAL', 00H ; `string'
CONST	ENDS
;	COMDAT ??_C@_0BG@GIAJEIJF@RMSG_REPLAY_TOTAL_SEC@
CONST	SEGMENT
??_C@_0BG@GIAJEIJF@RMSG_REPLAY_TOTAL_SEC@ DB 'RMSG_REPLAY_TOTAL_SEC', 00H ; `string'
CONST	ENDS
;	COMDAT ??_C@_0BE@JFCIMCIP@RMSG_REPLAY_INC_SEC@
CONST	SEGMENT
??_C@_0BE@JFCIMCIP@RMSG_REPLAY_INC_SEC@ DB 'RMSG_REPLAY_INC_SEC', 00H ; `string'
CONST	ENDS
;	COMDAT ??_C@_0BA@NKHHCPON@RMSG_REPLAY_END@
CONST	SEGMENT
??_C@_0BA@NKHHCPON@RMSG_REPLAY_END@ DB 'RMSG_REPLAY_END', 00H ; `string'
CONST	ENDS
;	COMDAT ??_C@_0BI@KDGAIIMD@RMSG_REPLAY_CHANGE_DATE@
CONST	SEGMENT
??_C@_0BI@KDGAIIMD@RMSG_REPLAY_CHANGE_DATE@ DB 'RMSG_REPLAY_CHANGE_DATE', 00H ; `string'
CONST	ENDS
;	COMDAT ??_C@_0BB@JFLGBADG@RMSG_REPLAY_FAIL@
CONST	SEGMENT
??_C@_0BB@JFLGBADG@RMSG_REPLAY_FAIL@ DB 'RMSG_REPLAY_FAIL', 00H ; `string'
CONST	ENDS
;	COMDAT ??_C@_0BB@IBKHOHJL@RMSG_REPLAY_REAL@
CONST	SEGMENT
??_C@_0BB@IBKHOHJL@RMSG_REPLAY_REAL@ DB 'RMSG_REPLAY_REAL', 00H ; `string'
CONST	ENDS
PUBLIC	?__empty_global_delete@@YAXPAX@Z		; __empty_global_delete
PUBLIC	?__empty_global_delete@@YAXPAXI@Z		; __empty_global_delete
PUBLIC	___local_stdio_printf_options
PUBLIC	___local_stdio_scanf_options
PUBLIC	_sprintf
PUBLIC	_sscanf
PUBLIC	??1CObject@@UAE@XZ				; CObject::~CObject
PUBLIC	?Serialize@CObject@@UAEXAAVCArchive@@@Z		; CObject::Serialize
PUBLIC	?AssertValid@CObject@@UBEXXZ			; CObject::AssertValid
PUBLIC	?Dump@CObject@@UBEXAAVCDumpContext@@@Z		; CObject::Dump
PUBLIC	?_AtlRaiseException@ATL@@YAXKK@Z		; ATL::_AtlRaiseException
PUBLIC	?_AtlInitializeCriticalSectionEx@ATL@@YAHPAU_RTL_CRITICAL_SECTION@@KK@Z ; ATL::_AtlInitializeCriticalSectionEx
PUBLIC	?_AfxInitManaged@@YAHXZ				; _AfxInitManaged
PUBLIC	??1CGdiObject@@UAE@XZ				; CGdiObject::~CGdiObject
PUBLIC	??_GCGdiObject@@UAEPAXI@Z			; CGdiObject::`scalar deleting destructor'
PUBLIC	??1CBrush@@UAE@XZ				; CBrush::~CBrush
PUBLIC	??_GCBrush@@UAEPAXI@Z				; CBrush::`scalar deleting destructor'
PUBLIC	?BeginModalState@CWnd@@UAEXXZ			; CWnd::BeginModalState
PUBLIC	?EndModalState@CWnd@@UAEXXZ			; CWnd::EndModalState
PUBLIC	??1stringdispid@CComTypeInfoHolder@ATL@@QAE@XZ	; ATL::CComTypeInfoHolder::stringdispid::~stringdispid
PUBLIC	??_Estringdispid@CComTypeInfoHolder@ATL@@QAEPAXI@Z ; ATL::CComTypeInfoHolder::stringdispid::`vector deleting destructor'
PUBLIC	?AddTail@?$CList@PAVCHistory@@PAV1@@@QAEPAU__POSITION@@PAVCHistory@@@Z ; CList<CHistory *,CHistory *>::AddTail
PUBLIC	?RemoveAll@?$CList@PAVCHistory@@PAV1@@@QAEXXZ	; CList<CHistory *,CHistory *>::RemoveAll
PUBLIC	?NewNode@?$CList@PAVCHistory@@PAV1@@@IAEPAUCNode@1@PAU21@0@Z ; CList<CHistory *,CHistory *>::NewNode
PUBLIC	??1?$CList@PAVCHistory@@PAV1@@@UAE@XZ		; CList<CHistory *,CHistory *>::~CList<CHistory *,CHistory *>
PUBLIC	?Serialize@?$CList@PAVCHistory@@PAV1@@@UAEXAAVCArchive@@@Z ; CList<CHistory *,CHistory *>::Serialize
PUBLIC	??_G?$CList@PAVCHistory@@PAV1@@@UAEPAXI@Z	; CList<CHistory *,CHistory *>::`scalar deleting destructor'
PUBLIC	?CreatedChartMng@CInputBarDlg@@UAEXXZ		; CInputBarDlg::CreatedChartMng
PUBLIC	?RecievedChartMng@CInputBarDlg@@UAEXXZ		; CInputBarDlg::RecievedChartMng
PUBLIC	?OnCancel@CInputBarDlg@@MAEXXZ			; CInputBarDlg::OnCancel
PUBLIC	?OnOK@CInputBarDlg@@MAEXXZ			; CInputBarDlg::OnOK
PUBLIC	??1CInputBarDlg@@UAE@XZ				; CInputBarDlg::~CInputBarDlg
PUBLIC	??0_ST_SETTICK@@QAE@XZ				; _ST_SETTICK::_ST_SETTICK
PUBLIC	??1_ST_SETTICK@@QAE@XZ				; _ST_SETTICK::~_ST_SETTICK
PUBLIC	??_E_ST_SETTICK@@QAEPAXI@Z			; _ST_SETTICK::`vector deleting destructor'
PUBLIC	??0CSetTickButton@@QAE@XZ			; CSetTickButton::CSetTickButton
PUBLIC	??1CSetTickButton@@QAE@XZ			; CSetTickButton::~CSetTickButton
PUBLIC	??4CSetTickButton@@QAEAAV0@AAV0@@Z		; CSetTickButton::operator=
PUBLIC	?Init@CSetTickButton@@QAEXXZ			; CSetTickButton::Init
PUBLIC	?SetButton@CSetTickButton@@QAEXPAVCILButton@@PAVCImageList@@@Z ; CSetTickButton::SetButton
PUBLIC	?GetTitle@CSetTickButton@@QAE?AV?$CStringT@DV?$StrTraitMFC_DLL@DV?$ChTraitsCRT@D@ATL@@@@@ATL@@H@Z ; CSetTickButton::GetTitle
PUBLIC	?GetMarket@CSetTickButton@@QAEHH@Z		; CSetTickButton::GetMarket
PUBLIC	?GetDate@CSetTickButton@@QAEDH@Z		; CSetTickButton::GetDate
PUBLIC	?GetDateIndex@CSetTickButton@@QAEHH@Z		; CSetTickButton::GetDateIndex
PUBLIC	?GetTick@CSetTickButton@@QAEHH@Z		; CSetTickButton::GetTick
PUBLIC	?GetAllDay@CSetTickButton@@QAEHH@Z		; CSetTickButton::GetAllDay
PUBLIC	?SetTitle@CSetTickButton@@QAEXHV?$CStringT@DV?$StrTraitMFC_DLL@DV?$ChTraitsCRT@D@ATL@@@@@ATL@@@Z ; CSetTickButton::SetTitle
PUBLIC	?SetMarket@CSetTickButton@@QAEXHH@Z		; CSetTickButton::SetMarket
PUBLIC	?SetDateIndex@CSetTickButton@@QAEXHH@Z		; CSetTickButton::SetDateIndex
PUBLIC	?SetTick@CSetTickButton@@QAEXHH@Z		; CSetTickButton::SetTick
PUBLIC	?SetAllDay@CSetTickButton@@QAEXHH@Z		; CSetTickButton::SetAllDay
PUBLIC	?MakeTickButtonTitle@CSetTickButton@@QAE?AV?$CStringT@DV?$StrTraitMFC_DLL@DV?$ChTraitsCRT@D@ATL@@@@@ATL@@H@Z ; CSetTickButton::MakeTickButtonTitle
PUBLIC	??0CMiniTickBarDlg@@QAE@PAVCWnd@@@Z		; CMiniTickBarDlg::CMiniTickBarDlg
PUBLIC	?Init@CMiniTickBarDlg@@UAEXXZ			; CMiniTickBarDlg::Init
PUBLIC	?LoadIniValue@CMiniTickBarDlg@@UAEXXZ		; CMiniTickBarDlg::LoadIniValue
PUBLIC	?SaveIniValue@CMiniTickBarDlg@@UAEXXZ		; CMiniTickBarDlg::SaveIniValue
PUBLIC	?SetCodeName@CMiniTickBarDlg@@UAEXHPBD0@Z	; CMiniTickBarDlg::SetCodeName
PUBLIC	?SetType@CMiniTickBarDlg@@UAEXH@Z		; CMiniTickBarDlg::SetType
PUBLIC	?MoveCodeInputCtrl@CMiniTickBarDlg@@UAEXXZ	; CMiniTickBarDlg::MoveCodeInputCtrl
PUBLIC	?SetAllPosition@CMiniTickBarDlg@@QAEXH@Z	; CMiniTickBarDlg::SetAllPosition
PUBLIC	?MoveToLeftRight@CMiniTickBarDlg@@QAEXI@Z	; CMiniTickBarDlg::MoveToLeftRight
PUBLIC	?DoDataExchange@CMiniTickBarDlg@@MAEXPAVCDataExchange@@@Z ; CMiniTickBarDlg::DoDataExchange
PUBLIC	?OnBtnConfig@CMiniTickBarDlg@@IAEXXZ		; CMiniTickBarDlg::OnBtnConfig
PUBLIC	?OnBtnMovetoleftright@CMiniTickBarDlg@@IAEXXZ	; CMiniTickBarDlg::OnBtnMovetoleftright
PUBLIC	?OnSize@CMiniTickBarDlg@@IAEXIHH@Z		; CMiniTickBarDlg::OnSize
PUBLIC	?OnBtinitial@CMiniTickBarDlg@@IAEXXZ		; CMiniTickBarDlg::OnBtinitial
PUBLIC	?OnBtn@CMiniTickBarDlg@@IAEXI@Z			; CMiniTickBarDlg::OnBtn
PUBLIC	?GetThisMessageMap@CMiniTickBarDlg@@KGPBUAFX_MSGMAP@@XZ ; CMiniTickBarDlg::GetThisMessageMap
PUBLIC	?GetMessageMap@CMiniTickBarDlg@@MBEPBUAFX_MSGMAP@@XZ ; CMiniTickBarDlg::GetMessageMap
PUBLIC	??_GCMiniTickBarDlg@@UAEPAXI@Z			; CMiniTickBarDlg::`scalar deleting destructor'
PUBLIC	??1CMiniTickBarCFG@@UAE@XZ			; CMiniTickBarCFG::~CMiniTickBarCFG
PUBLIC	??$SerializeElements@PAVCHistory@@@@YGXAAVCArchive@@PAPAVCHistory@@H@Z ; SerializeElements<CHistory *>
PUBLIC	?_OptionsStorage@?1??__local_stdio_printf_options@@9@4_KA ; `__local_stdio_printf_options'::`2'::_OptionsStorage
PUBLIC	?_OptionsStorage@?1??__local_stdio_scanf_options@@9@4_KA ; `__local_stdio_scanf_options'::`2'::_OptionsStorage
PUBLIC	??_R0PAVCException@@@8				; CException * `RTTI Type Descriptor'
PUBLIC	??_C@_02DPKJAMEF@?$CFd@				; `string'
PUBLIC	?_AtlWinModule@ATL@@3VCAtlWinModule@1@A		; ATL::_AtlWinModule
PUBLIC	??_C@_00CNPNBAHC@@				; `string'
PUBLIC	??_7CGdiObject@@6B@				; CGdiObject::`vftable'
PUBLIC	??_7CBrush@@6B@					; CBrush::`vftable'
PUBLIC	??_C@_0HD@JJCHHHNK@C?3?2Program?5Files?5?$CIx86?$CJ?2Microsof@ ; `string'
PUBLIC	??_C@_0BP@OIEOKIDM@Exception?5thrown?5in?5destructor@ ; `string'
PUBLIC	??_C@_0BB@HBOOMJBF@?$CFTs?5?$CI?$CFTs?3?$CFd?$CJ?6?$CFTs@ ; `string'
PUBLIC	??_C@_0N@OMEMOKLE@?$CFTs?5?$CI?$CFTs?3?$CFd?$CJ@ ; `string'
PUBLIC	??_R0?AVCObject@@@8				; CObject `RTTI Type Descriptor'
PUBLIC	??_R3CObject@@8					; CObject::`RTTI Class Hierarchy Descriptor'
PUBLIC	??_R2CObject@@8					; CObject::`RTTI Base Class Array'
PUBLIC	??_R1A@?0A@EA@CObject@@8			; CObject::`RTTI Base Class Descriptor at (0,-1,0,64)'
PUBLIC	??_R4CGdiObject@@6B@				; CGdiObject::`RTTI Complete Object Locator'
PUBLIC	??_R0?AVCGdiObject@@@8				; CGdiObject `RTTI Type Descriptor'
PUBLIC	??_R3CGdiObject@@8				; CGdiObject::`RTTI Class Hierarchy Descriptor'
PUBLIC	??_R2CGdiObject@@8				; CGdiObject::`RTTI Base Class Array'
PUBLIC	??_R1A@?0A@EA@CGdiObject@@8			; CGdiObject::`RTTI Base Class Descriptor at (0,-1,0,64)'
PUBLIC	??_R4CBrush@@6B@				; CBrush::`RTTI Complete Object Locator'
PUBLIC	??_R0?AVCBrush@@@8				; CBrush `RTTI Type Descriptor'
PUBLIC	??_R3CBrush@@8					; CBrush::`RTTI Class Hierarchy Descriptor'
PUBLIC	??_R2CBrush@@8					; CBrush::`RTTI Base Class Array'
PUBLIC	??_R1A@?0A@EA@CBrush@@8				; CBrush::`RTTI Base Class Descriptor at (0,-1,0,64)'
PUBLIC	??_R1A@?0A@EA@CWnd@@8				; CWnd::`RTTI Base Class Descriptor at (0,-1,0,64)'
PUBLIC	??_R0?AVCWnd@@@8				; CWnd `RTTI Type Descriptor'
PUBLIC	??_R3CWnd@@8					; CWnd::`RTTI Class Hierarchy Descriptor'
PUBLIC	??_R2CWnd@@8					; CWnd::`RTTI Base Class Array'
PUBLIC	??_R1A@?0A@EA@CCmdTarget@@8			; CCmdTarget::`RTTI Base Class Descriptor at (0,-1,0,64)'
PUBLIC	??_R0?AVCCmdTarget@@@8				; CCmdTarget `RTTI Type Descriptor'
PUBLIC	??_R3CCmdTarget@@8				; CCmdTarget::`RTTI Class Hierarchy Descriptor'
PUBLIC	??_R2CCmdTarget@@8				; CCmdTarget::`RTTI Base Class Array'
PUBLIC	??_R1A@?0A@EA@CDialog@@8			; CDialog::`RTTI Base Class Descriptor at (0,-1,0,64)'
PUBLIC	??_R0?AVCDialog@@@8				; CDialog `RTTI Type Descriptor'
PUBLIC	??_R3CDialog@@8					; CDialog::`RTTI Class Hierarchy Descriptor'
PUBLIC	??_R2CDialog@@8					; CDialog::`RTTI Base Class Array'
PUBLIC	??_7?$CList@PAVCHistory@@PAV1@@@6B@		; CList<CHistory *,CHistory *>::`vftable'
PUBLIC	??_7CMiniTickBarDlg@@6B@			; CMiniTickBarDlg::`vftable'
PUBLIC	??_C@_03FCGFIFCA@1?F?$LN@			; `string'
PUBLIC	??_C@_03NPNNABPO@1?$LK?P@			; `string'
PUBLIC	??_C@_03HFNEMJHF@3?$LK?P@			; `string'
PUBLIC	??_C@_03FALPJGKJ@5?$LK?P@			; `string'
PUBLIC	??_C@_04BMEGNPKM@10?$LK?P@			; `string'
PUBLIC	??_C@_04GGIGIMMM@30?$LK?P@			; `string'
PUBLIC	??_C@_02NNHDHLCM@?$MA?O@			; `string'
PUBLIC	??_C@_03ILNOECFE@?$LM?$LB1@			; `string'
PUBLIC	??_C@_03BJNHHNCI@?A?$LO1@			; `string'
PUBLIC	??_C@_02OKJFFJKM@?A?$LO@			; `string'
PUBLIC	??_C@_02DBCELOGA@?$LM?$LB@			; `string'
PUBLIC	??_C@_04HGGBINEM@?$CFs?$CFd@			; `string'
PUBLIC	??_C@_02MEPHBMOK@?F?$LN@			; `string'
PUBLIC	??_C@_02EJEPJIDE@?$LK?P@			; `string'
PUBLIC	??_C@_02EHLBLIAD@?A?V@				; `string'
PUBLIC	??_C@_02LMCMFDE@?$LP?y@				; `string'
PUBLIC	??_C@_04KAHAMCDL@?$LE?$NN?$LB?b@		; `string'
PUBLIC	??_C@_06PKNBDFAO@?C?J?$LB?b?H?$KN@		; `string'
PUBLIC	??_C@_0P@NJHNOOOB@?$MA?$PM?C?$LM?B?w?F?$KO?C?J?$LB?b?H?$KN@ ; `string'
PUBLIC	??_C@_09CBLDHOPD@TickBtn?$CFd@			; `string'
PUBLIC	??_C@_04JDPKJLKG@0000@				; `string'
PUBLIC	??_C@_0P@DGOJGCL@?$CFd?$DL?$CFd?$DL?$CFd?$DL?$CFd?$DL?$CFd@ ; `string'
PUBLIC	??_C@_09OJDBNEOO@CntInView@			; `string'
PUBLIC	??_C@_03MMKGDKGA@001@				; `string'
PUBLIC	??_C@_04LMJPFDLG@?$LP?$KN?$LB?b@		; `string'
PUBLIC	??_C@_0DF@DEHCJOBF@?$MA?$PM?C?$LM?5?B?w?F?$KO?$MA?G?5?H?$KP?$LA?f?$MA?L?5?C?J?$LB?b?H?$KN?5?$LF?K?$LE?O?$LE@ ; `string'
PUBLIC	??_C@_09LOKPIFAI@?B?w?F?$KO?5?$LM?$LD?A?$KE@	; `string'
PUBLIC	??_R4?$CList@PAVCHistory@@PAV1@@@6B@		; CList<CHistory *,CHistory *>::`RTTI Complete Object Locator'
PUBLIC	??_R0?AV?$CList@PAVCHistory@@PAV1@@@@8		; CList<CHistory *,CHistory *> `RTTI Type Descriptor'
PUBLIC	??_R3?$CList@PAVCHistory@@PAV1@@@8		; CList<CHistory *,CHistory *>::`RTTI Class Hierarchy Descriptor'
PUBLIC	??_R2?$CList@PAVCHistory@@PAV1@@@8		; CList<CHistory *,CHistory *>::`RTTI Base Class Array'
PUBLIC	??_R1A@?0A@EA@?$CList@PAVCHistory@@PAV1@@@8	; CList<CHistory *,CHistory *>::`RTTI Base Class Descriptor at (0,-1,0,64)'
PUBLIC	??_R4CMiniTickBarDlg@@6B@			; CMiniTickBarDlg::`RTTI Complete Object Locator'
PUBLIC	??_R0?AVCMiniTickBarDlg@@@8			; CMiniTickBarDlg `RTTI Type Descriptor'
PUBLIC	??_R3CMiniTickBarDlg@@8				; CMiniTickBarDlg::`RTTI Class Hierarchy Descriptor'
PUBLIC	??_R2CMiniTickBarDlg@@8				; CMiniTickBarDlg::`RTTI Base Class Array'
PUBLIC	??_R1A@?0A@EA@CMiniTickBarDlg@@8		; CMiniTickBarDlg::`RTTI Base Class Descriptor at (0,-1,0,64)'
PUBLIC	??_R1A@?0A@EA@CInputBarDlg@@8			; CInputBarDlg::`RTTI Base Class Descriptor at (0,-1,0,64)'
PUBLIC	??_R0?AVCInputBarDlg@@@8			; CInputBarDlg `RTTI Type Descriptor'
PUBLIC	??_R3CInputBarDlg@@8				; CInputBarDlg::`RTTI Class Hierarchy Descriptor'
PUBLIC	??_R2CInputBarDlg@@8				; CInputBarDlg::`RTTI Base Class Array'
PUBLIC	??_R1A@?0A@EA@CRscDlg@@8			; CRscDlg::`RTTI Base Class Descriptor at (0,-1,0,64)'
PUBLIC	??_R0?AVCRscDlg@@@8				; CRscDlg `RTTI Type Descriptor'
PUBLIC	??_R3CRscDlg@@8					; CRscDlg::`RTTI Class Hierarchy Descriptor'
PUBLIC	??_R2CRscDlg@@8					; CRscDlg::`RTTI Base Class Array'
EXTRN	??_L@YGXPAXIIP6EX0@Z1@Z:PROC			; `eh vector constructor iterator'
EXTRN	??_M@YGXPAXIIP6EX0@Z@Z:PROC			; `eh vector destructor iterator'
EXTRN	??3@YAXPAX@Z:PROC				; operator delete
EXTRN	??3@YAXPAXI@Z:PROC				; operator delete
EXTRN	?__global_delete@@YAXPAXI@Z:PROC		; __global_delete
EXTRN	??_U@YAPAXI@Z:PROC				; operator new[]
EXTRN	??_V@YAXPAXI@Z:PROC				; operator delete[]
EXTRN	_atexit:PROC
EXTRN	___std_terminate:PROC
EXTRN	__imp__RaiseException@16:PROC
EXTRN	__imp__GetLastError@0:PROC
EXTRN	__imp__InitializeCriticalSectionEx@12:PROC
EXTRN	__imp__DeleteCriticalSection@4:PROC
EXTRN	__imp__lstrlenA@4:PROC
EXTRN	__imp__GetPrivateProfileIntA@16:PROC
EXTRN	__imp__GetPrivateProfileStringA@24:PROC
EXTRN	__imp__WritePrivateProfileStringA@16:PROC
EXTRN	__imp__RegisterWindowMessageA@4:PROC
EXTRN	__imp__SendMessageA@16:PROC
EXTRN	__imp__UnregisterClassA@8:PROC
EXTRN	__imp__EnableWindow@8:PROC
EXTRN	__imp__InvalidateRect@12:PROC
EXTRN	__imp__GetWindowRect@8:PROC
EXTRN	__imp__OffsetRect@12:PROC
EXTRN	__imp__GetParent@4:PROC
EXTRN	__imp__GetWindow@8:PROC
EXTRN	__imp____stdio_common_vsprintf:PROC
EXTRN	__imp____stdio_common_vsscanf:PROC
EXTRN	__imp__free:PROC
EXTRN	?AfxThrowInvalidArgException@@YGXXZ:PROC	; AfxThrowInvalidArgException
EXTRN	?AfxThrowArchiveException@@YGXHPBD@Z:PROC	; AfxThrowArchiveException
EXTRN	?GetRuntimeClass@CObject@@UBEPAUCRuntimeClass@@XZ:PROC ; CObject::GetRuntimeClass
EXTRN	__imp__SysFreeString@4:PROC
EXTRN	__imp_?Empty@?$CSimpleStringT@D$00@ATL@@QAEXXZ:PROC
EXTRN	__imp_??0?$CStringT@DV?$StrTraitMFC_DLL@DV?$ChTraitsCRT@D@ATL@@@@@ATL@@QAE@XZ:PROC
EXTRN	__imp_??0?$CStringT@DV?$StrTraitMFC_DLL@DV?$ChTraitsCRT@D@ATL@@@@@ATL@@QAE@ABV01@@Z:PROC
EXTRN	__imp_??0?$CStringT@DV?$StrTraitMFC_DLL@DV?$ChTraitsCRT@D@ATL@@@@@ATL@@QAE@PBD@Z:PROC
EXTRN	__imp_??1?$CStringT@DV?$StrTraitMFC_DLL@DV?$ChTraitsCRT@D@ATL@@@@@ATL@@QAE@XZ:PROC
EXTRN	__imp_??4?$CStringT@DV?$StrTraitMFC_DLL@DV?$ChTraitsCRT@D@ATL@@@@@ATL@@QAEAAV01@ABV01@@Z:PROC
EXTRN	__imp_??4?$CStringT@DV?$StrTraitMFC_DLL@DV?$ChTraitsCRT@D@ATL@@@@@ATL@@QAEAAV01@PBD@Z:PROC
EXTRN	__imp_??Y?$CStringT@DV?$StrTraitMFC_DLL@DV?$ChTraitsCRT@D@ATL@@@@@ATL@@QAEAAV01@ABV?$CSimpleStringT@D$00@1@@Z:PROC
EXTRN	__imp_?Format@?$CStringT@DV?$StrTraitMFC_DLL@DV?$ChTraitsCRT@D@ATL@@@@@ATL@@QAAXPBDZZ:PROC
EXTRN	?Read@CArchive@@QAEIPAXI@Z:PROC			; CArchive::Read
EXTRN	?Write@CArchive@@QAEXPBXI@Z:PROC		; CArchive::Write
EXTRN	?ReadCount@CArchive@@QAEKXZ:PROC		; CArchive::ReadCount
EXTRN	?WriteCount@CArchive@@QAEXK@Z:PROC		; CArchive::WriteCount
EXTRN	??0CStringArray@@QAE@XZ:PROC			; CStringArray::CStringArray
EXTRN	??1CStringArray@@UAE@XZ:PROC			; CStringArray::~CStringArray
EXTRN	?AfxGetStaticModuleState@@YGPAVAFX_MODULE_STATE@@XZ:PROC ; AfxGetStaticModuleState
EXTRN	??0AFX_MAINTAIN_STATE2@@QAE@PAVAFX_MODULE_STATE@@@Z:PROC ; AFX_MAINTAIN_STATE2::AFX_MAINTAIN_STATE2
EXTRN	??1AFX_MAINTAIN_STATE2@@QAE@XZ:PROC		; AFX_MAINTAIN_STATE2::~AFX_MAINTAIN_STATE2
EXTRN	?Create@CPlex@@SGPAU1@AAPAU1@II@Z:PROC		; CPlex::Create
EXTRN	?FreeDataChain@CPlex@@QAEXXZ:PROC		; CPlex::FreeDataChain
EXTRN	?GetRuntimeClass@CGdiObject@@UBEPAUCRuntimeClass@@XZ:PROC ; CGdiObject::GetRuntimeClass
EXTRN	?DeleteObject@CGdiObject@@QAEHXZ:PROC		; CGdiObject::DeleteObject
EXTRN	??_ECGdiObject@@UAEPAXI@Z:PROC			; CGdiObject::`vector deleting destructor'
EXTRN	?GetRuntimeClass@CBrush@@UBEPAUCRuntimeClass@@XZ:PROC ; CBrush::GetRuntimeClass
EXTRN	??_ECBrush@@UAEPAXI@Z:PROC			; CBrush::`vector deleting destructor'
EXTRN	?DDX_Control@@YGXPAVCDataExchange@@HAAVCWnd@@@Z:PROC ; DDX_Control
EXTRN	?IsInvokeAllowed@CCmdTarget@@UAEHJ@Z:PROC	; CCmdTarget::IsInvokeAllowed
EXTRN	?GetDispatchIID@CCmdTarget@@UAEHPAU_GUID@@@Z:PROC ; CCmdTarget::GetDispatchIID
EXTRN	?GetTypeInfoCount@CCmdTarget@@UAEIXZ:PROC	; CCmdTarget::GetTypeInfoCount
EXTRN	?GetTypeLibCache@CCmdTarget@@UAEPAVCTypeLibCache@@XZ:PROC ; CCmdTarget::GetTypeLibCache
EXTRN	?GetTypeLib@CCmdTarget@@UAEJKPAPAUITypeLib@@@Z:PROC ; CCmdTarget::GetTypeLib
EXTRN	?GetCommandMap@CCmdTarget@@MBEPBUAFX_OLECMDMAP@@XZ:PROC ; CCmdTarget::GetCommandMap
EXTRN	?GetDispatchMap@CCmdTarget@@MBEPBUAFX_DISPMAP@@XZ:PROC ; CCmdTarget::GetDispatchMap
EXTRN	?GetConnectionMap@CCmdTarget@@MBEPBUAFX_CONNECTIONMAP@@XZ:PROC ; CCmdTarget::GetConnectionMap
EXTRN	?GetEventSinkMap@CCmdTarget@@MBEPBUAFX_EVENTSINKMAP@@XZ:PROC ; CCmdTarget::GetEventSinkMap
EXTRN	?OnCreateAggregates@CCmdTarget@@UAEHXZ:PROC	; CCmdTarget::OnCreateAggregates
EXTRN	?GetInterfaceHook@CCmdTarget@@UAEPAUIUnknown@@PBX@Z:PROC ; CCmdTarget::GetInterfaceHook
EXTRN	?GetExtraConnectionPoints@CCmdTarget@@MAEHPAVCPtrArray@@@Z:PROC ; CCmdTarget::GetExtraConnectionPoints
EXTRN	?GetConnectionHook@CCmdTarget@@MAEPAUIConnectionPoint@@ABU_GUID@@@Z:PROC ; CCmdTarget::GetConnectionHook
EXTRN	?FromHandle@CWnd@@SGPAV1@PAUHWND__@@@Z:PROC	; CWnd::FromHandle
EXTRN	?PreSubclassWindow@CWnd@@UAEXXZ:PROC		; CWnd::PreSubclassWindow
EXTRN	?Create@CWnd@@UAEHPBD0KABUtagRECT@@PAV1@IPAUCCreateContext@@@Z:PROC ; CWnd::Create
EXTRN	?CreateEx@CWnd@@UAEHKPBD0KHHHHPAUHWND__@@PAUHMENU__@@PAX@Z:PROC ; CWnd::CreateEx
EXTRN	?CreateEx@CWnd@@UAEHKPBD0KABUtagRECT@@PAV1@IPAX@Z:PROC ; CWnd::CreateEx
EXTRN	?DestroyWindow@CWnd@@UAEHXZ:PROC		; CWnd::DestroyWindow
EXTRN	?PreCreateWindow@CWnd@@UAEHAAUtagCREATESTRUCTA@@@Z:PROC ; CWnd::PreCreateWindow
EXTRN	?CalcWindowRect@CWnd@@UAEXPAUtagRECT@@I@Z:PROC	; CWnd::CalcWindowRect
EXTRN	?GetDlgCtrlID@CWnd@@QBEHXZ:PROC			; CWnd::GetDlgCtrlID
EXTRN	?GetDlgItem@CWnd@@QBEPAV1@H@Z:PROC		; CWnd::GetDlgItem
EXTRN	?GetMenu@CWnd@@UBEPAVCMenu@@XZ:PROC		; CWnd::GetMenu
EXTRN	?SetMenu@CWnd@@UAEHPAVCMenu@@@Z:PROC		; CWnd::SetMenu
EXTRN	?MoveWindow@CWnd@@QAEXHHHHH@Z:PROC		; CWnd::MoveWindow
EXTRN	?SetWindowPos@CWnd@@QAEHPBV1@HHHHI@Z:PROC	; CWnd::SetWindowPos
EXTRN	?ScreenToClient@CWnd@@QBEXPAUtagRECT@@@Z:PROC	; CWnd::ScreenToClient
EXTRN	?ShowWindow@CWnd@@QAEHH@Z:PROC			; CWnd::ShowWindow
EXTRN	?OnToolHitTest@CWnd@@UBEHVCPoint@@PAUtagTOOLINFOA@@@Z:PROC ; CWnd::OnToolHitTest
EXTRN	?GetScrollBarCtrl@CWnd@@UBEPAVCScrollBar@@H@Z:PROC ; CWnd::GetScrollBarCtrl
EXTRN	?MessageBoxA@CWnd@@QAEHPBD0I@Z:PROC		; CWnd::MessageBoxA
EXTRN	?WinHelpA@CWnd@@UAEXKI@Z:PROC			; CWnd::WinHelpA
EXTRN	?HtmlHelpA@CWnd@@UAEXKI@Z:PROC			; CWnd::HtmlHelpA
EXTRN	?WinHelpInternal@CWnd@@UAEXKI@Z:PROC		; CWnd::WinHelpInternal
EXTRN	?ContinueModal@CWnd@@UAEHXZ:PROC		; CWnd::ContinueModal
EXTRN	?EndModalLoop@CWnd@@UAEXH@Z:PROC		; CWnd::EndModalLoop
EXTRN	?OnDrawIconicThumbnailOrLivePreview@CWnd@@UAEXAAVCDC@@VCRect@@VCSize@@HAAH@Z:PROC ; CWnd::OnDrawIconicThumbnailOrLivePreview
EXTRN	?GetInterfaceMap@CWnd@@MBEPBUAFX_INTERFACEMAP@@XZ:PROC ; CWnd::GetInterfaceMap
EXTRN	?EnsureStdObj@CWnd@@UAEJXZ:PROC			; CWnd::EnsureStdObj
EXTRN	?get_accParent@CWnd@@UAEJPAPAUIDispatch@@@Z:PROC ; CWnd::get_accParent
EXTRN	?get_accChildCount@CWnd@@UAEJPAJ@Z:PROC		; CWnd::get_accChildCount
EXTRN	?get_accChild@CWnd@@UAEJUtagVARIANT@@PAPAUIDispatch@@@Z:PROC ; CWnd::get_accChild
EXTRN	?get_accName@CWnd@@UAEJUtagVARIANT@@PAPA_W@Z:PROC ; CWnd::get_accName
EXTRN	?get_accValue@CWnd@@UAEJUtagVARIANT@@PAPA_W@Z:PROC ; CWnd::get_accValue
EXTRN	?get_accDescription@CWnd@@UAEJUtagVARIANT@@PAPA_W@Z:PROC ; CWnd::get_accDescription
EXTRN	?get_accRole@CWnd@@UAEJUtagVARIANT@@PAU2@@Z:PROC ; CWnd::get_accRole
EXTRN	?get_accState@CWnd@@UAEJUtagVARIANT@@PAU2@@Z:PROC ; CWnd::get_accState
EXTRN	?get_accHelp@CWnd@@UAEJUtagVARIANT@@PAPA_W@Z:PROC ; CWnd::get_accHelp
EXTRN	?get_accHelpTopic@CWnd@@UAEJPAPA_WUtagVARIANT@@PAJ@Z:PROC ; CWnd::get_accHelpTopic
EXTRN	?get_accKeyboardShortcut@CWnd@@UAEJUtagVARIANT@@PAPA_W@Z:PROC ; CWnd::get_accKeyboardShortcut
EXTRN	?get_accFocus@CWnd@@UAEJPAUtagVARIANT@@@Z:PROC	; CWnd::get_accFocus
EXTRN	?get_accSelection@CWnd@@UAEJPAUtagVARIANT@@@Z:PROC ; CWnd::get_accSelection
EXTRN	?get_accDefaultAction@CWnd@@UAEJUtagVARIANT@@PAPA_W@Z:PROC ; CWnd::get_accDefaultAction
EXTRN	?accSelect@CWnd@@UAEJJUtagVARIANT@@@Z:PROC	; CWnd::accSelect
EXTRN	?accLocation@CWnd@@UAEJPAJ000UtagVARIANT@@@Z:PROC ; CWnd::accLocation
EXTRN	?accNavigate@CWnd@@UAEJJUtagVARIANT@@PAU2@@Z:PROC ; CWnd::accNavigate
EXTRN	?accHitTest@CWnd@@UAEJJJPAUtagVARIANT@@@Z:PROC	; CWnd::accHitTest
EXTRN	?accDoDefaultAction@CWnd@@UAEJUtagVARIANT@@@Z:PROC ; CWnd::accDoDefaultAction
EXTRN	?put_accName@CWnd@@UAEJUtagVARIANT@@PA_W@Z:PROC	; CWnd::put_accName
EXTRN	?put_accValue@CWnd@@UAEJUtagVARIANT@@PA_W@Z:PROC ; CWnd::put_accValue
EXTRN	?SetProxy@CWnd@@UAEJPAUIAccessibleProxy@@@Z:PROC ; CWnd::SetProxy
EXTRN	?CreateAccessibleProxy@CWnd@@UAEJIJPAJ@Z:PROC	; CWnd::CreateAccessibleProxy
EXTRN	?OnNotify@CWnd@@MAEHIJPAJ@Z:PROC		; CWnd::OnNotify
EXTRN	?GetSuperWndProcAddr@CWnd@@MAEPAP6GJPAUHWND__@@IIJ@ZXZ:PROC ; CWnd::GetSuperWndProcAddr
EXTRN	?OnAmbientProperty@CWnd@@UAEHPAVCOleControlSite@@JPAUtagVARIANT@@@Z:PROC ; CWnd::OnAmbientProperty
EXTRN	?OnWndMsg@CWnd@@MAEHIIJPAJ@Z:PROC		; CWnd::OnWndMsg
EXTRN	?DefWindowProcA@CWnd@@MAEJIIJ@Z:PROC		; CWnd::DefWindowProcA
EXTRN	?PostNcDestroy@CWnd@@MAEXXZ:PROC		; CWnd::PostNcDestroy
EXTRN	?OnChildNotify@CWnd@@MAEHIIJPAJ@Z:PROC		; CWnd::OnChildNotify
EXTRN	?OnTouchInputs@CWnd@@MAEHIPAUtagTOUCHINPUT@@@Z:PROC ; CWnd::OnTouchInputs
EXTRN	?OnTouchInput@CWnd@@MAEHVCPoint@@HHPAUtagTOUCHINPUT@@@Z:PROC ; CWnd::OnTouchInput
EXTRN	?GetGestureStatus@CWnd@@MAEKVCPoint@@@Z:PROC	; CWnd::GetGestureStatus
EXTRN	?OnGestureZoom@CWnd@@MAEHVCPoint@@J@Z:PROC	; CWnd::OnGestureZoom
EXTRN	?OnGesturePan@CWnd@@MAEHVCPoint@@0@Z:PROC	; CWnd::OnGesturePan
EXTRN	?OnGestureRotate@CWnd@@MAEHVCPoint@@N@Z:PROC	; CWnd::OnGestureRotate
EXTRN	?OnGestureTwoFingerTap@CWnd@@MAEHVCPoint@@@Z:PROC ; CWnd::OnGestureTwoFingerTap
EXTRN	?OnGesturePressAndTap@CWnd@@MAEHVCPoint@@J@Z:PROC ; CWnd::OnGesturePressAndTap
EXTRN	?ResizeDynamicLayout@CWnd@@MAEXXZ:PROC		; CWnd::ResizeDynamicLayout
EXTRN	?IsFrameWnd@CWnd@@UBEHXZ:PROC			; CWnd::IsFrameWnd
EXTRN	?OnFinalRelease@CWnd@@UAEXXZ:PROC		; CWnd::OnFinalRelease
EXTRN	?CreateControlContainer@CWnd@@MAEHPAPAVCOleControlContainer@@@Z:PROC ; CWnd::CreateControlContainer
EXTRN	?CreateControlSite@CWnd@@MAEHPAVCOleControlContainer@@PAPAVCOleControlSite@@IABU_GUID@@@Z:PROC ; CWnd::CreateControlSite
EXTRN	?GetRuntimeClass@CDialog@@UBEPAUCRuntimeClass@@XZ:PROC ; CDialog::GetRuntimeClass
EXTRN	?Create@CDialog@@UAEHPBDPAVCWnd@@@Z:PROC	; CDialog::Create
EXTRN	?CreateIndirect@CDialog@@UAEHPBUDLGTEMPLATE@@PAVCWnd@@PAX@Z:PROC ; CDialog::CreateIndirect
EXTRN	?CreateIndirect@CDialog@@UAEHPAXPAVCWnd@@@Z:PROC ; CDialog::CreateIndirect
EXTRN	?DoModal@CDialog@@UAEHXZ:PROC			; CDialog::DoModal
EXTRN	?OnSetFont@CDialog@@UAEXPAVCFont@@@Z:PROC	; CDialog::OnSetFont
EXTRN	??1CDialog@@UAE@XZ:PROC				; CDialog::~CDialog
EXTRN	?OnCmdMsg@CDialog@@UAEHIHPAXPAUAFX_CMDHANDLERINFO@@@Z:PROC ; CDialog::OnCmdMsg
EXTRN	?CheckAutoCenter@CDialog@@UAEHXZ:PROC		; CDialog::CheckAutoCenter
EXTRN	?SetOccDialogInfo@CDialog@@MAEHPAU_AFX_OCC_DIALOG_INFO@@@Z:PROC ; CDialog::SetOccDialogInfo
EXTRN	?GetOccDialogInfo@CDialog@@MAEPAU_AFX_OCC_DIALOG_INFO@@XZ:PROC ; CDialog::GetOccDialogInfo
EXTRN	?PreInitDialog@CDialog@@MAEXXZ:PROC		; CDialog::PreInitDialog
EXTRN	??1CStatic@@UAE@XZ:PROC				; CStatic::~CStatic
EXTRN	??1CButton@@UAE@XZ:PROC				; CButton::~CButton
EXTRN	??1CComboBox@@UAE@XZ:PROC			; CComboBox::~CComboBox
EXTRN	?AfxMessageBox@@YGHPBDII@Z:PROC			; AfxMessageBox
EXTRN	??1CSpinButtonCtrl@@UAE@XZ:PROC			; CSpinButtonCtrl::~CSpinButtonCtrl
EXTRN	?Create@CRscDlg@@UAEHIPAVCWnd@@@Z:PROC		; CRscDlg::Create
EXTRN	?DoModal@CRscDlg@@UAEHXZ:PROC			; CRscDlg::DoModal
EXTRN	?DoDataExchange@CRscDlg@@MAEXPAVCDataExchange@@@Z:PROC ; CRscDlg::DoDataExchange
EXTRN	??1CExComboBox@@UAE@XZ:PROC			; CExComboBox::~CExComboBox
EXTRN	??1CExEdit@@UAE@XZ:PROC				; CExEdit::~CExEdit
EXTRN	?SetText@CExStatic@@QAEXPBD@Z:PROC		; CExStatic::SetText
EXTRN	??1CExStatic@@UAE@XZ:PROC			; CExStatic::~CExStatic
EXTRN	??1CEditUsr@@UAE@XZ:PROC			; CEditUsr::~CEditUsr
EXTRN	??0CILButton@@QAE@XZ:PROC			; CILButton::CILButton
EXTRN	?FP_vSetImage@CILButton@@QAEXPAVCImageList@@HHHV?$CStringT@DV?$StrTraitMFC_DLL@DV?$ChTraitsCRT@D@ATL@@@@@ATL@@HHH@Z:PROC ; CILButton::FP_vSetImage
EXTRN	?SetCheck@CILButton@@QAEXH@Z:PROC		; CILButton::SetCheck
EXTRN	?GetCheck@CILButton@@QAEHXZ:PROC		; CILButton::GetCheck
EXTRN	?FP_vSetToolTipText@CILButton@@QAEXV?$CStringT@DV?$StrTraitMFC_DLL@DV?$ChTraitsCRT@D@ATL@@@@@ATL@@@Z:PROC ; CILButton::FP_vSetToolTipText
EXTRN	??1CILButton@@UAE@XZ:PROC			; CILButton::~CILButton
EXTRN	??1CTextProgressCtrl@@UAE@XZ:PROC		; CTextProgressCtrl::~CTextProgressCtrl
EXTRN	?GetCurrentCode@CInputBarDlg@@QAE?AV?$CStringT@DV?$StrTraitMFC_DLL@DV?$ChTraitsCRT@D@ATL@@@@@ATL@@XZ:PROC ; CInputBarDlg::GetCurrentCode
EXTRN	??0CInputBarDlg@@QAE@PAVCWnd@@@Z:PROC		; CInputBarDlg::CInputBarDlg
EXTRN	?PreTranslateMessage@CInputBarDlg@@UAEHPAUtagMSG@@@Z:PROC ; CInputBarDlg::PreTranslateMessage
EXTRN	?WindowProc@CInputBarDlg@@MAEJIIJ@Z:PROC	; CInputBarDlg::WindowProc
EXTRN	?LoadValue@CInputBarDlg@@IAEXXZ:PROC		; CInputBarDlg::LoadValue
EXTRN	??_E?$CList@PAVCHistory@@PAV1@@@UAEPAXI@Z:PROC	; CList<CHistory *,CHistory *>::`vector deleting destructor'
EXTRN	?GetEndDate@CInputBarDlg@@QAEHXZ:PROC		; CInputBarDlg::GetEndDate
EXTRN	?GetTypeNumber@CInputBarDlg@@UAEJXZ:PROC	; CInputBarDlg::GetTypeNumber
EXTRN	?OnCommand@CInputBarDlg@@MAEHIJ@Z:PROC		; CInputBarDlg::OnCommand
EXTRN	?OnInitDialog@CInputBarDlg@@MAEHXZ:PROC		; CInputBarDlg::OnInitDialog
EXTRN	?GetThisMessageMap@CInputBarDlg@@KGPBUAFX_MSGMAP@@XZ:PROC ; CInputBarDlg::GetThisMessageMap
EXTRN	??_ECMiniTickBarDlg@@UAEPAXI@Z:PROC		; CMiniTickBarDlg::`vector deleting destructor'
EXTRN	?ChangeStockMode@CStdDialog@@QAEXH@Z:PROC	; CStdDialog::ChangeStockMode
EXTRN	??0CCodeDataFromInputBar@@QAE@XZ:PROC		; CCodeDataFromInputBar::CCodeDataFromInputBar
EXTRN	??1CCodeDataFromInputBar@@UAE@XZ:PROC		; CCodeDataFromInputBar::~CCodeDataFromInputBar
EXTRN	??0CMiniTickBarCFG@@QAE@PAVCSetTickButton@@PAVCWnd@@@Z:PROC ; CMiniTickBarCFG::CMiniTickBarCFG
EXTRN	@__security_check_cookie@4:PROC
EXTRN	___CxxFrameHandler3:PROC
EXTRN	??_7type_info@@6B@:QWORD			; type_info::`vftable'
EXTRN	?m_ImgList_W20H20@CStdDialog@@2VCImageList@@A:QWORD ; CStdDialog::m_ImgList_W20H20
EXTRN	?m_ImgList_W46H20@CStdDialog@@2VCImageList@@A:QWORD ; CStdDialog::m_ImgList_W46H20
EXTRN	___security_cookie:DWORD
;	COMDAT ?_OptionsStorage@?1??__local_stdio_printf_options@@9@4_KA
_BSS	SEGMENT
?_OptionsStorage@?1??__local_stdio_printf_options@@9@4_KA DQ 01H DUP (?) ; `__local_stdio_printf_options'::`2'::_OptionsStorage
_BSS	ENDS
;	COMDAT ?_OptionsStorage@?1??__local_stdio_scanf_options@@9@4_KA
_BSS	SEGMENT
?_OptionsStorage@?1??__local_stdio_scanf_options@@9@4_KA DQ 01H DUP (?) ; `__local_stdio_scanf_options'::`2'::_OptionsStorage
_BSS	ENDS
_BSS	SEGMENT
?RMSG_REPLAY_REAL@@3IB DD 01H DUP (?)			; RMSG_REPLAY_REAL
?RMSG_REPLAY_FAIL@@3IB DD 01H DUP (?)			; RMSG_REPLAY_FAIL
?RMSG_REPLAY_CHANGE_DATE@@3IB DD 01H DUP (?)		; RMSG_REPLAY_CHANGE_DATE
?RMSG_REPLAY_END@@3IB DD 01H DUP (?)			; RMSG_REPLAY_END
?RMSG_REPLAY_INC_SEC@@3IB DD 01H DUP (?)		; RMSG_REPLAY_INC_SEC
?RMSG_REPLAY_TOTAL_SEC@@3IB DD 01H DUP (?)		; RMSG_REPLAY_TOTAL_SEC
?RMSG_GETSIGNAL_REAL@@3IB DD 01H DUP (?)		; RMSG_GETSIGNAL_REAL
?RMSG_SETQUERYOPT@@3IB DD 01H DUP (?)			; RMSG_SETQUERYOPT
?RMSG_CHARTMAIN@@3IB DD 01H DUP (?)			; RMSG_CHARTMAIN
?RMS_ANALYSIS_FUNC@@3IB DD 01H DUP (?)			; RMS_ANALYSIS_FUNC
?RMSG_GET_USERID@@3IB DD 01H DUP (?)			; RMSG_GET_USERID
?RMSG_CHANGE_SKINCOLOR@@3IB DD 01H DUP (?)		; RMSG_CHANGE_SKINCOLOR
?RMSG_GET_SKINCOLOR@@3IB DD 01H DUP (?)			; RMSG_GET_SKINCOLOR
?RMSG_CHANGEVERTSCALETYPE@@3IB DD 01H DUP (?)		; RMSG_CHANGEVERTSCALETYPE
?RMSG_CHANGE_CROSSLINE@@3IB DD 01H DUP (?)		; RMSG_CHANGE_CROSSLINE
?RMSG_ADD_PLATFORM_MENU@@3IB DD 01H DUP (?)		; RMSG_ADD_PLATFORM_MENU
?RMSG_SETINITIALCHARTDATA@@3IB DD 01H DUP (?)		; RMSG_SETINITIALCHARTDATA
?RMSG_GETINFO@@3IB DD 01H DUP (?)			; RMSG_GETINFO
?RMSG_SETINFO@@3IB DD 01H DUP (?)			; RMSG_SETINFO
_BSS	ENDS
;	COMDAT CRT$XCU
CRT$XCU	SEGMENT
?_AtlWinModule$initializer$@ATL@@3P6AXXZA DD FLAT:??__E_AtlWinModule@ATL@@YAXXZ ; ATL::_AtlWinModule$initializer$
CRT$XCU	ENDS
;	COMDAT ??_R2CRscDlg@@8
rdata$r	SEGMENT
??_R2CRscDlg@@8 DD FLAT:??_R1A@?0A@EA@CRscDlg@@8	; CRscDlg::`RTTI Base Class Array'
	DD	FLAT:??_R1A@?0A@EA@CDialog@@8
	DD	FLAT:??_R1A@?0A@EA@CWnd@@8
	DD	FLAT:??_R1A@?0A@EA@CCmdTarget@@8
	DD	FLAT:??_R1A@?0A@EA@CObject@@8
rdata$r	ENDS
;	COMDAT ??_R3CRscDlg@@8
rdata$r	SEGMENT
??_R3CRscDlg@@8 DD 00H					; CRscDlg::`RTTI Class Hierarchy Descriptor'
	DD	00H
	DD	05H
	DD	FLAT:??_R2CRscDlg@@8
rdata$r	ENDS
;	COMDAT ??_R0?AVCRscDlg@@@8
data$rs	SEGMENT
??_R0?AVCRscDlg@@@8 DD FLAT:??_7type_info@@6B@		; CRscDlg `RTTI Type Descriptor'
	DD	00H
	DB	'.?AVCRscDlg@@', 00H
data$rs	ENDS
;	COMDAT ??_R1A@?0A@EA@CRscDlg@@8
rdata$r	SEGMENT
??_R1A@?0A@EA@CRscDlg@@8 DD FLAT:??_R0?AVCRscDlg@@@8	; CRscDlg::`RTTI Base Class Descriptor at (0,-1,0,64)'
	DD	04H
	DD	00H
	DD	0ffffffffH
	DD	00H
	DD	040H
	DD	FLAT:??_R3CRscDlg@@8
rdata$r	ENDS
;	COMDAT ??_R2CInputBarDlg@@8
rdata$r	SEGMENT
??_R2CInputBarDlg@@8 DD FLAT:??_R1A@?0A@EA@CInputBarDlg@@8 ; CInputBarDlg::`RTTI Base Class Array'
	DD	FLAT:??_R1A@?0A@EA@CRscDlg@@8
	DD	FLAT:??_R1A@?0A@EA@CDialog@@8
	DD	FLAT:??_R1A@?0A@EA@CWnd@@8
	DD	FLAT:??_R1A@?0A@EA@CCmdTarget@@8
	DD	FLAT:??_R1A@?0A@EA@CObject@@8
rdata$r	ENDS
;	COMDAT ??_R3CInputBarDlg@@8
rdata$r	SEGMENT
??_R3CInputBarDlg@@8 DD 00H				; CInputBarDlg::`RTTI Class Hierarchy Descriptor'
	DD	00H
	DD	06H
	DD	FLAT:??_R2CInputBarDlg@@8
rdata$r	ENDS
;	COMDAT ??_R0?AVCInputBarDlg@@@8
data$rs	SEGMENT
??_R0?AVCInputBarDlg@@@8 DD FLAT:??_7type_info@@6B@	; CInputBarDlg `RTTI Type Descriptor'
	DD	00H
	DB	'.?AVCInputBarDlg@@', 00H
data$rs	ENDS
;	COMDAT ??_R1A@?0A@EA@CInputBarDlg@@8
rdata$r	SEGMENT
??_R1A@?0A@EA@CInputBarDlg@@8 DD FLAT:??_R0?AVCInputBarDlg@@@8 ; CInputBarDlg::`RTTI Base Class Descriptor at (0,-1,0,64)'
	DD	05H
	DD	00H
	DD	0ffffffffH
	DD	00H
	DD	040H
	DD	FLAT:??_R3CInputBarDlg@@8
rdata$r	ENDS
;	COMDAT ??_R1A@?0A@EA@CMiniTickBarDlg@@8
rdata$r	SEGMENT
??_R1A@?0A@EA@CMiniTickBarDlg@@8 DD FLAT:??_R0?AVCMiniTickBarDlg@@@8 ; CMiniTickBarDlg::`RTTI Base Class Descriptor at (0,-1,0,64)'
	DD	06H
	DD	00H
	DD	0ffffffffH
	DD	00H
	DD	040H
	DD	FLAT:??_R3CMiniTickBarDlg@@8
rdata$r	ENDS
;	COMDAT ??_R2CMiniTickBarDlg@@8
rdata$r	SEGMENT
??_R2CMiniTickBarDlg@@8 DD FLAT:??_R1A@?0A@EA@CMiniTickBarDlg@@8 ; CMiniTickBarDlg::`RTTI Base Class Array'
	DD	FLAT:??_R1A@?0A@EA@CInputBarDlg@@8
	DD	FLAT:??_R1A@?0A@EA@CRscDlg@@8
	DD	FLAT:??_R1A@?0A@EA@CDialog@@8
	DD	FLAT:??_R1A@?0A@EA@CWnd@@8
	DD	FLAT:??_R1A@?0A@EA@CCmdTarget@@8
	DD	FLAT:??_R1A@?0A@EA@CObject@@8
rdata$r	ENDS
;	COMDAT ??_R3CMiniTickBarDlg@@8
rdata$r	SEGMENT
??_R3CMiniTickBarDlg@@8 DD 00H				; CMiniTickBarDlg::`RTTI Class Hierarchy Descriptor'
	DD	00H
	DD	07H
	DD	FLAT:??_R2CMiniTickBarDlg@@8
rdata$r	ENDS
;	COMDAT ??_R0?AVCMiniTickBarDlg@@@8
data$rs	SEGMENT
??_R0?AVCMiniTickBarDlg@@@8 DD FLAT:??_7type_info@@6B@	; CMiniTickBarDlg `RTTI Type Descriptor'
	DD	00H
	DB	'.?AVCMiniTickBarDlg@@', 00H
data$rs	ENDS
;	COMDAT ??_R4CMiniTickBarDlg@@6B@
rdata$r	SEGMENT
??_R4CMiniTickBarDlg@@6B@ DD 00H			; CMiniTickBarDlg::`RTTI Complete Object Locator'
	DD	00H
	DD	00H
	DD	FLAT:??_R0?AVCMiniTickBarDlg@@@8
	DD	FLAT:??_R3CMiniTickBarDlg@@8
rdata$r	ENDS
;	COMDAT ??_R1A@?0A@EA@?$CList@PAVCHistory@@PAV1@@@8
rdata$r	SEGMENT
??_R1A@?0A@EA@?$CList@PAVCHistory@@PAV1@@@8 DD FLAT:??_R0?AV?$CList@PAVCHistory@@PAV1@@@@8 ; CList<CHistory *,CHistory *>::`RTTI Base Class Descriptor at (0,-1,0,64)'
	DD	01H
	DD	00H
	DD	0ffffffffH
	DD	00H
	DD	040H
	DD	FLAT:??_R3?$CList@PAVCHistory@@PAV1@@@8
rdata$r	ENDS
;	COMDAT ??_R2?$CList@PAVCHistory@@PAV1@@@8
rdata$r	SEGMENT
??_R2?$CList@PAVCHistory@@PAV1@@@8 DD FLAT:??_R1A@?0A@EA@?$CList@PAVCHistory@@PAV1@@@8 ; CList<CHistory *,CHistory *>::`RTTI Base Class Array'
	DD	FLAT:??_R1A@?0A@EA@CObject@@8
rdata$r	ENDS
;	COMDAT ??_R3?$CList@PAVCHistory@@PAV1@@@8
rdata$r	SEGMENT
??_R3?$CList@PAVCHistory@@PAV1@@@8 DD 00H		; CList<CHistory *,CHistory *>::`RTTI Class Hierarchy Descriptor'
	DD	00H
	DD	02H
	DD	FLAT:??_R2?$CList@PAVCHistory@@PAV1@@@8
rdata$r	ENDS
;	COMDAT ??_R0?AV?$CList@PAVCHistory@@PAV1@@@@8
data$rs	SEGMENT
??_R0?AV?$CList@PAVCHistory@@PAV1@@@@8 DD FLAT:??_7type_info@@6B@ ; CList<CHistory *,CHistory *> `RTTI Type Descriptor'
	DD	00H
	DB	'.?AV?$CList@PAVCHistory@@PAV1@@@', 00H
data$rs	ENDS
;	COMDAT ??_R4?$CList@PAVCHistory@@PAV1@@@6B@
rdata$r	SEGMENT
??_R4?$CList@PAVCHistory@@PAV1@@@6B@ DD 00H		; CList<CHistory *,CHistory *>::`RTTI Complete Object Locator'
	DD	00H
	DD	00H
	DD	FLAT:??_R0?AV?$CList@PAVCHistory@@PAV1@@@@8
	DD	FLAT:??_R3?$CList@PAVCHistory@@PAV1@@@8
rdata$r	ENDS
;	COMDAT ??_C@_09LOKPIFAI@?B?w?F?$KO?5?$LM?$LD?A?$KE@
CONST	SEGMENT
??_C@_09LOKPIFAI@?B?w?F?$KO?5?$LM?$LD?A?$KE@ DB 0c2H, 0f7H, 0c6H, 0aeH, ' '
	DB	0bcH, 0b3H, 0c1H, 0a4H, 00H			; `string'
CONST	ENDS
;	COMDAT ??_C@_0DF@DEHCJOBF@?$MA?$PM?C?$LM?5?B?w?F?$KO?$MA?G?5?H?$KP?$LA?f?$MA?L?5?C?J?$LB?b?H?$KN?5?$LF?K?$LE?O?$LE@
CONST	SEGMENT
??_C@_0DF@DEHCJOBF@?$MA?$PM?C?$LM?5?B?w?F?$KO?$MA?G?5?H?$KP?$LA?f?$MA?L?5?C?J?$LB?b?H?$KN?5?$LF?K?$LE?O?$LE@ DB 0c0H
	DB	0fcH, 0c3H, 0bcH, ' ', 0c2H, 0f7H, 0c6H, 0aeH, 0c0H, 0c7H, ' ', 0c8H
	DB	0afH, 0b0H, 0e6H, 0c0H, 0ccH, ' ', 0c3H, 0caH, 0b1H, 0e2H, 0c8H
	DB	0adH, ' ', 0b5H, 0cbH, 0b4H, 0cfH, 0b4H, 0d9H, '. ', 0b0H, 0e8H
	DB	0bcH, 0d3H, ' ', 0c7H, 0cfH, 0bdH, 0c3H, 0b0H, 0daH, 0bdH, 0c0H
	DB	0b4H, 0cfH, 0b1H, 0eeH, '?', 00H		; `string'
CONST	ENDS
;	COMDAT ??_C@_04LMJPFDLG@?$LP?$KN?$LB?b@
CONST	SEGMENT
??_C@_04LMJPFDLG@?$LP?$KN?$LB?b@ DB 0bfH, 0adH, 0b1H, 0e2H, 00H ; `string'
CONST	ENDS
;	COMDAT ??_C@_03MMKGDKGA@001@
CONST	SEGMENT
??_C@_03MMKGDKGA@001@ DB '001', 00H			; `string'
CONST	ENDS
;	COMDAT ??_C@_09OJDBNEOO@CntInView@
CONST	SEGMENT
??_C@_09OJDBNEOO@CntInView@ DB 'CntInView', 00H		; `string'
CONST	ENDS
;	COMDAT ??_C@_0P@DGOJGCL@?$CFd?$DL?$CFd?$DL?$CFd?$DL?$CFd?$DL?$CFd@
CONST	SEGMENT
??_C@_0P@DGOJGCL@?$CFd?$DL?$CFd?$DL?$CFd?$DL?$CFd?$DL?$CFd@ DB '%d;%d;%d;'
	DB	'%d;%d', 00H					; `string'
CONST	ENDS
;	COMDAT ??_C@_04JDPKJLKG@0000@
CONST	SEGMENT
??_C@_04JDPKJLKG@0000@ DB '0000', 00H			; `string'
CONST	ENDS
;	COMDAT ??_C@_09CBLDHOPD@TickBtn?$CFd@
CONST	SEGMENT
??_C@_09CBLDHOPD@TickBtn?$CFd@ DB 'TickBtn%d', 00H	; `string'
CONST	ENDS
;	COMDAT ??_C@_0P@NJHNOOOB@?$MA?$PM?C?$LM?B?w?F?$KO?C?J?$LB?b?H?$KN@
CONST	SEGMENT
??_C@_0P@NJHNOOOB@?$MA?$PM?C?$LM?B?w?F?$KO?C?J?$LB?b?H?$KN@ DB 0c0H, 0fcH
	DB	0c3H, 0bcH, 0c2H, 0f7H, 0c6H, 0aeH, 0c3H, 0caH, 0b1H, 0e2H, 0c8H
	DB	0adH, 00H					; `string'
CONST	ENDS
;	COMDAT ??_C@_06PKNBDFAO@?C?J?$LB?b?H?$KN@
CONST	SEGMENT
??_C@_06PKNBDFAO@?C?J?$LB?b?H?$KN@ DB 0c3H, 0caH, 0b1H, 0e2H, 0c8H, 0adH, 00H ; `string'
CONST	ENDS
;	COMDAT ??_C@_04KAHAMCDL@?$LE?$NN?$LB?b@
CONST	SEGMENT
??_C@_04KAHAMCDL@?$LE?$NN?$LB?b@ DB 0b4H, 0ddH, 0b1H, 0e2H, 00H ; `string'
CONST	ENDS
;	COMDAT ?messageMap@?1??GetThisMessageMap@CMiniTickBarDlg@@KGPBUAFX_MSGMAP@@XZ@4U3@B
CONST	SEGMENT
?messageMap@?1??GetThisMessageMap@CMiniTickBarDlg@@KGPBUAFX_MSGMAP@@XZ@4U3@B DD FLAT:?GetThisMessageMap@CInputBarDlg@@KGPBUAFX_MSGMAP@@XZ ; `CMiniTickBarDlg::GetThisMessageMap'::`2'::messageMap
	DD	FLAT:?_messageEntries@?1??GetThisMessageMap@CMiniTickBarDlg@@KGPBUAFX_MSGMAP@@XZ@4QBUAFX_MSGMAP_ENTRY@@B
CONST	ENDS
;	COMDAT ?_messageEntries@?1??GetThisMessageMap@CMiniTickBarDlg@@KGPBUAFX_MSGMAP@@XZ@4QBUAFX_MSGMAP_ENTRY@@B
CONST	SEGMENT
?_messageEntries@?1??GetThisMessageMap@CMiniTickBarDlg@@KGPBUAFX_MSGMAP@@XZ@4QBUAFX_MSGMAP_ENTRY@@B DD 0111H ; `CMiniTickBarDlg::GetThisMessageMap'::`2'::_messageEntries
	DD	00H
	DD	01899H
	DD	01899H
	DD	03aH
	DD	FLAT:?OnBtnConfig@CMiniTickBarDlg@@IAEXXZ
	DD	0111H
	DD	00H
	DD	01891H
	DD	01891H
	DD	03aH
	DD	FLAT:?OnBtnMovetoleftright@CMiniTickBarDlg@@IAEXXZ
	DD	05H
	DD	00H
	DD	00H
	DD	00H
	DD	01aH
	DD	FLAT:?OnSize@CMiniTickBarDlg@@IAEXIHH@Z
	DD	0111H
	DD	00H
	DD	0180bH
	DD	0180bH
	DD	03aH
	DD	FLAT:?OnBtinitial@CMiniTickBarDlg@@IAEXXZ
	DD	0111H
	DD	00H
	DD	018f6H
	DD	018feH
	DD	03cH
	DD	FLAT:?OnBtn@CMiniTickBarDlg@@IAEXI@Z
	DD	00H
	DD	00H
	DD	00H
	DD	00H
	DD	00H
	DD	00H
CONST	ENDS
;	COMDAT ??_C@_02LMCMFDE@?$LP?y@
CONST	SEGMENT
??_C@_02LMCMFDE@?$LP?y@ DB 0bfH, 0f9H, 00H		; `string'
CONST	ENDS
;	COMDAT ??_C@_02EHLBLIAD@?A?V@
CONST	SEGMENT
??_C@_02EHLBLIAD@?A?V@ DB 0c1H, 0d6H, 00H		; `string'
CONST	ENDS
;	COMDAT ??_C@_02EJEPJIDE@?$LK?P@
CONST	SEGMENT
??_C@_02EJEPJIDE@?$LK?P@ DB 0baH, 0d0H, 00H		; `string'
CONST	ENDS
;	COMDAT ??_C@_02MEPHBMOK@?F?$LN@
CONST	SEGMENT
??_C@_02MEPHBMOK@?F?$LN@ DB 0c6H, 0bdH, 00H		; `string'
CONST	ENDS
;	COMDAT ??_C@_04HGGBINEM@?$CFs?$CFd@
CONST	SEGMENT
??_C@_04HGGBINEM@?$CFs?$CFd@ DB '%s%d', 00H		; `string'
CONST	ENDS
;	COMDAT ??_C@_02DBCELOGA@?$LM?$LB@
CONST	SEGMENT
??_C@_02DBCELOGA@?$LM?$LB@ DB 0bcH, 0b1H, 00H		; `string'
CONST	ENDS
;	COMDAT ??_C@_02OKJFFJKM@?A?$LO@
CONST	SEGMENT
??_C@_02OKJFFJKM@?A?$LO@ DB 0c1H, 0beH, 00H		; `string'
CONST	ENDS
;	COMDAT ??_C@_03BJNHHNCI@?A?$LO1@
CONST	SEGMENT
??_C@_03BJNHHNCI@?A?$LO1@ DB 0c1H, 0beH, '1', 00H	; `string'
CONST	ENDS
;	COMDAT ??_C@_03ILNOECFE@?$LM?$LB1@
CONST	SEGMENT
??_C@_03ILNOECFE@?$LM?$LB1@ DB 0bcH, 0b1H, '1', 00H	; `string'
CONST	ENDS
;	COMDAT ??_C@_02NNHDHLCM@?$MA?O@
CONST	SEGMENT
??_C@_02NNHDHLCM@?$MA?O@ DB 0c0H, 0cfH, 00H		; `string'
CONST	ENDS
;	COMDAT ??_C@_04GGIGIMMM@30?$LK?P@
CONST	SEGMENT
??_C@_04GGIGIMMM@30?$LK?P@ DB '30', 0baH, 0d0H, 00H	; `string'
CONST	ENDS
;	COMDAT ??_C@_04BMEGNPKM@10?$LK?P@
CONST	SEGMENT
??_C@_04BMEGNPKM@10?$LK?P@ DB '10', 0baH, 0d0H, 00H	; `string'
CONST	ENDS
;	COMDAT ??_C@_03FALPJGKJ@5?$LK?P@
CONST	SEGMENT
??_C@_03FALPJGKJ@5?$LK?P@ DB '5', 0baH, 0d0H, 00H	; `string'
CONST	ENDS
;	COMDAT ??_C@_03HFNEMJHF@3?$LK?P@
CONST	SEGMENT
??_C@_03HFNEMJHF@3?$LK?P@ DB '3', 0baH, 0d0H, 00H	; `string'
CONST	ENDS
;	COMDAT ??_C@_03NPNNABPO@1?$LK?P@
CONST	SEGMENT
??_C@_03NPNNABPO@1?$LK?P@ DB '1', 0baH, 0d0H, 00H	; `string'
CONST	ENDS
;	COMDAT ??_C@_03FCGFIFCA@1?F?$LN@
CONST	SEGMENT
??_C@_03FCGFIFCA@1?F?$LN@ DB '1', 0c6H, 0bdH, 00H	; `string'
CONST	ENDS
;	COMDAT ??_7CMiniTickBarDlg@@6B@
CONST	SEGMENT
??_7CMiniTickBarDlg@@6B@ DD FLAT:??_R4CMiniTickBarDlg@@6B@ ; CMiniTickBarDlg::`vftable'
	DD	FLAT:?GetRuntimeClass@CDialog@@UBEPAUCRuntimeClass@@XZ
	DD	FLAT:??_ECMiniTickBarDlg@@UAEPAXI@Z
	DD	FLAT:?Serialize@CObject@@UAEXAAVCArchive@@@Z
	DD	FLAT:?AssertValid@CObject@@UBEXXZ
	DD	FLAT:?Dump@CObject@@UBEXAAVCDumpContext@@@Z
	DD	FLAT:?OnCmdMsg@CDialog@@UAEHIHPAXPAUAFX_CMDHANDLERINFO@@@Z
	DD	FLAT:?OnFinalRelease@CWnd@@UAEXXZ
	DD	FLAT:?IsInvokeAllowed@CCmdTarget@@UAEHJ@Z
	DD	FLAT:?GetDispatchIID@CCmdTarget@@UAEHPAU_GUID@@@Z
	DD	FLAT:?GetTypeInfoCount@CCmdTarget@@UAEIXZ
	DD	FLAT:?GetTypeLibCache@CCmdTarget@@UAEPAVCTypeLibCache@@XZ
	DD	FLAT:?GetTypeLib@CCmdTarget@@UAEJKPAPAUITypeLib@@@Z
	DD	FLAT:?GetMessageMap@CMiniTickBarDlg@@MBEPBUAFX_MSGMAP@@XZ
	DD	FLAT:?GetCommandMap@CCmdTarget@@MBEPBUAFX_OLECMDMAP@@XZ
	DD	FLAT:?GetDispatchMap@CCmdTarget@@MBEPBUAFX_DISPMAP@@XZ
	DD	FLAT:?GetConnectionMap@CCmdTarget@@MBEPBUAFX_CONNECTIONMAP@@XZ
	DD	FLAT:?GetInterfaceMap@CWnd@@MBEPBUAFX_INTERFACEMAP@@XZ
	DD	FLAT:?GetEventSinkMap@CCmdTarget@@MBEPBUAFX_EVENTSINKMAP@@XZ
	DD	FLAT:?OnCreateAggregates@CCmdTarget@@UAEHXZ
	DD	FLAT:?GetInterfaceHook@CCmdTarget@@UAEPAUIUnknown@@PBX@Z
	DD	FLAT:?GetExtraConnectionPoints@CCmdTarget@@MAEHPAVCPtrArray@@@Z
	DD	FLAT:?GetConnectionHook@CCmdTarget@@MAEPAUIConnectionPoint@@ABU_GUID@@@Z
	DD	FLAT:?PreSubclassWindow@CWnd@@UAEXXZ
	DD	FLAT:?Create@CWnd@@UAEHPBD0KABUtagRECT@@PAV1@IPAUCCreateContext@@@Z
	DD	FLAT:?CreateEx@CWnd@@UAEHKPBD0KABUtagRECT@@PAV1@IPAX@Z
	DD	FLAT:?CreateEx@CWnd@@UAEHKPBD0KHHHHPAUHWND__@@PAUHMENU__@@PAX@Z
	DD	FLAT:?DestroyWindow@CWnd@@UAEHXZ
	DD	FLAT:?PreCreateWindow@CWnd@@UAEHAAUtagCREATESTRUCTA@@@Z
	DD	FLAT:?CalcWindowRect@CWnd@@UAEXPAUtagRECT@@I@Z
	DD	FLAT:?GetMenu@CWnd@@UBEPAVCMenu@@XZ
	DD	FLAT:?SetMenu@CWnd@@UAEHPAVCMenu@@@Z
	DD	FLAT:?OnToolHitTest@CWnd@@UBEHVCPoint@@PAUtagTOOLINFOA@@@Z
	DD	FLAT:?GetScrollBarCtrl@CWnd@@UBEPAVCScrollBar@@H@Z
	DD	FLAT:?WinHelpA@CWnd@@UAEXKI@Z
	DD	FLAT:?HtmlHelpA@CWnd@@UAEXKI@Z
	DD	FLAT:?WinHelpInternal@CWnd@@UAEXKI@Z
	DD	FLAT:?ContinueModal@CWnd@@UAEHXZ
	DD	FLAT:?EndModalLoop@CWnd@@UAEXH@Z
	DD	FLAT:?OnDrawIconicThumbnailOrLivePreview@CWnd@@UAEXAAVCDC@@VCRect@@VCSize@@HAAH@Z
	DD	FLAT:?EnsureStdObj@CWnd@@UAEJXZ
	DD	FLAT:?get_accParent@CWnd@@UAEJPAPAUIDispatch@@@Z
	DD	FLAT:?get_accChildCount@CWnd@@UAEJPAJ@Z
	DD	FLAT:?get_accChild@CWnd@@UAEJUtagVARIANT@@PAPAUIDispatch@@@Z
	DD	FLAT:?get_accName@CWnd@@UAEJUtagVARIANT@@PAPA_W@Z
	DD	FLAT:?get_accValue@CWnd@@UAEJUtagVARIANT@@PAPA_W@Z
	DD	FLAT:?get_accDescription@CWnd@@UAEJUtagVARIANT@@PAPA_W@Z
	DD	FLAT:?get_accRole@CWnd@@UAEJUtagVARIANT@@PAU2@@Z
	DD	FLAT:?get_accState@CWnd@@UAEJUtagVARIANT@@PAU2@@Z
	DD	FLAT:?get_accHelp@CWnd@@UAEJUtagVARIANT@@PAPA_W@Z
	DD	FLAT:?get_accHelpTopic@CWnd@@UAEJPAPA_WUtagVARIANT@@PAJ@Z
	DD	FLAT:?get_accKeyboardShortcut@CWnd@@UAEJUtagVARIANT@@PAPA_W@Z
	DD	FLAT:?get_accFocus@CWnd@@UAEJPAUtagVARIANT@@@Z
	DD	FLAT:?get_accSelection@CWnd@@UAEJPAUtagVARIANT@@@Z
	DD	FLAT:?get_accDefaultAction@CWnd@@UAEJUtagVARIANT@@PAPA_W@Z
	DD	FLAT:?accSelect@CWnd@@UAEJJUtagVARIANT@@@Z
	DD	FLAT:?accLocation@CWnd@@UAEJPAJ000UtagVARIANT@@@Z
	DD	FLAT:?accNavigate@CWnd@@UAEJJUtagVARIANT@@PAU2@@Z
	DD	FLAT:?accHitTest@CWnd@@UAEJJJPAUtagVARIANT@@@Z
	DD	FLAT:?accDoDefaultAction@CWnd@@UAEJUtagVARIANT@@@Z
	DD	FLAT:?put_accName@CWnd@@UAEJUtagVARIANT@@PA_W@Z
	DD	FLAT:?put_accValue@CWnd@@UAEJUtagVARIANT@@PA_W@Z
	DD	FLAT:?SetProxy@CWnd@@UAEJPAUIAccessibleProxy@@@Z
	DD	FLAT:?CreateAccessibleProxy@CWnd@@UAEJIJPAJ@Z
	DD	FLAT:?OnCommand@CInputBarDlg@@MAEHIJ@Z
	DD	FLAT:?OnNotify@CWnd@@MAEHIJPAJ@Z
	DD	FLAT:?GetSuperWndProcAddr@CWnd@@MAEPAP6GJPAUHWND__@@IIJ@ZXZ
	DD	FLAT:?DoDataExchange@CMiniTickBarDlg@@MAEXPAVCDataExchange@@@Z
	DD	FLAT:?BeginModalState@CWnd@@UAEXXZ
	DD	FLAT:?EndModalState@CWnd@@UAEXXZ
	DD	FLAT:?PreTranslateMessage@CInputBarDlg@@UAEHPAUtagMSG@@@Z
	DD	FLAT:?OnAmbientProperty@CWnd@@UAEHPAVCOleControlSite@@JPAUtagVARIANT@@@Z
	DD	FLAT:?WindowProc@CInputBarDlg@@MAEJIIJ@Z
	DD	FLAT:?OnWndMsg@CWnd@@MAEHIIJPAJ@Z
	DD	FLAT:?DefWindowProcA@CWnd@@MAEJIIJ@Z
	DD	FLAT:?PostNcDestroy@CWnd@@MAEXXZ
	DD	FLAT:?OnChildNotify@CWnd@@MAEHIIJPAJ@Z
	DD	FLAT:?OnTouchInputs@CWnd@@MAEHIPAUtagTOUCHINPUT@@@Z
	DD	FLAT:?OnTouchInput@CWnd@@MAEHVCPoint@@HHPAUtagTOUCHINPUT@@@Z
	DD	FLAT:?GetGestureStatus@CWnd@@MAEKVCPoint@@@Z
	DD	FLAT:?OnGestureZoom@CWnd@@MAEHVCPoint@@J@Z
	DD	FLAT:?OnGesturePan@CWnd@@MAEHVCPoint@@0@Z
	DD	FLAT:?OnGestureRotate@CWnd@@MAEHVCPoint@@N@Z
	DD	FLAT:?OnGestureTwoFingerTap@CWnd@@MAEHVCPoint@@@Z
	DD	FLAT:?OnGesturePressAndTap@CWnd@@MAEHVCPoint@@J@Z
	DD	FLAT:?ResizeDynamicLayout@CWnd@@MAEXXZ
	DD	FLAT:?CheckAutoCenter@CDialog@@UAEHXZ
	DD	FLAT:?IsFrameWnd@CWnd@@UBEHXZ
	DD	FLAT:?CreateControlContainer@CWnd@@MAEHPAPAVCOleControlContainer@@@Z
	DD	FLAT:?CreateControlSite@CWnd@@MAEHPAVCOleControlContainer@@PAPAVCOleControlSite@@IABU_GUID@@@Z
	DD	FLAT:?SetOccDialogInfo@CDialog@@MAEHPAU_AFX_OCC_DIALOG_INFO@@@Z
	DD	FLAT:?GetOccDialogInfo@CDialog@@MAEPAU_AFX_OCC_DIALOG_INFO@@XZ
	DD	FLAT:?Create@CRscDlg@@UAEHIPAVCWnd@@@Z
	DD	FLAT:?Create@CDialog@@UAEHPBDPAVCWnd@@@Z
	DD	FLAT:?CreateIndirect@CDialog@@UAEHPAXPAVCWnd@@@Z
	DD	FLAT:?CreateIndirect@CDialog@@UAEHPBUDLGTEMPLATE@@PAVCWnd@@PAX@Z
	DD	FLAT:?DoModal@CRscDlg@@UAEHXZ
	DD	FLAT:?OnInitDialog@CInputBarDlg@@MAEHXZ
	DD	FLAT:?OnSetFont@CDialog@@UAEXPAVCFont@@@Z
	DD	FLAT:?OnOK@CInputBarDlg@@MAEXXZ
	DD	FLAT:?OnCancel@CInputBarDlg@@MAEXXZ
	DD	FLAT:?PreInitDialog@CDialog@@MAEXXZ
	DD	FLAT:?SetType@CMiniTickBarDlg@@UAEXH@Z
	DD	FLAT:?Init@CMiniTickBarDlg@@UAEXXZ
	DD	FLAT:?LoadIniValue@CMiniTickBarDlg@@UAEXXZ
	DD	FLAT:?SaveIniValue@CMiniTickBarDlg@@UAEXXZ
	DD	FLAT:?SetCodeName@CMiniTickBarDlg@@UAEXHPBD0@Z
	DD	FLAT:?GetTypeNumber@CInputBarDlg@@UAEJXZ
	DD	FLAT:?CreatedChartMng@CInputBarDlg@@UAEXXZ
	DD	FLAT:?RecievedChartMng@CInputBarDlg@@UAEXXZ
	DD	FLAT:?MoveCodeInputCtrl@CMiniTickBarDlg@@UAEXXZ
CONST	ENDS
;	COMDAT ??_7?$CList@PAVCHistory@@PAV1@@@6B@
CONST	SEGMENT
??_7?$CList@PAVCHistory@@PAV1@@@6B@ DD FLAT:??_R4?$CList@PAVCHistory@@PAV1@@@6B@ ; CList<CHistory *,CHistory *>::`vftable'
	DD	FLAT:?GetRuntimeClass@CObject@@UBEPAUCRuntimeClass@@XZ
	DD	FLAT:??_E?$CList@PAVCHistory@@PAV1@@@UAEPAXI@Z
	DD	FLAT:?Serialize@?$CList@PAVCHistory@@PAV1@@@UAEXAAVCArchive@@@Z
	DD	FLAT:?AssertValid@CObject@@UBEXXZ
	DD	FLAT:?Dump@CObject@@UBEXAAVCDumpContext@@@Z
CONST	ENDS
;	COMDAT ??_R2CDialog@@8
rdata$r	SEGMENT
??_R2CDialog@@8 DD FLAT:??_R1A@?0A@EA@CDialog@@8	; CDialog::`RTTI Base Class Array'
	DD	FLAT:??_R1A@?0A@EA@CWnd@@8
	DD	FLAT:??_R1A@?0A@EA@CCmdTarget@@8
	DD	FLAT:??_R1A@?0A@EA@CObject@@8
rdata$r	ENDS
;	COMDAT ??_R3CDialog@@8
rdata$r	SEGMENT
??_R3CDialog@@8 DD 00H					; CDialog::`RTTI Class Hierarchy Descriptor'
	DD	00H
	DD	04H
	DD	FLAT:??_R2CDialog@@8
rdata$r	ENDS
;	COMDAT ??_R0?AVCDialog@@@8
data$rs	SEGMENT
??_R0?AVCDialog@@@8 DD FLAT:??_7type_info@@6B@		; CDialog `RTTI Type Descriptor'
	DD	00H
	DB	'.?AVCDialog@@', 00H
data$rs	ENDS
;	COMDAT ??_R1A@?0A@EA@CDialog@@8
rdata$r	SEGMENT
??_R1A@?0A@EA@CDialog@@8 DD FLAT:??_R0?AVCDialog@@@8	; CDialog::`RTTI Base Class Descriptor at (0,-1,0,64)'
	DD	03H
	DD	00H
	DD	0ffffffffH
	DD	00H
	DD	040H
	DD	FLAT:??_R3CDialog@@8
rdata$r	ENDS
;	COMDAT ??_R2CCmdTarget@@8
rdata$r	SEGMENT
??_R2CCmdTarget@@8 DD FLAT:??_R1A@?0A@EA@CCmdTarget@@8	; CCmdTarget::`RTTI Base Class Array'
	DD	FLAT:??_R1A@?0A@EA@CObject@@8
rdata$r	ENDS
;	COMDAT ??_R3CCmdTarget@@8
rdata$r	SEGMENT
??_R3CCmdTarget@@8 DD 00H				; CCmdTarget::`RTTI Class Hierarchy Descriptor'
	DD	00H
	DD	02H
	DD	FLAT:??_R2CCmdTarget@@8
rdata$r	ENDS
;	COMDAT ??_R0?AVCCmdTarget@@@8
data$rs	SEGMENT
??_R0?AVCCmdTarget@@@8 DD FLAT:??_7type_info@@6B@	; CCmdTarget `RTTI Type Descriptor'
	DD	00H
	DB	'.?AVCCmdTarget@@', 00H
data$rs	ENDS
;	COMDAT ??_R1A@?0A@EA@CCmdTarget@@8
rdata$r	SEGMENT
??_R1A@?0A@EA@CCmdTarget@@8 DD FLAT:??_R0?AVCCmdTarget@@@8 ; CCmdTarget::`RTTI Base Class Descriptor at (0,-1,0,64)'
	DD	01H
	DD	00H
	DD	0ffffffffH
	DD	00H
	DD	040H
	DD	FLAT:??_R3CCmdTarget@@8
rdata$r	ENDS
;	COMDAT ??_R2CWnd@@8
rdata$r	SEGMENT
??_R2CWnd@@8 DD	FLAT:??_R1A@?0A@EA@CWnd@@8		; CWnd::`RTTI Base Class Array'
	DD	FLAT:??_R1A@?0A@EA@CCmdTarget@@8
	DD	FLAT:??_R1A@?0A@EA@CObject@@8
rdata$r	ENDS
;	COMDAT ??_R3CWnd@@8
rdata$r	SEGMENT
??_R3CWnd@@8 DD	00H					; CWnd::`RTTI Class Hierarchy Descriptor'
	DD	00H
	DD	03H
	DD	FLAT:??_R2CWnd@@8
rdata$r	ENDS
;	COMDAT ??_R0?AVCWnd@@@8
data$rs	SEGMENT
??_R0?AVCWnd@@@8 DD FLAT:??_7type_info@@6B@		; CWnd `RTTI Type Descriptor'
	DD	00H
	DB	'.?AVCWnd@@', 00H
data$rs	ENDS
;	COMDAT ??_R1A@?0A@EA@CWnd@@8
rdata$r	SEGMENT
??_R1A@?0A@EA@CWnd@@8 DD FLAT:??_R0?AVCWnd@@@8		; CWnd::`RTTI Base Class Descriptor at (0,-1,0,64)'
	DD	02H
	DD	00H
	DD	0ffffffffH
	DD	00H
	DD	040H
	DD	FLAT:??_R3CWnd@@8
rdata$r	ENDS
;	COMDAT ??_R1A@?0A@EA@CBrush@@8
rdata$r	SEGMENT
??_R1A@?0A@EA@CBrush@@8 DD FLAT:??_R0?AVCBrush@@@8	; CBrush::`RTTI Base Class Descriptor at (0,-1,0,64)'
	DD	02H
	DD	00H
	DD	0ffffffffH
	DD	00H
	DD	040H
	DD	FLAT:??_R3CBrush@@8
rdata$r	ENDS
;	COMDAT ??_R2CBrush@@8
rdata$r	SEGMENT
??_R2CBrush@@8 DD FLAT:??_R1A@?0A@EA@CBrush@@8		; CBrush::`RTTI Base Class Array'
	DD	FLAT:??_R1A@?0A@EA@CGdiObject@@8
	DD	FLAT:??_R1A@?0A@EA@CObject@@8
rdata$r	ENDS
;	COMDAT ??_R3CBrush@@8
rdata$r	SEGMENT
??_R3CBrush@@8 DD 00H					; CBrush::`RTTI Class Hierarchy Descriptor'
	DD	00H
	DD	03H
	DD	FLAT:??_R2CBrush@@8
rdata$r	ENDS
;	COMDAT ??_R0?AVCBrush@@@8
data$rs	SEGMENT
??_R0?AVCBrush@@@8 DD FLAT:??_7type_info@@6B@		; CBrush `RTTI Type Descriptor'
	DD	00H
	DB	'.?AVCBrush@@', 00H
data$rs	ENDS
;	COMDAT ??_R4CBrush@@6B@
rdata$r	SEGMENT
??_R4CBrush@@6B@ DD 00H					; CBrush::`RTTI Complete Object Locator'
	DD	00H
	DD	00H
	DD	FLAT:??_R0?AVCBrush@@@8
	DD	FLAT:??_R3CBrush@@8
rdata$r	ENDS
;	COMDAT ??_R1A@?0A@EA@CGdiObject@@8
rdata$r	SEGMENT
??_R1A@?0A@EA@CGdiObject@@8 DD FLAT:??_R0?AVCGdiObject@@@8 ; CGdiObject::`RTTI Base Class Descriptor at (0,-1,0,64)'
	DD	01H
	DD	00H
	DD	0ffffffffH
	DD	00H
	DD	040H
	DD	FLAT:??_R3CGdiObject@@8
rdata$r	ENDS
;	COMDAT ??_R2CGdiObject@@8
rdata$r	SEGMENT
??_R2CGdiObject@@8 DD FLAT:??_R1A@?0A@EA@CGdiObject@@8	; CGdiObject::`RTTI Base Class Array'
	DD	FLAT:??_R1A@?0A@EA@CObject@@8
rdata$r	ENDS
;	COMDAT ??_R3CGdiObject@@8
rdata$r	SEGMENT
??_R3CGdiObject@@8 DD 00H				; CGdiObject::`RTTI Class Hierarchy Descriptor'
	DD	00H
	DD	02H
	DD	FLAT:??_R2CGdiObject@@8
rdata$r	ENDS
;	COMDAT ??_R0?AVCGdiObject@@@8
data$rs	SEGMENT
??_R0?AVCGdiObject@@@8 DD FLAT:??_7type_info@@6B@	; CGdiObject `RTTI Type Descriptor'
	DD	00H
	DB	'.?AVCGdiObject@@', 00H
data$rs	ENDS
;	COMDAT ??_R4CGdiObject@@6B@
rdata$r	SEGMENT
??_R4CGdiObject@@6B@ DD 00H				; CGdiObject::`RTTI Complete Object Locator'
	DD	00H
	DD	00H
	DD	FLAT:??_R0?AVCGdiObject@@@8
	DD	FLAT:??_R3CGdiObject@@8
rdata$r	ENDS
;	COMDAT ??_R1A@?0A@EA@CObject@@8
rdata$r	SEGMENT
??_R1A@?0A@EA@CObject@@8 DD FLAT:??_R0?AVCObject@@@8	; CObject::`RTTI Base Class Descriptor at (0,-1,0,64)'
	DD	00H
	DD	00H
	DD	0ffffffffH
	DD	00H
	DD	040H
	DD	FLAT:??_R3CObject@@8
rdata$r	ENDS
;	COMDAT ??_R2CObject@@8
rdata$r	SEGMENT
??_R2CObject@@8 DD FLAT:??_R1A@?0A@EA@CObject@@8	; CObject::`RTTI Base Class Array'
rdata$r	ENDS
;	COMDAT ??_R3CObject@@8
rdata$r	SEGMENT
??_R3CObject@@8 DD 00H					; CObject::`RTTI Class Hierarchy Descriptor'
	DD	00H
	DD	01H
	DD	FLAT:??_R2CObject@@8
rdata$r	ENDS
;	COMDAT ??_R0?AVCObject@@@8
data$rs	SEGMENT
??_R0?AVCObject@@@8 DD FLAT:??_7type_info@@6B@		; CObject `RTTI Type Descriptor'
	DD	00H
	DB	'.?AVCObject@@', 00H
data$rs	ENDS
;	COMDAT ??_C@_0N@OMEMOKLE@?$CFTs?5?$CI?$CFTs?3?$CFd?$CJ@
CONST	SEGMENT
??_C@_0N@OMEMOKLE@?$CFTs?5?$CI?$CFTs?3?$CFd?$CJ@ DB '%Ts (%Ts:%d)', 00H ; `string'
CONST	ENDS
;	COMDAT ??_C@_0BB@HBOOMJBF@?$CFTs?5?$CI?$CFTs?3?$CFd?$CJ?6?$CFTs@
CONST	SEGMENT
??_C@_0BB@HBOOMJBF@?$CFTs?5?$CI?$CFTs?3?$CFd?$CJ?6?$CFTs@ DB '%Ts (%Ts:%d'
	DB	')', 0aH, '%Ts', 00H				; `string'
CONST	ENDS
;	COMDAT ??_C@_0BP@OIEOKIDM@Exception?5thrown?5in?5destructor@
CONST	SEGMENT
??_C@_0BP@OIEOKIDM@Exception?5thrown?5in?5destructor@ DB 'Exception throw'
	DB	'n in destructor', 00H			; `string'
CONST	ENDS
;	COMDAT ??_C@_0HD@JJCHHHNK@C?3?2Program?5Files?5?$CIx86?$CJ?2Microsof@
CONST	SEGMENT
??_C@_0HD@JJCHHHNK@C?3?2Program?5Files?5?$CIx86?$CJ?2Microsof@ DB 'C:\Pro'
	DB	'gram Files (x86)\Microsoft Visual Studio\2019\Community\VC\To'
	DB	'ols\MSVC\14.29.30133\atlmfc\include\afxwin1.inl', 00H ; `string'
CONST	ENDS
;	COMDAT ??_7CBrush@@6B@
CONST	SEGMENT
??_7CBrush@@6B@ DD FLAT:??_R4CBrush@@6B@		; CBrush::`vftable'
	DD	FLAT:?GetRuntimeClass@CBrush@@UBEPAUCRuntimeClass@@XZ
	DD	FLAT:??_ECBrush@@UAEPAXI@Z
	DD	FLAT:?Serialize@CObject@@UAEXAAVCArchive@@@Z
	DD	FLAT:?AssertValid@CObject@@UBEXXZ
	DD	FLAT:?Dump@CObject@@UBEXAAVCDumpContext@@@Z
CONST	ENDS
;	COMDAT ??_7CGdiObject@@6B@
CONST	SEGMENT
??_7CGdiObject@@6B@ DD FLAT:??_R4CGdiObject@@6B@	; CGdiObject::`vftable'
	DD	FLAT:?GetRuntimeClass@CGdiObject@@UBEPAUCRuntimeClass@@XZ
	DD	FLAT:??_ECGdiObject@@UAEPAXI@Z
	DD	FLAT:?Serialize@CObject@@UAEXAAVCArchive@@@Z
	DD	FLAT:?AssertValid@CObject@@UBEXXZ
	DD	FLAT:?Dump@CObject@@UBEXAAVCDumpContext@@@Z
CONST	ENDS
;	COMDAT ??_C@_00CNPNBAHC@@
CONST	SEGMENT
??_C@_00CNPNBAHC@@ DB 00H				; `string'
CONST	ENDS
;	COMDAT ?_AtlWinModule@ATL@@3VCAtlWinModule@1@A
_DATA	SEGMENT
?_AtlWinModule@ATL@@3VCAtlWinModule@1@A DD 02cH		; ATL::_AtlWinModule
	DB	24 DUP(00H)
	DD	00H
_DATA	ENDS
;	COMDAT ??_C@_02DPKJAMEF@?$CFd@
CONST	SEGMENT
??_C@_02DPKJAMEF@?$CFd@ DB '%d', 00H			; `string'
CONST	ENDS
;	COMDAT ??_R0PAVCException@@@8
data$r	SEGMENT
??_R0PAVCException@@@8 DD FLAT:??_7type_info@@6B@	; CException * `RTTI Type Descriptor'
	DD	00H
	DB	'.PAVCException@@', 00H
data$r	ENDS
;	COMDAT xdata$x
xdata$x	SEGMENT
__ehfuncinfo$??1CMiniTickBarCFG@@UAE@XZ DD 019930522H
	DD	00H
	DD	00H
	DD	2 DUP(00H)
	DD	2 DUP(00H)
	DD	00H
	DD	05H
xdata$x	ENDS
;	COMDAT xdata$x
xdata$x	SEGMENT
__unwindtable$??_GCMiniTickBarDlg@@UAEPAXI@Z DD 0ffffffffH
	DD	FLAT:___std_terminate
	DD	00H
	DD	FLAT:___std_terminate
__ehfuncinfo$??_GCMiniTickBarDlg@@UAEPAXI@Z DD 019930522H
	DD	02H
	DD	FLAT:__unwindtable$??_GCMiniTickBarDlg@@UAEPAXI@Z
	DD	2 DUP(00H)
	DD	2 DUP(00H)
	DD	00H
	DD	05H
xdata$x	ENDS
;	COMDAT xdata$x
xdata$x	SEGMENT
__unwindtable$??1CMiniTickBarDlg@@UAE@XZ DD 0ffffffffH
	DD	FLAT:___std_terminate
__ehfuncinfo$??1CMiniTickBarDlg@@UAE@XZ DD 019930522H
	DD	01H
	DD	FLAT:__unwindtable$??1CMiniTickBarDlg@@UAE@XZ
	DD	2 DUP(00H)
	DD	2 DUP(00H)
	DD	00H
	DD	05H
xdata$x	ENDS
;	COMDAT xdata$x
xdata$x	SEGMENT
__ehfuncinfo$?OnBtn@CMiniTickBarDlg@@IAEXI@Z DD 019930522H
	DD	05H
	DD	FLAT:__unwindtable$?OnBtn@CMiniTickBarDlg@@IAEXI@Z
	DD	2 DUP(00H)
	DD	2 DUP(00H)
	DD	00H
	DD	01H
__unwindtable$?OnBtn@CMiniTickBarDlg@@IAEXI@Z DD 0ffffffffH
	DD	FLAT:__unwindfunclet$?OnBtn@CMiniTickBarDlg@@IAEXI@Z$0
	DD	00H
	DD	FLAT:__unwindfunclet$?OnBtn@CMiniTickBarDlg@@IAEXI@Z$1
	DD	01H
	DD	FLAT:__unwindfunclet$?OnBtn@CMiniTickBarDlg@@IAEXI@Z$2
	DD	02H
	DD	FLAT:__unwindfunclet$?OnBtn@CMiniTickBarDlg@@IAEXI@Z$3
	DD	00H
	DD	FLAT:__unwindfunclet$?OnBtn@CMiniTickBarDlg@@IAEXI@Z$5
xdata$x	ENDS
;	COMDAT xdata$x
xdata$x	SEGMENT
__unwindtable$?OnBtinitial@CMiniTickBarDlg@@IAEXXZ DD 0ffffffffH
	DD	FLAT:__unwindfunclet$?OnBtinitial@CMiniTickBarDlg@@IAEXXZ$0
__ehfuncinfo$?OnBtinitial@CMiniTickBarDlg@@IAEXXZ DD 019930522H
	DD	01H
	DD	FLAT:__unwindtable$?OnBtinitial@CMiniTickBarDlg@@IAEXXZ
	DD	2 DUP(00H)
	DD	2 DUP(00H)
	DD	00H
	DD	01H
xdata$x	ENDS
;	COMDAT xdata$x
xdata$x	SEGMENT
__ehfuncinfo$?OnBtnConfig@CMiniTickBarDlg@@IAEXXZ DD 019930522H
	DD	05H
	DD	FLAT:__unwindtable$?OnBtnConfig@CMiniTickBarDlg@@IAEXXZ
	DD	2 DUP(00H)
	DD	2 DUP(00H)
	DD	00H
	DD	01H
__unwindtable$?OnBtnConfig@CMiniTickBarDlg@@IAEXXZ DD 0ffffffffH
	DD	FLAT:__unwindfunclet$?OnBtnConfig@CMiniTickBarDlg@@IAEXXZ$0
	DD	00H
	DD	FLAT:__unwindfunclet$?OnBtnConfig@CMiniTickBarDlg@@IAEXXZ$1
	DD	01H
	DD	FLAT:__unwindfunclet$?OnBtnConfig@CMiniTickBarDlg@@IAEXXZ$2
	DD	01H
	DD	FLAT:___std_terminate
	DD	00H
	DD	FLAT:___std_terminate
xdata$x	ENDS
;	COMDAT xdata$x
xdata$x	SEGMENT
__unwindtable$?SaveIniValue@CMiniTickBarDlg@@UAEXXZ DD 0ffffffffH
	DD	FLAT:__unwindfunclet$?SaveIniValue@CMiniTickBarDlg@@UAEXXZ$0
__ehfuncinfo$?SaveIniValue@CMiniTickBarDlg@@UAEXXZ DD 019930522H
	DD	01H
	DD	FLAT:__unwindtable$?SaveIniValue@CMiniTickBarDlg@@UAEXXZ
	DD	2 DUP(00H)
	DD	2 DUP(00H)
	DD	00H
	DD	01H
xdata$x	ENDS
;	COMDAT xdata$x
xdata$x	SEGMENT
__unwindtable$?LoadIniValue@CMiniTickBarDlg@@UAEXXZ DD 0ffffffffH
	DD	FLAT:__unwindfunclet$?LoadIniValue@CMiniTickBarDlg@@UAEXXZ$0
	DD	00H
	DD	FLAT:__unwindfunclet$?LoadIniValue@CMiniTickBarDlg@@UAEXXZ$2
__ehfuncinfo$?LoadIniValue@CMiniTickBarDlg@@UAEXXZ DD 019930522H
	DD	02H
	DD	FLAT:__unwindtable$?LoadIniValue@CMiniTickBarDlg@@UAEXXZ
	DD	2 DUP(00H)
	DD	2 DUP(00H)
	DD	00H
	DD	01H
xdata$x	ENDS
;	COMDAT xdata$x
xdata$x	SEGMENT
__ehfuncinfo$??0CMiniTickBarDlg@@QAE@PAVCWnd@@@Z DD 019930522H
	DD	05H
	DD	FLAT:__unwindtable$??0CMiniTickBarDlg@@QAE@PAVCWnd@@@Z
	DD	2 DUP(00H)
	DD	2 DUP(00H)
	DD	00H
	DD	01H
__unwindtable$??0CMiniTickBarDlg@@QAE@PAVCWnd@@@Z DD 0ffffffffH
	DD	FLAT:__unwindfunclet$??0CMiniTickBarDlg@@QAE@PAVCWnd@@@Z$0
	DD	00H
	DD	FLAT:__unwindfunclet$??0CMiniTickBarDlg@@QAE@PAVCWnd@@@Z$1
	DD	01H
	DD	FLAT:__unwindfunclet$??0CMiniTickBarDlg@@QAE@PAVCWnd@@@Z$2
	DD	02H
	DD	FLAT:__unwindfunclet$??0CMiniTickBarDlg@@QAE@PAVCWnd@@@Z$3
	DD	03H
	DD	FLAT:__unwindfunclet$??0CMiniTickBarDlg@@QAE@PAVCWnd@@@Z$4
xdata$x	ENDS
;	COMDAT xdata$x
xdata$x	SEGMENT
__unwindtable$?MakeTickButtonTitle@CSetTickButton@@QAE?AV?$CStringT@DV?$StrTraitMFC_DLL@DV?$ChTraitsCRT@D@ATL@@@@@ATL@@H@Z DD 0ffffffffH
	DD	FLAT:__unwindfunclet$?MakeTickButtonTitle@CSetTickButton@@QAE?AV?$CStringT@DV?$StrTraitMFC_DLL@DV?$ChTraitsCRT@D@ATL@@@@@ATL@@H@Z$0
__ehfuncinfo$?MakeTickButtonTitle@CSetTickButton@@QAE?AV?$CStringT@DV?$StrTraitMFC_DLL@DV?$ChTraitsCRT@D@ATL@@@@@ATL@@H@Z DD 019930522H
	DD	01H
	DD	FLAT:__unwindtable$?MakeTickButtonTitle@CSetTickButton@@QAE?AV?$CStringT@DV?$StrTraitMFC_DLL@DV?$ChTraitsCRT@D@ATL@@@@@ATL@@H@Z
	DD	2 DUP(00H)
	DD	2 DUP(00H)
	DD	00H
	DD	01H
xdata$x	ENDS
;	COMDAT xdata$x
xdata$x	SEGMENT
__unwindtable$?SetTitle@CSetTickButton@@QAEXHV?$CStringT@DV?$StrTraitMFC_DLL@DV?$ChTraitsCRT@D@ATL@@@@@ATL@@@Z DD 0ffffffffH
	DD	FLAT:__unwindfunclet$?SetTitle@CSetTickButton@@QAEXHV?$CStringT@DV?$StrTraitMFC_DLL@DV?$ChTraitsCRT@D@ATL@@@@@ATL@@@Z$0
__ehfuncinfo$?SetTitle@CSetTickButton@@QAEXHV?$CStringT@DV?$StrTraitMFC_DLL@DV?$ChTraitsCRT@D@ATL@@@@@ATL@@@Z DD 019930522H
	DD	01H
	DD	FLAT:__unwindtable$?SetTitle@CSetTickButton@@QAEXHV?$CStringT@DV?$StrTraitMFC_DLL@DV?$ChTraitsCRT@D@ATL@@@@@ATL@@@Z
	DD	2 DUP(00H)
	DD	2 DUP(00H)
	DD	00H
	DD	01H
xdata$x	ENDS
;	COMDAT xdata$x
xdata$x	SEGMENT
__unwindtable$??1CSetTickButton@@QAE@XZ DD 0ffffffffH
	DD	FLAT:___std_terminate
__ehfuncinfo$??1CSetTickButton@@QAE@XZ DD 019930522H
	DD	01H
	DD	FLAT:__unwindtable$??1CSetTickButton@@QAE@XZ
	DD	2 DUP(00H)
	DD	2 DUP(00H)
	DD	00H
	DD	05H
xdata$x	ENDS
;	COMDAT xdata$x
xdata$x	SEGMENT
__ehfuncinfo$??_E_ST_SETTICK@@QAEPAXI@Z DD 019930522H
	DD	00H
	DD	00H
	DD	2 DUP(00H)
	DD	2 DUP(00H)
	DD	00H
	DD	05H
xdata$x	ENDS
;	COMDAT xdata$x
xdata$x	SEGMENT
__unwindtable$??1CInputBarDlg@@UAE@XZ DD 0ffffffffH
	DD	FLAT:___std_terminate
	DD	0ffffffffH
	DD	FLAT:___std_terminate
	DD	0ffffffffH
	DD	FLAT:___std_terminate
	DD	0ffffffffH
	DD	FLAT:___std_terminate
__ehfuncinfo$??1CInputBarDlg@@UAE@XZ DD 019930522H
	DD	04H
	DD	FLAT:__unwindtable$??1CInputBarDlg@@UAE@XZ
	DD	2 DUP(00H)
	DD	2 DUP(00H)
	DD	00H
	DD	05H
xdata$x	ENDS
;	COMDAT xdata$x
xdata$x	SEGMENT
__unwindtable$??_G?$CList@PAVCHistory@@PAV1@@@UAEPAXI@Z DD 0ffffffffH
	DD	FLAT:___std_terminate
__ehfuncinfo$??_G?$CList@PAVCHistory@@PAV1@@@UAEPAXI@Z DD 019930522H
	DD	01H
	DD	FLAT:__unwindtable$??_G?$CList@PAVCHistory@@PAV1@@@UAEPAXI@Z
	DD	2 DUP(00H)
	DD	2 DUP(00H)
	DD	00H
	DD	05H
xdata$x	ENDS
;	COMDAT xdata$x
xdata$x	SEGMENT
__ehfuncinfo$??1?$CList@PAVCHistory@@PAV1@@@UAE@XZ DD 019930522H
	DD	00H
	DD	00H
	DD	2 DUP(00H)
	DD	2 DUP(00H)
	DD	00H
	DD	05H
xdata$x	ENDS
;	COMDAT xdata$x
xdata$x	SEGMENT
__ehfuncinfo$??_Estringdispid@CComTypeInfoHolder@ATL@@QAEPAXI@Z DD 019930522H
	DD	00H
	DD	00H
	DD	2 DUP(00H)
	DD	2 DUP(00H)
	DD	00H
	DD	05H
xdata$x	ENDS
;	COMDAT xdata$x
xdata$x	SEGMENT
__catchsym$??1CGdiObject@@UAE@XZ$3 DD 00H
	DD	FLAT:??_R0PAVCException@@@8
	DD	0fffffde4H
	DD	FLAT:__catch$??1CGdiObject@@UAE@XZ$0
__tryblocktable$??1CGdiObject@@UAE@XZ DD 00H
	DD	00H
	DD	02H
	DD	01H
	DD	FLAT:__catchsym$??1CGdiObject@@UAE@XZ$3
__unwindtable$??1CGdiObject@@UAE@XZ DD 0ffffffffH
	DD	00H
	DD	0ffffffffH
	DD	00H
	DD	01H
	DD	FLAT:__unwindfunclet$??1CGdiObject@@UAE@XZ$2
__ehfuncinfo$??1CGdiObject@@UAE@XZ DD 019930522H
	DD	03H
	DD	FLAT:__unwindtable$??1CGdiObject@@UAE@XZ
	DD	01H
	DD	FLAT:__tryblocktable$??1CGdiObject@@UAE@XZ
	DD	2 DUP(00H)
	DD	00H
	DD	05H
xdata$x	ENDS
CRT$XCU	SEGMENT
?RMSG_REPLAY_REAL$initializer$@@3P6AXXZA DD FLAT:??__ERMSG_REPLAY_REAL@@YAXXZ ; RMSG_REPLAY_REAL$initializer$
CRT$XCU	ENDS
CRT$XCU	SEGMENT
?RMSG_REPLAY_FAIL$initializer$@@3P6AXXZA DD FLAT:??__ERMSG_REPLAY_FAIL@@YAXXZ ; RMSG_REPLAY_FAIL$initializer$
CRT$XCU	ENDS
CRT$XCU	SEGMENT
?RMSG_REPLAY_CHANGE_DATE$initializer$@@3P6AXXZA DD FLAT:??__ERMSG_REPLAY_CHANGE_DATE@@YAXXZ ; RMSG_REPLAY_CHANGE_DATE$initializer$
CRT$XCU	ENDS
CRT$XCU	SEGMENT
?RMSG_REPLAY_END$initializer$@@3P6AXXZA DD FLAT:??__ERMSG_REPLAY_END@@YAXXZ ; RMSG_REPLAY_END$initializer$
CRT$XCU	ENDS
CRT$XCU	SEGMENT
?RMSG_REPLAY_INC_SEC$initializer$@@3P6AXXZA DD FLAT:??__ERMSG_REPLAY_INC_SEC@@YAXXZ ; RMSG_REPLAY_INC_SEC$initializer$
CRT$XCU	ENDS
CRT$XCU	SEGMENT
?RMSG_REPLAY_TOTAL_SEC$initializer$@@3P6AXXZA DD FLAT:??__ERMSG_REPLAY_TOTAL_SEC@@YAXXZ ; RMSG_REPLAY_TOTAL_SEC$initializer$
CRT$XCU	ENDS
CRT$XCU	SEGMENT
?RMSG_GETSIGNAL_REAL$initializer$@@3P6AXXZA DD FLAT:??__ERMSG_GETSIGNAL_REAL@@YAXXZ ; RMSG_GETSIGNAL_REAL$initializer$
CRT$XCU	ENDS
CRT$XCU	SEGMENT
?RMSG_SETQUERYOPT$initializer$@@3P6AXXZA DD FLAT:??__ERMSG_SETQUERYOPT@@YAXXZ ; RMSG_SETQUERYOPT$initializer$
CRT$XCU	ENDS
CRT$XCU	SEGMENT
?RMSG_CHARTMAIN$initializer$@@3P6AXXZA DD FLAT:??__ERMSG_CHARTMAIN@@YAXXZ ; RMSG_CHARTMAIN$initializer$
CRT$XCU	ENDS
CRT$XCU	SEGMENT
?RMS_ANALYSIS_FUNC$initializer$@@3P6AXXZA DD FLAT:??__ERMS_ANALYSIS_FUNC@@YAXXZ ; RMS_ANALYSIS_FUNC$initializer$
CRT$XCU	ENDS
CRT$XCU	SEGMENT
?RMSG_GET_USERID$initializer$@@3P6AXXZA DD FLAT:??__ERMSG_GET_USERID@@YAXXZ ; RMSG_GET_USERID$initializer$
CRT$XCU	ENDS
CRT$XCU	SEGMENT
?RMSG_CHANGE_SKINCOLOR$initializer$@@3P6AXXZA DD FLAT:??__ERMSG_CHANGE_SKINCOLOR@@YAXXZ ; RMSG_CHANGE_SKINCOLOR$initializer$
CRT$XCU	ENDS
CRT$XCU	SEGMENT
?RMSG_GET_SKINCOLOR$initializer$@@3P6AXXZA DD FLAT:??__ERMSG_GET_SKINCOLOR@@YAXXZ ; RMSG_GET_SKINCOLOR$initializer$
CRT$XCU	ENDS
CRT$XCU	SEGMENT
?RMSG_CHANGEVERTSCALETYPE$initializer$@@3P6AXXZA DD FLAT:??__ERMSG_CHANGEVERTSCALETYPE@@YAXXZ ; RMSG_CHANGEVERTSCALETYPE$initializer$
CRT$XCU	ENDS
CRT$XCU	SEGMENT
?RMSG_CHANGE_CROSSLINE$initializer$@@3P6AXXZA DD FLAT:??__ERMSG_CHANGE_CROSSLINE@@YAXXZ ; RMSG_CHANGE_CROSSLINE$initializer$
CRT$XCU	ENDS
CRT$XCU	SEGMENT
?RMSG_ADD_PLATFORM_MENU$initializer$@@3P6AXXZA DD FLAT:??__ERMSG_ADD_PLATFORM_MENU@@YAXXZ ; RMSG_ADD_PLATFORM_MENU$initializer$
CRT$XCU	ENDS
CRT$XCU	SEGMENT
?RMSG_SETINITIALCHARTDATA$initializer$@@3P6AXXZA DD FLAT:??__ERMSG_SETINITIALCHARTDATA@@YAXXZ ; RMSG_SETINITIALCHARTDATA$initializer$
CRT$XCU	ENDS
CRT$XCU	SEGMENT
?RMSG_GETINFO$initializer$@@3P6AXXZA DD FLAT:??__ERMSG_GETINFO@@YAXXZ ; RMSG_GETINFO$initializer$
CRT$XCU	ENDS
CRT$XCU	SEGMENT
?RMSG_SETINFO$initializer$@@3P6AXXZA DD FLAT:??__ERMSG_SETINFO@@YAXXZ ; RMSG_SETINFO$initializer$
CRT$XCU	ENDS
; Function compile flags: /Ogtp
; File C:\Program Files (x86)\Microsoft Visual Studio\2019\Community\VC\Tools\MSVC\14.29.30133\atlmfc\include\afxtempl.h
; File C:\Program Files (x86)\Microsoft Visual Studio\2019\Community\VC\Tools\MSVC\14.29.30133\atlmfc\include\afx.inl
; File C:\Program Files (x86)\Microsoft Visual Studio\2019\Community\VC\Tools\MSVC\14.29.30133\atlmfc\include\afxtempl.h
; File C:\Program Files (x86)\Microsoft Visual Studio\2019\Community\VC\Tools\MSVC\14.29.30133\atlmfc\include\afx.inl
; File C:\Program Files (x86)\Microsoft Visual Studio\2019\Community\VC\Tools\MSVC\14.29.30133\atlmfc\include\afxtempl.h
; File C:\Program Files (x86)\Microsoft Visual Studio\2019\Community\VC\Tools\MSVC\14.29.30133\atlmfc\include\afx.inl
; File C:\Program Files (x86)\Microsoft Visual Studio\2019\Community\VC\Tools\MSVC\14.29.30133\atlmfc\include\afxtempl.h
;	COMDAT ??$SerializeElements@PAVCHistory@@@@YGXAAVCArchive@@PAPAVCHistory@@H@Z
_TEXT	SEGMENT
_ar$ = 8						; size = 4
_pElements$ = 12					; size = 4
_nCount$ = 16						; size = 4
??$SerializeElements@PAVCHistory@@@@YGXAAVCArchive@@PAPAVCHistory@@H@Z PROC ; SerializeElements<CHistory *>, COMDAT

; 67   : {

  00000	55		 push	 ebp
  00001	8b ec		 mov	 ebp, esp

; 68   : 	ENSURE(nCount == 0 || pElements != NULL);

  00003	8b 4d 0c	 mov	 ecx, DWORD PTR _pElements$[ebp]
  00006	53		 push	 ebx
  00007	56		 push	 esi
  00008	8b 75 10	 mov	 esi, DWORD PTR _nCount$[ebp]
  0000b	57		 push	 edi
  0000c	85 f6		 test	 esi, esi
  0000e	74 08		 je	 SHORT $LN2@SerializeE
  00010	85 c9		 test	 ecx, ecx
  00012	0f 84 89 00 00
	00		 je	 $LN34@SerializeE
$LN2@SerializeE:
; File C:\Program Files (x86)\Microsoft Visual Studio\2019\Community\VC\Tools\MSVC\14.29.30133\atlmfc\include\afx.inl

; 212  : 	{ return (m_nMode & CArchive::load) == 0; }

  00018	8b 55 08	 mov	 edx, DWORD PTR _ar$[ebp]
  0001b	8b 42 18	 mov	 eax, DWORD PTR [edx+24]
  0001e	f7 d0		 not	 eax
  00020	a8 01		 test	 al, 1
; File C:\Program Files (x86)\Microsoft Visual Studio\2019\Community\VC\Tools\MSVC\14.29.30133\atlmfc\include\afxtempl.h

; 73   : 	if (ar.IsStoring())

  00022	74 3c		 je	 SHORT $LN10@SerializeE

; 74   : 	{
; 75   : 		TYPE* pData;
; 76   : 		UINT_PTR nElementsLeft;
; 77   : 
; 78   : 		nElementsLeft = nCount;
; 79   : 		pData = pElements;
; 80   : 		while( nElementsLeft > 0 )

  00024	85 f6		 test	 esi, esi
  00026	74 31		 je	 SHORT $LN8@SerializeE
  00028	0f 1f 84 00 00
	00 00 00	 npad	 8
$LL5@SerializeE:

; 81   : 		{
; 82   : 			UINT nElementsToWrite;
; 83   : 
; 84   : 			nElementsToWrite = UINT(__min(nElementsLeft, INT_MAX/sizeof(TYPE)));

  00030	bb ff ff ff 1f	 mov	 ebx, 536870911		; 1fffffffH
  00035	3b f3		 cmp	 esi, ebx
  00037	0f 42 de	 cmovb	 ebx, esi

; 85   : 			ar.Write(pData, nElementsToWrite*sizeof(TYPE));

  0003a	8d 3c 9d 00 00
	00 00		 lea	 edi, DWORD PTR [ebx*4]
  00041	57		 push	 edi
  00042	51		 push	 ecx
  00043	8b ca		 mov	 ecx, edx
  00045	e8 00 00 00 00	 call	 ?Write@CArchive@@QAEXPBXI@Z ; CArchive::Write

; 86   : 			nElementsLeft -= nElementsToWrite;
; 87   : 			pData += nElementsToWrite;

  0004a	8b 4d 0c	 mov	 ecx, DWORD PTR _pElements$[ebp]
  0004d	8b 55 08	 mov	 edx, DWORD PTR _ar$[ebp]
  00050	03 cf		 add	 ecx, edi
  00052	89 4d 0c	 mov	 DWORD PTR _pElements$[ebp], ecx
  00055	2b f3		 sub	 esi, ebx
  00057	75 d7		 jne	 SHORT $LL5@SerializeE
$LN8@SerializeE:
  00059	5f		 pop	 edi

; 105  : 		}
; 106  : 	}
; 107  : }

  0005a	5e		 pop	 esi
  0005b	5b		 pop	 ebx
  0005c	5d		 pop	 ebp
  0005d	c2 0c 00	 ret	 12			; 0000000cH
$LN10@SerializeE:

; 97   : 		while( nElementsLeft > 0 )

  00060	85 f6		 test	 esi, esi
  00062	74 f5		 je	 SHORT $LN8@SerializeE
$LL7@SerializeE:

; 98   : 		{
; 99   : 			UINT nElementsToRead;
; 100  : 
; 101  : 			nElementsToRead = UINT(__min(nElementsLeft, INT_MAX/sizeof(TYPE)));

  00064	bf ff ff ff 1f	 mov	 edi, 536870911		; 1fffffffH
  00069	3b f7		 cmp	 esi, edi
  0006b	0f 42 fe	 cmovb	 edi, esi

; 102  : 			ar.EnsureRead(pData, nElementsToRead*sizeof(TYPE));

  0006e	8d 1c bd 00 00
	00 00		 lea	 ebx, DWORD PTR [edi*4]
; File C:\Program Files (x86)\Microsoft Visual Studio\2019\Community\VC\Tools\MSVC\14.29.30133\atlmfc\include\afx.inl

; 399  : 	UINT nRead=Read(lpBuf, nCount);

  00075	53		 push	 ebx
  00076	51		 push	 ecx
  00077	8b ca		 mov	 ecx, edx
  00079	e8 00 00 00 00	 call	 ?Read@CArchive@@QAEIPAXI@Z ; CArchive::Read

; 400  : 	if(nRead!=nCount)

  0007e	3b c3		 cmp	 eax, ebx
  00080	75 16		 jne	 SHORT $LN23@SerializeE
; File C:\Program Files (x86)\Microsoft Visual Studio\2019\Community\VC\Tools\MSVC\14.29.30133\atlmfc\include\afxtempl.h

; 97   : 		while( nElementsLeft > 0 )

  00082	8b 4d 0c	 mov	 ecx, DWORD PTR _pElements$[ebp]
  00085	8b 55 08	 mov	 edx, DWORD PTR _ar$[ebp]

; 103  : 			nElementsLeft -= nElementsToRead;
; 104  : 			pData += nElementsToRead;

  00088	03 cb		 add	 ecx, ebx
  0008a	89 4d 0c	 mov	 DWORD PTR _pElements$[ebp], ecx
  0008d	2b f7		 sub	 esi, edi
  0008f	75 d3		 jne	 SHORT $LL7@SerializeE

; 105  : 		}
; 106  : 	}
; 107  : }

  00091	5f		 pop	 edi
  00092	5e		 pop	 esi
  00093	5b		 pop	 ebx
  00094	5d		 pop	 ebp
  00095	c2 0c 00	 ret	 12			; 0000000cH
$LN23@SerializeE:
; File C:\Program Files (x86)\Microsoft Visual Studio\2019\Community\VC\Tools\MSVC\14.29.30133\atlmfc\include\afx.inl

; 402  : 		AfxThrowArchiveException(CArchiveException::endOfFile);

  00098	6a 00		 push	 0
  0009a	6a 03		 push	 3
  0009c	e8 00 00 00 00	 call	 ?AfxThrowArchiveException@@YGXHPBD@Z ; AfxThrowArchiveException
$LN34@SerializeE:
; File C:\Program Files (x86)\Microsoft Visual Studio\2019\Community\VC\Tools\MSVC\14.29.30133\atlmfc\include\afxtempl.h

; 68   : 	ENSURE(nCount == 0 || pElements != NULL);

  000a1	e8 00 00 00 00	 call	 ?AfxThrowInvalidArgException@@YGXXZ ; AfxThrowInvalidArgException
$LN32@SerializeE:
  000a6	cc		 int	 3
??$SerializeElements@PAVCHistory@@@@YGXAAVCArchive@@PAPAVCHistory@@H@Z ENDP ; SerializeElements<CHistory *>
_TEXT	ENDS
; Function compile flags: /Ogtp
;	COMDAT ??1CMiniTickBarCFG@@UAE@XZ
_TEXT	SEGMENT
__$EHRec$ = -12						; size = 12
??1CMiniTickBarCFG@@UAE@XZ PROC				; CMiniTickBarCFG::~CMiniTickBarCFG, COMDAT
; _this$ = ecx
  00000	55		 push	 ebp
  00001	8b ec		 mov	 ebp, esp
  00003	6a ff		 push	 -1
  00005	68 00 00 00 00	 push	 __ehhandler$??1CMiniTickBarCFG@@UAE@XZ
  0000a	64 a1 00 00 00
	00		 mov	 eax, DWORD PTR fs:0
  00010	50		 push	 eax
  00011	56		 push	 esi
  00012	a1 00 00 00 00	 mov	 eax, DWORD PTR ___security_cookie
  00017	33 c5		 xor	 eax, ebp
  00019	50		 push	 eax
  0001a	8d 45 f4	 lea	 eax, DWORD PTR __$EHRec$[ebp]
  0001d	64 a3 00 00 00
	00		 mov	 DWORD PTR fs:0, eax
  00023	8b f1		 mov	 esi, ecx
  00025	ff 35 00 00 00
	00		 push	 DWORD PTR __imp_??1?$CStringT@DV?$StrTraitMFC_DLL@DV?$ChTraitsCRT@D@ATL@@@@@ATL@@QAE@XZ
  0002b	8d 86 a8 00 00
	00		 lea	 eax, DWORD PTR [esi+168]
  00031	6a 09		 push	 9
  00033	6a 04		 push	 4
  00035	50		 push	 eax
  00036	e8 00 00 00 00	 call	 ??_M@YGXPAXIIP6EX0@Z@Z
  0003b	8b ce		 mov	 ecx, esi
  0003d	e8 00 00 00 00	 call	 ??1CDialog@@UAE@XZ	; CDialog::~CDialog
  00042	8b 4d f4	 mov	 ecx, DWORD PTR __$EHRec$[ebp]
  00045	64 89 0d 00 00
	00 00		 mov	 DWORD PTR fs:0, ecx
  0004c	59		 pop	 ecx
  0004d	5e		 pop	 esi
  0004e	8b e5		 mov	 esp, ebp
  00050	5d		 pop	 ebp
  00051	c3		 ret	 0
  00052	cc		 int	 3
  00053	cc		 int	 3
  00054	cc		 int	 3
  00055	cc		 int	 3
  00056	cc		 int	 3
_TEXT	ENDS
;	COMDAT text$x
text$x	SEGMENT
__ehhandler$??1CMiniTickBarCFG@@UAE@XZ:
  00000	90		 npad	 1
  00001	90		 npad	 1
  00002	8b 54 24 08	 mov	 edx, DWORD PTR [esp+8]
  00006	8d 42 0c	 lea	 eax, DWORD PTR [edx+12]
  00009	8b 4a f8	 mov	 ecx, DWORD PTR [edx-8]
  0000c	33 c8		 xor	 ecx, eax
  0000e	e8 00 00 00 00	 call	 @__security_check_cookie@4
  00013	b8 00 00 00 00	 mov	 eax, OFFSET __ehfuncinfo$??1CMiniTickBarCFG@@UAE@XZ
  00018	e9 00 00 00 00	 jmp	 ___CxxFrameHandler3
text$x	ENDS
??1CMiniTickBarCFG@@UAE@XZ ENDP				; CMiniTickBarCFG::~CMiniTickBarCFG
; Function compile flags: /Ogtp
; File D:\git\src\IBK\IBK_DRFN\ProjSrc\SrcDrfn\Chart\MULTICHART\MiniTickBarDlg.cpp
; File C:\Program Files (x86)\Microsoft Visual Studio\2019\Community\VC\Tools\MSVC\14.29.30133\atlmfc\include\afx.inl
;	COMDAT ??_GCMiniTickBarDlg@@UAEPAXI@Z
_TEXT	SEGMENT
__$EHRec$ = -12						; size = 12
___flags$ = 8						; size = 4
??_GCMiniTickBarDlg@@UAEPAXI@Z PROC			; CMiniTickBarDlg::`scalar deleting destructor', COMDAT
; _this$ = ecx
  00000	55		 push	 ebp
  00001	8b ec		 mov	 ebp, esp
  00003	6a ff		 push	 -1
  00005	68 00 00 00 00	 push	 __ehhandler$??_GCMiniTickBarDlg@@UAEPAXI@Z
  0000a	64 a1 00 00 00
	00		 mov	 eax, DWORD PTR fs:0
  00010	50		 push	 eax
  00011	56		 push	 esi
  00012	57		 push	 edi
  00013	a1 00 00 00 00	 mov	 eax, DWORD PTR ___security_cookie
  00018	33 c5		 xor	 eax, ebp
  0001a	50		 push	 eax
  0001b	8d 45 f4	 lea	 eax, DWORD PTR __$EHRec$[ebp]
  0001e	64 a3 00 00 00
	00		 mov	 DWORD PTR fs:0, eax
  00024	8b f9		 mov	 edi, ecx
; File D:\git\src\IBK\IBK_DRFN\ProjSrc\SrcDrfn\Chart\MULTICHART\MiniTickBarDlg.cpp

; 28   : 	if(m_pSetTick)

  00026	8b 87 b0 3d 00
	00		 mov	 eax, DWORD PTR [edi+15792]
  0002c	c7 45 fc 00 00
	00 00		 mov	 DWORD PTR __$EHRec$[ebp+8], 0
  00033	85 c0		 test	 eax, eax
  00035	74 31		 je	 SHORT $LN13@scalar
  00037	68 00 00 00 00	 push	 OFFSET ??1_ST_SETTICK@@QAE@XZ
  0003c	ff 70 fc	 push	 DWORD PTR [eax-4]
  0003f	8d 70 fc	 lea	 esi, DWORD PTR [eax-4]
  00042	c6 45 fc 01	 mov	 BYTE PTR __$EHRec$[ebp+8], 1
  00046	6a 14		 push	 20			; 00000014H
  00048	50		 push	 eax
  00049	e8 00 00 00 00	 call	 ??_M@YGXPAXIIP6EX0@Z@Z
  0004e	8b 06		 mov	 eax, DWORD PTR [esi]
  00050	8d 04 80	 lea	 eax, DWORD PTR [eax+eax*4]
  00053	8d 04 85 04 00
	00 00		 lea	 eax, DWORD PTR [eax*4+4]
  0005a	50		 push	 eax
  0005b	56		 push	 esi
  0005c	e8 00 00 00 00	 call	 ??_V@YAXPAXI@Z		; operator delete[]
  00061	83 c4 08	 add	 esp, 8
  00064	c6 45 fc 00	 mov	 BYTE PTR __$EHRec$[ebp+8], 0
$LN13@scalar:
  00068	68 00 00 00 00	 push	 OFFSET ??1CILButton@@UAE@XZ ; CILButton::~CILButton
  0006d	6a 09		 push	 9
  0006f	68 60 01 00 00	 push	 352			; 00000160H
  00074	8d 87 50 31 00
	00		 lea	 eax, DWORD PTR [edi+12624]
  0007a	50		 push	 eax
  0007b	e8 00 00 00 00	 call	 ??_M@YGXPAXIIP6EX0@Z@Z
  00080	8d 8f f0 2f 00
	00		 lea	 ecx, DWORD PTR [edi+12272]
  00086	e8 00 00 00 00	 call	 ??1CILButton@@UAE@XZ	; CILButton::~CILButton
  0008b	8d 8f 90 2e 00
	00		 lea	 ecx, DWORD PTR [edi+11920]
  00091	e8 00 00 00 00	 call	 ??1CILButton@@UAE@XZ	; CILButton::~CILButton
  00096	8d 8f 30 2d 00
	00		 lea	 ecx, DWORD PTR [edi+11568]
  0009c	e8 00 00 00 00	 call	 ??1CILButton@@UAE@XZ	; CILButton::~CILButton
  000a1	8b cf		 mov	 ecx, edi
  000a3	e8 00 00 00 00	 call	 ??1CInputBarDlg@@UAE@XZ
  000a8	8b 45 08	 mov	 eax, DWORD PTR ___flags$[ebp]
  000ab	a8 01		 test	 al, 1
  000ad	74 1d		 je	 SHORT $LN26@scalar
  000af	a8 04		 test	 al, 4
  000b1	75 0b		 jne	 SHORT $LN3@scalar
; File C:\Program Files (x86)\Microsoft Visual Studio\2019\Community\VC\Tools\MSVC\14.29.30133\atlmfc\include\afx.inl

; 112  : 	{ ::operator delete(p); }

  000b3	57		 push	 edi
  000b4	e8 00 00 00 00	 call	 ??3@YAXPAX@Z		; operator delete
  000b9	83 c4 04	 add	 esp, 4
  000bc	eb 0e		 jmp	 SHORT $LN26@scalar
$LN3@scalar:
  000be	68 b8 3d 00 00	 push	 15800			; 00003db8H
  000c3	57		 push	 edi
  000c4	e8 00 00 00 00	 call	 ?__global_delete@@YAXPAXI@Z ; __global_delete
  000c9	83 c4 08	 add	 esp, 8
$LN26@scalar:
  000cc	8b c7		 mov	 eax, edi
  000ce	8b 4d f4	 mov	 ecx, DWORD PTR __$EHRec$[ebp]
  000d1	64 89 0d 00 00
	00 00		 mov	 DWORD PTR fs:0, ecx
  000d8	59		 pop	 ecx
  000d9	5f		 pop	 edi
  000da	5e		 pop	 esi
  000db	8b e5		 mov	 esp, ebp
  000dd	5d		 pop	 ebp
  000de	c2 04 00	 ret	 4
  000e1	cc		 int	 3
  000e2	cc		 int	 3
  000e3	cc		 int	 3
  000e4	cc		 int	 3
  000e5	cc		 int	 3
_TEXT	ENDS
;	COMDAT text$x
text$x	SEGMENT
__ehhandler$??_GCMiniTickBarDlg@@UAEPAXI@Z:
  00000	90		 npad	 1
  00001	90		 npad	 1
  00002	8b 54 24 08	 mov	 edx, DWORD PTR [esp+8]
  00006	8d 42 0c	 lea	 eax, DWORD PTR [edx+12]
  00009	8b 4a f4	 mov	 ecx, DWORD PTR [edx-12]
  0000c	33 c8		 xor	 ecx, eax
  0000e	e8 00 00 00 00	 call	 @__security_check_cookie@4
  00013	b8 00 00 00 00	 mov	 eax, OFFSET __ehfuncinfo$??_GCMiniTickBarDlg@@UAEPAXI@Z
  00018	e9 00 00 00 00	 jmp	 ___CxxFrameHandler3
text$x	ENDS
??_GCMiniTickBarDlg@@UAEPAXI@Z ENDP			; CMiniTickBarDlg::`scalar deleting destructor'
; Function compile flags: /Ogtp
; File D:\git\src\IBK\IBK_DRFN\ProjSrc\SrcDrfn\Chart\MULTICHART\MiniTickBarDlg.cpp
;	COMDAT ?GetMessageMap@CMiniTickBarDlg@@MBEPBUAFX_MSGMAP@@XZ
_TEXT	SEGMENT
?GetMessageMap@CMiniTickBarDlg@@MBEPBUAFX_MSGMAP@@XZ PROC ; CMiniTickBarDlg::GetMessageMap, COMDAT
; _this$ = ecx

; 267  : BEGIN_MESSAGE_MAP(CMiniTickBarDlg, CInputBarDlg)

  00000	b8 00 00 00 00	 mov	 eax, OFFSET ?messageMap@?1??GetThisMessageMap@CMiniTickBarDlg@@KGPBUAFX_MSGMAP@@XZ@4U3@B
  00005	c3		 ret	 0
?GetMessageMap@CMiniTickBarDlg@@MBEPBUAFX_MSGMAP@@XZ ENDP ; CMiniTickBarDlg::GetMessageMap
_TEXT	ENDS
; Function compile flags: /Ogtp
; File D:\git\src\IBK\IBK_DRFN\ProjSrc\SrcDrfn\Chart\MULTICHART\MiniTickBarDlg.cpp
;	COMDAT ?GetThisMessageMap@CMiniTickBarDlg@@KGPBUAFX_MSGMAP@@XZ
_TEXT	SEGMENT
?GetThisMessageMap@CMiniTickBarDlg@@KGPBUAFX_MSGMAP@@XZ PROC ; CMiniTickBarDlg::GetThisMessageMap, COMDAT

; 268  : 	//{{AFX_MSG_MAP(CMiniTickBarDlg)
; 269  : 	ON_BN_CLICKED(IDC_BTN_CONFIG, OnBtnConfig)
; 270  : 	ON_BN_CLICKED(IDC_BTN_MOVETOLEFTRIGHT, OnBtnMovetoleftright)
; 271  : 	ON_WM_SIZE()
; 272  : 	ON_BN_CLICKED(IDC_BTINITIAL, OnBtinitial)
; 273  : 	//}}AFX_MSG_MAP
; 274  : 	ON_COMMAND_RANGE(IDC_BTN_01, IDC_BTN_09, OnBtn)
; 275  : END_MESSAGE_MAP()

  00000	b8 00 00 00 00	 mov	 eax, OFFSET ?messageMap@?1??GetThisMessageMap@CMiniTickBarDlg@@KGPBUAFX_MSGMAP@@XZ@4U3@B
  00005	c3		 ret	 0
?GetThisMessageMap@CMiniTickBarDlg@@KGPBUAFX_MSGMAP@@XZ ENDP ; CMiniTickBarDlg::GetThisMessageMap
_TEXT	ENDS
; Function compile flags: /Ogtp
; File D:\git\src\IBK\IBK_DRFN\ProjSrc\SrcDrfn\Chart\MULTICHART\MiniTickBarDlg.cpp
; File C:\Program Files (x86)\Microsoft Visual Studio\2019\Community\VC\Tools\MSVC\14.29.30133\atlmfc\include\afxwin2.inl
; File D:\git\src\IBK\IBK_DRFN\ProjSrc\SrcDrfn\Chart\MULTICHART\MiniTickBarDlg.cpp
; File C:\Program Files (x86)\Microsoft Visual Studio\2019\Community\VC\Tools\MSVC\14.29.30133\atlmfc\include\afxwin2.inl
; File D:\git\src\IBK\IBK_DRFN\ProjSrc\SrcDrfn\Chart\MULTICHART\MiniTickBarDlg.cpp
; File C:\Program Files (x86)\Microsoft Visual Studio\2019\Community\VC\Tools\MSVC\14.29.30133\atlmfc\include\afxwin2.inl
; File D:\git\src\IBK\IBK_DRFN\ProjSrc\SrcDrfn\Chart\MULTICHART\MiniTickBarDlg.cpp
; File C:\Program Files (x86)\Microsoft Visual Studio\2019\Community\VC\Tools\MSVC\14.29.30133\atlmfc\include\afxwin2.inl
; File D:\git\src\IBK\IBK_DRFN\ProjSrc\SrcDrfn\Chart\MULTICHART\MiniTickBarDlg.cpp
; File C:\Program Files (x86)\Microsoft Visual Studio\2019\Community\VC\Tools\MSVC\14.29.30133\atlmfc\include\afxwin2.inl
; File D:\git\src\IBK\IBK_DRFN\ProjSrc\SrcDrfn\Chart\MULTICHART\MiniTickBarDlg.cpp
; File C:\Program Files (x86)\Microsoft Visual Studio\2019\Community\VC\Tools\MSVC\14.29.30133\atlmfc\include\afxwin2.inl
; File D:\git\src\IBK\IBK_DRFN\ProjSrc\SrcDrfn\Chart\MULTICHART\MiniTickBarDlg.cpp
;	COMDAT ?OnBtn@CMiniTickBarDlg@@IAEXI@Z
_TEXT	SEGMENT
_CodeData$ = -96					; size = 32
_arrName$2 = -64					; size = 20
_arrCode$3 = -44					; size = 20
_nTick$1$ = -20						; size = 4
_this$1$ = -16						; size = 4
_strFOCode$4 = -16					; size = 4
__$EHRec$ = -12						; size = 12
_nIndex$1$ = 8						; size = 4
_strCode$ = 8						; size = 4
_nID$ = 8						; size = 4
?OnBtn@CMiniTickBarDlg@@IAEXI@Z PROC			; CMiniTickBarDlg::OnBtn, COMDAT
; _this$ = ecx

; 406  : {

  00000	55		 push	 ebp
  00001	8b ec		 mov	 ebp, esp
  00003	6a ff		 push	 -1
  00005	68 00 00 00 00	 push	 __ehhandler$?OnBtn@CMiniTickBarDlg@@IAEXI@Z
  0000a	64 a1 00 00 00
	00		 mov	 eax, DWORD PTR fs:0
  00010	50		 push	 eax
  00011	83 ec 54	 sub	 esp, 84			; 00000054H
  00014	53		 push	 ebx
  00015	56		 push	 esi
  00016	57		 push	 edi
  00017	a1 00 00 00 00	 mov	 eax, DWORD PTR ___security_cookie
  0001c	33 c5		 xor	 eax, ebp
  0001e	50		 push	 eax
  0001f	8d 45 f4	 lea	 eax, DWORD PTR __$EHRec$[ebp]
  00022	64 a3 00 00 00
	00		 mov	 DWORD PTR fs:0, eax
  00028	8b d9		 mov	 ebx, ecx
  0002a	89 5d f0	 mov	 DWORD PTR _this$1$[ebp], ebx

; 407  : 	int nIndex = nID - IDC_BTN_01;

  0002d	81 45 08 0a e7
	ff ff		 add	 DWORD PTR _nID$[ebp], -6390 ; ffffe70aH
  00034	8d bb 50 31 00
	00		 lea	 edi, DWORD PTR [ebx+12624]
  0003a	8b 5d 08	 mov	 ebx, DWORD PTR _nIndex$1$[ebp]
  0003d	33 f6		 xor	 esi, esi
  0003f	90		 npad	 1
$LL4@OnBtn:

; 408  : 
; 409  : 	for(int i = 0; i < DEF_SIZE; i++)

  00040	33 c0		 xor	 eax, eax
  00042	8b cf		 mov	 ecx, edi
  00044	3b f3		 cmp	 esi, ebx
  00046	0f 94 c0	 sete	 al
  00049	50		 push	 eax
  0004a	e8 00 00 00 00	 call	 ?SetCheck@CILButton@@QAEXH@Z ; CILButton::SetCheck
  0004f	46		 inc	 esi
  00050	81 c7 60 01 00
	00		 add	 edi, 352		; 00000160H
  00056	83 fe 09	 cmp	 esi, 9
  00059	7c e5		 jl	 SHORT $LL4@OnBtn

; 126  : 	int nDate = m_pSetTick[nIndex].nDate;

  0005b	8d 3c 9b	 lea	 edi, DWORD PTR [ebx+ebx*4]
  0005e	8b 5d f0	 mov	 ebx, DWORD PTR _this$1$[ebp]
  00061	8b 8b b0 3d 00
	00		 mov	 ecx, DWORD PTR [ebx+15792]
  00067	8b 44 b9 08	 mov	 eax, DWORD PTR [ecx+edi*4+8]

; 127  : 	switch(nDate)

  0006b	83 f8 05	 cmp	 eax, 5
  0006e	77 1b		 ja	 SHORT $LN21@OnBtn
  00070	ff 24 85 00 00
	00 00		 jmp	 DWORD PTR $LN62@OnBtn[eax*4]
$LN24@OnBtn:

; 128  : 	{
; 129  : 	case 0:
; 130  : 		return TICK_DATA_CHART;
; 131  : 	case 1:
; 132  : 		return MIN_DATA_CHART;

  00077	b0 31		 mov	 al, 49			; 00000031H
  00079	eb 12		 jmp	 SHORT $LN20@OnBtn
$LN25@OnBtn:

; 133  : 	case 2:
; 134  : 		return DAY_DATA_CHART;

  0007b	b0 32		 mov	 al, 50			; 00000032H
  0007d	eb 0e		 jmp	 SHORT $LN20@OnBtn
$LN26@OnBtn:

; 135  : 	case 3:
; 136  : 		return WEEK_DATA_CHART;

  0007f	b0 33		 mov	 al, 51			; 00000033H
  00081	eb 0a		 jmp	 SHORT $LN20@OnBtn
$LN27@OnBtn:

; 137  : 	case 4:
; 138  : 		return MONTH_DATA_CHART;

  00083	b0 34		 mov	 al, 52			; 00000034H
  00085	eb 06		 jmp	 SHORT $LN20@OnBtn
$LN28@OnBtn:

; 139  : 	case 5:
; 140  : 		return YEAR_DATA_CHART;

  00087	b0 35		 mov	 al, 53			; 00000035H
  00089	eb 02		 jmp	 SHORT $LN20@OnBtn
$LN21@OnBtn:

; 410  : 	{
; 411  : 		if(i == nIndex)
; 412  : 		{
; 413  : 			m_btn[i].SetCheck(TRUE);
; 414  : 			continue;
; 415  : 		}
; 416  : 
; 417  : 		m_btn[i].SetCheck(FALSE);
; 418  : 	}
; 419  : 
; 420  : 	m_chType = m_SetTickBtn.GetDate(nIndex);

  0008b	b0 30		 mov	 al, 48			; 00000030H
$LN20@OnBtn:
  0008d	88 83 b0 2b 00
	00		 mov	 BYTE PTR [ebx+11184], al

; 153  : 	return m_pSetTick[nIndex].nTick;

  00093	8b 44 b9 0c	 mov	 eax, DWORD PTR [ecx+edi*4+12]
  00097	89 45 ec	 mov	 DWORD PTR _nTick$1$[ebp], eax

; 111  : 	switch(nMarket)

  0009a	8b 44 b9 04	 mov	 eax, DWORD PTR [ecx+edi*4+4]
  0009e	83 e8 00	 sub	 eax, 0
  000a1	74 16		 je	 SHORT $LN35@OnBtn
  000a3	83 e8 01	 sub	 eax, 1
  000a6	74 0a		 je	 SHORT $LN36@OnBtn
  000a8	83 e8 01	 sub	 eax, 1
  000ab	75 0c		 jne	 SHORT $LN35@OnBtn

; 117  : 	case 2:
; 118  : 		return CMasterTypeInfo::FUTOPT_CHART;

  000ad	8d 70 02	 lea	 esi, DWORD PTR [eax+2]
  000b0	eb 09		 jmp	 SHORT $LN32@OnBtn
$LN36@OnBtn:

; 112  : 	{
; 113  : 	case 0:
; 114  : 		return CMasterTypeInfo::STOCK_CHART;
; 115  : 	case 1:
; 116  : 		return CMasterTypeInfo::UPJONG_CHART;

  000b2	be 01 00 00 00	 mov	 esi, 1
  000b7	eb 02		 jmp	 SHORT $LN32@OnBtn
$LN35@OnBtn:

; 421  : 	int nTick = m_SetTickBtn.GetTick(nIndex);
; 422  : 
; 423  : 	int nMarket = m_SetTickBtn.GetMarket(nIndex);
; 424  : 	CString strCode = GetCurrentCode();

  000b9	33 f6		 xor	 esi, esi
$LN32@OnBtn:
  000bb	8d 45 08	 lea	 eax, DWORD PTR _strCode$[ebp]
  000be	8b cb		 mov	 ecx, ebx
  000c0	50		 push	 eax
  000c1	e8 00 00 00 00	 call	 ?GetCurrentCode@CInputBarDlg@@QAE?AV?$CStringT@DV?$StrTraitMFC_DLL@DV?$ChTraitsCRT@D@ATL@@@@@ATL@@XZ ; CInputBarDlg::GetCurrentCode
  000c6	c7 45 fc 00 00
	00 00		 mov	 DWORD PTR __$EHRec$[ebp+8], 0

; 425  : 	if(nMarket != m_nMarketType)

  000cd	3b b3 20 01 00
	00		 cmp	 esi, DWORD PTR [ebx+288]
  000d3	0f 84 0d 01 00
	00		 je	 $LN6@OnBtn

; 427  : 		CStringArray arrCode, arrName;

  000d9	8d 4d d4	 lea	 ecx, DWORD PTR _arrCode$3[ebp]
  000dc	e8 00 00 00 00	 call	 ??0CStringArray@@QAE@XZ	; CStringArray::CStringArray
  000e1	8d 4d c0	 lea	 ecx, DWORD PTR _arrName$2[ebp]
  000e4	c6 45 fc 01	 mov	 BYTE PTR __$EHRec$[ebp+8], 1
  000e8	e8 00 00 00 00	 call	 ??0CStringArray@@QAE@XZ	; CStringArray::CStringArray

; 430  : 		((CStdDialog*)GetParent())->ChangeStockMode(nMarket);

  000ed	56		 push	 esi
; File C:\Program Files (x86)\Microsoft Visual Studio\2019\Community\VC\Tools\MSVC\14.29.30133\atlmfc\include\afxwin2.inl

; 213  : 	{ ASSERT(::IsWindow(m_hWnd)); return CWnd::FromHandle(::GetParent(m_hWnd)); }

  000ee	ff 73 20	 push	 DWORD PTR [ebx+32]
; File D:\git\src\IBK\IBK_DRFN\ProjSrc\SrcDrfn\Chart\MULTICHART\MiniTickBarDlg.cpp

; 427  : 		CStringArray arrCode, arrName;

  000f1	c6 45 fc 02	 mov	 BYTE PTR __$EHRec$[ebp+8], 2

; 428  : 
; 429  : 		SetMarketType(nMarket);

  000f5	89 b3 20 01 00
	00		 mov	 DWORD PTR [ebx+288], esi
; File C:\Program Files (x86)\Microsoft Visual Studio\2019\Community\VC\Tools\MSVC\14.29.30133\atlmfc\include\afxwin2.inl

; 213  : 	{ ASSERT(::IsWindow(m_hWnd)); return CWnd::FromHandle(::GetParent(m_hWnd)); }

  000fb	ff 15 00 00 00
	00		 call	 DWORD PTR __imp__GetParent@4
  00101	50		 push	 eax
  00102	e8 00 00 00 00	 call	 ?FromHandle@CWnd@@SGPAV1@PAUHWND__@@@Z ; CWnd::FromHandle
; File D:\git\src\IBK\IBK_DRFN\ProjSrc\SrcDrfn\Chart\MULTICHART\MiniTickBarDlg.cpp

; 430  : 		((CStdDialog*)GetParent())->ChangeStockMode(nMarket);

  00107	8b c8		 mov	 ecx, eax
  00109	e8 00 00 00 00	 call	 ?ChangeStockMode@CStdDialog@@QAEXH@Z ; CStdDialog::ChangeStockMode

; 431  : 		//((CChartMng*)m_pChartMng)->SetMarketType(nMarket);
; 432  : 
; 433  : 		m_pDataManager->GetRecentCodeNameArray(nMarket, arrCode, arrName);

  0010e	8b 83 e0 2c 00
	00		 mov	 eax, DWORD PTR [ebx+11488]
  00114	8d 55 c0	 lea	 edx, DWORD PTR _arrName$2[ebp]
  00117	52		 push	 edx
  00118	8d 55 d4	 lea	 edx, DWORD PTR _arrCode$3[ebp]
  0011b	52		 push	 edx
  0011c	8b 08		 mov	 ecx, DWORD PTR [eax]
  0011e	56		 push	 esi
  0011f	50		 push	 eax
  00120	ff 91 a0 00 00
	00		 call	 DWORD PTR [ecx+160]

; 434  : 		if(arrCode.GetSize()>0)

  00126	83 7d dc 00	 cmp	 DWORD PTR _arrCode$3[ebp+8], 0
  0012a	7e 0c		 jle	 SHORT $LN7@OnBtn

; 435  : 		{
; 436  : 			strCode = arrCode.GetAt(0);

  0012c	ff 75 d8	 push	 DWORD PTR _arrCode$3[ebp+4]
  0012f	8d 4d 08	 lea	 ecx, DWORD PTR _strCode$[ebp]
  00132	ff 15 00 00 00
	00		 call	 DWORD PTR __imp_??4?$CStringT@DV?$StrTraitMFC_DLL@DV?$ChTraitsCRT@D@ATL@@@@@ATL@@QAEAAV01@ABV01@@Z
$LN7@OnBtn:
; File C:\Program Files (x86)\Microsoft Visual Studio\2019\Community\VC\Tools\MSVC\14.29.30133\atlmfc\include\afxwin2.inl

; 213  : 	{ ASSERT(::IsWindow(m_hWnd)); return CWnd::FromHandle(::GetParent(m_hWnd)); }

  00138	ff 73 20	 push	 DWORD PTR [ebx+32]
  0013b	ff 15 00 00 00
	00		 call	 DWORD PTR __imp__GetParent@4
  00141	50		 push	 eax
  00142	e8 00 00 00 00	 call	 ?FromHandle@CWnd@@SGPAV1@PAUHWND__@@@Z ; CWnd::FromHandle
; File D:\git\src\IBK\IBK_DRFN\ProjSrc\SrcDrfn\Chart\MULTICHART\MiniTickBarDlg.cpp

; 441  : 		if(nMarket == CMasterTypeInfo::UPJONG_CHART)

  00147	83 fe 01	 cmp	 esi, 1
  0014a	75 10		 jne	 SHORT $LN8@OnBtn

; 442  : 		{
; 443  : 			strCode = _T("001");

  0014c	68 00 00 00 00	 push	 OFFSET ??_C@_03MMKGDKGA@001@
  00151	8d 4d 08	 lea	 ecx, DWORD PTR _strCode$[ebp]
  00154	ff 15 00 00 00
	00		 call	 DWORD PTR __imp_??4?$CStringT@DV?$StrTraitMFC_DLL@DV?$ChTraitsCRT@D@ATL@@@@@ATL@@QAEAAV01@PBD@Z

; 444  : // 			::EnableWindow(m_pCodeInput->GetSafeHwnd(), FALSE);
; 445  : // 			UINT nMoveDirection = GetMoveDirection();
; 446  : // 			if(nMoveDirection!=2)
; 447  : // 			{
; 448  : // 				SetMoveDirection(2);
; 449  : // 				MoveToLeftRight(2);
; 450  : // 				m_btnMoveToLeftRight.EnableWindow(FALSE);
; 451  : // 				m_btnMoveToLeftRight.FP_vSetImage( pIL_W20H20, 59, 59);
; 452  : // 			}
; 453  : 		
; 454  : 		}

  0015a	eb 76		 jmp	 SHORT $LN12@OnBtn
$LN8@OnBtn:

; 455  : 		else if(nMarket == CMasterTypeInfo::FUTOPT_CHART)

  0015c	83 fe 02	 cmp	 esi, 2
  0015f	75 47		 jne	 SHORT $LN10@OnBtn

; 456  : 		{
; 457  : 			CString strFOCode;

  00161	8d 4d f0	 lea	 ecx, DWORD PTR _strFOCode$4[ebp]
  00164	ff 15 00 00 00
	00		 call	 DWORD PTR __imp_??0?$CStringT@DV?$StrTraitMFC_DLL@DV?$ChTraitsCRT@D@ATL@@@@@ATL@@QAE@XZ

; 458  : 			m_pDataManager->GetRecentCode(strCode, strFOCode, 10);

  0016a	6a 0a		 push	 10			; 0000000aH
  0016c	8d 45 f0	 lea	 eax, DWORD PTR _strFOCode$4[ebp]
  0016f	c6 45 fc 03	 mov	 BYTE PTR __$EHRec$[ebp+8], 3
  00173	50		 push	 eax
  00174	51		 push	 ecx
  00175	8d 45 08	 lea	 eax, DWORD PTR _strCode$[ebp]
  00178	8b cc		 mov	 ecx, esp
  0017a	50		 push	 eax
  0017b	ff 15 00 00 00
	00		 call	 DWORD PTR __imp_??0?$CStringT@DV?$StrTraitMFC_DLL@DV?$ChTraitsCRT@D@ATL@@@@@ATL@@QAE@ABV01@@Z
  00181	8b 83 e0 2c 00
	00		 mov	 eax, DWORD PTR [ebx+11488]
  00187	50		 push	 eax
  00188	8b 08		 mov	 ecx, DWORD PTR [eax]
  0018a	ff 91 94 00 00
	00		 call	 DWORD PTR [ecx+148]

; 459  : 		//	::EnableWindow(m_pCodeInput->GetSafeHwnd(), FALSE);
; 460  : 			strCode = strFOCode;

  00190	8d 45 f0	 lea	 eax, DWORD PTR _strFOCode$4[ebp]
  00193	50		 push	 eax
  00194	8d 4d 08	 lea	 ecx, DWORD PTR _strCode$[ebp]
  00197	ff 15 00 00 00
	00		 call	 DWORD PTR __imp_??4?$CStringT@DV?$StrTraitMFC_DLL@DV?$ChTraitsCRT@D@ATL@@@@@ATL@@QAEAAV01@ABV01@@Z

; 461  : // 			UINT nMoveDirection = GetMoveDirection();
; 462  : // 			if(nMoveDirection!=2)
; 463  : // 			{
; 464  : // 				SetMoveDirection(2);
; 465  : // 				MoveToLeftRight(2);
; 466  : // 				m_btnMoveToLeftRight.EnableWindow(FALSE);
; 467  : // 				m_btnMoveToLeftRight.FP_vSetImage( pIL_W20H20, 59, 59);
; 468  : // 			}
; 469  : 		}

  0019d	8d 4d f0	 lea	 ecx, DWORD PTR _strFOCode$4[ebp]
  001a0	ff 15 00 00 00
	00		 call	 DWORD PTR __imp_??1?$CStringT@DV?$StrTraitMFC_DLL@DV?$ChTraitsCRT@D@ATL@@@@@ATL@@QAE@XZ
  001a6	eb 2a		 jmp	 SHORT $LN12@OnBtn
$LN10@OnBtn:

; 470  : 		else
; 471  : 		{
; 472  : 			m_pDataManager->GetRecentCodeNameArray(nMarket, arrCode, arrName);

  001a8	8b 83 e0 2c 00
	00		 mov	 eax, DWORD PTR [ebx+11488]
  001ae	8d 55 c0	 lea	 edx, DWORD PTR _arrName$2[ebp]
  001b1	52		 push	 edx
  001b2	8d 55 d4	 lea	 edx, DWORD PTR _arrCode$3[ebp]
  001b5	52		 push	 edx
  001b6	8b 08		 mov	 ecx, DWORD PTR [eax]
  001b8	56		 push	 esi
  001b9	50		 push	 eax
  001ba	ff 91 a0 00 00
	00		 call	 DWORD PTR [ecx+160]

; 473  : 			if(arrCode.GetSize()>0)

  001c0	83 7d dc 00	 cmp	 DWORD PTR _arrCode$3[ebp+8], 0
  001c4	7e 0c		 jle	 SHORT $LN12@OnBtn

; 474  : 			{
; 475  : 				strCode = arrCode.GetAt(0);

  001c6	ff 75 d8	 push	 DWORD PTR _arrCode$3[ebp+4]
  001c9	8d 4d 08	 lea	 ecx, DWORD PTR _strCode$[ebp]
  001cc	ff 15 00 00 00
	00		 call	 DWORD PTR __imp_??4?$CStringT@DV?$StrTraitMFC_DLL@DV?$ChTraitsCRT@D@ATL@@@@@ATL@@QAEAAV01@ABV01@@Z
$LN12@OnBtn:

; 476  : 			}
; 477  : // 			UINT nMoveDirection = GetMoveDirection();
; 478  : // 			if(nMoveDirection!=1)
; 479  : // 			{
; 480  : // 				SetMoveDirection(1);
; 481  : // 				MoveToLeftRight(1);
; 482  : // 				m_btnMoveToLeftRight.EnableWindow(TRUE);
; 483  : // 				m_btnMoveToLeftRight.FP_vSetImage( pIL_W20H20, 60, 62);
; 484  : // 			}
; 485  : // 			::EnableWindow(m_pCodeInput->GetSafeHwnd(), TRUE);
; 486  : 		}
; 487  : //@solomon	100104SM019	<--
; 488  : 	}

  001d2	8d 4d c0	 lea	 ecx, DWORD PTR _arrName$2[ebp]
  001d5	e8 00 00 00 00	 call	 ??1CStringArray@@UAE@XZ	; CStringArray::~CStringArray
  001da	8d 4d d4	 lea	 ecx, DWORD PTR _arrCode$3[ebp]
  001dd	c6 45 fc 00	 mov	 BYTE PTR __$EHRec$[ebp+8], 0
  001e1	e8 00 00 00 00	 call	 ??1CStringArray@@UAE@XZ	; CStringArray::~CStringArray
$LN6@OnBtn:

; 158  : 	return m_pSetTick[nIndex].bAllDay;

  001e6	8b 83 b0 3d 00
	00		 mov	 eax, DWORD PTR [ebx+15792]

; 489  : 
; 490  : 	BOOL bAllDay = m_SetTickBtn.GetAllDay(nIndex);
; 491  : 	m_pChartMng->SendMessage(RMSG_SETQUERYOPT, !bAllDay);

  001ec	8b 93 ac 2b 00
	00		 mov	 edx, DWORD PTR [ebx+11180]
; File C:\Program Files (x86)\Microsoft Visual Studio\2019\Community\VC\Tools\MSVC\14.29.30133\atlmfc\include\afxwin2.inl

; 32   : 	{ ASSERT(::IsWindow(m_hWnd)); return ::SendMessage(m_hWnd, message, wParam, lParam); }

  001f2	8b 35 00 00 00
	00		 mov	 esi, DWORD PTR __imp__SendMessageA@16
  001f8	6a 00		 push	 0
; File D:\git\src\IBK\IBK_DRFN\ProjSrc\SrcDrfn\Chart\MULTICHART\MiniTickBarDlg.cpp

; 158  : 	return m_pSetTick[nIndex].bAllDay;

  001fa	8b 4c b8 10	 mov	 ecx, DWORD PTR [eax+edi*4+16]

; 489  : 
; 490  : 	BOOL bAllDay = m_SetTickBtn.GetAllDay(nIndex);
; 491  : 	m_pChartMng->SendMessage(RMSG_SETQUERYOPT, !bAllDay);

  001fe	33 c0		 xor	 eax, eax
  00200	85 c9		 test	 ecx, ecx
  00202	0f 94 c0	 sete	 al
; File C:\Program Files (x86)\Microsoft Visual Studio\2019\Community\VC\Tools\MSVC\14.29.30133\atlmfc\include\afxwin2.inl

; 32   : 	{ ASSERT(::IsWindow(m_hWnd)); return ::SendMessage(m_hWnd, message, wParam, lParam); }

  00205	50		 push	 eax
  00206	ff 35 00 00 00
	00		 push	 DWORD PTR ?RMSG_SETQUERYOPT@@3IB
  0020c	ff 72 20	 push	 DWORD PTR [edx+32]
  0020f	ff d6		 call	 esi
; File D:\git\src\IBK\IBK_DRFN\ProjSrc\SrcDrfn\Chart\MULTICHART\MiniTickBarDlg.cpp

; 493  : 	CCodeDataFromInputBar CodeData;

  00211	8d 4d a0	 lea	 ecx, DWORD PTR _CodeData$[ebp]
  00214	e8 00 00 00 00	 call	 ??0CCodeDataFromInputBar@@QAE@XZ ; CCodeDataFromInputBar::CCodeDataFromInputBar

; 494  : 	CodeData.m_strCode = strCode;

  00219	8d 45 08	 lea	 eax, DWORD PTR _strCode$[ebp]
  0021c	c6 45 fc 04	 mov	 BYTE PTR __$EHRec$[ebp+8], 4
  00220	50		 push	 eax
  00221	8d 4d a4	 lea	 ecx, DWORD PTR _CodeData$[ebp+4]
  00224	ff 15 00 00 00
	00		 call	 DWORD PTR __imp_??4?$CStringT@DV?$StrTraitMFC_DLL@DV?$ChTraitsCRT@D@ATL@@@@@ATL@@QAEAAV01@ABV01@@Z

; 495  : 	CodeData.m_lEndTime = GetEndDate();

  0022a	8b cb		 mov	 ecx, ebx
  0022c	e8 00 00 00 00	 call	 ?GetEndDate@CInputBarDlg@@QAEHXZ ; CInputBarDlg::GetEndDate
  00231	89 45 a8	 mov	 DWORD PTR _CodeData$[ebp+8], eax

; 496  : 	CodeData.m_chType = GetType();

  00234	8a 83 b0 2b 00
	00		 mov	 al, BYTE PTR [ebx+11184]
  0023a	88 45 ac	 mov	 BYTE PTR _CodeData$[ebp+12], al

; 497  : 	CodeData.m_lTypeNum = nTick;

  0023d	8b 45 ec	 mov	 eax, DWORD PTR _nTick$1$[ebp]
  00240	89 45 b0	 mov	 DWORD PTR _CodeData$[ebp+16], eax
; File C:\Program Files (x86)\Microsoft Visual Studio\2019\Community\VC\Tools\MSVC\14.29.30133\atlmfc\include\afxwin2.inl

; 32   : 	{ ASSERT(::IsWindow(m_hWnd)); return ::SendMessage(m_hWnd, message, wParam, lParam); }

  00243	8d 45 a0	 lea	 eax, DWORD PTR _CodeData$[ebp]
  00246	6a 01		 push	 1
  00248	50		 push	 eax
  00249	8b 83 ac 2b 00
	00		 mov	 eax, DWORD PTR [ebx+11180]
  0024f	68 19 04 00 00	 push	 1049			; 00000419H
  00254	ff 70 20	 push	 DWORD PTR [eax+32]
  00257	ff d6		 call	 esi
; File D:\git\src\IBK\IBK_DRFN\ProjSrc\SrcDrfn\Chart\MULTICHART\MiniTickBarDlg.cpp

; 503  : }

  00259	8d 4d a0	 lea	 ecx, DWORD PTR _CodeData$[ebp]
  0025c	e8 00 00 00 00	 call	 ??1CCodeDataFromInputBar@@UAE@XZ ; CCodeDataFromInputBar::~CCodeDataFromInputBar
  00261	8d 4d 08	 lea	 ecx, DWORD PTR _strCode$[ebp]
  00264	ff 15 00 00 00
	00		 call	 DWORD PTR __imp_??1?$CStringT@DV?$StrTraitMFC_DLL@DV?$ChTraitsCRT@D@ATL@@@@@ATL@@QAE@XZ
  0026a	8b 4d f4	 mov	 ecx, DWORD PTR __$EHRec$[ebp]
  0026d	64 89 0d 00 00
	00 00		 mov	 DWORD PTR fs:0, ecx
  00274	59		 pop	 ecx
  00275	5f		 pop	 edi
  00276	5e		 pop	 esi
  00277	5b		 pop	 ebx
  00278	8b e5		 mov	 esp, ebp
  0027a	5d		 pop	 ebp
  0027b	c2 04 00	 ret	 4
  0027e	66 90		 npad	 2
$LN62@OnBtn:
  00280	00 00 00 00	 DD	 $LN21@OnBtn
  00284	00 00 00 00	 DD	 $LN24@OnBtn
  00288	00 00 00 00	 DD	 $LN25@OnBtn
  0028c	00 00 00 00	 DD	 $LN26@OnBtn
  00290	00 00 00 00	 DD	 $LN27@OnBtn
  00294	00 00 00 00	 DD	 $LN28@OnBtn
_TEXT	ENDS
;	COMDAT text$x
text$x	SEGMENT
__unwindfunclet$?OnBtn@CMiniTickBarDlg@@IAEXI@Z$0:
  00000	8d 4d 08	 lea	 ecx, DWORD PTR _strCode$[ebp]
  00003	ff 25 00 00 00
	00		 jmp	 DWORD PTR __imp_??1?$CStringT@DV?$StrTraitMFC_DLL@DV?$ChTraitsCRT@D@ATL@@@@@ATL@@QAE@XZ
__unwindfunclet$?OnBtn@CMiniTickBarDlg@@IAEXI@Z$1:
  00009	8d 4d d4	 lea	 ecx, DWORD PTR _arrCode$3[ebp]
  0000c	e9 00 00 00 00	 jmp	 ??1CStringArray@@UAE@XZ	; CStringArray::~CStringArray
__unwindfunclet$?OnBtn@CMiniTickBarDlg@@IAEXI@Z$2:
  00011	8d 4d c0	 lea	 ecx, DWORD PTR _arrName$2[ebp]
  00014	e9 00 00 00 00	 jmp	 ??1CStringArray@@UAE@XZ	; CStringArray::~CStringArray
__unwindfunclet$?OnBtn@CMiniTickBarDlg@@IAEXI@Z$3:
  00019	8d 4d f0	 lea	 ecx, DWORD PTR _strFOCode$4[ebp]
  0001c	ff 25 00 00 00
	00		 jmp	 DWORD PTR __imp_??1?$CStringT@DV?$StrTraitMFC_DLL@DV?$ChTraitsCRT@D@ATL@@@@@ATL@@QAE@XZ
__unwindfunclet$?OnBtn@CMiniTickBarDlg@@IAEXI@Z$5:
  00022	8d 4d a0	 lea	 ecx, DWORD PTR _CodeData$[ebp]
  00025	e9 00 00 00 00	 jmp	 ??1CCodeDataFromInputBar@@UAE@XZ ; CCodeDataFromInputBar::~CCodeDataFromInputBar
  0002a	cc		 int	 3
  0002b	cc		 int	 3
  0002c	cc		 int	 3
  0002d	cc		 int	 3
  0002e	cc		 int	 3
__ehhandler$?OnBtn@CMiniTickBarDlg@@IAEXI@Z:
  0002f	90		 npad	 1
  00030	90		 npad	 1
  00031	8b 54 24 08	 mov	 edx, DWORD PTR [esp+8]
  00035	8d 42 0c	 lea	 eax, DWORD PTR [edx+12]
  00038	8b 4a 9c	 mov	 ecx, DWORD PTR [edx-100]
  0003b	33 c8		 xor	 ecx, eax
  0003d	e8 00 00 00 00	 call	 @__security_check_cookie@4
  00042	b8 00 00 00 00	 mov	 eax, OFFSET __ehfuncinfo$?OnBtn@CMiniTickBarDlg@@IAEXI@Z
  00047	e9 00 00 00 00	 jmp	 ___CxxFrameHandler3
text$x	ENDS
?OnBtn@CMiniTickBarDlg@@IAEXI@Z ENDP			; CMiniTickBarDlg::OnBtn
; Function compile flags: /Ogtp
; File D:\git\src\IBK\IBK_DRFN\ProjSrc\SrcDrfn\Chart\MULTICHART\MiniTickBarDlg.cpp
; File C:\Program Files (x86)\Microsoft Visual Studio\2019\Community\VC\Tools\MSVC\14.29.30133\atlmfc\include\afxwin2.inl
; File D:\git\src\IBK\IBK_DRFN\ProjSrc\SrcDrfn\Chart\MULTICHART\MiniTickBarDlg.cpp
;	COMDAT ?OnBtinitial@CMiniTickBarDlg@@IAEXXZ
_TEXT	SEGMENT
_strMessage$ = -16					; size = 4
__$EHRec$ = -12						; size = 12
?OnBtinitial@CMiniTickBarDlg@@IAEXXZ PROC		; CMiniTickBarDlg::OnBtinitial, COMDAT
; _this$ = ecx

; 797  : {

  00000	55		 push	 ebp
  00001	8b ec		 mov	 ebp, esp
  00003	6a ff		 push	 -1
  00005	68 00 00 00 00	 push	 __ehhandler$?OnBtinitial@CMiniTickBarDlg@@IAEXXZ
  0000a	64 a1 00 00 00
	00		 mov	 eax, DWORD PTR fs:0
  00010	50		 push	 eax
  00011	51		 push	 ecx
  00012	56		 push	 esi
  00013	a1 00 00 00 00	 mov	 eax, DWORD PTR ___security_cookie
  00018	33 c5		 xor	 eax, ebp
  0001a	50		 push	 eax
  0001b	8d 45 f4	 lea	 eax, DWORD PTR __$EHRec$[ebp]
  0001e	64 a3 00 00 00
	00		 mov	 DWORD PTR fs:0, eax
  00024	8b f1		 mov	 esi, ecx

; 798  : 	CString strMessage = "    .  ?";

  00026	68 00 00 00 00	 push	 OFFSET ??_C@_0DF@DEHCJOBF@?$MA?$PM?C?$LM?5?B?w?F?$KO?$MA?G?5?H?$KP?$LA?f?$MA?L?5?C?J?$LB?b?H?$KN?5?$LF?K?$LE?O?$LE@
  0002b	8d 4d f0	 lea	 ecx, DWORD PTR _strMessage$[ebp]
  0002e	ff 15 00 00 00
	00		 call	 DWORD PTR __imp_??0?$CStringT@DV?$StrTraitMFC_DLL@DV?$ChTraitsCRT@D@ATL@@@@@ATL@@QAE@PBD@Z

; 799  : 	if(MessageBox(strMessage, " ", MB_OKCANCEL | MB_ICONQUESTION) == IDOK)

  00034	6a 21		 push	 33			; 00000021H
  00036	68 00 00 00 00	 push	 OFFSET ??_C@_09LOKPIFAI@?B?w?F?$KO?5?$LM?$LD?A?$KE@
  0003b	ff 75 f0	 push	 DWORD PTR _strMessage$[ebp]
  0003e	8b ce		 mov	 ecx, esi
  00040	c7 45 fc 00 00
	00 00		 mov	 DWORD PTR __$EHRec$[ebp+8], 0
  00047	e8 00 00 00 00	 call	 ?MessageBoxA@CWnd@@QAEHPBD0I@Z ; CWnd::MessageBoxA
  0004c	83 f8 01	 cmp	 eax, 1
  0004f	75 47		 jne	 SHORT $LN2@OnBtinitia

; 800  : 	{
; 801  : 		if(GetMoveDirection() != 1)

  00051	39 86 28 2d 00
	00		 cmp	 DWORD PTR [esi+11560], eax
  00057	74 0e		 je	 SHORT $LN3@OnBtinitia

; 802  : 		{
; 803  : 			SetMoveDirection(1);
; 804  : 
; 805  : 			// MoveToLeft
; 806  : 			MoveToLeftRight(GetMoveDirection());

  00059	50		 push	 eax
  0005a	8b ce		 mov	 ecx, esi
  0005c	89 86 28 2d 00
	00		 mov	 DWORD PTR [esi+11560], eax
  00062	e8 00 00 00 00	 call	 ?MoveToLeftRight@CMiniTickBarDlg@@QAEXI@Z ; CMiniTickBarDlg::MoveToLeftRight
$LN3@OnBtinitia:

; 807  : 		}
; 808  : 
; 809  : 		m_SetTickBtn.Init();

  00067	8d 8e b0 3d 00
	00		 lea	 ecx, DWORD PTR [esi+15792]
  0006d	e8 00 00 00 00	 call	 ?Init@CSetTickButton@@QAEXXZ ; CSetTickButton::Init

; 810  : 		m_btn[6].SetCheck(TRUE);

  00072	6a 01		 push	 1
  00074	8d 8e 90 39 00
	00		 lea	 ecx, DWORD PTR [esi+14736]
  0007a	e8 00 00 00 00	 call	 ?SetCheck@CILButton@@QAEXH@Z ; CILButton::SetCheck

; 811  : 		OnBtn(IDC_BTN_07);

  0007f	68 fc 18 00 00	 push	 6396			; 000018fcH
  00084	8b ce		 mov	 ecx, esi
  00086	e8 00 00 00 00	 call	 ?OnBtn@CMiniTickBarDlg@@IAEXI@Z ; CMiniTickBarDlg::OnBtn
; File C:\Program Files (x86)\Microsoft Visual Studio\2019\Community\VC\Tools\MSVC\14.29.30133\atlmfc\include\afxwin2.inl

; 114  : 	{ ASSERT(::IsWindow(m_hWnd)); ::InvalidateRect(m_hWnd, NULL, bErase); }

  0008b	6a 01		 push	 1
  0008d	6a 00		 push	 0
  0008f	ff 76 20	 push	 DWORD PTR [esi+32]
  00092	ff 15 00 00 00
	00		 call	 DWORD PTR __imp__InvalidateRect@12
$LN2@OnBtinitia:
; File D:\git\src\IBK\IBK_DRFN\ProjSrc\SrcDrfn\Chart\MULTICHART\MiniTickBarDlg.cpp

; 829  : }

  00098	8d 4d f0	 lea	 ecx, DWORD PTR _strMessage$[ebp]
  0009b	ff 15 00 00 00
	00		 call	 DWORD PTR __imp_??1?$CStringT@DV?$StrTraitMFC_DLL@DV?$ChTraitsCRT@D@ATL@@@@@ATL@@QAE@XZ
  000a1	8b 4d f4	 mov	 ecx, DWORD PTR __$EHRec$[ebp]
  000a4	64 89 0d 00 00
	00 00		 mov	 DWORD PTR fs:0, ecx
  000ab	59		 pop	 ecx
  000ac	5e		 pop	 esi
  000ad	8b e5		 mov	 esp, ebp
  000af	5d		 pop	 ebp
  000b0	c3		 ret	 0
_TEXT	ENDS
;	COMDAT text$x
text$x	SEGMENT
__unwindfunclet$?OnBtinitial@CMiniTickBarDlg@@IAEXXZ$0:
  00000	8d 4d f0	 lea	 ecx, DWORD PTR _strMessage$[ebp]
  00003	ff 25 00 00 00
	00		 jmp	 DWORD PTR __imp_??1?$CStringT@DV?$StrTraitMFC_DLL@DV?$ChTraitsCRT@D@ATL@@@@@ATL@@QAE@XZ
  00009	cc		 int	 3
  0000a	cc		 int	 3
  0000b	cc		 int	 3
  0000c	cc		 int	 3
  0000d	cc		 int	 3
__ehhandler$?OnBtinitial@CMiniTickBarDlg@@IAEXXZ:
  0000e	90		 npad	 1
  0000f	90		 npad	 1
  00010	8b 54 24 08	 mov	 edx, DWORD PTR [esp+8]
  00014	8d 42 0c	 lea	 eax, DWORD PTR [edx+12]
  00017	8b 4a f4	 mov	 ecx, DWORD PTR [edx-12]
  0001a	33 c8		 xor	 ecx, eax
  0001c	e8 00 00 00 00	 call	 @__security_check_cookie@4
  00021	b8 00 00 00 00	 mov	 eax, OFFSET __ehfuncinfo$?OnBtinitial@CMiniTickBarDlg@@IAEXXZ
  00026	e9 00 00 00 00	 jmp	 ___CxxFrameHandler3
text$x	ENDS
?OnBtinitial@CMiniTickBarDlg@@IAEXXZ ENDP		; CMiniTickBarDlg::OnBtinitial
; Function compile flags: /Ogtp
; File D:\git\src\IBK\IBK_DRFN\ProjSrc\SrcDrfn\Chart\MULTICHART\MiniTickBarDlg.cpp
;	COMDAT ?OnSize@CMiniTickBarDlg@@IAEXIHH@Z
_TEXT	SEGMENT
_nType$ = 8						; size = 4
_cx$ = 12						; size = 4
_cy$ = 16						; size = 4
?OnSize@CMiniTickBarDlg@@IAEXIHH@Z PROC			; CMiniTickBarDlg::OnSize, COMDAT
; _this$ = ecx

; 754  : //	CInputBarDlg::OnSize(nType, cx, cy);
; 755  : 	
; 756  : /*
; 757  : 	if(m_hKSJongName)
; 758  : 	{
; 759  : 		CRect rcItemName;
; 760  : 		::GetWindowRect(m_hKSJongName, &rcItemName);
; 761  : 		ScreenToClient(rcItemName);
; 762  : 
; 763  : 		::SetParent(m_hKSJongName, m_hWnd);
; 764  : 
; 765  : 		::ShowWindow(m_hKSJongName, SW_SHOW);
; 766  : 	}
; 767  : */
; 768  : }

  00000	c2 0c 00	 ret	 12			; 0000000cH
?OnSize@CMiniTickBarDlg@@IAEXIHH@Z ENDP			; CMiniTickBarDlg::OnSize
_TEXT	ENDS
; Function compile flags: /Ogtp
; File D:\git\src\IBK\IBK_DRFN\ProjSrc\SrcDrfn\Chart\MULTICHART\MiniTickBarDlg.cpp
;	COMDAT ?OnBtnMovetoleftright@CMiniTickBarDlg@@IAEXXZ
_TEXT	SEGMENT
?OnBtnMovetoleftright@CMiniTickBarDlg@@IAEXXZ PROC	; CMiniTickBarDlg::OnBtnMovetoleftright, COMDAT
; _this$ = ecx

; 732  : {

  00000	56		 push	 esi
  00001	8b f1		 mov	 esi, ecx

; 733  : 	UINT nMoveDirection = GetMoveDirection();

  00003	8b 86 28 2d 00
	00		 mov	 eax, DWORD PTR [esi+11560]

; 734  : 	if(nMoveDirection == 0 || nMoveDirection == 2)

  00009	85 c0		 test	 eax, eax
  0000b	74 2a		 je	 SHORT $LN4@OnBtnMovet
  0000d	83 f8 02	 cmp	 eax, 2
  00010	74 25		 je	 SHORT $LN4@OnBtnMovet

; 741  : 	}
; 742  : 	else if(nMoveDirection == 1)

  00012	83 f8 01	 cmp	 eax, 1
  00015	75 3e		 jne	 SHORT $LN5@OnBtnMovet

; 743  : 	{
; 744  : 		SetMoveDirection(0);
; 745  : 
; 746  : 		// MoveToRight
; 747  : 		MoveToLeftRight(GetMoveDirection());

  00017	6a 00		 push	 0
  00019	c7 86 28 2d 00
	00 00 00 00 00	 mov	 DWORD PTR [esi+11560], 0
  00023	e8 00 00 00 00	 call	 ?MoveToLeftRight@CMiniTickBarDlg@@QAEXI@Z ; CMiniTickBarDlg::MoveToLeftRight

; 748  : 			m_stJongName.ShowWindow(SW_HIDE);

  00028	6a 00		 push	 0

; 749  : 	}
; 750  : }

  0002a	8d 8e c8 14 00
	00		 lea	 ecx, DWORD PTR [esi+5320]
  00030	e8 00 00 00 00	 call	 ?ShowWindow@CWnd@@QAEHH@Z ; CWnd::ShowWindow
  00035	5e		 pop	 esi
  00036	c3		 ret	 0
$LN4@OnBtnMovet:

; 735  : 	{
; 736  : 		SetMoveDirection(1);
; 737  : 
; 738  : 		// MoveToLeft
; 739  : 		MoveToLeftRight(GetMoveDirection());

  00037	6a 01		 push	 1
  00039	c7 86 28 2d 00
	00 01 00 00 00	 mov	 DWORD PTR [esi+11560], 1
  00043	e8 00 00 00 00	 call	 ?MoveToLeftRight@CMiniTickBarDlg@@QAEXI@Z ; CMiniTickBarDlg::MoveToLeftRight

; 740  : 			m_stJongName.ShowWindow(SW_SHOW);

  00048	6a 05		 push	 5

; 749  : 	}
; 750  : }

  0004a	8d 8e c8 14 00
	00		 lea	 ecx, DWORD PTR [esi+5320]
  00050	e8 00 00 00 00	 call	 ?ShowWindow@CWnd@@QAEHH@Z ; CWnd::ShowWindow
$LN5@OnBtnMovet:
  00055	5e		 pop	 esi
  00056	c3		 ret	 0
?OnBtnMovetoleftright@CMiniTickBarDlg@@IAEXXZ ENDP	; CMiniTickBarDlg::OnBtnMovetoleftright
_TEXT	ENDS
; Function compile flags: /Ogtp
; File D:\git\src\IBK\IBK_DRFN\ProjSrc\SrcDrfn\Chart\MULTICHART\MiniTickBarDlg.cpp
; File C:\Program Files (x86)\Microsoft Visual Studio\2019\Community\VC\Tools\MSVC\14.29.30133\atlmfc\include\afxwin2.inl
; File D:\git\src\IBK\IBK_DRFN\ProjSrc\SrcDrfn\Chart\MULTICHART\MiniTickBarDlg.cpp
; File C:\Program Files (x86)\Microsoft Visual Studio\2019\Community\VC\Tools\MSVC\14.29.30133\atlmfc\include\afxwin2.inl
; File D:\git\src\IBK\IBK_DRFN\ProjSrc\SrcDrfn\Chart\MULTICHART\MiniTickBarDlg.cpp
;	COMDAT ?OnBtnConfig@CMiniTickBarDlg@@IAEXXZ
_TEXT	SEGMENT
__ctlState$ = -380					; size = 8
_setTickBtn$ = -372					; size = 4
_dlg$ = -368						; size = 352
__$ArrayPad$ = -16					; size = 4
__$EHRec$ = -12						; size = 12
?OnBtnConfig@CMiniTickBarDlg@@IAEXXZ PROC		; CMiniTickBarDlg::OnBtnConfig, COMDAT
; _this$ = ecx

; 506  : {

  00000	55		 push	 ebp
  00001	8b ec		 mov	 ebp, esp
  00003	6a ff		 push	 -1
  00005	68 00 00 00 00	 push	 __ehhandler$?OnBtnConfig@CMiniTickBarDlg@@IAEXXZ
  0000a	64 a1 00 00 00
	00		 mov	 eax, DWORD PTR fs:0
  00010	50		 push	 eax
  00011	81 ec 70 01 00
	00		 sub	 esp, 368		; 00000170H
  00017	a1 00 00 00 00	 mov	 eax, DWORD PTR ___security_cookie
  0001c	33 c5		 xor	 eax, ebp
  0001e	89 45 f0	 mov	 DWORD PTR __$ArrayPad$[ebp], eax
  00021	53		 push	 ebx
  00022	56		 push	 esi
  00023	57		 push	 edi
  00024	50		 push	 eax
  00025	8d 45 f4	 lea	 eax, DWORD PTR __$EHRec$[ebp]
  00028	64 a3 00 00 00
	00		 mov	 DWORD PTR fs:0, eax
  0002e	8b d9		 mov	 ebx, ecx

; 507  : 	AFX_MANAGE_STATE(AfxGetStaticModuleState());

  00030	e8 00 00 00 00	 call	 ?AfxGetStaticModuleState@@YGPAVAFX_MODULE_STATE@@XZ ; AfxGetStaticModuleState
  00035	50		 push	 eax
  00036	8d 8d 84 fe ff
	ff		 lea	 ecx, DWORD PTR __ctlState$[ebp]
  0003c	e8 00 00 00 00	 call	 ??0AFX_MAINTAIN_STATE2@@QAE@PAVAFX_MODULE_STATE@@@Z ; AFX_MAINTAIN_STATE2::AFX_MAINTAIN_STATE2

; 23   : 	m_pSetTick = new ST_SETTICK[DEF_SIZE];

  00041	68 b8 00 00 00	 push	 184			; 000000b8H

; 507  : 	AFX_MANAGE_STATE(AfxGetStaticModuleState());

  00046	c7 45 fc 00 00
	00 00		 mov	 DWORD PTR __$EHRec$[ebp+8], 0

; 23   : 	m_pSetTick = new ST_SETTICK[DEF_SIZE];

  0004d	e8 00 00 00 00	 call	 ??_U@YAPAXI@Z		; operator new[]
  00052	83 c4 04	 add	 esp, 4
  00055	85 c0		 test	 eax, eax
  00057	74 25		 je	 SHORT $LN15@OnBtnConfi
  00059	68 00 00 00 00	 push	 OFFSET ??1_ST_SETTICK@@QAE@XZ
  0005e	68 00 00 00 00	 push	 OFFSET ??0_ST_SETTICK@@QAE@XZ
  00063	6a 09		 push	 9
  00065	8d 70 04	 lea	 esi, DWORD PTR [eax+4]
  00068	c7 00 09 00 00
	00		 mov	 DWORD PTR [eax], 9
  0006e	6a 14		 push	 20			; 00000014H
  00070	56		 push	 esi
  00071	e8 00 00 00 00	 call	 ??_L@YGXPAXIIP6EX0@Z1@Z
  00076	89 b5 8c fe ff
	ff		 mov	 DWORD PTR _setTickBtn$[ebp], esi
  0007c	eb 0a		 jmp	 SHORT $LN16@OnBtnConfi
$LN15@OnBtnConfi:
  0007e	c7 85 8c fe ff
	ff 00 00 00 00	 mov	 DWORD PTR _setTickBtn$[ebp], 0
$LN16@OnBtnConfi:

; 508  : 	//HINSTANCE hInstance = AfxGetResourceHandle();
; 509  : 	//AfxSetResourceHandle(g_hInstance);
; 510  : 
; 511  : 	CSetTickButton setTickBtn;
; 512  : 	setTickBtn = m_SetTickBtn;

  00088	8d b3 b0 3d 00
	00		 lea	 esi, DWORD PTR [ebx+15792]
  0008e	c6 45 fc 01	 mov	 BYTE PTR __$EHRec$[ebp+8], 1
  00092	56		 push	 esi
  00093	8d 8d 8c fe ff
	ff		 lea	 ecx, DWORD PTR _setTickBtn$[ebp]
  00099	e8 00 00 00 00	 call	 ??4CSetTickButton@@QAEAAV0@AAV0@@Z ; CSetTickButton::operator=

; 513  : 	
; 514  : 	CMiniTickBarCFG	dlg(&setTickBtn, this);

  0009e	53		 push	 ebx
  0009f	8d 85 8c fe ff
	ff		 lea	 eax, DWORD PTR _setTickBtn$[ebp]
  000a5	50		 push	 eax
  000a6	8d 8d 90 fe ff
	ff		 lea	 ecx, DWORD PTR _dlg$[ebp]
  000ac	e8 00 00 00 00	 call	 ??0CMiniTickBarCFG@@QAE@PAVCSetTickButton@@PAVCWnd@@@Z ; CMiniTickBarCFG::CMiniTickBarCFG

; 515  : 	if(dlg.DoModal() == IDOK)

  000b1	8d 8d 90 fe ff
	ff		 lea	 ecx, DWORD PTR _dlg$[ebp]
  000b7	c6 45 fc 02	 mov	 BYTE PTR __$EHRec$[ebp+8], 2
  000bb	e8 00 00 00 00	 call	 ?DoModal@CDialog@@UAEHXZ ; CDialog::DoModal
  000c0	83 f8 01	 cmp	 eax, 1
  000c3	75 66		 jne	 SHORT $LN3@OnBtnConfi

; 516  : 	{
; 517  : 		m_SetTickBtn = setTickBtn;

  000c5	8d 85 8c fe ff
	ff		 lea	 eax, DWORD PTR _setTickBtn$[ebp]
  000cb	8b ce		 mov	 ecx, esi
  000cd	50		 push	 eax
  000ce	e8 00 00 00 00	 call	 ??4CSetTickButton@@QAEAAV0@AAV0@@Z ; CSetTickButton::operator=
; File C:\Program Files (x86)\Microsoft Visual Studio\2019\Community\VC\Tools\MSVC\14.29.30133\atlmfc\include\afxwin2.inl

; 213  : 	{ ASSERT(::IsWindow(m_hWnd)); return CWnd::FromHandle(::GetParent(m_hWnd)); }

  000d3	ff 73 20	 push	 DWORD PTR [ebx+32]
  000d6	ff 15 00 00 00
	00		 call	 DWORD PTR __imp__GetParent@4
  000dc	50		 push	 eax
  000dd	e8 00 00 00 00	 call	 ?FromHandle@CWnd@@SGPAV1@PAUHWND__@@@Z ; CWnd::FromHandle
; File D:\git\src\IBK\IBK_DRFN\ProjSrc\SrcDrfn\Chart\MULTICHART\MiniTickBarDlg.cpp

; 522  : 		m_SetTickBtn.SetButton(*&m_btn, pIL_W20H20);

  000e2	68 00 00 00 00	 push	 OFFSET ?m_ImgList_W20H20@CStdDialog@@2VCImageList@@A ; CStdDialog::m_ImgList_W20H20
  000e7	8d bb 50 31 00
	00		 lea	 edi, DWORD PTR [ebx+12624]
  000ed	8b ce		 mov	 ecx, esi
  000ef	57		 push	 edi
  000f0	e8 00 00 00 00	 call	 ?SetButton@CSetTickButton@@QAEXPAVCILButton@@PAVCImageList@@@Z ; CSetTickButton::SetButton
; File C:\Program Files (x86)\Microsoft Visual Studio\2019\Community\VC\Tools\MSVC\14.29.30133\atlmfc\include\afxwin2.inl

; 114  : 	{ ASSERT(::IsWindow(m_hWnd)); ::InvalidateRect(m_hWnd, NULL, bErase); }

  000f5	6a 01		 push	 1
  000f7	6a 00		 push	 0
  000f9	ff 73 20	 push	 DWORD PTR [ebx+32]
  000fc	ff 15 00 00 00
	00		 call	 DWORD PTR __imp__InvalidateRect@12
; File D:\git\src\IBK\IBK_DRFN\ProjSrc\SrcDrfn\Chart\MULTICHART\MiniTickBarDlg.cpp

; 526  : 		for(int i = 0; i < DEF_SIZE; i++)

  00102	33 f6		 xor	 esi, esi
$LL4@OnBtnConfi:

; 527  : 		{
; 528  : 			if(m_btn[i].GetCheck())

  00104	8b cf		 mov	 ecx, edi
  00106	e8 00 00 00 00	 call	 ?GetCheck@CILButton@@QAEHXZ ; CILButton::GetCheck
  0010b	85 c0		 test	 eax, eax
  0010d	75 0e		 jne	 SHORT $LN39@OnBtnConfi

; 526  : 		for(int i = 0; i < DEF_SIZE; i++)

  0010f	46		 inc	 esi
  00110	81 c7 60 01 00
	00		 add	 edi, 352		; 00000160H
  00116	83 fe 09	 cmp	 esi, 9
  00119	7c e9		 jl	 SHORT $LL4@OnBtnConfi

; 527  : 		{
; 528  : 			if(m_btn[i].GetCheck())

  0011b	eb 0e		 jmp	 SHORT $LN3@OnBtnConfi
$LN39@OnBtnConfi:

; 529  : 			{
; 530  : 				OnBtn(IDC_BTN_01 + i);

  0011d	8d 86 f6 18 00
	00		 lea	 eax, DWORD PTR [esi+6390]
  00123	8b cb		 mov	 ecx, ebx
  00125	50		 push	 eax
  00126	e8 00 00 00 00	 call	 ?OnBtn@CMiniTickBarDlg@@IAEXI@Z ; CMiniTickBarDlg::OnBtn
$LN3@OnBtnConfi:
  0012b	ff 35 00 00 00
	00		 push	 DWORD PTR __imp_??1?$CStringT@DV?$StrTraitMFC_DLL@DV?$ChTraitsCRT@D@ATL@@@@@ATL@@QAE@XZ
  00131	8d 85 38 ff ff
	ff		 lea	 eax, DWORD PTR _dlg$[ebp+168]
  00137	c6 45 fc 03	 mov	 BYTE PTR __$EHRec$[ebp+8], 3
  0013b	6a 09		 push	 9
  0013d	6a 04		 push	 4
  0013f	50		 push	 eax
  00140	e8 00 00 00 00	 call	 ??_M@YGXPAXIIP6EX0@Z@Z
  00145	8d 8d 90 fe ff
	ff		 lea	 ecx, DWORD PTR _dlg$[ebp]
  0014b	e8 00 00 00 00	 call	 ??1CDialog@@UAE@XZ	; CDialog::~CDialog

; 28   : 	if(m_pSetTick)

  00150	8b 85 8c fe ff
	ff		 mov	 eax, DWORD PTR _setTickBtn$[ebp]

; 531  : 				break;
; 532  : 			}
; 533  : 		}
; 534  : 	}
; 535  : 
; 536  : 	//AfxSetResourceHandle(hInstance);
; 537  : }

  00156	c6 45 fc 00	 mov	 BYTE PTR __$EHRec$[ebp+8], 0

; 28   : 	if(m_pSetTick)

  0015a	85 c0		 test	 eax, eax
  0015c	74 2d		 je	 SHORT $LN32@OnBtnConfi
  0015e	68 00 00 00 00	 push	 OFFSET ??1_ST_SETTICK@@QAE@XZ
  00163	ff 70 fc	 push	 DWORD PTR [eax-4]
  00166	8d 70 fc	 lea	 esi, DWORD PTR [eax-4]
  00169	c6 45 fc 04	 mov	 BYTE PTR __$EHRec$[ebp+8], 4
  0016d	6a 14		 push	 20			; 00000014H
  0016f	50		 push	 eax
  00170	e8 00 00 00 00	 call	 ??_M@YGXPAXIIP6EX0@Z@Z
  00175	8b 06		 mov	 eax, DWORD PTR [esi]
  00177	8d 04 80	 lea	 eax, DWORD PTR [eax+eax*4]
  0017a	8d 04 85 04 00
	00 00		 lea	 eax, DWORD PTR [eax*4+4]
  00181	50		 push	 eax
  00182	56		 push	 esi
  00183	e8 00 00 00 00	 call	 ??_V@YAXPAXI@Z		; operator delete[]
  00188	83 c4 08	 add	 esp, 8
$LN32@OnBtnConfi:

; 531  : 				break;
; 532  : 			}
; 533  : 		}
; 534  : 	}
; 535  : 
; 536  : 	//AfxSetResourceHandle(hInstance);
; 537  : }

  0018b	8d 8d 84 fe ff
	ff		 lea	 ecx, DWORD PTR __ctlState$[ebp]
  00191	e8 00 00 00 00	 call	 ??1AFX_MAINTAIN_STATE2@@QAE@XZ ; AFX_MAINTAIN_STATE2::~AFX_MAINTAIN_STATE2
  00196	8b 4d f4	 mov	 ecx, DWORD PTR __$EHRec$[ebp]
  00199	64 89 0d 00 00
	00 00		 mov	 DWORD PTR fs:0, ecx
  001a0	59		 pop	 ecx
  001a1	5f		 pop	 edi
  001a2	5e		 pop	 esi
  001a3	5b		 pop	 ebx
  001a4	8b 4d f0	 mov	 ecx, DWORD PTR __$ArrayPad$[ebp]
  001a7	33 cd		 xor	 ecx, ebp
  001a9	e8 00 00 00 00	 call	 @__security_check_cookie@4
  001ae	8b e5		 mov	 esp, ebp
  001b0	5d		 pop	 ebp
  001b1	c3		 ret	 0
_TEXT	ENDS
;	COMDAT text$x
text$x	SEGMENT
__unwindfunclet$?OnBtnConfig@CMiniTickBarDlg@@IAEXXZ$0:
  00000	8d 8d 84 fe ff
	ff		 lea	 ecx, DWORD PTR __ctlState$[ebp]
  00006	e9 00 00 00 00	 jmp	 ??1AFX_MAINTAIN_STATE2@@QAE@XZ ; AFX_MAINTAIN_STATE2::~AFX_MAINTAIN_STATE2
__unwindfunclet$?OnBtnConfig@CMiniTickBarDlg@@IAEXXZ$1:
  0000b	8d 8d 8c fe ff
	ff		 lea	 ecx, DWORD PTR _setTickBtn$[ebp]
  00011	e9 00 00 00 00	 jmp	 ??1CSetTickButton@@QAE@XZ ; CSetTickButton::~CSetTickButton
__unwindfunclet$?OnBtnConfig@CMiniTickBarDlg@@IAEXXZ$2:
  00016	8d 8d 90 fe ff
	ff		 lea	 ecx, DWORD PTR _dlg$[ebp]
  0001c	e9 00 00 00 00	 jmp	 ??1CMiniTickBarCFG@@UAE@XZ
  00021	cc		 int	 3
  00022	cc		 int	 3
  00023	cc		 int	 3
  00024	cc		 int	 3
  00025	cc		 int	 3
__ehhandler$?OnBtnConfig@CMiniTickBarDlg@@IAEXXZ:
  00026	90		 npad	 1
  00027	90		 npad	 1
  00028	8b 54 24 08	 mov	 edx, DWORD PTR [esp+8]
  0002c	8d 42 0c	 lea	 eax, DWORD PTR [edx+12]
  0002f	8b 8a 80 fe ff
	ff		 mov	 ecx, DWORD PTR [edx-384]
  00035	33 c8		 xor	 ecx, eax
  00037	e8 00 00 00 00	 call	 @__security_check_cookie@4
  0003c	8b 4a fc	 mov	 ecx, DWORD PTR [edx-4]
  0003f	33 c8		 xor	 ecx, eax
  00041	e8 00 00 00 00	 call	 @__security_check_cookie@4
  00046	b8 00 00 00 00	 mov	 eax, OFFSET __ehfuncinfo$?OnBtnConfig@CMiniTickBarDlg@@IAEXXZ
  0004b	e9 00 00 00 00	 jmp	 ___CxxFrameHandler3
text$x	ENDS
?OnBtnConfig@CMiniTickBarDlg@@IAEXXZ ENDP		; CMiniTickBarDlg::OnBtnConfig
; Function compile flags: /Ogtp
; File D:\git\src\IBK\IBK_DRFN\ProjSrc\SrcDrfn\Chart\MULTICHART\MiniTickBarDlg.cpp
;	COMDAT ?DoDataExchange@CMiniTickBarDlg@@MAEXPAVCDataExchange@@@Z
_TEXT	SEGMENT
_pDX$ = 8						; size = 4
?DoDataExchange@CMiniTickBarDlg@@MAEXPAVCDataExchange@@@Z PROC ; CMiniTickBarDlg::DoDataExchange, COMDAT
; _this$ = ecx

; 246  : {

  00000	55		 push	 ebp
  00001	8b ec		 mov	 ebp, esp
  00003	56		 push	 esi
  00004	57		 push	 edi

; 247  : 	CRscDlg::DoDataExchange(pDX); // No CInputBarDlg!!

  00005	8b 7d 08	 mov	 edi, DWORD PTR _pDX$[ebp]
  00008	8b f1		 mov	 esi, ecx
  0000a	57		 push	 edi
  0000b	e8 00 00 00 00	 call	 ?DoDataExchange@CRscDlg@@MAEXPAVCDataExchange@@@Z ; CRscDlg::DoDataExchange

; 248  : 	//{{AFX_DATA_MAP(CMiniTickBarDlg)
; 249  : 	DDX_Control(pDX, IDC_BTINITIAL, m_btnInitail);

  00010	8d 86 30 2d 00
	00		 lea	 eax, DWORD PTR [esi+11568]
  00016	50		 push	 eax
  00017	68 0b 18 00 00	 push	 6155			; 0000180bH
  0001c	57		 push	 edi
  0001d	e8 00 00 00 00	 call	 ?DDX_Control@@YGXPAVCDataExchange@@HAAVCWnd@@@Z ; DDX_Control

; 250  : 	DDX_Control(pDX, IDC_BTN_MOVETOLEFTRIGHT, m_btnMoveToLeftRight);

  00022	8d 86 90 2e 00
	00		 lea	 eax, DWORD PTR [esi+11920]
  00028	50		 push	 eax
  00029	68 91 18 00 00	 push	 6289			; 00001891H
  0002e	57		 push	 edi
  0002f	e8 00 00 00 00	 call	 ?DDX_Control@@YGXPAVCDataExchange@@HAAVCWnd@@@Z ; DDX_Control

; 251  : 	DDX_Control(pDX, IDC_BTN_CONFIG, m_btnConfig);

  00034	8d 86 f0 2f 00
	00		 lea	 eax, DWORD PTR [esi+12272]
  0003a	50		 push	 eax
  0003b	68 99 18 00 00	 push	 6297			; 00001899H
  00040	57		 push	 edi
  00041	e8 00 00 00 00	 call	 ?DDX_Control@@YGXPAVCDataExchange@@HAAVCWnd@@@Z ; DDX_Control

; 252  : 	DDX_Control(pDX, IDC_EDITCNTOFDATALL, m_editCntOfDatAll);

  00046	8d 86 78 1f 00
	00		 lea	 eax, DWORD PTR [esi+8056]
  0004c	50		 push	 eax
  0004d	68 fe 17 00 00	 push	 6142			; 000017feH
  00052	57		 push	 edi
  00053	e8 00 00 00 00	 call	 ?DDX_Control@@YGXPAVCDataExchange@@HAAVCWnd@@@Z ; DDX_Control

; 253  : 	DDX_Control(pDX, IDC_CBMARKET, m_cbMarket);

  00058	8d 86 98 05 00
	00		 lea	 eax, DWORD PTR [esi+1432]
  0005e	50		 push	 eax
  0005f	68 92 17 00 00	 push	 6034			; 00001792H
  00064	57		 push	 edi
  00065	e8 00 00 00 00	 call	 ?DDX_Control@@YGXPAVCDataExchange@@HAAVCWnd@@@Z ; DDX_Control

; 254  : 	DDX_Control(pDX, IDC_STJONGNAME, m_stJongName);

  0006a	8d 86 c8 14 00
	00		 lea	 eax, DWORD PTR [esi+5320]
  00070	50		 push	 eax
  00071	68 27 18 00 00	 push	 6183			; 00001827H
  00076	57		 push	 edi
  00077	e8 00 00 00 00	 call	 ?DDX_Control@@YGXPAVCDataExchange@@HAAVCWnd@@@Z ; DDX_Control

; 255  : 	//}}AFX_DATA_MAP
; 256  : 	DDX_Control(pDX, IDC_BTN_01, m_btn[IDC_BTN_01 - IDC_BTN_01]);

  0007c	8d 86 50 31 00
	00		 lea	 eax, DWORD PTR [esi+12624]
  00082	50		 push	 eax
  00083	68 f6 18 00 00	 push	 6390			; 000018f6H
  00088	57		 push	 edi
  00089	e8 00 00 00 00	 call	 ?DDX_Control@@YGXPAVCDataExchange@@HAAVCWnd@@@Z ; DDX_Control

; 257  : 	DDX_Control(pDX, IDC_BTN_02, m_btn[IDC_BTN_02 - IDC_BTN_01]);

  0008e	8d 86 b0 32 00
	00		 lea	 eax, DWORD PTR [esi+12976]
  00094	50		 push	 eax
  00095	68 f7 18 00 00	 push	 6391			; 000018f7H
  0009a	57		 push	 edi
  0009b	e8 00 00 00 00	 call	 ?DDX_Control@@YGXPAVCDataExchange@@HAAVCWnd@@@Z ; DDX_Control

; 258  : 	DDX_Control(pDX, IDC_BTN_03, m_btn[IDC_BTN_03 - IDC_BTN_01]);

  000a0	8d 86 10 34 00
	00		 lea	 eax, DWORD PTR [esi+13328]
  000a6	50		 push	 eax
  000a7	68 f8 18 00 00	 push	 6392			; 000018f8H
  000ac	57		 push	 edi
  000ad	e8 00 00 00 00	 call	 ?DDX_Control@@YGXPAVCDataExchange@@HAAVCWnd@@@Z ; DDX_Control

; 259  : 	DDX_Control(pDX, IDC_BTN_04, m_btn[IDC_BTN_04 - IDC_BTN_01]);

  000b2	8d 86 70 35 00
	00		 lea	 eax, DWORD PTR [esi+13680]
  000b8	50		 push	 eax
  000b9	68 f9 18 00 00	 push	 6393			; 000018f9H
  000be	57		 push	 edi
  000bf	e8 00 00 00 00	 call	 ?DDX_Control@@YGXPAVCDataExchange@@HAAVCWnd@@@Z ; DDX_Control

; 260  : 	DDX_Control(pDX, IDC_BTN_05, m_btn[IDC_BTN_05 - IDC_BTN_01]);

  000c4	8d 86 d0 36 00
	00		 lea	 eax, DWORD PTR [esi+14032]
  000ca	50		 push	 eax
  000cb	68 fa 18 00 00	 push	 6394			; 000018faH
  000d0	57		 push	 edi
  000d1	e8 00 00 00 00	 call	 ?DDX_Control@@YGXPAVCDataExchange@@HAAVCWnd@@@Z ; DDX_Control

; 261  : 	DDX_Control(pDX, IDC_BTN_06, m_btn[IDC_BTN_06 - IDC_BTN_01]);

  000d6	8d 86 30 38 00
	00		 lea	 eax, DWORD PTR [esi+14384]
  000dc	50		 push	 eax
  000dd	68 fb 18 00 00	 push	 6395			; 000018fbH
  000e2	57		 push	 edi
  000e3	e8 00 00 00 00	 call	 ?DDX_Control@@YGXPAVCDataExchange@@HAAVCWnd@@@Z ; DDX_Control

; 262  : 	DDX_Control(pDX, IDC_BTN_07, m_btn[IDC_BTN_07 - IDC_BTN_01]);

  000e8	8d 86 90 39 00
	00		 lea	 eax, DWORD PTR [esi+14736]
  000ee	50		 push	 eax
  000ef	68 fc 18 00 00	 push	 6396			; 000018fcH
  000f4	57		 push	 edi
  000f5	e8 00 00 00 00	 call	 ?DDX_Control@@YGXPAVCDataExchange@@HAAVCWnd@@@Z ; DDX_Control

; 263  : 	DDX_Control(pDX, IDC_BTN_08, m_btn[IDC_BTN_08 - IDC_BTN_01]);

  000fa	8d 86 f0 3a 00
	00		 lea	 eax, DWORD PTR [esi+15088]
  00100	50		 push	 eax
  00101	68 fd 18 00 00	 push	 6397			; 000018fdH
  00106	57		 push	 edi
  00107	e8 00 00 00 00	 call	 ?DDX_Control@@YGXPAVCDataExchange@@HAAVCWnd@@@Z ; DDX_Control

; 264  : 	DDX_Control(pDX, IDC_BTN_09, m_btn[IDC_BTN_09 - IDC_BTN_01]);

  0010c	8d 86 50 3c 00
	00		 lea	 eax, DWORD PTR [esi+15440]
  00112	50		 push	 eax
  00113	68 fe 18 00 00	 push	 6398			; 000018feH
  00118	57		 push	 edi
  00119	e8 00 00 00 00	 call	 ?DDX_Control@@YGXPAVCDataExchange@@HAAVCWnd@@@Z ; DDX_Control
  0011e	5f		 pop	 edi
  0011f	5e		 pop	 esi

; 265  : }

  00120	5d		 pop	 ebp
  00121	c2 04 00	 ret	 4
?DoDataExchange@CMiniTickBarDlg@@MAEXPAVCDataExchange@@@Z ENDP ; CMiniTickBarDlg::DoDataExchange
_TEXT	ENDS
; Function compile flags: /Ogtp
; File D:\git\src\IBK\IBK_DRFN\ProjSrc\SrcDrfn\Chart\MULTICHART\MiniTickBarDlg.cpp
; File C:\Program Files (x86)\Microsoft Visual Studio\2019\Community\VC\Tools\MSVC\14.29.30133\atlmfc\include\afxwin2.inl
; File D:\git\src\IBK\IBK_DRFN\ProjSrc\SrcDrfn\Chart\MULTICHART\MiniTickBarDlg.cpp
; File C:\Program Files (x86)\Microsoft Visual Studio\2019\Community\VC\Tools\MSVC\14.29.30133\atlmfc\include\afxwin2.inl
; File D:\git\src\IBK\IBK_DRFN\ProjSrc\SrcDrfn\Chart\MULTICHART\MiniTickBarDlg.cpp
; File C:\Program Files (x86)\Microsoft Visual Studio\2019\Community\VC\Tools\MSVC\14.29.30133\atlmfc\include\afxwin2.inl
; File D:\git\src\IBK\IBK_DRFN\ProjSrc\SrcDrfn\Chart\MULTICHART\MiniTickBarDlg.cpp
; File C:\Program Files (x86)\Microsoft Visual Studio\2019\Community\VC\Tools\MSVC\14.29.30133\atlmfc\include\afxwin2.inl
; File C:\Program Files (x86)\Microsoft Visual Studio\2019\Community\VC\Tools\MSVC\14.29.30133\atlmfc\include\atltypes.h
; File C:\Program Files (x86)\Microsoft Visual Studio\2019\Community\VC\Tools\MSVC\14.29.30133\atlmfc\include\afxwin2.inl
; File C:\Program Files (x86)\Microsoft Visual Studio\2019\Community\VC\Tools\MSVC\14.29.30133\atlmfc\include\atltypes.h
; File C:\Program Files (x86)\Microsoft Visual Studio\2019\Community\VC\Tools\MSVC\14.29.30133\atlmfc\include\afxwin2.inl
; File D:\git\src\IBK\IBK_DRFN\ProjSrc\SrcDrfn\Chart\MULTICHART\MiniTickBarDlg.cpp
; File C:\Program Files (x86)\Microsoft Visual Studio\2019\Community\VC\Tools\MSVC\14.29.30133\atlmfc\include\afxwin2.inl
; File D:\git\src\IBK\IBK_DRFN\ProjSrc\SrcDrfn\Chart\MULTICHART\MiniTickBarDlg.cpp
; File C:\Program Files (x86)\Microsoft Visual Studio\2019\Community\VC\Tools\MSVC\14.29.30133\atlmfc\include\atltypes.h
; File C:\Program Files (x86)\Microsoft Visual Studio\2019\Community\VC\Tools\MSVC\14.29.30133\atlmfc\include\afxwin2.inl
; File D:\git\src\IBK\IBK_DRFN\ProjSrc\SrcDrfn\Chart\MULTICHART\MiniTickBarDlg.cpp
; File C:\Program Files (x86)\Microsoft Visual Studio\2019\Community\VC\Tools\MSVC\14.29.30133\atlmfc\include\afxwin2.inl
; File D:\git\src\IBK\IBK_DRFN\ProjSrc\SrcDrfn\Chart\MULTICHART\MiniTickBarDlg.cpp
; File C:\Program Files (x86)\Microsoft Visual Studio\2019\Community\VC\Tools\MSVC\14.29.30133\atlmfc\include\atltypes.h
; File D:\git\src\IBK\IBK_DRFN\ProjSrc\SrcDrfn\Chart\MULTICHART\MiniTickBarDlg.cpp
; File C:\Program Files (x86)\Microsoft Visual Studio\2019\Community\VC\Tools\MSVC\14.29.30133\atlmfc\include\afxwin2.inl
; File D:\git\src\IBK\IBK_DRFN\ProjSrc\SrcDrfn\Chart\MULTICHART\MiniTickBarDlg.cpp
; File C:\Program Files (x86)\Microsoft Visual Studio\2019\Community\VC\Tools\MSVC\14.29.30133\atlmfc\include\afxwin2.inl
; File D:\git\src\IBK\IBK_DRFN\ProjSrc\SrcDrfn\Chart\MULTICHART\MiniTickBarDlg.cpp
; File C:\Program Files (x86)\Microsoft Visual Studio\2019\Community\VC\Tools\MSVC\14.29.30133\atlmfc\include\afxwin2.inl
; File D:\git\src\IBK\IBK_DRFN\ProjSrc\SrcDrfn\Chart\MULTICHART\MiniTickBarDlg.cpp
; File C:\Program Files (x86)\Microsoft Visual Studio\2019\Community\VC\Tools\MSVC\14.29.30133\atlmfc\include\afxwin2.inl
; File D:\git\src\IBK\IBK_DRFN\ProjSrc\SrcDrfn\Chart\MULTICHART\MiniTickBarDlg.cpp
; File C:\Program Files (x86)\Microsoft Visual Studio\2019\Community\VC\Tools\MSVC\14.29.30133\atlmfc\include\afxwin2.inl
; File C:\Program Files (x86)\Microsoft Visual Studio\2019\Community\VC\Tools\MSVC\14.29.30133\atlmfc\include\atltypes.h
; File C:\Program Files (x86)\Microsoft Visual Studio\2019\Community\VC\Tools\MSVC\14.29.30133\atlmfc\include\afxwin2.inl
; File C:\Program Files (x86)\Microsoft Visual Studio\2019\Community\VC\Tools\MSVC\14.29.30133\atlmfc\include\atltypes.h
; File C:\Program Files (x86)\Microsoft Visual Studio\2019\Community\VC\Tools\MSVC\14.29.30133\atlmfc\include\afxwin2.inl
; File D:\git\src\IBK\IBK_DRFN\ProjSrc\SrcDrfn\Chart\MULTICHART\MiniTickBarDlg.cpp
; File C:\Program Files (x86)\Microsoft Visual Studio\2019\Community\VC\Tools\MSVC\14.29.30133\atlmfc\include\afxwin2.inl
; File D:\git\src\IBK\IBK_DRFN\ProjSrc\SrcDrfn\Chart\MULTICHART\MiniTickBarDlg.cpp
; File C:\Program Files (x86)\Microsoft Visual Studio\2019\Community\VC\Tools\MSVC\14.29.30133\atlmfc\include\atltypes.h
; File C:\Program Files (x86)\Microsoft Visual Studio\2019\Community\VC\Tools\MSVC\14.29.30133\atlmfc\include\afxwin2.inl
; File D:\git\src\IBK\IBK_DRFN\ProjSrc\SrcDrfn\Chart\MULTICHART\MiniTickBarDlg.cpp
; File C:\Program Files (x86)\Microsoft Visual Studio\2019\Community\VC\Tools\MSVC\14.29.30133\atlmfc\include\afxwin2.inl
; File D:\git\src\IBK\IBK_DRFN\ProjSrc\SrcDrfn\Chart\MULTICHART\MiniTickBarDlg.cpp
; File C:\Program Files (x86)\Microsoft Visual Studio\2019\Community\VC\Tools\MSVC\14.29.30133\atlmfc\include\atltypes.h
; File D:\git\src\IBK\IBK_DRFN\ProjSrc\SrcDrfn\Chart\MULTICHART\MiniTickBarDlg.cpp
; File C:\Program Files (x86)\Microsoft Visual Studio\2019\Community\VC\Tools\MSVC\14.29.30133\atlmfc\include\afxwin2.inl
; File D:\git\src\IBK\IBK_DRFN\ProjSrc\SrcDrfn\Chart\MULTICHART\MiniTickBarDlg.cpp
;	COMDAT ?MoveToLeftRight@CMiniTickBarDlg@@QAEXI@Z
_TEXT	SEGMENT
tv1054 = -128						; size = 4
_i$1$ = -124						; size = 4
_i$1$ = -124						; size = 4
_rcItemName$1 = -120					; size = 16
_rcItemName$2 = -120					; size = 16
_rcCodeInput$3 = -104					; size = 16
_rcMarketCombo$4 = -104					; size = 16
_rcMarketCombo$5 = -88					; size = 16
_rcCodeInput$6 = -88					; size = 16
_rcCtrl$7 = -72						; size = 16
_rcCtrl$8 = -72						; size = 16
_nCtrlId$9 = -56					; size = 52
_nCtrlId$10 = -56					; size = 52
__$ArrayPad$ = -4					; size = 4
_nMoveDirection$ = 8					; size = 4
?MoveToLeftRight@CMiniTickBarDlg@@QAEXI@Z PROC		; CMiniTickBarDlg::MoveToLeftRight, COMDAT
; _this$ = ecx

; 585  : {

  00000	55		 push	 ebp
  00001	8b ec		 mov	 ebp, esp
  00003	81 ec 80 00 00
	00		 sub	 esp, 128		; 00000080H
  00009	a1 00 00 00 00	 mov	 eax, DWORD PTR ___security_cookie
  0000e	33 c5		 xor	 eax, ebp
  00010	89 45 fc	 mov	 DWORD PTR __$ArrayPad$[ebp], eax
  00013	53		 push	 ebx
  00014	56		 push	 esi
  00015	8b d9		 mov	 ebx, ecx
  00017	57		 push	 edi
; File C:\Program Files (x86)\Microsoft Visual Studio\2019\Community\VC\Tools\MSVC\14.29.30133\atlmfc\include\afxwin2.inl

; 213  : 	{ ASSERT(::IsWindow(m_hWnd)); return CWnd::FromHandle(::GetParent(m_hWnd)); }

  00018	ff 73 20	 push	 DWORD PTR [ebx+32]
  0001b	ff 15 00 00 00
	00		 call	 DWORD PTR __imp__GetParent@4
  00021	50		 push	 eax
  00022	e8 00 00 00 00	 call	 ?FromHandle@CWnd@@SGPAV1@PAUHWND__@@@Z ; CWnd::FromHandle
; File D:\git\src\IBK\IBK_DRFN\ProjSrc\SrcDrfn\Chart\MULTICHART\MiniTickBarDlg.cpp

; 588  : 	switch(nMoveDirection)

  00027	8b 45 08	 mov	 eax, DWORD PTR _nMoveDirection$[ebp]
  0002a	83 e8 00	 sub	 eax, 0
  0002d	74 12		 je	 SHORT $LN10@MoveToLeft
  0002f	83 e8 01	 sub	 eax, 1
  00032	0f 84 1e 02 00
	00		 je	 $LN13@MoveToLeft
  00038	83 e8 01	 sub	 eax, 1
  0003b	0f 85 f5 01 00
	00		 jne	 $LN5@MoveToLeft
$LN10@MoveToLeft:

; 589  : 	{
; 590  : 	case 0:
; 591  : 	case 2:
; 592  : 		m_btnMoveToLeftRight.FP_vSetToolTipText("");

  00041	51		 push	 ecx
  00042	8b cc		 mov	 ecx, esp
  00044	68 00 00 00 00	 push	 OFFSET ??_C@_04LMJPFDLG@?$LP?$KN?$LB?b@
  00049	ff 15 00 00 00
	00		 call	 DWORD PTR __imp_??0?$CStringT@DV?$StrTraitMFC_DLL@DV?$ChTraitsCRT@D@ATL@@@@@ATL@@QAE@PBD@Z
  0004f	8d 8b 90 2e 00
	00		 lea	 ecx, DWORD PTR [ebx+11920]
  00055	e8 00 00 00 00	 call	 ?FP_vSetToolTipText@CILButton@@QAEXV?$CStringT@DV?$StrTraitMFC_DLL@DV?$ChTraitsCRT@D@ATL@@@@@ATL@@@Z ; CILButton::FP_vSetToolTipText

; 593  : 		m_btnMoveToLeftRight.SetCheck(1);

  0005a	6a 01		 push	 1
  0005c	8d 8b 90 2e 00
	00		 lea	 ecx, DWORD PTR [ebx+11920]
  00062	e8 00 00 00 00	 call	 ?SetCheck@CILButton@@QAEXH@Z ; CILButton::SetCheck

; 594  : 		m_btnMoveToLeftRight.FP_vSetImage( pIL_W20H20, 56, 58);

  00067	6a ff		 push	 -1
  00069	6a ff		 push	 -1
  0006b	6a 00		 push	 0
  0006d	51		 push	 ecx
  0006e	8b cc		 mov	 ecx, esp
  00070	68 00 00 00 00	 push	 OFFSET ??_C@_00CNPNBAHC@@
  00075	ff 15 00 00 00
	00		 call	 DWORD PTR __imp_??0?$CStringT@DV?$StrTraitMFC_DLL@DV?$ChTraitsCRT@D@ATL@@@@@ATL@@QAE@PBD@Z
  0007b	6a 00		 push	 0
  0007d	6a 3a		 push	 58			; 0000003aH
  0007f	6a 38		 push	 56			; 00000038H
  00081	68 00 00 00 00	 push	 OFFSET ?m_ImgList_W20H20@CStdDialog@@2VCImageList@@A ; CStdDialog::m_ImgList_W20H20
  00086	8d 8b 90 2e 00
	00		 lea	 ecx, DWORD PTR [ebx+11920]
  0008c	e8 00 00 00 00	 call	 ?FP_vSetImage@CILButton@@QAEXPAVCImageList@@HHHV?$CStringT@DV?$StrTraitMFC_DLL@DV?$ChTraitsCRT@D@ATL@@@@@ATL@@HHH@Z ; CILButton::FP_vSetImage

; 596  : 		if(m_cbMarket.GetSafeHwnd() && m_pCodeInput->GetSafeHwnd())

  00091	8d b3 98 05 00
	00		 lea	 esi, DWORD PTR [ebx+1432]
; File C:\Program Files (x86)\Microsoft Visual Studio\2019\Community\VC\Tools\MSVC\14.29.30133\atlmfc\include\afxwin2.inl

; 25   : 	{ return this == NULL ? NULL : m_hWnd; }

  00097	85 f6		 test	 esi, esi
  00099	0f 84 97 01 00
	00		 je	 $LN5@MoveToLeft
; File D:\git\src\IBK\IBK_DRFN\ProjSrc\SrcDrfn\Chart\MULTICHART\MiniTickBarDlg.cpp

; 596  : 		if(m_cbMarket.GetSafeHwnd() && m_pCodeInput->GetSafeHwnd())

  0009f	83 7e 20 00	 cmp	 DWORD PTR [esi+32], 0
  000a3	0f 84 8d 01 00
	00		 je	 $LN5@MoveToLeft
  000a9	8b 83 c8 23 00
	00		 mov	 eax, DWORD PTR [ebx+9160]
; File C:\Program Files (x86)\Microsoft Visual Studio\2019\Community\VC\Tools\MSVC\14.29.30133\atlmfc\include\afxwin2.inl

; 25   : 	{ return this == NULL ? NULL : m_hWnd; }

  000af	85 c0		 test	 eax, eax
  000b1	0f 84 7f 01 00
	00		 je	 $LN5@MoveToLeft
; File D:\git\src\IBK\IBK_DRFN\ProjSrc\SrcDrfn\Chart\MULTICHART\MiniTickBarDlg.cpp

; 596  : 		if(m_cbMarket.GetSafeHwnd() && m_pCodeInput->GetSafeHwnd())

  000b7	83 78 20 00	 cmp	 DWORD PTR [eax+32], 0
  000bb	0f 84 75 01 00
	00		 je	 $LN5@MoveToLeft
; File C:\Program Files (x86)\Microsoft Visual Studio\2019\Community\VC\Tools\MSVC\14.29.30133\atlmfc\include\afxwin2.inl

; 84   : 	{ ASSERT(::IsWindow(m_hWnd)); ::GetWindowRect(m_hWnd, lpRect); }

  000c1	8b 3d 00 00 00
	00		 mov	 edi, DWORD PTR __imp__GetWindowRect@8
  000c7	8d 45 98	 lea	 eax, DWORD PTR _rcMarketCombo$4[ebp]
  000ca	50		 push	 eax
  000cb	ff b3 b8 05 00
	00		 push	 DWORD PTR [ebx+1464]
; File C:\Program Files (x86)\Microsoft Visual Studio\2019\Community\VC\Tools\MSVC\14.29.30133\atlmfc\include\atltypes.h

; 528  : 	left = 0;

  000d1	c7 45 98 00 00
	00 00		 mov	 DWORD PTR _rcMarketCombo$4[ebp], 0
  000d8	c7 45 a8 00 00
	00 00		 mov	 DWORD PTR _rcCodeInput$6[ebp], 0
  000df	c7 45 9c 00 00
	00 00		 mov	 DWORD PTR _rcMarketCombo$4[ebp+4], 0
  000e6	c7 45 ac 00 00
	00 00		 mov	 DWORD PTR _rcCodeInput$6[ebp+4], 0
  000ed	c7 45 a0 00 00
	00 00		 mov	 DWORD PTR _rcMarketCombo$4[ebp+8], 0
  000f4	c7 45 b0 00 00
	00 00		 mov	 DWORD PTR _rcCodeInput$6[ebp+8], 0
  000fb	c7 45 a4 00 00
	00 00		 mov	 DWORD PTR _rcMarketCombo$4[ebp+12], 0
  00102	c7 45 b4 00 00
	00 00		 mov	 DWORD PTR _rcCodeInput$6[ebp+12], 0
; File C:\Program Files (x86)\Microsoft Visual Studio\2019\Community\VC\Tools\MSVC\14.29.30133\atlmfc\include\afxwin2.inl

; 84   : 	{ ASSERT(::IsWindow(m_hWnd)); ::GetWindowRect(m_hWnd, lpRect); }

  00109	ff d7		 call	 edi
  0010b	8d 45 a8	 lea	 eax, DWORD PTR _rcCodeInput$6[ebp]
  0010e	50		 push	 eax
  0010f	8b 83 c8 23 00
	00		 mov	 eax, DWORD PTR [ebx+9160]
  00115	ff 70 20	 push	 DWORD PTR [eax+32]
  00118	ff d7		 call	 edi
  0011a	8d 45 88	 lea	 eax, DWORD PTR _rcItemName$2[ebp]
  0011d	0f 57 c0	 xorps	 xmm0, xmm0
  00120	50		 push	 eax
  00121	ff b3 e8 14 00
	00		 push	 DWORD PTR [ebx+5352]
; File C:\Program Files (x86)\Microsoft Visual Studio\2019\Community\VC\Tools\MSVC\14.29.30133\atlmfc\include\atltypes.h

; 528  : 	left = 0;

  00127	0f 11 45 88	 movups	 XMMWORD PTR _rcItemName$2[ebp], xmm0
; File C:\Program Files (x86)\Microsoft Visual Studio\2019\Community\VC\Tools\MSVC\14.29.30133\atlmfc\include\afxwin2.inl

; 84   : 	{ ASSERT(::IsWindow(m_hWnd)); ::GetWindowRect(m_hWnd, lpRect); }

  0012b	ff d7		 call	 edi
; File D:\git\src\IBK\IBK_DRFN\ProjSrc\SrcDrfn\Chart\MULTICHART\MiniTickBarDlg.cpp

; 612  : 				ScreenToClient(rcItemName);

  0012d	8d 45 88	 lea	 eax, DWORD PTR _rcItemName$2[ebp]
  00130	8b cb		 mov	 ecx, ebx
  00132	50		 push	 eax
  00133	e8 00 00 00 00	 call	 ?ScreenToClient@CWnd@@QBEXPAUtagRECT@@@Z ; CWnd::ScreenToClient

; 613  : 				nItemNameWidth = rcItemName.right;
; 614  : 			}
; 615  : 			int cx = nItemNameWidth;
; 616  : 			//if(((CStdDialog*)GetParent())->m_nChartType==MINI_SINGLE2_CHART)
; 617  : 			//	cx = rcCodeInput.Width() + nItemNameWidth;
; 618  : 			//else
; 619  : 			//	cx = rcMarketCombo.Width() + rcCodeInput.Width() + nItemNameWidth;
; 620  : 
; 621  : 			m_cbMarket.ShowWindow(SW_HIDE);

  00138	6a 00		 push	 0
  0013a	8b ce		 mov	 ecx, esi
  0013c	e8 00 00 00 00	 call	 ?ShowWindow@CWnd@@QAEHH@Z ; CWnd::ShowWindow

; 622  : 			m_pCodeInput->ShowWindow(SW_HIDE);

  00141	8b 8b c8 23 00
	00		 mov	 ecx, DWORD PTR [ebx+9160]
  00147	6a 00		 push	 0
  00149	e8 00 00 00 00	 call	 ?ShowWindow@CWnd@@QAEHH@Z ; CWnd::ShowWindow
  0014e	8b 75 90	 mov	 esi, DWORD PTR _rcItemName$2[ebp+8]
; File C:\Program Files (x86)\Microsoft Visual Studio\2019\Community\VC\Tools\MSVC\14.29.30133\atlmfc\include\afxwin2.inl

; 84   : 	{ ASSERT(::IsWindow(m_hWnd)); ::GetWindowRect(m_hWnd, lpRect); }

  00151	33 c0		 xor	 eax, eax
  00153	0f 57 c0	 xorps	 xmm0, xmm0
; File D:\git\src\IBK\IBK_DRFN\ProjSrc\SrcDrfn\Chart\MULTICHART\MiniTickBarDlg.cpp

; 627  : 				IDC_BTN_MOVETOLEFTRIGHT,   

  00156	c7 45 c8 91 18
	00 00		 mov	 DWORD PTR _nCtrlId$10[ebp], 6289 ; 00001891H
  0015d	f7 de		 neg	 esi

; 628  : 				IDC_BTN_01,    

  0015f	c7 45 cc f6 18
	00 00		 mov	 DWORD PTR _nCtrlId$10[ebp+4], 6390 ; 000018f6H

; 629  : 				IDC_BTN_02, 

  00166	c7 45 d0 f7 18
	00 00		 mov	 DWORD PTR _nCtrlId$10[ebp+8], 6391 ; 000018f7H

; 630  : 				IDC_BTN_03,

  0016d	c7 45 d4 f8 18
	00 00		 mov	 DWORD PTR _nCtrlId$10[ebp+12], 6392 ; 000018f8H

; 631  : 				IDC_BTN_04,

  00174	c7 45 d8 f9 18
	00 00		 mov	 DWORD PTR _nCtrlId$10[ebp+16], 6393 ; 000018f9H

; 632  : 				IDC_BTN_05,

  0017b	c7 45 dc fa 18
	00 00		 mov	 DWORD PTR _nCtrlId$10[ebp+20], 6394 ; 000018faH

; 633  : 				IDC_BTN_06,

  00182	c7 45 e0 fb 18
	00 00		 mov	 DWORD PTR _nCtrlId$10[ebp+24], 6395 ; 000018fbH

; 634  : 				IDC_BTN_07,

  00189	c7 45 e4 fc 18
	00 00		 mov	 DWORD PTR _nCtrlId$10[ebp+28], 6396 ; 000018fcH

; 635  : 				IDC_BTN_08,

  00190	c7 45 e8 fd 18
	00 00		 mov	 DWORD PTR _nCtrlId$10[ebp+32], 6397 ; 000018fdH

; 636  : 				IDC_BTN_09,

  00197	c7 45 ec fe 18
	00 00		 mov	 DWORD PTR _nCtrlId$10[ebp+36], 6398 ; 000018feH

; 637  : 				IDC_BTN_CONFIG,

  0019e	c7 45 f0 99 18
	00 00		 mov	 DWORD PTR _nCtrlId$10[ebp+40], 6297 ; 00001899H

; 638  : 				IDC_EDITCNTOFDATALL,

  001a5	c7 45 f4 fe 17
	00 00		 mov	 DWORD PTR _nCtrlId$10[ebp+44], 6142 ; 000017feH

; 639  : 				IDC_BTINITIAL

  001ac	c7 45 f8 0b 18
	00 00		 mov	 DWORD PTR _nCtrlId$10[ebp+48], 6155 ; 0000180bH
; File C:\Program Files (x86)\Microsoft Visual Studio\2019\Community\VC\Tools\MSVC\14.29.30133\atlmfc\include\atltypes.h

; 528  : 	left = 0;

  001b3	0f 11 45 b8	 movups	 XMMWORD PTR _rcCtrl$8[ebp], xmm0
; File C:\Program Files (x86)\Microsoft Visual Studio\2019\Community\VC\Tools\MSVC\14.29.30133\atlmfc\include\afxwin2.inl

; 84   : 	{ ASSERT(::IsWindow(m_hWnd)); ::GetWindowRect(m_hWnd, lpRect); }

  001b7	89 45 84	 mov	 DWORD PTR _i$1$[ebp], eax
  001ba	89 75 80	 mov	 DWORD PTR tv1054[ebp], esi
  001bd	0f 1f 00	 npad	 3
$LL6@MoveToLeft:
; File D:\git\src\IBK\IBK_DRFN\ProjSrc\SrcDrfn\Chart\MULTICHART\MiniTickBarDlg.cpp

; 646  : 				GetDlgItem(nCtrlId[i])->GetWindowRect(rcCtrl);

  001c0	8b 7c 85 c8	 mov	 edi, DWORD PTR _nCtrlId$10[ebp+eax*4]
  001c4	8b cb		 mov	 ecx, ebx
  001c6	57		 push	 edi
  001c7	e8 00 00 00 00	 call	 ?GetDlgItem@CWnd@@QBEPAV1@H@Z ; CWnd::GetDlgItem
; File C:\Program Files (x86)\Microsoft Visual Studio\2019\Community\VC\Tools\MSVC\14.29.30133\atlmfc\include\afxwin2.inl

; 84   : 	{ ASSERT(::IsWindow(m_hWnd)); ::GetWindowRect(m_hWnd, lpRect); }

  001cc	8d 4d b8	 lea	 ecx, DWORD PTR _rcCtrl$8[ebp]
  001cf	51		 push	 ecx
  001d0	ff 70 20	 push	 DWORD PTR [eax+32]
  001d3	ff 15 00 00 00
	00		 call	 DWORD PTR __imp__GetWindowRect@8
; File D:\git\src\IBK\IBK_DRFN\ProjSrc\SrcDrfn\Chart\MULTICHART\MiniTickBarDlg.cpp

; 647  : 				ScreenToClient(rcCtrl);

  001d9	8d 45 b8	 lea	 eax, DWORD PTR _rcCtrl$8[ebp]
  001dc	8b cb		 mov	 ecx, ebx
  001de	50		 push	 eax
  001df	e8 00 00 00 00	 call	 ?ScreenToClient@CWnd@@QBEXPAUtagRECT@@@Z ; CWnd::ScreenToClient
; File C:\Program Files (x86)\Microsoft Visual Studio\2019\Community\VC\Tools\MSVC\14.29.30133\atlmfc\include\atltypes.h

; 710  : 	::OffsetRect(this, x, y);

  001e4	6a 00		 push	 0
  001e6	56		 push	 esi
  001e7	8d 45 b8	 lea	 eax, DWORD PTR _rcCtrl$8[ebp]
  001ea	50		 push	 eax
  001eb	ff 15 00 00 00
	00		 call	 DWORD PTR __imp__OffsetRect@12
; File D:\git\src\IBK\IBK_DRFN\ProjSrc\SrcDrfn\Chart\MULTICHART\MiniTickBarDlg.cpp

; 652  : 				GetDlgItem(nCtrlId[i])->MoveWindow(rcCtrl);

  001f1	57		 push	 edi
  001f2	8b cb		 mov	 ecx, ebx
  001f4	e8 00 00 00 00	 call	 ?GetDlgItem@CWnd@@QBEPAV1@H@Z ; CWnd::GetDlgItem
; File C:\Program Files (x86)\Microsoft Visual Studio\2019\Community\VC\Tools\MSVC\14.29.30133\atlmfc\include\afxwin2.inl

; 73   : 	{ MoveWindow(lpRect->left, lpRect->top, lpRect->right - lpRect->left,

  001f9	8b 4d c4	 mov	 ecx, DWORD PTR _rcCtrl$8[ebp+12]
  001fc	8b 75 bc	 mov	 esi, DWORD PTR _rcCtrl$8[ebp+4]
  001ff	2b ce		 sub	 ecx, esi
  00201	8b 55 b8	 mov	 edx, DWORD PTR _rcCtrl$8[ebp]
  00204	6a 01		 push	 1
  00206	51		 push	 ecx
  00207	8b 4d c0	 mov	 ecx, DWORD PTR _rcCtrl$8[ebp+8]
  0020a	2b ca		 sub	 ecx, edx
  0020c	51		 push	 ecx
  0020d	56		 push	 esi
  0020e	52		 push	 edx
  0020f	8b c8		 mov	 ecx, eax
  00211	e8 00 00 00 00	 call	 ?MoveWindow@CWnd@@QAEXHHHHH@Z ; CWnd::MoveWindow
; File D:\git\src\IBK\IBK_DRFN\ProjSrc\SrcDrfn\Chart\MULTICHART\MiniTickBarDlg.cpp

; 653  : 				GetDlgItem(nCtrlId[i])->ShowWindow(SW_SHOW);

  00216	6a 05		 push	 5
  00218	57		 push	 edi
  00219	8b cb		 mov	 ecx, ebx
  0021b	e8 00 00 00 00	 call	 ?GetDlgItem@CWnd@@QBEPAV1@H@Z ; CWnd::GetDlgItem
  00220	8b c8		 mov	 ecx, eax
  00222	e8 00 00 00 00	 call	 ?ShowWindow@CWnd@@QAEHH@Z ; CWnd::ShowWindow
  00227	8b 45 84	 mov	 eax, DWORD PTR _i$1$[ebp]
  0022a	8b 75 80	 mov	 esi, DWORD PTR tv1054[ebp]
  0022d	40		 inc	 eax
  0022e	89 45 84	 mov	 DWORD PTR _i$1$[ebp], eax
  00231	83 f8 0d	 cmp	 eax, 13			; 0000000dH
  00234	7c 8a		 jl	 SHORT $LL6@MoveToLeft
$LN5@MoveToLeft:
; File C:\Program Files (x86)\Microsoft Visual Studio\2019\Community\VC\Tools\MSVC\14.29.30133\atlmfc\include\afxwin2.inl

; 114  : 	{ ASSERT(::IsWindow(m_hWnd)); ::InvalidateRect(m_hWnd, NULL, bErase); }

  00236	6a 01		 push	 1
  00238	6a 00		 push	 0
  0023a	ff 73 20	 push	 DWORD PTR [ebx+32]
  0023d	ff 15 00 00 00
	00		 call	 DWORD PTR __imp__InvalidateRect@12
; File D:\git\src\IBK\IBK_DRFN\ProjSrc\SrcDrfn\Chart\MULTICHART\MiniTickBarDlg.cpp

; 729  : }

  00243	8b 4d fc	 mov	 ecx, DWORD PTR __$ArrayPad$[ebp]
  00246	5f		 pop	 edi
  00247	5e		 pop	 esi
  00248	33 cd		 xor	 ecx, ebp
  0024a	5b		 pop	 ebx
  0024b	e8 00 00 00 00	 call	 @__security_check_cookie@4
  00250	8b e5		 mov	 esp, ebp
  00252	5d		 pop	 ebp
  00253	c2 04 00	 ret	 4
$LN13@MoveToLeft:

; 654  : 			}
; 655  : 		}
; 656  : 		break;
; 657  : 	case 1:
; 658  : 		m_btnMoveToLeftRight.FP_vSetToolTipText("");

  00256	51		 push	 ecx
  00257	8b cc		 mov	 ecx, esp
  00259	68 00 00 00 00	 push	 OFFSET ??_C@_04KAHAMCDL@?$LE?$NN?$LB?b@
  0025e	ff 15 00 00 00
	00		 call	 DWORD PTR __imp_??0?$CStringT@DV?$StrTraitMFC_DLL@DV?$ChTraitsCRT@D@ATL@@@@@ATL@@QAE@PBD@Z
  00264	8d 8b 90 2e 00
	00		 lea	 ecx, DWORD PTR [ebx+11920]
  0026a	e8 00 00 00 00	 call	 ?FP_vSetToolTipText@CILButton@@QAEXV?$CStringT@DV?$StrTraitMFC_DLL@DV?$ChTraitsCRT@D@ATL@@@@@ATL@@@Z ; CILButton::FP_vSetToolTipText

; 659  : 		m_btnMoveToLeftRight.SetCheck(0);

  0026f	6a 00		 push	 0
  00271	8d 8b 90 2e 00
	00		 lea	 ecx, DWORD PTR [ebx+11920]
  00277	e8 00 00 00 00	 call	 ?SetCheck@CILButton@@QAEXH@Z ; CILButton::SetCheck

; 660  : 		m_btnMoveToLeftRight.FP_vSetImage( pIL_W20H20, 60, 62);

  0027c	6a ff		 push	 -1
  0027e	6a ff		 push	 -1
  00280	6a 00		 push	 0
  00282	51		 push	 ecx
  00283	8b cc		 mov	 ecx, esp
  00285	68 00 00 00 00	 push	 OFFSET ??_C@_00CNPNBAHC@@
  0028a	ff 15 00 00 00
	00		 call	 DWORD PTR __imp_??0?$CStringT@DV?$StrTraitMFC_DLL@DV?$ChTraitsCRT@D@ATL@@@@@ATL@@QAE@PBD@Z
  00290	6a 00		 push	 0
  00292	6a 3e		 push	 62			; 0000003eH
  00294	6a 3c		 push	 60			; 0000003cH
  00296	68 00 00 00 00	 push	 OFFSET ?m_ImgList_W20H20@CStdDialog@@2VCImageList@@A ; CStdDialog::m_ImgList_W20H20
  0029b	8d 8b 90 2e 00
	00		 lea	 ecx, DWORD PTR [ebx+11920]
  002a1	e8 00 00 00 00	 call	 ?FP_vSetImage@CILButton@@QAEXPAVCImageList@@HHHV?$CStringT@DV?$StrTraitMFC_DLL@DV?$ChTraitsCRT@D@ATL@@@@@ATL@@HHH@Z ; CILButton::FP_vSetImage

; 663  : 		if(m_cbMarket.GetSafeHwnd() && m_pCodeInput->GetSafeHwnd())

  002a6	8d 83 98 05 00
	00		 lea	 eax, DWORD PTR [ebx+1432]
; File C:\Program Files (x86)\Microsoft Visual Studio\2019\Community\VC\Tools\MSVC\14.29.30133\atlmfc\include\afxwin2.inl

; 25   : 	{ return this == NULL ? NULL : m_hWnd; }

  002ac	85 c0		 test	 eax, eax
  002ae	74 86		 je	 SHORT $LN5@MoveToLeft
; File D:\git\src\IBK\IBK_DRFN\ProjSrc\SrcDrfn\Chart\MULTICHART\MiniTickBarDlg.cpp

; 663  : 		if(m_cbMarket.GetSafeHwnd() && m_pCodeInput->GetSafeHwnd())

  002b0	83 78 20 00	 cmp	 DWORD PTR [eax+32], 0
  002b4	74 80		 je	 SHORT $LN5@MoveToLeft
  002b6	8b 83 c8 23 00
	00		 mov	 eax, DWORD PTR [ebx+9160]
; File C:\Program Files (x86)\Microsoft Visual Studio\2019\Community\VC\Tools\MSVC\14.29.30133\atlmfc\include\afxwin2.inl

; 25   : 	{ return this == NULL ? NULL : m_hWnd; }

  002bc	85 c0		 test	 eax, eax
  002be	0f 84 72 ff ff
	ff		 je	 $LN5@MoveToLeft
; File D:\git\src\IBK\IBK_DRFN\ProjSrc\SrcDrfn\Chart\MULTICHART\MiniTickBarDlg.cpp

; 663  : 		if(m_cbMarket.GetSafeHwnd() && m_pCodeInput->GetSafeHwnd())

  002c4	83 78 20 00	 cmp	 DWORD PTR [eax+32], 0
  002c8	0f 84 68 ff ff
	ff		 je	 $LN5@MoveToLeft
; File C:\Program Files (x86)\Microsoft Visual Studio\2019\Community\VC\Tools\MSVC\14.29.30133\atlmfc\include\afxwin2.inl

; 84   : 	{ ASSERT(::IsWindow(m_hWnd)); ::GetWindowRect(m_hWnd, lpRect); }

  002ce	8b 35 00 00 00
	00		 mov	 esi, DWORD PTR __imp__GetWindowRect@8
  002d4	8d 45 a8	 lea	 eax, DWORD PTR _rcMarketCombo$5[ebp]
  002d7	50		 push	 eax
  002d8	ff b3 b8 05 00
	00		 push	 DWORD PTR [ebx+1464]
; File C:\Program Files (x86)\Microsoft Visual Studio\2019\Community\VC\Tools\MSVC\14.29.30133\atlmfc\include\atltypes.h

; 528  : 	left = 0;

  002de	c7 45 a8 00 00
	00 00		 mov	 DWORD PTR _rcMarketCombo$5[ebp], 0
  002e5	c7 45 98 00 00
	00 00		 mov	 DWORD PTR _rcCodeInput$3[ebp], 0
  002ec	c7 45 ac 00 00
	00 00		 mov	 DWORD PTR _rcMarketCombo$5[ebp+4], 0
  002f3	c7 45 9c 00 00
	00 00		 mov	 DWORD PTR _rcCodeInput$3[ebp+4], 0
  002fa	c7 45 b0 00 00
	00 00		 mov	 DWORD PTR _rcMarketCombo$5[ebp+8], 0
  00301	c7 45 a0 00 00
	00 00		 mov	 DWORD PTR _rcCodeInput$3[ebp+8], 0
  00308	c7 45 b4 00 00
	00 00		 mov	 DWORD PTR _rcMarketCombo$5[ebp+12], 0
  0030f	c7 45 a4 00 00
	00 00		 mov	 DWORD PTR _rcCodeInput$3[ebp+12], 0
; File C:\Program Files (x86)\Microsoft Visual Studio\2019\Community\VC\Tools\MSVC\14.29.30133\atlmfc\include\afxwin2.inl

; 84   : 	{ ASSERT(::IsWindow(m_hWnd)); ::GetWindowRect(m_hWnd, lpRect); }

  00316	ff d6		 call	 esi
  00318	8d 45 98	 lea	 eax, DWORD PTR _rcCodeInput$3[ebp]
  0031b	50		 push	 eax
  0031c	8b 83 c8 23 00
	00		 mov	 eax, DWORD PTR [ebx+9160]
  00322	ff 70 20	 push	 DWORD PTR [eax+32]
  00325	ff d6		 call	 esi
  00327	8d 45 88	 lea	 eax, DWORD PTR _rcItemName$1[ebp]
  0032a	0f 57 c0	 xorps	 xmm0, xmm0
  0032d	50		 push	 eax
  0032e	ff b3 e8 14 00
	00		 push	 DWORD PTR [ebx+5352]
; File C:\Program Files (x86)\Microsoft Visual Studio\2019\Community\VC\Tools\MSVC\14.29.30133\atlmfc\include\atltypes.h

; 528  : 	left = 0;

  00334	0f 11 45 88	 movups	 XMMWORD PTR _rcItemName$1[ebp], xmm0
; File C:\Program Files (x86)\Microsoft Visual Studio\2019\Community\VC\Tools\MSVC\14.29.30133\atlmfc\include\afxwin2.inl

; 84   : 	{ ASSERT(::IsWindow(m_hWnd)); ::GetWindowRect(m_hWnd, lpRect); }

  00338	ff d6		 call	 esi
; File D:\git\src\IBK\IBK_DRFN\ProjSrc\SrcDrfn\Chart\MULTICHART\MiniTickBarDlg.cpp

; 680  : 				ScreenToClient(rcItemName);

  0033a	8d 45 88	 lea	 eax, DWORD PTR _rcItemName$1[ebp]
  0033d	8b cb		 mov	 ecx, ebx
  0033f	50		 push	 eax
  00340	e8 00 00 00 00	 call	 ?ScreenToClient@CWnd@@QBEXPAUtagRECT@@@Z ; CWnd::ScreenToClient
  00345	0f 57 c0	 xorps	 xmm0, xmm0

; 681  : 				nItemNameWidth = rcItemName.right;
; 682  : 			}
; 683  : 			int cx = nItemNameWidth;
; 684  : 			//if(((CStdDialog*)GetParent())->m_nChartType==MINI_SINGLE2_CHART)
; 685  : 			//	cx = rcCodeInput.Width() + nItemNameWidth;
; 686  : 			//else
; 687  : 			//	cx = rcMarketCombo.Width() + rcCodeInput.Width() + nItemNameWidth;
; 688  : 
; 689  : 			UINT nCtrlId[] = {
; 690  : 				IDC_BTN_MOVETOLEFTRIGHT,   

  00348	c7 45 c8 91 18
	00 00		 mov	 DWORD PTR _nCtrlId$9[ebp], 6289 ; 00001891H
; File C:\Program Files (x86)\Microsoft Visual Studio\2019\Community\VC\Tools\MSVC\14.29.30133\atlmfc\include\afxwin2.inl

; 84   : 	{ ASSERT(::IsWindow(m_hWnd)); ::GetWindowRect(m_hWnd, lpRect); }

  0034f	33 c0		 xor	 eax, eax
; File D:\git\src\IBK\IBK_DRFN\ProjSrc\SrcDrfn\Chart\MULTICHART\MiniTickBarDlg.cpp

; 691  : 				IDC_BTN_01,    

  00351	c7 45 cc f6 18
	00 00		 mov	 DWORD PTR _nCtrlId$9[ebp+4], 6390 ; 000018f6H

; 692  : 				IDC_BTN_02, 

  00358	c7 45 d0 f7 18
	00 00		 mov	 DWORD PTR _nCtrlId$9[ebp+8], 6391 ; 000018f7H

; 693  : 				IDC_BTN_03,

  0035f	c7 45 d4 f8 18
	00 00		 mov	 DWORD PTR _nCtrlId$9[ebp+12], 6392 ; 000018f8H

; 694  : 				IDC_BTN_04,

  00366	c7 45 d8 f9 18
	00 00		 mov	 DWORD PTR _nCtrlId$9[ebp+16], 6393 ; 000018f9H

; 695  : 				IDC_BTN_05,

  0036d	c7 45 dc fa 18
	00 00		 mov	 DWORD PTR _nCtrlId$9[ebp+20], 6394 ; 000018faH

; 696  : 				IDC_BTN_06,

  00374	c7 45 e0 fb 18
	00 00		 mov	 DWORD PTR _nCtrlId$9[ebp+24], 6395 ; 000018fbH

; 697  : 				IDC_BTN_07,

  0037b	c7 45 e4 fc 18
	00 00		 mov	 DWORD PTR _nCtrlId$9[ebp+28], 6396 ; 000018fcH

; 698  : 				IDC_BTN_08,

  00382	c7 45 e8 fd 18
	00 00		 mov	 DWORD PTR _nCtrlId$9[ebp+32], 6397 ; 000018fdH

; 699  : 				IDC_BTN_09,

  00389	c7 45 ec fe 18
	00 00		 mov	 DWORD PTR _nCtrlId$9[ebp+36], 6398 ; 000018feH

; 700  : 				IDC_BTN_CONFIG,

  00390	c7 45 f0 99 18
	00 00		 mov	 DWORD PTR _nCtrlId$9[ebp+40], 6297 ; 00001899H

; 701  : 				IDC_EDITCNTOFDATALL,

  00397	c7 45 f4 fe 17
	00 00		 mov	 DWORD PTR _nCtrlId$9[ebp+44], 6142 ; 000017feH

; 702  : 				IDC_BTINITIAL

  0039e	c7 45 f8 0b 18
	00 00		 mov	 DWORD PTR _nCtrlId$9[ebp+48], 6155 ; 0000180bH
; File C:\Program Files (x86)\Microsoft Visual Studio\2019\Community\VC\Tools\MSVC\14.29.30133\atlmfc\include\atltypes.h

; 528  : 	left = 0;

  003a5	0f 11 45 b8	 movups	 XMMWORD PTR _rcCtrl$7[ebp], xmm0
; File C:\Program Files (x86)\Microsoft Visual Studio\2019\Community\VC\Tools\MSVC\14.29.30133\atlmfc\include\afxwin2.inl

; 84   : 	{ ASSERT(::IsWindow(m_hWnd)); ::GetWindowRect(m_hWnd, lpRect); }

  003a9	89 45 84	 mov	 DWORD PTR _i$1$[ebp], eax
  003ac	0f 1f 40 00	 npad	 4
$LL9@MoveToLeft:
; File D:\git\src\IBK\IBK_DRFN\ProjSrc\SrcDrfn\Chart\MULTICHART\MiniTickBarDlg.cpp

; 709  : 				GetDlgItem(nCtrlId[i])->GetWindowRect(rcCtrl);

  003b0	8b 7c 85 c8	 mov	 edi, DWORD PTR _nCtrlId$9[ebp+eax*4]
  003b4	8b cb		 mov	 ecx, ebx
  003b6	57		 push	 edi
  003b7	e8 00 00 00 00	 call	 ?GetDlgItem@CWnd@@QBEPAV1@H@Z ; CWnd::GetDlgItem
; File C:\Program Files (x86)\Microsoft Visual Studio\2019\Community\VC\Tools\MSVC\14.29.30133\atlmfc\include\afxwin2.inl

; 84   : 	{ ASSERT(::IsWindow(m_hWnd)); ::GetWindowRect(m_hWnd, lpRect); }

  003bc	8d 4d b8	 lea	 ecx, DWORD PTR _rcCtrl$7[ebp]
  003bf	51		 push	 ecx
  003c0	ff 70 20	 push	 DWORD PTR [eax+32]
  003c3	ff d6		 call	 esi
; File D:\git\src\IBK\IBK_DRFN\ProjSrc\SrcDrfn\Chart\MULTICHART\MiniTickBarDlg.cpp

; 710  : 				ScreenToClient(rcCtrl);

  003c5	8d 45 b8	 lea	 eax, DWORD PTR _rcCtrl$7[ebp]
  003c8	8b cb		 mov	 ecx, ebx
  003ca	50		 push	 eax
  003cb	e8 00 00 00 00	 call	 ?ScreenToClient@CWnd@@QBEXPAUtagRECT@@@Z ; CWnd::ScreenToClient
; File C:\Program Files (x86)\Microsoft Visual Studio\2019\Community\VC\Tools\MSVC\14.29.30133\atlmfc\include\atltypes.h

; 710  : 	::OffsetRect(this, x, y);

  003d0	6a 00		 push	 0
  003d2	ff 75 90	 push	 DWORD PTR _rcItemName$1[ebp+8]
  003d5	8d 45 b8	 lea	 eax, DWORD PTR _rcCtrl$7[ebp]
  003d8	50		 push	 eax
  003d9	ff 15 00 00 00
	00		 call	 DWORD PTR __imp__OffsetRect@12
; File D:\git\src\IBK\IBK_DRFN\ProjSrc\SrcDrfn\Chart\MULTICHART\MiniTickBarDlg.cpp

; 715  : 				GetDlgItem(nCtrlId[i])->MoveWindow(rcCtrl);

  003df	57		 push	 edi
  003e0	8b cb		 mov	 ecx, ebx
  003e2	e8 00 00 00 00	 call	 ?GetDlgItem@CWnd@@QBEPAV1@H@Z ; CWnd::GetDlgItem
; File C:\Program Files (x86)\Microsoft Visual Studio\2019\Community\VC\Tools\MSVC\14.29.30133\atlmfc\include\afxwin2.inl

; 73   : 	{ MoveWindow(lpRect->left, lpRect->top, lpRect->right - lpRect->left,

  003e7	8b 4d c4	 mov	 ecx, DWORD PTR _rcCtrl$7[ebp+12]
  003ea	8b 75 bc	 mov	 esi, DWORD PTR _rcCtrl$7[ebp+4]
  003ed	2b ce		 sub	 ecx, esi
  003ef	8b 55 b8	 mov	 edx, DWORD PTR _rcCtrl$7[ebp]
  003f2	6a 01		 push	 1
  003f4	51		 push	 ecx
  003f5	8b 4d c0	 mov	 ecx, DWORD PTR _rcCtrl$7[ebp+8]
  003f8	2b ca		 sub	 ecx, edx
  003fa	51		 push	 ecx
  003fb	56		 push	 esi
  003fc	52		 push	 edx
  003fd	8b c8		 mov	 ecx, eax
  003ff	e8 00 00 00 00	 call	 ?MoveWindow@CWnd@@QAEXHHHHH@Z ; CWnd::MoveWindow
; File D:\git\src\IBK\IBK_DRFN\ProjSrc\SrcDrfn\Chart\MULTICHART\MiniTickBarDlg.cpp

; 716  : 				GetDlgItem(nCtrlId[i])->ShowWindow(SW_SHOW);

  00404	6a 05		 push	 5
  00406	57		 push	 edi
  00407	8b cb		 mov	 ecx, ebx
  00409	e8 00 00 00 00	 call	 ?GetDlgItem@CWnd@@QBEPAV1@H@Z ; CWnd::GetDlgItem
  0040e	8b c8		 mov	 ecx, eax
  00410	e8 00 00 00 00	 call	 ?ShowWindow@CWnd@@QAEHH@Z ; CWnd::ShowWindow
  00415	8b 45 84	 mov	 eax, DWORD PTR _i$1$[ebp]
  00418	8b 35 00 00 00
	00		 mov	 esi, DWORD PTR __imp__GetWindowRect@8
  0041e	40		 inc	 eax
  0041f	89 45 84	 mov	 DWORD PTR _i$1$[ebp], eax
  00422	83 f8 0d	 cmp	 eax, 13			; 0000000dH
  00425	7c 89		 jl	 SHORT $LL9@MoveToLeft

; 717  : 			}
; 718  : 
; 719  : 			m_cbMarket.ShowWindow(SW_SHOW);

  00427	6a 05		 push	 5
  00429	8d 8b 98 05 00
	00		 lea	 ecx, DWORD PTR [ebx+1432]
  0042f	e8 00 00 00 00	 call	 ?ShowWindow@CWnd@@QAEHH@Z ; CWnd::ShowWindow

; 720  : 			m_pCodeInput->ShowWindow(SW_SHOW);

  00434	8b 8b c8 23 00
	00		 mov	 ecx, DWORD PTR [ebx+9160]
  0043a	6a 05		 push	 5
  0043c	e8 00 00 00 00	 call	 ?ShowWindow@CWnd@@QAEHH@Z ; CWnd::ShowWindow

; 721  : //@Solomon 			if(m_hKSJongName)
; 722  : //@Solomon 				::ShowWindow(m_hKSJongName, SW_SHOW);
; 723  : 			m_stJongName.ShowWindow(SW_SHOW);

  00441	6a 05		 push	 5
  00443	8d 8b c8 14 00
	00		 lea	 ecx, DWORD PTR [ebx+5320]
  00449	e8 00 00 00 00	 call	 ?ShowWindow@CWnd@@QAEHH@Z ; CWnd::ShowWindow
  0044e	e9 e3 fd ff ff	 jmp	 $LN5@MoveToLeft
?MoveToLeftRight@CMiniTickBarDlg@@QAEXI@Z ENDP		; CMiniTickBarDlg::MoveToLeftRight
_TEXT	ENDS
; Function compile flags: /Ogtp
; File D:\git\src\IBK\IBK_DRFN\ProjSrc\SrcDrfn\Chart\MULTICHART\MiniTickBarDlg.cpp
; File C:\Program Files (x86)\Microsoft Visual Studio\2019\Community\VC\Tools\MSVC\14.29.30133\atlmfc\include\afxwin2.inl
; File D:\git\src\IBK\IBK_DRFN\ProjSrc\SrcDrfn\Chart\MULTICHART\MiniTickBarDlg.cpp
; File C:\Program Files (x86)\Microsoft Visual Studio\2019\Community\VC\Tools\MSVC\14.29.30133\atlmfc\include\atltypes.h
; File D:\git\src\IBK\IBK_DRFN\ProjSrc\SrcDrfn\Chart\MULTICHART\MiniTickBarDlg.cpp
; File C:\Program Files (x86)\Microsoft Visual Studio\2019\Community\VC\Tools\MSVC\14.29.30133\atlmfc\include\afxwin2.inl
; File D:\git\src\IBK\IBK_DRFN\ProjSrc\SrcDrfn\Chart\MULTICHART\MiniTickBarDlg.cpp
; File C:\Program Files (x86)\Microsoft Visual Studio\2019\Community\VC\Tools\MSVC\14.29.30133\atlmfc\include\atltypes.h
; File D:\git\src\IBK\IBK_DRFN\ProjSrc\SrcDrfn\Chart\MULTICHART\MiniTickBarDlg.cpp
; File C:\Program Files (x86)\Microsoft Visual Studio\2019\Community\VC\Tools\MSVC\14.29.30133\atlmfc\include\atltypes.h
; File D:\git\src\IBK\IBK_DRFN\ProjSrc\SrcDrfn\Chart\MULTICHART\MiniTickBarDlg.cpp
; File C:\Program Files (x86)\Microsoft Visual Studio\2019\Community\VC\Tools\MSVC\14.29.30133\atlmfc\include\afxv_w32.h
; File C:\Program Files (x86)\Microsoft Visual Studio\2019\Community\VC\Tools\MSVC\14.29.30133\atlmfc\include\afxwin2.inl
; File D:\git\src\IBK\IBK_DRFN\ProjSrc\SrcDrfn\Chart\MULTICHART\MiniTickBarDlg.cpp
; File C:\Program Files (x86)\Microsoft Visual Studio\2019\Community\VC\Tools\MSVC\14.29.30133\atlmfc\include\atltypes.h
; File D:\git\src\IBK\IBK_DRFN\ProjSrc\SrcDrfn\Chart\MULTICHART\MiniTickBarDlg.cpp
; File C:\Program Files (x86)\Microsoft Visual Studio\2019\Community\VC\Tools\MSVC\14.29.30133\atlmfc\include\afxwin2.inl
; File D:\git\src\IBK\IBK_DRFN\ProjSrc\SrcDrfn\Chart\MULTICHART\MiniTickBarDlg.cpp
; File C:\Program Files (x86)\Microsoft Visual Studio\2019\Community\VC\Tools\MSVC\14.29.30133\atlmfc\include\afxwin2.inl
; File D:\git\src\IBK\IBK_DRFN\ProjSrc\SrcDrfn\Chart\MULTICHART\MiniTickBarDlg.cpp
; File C:\Program Files (x86)\Microsoft Visual Studio\2019\Community\VC\Tools\MSVC\14.29.30133\atlmfc\include\atltypes.h
; File D:\git\src\IBK\IBK_DRFN\ProjSrc\SrcDrfn\Chart\MULTICHART\MiniTickBarDlg.cpp
; File C:\Program Files (x86)\Microsoft Visual Studio\2019\Community\VC\Tools\MSVC\14.29.30133\atlmfc\include\atltypes.h
; File D:\git\src\IBK\IBK_DRFN\ProjSrc\SrcDrfn\Chart\MULTICHART\MiniTickBarDlg.cpp
; File C:\Program Files (x86)\Microsoft Visual Studio\2019\Community\VC\Tools\MSVC\14.29.30133\atlmfc\include\afxwin2.inl
; File D:\git\src\IBK\IBK_DRFN\ProjSrc\SrcDrfn\Chart\MULTICHART\MiniTickBarDlg.cpp
; File C:\Program Files (x86)\Microsoft Visual Studio\2019\Community\VC\Tools\MSVC\14.29.30133\atlmfc\include\atltypes.h
; File D:\git\src\IBK\IBK_DRFN\ProjSrc\SrcDrfn\Chart\MULTICHART\MiniTickBarDlg.cpp
;	COMDAT ?SetAllPosition@CMiniTickBarDlg@@QAEXH@Z
_TEXT	SEGMENT
_rcTemp$ = -36						; size = 16
_rectComp$ = -20					; size = 16
__$ArrayPad$ = -4					; size = 4
_nType$ = 8						; size = 4
?SetAllPosition@CMiniTickBarDlg@@QAEXH@Z PROC		; CMiniTickBarDlg::SetAllPosition, COMDAT
; _this$ = ecx

; 540  : {

  00000	55		 push	 ebp
  00001	8b ec		 mov	 ebp, esp
  00003	83 ec 24	 sub	 esp, 36			; 00000024H
  00006	a1 00 00 00 00	 mov	 eax, DWORD PTR ___security_cookie
  0000b	33 c5		 xor	 eax, ebp
  0000d	89 45 fc	 mov	 DWORD PTR __$ArrayPad$[ebp], eax

; 541  : 	if(nType == 0)

  00010	83 7d 08 00	 cmp	 DWORD PTR _nType$[ebp], 0
  00014	57		 push	 edi
  00015	8b f9		 mov	 edi, ecx
  00017	0f 84 27 01 00
	00		 je	 $LN1@SetAllPosi
; File C:\Program Files (x86)\Microsoft Visual Studio\2019\Community\VC\Tools\MSVC\14.29.30133\atlmfc\include\afxwin2.inl

; 207  : 	{ ASSERT(::IsWindow(m_hWnd)); return CWnd::FromHandle(::GetWindow(m_hWnd, nCmd)); }

  0001d	53		 push	 ebx
  0001e	8b 1d 00 00 00
	00		 mov	 ebx, DWORD PTR __imp__GetWindow@8
  00024	56		 push	 esi
  00025	6a 05		 push	 5
  00027	ff 77 20	 push	 DWORD PTR [edi+32]
  0002a	ff d3		 call	 ebx
  0002c	50		 push	 eax
  0002d	e8 00 00 00 00	 call	 ?FromHandle@CWnd@@SGPAV1@PAUHWND__@@@Z ; CWnd::FromHandle
; File D:\git\src\IBK\IBK_DRFN\ProjSrc\SrcDrfn\Chart\MULTICHART\MiniTickBarDlg.cpp

; 544  : 	CWnd* pChild = GetWindow(GW_CHILD);

  00032	8b f0		 mov	 esi, eax
  00034	0f 57 c0	 xorps	 xmm0, xmm0
; File C:\Program Files (x86)\Microsoft Visual Studio\2019\Community\VC\Tools\MSVC\14.29.30133\atlmfc\include\atltypes.h

; 528  : 	left = 0;

  00037	0f 11 45 ec	 movups	 XMMWORD PTR _rectComp$[ebp], xmm0
; File D:\git\src\IBK\IBK_DRFN\ProjSrc\SrcDrfn\Chart\MULTICHART\MiniTickBarDlg.cpp

; 546  : 	while(pChild)

  0003b	85 f6		 test	 esi, esi
  0003d	74 60		 je	 SHORT $LN3@SetAllPosi
  0003f	90		 npad	 1
$LL2@SetAllPosi:
; File C:\Program Files (x86)\Microsoft Visual Studio\2019\Community\VC\Tools\MSVC\14.29.30133\atlmfc\include\afxwin2.inl

; 84   : 	{ ASSERT(::IsWindow(m_hWnd)); ::GetWindowRect(m_hWnd, lpRect); }

  00040	8d 45 ec	 lea	 eax, DWORD PTR _rectComp$[ebp]
  00043	50		 push	 eax
  00044	ff 76 20	 push	 DWORD PTR [esi+32]
  00047	ff 15 00 00 00
	00		 call	 DWORD PTR __imp__GetWindowRect@8
; File D:\git\src\IBK\IBK_DRFN\ProjSrc\SrcDrfn\Chart\MULTICHART\MiniTickBarDlg.cpp

; 555  : 		ScreenToClient(rectComp);

  0004d	8d 45 ec	 lea	 eax, DWORD PTR _rectComp$[ebp]
  00050	8b cf		 mov	 ecx, edi
  00052	50		 push	 eax
  00053	e8 00 00 00 00	 call	 ?ScreenToClient@CWnd@@QBEXPAUtagRECT@@@Z ; CWnd::ScreenToClient
; File C:\Program Files (x86)\Microsoft Visual Studio\2019\Community\VC\Tools\MSVC\14.29.30133\atlmfc\include\atltypes.h

; 576  : 	return right - left;

  00058	8b 4d ec	 mov	 ecx, DWORD PTR _rectComp$[ebp]
  0005b	8b 45 f4	 mov	 eax, DWORD PTR _rectComp$[ebp+8]
; File D:\git\src\IBK\IBK_DRFN\ProjSrc\SrcDrfn\Chart\MULTICHART\MiniTickBarDlg.cpp

; 556  : 		pChild->SetWindowPos(NULL, rectComp.left - 45, rectComp.top, rectComp.Width(), 20, SWP_NOZORDER);

  0005e	6a 04		 push	 4
  00060	6a 14		 push	 20			; 00000014H
; File C:\Program Files (x86)\Microsoft Visual Studio\2019\Community\VC\Tools\MSVC\14.29.30133\atlmfc\include\atltypes.h

; 576  : 	return right - left;

  00062	2b c1		 sub	 eax, ecx
; File D:\git\src\IBK\IBK_DRFN\ProjSrc\SrcDrfn\Chart\MULTICHART\MiniTickBarDlg.cpp

; 556  : 		pChild->SetWindowPos(NULL, rectComp.left - 45, rectComp.top, rectComp.Width(), 20, SWP_NOZORDER);

  00064	50		 push	 eax
  00065	ff 75 f0	 push	 DWORD PTR _rectComp$[ebp+4]
  00068	8d 41 d3	 lea	 eax, DWORD PTR [ecx-45]
  0006b	8b ce		 mov	 ecx, esi
  0006d	50		 push	 eax
  0006e	6a 00		 push	 0
  00070	e8 00 00 00 00	 call	 ?SetWindowPos@CWnd@@QAEHPBV1@HHHHI@Z ; CWnd::SetWindowPos

; 557  : 
; 558  : 		if(pChild->GetDlgCtrlID() == IDC_CBMARKET)// || pChild->GetDlgCtrlID() == IDC_CTRL_CODEINPUT || pChild->GetDlgCtrlID() == IDC_BTCHARTMINI || pChild->GetDlgCtrlID() == IDC_BTINDEXMINI)

  00075	8b ce		 mov	 ecx, esi
  00077	e8 00 00 00 00	 call	 ?GetDlgCtrlID@CWnd@@QBEHXZ ; CWnd::GetDlgCtrlID
  0007c	3d 92 17 00 00	 cmp	 eax, 6034		; 00001792H
  00081	75 09		 jne	 SHORT $LN5@SetAllPosi

; 559  : 		{
; 560  : 			pChild->ShowWindow(SW_HIDE);

  00083	6a 00		 push	 0
  00085	8b ce		 mov	 ecx, esi
  00087	e8 00 00 00 00	 call	 ?ShowWindow@CWnd@@QAEHH@Z ; CWnd::ShowWindow
$LN5@SetAllPosi:
; File C:\Program Files (x86)\Microsoft Visual Studio\2019\Community\VC\Tools\MSVC\14.29.30133\atlmfc\include\afxv_w32.h

; 227  : 	{ return ::GetWindow(hWnd, nDirection); }

  0008c	6a 02		 push	 2
  0008e	ff 76 20	 push	 DWORD PTR [esi+32]
  00091	ff d3		 call	 ebx
; File C:\Program Files (x86)\Microsoft Visual Studio\2019\Community\VC\Tools\MSVC\14.29.30133\atlmfc\include\afxwin2.inl

; 203  : 	{ ASSERT(::IsWindow(m_hWnd)); return CWnd::FromHandle(::GetNextWindow(m_hWnd, nFlag)); }

  00093	50		 push	 eax
  00094	e8 00 00 00 00	 call	 ?FromHandle@CWnd@@SGPAV1@PAUHWND__@@@Z ; CWnd::FromHandle
; File D:\git\src\IBK\IBK_DRFN\ProjSrc\SrcDrfn\Chart\MULTICHART\MiniTickBarDlg.cpp

; 563  : 		pChild = pChild->GetNextWindow();

  00099	8b f0		 mov	 esi, eax
  0009b	85 f6		 test	 esi, esi
  0009d	75 a1		 jne	 SHORT $LL2@SetAllPosi
$LN3@SetAllPosi:
  0009f	0f 57 c0	 xorps	 xmm0, xmm0

; 567  : 	GetDlgItem(IDC_CBMARKET)->GetWindowRect(rcTemp);

  000a2	8b cf		 mov	 ecx, edi
  000a4	68 92 17 00 00	 push	 6034			; 00001792H
; File C:\Program Files (x86)\Microsoft Visual Studio\2019\Community\VC\Tools\MSVC\14.29.30133\atlmfc\include\atltypes.h

; 528  : 	left = 0;

  000a9	0f 11 45 dc	 movups	 XMMWORD PTR _rcTemp$[ebp], xmm0
; File D:\git\src\IBK\IBK_DRFN\ProjSrc\SrcDrfn\Chart\MULTICHART\MiniTickBarDlg.cpp

; 567  : 	GetDlgItem(IDC_CBMARKET)->GetWindowRect(rcTemp);

  000ad	e8 00 00 00 00	 call	 ?GetDlgItem@CWnd@@QBEPAV1@H@Z ; CWnd::GetDlgItem
; File C:\Program Files (x86)\Microsoft Visual Studio\2019\Community\VC\Tools\MSVC\14.29.30133\atlmfc\include\afxwin2.inl

; 84   : 	{ ASSERT(::IsWindow(m_hWnd)); ::GetWindowRect(m_hWnd, lpRect); }

  000b2	8b 35 00 00 00
	00		 mov	 esi, DWORD PTR __imp__GetWindowRect@8
  000b8	8d 4d dc	 lea	 ecx, DWORD PTR _rcTemp$[ebp]
  000bb	51		 push	 ecx
  000bc	ff 70 20	 push	 DWORD PTR [eax+32]
  000bf	ff d6		 call	 esi
; File D:\git\src\IBK\IBK_DRFN\ProjSrc\SrcDrfn\Chart\MULTICHART\MiniTickBarDlg.cpp

; 568  : 	ScreenToClient(rcTemp);

  000c1	8d 45 dc	 lea	 eax, DWORD PTR _rcTemp$[ebp]
  000c4	8b cf		 mov	 ecx, edi
  000c6	50		 push	 eax
  000c7	e8 00 00 00 00	 call	 ?ScreenToClient@CWnd@@QBEXPAUtagRECT@@@Z ; CWnd::ScreenToClient
; File C:\Program Files (x86)\Microsoft Visual Studio\2019\Community\VC\Tools\MSVC\14.29.30133\atlmfc\include\afxwin2.inl

; 84   : 	{ ASSERT(::IsWindow(m_hWnd)); ::GetWindowRect(m_hWnd, lpRect); }

  000cc	8d 45 ec	 lea	 eax, DWORD PTR _rectComp$[ebp]
  000cf	50		 push	 eax
  000d0	8b 87 c8 23 00
	00		 mov	 eax, DWORD PTR [edi+9160]
  000d6	ff 70 20	 push	 DWORD PTR [eax+32]
  000d9	ff d6		 call	 esi
; File D:\git\src\IBK\IBK_DRFN\ProjSrc\SrcDrfn\Chart\MULTICHART\MiniTickBarDlg.cpp

; 571  : 	ScreenToClient(rectComp);

  000db	8d 45 ec	 lea	 eax, DWORD PTR _rectComp$[ebp]
  000de	8b cf		 mov	 ecx, edi
  000e0	50		 push	 eax
  000e1	e8 00 00 00 00	 call	 ?ScreenToClient@CWnd@@QBEXPAUtagRECT@@@Z ; CWnd::ScreenToClient
; File C:\Program Files (x86)\Microsoft Visual Studio\2019\Community\VC\Tools\MSVC\14.29.30133\atlmfc\include\atltypes.h

; 581  : 	return bottom - top;

  000e6	8b 45 f8	 mov	 eax, DWORD PTR _rectComp$[ebp+12]
  000e9	2b 45 f0	 sub	 eax, DWORD PTR _rectComp$[ebp+4]
; File D:\git\src\IBK\IBK_DRFN\ProjSrc\SrcDrfn\Chart\MULTICHART\MiniTickBarDlg.cpp

; 572  : 	m_pCodeInput->MoveWindow(rcTemp.left, rcTemp.top, rectComp.Width(), rectComp.Height());

  000ec	8b 8f c8 23 00
	00		 mov	 ecx, DWORD PTR [edi+9160]
  000f2	6a 01		 push	 1
  000f4	50		 push	 eax
; File C:\Program Files (x86)\Microsoft Visual Studio\2019\Community\VC\Tools\MSVC\14.29.30133\atlmfc\include\atltypes.h

; 576  : 	return right - left;

  000f5	8b 45 f4	 mov	 eax, DWORD PTR _rectComp$[ebp+8]
  000f8	2b 45 ec	 sub	 eax, DWORD PTR _rectComp$[ebp]
; File D:\git\src\IBK\IBK_DRFN\ProjSrc\SrcDrfn\Chart\MULTICHART\MiniTickBarDlg.cpp

; 572  : 	m_pCodeInput->MoveWindow(rcTemp.left, rcTemp.top, rectComp.Width(), rectComp.Height());

  000fb	50		 push	 eax
  000fc	ff 75 e0	 push	 DWORD PTR _rcTemp$[ebp+4]
  000ff	ff 75 dc	 push	 DWORD PTR _rcTemp$[ebp]
  00102	e8 00 00 00 00	 call	 ?MoveWindow@CWnd@@QAEXHHHHH@Z ; CWnd::MoveWindow
; File C:\Program Files (x86)\Microsoft Visual Studio\2019\Community\VC\Tools\MSVC\14.29.30133\atlmfc\include\afxwin2.inl

; 84   : 	{ ASSERT(::IsWindow(m_hWnd)); ::GetWindowRect(m_hWnd, lpRect); }

  00107	8d 45 ec	 lea	 eax, DWORD PTR _rectComp$[ebp]
  0010a	50		 push	 eax
  0010b	ff b7 b0 2e 00
	00		 push	 DWORD PTR [edi+11952]
  00111	ff d6		 call	 esi
; File D:\git\src\IBK\IBK_DRFN\ProjSrc\SrcDrfn\Chart\MULTICHART\MiniTickBarDlg.cpp

; 575  : 	ScreenToClient(rectComp);

  00113	8d 45 ec	 lea	 eax, DWORD PTR _rectComp$[ebp]
  00116	8b cf		 mov	 ecx, edi
  00118	50		 push	 eax
  00119	e8 00 00 00 00	 call	 ?ScreenToClient@CWnd@@QBEXPAUtagRECT@@@Z ; CWnd::ScreenToClient
; File C:\Program Files (x86)\Microsoft Visual Studio\2019\Community\VC\Tools\MSVC\14.29.30133\atlmfc\include\atltypes.h

; 581  : 	return bottom - top;

  0011e	8b 45 f8	 mov	 eax, DWORD PTR _rectComp$[ebp+12]
  00121	8b 55 f0	 mov	 edx, DWORD PTR _rectComp$[ebp+4]
  00124	2b c2		 sub	 eax, edx
; File D:\git\src\IBK\IBK_DRFN\ProjSrc\SrcDrfn\Chart\MULTICHART\MiniTickBarDlg.cpp

; 581  : 	m_stJongName.SetWindowPos(NULL, rectComp.right, rectComp.top, nRight - rectComp.right, rectComp.Height(), SWP_NOZORDER|SWP_SHOWWINDOW);

  00126	8b 4d f4	 mov	 ecx, DWORD PTR _rectComp$[ebp+8]
  00129	6a 44		 push	 68			; 00000044H
  0012b	50		 push	 eax
  0012c	8b 45 ec	 mov	 eax, DWORD PTR _rectComp$[ebp]
  0012f	2b c1		 sub	 eax, ecx
  00131	48		 dec	 eax
  00132	50		 push	 eax
  00133	52		 push	 edx
  00134	51		 push	 ecx
  00135	6a 00		 push	 0
  00137	8d 8f c8 14 00
	00		 lea	 ecx, DWORD PTR [edi+5320]
  0013d	e8 00 00 00 00	 call	 ?SetWindowPos@CWnd@@QAEHPBV1@HHHHI@Z ; CWnd::SetWindowPos
  00142	5e		 pop	 esi
  00143	5b		 pop	 ebx
$LN1@SetAllPosi:

; 582  : }

  00144	8b 4d fc	 mov	 ecx, DWORD PTR __$ArrayPad$[ebp]
  00147	33 cd		 xor	 ecx, ebp
  00149	5f		 pop	 edi
  0014a	e8 00 00 00 00	 call	 @__security_check_cookie@4
  0014f	8b e5		 mov	 esp, ebp
  00151	5d		 pop	 ebp
  00152	c2 04 00	 ret	 4
?SetAllPosition@CMiniTickBarDlg@@QAEXH@Z ENDP		; CMiniTickBarDlg::SetAllPosition
_TEXT	ENDS
; Function compile flags: /Ogtp
; File D:\git\src\IBK\IBK_DRFN\ProjSrc\SrcDrfn\Chart\MULTICHART\MiniTickBarDlg.cpp
; File C:\Program Files (x86)\Microsoft Visual Studio\2019\Community\VC\Tools\MSVC\14.29.30133\atlmfc\include\afxwin2.inl
; File D:\git\src\IBK\IBK_DRFN\ProjSrc\SrcDrfn\Chart\MULTICHART\MiniTickBarDlg.cpp
; File C:\Program Files (x86)\Microsoft Visual Studio\2019\Community\VC\Tools\MSVC\14.29.30133\atlmfc\include\atltypes.h
; File C:\Program Files (x86)\Microsoft Visual Studio\2019\Community\VC\Tools\MSVC\14.29.30133\atlmfc\include\afxwin2.inl
; File C:\Program Files (x86)\Microsoft Visual Studio\2019\Community\VC\Tools\MSVC\14.29.30133\atlmfc\include\atltypes.h
; File C:\Program Files (x86)\Microsoft Visual Studio\2019\Community\VC\Tools\MSVC\14.29.30133\atlmfc\include\afxwin2.inl
; File C:\Program Files (x86)\Microsoft Visual Studio\2019\Community\VC\Tools\MSVC\14.29.30133\atlmfc\include\atltypes.h
; File C:\Program Files (x86)\Microsoft Visual Studio\2019\Community\VC\Tools\MSVC\14.29.30133\atlmfc\include\afxwin2.inl
; File D:\git\src\IBK\IBK_DRFN\ProjSrc\SrcDrfn\Chart\MULTICHART\MiniTickBarDlg.cpp
; File C:\Program Files (x86)\Microsoft Visual Studio\2019\Community\VC\Tools\MSVC\14.29.30133\atlmfc\include\afxwin2.inl
; File D:\git\src\IBK\IBK_DRFN\ProjSrc\SrcDrfn\Chart\MULTICHART\MiniTickBarDlg.cpp
; File C:\Program Files (x86)\Microsoft Visual Studio\2019\Community\VC\Tools\MSVC\14.29.30133\atlmfc\include\afxwin2.inl
; File D:\git\src\IBK\IBK_DRFN\ProjSrc\SrcDrfn\Chart\MULTICHART\MiniTickBarDlg.cpp
; File C:\Program Files (x86)\Microsoft Visual Studio\2019\Community\VC\Tools\MSVC\14.29.30133\atlmfc\include\atltypes.h
; File D:\git\src\IBK\IBK_DRFN\ProjSrc\SrcDrfn\Chart\MULTICHART\MiniTickBarDlg.cpp
; File C:\Program Files (x86)\Microsoft Visual Studio\2019\Community\VC\Tools\MSVC\14.29.30133\atlmfc\include\atltypes.h
; File D:\git\src\IBK\IBK_DRFN\ProjSrc\SrcDrfn\Chart\MULTICHART\MiniTickBarDlg.cpp
; File C:\Program Files (x86)\Microsoft Visual Studio\2019\Community\VC\Tools\MSVC\14.29.30133\atlmfc\include\atltypes.h
; File D:\git\src\IBK\IBK_DRFN\ProjSrc\SrcDrfn\Chart\MULTICHART\MiniTickBarDlg.cpp
; File C:\Program Files (x86)\Microsoft Visual Studio\2019\Community\VC\Tools\MSVC\14.29.30133\atlmfc\include\atltypes.h
; File D:\git\src\IBK\IBK_DRFN\ProjSrc\SrcDrfn\Chart\MULTICHART\MiniTickBarDlg.cpp
;	COMDAT ?MoveCodeInputCtrl@CMiniTickBarDlg@@UAEXXZ
_TEXT	SEGMENT
_rcTemp$1 = -36						; size = 16
_rectComp$2 = -20					; size = 16
__$ArrayPad$ = -4					; size = 4
?MoveCodeInputCtrl@CMiniTickBarDlg@@UAEXXZ PROC		; CMiniTickBarDlg::MoveCodeInputCtrl, COMDAT
; _this$ = ecx

; 771  : {

  00000	55		 push	 ebp
  00001	8b ec		 mov	 ebp, esp
  00003	83 ec 24	 sub	 esp, 36			; 00000024H
  00006	a1 00 00 00 00	 mov	 eax, DWORD PTR ___security_cookie
  0000b	33 c5		 xor	 eax, ebp
  0000d	89 45 fc	 mov	 DWORD PTR __$ArrayPad$[ebp], eax
  00010	53		 push	 ebx
  00011	8b d9		 mov	 ebx, ecx

; 772  : 	if(m_pCodeInput->GetSafeHwnd())

  00013	8b 83 c8 23 00
	00		 mov	 eax, DWORD PTR [ebx+9160]
; File C:\Program Files (x86)\Microsoft Visual Studio\2019\Community\VC\Tools\MSVC\14.29.30133\atlmfc\include\afxwin2.inl

; 25   : 	{ return this == NULL ? NULL : m_hWnd; }

  00019	85 c0		 test	 eax, eax
  0001b	0f 84 c1 00 00
	00		 je	 $LN2@MoveCodeIn
; File D:\git\src\IBK\IBK_DRFN\ProjSrc\SrcDrfn\Chart\MULTICHART\MiniTickBarDlg.cpp

; 772  : 	if(m_pCodeInput->GetSafeHwnd())

  00021	83 78 20 00	 cmp	 DWORD PTR [eax+32], 0
  00025	0f 84 b7 00 00
	00		 je	 $LN2@MoveCodeIn
; File C:\Program Files (x86)\Microsoft Visual Studio\2019\Community\VC\Tools\MSVC\14.29.30133\atlmfc\include\atltypes.h

; 528  : 	left = 0;

  0002b	56		 push	 esi
; File C:\Program Files (x86)\Microsoft Visual Studio\2019\Community\VC\Tools\MSVC\14.29.30133\atlmfc\include\afxwin2.inl

; 84   : 	{ ASSERT(::IsWindow(m_hWnd)); ::GetWindowRect(m_hWnd, lpRect); }

  0002c	8b 35 00 00 00
	00		 mov	 esi, DWORD PTR __imp__GetWindowRect@8
  00032	8d 45 dc	 lea	 eax, DWORD PTR _rcTemp$1[ebp]
; File C:\Program Files (x86)\Microsoft Visual Studio\2019\Community\VC\Tools\MSVC\14.29.30133\atlmfc\include\atltypes.h

; 528  : 	left = 0;

  00035	57		 push	 edi
; File C:\Program Files (x86)\Microsoft Visual Studio\2019\Community\VC\Tools\MSVC\14.29.30133\atlmfc\include\afxwin2.inl

; 84   : 	{ ASSERT(::IsWindow(m_hWnd)); ::GetWindowRect(m_hWnd, lpRect); }

  00036	50		 push	 eax
  00037	ff b3 b0 2e 00
	00		 push	 DWORD PTR [ebx+11952]
  0003d	0f 57 c0	 xorps	 xmm0, xmm0
; File C:\Program Files (x86)\Microsoft Visual Studio\2019\Community\VC\Tools\MSVC\14.29.30133\atlmfc\include\atltypes.h

; 528  : 	left = 0;

  00040	0f 11 45 dc	 movups	 XMMWORD PTR _rcTemp$1[ebp], xmm0
  00044	0f 11 45 ec	 movups	 XMMWORD PTR _rectComp$2[ebp], xmm0
; File C:\Program Files (x86)\Microsoft Visual Studio\2019\Community\VC\Tools\MSVC\14.29.30133\atlmfc\include\afxwin2.inl

; 84   : 	{ ASSERT(::IsWindow(m_hWnd)); ::GetWindowRect(m_hWnd, lpRect); }

  00048	ff d6		 call	 esi
; File D:\git\src\IBK\IBK_DRFN\ProjSrc\SrcDrfn\Chart\MULTICHART\MiniTickBarDlg.cpp

; 777  : 		ScreenToClient(rcTemp);

  0004a	8d 45 dc	 lea	 eax, DWORD PTR _rcTemp$1[ebp]
  0004d	8b cb		 mov	 ecx, ebx
  0004f	50		 push	 eax
  00050	e8 00 00 00 00	 call	 ?ScreenToClient@CWnd@@QBEXPAUtagRECT@@@Z ; CWnd::ScreenToClient

; 778  : 		int nRight = rcTemp.left - 1;

  00055	8b 7d dc	 mov	 edi, DWORD PTR _rcTemp$1[ebp]

; 779  : 
; 780  : 		GetDlgItem(IDC_CBMARKET)->GetWindowRect(rcTemp);

  00058	8b cb		 mov	 ecx, ebx
  0005a	68 92 17 00 00	 push	 6034			; 00001792H
  0005f	83 c7 fd	 add	 edi, -3			; fffffffdH
  00062	e8 00 00 00 00	 call	 ?GetDlgItem@CWnd@@QBEPAV1@H@Z ; CWnd::GetDlgItem
; File C:\Program Files (x86)\Microsoft Visual Studio\2019\Community\VC\Tools\MSVC\14.29.30133\atlmfc\include\afxwin2.inl

; 84   : 	{ ASSERT(::IsWindow(m_hWnd)); ::GetWindowRect(m_hWnd, lpRect); }

  00067	8d 4d dc	 lea	 ecx, DWORD PTR _rcTemp$1[ebp]
  0006a	51		 push	 ecx
  0006b	ff 70 20	 push	 DWORD PTR [eax+32]
  0006e	ff d6		 call	 esi
; File D:\git\src\IBK\IBK_DRFN\ProjSrc\SrcDrfn\Chart\MULTICHART\MiniTickBarDlg.cpp

; 781  : 		ScreenToClient(rcTemp);

  00070	8d 45 dc	 lea	 eax, DWORD PTR _rcTemp$1[ebp]
  00073	8b cb		 mov	 ecx, ebx
  00075	50		 push	 eax
  00076	e8 00 00 00 00	 call	 ?ScreenToClient@CWnd@@QBEXPAUtagRECT@@@Z ; CWnd::ScreenToClient
; File C:\Program Files (x86)\Microsoft Visual Studio\2019\Community\VC\Tools\MSVC\14.29.30133\atlmfc\include\afxwin2.inl

; 84   : 	{ ASSERT(::IsWindow(m_hWnd)); ::GetWindowRect(m_hWnd, lpRect); }

  0007b	8d 45 ec	 lea	 eax, DWORD PTR _rectComp$2[ebp]
  0007e	50		 push	 eax
  0007f	8b 83 c8 23 00
	00		 mov	 eax, DWORD PTR [ebx+9160]
  00085	ff 70 20	 push	 DWORD PTR [eax+32]
  00088	ff d6		 call	 esi
; File D:\git\src\IBK\IBK_DRFN\ProjSrc\SrcDrfn\Chart\MULTICHART\MiniTickBarDlg.cpp

; 784  : 		ScreenToClient(rectComp);

  0008a	8d 45 ec	 lea	 eax, DWORD PTR _rectComp$2[ebp]
  0008d	8b cb		 mov	 ecx, ebx
  0008f	50		 push	 eax
  00090	e8 00 00 00 00	 call	 ?ScreenToClient@CWnd@@QBEXPAUtagRECT@@@Z ; CWnd::ScreenToClient
; File C:\Program Files (x86)\Microsoft Visual Studio\2019\Community\VC\Tools\MSVC\14.29.30133\atlmfc\include\atltypes.h

; 581  : 	return bottom - top;

  00095	8b 45 f8	 mov	 eax, DWORD PTR _rectComp$2[ebp+12]
  00098	2b 45 f0	 sub	 eax, DWORD PTR _rectComp$2[ebp+4]
; File D:\git\src\IBK\IBK_DRFN\ProjSrc\SrcDrfn\Chart\MULTICHART\MiniTickBarDlg.cpp

; 785  : 		m_pCodeInput->MoveWindow(2, rcTemp.top, rectComp.Width(), rectComp.Height());

  0009b	8b 8b c8 23 00
	00		 mov	 ecx, DWORD PTR [ebx+9160]
  000a1	6a 01		 push	 1
  000a3	50		 push	 eax
; File C:\Program Files (x86)\Microsoft Visual Studio\2019\Community\VC\Tools\MSVC\14.29.30133\atlmfc\include\atltypes.h

; 576  : 	return right - left;

  000a4	8b 45 f4	 mov	 eax, DWORD PTR _rectComp$2[ebp+8]
  000a7	2b 45 ec	 sub	 eax, DWORD PTR _rectComp$2[ebp]
; File D:\git\src\IBK\IBK_DRFN\ProjSrc\SrcDrfn\Chart\MULTICHART\MiniTickBarDlg.cpp

; 785  : 		m_pCodeInput->MoveWindow(2, rcTemp.top, rectComp.Width(), rectComp.Height());

  000aa	50		 push	 eax
  000ab	ff 75 e0	 push	 DWORD PTR _rcTemp$1[ebp+4]
  000ae	6a 02		 push	 2
  000b0	e8 00 00 00 00	 call	 ?MoveWindow@CWnd@@QAEXHHHHH@Z ; CWnd::MoveWindow
; File C:\Program Files (x86)\Microsoft Visual Studio\2019\Community\VC\Tools\MSVC\14.29.30133\atlmfc\include\atltypes.h

; 581  : 	return bottom - top;

  000b5	8b 45 f8	 mov	 eax, DWORD PTR _rectComp$2[ebp+12]
; File D:\git\src\IBK\IBK_DRFN\ProjSrc\SrcDrfn\Chart\MULTICHART\MiniTickBarDlg.cpp

; 792  : 		m_stJongName.SetWindowPos(NULL, rectComp.Width() + 2, rectComp.top, nRight - rectComp.Width() - 2, rectComp.Height(), SWP_NOZORDER|SWP_SHOWWINDOW);

  000b8	8d 8b c8 14 00
	00		 lea	 ecx, DWORD PTR [ebx+5320]
; File C:\Program Files (x86)\Microsoft Visual Studio\2019\Community\VC\Tools\MSVC\14.29.30133\atlmfc\include\atltypes.h

; 581  : 	return bottom - top;

  000be	8b 75 f0	 mov	 esi, DWORD PTR _rectComp$2[ebp+4]
  000c1	2b c6		 sub	 eax, esi
; File D:\git\src\IBK\IBK_DRFN\ProjSrc\SrcDrfn\Chart\MULTICHART\MiniTickBarDlg.cpp

; 792  : 		m_stJongName.SetWindowPos(NULL, rectComp.Width() + 2, rectComp.top, nRight - rectComp.Width() - 2, rectComp.Height(), SWP_NOZORDER|SWP_SHOWWINDOW);

  000c3	8b 55 f4	 mov	 edx, DWORD PTR _rectComp$2[ebp+8]
  000c6	6a 44		 push	 68			; 00000044H
  000c8	50		 push	 eax
  000c9	8b 45 ec	 mov	 eax, DWORD PTR _rectComp$2[ebp]
  000cc	2b c2		 sub	 eax, edx
  000ce	2b 55 ec	 sub	 edx, DWORD PTR _rectComp$2[ebp]
  000d1	03 c7		 add	 eax, edi
  000d3	83 c2 02	 add	 edx, 2
  000d6	50		 push	 eax
  000d7	56		 push	 esi
  000d8	52		 push	 edx
  000d9	6a 00		 push	 0
  000db	e8 00 00 00 00	 call	 ?SetWindowPos@CWnd@@QAEHPBV1@HHHHI@Z ; CWnd::SetWindowPos
  000e0	5f		 pop	 edi
  000e1	5e		 pop	 esi
$LN2@MoveCodeIn:

; 793  : 	}
; 794  : }

  000e2	8b 4d fc	 mov	 ecx, DWORD PTR __$ArrayPad$[ebp]
  000e5	33 cd		 xor	 ecx, ebp
  000e7	5b		 pop	 ebx
  000e8	e8 00 00 00 00	 call	 @__security_check_cookie@4
  000ed	8b e5		 mov	 esp, ebp
  000ef	5d		 pop	 ebp
  000f0	c3		 ret	 0
?MoveCodeInputCtrl@CMiniTickBarDlg@@UAEXXZ ENDP		; CMiniTickBarDlg::MoveCodeInputCtrl
_TEXT	ENDS
; Function compile flags: /Ogtp
; File D:\git\src\IBK\IBK_DRFN\ProjSrc\SrcDrfn\Chart\MULTICHART\MiniTickBarDlg.cpp
;	COMDAT ?SetType@CMiniTickBarDlg@@UAEXH@Z
_TEXT	SEGMENT
_bSendChartMng$ = 8					; size = 4
?SetType@CMiniTickBarDlg@@UAEXH@Z PROC			; CMiniTickBarDlg::SetType, COMDAT
; _this$ = ecx

; 403  : }

  00000	c2 04 00	 ret	 4
?SetType@CMiniTickBarDlg@@UAEXH@Z ENDP			; CMiniTickBarDlg::SetType
_TEXT	ENDS
; Function compile flags: /Ogtp
; File D:\git\src\IBK\IBK_DRFN\ProjSrc\SrcDrfn\Chart\MULTICHART\MiniTickBarDlg.cpp
;	COMDAT ?SetCodeName@CMiniTickBarDlg@@UAEXHPBD0@Z
_TEXT	SEGMENT
_nMarketType$ = 8					; size = 4
_szCode$ = 12						; size = 4
_szName$ = 16						; size = 4
?SetCodeName@CMiniTickBarDlg@@UAEXHPBD0@Z PROC		; CMiniTickBarDlg::SetCodeName, COMDAT
; _this$ = ecx

; 278  : {

  00000	55		 push	 ebp
  00001	8b ec		 mov	 ebp, esp

; 279  : 	if(m_nMarketType==nMarketType)

  00003	8b 81 20 01 00
	00		 mov	 eax, DWORD PTR [ecx+288]
  00009	3b 45 08	 cmp	 eax, DWORD PTR _nMarketType$[ebp]
  0000c	75 0e		 jne	 SHORT $LN2@SetCodeNam

; 280  : 		m_stJongName.SetText(szName);

  0000e	ff 75 10	 push	 DWORD PTR _szName$[ebp]
  00011	81 c1 c8 14 00
	00		 add	 ecx, 5320		; 000014c8H
  00017	e8 00 00 00 00	 call	 ?SetText@CExStatic@@QAEXPBD@Z ; CExStatic::SetText
$LN2@SetCodeNam:

; 281  : }

  0001c	5d		 pop	 ebp
  0001d	c2 0c 00	 ret	 12			; 0000000cH
?SetCodeName@CMiniTickBarDlg@@UAEXHPBD0@Z ENDP		; CMiniTickBarDlg::SetCodeName
_TEXT	ENDS
; Function compile flags: /Ogtp
; File D:\git\src\IBK\IBK_DRFN\ProjSrc\SrcDrfn\Chart\MULTICHART\MiniTickBarDlg.cpp
;	COMDAT ?SaveIniValue@CMiniTickBarDlg@@UAEXXZ
_TEXT	SEGMENT
$T2 = -64						; size = 4
_strUserDir$ = -60					; size = 4
tv298 = -56						; size = 4
_i$1$ = -52						; size = 4
_szTemp$ = -48						; size = 20
_szKey$ = -28						; size = 10
__$ArrayPad$ = -16					; size = 4
__$EHRec$ = -12						; size = 12
?SaveIniValue@CMiniTickBarDlg@@UAEXXZ PROC		; CMiniTickBarDlg::SaveIniValue, COMDAT
; _this$ = ecx

; 383  : {

  00000	55		 push	 ebp
  00001	8b ec		 mov	 ebp, esp
  00003	6a ff		 push	 -1
  00005	68 00 00 00 00	 push	 __ehhandler$?SaveIniValue@CMiniTickBarDlg@@UAEXXZ
  0000a	64 a1 00 00 00
	00		 mov	 eax, DWORD PTR fs:0
  00010	50		 push	 eax
  00011	83 ec 34	 sub	 esp, 52			; 00000034H
  00014	a1 00 00 00 00	 mov	 eax, DWORD PTR ___security_cookie
  00019	33 c5		 xor	 eax, ebp
  0001b	89 45 f0	 mov	 DWORD PTR __$ArrayPad$[ebp], eax
  0001e	56		 push	 esi
  0001f	57		 push	 edi
  00020	50		 push	 eax
  00021	8d 45 f4	 lea	 eax, DWORD PTR __$EHRec$[ebp]
  00024	64 a3 00 00 00
	00		 mov	 DWORD PTR fs:0, eax
  0002a	8b f9		 mov	 edi, ecx

; 384  : 	CString strUserDir = m_pStdDialog->m_strConfig;

  0002c	8b 87 a8 00 00
	00		 mov	 eax, DWORD PTR [edi+168]
  00032	8d 4d c4	 lea	 ecx, DWORD PTR _strUserDir$[ebp]
  00035	05 a8 07 00 00	 add	 eax, 1960		; 000007a8H
  0003a	50		 push	 eax
  0003b	ff 15 00 00 00
	00		 call	 DWORD PTR __imp_??0?$CStringT@DV?$StrTraitMFC_DLL@DV?$ChTraitsCRT@D@ATL@@@@@ATL@@QAE@ABV01@@Z
  00041	8d 8f 50 31 00
	00		 lea	 ecx, DWORD PTR [edi+12624]
  00047	c7 45 fc 00 00
	00 00		 mov	 DWORD PTR __$EHRec$[ebp+8], 0

; 385  : 	
; 386  : 	char szTemp[20];
; 387  : 	char szKey[10];
; 388  : 
; 389  : 	for(int i = 0; i < 9; i++)

  0004e	c7 45 cc 00 00
	00 00		 mov	 DWORD PTR _i$1$[ebp], 0
  00055	33 f6		 xor	 esi, esi
  00057	89 4d c8	 mov	 DWORD PTR tv298[ebp], ecx
  0005a	66 0f 1f 44 00
	00		 npad	 6
$LL4@SaveIniVal:

; 158  : 	return m_pSetTick[nIndex].bAllDay;

  00060	8b 87 b0 3d 00
	00		 mov	 eax, DWORD PTR [edi+15792]
  00066	0f 57 c0	 xorps	 xmm0, xmm0

; 390  : 	{
; 391  : 		::memset(szTemp, 0x00, sizeof(szTemp));

  00069	0f 11 45 d0	 movups	 XMMWORD PTR _szTemp$[ebp], xmm0
  0006d	c7 45 e0 00 00
	00 00		 mov	 DWORD PTR _szTemp$[ebp+16], 0

; 153  : 	return m_pSetTick[nIndex].nTick;

  00074	8b 4c 06 0c	 mov	 ecx, DWORD PTR [esi+eax+12]

; 158  : 	return m_pSetTick[nIndex].bAllDay;

  00078	8b 54 06 10	 mov	 edx, DWORD PTR [esi+eax+16]

; 153  : 	return m_pSetTick[nIndex].nTick;

  0007c	89 4d c0	 mov	 DWORD PTR $T2[ebp], ecx

; 148  : 	return m_pSetTick[nIndex].nDate;

  0007f	8b 4c 06 08	 mov	 ecx, DWORD PTR [esi+eax+8]

; 111  : 	switch(nMarket)

  00083	8b 44 06 04	 mov	 eax, DWORD PTR [esi+eax+4]
  00087	83 e8 00	 sub	 eax, 0
  0008a	74 18		 je	 SHORT $LN16@SaveIniVal
  0008c	83 e8 01	 sub	 eax, 1
  0008f	74 0c		 je	 SHORT $LN17@SaveIniVal
  00091	83 e8 01	 sub	 eax, 1
  00094	75 0e		 jne	 SHORT $LN16@SaveIniVal

; 117  : 	case 2:
; 118  : 		return CMasterTypeInfo::FUTOPT_CHART;

  00096	b8 02 00 00 00	 mov	 eax, 2
  0009b	eb 09		 jmp	 SHORT $LN13@SaveIniVal
$LN17@SaveIniVal:

; 112  : 	{
; 113  : 	case 0:
; 114  : 		return CMasterTypeInfo::STOCK_CHART;
; 115  : 	case 1:
; 116  : 		return CMasterTypeInfo::UPJONG_CHART;

  0009d	b8 01 00 00 00	 mov	 eax, 1
  000a2	eb 02		 jmp	 SHORT $LN13@SaveIniVal
$LN16@SaveIniVal:

; 392  : 		::sprintf(szTemp, "%d;%d;%d;%d;%d", m_btn[i].GetCheck(), m_SetTickBtn.GetMarket(i), m_SetTickBtn.GetDateIndex(i), m_SetTickBtn.GetTick(i), m_SetTickBtn.GetAllDay(i));

  000a4	33 c0		 xor	 eax, eax
$LN13@SaveIniVal:
  000a6	52		 push	 edx
  000a7	ff 75 c0	 push	 DWORD PTR $T2[ebp]
  000aa	51		 push	 ecx
  000ab	8b 4d c8	 mov	 ecx, DWORD PTR tv298[ebp]
  000ae	50		 push	 eax
  000af	e8 00 00 00 00	 call	 ?GetCheck@CILButton@@QAEHXZ ; CILButton::GetCheck
  000b4	50		 push	 eax
  000b5	8d 45 d0	 lea	 eax, DWORD PTR _szTemp$[ebp]
  000b8	68 00 00 00 00	 push	 OFFSET ??_C@_0P@DGOJGCL@?$CFd?$DL?$CFd?$DL?$CFd?$DL?$CFd?$DL?$CFd@
  000bd	50		 push	 eax
  000be	e8 00 00 00 00	 call	 _sprintf

; 393  : 
; 394  : 		::memset(szKey, 0x00, sizeof(szKey));
; 395  : 		::sprintf(szKey, "TickBtn%d", i);

  000c3	ff 75 cc	 push	 DWORD PTR _i$1$[ebp]
  000c6	8d 45 e4	 lea	 eax, DWORD PTR _szKey$[ebp]
  000c9	66 c7 45 ec 00
	00		 mov	 WORD PTR _szKey$[ebp+8], 0
  000cf	0f 57 c0	 xorps	 xmm0, xmm0
  000d2	68 00 00 00 00	 push	 OFFSET ??_C@_09CBLDHOPD@TickBtn?$CFd@
  000d7	50		 push	 eax
  000d8	66 0f d6 45 e4	 movq	 QWORD PTR _szKey$[ebp], xmm0
  000dd	e8 00 00 00 00	 call	 _sprintf
  000e2	83 c4 28	 add	 esp, 40			; 00000028H

; 396  : 
; 397  : 		::WritePrivateProfileString("0000", szKey, szTemp, strUserDir);

  000e5	8d 45 d0	 lea	 eax, DWORD PTR _szTemp$[ebp]
  000e8	ff 75 c4	 push	 DWORD PTR _strUserDir$[ebp]
  000eb	50		 push	 eax
  000ec	8d 45 e4	 lea	 eax, DWORD PTR _szKey$[ebp]
  000ef	50		 push	 eax
  000f0	68 00 00 00 00	 push	 OFFSET ??_C@_04JDPKJLKG@0000@
  000f5	ff 15 00 00 00
	00		 call	 DWORD PTR __imp__WritePrivateProfileStringA@16
  000fb	ff 45 cc	 inc	 DWORD PTR _i$1$[ebp]
  000fe	83 c6 14	 add	 esi, 20			; 00000014H
  00101	81 45 c8 60 01
	00 00		 add	 DWORD PTR tv298[ebp], 352 ; 00000160H
  00108	81 fe b4 00 00
	00		 cmp	 esi, 180		; 000000b4H
  0010e	0f 8c 4c ff ff
	ff		 jl	 $LL4@SaveIniVal

; 398  : 	}
; 399  : }

  00114	8d 4d c4	 lea	 ecx, DWORD PTR _strUserDir$[ebp]
  00117	ff 15 00 00 00
	00		 call	 DWORD PTR __imp_??1?$CStringT@DV?$StrTraitMFC_DLL@DV?$ChTraitsCRT@D@ATL@@@@@ATL@@QAE@XZ
  0011d	8b 4d f4	 mov	 ecx, DWORD PTR __$EHRec$[ebp]
  00120	64 89 0d 00 00
	00 00		 mov	 DWORD PTR fs:0, ecx
  00127	59		 pop	 ecx
  00128	5f		 pop	 edi
  00129	5e		 pop	 esi
  0012a	8b 4d f0	 mov	 ecx, DWORD PTR __$ArrayPad$[ebp]
  0012d	33 cd		 xor	 ecx, ebp
  0012f	e8 00 00 00 00	 call	 @__security_check_cookie@4
  00134	8b e5		 mov	 esp, ebp
  00136	5d		 pop	 ebp
  00137	c3		 ret	 0
_TEXT	ENDS
;	COMDAT text$x
text$x	SEGMENT
__unwindfunclet$?SaveIniValue@CMiniTickBarDlg@@UAEXXZ$0:
  00000	8d 4d c4	 lea	 ecx, DWORD PTR _strUserDir$[ebp]
  00003	ff 25 00 00 00
	00		 jmp	 DWORD PTR __imp_??1?$CStringT@DV?$StrTraitMFC_DLL@DV?$ChTraitsCRT@D@ATL@@@@@ATL@@QAE@XZ
  00009	cc		 int	 3
  0000a	cc		 int	 3
  0000b	cc		 int	 3
  0000c	cc		 int	 3
  0000d	cc		 int	 3
__ehhandler$?SaveIniValue@CMiniTickBarDlg@@UAEXXZ:
  0000e	90		 npad	 1
  0000f	90		 npad	 1
  00010	8b 54 24 08	 mov	 edx, DWORD PTR [esp+8]
  00014	8d 42 0c	 lea	 eax, DWORD PTR [edx+12]
  00017	8b 4a c0	 mov	 ecx, DWORD PTR [edx-64]
  0001a	33 c8		 xor	 ecx, eax
  0001c	e8 00 00 00 00	 call	 @__security_check_cookie@4
  00021	8b 4a fc	 mov	 ecx, DWORD PTR [edx-4]
  00024	33 c8		 xor	 ecx, eax
  00026	e8 00 00 00 00	 call	 @__security_check_cookie@4
  0002b	b8 00 00 00 00	 mov	 eax, OFFSET __ehfuncinfo$?SaveIniValue@CMiniTickBarDlg@@UAEXXZ
  00030	e9 00 00 00 00	 jmp	 ___CxxFrameHandler3
text$x	ENDS
?SaveIniValue@CMiniTickBarDlg@@UAEXXZ ENDP		; CMiniTickBarDlg::SaveIniValue
; Function compile flags: /Ogtp
; File D:\git\src\IBK\IBK_DRFN\ProjSrc\SrcDrfn\Chart\MULTICHART\MiniTickBarDlg.cpp
; File C:\Program Files (x86)\Microsoft Visual Studio\2019\Community\VC\Tools\MSVC\14.29.30133\atlmfc\include\afxwin2.inl
; File D:\git\src\IBK\IBK_DRFN\ProjSrc\SrcDrfn\Chart\MULTICHART\MiniTickBarDlg.cpp
;	COMDAT ?LoadIniValue@CMiniTickBarDlg@@UAEXXZ
_TEXT	SEGMENT
_bAllDay$ = -84						; size = 4
_nTick$ = -80						; size = 4
_nDate$ = -76						; size = 4
_nMarket$ = -72						; size = 4
_bCheck$ = -68						; size = 4
$T2 = -64						; size = 4
_strUserDir$ = -60					; size = 4
tv617 = -56						; size = 4
_strTitle$3 = -52					; size = 4
_szTemp$ = -48						; size = 20
_szKey$ = -28						; size = 10
__$ArrayPad$ = -16					; size = 4
__$EHRec$ = -12						; size = 12
?LoadIniValue@CMiniTickBarDlg@@UAEXXZ PROC		; CMiniTickBarDlg::LoadIniValue, COMDAT
; _this$ = ecx

; 338  : {

  00000	55		 push	 ebp
  00001	8b ec		 mov	 ebp, esp
  00003	6a ff		 push	 -1
  00005	68 00 00 00 00	 push	 __ehhandler$?LoadIniValue@CMiniTickBarDlg@@UAEXXZ
  0000a	64 a1 00 00 00
	00		 mov	 eax, DWORD PTR fs:0
  00010	50		 push	 eax
  00011	83 ec 48	 sub	 esp, 72			; 00000048H
  00014	a1 00 00 00 00	 mov	 eax, DWORD PTR ___security_cookie
  00019	33 c5		 xor	 eax, ebp
  0001b	89 45 f0	 mov	 DWORD PTR __$ArrayPad$[ebp], eax
  0001e	53		 push	 ebx
  0001f	56		 push	 esi
  00020	57		 push	 edi
  00021	50		 push	 eax
  00022	8d 45 f4	 lea	 eax, DWORD PTR __$EHRec$[ebp]
  00025	64 a3 00 00 00
	00		 mov	 DWORD PTR fs:0, eax
  0002b	8b f9		 mov	 edi, ecx

; 339  : 	CString strUserDir = m_pStdDialog->m_strConfig;

  0002d	8b 87 a8 00 00
	00		 mov	 eax, DWORD PTR [edi+168]
  00033	8d 4d c4	 lea	 ecx, DWORD PTR _strUserDir$[ebp]
  00036	05 a8 07 00 00	 add	 eax, 1960		; 000007a8H
  0003b	50		 push	 eax
  0003c	ff 15 00 00 00
	00		 call	 DWORD PTR __imp_??0?$CStringT@DV?$StrTraitMFC_DLL@DV?$ChTraitsCRT@D@ATL@@@@@ATL@@QAE@ABV01@@Z
  00042	8d 87 50 31 00
	00		 lea	 eax, DWORD PTR [edi+12624]
  00048	c7 45 fc 00 00
	00 00		 mov	 DWORD PTR __$EHRec$[ebp+8], 0

; 340  : 
; 341  : 	char szTemp[20];
; 342  : 	char szKey[10];
; 343  : 
; 344  : 	BOOL bCheck;
; 345  : 	int nMarket;
; 346  : 	int nDate;
; 347  : 	int nTick;
; 348  : 	BOOL bAllDay;
; 349  : 
; 350  : 	for(int i = 0; i < 9; i++)

  0004f	33 db		 xor	 ebx, ebx
  00051	89 45 c8	 mov	 DWORD PTR tv617[ebp], eax
  00054	33 f6		 xor	 esi, esi
$LL4@LoadIniVal:

; 351  : 	{
; 352  : 		::memset(szKey, 0x00, sizeof(szKey));
; 353  : 		::sprintf(szKey, "TickBtn%d", i);

  00056	53		 push	 ebx
  00057	8d 45 e4	 lea	 eax, DWORD PTR _szKey$[ebp]
  0005a	66 c7 45 ec 00
	00		 mov	 WORD PTR _szKey$[ebp+8], 0
  00060	0f 57 c0	 xorps	 xmm0, xmm0
  00063	68 00 00 00 00	 push	 OFFSET ??_C@_09CBLDHOPD@TickBtn?$CFd@
  00068	50		 push	 eax
  00069	66 0f d6 45 e4	 movq	 QWORD PTR _szKey$[ebp], xmm0
  0006e	e8 00 00 00 00	 call	 _sprintf
  00073	83 c4 0c	 add	 esp, 12			; 0000000cH

; 354  : 
; 355  : 		::GetPrivateProfileString("0000", szKey, "", szTemp, sizeof(szTemp), strUserDir);

  00076	8d 45 d0	 lea	 eax, DWORD PTR _szTemp$[ebp]
  00079	ff 75 c4	 push	 DWORD PTR _strUserDir$[ebp]
  0007c	6a 14		 push	 20			; 00000014H
  0007e	50		 push	 eax
  0007f	68 00 00 00 00	 push	 OFFSET ??_C@_00CNPNBAHC@@
  00084	8d 45 e4	 lea	 eax, DWORD PTR _szKey$[ebp]
  00087	50		 push	 eax
  00088	68 00 00 00 00	 push	 OFFSET ??_C@_04JDPKJLKG@0000@
  0008d	ff 15 00 00 00
	00		 call	 DWORD PTR __imp__GetPrivateProfileStringA@24

; 356  : 		if(!::lstrlen(szTemp))

  00093	8d 45 d0	 lea	 eax, DWORD PTR _szTemp$[ebp]
  00096	50		 push	 eax
  00097	ff 15 00 00 00
	00		 call	 DWORD PTR __imp__lstrlenA@4
  0009d	85 c0		 test	 eax, eax
  0009f	0f 84 9f 01 00
	00		 je	 $LN2@LoadIniVal

; 357  : 			continue;
; 358  : 
; 359  : 		::sscanf(szTemp, "%d;%d;%d;%d;%d", &bCheck, &nMarket, &nDate, &nTick, &bAllDay);

  000a5	8d 45 ac	 lea	 eax, DWORD PTR _bAllDay$[ebp]
  000a8	50		 push	 eax
  000a9	8d 45 b0	 lea	 eax, DWORD PTR _nTick$[ebp]
  000ac	50		 push	 eax
  000ad	8d 45 b4	 lea	 eax, DWORD PTR _nDate$[ebp]
  000b0	50		 push	 eax
  000b1	8d 45 b8	 lea	 eax, DWORD PTR _nMarket$[ebp]
  000b4	50		 push	 eax
  000b5	8d 45 bc	 lea	 eax, DWORD PTR _bCheck$[ebp]
  000b8	50		 push	 eax
  000b9	8d 45 d0	 lea	 eax, DWORD PTR _szTemp$[ebp]
  000bc	68 00 00 00 00	 push	 OFFSET ??_C@_0P@DGOJGCL@?$CFd?$DL?$CFd?$DL?$CFd?$DL?$CFd?$DL?$CFd@
  000c1	50		 push	 eax
  000c2	e8 00 00 00 00	 call	 _sscanf

; 360  : 
; 361  : 		m_btn[i].SetCheck(bCheck);

  000c7	8b 4d c8	 mov	 ecx, DWORD PTR tv617[ebp]
  000ca	83 c4 1c	 add	 esp, 28			; 0000001cH
  000cd	ff 75 bc	 push	 DWORD PTR _bCheck$[ebp]
  000d0	e8 00 00 00 00	 call	 ?SetCheck@CILButton@@QAEXH@Z ; CILButton::SetCheck

; 168  : 	m_pSetTick[nIndex].nMarket = nMarket;

  000d5	8b 8f b0 3d 00
	00		 mov	 ecx, DWORD PTR [edi+15792]
  000db	8b 45 b8	 mov	 eax, DWORD PTR _nMarket$[ebp]
  000de	89 44 0e 04	 mov	 DWORD PTR [esi+ecx+4], eax

; 173  : 	m_pSetTick[nIndex].nDate = nDate;

  000e2	8b 8f b0 3d 00
	00		 mov	 ecx, DWORD PTR [edi+15792]
  000e8	8b 45 b4	 mov	 eax, DWORD PTR _nDate$[ebp]
  000eb	89 44 0e 08	 mov	 DWORD PTR [esi+ecx+8], eax

; 178  : 	m_pSetTick[nIndex].nTick = nTick;

  000ef	8b 8f b0 3d 00
	00		 mov	 ecx, DWORD PTR [edi+15792]
  000f5	8b 45 b0	 mov	 eax, DWORD PTR _nTick$[ebp]
  000f8	89 44 0e 0c	 mov	 DWORD PTR [esi+ecx+12], eax

; 183  : 	m_pSetTick[nIndex].bAllDay = bAllDay;

  000fc	8b 8f b0 3d 00
	00		 mov	 ecx, DWORD PTR [edi+15792]
  00102	8b 45 ac	 mov	 eax, DWORD PTR _bAllDay$[ebp]
  00105	89 44 0e 10	 mov	 DWORD PTR [esi+ecx+16], eax

; 188  : 	m_pSetTick[nIndex].strTitle.Empty();

  00109	8b 8f b0 3d 00
	00		 mov	 ecx, DWORD PTR [edi+15792]
  0010f	03 ce		 add	 ecx, esi
  00111	ff 15 00 00 00
	00		 call	 DWORD PTR __imp_?Empty@?$CSimpleStringT@D$00@ATL@@QAEXXZ

; 189  : 
; 190  : 	if(m_pSetTick[nIndex].nMarket == CMasterTypeInfo::UPJONG_CHART)

  00117	8b 8f b0 3d 00
	00		 mov	 ecx, DWORD PTR [edi+15792]
  0011d	03 ce		 add	 ecx, esi
  0011f	8b 41 04	 mov	 eax, DWORD PTR [ecx+4]
  00122	83 f8 01	 cmp	 eax, 1
  00125	75 07		 jne	 SHORT $LN27@LoadIniVal

; 191  : 		m_pSetTick[nIndex].strTitle = _T("");

  00127	68 00 00 00 00	 push	 OFFSET ??_C@_02OKJFFJKM@?A?$LO@
  0012c	eb 0a		 jmp	 SHORT $LN67@LoadIniVal
$LN27@LoadIniVal:

; 192  : 	else if(m_pSetTick[nIndex].nMarket == CMasterTypeInfo::FUTOPT_CHART)

  0012e	83 f8 02	 cmp	 eax, 2
  00131	75 0b		 jne	 SHORT $LN29@LoadIniVal

; 193  : 		m_pSetTick[nIndex].strTitle = _T("");

  00133	68 00 00 00 00	 push	 OFFSET ??_C@_02DBCELOGA@?$LM?$LB@
$LN67@LoadIniVal:

; 194  : 
; 195  : 	CString strTitle;

  00138	ff 15 00 00 00
	00		 call	 DWORD PTR __imp_??4?$CStringT@DV?$StrTraitMFC_DLL@DV?$ChTraitsCRT@D@ATL@@@@@ATL@@QAEAAV01@PBD@Z
$LN29@LoadIniVal:
  0013e	8d 4d cc	 lea	 ecx, DWORD PTR _strTitle$3[ebp]
  00141	ff 15 00 00 00
	00		 call	 DWORD PTR __imp_??0?$CStringT@DV?$StrTraitMFC_DLL@DV?$ChTraitsCRT@D@ATL@@@@@ATL@@QAE@XZ

; 196  : 	switch(m_pSetTick[nIndex].nDate)

  00147	8b 8f b0 3d 00
	00		 mov	 ecx, DWORD PTR [edi+15792]
  0014d	03 ce		 add	 ecx, esi
  0014f	c6 45 fc 01	 mov	 BYTE PTR __$EHRec$[ebp+8], 1
  00153	8b 41 08	 mov	 eax, DWORD PTR [ecx+8]
  00156	83 f8 04	 cmp	 eax, 4
  00159	0f 87 ab 00 00
	00		 ja	 $LN25@LoadIniVal
  0015f	ff 24 85 00 00
	00 00		 jmp	 DWORD PTR $LN65@LoadIniVal[eax*4]
$LN30@LoadIniVal:

; 197  : 	{
; 198  : 	case 0:
; 199  : 		strTitle.Format(_T("%s%d"), m_pSetTick[nIndex].strTitle, m_pSetTick[nIndex].nTick);

  00166	ff 71 0c	 push	 DWORD PTR [ecx+12]
  00169	8d 45 cc	 lea	 eax, DWORD PTR _strTitle$3[ebp]
  0016c	ff 31		 push	 DWORD PTR [ecx]
  0016e	68 00 00 00 00	 push	 OFFSET ??_C@_04HGGBINEM@?$CFs?$CFd@
  00173	50		 push	 eax
  00174	ff 15 00 00 00
	00		 call	 DWORD PTR __imp_?Format@?$CStringT@DV?$StrTraitMFC_DLL@DV?$ChTraitsCRT@D@ATL@@@@@ATL@@QAAXPBDZZ

; 200  : 		m_pSetTick[nIndex].strTitle = strTitle;

  0017a	8b 8f b0 3d 00
	00		 mov	 ecx, DWORD PTR [edi+15792]
  00180	8d 45 cc	 lea	 eax, DWORD PTR _strTitle$3[ebp]
  00183	83 c4 10	 add	 esp, 16			; 00000010H
  00186	03 ce		 add	 ecx, esi
  00188	50		 push	 eax
  00189	ff 15 00 00 00
	00		 call	 DWORD PTR __imp_??4?$CStringT@DV?$StrTraitMFC_DLL@DV?$ChTraitsCRT@D@ATL@@@@@ATL@@QAEAAV01@ABV01@@Z

; 201  : 
; 202  : 		if(m_pSetTick[nIndex].nMarket == CMasterTypeInfo::STOCK_CHART)

  0018f	8b 87 b0 3d 00
	00		 mov	 eax, DWORD PTR [edi+15792]
  00195	8d 4d cc	 lea	 ecx, DWORD PTR _strTitle$3[ebp]
  00198	83 7c 30 04 00	 cmp	 DWORD PTR [eax+esi+4], 0
  0019d	75 07		 jne	 SHORT $LN31@LoadIniVal

; 203  : 			strTitle = _T("");

  0019f	68 00 00 00 00	 push	 OFFSET ??_C@_02MEPHBMOK@?F?$LN@
  001a4	eb 5e		 jmp	 SHORT $LN68@LoadIniVal
$LN31@LoadIniVal:

; 224  : 		break;
; 225  : 	}
; 226  : 
; 227  : 	m_pSetTick[nIndex].strTitle += strTitle;

  001a6	ff 15 00 00 00
	00		 call	 DWORD PTR __imp_?Empty@?$CSimpleStringT@D$00@ATL@@QAEXXZ
  001ac	eb 5c		 jmp	 SHORT $LN25@LoadIniVal
$LN33@LoadIniVal:

; 204  : 		else
; 205  : 			strTitle.Empty();
; 206  : 		break;
; 207  : 	case 1:
; 208  : 		strTitle.Format(_T("%s%d"), m_pSetTick[nIndex].strTitle, m_pSetTick[nIndex].nTick);

  001ae	ff 71 0c	 push	 DWORD PTR [ecx+12]
  001b1	8d 45 cc	 lea	 eax, DWORD PTR _strTitle$3[ebp]
  001b4	ff 31		 push	 DWORD PTR [ecx]
  001b6	68 00 00 00 00	 push	 OFFSET ??_C@_04HGGBINEM@?$CFs?$CFd@
  001bb	50		 push	 eax
  001bc	ff 15 00 00 00
	00		 call	 DWORD PTR __imp_?Format@?$CStringT@DV?$StrTraitMFC_DLL@DV?$ChTraitsCRT@D@ATL@@@@@ATL@@QAAXPBDZZ

; 209  : 		m_pSetTick[nIndex].strTitle = strTitle;

  001c2	8b 8f b0 3d 00
	00		 mov	 ecx, DWORD PTR [edi+15792]
  001c8	8d 45 cc	 lea	 eax, DWORD PTR _strTitle$3[ebp]
  001cb	83 c4 10	 add	 esp, 16			; 00000010H
  001ce	03 ce		 add	 ecx, esi
  001d0	50		 push	 eax
  001d1	ff 15 00 00 00
	00		 call	 DWORD PTR __imp_??4?$CStringT@DV?$StrTraitMFC_DLL@DV?$ChTraitsCRT@D@ATL@@@@@ATL@@QAEAAV01@ABV01@@Z

; 210  : 
; 211  : 		if(m_pSetTick[nIndex].nMarket == CMasterTypeInfo::STOCK_CHART)

  001d7	8b 87 b0 3d 00
	00		 mov	 eax, DWORD PTR [edi+15792]
  001dd	8d 4d cc	 lea	 ecx, DWORD PTR _strTitle$3[ebp]
  001e0	83 7c 30 04 00	 cmp	 DWORD PTR [eax+esi+4], 0
  001e5	75 bf		 jne	 SHORT $LN31@LoadIniVal

; 212  : 			strTitle = _T("");

  001e7	68 00 00 00 00	 push	 OFFSET ??_C@_02EJEPJIDE@?$LK?P@
  001ec	eb 16		 jmp	 SHORT $LN68@LoadIniVal
$LN36@LoadIniVal:

; 213  : 		else
; 214  : 			strTitle.Empty();
; 215  : 		break;
; 216  : 	case 2:
; 217  : 		strTitle = _T("");

  001ee	68 00 00 00 00	 push	 OFFSET ??_C@_02NNHDHLCM@?$MA?O@

; 218  : 		break;

  001f3	eb 0c		 jmp	 SHORT $LN69@LoadIniVal
$LN37@LoadIniVal:

; 219  : 	case 3:
; 220  : 		strTitle = _T("");

  001f5	68 00 00 00 00	 push	 OFFSET ??_C@_02EHLBLIAD@?A?V@

; 221  : 		break;

  001fa	eb 05		 jmp	 SHORT $LN69@LoadIniVal
$LN38@LoadIniVal:

; 222  : 	case 4:
; 223  : 		strTitle = _T("");

  001fc	68 00 00 00 00	 push	 OFFSET ??_C@_02LMCMFDE@?$LP?y@
$LN69@LoadIniVal:

; 224  : 		break;
; 225  : 	}
; 226  : 
; 227  : 	m_pSetTick[nIndex].strTitle += strTitle;

  00201	8d 4d cc	 lea	 ecx, DWORD PTR _strTitle$3[ebp]
$LN68@LoadIniVal:
  00204	ff 15 00 00 00
	00		 call	 DWORD PTR __imp_??4?$CStringT@DV?$StrTraitMFC_DLL@DV?$ChTraitsCRT@D@ATL@@@@@ATL@@QAEAAV01@PBD@Z
$LN25@LoadIniVal:
  0020a	8b 8f b0 3d 00
	00		 mov	 ecx, DWORD PTR [edi+15792]
  00210	8d 45 cc	 lea	 eax, DWORD PTR _strTitle$3[ebp]
  00213	50		 push	 eax
  00214	03 ce		 add	 ecx, esi
  00216	ff 15 00 00 00
	00		 call	 DWORD PTR __imp_??Y?$CStringT@DV?$StrTraitMFC_DLL@DV?$ChTraitsCRT@D@ATL@@@@@ATL@@QAEAAV01@ABV?$CSimpleStringT@D$00@1@@Z

; 228  : 		
; 229  : 	return m_pSetTick[nIndex].strTitle;

  0021c	8b 87 b0 3d 00
	00		 mov	 eax, DWORD PTR [edi+15792]
  00222	8d 4d c0	 lea	 ecx, DWORD PTR $T2[ebp]
  00225	03 c6		 add	 eax, esi
  00227	50		 push	 eax
  00228	ff 15 00 00 00
	00		 call	 DWORD PTR __imp_??0?$CStringT@DV?$StrTraitMFC_DLL@DV?$ChTraitsCRT@D@ATL@@@@@ATL@@QAE@ABV01@@Z
  0022e	8d 4d cc	 lea	 ecx, DWORD PTR _strTitle$3[ebp]
  00231	c6 45 fc 00	 mov	 BYTE PTR __$EHRec$[ebp+8], 0
  00235	ff 15 00 00 00
	00		 call	 DWORD PTR __imp_??1?$CStringT@DV?$StrTraitMFC_DLL@DV?$ChTraitsCRT@D@ATL@@@@@ATL@@QAE@XZ

; 362  : 		m_SetTickBtn.SetMarket(i, nMarket);
; 363  : 		m_SetTickBtn.SetDateIndex(i, nDate);
; 364  : 		m_SetTickBtn.SetTick(i, nTick);
; 365  : 		m_SetTickBtn.SetAllDay(i, bAllDay);
; 366  : 
; 367  : 		m_SetTickBtn.MakeTickButtonTitle(i);

  0023b	8d 4d c0	 lea	 ecx, DWORD PTR $T2[ebp]
  0023e	ff 15 00 00 00
	00		 call	 DWORD PTR __imp_??1?$CStringT@DV?$StrTraitMFC_DLL@DV?$ChTraitsCRT@D@ATL@@@@@ATL@@QAE@XZ
$LN2@LoadIniVal:

; 340  : 
; 341  : 	char szTemp[20];
; 342  : 	char szKey[10];
; 343  : 
; 344  : 	BOOL bCheck;
; 345  : 	int nMarket;
; 346  : 	int nDate;
; 347  : 	int nTick;
; 348  : 	BOOL bAllDay;
; 349  : 
; 350  : 	for(int i = 0; i < 9; i++)

  00244	81 45 c8 60 01
	00 00		 add	 DWORD PTR tv617[ebp], 352 ; 00000160H
  0024b	83 c6 14	 add	 esi, 20			; 00000014H
  0024e	43		 inc	 ebx
  0024f	81 fe b4 00 00
	00		 cmp	 esi, 180		; 000000b4H
  00255	0f 8c fb fd ff
	ff		 jl	 $LL4@LoadIniVal

; 368  : 	}
; 369  : 
; 370  : 	for(int nPos=0;nPos<5;nPos++)

  0025b	33 f6		 xor	 esi, esi
  0025d	8d 9f 78 2b 00
	00		 lea	 ebx, DWORD PTR [edi+11128]
$LL7@LoadIniVal:

; 371  : 	{
; 372  : 		sprintf(szTemp,"%d",nPos);

  00263	56		 push	 esi
  00264	8d 45 d0	 lea	 eax, DWORD PTR _szTemp$[ebp]
  00267	68 00 00 00 00	 push	 OFFSET ??_C@_02DPKJAMEF@?$CFd@
  0026c	50		 push	 eax
  0026d	e8 00 00 00 00	 call	 _sprintf
  00272	83 c4 0c	 add	 esp, 12			; 0000000cH

; 373  : 		m_lCntInView[nPos] = ::GetPrivateProfileInt("CntInView",szTemp,m_lCntInView[nPos], strUserDir);

  00275	8d 45 d0	 lea	 eax, DWORD PTR _szTemp$[ebp]
  00278	ff 75 c4	 push	 DWORD PTR _strUserDir$[ebp]
  0027b	ff 33		 push	 DWORD PTR [ebx]
  0027d	50		 push	 eax
  0027e	68 00 00 00 00	 push	 OFFSET ??_C@_09OJDBNEOO@CntInView@
  00283	ff 15 00 00 00
	00		 call	 DWORD PTR __imp__GetPrivateProfileIntA@16
  00289	46		 inc	 esi
  0028a	89 03		 mov	 DWORD PTR [ebx], eax
  0028c	8d 5b 04	 lea	 ebx, DWORD PTR [ebx+4]
  0028f	83 fe 05	 cmp	 esi, 5
  00292	7c cf		 jl	 SHORT $LL7@LoadIniVal
; File C:\Program Files (x86)\Microsoft Visual Studio\2019\Community\VC\Tools\MSVC\14.29.30133\atlmfc\include\afxwin2.inl

; 213  : 	{ ASSERT(::IsWindow(m_hWnd)); return CWnd::FromHandle(::GetParent(m_hWnd)); }

  00294	ff 77 20	 push	 DWORD PTR [edi+32]
  00297	ff 15 00 00 00
	00		 call	 DWORD PTR __imp__GetParent@4
  0029d	50		 push	 eax
  0029e	e8 00 00 00 00	 call	 ?FromHandle@CWnd@@SGPAV1@PAUHWND__@@@Z ; CWnd::FromHandle
  002a3	33 f6		 xor	 esi, esi
  002a5	8d 9f 50 31 00
	00		 lea	 ebx, DWORD PTR [edi+12624]
  002ab	0f 1f 44 00 00	 npad	 5
$LL50@LoadIniVal:
; File D:\git\src\IBK\IBK_DRFN\ProjSrc\SrcDrfn\Chart\MULTICHART\MiniTickBarDlg.cpp

; 100  : 		m_pBtn[i].FP_vSetImage( pIL_W20H20, 80, 82, TRUE, m_pSetTick[i].strTitle, TRUE);

  002b0	8b 87 b0 3d 00
	00		 mov	 eax, DWORD PTR [edi+15792]
  002b6	6a ff		 push	 -1
  002b8	6a ff		 push	 -1
  002ba	6a 01		 push	 1
  002bc	51		 push	 ecx
  002bd	03 c6		 add	 eax, esi
  002bf	8b cc		 mov	 ecx, esp
  002c1	50		 push	 eax
  002c2	ff 15 00 00 00
	00		 call	 DWORD PTR __imp_??0?$CStringT@DV?$StrTraitMFC_DLL@DV?$ChTraitsCRT@D@ATL@@@@@ATL@@QAE@ABV01@@Z
  002c8	6a 01		 push	 1
  002ca	6a 52		 push	 82			; 00000052H
  002cc	6a 50		 push	 80			; 00000050H
  002ce	68 00 00 00 00	 push	 OFFSET ?m_ImgList_W20H20@CStdDialog@@2VCImageList@@A ; CStdDialog::m_ImgList_W20H20
  002d3	8b cb		 mov	 ecx, ebx
  002d5	e8 00 00 00 00	 call	 ?FP_vSetImage@CILButton@@QAEXPAVCImageList@@HHHV?$CStringT@DV?$StrTraitMFC_DLL@DV?$ChTraitsCRT@D@ATL@@@@@ATL@@HHH@Z ; CILButton::FP_vSetImage
  002da	83 c6 14	 add	 esi, 20			; 00000014H
  002dd	81 c3 60 01 00
	00		 add	 ebx, 352		; 00000160H
  002e3	81 fe b4 00 00
	00		 cmp	 esi, 180		; 000000b4H
  002e9	7c c5		 jl	 SHORT $LL50@LoadIniVal

; 374  : 	}
; 375  : 
; 376  : 	CImageList* pIL_W20H20 = &(((CStdDialog*)GetParent())->m_ImgList_W20H20);
; 377  : 	if(pIL_W20H20 == NULL) return;
; 378  : 
; 379  : 	m_SetTickBtn.SetButton(*&m_btn, pIL_W20H20);
; 380  : }

  002eb	8d 4d c4	 lea	 ecx, DWORD PTR _strUserDir$[ebp]
  002ee	ff 15 00 00 00
	00		 call	 DWORD PTR __imp_??1?$CStringT@DV?$StrTraitMFC_DLL@DV?$ChTraitsCRT@D@ATL@@@@@ATL@@QAE@XZ
  002f4	8b 4d f4	 mov	 ecx, DWORD PTR __$EHRec$[ebp]
  002f7	64 89 0d 00 00
	00 00		 mov	 DWORD PTR fs:0, ecx
  002fe	59		 pop	 ecx
  002ff	5f		 pop	 edi
  00300	5e		 pop	 esi
  00301	5b		 pop	 ebx
  00302	8b 4d f0	 mov	 ecx, DWORD PTR __$ArrayPad$[ebp]
  00305	33 cd		 xor	 ecx, ebp
  00307	e8 00 00 00 00	 call	 @__security_check_cookie@4
  0030c	8b e5		 mov	 esp, ebp
  0030e	5d		 pop	 ebp
  0030f	c3		 ret	 0
$LN65@LoadIniVal:
  00310	00 00 00 00	 DD	 $LN30@LoadIniVal
  00314	00 00 00 00	 DD	 $LN33@LoadIniVal
  00318	00 00 00 00	 DD	 $LN36@LoadIniVal
  0031c	00 00 00 00	 DD	 $LN37@LoadIniVal
  00320	00 00 00 00	 DD	 $LN38@LoadIniVal
_TEXT	ENDS
;	COMDAT text$x
text$x	SEGMENT
__unwindfunclet$?LoadIniValue@CMiniTickBarDlg@@UAEXXZ$0:
  00000	8d 4d c4	 lea	 ecx, DWORD PTR _strUserDir$[ebp]
  00003	ff 25 00 00 00
	00		 jmp	 DWORD PTR __imp_??1?$CStringT@DV?$StrTraitMFC_DLL@DV?$ChTraitsCRT@D@ATL@@@@@ATL@@QAE@XZ
__unwindfunclet$?LoadIniValue@CMiniTickBarDlg@@UAEXXZ$2:
  00009	8d 4d cc	 lea	 ecx, DWORD PTR _strTitle$3[ebp]
  0000c	ff 25 00 00 00
	00		 jmp	 DWORD PTR __imp_??1?$CStringT@DV?$StrTraitMFC_DLL@DV?$ChTraitsCRT@D@ATL@@@@@ATL@@QAE@XZ
  00012	cc		 int	 3
  00013	cc		 int	 3
  00014	cc		 int	 3
  00015	cc		 int	 3
  00016	cc		 int	 3
__ehhandler$?LoadIniValue@CMiniTickBarDlg@@UAEXXZ:
  00017	90		 npad	 1
  00018	90		 npad	 1
  00019	8b 54 24 08	 mov	 edx, DWORD PTR [esp+8]
  0001d	8d 42 0c	 lea	 eax, DWORD PTR [edx+12]
  00020	8b 4a a8	 mov	 ecx, DWORD PTR [edx-88]
  00023	33 c8		 xor	 ecx, eax
  00025	e8 00 00 00 00	 call	 @__security_check_cookie@4
  0002a	8b 4a fc	 mov	 ecx, DWORD PTR [edx-4]
  0002d	33 c8		 xor	 ecx, eax
  0002f	e8 00 00 00 00	 call	 @__security_check_cookie@4
  00034	b8 00 00 00 00	 mov	 eax, OFFSET __ehfuncinfo$?LoadIniValue@CMiniTickBarDlg@@UAEXXZ
  00039	e9 00 00 00 00	 jmp	 ___CxxFrameHandler3
text$x	ENDS
?LoadIniValue@CMiniTickBarDlg@@UAEXXZ ENDP		; CMiniTickBarDlg::LoadIniValue
; Function compile flags: /Ogtp
; File D:\git\src\IBK\IBK_DRFN\ProjSrc\SrcDrfn\Chart\MULTICHART\MiniTickBarDlg.cpp
; File C:\Program Files (x86)\Microsoft Visual Studio\2019\Community\VC\Tools\MSVC\14.29.30133\atlmfc\include\afxwin2.inl
; File D:\git\src\IBK\IBK_DRFN\ProjSrc\SrcDrfn\Chart\MULTICHART\MiniTickBarDlg.cpp
; File C:\Program Files (x86)\Microsoft Visual Studio\2019\Community\VC\Tools\MSVC\14.29.30133\atlmfc\include\afxwin2.inl
; File C:\Program Files (x86)\Microsoft Visual Studio\2019\Community\VC\Tools\MSVC\14.29.30133\atlmfc\include\atltypes.h
; File D:\git\src\IBK\IBK_DRFN\ProjSrc\SrcDrfn\Chart\MULTICHART\MiniTickBarDlg.cpp
; File C:\Program Files (x86)\Microsoft Visual Studio\2019\Community\VC\Tools\MSVC\14.29.30133\atlmfc\include\afxwin2.inl
; File D:\git\src\IBK\IBK_DRFN\ProjSrc\SrcDrfn\Chart\MULTICHART\MiniTickBarDlg.cpp
; File C:\Program Files (x86)\Microsoft Visual Studio\2019\Community\VC\Tools\MSVC\14.29.30133\atlmfc\include\afxwin2.inl
; File D:\git\src\IBK\IBK_DRFN\ProjSrc\SrcDrfn\Chart\MULTICHART\MiniTickBarDlg.cpp
; File C:\Program Files (x86)\Microsoft Visual Studio\2019\Community\VC\Tools\MSVC\14.29.30133\atlmfc\include\afxwin2.inl
; File D:\git\src\IBK\IBK_DRFN\ProjSrc\SrcDrfn\Chart\MULTICHART\MiniTickBarDlg.cpp
; File C:\Program Files (x86)\Microsoft Visual Studio\2019\Community\VC\Tools\MSVC\14.29.30133\atlmfc\include\afxwin2.inl
; File D:\git\src\IBK\IBK_DRFN\ProjSrc\SrcDrfn\Chart\MULTICHART\MiniTickBarDlg.cpp
; File C:\Program Files (x86)\Microsoft Visual Studio\2019\Community\VC\Tools\MSVC\14.29.30133\atlmfc\include\afxwin2.inl
; File D:\git\src\IBK\IBK_DRFN\ProjSrc\SrcDrfn\Chart\MULTICHART\MiniTickBarDlg.cpp
;	COMDAT ?Init@CMiniTickBarDlg@@UAEXXZ
_TEXT	SEGMENT
_rectComp$1 = -20					; size = 16
__$ArrayPad$ = -4					; size = 4
?Init@CMiniTickBarDlg@@UAEXXZ PROC			; CMiniTickBarDlg::Init, COMDAT
; _this$ = ecx

; 284  : {

  00000	55		 push	 ebp
  00001	8b ec		 mov	 ebp, esp
  00003	83 ec 18	 sub	 esp, 24			; 00000018H
  00006	a1 00 00 00 00	 mov	 eax, DWORD PTR ___security_cookie
  0000b	33 c5		 xor	 eax, ebp
  0000d	89 45 fc	 mov	 DWORD PTR __$ArrayPad$[ebp], eax
  00010	53		 push	 ebx
  00011	8b d9		 mov	 ebx, ecx
  00013	0f 57 c0	 xorps	 xmm0, xmm0
  00016	56		 push	 esi
  00017	57		 push	 edi
; File C:\Program Files (x86)\Microsoft Visual Studio\2019\Community\VC\Tools\MSVC\14.29.30133\atlmfc\include\afxwin2.inl

; 84   : 	{ ASSERT(::IsWindow(m_hWnd)); ::GetWindowRect(m_hWnd, lpRect); }

  00018	8d 4d ec	 lea	 ecx, DWORD PTR _rectComp$1[ebp]
; File D:\git\src\IBK\IBK_DRFN\ProjSrc\SrcDrfn\Chart\MULTICHART\MiniTickBarDlg.cpp

; 285  : 	m_pCodeInput->SetUseFutureOption(true);	//@Solomon

  0001b	8b 83 c8 23 00
	00		 mov	 eax, DWORD PTR [ebx+9160]
; File C:\Program Files (x86)\Microsoft Visual Studio\2019\Community\VC\Tools\MSVC\14.29.30133\atlmfc\include\afxwin2.inl

; 84   : 	{ ASSERT(::IsWindow(m_hWnd)); ::GetWindowRect(m_hWnd, lpRect); }

  00021	51		 push	 ecx
; File C:\Program Files (x86)\Microsoft Visual Studio\2019\Community\VC\Tools\MSVC\14.29.30133\atlmfc\include\atltypes.h

; 528  : 	left = 0;

  00022	0f 11 45 ec	 movups	 XMMWORD PTR _rectComp$1[ebp], xmm0
; File D:\git\src\IBK\IBK_DRFN\ProjSrc\SrcDrfn\Chart\MULTICHART\MiniTickBarDlg.cpp

; 285  : 	m_pCodeInput->SetUseFutureOption(true);	//@Solomon

  00026	c6 80 a1 00 00
	00 01		 mov	 BYTE PTR [eax+161], 1

; 286  : 
; 287  : 	//m_stJongName.SetStaticColor(RGB(132,132,132), RGB(255,255,255) , RGB(0,0,0));
; 288  : 	{
; 289  : 		CRect rectComp;
; 290  : 		m_pCodeInput->GetWindowRect(&rectComp);

  0002d	8b 83 c8 23 00
	00		 mov	 eax, DWORD PTR [ebx+9160]
; File C:\Program Files (x86)\Microsoft Visual Studio\2019\Community\VC\Tools\MSVC\14.29.30133\atlmfc\include\afxwin2.inl

; 84   : 	{ ASSERT(::IsWindow(m_hWnd)); ::GetWindowRect(m_hWnd, lpRect); }

  00033	ff 70 20	 push	 DWORD PTR [eax+32]
  00036	ff 15 00 00 00
	00		 call	 DWORD PTR __imp__GetWindowRect@8
; File D:\git\src\IBK\IBK_DRFN\ProjSrc\SrcDrfn\Chart\MULTICHART\MiniTickBarDlg.cpp

; 291  : 		ScreenToClient(rectComp);

  0003c	8d 45 ec	 lea	 eax, DWORD PTR _rectComp$1[ebp]
  0003f	8b cb		 mov	 ecx, ebx
  00041	50		 push	 eax
  00042	e8 00 00 00 00	 call	 ?ScreenToClient@CWnd@@QBEXPAUtagRECT@@@Z ; CWnd::ScreenToClient

; 292  : 
; 293  : 		m_stJongName.SetWindowPos(NULL, rectComp.right, rectComp.top, 63, 20, SWP_NOZORDER);

  00047	6a 04		 push	 4
  00049	6a 14		 push	 20			; 00000014H
  0004b	6a 3f		 push	 63			; 0000003fH
  0004d	ff 75 f0	 push	 DWORD PTR _rectComp$1[ebp+4]
  00050	8d 8b c8 14 00
	00		 lea	 ecx, DWORD PTR [ebx+5320]
  00056	ff 75 f4	 push	 DWORD PTR _rectComp$1[ebp+8]
  00059	6a 00		 push	 0
  0005b	e8 00 00 00 00	 call	 ?SetWindowPos@CWnd@@QAEHPBV1@HHHHI@Z ; CWnd::SetWindowPos
; File C:\Program Files (x86)\Microsoft Visual Studio\2019\Community\VC\Tools\MSVC\14.29.30133\atlmfc\include\afxwin2.inl

; 213  : 	{ ASSERT(::IsWindow(m_hWnd)); return CWnd::FromHandle(::GetParent(m_hWnd)); }

  00060	ff 73 20	 push	 DWORD PTR [ebx+32]
  00063	8b 3d 00 00 00
	00		 mov	 edi, DWORD PTR __imp__GetParent@4
  00069	ff d7		 call	 edi
  0006b	50		 push	 eax
  0006c	e8 00 00 00 00	 call	 ?FromHandle@CWnd@@SGPAV1@PAUHWND__@@@Z ; CWnd::FromHandle
; File D:\git\src\IBK\IBK_DRFN\ProjSrc\SrcDrfn\Chart\MULTICHART\MiniTickBarDlg.cpp

; 299  : 	m_btnMoveToLeftRight.FP_vSetToolTipText("");

  00071	51		 push	 ecx
  00072	8b cc		 mov	 ecx, esp
  00074	68 00 00 00 00	 push	 OFFSET ??_C@_04KAHAMCDL@?$LE?$NN?$LB?b@
  00079	ff 15 00 00 00
	00		 call	 DWORD PTR __imp_??0?$CStringT@DV?$StrTraitMFC_DLL@DV?$ChTraitsCRT@D@ATL@@@@@ATL@@QAE@PBD@Z
  0007f	8d 8b 90 2e 00
	00		 lea	 ecx, DWORD PTR [ebx+11920]
  00085	e8 00 00 00 00	 call	 ?FP_vSetToolTipText@CILButton@@QAEXV?$CStringT@DV?$StrTraitMFC_DLL@DV?$ChTraitsCRT@D@ATL@@@@@ATL@@@Z ; CILButton::FP_vSetToolTipText

; 300  : 	m_btnMoveToLeftRight.SetCheck(0);

  0008a	6a 00		 push	 0
  0008c	8d 8b 90 2e 00
	00		 lea	 ecx, DWORD PTR [ebx+11920]
  00092	e8 00 00 00 00	 call	 ?SetCheck@CILButton@@QAEXH@Z ; CILButton::SetCheck

; 301  : 	m_btnMoveToLeftRight.FP_vSetImage( pIL_W20H20, 60, 62);

  00097	6a ff		 push	 -1
  00099	6a ff		 push	 -1
  0009b	6a 00		 push	 0
  0009d	51		 push	 ecx
  0009e	8b cc		 mov	 ecx, esp
  000a0	68 00 00 00 00	 push	 OFFSET ??_C@_00CNPNBAHC@@
  000a5	ff 15 00 00 00
	00		 call	 DWORD PTR __imp_??0?$CStringT@DV?$StrTraitMFC_DLL@DV?$ChTraitsCRT@D@ATL@@@@@ATL@@QAE@PBD@Z
  000ab	6a 00		 push	 0
  000ad	6a 3e		 push	 62			; 0000003eH
  000af	6a 3c		 push	 60			; 0000003cH
  000b1	68 00 00 00 00	 push	 OFFSET ?m_ImgList_W20H20@CStdDialog@@2VCImageList@@A ; CStdDialog::m_ImgList_W20H20
  000b6	8d 8b 90 2e 00
	00		 lea	 ecx, DWORD PTR [ebx+11920]
  000bc	e8 00 00 00 00	 call	 ?FP_vSetImage@CILButton@@QAEXPAVCImageList@@HHHV?$CStringT@DV?$StrTraitMFC_DLL@DV?$ChTraitsCRT@D@ATL@@@@@ATL@@HHH@Z ; CILButton::FP_vSetImage

; 302  : 	
; 303  : 	m_SetTickBtn.Init();

  000c1	8d 8b b0 3d 00
	00		 lea	 ecx, DWORD PTR [ebx+15792]
  000c7	e8 00 00 00 00	 call	 ?Init@CSetTickButton@@QAEXXZ ; CSetTickButton::Init

; 304  : 	m_SetTickBtn.SetButton(*&m_btn, pIL_W20H20);

  000cc	68 00 00 00 00	 push	 OFFSET ?m_ImgList_W20H20@CStdDialog@@2VCImageList@@A ; CStdDialog::m_ImgList_W20H20
  000d1	8d 83 50 31 00
	00		 lea	 eax, DWORD PTR [ebx+12624]
  000d7	50		 push	 eax
  000d8	8d 8b b0 3d 00
	00		 lea	 ecx, DWORD PTR [ebx+15792]
  000de	e8 00 00 00 00	 call	 ?SetButton@CSetTickButton@@QAEXPAVCILButton@@PAVCImageList@@@Z ; CSetTickButton::SetButton

; 305  : 
; 306  : 	m_btn[6].SetCheck(TRUE);

  000e3	6a 01		 push	 1
  000e5	8d 8b 90 39 00
	00		 lea	 ecx, DWORD PTR [ebx+14736]
  000eb	e8 00 00 00 00	 call	 ?SetCheck@CILButton@@QAEXH@Z ; CILButton::SetCheck

; 307  : 	
; 308  : 	m_btnConfig.FP_vSetImage( pIL_W20H20, 100, 102);

  000f0	6a ff		 push	 -1
  000f2	6a ff		 push	 -1
  000f4	6a 00		 push	 0
  000f6	51		 push	 ecx
  000f7	8b cc		 mov	 ecx, esp
  000f9	68 00 00 00 00	 push	 OFFSET ??_C@_00CNPNBAHC@@
  000fe	ff 15 00 00 00
	00		 call	 DWORD PTR __imp_??0?$CStringT@DV?$StrTraitMFC_DLL@DV?$ChTraitsCRT@D@ATL@@@@@ATL@@QAE@PBD@Z
  00104	6a 00		 push	 0
  00106	6a 66		 push	 102			; 00000066H
  00108	6a 64		 push	 100			; 00000064H
  0010a	68 00 00 00 00	 push	 OFFSET ?m_ImgList_W20H20@CStdDialog@@2VCImageList@@A ; CStdDialog::m_ImgList_W20H20
  0010f	8d 8b f0 2f 00
	00		 lea	 ecx, DWORD PTR [ebx+12272]
  00115	e8 00 00 00 00	 call	 ?FP_vSetImage@CILButton@@QAEXPAVCImageList@@HHHV?$CStringT@DV?$StrTraitMFC_DLL@DV?$ChTraitsCRT@D@ATL@@@@@ATL@@HHH@Z ; CILButton::FP_vSetImage
; File C:\Program Files (x86)\Microsoft Visual Studio\2019\Community\VC\Tools\MSVC\14.29.30133\atlmfc\include\afxwin2.inl

; 213  : 	{ ASSERT(::IsWindow(m_hWnd)); return CWnd::FromHandle(::GetParent(m_hWnd)); }

  0011a	ff 73 20	 push	 DWORD PTR [ebx+32]
  0011d	ff d7		 call	 edi
  0011f	50		 push	 eax
  00120	e8 00 00 00 00	 call	 ?FromHandle@CWnd@@SGPAV1@PAUHWND__@@@Z ; CWnd::FromHandle
; File D:\git\src\IBK\IBK_DRFN\ProjSrc\SrcDrfn\Chart\MULTICHART\MiniTickBarDlg.cpp

; 310  : 	m_pIL_W46H20 = &(((CStdDialog*)GetParent())->m_ImgList_W46H20);

  00125	c7 83 c4 00 00
	00 00 00 00 00	 mov	 DWORD PTR [ebx+196], OFFSET ?m_ImgList_W46H20@CStdDialog@@2VCImageList@@A ; CStdDialog::m_ImgList_W46H20

; 311  : 	m_btnInitail.FP_vSetImage(m_pIL_W46H20, 32, 34, TRUE, "", FALSE);

  0012f	6a ff		 push	 -1
  00131	6a ff		 push	 -1
  00133	6a 00		 push	 0
  00135	51		 push	 ecx
  00136	8b cc		 mov	 ecx, esp
  00138	68 00 00 00 00	 push	 OFFSET ??_C@_06PKNBDFAO@?C?J?$LB?b?H?$KN@
  0013d	ff 15 00 00 00
	00		 call	 DWORD PTR __imp_??0?$CStringT@DV?$StrTraitMFC_DLL@DV?$ChTraitsCRT@D@ATL@@@@@ATL@@QAE@PBD@Z
  00143	6a 01		 push	 1
  00145	6a 22		 push	 34			; 00000022H
  00147	6a 20		 push	 32			; 00000020H
  00149	ff b3 c4 00 00
	00		 push	 DWORD PTR [ebx+196]
  0014f	8d 8b 30 2d 00
	00		 lea	 ecx, DWORD PTR [ebx+11568]
  00155	e8 00 00 00 00	 call	 ?FP_vSetImage@CILButton@@QAEXPAVCImageList@@HHHV?$CStringT@DV?$StrTraitMFC_DLL@DV?$ChTraitsCRT@D@ATL@@@@@ATL@@HHH@Z ; CILButton::FP_vSetImage

; 312  : 	m_btnInitail.FP_vSetToolTipText("");

  0015a	51		 push	 ecx
  0015b	8b cc		 mov	 ecx, esp
  0015d	68 00 00 00 00	 push	 OFFSET ??_C@_0P@NJHNOOOB@?$MA?$PM?C?$LM?B?w?F?$KO?C?J?$LB?b?H?$KN@
  00162	ff 15 00 00 00
	00		 call	 DWORD PTR __imp_??0?$CStringT@DV?$StrTraitMFC_DLL@DV?$ChTraitsCRT@D@ATL@@@@@ATL@@QAE@PBD@Z
  00168	8d 8b 30 2d 00
	00		 lea	 ecx, DWORD PTR [ebx+11568]
  0016e	e8 00 00 00 00	 call	 ?FP_vSetToolTipText@CILButton@@QAEXV?$CStringT@DV?$StrTraitMFC_DLL@DV?$ChTraitsCRT@D@ATL@@@@@ATL@@@Z ; CILButton::FP_vSetToolTipText

; 313  : 
; 314  : 	LoadValue();

  00173	8b cb		 mov	 ecx, ebx
  00175	e8 00 00 00 00	 call	 ?LoadValue@CInputBarDlg@@IAEXXZ ; CInputBarDlg::LoadValue
; File C:\Program Files (x86)\Microsoft Visual Studio\2019\Community\VC\Tools\MSVC\14.29.30133\atlmfc\include\afxwin2.inl

; 213  : 	{ ASSERT(::IsWindow(m_hWnd)); return CWnd::FromHandle(::GetParent(m_hWnd)); }

  0017a	ff 73 20	 push	 DWORD PTR [ebx+32]
  0017d	ff d7		 call	 edi
  0017f	50		 push	 eax
  00180	e8 00 00 00 00	 call	 ?FromHandle@CWnd@@SGPAV1@PAUHWND__@@@Z ; CWnd::FromHandle
; File D:\git\src\IBK\IBK_DRFN\ProjSrc\SrcDrfn\Chart\MULTICHART\MiniTickBarDlg.cpp

; 316  : 	if(((CStdDialog*)GetParent())->IsSimpleChart())

  00185	83 b8 0c 13 00
	00 00		 cmp	 DWORD PTR [eax+4876], 0
  0018c	74 09		 je	 SHORT $LN3@Init

; 317  : 		SetAllPosition(1);

  0018e	6a 01		 push	 1
  00190	8b cb		 mov	 ecx, ebx
  00192	e8 00 00 00 00	 call	 ?SetAllPosition@CMiniTickBarDlg@@QAEXH@Z ; CMiniTickBarDlg::SetAllPosition
$LN3@Init:
; File C:\Program Files (x86)\Microsoft Visual Studio\2019\Community\VC\Tools\MSVC\14.29.30133\atlmfc\include\afxwin2.inl

; 941  : 	{ ASSERT(::IsWindow(m_hWnd)); ::SendMessage(m_hWnd, EM_SETLIMITTEXT, nMax, 0); }

  00197	8b 35 00 00 00
	00		 mov	 esi, DWORD PTR __imp__SendMessageA@16
  0019d	6a 00		 push	 0
  0019f	6a 03		 push	 3
  001a1	68 c5 00 00 00	 push	 197			; 000000c5H
  001a6	ff b3 10 1f 00
	00		 push	 DWORD PTR [ebx+7952]
  001ac	ff d6		 call	 esi
  001ae	6a 00		 push	 0
  001b0	6a 03		 push	 3
  001b2	68 c5 00 00 00	 push	 197			; 000000c5H
  001b7	ff b3 98 1f 00
	00		 push	 DWORD PTR [ebx+8088]
  001bd	ff d6		 call	 esi
; File D:\git\src\IBK\IBK_DRFN\ProjSrc\SrcDrfn\Chart\MULTICHART\MiniTickBarDlg.cpp

; 335  : }

  001bf	8b 4d fc	 mov	 ecx, DWORD PTR __$ArrayPad$[ebp]
  001c2	5f		 pop	 edi
  001c3	5e		 pop	 esi
  001c4	33 cd		 xor	 ecx, ebp
  001c6	5b		 pop	 ebx
  001c7	e8 00 00 00 00	 call	 @__security_check_cookie@4
  001cc	8b e5		 mov	 esp, ebp
  001ce	5d		 pop	 ebp
  001cf	c3		 ret	 0
?Init@CMiniTickBarDlg@@UAEXXZ ENDP			; CMiniTickBarDlg::Init
_TEXT	ENDS
; Function compile flags: /Ogtp
; File D:\git\src\IBK\IBK_DRFN\ProjSrc\SrcDrfn\Chart\MULTICHART\MiniTickBarDlg.cpp
;	COMDAT ??0CMiniTickBarDlg@@QAE@PAVCWnd@@@Z
_TEXT	SEGMENT
_this$ = -16						; size = 4
__$EHRec$ = -12						; size = 12
_pParent$ = 8						; size = 4
??0CMiniTickBarDlg@@QAE@PAVCWnd@@@Z PROC		; CMiniTickBarDlg::CMiniTickBarDlg, COMDAT
; _this$ = ecx

; 237  : {

  00000	55		 push	 ebp
  00001	8b ec		 mov	 ebp, esp
  00003	6a ff		 push	 -1
  00005	68 00 00 00 00	 push	 __ehhandler$??0CMiniTickBarDlg@@QAE@PAVCWnd@@@Z
  0000a	64 a1 00 00 00
	00		 mov	 eax, DWORD PTR fs:0
  00010	50		 push	 eax
  00011	51		 push	 ecx
  00012	56		 push	 esi
  00013	57		 push	 edi
  00014	a1 00 00 00 00	 mov	 eax, DWORD PTR ___security_cookie
  00019	33 c5		 xor	 eax, ebp
  0001b	50		 push	 eax
  0001c	8d 45 f4	 lea	 eax, DWORD PTR __$EHRec$[ebp]
  0001f	64 a3 00 00 00
	00		 mov	 DWORD PTR fs:0, eax
  00025	8b f1		 mov	 esi, ecx
  00027	89 75 f0	 mov	 DWORD PTR _this$[ebp], esi

; 24   : }
; 25   : 
; 26   : CSetTickButton::~CSetTickButton()
; 27   : {
; 28   : 	if(m_pSetTick)
; 29   : 		delete [] m_pSetTick;
; 30   : }
; 31   : 
; 32   : CSetTickButton& CSetTickButton::operator = (CSetTickButton& right)
; 33   : {
; 34   : 	for(int i = 0; i < 9; i++)
; 35   : 		m_pSetTick[i] = right.m_pSetTick[i];
; 36   : 
; 37   : 	return *this;
; 38   : }
; 39   : 
; 40   : void CSetTickButton::Init()
; 41   : {
; 42   : 	m_pSetTick[0].strTitle = _T("1");
; 43   : 	m_pSetTick[0].nMarket = 0;
; 44   : 	m_pSetTick[0].nDate = 0;
; 45   : 	m_pSetTick[0].nTick = 1;
; 46   : 	m_pSetTick[0].bAllDay = TRUE;
; 47   : 
; 48   : 	m_pSetTick[1].strTitle = _T("1");
; 49   : 	m_pSetTick[1].nMarket = 0;
; 50   : 	m_pSetTick[1].nDate = 1;
; 51   : 	m_pSetTick[1].nTick = 1;
; 52   : 	m_pSetTick[1].bAllDay = TRUE;
; 53   : 
; 54   : 	m_pSetTick[2].strTitle = _T("3");
; 55   : 	m_pSetTick[2].nMarket = 0;
; 56   : 	m_pSetTick[2].nDate = 1;
; 57   : 	m_pSetTick[2].nTick = 3;
; 58   : 	m_pSetTick[2].bAllDay = TRUE;
; 59   : 
; 60   : 	m_pSetTick[3].strTitle = _T("5");
; 61   : 	m_pSetTick[3].nMarket = 0;
; 62   : 	m_pSetTick[3].nDate = 1;
; 63   : 	m_pSetTick[3].nTick = 5;
; 64   : 	m_pSetTick[3].bAllDay = TRUE;
; 65   : 
; 66   : 	m_pSetTick[4].strTitle = _T("10");
; 67   : 	m_pSetTick[4].nMarket = 0;
; 68   : 	m_pSetTick[4].nDate = 1;
; 69   : 	m_pSetTick[4].nTick = 10;
; 70   : 	m_pSetTick[4].bAllDay = TRUE;
; 71   : 
; 72   : 	m_pSetTick[5].strTitle = _T("30");
; 73   : 	m_pSetTick[5].nMarket = 0;
; 74   : 	m_pSetTick[5].nDate = 1;
; 75   : 	m_pSetTick[5].nTick = 30;
; 76   : 	m_pSetTick[5].bAllDay = TRUE;
; 77   : 
; 78   : 	m_pSetTick[6].strTitle = _T("");
; 79   : 	m_pSetTick[6].nMarket = 0;
; 80   : 	m_pSetTick[6].nDate = 2;
; 81   : 	m_pSetTick[6].nTick = 1;
; 82   : 	m_pSetTick[6].bAllDay = TRUE;
; 83   : 
; 84   : 	m_pSetTick[7].strTitle = _T("1");
; 85   : 	m_pSetTick[7].nMarket = 2;
; 86   : 	m_pSetTick[7].nDate = 0;
; 87   : 	m_pSetTick[7].nTick = 1;
; 88   : 	m_pSetTick[7].bAllDay = TRUE;
; 89   : 
; 90   : 	m_pSetTick[8].strTitle = _T("1");
; 91   : 	m_pSetTick[8].nMarket = 1;
; 92   : 	m_pSetTick[8].nDate = 0;
; 93   : 	m_pSetTick[8].nTick = 1;
; 94   : 	m_pSetTick[8].bAllDay = TRUE;
; 95   : }
; 96   : 
; 97   : void CSetTickButton::SetButton(CILButton* m_pBtn, CImageList* pIL_W20H20)
; 98   : {
; 99   : 	for(int i = 0; i < DEF_SIZE; i++)
; 100  : 		m_pBtn[i].FP_vSetImage( pIL_W20H20, 80, 82, TRUE, m_pSetTick[i].strTitle, TRUE);
; 101  : }
; 102  : 
; 103  : CString CSetTickButton::GetTitle(int nIndex)
; 104  : {
; 105  : 	return m_pSetTick[nIndex].strTitle;
; 106  : }
; 107  : 
; 108  : int CSetTickButton::GetMarket(int nIndex)
; 109  : {
; 110  : 	int nMarket = m_pSetTick[nIndex].nMarket;
; 111  : 	switch(nMarket)
; 112  : 	{
; 113  : 	case 0:
; 114  : 		return CMasterTypeInfo::STOCK_CHART;
; 115  : 	case 1:
; 116  : 		return CMasterTypeInfo::UPJONG_CHART;
; 117  : 	case 2:
; 118  : 		return CMasterTypeInfo::FUTOPT_CHART;
; 119  : 	}
; 120  : 
; 121  : 	return CMasterTypeInfo::STOCK_CHART;
; 122  : }
; 123  : 
; 124  : char CSetTickButton::GetDate(int nIndex)
; 125  : {
; 126  : 	int nDate = m_pSetTick[nIndex].nDate;
; 127  : 	switch(nDate)
; 128  : 	{
; 129  : 	case 0:
; 130  : 		return TICK_DATA_CHART;
; 131  : 	case 1:
; 132  : 		return MIN_DATA_CHART;
; 133  : 	case 2:
; 134  : 		return DAY_DATA_CHART;
; 135  : 	case 3:
; 136  : 		return WEEK_DATA_CHART;
; 137  : 	case 4:
; 138  : 		return MONTH_DATA_CHART;
; 139  : 	case 5:
; 140  : 		return YEAR_DATA_CHART;
; 141  : 	}
; 142  : 
; 143  : 	return '0';
; 144  : }
; 145  : 
; 146  : int CSetTickButton::GetDateIndex(int nIndex)
; 147  : {
; 148  : 	return m_pSetTick[nIndex].nDate;
; 149  : }
; 150  : 
; 151  : int CSetTickButton::GetTick(int nIndex)
; 152  : {
; 153  : 	return m_pSetTick[nIndex].nTick;
; 154  : }
; 155  : 
; 156  : BOOL CSetTickButton::GetAllDay(int nIndex)
; 157  : {
; 158  : 	return m_pSetTick[nIndex].bAllDay;
; 159  : }
; 160  : 
; 161  : void CSetTickButton::SetTitle(int nIndex, CString strTitle)
; 162  : {
; 163  : 	m_pSetTick[nIndex].strTitle = strTitle;
; 164  : }
; 165  : 
; 166  : void CSetTickButton::SetMarket(int nIndex, int nMarket)
; 167  : {
; 168  : 	m_pSetTick[nIndex].nMarket = nMarket;
; 169  : }
; 170  : 
; 171  : void CSetTickButton::SetDateIndex(int nIndex, int nDate)
; 172  : {
; 173  : 	m_pSetTick[nIndex].nDate = nDate;
; 174  : }
; 175  : 
; 176  : void CSetTickButton::SetTick(int nIndex, int nTick)
; 177  : {
; 178  : 	m_pSetTick[nIndex].nTick = nTick;
; 179  : }
; 180  : 
; 181  : void CSetTickButton::SetAllDay(int nIndex, BOOL bAllDay)
; 182  : {
; 183  : 	m_pSetTick[nIndex].bAllDay = bAllDay;
; 184  : }
; 185  : 
; 186  : CString CSetTickButton::MakeTickButtonTitle(int nIndex)
; 187  : {
; 188  : 	m_pSetTick[nIndex].strTitle.Empty();
; 189  : 
; 190  : 	if(m_pSetTick[nIndex].nMarket == CMasterTypeInfo::UPJONG_CHART)
; 191  : 		m_pSetTick[nIndex].strTitle = _T("");
; 192  : 	else if(m_pSetTick[nIndex].nMarket == CMasterTypeInfo::FUTOPT_CHART)
; 193  : 		m_pSetTick[nIndex].strTitle = _T("");
; 194  : 
; 195  : 	CString strTitle;
; 196  : 	switch(m_pSetTick[nIndex].nDate)
; 197  : 	{
; 198  : 	case 0:
; 199  : 		strTitle.Format(_T("%s%d"), m_pSetTick[nIndex].strTitle, m_pSetTick[nIndex].nTick);
; 200  : 		m_pSetTick[nIndex].strTitle = strTitle;
; 201  : 
; 202  : 		if(m_pSetTick[nIndex].nMarket == CMasterTypeInfo::STOCK_CHART)
; 203  : 			strTitle = _T("");
; 204  : 		else
; 205  : 			strTitle.Empty();
; 206  : 		break;
; 207  : 	case 1:
; 208  : 		strTitle.Format(_T("%s%d"), m_pSetTick[nIndex].strTitle, m_pSetTick[nIndex].nTick);
; 209  : 		m_pSetTick[nIndex].strTitle = strTitle;
; 210  : 
; 211  : 		if(m_pSetTick[nIndex].nMarket == CMasterTypeInfo::STOCK_CHART)
; 212  : 			strTitle = _T("");
; 213  : 		else
; 214  : 			strTitle.Empty();
; 215  : 		break;
; 216  : 	case 2:
; 217  : 		strTitle = _T("");
; 218  : 		break;
; 219  : 	case 3:
; 220  : 		strTitle = _T("");
; 221  : 		break;
; 222  : 	case 4:
; 223  : 		strTitle = _T("");
; 224  : 		break;
; 225  : 	}
; 226  : 
; 227  : 	m_pSetTick[nIndex].strTitle += strTitle;
; 228  : 		
; 229  : 	return m_pSetTick[nIndex].strTitle;
; 230  : }
; 231  : //////////////////////////////////////////////////////////////////////
; 232  : // Construction/Destruction
; 233  : //////////////////////////////////////////////////////////////////////
; 234  : 
; 235  : CMiniTickBarDlg::CMiniTickBarDlg(CWnd* pParent /*=NULL*/)
; 236  : 	: CInputBarDlg(pParent)

  0002a	ff 75 08	 push	 DWORD PTR _pParent$[ebp]
  0002d	e8 00 00 00 00	 call	 ??0CInputBarDlg@@QAE@PAVCWnd@@@Z ; CInputBarDlg::CInputBarDlg

; 237  : {

  00032	8d 8e 30 2d 00
	00		 lea	 ecx, DWORD PTR [esi+11568]
  00038	c7 45 fc 00 00
	00 00		 mov	 DWORD PTR __$EHRec$[ebp+8], 0
  0003f	c7 06 00 00 00
	00		 mov	 DWORD PTR [esi], OFFSET ??_7CMiniTickBarDlg@@6B@
  00045	e8 00 00 00 00	 call	 ??0CILButton@@QAE@XZ	; CILButton::CILButton
  0004a	8d 8e 90 2e 00
	00		 lea	 ecx, DWORD PTR [esi+11920]
  00050	c6 45 fc 01	 mov	 BYTE PTR __$EHRec$[ebp+8], 1
  00054	e8 00 00 00 00	 call	 ??0CILButton@@QAE@XZ	; CILButton::CILButton
  00059	8d 8e f0 2f 00
	00		 lea	 ecx, DWORD PTR [esi+12272]
  0005f	c6 45 fc 02	 mov	 BYTE PTR __$EHRec$[ebp+8], 2
  00063	e8 00 00 00 00	 call	 ??0CILButton@@QAE@XZ	; CILButton::CILButton
  00068	68 00 00 00 00	 push	 OFFSET ??1CILButton@@UAE@XZ ; CILButton::~CILButton
  0006d	68 00 00 00 00	 push	 OFFSET ??0CILButton@@QAE@XZ ; CILButton::CILButton
  00072	6a 09		 push	 9
  00074	68 60 01 00 00	 push	 352			; 00000160H
  00079	8d 86 50 31 00
	00		 lea	 eax, DWORD PTR [esi+12624]
  0007f	c6 45 fc 03	 mov	 BYTE PTR __$EHRec$[ebp+8], 3
  00083	50		 push	 eax
  00084	e8 00 00 00 00	 call	 ??_L@YGXPAXIIP6EX0@Z1@Z

; 23   : 	m_pSetTick = new ST_SETTICK[DEF_SIZE];

  00089	68 b8 00 00 00	 push	 184			; 000000b8H

; 237  : {

  0008e	c6 45 fc 04	 mov	 BYTE PTR __$EHRec$[ebp+8], 4

; 23   : 	m_pSetTick = new ST_SETTICK[DEF_SIZE];

  00092	e8 00 00 00 00	 call	 ??_U@YAPAXI@Z		; operator new[]
  00097	83 c4 04	 add	 esp, 4
  0009a	85 c0		 test	 eax, eax
  0009c	74 1f		 je	 SHORT $LN11@CMiniTickB
  0009e	68 00 00 00 00	 push	 OFFSET ??1_ST_SETTICK@@QAE@XZ
  000a3	68 00 00 00 00	 push	 OFFSET ??0_ST_SETTICK@@QAE@XZ
  000a8	6a 09		 push	 9
  000aa	8d 78 04	 lea	 edi, DWORD PTR [eax+4]
  000ad	c7 00 09 00 00
	00		 mov	 DWORD PTR [eax], 9
  000b3	6a 14		 push	 20			; 00000014H
  000b5	57		 push	 edi
  000b6	e8 00 00 00 00	 call	 ??_L@YGXPAXIIP6EX0@Z1@Z
  000bb	eb 02		 jmp	 SHORT $LN12@CMiniTickB
$LN11@CMiniTickB:
  000bd	33 ff		 xor	 edi, edi
$LN12@CMiniTickB:
  000bf	89 be b0 3d 00
	00		 mov	 DWORD PTR [esi+15792], edi

; 238  : 	//{{AFX_DATA_INIT(CMiniTickBarDlg)
; 239  : 		// NOTE: the ClassWizard will add member initialization here
; 240  : 	//}}AFX_DATA_INIT
; 241  : 	m_bIsMiniBar = TRUE;
; 242  : 	m_nMoveDirection = 1;
; 243  : }

  000c5	8b c6		 mov	 eax, esi
  000c7	c7 86 c4 2b 00
	00 01 00 00 00	 mov	 DWORD PTR [esi+11204], 1
  000d1	c7 86 28 2d 00
	00 01 00 00 00	 mov	 DWORD PTR [esi+11560], 1
  000db	8b 4d f4	 mov	 ecx, DWORD PTR __$EHRec$[ebp]
  000de	64 89 0d 00 00
	00 00		 mov	 DWORD PTR fs:0, ecx
  000e5	59		 pop	 ecx
  000e6	5f		 pop	 edi
  000e7	5e		 pop	 esi
  000e8	8b e5		 mov	 esp, ebp
  000ea	5d		 pop	 ebp
  000eb	c2 04 00	 ret	 4
_TEXT	ENDS
;	COMDAT text$x
text$x	SEGMENT
__unwindfunclet$??0CMiniTickBarDlg@@QAE@PAVCWnd@@@Z$0:
  00000	8b 4d f0	 mov	 ecx, DWORD PTR _this$[ebp]
  00003	e9 00 00 00 00	 jmp	 ??1CInputBarDlg@@UAE@XZ
__unwindfunclet$??0CMiniTickBarDlg@@QAE@PAVCWnd@@@Z$1:
  00008	8b 4d f0	 mov	 ecx, DWORD PTR _this$[ebp]
  0000b	81 c1 30 2d 00
	00		 add	 ecx, 11568		; 00002d30H
  00011	e9 00 00 00 00	 jmp	 ??1CILButton@@UAE@XZ	; CILButton::~CILButton
__unwindfunclet$??0CMiniTickBarDlg@@QAE@PAVCWnd@@@Z$2:
  00016	8b 4d f0	 mov	 ecx, DWORD PTR _this$[ebp]
  00019	81 c1 90 2e 00
	00		 add	 ecx, 11920		; 00002e90H
  0001f	e9 00 00 00 00	 jmp	 ??1CILButton@@UAE@XZ	; CILButton::~CILButton
__unwindfunclet$??0CMiniTickBarDlg@@QAE@PAVCWnd@@@Z$3:
  00024	8b 4d f0	 mov	 ecx, DWORD PTR _this$[ebp]
  00027	81 c1 f0 2f 00
	00		 add	 ecx, 12272		; 00002ff0H
  0002d	e9 00 00 00 00	 jmp	 ??1CILButton@@UAE@XZ	; CILButton::~CILButton
__unwindfunclet$??0CMiniTickBarDlg@@QAE@PAVCWnd@@@Z$4:
  00032	68 00 00 00 00	 push	 OFFSET ??1CILButton@@UAE@XZ ; CILButton::~CILButton
  00037	6a 09		 push	 9
  00039	68 60 01 00 00	 push	 352			; 00000160H
  0003e	8b 45 f0	 mov	 eax, DWORD PTR _this$[ebp]
  00041	05 50 31 00 00	 add	 eax, 12624		; 00003150H
  00046	50		 push	 eax
  00047	e8 00 00 00 00	 call	 ??_M@YGXPAXIIP6EX0@Z@Z
  0004c	c3		 ret	 0
  0004d	cc		 int	 3
  0004e	cc		 int	 3
  0004f	cc		 int	 3
  00050	cc		 int	 3
  00051	cc		 int	 3
__ehhandler$??0CMiniTickBarDlg@@QAE@PAVCWnd@@@Z:
  00052	90		 npad	 1
  00053	90		 npad	 1
  00054	8b 54 24 08	 mov	 edx, DWORD PTR [esp+8]
  00058	8d 42 0c	 lea	 eax, DWORD PTR [edx+12]
  0005b	8b 4a f0	 mov	 ecx, DWORD PTR [edx-16]
  0005e	33 c8		 xor	 ecx, eax
  00060	e8 00 00 00 00	 call	 @__security_check_cookie@4
  00065	b8 00 00 00 00	 mov	 eax, OFFSET __ehfuncinfo$??0CMiniTickBarDlg@@QAE@PAVCWnd@@@Z
  0006a	e9 00 00 00 00	 jmp	 ___CxxFrameHandler3
text$x	ENDS
??0CMiniTickBarDlg@@QAE@PAVCWnd@@@Z ENDP		; CMiniTickBarDlg::CMiniTickBarDlg
; Function compile flags: /Ogtp
; File D:\git\src\IBK\IBK_DRFN\ProjSrc\SrcDrfn\Chart\MULTICHART\MiniTickBarDlg.cpp
;	COMDAT ?MakeTickButtonTitle@CSetTickButton@@QAE?AV?$CStringT@DV?$StrTraitMFC_DLL@DV?$ChTraitsCRT@D@ATL@@@@@ATL@@H@Z
_TEXT	SEGMENT
__$EHRec$ = -12						; size = 12
___$ReturnUdt$ = 8					; size = 4
_strTitle$ = 12						; size = 4
_nIndex$ = 12						; size = 4
?MakeTickButtonTitle@CSetTickButton@@QAE?AV?$CStringT@DV?$StrTraitMFC_DLL@DV?$ChTraitsCRT@D@ATL@@@@@ATL@@H@Z PROC ; CSetTickButton::MakeTickButtonTitle, COMDAT
; _this$ = ecx

; 187  : {

  00000	55		 push	 ebp
  00001	8b ec		 mov	 ebp, esp
  00003	6a ff		 push	 -1
  00005	68 00 00 00 00	 push	 __ehhandler$?MakeTickButtonTitle@CSetTickButton@@QAE?AV?$CStringT@DV?$StrTraitMFC_DLL@DV?$ChTraitsCRT@D@ATL@@@@@ATL@@H@Z
  0000a	64 a1 00 00 00
	00		 mov	 eax, DWORD PTR fs:0
  00010	50		 push	 eax
  00011	56		 push	 esi
  00012	57		 push	 edi
  00013	a1 00 00 00 00	 mov	 eax, DWORD PTR ___security_cookie
  00018	33 c5		 xor	 eax, ebp
  0001a	50		 push	 eax
  0001b	8d 45 f4	 lea	 eax, DWORD PTR __$EHRec$[ebp]
  0001e	64 a3 00 00 00
	00		 mov	 DWORD PTR fs:0, eax
  00024	8b f9		 mov	 edi, ecx

; 188  : 	m_pSetTick[nIndex].strTitle.Empty();

  00026	8b 45 0c	 mov	 eax, DWORD PTR _nIndex$[ebp]
  00029	8b 0f		 mov	 ecx, DWORD PTR [edi]
  0002b	8d 34 80	 lea	 esi, DWORD PTR [eax+eax*4]
  0002e	c1 e6 02	 shl	 esi, 2
  00031	03 ce		 add	 ecx, esi
  00033	ff 15 00 00 00
	00		 call	 DWORD PTR __imp_?Empty@?$CSimpleStringT@D$00@ATL@@QAEXXZ

; 189  : 
; 190  : 	if(m_pSetTick[nIndex].nMarket == CMasterTypeInfo::UPJONG_CHART)

  00039	8b 0f		 mov	 ecx, DWORD PTR [edi]
  0003b	03 ce		 add	 ecx, esi
  0003d	8b 41 04	 mov	 eax, DWORD PTR [ecx+4]
  00040	83 f8 01	 cmp	 eax, 1
  00043	75 07		 jne	 SHORT $LN4@MakeTickBu

; 191  : 		m_pSetTick[nIndex].strTitle = _T("");

  00045	68 00 00 00 00	 push	 OFFSET ??_C@_02OKJFFJKM@?A?$LO@
  0004a	eb 0a		 jmp	 SHORT $LN22@MakeTickBu
$LN4@MakeTickBu:

; 192  : 	else if(m_pSetTick[nIndex].nMarket == CMasterTypeInfo::FUTOPT_CHART)

  0004c	83 f8 02	 cmp	 eax, 2
  0004f	75 0b		 jne	 SHORT $LN6@MakeTickBu

; 193  : 		m_pSetTick[nIndex].strTitle = _T("");

  00051	68 00 00 00 00	 push	 OFFSET ??_C@_02DBCELOGA@?$LM?$LB@
$LN22@MakeTickBu:

; 194  : 
; 195  : 	CString strTitle;

  00056	ff 15 00 00 00
	00		 call	 DWORD PTR __imp_??4?$CStringT@DV?$StrTraitMFC_DLL@DV?$ChTraitsCRT@D@ATL@@@@@ATL@@QAEAAV01@PBD@Z
$LN6@MakeTickBu:
  0005c	8d 4d 0c	 lea	 ecx, DWORD PTR _strTitle$[ebp]
  0005f	ff 15 00 00 00
	00		 call	 DWORD PTR __imp_??0?$CStringT@DV?$StrTraitMFC_DLL@DV?$ChTraitsCRT@D@ATL@@@@@ATL@@QAE@XZ

; 196  : 	switch(m_pSetTick[nIndex].nDate)

  00065	8b 07		 mov	 eax, DWORD PTR [edi]
  00067	03 c6		 add	 eax, esi
  00069	c7 45 fc 00 00
	00 00		 mov	 DWORD PTR __$EHRec$[ebp+8], 0
  00070	8b 48 08	 mov	 ecx, DWORD PTR [eax+8]
  00073	83 f9 04	 cmp	 ecx, 4
  00076	0f 87 9b 00 00
	00		 ja	 $LN2@MakeTickBu
  0007c	ff 24 8d 00 00
	00 00		 jmp	 DWORD PTR $LN20@MakeTickBu[ecx*4]
$LN7@MakeTickBu:

; 197  : 	{
; 198  : 	case 0:
; 199  : 		strTitle.Format(_T("%s%d"), m_pSetTick[nIndex].strTitle, m_pSetTick[nIndex].nTick);

  00083	ff 70 0c	 push	 DWORD PTR [eax+12]
  00086	ff 30		 push	 DWORD PTR [eax]
  00088	8d 45 0c	 lea	 eax, DWORD PTR _strTitle$[ebp]
  0008b	68 00 00 00 00	 push	 OFFSET ??_C@_04HGGBINEM@?$CFs?$CFd@
  00090	50		 push	 eax
  00091	ff 15 00 00 00
	00		 call	 DWORD PTR __imp_?Format@?$CStringT@DV?$StrTraitMFC_DLL@DV?$ChTraitsCRT@D@ATL@@@@@ATL@@QAAXPBDZZ

; 200  : 		m_pSetTick[nIndex].strTitle = strTitle;

  00097	8b 0f		 mov	 ecx, DWORD PTR [edi]
  00099	8d 45 0c	 lea	 eax, DWORD PTR _strTitle$[ebp]
  0009c	83 c4 10	 add	 esp, 16			; 00000010H
  0009f	03 ce		 add	 ecx, esi
  000a1	50		 push	 eax
  000a2	ff 15 00 00 00
	00		 call	 DWORD PTR __imp_??4?$CStringT@DV?$StrTraitMFC_DLL@DV?$ChTraitsCRT@D@ATL@@@@@ATL@@QAEAAV01@ABV01@@Z

; 201  : 
; 202  : 		if(m_pSetTick[nIndex].nMarket == CMasterTypeInfo::STOCK_CHART)

  000a8	8b 07		 mov	 eax, DWORD PTR [edi]
  000aa	8d 4d 0c	 lea	 ecx, DWORD PTR _strTitle$[ebp]
  000ad	83 7c 06 04 00	 cmp	 DWORD PTR [esi+eax+4], 0
  000b2	75 07		 jne	 SHORT $LN8@MakeTickBu

; 203  : 			strTitle = _T("");

  000b4	68 00 00 00 00	 push	 OFFSET ??_C@_02MEPHBMOK@?F?$LN@
  000b9	eb 56		 jmp	 SHORT $LN23@MakeTickBu
$LN8@MakeTickBu:

; 224  : 		break;
; 225  : 	}
; 226  : 
; 227  : 	m_pSetTick[nIndex].strTitle += strTitle;

  000bb	ff 15 00 00 00
	00		 call	 DWORD PTR __imp_?Empty@?$CSimpleStringT@D$00@ATL@@QAEXXZ
  000c1	eb 54		 jmp	 SHORT $LN2@MakeTickBu
$LN10@MakeTickBu:

; 204  : 		else
; 205  : 			strTitle.Empty();
; 206  : 		break;
; 207  : 	case 1:
; 208  : 		strTitle.Format(_T("%s%d"), m_pSetTick[nIndex].strTitle, m_pSetTick[nIndex].nTick);

  000c3	ff 70 0c	 push	 DWORD PTR [eax+12]
  000c6	ff 30		 push	 DWORD PTR [eax]
  000c8	8d 45 0c	 lea	 eax, DWORD PTR _strTitle$[ebp]
  000cb	68 00 00 00 00	 push	 OFFSET ??_C@_04HGGBINEM@?$CFs?$CFd@
  000d0	50		 push	 eax
  000d1	ff 15 00 00 00
	00		 call	 DWORD PTR __imp_?Format@?$CStringT@DV?$StrTraitMFC_DLL@DV?$ChTraitsCRT@D@ATL@@@@@ATL@@QAAXPBDZZ

; 209  : 		m_pSetTick[nIndex].strTitle = strTitle;

  000d7	8b 0f		 mov	 ecx, DWORD PTR [edi]
  000d9	8d 45 0c	 lea	 eax, DWORD PTR _strTitle$[ebp]
  000dc	83 c4 10	 add	 esp, 16			; 00000010H
  000df	03 ce		 add	 ecx, esi
  000e1	50		 push	 eax
  000e2	ff 15 00 00 00
	00		 call	 DWORD PTR __imp_??4?$CStringT@DV?$StrTraitMFC_DLL@DV?$ChTraitsCRT@D@ATL@@@@@ATL@@QAEAAV01@ABV01@@Z

; 210  : 
; 211  : 		if(m_pSetTick[nIndex].nMarket == CMasterTypeInfo::STOCK_CHART)

  000e8	8b 07		 mov	 eax, DWORD PTR [edi]
  000ea	8d 4d 0c	 lea	 ecx, DWORD PTR _strTitle$[ebp]
  000ed	83 7c 06 04 00	 cmp	 DWORD PTR [esi+eax+4], 0
  000f2	75 c7		 jne	 SHORT $LN8@MakeTickBu

; 212  : 			strTitle = _T("");

  000f4	68 00 00 00 00	 push	 OFFSET ??_C@_02EJEPJIDE@?$LK?P@
  000f9	eb 16		 jmp	 SHORT $LN23@MakeTickBu
$LN13@MakeTickBu:

; 213  : 		else
; 214  : 			strTitle.Empty();
; 215  : 		break;
; 216  : 	case 2:
; 217  : 		strTitle = _T("");

  000fb	68 00 00 00 00	 push	 OFFSET ??_C@_02NNHDHLCM@?$MA?O@

; 218  : 		break;

  00100	eb 0c		 jmp	 SHORT $LN24@MakeTickBu
$LN14@MakeTickBu:

; 219  : 	case 3:
; 220  : 		strTitle = _T("");

  00102	68 00 00 00 00	 push	 OFFSET ??_C@_02EHLBLIAD@?A?V@

; 221  : 		break;

  00107	eb 05		 jmp	 SHORT $LN24@MakeTickBu
$LN15@MakeTickBu:

; 222  : 	case 4:
; 223  : 		strTitle = _T("");

  00109	68 00 00 00 00	 push	 OFFSET ??_C@_02LMCMFDE@?$LP?y@
$LN24@MakeTickBu:

; 224  : 		break;
; 225  : 	}
; 226  : 
; 227  : 	m_pSetTick[nIndex].strTitle += strTitle;

  0010e	8d 4d 0c	 lea	 ecx, DWORD PTR _strTitle$[ebp]
$LN23@MakeTickBu:
  00111	ff 15 00 00 00
	00		 call	 DWORD PTR __imp_??4?$CStringT@DV?$StrTraitMFC_DLL@DV?$ChTraitsCRT@D@ATL@@@@@ATL@@QAEAAV01@PBD@Z
$LN2@MakeTickBu:
  00117	8b 0f		 mov	 ecx, DWORD PTR [edi]
  00119	8d 45 0c	 lea	 eax, DWORD PTR _strTitle$[ebp]
  0011c	50		 push	 eax
  0011d	03 ce		 add	 ecx, esi
  0011f	ff 15 00 00 00
	00		 call	 DWORD PTR __imp_??Y?$CStringT@DV?$StrTraitMFC_DLL@DV?$ChTraitsCRT@D@ATL@@@@@ATL@@QAEAAV01@ABV?$CSimpleStringT@D$00@1@@Z

; 228  : 		
; 229  : 	return m_pSetTick[nIndex].strTitle;

  00125	8b 07		 mov	 eax, DWORD PTR [edi]
  00127	8b 4d 08	 mov	 ecx, DWORD PTR ___$ReturnUdt$[ebp]
  0012a	03 c6		 add	 eax, esi
  0012c	50		 push	 eax
  0012d	ff 15 00 00 00
	00		 call	 DWORD PTR __imp_??0?$CStringT@DV?$StrTraitMFC_DLL@DV?$ChTraitsCRT@D@ATL@@@@@ATL@@QAE@ABV01@@Z
  00133	8d 4d 0c	 lea	 ecx, DWORD PTR _strTitle$[ebp]
  00136	ff 15 00 00 00
	00		 call	 DWORD PTR __imp_??1?$CStringT@DV?$StrTraitMFC_DLL@DV?$ChTraitsCRT@D@ATL@@@@@ATL@@QAE@XZ
  0013c	8b 45 08	 mov	 eax, DWORD PTR ___$ReturnUdt$[ebp]

; 230  : }

  0013f	8b 4d f4	 mov	 ecx, DWORD PTR __$EHRec$[ebp]
  00142	64 89 0d 00 00
	00 00		 mov	 DWORD PTR fs:0, ecx
  00149	59		 pop	 ecx
  0014a	5f		 pop	 edi
  0014b	5e		 pop	 esi
  0014c	8b e5		 mov	 esp, ebp
  0014e	5d		 pop	 ebp
  0014f	c2 08 00	 ret	 8
  00152	66 90		 npad	 2
$LN20@MakeTickBu:
  00154	00 00 00 00	 DD	 $LN7@MakeTickBu
  00158	00 00 00 00	 DD	 $LN10@MakeTickBu
  0015c	00 00 00 00	 DD	 $LN13@MakeTickBu
  00160	00 00 00 00	 DD	 $LN14@MakeTickBu
  00164	00 00 00 00	 DD	 $LN15@MakeTickBu
_TEXT	ENDS
;	COMDAT text$x
text$x	SEGMENT
__unwindfunclet$?MakeTickButtonTitle@CSetTickButton@@QAE?AV?$CStringT@DV?$StrTraitMFC_DLL@DV?$ChTraitsCRT@D@ATL@@@@@ATL@@H@Z$0:
  00000	8d 4d 0c	 lea	 ecx, DWORD PTR _strTitle$[ebp]
  00003	ff 25 00 00 00
	00		 jmp	 DWORD PTR __imp_??1?$CStringT@DV?$StrTraitMFC_DLL@DV?$ChTraitsCRT@D@ATL@@@@@ATL@@QAE@XZ
  00009	cc		 int	 3
  0000a	cc		 int	 3
  0000b	cc		 int	 3
  0000c	cc		 int	 3
  0000d	cc		 int	 3
__ehhandler$?MakeTickButtonTitle@CSetTickButton@@QAE?AV?$CStringT@DV?$StrTraitMFC_DLL@DV?$ChTraitsCRT@D@ATL@@@@@ATL@@H@Z:
  0000e	90		 npad	 1
  0000f	90		 npad	 1
  00010	8b 54 24 08	 mov	 edx, DWORD PTR [esp+8]
  00014	8d 42 0c	 lea	 eax, DWORD PTR [edx+12]
  00017	8b 4a f4	 mov	 ecx, DWORD PTR [edx-12]
  0001a	33 c8		 xor	 ecx, eax
  0001c	e8 00 00 00 00	 call	 @__security_check_cookie@4
  00021	b8 00 00 00 00	 mov	 eax, OFFSET __ehfuncinfo$?MakeTickButtonTitle@CSetTickButton@@QAE?AV?$CStringT@DV?$StrTraitMFC_DLL@DV?$ChTraitsCRT@D@ATL@@@@@ATL@@H@Z
  00026	e9 00 00 00 00	 jmp	 ___CxxFrameHandler3
text$x	ENDS
?MakeTickButtonTitle@CSetTickButton@@QAE?AV?$CStringT@DV?$StrTraitMFC_DLL@DV?$ChTraitsCRT@D@ATL@@@@@ATL@@H@Z ENDP ; CSetTickButton::MakeTickButtonTitle
; Function compile flags: /Ogtp
; File D:\git\src\IBK\IBK_DRFN\ProjSrc\SrcDrfn\Chart\MULTICHART\MiniTickBarDlg.cpp
;	COMDAT ?SetAllDay@CSetTickButton@@QAEXHH@Z
_TEXT	SEGMENT
_nIndex$ = 8						; size = 4
_bAllDay$ = 12						; size = 4
?SetAllDay@CSetTickButton@@QAEXHH@Z PROC		; CSetTickButton::SetAllDay, COMDAT
; _this$ = ecx

; 182  : {

  00000	55		 push	 ebp
  00001	8b ec		 mov	 ebp, esp

; 183  : 	m_pSetTick[nIndex].bAllDay = bAllDay;

  00003	8b 45 08	 mov	 eax, DWORD PTR _nIndex$[ebp]
  00006	8b 09		 mov	 ecx, DWORD PTR [ecx]
  00008	8d 14 80	 lea	 edx, DWORD PTR [eax+eax*4]
  0000b	8b 45 0c	 mov	 eax, DWORD PTR _bAllDay$[ebp]
  0000e	89 44 91 10	 mov	 DWORD PTR [ecx+edx*4+16], eax

; 184  : }

  00012	5d		 pop	 ebp
  00013	c2 08 00	 ret	 8
?SetAllDay@CSetTickButton@@QAEXHH@Z ENDP		; CSetTickButton::SetAllDay
_TEXT	ENDS
; Function compile flags: /Ogtp
; File D:\git\src\IBK\IBK_DRFN\ProjSrc\SrcDrfn\Chart\MULTICHART\MiniTickBarDlg.cpp
;	COMDAT ?SetTick@CSetTickButton@@QAEXHH@Z
_TEXT	SEGMENT
_nIndex$ = 8						; size = 4
_nTick$ = 12						; size = 4
?SetTick@CSetTickButton@@QAEXHH@Z PROC			; CSetTickButton::SetTick, COMDAT
; _this$ = ecx

; 177  : {

  00000	55		 push	 ebp
  00001	8b ec		 mov	 ebp, esp

; 178  : 	m_pSetTick[nIndex].nTick = nTick;

  00003	8b 45 08	 mov	 eax, DWORD PTR _nIndex$[ebp]
  00006	8b 09		 mov	 ecx, DWORD PTR [ecx]
  00008	8d 14 80	 lea	 edx, DWORD PTR [eax+eax*4]
  0000b	8b 45 0c	 mov	 eax, DWORD PTR _nTick$[ebp]
  0000e	89 44 91 0c	 mov	 DWORD PTR [ecx+edx*4+12], eax

; 179  : }

  00012	5d		 pop	 ebp
  00013	c2 08 00	 ret	 8
?SetTick@CSetTickButton@@QAEXHH@Z ENDP			; CSetTickButton::SetTick
_TEXT	ENDS
; Function compile flags: /Ogtp
; File D:\git\src\IBK\IBK_DRFN\ProjSrc\SrcDrfn\Chart\MULTICHART\MiniTickBarDlg.cpp
;	COMDAT ?SetDateIndex@CSetTickButton@@QAEXHH@Z
_TEXT	SEGMENT
_nIndex$ = 8						; size = 4
_nDate$ = 12						; size = 4
?SetDateIndex@CSetTickButton@@QAEXHH@Z PROC		; CSetTickButton::SetDateIndex, COMDAT
; _this$ = ecx

; 172  : {

  00000	55		 push	 ebp
  00001	8b ec		 mov	 ebp, esp

; 173  : 	m_pSetTick[nIndex].nDate = nDate;

  00003	8b 45 08	 mov	 eax, DWORD PTR _nIndex$[ebp]
  00006	8b 09		 mov	 ecx, DWORD PTR [ecx]
  00008	8d 14 80	 lea	 edx, DWORD PTR [eax+eax*4]
  0000b	8b 45 0c	 mov	 eax, DWORD PTR _nDate$[ebp]
  0000e	89 44 91 08	 mov	 DWORD PTR [ecx+edx*4+8], eax

; 174  : }

  00012	5d		 pop	 ebp
  00013	c2 08 00	 ret	 8
?SetDateIndex@CSetTickButton@@QAEXHH@Z ENDP		; CSetTickButton::SetDateIndex
_TEXT	ENDS
; Function compile flags: /Ogtp
; File D:\git\src\IBK\IBK_DRFN\ProjSrc\SrcDrfn\Chart\MULTICHART\MiniTickBarDlg.cpp
;	COMDAT ?SetMarket@CSetTickButton@@QAEXHH@Z
_TEXT	SEGMENT
_nIndex$ = 8						; size = 4
_nMarket$ = 12						; size = 4
?SetMarket@CSetTickButton@@QAEXHH@Z PROC		; CSetTickButton::SetMarket, COMDAT
; _this$ = ecx

; 167  : {

  00000	55		 push	 ebp
  00001	8b ec		 mov	 ebp, esp

; 168  : 	m_pSetTick[nIndex].nMarket = nMarket;

  00003	8b 45 08	 mov	 eax, DWORD PTR _nIndex$[ebp]
  00006	8b 09		 mov	 ecx, DWORD PTR [ecx]
  00008	8d 14 80	 lea	 edx, DWORD PTR [eax+eax*4]
  0000b	8b 45 0c	 mov	 eax, DWORD PTR _nMarket$[ebp]
  0000e	89 44 91 04	 mov	 DWORD PTR [ecx+edx*4+4], eax

; 169  : }

  00012	5d		 pop	 ebp
  00013	c2 08 00	 ret	 8
?SetMarket@CSetTickButton@@QAEXHH@Z ENDP		; CSetTickButton::SetMarket
_TEXT	ENDS
; Function compile flags: /Ogtp
; File D:\git\src\IBK\IBK_DRFN\ProjSrc\SrcDrfn\Chart\MULTICHART\MiniTickBarDlg.cpp
;	COMDAT ?SetTitle@CSetTickButton@@QAEXHV?$CStringT@DV?$StrTraitMFC_DLL@DV?$ChTraitsCRT@D@ATL@@@@@ATL@@@Z
_TEXT	SEGMENT
__$EHRec$ = -12						; size = 12
_nIndex$ = 8						; size = 4
_strTitle$ = 12						; size = 4
?SetTitle@CSetTickButton@@QAEXHV?$CStringT@DV?$StrTraitMFC_DLL@DV?$ChTraitsCRT@D@ATL@@@@@ATL@@@Z PROC ; CSetTickButton::SetTitle, COMDAT
; _this$ = ecx

; 162  : {

  00000	55		 push	 ebp
  00001	8b ec		 mov	 ebp, esp
  00003	6a ff		 push	 -1
  00005	68 00 00 00 00	 push	 __ehhandler$?SetTitle@CSetTickButton@@QAEXHV?$CStringT@DV?$StrTraitMFC_DLL@DV?$ChTraitsCRT@D@ATL@@@@@ATL@@@Z
  0000a	64 a1 00 00 00
	00		 mov	 eax, DWORD PTR fs:0
  00010	50		 push	 eax
  00011	a1 00 00 00 00	 mov	 eax, DWORD PTR ___security_cookie
  00016	33 c5		 xor	 eax, ebp
  00018	50		 push	 eax
  00019	8d 45 f4	 lea	 eax, DWORD PTR __$EHRec$[ebp]
  0001c	64 a3 00 00 00
	00		 mov	 DWORD PTR fs:0, eax

; 163  : 	m_pSetTick[nIndex].strTitle = strTitle;

  00022	8d 45 0c	 lea	 eax, DWORD PTR _strTitle$[ebp]
  00025	c7 45 fc 00 00
	00 00		 mov	 DWORD PTR __$EHRec$[ebp+8], 0
  0002c	50		 push	 eax
  0002d	8b 45 08	 mov	 eax, DWORD PTR _nIndex$[ebp]
  00030	8d 14 80	 lea	 edx, DWORD PTR [eax+eax*4]
  00033	8b 01		 mov	 eax, DWORD PTR [ecx]
  00035	8d 0c 90	 lea	 ecx, DWORD PTR [eax+edx*4]
  00038	ff 15 00 00 00
	00		 call	 DWORD PTR __imp_??4?$CStringT@DV?$StrTraitMFC_DLL@DV?$ChTraitsCRT@D@ATL@@@@@ATL@@QAEAAV01@ABV01@@Z

; 164  : }

  0003e	8d 4d 0c	 lea	 ecx, DWORD PTR _strTitle$[ebp]
  00041	ff 15 00 00 00
	00		 call	 DWORD PTR __imp_??1?$CStringT@DV?$StrTraitMFC_DLL@DV?$ChTraitsCRT@D@ATL@@@@@ATL@@QAE@XZ
  00047	8b 4d f4	 mov	 ecx, DWORD PTR __$EHRec$[ebp]
  0004a	64 89 0d 00 00
	00 00		 mov	 DWORD PTR fs:0, ecx
  00051	59		 pop	 ecx
  00052	8b e5		 mov	 esp, ebp
  00054	5d		 pop	 ebp
  00055	c2 08 00	 ret	 8
_TEXT	ENDS
;	COMDAT text$x
text$x	SEGMENT
__unwindfunclet$?SetTitle@CSetTickButton@@QAEXHV?$CStringT@DV?$StrTraitMFC_DLL@DV?$ChTraitsCRT@D@ATL@@@@@ATL@@@Z$0:
  00000	8d 4d 0c	 lea	 ecx, DWORD PTR _strTitle$[ebp]
  00003	ff 25 00 00 00
	00		 jmp	 DWORD PTR __imp_??1?$CStringT@DV?$StrTraitMFC_DLL@DV?$ChTraitsCRT@D@ATL@@@@@ATL@@QAE@XZ
  00009	cc		 int	 3
  0000a	cc		 int	 3
  0000b	cc		 int	 3
  0000c	cc		 int	 3
  0000d	cc		 int	 3
__ehhandler$?SetTitle@CSetTickButton@@QAEXHV?$CStringT@DV?$StrTraitMFC_DLL@DV?$ChTraitsCRT@D@ATL@@@@@ATL@@@Z:
  0000e	90		 npad	 1
  0000f	90		 npad	 1
  00010	8b 54 24 08	 mov	 edx, DWORD PTR [esp+8]
  00014	8d 42 0c	 lea	 eax, DWORD PTR [edx+12]
  00017	8b 4a fc	 mov	 ecx, DWORD PTR [edx-4]
  0001a	33 c8		 xor	 ecx, eax
  0001c	e8 00 00 00 00	 call	 @__security_check_cookie@4
  00021	b8 00 00 00 00	 mov	 eax, OFFSET __ehfuncinfo$?SetTitle@CSetTickButton@@QAEXHV?$CStringT@DV?$StrTraitMFC_DLL@DV?$ChTraitsCRT@D@ATL@@@@@ATL@@@Z
  00026	e9 00 00 00 00	 jmp	 ___CxxFrameHandler3
text$x	ENDS
?SetTitle@CSetTickButton@@QAEXHV?$CStringT@DV?$StrTraitMFC_DLL@DV?$ChTraitsCRT@D@ATL@@@@@ATL@@@Z ENDP ; CSetTickButton::SetTitle
; Function compile flags: /Ogtp
; File D:\git\src\IBK\IBK_DRFN\ProjSrc\SrcDrfn\Chart\MULTICHART\MiniTickBarDlg.cpp
;	COMDAT ?GetAllDay@CSetTickButton@@QAEHH@Z
_TEXT	SEGMENT
_nIndex$ = 8						; size = 4
?GetAllDay@CSetTickButton@@QAEHH@Z PROC			; CSetTickButton::GetAllDay, COMDAT
; _this$ = ecx

; 157  : {

  00000	55		 push	 ebp
  00001	8b ec		 mov	 ebp, esp

; 158  : 	return m_pSetTick[nIndex].bAllDay;

  00003	8b 45 08	 mov	 eax, DWORD PTR _nIndex$[ebp]
  00006	8d 14 80	 lea	 edx, DWORD PTR [eax+eax*4]
  00009	8b 01		 mov	 eax, DWORD PTR [ecx]
  0000b	8b 44 90 10	 mov	 eax, DWORD PTR [eax+edx*4+16]

; 159  : }

  0000f	5d		 pop	 ebp
  00010	c2 04 00	 ret	 4
?GetAllDay@CSetTickButton@@QAEHH@Z ENDP			; CSetTickButton::GetAllDay
_TEXT	ENDS
; Function compile flags: /Ogtp
; File D:\git\src\IBK\IBK_DRFN\ProjSrc\SrcDrfn\Chart\MULTICHART\MiniTickBarDlg.cpp
;	COMDAT ?GetTick@CSetTickButton@@QAEHH@Z
_TEXT	SEGMENT
_nIndex$ = 8						; size = 4
?GetTick@CSetTickButton@@QAEHH@Z PROC			; CSetTickButton::GetTick, COMDAT
; _this$ = ecx

; 152  : {

  00000	55		 push	 ebp
  00001	8b ec		 mov	 ebp, esp

; 153  : 	return m_pSetTick[nIndex].nTick;

  00003	8b 45 08	 mov	 eax, DWORD PTR _nIndex$[ebp]
  00006	8d 14 80	 lea	 edx, DWORD PTR [eax+eax*4]
  00009	8b 01		 mov	 eax, DWORD PTR [ecx]
  0000b	8b 44 90 0c	 mov	 eax, DWORD PTR [eax+edx*4+12]

; 154  : }

  0000f	5d		 pop	 ebp
  00010	c2 04 00	 ret	 4
?GetTick@CSetTickButton@@QAEHH@Z ENDP			; CSetTickButton::GetTick
_TEXT	ENDS
; Function compile flags: /Ogtp
; File D:\git\src\IBK\IBK_DRFN\ProjSrc\SrcDrfn\Chart\MULTICHART\MiniTickBarDlg.cpp
;	COMDAT ?GetDateIndex@CSetTickButton@@QAEHH@Z
_TEXT	SEGMENT
_nIndex$ = 8						; size = 4
?GetDateIndex@CSetTickButton@@QAEHH@Z PROC		; CSetTickButton::GetDateIndex, COMDAT
; _this$ = ecx

; 147  : {

  00000	55		 push	 ebp
  00001	8b ec		 mov	 ebp, esp

; 148  : 	return m_pSetTick[nIndex].nDate;

  00003	8b 45 08	 mov	 eax, DWORD PTR _nIndex$[ebp]
  00006	8d 14 80	 lea	 edx, DWORD PTR [eax+eax*4]
  00009	8b 01		 mov	 eax, DWORD PTR [ecx]
  0000b	8b 44 90 08	 mov	 eax, DWORD PTR [eax+edx*4+8]

; 149  : }

  0000f	5d		 pop	 ebp
  00010	c2 04 00	 ret	 4
?GetDateIndex@CSetTickButton@@QAEHH@Z ENDP		; CSetTickButton::GetDateIndex
_TEXT	ENDS
; Function compile flags: /Ogtp
; File D:\git\src\IBK\IBK_DRFN\ProjSrc\SrcDrfn\Chart\MULTICHART\MiniTickBarDlg.cpp
;	COMDAT ?GetDate@CSetTickButton@@QAEDH@Z
_TEXT	SEGMENT
_nIndex$ = 8						; size = 4
?GetDate@CSetTickButton@@QAEDH@Z PROC			; CSetTickButton::GetDate, COMDAT
; _this$ = ecx

; 125  : {

  00000	55		 push	 ebp
  00001	8b ec		 mov	 ebp, esp

; 126  : 	int nDate = m_pSetTick[nIndex].nDate;

  00003	8b 45 08	 mov	 eax, DWORD PTR _nIndex$[ebp]
  00006	8d 14 80	 lea	 edx, DWORD PTR [eax+eax*4]
  00009	8b 01		 mov	 eax, DWORD PTR [ecx]
  0000b	8b 44 90 08	 mov	 eax, DWORD PTR [eax+edx*4+8]

; 127  : 	switch(nDate)

  0000f	83 f8 05	 cmp	 eax, 5
  00012	77 25		 ja	 SHORT $LN2@GetDate
  00014	ff 24 85 00 00
	00 00		 jmp	 DWORD PTR $LN11@GetDate[eax*4]
$LN5@GetDate:

; 128  : 	{
; 129  : 	case 0:
; 130  : 		return TICK_DATA_CHART;
; 131  : 	case 1:
; 132  : 		return MIN_DATA_CHART;

  0001b	b0 31		 mov	 al, 49			; 00000031H

; 144  : }

  0001d	5d		 pop	 ebp
  0001e	c2 04 00	 ret	 4
$LN6@GetDate:

; 133  : 	case 2:
; 134  : 		return DAY_DATA_CHART;

  00021	b0 32		 mov	 al, 50			; 00000032H

; 144  : }

  00023	5d		 pop	 ebp
  00024	c2 04 00	 ret	 4
$LN7@GetDate:

; 135  : 	case 3:
; 136  : 		return WEEK_DATA_CHART;

  00027	b0 33		 mov	 al, 51			; 00000033H

; 144  : }

  00029	5d		 pop	 ebp
  0002a	c2 04 00	 ret	 4
$LN8@GetDate:

; 137  : 	case 4:
; 138  : 		return MONTH_DATA_CHART;

  0002d	b0 34		 mov	 al, 52			; 00000034H

; 144  : }

  0002f	5d		 pop	 ebp
  00030	c2 04 00	 ret	 4
$LN9@GetDate:

; 139  : 	case 5:
; 140  : 		return YEAR_DATA_CHART;

  00033	b0 35		 mov	 al, 53			; 00000035H

; 144  : }

  00035	5d		 pop	 ebp
  00036	c2 04 00	 ret	 4
$LN2@GetDate:

; 141  : 	}
; 142  : 
; 143  : 	return '0';

  00039	b0 30		 mov	 al, 48			; 00000030H

; 144  : }

  0003b	5d		 pop	 ebp
  0003c	c2 04 00	 ret	 4
  0003f	90		 npad	 1
$LN11@GetDate:
  00040	00 00 00 00	 DD	 $LN2@GetDate
  00044	00 00 00 00	 DD	 $LN5@GetDate
  00048	00 00 00 00	 DD	 $LN6@GetDate
  0004c	00 00 00 00	 DD	 $LN7@GetDate
  00050	00 00 00 00	 DD	 $LN8@GetDate
  00054	00 00 00 00	 DD	 $LN9@GetDate
?GetDate@CSetTickButton@@QAEDH@Z ENDP			; CSetTickButton::GetDate
_TEXT	ENDS
; Function compile flags: /Ogtp
; File D:\git\src\IBK\IBK_DRFN\ProjSrc\SrcDrfn\Chart\MULTICHART\MiniTickBarDlg.cpp
;	COMDAT ?GetMarket@CSetTickButton@@QAEHH@Z
_TEXT	SEGMENT
_nIndex$ = 8						; size = 4
?GetMarket@CSetTickButton@@QAEHH@Z PROC			; CSetTickButton::GetMarket, COMDAT
; _this$ = ecx

; 109  : {

  00000	55		 push	 ebp
  00001	8b ec		 mov	 ebp, esp

; 110  : 	int nMarket = m_pSetTick[nIndex].nMarket;

  00003	8b 45 08	 mov	 eax, DWORD PTR _nIndex$[ebp]
  00006	8d 14 80	 lea	 edx, DWORD PTR [eax+eax*4]

; 111  : 	switch(nMarket)

  00009	8b 01		 mov	 eax, DWORD PTR [ecx]
  0000b	8b 44 90 04	 mov	 eax, DWORD PTR [eax+edx*4+4]
  0000f	83 e8 00	 sub	 eax, 0
  00012	74 1c		 je	 SHORT $LN4@GetMarket
  00014	83 e8 01	 sub	 eax, 1
  00017	74 0e		 je	 SHORT $LN5@GetMarket
  00019	83 e8 01	 sub	 eax, 1
  0001c	75 12		 jne	 SHORT $LN4@GetMarket

; 117  : 	case 2:
; 118  : 		return CMasterTypeInfo::FUTOPT_CHART;

  0001e	b8 02 00 00 00	 mov	 eax, 2

; 119  : 	}
; 120  : 
; 121  : 	return CMasterTypeInfo::STOCK_CHART;
; 122  : }

  00023	5d		 pop	 ebp
  00024	c2 04 00	 ret	 4
$LN5@GetMarket:

; 115  : 	case 1:
; 116  : 		return CMasterTypeInfo::UPJONG_CHART;

  00027	b8 01 00 00 00	 mov	 eax, 1

; 119  : 	}
; 120  : 
; 121  : 	return CMasterTypeInfo::STOCK_CHART;
; 122  : }

  0002c	5d		 pop	 ebp
  0002d	c2 04 00	 ret	 4
$LN4@GetMarket:

; 112  : 	{
; 113  : 	case 0:
; 114  : 		return CMasterTypeInfo::STOCK_CHART;

  00030	33 c0		 xor	 eax, eax

; 119  : 	}
; 120  : 
; 121  : 	return CMasterTypeInfo::STOCK_CHART;
; 122  : }

  00032	5d		 pop	 ebp
  00033	c2 04 00	 ret	 4
?GetMarket@CSetTickButton@@QAEHH@Z ENDP			; CSetTickButton::GetMarket
_TEXT	ENDS
; Function compile flags: /Ogtp
; File D:\git\src\IBK\IBK_DRFN\ProjSrc\SrcDrfn\Chart\MULTICHART\MiniTickBarDlg.cpp
;	COMDAT ?GetTitle@CSetTickButton@@QAE?AV?$CStringT@DV?$StrTraitMFC_DLL@DV?$ChTraitsCRT@D@ATL@@@@@ATL@@H@Z
_TEXT	SEGMENT
___$ReturnUdt$ = 8					; size = 4
_nIndex$ = 12						; size = 4
?GetTitle@CSetTickButton@@QAE?AV?$CStringT@DV?$StrTraitMFC_DLL@DV?$ChTraitsCRT@D@ATL@@@@@ATL@@H@Z PROC ; CSetTickButton::GetTitle, COMDAT
; _this$ = ecx

; 104  : {

  00000	55		 push	 ebp
  00001	8b ec		 mov	 ebp, esp

; 105  : 	return m_pSetTick[nIndex].strTitle;

  00003	8b 45 0c	 mov	 eax, DWORD PTR _nIndex$[ebp]
  00006	8d 14 80	 lea	 edx, DWORD PTR [eax+eax*4]
  00009	8b 01		 mov	 eax, DWORD PTR [ecx]
  0000b	8b 4d 08	 mov	 ecx, DWORD PTR ___$ReturnUdt$[ebp]
  0000e	8d 04 90	 lea	 eax, DWORD PTR [eax+edx*4]
  00011	50		 push	 eax
  00012	ff 15 00 00 00
	00		 call	 DWORD PTR __imp_??0?$CStringT@DV?$StrTraitMFC_DLL@DV?$ChTraitsCRT@D@ATL@@@@@ATL@@QAE@ABV01@@Z
  00018	8b 45 08	 mov	 eax, DWORD PTR ___$ReturnUdt$[ebp]

; 106  : }

  0001b	5d		 pop	 ebp
  0001c	c2 08 00	 ret	 8
?GetTitle@CSetTickButton@@QAE?AV?$CStringT@DV?$StrTraitMFC_DLL@DV?$ChTraitsCRT@D@ATL@@@@@ATL@@H@Z ENDP ; CSetTickButton::GetTitle
_TEXT	ENDS
; Function compile flags: /Ogtp
; File D:\git\src\IBK\IBK_DRFN\ProjSrc\SrcDrfn\Chart\MULTICHART\MiniTickBarDlg.cpp
;	COMDAT ?SetButton@CSetTickButton@@QAEXPAVCILButton@@PAVCImageList@@@Z
_TEXT	SEGMENT
_m_pBtn$ = 8						; size = 4
_pIL_W20H20$ = 12					; size = 4
?SetButton@CSetTickButton@@QAEXPAVCILButton@@PAVCImageList@@@Z PROC ; CSetTickButton::SetButton, COMDAT
; _this$ = ecx

; 98   : {

  00000	55		 push	 ebp
  00001	8b ec		 mov	 ebp, esp
  00003	53		 push	 ebx
  00004	56		 push	 esi
  00005	57		 push	 edi

; 99   : 	for(int i = 0; i < DEF_SIZE; i++)

  00006	8b 7d 08	 mov	 edi, DWORD PTR _m_pBtn$[ebp]
  00009	8b d9		 mov	 ebx, ecx
  0000b	33 f6		 xor	 esi, esi
  0000d	0f 1f 00	 npad	 3
$LL4@SetButton:

; 100  : 		m_pBtn[i].FP_vSetImage( pIL_W20H20, 80, 82, TRUE, m_pSetTick[i].strTitle, TRUE);

  00010	8b 03		 mov	 eax, DWORD PTR [ebx]
  00012	6a ff		 push	 -1
  00014	6a ff		 push	 -1
  00016	6a 01		 push	 1
  00018	51		 push	 ecx
  00019	03 c6		 add	 eax, esi
  0001b	8b cc		 mov	 ecx, esp
  0001d	50		 push	 eax
  0001e	ff 15 00 00 00
	00		 call	 DWORD PTR __imp_??0?$CStringT@DV?$StrTraitMFC_DLL@DV?$ChTraitsCRT@D@ATL@@@@@ATL@@QAE@ABV01@@Z
  00024	6a 01		 push	 1
  00026	6a 52		 push	 82			; 00000052H
  00028	6a 50		 push	 80			; 00000050H
  0002a	ff 75 0c	 push	 DWORD PTR _pIL_W20H20$[ebp]
  0002d	8b cf		 mov	 ecx, edi
  0002f	e8 00 00 00 00	 call	 ?FP_vSetImage@CILButton@@QAEXPAVCImageList@@HHHV?$CStringT@DV?$StrTraitMFC_DLL@DV?$ChTraitsCRT@D@ATL@@@@@ATL@@HHH@Z ; CILButton::FP_vSetImage
  00034	83 c6 14	 add	 esi, 20			; 00000014H
  00037	81 c7 60 01 00
	00		 add	 edi, 352		; 00000160H
  0003d	81 fe b4 00 00
	00		 cmp	 esi, 180		; 000000b4H
  00043	7c cb		 jl	 SHORT $LL4@SetButton

; 101  : }

  00045	5f		 pop	 edi
  00046	5e		 pop	 esi
  00047	5b		 pop	 ebx
  00048	5d		 pop	 ebp
  00049	c2 08 00	 ret	 8
?SetButton@CSetTickButton@@QAEXPAVCILButton@@PAVCImageList@@@Z ENDP ; CSetTickButton::SetButton
_TEXT	ENDS
; Function compile flags: /Ogtp
; File D:\git\src\IBK\IBK_DRFN\ProjSrc\SrcDrfn\Chart\MULTICHART\MiniTickBarDlg.cpp
;	COMDAT ?Init@CSetTickButton@@QAEXXZ
_TEXT	SEGMENT
?Init@CSetTickButton@@QAEXXZ PROC			; CSetTickButton::Init, COMDAT
; _this$ = ecx

; 41   : {

  00000	56		 push	 esi
  00001	8b f1		 mov	 esi, ecx

; 42   : 	m_pSetTick[0].strTitle = _T("1");

  00003	68 00 00 00 00	 push	 OFFSET ??_C@_03FCGFIFCA@1?F?$LN@
  00008	8b 0e		 mov	 ecx, DWORD PTR [esi]
  0000a	ff 15 00 00 00
	00		 call	 DWORD PTR __imp_??4?$CStringT@DV?$StrTraitMFC_DLL@DV?$ChTraitsCRT@D@ATL@@@@@ATL@@QAEAAV01@PBD@Z

; 43   : 	m_pSetTick[0].nMarket = 0;

  00010	8b 06		 mov	 eax, DWORD PTR [esi]

; 44   : 	m_pSetTick[0].nDate = 0;
; 45   : 	m_pSetTick[0].nTick = 1;
; 46   : 	m_pSetTick[0].bAllDay = TRUE;
; 47   : 
; 48   : 	m_pSetTick[1].strTitle = _T("1");

  00012	68 00 00 00 00	 push	 OFFSET ??_C@_03NPNNABPO@1?$LK?P@
  00017	c7 40 04 00 00
	00 00		 mov	 DWORD PTR [eax+4], 0
  0001e	8b 06		 mov	 eax, DWORD PTR [esi]
  00020	c7 40 08 00 00
	00 00		 mov	 DWORD PTR [eax+8], 0
  00027	8b 06		 mov	 eax, DWORD PTR [esi]
  00029	c7 40 0c 01 00
	00 00		 mov	 DWORD PTR [eax+12], 1
  00030	8b 06		 mov	 eax, DWORD PTR [esi]
  00032	c7 40 10 01 00
	00 00		 mov	 DWORD PTR [eax+16], 1
  00039	8b 0e		 mov	 ecx, DWORD PTR [esi]
  0003b	83 c1 14	 add	 ecx, 20			; 00000014H
  0003e	ff 15 00 00 00
	00		 call	 DWORD PTR __imp_??4?$CStringT@DV?$StrTraitMFC_DLL@DV?$ChTraitsCRT@D@ATL@@@@@ATL@@QAEAAV01@PBD@Z

; 49   : 	m_pSetTick[1].nMarket = 0;

  00044	8b 06		 mov	 eax, DWORD PTR [esi]

; 50   : 	m_pSetTick[1].nDate = 1;
; 51   : 	m_pSetTick[1].nTick = 1;
; 52   : 	m_pSetTick[1].bAllDay = TRUE;
; 53   : 
; 54   : 	m_pSetTick[2].strTitle = _T("3");

  00046	68 00 00 00 00	 push	 OFFSET ??_C@_03HFNEMJHF@3?$LK?P@
  0004b	c7 40 18 00 00
	00 00		 mov	 DWORD PTR [eax+24], 0
  00052	8b 06		 mov	 eax, DWORD PTR [esi]
  00054	c7 40 1c 01 00
	00 00		 mov	 DWORD PTR [eax+28], 1
  0005b	8b 06		 mov	 eax, DWORD PTR [esi]
  0005d	c7 40 20 01 00
	00 00		 mov	 DWORD PTR [eax+32], 1
  00064	8b 06		 mov	 eax, DWORD PTR [esi]
  00066	c7 40 24 01 00
	00 00		 mov	 DWORD PTR [eax+36], 1
  0006d	8b 0e		 mov	 ecx, DWORD PTR [esi]
  0006f	83 c1 28	 add	 ecx, 40			; 00000028H
  00072	ff 15 00 00 00
	00		 call	 DWORD PTR __imp_??4?$CStringT@DV?$StrTraitMFC_DLL@DV?$ChTraitsCRT@D@ATL@@@@@ATL@@QAEAAV01@PBD@Z

; 55   : 	m_pSetTick[2].nMarket = 0;

  00078	8b 06		 mov	 eax, DWORD PTR [esi]

; 56   : 	m_pSetTick[2].nDate = 1;
; 57   : 	m_pSetTick[2].nTick = 3;
; 58   : 	m_pSetTick[2].bAllDay = TRUE;
; 59   : 
; 60   : 	m_pSetTick[3].strTitle = _T("5");

  0007a	68 00 00 00 00	 push	 OFFSET ??_C@_03FALPJGKJ@5?$LK?P@
  0007f	c7 40 2c 00 00
	00 00		 mov	 DWORD PTR [eax+44], 0
  00086	8b 06		 mov	 eax, DWORD PTR [esi]
  00088	c7 40 30 01 00
	00 00		 mov	 DWORD PTR [eax+48], 1
  0008f	8b 06		 mov	 eax, DWORD PTR [esi]
  00091	c7 40 34 03 00
	00 00		 mov	 DWORD PTR [eax+52], 3
  00098	8b 06		 mov	 eax, DWORD PTR [esi]
  0009a	c7 40 38 01 00
	00 00		 mov	 DWORD PTR [eax+56], 1
  000a1	8b 0e		 mov	 ecx, DWORD PTR [esi]
  000a3	83 c1 3c	 add	 ecx, 60			; 0000003cH
  000a6	ff 15 00 00 00
	00		 call	 DWORD PTR __imp_??4?$CStringT@DV?$StrTraitMFC_DLL@DV?$ChTraitsCRT@D@ATL@@@@@ATL@@QAEAAV01@PBD@Z

; 61   : 	m_pSetTick[3].nMarket = 0;

  000ac	8b 06		 mov	 eax, DWORD PTR [esi]

; 62   : 	m_pSetTick[3].nDate = 1;
; 63   : 	m_pSetTick[3].nTick = 5;
; 64   : 	m_pSetTick[3].bAllDay = TRUE;
; 65   : 
; 66   : 	m_pSetTick[4].strTitle = _T("10");

  000ae	68 00 00 00 00	 push	 OFFSET ??_C@_04BMEGNPKM@10?$LK?P@
  000b3	c7 40 40 00 00
	00 00		 mov	 DWORD PTR [eax+64], 0
  000ba	8b 06		 mov	 eax, DWORD PTR [esi]
  000bc	c7 40 44 01 00
	00 00		 mov	 DWORD PTR [eax+68], 1
  000c3	8b 06		 mov	 eax, DWORD PTR [esi]
  000c5	c7 40 48 05 00
	00 00		 mov	 DWORD PTR [eax+72], 5
  000cc	8b 06		 mov	 eax, DWORD PTR [esi]
  000ce	c7 40 4c 01 00
	00 00		 mov	 DWORD PTR [eax+76], 1
  000d5	8b 0e		 mov	 ecx, DWORD PTR [esi]
  000d7	83 c1 50	 add	 ecx, 80			; 00000050H
  000da	ff 15 00 00 00
	00		 call	 DWORD PTR __imp_??4?$CStringT@DV?$StrTraitMFC_DLL@DV?$ChTraitsCRT@D@ATL@@@@@ATL@@QAEAAV01@PBD@Z

; 67   : 	m_pSetTick[4].nMarket = 0;

  000e0	8b 06		 mov	 eax, DWORD PTR [esi]

; 68   : 	m_pSetTick[4].nDate = 1;
; 69   : 	m_pSetTick[4].nTick = 10;
; 70   : 	m_pSetTick[4].bAllDay = TRUE;
; 71   : 
; 72   : 	m_pSetTick[5].strTitle = _T("30");

  000e2	68 00 00 00 00	 push	 OFFSET ??_C@_04GGIGIMMM@30?$LK?P@
  000e7	c7 40 54 00 00
	00 00		 mov	 DWORD PTR [eax+84], 0
  000ee	8b 06		 mov	 eax, DWORD PTR [esi]
  000f0	c7 40 58 01 00
	00 00		 mov	 DWORD PTR [eax+88], 1
  000f7	8b 06		 mov	 eax, DWORD PTR [esi]
  000f9	c7 40 5c 0a 00
	00 00		 mov	 DWORD PTR [eax+92], 10	; 0000000aH
  00100	8b 06		 mov	 eax, DWORD PTR [esi]
  00102	c7 40 60 01 00
	00 00		 mov	 DWORD PTR [eax+96], 1
  00109	8b 0e		 mov	 ecx, DWORD PTR [esi]
  0010b	83 c1 64	 add	 ecx, 100		; 00000064H
  0010e	ff 15 00 00 00
	00		 call	 DWORD PTR __imp_??4?$CStringT@DV?$StrTraitMFC_DLL@DV?$ChTraitsCRT@D@ATL@@@@@ATL@@QAEAAV01@PBD@Z

; 73   : 	m_pSetTick[5].nMarket = 0;

  00114	8b 06		 mov	 eax, DWORD PTR [esi]

; 74   : 	m_pSetTick[5].nDate = 1;
; 75   : 	m_pSetTick[5].nTick = 30;
; 76   : 	m_pSetTick[5].bAllDay = TRUE;
; 77   : 
; 78   : 	m_pSetTick[6].strTitle = _T("");

  00116	68 00 00 00 00	 push	 OFFSET ??_C@_02NNHDHLCM@?$MA?O@
  0011b	c7 40 68 00 00
	00 00		 mov	 DWORD PTR [eax+104], 0
  00122	8b 06		 mov	 eax, DWORD PTR [esi]
  00124	c7 40 6c 01 00
	00 00		 mov	 DWORD PTR [eax+108], 1
  0012b	8b 06		 mov	 eax, DWORD PTR [esi]
  0012d	c7 40 70 1e 00
	00 00		 mov	 DWORD PTR [eax+112], 30	; 0000001eH
  00134	8b 06		 mov	 eax, DWORD PTR [esi]
  00136	c7 40 74 01 00
	00 00		 mov	 DWORD PTR [eax+116], 1
  0013d	8b 0e		 mov	 ecx, DWORD PTR [esi]
  0013f	83 c1 78	 add	 ecx, 120		; 00000078H
  00142	ff 15 00 00 00
	00		 call	 DWORD PTR __imp_??4?$CStringT@DV?$StrTraitMFC_DLL@DV?$ChTraitsCRT@D@ATL@@@@@ATL@@QAEAAV01@PBD@Z

; 79   : 	m_pSetTick[6].nMarket = 0;

  00148	8b 06		 mov	 eax, DWORD PTR [esi]
  0014a	c7 40 7c 00 00
	00 00		 mov	 DWORD PTR [eax+124], 0

; 80   : 	m_pSetTick[6].nDate = 2;

  00151	8b 06		 mov	 eax, DWORD PTR [esi]
  00153	c7 80 80 00 00
	00 02 00 00 00	 mov	 DWORD PTR [eax+128], 2

; 81   : 	m_pSetTick[6].nTick = 1;

  0015d	8b 06		 mov	 eax, DWORD PTR [esi]

; 82   : 	m_pSetTick[6].bAllDay = TRUE;
; 83   : 
; 84   : 	m_pSetTick[7].strTitle = _T("1");

  0015f	68 00 00 00 00	 push	 OFFSET ??_C@_03ILNOECFE@?$LM?$LB1@
  00164	c7 80 84 00 00
	00 01 00 00 00	 mov	 DWORD PTR [eax+132], 1
  0016e	8b 06		 mov	 eax, DWORD PTR [esi]
  00170	c7 80 88 00 00
	00 01 00 00 00	 mov	 DWORD PTR [eax+136], 1
  0017a	8b 0e		 mov	 ecx, DWORD PTR [esi]
  0017c	81 c1 8c 00 00
	00		 add	 ecx, 140		; 0000008cH
  00182	ff 15 00 00 00
	00		 call	 DWORD PTR __imp_??4?$CStringT@DV?$StrTraitMFC_DLL@DV?$ChTraitsCRT@D@ATL@@@@@ATL@@QAEAAV01@PBD@Z

; 85   : 	m_pSetTick[7].nMarket = 2;

  00188	8b 06		 mov	 eax, DWORD PTR [esi]

; 86   : 	m_pSetTick[7].nDate = 0;
; 87   : 	m_pSetTick[7].nTick = 1;
; 88   : 	m_pSetTick[7].bAllDay = TRUE;
; 89   : 
; 90   : 	m_pSetTick[8].strTitle = _T("1");

  0018a	68 00 00 00 00	 push	 OFFSET ??_C@_03BJNHHNCI@?A?$LO1@
  0018f	c7 80 90 00 00
	00 02 00 00 00	 mov	 DWORD PTR [eax+144], 2
  00199	8b 06		 mov	 eax, DWORD PTR [esi]
  0019b	c7 80 94 00 00
	00 00 00 00 00	 mov	 DWORD PTR [eax+148], 0
  001a5	8b 06		 mov	 eax, DWORD PTR [esi]
  001a7	c7 80 98 00 00
	00 01 00 00 00	 mov	 DWORD PTR [eax+152], 1
  001b1	8b 06		 mov	 eax, DWORD PTR [esi]
  001b3	c7 80 9c 00 00
	00 01 00 00 00	 mov	 DWORD PTR [eax+156], 1
  001bd	8b 0e		 mov	 ecx, DWORD PTR [esi]
  001bf	81 c1 a0 00 00
	00		 add	 ecx, 160		; 000000a0H
  001c5	ff 15 00 00 00
	00		 call	 DWORD PTR __imp_??4?$CStringT@DV?$StrTraitMFC_DLL@DV?$ChTraitsCRT@D@ATL@@@@@ATL@@QAEAAV01@PBD@Z

; 91   : 	m_pSetTick[8].nMarket = 1;

  001cb	8b 06		 mov	 eax, DWORD PTR [esi]
  001cd	c7 80 a4 00 00
	00 01 00 00 00	 mov	 DWORD PTR [eax+164], 1

; 92   : 	m_pSetTick[8].nDate = 0;

  001d7	8b 06		 mov	 eax, DWORD PTR [esi]
  001d9	c7 80 a8 00 00
	00 00 00 00 00	 mov	 DWORD PTR [eax+168], 0

; 93   : 	m_pSetTick[8].nTick = 1;

  001e3	8b 06		 mov	 eax, DWORD PTR [esi]
  001e5	c7 80 ac 00 00
	00 01 00 00 00	 mov	 DWORD PTR [eax+172], 1

; 94   : 	m_pSetTick[8].bAllDay = TRUE;

  001ef	8b 06		 mov	 eax, DWORD PTR [esi]
  001f1	5e		 pop	 esi
  001f2	c7 80 b0 00 00
	00 01 00 00 00	 mov	 DWORD PTR [eax+176], 1

; 95   : }

  001fc	c3		 ret	 0
?Init@CSetTickButton@@QAEXXZ ENDP			; CSetTickButton::Init
_TEXT	ENDS
; Function compile flags: /Ogtp
; File D:\git\src\IBK\IBK_DRFN\ProjSrc\SrcDrfn\Chart\MULTICHART\MiniTickBarDlg.cpp
;	COMDAT ??4CSetTickButton@@QAEAAV0@AAV0@@Z
_TEXT	SEGMENT
_this$1$ = -4						; size = 4
_right$ = 8						; size = 4
??4CSetTickButton@@QAEAAV0@AAV0@@Z PROC			; CSetTickButton::operator=, COMDAT
; _this$ = ecx

; 33   : {

  00000	55		 push	 ebp
  00001	8b ec		 mov	 ebp, esp
  00003	51		 push	 ecx
  00004	53		 push	 ebx
  00005	56		 push	 esi
  00006	8b c1		 mov	 eax, ecx

; 34   : 	for(int i = 0; i < 9; i++)

  00008	33 f6		 xor	 esi, esi
  0000a	57		 push	 edi
  0000b	89 45 fc	 mov	 DWORD PTR _this$1$[ebp], eax
  0000e	66 90		 npad	 2
$LL4@operator:

; 35   : 		m_pSetTick[i] = right.m_pSetTick[i];

  00010	8b 4d 08	 mov	 ecx, DWORD PTR _right$[ebp]
  00013	8b 38		 mov	 edi, DWORD PTR [eax]
  00015	03 fe		 add	 edi, esi
  00017	8b 19		 mov	 ebx, DWORD PTR [ecx]
  00019	8b cf		 mov	 ecx, edi
  0001b	03 de		 add	 ebx, esi
  0001d	53		 push	 ebx
  0001e	ff 15 00 00 00
	00		 call	 DWORD PTR __imp_??4?$CStringT@DV?$StrTraitMFC_DLL@DV?$ChTraitsCRT@D@ATL@@@@@ATL@@QAEAAV01@ABV01@@Z
  00024	8b 43 04	 mov	 eax, DWORD PTR [ebx+4]
  00027	83 c6 14	 add	 esi, 20			; 00000014H
  0002a	89 47 04	 mov	 DWORD PTR [edi+4], eax
  0002d	8b 43 08	 mov	 eax, DWORD PTR [ebx+8]
  00030	89 47 08	 mov	 DWORD PTR [edi+8], eax
  00033	8b 43 0c	 mov	 eax, DWORD PTR [ebx+12]
  00036	89 47 0c	 mov	 DWORD PTR [edi+12], eax
  00039	8b 43 10	 mov	 eax, DWORD PTR [ebx+16]
  0003c	89 47 10	 mov	 DWORD PTR [edi+16], eax
  0003f	8b 45 fc	 mov	 eax, DWORD PTR _this$1$[ebp]
  00042	81 fe b4 00 00
	00		 cmp	 esi, 180		; 000000b4H
  00048	7c c6		 jl	 SHORT $LL4@operator

; 36   : 
; 37   : 	return *this;

  0004a	5f		 pop	 edi
  0004b	5e		 pop	 esi
  0004c	5b		 pop	 ebx

; 38   : }

  0004d	8b e5		 mov	 esp, ebp
  0004f	5d		 pop	 ebp
  00050	c2 04 00	 ret	 4
??4CSetTickButton@@QAEAAV0@AAV0@@Z ENDP			; CSetTickButton::operator=
_TEXT	ENDS
; Function compile flags: /Ogtp
; File D:\git\src\IBK\IBK_DRFN\ProjSrc\SrcDrfn\Chart\MULTICHART\MiniTickBarDlg.cpp
;	COMDAT ??1CSetTickButton@@QAE@XZ
_TEXT	SEGMENT
__$EHRec$ = -12						; size = 12
??1CSetTickButton@@QAE@XZ PROC				; CSetTickButton::~CSetTickButton, COMDAT
; _this$ = ecx

; 27   : {

  00000	55		 push	 ebp
  00001	8b ec		 mov	 ebp, esp
  00003	6a ff		 push	 -1
  00005	68 00 00 00 00	 push	 __ehhandler$??1CSetTickButton@@QAE@XZ
  0000a	64 a1 00 00 00
	00		 mov	 eax, DWORD PTR fs:0
  00010	50		 push	 eax
  00011	56		 push	 esi
  00012	a1 00 00 00 00	 mov	 eax, DWORD PTR ___security_cookie
  00017	33 c5		 xor	 eax, ebp
  00019	50		 push	 eax
  0001a	8d 45 f4	 lea	 eax, DWORD PTR __$EHRec$[ebp]
  0001d	64 a3 00 00 00
	00		 mov	 DWORD PTR fs:0, eax

; 28   : 	if(m_pSetTick)

  00023	8b 01		 mov	 eax, DWORD PTR [ecx]
  00025	85 c0		 test	 eax, eax
  00027	74 30		 je	 SHORT $LN9@CSetTickBu
  00029	68 00 00 00 00	 push	 OFFSET ??1_ST_SETTICK@@QAE@XZ
  0002e	ff 70 fc	 push	 DWORD PTR [eax-4]
  00031	8d 70 fc	 lea	 esi, DWORD PTR [eax-4]
  00034	c7 45 fc 00 00
	00 00		 mov	 DWORD PTR __$EHRec$[ebp+8], 0
  0003b	6a 14		 push	 20			; 00000014H
  0003d	50		 push	 eax
  0003e	e8 00 00 00 00	 call	 ??_M@YGXPAXIIP6EX0@Z@Z
  00043	8b 06		 mov	 eax, DWORD PTR [esi]
  00045	8d 04 80	 lea	 eax, DWORD PTR [eax+eax*4]
  00048	8d 04 85 04 00
	00 00		 lea	 eax, DWORD PTR [eax*4+4]
  0004f	50		 push	 eax
  00050	56		 push	 esi
  00051	e8 00 00 00 00	 call	 ??_V@YAXPAXI@Z		; operator delete[]
  00056	83 c4 08	 add	 esp, 8
$LN9@CSetTickBu:

; 29   : 		delete [] m_pSetTick;
; 30   : }

  00059	8b 4d f4	 mov	 ecx, DWORD PTR __$EHRec$[ebp]
  0005c	64 89 0d 00 00
	00 00		 mov	 DWORD PTR fs:0, ecx
  00063	59		 pop	 ecx
  00064	5e		 pop	 esi
  00065	8b e5		 mov	 esp, ebp
  00067	5d		 pop	 ebp
  00068	c3		 ret	 0
  00069	cc		 int	 3
  0006a	cc		 int	 3
  0006b	cc		 int	 3
  0006c	cc		 int	 3
  0006d	cc		 int	 3
_TEXT	ENDS
;	COMDAT text$x
text$x	SEGMENT
__ehhandler$??1CSetTickButton@@QAE@XZ:
  00000	90		 npad	 1
  00001	90		 npad	 1
  00002	8b 54 24 08	 mov	 edx, DWORD PTR [esp+8]
  00006	8d 42 0c	 lea	 eax, DWORD PTR [edx+12]
  00009	8b 4a f8	 mov	 ecx, DWORD PTR [edx-8]
  0000c	33 c8		 xor	 ecx, eax
  0000e	e8 00 00 00 00	 call	 @__security_check_cookie@4
  00013	b8 00 00 00 00	 mov	 eax, OFFSET __ehfuncinfo$??1CSetTickButton@@QAE@XZ
  00018	e9 00 00 00 00	 jmp	 ___CxxFrameHandler3
text$x	ENDS
??1CSetTickButton@@QAE@XZ ENDP				; CSetTickButton::~CSetTickButton
; Function compile flags: /Ogtp
; File D:\git\src\IBK\IBK_DRFN\ProjSrc\SrcDrfn\Chart\MULTICHART\MiniTickBarDlg.cpp
;	COMDAT ??0CSetTickButton@@QAE@XZ
_TEXT	SEGMENT
??0CSetTickButton@@QAE@XZ PROC				; CSetTickButton::CSetTickButton, COMDAT
; _this$ = ecx

; 22   : {

  00000	57		 push	 edi

; 23   : 	m_pSetTick = new ST_SETTICK[DEF_SIZE];

  00001	68 b8 00 00 00	 push	 184			; 000000b8H
  00006	8b f9		 mov	 edi, ecx
  00008	e8 00 00 00 00	 call	 ??_U@YAPAXI@Z		; operator new[]
  0000d	83 c4 04	 add	 esp, 4
  00010	85 c0		 test	 eax, eax
  00012	74 25		 je	 SHORT $LN3@CSetTickBu
  00014	56		 push	 esi
  00015	68 00 00 00 00	 push	 OFFSET ??1_ST_SETTICK@@QAE@XZ
  0001a	68 00 00 00 00	 push	 OFFSET ??0_ST_SETTICK@@QAE@XZ
  0001f	6a 09		 push	 9
  00021	8d 70 04	 lea	 esi, DWORD PTR [eax+4]
  00024	c7 00 09 00 00
	00		 mov	 DWORD PTR [eax], 9
  0002a	6a 14		 push	 20			; 00000014H
  0002c	56		 push	 esi
  0002d	e8 00 00 00 00	 call	 ??_L@YGXPAXIIP6EX0@Z1@Z
  00032	89 37		 mov	 DWORD PTR [edi], esi

; 24   : }

  00034	8b c7		 mov	 eax, edi
  00036	5e		 pop	 esi
  00037	5f		 pop	 edi
  00038	c3		 ret	 0
$LN3@CSetTickBu:

; 23   : 	m_pSetTick = new ST_SETTICK[DEF_SIZE];

  00039	c7 07 00 00 00
	00		 mov	 DWORD PTR [edi], 0

; 24   : }

  0003f	8b c7		 mov	 eax, edi
  00041	5f		 pop	 edi
  00042	c3		 ret	 0
??0CSetTickButton@@QAE@XZ ENDP				; CSetTickButton::CSetTickButton
_TEXT	ENDS
; Function compile flags: /Ogtp
;	COMDAT ??_E_ST_SETTICK@@QAEPAXI@Z
_TEXT	SEGMENT
__$EHRec$ = -12						; size = 12
___flags$ = 8						; size = 4
??_E_ST_SETTICK@@QAEPAXI@Z PROC				; _ST_SETTICK::`vector deleting destructor', COMDAT
; _this$ = ecx
  00000	55		 push	 ebp
  00001	8b ec		 mov	 ebp, esp
  00003	6a ff		 push	 -1
  00005	68 00 00 00 00	 push	 __ehhandler$??_E_ST_SETTICK@@QAEPAXI@Z
  0000a	64 a1 00 00 00
	00		 mov	 eax, DWORD PTR fs:0
  00010	50		 push	 eax
  00011	53		 push	 ebx
  00012	56		 push	 esi
  00013	57		 push	 edi
  00014	a1 00 00 00 00	 mov	 eax, DWORD PTR ___security_cookie
  00019	33 c5		 xor	 eax, ebp
  0001b	50		 push	 eax
  0001c	8d 45 f4	 lea	 eax, DWORD PTR __$EHRec$[ebp]
  0001f	64 a3 00 00 00
	00		 mov	 DWORD PTR fs:0, eax
  00025	8b f1		 mov	 esi, ecx
  00027	8b 45 08	 mov	 eax, DWORD PTR ___flags$[ebp]
  0002a	8b d8		 mov	 ebx, eax
  0002c	83 e3 01	 and	 ebx, 1
  0002f	a8 02		 test	 al, 2
  00031	74 43		 je	 SHORT $LN2@vector
  00033	68 00 00 00 00	 push	 OFFSET ??1_ST_SETTICK@@QAE@XZ
  00038	ff 76 fc	 push	 DWORD PTR [esi-4]
  0003b	8d 7e fc	 lea	 edi, DWORD PTR [esi-4]
  0003e	6a 14		 push	 20			; 00000014H
  00040	56		 push	 esi
  00041	e8 00 00 00 00	 call	 ??_M@YGXPAXIIP6EX0@Z@Z
  00046	85 db		 test	 ebx, ebx
  00048	74 16		 je	 SHORT $LN3@vector
  0004a	8b 0f		 mov	 ecx, DWORD PTR [edi]
  0004c	8d 0c 89	 lea	 ecx, DWORD PTR [ecx+ecx*4]
  0004f	8d 0c 8d 04 00
	00 00		 lea	 ecx, DWORD PTR [ecx*4+4]
  00056	51		 push	 ecx
  00057	57		 push	 edi
  00058	e8 00 00 00 00	 call	 ??_V@YAXPAXI@Z		; operator delete[]
  0005d	83 c4 08	 add	 esp, 8
$LN3@vector:
  00060	8b c7		 mov	 eax, edi
  00062	8b 4d f4	 mov	 ecx, DWORD PTR __$EHRec$[ebp]
  00065	64 89 0d 00 00
	00 00		 mov	 DWORD PTR fs:0, ecx
  0006c	59		 pop	 ecx
  0006d	5f		 pop	 edi
  0006e	5e		 pop	 esi
  0006f	5b		 pop	 ebx
  00070	8b e5		 mov	 esp, ebp
  00072	5d		 pop	 ebp
  00073	c2 04 00	 ret	 4
$LN2@vector:
  00076	ff 15 00 00 00
	00		 call	 DWORD PTR __imp_??1?$CStringT@DV?$StrTraitMFC_DLL@DV?$ChTraitsCRT@D@ATL@@@@@ATL@@QAE@XZ
  0007c	85 db		 test	 ebx, ebx
  0007e	74 0b		 je	 SHORT $LN4@vector
  00080	6a 14		 push	 20			; 00000014H
  00082	56		 push	 esi
  00083	e8 00 00 00 00	 call	 ??3@YAXPAXI@Z		; operator delete
  00088	83 c4 08	 add	 esp, 8
$LN4@vector:
  0008b	8b c6		 mov	 eax, esi
  0008d	8b 4d f4	 mov	 ecx, DWORD PTR __$EHRec$[ebp]
  00090	64 89 0d 00 00
	00 00		 mov	 DWORD PTR fs:0, ecx
  00097	59		 pop	 ecx
  00098	5f		 pop	 edi
  00099	5e		 pop	 esi
  0009a	5b		 pop	 ebx
  0009b	8b e5		 mov	 esp, ebp
  0009d	5d		 pop	 ebp
  0009e	c2 04 00	 ret	 4
  000a1	cc		 int	 3
  000a2	cc		 int	 3
  000a3	cc		 int	 3
  000a4	cc		 int	 3
  000a5	cc		 int	 3
_TEXT	ENDS
;	COMDAT text$x
text$x	SEGMENT
__ehhandler$??_E_ST_SETTICK@@QAEPAXI@Z:
  00000	90		 npad	 1
  00001	90		 npad	 1
  00002	8b 54 24 08	 mov	 edx, DWORD PTR [esp+8]
  00006	8d 42 0c	 lea	 eax, DWORD PTR [edx+12]
  00009	8b 4a f0	 mov	 ecx, DWORD PTR [edx-16]
  0000c	33 c8		 xor	 ecx, eax
  0000e	e8 00 00 00 00	 call	 @__security_check_cookie@4
  00013	b8 00 00 00 00	 mov	 eax, OFFSET __ehfuncinfo$??_E_ST_SETTICK@@QAEPAXI@Z
  00018	e9 00 00 00 00	 jmp	 ___CxxFrameHandler3
text$x	ENDS
??_E_ST_SETTICK@@QAEPAXI@Z ENDP				; _ST_SETTICK::`vector deleting destructor'
; Function compile flags: /Ogtp
;	COMDAT ??1_ST_SETTICK@@QAE@XZ
_TEXT	SEGMENT
??1_ST_SETTICK@@QAE@XZ PROC				; _ST_SETTICK::~_ST_SETTICK, COMDAT
; _this$ = ecx
  00000	ff 25 00 00 00
	00		 jmp	 DWORD PTR __imp_??1?$CStringT@DV?$StrTraitMFC_DLL@DV?$ChTraitsCRT@D@ATL@@@@@ATL@@QAE@XZ
??1_ST_SETTICK@@QAE@XZ ENDP				; _ST_SETTICK::~_ST_SETTICK
_TEXT	ENDS
; Function compile flags: /Ogtp
;	COMDAT ??0_ST_SETTICK@@QAE@XZ
_TEXT	SEGMENT
??0_ST_SETTICK@@QAE@XZ PROC				; _ST_SETTICK::_ST_SETTICK, COMDAT
; _this$ = ecx
  00000	56		 push	 esi
  00001	8b f1		 mov	 esi, ecx
  00003	ff 15 00 00 00
	00		 call	 DWORD PTR __imp_??0?$CStringT@DV?$StrTraitMFC_DLL@DV?$ChTraitsCRT@D@ATL@@@@@ATL@@QAE@XZ
  00009	8b c6		 mov	 eax, esi
  0000b	5e		 pop	 esi
  0000c	c3		 ret	 0
??0_ST_SETTICK@@QAE@XZ ENDP				; _ST_SETTICK::_ST_SETTICK
_TEXT	ENDS
; Function compile flags: /Ogtp
; File C:\Program Files (x86)\Microsoft Visual Studio\2019\Community\VC\Tools\MSVC\14.29.30133\atlmfc\include\afxtempl.h
; File C:\Program Files (x86)\Microsoft Visual Studio\2019\Community\VC\Tools\MSVC\14.29.30133\atlmfc\include\afxwin1.inl
;	COMDAT ??1CInputBarDlg@@UAE@XZ
_TEXT	SEGMENT
__$EHRec$ = -12						; size = 12
??1CInputBarDlg@@UAE@XZ PROC				; CInputBarDlg::~CInputBarDlg, COMDAT
; _this$ = ecx
  00000	55		 push	 ebp
  00001	8b ec		 mov	 ebp, esp
  00003	6a ff		 push	 -1
  00005	68 00 00 00 00	 push	 __ehhandler$??1CInputBarDlg@@UAE@XZ
  0000a	64 a1 00 00 00
	00		 mov	 eax, DWORD PTR fs:0
  00010	50		 push	 eax
  00011	56		 push	 esi
  00012	a1 00 00 00 00	 mov	 eax, DWORD PTR ___security_cookie
  00017	33 c5		 xor	 eax, ebp
  00019	50		 push	 eax
  0001a	8d 45 f4	 lea	 eax, DWORD PTR __$EHRec$[ebp]
  0001d	64 a3 00 00 00
	00		 mov	 DWORD PTR fs:0, eax
  00023	8b f1		 mov	 esi, ecx
  00025	8d 8e 14 2d 00
	00		 lea	 ecx, DWORD PTR [esi+11540]
  0002b	ff 15 00 00 00
	00		 call	 DWORD PTR __imp_??1?$CStringT@DV?$StrTraitMFC_DLL@DV?$ChTraitsCRT@D@ATL@@@@@ATL@@QAE@XZ
; File C:\Program Files (x86)\Microsoft Visual Studio\2019\Community\VC\Tools\MSVC\14.29.30133\atlmfc\include\afxtempl.h

; 872  : 	m_pBlocks->FreeDataChain();

  00031	8b 8e 38 2c 00
	00		 mov	 ecx, DWORD PTR [esi+11320]

; 878  : {

  00037	c7 45 fc 00 00
	00 00		 mov	 DWORD PTR __$EHRec$[ebp+8], 0
  0003e	c7 86 24 2c 00
	00 00 00 00 00	 mov	 DWORD PTR [esi+11300], OFFSET ??_7?$CList@PAVCHistory@@PAV1@@@6B@

; 870  : 	m_nCount = 0;

  00048	c7 86 30 2c 00
	00 00 00 00 00	 mov	 DWORD PTR [esi+11312], 0

; 871  : 	m_pNodeHead = m_pNodeTail = m_pNodeFree = NULL;

  00052	c7 86 34 2c 00
	00 00 00 00 00	 mov	 DWORD PTR [esi+11316], 0
  0005c	c7 86 2c 2c 00
	00 00 00 00 00	 mov	 DWORD PTR [esi+11308], 0
  00066	c7 86 28 2c 00
	00 00 00 00 00	 mov	 DWORD PTR [esi+11304], 0

; 872  : 	m_pBlocks->FreeDataChain();

  00070	e8 00 00 00 00	 call	 ?FreeDataChain@CPlex@@QAEXXZ ; CPlex::FreeDataChain

; 873  : 	m_pBlocks = NULL;

  00075	c7 86 38 2c 00
	00 00 00 00 00	 mov	 DWORD PTR [esi+11320], 0

; 872  : 	m_pBlocks->FreeDataChain();

  0007f	8b 8e 1c 2c 00
	00		 mov	 ecx, DWORD PTR [esi+11292]

; 878  : {

  00085	c7 45 fc 01 00
	00 00		 mov	 DWORD PTR __$EHRec$[ebp+8], 1
  0008c	c7 86 08 2c 00
	00 00 00 00 00	 mov	 DWORD PTR [esi+11272], OFFSET ??_7?$CList@PAVCHistory@@PAV1@@@6B@

; 870  : 	m_nCount = 0;

  00096	c7 86 14 2c 00
	00 00 00 00 00	 mov	 DWORD PTR [esi+11284], 0

; 871  : 	m_pNodeHead = m_pNodeTail = m_pNodeFree = NULL;

  000a0	c7 86 18 2c 00
	00 00 00 00 00	 mov	 DWORD PTR [esi+11288], 0
  000aa	c7 86 10 2c 00
	00 00 00 00 00	 mov	 DWORD PTR [esi+11280], 0
  000b4	c7 86 0c 2c 00
	00 00 00 00 00	 mov	 DWORD PTR [esi+11276], 0

; 872  : 	m_pBlocks->FreeDataChain();

  000be	e8 00 00 00 00	 call	 ?FreeDataChain@CPlex@@QAEXXZ ; CPlex::FreeDataChain

; 873  : 	m_pBlocks = NULL;

  000c3	c7 86 1c 2c 00
	00 00 00 00 00	 mov	 DWORD PTR [esi+11292], 0

; 872  : 	m_pBlocks->FreeDataChain();

  000cd	8b 8e 00 2c 00
	00		 mov	 ecx, DWORD PTR [esi+11264]

; 878  : {

  000d3	c7 45 fc 02 00
	00 00		 mov	 DWORD PTR __$EHRec$[ebp+8], 2
  000da	c7 86 ec 2b 00
	00 00 00 00 00	 mov	 DWORD PTR [esi+11244], OFFSET ??_7?$CList@PAVCHistory@@PAV1@@@6B@

; 870  : 	m_nCount = 0;

  000e4	c7 86 f8 2b 00
	00 00 00 00 00	 mov	 DWORD PTR [esi+11256], 0

; 871  : 	m_pNodeHead = m_pNodeTail = m_pNodeFree = NULL;

  000ee	c7 86 fc 2b 00
	00 00 00 00 00	 mov	 DWORD PTR [esi+11260], 0
  000f8	c7 86 f4 2b 00
	00 00 00 00 00	 mov	 DWORD PTR [esi+11252], 0
  00102	c7 86 f0 2b 00
	00 00 00 00 00	 mov	 DWORD PTR [esi+11248], 0

; 872  : 	m_pBlocks->FreeDataChain();

  0010c	e8 00 00 00 00	 call	 ?FreeDataChain@CPlex@@QAEXXZ ; CPlex::FreeDataChain

; 873  : 	m_pBlocks = NULL;

  00111	c7 86 00 2c 00
	00 00 00 00 00	 mov	 DWORD PTR [esi+11264], 0

; 872  : 	m_pBlocks->FreeDataChain();

  0011b	8b 8e e4 2b 00
	00		 mov	 ecx, DWORD PTR [esi+11236]

; 878  : {

  00121	c7 45 fc 03 00
	00 00		 mov	 DWORD PTR __$EHRec$[ebp+8], 3
  00128	c7 86 d0 2b 00
	00 00 00 00 00	 mov	 DWORD PTR [esi+11216], OFFSET ??_7?$CList@PAVCHistory@@PAV1@@@6B@

; 870  : 	m_nCount = 0;

  00132	c7 86 dc 2b 00
	00 00 00 00 00	 mov	 DWORD PTR [esi+11228], 0

; 871  : 	m_pNodeHead = m_pNodeTail = m_pNodeFree = NULL;

  0013c	c7 86 e0 2b 00
	00 00 00 00 00	 mov	 DWORD PTR [esi+11232], 0
  00146	c7 86 d8 2b 00
	00 00 00 00 00	 mov	 DWORD PTR [esi+11224], 0
  00150	c7 86 d4 2b 00
	00 00 00 00 00	 mov	 DWORD PTR [esi+11220], 0

; 872  : 	m_pBlocks->FreeDataChain();

  0015a	e8 00 00 00 00	 call	 ?FreeDataChain@CPlex@@QAEXXZ ; CPlex::FreeDataChain
  0015f	8d 8e c0 2b 00
	00		 lea	 ecx, DWORD PTR [esi+11200]

; 873  : 	m_pBlocks = NULL;

  00165	c7 86 e4 2b 00
	00 00 00 00 00	 mov	 DWORD PTR [esi+11236], 0
  0016f	ff 15 00 00 00
	00		 call	 DWORD PTR __imp_??1?$CStringT@DV?$StrTraitMFC_DLL@DV?$ChTraitsCRT@D@ATL@@@@@ATL@@QAE@XZ
  00175	8d 8e bc 2b 00
	00		 lea	 ecx, DWORD PTR [esi+11196]
  0017b	ff 15 00 00 00
	00		 call	 DWORD PTR __imp_??1?$CStringT@DV?$StrTraitMFC_DLL@DV?$ChTraitsCRT@D@ATL@@@@@ATL@@QAE@XZ
  00181	8d 8e 9c 2b 00
	00		 lea	 ecx, DWORD PTR [esi+11164]
; File C:\Program Files (x86)\Microsoft Visual Studio\2019\Community\VC\Tools\MSVC\14.29.30133\atlmfc\include\afxwin1.inl

; 130  : 	{ }

  00187	c7 01 00 00 00
	00		 mov	 DWORD PTR [ecx], OFFSET ??_7CBrush@@6B@
  0018d	e8 00 00 00 00	 call	 ??1CGdiObject@@UAE@XZ	; CGdiObject::~CGdiObject
  00192	8d 8e f8 2a 00
	00		 lea	 ecx, DWORD PTR [esi+11000]
  00198	e8 00 00 00 00	 call	 ??1CButton@@UAE@XZ	; CButton::~CButton
  0019d	8d 8e 70 2a 00
	00		 lea	 ecx, DWORD PTR [esi+10864]
  001a3	e8 00 00 00 00	 call	 ??1CEditUsr@@UAE@XZ	; CEditUsr::~CEditUsr
  001a8	8d 8e f0 29 00
	00		 lea	 ecx, DWORD PTR [esi+10736]
  001ae	e8 00 00 00 00	 call	 ??1CStatic@@UAE@XZ	; CStatic::~CStatic
  001b3	8d 8e 90 28 00
	00		 lea	 ecx, DWORD PTR [esi+10384]
  001b9	e8 00 00 00 00	 call	 ??1CILButton@@UAE@XZ	; CILButton::~CILButton
  001be	8d 8e 30 27 00
	00		 lea	 ecx, DWORD PTR [esi+10032]
  001c4	e8 00 00 00 00	 call	 ??1CILButton@@UAE@XZ	; CILButton::~CILButton
  001c9	8d 8e d0 25 00
	00		 lea	 ecx, DWORD PTR [esi+9680]
  001cf	e8 00 00 00 00	 call	 ??1CILButton@@UAE@XZ	; CILButton::~CILButton
  001d4	8d 8e 50 25 00
	00		 lea	 ecx, DWORD PTR [esi+9552]
  001da	e8 00 00 00 00	 call	 ??1CSpinButtonCtrl@@UAE@XZ ; CSpinButtonCtrl::~CSpinButtonCtrl
  001df	8d 8e f0 23 00
	00		 lea	 ecx, DWORD PTR [esi+9200]
  001e5	e8 00 00 00 00	 call	 ??1CILButton@@UAE@XZ	; CILButton::~CILButton
  001ea	8d 8e 68 22 00
	00		 lea	 ecx, DWORD PTR [esi+8808]
  001f0	e8 00 00 00 00	 call	 ??1CILButton@@UAE@XZ	; CILButton::~CILButton
  001f5	8d 8e 08 21 00
	00		 lea	 ecx, DWORD PTR [esi+8456]
  001fb	e8 00 00 00 00	 call	 ??1CILButton@@UAE@XZ	; CILButton::~CILButton
  00200	8d 8e 88 20 00
	00		 lea	 ecx, DWORD PTR [esi+8328]
  00206	e8 00 00 00 00	 call	 ??1CStatic@@UAE@XZ	; CStatic::~CStatic
  0020b	8d 8e 00 20 00
	00		 lea	 ecx, DWORD PTR [esi+8192]
  00211	e8 00 00 00 00	 call	 ??1CStatic@@UAE@XZ	; CStatic::~CStatic
  00216	8d 8e 78 1f 00
	00		 lea	 ecx, DWORD PTR [esi+8056]
  0021c	e8 00 00 00 00	 call	 ??1CEditUsr@@UAE@XZ	; CEditUsr::~CEditUsr
  00221	8d 8e f0 1e 00
	00		 lea	 ecx, DWORD PTR [esi+7920]
  00227	e8 00 00 00 00	 call	 ??1CExEdit@@UAE@XZ	; CExEdit::~CExEdit
  0022c	8d 8e 90 1d 00
	00		 lea	 ecx, DWORD PTR [esi+7568]
  00232	e8 00 00 00 00	 call	 ??1CILButton@@UAE@XZ	; CILButton::~CILButton
  00237	8d 8e 30 1c 00
	00		 lea	 ecx, DWORD PTR [esi+7216]
  0023d	e8 00 00 00 00	 call	 ??1CILButton@@UAE@XZ	; CILButton::~CILButton
  00242	8d 8e d0 1a 00
	00		 lea	 ecx, DWORD PTR [esi+6864]
  00248	e8 00 00 00 00	 call	 ??1CILButton@@UAE@XZ	; CILButton::~CILButton
  0024d	8d 8e 70 19 00
	00		 lea	 ecx, DWORD PTR [esi+6512]
  00253	e8 00 00 00 00	 call	 ??1CILButton@@UAE@XZ	; CILButton::~CILButton
  00258	8d 8e 10 18 00
	00		 lea	 ecx, DWORD PTR [esi+6160]
  0025e	e8 00 00 00 00	 call	 ??1CILButton@@UAE@XZ	; CILButton::~CILButton
  00263	8d 8e b0 16 00
	00		 lea	 ecx, DWORD PTR [esi+5808]
  00269	e8 00 00 00 00	 call	 ??1CILButton@@UAE@XZ	; CILButton::~CILButton
  0026e	8d 8e 50 15 00
	00		 lea	 ecx, DWORD PTR [esi+5456]
  00274	e8 00 00 00 00	 call	 ??1CILButton@@UAE@XZ	; CILButton::~CILButton
  00279	8d 8e c8 14 00
	00		 lea	 ecx, DWORD PTR [esi+5320]
  0027f	e8 00 00 00 00	 call	 ??1CExStatic@@UAE@XZ	; CExStatic::~CExStatic
  00284	8d 8e 48 14 00
	00		 lea	 ecx, DWORD PTR [esi+5192]
  0028a	e8 00 00 00 00	 call	 ??1CComboBox@@UAE@XZ	; CComboBox::~CComboBox
  0028f	8d 8e e8 12 00
	00		 lea	 ecx, DWORD PTR [esi+4840]
  00295	e8 00 00 00 00	 call	 ??1CILButton@@UAE@XZ	; CILButton::~CILButton
  0029a	8d 8e 88 11 00
	00		 lea	 ecx, DWORD PTR [esi+4488]
  002a0	e8 00 00 00 00	 call	 ??1CILButton@@UAE@XZ	; CILButton::~CILButton
  002a5	8d 8e 00 11 00
	00		 lea	 ecx, DWORD PTR [esi+4352]
  002ab	e8 00 00 00 00	 call	 ??1CExComboBox@@UAE@XZ	; CExComboBox::~CExComboBox
  002b0	8d 8e 78 10 00
	00		 lea	 ecx, DWORD PTR [esi+4216]
  002b6	e8 00 00 00 00	 call	 ??1CExComboBox@@UAE@XZ	; CExComboBox::~CExComboBox
  002bb	8d 8e f0 0f 00
	00		 lea	 ecx, DWORD PTR [esi+4080]
  002c1	e8 00 00 00 00	 call	 ??1CExComboBox@@UAE@XZ	; CExComboBox::~CExComboBox
  002c6	8d 8e 68 0f 00
	00		 lea	 ecx, DWORD PTR [esi+3944]
  002cc	e8 00 00 00 00	 call	 ??1CExComboBox@@UAE@XZ	; CExComboBox::~CExComboBox
  002d1	8d 8e 08 0e 00
	00		 lea	 ecx, DWORD PTR [esi+3592]
  002d7	e8 00 00 00 00	 call	 ??1CILButton@@UAE@XZ	; CILButton::~CILButton
  002dc	8d 8e a8 0c 00
	00		 lea	 ecx, DWORD PTR [esi+3240]
  002e2	e8 00 00 00 00	 call	 ??1CILButton@@UAE@XZ	; CILButton::~CILButton
  002e7	8d 8e 48 0b 00
	00		 lea	 ecx, DWORD PTR [esi+2888]
  002ed	e8 00 00 00 00	 call	 ??1CILButton@@UAE@XZ	; CILButton::~CILButton
  002f2	8d 8e e8 09 00
	00		 lea	 ecx, DWORD PTR [esi+2536]
  002f8	e8 00 00 00 00	 call	 ??1CILButton@@UAE@XZ	; CILButton::~CILButton
  002fd	8d 8e 88 08 00
	00		 lea	 ecx, DWORD PTR [esi+2184]
  00303	e8 00 00 00 00	 call	 ??1CILButton@@UAE@XZ	; CILButton::~CILButton
  00308	8d 8e 28 07 00
	00		 lea	 ecx, DWORD PTR [esi+1832]
  0030e	e8 00 00 00 00	 call	 ??1CILButton@@UAE@XZ	; CILButton::~CILButton
  00313	8d 8e a0 06 00
	00		 lea	 ecx, DWORD PTR [esi+1696]
  00319	e8 00 00 00 00	 call	 ??1CExComboBox@@UAE@XZ	; CExComboBox::~CExComboBox
  0031e	8d 8e 20 06 00
	00		 lea	 ecx, DWORD PTR [esi+1568]
  00324	e8 00 00 00 00	 call	 ??1CButton@@UAE@XZ	; CButton::~CButton
  00329	8d 8e 98 05 00
	00		 lea	 ecx, DWORD PTR [esi+1432]
  0032f	e8 00 00 00 00	 call	 ??1CExComboBox@@UAE@XZ	; CExComboBox::~CExComboBox
  00334	8d 8e 18 05 00
	00		 lea	 ecx, DWORD PTR [esi+1304]
  0033a	e8 00 00 00 00	 call	 ??1CStatic@@UAE@XZ	; CStatic::~CStatic
  0033f	8d 8e 68 04 00
	00		 lea	 ecx, DWORD PTR [esi+1128]
  00345	e8 00 00 00 00	 call	 ??1CTextProgressCtrl@@UAE@XZ ; CTextProgressCtrl::~CTextProgressCtrl
  0034a	8d 8e 08 03 00
	00		 lea	 ecx, DWORD PTR [esi+776]
  00350	e8 00 00 00 00	 call	 ??1CILButton@@UAE@XZ	; CILButton::~CILButton
  00355	8d 8e 88 02 00
	00		 lea	 ecx, DWORD PTR [esi+648]
  0035b	e8 00 00 00 00	 call	 ??1CComboBox@@UAE@XZ	; CComboBox::~CComboBox
  00360	8d 8e 28 01 00
	00		 lea	 ecx, DWORD PTR [esi+296]
  00366	e8 00 00 00 00	 call	 ??1CILButton@@UAE@XZ	; CILButton::~CILButton
  0036b	8d 8e 00 01 00
	00		 lea	 ecx, DWORD PTR [esi+256]
  00371	ff 15 00 00 00
	00		 call	 DWORD PTR __imp_??1?$CStringT@DV?$StrTraitMFC_DLL@DV?$ChTraitsCRT@D@ATL@@@@@ATL@@QAE@XZ
  00377	8d 8e fc 00 00
	00		 lea	 ecx, DWORD PTR [esi+252]
  0037d	ff 15 00 00 00
	00		 call	 DWORD PTR __imp_??1?$CStringT@DV?$StrTraitMFC_DLL@DV?$ChTraitsCRT@D@ATL@@@@@ATL@@QAE@XZ
  00383	8d 8e f8 00 00
	00		 lea	 ecx, DWORD PTR [esi+248]
  00389	ff 15 00 00 00
	00		 call	 DWORD PTR __imp_??1?$CStringT@DV?$StrTraitMFC_DLL@DV?$ChTraitsCRT@D@ATL@@@@@ATL@@QAE@XZ
  0038f	8d 8e c8 00 00
	00		 lea	 ecx, DWORD PTR [esi+200]
  00395	ff 15 00 00 00
	00		 call	 DWORD PTR __imp_??1?$CStringT@DV?$StrTraitMFC_DLL@DV?$ChTraitsCRT@D@ATL@@@@@ATL@@QAE@XZ
  0039b	8b ce		 mov	 ecx, esi
  0039d	e8 00 00 00 00	 call	 ??1CDialog@@UAE@XZ	; CDialog::~CDialog
  003a2	8b 4d f4	 mov	 ecx, DWORD PTR __$EHRec$[ebp]
  003a5	64 89 0d 00 00
	00 00		 mov	 DWORD PTR fs:0, ecx
  003ac	59		 pop	 ecx
  003ad	5e		 pop	 esi
  003ae	8b e5		 mov	 esp, ebp
  003b0	5d		 pop	 ebp
  003b1	c3		 ret	 0
  003b2	cc		 int	 3
  003b3	cc		 int	 3
  003b4	cc		 int	 3
  003b5	cc		 int	 3
  003b6	cc		 int	 3
_TEXT	ENDS
;	COMDAT text$x
text$x	SEGMENT
__ehhandler$??1CInputBarDlg@@UAE@XZ:
  00000	90		 npad	 1
  00001	90		 npad	 1
  00002	8b 54 24 08	 mov	 edx, DWORD PTR [esp+8]
  00006	8d 42 0c	 lea	 eax, DWORD PTR [edx+12]
  00009	8b 4a f8	 mov	 ecx, DWORD PTR [edx-8]
  0000c	33 c8		 xor	 ecx, eax
  0000e	e8 00 00 00 00	 call	 @__security_check_cookie@4
  00013	b8 00 00 00 00	 mov	 eax, OFFSET __ehfuncinfo$??1CInputBarDlg@@UAE@XZ
  00018	e9 00 00 00 00	 jmp	 ___CxxFrameHandler3
text$x	ENDS
??1CInputBarDlg@@UAE@XZ ENDP				; CInputBarDlg::~CInputBarDlg
; Function compile flags: /Ogtp
; File D:\git\src\IBK\IBK_DRFN\ProjSrc\SrcDrfn\Chart\MULTICHART\InputBarDlg.h
;	COMDAT ?OnOK@CInputBarDlg@@MAEXXZ
_TEXT	SEGMENT
?OnOK@CInputBarDlg@@MAEXXZ PROC				; CInputBarDlg::OnOK, COMDAT
; _this$ = ecx

; 537  : 	virtual void OnOK(){}

  00000	c2 00 00	 ret	 0
?OnOK@CInputBarDlg@@MAEXXZ ENDP				; CInputBarDlg::OnOK
_TEXT	ENDS
; Function compile flags: /Ogtp
; File D:\git\src\IBK\IBK_DRFN\ProjSrc\SrcDrfn\Chart\MULTICHART\InputBarDlg.h
;	COMDAT ?OnCancel@CInputBarDlg@@MAEXXZ
_TEXT	SEGMENT
?OnCancel@CInputBarDlg@@MAEXXZ PROC			; CInputBarDlg::OnCancel, COMDAT
; _this$ = ecx

; 536  : 	virtual void OnCancel(){}

  00000	c2 00 00	 ret	 0
?OnCancel@CInputBarDlg@@MAEXXZ ENDP			; CInputBarDlg::OnCancel
_TEXT	ENDS
; Function compile flags: /Ogtp
; File D:\git\src\IBK\IBK_DRFN\ProjSrc\SrcDrfn\Chart\MULTICHART\InputBarDlg.h
;	COMDAT ?RecievedChartMng@CInputBarDlg@@UAEXXZ
_TEXT	SEGMENT
?RecievedChartMng@CInputBarDlg@@UAEXXZ PROC		; CInputBarDlg::RecievedChartMng, COMDAT
; _this$ = ecx

; 514  : 	virtual void RecievedChartMng() {};

  00000	c2 00 00	 ret	 0
?RecievedChartMng@CInputBarDlg@@UAEXXZ ENDP		; CInputBarDlg::RecievedChartMng
_TEXT	ENDS
; Function compile flags: /Ogtp
; File D:\git\src\IBK\IBK_DRFN\ProjSrc\SrcDrfn\Chart\MULTICHART\InputBarDlg.h
;	COMDAT ?CreatedChartMng@CInputBarDlg@@UAEXXZ
_TEXT	SEGMENT
?CreatedChartMng@CInputBarDlg@@UAEXXZ PROC		; CInputBarDlg::CreatedChartMng, COMDAT
; _this$ = ecx

; 513  : 	virtual void CreatedChartMng() {};

  00000	c2 00 00	 ret	 0
?CreatedChartMng@CInputBarDlg@@UAEXXZ ENDP		; CInputBarDlg::CreatedChartMng
_TEXT	ENDS
; Function compile flags: /Ogtp
; File C:\Program Files (x86)\Microsoft Visual Studio\2019\Community\VC\Tools\MSVC\14.29.30133\atlmfc\include\afxtempl.h
; File C:\Program Files (x86)\Microsoft Visual Studio\2019\Community\VC\Tools\MSVC\14.29.30133\atlmfc\include\afx.inl
;	COMDAT ??_G?$CList@PAVCHistory@@PAV1@@@UAEPAXI@Z
_TEXT	SEGMENT
__$EHRec$ = -12						; size = 12
___flags$ = 8						; size = 4
??_G?$CList@PAVCHistory@@PAV1@@@UAEPAXI@Z PROC		; CList<CHistory *,CHistory *>::`scalar deleting destructor', COMDAT
; _this$ = ecx
  00000	55		 push	 ebp
  00001	8b ec		 mov	 ebp, esp
  00003	6a ff		 push	 -1
  00005	68 00 00 00 00	 push	 __ehhandler$??_G?$CList@PAVCHistory@@PAV1@@@UAEPAXI@Z
  0000a	64 a1 00 00 00
	00		 mov	 eax, DWORD PTR fs:0
  00010	50		 push	 eax
  00011	56		 push	 esi
  00012	a1 00 00 00 00	 mov	 eax, DWORD PTR ___security_cookie
  00017	33 c5		 xor	 eax, ebp
  00019	50		 push	 eax
  0001a	8d 45 f4	 lea	 eax, DWORD PTR __$EHRec$[ebp]
  0001d	64 a3 00 00 00
	00		 mov	 DWORD PTR fs:0, eax
  00023	8b f1		 mov	 esi, ecx
; File C:\Program Files (x86)\Microsoft Visual Studio\2019\Community\VC\Tools\MSVC\14.29.30133\atlmfc\include\afxtempl.h

; 872  : 	m_pBlocks->FreeDataChain();

  00025	8b 4e 14	 mov	 ecx, DWORD PTR [esi+20]

; 878  : {

  00028	c7 45 fc 00 00
	00 00		 mov	 DWORD PTR __$EHRec$[ebp+8], 0
  0002f	c7 06 00 00 00
	00		 mov	 DWORD PTR [esi], OFFSET ??_7?$CList@PAVCHistory@@PAV1@@@6B@

; 870  : 	m_nCount = 0;

  00035	c7 46 0c 00 00
	00 00		 mov	 DWORD PTR [esi+12], 0

; 871  : 	m_pNodeHead = m_pNodeTail = m_pNodeFree = NULL;

  0003c	c7 46 10 00 00
	00 00		 mov	 DWORD PTR [esi+16], 0
  00043	c7 46 08 00 00
	00 00		 mov	 DWORD PTR [esi+8], 0
  0004a	c7 46 04 00 00
	00 00		 mov	 DWORD PTR [esi+4], 0

; 872  : 	m_pBlocks->FreeDataChain();

  00051	e8 00 00 00 00	 call	 ?FreeDataChain@CPlex@@QAEXXZ ; CPlex::FreeDataChain

; 873  : 	m_pBlocks = NULL;

  00056	8b 45 08	 mov	 eax, DWORD PTR ___flags$[ebp]
  00059	c7 46 14 00 00
	00 00		 mov	 DWORD PTR [esi+20], 0
  00060	a8 01		 test	 al, 1
  00062	74 2c		 je	 SHORT $LN22@scalar
  00064	a8 04		 test	 al, 4
  00066	75 1d		 jne	 SHORT $LN3@scalar
; File C:\Program Files (x86)\Microsoft Visual Studio\2019\Community\VC\Tools\MSVC\14.29.30133\atlmfc\include\afx.inl

; 112  : 	{ ::operator delete(p); }

  00068	56		 push	 esi
  00069	e8 00 00 00 00	 call	 ??3@YAXPAX@Z		; operator delete
  0006e	83 c4 04	 add	 esp, 4
  00071	8b c6		 mov	 eax, esi
  00073	8b 4d f4	 mov	 ecx, DWORD PTR __$EHRec$[ebp]
  00076	64 89 0d 00 00
	00 00		 mov	 DWORD PTR fs:0, ecx
  0007d	59		 pop	 ecx
  0007e	5e		 pop	 esi
  0007f	8b e5		 mov	 esp, ebp
  00081	5d		 pop	 ebp
  00082	c2 04 00	 ret	 4
$LN3@scalar:
  00085	6a 1c		 push	 28			; 0000001cH
  00087	56		 push	 esi
  00088	e8 00 00 00 00	 call	 ?__global_delete@@YAXPAXI@Z ; __global_delete
  0008d	83 c4 08	 add	 esp, 8
$LN22@scalar:
  00090	8b c6		 mov	 eax, esi
  00092	8b 4d f4	 mov	 ecx, DWORD PTR __$EHRec$[ebp]
  00095	64 89 0d 00 00
	00 00		 mov	 DWORD PTR fs:0, ecx
  0009c	59		 pop	 ecx
  0009d	5e		 pop	 esi
  0009e	8b e5		 mov	 esp, ebp
  000a0	5d		 pop	 ebp
  000a1	c2 04 00	 ret	 4
  000a4	cc		 int	 3
  000a5	cc		 int	 3
  000a6	cc		 int	 3
  000a7	cc		 int	 3
  000a8	cc		 int	 3
_TEXT	ENDS
;	COMDAT text$x
text$x	SEGMENT
__ehhandler$??_G?$CList@PAVCHistory@@PAV1@@@UAEPAXI@Z:
  00000	90		 npad	 1
  00001	90		 npad	 1
  00002	8b 54 24 08	 mov	 edx, DWORD PTR [esp+8]
  00006	8d 42 0c	 lea	 eax, DWORD PTR [edx+12]
  00009	8b 4a f8	 mov	 ecx, DWORD PTR [edx-8]
  0000c	33 c8		 xor	 ecx, eax
  0000e	e8 00 00 00 00	 call	 @__security_check_cookie@4
  00013	b8 00 00 00 00	 mov	 eax, OFFSET __ehfuncinfo$??_G?$CList@PAVCHistory@@PAV1@@@UAEPAXI@Z
  00018	e9 00 00 00 00	 jmp	 ___CxxFrameHandler3
text$x	ENDS
??_G?$CList@PAVCHistory@@PAV1@@@UAEPAXI@Z ENDP		; CList<CHistory *,CHistory *>::`scalar deleting destructor'
; Function compile flags: /Ogtp
; File C:\Program Files (x86)\Microsoft Visual Studio\2019\Community\VC\Tools\MSVC\14.29.30133\atlmfc\include\afxtempl.h
; File C:\Program Files (x86)\Microsoft Visual Studio\2019\Community\VC\Tools\MSVC\14.29.30133\atlmfc\include\afx.inl
; File C:\Program Files (x86)\Microsoft Visual Studio\2019\Community\VC\Tools\MSVC\14.29.30133\atlmfc\include\afxtempl.h
; File C:\Program Files (x86)\Microsoft Visual Studio\2019\Community\VC\Tools\MSVC\14.29.30133\atlmfc\include\afx.inl
; File C:\Program Files (x86)\Microsoft Visual Studio\2019\Community\VC\Tools\MSVC\14.29.30133\atlmfc\include\afxtempl.h
; File C:\Program Files (x86)\Microsoft Visual Studio\2019\Community\VC\Tools\MSVC\14.29.30133\atlmfc\include\afx.inl
; File C:\Program Files (x86)\Microsoft Visual Studio\2019\Community\VC\Tools\MSVC\14.29.30133\atlmfc\include\afxtempl.h
; File C:\Program Files (x86)\Microsoft Visual Studio\2019\Community\VC\Tools\MSVC\14.29.30133\atlmfc\include\afx.inl
; File C:\Program Files (x86)\Microsoft Visual Studio\2019\Community\VC\Tools\MSVC\14.29.30133\atlmfc\include\afxtempl.h
; File C:\Program Files (x86)\Microsoft Visual Studio\2019\Community\VC\Tools\MSVC\14.29.30133\atlmfc\include\afx.inl
; File C:\Program Files (x86)\Microsoft Visual Studio\2019\Community\VC\Tools\MSVC\14.29.30133\atlmfc\include\afxtempl.h
; File C:\Program Files (x86)\Microsoft Visual Studio\2019\Community\VC\Tools\MSVC\14.29.30133\atlmfc\include\afx.inl
; File C:\Program Files (x86)\Microsoft Visual Studio\2019\Community\VC\Tools\MSVC\14.29.30133\atlmfc\include\afxtempl.h
;	COMDAT ?Serialize@?$CList@PAVCHistory@@PAV1@@@UAEXAAVCArchive@@@Z
_TEXT	SEGMENT
_nNewCount$1$ = -16					; size = 4
_newData$1 = -12					; size = 4
_pData$1$ = -8						; size = 4
_pData$1$ = -8						; size = 4
_pNode$1$ = -8						; size = 4
_nElementsLeft$1$ = -4					; size = 4
_this$1$ = -4						; size = 4
_ar$ = 8						; size = 4
?Serialize@?$CList@PAVCHistory@@PAV1@@@UAEXAAVCArchive@@@Z PROC ; CList<CHistory *,CHistory *>::Serialize, COMDAT
; _this$ = ecx

; 1169 : {

  00000	55		 push	 ebp
  00001	8b ec		 mov	 ebp, esp
  00003	83 ec 10	 sub	 esp, 16			; 00000010H
  00006	53		 push	 ebx
  00007	8b d9		 mov	 ebx, ecx
; File C:\Program Files (x86)\Microsoft Visual Studio\2019\Community\VC\Tools\MSVC\14.29.30133\atlmfc\include\afx.inl

; 212  : 	{ return (m_nMode & CArchive::load) == 0; }

  00009	8b 4d 08	 mov	 ecx, DWORD PTR _ar$[ebp]
; File C:\Program Files (x86)\Microsoft Visual Studio\2019\Community\VC\Tools\MSVC\14.29.30133\atlmfc\include\afxtempl.h

; 1169 : {

  0000c	56		 push	 esi
  0000d	57		 push	 edi
  0000e	89 5d fc	 mov	 DWORD PTR _this$1$[ebp], ebx
; File C:\Program Files (x86)\Microsoft Visual Studio\2019\Community\VC\Tools\MSVC\14.29.30133\atlmfc\include\afx.inl

; 212  : 	{ return (m_nMode & CArchive::load) == 0; }

  00011	8b 41 18	 mov	 eax, DWORD PTR [ecx+24]
  00014	f7 d0		 not	 eax
  00016	a8 01		 test	 al, 1
; File C:\Program Files (x86)\Microsoft Visual Studio\2019\Community\VC\Tools\MSVC\14.29.30133\atlmfc\include\afxtempl.h

; 1174 : 	if (ar.IsStoring())

  00018	0f 84 ae 00 00
	00		 je	 $LN7@Serialize

; 1175 : 	{
; 1176 : 		ar.WriteCount(m_nCount);

  0001e	ff 73 0c	 push	 DWORD PTR [ebx+12]
  00021	e8 00 00 00 00	 call	 ?WriteCount@CArchive@@QAEXK@Z ; CArchive::WriteCount

; 1177 : 		for (CNode* pNode = m_pNodeHead; pNode != NULL; pNode = pNode->pNext)

  00026	8b 43 04	 mov	 eax, DWORD PTR [ebx+4]
  00029	89 45 f8	 mov	 DWORD PTR _pNode$1$[ebp], eax
  0002c	85 c0		 test	 eax, eax
  0002e	0f 84 b9 01 00
	00		 je	 $LN86@Serialize
$LL4@Serialize:

; 1178 : 		{
; 1179 : 			ASSERT(AfxIsValidAddress(pNode, sizeof(CNode)));
; 1180 : 			TYPE* pData;
; 1181 : 			/*
; 1182 : 			 * in some cases the & operator might be overloaded, and we cannot use it to obtain
; 1183 : 			 * the address of a given object.  We then use the following trick to get the address
; 1184 : 			 */
; 1185 : 			pData = reinterpret_cast< TYPE* >( &reinterpret_cast< int& >( static_cast< TYPE& >( pNode->data ) ) );

  00034	8d 70 08	 lea	 esi, DWORD PTR [eax+8]

; 68   : 	ENSURE(nCount == 0 || pElements != NULL);

  00037	85 f6		 test	 esi, esi
  00039	0f 84 c0 01 00
	00		 je	 $LN76@Serialize
; File C:\Program Files (x86)\Microsoft Visual Studio\2019\Community\VC\Tools\MSVC\14.29.30133\atlmfc\include\afx.inl

; 212  : 	{ return (m_nMode & CArchive::load) == 0; }

  0003f	8b 4d 08	 mov	 ecx, DWORD PTR _ar$[ebp]
  00042	8b 41 18	 mov	 eax, DWORD PTR [ecx+24]
  00045	f7 d0		 not	 eax
  00047	a8 01		 test	 al, 1
; File C:\Program Files (x86)\Microsoft Visual Studio\2019\Community\VC\Tools\MSVC\14.29.30133\atlmfc\include\afxtempl.h

; 73   : 	if (ar.IsStoring())

  00049	74 33		 je	 SHORT $LN21@Serialize

; 74   : 	{
; 75   : 		TYPE* pData;
; 76   : 		UINT_PTR nElementsLeft;
; 77   : 
; 78   : 		nElementsLeft = nCount;

  0004b	b8 01 00 00 00	 mov	 eax, 1
  00050	89 45 fc	 mov	 DWORD PTR _nElementsLeft$1$[ebp], eax
$LL16@Serialize:

; 80   : 		while( nElementsLeft > 0 )
; 81   : 		{
; 82   : 			UINT nElementsToWrite;
; 83   : 
; 84   : 			nElementsToWrite = UINT(__min(nElementsLeft, INT_MAX/sizeof(TYPE)));

  00053	bb ff ff ff 1f	 mov	 ebx, 536870911		; 1fffffffH
  00058	3b c3		 cmp	 eax, ebx
  0005a	0f 42 d8	 cmovb	 ebx, eax

; 85   : 			ar.Write(pData, nElementsToWrite*sizeof(TYPE));

  0005d	8d 3c 9d 00 00
	00 00		 lea	 edi, DWORD PTR [ebx*4]
  00064	57		 push	 edi
  00065	56		 push	 esi
  00066	e8 00 00 00 00	 call	 ?Write@CArchive@@QAEXPBXI@Z ; CArchive::Write

; 86   : 			nElementsLeft -= nElementsToWrite;

  0006b	8b 45 fc	 mov	 eax, DWORD PTR _nElementsLeft$1$[ebp]

; 87   : 			pData += nElementsToWrite;

  0006e	03 f7		 add	 esi, edi
  00070	8b 4d 08	 mov	 ecx, DWORD PTR _ar$[ebp]
  00073	2b c3		 sub	 eax, ebx
  00075	89 45 fc	 mov	 DWORD PTR _nElementsLeft$1$[ebp], eax
  00078	85 c0		 test	 eax, eax
  0007a	75 d7		 jne	 SHORT $LL16@Serialize

; 88   : 		}
; 89   : 	}

  0007c	eb 35		 jmp	 SHORT $LN2@Serialize
$LN21@Serialize:

; 90   : 	else
; 91   : 	{
; 92   : 		TYPE* pData;
; 93   : 		UINT_PTR nElementsLeft;
; 94   : 
; 95   : 		nElementsLeft = nCount;

  0007e	bf 01 00 00 00	 mov	 edi, 1
$LL18@Serialize:

; 98   : 		{
; 99   : 			UINT nElementsToRead;
; 100  : 
; 101  : 			nElementsToRead = UINT(__min(nElementsLeft, INT_MAX/sizeof(TYPE)));

  00083	bb ff ff ff 1f	 mov	 ebx, 536870911		; 1fffffffH
  00088	3b fb		 cmp	 edi, ebx
  0008a	0f 42 df	 cmovb	 ebx, edi

; 102  : 			ar.EnsureRead(pData, nElementsToRead*sizeof(TYPE));

  0008d	8d 04 9d 00 00
	00 00		 lea	 eax, DWORD PTR [ebx*4]
; File C:\Program Files (x86)\Microsoft Visual Studio\2019\Community\VC\Tools\MSVC\14.29.30133\atlmfc\include\afx.inl

; 399  : 	UINT nRead=Read(lpBuf, nCount);

  00094	50		 push	 eax
  00095	56		 push	 esi
  00096	e8 00 00 00 00	 call	 ?Read@CArchive@@QAEIPAXI@Z ; CArchive::Read

; 400  : 	if(nRead!=nCount)

  0009b	8d 0c 9d 00 00
	00 00		 lea	 ecx, DWORD PTR [ebx*4]
  000a2	3b c1		 cmp	 eax, ecx
  000a4	0f 85 4c 01 00
	00		 jne	 $LN75@Serialize
; File C:\Program Files (x86)\Microsoft Visual Studio\2019\Community\VC\Tools\MSVC\14.29.30133\atlmfc\include\afxtempl.h

; 97   : 		while( nElementsLeft > 0 )

  000aa	03 f1		 add	 esi, ecx
  000ac	8b 4d 08	 mov	 ecx, DWORD PTR _ar$[ebp]

; 103  : 			nElementsLeft -= nElementsToRead;

  000af	2b fb		 sub	 edi, ebx
  000b1	75 d0		 jne	 SHORT $LL18@Serialize
$LN2@Serialize:

; 1177 : 		for (CNode* pNode = m_pNodeHead; pNode != NULL; pNode = pNode->pNext)

  000b3	8b 45 f8	 mov	 eax, DWORD PTR _pNode$1$[ebp]
  000b6	8b 00		 mov	 eax, DWORD PTR [eax]
  000b8	89 45 f8	 mov	 DWORD PTR _pNode$1$[ebp], eax
  000bb	85 c0		 test	 eax, eax
  000bd	0f 85 71 ff ff
	ff		 jne	 $LL4@Serialize

; 1197 : 		}
; 1198 : 	}
; 1199 : }

  000c3	5f		 pop	 edi
  000c4	5e		 pop	 esi
  000c5	5b		 pop	 ebx
  000c6	8b e5		 mov	 esp, ebp
  000c8	5d		 pop	 ebp
  000c9	c2 04 00	 ret	 4
$LN7@Serialize:

; 1186 : 			SerializeElements<TYPE>(ar, pData, 1);
; 1187 : 		}
; 1188 : 	}
; 1189 : 	else
; 1190 : 	{
; 1191 : 		DWORD_PTR nNewCount = ar.ReadCount();

  000cc	e8 00 00 00 00	 call	 ?ReadCount@CArchive@@QAEKXZ ; CArchive::ReadCount

; 1192 : 		while (nNewCount--)

  000d1	85 c0		 test	 eax, eax
  000d3	0f 84 14 01 00
	00		 je	 $LN86@Serialize
  000d9	0f 1f 80 00 00
	00 00		 npad	 7
$LL5@Serialize:
  000e0	48		 dec	 eax
  000e1	89 45 f0	 mov	 DWORD PTR _nNewCount$1$[ebp], eax
; File C:\Program Files (x86)\Microsoft Visual Studio\2019\Community\VC\Tools\MSVC\14.29.30133\atlmfc\include\afx.inl

; 212  : 	{ return (m_nMode & CArchive::load) == 0; }

  000e4	8b 45 08	 mov	 eax, DWORD PTR _ar$[ebp]
  000e7	8b 48 18	 mov	 ecx, DWORD PTR [eax+24]
  000ea	f7 d1		 not	 ecx
  000ec	f6 c1 01	 test	 cl, 1
; File C:\Program Files (x86)\Microsoft Visual Studio\2019\Community\VC\Tools\MSVC\14.29.30133\atlmfc\include\afxtempl.h

; 73   : 	if (ar.IsStoring())

  000ef	74 3d		 je	 SHORT $LN42@Serialize

; 79   : 		pData = pElements;

  000f1	8d 4d f4	 lea	 ecx, DWORD PTR _newData$1[ebp]
  000f4	bb 01 00 00 00	 mov	 ebx, 1
  000f9	89 4d f8	 mov	 DWORD PTR _pData$1$[ebp], ecx
  000fc	0f 1f 40 00	 npad	 4
$LL37@Serialize:

; 80   : 		while( nElementsLeft > 0 )
; 81   : 		{
; 82   : 			UINT nElementsToWrite;
; 83   : 
; 84   : 			nElementsToWrite = UINT(__min(nElementsLeft, INT_MAX/sizeof(TYPE)));

  00100	bf ff ff ff 1f	 mov	 edi, 536870911		; 1fffffffH
  00105	3b df		 cmp	 ebx, edi
  00107	0f 42 fb	 cmovb	 edi, ebx

; 85   : 			ar.Write(pData, nElementsToWrite*sizeof(TYPE));

  0010a	8d 34 bd 00 00
	00 00		 lea	 esi, DWORD PTR [edi*4]
  00111	56		 push	 esi
  00112	51		 push	 ecx
  00113	8b c8		 mov	 ecx, eax
  00115	e8 00 00 00 00	 call	 ?Write@CArchive@@QAEXPBXI@Z ; CArchive::Write

; 87   : 			pData += nElementsToWrite;

  0011a	8b 4d f8	 mov	 ecx, DWORD PTR _pData$1$[ebp]
  0011d	8b 45 08	 mov	 eax, DWORD PTR _ar$[ebp]
  00120	03 ce		 add	 ecx, esi
  00122	89 4d f8	 mov	 DWORD PTR _pData$1$[ebp], ecx
  00125	2b df		 sub	 ebx, edi
  00127	75 d7		 jne	 SHORT $LL37@Serialize

; 88   : 		}
; 89   : 	}

  00129	8b 5d fc	 mov	 ebx, DWORD PTR _this$1$[ebp]
  0012c	eb 4a		 jmp	 SHORT $LN40@Serialize
$LN42@Serialize:

; 96   : 		pData = pElements;

  0012e	8d 55 f4	 lea	 edx, DWORD PTR _newData$1[ebp]
  00131	be 01 00 00 00	 mov	 esi, 1
  00136	89 55 f8	 mov	 DWORD PTR _pData$1$[ebp], edx
  00139	0f 1f 80 00 00
	00 00		 npad	 7
$LL39@Serialize:

; 98   : 		{
; 99   : 			UINT nElementsToRead;
; 100  : 
; 101  : 			nElementsToRead = UINT(__min(nElementsLeft, INT_MAX/sizeof(TYPE)));

  00140	bf ff ff ff 1f	 mov	 edi, 536870911		; 1fffffffH
  00145	3b f7		 cmp	 esi, edi
  00147	0f 42 fe	 cmovb	 edi, esi

; 102  : 			ar.EnsureRead(pData, nElementsToRead*sizeof(TYPE));

  0014a	8d 0c bd 00 00
	00 00		 lea	 ecx, DWORD PTR [edi*4]
; File C:\Program Files (x86)\Microsoft Visual Studio\2019\Community\VC\Tools\MSVC\14.29.30133\atlmfc\include\afx.inl

; 399  : 	UINT nRead=Read(lpBuf, nCount);

  00151	51		 push	 ecx
  00152	52		 push	 edx
  00153	8b c8		 mov	 ecx, eax
  00155	e8 00 00 00 00	 call	 ?Read@CArchive@@QAEIPAXI@Z ; CArchive::Read

; 400  : 	if(nRead!=nCount)

  0015a	8d 0c bd 00 00
	00 00		 lea	 ecx, DWORD PTR [edi*4]
  00161	3b c1		 cmp	 eax, ecx
  00163	0f 85 8d 00 00
	00		 jne	 $LN75@Serialize
; File C:\Program Files (x86)\Microsoft Visual Studio\2019\Community\VC\Tools\MSVC\14.29.30133\atlmfc\include\afxtempl.h

; 97   : 		while( nElementsLeft > 0 )

  00169	8b 55 f8	 mov	 edx, DWORD PTR _pData$1$[ebp]
  0016c	8b 45 08	 mov	 eax, DWORD PTR _ar$[ebp]

; 104  : 			pData += nElementsToRead;

  0016f	03 d1		 add	 edx, ecx
  00171	89 55 f8	 mov	 DWORD PTR _pData$1$[ebp], edx
  00174	2b f7		 sub	 esi, edi
  00176	75 c8		 jne	 SHORT $LL39@Serialize
$LN40@Serialize:

; 902  : 	if (m_pNodeFree == NULL)

  00178	83 7b 10 00	 cmp	 DWORD PTR [ebx+16], 0

; 1193 : 		{
; 1194 : 			TYPE newData[1];
; 1195 : 			SerializeElements<TYPE>(ar, newData, 1);
; 1196 : 			AddTail(newData[0]);

  0017c	8b 75 f4	 mov	 esi, DWORD PTR _newData$1[ebp]

; 968  : 	CNode* pNewNode = NewNode(m_pNodeTail, NULL);

  0017f	8b 7b 08	 mov	 edi, DWORD PTR [ebx+8]

; 902  : 	if (m_pNodeFree == NULL)

  00182	75 32		 jne	 SHORT $LN63@Serialize

; 903  : 	{
; 904  : 		// add another block
; 905  : 		CPlex* pNewBlock = CPlex::Create(m_pBlocks, m_nBlockSize,

  00184	6a 0c		 push	 12			; 0000000cH
  00186	ff 73 18	 push	 DWORD PTR [ebx+24]
  00189	8d 43 14	 lea	 eax, DWORD PTR [ebx+20]
  0018c	50		 push	 eax
  0018d	e8 00 00 00 00	 call	 ?Create@CPlex@@SGPAU1@AAPAU1@II@Z ; CPlex::Create

; 906  : 				 sizeof(CNode));
; 907  : 
; 908  : 		// chain them into free list
; 909  : 		CNode* pNode = (CNode*) pNewBlock->data();
; 910  : 		// free in reverse order to make it easier to debug
; 911  : 		pNode += m_nBlockSize - 1;

  00192	8b 53 18	 mov	 edx, DWORD PTR [ebx+24]
  00195	83 c0 08	 add	 eax, 8
  00198	8d 4a ff	 lea	 ecx, DWORD PTR [edx-1]

; 912  : 		for (INT_PTR i = m_nBlockSize-1; i >= 0; i--, pNode--)

  0019b	83 c2 ff	 add	 edx, -1
  0019e	8d 0c 49	 lea	 ecx, DWORD PTR [ecx+ecx*2]
  001a1	8d 0c 88	 lea	 ecx, DWORD PTR [eax+ecx*4]
  001a4	78 10		 js	 SHORT $LN63@Serialize
$LL60@Serialize:

; 913  : 		{
; 914  : 			pNode->pNext = m_pNodeFree;

  001a6	8b 43 10	 mov	 eax, DWORD PTR [ebx+16]
  001a9	89 01		 mov	 DWORD PTR [ecx], eax

; 915  : 			m_pNodeFree = pNode;

  001ab	89 4b 10	 mov	 DWORD PTR [ebx+16], ecx
  001ae	83 e9 0c	 sub	 ecx, 12			; 0000000cH
  001b1	83 ea 01	 sub	 edx, 1
  001b4	79 f0		 jns	 SHORT $LL60@Serialize
$LN63@Serialize:

; 916  : 		}
; 917  : 	}
; 918  : 	ENSURE(m_pNodeFree != NULL);  // we must have something

  001b6	8b 4b 10	 mov	 ecx, DWORD PTR [ebx+16]
  001b9	85 c9		 test	 ecx, ecx
  001bb	74 42		 je	 SHORT $LN76@Serialize

; 919  : 
; 920  : 	CList::CNode* pNode = m_pNodeFree;
; 921  : 	m_pNodeFree = m_pNodeFree->pNext;

  001bd	8b 01		 mov	 eax, DWORD PTR [ecx]
  001bf	89 43 10	 mov	 DWORD PTR [ebx+16], eax

; 922  : 	pNode->pPrev = pPrev;

  001c2	89 79 04	 mov	 DWORD PTR [ecx+4], edi

; 923  : 	pNode->pNext = pNext;

  001c5	c7 01 00 00 00
	00		 mov	 DWORD PTR [ecx], 0

; 924  : 	m_nCount++;

  001cb	ff 43 0c	 inc	 DWORD PTR [ebx+12]

; 969  : 	pNewNode->data = newElement;

  001ce	89 71 08	 mov	 DWORD PTR [ecx+8], esi

; 970  : 	if (m_pNodeTail != NULL)

  001d1	8b 43 08	 mov	 eax, DWORD PTR [ebx+8]
  001d4	85 c0		 test	 eax, eax
  001d6	74 04		 je	 SHORT $LN54@Serialize

; 971  : 		m_pNodeTail->pNext = pNewNode;

  001d8	89 08		 mov	 DWORD PTR [eax], ecx
  001da	eb 03		 jmp	 SHORT $LN55@Serialize
$LN54@Serialize:

; 972  : 	else
; 973  : 		m_pNodeHead = pNewNode;

  001dc	89 4b 04	 mov	 DWORD PTR [ebx+4], ecx
$LN55@Serialize:

; 1192 : 		while (nNewCount--)

  001df	8b 45 f0	 mov	 eax, DWORD PTR _nNewCount$1$[ebp]

; 974  : 	m_pNodeTail = pNewNode;

  001e2	89 4b 08	 mov	 DWORD PTR [ebx+8], ecx

; 1192 : 		while (nNewCount--)

  001e5	85 c0		 test	 eax, eax
  001e7	0f 85 f3 fe ff
	ff		 jne	 $LL5@Serialize
$LN86@Serialize:
  001ed	5f		 pop	 edi

; 1197 : 		}
; 1198 : 	}
; 1199 : }

  001ee	5e		 pop	 esi
  001ef	5b		 pop	 ebx
  001f0	8b e5		 mov	 esp, ebp
  001f2	5d		 pop	 ebp
  001f3	c2 04 00	 ret	 4
$LN75@Serialize:
  001f6	6a 00		 push	 0
  001f8	6a 03		 push	 3
  001fa	e8 00 00 00 00	 call	 ?AfxThrowArchiveException@@YGXHPBD@Z ; AfxThrowArchiveException
$LN76@Serialize:
  001ff	e8 00 00 00 00	 call	 ?AfxThrowInvalidArgException@@YGXXZ ; AfxThrowInvalidArgException
$LN105@Serialize:
  00204	cc		 int	 3
?Serialize@?$CList@PAVCHistory@@PAV1@@@UAEXAAVCArchive@@@Z ENDP ; CList<CHistory *,CHistory *>::Serialize
_TEXT	ENDS
; Function compile flags: /Ogtp
; File C:\Program Files (x86)\Microsoft Visual Studio\2019\Community\VC\Tools\MSVC\14.29.30133\atlmfc\include\afxtempl.h
;	COMDAT ??1?$CList@PAVCHistory@@PAV1@@@UAE@XZ
_TEXT	SEGMENT
__$EHRec$ = -12						; size = 12
??1?$CList@PAVCHistory@@PAV1@@@UAE@XZ PROC		; CList<CHistory *,CHistory *>::~CList<CHistory *,CHistory *>, COMDAT
; _this$ = ecx

; 878  : {

  00000	55		 push	 ebp
  00001	8b ec		 mov	 ebp, esp
  00003	6a ff		 push	 -1
  00005	68 00 00 00 00	 push	 __ehhandler$??1?$CList@PAVCHistory@@PAV1@@@UAE@XZ
  0000a	64 a1 00 00 00
	00		 mov	 eax, DWORD PTR fs:0
  00010	50		 push	 eax
  00011	56		 push	 esi
  00012	a1 00 00 00 00	 mov	 eax, DWORD PTR ___security_cookie
  00017	33 c5		 xor	 eax, ebp
  00019	50		 push	 eax
  0001a	8d 45 f4	 lea	 eax, DWORD PTR __$EHRec$[ebp]
  0001d	64 a3 00 00 00
	00		 mov	 DWORD PTR fs:0, eax
  00023	8b f1		 mov	 esi, ecx

; 872  : 	m_pBlocks->FreeDataChain();

  00025	8b 4e 14	 mov	 ecx, DWORD PTR [esi+20]

; 878  : {

  00028	c7 06 00 00 00
	00		 mov	 DWORD PTR [esi], OFFSET ??_7?$CList@PAVCHistory@@PAV1@@@6B@

; 870  : 	m_nCount = 0;

  0002e	c7 46 0c 00 00
	00 00		 mov	 DWORD PTR [esi+12], 0

; 871  : 	m_pNodeHead = m_pNodeTail = m_pNodeFree = NULL;

  00035	c7 46 10 00 00
	00 00		 mov	 DWORD PTR [esi+16], 0
  0003c	c7 46 08 00 00
	00 00		 mov	 DWORD PTR [esi+8], 0
  00043	c7 46 04 00 00
	00 00		 mov	 DWORD PTR [esi+4], 0

; 872  : 	m_pBlocks->FreeDataChain();

  0004a	e8 00 00 00 00	 call	 ?FreeDataChain@CPlex@@QAEXXZ ; CPlex::FreeDataChain

; 873  : 	m_pBlocks = NULL;

  0004f	c7 46 14 00 00
	00 00		 mov	 DWORD PTR [esi+20], 0

; 879  : 	RemoveAll();
; 880  : 	ASSERT(m_nCount == 0);
; 881  : }

  00056	8b 4d f4	 mov	 ecx, DWORD PTR __$EHRec$[ebp]
  00059	64 89 0d 00 00
	00 00		 mov	 DWORD PTR fs:0, ecx
  00060	59		 pop	 ecx
  00061	5e		 pop	 esi
  00062	8b e5		 mov	 esp, ebp
  00064	5d		 pop	 ebp
  00065	c3		 ret	 0
  00066	cc		 int	 3
  00067	cc		 int	 3
  00068	cc		 int	 3
  00069	cc		 int	 3
  0006a	cc		 int	 3
_TEXT	ENDS
;	COMDAT text$x
text$x	SEGMENT
__ehhandler$??1?$CList@PAVCHistory@@PAV1@@@UAE@XZ:
  00000	90		 npad	 1
  00001	90		 npad	 1
  00002	8b 54 24 08	 mov	 edx, DWORD PTR [esp+8]
  00006	8d 42 0c	 lea	 eax, DWORD PTR [edx+12]
  00009	8b 4a f8	 mov	 ecx, DWORD PTR [edx-8]
  0000c	33 c8		 xor	 ecx, eax
  0000e	e8 00 00 00 00	 call	 @__security_check_cookie@4
  00013	b8 00 00 00 00	 mov	 eax, OFFSET __ehfuncinfo$??1?$CList@PAVCHistory@@PAV1@@@UAE@XZ
  00018	e9 00 00 00 00	 jmp	 ___CxxFrameHandler3
text$x	ENDS
??1?$CList@PAVCHistory@@PAV1@@@UAE@XZ ENDP		; CList<CHistory *,CHistory *>::~CList<CHistory *,CHistory *>
; Function compile flags: /Ogtp
; File C:\Program Files (x86)\Microsoft Visual Studio\2019\Community\VC\Tools\MSVC\14.29.30133\atlmfc\include\afxtempl.h
;	COMDAT ?NewNode@?$CList@PAVCHistory@@PAV1@@@IAEPAUCNode@1@PAU21@0@Z
_TEXT	SEGMENT
_pPrev$ = 8						; size = 4
_pNext$ = 12						; size = 4
?NewNode@?$CList@PAVCHistory@@PAV1@@@IAEPAUCNode@1@PAU21@0@Z PROC ; CList<CHistory *,CHistory *>::NewNode, COMDAT
; _this$ = ecx

; 901  : {

  00000	55		 push	 ebp
  00001	8b ec		 mov	 ebp, esp
  00003	56		 push	 esi
  00004	8b f1		 mov	 esi, ecx

; 902  : 	if (m_pNodeFree == NULL)

  00006	83 7e 10 00	 cmp	 DWORD PTR [esi+16], 0
  0000a	75 34		 jne	 SHORT $LN7@NewNode

; 903  : 	{
; 904  : 		// add another block
; 905  : 		CPlex* pNewBlock = CPlex::Create(m_pBlocks, m_nBlockSize,

  0000c	6a 0c		 push	 12			; 0000000cH
  0000e	ff 76 18	 push	 DWORD PTR [esi+24]
  00011	8d 46 14	 lea	 eax, DWORD PTR [esi+20]
  00014	50		 push	 eax
  00015	e8 00 00 00 00	 call	 ?Create@CPlex@@SGPAU1@AAPAU1@II@Z ; CPlex::Create

; 906  : 				 sizeof(CNode));
; 907  : 
; 908  : 		// chain them into free list
; 909  : 		CNode* pNode = (CNode*) pNewBlock->data();
; 910  : 		// free in reverse order to make it easier to debug
; 911  : 		pNode += m_nBlockSize - 1;

  0001a	8b 56 18	 mov	 edx, DWORD PTR [esi+24]
  0001d	83 c0 08	 add	 eax, 8
  00020	8d 0c 52	 lea	 ecx, DWORD PTR [edx+edx*2]
  00023	8d 04 88	 lea	 eax, DWORD PTR [eax+ecx*4]
  00026	83 c0 f4	 add	 eax, -12		; fffffff4H

; 912  : 		for (INT_PTR i = m_nBlockSize-1; i >= 0; i--, pNode--)

  00029	83 c2 ff	 add	 edx, -1
  0002c	78 12		 js	 SHORT $LN7@NewNode
  0002e	66 90		 npad	 2
$LL4@NewNode:

; 913  : 		{
; 914  : 			pNode->pNext = m_pNodeFree;

  00030	8b 4e 10	 mov	 ecx, DWORD PTR [esi+16]
  00033	89 08		 mov	 DWORD PTR [eax], ecx

; 915  : 			m_pNodeFree = pNode;

  00035	89 46 10	 mov	 DWORD PTR [esi+16], eax
  00038	83 e8 0c	 sub	 eax, 12			; 0000000cH
  0003b	83 ea 01	 sub	 edx, 1
  0003e	79 f0		 jns	 SHORT $LL4@NewNode
$LN7@NewNode:

; 916  : 		}
; 917  : 	}
; 918  : 	ENSURE(m_pNodeFree != NULL);  // we must have something

  00040	8b 46 10	 mov	 eax, DWORD PTR [esi+16]
  00043	85 c0		 test	 eax, eax
  00045	74 18		 je	 SHORT $LN17@NewNode

; 919  : 
; 920  : 	CList::CNode* pNode = m_pNodeFree;
; 921  : 	m_pNodeFree = m_pNodeFree->pNext;

  00047	8b 08		 mov	 ecx, DWORD PTR [eax]
  00049	89 4e 10	 mov	 DWORD PTR [esi+16], ecx

; 922  : 	pNode->pPrev = pPrev;

  0004c	8b 4d 08	 mov	 ecx, DWORD PTR _pPrev$[ebp]
  0004f	89 48 04	 mov	 DWORD PTR [eax+4], ecx

; 923  : 	pNode->pNext = pNext;

  00052	8b 4d 0c	 mov	 ecx, DWORD PTR _pNext$[ebp]
  00055	89 08		 mov	 DWORD PTR [eax], ecx

; 924  : 	m_nCount++;

  00057	ff 46 0c	 inc	 DWORD PTR [esi+12]

; 925  : 	ASSERT(m_nCount > 0);  // make sure we don't overflow
; 926  : 
; 927  : #pragma push_macro("new")
; 928  : #undef new
; 929  : 	::new( (void*)( &pNode->data ) ) TYPE;
; 930  : #pragma pop_macro("new")
; 931  : 	return pNode;

  0005a	5e		 pop	 esi

; 932  : }

  0005b	5d		 pop	 ebp
  0005c	c2 08 00	 ret	 8
$LN17@NewNode:

; 916  : 		}
; 917  : 	}
; 918  : 	ENSURE(m_pNodeFree != NULL);  // we must have something

  0005f	e8 00 00 00 00	 call	 ?AfxThrowInvalidArgException@@YGXXZ ; AfxThrowInvalidArgException
$LN15@NewNode:
  00064	cc		 int	 3
?NewNode@?$CList@PAVCHistory@@PAV1@@@IAEPAUCNode@1@PAU21@0@Z ENDP ; CList<CHistory *,CHistory *>::NewNode
_TEXT	ENDS
; Function compile flags: /Ogtp
; File C:\Program Files (x86)\Microsoft Visual Studio\2019\Community\VC\Tools\MSVC\14.29.30133\atlmfc\include\afxtempl.h
;	COMDAT ?RemoveAll@?$CList@PAVCHistory@@PAV1@@@QAEXXZ
_TEXT	SEGMENT
?RemoveAll@?$CList@PAVCHistory@@PAV1@@@QAEXXZ PROC	; CList<CHistory *,CHistory *>::RemoveAll, COMDAT
; _this$ = ecx

; 862  : {

  00000	56		 push	 esi
  00001	8b f1		 mov	 esi, ecx

; 863  : 	ASSERT_VALID(this);
; 864  : 
; 865  : 	// destroy elements
; 866  : 	CNode* pNode;
; 867  : 	for (pNode = m_pNodeHead; pNode != NULL; pNode = pNode->pNext)
; 868  : 		pNode->data.~TYPE();
; 869  : 
; 870  : 	m_nCount = 0;
; 871  : 	m_pNodeHead = m_pNodeTail = m_pNodeFree = NULL;
; 872  : 	m_pBlocks->FreeDataChain();

  00003	8b 4e 14	 mov	 ecx, DWORD PTR [esi+20]
  00006	c7 46 0c 00 00
	00 00		 mov	 DWORD PTR [esi+12], 0
  0000d	c7 46 10 00 00
	00 00		 mov	 DWORD PTR [esi+16], 0
  00014	c7 46 08 00 00
	00 00		 mov	 DWORD PTR [esi+8], 0
  0001b	c7 46 04 00 00
	00 00		 mov	 DWORD PTR [esi+4], 0
  00022	e8 00 00 00 00	 call	 ?FreeDataChain@CPlex@@QAEXXZ ; CPlex::FreeDataChain

; 873  : 	m_pBlocks = NULL;

  00027	c7 46 14 00 00
	00 00		 mov	 DWORD PTR [esi+20], 0
  0002e	5e		 pop	 esi

; 874  : }

  0002f	c3		 ret	 0
?RemoveAll@?$CList@PAVCHistory@@PAV1@@@QAEXXZ ENDP	; CList<CHistory *,CHistory *>::RemoveAll
_TEXT	ENDS
; Function compile flags: /Ogtp
; File C:\Program Files (x86)\Microsoft Visual Studio\2019\Community\VC\Tools\MSVC\14.29.30133\atlmfc\include\afxtempl.h
;	COMDAT ?AddTail@?$CList@PAVCHistory@@PAV1@@@QAEPAU__POSITION@@PAVCHistory@@@Z
_TEXT	SEGMENT
_newElement$ = 8					; size = 4
?AddTail@?$CList@PAVCHistory@@PAV1@@@QAEPAU__POSITION@@PAVCHistory@@@Z PROC ; CList<CHistory *,CHistory *>::AddTail, COMDAT
; _this$ = ecx

; 965  : {

  00000	55		 push	 ebp
  00001	8b ec		 mov	 ebp, esp
  00003	56		 push	 esi
  00004	8b f1		 mov	 esi, ecx
  00006	57		 push	 edi

; 902  : 	if (m_pNodeFree == NULL)

  00007	83 7e 10 00	 cmp	 DWORD PTR [esi+16], 0

; 966  : 	ASSERT_VALID(this);
; 967  : 
; 968  : 	CNode* pNewNode = NewNode(m_pNodeTail, NULL);

  0000b	8b 7e 08	 mov	 edi, DWORD PTR [esi+8]

; 902  : 	if (m_pNodeFree == NULL)

  0000e	75 32		 jne	 SHORT $LN11@AddTail

; 903  : 	{
; 904  : 		// add another block
; 905  : 		CPlex* pNewBlock = CPlex::Create(m_pBlocks, m_nBlockSize,

  00010	6a 0c		 push	 12			; 0000000cH
  00012	ff 76 18	 push	 DWORD PTR [esi+24]
  00015	8d 46 14	 lea	 eax, DWORD PTR [esi+20]
  00018	50		 push	 eax
  00019	e8 00 00 00 00	 call	 ?Create@CPlex@@SGPAU1@AAPAU1@II@Z ; CPlex::Create

; 906  : 				 sizeof(CNode));
; 907  : 
; 908  : 		// chain them into free list
; 909  : 		CNode* pNode = (CNode*) pNewBlock->data();
; 910  : 		// free in reverse order to make it easier to debug
; 911  : 		pNode += m_nBlockSize - 1;

  0001e	8b 56 18	 mov	 edx, DWORD PTR [esi+24]
  00021	83 c0 08	 add	 eax, 8
  00024	8d 4a ff	 lea	 ecx, DWORD PTR [edx-1]

; 912  : 		for (INT_PTR i = m_nBlockSize-1; i >= 0; i--, pNode--)

  00027	83 c2 ff	 add	 edx, -1
  0002a	8d 0c 49	 lea	 ecx, DWORD PTR [ecx+ecx*2]
  0002d	8d 0c 88	 lea	 ecx, DWORD PTR [eax+ecx*4]
  00030	78 10		 js	 SHORT $LN11@AddTail
$LL8@AddTail:

; 913  : 		{
; 914  : 			pNode->pNext = m_pNodeFree;

  00032	8b 46 10	 mov	 eax, DWORD PTR [esi+16]
  00035	89 01		 mov	 DWORD PTR [ecx], eax

; 915  : 			m_pNodeFree = pNode;

  00037	89 4e 10	 mov	 DWORD PTR [esi+16], ecx
  0003a	83 e9 0c	 sub	 ecx, 12			; 0000000cH
  0003d	83 ea 01	 sub	 edx, 1
  00040	79 f0		 jns	 SHORT $LL8@AddTail
$LN11@AddTail:

; 916  : 		}
; 917  : 	}
; 918  : 	ENSURE(m_pNodeFree != NULL);  // we must have something

  00042	8b 4e 10	 mov	 ecx, DWORD PTR [esi+16]
  00045	85 c9		 test	 ecx, ecx
  00047	74 39		 je	 SHORT $LN22@AddTail

; 919  : 
; 920  : 	CList::CNode* pNode = m_pNodeFree;
; 921  : 	m_pNodeFree = m_pNodeFree->pNext;

  00049	8b 01		 mov	 eax, DWORD PTR [ecx]
  0004b	89 46 10	 mov	 DWORD PTR [esi+16], eax

; 969  : 	pNewNode->data = newElement;

  0004e	8b 45 08	 mov	 eax, DWORD PTR _newElement$[ebp]

; 922  : 	pNode->pPrev = pPrev;

  00051	89 79 04	 mov	 DWORD PTR [ecx+4], edi

; 923  : 	pNode->pNext = pNext;

  00054	c7 01 00 00 00
	00		 mov	 DWORD PTR [ecx], 0

; 924  : 	m_nCount++;

  0005a	ff 46 0c	 inc	 DWORD PTR [esi+12]

; 969  : 	pNewNode->data = newElement;

  0005d	89 41 08	 mov	 DWORD PTR [ecx+8], eax

; 970  : 	if (m_pNodeTail != NULL)

  00060	8b 46 08	 mov	 eax, DWORD PTR [esi+8]
  00063	85 c0		 test	 eax, eax
  00065	74 0d		 je	 SHORT $LN2@AddTail

; 971  : 		m_pNodeTail->pNext = pNewNode;

  00067	89 08		 mov	 DWORD PTR [eax], ecx

; 972  : 	else
; 973  : 		m_pNodeHead = pNewNode;
; 974  : 	m_pNodeTail = pNewNode;
; 975  : 	return (POSITION) pNewNode;

  00069	8b c1		 mov	 eax, ecx
  0006b	5f		 pop	 edi
  0006c	89 4e 08	 mov	 DWORD PTR [esi+8], ecx
  0006f	5e		 pop	 esi

; 976  : }

  00070	5d		 pop	 ebp
  00071	c2 04 00	 ret	 4
$LN2@AddTail:

; 972  : 	else
; 973  : 		m_pNodeHead = pNewNode;
; 974  : 	m_pNodeTail = pNewNode;
; 975  : 	return (POSITION) pNewNode;

  00074	5f		 pop	 edi
  00075	89 4e 04	 mov	 DWORD PTR [esi+4], ecx
  00078	8b c1		 mov	 eax, ecx
  0007a	89 4e 08	 mov	 DWORD PTR [esi+8], ecx
  0007d	5e		 pop	 esi

; 976  : }

  0007e	5d		 pop	 ebp
  0007f	c2 04 00	 ret	 4
$LN22@AddTail:

; 918  : 	ENSURE(m_pNodeFree != NULL);  // we must have something

  00082	e8 00 00 00 00	 call	 ?AfxThrowInvalidArgException@@YGXXZ ; AfxThrowInvalidArgException
$LN20@AddTail:
  00087	cc		 int	 3
?AddTail@?$CList@PAVCHistory@@PAV1@@@QAEPAU__POSITION@@PAVCHistory@@@Z ENDP ; CList<CHistory *,CHistory *>::AddTail
_TEXT	ENDS
; Function compile flags: /Ogtp
; File D:\git\src\IBK\IBK_DRFN\ProjSrc\SrcDrfn\Chart\MULTICHART\define\ChartMsgDef.h
;	COMDAT ??__ERMSG_SETINFO@@YAXXZ
text$di	SEGMENT
??__ERMSG_SETINFO@@YAXXZ PROC				; `dynamic initializer for 'RMSG_SETINFO'', COMDAT

; 238  : const UINT RMSG_SETINFO = ::RegisterWindowMessage(_T("RMSG_SETINFO"));

  00000	68 00 00 00 00	 push	 OFFSET ??_C@_0N@HABLPHJG@RMSG_SETINFO@
  00005	ff 15 00 00 00
	00		 call	 DWORD PTR __imp__RegisterWindowMessageA@4
  0000b	a3 00 00 00 00	 mov	 DWORD PTR ?RMSG_SETINFO@@3IB, eax
  00010	c3		 ret	 0
??__ERMSG_SETINFO@@YAXXZ ENDP				; `dynamic initializer for 'RMSG_SETINFO''
text$di	ENDS
; Function compile flags: /Ogtp
; File D:\git\src\IBK\IBK_DRFN\ProjSrc\SrcDrfn\Chart\MULTICHART\define\ChartMsgDef.h
;	COMDAT ??__ERMSG_GETINFO@@YAXXZ
text$di	SEGMENT
??__ERMSG_GETINFO@@YAXXZ PROC				; `dynamic initializer for 'RMSG_GETINFO'', COMDAT

; 237  : const UINT RMSG_GETINFO = ::RegisterWindowMessage(_T("RMSG_GETINFO"));

  00000	68 00 00 00 00	 push	 OFFSET ??_C@_0N@IIOKMIEH@RMSG_GETINFO@
  00005	ff 15 00 00 00
	00		 call	 DWORD PTR __imp__RegisterWindowMessageA@4
  0000b	a3 00 00 00 00	 mov	 DWORD PTR ?RMSG_GETINFO@@3IB, eax
  00010	c3		 ret	 0
??__ERMSG_GETINFO@@YAXXZ ENDP				; `dynamic initializer for 'RMSG_GETINFO''
text$di	ENDS
; Function compile flags: /Ogtp
; File D:\git\src\IBK\IBK_DRFN\ProjSrc\SrcDrfn\Chart\MULTICHART\define\ChartMsgDef.h
;	COMDAT ??__ERMSG_SETINITIALCHARTDATA@@YAXXZ
text$di	SEGMENT
??__ERMSG_SETINITIALCHARTDATA@@YAXXZ PROC		; `dynamic initializer for 'RMSG_SETINITIALCHARTDATA'', COMDAT

; 235  : const UINT RMSG_SETINITIALCHARTDATA = ::RegisterWindowMessage(_T("RMSG_SETINITIALCHARTDATA"));

  00000	68 00 00 00 00	 push	 OFFSET ??_C@_0BJ@OGNAJHHI@RMSG_SETINITIALCHARTDATA@
  00005	ff 15 00 00 00
	00		 call	 DWORD PTR __imp__RegisterWindowMessageA@4
  0000b	a3 00 00 00 00	 mov	 DWORD PTR ?RMSG_SETINITIALCHARTDATA@@3IB, eax
  00010	c3		 ret	 0
??__ERMSG_SETINITIALCHARTDATA@@YAXXZ ENDP		; `dynamic initializer for 'RMSG_SETINITIALCHARTDATA''
text$di	ENDS
; Function compile flags: /Ogtp
; File D:\git\src\IBK\IBK_DRFN\ProjSrc\SrcDrfn\Chart\MULTICHART\define\ChartMsgDef.h
;	COMDAT ??__ERMSG_ADD_PLATFORM_MENU@@YAXXZ
text$di	SEGMENT
??__ERMSG_ADD_PLATFORM_MENU@@YAXXZ PROC			; `dynamic initializer for 'RMSG_ADD_PLATFORM_MENU'', COMDAT

; 233  : const UINT RMSG_ADD_PLATFORM_MENU = ::RegisterWindowMessage(_T("RMSG_ADD_PLATFORM_MENU"));

  00000	68 00 00 00 00	 push	 OFFSET ??_C@_0BH@IFDMIMBP@RMSG_ADD_PLATFORM_MENU@
  00005	ff 15 00 00 00
	00		 call	 DWORD PTR __imp__RegisterWindowMessageA@4
  0000b	a3 00 00 00 00	 mov	 DWORD PTR ?RMSG_ADD_PLATFORM_MENU@@3IB, eax
  00010	c3		 ret	 0
??__ERMSG_ADD_PLATFORM_MENU@@YAXXZ ENDP			; `dynamic initializer for 'RMSG_ADD_PLATFORM_MENU''
text$di	ENDS
; Function compile flags: /Ogtp
; File D:\git\src\IBK\IBK_DRFN\ProjSrc\SrcDrfn\Chart\MULTICHART\define\ChartMsgDef.h
;	COMDAT ??__ERMSG_CHANGE_CROSSLINE@@YAXXZ
text$di	SEGMENT
??__ERMSG_CHANGE_CROSSLINE@@YAXXZ PROC			; `dynamic initializer for 'RMSG_CHANGE_CROSSLINE'', COMDAT

; 231  : const UINT RMSG_CHANGE_CROSSLINE = ::RegisterWindowMessage(_T("RMSG_CHANGE_CROSSLINE"));

  00000	68 00 00 00 00	 push	 OFFSET ??_C@_0BG@LNLCJKPF@RMSG_CHANGE_CROSSLINE@
  00005	ff 15 00 00 00
	00		 call	 DWORD PTR __imp__RegisterWindowMessageA@4
  0000b	a3 00 00 00 00	 mov	 DWORD PTR ?RMSG_CHANGE_CROSSLINE@@3IB, eax
  00010	c3		 ret	 0
??__ERMSG_CHANGE_CROSSLINE@@YAXXZ ENDP			; `dynamic initializer for 'RMSG_CHANGE_CROSSLINE''
text$di	ENDS
; Function compile flags: /Ogtp
; File D:\git\src\IBK\IBK_DRFN\ProjSrc\SrcDrfn\Chart\MULTICHART\define\ChartMsgDef.h
;	COMDAT ??__ERMSG_CHANGEVERTSCALETYPE@@YAXXZ
text$di	SEGMENT
??__ERMSG_CHANGEVERTSCALETYPE@@YAXXZ PROC		; `dynamic initializer for 'RMSG_CHANGEVERTSCALETYPE'', COMDAT

; 229  : const UINT RMSG_CHANGEVERTSCALETYPE = ::RegisterWindowMessage(_T("RMSG_CHANGEVERTSCALETYPE"));

  00000	68 00 00 00 00	 push	 OFFSET ??_C@_0BJ@JLKHIBIK@RMSG_CHANGEVERTSCALETYPE@
  00005	ff 15 00 00 00
	00		 call	 DWORD PTR __imp__RegisterWindowMessageA@4
  0000b	a3 00 00 00 00	 mov	 DWORD PTR ?RMSG_CHANGEVERTSCALETYPE@@3IB, eax
  00010	c3		 ret	 0
??__ERMSG_CHANGEVERTSCALETYPE@@YAXXZ ENDP		; `dynamic initializer for 'RMSG_CHANGEVERTSCALETYPE''
text$di	ENDS
; Function compile flags: /Ogtp
; File D:\git\src\IBK\IBK_DRFN\ProjSrc\SrcDrfn\Chart\MULTICHART\define\ChartMsgDef.h
;	COMDAT ??__ERMSG_GET_SKINCOLOR@@YAXXZ
text$di	SEGMENT
??__ERMSG_GET_SKINCOLOR@@YAXXZ PROC			; `dynamic initializer for 'RMSG_GET_SKINCOLOR'', COMDAT

; 226  : const UINT RMSG_GET_SKINCOLOR = ::RegisterWindowMessage(_T("RMSG_GET_SKINCOLOR"));

  00000	68 00 00 00 00	 push	 OFFSET ??_C@_0BD@FLDNDDHK@RMSG_GET_SKINCOLOR@
  00005	ff 15 00 00 00
	00		 call	 DWORD PTR __imp__RegisterWindowMessageA@4
  0000b	a3 00 00 00 00	 mov	 DWORD PTR ?RMSG_GET_SKINCOLOR@@3IB, eax
  00010	c3		 ret	 0
??__ERMSG_GET_SKINCOLOR@@YAXXZ ENDP			; `dynamic initializer for 'RMSG_GET_SKINCOLOR''
text$di	ENDS
; Function compile flags: /Ogtp
; File D:\git\src\IBK\IBK_DRFN\ProjSrc\SrcDrfn\Chart\MULTICHART\define\ChartMsgDef.h
;	COMDAT ??__ERMSG_CHANGE_SKINCOLOR@@YAXXZ
text$di	SEGMENT
??__ERMSG_CHANGE_SKINCOLOR@@YAXXZ PROC			; `dynamic initializer for 'RMSG_CHANGE_SKINCOLOR'', COMDAT

; 225  : const UINT RMSG_CHANGE_SKINCOLOR = ::RegisterWindowMessage(_T("RMSG_CHANGE_SKINCOLOR"));

  00000	68 00 00 00 00	 push	 OFFSET ??_C@_0BG@CNPAHNGG@RMSG_CHANGE_SKINCOLOR@
  00005	ff 15 00 00 00
	00		 call	 DWORD PTR __imp__RegisterWindowMessageA@4
  0000b	a3 00 00 00 00	 mov	 DWORD PTR ?RMSG_CHANGE_SKINCOLOR@@3IB, eax
  00010	c3		 ret	 0
??__ERMSG_CHANGE_SKINCOLOR@@YAXXZ ENDP			; `dynamic initializer for 'RMSG_CHANGE_SKINCOLOR''
text$di	ENDS
; Function compile flags: /Ogtp
; File D:\git\src\IBK\IBK_DRFN\ProjSrc\SrcDrfn\Chart\MULTICHART\define\ChartMsgDef.h
;	COMDAT ??__ERMSG_GET_USERID@@YAXXZ
text$di	SEGMENT
??__ERMSG_GET_USERID@@YAXXZ PROC			; `dynamic initializer for 'RMSG_GET_USERID'', COMDAT

; 215  : const UINT RMSG_GET_USERID = ::RegisterWindowMessage(_T("RMSG_GET_USERID"));	// User ID 

  00000	68 00 00 00 00	 push	 OFFSET ??_C@_0BA@HKNFENJL@RMSG_GET_USERID@
  00005	ff 15 00 00 00
	00		 call	 DWORD PTR __imp__RegisterWindowMessageA@4
  0000b	a3 00 00 00 00	 mov	 DWORD PTR ?RMSG_GET_USERID@@3IB, eax
  00010	c3		 ret	 0
??__ERMSG_GET_USERID@@YAXXZ ENDP			; `dynamic initializer for 'RMSG_GET_USERID''
text$di	ENDS
; Function compile flags: /Ogtp
; File D:\git\src\IBK\IBK_DRFN\ProjSrc\SrcDrfn\Chart\MULTICHART\define\ChartMsgDef.h
;	COMDAT ??__ERMS_ANALYSIS_FUNC@@YAXXZ
text$di	SEGMENT
??__ERMS_ANALYSIS_FUNC@@YAXXZ PROC			; `dynamic initializer for 'RMS_ANALYSIS_FUNC'', COMDAT

; 211  : const UINT RMS_ANALYSIS_FUNC	= ::RegisterWindowMessage(_T("RMS_ANALYSIS_FUNC"));

  00000	68 00 00 00 00	 push	 OFFSET ??_C@_0BC@MMPGLPDH@RMS_ANALYSIS_FUNC@
  00005	ff 15 00 00 00
	00		 call	 DWORD PTR __imp__RegisterWindowMessageA@4
  0000b	a3 00 00 00 00	 mov	 DWORD PTR ?RMS_ANALYSIS_FUNC@@3IB, eax
  00010	c3		 ret	 0
??__ERMS_ANALYSIS_FUNC@@YAXXZ ENDP			; `dynamic initializer for 'RMS_ANALYSIS_FUNC''
text$di	ENDS
; Function compile flags: /Ogtp
; File D:\git\src\IBK\IBK_DRFN\ProjSrc\SrcDrfn\Chart\MULTICHART\define\ChartMsgDef.h
;	COMDAT ??__ERMSG_CHARTMAIN@@YAXXZ
text$di	SEGMENT
??__ERMSG_CHARTMAIN@@YAXXZ PROC				; `dynamic initializer for 'RMSG_CHARTMAIN'', COMDAT

; 208  : const UINT RMSG_CHARTMAIN		= ::RegisterWindowMessage(_T("RMSG_CHARTMAIN"));

  00000	68 00 00 00 00	 push	 OFFSET ??_C@_0P@KHFCBIOH@RMSG_CHARTMAIN@
  00005	ff 15 00 00 00
	00		 call	 DWORD PTR __imp__RegisterWindowMessageA@4
  0000b	a3 00 00 00 00	 mov	 DWORD PTR ?RMSG_CHARTMAIN@@3IB, eax
  00010	c3		 ret	 0
??__ERMSG_CHARTMAIN@@YAXXZ ENDP				; `dynamic initializer for 'RMSG_CHARTMAIN''
text$di	ENDS
; Function compile flags: /Ogtp
; File D:\git\src\IBK\IBK_DRFN\ProjSrc\SrcDrfn\Chart\MULTICHART\define\ChartMsgDef.h
;	COMDAT ??__ERMSG_SETQUERYOPT@@YAXXZ
text$di	SEGMENT
??__ERMSG_SETQUERYOPT@@YAXXZ PROC			; `dynamic initializer for 'RMSG_SETQUERYOPT'', COMDAT

; 183  : const UINT RMSG_SETQUERYOPT = ::RegisterWindowMessage(_T("RMSG_SETQUERYOPT"));

  00000	68 00 00 00 00	 push	 OFFSET ??_C@_0BB@CNOFPEHG@RMSG_SETQUERYOPT@
  00005	ff 15 00 00 00
	00		 call	 DWORD PTR __imp__RegisterWindowMessageA@4
  0000b	a3 00 00 00 00	 mov	 DWORD PTR ?RMSG_SETQUERYOPT@@3IB, eax
  00010	c3		 ret	 0
??__ERMSG_SETQUERYOPT@@YAXXZ ENDP			; `dynamic initializer for 'RMSG_SETQUERYOPT''
text$di	ENDS
; Function compile flags: /Ogtp
; File D:\git\src\IBK\IBK_DRFN\ProjSrc\SrcDrfn\Chart\commontr\TRDefine.h
;	COMDAT ??__ERMSG_GETSIGNAL_REAL@@YAXXZ
text$di	SEGMENT
??__ERMSG_GETSIGNAL_REAL@@YAXXZ PROC			; `dynamic initializer for 'RMSG_GETSIGNAL_REAL'', COMDAT

; 213  : const UINT RMSG_GETSIGNAL_REAL = ::RegisterWindowMessage(_T("RMSG_GETSIGNAL_REAL"));

  00000	68 00 00 00 00	 push	 OFFSET ??_C@_0BE@FJPKENOB@RMSG_GETSIGNAL_REAL@
  00005	ff 15 00 00 00
	00		 call	 DWORD PTR __imp__RegisterWindowMessageA@4
  0000b	a3 00 00 00 00	 mov	 DWORD PTR ?RMSG_GETSIGNAL_REAL@@3IB, eax
  00010	c3		 ret	 0
??__ERMSG_GETSIGNAL_REAL@@YAXXZ ENDP			; `dynamic initializer for 'RMSG_GETSIGNAL_REAL''
text$di	ENDS
; Function compile flags: /Ogtp
; File D:\git\src\IBK\IBK_DRFN\ProjSrc\SrcDrfn\Chart\chart_common\ReplayChartInfoDef.h
;	COMDAT ??__ERMSG_REPLAY_TOTAL_SEC@@YAXXZ
text$di	SEGMENT
??__ERMSG_REPLAY_TOTAL_SEC@@YAXXZ PROC			; `dynamic initializer for 'RMSG_REPLAY_TOTAL_SEC'', COMDAT

; 97   : 	const UINT RMSG_REPLAY_TOTAL_SEC = ::RegisterWindowMessage(_T("RMSG_REPLAY_TOTAL_SEC"));		//  () 

  00000	68 00 00 00 00	 push	 OFFSET ??_C@_0BG@GIAJEIJF@RMSG_REPLAY_TOTAL_SEC@
  00005	ff 15 00 00 00
	00		 call	 DWORD PTR __imp__RegisterWindowMessageA@4
  0000b	a3 00 00 00 00	 mov	 DWORD PTR ?RMSG_REPLAY_TOTAL_SEC@@3IB, eax
  00010	c3		 ret	 0
??__ERMSG_REPLAY_TOTAL_SEC@@YAXXZ ENDP			; `dynamic initializer for 'RMSG_REPLAY_TOTAL_SEC''
text$di	ENDS
; Function compile flags: /Ogtp
; File D:\git\src\IBK\IBK_DRFN\ProjSrc\SrcDrfn\Chart\chart_common\ReplayChartInfoDef.h
;	COMDAT ??__ERMSG_REPLAY_INC_SEC@@YAXXZ
text$di	SEGMENT
??__ERMSG_REPLAY_INC_SEC@@YAXXZ PROC			; `dynamic initializer for 'RMSG_REPLAY_INC_SEC'', COMDAT

; 96   : 	const UINT RMSG_REPLAY_INC_SEC = ::RegisterWindowMessage(_T("RMSG_REPLAY_INC_SEC"));			// 1   

  00000	68 00 00 00 00	 push	 OFFSET ??_C@_0BE@JFCIMCIP@RMSG_REPLAY_INC_SEC@
  00005	ff 15 00 00 00
	00		 call	 DWORD PTR __imp__RegisterWindowMessageA@4
  0000b	a3 00 00 00 00	 mov	 DWORD PTR ?RMSG_REPLAY_INC_SEC@@3IB, eax
  00010	c3		 ret	 0
??__ERMSG_REPLAY_INC_SEC@@YAXXZ ENDP			; `dynamic initializer for 'RMSG_REPLAY_INC_SEC''
text$di	ENDS
; Function compile flags: /Ogtp
; File D:\git\src\IBK\IBK_DRFN\ProjSrc\SrcDrfn\Chart\chart_common\ReplayChartInfoDef.h
;	COMDAT ??__ERMSG_REPLAY_END@@YAXXZ
text$di	SEGMENT
??__ERMSG_REPLAY_END@@YAXXZ PROC			; `dynamic initializer for 'RMSG_REPLAY_END'', COMDAT

; 95   : 	const UINT RMSG_REPLAY_END			= ::RegisterWindowMessage(_T("RMSG_REPLAY_END"));

  00000	68 00 00 00 00	 push	 OFFSET ??_C@_0BA@NKHHCPON@RMSG_REPLAY_END@
  00005	ff 15 00 00 00
	00		 call	 DWORD PTR __imp__RegisterWindowMessageA@4
  0000b	a3 00 00 00 00	 mov	 DWORD PTR ?RMSG_REPLAY_END@@3IB, eax
  00010	c3		 ret	 0
??__ERMSG_REPLAY_END@@YAXXZ ENDP			; `dynamic initializer for 'RMSG_REPLAY_END''
text$di	ENDS
; Function compile flags: /Ogtp
; File D:\git\src\IBK\IBK_DRFN\ProjSrc\SrcDrfn\Chart\chart_common\ReplayChartInfoDef.h
;	COMDAT ??__ERMSG_REPLAY_CHANGE_DATE@@YAXXZ
text$di	SEGMENT
??__ERMSG_REPLAY_CHANGE_DATE@@YAXXZ PROC		; `dynamic initializer for 'RMSG_REPLAY_CHANGE_DATE'', COMDAT

; 94   : 	const UINT RMSG_REPLAY_CHANGE_DATE	= ::RegisterWindowMessage(_T("RMSG_REPLAY_CHANGE_DATE"));

  00000	68 00 00 00 00	 push	 OFFSET ??_C@_0BI@KDGAIIMD@RMSG_REPLAY_CHANGE_DATE@
  00005	ff 15 00 00 00
	00		 call	 DWORD PTR __imp__RegisterWindowMessageA@4
  0000b	a3 00 00 00 00	 mov	 DWORD PTR ?RMSG_REPLAY_CHANGE_DATE@@3IB, eax
  00010	c3		 ret	 0
??__ERMSG_REPLAY_CHANGE_DATE@@YAXXZ ENDP		; `dynamic initializer for 'RMSG_REPLAY_CHANGE_DATE''
text$di	ENDS
; Function compile flags: /Ogtp
; File D:\git\src\IBK\IBK_DRFN\ProjSrc\SrcDrfn\Chart\chart_common\ReplayChartInfoDef.h
;	COMDAT ??__ERMSG_REPLAY_FAIL@@YAXXZ
text$di	SEGMENT
??__ERMSG_REPLAY_FAIL@@YAXXZ PROC			; `dynamic initializer for 'RMSG_REPLAY_FAIL'', COMDAT

; 93   : 	const UINT RMSG_REPLAY_FAIL			= ::RegisterWindowMessage(_T("RMSG_REPLAY_FAIL"));

  00000	68 00 00 00 00	 push	 OFFSET ??_C@_0BB@JFLGBADG@RMSG_REPLAY_FAIL@
  00005	ff 15 00 00 00
	00		 call	 DWORD PTR __imp__RegisterWindowMessageA@4
  0000b	a3 00 00 00 00	 mov	 DWORD PTR ?RMSG_REPLAY_FAIL@@3IB, eax
  00010	c3		 ret	 0
??__ERMSG_REPLAY_FAIL@@YAXXZ ENDP			; `dynamic initializer for 'RMSG_REPLAY_FAIL''
text$di	ENDS
; Function compile flags: /Ogtp
; File D:\git\src\IBK\IBK_DRFN\ProjSrc\SrcDrfn\Chart\chart_common\ReplayChartInfoDef.h
;	COMDAT ??__ERMSG_REPLAY_REAL@@YAXXZ
text$di	SEGMENT
??__ERMSG_REPLAY_REAL@@YAXXZ PROC			; `dynamic initializer for 'RMSG_REPLAY_REAL'', COMDAT

; 92   : 	const UINT RMSG_REPLAY_REAL			= ::RegisterWindowMessage(_T("RMSG_REPLAY_REAL"));

  00000	68 00 00 00 00	 push	 OFFSET ??_C@_0BB@IBKHOHJL@RMSG_REPLAY_REAL@
  00005	ff 15 00 00 00
	00		 call	 DWORD PTR __imp__RegisterWindowMessageA@4
  0000b	a3 00 00 00 00	 mov	 DWORD PTR ?RMSG_REPLAY_REAL@@3IB, eax
  00010	c3		 ret	 0
??__ERMSG_REPLAY_REAL@@YAXXZ ENDP			; `dynamic initializer for 'RMSG_REPLAY_REAL''
text$di	ENDS
; Function compile flags: /Ogtp
; File C:\Program Files (x86)\Microsoft Visual Studio\2019\Community\VC\Tools\MSVC\14.29.30133\atlmfc\include\atlcomcli.h
;	COMDAT ??_Estringdispid@CComTypeInfoHolder@ATL@@QAEPAXI@Z
_TEXT	SEGMENT
__$EHRec$ = -12						; size = 12
___flags$ = 8						; size = 4
??_Estringdispid@CComTypeInfoHolder@ATL@@QAEPAXI@Z PROC	; ATL::CComTypeInfoHolder::stringdispid::`vector deleting destructor', COMDAT
; _this$ = ecx
  00000	55		 push	 ebp
  00001	8b ec		 mov	 ebp, esp
  00003	6a ff		 push	 -1
  00005	68 00 00 00 00	 push	 __ehhandler$??_Estringdispid@CComTypeInfoHolder@ATL@@QAEPAXI@Z
  0000a	64 a1 00 00 00
	00		 mov	 eax, DWORD PTR fs:0
  00010	50		 push	 eax
  00011	53		 push	 ebx
  00012	56		 push	 esi
  00013	57		 push	 edi
  00014	a1 00 00 00 00	 mov	 eax, DWORD PTR ___security_cookie
  00019	33 c5		 xor	 eax, ebp
  0001b	50		 push	 eax
  0001c	8d 45 f4	 lea	 eax, DWORD PTR __$EHRec$[ebp]
  0001f	64 a3 00 00 00
	00		 mov	 DWORD PTR fs:0, eax
  00025	8b f1		 mov	 esi, ecx
  00027	8b 45 08	 mov	 eax, DWORD PTR ___flags$[ebp]
  0002a	8b d8		 mov	 ebx, eax
  0002c	83 e3 01	 and	 ebx, 1
  0002f	a8 02		 test	 al, 2
  00031	74 43		 je	 SHORT $LN2@vector
  00033	68 00 00 00 00	 push	 OFFSET ??1stringdispid@CComTypeInfoHolder@ATL@@QAE@XZ
  00038	ff 76 fc	 push	 DWORD PTR [esi-4]
  0003b	8d 7e fc	 lea	 edi, DWORD PTR [esi-4]
  0003e	6a 0c		 push	 12			; 0000000cH
  00040	56		 push	 esi
  00041	e8 00 00 00 00	 call	 ??_M@YGXPAXIIP6EX0@Z@Z
  00046	85 db		 test	 ebx, ebx
  00048	74 16		 je	 SHORT $LN3@vector
  0004a	8b 0f		 mov	 ecx, DWORD PTR [edi]
  0004c	8d 0c 49	 lea	 ecx, DWORD PTR [ecx+ecx*2]
  0004f	8d 0c 8d 04 00
	00 00		 lea	 ecx, DWORD PTR [ecx*4+4]
  00056	51		 push	 ecx
  00057	57		 push	 edi
  00058	e8 00 00 00 00	 call	 ??_V@YAXPAXI@Z		; operator delete[]
  0005d	83 c4 08	 add	 esp, 8
$LN3@vector:
  00060	8b c7		 mov	 eax, edi
  00062	8b 4d f4	 mov	 ecx, DWORD PTR __$EHRec$[ebp]
  00065	64 89 0d 00 00
	00 00		 mov	 DWORD PTR fs:0, ecx
  0006c	59		 pop	 ecx
  0006d	5f		 pop	 edi
  0006e	5e		 pop	 esi
  0006f	5b		 pop	 ebx
  00070	8b e5		 mov	 esp, ebp
  00072	5d		 pop	 ebp
  00073	c2 04 00	 ret	 4
$LN2@vector:

; 1680 :     ::SysFreeString(m_str);

  00076	ff 36		 push	 DWORD PTR [esi]
  00078	ff 15 00 00 00
	00		 call	 DWORD PTR __imp__SysFreeString@4
  0007e	85 db		 test	 ebx, ebx
  00080	74 0b		 je	 SHORT $LN4@vector
  00082	6a 0c		 push	 12			; 0000000cH
  00084	56		 push	 esi
  00085	e8 00 00 00 00	 call	 ??3@YAXPAXI@Z		; operator delete
  0008a	83 c4 08	 add	 esp, 8
$LN4@vector:
  0008d	8b c6		 mov	 eax, esi
  0008f	8b 4d f4	 mov	 ecx, DWORD PTR __$EHRec$[ebp]
  00092	64 89 0d 00 00
	00 00		 mov	 DWORD PTR fs:0, ecx
  00099	59		 pop	 ecx
  0009a	5f		 pop	 edi
  0009b	5e		 pop	 esi
  0009c	5b		 pop	 ebx
  0009d	8b e5		 mov	 esp, ebp
  0009f	5d		 pop	 ebp
  000a0	c2 04 00	 ret	 4
  000a3	cc		 int	 3
  000a4	cc		 int	 3
  000a5	cc		 int	 3
  000a6	cc		 int	 3
  000a7	cc		 int	 3
_TEXT	ENDS
;	COMDAT text$x
text$x	SEGMENT
__ehhandler$??_Estringdispid@CComTypeInfoHolder@ATL@@QAEPAXI@Z:
  00000	90		 npad	 1
  00001	90		 npad	 1
  00002	8b 54 24 08	 mov	 edx, DWORD PTR [esp+8]
  00006	8d 42 0c	 lea	 eax, DWORD PTR [edx+12]
  00009	8b 4a f0	 mov	 ecx, DWORD PTR [edx-16]
  0000c	33 c8		 xor	 ecx, eax
  0000e	e8 00 00 00 00	 call	 @__security_check_cookie@4
  00013	b8 00 00 00 00	 mov	 eax, OFFSET __ehfuncinfo$??_Estringdispid@CComTypeInfoHolder@ATL@@QAEPAXI@Z
  00018	e9 00 00 00 00	 jmp	 ___CxxFrameHandler3
text$x	ENDS
??_Estringdispid@CComTypeInfoHolder@ATL@@QAEPAXI@Z ENDP	; ATL::CComTypeInfoHolder::stringdispid::`vector deleting destructor'
; Function compile flags: /Ogtp
; File C:\Program Files (x86)\Microsoft Visual Studio\2019\Community\VC\Tools\MSVC\14.29.30133\atlmfc\include\atlcomcli.h
;	COMDAT ??1stringdispid@CComTypeInfoHolder@ATL@@QAE@XZ
_TEXT	SEGMENT
??1stringdispid@CComTypeInfoHolder@ATL@@QAE@XZ PROC	; ATL::CComTypeInfoHolder::stringdispid::~stringdispid, COMDAT
; _this$ = ecx

; 1680 :     ::SysFreeString(m_str);

  00000	ff 31		 push	 DWORD PTR [ecx]
  00002	ff 15 00 00 00
	00		 call	 DWORD PTR __imp__SysFreeString@4
  00008	c3		 ret	 0
??1stringdispid@CComTypeInfoHolder@ATL@@QAE@XZ ENDP	; ATL::CComTypeInfoHolder::stringdispid::~stringdispid
_TEXT	ENDS
; Function compile flags: /Ogtp
; File C:\Program Files (x86)\Microsoft Visual Studio\2019\Community\VC\Tools\MSVC\14.29.30133\atlmfc\include\afxwin2.inl
;	COMDAT ?EndModalState@CWnd@@UAEXXZ
_TEXT	SEGMENT
?EndModalState@CWnd@@UAEXXZ PROC			; CWnd::EndModalState, COMDAT
; _this$ = ecx

; 567  : 	{ ::EnableWindow(m_hWnd, TRUE); }

  00000	6a 01		 push	 1
  00002	ff 71 20	 push	 DWORD PTR [ecx+32]
  00005	ff 15 00 00 00
	00		 call	 DWORD PTR __imp__EnableWindow@8
  0000b	c3		 ret	 0
?EndModalState@CWnd@@UAEXXZ ENDP			; CWnd::EndModalState
_TEXT	ENDS
; Function compile flags: /Ogtp
; File C:\Program Files (x86)\Microsoft Visual Studio\2019\Community\VC\Tools\MSVC\14.29.30133\atlmfc\include\afxwin2.inl
;	COMDAT ?BeginModalState@CWnd@@UAEXXZ
_TEXT	SEGMENT
?BeginModalState@CWnd@@UAEXXZ PROC			; CWnd::BeginModalState, COMDAT
; _this$ = ecx

; 565  : 	{ ::EnableWindow(m_hWnd, FALSE); }

  00000	6a 00		 push	 0
  00002	ff 71 20	 push	 DWORD PTR [ecx+32]
  00005	ff 15 00 00 00
	00		 call	 DWORD PTR __imp__EnableWindow@8
  0000b	c3		 ret	 0
?BeginModalState@CWnd@@UAEXXZ ENDP			; CWnd::BeginModalState
_TEXT	ENDS
; Function compile flags: /Ogtp
; File C:\Program Files (x86)\Microsoft Visual Studio\2019\Community\VC\Tools\MSVC\14.29.30133\atlmfc\include\afxwin1.inl
; File C:\Program Files (x86)\Microsoft Visual Studio\2019\Community\VC\Tools\MSVC\14.29.30133\atlmfc\include\afx.inl
;	COMDAT ??_GCBrush@@UAEPAXI@Z
_TEXT	SEGMENT
___flags$ = 8						; size = 4
??_GCBrush@@UAEPAXI@Z PROC				; CBrush::`scalar deleting destructor', COMDAT
; _this$ = ecx
  00000	55		 push	 ebp
  00001	8b ec		 mov	 ebp, esp
; File C:\Program Files (x86)\Microsoft Visual Studio\2019\Community\VC\Tools\MSVC\14.29.30133\atlmfc\include\afxwin1.inl

; 130  : 	{ }

  00003	56		 push	 esi
  00004	8b f1		 mov	 esi, ecx
  00006	c7 06 00 00 00
	00		 mov	 DWORD PTR [esi], OFFSET ??_7CBrush@@6B@
  0000c	e8 00 00 00 00	 call	 ??1CGdiObject@@UAE@XZ	; CGdiObject::~CGdiObject
  00011	8b 45 08	 mov	 eax, DWORD PTR ___flags$[ebp]
  00014	a8 01		 test	 al, 1
  00016	74 1f		 je	 SHORT $LN12@scalar
  00018	a8 04		 test	 al, 4
  0001a	75 10		 jne	 SHORT $LN3@scalar
; File C:\Program Files (x86)\Microsoft Visual Studio\2019\Community\VC\Tools\MSVC\14.29.30133\atlmfc\include\afx.inl

; 112  : 	{ ::operator delete(p); }

  0001c	56		 push	 esi
  0001d	e8 00 00 00 00	 call	 ??3@YAXPAX@Z		; operator delete
  00022	83 c4 04	 add	 esp, 4
  00025	8b c6		 mov	 eax, esi
  00027	5e		 pop	 esi
  00028	5d		 pop	 ebp
  00029	c2 04 00	 ret	 4
$LN3@scalar:
  0002c	6a 08		 push	 8
  0002e	56		 push	 esi
  0002f	e8 00 00 00 00	 call	 ?__global_delete@@YAXPAXI@Z ; __global_delete
  00034	83 c4 08	 add	 esp, 8
$LN12@scalar:
  00037	8b c6		 mov	 eax, esi
  00039	5e		 pop	 esi
  0003a	5d		 pop	 ebp
  0003b	c2 04 00	 ret	 4
??_GCBrush@@UAEPAXI@Z ENDP				; CBrush::`scalar deleting destructor'
_TEXT	ENDS
; Function compile flags: /Ogtp
; File C:\Program Files (x86)\Microsoft Visual Studio\2019\Community\VC\Tools\MSVC\14.29.30133\atlmfc\include\afxwin1.inl
;	COMDAT ??1CBrush@@UAE@XZ
_TEXT	SEGMENT
??1CBrush@@UAE@XZ PROC					; CBrush::~CBrush, COMDAT
; _this$ = ecx

; 130  : 	{ }

  00000	c7 01 00 00 00
	00		 mov	 DWORD PTR [ecx], OFFSET ??_7CBrush@@6B@
  00006	e9 00 00 00 00	 jmp	 ??1CGdiObject@@UAE@XZ	; CGdiObject::~CGdiObject
??1CBrush@@UAE@XZ ENDP					; CBrush::~CBrush
_TEXT	ENDS
; Function compile flags: /Ogtp
; File C:\Program Files (x86)\Microsoft Visual Studio\2019\Community\VC\Tools\MSVC\14.29.30133\atlmfc\include\afx.inl
;	COMDAT ??_GCGdiObject@@UAEPAXI@Z
_TEXT	SEGMENT
___flags$ = 8						; size = 4
??_GCGdiObject@@UAEPAXI@Z PROC				; CGdiObject::`scalar deleting destructor', COMDAT
; _this$ = ecx
  00000	55		 push	 ebp
  00001	8b ec		 mov	 ebp, esp
  00003	56		 push	 esi
  00004	8b f1		 mov	 esi, ecx
  00006	e8 00 00 00 00	 call	 ??1CGdiObject@@UAE@XZ	; CGdiObject::~CGdiObject
  0000b	8b 45 08	 mov	 eax, DWORD PTR ___flags$[ebp]
  0000e	a8 01		 test	 al, 1
  00010	74 1f		 je	 SHORT $LN9@scalar
  00012	a8 04		 test	 al, 4
  00014	75 10		 jne	 SHORT $LN3@scalar

; 112  : 	{ ::operator delete(p); }

  00016	56		 push	 esi
  00017	e8 00 00 00 00	 call	 ??3@YAXPAX@Z		; operator delete
  0001c	83 c4 04	 add	 esp, 4
  0001f	8b c6		 mov	 eax, esi
  00021	5e		 pop	 esi
  00022	5d		 pop	 ebp
  00023	c2 04 00	 ret	 4
$LN3@scalar:
  00026	6a 08		 push	 8
  00028	56		 push	 esi
  00029	e8 00 00 00 00	 call	 ?__global_delete@@YAXPAXI@Z ; __global_delete
  0002e	83 c4 08	 add	 esp, 8
$LN9@scalar:
  00031	8b c6		 mov	 eax, esi
  00033	5e		 pop	 esi
  00034	5d		 pop	 ebp
  00035	c2 04 00	 ret	 4
??_GCGdiObject@@UAEPAXI@Z ENDP				; CGdiObject::`scalar deleting destructor'
_TEXT	ENDS
; Function compile flags: /Ogtp
; File C:\Program Files (x86)\Microsoft Visual Studio\2019\Community\VC\Tools\MSVC\14.29.30133\atlmfc\include\afxwin1.inl
;	COMDAT ??1CGdiObject@@UAE@XZ
_TEXT	SEGMENT
_pException$2 = -540					; size = 4
_strMsg$3 = -536					; size = 4
_szErrorMessage$4 = -532				; size = 512
__$ArrayPad$ = -20					; size = 4
__$EHRec$ = -16						; size = 16
??1CGdiObject@@UAE@XZ PROC				; CGdiObject::~CGdiObject, COMDAT
; _this$ = ecx

; 74   : {

  00000	55		 push	 ebp
  00001	8b ec		 mov	 ebp, esp
  00003	6a ff		 push	 -1
  00005	68 00 00 00 00	 push	 __ehhandler$??1CGdiObject@@UAE@XZ
  0000a	64 a1 00 00 00
	00		 mov	 eax, DWORD PTR fs:0
  00010	50		 push	 eax
  00011	81 ec 10 02 00
	00		 sub	 esp, 528		; 00000210H
  00017	a1 00 00 00 00	 mov	 eax, DWORD PTR ___security_cookie
  0001c	33 c5		 xor	 eax, ebp
  0001e	89 45 ec	 mov	 DWORD PTR __$ArrayPad$[ebp], eax
  00021	53		 push	 ebx
  00022	56		 push	 esi
  00023	57		 push	 edi
  00024	50		 push	 eax
  00025	8d 45 f4	 lea	 eax, DWORD PTR __$EHRec$[ebp+4]
  00028	64 a3 00 00 00
	00		 mov	 DWORD PTR fs:0, eax
  0002e	89 65 f0	 mov	 DWORD PTR __$EHRec$[ebp], esp
  00031	c7 01 00 00 00
	00		 mov	 DWORD PTR [ecx], OFFSET ??_7CGdiObject@@6B@

; 75   : 	AFX_BEGIN_DESTRUCTOR

  00037	c7 45 fc 00 00
	00 00		 mov	 DWORD PTR __$EHRec$[ebp+12], 0

; 76   : 	DeleteObject();

  0003e	e8 00 00 00 00	 call	 ?DeleteObject@CGdiObject@@QAEHXZ ; CGdiObject::DeleteObject
$LN18@CGdiObject:

; 78   : }

  00043	8b 4d f4	 mov	 ecx, DWORD PTR __$EHRec$[ebp+4]
  00046	64 89 0d 00 00
	00 00		 mov	 DWORD PTR fs:0, ecx
  0004d	59		 pop	 ecx
  0004e	5f		 pop	 edi
  0004f	5e		 pop	 esi
  00050	5b		 pop	 ebx
  00051	8b 4d ec	 mov	 ecx, DWORD PTR __$ArrayPad$[ebp]
  00054	33 cd		 xor	 ecx, ebp
  00056	e8 00 00 00 00	 call	 @__security_check_cookie@4
  0005b	8b e5		 mov	 esp, ebp
  0005d	5d		 pop	 ebp
  0005e	c3		 ret	 0
__catch$??1CGdiObject@@UAE@XZ$0:

; 77   : 	AFX_END_DESTRUCTOR

  0005f	8d 8d e8 fd ff
	ff		 lea	 ecx, DWORD PTR _strMsg$3[ebp]
  00065	ff 15 00 00 00
	00		 call	 DWORD PTR __imp_??0?$CStringT@DV?$StrTraitMFC_DLL@DV?$ChTraitsCRT@D@ATL@@@@@ATL@@QAE@XZ
  0006b	8b b5 e4 fd ff
	ff		 mov	 esi, DWORD PTR _pException$2[ebp]
  00071	8d 8d ec fd ff
	ff		 lea	 ecx, DWORD PTR _szErrorMessage$4[ebp]
  00077	6a 00		 push	 0
  00079	68 00 02 00 00	 push	 512			; 00000200H
  0007e	51		 push	 ecx
  0007f	8b 06		 mov	 eax, DWORD PTR [esi]
  00081	8b ce		 mov	 ecx, esi
  00083	c6 45 fc 02	 mov	 BYTE PTR __$EHRec$[ebp+12], 2
  00087	ff 50 14	 call	 DWORD PTR [eax+20]
  0008a	85 c0		 test	 eax, eax
  0008c	74 2a		 je	 SHORT $LN9@CGdiObject
  0008e	8d 85 ec fd ff
	ff		 lea	 eax, DWORD PTR _szErrorMessage$4[ebp]
  00094	50		 push	 eax
  00095	6a 4d		 push	 77			; 0000004dH
  00097	68 00 00 00 00	 push	 OFFSET ??_C@_0HD@JJCHHHNK@C?3?2Program?5Files?5?$CIx86?$CJ?2Microsof@
  0009c	68 00 00 00 00	 push	 OFFSET ??_C@_0BP@OIEOKIDM@Exception?5thrown?5in?5destructor@
  000a1	8d 85 e8 fd ff
	ff		 lea	 eax, DWORD PTR _strMsg$3[ebp]
  000a7	68 00 00 00 00	 push	 OFFSET ??_C@_0BB@HBOOMJBF@?$CFTs?5?$CI?$CFTs?3?$CFd?$CJ?6?$CFTs@
  000ac	50		 push	 eax
  000ad	ff 15 00 00 00
	00		 call	 DWORD PTR __imp_?Format@?$CStringT@DV?$StrTraitMFC_DLL@DV?$ChTraitsCRT@D@ATL@@@@@ATL@@QAAXPBDZZ
  000b3	83 c4 18	 add	 esp, 24			; 00000018H
  000b6	eb 21		 jmp	 SHORT $LN10@CGdiObject
$LN9@CGdiObject:
  000b8	6a 4d		 push	 77			; 0000004dH
  000ba	68 00 00 00 00	 push	 OFFSET ??_C@_0HD@JJCHHHNK@C?3?2Program?5Files?5?$CIx86?$CJ?2Microsof@
  000bf	68 00 00 00 00	 push	 OFFSET ??_C@_0BP@OIEOKIDM@Exception?5thrown?5in?5destructor@
  000c4	8d 85 e8 fd ff
	ff		 lea	 eax, DWORD PTR _strMsg$3[ebp]
  000ca	68 00 00 00 00	 push	 OFFSET ??_C@_0N@OMEMOKLE@?$CFTs?5?$CI?$CFTs?3?$CFd?$CJ@
  000cf	50		 push	 eax
  000d0	ff 15 00 00 00
	00		 call	 DWORD PTR __imp_?Format@?$CStringT@DV?$StrTraitMFC_DLL@DV?$ChTraitsCRT@D@ATL@@@@@ATL@@QAAXPBDZZ
  000d6	83 c4 14	 add	 esp, 20			; 00000014H
$LN10@CGdiObject:
  000d9	6a 00		 push	 0
  000db	6a 00		 push	 0
  000dd	ff b5 e8 fd ff
	ff		 push	 DWORD PTR _strMsg$3[ebp]
  000e3	e8 00 00 00 00	 call	 ?AfxMessageBox@@YGHPBDII@Z ; AfxMessageBox
  000e8	8d 8d e8 fd ff
	ff		 lea	 ecx, DWORD PTR _strMsg$3[ebp]
  000ee	ff 15 00 00 00
	00		 call	 DWORD PTR __imp_??1?$CStringT@DV?$StrTraitMFC_DLL@DV?$ChTraitsCRT@D@ATL@@@@@ATL@@QAE@XZ
  000f4	8b 06		 mov	 eax, DWORD PTR [esi]
  000f6	8b ce		 mov	 ecx, esi
  000f8	6a 01		 push	 1
  000fa	ff 50 04	 call	 DWORD PTR [eax+4]
  000fd	b8 00 00 00 00	 mov	 eax, $LN18@CGdiObject
  00102	c3		 ret	 0
_TEXT	ENDS
;	COMDAT text$x
text$x	SEGMENT
__unwindfunclet$??1CGdiObject@@UAE@XZ$2:
  00000	8d 8d e8 fd ff
	ff		 lea	 ecx, DWORD PTR _strMsg$3[ebp]
  00006	ff 25 00 00 00
	00		 jmp	 DWORD PTR __imp_??1?$CStringT@DV?$StrTraitMFC_DLL@DV?$ChTraitsCRT@D@ATL@@@@@ATL@@QAE@XZ
  0000c	cc		 int	 3
  0000d	cc		 int	 3
  0000e	cc		 int	 3
  0000f	cc		 int	 3
  00010	cc		 int	 3
__ehhandler$??1CGdiObject@@UAE@XZ:
  00011	90		 npad	 1
  00012	90		 npad	 1
  00013	8b 54 24 08	 mov	 edx, DWORD PTR [esp+8]
  00017	8d 42 0c	 lea	 eax, DWORD PTR [edx+12]
  0001a	8b 8a e0 fd ff
	ff		 mov	 ecx, DWORD PTR [edx-544]
  00020	33 c8		 xor	 ecx, eax
  00022	e8 00 00 00 00	 call	 @__security_check_cookie@4
  00027	8b 4a f8	 mov	 ecx, DWORD PTR [edx-8]
  0002a	33 c8		 xor	 ecx, eax
  0002c	e8 00 00 00 00	 call	 @__security_check_cookie@4
  00031	b8 00 00 00 00	 mov	 eax, OFFSET __ehfuncinfo$??1CGdiObject@@UAE@XZ
  00036	e9 00 00 00 00	 jmp	 ___CxxFrameHandler3
text$x	ENDS
??1CGdiObject@@UAE@XZ ENDP				; CGdiObject::~CGdiObject
; Function compile flags: /Ogtp
; File C:\Program Files (x86)\Microsoft Visual Studio\2019\Community\VC\Tools\MSVC\14.29.30133\atlmfc\include\atlbase.h
; File C:\Program Files (x86)\Microsoft Visual Studio\2019\Community\VC\Tools\MSVC\14.29.30133\atlmfc\include\atlsimpcoll.h
; File C:\Program Files (x86)\Microsoft Visual Studio\2019\Community\VC\Tools\MSVC\14.29.30133\atlmfc\include\atlbase.h
; File C:\Program Files (x86)\Microsoft Visual Studio\2019\Community\VC\Tools\MSVC\14.29.30133\atlmfc\include\atlsimpcoll.h
; File C:\Program Files (x86)\Microsoft Visual Studio\2019\Community\VC\Tools\MSVC\14.29.30133\atlmfc\include\atlcore.h
; File C:\Program Files (x86)\Microsoft Visual Studio\2019\Community\VC\Tools\MSVC\14.29.30133\atlmfc\include\atlsimpcoll.h
; File C:\Program Files (x86)\Microsoft Visual Studio\2019\Community\VC\Tools\MSVC\14.29.30133\atlmfc\include\atlcore.h
; File C:\Program Files (x86)\Microsoft Visual Studio\2019\Community\VC\Tools\MSVC\14.29.30133\atlmfc\include\atlbase.h
; File C:\Program Files (x86)\Microsoft Visual Studio\2019\Community\VC\Tools\MSVC\14.29.30133\atlmfc\include\atlsimpcoll.h
;	COMDAT ??__F_AtlWinModule@ATL@@YAXXZ
text$yd	SEGMENT
??__F_AtlWinModule@ATL@@YAXXZ PROC			; ATL::`dynamic atexit destructor for '_AtlWinModule'', COMDAT
; File C:\Program Files (x86)\Microsoft Visual Studio\2019\Community\VC\Tools\MSVC\14.29.30133\atlmfc\include\atlbase.h

; 7655 : 	if (pWinModule->cbSize == 0)

  00000	a1 00 00 00 00	 mov	 eax, DWORD PTR ?_AtlWinModule@ATL@@3VCAtlWinModule@1@A
  00005	8b 0d 00 00 00
	00		 mov	 ecx, DWORD PTR __imp__free

; 2957 : 		AtlWinModuleTerm(this, _AtlBaseModule.GetModuleInstance());

  0000b	57		 push	 edi
  0000c	8b 3d 04 00 00
	00		 mov	 edi, DWORD PTR ?_AtlBaseModule@ATL@@3VCAtlBaseModule@1@A+4

; 7655 : 	if (pWinModule->cbSize == 0)

  00012	85 c0		 test	 eax, eax
  00014	0f 84 93 00 00
	00		 je	 $LN8@dynamic

; 7656 : 		return S_OK;
; 7657 : 	if (pWinModule->cbSize != sizeof(_ATL_WIN_MODULE))

  0001a	83 f8 2c	 cmp	 eax, 44			; 0000002cH
  0001d	0f 85 8a 00 00
	00		 jne	 $LN8@dynamic

; 7658 : 		return E_INVALIDARG;
; 7659 : 
; 7660 : 	for (int i = 0; i < pWinModule->m_rgWindowClassAtoms.GetSize(); i++)

  00023	a1 24 00 00 00	 mov	 eax, DWORD PTR ?_AtlWinModule@ATL@@3VCAtlWinModule@1@A+36
  00028	56		 push	 esi
  00029	33 f6		 xor	 esi, esi
  0002b	85 c0		 test	 eax, eax
  0002d	7e 35		 jle	 SHORT $LN10@dynamic
  0002f	53		 push	 ebx
  00030	8b 1d 00 00 00
	00		 mov	 ebx, DWORD PTR __imp__UnregisterClassA@8
$LL11@dynamic:
; File C:\Program Files (x86)\Microsoft Visual Studio\2019\Community\VC\Tools\MSVC\14.29.30133\atlmfc\include\atlsimpcoll.h

; 238  : 		if(nIndex < 0 || nIndex >= m_nSize)

  00036	85 f6		 test	 esi, esi
  00038	0f 88 9e 00 00
	00		 js	 $LN46@dynamic
  0003e	3b f0		 cmp	 esi, eax
  00040	0f 8d 96 00 00
	00		 jge	 $LN46@dynamic
; File C:\Program Files (x86)\Microsoft Visual Studio\2019\Community\VC\Tools\MSVC\14.29.30133\atlmfc\include\atlbase.h

; 7661 : 		UnregisterClass((LPCTSTR)pWinModule->m_rgWindowClassAtoms[i], hInst);

  00046	a1 20 00 00 00	 mov	 eax, DWORD PTR ?_AtlWinModule@ATL@@3VCAtlWinModule@1@A+32
  0004b	57		 push	 edi
  0004c	0f b7 04 70	 movzx	 eax, WORD PTR [eax+esi*2]
  00050	50		 push	 eax
  00051	ff d3		 call	 ebx
  00053	a1 24 00 00 00	 mov	 eax, DWORD PTR ?_AtlWinModule@ATL@@3VCAtlWinModule@1@A+36
  00058	46		 inc	 esi
  00059	3b f0		 cmp	 esi, eax
  0005b	7c d9		 jl	 SHORT $LL11@dynamic
; File C:\Program Files (x86)\Microsoft Visual Studio\2019\Community\VC\Tools\MSVC\14.29.30133\atlmfc\include\atlsimpcoll.h

; 238  : 		if(nIndex < 0 || nIndex >= m_nSize)

  0005d	8b 0d 00 00 00
	00		 mov	 ecx, DWORD PTR __imp__free
  00063	5b		 pop	 ebx
$LN10@dynamic:

; 216  : 		if(m_aT != NULL)

  00064	a1 20 00 00 00	 mov	 eax, DWORD PTR ?_AtlWinModule@ATL@@3VCAtlWinModule@1@A+32
  00069	5e		 pop	 esi
  0006a	85 c0		 test	 eax, eax
  0006c	74 10		 je	 SHORT $LN25@dynamic

; 217  : 		{
; 218  : 			for(int i = 0; i < m_nSize; i++)
; 219  : 				m_aT[i].~T();
; 220  : 			free(m_aT);

  0006e	50		 push	 eax
  0006f	ff d1		 call	 ecx
  00071	83 c4 04	 add	 esp, 4

; 221  : 			m_aT = NULL;

  00074	c7 05 20 00 00
	00 00 00 00 00	 mov	 DWORD PTR ?_AtlWinModule@ATL@@3VCAtlWinModule@1@A+32, 0
$LN25@dynamic:
; File C:\Program Files (x86)\Microsoft Visual Studio\2019\Community\VC\Tools\MSVC\14.29.30133\atlmfc\include\atlcore.h

; 155  : 		DeleteCriticalSection(&m_sec);

  0007e	68 04 00 00 00	 push	 OFFSET ?_AtlWinModule@ATL@@3VCAtlWinModule@1@A+4
; File C:\Program Files (x86)\Microsoft Visual Studio\2019\Community\VC\Tools\MSVC\14.29.30133\atlmfc\include\atlsimpcoll.h

; 223  : 		m_nSize = 0;

  00083	c7 05 24 00 00
	00 00 00 00 00	 mov	 DWORD PTR ?_AtlWinModule@ATL@@3VCAtlWinModule@1@A+36, 0

; 224  : 		m_nAllocSize = 0;

  0008d	c7 05 28 00 00
	00 00 00 00 00	 mov	 DWORD PTR ?_AtlWinModule@ATL@@3VCAtlWinModule@1@A+40, 0
; File C:\Program Files (x86)\Microsoft Visual Studio\2019\Community\VC\Tools\MSVC\14.29.30133\atlmfc\include\atlcore.h

; 155  : 		DeleteCriticalSection(&m_sec);

  00097	ff 15 00 00 00
	00		 call	 DWORD PTR __imp__DeleteCriticalSection@4
; File C:\Program Files (x86)\Microsoft Visual Studio\2019\Community\VC\Tools\MSVC\14.29.30133\atlmfc\include\atlbase.h

; 7664 : 	pWinModule->cbSize = 0;

  0009d	8b 0d 00 00 00
	00		 mov	 ecx, DWORD PTR __imp__free
  000a3	c7 05 00 00 00
	00 00 00 00 00	 mov	 DWORD PTR ?_AtlWinModule@ATL@@3VCAtlWinModule@1@A, 0
$LN8@dynamic:
; File C:\Program Files (x86)\Microsoft Visual Studio\2019\Community\VC\Tools\MSVC\14.29.30133\atlmfc\include\atlsimpcoll.h

; 216  : 		if(m_aT != NULL)

  000ad	a1 20 00 00 00	 mov	 eax, DWORD PTR ?_AtlWinModule@ATL@@3VCAtlWinModule@1@A+32
  000b2	5f		 pop	 edi
  000b3	85 c0		 test	 eax, eax
  000b5	74 10		 je	 SHORT $LN40@dynamic

; 217  : 		{
; 218  : 			for(int i = 0; i < m_nSize; i++)
; 219  : 				m_aT[i].~T();
; 220  : 			free(m_aT);

  000b7	50		 push	 eax
  000b8	ff d1		 call	 ecx
  000ba	83 c4 04	 add	 esp, 4

; 221  : 			m_aT = NULL;

  000bd	c7 05 20 00 00
	00 00 00 00 00	 mov	 DWORD PTR ?_AtlWinModule@ATL@@3VCAtlWinModule@1@A+32, 0
$LN40@dynamic:

; 223  : 		m_nSize = 0;

  000c7	c7 05 24 00 00
	00 00 00 00 00	 mov	 DWORD PTR ?_AtlWinModule@ATL@@3VCAtlWinModule@1@A+36, 0

; 224  : 		m_nAllocSize = 0;

  000d1	c7 05 28 00 00
	00 00 00 00 00	 mov	 DWORD PTR ?_AtlWinModule@ATL@@3VCAtlWinModule@1@A+40, 0
  000db	c3		 ret	 0
$LN46@dynamic:

; 240  : 			_AtlRaiseException((DWORD)EXCEPTION_ARRAY_BOUNDS_EXCEEDED);

  000dc	6a 01		 push	 1
  000de	68 8c 00 00 c0	 push	 -1073741684		; c000008cH
  000e3	e8 00 00 00 00	 call	 ?_AtlRaiseException@ATL@@YAXKK@Z ; ATL::_AtlRaiseException
$LN56@dynamic:
  000e8	cc		 int	 3
??__F_AtlWinModule@ATL@@YAXXZ ENDP			; ATL::`dynamic atexit destructor for '_AtlWinModule''
text$yd	ENDS
; Function compile flags: /Ogtp
; File C:\Program Files (x86)\Microsoft Visual Studio\2019\Community\VC\Tools\MSVC\14.29.30133\atlmfc\include\atlbase.h
; File C:\Program Files (x86)\Microsoft Visual Studio\2019\Community\VC\Tools\MSVC\14.29.30133\atlmfc\include\atlwinverapi.h
; File C:\Program Files (x86)\Microsoft Visual Studio\2019\Community\VC\Tools\MSVC\14.29.30133\atlmfc\include\atlcore.h
; File C:\Program Files (x86)\Windows Kits\10\Include\10.0.22000.0\shared\winerror.h
; File C:\Program Files (x86)\Microsoft Visual Studio\2019\Community\VC\Tools\MSVC\14.29.30133\atlmfc\include\atlbase.h
;	COMDAT ??__E_AtlWinModule@ATL@@YAXXZ
text$di	SEGMENT
??__E_AtlWinModule@ATL@@YAXXZ PROC			; ATL::`dynamic initializer for '_AtlWinModule'', COMDAT
; File C:\Program Files (x86)\Microsoft Visual Studio\2019\Community\VC\Tools\MSVC\14.29.30133\atlmfc\include\atlwinverapi.h

; 730  : 	return ::InitializeCriticalSectionEx(lpCriticalSection, dwSpinCount, Flags);

  00000	6a 00		 push	 0
  00002	6a 00		 push	 0
  00004	68 04 00 00 00	 push	 OFFSET ?_AtlWinModule@ATL@@3VCAtlWinModule@1@A+4
  00009	ff 15 00 00 00
	00		 call	 DWORD PTR __imp__InitializeCriticalSectionEx@12
; File C:\Program Files (x86)\Microsoft Visual Studio\2019\Community\VC\Tools\MSVC\14.29.30133\atlmfc\include\atlcore.h

; 145  : 		if (!_AtlInitializeCriticalSectionEx(&m_sec, 0, 0))

  0000f	85 c0		 test	 eax, eax
  00011	75 27		 jne	 SHORT $LN4@dynamic

; 146  : 		{
; 147  : 			hRes = HRESULT_FROM_WIN32(GetLastError());

  00013	ff 15 00 00 00
	00		 call	 DWORD PTR __imp__GetLastError@0
; File C:\Program Files (x86)\Windows Kits\10\Include\10.0.22000.0\shared\winerror.h

; 29673: FORCEINLINE _Translates_Win32_to_HRESULT_(x) HRESULT HRESULT_FROM_WIN32(unsigned long x) { return (HRESULT)(x) <= 0 ? (HRESULT)(x) : (HRESULT) (((x) & 0x0000FFFF) | (FACILITY_WIN32 << 16) | 0x80000000);}

  00019	85 c0		 test	 eax, eax
  0001b	7e 0a		 jle	 SHORT $LN26@dynamic
  0001d	0f b7 c0	 movzx	 eax, ax
  00020	0d 00 00 07 80	 or	 eax, -2147024896	; 80070000H
; File C:\Program Files (x86)\Microsoft Visual Studio\2019\Community\VC\Tools\MSVC\14.29.30133\atlmfc\include\atlbase.h

; 2941 : 		if (FAILED(hr))

  00025	85 c0		 test	 eax, eax
$LN26@dynamic:
  00027	79 11		 jns	 SHORT $LN4@dynamic

; 2942 : 		{
; 2943 : 			ATLASSERT(0);
; 2944 : 			CAtlBaseModule::m_bInitFailed = true;

  00029	c6 05 00 00 00
	00 01		 mov	 BYTE PTR ?m_bInitFailed@CAtlBaseModule@ATL@@2_NA, 1 ; ATL::CAtlBaseModule::m_bInitFailed

; 2945 : 			cbSize = 0;

  00030	c7 05 00 00 00
	00 00 00 00 00	 mov	 DWORD PTR ?_AtlWinModule@ATL@@3VCAtlWinModule@1@A, 0
$LN4@dynamic:

; 2972 : __declspec(selectany) CAtlWinModule _AtlWinModule;

  0003a	68 00 00 00 00	 push	 OFFSET ??__F_AtlWinModule@ATL@@YAXXZ ; ATL::`dynamic atexit destructor for '_AtlWinModule''
  0003f	e8 00 00 00 00	 call	 _atexit
  00044	59		 pop	 ecx
  00045	c3		 ret	 0
??__E_AtlWinModule@ATL@@YAXXZ ENDP			; ATL::`dynamic initializer for '_AtlWinModule''
text$di	ENDS
; Function compile flags: /Ogtp
; File C:\Program Files (x86)\Microsoft Visual Studio\2019\Community\VC\Tools\MSVC\14.29.30133\atlmfc\include\afx.inl
;	COMDAT ?_AfxInitManaged@@YAHXZ
_TEXT	SEGMENT
?_AfxInitManaged@@YAHXZ PROC				; _AfxInitManaged, COMDAT

; 87   : 	return 0;

  00000	33 c0		 xor	 eax, eax

; 88   : }

  00002	c3		 ret	 0
?_AfxInitManaged@@YAHXZ ENDP				; _AfxInitManaged
_TEXT	ENDS
; Function compile flags: /Ogtp
; File C:\Program Files (x86)\Microsoft Visual Studio\2019\Community\VC\Tools\MSVC\14.29.30133\atlmfc\include\atlwinverapi.h
;	COMDAT ?_AtlInitializeCriticalSectionEx@ATL@@YAHPAU_RTL_CRITICAL_SECTION@@KK@Z
_TEXT	SEGMENT
_lpCriticalSection$ = 8					; size = 4
_dwSpinCount$ = 12					; size = 4
_Flags$ = 16						; size = 4
?_AtlInitializeCriticalSectionEx@ATL@@YAHPAU_RTL_CRITICAL_SECTION@@KK@Z PROC ; ATL::_AtlInitializeCriticalSectionEx, COMDAT

; 727  : {

  00000	55		 push	 ebp
  00001	8b ec		 mov	 ebp, esp

; 728  : #if (NTDDI_VERSION >= NTDDI_VISTA) && !defined(_USING_V110_SDK71_) && !defined(_ATL_XP_TARGETING)
; 729  : 	// InitializeCriticalSectionEx is available in Vista or later, desktop or store apps
; 730  : 	return ::InitializeCriticalSectionEx(lpCriticalSection, dwSpinCount, Flags);

  00003	ff 75 10	 push	 DWORD PTR _Flags$[ebp]
  00006	ff 75 0c	 push	 DWORD PTR _dwSpinCount$[ebp]
  00009	ff 75 08	 push	 DWORD PTR _lpCriticalSection$[ebp]
  0000c	ff 15 00 00 00
	00		 call	 DWORD PTR __imp__InitializeCriticalSectionEx@12

; 731  : #else
; 732  : 	UNREFERENCED_PARAMETER(Flags);
; 733  : 
; 734  : 	// ...otherwise fall back to using InitializeCriticalSectionAndSpinCount.
; 735  : 	return ::InitializeCriticalSectionAndSpinCount(lpCriticalSection, dwSpinCount);
; 736  : #endif
; 737  : }

  00012	5d		 pop	 ebp
  00013	c3		 ret	 0
?_AtlInitializeCriticalSectionEx@ATL@@YAHPAU_RTL_CRITICAL_SECTION@@KK@Z ENDP ; ATL::_AtlInitializeCriticalSectionEx
_TEXT	ENDS
; Function compile flags: /Ogtp
; File C:\Program Files (x86)\Microsoft Visual Studio\2019\Community\VC\Tools\MSVC\14.29.30133\atlmfc\include\atlexcept.h
;	COMDAT ?_AtlRaiseException@ATL@@YAXKK@Z
_TEXT	SEGMENT
_dwExceptionCode$ = 8					; size = 4
_dwExceptionFlags$ = 12					; size = 4
?_AtlRaiseException@ATL@@YAXKK@Z PROC			; ATL::_AtlRaiseException, COMDAT

; 30   : {

  00000	55		 push	 ebp
  00001	8b ec		 mov	 ebp, esp

; 31   : 	RaiseException( dwExceptionCode, dwExceptionFlags, 0, NULL );

  00003	6a 00		 push	 0
  00005	6a 00		 push	 0
  00007	ff 75 0c	 push	 DWORD PTR _dwExceptionFlags$[ebp]
  0000a	ff 75 08	 push	 DWORD PTR _dwExceptionCode$[ebp]
  0000d	ff 15 00 00 00
	00		 call	 DWORD PTR __imp__RaiseException@16

; 32   : }

  00013	5d		 pop	 ebp
  00014	c3		 ret	 0
?_AtlRaiseException@ATL@@YAXKK@Z ENDP			; ATL::_AtlRaiseException
_TEXT	ENDS
; Function compile flags: /Ogtp
; File C:\Program Files (x86)\Microsoft Visual Studio\2019\Community\VC\Tools\MSVC\14.29.30133\atlmfc\include\afx.inl
;	COMDAT ?Dump@CObject@@UBEXAAVCDumpContext@@@Z
_TEXT	SEGMENT
___formal$ = 8						; size = 4
?Dump@CObject@@UBEXAAVCDumpContext@@@Z PROC		; CObject::Dump, COMDAT
; _this$ = ecx

; 122  : 	{ /* no dumping in release builds */ }

  00000	c2 04 00	 ret	 4
?Dump@CObject@@UBEXAAVCDumpContext@@@Z ENDP		; CObject::Dump
_TEXT	ENDS
; Function compile flags: /Ogtp
; File C:\Program Files (x86)\Microsoft Visual Studio\2019\Community\VC\Tools\MSVC\14.29.30133\atlmfc\include\afx.inl
;	COMDAT ?AssertValid@CObject@@UBEXXZ
_TEXT	SEGMENT
?AssertValid@CObject@@UBEXXZ PROC			; CObject::AssertValid, COMDAT
; _this$ = ecx

; 120  : 	{ /* no asserts in release builds */ }

  00000	c2 00 00	 ret	 0
?AssertValid@CObject@@UBEXXZ ENDP			; CObject::AssertValid
_TEXT	ENDS
; Function compile flags: /Ogtp
; File C:\Program Files (x86)\Microsoft Visual Studio\2019\Community\VC\Tools\MSVC\14.29.30133\atlmfc\include\afx.inl
;	COMDAT ?Serialize@CObject@@UAEXAAVCArchive@@@Z
_TEXT	SEGMENT
___formal$ = 8						; size = 4
?Serialize@CObject@@UAEXAAVCArchive@@@Z PROC		; CObject::Serialize, COMDAT
; _this$ = ecx

; 106  : 	{ /* CObject does not serialize anything by default */ }

  00000	c2 04 00	 ret	 4
?Serialize@CObject@@UAEXAAVCArchive@@@Z ENDP		; CObject::Serialize
_TEXT	ENDS
; Function compile flags: /Ogtp
; File C:\Program Files (x86)\Microsoft Visual Studio\2019\Community\VC\Tools\MSVC\14.29.30133\atlmfc\include\afx.inl
;	COMDAT ??1CObject@@UAE@XZ
_TEXT	SEGMENT
??1CObject@@UAE@XZ PROC					; CObject::~CObject, COMDAT
; _this$ = ecx

; 104  : 	{ }

  00000	c2 00 00	 ret	 0
??1CObject@@UAE@XZ ENDP					; CObject::~CObject
_TEXT	ENDS
; Function compile flags: /Ogtp
; File C:\Program Files (x86)\Windows Kits\10\Include\10.0.22000.0\ucrt\stdio.h
;	COMDAT _sscanf
_TEXT	SEGMENT
__Buffer$ = 8						; size = 4
__Format$ = 12						; size = 4
_sscanf	PROC						; COMDAT

; 2247 :     {

  00000	55		 push	 ebp
  00001	8b ec		 mov	 ebp, esp

; 2153 :         return __stdio_common_vsscanf(

  00003	8d 45 10	 lea	 eax, DWORD PTR __Format$[ebp+4]
  00006	50		 push	 eax
  00007	6a 00		 push	 0
  00009	ff 75 0c	 push	 DWORD PTR __Format$[ebp]
  0000c	6a ff		 push	 -1
  0000e	ff 75 08	 push	 DWORD PTR __Buffer$[ebp]
  00011	e8 00 00 00 00	 call	 ___local_stdio_scanf_options
  00016	ff 70 04	 push	 DWORD PTR [eax+4]
  00019	ff 30		 push	 DWORD PTR [eax]
  0001b	ff 15 00 00 00
	00		 call	 DWORD PTR __imp____stdio_common_vsscanf
  00021	83 c4 1c	 add	 esp, 28			; 0000001cH

; 2248 :         int _Result;
; 2249 :         va_list _ArgList;
; 2250 :         __crt_va_start(_ArgList, _Format);
; 2251 :         _Result = _vsscanf_l(_Buffer, _Format, NULL, _ArgList);
; 2252 :         __crt_va_end(_ArgList);
; 2253 :         return _Result;
; 2254 :     }

  00024	5d		 pop	 ebp
  00025	c3		 ret	 0
_sscanf	ENDP
_TEXT	ENDS
; Function compile flags: /Ogtp
; File C:\Program Files (x86)\Windows Kits\10\Include\10.0.22000.0\ucrt\stdio.h
;	COMDAT _sprintf
_TEXT	SEGMENT
__Buffer$ = 8						; size = 4
__Format$ = 12						; size = 4
_sprintf PROC						; COMDAT

; 1771 :     {

  00000	55		 push	 ebp
  00001	8b ec		 mov	 ebp, esp

; 1392 :         int const _Result = __stdio_common_vsprintf(

  00003	8d 45 10	 lea	 eax, DWORD PTR __Format$[ebp+4]
  00006	50		 push	 eax
  00007	6a 00		 push	 0
  00009	ff 75 0c	 push	 DWORD PTR __Format$[ebp]
  0000c	6a ff		 push	 -1
  0000e	ff 75 08	 push	 DWORD PTR __Buffer$[ebp]
  00011	e8 00 00 00 00	 call	 ___local_stdio_printf_options
  00016	8b 08		 mov	 ecx, DWORD PTR [eax]
  00018	ff 70 04	 push	 DWORD PTR [eax+4]
  0001b	83 c9 01	 or	 ecx, 1
  0001e	51		 push	 ecx
  0001f	ff 15 00 00 00
	00		 call	 DWORD PTR __imp____stdio_common_vsprintf

; 1393 :             _CRT_INTERNAL_LOCAL_PRINTF_OPTIONS | _CRT_INTERNAL_PRINTF_LEGACY_VSPRINTF_NULL_TERMINATION,
; 1394 :             _Buffer, _BufferCount, _Format, _Locale, _ArgList);
; 1395 : 
; 1396 :         return _Result < 0 ? -1 : _Result;

  00025	83 c9 ff	 or	 ecx, -1
  00028	83 c4 1c	 add	 esp, 28			; 0000001cH
  0002b	85 c0		 test	 eax, eax
  0002d	0f 48 c1	 cmovs	 eax, ecx

; 1772 :         int _Result;
; 1773 :         va_list _ArgList;
; 1774 :         __crt_va_start(_ArgList, _Format);
; 1775 : 
; 1776 :         _Result = _vsprintf_l(_Buffer, _Format, NULL, _ArgList);
; 1777 : 
; 1778 :         __crt_va_end(_ArgList);
; 1779 :         return _Result;
; 1780 :     }

  00030	5d		 pop	 ebp
  00031	c3		 ret	 0
_sprintf ENDP
_TEXT	ENDS
; Function compile flags: /Ogtp
; File C:\Program Files (x86)\Windows Kits\10\Include\10.0.22000.0\ucrt\corecrt_stdio_config.h
;	COMDAT ___local_stdio_scanf_options
_TEXT	SEGMENT
___local_stdio_scanf_options PROC			; COMDAT

; 101  :         static unsigned __int64 _OptionsStorage;
; 102  :         return &_OptionsStorage;

  00000	b8 00 00 00 00	 mov	 eax, OFFSET ?_OptionsStorage@?1??__local_stdio_scanf_options@@9@4_KA ; `__local_stdio_scanf_options'::`2'::_OptionsStorage

; 103  :     }

  00005	c3		 ret	 0
___local_stdio_scanf_options ENDP
_TEXT	ENDS
; Function compile flags: /Ogtp
; File C:\Program Files (x86)\Windows Kits\10\Include\10.0.22000.0\ucrt\corecrt_stdio_config.h
;	COMDAT ___local_stdio_printf_options
_TEXT	SEGMENT
___local_stdio_printf_options PROC			; COMDAT

; 91   :         static unsigned __int64 _OptionsStorage;
; 92   :         return &_OptionsStorage;

  00000	b8 00 00 00 00	 mov	 eax, OFFSET ?_OptionsStorage@?1??__local_stdio_printf_options@@9@4_KA ; `__local_stdio_printf_options'::`2'::_OptionsStorage

; 93   :     }

  00005	c3		 ret	 0
___local_stdio_printf_options ENDP
_TEXT	ENDS
; Function compile flags: /Ogtp
; File D:\git\src\IBK\IBK_DRFN\ProjSrc\SrcDrfn\Chart\MULTICHART\MiniTickBarDlg.cpp
;	COMDAT ?__empty_global_delete@@YAXPAXI@Z
_TEXT	SEGMENT
___formal$ = 8						; size = 4
___formal$ = 12						; size = 4
?__empty_global_delete@@YAXPAXI@Z PROC			; __empty_global_delete, COMDAT

  00000	c2 00 00	 ret	 0
?__empty_global_delete@@YAXPAXI@Z ENDP			; __empty_global_delete
_TEXT	ENDS
; Function compile flags: /Ogtp
; File D:\git\src\IBK\IBK_DRFN\ProjSrc\SrcDrfn\Chart\MULTICHART\MiniTickBarDlg.cpp
;	COMDAT ?__empty_global_delete@@YAXPAX@Z
_TEXT	SEGMENT
___formal$ = 8						; size = 4
?__empty_global_delete@@YAXPAX@Z PROC			; __empty_global_delete, COMDAT

  00000	c2 00 00	 ret	 0
?__empty_global_delete@@YAXPAX@Z ENDP			; __empty_global_delete
_TEXT	ENDS
END
