; Listing generated by Microsoft (R) Optimizing Compiler Version 19.29.30145.0 

	TITLE	D:\git\src\IBK\IBK_DRFN\#DRfn-CS\_Obj\MultiChart\Parser.obj
	.686P
	.XMM
	include listing.inc
	.model	flat

INCLUDELIB MSVCRT
INCLUDELIB OLDNAMES

PUBLIC	?__empty_global_delete@@YAXPAX@Z		; __empty_global_delete
PUBLIC	?__empty_global_delete@@YAXPAXI@Z		; __empty_global_delete
PUBLIC	??0CParser@@QAE@XZ				; CParser::CParser
PUBLIC	??1CParser@@UAE@XZ				; CParser::~CParser
PUBLIC	?GetString@CParser@@SA?AV?$CStringT@DV?$StrTraitMFC_DLL@DV?$ChTraitsCRT@D@ATL@@@@@ATL@@AAV23@D@Z ; CParser::GetString
PUBLIC	??_GCParser@@UAEPAXI@Z				; CParser::`scalar deleting destructor'
PUBLIC	??_C@_00CNPNBAHC@@				; `string'
PUBLIC	??_7CParser@@6B@				; CParser::`vftable'
PUBLIC	??_R4CParser@@6B@				; CParser::`RTTI Complete Object Locator'
PUBLIC	??_R0?AVCParser@@@8				; CParser `RTTI Type Descriptor'
PUBLIC	??_R3CParser@@8					; CParser::`RTTI Class Hierarchy Descriptor'
PUBLIC	??_R2CParser@@8					; CParser::`RTTI Base Class Array'
PUBLIC	??_R1A@?0A@EA@CParser@@8			; CParser::`RTTI Base Class Descriptor at (0,-1,0,64)'
EXTRN	??3@YAXPAXI@Z:PROC				; operator delete
EXTRN	__imp_??0?$CStringT@DV?$StrTraitMFC_DLL@DV?$ChTraitsCRT@D@ATL@@@@@ATL@@QAE@XZ:PROC
EXTRN	__imp_??0?$CStringT@DV?$StrTraitMFC_DLL@DV?$ChTraitsCRT@D@ATL@@@@@ATL@@QAE@ABV01@@Z:PROC
EXTRN	__imp_??0?$CStringT@DV?$StrTraitMFC_DLL@DV?$ChTraitsCRT@D@ATL@@@@@ATL@@QAE@PBD@Z:PROC
EXTRN	__imp_??1?$CStringT@DV?$StrTraitMFC_DLL@DV?$ChTraitsCRT@D@ATL@@@@@ATL@@QAE@XZ:PROC
EXTRN	__imp_??4?$CStringT@DV?$StrTraitMFC_DLL@DV?$ChTraitsCRT@D@ATL@@@@@ATL@@QAEAAV01@ABV01@@Z:PROC
EXTRN	__imp_??4?$CStringT@DV?$StrTraitMFC_DLL@DV?$ChTraitsCRT@D@ATL@@@@@ATL@@QAEAAV01@PBD@Z:PROC
EXTRN	__imp_?Find@?$CStringT@DV?$StrTraitMFC_DLL@DV?$ChTraitsCRT@D@ATL@@@@@ATL@@QBEHDH@Z:PROC
EXTRN	__imp_?TrimRight@?$CStringT@DV?$StrTraitMFC_DLL@DV?$ChTraitsCRT@D@ATL@@@@@ATL@@QAEAAV12@XZ:PROC
EXTRN	__imp_?TrimLeft@?$CStringT@DV?$StrTraitMFC_DLL@DV?$ChTraitsCRT@D@ATL@@@@@ATL@@QAEAAV12@XZ:PROC
EXTRN	__imp_?Mid@?$CStringT@DV?$StrTraitMFC_DLL@DV?$ChTraitsCRT@D@ATL@@@@@ATL@@QBE?AV12@H@Z:PROC
EXTRN	__imp_?Left@?$CStringT@DV?$StrTraitMFC_DLL@DV?$ChTraitsCRT@D@ATL@@@@@ATL@@QBE?AV12@H@Z:PROC
EXTRN	??_ECParser@@UAEPAXI@Z:PROC			; CParser::`vector deleting destructor'
EXTRN	@__security_check_cookie@4:PROC
EXTRN	___CxxFrameHandler3:PROC
EXTRN	??_7type_info@@6B@:QWORD			; type_info::`vftable'
EXTRN	___security_cookie:DWORD
;	COMDAT ??_R1A@?0A@EA@CParser@@8
rdata$r	SEGMENT
??_R1A@?0A@EA@CParser@@8 DD FLAT:??_R0?AVCParser@@@8	; CParser::`RTTI Base Class Descriptor at (0,-1,0,64)'
	DD	00H
	DD	00H
	DD	0ffffffffH
	DD	00H
	DD	040H
	DD	FLAT:??_R3CParser@@8
rdata$r	ENDS
;	COMDAT ??_R2CParser@@8
rdata$r	SEGMENT
??_R2CParser@@8 DD FLAT:??_R1A@?0A@EA@CParser@@8	; CParser::`RTTI Base Class Array'
rdata$r	ENDS
;	COMDAT ??_R3CParser@@8
rdata$r	SEGMENT
??_R3CParser@@8 DD 00H					; CParser::`RTTI Class Hierarchy Descriptor'
	DD	00H
	DD	01H
	DD	FLAT:??_R2CParser@@8
rdata$r	ENDS
;	COMDAT ??_R0?AVCParser@@@8
data$rs	SEGMENT
??_R0?AVCParser@@@8 DD FLAT:??_7type_info@@6B@		; CParser `RTTI Type Descriptor'
	DD	00H
	DB	'.?AVCParser@@', 00H
data$rs	ENDS
;	COMDAT ??_R4CParser@@6B@
rdata$r	SEGMENT
??_R4CParser@@6B@ DD 00H				; CParser::`RTTI Complete Object Locator'
	DD	00H
	DD	00H
	DD	FLAT:??_R0?AVCParser@@@8
	DD	FLAT:??_R3CParser@@8
rdata$r	ENDS
;	COMDAT ??_7CParser@@6B@
CONST	SEGMENT
??_7CParser@@6B@ DD FLAT:??_R4CParser@@6B@		; CParser::`vftable'
	DD	FLAT:??_ECParser@@UAEPAXI@Z
CONST	ENDS
;	COMDAT ??_C@_00CNPNBAHC@@
CONST	SEGMENT
??_C@_00CNPNBAHC@@ DB 00H				; `string'
CONST	ENDS
;	COMDAT xdata$x
xdata$x	SEGMENT
__unwindtable$?GetString@CParser@@SA?AV?$CStringT@DV?$StrTraitMFC_DLL@DV?$ChTraitsCRT@D@ATL@@@@@ATL@@AAV23@D@Z DD 0ffffffffH
	DD	FLAT:__unwindfunclet$?GetString@CParser@@SA?AV?$CStringT@DV?$StrTraitMFC_DLL@DV?$ChTraitsCRT@D@ATL@@@@@ATL@@AAV23@D@Z$1
	DD	00H
	DD	FLAT:__unwindfunclet$?GetString@CParser@@SA?AV?$CStringT@DV?$StrTraitMFC_DLL@DV?$ChTraitsCRT@D@ATL@@@@@ATL@@AAV23@D@Z$2
	DD	00H
	DD	FLAT:__unwindfunclet$?GetString@CParser@@SA?AV?$CStringT@DV?$StrTraitMFC_DLL@DV?$ChTraitsCRT@D@ATL@@@@@ATL@@AAV23@D@Z$3
__ehfuncinfo$?GetString@CParser@@SA?AV?$CStringT@DV?$StrTraitMFC_DLL@DV?$ChTraitsCRT@D@ATL@@@@@ATL@@AAV23@D@Z DD 019930522H
	DD	03H
	DD	FLAT:__unwindtable$?GetString@CParser@@SA?AV?$CStringT@DV?$StrTraitMFC_DLL@DV?$ChTraitsCRT@D@ATL@@@@@ATL@@AAV23@D@Z
	DD	2 DUP(00H)
	DD	2 DUP(00H)
	DD	00H
	DD	01H
xdata$x	ENDS
; Function compile flags: /Ogtp
;	COMDAT ??_GCParser@@UAEPAXI@Z
_TEXT	SEGMENT
___flags$ = 8						; size = 4
??_GCParser@@UAEPAXI@Z PROC				; CParser::`scalar deleting destructor', COMDAT
; _this$ = ecx
  00000	55		 push	 ebp
  00001	8b ec		 mov	 ebp, esp
  00003	f6 45 08 01	 test	 BYTE PTR ___flags$[ebp], 1
  00007	56		 push	 esi
  00008	8b f1		 mov	 esi, ecx
  0000a	c7 06 00 00 00
	00		 mov	 DWORD PTR [esi], OFFSET ??_7CParser@@6B@
  00010	74 0b		 je	 SHORT $LN4@scalar
  00012	6a 04		 push	 4
  00014	56		 push	 esi
  00015	e8 00 00 00 00	 call	 ??3@YAXPAXI@Z		; operator delete
  0001a	83 c4 08	 add	 esp, 8
$LN4@scalar:
  0001d	8b c6		 mov	 eax, esi
  0001f	5e		 pop	 esi
  00020	5d		 pop	 ebp
  00021	c2 04 00	 ret	 4
??_GCParser@@UAEPAXI@Z ENDP				; CParser::`scalar deleting destructor'
_TEXT	ENDS
; Function compile flags: /Ogtp
; File D:\git\src\IBK\IBK_DRFN\ProjSrc\SrcDrfn\Chart\MULTICHART\include\Parser.cpp
; File C:\Program Files (x86)\Microsoft Visual Studio\2019\Community\VC\Tools\MSVC\14.29.30133\atlmfc\include\atlsimpstr.h
; File D:\git\src\IBK\IBK_DRFN\ProjSrc\SrcDrfn\Chart\MULTICHART\include\Parser.cpp
;	COMDAT ?GetString@CParser@@SA?AV?$CStringT@DV?$StrTraitMFC_DLL@DV?$ChTraitsCRT@D@ATL@@@@@ATL@@AAV23@D@Z
_TEXT	SEGMENT
$T2 = -16						; size = 4
$T3 = -16						; size = 4
__$EHRec$ = -12						; size = 12
___$ReturnUdt$ = 8					; size = 4
_szRet$ = 12						; size = 4
_szString$ = 12						; size = 4
_deli$ = 16						; size = 1
?GetString@CParser@@SA?AV?$CStringT@DV?$StrTraitMFC_DLL@DV?$ChTraitsCRT@D@ATL@@@@@ATL@@AAV23@D@Z PROC ; CParser::GetString, COMDAT

; 29   : {

  00000	55		 push	 ebp
  00001	8b ec		 mov	 ebp, esp
  00003	6a ff		 push	 -1
  00005	68 00 00 00 00	 push	 __ehhandler$?GetString@CParser@@SA?AV?$CStringT@DV?$StrTraitMFC_DLL@DV?$ChTraitsCRT@D@ATL@@@@@ATL@@AAV23@D@Z
  0000a	64 a1 00 00 00
	00		 mov	 eax, DWORD PTR fs:0
  00010	50		 push	 eax
  00011	51		 push	 ecx
  00012	56		 push	 esi
  00013	57		 push	 edi
  00014	a1 00 00 00 00	 mov	 eax, DWORD PTR ___security_cookie
  00019	33 c5		 xor	 eax, ebp
  0001b	50		 push	 eax
  0001c	8d 45 f4	 lea	 eax, DWORD PTR __$EHRec$[ebp]
  0001f	64 a3 00 00 00
	00		 mov	 DWORD PTR fs:0, eax
; File C:\Program Files (x86)\Microsoft Visual Studio\2019\Community\VC\Tools\MSVC\14.29.30133\atlmfc\include\atlsimpstr.h

; 519  : 		return( GetData()->nDataLength );

  00025	8b 75 0c	 mov	 esi, DWORD PTR _szString$[ebp]
  00028	8b 06		 mov	 eax, DWORD PTR [esi]
; File D:\git\src\IBK\IBK_DRFN\ProjSrc\SrcDrfn\Chart\MULTICHART\include\Parser.cpp

; 30   : 	if(szString.GetLength()==0)	return "";

  0002a	83 78 f4 00	 cmp	 DWORD PTR [eax-12], 0
  0002e	75 22		 jne	 SHORT $LN2@GetString
  00030	8b 4d 08	 mov	 ecx, DWORD PTR ___$ReturnUdt$[ebp]
  00033	68 00 00 00 00	 push	 OFFSET ??_C@_00CNPNBAHC@@
  00038	ff 15 00 00 00
	00		 call	 DWORD PTR __imp_??0?$CStringT@DV?$StrTraitMFC_DLL@DV?$ChTraitsCRT@D@ATL@@@@@ATL@@QAE@PBD@Z

; 49   : }

  0003e	8b 45 08	 mov	 eax, DWORD PTR ___$ReturnUdt$[ebp]
  00041	8b 4d f4	 mov	 ecx, DWORD PTR __$EHRec$[ebp]
  00044	64 89 0d 00 00
	00 00		 mov	 DWORD PTR fs:0, ecx
  0004b	59		 pop	 ecx
  0004c	5f		 pop	 edi
  0004d	5e		 pop	 esi
  0004e	8b e5		 mov	 esp, ebp
  00050	5d		 pop	 ebp
  00051	c3		 ret	 0
$LN2@GetString:

; 31   : 		
; 32   : 	CString szRet;

  00052	8d 4d 0c	 lea	 ecx, DWORD PTR _szRet$[ebp]
  00055	ff 15 00 00 00
	00		 call	 DWORD PTR __imp_??0?$CStringT@DV?$StrTraitMFC_DLL@DV?$ChTraitsCRT@D@ATL@@@@@ATL@@QAE@XZ

; 33   : 	int nIndex = szString.Find(deli);

  0005b	6a 00		 push	 0
  0005d	ff 75 10	 push	 DWORD PTR _deli$[ebp]
  00060	8b ce		 mov	 ecx, esi
  00062	c7 45 fc 00 00
	00 00		 mov	 DWORD PTR __$EHRec$[ebp+8], 0
  00069	ff 15 00 00 00
	00		 call	 DWORD PTR __imp_?Find@?$CStringT@DV?$StrTraitMFC_DLL@DV?$ChTraitsCRT@D@ATL@@@@@ATL@@QBEHDH@Z
  0006f	8b f8		 mov	 edi, eax

; 34   : 	if(nIndex<0)		// 구분자가 없는 경우 인자로 들어온 스트링을 넘긴다. 

  00071	8b ce		 mov	 ecx, esi
  00073	85 ff		 test	 edi, edi
  00075	79 27		 jns	 SHORT $LN3@GetString

; 35   : 	{
; 36   : 		szString.TrimLeft();		szString.TrimRight();

  00077	ff 15 00 00 00
	00		 call	 DWORD PTR __imp_?TrimLeft@?$CStringT@DV?$StrTraitMFC_DLL@DV?$ChTraitsCRT@D@ATL@@@@@ATL@@QAEAAV12@XZ
  0007d	8b ce		 mov	 ecx, esi
  0007f	ff 15 00 00 00
	00		 call	 DWORD PTR __imp_?TrimRight@?$CStringT@DV?$StrTraitMFC_DLL@DV?$ChTraitsCRT@D@ATL@@@@@ATL@@QAEAAV12@XZ

; 37   : 		szRet = szString;

  00085	56		 push	 esi
  00086	8d 4d 0c	 lea	 ecx, DWORD PTR _szRet$[ebp]
  00089	ff 15 00 00 00
	00		 call	 DWORD PTR __imp_??4?$CStringT@DV?$StrTraitMFC_DLL@DV?$ChTraitsCRT@D@ATL@@@@@ATL@@QAEAAV01@ABV01@@Z

; 38   : 		szString = "";

  0008f	68 00 00 00 00	 push	 OFFSET ??_C@_00CNPNBAHC@@
  00094	8b ce		 mov	 ecx, esi
  00096	ff 15 00 00 00
	00		 call	 DWORD PTR __imp_??4?$CStringT@DV?$StrTraitMFC_DLL@DV?$ChTraitsCRT@D@ATL@@@@@ATL@@QAEAAV01@PBD@Z

; 39   : 	}

  0009c	eb 72		 jmp	 SHORT $LN4@GetString
$LN3@GetString:

; 40   : 	else
; 41   : 	{
; 42   : 		szRet = szString.Left(nIndex);

  0009e	57		 push	 edi
  0009f	8d 45 f0	 lea	 eax, DWORD PTR $T3[ebp]
  000a2	50		 push	 eax
  000a3	ff 15 00 00 00
	00		 call	 DWORD PTR __imp_?Left@?$CStringT@DV?$StrTraitMFC_DLL@DV?$ChTraitsCRT@D@ATL@@@@@ATL@@QBE?AV12@H@Z
  000a9	50		 push	 eax
  000aa	8d 4d 0c	 lea	 ecx, DWORD PTR _szRet$[ebp]
  000ad	c6 45 fc 01	 mov	 BYTE PTR __$EHRec$[ebp+8], 1
  000b1	ff 15 00 00 00
	00		 call	 DWORD PTR __imp_??4?$CStringT@DV?$StrTraitMFC_DLL@DV?$ChTraitsCRT@D@ATL@@@@@ATL@@QAEAAV01@ABV01@@Z
  000b7	8d 4d f0	 lea	 ecx, DWORD PTR $T3[ebp]
  000ba	c6 45 fc 00	 mov	 BYTE PTR __$EHRec$[ebp+8], 0
  000be	ff 15 00 00 00
	00		 call	 DWORD PTR __imp_??1?$CStringT@DV?$StrTraitMFC_DLL@DV?$ChTraitsCRT@D@ATL@@@@@ATL@@QAE@XZ

; 43   : 		szString = szString.Mid(nIndex+1);

  000c4	8d 47 01	 lea	 eax, DWORD PTR [edi+1]
  000c7	8b ce		 mov	 ecx, esi
  000c9	50		 push	 eax
  000ca	8d 45 f0	 lea	 eax, DWORD PTR $T2[ebp]
  000cd	50		 push	 eax
  000ce	ff 15 00 00 00
	00		 call	 DWORD PTR __imp_?Mid@?$CStringT@DV?$StrTraitMFC_DLL@DV?$ChTraitsCRT@D@ATL@@@@@ATL@@QBE?AV12@H@Z
  000d4	50		 push	 eax
  000d5	8b ce		 mov	 ecx, esi
  000d7	c6 45 fc 02	 mov	 BYTE PTR __$EHRec$[ebp+8], 2
  000db	ff 15 00 00 00
	00		 call	 DWORD PTR __imp_??4?$CStringT@DV?$StrTraitMFC_DLL@DV?$ChTraitsCRT@D@ATL@@@@@ATL@@QAEAAV01@ABV01@@Z
  000e1	8d 4d f0	 lea	 ecx, DWORD PTR $T2[ebp]
  000e4	c6 45 fc 00	 mov	 BYTE PTR __$EHRec$[ebp+8], 0
  000e8	ff 15 00 00 00
	00		 call	 DWORD PTR __imp_??1?$CStringT@DV?$StrTraitMFC_DLL@DV?$ChTraitsCRT@D@ATL@@@@@ATL@@QAE@XZ

; 44   : 		szRet.TrimLeft();		szRet.TrimRight();

  000ee	8d 4d 0c	 lea	 ecx, DWORD PTR _szRet$[ebp]
  000f1	ff 15 00 00 00
	00		 call	 DWORD PTR __imp_?TrimLeft@?$CStringT@DV?$StrTraitMFC_DLL@DV?$ChTraitsCRT@D@ATL@@@@@ATL@@QAEAAV12@XZ
  000f7	8d 4d 0c	 lea	 ecx, DWORD PTR _szRet$[ebp]
  000fa	ff 15 00 00 00
	00		 call	 DWORD PTR __imp_?TrimRight@?$CStringT@DV?$StrTraitMFC_DLL@DV?$ChTraitsCRT@D@ATL@@@@@ATL@@QAEAAV12@XZ

; 45   : 		szString.TrimLeft();	szString.TrimRight();

  00100	8b ce		 mov	 ecx, esi
  00102	ff 15 00 00 00
	00		 call	 DWORD PTR __imp_?TrimLeft@?$CStringT@DV?$StrTraitMFC_DLL@DV?$ChTraitsCRT@D@ATL@@@@@ATL@@QAEAAV12@XZ
  00108	8b ce		 mov	 ecx, esi
  0010a	ff 15 00 00 00
	00		 call	 DWORD PTR __imp_?TrimRight@?$CStringT@DV?$StrTraitMFC_DLL@DV?$ChTraitsCRT@D@ATL@@@@@ATL@@QAEAAV12@XZ
$LN4@GetString:

; 46   : 	}
; 47   : 
; 48   : 	return szRet;

  00110	8b 4d 08	 mov	 ecx, DWORD PTR ___$ReturnUdt$[ebp]
  00113	8d 45 0c	 lea	 eax, DWORD PTR _szRet$[ebp]
  00116	50		 push	 eax
  00117	ff 15 00 00 00
	00		 call	 DWORD PTR __imp_??0?$CStringT@DV?$StrTraitMFC_DLL@DV?$ChTraitsCRT@D@ATL@@@@@ATL@@QAE@ABV01@@Z
  0011d	8d 4d 0c	 lea	 ecx, DWORD PTR _szRet$[ebp]
  00120	ff 15 00 00 00
	00		 call	 DWORD PTR __imp_??1?$CStringT@DV?$StrTraitMFC_DLL@DV?$ChTraitsCRT@D@ATL@@@@@ATL@@QAE@XZ

; 49   : }

  00126	8b 45 08	 mov	 eax, DWORD PTR ___$ReturnUdt$[ebp]
  00129	8b 4d f4	 mov	 ecx, DWORD PTR __$EHRec$[ebp]
  0012c	64 89 0d 00 00
	00 00		 mov	 DWORD PTR fs:0, ecx
  00133	59		 pop	 ecx
  00134	5f		 pop	 edi
  00135	5e		 pop	 esi
  00136	8b e5		 mov	 esp, ebp
  00138	5d		 pop	 ebp
  00139	c3		 ret	 0
_TEXT	ENDS
;	COMDAT text$x
text$x	SEGMENT
__unwindfunclet$?GetString@CParser@@SA?AV?$CStringT@DV?$StrTraitMFC_DLL@DV?$ChTraitsCRT@D@ATL@@@@@ATL@@AAV23@D@Z$1:
  00000	8d 4d 0c	 lea	 ecx, DWORD PTR _szRet$[ebp]
  00003	ff 25 00 00 00
	00		 jmp	 DWORD PTR __imp_??1?$CStringT@DV?$StrTraitMFC_DLL@DV?$ChTraitsCRT@D@ATL@@@@@ATL@@QAE@XZ
__unwindfunclet$?GetString@CParser@@SA?AV?$CStringT@DV?$StrTraitMFC_DLL@DV?$ChTraitsCRT@D@ATL@@@@@ATL@@AAV23@D@Z$2:
  00009	8d 4d f0	 lea	 ecx, DWORD PTR $T3[ebp]
  0000c	ff 25 00 00 00
	00		 jmp	 DWORD PTR __imp_??1?$CStringT@DV?$StrTraitMFC_DLL@DV?$ChTraitsCRT@D@ATL@@@@@ATL@@QAE@XZ
__unwindfunclet$?GetString@CParser@@SA?AV?$CStringT@DV?$StrTraitMFC_DLL@DV?$ChTraitsCRT@D@ATL@@@@@ATL@@AAV23@D@Z$3:
  00012	8d 4d f0	 lea	 ecx, DWORD PTR $T2[ebp]
  00015	ff 25 00 00 00
	00		 jmp	 DWORD PTR __imp_??1?$CStringT@DV?$StrTraitMFC_DLL@DV?$ChTraitsCRT@D@ATL@@@@@ATL@@QAE@XZ
  0001b	cc		 int	 3
  0001c	cc		 int	 3
  0001d	cc		 int	 3
  0001e	cc		 int	 3
  0001f	cc		 int	 3
__ehhandler$?GetString@CParser@@SA?AV?$CStringT@DV?$StrTraitMFC_DLL@DV?$ChTraitsCRT@D@ATL@@@@@ATL@@AAV23@D@Z:
  00020	90		 npad	 1
  00021	90		 npad	 1
  00022	8b 54 24 08	 mov	 edx, DWORD PTR [esp+8]
  00026	8d 42 0c	 lea	 eax, DWORD PTR [edx+12]
  00029	8b 4a f0	 mov	 ecx, DWORD PTR [edx-16]
  0002c	33 c8		 xor	 ecx, eax
  0002e	e8 00 00 00 00	 call	 @__security_check_cookie@4
  00033	b8 00 00 00 00	 mov	 eax, OFFSET __ehfuncinfo$?GetString@CParser@@SA?AV?$CStringT@DV?$StrTraitMFC_DLL@DV?$ChTraitsCRT@D@ATL@@@@@ATL@@AAV23@D@Z
  00038	e9 00 00 00 00	 jmp	 ___CxxFrameHandler3
text$x	ENDS
?GetString@CParser@@SA?AV?$CStringT@DV?$StrTraitMFC_DLL@DV?$ChTraitsCRT@D@ATL@@@@@ATL@@AAV23@D@Z ENDP ; CParser::GetString
; Function compile flags: /Ogtp
; File D:\git\src\IBK\IBK_DRFN\ProjSrc\SrcDrfn\Chart\MULTICHART\include\Parser.cpp
;	COMDAT ??1CParser@@UAE@XZ
_TEXT	SEGMENT
??1CParser@@UAE@XZ PROC					; CParser::~CParser, COMDAT
; _this$ = ecx

; 24   : {

  00000	c7 01 00 00 00
	00		 mov	 DWORD PTR [ecx], OFFSET ??_7CParser@@6B@

; 25   : 
; 26   : }

  00006	c3		 ret	 0
??1CParser@@UAE@XZ ENDP					; CParser::~CParser
_TEXT	ENDS
; Function compile flags: /Ogtp
; File D:\git\src\IBK\IBK_DRFN\ProjSrc\SrcDrfn\Chart\MULTICHART\include\Parser.cpp
;	COMDAT ??0CParser@@QAE@XZ
_TEXT	SEGMENT
??0CParser@@QAE@XZ PROC					; CParser::CParser, COMDAT
; _this$ = ecx

; 19   : {

  00000	c7 01 00 00 00
	00		 mov	 DWORD PTR [ecx], OFFSET ??_7CParser@@6B@

; 20   : 
; 21   : }

  00006	8b c1		 mov	 eax, ecx
  00008	c3		 ret	 0
??0CParser@@QAE@XZ ENDP					; CParser::CParser
_TEXT	ENDS
; Function compile flags: /Ogtp
; File D:\git\src\IBK\IBK_DRFN\ProjSrc\SrcDrfn\Chart\MULTICHART\include\Parser.cpp
;	COMDAT ?__empty_global_delete@@YAXPAXI@Z
_TEXT	SEGMENT
___formal$ = 8						; size = 4
___formal$ = 12						; size = 4
?__empty_global_delete@@YAXPAXI@Z PROC			; __empty_global_delete, COMDAT

  00000	c2 00 00	 ret	 0
?__empty_global_delete@@YAXPAXI@Z ENDP			; __empty_global_delete
_TEXT	ENDS
; Function compile flags: /Ogtp
; File D:\git\src\IBK\IBK_DRFN\ProjSrc\SrcDrfn\Chart\MULTICHART\include\Parser.cpp
;	COMDAT ?__empty_global_delete@@YAXPAX@Z
_TEXT	SEGMENT
___formal$ = 8						; size = 4
?__empty_global_delete@@YAXPAX@Z PROC			; __empty_global_delete, COMDAT

  00000	c2 00 00	 ret	 0
?__empty_global_delete@@YAXPAX@Z ENDP			; __empty_global_delete
_TEXT	ENDS
END
