; Listing generated by Microsoft (R) Optimizing Compiler Version 19.29.30145.0 

	TITLE	D:\git\src\IBK\IBK_DRFN\#DRfn-CS\_Obj\MultiChart\PopupList.obj
	.686P
	.XMM
	include listing.inc
	.model	flat

INCLUDELIB MSVCRT
INCLUDELIB OLDNAMES

PUBLIC	?__empty_global_delete@@YAXPAX@Z		; __empty_global_delete
PUBLIC	?__empty_global_delete@@YAXPAXI@Z		; __empty_global_delete
PUBLIC	??1CObject@@UAE@XZ				; CObject::~CObject
PUBLIC	?Serialize@CObject@@UAEXAAVCArchive@@@Z		; CObject::Serialize
PUBLIC	?AssertValid@CObject@@UBEXXZ			; CObject::AssertValid
PUBLIC	?Dump@CObject@@UBEXAAVCDumpContext@@@Z		; CObject::Dump
PUBLIC	??1CGdiObject@@UAE@XZ				; CGdiObject::~CGdiObject
PUBLIC	??_GCGdiObject@@UAEPAXI@Z			; CGdiObject::`scalar deleting destructor'
PUBLIC	??1CRgn@@UAE@XZ					; CRgn::~CRgn
PUBLIC	??_GCRgn@@UAEPAXI@Z				; CRgn::`scalar deleting destructor'
PUBLIC	?DoDataExchange@CWnd@@MAEXPAVCDataExchange@@@Z	; CWnd::DoDataExchange
PUBLIC	?BeginModalState@CWnd@@UAEXXZ			; CWnd::BeginModalState
PUBLIC	?EndModalState@CWnd@@UAEXXZ			; CWnd::EndModalState
PUBLIC	??_GCListCtrl@@UAEPAXI@Z			; CListCtrl::`scalar deleting destructor'
PUBLIC	??1CRscDlg@@UAE@XZ				; CRscDlg::~CRscDlg
PUBLIC	??0CPopupList@@QAE@PAV?$CList@PAVCHistory@@PAV1@@@HPAVCWnd@@@Z ; CPopupList::CPopupList
PUBLIC	?MakeListCtrlColumn@CPopupList@@QAEXXZ		; CPopupList::MakeListCtrlColumn
PUBLIC	?MakeInitHistoryIntoListCtrl@CPopupList@@QAEXXZ	; CPopupList::MakeInitHistoryIntoListCtrl
PUBLIC	?AdjustListCtrl@CPopupList@@QAEXXZ		; CPopupList::AdjustListCtrl
PUBLIC	?DoDataExchange@CPopupList@@MAEXPAVCDataExchange@@@Z ; CPopupList::DoDataExchange
PUBLIC	?OnInitDialog@CPopupList@@MAEHXZ		; CPopupList::OnInitDialog
PUBLIC	?OnKillfocusList@CPopupList@@IAEXPAUtagNMHDR@@PAJ@Z ; CPopupList::OnKillfocusList
PUBLIC	?OnClickList@CPopupList@@IAEXPAUtagNMHDR@@PAJ@Z	; CPopupList::OnClickList
PUBLIC	?OnShowWindow@CPopupList@@IAEXHI@Z		; CPopupList::OnShowWindow
PUBLIC	?GetThisMessageMap@CPopupList@@KGPBUAFX_MSGMAP@@XZ ; CPopupList::GetThisMessageMap
PUBLIC	?GetMessageMap@CPopupList@@MBEPBUAFX_MSGMAP@@XZ	; CPopupList::GetMessageMap
PUBLIC	??_GCPopupList@@UAEPAXI@Z			; CPopupList::`scalar deleting destructor'
PUBLIC	??_R0PAVCException@@@8				; CException * `RTTI Type Descriptor'
PUBLIC	??_C@_00CNPNBAHC@@				; `string'
PUBLIC	??_7CGdiObject@@6B@				; CGdiObject::`vftable'
PUBLIC	??_7CRgn@@6B@					; CRgn::`vftable'
PUBLIC	??_C@_0HD@JJCHHHNK@C?3?2Program?5Files?5?$CIx86?$CJ?2Microsof@ ; `string'
PUBLIC	??_C@_0BP@OIEOKIDM@Exception?5thrown?5in?5destructor@ ; `string'
PUBLIC	??_C@_0BB@HBOOMJBF@?$CFTs?5?$CI?$CFTs?3?$CFd?$CJ?6?$CFTs@ ; `string'
PUBLIC	??_C@_0N@OMEMOKLE@?$CFTs?5?$CI?$CFTs?3?$CFd?$CJ@ ; `string'
PUBLIC	??_7CListCtrl@@6B@				; CListCtrl::`vftable'
PUBLIC	??_R0?AVCObject@@@8				; CObject `RTTI Type Descriptor'
PUBLIC	??_R3CObject@@8					; CObject::`RTTI Class Hierarchy Descriptor'
PUBLIC	??_R2CObject@@8					; CObject::`RTTI Base Class Array'
PUBLIC	??_R1A@?0A@EA@CObject@@8			; CObject::`RTTI Base Class Descriptor at (0,-1,0,64)'
PUBLIC	??_R4CGdiObject@@6B@				; CGdiObject::`RTTI Complete Object Locator'
PUBLIC	??_R0?AVCGdiObject@@@8				; CGdiObject `RTTI Type Descriptor'
PUBLIC	??_R3CGdiObject@@8				; CGdiObject::`RTTI Class Hierarchy Descriptor'
PUBLIC	??_R2CGdiObject@@8				; CGdiObject::`RTTI Base Class Array'
PUBLIC	??_R1A@?0A@EA@CGdiObject@@8			; CGdiObject::`RTTI Base Class Descriptor at (0,-1,0,64)'
PUBLIC	??_R4CRgn@@6B@					; CRgn::`RTTI Complete Object Locator'
PUBLIC	??_R0?AVCRgn@@@8				; CRgn `RTTI Type Descriptor'
PUBLIC	??_R3CRgn@@8					; CRgn::`RTTI Class Hierarchy Descriptor'
PUBLIC	??_R2CRgn@@8					; CRgn::`RTTI Base Class Array'
PUBLIC	??_R1A@?0A@EA@CRgn@@8				; CRgn::`RTTI Base Class Descriptor at (0,-1,0,64)'
PUBLIC	??_R1A@?0A@EA@CWnd@@8				; CWnd::`RTTI Base Class Descriptor at (0,-1,0,64)'
PUBLIC	??_R0?AVCWnd@@@8				; CWnd `RTTI Type Descriptor'
PUBLIC	??_R3CWnd@@8					; CWnd::`RTTI Class Hierarchy Descriptor'
PUBLIC	??_R2CWnd@@8					; CWnd::`RTTI Base Class Array'
PUBLIC	??_R1A@?0A@EA@CCmdTarget@@8			; CCmdTarget::`RTTI Base Class Descriptor at (0,-1,0,64)'
PUBLIC	??_R0?AVCCmdTarget@@@8				; CCmdTarget `RTTI Type Descriptor'
PUBLIC	??_R3CCmdTarget@@8				; CCmdTarget::`RTTI Class Hierarchy Descriptor'
PUBLIC	??_R2CCmdTarget@@8				; CCmdTarget::`RTTI Base Class Array'
PUBLIC	??_R1A@?0A@EA@CDialog@@8			; CDialog::`RTTI Base Class Descriptor at (0,-1,0,64)'
PUBLIC	??_R0?AVCDialog@@@8				; CDialog `RTTI Type Descriptor'
PUBLIC	??_R3CDialog@@8					; CDialog::`RTTI Class Hierarchy Descriptor'
PUBLIC	??_R2CDialog@@8					; CDialog::`RTTI Base Class Array'
PUBLIC	??_R4CListCtrl@@6B@				; CListCtrl::`RTTI Complete Object Locator'
PUBLIC	??_R0?AVCListCtrl@@@8				; CListCtrl `RTTI Type Descriptor'
PUBLIC	??_R3CListCtrl@@8				; CListCtrl::`RTTI Class Hierarchy Descriptor'
PUBLIC	??_R2CListCtrl@@8				; CListCtrl::`RTTI Base Class Array'
PUBLIC	??_R1A@?0A@EA@CListCtrl@@8			; CListCtrl::`RTTI Base Class Descriptor at (0,-1,0,64)'
PUBLIC	??_7CPopupList@@6B@				; CPopupList::`vftable'
PUBLIC	??_C@_07DJJMGBFE@?5?D?Z?5?$LF?e?5@		; `string'
PUBLIC	??_C@_08DCPEPDHH@?5?A?$LO?$LI?q?$LI?m?5@	; `string'
PUBLIC	??_C@_07NDNHJKEP@?5?$LM?$LB?5?E?C?5@		; `string'
PUBLIC	??_R4CPopupList@@6B@				; CPopupList::`RTTI Complete Object Locator'
PUBLIC	??_R0?AVCPopupList@@@8				; CPopupList `RTTI Type Descriptor'
PUBLIC	??_R3CPopupList@@8				; CPopupList::`RTTI Class Hierarchy Descriptor'
PUBLIC	??_R2CPopupList@@8				; CPopupList::`RTTI Base Class Array'
PUBLIC	??_R1A@?0A@EA@CPopupList@@8			; CPopupList::`RTTI Base Class Descriptor at (0,-1,0,64)'
PUBLIC	??_R1A@?0A@EA@CRscDlg@@8			; CRscDlg::`RTTI Base Class Descriptor at (0,-1,0,64)'
PUBLIC	??_R0?AVCRscDlg@@@8				; CRscDlg `RTTI Type Descriptor'
PUBLIC	??_R3CRscDlg@@8					; CRscDlg::`RTTI Class Hierarchy Descriptor'
PUBLIC	??_R2CRscDlg@@8					; CRscDlg::`RTTI Base Class Array'
PUBLIC	__real@3fd3333333333333
PUBLIC	__real@3fe199999999999a
PUBLIC	__real@3fe8000000000000
EXTRN	??3@YAXPAX@Z:PROC				; operator delete
EXTRN	?__global_delete@@YAXPAXI@Z:PROC		; __global_delete
EXTRN	__imp__CreateRectRgn@16:PROC
EXTRN	__imp__SendMessageA@16:PROC
EXTRN	__imp__PostMessageA@16:PROC
EXTRN	__imp__EnableWindow@8:PROC
EXTRN	__imp__GetSystemMetrics@4:PROC
EXTRN	__imp__SetWindowRgn@12:PROC
EXTRN	__imp__GetClientRect@8:PROC
EXTRN	__imp__InflateRect@12:PROC
EXTRN	__imp_??0?$CStringT@DV?$StrTraitMFC_DLL@DV?$ChTraitsCRT@D@ATL@@@@@ATL@@QAE@XZ:PROC
EXTRN	__imp_??1?$CStringT@DV?$StrTraitMFC_DLL@DV?$ChTraitsCRT@D@ATL@@@@@ATL@@QAE@XZ:PROC
EXTRN	__imp_?Format@?$CStringT@DV?$StrTraitMFC_DLL@DV?$ChTraitsCRT@D@ATL@@@@@ATL@@QAAXPBDZZ:PROC
EXTRN	?GetRuntimeClass@CGdiObject@@UBEPAUCRuntimeClass@@XZ:PROC ; CGdiObject::GetRuntimeClass
EXTRN	?Attach@CGdiObject@@QAEHPAX@Z:PROC		; CGdiObject::Attach
EXTRN	?DeleteObject@CGdiObject@@QAEHXZ:PROC		; CGdiObject::DeleteObject
EXTRN	??_ECGdiObject@@UAEPAXI@Z:PROC			; CGdiObject::`vector deleting destructor'
EXTRN	?GetRuntimeClass@CRgn@@UBEPAUCRuntimeClass@@XZ:PROC ; CRgn::GetRuntimeClass
EXTRN	??_ECRgn@@UAEPAXI@Z:PROC			; CRgn::`vector deleting destructor'
EXTRN	?DDX_Control@@YGXPAVCDataExchange@@HAAVCWnd@@@Z:PROC ; DDX_Control
EXTRN	?OnCmdMsg@CCmdTarget@@UAEHIHPAXPAUAFX_CMDHANDLERINFO@@@Z:PROC ; CCmdTarget::OnCmdMsg
EXTRN	?IsInvokeAllowed@CCmdTarget@@UAEHJ@Z:PROC	; CCmdTarget::IsInvokeAllowed
EXTRN	?GetDispatchIID@CCmdTarget@@UAEHPAU_GUID@@@Z:PROC ; CCmdTarget::GetDispatchIID
EXTRN	?GetTypeInfoCount@CCmdTarget@@UAEIXZ:PROC	; CCmdTarget::GetTypeInfoCount
EXTRN	?GetTypeLibCache@CCmdTarget@@UAEPAVCTypeLibCache@@XZ:PROC ; CCmdTarget::GetTypeLibCache
EXTRN	?GetTypeLib@CCmdTarget@@UAEJKPAPAUITypeLib@@@Z:PROC ; CCmdTarget::GetTypeLib
EXTRN	?GetCommandMap@CCmdTarget@@MBEPBUAFX_OLECMDMAP@@XZ:PROC ; CCmdTarget::GetCommandMap
EXTRN	?GetDispatchMap@CCmdTarget@@MBEPBUAFX_DISPMAP@@XZ:PROC ; CCmdTarget::GetDispatchMap
EXTRN	?GetConnectionMap@CCmdTarget@@MBEPBUAFX_CONNECTIONMAP@@XZ:PROC ; CCmdTarget::GetConnectionMap
EXTRN	?GetEventSinkMap@CCmdTarget@@MBEPBUAFX_EVENTSINKMAP@@XZ:PROC ; CCmdTarget::GetEventSinkMap
EXTRN	?OnCreateAggregates@CCmdTarget@@UAEHXZ:PROC	; CCmdTarget::OnCreateAggregates
EXTRN	?GetInterfaceHook@CCmdTarget@@UAEPAUIUnknown@@PBX@Z:PROC ; CCmdTarget::GetInterfaceHook
EXTRN	?GetExtraConnectionPoints@CCmdTarget@@MAEHPAVCPtrArray@@@Z:PROC ; CCmdTarget::GetExtraConnectionPoints
EXTRN	?GetConnectionHook@CCmdTarget@@MAEPAUIConnectionPoint@@ABU_GUID@@@Z:PROC ; CCmdTarget::GetConnectionHook
EXTRN	??0CWnd@@QAE@XZ:PROC				; CWnd::CWnd
EXTRN	?PreSubclassWindow@CWnd@@UAEXXZ:PROC		; CWnd::PreSubclassWindow
EXTRN	?Create@CWnd@@UAEHPBD0KABUtagRECT@@PAV1@IPAUCCreateContext@@@Z:PROC ; CWnd::Create
EXTRN	?CreateEx@CWnd@@UAEHKPBD0KHHHHPAUHWND__@@PAUHMENU__@@PAX@Z:PROC ; CWnd::CreateEx
EXTRN	?CreateEx@CWnd@@UAEHKPBD0KABUtagRECT@@PAV1@IPAX@Z:PROC ; CWnd::CreateEx
EXTRN	?DestroyWindow@CWnd@@UAEHXZ:PROC		; CWnd::DestroyWindow
EXTRN	?PreCreateWindow@CWnd@@UAEHAAUtagCREATESTRUCTA@@@Z:PROC ; CWnd::PreCreateWindow
EXTRN	?CalcWindowRect@CWnd@@UAEXPAUtagRECT@@I@Z:PROC	; CWnd::CalcWindowRect
EXTRN	?GetMenu@CWnd@@UBEPAVCMenu@@XZ:PROC		; CWnd::GetMenu
EXTRN	?SetMenu@CWnd@@UAEHPAVCMenu@@@Z:PROC		; CWnd::SetMenu
EXTRN	?SetWindowPos@CWnd@@QAEHPBV1@HHHHI@Z:PROC	; CWnd::SetWindowPos
EXTRN	?OnToolHitTest@CWnd@@UBEHVCPoint@@PAUtagTOOLINFOA@@@Z:PROC ; CWnd::OnToolHitTest
EXTRN	?SetFocus@CWnd@@QAEPAV1@XZ:PROC			; CWnd::SetFocus
EXTRN	?GetScrollBarCtrl@CWnd@@UBEPAVCScrollBar@@H@Z:PROC ; CWnd::GetScrollBarCtrl
EXTRN	?WinHelpA@CWnd@@UAEXKI@Z:PROC			; CWnd::WinHelpA
EXTRN	?HtmlHelpA@CWnd@@UAEXKI@Z:PROC			; CWnd::HtmlHelpA
EXTRN	?WinHelpInternal@CWnd@@UAEXKI@Z:PROC		; CWnd::WinHelpInternal
EXTRN	?ContinueModal@CWnd@@UAEHXZ:PROC		; CWnd::ContinueModal
EXTRN	?EndModalLoop@CWnd@@UAEXH@Z:PROC		; CWnd::EndModalLoop
EXTRN	?OnDrawIconicThumbnailOrLivePreview@CWnd@@UAEXAAVCDC@@VCRect@@VCSize@@HAAH@Z:PROC ; CWnd::OnDrawIconicThumbnailOrLivePreview
EXTRN	?GetInterfaceMap@CWnd@@MBEPBUAFX_INTERFACEMAP@@XZ:PROC ; CWnd::GetInterfaceMap
EXTRN	?EnsureStdObj@CWnd@@UAEJXZ:PROC			; CWnd::EnsureStdObj
EXTRN	?get_accParent@CWnd@@UAEJPAPAUIDispatch@@@Z:PROC ; CWnd::get_accParent
EXTRN	?get_accChildCount@CWnd@@UAEJPAJ@Z:PROC		; CWnd::get_accChildCount
EXTRN	?get_accChild@CWnd@@UAEJUtagVARIANT@@PAPAUIDispatch@@@Z:PROC ; CWnd::get_accChild
EXTRN	?get_accName@CWnd@@UAEJUtagVARIANT@@PAPA_W@Z:PROC ; CWnd::get_accName
EXTRN	?get_accValue@CWnd@@UAEJUtagVARIANT@@PAPA_W@Z:PROC ; CWnd::get_accValue
EXTRN	?get_accDescription@CWnd@@UAEJUtagVARIANT@@PAPA_W@Z:PROC ; CWnd::get_accDescription
EXTRN	?get_accRole@CWnd@@UAEJUtagVARIANT@@PAU2@@Z:PROC ; CWnd::get_accRole
EXTRN	?get_accState@CWnd@@UAEJUtagVARIANT@@PAU2@@Z:PROC ; CWnd::get_accState
EXTRN	?get_accHelp@CWnd@@UAEJUtagVARIANT@@PAPA_W@Z:PROC ; CWnd::get_accHelp
EXTRN	?get_accHelpTopic@CWnd@@UAEJPAPA_WUtagVARIANT@@PAJ@Z:PROC ; CWnd::get_accHelpTopic
EXTRN	?get_accKeyboardShortcut@CWnd@@UAEJUtagVARIANT@@PAPA_W@Z:PROC ; CWnd::get_accKeyboardShortcut
EXTRN	?get_accFocus@CWnd@@UAEJPAUtagVARIANT@@@Z:PROC	; CWnd::get_accFocus
EXTRN	?get_accSelection@CWnd@@UAEJPAUtagVARIANT@@@Z:PROC ; CWnd::get_accSelection
EXTRN	?get_accDefaultAction@CWnd@@UAEJUtagVARIANT@@PAPA_W@Z:PROC ; CWnd::get_accDefaultAction
EXTRN	?accSelect@CWnd@@UAEJJUtagVARIANT@@@Z:PROC	; CWnd::accSelect
EXTRN	?accLocation@CWnd@@UAEJPAJ000UtagVARIANT@@@Z:PROC ; CWnd::accLocation
EXTRN	?accNavigate@CWnd@@UAEJJUtagVARIANT@@PAU2@@Z:PROC ; CWnd::accNavigate
EXTRN	?accHitTest@CWnd@@UAEJJJPAUtagVARIANT@@@Z:PROC	; CWnd::accHitTest
EXTRN	?accDoDefaultAction@CWnd@@UAEJUtagVARIANT@@@Z:PROC ; CWnd::accDoDefaultAction
EXTRN	?put_accName@CWnd@@UAEJUtagVARIANT@@PA_W@Z:PROC	; CWnd::put_accName
EXTRN	?put_accValue@CWnd@@UAEJUtagVARIANT@@PA_W@Z:PROC ; CWnd::put_accValue
EXTRN	?SetProxy@CWnd@@UAEJPAUIAccessibleProxy@@@Z:PROC ; CWnd::SetProxy
EXTRN	?CreateAccessibleProxy@CWnd@@UAEJIJPAJ@Z:PROC	; CWnd::CreateAccessibleProxy
EXTRN	?OnCommand@CWnd@@MAEHIJ@Z:PROC			; CWnd::OnCommand
EXTRN	?OnNotify@CWnd@@MAEHIJPAJ@Z:PROC		; CWnd::OnNotify
EXTRN	?GetSuperWndProcAddr@CWnd@@MAEPAP6GJPAUHWND__@@IIJ@ZXZ:PROC ; CWnd::GetSuperWndProcAddr
EXTRN	?PreTranslateMessage@CWnd@@UAEHPAUtagMSG@@@Z:PROC ; CWnd::PreTranslateMessage
EXTRN	?OnAmbientProperty@CWnd@@UAEHPAVCOleControlSite@@JPAUtagVARIANT@@@Z:PROC ; CWnd::OnAmbientProperty
EXTRN	?WindowProc@CWnd@@MAEJIIJ@Z:PROC		; CWnd::WindowProc
EXTRN	?OnWndMsg@CWnd@@MAEHIIJPAJ@Z:PROC		; CWnd::OnWndMsg
EXTRN	?Default@CWnd@@IAEJXZ:PROC			; CWnd::Default
EXTRN	?DefWindowProcA@CWnd@@MAEJIIJ@Z:PROC		; CWnd::DefWindowProcA
EXTRN	?PostNcDestroy@CWnd@@MAEXXZ:PROC		; CWnd::PostNcDestroy
EXTRN	?OnChildNotify@CWnd@@MAEHIIJPAJ@Z:PROC		; CWnd::OnChildNotify
EXTRN	?OnTouchInputs@CWnd@@MAEHIPAUtagTOUCHINPUT@@@Z:PROC ; CWnd::OnTouchInputs
EXTRN	?OnTouchInput@CWnd@@MAEHVCPoint@@HHPAUtagTOUCHINPUT@@@Z:PROC ; CWnd::OnTouchInput
EXTRN	?GetGestureStatus@CWnd@@MAEKVCPoint@@@Z:PROC	; CWnd::GetGestureStatus
EXTRN	?OnGestureZoom@CWnd@@MAEHVCPoint@@J@Z:PROC	; CWnd::OnGestureZoom
EXTRN	?OnGesturePan@CWnd@@MAEHVCPoint@@0@Z:PROC	; CWnd::OnGesturePan
EXTRN	?OnGestureRotate@CWnd@@MAEHVCPoint@@N@Z:PROC	; CWnd::OnGestureRotate
EXTRN	?OnGestureTwoFingerTap@CWnd@@MAEHVCPoint@@@Z:PROC ; CWnd::OnGestureTwoFingerTap
EXTRN	?OnGesturePressAndTap@CWnd@@MAEHVCPoint@@J@Z:PROC ; CWnd::OnGesturePressAndTap
EXTRN	?ResizeDynamicLayout@CWnd@@MAEXXZ:PROC		; CWnd::ResizeDynamicLayout
EXTRN	?CheckAutoCenter@CWnd@@UAEHXZ:PROC		; CWnd::CheckAutoCenter
EXTRN	?IsFrameWnd@CWnd@@UBEHXZ:PROC			; CWnd::IsFrameWnd
EXTRN	?OnFinalRelease@CWnd@@UAEXXZ:PROC		; CWnd::OnFinalRelease
EXTRN	?CreateControlContainer@CWnd@@MAEHPAPAVCOleControlContainer@@@Z:PROC ; CWnd::CreateControlContainer
EXTRN	?CreateControlSite@CWnd@@MAEHPAVCOleControlContainer@@PAPAVCOleControlSite@@IABU_GUID@@@Z:PROC ; CWnd::CreateControlSite
EXTRN	?SetOccDialogInfo@CWnd@@MAEHPAU_AFX_OCC_DIALOG_INFO@@@Z:PROC ; CWnd::SetOccDialogInfo
EXTRN	?GetOccDialogInfo@CWnd@@MAEPAU_AFX_OCC_DIALOG_INFO@@XZ:PROC ; CWnd::GetOccDialogInfo
EXTRN	?GetRuntimeClass@CDialog@@UBEPAUCRuntimeClass@@XZ:PROC ; CDialog::GetRuntimeClass
EXTRN	?Create@CDialog@@UAEHPBDPAVCWnd@@@Z:PROC	; CDialog::Create
EXTRN	?CreateIndirect@CDialog@@UAEHPBUDLGTEMPLATE@@PAVCWnd@@PAX@Z:PROC ; CDialog::CreateIndirect
EXTRN	?CreateIndirect@CDialog@@UAEHPAXPAVCWnd@@@Z:PROC ; CDialog::CreateIndirect
EXTRN	?OnInitDialog@CDialog@@UAEHXZ:PROC		; CDialog::OnInitDialog
EXTRN	?OnSetFont@CDialog@@UAEXPAVCFont@@@Z:PROC	; CDialog::OnSetFont
EXTRN	?OnOK@CDialog@@MAEXXZ:PROC			; CDialog::OnOK
EXTRN	?OnCancel@CDialog@@MAEXXZ:PROC			; CDialog::OnCancel
EXTRN	??1CDialog@@UAE@XZ:PROC				; CDialog::~CDialog
EXTRN	?PreTranslateMessage@CDialog@@UAEHPAUtagMSG@@@Z:PROC ; CDialog::PreTranslateMessage
EXTRN	?OnCmdMsg@CDialog@@UAEHIHPAXPAUAFX_CMDHANDLERINFO@@@Z:PROC ; CDialog::OnCmdMsg
EXTRN	?CheckAutoCenter@CDialog@@UAEHXZ:PROC		; CDialog::CheckAutoCenter
EXTRN	?SetOccDialogInfo@CDialog@@MAEHPAU_AFX_OCC_DIALOG_INFO@@@Z:PROC ; CDialog::SetOccDialogInfo
EXTRN	?GetOccDialogInfo@CDialog@@MAEPAU_AFX_OCC_DIALOG_INFO@@XZ:PROC ; CDialog::GetOccDialogInfo
EXTRN	?PreInitDialog@CDialog@@MAEXXZ:PROC		; CDialog::PreInitDialog
EXTRN	?AfxMessageBox@@YGHPBDII@Z:PROC			; AfxMessageBox
EXTRN	?GetRuntimeClass@CListCtrl@@UBEPAUCRuntimeClass@@XZ:PROC ; CListCtrl::GetRuntimeClass
EXTRN	?GetItemRect@CListCtrl@@QBEHHPAUtagRECT@@I@Z:PROC ; CListCtrl::GetItemRect
EXTRN	?GetItemText@CListCtrl@@QBEHHHPADH@Z:PROC	; CListCtrl::GetItemText
EXTRN	?GetHeaderCtrl@CListCtrl@@QBEPAVCHeaderCtrl@@XZ:PROC ; CListCtrl::GetHeaderCtrl
EXTRN	?DrawItem@CListCtrl@@UAEXPAUtagDRAWITEMSTRUCT@@@Z:PROC ; CListCtrl::DrawItem
EXTRN	??1CListCtrl@@UAE@XZ:PROC			; CListCtrl::~CListCtrl
EXTRN	?OnChildNotify@CListCtrl@@MAEHIIJPAJ@Z:PROC	; CListCtrl::OnChildNotify
EXTRN	?GetMessageMap@CListCtrl@@MBEPBUAFX_MSGMAP@@XZ:PROC ; CListCtrl::GetMessageMap
EXTRN	??_ECListCtrl@@UAEPAXI@Z:PROC			; CListCtrl::`vector deleting destructor'
EXTRN	??0CRscDlg@@QAE@IPAVCWnd@@@Z:PROC		; CRscDlg::CRscDlg
EXTRN	?Create@CRscDlg@@UAEHIPAVCWnd@@@Z:PROC		; CRscDlg::Create
EXTRN	?DoModal@CRscDlg@@UAEHXZ:PROC			; CRscDlg::DoModal
EXTRN	?DoDataExchange@CRscDlg@@MAEXPAVCDataExchange@@@Z:PROC ; CRscDlg::DoDataExchange
EXTRN	?GetThisMessageMap@CRscDlg@@KGPBUAFX_MSGMAP@@XZ:PROC ; CRscDlg::GetThisMessageMap
EXTRN	??_ECPopupList@@UAEPAXI@Z:PROC			; CPopupList::`vector deleting destructor'
EXTRN	@__security_check_cookie@4:PROC
EXTRN	___CxxFrameHandler3:PROC
EXTRN	??_7type_info@@6B@:QWORD			; type_info::`vftable'
EXTRN	___security_cookie:DWORD
EXTRN	__fltused:DWORD
;	COMDAT __real@3fe8000000000000
CONST	SEGMENT
__real@3fe8000000000000 DQ 03fe8000000000000r	; 0.75
CONST	ENDS
;	COMDAT __real@3fe199999999999a
CONST	SEGMENT
__real@3fe199999999999a DQ 03fe199999999999ar	; 0.55
CONST	ENDS
;	COMDAT __real@3fd3333333333333
CONST	SEGMENT
__real@3fd3333333333333 DQ 03fd3333333333333r	; 0.3
CONST	ENDS
;	COMDAT ??_R2CRscDlg@@8
rdata$r	SEGMENT
??_R2CRscDlg@@8 DD FLAT:??_R1A@?0A@EA@CRscDlg@@8	; CRscDlg::`RTTI Base Class Array'
	DD	FLAT:??_R1A@?0A@EA@CDialog@@8
	DD	FLAT:??_R1A@?0A@EA@CWnd@@8
	DD	FLAT:??_R1A@?0A@EA@CCmdTarget@@8
	DD	FLAT:??_R1A@?0A@EA@CObject@@8
rdata$r	ENDS
;	COMDAT ??_R3CRscDlg@@8
rdata$r	SEGMENT
??_R3CRscDlg@@8 DD 00H					; CRscDlg::`RTTI Class Hierarchy Descriptor'
	DD	00H
	DD	05H
	DD	FLAT:??_R2CRscDlg@@8
rdata$r	ENDS
;	COMDAT ??_R0?AVCRscDlg@@@8
data$rs	SEGMENT
??_R0?AVCRscDlg@@@8 DD FLAT:??_7type_info@@6B@		; CRscDlg `RTTI Type Descriptor'
	DD	00H
	DB	'.?AVCRscDlg@@', 00H
data$rs	ENDS
;	COMDAT ??_R1A@?0A@EA@CRscDlg@@8
rdata$r	SEGMENT
??_R1A@?0A@EA@CRscDlg@@8 DD FLAT:??_R0?AVCRscDlg@@@8	; CRscDlg::`RTTI Base Class Descriptor at (0,-1,0,64)'
	DD	04H
	DD	00H
	DD	0ffffffffH
	DD	00H
	DD	040H
	DD	FLAT:??_R3CRscDlg@@8
rdata$r	ENDS
;	COMDAT ??_R1A@?0A@EA@CPopupList@@8
rdata$r	SEGMENT
??_R1A@?0A@EA@CPopupList@@8 DD FLAT:??_R0?AVCPopupList@@@8 ; CPopupList::`RTTI Base Class Descriptor at (0,-1,0,64)'
	DD	05H
	DD	00H
	DD	0ffffffffH
	DD	00H
	DD	040H
	DD	FLAT:??_R3CPopupList@@8
rdata$r	ENDS
;	COMDAT ??_R2CPopupList@@8
rdata$r	SEGMENT
??_R2CPopupList@@8 DD FLAT:??_R1A@?0A@EA@CPopupList@@8	; CPopupList::`RTTI Base Class Array'
	DD	FLAT:??_R1A@?0A@EA@CRscDlg@@8
	DD	FLAT:??_R1A@?0A@EA@CDialog@@8
	DD	FLAT:??_R1A@?0A@EA@CWnd@@8
	DD	FLAT:??_R1A@?0A@EA@CCmdTarget@@8
	DD	FLAT:??_R1A@?0A@EA@CObject@@8
rdata$r	ENDS
;	COMDAT ??_R3CPopupList@@8
rdata$r	SEGMENT
??_R3CPopupList@@8 DD 00H				; CPopupList::`RTTI Class Hierarchy Descriptor'
	DD	00H
	DD	06H
	DD	FLAT:??_R2CPopupList@@8
rdata$r	ENDS
;	COMDAT ??_R0?AVCPopupList@@@8
data$rs	SEGMENT
??_R0?AVCPopupList@@@8 DD FLAT:??_7type_info@@6B@	; CPopupList `RTTI Type Descriptor'
	DD	00H
	DB	'.?AVCPopupList@@', 00H
data$rs	ENDS
;	COMDAT ??_R4CPopupList@@6B@
rdata$r	SEGMENT
??_R4CPopupList@@6B@ DD 00H				; CPopupList::`RTTI Complete Object Locator'
	DD	00H
	DD	00H
	DD	FLAT:??_R0?AVCPopupList@@@8
	DD	FLAT:??_R3CPopupList@@8
rdata$r	ENDS
;	COMDAT ??_C@_07NDNHJKEP@?5?$LM?$LB?5?E?C?5@
CONST	SEGMENT
??_C@_07NDNHJKEP@?5?$LM?$LB?5?E?C?5@ DB ' ', 0bcH, 0b1H, ' ', 0c5H, 0c3H, ' '
	DB	00H						; `string'
CONST	ENDS
;	COMDAT ??_C@_08DCPEPDHH@?5?A?$LO?$LI?q?$LI?m?5@
CONST	SEGMENT
??_C@_08DCPEPDHH@?5?A?$LO?$LI?q?$LI?m?5@ DB ' ', 0c1H, 0beH, 0b8H, 0f1H, 0b8H
	DB	0edH, ' ', 00H				; `string'
CONST	ENDS
;	COMDAT ??_C@_07DJJMGBFE@?5?D?Z?5?$LF?e?5@
CONST	SEGMENT
??_C@_07DJJMGBFE@?5?D?Z?5?$LF?e?5@ DB ' ', 0c4H, 0daH, ' ', 0b5H, 0e5H, ' '
	DB	00H						; `string'
CONST	ENDS
;	COMDAT ?messageMap@?1??GetThisMessageMap@CPopupList@@KGPBUAFX_MSGMAP@@XZ@4U3@B
CONST	SEGMENT
?messageMap@?1??GetThisMessageMap@CPopupList@@KGPBUAFX_MSGMAP@@XZ@4U3@B DD FLAT:?GetThisMessageMap@CRscDlg@@KGPBUAFX_MSGMAP@@XZ ; `CPopupList::GetThisMessageMap'::`2'::messageMap
	DD	FLAT:?_messageEntries@?1??GetThisMessageMap@CPopupList@@KGPBUAFX_MSGMAP@@XZ@4QBUAFX_MSGMAP_ENTRY@@B
CONST	ENDS
;	COMDAT ?_messageEntries@?1??GetThisMessageMap@CPopupList@@KGPBUAFX_MSGMAP@@XZ@4QBUAFX_MSGMAP_ENTRY@@B
CONST	SEGMENT
?_messageEntries@?1??GetThisMessageMap@CPopupList@@KGPBUAFX_MSGMAP@@XZ@4QBUAFX_MSGMAP_ENTRY@@B DD 04eH ; `CPopupList::GetThisMessageMap'::`2'::_messageEntries
	DD	0fff8H
	DD	04e36H
	DD	04e36H
	DD	03eH
	DD	FLAT:?OnKillfocusList@CPopupList@@IAEXPAUtagNMHDR@@PAJ@Z
	DD	04eH
	DD	0fffeH
	DD	04e36H
	DD	04e36H
	DD	03eH
	DD	FLAT:?OnClickList@CPopupList@@IAEXPAUtagNMHDR@@PAJ@Z
	DD	018H
	DD	00H
	DD	00H
	DD	00H
	DD	016H
	DD	FLAT:?OnShowWindow@CPopupList@@IAEXHI@Z
	DD	00H
	DD	00H
	DD	00H
	DD	00H
	DD	00H
	DD	00H
CONST	ENDS
;	COMDAT ??_7CPopupList@@6B@
CONST	SEGMENT
??_7CPopupList@@6B@ DD FLAT:??_R4CPopupList@@6B@	; CPopupList::`vftable'
	DD	FLAT:?GetRuntimeClass@CDialog@@UBEPAUCRuntimeClass@@XZ
	DD	FLAT:??_ECPopupList@@UAEPAXI@Z
	DD	FLAT:?Serialize@CObject@@UAEXAAVCArchive@@@Z
	DD	FLAT:?AssertValid@CObject@@UBEXXZ
	DD	FLAT:?Dump@CObject@@UBEXAAVCDumpContext@@@Z
	DD	FLAT:?OnCmdMsg@CDialog@@UAEHIHPAXPAUAFX_CMDHANDLERINFO@@@Z
	DD	FLAT:?OnFinalRelease@CWnd@@UAEXXZ
	DD	FLAT:?IsInvokeAllowed@CCmdTarget@@UAEHJ@Z
	DD	FLAT:?GetDispatchIID@CCmdTarget@@UAEHPAU_GUID@@@Z
	DD	FLAT:?GetTypeInfoCount@CCmdTarget@@UAEIXZ
	DD	FLAT:?GetTypeLibCache@CCmdTarget@@UAEPAVCTypeLibCache@@XZ
	DD	FLAT:?GetTypeLib@CCmdTarget@@UAEJKPAPAUITypeLib@@@Z
	DD	FLAT:?GetMessageMap@CPopupList@@MBEPBUAFX_MSGMAP@@XZ
	DD	FLAT:?GetCommandMap@CCmdTarget@@MBEPBUAFX_OLECMDMAP@@XZ
	DD	FLAT:?GetDispatchMap@CCmdTarget@@MBEPBUAFX_DISPMAP@@XZ
	DD	FLAT:?GetConnectionMap@CCmdTarget@@MBEPBUAFX_CONNECTIONMAP@@XZ
	DD	FLAT:?GetInterfaceMap@CWnd@@MBEPBUAFX_INTERFACEMAP@@XZ
	DD	FLAT:?GetEventSinkMap@CCmdTarget@@MBEPBUAFX_EVENTSINKMAP@@XZ
	DD	FLAT:?OnCreateAggregates@CCmdTarget@@UAEHXZ
	DD	FLAT:?GetInterfaceHook@CCmdTarget@@UAEPAUIUnknown@@PBX@Z
	DD	FLAT:?GetExtraConnectionPoints@CCmdTarget@@MAEHPAVCPtrArray@@@Z
	DD	FLAT:?GetConnectionHook@CCmdTarget@@MAEPAUIConnectionPoint@@ABU_GUID@@@Z
	DD	FLAT:?PreSubclassWindow@CWnd@@UAEXXZ
	DD	FLAT:?Create@CWnd@@UAEHPBD0KABUtagRECT@@PAV1@IPAUCCreateContext@@@Z
	DD	FLAT:?CreateEx@CWnd@@UAEHKPBD0KABUtagRECT@@PAV1@IPAX@Z
	DD	FLAT:?CreateEx@CWnd@@UAEHKPBD0KHHHHPAUHWND__@@PAUHMENU__@@PAX@Z
	DD	FLAT:?DestroyWindow@CWnd@@UAEHXZ
	DD	FLAT:?PreCreateWindow@CWnd@@UAEHAAUtagCREATESTRUCTA@@@Z
	DD	FLAT:?CalcWindowRect@CWnd@@UAEXPAUtagRECT@@I@Z
	DD	FLAT:?GetMenu@CWnd@@UBEPAVCMenu@@XZ
	DD	FLAT:?SetMenu@CWnd@@UAEHPAVCMenu@@@Z
	DD	FLAT:?OnToolHitTest@CWnd@@UBEHVCPoint@@PAUtagTOOLINFOA@@@Z
	DD	FLAT:?GetScrollBarCtrl@CWnd@@UBEPAVCScrollBar@@H@Z
	DD	FLAT:?WinHelpA@CWnd@@UAEXKI@Z
	DD	FLAT:?HtmlHelpA@CWnd@@UAEXKI@Z
	DD	FLAT:?WinHelpInternal@CWnd@@UAEXKI@Z
	DD	FLAT:?ContinueModal@CWnd@@UAEHXZ
	DD	FLAT:?EndModalLoop@CWnd@@UAEXH@Z
	DD	FLAT:?OnDrawIconicThumbnailOrLivePreview@CWnd@@UAEXAAVCDC@@VCRect@@VCSize@@HAAH@Z
	DD	FLAT:?EnsureStdObj@CWnd@@UAEJXZ
	DD	FLAT:?get_accParent@CWnd@@UAEJPAPAUIDispatch@@@Z
	DD	FLAT:?get_accChildCount@CWnd@@UAEJPAJ@Z
	DD	FLAT:?get_accChild@CWnd@@UAEJUtagVARIANT@@PAPAUIDispatch@@@Z
	DD	FLAT:?get_accName@CWnd@@UAEJUtagVARIANT@@PAPA_W@Z
	DD	FLAT:?get_accValue@CWnd@@UAEJUtagVARIANT@@PAPA_W@Z
	DD	FLAT:?get_accDescription@CWnd@@UAEJUtagVARIANT@@PAPA_W@Z
	DD	FLAT:?get_accRole@CWnd@@UAEJUtagVARIANT@@PAU2@@Z
	DD	FLAT:?get_accState@CWnd@@UAEJUtagVARIANT@@PAU2@@Z
	DD	FLAT:?get_accHelp@CWnd@@UAEJUtagVARIANT@@PAPA_W@Z
	DD	FLAT:?get_accHelpTopic@CWnd@@UAEJPAPA_WUtagVARIANT@@PAJ@Z
	DD	FLAT:?get_accKeyboardShortcut@CWnd@@UAEJUtagVARIANT@@PAPA_W@Z
	DD	FLAT:?get_accFocus@CWnd@@UAEJPAUtagVARIANT@@@Z
	DD	FLAT:?get_accSelection@CWnd@@UAEJPAUtagVARIANT@@@Z
	DD	FLAT:?get_accDefaultAction@CWnd@@UAEJUtagVARIANT@@PAPA_W@Z
	DD	FLAT:?accSelect@CWnd@@UAEJJUtagVARIANT@@@Z
	DD	FLAT:?accLocation@CWnd@@UAEJPAJ000UtagVARIANT@@@Z
	DD	FLAT:?accNavigate@CWnd@@UAEJJUtagVARIANT@@PAU2@@Z
	DD	FLAT:?accHitTest@CWnd@@UAEJJJPAUtagVARIANT@@@Z
	DD	FLAT:?accDoDefaultAction@CWnd@@UAEJUtagVARIANT@@@Z
	DD	FLAT:?put_accName@CWnd@@UAEJUtagVARIANT@@PA_W@Z
	DD	FLAT:?put_accValue@CWnd@@UAEJUtagVARIANT@@PA_W@Z
	DD	FLAT:?SetProxy@CWnd@@UAEJPAUIAccessibleProxy@@@Z
	DD	FLAT:?CreateAccessibleProxy@CWnd@@UAEJIJPAJ@Z
	DD	FLAT:?OnCommand@CWnd@@MAEHIJ@Z
	DD	FLAT:?OnNotify@CWnd@@MAEHIJPAJ@Z
	DD	FLAT:?GetSuperWndProcAddr@CWnd@@MAEPAP6GJPAUHWND__@@IIJ@ZXZ
	DD	FLAT:?DoDataExchange@CPopupList@@MAEXPAVCDataExchange@@@Z
	DD	FLAT:?BeginModalState@CWnd@@UAEXXZ
	DD	FLAT:?EndModalState@CWnd@@UAEXXZ
	DD	FLAT:?PreTranslateMessage@CDialog@@UAEHPAUtagMSG@@@Z
	DD	FLAT:?OnAmbientProperty@CWnd@@UAEHPAVCOleControlSite@@JPAUtagVARIANT@@@Z
	DD	FLAT:?WindowProc@CWnd@@MAEJIIJ@Z
	DD	FLAT:?OnWndMsg@CWnd@@MAEHIIJPAJ@Z
	DD	FLAT:?DefWindowProcA@CWnd@@MAEJIIJ@Z
	DD	FLAT:?PostNcDestroy@CWnd@@MAEXXZ
	DD	FLAT:?OnChildNotify@CWnd@@MAEHIIJPAJ@Z
	DD	FLAT:?OnTouchInputs@CWnd@@MAEHIPAUtagTOUCHINPUT@@@Z
	DD	FLAT:?OnTouchInput@CWnd@@MAEHVCPoint@@HHPAUtagTOUCHINPUT@@@Z
	DD	FLAT:?GetGestureStatus@CWnd@@MAEKVCPoint@@@Z
	DD	FLAT:?OnGestureZoom@CWnd@@MAEHVCPoint@@J@Z
	DD	FLAT:?OnGesturePan@CWnd@@MAEHVCPoint@@0@Z
	DD	FLAT:?OnGestureRotate@CWnd@@MAEHVCPoint@@N@Z
	DD	FLAT:?OnGestureTwoFingerTap@CWnd@@MAEHVCPoint@@@Z
	DD	FLAT:?OnGesturePressAndTap@CWnd@@MAEHVCPoint@@J@Z
	DD	FLAT:?ResizeDynamicLayout@CWnd@@MAEXXZ
	DD	FLAT:?CheckAutoCenter@CDialog@@UAEHXZ
	DD	FLAT:?IsFrameWnd@CWnd@@UBEHXZ
	DD	FLAT:?CreateControlContainer@CWnd@@MAEHPAPAVCOleControlContainer@@@Z
	DD	FLAT:?CreateControlSite@CWnd@@MAEHPAVCOleControlContainer@@PAPAVCOleControlSite@@IABU_GUID@@@Z
	DD	FLAT:?SetOccDialogInfo@CDialog@@MAEHPAU_AFX_OCC_DIALOG_INFO@@@Z
	DD	FLAT:?GetOccDialogInfo@CDialog@@MAEPAU_AFX_OCC_DIALOG_INFO@@XZ
	DD	FLAT:?Create@CRscDlg@@UAEHIPAVCWnd@@@Z
	DD	FLAT:?Create@CDialog@@UAEHPBDPAVCWnd@@@Z
	DD	FLAT:?CreateIndirect@CDialog@@UAEHPAXPAVCWnd@@@Z
	DD	FLAT:?CreateIndirect@CDialog@@UAEHPBUDLGTEMPLATE@@PAVCWnd@@PAX@Z
	DD	FLAT:?DoModal@CRscDlg@@UAEHXZ
	DD	FLAT:?OnInitDialog@CPopupList@@MAEHXZ
	DD	FLAT:?OnSetFont@CDialog@@UAEXPAVCFont@@@Z
	DD	FLAT:?OnOK@CDialog@@MAEXXZ
	DD	FLAT:?OnCancel@CDialog@@MAEXXZ
	DD	FLAT:?PreInitDialog@CDialog@@MAEXXZ
CONST	ENDS
;	COMDAT ??_R1A@?0A@EA@CListCtrl@@8
rdata$r	SEGMENT
??_R1A@?0A@EA@CListCtrl@@8 DD FLAT:??_R0?AVCListCtrl@@@8 ; CListCtrl::`RTTI Base Class Descriptor at (0,-1,0,64)'
	DD	03H
	DD	00H
	DD	0ffffffffH
	DD	00H
	DD	040H
	DD	FLAT:??_R3CListCtrl@@8
rdata$r	ENDS
;	COMDAT ??_R2CListCtrl@@8
rdata$r	SEGMENT
??_R2CListCtrl@@8 DD FLAT:??_R1A@?0A@EA@CListCtrl@@8	; CListCtrl::`RTTI Base Class Array'
	DD	FLAT:??_R1A@?0A@EA@CWnd@@8
	DD	FLAT:??_R1A@?0A@EA@CCmdTarget@@8
	DD	FLAT:??_R1A@?0A@EA@CObject@@8
rdata$r	ENDS
;	COMDAT ??_R3CListCtrl@@8
rdata$r	SEGMENT
??_R3CListCtrl@@8 DD 00H				; CListCtrl::`RTTI Class Hierarchy Descriptor'
	DD	00H
	DD	04H
	DD	FLAT:??_R2CListCtrl@@8
rdata$r	ENDS
;	COMDAT ??_R0?AVCListCtrl@@@8
data$rs	SEGMENT
??_R0?AVCListCtrl@@@8 DD FLAT:??_7type_info@@6B@	; CListCtrl `RTTI Type Descriptor'
	DD	00H
	DB	'.?AVCListCtrl@@', 00H
data$rs	ENDS
;	COMDAT ??_R4CListCtrl@@6B@
rdata$r	SEGMENT
??_R4CListCtrl@@6B@ DD 00H				; CListCtrl::`RTTI Complete Object Locator'
	DD	00H
	DD	00H
	DD	FLAT:??_R0?AVCListCtrl@@@8
	DD	FLAT:??_R3CListCtrl@@8
rdata$r	ENDS
;	COMDAT ??_R2CDialog@@8
rdata$r	SEGMENT
??_R2CDialog@@8 DD FLAT:??_R1A@?0A@EA@CDialog@@8	; CDialog::`RTTI Base Class Array'
	DD	FLAT:??_R1A@?0A@EA@CWnd@@8
	DD	FLAT:??_R1A@?0A@EA@CCmdTarget@@8
	DD	FLAT:??_R1A@?0A@EA@CObject@@8
rdata$r	ENDS
;	COMDAT ??_R3CDialog@@8
rdata$r	SEGMENT
??_R3CDialog@@8 DD 00H					; CDialog::`RTTI Class Hierarchy Descriptor'
	DD	00H
	DD	04H
	DD	FLAT:??_R2CDialog@@8
rdata$r	ENDS
;	COMDAT ??_R0?AVCDialog@@@8
data$rs	SEGMENT
??_R0?AVCDialog@@@8 DD FLAT:??_7type_info@@6B@		; CDialog `RTTI Type Descriptor'
	DD	00H
	DB	'.?AVCDialog@@', 00H
data$rs	ENDS
;	COMDAT ??_R1A@?0A@EA@CDialog@@8
rdata$r	SEGMENT
??_R1A@?0A@EA@CDialog@@8 DD FLAT:??_R0?AVCDialog@@@8	; CDialog::`RTTI Base Class Descriptor at (0,-1,0,64)'
	DD	03H
	DD	00H
	DD	0ffffffffH
	DD	00H
	DD	040H
	DD	FLAT:??_R3CDialog@@8
rdata$r	ENDS
;	COMDAT ??_R2CCmdTarget@@8
rdata$r	SEGMENT
??_R2CCmdTarget@@8 DD FLAT:??_R1A@?0A@EA@CCmdTarget@@8	; CCmdTarget::`RTTI Base Class Array'
	DD	FLAT:??_R1A@?0A@EA@CObject@@8
rdata$r	ENDS
;	COMDAT ??_R3CCmdTarget@@8
rdata$r	SEGMENT
??_R3CCmdTarget@@8 DD 00H				; CCmdTarget::`RTTI Class Hierarchy Descriptor'
	DD	00H
	DD	02H
	DD	FLAT:??_R2CCmdTarget@@8
rdata$r	ENDS
;	COMDAT ??_R0?AVCCmdTarget@@@8
data$rs	SEGMENT
??_R0?AVCCmdTarget@@@8 DD FLAT:??_7type_info@@6B@	; CCmdTarget `RTTI Type Descriptor'
	DD	00H
	DB	'.?AVCCmdTarget@@', 00H
data$rs	ENDS
;	COMDAT ??_R1A@?0A@EA@CCmdTarget@@8
rdata$r	SEGMENT
??_R1A@?0A@EA@CCmdTarget@@8 DD FLAT:??_R0?AVCCmdTarget@@@8 ; CCmdTarget::`RTTI Base Class Descriptor at (0,-1,0,64)'
	DD	01H
	DD	00H
	DD	0ffffffffH
	DD	00H
	DD	040H
	DD	FLAT:??_R3CCmdTarget@@8
rdata$r	ENDS
;	COMDAT ??_R2CWnd@@8
rdata$r	SEGMENT
??_R2CWnd@@8 DD	FLAT:??_R1A@?0A@EA@CWnd@@8		; CWnd::`RTTI Base Class Array'
	DD	FLAT:??_R1A@?0A@EA@CCmdTarget@@8
	DD	FLAT:??_R1A@?0A@EA@CObject@@8
rdata$r	ENDS
;	COMDAT ??_R3CWnd@@8
rdata$r	SEGMENT
??_R3CWnd@@8 DD	00H					; CWnd::`RTTI Class Hierarchy Descriptor'
	DD	00H
	DD	03H
	DD	FLAT:??_R2CWnd@@8
rdata$r	ENDS
;	COMDAT ??_R0?AVCWnd@@@8
data$rs	SEGMENT
??_R0?AVCWnd@@@8 DD FLAT:??_7type_info@@6B@		; CWnd `RTTI Type Descriptor'
	DD	00H
	DB	'.?AVCWnd@@', 00H
data$rs	ENDS
;	COMDAT ??_R1A@?0A@EA@CWnd@@8
rdata$r	SEGMENT
??_R1A@?0A@EA@CWnd@@8 DD FLAT:??_R0?AVCWnd@@@8		; CWnd::`RTTI Base Class Descriptor at (0,-1,0,64)'
	DD	02H
	DD	00H
	DD	0ffffffffH
	DD	00H
	DD	040H
	DD	FLAT:??_R3CWnd@@8
rdata$r	ENDS
;	COMDAT ??_R1A@?0A@EA@CRgn@@8
rdata$r	SEGMENT
??_R1A@?0A@EA@CRgn@@8 DD FLAT:??_R0?AVCRgn@@@8		; CRgn::`RTTI Base Class Descriptor at (0,-1,0,64)'
	DD	02H
	DD	00H
	DD	0ffffffffH
	DD	00H
	DD	040H
	DD	FLAT:??_R3CRgn@@8
rdata$r	ENDS
;	COMDAT ??_R2CRgn@@8
rdata$r	SEGMENT
??_R2CRgn@@8 DD	FLAT:??_R1A@?0A@EA@CRgn@@8		; CRgn::`RTTI Base Class Array'
	DD	FLAT:??_R1A@?0A@EA@CGdiObject@@8
	DD	FLAT:??_R1A@?0A@EA@CObject@@8
rdata$r	ENDS
;	COMDAT ??_R3CRgn@@8
rdata$r	SEGMENT
??_R3CRgn@@8 DD	00H					; CRgn::`RTTI Class Hierarchy Descriptor'
	DD	00H
	DD	03H
	DD	FLAT:??_R2CRgn@@8
rdata$r	ENDS
;	COMDAT ??_R0?AVCRgn@@@8
data$rs	SEGMENT
??_R0?AVCRgn@@@8 DD FLAT:??_7type_info@@6B@		; CRgn `RTTI Type Descriptor'
	DD	00H
	DB	'.?AVCRgn@@', 00H
data$rs	ENDS
;	COMDAT ??_R4CRgn@@6B@
rdata$r	SEGMENT
??_R4CRgn@@6B@ DD 00H					; CRgn::`RTTI Complete Object Locator'
	DD	00H
	DD	00H
	DD	FLAT:??_R0?AVCRgn@@@8
	DD	FLAT:??_R3CRgn@@8
rdata$r	ENDS
;	COMDAT ??_R1A@?0A@EA@CGdiObject@@8
rdata$r	SEGMENT
??_R1A@?0A@EA@CGdiObject@@8 DD FLAT:??_R0?AVCGdiObject@@@8 ; CGdiObject::`RTTI Base Class Descriptor at (0,-1,0,64)'
	DD	01H
	DD	00H
	DD	0ffffffffH
	DD	00H
	DD	040H
	DD	FLAT:??_R3CGdiObject@@8
rdata$r	ENDS
;	COMDAT ??_R2CGdiObject@@8
rdata$r	SEGMENT
??_R2CGdiObject@@8 DD FLAT:??_R1A@?0A@EA@CGdiObject@@8	; CGdiObject::`RTTI Base Class Array'
	DD	FLAT:??_R1A@?0A@EA@CObject@@8
rdata$r	ENDS
;	COMDAT ??_R3CGdiObject@@8
rdata$r	SEGMENT
??_R3CGdiObject@@8 DD 00H				; CGdiObject::`RTTI Class Hierarchy Descriptor'
	DD	00H
	DD	02H
	DD	FLAT:??_R2CGdiObject@@8
rdata$r	ENDS
;	COMDAT ??_R0?AVCGdiObject@@@8
data$rs	SEGMENT
??_R0?AVCGdiObject@@@8 DD FLAT:??_7type_info@@6B@	; CGdiObject `RTTI Type Descriptor'
	DD	00H
	DB	'.?AVCGdiObject@@', 00H
data$rs	ENDS
;	COMDAT ??_R4CGdiObject@@6B@
rdata$r	SEGMENT
??_R4CGdiObject@@6B@ DD 00H				; CGdiObject::`RTTI Complete Object Locator'
	DD	00H
	DD	00H
	DD	FLAT:??_R0?AVCGdiObject@@@8
	DD	FLAT:??_R3CGdiObject@@8
rdata$r	ENDS
;	COMDAT ??_R1A@?0A@EA@CObject@@8
rdata$r	SEGMENT
??_R1A@?0A@EA@CObject@@8 DD FLAT:??_R0?AVCObject@@@8	; CObject::`RTTI Base Class Descriptor at (0,-1,0,64)'
	DD	00H
	DD	00H
	DD	0ffffffffH
	DD	00H
	DD	040H
	DD	FLAT:??_R3CObject@@8
rdata$r	ENDS
;	COMDAT ??_R2CObject@@8
rdata$r	SEGMENT
??_R2CObject@@8 DD FLAT:??_R1A@?0A@EA@CObject@@8	; CObject::`RTTI Base Class Array'
rdata$r	ENDS
;	COMDAT ??_R3CObject@@8
rdata$r	SEGMENT
??_R3CObject@@8 DD 00H					; CObject::`RTTI Class Hierarchy Descriptor'
	DD	00H
	DD	01H
	DD	FLAT:??_R2CObject@@8
rdata$r	ENDS
;	COMDAT ??_R0?AVCObject@@@8
data$rs	SEGMENT
??_R0?AVCObject@@@8 DD FLAT:??_7type_info@@6B@		; CObject `RTTI Type Descriptor'
	DD	00H
	DB	'.?AVCObject@@', 00H
data$rs	ENDS
;	COMDAT ??_7CListCtrl@@6B@
CONST	SEGMENT
??_7CListCtrl@@6B@ DD FLAT:??_R4CListCtrl@@6B@		; CListCtrl::`vftable'
	DD	FLAT:?GetRuntimeClass@CListCtrl@@UBEPAUCRuntimeClass@@XZ
	DD	FLAT:??_ECListCtrl@@UAEPAXI@Z
	DD	FLAT:?Serialize@CObject@@UAEXAAVCArchive@@@Z
	DD	FLAT:?AssertValid@CObject@@UBEXXZ
	DD	FLAT:?Dump@CObject@@UBEXAAVCDumpContext@@@Z
	DD	FLAT:?OnCmdMsg@CCmdTarget@@UAEHIHPAXPAUAFX_CMDHANDLERINFO@@@Z
	DD	FLAT:?OnFinalRelease@CWnd@@UAEXXZ
	DD	FLAT:?IsInvokeAllowed@CCmdTarget@@UAEHJ@Z
	DD	FLAT:?GetDispatchIID@CCmdTarget@@UAEHPAU_GUID@@@Z
	DD	FLAT:?GetTypeInfoCount@CCmdTarget@@UAEIXZ
	DD	FLAT:?GetTypeLibCache@CCmdTarget@@UAEPAVCTypeLibCache@@XZ
	DD	FLAT:?GetTypeLib@CCmdTarget@@UAEJKPAPAUITypeLib@@@Z
	DD	FLAT:?GetMessageMap@CListCtrl@@MBEPBUAFX_MSGMAP@@XZ
	DD	FLAT:?GetCommandMap@CCmdTarget@@MBEPBUAFX_OLECMDMAP@@XZ
	DD	FLAT:?GetDispatchMap@CCmdTarget@@MBEPBUAFX_DISPMAP@@XZ
	DD	FLAT:?GetConnectionMap@CCmdTarget@@MBEPBUAFX_CONNECTIONMAP@@XZ
	DD	FLAT:?GetInterfaceMap@CWnd@@MBEPBUAFX_INTERFACEMAP@@XZ
	DD	FLAT:?GetEventSinkMap@CCmdTarget@@MBEPBUAFX_EVENTSINKMAP@@XZ
	DD	FLAT:?OnCreateAggregates@CCmdTarget@@UAEHXZ
	DD	FLAT:?GetInterfaceHook@CCmdTarget@@UAEPAUIUnknown@@PBX@Z
	DD	FLAT:?GetExtraConnectionPoints@CCmdTarget@@MAEHPAVCPtrArray@@@Z
	DD	FLAT:?GetConnectionHook@CCmdTarget@@MAEPAUIConnectionPoint@@ABU_GUID@@@Z
	DD	FLAT:?PreSubclassWindow@CWnd@@UAEXXZ
	DD	FLAT:?Create@CWnd@@UAEHPBD0KABUtagRECT@@PAV1@IPAUCCreateContext@@@Z
	DD	FLAT:?CreateEx@CWnd@@UAEHKPBD0KABUtagRECT@@PAV1@IPAX@Z
	DD	FLAT:?CreateEx@CWnd@@UAEHKPBD0KHHHHPAUHWND__@@PAUHMENU__@@PAX@Z
	DD	FLAT:?DestroyWindow@CWnd@@UAEHXZ
	DD	FLAT:?PreCreateWindow@CWnd@@UAEHAAUtagCREATESTRUCTA@@@Z
	DD	FLAT:?CalcWindowRect@CWnd@@UAEXPAUtagRECT@@I@Z
	DD	FLAT:?GetMenu@CWnd@@UBEPAVCMenu@@XZ
	DD	FLAT:?SetMenu@CWnd@@UAEHPAVCMenu@@@Z
	DD	FLAT:?OnToolHitTest@CWnd@@UBEHVCPoint@@PAUtagTOOLINFOA@@@Z
	DD	FLAT:?GetScrollBarCtrl@CWnd@@UBEPAVCScrollBar@@H@Z
	DD	FLAT:?WinHelpA@CWnd@@UAEXKI@Z
	DD	FLAT:?HtmlHelpA@CWnd@@UAEXKI@Z
	DD	FLAT:?WinHelpInternal@CWnd@@UAEXKI@Z
	DD	FLAT:?ContinueModal@CWnd@@UAEHXZ
	DD	FLAT:?EndModalLoop@CWnd@@UAEXH@Z
	DD	FLAT:?OnDrawIconicThumbnailOrLivePreview@CWnd@@UAEXAAVCDC@@VCRect@@VCSize@@HAAH@Z
	DD	FLAT:?EnsureStdObj@CWnd@@UAEJXZ
	DD	FLAT:?get_accParent@CWnd@@UAEJPAPAUIDispatch@@@Z
	DD	FLAT:?get_accChildCount@CWnd@@UAEJPAJ@Z
	DD	FLAT:?get_accChild@CWnd@@UAEJUtagVARIANT@@PAPAUIDispatch@@@Z
	DD	FLAT:?get_accName@CWnd@@UAEJUtagVARIANT@@PAPA_W@Z
	DD	FLAT:?get_accValue@CWnd@@UAEJUtagVARIANT@@PAPA_W@Z
	DD	FLAT:?get_accDescription@CWnd@@UAEJUtagVARIANT@@PAPA_W@Z
	DD	FLAT:?get_accRole@CWnd@@UAEJUtagVARIANT@@PAU2@@Z
	DD	FLAT:?get_accState@CWnd@@UAEJUtagVARIANT@@PAU2@@Z
	DD	FLAT:?get_accHelp@CWnd@@UAEJUtagVARIANT@@PAPA_W@Z
	DD	FLAT:?get_accHelpTopic@CWnd@@UAEJPAPA_WUtagVARIANT@@PAJ@Z
	DD	FLAT:?get_accKeyboardShortcut@CWnd@@UAEJUtagVARIANT@@PAPA_W@Z
	DD	FLAT:?get_accFocus@CWnd@@UAEJPAUtagVARIANT@@@Z
	DD	FLAT:?get_accSelection@CWnd@@UAEJPAUtagVARIANT@@@Z
	DD	FLAT:?get_accDefaultAction@CWnd@@UAEJUtagVARIANT@@PAPA_W@Z
	DD	FLAT:?accSelect@CWnd@@UAEJJUtagVARIANT@@@Z
	DD	FLAT:?accLocation@CWnd@@UAEJPAJ000UtagVARIANT@@@Z
	DD	FLAT:?accNavigate@CWnd@@UAEJJUtagVARIANT@@PAU2@@Z
	DD	FLAT:?accHitTest@CWnd@@UAEJJJPAUtagVARIANT@@@Z
	DD	FLAT:?accDoDefaultAction@CWnd@@UAEJUtagVARIANT@@@Z
	DD	FLAT:?put_accName@CWnd@@UAEJUtagVARIANT@@PA_W@Z
	DD	FLAT:?put_accValue@CWnd@@UAEJUtagVARIANT@@PA_W@Z
	DD	FLAT:?SetProxy@CWnd@@UAEJPAUIAccessibleProxy@@@Z
	DD	FLAT:?CreateAccessibleProxy@CWnd@@UAEJIJPAJ@Z
	DD	FLAT:?OnCommand@CWnd@@MAEHIJ@Z
	DD	FLAT:?OnNotify@CWnd@@MAEHIJPAJ@Z
	DD	FLAT:?GetSuperWndProcAddr@CWnd@@MAEPAP6GJPAUHWND__@@IIJ@ZXZ
	DD	FLAT:?DoDataExchange@CWnd@@MAEXPAVCDataExchange@@@Z
	DD	FLAT:?BeginModalState@CWnd@@UAEXXZ
	DD	FLAT:?EndModalState@CWnd@@UAEXXZ
	DD	FLAT:?PreTranslateMessage@CWnd@@UAEHPAUtagMSG@@@Z
	DD	FLAT:?OnAmbientProperty@CWnd@@UAEHPAVCOleControlSite@@JPAUtagVARIANT@@@Z
	DD	FLAT:?WindowProc@CWnd@@MAEJIIJ@Z
	DD	FLAT:?OnWndMsg@CWnd@@MAEHIIJPAJ@Z
	DD	FLAT:?DefWindowProcA@CWnd@@MAEJIIJ@Z
	DD	FLAT:?PostNcDestroy@CWnd@@MAEXXZ
	DD	FLAT:?OnChildNotify@CListCtrl@@MAEHIIJPAJ@Z
	DD	FLAT:?OnTouchInputs@CWnd@@MAEHIPAUtagTOUCHINPUT@@@Z
	DD	FLAT:?OnTouchInput@CWnd@@MAEHVCPoint@@HHPAUtagTOUCHINPUT@@@Z
	DD	FLAT:?GetGestureStatus@CWnd@@MAEKVCPoint@@@Z
	DD	FLAT:?OnGestureZoom@CWnd@@MAEHVCPoint@@J@Z
	DD	FLAT:?OnGesturePan@CWnd@@MAEHVCPoint@@0@Z
	DD	FLAT:?OnGestureRotate@CWnd@@MAEHVCPoint@@N@Z
	DD	FLAT:?OnGestureTwoFingerTap@CWnd@@MAEHVCPoint@@@Z
	DD	FLAT:?OnGesturePressAndTap@CWnd@@MAEHVCPoint@@J@Z
	DD	FLAT:?ResizeDynamicLayout@CWnd@@MAEXXZ
	DD	FLAT:?CheckAutoCenter@CWnd@@UAEHXZ
	DD	FLAT:?IsFrameWnd@CWnd@@UBEHXZ
	DD	FLAT:?CreateControlContainer@CWnd@@MAEHPAPAVCOleControlContainer@@@Z
	DD	FLAT:?CreateControlSite@CWnd@@MAEHPAVCOleControlContainer@@PAPAVCOleControlSite@@IABU_GUID@@@Z
	DD	FLAT:?SetOccDialogInfo@CWnd@@MAEHPAU_AFX_OCC_DIALOG_INFO@@@Z
	DD	FLAT:?GetOccDialogInfo@CWnd@@MAEPAU_AFX_OCC_DIALOG_INFO@@XZ
	DD	FLAT:?DrawItem@CListCtrl@@UAEXPAUtagDRAWITEMSTRUCT@@@Z
CONST	ENDS
;	COMDAT ??_C@_0N@OMEMOKLE@?$CFTs?5?$CI?$CFTs?3?$CFd?$CJ@
CONST	SEGMENT
??_C@_0N@OMEMOKLE@?$CFTs?5?$CI?$CFTs?3?$CFd?$CJ@ DB '%Ts (%Ts:%d)', 00H ; `string'
CONST	ENDS
;	COMDAT ??_C@_0BB@HBOOMJBF@?$CFTs?5?$CI?$CFTs?3?$CFd?$CJ?6?$CFTs@
CONST	SEGMENT
??_C@_0BB@HBOOMJBF@?$CFTs?5?$CI?$CFTs?3?$CFd?$CJ?6?$CFTs@ DB '%Ts (%Ts:%d'
	DB	')', 0aH, '%Ts', 00H				; `string'
CONST	ENDS
;	COMDAT ??_C@_0BP@OIEOKIDM@Exception?5thrown?5in?5destructor@
CONST	SEGMENT
??_C@_0BP@OIEOKIDM@Exception?5thrown?5in?5destructor@ DB 'Exception throw'
	DB	'n in destructor', 00H			; `string'
CONST	ENDS
;	COMDAT ??_C@_0HD@JJCHHHNK@C?3?2Program?5Files?5?$CIx86?$CJ?2Microsof@
CONST	SEGMENT
??_C@_0HD@JJCHHHNK@C?3?2Program?5Files?5?$CIx86?$CJ?2Microsof@ DB 'C:\Pro'
	DB	'gram Files (x86)\Microsoft Visual Studio\2019\Community\VC\To'
	DB	'ols\MSVC\14.29.30133\atlmfc\include\afxwin1.inl', 00H ; `string'
CONST	ENDS
;	COMDAT ??_7CRgn@@6B@
CONST	SEGMENT
??_7CRgn@@6B@ DD FLAT:??_R4CRgn@@6B@			; CRgn::`vftable'
	DD	FLAT:?GetRuntimeClass@CRgn@@UBEPAUCRuntimeClass@@XZ
	DD	FLAT:??_ECRgn@@UAEPAXI@Z
	DD	FLAT:?Serialize@CObject@@UAEXAAVCArchive@@@Z
	DD	FLAT:?AssertValid@CObject@@UBEXXZ
	DD	FLAT:?Dump@CObject@@UBEXAAVCDumpContext@@@Z
CONST	ENDS
;	COMDAT ??_7CGdiObject@@6B@
CONST	SEGMENT
??_7CGdiObject@@6B@ DD FLAT:??_R4CGdiObject@@6B@	; CGdiObject::`vftable'
	DD	FLAT:?GetRuntimeClass@CGdiObject@@UBEPAUCRuntimeClass@@XZ
	DD	FLAT:??_ECGdiObject@@UAEPAXI@Z
	DD	FLAT:?Serialize@CObject@@UAEXAAVCArchive@@@Z
	DD	FLAT:?AssertValid@CObject@@UBEXXZ
	DD	FLAT:?Dump@CObject@@UBEXAAVCDumpContext@@@Z
CONST	ENDS
;	COMDAT ??_C@_00CNPNBAHC@@
CONST	SEGMENT
??_C@_00CNPNBAHC@@ DB 00H				; `string'
CONST	ENDS
;	COMDAT ??_R0PAVCException@@@8
data$r	SEGMENT
??_R0PAVCException@@@8 DD FLAT:??_7type_info@@6B@	; CException * `RTTI Type Descriptor'
	DD	00H
	DB	'.PAVCException@@', 00H
data$r	ENDS
;	COMDAT xdata$x
xdata$x	SEGMENT
__unwindtable$?OnShowWindow@CPopupList@@IAEXHI@Z DD 0ffffffffH
	DD	FLAT:__unwindfunclet$?OnShowWindow@CPopupList@@IAEXHI@Z$0
	DD	00H
	DD	FLAT:__unwindfunclet$?OnShowWindow@CPopupList@@IAEXHI@Z$1
	DD	01H
	DD	FLAT:__unwindfunclet$?OnShowWindow@CPopupList@@IAEXHI@Z$2
__ehfuncinfo$?OnShowWindow@CPopupList@@IAEXHI@Z DD 019930522H
	DD	03H
	DD	FLAT:__unwindtable$?OnShowWindow@CPopupList@@IAEXHI@Z
	DD	2 DUP(00H)
	DD	2 DUP(00H)
	DD	00H
	DD	01H
xdata$x	ENDS
;	COMDAT xdata$x
xdata$x	SEGMENT
__unwindtable$?AdjustListCtrl@CPopupList@@QAEXXZ DD 0ffffffffH
	DD	FLAT:__unwindfunclet$?AdjustListCtrl@CPopupList@@QAEXXZ$0
__ehfuncinfo$?AdjustListCtrl@CPopupList@@QAEXXZ DD 019930522H
	DD	01H
	DD	FLAT:__unwindtable$?AdjustListCtrl@CPopupList@@QAEXXZ
	DD	2 DUP(00H)
	DD	2 DUP(00H)
	DD	00H
	DD	01H
xdata$x	ENDS
;	COMDAT xdata$x
xdata$x	SEGMENT
__unwindtable$?MakeInitHistoryIntoListCtrl@CPopupList@@QAEXXZ DD 0ffffffffH
	DD	FLAT:__unwindfunclet$?MakeInitHistoryIntoListCtrl@CPopupList@@QAEXXZ$0
	DD	00H
	DD	FLAT:__unwindfunclet$?MakeInitHistoryIntoListCtrl@CPopupList@@QAEXXZ$1
	DD	01H
	DD	FLAT:__unwindfunclet$?MakeInitHistoryIntoListCtrl@CPopupList@@QAEXXZ$2
__ehfuncinfo$?MakeInitHistoryIntoListCtrl@CPopupList@@QAEXXZ DD 019930522H
	DD	03H
	DD	FLAT:__unwindtable$?MakeInitHistoryIntoListCtrl@CPopupList@@QAEXXZ
	DD	2 DUP(00H)
	DD	2 DUP(00H)
	DD	00H
	DD	01H
xdata$x	ENDS
;	COMDAT xdata$x
xdata$x	SEGMENT
__unwindtable$??0CPopupList@@QAE@PAV?$CList@PAVCHistory@@PAV1@@@HPAVCWnd@@@Z DD 0ffffffffH
	DD	FLAT:__unwindfunclet$??0CPopupList@@QAE@PAV?$CList@PAVCHistory@@PAV1@@@HPAVCWnd@@@Z$0
__ehfuncinfo$??0CPopupList@@QAE@PAV?$CList@PAVCHistory@@PAV1@@@HPAVCWnd@@@Z DD 019930522H
	DD	01H
	DD	FLAT:__unwindtable$??0CPopupList@@QAE@PAV?$CList@PAVCHistory@@PAV1@@@HPAVCWnd@@@Z
	DD	2 DUP(00H)
	DD	2 DUP(00H)
	DD	00H
	DD	01H
xdata$x	ENDS
;	COMDAT xdata$x
xdata$x	SEGMENT
__catchsym$??1CGdiObject@@UAE@XZ$3 DD 00H
	DD	FLAT:??_R0PAVCException@@@8
	DD	0fffffde4H
	DD	FLAT:__catch$??1CGdiObject@@UAE@XZ$0
__tryblocktable$??1CGdiObject@@UAE@XZ DD 00H
	DD	00H
	DD	02H
	DD	01H
	DD	FLAT:__catchsym$??1CGdiObject@@UAE@XZ$3
__unwindtable$??1CGdiObject@@UAE@XZ DD 0ffffffffH
	DD	00H
	DD	0ffffffffH
	DD	00H
	DD	01H
	DD	FLAT:__unwindfunclet$??1CGdiObject@@UAE@XZ$2
__ehfuncinfo$??1CGdiObject@@UAE@XZ DD 019930522H
	DD	03H
	DD	FLAT:__unwindtable$??1CGdiObject@@UAE@XZ
	DD	01H
	DD	FLAT:__tryblocktable$??1CGdiObject@@UAE@XZ
	DD	2 DUP(00H)
	DD	00H
	DD	05H
xdata$x	ENDS
; Function compile flags: /Ogtp
; File C:\Program Files (x86)\Microsoft Visual Studio\2019\Community\VC\Tools\MSVC\14.29.30133\atlmfc\include\afx.inl
;	COMDAT ??_GCPopupList@@UAEPAXI@Z
_TEXT	SEGMENT
___flags$ = 8						; size = 4
??_GCPopupList@@UAEPAXI@Z PROC				; CPopupList::`scalar deleting destructor', COMDAT
; _this$ = ecx
  00000	55		 push	 ebp
  00001	8b ec		 mov	 ebp, esp
  00003	56		 push	 esi
  00004	8b f1		 mov	 esi, ecx
  00006	8d 8e d8 00 00
	00		 lea	 ecx, DWORD PTR [esi+216]
  0000c	e8 00 00 00 00	 call	 ??1CListCtrl@@UAE@XZ	; CListCtrl::~CListCtrl
  00011	8b ce		 mov	 ecx, esi
  00013	e8 00 00 00 00	 call	 ??1CDialog@@UAE@XZ	; CDialog::~CDialog
  00018	8b 45 08	 mov	 eax, DWORD PTR ___flags$[ebp]
  0001b	a8 01		 test	 al, 1
  0001d	74 22		 je	 SHORT $LN15@scalar
  0001f	a8 04		 test	 al, 4
  00021	75 10		 jne	 SHORT $LN3@scalar

; 112  : 	{ ::operator delete(p); }

  00023	56		 push	 esi
  00024	e8 00 00 00 00	 call	 ??3@YAXPAX@Z		; operator delete
  00029	83 c4 04	 add	 esp, 4
  0002c	8b c6		 mov	 eax, esi
  0002e	5e		 pop	 esi
  0002f	5d		 pop	 ebp
  00030	c2 04 00	 ret	 4
$LN3@scalar:
  00033	68 58 01 00 00	 push	 344			; 00000158H
  00038	56		 push	 esi
  00039	e8 00 00 00 00	 call	 ?__global_delete@@YAXPAXI@Z ; __global_delete
  0003e	83 c4 08	 add	 esp, 8
$LN15@scalar:
  00041	8b c6		 mov	 eax, esi
  00043	5e		 pop	 esi
  00044	5d		 pop	 ebp
  00045	c2 04 00	 ret	 4
??_GCPopupList@@UAEPAXI@Z ENDP				; CPopupList::`scalar deleting destructor'
_TEXT	ENDS
; Function compile flags: /Ogtp
; File D:\git\src\IBK\IBK_DRFN\ProjSrc\SrcDrfn\Chart\MULTICHART\PopupList.cpp
;	COMDAT ?GetMessageMap@CPopupList@@MBEPBUAFX_MSGMAP@@XZ
_TEXT	SEGMENT
?GetMessageMap@CPopupList@@MBEPBUAFX_MSGMAP@@XZ PROC	; CPopupList::GetMessageMap, COMDAT
; _this$ = ecx

; 36   : BEGIN_MESSAGE_MAP(CPopupList, CRscDlg)

  00000	b8 00 00 00 00	 mov	 eax, OFFSET ?messageMap@?1??GetThisMessageMap@CPopupList@@KGPBUAFX_MSGMAP@@XZ@4U3@B
  00005	c3		 ret	 0
?GetMessageMap@CPopupList@@MBEPBUAFX_MSGMAP@@XZ ENDP	; CPopupList::GetMessageMap
_TEXT	ENDS
; Function compile flags: /Ogtp
; File D:\git\src\IBK\IBK_DRFN\ProjSrc\SrcDrfn\Chart\MULTICHART\PopupList.cpp
;	COMDAT ?GetThisMessageMap@CPopupList@@KGPBUAFX_MSGMAP@@XZ
_TEXT	SEGMENT
?GetThisMessageMap@CPopupList@@KGPBUAFX_MSGMAP@@XZ PROC	; CPopupList::GetThisMessageMap, COMDAT

; 37   : 	//{{AFX_MSG_MAP(CPopupList)
; 38   : 	ON_NOTIFY(NM_KILLFOCUS, IDC_LIST, OnKillfocusList)
; 39   : 	ON_NOTIFY(NM_CLICK, IDC_LIST, OnClickList)
; 40   : 	ON_WM_SHOWWINDOW()
; 41   : 	//}}AFX_MSG_MAP
; 42   : END_MESSAGE_MAP()

  00000	b8 00 00 00 00	 mov	 eax, OFFSET ?messageMap@?1??GetThisMessageMap@CPopupList@@KGPBUAFX_MSGMAP@@XZ@4U3@B
  00005	c3		 ret	 0
?GetThisMessageMap@CPopupList@@KGPBUAFX_MSGMAP@@XZ ENDP	; CPopupList::GetThisMessageMap
_TEXT	ENDS
; Function compile flags: /Ogtp
; File D:\git\src\IBK\IBK_DRFN\ProjSrc\SrcDrfn\Chart\MULTICHART\PopupList.cpp
; File C:\Program Files (x86)\Microsoft Visual Studio\2019\Community\VC\Tools\MSVC\14.29.30133\atlmfc\include\afxwin2.inl
; File D:\git\src\IBK\IBK_DRFN\ProjSrc\SrcDrfn\Chart\MULTICHART\PopupList.cpp
; File C:\Program Files (x86)\Microsoft Visual Studio\2019\Community\VC\Tools\MSVC\14.29.30133\atlmfc\include\afxcmn.inl
; File D:\git\src\IBK\IBK_DRFN\ProjSrc\SrcDrfn\Chart\MULTICHART\PopupList.cpp
; File C:\Program Files (x86)\Microsoft Visual Studio\2019\Community\VC\Tools\MSVC\14.29.30133\atlmfc\include\afxcmn.inl
; File D:\git\src\IBK\IBK_DRFN\ProjSrc\SrcDrfn\Chart\MULTICHART\PopupList.cpp
; File C:\Program Files (x86)\Microsoft Visual Studio\2019\Community\VC\Tools\MSVC\14.29.30133\atlmfc\include\afxtempl.h
; File D:\git\src\IBK\IBK_DRFN\ProjSrc\SrcDrfn\Chart\MULTICHART\PopupList.cpp
; File C:\Program Files (x86)\Microsoft Visual Studio\2019\Community\VC\Tools\MSVC\14.29.30133\atlmfc\include\afxcmn.inl
; File D:\git\src\IBK\IBK_DRFN\ProjSrc\SrcDrfn\Chart\MULTICHART\PopupList.cpp
; File C:\Program Files (x86)\Microsoft Visual Studio\2019\Community\VC\Tools\MSVC\14.29.30133\atlmfc\include\afxcmn.inl
; File D:\git\src\IBK\IBK_DRFN\ProjSrc\SrcDrfn\Chart\MULTICHART\PopupList.cpp
;	COMDAT ?OnShowWindow@CPopupList@@IAEXHI@Z
_TEXT	SEGMENT
_lvitem$2 = -84						; size = 60
_szKey$3 = -24						; size = 4
_rValue$4 = -20						; size = 4
_szValue$5 = -16					; size = 4
__$EHRec$ = -12						; size = 12
_pHistory$1$ = 8					; size = 4
_bShow$ = 8						; size = 4
_nStatus$ = 12						; size = 4
?OnShowWindow@CPopupList@@IAEXHI@Z PROC			; CPopupList::OnShowWindow, COMDAT
; _this$ = ecx

; 87   : {

  00000	55		 push	 ebp
  00001	8b ec		 mov	 ebp, esp
  00003	6a ff		 push	 -1
  00005	68 00 00 00 00	 push	 __ehhandler$?OnShowWindow@CPopupList@@IAEXHI@Z
  0000a	64 a1 00 00 00
	00		 mov	 eax, DWORD PTR fs:0
  00010	50		 push	 eax
  00011	83 ec 48	 sub	 esp, 72			; 00000048H
  00014	53		 push	 ebx
  00015	56		 push	 esi
  00016	57		 push	 edi
  00017	a1 00 00 00 00	 mov	 eax, DWORD PTR ___security_cookie
  0001c	33 c5		 xor	 eax, ebp
  0001e	50		 push	 eax
  0001f	8d 45 f4	 lea	 eax, DWORD PTR __$EHRec$[ebp]
  00022	64 a3 00 00 00
	00		 mov	 DWORD PTR fs:0, eax
  00028	8b f1		 mov	 esi, ecx
; File C:\Program Files (x86)\Microsoft Visual Studio\2019\Community\VC\Tools\MSVC\14.29.30133\atlmfc\include\afxwin2.inl

; 328  : 	{ Default(); }

  0002a	e8 00 00 00 00	 call	 ?Default@CWnd@@IAEJXZ	; CWnd::Default
; File D:\git\src\IBK\IBK_DRFN\ProjSrc\SrcDrfn\Chart\MULTICHART\PopupList.cpp

; 90   : 	if(bShow)

  0002f	83 7d 08 00	 cmp	 DWORD PTR _bShow$[ebp], 0
  00033	0f 84 2c 01 00
	00		 je	 $LN2@OnShowWind

; 91   : 	{
; 92   : 		m_lstPopup.SetFocus();

  00039	8d 8e d8 00 00
	00		 lea	 ecx, DWORD PTR [esi+216]
  0003f	e8 00 00 00 00	 call	 ?SetFocus@CWnd@@QAEPAV1@XZ ; CWnd::SetFocus

; 167  : 	CString szKey, rValue, szValue;

  00044	8d 4d e8	 lea	 ecx, DWORD PTR _szKey$3[ebp]
  00047	ff 15 00 00 00
	00		 call	 DWORD PTR __imp_??0?$CStringT@DV?$StrTraitMFC_DLL@DV?$ChTraitsCRT@D@ATL@@@@@ATL@@QAE@XZ
  0004d	8d 4d ec	 lea	 ecx, DWORD PTR _rValue$4[ebp]
  00050	c7 45 fc 00 00
	00 00		 mov	 DWORD PTR __$EHRec$[ebp+8], 0
  00057	ff 15 00 00 00
	00		 call	 DWORD PTR __imp_??0?$CStringT@DV?$StrTraitMFC_DLL@DV?$ChTraitsCRT@D@ATL@@@@@ATL@@QAE@XZ
  0005d	8d 4d f0	 lea	 ecx, DWORD PTR _szValue$5[ebp]
  00060	ff 15 00 00 00
	00		 call	 DWORD PTR __imp_??0?$CStringT@DV?$StrTraitMFC_DLL@DV?$ChTraitsCRT@D@ATL@@@@@ATL@@QAE@XZ
; File C:\Program Files (x86)\Microsoft Visual Studio\2019\Community\VC\Tools\MSVC\14.29.30133\atlmfc\include\afxcmn.inl

; 171  : 	{ ASSERT(::IsWindow(m_hWnd)); return (BOOL) ::SendMessage(m_hWnd, LVM_DELETEALLITEMS, 0, 0L); }

  00066	6a 00		 push	 0
  00068	6a 00		 push	 0
  0006a	68 09 10 00 00	 push	 4105			; 00001009H
  0006f	ff b6 f8 00 00
	00		 push	 DWORD PTR [esi+248]
; File D:\git\src\IBK\IBK_DRFN\ProjSrc\SrcDrfn\Chart\MULTICHART\PopupList.cpp

; 167  : 	CString szKey, rValue, szValue;

  00075	c6 45 fc 02	 mov	 BYTE PTR __$EHRec$[ebp+8], 2

; 168  : 	LV_ITEM lvitem;	
; 169  : 	lvitem.mask = LVIF_TEXT;

  00079	c7 45 ac 01 00
	00 00		 mov	 DWORD PTR _lvitem$2[ebp], 1
; File C:\Program Files (x86)\Microsoft Visual Studio\2019\Community\VC\Tools\MSVC\14.29.30133\atlmfc\include\afxcmn.inl

; 171  : 	{ ASSERT(::IsWindow(m_hWnd)); return (BOOL) ::SendMessage(m_hWnd, LVM_DELETEALLITEMS, 0, 0L); }

  00080	ff 15 00 00 00
	00		 call	 DWORD PTR __imp__SendMessageA@16
; File D:\git\src\IBK\IBK_DRFN\ProjSrc\SrcDrfn\Chart\MULTICHART\PopupList.cpp

; 178  : 	for(POSITION pos=m_lstItemInfo->GetTailPosition(); pos; i++)

  00086	8b 86 d0 00 00
	00		 mov	 eax, DWORD PTR [esi+208]
  0008c	33 ff		 xor	 edi, edi
  0008e	8b 58 08	 mov	 ebx, DWORD PTR [eax+8]
  00091	85 db		 test	 ebx, ebx
  00093	0f 84 aa 00 00
	00		 je	 $LN8@OnShowWind
  00099	0f 1f 80 00 00
	00 00		 npad	 7
$LL9@OnShowWind:

; 180  : 		pHistory = (CHistory*)m_lstItemInfo->GetPrev(pos);

  000a0	8b 43 08	 mov	 eax, DWORD PTR [ebx+8]
; File C:\Program Files (x86)\Microsoft Visual Studio\2019\Community\VC\Tools\MSVC\14.29.30133\atlmfc\include\afxtempl.h

; 825  : 		rPosition = (POSITION) pNode->pPrev;

  000a3	8b 5b 04	 mov	 ebx, DWORD PTR [ebx+4]
; File D:\git\src\IBK\IBK_DRFN\ProjSrc\SrcDrfn\Chart\MULTICHART\PopupList.cpp

; 180  : 		pHistory = (CHistory*)m_lstItemInfo->GetPrev(pos);

  000a6	89 45 08	 mov	 DWORD PTR _pHistory$1$[ebp], eax

; 181  : 		
; 182  : 		lvitem.iItem = i;

  000a9	89 7d b0	 mov	 DWORD PTR _lvitem$2[ebp+4], edi

; 183  : 		lvitem.iSubItem = 0;		

  000ac	c7 45 b4 00 00
	00 00		 mov	 DWORD PTR _lvitem$2[ebp+8], 0

; 184  : 		lvitem.pszText = (LPTSTR)(LPCTSTR)pHistory->_Code;

  000b3	8b 40 04	 mov	 eax, DWORD PTR [eax+4]
  000b6	89 45 c0	 mov	 DWORD PTR _lvitem$2[ebp+20], eax
; File C:\Program Files (x86)\Microsoft Visual Studio\2019\Community\VC\Tools\MSVC\14.29.30133\atlmfc\include\afxcmn.inl

; 163  : 	{ ASSERT(::IsWindow(m_hWnd)); return (int) ::SendMessage(m_hWnd, LVM_INSERTITEM, 0, (LPARAM)pItem); }

  000b9	8d 45 ac	 lea	 eax, DWORD PTR _lvitem$2[ebp]
  000bc	50		 push	 eax
  000bd	6a 00		 push	 0
  000bf	68 07 10 00 00	 push	 4103			; 00001007H
  000c4	ff b6 f8 00 00
	00		 push	 DWORD PTR [esi+248]
  000ca	ff 15 00 00 00
	00		 call	 DWORD PTR __imp__SendMessageA@16

; 215  : 	{ ASSERT(::IsWindow(m_hWnd)); return (BOOL) ::SendMessage(m_hWnd, LVM_SETCOLUMNWIDTH, nCol, MAKELPARAM(cx, 0)); }

  000d0	68 fe ff 00 00	 push	 65534			; 0000fffeH
  000d5	6a 00		 push	 0
  000d7	68 1e 10 00 00	 push	 4126			; 0000101eH
  000dc	ff b6 f8 00 00
	00		 push	 DWORD PTR [esi+248]
  000e2	ff 15 00 00 00
	00		 call	 DWORD PTR __imp__SendMessageA@16
; File D:\git\src\IBK\IBK_DRFN\ProjSrc\SrcDrfn\Chart\MULTICHART\PopupList.cpp

; 189  : 		if(m_lstType != 2)

  000e8	83 be cc 00 00
	00 02		 cmp	 DWORD PTR [esi+204], 2
  000ef	74 49		 je	 SHORT $LN7@OnShowWind

; 190  : 		{		
; 191  : 			lvitem.mask = LVIF_TEXT;
; 192  : 			lvitem.iItem = i;
; 193  : 			lvitem.iSubItem = 1;
; 194  : 			lvitem.pszText = (LPTSTR)(LPCTSTR)pHistory->_Name;

  000f1	8b 45 08	 mov	 eax, DWORD PTR _pHistory$1$[ebp]
  000f4	c7 45 ac 01 00
	00 00		 mov	 DWORD PTR _lvitem$2[ebp], 1
  000fb	89 7d b0	 mov	 DWORD PTR _lvitem$2[ebp+4], edi
  000fe	c7 45 b4 01 00
	00 00		 mov	 DWORD PTR _lvitem$2[ebp+8], 1
  00105	8b 40 08	 mov	 eax, DWORD PTR [eax+8]
  00108	89 45 c0	 mov	 DWORD PTR _lvitem$2[ebp+20], eax
; File C:\Program Files (x86)\Microsoft Visual Studio\2019\Community\VC\Tools\MSVC\14.29.30133\atlmfc\include\afxcmn.inl

; 159  : 	{ ASSERT(::IsWindow(m_hWnd)); return (BOOL) ::SendMessage(m_hWnd, LVM_SETITEM, 0, (LPARAM)pItem); }

  0010b	8d 45 ac	 lea	 eax, DWORD PTR _lvitem$2[ebp]
  0010e	50		 push	 eax
  0010f	6a 00		 push	 0
  00111	68 06 10 00 00	 push	 4102			; 00001006H
  00116	ff b6 f8 00 00
	00		 push	 DWORD PTR [esi+248]
  0011c	ff 15 00 00 00
	00		 call	 DWORD PTR __imp__SendMessageA@16

; 215  : 	{ ASSERT(::IsWindow(m_hWnd)); return (BOOL) ::SendMessage(m_hWnd, LVM_SETCOLUMNWIDTH, nCol, MAKELPARAM(cx, 0)); }

  00122	68 fe ff 00 00	 push	 65534			; 0000fffeH
  00127	6a 01		 push	 1
  00129	68 1e 10 00 00	 push	 4126			; 0000101eH
  0012e	ff b6 f8 00 00
	00		 push	 DWORD PTR [esi+248]
  00134	ff 15 00 00 00
	00		 call	 DWORD PTR __imp__SendMessageA@16
$LN7@OnShowWind:
; File D:\git\src\IBK\IBK_DRFN\ProjSrc\SrcDrfn\Chart\MULTICHART\PopupList.cpp

; 178  : 	for(POSITION pos=m_lstItemInfo->GetTailPosition(); pos; i++)

  0013a	47		 inc	 edi
  0013b	85 db		 test	 ebx, ebx
  0013d	0f 85 5d ff ff
	ff		 jne	 $LL9@OnShowWind
$LN8@OnShowWind:

; 195  : 			m_lstPopup.SetItem(&lvitem);	
; 196  : 			m_lstPopup.SetColumnWidth(1, LVSCW_AUTOSIZE_USEHEADER);
; 197  : 		}
; 198  : 		//		m_lstPopup.SetColumnWidth(1, pHistory->_Code.GetLength() * lfWidth);
; 199  : 	}
; 200  : 	AdjustListCtrl();

  00143	8b ce		 mov	 ecx, esi
  00145	e8 00 00 00 00	 call	 ?AdjustListCtrl@CPopupList@@QAEXXZ ; CPopupList::AdjustListCtrl

; 201  : }

  0014a	8d 4d f0	 lea	 ecx, DWORD PTR _szValue$5[ebp]
  0014d	ff 15 00 00 00
	00		 call	 DWORD PTR __imp_??1?$CStringT@DV?$StrTraitMFC_DLL@DV?$ChTraitsCRT@D@ATL@@@@@ATL@@QAE@XZ
  00153	8d 4d ec	 lea	 ecx, DWORD PTR _rValue$4[ebp]
  00156	ff 15 00 00 00
	00		 call	 DWORD PTR __imp_??1?$CStringT@DV?$StrTraitMFC_DLL@DV?$ChTraitsCRT@D@ATL@@@@@ATL@@QAE@XZ
  0015c	8d 4d e8	 lea	 ecx, DWORD PTR _szKey$3[ebp]
  0015f	ff 15 00 00 00
	00		 call	 DWORD PTR __imp_??1?$CStringT@DV?$StrTraitMFC_DLL@DV?$ChTraitsCRT@D@ATL@@@@@ATL@@QAE@XZ
$LN2@OnShowWind:

; 93   : 
; 94   : 		MakeInitHistoryIntoListCtrl();	
; 95   : 	}	
; 96   : }

  00165	8b 4d f4	 mov	 ecx, DWORD PTR __$EHRec$[ebp]
  00168	64 89 0d 00 00
	00 00		 mov	 DWORD PTR fs:0, ecx
  0016f	59		 pop	 ecx
  00170	5f		 pop	 edi
  00171	5e		 pop	 esi
  00172	5b		 pop	 ebx
  00173	8b e5		 mov	 esp, ebp
  00175	5d		 pop	 ebp
  00176	c2 08 00	 ret	 8
_TEXT	ENDS
;	COMDAT text$x
text$x	SEGMENT
__unwindfunclet$?OnShowWindow@CPopupList@@IAEXHI@Z$0:
  00000	8d 4d e8	 lea	 ecx, DWORD PTR _szKey$3[ebp]
  00003	ff 25 00 00 00
	00		 jmp	 DWORD PTR __imp_??1?$CStringT@DV?$StrTraitMFC_DLL@DV?$ChTraitsCRT@D@ATL@@@@@ATL@@QAE@XZ
__unwindfunclet$?OnShowWindow@CPopupList@@IAEXHI@Z$1:
  00009	8d 4d ec	 lea	 ecx, DWORD PTR _rValue$4[ebp]
  0000c	ff 25 00 00 00
	00		 jmp	 DWORD PTR __imp_??1?$CStringT@DV?$StrTraitMFC_DLL@DV?$ChTraitsCRT@D@ATL@@@@@ATL@@QAE@XZ
__unwindfunclet$?OnShowWindow@CPopupList@@IAEXHI@Z$2:
  00012	8d 4d f0	 lea	 ecx, DWORD PTR _szValue$5[ebp]
  00015	ff 25 00 00 00
	00		 jmp	 DWORD PTR __imp_??1?$CStringT@DV?$StrTraitMFC_DLL@DV?$ChTraitsCRT@D@ATL@@@@@ATL@@QAE@XZ
  0001b	cc		 int	 3
  0001c	cc		 int	 3
  0001d	cc		 int	 3
  0001e	cc		 int	 3
  0001f	cc		 int	 3
__ehhandler$?OnShowWindow@CPopupList@@IAEXHI@Z:
  00020	90		 npad	 1
  00021	90		 npad	 1
  00022	8b 54 24 08	 mov	 edx, DWORD PTR [esp+8]
  00026	8d 42 0c	 lea	 eax, DWORD PTR [edx+12]
  00029	8b 4a a8	 mov	 ecx, DWORD PTR [edx-88]
  0002c	33 c8		 xor	 ecx, eax
  0002e	e8 00 00 00 00	 call	 @__security_check_cookie@4
  00033	b8 00 00 00 00	 mov	 eax, OFFSET __ehfuncinfo$?OnShowWindow@CPopupList@@IAEXHI@Z
  00038	e9 00 00 00 00	 jmp	 ___CxxFrameHandler3
text$x	ENDS
?OnShowWindow@CPopupList@@IAEXHI@Z ENDP			; CPopupList::OnShowWindow
; Function compile flags: /Ogtp
; File D:\git\src\IBK\IBK_DRFN\ProjSrc\SrcDrfn\Chart\MULTICHART\PopupList.cpp
; File C:\Program Files (x86)\Microsoft Visual Studio\2019\Community\VC\Tools\MSVC\14.29.30133\atlmfc\include\afxcmn2.inl
; File D:\git\src\IBK\IBK_DRFN\ProjSrc\SrcDrfn\Chart\MULTICHART\PopupList.cpp
; File C:\Program Files (x86)\Microsoft Visual Studio\2019\Community\VC\Tools\MSVC\14.29.30133\atlmfc\include\afxcmn2.inl
; File D:\git\src\IBK\IBK_DRFN\ProjSrc\SrcDrfn\Chart\MULTICHART\PopupList.cpp
; File C:\Program Files (x86)\Microsoft Visual Studio\2019\Community\VC\Tools\MSVC\14.29.30133\atlmfc\include\afxcmn2.inl
; File D:\git\src\IBK\IBK_DRFN\ProjSrc\SrcDrfn\Chart\MULTICHART\PopupList.cpp
; File C:\Program Files (x86)\Microsoft Visual Studio\2019\Community\VC\Tools\MSVC\14.29.30133\atlmfc\include\afxcmn.inl
; File D:\git\src\IBK\IBK_DRFN\ProjSrc\SrcDrfn\Chart\MULTICHART\PopupList.cpp
; File C:\Program Files (x86)\Microsoft Visual Studio\2019\Community\VC\Tools\MSVC\14.29.30133\atlmfc\include\afxcmn2.inl
; File D:\git\src\IBK\IBK_DRFN\ProjSrc\SrcDrfn\Chart\MULTICHART\PopupList.cpp
; File C:\Program Files (x86)\Microsoft Visual Studio\2019\Community\VC\Tools\MSVC\14.29.30133\atlmfc\include\afxcmn2.inl
; File D:\git\src\IBK\IBK_DRFN\ProjSrc\SrcDrfn\Chart\MULTICHART\PopupList.cpp
; File C:\Program Files (x86)\Microsoft Visual Studio\2019\Community\VC\Tools\MSVC\14.29.30133\atlmfc\include\afxcmn2.inl
; File D:\git\src\IBK\IBK_DRFN\ProjSrc\SrcDrfn\Chart\MULTICHART\PopupList.cpp
; File C:\Program Files (x86)\Microsoft Visual Studio\2019\Community\VC\Tools\MSVC\14.29.30133\atlmfc\include\afxcmn2.inl
; File D:\git\src\IBK\IBK_DRFN\ProjSrc\SrcDrfn\Chart\MULTICHART\PopupList.cpp
; File C:\Program Files (x86)\Microsoft Visual Studio\2019\Community\VC\Tools\MSVC\14.29.30133\atlmfc\include\afxwin2.inl
; File D:\git\src\IBK\IBK_DRFN\ProjSrc\SrcDrfn\Chart\MULTICHART\PopupList.cpp
;	COMDAT ?OnClickList@CPopupList@@IAEXPAUtagNMHDR@@PAJ@Z
_TEXT	SEGMENT
_pNMHDR$ = 8						; size = 4
_pResult$ = 12						; size = 4
?OnClickList@CPopupList@@IAEXPAUtagNMHDR@@PAJ@Z PROC	; CPopupList::OnClickList, COMDAT
; _this$ = ecx

; 67   : {

  00000	55		 push	 ebp
  00001	8b ec		 mov	 ebp, esp
  00003	53		 push	 ebx
; File C:\Program Files (x86)\Microsoft Visual Studio\2019\Community\VC\Tools\MSVC\14.29.30133\atlmfc\include\afxcmn2.inl

; 149  : 	{ ASSERT(::IsWindow(m_hWnd)); return (int) ::SendMessage(m_hWnd, LVM_GETSELECTIONMARK, 0, 0); }

  00004	8b 1d 00 00 00
	00		 mov	 ebx, DWORD PTR __imp__SendMessageA@16
; File D:\git\src\IBK\IBK_DRFN\ProjSrc\SrcDrfn\Chart\MULTICHART\PopupList.cpp

; 67   : {

  0000a	56		 push	 esi
  0000b	57		 push	 edi
; File C:\Program Files (x86)\Microsoft Visual Studio\2019\Community\VC\Tools\MSVC\14.29.30133\atlmfc\include\afxcmn2.inl

; 149  : 	{ ASSERT(::IsWindow(m_hWnd)); return (int) ::SendMessage(m_hWnd, LVM_GETSELECTIONMARK, 0, 0); }

  0000c	6a 00		 push	 0
; File D:\git\src\IBK\IBK_DRFN\ProjSrc\SrcDrfn\Chart\MULTICHART\PopupList.cpp

; 67   : {

  0000e	8b f9		 mov	 edi, ecx
; File C:\Program Files (x86)\Microsoft Visual Studio\2019\Community\VC\Tools\MSVC\14.29.30133\atlmfc\include\afxcmn2.inl

; 149  : 	{ ASSERT(::IsWindow(m_hWnd)); return (int) ::SendMessage(m_hWnd, LVM_GETSELECTIONMARK, 0, 0); }

  00010	6a 00		 push	 0
  00012	68 42 10 00 00	 push	 4162			; 00001042H
  00017	ff b7 f8 00 00
	00		 push	 DWORD PTR [edi+248]
  0001d	ff d3		 call	 ebx
; File D:\git\src\IBK\IBK_DRFN\ProjSrc\SrcDrfn\Chart\MULTICHART\PopupList.cpp

; 68   : 	int inx = m_lstPopup.GetSelectionMark();

  0001f	8b f0		 mov	 esi, eax

; 70   : 	if(inx > -1 && inx < m_lstPopup.GetItemCount())

  00021	83 fe ff	 cmp	 esi, -1
  00024	7e 70		 jle	 SHORT $LN12@OnClickLis
; File C:\Program Files (x86)\Microsoft Visual Studio\2019\Community\VC\Tools\MSVC\14.29.30133\atlmfc\include\afxcmn.inl

; 155  : 	{ ASSERT(::IsWindow(m_hWnd)); return (int) ::SendMessage(m_hWnd, LVM_GETITEMCOUNT, 0, 0L); }

  00026	6a 00		 push	 0
  00028	6a 00		 push	 0
  0002a	68 04 10 00 00	 push	 4100			; 00001004H
  0002f	ff b7 f8 00 00
	00		 push	 DWORD PTR [edi+248]
  00035	ff d3		 call	 ebx
; File D:\git\src\IBK\IBK_DRFN\ProjSrc\SrcDrfn\Chart\MULTICHART\PopupList.cpp

; 70   : 	if(inx > -1 && inx < m_lstPopup.GetItemCount())

  00037	3b f0		 cmp	 esi, eax
  00039	7d 5b		 jge	 SHORT $LN12@OnClickLis

; 79   : 		m_lstPopup.GetItemText(m_lstPopup.GetSelectionMark(), 0, m_Code, sizeof(m_Code));

  0003b	6a 1e		 push	 30			; 0000001eH
  0003d	8d b7 a8 00 00
	00		 lea	 esi, DWORD PTR [edi+168]
  00043	0f 57 c0	 xorps	 xmm0, xmm0
  00046	56		 push	 esi
  00047	6a 00		 push	 0
; File C:\Program Files (x86)\Microsoft Visual Studio\2019\Community\VC\Tools\MSVC\14.29.30133\atlmfc\include\afxcmn2.inl

; 149  : 	{ ASSERT(::IsWindow(m_hWnd)); return (int) ::SendMessage(m_hWnd, LVM_GETSELECTIONMARK, 0, 0); }

  00049	6a 00		 push	 0
; File D:\git\src\IBK\IBK_DRFN\ProjSrc\SrcDrfn\Chart\MULTICHART\PopupList.cpp

; 78   : 		memset(m_Code, 0x00, sizeof(m_Code));

  0004b	0f 11 06	 movups	 XMMWORD PTR [esi], xmm0
; File C:\Program Files (x86)\Microsoft Visual Studio\2019\Community\VC\Tools\MSVC\14.29.30133\atlmfc\include\afxcmn2.inl

; 149  : 	{ ASSERT(::IsWindow(m_hWnd)); return (int) ::SendMessage(m_hWnd, LVM_GETSELECTIONMARK, 0, 0); }

  0004e	6a 00		 push	 0
; File D:\git\src\IBK\IBK_DRFN\ProjSrc\SrcDrfn\Chart\MULTICHART\PopupList.cpp

; 78   : 		memset(m_Code, 0x00, sizeof(m_Code));

  00050	66 0f d6 46 10	 movq	 QWORD PTR [esi+16], xmm0
  00055	c7 46 18 00 00
	00 00		 mov	 DWORD PTR [esi+24], 0
; File C:\Program Files (x86)\Microsoft Visual Studio\2019\Community\VC\Tools\MSVC\14.29.30133\atlmfc\include\afxcmn2.inl

; 149  : 	{ ASSERT(::IsWindow(m_hWnd)); return (int) ::SendMessage(m_hWnd, LVM_GETSELECTIONMARK, 0, 0); }

  0005c	68 42 10 00 00	 push	 4162			; 00001042H
; File D:\git\src\IBK\IBK_DRFN\ProjSrc\SrcDrfn\Chart\MULTICHART\PopupList.cpp

; 78   : 		memset(m_Code, 0x00, sizeof(m_Code));

  00061	66 c7 46 1c 00
	00		 mov	 WORD PTR [esi+28], 0
; File C:\Program Files (x86)\Microsoft Visual Studio\2019\Community\VC\Tools\MSVC\14.29.30133\atlmfc\include\afxcmn2.inl

; 149  : 	{ ASSERT(::IsWindow(m_hWnd)); return (int) ::SendMessage(m_hWnd, LVM_GETSELECTIONMARK, 0, 0); }

  00067	ff b7 f8 00 00
	00		 push	 DWORD PTR [edi+248]
  0006d	ff d3		 call	 ebx
; File D:\git\src\IBK\IBK_DRFN\ProjSrc\SrcDrfn\Chart\MULTICHART\PopupList.cpp

; 79   : 		m_lstPopup.GetItemText(m_lstPopup.GetSelectionMark(), 0, m_Code, sizeof(m_Code));

  0006f	50		 push	 eax
  00070	8d 8f d8 00 00
	00		 lea	 ecx, DWORD PTR [edi+216]
  00076	e8 00 00 00 00	 call	 ?GetItemText@CListCtrl@@QBEHHHPADH@Z ; CListCtrl::GetItemText
; File C:\Program Files (x86)\Microsoft Visual Studio\2019\Community\VC\Tools\MSVC\14.29.30133\atlmfc\include\afxwin2.inl

; 39   : 	{ ASSERT(::IsWindow(m_hWnd)); return ::PostMessage(m_hWnd, message, wParam, lParam); }

  0007b	8b 87 c8 00 00
	00		 mov	 eax, DWORD PTR [edi+200]
  00081	56		 push	 esi
  00082	ff b7 cc 00 00
	00		 push	 DWORD PTR [edi+204]
  00088	68 4d 04 00 00	 push	 1101			; 0000044dH
  0008d	ff 70 20	 push	 DWORD PTR [eax+32]
  00090	ff 15 00 00 00
	00		 call	 DWORD PTR __imp__PostMessageA@16
$LN12@OnClickLis:
; File D:\git\src\IBK\IBK_DRFN\ProjSrc\SrcDrfn\Chart\MULTICHART\PopupList.cpp

; 84   : }

  00096	8b 45 0c	 mov	 eax, DWORD PTR _pResult$[ebp]
  00099	5f		 pop	 edi
  0009a	5e		 pop	 esi
  0009b	5b		 pop	 ebx
  0009c	c7 00 00 00 00
	00		 mov	 DWORD PTR [eax], 0
  000a2	5d		 pop	 ebp
  000a3	c2 08 00	 ret	 8
?OnClickList@CPopupList@@IAEXPAUtagNMHDR@@PAJ@Z ENDP	; CPopupList::OnClickList
_TEXT	ENDS
; Function compile flags: /Ogtp
; File D:\git\src\IBK\IBK_DRFN\ProjSrc\SrcDrfn\Chart\MULTICHART\PopupList.cpp
; File C:\Program Files (x86)\Microsoft Visual Studio\2019\Community\VC\Tools\MSVC\14.29.30133\atlmfc\include\afxwin2.inl
; File D:\git\src\IBK\IBK_DRFN\ProjSrc\SrcDrfn\Chart\MULTICHART\PopupList.cpp
;	COMDAT ?OnKillfocusList@CPopupList@@IAEXPAUtagNMHDR@@PAJ@Z
_TEXT	SEGMENT
_pNMHDR$ = 8						; size = 4
_pResult$ = 12						; size = 4
?OnKillfocusList@CPopupList@@IAEXPAUtagNMHDR@@PAJ@Z PROC ; CPopupList::OnKillfocusList, COMDAT
; _this$ = ecx

; 60   : {

  00000	55		 push	 ebp
  00001	8b ec		 mov	 ebp, esp
; File C:\Program Files (x86)\Microsoft Visual Studio\2019\Community\VC\Tools\MSVC\14.29.30133\atlmfc\include\afxwin2.inl

; 39   : 	{ ASSERT(::IsWindow(m_hWnd)); return ::PostMessage(m_hWnd, message, wParam, lParam); }

  00003	6a 00		 push	 0
  00005	6a 00		 push	 0
  00007	6a 10		 push	 16			; 00000010H
  00009	ff 71 20	 push	 DWORD PTR [ecx+32]
  0000c	ff 15 00 00 00
	00		 call	 DWORD PTR __imp__PostMessageA@16
; File D:\git\src\IBK\IBK_DRFN\ProjSrc\SrcDrfn\Chart\MULTICHART\PopupList.cpp

; 63   : 	*pResult = 0;

  00012	8b 45 0c	 mov	 eax, DWORD PTR _pResult$[ebp]
  00015	c7 00 00 00 00
	00		 mov	 DWORD PTR [eax], 0

; 64   : }

  0001b	5d		 pop	 ebp
  0001c	c2 08 00	 ret	 8
?OnKillfocusList@CPopupList@@IAEXPAUtagNMHDR@@PAJ@Z ENDP ; CPopupList::OnKillfocusList
_TEXT	ENDS
; Function compile flags: /Ogtp
; File D:\git\src\IBK\IBK_DRFN\ProjSrc\SrcDrfn\Chart\MULTICHART\PopupList.cpp
; File C:\Program Files (x86)\Microsoft Visual Studio\2019\Community\VC\Tools\MSVC\14.29.30133\atlmfc\include\afxcmn2.inl
; File D:\git\src\IBK\IBK_DRFN\ProjSrc\SrcDrfn\Chart\MULTICHART\PopupList.cpp
; File C:\Program Files (x86)\Microsoft Visual Studio\2019\Community\VC\Tools\MSVC\14.29.30133\atlmfc\include\afxcmn2.inl
; File C:\Program Files (x86)\Microsoft Visual Studio\2019\Community\VC\Tools\MSVC\14.29.30133\atlmfc\include\afxwin2.inl
; File C:\Program Files (x86)\Microsoft Visual Studio\2019\Community\VC\Tools\MSVC\14.29.30133\atlmfc\include\atltypes.h
; File C:\Program Files (x86)\Microsoft Visual Studio\2019\Community\VC\Tools\MSVC\14.29.30133\atlmfc\include\afxwin2.inl
; File D:\git\src\IBK\IBK_DRFN\ProjSrc\SrcDrfn\Chart\MULTICHART\PopupList.cpp
; File C:\Program Files (x86)\Microsoft Visual Studio\2019\Community\VC\Tools\MSVC\14.29.30133\atlmfc\include\atltypes.h
; File D:\git\src\IBK\IBK_DRFN\ProjSrc\SrcDrfn\Chart\MULTICHART\PopupList.cpp
; File C:\Program Files (x86)\Microsoft Visual Studio\2019\Community\VC\Tools\MSVC\14.29.30133\atlmfc\include\afxcmn.inl
; File C:\Program Files (x86)\Microsoft Visual Studio\2019\Community\VC\Tools\MSVC\14.29.30133\atlmfc\include\atltypes.h
; File D:\git\src\IBK\IBK_DRFN\ProjSrc\SrcDrfn\Chart\MULTICHART\PopupList.cpp
; File C:\Program Files (x86)\Microsoft Visual Studio\2019\Community\VC\Tools\MSVC\14.29.30133\atlmfc\include\afxcmn.inl
; File D:\git\src\IBK\IBK_DRFN\ProjSrc\SrcDrfn\Chart\MULTICHART\PopupList.cpp
; File C:\Program Files (x86)\Microsoft Visual Studio\2019\Community\VC\Tools\MSVC\14.29.30133\atlmfc\include\afxcmn.inl
; File D:\git\src\IBK\IBK_DRFN\ProjSrc\SrcDrfn\Chart\MULTICHART\PopupList.cpp
; File C:\Program Files (x86)\Microsoft Visual Studio\2019\Community\VC\Tools\MSVC\14.29.30133\atlmfc\include\afxcmn.inl
; File D:\git\src\IBK\IBK_DRFN\ProjSrc\SrcDrfn\Chart\MULTICHART\PopupList.cpp
; File C:\Program Files (x86)\Microsoft Visual Studio\2019\Community\VC\Tools\MSVC\14.29.30133\atlmfc\include\atltypes.h
; File D:\git\src\IBK\IBK_DRFN\ProjSrc\SrcDrfn\Chart\MULTICHART\PopupList.cpp
; File C:\Program Files (x86)\Microsoft Visual Studio\2019\Community\VC\Tools\MSVC\14.29.30133\atlmfc\include\afxcmn.inl
; File D:\git\src\IBK\IBK_DRFN\ProjSrc\SrcDrfn\Chart\MULTICHART\PopupList.cpp
; File C:\Program Files (x86)\Microsoft Visual Studio\2019\Community\VC\Tools\MSVC\14.29.30133\atlmfc\include\afxcmn.inl
; File D:\git\src\IBK\IBK_DRFN\ProjSrc\SrcDrfn\Chart\MULTICHART\PopupList.cpp
; File C:\Program Files (x86)\Microsoft Visual Studio\2019\Community\VC\Tools\MSVC\14.29.30133\atlmfc\include\afxcmn.inl
; File D:\git\src\IBK\IBK_DRFN\ProjSrc\SrcDrfn\Chart\MULTICHART\PopupList.cpp
;	COMDAT ?OnInitDialog@CPopupList@@MAEHXZ
_TEXT	SEGMENT
_lvcolumn$1 = -64					; size = 44
_rc$2 = -20						; size = 16
__$ArrayPad$ = -4					; size = 4
?OnInitDialog@CPopupList@@MAEHXZ PROC			; CPopupList::OnInitDialog, COMDAT
; _this$ = ecx

; 48   : {

  00000	55		 push	 ebp
  00001	8b ec		 mov	 ebp, esp
  00003	83 ec 40	 sub	 esp, 64			; 00000040H
  00006	a1 00 00 00 00	 mov	 eax, DWORD PTR ___security_cookie
  0000b	33 c5		 xor	 eax, ebp
  0000d	89 45 fc	 mov	 DWORD PTR __$ArrayPad$[ebp], eax
  00010	56		 push	 esi
  00011	57		 push	 edi
  00012	8b f1		 mov	 esi, ecx

; 49   : 	CRscDlg::OnInitDialog();

  00014	e8 00 00 00 00	 call	 ?OnInitDialog@CDialog@@UAEHXZ ; CDialog::OnInitDialog
; File C:\Program Files (x86)\Microsoft Visual Studio\2019\Community\VC\Tools\MSVC\14.29.30133\atlmfc\include\afxcmn2.inl

; 131  : 	{ ASSERT(::IsWindow(m_hWnd)); return (DWORD) ::SendMessage(m_hWnd, LVM_GETEXTENDEDLISTVIEWSTYLE, 0, 0); }

  00019	8b 3d 00 00 00
	00		 mov	 edi, DWORD PTR __imp__SendMessageA@16
  0001f	6a 00		 push	 0
  00021	6a 00		 push	 0
  00023	68 37 10 00 00	 push	 4151			; 00001037H
  00028	ff b6 f8 00 00
	00		 push	 DWORD PTR [esi+248]
  0002e	ff d7		 call	 edi
; File D:\git\src\IBK\IBK_DRFN\ProjSrc\SrcDrfn\Chart\MULTICHART\PopupList.cpp

; 51   : 	m_lstPopup.SetExtendedStyle(m_lstPopup.GetExtendedStyle() | LVS_EX_FULLROWSELECT | LVS_EX_FLATSB |LVS_EX_TRACKSELECT );

  00030	0d 28 01 00 00	 or	 eax, 296		; 00000128H
; File C:\Program Files (x86)\Microsoft Visual Studio\2019\Community\VC\Tools\MSVC\14.29.30133\atlmfc\include\afxcmn2.inl

; 117  : 	{ ASSERT(::IsWindow(m_hWnd)); return (DWORD) ::SendMessage(m_hWnd, LVM_SETEXTENDEDLISTVIEWSTYLE, 0, (LPARAM) dwNewStyle); }

  00035	50		 push	 eax
  00036	6a 00		 push	 0
  00038	68 36 10 00 00	 push	 4150			; 00001036H
  0003d	ff b6 f8 00 00
	00		 push	 DWORD PTR [esi+248]
  00043	ff d7		 call	 edi
; File C:\Program Files (x86)\Microsoft Visual Studio\2019\Community\VC\Tools\MSVC\14.29.30133\atlmfc\include\afxwin2.inl

; 86   : 	{ ASSERT(::IsWindow(m_hWnd)); ::GetClientRect(m_hWnd, lpRect); }

  00045	8d 45 ec	 lea	 eax, DWORD PTR _rc$2[ebp]
  00048	0f 57 c0	 xorps	 xmm0, xmm0
  0004b	50		 push	 eax
  0004c	ff 76 20	 push	 DWORD PTR [esi+32]
; File C:\Program Files (x86)\Microsoft Visual Studio\2019\Community\VC\Tools\MSVC\14.29.30133\atlmfc\include\atltypes.h

; 528  : 	left = 0;

  0004f	0f 11 45 ec	 movups	 XMMWORD PTR _rc$2[ebp], xmm0
; File C:\Program Files (x86)\Microsoft Visual Studio\2019\Community\VC\Tools\MSVC\14.29.30133\atlmfc\include\afxwin2.inl

; 86   : 	{ ASSERT(::IsWindow(m_hWnd)); ::GetClientRect(m_hWnd, lpRect); }

  00053	ff 15 00 00 00
	00		 call	 DWORD PTR __imp__GetClientRect@8
; File D:\git\src\IBK\IBK_DRFN\ProjSrc\SrcDrfn\Chart\MULTICHART\PopupList.cpp

; 107  : 	if(m_lstType == 0)

  00059	8b 86 cc 00 00
	00		 mov	 eax, DWORD PTR [esi+204]
  0005f	c7 45 c0 0f 00
	00 00		 mov	 DWORD PTR _lvcolumn$1[ebp], 15 ; 0000000fH
  00066	c7 45 c4 00 00
	00 00		 mov	 DWORD PTR _lvcolumn$1[ebp+4], 0
  0006d	85 c0		 test	 eax, eax
  0006f	0f 85 a6 00 00
	00		 jne	 $LN8@OnInitDial

; 110  : 		lvcolumn.iSubItem = 0;	

  00075	89 45 d4	 mov	 DWORD PTR _lvcolumn$1[ebp+20], eax
; File C:\Program Files (x86)\Microsoft Visual Studio\2019\Community\VC\Tools\MSVC\14.29.30133\atlmfc\include\atltypes.h

; 576  : 	return right - left;

  00078	8b 45 f4	 mov	 eax, DWORD PTR _rc$2[ebp+8]
  0007b	2b 45 ec	 sub	 eax, DWORD PTR _rc$2[ebp]
; File D:\git\src\IBK\IBK_DRFN\ProjSrc\SrcDrfn\Chart\MULTICHART\PopupList.cpp

; 109  : 		lvcolumn.pszText = _T("   ");

  0007e	c7 45 cc 00 00
	00 00		 mov	 DWORD PTR _lvcolumn$1[ebp+12], OFFSET ??_C@_07DJJMGBFE@?5?D?Z?5?$LF?e?5@
  00085	66 0f 6e c0	 movd	 xmm0, eax

; 111  : 		lvcolumn.cx = int(rc.Width() * 0.3) ;

  00089	f3 0f e6 c0	 cvtdq2pd xmm0, xmm0
  0008d	f2 0f 59 05 00
	00 00 00	 mulsd	 xmm0, QWORD PTR __real@3fd3333333333333
  00095	f2 0f 2c c0	 cvttsd2si eax, xmm0
  00099	89 45 c8	 mov	 DWORD PTR _lvcolumn$1[ebp+8], eax
; File C:\Program Files (x86)\Microsoft Visual Studio\2019\Community\VC\Tools\MSVC\14.29.30133\atlmfc\include\afxcmn.inl

; 209  : 	{ ASSERT(::IsWindow(m_hWnd)); return (int) ::SendMessage(m_hWnd, LVM_INSERTCOLUMN, nCol, (LPARAM)pColumn); }

  0009c	8d 45 c0	 lea	 eax, DWORD PTR _lvcolumn$1[ebp]
  0009f	50		 push	 eax
  000a0	6a 00		 push	 0
  000a2	68 1b 10 00 00	 push	 4123			; 0000101bH
  000a7	ff b6 f8 00 00
	00		 push	 DWORD PTR [esi+248]
  000ad	ff d7		 call	 edi
; File C:\Program Files (x86)\Microsoft Visual Studio\2019\Community\VC\Tools\MSVC\14.29.30133\atlmfc\include\atltypes.h

; 576  : 	return right - left;

  000af	8b 45 f4	 mov	 eax, DWORD PTR _rc$2[ebp+8]
  000b2	2b 45 ec	 sub	 eax, DWORD PTR _rc$2[ebp]
; File D:\git\src\IBK\IBK_DRFN\ProjSrc\SrcDrfn\Chart\MULTICHART\PopupList.cpp

; 114  : 		lvcolumn.pszText = _T("  ");

  000b5	c7 45 cc 00 00
	00 00		 mov	 DWORD PTR _lvcolumn$1[ebp+12], OFFSET ??_C@_08DCPEPDHH@?5?A?$LO?$LI?q?$LI?m?5@

; 115  : 		lvcolumn.iSubItem = 1;

  000bc	c7 45 d4 01 00
	00 00		 mov	 DWORD PTR _lvcolumn$1[ebp+20], 1
  000c3	66 0f 6e c0	 movd	 xmm0, eax

; 116  : 		lvcolumn.cx = int(rc.Width() * 0.55);

  000c7	f3 0f e6 c0	 cvtdq2pd xmm0, xmm0
  000cb	f2 0f 59 05 00
	00 00 00	 mulsd	 xmm0, QWORD PTR __real@3fe199999999999a
  000d3	f2 0f 2c c0	 cvttsd2si eax, xmm0
  000d7	89 45 c8	 mov	 DWORD PTR _lvcolumn$1[ebp+8], eax
; File C:\Program Files (x86)\Microsoft Visual Studio\2019\Community\VC\Tools\MSVC\14.29.30133\atlmfc\include\afxcmn.inl

; 209  : 	{ ASSERT(::IsWindow(m_hWnd)); return (int) ::SendMessage(m_hWnd, LVM_INSERTCOLUMN, nCol, (LPARAM)pColumn); }

  000da	8d 45 c0	 lea	 eax, DWORD PTR _lvcolumn$1[ebp]
  000dd	50		 push	 eax
  000de	6a 01		 push	 1
  000e0	68 1b 10 00 00	 push	 4123			; 0000101bH
  000e5	ff b6 f8 00 00
	00		 push	 DWORD PTR [esi+248]
  000eb	ff d7		 call	 edi
  000ed	8d 45 c0	 lea	 eax, DWORD PTR _lvcolumn$1[ebp]
; File D:\git\src\IBK\IBK_DRFN\ProjSrc\SrcDrfn\Chart\MULTICHART\PopupList.cpp

; 119  : 		lvcolumn.pszText = _T("");

  000f0	c7 45 cc 00 00
	00 00		 mov	 DWORD PTR _lvcolumn$1[ebp+12], OFFSET ??_C@_00CNPNBAHC@@
; File C:\Program Files (x86)\Microsoft Visual Studio\2019\Community\VC\Tools\MSVC\14.29.30133\atlmfc\include\afxcmn.inl

; 209  : 	{ ASSERT(::IsWindow(m_hWnd)); return (int) ::SendMessage(m_hWnd, LVM_INSERTCOLUMN, nCol, (LPARAM)pColumn); }

  000f7	50		 push	 eax
  000f8	6a 02		 push	 2
  000fa	68 1b 10 00 00	 push	 4123			; 0000101bH
  000ff	ff b6 f8 00 00
	00		 push	 DWORD PTR [esi+248]
; File D:\git\src\IBK\IBK_DRFN\ProjSrc\SrcDrfn\Chart\MULTICHART\PopupList.cpp

; 120  : 		lvcolumn.iSubItem = 2;

  00105	c7 45 d4 02 00
	00 00		 mov	 DWORD PTR _lvcolumn$1[ebp+20], 2

; 121  : 		lvcolumn.cx = 3;

  0010c	c7 45 c8 03 00
	00 00		 mov	 DWORD PTR _lvcolumn$1[ebp+8], 3
; File C:\Program Files (x86)\Microsoft Visual Studio\2019\Community\VC\Tools\MSVC\14.29.30133\atlmfc\include\afxcmn.inl

; 209  : 	{ ASSERT(::IsWindow(m_hWnd)); return (int) ::SendMessage(m_hWnd, LVM_INSERTCOLUMN, nCol, (LPARAM)pColumn); }

  00113	ff d7		 call	 edi
  00115	8b 86 cc 00 00
	00		 mov	 eax, DWORD PTR [esi+204]
$LN8@OnInitDial:
; File D:\git\src\IBK\IBK_DRFN\ProjSrc\SrcDrfn\Chart\MULTICHART\PopupList.cpp

; 146  : 	if(m_lstType == 2)

  0011b	83 f8 02	 cmp	 eax, 2
  0011e	75 66		 jne	 SHORT $LN31@OnInitDial
; File C:\Program Files (x86)\Microsoft Visual Studio\2019\Community\VC\Tools\MSVC\14.29.30133\atlmfc\include\atltypes.h

; 576  : 	return right - left;

  00120	8b 45 f4	 mov	 eax, DWORD PTR _rc$2[ebp+8]
  00123	2b 45 ec	 sub	 eax, DWORD PTR _rc$2[ebp]
; File D:\git\src\IBK\IBK_DRFN\ProjSrc\SrcDrfn\Chart\MULTICHART\PopupList.cpp

; 148  : 		lvcolumn.pszText = _T("   ");

  00126	c7 45 cc 00 00
	00 00		 mov	 DWORD PTR _lvcolumn$1[ebp+12], OFFSET ??_C@_07NDNHJKEP@?5?$LM?$LB?5?E?C?5@

; 149  : 		lvcolumn.iSubItem = 0;	

  0012d	c7 45 d4 00 00
	00 00		 mov	 DWORD PTR _lvcolumn$1[ebp+20], 0
  00134	66 0f 6e c0	 movd	 xmm0, eax

; 150  : 		lvcolumn.cx = int(rc.Width() * 0.75) ;

  00138	f3 0f e6 c0	 cvtdq2pd xmm0, xmm0
  0013c	f2 0f 59 05 00
	00 00 00	 mulsd	 xmm0, QWORD PTR __real@3fe8000000000000
  00144	f2 0f 2c c0	 cvttsd2si eax, xmm0
  00148	89 45 c8	 mov	 DWORD PTR _lvcolumn$1[ebp+8], eax
; File C:\Program Files (x86)\Microsoft Visual Studio\2019\Community\VC\Tools\MSVC\14.29.30133\atlmfc\include\afxcmn.inl

; 209  : 	{ ASSERT(::IsWindow(m_hWnd)); return (int) ::SendMessage(m_hWnd, LVM_INSERTCOLUMN, nCol, (LPARAM)pColumn); }

  0014b	8d 45 c0	 lea	 eax, DWORD PTR _lvcolumn$1[ebp]
  0014e	50		 push	 eax
  0014f	6a 00		 push	 0
  00151	68 1b 10 00 00	 push	 4123			; 0000101bH
  00156	ff b6 f8 00 00
	00		 push	 DWORD PTR [esi+248]
  0015c	ff d7		 call	 edi
  0015e	8d 45 c0	 lea	 eax, DWORD PTR _lvcolumn$1[ebp]
; File D:\git\src\IBK\IBK_DRFN\ProjSrc\SrcDrfn\Chart\MULTICHART\PopupList.cpp

; 153  : 		lvcolumn.pszText = _T("");

  00161	c7 45 cc 00 00
	00 00		 mov	 DWORD PTR _lvcolumn$1[ebp+12], OFFSET ??_C@_00CNPNBAHC@@
; File C:\Program Files (x86)\Microsoft Visual Studio\2019\Community\VC\Tools\MSVC\14.29.30133\atlmfc\include\afxcmn.inl

; 209  : 	{ ASSERT(::IsWindow(m_hWnd)); return (int) ::SendMessage(m_hWnd, LVM_INSERTCOLUMN, nCol, (LPARAM)pColumn); }

  00168	50		 push	 eax
  00169	6a 01		 push	 1
  0016b	68 1b 10 00 00	 push	 4123			; 0000101bH
  00170	ff b6 f8 00 00
	00		 push	 DWORD PTR [esi+248]
; File D:\git\src\IBK\IBK_DRFN\ProjSrc\SrcDrfn\Chart\MULTICHART\PopupList.cpp

; 154  : 		lvcolumn.iSubItem = 1;

  00176	c7 45 d4 01 00
	00 00		 mov	 DWORD PTR _lvcolumn$1[ebp+20], 1

; 155  : 		lvcolumn.cx = 3;

  0017d	c7 45 c8 03 00
	00 00		 mov	 DWORD PTR _lvcolumn$1[ebp+8], 3
; File C:\Program Files (x86)\Microsoft Visual Studio\2019\Community\VC\Tools\MSVC\14.29.30133\atlmfc\include\afxcmn.inl

; 209  : 	{ ASSERT(::IsWindow(m_hWnd)); return (int) ::SendMessage(m_hWnd, LVM_INSERTCOLUMN, nCol, (LPARAM)pColumn); }

  00184	ff d7		 call	 edi
$LN31@OnInitDial:
; File D:\git\src\IBK\IBK_DRFN\ProjSrc\SrcDrfn\Chart\MULTICHART\PopupList.cpp

; 57   : }

  00186	8b 4d fc	 mov	 ecx, DWORD PTR __$ArrayPad$[ebp]
  00189	b8 01 00 00 00	 mov	 eax, 1
  0018e	5f		 pop	 edi
  0018f	33 cd		 xor	 ecx, ebp
  00191	5e		 pop	 esi
  00192	e8 00 00 00 00	 call	 @__security_check_cookie@4
  00197	8b e5		 mov	 esp, ebp
  00199	5d		 pop	 ebp
  0019a	c3		 ret	 0
?OnInitDialog@CPopupList@@MAEHXZ ENDP			; CPopupList::OnInitDialog
_TEXT	ENDS
; Function compile flags: /Ogtp
; File D:\git\src\IBK\IBK_DRFN\ProjSrc\SrcDrfn\Chart\MULTICHART\PopupList.cpp
;	COMDAT ?DoDataExchange@CPopupList@@MAEXPAVCDataExchange@@@Z
_TEXT	SEGMENT
_pDX$ = 8						; size = 4
?DoDataExchange@CPopupList@@MAEXPAVCDataExchange@@@Z PROC ; CPopupList::DoDataExchange, COMDAT
; _this$ = ecx

; 28   : {

  00000	55		 push	 ebp
  00001	8b ec		 mov	 ebp, esp
  00003	56		 push	 esi

; 29   : 	CRscDlg::DoDataExchange(pDX);

  00004	ff 75 08	 push	 DWORD PTR _pDX$[ebp]
  00007	8b f1		 mov	 esi, ecx
  00009	e8 00 00 00 00	 call	 ?DoDataExchange@CRscDlg@@MAEXPAVCDataExchange@@@Z ; CRscDlg::DoDataExchange

; 30   : 	//{{AFX_DATA_MAP(CPopupList)
; 31   : 	DDX_Control(pDX, IDC_LIST, m_lstPopup);

  0000e	8d 86 d8 00 00
	00		 lea	 eax, DWORD PTR [esi+216]
  00014	50		 push	 eax
  00015	68 36 4e 00 00	 push	 20022			; 00004e36H
  0001a	ff 75 08	 push	 DWORD PTR _pDX$[ebp]
  0001d	e8 00 00 00 00	 call	 ?DDX_Control@@YGXPAVCDataExchange@@HAAVCWnd@@@Z ; DDX_Control
  00022	5e		 pop	 esi

; 32   : 	//}}AFX_DATA_MAP
; 33   : }

  00023	5d		 pop	 ebp
  00024	c2 04 00	 ret	 4
?DoDataExchange@CPopupList@@MAEXPAVCDataExchange@@@Z ENDP ; CPopupList::DoDataExchange
_TEXT	ENDS
; Function compile flags: /Ogtp
; File D:\git\src\IBK\IBK_DRFN\ProjSrc\SrcDrfn\Chart\MULTICHART\PopupList.cpp
; File C:\Program Files (x86)\Microsoft Visual Studio\2019\Community\VC\Tools\MSVC\14.29.30133\atlmfc\include\atltypes.h
; File D:\git\src\IBK\IBK_DRFN\ProjSrc\SrcDrfn\Chart\MULTICHART\PopupList.cpp
; File C:\Program Files (x86)\Microsoft Visual Studio\2019\Community\VC\Tools\MSVC\14.29.30133\atlmfc\include\afxcmn.inl
; File D:\git\src\IBK\IBK_DRFN\ProjSrc\SrcDrfn\Chart\MULTICHART\PopupList.cpp
; File C:\Program Files (x86)\Microsoft Visual Studio\2019\Community\VC\Tools\MSVC\14.29.30133\atlmfc\include\afxcmn2.inl
; File D:\git\src\IBK\IBK_DRFN\ProjSrc\SrcDrfn\Chart\MULTICHART\PopupList.cpp
; File C:\Program Files (x86)\Microsoft Visual Studio\2019\Community\VC\Tools\MSVC\14.29.30133\atlmfc\include\afxcmn.inl
; File D:\git\src\IBK\IBK_DRFN\ProjSrc\SrcDrfn\Chart\MULTICHART\PopupList.cpp
; File C:\Program Files (x86)\Microsoft Visual Studio\2019\Community\VC\Tools\MSVC\14.29.30133\atlmfc\include\atltypes.h
; File D:\git\src\IBK\IBK_DRFN\ProjSrc\SrcDrfn\Chart\MULTICHART\PopupList.cpp
; File C:\Program Files (x86)\Microsoft Visual Studio\2019\Community\VC\Tools\MSVC\14.29.30133\atlmfc\include\afxcmn.inl
; File D:\git\src\IBK\IBK_DRFN\ProjSrc\SrcDrfn\Chart\MULTICHART\PopupList.cpp
; File C:\Program Files (x86)\Microsoft Visual Studio\2019\Community\VC\Tools\MSVC\14.29.30133\atlmfc\include\afxcmn.inl
; File D:\git\src\IBK\IBK_DRFN\ProjSrc\SrcDrfn\Chart\MULTICHART\PopupList.cpp
; File C:\Program Files (x86)\Microsoft Visual Studio\2019\Community\VC\Tools\MSVC\14.29.30133\atlmfc\include\atltypes.h
; File D:\git\src\IBK\IBK_DRFN\ProjSrc\SrcDrfn\Chart\MULTICHART\PopupList.cpp
; File C:\Program Files (x86)\Microsoft Visual Studio\2019\Community\VC\Tools\MSVC\14.29.30133\atlmfc\include\afxwin1.inl
; File C:\Program Files (x86)\Microsoft Visual Studio\2019\Community\VC\Tools\MSVC\14.29.30133\atlmfc\include\atltypes.h
; File D:\git\src\IBK\IBK_DRFN\ProjSrc\SrcDrfn\Chart\MULTICHART\PopupList.cpp
; File C:\Program Files (x86)\Microsoft Visual Studio\2019\Community\VC\Tools\MSVC\14.29.30133\atlmfc\include\atltypes.h
; File C:\Program Files (x86)\Microsoft Visual Studio\2019\Community\VC\Tools\MSVC\14.29.30133\atlmfc\include\afxwin1.inl
; File C:\Program Files (x86)\Microsoft Visual Studio\2019\Community\VC\Tools\MSVC\14.29.30133\atlmfc\include\afxwin2.inl
; File D:\git\src\IBK\IBK_DRFN\ProjSrc\SrcDrfn\Chart\MULTICHART\PopupList.cpp
; File C:\Program Files (x86)\Microsoft Visual Studio\2019\Community\VC\Tools\MSVC\14.29.30133\atlmfc\include\afxwin1.inl
; File D:\git\src\IBK\IBK_DRFN\ProjSrc\SrcDrfn\Chart\MULTICHART\PopupList.cpp
;	COMDAT ?AdjustListCtrl@CPopupList@@QAEXXZ
_TEXT	SEGMENT
_this$GSCopy$1$ = -56					; size = 4
_rgn$ = -52						; size = 8
_pHeader$1$ = -44					; size = 4
_niCount$2$ = -44					; size = 4
tv612 = -40						; size = 4
_uiHeight$2$ = -40					; size = 4
_niCount$1$ = -36					; size = 4
tv618 = -36						; size = 4
_uiHeight$1$ = -36					; size = 4
_rc$ = -32						; size = 16
__$ArrayPad$ = -16					; size = 4
__$EHRec$ = -12						; size = 12
?AdjustListCtrl@CPopupList@@QAEXXZ PROC			; CPopupList::AdjustListCtrl, COMDAT
; _this$ = ecx

; 204  : {

  00000	55		 push	 ebp
  00001	8b ec		 mov	 ebp, esp
  00003	6a ff		 push	 -1
  00005	68 00 00 00 00	 push	 __ehhandler$?AdjustListCtrl@CPopupList@@QAEXXZ
  0000a	64 a1 00 00 00
	00		 mov	 eax, DWORD PTR fs:0
  00010	50		 push	 eax
  00011	83 ec 2c	 sub	 esp, 44			; 0000002cH
  00014	a1 00 00 00 00	 mov	 eax, DWORD PTR ___security_cookie
  00019	33 c5		 xor	 eax, ebp
  0001b	89 45 f0	 mov	 DWORD PTR __$ArrayPad$[ebp], eax
  0001e	53		 push	 ebx
  0001f	56		 push	 esi
  00020	57		 push	 edi
  00021	50		 push	 eax
  00022	8d 45 f4	 lea	 eax, DWORD PTR __$EHRec$[ebp]
  00025	64 a3 00 00 00
	00		 mov	 DWORD PTR fs:0, eax
  0002b	8b f1		 mov	 esi, ecx
  0002d	89 75 c8	 mov	 DWORD PTR _this$GSCopy$1$[ebp], esi

; 210  : 	CHeaderCtrl * pHeader = (CHeaderCtrl*)m_lstPopup.GetHeaderCtrl();

  00030	8d 86 d8 00 00
	00		 lea	 eax, DWORD PTR [esi+216]
  00036	c7 45 dc 00 00
	00 00		 mov	 DWORD PTR _uiHeight$1$[ebp], 0
  0003d	0f 57 c0	 xorps	 xmm0, xmm0
  00040	89 45 d8	 mov	 DWORD PTR tv612[ebp], eax
  00043	8b c8		 mov	 ecx, eax
  00045	33 ff		 xor	 edi, edi
; File C:\Program Files (x86)\Microsoft Visual Studio\2019\Community\VC\Tools\MSVC\14.29.30133\atlmfc\include\atltypes.h

; 528  : 	left = 0;

  00047	0f 11 45 e0	 movups	 XMMWORD PTR _rc$[ebp], xmm0
; File D:\git\src\IBK\IBK_DRFN\ProjSrc\SrcDrfn\Chart\MULTICHART\PopupList.cpp

; 210  : 	CHeaderCtrl * pHeader = (CHeaderCtrl*)m_lstPopup.GetHeaderCtrl();

  0004b	e8 00 00 00 00	 call	 ?GetHeaderCtrl@CListCtrl@@QBEPAVCHeaderCtrl@@XZ ; CListCtrl::GetHeaderCtrl

; 211  : 	
; 212  : 	VERIFY(pHeader);
; 213  : 
; 214  : 	if(pHeader)

  00050	8b 1d 00 00 00
	00		 mov	 ebx, DWORD PTR __imp__SendMessageA@16
  00056	89 45 d4	 mov	 DWORD PTR _pHeader$1$[ebp], eax
  00059	85 c0		 test	 eax, eax
  0005b	74 41		 je	 SHORT $LN5@AdjustList
; File C:\Program Files (x86)\Microsoft Visual Studio\2019\Community\VC\Tools\MSVC\14.29.30133\atlmfc\include\afxcmn.inl

; 541  : 	{ ASSERT(::IsWindow(m_hWnd)); return (int) ::SendMessage(m_hWnd, HDM_GETITEMCOUNT, 0, 0L); }

  0005d	57		 push	 edi
  0005e	57		 push	 edi
  0005f	68 00 12 00 00	 push	 4608			; 00001200H
  00064	ff 70 20	 push	 DWORD PTR [eax+32]
  00067	ff d3		 call	 ebx
  00069	33 f6		 xor	 esi, esi
; File D:\git\src\IBK\IBK_DRFN\ProjSrc\SrcDrfn\Chart\MULTICHART\PopupList.cpp

; 216  : 		niCount = pHeader->GetItemCount();

  0006b	89 45 dc	 mov	 DWORD PTR _niCount$1$[ebp], eax

; 217  : 		for(UINT i = 0; i < niCount; i++)

  0006e	85 c0		 test	 eax, eax
  00070	74 20		 je	 SHORT $LN3@AdjustList
$LL4@AdjustList:
; File C:\Program Files (x86)\Microsoft Visual Studio\2019\Community\VC\Tools\MSVC\14.29.30133\atlmfc\include\afxcmn2.inl

; 154  : 	{ ASSERT(::IsWindow(m_hWnd)); ASSERT(lpRect != NULL); return (BOOL)::SendMessage(m_hWnd, HDM_GETITEMRECT, nIndex, (LPARAM)lpRect); }

  00072	8d 45 e0	 lea	 eax, DWORD PTR _rc$[ebp]
  00075	50		 push	 eax
  00076	8b 45 d4	 mov	 eax, DWORD PTR _pHeader$1$[ebp]
  00079	56		 push	 esi
  0007a	68 07 12 00 00	 push	 4615			; 00001207H
  0007f	ff 70 20	 push	 DWORD PTR [eax+32]
  00082	ff d3		 call	 ebx
; File D:\git\src\IBK\IBK_DRFN\ProjSrc\SrcDrfn\Chart\MULTICHART\PopupList.cpp

; 220  : 			uiWidth += rc.Width();

  00084	8b 45 e8	 mov	 eax, DWORD PTR _rc$[ebp+8]
  00087	46		 inc	 esi
  00088	2b 45 e0	 sub	 eax, DWORD PTR _rc$[ebp]
  0008b	03 f8		 add	 edi, eax
  0008d	3b 75 dc	 cmp	 esi, DWORD PTR _niCount$1$[ebp]
  00090	72 e0		 jb	 SHORT $LL4@AdjustList
$LN3@AdjustList:

; 221  : 		}
; 222  : 		uiHeight += rc.Height();

  00092	8b 45 ec	 mov	 eax, DWORD PTR _rc$[ebp+12]
  00095	2b 45 e4	 sub	 eax, DWORD PTR _rc$[ebp+4]
  00098	8b 75 c8	 mov	 esi, DWORD PTR _this$GSCopy$1$[ebp]
  0009b	89 45 dc	 mov	 DWORD PTR _uiHeight$1$[ebp], eax
$LN5@AdjustList:
; File C:\Program Files (x86)\Microsoft Visual Studio\2019\Community\VC\Tools\MSVC\14.29.30133\atlmfc\include\afxcmn.inl

; 155  : 	{ ASSERT(::IsWindow(m_hWnd)); return (int) ::SendMessage(m_hWnd, LVM_GETITEMCOUNT, 0, 0L); }

  0009e	6a 00		 push	 0
  000a0	6a 00		 push	 0
  000a2	68 04 10 00 00	 push	 4100			; 00001004H
  000a7	ff b6 f8 00 00
	00		 push	 DWORD PTR [esi+248]
  000ad	ff d3		 call	 ebx
; File D:\git\src\IBK\IBK_DRFN\ProjSrc\SrcDrfn\Chart\MULTICHART\PopupList.cpp

; 225  : 	niCount = m_lstPopup.GetItemCount();

  000af	89 45 d4	 mov	 DWORD PTR _niCount$2$[ebp], eax

; 226  : 	if(niCount>0 && niCount <=MAX_ITMESIZE)

  000b2	85 c0		 test	 eax, eax
  000b4	74 6b		 je	 SHORT $LN8@AdjustList
  000b6	8b 4d d8	 mov	 ecx, DWORD PTR tv612[ebp]
  000b9	83 f8 0a	 cmp	 eax, 10			; 0000000aH
  000bc	6a 00		 push	 0
  000be	8d 45 e0	 lea	 eax, DWORD PTR _rc$[ebp]
  000c1	50		 push	 eax
  000c2	6a 01		 push	 1
  000c4	77 1c		 ja	 SHORT $LN68@AdjustList

; 227  : 	{
; 228  : 		m_lstPopup.GetItemRect(1,&rc,LVIR_BOUNDS);

  000c6	e8 00 00 00 00	 call	 ?GetItemRect@CListCtrl@@QBEHHPAUtagRECT@@I@Z ; CListCtrl::GetItemRect
; File C:\Program Files (x86)\Microsoft Visual Studio\2019\Community\VC\Tools\MSVC\14.29.30133\atlmfc\include\atltypes.h

; 581  : 	return bottom - top;

  000cb	8b 45 ec	 mov	 eax, DWORD PTR _rc$[ebp+12]
  000ce	2b 45 e4	 sub	 eax, DWORD PTR _rc$[ebp+4]
; File D:\git\src\IBK\IBK_DRFN\ProjSrc\SrcDrfn\Chart\MULTICHART\PopupList.cpp

; 229  : 		uiHeight += (rc.Height() * niCount);

  000d1	0f af 45 d4	 imul	 eax, DWORD PTR _niCount$2$[ebp]
  000d5	8b 75 dc	 mov	 esi, DWORD PTR _uiHeight$1$[ebp]
  000d8	83 c6 0a	 add	 esi, 10			; 0000000aH
  000db	03 f0		 add	 esi, eax

; 230  : 	}

  000dd	e9 c4 00 00 00	 jmp	 $LN70@AdjustList
$LN68@AdjustList:

; 231  : 	else if( niCount >MAX_ITMESIZE)// 
; 232  : 	{
; 233  : 		m_lstPopup.GetItemRect(1,&rc,LVIR_BOUNDS);

  000e2	e8 00 00 00 00	 call	 ?GetItemRect@CListCtrl@@QBEHHPAUtagRECT@@I@Z ; CListCtrl::GetItemRect

; 234  : 		uiHeight += (rc.Height() * MAX_ITMESIZE);

  000e7	8b 45 ec	 mov	 eax, DWORD PTR _rc$[ebp+12]
  000ea	2b 45 e4	 sub	 eax, DWORD PTR _rc$[ebp+4]
  000ed	8b 4d dc	 mov	 ecx, DWORD PTR _uiHeight$1$[ebp]

; 235  : 		uiWidth += ::GetSystemMetrics(SM_CXVSCROLL);

  000f0	6a 02		 push	 2
  000f2	8d 04 80	 lea	 eax, DWORD PTR [eax+eax*4]
  000f5	8d 34 41	 lea	 esi, DWORD PTR [ecx+eax*2]
  000f8	ff 15 00 00 00
	00		 call	 DWORD PTR __imp__GetSystemMetrics@4

; 254  : 	}
; 255  : 	
; 256  : //	uiHeight += ::GetSystemMetrics(SM_CYEDGE);
; 257  : //	uiWidth += ::GetSystemMetrics(SM_CXEDGE);
; 258  : 
; 259  : 	//  
; 260  : //	uiWidth += 10;
; 261  : 	uiHeight += 10;

  000fe	83 c6 0a	 add	 esi, 10			; 0000000aH
  00101	03 f8		 add	 edi, eax

; 262  : 
; 263  : //	if(uiWidth > 100)
; 264  : //		uiWidth = 100;
; 265  : 	
; 266  : 	//SetWindowPos(NULL, 0, 0, uiWidth, uiHeight, SWP_NOMOVE | SWP_NOZORDER);
; 267  : 	//m_lstPopup.SetWindowPos(NULL, 0, 0, uiWidth+10, uiHeight, SWP_NOMOVE | SWP_NOZORDER);
; 268  : 	if( niCount > MAX_ITMESIZE )

  00103	83 7d d4 0a	 cmp	 DWORD PTR _niCount$2$[ebp], 10 ; 0000000aH
  00107	8b c7		 mov	 eax, edi
  00109	89 75 dc	 mov	 DWORD PTR tv618[ebp], esi
  0010c	89 75 d8	 mov	 DWORD PTR _uiHeight$2$[ebp], esi
  0010f	0f 86 99 00 00
	00		 jbe	 $LN13@AdjustList

; 269  : 	{
; 270  : 		uiWidth += 5;

  00115	83 c7 05	 add	 edi, 5

; 271  : 		SetWindowPos(NULL, 0, 0, uiWidth, uiHeight, SWP_NOMOVE | SWP_NOZORDER);
; 272  : 		m_lstPopup.SetWindowPos(NULL, 0, 0, uiWidth, uiHeight, SWP_NOMOVE | SWP_NOZORDER);

  00118	8b df		 mov	 ebx, edi
  0011a	8b c7		 mov	 eax, edi

; 273  : 	}

  0011c	e9 90 00 00 00	 jmp	 $LN14@AdjustList
$LN8@AdjustList:

; 236  : 	}
; 237  : 	else
; 238  : 	{
; 239  : 		if( m_lstType == 0 )

  00121	8b 86 cc 00 00
	00		 mov	 eax, DWORD PTR [esi+204]
  00127	85 c0		 test	 eax, eax
  00129	75 39		 jne	 SHORT $LN10@AdjustList
; File C:\Program Files (x86)\Microsoft Visual Studio\2019\Community\VC\Tools\MSVC\14.29.30133\atlmfc\include\afxcmn.inl

; 215  : 	{ ASSERT(::IsWindow(m_hWnd)); return (BOOL) ::SendMessage(m_hWnd, LVM_SETCOLUMNWIDTH, nCol, MAKELPARAM(cx, 0)); }

  0012b	6a 36		 push	 54			; 00000036H
  0012d	50		 push	 eax
  0012e	68 1e 10 00 00	 push	 4126			; 0000101eH
  00133	ff b6 f8 00 00
	00		 push	 DWORD PTR [esi+248]
  00139	ff d3		 call	 ebx
  0013b	6a 3c		 push	 60			; 0000003cH
  0013d	6a 01		 push	 1
  0013f	68 1e 10 00 00	 push	 4126			; 0000101eH
  00144	ff b6 f8 00 00
	00		 push	 DWORD PTR [esi+248]
  0014a	ff d3		 call	 ebx
  0014c	6a 03		 push	 3
  0014e	6a 02		 push	 2
  00150	68 1e 10 00 00	 push	 4126			; 0000101eH
  00155	ff b6 f8 00 00
	00		 push	 DWORD PTR [esi+248]
  0015b	ff d3		 call	 ebx
; File D:\git\src\IBK\IBK_DRFN\ProjSrc\SrcDrfn\Chart\MULTICHART\PopupList.cpp

; 244  : 			uiWidth = 117;

  0015d	bf 75 00 00 00	 mov	 edi, 117		; 00000075H

; 245  : 		}

  00162	eb 3d		 jmp	 SHORT $LN12@AdjustList
$LN10@AdjustList:

; 246  : 		else if( m_lstType == 1 )

  00164	83 f8 01	 cmp	 eax, 1
  00167	75 38		 jne	 SHORT $LN12@AdjustList
; File C:\Program Files (x86)\Microsoft Visual Studio\2019\Community\VC\Tools\MSVC\14.29.30133\atlmfc\include\afxcmn.inl

; 215  : 	{ ASSERT(::IsWindow(m_hWnd)); return (BOOL) ::SendMessage(m_hWnd, LVM_SETCOLUMNWIDTH, nCol, MAKELPARAM(cx, 0)); }

  00169	6a 56		 push	 86			; 00000056H
  0016b	6a 00		 push	 0
  0016d	68 1e 10 00 00	 push	 4126			; 0000101eH
  00172	ff b6 f8 00 00
	00		 push	 DWORD PTR [esi+248]
  00178	ff d3		 call	 ebx
  0017a	6a 3c		 push	 60			; 0000003cH
  0017c	6a 01		 push	 1
  0017e	68 1e 10 00 00	 push	 4126			; 0000101eH
  00183	ff b6 f8 00 00
	00		 push	 DWORD PTR [esi+248]
  00189	ff d3		 call	 ebx
  0018b	6a 03		 push	 3
  0018d	6a 02		 push	 2
  0018f	68 1e 10 00 00	 push	 4126			; 0000101eH
  00194	ff b6 f8 00 00
	00		 push	 DWORD PTR [esi+248]
  0019a	ff d3		 call	 ebx
; File D:\git\src\IBK\IBK_DRFN\ProjSrc\SrcDrfn\Chart\MULTICHART\PopupList.cpp

; 251  : 			uiWidth = 149;

  0019c	bf 95 00 00 00	 mov	 edi, 149		; 00000095H
$LN12@AdjustList:

; 252  : 		}
; 253  : 		uiHeight = 12;

  001a1	be 16 00 00 00	 mov	 esi, 22			; 00000016H
$LN70@AdjustList:

; 274  : 	else
; 275  : 	{
; 276  : 		SetWindowPos(NULL, 0, 0, uiWidth, uiHeight, SWP_NOMOVE | SWP_NOZORDER);
; 277  : 		m_lstPopup.SetWindowPos(NULL, 0, 0, uiWidth+10, uiHeight, SWP_NOMOVE | SWP_NOZORDER);

  001a6	89 75 d8	 mov	 DWORD PTR _uiHeight$2$[ebp], esi
  001a9	8b c7		 mov	 eax, edi
  001ab	89 75 dc	 mov	 DWORD PTR tv618[ebp], esi
$LN13@AdjustList:
  001ae	8d 5f 0a	 lea	 ebx, DWORD PTR [edi+10]
$LN14@AdjustList:
; File C:\Program Files (x86)\Microsoft Visual Studio\2019\Community\VC\Tools\MSVC\14.29.30133\atlmfc\include\atltypes.h

; 540  : 	left = l;

  001b1	6a 06		 push	 6
  001b3	56		 push	 esi
  001b4	8b 75 c8	 mov	 esi, DWORD PTR _this$GSCopy$1$[ebp]
  001b7	8b ce		 mov	 ecx, esi
  001b9	50		 push	 eax
  001ba	6a 00		 push	 0
  001bc	6a 00		 push	 0
  001be	6a 00		 push	 0
  001c0	e8 00 00 00 00	 call	 ?SetWindowPos@CWnd@@QAEHPBV1@HHHHI@Z ; CWnd::SetWindowPos
  001c5	6a 06		 push	 6
  001c7	ff 75 dc	 push	 DWORD PTR tv618[ebp]
  001ca	8d 8e d8 00 00
	00		 lea	 ecx, DWORD PTR [esi+216]
  001d0	53		 push	 ebx
  001d1	6a 00		 push	 0
  001d3	6a 00		 push	 0
  001d5	6a 00		 push	 0
  001d7	e8 00 00 00 00	 call	 ?SetWindowPos@CWnd@@QAEHPBV1@HHHHI@Z ; CWnd::SetWindowPos
; File D:\git\src\IBK\IBK_DRFN\ProjSrc\SrcDrfn\Chart\MULTICHART\PopupList.cpp

; 280  : 	rc = CRect(0, 0, uiWidth, uiHeight);

  001dc	8b 45 d8	 mov	 eax, DWORD PTR _uiHeight$2$[ebp]
  001df	c7 45 e0 00 00
	00 00		 mov	 DWORD PTR _rc$[ebp], 0
  001e6	c7 45 e4 00 00
	00 00		 mov	 DWORD PTR _rc$[ebp+4], 0
  001ed	89 7d e8	 mov	 DWORD PTR _rc$[ebp+8], edi
  001f0	89 45 ec	 mov	 DWORD PTR _rc$[ebp+12], eax
; File C:\Program Files (x86)\Microsoft Visual Studio\2019\Community\VC\Tools\MSVC\14.29.30133\atlmfc\include\afxwin1.inl

; 70   : 	{ m_hObject = NULL; }

  001f3	c7 45 d0 00 00
	00 00		 mov	 DWORD PTR _rgn$[ebp+4], 0

; 264  : 	{ }

  001fa	c7 45 cc 00 00
	00 00		 mov	 DWORD PTR _rgn$[ebp], OFFSET ??_7CRgn@@6B@
; File C:\Program Files (x86)\Microsoft Visual Studio\2019\Community\VC\Tools\MSVC\14.29.30133\atlmfc\include\atltypes.h

; 698  : 	::InflateRect(this, -x, -y);

  00201	6a ff		 push	 -1
  00203	6a ff		 push	 -1
  00205	8d 45 e0	 lea	 eax, DWORD PTR _rc$[ebp]
; File D:\git\src\IBK\IBK_DRFN\ProjSrc\SrcDrfn\Chart\MULTICHART\PopupList.cpp

; 281  : 	CRgn rgn;

  00208	c7 45 fc 00 00
	00 00		 mov	 DWORD PTR __$EHRec$[ebp+8], 0
; File C:\Program Files (x86)\Microsoft Visual Studio\2019\Community\VC\Tools\MSVC\14.29.30133\atlmfc\include\atltypes.h

; 698  : 	::InflateRect(this, -x, -y);

  0020f	50		 push	 eax
  00210	ff 15 00 00 00
	00		 call	 DWORD PTR __imp__InflateRect@12
; File C:\Program Files (x86)\Microsoft Visual Studio\2019\Community\VC\Tools\MSVC\14.29.30133\atlmfc\include\afxwin1.inl

; 268  : 	{ return Attach(::CreateRectRgn(x1, y1, x2, y2)); }

  00216	ff 75 ec	 push	 DWORD PTR _rc$[ebp+12]
  00219	ff 75 e8	 push	 DWORD PTR _rc$[ebp+8]
  0021c	ff 75 e4	 push	 DWORD PTR _rc$[ebp+4]
  0021f	ff 75 e0	 push	 DWORD PTR _rc$[ebp]
  00222	ff 15 00 00 00
	00		 call	 DWORD PTR __imp__CreateRectRgn@16
  00228	50		 push	 eax
  00229	8d 4d cc	 lea	 ecx, DWORD PTR _rgn$[ebp]
  0022c	e8 00 00 00 00	 call	 ?Attach@CGdiObject@@QAEHPAX@Z ; CGdiObject::Attach
; File C:\Program Files (x86)\Microsoft Visual Studio\2019\Community\VC\Tools\MSVC\14.29.30133\atlmfc\include\afxwin2.inl

; 78   : 	{ ASSERT(::IsWindow(m_hWnd)); return ::SetWindowRgn(m_hWnd, hRgn, bRedraw); }

  00231	6a 01		 push	 1
  00233	ff 75 d0	 push	 DWORD PTR _rgn$[ebp+4]
  00236	ff 76 20	 push	 DWORD PTR [esi+32]
  00239	ff 15 00 00 00
	00		 call	 DWORD PTR __imp__SetWindowRgn@12
; File D:\git\src\IBK\IBK_DRFN\ProjSrc\SrcDrfn\Chart\MULTICHART\PopupList.cpp

; 285  : 	rgn.DeleteObject();//KHD

  0023f	8d 4d cc	 lea	 ecx, DWORD PTR _rgn$[ebp]
  00242	e8 00 00 00 00	 call	 ?DeleteObject@CGdiObject@@QAEHXZ ; CGdiObject::DeleteObject
; File C:\Program Files (x86)\Microsoft Visual Studio\2019\Community\VC\Tools\MSVC\14.29.30133\atlmfc\include\afxwin1.inl

; 266  : 	{ }

  00247	8d 4d cc	 lea	 ecx, DWORD PTR _rgn$[ebp]
  0024a	c7 45 cc 00 00
	00 00		 mov	 DWORD PTR _rgn$[ebp], OFFSET ??_7CRgn@@6B@
  00251	e8 00 00 00 00	 call	 ??1CGdiObject@@UAE@XZ	; CGdiObject::~CGdiObject
; File D:\git\src\IBK\IBK_DRFN\ProjSrc\SrcDrfn\Chart\MULTICHART\PopupList.cpp

; 286  : }

  00256	8b 4d f4	 mov	 ecx, DWORD PTR __$EHRec$[ebp]
  00259	64 89 0d 00 00
	00 00		 mov	 DWORD PTR fs:0, ecx
  00260	59		 pop	 ecx
  00261	5f		 pop	 edi
  00262	5e		 pop	 esi
  00263	5b		 pop	 ebx
  00264	8b 4d f0	 mov	 ecx, DWORD PTR __$ArrayPad$[ebp]
  00267	33 cd		 xor	 ecx, ebp
  00269	e8 00 00 00 00	 call	 @__security_check_cookie@4
  0026e	8b e5		 mov	 esp, ebp
  00270	5d		 pop	 ebp
  00271	c3		 ret	 0
_TEXT	ENDS
;	COMDAT text$x
text$x	SEGMENT
__unwindfunclet$?AdjustListCtrl@CPopupList@@QAEXXZ$0:
  00000	8d 4d cc	 lea	 ecx, DWORD PTR _rgn$[ebp]
  00003	e9 00 00 00 00	 jmp	 ??1CRgn@@UAE@XZ		; CRgn::~CRgn
  00008	cc		 int	 3
  00009	cc		 int	 3
  0000a	cc		 int	 3
  0000b	cc		 int	 3
  0000c	cc		 int	 3
__ehhandler$?AdjustListCtrl@CPopupList@@QAEXXZ:
  0000d	90		 npad	 1
  0000e	90		 npad	 1
  0000f	8b 54 24 08	 mov	 edx, DWORD PTR [esp+8]
  00013	8d 42 0c	 lea	 eax, DWORD PTR [edx+12]
  00016	8b 4a c4	 mov	 ecx, DWORD PTR [edx-60]
  00019	33 c8		 xor	 ecx, eax
  0001b	e8 00 00 00 00	 call	 @__security_check_cookie@4
  00020	8b 4a fc	 mov	 ecx, DWORD PTR [edx-4]
  00023	33 c8		 xor	 ecx, eax
  00025	e8 00 00 00 00	 call	 @__security_check_cookie@4
  0002a	b8 00 00 00 00	 mov	 eax, OFFSET __ehfuncinfo$?AdjustListCtrl@CPopupList@@QAEXXZ
  0002f	e9 00 00 00 00	 jmp	 ___CxxFrameHandler3
text$x	ENDS
?AdjustListCtrl@CPopupList@@QAEXXZ ENDP			; CPopupList::AdjustListCtrl
; Function compile flags: /Ogtp
; File D:\git\src\IBK\IBK_DRFN\ProjSrc\SrcDrfn\Chart\MULTICHART\PopupList.cpp
; File C:\Program Files (x86)\Microsoft Visual Studio\2019\Community\VC\Tools\MSVC\14.29.30133\atlmfc\include\afxcmn.inl
; File D:\git\src\IBK\IBK_DRFN\ProjSrc\SrcDrfn\Chart\MULTICHART\PopupList.cpp
; File C:\Program Files (x86)\Microsoft Visual Studio\2019\Community\VC\Tools\MSVC\14.29.30133\atlmfc\include\afxcmn.inl
; File D:\git\src\IBK\IBK_DRFN\ProjSrc\SrcDrfn\Chart\MULTICHART\PopupList.cpp
; File C:\Program Files (x86)\Microsoft Visual Studio\2019\Community\VC\Tools\MSVC\14.29.30133\atlmfc\include\afxtempl.h
; File D:\git\src\IBK\IBK_DRFN\ProjSrc\SrcDrfn\Chart\MULTICHART\PopupList.cpp
; File C:\Program Files (x86)\Microsoft Visual Studio\2019\Community\VC\Tools\MSVC\14.29.30133\atlmfc\include\afxcmn.inl
; File D:\git\src\IBK\IBK_DRFN\ProjSrc\SrcDrfn\Chart\MULTICHART\PopupList.cpp
; File C:\Program Files (x86)\Microsoft Visual Studio\2019\Community\VC\Tools\MSVC\14.29.30133\atlmfc\include\afxcmn.inl
; File D:\git\src\IBK\IBK_DRFN\ProjSrc\SrcDrfn\Chart\MULTICHART\PopupList.cpp
;	COMDAT ?MakeInitHistoryIntoListCtrl@CPopupList@@QAEXXZ
_TEXT	SEGMENT
_lvitem$ = -88						; size = 60
_szKey$ = -28						; size = 4
_rValue$ = -24						; size = 4
_szValue$ = -20						; size = 4
_pHistory$1$ = -16					; size = 4
__$EHRec$ = -12						; size = 12
?MakeInitHistoryIntoListCtrl@CPopupList@@QAEXXZ PROC	; CPopupList::MakeInitHistoryIntoListCtrl, COMDAT
; _this$ = ecx

; 166  : {

  00000	55		 push	 ebp
  00001	8b ec		 mov	 ebp, esp
  00003	6a ff		 push	 -1
  00005	68 00 00 00 00	 push	 __ehhandler$?MakeInitHistoryIntoListCtrl@CPopupList@@QAEXXZ
  0000a	64 a1 00 00 00
	00		 mov	 eax, DWORD PTR fs:0
  00010	50		 push	 eax
  00011	83 ec 4c	 sub	 esp, 76			; 0000004cH
  00014	53		 push	 ebx
  00015	56		 push	 esi
  00016	57		 push	 edi
  00017	a1 00 00 00 00	 mov	 eax, DWORD PTR ___security_cookie
  0001c	33 c5		 xor	 eax, ebp
  0001e	50		 push	 eax
  0001f	8d 45 f4	 lea	 eax, DWORD PTR __$EHRec$[ebp]
  00022	64 a3 00 00 00
	00		 mov	 DWORD PTR fs:0, eax
  00028	8b f9		 mov	 edi, ecx

; 167  : 	CString szKey, rValue, szValue;

  0002a	8d 4d e4	 lea	 ecx, DWORD PTR _szKey$[ebp]
  0002d	ff 15 00 00 00
	00		 call	 DWORD PTR __imp_??0?$CStringT@DV?$StrTraitMFC_DLL@DV?$ChTraitsCRT@D@ATL@@@@@ATL@@QAE@XZ
  00033	8d 4d e8	 lea	 ecx, DWORD PTR _rValue$[ebp]
  00036	c7 45 fc 00 00
	00 00		 mov	 DWORD PTR __$EHRec$[ebp+8], 0
  0003d	ff 15 00 00 00
	00		 call	 DWORD PTR __imp_??0?$CStringT@DV?$StrTraitMFC_DLL@DV?$ChTraitsCRT@D@ATL@@@@@ATL@@QAE@XZ
  00043	8d 4d ec	 lea	 ecx, DWORD PTR _szValue$[ebp]
  00046	ff 15 00 00 00
	00		 call	 DWORD PTR __imp_??0?$CStringT@DV?$StrTraitMFC_DLL@DV?$ChTraitsCRT@D@ATL@@@@@ATL@@QAE@XZ
; File C:\Program Files (x86)\Microsoft Visual Studio\2019\Community\VC\Tools\MSVC\14.29.30133\atlmfc\include\afxcmn.inl

; 171  : 	{ ASSERT(::IsWindow(m_hWnd)); return (BOOL) ::SendMessage(m_hWnd, LVM_DELETEALLITEMS, 0, 0L); }

  0004c	6a 00		 push	 0
  0004e	6a 00		 push	 0
  00050	68 09 10 00 00	 push	 4105			; 00001009H
  00055	ff b7 f8 00 00
	00		 push	 DWORD PTR [edi+248]
; File D:\git\src\IBK\IBK_DRFN\ProjSrc\SrcDrfn\Chart\MULTICHART\PopupList.cpp

; 167  : 	CString szKey, rValue, szValue;

  0005b	c6 45 fc 02	 mov	 BYTE PTR __$EHRec$[ebp+8], 2

; 168  : 	LV_ITEM lvitem;	
; 169  : 	lvitem.mask = LVIF_TEXT;

  0005f	c7 45 a8 01 00
	00 00		 mov	 DWORD PTR _lvitem$[ebp], 1
; File C:\Program Files (x86)\Microsoft Visual Studio\2019\Community\VC\Tools\MSVC\14.29.30133\atlmfc\include\afxcmn.inl

; 171  : 	{ ASSERT(::IsWindow(m_hWnd)); return (BOOL) ::SendMessage(m_hWnd, LVM_DELETEALLITEMS, 0, 0L); }

  00066	ff 15 00 00 00
	00		 call	 DWORD PTR __imp__SendMessageA@16
; File D:\git\src\IBK\IBK_DRFN\ProjSrc\SrcDrfn\Chart\MULTICHART\PopupList.cpp

; 178  : 	for(POSITION pos=m_lstItemInfo->GetTailPosition(); pos; i++)

  0006c	8b 87 d0 00 00
	00		 mov	 eax, DWORD PTR [edi+208]
  00072	33 f6		 xor	 esi, esi
  00074	8b 58 08	 mov	 ebx, DWORD PTR [eax+8]
  00077	85 db		 test	 ebx, ebx
  00079	0f 84 a4 00 00
	00		 je	 $LN3@MakeInitHi
  0007f	90		 npad	 1
$LL4@MakeInitHi:

; 180  : 		pHistory = (CHistory*)m_lstItemInfo->GetPrev(pos);

  00080	8b 43 08	 mov	 eax, DWORD PTR [ebx+8]
; File C:\Program Files (x86)\Microsoft Visual Studio\2019\Community\VC\Tools\MSVC\14.29.30133\atlmfc\include\afxtempl.h

; 825  : 		rPosition = (POSITION) pNode->pPrev;

  00083	8b 5b 04	 mov	 ebx, DWORD PTR [ebx+4]
; File D:\git\src\IBK\IBK_DRFN\ProjSrc\SrcDrfn\Chart\MULTICHART\PopupList.cpp

; 180  : 		pHistory = (CHistory*)m_lstItemInfo->GetPrev(pos);

  00086	89 45 f0	 mov	 DWORD PTR _pHistory$1$[ebp], eax

; 181  : 		
; 182  : 		lvitem.iItem = i;

  00089	89 75 ac	 mov	 DWORD PTR _lvitem$[ebp+4], esi

; 183  : 		lvitem.iSubItem = 0;		

  0008c	c7 45 b0 00 00
	00 00		 mov	 DWORD PTR _lvitem$[ebp+8], 0

; 184  : 		lvitem.pszText = (LPTSTR)(LPCTSTR)pHistory->_Code;

  00093	8b 40 04	 mov	 eax, DWORD PTR [eax+4]
  00096	89 45 bc	 mov	 DWORD PTR _lvitem$[ebp+20], eax
; File C:\Program Files (x86)\Microsoft Visual Studio\2019\Community\VC\Tools\MSVC\14.29.30133\atlmfc\include\afxcmn.inl

; 163  : 	{ ASSERT(::IsWindow(m_hWnd)); return (int) ::SendMessage(m_hWnd, LVM_INSERTITEM, 0, (LPARAM)pItem); }

  00099	8d 45 a8	 lea	 eax, DWORD PTR _lvitem$[ebp]
  0009c	50		 push	 eax
  0009d	6a 00		 push	 0
  0009f	68 07 10 00 00	 push	 4103			; 00001007H
  000a4	ff b7 f8 00 00
	00		 push	 DWORD PTR [edi+248]
  000aa	ff 15 00 00 00
	00		 call	 DWORD PTR __imp__SendMessageA@16

; 215  : 	{ ASSERT(::IsWindow(m_hWnd)); return (BOOL) ::SendMessage(m_hWnd, LVM_SETCOLUMNWIDTH, nCol, MAKELPARAM(cx, 0)); }

  000b0	68 fe ff 00 00	 push	 65534			; 0000fffeH
  000b5	6a 00		 push	 0
  000b7	68 1e 10 00 00	 push	 4126			; 0000101eH
  000bc	ff b7 f8 00 00
	00		 push	 DWORD PTR [edi+248]
  000c2	ff 15 00 00 00
	00		 call	 DWORD PTR __imp__SendMessageA@16
; File D:\git\src\IBK\IBK_DRFN\ProjSrc\SrcDrfn\Chart\MULTICHART\PopupList.cpp

; 189  : 		if(m_lstType != 2)

  000c8	83 bf cc 00 00
	00 02		 cmp	 DWORD PTR [edi+204], 2
  000cf	74 49		 je	 SHORT $LN2@MakeInitHi

; 190  : 		{		
; 191  : 			lvitem.mask = LVIF_TEXT;
; 192  : 			lvitem.iItem = i;
; 193  : 			lvitem.iSubItem = 1;
; 194  : 			lvitem.pszText = (LPTSTR)(LPCTSTR)pHistory->_Name;

  000d1	8b 45 f0	 mov	 eax, DWORD PTR _pHistory$1$[ebp]
  000d4	c7 45 a8 01 00
	00 00		 mov	 DWORD PTR _lvitem$[ebp], 1
  000db	89 75 ac	 mov	 DWORD PTR _lvitem$[ebp+4], esi
  000de	c7 45 b0 01 00
	00 00		 mov	 DWORD PTR _lvitem$[ebp+8], 1
  000e5	8b 40 08	 mov	 eax, DWORD PTR [eax+8]
  000e8	89 45 bc	 mov	 DWORD PTR _lvitem$[ebp+20], eax
; File C:\Program Files (x86)\Microsoft Visual Studio\2019\Community\VC\Tools\MSVC\14.29.30133\atlmfc\include\afxcmn.inl

; 159  : 	{ ASSERT(::IsWindow(m_hWnd)); return (BOOL) ::SendMessage(m_hWnd, LVM_SETITEM, 0, (LPARAM)pItem); }

  000eb	8d 45 a8	 lea	 eax, DWORD PTR _lvitem$[ebp]
  000ee	50		 push	 eax
  000ef	6a 00		 push	 0
  000f1	68 06 10 00 00	 push	 4102			; 00001006H
  000f6	ff b7 f8 00 00
	00		 push	 DWORD PTR [edi+248]
  000fc	ff 15 00 00 00
	00		 call	 DWORD PTR __imp__SendMessageA@16

; 215  : 	{ ASSERT(::IsWindow(m_hWnd)); return (BOOL) ::SendMessage(m_hWnd, LVM_SETCOLUMNWIDTH, nCol, MAKELPARAM(cx, 0)); }

  00102	68 fe ff 00 00	 push	 65534			; 0000fffeH
  00107	6a 01		 push	 1
  00109	68 1e 10 00 00	 push	 4126			; 0000101eH
  0010e	ff b7 f8 00 00
	00		 push	 DWORD PTR [edi+248]
  00114	ff 15 00 00 00
	00		 call	 DWORD PTR __imp__SendMessageA@16
$LN2@MakeInitHi:
; File D:\git\src\IBK\IBK_DRFN\ProjSrc\SrcDrfn\Chart\MULTICHART\PopupList.cpp

; 178  : 	for(POSITION pos=m_lstItemInfo->GetTailPosition(); pos; i++)

  0011a	46		 inc	 esi
  0011b	85 db		 test	 ebx, ebx
  0011d	0f 85 5d ff ff
	ff		 jne	 $LL4@MakeInitHi
$LN3@MakeInitHi:

; 195  : 			m_lstPopup.SetItem(&lvitem);	
; 196  : 			m_lstPopup.SetColumnWidth(1, LVSCW_AUTOSIZE_USEHEADER);
; 197  : 		}
; 198  : 		//		m_lstPopup.SetColumnWidth(1, pHistory->_Code.GetLength() * lfWidth);
; 199  : 	}
; 200  : 	AdjustListCtrl();

  00123	8b cf		 mov	 ecx, edi
  00125	e8 00 00 00 00	 call	 ?AdjustListCtrl@CPopupList@@QAEXXZ ; CPopupList::AdjustListCtrl

; 201  : }

  0012a	8d 4d ec	 lea	 ecx, DWORD PTR _szValue$[ebp]
  0012d	ff 15 00 00 00
	00		 call	 DWORD PTR __imp_??1?$CStringT@DV?$StrTraitMFC_DLL@DV?$ChTraitsCRT@D@ATL@@@@@ATL@@QAE@XZ
  00133	8d 4d e8	 lea	 ecx, DWORD PTR _rValue$[ebp]
  00136	ff 15 00 00 00
	00		 call	 DWORD PTR __imp_??1?$CStringT@DV?$StrTraitMFC_DLL@DV?$ChTraitsCRT@D@ATL@@@@@ATL@@QAE@XZ
  0013c	8d 4d e4	 lea	 ecx, DWORD PTR _szKey$[ebp]
  0013f	ff 15 00 00 00
	00		 call	 DWORD PTR __imp_??1?$CStringT@DV?$StrTraitMFC_DLL@DV?$ChTraitsCRT@D@ATL@@@@@ATL@@QAE@XZ
  00145	8b 4d f4	 mov	 ecx, DWORD PTR __$EHRec$[ebp]
  00148	64 89 0d 00 00
	00 00		 mov	 DWORD PTR fs:0, ecx
  0014f	59		 pop	 ecx
  00150	5f		 pop	 edi
  00151	5e		 pop	 esi
  00152	5b		 pop	 ebx
  00153	8b e5		 mov	 esp, ebp
  00155	5d		 pop	 ebp
  00156	c3		 ret	 0
_TEXT	ENDS
;	COMDAT text$x
text$x	SEGMENT
__unwindfunclet$?MakeInitHistoryIntoListCtrl@CPopupList@@QAEXXZ$0:
  00000	8d 4d e4	 lea	 ecx, DWORD PTR _szKey$[ebp]
  00003	ff 25 00 00 00
	00		 jmp	 DWORD PTR __imp_??1?$CStringT@DV?$StrTraitMFC_DLL@DV?$ChTraitsCRT@D@ATL@@@@@ATL@@QAE@XZ
__unwindfunclet$?MakeInitHistoryIntoListCtrl@CPopupList@@QAEXXZ$1:
  00009	8d 4d e8	 lea	 ecx, DWORD PTR _rValue$[ebp]
  0000c	ff 25 00 00 00
	00		 jmp	 DWORD PTR __imp_??1?$CStringT@DV?$StrTraitMFC_DLL@DV?$ChTraitsCRT@D@ATL@@@@@ATL@@QAE@XZ
__unwindfunclet$?MakeInitHistoryIntoListCtrl@CPopupList@@QAEXXZ$2:
  00012	8d 4d ec	 lea	 ecx, DWORD PTR _szValue$[ebp]
  00015	ff 25 00 00 00
	00		 jmp	 DWORD PTR __imp_??1?$CStringT@DV?$StrTraitMFC_DLL@DV?$ChTraitsCRT@D@ATL@@@@@ATL@@QAE@XZ
  0001b	cc		 int	 3
  0001c	cc		 int	 3
  0001d	cc		 int	 3
  0001e	cc		 int	 3
  0001f	cc		 int	 3
__ehhandler$?MakeInitHistoryIntoListCtrl@CPopupList@@QAEXXZ:
  00020	90		 npad	 1
  00021	90		 npad	 1
  00022	8b 54 24 08	 mov	 edx, DWORD PTR [esp+8]
  00026	8d 42 0c	 lea	 eax, DWORD PTR [edx+12]
  00029	8b 4a a4	 mov	 ecx, DWORD PTR [edx-92]
  0002c	33 c8		 xor	 ecx, eax
  0002e	e8 00 00 00 00	 call	 @__security_check_cookie@4
  00033	b8 00 00 00 00	 mov	 eax, OFFSET __ehfuncinfo$?MakeInitHistoryIntoListCtrl@CPopupList@@QAEXXZ
  00038	e9 00 00 00 00	 jmp	 ___CxxFrameHandler3
text$x	ENDS
?MakeInitHistoryIntoListCtrl@CPopupList@@QAEXXZ ENDP	; CPopupList::MakeInitHistoryIntoListCtrl
; Function compile flags: /Ogtp
; File D:\git\src\IBK\IBK_DRFN\ProjSrc\SrcDrfn\Chart\MULTICHART\PopupList.cpp
; File C:\Program Files (x86)\Microsoft Visual Studio\2019\Community\VC\Tools\MSVC\14.29.30133\atlmfc\include\afxwin2.inl
; File C:\Program Files (x86)\Microsoft Visual Studio\2019\Community\VC\Tools\MSVC\14.29.30133\atlmfc\include\atltypes.h
; File C:\Program Files (x86)\Microsoft Visual Studio\2019\Community\VC\Tools\MSVC\14.29.30133\atlmfc\include\afxwin2.inl
; File D:\git\src\IBK\IBK_DRFN\ProjSrc\SrcDrfn\Chart\MULTICHART\PopupList.cpp
; File C:\Program Files (x86)\Microsoft Visual Studio\2019\Community\VC\Tools\MSVC\14.29.30133\atlmfc\include\atltypes.h
; File D:\git\src\IBK\IBK_DRFN\ProjSrc\SrcDrfn\Chart\MULTICHART\PopupList.cpp
; File C:\Program Files (x86)\Microsoft Visual Studio\2019\Community\VC\Tools\MSVC\14.29.30133\atlmfc\include\afxcmn.inl
; File C:\Program Files (x86)\Microsoft Visual Studio\2019\Community\VC\Tools\MSVC\14.29.30133\atlmfc\include\atltypes.h
; File D:\git\src\IBK\IBK_DRFN\ProjSrc\SrcDrfn\Chart\MULTICHART\PopupList.cpp
; File C:\Program Files (x86)\Microsoft Visual Studio\2019\Community\VC\Tools\MSVC\14.29.30133\atlmfc\include\afxcmn.inl
; File D:\git\src\IBK\IBK_DRFN\ProjSrc\SrcDrfn\Chart\MULTICHART\PopupList.cpp
; File C:\Program Files (x86)\Microsoft Visual Studio\2019\Community\VC\Tools\MSVC\14.29.30133\atlmfc\include\afxcmn.inl
; File D:\git\src\IBK\IBK_DRFN\ProjSrc\SrcDrfn\Chart\MULTICHART\PopupList.cpp
; File C:\Program Files (x86)\Microsoft Visual Studio\2019\Community\VC\Tools\MSVC\14.29.30133\atlmfc\include\afxcmn.inl
; File D:\git\src\IBK\IBK_DRFN\ProjSrc\SrcDrfn\Chart\MULTICHART\PopupList.cpp
; File C:\Program Files (x86)\Microsoft Visual Studio\2019\Community\VC\Tools\MSVC\14.29.30133\atlmfc\include\atltypes.h
; File D:\git\src\IBK\IBK_DRFN\ProjSrc\SrcDrfn\Chart\MULTICHART\PopupList.cpp
; File C:\Program Files (x86)\Microsoft Visual Studio\2019\Community\VC\Tools\MSVC\14.29.30133\atlmfc\include\afxcmn.inl
; File D:\git\src\IBK\IBK_DRFN\ProjSrc\SrcDrfn\Chart\MULTICHART\PopupList.cpp
; File C:\Program Files (x86)\Microsoft Visual Studio\2019\Community\VC\Tools\MSVC\14.29.30133\atlmfc\include\afxcmn.inl
; File D:\git\src\IBK\IBK_DRFN\ProjSrc\SrcDrfn\Chart\MULTICHART\PopupList.cpp
; File C:\Program Files (x86)\Microsoft Visual Studio\2019\Community\VC\Tools\MSVC\14.29.30133\atlmfc\include\afxcmn.inl
; File D:\git\src\IBK\IBK_DRFN\ProjSrc\SrcDrfn\Chart\MULTICHART\PopupList.cpp
;	COMDAT ?MakeListCtrlColumn@CPopupList@@QAEXXZ
_TEXT	SEGMENT
_lvcolumn$ = -64					; size = 44
_rc$ = -20						; size = 16
__$ArrayPad$ = -4					; size = 4
?MakeListCtrlColumn@CPopupList@@QAEXXZ PROC		; CPopupList::MakeListCtrlColumn, COMDAT
; _this$ = ecx

; 99   : {

  00000	55		 push	 ebp
  00001	8b ec		 mov	 ebp, esp
  00003	83 ec 40	 sub	 esp, 64			; 00000040H
  00006	a1 00 00 00 00	 mov	 eax, DWORD PTR ___security_cookie
  0000b	33 c5		 xor	 eax, ebp
  0000d	89 45 fc	 mov	 DWORD PTR __$ArrayPad$[ebp], eax
  00010	56		 push	 esi
  00011	57		 push	 edi
  00012	8b f1		 mov	 esi, ecx
; File C:\Program Files (x86)\Microsoft Visual Studio\2019\Community\VC\Tools\MSVC\14.29.30133\atlmfc\include\afxwin2.inl

; 86   : 	{ ASSERT(::IsWindow(m_hWnd)); ::GetClientRect(m_hWnd, lpRect); }

  00014	8d 45 ec	 lea	 eax, DWORD PTR _rc$[ebp]
  00017	50		 push	 eax
  00018	0f 57 c0	 xorps	 xmm0, xmm0
; File C:\Program Files (x86)\Microsoft Visual Studio\2019\Community\VC\Tools\MSVC\14.29.30133\atlmfc\include\atltypes.h

; 528  : 	left = 0;

  0001b	0f 11 45 ec	 movups	 XMMWORD PTR _rc$[ebp], xmm0
; File C:\Program Files (x86)\Microsoft Visual Studio\2019\Community\VC\Tools\MSVC\14.29.30133\atlmfc\include\afxwin2.inl

; 86   : 	{ ASSERT(::IsWindow(m_hWnd)); ::GetClientRect(m_hWnd, lpRect); }

  0001f	ff 76 20	 push	 DWORD PTR [esi+32]
  00022	ff 15 00 00 00
	00		 call	 DWORD PTR __imp__GetClientRect@8
; File D:\git\src\IBK\IBK_DRFN\ProjSrc\SrcDrfn\Chart\MULTICHART\PopupList.cpp

; 107  : 	if(m_lstType == 0)

  00028	8b 86 cc 00 00
	00		 mov	 eax, DWORD PTR [esi+204]
  0002e	8b 3d 00 00 00
	00		 mov	 edi, DWORD PTR __imp__SendMessageA@16
  00034	c7 45 c0 0f 00
	00 00		 mov	 DWORD PTR _lvcolumn$[ebp], 15 ; 0000000fH
  0003b	c7 45 c4 00 00
	00 00		 mov	 DWORD PTR _lvcolumn$[ebp+4], 0
  00042	85 c0		 test	 eax, eax
  00044	0f 85 aa 00 00
	00		 jne	 $LN2@MakeListCt
; File C:\Program Files (x86)\Microsoft Visual Studio\2019\Community\VC\Tools\MSVC\14.29.30133\atlmfc\include\atltypes.h

; 576  : 	return right - left;

  0004a	8b 45 f4	 mov	 eax, DWORD PTR _rc$[ebp+8]
  0004d	2b 45 ec	 sub	 eax, DWORD PTR _rc$[ebp]
; File D:\git\src\IBK\IBK_DRFN\ProjSrc\SrcDrfn\Chart\MULTICHART\PopupList.cpp

; 109  : 		lvcolumn.pszText = _T("   ");

  00050	c7 45 cc 00 00
	00 00		 mov	 DWORD PTR _lvcolumn$[ebp+12], OFFSET ??_C@_07DJJMGBFE@?5?D?Z?5?$LF?e?5@

; 110  : 		lvcolumn.iSubItem = 0;	

  00057	c7 45 d4 00 00
	00 00		 mov	 DWORD PTR _lvcolumn$[ebp+20], 0
  0005e	66 0f 6e c0	 movd	 xmm0, eax

; 111  : 		lvcolumn.cx = int(rc.Width() * 0.3) ;

  00062	f3 0f e6 c0	 cvtdq2pd xmm0, xmm0
  00066	f2 0f 59 05 00
	00 00 00	 mulsd	 xmm0, QWORD PTR __real@3fd3333333333333
  0006e	f2 0f 2c c0	 cvttsd2si eax, xmm0
  00072	89 45 c8	 mov	 DWORD PTR _lvcolumn$[ebp+8], eax
; File C:\Program Files (x86)\Microsoft Visual Studio\2019\Community\VC\Tools\MSVC\14.29.30133\atlmfc\include\afxcmn.inl

; 209  : 	{ ASSERT(::IsWindow(m_hWnd)); return (int) ::SendMessage(m_hWnd, LVM_INSERTCOLUMN, nCol, (LPARAM)pColumn); }

  00075	8d 45 c0	 lea	 eax, DWORD PTR _lvcolumn$[ebp]
  00078	50		 push	 eax
  00079	6a 00		 push	 0
  0007b	68 1b 10 00 00	 push	 4123			; 0000101bH
  00080	ff b6 f8 00 00
	00		 push	 DWORD PTR [esi+248]
  00086	ff d7		 call	 edi
; File C:\Program Files (x86)\Microsoft Visual Studio\2019\Community\VC\Tools\MSVC\14.29.30133\atlmfc\include\atltypes.h

; 576  : 	return right - left;

  00088	8b 45 f4	 mov	 eax, DWORD PTR _rc$[ebp+8]
  0008b	2b 45 ec	 sub	 eax, DWORD PTR _rc$[ebp]
; File D:\git\src\IBK\IBK_DRFN\ProjSrc\SrcDrfn\Chart\MULTICHART\PopupList.cpp

; 114  : 		lvcolumn.pszText = _T("  ");

  0008e	c7 45 cc 00 00
	00 00		 mov	 DWORD PTR _lvcolumn$[ebp+12], OFFSET ??_C@_08DCPEPDHH@?5?A?$LO?$LI?q?$LI?m?5@

; 115  : 		lvcolumn.iSubItem = 1;

  00095	c7 45 d4 01 00
	00 00		 mov	 DWORD PTR _lvcolumn$[ebp+20], 1
  0009c	66 0f 6e c0	 movd	 xmm0, eax

; 116  : 		lvcolumn.cx = int(rc.Width() * 0.55);

  000a0	f3 0f e6 c0	 cvtdq2pd xmm0, xmm0
  000a4	f2 0f 59 05 00
	00 00 00	 mulsd	 xmm0, QWORD PTR __real@3fe199999999999a
  000ac	f2 0f 2c c0	 cvttsd2si eax, xmm0
  000b0	89 45 c8	 mov	 DWORD PTR _lvcolumn$[ebp+8], eax
; File C:\Program Files (x86)\Microsoft Visual Studio\2019\Community\VC\Tools\MSVC\14.29.30133\atlmfc\include\afxcmn.inl

; 209  : 	{ ASSERT(::IsWindow(m_hWnd)); return (int) ::SendMessage(m_hWnd, LVM_INSERTCOLUMN, nCol, (LPARAM)pColumn); }

  000b3	8d 45 c0	 lea	 eax, DWORD PTR _lvcolumn$[ebp]
  000b6	50		 push	 eax
  000b7	6a 01		 push	 1
  000b9	68 1b 10 00 00	 push	 4123			; 0000101bH
  000be	ff b6 f8 00 00
	00		 push	 DWORD PTR [esi+248]
  000c4	ff d7		 call	 edi
  000c6	8d 45 c0	 lea	 eax, DWORD PTR _lvcolumn$[ebp]
; File D:\git\src\IBK\IBK_DRFN\ProjSrc\SrcDrfn\Chart\MULTICHART\PopupList.cpp

; 119  : 		lvcolumn.pszText = _T("");

  000c9	c7 45 cc 00 00
	00 00		 mov	 DWORD PTR _lvcolumn$[ebp+12], OFFSET ??_C@_00CNPNBAHC@@
; File C:\Program Files (x86)\Microsoft Visual Studio\2019\Community\VC\Tools\MSVC\14.29.30133\atlmfc\include\afxcmn.inl

; 209  : 	{ ASSERT(::IsWindow(m_hWnd)); return (int) ::SendMessage(m_hWnd, LVM_INSERTCOLUMN, nCol, (LPARAM)pColumn); }

  000d0	50		 push	 eax
  000d1	6a 02		 push	 2
  000d3	68 1b 10 00 00	 push	 4123			; 0000101bH
  000d8	ff b6 f8 00 00
	00		 push	 DWORD PTR [esi+248]
; File D:\git\src\IBK\IBK_DRFN\ProjSrc\SrcDrfn\Chart\MULTICHART\PopupList.cpp

; 120  : 		lvcolumn.iSubItem = 2;

  000de	c7 45 d4 02 00
	00 00		 mov	 DWORD PTR _lvcolumn$[ebp+20], 2

; 121  : 		lvcolumn.cx = 3;

  000e5	c7 45 c8 03 00
	00 00		 mov	 DWORD PTR _lvcolumn$[ebp+8], 3
; File C:\Program Files (x86)\Microsoft Visual Studio\2019\Community\VC\Tools\MSVC\14.29.30133\atlmfc\include\afxcmn.inl

; 209  : 	{ ASSERT(::IsWindow(m_hWnd)); return (int) ::SendMessage(m_hWnd, LVM_INSERTCOLUMN, nCol, (LPARAM)pColumn); }

  000ec	ff d7		 call	 edi
  000ee	8b 86 cc 00 00
	00		 mov	 eax, DWORD PTR [esi+204]
$LN2@MakeListCt:
; File D:\git\src\IBK\IBK_DRFN\ProjSrc\SrcDrfn\Chart\MULTICHART\PopupList.cpp

; 146  : 	if(m_lstType == 2)

  000f4	83 f8 02	 cmp	 eax, 2
  000f7	75 66		 jne	 SHORT $LN3@MakeListCt
; File C:\Program Files (x86)\Microsoft Visual Studio\2019\Community\VC\Tools\MSVC\14.29.30133\atlmfc\include\atltypes.h

; 576  : 	return right - left;

  000f9	8b 45 f4	 mov	 eax, DWORD PTR _rc$[ebp+8]
  000fc	2b 45 ec	 sub	 eax, DWORD PTR _rc$[ebp]
; File D:\git\src\IBK\IBK_DRFN\ProjSrc\SrcDrfn\Chart\MULTICHART\PopupList.cpp

; 148  : 		lvcolumn.pszText = _T("   ");

  000ff	c7 45 cc 00 00
	00 00		 mov	 DWORD PTR _lvcolumn$[ebp+12], OFFSET ??_C@_07NDNHJKEP@?5?$LM?$LB?5?E?C?5@

; 149  : 		lvcolumn.iSubItem = 0;	

  00106	c7 45 d4 00 00
	00 00		 mov	 DWORD PTR _lvcolumn$[ebp+20], 0
  0010d	66 0f 6e c0	 movd	 xmm0, eax

; 150  : 		lvcolumn.cx = int(rc.Width() * 0.75) ;

  00111	f3 0f e6 c0	 cvtdq2pd xmm0, xmm0
  00115	f2 0f 59 05 00
	00 00 00	 mulsd	 xmm0, QWORD PTR __real@3fe8000000000000
  0011d	f2 0f 2c c0	 cvttsd2si eax, xmm0
  00121	89 45 c8	 mov	 DWORD PTR _lvcolumn$[ebp+8], eax
; File C:\Program Files (x86)\Microsoft Visual Studio\2019\Community\VC\Tools\MSVC\14.29.30133\atlmfc\include\afxcmn.inl

; 209  : 	{ ASSERT(::IsWindow(m_hWnd)); return (int) ::SendMessage(m_hWnd, LVM_INSERTCOLUMN, nCol, (LPARAM)pColumn); }

  00124	8d 45 c0	 lea	 eax, DWORD PTR _lvcolumn$[ebp]
  00127	50		 push	 eax
  00128	6a 00		 push	 0
  0012a	68 1b 10 00 00	 push	 4123			; 0000101bH
  0012f	ff b6 f8 00 00
	00		 push	 DWORD PTR [esi+248]
  00135	ff d7		 call	 edi
  00137	8d 45 c0	 lea	 eax, DWORD PTR _lvcolumn$[ebp]
; File D:\git\src\IBK\IBK_DRFN\ProjSrc\SrcDrfn\Chart\MULTICHART\PopupList.cpp

; 153  : 		lvcolumn.pszText = _T("");

  0013a	c7 45 cc 00 00
	00 00		 mov	 DWORD PTR _lvcolumn$[ebp+12], OFFSET ??_C@_00CNPNBAHC@@
; File C:\Program Files (x86)\Microsoft Visual Studio\2019\Community\VC\Tools\MSVC\14.29.30133\atlmfc\include\afxcmn.inl

; 209  : 	{ ASSERT(::IsWindow(m_hWnd)); return (int) ::SendMessage(m_hWnd, LVM_INSERTCOLUMN, nCol, (LPARAM)pColumn); }

  00141	50		 push	 eax
  00142	6a 01		 push	 1
  00144	68 1b 10 00 00	 push	 4123			; 0000101bH
  00149	ff b6 f8 00 00
	00		 push	 DWORD PTR [esi+248]
; File D:\git\src\IBK\IBK_DRFN\ProjSrc\SrcDrfn\Chart\MULTICHART\PopupList.cpp

; 154  : 		lvcolumn.iSubItem = 1;

  0014f	c7 45 d4 01 00
	00 00		 mov	 DWORD PTR _lvcolumn$[ebp+20], 1

; 155  : 		lvcolumn.cx = 3;

  00156	c7 45 c8 03 00
	00 00		 mov	 DWORD PTR _lvcolumn$[ebp+8], 3
; File C:\Program Files (x86)\Microsoft Visual Studio\2019\Community\VC\Tools\MSVC\14.29.30133\atlmfc\include\afxcmn.inl

; 209  : 	{ ASSERT(::IsWindow(m_hWnd)); return (int) ::SendMessage(m_hWnd, LVM_INSERTCOLUMN, nCol, (LPARAM)pColumn); }

  0015d	ff d7		 call	 edi
$LN3@MakeListCt:
; File D:\git\src\IBK\IBK_DRFN\ProjSrc\SrcDrfn\Chart\MULTICHART\PopupList.cpp

; 163  : }

  0015f	8b 4d fc	 mov	 ecx, DWORD PTR __$ArrayPad$[ebp]
  00162	5f		 pop	 edi
  00163	33 cd		 xor	 ecx, ebp
  00165	5e		 pop	 esi
  00166	e8 00 00 00 00	 call	 @__security_check_cookie@4
  0016b	8b e5		 mov	 esp, ebp
  0016d	5d		 pop	 ebp
  0016e	c3		 ret	 0
?MakeListCtrlColumn@CPopupList@@QAEXXZ ENDP		; CPopupList::MakeListCtrlColumn
_TEXT	ENDS
; Function compile flags: /Ogtp
; File D:\git\src\IBK\IBK_DRFN\ProjSrc\SrcDrfn\Chart\MULTICHART\PopupList.cpp
; File C:\Program Files (x86)\Microsoft Visual Studio\2019\Community\VC\Tools\MSVC\14.29.30133\atlmfc\include\afxcmn.inl
; File D:\git\src\IBK\IBK_DRFN\ProjSrc\SrcDrfn\Chart\MULTICHART\PopupList.cpp
; File C:\Program Files (x86)\Microsoft Visual Studio\2019\Community\VC\Tools\MSVC\14.29.30133\atlmfc\include\afxcmn.inl
; File D:\git\src\IBK\IBK_DRFN\ProjSrc\SrcDrfn\Chart\MULTICHART\PopupList.cpp
; File C:\Program Files (x86)\Microsoft Visual Studio\2019\Community\VC\Tools\MSVC\14.29.30133\atlmfc\include\afxcmn.inl
; File D:\git\src\IBK\IBK_DRFN\ProjSrc\SrcDrfn\Chart\MULTICHART\PopupList.cpp
;	COMDAT ??0CPopupList@@QAE@PAV?$CList@PAVCHistory@@PAV1@@@HPAVCWnd@@@Z
_TEXT	SEGMENT
_this$ = -16						; size = 4
__$EHRec$ = -12						; size = 12
_HistoryInfo$ = 8					; size = 4
_type$ = 12						; size = 4
_this$ = 16						; size = 4
_pParent$ = 16						; size = 4
??0CPopupList@@QAE@PAV?$CList@PAVCHistory@@PAV1@@@HPAVCWnd@@@Z PROC ; CPopupList::CPopupList, COMDAT
; _this$ = ecx

; 17   : {

  00000	55		 push	 ebp
  00001	8b ec		 mov	 ebp, esp
  00003	6a ff		 push	 -1
  00005	68 00 00 00 00	 push	 __ehhandler$??0CPopupList@@QAE@PAV?$CList@PAVCHistory@@PAV1@@@HPAVCWnd@@@Z
  0000a	64 a1 00 00 00
	00		 mov	 eax, DWORD PTR fs:0
  00010	50		 push	 eax
  00011	51		 push	 ecx
  00012	53		 push	 ebx
  00013	56		 push	 esi
  00014	57		 push	 edi
  00015	a1 00 00 00 00	 mov	 eax, DWORD PTR ___security_cookie
  0001a	33 c5		 xor	 eax, ebp
  0001c	50		 push	 eax
  0001d	8d 45 f4	 lea	 eax, DWORD PTR __$EHRec$[ebp]
  00020	64 a3 00 00 00
	00		 mov	 DWORD PTR fs:0, eax
  00026	8b d9		 mov	 ebx, ecx
  00028	89 5d f0	 mov	 DWORD PTR _this$[ebp], ebx

; 16   : 	: CRscDlg(CPopupList::IDD, pParent)

  0002b	8b 7d 10	 mov	 edi, DWORD PTR _pParent$[ebp]
  0002e	57		 push	 edi
  0002f	68 e5 2e 00 00	 push	 12005			; 00002ee5H
  00034	e8 00 00 00 00	 call	 ??0CRscDlg@@QAE@IPAVCWnd@@@Z ; CRscDlg::CRscDlg

; 17   : {

  00039	8d b3 d8 00 00
	00		 lea	 esi, DWORD PTR [ebx+216]
  0003f	c7 45 fc 00 00
	00 00		 mov	 DWORD PTR __$EHRec$[ebp+8], 0
; File C:\Program Files (x86)\Microsoft Visual Studio\2019\Community\VC\Tools\MSVC\14.29.30133\atlmfc\include\afxcmn.inl

; 141  : 	{ }

  00046	8b ce		 mov	 ecx, esi
; File D:\git\src\IBK\IBK_DRFN\ProjSrc\SrcDrfn\Chart\MULTICHART\PopupList.cpp

; 17   : {

  00048	c7 03 00 00 00
	00		 mov	 DWORD PTR [ebx], OFFSET ??_7CPopupList@@6B@
  0004e	89 75 10	 mov	 DWORD PTR _this$[ebp], esi
; File C:\Program Files (x86)\Microsoft Visual Studio\2019\Community\VC\Tools\MSVC\14.29.30133\atlmfc\include\afxcmn.inl

; 141  : 	{ }

  00051	e8 00 00 00 00	 call	 ??0CWnd@@QAE@XZ		; CWnd::CWnd
; File D:\git\src\IBK\IBK_DRFN\ProjSrc\SrcDrfn\Chart\MULTICHART\PopupList.cpp

; 22   : 	m_lstItemInfo = HistoryInfo;

  00056	8b 45 08	 mov	 eax, DWORD PTR _HistoryInfo$[ebp]
; File C:\Program Files (x86)\Microsoft Visual Studio\2019\Community\VC\Tools\MSVC\14.29.30133\atlmfc\include\afxcmn.inl

; 141  : 	{ }

  00059	c7 06 00 00 00
	00		 mov	 DWORD PTR [esi], OFFSET ??_7CListCtrl@@6B@
; File D:\git\src\IBK\IBK_DRFN\ProjSrc\SrcDrfn\Chart\MULTICHART\PopupList.cpp

; 22   : 	m_lstItemInfo = HistoryInfo;

  0005f	89 83 d0 00 00
	00		 mov	 DWORD PTR [ebx+208], eax

; 23   : 	m_lstType = type;

  00065	8b 45 0c	 mov	 eax, DWORD PTR _type$[ebp]
  00068	89 83 cc 00 00
	00		 mov	 DWORD PTR [ebx+204], eax

; 24   : }

  0006e	8b c3		 mov	 eax, ebx
  00070	89 bb c8 00 00
	00		 mov	 DWORD PTR [ebx+200], edi
  00076	8b 4d f4	 mov	 ecx, DWORD PTR __$EHRec$[ebp]
  00079	64 89 0d 00 00
	00 00		 mov	 DWORD PTR fs:0, ecx
  00080	59		 pop	 ecx
  00081	5f		 pop	 edi
  00082	5e		 pop	 esi
  00083	5b		 pop	 ebx
  00084	8b e5		 mov	 esp, ebp
  00086	5d		 pop	 ebp
  00087	c2 0c 00	 ret	 12			; 0000000cH
_TEXT	ENDS
;	COMDAT text$x
text$x	SEGMENT
__unwindfunclet$??0CPopupList@@QAE@PAV?$CList@PAVCHistory@@PAV1@@@HPAVCWnd@@@Z$0:
  00000	8b 4d f0	 mov	 ecx, DWORD PTR _this$[ebp]
  00003	e9 00 00 00 00	 jmp	 ??1CRscDlg@@UAE@XZ
  00008	cc		 int	 3
  00009	cc		 int	 3
  0000a	cc		 int	 3
  0000b	cc		 int	 3
  0000c	cc		 int	 3
__ehhandler$??0CPopupList@@QAE@PAV?$CList@PAVCHistory@@PAV1@@@HPAVCWnd@@@Z:
  0000d	90		 npad	 1
  0000e	90		 npad	 1
  0000f	8b 54 24 08	 mov	 edx, DWORD PTR [esp+8]
  00013	8d 42 0c	 lea	 eax, DWORD PTR [edx+12]
  00016	8b 4a ec	 mov	 ecx, DWORD PTR [edx-20]
  00019	33 c8		 xor	 ecx, eax
  0001b	e8 00 00 00 00	 call	 @__security_check_cookie@4
  00020	b8 00 00 00 00	 mov	 eax, OFFSET __ehfuncinfo$??0CPopupList@@QAE@PAV?$CList@PAVCHistory@@PAV1@@@HPAVCWnd@@@Z
  00025	e9 00 00 00 00	 jmp	 ___CxxFrameHandler3
text$x	ENDS
??0CPopupList@@QAE@PAV?$CList@PAVCHistory@@PAV1@@@HPAVCWnd@@@Z ENDP ; CPopupList::CPopupList
; Function compile flags: /Ogtp
;	COMDAT ??1CRscDlg@@UAE@XZ
_TEXT	SEGMENT
??1CRscDlg@@UAE@XZ PROC					; CRscDlg::~CRscDlg, COMDAT
; _this$ = ecx
  00000	e9 00 00 00 00	 jmp	 ??1CDialog@@UAE@XZ	; CDialog::~CDialog
??1CRscDlg@@UAE@XZ ENDP					; CRscDlg::~CRscDlg
_TEXT	ENDS
; Function compile flags: /Ogtp
; File C:\Program Files (x86)\Microsoft Visual Studio\2019\Community\VC\Tools\MSVC\14.29.30133\atlmfc\include\afx.inl
;	COMDAT ??_GCListCtrl@@UAEPAXI@Z
_TEXT	SEGMENT
___flags$ = 8						; size = 4
??_GCListCtrl@@UAEPAXI@Z PROC				; CListCtrl::`scalar deleting destructor', COMDAT
; _this$ = ecx
  00000	55		 push	 ebp
  00001	8b ec		 mov	 ebp, esp
  00003	56		 push	 esi
  00004	8b f1		 mov	 esi, ecx
  00006	e8 00 00 00 00	 call	 ??1CListCtrl@@UAE@XZ	; CListCtrl::~CListCtrl
  0000b	8b 45 08	 mov	 eax, DWORD PTR ___flags$[ebp]
  0000e	a8 01		 test	 al, 1
  00010	74 22		 je	 SHORT $LN9@scalar
  00012	a8 04		 test	 al, 4
  00014	75 10		 jne	 SHORT $LN3@scalar

; 112  : 	{ ::operator delete(p); }

  00016	56		 push	 esi
  00017	e8 00 00 00 00	 call	 ??3@YAXPAX@Z		; operator delete
  0001c	83 c4 04	 add	 esp, 4
  0001f	8b c6		 mov	 eax, esi
  00021	5e		 pop	 esi
  00022	5d		 pop	 ebp
  00023	c2 04 00	 ret	 4
$LN3@scalar:
  00026	68 80 00 00 00	 push	 128			; 00000080H
  0002b	56		 push	 esi
  0002c	e8 00 00 00 00	 call	 ?__global_delete@@YAXPAXI@Z ; __global_delete
  00031	83 c4 08	 add	 esp, 8
$LN9@scalar:
  00034	8b c6		 mov	 eax, esi
  00036	5e		 pop	 esi
  00037	5d		 pop	 ebp
  00038	c2 04 00	 ret	 4
??_GCListCtrl@@UAEPAXI@Z ENDP				; CListCtrl::`scalar deleting destructor'
_TEXT	ENDS
; Function compile flags: /Ogtp
; File C:\Program Files (x86)\Microsoft Visual Studio\2019\Community\VC\Tools\MSVC\14.29.30133\atlmfc\include\afxwin2.inl
;	COMDAT ?EndModalState@CWnd@@UAEXXZ
_TEXT	SEGMENT
?EndModalState@CWnd@@UAEXXZ PROC			; CWnd::EndModalState, COMDAT
; _this$ = ecx

; 567  : 	{ ::EnableWindow(m_hWnd, TRUE); }

  00000	6a 01		 push	 1
  00002	ff 71 20	 push	 DWORD PTR [ecx+32]
  00005	ff 15 00 00 00
	00		 call	 DWORD PTR __imp__EnableWindow@8
  0000b	c3		 ret	 0
?EndModalState@CWnd@@UAEXXZ ENDP			; CWnd::EndModalState
_TEXT	ENDS
; Function compile flags: /Ogtp
; File C:\Program Files (x86)\Microsoft Visual Studio\2019\Community\VC\Tools\MSVC\14.29.30133\atlmfc\include\afxwin2.inl
;	COMDAT ?BeginModalState@CWnd@@UAEXXZ
_TEXT	SEGMENT
?BeginModalState@CWnd@@UAEXXZ PROC			; CWnd::BeginModalState, COMDAT
; _this$ = ecx

; 565  : 	{ ::EnableWindow(m_hWnd, FALSE); }

  00000	6a 00		 push	 0
  00002	ff 71 20	 push	 DWORD PTR [ecx+32]
  00005	ff 15 00 00 00
	00		 call	 DWORD PTR __imp__EnableWindow@8
  0000b	c3		 ret	 0
?BeginModalState@CWnd@@UAEXXZ ENDP			; CWnd::BeginModalState
_TEXT	ENDS
; Function compile flags: /Ogtp
; File C:\Program Files (x86)\Microsoft Visual Studio\2019\Community\VC\Tools\MSVC\14.29.30133\atlmfc\include\afxwin2.inl
;	COMDAT ?DoDataExchange@CWnd@@MAEXPAVCDataExchange@@@Z
_TEXT	SEGMENT
___formal$ = 8						; size = 4
?DoDataExchange@CWnd@@MAEXPAVCDataExchange@@@Z PROC	; CWnd::DoDataExchange, COMDAT
; _this$ = ecx

; 561  : 	{ } // default does nothing

  00000	c2 04 00	 ret	 4
?DoDataExchange@CWnd@@MAEXPAVCDataExchange@@@Z ENDP	; CWnd::DoDataExchange
_TEXT	ENDS
; Function compile flags: /Ogtp
; File C:\Program Files (x86)\Microsoft Visual Studio\2019\Community\VC\Tools\MSVC\14.29.30133\atlmfc\include\afxwin1.inl
; File C:\Program Files (x86)\Microsoft Visual Studio\2019\Community\VC\Tools\MSVC\14.29.30133\atlmfc\include\afx.inl
;	COMDAT ??_GCRgn@@UAEPAXI@Z
_TEXT	SEGMENT
___flags$ = 8						; size = 4
??_GCRgn@@UAEPAXI@Z PROC				; CRgn::`scalar deleting destructor', COMDAT
; _this$ = ecx
  00000	55		 push	 ebp
  00001	8b ec		 mov	 ebp, esp
; File C:\Program Files (x86)\Microsoft Visual Studio\2019\Community\VC\Tools\MSVC\14.29.30133\atlmfc\include\afxwin1.inl

; 266  : 	{ }

  00003	56		 push	 esi
  00004	8b f1		 mov	 esi, ecx
  00006	c7 06 00 00 00
	00		 mov	 DWORD PTR [esi], OFFSET ??_7CRgn@@6B@
  0000c	e8 00 00 00 00	 call	 ??1CGdiObject@@UAE@XZ	; CGdiObject::~CGdiObject
  00011	8b 45 08	 mov	 eax, DWORD PTR ___flags$[ebp]
  00014	a8 01		 test	 al, 1
  00016	74 1f		 je	 SHORT $LN12@scalar
  00018	a8 04		 test	 al, 4
  0001a	75 10		 jne	 SHORT $LN3@scalar
; File C:\Program Files (x86)\Microsoft Visual Studio\2019\Community\VC\Tools\MSVC\14.29.30133\atlmfc\include\afx.inl

; 112  : 	{ ::operator delete(p); }

  0001c	56		 push	 esi
  0001d	e8 00 00 00 00	 call	 ??3@YAXPAX@Z		; operator delete
  00022	83 c4 04	 add	 esp, 4
  00025	8b c6		 mov	 eax, esi
  00027	5e		 pop	 esi
  00028	5d		 pop	 ebp
  00029	c2 04 00	 ret	 4
$LN3@scalar:
  0002c	6a 08		 push	 8
  0002e	56		 push	 esi
  0002f	e8 00 00 00 00	 call	 ?__global_delete@@YAXPAXI@Z ; __global_delete
  00034	83 c4 08	 add	 esp, 8
$LN12@scalar:
  00037	8b c6		 mov	 eax, esi
  00039	5e		 pop	 esi
  0003a	5d		 pop	 ebp
  0003b	c2 04 00	 ret	 4
??_GCRgn@@UAEPAXI@Z ENDP				; CRgn::`scalar deleting destructor'
_TEXT	ENDS
; Function compile flags: /Ogtp
; File C:\Program Files (x86)\Microsoft Visual Studio\2019\Community\VC\Tools\MSVC\14.29.30133\atlmfc\include\afxwin1.inl
;	COMDAT ??1CRgn@@UAE@XZ
_TEXT	SEGMENT
??1CRgn@@UAE@XZ PROC					; CRgn::~CRgn, COMDAT
; _this$ = ecx

; 266  : 	{ }

  00000	c7 01 00 00 00
	00		 mov	 DWORD PTR [ecx], OFFSET ??_7CRgn@@6B@
  00006	e9 00 00 00 00	 jmp	 ??1CGdiObject@@UAE@XZ	; CGdiObject::~CGdiObject
??1CRgn@@UAE@XZ ENDP					; CRgn::~CRgn
_TEXT	ENDS
; Function compile flags: /Ogtp
; File C:\Program Files (x86)\Microsoft Visual Studio\2019\Community\VC\Tools\MSVC\14.29.30133\atlmfc\include\afx.inl
;	COMDAT ??_GCGdiObject@@UAEPAXI@Z
_TEXT	SEGMENT
___flags$ = 8						; size = 4
??_GCGdiObject@@UAEPAXI@Z PROC				; CGdiObject::`scalar deleting destructor', COMDAT
; _this$ = ecx
  00000	55		 push	 ebp
  00001	8b ec		 mov	 ebp, esp
  00003	56		 push	 esi
  00004	8b f1		 mov	 esi, ecx
  00006	e8 00 00 00 00	 call	 ??1CGdiObject@@UAE@XZ	; CGdiObject::~CGdiObject
  0000b	8b 45 08	 mov	 eax, DWORD PTR ___flags$[ebp]
  0000e	a8 01		 test	 al, 1
  00010	74 1f		 je	 SHORT $LN9@scalar
  00012	a8 04		 test	 al, 4
  00014	75 10		 jne	 SHORT $LN3@scalar

; 112  : 	{ ::operator delete(p); }

  00016	56		 push	 esi
  00017	e8 00 00 00 00	 call	 ??3@YAXPAX@Z		; operator delete
  0001c	83 c4 04	 add	 esp, 4
  0001f	8b c6		 mov	 eax, esi
  00021	5e		 pop	 esi
  00022	5d		 pop	 ebp
  00023	c2 04 00	 ret	 4
$LN3@scalar:
  00026	6a 08		 push	 8
  00028	56		 push	 esi
  00029	e8 00 00 00 00	 call	 ?__global_delete@@YAXPAXI@Z ; __global_delete
  0002e	83 c4 08	 add	 esp, 8
$LN9@scalar:
  00031	8b c6		 mov	 eax, esi
  00033	5e		 pop	 esi
  00034	5d		 pop	 ebp
  00035	c2 04 00	 ret	 4
??_GCGdiObject@@UAEPAXI@Z ENDP				; CGdiObject::`scalar deleting destructor'
_TEXT	ENDS
; Function compile flags: /Ogtp
; File C:\Program Files (x86)\Microsoft Visual Studio\2019\Community\VC\Tools\MSVC\14.29.30133\atlmfc\include\afxwin1.inl
;	COMDAT ??1CGdiObject@@UAE@XZ
_TEXT	SEGMENT
_pException$2 = -540					; size = 4
_strMsg$3 = -536					; size = 4
_szErrorMessage$4 = -532				; size = 512
__$ArrayPad$ = -20					; size = 4
__$EHRec$ = -16						; size = 16
??1CGdiObject@@UAE@XZ PROC				; CGdiObject::~CGdiObject, COMDAT
; _this$ = ecx

; 74   : {

  00000	55		 push	 ebp
  00001	8b ec		 mov	 ebp, esp
  00003	6a ff		 push	 -1
  00005	68 00 00 00 00	 push	 __ehhandler$??1CGdiObject@@UAE@XZ
  0000a	64 a1 00 00 00
	00		 mov	 eax, DWORD PTR fs:0
  00010	50		 push	 eax
  00011	81 ec 10 02 00
	00		 sub	 esp, 528		; 00000210H
  00017	a1 00 00 00 00	 mov	 eax, DWORD PTR ___security_cookie
  0001c	33 c5		 xor	 eax, ebp
  0001e	89 45 ec	 mov	 DWORD PTR __$ArrayPad$[ebp], eax
  00021	53		 push	 ebx
  00022	56		 push	 esi
  00023	57		 push	 edi
  00024	50		 push	 eax
  00025	8d 45 f4	 lea	 eax, DWORD PTR __$EHRec$[ebp+4]
  00028	64 a3 00 00 00
	00		 mov	 DWORD PTR fs:0, eax
  0002e	89 65 f0	 mov	 DWORD PTR __$EHRec$[ebp], esp
  00031	c7 01 00 00 00
	00		 mov	 DWORD PTR [ecx], OFFSET ??_7CGdiObject@@6B@

; 75   : 	AFX_BEGIN_DESTRUCTOR

  00037	c7 45 fc 00 00
	00 00		 mov	 DWORD PTR __$EHRec$[ebp+12], 0

; 76   : 	DeleteObject();

  0003e	e8 00 00 00 00	 call	 ?DeleteObject@CGdiObject@@QAEHXZ ; CGdiObject::DeleteObject
$LN18@CGdiObject:

; 78   : }

  00043	8b 4d f4	 mov	 ecx, DWORD PTR __$EHRec$[ebp+4]
  00046	64 89 0d 00 00
	00 00		 mov	 DWORD PTR fs:0, ecx
  0004d	59		 pop	 ecx
  0004e	5f		 pop	 edi
  0004f	5e		 pop	 esi
  00050	5b		 pop	 ebx
  00051	8b 4d ec	 mov	 ecx, DWORD PTR __$ArrayPad$[ebp]
  00054	33 cd		 xor	 ecx, ebp
  00056	e8 00 00 00 00	 call	 @__security_check_cookie@4
  0005b	8b e5		 mov	 esp, ebp
  0005d	5d		 pop	 ebp
  0005e	c3		 ret	 0
__catch$??1CGdiObject@@UAE@XZ$0:

; 77   : 	AFX_END_DESTRUCTOR

  0005f	8d 8d e8 fd ff
	ff		 lea	 ecx, DWORD PTR _strMsg$3[ebp]
  00065	ff 15 00 00 00
	00		 call	 DWORD PTR __imp_??0?$CStringT@DV?$StrTraitMFC_DLL@DV?$ChTraitsCRT@D@ATL@@@@@ATL@@QAE@XZ
  0006b	8b b5 e4 fd ff
	ff		 mov	 esi, DWORD PTR _pException$2[ebp]
  00071	8d 8d ec fd ff
	ff		 lea	 ecx, DWORD PTR _szErrorMessage$4[ebp]
  00077	6a 00		 push	 0
  00079	68 00 02 00 00	 push	 512			; 00000200H
  0007e	51		 push	 ecx
  0007f	8b 06		 mov	 eax, DWORD PTR [esi]
  00081	8b ce		 mov	 ecx, esi
  00083	c6 45 fc 02	 mov	 BYTE PTR __$EHRec$[ebp+12], 2
  00087	ff 50 14	 call	 DWORD PTR [eax+20]
  0008a	85 c0		 test	 eax, eax
  0008c	74 2a		 je	 SHORT $LN9@CGdiObject
  0008e	8d 85 ec fd ff
	ff		 lea	 eax, DWORD PTR _szErrorMessage$4[ebp]
  00094	50		 push	 eax
  00095	6a 4d		 push	 77			; 0000004dH
  00097	68 00 00 00 00	 push	 OFFSET ??_C@_0HD@JJCHHHNK@C?3?2Program?5Files?5?$CIx86?$CJ?2Microsof@
  0009c	68 00 00 00 00	 push	 OFFSET ??_C@_0BP@OIEOKIDM@Exception?5thrown?5in?5destructor@
  000a1	8d 85 e8 fd ff
	ff		 lea	 eax, DWORD PTR _strMsg$3[ebp]
  000a7	68 00 00 00 00	 push	 OFFSET ??_C@_0BB@HBOOMJBF@?$CFTs?5?$CI?$CFTs?3?$CFd?$CJ?6?$CFTs@
  000ac	50		 push	 eax
  000ad	ff 15 00 00 00
	00		 call	 DWORD PTR __imp_?Format@?$CStringT@DV?$StrTraitMFC_DLL@DV?$ChTraitsCRT@D@ATL@@@@@ATL@@QAAXPBDZZ
  000b3	83 c4 18	 add	 esp, 24			; 00000018H
  000b6	eb 21		 jmp	 SHORT $LN10@CGdiObject
$LN9@CGdiObject:
  000b8	6a 4d		 push	 77			; 0000004dH
  000ba	68 00 00 00 00	 push	 OFFSET ??_C@_0HD@JJCHHHNK@C?3?2Program?5Files?5?$CIx86?$CJ?2Microsof@
  000bf	68 00 00 00 00	 push	 OFFSET ??_C@_0BP@OIEOKIDM@Exception?5thrown?5in?5destructor@
  000c4	8d 85 e8 fd ff
	ff		 lea	 eax, DWORD PTR _strMsg$3[ebp]
  000ca	68 00 00 00 00	 push	 OFFSET ??_C@_0N@OMEMOKLE@?$CFTs?5?$CI?$CFTs?3?$CFd?$CJ@
  000cf	50		 push	 eax
  000d0	ff 15 00 00 00
	00		 call	 DWORD PTR __imp_?Format@?$CStringT@DV?$StrTraitMFC_DLL@DV?$ChTraitsCRT@D@ATL@@@@@ATL@@QAAXPBDZZ
  000d6	83 c4 14	 add	 esp, 20			; 00000014H
$LN10@CGdiObject:
  000d9	6a 00		 push	 0
  000db	6a 00		 push	 0
  000dd	ff b5 e8 fd ff
	ff		 push	 DWORD PTR _strMsg$3[ebp]
  000e3	e8 00 00 00 00	 call	 ?AfxMessageBox@@YGHPBDII@Z ; AfxMessageBox
  000e8	8d 8d e8 fd ff
	ff		 lea	 ecx, DWORD PTR _strMsg$3[ebp]
  000ee	ff 15 00 00 00
	00		 call	 DWORD PTR __imp_??1?$CStringT@DV?$StrTraitMFC_DLL@DV?$ChTraitsCRT@D@ATL@@@@@ATL@@QAE@XZ
  000f4	8b 06		 mov	 eax, DWORD PTR [esi]
  000f6	8b ce		 mov	 ecx, esi
  000f8	6a 01		 push	 1
  000fa	ff 50 04	 call	 DWORD PTR [eax+4]
  000fd	b8 00 00 00 00	 mov	 eax, $LN18@CGdiObject
  00102	c3		 ret	 0
_TEXT	ENDS
;	COMDAT text$x
text$x	SEGMENT
__unwindfunclet$??1CGdiObject@@UAE@XZ$2:
  00000	8d 8d e8 fd ff
	ff		 lea	 ecx, DWORD PTR _strMsg$3[ebp]
  00006	ff 25 00 00 00
	00		 jmp	 DWORD PTR __imp_??1?$CStringT@DV?$StrTraitMFC_DLL@DV?$ChTraitsCRT@D@ATL@@@@@ATL@@QAE@XZ
  0000c	cc		 int	 3
  0000d	cc		 int	 3
  0000e	cc		 int	 3
  0000f	cc		 int	 3
  00010	cc		 int	 3
__ehhandler$??1CGdiObject@@UAE@XZ:
  00011	90		 npad	 1
  00012	90		 npad	 1
  00013	8b 54 24 08	 mov	 edx, DWORD PTR [esp+8]
  00017	8d 42 0c	 lea	 eax, DWORD PTR [edx+12]
  0001a	8b 8a e0 fd ff
	ff		 mov	 ecx, DWORD PTR [edx-544]
  00020	33 c8		 xor	 ecx, eax
  00022	e8 00 00 00 00	 call	 @__security_check_cookie@4
  00027	8b 4a f8	 mov	 ecx, DWORD PTR [edx-8]
  0002a	33 c8		 xor	 ecx, eax
  0002c	e8 00 00 00 00	 call	 @__security_check_cookie@4
  00031	b8 00 00 00 00	 mov	 eax, OFFSET __ehfuncinfo$??1CGdiObject@@UAE@XZ
  00036	e9 00 00 00 00	 jmp	 ___CxxFrameHandler3
text$x	ENDS
??1CGdiObject@@UAE@XZ ENDP				; CGdiObject::~CGdiObject
; Function compile flags: /Ogtp
; File C:\Program Files (x86)\Microsoft Visual Studio\2019\Community\VC\Tools\MSVC\14.29.30133\atlmfc\include\afx.inl
;	COMDAT ?Dump@CObject@@UBEXAAVCDumpContext@@@Z
_TEXT	SEGMENT
___formal$ = 8						; size = 4
?Dump@CObject@@UBEXAAVCDumpContext@@@Z PROC		; CObject::Dump, COMDAT
; _this$ = ecx

; 122  : 	{ /* no dumping in release builds */ }

  00000	c2 04 00	 ret	 4
?Dump@CObject@@UBEXAAVCDumpContext@@@Z ENDP		; CObject::Dump
_TEXT	ENDS
; Function compile flags: /Ogtp
; File C:\Program Files (x86)\Microsoft Visual Studio\2019\Community\VC\Tools\MSVC\14.29.30133\atlmfc\include\afx.inl
;	COMDAT ?AssertValid@CObject@@UBEXXZ
_TEXT	SEGMENT
?AssertValid@CObject@@UBEXXZ PROC			; CObject::AssertValid, COMDAT
; _this$ = ecx

; 120  : 	{ /* no asserts in release builds */ }

  00000	c2 00 00	 ret	 0
?AssertValid@CObject@@UBEXXZ ENDP			; CObject::AssertValid
_TEXT	ENDS
; Function compile flags: /Ogtp
; File C:\Program Files (x86)\Microsoft Visual Studio\2019\Community\VC\Tools\MSVC\14.29.30133\atlmfc\include\afx.inl
;	COMDAT ?Serialize@CObject@@UAEXAAVCArchive@@@Z
_TEXT	SEGMENT
___formal$ = 8						; size = 4
?Serialize@CObject@@UAEXAAVCArchive@@@Z PROC		; CObject::Serialize, COMDAT
; _this$ = ecx

; 106  : 	{ /* CObject does not serialize anything by default */ }

  00000	c2 04 00	 ret	 4
?Serialize@CObject@@UAEXAAVCArchive@@@Z ENDP		; CObject::Serialize
_TEXT	ENDS
; Function compile flags: /Ogtp
; File C:\Program Files (x86)\Microsoft Visual Studio\2019\Community\VC\Tools\MSVC\14.29.30133\atlmfc\include\afx.inl
;	COMDAT ??1CObject@@UAE@XZ
_TEXT	SEGMENT
??1CObject@@UAE@XZ PROC					; CObject::~CObject, COMDAT
; _this$ = ecx

; 104  : 	{ }

  00000	c2 00 00	 ret	 0
??1CObject@@UAE@XZ ENDP					; CObject::~CObject
_TEXT	ENDS
; Function compile flags: /Ogtp
; File D:\git\src\IBK\IBK_DRFN\ProjSrc\SrcDrfn\Chart\MULTICHART\PopupList.cpp
;	COMDAT ?__empty_global_delete@@YAXPAXI@Z
_TEXT	SEGMENT
___formal$ = 8						; size = 4
___formal$ = 12						; size = 4
?__empty_global_delete@@YAXPAXI@Z PROC			; __empty_global_delete, COMDAT

  00000	c2 00 00	 ret	 0
?__empty_global_delete@@YAXPAXI@Z ENDP			; __empty_global_delete
_TEXT	ENDS
; Function compile flags: /Ogtp
; File D:\git\src\IBK\IBK_DRFN\ProjSrc\SrcDrfn\Chart\MULTICHART\PopupList.cpp
;	COMDAT ?__empty_global_delete@@YAXPAX@Z
_TEXT	SEGMENT
___formal$ = 8						; size = 4
?__empty_global_delete@@YAXPAX@Z PROC			; __empty_global_delete, COMDAT

  00000	c2 00 00	 ret	 0
?__empty_global_delete@@YAXPAX@Z ENDP			; __empty_global_delete
_TEXT	ENDS
END
