; Listing generated by Microsoft (R) Optimizing Compiler Version 19.29.30148.0 

	TITLE	D:\git\src\IBK\IBK_DRFN\#DRfn-CS\_Obj\MultiChart\RGBButton.obj
	.686P
	.XMM
	include listing.inc
	.model	flat

INCLUDELIB MSVCRT
INCLUDELIB OLDNAMES

PUBLIC	?__empty_global_delete@@YAXPAX@Z		; __empty_global_delete
PUBLIC	?__empty_global_delete@@YAXPAXI@Z		; __empty_global_delete
PUBLIC	??1CObject@@UAE@XZ				; CObject::~CObject
PUBLIC	?Serialize@CObject@@UAEXAAVCArchive@@@Z		; CObject::Serialize
PUBLIC	?AssertValid@CObject@@UBEXXZ			; CObject::AssertValid
PUBLIC	?Dump@CObject@@UBEXAAVCDumpContext@@@Z		; CObject::Dump
PUBLIC	??1CGdiObject@@UAE@XZ				; CGdiObject::~CGdiObject
PUBLIC	??_GCGdiObject@@UAEPAXI@Z			; CGdiObject::`scalar deleting destructor'
PUBLIC	??1CPen@@UAE@XZ					; CPen::~CPen
PUBLIC	??_GCPen@@UAEPAXI@Z				; CPen::`scalar deleting destructor'
PUBLIC	?DoDataExchange@CWnd@@MAEXPAVCDataExchange@@@Z	; CWnd::DoDataExchange
PUBLIC	?BeginModalState@CWnd@@UAEXXZ			; CWnd::BeginModalState
PUBLIC	?EndModalState@CWnd@@UAEXXZ			; CWnd::EndModalState
PUBLIC	??_GCButton@@UAEPAXI@Z				; CButton::`scalar deleting destructor'
PUBLIC	??0CRGBButton@@QAE@XZ				; CRGBButton::CRGBButton
PUBLIC	?InitToolTip@CRGBButton@@QAEXXZ			; CRGBButton::InitToolTip
PUBLIC	?SetTooltipText@CRGBButton@@QAEXHH@Z		; CRGBButton::SetTooltipText
PUBLIC	?SetTooltipText@CRGBButton@@QAEXPBDH@Z		; CRGBButton::SetTooltipText
PUBLIC	?DrawButtonRect@CRGBButton@@QAEXPAVCDC@@VCRect@@I@Z ; CRGBButton::DrawButtonRect
PUBLIC	?DrawButtonText@CRGBButton@@QAEXPAVCDC@@VCRect@@I@Z ; CRGBButton::DrawButtonText
PUBLIC	?SetBorderColor@CRGBButton@@QAEXK@Z		; CRGBButton::SetBorderColor
PUBLIC	?SetBackGroundColor@CRGBButton@@QAEXKK@Z	; CRGBButton::SetBackGroundColor
PUBLIC	?SetTextColor@CRGBButton@@QAEXK@Z		; CRGBButton::SetTextColor
PUBLIC	?SetButtonText@CRGBButton@@QAEXPBD@Z		; CRGBButton::SetButtonText
PUBLIC	?SetSideBar@CRGBButton@@QAEXPAVCLeftBarDlg@@@Z	; CRGBButton::SetSideBar
PUBLIC	?StartSideBar@CRGBButton@@QAEXXZ		; CRGBButton::StartSideBar
PUBLIC	?EndSideBar@CRGBButton@@QAEXXZ			; CRGBButton::EndSideBar
PUBLIC	?PreTranslateMessage@CRGBButton@@UAEHPAUtagMSG@@@Z ; CRGBButton::PreTranslateMessage
PUBLIC	?DrawItem@CRGBButton@@UAEXPAUtagDRAWITEMSTRUCT@@@Z ; CRGBButton::DrawItem
PUBLIC	?PreSubclassWindow@CRGBButton@@MAEXXZ		; CRGBButton::PreSubclassWindow
PUBLIC	??1CRGBButton@@UAE@XZ				; CRGBButton::~CRGBButton
PUBLIC	?OnMouseMove@CRGBButton@@IAEXIVCPoint@@@Z	; CRGBButton::OnMouseMove
PUBLIC	?OnMouseHover@CRGBButton@@IAEJIJ@Z		; CRGBButton::OnMouseHover
PUBLIC	?OnMouseLeave@CRGBButton@@IAEJIJ@Z		; CRGBButton::OnMouseLeave
PUBLIC	?GetThisMessageMap@CRGBButton@@KGPBUAFX_MSGMAP@@XZ ; CRGBButton::GetThisMessageMap
PUBLIC	?GetMessageMap@CRGBButton@@MBEPBUAFX_MSGMAP@@XZ	; CRGBButton::GetMessageMap
PUBLIC	??_GCRGBButton@@UAEPAXI@Z			; CRGBButton::`scalar deleting destructor'
PUBLIC	??_R0PAVCException@@@8				; CException * `RTTI Type Descriptor'
PUBLIC	??_7CGdiObject@@6B@				; CGdiObject::`vftable'
PUBLIC	??_7CPen@@6B@					; CPen::`vftable'
PUBLIC	??_7CButton@@6B@				; CButton::`vftable'
PUBLIC	??_C@_0HD@JJCHHHNK@C?3?2Program?5Files?5?$CIx86?$CJ?2Microsof@ ; `string'
PUBLIC	??_C@_0BP@OIEOKIDM@Exception?5thrown?5in?5destructor@ ; `string'
PUBLIC	??_C@_0BB@HBOOMJBF@?$CFTs?5?$CI?$CFTs?3?$CFd?$CJ?6?$CFTs@ ; `string'
PUBLIC	??_C@_0N@OMEMOKLE@?$CFTs?5?$CI?$CFTs?3?$CFd?$CJ@ ; `string'
PUBLIC	??_R0?AVCObject@@@8				; CObject `RTTI Type Descriptor'
PUBLIC	??_R3CObject@@8					; CObject::`RTTI Class Hierarchy Descriptor'
PUBLIC	??_R2CObject@@8					; CObject::`RTTI Base Class Array'
PUBLIC	??_R1A@?0A@EA@CObject@@8			; CObject::`RTTI Base Class Descriptor at (0,-1,0,64)'
PUBLIC	??_R4CGdiObject@@6B@				; CGdiObject::`RTTI Complete Object Locator'
PUBLIC	??_R0?AVCGdiObject@@@8				; CGdiObject `RTTI Type Descriptor'
PUBLIC	??_R3CGdiObject@@8				; CGdiObject::`RTTI Class Hierarchy Descriptor'
PUBLIC	??_R2CGdiObject@@8				; CGdiObject::`RTTI Base Class Array'
PUBLIC	??_R1A@?0A@EA@CGdiObject@@8			; CGdiObject::`RTTI Base Class Descriptor at (0,-1,0,64)'
PUBLIC	??_R4CPen@@6B@					; CPen::`RTTI Complete Object Locator'
PUBLIC	??_R0?AVCPen@@@8				; CPen `RTTI Type Descriptor'
PUBLIC	??_R3CPen@@8					; CPen::`RTTI Class Hierarchy Descriptor'
PUBLIC	??_R2CPen@@8					; CPen::`RTTI Base Class Array'
PUBLIC	??_R1A@?0A@EA@CPen@@8				; CPen::`RTTI Base Class Descriptor at (0,-1,0,64)'
PUBLIC	??_R1A@?0A@EA@CWnd@@8				; CWnd::`RTTI Base Class Descriptor at (0,-1,0,64)'
PUBLIC	??_R0?AVCWnd@@@8				; CWnd `RTTI Type Descriptor'
PUBLIC	??_R3CWnd@@8					; CWnd::`RTTI Class Hierarchy Descriptor'
PUBLIC	??_R2CWnd@@8					; CWnd::`RTTI Base Class Array'
PUBLIC	??_R1A@?0A@EA@CCmdTarget@@8			; CCmdTarget::`RTTI Base Class Descriptor at (0,-1,0,64)'
PUBLIC	??_R0?AVCCmdTarget@@@8				; CCmdTarget `RTTI Type Descriptor'
PUBLIC	??_R3CCmdTarget@@8				; CCmdTarget::`RTTI Class Hierarchy Descriptor'
PUBLIC	??_R2CCmdTarget@@8				; CCmdTarget::`RTTI Base Class Array'
PUBLIC	??_R4CButton@@6B@				; CButton::`RTTI Complete Object Locator'
PUBLIC	??_R0?AVCButton@@@8				; CButton `RTTI Type Descriptor'
PUBLIC	??_R3CButton@@8					; CButton::`RTTI Class Hierarchy Descriptor'
PUBLIC	??_R2CButton@@8					; CButton::`RTTI Base Class Array'
PUBLIC	??_R1A@?0A@EA@CButton@@8			; CButton::`RTTI Base Class Descriptor at (0,-1,0,64)'
PUBLIC	??_7CRGBButton@@6B@				; CRGBButton::`vftable'
PUBLIC	??_R4CRGBButton@@6B@				; CRGBButton::`RTTI Complete Object Locator'
PUBLIC	??_R0?AVCRGBButton@@@8				; CRGBButton `RTTI Type Descriptor'
PUBLIC	??_R3CRGBButton@@8				; CRGBButton::`RTTI Class Hierarchy Descriptor'
PUBLIC	??_R2CRGBButton@@8				; CRGBButton::`RTTI Base Class Array'
PUBLIC	??_R1A@?0A@EA@CRGBButton@@8			; CRGBButton::`RTTI Base Class Descriptor at (0,-1,0,64)'
EXTRN	??3@YAXPAX@Z:PROC				; operator delete
EXTRN	?__global_delete@@YAXPAXI@Z:PROC		; __global_delete
EXTRN	__imp__Rectangle@20:PROC
EXTRN	__imp__RoundRect@28:PROC
EXTRN	__imp__SendMessageA@16:PROC
EXTRN	__imp__EnableWindow@8:PROC
EXTRN	__imp__InvalidateRect@12:PROC
EXTRN	__imp__GetClientRect@8:PROC
EXTRN	__imp__CopyRect@8:PROC
EXTRN	__imp__InflateRect@12:PROC
EXTRN	__imp___TrackMouseEvent@4:PROC
EXTRN	__imp_?Empty@?$CSimpleStringT@D$00@ATL@@QAEXXZ:PROC
EXTRN	__imp_??0?$CStringT@DV?$StrTraitMFC_DLL@DV?$ChTraitsCRT@D@ATL@@@@@ATL@@QAE@XZ:PROC
EXTRN	__imp_??1?$CStringT@DV?$StrTraitMFC_DLL@DV?$ChTraitsCRT@D@ATL@@@@@ATL@@QAE@XZ:PROC
EXTRN	__imp_??4?$CStringT@DV?$StrTraitMFC_DLL@DV?$ChTraitsCRT@D@ATL@@@@@ATL@@QAEAAV01@PBD@Z:PROC
EXTRN	__imp_?Format@?$CStringT@DV?$StrTraitMFC_DLL@DV?$ChTraitsCRT@D@ATL@@@@@ATL@@QAAXPBDZZ:PROC
EXTRN	__imp_?LoadStringA@?$CStringT@DV?$StrTraitMFC_DLL@DV?$ChTraitsCRT@D@ATL@@@@@ATL@@QAEHI@Z:PROC
EXTRN	?GetRuntimeClass@CGdiObject@@UBEPAUCRuntimeClass@@XZ:PROC ; CGdiObject::GetRuntimeClass
EXTRN	?DeleteObject@CGdiObject@@QAEHXZ:PROC		; CGdiObject::DeleteObject
EXTRN	??_ECGdiObject@@UAEPAXI@Z:PROC			; CGdiObject::`vector deleting destructor'
EXTRN	?GetRuntimeClass@CPen@@UBEPAUCRuntimeClass@@XZ:PROC ; CPen::GetRuntimeClass
EXTRN	??0CPen@@QAE@HHK@Z:PROC				; CPen::CPen
EXTRN	??_ECPen@@UAEPAXI@Z:PROC			; CPen::`vector deleting destructor'
EXTRN	?FromHandle@CDC@@SGPAV1@PAUHDC__@@@Z:PROC	; CDC::FromHandle
EXTRN	?SelectObject@CDC@@QAEPAVCPen@@PAV2@@Z:PROC	; CDC::SelectObject
EXTRN	?SetBkMode@CDC@@QAEHH@Z:PROC			; CDC::SetBkMode
EXTRN	?FillSolidRect@CDC@@QAEXPBUtagRECT@@K@Z:PROC	; CDC::FillSolidRect
EXTRN	?OnCmdMsg@CCmdTarget@@UAEHIHPAXPAUAFX_CMDHANDLERINFO@@@Z:PROC ; CCmdTarget::OnCmdMsg
EXTRN	?IsInvokeAllowed@CCmdTarget@@UAEHJ@Z:PROC	; CCmdTarget::IsInvokeAllowed
EXTRN	?GetDispatchIID@CCmdTarget@@UAEHPAU_GUID@@@Z:PROC ; CCmdTarget::GetDispatchIID
EXTRN	?GetTypeInfoCount@CCmdTarget@@UAEIXZ:PROC	; CCmdTarget::GetTypeInfoCount
EXTRN	?GetTypeLibCache@CCmdTarget@@UAEPAVCTypeLibCache@@XZ:PROC ; CCmdTarget::GetTypeLibCache
EXTRN	?GetTypeLib@CCmdTarget@@UAEJKPAPAUITypeLib@@@Z:PROC ; CCmdTarget::GetTypeLib
EXTRN	?GetCommandMap@CCmdTarget@@MBEPBUAFX_OLECMDMAP@@XZ:PROC ; CCmdTarget::GetCommandMap
EXTRN	?GetDispatchMap@CCmdTarget@@MBEPBUAFX_DISPMAP@@XZ:PROC ; CCmdTarget::GetDispatchMap
EXTRN	?GetConnectionMap@CCmdTarget@@MBEPBUAFX_CONNECTIONMAP@@XZ:PROC ; CCmdTarget::GetConnectionMap
EXTRN	?GetEventSinkMap@CCmdTarget@@MBEPBUAFX_EVENTSINKMAP@@XZ:PROC ; CCmdTarget::GetEventSinkMap
EXTRN	?OnCreateAggregates@CCmdTarget@@UAEHXZ:PROC	; CCmdTarget::OnCreateAggregates
EXTRN	?GetInterfaceHook@CCmdTarget@@UAEPAUIUnknown@@PBX@Z:PROC ; CCmdTarget::GetInterfaceHook
EXTRN	?GetExtraConnectionPoints@CCmdTarget@@MAEHPAVCPtrArray@@@Z:PROC ; CCmdTarget::GetExtraConnectionPoints
EXTRN	?GetConnectionHook@CCmdTarget@@MAEPAUIConnectionPoint@@ABU_GUID@@@Z:PROC ; CCmdTarget::GetConnectionHook
EXTRN	?ModifyStyle@CWnd@@QAEHKKI@Z:PROC		; CWnd::ModifyStyle
EXTRN	??0CWnd@@QAE@XZ:PROC				; CWnd::CWnd
EXTRN	?PreSubclassWindow@CWnd@@UAEXXZ:PROC		; CWnd::PreSubclassWindow
EXTRN	?Create@CWnd@@UAEHPBD0KABUtagRECT@@PAV1@IPAUCCreateContext@@@Z:PROC ; CWnd::Create
EXTRN	?CreateEx@CWnd@@UAEHKPBD0KHHHHPAUHWND__@@PAUHMENU__@@PAX@Z:PROC ; CWnd::CreateEx
EXTRN	?CreateEx@CWnd@@UAEHKPBD0KABUtagRECT@@PAV1@IPAX@Z:PROC ; CWnd::CreateEx
EXTRN	?DestroyWindow@CWnd@@UAEHXZ:PROC		; CWnd::DestroyWindow
EXTRN	?PreCreateWindow@CWnd@@UAEHAAUtagCREATESTRUCTA@@@Z:PROC ; CWnd::PreCreateWindow
EXTRN	?CalcWindowRect@CWnd@@UAEXPAUtagRECT@@I@Z:PROC	; CWnd::CalcWindowRect
EXTRN	?GetMenu@CWnd@@UBEPAVCMenu@@XZ:PROC		; CWnd::GetMenu
EXTRN	?SetMenu@CWnd@@UAEHPAVCMenu@@@Z:PROC		; CWnd::SetMenu
EXTRN	?OnToolHitTest@CWnd@@UBEHVCPoint@@PAUtagTOOLINFOA@@@Z:PROC ; CWnd::OnToolHitTest
EXTRN	?GetScrollBarCtrl@CWnd@@UBEPAVCScrollBar@@H@Z:PROC ; CWnd::GetScrollBarCtrl
EXTRN	?WinHelpA@CWnd@@UAEXKI@Z:PROC			; CWnd::WinHelpA
EXTRN	?HtmlHelpA@CWnd@@UAEXKI@Z:PROC			; CWnd::HtmlHelpA
EXTRN	?WinHelpInternal@CWnd@@UAEXKI@Z:PROC		; CWnd::WinHelpInternal
EXTRN	?ContinueModal@CWnd@@UAEHXZ:PROC		; CWnd::ContinueModal
EXTRN	?EndModalLoop@CWnd@@UAEXH@Z:PROC		; CWnd::EndModalLoop
EXTRN	?OnDrawIconicThumbnailOrLivePreview@CWnd@@UAEXAAVCDC@@VCRect@@VCSize@@HAAH@Z:PROC ; CWnd::OnDrawIconicThumbnailOrLivePreview
EXTRN	?GetInterfaceMap@CWnd@@MBEPBUAFX_INTERFACEMAP@@XZ:PROC ; CWnd::GetInterfaceMap
EXTRN	?EnsureStdObj@CWnd@@UAEJXZ:PROC			; CWnd::EnsureStdObj
EXTRN	?get_accParent@CWnd@@UAEJPAPAUIDispatch@@@Z:PROC ; CWnd::get_accParent
EXTRN	?get_accChildCount@CWnd@@UAEJPAJ@Z:PROC		; CWnd::get_accChildCount
EXTRN	?get_accChild@CWnd@@UAEJUtagVARIANT@@PAPAUIDispatch@@@Z:PROC ; CWnd::get_accChild
EXTRN	?get_accName@CWnd@@UAEJUtagVARIANT@@PAPA_W@Z:PROC ; CWnd::get_accName
EXTRN	?get_accValue@CWnd@@UAEJUtagVARIANT@@PAPA_W@Z:PROC ; CWnd::get_accValue
EXTRN	?get_accDescription@CWnd@@UAEJUtagVARIANT@@PAPA_W@Z:PROC ; CWnd::get_accDescription
EXTRN	?get_accRole@CWnd@@UAEJUtagVARIANT@@PAU2@@Z:PROC ; CWnd::get_accRole
EXTRN	?get_accState@CWnd@@UAEJUtagVARIANT@@PAU2@@Z:PROC ; CWnd::get_accState
EXTRN	?get_accHelp@CWnd@@UAEJUtagVARIANT@@PAPA_W@Z:PROC ; CWnd::get_accHelp
EXTRN	?get_accHelpTopic@CWnd@@UAEJPAPA_WUtagVARIANT@@PAJ@Z:PROC ; CWnd::get_accHelpTopic
EXTRN	?get_accKeyboardShortcut@CWnd@@UAEJUtagVARIANT@@PAPA_W@Z:PROC ; CWnd::get_accKeyboardShortcut
EXTRN	?get_accFocus@CWnd@@UAEJPAUtagVARIANT@@@Z:PROC	; CWnd::get_accFocus
EXTRN	?get_accSelection@CWnd@@UAEJPAUtagVARIANT@@@Z:PROC ; CWnd::get_accSelection
EXTRN	?get_accDefaultAction@CWnd@@UAEJUtagVARIANT@@PAPA_W@Z:PROC ; CWnd::get_accDefaultAction
EXTRN	?accSelect@CWnd@@UAEJJUtagVARIANT@@@Z:PROC	; CWnd::accSelect
EXTRN	?accLocation@CWnd@@UAEJPAJ000UtagVARIANT@@@Z:PROC ; CWnd::accLocation
EXTRN	?accNavigate@CWnd@@UAEJJUtagVARIANT@@PAU2@@Z:PROC ; CWnd::accNavigate
EXTRN	?accHitTest@CWnd@@UAEJJJPAUtagVARIANT@@@Z:PROC	; CWnd::accHitTest
EXTRN	?accDoDefaultAction@CWnd@@UAEJUtagVARIANT@@@Z:PROC ; CWnd::accDoDefaultAction
EXTRN	?put_accName@CWnd@@UAEJUtagVARIANT@@PA_W@Z:PROC	; CWnd::put_accName
EXTRN	?put_accValue@CWnd@@UAEJUtagVARIANT@@PA_W@Z:PROC ; CWnd::put_accValue
EXTRN	?SetProxy@CWnd@@UAEJPAUIAccessibleProxy@@@Z:PROC ; CWnd::SetProxy
EXTRN	?CreateAccessibleProxy@CWnd@@UAEJIJPAJ@Z:PROC	; CWnd::CreateAccessibleProxy
EXTRN	?OnCommand@CWnd@@MAEHIJ@Z:PROC			; CWnd::OnCommand
EXTRN	?OnNotify@CWnd@@MAEHIJPAJ@Z:PROC		; CWnd::OnNotify
EXTRN	?GetSuperWndProcAddr@CWnd@@MAEPAP6GJPAUHWND__@@IIJ@ZXZ:PROC ; CWnd::GetSuperWndProcAddr
EXTRN	?PreTranslateMessage@CWnd@@UAEHPAUtagMSG@@@Z:PROC ; CWnd::PreTranslateMessage
EXTRN	?OnAmbientProperty@CWnd@@UAEHPAVCOleControlSite@@JPAUtagVARIANT@@@Z:PROC ; CWnd::OnAmbientProperty
EXTRN	?WindowProc@CWnd@@MAEJIIJ@Z:PROC		; CWnd::WindowProc
EXTRN	?OnWndMsg@CWnd@@MAEHIIJPAJ@Z:PROC		; CWnd::OnWndMsg
EXTRN	?Default@CWnd@@IAEJXZ:PROC			; CWnd::Default
EXTRN	?DefWindowProcA@CWnd@@MAEJIIJ@Z:PROC		; CWnd::DefWindowProcA
EXTRN	?PostNcDestroy@CWnd@@MAEXXZ:PROC		; CWnd::PostNcDestroy
EXTRN	?OnTouchInputs@CWnd@@MAEHIPAUtagTOUCHINPUT@@@Z:PROC ; CWnd::OnTouchInputs
EXTRN	?OnTouchInput@CWnd@@MAEHVCPoint@@HHPAUtagTOUCHINPUT@@@Z:PROC ; CWnd::OnTouchInput
EXTRN	?GetGestureStatus@CWnd@@MAEKVCPoint@@@Z:PROC	; CWnd::GetGestureStatus
EXTRN	?OnGestureZoom@CWnd@@MAEHVCPoint@@J@Z:PROC	; CWnd::OnGestureZoom
EXTRN	?OnGesturePan@CWnd@@MAEHVCPoint@@0@Z:PROC	; CWnd::OnGesturePan
EXTRN	?OnGestureRotate@CWnd@@MAEHVCPoint@@N@Z:PROC	; CWnd::OnGestureRotate
EXTRN	?OnGestureTwoFingerTap@CWnd@@MAEHVCPoint@@@Z:PROC ; CWnd::OnGestureTwoFingerTap
EXTRN	?OnGesturePressAndTap@CWnd@@MAEHVCPoint@@J@Z:PROC ; CWnd::OnGesturePressAndTap
EXTRN	?ResizeDynamicLayout@CWnd@@MAEXXZ:PROC		; CWnd::ResizeDynamicLayout
EXTRN	?CheckAutoCenter@CWnd@@UAEHXZ:PROC		; CWnd::CheckAutoCenter
EXTRN	?IsFrameWnd@CWnd@@UBEHXZ:PROC			; CWnd::IsFrameWnd
EXTRN	?OnFinalRelease@CWnd@@UAEXXZ:PROC		; CWnd::OnFinalRelease
EXTRN	?CreateControlContainer@CWnd@@MAEHPAPAVCOleControlContainer@@@Z:PROC ; CWnd::CreateControlContainer
EXTRN	?CreateControlSite@CWnd@@MAEHPAVCOleControlContainer@@PAPAVCOleControlSite@@IABU_GUID@@@Z:PROC ; CWnd::CreateControlSite
EXTRN	?SetOccDialogInfo@CWnd@@MAEHPAU_AFX_OCC_DIALOG_INFO@@@Z:PROC ; CWnd::SetOccDialogInfo
EXTRN	?GetOccDialogInfo@CWnd@@MAEPAU_AFX_OCC_DIALOG_INFO@@XZ:PROC ; CWnd::GetOccDialogInfo
EXTRN	?GetThisMessageMap@CWnd@@KGPBUAFX_MSGMAP@@XZ:PROC ; CWnd::GetThisMessageMap
EXTRN	?GetMessageMap@CWnd@@MBEPBUAFX_MSGMAP@@XZ:PROC	; CWnd::GetMessageMap
EXTRN	?GetRuntimeClass@CButton@@UBEPAUCRuntimeClass@@XZ:PROC ; CButton::GetRuntimeClass
EXTRN	?Create@CButton@@UAEHPBDKABUtagRECT@@PAVCWnd@@I@Z:PROC ; CButton::Create
EXTRN	?DrawItem@CButton@@UAEXPAUtagDRAWITEMSTRUCT@@@Z:PROC ; CButton::DrawItem
EXTRN	??1CButton@@UAE@XZ:PROC				; CButton::~CButton
EXTRN	?OnChildNotify@CButton@@MAEHIIJPAJ@Z:PROC	; CButton::OnChildNotify
EXTRN	??_ECButton@@UAEPAXI@Z:PROC			; CButton::`vector deleting destructor'
EXTRN	?AfxMessageBox@@YGHPBDII@Z:PROC			; AfxMessageBox
EXTRN	??0CToolTipCtrl@@QAE@XZ:PROC			; CToolTipCtrl::CToolTipCtrl
EXTRN	?AddTool@CToolTipCtrl@@QAEHPAVCWnd@@PBDPBUtagRECT@@I@Z:PROC ; CToolTipCtrl::AddTool
EXTRN	?UpdateTipText@CToolTipCtrl@@QAEXPBDPAVCWnd@@I@Z:PROC ; CToolTipCtrl::UpdateTipText
EXTRN	??1CToolTipCtrl@@UAE@XZ:PROC			; CToolTipCtrl::~CToolTipCtrl
EXTRN	??_ECRGBButton@@UAEPAXI@Z:PROC			; CRGBButton::`vector deleting destructor'
EXTRN	?StartSideBar@CLeftBarDlg@@QAEXXZ:PROC		; CLeftBarDlg::StartSideBar
EXTRN	@__security_check_cookie@4:PROC
EXTRN	___CxxFrameHandler3:PROC
EXTRN	??_7type_info@@6B@:QWORD			; type_info::`vftable'
EXTRN	___security_cookie:DWORD
;	COMDAT ??_R1A@?0A@EA@CRGBButton@@8
rdata$r	SEGMENT
??_R1A@?0A@EA@CRGBButton@@8 DD FLAT:??_R0?AVCRGBButton@@@8 ; CRGBButton::`RTTI Base Class Descriptor at (0,-1,0,64)'
	DD	04H
	DD	00H
	DD	0ffffffffH
	DD	00H
	DD	040H
	DD	FLAT:??_R3CRGBButton@@8
rdata$r	ENDS
;	COMDAT ??_R2CRGBButton@@8
rdata$r	SEGMENT
??_R2CRGBButton@@8 DD FLAT:??_R1A@?0A@EA@CRGBButton@@8	; CRGBButton::`RTTI Base Class Array'
	DD	FLAT:??_R1A@?0A@EA@CButton@@8
	DD	FLAT:??_R1A@?0A@EA@CWnd@@8
	DD	FLAT:??_R1A@?0A@EA@CCmdTarget@@8
	DD	FLAT:??_R1A@?0A@EA@CObject@@8
rdata$r	ENDS
;	COMDAT ??_R3CRGBButton@@8
rdata$r	SEGMENT
??_R3CRGBButton@@8 DD 00H				; CRGBButton::`RTTI Class Hierarchy Descriptor'
	DD	00H
	DD	05H
	DD	FLAT:??_R2CRGBButton@@8
rdata$r	ENDS
;	COMDAT ??_R0?AVCRGBButton@@@8
data$rs	SEGMENT
??_R0?AVCRGBButton@@@8 DD FLAT:??_7type_info@@6B@	; CRGBButton `RTTI Type Descriptor'
	DD	00H
	DB	'.?AVCRGBButton@@', 00H
data$rs	ENDS
;	COMDAT ??_R4CRGBButton@@6B@
rdata$r	SEGMENT
??_R4CRGBButton@@6B@ DD 00H				; CRGBButton::`RTTI Complete Object Locator'
	DD	00H
	DD	00H
	DD	FLAT:??_R0?AVCRGBButton@@@8
	DD	FLAT:??_R3CRGBButton@@8
rdata$r	ENDS
;	COMDAT ?messageMap@?1??GetThisMessageMap@CRGBButton@@KGPBUAFX_MSGMAP@@XZ@4U3@B
CONST	SEGMENT
?messageMap@?1??GetThisMessageMap@CRGBButton@@KGPBUAFX_MSGMAP@@XZ@4U3@B DD FLAT:?GetThisMessageMap@CWnd@@KGPBUAFX_MSGMAP@@XZ ; `CRGBButton::GetThisMessageMap'::`2'::messageMap
	DD	FLAT:?_messageEntries@?1??GetThisMessageMap@CRGBButton@@KGPBUAFX_MSGMAP@@XZ@4QBUAFX_MSGMAP_ENTRY@@B
CONST	ENDS
;	COMDAT ?_messageEntries@?1??GetThisMessageMap@CRGBButton@@KGPBUAFX_MSGMAP@@XZ@4QBUAFX_MSGMAP_ENTRY@@B
CONST	SEGMENT
?_messageEntries@?1??GetThisMessageMap@CRGBButton@@KGPBUAFX_MSGMAP@@XZ@4QBUAFX_MSGMAP_ENTRY@@B DD 0200H ; `CRGBButton::GetThisMessageMap'::`2'::_messageEntries
	DD	00H
	DD	00H
	DD	00H
	DD	036H
	DD	FLAT:?OnMouseMove@CRGBButton@@IAEXIVCPoint@@@Z
	DD	02a1H
	DD	00H
	DD	00H
	DD	00H
	DD	0eH
	DD	FLAT:?OnMouseHover@CRGBButton@@IAEJIJ@Z
	DD	02a3H
	DD	00H
	DD	00H
	DD	00H
	DD	0eH
	DD	FLAT:?OnMouseLeave@CRGBButton@@IAEJIJ@Z
	DD	00H
	DD	00H
	DD	00H
	DD	00H
	DD	00H
	DD	00H
CONST	ENDS
;	COMDAT ??_7CRGBButton@@6B@
CONST	SEGMENT
??_7CRGBButton@@6B@ DD FLAT:??_R4CRGBButton@@6B@	; CRGBButton::`vftable'
	DD	FLAT:?GetRuntimeClass@CButton@@UBEPAUCRuntimeClass@@XZ
	DD	FLAT:??_ECRGBButton@@UAEPAXI@Z
	DD	FLAT:?Serialize@CObject@@UAEXAAVCArchive@@@Z
	DD	FLAT:?AssertValid@CObject@@UBEXXZ
	DD	FLAT:?Dump@CObject@@UBEXAAVCDumpContext@@@Z
	DD	FLAT:?OnCmdMsg@CCmdTarget@@UAEHIHPAXPAUAFX_CMDHANDLERINFO@@@Z
	DD	FLAT:?OnFinalRelease@CWnd@@UAEXXZ
	DD	FLAT:?IsInvokeAllowed@CCmdTarget@@UAEHJ@Z
	DD	FLAT:?GetDispatchIID@CCmdTarget@@UAEHPAU_GUID@@@Z
	DD	FLAT:?GetTypeInfoCount@CCmdTarget@@UAEIXZ
	DD	FLAT:?GetTypeLibCache@CCmdTarget@@UAEPAVCTypeLibCache@@XZ
	DD	FLAT:?GetTypeLib@CCmdTarget@@UAEJKPAPAUITypeLib@@@Z
	DD	FLAT:?GetMessageMap@CRGBButton@@MBEPBUAFX_MSGMAP@@XZ
	DD	FLAT:?GetCommandMap@CCmdTarget@@MBEPBUAFX_OLECMDMAP@@XZ
	DD	FLAT:?GetDispatchMap@CCmdTarget@@MBEPBUAFX_DISPMAP@@XZ
	DD	FLAT:?GetConnectionMap@CCmdTarget@@MBEPBUAFX_CONNECTIONMAP@@XZ
	DD	FLAT:?GetInterfaceMap@CWnd@@MBEPBUAFX_INTERFACEMAP@@XZ
	DD	FLAT:?GetEventSinkMap@CCmdTarget@@MBEPBUAFX_EVENTSINKMAP@@XZ
	DD	FLAT:?OnCreateAggregates@CCmdTarget@@UAEHXZ
	DD	FLAT:?GetInterfaceHook@CCmdTarget@@UAEPAUIUnknown@@PBX@Z
	DD	FLAT:?GetExtraConnectionPoints@CCmdTarget@@MAEHPAVCPtrArray@@@Z
	DD	FLAT:?GetConnectionHook@CCmdTarget@@MAEPAUIConnectionPoint@@ABU_GUID@@@Z
	DD	FLAT:?PreSubclassWindow@CRGBButton@@MAEXXZ
	DD	FLAT:?Create@CWnd@@UAEHPBD0KABUtagRECT@@PAV1@IPAUCCreateContext@@@Z
	DD	FLAT:?CreateEx@CWnd@@UAEHKPBD0KABUtagRECT@@PAV1@IPAX@Z
	DD	FLAT:?CreateEx@CWnd@@UAEHKPBD0KHHHHPAUHWND__@@PAUHMENU__@@PAX@Z
	DD	FLAT:?DestroyWindow@CWnd@@UAEHXZ
	DD	FLAT:?PreCreateWindow@CWnd@@UAEHAAUtagCREATESTRUCTA@@@Z
	DD	FLAT:?CalcWindowRect@CWnd@@UAEXPAUtagRECT@@I@Z
	DD	FLAT:?GetMenu@CWnd@@UBEPAVCMenu@@XZ
	DD	FLAT:?SetMenu@CWnd@@UAEHPAVCMenu@@@Z
	DD	FLAT:?OnToolHitTest@CWnd@@UBEHVCPoint@@PAUtagTOOLINFOA@@@Z
	DD	FLAT:?GetScrollBarCtrl@CWnd@@UBEPAVCScrollBar@@H@Z
	DD	FLAT:?WinHelpA@CWnd@@UAEXKI@Z
	DD	FLAT:?HtmlHelpA@CWnd@@UAEXKI@Z
	DD	FLAT:?WinHelpInternal@CWnd@@UAEXKI@Z
	DD	FLAT:?ContinueModal@CWnd@@UAEHXZ
	DD	FLAT:?EndModalLoop@CWnd@@UAEXH@Z
	DD	FLAT:?OnDrawIconicThumbnailOrLivePreview@CWnd@@UAEXAAVCDC@@VCRect@@VCSize@@HAAH@Z
	DD	FLAT:?EnsureStdObj@CWnd@@UAEJXZ
	DD	FLAT:?get_accParent@CWnd@@UAEJPAPAUIDispatch@@@Z
	DD	FLAT:?get_accChildCount@CWnd@@UAEJPAJ@Z
	DD	FLAT:?get_accChild@CWnd@@UAEJUtagVARIANT@@PAPAUIDispatch@@@Z
	DD	FLAT:?get_accName@CWnd@@UAEJUtagVARIANT@@PAPA_W@Z
	DD	FLAT:?get_accValue@CWnd@@UAEJUtagVARIANT@@PAPA_W@Z
	DD	FLAT:?get_accDescription@CWnd@@UAEJUtagVARIANT@@PAPA_W@Z
	DD	FLAT:?get_accRole@CWnd@@UAEJUtagVARIANT@@PAU2@@Z
	DD	FLAT:?get_accState@CWnd@@UAEJUtagVARIANT@@PAU2@@Z
	DD	FLAT:?get_accHelp@CWnd@@UAEJUtagVARIANT@@PAPA_W@Z
	DD	FLAT:?get_accHelpTopic@CWnd@@UAEJPAPA_WUtagVARIANT@@PAJ@Z
	DD	FLAT:?get_accKeyboardShortcut@CWnd@@UAEJUtagVARIANT@@PAPA_W@Z
	DD	FLAT:?get_accFocus@CWnd@@UAEJPAUtagVARIANT@@@Z
	DD	FLAT:?get_accSelection@CWnd@@UAEJPAUtagVARIANT@@@Z
	DD	FLAT:?get_accDefaultAction@CWnd@@UAEJUtagVARIANT@@PAPA_W@Z
	DD	FLAT:?accSelect@CWnd@@UAEJJUtagVARIANT@@@Z
	DD	FLAT:?accLocation@CWnd@@UAEJPAJ000UtagVARIANT@@@Z
	DD	FLAT:?accNavigate@CWnd@@UAEJJUtagVARIANT@@PAU2@@Z
	DD	FLAT:?accHitTest@CWnd@@UAEJJJPAUtagVARIANT@@@Z
	DD	FLAT:?accDoDefaultAction@CWnd@@UAEJUtagVARIANT@@@Z
	DD	FLAT:?put_accName@CWnd@@UAEJUtagVARIANT@@PA_W@Z
	DD	FLAT:?put_accValue@CWnd@@UAEJUtagVARIANT@@PA_W@Z
	DD	FLAT:?SetProxy@CWnd@@UAEJPAUIAccessibleProxy@@@Z
	DD	FLAT:?CreateAccessibleProxy@CWnd@@UAEJIJPAJ@Z
	DD	FLAT:?OnCommand@CWnd@@MAEHIJ@Z
	DD	FLAT:?OnNotify@CWnd@@MAEHIJPAJ@Z
	DD	FLAT:?GetSuperWndProcAddr@CWnd@@MAEPAP6GJPAUHWND__@@IIJ@ZXZ
	DD	FLAT:?DoDataExchange@CWnd@@MAEXPAVCDataExchange@@@Z
	DD	FLAT:?BeginModalState@CWnd@@UAEXXZ
	DD	FLAT:?EndModalState@CWnd@@UAEXXZ
	DD	FLAT:?PreTranslateMessage@CRGBButton@@UAEHPAUtagMSG@@@Z
	DD	FLAT:?OnAmbientProperty@CWnd@@UAEHPAVCOleControlSite@@JPAUtagVARIANT@@@Z
	DD	FLAT:?WindowProc@CWnd@@MAEJIIJ@Z
	DD	FLAT:?OnWndMsg@CWnd@@MAEHIIJPAJ@Z
	DD	FLAT:?DefWindowProcA@CWnd@@MAEJIIJ@Z
	DD	FLAT:?PostNcDestroy@CWnd@@MAEXXZ
	DD	FLAT:?OnChildNotify@CButton@@MAEHIIJPAJ@Z
	DD	FLAT:?OnTouchInputs@CWnd@@MAEHIPAUtagTOUCHINPUT@@@Z
	DD	FLAT:?OnTouchInput@CWnd@@MAEHVCPoint@@HHPAUtagTOUCHINPUT@@@Z
	DD	FLAT:?GetGestureStatus@CWnd@@MAEKVCPoint@@@Z
	DD	FLAT:?OnGestureZoom@CWnd@@MAEHVCPoint@@J@Z
	DD	FLAT:?OnGesturePan@CWnd@@MAEHVCPoint@@0@Z
	DD	FLAT:?OnGestureRotate@CWnd@@MAEHVCPoint@@N@Z
	DD	FLAT:?OnGestureTwoFingerTap@CWnd@@MAEHVCPoint@@@Z
	DD	FLAT:?OnGesturePressAndTap@CWnd@@MAEHVCPoint@@J@Z
	DD	FLAT:?ResizeDynamicLayout@CWnd@@MAEXXZ
	DD	FLAT:?CheckAutoCenter@CWnd@@UAEHXZ
	DD	FLAT:?IsFrameWnd@CWnd@@UBEHXZ
	DD	FLAT:?CreateControlContainer@CWnd@@MAEHPAPAVCOleControlContainer@@@Z
	DD	FLAT:?CreateControlSite@CWnd@@MAEHPAVCOleControlContainer@@PAPAVCOleControlSite@@IABU_GUID@@@Z
	DD	FLAT:?SetOccDialogInfo@CWnd@@MAEHPAU_AFX_OCC_DIALOG_INFO@@@Z
	DD	FLAT:?GetOccDialogInfo@CWnd@@MAEPAU_AFX_OCC_DIALOG_INFO@@XZ
	DD	FLAT:?Create@CButton@@UAEHPBDKABUtagRECT@@PAVCWnd@@I@Z
	DD	FLAT:?DrawItem@CRGBButton@@UAEXPAUtagDRAWITEMSTRUCT@@@Z
CONST	ENDS
;	COMDAT ??_R1A@?0A@EA@CButton@@8
rdata$r	SEGMENT
??_R1A@?0A@EA@CButton@@8 DD FLAT:??_R0?AVCButton@@@8	; CButton::`RTTI Base Class Descriptor at (0,-1,0,64)'
	DD	03H
	DD	00H
	DD	0ffffffffH
	DD	00H
	DD	040H
	DD	FLAT:??_R3CButton@@8
rdata$r	ENDS
;	COMDAT ??_R2CButton@@8
rdata$r	SEGMENT
??_R2CButton@@8 DD FLAT:??_R1A@?0A@EA@CButton@@8	; CButton::`RTTI Base Class Array'
	DD	FLAT:??_R1A@?0A@EA@CWnd@@8
	DD	FLAT:??_R1A@?0A@EA@CCmdTarget@@8
	DD	FLAT:??_R1A@?0A@EA@CObject@@8
rdata$r	ENDS
;	COMDAT ??_R3CButton@@8
rdata$r	SEGMENT
??_R3CButton@@8 DD 00H					; CButton::`RTTI Class Hierarchy Descriptor'
	DD	00H
	DD	04H
	DD	FLAT:??_R2CButton@@8
rdata$r	ENDS
;	COMDAT ??_R0?AVCButton@@@8
data$rs	SEGMENT
??_R0?AVCButton@@@8 DD FLAT:??_7type_info@@6B@		; CButton `RTTI Type Descriptor'
	DD	00H
	DB	'.?AVCButton@@', 00H
data$rs	ENDS
;	COMDAT ??_R4CButton@@6B@
rdata$r	SEGMENT
??_R4CButton@@6B@ DD 00H				; CButton::`RTTI Complete Object Locator'
	DD	00H
	DD	00H
	DD	FLAT:??_R0?AVCButton@@@8
	DD	FLAT:??_R3CButton@@8
rdata$r	ENDS
;	COMDAT ??_R2CCmdTarget@@8
rdata$r	SEGMENT
??_R2CCmdTarget@@8 DD FLAT:??_R1A@?0A@EA@CCmdTarget@@8	; CCmdTarget::`RTTI Base Class Array'
	DD	FLAT:??_R1A@?0A@EA@CObject@@8
rdata$r	ENDS
;	COMDAT ??_R3CCmdTarget@@8
rdata$r	SEGMENT
??_R3CCmdTarget@@8 DD 00H				; CCmdTarget::`RTTI Class Hierarchy Descriptor'
	DD	00H
	DD	02H
	DD	FLAT:??_R2CCmdTarget@@8
rdata$r	ENDS
;	COMDAT ??_R0?AVCCmdTarget@@@8
data$rs	SEGMENT
??_R0?AVCCmdTarget@@@8 DD FLAT:??_7type_info@@6B@	; CCmdTarget `RTTI Type Descriptor'
	DD	00H
	DB	'.?AVCCmdTarget@@', 00H
data$rs	ENDS
;	COMDAT ??_R1A@?0A@EA@CCmdTarget@@8
rdata$r	SEGMENT
??_R1A@?0A@EA@CCmdTarget@@8 DD FLAT:??_R0?AVCCmdTarget@@@8 ; CCmdTarget::`RTTI Base Class Descriptor at (0,-1,0,64)'
	DD	01H
	DD	00H
	DD	0ffffffffH
	DD	00H
	DD	040H
	DD	FLAT:??_R3CCmdTarget@@8
rdata$r	ENDS
;	COMDAT ??_R2CWnd@@8
rdata$r	SEGMENT
??_R2CWnd@@8 DD	FLAT:??_R1A@?0A@EA@CWnd@@8		; CWnd::`RTTI Base Class Array'
	DD	FLAT:??_R1A@?0A@EA@CCmdTarget@@8
	DD	FLAT:??_R1A@?0A@EA@CObject@@8
rdata$r	ENDS
;	COMDAT ??_R3CWnd@@8
rdata$r	SEGMENT
??_R3CWnd@@8 DD	00H					; CWnd::`RTTI Class Hierarchy Descriptor'
	DD	00H
	DD	03H
	DD	FLAT:??_R2CWnd@@8
rdata$r	ENDS
;	COMDAT ??_R0?AVCWnd@@@8
data$rs	SEGMENT
??_R0?AVCWnd@@@8 DD FLAT:??_7type_info@@6B@		; CWnd `RTTI Type Descriptor'
	DD	00H
	DB	'.?AVCWnd@@', 00H
data$rs	ENDS
;	COMDAT ??_R1A@?0A@EA@CWnd@@8
rdata$r	SEGMENT
??_R1A@?0A@EA@CWnd@@8 DD FLAT:??_R0?AVCWnd@@@8		; CWnd::`RTTI Base Class Descriptor at (0,-1,0,64)'
	DD	02H
	DD	00H
	DD	0ffffffffH
	DD	00H
	DD	040H
	DD	FLAT:??_R3CWnd@@8
rdata$r	ENDS
;	COMDAT ??_R1A@?0A@EA@CPen@@8
rdata$r	SEGMENT
??_R1A@?0A@EA@CPen@@8 DD FLAT:??_R0?AVCPen@@@8		; CPen::`RTTI Base Class Descriptor at (0,-1,0,64)'
	DD	02H
	DD	00H
	DD	0ffffffffH
	DD	00H
	DD	040H
	DD	FLAT:??_R3CPen@@8
rdata$r	ENDS
;	COMDAT ??_R2CPen@@8
rdata$r	SEGMENT
??_R2CPen@@8 DD	FLAT:??_R1A@?0A@EA@CPen@@8		; CPen::`RTTI Base Class Array'
	DD	FLAT:??_R1A@?0A@EA@CGdiObject@@8
	DD	FLAT:??_R1A@?0A@EA@CObject@@8
rdata$r	ENDS
;	COMDAT ??_R3CPen@@8
rdata$r	SEGMENT
??_R3CPen@@8 DD	00H					; CPen::`RTTI Class Hierarchy Descriptor'
	DD	00H
	DD	03H
	DD	FLAT:??_R2CPen@@8
rdata$r	ENDS
;	COMDAT ??_R0?AVCPen@@@8
data$rs	SEGMENT
??_R0?AVCPen@@@8 DD FLAT:??_7type_info@@6B@		; CPen `RTTI Type Descriptor'
	DD	00H
	DB	'.?AVCPen@@', 00H
data$rs	ENDS
;	COMDAT ??_R4CPen@@6B@
rdata$r	SEGMENT
??_R4CPen@@6B@ DD 00H					; CPen::`RTTI Complete Object Locator'
	DD	00H
	DD	00H
	DD	FLAT:??_R0?AVCPen@@@8
	DD	FLAT:??_R3CPen@@8
rdata$r	ENDS
;	COMDAT ??_R1A@?0A@EA@CGdiObject@@8
rdata$r	SEGMENT
??_R1A@?0A@EA@CGdiObject@@8 DD FLAT:??_R0?AVCGdiObject@@@8 ; CGdiObject::`RTTI Base Class Descriptor at (0,-1,0,64)'
	DD	01H
	DD	00H
	DD	0ffffffffH
	DD	00H
	DD	040H
	DD	FLAT:??_R3CGdiObject@@8
rdata$r	ENDS
;	COMDAT ??_R2CGdiObject@@8
rdata$r	SEGMENT
??_R2CGdiObject@@8 DD FLAT:??_R1A@?0A@EA@CGdiObject@@8	; CGdiObject::`RTTI Base Class Array'
	DD	FLAT:??_R1A@?0A@EA@CObject@@8
rdata$r	ENDS
;	COMDAT ??_R3CGdiObject@@8
rdata$r	SEGMENT
??_R3CGdiObject@@8 DD 00H				; CGdiObject::`RTTI Class Hierarchy Descriptor'
	DD	00H
	DD	02H
	DD	FLAT:??_R2CGdiObject@@8
rdata$r	ENDS
;	COMDAT ??_R0?AVCGdiObject@@@8
data$rs	SEGMENT
??_R0?AVCGdiObject@@@8 DD FLAT:??_7type_info@@6B@	; CGdiObject `RTTI Type Descriptor'
	DD	00H
	DB	'.?AVCGdiObject@@', 00H
data$rs	ENDS
;	COMDAT ??_R4CGdiObject@@6B@
rdata$r	SEGMENT
??_R4CGdiObject@@6B@ DD 00H				; CGdiObject::`RTTI Complete Object Locator'
	DD	00H
	DD	00H
	DD	FLAT:??_R0?AVCGdiObject@@@8
	DD	FLAT:??_R3CGdiObject@@8
rdata$r	ENDS
;	COMDAT ??_R1A@?0A@EA@CObject@@8
rdata$r	SEGMENT
??_R1A@?0A@EA@CObject@@8 DD FLAT:??_R0?AVCObject@@@8	; CObject::`RTTI Base Class Descriptor at (0,-1,0,64)'
	DD	00H
	DD	00H
	DD	0ffffffffH
	DD	00H
	DD	040H
	DD	FLAT:??_R3CObject@@8
rdata$r	ENDS
;	COMDAT ??_R2CObject@@8
rdata$r	SEGMENT
??_R2CObject@@8 DD FLAT:??_R1A@?0A@EA@CObject@@8	; CObject::`RTTI Base Class Array'
rdata$r	ENDS
;	COMDAT ??_R3CObject@@8
rdata$r	SEGMENT
??_R3CObject@@8 DD 00H					; CObject::`RTTI Class Hierarchy Descriptor'
	DD	00H
	DD	01H
	DD	FLAT:??_R2CObject@@8
rdata$r	ENDS
;	COMDAT ??_R0?AVCObject@@@8
data$rs	SEGMENT
??_R0?AVCObject@@@8 DD FLAT:??_7type_info@@6B@		; CObject `RTTI Type Descriptor'
	DD	00H
	DB	'.?AVCObject@@', 00H
data$rs	ENDS
;	COMDAT ??_C@_0N@OMEMOKLE@?$CFTs?5?$CI?$CFTs?3?$CFd?$CJ@
CONST	SEGMENT
??_C@_0N@OMEMOKLE@?$CFTs?5?$CI?$CFTs?3?$CFd?$CJ@ DB '%Ts (%Ts:%d)', 00H ; `string'
CONST	ENDS
;	COMDAT ??_C@_0BB@HBOOMJBF@?$CFTs?5?$CI?$CFTs?3?$CFd?$CJ?6?$CFTs@
CONST	SEGMENT
??_C@_0BB@HBOOMJBF@?$CFTs?5?$CI?$CFTs?3?$CFd?$CJ?6?$CFTs@ DB '%Ts (%Ts:%d'
	DB	')', 0aH, '%Ts', 00H				; `string'
CONST	ENDS
;	COMDAT ??_C@_0BP@OIEOKIDM@Exception?5thrown?5in?5destructor@
CONST	SEGMENT
??_C@_0BP@OIEOKIDM@Exception?5thrown?5in?5destructor@ DB 'Exception throw'
	DB	'n in destructor', 00H			; `string'
CONST	ENDS
;	COMDAT ??_C@_0HD@JJCHHHNK@C?3?2Program?5Files?5?$CIx86?$CJ?2Microsof@
CONST	SEGMENT
??_C@_0HD@JJCHHHNK@C?3?2Program?5Files?5?$CIx86?$CJ?2Microsof@ DB 'C:\Pro'
	DB	'gram Files (x86)\Microsoft Visual Studio\2019\Community\VC\To'
	DB	'ols\MSVC\14.29.30133\atlmfc\include\afxwin1.inl', 00H ; `string'
CONST	ENDS
;	COMDAT ??_7CButton@@6B@
CONST	SEGMENT
??_7CButton@@6B@ DD FLAT:??_R4CButton@@6B@		; CButton::`vftable'
	DD	FLAT:?GetRuntimeClass@CButton@@UBEPAUCRuntimeClass@@XZ
	DD	FLAT:??_ECButton@@UAEPAXI@Z
	DD	FLAT:?Serialize@CObject@@UAEXAAVCArchive@@@Z
	DD	FLAT:?AssertValid@CObject@@UBEXXZ
	DD	FLAT:?Dump@CObject@@UBEXAAVCDumpContext@@@Z
	DD	FLAT:?OnCmdMsg@CCmdTarget@@UAEHIHPAXPAUAFX_CMDHANDLERINFO@@@Z
	DD	FLAT:?OnFinalRelease@CWnd@@UAEXXZ
	DD	FLAT:?IsInvokeAllowed@CCmdTarget@@UAEHJ@Z
	DD	FLAT:?GetDispatchIID@CCmdTarget@@UAEHPAU_GUID@@@Z
	DD	FLAT:?GetTypeInfoCount@CCmdTarget@@UAEIXZ
	DD	FLAT:?GetTypeLibCache@CCmdTarget@@UAEPAVCTypeLibCache@@XZ
	DD	FLAT:?GetTypeLib@CCmdTarget@@UAEJKPAPAUITypeLib@@@Z
	DD	FLAT:?GetMessageMap@CWnd@@MBEPBUAFX_MSGMAP@@XZ
	DD	FLAT:?GetCommandMap@CCmdTarget@@MBEPBUAFX_OLECMDMAP@@XZ
	DD	FLAT:?GetDispatchMap@CCmdTarget@@MBEPBUAFX_DISPMAP@@XZ
	DD	FLAT:?GetConnectionMap@CCmdTarget@@MBEPBUAFX_CONNECTIONMAP@@XZ
	DD	FLAT:?GetInterfaceMap@CWnd@@MBEPBUAFX_INTERFACEMAP@@XZ
	DD	FLAT:?GetEventSinkMap@CCmdTarget@@MBEPBUAFX_EVENTSINKMAP@@XZ
	DD	FLAT:?OnCreateAggregates@CCmdTarget@@UAEHXZ
	DD	FLAT:?GetInterfaceHook@CCmdTarget@@UAEPAUIUnknown@@PBX@Z
	DD	FLAT:?GetExtraConnectionPoints@CCmdTarget@@MAEHPAVCPtrArray@@@Z
	DD	FLAT:?GetConnectionHook@CCmdTarget@@MAEPAUIConnectionPoint@@ABU_GUID@@@Z
	DD	FLAT:?PreSubclassWindow@CWnd@@UAEXXZ
	DD	FLAT:?Create@CWnd@@UAEHPBD0KABUtagRECT@@PAV1@IPAUCCreateContext@@@Z
	DD	FLAT:?CreateEx@CWnd@@UAEHKPBD0KABUtagRECT@@PAV1@IPAX@Z
	DD	FLAT:?CreateEx@CWnd@@UAEHKPBD0KHHHHPAUHWND__@@PAUHMENU__@@PAX@Z
	DD	FLAT:?DestroyWindow@CWnd@@UAEHXZ
	DD	FLAT:?PreCreateWindow@CWnd@@UAEHAAUtagCREATESTRUCTA@@@Z
	DD	FLAT:?CalcWindowRect@CWnd@@UAEXPAUtagRECT@@I@Z
	DD	FLAT:?GetMenu@CWnd@@UBEPAVCMenu@@XZ
	DD	FLAT:?SetMenu@CWnd@@UAEHPAVCMenu@@@Z
	DD	FLAT:?OnToolHitTest@CWnd@@UBEHVCPoint@@PAUtagTOOLINFOA@@@Z
	DD	FLAT:?GetScrollBarCtrl@CWnd@@UBEPAVCScrollBar@@H@Z
	DD	FLAT:?WinHelpA@CWnd@@UAEXKI@Z
	DD	FLAT:?HtmlHelpA@CWnd@@UAEXKI@Z
	DD	FLAT:?WinHelpInternal@CWnd@@UAEXKI@Z
	DD	FLAT:?ContinueModal@CWnd@@UAEHXZ
	DD	FLAT:?EndModalLoop@CWnd@@UAEXH@Z
	DD	FLAT:?OnDrawIconicThumbnailOrLivePreview@CWnd@@UAEXAAVCDC@@VCRect@@VCSize@@HAAH@Z
	DD	FLAT:?EnsureStdObj@CWnd@@UAEJXZ
	DD	FLAT:?get_accParent@CWnd@@UAEJPAPAUIDispatch@@@Z
	DD	FLAT:?get_accChildCount@CWnd@@UAEJPAJ@Z
	DD	FLAT:?get_accChild@CWnd@@UAEJUtagVARIANT@@PAPAUIDispatch@@@Z
	DD	FLAT:?get_accName@CWnd@@UAEJUtagVARIANT@@PAPA_W@Z
	DD	FLAT:?get_accValue@CWnd@@UAEJUtagVARIANT@@PAPA_W@Z
	DD	FLAT:?get_accDescription@CWnd@@UAEJUtagVARIANT@@PAPA_W@Z
	DD	FLAT:?get_accRole@CWnd@@UAEJUtagVARIANT@@PAU2@@Z
	DD	FLAT:?get_accState@CWnd@@UAEJUtagVARIANT@@PAU2@@Z
	DD	FLAT:?get_accHelp@CWnd@@UAEJUtagVARIANT@@PAPA_W@Z
	DD	FLAT:?get_accHelpTopic@CWnd@@UAEJPAPA_WUtagVARIANT@@PAJ@Z
	DD	FLAT:?get_accKeyboardShortcut@CWnd@@UAEJUtagVARIANT@@PAPA_W@Z
	DD	FLAT:?get_accFocus@CWnd@@UAEJPAUtagVARIANT@@@Z
	DD	FLAT:?get_accSelection@CWnd@@UAEJPAUtagVARIANT@@@Z
	DD	FLAT:?get_accDefaultAction@CWnd@@UAEJUtagVARIANT@@PAPA_W@Z
	DD	FLAT:?accSelect@CWnd@@UAEJJUtagVARIANT@@@Z
	DD	FLAT:?accLocation@CWnd@@UAEJPAJ000UtagVARIANT@@@Z
	DD	FLAT:?accNavigate@CWnd@@UAEJJUtagVARIANT@@PAU2@@Z
	DD	FLAT:?accHitTest@CWnd@@UAEJJJPAUtagVARIANT@@@Z
	DD	FLAT:?accDoDefaultAction@CWnd@@UAEJUtagVARIANT@@@Z
	DD	FLAT:?put_accName@CWnd@@UAEJUtagVARIANT@@PA_W@Z
	DD	FLAT:?put_accValue@CWnd@@UAEJUtagVARIANT@@PA_W@Z
	DD	FLAT:?SetProxy@CWnd@@UAEJPAUIAccessibleProxy@@@Z
	DD	FLAT:?CreateAccessibleProxy@CWnd@@UAEJIJPAJ@Z
	DD	FLAT:?OnCommand@CWnd@@MAEHIJ@Z
	DD	FLAT:?OnNotify@CWnd@@MAEHIJPAJ@Z
	DD	FLAT:?GetSuperWndProcAddr@CWnd@@MAEPAP6GJPAUHWND__@@IIJ@ZXZ
	DD	FLAT:?DoDataExchange@CWnd@@MAEXPAVCDataExchange@@@Z
	DD	FLAT:?BeginModalState@CWnd@@UAEXXZ
	DD	FLAT:?EndModalState@CWnd@@UAEXXZ
	DD	FLAT:?PreTranslateMessage@CWnd@@UAEHPAUtagMSG@@@Z
	DD	FLAT:?OnAmbientProperty@CWnd@@UAEHPAVCOleControlSite@@JPAUtagVARIANT@@@Z
	DD	FLAT:?WindowProc@CWnd@@MAEJIIJ@Z
	DD	FLAT:?OnWndMsg@CWnd@@MAEHIIJPAJ@Z
	DD	FLAT:?DefWindowProcA@CWnd@@MAEJIIJ@Z
	DD	FLAT:?PostNcDestroy@CWnd@@MAEXXZ
	DD	FLAT:?OnChildNotify@CButton@@MAEHIIJPAJ@Z
	DD	FLAT:?OnTouchInputs@CWnd@@MAEHIPAUtagTOUCHINPUT@@@Z
	DD	FLAT:?OnTouchInput@CWnd@@MAEHVCPoint@@HHPAUtagTOUCHINPUT@@@Z
	DD	FLAT:?GetGestureStatus@CWnd@@MAEKVCPoint@@@Z
	DD	FLAT:?OnGestureZoom@CWnd@@MAEHVCPoint@@J@Z
	DD	FLAT:?OnGesturePan@CWnd@@MAEHVCPoint@@0@Z
	DD	FLAT:?OnGestureRotate@CWnd@@MAEHVCPoint@@N@Z
	DD	FLAT:?OnGestureTwoFingerTap@CWnd@@MAEHVCPoint@@@Z
	DD	FLAT:?OnGesturePressAndTap@CWnd@@MAEHVCPoint@@J@Z
	DD	FLAT:?ResizeDynamicLayout@CWnd@@MAEXXZ
	DD	FLAT:?CheckAutoCenter@CWnd@@UAEHXZ
	DD	FLAT:?IsFrameWnd@CWnd@@UBEHXZ
	DD	FLAT:?CreateControlContainer@CWnd@@MAEHPAPAVCOleControlContainer@@@Z
	DD	FLAT:?CreateControlSite@CWnd@@MAEHPAVCOleControlContainer@@PAPAVCOleControlSite@@IABU_GUID@@@Z
	DD	FLAT:?SetOccDialogInfo@CWnd@@MAEHPAU_AFX_OCC_DIALOG_INFO@@@Z
	DD	FLAT:?GetOccDialogInfo@CWnd@@MAEPAU_AFX_OCC_DIALOG_INFO@@XZ
	DD	FLAT:?Create@CButton@@UAEHPBDKABUtagRECT@@PAVCWnd@@I@Z
	DD	FLAT:?DrawItem@CButton@@UAEXPAUtagDRAWITEMSTRUCT@@@Z
CONST	ENDS
;	COMDAT ??_7CPen@@6B@
CONST	SEGMENT
??_7CPen@@6B@ DD FLAT:??_R4CPen@@6B@			; CPen::`vftable'
	DD	FLAT:?GetRuntimeClass@CPen@@UBEPAUCRuntimeClass@@XZ
	DD	FLAT:??_ECPen@@UAEPAXI@Z
	DD	FLAT:?Serialize@CObject@@UAEXAAVCArchive@@@Z
	DD	FLAT:?AssertValid@CObject@@UBEXXZ
	DD	FLAT:?Dump@CObject@@UBEXAAVCDumpContext@@@Z
CONST	ENDS
;	COMDAT ??_7CGdiObject@@6B@
CONST	SEGMENT
??_7CGdiObject@@6B@ DD FLAT:??_R4CGdiObject@@6B@	; CGdiObject::`vftable'
	DD	FLAT:?GetRuntimeClass@CGdiObject@@UBEPAUCRuntimeClass@@XZ
	DD	FLAT:??_ECGdiObject@@UAEPAXI@Z
	DD	FLAT:?Serialize@CObject@@UAEXAAVCArchive@@@Z
	DD	FLAT:?AssertValid@CObject@@UBEXXZ
	DD	FLAT:?Dump@CObject@@UBEXAAVCDumpContext@@@Z
CONST	ENDS
;	COMDAT ??_R0PAVCException@@@8
data$r	SEGMENT
??_R0PAVCException@@@8 DD FLAT:??_7type_info@@6B@	; CException * `RTTI Type Descriptor'
	DD	00H
	DB	'.PAVCException@@', 00H
data$r	ENDS
;	COMDAT xdata$x
xdata$x	SEGMENT
__unwindtable$?DrawItem@CRGBButton@@UAEXPAUtagDRAWITEMSTRUCT@@@Z DD 0ffffffffH
	DD	FLAT:__unwindfunclet$?DrawItem@CRGBButton@@UAEXPAUtagDRAWITEMSTRUCT@@@Z$0
__ehfuncinfo$?DrawItem@CRGBButton@@UAEXPAUtagDRAWITEMSTRUCT@@@Z DD 019930522H
	DD	01H
	DD	FLAT:__unwindtable$?DrawItem@CRGBButton@@UAEXPAUtagDRAWITEMSTRUCT@@@Z
	DD	2 DUP(00H)
	DD	2 DUP(00H)
	DD	00H
	DD	01H
xdata$x	ENDS
;	COMDAT xdata$x
xdata$x	SEGMENT
__unwindtable$?DrawButtonRect@CRGBButton@@QAEXPAVCDC@@VCRect@@I@Z DD 0ffffffffH
	DD	FLAT:__unwindfunclet$?DrawButtonRect@CRGBButton@@QAEXPAVCDC@@VCRect@@I@Z$0
__ehfuncinfo$?DrawButtonRect@CRGBButton@@QAEXPAVCDC@@VCRect@@I@Z DD 019930522H
	DD	01H
	DD	FLAT:__unwindtable$?DrawButtonRect@CRGBButton@@QAEXPAVCDC@@VCRect@@I@Z
	DD	2 DUP(00H)
	DD	2 DUP(00H)
	DD	00H
	DD	01H
xdata$x	ENDS
;	COMDAT xdata$x
xdata$x	SEGMENT
__unwindtable$?SetTooltipText@CRGBButton@@QAEXHH@Z DD 0ffffffffH
	DD	FLAT:__unwindfunclet$?SetTooltipText@CRGBButton@@QAEXHH@Z$0
__ehfuncinfo$?SetTooltipText@CRGBButton@@QAEXHH@Z DD 019930522H
	DD	01H
	DD	FLAT:__unwindtable$?SetTooltipText@CRGBButton@@QAEXHH@Z
	DD	2 DUP(00H)
	DD	2 DUP(00H)
	DD	00H
	DD	01H
xdata$x	ENDS
;	COMDAT xdata$x
xdata$x	SEGMENT
__unwindtable$??0CRGBButton@@QAE@XZ DD 0ffffffffH
	DD	FLAT:__unwindfunclet$??0CRGBButton@@QAE@XZ$0
__ehfuncinfo$??0CRGBButton@@QAE@XZ DD 019930522H
	DD	01H
	DD	FLAT:__unwindtable$??0CRGBButton@@QAE@XZ
	DD	2 DUP(00H)
	DD	2 DUP(00H)
	DD	00H
	DD	01H
xdata$x	ENDS
;	COMDAT xdata$x
xdata$x	SEGMENT
__catchsym$??1CGdiObject@@UAE@XZ$3 DD 00H
	DD	FLAT:??_R0PAVCException@@@8
	DD	0fffffde4H
	DD	FLAT:__catch$??1CGdiObject@@UAE@XZ$0
__tryblocktable$??1CGdiObject@@UAE@XZ DD 00H
	DD	00H
	DD	02H
	DD	01H
	DD	FLAT:__catchsym$??1CGdiObject@@UAE@XZ$3
__unwindtable$??1CGdiObject@@UAE@XZ DD 0ffffffffH
	DD	00H
	DD	0ffffffffH
	DD	00H
	DD	01H
	DD	FLAT:__unwindfunclet$??1CGdiObject@@UAE@XZ$2
__ehfuncinfo$??1CGdiObject@@UAE@XZ DD 019930522H
	DD	03H
	DD	FLAT:__unwindtable$??1CGdiObject@@UAE@XZ
	DD	01H
	DD	FLAT:__tryblocktable$??1CGdiObject@@UAE@XZ
	DD	2 DUP(00H)
	DD	00H
	DD	05H
xdata$x	ENDS
; Function compile flags: /Ogtp
; File D:\git\src\IBK\IBK_DRFN\ProjSrc\SrcDrfn\Chart\MULTICHART\control\RGBButton.cpp
; File C:\Program Files (x86)\Microsoft Visual Studio\2019\Community\VC\Tools\MSVC\14.29.30133\atlmfc\include\afx.inl
;	COMDAT ??_GCRGBButton@@UAEPAXI@Z
_TEXT	SEGMENT
___flags$ = 8						; size = 4
??_GCRGBButton@@UAEPAXI@Z PROC				; CRGBButton::`scalar deleting destructor', COMDAT
; _this$ = ecx
  00000	55		 push	 ebp
  00001	8b ec		 mov	 ebp, esp
; File D:\git\src\IBK\IBK_DRFN\ProjSrc\SrcDrfn\Chart\MULTICHART\control\RGBButton.cpp

; 37   : {

  00003	56		 push	 esi
  00004	8b f1		 mov	 esi, ecx

; 38   : }

  00006	8d 8e 44 01 00
	00		 lea	 ecx, DWORD PTR [esi+324]
  0000c	c7 06 00 00 00
	00		 mov	 DWORD PTR [esi], OFFSET ??_7CRGBButton@@6B@
  00012	ff 15 00 00 00
	00		 call	 DWORD PTR __imp_??1?$CStringT@DV?$StrTraitMFC_DLL@DV?$ChTraitsCRT@D@ATL@@@@@ATL@@QAE@XZ
  00018	8d 8e 80 00 00
	00		 lea	 ecx, DWORD PTR [esi+128]
  0001e	e8 00 00 00 00	 call	 ??1CToolTipCtrl@@UAE@XZ	; CToolTipCtrl::~CToolTipCtrl
  00023	8b ce		 mov	 ecx, esi
  00025	e8 00 00 00 00	 call	 ??1CButton@@UAE@XZ	; CButton::~CButton
  0002a	8b 45 08	 mov	 eax, DWORD PTR ___flags$[ebp]
  0002d	a8 01		 test	 al, 1
  0002f	74 22		 je	 SHORT $LN12@scalar
  00031	a8 04		 test	 al, 4
  00033	75 10		 jne	 SHORT $LN3@scalar
; File C:\Program Files (x86)\Microsoft Visual Studio\2019\Community\VC\Tools\MSVC\14.29.30133\atlmfc\include\afx.inl

; 112  : 	{ ::operator delete(p); }

  00035	56		 push	 esi
  00036	e8 00 00 00 00	 call	 ??3@YAXPAX@Z		; operator delete
  0003b	83 c4 04	 add	 esp, 4
  0003e	8b c6		 mov	 eax, esi
  00040	5e		 pop	 esi
  00041	5d		 pop	 ebp
  00042	c2 04 00	 ret	 4
$LN3@scalar:
  00045	68 50 01 00 00	 push	 336			; 00000150H
  0004a	56		 push	 esi
  0004b	e8 00 00 00 00	 call	 ?__global_delete@@YAXPAXI@Z ; __global_delete
  00050	83 c4 08	 add	 esp, 8
$LN12@scalar:
  00053	8b c6		 mov	 eax, esi
  00055	5e		 pop	 esi
  00056	5d		 pop	 ebp
  00057	c2 04 00	 ret	 4
??_GCRGBButton@@UAEPAXI@Z ENDP				; CRGBButton::`scalar deleting destructor'
_TEXT	ENDS
; Function compile flags: /Ogtp
; File D:\git\src\IBK\IBK_DRFN\ProjSrc\SrcDrfn\Chart\MULTICHART\control\RGBButton.cpp
;	COMDAT ?GetMessageMap@CRGBButton@@MBEPBUAFX_MSGMAP@@XZ
_TEXT	SEGMENT
?GetMessageMap@CRGBButton@@MBEPBUAFX_MSGMAP@@XZ PROC	; CRGBButton::GetMessageMap, COMDAT
; _this$ = ecx

; 40   : BEGIN_MESSAGE_MAP(CRGBButton, CButton)

  00000	b8 00 00 00 00	 mov	 eax, OFFSET ?messageMap@?1??GetThisMessageMap@CRGBButton@@KGPBUAFX_MSGMAP@@XZ@4U3@B
  00005	c3		 ret	 0
?GetMessageMap@CRGBButton@@MBEPBUAFX_MSGMAP@@XZ ENDP	; CRGBButton::GetMessageMap
_TEXT	ENDS
; Function compile flags: /Ogtp
; File D:\git\src\IBK\IBK_DRFN\ProjSrc\SrcDrfn\Chart\MULTICHART\control\RGBButton.cpp
;	COMDAT ?GetThisMessageMap@CRGBButton@@KGPBUAFX_MSGMAP@@XZ
_TEXT	SEGMENT
?GetThisMessageMap@CRGBButton@@KGPBUAFX_MSGMAP@@XZ PROC	; CRGBButton::GetThisMessageMap, COMDAT

; 41   : 	//{{AFX_MSG_MAP(CRGBButton)
; 42   : 	ON_WM_MOUSEMOVE()
; 43   : 	//}}AFX_MSG_MAP
; 44   : 	ON_MESSAGE(WM_MOUSEHOVER, OnMouseHover)
; 45   : 	ON_MESSAGE(WM_MOUSELEAVE, OnMouseLeave)
; 46   : END_MESSAGE_MAP()

  00000	b8 00 00 00 00	 mov	 eax, OFFSET ?messageMap@?1??GetThisMessageMap@CRGBButton@@KGPBUAFX_MSGMAP@@XZ@4U3@B
  00005	c3		 ret	 0
?GetThisMessageMap@CRGBButton@@KGPBUAFX_MSGMAP@@XZ ENDP	; CRGBButton::GetThisMessageMap
_TEXT	ENDS
; Function compile flags: /Ogtp
; File D:\git\src\IBK\IBK_DRFN\ProjSrc\SrcDrfn\Chart\MULTICHART\control\RGBButton.cpp
; File C:\Program Files (x86)\Microsoft Visual Studio\2019\Community\VC\Tools\MSVC\14.29.30133\atlmfc\include\afxwin2.inl
; File D:\git\src\IBK\IBK_DRFN\ProjSrc\SrcDrfn\Chart\MULTICHART\control\RGBButton.cpp
; File C:\Program Files (x86)\Microsoft Visual Studio\2019\Community\VC\Tools\MSVC\14.29.30133\atlmfc\include\afxwin2.inl
; File D:\git\src\IBK\IBK_DRFN\ProjSrc\SrcDrfn\Chart\MULTICHART\control\RGBButton.cpp
;	COMDAT ?OnMouseLeave@CRGBButton@@IAEJIJ@Z
_TEXT	SEGMENT
_wParam$ = 8						; size = 4
_lParam$ = 12						; size = 4
?OnMouseLeave@CRGBButton@@IAEJIJ@Z PROC			; CRGBButton::OnMouseLeave, COMDAT
; _this$ = ecx

; 255  : 	if(m_bHover && m_pSideBar && m_pSideBar->GetSafeHwnd())

  00000	83 b9 24 01 00
	00 00		 cmp	 DWORD PTR [ecx+292], 0
  00007	74 1a		 je	 SHORT $LN2@OnMouseLea
  00009	8b 81 4c 01 00
	00		 mov	 eax, DWORD PTR [ecx+332]
  0000f	85 c0		 test	 eax, eax
  00011	74 10		 je	 SHORT $LN2@OnMouseLea
  00013	83 78 20 00	 cmp	 DWORD PTR [eax+32], 0
  00017	74 0a		 je	 SHORT $LN2@OnMouseLea

; 256  : 	{
; 257  : 		m_bHover = FALSE;

  00019	c7 81 24 01 00
	00 00 00 00 00	 mov	 DWORD PTR [ecx+292], 0
$LN2@OnMouseLea:
; File C:\Program Files (x86)\Microsoft Visual Studio\2019\Community\VC\Tools\MSVC\14.29.30133\atlmfc\include\afxwin2.inl

; 114  : 	{ ASSERT(::IsWindow(m_hWnd)); ::InvalidateRect(m_hWnd, NULL, bErase); }

  00023	6a 01		 push	 1
  00025	6a 00		 push	 0
  00027	ff 71 20	 push	 DWORD PTR [ecx+32]
; File D:\git\src\IBK\IBK_DRFN\ProjSrc\SrcDrfn\Chart\MULTICHART\control\RGBButton.cpp

; 259  : 	m_bTracking = FALSE;

  0002a	c7 81 20 01 00
	00 00 00 00 00	 mov	 DWORD PTR [ecx+288], 0
; File C:\Program Files (x86)\Microsoft Visual Studio\2019\Community\VC\Tools\MSVC\14.29.30133\atlmfc\include\afxwin2.inl

; 114  : 	{ ASSERT(::IsWindow(m_hWnd)); ::InvalidateRect(m_hWnd, NULL, bErase); }

  00034	ff 15 00 00 00
	00		 call	 DWORD PTR __imp__InvalidateRect@12
; File D:\git\src\IBK\IBK_DRFN\ProjSrc\SrcDrfn\Chart\MULTICHART\control\RGBButton.cpp

; 261  : 	return 0;

  0003a	33 c0		 xor	 eax, eax

; 262  : }

  0003c	c2 08 00	 ret	 8
?OnMouseLeave@CRGBButton@@IAEJIJ@Z ENDP			; CRGBButton::OnMouseLeave
_TEXT	ENDS
; Function compile flags: /Ogtp
; File D:\git\src\IBK\IBK_DRFN\ProjSrc\SrcDrfn\Chart\MULTICHART\control\RGBButton.cpp
; File C:\Program Files (x86)\Microsoft Visual Studio\2019\Community\VC\Tools\MSVC\14.29.30133\atlmfc\include\afxwin2.inl
; File D:\git\src\IBK\IBK_DRFN\ProjSrc\SrcDrfn\Chart\MULTICHART\control\RGBButton.cpp
;	COMDAT ?OnMouseHover@CRGBButton@@IAEJIJ@Z
_TEXT	SEGMENT
_wparam$ = 8						; size = 4
_lparam$ = 12						; size = 4
?OnMouseHover@CRGBButton@@IAEJIJ@Z PROC			; CRGBButton::OnMouseHover, COMDAT
; _this$ = ecx

; 242  : 	if(!m_bHover && m_pSideBar && m_pSideBar->GetSafeHwnd())

  00000	83 b9 24 01 00
	00 00		 cmp	 DWORD PTR [ecx+292], 0
  00007	75 1a		 jne	 SHORT $LN2@OnMouseHov
  00009	8b 81 4c 01 00
	00		 mov	 eax, DWORD PTR [ecx+332]
  0000f	85 c0		 test	 eax, eax
  00011	74 10		 je	 SHORT $LN2@OnMouseHov
  00013	83 78 20 00	 cmp	 DWORD PTR [eax+32], 0
  00017	74 0a		 je	 SHORT $LN2@OnMouseHov

; 243  : 	{
; 244  : 		m_bHover = TRUE;

  00019	c7 81 24 01 00
	00 01 00 00 00	 mov	 DWORD PTR [ecx+292], 1
$LN2@OnMouseHov:
; File C:\Program Files (x86)\Microsoft Visual Studio\2019\Community\VC\Tools\MSVC\14.29.30133\atlmfc\include\afxwin2.inl

; 114  : 	{ ASSERT(::IsWindow(m_hWnd)); ::InvalidateRect(m_hWnd, NULL, bErase); }

  00023	6a 01		 push	 1
  00025	6a 00		 push	 0
  00027	ff 71 20	 push	 DWORD PTR [ecx+32]
  0002a	ff 15 00 00 00
	00		 call	 DWORD PTR __imp__InvalidateRect@12
; File D:\git\src\IBK\IBK_DRFN\ProjSrc\SrcDrfn\Chart\MULTICHART\control\RGBButton.cpp

; 250  : 	return 0;

  00030	33 c0		 xor	 eax, eax

; 251  : }

  00032	c2 08 00	 ret	 8
?OnMouseHover@CRGBButton@@IAEJIJ@Z ENDP			; CRGBButton::OnMouseHover
_TEXT	ENDS
; Function compile flags: /Ogtp
; File D:\git\src\IBK\IBK_DRFN\ProjSrc\SrcDrfn\Chart\MULTICHART\control\RGBButton.cpp
; File C:\Program Files (x86)\Microsoft Visual Studio\2019\Community\VC\Tools\MSVC\14.29.30133\atlmfc\include\afxwin2.inl
; File D:\git\src\IBK\IBK_DRFN\ProjSrc\SrcDrfn\Chart\MULTICHART\control\RGBButton.cpp
;	COMDAT ?OnMouseMove@CRGBButton@@IAEXIVCPoint@@@Z
_TEXT	SEGMENT
_tme$1 = -16						; size = 16
_nFlags$ = 8						; size = 4
_point$ = 12						; size = 8
?OnMouseMove@CRGBButton@@IAEXIVCPoint@@@Z PROC		; CRGBButton::OnMouseMove, COMDAT
; _this$ = ecx

; 226  : {

  00000	55		 push	 ebp
  00001	8b ec		 mov	 ebp, esp
  00003	83 ec 10	 sub	 esp, 16			; 00000010H
  00006	56		 push	 esi
  00007	8b f1		 mov	 esi, ecx

; 227  : 	if( m_bTracking == FALSE )

  00009	83 be 20 01 00
	00 00		 cmp	 DWORD PTR [esi+288], 0
  00010	75 2b		 jne	 SHORT $LN2@OnMouseMov

; 228  : 	{
; 229  : 		TRACKMOUSEEVENT tme;
; 230  : 		tme.cbSize = sizeof(tme);
; 231  : 		tme.hwndTrack = m_hWnd;

  00012	8b 46 20	 mov	 eax, DWORD PTR [esi+32]
  00015	89 45 f8	 mov	 DWORD PTR _tme$1[ebp+8], eax

; 232  : 		tme.dwFlags = TME_LEAVE|TME_HOVER;		// Botton_Bitmap 영역 감지 (In / Out flag)
; 233  : 		tme.dwHoverTime = 1;					// Hovering 감지 시간차
; 234  : 		m_bTracking = _TrackMouseEvent(&tme);

  00018	8d 45 f0	 lea	 eax, DWORD PTR _tme$1[ebp]
  0001b	50		 push	 eax
  0001c	c7 45 f0 10 00
	00 00		 mov	 DWORD PTR _tme$1[ebp], 16 ; 00000010H
  00023	c7 45 f4 03 00
	00 00		 mov	 DWORD PTR _tme$1[ebp+4], 3
  0002a	c7 45 fc 01 00
	00 00		 mov	 DWORD PTR _tme$1[ebp+12], 1
  00031	ff 15 00 00 00
	00		 call	 DWORD PTR __imp___TrackMouseEvent@4
  00037	89 86 20 01 00
	00		 mov	 DWORD PTR [esi+288], eax
$LN2@OnMouseMov:
; File C:\Program Files (x86)\Microsoft Visual Studio\2019\Community\VC\Tools\MSVC\14.29.30133\atlmfc\include\afxwin2.inl

; 454  : 	{ Default(); }

  0003d	8b ce		 mov	 ecx, esi
  0003f	e8 00 00 00 00	 call	 ?Default@CWnd@@IAEJXZ	; CWnd::Default
  00044	5e		 pop	 esi
; File D:\git\src\IBK\IBK_DRFN\ProjSrc\SrcDrfn\Chart\MULTICHART\control\RGBButton.cpp

; 238  : }

  00045	8b e5		 mov	 esp, ebp
  00047	5d		 pop	 ebp
  00048	c2 0c 00	 ret	 12			; 0000000cH
?OnMouseMove@CRGBButton@@IAEXIVCPoint@@@Z ENDP		; CRGBButton::OnMouseMove
_TEXT	ENDS
; Function compile flags: /Ogtp
; File D:\git\src\IBK\IBK_DRFN\ProjSrc\SrcDrfn\Chart\MULTICHART\control\RGBButton.cpp
;	COMDAT ??1CRGBButton@@UAE@XZ
_TEXT	SEGMENT
??1CRGBButton@@UAE@XZ PROC				; CRGBButton::~CRGBButton, COMDAT
; _this$ = ecx

; 37   : {

  00000	56		 push	 esi
  00001	8b f1		 mov	 esi, ecx

; 38   : }

  00003	8d 8e 44 01 00
	00		 lea	 ecx, DWORD PTR [esi+324]
  00009	c7 06 00 00 00
	00		 mov	 DWORD PTR [esi], OFFSET ??_7CRGBButton@@6B@
  0000f	ff 15 00 00 00
	00		 call	 DWORD PTR __imp_??1?$CStringT@DV?$StrTraitMFC_DLL@DV?$ChTraitsCRT@D@ATL@@@@@ATL@@QAE@XZ
  00015	8d 8e 80 00 00
	00		 lea	 ecx, DWORD PTR [esi+128]
  0001b	e8 00 00 00 00	 call	 ??1CToolTipCtrl@@UAE@XZ	; CToolTipCtrl::~CToolTipCtrl
  00020	8b ce		 mov	 ecx, esi
  00022	5e		 pop	 esi
  00023	e9 00 00 00 00	 jmp	 ??1CButton@@UAE@XZ	; CButton::~CButton
??1CRGBButton@@UAE@XZ ENDP				; CRGBButton::~CRGBButton
_TEXT	ENDS
; Function compile flags: /Ogtp
; File D:\git\src\IBK\IBK_DRFN\ProjSrc\SrcDrfn\Chart\MULTICHART\control\RGBButton.cpp
;	COMDAT ?PreSubclassWindow@CRGBButton@@MAEXXZ
_TEXT	SEGMENT
?PreSubclassWindow@CRGBButton@@MAEXXZ PROC		; CRGBButton::PreSubclassWindow, COMDAT
; _this$ = ecx

; 163  : {

  00000	56		 push	 esi
  00001	8b f1		 mov	 esi, ecx

; 164  : 	CButton::PreSubclassWindow();

  00003	e8 00 00 00 00	 call	 ?PreSubclassWindow@CWnd@@UAEXXZ ; CWnd::PreSubclassWindow

; 165  : 	ModifyStyle(0, BS_OWNERDRAW);

  00008	6a 00		 push	 0
  0000a	6a 0b		 push	 11			; 0000000bH
  0000c	6a 00		 push	 0
  0000e	8b ce		 mov	 ecx, esi
  00010	e8 00 00 00 00	 call	 ?ModifyStyle@CWnd@@QAEHKKI@Z ; CWnd::ModifyStyle
  00015	5e		 pop	 esi

; 166  : }

  00016	c3		 ret	 0
?PreSubclassWindow@CRGBButton@@MAEXXZ ENDP		; CRGBButton::PreSubclassWindow
_TEXT	ENDS
; Function compile flags: /Ogtp
; File D:\git\src\IBK\IBK_DRFN\ProjSrc\SrcDrfn\Chart\MULTICHART\control\RGBButton.cpp
; File C:\Program Files (x86)\Microsoft Visual Studio\2019\Community\VC\Tools\MSVC\14.29.30133\atlmfc\include\atltypes.h
; File D:\git\src\IBK\IBK_DRFN\ProjSrc\SrcDrfn\Chart\MULTICHART\control\RGBButton.cpp
; File C:\Program Files (x86)\Microsoft Visual Studio\2019\Community\VC\Tools\MSVC\14.29.30133\atlmfc\include\afxwin1.inl
; File D:\git\src\IBK\IBK_DRFN\ProjSrc\SrcDrfn\Chart\MULTICHART\control\RGBButton.cpp
; File C:\Program Files (x86)\Microsoft Visual Studio\2019\Community\VC\Tools\MSVC\14.29.30133\atlmfc\include\afxwin1.inl
; File D:\git\src\IBK\IBK_DRFN\ProjSrc\SrcDrfn\Chart\MULTICHART\control\RGBButton.cpp
; File C:\Program Files (x86)\Microsoft Visual Studio\2019\Community\VC\Tools\MSVC\14.29.30133\atlmfc\include\atltypes.h
; File D:\git\src\IBK\IBK_DRFN\ProjSrc\SrcDrfn\Chart\MULTICHART\control\RGBButton.cpp
; File C:\Program Files (x86)\Microsoft Visual Studio\2019\Community\VC\Tools\MSVC\14.29.30133\atlmfc\include\atltypes.h
; File D:\git\src\IBK\IBK_DRFN\ProjSrc\SrcDrfn\Chart\MULTICHART\control\RGBButton.cpp
; File C:\Program Files (x86)\Microsoft Visual Studio\2019\Community\VC\Tools\MSVC\14.29.30133\atlmfc\include\afxwin1.inl
; File D:\git\src\IBK\IBK_DRFN\ProjSrc\SrcDrfn\Chart\MULTICHART\control\RGBButton.cpp
; File C:\Program Files (x86)\Microsoft Visual Studio\2019\Community\VC\Tools\MSVC\14.29.30133\atlmfc\include\afxwin1.inl
; File D:\git\src\IBK\IBK_DRFN\ProjSrc\SrcDrfn\Chart\MULTICHART\control\RGBButton.cpp
; File C:\Program Files (x86)\Microsoft Visual Studio\2019\Community\VC\Tools\MSVC\14.29.30133\atlmfc\include\atlsimpstr.h
; File D:\git\src\IBK\IBK_DRFN\ProjSrc\SrcDrfn\Chart\MULTICHART\control\RGBButton.cpp
;	COMDAT ?DrawItem@CRGBButton@@UAEXPAUtagDRAWITEMSTRUCT@@@Z
_TEXT	SEGMENT
_pen$2 = -88						; size = 8
tv383 = -80						; size = 4
_nOldMode$1$ = -80					; size = 4
_clrOldText$1$ = -76					; size = 4
_nItemState$1$ = -76					; size = 4
_pOldFont$3 = -76					; size = 4
_clrBackGround$1$ = -72					; size = 4
_pOldPen$1$ = -72					; size = 4
_lpDrawItemStruct$GSCopy$1$ = -68			; size = 4
_pOldFont$1$ = -68					; size = 4
_rcClient$ = -64					; size = 16
_rcClient$ = -48					; size = 16
_rcClient$ = -32					; size = 16
__$ArrayPad$ = -16					; size = 4
__$EHRec$ = -12						; size = 12
_lpDrawItemStruct$ = 8					; size = 4
?DrawItem@CRGBButton@@UAEXPAUtagDRAWITEMSTRUCT@@@Z PROC	; CRGBButton::DrawItem, COMDAT
; _this$ = ecx

; 49   : {

  00000	55		 push	 ebp
  00001	8b ec		 mov	 ebp, esp
  00003	6a ff		 push	 -1
  00005	68 00 00 00 00	 push	 __ehhandler$?DrawItem@CRGBButton@@UAEXPAUtagDRAWITEMSTRUCT@@@Z
  0000a	64 a1 00 00 00
	00		 mov	 eax, DWORD PTR fs:0
  00010	50		 push	 eax
  00011	83 ec 4c	 sub	 esp, 76			; 0000004cH
  00014	a1 00 00 00 00	 mov	 eax, DWORD PTR ___security_cookie
  00019	33 c5		 xor	 eax, ebp
  0001b	89 45 f0	 mov	 DWORD PTR __$ArrayPad$[ebp], eax
  0001e	56		 push	 esi
  0001f	57		 push	 edi
  00020	50		 push	 eax
  00021	8d 45 f4	 lea	 eax, DWORD PTR __$EHRec$[ebp]
  00024	64 a3 00 00 00
	00		 mov	 DWORD PTR fs:0, eax
  0002a	8b f9		 mov	 edi, ecx
  0002c	8b 45 08	 mov	 eax, DWORD PTR _lpDrawItemStruct$[ebp]
  0002f	89 45 bc	 mov	 DWORD PTR _lpDrawItemStruct$GSCopy$1$[ebp], eax

; 50   : 	CDC *pDC = CDC::FromHandle(lpDrawItemStruct->hDC);

  00032	ff 70 18	 push	 DWORD PTR [eax+24]
  00035	e8 00 00 00 00	 call	 ?FromHandle@CDC@@SGPAV1@PAUHDC__@@@Z ; CDC::FromHandle

; 51   : 	CRect rcClient = lpDrawItemStruct->rcItem;

  0003a	8b 55 bc	 mov	 edx, DWORD PTR _lpDrawItemStruct$GSCopy$1$[ebp]
  0003d	8b f0		 mov	 esi, eax
  0003f	83 c2 1c	 add	 edx, 28			; 0000001cH
; File C:\Program Files (x86)\Microsoft Visual Studio\2019\Community\VC\Tools\MSVC\14.29.30133\atlmfc\include\atltypes.h

; 548  : 	::CopyRect(this, &srcRect);

  00042	8d 45 d0	 lea	 eax, DWORD PTR _rcClient$[ebp]
  00045	52		 push	 edx
  00046	50		 push	 eax
  00047	ff 15 00 00 00
	00		 call	 DWORD PTR __imp__CopyRect@8
; File D:\git\src\IBK\IBK_DRFN\ProjSrc\SrcDrfn\Chart\MULTICHART\control\RGBButton.cpp

; 52   : 	pDC->SetBkMode(TRANSPARENT);

  0004d	6a 01		 push	 1
  0004f	8b ce		 mov	 ecx, esi
  00051	e8 00 00 00 00	 call	 ?SetBkMode@CDC@@QAEHH@Z	; CDC::SetBkMode

; 53   : 
; 54   : 	DrawButtonRect(pDC, rcClient, lpDrawItemStruct->itemState);

  00056	8b 45 bc	 mov	 eax, DWORD PTR _lpDrawItemStruct$GSCopy$1$[ebp]
  00059	0f 10 45 d0	 movups	 xmm0, XMMWORD PTR _rcClient$[ebp]
  0005d	8b 40 10	 mov	 eax, DWORD PTR [eax+16]
  00060	89 45 b4	 mov	 DWORD PTR _nItemState$1$[ebp], eax

; 60   : 	CPen pen(PS_SOLID, 1, nItemState & ODS_DISABLED ? DISCOLOR_BORDER : m_clrBorder);

  00063	83 e0 04	 and	 eax, 4
  00066	89 45 b0	 mov	 DWORD PTR tv383[ebp], eax
  00069	b8 80 80 80 00	 mov	 eax, 8421504		; 00808080H

; 53   : 
; 54   : 	DrawButtonRect(pDC, rcClient, lpDrawItemStruct->itemState);

  0006e	0f 11 45 e0	 movups	 XMMWORD PTR _rcClient$[ebp], xmm0

; 60   : 	CPen pen(PS_SOLID, 1, nItemState & ODS_DISABLED ? DISCOLOR_BORDER : m_clrBorder);

  00072	75 06		 jne	 SHORT $LN15@DrawItem
  00074	8b 87 28 01 00
	00		 mov	 eax, DWORD PTR [edi+296]
$LN15@DrawItem:
  0007a	50		 push	 eax
  0007b	6a 01		 push	 1
  0007d	6a 00		 push	 0
  0007f	8d 4d a8	 lea	 ecx, DWORD PTR _pen$2[ebp]
  00082	e8 00 00 00 00	 call	 ??0CPen@@QAE@HHK@Z	; CPen::CPen

; 61   : 	CPen* pOldPen = pDC->SelectObject(&pen);

  00087	8d 45 a8	 lea	 eax, DWORD PTR _pen$2[ebp]
  0008a	c7 45 fc 00 00
	00 00		 mov	 DWORD PTR __$EHRec$[ebp+8], 0
  00091	50		 push	 eax
  00092	8b ce		 mov	 ecx, esi
  00094	e8 00 00 00 00	 call	 ?SelectObject@CDC@@QAEPAVCPen@@PAV2@@Z ; CDC::SelectObject

; 62   : 
; 63   : 	if(m_bHasBorder) {

  00099	83 bf 38 01 00
	00 00		 cmp	 DWORD PTR [edi+312], 0
  000a0	89 45 b8	 mov	 DWORD PTR _pOldPen$1$[ebp], eax
  000a3	74 38		 je	 SHORT $LN8@DrawItem

; 64   : 
; 65   : 		if(m_bIsRoundRect) {				// 둥근 Border

  000a5	83 bf 3c 01 00
	00 00		 cmp	 DWORD PTR [edi+316], 0
  000ac	8b 4e 04	 mov	 ecx, DWORD PTR [esi+4]
  000af	74 19		 je	 SHORT $LN7@DrawItem
; File C:\Program Files (x86)\Microsoft Visual Studio\2019\Community\VC\Tools\MSVC\14.29.30133\atlmfc\include\afxwin1.inl

; 546  : 	{ ASSERT(m_hDC != NULL); return ::RoundRect(m_hDC, lpRect->left, lpRect->top,

  000b1	6a 02		 push	 2
  000b3	6a 02		 push	 2
  000b5	ff 75 ec	 push	 DWORD PTR _rcClient$[ebp+12]
  000b8	ff 75 e8	 push	 DWORD PTR _rcClient$[ebp+8]
  000bb	ff 75 e4	 push	 DWORD PTR _rcClient$[ebp+4]
  000be	ff 75 e0	 push	 DWORD PTR _rcClient$[ebp]
  000c1	51		 push	 ecx
  000c2	ff 15 00 00 00
	00		 call	 DWORD PTR __imp__RoundRect@28
; File D:\git\src\IBK\IBK_DRFN\ProjSrc\SrcDrfn\Chart\MULTICHART\control\RGBButton.cpp

; 70   : 		}

  000c8	eb 13		 jmp	 SHORT $LN8@DrawItem
$LN7@DrawItem:
; File C:\Program Files (x86)\Microsoft Visual Studio\2019\Community\VC\Tools\MSVC\14.29.30133\atlmfc\include\afxwin1.inl

; 541  : 	{ ASSERT(m_hDC != NULL); return ::Rectangle(m_hDC, lpRect->left, lpRect->top,

  000ca	ff 75 ec	 push	 DWORD PTR _rcClient$[ebp+12]
  000cd	ff 75 e8	 push	 DWORD PTR _rcClient$[ebp+8]
  000d0	ff 75 e4	 push	 DWORD PTR _rcClient$[ebp+4]
  000d3	ff 75 e0	 push	 DWORD PTR _rcClient$[ebp]
  000d6	51		 push	 ecx
  000d7	ff 15 00 00 00
	00		 call	 DWORD PTR __imp__Rectangle@20
$LN8@DrawItem:
; File D:\git\src\IBK\IBK_DRFN\ProjSrc\SrcDrfn\Chart\MULTICHART\control\RGBButton.cpp

; 75   : 	pen.DeleteObject();

  000dd	8d 4d a8	 lea	 ecx, DWORD PTR _pen$2[ebp]
  000e0	e8 00 00 00 00	 call	 ?DeleteObject@CGdiObject@@QAEHXZ ; CGdiObject::DeleteObject

; 76   : 	pDC->SelectObject(pOldPen);

  000e5	ff 75 b8	 push	 DWORD PTR _pOldPen$1$[ebp]
  000e8	8b ce		 mov	 ecx, esi
  000ea	e8 00 00 00 00	 call	 ?SelectObject@CDC@@QAEPAVCPen@@PAV2@@Z ; CDC::SelectObject
; File C:\Program Files (x86)\Microsoft Visual Studio\2019\Community\VC\Tools\MSVC\14.29.30133\atlmfc\include\atltypes.h

; 698  : 	::InflateRect(this, -x, -y);

  000ef	6a ff		 push	 -1
  000f1	6a ff		 push	 -1
  000f3	8d 45 e0	 lea	 eax, DWORD PTR _rcClient$[ebp]
  000f6	50		 push	 eax
  000f7	ff 15 00 00 00
	00		 call	 DWORD PTR __imp__InflateRect@12
; File D:\git\src\IBK\IBK_DRFN\ProjSrc\SrcDrfn\Chart\MULTICHART\control\RGBButton.cpp

; 82   : 	if(nItemState & ODS_DISABLED)

  000fd	83 7d b0 00	 cmp	 DWORD PTR tv383[ebp], 0
  00101	8b 87 2c 01 00
	00		 mov	 eax, DWORD PTR [edi+300]
  00107	89 45 b8	 mov	 DWORD PTR _clrBackGround$1$[ebp], eax
  0010a	74 09		 je	 SHORT $LN9@DrawItem

; 83   : 		clrBackGround = DISCOLOR_BACKGROUND;

  0010c	c7 45 b8 73 73
	73 00		 mov	 DWORD PTR _clrBackGround$1$[ebp], 7566195 ; 00737373H
  00113	eb 0f		 jmp	 SHORT $LN11@DrawItem
$LN9@DrawItem:

; 84   : 	else if(nItemState & ODS_SELECTED)

  00115	f6 45 b4 01	 test	 BYTE PTR _nItemState$1$[ebp], 1
  00119	74 09		 je	 SHORT $LN11@DrawItem

; 85   : 		clrBackGround = m_clrBackGround_Sel;

  0011b	8b 87 30 01 00
	00		 mov	 eax, DWORD PTR [edi+304]
  00121	89 45 b8	 mov	 DWORD PTR _clrBackGround$1$[ebp], eax
$LN11@DrawItem:

; 86   : 
; 87   : 	if(m_bIsRoundRect)

  00124	83 bf 3c 01 00
	00 00		 cmp	 DWORD PTR [edi+316], 0
  0012b	74 0e		 je	 SHORT $LN12@DrawItem
; File C:\Program Files (x86)\Microsoft Visual Studio\2019\Community\VC\Tools\MSVC\14.29.30133\atlmfc\include\atltypes.h

; 698  : 	::InflateRect(this, -x, -y);

  0012d	6a ff		 push	 -1
  0012f	6a ff		 push	 -1
  00131	8d 45 e0	 lea	 eax, DWORD PTR _rcClient$[ebp]
  00134	50		 push	 eax
  00135	ff 15 00 00 00
	00		 call	 DWORD PTR __imp__InflateRect@12
$LN12@DrawItem:
; File D:\git\src\IBK\IBK_DRFN\ProjSrc\SrcDrfn\Chart\MULTICHART\control\RGBButton.cpp

; 90   : 	pDC->FillSolidRect(rcClient, clrBackGround);

  0013b	ff 75 b8	 push	 DWORD PTR _clrBackGround$1$[ebp]
  0013e	8d 45 e0	 lea	 eax, DWORD PTR _rcClient$[ebp]
  00141	8b ce		 mov	 ecx, esi
  00143	50		 push	 eax
  00144	e8 00 00 00 00	 call	 ?FillSolidRect@CDC@@QAEXPBUtagRECT@@K@Z ; CDC::FillSolidRect
; File C:\Program Files (x86)\Microsoft Visual Studio\2019\Community\VC\Tools\MSVC\14.29.30133\atlmfc\include\afxwin1.inl

; 106  : 	{ }

  00149	8d 4d a8	 lea	 ecx, DWORD PTR _pen$2[ebp]
; File D:\git\src\IBK\IBK_DRFN\ProjSrc\SrcDrfn\Chart\MULTICHART\control\RGBButton.cpp

; 91   : }

  0014c	c7 45 fc ff ff
	ff ff		 mov	 DWORD PTR __$EHRec$[ebp+8], -1
; File C:\Program Files (x86)\Microsoft Visual Studio\2019\Community\VC\Tools\MSVC\14.29.30133\atlmfc\include\afxwin1.inl

; 106  : 	{ }

  00153	c7 45 a8 00 00
	00 00		 mov	 DWORD PTR _pen$2[ebp], OFFSET ??_7CPen@@6B@
  0015a	e8 00 00 00 00	 call	 ??1CGdiObject@@UAE@XZ	; CGdiObject::~CGdiObject
; File D:\git\src\IBK\IBK_DRFN\ProjSrc\SrcDrfn\Chart\MULTICHART\control\RGBButton.cpp

; 95   :     COLORREF clrText = nItemState & ODS_DISABLED ? DISCOLOR_TEXT : m_clrText;

  0015f	8b 45 bc	 mov	 eax, DWORD PTR _lpDrawItemStruct$GSCopy$1$[ebp]
  00162	b9 80 80 80 00	 mov	 ecx, 8421504		; 00808080H

; 55   : 	DrawButtonText(pDC, rcClient, lpDrawItemStruct->itemState);

  00167	0f 10 45 d0	 movups	 xmm0, XMMWORD PTR _rcClient$[ebp]

; 95   :     COLORREF clrText = nItemState & ODS_DISABLED ? DISCOLOR_TEXT : m_clrText;

  0016b	f6 40 10 04	 test	 BYTE PTR [eax+16], 4

; 55   : 	DrawButtonText(pDC, rcClient, lpDrawItemStruct->itemState);

  0016f	0f 11 45 c0	 movups	 XMMWORD PTR _rcClient$[ebp], xmm0

; 95   :     COLORREF clrText = nItemState & ODS_DISABLED ? DISCOLOR_TEXT : m_clrText;

  00173	75 06		 jne	 SHORT $LN33@DrawItem
  00175	8b 8f 34 01 00
	00		 mov	 ecx, DWORD PTR [edi+308]
$LN33@DrawItem:

; 96   : 	COLORREF clrOldText = pDC->SetTextColor(clrText);	

  0017b	8b 06		 mov	 eax, DWORD PTR [esi]
  0017d	51		 push	 ecx
  0017e	8b ce		 mov	 ecx, esi
  00180	8b 40 38	 mov	 eax, DWORD PTR [eax+56]
  00183	ff d0		 call	 eax

; 97   : 	int nOldMode = pDC->SetBkMode(TRANSPARENT);

  00185	6a 01		 push	 1
  00187	8b ce		 mov	 ecx, esi
  00189	89 45 b4	 mov	 DWORD PTR _clrOldText$1$[ebp], eax
  0018c	e8 00 00 00 00	 call	 ?SetBkMode@CDC@@QAEHH@Z	; CDC::SetBkMode

; 98   : 
; 99   : 	CFont * pOldFont;
; 100  : 	if ( m_pFont ) 

  00191	8b 8f 40 01 00
	00		 mov	 ecx, DWORD PTR [edi+320]
  00197	89 45 b0	 mov	 DWORD PTR _nOldMode$1$[ebp], eax
  0019a	85 c9		 test	 ecx, ecx
  0019c	74 0c		 je	 SHORT $LN40@DrawItem

; 101  : 		pOldFont = pDC->SelectObject(m_pFont);

  0019e	8b 16		 mov	 edx, DWORD PTR [esi]
  001a0	51		 push	 ecx
  001a1	8b ce		 mov	 ecx, esi
  001a3	8b 52 30	 mov	 edx, DWORD PTR [edx+48]
  001a6	ff d2		 call	 edx
  001a8	eb 03		 jmp	 SHORT $LN42@DrawItem
$LN40@DrawItem:

; 98   : 
; 99   : 	CFont * pOldFont;
; 100  : 	if ( m_pFont ) 

  001aa	8b 45 b4	 mov	 eax, DWORD PTR _pOldFont$3[ebp]
$LN42@DrawItem:

; 106  : 	pDC->DrawText(m_szText, m_szText.GetLength(), rcClient, DT_CENTER|DT_VCENTER|DT_SINGLELINE);

  001ad	8b 16		 mov	 edx, DWORD PTR [esi]
  001af	8d 4d c0	 lea	 ecx, DWORD PTR _rcClient$[ebp]
; File C:\Program Files (x86)\Microsoft Visual Studio\2019\Community\VC\Tools\MSVC\14.29.30133\atlmfc\include\atlsimpstr.h

; 519  : 		return( GetData()->nDataLength );

  001b2	89 45 bc	 mov	 DWORD PTR _pOldFont$1$[ebp], eax
  001b5	8b 87 44 01 00
	00		 mov	 eax, DWORD PTR [edi+324]
; File D:\git\src\IBK\IBK_DRFN\ProjSrc\SrcDrfn\Chart\MULTICHART\control\RGBButton.cpp

; 106  : 	pDC->DrawText(m_szText, m_szText.GetLength(), rcClient, DT_CENTER|DT_VCENTER|DT_SINGLELINE);

  001bb	6a 25		 push	 37			; 00000025H
  001bd	51		 push	 ecx
  001be	8b ce		 mov	 ecx, esi
  001c0	ff 70 f4	 push	 DWORD PTR [eax-12]
  001c3	50		 push	 eax
  001c4	ff 52 70	 call	 DWORD PTR [edx+112]

; 107  : 
; 108  : 	if ( m_pFont ) 

  001c7	83 bf 40 01 00
	00 00		 cmp	 DWORD PTR [edi+320], 0
  001ce	74 0a		 je	 SHORT $LN30@DrawItem

; 109  : 		pDC->SelectObject (pOldFont);

  001d0	8b 06		 mov	 eax, DWORD PTR [esi]
  001d2	8b ce		 mov	 ecx, esi
  001d4	ff 75 bc	 push	 DWORD PTR _pOldFont$1$[ebp]
  001d7	ff 50 30	 call	 DWORD PTR [eax+48]
$LN30@DrawItem:

; 110  : 	pDC->SetTextColor(clrOldText);

  001da	8b 06		 mov	 eax, DWORD PTR [esi]
  001dc	8b ce		 mov	 ecx, esi
  001de	ff 75 b4	 push	 DWORD PTR _clrOldText$1$[ebp]
  001e1	ff 50 38	 call	 DWORD PTR [eax+56]

; 111  : 	pDC->SetBkMode(nOldMode);

  001e4	ff 75 b0	 push	 DWORD PTR _nOldMode$1$[ebp]
  001e7	8b ce		 mov	 ecx, esi
  001e9	e8 00 00 00 00	 call	 ?SetBkMode@CDC@@QAEHH@Z	; CDC::SetBkMode

; 56   : }

  001ee	8b 4d f4	 mov	 ecx, DWORD PTR __$EHRec$[ebp]
  001f1	64 89 0d 00 00
	00 00		 mov	 DWORD PTR fs:0, ecx
  001f8	59		 pop	 ecx
  001f9	5f		 pop	 edi
  001fa	5e		 pop	 esi
  001fb	8b 4d f0	 mov	 ecx, DWORD PTR __$ArrayPad$[ebp]
  001fe	33 cd		 xor	 ecx, ebp
  00200	e8 00 00 00 00	 call	 @__security_check_cookie@4
  00205	8b e5		 mov	 esp, ebp
  00207	5d		 pop	 ebp
  00208	c2 04 00	 ret	 4
_TEXT	ENDS
;	COMDAT text$x
text$x	SEGMENT
__unwindfunclet$?DrawItem@CRGBButton@@UAEXPAUtagDRAWITEMSTRUCT@@@Z$0:
  00000	8d 4d a8	 lea	 ecx, DWORD PTR _pen$2[ebp]
  00003	e9 00 00 00 00	 jmp	 ??1CPen@@UAE@XZ		; CPen::~CPen
  00008	cc		 int	 3
  00009	cc		 int	 3
  0000a	cc		 int	 3
  0000b	cc		 int	 3
  0000c	cc		 int	 3
__ehhandler$?DrawItem@CRGBButton@@UAEXPAUtagDRAWITEMSTRUCT@@@Z:
  0000d	90		 npad	 1
  0000e	90		 npad	 1
  0000f	8b 54 24 08	 mov	 edx, DWORD PTR [esp+8]
  00013	8d 42 0c	 lea	 eax, DWORD PTR [edx+12]
  00016	8b 4a a8	 mov	 ecx, DWORD PTR [edx-88]
  00019	33 c8		 xor	 ecx, eax
  0001b	e8 00 00 00 00	 call	 @__security_check_cookie@4
  00020	8b 4a fc	 mov	 ecx, DWORD PTR [edx-4]
  00023	33 c8		 xor	 ecx, eax
  00025	e8 00 00 00 00	 call	 @__security_check_cookie@4
  0002a	b8 00 00 00 00	 mov	 eax, OFFSET __ehfuncinfo$?DrawItem@CRGBButton@@UAEXPAUtagDRAWITEMSTRUCT@@@Z
  0002f	e9 00 00 00 00	 jmp	 ___CxxFrameHandler3
text$x	ENDS
?DrawItem@CRGBButton@@UAEXPAUtagDRAWITEMSTRUCT@@@Z ENDP	; CRGBButton::DrawItem
; Function compile flags: /Ogtp
; File D:\git\src\IBK\IBK_DRFN\ProjSrc\SrcDrfn\Chart\MULTICHART\control\RGBButton.cpp
;	COMDAT ?PreTranslateMessage@CRGBButton@@UAEHPAUtagMSG@@@Z
_TEXT	SEGMENT
_pMsg$ = 8						; size = 4
?PreTranslateMessage@CRGBButton@@UAEHPAUtagMSG@@@Z PROC	; CRGBButton::PreTranslateMessage, COMDAT
; _this$ = ecx

; 155  : {

  00000	55		 push	 ebp
  00001	8b ec		 mov	 ebp, esp

; 160  : }

  00003	5d		 pop	 ebp

; 156  : //	InitToolTip();
; 157  : //	m_ToolTip.RelayEvent(pMsg);
; 158  : 	
; 159  : 	return CButton::PreTranslateMessage(pMsg);

  00004	e9 00 00 00 00	 jmp	 ?PreTranslateMessage@CWnd@@UAEHPAUtagMSG@@@Z ; CWnd::PreTranslateMessage
?PreTranslateMessage@CRGBButton@@UAEHPAUtagMSG@@@Z ENDP	; CRGBButton::PreTranslateMessage
_TEXT	ENDS
; Function compile flags: /Ogtp
; File D:\git\src\IBK\IBK_DRFN\ProjSrc\SrcDrfn\Chart\MULTICHART\control\RGBButton.cpp
;	COMDAT ?EndSideBar@CRGBButton@@QAEXXZ
_TEXT	SEGMENT
?EndSideBar@CRGBButton@@QAEXXZ PROC			; CRGBButton::EndSideBar, COMDAT
; _this$ = ecx

; 151  : 	m_bSideBarRunning = FALSE;

  00000	c7 81 48 01 00
	00 00 00 00 00	 mov	 DWORD PTR [ecx+328], 0

; 152  : }

  0000a	c3		 ret	 0
?EndSideBar@CRGBButton@@QAEXXZ ENDP			; CRGBButton::EndSideBar
_TEXT	ENDS
; Function compile flags: /Ogtp
; File D:\git\src\IBK\IBK_DRFN\ProjSrc\SrcDrfn\Chart\MULTICHART\control\RGBButton.cpp
;	COMDAT ?StartSideBar@CRGBButton@@QAEXXZ
_TEXT	SEGMENT
?StartSideBar@CRGBButton@@QAEXXZ PROC			; CRGBButton::StartSideBar, COMDAT
; _this$ = ecx

; 142  : 	if(m_bSideBarRunning == FALSE)

  00000	83 b9 48 01 00
	00 00		 cmp	 DWORD PTR [ecx+328], 0
  00007	75 15		 jne	 SHORT $LN2@StartSideB

; 143  : 	{
; 144  : 		m_bSideBarRunning = TRUE;

  00009	c7 81 48 01 00
	00 01 00 00 00	 mov	 DWORD PTR [ecx+328], 1

; 145  : 		m_pSideBar->StartSideBar();

  00013	8b 89 4c 01 00
	00		 mov	 ecx, DWORD PTR [ecx+332]
  00019	e9 00 00 00 00	 jmp	 ?StartSideBar@CLeftBarDlg@@QAEXXZ ; CLeftBarDlg::StartSideBar
$LN2@StartSideB:

; 146  : 	}
; 147  : }

  0001e	c3		 ret	 0
?StartSideBar@CRGBButton@@QAEXXZ ENDP			; CRGBButton::StartSideBar
_TEXT	ENDS
; Function compile flags: /Ogtp
; File D:\git\src\IBK\IBK_DRFN\ProjSrc\SrcDrfn\Chart\MULTICHART\control\RGBButton.cpp
;	COMDAT ?SetSideBar@CRGBButton@@QAEXPAVCLeftBarDlg@@@Z
_TEXT	SEGMENT
_pSideBar$ = 8						; size = 4
?SetSideBar@CRGBButton@@QAEXPAVCLeftBarDlg@@@Z PROC	; CRGBButton::SetSideBar, COMDAT
; _this$ = ecx

; 136  : {

  00000	55		 push	 ebp
  00001	8b ec		 mov	 ebp, esp

; 137  : 	m_pSideBar = pSideBar;

  00003	8b 45 08	 mov	 eax, DWORD PTR _pSideBar$[ebp]
  00006	89 81 4c 01 00
	00		 mov	 DWORD PTR [ecx+332], eax

; 138  : }

  0000c	5d		 pop	 ebp
  0000d	c2 04 00	 ret	 4
?SetSideBar@CRGBButton@@QAEXPAVCLeftBarDlg@@@Z ENDP	; CRGBButton::SetSideBar
_TEXT	ENDS
; Function compile flags: /Ogtp
; File D:\git\src\IBK\IBK_DRFN\ProjSrc\SrcDrfn\Chart\MULTICHART\control\RGBButton.cpp
;	COMDAT ?SetButtonText@CRGBButton@@QAEXPBD@Z
_TEXT	SEGMENT
_szText$ = 8						; size = 4
?SetButtonText@CRGBButton@@QAEXPBD@Z PROC		; CRGBButton::SetButtonText, COMDAT
; _this$ = ecx

; 131  : {

  00000	55		 push	 ebp
  00001	8b ec		 mov	 ebp, esp

; 132  : 	m_szText = szText;

  00003	81 c1 44 01 00
	00		 add	 ecx, 324		; 00000144H

; 133  : }

  00009	5d		 pop	 ebp

; 132  : 	m_szText = szText;

  0000a	ff 25 00 00 00
	00		 jmp	 DWORD PTR __imp_??4?$CStringT@DV?$StrTraitMFC_DLL@DV?$ChTraitsCRT@D@ATL@@@@@ATL@@QAEAAV01@PBD@Z
?SetButtonText@CRGBButton@@QAEXPBD@Z ENDP		; CRGBButton::SetButtonText
_TEXT	ENDS
; Function compile flags: /Ogtp
; File D:\git\src\IBK\IBK_DRFN\ProjSrc\SrcDrfn\Chart\MULTICHART\control\RGBButton.cpp
;	COMDAT ?SetTextColor@CRGBButton@@QAEXK@Z
_TEXT	SEGMENT
_clrText$ = 8						; size = 4
?SetTextColor@CRGBButton@@QAEXK@Z PROC			; CRGBButton::SetTextColor, COMDAT
; _this$ = ecx

; 126  : {

  00000	55		 push	 ebp
  00001	8b ec		 mov	 ebp, esp

; 127  : 	m_clrText = clrText;

  00003	8b 45 08	 mov	 eax, DWORD PTR _clrText$[ebp]
  00006	89 81 34 01 00
	00		 mov	 DWORD PTR [ecx+308], eax

; 128  : }

  0000c	5d		 pop	 ebp
  0000d	c2 04 00	 ret	 4
?SetTextColor@CRGBButton@@QAEXK@Z ENDP			; CRGBButton::SetTextColor
_TEXT	ENDS
; Function compile flags: /Ogtp
; File D:\git\src\IBK\IBK_DRFN\ProjSrc\SrcDrfn\Chart\MULTICHART\control\RGBButton.cpp
;	COMDAT ?SetBackGroundColor@CRGBButton@@QAEXKK@Z
_TEXT	SEGMENT
_clrBackGround$ = 8					; size = 4
_clrBackGround_Sel$ = 12				; size = 4
?SetBackGroundColor@CRGBButton@@QAEXKK@Z PROC		; CRGBButton::SetBackGroundColor, COMDAT
; _this$ = ecx

; 120  : {

  00000	55		 push	 ebp
  00001	8b ec		 mov	 ebp, esp

; 121  : 	m_clrBackGround = clrBackGround;

  00003	8b 45 08	 mov	 eax, DWORD PTR _clrBackGround$[ebp]
  00006	89 81 2c 01 00
	00		 mov	 DWORD PTR [ecx+300], eax

; 122  : 	m_clrBackGround_Sel = clrBackGround_Sel;

  0000c	8b 45 0c	 mov	 eax, DWORD PTR _clrBackGround_Sel$[ebp]
  0000f	89 81 30 01 00
	00		 mov	 DWORD PTR [ecx+304], eax

; 123  : }

  00015	5d		 pop	 ebp
  00016	c2 08 00	 ret	 8
?SetBackGroundColor@CRGBButton@@QAEXKK@Z ENDP		; CRGBButton::SetBackGroundColor
_TEXT	ENDS
; Function compile flags: /Ogtp
; File D:\git\src\IBK\IBK_DRFN\ProjSrc\SrcDrfn\Chart\MULTICHART\control\RGBButton.cpp
;	COMDAT ?SetBorderColor@CRGBButton@@QAEXK@Z
_TEXT	SEGMENT
_clrBorder$ = 8						; size = 4
?SetBorderColor@CRGBButton@@QAEXK@Z PROC		; CRGBButton::SetBorderColor, COMDAT
; _this$ = ecx

; 115  : {

  00000	55		 push	 ebp
  00001	8b ec		 mov	 ebp, esp

; 116  : 	m_clrBorder = clrBorder;

  00003	8b 45 08	 mov	 eax, DWORD PTR _clrBorder$[ebp]
  00006	89 81 28 01 00
	00		 mov	 DWORD PTR [ecx+296], eax

; 117  : }

  0000c	5d		 pop	 ebp
  0000d	c2 04 00	 ret	 4
?SetBorderColor@CRGBButton@@QAEXK@Z ENDP		; CRGBButton::SetBorderColor
_TEXT	ENDS
; Function compile flags: /Ogtp
; File D:\git\src\IBK\IBK_DRFN\ProjSrc\SrcDrfn\Chart\MULTICHART\control\RGBButton.cpp
; File C:\Program Files (x86)\Microsoft Visual Studio\2019\Community\VC\Tools\MSVC\14.29.30133\atlmfc\include\atlsimpstr.h
; File D:\git\src\IBK\IBK_DRFN\ProjSrc\SrcDrfn\Chart\MULTICHART\control\RGBButton.cpp
;	COMDAT ?DrawButtonText@CRGBButton@@QAEXPAVCDC@@VCRect@@I@Z
_TEXT	SEGMENT
_clrOldText$1$ = -8					; size = 4
_nOldMode$1$ = -4					; size = 4
_pOldFont$ = -4						; size = 4
_pDC$ = 8						; size = 4
_rcClient$ = 12						; size = 16
_nItemState$ = 28					; size = 4
?DrawButtonText@CRGBButton@@QAEXPAVCDC@@VCRect@@I@Z PROC ; CRGBButton::DrawButtonText, COMDAT
; _this$ = ecx

; 94   : {

  00000	55		 push	 ebp
  00001	8b ec		 mov	 ebp, esp
  00003	83 ec 08	 sub	 esp, 8

; 95   :     COLORREF clrText = nItemState & ODS_DISABLED ? DISCOLOR_TEXT : m_clrText;

  00006	f6 45 1c 04	 test	 BYTE PTR _nItemState$[ebp], 4
  0000a	53		 push	 ebx
  0000b	56		 push	 esi
  0000c	8b 75 08	 mov	 esi, DWORD PTR _pDC$[ebp]
  0000f	57		 push	 edi
  00010	8b f9		 mov	 edi, ecx
  00012	b9 80 80 80 00	 mov	 ecx, 8421504		; 00808080H
  00017	75 06		 jne	 SHORT $LN6@DrawButton
  00019	8b 8f 34 01 00
	00		 mov	 ecx, DWORD PTR [edi+308]
$LN6@DrawButton:

; 96   : 	COLORREF clrOldText = pDC->SetTextColor(clrText);	

  0001f	8b 06		 mov	 eax, DWORD PTR [esi]
  00021	51		 push	 ecx
  00022	8b ce		 mov	 ecx, esi
  00024	ff 50 38	 call	 DWORD PTR [eax+56]

; 97   : 	int nOldMode = pDC->SetBkMode(TRANSPARENT);

  00027	6a 01		 push	 1
  00029	8b ce		 mov	 ecx, esi
  0002b	89 45 f8	 mov	 DWORD PTR _clrOldText$1$[ebp], eax
  0002e	e8 00 00 00 00	 call	 ?SetBkMode@CDC@@QAEHH@Z	; CDC::SetBkMode

; 98   : 
; 99   : 	CFont * pOldFont;
; 100  : 	if ( m_pFont ) 

  00033	8b 8f 40 01 00
	00		 mov	 ecx, DWORD PTR [edi+320]
  00039	89 45 fc	 mov	 DWORD PTR _nOldMode$1$[ebp], eax
  0003c	85 c9		 test	 ecx, ecx
  0003e	74 0c		 je	 SHORT $LN13@DrawButton

; 101  : 		pOldFont = pDC->SelectObject(m_pFont);

  00040	8b 16		 mov	 edx, DWORD PTR [esi]
  00042	51		 push	 ecx
  00043	8b ce		 mov	 ecx, esi
  00045	ff 52 30	 call	 DWORD PTR [edx+48]
  00048	8b d8		 mov	 ebx, eax
  0004a	eb 03		 jmp	 SHORT $LN2@DrawButton
$LN13@DrawButton:

; 98   : 
; 99   : 	CFont * pOldFont;
; 100  : 	if ( m_pFont ) 

  0004c	8b 5d fc	 mov	 ebx, DWORD PTR _pOldFont$[ebp]
$LN2@DrawButton:
; File C:\Program Files (x86)\Microsoft Visual Studio\2019\Community\VC\Tools\MSVC\14.29.30133\atlmfc\include\atlsimpstr.h

; 519  : 		return( GetData()->nDataLength );

  0004f	8b 87 44 01 00
	00		 mov	 eax, DWORD PTR [edi+324]
; File D:\git\src\IBK\IBK_DRFN\ProjSrc\SrcDrfn\Chart\MULTICHART\control\RGBButton.cpp

; 106  : 	pDC->DrawText(m_szText, m_szText.GetLength(), rcClient, DT_CENTER|DT_VCENTER|DT_SINGLELINE);

  00055	8d 4d 0c	 lea	 ecx, DWORD PTR _rcClient$[ebp]
  00058	8b 16		 mov	 edx, DWORD PTR [esi]
  0005a	6a 25		 push	 37			; 00000025H
  0005c	51		 push	 ecx
  0005d	ff 70 f4	 push	 DWORD PTR [eax-12]
  00060	8b ce		 mov	 ecx, esi
  00062	50		 push	 eax
  00063	ff 52 70	 call	 DWORD PTR [edx+112]

; 107  : 
; 108  : 	if ( m_pFont ) 

  00066	83 bf 40 01 00
	00 00		 cmp	 DWORD PTR [edi+320], 0
  0006d	74 08		 je	 SHORT $LN3@DrawButton

; 109  : 		pDC->SelectObject (pOldFont);

  0006f	8b 06		 mov	 eax, DWORD PTR [esi]
  00071	8b ce		 mov	 ecx, esi
  00073	53		 push	 ebx
  00074	ff 50 30	 call	 DWORD PTR [eax+48]
$LN3@DrawButton:

; 110  : 	pDC->SetTextColor(clrOldText);

  00077	8b 06		 mov	 eax, DWORD PTR [esi]
  00079	8b ce		 mov	 ecx, esi
  0007b	ff 75 f8	 push	 DWORD PTR _clrOldText$1$[ebp]
  0007e	ff 50 38	 call	 DWORD PTR [eax+56]

; 111  : 	pDC->SetBkMode(nOldMode);

  00081	ff 75 fc	 push	 DWORD PTR _nOldMode$1$[ebp]
  00084	8b ce		 mov	 ecx, esi
  00086	e8 00 00 00 00	 call	 ?SetBkMode@CDC@@QAEHH@Z	; CDC::SetBkMode
  0008b	5f		 pop	 edi
  0008c	5e		 pop	 esi
  0008d	5b		 pop	 ebx

; 112  : }

  0008e	8b e5		 mov	 esp, ebp
  00090	5d		 pop	 ebp
  00091	c2 18 00	 ret	 24			; 00000018H
?DrawButtonText@CRGBButton@@QAEXPAVCDC@@VCRect@@I@Z ENDP ; CRGBButton::DrawButtonText
_TEXT	ENDS
; Function compile flags: /Ogtp
; File D:\git\src\IBK\IBK_DRFN\ProjSrc\SrcDrfn\Chart\MULTICHART\control\RGBButton.cpp
; File C:\Program Files (x86)\Microsoft Visual Studio\2019\Community\VC\Tools\MSVC\14.29.30133\atlmfc\include\afxwin1.inl
; File D:\git\src\IBK\IBK_DRFN\ProjSrc\SrcDrfn\Chart\MULTICHART\control\RGBButton.cpp
; File C:\Program Files (x86)\Microsoft Visual Studio\2019\Community\VC\Tools\MSVC\14.29.30133\atlmfc\include\afxwin1.inl
; File D:\git\src\IBK\IBK_DRFN\ProjSrc\SrcDrfn\Chart\MULTICHART\control\RGBButton.cpp
; File C:\Program Files (x86)\Microsoft Visual Studio\2019\Community\VC\Tools\MSVC\14.29.30133\atlmfc\include\atltypes.h
; File D:\git\src\IBK\IBK_DRFN\ProjSrc\SrcDrfn\Chart\MULTICHART\control\RGBButton.cpp
; File C:\Program Files (x86)\Microsoft Visual Studio\2019\Community\VC\Tools\MSVC\14.29.30133\atlmfc\include\atltypes.h
; File D:\git\src\IBK\IBK_DRFN\ProjSrc\SrcDrfn\Chart\MULTICHART\control\RGBButton.cpp
; File C:\Program Files (x86)\Microsoft Visual Studio\2019\Community\VC\Tools\MSVC\14.29.30133\atlmfc\include\afxwin1.inl
; File D:\git\src\IBK\IBK_DRFN\ProjSrc\SrcDrfn\Chart\MULTICHART\control\RGBButton.cpp
;	COMDAT ?DrawButtonRect@CRGBButton@@QAEXPAVCDC@@VCRect@@I@Z
_TEXT	SEGMENT
tv255 = -24						; size = 4
_pen$ = -20						; size = 8
__$EHRec$ = -12						; size = 12
_pDC$ = 8						; size = 4
_rcClient$ = 12						; size = 16
_nItemState$ = 28					; size = 4
?DrawButtonRect@CRGBButton@@QAEXPAVCDC@@VCRect@@I@Z PROC ; CRGBButton::DrawButtonRect, COMDAT
; _this$ = ecx

; 59   : {

  00000	55		 push	 ebp
  00001	8b ec		 mov	 ebp, esp
  00003	6a ff		 push	 -1
  00005	68 00 00 00 00	 push	 __ehhandler$?DrawButtonRect@CRGBButton@@QAEXPAVCDC@@VCRect@@I@Z
  0000a	64 a1 00 00 00
	00		 mov	 eax, DWORD PTR fs:0
  00010	50		 push	 eax
  00011	83 ec 0c	 sub	 esp, 12			; 0000000cH
  00014	53		 push	 ebx
  00015	56		 push	 esi
  00016	57		 push	 edi
  00017	a1 00 00 00 00	 mov	 eax, DWORD PTR ___security_cookie
  0001c	33 c5		 xor	 eax, ebp
  0001e	50		 push	 eax
  0001f	8d 45 f4	 lea	 eax, DWORD PTR __$EHRec$[ebp]
  00022	64 a3 00 00 00
	00		 mov	 DWORD PTR fs:0, eax
  00028	8b f1		 mov	 esi, ecx

; 60   : 	CPen pen(PS_SOLID, 1, nItemState & ODS_DISABLED ? DISCOLOR_BORDER : m_clrBorder);

  0002a	8b 45 1c	 mov	 eax, DWORD PTR _nItemState$[ebp]
  0002d	8b 5d 08	 mov	 ebx, DWORD PTR _pDC$[ebp]
  00030	83 e0 04	 and	 eax, 4
  00033	89 45 e8	 mov	 DWORD PTR tv255[ebp], eax
  00036	b8 80 80 80 00	 mov	 eax, 8421504		; 00808080H
  0003b	75 06		 jne	 SHORT $LN11@DrawButton
  0003d	8b 86 28 01 00
	00		 mov	 eax, DWORD PTR [esi+296]
$LN11@DrawButton:
  00043	50		 push	 eax
  00044	6a 01		 push	 1
  00046	6a 00		 push	 0
  00048	8d 4d ec	 lea	 ecx, DWORD PTR _pen$[ebp]
  0004b	e8 00 00 00 00	 call	 ??0CPen@@QAE@HHK@Z	; CPen::CPen

; 61   : 	CPen* pOldPen = pDC->SelectObject(&pen);

  00050	8d 45 ec	 lea	 eax, DWORD PTR _pen$[ebp]
  00053	c7 45 fc 00 00
	00 00		 mov	 DWORD PTR __$EHRec$[ebp+8], 0
  0005a	50		 push	 eax
  0005b	8b cb		 mov	 ecx, ebx
  0005d	e8 00 00 00 00	 call	 ?SelectObject@CDC@@QAEPAVCPen@@PAV2@@Z ; CDC::SelectObject

; 62   : 
; 63   : 	if(m_bHasBorder) {

  00062	83 be 38 01 00
	00 00		 cmp	 DWORD PTR [esi+312], 0
  00069	8b f8		 mov	 edi, eax
  0006b	74 38		 je	 SHORT $LN4@DrawButton

; 64   : 
; 65   : 		if(m_bIsRoundRect) {				// 둥근 Border

  0006d	83 be 3c 01 00
	00 00		 cmp	 DWORD PTR [esi+316], 0
  00074	8b 4b 04	 mov	 ecx, DWORD PTR [ebx+4]
  00077	74 19		 je	 SHORT $LN3@DrawButton
; File C:\Program Files (x86)\Microsoft Visual Studio\2019\Community\VC\Tools\MSVC\14.29.30133\atlmfc\include\afxwin1.inl

; 546  : 	{ ASSERT(m_hDC != NULL); return ::RoundRect(m_hDC, lpRect->left, lpRect->top,

  00079	6a 02		 push	 2
  0007b	6a 02		 push	 2
  0007d	ff 75 18	 push	 DWORD PTR _rcClient$[ebp+12]
  00080	ff 75 14	 push	 DWORD PTR _rcClient$[ebp+8]
  00083	ff 75 10	 push	 DWORD PTR _rcClient$[ebp+4]
  00086	ff 75 0c	 push	 DWORD PTR _rcClient$[ebp]
  00089	51		 push	 ecx
  0008a	ff 15 00 00 00
	00		 call	 DWORD PTR __imp__RoundRect@28
; File D:\git\src\IBK\IBK_DRFN\ProjSrc\SrcDrfn\Chart\MULTICHART\control\RGBButton.cpp

; 70   : 		}

  00090	eb 13		 jmp	 SHORT $LN4@DrawButton
$LN3@DrawButton:
; File C:\Program Files (x86)\Microsoft Visual Studio\2019\Community\VC\Tools\MSVC\14.29.30133\atlmfc\include\afxwin1.inl

; 541  : 	{ ASSERT(m_hDC != NULL); return ::Rectangle(m_hDC, lpRect->left, lpRect->top,

  00092	ff 75 18	 push	 DWORD PTR _rcClient$[ebp+12]
  00095	ff 75 14	 push	 DWORD PTR _rcClient$[ebp+8]
  00098	ff 75 10	 push	 DWORD PTR _rcClient$[ebp+4]
  0009b	ff 75 0c	 push	 DWORD PTR _rcClient$[ebp]
  0009e	51		 push	 ecx
  0009f	ff 15 00 00 00
	00		 call	 DWORD PTR __imp__Rectangle@20
$LN4@DrawButton:
; File D:\git\src\IBK\IBK_DRFN\ProjSrc\SrcDrfn\Chart\MULTICHART\control\RGBButton.cpp

; 75   : 	pen.DeleteObject();

  000a5	8d 4d ec	 lea	 ecx, DWORD PTR _pen$[ebp]
  000a8	e8 00 00 00 00	 call	 ?DeleteObject@CGdiObject@@QAEHXZ ; CGdiObject::DeleteObject

; 76   : 	pDC->SelectObject(pOldPen);

  000ad	57		 push	 edi
  000ae	8b cb		 mov	 ecx, ebx
  000b0	e8 00 00 00 00	 call	 ?SelectObject@CDC@@QAEPAVCPen@@PAV2@@Z ; CDC::SelectObject
; File C:\Program Files (x86)\Microsoft Visual Studio\2019\Community\VC\Tools\MSVC\14.29.30133\atlmfc\include\atltypes.h

; 698  : 	::InflateRect(this, -x, -y);

  000b5	6a ff		 push	 -1
  000b7	6a ff		 push	 -1
  000b9	8d 45 0c	 lea	 eax, DWORD PTR _rcClient$[ebp]
  000bc	50		 push	 eax
  000bd	ff 15 00 00 00
	00		 call	 DWORD PTR __imp__InflateRect@12
; File D:\git\src\IBK\IBK_DRFN\ProjSrc\SrcDrfn\Chart\MULTICHART\control\RGBButton.cpp

; 82   : 	if(nItemState & ODS_DISABLED)

  000c3	83 7d e8 00	 cmp	 DWORD PTR tv255[ebp], 0
  000c7	8b be 2c 01 00
	00		 mov	 edi, DWORD PTR [esi+300]
  000cd	74 07		 je	 SHORT $LN5@DrawButton

; 83   : 		clrBackGround = DISCOLOR_BACKGROUND;

  000cf	bf 73 73 73 00	 mov	 edi, 7566195		; 00737373H
  000d4	eb 0c		 jmp	 SHORT $LN7@DrawButton
$LN5@DrawButton:

; 84   : 	else if(nItemState & ODS_SELECTED)

  000d6	f6 45 1c 01	 test	 BYTE PTR _nItemState$[ebp], 1
  000da	74 06		 je	 SHORT $LN7@DrawButton

; 85   : 		clrBackGround = m_clrBackGround_Sel;

  000dc	8b be 30 01 00
	00		 mov	 edi, DWORD PTR [esi+304]
$LN7@DrawButton:

; 86   : 
; 87   : 	if(m_bIsRoundRect)

  000e2	83 be 3c 01 00
	00 00		 cmp	 DWORD PTR [esi+316], 0
  000e9	74 0e		 je	 SHORT $LN8@DrawButton
; File C:\Program Files (x86)\Microsoft Visual Studio\2019\Community\VC\Tools\MSVC\14.29.30133\atlmfc\include\atltypes.h

; 698  : 	::InflateRect(this, -x, -y);

  000eb	6a ff		 push	 -1
  000ed	6a ff		 push	 -1
  000ef	8d 45 0c	 lea	 eax, DWORD PTR _rcClient$[ebp]
  000f2	50		 push	 eax
  000f3	ff 15 00 00 00
	00		 call	 DWORD PTR __imp__InflateRect@12
$LN8@DrawButton:
; File D:\git\src\IBK\IBK_DRFN\ProjSrc\SrcDrfn\Chart\MULTICHART\control\RGBButton.cpp

; 90   : 	pDC->FillSolidRect(rcClient, clrBackGround);

  000f9	57		 push	 edi
  000fa	8d 45 0c	 lea	 eax, DWORD PTR _rcClient$[ebp]
  000fd	8b cb		 mov	 ecx, ebx
  000ff	50		 push	 eax
  00100	e8 00 00 00 00	 call	 ?FillSolidRect@CDC@@QAEXPBUtagRECT@@K@Z ; CDC::FillSolidRect
; File C:\Program Files (x86)\Microsoft Visual Studio\2019\Community\VC\Tools\MSVC\14.29.30133\atlmfc\include\afxwin1.inl

; 106  : 	{ }

  00105	8d 4d ec	 lea	 ecx, DWORD PTR _pen$[ebp]
  00108	c7 45 ec 00 00
	00 00		 mov	 DWORD PTR _pen$[ebp], OFFSET ??_7CPen@@6B@
  0010f	e8 00 00 00 00	 call	 ??1CGdiObject@@UAE@XZ	; CGdiObject::~CGdiObject
; File D:\git\src\IBK\IBK_DRFN\ProjSrc\SrcDrfn\Chart\MULTICHART\control\RGBButton.cpp

; 91   : }

  00114	8b 4d f4	 mov	 ecx, DWORD PTR __$EHRec$[ebp]
  00117	64 89 0d 00 00
	00 00		 mov	 DWORD PTR fs:0, ecx
  0011e	59		 pop	 ecx
  0011f	5f		 pop	 edi
  00120	5e		 pop	 esi
  00121	5b		 pop	 ebx
  00122	8b e5		 mov	 esp, ebp
  00124	5d		 pop	 ebp
  00125	c2 18 00	 ret	 24			; 00000018H
_TEXT	ENDS
;	COMDAT text$x
text$x	SEGMENT
__unwindfunclet$?DrawButtonRect@CRGBButton@@QAEXPAVCDC@@VCRect@@I@Z$0:
  00000	8d 4d ec	 lea	 ecx, DWORD PTR _pen$[ebp]
  00003	e9 00 00 00 00	 jmp	 ??1CPen@@UAE@XZ		; CPen::~CPen
  00008	cc		 int	 3
  00009	cc		 int	 3
  0000a	cc		 int	 3
  0000b	cc		 int	 3
  0000c	cc		 int	 3
__ehhandler$?DrawButtonRect@CRGBButton@@QAEXPAVCDC@@VCRect@@I@Z:
  0000d	90		 npad	 1
  0000e	90		 npad	 1
  0000f	8b 54 24 08	 mov	 edx, DWORD PTR [esp+8]
  00013	8d 42 0c	 lea	 eax, DWORD PTR [edx+12]
  00016	8b 4a e4	 mov	 ecx, DWORD PTR [edx-28]
  00019	33 c8		 xor	 ecx, eax
  0001b	e8 00 00 00 00	 call	 @__security_check_cookie@4
  00020	b8 00 00 00 00	 mov	 eax, OFFSET __ehfuncinfo$?DrawButtonRect@CRGBButton@@QAEXPAVCDC@@VCRect@@I@Z
  00025	e9 00 00 00 00	 jmp	 ___CxxFrameHandler3
text$x	ENDS
?DrawButtonRect@CRGBButton@@QAEXPAVCDC@@VCRect@@I@Z ENDP ; CRGBButton::DrawButtonRect
; Function compile flags: /Ogtp
; File D:\git\src\IBK\IBK_DRFN\ProjSrc\SrcDrfn\Chart\MULTICHART\control\RGBButton.cpp
; File C:\Program Files (x86)\Microsoft Visual Studio\2019\Community\VC\Tools\MSVC\14.29.30133\atlmfc\include\afxcmn.inl
; File C:\Program Files (x86)\Microsoft Visual Studio\2019\Community\VC\Tools\MSVC\14.29.30133\atlmfc\include\afxwin2.inl
; File C:\Program Files (x86)\Microsoft Visual Studio\2019\Community\VC\Tools\MSVC\14.29.30133\atlmfc\include\afxcmn.inl
; File D:\git\src\IBK\IBK_DRFN\ProjSrc\SrcDrfn\Chart\MULTICHART\control\RGBButton.cpp
; File C:\Program Files (x86)\Microsoft Visual Studio\2019\Community\VC\Tools\MSVC\14.29.30133\atlmfc\include\afxwin2.inl
; File C:\Program Files (x86)\Microsoft Visual Studio\2019\Community\VC\Tools\MSVC\14.29.30133\atlmfc\include\atltypes.h
; File C:\Program Files (x86)\Microsoft Visual Studio\2019\Community\VC\Tools\MSVC\14.29.30133\atlmfc\include\afxwin2.inl
; File D:\git\src\IBK\IBK_DRFN\ProjSrc\SrcDrfn\Chart\MULTICHART\control\RGBButton.cpp
; File C:\Program Files (x86)\Microsoft Visual Studio\2019\Community\VC\Tools\MSVC\14.29.30133\atlmfc\include\afxcmn.inl
; File D:\git\src\IBK\IBK_DRFN\ProjSrc\SrcDrfn\Chart\MULTICHART\control\RGBButton.cpp
;	COMDAT ?SetTooltipText@CRGBButton@@QAEXPBDH@Z
_TEXT	SEGMENT
_rectBtn$1 = -20					; size = 16
__$ArrayPad$ = -4					; size = 4
_lpszText$ = 8						; size = 4
_bActivate$ = 12					; size = 4
?SetTooltipText@CRGBButton@@QAEXPBDH@Z PROC		; CRGBButton::SetTooltipText, COMDAT
; _this$ = ecx

; 187  : {

  00000	55		 push	 ebp
  00001	8b ec		 mov	 ebp, esp
  00003	83 ec 14	 sub	 esp, 20			; 00000014H
  00006	a1 00 00 00 00	 mov	 eax, DWORD PTR ___security_cookie
  0000b	33 c5		 xor	 eax, ebp
  0000d	89 45 fc	 mov	 DWORD PTR __$ArrayPad$[ebp], eax
  00010	53		 push	 ebx
  00011	8b 5d 08	 mov	 ebx, DWORD PTR _lpszText$[ebp]
  00014	56		 push	 esi
  00015	8b f1		 mov	 esi, ecx

; 188  : 	// We cannot accept NULL pointer
; 189  : 	if (lpszText == NULL) return;

  00017	85 db		 test	 ebx, ebx
  00019	0f 84 a6 00 00
	00		 je	 $LN1@SetTooltip

; 173  : 	if(m_ToolTip.m_hWnd == NULL)

  0001f	8b 86 a0 00 00
	00		 mov	 eax, DWORD PTR [esi+160]
  00025	8d 8e 80 00 00
	00		 lea	 ecx, DWORD PTR [esi+128]
  0002b	57		 push	 edi
  0002c	8b 3d 00 00 00
	00		 mov	 edi, DWORD PTR __imp__SendMessageA@16
  00032	85 c0		 test	 eax, eax
  00034	75 36		 jne	 SHORT $LN31@SetTooltip

; 174  : 	{
; 175  : 		m_ToolTip.Create(this);									// Create ToolTip Control

  00036	8b 01		 mov	 eax, DWORD PTR [ecx]
  00038	6a 00		 push	 0
  0003a	56		 push	 esi
  0003b	ff 90 6c 01 00
	00		 call	 DWORD PTR [eax+364]
; File C:\Program Files (x86)\Microsoft Visual Studio\2019\Community\VC\Tools\MSVC\14.29.30133\atlmfc\include\afxcmn.inl

; 425  : 	{ ASSERT(::IsWindow(m_hWnd));  ::SendMessage(m_hWnd, TTM_ACTIVATE, bActivate, 0L); }

  00041	6a 00		 push	 0
  00043	6a 00		 push	 0
  00045	68 01 04 00 00	 push	 1025			; 00000401H
  0004a	ff b6 a0 00 00
	00		 push	 DWORD PTR [esi+160]
  00050	ff d7		 call	 edi
; File C:\Program Files (x86)\Microsoft Visual Studio\2019\Community\VC\Tools\MSVC\14.29.30133\atlmfc\include\afxwin2.inl

; 32   : 	{ ASSERT(::IsWindow(m_hWnd)); return ::SendMessage(m_hWnd, message, wParam, lParam); }

  00052	68 90 01 00 00	 push	 400			; 00000190H
  00057	6a 00		 push	 0
  00059	68 18 04 00 00	 push	 1048			; 00000418H
  0005e	ff b6 a0 00 00
	00		 push	 DWORD PTR [esi+160]
  00064	ff d7		 call	 edi
  00066	8b 86 a0 00 00
	00		 mov	 eax, DWORD PTR [esi+160]
$LN31@SetTooltip:
; File C:\Program Files (x86)\Microsoft Visual Studio\2019\Community\VC\Tools\MSVC\14.29.30133\atlmfc\include\afxcmn.inl

; 431  : 	{ ASSERT(::IsWindow(m_hWnd));  return (int) ::SendMessage(m_hWnd, TTM_GETTOOLCOUNT, 0, 0L); }

  0006c	6a 00		 push	 0
  0006e	6a 00		 push	 0
  00070	68 0d 04 00 00	 push	 1037			; 0000040dH
  00075	50		 push	 eax
  00076	ff d7		 call	 edi
; File D:\git\src\IBK\IBK_DRFN\ProjSrc\SrcDrfn\Chart\MULTICHART\control\RGBButton.cpp

; 195  : 	if (m_ToolTip.GetToolCount() == 0)

  00078	85 c0		 test	 eax, eax
  0007a	75 27		 jne	 SHORT $LN3@SetTooltip
; File C:\Program Files (x86)\Microsoft Visual Studio\2019\Community\VC\Tools\MSVC\14.29.30133\atlmfc\include\afxwin2.inl

; 86   : 	{ ASSERT(::IsWindow(m_hWnd)); ::GetClientRect(m_hWnd, lpRect); }

  0007c	8d 45 ec	 lea	 eax, DWORD PTR _rectBtn$1[ebp]
  0007f	0f 57 c0	 xorps	 xmm0, xmm0
  00082	50		 push	 eax
  00083	ff 76 20	 push	 DWORD PTR [esi+32]
; File C:\Program Files (x86)\Microsoft Visual Studio\2019\Community\VC\Tools\MSVC\14.29.30133\atlmfc\include\atltypes.h

; 528  : 	left = 0;

  00086	0f 11 45 ec	 movups	 XMMWORD PTR _rectBtn$1[ebp], xmm0
; File C:\Program Files (x86)\Microsoft Visual Studio\2019\Community\VC\Tools\MSVC\14.29.30133\atlmfc\include\afxwin2.inl

; 86   : 	{ ASSERT(::IsWindow(m_hWnd)); ::GetClientRect(m_hWnd, lpRect); }

  0008a	ff 15 00 00 00
	00		 call	 DWORD PTR __imp__GetClientRect@8
; File D:\git\src\IBK\IBK_DRFN\ProjSrc\SrcDrfn\Chart\MULTICHART\control\RGBButton.cpp

; 199  : 		m_ToolTip.AddTool(this, lpszText, rectBtn, 1);

  00090	6a 01		 push	 1
  00092	8d 45 ec	 lea	 eax, DWORD PTR _rectBtn$1[ebp]
  00095	50		 push	 eax
  00096	53		 push	 ebx
  00097	56		 push	 esi
  00098	8d 8e 80 00 00
	00		 lea	 ecx, DWORD PTR [esi+128]
  0009e	e8 00 00 00 00	 call	 ?AddTool@CToolTipCtrl@@QAEHPAVCWnd@@PBDPBUtagRECT@@I@Z ; CToolTipCtrl::AddTool
$LN3@SetTooltip:

; 200  : 	}
; 201  : 
; 202  : 	// Set text for tooltip
; 203  : 	m_ToolTip.UpdateTipText(lpszText, this, 1);

  000a3	6a 01		 push	 1
  000a5	56		 push	 esi
  000a6	53		 push	 ebx
  000a7	8d 8e 80 00 00
	00		 lea	 ecx, DWORD PTR [esi+128]
  000ad	e8 00 00 00 00	 call	 ?UpdateTipText@CToolTipCtrl@@QAEXPBDPAVCWnd@@I@Z ; CToolTipCtrl::UpdateTipText
; File C:\Program Files (x86)\Microsoft Visual Studio\2019\Community\VC\Tools\MSVC\14.29.30133\atlmfc\include\afxcmn.inl

; 425  : 	{ ASSERT(::IsWindow(m_hWnd));  ::SendMessage(m_hWnd, TTM_ACTIVATE, bActivate, 0L); }

  000b2	6a 00		 push	 0
  000b4	ff 75 0c	 push	 DWORD PTR _bActivate$[ebp]
  000b7	68 01 04 00 00	 push	 1025			; 00000401H
  000bc	ff b6 a0 00 00
	00		 push	 DWORD PTR [esi+160]
  000c2	ff d7		 call	 edi
  000c4	5f		 pop	 edi
$LN1@SetTooltip:
; File D:\git\src\IBK\IBK_DRFN\ProjSrc\SrcDrfn\Chart\MULTICHART\control\RGBButton.cpp

; 205  : } // End of SetTooltipText

  000c5	8b 4d fc	 mov	 ecx, DWORD PTR __$ArrayPad$[ebp]
  000c8	5e		 pop	 esi
  000c9	33 cd		 xor	 ecx, ebp
  000cb	5b		 pop	 ebx
  000cc	e8 00 00 00 00	 call	 @__security_check_cookie@4
  000d1	8b e5		 mov	 esp, ebp
  000d3	5d		 pop	 ebp
  000d4	c2 08 00	 ret	 8
?SetTooltipText@CRGBButton@@QAEXPBDH@Z ENDP		; CRGBButton::SetTooltipText
_TEXT	ENDS
; Function compile flags: /Ogtp
; File D:\git\src\IBK\IBK_DRFN\ProjSrc\SrcDrfn\Chart\MULTICHART\control\RGBButton.cpp
; File C:\Program Files (x86)\Microsoft Visual Studio\2019\Community\VC\Tools\MSVC\14.29.30133\atlmfc\include\atlsimpstr.h
; File D:\git\src\IBK\IBK_DRFN\ProjSrc\SrcDrfn\Chart\MULTICHART\control\RGBButton.cpp
; File C:\Program Files (x86)\Microsoft Visual Studio\2019\Community\VC\Tools\MSVC\14.29.30133\atlmfc\include\afxcmn.inl
; File C:\Program Files (x86)\Microsoft Visual Studio\2019\Community\VC\Tools\MSVC\14.29.30133\atlmfc\include\afxwin2.inl
; File C:\Program Files (x86)\Microsoft Visual Studio\2019\Community\VC\Tools\MSVC\14.29.30133\atlmfc\include\afxcmn.inl
; File D:\git\src\IBK\IBK_DRFN\ProjSrc\SrcDrfn\Chart\MULTICHART\control\RGBButton.cpp
; File C:\Program Files (x86)\Microsoft Visual Studio\2019\Community\VC\Tools\MSVC\14.29.30133\atlmfc\include\afxwin2.inl
; File C:\Program Files (x86)\Microsoft Visual Studio\2019\Community\VC\Tools\MSVC\14.29.30133\atlmfc\include\atltypes.h
; File C:\Program Files (x86)\Microsoft Visual Studio\2019\Community\VC\Tools\MSVC\14.29.30133\atlmfc\include\afxwin2.inl
; File D:\git\src\IBK\IBK_DRFN\ProjSrc\SrcDrfn\Chart\MULTICHART\control\RGBButton.cpp
; File C:\Program Files (x86)\Microsoft Visual Studio\2019\Community\VC\Tools\MSVC\14.29.30133\atlmfc\include\afxcmn.inl
; File D:\git\src\IBK\IBK_DRFN\ProjSrc\SrcDrfn\Chart\MULTICHART\control\RGBButton.cpp
;	COMDAT ?SetTooltipText@CRGBButton@@QAEXHH@Z
_TEXT	SEGMENT
$T2 = -40						; size = 4
_sText$ = -36						; size = 4
_rectBtn$3 = -32					; size = 16
__$ArrayPad$ = -16					; size = 4
__$EHRec$ = -12						; size = 12
_nId$ = 8						; size = 4
_bActivate$ = 12					; size = 4
?SetTooltipText@CRGBButton@@QAEXHH@Z PROC		; CRGBButton::SetTooltipText, COMDAT
; _this$ = ecx

; 213  : {

  00000	55		 push	 ebp
  00001	8b ec		 mov	 ebp, esp
  00003	6a ff		 push	 -1
  00005	68 00 00 00 00	 push	 __ehhandler$?SetTooltipText@CRGBButton@@QAEXHH@Z
  0000a	64 a1 00 00 00
	00		 mov	 eax, DWORD PTR fs:0
  00010	50		 push	 eax
  00011	83 ec 1c	 sub	 esp, 28			; 0000001cH
  00014	a1 00 00 00 00	 mov	 eax, DWORD PTR ___security_cookie
  00019	33 c5		 xor	 eax, ebp
  0001b	89 45 f0	 mov	 DWORD PTR __$ArrayPad$[ebp], eax
  0001e	53		 push	 ebx
  0001f	56		 push	 esi
  00020	57		 push	 edi
  00021	50		 push	 eax
  00022	8d 45 f4	 lea	 eax, DWORD PTR __$EHRec$[ebp]
  00025	64 a3 00 00 00
	00		 mov	 DWORD PTR fs:0, eax
  0002b	8b f1		 mov	 esi, ecx

; 214  : 	CString sText;

  0002d	8d 4d dc	 lea	 ecx, DWORD PTR _sText$[ebp]
  00030	ff 15 00 00 00
	00		 call	 DWORD PTR __imp_??0?$CStringT@DV?$StrTraitMFC_DLL@DV?$ChTraitsCRT@D@ATL@@@@@ATL@@QAE@XZ

; 215  : 
; 216  : 	// load string resource
; 217  : 	sText.LoadString(nId);

  00036	ff 75 08	 push	 DWORD PTR _nId$[ebp]
  00039	8d 4d dc	 lea	 ecx, DWORD PTR _sText$[ebp]
  0003c	c7 45 fc 00 00
	00 00		 mov	 DWORD PTR __$EHRec$[ebp+8], 0
  00043	ff 15 00 00 00
	00		 call	 DWORD PTR __imp_?LoadStringA@?$CStringT@DV?$StrTraitMFC_DLL@DV?$ChTraitsCRT@D@ATL@@@@@ATL@@QAEHI@Z
; File C:\Program Files (x86)\Microsoft Visual Studio\2019\Community\VC\Tools\MSVC\14.29.30133\atlmfc\include\atlsimpstr.h

; 533  : 		return( GetLength() == 0 );

  00049	8b 45 dc	 mov	 eax, DWORD PTR _sText$[ebp]
  0004c	89 45 d8	 mov	 DWORD PTR $T2[ebp], eax
  0004f	83 78 f4 00	 cmp	 DWORD PTR [eax-12], 0
; File D:\git\src\IBK\IBK_DRFN\ProjSrc\SrcDrfn\Chart\MULTICHART\control\RGBButton.cpp

; 219  : 	if (sText.IsEmpty() == FALSE) SetTooltipText((LPCTSTR)sText, bActivate);

  00053	0f 84 ac 00 00
	00		 je	 $LN13@SetTooltip

; 173  : 	if(m_ToolTip.m_hWnd == NULL)

  00059	8b 86 a0 00 00
	00		 mov	 eax, DWORD PTR [esi+160]
  0005f	8b 3d 00 00 00
	00		 mov	 edi, DWORD PTR __imp__SendMessageA@16
  00065	85 c0		 test	 eax, eax
  00067	75 40		 jne	 SHORT $LN43@SetTooltip

; 174  : 	{
; 175  : 		m_ToolTip.Create(this);									// Create ToolTip Control

  00069	8b 86 80 00 00
	00		 mov	 eax, DWORD PTR [esi+128]
  0006f	8d 8e 80 00 00
	00		 lea	 ecx, DWORD PTR [esi+128]
  00075	6a 00		 push	 0
  00077	56		 push	 esi
  00078	ff 90 6c 01 00
	00		 call	 DWORD PTR [eax+364]
; File C:\Program Files (x86)\Microsoft Visual Studio\2019\Community\VC\Tools\MSVC\14.29.30133\atlmfc\include\afxcmn.inl

; 425  : 	{ ASSERT(::IsWindow(m_hWnd));  ::SendMessage(m_hWnd, TTM_ACTIVATE, bActivate, 0L); }

  0007e	6a 00		 push	 0
  00080	6a 00		 push	 0
  00082	68 01 04 00 00	 push	 1025			; 00000401H
  00087	ff b6 a0 00 00
	00		 push	 DWORD PTR [esi+160]
  0008d	ff d7		 call	 edi
; File C:\Program Files (x86)\Microsoft Visual Studio\2019\Community\VC\Tools\MSVC\14.29.30133\atlmfc\include\afxwin2.inl

; 32   : 	{ ASSERT(::IsWindow(m_hWnd)); return ::SendMessage(m_hWnd, message, wParam, lParam); }

  0008f	68 90 01 00 00	 push	 400			; 00000190H
  00094	6a 00		 push	 0
  00096	68 18 04 00 00	 push	 1048			; 00000418H
  0009b	ff b6 a0 00 00
	00		 push	 DWORD PTR [esi+160]
  000a1	ff d7		 call	 edi
  000a3	8b 86 a0 00 00
	00		 mov	 eax, DWORD PTR [esi+160]
$LN43@SetTooltip:
; File C:\Program Files (x86)\Microsoft Visual Studio\2019\Community\VC\Tools\MSVC\14.29.30133\atlmfc\include\afxcmn.inl

; 431  : 	{ ASSERT(::IsWindow(m_hWnd));  return (int) ::SendMessage(m_hWnd, TTM_GETTOOLCOUNT, 0, 0L); }

  000a9	6a 00		 push	 0
  000ab	6a 00		 push	 0
  000ad	68 0d 04 00 00	 push	 1037			; 0000040dH
  000b2	50		 push	 eax
  000b3	ff d7		 call	 edi
; File D:\git\src\IBK\IBK_DRFN\ProjSrc\SrcDrfn\Chart\MULTICHART\control\RGBButton.cpp

; 195  : 	if (m_ToolTip.GetToolCount() == 0)

  000b5	85 c0		 test	 eax, eax
  000b7	75 29		 jne	 SHORT $LN15@SetTooltip
; File C:\Program Files (x86)\Microsoft Visual Studio\2019\Community\VC\Tools\MSVC\14.29.30133\atlmfc\include\afxwin2.inl

; 86   : 	{ ASSERT(::IsWindow(m_hWnd)); ::GetClientRect(m_hWnd, lpRect); }

  000b9	8d 45 e0	 lea	 eax, DWORD PTR _rectBtn$3[ebp]
  000bc	0f 57 c0	 xorps	 xmm0, xmm0
  000bf	50		 push	 eax
  000c0	ff 76 20	 push	 DWORD PTR [esi+32]
; File C:\Program Files (x86)\Microsoft Visual Studio\2019\Community\VC\Tools\MSVC\14.29.30133\atlmfc\include\atltypes.h

; 528  : 	left = 0;

  000c3	0f 11 45 e0	 movups	 XMMWORD PTR _rectBtn$3[ebp], xmm0
; File C:\Program Files (x86)\Microsoft Visual Studio\2019\Community\VC\Tools\MSVC\14.29.30133\atlmfc\include\afxwin2.inl

; 86   : 	{ ASSERT(::IsWindow(m_hWnd)); ::GetClientRect(m_hWnd, lpRect); }

  000c7	ff 15 00 00 00
	00		 call	 DWORD PTR __imp__GetClientRect@8
; File D:\git\src\IBK\IBK_DRFN\ProjSrc\SrcDrfn\Chart\MULTICHART\control\RGBButton.cpp

; 199  : 		m_ToolTip.AddTool(this, lpszText, rectBtn, 1);

  000cd	6a 01		 push	 1
  000cf	8d 45 e0	 lea	 eax, DWORD PTR _rectBtn$3[ebp]
  000d2	50		 push	 eax
  000d3	ff 75 d8	 push	 DWORD PTR $T2[ebp]
  000d6	8d 8e 80 00 00
	00		 lea	 ecx, DWORD PTR [esi+128]
  000dc	56		 push	 esi
  000dd	e8 00 00 00 00	 call	 ?AddTool@CToolTipCtrl@@QAEHPAVCWnd@@PBDPBUtagRECT@@I@Z ; CToolTipCtrl::AddTool
$LN15@SetTooltip:

; 200  : 	}
; 201  : 
; 202  : 	// Set text for tooltip
; 203  : 	m_ToolTip.UpdateTipText(lpszText, this, 1);

  000e2	6a 01		 push	 1
  000e4	56		 push	 esi
  000e5	ff 75 d8	 push	 DWORD PTR $T2[ebp]
  000e8	8d 8e 80 00 00
	00		 lea	 ecx, DWORD PTR [esi+128]
  000ee	e8 00 00 00 00	 call	 ?UpdateTipText@CToolTipCtrl@@QAEXPBDPAVCWnd@@I@Z ; CToolTipCtrl::UpdateTipText
; File C:\Program Files (x86)\Microsoft Visual Studio\2019\Community\VC\Tools\MSVC\14.29.30133\atlmfc\include\afxcmn.inl

; 425  : 	{ ASSERT(::IsWindow(m_hWnd));  ::SendMessage(m_hWnd, TTM_ACTIVATE, bActivate, 0L); }

  000f3	6a 00		 push	 0
  000f5	ff 75 0c	 push	 DWORD PTR _bActivate$[ebp]
  000f8	68 01 04 00 00	 push	 1025			; 00000401H
  000fd	ff b6 a0 00 00
	00		 push	 DWORD PTR [esi+160]
  00103	ff d7		 call	 edi
$LN13@SetTooltip:
; File D:\git\src\IBK\IBK_DRFN\ProjSrc\SrcDrfn\Chart\MULTICHART\control\RGBButton.cpp

; 220  : } // End of SetTooltipText

  00105	8d 4d dc	 lea	 ecx, DWORD PTR _sText$[ebp]
  00108	ff 15 00 00 00
	00		 call	 DWORD PTR __imp_??1?$CStringT@DV?$StrTraitMFC_DLL@DV?$ChTraitsCRT@D@ATL@@@@@ATL@@QAE@XZ
  0010e	8b 4d f4	 mov	 ecx, DWORD PTR __$EHRec$[ebp]
  00111	64 89 0d 00 00
	00 00		 mov	 DWORD PTR fs:0, ecx
  00118	59		 pop	 ecx
  00119	5f		 pop	 edi
  0011a	5e		 pop	 esi
  0011b	5b		 pop	 ebx
  0011c	8b 4d f0	 mov	 ecx, DWORD PTR __$ArrayPad$[ebp]
  0011f	33 cd		 xor	 ecx, ebp
  00121	e8 00 00 00 00	 call	 @__security_check_cookie@4
  00126	8b e5		 mov	 esp, ebp
  00128	5d		 pop	 ebp
  00129	c2 08 00	 ret	 8
_TEXT	ENDS
;	COMDAT text$x
text$x	SEGMENT
__unwindfunclet$?SetTooltipText@CRGBButton@@QAEXHH@Z$0:
  00000	8d 4d dc	 lea	 ecx, DWORD PTR _sText$[ebp]
  00003	ff 25 00 00 00
	00		 jmp	 DWORD PTR __imp_??1?$CStringT@DV?$StrTraitMFC_DLL@DV?$ChTraitsCRT@D@ATL@@@@@ATL@@QAE@XZ
  00009	cc		 int	 3
  0000a	cc		 int	 3
  0000b	cc		 int	 3
  0000c	cc		 int	 3
  0000d	cc		 int	 3
__ehhandler$?SetTooltipText@CRGBButton@@QAEXHH@Z:
  0000e	90		 npad	 1
  0000f	90		 npad	 1
  00010	8b 54 24 08	 mov	 edx, DWORD PTR [esp+8]
  00014	8d 42 0c	 lea	 eax, DWORD PTR [edx+12]
  00017	8b 4a d4	 mov	 ecx, DWORD PTR [edx-44]
  0001a	33 c8		 xor	 ecx, eax
  0001c	e8 00 00 00 00	 call	 @__security_check_cookie@4
  00021	8b 4a fc	 mov	 ecx, DWORD PTR [edx-4]
  00024	33 c8		 xor	 ecx, eax
  00026	e8 00 00 00 00	 call	 @__security_check_cookie@4
  0002b	b8 00 00 00 00	 mov	 eax, OFFSET __ehfuncinfo$?SetTooltipText@CRGBButton@@QAEXHH@Z
  00030	e9 00 00 00 00	 jmp	 ___CxxFrameHandler3
text$x	ENDS
?SetTooltipText@CRGBButton@@QAEXHH@Z ENDP		; CRGBButton::SetTooltipText
; Function compile flags: /Ogtp
; File D:\git\src\IBK\IBK_DRFN\ProjSrc\SrcDrfn\Chart\MULTICHART\control\RGBButton.cpp
; File C:\Program Files (x86)\Microsoft Visual Studio\2019\Community\VC\Tools\MSVC\14.29.30133\atlmfc\include\afxcmn.inl
; File C:\Program Files (x86)\Microsoft Visual Studio\2019\Community\VC\Tools\MSVC\14.29.30133\atlmfc\include\afxwin2.inl
; File D:\git\src\IBK\IBK_DRFN\ProjSrc\SrcDrfn\Chart\MULTICHART\control\RGBButton.cpp
;	COMDAT ?InitToolTip@CRGBButton@@QAEXXZ
_TEXT	SEGMENT
?InitToolTip@CRGBButton@@QAEXXZ PROC			; CRGBButton::InitToolTip, COMDAT
; _this$ = ecx

; 172  : {

  00000	57		 push	 edi
  00001	8b f9		 mov	 edi, ecx

; 173  : 	if(m_ToolTip.m_hWnd == NULL)

  00003	83 bf a0 00 00
	00 00		 cmp	 DWORD PTR [edi+160], 0
  0000a	75 42		 jne	 SHORT $LN2@InitToolTi

; 174  : 	{
; 175  : 		m_ToolTip.Create(this);									// Create ToolTip Control

  0000c	8b 87 80 00 00
	00		 mov	 eax, DWORD PTR [edi+128]
  00012	8d 8f 80 00 00
	00		 lea	 ecx, DWORD PTR [edi+128]
  00018	6a 00		 push	 0
  0001a	57		 push	 edi
  0001b	ff 90 6c 01 00
	00		 call	 DWORD PTR [eax+364]
; File C:\Program Files (x86)\Microsoft Visual Studio\2019\Community\VC\Tools\MSVC\14.29.30133\atlmfc\include\afxcmn.inl

; 425  : 	{ ASSERT(::IsWindow(m_hWnd));  ::SendMessage(m_hWnd, TTM_ACTIVATE, bActivate, 0L); }

  00021	6a 00		 push	 0
  00023	6a 00		 push	 0
  00025	68 01 04 00 00	 push	 1025			; 00000401H
  0002a	ff b7 a0 00 00
	00		 push	 DWORD PTR [edi+160]
  00030	ff 15 00 00 00
	00		 call	 DWORD PTR __imp__SendMessageA@16
; File C:\Program Files (x86)\Microsoft Visual Studio\2019\Community\VC\Tools\MSVC\14.29.30133\atlmfc\include\afxwin2.inl

; 32   : 	{ ASSERT(::IsWindow(m_hWnd)); return ::SendMessage(m_hWnd, message, wParam, lParam); }

  00036	68 90 01 00 00	 push	 400			; 00000190H
  0003b	6a 00		 push	 0
  0003d	68 18 04 00 00	 push	 1048			; 00000418H
  00042	ff b7 a0 00 00
	00		 push	 DWORD PTR [edi+160]
  00048	ff 15 00 00 00
	00		 call	 DWORD PTR __imp__SendMessageA@16
$LN2@InitToolTi:
  0004e	5f		 pop	 edi
; File D:\git\src\IBK\IBK_DRFN\ProjSrc\SrcDrfn\Chart\MULTICHART\control\RGBButton.cpp

; 179  : }

  0004f	c3		 ret	 0
?InitToolTip@CRGBButton@@QAEXXZ ENDP			; CRGBButton::InitToolTip
_TEXT	ENDS
; Function compile flags: /Ogtp
; File D:\git\src\IBK\IBK_DRFN\ProjSrc\SrcDrfn\Chart\MULTICHART\control\RGBButton.cpp
; File C:\Program Files (x86)\Microsoft Visual Studio\2019\Community\VC\Tools\MSVC\14.29.30133\atlmfc\include\afxwin2.inl
; File D:\git\src\IBK\IBK_DRFN\ProjSrc\SrcDrfn\Chart\MULTICHART\control\RGBButton.cpp
;	COMDAT ??0CRGBButton@@QAE@XZ
_TEXT	SEGMENT
_this$ = -16						; size = 4
__$EHRec$ = -12						; size = 12
??0CRGBButton@@QAE@XZ PROC				; CRGBButton::CRGBButton, COMDAT
; _this$ = ecx

; 23   : {

  00000	55		 push	 ebp
  00001	8b ec		 mov	 ebp, esp
  00003	6a ff		 push	 -1
  00005	68 00 00 00 00	 push	 __ehhandler$??0CRGBButton@@QAE@XZ
  0000a	64 a1 00 00 00
	00		 mov	 eax, DWORD PTR fs:0
  00010	50		 push	 eax
  00011	51		 push	 ecx
  00012	56		 push	 esi
  00013	57		 push	 edi
  00014	a1 00 00 00 00	 mov	 eax, DWORD PTR ___security_cookie
  00019	33 c5		 xor	 eax, ebp
  0001b	50		 push	 eax
  0001c	8d 45 f4	 lea	 eax, DWORD PTR __$EHRec$[ebp]
  0001f	64 a3 00 00 00
	00		 mov	 DWORD PTR fs:0, eax
  00025	8b f9		 mov	 edi, ecx
  00027	89 7d f0	 mov	 DWORD PTR _this$[ebp], edi
; File C:\Program Files (x86)\Microsoft Visual Studio\2019\Community\VC\Tools\MSVC\14.29.30133\atlmfc\include\afxwin2.inl

; 622  : 	{ }

  0002a	e8 00 00 00 00	 call	 ??0CWnd@@QAE@XZ		; CWnd::CWnd
; File D:\git\src\IBK\IBK_DRFN\ProjSrc\SrcDrfn\Chart\MULTICHART\control\RGBButton.cpp

; 23   : {

  0002f	8d 8f 80 00 00
	00		 lea	 ecx, DWORD PTR [edi+128]
  00035	c7 45 fc 00 00
	00 00		 mov	 DWORD PTR __$EHRec$[ebp+8], 0
  0003c	c7 07 00 00 00
	00		 mov	 DWORD PTR [edi], OFFSET ??_7CRGBButton@@6B@
  00042	e8 00 00 00 00	 call	 ??0CToolTipCtrl@@QAE@XZ	; CToolTipCtrl::CToolTipCtrl
  00047	8d 8f 44 01 00
	00		 lea	 ecx, DWORD PTR [edi+324]
  0004d	ff 15 00 00 00
	00		 call	 DWORD PTR __imp_??0?$CStringT@DV?$StrTraitMFC_DLL@DV?$ChTraitsCRT@D@ATL@@@@@ATL@@QAE@XZ

; 24   : 	m_bTracking = FALSE;		// Botton_RGB 영역 내 존재시 마우스 Mouse Position Tracking 시작 (Now Tracking - TRUE / End Tracking - FALSE)
; 25   : 	m_bHover	= FALSE;		// Hovering 상태 (In - TRUE / Out - FALSE)
; 26   : 
; 27   : 	m_bHasBorder = TRUE;
; 28   : 	m_bIsRoundRect = FALSE;
; 29   : 	m_pFont = NULL;
; 30   : 	m_szText.Empty();

  00053	8d 8f 44 01 00
	00		 lea	 ecx, DWORD PTR [edi+324]
  00059	c7 87 20 01 00
	00 00 00 00 00	 mov	 DWORD PTR [edi+288], 0
  00063	c7 87 24 01 00
	00 00 00 00 00	 mov	 DWORD PTR [edi+292], 0
  0006d	c7 87 38 01 00
	00 01 00 00 00	 mov	 DWORD PTR [edi+312], 1
  00077	c7 87 3c 01 00
	00 00 00 00 00	 mov	 DWORD PTR [edi+316], 0
  00081	c7 87 40 01 00
	00 00 00 00 00	 mov	 DWORD PTR [edi+320], 0
  0008b	ff 15 00 00 00
	00		 call	 DWORD PTR __imp_?Empty@?$CSimpleStringT@D$00@ATL@@QAEXXZ

; 31   : 
; 32   : 	m_pSideBar = NULL;

  00091	c7 87 4c 01 00
	00 00 00 00 00	 mov	 DWORD PTR [edi+332], 0

; 33   : 	m_bSideBarRunning = FALSE;
; 34   : }

  0009b	8b c7		 mov	 eax, edi
  0009d	c7 87 48 01 00
	00 00 00 00 00	 mov	 DWORD PTR [edi+328], 0
  000a7	8b 4d f4	 mov	 ecx, DWORD PTR __$EHRec$[ebp]
  000aa	64 89 0d 00 00
	00 00		 mov	 DWORD PTR fs:0, ecx
  000b1	59		 pop	 ecx
  000b2	5f		 pop	 edi
  000b3	5e		 pop	 esi
  000b4	8b e5		 mov	 esp, ebp
  000b6	5d		 pop	 ebp
  000b7	c3		 ret	 0
_TEXT	ENDS
;	COMDAT text$x
text$x	SEGMENT
__unwindfunclet$??0CRGBButton@@QAE@XZ$0:
  00000	8b 4d f0	 mov	 ecx, DWORD PTR _this$[ebp]
  00003	e9 00 00 00 00	 jmp	 ??1CButton@@UAE@XZ	; CButton::~CButton
  00008	cc		 int	 3
  00009	cc		 int	 3
  0000a	cc		 int	 3
  0000b	cc		 int	 3
  0000c	cc		 int	 3
__ehhandler$??0CRGBButton@@QAE@XZ:
  0000d	90		 npad	 1
  0000e	90		 npad	 1
  0000f	8b 54 24 08	 mov	 edx, DWORD PTR [esp+8]
  00013	8d 42 0c	 lea	 eax, DWORD PTR [edx+12]
  00016	8b 4a f0	 mov	 ecx, DWORD PTR [edx-16]
  00019	33 c8		 xor	 ecx, eax
  0001b	e8 00 00 00 00	 call	 @__security_check_cookie@4
  00020	b8 00 00 00 00	 mov	 eax, OFFSET __ehfuncinfo$??0CRGBButton@@QAE@XZ
  00025	e9 00 00 00 00	 jmp	 ___CxxFrameHandler3
text$x	ENDS
??0CRGBButton@@QAE@XZ ENDP				; CRGBButton::CRGBButton
; Function compile flags: /Ogtp
; File C:\Program Files (x86)\Microsoft Visual Studio\2019\Community\VC\Tools\MSVC\14.29.30133\atlmfc\include\afx.inl
;	COMDAT ??_GCButton@@UAEPAXI@Z
_TEXT	SEGMENT
___flags$ = 8						; size = 4
??_GCButton@@UAEPAXI@Z PROC				; CButton::`scalar deleting destructor', COMDAT
; _this$ = ecx
  00000	55		 push	 ebp
  00001	8b ec		 mov	 ebp, esp
  00003	56		 push	 esi
  00004	8b f1		 mov	 esi, ecx
  00006	e8 00 00 00 00	 call	 ??1CButton@@UAE@XZ	; CButton::~CButton
  0000b	8b 45 08	 mov	 eax, DWORD PTR ___flags$[ebp]
  0000e	a8 01		 test	 al, 1
  00010	74 22		 je	 SHORT $LN9@scalar
  00012	a8 04		 test	 al, 4
  00014	75 10		 jne	 SHORT $LN3@scalar

; 112  : 	{ ::operator delete(p); }

  00016	56		 push	 esi
  00017	e8 00 00 00 00	 call	 ??3@YAXPAX@Z		; operator delete
  0001c	83 c4 04	 add	 esp, 4
  0001f	8b c6		 mov	 eax, esi
  00021	5e		 pop	 esi
  00022	5d		 pop	 ebp
  00023	c2 04 00	 ret	 4
$LN3@scalar:
  00026	68 80 00 00 00	 push	 128			; 00000080H
  0002b	56		 push	 esi
  0002c	e8 00 00 00 00	 call	 ?__global_delete@@YAXPAXI@Z ; __global_delete
  00031	83 c4 08	 add	 esp, 8
$LN9@scalar:
  00034	8b c6		 mov	 eax, esi
  00036	5e		 pop	 esi
  00037	5d		 pop	 ebp
  00038	c2 04 00	 ret	 4
??_GCButton@@UAEPAXI@Z ENDP				; CButton::`scalar deleting destructor'
_TEXT	ENDS
; Function compile flags: /Ogtp
; File C:\Program Files (x86)\Microsoft Visual Studio\2019\Community\VC\Tools\MSVC\14.29.30133\atlmfc\include\afxwin2.inl
;	COMDAT ?EndModalState@CWnd@@UAEXXZ
_TEXT	SEGMENT
?EndModalState@CWnd@@UAEXXZ PROC			; CWnd::EndModalState, COMDAT
; _this$ = ecx

; 567  : 	{ ::EnableWindow(m_hWnd, TRUE); }

  00000	6a 01		 push	 1
  00002	ff 71 20	 push	 DWORD PTR [ecx+32]
  00005	ff 15 00 00 00
	00		 call	 DWORD PTR __imp__EnableWindow@8
  0000b	c3		 ret	 0
?EndModalState@CWnd@@UAEXXZ ENDP			; CWnd::EndModalState
_TEXT	ENDS
; Function compile flags: /Ogtp
; File C:\Program Files (x86)\Microsoft Visual Studio\2019\Community\VC\Tools\MSVC\14.29.30133\atlmfc\include\afxwin2.inl
;	COMDAT ?BeginModalState@CWnd@@UAEXXZ
_TEXT	SEGMENT
?BeginModalState@CWnd@@UAEXXZ PROC			; CWnd::BeginModalState, COMDAT
; _this$ = ecx

; 565  : 	{ ::EnableWindow(m_hWnd, FALSE); }

  00000	6a 00		 push	 0
  00002	ff 71 20	 push	 DWORD PTR [ecx+32]
  00005	ff 15 00 00 00
	00		 call	 DWORD PTR __imp__EnableWindow@8
  0000b	c3		 ret	 0
?BeginModalState@CWnd@@UAEXXZ ENDP			; CWnd::BeginModalState
_TEXT	ENDS
; Function compile flags: /Ogtp
; File C:\Program Files (x86)\Microsoft Visual Studio\2019\Community\VC\Tools\MSVC\14.29.30133\atlmfc\include\afxwin2.inl
;	COMDAT ?DoDataExchange@CWnd@@MAEXPAVCDataExchange@@@Z
_TEXT	SEGMENT
___formal$ = 8						; size = 4
?DoDataExchange@CWnd@@MAEXPAVCDataExchange@@@Z PROC	; CWnd::DoDataExchange, COMDAT
; _this$ = ecx

; 561  : 	{ } // default does nothing

  00000	c2 04 00	 ret	 4
?DoDataExchange@CWnd@@MAEXPAVCDataExchange@@@Z ENDP	; CWnd::DoDataExchange
_TEXT	ENDS
; Function compile flags: /Ogtp
; File C:\Program Files (x86)\Microsoft Visual Studio\2019\Community\VC\Tools\MSVC\14.29.30133\atlmfc\include\afxwin1.inl
; File C:\Program Files (x86)\Microsoft Visual Studio\2019\Community\VC\Tools\MSVC\14.29.30133\atlmfc\include\afx.inl
;	COMDAT ??_GCPen@@UAEPAXI@Z
_TEXT	SEGMENT
___flags$ = 8						; size = 4
??_GCPen@@UAEPAXI@Z PROC				; CPen::`scalar deleting destructor', COMDAT
; _this$ = ecx
  00000	55		 push	 ebp
  00001	8b ec		 mov	 ebp, esp
; File C:\Program Files (x86)\Microsoft Visual Studio\2019\Community\VC\Tools\MSVC\14.29.30133\atlmfc\include\afxwin1.inl

; 106  : 	{ }

  00003	56		 push	 esi
  00004	8b f1		 mov	 esi, ecx
  00006	c7 06 00 00 00
	00		 mov	 DWORD PTR [esi], OFFSET ??_7CPen@@6B@
  0000c	e8 00 00 00 00	 call	 ??1CGdiObject@@UAE@XZ	; CGdiObject::~CGdiObject
  00011	8b 45 08	 mov	 eax, DWORD PTR ___flags$[ebp]
  00014	a8 01		 test	 al, 1
  00016	74 1f		 je	 SHORT $LN12@scalar
  00018	a8 04		 test	 al, 4
  0001a	75 10		 jne	 SHORT $LN3@scalar
; File C:\Program Files (x86)\Microsoft Visual Studio\2019\Community\VC\Tools\MSVC\14.29.30133\atlmfc\include\afx.inl

; 112  : 	{ ::operator delete(p); }

  0001c	56		 push	 esi
  0001d	e8 00 00 00 00	 call	 ??3@YAXPAX@Z		; operator delete
  00022	83 c4 04	 add	 esp, 4
  00025	8b c6		 mov	 eax, esi
  00027	5e		 pop	 esi
  00028	5d		 pop	 ebp
  00029	c2 04 00	 ret	 4
$LN3@scalar:
  0002c	6a 08		 push	 8
  0002e	56		 push	 esi
  0002f	e8 00 00 00 00	 call	 ?__global_delete@@YAXPAXI@Z ; __global_delete
  00034	83 c4 08	 add	 esp, 8
$LN12@scalar:
  00037	8b c6		 mov	 eax, esi
  00039	5e		 pop	 esi
  0003a	5d		 pop	 ebp
  0003b	c2 04 00	 ret	 4
??_GCPen@@UAEPAXI@Z ENDP				; CPen::`scalar deleting destructor'
_TEXT	ENDS
; Function compile flags: /Ogtp
; File C:\Program Files (x86)\Microsoft Visual Studio\2019\Community\VC\Tools\MSVC\14.29.30133\atlmfc\include\afxwin1.inl
;	COMDAT ??1CPen@@UAE@XZ
_TEXT	SEGMENT
??1CPen@@UAE@XZ PROC					; CPen::~CPen, COMDAT
; _this$ = ecx

; 106  : 	{ }

  00000	c7 01 00 00 00
	00		 mov	 DWORD PTR [ecx], OFFSET ??_7CPen@@6B@
  00006	e9 00 00 00 00	 jmp	 ??1CGdiObject@@UAE@XZ	; CGdiObject::~CGdiObject
??1CPen@@UAE@XZ ENDP					; CPen::~CPen
_TEXT	ENDS
; Function compile flags: /Ogtp
; File C:\Program Files (x86)\Microsoft Visual Studio\2019\Community\VC\Tools\MSVC\14.29.30133\atlmfc\include\afx.inl
;	COMDAT ??_GCGdiObject@@UAEPAXI@Z
_TEXT	SEGMENT
___flags$ = 8						; size = 4
??_GCGdiObject@@UAEPAXI@Z PROC				; CGdiObject::`scalar deleting destructor', COMDAT
; _this$ = ecx
  00000	55		 push	 ebp
  00001	8b ec		 mov	 ebp, esp
  00003	56		 push	 esi
  00004	8b f1		 mov	 esi, ecx
  00006	e8 00 00 00 00	 call	 ??1CGdiObject@@UAE@XZ	; CGdiObject::~CGdiObject
  0000b	8b 45 08	 mov	 eax, DWORD PTR ___flags$[ebp]
  0000e	a8 01		 test	 al, 1
  00010	74 1f		 je	 SHORT $LN9@scalar
  00012	a8 04		 test	 al, 4
  00014	75 10		 jne	 SHORT $LN3@scalar

; 112  : 	{ ::operator delete(p); }

  00016	56		 push	 esi
  00017	e8 00 00 00 00	 call	 ??3@YAXPAX@Z		; operator delete
  0001c	83 c4 04	 add	 esp, 4
  0001f	8b c6		 mov	 eax, esi
  00021	5e		 pop	 esi
  00022	5d		 pop	 ebp
  00023	c2 04 00	 ret	 4
$LN3@scalar:
  00026	6a 08		 push	 8
  00028	56		 push	 esi
  00029	e8 00 00 00 00	 call	 ?__global_delete@@YAXPAXI@Z ; __global_delete
  0002e	83 c4 08	 add	 esp, 8
$LN9@scalar:
  00031	8b c6		 mov	 eax, esi
  00033	5e		 pop	 esi
  00034	5d		 pop	 ebp
  00035	c2 04 00	 ret	 4
??_GCGdiObject@@UAEPAXI@Z ENDP				; CGdiObject::`scalar deleting destructor'
_TEXT	ENDS
; Function compile flags: /Ogtp
; File C:\Program Files (x86)\Microsoft Visual Studio\2019\Community\VC\Tools\MSVC\14.29.30133\atlmfc\include\afxwin1.inl
;	COMDAT ??1CGdiObject@@UAE@XZ
_TEXT	SEGMENT
_pException$2 = -540					; size = 4
_strMsg$3 = -536					; size = 4
_szErrorMessage$4 = -532				; size = 512
__$ArrayPad$ = -20					; size = 4
__$EHRec$ = -16						; size = 16
??1CGdiObject@@UAE@XZ PROC				; CGdiObject::~CGdiObject, COMDAT
; _this$ = ecx

; 74   : {

  00000	55		 push	 ebp
  00001	8b ec		 mov	 ebp, esp
  00003	6a ff		 push	 -1
  00005	68 00 00 00 00	 push	 __ehhandler$??1CGdiObject@@UAE@XZ
  0000a	64 a1 00 00 00
	00		 mov	 eax, DWORD PTR fs:0
  00010	50		 push	 eax
  00011	81 ec 10 02 00
	00		 sub	 esp, 528		; 00000210H
  00017	a1 00 00 00 00	 mov	 eax, DWORD PTR ___security_cookie
  0001c	33 c5		 xor	 eax, ebp
  0001e	89 45 ec	 mov	 DWORD PTR __$ArrayPad$[ebp], eax
  00021	53		 push	 ebx
  00022	56		 push	 esi
  00023	57		 push	 edi
  00024	50		 push	 eax
  00025	8d 45 f4	 lea	 eax, DWORD PTR __$EHRec$[ebp+4]
  00028	64 a3 00 00 00
	00		 mov	 DWORD PTR fs:0, eax
  0002e	89 65 f0	 mov	 DWORD PTR __$EHRec$[ebp], esp
  00031	c7 01 00 00 00
	00		 mov	 DWORD PTR [ecx], OFFSET ??_7CGdiObject@@6B@

; 75   : 	AFX_BEGIN_DESTRUCTOR

  00037	c7 45 fc 00 00
	00 00		 mov	 DWORD PTR __$EHRec$[ebp+12], 0

; 76   : 	DeleteObject();

  0003e	e8 00 00 00 00	 call	 ?DeleteObject@CGdiObject@@QAEHXZ ; CGdiObject::DeleteObject
$LN18@CGdiObject:

; 78   : }

  00043	8b 4d f4	 mov	 ecx, DWORD PTR __$EHRec$[ebp+4]
  00046	64 89 0d 00 00
	00 00		 mov	 DWORD PTR fs:0, ecx
  0004d	59		 pop	 ecx
  0004e	5f		 pop	 edi
  0004f	5e		 pop	 esi
  00050	5b		 pop	 ebx
  00051	8b 4d ec	 mov	 ecx, DWORD PTR __$ArrayPad$[ebp]
  00054	33 cd		 xor	 ecx, ebp
  00056	e8 00 00 00 00	 call	 @__security_check_cookie@4
  0005b	8b e5		 mov	 esp, ebp
  0005d	5d		 pop	 ebp
  0005e	c3		 ret	 0
__catch$??1CGdiObject@@UAE@XZ$0:

; 77   : 	AFX_END_DESTRUCTOR

  0005f	8d 8d e8 fd ff
	ff		 lea	 ecx, DWORD PTR _strMsg$3[ebp]
  00065	ff 15 00 00 00
	00		 call	 DWORD PTR __imp_??0?$CStringT@DV?$StrTraitMFC_DLL@DV?$ChTraitsCRT@D@ATL@@@@@ATL@@QAE@XZ
  0006b	8b b5 e4 fd ff
	ff		 mov	 esi, DWORD PTR _pException$2[ebp]
  00071	8d 8d ec fd ff
	ff		 lea	 ecx, DWORD PTR _szErrorMessage$4[ebp]
  00077	6a 00		 push	 0
  00079	68 00 02 00 00	 push	 512			; 00000200H
  0007e	51		 push	 ecx
  0007f	8b 06		 mov	 eax, DWORD PTR [esi]
  00081	8b ce		 mov	 ecx, esi
  00083	c6 45 fc 02	 mov	 BYTE PTR __$EHRec$[ebp+12], 2
  00087	ff 50 14	 call	 DWORD PTR [eax+20]
  0008a	85 c0		 test	 eax, eax
  0008c	74 2a		 je	 SHORT $LN9@CGdiObject
  0008e	8d 85 ec fd ff
	ff		 lea	 eax, DWORD PTR _szErrorMessage$4[ebp]
  00094	50		 push	 eax
  00095	6a 4d		 push	 77			; 0000004dH
  00097	68 00 00 00 00	 push	 OFFSET ??_C@_0HD@JJCHHHNK@C?3?2Program?5Files?5?$CIx86?$CJ?2Microsof@
  0009c	68 00 00 00 00	 push	 OFFSET ??_C@_0BP@OIEOKIDM@Exception?5thrown?5in?5destructor@
  000a1	8d 85 e8 fd ff
	ff		 lea	 eax, DWORD PTR _strMsg$3[ebp]
  000a7	68 00 00 00 00	 push	 OFFSET ??_C@_0BB@HBOOMJBF@?$CFTs?5?$CI?$CFTs?3?$CFd?$CJ?6?$CFTs@
  000ac	50		 push	 eax
  000ad	ff 15 00 00 00
	00		 call	 DWORD PTR __imp_?Format@?$CStringT@DV?$StrTraitMFC_DLL@DV?$ChTraitsCRT@D@ATL@@@@@ATL@@QAAXPBDZZ
  000b3	83 c4 18	 add	 esp, 24			; 00000018H
  000b6	eb 21		 jmp	 SHORT $LN10@CGdiObject
$LN9@CGdiObject:
  000b8	6a 4d		 push	 77			; 0000004dH
  000ba	68 00 00 00 00	 push	 OFFSET ??_C@_0HD@JJCHHHNK@C?3?2Program?5Files?5?$CIx86?$CJ?2Microsof@
  000bf	68 00 00 00 00	 push	 OFFSET ??_C@_0BP@OIEOKIDM@Exception?5thrown?5in?5destructor@
  000c4	8d 85 e8 fd ff
	ff		 lea	 eax, DWORD PTR _strMsg$3[ebp]
  000ca	68 00 00 00 00	 push	 OFFSET ??_C@_0N@OMEMOKLE@?$CFTs?5?$CI?$CFTs?3?$CFd?$CJ@
  000cf	50		 push	 eax
  000d0	ff 15 00 00 00
	00		 call	 DWORD PTR __imp_?Format@?$CStringT@DV?$StrTraitMFC_DLL@DV?$ChTraitsCRT@D@ATL@@@@@ATL@@QAAXPBDZZ
  000d6	83 c4 14	 add	 esp, 20			; 00000014H
$LN10@CGdiObject:
  000d9	6a 00		 push	 0
  000db	6a 00		 push	 0
  000dd	ff b5 e8 fd ff
	ff		 push	 DWORD PTR _strMsg$3[ebp]
  000e3	e8 00 00 00 00	 call	 ?AfxMessageBox@@YGHPBDII@Z ; AfxMessageBox
  000e8	8d 8d e8 fd ff
	ff		 lea	 ecx, DWORD PTR _strMsg$3[ebp]
  000ee	ff 15 00 00 00
	00		 call	 DWORD PTR __imp_??1?$CStringT@DV?$StrTraitMFC_DLL@DV?$ChTraitsCRT@D@ATL@@@@@ATL@@QAE@XZ
  000f4	8b 06		 mov	 eax, DWORD PTR [esi]
  000f6	8b ce		 mov	 ecx, esi
  000f8	6a 01		 push	 1
  000fa	ff 50 04	 call	 DWORD PTR [eax+4]
  000fd	b8 00 00 00 00	 mov	 eax, $LN18@CGdiObject
  00102	c3		 ret	 0
_TEXT	ENDS
;	COMDAT text$x
text$x	SEGMENT
__unwindfunclet$??1CGdiObject@@UAE@XZ$2:
  00000	8d 8d e8 fd ff
	ff		 lea	 ecx, DWORD PTR _strMsg$3[ebp]
  00006	ff 25 00 00 00
	00		 jmp	 DWORD PTR __imp_??1?$CStringT@DV?$StrTraitMFC_DLL@DV?$ChTraitsCRT@D@ATL@@@@@ATL@@QAE@XZ
  0000c	cc		 int	 3
  0000d	cc		 int	 3
  0000e	cc		 int	 3
  0000f	cc		 int	 3
  00010	cc		 int	 3
__ehhandler$??1CGdiObject@@UAE@XZ:
  00011	90		 npad	 1
  00012	90		 npad	 1
  00013	8b 54 24 08	 mov	 edx, DWORD PTR [esp+8]
  00017	8d 42 0c	 lea	 eax, DWORD PTR [edx+12]
  0001a	8b 8a e0 fd ff
	ff		 mov	 ecx, DWORD PTR [edx-544]
  00020	33 c8		 xor	 ecx, eax
  00022	e8 00 00 00 00	 call	 @__security_check_cookie@4
  00027	8b 4a f8	 mov	 ecx, DWORD PTR [edx-8]
  0002a	33 c8		 xor	 ecx, eax
  0002c	e8 00 00 00 00	 call	 @__security_check_cookie@4
  00031	b8 00 00 00 00	 mov	 eax, OFFSET __ehfuncinfo$??1CGdiObject@@UAE@XZ
  00036	e9 00 00 00 00	 jmp	 ___CxxFrameHandler3
text$x	ENDS
??1CGdiObject@@UAE@XZ ENDP				; CGdiObject::~CGdiObject
; Function compile flags: /Ogtp
; File C:\Program Files (x86)\Microsoft Visual Studio\2019\Community\VC\Tools\MSVC\14.29.30133\atlmfc\include\afx.inl
;	COMDAT ?Dump@CObject@@UBEXAAVCDumpContext@@@Z
_TEXT	SEGMENT
___formal$ = 8						; size = 4
?Dump@CObject@@UBEXAAVCDumpContext@@@Z PROC		; CObject::Dump, COMDAT
; _this$ = ecx

; 122  : 	{ /* no dumping in release builds */ }

  00000	c2 04 00	 ret	 4
?Dump@CObject@@UBEXAAVCDumpContext@@@Z ENDP		; CObject::Dump
_TEXT	ENDS
; Function compile flags: /Ogtp
; File C:\Program Files (x86)\Microsoft Visual Studio\2019\Community\VC\Tools\MSVC\14.29.30133\atlmfc\include\afx.inl
;	COMDAT ?AssertValid@CObject@@UBEXXZ
_TEXT	SEGMENT
?AssertValid@CObject@@UBEXXZ PROC			; CObject::AssertValid, COMDAT
; _this$ = ecx

; 120  : 	{ /* no asserts in release builds */ }

  00000	c2 00 00	 ret	 0
?AssertValid@CObject@@UBEXXZ ENDP			; CObject::AssertValid
_TEXT	ENDS
; Function compile flags: /Ogtp
; File C:\Program Files (x86)\Microsoft Visual Studio\2019\Community\VC\Tools\MSVC\14.29.30133\atlmfc\include\afx.inl
;	COMDAT ?Serialize@CObject@@UAEXAAVCArchive@@@Z
_TEXT	SEGMENT
___formal$ = 8						; size = 4
?Serialize@CObject@@UAEXAAVCArchive@@@Z PROC		; CObject::Serialize, COMDAT
; _this$ = ecx

; 106  : 	{ /* CObject does not serialize anything by default */ }

  00000	c2 04 00	 ret	 4
?Serialize@CObject@@UAEXAAVCArchive@@@Z ENDP		; CObject::Serialize
_TEXT	ENDS
; Function compile flags: /Ogtp
; File C:\Program Files (x86)\Microsoft Visual Studio\2019\Community\VC\Tools\MSVC\14.29.30133\atlmfc\include\afx.inl
;	COMDAT ??1CObject@@UAE@XZ
_TEXT	SEGMENT
??1CObject@@UAE@XZ PROC					; CObject::~CObject, COMDAT
; _this$ = ecx

; 104  : 	{ }

  00000	c2 00 00	 ret	 0
??1CObject@@UAE@XZ ENDP					; CObject::~CObject
_TEXT	ENDS
; Function compile flags: /Ogtp
; File D:\git\src\IBK\IBK_DRFN\ProjSrc\SrcDrfn\Chart\MULTICHART\control\RGBButton.cpp
;	COMDAT ?__empty_global_delete@@YAXPAXI@Z
_TEXT	SEGMENT
___formal$ = 8						; size = 4
___formal$ = 12						; size = 4
?__empty_global_delete@@YAXPAXI@Z PROC			; __empty_global_delete, COMDAT

  00000	c2 00 00	 ret	 0
?__empty_global_delete@@YAXPAXI@Z ENDP			; __empty_global_delete
_TEXT	ENDS
; Function compile flags: /Ogtp
; File D:\git\src\IBK\IBK_DRFN\ProjSrc\SrcDrfn\Chart\MULTICHART\control\RGBButton.cpp
;	COMDAT ?__empty_global_delete@@YAXPAX@Z
_TEXT	SEGMENT
___formal$ = 8						; size = 4
?__empty_global_delete@@YAXPAX@Z PROC			; __empty_global_delete, COMDAT

  00000	c2 00 00	 ret	 0
?__empty_global_delete@@YAXPAX@Z ENDP			; __empty_global_delete
_TEXT	ENDS
END
