; Listing generated by Microsoft (R) Optimizing Compiler Version 19.29.30148.0 

	TITLE	D:\git\src\IBK\IBK_DRFN\#DRfn-CS\_Obj\MultiChart\SetCycleDlg.obj
	.686P
	.XMM
	include listing.inc
	.model	flat

INCLUDELIB MSVCRT
INCLUDELIB OLDNAMES

PUBLIC	??_C@_0BB@IBKHOHJL@RMSG_REPLAY_REAL@		; `string'
PUBLIC	??_C@_0BB@JFLGBADG@RMSG_REPLAY_FAIL@		; `string'
PUBLIC	??_C@_0BI@KDGAIIMD@RMSG_REPLAY_CHANGE_DATE@	; `string'
PUBLIC	??_C@_0BA@NKHHCPON@RMSG_REPLAY_END@		; `string'
PUBLIC	??_C@_0BE@JFCIMCIP@RMSG_REPLAY_INC_SEC@		; `string'
PUBLIC	??_C@_0BG@GIAJEIJF@RMSG_REPLAY_TOTAL_SEC@	; `string'
PUBLIC	??_C@_0BE@FJPKENOB@RMSG_GETSIGNAL_REAL@		; `string'
PUBLIC	??_C@_0BB@CNOFPEHG@RMSG_SETQUERYOPT@		; `string'
PUBLIC	??_C@_0P@KHFCBIOH@RMSG_CHARTMAIN@		; `string'
PUBLIC	??_C@_0BC@MMPGLPDH@RMS_ANALYSIS_FUNC@		; `string'
PUBLIC	??_C@_0BA@HKNFENJL@RMSG_GET_USERID@		; `string'
PUBLIC	??_C@_0BG@CNPAHNGG@RMSG_CHANGE_SKINCOLOR@	; `string'
PUBLIC	??_C@_0BD@FLDNDDHK@RMSG_GET_SKINCOLOR@		; `string'
PUBLIC	??_C@_0BJ@JLKHIBIK@RMSG_CHANGEVERTSCALETYPE@	; `string'
PUBLIC	??_C@_0BG@LNLCJKPF@RMSG_CHANGE_CROSSLINE@	; `string'
PUBLIC	??_C@_0BH@IFDMIMBP@RMSG_ADD_PLATFORM_MENU@	; `string'
PUBLIC	??_C@_0BJ@OGNAJHHI@RMSG_SETINITIALCHARTDATA@	; `string'
PUBLIC	??_C@_0N@IIOKMIEH@RMSG_GETINFO@			; `string'
PUBLIC	??_C@_0N@HABLPHJG@RMSG_SETINFO@			; `string'
PUBLIC	?m_bInitFailed@CAtlBaseModule@ATL@@2_NA		; ATL::CAtlBaseModule::m_bInitFailed
PUBLIC	?_pAtlModule@ATL@@3PAVCAtlModule@1@A		; ATL::_pAtlModule
PUBLIC	?WM_ATLGETHOST@ATL@@3IA				; ATL::WM_ATLGETHOST
PUBLIC	?WM_ATLGETCONTROL@ATL@@3IA			; ATL::WM_ATLGETCONTROL
PUBLIC	?_pAtlAutoThreadModule@ATL@@3PAUIAtlAutoThreadModule@1@A ; ATL::_pAtlAutoThreadModule
EXTRN	?_AtlBaseModule@ATL@@3VCAtlBaseModule@1@A:BYTE	; ATL::_AtlBaseModule
;	COMDAT ?m_bInitFailed@CAtlBaseModule@ATL@@2_NA
_BSS	SEGMENT
?m_bInitFailed@CAtlBaseModule@ATL@@2_NA DB 01H DUP (?)	; ATL::CAtlBaseModule::m_bInitFailed
_BSS	ENDS
;	COMDAT ?_pAtlModule@ATL@@3PAVCAtlModule@1@A
_BSS	SEGMENT
?_pAtlModule@ATL@@3PAVCAtlModule@1@A DD 01H DUP (?)	; ATL::_pAtlModule
_BSS	ENDS
;	COMDAT ?WM_ATLGETHOST@ATL@@3IA
_BSS	SEGMENT
?WM_ATLGETHOST@ATL@@3IA DD 01H DUP (?)			; ATL::WM_ATLGETHOST
_BSS	ENDS
;	COMDAT ?WM_ATLGETCONTROL@ATL@@3IA
_BSS	SEGMENT
?WM_ATLGETCONTROL@ATL@@3IA DD 01H DUP (?)		; ATL::WM_ATLGETCONTROL
_BSS	ENDS
;	COMDAT ?_pAtlAutoThreadModule@ATL@@3PAUIAtlAutoThreadModule@1@A
_BSS	SEGMENT
?_pAtlAutoThreadModule@ATL@@3PAUIAtlAutoThreadModule@1@A DD 01H DUP (?) ; ATL::_pAtlAutoThreadModule
_BSS	ENDS
;	COMDAT ??_C@_0N@HABLPHJG@RMSG_SETINFO@
CONST	SEGMENT
??_C@_0N@HABLPHJG@RMSG_SETINFO@ DB 'RMSG_SETINFO', 00H	; `string'
CONST	ENDS
;	COMDAT ??_C@_0N@IIOKMIEH@RMSG_GETINFO@
CONST	SEGMENT
??_C@_0N@IIOKMIEH@RMSG_GETINFO@ DB 'RMSG_GETINFO', 00H	; `string'
CONST	ENDS
;	COMDAT ??_C@_0BJ@OGNAJHHI@RMSG_SETINITIALCHARTDATA@
CONST	SEGMENT
??_C@_0BJ@OGNAJHHI@RMSG_SETINITIALCHARTDATA@ DB 'RMSG_SETINITIALCHARTDATA'
	DB	00H						; `string'
CONST	ENDS
;	COMDAT ??_C@_0BH@IFDMIMBP@RMSG_ADD_PLATFORM_MENU@
CONST	SEGMENT
??_C@_0BH@IFDMIMBP@RMSG_ADD_PLATFORM_MENU@ DB 'RMSG_ADD_PLATFORM_MENU', 00H ; `string'
CONST	ENDS
;	COMDAT ??_C@_0BG@LNLCJKPF@RMSG_CHANGE_CROSSLINE@
CONST	SEGMENT
??_C@_0BG@LNLCJKPF@RMSG_CHANGE_CROSSLINE@ DB 'RMSG_CHANGE_CROSSLINE', 00H ; `string'
CONST	ENDS
;	COMDAT ??_C@_0BJ@JLKHIBIK@RMSG_CHANGEVERTSCALETYPE@
CONST	SEGMENT
??_C@_0BJ@JLKHIBIK@RMSG_CHANGEVERTSCALETYPE@ DB 'RMSG_CHANGEVERTSCALETYPE'
	DB	00H						; `string'
CONST	ENDS
;	COMDAT ??_C@_0BD@FLDNDDHK@RMSG_GET_SKINCOLOR@
CONST	SEGMENT
??_C@_0BD@FLDNDDHK@RMSG_GET_SKINCOLOR@ DB 'RMSG_GET_SKINCOLOR', 00H ; `string'
CONST	ENDS
;	COMDAT ??_C@_0BG@CNPAHNGG@RMSG_CHANGE_SKINCOLOR@
CONST	SEGMENT
??_C@_0BG@CNPAHNGG@RMSG_CHANGE_SKINCOLOR@ DB 'RMSG_CHANGE_SKINCOLOR', 00H ; `string'
CONST	ENDS
;	COMDAT ??_C@_0BA@HKNFENJL@RMSG_GET_USERID@
CONST	SEGMENT
??_C@_0BA@HKNFENJL@RMSG_GET_USERID@ DB 'RMSG_GET_USERID', 00H ; `string'
CONST	ENDS
;	COMDAT ??_C@_0BC@MMPGLPDH@RMS_ANALYSIS_FUNC@
CONST	SEGMENT
??_C@_0BC@MMPGLPDH@RMS_ANALYSIS_FUNC@ DB 'RMS_ANALYSIS_FUNC', 00H ; `string'
CONST	ENDS
;	COMDAT ??_C@_0P@KHFCBIOH@RMSG_CHARTMAIN@
CONST	SEGMENT
??_C@_0P@KHFCBIOH@RMSG_CHARTMAIN@ DB 'RMSG_CHARTMAIN', 00H ; `string'
CONST	ENDS
;	COMDAT ??_C@_0BB@CNOFPEHG@RMSG_SETQUERYOPT@
CONST	SEGMENT
??_C@_0BB@CNOFPEHG@RMSG_SETQUERYOPT@ DB 'RMSG_SETQUERYOPT', 00H ; `string'
CONST	ENDS
;	COMDAT ??_C@_0BE@FJPKENOB@RMSG_GETSIGNAL_REAL@
CONST	SEGMENT
??_C@_0BE@FJPKENOB@RMSG_GETSIGNAL_REAL@ DB 'RMSG_GETSIGNAL_REAL', 00H ; `string'
CONST	ENDS
;	COMDAT ??_C@_0BG@GIAJEIJF@RMSG_REPLAY_TOTAL_SEC@
CONST	SEGMENT
??_C@_0BG@GIAJEIJF@RMSG_REPLAY_TOTAL_SEC@ DB 'RMSG_REPLAY_TOTAL_SEC', 00H ; `string'
CONST	ENDS
;	COMDAT ??_C@_0BE@JFCIMCIP@RMSG_REPLAY_INC_SEC@
CONST	SEGMENT
??_C@_0BE@JFCIMCIP@RMSG_REPLAY_INC_SEC@ DB 'RMSG_REPLAY_INC_SEC', 00H ; `string'
CONST	ENDS
;	COMDAT ??_C@_0BA@NKHHCPON@RMSG_REPLAY_END@
CONST	SEGMENT
??_C@_0BA@NKHHCPON@RMSG_REPLAY_END@ DB 'RMSG_REPLAY_END', 00H ; `string'
CONST	ENDS
;	COMDAT ??_C@_0BI@KDGAIIMD@RMSG_REPLAY_CHANGE_DATE@
CONST	SEGMENT
??_C@_0BI@KDGAIIMD@RMSG_REPLAY_CHANGE_DATE@ DB 'RMSG_REPLAY_CHANGE_DATE', 00H ; `string'
CONST	ENDS
;	COMDAT ??_C@_0BB@JFLGBADG@RMSG_REPLAY_FAIL@
CONST	SEGMENT
??_C@_0BB@JFLGBADG@RMSG_REPLAY_FAIL@ DB 'RMSG_REPLAY_FAIL', 00H ; `string'
CONST	ENDS
;	COMDAT ??_C@_0BB@IBKHOHJL@RMSG_REPLAY_REAL@
CONST	SEGMENT
??_C@_0BB@IBKHOHJL@RMSG_REPLAY_REAL@ DB 'RMSG_REPLAY_REAL', 00H ; `string'
CONST	ENDS
PUBLIC	?__empty_global_delete@@YAXPAX@Z		; __empty_global_delete
PUBLIC	?__empty_global_delete@@YAXPAXI@Z		; __empty_global_delete
PUBLIC	___local_stdio_printf_options
PUBLIC	_sprintf
PUBLIC	?Serialize@CObject@@UAEXAAVCArchive@@@Z		; CObject::Serialize
PUBLIC	?AssertValid@CObject@@UBEXXZ			; CObject::AssertValid
PUBLIC	?Dump@CObject@@UBEXAAVCDumpContext@@@Z		; CObject::Dump
PUBLIC	?_AtlRaiseException@ATL@@YAXKK@Z		; ATL::_AtlRaiseException
PUBLIC	?_AtlInitializeCriticalSectionEx@ATL@@YAHPAU_RTL_CRITICAL_SECTION@@KK@Z ; ATL::_AtlInitializeCriticalSectionEx
PUBLIC	?DoDataExchange@CWnd@@MAEXPAVCDataExchange@@@Z	; CWnd::DoDataExchange
PUBLIC	?BeginModalState@CWnd@@UAEXXZ			; CWnd::BeginModalState
PUBLIC	?EndModalState@CWnd@@UAEXXZ			; CWnd::EndModalState
PUBLIC	??_GCButton@@UAEPAXI@Z				; CButton::`scalar deleting destructor'
PUBLIC	??_GCEdit@@UAEPAXI@Z				; CEdit::`scalar deleting destructor'
PUBLIC	??1CRscDlg@@UAE@XZ				; CRscDlg::~CRscDlg
PUBLIC	??0CSetCycleDlg@@QAE@PAVCWnd@@@Z		; CSetCycleDlg::CSetCycleDlg
PUBLIC	?VerifySettingData@CSetCycleDlg@@QAEHAAV?$CStringT@DV?$StrTraitMFC_DLL@DV?$ChTraitsCRT@D@ATL@@@@@ATL@@@Z ; CSetCycleDlg::VerifySettingData
PUBLIC	?VerifySettingData@CSetCycleDlg@@QAEXAAVCEdit@@AAJ@Z ; CSetCycleDlg::VerifySettingData
PUBLIC	?DoDataExchange@CSetCycleDlg@@MAEXPAVCDataExchange@@@Z ; CSetCycleDlg::DoDataExchange
PUBLIC	?OnInitDialog@CSetCycleDlg@@MAEHXZ		; CSetCycleDlg::OnInitDialog
PUBLIC	?OnApply@CSetCycleDlg@@IAEXXZ			; CSetCycleDlg::OnApply
PUBLIC	?OnOK@CSetCycleDlg@@MAEXXZ			; CSetCycleDlg::OnOK
PUBLIC	?OnChangeEdit@CSetCycleDlg@@IAEXXZ		; CSetCycleDlg::OnChangeEdit
PUBLIC	?GetThisMessageMap@CSetCycleDlg@@KGPBUAFX_MSGMAP@@XZ ; CSetCycleDlg::GetThisMessageMap
PUBLIC	?GetMessageMap@CSetCycleDlg@@MBEPBUAFX_MSGMAP@@XZ ; CSetCycleDlg::GetMessageMap
PUBLIC	??_GCSetCycleDlg@@UAEPAXI@Z			; CSetCycleDlg::`scalar deleting destructor'
PUBLIC	??1stringdispid@CComTypeInfoHolder@ATL@@QAE@XZ	; ATL::CComTypeInfoHolder::stringdispid::~stringdispid
PUBLIC	??_Estringdispid@CComTypeInfoHolder@ATL@@QAEPAXI@Z ; ATL::CComTypeInfoHolder::stringdispid::`vector deleting destructor'
PUBLIC	?_OptionsStorage@?1??__local_stdio_printf_options@@9@4_KA ; `__local_stdio_printf_options'::`2'::_OptionsStorage
PUBLIC	??_C@_02DPKJAMEF@?$CFd@				; `string'
PUBLIC	?_AtlWinModule@ATL@@3VCAtlWinModule@1@A		; ATL::_AtlWinModule
PUBLIC	??_7CButton@@6B@				; CButton::`vftable'
PUBLIC	??_7CEdit@@6B@					; CEdit::`vftable'
PUBLIC	??_R0?AVCObject@@@8				; CObject `RTTI Type Descriptor'
PUBLIC	??_R3CObject@@8					; CObject::`RTTI Class Hierarchy Descriptor'
PUBLIC	??_R2CObject@@8					; CObject::`RTTI Base Class Array'
PUBLIC	??_R1A@?0A@EA@CObject@@8			; CObject::`RTTI Base Class Descriptor at (0,-1,0,64)'
PUBLIC	??_R1A@?0A@EA@CWnd@@8				; CWnd::`RTTI Base Class Descriptor at (0,-1,0,64)'
PUBLIC	??_R0?AVCWnd@@@8				; CWnd `RTTI Type Descriptor'
PUBLIC	??_R3CWnd@@8					; CWnd::`RTTI Class Hierarchy Descriptor'
PUBLIC	??_R2CWnd@@8					; CWnd::`RTTI Base Class Array'
PUBLIC	??_R1A@?0A@EA@CCmdTarget@@8			; CCmdTarget::`RTTI Base Class Descriptor at (0,-1,0,64)'
PUBLIC	??_R0?AVCCmdTarget@@@8				; CCmdTarget `RTTI Type Descriptor'
PUBLIC	??_R3CCmdTarget@@8				; CCmdTarget::`RTTI Class Hierarchy Descriptor'
PUBLIC	??_R2CCmdTarget@@8				; CCmdTarget::`RTTI Base Class Array'
PUBLIC	??_R4CButton@@6B@				; CButton::`RTTI Complete Object Locator'
PUBLIC	??_R0?AVCButton@@@8				; CButton `RTTI Type Descriptor'
PUBLIC	??_R3CButton@@8					; CButton::`RTTI Class Hierarchy Descriptor'
PUBLIC	??_R2CButton@@8					; CButton::`RTTI Base Class Array'
PUBLIC	??_R1A@?0A@EA@CButton@@8			; CButton::`RTTI Base Class Descriptor at (0,-1,0,64)'
PUBLIC	??_R4CEdit@@6B@					; CEdit::`RTTI Complete Object Locator'
PUBLIC	??_R0?AVCEdit@@@8				; CEdit `RTTI Type Descriptor'
PUBLIC	??_R3CEdit@@8					; CEdit::`RTTI Class Hierarchy Descriptor'
PUBLIC	??_R2CEdit@@8					; CEdit::`RTTI Base Class Array'
PUBLIC	??_R1A@?0A@EA@CEdit@@8				; CEdit::`RTTI Base Class Descriptor at (0,-1,0,64)'
PUBLIC	??_R1A@?0A@EA@CDialog@@8			; CDialog::`RTTI Base Class Descriptor at (0,-1,0,64)'
PUBLIC	??_R0?AVCDialog@@@8				; CDialog `RTTI Type Descriptor'
PUBLIC	??_R3CDialog@@8					; CDialog::`RTTI Class Hierarchy Descriptor'
PUBLIC	??_R2CDialog@@8					; CDialog::`RTTI Base Class Array'
PUBLIC	??_7CSetCycleDlg@@6B@				; CSetCycleDlg::`vftable'
PUBLIC	??_C@_0CO@PIHPPGHH@?C?J?$LK?$MA?5?$LF?$KF?$MA?L?E?M?$LE?B?530?C?J?$LK?$MA?$LB?n?A?v?$LI?$LI?5?A?$LG?H?$LI@ ; `string'
PUBLIC	??_C@_02PJNFELNH@30@				; `string'
PUBLIC	??_C@_0BM@JICJIPBM@?A?$LG?H?$LI?$LA?$KB?$LE?I?G?Q?5?C?J?$LK?$MA?$MA?L?5?$LO?F?$LE?U?$LE?O?$LE?Y?4@ ; `string'
PUBLIC	??_C@_03JALODAI@?$CFld@				; `string'
PUBLIC	??_R4CSetCycleDlg@@6B@				; CSetCycleDlg::`RTTI Complete Object Locator'
PUBLIC	??_R0?AVCSetCycleDlg@@@8			; CSetCycleDlg `RTTI Type Descriptor'
PUBLIC	??_R3CSetCycleDlg@@8				; CSetCycleDlg::`RTTI Class Hierarchy Descriptor'
PUBLIC	??_R2CSetCycleDlg@@8				; CSetCycleDlg::`RTTI Base Class Array'
PUBLIC	??_R1A@?0A@EA@CSetCycleDlg@@8			; CSetCycleDlg::`RTTI Base Class Descriptor at (0,-1,0,64)'
PUBLIC	??_R1A@?0A@EA@CRscDlg@@8			; CRscDlg::`RTTI Base Class Descriptor at (0,-1,0,64)'
PUBLIC	??_R0?AVCRscDlg@@@8				; CRscDlg `RTTI Type Descriptor'
PUBLIC	??_R3CRscDlg@@8					; CRscDlg::`RTTI Class Hierarchy Descriptor'
PUBLIC	??_R2CRscDlg@@8					; CRscDlg::`RTTI Base Class Array'
EXTRN	??_M@YGXPAXIIP6EX0@Z@Z:PROC			; `eh vector destructor iterator'
EXTRN	??3@YAXPAX@Z:PROC				; operator delete
EXTRN	??3@YAXPAXI@Z:PROC				; operator delete
EXTRN	?__global_delete@@YAXPAXI@Z:PROC		; __global_delete
EXTRN	??_V@YAXPAXI@Z:PROC				; operator delete[]
EXTRN	_atexit:PROC
EXTRN	__imp__RaiseException@16:PROC
EXTRN	__imp__GetLastError@0:PROC
EXTRN	__imp__InitializeCriticalSectionEx@12:PROC
EXTRN	__imp__DeleteCriticalSection@4:PROC
EXTRN	__imp__RegisterWindowMessageA@4:PROC
EXTRN	__imp__UnregisterClassA@8:PROC
EXTRN	__imp__GetFocus@0:PROC
EXTRN	__imp__EnableWindow@8:PROC
EXTRN	__imp____stdio_common_vsprintf:PROC
EXTRN	__imp__free:PROC
EXTRN	__imp__atoi:PROC
EXTRN	__imp__atol:PROC
EXTRN	__imp__SysFreeString@4:PROC
EXTRN	__imp_??0?$CStringT@DV?$StrTraitMFC_DLL@DV?$ChTraitsCRT@D@ATL@@@@@ATL@@QAE@XZ:PROC
EXTRN	__imp_??1?$CStringT@DV?$StrTraitMFC_DLL@DV?$ChTraitsCRT@D@ATL@@@@@ATL@@QAE@XZ:PROC
EXTRN	__imp_?Format@?$CStringT@DV?$StrTraitMFC_DLL@DV?$ChTraitsCRT@D@ATL@@@@@ATL@@QAAXPBDZZ:PROC
EXTRN	?DDX_Control@@YGXPAVCDataExchange@@HAAVCWnd@@@Z:PROC ; DDX_Control
EXTRN	?OnCmdMsg@CCmdTarget@@UAEHIHPAXPAUAFX_CMDHANDLERINFO@@@Z:PROC ; CCmdTarget::OnCmdMsg
EXTRN	?IsInvokeAllowed@CCmdTarget@@UAEHJ@Z:PROC	; CCmdTarget::IsInvokeAllowed
EXTRN	?GetDispatchIID@CCmdTarget@@UAEHPAU_GUID@@@Z:PROC ; CCmdTarget::GetDispatchIID
EXTRN	?GetTypeInfoCount@CCmdTarget@@UAEIXZ:PROC	; CCmdTarget::GetTypeInfoCount
EXTRN	?GetTypeLibCache@CCmdTarget@@UAEPAVCTypeLibCache@@XZ:PROC ; CCmdTarget::GetTypeLibCache
EXTRN	?GetTypeLib@CCmdTarget@@UAEJKPAPAUITypeLib@@@Z:PROC ; CCmdTarget::GetTypeLib
EXTRN	?GetCommandMap@CCmdTarget@@MBEPBUAFX_OLECMDMAP@@XZ:PROC ; CCmdTarget::GetCommandMap
EXTRN	?GetDispatchMap@CCmdTarget@@MBEPBUAFX_DISPMAP@@XZ:PROC ; CCmdTarget::GetDispatchMap
EXTRN	?GetConnectionMap@CCmdTarget@@MBEPBUAFX_CONNECTIONMAP@@XZ:PROC ; CCmdTarget::GetConnectionMap
EXTRN	?GetEventSinkMap@CCmdTarget@@MBEPBUAFX_EVENTSINKMAP@@XZ:PROC ; CCmdTarget::GetEventSinkMap
EXTRN	?OnCreateAggregates@CCmdTarget@@UAEHXZ:PROC	; CCmdTarget::OnCreateAggregates
EXTRN	?GetInterfaceHook@CCmdTarget@@UAEPAUIUnknown@@PBX@Z:PROC ; CCmdTarget::GetInterfaceHook
EXTRN	?GetExtraConnectionPoints@CCmdTarget@@MAEHPAVCPtrArray@@@Z:PROC ; CCmdTarget::GetExtraConnectionPoints
EXTRN	?GetConnectionHook@CCmdTarget@@MAEPAUIConnectionPoint@@ABU_GUID@@@Z:PROC ; CCmdTarget::GetConnectionHook
EXTRN	??0CWnd@@QAE@XZ:PROC				; CWnd::CWnd
EXTRN	?FromHandle@CWnd@@SGPAV1@PAUHWND__@@@Z:PROC	; CWnd::FromHandle
EXTRN	?PreSubclassWindow@CWnd@@UAEXXZ:PROC		; CWnd::PreSubclassWindow
EXTRN	?Create@CWnd@@UAEHPBD0KABUtagRECT@@PAV1@IPAUCCreateContext@@@Z:PROC ; CWnd::Create
EXTRN	?CreateEx@CWnd@@UAEHKPBD0KHHHHPAUHWND__@@PAUHMENU__@@PAX@Z:PROC ; CWnd::CreateEx
EXTRN	?CreateEx@CWnd@@UAEHKPBD0KABUtagRECT@@PAV1@IPAX@Z:PROC ; CWnd::CreateEx
EXTRN	?DestroyWindow@CWnd@@UAEHXZ:PROC		; CWnd::DestroyWindow
EXTRN	?PreCreateWindow@CWnd@@UAEHAAUtagCREATESTRUCTA@@@Z:PROC ; CWnd::PreCreateWindow
EXTRN	?CalcWindowRect@CWnd@@UAEXPAUtagRECT@@I@Z:PROC	; CWnd::CalcWindowRect
EXTRN	?GetDlgCtrlID@CWnd@@QBEHXZ:PROC			; CWnd::GetDlgCtrlID
EXTRN	?SetWindowTextA@CWnd@@QAEXPBD@Z:PROC		; CWnd::SetWindowTextA
EXTRN	?GetWindowTextA@CWnd@@QBEXAAV?$CStringT@DV?$StrTraitMFC_DLL@DV?$ChTraitsCRT@D@ATL@@@@@ATL@@@Z:PROC ; CWnd::GetWindowTextA
EXTRN	?GetMenu@CWnd@@UBEPAVCMenu@@XZ:PROC		; CWnd::GetMenu
EXTRN	?SetMenu@CWnd@@UAEHPAVCMenu@@@Z:PROC		; CWnd::SetMenu
EXTRN	?OnToolHitTest@CWnd@@UBEHVCPoint@@PAUtagTOOLINFOA@@@Z:PROC ; CWnd::OnToolHitTest
EXTRN	?EnableWindow@CWnd@@QAEHH@Z:PROC		; CWnd::EnableWindow
EXTRN	?GetScrollBarCtrl@CWnd@@UBEPAVCScrollBar@@H@Z:PROC ; CWnd::GetScrollBarCtrl
EXTRN	?WinHelpA@CWnd@@UAEXKI@Z:PROC			; CWnd::WinHelpA
EXTRN	?HtmlHelpA@CWnd@@UAEXKI@Z:PROC			; CWnd::HtmlHelpA
EXTRN	?WinHelpInternal@CWnd@@UAEXKI@Z:PROC		; CWnd::WinHelpInternal
EXTRN	?ContinueModal@CWnd@@UAEHXZ:PROC		; CWnd::ContinueModal
EXTRN	?EndModalLoop@CWnd@@UAEXH@Z:PROC		; CWnd::EndModalLoop
EXTRN	?OnDrawIconicThumbnailOrLivePreview@CWnd@@UAEXAAVCDC@@VCRect@@VCSize@@HAAH@Z:PROC ; CWnd::OnDrawIconicThumbnailOrLivePreview
EXTRN	?GetInterfaceMap@CWnd@@MBEPBUAFX_INTERFACEMAP@@XZ:PROC ; CWnd::GetInterfaceMap
EXTRN	?EnsureStdObj@CWnd@@UAEJXZ:PROC			; CWnd::EnsureStdObj
EXTRN	?get_accParent@CWnd@@UAEJPAPAUIDispatch@@@Z:PROC ; CWnd::get_accParent
EXTRN	?get_accChildCount@CWnd@@UAEJPAJ@Z:PROC		; CWnd::get_accChildCount
EXTRN	?get_accChild@CWnd@@UAEJUtagVARIANT@@PAPAUIDispatch@@@Z:PROC ; CWnd::get_accChild
EXTRN	?get_accName@CWnd@@UAEJUtagVARIANT@@PAPA_W@Z:PROC ; CWnd::get_accName
EXTRN	?get_accValue@CWnd@@UAEJUtagVARIANT@@PAPA_W@Z:PROC ; CWnd::get_accValue
EXTRN	?get_accDescription@CWnd@@UAEJUtagVARIANT@@PAPA_W@Z:PROC ; CWnd::get_accDescription
EXTRN	?get_accRole@CWnd@@UAEJUtagVARIANT@@PAU2@@Z:PROC ; CWnd::get_accRole
EXTRN	?get_accState@CWnd@@UAEJUtagVARIANT@@PAU2@@Z:PROC ; CWnd::get_accState
EXTRN	?get_accHelp@CWnd@@UAEJUtagVARIANT@@PAPA_W@Z:PROC ; CWnd::get_accHelp
EXTRN	?get_accHelpTopic@CWnd@@UAEJPAPA_WUtagVARIANT@@PAJ@Z:PROC ; CWnd::get_accHelpTopic
EXTRN	?get_accKeyboardShortcut@CWnd@@UAEJUtagVARIANT@@PAPA_W@Z:PROC ; CWnd::get_accKeyboardShortcut
EXTRN	?get_accFocus@CWnd@@UAEJPAUtagVARIANT@@@Z:PROC	; CWnd::get_accFocus
EXTRN	?get_accSelection@CWnd@@UAEJPAUtagVARIANT@@@Z:PROC ; CWnd::get_accSelection
EXTRN	?get_accDefaultAction@CWnd@@UAEJUtagVARIANT@@PAPA_W@Z:PROC ; CWnd::get_accDefaultAction
EXTRN	?accSelect@CWnd@@UAEJJUtagVARIANT@@@Z:PROC	; CWnd::accSelect
EXTRN	?accLocation@CWnd@@UAEJPAJ000UtagVARIANT@@@Z:PROC ; CWnd::accLocation
EXTRN	?accNavigate@CWnd@@UAEJJUtagVARIANT@@PAU2@@Z:PROC ; CWnd::accNavigate
EXTRN	?accHitTest@CWnd@@UAEJJJPAUtagVARIANT@@@Z:PROC	; CWnd::accHitTest
EXTRN	?accDoDefaultAction@CWnd@@UAEJUtagVARIANT@@@Z:PROC ; CWnd::accDoDefaultAction
EXTRN	?put_accName@CWnd@@UAEJUtagVARIANT@@PA_W@Z:PROC	; CWnd::put_accName
EXTRN	?put_accValue@CWnd@@UAEJUtagVARIANT@@PA_W@Z:PROC ; CWnd::put_accValue
EXTRN	?SetProxy@CWnd@@UAEJPAUIAccessibleProxy@@@Z:PROC ; CWnd::SetProxy
EXTRN	?CreateAccessibleProxy@CWnd@@UAEJIJPAJ@Z:PROC	; CWnd::CreateAccessibleProxy
EXTRN	?OnCommand@CWnd@@MAEHIJ@Z:PROC			; CWnd::OnCommand
EXTRN	?OnNotify@CWnd@@MAEHIJPAJ@Z:PROC		; CWnd::OnNotify
EXTRN	?GetSuperWndProcAddr@CWnd@@MAEPAP6GJPAUHWND__@@IIJ@ZXZ:PROC ; CWnd::GetSuperWndProcAddr
EXTRN	?PreTranslateMessage@CWnd@@UAEHPAUtagMSG@@@Z:PROC ; CWnd::PreTranslateMessage
EXTRN	?OnAmbientProperty@CWnd@@UAEHPAVCOleControlSite@@JPAUtagVARIANT@@@Z:PROC ; CWnd::OnAmbientProperty
EXTRN	?WindowProc@CWnd@@MAEJIIJ@Z:PROC		; CWnd::WindowProc
EXTRN	?OnWndMsg@CWnd@@MAEHIIJPAJ@Z:PROC		; CWnd::OnWndMsg
EXTRN	?DefWindowProcA@CWnd@@MAEJIIJ@Z:PROC		; CWnd::DefWindowProcA
EXTRN	?PostNcDestroy@CWnd@@MAEXXZ:PROC		; CWnd::PostNcDestroy
EXTRN	?OnChildNotify@CWnd@@MAEHIIJPAJ@Z:PROC		; CWnd::OnChildNotify
EXTRN	?OnTouchInputs@CWnd@@MAEHIPAUtagTOUCHINPUT@@@Z:PROC ; CWnd::OnTouchInputs
EXTRN	?OnTouchInput@CWnd@@MAEHVCPoint@@HHPAUtagTOUCHINPUT@@@Z:PROC ; CWnd::OnTouchInput
EXTRN	?GetGestureStatus@CWnd@@MAEKVCPoint@@@Z:PROC	; CWnd::GetGestureStatus
EXTRN	?OnGestureZoom@CWnd@@MAEHVCPoint@@J@Z:PROC	; CWnd::OnGestureZoom
EXTRN	?OnGesturePan@CWnd@@MAEHVCPoint@@0@Z:PROC	; CWnd::OnGesturePan
EXTRN	?OnGestureRotate@CWnd@@MAEHVCPoint@@N@Z:PROC	; CWnd::OnGestureRotate
EXTRN	?OnGestureTwoFingerTap@CWnd@@MAEHVCPoint@@@Z:PROC ; CWnd::OnGestureTwoFingerTap
EXTRN	?OnGesturePressAndTap@CWnd@@MAEHVCPoint@@J@Z:PROC ; CWnd::OnGesturePressAndTap
EXTRN	?ResizeDynamicLayout@CWnd@@MAEXXZ:PROC		; CWnd::ResizeDynamicLayout
EXTRN	?CheckAutoCenter@CWnd@@UAEHXZ:PROC		; CWnd::CheckAutoCenter
EXTRN	?IsFrameWnd@CWnd@@UBEHXZ:PROC			; CWnd::IsFrameWnd
EXTRN	?OnFinalRelease@CWnd@@UAEXXZ:PROC		; CWnd::OnFinalRelease
EXTRN	?CreateControlContainer@CWnd@@MAEHPAPAVCOleControlContainer@@@Z:PROC ; CWnd::CreateControlContainer
EXTRN	?CreateControlSite@CWnd@@MAEHPAVCOleControlContainer@@PAPAVCOleControlSite@@IABU_GUID@@@Z:PROC ; CWnd::CreateControlSite
EXTRN	?SetOccDialogInfo@CWnd@@MAEHPAU_AFX_OCC_DIALOG_INFO@@@Z:PROC ; CWnd::SetOccDialogInfo
EXTRN	?GetOccDialogInfo@CWnd@@MAEPAU_AFX_OCC_DIALOG_INFO@@XZ:PROC ; CWnd::GetOccDialogInfo
EXTRN	?GetMessageMap@CWnd@@MBEPBUAFX_MSGMAP@@XZ:PROC	; CWnd::GetMessageMap
EXTRN	?GetRuntimeClass@CDialog@@UBEPAUCRuntimeClass@@XZ:PROC ; CDialog::GetRuntimeClass
EXTRN	?Create@CDialog@@UAEHPBDPAVCWnd@@@Z:PROC	; CDialog::Create
EXTRN	?CreateIndirect@CDialog@@UAEHPBUDLGTEMPLATE@@PAVCWnd@@PAX@Z:PROC ; CDialog::CreateIndirect
EXTRN	?CreateIndirect@CDialog@@UAEHPAXPAVCWnd@@@Z:PROC ; CDialog::CreateIndirect
EXTRN	?OnInitDialog@CDialog@@UAEHXZ:PROC		; CDialog::OnInitDialog
EXTRN	?OnSetFont@CDialog@@UAEXPAVCFont@@@Z:PROC	; CDialog::OnSetFont
EXTRN	?OnOK@CDialog@@MAEXXZ:PROC			; CDialog::OnOK
EXTRN	?OnCancel@CDialog@@MAEXXZ:PROC			; CDialog::OnCancel
EXTRN	??1CDialog@@UAE@XZ:PROC				; CDialog::~CDialog
EXTRN	?PreTranslateMessage@CDialog@@UAEHPAUtagMSG@@@Z:PROC ; CDialog::PreTranslateMessage
EXTRN	?OnCmdMsg@CDialog@@UAEHIHPAXPAUAFX_CMDHANDLERINFO@@@Z:PROC ; CDialog::OnCmdMsg
EXTRN	?CheckAutoCenter@CDialog@@UAEHXZ:PROC		; CDialog::CheckAutoCenter
EXTRN	?SetOccDialogInfo@CDialog@@MAEHPAU_AFX_OCC_DIALOG_INFO@@@Z:PROC ; CDialog::SetOccDialogInfo
EXTRN	?GetOccDialogInfo@CDialog@@MAEPAU_AFX_OCC_DIALOG_INFO@@XZ:PROC ; CDialog::GetOccDialogInfo
EXTRN	?PreInitDialog@CDialog@@MAEXXZ:PROC		; CDialog::PreInitDialog
EXTRN	?GetRuntimeClass@CButton@@UBEPAUCRuntimeClass@@XZ:PROC ; CButton::GetRuntimeClass
EXTRN	?Create@CButton@@UAEHPBDKABUtagRECT@@PAVCWnd@@I@Z:PROC ; CButton::Create
EXTRN	?DrawItem@CButton@@UAEXPAUtagDRAWITEMSTRUCT@@@Z:PROC ; CButton::DrawItem
EXTRN	??1CButton@@UAE@XZ:PROC				; CButton::~CButton
EXTRN	?OnChildNotify@CButton@@MAEHIIJPAJ@Z:PROC	; CButton::OnChildNotify
EXTRN	??_ECButton@@UAEPAXI@Z:PROC			; CButton::`vector deleting destructor'
EXTRN	?GetRuntimeClass@CEdit@@UBEPAUCRuntimeClass@@XZ:PROC ; CEdit::GetRuntimeClass
EXTRN	??1CEdit@@UAE@XZ:PROC				; CEdit::~CEdit
EXTRN	??_ECEdit@@UAEPAXI@Z:PROC			; CEdit::`vector deleting destructor'
EXTRN	?AfxMessageBox@@YGHPBDII@Z:PROC			; AfxMessageBox
EXTRN	??0CRscDlg@@QAE@IPAVCWnd@@@Z:PROC		; CRscDlg::CRscDlg
EXTRN	?Create@CRscDlg@@UAEHIPAVCWnd@@@Z:PROC		; CRscDlg::Create
EXTRN	?DoModal@CRscDlg@@UAEHXZ:PROC			; CRscDlg::DoModal
EXTRN	?DoDataExchange@CRscDlg@@MAEXPAVCDataExchange@@@Z:PROC ; CRscDlg::DoDataExchange
EXTRN	?GetThisMessageMap@CRscDlg@@KGPBUAFX_MSGMAP@@XZ:PROC ; CRscDlg::GetThisMessageMap
EXTRN	??_ECSetCycleDlg@@UAEPAXI@Z:PROC		; CSetCycleDlg::`vector deleting destructor'
EXTRN	?UpdateBtNCbValue@CInputBarDlg@@QAEXXZ:PROC	; CInputBarDlg::UpdateBtNCbValue
EXTRN	?SaveValue@CInputBarDlg@@QAEXXZ:PROC		; CInputBarDlg::SaveValue
EXTRN	?ResetUnitValue@CInputBarDlg@@QAEXH@Z:PROC	; CInputBarDlg::ResetUnitValue
EXTRN	@__security_check_cookie@4:PROC
EXTRN	___CxxFrameHandler3:PROC
EXTRN	??_7type_info@@6B@:QWORD			; type_info::`vftable'
EXTRN	___security_cookie:DWORD
;	COMDAT ?_OptionsStorage@?1??__local_stdio_printf_options@@9@4_KA
_BSS	SEGMENT
?_OptionsStorage@?1??__local_stdio_printf_options@@9@4_KA DQ 01H DUP (?) ; `__local_stdio_printf_options'::`2'::_OptionsStorage
_BSS	ENDS
_BSS	SEGMENT
?RMSG_REPLAY_REAL@@3IB DD 01H DUP (?)			; RMSG_REPLAY_REAL
?RMSG_REPLAY_FAIL@@3IB DD 01H DUP (?)			; RMSG_REPLAY_FAIL
?RMSG_REPLAY_CHANGE_DATE@@3IB DD 01H DUP (?)		; RMSG_REPLAY_CHANGE_DATE
?RMSG_REPLAY_END@@3IB DD 01H DUP (?)			; RMSG_REPLAY_END
?RMSG_REPLAY_INC_SEC@@3IB DD 01H DUP (?)		; RMSG_REPLAY_INC_SEC
?RMSG_REPLAY_TOTAL_SEC@@3IB DD 01H DUP (?)		; RMSG_REPLAY_TOTAL_SEC
?RMSG_GETSIGNAL_REAL@@3IB DD 01H DUP (?)		; RMSG_GETSIGNAL_REAL
?RMSG_SETQUERYOPT@@3IB DD 01H DUP (?)			; RMSG_SETQUERYOPT
?RMSG_CHARTMAIN@@3IB DD 01H DUP (?)			; RMSG_CHARTMAIN
?RMS_ANALYSIS_FUNC@@3IB DD 01H DUP (?)			; RMS_ANALYSIS_FUNC
?RMSG_GET_USERID@@3IB DD 01H DUP (?)			; RMSG_GET_USERID
?RMSG_CHANGE_SKINCOLOR@@3IB DD 01H DUP (?)		; RMSG_CHANGE_SKINCOLOR
?RMSG_GET_SKINCOLOR@@3IB DD 01H DUP (?)			; RMSG_GET_SKINCOLOR
?RMSG_CHANGEVERTSCALETYPE@@3IB DD 01H DUP (?)		; RMSG_CHANGEVERTSCALETYPE
?RMSG_CHANGE_CROSSLINE@@3IB DD 01H DUP (?)		; RMSG_CHANGE_CROSSLINE
?RMSG_ADD_PLATFORM_MENU@@3IB DD 01H DUP (?)		; RMSG_ADD_PLATFORM_MENU
?RMSG_SETINITIALCHARTDATA@@3IB DD 01H DUP (?)		; RMSG_SETINITIALCHARTDATA
?RMSG_GETINFO@@3IB DD 01H DUP (?)			; RMSG_GETINFO
?RMSG_SETINFO@@3IB DD 01H DUP (?)			; RMSG_SETINFO
_BSS	ENDS
;	COMDAT CRT$XCU
CRT$XCU	SEGMENT
?_AtlWinModule$initializer$@ATL@@3P6AXXZA DD FLAT:??__E_AtlWinModule@ATL@@YAXXZ ; ATL::_AtlWinModule$initializer$
CRT$XCU	ENDS
;	COMDAT ??_R2CRscDlg@@8
rdata$r	SEGMENT
??_R2CRscDlg@@8 DD FLAT:??_R1A@?0A@EA@CRscDlg@@8	; CRscDlg::`RTTI Base Class Array'
	DD	FLAT:??_R1A@?0A@EA@CDialog@@8
	DD	FLAT:??_R1A@?0A@EA@CWnd@@8
	DD	FLAT:??_R1A@?0A@EA@CCmdTarget@@8
	DD	FLAT:??_R1A@?0A@EA@CObject@@8
rdata$r	ENDS
;	COMDAT ??_R3CRscDlg@@8
rdata$r	SEGMENT
??_R3CRscDlg@@8 DD 00H					; CRscDlg::`RTTI Class Hierarchy Descriptor'
	DD	00H
	DD	05H
	DD	FLAT:??_R2CRscDlg@@8
rdata$r	ENDS
;	COMDAT ??_R0?AVCRscDlg@@@8
data$rs	SEGMENT
??_R0?AVCRscDlg@@@8 DD FLAT:??_7type_info@@6B@		; CRscDlg `RTTI Type Descriptor'
	DD	00H
	DB	'.?AVCRscDlg@@', 00H
data$rs	ENDS
;	COMDAT ??_R1A@?0A@EA@CRscDlg@@8
rdata$r	SEGMENT
??_R1A@?0A@EA@CRscDlg@@8 DD FLAT:??_R0?AVCRscDlg@@@8	; CRscDlg::`RTTI Base Class Descriptor at (0,-1,0,64)'
	DD	04H
	DD	00H
	DD	0ffffffffH
	DD	00H
	DD	040H
	DD	FLAT:??_R3CRscDlg@@8
rdata$r	ENDS
;	COMDAT ??_R1A@?0A@EA@CSetCycleDlg@@8
rdata$r	SEGMENT
??_R1A@?0A@EA@CSetCycleDlg@@8 DD FLAT:??_R0?AVCSetCycleDlg@@@8 ; CSetCycleDlg::`RTTI Base Class Descriptor at (0,-1,0,64)'
	DD	05H
	DD	00H
	DD	0ffffffffH
	DD	00H
	DD	040H
	DD	FLAT:??_R3CSetCycleDlg@@8
rdata$r	ENDS
;	COMDAT ??_R2CSetCycleDlg@@8
rdata$r	SEGMENT
??_R2CSetCycleDlg@@8 DD FLAT:??_R1A@?0A@EA@CSetCycleDlg@@8 ; CSetCycleDlg::`RTTI Base Class Array'
	DD	FLAT:??_R1A@?0A@EA@CRscDlg@@8
	DD	FLAT:??_R1A@?0A@EA@CDialog@@8
	DD	FLAT:??_R1A@?0A@EA@CWnd@@8
	DD	FLAT:??_R1A@?0A@EA@CCmdTarget@@8
	DD	FLAT:??_R1A@?0A@EA@CObject@@8
rdata$r	ENDS
;	COMDAT ??_R3CSetCycleDlg@@8
rdata$r	SEGMENT
??_R3CSetCycleDlg@@8 DD 00H				; CSetCycleDlg::`RTTI Class Hierarchy Descriptor'
	DD	00H
	DD	06H
	DD	FLAT:??_R2CSetCycleDlg@@8
rdata$r	ENDS
;	COMDAT ??_R0?AVCSetCycleDlg@@@8
data$rs	SEGMENT
??_R0?AVCSetCycleDlg@@@8 DD FLAT:??_7type_info@@6B@	; CSetCycleDlg `RTTI Type Descriptor'
	DD	00H
	DB	'.?AVCSetCycleDlg@@', 00H
data$rs	ENDS
;	COMDAT ??_R4CSetCycleDlg@@6B@
rdata$r	SEGMENT
??_R4CSetCycleDlg@@6B@ DD 00H				; CSetCycleDlg::`RTTI Complete Object Locator'
	DD	00H
	DD	00H
	DD	FLAT:??_R0?AVCSetCycleDlg@@@8
	DD	FLAT:??_R3CSetCycleDlg@@8
rdata$r	ENDS
;	COMDAT ??_C@_03JALODAI@?$CFld@
CONST	SEGMENT
??_C@_03JALODAI@?$CFld@ DB '%ld', 00H			; `string'
CONST	ENDS
;	COMDAT ??_C@_0BM@JICJIPBM@?A?$LG?H?$LI?$LA?$KB?$LE?I?G?Q?5?C?J?$LK?$MA?$MA?L?5?$LO?F?$LE?U?$LE?O?$LE?Y?4@
CONST	SEGMENT
??_C@_0BM@JICJIPBM@?A?$LG?H?$LI?$LA?$KB?$LE?I?G?Q?5?C?J?$LK?$MA?$MA?L?5?$LO?F?$LE?U?$LE?O?$LE?Y?4@ DB 0c1H
	DB	0b6H, 0c8H, 0b8H, 0b0H, 0a1H, 0b4H, 0c9H, 0c7H, 0d1H, ' ', 0c3H
	DB	0caH, 0baH, 0c0H, 0c0H, 0ccH, ' ', 0beH, 0c6H, 0b4H, 0d5H, 0b4H
	DB	0cfH, 0b4H, 0d9H, '.', 00H			; `string'
CONST	ENDS
;	COMDAT ??_C@_02PJNFELNH@30@
CONST	SEGMENT
??_C@_02PJNFELNH@30@ DB '30', 00H			; `string'
CONST	ENDS
;	COMDAT ??_C@_0CO@PIHPPGHH@?C?J?$LK?$MA?5?$LF?$KF?$MA?L?E?M?$LE?B?530?C?J?$LK?$MA?$LB?n?A?v?$LI?$LI?5?A?$LG?H?$LI@
CONST	SEGMENT
??_C@_0CO@PIHPPGHH@?C?J?$LK?$MA?5?$LF?$KF?$MA?L?E?M?$LE?B?530?C?J?$LK?$MA?$LB?n?A?v?$LI?$LI?5?A?$LG?H?$LI@ DB 0c3H
	DB	0caH, 0baH, 0c0H, ' ', 0b5H, 0a5H, 0c0H, 0ccH, 0c5H, 0cdH, 0b4H
	DB	0c2H, ' 30', 0c3H, 0caH, 0baH, 0c0H, 0b1H, 0eeH, 0c1H, 0f6H, 0b8H
	DB	0b8H, ' ', 0c1H, 0b6H, 0c8H, 0b8H, 0b0H, 0a1H, ' ', 0b0H, 0a1H
	DB	0b4H, 0c9H, 0c7H, 0d5H, 0b4H, 0cfH, 0b4H, 0d9H, '.', 00H ; `string'
CONST	ENDS
;	COMDAT ?messageMap@?1??GetThisMessageMap@CSetCycleDlg@@KGPBUAFX_MSGMAP@@XZ@4U3@B
CONST	SEGMENT
?messageMap@?1??GetThisMessageMap@CSetCycleDlg@@KGPBUAFX_MSGMAP@@XZ@4U3@B DD FLAT:?GetThisMessageMap@CRscDlg@@KGPBUAFX_MSGMAP@@XZ ; `CSetCycleDlg::GetThisMessageMap'::`2'::messageMap
	DD	FLAT:?_messageEntries@?1??GetThisMessageMap@CSetCycleDlg@@KGPBUAFX_MSGMAP@@XZ@4QBUAFX_MSGMAP_ENTRY@@B
CONST	ENDS
;	COMDAT ?_messageEntries@?1??GetThisMessageMap@CSetCycleDlg@@KGPBUAFX_MSGMAP@@XZ@4QBUAFX_MSGMAP_ENTRY@@B
CONST	SEGMENT
?_messageEntries@?1??GetThisMessageMap@CSetCycleDlg@@KGPBUAFX_MSGMAP@@XZ@4QBUAFX_MSGMAP_ENTRY@@B DD 0111H ; `CSetCycleDlg::GetThisMessageMap'::`2'::_messageEntries
	DD	00H
	DD	03H
	DD	03H
	DD	03aH
	DD	FLAT:?OnApply@CSetCycleDlg@@IAEXXZ
	DD	0111H
	DD	0300H
	DD	01881H
	DD	01881H
	DD	03aH
	DD	FLAT:?OnChangeEdit@CSetCycleDlg@@IAEXXZ
	DD	0111H
	DD	0300H
	DD	01884H
	DD	01884H
	DD	03aH
	DD	FLAT:?OnChangeEdit@CSetCycleDlg@@IAEXXZ
	DD	0111H
	DD	0300H
	DD	01882H
	DD	01882H
	DD	03aH
	DD	FLAT:?OnChangeEdit@CSetCycleDlg@@IAEXXZ
	DD	0111H
	DD	0300H
	DD	01883H
	DD	01883H
	DD	03aH
	DD	FLAT:?OnChangeEdit@CSetCycleDlg@@IAEXXZ
	DD	0111H
	DD	0300H
	DD	0188fH
	DD	0188fH
	DD	03aH
	DD	FLAT:?OnChangeEdit@CSetCycleDlg@@IAEXXZ
	DD	0111H
	DD	0300H
	DD	01890H
	DD	01890H
	DD	03aH
	DD	FLAT:?OnChangeEdit@CSetCycleDlg@@IAEXXZ
	DD	0111H
	DD	0300H
	DD	01885H
	DD	01885H
	DD	03aH
	DD	FLAT:?OnChangeEdit@CSetCycleDlg@@IAEXXZ
	DD	0111H
	DD	0300H
	DD	01888H
	DD	01888H
	DD	03aH
	DD	FLAT:?OnChangeEdit@CSetCycleDlg@@IAEXXZ
	DD	0111H
	DD	0300H
	DD	01886H
	DD	01886H
	DD	03aH
	DD	FLAT:?OnChangeEdit@CSetCycleDlg@@IAEXXZ
	DD	0111H
	DD	0300H
	DD	01887H
	DD	01887H
	DD	03aH
	DD	FLAT:?OnChangeEdit@CSetCycleDlg@@IAEXXZ
	DD	0111H
	DD	0300H
	DD	01892H
	DD	01892H
	DD	03aH
	DD	FLAT:?OnChangeEdit@CSetCycleDlg@@IAEXXZ
	DD	0111H
	DD	0300H
	DD	01893H
	DD	01893H
	DD	03aH
	DD	FLAT:?OnChangeEdit@CSetCycleDlg@@IAEXXZ
	DD	0111H
	DD	0300H
	DD	0178cH
	DD	0178cH
	DD	03aH
	DD	FLAT:?OnChangeEdit@CSetCycleDlg@@IAEXXZ
	DD	0111H
	DD	0300H
	DD	01795H
	DD	01795H
	DD	03aH
	DD	FLAT:?OnChangeEdit@CSetCycleDlg@@IAEXXZ
	DD	0111H
	DD	0300H
	DD	0178fH
	DD	0178fH
	DD	03aH
	DD	FLAT:?OnChangeEdit@CSetCycleDlg@@IAEXXZ
	DD	0111H
	DD	0300H
	DD	01891H
	DD	01891H
	DD	03aH
	DD	FLAT:?OnChangeEdit@CSetCycleDlg@@IAEXXZ
	DD	0111H
	DD	0300H
	DD	01894H
	DD	01894H
	DD	03aH
	DD	FLAT:?OnChangeEdit@CSetCycleDlg@@IAEXXZ
	DD	0111H
	DD	0300H
	DD	01796H
	DD	01796H
	DD	03aH
	DD	FLAT:?OnChangeEdit@CSetCycleDlg@@IAEXXZ
	DD	0111H
	DD	0300H
	DD	01889H
	DD	01889H
	DD	03aH
	DD	FLAT:?OnChangeEdit@CSetCycleDlg@@IAEXXZ
	DD	0111H
	DD	0300H
	DD	0188cH
	DD	0188cH
	DD	03aH
	DD	FLAT:?OnChangeEdit@CSetCycleDlg@@IAEXXZ
	DD	0111H
	DD	0300H
	DD	0188aH
	DD	0188aH
	DD	03aH
	DD	FLAT:?OnChangeEdit@CSetCycleDlg@@IAEXXZ
	DD	0111H
	DD	0300H
	DD	0188bH
	DD	0188bH
	DD	03aH
	DD	FLAT:?OnChangeEdit@CSetCycleDlg@@IAEXXZ
	DD	0111H
	DD	0300H
	DD	0188dH
	DD	0188dH
	DD	03aH
	DD	FLAT:?OnChangeEdit@CSetCycleDlg@@IAEXXZ
	DD	0111H
	DD	0300H
	DD	0188eH
	DD	0188eH
	DD	03aH
	DD	FLAT:?OnChangeEdit@CSetCycleDlg@@IAEXXZ
	DD	00H
	DD	00H
	DD	00H
	DD	00H
	DD	00H
	DD	00H
CONST	ENDS
;	COMDAT ??_7CSetCycleDlg@@6B@
CONST	SEGMENT
??_7CSetCycleDlg@@6B@ DD FLAT:??_R4CSetCycleDlg@@6B@	; CSetCycleDlg::`vftable'
	DD	FLAT:?GetRuntimeClass@CDialog@@UBEPAUCRuntimeClass@@XZ
	DD	FLAT:??_ECSetCycleDlg@@UAEPAXI@Z
	DD	FLAT:?Serialize@CObject@@UAEXAAVCArchive@@@Z
	DD	FLAT:?AssertValid@CObject@@UBEXXZ
	DD	FLAT:?Dump@CObject@@UBEXAAVCDumpContext@@@Z
	DD	FLAT:?OnCmdMsg@CDialog@@UAEHIHPAXPAUAFX_CMDHANDLERINFO@@@Z
	DD	FLAT:?OnFinalRelease@CWnd@@UAEXXZ
	DD	FLAT:?IsInvokeAllowed@CCmdTarget@@UAEHJ@Z
	DD	FLAT:?GetDispatchIID@CCmdTarget@@UAEHPAU_GUID@@@Z
	DD	FLAT:?GetTypeInfoCount@CCmdTarget@@UAEIXZ
	DD	FLAT:?GetTypeLibCache@CCmdTarget@@UAEPAVCTypeLibCache@@XZ
	DD	FLAT:?GetTypeLib@CCmdTarget@@UAEJKPAPAUITypeLib@@@Z
	DD	FLAT:?GetMessageMap@CSetCycleDlg@@MBEPBUAFX_MSGMAP@@XZ
	DD	FLAT:?GetCommandMap@CCmdTarget@@MBEPBUAFX_OLECMDMAP@@XZ
	DD	FLAT:?GetDispatchMap@CCmdTarget@@MBEPBUAFX_DISPMAP@@XZ
	DD	FLAT:?GetConnectionMap@CCmdTarget@@MBEPBUAFX_CONNECTIONMAP@@XZ
	DD	FLAT:?GetInterfaceMap@CWnd@@MBEPBUAFX_INTERFACEMAP@@XZ
	DD	FLAT:?GetEventSinkMap@CCmdTarget@@MBEPBUAFX_EVENTSINKMAP@@XZ
	DD	FLAT:?OnCreateAggregates@CCmdTarget@@UAEHXZ
	DD	FLAT:?GetInterfaceHook@CCmdTarget@@UAEPAUIUnknown@@PBX@Z
	DD	FLAT:?GetExtraConnectionPoints@CCmdTarget@@MAEHPAVCPtrArray@@@Z
	DD	FLAT:?GetConnectionHook@CCmdTarget@@MAEPAUIConnectionPoint@@ABU_GUID@@@Z
	DD	FLAT:?PreSubclassWindow@CWnd@@UAEXXZ
	DD	FLAT:?Create@CWnd@@UAEHPBD0KABUtagRECT@@PAV1@IPAUCCreateContext@@@Z
	DD	FLAT:?CreateEx@CWnd@@UAEHKPBD0KABUtagRECT@@PAV1@IPAX@Z
	DD	FLAT:?CreateEx@CWnd@@UAEHKPBD0KHHHHPAUHWND__@@PAUHMENU__@@PAX@Z
	DD	FLAT:?DestroyWindow@CWnd@@UAEHXZ
	DD	FLAT:?PreCreateWindow@CWnd@@UAEHAAUtagCREATESTRUCTA@@@Z
	DD	FLAT:?CalcWindowRect@CWnd@@UAEXPAUtagRECT@@I@Z
	DD	FLAT:?GetMenu@CWnd@@UBEPAVCMenu@@XZ
	DD	FLAT:?SetMenu@CWnd@@UAEHPAVCMenu@@@Z
	DD	FLAT:?OnToolHitTest@CWnd@@UBEHVCPoint@@PAUtagTOOLINFOA@@@Z
	DD	FLAT:?GetScrollBarCtrl@CWnd@@UBEPAVCScrollBar@@H@Z
	DD	FLAT:?WinHelpA@CWnd@@UAEXKI@Z
	DD	FLAT:?HtmlHelpA@CWnd@@UAEXKI@Z
	DD	FLAT:?WinHelpInternal@CWnd@@UAEXKI@Z
	DD	FLAT:?ContinueModal@CWnd@@UAEHXZ
	DD	FLAT:?EndModalLoop@CWnd@@UAEXH@Z
	DD	FLAT:?OnDrawIconicThumbnailOrLivePreview@CWnd@@UAEXAAVCDC@@VCRect@@VCSize@@HAAH@Z
	DD	FLAT:?EnsureStdObj@CWnd@@UAEJXZ
	DD	FLAT:?get_accParent@CWnd@@UAEJPAPAUIDispatch@@@Z
	DD	FLAT:?get_accChildCount@CWnd@@UAEJPAJ@Z
	DD	FLAT:?get_accChild@CWnd@@UAEJUtagVARIANT@@PAPAUIDispatch@@@Z
	DD	FLAT:?get_accName@CWnd@@UAEJUtagVARIANT@@PAPA_W@Z
	DD	FLAT:?get_accValue@CWnd@@UAEJUtagVARIANT@@PAPA_W@Z
	DD	FLAT:?get_accDescription@CWnd@@UAEJUtagVARIANT@@PAPA_W@Z
	DD	FLAT:?get_accRole@CWnd@@UAEJUtagVARIANT@@PAU2@@Z
	DD	FLAT:?get_accState@CWnd@@UAEJUtagVARIANT@@PAU2@@Z
	DD	FLAT:?get_accHelp@CWnd@@UAEJUtagVARIANT@@PAPA_W@Z
	DD	FLAT:?get_accHelpTopic@CWnd@@UAEJPAPA_WUtagVARIANT@@PAJ@Z
	DD	FLAT:?get_accKeyboardShortcut@CWnd@@UAEJUtagVARIANT@@PAPA_W@Z
	DD	FLAT:?get_accFocus@CWnd@@UAEJPAUtagVARIANT@@@Z
	DD	FLAT:?get_accSelection@CWnd@@UAEJPAUtagVARIANT@@@Z
	DD	FLAT:?get_accDefaultAction@CWnd@@UAEJUtagVARIANT@@PAPA_W@Z
	DD	FLAT:?accSelect@CWnd@@UAEJJUtagVARIANT@@@Z
	DD	FLAT:?accLocation@CWnd@@UAEJPAJ000UtagVARIANT@@@Z
	DD	FLAT:?accNavigate@CWnd@@UAEJJUtagVARIANT@@PAU2@@Z
	DD	FLAT:?accHitTest@CWnd@@UAEJJJPAUtagVARIANT@@@Z
	DD	FLAT:?accDoDefaultAction@CWnd@@UAEJUtagVARIANT@@@Z
	DD	FLAT:?put_accName@CWnd@@UAEJUtagVARIANT@@PA_W@Z
	DD	FLAT:?put_accValue@CWnd@@UAEJUtagVARIANT@@PA_W@Z
	DD	FLAT:?SetProxy@CWnd@@UAEJPAUIAccessibleProxy@@@Z
	DD	FLAT:?CreateAccessibleProxy@CWnd@@UAEJIJPAJ@Z
	DD	FLAT:?OnCommand@CWnd@@MAEHIJ@Z
	DD	FLAT:?OnNotify@CWnd@@MAEHIJPAJ@Z
	DD	FLAT:?GetSuperWndProcAddr@CWnd@@MAEPAP6GJPAUHWND__@@IIJ@ZXZ
	DD	FLAT:?DoDataExchange@CSetCycleDlg@@MAEXPAVCDataExchange@@@Z
	DD	FLAT:?BeginModalState@CWnd@@UAEXXZ
	DD	FLAT:?EndModalState@CWnd@@UAEXXZ
	DD	FLAT:?PreTranslateMessage@CDialog@@UAEHPAUtagMSG@@@Z
	DD	FLAT:?OnAmbientProperty@CWnd@@UAEHPAVCOleControlSite@@JPAUtagVARIANT@@@Z
	DD	FLAT:?WindowProc@CWnd@@MAEJIIJ@Z
	DD	FLAT:?OnWndMsg@CWnd@@MAEHIIJPAJ@Z
	DD	FLAT:?DefWindowProcA@CWnd@@MAEJIIJ@Z
	DD	FLAT:?PostNcDestroy@CWnd@@MAEXXZ
	DD	FLAT:?OnChildNotify@CWnd@@MAEHIIJPAJ@Z
	DD	FLAT:?OnTouchInputs@CWnd@@MAEHIPAUtagTOUCHINPUT@@@Z
	DD	FLAT:?OnTouchInput@CWnd@@MAEHVCPoint@@HHPAUtagTOUCHINPUT@@@Z
	DD	FLAT:?GetGestureStatus@CWnd@@MAEKVCPoint@@@Z
	DD	FLAT:?OnGestureZoom@CWnd@@MAEHVCPoint@@J@Z
	DD	FLAT:?OnGesturePan@CWnd@@MAEHVCPoint@@0@Z
	DD	FLAT:?OnGestureRotate@CWnd@@MAEHVCPoint@@N@Z
	DD	FLAT:?OnGestureTwoFingerTap@CWnd@@MAEHVCPoint@@@Z
	DD	FLAT:?OnGesturePressAndTap@CWnd@@MAEHVCPoint@@J@Z
	DD	FLAT:?ResizeDynamicLayout@CWnd@@MAEXXZ
	DD	FLAT:?CheckAutoCenter@CDialog@@UAEHXZ
	DD	FLAT:?IsFrameWnd@CWnd@@UBEHXZ
	DD	FLAT:?CreateControlContainer@CWnd@@MAEHPAPAVCOleControlContainer@@@Z
	DD	FLAT:?CreateControlSite@CWnd@@MAEHPAVCOleControlContainer@@PAPAVCOleControlSite@@IABU_GUID@@@Z
	DD	FLAT:?SetOccDialogInfo@CDialog@@MAEHPAU_AFX_OCC_DIALOG_INFO@@@Z
	DD	FLAT:?GetOccDialogInfo@CDialog@@MAEPAU_AFX_OCC_DIALOG_INFO@@XZ
	DD	FLAT:?Create@CRscDlg@@UAEHIPAVCWnd@@@Z
	DD	FLAT:?Create@CDialog@@UAEHPBDPAVCWnd@@@Z
	DD	FLAT:?CreateIndirect@CDialog@@UAEHPAXPAVCWnd@@@Z
	DD	FLAT:?CreateIndirect@CDialog@@UAEHPBUDLGTEMPLATE@@PAVCWnd@@PAX@Z
	DD	FLAT:?DoModal@CRscDlg@@UAEHXZ
	DD	FLAT:?OnInitDialog@CSetCycleDlg@@MAEHXZ
	DD	FLAT:?OnSetFont@CDialog@@UAEXPAVCFont@@@Z
	DD	FLAT:?OnOK@CSetCycleDlg@@MAEXXZ
	DD	FLAT:?OnCancel@CDialog@@MAEXXZ
	DD	FLAT:?PreInitDialog@CDialog@@MAEXXZ
CONST	ENDS
;	COMDAT ??_R2CDialog@@8
rdata$r	SEGMENT
??_R2CDialog@@8 DD FLAT:??_R1A@?0A@EA@CDialog@@8	; CDialog::`RTTI Base Class Array'
	DD	FLAT:??_R1A@?0A@EA@CWnd@@8
	DD	FLAT:??_R1A@?0A@EA@CCmdTarget@@8
	DD	FLAT:??_R1A@?0A@EA@CObject@@8
rdata$r	ENDS
;	COMDAT ??_R3CDialog@@8
rdata$r	SEGMENT
??_R3CDialog@@8 DD 00H					; CDialog::`RTTI Class Hierarchy Descriptor'
	DD	00H
	DD	04H
	DD	FLAT:??_R2CDialog@@8
rdata$r	ENDS
;	COMDAT ??_R0?AVCDialog@@@8
data$rs	SEGMENT
??_R0?AVCDialog@@@8 DD FLAT:??_7type_info@@6B@		; CDialog `RTTI Type Descriptor'
	DD	00H
	DB	'.?AVCDialog@@', 00H
data$rs	ENDS
;	COMDAT ??_R1A@?0A@EA@CDialog@@8
rdata$r	SEGMENT
??_R1A@?0A@EA@CDialog@@8 DD FLAT:??_R0?AVCDialog@@@8	; CDialog::`RTTI Base Class Descriptor at (0,-1,0,64)'
	DD	03H
	DD	00H
	DD	0ffffffffH
	DD	00H
	DD	040H
	DD	FLAT:??_R3CDialog@@8
rdata$r	ENDS
;	COMDAT ??_R1A@?0A@EA@CEdit@@8
rdata$r	SEGMENT
??_R1A@?0A@EA@CEdit@@8 DD FLAT:??_R0?AVCEdit@@@8	; CEdit::`RTTI Base Class Descriptor at (0,-1,0,64)'
	DD	03H
	DD	00H
	DD	0ffffffffH
	DD	00H
	DD	040H
	DD	FLAT:??_R3CEdit@@8
rdata$r	ENDS
;	COMDAT ??_R2CEdit@@8
rdata$r	SEGMENT
??_R2CEdit@@8 DD FLAT:??_R1A@?0A@EA@CEdit@@8		; CEdit::`RTTI Base Class Array'
	DD	FLAT:??_R1A@?0A@EA@CWnd@@8
	DD	FLAT:??_R1A@?0A@EA@CCmdTarget@@8
	DD	FLAT:??_R1A@?0A@EA@CObject@@8
rdata$r	ENDS
;	COMDAT ??_R3CEdit@@8
rdata$r	SEGMENT
??_R3CEdit@@8 DD 00H					; CEdit::`RTTI Class Hierarchy Descriptor'
	DD	00H
	DD	04H
	DD	FLAT:??_R2CEdit@@8
rdata$r	ENDS
;	COMDAT ??_R0?AVCEdit@@@8
data$rs	SEGMENT
??_R0?AVCEdit@@@8 DD FLAT:??_7type_info@@6B@		; CEdit `RTTI Type Descriptor'
	DD	00H
	DB	'.?AVCEdit@@', 00H
data$rs	ENDS
;	COMDAT ??_R4CEdit@@6B@
rdata$r	SEGMENT
??_R4CEdit@@6B@ DD 00H					; CEdit::`RTTI Complete Object Locator'
	DD	00H
	DD	00H
	DD	FLAT:??_R0?AVCEdit@@@8
	DD	FLAT:??_R3CEdit@@8
rdata$r	ENDS
;	COMDAT ??_R1A@?0A@EA@CButton@@8
rdata$r	SEGMENT
??_R1A@?0A@EA@CButton@@8 DD FLAT:??_R0?AVCButton@@@8	; CButton::`RTTI Base Class Descriptor at (0,-1,0,64)'
	DD	03H
	DD	00H
	DD	0ffffffffH
	DD	00H
	DD	040H
	DD	FLAT:??_R3CButton@@8
rdata$r	ENDS
;	COMDAT ??_R2CButton@@8
rdata$r	SEGMENT
??_R2CButton@@8 DD FLAT:??_R1A@?0A@EA@CButton@@8	; CButton::`RTTI Base Class Array'
	DD	FLAT:??_R1A@?0A@EA@CWnd@@8
	DD	FLAT:??_R1A@?0A@EA@CCmdTarget@@8
	DD	FLAT:??_R1A@?0A@EA@CObject@@8
rdata$r	ENDS
;	COMDAT ??_R3CButton@@8
rdata$r	SEGMENT
??_R3CButton@@8 DD 00H					; CButton::`RTTI Class Hierarchy Descriptor'
	DD	00H
	DD	04H
	DD	FLAT:??_R2CButton@@8
rdata$r	ENDS
;	COMDAT ??_R0?AVCButton@@@8
data$rs	SEGMENT
??_R0?AVCButton@@@8 DD FLAT:??_7type_info@@6B@		; CButton `RTTI Type Descriptor'
	DD	00H
	DB	'.?AVCButton@@', 00H
data$rs	ENDS
;	COMDAT ??_R4CButton@@6B@
rdata$r	SEGMENT
??_R4CButton@@6B@ DD 00H				; CButton::`RTTI Complete Object Locator'
	DD	00H
	DD	00H
	DD	FLAT:??_R0?AVCButton@@@8
	DD	FLAT:??_R3CButton@@8
rdata$r	ENDS
;	COMDAT ??_R2CCmdTarget@@8
rdata$r	SEGMENT
??_R2CCmdTarget@@8 DD FLAT:??_R1A@?0A@EA@CCmdTarget@@8	; CCmdTarget::`RTTI Base Class Array'
	DD	FLAT:??_R1A@?0A@EA@CObject@@8
rdata$r	ENDS
;	COMDAT ??_R3CCmdTarget@@8
rdata$r	SEGMENT
??_R3CCmdTarget@@8 DD 00H				; CCmdTarget::`RTTI Class Hierarchy Descriptor'
	DD	00H
	DD	02H
	DD	FLAT:??_R2CCmdTarget@@8
rdata$r	ENDS
;	COMDAT ??_R0?AVCCmdTarget@@@8
data$rs	SEGMENT
??_R0?AVCCmdTarget@@@8 DD FLAT:??_7type_info@@6B@	; CCmdTarget `RTTI Type Descriptor'
	DD	00H
	DB	'.?AVCCmdTarget@@', 00H
data$rs	ENDS
;	COMDAT ??_R1A@?0A@EA@CCmdTarget@@8
rdata$r	SEGMENT
??_R1A@?0A@EA@CCmdTarget@@8 DD FLAT:??_R0?AVCCmdTarget@@@8 ; CCmdTarget::`RTTI Base Class Descriptor at (0,-1,0,64)'
	DD	01H
	DD	00H
	DD	0ffffffffH
	DD	00H
	DD	040H
	DD	FLAT:??_R3CCmdTarget@@8
rdata$r	ENDS
;	COMDAT ??_R2CWnd@@8
rdata$r	SEGMENT
??_R2CWnd@@8 DD	FLAT:??_R1A@?0A@EA@CWnd@@8		; CWnd::`RTTI Base Class Array'
	DD	FLAT:??_R1A@?0A@EA@CCmdTarget@@8
	DD	FLAT:??_R1A@?0A@EA@CObject@@8
rdata$r	ENDS
;	COMDAT ??_R3CWnd@@8
rdata$r	SEGMENT
??_R3CWnd@@8 DD	00H					; CWnd::`RTTI Class Hierarchy Descriptor'
	DD	00H
	DD	03H
	DD	FLAT:??_R2CWnd@@8
rdata$r	ENDS
;	COMDAT ??_R0?AVCWnd@@@8
data$rs	SEGMENT
??_R0?AVCWnd@@@8 DD FLAT:??_7type_info@@6B@		; CWnd `RTTI Type Descriptor'
	DD	00H
	DB	'.?AVCWnd@@', 00H
data$rs	ENDS
;	COMDAT ??_R1A@?0A@EA@CWnd@@8
rdata$r	SEGMENT
??_R1A@?0A@EA@CWnd@@8 DD FLAT:??_R0?AVCWnd@@@8		; CWnd::`RTTI Base Class Descriptor at (0,-1,0,64)'
	DD	02H
	DD	00H
	DD	0ffffffffH
	DD	00H
	DD	040H
	DD	FLAT:??_R3CWnd@@8
rdata$r	ENDS
;	COMDAT ??_R1A@?0A@EA@CObject@@8
rdata$r	SEGMENT
??_R1A@?0A@EA@CObject@@8 DD FLAT:??_R0?AVCObject@@@8	; CObject::`RTTI Base Class Descriptor at (0,-1,0,64)'
	DD	00H
	DD	00H
	DD	0ffffffffH
	DD	00H
	DD	040H
	DD	FLAT:??_R3CObject@@8
rdata$r	ENDS
;	COMDAT ??_R2CObject@@8
rdata$r	SEGMENT
??_R2CObject@@8 DD FLAT:??_R1A@?0A@EA@CObject@@8	; CObject::`RTTI Base Class Array'
rdata$r	ENDS
;	COMDAT ??_R3CObject@@8
rdata$r	SEGMENT
??_R3CObject@@8 DD 00H					; CObject::`RTTI Class Hierarchy Descriptor'
	DD	00H
	DD	01H
	DD	FLAT:??_R2CObject@@8
rdata$r	ENDS
;	COMDAT ??_R0?AVCObject@@@8
data$rs	SEGMENT
??_R0?AVCObject@@@8 DD FLAT:??_7type_info@@6B@		; CObject `RTTI Type Descriptor'
	DD	00H
	DB	'.?AVCObject@@', 00H
data$rs	ENDS
;	COMDAT ??_7CEdit@@6B@
CONST	SEGMENT
??_7CEdit@@6B@ DD FLAT:??_R4CEdit@@6B@			; CEdit::`vftable'
	DD	FLAT:?GetRuntimeClass@CEdit@@UBEPAUCRuntimeClass@@XZ
	DD	FLAT:??_ECEdit@@UAEPAXI@Z
	DD	FLAT:?Serialize@CObject@@UAEXAAVCArchive@@@Z
	DD	FLAT:?AssertValid@CObject@@UBEXXZ
	DD	FLAT:?Dump@CObject@@UBEXAAVCDumpContext@@@Z
	DD	FLAT:?OnCmdMsg@CCmdTarget@@UAEHIHPAXPAUAFX_CMDHANDLERINFO@@@Z
	DD	FLAT:?OnFinalRelease@CWnd@@UAEXXZ
	DD	FLAT:?IsInvokeAllowed@CCmdTarget@@UAEHJ@Z
	DD	FLAT:?GetDispatchIID@CCmdTarget@@UAEHPAU_GUID@@@Z
	DD	FLAT:?GetTypeInfoCount@CCmdTarget@@UAEIXZ
	DD	FLAT:?GetTypeLibCache@CCmdTarget@@UAEPAVCTypeLibCache@@XZ
	DD	FLAT:?GetTypeLib@CCmdTarget@@UAEJKPAPAUITypeLib@@@Z
	DD	FLAT:?GetMessageMap@CWnd@@MBEPBUAFX_MSGMAP@@XZ
	DD	FLAT:?GetCommandMap@CCmdTarget@@MBEPBUAFX_OLECMDMAP@@XZ
	DD	FLAT:?GetDispatchMap@CCmdTarget@@MBEPBUAFX_DISPMAP@@XZ
	DD	FLAT:?GetConnectionMap@CCmdTarget@@MBEPBUAFX_CONNECTIONMAP@@XZ
	DD	FLAT:?GetInterfaceMap@CWnd@@MBEPBUAFX_INTERFACEMAP@@XZ
	DD	FLAT:?GetEventSinkMap@CCmdTarget@@MBEPBUAFX_EVENTSINKMAP@@XZ
	DD	FLAT:?OnCreateAggregates@CCmdTarget@@UAEHXZ
	DD	FLAT:?GetInterfaceHook@CCmdTarget@@UAEPAUIUnknown@@PBX@Z
	DD	FLAT:?GetExtraConnectionPoints@CCmdTarget@@MAEHPAVCPtrArray@@@Z
	DD	FLAT:?GetConnectionHook@CCmdTarget@@MAEPAUIConnectionPoint@@ABU_GUID@@@Z
	DD	FLAT:?PreSubclassWindow@CWnd@@UAEXXZ
	DD	FLAT:?Create@CWnd@@UAEHPBD0KABUtagRECT@@PAV1@IPAUCCreateContext@@@Z
	DD	FLAT:?CreateEx@CWnd@@UAEHKPBD0KABUtagRECT@@PAV1@IPAX@Z
	DD	FLAT:?CreateEx@CWnd@@UAEHKPBD0KHHHHPAUHWND__@@PAUHMENU__@@PAX@Z
	DD	FLAT:?DestroyWindow@CWnd@@UAEHXZ
	DD	FLAT:?PreCreateWindow@CWnd@@UAEHAAUtagCREATESTRUCTA@@@Z
	DD	FLAT:?CalcWindowRect@CWnd@@UAEXPAUtagRECT@@I@Z
	DD	FLAT:?GetMenu@CWnd@@UBEPAVCMenu@@XZ
	DD	FLAT:?SetMenu@CWnd@@UAEHPAVCMenu@@@Z
	DD	FLAT:?OnToolHitTest@CWnd@@UBEHVCPoint@@PAUtagTOOLINFOA@@@Z
	DD	FLAT:?GetScrollBarCtrl@CWnd@@UBEPAVCScrollBar@@H@Z
	DD	FLAT:?WinHelpA@CWnd@@UAEXKI@Z
	DD	FLAT:?HtmlHelpA@CWnd@@UAEXKI@Z
	DD	FLAT:?WinHelpInternal@CWnd@@UAEXKI@Z
	DD	FLAT:?ContinueModal@CWnd@@UAEHXZ
	DD	FLAT:?EndModalLoop@CWnd@@UAEXH@Z
	DD	FLAT:?OnDrawIconicThumbnailOrLivePreview@CWnd@@UAEXAAVCDC@@VCRect@@VCSize@@HAAH@Z
	DD	FLAT:?EnsureStdObj@CWnd@@UAEJXZ
	DD	FLAT:?get_accParent@CWnd@@UAEJPAPAUIDispatch@@@Z
	DD	FLAT:?get_accChildCount@CWnd@@UAEJPAJ@Z
	DD	FLAT:?get_accChild@CWnd@@UAEJUtagVARIANT@@PAPAUIDispatch@@@Z
	DD	FLAT:?get_accName@CWnd@@UAEJUtagVARIANT@@PAPA_W@Z
	DD	FLAT:?get_accValue@CWnd@@UAEJUtagVARIANT@@PAPA_W@Z
	DD	FLAT:?get_accDescription@CWnd@@UAEJUtagVARIANT@@PAPA_W@Z
	DD	FLAT:?get_accRole@CWnd@@UAEJUtagVARIANT@@PAU2@@Z
	DD	FLAT:?get_accState@CWnd@@UAEJUtagVARIANT@@PAU2@@Z
	DD	FLAT:?get_accHelp@CWnd@@UAEJUtagVARIANT@@PAPA_W@Z
	DD	FLAT:?get_accHelpTopic@CWnd@@UAEJPAPA_WUtagVARIANT@@PAJ@Z
	DD	FLAT:?get_accKeyboardShortcut@CWnd@@UAEJUtagVARIANT@@PAPA_W@Z
	DD	FLAT:?get_accFocus@CWnd@@UAEJPAUtagVARIANT@@@Z
	DD	FLAT:?get_accSelection@CWnd@@UAEJPAUtagVARIANT@@@Z
	DD	FLAT:?get_accDefaultAction@CWnd@@UAEJUtagVARIANT@@PAPA_W@Z
	DD	FLAT:?accSelect@CWnd@@UAEJJUtagVARIANT@@@Z
	DD	FLAT:?accLocation@CWnd@@UAEJPAJ000UtagVARIANT@@@Z
	DD	FLAT:?accNavigate@CWnd@@UAEJJUtagVARIANT@@PAU2@@Z
	DD	FLAT:?accHitTest@CWnd@@UAEJJJPAUtagVARIANT@@@Z
	DD	FLAT:?accDoDefaultAction@CWnd@@UAEJUtagVARIANT@@@Z
	DD	FLAT:?put_accName@CWnd@@UAEJUtagVARIANT@@PA_W@Z
	DD	FLAT:?put_accValue@CWnd@@UAEJUtagVARIANT@@PA_W@Z
	DD	FLAT:?SetProxy@CWnd@@UAEJPAUIAccessibleProxy@@@Z
	DD	FLAT:?CreateAccessibleProxy@CWnd@@UAEJIJPAJ@Z
	DD	FLAT:?OnCommand@CWnd@@MAEHIJ@Z
	DD	FLAT:?OnNotify@CWnd@@MAEHIJPAJ@Z
	DD	FLAT:?GetSuperWndProcAddr@CWnd@@MAEPAP6GJPAUHWND__@@IIJ@ZXZ
	DD	FLAT:?DoDataExchange@CWnd@@MAEXPAVCDataExchange@@@Z
	DD	FLAT:?BeginModalState@CWnd@@UAEXXZ
	DD	FLAT:?EndModalState@CWnd@@UAEXXZ
	DD	FLAT:?PreTranslateMessage@CWnd@@UAEHPAUtagMSG@@@Z
	DD	FLAT:?OnAmbientProperty@CWnd@@UAEHPAVCOleControlSite@@JPAUtagVARIANT@@@Z
	DD	FLAT:?WindowProc@CWnd@@MAEJIIJ@Z
	DD	FLAT:?OnWndMsg@CWnd@@MAEHIIJPAJ@Z
	DD	FLAT:?DefWindowProcA@CWnd@@MAEJIIJ@Z
	DD	FLAT:?PostNcDestroy@CWnd@@MAEXXZ
	DD	FLAT:?OnChildNotify@CWnd@@MAEHIIJPAJ@Z
	DD	FLAT:?OnTouchInputs@CWnd@@MAEHIPAUtagTOUCHINPUT@@@Z
	DD	FLAT:?OnTouchInput@CWnd@@MAEHVCPoint@@HHPAUtagTOUCHINPUT@@@Z
	DD	FLAT:?GetGestureStatus@CWnd@@MAEKVCPoint@@@Z
	DD	FLAT:?OnGestureZoom@CWnd@@MAEHVCPoint@@J@Z
	DD	FLAT:?OnGesturePan@CWnd@@MAEHVCPoint@@0@Z
	DD	FLAT:?OnGestureRotate@CWnd@@MAEHVCPoint@@N@Z
	DD	FLAT:?OnGestureTwoFingerTap@CWnd@@MAEHVCPoint@@@Z
	DD	FLAT:?OnGesturePressAndTap@CWnd@@MAEHVCPoint@@J@Z
	DD	FLAT:?ResizeDynamicLayout@CWnd@@MAEXXZ
	DD	FLAT:?CheckAutoCenter@CWnd@@UAEHXZ
	DD	FLAT:?IsFrameWnd@CWnd@@UBEHXZ
	DD	FLAT:?CreateControlContainer@CWnd@@MAEHPAPAVCOleControlContainer@@@Z
	DD	FLAT:?CreateControlSite@CWnd@@MAEHPAVCOleControlContainer@@PAPAVCOleControlSite@@IABU_GUID@@@Z
	DD	FLAT:?SetOccDialogInfo@CWnd@@MAEHPAU_AFX_OCC_DIALOG_INFO@@@Z
	DD	FLAT:?GetOccDialogInfo@CWnd@@MAEPAU_AFX_OCC_DIALOG_INFO@@XZ
CONST	ENDS
;	COMDAT ??_7CButton@@6B@
CONST	SEGMENT
??_7CButton@@6B@ DD FLAT:??_R4CButton@@6B@		; CButton::`vftable'
	DD	FLAT:?GetRuntimeClass@CButton@@UBEPAUCRuntimeClass@@XZ
	DD	FLAT:??_ECButton@@UAEPAXI@Z
	DD	FLAT:?Serialize@CObject@@UAEXAAVCArchive@@@Z
	DD	FLAT:?AssertValid@CObject@@UBEXXZ
	DD	FLAT:?Dump@CObject@@UBEXAAVCDumpContext@@@Z
	DD	FLAT:?OnCmdMsg@CCmdTarget@@UAEHIHPAXPAUAFX_CMDHANDLERINFO@@@Z
	DD	FLAT:?OnFinalRelease@CWnd@@UAEXXZ
	DD	FLAT:?IsInvokeAllowed@CCmdTarget@@UAEHJ@Z
	DD	FLAT:?GetDispatchIID@CCmdTarget@@UAEHPAU_GUID@@@Z
	DD	FLAT:?GetTypeInfoCount@CCmdTarget@@UAEIXZ
	DD	FLAT:?GetTypeLibCache@CCmdTarget@@UAEPAVCTypeLibCache@@XZ
	DD	FLAT:?GetTypeLib@CCmdTarget@@UAEJKPAPAUITypeLib@@@Z
	DD	FLAT:?GetMessageMap@CWnd@@MBEPBUAFX_MSGMAP@@XZ
	DD	FLAT:?GetCommandMap@CCmdTarget@@MBEPBUAFX_OLECMDMAP@@XZ
	DD	FLAT:?GetDispatchMap@CCmdTarget@@MBEPBUAFX_DISPMAP@@XZ
	DD	FLAT:?GetConnectionMap@CCmdTarget@@MBEPBUAFX_CONNECTIONMAP@@XZ
	DD	FLAT:?GetInterfaceMap@CWnd@@MBEPBUAFX_INTERFACEMAP@@XZ
	DD	FLAT:?GetEventSinkMap@CCmdTarget@@MBEPBUAFX_EVENTSINKMAP@@XZ
	DD	FLAT:?OnCreateAggregates@CCmdTarget@@UAEHXZ
	DD	FLAT:?GetInterfaceHook@CCmdTarget@@UAEPAUIUnknown@@PBX@Z
	DD	FLAT:?GetExtraConnectionPoints@CCmdTarget@@MAEHPAVCPtrArray@@@Z
	DD	FLAT:?GetConnectionHook@CCmdTarget@@MAEPAUIConnectionPoint@@ABU_GUID@@@Z
	DD	FLAT:?PreSubclassWindow@CWnd@@UAEXXZ
	DD	FLAT:?Create@CWnd@@UAEHPBD0KABUtagRECT@@PAV1@IPAUCCreateContext@@@Z
	DD	FLAT:?CreateEx@CWnd@@UAEHKPBD0KABUtagRECT@@PAV1@IPAX@Z
	DD	FLAT:?CreateEx@CWnd@@UAEHKPBD0KHHHHPAUHWND__@@PAUHMENU__@@PAX@Z
	DD	FLAT:?DestroyWindow@CWnd@@UAEHXZ
	DD	FLAT:?PreCreateWindow@CWnd@@UAEHAAUtagCREATESTRUCTA@@@Z
	DD	FLAT:?CalcWindowRect@CWnd@@UAEXPAUtagRECT@@I@Z
	DD	FLAT:?GetMenu@CWnd@@UBEPAVCMenu@@XZ
	DD	FLAT:?SetMenu@CWnd@@UAEHPAVCMenu@@@Z
	DD	FLAT:?OnToolHitTest@CWnd@@UBEHVCPoint@@PAUtagTOOLINFOA@@@Z
	DD	FLAT:?GetScrollBarCtrl@CWnd@@UBEPAVCScrollBar@@H@Z
	DD	FLAT:?WinHelpA@CWnd@@UAEXKI@Z
	DD	FLAT:?HtmlHelpA@CWnd@@UAEXKI@Z
	DD	FLAT:?WinHelpInternal@CWnd@@UAEXKI@Z
	DD	FLAT:?ContinueModal@CWnd@@UAEHXZ
	DD	FLAT:?EndModalLoop@CWnd@@UAEXH@Z
	DD	FLAT:?OnDrawIconicThumbnailOrLivePreview@CWnd@@UAEXAAVCDC@@VCRect@@VCSize@@HAAH@Z
	DD	FLAT:?EnsureStdObj@CWnd@@UAEJXZ
	DD	FLAT:?get_accParent@CWnd@@UAEJPAPAUIDispatch@@@Z
	DD	FLAT:?get_accChildCount@CWnd@@UAEJPAJ@Z
	DD	FLAT:?get_accChild@CWnd@@UAEJUtagVARIANT@@PAPAUIDispatch@@@Z
	DD	FLAT:?get_accName@CWnd@@UAEJUtagVARIANT@@PAPA_W@Z
	DD	FLAT:?get_accValue@CWnd@@UAEJUtagVARIANT@@PAPA_W@Z
	DD	FLAT:?get_accDescription@CWnd@@UAEJUtagVARIANT@@PAPA_W@Z
	DD	FLAT:?get_accRole@CWnd@@UAEJUtagVARIANT@@PAU2@@Z
	DD	FLAT:?get_accState@CWnd@@UAEJUtagVARIANT@@PAU2@@Z
	DD	FLAT:?get_accHelp@CWnd@@UAEJUtagVARIANT@@PAPA_W@Z
	DD	FLAT:?get_accHelpTopic@CWnd@@UAEJPAPA_WUtagVARIANT@@PAJ@Z
	DD	FLAT:?get_accKeyboardShortcut@CWnd@@UAEJUtagVARIANT@@PAPA_W@Z
	DD	FLAT:?get_accFocus@CWnd@@UAEJPAUtagVARIANT@@@Z
	DD	FLAT:?get_accSelection@CWnd@@UAEJPAUtagVARIANT@@@Z
	DD	FLAT:?get_accDefaultAction@CWnd@@UAEJUtagVARIANT@@PAPA_W@Z
	DD	FLAT:?accSelect@CWnd@@UAEJJUtagVARIANT@@@Z
	DD	FLAT:?accLocation@CWnd@@UAEJPAJ000UtagVARIANT@@@Z
	DD	FLAT:?accNavigate@CWnd@@UAEJJUtagVARIANT@@PAU2@@Z
	DD	FLAT:?accHitTest@CWnd@@UAEJJJPAUtagVARIANT@@@Z
	DD	FLAT:?accDoDefaultAction@CWnd@@UAEJUtagVARIANT@@@Z
	DD	FLAT:?put_accName@CWnd@@UAEJUtagVARIANT@@PA_W@Z
	DD	FLAT:?put_accValue@CWnd@@UAEJUtagVARIANT@@PA_W@Z
	DD	FLAT:?SetProxy@CWnd@@UAEJPAUIAccessibleProxy@@@Z
	DD	FLAT:?CreateAccessibleProxy@CWnd@@UAEJIJPAJ@Z
	DD	FLAT:?OnCommand@CWnd@@MAEHIJ@Z
	DD	FLAT:?OnNotify@CWnd@@MAEHIJPAJ@Z
	DD	FLAT:?GetSuperWndProcAddr@CWnd@@MAEPAP6GJPAUHWND__@@IIJ@ZXZ
	DD	FLAT:?DoDataExchange@CWnd@@MAEXPAVCDataExchange@@@Z
	DD	FLAT:?BeginModalState@CWnd@@UAEXXZ
	DD	FLAT:?EndModalState@CWnd@@UAEXXZ
	DD	FLAT:?PreTranslateMessage@CWnd@@UAEHPAUtagMSG@@@Z
	DD	FLAT:?OnAmbientProperty@CWnd@@UAEHPAVCOleControlSite@@JPAUtagVARIANT@@@Z
	DD	FLAT:?WindowProc@CWnd@@MAEJIIJ@Z
	DD	FLAT:?OnWndMsg@CWnd@@MAEHIIJPAJ@Z
	DD	FLAT:?DefWindowProcA@CWnd@@MAEJIIJ@Z
	DD	FLAT:?PostNcDestroy@CWnd@@MAEXXZ
	DD	FLAT:?OnChildNotify@CButton@@MAEHIIJPAJ@Z
	DD	FLAT:?OnTouchInputs@CWnd@@MAEHIPAUtagTOUCHINPUT@@@Z
	DD	FLAT:?OnTouchInput@CWnd@@MAEHVCPoint@@HHPAUtagTOUCHINPUT@@@Z
	DD	FLAT:?GetGestureStatus@CWnd@@MAEKVCPoint@@@Z
	DD	FLAT:?OnGestureZoom@CWnd@@MAEHVCPoint@@J@Z
	DD	FLAT:?OnGesturePan@CWnd@@MAEHVCPoint@@0@Z
	DD	FLAT:?OnGestureRotate@CWnd@@MAEHVCPoint@@N@Z
	DD	FLAT:?OnGestureTwoFingerTap@CWnd@@MAEHVCPoint@@@Z
	DD	FLAT:?OnGesturePressAndTap@CWnd@@MAEHVCPoint@@J@Z
	DD	FLAT:?ResizeDynamicLayout@CWnd@@MAEXXZ
	DD	FLAT:?CheckAutoCenter@CWnd@@UAEHXZ
	DD	FLAT:?IsFrameWnd@CWnd@@UBEHXZ
	DD	FLAT:?CreateControlContainer@CWnd@@MAEHPAPAVCOleControlContainer@@@Z
	DD	FLAT:?CreateControlSite@CWnd@@MAEHPAVCOleControlContainer@@PAPAVCOleControlSite@@IABU_GUID@@@Z
	DD	FLAT:?SetOccDialogInfo@CWnd@@MAEHPAU_AFX_OCC_DIALOG_INFO@@@Z
	DD	FLAT:?GetOccDialogInfo@CWnd@@MAEPAU_AFX_OCC_DIALOG_INFO@@XZ
	DD	FLAT:?Create@CButton@@UAEHPBDKABUtagRECT@@PAVCWnd@@I@Z
	DD	FLAT:?DrawItem@CButton@@UAEXPAUtagDRAWITEMSTRUCT@@@Z
CONST	ENDS
;	COMDAT ?_AtlWinModule@ATL@@3VCAtlWinModule@1@A
_DATA	SEGMENT
?_AtlWinModule@ATL@@3VCAtlWinModule@1@A DD 02cH		; ATL::_AtlWinModule
	DB	24 DUP(00H)
	DD	00H
_DATA	ENDS
;	COMDAT ??_C@_02DPKJAMEF@?$CFd@
CONST	SEGMENT
??_C@_02DPKJAMEF@?$CFd@ DB '%d', 00H			; `string'
CONST	ENDS
;	COMDAT xdata$x
xdata$x	SEGMENT
__ehfuncinfo$??_Estringdispid@CComTypeInfoHolder@ATL@@QAEPAXI@Z DD 019930522H
	DD	00H
	DD	00H
	DD	2 DUP(00H)
	DD	2 DUP(00H)
	DD	00H
	DD	05H
xdata$x	ENDS
;	COMDAT xdata$x
xdata$x	SEGMENT
__unwindtable$?OnChangeEdit@CSetCycleDlg@@IAEXXZ DD 0ffffffffH
	DD	FLAT:__unwindfunclet$?OnChangeEdit@CSetCycleDlg@@IAEXXZ$0
__ehfuncinfo$?OnChangeEdit@CSetCycleDlg@@IAEXXZ DD 019930522H
	DD	01H
	DD	FLAT:__unwindtable$?OnChangeEdit@CSetCycleDlg@@IAEXXZ
	DD	2 DUP(00H)
	DD	2 DUP(00H)
	DD	00H
	DD	01H
xdata$x	ENDS
;	COMDAT xdata$x
xdata$x	SEGMENT
__unwindtable$?VerifySettingData@CSetCycleDlg@@QAEXAAVCEdit@@AAJ@Z DD 0ffffffffH
	DD	FLAT:__unwindfunclet$?VerifySettingData@CSetCycleDlg@@QAEXAAVCEdit@@AAJ@Z$0
__ehfuncinfo$?VerifySettingData@CSetCycleDlg@@QAEXAAVCEdit@@AAJ@Z DD 019930522H
	DD	01H
	DD	FLAT:__unwindtable$?VerifySettingData@CSetCycleDlg@@QAEXAAVCEdit@@AAJ@Z
	DD	2 DUP(00H)
	DD	2 DUP(00H)
	DD	00H
	DD	01H
xdata$x	ENDS
;	COMDAT xdata$x
xdata$x	SEGMENT
__ehfuncinfo$??0CSetCycleDlg@@QAE@PAVCWnd@@@Z DD 019930522H
	DD	019H
	DD	FLAT:__unwindtable$??0CSetCycleDlg@@QAE@PAVCWnd@@@Z
	DD	2 DUP(00H)
	DD	2 DUP(00H)
	DD	00H
	DD	01H
__unwindtable$??0CSetCycleDlg@@QAE@PAVCWnd@@@Z DD 0ffffffffH
	DD	FLAT:__unwindfunclet$??0CSetCycleDlg@@QAE@PAVCWnd@@@Z$0
	DD	00H
	DD	FLAT:__unwindfunclet$??0CSetCycleDlg@@QAE@PAVCWnd@@@Z$1
	DD	01H
	DD	FLAT:__unwindfunclet$??0CSetCycleDlg@@QAE@PAVCWnd@@@Z$2
	DD	02H
	DD	FLAT:__unwindfunclet$??0CSetCycleDlg@@QAE@PAVCWnd@@@Z$3
	DD	03H
	DD	FLAT:__unwindfunclet$??0CSetCycleDlg@@QAE@PAVCWnd@@@Z$4
	DD	04H
	DD	FLAT:__unwindfunclet$??0CSetCycleDlg@@QAE@PAVCWnd@@@Z$5
	DD	05H
	DD	FLAT:__unwindfunclet$??0CSetCycleDlg@@QAE@PAVCWnd@@@Z$6
	DD	06H
	DD	FLAT:__unwindfunclet$??0CSetCycleDlg@@QAE@PAVCWnd@@@Z$7
	DD	07H
	DD	FLAT:__unwindfunclet$??0CSetCycleDlg@@QAE@PAVCWnd@@@Z$8
	DD	08H
	DD	FLAT:__unwindfunclet$??0CSetCycleDlg@@QAE@PAVCWnd@@@Z$9
	DD	09H
	DD	FLAT:__unwindfunclet$??0CSetCycleDlg@@QAE@PAVCWnd@@@Z$10
	DD	0aH
	DD	FLAT:__unwindfunclet$??0CSetCycleDlg@@QAE@PAVCWnd@@@Z$11
	DD	0bH
	DD	FLAT:__unwindfunclet$??0CSetCycleDlg@@QAE@PAVCWnd@@@Z$12
	DD	0cH
	DD	FLAT:__unwindfunclet$??0CSetCycleDlg@@QAE@PAVCWnd@@@Z$13
	DD	0dH
	DD	FLAT:__unwindfunclet$??0CSetCycleDlg@@QAE@PAVCWnd@@@Z$14
	DD	0eH
	DD	FLAT:__unwindfunclet$??0CSetCycleDlg@@QAE@PAVCWnd@@@Z$15
	DD	0fH
	DD	FLAT:__unwindfunclet$??0CSetCycleDlg@@QAE@PAVCWnd@@@Z$16
	DD	010H
	DD	FLAT:__unwindfunclet$??0CSetCycleDlg@@QAE@PAVCWnd@@@Z$17
	DD	011H
	DD	FLAT:__unwindfunclet$??0CSetCycleDlg@@QAE@PAVCWnd@@@Z$18
	DD	012H
	DD	FLAT:__unwindfunclet$??0CSetCycleDlg@@QAE@PAVCWnd@@@Z$19
	DD	013H
	DD	FLAT:__unwindfunclet$??0CSetCycleDlg@@QAE@PAVCWnd@@@Z$20
	DD	014H
	DD	FLAT:__unwindfunclet$??0CSetCycleDlg@@QAE@PAVCWnd@@@Z$21
	DD	015H
	DD	FLAT:__unwindfunclet$??0CSetCycleDlg@@QAE@PAVCWnd@@@Z$22
	DD	016H
	DD	FLAT:__unwindfunclet$??0CSetCycleDlg@@QAE@PAVCWnd@@@Z$23
	DD	017H
	DD	FLAT:__unwindfunclet$??0CSetCycleDlg@@QAE@PAVCWnd@@@Z$24
xdata$x	ENDS
CRT$XCU	SEGMENT
?RMSG_REPLAY_REAL$initializer$@@3P6AXXZA DD FLAT:??__ERMSG_REPLAY_REAL@@YAXXZ ; RMSG_REPLAY_REAL$initializer$
CRT$XCU	ENDS
CRT$XCU	SEGMENT
?RMSG_REPLAY_FAIL$initializer$@@3P6AXXZA DD FLAT:??__ERMSG_REPLAY_FAIL@@YAXXZ ; RMSG_REPLAY_FAIL$initializer$
CRT$XCU	ENDS
CRT$XCU	SEGMENT
?RMSG_REPLAY_CHANGE_DATE$initializer$@@3P6AXXZA DD FLAT:??__ERMSG_REPLAY_CHANGE_DATE@@YAXXZ ; RMSG_REPLAY_CHANGE_DATE$initializer$
CRT$XCU	ENDS
CRT$XCU	SEGMENT
?RMSG_REPLAY_END$initializer$@@3P6AXXZA DD FLAT:??__ERMSG_REPLAY_END@@YAXXZ ; RMSG_REPLAY_END$initializer$
CRT$XCU	ENDS
CRT$XCU	SEGMENT
?RMSG_REPLAY_INC_SEC$initializer$@@3P6AXXZA DD FLAT:??__ERMSG_REPLAY_INC_SEC@@YAXXZ ; RMSG_REPLAY_INC_SEC$initializer$
CRT$XCU	ENDS
CRT$XCU	SEGMENT
?RMSG_REPLAY_TOTAL_SEC$initializer$@@3P6AXXZA DD FLAT:??__ERMSG_REPLAY_TOTAL_SEC@@YAXXZ ; RMSG_REPLAY_TOTAL_SEC$initializer$
CRT$XCU	ENDS
CRT$XCU	SEGMENT
?RMSG_GETSIGNAL_REAL$initializer$@@3P6AXXZA DD FLAT:??__ERMSG_GETSIGNAL_REAL@@YAXXZ ; RMSG_GETSIGNAL_REAL$initializer$
CRT$XCU	ENDS
CRT$XCU	SEGMENT
?RMSG_SETQUERYOPT$initializer$@@3P6AXXZA DD FLAT:??__ERMSG_SETQUERYOPT@@YAXXZ ; RMSG_SETQUERYOPT$initializer$
CRT$XCU	ENDS
CRT$XCU	SEGMENT
?RMSG_CHARTMAIN$initializer$@@3P6AXXZA DD FLAT:??__ERMSG_CHARTMAIN@@YAXXZ ; RMSG_CHARTMAIN$initializer$
CRT$XCU	ENDS
CRT$XCU	SEGMENT
?RMS_ANALYSIS_FUNC$initializer$@@3P6AXXZA DD FLAT:??__ERMS_ANALYSIS_FUNC@@YAXXZ ; RMS_ANALYSIS_FUNC$initializer$
CRT$XCU	ENDS
CRT$XCU	SEGMENT
?RMSG_GET_USERID$initializer$@@3P6AXXZA DD FLAT:??__ERMSG_GET_USERID@@YAXXZ ; RMSG_GET_USERID$initializer$
CRT$XCU	ENDS
CRT$XCU	SEGMENT
?RMSG_CHANGE_SKINCOLOR$initializer$@@3P6AXXZA DD FLAT:??__ERMSG_CHANGE_SKINCOLOR@@YAXXZ ; RMSG_CHANGE_SKINCOLOR$initializer$
CRT$XCU	ENDS
CRT$XCU	SEGMENT
?RMSG_GET_SKINCOLOR$initializer$@@3P6AXXZA DD FLAT:??__ERMSG_GET_SKINCOLOR@@YAXXZ ; RMSG_GET_SKINCOLOR$initializer$
CRT$XCU	ENDS
CRT$XCU	SEGMENT
?RMSG_CHANGEVERTSCALETYPE$initializer$@@3P6AXXZA DD FLAT:??__ERMSG_CHANGEVERTSCALETYPE@@YAXXZ ; RMSG_CHANGEVERTSCALETYPE$initializer$
CRT$XCU	ENDS
CRT$XCU	SEGMENT
?RMSG_CHANGE_CROSSLINE$initializer$@@3P6AXXZA DD FLAT:??__ERMSG_CHANGE_CROSSLINE@@YAXXZ ; RMSG_CHANGE_CROSSLINE$initializer$
CRT$XCU	ENDS
CRT$XCU	SEGMENT
?RMSG_ADD_PLATFORM_MENU$initializer$@@3P6AXXZA DD FLAT:??__ERMSG_ADD_PLATFORM_MENU@@YAXXZ ; RMSG_ADD_PLATFORM_MENU$initializer$
CRT$XCU	ENDS
CRT$XCU	SEGMENT
?RMSG_SETINITIALCHARTDATA$initializer$@@3P6AXXZA DD FLAT:??__ERMSG_SETINITIALCHARTDATA@@YAXXZ ; RMSG_SETINITIALCHARTDATA$initializer$
CRT$XCU	ENDS
CRT$XCU	SEGMENT
?RMSG_GETINFO$initializer$@@3P6AXXZA DD FLAT:??__ERMSG_GETINFO@@YAXXZ ; RMSG_GETINFO$initializer$
CRT$XCU	ENDS
CRT$XCU	SEGMENT
?RMSG_SETINFO$initializer$@@3P6AXXZA DD FLAT:??__ERMSG_SETINFO@@YAXXZ ; RMSG_SETINFO$initializer$
CRT$XCU	ENDS
; Function compile flags: /Ogtp
; File D:\git\src\IBK\IBK_DRFN\ProjSrc\SrcDrfn\Chart\MULTICHART\define\ChartMsgDef.h
;	COMDAT ??__ERMSG_SETINFO@@YAXXZ
text$di	SEGMENT
??__ERMSG_SETINFO@@YAXXZ PROC				; `dynamic initializer for 'RMSG_SETINFO'', COMDAT

; 238  : const UINT RMSG_SETINFO = ::RegisterWindowMessage(_T("RMSG_SETINFO"));

  00000	68 00 00 00 00	 push	 OFFSET ??_C@_0N@HABLPHJG@RMSG_SETINFO@
  00005	ff 15 00 00 00
	00		 call	 DWORD PTR __imp__RegisterWindowMessageA@4
  0000b	a3 00 00 00 00	 mov	 DWORD PTR ?RMSG_SETINFO@@3IB, eax
  00010	c3		 ret	 0
??__ERMSG_SETINFO@@YAXXZ ENDP				; `dynamic initializer for 'RMSG_SETINFO''
text$di	ENDS
; Function compile flags: /Ogtp
; File D:\git\src\IBK\IBK_DRFN\ProjSrc\SrcDrfn\Chart\MULTICHART\define\ChartMsgDef.h
;	COMDAT ??__ERMSG_GETINFO@@YAXXZ
text$di	SEGMENT
??__ERMSG_GETINFO@@YAXXZ PROC				; `dynamic initializer for 'RMSG_GETINFO'', COMDAT

; 237  : const UINT RMSG_GETINFO = ::RegisterWindowMessage(_T("RMSG_GETINFO"));

  00000	68 00 00 00 00	 push	 OFFSET ??_C@_0N@IIOKMIEH@RMSG_GETINFO@
  00005	ff 15 00 00 00
	00		 call	 DWORD PTR __imp__RegisterWindowMessageA@4
  0000b	a3 00 00 00 00	 mov	 DWORD PTR ?RMSG_GETINFO@@3IB, eax
  00010	c3		 ret	 0
??__ERMSG_GETINFO@@YAXXZ ENDP				; `dynamic initializer for 'RMSG_GETINFO''
text$di	ENDS
; Function compile flags: /Ogtp
; File D:\git\src\IBK\IBK_DRFN\ProjSrc\SrcDrfn\Chart\MULTICHART\define\ChartMsgDef.h
;	COMDAT ??__ERMSG_SETINITIALCHARTDATA@@YAXXZ
text$di	SEGMENT
??__ERMSG_SETINITIALCHARTDATA@@YAXXZ PROC		; `dynamic initializer for 'RMSG_SETINITIALCHARTDATA'', COMDAT

; 235  : const UINT RMSG_SETINITIALCHARTDATA = ::RegisterWindowMessage(_T("RMSG_SETINITIALCHARTDATA"));

  00000	68 00 00 00 00	 push	 OFFSET ??_C@_0BJ@OGNAJHHI@RMSG_SETINITIALCHARTDATA@
  00005	ff 15 00 00 00
	00		 call	 DWORD PTR __imp__RegisterWindowMessageA@4
  0000b	a3 00 00 00 00	 mov	 DWORD PTR ?RMSG_SETINITIALCHARTDATA@@3IB, eax
  00010	c3		 ret	 0
??__ERMSG_SETINITIALCHARTDATA@@YAXXZ ENDP		; `dynamic initializer for 'RMSG_SETINITIALCHARTDATA''
text$di	ENDS
; Function compile flags: /Ogtp
; File D:\git\src\IBK\IBK_DRFN\ProjSrc\SrcDrfn\Chart\MULTICHART\define\ChartMsgDef.h
;	COMDAT ??__ERMSG_ADD_PLATFORM_MENU@@YAXXZ
text$di	SEGMENT
??__ERMSG_ADD_PLATFORM_MENU@@YAXXZ PROC			; `dynamic initializer for 'RMSG_ADD_PLATFORM_MENU'', COMDAT

; 233  : const UINT RMSG_ADD_PLATFORM_MENU = ::RegisterWindowMessage(_T("RMSG_ADD_PLATFORM_MENU"));

  00000	68 00 00 00 00	 push	 OFFSET ??_C@_0BH@IFDMIMBP@RMSG_ADD_PLATFORM_MENU@
  00005	ff 15 00 00 00
	00		 call	 DWORD PTR __imp__RegisterWindowMessageA@4
  0000b	a3 00 00 00 00	 mov	 DWORD PTR ?RMSG_ADD_PLATFORM_MENU@@3IB, eax
  00010	c3		 ret	 0
??__ERMSG_ADD_PLATFORM_MENU@@YAXXZ ENDP			; `dynamic initializer for 'RMSG_ADD_PLATFORM_MENU''
text$di	ENDS
; Function compile flags: /Ogtp
; File D:\git\src\IBK\IBK_DRFN\ProjSrc\SrcDrfn\Chart\MULTICHART\define\ChartMsgDef.h
;	COMDAT ??__ERMSG_CHANGE_CROSSLINE@@YAXXZ
text$di	SEGMENT
??__ERMSG_CHANGE_CROSSLINE@@YAXXZ PROC			; `dynamic initializer for 'RMSG_CHANGE_CROSSLINE'', COMDAT

; 231  : const UINT RMSG_CHANGE_CROSSLINE = ::RegisterWindowMessage(_T("RMSG_CHANGE_CROSSLINE"));

  00000	68 00 00 00 00	 push	 OFFSET ??_C@_0BG@LNLCJKPF@RMSG_CHANGE_CROSSLINE@
  00005	ff 15 00 00 00
	00		 call	 DWORD PTR __imp__RegisterWindowMessageA@4
  0000b	a3 00 00 00 00	 mov	 DWORD PTR ?RMSG_CHANGE_CROSSLINE@@3IB, eax
  00010	c3		 ret	 0
??__ERMSG_CHANGE_CROSSLINE@@YAXXZ ENDP			; `dynamic initializer for 'RMSG_CHANGE_CROSSLINE''
text$di	ENDS
; Function compile flags: /Ogtp
; File D:\git\src\IBK\IBK_DRFN\ProjSrc\SrcDrfn\Chart\MULTICHART\define\ChartMsgDef.h
;	COMDAT ??__ERMSG_CHANGEVERTSCALETYPE@@YAXXZ
text$di	SEGMENT
??__ERMSG_CHANGEVERTSCALETYPE@@YAXXZ PROC		; `dynamic initializer for 'RMSG_CHANGEVERTSCALETYPE'', COMDAT

; 229  : const UINT RMSG_CHANGEVERTSCALETYPE = ::RegisterWindowMessage(_T("RMSG_CHANGEVERTSCALETYPE"));

  00000	68 00 00 00 00	 push	 OFFSET ??_C@_0BJ@JLKHIBIK@RMSG_CHANGEVERTSCALETYPE@
  00005	ff 15 00 00 00
	00		 call	 DWORD PTR __imp__RegisterWindowMessageA@4
  0000b	a3 00 00 00 00	 mov	 DWORD PTR ?RMSG_CHANGEVERTSCALETYPE@@3IB, eax
  00010	c3		 ret	 0
??__ERMSG_CHANGEVERTSCALETYPE@@YAXXZ ENDP		; `dynamic initializer for 'RMSG_CHANGEVERTSCALETYPE''
text$di	ENDS
; Function compile flags: /Ogtp
; File D:\git\src\IBK\IBK_DRFN\ProjSrc\SrcDrfn\Chart\MULTICHART\define\ChartMsgDef.h
;	COMDAT ??__ERMSG_GET_SKINCOLOR@@YAXXZ
text$di	SEGMENT
??__ERMSG_GET_SKINCOLOR@@YAXXZ PROC			; `dynamic initializer for 'RMSG_GET_SKINCOLOR'', COMDAT

; 226  : const UINT RMSG_GET_SKINCOLOR = ::RegisterWindowMessage(_T("RMSG_GET_SKINCOLOR"));

  00000	68 00 00 00 00	 push	 OFFSET ??_C@_0BD@FLDNDDHK@RMSG_GET_SKINCOLOR@
  00005	ff 15 00 00 00
	00		 call	 DWORD PTR __imp__RegisterWindowMessageA@4
  0000b	a3 00 00 00 00	 mov	 DWORD PTR ?RMSG_GET_SKINCOLOR@@3IB, eax
  00010	c3		 ret	 0
??__ERMSG_GET_SKINCOLOR@@YAXXZ ENDP			; `dynamic initializer for 'RMSG_GET_SKINCOLOR''
text$di	ENDS
; Function compile flags: /Ogtp
; File D:\git\src\IBK\IBK_DRFN\ProjSrc\SrcDrfn\Chart\MULTICHART\define\ChartMsgDef.h
;	COMDAT ??__ERMSG_CHANGE_SKINCOLOR@@YAXXZ
text$di	SEGMENT
??__ERMSG_CHANGE_SKINCOLOR@@YAXXZ PROC			; `dynamic initializer for 'RMSG_CHANGE_SKINCOLOR'', COMDAT

; 225  : const UINT RMSG_CHANGE_SKINCOLOR = ::RegisterWindowMessage(_T("RMSG_CHANGE_SKINCOLOR"));

  00000	68 00 00 00 00	 push	 OFFSET ??_C@_0BG@CNPAHNGG@RMSG_CHANGE_SKINCOLOR@
  00005	ff 15 00 00 00
	00		 call	 DWORD PTR __imp__RegisterWindowMessageA@4
  0000b	a3 00 00 00 00	 mov	 DWORD PTR ?RMSG_CHANGE_SKINCOLOR@@3IB, eax
  00010	c3		 ret	 0
??__ERMSG_CHANGE_SKINCOLOR@@YAXXZ ENDP			; `dynamic initializer for 'RMSG_CHANGE_SKINCOLOR''
text$di	ENDS
; Function compile flags: /Ogtp
; File D:\git\src\IBK\IBK_DRFN\ProjSrc\SrcDrfn\Chart\MULTICHART\define\ChartMsgDef.h
;	COMDAT ??__ERMSG_GET_USERID@@YAXXZ
text$di	SEGMENT
??__ERMSG_GET_USERID@@YAXXZ PROC			; `dynamic initializer for 'RMSG_GET_USERID'', COMDAT

; 215  : const UINT RMSG_GET_USERID = ::RegisterWindowMessage(_T("RMSG_GET_USERID"));	// User ID 

  00000	68 00 00 00 00	 push	 OFFSET ??_C@_0BA@HKNFENJL@RMSG_GET_USERID@
  00005	ff 15 00 00 00
	00		 call	 DWORD PTR __imp__RegisterWindowMessageA@4
  0000b	a3 00 00 00 00	 mov	 DWORD PTR ?RMSG_GET_USERID@@3IB, eax
  00010	c3		 ret	 0
??__ERMSG_GET_USERID@@YAXXZ ENDP			; `dynamic initializer for 'RMSG_GET_USERID''
text$di	ENDS
; Function compile flags: /Ogtp
; File D:\git\src\IBK\IBK_DRFN\ProjSrc\SrcDrfn\Chart\MULTICHART\define\ChartMsgDef.h
;	COMDAT ??__ERMS_ANALYSIS_FUNC@@YAXXZ
text$di	SEGMENT
??__ERMS_ANALYSIS_FUNC@@YAXXZ PROC			; `dynamic initializer for 'RMS_ANALYSIS_FUNC'', COMDAT

; 211  : const UINT RMS_ANALYSIS_FUNC	= ::RegisterWindowMessage(_T("RMS_ANALYSIS_FUNC"));

  00000	68 00 00 00 00	 push	 OFFSET ??_C@_0BC@MMPGLPDH@RMS_ANALYSIS_FUNC@
  00005	ff 15 00 00 00
	00		 call	 DWORD PTR __imp__RegisterWindowMessageA@4
  0000b	a3 00 00 00 00	 mov	 DWORD PTR ?RMS_ANALYSIS_FUNC@@3IB, eax
  00010	c3		 ret	 0
??__ERMS_ANALYSIS_FUNC@@YAXXZ ENDP			; `dynamic initializer for 'RMS_ANALYSIS_FUNC''
text$di	ENDS
; Function compile flags: /Ogtp
; File D:\git\src\IBK\IBK_DRFN\ProjSrc\SrcDrfn\Chart\MULTICHART\define\ChartMsgDef.h
;	COMDAT ??__ERMSG_CHARTMAIN@@YAXXZ
text$di	SEGMENT
??__ERMSG_CHARTMAIN@@YAXXZ PROC				; `dynamic initializer for 'RMSG_CHARTMAIN'', COMDAT

; 208  : const UINT RMSG_CHARTMAIN		= ::RegisterWindowMessage(_T("RMSG_CHARTMAIN"));

  00000	68 00 00 00 00	 push	 OFFSET ??_C@_0P@KHFCBIOH@RMSG_CHARTMAIN@
  00005	ff 15 00 00 00
	00		 call	 DWORD PTR __imp__RegisterWindowMessageA@4
  0000b	a3 00 00 00 00	 mov	 DWORD PTR ?RMSG_CHARTMAIN@@3IB, eax
  00010	c3		 ret	 0
??__ERMSG_CHARTMAIN@@YAXXZ ENDP				; `dynamic initializer for 'RMSG_CHARTMAIN''
text$di	ENDS
; Function compile flags: /Ogtp
; File D:\git\src\IBK\IBK_DRFN\ProjSrc\SrcDrfn\Chart\MULTICHART\define\ChartMsgDef.h
;	COMDAT ??__ERMSG_SETQUERYOPT@@YAXXZ
text$di	SEGMENT
??__ERMSG_SETQUERYOPT@@YAXXZ PROC			; `dynamic initializer for 'RMSG_SETQUERYOPT'', COMDAT

; 183  : const UINT RMSG_SETQUERYOPT = ::RegisterWindowMessage(_T("RMSG_SETQUERYOPT"));

  00000	68 00 00 00 00	 push	 OFFSET ??_C@_0BB@CNOFPEHG@RMSG_SETQUERYOPT@
  00005	ff 15 00 00 00
	00		 call	 DWORD PTR __imp__RegisterWindowMessageA@4
  0000b	a3 00 00 00 00	 mov	 DWORD PTR ?RMSG_SETQUERYOPT@@3IB, eax
  00010	c3		 ret	 0
??__ERMSG_SETQUERYOPT@@YAXXZ ENDP			; `dynamic initializer for 'RMSG_SETQUERYOPT''
text$di	ENDS
; Function compile flags: /Ogtp
; File D:\git\src\IBK\IBK_DRFN\ProjSrc\SrcDrfn\Chart\commontr\TRDefine.h
;	COMDAT ??__ERMSG_GETSIGNAL_REAL@@YAXXZ
text$di	SEGMENT
??__ERMSG_GETSIGNAL_REAL@@YAXXZ PROC			; `dynamic initializer for 'RMSG_GETSIGNAL_REAL'', COMDAT

; 213  : const UINT RMSG_GETSIGNAL_REAL = ::RegisterWindowMessage(_T("RMSG_GETSIGNAL_REAL"));

  00000	68 00 00 00 00	 push	 OFFSET ??_C@_0BE@FJPKENOB@RMSG_GETSIGNAL_REAL@
  00005	ff 15 00 00 00
	00		 call	 DWORD PTR __imp__RegisterWindowMessageA@4
  0000b	a3 00 00 00 00	 mov	 DWORD PTR ?RMSG_GETSIGNAL_REAL@@3IB, eax
  00010	c3		 ret	 0
??__ERMSG_GETSIGNAL_REAL@@YAXXZ ENDP			; `dynamic initializer for 'RMSG_GETSIGNAL_REAL''
text$di	ENDS
; Function compile flags: /Ogtp
; File D:\git\src\IBK\IBK_DRFN\ProjSrc\SrcDrfn\Chart\chart_common\ReplayChartInfoDef.h
;	COMDAT ??__ERMSG_REPLAY_TOTAL_SEC@@YAXXZ
text$di	SEGMENT
??__ERMSG_REPLAY_TOTAL_SEC@@YAXXZ PROC			; `dynamic initializer for 'RMSG_REPLAY_TOTAL_SEC'', COMDAT

; 97   : 	const UINT RMSG_REPLAY_TOTAL_SEC = ::RegisterWindowMessage(_T("RMSG_REPLAY_TOTAL_SEC"));		//  () 

  00000	68 00 00 00 00	 push	 OFFSET ??_C@_0BG@GIAJEIJF@RMSG_REPLAY_TOTAL_SEC@
  00005	ff 15 00 00 00
	00		 call	 DWORD PTR __imp__RegisterWindowMessageA@4
  0000b	a3 00 00 00 00	 mov	 DWORD PTR ?RMSG_REPLAY_TOTAL_SEC@@3IB, eax
  00010	c3		 ret	 0
??__ERMSG_REPLAY_TOTAL_SEC@@YAXXZ ENDP			; `dynamic initializer for 'RMSG_REPLAY_TOTAL_SEC''
text$di	ENDS
; Function compile flags: /Ogtp
; File D:\git\src\IBK\IBK_DRFN\ProjSrc\SrcDrfn\Chart\chart_common\ReplayChartInfoDef.h
;	COMDAT ??__ERMSG_REPLAY_INC_SEC@@YAXXZ
text$di	SEGMENT
??__ERMSG_REPLAY_INC_SEC@@YAXXZ PROC			; `dynamic initializer for 'RMSG_REPLAY_INC_SEC'', COMDAT

; 96   : 	const UINT RMSG_REPLAY_INC_SEC = ::RegisterWindowMessage(_T("RMSG_REPLAY_INC_SEC"));			// 1   

  00000	68 00 00 00 00	 push	 OFFSET ??_C@_0BE@JFCIMCIP@RMSG_REPLAY_INC_SEC@
  00005	ff 15 00 00 00
	00		 call	 DWORD PTR __imp__RegisterWindowMessageA@4
  0000b	a3 00 00 00 00	 mov	 DWORD PTR ?RMSG_REPLAY_INC_SEC@@3IB, eax
  00010	c3		 ret	 0
??__ERMSG_REPLAY_INC_SEC@@YAXXZ ENDP			; `dynamic initializer for 'RMSG_REPLAY_INC_SEC''
text$di	ENDS
; Function compile flags: /Ogtp
; File D:\git\src\IBK\IBK_DRFN\ProjSrc\SrcDrfn\Chart\chart_common\ReplayChartInfoDef.h
;	COMDAT ??__ERMSG_REPLAY_END@@YAXXZ
text$di	SEGMENT
??__ERMSG_REPLAY_END@@YAXXZ PROC			; `dynamic initializer for 'RMSG_REPLAY_END'', COMDAT

; 95   : 	const UINT RMSG_REPLAY_END			= ::RegisterWindowMessage(_T("RMSG_REPLAY_END"));

  00000	68 00 00 00 00	 push	 OFFSET ??_C@_0BA@NKHHCPON@RMSG_REPLAY_END@
  00005	ff 15 00 00 00
	00		 call	 DWORD PTR __imp__RegisterWindowMessageA@4
  0000b	a3 00 00 00 00	 mov	 DWORD PTR ?RMSG_REPLAY_END@@3IB, eax
  00010	c3		 ret	 0
??__ERMSG_REPLAY_END@@YAXXZ ENDP			; `dynamic initializer for 'RMSG_REPLAY_END''
text$di	ENDS
; Function compile flags: /Ogtp
; File D:\git\src\IBK\IBK_DRFN\ProjSrc\SrcDrfn\Chart\chart_common\ReplayChartInfoDef.h
;	COMDAT ??__ERMSG_REPLAY_CHANGE_DATE@@YAXXZ
text$di	SEGMENT
??__ERMSG_REPLAY_CHANGE_DATE@@YAXXZ PROC		; `dynamic initializer for 'RMSG_REPLAY_CHANGE_DATE'', COMDAT

; 94   : 	const UINT RMSG_REPLAY_CHANGE_DATE	= ::RegisterWindowMessage(_T("RMSG_REPLAY_CHANGE_DATE"));

  00000	68 00 00 00 00	 push	 OFFSET ??_C@_0BI@KDGAIIMD@RMSG_REPLAY_CHANGE_DATE@
  00005	ff 15 00 00 00
	00		 call	 DWORD PTR __imp__RegisterWindowMessageA@4
  0000b	a3 00 00 00 00	 mov	 DWORD PTR ?RMSG_REPLAY_CHANGE_DATE@@3IB, eax
  00010	c3		 ret	 0
??__ERMSG_REPLAY_CHANGE_DATE@@YAXXZ ENDP		; `dynamic initializer for 'RMSG_REPLAY_CHANGE_DATE''
text$di	ENDS
; Function compile flags: /Ogtp
; File D:\git\src\IBK\IBK_DRFN\ProjSrc\SrcDrfn\Chart\chart_common\ReplayChartInfoDef.h
;	COMDAT ??__ERMSG_REPLAY_FAIL@@YAXXZ
text$di	SEGMENT
??__ERMSG_REPLAY_FAIL@@YAXXZ PROC			; `dynamic initializer for 'RMSG_REPLAY_FAIL'', COMDAT

; 93   : 	const UINT RMSG_REPLAY_FAIL			= ::RegisterWindowMessage(_T("RMSG_REPLAY_FAIL"));

  00000	68 00 00 00 00	 push	 OFFSET ??_C@_0BB@JFLGBADG@RMSG_REPLAY_FAIL@
  00005	ff 15 00 00 00
	00		 call	 DWORD PTR __imp__RegisterWindowMessageA@4
  0000b	a3 00 00 00 00	 mov	 DWORD PTR ?RMSG_REPLAY_FAIL@@3IB, eax
  00010	c3		 ret	 0
??__ERMSG_REPLAY_FAIL@@YAXXZ ENDP			; `dynamic initializer for 'RMSG_REPLAY_FAIL''
text$di	ENDS
; Function compile flags: /Ogtp
; File D:\git\src\IBK\IBK_DRFN\ProjSrc\SrcDrfn\Chart\chart_common\ReplayChartInfoDef.h
;	COMDAT ??__ERMSG_REPLAY_REAL@@YAXXZ
text$di	SEGMENT
??__ERMSG_REPLAY_REAL@@YAXXZ PROC			; `dynamic initializer for 'RMSG_REPLAY_REAL'', COMDAT

; 92   : 	const UINT RMSG_REPLAY_REAL			= ::RegisterWindowMessage(_T("RMSG_REPLAY_REAL"));

  00000	68 00 00 00 00	 push	 OFFSET ??_C@_0BB@IBKHOHJL@RMSG_REPLAY_REAL@
  00005	ff 15 00 00 00
	00		 call	 DWORD PTR __imp__RegisterWindowMessageA@4
  0000b	a3 00 00 00 00	 mov	 DWORD PTR ?RMSG_REPLAY_REAL@@3IB, eax
  00010	c3		 ret	 0
??__ERMSG_REPLAY_REAL@@YAXXZ ENDP			; `dynamic initializer for 'RMSG_REPLAY_REAL''
text$di	ENDS
; Function compile flags: /Ogtp
; File C:\Program Files (x86)\Microsoft Visual Studio\2019\Community\VC\Tools\MSVC\14.29.30133\atlmfc\include\atlcomcli.h
;	COMDAT ??_Estringdispid@CComTypeInfoHolder@ATL@@QAEPAXI@Z
_TEXT	SEGMENT
__$EHRec$ = -12						; size = 12
___flags$ = 8						; size = 4
??_Estringdispid@CComTypeInfoHolder@ATL@@QAEPAXI@Z PROC	; ATL::CComTypeInfoHolder::stringdispid::`vector deleting destructor', COMDAT
; _this$ = ecx
  00000	55		 push	 ebp
  00001	8b ec		 mov	 ebp, esp
  00003	6a ff		 push	 -1
  00005	68 00 00 00 00	 push	 __ehhandler$??_Estringdispid@CComTypeInfoHolder@ATL@@QAEPAXI@Z
  0000a	64 a1 00 00 00
	00		 mov	 eax, DWORD PTR fs:0
  00010	50		 push	 eax
  00011	53		 push	 ebx
  00012	56		 push	 esi
  00013	57		 push	 edi
  00014	a1 00 00 00 00	 mov	 eax, DWORD PTR ___security_cookie
  00019	33 c5		 xor	 eax, ebp
  0001b	50		 push	 eax
  0001c	8d 45 f4	 lea	 eax, DWORD PTR __$EHRec$[ebp]
  0001f	64 a3 00 00 00
	00		 mov	 DWORD PTR fs:0, eax
  00025	8b f1		 mov	 esi, ecx
  00027	8b 45 08	 mov	 eax, DWORD PTR ___flags$[ebp]
  0002a	8b d8		 mov	 ebx, eax
  0002c	83 e3 01	 and	 ebx, 1
  0002f	a8 02		 test	 al, 2
  00031	74 43		 je	 SHORT $LN2@vector
  00033	68 00 00 00 00	 push	 OFFSET ??1stringdispid@CComTypeInfoHolder@ATL@@QAE@XZ
  00038	ff 76 fc	 push	 DWORD PTR [esi-4]
  0003b	8d 7e fc	 lea	 edi, DWORD PTR [esi-4]
  0003e	6a 0c		 push	 12			; 0000000cH
  00040	56		 push	 esi
  00041	e8 00 00 00 00	 call	 ??_M@YGXPAXIIP6EX0@Z@Z
  00046	85 db		 test	 ebx, ebx
  00048	74 16		 je	 SHORT $LN3@vector
  0004a	8b 0f		 mov	 ecx, DWORD PTR [edi]
  0004c	8d 0c 49	 lea	 ecx, DWORD PTR [ecx+ecx*2]
  0004f	8d 0c 8d 04 00
	00 00		 lea	 ecx, DWORD PTR [ecx*4+4]
  00056	51		 push	 ecx
  00057	57		 push	 edi
  00058	e8 00 00 00 00	 call	 ??_V@YAXPAXI@Z		; operator delete[]
  0005d	83 c4 08	 add	 esp, 8
$LN3@vector:
  00060	8b c7		 mov	 eax, edi
  00062	8b 4d f4	 mov	 ecx, DWORD PTR __$EHRec$[ebp]
  00065	64 89 0d 00 00
	00 00		 mov	 DWORD PTR fs:0, ecx
  0006c	59		 pop	 ecx
  0006d	5f		 pop	 edi
  0006e	5e		 pop	 esi
  0006f	5b		 pop	 ebx
  00070	8b e5		 mov	 esp, ebp
  00072	5d		 pop	 ebp
  00073	c2 04 00	 ret	 4
$LN2@vector:

; 1680 :     ::SysFreeString(m_str);

  00076	ff 36		 push	 DWORD PTR [esi]
  00078	ff 15 00 00 00
	00		 call	 DWORD PTR __imp__SysFreeString@4
  0007e	85 db		 test	 ebx, ebx
  00080	74 0b		 je	 SHORT $LN4@vector
  00082	6a 0c		 push	 12			; 0000000cH
  00084	56		 push	 esi
  00085	e8 00 00 00 00	 call	 ??3@YAXPAXI@Z		; operator delete
  0008a	83 c4 08	 add	 esp, 8
$LN4@vector:
  0008d	8b c6		 mov	 eax, esi
  0008f	8b 4d f4	 mov	 ecx, DWORD PTR __$EHRec$[ebp]
  00092	64 89 0d 00 00
	00 00		 mov	 DWORD PTR fs:0, ecx
  00099	59		 pop	 ecx
  0009a	5f		 pop	 edi
  0009b	5e		 pop	 esi
  0009c	5b		 pop	 ebx
  0009d	8b e5		 mov	 esp, ebp
  0009f	5d		 pop	 ebp
  000a0	c2 04 00	 ret	 4
  000a3	cc		 int	 3
  000a4	cc		 int	 3
  000a5	cc		 int	 3
  000a6	cc		 int	 3
  000a7	cc		 int	 3
_TEXT	ENDS
;	COMDAT text$x
text$x	SEGMENT
__ehhandler$??_Estringdispid@CComTypeInfoHolder@ATL@@QAEPAXI@Z:
  00000	90		 npad	 1
  00001	90		 npad	 1
  00002	8b 54 24 08	 mov	 edx, DWORD PTR [esp+8]
  00006	8d 42 0c	 lea	 eax, DWORD PTR [edx+12]
  00009	8b 4a f0	 mov	 ecx, DWORD PTR [edx-16]
  0000c	33 c8		 xor	 ecx, eax
  0000e	e8 00 00 00 00	 call	 @__security_check_cookie@4
  00013	b8 00 00 00 00	 mov	 eax, OFFSET __ehfuncinfo$??_Estringdispid@CComTypeInfoHolder@ATL@@QAEPAXI@Z
  00018	e9 00 00 00 00	 jmp	 ___CxxFrameHandler3
text$x	ENDS
??_Estringdispid@CComTypeInfoHolder@ATL@@QAEPAXI@Z ENDP	; ATL::CComTypeInfoHolder::stringdispid::`vector deleting destructor'
; Function compile flags: /Ogtp
; File C:\Program Files (x86)\Microsoft Visual Studio\2019\Community\VC\Tools\MSVC\14.29.30133\atlmfc\include\atlcomcli.h
;	COMDAT ??1stringdispid@CComTypeInfoHolder@ATL@@QAE@XZ
_TEXT	SEGMENT
??1stringdispid@CComTypeInfoHolder@ATL@@QAE@XZ PROC	; ATL::CComTypeInfoHolder::stringdispid::~stringdispid, COMDAT
; _this$ = ecx

; 1680 :     ::SysFreeString(m_str);

  00000	ff 31		 push	 DWORD PTR [ecx]
  00002	ff 15 00 00 00
	00		 call	 DWORD PTR __imp__SysFreeString@4
  00008	c3		 ret	 0
??1stringdispid@CComTypeInfoHolder@ATL@@QAE@XZ ENDP	; ATL::CComTypeInfoHolder::stringdispid::~stringdispid
_TEXT	ENDS
; Function compile flags: /Ogtp
; File C:\Program Files (x86)\Microsoft Visual Studio\2019\Community\VC\Tools\MSVC\14.29.30133\atlmfc\include\afx.inl
;	COMDAT ??_GCSetCycleDlg@@UAEPAXI@Z
_TEXT	SEGMENT
___flags$ = 8						; size = 4
??_GCSetCycleDlg@@UAEPAXI@Z PROC			; CSetCycleDlg::`scalar deleting destructor', COMDAT
; _this$ = ecx
  00000	55		 push	 ebp
  00001	8b ec		 mov	 ebp, esp
  00003	56		 push	 esi
  00004	8b f1		 mov	 esi, ecx
  00006	8d 8e a8 0c 00
	00		 lea	 ecx, DWORD PTR [esi+3240]
  0000c	e8 00 00 00 00	 call	 ??1CEdit@@UAE@XZ	; CEdit::~CEdit
  00011	8d 8e 28 0c 00
	00		 lea	 ecx, DWORD PTR [esi+3112]
  00017	e8 00 00 00 00	 call	 ??1CEdit@@UAE@XZ	; CEdit::~CEdit
  0001c	8d 8e a8 0b 00
	00		 lea	 ecx, DWORD PTR [esi+2984]
  00022	e8 00 00 00 00	 call	 ??1CEdit@@UAE@XZ	; CEdit::~CEdit
  00027	8d 8e 28 0b 00
	00		 lea	 ecx, DWORD PTR [esi+2856]
  0002d	e8 00 00 00 00	 call	 ??1CEdit@@UAE@XZ	; CEdit::~CEdit
  00032	8d 8e a8 0a 00
	00		 lea	 ecx, DWORD PTR [esi+2728]
  00038	e8 00 00 00 00	 call	 ??1CEdit@@UAE@XZ	; CEdit::~CEdit
  0003d	8d 8e 28 0a 00
	00		 lea	 ecx, DWORD PTR [esi+2600]
  00043	e8 00 00 00 00	 call	 ??1CEdit@@UAE@XZ	; CEdit::~CEdit
  00048	8d 8e a8 09 00
	00		 lea	 ecx, DWORD PTR [esi+2472]
  0004e	e8 00 00 00 00	 call	 ??1CEdit@@UAE@XZ	; CEdit::~CEdit
  00053	8d 8e 28 09 00
	00		 lea	 ecx, DWORD PTR [esi+2344]
  00059	e8 00 00 00 00	 call	 ??1CEdit@@UAE@XZ	; CEdit::~CEdit
  0005e	8d 8e a8 08 00
	00		 lea	 ecx, DWORD PTR [esi+2216]
  00064	e8 00 00 00 00	 call	 ??1CEdit@@UAE@XZ	; CEdit::~CEdit
  00069	8d 8e 28 08 00
	00		 lea	 ecx, DWORD PTR [esi+2088]
  0006f	e8 00 00 00 00	 call	 ??1CEdit@@UAE@XZ	; CEdit::~CEdit
  00074	8d 8e a8 07 00
	00		 lea	 ecx, DWORD PTR [esi+1960]
  0007a	e8 00 00 00 00	 call	 ??1CEdit@@UAE@XZ	; CEdit::~CEdit
  0007f	8d 8e 28 07 00
	00		 lea	 ecx, DWORD PTR [esi+1832]
  00085	e8 00 00 00 00	 call	 ??1CEdit@@UAE@XZ	; CEdit::~CEdit
  0008a	8d 8e a8 06 00
	00		 lea	 ecx, DWORD PTR [esi+1704]
  00090	e8 00 00 00 00	 call	 ??1CEdit@@UAE@XZ	; CEdit::~CEdit
  00095	8d 8e 28 06 00
	00		 lea	 ecx, DWORD PTR [esi+1576]
  0009b	e8 00 00 00 00	 call	 ??1CEdit@@UAE@XZ	; CEdit::~CEdit
  000a0	8d 8e a8 05 00
	00		 lea	 ecx, DWORD PTR [esi+1448]
  000a6	e8 00 00 00 00	 call	 ??1CEdit@@UAE@XZ	; CEdit::~CEdit
  000ab	8d 8e 28 05 00
	00		 lea	 ecx, DWORD PTR [esi+1320]
  000b1	e8 00 00 00 00	 call	 ??1CEdit@@UAE@XZ	; CEdit::~CEdit
  000b6	8d 8e a8 04 00
	00		 lea	 ecx, DWORD PTR [esi+1192]
  000bc	e8 00 00 00 00	 call	 ??1CEdit@@UAE@XZ	; CEdit::~CEdit
  000c1	8d 8e 28 04 00
	00		 lea	 ecx, DWORD PTR [esi+1064]
  000c7	e8 00 00 00 00	 call	 ??1CEdit@@UAE@XZ	; CEdit::~CEdit
  000cc	8d 8e a8 03 00
	00		 lea	 ecx, DWORD PTR [esi+936]
  000d2	e8 00 00 00 00	 call	 ??1CEdit@@UAE@XZ	; CEdit::~CEdit
  000d7	8d 8e 28 03 00
	00		 lea	 ecx, DWORD PTR [esi+808]
  000dd	e8 00 00 00 00	 call	 ??1CEdit@@UAE@XZ	; CEdit::~CEdit
  000e2	8d 8e a8 02 00
	00		 lea	 ecx, DWORD PTR [esi+680]
  000e8	e8 00 00 00 00	 call	 ??1CEdit@@UAE@XZ	; CEdit::~CEdit
  000ed	8d 8e 28 02 00
	00		 lea	 ecx, DWORD PTR [esi+552]
  000f3	e8 00 00 00 00	 call	 ??1CEdit@@UAE@XZ	; CEdit::~CEdit
  000f8	8d 8e a8 01 00
	00		 lea	 ecx, DWORD PTR [esi+424]
  000fe	e8 00 00 00 00	 call	 ??1CEdit@@UAE@XZ	; CEdit::~CEdit
  00103	8d 8e 28 01 00
	00		 lea	 ecx, DWORD PTR [esi+296]
  00109	e8 00 00 00 00	 call	 ??1CEdit@@UAE@XZ	; CEdit::~CEdit
  0010e	8d 8e a8 00 00
	00		 lea	 ecx, DWORD PTR [esi+168]
  00114	e8 00 00 00 00	 call	 ??1CButton@@UAE@XZ	; CButton::~CButton
  00119	8b ce		 mov	 ecx, esi
  0011b	e8 00 00 00 00	 call	 ??1CDialog@@UAE@XZ	; CDialog::~CDialog
  00120	8b 45 08	 mov	 eax, DWORD PTR ___flags$[ebp]
  00123	a8 01		 test	 al, 1
  00125	74 22		 je	 SHORT $LN15@scalar
  00127	a8 04		 test	 al, 4
  00129	75 10		 jne	 SHORT $LN3@scalar

; 112  : 	{ ::operator delete(p); }

  0012b	56		 push	 esi
  0012c	e8 00 00 00 00	 call	 ??3@YAXPAX@Z		; operator delete
  00131	83 c4 04	 add	 esp, 4
  00134	8b c6		 mov	 eax, esi
  00136	5e		 pop	 esi
  00137	5d		 pop	 ebp
  00138	c2 04 00	 ret	 4
$LN3@scalar:
  0013b	68 30 0d 00 00	 push	 3376			; 00000d30H
  00140	56		 push	 esi
  00141	e8 00 00 00 00	 call	 ?__global_delete@@YAXPAXI@Z ; __global_delete
  00146	83 c4 08	 add	 esp, 8
$LN15@scalar:
  00149	8b c6		 mov	 eax, esi
  0014b	5e		 pop	 esi
  0014c	5d		 pop	 ebp
  0014d	c2 04 00	 ret	 4
??_GCSetCycleDlg@@UAEPAXI@Z ENDP			; CSetCycleDlg::`scalar deleting destructor'
_TEXT	ENDS
; Function compile flags: /Ogtp
; File D:\git\src\IBK\IBK_DRFN\ProjSrc\SrcDrfn\Chart\MULTICHART\SetCycleDlg.cpp
;	COMDAT ?GetMessageMap@CSetCycleDlg@@MBEPBUAFX_MSGMAP@@XZ
_TEXT	SEGMENT
?GetMessageMap@CSetCycleDlg@@MBEPBUAFX_MSGMAP@@XZ PROC	; CSetCycleDlg::GetMessageMap, COMDAT
; _this$ = ecx

; 63   : BEGIN_MESSAGE_MAP(CSetCycleDlg, CRscDlg)

  00000	b8 00 00 00 00	 mov	 eax, OFFSET ?messageMap@?1??GetThisMessageMap@CSetCycleDlg@@KGPBUAFX_MSGMAP@@XZ@4U3@B
  00005	c3		 ret	 0
?GetMessageMap@CSetCycleDlg@@MBEPBUAFX_MSGMAP@@XZ ENDP	; CSetCycleDlg::GetMessageMap
_TEXT	ENDS
; Function compile flags: /Ogtp
; File D:\git\src\IBK\IBK_DRFN\ProjSrc\SrcDrfn\Chart\MULTICHART\SetCycleDlg.cpp
;	COMDAT ?GetThisMessageMap@CSetCycleDlg@@KGPBUAFX_MSGMAP@@XZ
_TEXT	SEGMENT
?GetThisMessageMap@CSetCycleDlg@@KGPBUAFX_MSGMAP@@XZ PROC ; CSetCycleDlg::GetThisMessageMap, COMDAT

; 64   : 	//{{AFX_MSG_MAP(CSetCycleDlg)
; 65   : 	ON_BN_CLICKED(IDAPPLY, OnApply)
; 66   : 	ON_EN_CHANGE(IDC_EDIT_DAYFIRST, OnChangeEdit)
; 67   : 	ON_EN_CHANGE(IDC_EDIT_DAYFOURTH, OnChangeEdit)
; 68   : 	ON_EN_CHANGE(IDC_EDIT_DAYSECOND, OnChangeEdit)
; 69   : 	ON_EN_CHANGE(IDC_EDIT_DAYTHIRD, OnChangeEdit)
; 70   : 	ON_EN_CHANGE(IDC_EDIT_DAYFIFTH, OnChangeEdit)
; 71   : 	ON_EN_CHANGE(IDC_EDIT_DAYSIXTH, OnChangeEdit)
; 72   : 
; 73   : 	ON_EN_CHANGE(IDC_EDIT_MINFIRST, OnChangeEdit)
; 74   : 	ON_EN_CHANGE(IDC_EDIT_MINFOURTH, OnChangeEdit)
; 75   : 	ON_EN_CHANGE(IDC_EDIT_MINSECOND, OnChangeEdit)
; 76   : 	ON_EN_CHANGE(IDC_EDIT_MINTHIRD, OnChangeEdit)
; 77   : 	ON_EN_CHANGE(IDC_EDIT_MINFIFTH, OnChangeEdit)
; 78   : 	ON_EN_CHANGE(IDC_EDIT_MINSIXTH, OnChangeEdit)
; 79   : 
; 80   : 	ON_EN_CHANGE(IDC_EDIT_SECFIRST, OnChangeEdit)
; 81   : 	ON_EN_CHANGE(IDC_EDIT_SECFOURTH, OnChangeEdit)
; 82   : 	ON_EN_CHANGE(IDC_EDIT_SECSECOND, OnChangeEdit)
; 83   : 	ON_EN_CHANGE(IDC_EDIT_SECTHIRD, OnChangeEdit)
; 84   : 	ON_EN_CHANGE(IDC_EDIT_SECFIFTH, OnChangeEdit)
; 85   : 	ON_EN_CHANGE(IDC_EDIT_SECSIXTH, OnChangeEdit)
; 86   : 
; 87   : 	ON_EN_CHANGE(IDC_EDIT_TICKFIRST, OnChangeEdit)
; 88   : 	ON_EN_CHANGE(IDC_EDIT_TICKFOURTH, OnChangeEdit)
; 89   : 	ON_EN_CHANGE(IDC_EDIT_TICKSECOND, OnChangeEdit)
; 90   : 	ON_EN_CHANGE(IDC_EDIT_TICKTHIRD, OnChangeEdit)
; 91   : 	ON_EN_CHANGE(IDC_EDIT_TICKFIFTH, OnChangeEdit)
; 92   : 	ON_EN_CHANGE(IDC_EDIT_TICKSIXTH, OnChangeEdit)
; 93   : 	//}}AFX_MSG_MAP
; 94   : END_MESSAGE_MAP()

  00000	b8 00 00 00 00	 mov	 eax, OFFSET ?messageMap@?1??GetThisMessageMap@CSetCycleDlg@@KGPBUAFX_MSGMAP@@XZ@4U3@B
  00005	c3		 ret	 0
?GetThisMessageMap@CSetCycleDlg@@KGPBUAFX_MSGMAP@@XZ ENDP ; CSetCycleDlg::GetThisMessageMap
_TEXT	ENDS
; Function compile flags: /Ogtp
; File D:\git\src\IBK\IBK_DRFN\ProjSrc\SrcDrfn\Chart\MULTICHART\SetCycleDlg.cpp
; File C:\Program Files (x86)\Microsoft Visual Studio\2019\Community\VC\Tools\MSVC\14.29.30133\atlmfc\include\afxwin2.inl
; File D:\git\src\IBK\IBK_DRFN\ProjSrc\SrcDrfn\Chart\MULTICHART\SetCycleDlg.cpp
;	COMDAT ?OnChangeEdit@CSetCycleDlg@@IAEXXZ
_TEXT	SEGMENT
_strData$ = -16						; size = 4
__$EHRec$ = -12						; size = 12
?OnChangeEdit@CSetCycleDlg@@IAEXXZ PROC			; CSetCycleDlg::OnChangeEdit, COMDAT
; _this$ = ecx

; 222  : {

  00000	55		 push	 ebp
  00001	8b ec		 mov	 ebp, esp
  00003	6a ff		 push	 -1
  00005	68 00 00 00 00	 push	 __ehhandler$?OnChangeEdit@CSetCycleDlg@@IAEXXZ
  0000a	64 a1 00 00 00
	00		 mov	 eax, DWORD PTR fs:0
  00010	50		 push	 eax
  00011	51		 push	 ecx
  00012	53		 push	 ebx
  00013	56		 push	 esi
  00014	57		 push	 edi
  00015	a1 00 00 00 00	 mov	 eax, DWORD PTR ___security_cookie
  0001a	33 c5		 xor	 eax, ebp
  0001c	50		 push	 eax
  0001d	8d 45 f4	 lea	 eax, DWORD PTR __$EHRec$[ebp]
  00020	64 a3 00 00 00
	00		 mov	 DWORD PTR fs:0, eax
  00026	8b d9		 mov	 ebx, ecx

; 223  : 	// TODO: If this is a RICHEDIT control, the control will not
; 224  : 	// send this notification unless you override the CRscDlg::OnInitDialog()
; 225  : 	// function and call CRichEditCtrl().SetEventMask()
; 226  : 	// with the ENM_CHANGE flag ORed into the mask.
; 227  : 	CString strData;

  00028	8d 4d f0	 lea	 ecx, DWORD PTR _strData$[ebp]
  0002b	ff 15 00 00 00
	00		 call	 DWORD PTR __imp_??0?$CStringT@DV?$StrTraitMFC_DLL@DV?$ChTraitsCRT@D@ATL@@@@@ATL@@QAE@XZ
  00031	c7 45 fc 00 00
	00 00		 mov	 DWORD PTR __$EHRec$[ebp+8], 0
; File C:\Program Files (x86)\Microsoft Visual Studio\2019\Community\VC\Tools\MSVC\14.29.30133\atlmfc\include\afxwin2.inl

; 165  : 	{ return CWnd::FromHandle(::GetFocus()); }

  00038	ff 15 00 00 00
	00		 call	 DWORD PTR __imp__GetFocus@0
  0003e	50		 push	 eax
  0003f	e8 00 00 00 00	 call	 ?FromHandle@CWnd@@SGPAV1@PAUHWND__@@@Z ; CWnd::FromHandle
; File D:\git\src\IBK\IBK_DRFN\ProjSrc\SrcDrfn\Chart\MULTICHART\SetCycleDlg.cpp

; 228  : 	CEdit * pEdit = (CEdit*)GetFocus();

  00044	8b f0		 mov	 esi, eax

; 229  : 	if (pEdit)

  00046	85 f6		 test	 esi, esi
  00048	0f 84 97 00 00
	00		 je	 $LN7@OnChangeEd

; 230  : 	{
; 231  : 		int nID = pEdit->GetDlgCtrlID();

  0004e	8b ce		 mov	 ecx, esi
  00050	e8 00 00 00 00	 call	 ?GetDlgCtrlID@CWnd@@QBEHXZ ; CWnd::GetDlgCtrlID

; 232  : 		if (nID == IDC_EDIT_SECFIRST || nID == IDC_EDIT_SECSECOND || nID == IDC_EDIT_SECTHIRD || 
; 233  : 			nID == IDC_EDIT_SECFOURTH || nID == IDC_EDIT_SECFIFTH || nID == IDC_EDIT_SECSIXTH)

  00055	3d 8c 17 00 00	 cmp	 eax, 6028		; 0000178cH
  0005a	74 23		 je	 SHORT $LN4@OnChangeEd
  0005c	3d 8f 17 00 00	 cmp	 eax, 6031		; 0000178fH
  00061	74 1c		 je	 SHORT $LN4@OnChangeEd
  00063	3d 91 18 00 00	 cmp	 eax, 6289		; 00001891H
  00068	74 15		 je	 SHORT $LN4@OnChangeEd
  0006a	3d 95 17 00 00	 cmp	 eax, 6037		; 00001795H
  0006f	74 0e		 je	 SHORT $LN4@OnChangeEd
  00071	3d 94 18 00 00	 cmp	 eax, 6292		; 00001894H
  00076	74 07		 je	 SHORT $LN4@OnChangeEd
  00078	3d 96 17 00 00	 cmp	 eax, 6038		; 00001796H
  0007d	75 66		 jne	 SHORT $LN7@OnChangeEd
$LN4@OnChangeEd:

; 234  : 		{
; 235  : 			pEdit->GetWindowText(strData);

  0007f	8d 45 f0	 lea	 eax, DWORD PTR _strData$[ebp]
  00082	8b ce		 mov	 ecx, esi
  00084	50		 push	 eax
  00085	e8 00 00 00 00	 call	 ?GetWindowTextA@CWnd@@QBEXAAV?$CStringT@DV?$StrTraitMFC_DLL@DV?$ChTraitsCRT@D@ATL@@@@@ATL@@@Z ; CWnd::GetWindowTextA

; 236  : 			int nData = atoi(strData);

  0008a	ff 75 f0	 push	 DWORD PTR _strData$[ebp]
  0008d	ff 15 00 00 00
	00		 call	 DWORD PTR __imp__atoi
  00093	8b f8		 mov	 edi, eax
  00095	83 c4 04	 add	 esp, 4

; 237  : 			if (nData > 30)

  00098	83 ff 1e	 cmp	 edi, 30			; 0000001eH
  0009b	7e 1a		 jle	 SHORT $LN5@OnChangeEd

; 238  : 			{
; 239  : 				AfxMessageBox("  30  .");

  0009d	6a 00		 push	 0
  0009f	6a 00		 push	 0
  000a1	68 00 00 00 00	 push	 OFFSET ??_C@_0CO@PIHPPGHH@?C?J?$LK?$MA?5?$LF?$KF?$MA?L?E?M?$LE?B?530?C?J?$LK?$MA?$LB?n?A?v?$LI?$LI?5?A?$LG?H?$LI@
  000a6	e8 00 00 00 00	 call	 ?AfxMessageBox@@YGHPBDII@Z ; AfxMessageBox

; 240  : 				pEdit->SetWindowText("30");

  000ab	68 00 00 00 00	 push	 OFFSET ??_C@_02PJNFELNH@30@
  000b0	8b ce		 mov	 ecx, esi
  000b2	e8 00 00 00 00	 call	 ?SetWindowTextA@CWnd@@QAEXPBD@Z ; CWnd::SetWindowTextA
$LN5@OnChangeEd:

; 241  : 			}
; 242  : 
; 243  : 			//--> 0016490: [7111]    60   
; 244  : 			if (nData > 0)

  000b7	8d 47 ff	 lea	 eax, DWORD PTR [edi-1]
  000ba	83 f8 1c	 cmp	 eax, 28			; 0000001cH
  000bd	77 26		 ja	 SHORT $LN7@OnChangeEd

; 245  : 			{
; 246  : 				int nSecData = 60%nData;

  000bf	b8 3c 00 00 00	 mov	 eax, 60			; 0000003cH
  000c4	99		 cdq
  000c5	f7 ff		 idiv	 edi

; 247  : 				if (nData < 30 && nSecData != 0)

  000c7	85 d2		 test	 edx, edx
  000c9	74 1a		 je	 SHORT $LN7@OnChangeEd

; 248  : 				{
; 249  : 					AfxMessageBox("  .");

  000cb	6a 00		 push	 0
  000cd	6a 00		 push	 0
  000cf	68 00 00 00 00	 push	 OFFSET ??_C@_0BM@JICJIPBM@?A?$LG?H?$LI?$LA?$KB?$LE?I?G?Q?5?C?J?$LK?$MA?$MA?L?5?$LO?F?$LE?U?$LE?O?$LE?Y?4@
  000d4	e8 00 00 00 00	 call	 ?AfxMessageBox@@YGHPBDII@Z ; AfxMessageBox

; 250  : 					pEdit->SetWindowText("30");

  000d9	68 00 00 00 00	 push	 OFFSET ??_C@_02PJNFELNH@30@
  000de	8b ce		 mov	 ecx, esi
  000e0	e8 00 00 00 00	 call	 ?SetWindowTextA@CWnd@@QAEXPBD@Z ; CWnd::SetWindowTextA
$LN7@OnChangeEd:

; 251  : 				}
; 252  : 			}
; 253  : 			//<--
; 254  : 		}
; 255  : 	}
; 256  : 
; 257  : 	m_btApply.EnableWindow(TRUE);

  000e5	6a 01		 push	 1
  000e7	8d 8b a8 00 00
	00		 lea	 ecx, DWORD PTR [ebx+168]
  000ed	e8 00 00 00 00	 call	 ?EnableWindow@CWnd@@QAEHH@Z ; CWnd::EnableWindow

; 258  : }

  000f2	8d 4d f0	 lea	 ecx, DWORD PTR _strData$[ebp]
  000f5	ff 15 00 00 00
	00		 call	 DWORD PTR __imp_??1?$CStringT@DV?$StrTraitMFC_DLL@DV?$ChTraitsCRT@D@ATL@@@@@ATL@@QAE@XZ
  000fb	8b 4d f4	 mov	 ecx, DWORD PTR __$EHRec$[ebp]
  000fe	64 89 0d 00 00
	00 00		 mov	 DWORD PTR fs:0, ecx
  00105	59		 pop	 ecx
  00106	5f		 pop	 edi
  00107	5e		 pop	 esi
  00108	5b		 pop	 ebx
  00109	8b e5		 mov	 esp, ebp
  0010b	5d		 pop	 ebp
  0010c	c3		 ret	 0
_TEXT	ENDS
;	COMDAT text$x
text$x	SEGMENT
__unwindfunclet$?OnChangeEdit@CSetCycleDlg@@IAEXXZ$0:
  00000	8d 4d f0	 lea	 ecx, DWORD PTR _strData$[ebp]
  00003	ff 25 00 00 00
	00		 jmp	 DWORD PTR __imp_??1?$CStringT@DV?$StrTraitMFC_DLL@DV?$ChTraitsCRT@D@ATL@@@@@ATL@@QAE@XZ
  00009	cc		 int	 3
  0000a	cc		 int	 3
  0000b	cc		 int	 3
  0000c	cc		 int	 3
  0000d	cc		 int	 3
__ehhandler$?OnChangeEdit@CSetCycleDlg@@IAEXXZ:
  0000e	90		 npad	 1
  0000f	90		 npad	 1
  00010	8b 54 24 08	 mov	 edx, DWORD PTR [esp+8]
  00014	8d 42 0c	 lea	 eax, DWORD PTR [edx+12]
  00017	8b 4a ec	 mov	 ecx, DWORD PTR [edx-20]
  0001a	33 c8		 xor	 ecx, eax
  0001c	e8 00 00 00 00	 call	 @__security_check_cookie@4
  00021	b8 00 00 00 00	 mov	 eax, OFFSET __ehfuncinfo$?OnChangeEdit@CSetCycleDlg@@IAEXXZ
  00026	e9 00 00 00 00	 jmp	 ___CxxFrameHandler3
text$x	ENDS
?OnChangeEdit@CSetCycleDlg@@IAEXXZ ENDP			; CSetCycleDlg::OnChangeEdit
; Function compile flags: /Ogtp
; File D:\git\src\IBK\IBK_DRFN\ProjSrc\SrcDrfn\Chart\MULTICHART\SetCycleDlg.cpp
;	COMDAT ?OnOK@CSetCycleDlg@@MAEXXZ
_TEXT	SEGMENT
?OnOK@CSetCycleDlg@@MAEXXZ PROC				; CSetCycleDlg::OnOK, COMDAT
; _this$ = ecx

; 216  : {

  00000	56		 push	 esi
  00001	8b f1		 mov	 esi, ecx

; 217  : 	OnApply();	

  00003	e8 00 00 00 00	 call	 ?OnApply@CSetCycleDlg@@IAEXXZ ; CSetCycleDlg::OnApply

; 218  : 	CRscDlg::OnOK();

  00008	8b ce		 mov	 ecx, esi
  0000a	5e		 pop	 esi
  0000b	e9 00 00 00 00	 jmp	 ?OnOK@CDialog@@MAEXXZ	; CDialog::OnOK
?OnOK@CSetCycleDlg@@MAEXXZ ENDP				; CSetCycleDlg::OnOK
_TEXT	ENDS
; Function compile flags: /Ogtp
; File D:\git\src\IBK\IBK_DRFN\ProjSrc\SrcDrfn\Chart\MULTICHART\SetCycleDlg.cpp
;	COMDAT ?OnApply@CSetCycleDlg@@IAEXXZ
_TEXT	SEGMENT
?OnApply@CSetCycleDlg@@IAEXXZ PROC			; CSetCycleDlg::OnApply, COMDAT
; _this$ = ecx

; 174  : {

  00000	56		 push	 esi
  00001	8b f1		 mov	 esi, ecx

; 175  : 	m_pInputBarDlg->ResetUnitValue(TRUE);

  00003	6a 01		 push	 1
  00005	8b 8e 28 0d 00
	00		 mov	 ecx, DWORD PTR [esi+3368]
  0000b	e8 00 00 00 00	 call	 ?ResetUnitValue@CInputBarDlg@@QAEXH@Z ; CInputBarDlg::ResetUnitValue

; 176  : 
; 177  : 	// 
; 178  : 	VerifySettingData(m_editSecFirst, m_pInputBarDlg->m_lValueOfSecButton[0]);

  00010	8b 86 28 0d 00
	00		 mov	 eax, DWORD PTR [esi+3368]
  00016	8b ce		 mov	 ecx, esi
  00018	05 74 2c 00 00	 add	 eax, 11380		; 00002c74H
  0001d	50		 push	 eax
  0001e	8d 86 28 07 00
	00		 lea	 eax, DWORD PTR [esi+1832]
  00024	50		 push	 eax
  00025	e8 00 00 00 00	 call	 ?VerifySettingData@CSetCycleDlg@@QAEXAAVCEdit@@AAJ@Z ; CSetCycleDlg::VerifySettingData

; 179  : 	VerifySettingData(m_editSecSecond, m_pInputBarDlg->m_lValueOfSecButton[1]);

  0002a	8b 86 28 0d 00
	00		 mov	 eax, DWORD PTR [esi+3368]
  00030	8b ce		 mov	 ecx, esi
  00032	05 78 2c 00 00	 add	 eax, 11384		; 00002c78H
  00037	50		 push	 eax
  00038	8d 86 a8 07 00
	00		 lea	 eax, DWORD PTR [esi+1960]
  0003e	50		 push	 eax
  0003f	e8 00 00 00 00	 call	 ?VerifySettingData@CSetCycleDlg@@QAEXAAVCEdit@@AAJ@Z ; CSetCycleDlg::VerifySettingData

; 180  : 	VerifySettingData(m_editSecThird, m_pInputBarDlg->m_lValueOfSecButton[2]);

  00044	8b 86 28 0d 00
	00		 mov	 eax, DWORD PTR [esi+3368]
  0004a	8b ce		 mov	 ecx, esi
  0004c	05 7c 2c 00 00	 add	 eax, 11388		; 00002c7cH
  00051	50		 push	 eax
  00052	8d 86 28 08 00
	00		 lea	 eax, DWORD PTR [esi+2088]
  00058	50		 push	 eax
  00059	e8 00 00 00 00	 call	 ?VerifySettingData@CSetCycleDlg@@QAEXAAVCEdit@@AAJ@Z ; CSetCycleDlg::VerifySettingData

; 181  : 	VerifySettingData(m_editSecFourth, m_pInputBarDlg->m_lValueOfSecButton[3]);

  0005e	8b 86 28 0d 00
	00		 mov	 eax, DWORD PTR [esi+3368]
  00064	8b ce		 mov	 ecx, esi
  00066	05 80 2c 00 00	 add	 eax, 11392		; 00002c80H
  0006b	50		 push	 eax
  0006c	8d 86 a8 08 00
	00		 lea	 eax, DWORD PTR [esi+2216]
  00072	50		 push	 eax
  00073	e8 00 00 00 00	 call	 ?VerifySettingData@CSetCycleDlg@@QAEXAAVCEdit@@AAJ@Z ; CSetCycleDlg::VerifySettingData

; 182  : 	VerifySettingData(m_editSecFifth, m_pInputBarDlg->m_lValueOfSecButton[4]);

  00078	8b 86 28 0d 00
	00		 mov	 eax, DWORD PTR [esi+3368]
  0007e	8b ce		 mov	 ecx, esi
  00080	05 84 2c 00 00	 add	 eax, 11396		; 00002c84H
  00085	50		 push	 eax
  00086	8d 86 28 09 00
	00		 lea	 eax, DWORD PTR [esi+2344]
  0008c	50		 push	 eax
  0008d	e8 00 00 00 00	 call	 ?VerifySettingData@CSetCycleDlg@@QAEXAAVCEdit@@AAJ@Z ; CSetCycleDlg::VerifySettingData

; 183  : 	VerifySettingData(m_editSecSixth, m_pInputBarDlg->m_lValueOfSecButton[5]);

  00092	8b 86 28 0d 00
	00		 mov	 eax, DWORD PTR [esi+3368]
  00098	8b ce		 mov	 ecx, esi
  0009a	05 88 2c 00 00	 add	 eax, 11400		; 00002c88H
  0009f	50		 push	 eax
  000a0	8d 86 a8 09 00
	00		 lea	 eax, DWORD PTR [esi+2472]
  000a6	50		 push	 eax
  000a7	e8 00 00 00 00	 call	 ?VerifySettingData@CSetCycleDlg@@QAEXAAVCEdit@@AAJ@Z ; CSetCycleDlg::VerifySettingData

; 184  : 
; 185  : 	// 
; 186  : 	VerifySettingData(m_editDayFirst, m_pInputBarDlg->m_lValueOfButton[0]);

  000ac	8b 86 28 0d 00
	00		 mov	 eax, DWORD PTR [esi+3368]
  000b2	8b ce		 mov	 ecx, esi
  000b4	05 44 2c 00 00	 add	 eax, 11332		; 00002c44H
  000b9	50		 push	 eax
  000ba	8d 86 28 01 00
	00		 lea	 eax, DWORD PTR [esi+296]
  000c0	50		 push	 eax
  000c1	e8 00 00 00 00	 call	 ?VerifySettingData@CSetCycleDlg@@QAEXAAVCEdit@@AAJ@Z ; CSetCycleDlg::VerifySettingData

; 187  : 	VerifySettingData(m_editDaySecond, m_pInputBarDlg->m_lValueOfButton[1]);

  000c6	8b 86 28 0d 00
	00		 mov	 eax, DWORD PTR [esi+3368]
  000cc	8b ce		 mov	 ecx, esi
  000ce	05 48 2c 00 00	 add	 eax, 11336		; 00002c48H
  000d3	50		 push	 eax
  000d4	8d 86 a8 01 00
	00		 lea	 eax, DWORD PTR [esi+424]
  000da	50		 push	 eax
  000db	e8 00 00 00 00	 call	 ?VerifySettingData@CSetCycleDlg@@QAEXAAVCEdit@@AAJ@Z ; CSetCycleDlg::VerifySettingData

; 188  : 	VerifySettingData(m_editDayThird, m_pInputBarDlg->m_lValueOfButton[2]);

  000e0	8b 86 28 0d 00
	00		 mov	 eax, DWORD PTR [esi+3368]
  000e6	8b ce		 mov	 ecx, esi
  000e8	05 4c 2c 00 00	 add	 eax, 11340		; 00002c4cH
  000ed	50		 push	 eax
  000ee	8d 86 28 02 00
	00		 lea	 eax, DWORD PTR [esi+552]
  000f4	50		 push	 eax
  000f5	e8 00 00 00 00	 call	 ?VerifySettingData@CSetCycleDlg@@QAEXAAVCEdit@@AAJ@Z ; CSetCycleDlg::VerifySettingData

; 189  : 	VerifySettingData(m_editDayFourth, m_pInputBarDlg->m_lValueOfButton[3]);

  000fa	8b 86 28 0d 00
	00		 mov	 eax, DWORD PTR [esi+3368]
  00100	8b ce		 mov	 ecx, esi
  00102	05 50 2c 00 00	 add	 eax, 11344		; 00002c50H
  00107	50		 push	 eax
  00108	8d 86 a8 02 00
	00		 lea	 eax, DWORD PTR [esi+680]
  0010e	50		 push	 eax
  0010f	e8 00 00 00 00	 call	 ?VerifySettingData@CSetCycleDlg@@QAEXAAVCEdit@@AAJ@Z ; CSetCycleDlg::VerifySettingData

; 190  : 	VerifySettingData(m_editDayFifth, m_pInputBarDlg->m_lValueOfButton[4]);

  00114	8b 86 28 0d 00
	00		 mov	 eax, DWORD PTR [esi+3368]
  0011a	8b ce		 mov	 ecx, esi
  0011c	05 54 2c 00 00	 add	 eax, 11348		; 00002c54H
  00121	50		 push	 eax
  00122	8d 86 28 03 00
	00		 lea	 eax, DWORD PTR [esi+808]
  00128	50		 push	 eax
  00129	e8 00 00 00 00	 call	 ?VerifySettingData@CSetCycleDlg@@QAEXAAVCEdit@@AAJ@Z ; CSetCycleDlg::VerifySettingData

; 191  : 	VerifySettingData(m_editDaySixth, m_pInputBarDlg->m_lValueOfButton[5]);

  0012e	8b 86 28 0d 00
	00		 mov	 eax, DWORD PTR [esi+3368]
  00134	8b ce		 mov	 ecx, esi
  00136	05 58 2c 00 00	 add	 eax, 11352		; 00002c58H
  0013b	50		 push	 eax
  0013c	8d 86 a8 03 00
	00		 lea	 eax, DWORD PTR [esi+936]
  00142	50		 push	 eax
  00143	e8 00 00 00 00	 call	 ?VerifySettingData@CSetCycleDlg@@QAEXAAVCEdit@@AAJ@Z ; CSetCycleDlg::VerifySettingData

; 192  : 
; 193  : 	// 
; 194  : 	VerifySettingData(m_editMinFirst, m_pInputBarDlg->m_lValueOfMinButton[0]);

  00148	8b 86 28 0d 00
	00		 mov	 eax, DWORD PTR [esi+3368]
  0014e	8b ce		 mov	 ecx, esi
  00150	05 5c 2c 00 00	 add	 eax, 11356		; 00002c5cH
  00155	50		 push	 eax
  00156	8d 86 28 04 00
	00		 lea	 eax, DWORD PTR [esi+1064]
  0015c	50		 push	 eax
  0015d	e8 00 00 00 00	 call	 ?VerifySettingData@CSetCycleDlg@@QAEXAAVCEdit@@AAJ@Z ; CSetCycleDlg::VerifySettingData

; 195  : 	VerifySettingData(m_editMinSecond, m_pInputBarDlg->m_lValueOfMinButton[1]);

  00162	8b 86 28 0d 00
	00		 mov	 eax, DWORD PTR [esi+3368]
  00168	8b ce		 mov	 ecx, esi
  0016a	05 60 2c 00 00	 add	 eax, 11360		; 00002c60H
  0016f	50		 push	 eax
  00170	8d 86 a8 04 00
	00		 lea	 eax, DWORD PTR [esi+1192]
  00176	50		 push	 eax
  00177	e8 00 00 00 00	 call	 ?VerifySettingData@CSetCycleDlg@@QAEXAAVCEdit@@AAJ@Z ; CSetCycleDlg::VerifySettingData

; 196  : 	VerifySettingData(m_editMinThird, m_pInputBarDlg->m_lValueOfMinButton[2]);

  0017c	8b 86 28 0d 00
	00		 mov	 eax, DWORD PTR [esi+3368]
  00182	8b ce		 mov	 ecx, esi
  00184	05 64 2c 00 00	 add	 eax, 11364		; 00002c64H
  00189	50		 push	 eax
  0018a	8d 86 28 05 00
	00		 lea	 eax, DWORD PTR [esi+1320]
  00190	50		 push	 eax
  00191	e8 00 00 00 00	 call	 ?VerifySettingData@CSetCycleDlg@@QAEXAAVCEdit@@AAJ@Z ; CSetCycleDlg::VerifySettingData

; 197  : 	VerifySettingData(m_editMinFourth, m_pInputBarDlg->m_lValueOfMinButton[3]);

  00196	8b 86 28 0d 00
	00		 mov	 eax, DWORD PTR [esi+3368]
  0019c	8b ce		 mov	 ecx, esi
  0019e	05 68 2c 00 00	 add	 eax, 11368		; 00002c68H
  001a3	50		 push	 eax
  001a4	8d 86 a8 05 00
	00		 lea	 eax, DWORD PTR [esi+1448]
  001aa	50		 push	 eax
  001ab	e8 00 00 00 00	 call	 ?VerifySettingData@CSetCycleDlg@@QAEXAAVCEdit@@AAJ@Z ; CSetCycleDlg::VerifySettingData

; 198  : 	VerifySettingData(m_editMinFifth, m_pInputBarDlg->m_lValueOfMinButton[4]);

  001b0	8b 86 28 0d 00
	00		 mov	 eax, DWORD PTR [esi+3368]
  001b6	8b ce		 mov	 ecx, esi
  001b8	05 6c 2c 00 00	 add	 eax, 11372		; 00002c6cH
  001bd	50		 push	 eax
  001be	8d 86 28 06 00
	00		 lea	 eax, DWORD PTR [esi+1576]
  001c4	50		 push	 eax
  001c5	e8 00 00 00 00	 call	 ?VerifySettingData@CSetCycleDlg@@QAEXAAVCEdit@@AAJ@Z ; CSetCycleDlg::VerifySettingData

; 199  : 	VerifySettingData(m_editMinSixth, m_pInputBarDlg->m_lValueOfMinButton[5]);

  001ca	8b 86 28 0d 00
	00		 mov	 eax, DWORD PTR [esi+3368]
  001d0	8b ce		 mov	 ecx, esi
  001d2	05 70 2c 00 00	 add	 eax, 11376		; 00002c70H
  001d7	50		 push	 eax
  001d8	8d 86 a8 06 00
	00		 lea	 eax, DWORD PTR [esi+1704]
  001de	50		 push	 eax
  001df	e8 00 00 00 00	 call	 ?VerifySettingData@CSetCycleDlg@@QAEXAAVCEdit@@AAJ@Z ; CSetCycleDlg::VerifySettingData

; 200  : 
; 201  : 	// 
; 202  : 	VerifySettingData(m_editTickFirst, m_pInputBarDlg->m_lValueOfTickButton[0]);

  001e4	8b 86 28 0d 00
	00		 mov	 eax, DWORD PTR [esi+3368]
  001ea	8b ce		 mov	 ecx, esi
  001ec	05 8c 2c 00 00	 add	 eax, 11404		; 00002c8cH
  001f1	50		 push	 eax
  001f2	8d 86 28 0a 00
	00		 lea	 eax, DWORD PTR [esi+2600]
  001f8	50		 push	 eax
  001f9	e8 00 00 00 00	 call	 ?VerifySettingData@CSetCycleDlg@@QAEXAAVCEdit@@AAJ@Z ; CSetCycleDlg::VerifySettingData

; 203  : 	VerifySettingData(m_editTickSecond, m_pInputBarDlg->m_lValueOfTickButton[1]);

  001fe	8b 86 28 0d 00
	00		 mov	 eax, DWORD PTR [esi+3368]
  00204	8b ce		 mov	 ecx, esi
  00206	05 90 2c 00 00	 add	 eax, 11408		; 00002c90H
  0020b	50		 push	 eax
  0020c	8d 86 a8 0a 00
	00		 lea	 eax, DWORD PTR [esi+2728]
  00212	50		 push	 eax
  00213	e8 00 00 00 00	 call	 ?VerifySettingData@CSetCycleDlg@@QAEXAAVCEdit@@AAJ@Z ; CSetCycleDlg::VerifySettingData

; 204  : 	VerifySettingData(m_editTickThird, m_pInputBarDlg->m_lValueOfTickButton[2]);

  00218	8b 86 28 0d 00
	00		 mov	 eax, DWORD PTR [esi+3368]
  0021e	8b ce		 mov	 ecx, esi
  00220	05 94 2c 00 00	 add	 eax, 11412		; 00002c94H
  00225	50		 push	 eax
  00226	8d 86 28 0b 00
	00		 lea	 eax, DWORD PTR [esi+2856]
  0022c	50		 push	 eax
  0022d	e8 00 00 00 00	 call	 ?VerifySettingData@CSetCycleDlg@@QAEXAAVCEdit@@AAJ@Z ; CSetCycleDlg::VerifySettingData

; 205  : 	VerifySettingData(m_editTickFourth, m_pInputBarDlg->m_lValueOfTickButton[3]);

  00232	8b 86 28 0d 00
	00		 mov	 eax, DWORD PTR [esi+3368]
  00238	8b ce		 mov	 ecx, esi
  0023a	05 98 2c 00 00	 add	 eax, 11416		; 00002c98H
  0023f	50		 push	 eax
  00240	8d 86 a8 0b 00
	00		 lea	 eax, DWORD PTR [esi+2984]
  00246	50		 push	 eax
  00247	e8 00 00 00 00	 call	 ?VerifySettingData@CSetCycleDlg@@QAEXAAVCEdit@@AAJ@Z ; CSetCycleDlg::VerifySettingData

; 206  : 	VerifySettingData(m_editTickFifth, m_pInputBarDlg->m_lValueOfTickButton[4]);

  0024c	8b 86 28 0d 00
	00		 mov	 eax, DWORD PTR [esi+3368]
  00252	05 9c 2c 00 00	 add	 eax, 11420		; 00002c9cH
  00257	50		 push	 eax
  00258	8d 86 28 0c 00
	00		 lea	 eax, DWORD PTR [esi+3112]
  0025e	8b ce		 mov	 ecx, esi
  00260	50		 push	 eax
  00261	e8 00 00 00 00	 call	 ?VerifySettingData@CSetCycleDlg@@QAEXAAVCEdit@@AAJ@Z ; CSetCycleDlg::VerifySettingData

; 207  : 	VerifySettingData(m_editTickSixth, m_pInputBarDlg->m_lValueOfTickButton[5]);

  00266	8b 86 28 0d 00
	00		 mov	 eax, DWORD PTR [esi+3368]
  0026c	8b ce		 mov	 ecx, esi
  0026e	05 a0 2c 00 00	 add	 eax, 11424		; 00002ca0H
  00273	50		 push	 eax
  00274	8d 86 a8 0c 00
	00		 lea	 eax, DWORD PTR [esi+3240]
  0027a	50		 push	 eax
  0027b	e8 00 00 00 00	 call	 ?VerifySettingData@CSetCycleDlg@@QAEXAAVCEdit@@AAJ@Z ; CSetCycleDlg::VerifySettingData

; 208  : 
; 209  : 	m_pInputBarDlg->UpdateBtNCbValue();

  00280	8b 8e 28 0d 00
	00		 mov	 ecx, DWORD PTR [esi+3368]
  00286	e8 00 00 00 00	 call	 ?UpdateBtNCbValue@CInputBarDlg@@QAEXXZ ; CInputBarDlg::UpdateBtNCbValue

; 210  : 	m_pInputBarDlg->SaveValue();

  0028b	8b 8e 28 0d 00
	00		 mov	 ecx, DWORD PTR [esi+3368]
  00291	e8 00 00 00 00	 call	 ?SaveValue@CInputBarDlg@@QAEXXZ ; CInputBarDlg::SaveValue

; 211  : 	m_pInputBarDlg->ResetUnitValue(FALSE);

  00296	8b 8e 28 0d 00
	00		 mov	 ecx, DWORD PTR [esi+3368]
  0029c	6a 00		 push	 0
  0029e	e8 00 00 00 00	 call	 ?ResetUnitValue@CInputBarDlg@@QAEXH@Z ; CInputBarDlg::ResetUnitValue

; 212  : 	m_btApply.EnableWindow(FALSE);	

  002a3	6a 00		 push	 0
  002a5	8d 8e a8 00 00
	00		 lea	 ecx, DWORD PTR [esi+168]
  002ab	e8 00 00 00 00	 call	 ?EnableWindow@CWnd@@QAEHH@Z ; CWnd::EnableWindow
  002b0	5e		 pop	 esi

; 213  : }

  002b1	c3		 ret	 0
?OnApply@CSetCycleDlg@@IAEXXZ ENDP			; CSetCycleDlg::OnApply
_TEXT	ENDS
; Function compile flags: /Ogtp
; File D:\git\src\IBK\IBK_DRFN\ProjSrc\SrcDrfn\Chart\MULTICHART\SetCycleDlg.cpp
;	COMDAT ?OnInitDialog@CSetCycleDlg@@MAEHXZ
_TEXT	SEGMENT
_szTemp$ = -68						; size = 64
__$ArrayPad$ = -4					; size = 4
?OnInitDialog@CSetCycleDlg@@MAEHXZ PROC			; CSetCycleDlg::OnInitDialog, COMDAT
; _this$ = ecx

; 100  : {

  00000	55		 push	 ebp
  00001	8b ec		 mov	 ebp, esp
  00003	83 ec 44	 sub	 esp, 68			; 00000044H
  00006	a1 00 00 00 00	 mov	 eax, DWORD PTR ___security_cookie
  0000b	33 c5		 xor	 eax, ebp
  0000d	89 45 fc	 mov	 DWORD PTR __$ArrayPad$[ebp], eax
  00010	53		 push	 ebx
  00011	56		 push	 esi
  00012	57		 push	 edi
  00013	8b f1		 mov	 esi, ecx

; 101  : 	CRscDlg::OnInitDialog();

  00015	e8 00 00 00 00	 call	 ?OnInitDialog@CDialog@@UAEHXZ ; CDialog::OnInitDialog

; 102  : 	
; 103  : 	char szTemp[64];
; 104  : 	// 
; 105  : 	sprintf(szTemp,"%d",m_pInputBarDlg->m_lValueOfButton[0]);

  0001a	8b 86 28 0d 00
	00		 mov	 eax, DWORD PTR [esi+3368]
  00020	ff b0 44 2c 00
	00		 push	 DWORD PTR [eax+11332]
  00026	8d 45 bc	 lea	 eax, DWORD PTR _szTemp$[ebp]
  00029	68 00 00 00 00	 push	 OFFSET ??_C@_02DPKJAMEF@?$CFd@
  0002e	50		 push	 eax
  0002f	e8 00 00 00 00	 call	 _sprintf
  00034	83 c4 0c	 add	 esp, 12			; 0000000cH

; 106  : 	m_editDayFirst.SetWindowText(szTemp);

  00037	8d 45 bc	 lea	 eax, DWORD PTR _szTemp$[ebp]
  0003a	8d 8e 28 01 00
	00		 lea	 ecx, DWORD PTR [esi+296]
  00040	50		 push	 eax
  00041	e8 00 00 00 00	 call	 ?SetWindowTextA@CWnd@@QAEXPBD@Z ; CWnd::SetWindowTextA

; 107  : 	sprintf(szTemp,"%d",m_pInputBarDlg->m_lValueOfButton[1]);

  00046	8b 86 28 0d 00
	00		 mov	 eax, DWORD PTR [esi+3368]
  0004c	ff b0 48 2c 00
	00		 push	 DWORD PTR [eax+11336]
  00052	8d 45 bc	 lea	 eax, DWORD PTR _szTemp$[ebp]
  00055	68 00 00 00 00	 push	 OFFSET ??_C@_02DPKJAMEF@?$CFd@
  0005a	50		 push	 eax
  0005b	e8 00 00 00 00	 call	 _sprintf
  00060	83 c4 0c	 add	 esp, 12			; 0000000cH

; 108  : 	m_editDaySecond.SetWindowText(szTemp);	

  00063	8d 45 bc	 lea	 eax, DWORD PTR _szTemp$[ebp]
  00066	8d 8e a8 01 00
	00		 lea	 ecx, DWORD PTR [esi+424]
  0006c	50		 push	 eax
  0006d	e8 00 00 00 00	 call	 ?SetWindowTextA@CWnd@@QAEXPBD@Z ; CWnd::SetWindowTextA

; 109  : 	sprintf(szTemp,"%d",m_pInputBarDlg->m_lValueOfButton[2]);

  00072	8b 86 28 0d 00
	00		 mov	 eax, DWORD PTR [esi+3368]
  00078	ff b0 4c 2c 00
	00		 push	 DWORD PTR [eax+11340]
  0007e	8d 45 bc	 lea	 eax, DWORD PTR _szTemp$[ebp]
  00081	68 00 00 00 00	 push	 OFFSET ??_C@_02DPKJAMEF@?$CFd@
  00086	50		 push	 eax
  00087	e8 00 00 00 00	 call	 _sprintf
  0008c	83 c4 0c	 add	 esp, 12			; 0000000cH

; 110  : 	m_editDayThird.SetWindowText(szTemp);	

  0008f	8d 45 bc	 lea	 eax, DWORD PTR _szTemp$[ebp]
  00092	8d 8e 28 02 00
	00		 lea	 ecx, DWORD PTR [esi+552]
  00098	50		 push	 eax
  00099	e8 00 00 00 00	 call	 ?SetWindowTextA@CWnd@@QAEXPBD@Z ; CWnd::SetWindowTextA

; 111  : 	sprintf(szTemp,"%d",m_pInputBarDlg->m_lValueOfButton[3]);

  0009e	8b 86 28 0d 00
	00		 mov	 eax, DWORD PTR [esi+3368]
  000a4	ff b0 50 2c 00
	00		 push	 DWORD PTR [eax+11344]
  000aa	8d 45 bc	 lea	 eax, DWORD PTR _szTemp$[ebp]
  000ad	68 00 00 00 00	 push	 OFFSET ??_C@_02DPKJAMEF@?$CFd@
  000b2	50		 push	 eax
  000b3	e8 00 00 00 00	 call	 _sprintf
  000b8	83 c4 0c	 add	 esp, 12			; 0000000cH

; 112  : 	m_editDayFourth.SetWindowText(szTemp);	

  000bb	8d 45 bc	 lea	 eax, DWORD PTR _szTemp$[ebp]
  000be	8d 8e a8 02 00
	00		 lea	 ecx, DWORD PTR [esi+680]
  000c4	50		 push	 eax
  000c5	e8 00 00 00 00	 call	 ?SetWindowTextA@CWnd@@QAEXPBD@Z ; CWnd::SetWindowTextA

; 113  : 	sprintf(szTemp,"%d",m_pInputBarDlg->m_lValueOfButton[4]);

  000ca	8b 86 28 0d 00
	00		 mov	 eax, DWORD PTR [esi+3368]
  000d0	ff b0 54 2c 00
	00		 push	 DWORD PTR [eax+11348]
  000d6	8d 45 bc	 lea	 eax, DWORD PTR _szTemp$[ebp]
  000d9	68 00 00 00 00	 push	 OFFSET ??_C@_02DPKJAMEF@?$CFd@
  000de	50		 push	 eax
  000df	e8 00 00 00 00	 call	 _sprintf
  000e4	83 c4 0c	 add	 esp, 12			; 0000000cH

; 114  : 	m_editDayFifth.SetWindowText(szTemp);	

  000e7	8d 45 bc	 lea	 eax, DWORD PTR _szTemp$[ebp]
  000ea	8d 8e 28 03 00
	00		 lea	 ecx, DWORD PTR [esi+808]
  000f0	50		 push	 eax
  000f1	e8 00 00 00 00	 call	 ?SetWindowTextA@CWnd@@QAEXPBD@Z ; CWnd::SetWindowTextA

; 115  : 	sprintf(szTemp,"%d",m_pInputBarDlg->m_lValueOfButton[5]);

  000f6	8b 86 28 0d 00
	00		 mov	 eax, DWORD PTR [esi+3368]
  000fc	ff b0 58 2c 00
	00		 push	 DWORD PTR [eax+11352]
  00102	8d 45 bc	 lea	 eax, DWORD PTR _szTemp$[ebp]
  00105	68 00 00 00 00	 push	 OFFSET ??_C@_02DPKJAMEF@?$CFd@
  0010a	50		 push	 eax
  0010b	e8 00 00 00 00	 call	 _sprintf
  00110	83 c4 0c	 add	 esp, 12			; 0000000cH

; 116  : 	m_editDaySixth.SetWindowText(szTemp);	

  00113	8d 45 bc	 lea	 eax, DWORD PTR _szTemp$[ebp]
  00116	8d 8e a8 03 00
	00		 lea	 ecx, DWORD PTR [esi+936]
  0011c	50		 push	 eax
  0011d	e8 00 00 00 00	 call	 ?SetWindowTextA@CWnd@@QAEXPBD@Z ; CWnd::SetWindowTextA

; 117  : 
; 118  : 	// 
; 119  : 	sprintf(szTemp,"%d",m_pInputBarDlg->m_lValueOfMinButton[0]);

  00122	8b 86 28 0d 00
	00		 mov	 eax, DWORD PTR [esi+3368]
  00128	ff b0 5c 2c 00
	00		 push	 DWORD PTR [eax+11356]
  0012e	8d 45 bc	 lea	 eax, DWORD PTR _szTemp$[ebp]
  00131	68 00 00 00 00	 push	 OFFSET ??_C@_02DPKJAMEF@?$CFd@
  00136	50		 push	 eax
  00137	e8 00 00 00 00	 call	 _sprintf
  0013c	83 c4 0c	 add	 esp, 12			; 0000000cH

; 120  : 	m_editMinFirst.SetWindowText(szTemp);	//

  0013f	8d 45 bc	 lea	 eax, DWORD PTR _szTemp$[ebp]
  00142	8d 8e 28 04 00
	00		 lea	 ecx, DWORD PTR [esi+1064]
  00148	50		 push	 eax
  00149	e8 00 00 00 00	 call	 ?SetWindowTextA@CWnd@@QAEXPBD@Z ; CWnd::SetWindowTextA

; 121  : 	sprintf(szTemp,"%d",m_pInputBarDlg->m_lValueOfMinButton[1]);

  0014e	8b 86 28 0d 00
	00		 mov	 eax, DWORD PTR [esi+3368]
  00154	ff b0 60 2c 00
	00		 push	 DWORD PTR [eax+11360]
  0015a	8d 45 bc	 lea	 eax, DWORD PTR _szTemp$[ebp]
  0015d	68 00 00 00 00	 push	 OFFSET ??_C@_02DPKJAMEF@?$CFd@
  00162	50		 push	 eax
  00163	e8 00 00 00 00	 call	 _sprintf
  00168	83 c4 0c	 add	 esp, 12			; 0000000cH

; 122  : 	m_editMinSecond.SetWindowText(szTemp);	

  0016b	8d 45 bc	 lea	 eax, DWORD PTR _szTemp$[ebp]
  0016e	8d 8e a8 04 00
	00		 lea	 ecx, DWORD PTR [esi+1192]
  00174	50		 push	 eax
  00175	e8 00 00 00 00	 call	 ?SetWindowTextA@CWnd@@QAEXPBD@Z ; CWnd::SetWindowTextA

; 123  : 	sprintf(szTemp,"%d",m_pInputBarDlg->m_lValueOfMinButton[2]);

  0017a	8b 86 28 0d 00
	00		 mov	 eax, DWORD PTR [esi+3368]
  00180	ff b0 64 2c 00
	00		 push	 DWORD PTR [eax+11364]
  00186	8d 45 bc	 lea	 eax, DWORD PTR _szTemp$[ebp]
  00189	68 00 00 00 00	 push	 OFFSET ??_C@_02DPKJAMEF@?$CFd@
  0018e	50		 push	 eax
  0018f	e8 00 00 00 00	 call	 _sprintf
  00194	83 c4 0c	 add	 esp, 12			; 0000000cH

; 124  : 	m_editMinThird.SetWindowText(szTemp);	

  00197	8d 45 bc	 lea	 eax, DWORD PTR _szTemp$[ebp]
  0019a	8d 8e 28 05 00
	00		 lea	 ecx, DWORD PTR [esi+1320]
  001a0	50		 push	 eax
  001a1	e8 00 00 00 00	 call	 ?SetWindowTextA@CWnd@@QAEXPBD@Z ; CWnd::SetWindowTextA

; 125  : 	sprintf(szTemp,"%d",m_pInputBarDlg->m_lValueOfMinButton[3]);

  001a6	8b 86 28 0d 00
	00		 mov	 eax, DWORD PTR [esi+3368]
  001ac	ff b0 68 2c 00
	00		 push	 DWORD PTR [eax+11368]
  001b2	8d 45 bc	 lea	 eax, DWORD PTR _szTemp$[ebp]
  001b5	68 00 00 00 00	 push	 OFFSET ??_C@_02DPKJAMEF@?$CFd@
  001ba	50		 push	 eax
  001bb	e8 00 00 00 00	 call	 _sprintf
  001c0	83 c4 0c	 add	 esp, 12			; 0000000cH

; 126  : 	m_editMinFourth.SetWindowText(szTemp);	

  001c3	8d 45 bc	 lea	 eax, DWORD PTR _szTemp$[ebp]
  001c6	8d 8e a8 05 00
	00		 lea	 ecx, DWORD PTR [esi+1448]
  001cc	50		 push	 eax
  001cd	e8 00 00 00 00	 call	 ?SetWindowTextA@CWnd@@QAEXPBD@Z ; CWnd::SetWindowTextA

; 127  : 	sprintf(szTemp,"%d",m_pInputBarDlg->m_lValueOfMinButton[4]);

  001d2	8b 86 28 0d 00
	00		 mov	 eax, DWORD PTR [esi+3368]
  001d8	ff b0 6c 2c 00
	00		 push	 DWORD PTR [eax+11372]
  001de	8d 45 bc	 lea	 eax, DWORD PTR _szTemp$[ebp]
  001e1	68 00 00 00 00	 push	 OFFSET ??_C@_02DPKJAMEF@?$CFd@
  001e6	50		 push	 eax
  001e7	e8 00 00 00 00	 call	 _sprintf
  001ec	83 c4 0c	 add	 esp, 12			; 0000000cH

; 128  : 	m_editMinFifth.SetWindowText(szTemp);	

  001ef	8d 45 bc	 lea	 eax, DWORD PTR _szTemp$[ebp]
  001f2	8d 8e 28 06 00
	00		 lea	 ecx, DWORD PTR [esi+1576]
  001f8	50		 push	 eax
  001f9	e8 00 00 00 00	 call	 ?SetWindowTextA@CWnd@@QAEXPBD@Z ; CWnd::SetWindowTextA

; 129  : 	sprintf(szTemp,"%d",m_pInputBarDlg->m_lValueOfMinButton[5]);

  001fe	8b 86 28 0d 00
	00		 mov	 eax, DWORD PTR [esi+3368]
  00204	ff b0 70 2c 00
	00		 push	 DWORD PTR [eax+11376]
  0020a	8d 45 bc	 lea	 eax, DWORD PTR _szTemp$[ebp]
  0020d	68 00 00 00 00	 push	 OFFSET ??_C@_02DPKJAMEF@?$CFd@
  00212	50		 push	 eax
  00213	e8 00 00 00 00	 call	 _sprintf
  00218	83 c4 0c	 add	 esp, 12			; 0000000cH

; 130  : 	m_editMinSixth.SetWindowText(szTemp);	

  0021b	8d 45 bc	 lea	 eax, DWORD PTR _szTemp$[ebp]
  0021e	8d 8e a8 06 00
	00		 lea	 ecx, DWORD PTR [esi+1704]
  00224	50		 push	 eax
  00225	e8 00 00 00 00	 call	 ?SetWindowTextA@CWnd@@QAEXPBD@Z ; CWnd::SetWindowTextA

; 131  : 
; 132  : 	// 
; 133  : 	sprintf(szTemp,"%d",m_pInputBarDlg->m_lValueOfSecButton[0]);

  0022a	8b 86 28 0d 00
	00		 mov	 eax, DWORD PTR [esi+3368]
  00230	ff b0 74 2c 00
	00		 push	 DWORD PTR [eax+11380]
  00236	8d 45 bc	 lea	 eax, DWORD PTR _szTemp$[ebp]
  00239	68 00 00 00 00	 push	 OFFSET ??_C@_02DPKJAMEF@?$CFd@
  0023e	50		 push	 eax
  0023f	e8 00 00 00 00	 call	 _sprintf
  00244	83 c4 0c	 add	 esp, 12			; 0000000cH

; 134  : 	m_editSecFirst.SetWindowText(szTemp);

  00247	8d 45 bc	 lea	 eax, DWORD PTR _szTemp$[ebp]
  0024a	8d 8e 28 07 00
	00		 lea	 ecx, DWORD PTR [esi+1832]
  00250	50		 push	 eax
  00251	e8 00 00 00 00	 call	 ?SetWindowTextA@CWnd@@QAEXPBD@Z ; CWnd::SetWindowTextA

; 135  : 	sprintf(szTemp,"%d",m_pInputBarDlg->m_lValueOfSecButton[1]);

  00256	8b 86 28 0d 00
	00		 mov	 eax, DWORD PTR [esi+3368]
  0025c	ff b0 78 2c 00
	00		 push	 DWORD PTR [eax+11384]
  00262	8d 45 bc	 lea	 eax, DWORD PTR _szTemp$[ebp]
  00265	68 00 00 00 00	 push	 OFFSET ??_C@_02DPKJAMEF@?$CFd@
  0026a	50		 push	 eax
  0026b	e8 00 00 00 00	 call	 _sprintf
  00270	83 c4 0c	 add	 esp, 12			; 0000000cH

; 136  : 	m_editSecSecond.SetWindowText(szTemp);	

  00273	8d 45 bc	 lea	 eax, DWORD PTR _szTemp$[ebp]
  00276	8d 8e a8 07 00
	00		 lea	 ecx, DWORD PTR [esi+1960]
  0027c	50		 push	 eax
  0027d	e8 00 00 00 00	 call	 ?SetWindowTextA@CWnd@@QAEXPBD@Z ; CWnd::SetWindowTextA

; 137  : 	sprintf(szTemp,"%d",m_pInputBarDlg->m_lValueOfSecButton[2]);

  00282	8b 86 28 0d 00
	00		 mov	 eax, DWORD PTR [esi+3368]
  00288	ff b0 7c 2c 00
	00		 push	 DWORD PTR [eax+11388]
  0028e	68 00 00 00 00	 push	 OFFSET ??_C@_02DPKJAMEF@?$CFd@
  00293	8d 45 bc	 lea	 eax, DWORD PTR _szTemp$[ebp]
  00296	50		 push	 eax
  00297	e8 00 00 00 00	 call	 _sprintf
  0029c	83 c4 0c	 add	 esp, 12			; 0000000cH

; 138  : 	m_editSecThird.SetWindowText(szTemp);	

  0029f	8d 45 bc	 lea	 eax, DWORD PTR _szTemp$[ebp]
  002a2	8d 8e 28 08 00
	00		 lea	 ecx, DWORD PTR [esi+2088]
  002a8	50		 push	 eax
  002a9	e8 00 00 00 00	 call	 ?SetWindowTextA@CWnd@@QAEXPBD@Z ; CWnd::SetWindowTextA

; 139  : 	sprintf(szTemp,"%d",m_pInputBarDlg->m_lValueOfSecButton[3]);

  002ae	8b 86 28 0d 00
	00		 mov	 eax, DWORD PTR [esi+3368]
  002b4	ff b0 80 2c 00
	00		 push	 DWORD PTR [eax+11392]
  002ba	8d 45 bc	 lea	 eax, DWORD PTR _szTemp$[ebp]
  002bd	68 00 00 00 00	 push	 OFFSET ??_C@_02DPKJAMEF@?$CFd@
  002c2	50		 push	 eax
  002c3	e8 00 00 00 00	 call	 _sprintf
  002c8	83 c4 0c	 add	 esp, 12			; 0000000cH

; 140  : 	m_editSecFourth.SetWindowText(szTemp);	

  002cb	8d 45 bc	 lea	 eax, DWORD PTR _szTemp$[ebp]
  002ce	8d 8e a8 08 00
	00		 lea	 ecx, DWORD PTR [esi+2216]
  002d4	50		 push	 eax
  002d5	e8 00 00 00 00	 call	 ?SetWindowTextA@CWnd@@QAEXPBD@Z ; CWnd::SetWindowTextA

; 141  : 	sprintf(szTemp,"%d",m_pInputBarDlg->m_lValueOfSecButton[4]);

  002da	8b 86 28 0d 00
	00		 mov	 eax, DWORD PTR [esi+3368]
  002e0	ff b0 84 2c 00
	00		 push	 DWORD PTR [eax+11396]
  002e6	8d 45 bc	 lea	 eax, DWORD PTR _szTemp$[ebp]
  002e9	68 00 00 00 00	 push	 OFFSET ??_C@_02DPKJAMEF@?$CFd@
  002ee	50		 push	 eax
  002ef	e8 00 00 00 00	 call	 _sprintf
  002f4	83 c4 0c	 add	 esp, 12			; 0000000cH

; 142  : 	m_editSecFifth.SetWindowText(szTemp);	

  002f7	8d 45 bc	 lea	 eax, DWORD PTR _szTemp$[ebp]
  002fa	8d 8e 28 09 00
	00		 lea	 ecx, DWORD PTR [esi+2344]
  00300	50		 push	 eax
  00301	e8 00 00 00 00	 call	 ?SetWindowTextA@CWnd@@QAEXPBD@Z ; CWnd::SetWindowTextA

; 143  : 	sprintf(szTemp,"%d",m_pInputBarDlg->m_lValueOfSecButton[5]);

  00306	8b 86 28 0d 00
	00		 mov	 eax, DWORD PTR [esi+3368]
  0030c	ff b0 88 2c 00
	00		 push	 DWORD PTR [eax+11400]
  00312	8d 45 bc	 lea	 eax, DWORD PTR _szTemp$[ebp]
  00315	68 00 00 00 00	 push	 OFFSET ??_C@_02DPKJAMEF@?$CFd@
  0031a	50		 push	 eax
  0031b	e8 00 00 00 00	 call	 _sprintf
  00320	83 c4 0c	 add	 esp, 12			; 0000000cH

; 144  : 	m_editSecSixth.SetWindowText(szTemp);	

  00323	8d 45 bc	 lea	 eax, DWORD PTR _szTemp$[ebp]
  00326	8d 8e a8 09 00
	00		 lea	 ecx, DWORD PTR [esi+2472]
  0032c	50		 push	 eax
  0032d	e8 00 00 00 00	 call	 ?SetWindowTextA@CWnd@@QAEXPBD@Z ; CWnd::SetWindowTextA

; 145  : 
; 146  : 	// 
; 147  : 	sprintf(szTemp,"%d",m_pInputBarDlg->m_lValueOfTickButton[0]);

  00332	8b 86 28 0d 00
	00		 mov	 eax, DWORD PTR [esi+3368]
  00338	ff b0 8c 2c 00
	00		 push	 DWORD PTR [eax+11404]
  0033e	8d 45 bc	 lea	 eax, DWORD PTR _szTemp$[ebp]
  00341	68 00 00 00 00	 push	 OFFSET ??_C@_02DPKJAMEF@?$CFd@
  00346	50		 push	 eax
  00347	e8 00 00 00 00	 call	 _sprintf
  0034c	83 c4 0c	 add	 esp, 12			; 0000000cH

; 148  : 	m_editTickFirst.SetWindowText(szTemp);

  0034f	8d 45 bc	 lea	 eax, DWORD PTR _szTemp$[ebp]
  00352	8d 8e 28 0a 00
	00		 lea	 ecx, DWORD PTR [esi+2600]
  00358	50		 push	 eax
  00359	e8 00 00 00 00	 call	 ?SetWindowTextA@CWnd@@QAEXPBD@Z ; CWnd::SetWindowTextA

; 149  : 	sprintf(szTemp,"%d",m_pInputBarDlg->m_lValueOfTickButton[1]);

  0035e	8b 86 28 0d 00
	00		 mov	 eax, DWORD PTR [esi+3368]
  00364	ff b0 90 2c 00
	00		 push	 DWORD PTR [eax+11408]
  0036a	8d 45 bc	 lea	 eax, DWORD PTR _szTemp$[ebp]
  0036d	68 00 00 00 00	 push	 OFFSET ??_C@_02DPKJAMEF@?$CFd@
  00372	50		 push	 eax
  00373	e8 00 00 00 00	 call	 _sprintf
  00378	83 c4 0c	 add	 esp, 12			; 0000000cH

; 150  : 	m_editTickSecond.SetWindowText(szTemp);	

  0037b	8d 45 bc	 lea	 eax, DWORD PTR _szTemp$[ebp]
  0037e	8d 8e a8 0a 00
	00		 lea	 ecx, DWORD PTR [esi+2728]
  00384	50		 push	 eax
  00385	e8 00 00 00 00	 call	 ?SetWindowTextA@CWnd@@QAEXPBD@Z ; CWnd::SetWindowTextA

; 151  : 	sprintf(szTemp,"%d",m_pInputBarDlg->m_lValueOfTickButton[2]);

  0038a	8b 86 28 0d 00
	00		 mov	 eax, DWORD PTR [esi+3368]
  00390	ff b0 94 2c 00
	00		 push	 DWORD PTR [eax+11412]
  00396	8d 45 bc	 lea	 eax, DWORD PTR _szTemp$[ebp]
  00399	68 00 00 00 00	 push	 OFFSET ??_C@_02DPKJAMEF@?$CFd@
  0039e	50		 push	 eax
  0039f	e8 00 00 00 00	 call	 _sprintf
  003a4	83 c4 0c	 add	 esp, 12			; 0000000cH

; 152  : 	m_editTickThird.SetWindowText(szTemp);	

  003a7	8d 4d bc	 lea	 ecx, DWORD PTR _szTemp$[ebp]
  003aa	51		 push	 ecx
  003ab	8d 8e 28 0b 00
	00		 lea	 ecx, DWORD PTR [esi+2856]
  003b1	e8 00 00 00 00	 call	 ?SetWindowTextA@CWnd@@QAEXPBD@Z ; CWnd::SetWindowTextA

; 153  : 	sprintf(szTemp,"%d",m_pInputBarDlg->m_lValueOfTickButton[3]);

  003b6	8b 86 28 0d 00
	00		 mov	 eax, DWORD PTR [esi+3368]
  003bc	ff b0 98 2c 00
	00		 push	 DWORD PTR [eax+11416]
  003c2	8d 45 bc	 lea	 eax, DWORD PTR _szTemp$[ebp]
  003c5	68 00 00 00 00	 push	 OFFSET ??_C@_02DPKJAMEF@?$CFd@
  003ca	50		 push	 eax
  003cb	e8 00 00 00 00	 call	 _sprintf
  003d0	83 c4 0c	 add	 esp, 12			; 0000000cH

; 154  : 	m_editTickFourth.SetWindowText(szTemp);	

  003d3	8d 4d bc	 lea	 ecx, DWORD PTR _szTemp$[ebp]
  003d6	51		 push	 ecx
  003d7	8d 8e a8 0b 00
	00		 lea	 ecx, DWORD PTR [esi+2984]
  003dd	e8 00 00 00 00	 call	 ?SetWindowTextA@CWnd@@QAEXPBD@Z ; CWnd::SetWindowTextA

; 155  : 	sprintf(szTemp,"%d",m_pInputBarDlg->m_lValueOfTickButton[4]);

  003e2	8b 86 28 0d 00
	00		 mov	 eax, DWORD PTR [esi+3368]
  003e8	ff b0 9c 2c 00
	00		 push	 DWORD PTR [eax+11420]
  003ee	8d 45 bc	 lea	 eax, DWORD PTR _szTemp$[ebp]
  003f1	68 00 00 00 00	 push	 OFFSET ??_C@_02DPKJAMEF@?$CFd@
  003f6	50		 push	 eax
  003f7	e8 00 00 00 00	 call	 _sprintf
  003fc	83 c4 0c	 add	 esp, 12			; 0000000cH

; 156  : 	m_editTickFifth.SetWindowText(szTemp);	

  003ff	8d 4d bc	 lea	 ecx, DWORD PTR _szTemp$[ebp]
  00402	51		 push	 ecx
  00403	8d 8e 28 0c 00
	00		 lea	 ecx, DWORD PTR [esi+3112]
  00409	e8 00 00 00 00	 call	 ?SetWindowTextA@CWnd@@QAEXPBD@Z ; CWnd::SetWindowTextA

; 157  : 	sprintf(szTemp,"%d",m_pInputBarDlg->m_lValueOfTickButton[5]);

  0040e	8b 86 28 0d 00
	00		 mov	 eax, DWORD PTR [esi+3368]
  00414	ff b0 a0 2c 00
	00		 push	 DWORD PTR [eax+11424]
  0041a	8d 45 bc	 lea	 eax, DWORD PTR _szTemp$[ebp]
  0041d	68 00 00 00 00	 push	 OFFSET ??_C@_02DPKJAMEF@?$CFd@
  00422	50		 push	 eax
  00423	e8 00 00 00 00	 call	 _sprintf
  00428	83 c4 0c	 add	 esp, 12			; 0000000cH

; 158  : 	m_editTickSixth.SetWindowText(szTemp);	

  0042b	8d 4d bc	 lea	 ecx, DWORD PTR _szTemp$[ebp]
  0042e	51		 push	 ecx
  0042f	8d 8e a8 0c 00
	00		 lea	 ecx, DWORD PTR [esi+3240]
  00435	e8 00 00 00 00	 call	 ?SetWindowTextA@CWnd@@QAEXPBD@Z ; CWnd::SetWindowTextA

; 159  : 	
; 160  : 	if(m_pInputBarDlg->m_nMarketType == CMasterTypeInfo::FOREIGN_CHART)

  0043a	8b 86 28 0d 00
	00		 mov	 eax, DWORD PTR [esi+3368]
  00440	83 b8 20 01 00
	00 04		 cmp	 DWORD PTR [eax+288], 4
  00447	75 4e		 jne	 SHORT $LN4@OnInitDial

; 161  : 	{
; 162  : 		m_editTickFirst.EnableWindow(FALSE);

  00449	6a 00		 push	 0
  0044b	8d 8e 28 0a 00
	00		 lea	 ecx, DWORD PTR [esi+2600]
  00451	e8 00 00 00 00	 call	 ?EnableWindow@CWnd@@QAEHH@Z ; CWnd::EnableWindow

; 163  : 		m_editTickSecond.EnableWindow(FALSE);	

  00456	6a 00		 push	 0
  00458	8d 8e a8 0a 00
	00		 lea	 ecx, DWORD PTR [esi+2728]
  0045e	e8 00 00 00 00	 call	 ?EnableWindow@CWnd@@QAEHH@Z ; CWnd::EnableWindow

; 164  : 		m_editTickThird.EnableWindow(FALSE);	

  00463	6a 00		 push	 0
  00465	8d 8e 28 0b 00
	00		 lea	 ecx, DWORD PTR [esi+2856]
  0046b	e8 00 00 00 00	 call	 ?EnableWindow@CWnd@@QAEHH@Z ; CWnd::EnableWindow

; 165  : 		m_editTickFourth.EnableWindow(FALSE);	

  00470	6a 00		 push	 0
  00472	8d 8e a8 0b 00
	00		 lea	 ecx, DWORD PTR [esi+2984]
  00478	e8 00 00 00 00	 call	 ?EnableWindow@CWnd@@QAEHH@Z ; CWnd::EnableWindow

; 166  : 		m_editTickFifth.EnableWindow(FALSE);	

  0047d	6a 00		 push	 0
  0047f	8d 8e 28 0c 00
	00		 lea	 ecx, DWORD PTR [esi+3112]
  00485	e8 00 00 00 00	 call	 ?EnableWindow@CWnd@@QAEHH@Z ; CWnd::EnableWindow

; 167  : 		m_editTickSixth.EnableWindow(FALSE);	

  0048a	6a 00		 push	 0
  0048c	8d 8e a8 0c 00
	00		 lea	 ecx, DWORD PTR [esi+3240]
  00492	e8 00 00 00 00	 call	 ?EnableWindow@CWnd@@QAEHH@Z ; CWnd::EnableWindow
$LN4@OnInitDial:

; 168  : 	}
; 169  : 	return TRUE;  // return TRUE unless you set the focus to a control
; 170  : 	              // EXCEPTION: OCX Property Pages should return FALSE
; 171  : }

  00497	8b 4d fc	 mov	 ecx, DWORD PTR __$ArrayPad$[ebp]
  0049a	b8 01 00 00 00	 mov	 eax, 1
  0049f	5f		 pop	 edi
  004a0	5e		 pop	 esi
  004a1	33 cd		 xor	 ecx, ebp
  004a3	5b		 pop	 ebx
  004a4	e8 00 00 00 00	 call	 @__security_check_cookie@4
  004a9	8b e5		 mov	 esp, ebp
  004ab	5d		 pop	 ebp
  004ac	c3		 ret	 0
?OnInitDialog@CSetCycleDlg@@MAEHXZ ENDP			; CSetCycleDlg::OnInitDialog
_TEXT	ENDS
; Function compile flags: /Ogtp
; File D:\git\src\IBK\IBK_DRFN\ProjSrc\SrcDrfn\Chart\MULTICHART\SetCycleDlg.cpp
;	COMDAT ?DoDataExchange@CSetCycleDlg@@MAEXPAVCDataExchange@@@Z
_TEXT	SEGMENT
_pDX$ = 8						; size = 4
?DoDataExchange@CSetCycleDlg@@MAEXPAVCDataExchange@@@Z PROC ; CSetCycleDlg::DoDataExchange, COMDAT
; _this$ = ecx

; 28   : {

  00000	55		 push	 ebp
  00001	8b ec		 mov	 ebp, esp
  00003	56		 push	 esi
  00004	57		 push	 edi

; 29   : 	CRscDlg::DoDataExchange(pDX);

  00005	8b 7d 08	 mov	 edi, DWORD PTR _pDX$[ebp]
  00008	8b f1		 mov	 esi, ecx
  0000a	57		 push	 edi
  0000b	e8 00 00 00 00	 call	 ?DoDataExchange@CRscDlg@@MAEXPAVCDataExchange@@@Z ; CRscDlg::DoDataExchange

; 30   : 	//{{AFX_DATA_MAP(CSetCycleDlg)
; 31   : 	DDX_Control(pDX, IDAPPLY, m_btApply);

  00010	8d 86 a8 00 00
	00		 lea	 eax, DWORD PTR [esi+168]
  00016	50		 push	 eax
  00017	6a 03		 push	 3
  00019	57		 push	 edi
  0001a	e8 00 00 00 00	 call	 ?DDX_Control@@YGXPAVCDataExchange@@HAAVCWnd@@@Z ; DDX_Control

; 32   : 	DDX_Control(pDX, IDC_EDIT_DAYFIRST, m_editDayFirst);

  0001f	8d 86 28 01 00
	00		 lea	 eax, DWORD PTR [esi+296]
  00025	50		 push	 eax
  00026	68 81 18 00 00	 push	 6273			; 00001881H
  0002b	57		 push	 edi
  0002c	e8 00 00 00 00	 call	 ?DDX_Control@@YGXPAVCDataExchange@@HAAVCWnd@@@Z ; DDX_Control

; 33   : 	DDX_Control(pDX, IDC_EDIT_DAYSECOND, m_editDaySecond);

  00031	8d 86 a8 01 00
	00		 lea	 eax, DWORD PTR [esi+424]
  00037	50		 push	 eax
  00038	68 82 18 00 00	 push	 6274			; 00001882H
  0003d	57		 push	 edi
  0003e	e8 00 00 00 00	 call	 ?DDX_Control@@YGXPAVCDataExchange@@HAAVCWnd@@@Z ; DDX_Control

; 34   : 	DDX_Control(pDX, IDC_EDIT_DAYTHIRD, m_editDayThird);

  00043	8d 86 28 02 00
	00		 lea	 eax, DWORD PTR [esi+552]
  00049	50		 push	 eax
  0004a	68 83 18 00 00	 push	 6275			; 00001883H
  0004f	57		 push	 edi
  00050	e8 00 00 00 00	 call	 ?DDX_Control@@YGXPAVCDataExchange@@HAAVCWnd@@@Z ; DDX_Control

; 35   : 	DDX_Control(pDX, IDC_EDIT_DAYFOURTH, m_editDayFourth);

  00055	8d 86 a8 02 00
	00		 lea	 eax, DWORD PTR [esi+680]
  0005b	50		 push	 eax
  0005c	68 84 18 00 00	 push	 6276			; 00001884H
  00061	57		 push	 edi
  00062	e8 00 00 00 00	 call	 ?DDX_Control@@YGXPAVCDataExchange@@HAAVCWnd@@@Z ; DDX_Control

; 36   : 	DDX_Control(pDX, IDC_EDIT_DAYFIFTH, m_editDayFifth);

  00067	8d 86 28 03 00
	00		 lea	 eax, DWORD PTR [esi+808]
  0006d	50		 push	 eax
  0006e	68 8f 18 00 00	 push	 6287			; 0000188fH
  00073	57		 push	 edi
  00074	e8 00 00 00 00	 call	 ?DDX_Control@@YGXPAVCDataExchange@@HAAVCWnd@@@Z ; DDX_Control

; 37   : 	DDX_Control(pDX, IDC_EDIT_DAYSIXTH, m_editDaySixth);

  00079	8d 86 a8 03 00
	00		 lea	 eax, DWORD PTR [esi+936]
  0007f	50		 push	 eax
  00080	68 90 18 00 00	 push	 6288			; 00001890H
  00085	57		 push	 edi
  00086	e8 00 00 00 00	 call	 ?DDX_Control@@YGXPAVCDataExchange@@HAAVCWnd@@@Z ; DDX_Control

; 38   : 
; 39   : 	DDX_Control(pDX, IDC_EDIT_MINFIRST, m_editMinFirst);

  0008b	8d 86 28 04 00
	00		 lea	 eax, DWORD PTR [esi+1064]
  00091	50		 push	 eax
  00092	68 85 18 00 00	 push	 6277			; 00001885H
  00097	57		 push	 edi
  00098	e8 00 00 00 00	 call	 ?DDX_Control@@YGXPAVCDataExchange@@HAAVCWnd@@@Z ; DDX_Control

; 40   : 	DDX_Control(pDX, IDC_EDIT_MINSECOND, m_editMinSecond);

  0009d	8d 86 a8 04 00
	00		 lea	 eax, DWORD PTR [esi+1192]
  000a3	50		 push	 eax
  000a4	68 86 18 00 00	 push	 6278			; 00001886H
  000a9	57		 push	 edi
  000aa	e8 00 00 00 00	 call	 ?DDX_Control@@YGXPAVCDataExchange@@HAAVCWnd@@@Z ; DDX_Control

; 41   : 	DDX_Control(pDX, IDC_EDIT_MINTHIRD, m_editMinThird);

  000af	8d 86 28 05 00
	00		 lea	 eax, DWORD PTR [esi+1320]
  000b5	50		 push	 eax
  000b6	68 87 18 00 00	 push	 6279			; 00001887H
  000bb	57		 push	 edi
  000bc	e8 00 00 00 00	 call	 ?DDX_Control@@YGXPAVCDataExchange@@HAAVCWnd@@@Z ; DDX_Control

; 42   : 	DDX_Control(pDX, IDC_EDIT_MINFOURTH, m_editMinFourth);

  000c1	8d 86 a8 05 00
	00		 lea	 eax, DWORD PTR [esi+1448]
  000c7	50		 push	 eax
  000c8	68 88 18 00 00	 push	 6280			; 00001888H
  000cd	57		 push	 edi
  000ce	e8 00 00 00 00	 call	 ?DDX_Control@@YGXPAVCDataExchange@@HAAVCWnd@@@Z ; DDX_Control

; 43   : 	DDX_Control(pDX, IDC_EDIT_MINFIFTH, m_editMinFifth);

  000d3	8d 86 28 06 00
	00		 lea	 eax, DWORD PTR [esi+1576]
  000d9	50		 push	 eax
  000da	68 92 18 00 00	 push	 6290			; 00001892H
  000df	57		 push	 edi
  000e0	e8 00 00 00 00	 call	 ?DDX_Control@@YGXPAVCDataExchange@@HAAVCWnd@@@Z ; DDX_Control

; 44   : 	DDX_Control(pDX, IDC_EDIT_MINSIXTH, m_editMinSixth);

  000e5	8d 86 a8 06 00
	00		 lea	 eax, DWORD PTR [esi+1704]
  000eb	50		 push	 eax
  000ec	68 93 18 00 00	 push	 6291			; 00001893H
  000f1	57		 push	 edi
  000f2	e8 00 00 00 00	 call	 ?DDX_Control@@YGXPAVCDataExchange@@HAAVCWnd@@@Z ; DDX_Control

; 45   : 	
; 46   : 	DDX_Control(pDX, IDC_EDIT_SECFIRST, m_editSecFirst);

  000f7	8d 86 28 07 00
	00		 lea	 eax, DWORD PTR [esi+1832]
  000fd	50		 push	 eax
  000fe	68 8c 17 00 00	 push	 6028			; 0000178cH
  00103	57		 push	 edi
  00104	e8 00 00 00 00	 call	 ?DDX_Control@@YGXPAVCDataExchange@@HAAVCWnd@@@Z ; DDX_Control

; 47   : 	DDX_Control(pDX, IDC_EDIT_SECSECOND, m_editSecSecond);

  00109	8d 86 a8 07 00
	00		 lea	 eax, DWORD PTR [esi+1960]
  0010f	50		 push	 eax
  00110	68 8f 17 00 00	 push	 6031			; 0000178fH
  00115	57		 push	 edi
  00116	e8 00 00 00 00	 call	 ?DDX_Control@@YGXPAVCDataExchange@@HAAVCWnd@@@Z ; DDX_Control

; 48   : 	DDX_Control(pDX, IDC_EDIT_SECTHIRD, m_editSecThird);

  0011b	8d 86 28 08 00
	00		 lea	 eax, DWORD PTR [esi+2088]
  00121	50		 push	 eax
  00122	68 91 18 00 00	 push	 6289			; 00001891H
  00127	57		 push	 edi
  00128	e8 00 00 00 00	 call	 ?DDX_Control@@YGXPAVCDataExchange@@HAAVCWnd@@@Z ; DDX_Control

; 49   : 	DDX_Control(pDX, IDC_EDIT_SECFOURTH, m_editSecFourth);

  0012d	8d 86 a8 08 00
	00		 lea	 eax, DWORD PTR [esi+2216]
  00133	50		 push	 eax
  00134	68 95 17 00 00	 push	 6037			; 00001795H
  00139	57		 push	 edi
  0013a	e8 00 00 00 00	 call	 ?DDX_Control@@YGXPAVCDataExchange@@HAAVCWnd@@@Z ; DDX_Control

; 50   : 	DDX_Control(pDX, IDC_EDIT_SECFIFTH, m_editSecFifth);

  0013f	8d 86 28 09 00
	00		 lea	 eax, DWORD PTR [esi+2344]
  00145	50		 push	 eax
  00146	68 94 18 00 00	 push	 6292			; 00001894H
  0014b	57		 push	 edi
  0014c	e8 00 00 00 00	 call	 ?DDX_Control@@YGXPAVCDataExchange@@HAAVCWnd@@@Z ; DDX_Control

; 51   : 	DDX_Control(pDX, IDC_EDIT_SECSIXTH, m_editSecSixth);

  00151	8d 86 a8 09 00
	00		 lea	 eax, DWORD PTR [esi+2472]
  00157	50		 push	 eax
  00158	68 96 17 00 00	 push	 6038			; 00001796H
  0015d	57		 push	 edi
  0015e	e8 00 00 00 00	 call	 ?DDX_Control@@YGXPAVCDataExchange@@HAAVCWnd@@@Z ; DDX_Control

; 52   : 
; 53   : 	DDX_Control(pDX, IDC_EDIT_TICKFIRST, m_editTickFirst);

  00163	8d 86 28 0a 00
	00		 lea	 eax, DWORD PTR [esi+2600]
  00169	50		 push	 eax
  0016a	68 89 18 00 00	 push	 6281			; 00001889H
  0016f	57		 push	 edi
  00170	e8 00 00 00 00	 call	 ?DDX_Control@@YGXPAVCDataExchange@@HAAVCWnd@@@Z ; DDX_Control

; 54   : 	DDX_Control(pDX, IDC_EDIT_TICKSECOND, m_editTickSecond);

  00175	8d 86 a8 0a 00
	00		 lea	 eax, DWORD PTR [esi+2728]
  0017b	50		 push	 eax
  0017c	68 8a 18 00 00	 push	 6282			; 0000188aH
  00181	57		 push	 edi
  00182	e8 00 00 00 00	 call	 ?DDX_Control@@YGXPAVCDataExchange@@HAAVCWnd@@@Z ; DDX_Control

; 55   : 	DDX_Control(pDX, IDC_EDIT_TICKTHIRD, m_editTickThird);

  00187	8d 86 28 0b 00
	00		 lea	 eax, DWORD PTR [esi+2856]
  0018d	50		 push	 eax
  0018e	68 8b 18 00 00	 push	 6283			; 0000188bH
  00193	57		 push	 edi
  00194	e8 00 00 00 00	 call	 ?DDX_Control@@YGXPAVCDataExchange@@HAAVCWnd@@@Z ; DDX_Control

; 56   : 	DDX_Control(pDX, IDC_EDIT_TICKFOURTH, m_editTickFourth);

  00199	8d 86 a8 0b 00
	00		 lea	 eax, DWORD PTR [esi+2984]
  0019f	50		 push	 eax
  001a0	68 8c 18 00 00	 push	 6284			; 0000188cH
  001a5	57		 push	 edi
  001a6	e8 00 00 00 00	 call	 ?DDX_Control@@YGXPAVCDataExchange@@HAAVCWnd@@@Z ; DDX_Control

; 57   : 	DDX_Control(pDX, IDC_EDIT_TICKFIFTH, m_editTickFifth);

  001ab	8d 86 28 0c 00
	00		 lea	 eax, DWORD PTR [esi+3112]
  001b1	50		 push	 eax
  001b2	68 8d 18 00 00	 push	 6285			; 0000188dH
  001b7	57		 push	 edi
  001b8	e8 00 00 00 00	 call	 ?DDX_Control@@YGXPAVCDataExchange@@HAAVCWnd@@@Z ; DDX_Control

; 58   : 	DDX_Control(pDX, IDC_EDIT_TICKSIXTH, m_editTickSixth);

  001bd	8d 86 a8 0c 00
	00		 lea	 eax, DWORD PTR [esi+3240]
  001c3	50		 push	 eax
  001c4	68 8e 18 00 00	 push	 6286			; 0000188eH
  001c9	57		 push	 edi
  001ca	e8 00 00 00 00	 call	 ?DDX_Control@@YGXPAVCDataExchange@@HAAVCWnd@@@Z ; DDX_Control
  001cf	5f		 pop	 edi
  001d0	5e		 pop	 esi

; 59   : 	//}}AFX_DATA_MAP
; 60   : }

  001d1	5d		 pop	 ebp
  001d2	c2 04 00	 ret	 4
?DoDataExchange@CSetCycleDlg@@MAEXPAVCDataExchange@@@Z ENDP ; CSetCycleDlg::DoDataExchange
_TEXT	ENDS
; Function compile flags: /Ogtp
; File D:\git\src\IBK\IBK_DRFN\ProjSrc\SrcDrfn\Chart\MULTICHART\SetCycleDlg.cpp
;	COMDAT ?VerifySettingData@CSetCycleDlg@@QAEXAAVCEdit@@AAJ@Z
_TEXT	SEGMENT
_strOutput$ = -16					; size = 4
__$EHRec$ = -12						; size = 12
_ctrlEdit$ = 8						; size = 4
_lData$ = 12						; size = 4
?VerifySettingData@CSetCycleDlg@@QAEXAAVCEdit@@AAJ@Z PROC ; CSetCycleDlg::VerifySettingData, COMDAT
; _this$ = ecx

; 275  : {

  00000	55		 push	 ebp
  00001	8b ec		 mov	 ebp, esp
  00003	6a ff		 push	 -1
  00005	68 00 00 00 00	 push	 __ehhandler$?VerifySettingData@CSetCycleDlg@@QAEXAAVCEdit@@AAJ@Z
  0000a	64 a1 00 00 00
	00		 mov	 eax, DWORD PTR fs:0
  00010	50		 push	 eax
  00011	51		 push	 ecx
  00012	a1 00 00 00 00	 mov	 eax, DWORD PTR ___security_cookie
  00017	33 c5		 xor	 eax, ebp
  00019	50		 push	 eax
  0001a	8d 45 f4	 lea	 eax, DWORD PTR __$EHRec$[ebp]
  0001d	64 a3 00 00 00
	00		 mov	 DWORD PTR fs:0, eax

; 276  : 	CString strOutput;

  00023	8d 4d f0	 lea	 ecx, DWORD PTR _strOutput$[ebp]
  00026	ff 15 00 00 00
	00		 call	 DWORD PTR __imp_??0?$CStringT@DV?$StrTraitMFC_DLL@DV?$ChTraitsCRT@D@ATL@@@@@ATL@@QAE@XZ

; 277  : 
; 278  : 	ctrlEdit.GetWindowText(strOutput);

  0002c	8b 4d 08	 mov	 ecx, DWORD PTR _ctrlEdit$[ebp]
  0002f	8d 45 f0	 lea	 eax, DWORD PTR _strOutput$[ebp]
  00032	50		 push	 eax
  00033	c7 45 fc 00 00
	00 00		 mov	 DWORD PTR __$EHRec$[ebp+8], 0
  0003a	e8 00 00 00 00	 call	 ?GetWindowTextA@CWnd@@QBEXAAV?$CStringT@DV?$StrTraitMFC_DLL@DV?$ChTraitsCRT@D@ATL@@@@@ATL@@@Z ; CWnd::GetWindowTextA

; 262  : 	LONG lData = atol(strData);

  0003f	ff 75 f0	 push	 DWORD PTR _strOutput$[ebp]
  00042	ff 15 00 00 00
	00		 call	 DWORD PTR __imp__atol
  00048	83 c4 04	 add	 esp, 4

; 263  : 	if(lData <= 0)

  0004b	85 c0		 test	 eax, eax
  0004d	7f 07		 jg	 SHORT $LN6@VerifySett

; 264  : 		lData = 1;

  0004f	b8 01 00 00 00	 mov	 eax, 1
  00054	eb 0c		 jmp	 SHORT $LN9@VerifySett
$LN6@VerifySett:

; 265  : 	else if(lData > 360)//KHD :  360 

  00056	3d 68 01 00 00	 cmp	 eax, 360		; 00000168H
  0005b	7e 23		 jle	 SHORT $LN2@VerifySett

; 266  : 		lData = 360;

  0005d	b8 68 01 00 00	 mov	 eax, 360		; 00000168H
$LN9@VerifySett:

; 267  : 	else 
; 268  : 		return TRUE;
; 269  : 
; 270  : 	strData.Format("%ld", lData);

  00062	50		 push	 eax
  00063	8d 45 f0	 lea	 eax, DWORD PTR _strOutput$[ebp]
  00066	68 00 00 00 00	 push	 OFFSET ??_C@_03JALODAI@?$CFld@
  0006b	50		 push	 eax
  0006c	ff 15 00 00 00
	00		 call	 DWORD PTR __imp_?Format@?$CStringT@DV?$StrTraitMFC_DLL@DV?$ChTraitsCRT@D@ATL@@@@@ATL@@QAAXPBDZZ

; 279  : 	if(!VerifySettingData(strOutput))
; 280  : 		ctrlEdit.SetWindowText(strOutput);

  00072	8b 4d 08	 mov	 ecx, DWORD PTR _ctrlEdit$[ebp]

; 270  : 	strData.Format("%ld", lData);

  00075	83 c4 0c	 add	 esp, 12			; 0000000cH

; 279  : 	if(!VerifySettingData(strOutput))
; 280  : 		ctrlEdit.SetWindowText(strOutput);

  00078	ff 75 f0	 push	 DWORD PTR _strOutput$[ebp]
  0007b	e8 00 00 00 00	 call	 ?SetWindowTextA@CWnd@@QAEXPBD@Z ; CWnd::SetWindowTextA
$LN2@VerifySett:

; 281  : 	lData = atol(strOutput);

  00080	ff 75 f0	 push	 DWORD PTR _strOutput$[ebp]
  00083	ff 15 00 00 00
	00		 call	 DWORD PTR __imp__atol
  00089	8b 4d 0c	 mov	 ecx, DWORD PTR _lData$[ebp]
  0008c	83 c4 04	 add	 esp, 4
  0008f	89 01		 mov	 DWORD PTR [ecx], eax

; 282  : }

  00091	8d 4d f0	 lea	 ecx, DWORD PTR _strOutput$[ebp]
  00094	ff 15 00 00 00
	00		 call	 DWORD PTR __imp_??1?$CStringT@DV?$StrTraitMFC_DLL@DV?$ChTraitsCRT@D@ATL@@@@@ATL@@QAE@XZ
  0009a	8b 4d f4	 mov	 ecx, DWORD PTR __$EHRec$[ebp]
  0009d	64 89 0d 00 00
	00 00		 mov	 DWORD PTR fs:0, ecx
  000a4	59		 pop	 ecx
  000a5	8b e5		 mov	 esp, ebp
  000a7	5d		 pop	 ebp
  000a8	c2 08 00	 ret	 8
_TEXT	ENDS
;	COMDAT text$x
text$x	SEGMENT
__unwindfunclet$?VerifySettingData@CSetCycleDlg@@QAEXAAVCEdit@@AAJ@Z$0:
  00000	8d 4d f0	 lea	 ecx, DWORD PTR _strOutput$[ebp]
  00003	ff 25 00 00 00
	00		 jmp	 DWORD PTR __imp_??1?$CStringT@DV?$StrTraitMFC_DLL@DV?$ChTraitsCRT@D@ATL@@@@@ATL@@QAE@XZ
  00009	cc		 int	 3
  0000a	cc		 int	 3
  0000b	cc		 int	 3
  0000c	cc		 int	 3
  0000d	cc		 int	 3
__ehhandler$?VerifySettingData@CSetCycleDlg@@QAEXAAVCEdit@@AAJ@Z:
  0000e	90		 npad	 1
  0000f	90		 npad	 1
  00010	8b 54 24 08	 mov	 edx, DWORD PTR [esp+8]
  00014	8d 42 0c	 lea	 eax, DWORD PTR [edx+12]
  00017	8b 4a f8	 mov	 ecx, DWORD PTR [edx-8]
  0001a	33 c8		 xor	 ecx, eax
  0001c	e8 00 00 00 00	 call	 @__security_check_cookie@4
  00021	b8 00 00 00 00	 mov	 eax, OFFSET __ehfuncinfo$?VerifySettingData@CSetCycleDlg@@QAEXAAVCEdit@@AAJ@Z
  00026	e9 00 00 00 00	 jmp	 ___CxxFrameHandler3
text$x	ENDS
?VerifySettingData@CSetCycleDlg@@QAEXAAVCEdit@@AAJ@Z ENDP ; CSetCycleDlg::VerifySettingData
; Function compile flags: /Ogtp
; File D:\git\src\IBK\IBK_DRFN\ProjSrc\SrcDrfn\Chart\MULTICHART\SetCycleDlg.cpp
; File C:\Program Files (x86)\Microsoft Visual Studio\2019\Community\VC\Tools\MSVC\14.29.30133\atlmfc\include\atlsimpstr.h
; File D:\git\src\IBK\IBK_DRFN\ProjSrc\SrcDrfn\Chart\MULTICHART\SetCycleDlg.cpp
;	COMDAT ?VerifySettingData@CSetCycleDlg@@QAEHAAV?$CStringT@DV?$StrTraitMFC_DLL@DV?$ChTraitsCRT@D@ATL@@@@@ATL@@@Z
_TEXT	SEGMENT
_strData$ = 8						; size = 4
?VerifySettingData@CSetCycleDlg@@QAEHAAV?$CStringT@DV?$StrTraitMFC_DLL@DV?$ChTraitsCRT@D@ATL@@@@@ATL@@@Z PROC ; CSetCycleDlg::VerifySettingData, COMDAT
; _this$ = ecx

; 261  : {

  00000	55		 push	 ebp
  00001	8b ec		 mov	 ebp, esp
  00003	56		 push	 esi
; File C:\Program Files (x86)\Microsoft Visual Studio\2019\Community\VC\Tools\MSVC\14.29.30133\atlmfc\include\atlsimpstr.h

; 377  : 		return( m_pszData );

  00004	8b 75 08	 mov	 esi, DWORD PTR _strData$[ebp]
; File D:\git\src\IBK\IBK_DRFN\ProjSrc\SrcDrfn\Chart\MULTICHART\SetCycleDlg.cpp

; 262  : 	LONG lData = atol(strData);

  00007	ff 36		 push	 DWORD PTR [esi]
  00009	ff 15 00 00 00
	00		 call	 DWORD PTR __imp__atol
  0000f	83 c4 04	 add	 esp, 4

; 263  : 	if(lData <= 0)

  00012	85 c0		 test	 eax, eax
  00014	7f 07		 jg	 SHORT $LN2@VerifySett

; 264  : 		lData = 1;

  00016	b8 01 00 00 00	 mov	 eax, 1
  0001b	eb 0c		 jmp	 SHORT $LN5@VerifySett
$LN2@VerifySett:

; 265  : 	else if(lData > 360)//KHD :  360 

  0001d	3d 68 01 00 00	 cmp	 eax, 360		; 00000168H
  00022	7e 1c		 jle	 SHORT $LN4@VerifySett

; 266  : 		lData = 360;

  00024	b8 68 01 00 00	 mov	 eax, 360		; 00000168H
$LN5@VerifySett:

; 269  : 
; 270  : 	strData.Format("%ld", lData);

  00029	50		 push	 eax
  0002a	68 00 00 00 00	 push	 OFFSET ??_C@_03JALODAI@?$CFld@
  0002f	56		 push	 esi
  00030	ff 15 00 00 00
	00		 call	 DWORD PTR __imp_?Format@?$CStringT@DV?$StrTraitMFC_DLL@DV?$ChTraitsCRT@D@ATL@@@@@ATL@@QAAXPBDZZ
  00036	83 c4 0c	 add	 esp, 12			; 0000000cH

; 271  : 	return FALSE;

  00039	33 c0		 xor	 eax, eax
  0003b	5e		 pop	 esi

; 272  : }

  0003c	5d		 pop	 ebp
  0003d	c2 04 00	 ret	 4
$LN4@VerifySett:

; 267  : 	else 
; 268  : 		return TRUE;

  00040	b8 01 00 00 00	 mov	 eax, 1
  00045	5e		 pop	 esi

; 272  : }

  00046	5d		 pop	 ebp
  00047	c2 04 00	 ret	 4
?VerifySettingData@CSetCycleDlg@@QAEHAAV?$CStringT@DV?$StrTraitMFC_DLL@DV?$ChTraitsCRT@D@ATL@@@@@ATL@@@Z ENDP ; CSetCycleDlg::VerifySettingData
_TEXT	ENDS
; Function compile flags: /Ogtp
; File D:\git\src\IBK\IBK_DRFN\ProjSrc\SrcDrfn\Chart\MULTICHART\SetCycleDlg.cpp
; File C:\Program Files (x86)\Microsoft Visual Studio\2019\Community\VC\Tools\MSVC\14.29.30133\atlmfc\include\afxwin2.inl
; File D:\git\src\IBK\IBK_DRFN\ProjSrc\SrcDrfn\Chart\MULTICHART\SetCycleDlg.cpp
; File C:\Program Files (x86)\Microsoft Visual Studio\2019\Community\VC\Tools\MSVC\14.29.30133\atlmfc\include\afxwin2.inl
; File D:\git\src\IBK\IBK_DRFN\ProjSrc\SrcDrfn\Chart\MULTICHART\SetCycleDlg.cpp
; File C:\Program Files (x86)\Microsoft Visual Studio\2019\Community\VC\Tools\MSVC\14.29.30133\atlmfc\include\afxwin2.inl
; File D:\git\src\IBK\IBK_DRFN\ProjSrc\SrcDrfn\Chart\MULTICHART\SetCycleDlg.cpp
; File C:\Program Files (x86)\Microsoft Visual Studio\2019\Community\VC\Tools\MSVC\14.29.30133\atlmfc\include\afxwin2.inl
; File D:\git\src\IBK\IBK_DRFN\ProjSrc\SrcDrfn\Chart\MULTICHART\SetCycleDlg.cpp
; File C:\Program Files (x86)\Microsoft Visual Studio\2019\Community\VC\Tools\MSVC\14.29.30133\atlmfc\include\afxwin2.inl
; File D:\git\src\IBK\IBK_DRFN\ProjSrc\SrcDrfn\Chart\MULTICHART\SetCycleDlg.cpp
; File C:\Program Files (x86)\Microsoft Visual Studio\2019\Community\VC\Tools\MSVC\14.29.30133\atlmfc\include\afxwin2.inl
; File D:\git\src\IBK\IBK_DRFN\ProjSrc\SrcDrfn\Chart\MULTICHART\SetCycleDlg.cpp
; File C:\Program Files (x86)\Microsoft Visual Studio\2019\Community\VC\Tools\MSVC\14.29.30133\atlmfc\include\afxwin2.inl
; File D:\git\src\IBK\IBK_DRFN\ProjSrc\SrcDrfn\Chart\MULTICHART\SetCycleDlg.cpp
; File C:\Program Files (x86)\Microsoft Visual Studio\2019\Community\VC\Tools\MSVC\14.29.30133\atlmfc\include\afxwin2.inl
; File D:\git\src\IBK\IBK_DRFN\ProjSrc\SrcDrfn\Chart\MULTICHART\SetCycleDlg.cpp
; File C:\Program Files (x86)\Microsoft Visual Studio\2019\Community\VC\Tools\MSVC\14.29.30133\atlmfc\include\afxwin2.inl
; File D:\git\src\IBK\IBK_DRFN\ProjSrc\SrcDrfn\Chart\MULTICHART\SetCycleDlg.cpp
; File C:\Program Files (x86)\Microsoft Visual Studio\2019\Community\VC\Tools\MSVC\14.29.30133\atlmfc\include\afxwin2.inl
; File D:\git\src\IBK\IBK_DRFN\ProjSrc\SrcDrfn\Chart\MULTICHART\SetCycleDlg.cpp
; File C:\Program Files (x86)\Microsoft Visual Studio\2019\Community\VC\Tools\MSVC\14.29.30133\atlmfc\include\afxwin2.inl
; File D:\git\src\IBK\IBK_DRFN\ProjSrc\SrcDrfn\Chart\MULTICHART\SetCycleDlg.cpp
; File C:\Program Files (x86)\Microsoft Visual Studio\2019\Community\VC\Tools\MSVC\14.29.30133\atlmfc\include\afxwin2.inl
; File D:\git\src\IBK\IBK_DRFN\ProjSrc\SrcDrfn\Chart\MULTICHART\SetCycleDlg.cpp
; File C:\Program Files (x86)\Microsoft Visual Studio\2019\Community\VC\Tools\MSVC\14.29.30133\atlmfc\include\afxwin2.inl
; File D:\git\src\IBK\IBK_DRFN\ProjSrc\SrcDrfn\Chart\MULTICHART\SetCycleDlg.cpp
; File C:\Program Files (x86)\Microsoft Visual Studio\2019\Community\VC\Tools\MSVC\14.29.30133\atlmfc\include\afxwin2.inl
; File D:\git\src\IBK\IBK_DRFN\ProjSrc\SrcDrfn\Chart\MULTICHART\SetCycleDlg.cpp
; File C:\Program Files (x86)\Microsoft Visual Studio\2019\Community\VC\Tools\MSVC\14.29.30133\atlmfc\include\afxwin2.inl
; File D:\git\src\IBK\IBK_DRFN\ProjSrc\SrcDrfn\Chart\MULTICHART\SetCycleDlg.cpp
; File C:\Program Files (x86)\Microsoft Visual Studio\2019\Community\VC\Tools\MSVC\14.29.30133\atlmfc\include\afxwin2.inl
; File D:\git\src\IBK\IBK_DRFN\ProjSrc\SrcDrfn\Chart\MULTICHART\SetCycleDlg.cpp
; File C:\Program Files (x86)\Microsoft Visual Studio\2019\Community\VC\Tools\MSVC\14.29.30133\atlmfc\include\afxwin2.inl
; File D:\git\src\IBK\IBK_DRFN\ProjSrc\SrcDrfn\Chart\MULTICHART\SetCycleDlg.cpp
; File C:\Program Files (x86)\Microsoft Visual Studio\2019\Community\VC\Tools\MSVC\14.29.30133\atlmfc\include\afxwin2.inl
; File D:\git\src\IBK\IBK_DRFN\ProjSrc\SrcDrfn\Chart\MULTICHART\SetCycleDlg.cpp
; File C:\Program Files (x86)\Microsoft Visual Studio\2019\Community\VC\Tools\MSVC\14.29.30133\atlmfc\include\afxwin2.inl
; File D:\git\src\IBK\IBK_DRFN\ProjSrc\SrcDrfn\Chart\MULTICHART\SetCycleDlg.cpp
; File C:\Program Files (x86)\Microsoft Visual Studio\2019\Community\VC\Tools\MSVC\14.29.30133\atlmfc\include\afxwin2.inl
; File D:\git\src\IBK\IBK_DRFN\ProjSrc\SrcDrfn\Chart\MULTICHART\SetCycleDlg.cpp
; File C:\Program Files (x86)\Microsoft Visual Studio\2019\Community\VC\Tools\MSVC\14.29.30133\atlmfc\include\afxwin2.inl
; File D:\git\src\IBK\IBK_DRFN\ProjSrc\SrcDrfn\Chart\MULTICHART\SetCycleDlg.cpp
; File C:\Program Files (x86)\Microsoft Visual Studio\2019\Community\VC\Tools\MSVC\14.29.30133\atlmfc\include\afxwin2.inl
; File D:\git\src\IBK\IBK_DRFN\ProjSrc\SrcDrfn\Chart\MULTICHART\SetCycleDlg.cpp
; File C:\Program Files (x86)\Microsoft Visual Studio\2019\Community\VC\Tools\MSVC\14.29.30133\atlmfc\include\afxwin2.inl
; File D:\git\src\IBK\IBK_DRFN\ProjSrc\SrcDrfn\Chart\MULTICHART\SetCycleDlg.cpp
; File C:\Program Files (x86)\Microsoft Visual Studio\2019\Community\VC\Tools\MSVC\14.29.30133\atlmfc\include\afxwin2.inl
; File D:\git\src\IBK\IBK_DRFN\ProjSrc\SrcDrfn\Chart\MULTICHART\SetCycleDlg.cpp
; File C:\Program Files (x86)\Microsoft Visual Studio\2019\Community\VC\Tools\MSVC\14.29.30133\atlmfc\include\afxwin2.inl
; File D:\git\src\IBK\IBK_DRFN\ProjSrc\SrcDrfn\Chart\MULTICHART\SetCycleDlg.cpp
; File C:\Program Files (x86)\Microsoft Visual Studio\2019\Community\VC\Tools\MSVC\14.29.30133\atlmfc\include\afxwin2.inl
; File D:\git\src\IBK\IBK_DRFN\ProjSrc\SrcDrfn\Chart\MULTICHART\SetCycleDlg.cpp
; File C:\Program Files (x86)\Microsoft Visual Studio\2019\Community\VC\Tools\MSVC\14.29.30133\atlmfc\include\afxwin2.inl
; File D:\git\src\IBK\IBK_DRFN\ProjSrc\SrcDrfn\Chart\MULTICHART\SetCycleDlg.cpp
; File C:\Program Files (x86)\Microsoft Visual Studio\2019\Community\VC\Tools\MSVC\14.29.30133\atlmfc\include\afxwin2.inl
; File D:\git\src\IBK\IBK_DRFN\ProjSrc\SrcDrfn\Chart\MULTICHART\SetCycleDlg.cpp
; File C:\Program Files (x86)\Microsoft Visual Studio\2019\Community\VC\Tools\MSVC\14.29.30133\atlmfc\include\afxwin2.inl
; File D:\git\src\IBK\IBK_DRFN\ProjSrc\SrcDrfn\Chart\MULTICHART\SetCycleDlg.cpp
; File C:\Program Files (x86)\Microsoft Visual Studio\2019\Community\VC\Tools\MSVC\14.29.30133\atlmfc\include\afxwin2.inl
; File D:\git\src\IBK\IBK_DRFN\ProjSrc\SrcDrfn\Chart\MULTICHART\SetCycleDlg.cpp
; File C:\Program Files (x86)\Microsoft Visual Studio\2019\Community\VC\Tools\MSVC\14.29.30133\atlmfc\include\afxwin2.inl
; File D:\git\src\IBK\IBK_DRFN\ProjSrc\SrcDrfn\Chart\MULTICHART\SetCycleDlg.cpp
; File C:\Program Files (x86)\Microsoft Visual Studio\2019\Community\VC\Tools\MSVC\14.29.30133\atlmfc\include\afxwin2.inl
; File D:\git\src\IBK\IBK_DRFN\ProjSrc\SrcDrfn\Chart\MULTICHART\SetCycleDlg.cpp
; File C:\Program Files (x86)\Microsoft Visual Studio\2019\Community\VC\Tools\MSVC\14.29.30133\atlmfc\include\afxwin2.inl
; File D:\git\src\IBK\IBK_DRFN\ProjSrc\SrcDrfn\Chart\MULTICHART\SetCycleDlg.cpp
; File C:\Program Files (x86)\Microsoft Visual Studio\2019\Community\VC\Tools\MSVC\14.29.30133\atlmfc\include\afxwin2.inl
; File D:\git\src\IBK\IBK_DRFN\ProjSrc\SrcDrfn\Chart\MULTICHART\SetCycleDlg.cpp
; File C:\Program Files (x86)\Microsoft Visual Studio\2019\Community\VC\Tools\MSVC\14.29.30133\atlmfc\include\afxwin2.inl
; File D:\git\src\IBK\IBK_DRFN\ProjSrc\SrcDrfn\Chart\MULTICHART\SetCycleDlg.cpp
; File C:\Program Files (x86)\Microsoft Visual Studio\2019\Community\VC\Tools\MSVC\14.29.30133\atlmfc\include\afxwin2.inl
; File D:\git\src\IBK\IBK_DRFN\ProjSrc\SrcDrfn\Chart\MULTICHART\SetCycleDlg.cpp
; File C:\Program Files (x86)\Microsoft Visual Studio\2019\Community\VC\Tools\MSVC\14.29.30133\atlmfc\include\afxwin2.inl
; File D:\git\src\IBK\IBK_DRFN\ProjSrc\SrcDrfn\Chart\MULTICHART\SetCycleDlg.cpp
; File C:\Program Files (x86)\Microsoft Visual Studio\2019\Community\VC\Tools\MSVC\14.29.30133\atlmfc\include\afxwin2.inl
; File D:\git\src\IBK\IBK_DRFN\ProjSrc\SrcDrfn\Chart\MULTICHART\SetCycleDlg.cpp
; File C:\Program Files (x86)\Microsoft Visual Studio\2019\Community\VC\Tools\MSVC\14.29.30133\atlmfc\include\afxwin2.inl
; File D:\git\src\IBK\IBK_DRFN\ProjSrc\SrcDrfn\Chart\MULTICHART\SetCycleDlg.cpp
; File C:\Program Files (x86)\Microsoft Visual Studio\2019\Community\VC\Tools\MSVC\14.29.30133\atlmfc\include\afxwin2.inl
; File D:\git\src\IBK\IBK_DRFN\ProjSrc\SrcDrfn\Chart\MULTICHART\SetCycleDlg.cpp
; File C:\Program Files (x86)\Microsoft Visual Studio\2019\Community\VC\Tools\MSVC\14.29.30133\atlmfc\include\afxwin2.inl
; File D:\git\src\IBK\IBK_DRFN\ProjSrc\SrcDrfn\Chart\MULTICHART\SetCycleDlg.cpp
; File C:\Program Files (x86)\Microsoft Visual Studio\2019\Community\VC\Tools\MSVC\14.29.30133\atlmfc\include\afxwin2.inl
; File D:\git\src\IBK\IBK_DRFN\ProjSrc\SrcDrfn\Chart\MULTICHART\SetCycleDlg.cpp
; File C:\Program Files (x86)\Microsoft Visual Studio\2019\Community\VC\Tools\MSVC\14.29.30133\atlmfc\include\afxwin2.inl
; File D:\git\src\IBK\IBK_DRFN\ProjSrc\SrcDrfn\Chart\MULTICHART\SetCycleDlg.cpp
; File C:\Program Files (x86)\Microsoft Visual Studio\2019\Community\VC\Tools\MSVC\14.29.30133\atlmfc\include\afxwin2.inl
; File D:\git\src\IBK\IBK_DRFN\ProjSrc\SrcDrfn\Chart\MULTICHART\SetCycleDlg.cpp
; File C:\Program Files (x86)\Microsoft Visual Studio\2019\Community\VC\Tools\MSVC\14.29.30133\atlmfc\include\afxwin2.inl
; File D:\git\src\IBK\IBK_DRFN\ProjSrc\SrcDrfn\Chart\MULTICHART\SetCycleDlg.cpp
; File C:\Program Files (x86)\Microsoft Visual Studio\2019\Community\VC\Tools\MSVC\14.29.30133\atlmfc\include\afxwin2.inl
; File D:\git\src\IBK\IBK_DRFN\ProjSrc\SrcDrfn\Chart\MULTICHART\SetCycleDlg.cpp
; File C:\Program Files (x86)\Microsoft Visual Studio\2019\Community\VC\Tools\MSVC\14.29.30133\atlmfc\include\afxwin2.inl
; File D:\git\src\IBK\IBK_DRFN\ProjSrc\SrcDrfn\Chart\MULTICHART\SetCycleDlg.cpp
; File C:\Program Files (x86)\Microsoft Visual Studio\2019\Community\VC\Tools\MSVC\14.29.30133\atlmfc\include\afxwin2.inl
; File D:\git\src\IBK\IBK_DRFN\ProjSrc\SrcDrfn\Chart\MULTICHART\SetCycleDlg.cpp
; File C:\Program Files (x86)\Microsoft Visual Studio\2019\Community\VC\Tools\MSVC\14.29.30133\atlmfc\include\afxwin2.inl
; File D:\git\src\IBK\IBK_DRFN\ProjSrc\SrcDrfn\Chart\MULTICHART\SetCycleDlg.cpp
;	COMDAT ??0CSetCycleDlg@@QAE@PAVCWnd@@@Z
_TEXT	SEGMENT
_this$ = -16						; size = 4
__$EHRec$ = -12						; size = 12
_this$ = 8						; size = 4
_this$ = 8						; size = 4
_this$ = 8						; size = 4
_this$ = 8						; size = 4
_this$ = 8						; size = 4
_this$ = 8						; size = 4
_this$ = 8						; size = 4
_this$ = 8						; size = 4
_this$ = 8						; size = 4
_this$ = 8						; size = 4
_this$ = 8						; size = 4
_this$ = 8						; size = 4
_this$ = 8						; size = 4
_this$ = 8						; size = 4
_this$ = 8						; size = 4
_this$ = 8						; size = 4
_this$ = 8						; size = 4
_this$ = 8						; size = 4
_this$ = 8						; size = 4
_this$ = 8						; size = 4
_this$ = 8						; size = 4
_this$ = 8						; size = 4
_this$ = 8						; size = 4
_this$ = 8						; size = 4
_this$ = 8						; size = 4
_pParent$ = 8						; size = 4
??0CSetCycleDlg@@QAE@PAVCWnd@@@Z PROC			; CSetCycleDlg::CSetCycleDlg, COMDAT
; _this$ = ecx

; 20   : {

  00000	55		 push	 ebp
  00001	8b ec		 mov	 ebp, esp
  00003	6a ff		 push	 -1
  00005	68 00 00 00 00	 push	 __ehhandler$??0CSetCycleDlg@@QAE@PAVCWnd@@@Z
  0000a	64 a1 00 00 00
	00		 mov	 eax, DWORD PTR fs:0
  00010	50		 push	 eax
  00011	51		 push	 ecx
  00012	56		 push	 esi
  00013	57		 push	 edi
  00014	a1 00 00 00 00	 mov	 eax, DWORD PTR ___security_cookie
  00019	33 c5		 xor	 eax, ebp
  0001b	50		 push	 eax
  0001c	8d 45 f4	 lea	 eax, DWORD PTR __$EHRec$[ebp]
  0001f	64 a3 00 00 00
	00		 mov	 DWORD PTR fs:0, eax
  00025	8b f9		 mov	 edi, ecx
  00027	89 7d f0	 mov	 DWORD PTR _this$[ebp], edi

; 19   : 	: CRscDlg(CSetCycleDlg::IDD, pParent)

  0002a	ff 75 08	 push	 DWORD PTR _pParent$[ebp]
  0002d	68 c1 17 00 00	 push	 6081			; 000017c1H
  00032	e8 00 00 00 00	 call	 ??0CRscDlg@@QAE@IPAVCWnd@@@Z ; CRscDlg::CRscDlg

; 20   : {

  00037	8d b7 a8 00 00
	00		 lea	 esi, DWORD PTR [edi+168]
  0003d	c7 45 fc 00 00
	00 00		 mov	 DWORD PTR __$EHRec$[ebp+8], 0
; File C:\Program Files (x86)\Microsoft Visual Studio\2019\Community\VC\Tools\MSVC\14.29.30133\atlmfc\include\afxwin2.inl

; 622  : 	{ }

  00044	8b ce		 mov	 ecx, esi
; File D:\git\src\IBK\IBK_DRFN\ProjSrc\SrcDrfn\Chart\MULTICHART\SetCycleDlg.cpp

; 20   : {

  00046	c7 07 00 00 00
	00		 mov	 DWORD PTR [edi], OFFSET ??_7CSetCycleDlg@@6B@
  0004c	89 75 08	 mov	 DWORD PTR _this$[ebp], esi
; File C:\Program Files (x86)\Microsoft Visual Studio\2019\Community\VC\Tools\MSVC\14.29.30133\atlmfc\include\afxwin2.inl

; 622  : 	{ }

  0004f	e8 00 00 00 00	 call	 ??0CWnd@@QAE@XZ		; CWnd::CWnd
  00054	c7 06 00 00 00
	00		 mov	 DWORD PTR [esi], OFFSET ??_7CButton@@6B@
; File D:\git\src\IBK\IBK_DRFN\ProjSrc\SrcDrfn\Chart\MULTICHART\SetCycleDlg.cpp

; 20   : {

  0005a	8d b7 28 01 00
	00		 lea	 esi, DWORD PTR [edi+296]
  00060	c6 45 fc 01	 mov	 BYTE PTR __$EHRec$[ebp+8], 1
; File C:\Program Files (x86)\Microsoft Visual Studio\2019\Community\VC\Tools\MSVC\14.29.30133\atlmfc\include\afxwin2.inl

; 851  : 	{ }

  00064	8b ce		 mov	 ecx, esi
; File D:\git\src\IBK\IBK_DRFN\ProjSrc\SrcDrfn\Chart\MULTICHART\SetCycleDlg.cpp

; 20   : {

  00066	89 75 08	 mov	 DWORD PTR _this$[ebp], esi
; File C:\Program Files (x86)\Microsoft Visual Studio\2019\Community\VC\Tools\MSVC\14.29.30133\atlmfc\include\afxwin2.inl

; 851  : 	{ }

  00069	e8 00 00 00 00	 call	 ??0CWnd@@QAE@XZ		; CWnd::CWnd
  0006e	c7 06 00 00 00
	00		 mov	 DWORD PTR [esi], OFFSET ??_7CEdit@@6B@
; File D:\git\src\IBK\IBK_DRFN\ProjSrc\SrcDrfn\Chart\MULTICHART\SetCycleDlg.cpp

; 20   : {

  00074	8d b7 a8 01 00
	00		 lea	 esi, DWORD PTR [edi+424]
  0007a	c6 45 fc 02	 mov	 BYTE PTR __$EHRec$[ebp+8], 2
; File C:\Program Files (x86)\Microsoft Visual Studio\2019\Community\VC\Tools\MSVC\14.29.30133\atlmfc\include\afxwin2.inl

; 851  : 	{ }

  0007e	8b ce		 mov	 ecx, esi
; File D:\git\src\IBK\IBK_DRFN\ProjSrc\SrcDrfn\Chart\MULTICHART\SetCycleDlg.cpp

; 20   : {

  00080	89 75 08	 mov	 DWORD PTR _this$[ebp], esi
; File C:\Program Files (x86)\Microsoft Visual Studio\2019\Community\VC\Tools\MSVC\14.29.30133\atlmfc\include\afxwin2.inl

; 851  : 	{ }

  00083	e8 00 00 00 00	 call	 ??0CWnd@@QAE@XZ		; CWnd::CWnd
  00088	c7 06 00 00 00
	00		 mov	 DWORD PTR [esi], OFFSET ??_7CEdit@@6B@
; File D:\git\src\IBK\IBK_DRFN\ProjSrc\SrcDrfn\Chart\MULTICHART\SetCycleDlg.cpp

; 20   : {

  0008e	8d b7 28 02 00
	00		 lea	 esi, DWORD PTR [edi+552]
  00094	c6 45 fc 03	 mov	 BYTE PTR __$EHRec$[ebp+8], 3
; File C:\Program Files (x86)\Microsoft Visual Studio\2019\Community\VC\Tools\MSVC\14.29.30133\atlmfc\include\afxwin2.inl

; 851  : 	{ }

  00098	8b ce		 mov	 ecx, esi
; File D:\git\src\IBK\IBK_DRFN\ProjSrc\SrcDrfn\Chart\MULTICHART\SetCycleDlg.cpp

; 20   : {

  0009a	89 75 08	 mov	 DWORD PTR _this$[ebp], esi
; File C:\Program Files (x86)\Microsoft Visual Studio\2019\Community\VC\Tools\MSVC\14.29.30133\atlmfc\include\afxwin2.inl

; 851  : 	{ }

  0009d	e8 00 00 00 00	 call	 ??0CWnd@@QAE@XZ		; CWnd::CWnd
  000a2	c7 06 00 00 00
	00		 mov	 DWORD PTR [esi], OFFSET ??_7CEdit@@6B@
; File D:\git\src\IBK\IBK_DRFN\ProjSrc\SrcDrfn\Chart\MULTICHART\SetCycleDlg.cpp

; 20   : {

  000a8	8d b7 a8 02 00
	00		 lea	 esi, DWORD PTR [edi+680]
  000ae	c6 45 fc 04	 mov	 BYTE PTR __$EHRec$[ebp+8], 4
; File C:\Program Files (x86)\Microsoft Visual Studio\2019\Community\VC\Tools\MSVC\14.29.30133\atlmfc\include\afxwin2.inl

; 851  : 	{ }

  000b2	8b ce		 mov	 ecx, esi
; File D:\git\src\IBK\IBK_DRFN\ProjSrc\SrcDrfn\Chart\MULTICHART\SetCycleDlg.cpp

; 20   : {

  000b4	89 75 08	 mov	 DWORD PTR _this$[ebp], esi
; File C:\Program Files (x86)\Microsoft Visual Studio\2019\Community\VC\Tools\MSVC\14.29.30133\atlmfc\include\afxwin2.inl

; 851  : 	{ }

  000b7	e8 00 00 00 00	 call	 ??0CWnd@@QAE@XZ		; CWnd::CWnd
  000bc	c7 06 00 00 00
	00		 mov	 DWORD PTR [esi], OFFSET ??_7CEdit@@6B@
; File D:\git\src\IBK\IBK_DRFN\ProjSrc\SrcDrfn\Chart\MULTICHART\SetCycleDlg.cpp

; 20   : {

  000c2	8d b7 28 03 00
	00		 lea	 esi, DWORD PTR [edi+808]
  000c8	c6 45 fc 05	 mov	 BYTE PTR __$EHRec$[ebp+8], 5
; File C:\Program Files (x86)\Microsoft Visual Studio\2019\Community\VC\Tools\MSVC\14.29.30133\atlmfc\include\afxwin2.inl

; 851  : 	{ }

  000cc	8b ce		 mov	 ecx, esi
; File D:\git\src\IBK\IBK_DRFN\ProjSrc\SrcDrfn\Chart\MULTICHART\SetCycleDlg.cpp

; 20   : {

  000ce	89 75 08	 mov	 DWORD PTR _this$[ebp], esi
; File C:\Program Files (x86)\Microsoft Visual Studio\2019\Community\VC\Tools\MSVC\14.29.30133\atlmfc\include\afxwin2.inl

; 851  : 	{ }

  000d1	e8 00 00 00 00	 call	 ??0CWnd@@QAE@XZ		; CWnd::CWnd
  000d6	c7 06 00 00 00
	00		 mov	 DWORD PTR [esi], OFFSET ??_7CEdit@@6B@
; File D:\git\src\IBK\IBK_DRFN\ProjSrc\SrcDrfn\Chart\MULTICHART\SetCycleDlg.cpp

; 20   : {

  000dc	8d b7 a8 03 00
	00		 lea	 esi, DWORD PTR [edi+936]
  000e2	c6 45 fc 06	 mov	 BYTE PTR __$EHRec$[ebp+8], 6
; File C:\Program Files (x86)\Microsoft Visual Studio\2019\Community\VC\Tools\MSVC\14.29.30133\atlmfc\include\afxwin2.inl

; 851  : 	{ }

  000e6	8b ce		 mov	 ecx, esi
; File D:\git\src\IBK\IBK_DRFN\ProjSrc\SrcDrfn\Chart\MULTICHART\SetCycleDlg.cpp

; 20   : {

  000e8	89 75 08	 mov	 DWORD PTR _this$[ebp], esi
; File C:\Program Files (x86)\Microsoft Visual Studio\2019\Community\VC\Tools\MSVC\14.29.30133\atlmfc\include\afxwin2.inl

; 851  : 	{ }

  000eb	e8 00 00 00 00	 call	 ??0CWnd@@QAE@XZ		; CWnd::CWnd
  000f0	c7 06 00 00 00
	00		 mov	 DWORD PTR [esi], OFFSET ??_7CEdit@@6B@
; File D:\git\src\IBK\IBK_DRFN\ProjSrc\SrcDrfn\Chart\MULTICHART\SetCycleDlg.cpp

; 20   : {

  000f6	8d b7 28 04 00
	00		 lea	 esi, DWORD PTR [edi+1064]
  000fc	c6 45 fc 07	 mov	 BYTE PTR __$EHRec$[ebp+8], 7
; File C:\Program Files (x86)\Microsoft Visual Studio\2019\Community\VC\Tools\MSVC\14.29.30133\atlmfc\include\afxwin2.inl

; 851  : 	{ }

  00100	8b ce		 mov	 ecx, esi
; File D:\git\src\IBK\IBK_DRFN\ProjSrc\SrcDrfn\Chart\MULTICHART\SetCycleDlg.cpp

; 20   : {

  00102	89 75 08	 mov	 DWORD PTR _this$[ebp], esi
; File C:\Program Files (x86)\Microsoft Visual Studio\2019\Community\VC\Tools\MSVC\14.29.30133\atlmfc\include\afxwin2.inl

; 851  : 	{ }

  00105	e8 00 00 00 00	 call	 ??0CWnd@@QAE@XZ		; CWnd::CWnd
  0010a	c7 06 00 00 00
	00		 mov	 DWORD PTR [esi], OFFSET ??_7CEdit@@6B@
; File D:\git\src\IBK\IBK_DRFN\ProjSrc\SrcDrfn\Chart\MULTICHART\SetCycleDlg.cpp

; 20   : {

  00110	8d b7 a8 04 00
	00		 lea	 esi, DWORD PTR [edi+1192]
  00116	c6 45 fc 08	 mov	 BYTE PTR __$EHRec$[ebp+8], 8
; File C:\Program Files (x86)\Microsoft Visual Studio\2019\Community\VC\Tools\MSVC\14.29.30133\atlmfc\include\afxwin2.inl

; 851  : 	{ }

  0011a	8b ce		 mov	 ecx, esi
; File D:\git\src\IBK\IBK_DRFN\ProjSrc\SrcDrfn\Chart\MULTICHART\SetCycleDlg.cpp

; 20   : {

  0011c	89 75 08	 mov	 DWORD PTR _this$[ebp], esi
; File C:\Program Files (x86)\Microsoft Visual Studio\2019\Community\VC\Tools\MSVC\14.29.30133\atlmfc\include\afxwin2.inl

; 851  : 	{ }

  0011f	e8 00 00 00 00	 call	 ??0CWnd@@QAE@XZ		; CWnd::CWnd
  00124	c7 06 00 00 00
	00		 mov	 DWORD PTR [esi], OFFSET ??_7CEdit@@6B@
; File D:\git\src\IBK\IBK_DRFN\ProjSrc\SrcDrfn\Chart\MULTICHART\SetCycleDlg.cpp

; 20   : {

  0012a	8d b7 28 05 00
	00		 lea	 esi, DWORD PTR [edi+1320]
  00130	c6 45 fc 09	 mov	 BYTE PTR __$EHRec$[ebp+8], 9
; File C:\Program Files (x86)\Microsoft Visual Studio\2019\Community\VC\Tools\MSVC\14.29.30133\atlmfc\include\afxwin2.inl

; 851  : 	{ }

  00134	8b ce		 mov	 ecx, esi
; File D:\git\src\IBK\IBK_DRFN\ProjSrc\SrcDrfn\Chart\MULTICHART\SetCycleDlg.cpp

; 20   : {

  00136	89 75 08	 mov	 DWORD PTR _this$[ebp], esi
; File C:\Program Files (x86)\Microsoft Visual Studio\2019\Community\VC\Tools\MSVC\14.29.30133\atlmfc\include\afxwin2.inl

; 851  : 	{ }

  00139	e8 00 00 00 00	 call	 ??0CWnd@@QAE@XZ		; CWnd::CWnd
  0013e	c7 06 00 00 00
	00		 mov	 DWORD PTR [esi], OFFSET ??_7CEdit@@6B@
; File D:\git\src\IBK\IBK_DRFN\ProjSrc\SrcDrfn\Chart\MULTICHART\SetCycleDlg.cpp

; 20   : {

  00144	8d b7 a8 05 00
	00		 lea	 esi, DWORD PTR [edi+1448]
  0014a	c6 45 fc 0a	 mov	 BYTE PTR __$EHRec$[ebp+8], 10 ; 0000000aH
; File C:\Program Files (x86)\Microsoft Visual Studio\2019\Community\VC\Tools\MSVC\14.29.30133\atlmfc\include\afxwin2.inl

; 851  : 	{ }

  0014e	8b ce		 mov	 ecx, esi
; File D:\git\src\IBK\IBK_DRFN\ProjSrc\SrcDrfn\Chart\MULTICHART\SetCycleDlg.cpp

; 20   : {

  00150	89 75 08	 mov	 DWORD PTR _this$[ebp], esi
; File C:\Program Files (x86)\Microsoft Visual Studio\2019\Community\VC\Tools\MSVC\14.29.30133\atlmfc\include\afxwin2.inl

; 851  : 	{ }

  00153	e8 00 00 00 00	 call	 ??0CWnd@@QAE@XZ		; CWnd::CWnd
  00158	c7 06 00 00 00
	00		 mov	 DWORD PTR [esi], OFFSET ??_7CEdit@@6B@
; File D:\git\src\IBK\IBK_DRFN\ProjSrc\SrcDrfn\Chart\MULTICHART\SetCycleDlg.cpp

; 20   : {

  0015e	8d b7 28 06 00
	00		 lea	 esi, DWORD PTR [edi+1576]
  00164	c6 45 fc 0b	 mov	 BYTE PTR __$EHRec$[ebp+8], 11 ; 0000000bH
; File C:\Program Files (x86)\Microsoft Visual Studio\2019\Community\VC\Tools\MSVC\14.29.30133\atlmfc\include\afxwin2.inl

; 851  : 	{ }

  00168	8b ce		 mov	 ecx, esi
; File D:\git\src\IBK\IBK_DRFN\ProjSrc\SrcDrfn\Chart\MULTICHART\SetCycleDlg.cpp

; 20   : {

  0016a	89 75 08	 mov	 DWORD PTR _this$[ebp], esi
; File C:\Program Files (x86)\Microsoft Visual Studio\2019\Community\VC\Tools\MSVC\14.29.30133\atlmfc\include\afxwin2.inl

; 851  : 	{ }

  0016d	e8 00 00 00 00	 call	 ??0CWnd@@QAE@XZ		; CWnd::CWnd
  00172	c7 06 00 00 00
	00		 mov	 DWORD PTR [esi], OFFSET ??_7CEdit@@6B@
; File D:\git\src\IBK\IBK_DRFN\ProjSrc\SrcDrfn\Chart\MULTICHART\SetCycleDlg.cpp

; 20   : {

  00178	8d b7 a8 06 00
	00		 lea	 esi, DWORD PTR [edi+1704]
  0017e	c6 45 fc 0c	 mov	 BYTE PTR __$EHRec$[ebp+8], 12 ; 0000000cH
; File C:\Program Files (x86)\Microsoft Visual Studio\2019\Community\VC\Tools\MSVC\14.29.30133\atlmfc\include\afxwin2.inl

; 851  : 	{ }

  00182	8b ce		 mov	 ecx, esi
; File D:\git\src\IBK\IBK_DRFN\ProjSrc\SrcDrfn\Chart\MULTICHART\SetCycleDlg.cpp

; 20   : {

  00184	89 75 08	 mov	 DWORD PTR _this$[ebp], esi
; File C:\Program Files (x86)\Microsoft Visual Studio\2019\Community\VC\Tools\MSVC\14.29.30133\atlmfc\include\afxwin2.inl

; 851  : 	{ }

  00187	e8 00 00 00 00	 call	 ??0CWnd@@QAE@XZ		; CWnd::CWnd
  0018c	c7 06 00 00 00
	00		 mov	 DWORD PTR [esi], OFFSET ??_7CEdit@@6B@
; File D:\git\src\IBK\IBK_DRFN\ProjSrc\SrcDrfn\Chart\MULTICHART\SetCycleDlg.cpp

; 20   : {

  00192	8d b7 28 07 00
	00		 lea	 esi, DWORD PTR [edi+1832]
  00198	c6 45 fc 0d	 mov	 BYTE PTR __$EHRec$[ebp+8], 13 ; 0000000dH
; File C:\Program Files (x86)\Microsoft Visual Studio\2019\Community\VC\Tools\MSVC\14.29.30133\atlmfc\include\afxwin2.inl

; 851  : 	{ }

  0019c	8b ce		 mov	 ecx, esi
; File D:\git\src\IBK\IBK_DRFN\ProjSrc\SrcDrfn\Chart\MULTICHART\SetCycleDlg.cpp

; 20   : {

  0019e	89 75 08	 mov	 DWORD PTR _this$[ebp], esi
; File C:\Program Files (x86)\Microsoft Visual Studio\2019\Community\VC\Tools\MSVC\14.29.30133\atlmfc\include\afxwin2.inl

; 851  : 	{ }

  001a1	e8 00 00 00 00	 call	 ??0CWnd@@QAE@XZ		; CWnd::CWnd
  001a6	c7 06 00 00 00
	00		 mov	 DWORD PTR [esi], OFFSET ??_7CEdit@@6B@
; File D:\git\src\IBK\IBK_DRFN\ProjSrc\SrcDrfn\Chart\MULTICHART\SetCycleDlg.cpp

; 20   : {

  001ac	8d b7 a8 07 00
	00		 lea	 esi, DWORD PTR [edi+1960]
  001b2	c6 45 fc 0e	 mov	 BYTE PTR __$EHRec$[ebp+8], 14 ; 0000000eH
; File C:\Program Files (x86)\Microsoft Visual Studio\2019\Community\VC\Tools\MSVC\14.29.30133\atlmfc\include\afxwin2.inl

; 851  : 	{ }

  001b6	8b ce		 mov	 ecx, esi
; File D:\git\src\IBK\IBK_DRFN\ProjSrc\SrcDrfn\Chart\MULTICHART\SetCycleDlg.cpp

; 20   : {

  001b8	89 75 08	 mov	 DWORD PTR _this$[ebp], esi
; File C:\Program Files (x86)\Microsoft Visual Studio\2019\Community\VC\Tools\MSVC\14.29.30133\atlmfc\include\afxwin2.inl

; 851  : 	{ }

  001bb	e8 00 00 00 00	 call	 ??0CWnd@@QAE@XZ		; CWnd::CWnd
  001c0	c7 06 00 00 00
	00		 mov	 DWORD PTR [esi], OFFSET ??_7CEdit@@6B@
; File D:\git\src\IBK\IBK_DRFN\ProjSrc\SrcDrfn\Chart\MULTICHART\SetCycleDlg.cpp

; 20   : {

  001c6	8d b7 28 08 00
	00		 lea	 esi, DWORD PTR [edi+2088]
  001cc	c6 45 fc 0f	 mov	 BYTE PTR __$EHRec$[ebp+8], 15 ; 0000000fH
; File C:\Program Files (x86)\Microsoft Visual Studio\2019\Community\VC\Tools\MSVC\14.29.30133\atlmfc\include\afxwin2.inl

; 851  : 	{ }

  001d0	8b ce		 mov	 ecx, esi
; File D:\git\src\IBK\IBK_DRFN\ProjSrc\SrcDrfn\Chart\MULTICHART\SetCycleDlg.cpp

; 20   : {

  001d2	89 75 08	 mov	 DWORD PTR _this$[ebp], esi
; File C:\Program Files (x86)\Microsoft Visual Studio\2019\Community\VC\Tools\MSVC\14.29.30133\atlmfc\include\afxwin2.inl

; 851  : 	{ }

  001d5	e8 00 00 00 00	 call	 ??0CWnd@@QAE@XZ		; CWnd::CWnd
  001da	c7 06 00 00 00
	00		 mov	 DWORD PTR [esi], OFFSET ??_7CEdit@@6B@
; File D:\git\src\IBK\IBK_DRFN\ProjSrc\SrcDrfn\Chart\MULTICHART\SetCycleDlg.cpp

; 20   : {

  001e0	8d b7 a8 08 00
	00		 lea	 esi, DWORD PTR [edi+2216]
  001e6	c6 45 fc 10	 mov	 BYTE PTR __$EHRec$[ebp+8], 16 ; 00000010H
; File C:\Program Files (x86)\Microsoft Visual Studio\2019\Community\VC\Tools\MSVC\14.29.30133\atlmfc\include\afxwin2.inl

; 851  : 	{ }

  001ea	8b ce		 mov	 ecx, esi
; File D:\git\src\IBK\IBK_DRFN\ProjSrc\SrcDrfn\Chart\MULTICHART\SetCycleDlg.cpp

; 20   : {

  001ec	89 75 08	 mov	 DWORD PTR _this$[ebp], esi
; File C:\Program Files (x86)\Microsoft Visual Studio\2019\Community\VC\Tools\MSVC\14.29.30133\atlmfc\include\afxwin2.inl

; 851  : 	{ }

  001ef	e8 00 00 00 00	 call	 ??0CWnd@@QAE@XZ		; CWnd::CWnd
  001f4	c7 06 00 00 00
	00		 mov	 DWORD PTR [esi], OFFSET ??_7CEdit@@6B@
; File D:\git\src\IBK\IBK_DRFN\ProjSrc\SrcDrfn\Chart\MULTICHART\SetCycleDlg.cpp

; 20   : {

  001fa	8d b7 28 09 00
	00		 lea	 esi, DWORD PTR [edi+2344]
  00200	c6 45 fc 11	 mov	 BYTE PTR __$EHRec$[ebp+8], 17 ; 00000011H
; File C:\Program Files (x86)\Microsoft Visual Studio\2019\Community\VC\Tools\MSVC\14.29.30133\atlmfc\include\afxwin2.inl

; 851  : 	{ }

  00204	8b ce		 mov	 ecx, esi
; File D:\git\src\IBK\IBK_DRFN\ProjSrc\SrcDrfn\Chart\MULTICHART\SetCycleDlg.cpp

; 20   : {

  00206	89 75 08	 mov	 DWORD PTR _this$[ebp], esi
; File C:\Program Files (x86)\Microsoft Visual Studio\2019\Community\VC\Tools\MSVC\14.29.30133\atlmfc\include\afxwin2.inl

; 851  : 	{ }

  00209	e8 00 00 00 00	 call	 ??0CWnd@@QAE@XZ		; CWnd::CWnd
  0020e	c7 06 00 00 00
	00		 mov	 DWORD PTR [esi], OFFSET ??_7CEdit@@6B@
; File D:\git\src\IBK\IBK_DRFN\ProjSrc\SrcDrfn\Chart\MULTICHART\SetCycleDlg.cpp

; 20   : {

  00214	8d b7 a8 09 00
	00		 lea	 esi, DWORD PTR [edi+2472]
  0021a	c6 45 fc 12	 mov	 BYTE PTR __$EHRec$[ebp+8], 18 ; 00000012H
; File C:\Program Files (x86)\Microsoft Visual Studio\2019\Community\VC\Tools\MSVC\14.29.30133\atlmfc\include\afxwin2.inl

; 851  : 	{ }

  0021e	8b ce		 mov	 ecx, esi
; File D:\git\src\IBK\IBK_DRFN\ProjSrc\SrcDrfn\Chart\MULTICHART\SetCycleDlg.cpp

; 20   : {

  00220	89 75 08	 mov	 DWORD PTR _this$[ebp], esi
; File C:\Program Files (x86)\Microsoft Visual Studio\2019\Community\VC\Tools\MSVC\14.29.30133\atlmfc\include\afxwin2.inl

; 851  : 	{ }

  00223	e8 00 00 00 00	 call	 ??0CWnd@@QAE@XZ		; CWnd::CWnd
  00228	c7 06 00 00 00
	00		 mov	 DWORD PTR [esi], OFFSET ??_7CEdit@@6B@
; File D:\git\src\IBK\IBK_DRFN\ProjSrc\SrcDrfn\Chart\MULTICHART\SetCycleDlg.cpp

; 20   : {

  0022e	8d b7 28 0a 00
	00		 lea	 esi, DWORD PTR [edi+2600]
  00234	c6 45 fc 13	 mov	 BYTE PTR __$EHRec$[ebp+8], 19 ; 00000013H
; File C:\Program Files (x86)\Microsoft Visual Studio\2019\Community\VC\Tools\MSVC\14.29.30133\atlmfc\include\afxwin2.inl

; 851  : 	{ }

  00238	8b ce		 mov	 ecx, esi
; File D:\git\src\IBK\IBK_DRFN\ProjSrc\SrcDrfn\Chart\MULTICHART\SetCycleDlg.cpp

; 20   : {

  0023a	89 75 08	 mov	 DWORD PTR _this$[ebp], esi
; File C:\Program Files (x86)\Microsoft Visual Studio\2019\Community\VC\Tools\MSVC\14.29.30133\atlmfc\include\afxwin2.inl

; 851  : 	{ }

  0023d	e8 00 00 00 00	 call	 ??0CWnd@@QAE@XZ		; CWnd::CWnd
  00242	c7 06 00 00 00
	00		 mov	 DWORD PTR [esi], OFFSET ??_7CEdit@@6B@
; File D:\git\src\IBK\IBK_DRFN\ProjSrc\SrcDrfn\Chart\MULTICHART\SetCycleDlg.cpp

; 20   : {

  00248	8d b7 a8 0a 00
	00		 lea	 esi, DWORD PTR [edi+2728]
  0024e	c6 45 fc 14	 mov	 BYTE PTR __$EHRec$[ebp+8], 20 ; 00000014H
; File C:\Program Files (x86)\Microsoft Visual Studio\2019\Community\VC\Tools\MSVC\14.29.30133\atlmfc\include\afxwin2.inl

; 851  : 	{ }

  00252	8b ce		 mov	 ecx, esi
; File D:\git\src\IBK\IBK_DRFN\ProjSrc\SrcDrfn\Chart\MULTICHART\SetCycleDlg.cpp

; 20   : {

  00254	89 75 08	 mov	 DWORD PTR _this$[ebp], esi
; File C:\Program Files (x86)\Microsoft Visual Studio\2019\Community\VC\Tools\MSVC\14.29.30133\atlmfc\include\afxwin2.inl

; 851  : 	{ }

  00257	e8 00 00 00 00	 call	 ??0CWnd@@QAE@XZ		; CWnd::CWnd
  0025c	c7 06 00 00 00
	00		 mov	 DWORD PTR [esi], OFFSET ??_7CEdit@@6B@
; File D:\git\src\IBK\IBK_DRFN\ProjSrc\SrcDrfn\Chart\MULTICHART\SetCycleDlg.cpp

; 20   : {

  00262	8d b7 28 0b 00
	00		 lea	 esi, DWORD PTR [edi+2856]
  00268	c6 45 fc 15	 mov	 BYTE PTR __$EHRec$[ebp+8], 21 ; 00000015H
; File C:\Program Files (x86)\Microsoft Visual Studio\2019\Community\VC\Tools\MSVC\14.29.30133\atlmfc\include\afxwin2.inl

; 851  : 	{ }

  0026c	8b ce		 mov	 ecx, esi
; File D:\git\src\IBK\IBK_DRFN\ProjSrc\SrcDrfn\Chart\MULTICHART\SetCycleDlg.cpp

; 20   : {

  0026e	89 75 08	 mov	 DWORD PTR _this$[ebp], esi
; File C:\Program Files (x86)\Microsoft Visual Studio\2019\Community\VC\Tools\MSVC\14.29.30133\atlmfc\include\afxwin2.inl

; 851  : 	{ }

  00271	e8 00 00 00 00	 call	 ??0CWnd@@QAE@XZ		; CWnd::CWnd
  00276	c7 06 00 00 00
	00		 mov	 DWORD PTR [esi], OFFSET ??_7CEdit@@6B@
; File D:\git\src\IBK\IBK_DRFN\ProjSrc\SrcDrfn\Chart\MULTICHART\SetCycleDlg.cpp

; 20   : {

  0027c	8d b7 a8 0b 00
	00		 lea	 esi, DWORD PTR [edi+2984]
  00282	c6 45 fc 16	 mov	 BYTE PTR __$EHRec$[ebp+8], 22 ; 00000016H
  00286	89 75 08	 mov	 DWORD PTR _this$[ebp], esi
; File C:\Program Files (x86)\Microsoft Visual Studio\2019\Community\VC\Tools\MSVC\14.29.30133\atlmfc\include\afxwin2.inl

; 851  : 	{ }

  00289	8b ce		 mov	 ecx, esi
  0028b	e8 00 00 00 00	 call	 ??0CWnd@@QAE@XZ		; CWnd::CWnd
  00290	c7 06 00 00 00
	00		 mov	 DWORD PTR [esi], OFFSET ??_7CEdit@@6B@
; File D:\git\src\IBK\IBK_DRFN\ProjSrc\SrcDrfn\Chart\MULTICHART\SetCycleDlg.cpp

; 20   : {

  00296	8d b7 28 0c 00
	00		 lea	 esi, DWORD PTR [edi+3112]
  0029c	c6 45 fc 17	 mov	 BYTE PTR __$EHRec$[ebp+8], 23 ; 00000017H
; File C:\Program Files (x86)\Microsoft Visual Studio\2019\Community\VC\Tools\MSVC\14.29.30133\atlmfc\include\afxwin2.inl

; 851  : 	{ }

  002a0	8b ce		 mov	 ecx, esi
; File D:\git\src\IBK\IBK_DRFN\ProjSrc\SrcDrfn\Chart\MULTICHART\SetCycleDlg.cpp

; 20   : {

  002a2	89 75 08	 mov	 DWORD PTR _this$[ebp], esi
; File C:\Program Files (x86)\Microsoft Visual Studio\2019\Community\VC\Tools\MSVC\14.29.30133\atlmfc\include\afxwin2.inl

; 851  : 	{ }

  002a5	e8 00 00 00 00	 call	 ??0CWnd@@QAE@XZ		; CWnd::CWnd
  002aa	c7 06 00 00 00
	00		 mov	 DWORD PTR [esi], OFFSET ??_7CEdit@@6B@
; File D:\git\src\IBK\IBK_DRFN\ProjSrc\SrcDrfn\Chart\MULTICHART\SetCycleDlg.cpp

; 20   : {

  002b0	8d b7 a8 0c 00
	00		 lea	 esi, DWORD PTR [edi+3240]
  002b6	c6 45 fc 18	 mov	 BYTE PTR __$EHRec$[ebp+8], 24 ; 00000018H
; File C:\Program Files (x86)\Microsoft Visual Studio\2019\Community\VC\Tools\MSVC\14.29.30133\atlmfc\include\afxwin2.inl

; 851  : 	{ }

  002ba	8b ce		 mov	 ecx, esi
; File D:\git\src\IBK\IBK_DRFN\ProjSrc\SrcDrfn\Chart\MULTICHART\SetCycleDlg.cpp

; 20   : {

  002bc	89 75 08	 mov	 DWORD PTR _this$[ebp], esi
; File C:\Program Files (x86)\Microsoft Visual Studio\2019\Community\VC\Tools\MSVC\14.29.30133\atlmfc\include\afxwin2.inl

; 851  : 	{ }

  002bf	e8 00 00 00 00	 call	 ??0CWnd@@QAE@XZ		; CWnd::CWnd
  002c4	c7 06 00 00 00
	00		 mov	 DWORD PTR [esi], OFFSET ??_7CEdit@@6B@
; File D:\git\src\IBK\IBK_DRFN\ProjSrc\SrcDrfn\Chart\MULTICHART\SetCycleDlg.cpp

; 24   : }

  002ca	8b c7		 mov	 eax, edi
  002cc	c7 87 28 0d 00
	00 00 00 00 00	 mov	 DWORD PTR [edi+3368], 0
  002d6	8b 4d f4	 mov	 ecx, DWORD PTR __$EHRec$[ebp]
  002d9	64 89 0d 00 00
	00 00		 mov	 DWORD PTR fs:0, ecx
  002e0	59		 pop	 ecx
  002e1	5f		 pop	 edi
  002e2	5e		 pop	 esi
  002e3	8b e5		 mov	 esp, ebp
  002e5	5d		 pop	 ebp
  002e6	c2 04 00	 ret	 4
_TEXT	ENDS
;	COMDAT text$x
text$x	SEGMENT
__unwindfunclet$??0CSetCycleDlg@@QAE@PAVCWnd@@@Z$0:
  00000	8b 4d f0	 mov	 ecx, DWORD PTR _this$[ebp]
  00003	e9 00 00 00 00	 jmp	 ??1CRscDlg@@UAE@XZ
__unwindfunclet$??0CSetCycleDlg@@QAE@PAVCWnd@@@Z$1:
  00008	8b 4d f0	 mov	 ecx, DWORD PTR _this$[ebp]
  0000b	81 c1 a8 00 00
	00		 add	 ecx, 168		; 000000a8H
  00011	e9 00 00 00 00	 jmp	 ??1CButton@@UAE@XZ	; CButton::~CButton
__unwindfunclet$??0CSetCycleDlg@@QAE@PAVCWnd@@@Z$2:
  00016	8b 4d f0	 mov	 ecx, DWORD PTR _this$[ebp]
  00019	81 c1 28 01 00
	00		 add	 ecx, 296		; 00000128H
  0001f	e9 00 00 00 00	 jmp	 ??1CEdit@@UAE@XZ	; CEdit::~CEdit
__unwindfunclet$??0CSetCycleDlg@@QAE@PAVCWnd@@@Z$3:
  00024	8b 4d f0	 mov	 ecx, DWORD PTR _this$[ebp]
  00027	81 c1 a8 01 00
	00		 add	 ecx, 424		; 000001a8H
  0002d	e9 00 00 00 00	 jmp	 ??1CEdit@@UAE@XZ	; CEdit::~CEdit
__unwindfunclet$??0CSetCycleDlg@@QAE@PAVCWnd@@@Z$4:
  00032	8b 4d f0	 mov	 ecx, DWORD PTR _this$[ebp]
  00035	81 c1 28 02 00
	00		 add	 ecx, 552		; 00000228H
  0003b	e9 00 00 00 00	 jmp	 ??1CEdit@@UAE@XZ	; CEdit::~CEdit
__unwindfunclet$??0CSetCycleDlg@@QAE@PAVCWnd@@@Z$5:
  00040	8b 4d f0	 mov	 ecx, DWORD PTR _this$[ebp]
  00043	81 c1 a8 02 00
	00		 add	 ecx, 680		; 000002a8H
  00049	e9 00 00 00 00	 jmp	 ??1CEdit@@UAE@XZ	; CEdit::~CEdit
__unwindfunclet$??0CSetCycleDlg@@QAE@PAVCWnd@@@Z$6:
  0004e	8b 4d f0	 mov	 ecx, DWORD PTR _this$[ebp]
  00051	81 c1 28 03 00
	00		 add	 ecx, 808		; 00000328H
  00057	e9 00 00 00 00	 jmp	 ??1CEdit@@UAE@XZ	; CEdit::~CEdit
__unwindfunclet$??0CSetCycleDlg@@QAE@PAVCWnd@@@Z$7:
  0005c	8b 4d f0	 mov	 ecx, DWORD PTR _this$[ebp]
  0005f	81 c1 a8 03 00
	00		 add	 ecx, 936		; 000003a8H
  00065	e9 00 00 00 00	 jmp	 ??1CEdit@@UAE@XZ	; CEdit::~CEdit
__unwindfunclet$??0CSetCycleDlg@@QAE@PAVCWnd@@@Z$8:
  0006a	8b 4d f0	 mov	 ecx, DWORD PTR _this$[ebp]
  0006d	81 c1 28 04 00
	00		 add	 ecx, 1064		; 00000428H
  00073	e9 00 00 00 00	 jmp	 ??1CEdit@@UAE@XZ	; CEdit::~CEdit
__unwindfunclet$??0CSetCycleDlg@@QAE@PAVCWnd@@@Z$9:
  00078	8b 4d f0	 mov	 ecx, DWORD PTR _this$[ebp]
  0007b	81 c1 a8 04 00
	00		 add	 ecx, 1192		; 000004a8H
  00081	e9 00 00 00 00	 jmp	 ??1CEdit@@UAE@XZ	; CEdit::~CEdit
__unwindfunclet$??0CSetCycleDlg@@QAE@PAVCWnd@@@Z$10:
  00086	8b 4d f0	 mov	 ecx, DWORD PTR _this$[ebp]
  00089	81 c1 28 05 00
	00		 add	 ecx, 1320		; 00000528H
  0008f	e9 00 00 00 00	 jmp	 ??1CEdit@@UAE@XZ	; CEdit::~CEdit
__unwindfunclet$??0CSetCycleDlg@@QAE@PAVCWnd@@@Z$11:
  00094	8b 4d f0	 mov	 ecx, DWORD PTR _this$[ebp]
  00097	81 c1 a8 05 00
	00		 add	 ecx, 1448		; 000005a8H
  0009d	e9 00 00 00 00	 jmp	 ??1CEdit@@UAE@XZ	; CEdit::~CEdit
__unwindfunclet$??0CSetCycleDlg@@QAE@PAVCWnd@@@Z$12:
  000a2	8b 4d f0	 mov	 ecx, DWORD PTR _this$[ebp]
  000a5	81 c1 28 06 00
	00		 add	 ecx, 1576		; 00000628H
  000ab	e9 00 00 00 00	 jmp	 ??1CEdit@@UAE@XZ	; CEdit::~CEdit
__unwindfunclet$??0CSetCycleDlg@@QAE@PAVCWnd@@@Z$13:
  000b0	8b 4d f0	 mov	 ecx, DWORD PTR _this$[ebp]
  000b3	81 c1 a8 06 00
	00		 add	 ecx, 1704		; 000006a8H
  000b9	e9 00 00 00 00	 jmp	 ??1CEdit@@UAE@XZ	; CEdit::~CEdit
__unwindfunclet$??0CSetCycleDlg@@QAE@PAVCWnd@@@Z$14:
  000be	8b 4d f0	 mov	 ecx, DWORD PTR _this$[ebp]
  000c1	81 c1 28 07 00
	00		 add	 ecx, 1832		; 00000728H
  000c7	e9 00 00 00 00	 jmp	 ??1CEdit@@UAE@XZ	; CEdit::~CEdit
__unwindfunclet$??0CSetCycleDlg@@QAE@PAVCWnd@@@Z$15:
  000cc	8b 4d f0	 mov	 ecx, DWORD PTR _this$[ebp]
  000cf	81 c1 a8 07 00
	00		 add	 ecx, 1960		; 000007a8H
  000d5	e9 00 00 00 00	 jmp	 ??1CEdit@@UAE@XZ	; CEdit::~CEdit
__unwindfunclet$??0CSetCycleDlg@@QAE@PAVCWnd@@@Z$16:
  000da	8b 4d f0	 mov	 ecx, DWORD PTR _this$[ebp]
  000dd	81 c1 28 08 00
	00		 add	 ecx, 2088		; 00000828H
  000e3	e9 00 00 00 00	 jmp	 ??1CEdit@@UAE@XZ	; CEdit::~CEdit
__unwindfunclet$??0CSetCycleDlg@@QAE@PAVCWnd@@@Z$17:
  000e8	8b 4d f0	 mov	 ecx, DWORD PTR _this$[ebp]
  000eb	81 c1 a8 08 00
	00		 add	 ecx, 2216		; 000008a8H
  000f1	e9 00 00 00 00	 jmp	 ??1CEdit@@UAE@XZ	; CEdit::~CEdit
__unwindfunclet$??0CSetCycleDlg@@QAE@PAVCWnd@@@Z$18:
  000f6	8b 4d f0	 mov	 ecx, DWORD PTR _this$[ebp]
  000f9	81 c1 28 09 00
	00		 add	 ecx, 2344		; 00000928H
  000ff	e9 00 00 00 00	 jmp	 ??1CEdit@@UAE@XZ	; CEdit::~CEdit
__unwindfunclet$??0CSetCycleDlg@@QAE@PAVCWnd@@@Z$19:
  00104	8b 4d f0	 mov	 ecx, DWORD PTR _this$[ebp]
  00107	81 c1 a8 09 00
	00		 add	 ecx, 2472		; 000009a8H
  0010d	e9 00 00 00 00	 jmp	 ??1CEdit@@UAE@XZ	; CEdit::~CEdit
__unwindfunclet$??0CSetCycleDlg@@QAE@PAVCWnd@@@Z$20:
  00112	8b 4d f0	 mov	 ecx, DWORD PTR _this$[ebp]
  00115	81 c1 28 0a 00
	00		 add	 ecx, 2600		; 00000a28H
  0011b	e9 00 00 00 00	 jmp	 ??1CEdit@@UAE@XZ	; CEdit::~CEdit
__unwindfunclet$??0CSetCycleDlg@@QAE@PAVCWnd@@@Z$21:
  00120	8b 4d f0	 mov	 ecx, DWORD PTR _this$[ebp]
  00123	81 c1 a8 0a 00
	00		 add	 ecx, 2728		; 00000aa8H
  00129	e9 00 00 00 00	 jmp	 ??1CEdit@@UAE@XZ	; CEdit::~CEdit
__unwindfunclet$??0CSetCycleDlg@@QAE@PAVCWnd@@@Z$22:
  0012e	8b 4d f0	 mov	 ecx, DWORD PTR _this$[ebp]
  00131	81 c1 28 0b 00
	00		 add	 ecx, 2856		; 00000b28H
  00137	e9 00 00 00 00	 jmp	 ??1CEdit@@UAE@XZ	; CEdit::~CEdit
__unwindfunclet$??0CSetCycleDlg@@QAE@PAVCWnd@@@Z$23:
  0013c	8b 4d f0	 mov	 ecx, DWORD PTR _this$[ebp]
  0013f	81 c1 a8 0b 00
	00		 add	 ecx, 2984		; 00000ba8H
  00145	e9 00 00 00 00	 jmp	 ??1CEdit@@UAE@XZ	; CEdit::~CEdit
__unwindfunclet$??0CSetCycleDlg@@QAE@PAVCWnd@@@Z$24:
  0014a	8b 4d f0	 mov	 ecx, DWORD PTR _this$[ebp]
  0014d	81 c1 28 0c 00
	00		 add	 ecx, 3112		; 00000c28H
  00153	e9 00 00 00 00	 jmp	 ??1CEdit@@UAE@XZ	; CEdit::~CEdit
  00158	cc		 int	 3
  00159	cc		 int	 3
  0015a	cc		 int	 3
  0015b	cc		 int	 3
  0015c	cc		 int	 3
__ehhandler$??0CSetCycleDlg@@QAE@PAVCWnd@@@Z:
  0015d	90		 npad	 1
  0015e	90		 npad	 1
  0015f	8b 54 24 08	 mov	 edx, DWORD PTR [esp+8]
  00163	8d 42 0c	 lea	 eax, DWORD PTR [edx+12]
  00166	8b 4a f0	 mov	 ecx, DWORD PTR [edx-16]
  00169	33 c8		 xor	 ecx, eax
  0016b	e8 00 00 00 00	 call	 @__security_check_cookie@4
  00170	b8 00 00 00 00	 mov	 eax, OFFSET __ehfuncinfo$??0CSetCycleDlg@@QAE@PAVCWnd@@@Z
  00175	e9 00 00 00 00	 jmp	 ___CxxFrameHandler3
text$x	ENDS
??0CSetCycleDlg@@QAE@PAVCWnd@@@Z ENDP			; CSetCycleDlg::CSetCycleDlg
; Function compile flags: /Ogtp
;	COMDAT ??1CRscDlg@@UAE@XZ
_TEXT	SEGMENT
??1CRscDlg@@UAE@XZ PROC					; CRscDlg::~CRscDlg, COMDAT
; _this$ = ecx
  00000	e9 00 00 00 00	 jmp	 ??1CDialog@@UAE@XZ	; CDialog::~CDialog
??1CRscDlg@@UAE@XZ ENDP					; CRscDlg::~CRscDlg
_TEXT	ENDS
; Function compile flags: /Ogtp
; File C:\Program Files (x86)\Microsoft Visual Studio\2019\Community\VC\Tools\MSVC\14.29.30133\atlmfc\include\afx.inl
;	COMDAT ??_GCEdit@@UAEPAXI@Z
_TEXT	SEGMENT
___flags$ = 8						; size = 4
??_GCEdit@@UAEPAXI@Z PROC				; CEdit::`scalar deleting destructor', COMDAT
; _this$ = ecx
  00000	55		 push	 ebp
  00001	8b ec		 mov	 ebp, esp
  00003	56		 push	 esi
  00004	8b f1		 mov	 esi, ecx
  00006	e8 00 00 00 00	 call	 ??1CEdit@@UAE@XZ	; CEdit::~CEdit
  0000b	8b 45 08	 mov	 eax, DWORD PTR ___flags$[ebp]
  0000e	a8 01		 test	 al, 1
  00010	74 22		 je	 SHORT $LN9@scalar
  00012	a8 04		 test	 al, 4
  00014	75 10		 jne	 SHORT $LN3@scalar

; 112  : 	{ ::operator delete(p); }

  00016	56		 push	 esi
  00017	e8 00 00 00 00	 call	 ??3@YAXPAX@Z		; operator delete
  0001c	83 c4 04	 add	 esp, 4
  0001f	8b c6		 mov	 eax, esi
  00021	5e		 pop	 esi
  00022	5d		 pop	 ebp
  00023	c2 04 00	 ret	 4
$LN3@scalar:
  00026	68 80 00 00 00	 push	 128			; 00000080H
  0002b	56		 push	 esi
  0002c	e8 00 00 00 00	 call	 ?__global_delete@@YAXPAXI@Z ; __global_delete
  00031	83 c4 08	 add	 esp, 8
$LN9@scalar:
  00034	8b c6		 mov	 eax, esi
  00036	5e		 pop	 esi
  00037	5d		 pop	 ebp
  00038	c2 04 00	 ret	 4
??_GCEdit@@UAEPAXI@Z ENDP				; CEdit::`scalar deleting destructor'
_TEXT	ENDS
; Function compile flags: /Ogtp
; File C:\Program Files (x86)\Microsoft Visual Studio\2019\Community\VC\Tools\MSVC\14.29.30133\atlmfc\include\afx.inl
;	COMDAT ??_GCButton@@UAEPAXI@Z
_TEXT	SEGMENT
___flags$ = 8						; size = 4
??_GCButton@@UAEPAXI@Z PROC				; CButton::`scalar deleting destructor', COMDAT
; _this$ = ecx
  00000	55		 push	 ebp
  00001	8b ec		 mov	 ebp, esp
  00003	56		 push	 esi
  00004	8b f1		 mov	 esi, ecx
  00006	e8 00 00 00 00	 call	 ??1CButton@@UAE@XZ	; CButton::~CButton
  0000b	8b 45 08	 mov	 eax, DWORD PTR ___flags$[ebp]
  0000e	a8 01		 test	 al, 1
  00010	74 22		 je	 SHORT $LN9@scalar
  00012	a8 04		 test	 al, 4
  00014	75 10		 jne	 SHORT $LN3@scalar

; 112  : 	{ ::operator delete(p); }

  00016	56		 push	 esi
  00017	e8 00 00 00 00	 call	 ??3@YAXPAX@Z		; operator delete
  0001c	83 c4 04	 add	 esp, 4
  0001f	8b c6		 mov	 eax, esi
  00021	5e		 pop	 esi
  00022	5d		 pop	 ebp
  00023	c2 04 00	 ret	 4
$LN3@scalar:
  00026	68 80 00 00 00	 push	 128			; 00000080H
  0002b	56		 push	 esi
  0002c	e8 00 00 00 00	 call	 ?__global_delete@@YAXPAXI@Z ; __global_delete
  00031	83 c4 08	 add	 esp, 8
$LN9@scalar:
  00034	8b c6		 mov	 eax, esi
  00036	5e		 pop	 esi
  00037	5d		 pop	 ebp
  00038	c2 04 00	 ret	 4
??_GCButton@@UAEPAXI@Z ENDP				; CButton::`scalar deleting destructor'
_TEXT	ENDS
; Function compile flags: /Ogtp
; File C:\Program Files (x86)\Microsoft Visual Studio\2019\Community\VC\Tools\MSVC\14.29.30133\atlmfc\include\afxwin2.inl
;	COMDAT ?EndModalState@CWnd@@UAEXXZ
_TEXT	SEGMENT
?EndModalState@CWnd@@UAEXXZ PROC			; CWnd::EndModalState, COMDAT
; _this$ = ecx

; 567  : 	{ ::EnableWindow(m_hWnd, TRUE); }

  00000	6a 01		 push	 1
  00002	ff 71 20	 push	 DWORD PTR [ecx+32]
  00005	ff 15 00 00 00
	00		 call	 DWORD PTR __imp__EnableWindow@8
  0000b	c3		 ret	 0
?EndModalState@CWnd@@UAEXXZ ENDP			; CWnd::EndModalState
_TEXT	ENDS
; Function compile flags: /Ogtp
; File C:\Program Files (x86)\Microsoft Visual Studio\2019\Community\VC\Tools\MSVC\14.29.30133\atlmfc\include\afxwin2.inl
;	COMDAT ?BeginModalState@CWnd@@UAEXXZ
_TEXT	SEGMENT
?BeginModalState@CWnd@@UAEXXZ PROC			; CWnd::BeginModalState, COMDAT
; _this$ = ecx

; 565  : 	{ ::EnableWindow(m_hWnd, FALSE); }

  00000	6a 00		 push	 0
  00002	ff 71 20	 push	 DWORD PTR [ecx+32]
  00005	ff 15 00 00 00
	00		 call	 DWORD PTR __imp__EnableWindow@8
  0000b	c3		 ret	 0
?BeginModalState@CWnd@@UAEXXZ ENDP			; CWnd::BeginModalState
_TEXT	ENDS
; Function compile flags: /Ogtp
; File C:\Program Files (x86)\Microsoft Visual Studio\2019\Community\VC\Tools\MSVC\14.29.30133\atlmfc\include\afxwin2.inl
;	COMDAT ?DoDataExchange@CWnd@@MAEXPAVCDataExchange@@@Z
_TEXT	SEGMENT
___formal$ = 8						; size = 4
?DoDataExchange@CWnd@@MAEXPAVCDataExchange@@@Z PROC	; CWnd::DoDataExchange, COMDAT
; _this$ = ecx

; 561  : 	{ } // default does nothing

  00000	c2 04 00	 ret	 4
?DoDataExchange@CWnd@@MAEXPAVCDataExchange@@@Z ENDP	; CWnd::DoDataExchange
_TEXT	ENDS
; Function compile flags: /Ogtp
; File C:\Program Files (x86)\Microsoft Visual Studio\2019\Community\VC\Tools\MSVC\14.29.30133\atlmfc\include\atlbase.h
; File C:\Program Files (x86)\Microsoft Visual Studio\2019\Community\VC\Tools\MSVC\14.29.30133\atlmfc\include\atlsimpcoll.h
; File C:\Program Files (x86)\Microsoft Visual Studio\2019\Community\VC\Tools\MSVC\14.29.30133\atlmfc\include\atlbase.h
; File C:\Program Files (x86)\Microsoft Visual Studio\2019\Community\VC\Tools\MSVC\14.29.30133\atlmfc\include\atlsimpcoll.h
; File C:\Program Files (x86)\Microsoft Visual Studio\2019\Community\VC\Tools\MSVC\14.29.30133\atlmfc\include\atlcore.h
; File C:\Program Files (x86)\Microsoft Visual Studio\2019\Community\VC\Tools\MSVC\14.29.30133\atlmfc\include\atlsimpcoll.h
; File C:\Program Files (x86)\Microsoft Visual Studio\2019\Community\VC\Tools\MSVC\14.29.30133\atlmfc\include\atlcore.h
; File C:\Program Files (x86)\Microsoft Visual Studio\2019\Community\VC\Tools\MSVC\14.29.30133\atlmfc\include\atlbase.h
; File C:\Program Files (x86)\Microsoft Visual Studio\2019\Community\VC\Tools\MSVC\14.29.30133\atlmfc\include\atlsimpcoll.h
;	COMDAT ??__F_AtlWinModule@ATL@@YAXXZ
text$yd	SEGMENT
??__F_AtlWinModule@ATL@@YAXXZ PROC			; ATL::`dynamic atexit destructor for '_AtlWinModule'', COMDAT
; File C:\Program Files (x86)\Microsoft Visual Studio\2019\Community\VC\Tools\MSVC\14.29.30133\atlmfc\include\atlbase.h

; 7655 : 	if (pWinModule->cbSize == 0)

  00000	a1 00 00 00 00	 mov	 eax, DWORD PTR ?_AtlWinModule@ATL@@3VCAtlWinModule@1@A
  00005	8b 0d 00 00 00
	00		 mov	 ecx, DWORD PTR __imp__free

; 2957 : 		AtlWinModuleTerm(this, _AtlBaseModule.GetModuleInstance());

  0000b	57		 push	 edi
  0000c	8b 3d 04 00 00
	00		 mov	 edi, DWORD PTR ?_AtlBaseModule@ATL@@3VCAtlBaseModule@1@A+4

; 7655 : 	if (pWinModule->cbSize == 0)

  00012	85 c0		 test	 eax, eax
  00014	0f 84 93 00 00
	00		 je	 $LN8@dynamic

; 7656 : 		return S_OK;
; 7657 : 	if (pWinModule->cbSize != sizeof(_ATL_WIN_MODULE))

  0001a	83 f8 2c	 cmp	 eax, 44			; 0000002cH
  0001d	0f 85 8a 00 00
	00		 jne	 $LN8@dynamic

; 7658 : 		return E_INVALIDARG;
; 7659 : 
; 7660 : 	for (int i = 0; i < pWinModule->m_rgWindowClassAtoms.GetSize(); i++)

  00023	a1 24 00 00 00	 mov	 eax, DWORD PTR ?_AtlWinModule@ATL@@3VCAtlWinModule@1@A+36
  00028	56		 push	 esi
  00029	33 f6		 xor	 esi, esi
  0002b	85 c0		 test	 eax, eax
  0002d	7e 35		 jle	 SHORT $LN10@dynamic
  0002f	53		 push	 ebx
  00030	8b 1d 00 00 00
	00		 mov	 ebx, DWORD PTR __imp__UnregisterClassA@8
$LL11@dynamic:
; File C:\Program Files (x86)\Microsoft Visual Studio\2019\Community\VC\Tools\MSVC\14.29.30133\atlmfc\include\atlsimpcoll.h

; 238  : 		if(nIndex < 0 || nIndex >= m_nSize)

  00036	85 f6		 test	 esi, esi
  00038	0f 88 9e 00 00
	00		 js	 $LN46@dynamic
  0003e	3b f0		 cmp	 esi, eax
  00040	0f 8d 96 00 00
	00		 jge	 $LN46@dynamic
; File C:\Program Files (x86)\Microsoft Visual Studio\2019\Community\VC\Tools\MSVC\14.29.30133\atlmfc\include\atlbase.h

; 7661 : 		UnregisterClass((LPCTSTR)pWinModule->m_rgWindowClassAtoms[i], hInst);

  00046	a1 20 00 00 00	 mov	 eax, DWORD PTR ?_AtlWinModule@ATL@@3VCAtlWinModule@1@A+32
  0004b	57		 push	 edi
  0004c	0f b7 04 70	 movzx	 eax, WORD PTR [eax+esi*2]
  00050	50		 push	 eax
  00051	ff d3		 call	 ebx
  00053	a1 24 00 00 00	 mov	 eax, DWORD PTR ?_AtlWinModule@ATL@@3VCAtlWinModule@1@A+36
  00058	46		 inc	 esi
  00059	3b f0		 cmp	 esi, eax
  0005b	7c d9		 jl	 SHORT $LL11@dynamic
; File C:\Program Files (x86)\Microsoft Visual Studio\2019\Community\VC\Tools\MSVC\14.29.30133\atlmfc\include\atlsimpcoll.h

; 238  : 		if(nIndex < 0 || nIndex >= m_nSize)

  0005d	8b 0d 00 00 00
	00		 mov	 ecx, DWORD PTR __imp__free
  00063	5b		 pop	 ebx
$LN10@dynamic:

; 216  : 		if(m_aT != NULL)

  00064	a1 20 00 00 00	 mov	 eax, DWORD PTR ?_AtlWinModule@ATL@@3VCAtlWinModule@1@A+32
  00069	5e		 pop	 esi
  0006a	85 c0		 test	 eax, eax
  0006c	74 10		 je	 SHORT $LN25@dynamic

; 217  : 		{
; 218  : 			for(int i = 0; i < m_nSize; i++)
; 219  : 				m_aT[i].~T();
; 220  : 			free(m_aT);

  0006e	50		 push	 eax
  0006f	ff d1		 call	 ecx
  00071	83 c4 04	 add	 esp, 4

; 221  : 			m_aT = NULL;

  00074	c7 05 20 00 00
	00 00 00 00 00	 mov	 DWORD PTR ?_AtlWinModule@ATL@@3VCAtlWinModule@1@A+32, 0
$LN25@dynamic:
; File C:\Program Files (x86)\Microsoft Visual Studio\2019\Community\VC\Tools\MSVC\14.29.30133\atlmfc\include\atlcore.h

; 155  : 		DeleteCriticalSection(&m_sec);

  0007e	68 04 00 00 00	 push	 OFFSET ?_AtlWinModule@ATL@@3VCAtlWinModule@1@A+4
; File C:\Program Files (x86)\Microsoft Visual Studio\2019\Community\VC\Tools\MSVC\14.29.30133\atlmfc\include\atlsimpcoll.h

; 223  : 		m_nSize = 0;

  00083	c7 05 24 00 00
	00 00 00 00 00	 mov	 DWORD PTR ?_AtlWinModule@ATL@@3VCAtlWinModule@1@A+36, 0

; 224  : 		m_nAllocSize = 0;

  0008d	c7 05 28 00 00
	00 00 00 00 00	 mov	 DWORD PTR ?_AtlWinModule@ATL@@3VCAtlWinModule@1@A+40, 0
; File C:\Program Files (x86)\Microsoft Visual Studio\2019\Community\VC\Tools\MSVC\14.29.30133\atlmfc\include\atlcore.h

; 155  : 		DeleteCriticalSection(&m_sec);

  00097	ff 15 00 00 00
	00		 call	 DWORD PTR __imp__DeleteCriticalSection@4
; File C:\Program Files (x86)\Microsoft Visual Studio\2019\Community\VC\Tools\MSVC\14.29.30133\atlmfc\include\atlbase.h

; 7664 : 	pWinModule->cbSize = 0;

  0009d	8b 0d 00 00 00
	00		 mov	 ecx, DWORD PTR __imp__free
  000a3	c7 05 00 00 00
	00 00 00 00 00	 mov	 DWORD PTR ?_AtlWinModule@ATL@@3VCAtlWinModule@1@A, 0
$LN8@dynamic:
; File C:\Program Files (x86)\Microsoft Visual Studio\2019\Community\VC\Tools\MSVC\14.29.30133\atlmfc\include\atlsimpcoll.h

; 216  : 		if(m_aT != NULL)

  000ad	a1 20 00 00 00	 mov	 eax, DWORD PTR ?_AtlWinModule@ATL@@3VCAtlWinModule@1@A+32
  000b2	5f		 pop	 edi
  000b3	85 c0		 test	 eax, eax
  000b5	74 10		 je	 SHORT $LN40@dynamic

; 217  : 		{
; 218  : 			for(int i = 0; i < m_nSize; i++)
; 219  : 				m_aT[i].~T();
; 220  : 			free(m_aT);

  000b7	50		 push	 eax
  000b8	ff d1		 call	 ecx
  000ba	83 c4 04	 add	 esp, 4

; 221  : 			m_aT = NULL;

  000bd	c7 05 20 00 00
	00 00 00 00 00	 mov	 DWORD PTR ?_AtlWinModule@ATL@@3VCAtlWinModule@1@A+32, 0
$LN40@dynamic:

; 223  : 		m_nSize = 0;

  000c7	c7 05 24 00 00
	00 00 00 00 00	 mov	 DWORD PTR ?_AtlWinModule@ATL@@3VCAtlWinModule@1@A+36, 0

; 224  : 		m_nAllocSize = 0;

  000d1	c7 05 28 00 00
	00 00 00 00 00	 mov	 DWORD PTR ?_AtlWinModule@ATL@@3VCAtlWinModule@1@A+40, 0
  000db	c3		 ret	 0
$LN46@dynamic:

; 240  : 			_AtlRaiseException((DWORD)EXCEPTION_ARRAY_BOUNDS_EXCEEDED);

  000dc	6a 01		 push	 1
  000de	68 8c 00 00 c0	 push	 -1073741684		; c000008cH
  000e3	e8 00 00 00 00	 call	 ?_AtlRaiseException@ATL@@YAXKK@Z ; ATL::_AtlRaiseException
$LN56@dynamic:
  000e8	cc		 int	 3
??__F_AtlWinModule@ATL@@YAXXZ ENDP			; ATL::`dynamic atexit destructor for '_AtlWinModule''
text$yd	ENDS
; Function compile flags: /Ogtp
; File C:\Program Files (x86)\Microsoft Visual Studio\2019\Community\VC\Tools\MSVC\14.29.30133\atlmfc\include\atlbase.h
; File C:\Program Files (x86)\Microsoft Visual Studio\2019\Community\VC\Tools\MSVC\14.29.30133\atlmfc\include\atlwinverapi.h
; File C:\Program Files (x86)\Microsoft Visual Studio\2019\Community\VC\Tools\MSVC\14.29.30133\atlmfc\include\atlcore.h
; File C:\Program Files (x86)\Windows Kits\10\Include\10.0.22000.0\shared\winerror.h
; File C:\Program Files (x86)\Microsoft Visual Studio\2019\Community\VC\Tools\MSVC\14.29.30133\atlmfc\include\atlbase.h
;	COMDAT ??__E_AtlWinModule@ATL@@YAXXZ
text$di	SEGMENT
??__E_AtlWinModule@ATL@@YAXXZ PROC			; ATL::`dynamic initializer for '_AtlWinModule'', COMDAT
; File C:\Program Files (x86)\Microsoft Visual Studio\2019\Community\VC\Tools\MSVC\14.29.30133\atlmfc\include\atlwinverapi.h

; 730  : 	return ::InitializeCriticalSectionEx(lpCriticalSection, dwSpinCount, Flags);

  00000	6a 00		 push	 0
  00002	6a 00		 push	 0
  00004	68 04 00 00 00	 push	 OFFSET ?_AtlWinModule@ATL@@3VCAtlWinModule@1@A+4
  00009	ff 15 00 00 00
	00		 call	 DWORD PTR __imp__InitializeCriticalSectionEx@12
; File C:\Program Files (x86)\Microsoft Visual Studio\2019\Community\VC\Tools\MSVC\14.29.30133\atlmfc\include\atlcore.h

; 145  : 		if (!_AtlInitializeCriticalSectionEx(&m_sec, 0, 0))

  0000f	85 c0		 test	 eax, eax
  00011	75 27		 jne	 SHORT $LN4@dynamic

; 146  : 		{
; 147  : 			hRes = HRESULT_FROM_WIN32(GetLastError());

  00013	ff 15 00 00 00
	00		 call	 DWORD PTR __imp__GetLastError@0
; File C:\Program Files (x86)\Windows Kits\10\Include\10.0.22000.0\shared\winerror.h

; 29673: FORCEINLINE _Translates_Win32_to_HRESULT_(x) HRESULT HRESULT_FROM_WIN32(unsigned long x) { return (HRESULT)(x) <= 0 ? (HRESULT)(x) : (HRESULT) (((x) & 0x0000FFFF) | (FACILITY_WIN32 << 16) | 0x80000000);}

  00019	85 c0		 test	 eax, eax
  0001b	7e 0a		 jle	 SHORT $LN26@dynamic
  0001d	0f b7 c0	 movzx	 eax, ax
  00020	0d 00 00 07 80	 or	 eax, -2147024896	; 80070000H
; File C:\Program Files (x86)\Microsoft Visual Studio\2019\Community\VC\Tools\MSVC\14.29.30133\atlmfc\include\atlbase.h

; 2941 : 		if (FAILED(hr))

  00025	85 c0		 test	 eax, eax
$LN26@dynamic:
  00027	79 11		 jns	 SHORT $LN4@dynamic

; 2942 : 		{
; 2943 : 			ATLASSERT(0);
; 2944 : 			CAtlBaseModule::m_bInitFailed = true;

  00029	c6 05 00 00 00
	00 01		 mov	 BYTE PTR ?m_bInitFailed@CAtlBaseModule@ATL@@2_NA, 1 ; ATL::CAtlBaseModule::m_bInitFailed

; 2945 : 			cbSize = 0;

  00030	c7 05 00 00 00
	00 00 00 00 00	 mov	 DWORD PTR ?_AtlWinModule@ATL@@3VCAtlWinModule@1@A, 0
$LN4@dynamic:

; 2972 : __declspec(selectany) CAtlWinModule _AtlWinModule;

  0003a	68 00 00 00 00	 push	 OFFSET ??__F_AtlWinModule@ATL@@YAXXZ ; ATL::`dynamic atexit destructor for '_AtlWinModule''
  0003f	e8 00 00 00 00	 call	 _atexit
  00044	59		 pop	 ecx
  00045	c3		 ret	 0
??__E_AtlWinModule@ATL@@YAXXZ ENDP			; ATL::`dynamic initializer for '_AtlWinModule''
text$di	ENDS
; Function compile flags: /Ogtp
; File C:\Program Files (x86)\Microsoft Visual Studio\2019\Community\VC\Tools\MSVC\14.29.30133\atlmfc\include\atlwinverapi.h
;	COMDAT ?_AtlInitializeCriticalSectionEx@ATL@@YAHPAU_RTL_CRITICAL_SECTION@@KK@Z
_TEXT	SEGMENT
_lpCriticalSection$ = 8					; size = 4
_dwSpinCount$ = 12					; size = 4
_Flags$ = 16						; size = 4
?_AtlInitializeCriticalSectionEx@ATL@@YAHPAU_RTL_CRITICAL_SECTION@@KK@Z PROC ; ATL::_AtlInitializeCriticalSectionEx, COMDAT

; 727  : {

  00000	55		 push	 ebp
  00001	8b ec		 mov	 ebp, esp

; 728  : #if (NTDDI_VERSION >= NTDDI_VISTA) && !defined(_USING_V110_SDK71_) && !defined(_ATL_XP_TARGETING)
; 729  : 	// InitializeCriticalSectionEx is available in Vista or later, desktop or store apps
; 730  : 	return ::InitializeCriticalSectionEx(lpCriticalSection, dwSpinCount, Flags);

  00003	ff 75 10	 push	 DWORD PTR _Flags$[ebp]
  00006	ff 75 0c	 push	 DWORD PTR _dwSpinCount$[ebp]
  00009	ff 75 08	 push	 DWORD PTR _lpCriticalSection$[ebp]
  0000c	ff 15 00 00 00
	00		 call	 DWORD PTR __imp__InitializeCriticalSectionEx@12

; 731  : #else
; 732  : 	UNREFERENCED_PARAMETER(Flags);
; 733  : 
; 734  : 	// ...otherwise fall back to using InitializeCriticalSectionAndSpinCount.
; 735  : 	return ::InitializeCriticalSectionAndSpinCount(lpCriticalSection, dwSpinCount);
; 736  : #endif
; 737  : }

  00012	5d		 pop	 ebp
  00013	c3		 ret	 0
?_AtlInitializeCriticalSectionEx@ATL@@YAHPAU_RTL_CRITICAL_SECTION@@KK@Z ENDP ; ATL::_AtlInitializeCriticalSectionEx
_TEXT	ENDS
; Function compile flags: /Ogtp
; File C:\Program Files (x86)\Microsoft Visual Studio\2019\Community\VC\Tools\MSVC\14.29.30133\atlmfc\include\atlexcept.h
;	COMDAT ?_AtlRaiseException@ATL@@YAXKK@Z
_TEXT	SEGMENT
_dwExceptionCode$ = 8					; size = 4
_dwExceptionFlags$ = 12					; size = 4
?_AtlRaiseException@ATL@@YAXKK@Z PROC			; ATL::_AtlRaiseException, COMDAT

; 30   : {

  00000	55		 push	 ebp
  00001	8b ec		 mov	 ebp, esp

; 31   : 	RaiseException( dwExceptionCode, dwExceptionFlags, 0, NULL );

  00003	6a 00		 push	 0
  00005	6a 00		 push	 0
  00007	ff 75 0c	 push	 DWORD PTR _dwExceptionFlags$[ebp]
  0000a	ff 75 08	 push	 DWORD PTR _dwExceptionCode$[ebp]
  0000d	ff 15 00 00 00
	00		 call	 DWORD PTR __imp__RaiseException@16

; 32   : }

  00013	5d		 pop	 ebp
  00014	c3		 ret	 0
?_AtlRaiseException@ATL@@YAXKK@Z ENDP			; ATL::_AtlRaiseException
_TEXT	ENDS
; Function compile flags: /Ogtp
; File C:\Program Files (x86)\Microsoft Visual Studio\2019\Community\VC\Tools\MSVC\14.29.30133\atlmfc\include\afx.inl
;	COMDAT ?Dump@CObject@@UBEXAAVCDumpContext@@@Z
_TEXT	SEGMENT
___formal$ = 8						; size = 4
?Dump@CObject@@UBEXAAVCDumpContext@@@Z PROC		; CObject::Dump, COMDAT
; _this$ = ecx

; 122  : 	{ /* no dumping in release builds */ }

  00000	c2 04 00	 ret	 4
?Dump@CObject@@UBEXAAVCDumpContext@@@Z ENDP		; CObject::Dump
_TEXT	ENDS
; Function compile flags: /Ogtp
; File C:\Program Files (x86)\Microsoft Visual Studio\2019\Community\VC\Tools\MSVC\14.29.30133\atlmfc\include\afx.inl
;	COMDAT ?AssertValid@CObject@@UBEXXZ
_TEXT	SEGMENT
?AssertValid@CObject@@UBEXXZ PROC			; CObject::AssertValid, COMDAT
; _this$ = ecx

; 120  : 	{ /* no asserts in release builds */ }

  00000	c2 00 00	 ret	 0
?AssertValid@CObject@@UBEXXZ ENDP			; CObject::AssertValid
_TEXT	ENDS
; Function compile flags: /Ogtp
; File C:\Program Files (x86)\Microsoft Visual Studio\2019\Community\VC\Tools\MSVC\14.29.30133\atlmfc\include\afx.inl
;	COMDAT ?Serialize@CObject@@UAEXAAVCArchive@@@Z
_TEXT	SEGMENT
___formal$ = 8						; size = 4
?Serialize@CObject@@UAEXAAVCArchive@@@Z PROC		; CObject::Serialize, COMDAT
; _this$ = ecx

; 106  : 	{ /* CObject does not serialize anything by default */ }

  00000	c2 04 00	 ret	 4
?Serialize@CObject@@UAEXAAVCArchive@@@Z ENDP		; CObject::Serialize
_TEXT	ENDS
; Function compile flags: /Ogtp
; File C:\Program Files (x86)\Windows Kits\10\Include\10.0.22000.0\ucrt\stdio.h
;	COMDAT _sprintf
_TEXT	SEGMENT
__Buffer$ = 8						; size = 4
__Format$ = 12						; size = 4
_sprintf PROC						; COMDAT

; 1771 :     {

  00000	55		 push	 ebp
  00001	8b ec		 mov	 ebp, esp

; 1392 :         int const _Result = __stdio_common_vsprintf(

  00003	8d 45 10	 lea	 eax, DWORD PTR __Format$[ebp+4]
  00006	50		 push	 eax
  00007	6a 00		 push	 0
  00009	ff 75 0c	 push	 DWORD PTR __Format$[ebp]
  0000c	6a ff		 push	 -1
  0000e	ff 75 08	 push	 DWORD PTR __Buffer$[ebp]
  00011	e8 00 00 00 00	 call	 ___local_stdio_printf_options
  00016	8b 08		 mov	 ecx, DWORD PTR [eax]
  00018	ff 70 04	 push	 DWORD PTR [eax+4]
  0001b	83 c9 01	 or	 ecx, 1
  0001e	51		 push	 ecx
  0001f	ff 15 00 00 00
	00		 call	 DWORD PTR __imp____stdio_common_vsprintf

; 1393 :             _CRT_INTERNAL_LOCAL_PRINTF_OPTIONS | _CRT_INTERNAL_PRINTF_LEGACY_VSPRINTF_NULL_TERMINATION,
; 1394 :             _Buffer, _BufferCount, _Format, _Locale, _ArgList);
; 1395 : 
; 1396 :         return _Result < 0 ? -1 : _Result;

  00025	83 c9 ff	 or	 ecx, -1
  00028	83 c4 1c	 add	 esp, 28			; 0000001cH
  0002b	85 c0		 test	 eax, eax
  0002d	0f 48 c1	 cmovs	 eax, ecx

; 1772 :         int _Result;
; 1773 :         va_list _ArgList;
; 1774 :         __crt_va_start(_ArgList, _Format);
; 1775 : 
; 1776 :         _Result = _vsprintf_l(_Buffer, _Format, NULL, _ArgList);
; 1777 : 
; 1778 :         __crt_va_end(_ArgList);
; 1779 :         return _Result;
; 1780 :     }

  00030	5d		 pop	 ebp
  00031	c3		 ret	 0
_sprintf ENDP
_TEXT	ENDS
; Function compile flags: /Ogtp
; File C:\Program Files (x86)\Windows Kits\10\Include\10.0.22000.0\ucrt\corecrt_stdio_config.h
;	COMDAT ___local_stdio_printf_options
_TEXT	SEGMENT
___local_stdio_printf_options PROC			; COMDAT

; 91   :         static unsigned __int64 _OptionsStorage;
; 92   :         return &_OptionsStorage;

  00000	b8 00 00 00 00	 mov	 eax, OFFSET ?_OptionsStorage@?1??__local_stdio_printf_options@@9@4_KA ; `__local_stdio_printf_options'::`2'::_OptionsStorage

; 93   :     }

  00005	c3		 ret	 0
___local_stdio_printf_options ENDP
_TEXT	ENDS
; Function compile flags: /Ogtp
; File D:\git\src\IBK\IBK_DRFN\ProjSrc\SrcDrfn\Chart\MULTICHART\SetCycleDlg.cpp
;	COMDAT ?__empty_global_delete@@YAXPAXI@Z
_TEXT	SEGMENT
___formal$ = 8						; size = 4
___formal$ = 12						; size = 4
?__empty_global_delete@@YAXPAXI@Z PROC			; __empty_global_delete, COMDAT

  00000	c2 00 00	 ret	 0
?__empty_global_delete@@YAXPAXI@Z ENDP			; __empty_global_delete
_TEXT	ENDS
; Function compile flags: /Ogtp
; File D:\git\src\IBK\IBK_DRFN\ProjSrc\SrcDrfn\Chart\MULTICHART\SetCycleDlg.cpp
;	COMDAT ?__empty_global_delete@@YAXPAX@Z
_TEXT	SEGMENT
___formal$ = 8						; size = 4
?__empty_global_delete@@YAXPAX@Z PROC			; __empty_global_delete, COMDAT

  00000	c2 00 00	 ret	 0
?__empty_global_delete@@YAXPAX@Z ENDP			; __empty_global_delete
_TEXT	ENDS
END
