; Listing generated by Microsoft (R) Optimizing Compiler Version 19.29.30145.0 

	TITLE	D:\git\src\IBK\IBK_DRFN\#DRfn-CS\_Obj\MultiChart\StdDialog.obj
	.686P
	.XMM
	include listing.inc
	.model	flat

INCLUDELIB MSVCRT
INCLUDELIB OLDNAMES

PUBLIC	??_C@_0BD@BFILGGNC@RMSG_TABCODESEARCH@		; `string'
PUBLIC	?m_nChartImgCnt15X15@CStdDialog@@2FA		; CStdDialog::m_nChartImgCnt15X15
PUBLIC	?m_nChartImgCnt20X20@CStdDialog@@2FA		; CStdDialog::m_nChartImgCnt20X20
PUBLIC	?m_nChartImgCnt20X20Tool@CStdDialog@@2FA	; CStdDialog::m_nChartImgCnt20X20Tool
PUBLIC	?m_nChartImgCnt46X20@CStdDialog@@2FA		; CStdDialog::m_nChartImgCnt46X20
PUBLIC	?m_nChartImgCnt50X20@CStdDialog@@2FA		; CStdDialog::m_nChartImgCnt50X20
PUBLIC	?m_nChartImgCnt28X22@CStdDialog@@2FA		; CStdDialog::m_nChartImgCnt28X22
PUBLIC	?m_nChartImgCnt17X20@CStdDialog@@2FA		; CStdDialog::m_nChartImgCnt17X20
PUBLIC	?m_nChartImgCnt43X20@CStdDialog@@2FA		; CStdDialog::m_nChartImgCnt43X20
PUBLIC	?m_nChartImgCnt58X20@CStdDialog@@2FA		; CStdDialog::m_nChartImgCnt58X20
PUBLIC	?m_nChartImgCnt46X20Gwan@CStdDialog@@2FA	; CStdDialog::m_nChartImgCnt46X20Gwan
PUBLIC	?m_nChartImgCnt8X25@CStdDialog@@2FA		; CStdDialog::m_nChartImgCnt8X25
PUBLIC	?m_nChartImgCnt151X21@CStdDialog@@2FA		; CStdDialog::m_nChartImgCnt151X21
PUBLIC	?m_nChartImgCnt72X20@CStdDialog@@2FA		; CStdDialog::m_nChartImgCnt72X20
PUBLIC	?SetOpenMapData@CStdDialog@@IAEXPBDF@Z		; CStdDialog::SetOpenMapData
PUBLIC	?_dispatchEntries@CStdDialog@@0QBUAFX_DISPMAP_ENTRY@@B ; CStdDialog::_dispatchEntries
PUBLIC	?_dispatchEntryCount@CStdDialog@@0IA		; CStdDialog::_dispatchEntryCount
PUBLIC	?_dwStockPropMask@CStdDialog@@0KA		; CStdDialog::_dwStockPropMask
PUBLIC	?_interfaceEntries@CStdDialog@@0QBUAFX_INTERFACEMAP_ENTRY@@B ; CStdDialog::_interfaceEntries
PUBLIC	??_C@_0BG@OHIMHJEO@RMSG_STTREE_ITEMCLICK@	; `string'
PUBLIC	??_C@_0BH@LAAMLACL@RMSG_STTREE_ITEMDBLCLK@	; `string'
PUBLIC	?WM_ATLGETHOST@ATL@@3IA				; ATL::WM_ATLGETHOST
PUBLIC	?WM_ATLGETCONTROL@ATL@@3IA			; ATL::WM_ATLGETCONTROL
PUBLIC	??_C@_0O@HHMOJFDI@RMSG_USERINFO@		; `string'
PUBLIC	??_C@_0BE@NDEHHIKO@RMSG_GET_SCREENTYPE@		; `string'
PUBLIC	??_C@_0BC@EMJBLAB@RMSG_GET_TEMPDATA@		; `string'
PUBLIC	??_C@_0BG@PGBAIHFH@RMSG_GET_LINKINFODATA@	; `string'
PUBLIC	??_C@_0BO@FAIBFAOP@RMSG_GET_ITEMNAMEFORMITEMCODE@ ; `string'
PUBLIC	??_C@_0CA@FHFNGIFF@RMSG_GET_MARKETTYPEFORMITEMCODE@ ; `string'
PUBLIC	??_C@_0BN@KPLKAELL@RMSG_SET_CODEINPUTMARKETTYPE@ ; `string'
PUBLIC	??_C@_0BF@LDAKKMOC@RMSG_GET_ACCOUNTLIST@	; `string'
PUBLIC	??_C@_0BG@GBEFGMPC@RMSG_SET_ITEMCODENAME@	; `string'
PUBLIC	??_C@_0BA@IGMGIDAO@RMSG_OPENSCREEN@		; `string'
PUBLIC	??_C@_0BC@BHOBNGCN@RMSG_GET_HOSTDATE@		; `string'
PUBLIC	??_C@_0BB@GEHFOKJF@RMSG_GET_ACCTNUM@		; `string'
PUBLIC	??_C@_0BD@MLBJJLKN@RMSG_CHANGEACCTNUM@		; `string'
PUBLIC	??_C@_0BG@JLMPEHPO@RMSG_SET_PASSWORDINFO@	; `string'
PUBLIC	??_C@_0BC@JEJBDNND@RMSG_FORMLOADSAVE@		; `string'
PUBLIC	??_C@_0BH@OIMPLGOA@RMSG_RECEIVEREPLAYDATA@	; `string'
PUBLIC	??_C@_0BA@OMAGPMPN@RMSG_GET_TRCOMM@		; `string'
PUBLIC	??_C@_0P@EPMNADFM@SetOpenMapData@		; `string'
PUBLIC	??_C@_02DIBGGJGF@?$AO?$AC@			; `string'
PUBLIC	??_C@_0M@LPFHDJI@RMSG_DRUSER@			; `string'
PUBLIC	??_C@_0P@BKKCOCLK@RMSG_INTERFACE@		; `string'
PUBLIC	?m_bInitFailed@CAtlBaseModule@ATL@@2_NA		; ATL::CAtlBaseModule::m_bInitFailed
PUBLIC	??_C@_0BB@IBKHOHJL@RMSG_REPLAY_REAL@		; `string'
PUBLIC	??_C@_0BB@JFLGBADG@RMSG_REPLAY_FAIL@		; `string'
PUBLIC	??_C@_0BI@KDGAIIMD@RMSG_REPLAY_CHANGE_DATE@	; `string'
PUBLIC	??_C@_0BA@NKHHCPON@RMSG_REPLAY_END@		; `string'
PUBLIC	??_C@_0BE@JFCIMCIP@RMSG_REPLAY_INC_SEC@		; `string'
PUBLIC	??_C@_0BG@GIAJEIJF@RMSG_REPLAY_TOTAL_SEC@	; `string'
PUBLIC	??_C@_0BE@FJPKENOB@RMSG_GETSIGNAL_REAL@		; `string'
PUBLIC	??_C@_0BB@CNOFPEHG@RMSG_SETQUERYOPT@		; `string'
PUBLIC	??_C@_0P@KHFCBIOH@RMSG_CHARTMAIN@		; `string'
PUBLIC	??_C@_0BC@MMPGLPDH@RMS_ANALYSIS_FUNC@		; `string'
PUBLIC	??_C@_0BA@HKNFENJL@RMSG_GET_USERID@		; `string'
PUBLIC	??_C@_0BG@CNPAHNGG@RMSG_CHANGE_SKINCOLOR@	; `string'
PUBLIC	??_C@_0BD@FLDNDDHK@RMSG_GET_SKINCOLOR@		; `string'
PUBLIC	??_C@_0BJ@JLKHIBIK@RMSG_CHANGEVERTSCALETYPE@	; `string'
PUBLIC	??_C@_0BG@LNLCJKPF@RMSG_CHANGE_CROSSLINE@	; `string'
PUBLIC	??_C@_0BH@IFDMIMBP@RMSG_ADD_PLATFORM_MENU@	; `string'
PUBLIC	??_C@_0BJ@OGNAJHHI@RMSG_SETINITIALCHARTDATA@	; `string'
PUBLIC	??_C@_0N@IIOKMIEH@RMSG_GETINFO@			; `string'
PUBLIC	??_C@_0N@HABLPHJG@RMSG_SETINFO@			; `string'
PUBLIC	??_C@_0BE@LPIAJPJA@RMSG_GET_STDDLG_PTR@		; `string'
PUBLIC	??_C@_0BC@FHIPKCJJ@RMSG_FROMCODELIST@		; `string'
PUBLIC	??_C@_0BC@GGHIPHFD@RMSG_SETSHAREDATA@		; `string'
PUBLIC	??_C@_0O@JLGCPGDL@RMSG_OPENMAP2@		; `string'
PUBLIC	??_C@_0BL@ONHOHGGM@RMSG_FROMHOGAJUMUN_DESTROY@	; `string'
PUBLIC	??_C@_0BJ@LMIHANJC@RMSG_HOGACHANGEDATA_CODE@	; `string'
PUBLIC	??_C@_0BJ@NKAHNENP@RMSG_HOGACHANGEDATA_ACCT@	; `string'
PUBLIC	??_C@_0BA@OPONGCEC@RMSG_SHARED_PIN@		; `string'
PUBLIC	??_C@_0BE@NAJONFKO@RMSG_RESIZEFROMGWAN@		; `string'
PUBLIC	??_C@_0BB@JOGLHCCG@RMSG_MESSAGESHOW@		; `string'
PUBLIC	??_C@_0BC@ICLGGCHO@RMSG_GETSKINVALUE@		; `string'
PUBLIC	??_C@_0P@JJCNALBJ@RMSG_DRAGSTART@		; `string'
PUBLIC	??_C@_0N@HCNBEPNP@RMSG_DRAGEND@			; `string'
PUBLIC	?_pAtlModule@ATL@@3PAVCAtlModule@1@A		; ATL::_pAtlModule
PUBLIC	?_pAtlAutoThreadModule@ATL@@3PAUIAtlAutoThreadModule@1@A ; ATL::_pAtlAutoThreadModule
EXTRN	?_AtlBaseModule@ATL@@3VCAtlBaseModule@1@A:BYTE	; ATL::_AtlBaseModule
_BSS	SEGMENT
?m_nChartImgCnt15X15@CStdDialog@@2FA DW 01H DUP (?)	; CStdDialog::m_nChartImgCnt15X15
	ALIGN	4

?m_nChartImgCnt20X20@CStdDialog@@2FA DW 01H DUP (?)	; CStdDialog::m_nChartImgCnt20X20
	ALIGN	4

?m_nChartImgCnt20X20Tool@CStdDialog@@2FA DW 01H DUP (?)	; CStdDialog::m_nChartImgCnt20X20Tool
	ALIGN	4

?m_nChartImgCnt46X20@CStdDialog@@2FA DW 01H DUP (?)	; CStdDialog::m_nChartImgCnt46X20
	ALIGN	4

?m_nChartImgCnt50X20@CStdDialog@@2FA DW 01H DUP (?)	; CStdDialog::m_nChartImgCnt50X20
	ALIGN	4

?m_nChartImgCnt28X22@CStdDialog@@2FA DW 01H DUP (?)	; CStdDialog::m_nChartImgCnt28X22
	ALIGN	4

?m_nChartImgCnt17X20@CStdDialog@@2FA DW 01H DUP (?)	; CStdDialog::m_nChartImgCnt17X20
	ALIGN	4

?m_nChartImgCnt43X20@CStdDialog@@2FA DW 01H DUP (?)	; CStdDialog::m_nChartImgCnt43X20
	ALIGN	4

?m_nChartImgCnt58X20@CStdDialog@@2FA DW 01H DUP (?)	; CStdDialog::m_nChartImgCnt58X20
	ALIGN	4

?m_nChartImgCnt46X20Gwan@CStdDialog@@2FA DW 01H DUP (?)	; CStdDialog::m_nChartImgCnt46X20Gwan
	ALIGN	4

?m_nChartImgCnt8X25@CStdDialog@@2FA DW 01H DUP (?)	; CStdDialog::m_nChartImgCnt8X25
	ALIGN	4

?m_nChartImgCnt151X21@CStdDialog@@2FA DW 01H DUP (?)	; CStdDialog::m_nChartImgCnt151X21
	ALIGN	4

?m_nChartImgCnt72X20@CStdDialog@@2FA DW 01H DUP (?)	; CStdDialog::m_nChartImgCnt72X20
_BSS	ENDS
;	COMDAT ?WM_ATLGETHOST@ATL@@3IA
_BSS	SEGMENT
?WM_ATLGETHOST@ATL@@3IA DD 01H DUP (?)			; ATL::WM_ATLGETHOST
_BSS	ENDS
;	COMDAT ?WM_ATLGETCONTROL@ATL@@3IA
_BSS	SEGMENT
?WM_ATLGETCONTROL@ATL@@3IA DD 01H DUP (?)		; ATL::WM_ATLGETCONTROL
_BSS	ENDS
;	COMDAT ?m_bInitFailed@CAtlBaseModule@ATL@@2_NA
_BSS	SEGMENT
?m_bInitFailed@CAtlBaseModule@ATL@@2_NA DB 01H DUP (?)	; ATL::CAtlBaseModule::m_bInitFailed
_BSS	ENDS
;	COMDAT ?_pAtlModule@ATL@@3PAVCAtlModule@1@A
_BSS	SEGMENT
?_pAtlModule@ATL@@3PAVCAtlModule@1@A DD 01H DUP (?)	; ATL::_pAtlModule
_BSS	ENDS
;	COMDAT ?_pAtlAutoThreadModule@ATL@@3PAUIAtlAutoThreadModule@1@A
_BSS	SEGMENT
?_pAtlAutoThreadModule@ATL@@3PAUIAtlAutoThreadModule@1@A DD 01H DUP (?) ; ATL::_pAtlAutoThreadModule
_BSS	ENDS
;	COMDAT ??_C@_0N@HCNBEPNP@RMSG_DRAGEND@
CONST	SEGMENT
??_C@_0N@HCNBEPNP@RMSG_DRAGEND@ DB 'RMSG_DRAGEND', 00H	; `string'
CONST	ENDS
;	COMDAT ??_C@_0P@JJCNALBJ@RMSG_DRAGSTART@
CONST	SEGMENT
??_C@_0P@JJCNALBJ@RMSG_DRAGSTART@ DB 'RMSG_DRAGSTART', 00H ; `string'
CONST	ENDS
;	COMDAT ??_C@_0BC@ICLGGCHO@RMSG_GETSKINVALUE@
CONST	SEGMENT
??_C@_0BC@ICLGGCHO@RMSG_GETSKINVALUE@ DB 'RMSG_GETSKINVALUE', 00H ; `string'
CONST	ENDS
;	COMDAT ??_C@_0BB@JOGLHCCG@RMSG_MESSAGESHOW@
CONST	SEGMENT
??_C@_0BB@JOGLHCCG@RMSG_MESSAGESHOW@ DB 'RMSG_MESSAGESHOW', 00H ; `string'
CONST	ENDS
;	COMDAT ??_C@_0BE@NAJONFKO@RMSG_RESIZEFROMGWAN@
CONST	SEGMENT
??_C@_0BE@NAJONFKO@RMSG_RESIZEFROMGWAN@ DB 'RMSG_RESIZEFROMGWAN', 00H ; `string'
CONST	ENDS
;	COMDAT ??_C@_0BA@OPONGCEC@RMSG_SHARED_PIN@
CONST	SEGMENT
??_C@_0BA@OPONGCEC@RMSG_SHARED_PIN@ DB 'RMSG_SHARED_PIN', 00H ; `string'
CONST	ENDS
;	COMDAT ??_C@_0BJ@NKAHNENP@RMSG_HOGACHANGEDATA_ACCT@
CONST	SEGMENT
??_C@_0BJ@NKAHNENP@RMSG_HOGACHANGEDATA_ACCT@ DB 'RMSG_HOGACHANGEDATA_ACCT'
	DB	00H						; `string'
CONST	ENDS
;	COMDAT ??_C@_0BJ@LMIHANJC@RMSG_HOGACHANGEDATA_CODE@
CONST	SEGMENT
??_C@_0BJ@LMIHANJC@RMSG_HOGACHANGEDATA_CODE@ DB 'RMSG_HOGACHANGEDATA_CODE'
	DB	00H						; `string'
CONST	ENDS
;	COMDAT ??_C@_0BL@ONHOHGGM@RMSG_FROMHOGAJUMUN_DESTROY@
CONST	SEGMENT
??_C@_0BL@ONHOHGGM@RMSG_FROMHOGAJUMUN_DESTROY@ DB 'RMSG_FROMHOGAJUMUN_DES'
	DB	'TROY', 00H					; `string'
CONST	ENDS
;	COMDAT ??_C@_0O@JLGCPGDL@RMSG_OPENMAP2@
CONST	SEGMENT
??_C@_0O@JLGCPGDL@RMSG_OPENMAP2@ DB 'RMSG_OPENMAP2', 00H ; `string'
CONST	ENDS
;	COMDAT ??_C@_0BC@GGHIPHFD@RMSG_SETSHAREDATA@
CONST	SEGMENT
??_C@_0BC@GGHIPHFD@RMSG_SETSHAREDATA@ DB 'RMSG_SETSHAREDATA', 00H ; `string'
CONST	ENDS
;	COMDAT ??_C@_0BC@FHIPKCJJ@RMSG_FROMCODELIST@
CONST	SEGMENT
??_C@_0BC@FHIPKCJJ@RMSG_FROMCODELIST@ DB 'RMSG_FROMCODELIST', 00H ; `string'
CONST	ENDS
;	COMDAT ??_C@_0BE@LPIAJPJA@RMSG_GET_STDDLG_PTR@
CONST	SEGMENT
??_C@_0BE@LPIAJPJA@RMSG_GET_STDDLG_PTR@ DB 'RMSG_GET_STDDLG_PTR', 00H ; `string'
CONST	ENDS
;	COMDAT ??_C@_0N@HABLPHJG@RMSG_SETINFO@
CONST	SEGMENT
??_C@_0N@HABLPHJG@RMSG_SETINFO@ DB 'RMSG_SETINFO', 00H	; `string'
CONST	ENDS
;	COMDAT ??_C@_0N@IIOKMIEH@RMSG_GETINFO@
CONST	SEGMENT
??_C@_0N@IIOKMIEH@RMSG_GETINFO@ DB 'RMSG_GETINFO', 00H	; `string'
CONST	ENDS
;	COMDAT ??_C@_0BJ@OGNAJHHI@RMSG_SETINITIALCHARTDATA@
CONST	SEGMENT
??_C@_0BJ@OGNAJHHI@RMSG_SETINITIALCHARTDATA@ DB 'RMSG_SETINITIALCHARTDATA'
	DB	00H						; `string'
CONST	ENDS
;	COMDAT ??_C@_0BH@IFDMIMBP@RMSG_ADD_PLATFORM_MENU@
CONST	SEGMENT
??_C@_0BH@IFDMIMBP@RMSG_ADD_PLATFORM_MENU@ DB 'RMSG_ADD_PLATFORM_MENU', 00H ; `string'
CONST	ENDS
;	COMDAT ??_C@_0BG@LNLCJKPF@RMSG_CHANGE_CROSSLINE@
CONST	SEGMENT
??_C@_0BG@LNLCJKPF@RMSG_CHANGE_CROSSLINE@ DB 'RMSG_CHANGE_CROSSLINE', 00H ; `string'
CONST	ENDS
;	COMDAT ??_C@_0BJ@JLKHIBIK@RMSG_CHANGEVERTSCALETYPE@
CONST	SEGMENT
??_C@_0BJ@JLKHIBIK@RMSG_CHANGEVERTSCALETYPE@ DB 'RMSG_CHANGEVERTSCALETYPE'
	DB	00H						; `string'
CONST	ENDS
;	COMDAT ??_C@_0BD@FLDNDDHK@RMSG_GET_SKINCOLOR@
CONST	SEGMENT
??_C@_0BD@FLDNDDHK@RMSG_GET_SKINCOLOR@ DB 'RMSG_GET_SKINCOLOR', 00H ; `string'
CONST	ENDS
;	COMDAT ??_C@_0BG@CNPAHNGG@RMSG_CHANGE_SKINCOLOR@
CONST	SEGMENT
??_C@_0BG@CNPAHNGG@RMSG_CHANGE_SKINCOLOR@ DB 'RMSG_CHANGE_SKINCOLOR', 00H ; `string'
CONST	ENDS
;	COMDAT ??_C@_0BA@HKNFENJL@RMSG_GET_USERID@
CONST	SEGMENT
??_C@_0BA@HKNFENJL@RMSG_GET_USERID@ DB 'RMSG_GET_USERID', 00H ; `string'
CONST	ENDS
;	COMDAT ??_C@_0BC@MMPGLPDH@RMS_ANALYSIS_FUNC@
CONST	SEGMENT
??_C@_0BC@MMPGLPDH@RMS_ANALYSIS_FUNC@ DB 'RMS_ANALYSIS_FUNC', 00H ; `string'
CONST	ENDS
;	COMDAT ??_C@_0P@KHFCBIOH@RMSG_CHARTMAIN@
CONST	SEGMENT
??_C@_0P@KHFCBIOH@RMSG_CHARTMAIN@ DB 'RMSG_CHARTMAIN', 00H ; `string'
CONST	ENDS
;	COMDAT ??_C@_0BB@CNOFPEHG@RMSG_SETQUERYOPT@
CONST	SEGMENT
??_C@_0BB@CNOFPEHG@RMSG_SETQUERYOPT@ DB 'RMSG_SETQUERYOPT', 00H ; `string'
CONST	ENDS
;	COMDAT ??_C@_0BE@FJPKENOB@RMSG_GETSIGNAL_REAL@
CONST	SEGMENT
??_C@_0BE@FJPKENOB@RMSG_GETSIGNAL_REAL@ DB 'RMSG_GETSIGNAL_REAL', 00H ; `string'
CONST	ENDS
;	COMDAT ??_C@_0BG@GIAJEIJF@RMSG_REPLAY_TOTAL_SEC@
CONST	SEGMENT
??_C@_0BG@GIAJEIJF@RMSG_REPLAY_TOTAL_SEC@ DB 'RMSG_REPLAY_TOTAL_SEC', 00H ; `string'
CONST	ENDS
;	COMDAT ??_C@_0BE@JFCIMCIP@RMSG_REPLAY_INC_SEC@
CONST	SEGMENT
??_C@_0BE@JFCIMCIP@RMSG_REPLAY_INC_SEC@ DB 'RMSG_REPLAY_INC_SEC', 00H ; `string'
CONST	ENDS
;	COMDAT ??_C@_0BA@NKHHCPON@RMSG_REPLAY_END@
CONST	SEGMENT
??_C@_0BA@NKHHCPON@RMSG_REPLAY_END@ DB 'RMSG_REPLAY_END', 00H ; `string'
CONST	ENDS
;	COMDAT ??_C@_0BI@KDGAIIMD@RMSG_REPLAY_CHANGE_DATE@
CONST	SEGMENT
??_C@_0BI@KDGAIIMD@RMSG_REPLAY_CHANGE_DATE@ DB 'RMSG_REPLAY_CHANGE_DATE', 00H ; `string'
CONST	ENDS
;	COMDAT ??_C@_0BB@JFLGBADG@RMSG_REPLAY_FAIL@
CONST	SEGMENT
??_C@_0BB@JFLGBADG@RMSG_REPLAY_FAIL@ DB 'RMSG_REPLAY_FAIL', 00H ; `string'
CONST	ENDS
;	COMDAT ??_C@_0BB@IBKHOHJL@RMSG_REPLAY_REAL@
CONST	SEGMENT
??_C@_0BB@IBKHOHJL@RMSG_REPLAY_REAL@ DB 'RMSG_REPLAY_REAL', 00H ; `string'
CONST	ENDS
;	COMDAT ??_C@_0P@BKKCOCLK@RMSG_INTERFACE@
CONST	SEGMENT
??_C@_0P@BKKCOCLK@RMSG_INTERFACE@ DB 'RMSG_INTERFACE', 00H ; `string'
CONST	ENDS
;	COMDAT ??_C@_0M@LPFHDJI@RMSG_DRUSER@
CONST	SEGMENT
??_C@_0M@LPFHDJI@RMSG_DRUSER@ DB 'RMSG_DRUSER', 00H	; `string'
CONST	ENDS
CONST	SEGMENT
?IID_IStdDialog@@3U_GUID@@B DD 0506c0a8cH		; IID_IStdDialog
	DW	0cbc2H
	DW	04d27H
	DB	0bdH
	DB	067H
	DB	0d4H
	DB	053H
	DB	01aH
	DB	0b6H
	DB	0f5H
	DB	0a8H
CONST	ENDS
;	COMDAT ??_C@_02DIBGGJGF@?$AO?$AC@
CONST	SEGMENT
??_C@_02DIBGGJGF@?$AO?$AC@ DB 0eH, 02H, 00H		; `string'
CONST	ENDS
;	COMDAT ??_C@_0P@EPMNADFM@SetOpenMapData@
CONST	SEGMENT
??_C@_0P@EPMNADFM@SetOpenMapData@ DB 'SetOpenMapData', 00H ; `string'
CONST	ENDS
;	COMDAT ??_C@_0BA@OMAGPMPN@RMSG_GET_TRCOMM@
CONST	SEGMENT
??_C@_0BA@OMAGPMPN@RMSG_GET_TRCOMM@ DB 'RMSG_GET_TRCOMM', 00H ; `string'
CONST	ENDS
;	COMDAT ??_C@_0BH@OIMPLGOA@RMSG_RECEIVEREPLAYDATA@
CONST	SEGMENT
??_C@_0BH@OIMPLGOA@RMSG_RECEIVEREPLAYDATA@ DB 'RMSG_RECEIVEREPLAYDATA', 00H ; `string'
CONST	ENDS
;	COMDAT ??_C@_0BC@JEJBDNND@RMSG_FORMLOADSAVE@
CONST	SEGMENT
??_C@_0BC@JEJBDNND@RMSG_FORMLOADSAVE@ DB 'RMSG_FORMLOADSAVE', 00H ; `string'
CONST	ENDS
;	COMDAT ??_C@_0BG@JLMPEHPO@RMSG_SET_PASSWORDINFO@
CONST	SEGMENT
??_C@_0BG@JLMPEHPO@RMSG_SET_PASSWORDINFO@ DB 'RMSG_SET_PASSWORDINFO', 00H ; `string'
CONST	ENDS
;	COMDAT ??_C@_0BD@MLBJJLKN@RMSG_CHANGEACCTNUM@
CONST	SEGMENT
??_C@_0BD@MLBJJLKN@RMSG_CHANGEACCTNUM@ DB 'RMSG_CHANGEACCTNUM', 00H ; `string'
CONST	ENDS
;	COMDAT ??_C@_0BB@GEHFOKJF@RMSG_GET_ACCTNUM@
CONST	SEGMENT
??_C@_0BB@GEHFOKJF@RMSG_GET_ACCTNUM@ DB 'RMSG_GET_ACCTNUM', 00H ; `string'
CONST	ENDS
;	COMDAT ??_C@_0BC@BHOBNGCN@RMSG_GET_HOSTDATE@
CONST	SEGMENT
??_C@_0BC@BHOBNGCN@RMSG_GET_HOSTDATE@ DB 'RMSG_GET_HOSTDATE', 00H ; `string'
CONST	ENDS
;	COMDAT ??_C@_0BA@IGMGIDAO@RMSG_OPENSCREEN@
CONST	SEGMENT
??_C@_0BA@IGMGIDAO@RMSG_OPENSCREEN@ DB 'RMSG_OPENSCREEN', 00H ; `string'
CONST	ENDS
;	COMDAT ??_C@_0BG@GBEFGMPC@RMSG_SET_ITEMCODENAME@
CONST	SEGMENT
??_C@_0BG@GBEFGMPC@RMSG_SET_ITEMCODENAME@ DB 'RMSG_SET_ITEMCODENAME', 00H ; `string'
CONST	ENDS
;	COMDAT ??_C@_0BF@LDAKKMOC@RMSG_GET_ACCOUNTLIST@
CONST	SEGMENT
??_C@_0BF@LDAKKMOC@RMSG_GET_ACCOUNTLIST@ DB 'RMSG_GET_ACCOUNTLIST', 00H ; `string'
CONST	ENDS
;	COMDAT ??_C@_0BN@KPLKAELL@RMSG_SET_CODEINPUTMARKETTYPE@
CONST	SEGMENT
??_C@_0BN@KPLKAELL@RMSG_SET_CODEINPUTMARKETTYPE@ DB 'RMSG_SET_CODEINPUTMA'
	DB	'RKETTYPE', 00H				; `string'
CONST	ENDS
;	COMDAT ??_C@_0CA@FHFNGIFF@RMSG_GET_MARKETTYPEFORMITEMCODE@
CONST	SEGMENT
??_C@_0CA@FHFNGIFF@RMSG_GET_MARKETTYPEFORMITEMCODE@ DB 'RMSG_GET_MARKETTY'
	DB	'PEFORMITEMCODE', 00H			; `string'
CONST	ENDS
;	COMDAT ??_C@_0BO@FAIBFAOP@RMSG_GET_ITEMNAMEFORMITEMCODE@
CONST	SEGMENT
??_C@_0BO@FAIBFAOP@RMSG_GET_ITEMNAMEFORMITEMCODE@ DB 'RMSG_GET_ITEMNAMEFO'
	DB	'RMITEMCODE', 00H				; `string'
CONST	ENDS
;	COMDAT ??_C@_0BG@PGBAIHFH@RMSG_GET_LINKINFODATA@
CONST	SEGMENT
??_C@_0BG@PGBAIHFH@RMSG_GET_LINKINFODATA@ DB 'RMSG_GET_LINKINFODATA', 00H ; `string'
CONST	ENDS
;	COMDAT ??_C@_0BC@EMJBLAB@RMSG_GET_TEMPDATA@
CONST	SEGMENT
??_C@_0BC@EMJBLAB@RMSG_GET_TEMPDATA@ DB 'RMSG_GET_TEMPDATA', 00H ; `string'
CONST	ENDS
;	COMDAT ??_C@_0BE@NDEHHIKO@RMSG_GET_SCREENTYPE@
CONST	SEGMENT
??_C@_0BE@NDEHHIKO@RMSG_GET_SCREENTYPE@ DB 'RMSG_GET_SCREENTYPE', 00H ; `string'
CONST	ENDS
;	COMDAT ??_C@_0O@HHMOJFDI@RMSG_USERINFO@
CONST	SEGMENT
??_C@_0O@HHMOJFDI@RMSG_USERINFO@ DB 'RMSG_USERINFO', 00H ; `string'
CONST	ENDS
;	COMDAT ??_C@_0BH@LAAMLACL@RMSG_STTREE_ITEMDBLCLK@
CONST	SEGMENT
??_C@_0BH@LAAMLACL@RMSG_STTREE_ITEMDBLCLK@ DB 'RMSG_STTREE_ITEMDBLCLK', 00H ; `string'
CONST	ENDS
;	COMDAT ??_C@_0BG@OHIMHJEO@RMSG_STTREE_ITEMCLICK@
CONST	SEGMENT
??_C@_0BG@OHIMHJEO@RMSG_STTREE_ITEMCLICK@ DB 'RMSG_STTREE_ITEMCLICK', 00H ; `string'
CONST	ENDS
;	COMDAT ?_interfaceEntries@CStdDialog@@0QBUAFX_INTERFACEMAP_ENTRY@@B
CONST	SEGMENT
?_interfaceEntries@CStdDialog@@0QBUAFX_INTERFACEMAP_ENTRY@@B DD FLAT:?IID_IStdDialog@@3U_GUID@@B ; CStdDialog::_interfaceEntries
	DD	010H
	DD	00H
	DD	0ffffffffH
CONST	ENDS
;	COMDAT ?_dwStockPropMask@CStdDialog@@0KA
_DATA	SEGMENT
?_dwStockPropMask@CStdDialog@@0KA DD 0ffffffffH		; CStdDialog::_dwStockPropMask
_DATA	ENDS
;	COMDAT ?_dispatchEntryCount@CStdDialog@@0IA
_DATA	SEGMENT
?_dispatchEntryCount@CStdDialog@@0IA DD 0ffffffffH	; CStdDialog::_dispatchEntryCount
_DATA	ENDS
;	COMDAT ?_dispatchEntries@CStdDialog@@0QBUAFX_DISPMAP_ENTRY@@B
CONST	SEGMENT
?_dispatchEntries@CStdDialog@@0QBUAFX_DISPMAP_ENTRY@@B DD FLAT:??_C@_0P@EPMNADFM@SetOpenMapData@ ; CStdDialog::_dispatchEntries
	DD	0ffffffffH
	DD	FLAT:??_C@_02DIBGGJGF@?$AO?$AC@
	DW	00H
	ORG $+2
	DD	FLAT:?SetOpenMapData@CStdDialog@@IAEXPBDF@Z
	DD	00H
	DD	00H
	DD	00H
	DD	00H
	DD	0ffffffffH
	DD	00H
	DW	018H
	ORG $+2
	DD	00H
	DD	00H
	DD	0ffffffffH
	DD	00H
CONST	ENDS
;	COMDAT ??_C@_0BD@BFILGGNC@RMSG_TABCODESEARCH@
CONST	SEGMENT
??_C@_0BD@BFILGGNC@RMSG_TABCODESEARCH@ DB 'RMSG_TABCODESEARCH', 00H ; `string'
CONST	ENDS
PUBLIC	?__empty_global_delete@@YAXPAX@Z		; __empty_global_delete
PUBLIC	?__empty_global_delete@@YAXPAXI@Z		; __empty_global_delete
PUBLIC	___local_stdio_printf_options
PUBLIC	___local_stdio_scanf_options
PUBLIC	_sprintf
PUBLIC	_sscanf
PUBLIC	?AfxCrtErrorCheck@@YAHH@Z			; AfxCrtErrorCheck
PUBLIC	??1CObject@@UAE@XZ				; CObject::~CObject
PUBLIC	??3CObject@@SGXPAX@Z				; CObject::operator delete
PUBLIC	?Serialize@CObject@@UAEXAAVCArchive@@@Z		; CObject::Serialize
PUBLIC	?AssertValid@CObject@@UBEXXZ			; CObject::AssertValid
PUBLIC	?Dump@CObject@@UBEXAAVCDumpContext@@@Z		; CObject::Dump
PUBLIC	?_AtlRaiseException@ATL@@YAXKK@Z		; ATL::_AtlRaiseException
PUBLIC	?_AtlInitializeCriticalSectionEx@ATL@@YAHPAU_RTL_CRITICAL_SECTION@@KK@Z ; ATL::_AtlInitializeCriticalSectionEx
PUBLIC	??HATL@@YA?AV?$CStringT@DV?$StrTraitMFC_DLL@DV?$ChTraitsCRT@D@ATL@@@@@0@ABV10@0@Z ; ATL::operator+
PUBLIC	??8ATL@@YA_NABV?$CStringT@DV?$StrTraitMFC_DLL@DV?$ChTraitsCRT@D@ATL@@@@@0@0@Z ; ATL::operator==
PUBLIC	?_AfxInitManaged@@YAHXZ				; _AfxInitManaged
PUBLIC	??1CGdiObject@@UAE@XZ				; CGdiObject::~CGdiObject
PUBLIC	??_GCGdiObject@@UAEPAXI@Z			; CGdiObject::`scalar deleting destructor'
PUBLIC	??1CBitmap@@UAE@XZ				; CBitmap::~CBitmap
PUBLIC	??_GCBitmap@@UAEPAXI@Z				; CBitmap::`scalar deleting destructor'
PUBLIC	??1CMenu@@UAE@XZ				; CMenu::~CMenu
PUBLIC	??_GCMenu@@UAEPAXI@Z				; CMenu::`scalar deleting destructor'
PUBLIC	?MoveWindow@CWnd@@QAEXPBUtagRECT@@H@Z		; CWnd::MoveWindow
PUBLIC	?DoDataExchange@CWnd@@MAEXPAVCDataExchange@@@Z	; CWnd::DoDataExchange
PUBLIC	?BeginModalState@CWnd@@UAEXXZ			; CWnd::BeginModalState
PUBLIC	?EndModalState@CWnd@@UAEXXZ			; CWnd::EndModalState
PUBLIC	?Create@CDialog@@UAEHIPAVCWnd@@@Z		; CDialog::Create
PUBLIC	??0ST_GSHAREDFORMAT@@QAE@XZ			; ST_GSHAREDFORMAT::ST_GSHAREDFORMAT
PUBLIC	??1ST_GSHAREDFORMAT@@QAE@XZ			; ST_GSHAREDFORMAT::~ST_GSHAREDFORMAT
PUBLIC	??0ST_LSHAREDFORMAT@@QAE@XZ			; ST_LSHAREDFORMAT::ST_LSHAREDFORMAT
PUBLIC	??1ST_LSHAREDFORMAT@@QAE@XZ			; ST_LSHAREDFORMAT::~ST_LSHAREDFORMAT
PUBLIC	?ReceiveNoticeData@IPartnerSite@@UAGJPBDJ@Z	; IPartnerSite::ReceiveNoticeData
PUBLIC	?GetCommonDataInfo@@YAHPAUHWND__@@HH@Z		; GetCommonDataInfo
PUBLIC	?SetCommonDataInfo@@YAHPAUHWND__@@HH@Z		; SetCommonDataInfo
PUBLIC	?GetTrCodeFromCode@@YA?AV?$CStringT@DV?$StrTraitMFC_DLL@DV?$ChTraitsCRT@D@ATL@@@@@ATL@@PAUHWND__@@V12@@Z ; GetTrCodeFromCode
PUBLIC	?IsOutsideInterfaceType@COutsideCommonInterface@@MBE?AW4TYPE_OCIF@1@XZ ; COutsideCommonInterface::IsOutsideInterfaceType
PUBLIC	?SetRealInfo@COutsideCommonInterface@@MAEXPAXPAUHWND__@@IPAD22@Z ; COutsideCommonInterface::SetRealInfo
PUBLIC	?UnSetRealInfo@COutsideCommonInterface@@MAEXPAXPAUHWND__@@IPAD22@Z ; COutsideCommonInterface::UnSetRealInfo
PUBLIC	?GetMainPath@COutsideCommonInterface@@MBEPBDXZ	; COutsideCommonInterface::GetMainPath
PUBLIC	?GetUserID@COutsideCommonInterface@@MBEPBDXZ	; COutsideCommonInterface::GetUserID
PUBLIC	?RequestTRPacket@COutsideCommonInterface@@MAEXFQBDF_N@Z ; COutsideCommonInterface::RequestTRPacket
PUBLIC	?IsLoad_MarketChart@COutsideCommonInterface@@MBE_NXZ ; COutsideCommonInterface::IsLoad_MarketChart
PUBLIC	?IsOutsideInterfaceType@CMChartInterface@@MBE?AW4TYPE_OCIF@COutsideCommonInterface@@XZ ; CMChartInterface::IsOutsideInterfaceType
PUBLIC	?IsActiveDataWindow@CMChartInterface@@MAE_NXZ	; CMChartInterface::IsActiveDataWindow
PUBLIC	?SetDataWindowData@CMChartInterface@@MAEXPAV?$CList@V?$CStringT@DV?$StrTraitMFC_DLL@DV?$ChTraitsCRT@D@ATL@@@@@ATL@@AAV12@@@@Z ; CMChartInterface::SetDataWindowData
PUBLIC	?SetImaginaryCandleAndGapRevisionToOutside@CMChartInterface@@MAE_N_N0@Z ; CMChartInterface::SetImaginaryCandleAndGapRevisionToOutside
PUBLIC	?SetInquiryDataWindowTypeToOutside@CMChartInterface@@MAE_NH@Z ; CMChartInterface::SetInquiryDataWindowTypeToOutside
PUBLIC	?SetInquiryDataWindowMoveTypeToOutside@CMChartInterface@@MAE_NH@Z ; CMChartInterface::SetInquiryDataWindowMoveTypeToOutside
PUBLIC	?SetYScalePositionToOutside@CMChartInterface@@MAE_NH@Z ; CMChartInterface::SetYScalePositionToOutside
PUBLIC	?SetRightMarginToOutside@CMChartInterface@@MAE_NH@Z ; CMChartInterface::SetRightMarginToOutside
PUBLIC	?SetShowIndicatorVariableToOutside@CMChartInterface@@MAE_N_N@Z ; CMChartInterface::SetShowIndicatorVariableToOutside
PUBLIC	?SetShowIndicatorValueToOutside@CMChartInterface@@MAE_N_N@Z ; CMChartInterface::SetShowIndicatorValueToOutside
PUBLIC	?SetShowHighLowBoundToOutside@CMChartInterface@@MAE_N_N@Z ; CMChartInterface::SetShowHighLowBoundToOutside
PUBLIC	?SetShowExRightDividendToOutside@CMChartInterface@@MAE_N_N@Z ; CMChartInterface::SetShowExRightDividendToOutside
PUBLIC	?SetShowCurrentPriceToOutside@CMChartInterface@@MAE_NH@Z ; CMChartInterface::SetShowCurrentPriceToOutside
PUBLIC	?SetTrendLineColorToOutside@CMChartInterface@@MAE_NK@Z ; CMChartInterface::SetTrendLineColorToOutside
PUBLIC	?SetShowTrendLineValueToOutside@CMChartInterface@@MAE_NH@Z ; CMChartInterface::SetShowTrendLineValueToOutside
PUBLIC	?SetTimeLinkageToOutside@CMChartInterface@@MAE_N_N@Z ; CMChartInterface::SetTimeLinkageToOutside
PUBLIC	?SetAutoSaveToOutside@CMChartInterface@@MAE_N_N@Z ; CMChartInterface::SetAutoSaveToOutside
PUBLIC	?SetShowTrendLineTextToOutside@CMChartInterface@@MAE_N_N@Z ; CMChartInterface::SetShowTrendLineTextToOutside
PUBLIC	?SetShowTimeLineTextToOutside@CMChartInterface@@MAE_N_N@Z ; CMChartInterface::SetShowTimeLineTextToOutside
PUBLIC	?SetShowPriceLineLeftTextToOutside@CMChartInterface@@MAE_N_N@Z ; CMChartInterface::SetShowPriceLineLeftTextToOutside
PUBLIC	?SetShowPriceLineRightTextToOutside@CMChartInterface@@MAE_N_N@Z ; CMChartInterface::SetShowPriceLineRightTextToOutside
PUBLIC	?SetShowTrisectionLineTextToOutside@CMChartInterface@@MAE_N_N@Z ; CMChartInterface::SetShowTrisectionLineTextToOutside
PUBLIC	?SetShowQuadrisectionLineTextToOutside@CMChartInterface@@MAE_N_N@Z ; CMChartInterface::SetShowQuadrisectionLineTextToOutside
PUBLIC	?SetShowControlLineTextToOutside@CMChartInterface@@MAE_N_N@Z ; CMChartInterface::SetShowControlLineTextToOutside
PUBLIC	?SetShowCrossLineToOutside@CMChartInterface@@MAE_N_N@Z ; CMChartInterface::SetShowCrossLineToOutside
PUBLIC	?GetImaginaryCandleToOutside@CMChartInterface@@MAE_NAA_N@Z ; CMChartInterface::GetImaginaryCandleToOutside
PUBLIC	?GetUseGapRevisionToOutside@CMChartInterface@@MAE_NAA_N@Z ; CMChartInterface::GetUseGapRevisionToOutside
PUBLIC	?GetInquiryDataWindowTypeToOutside@CMChartInterface@@MAE_NAAH@Z ; CMChartInterface::GetInquiryDataWindowTypeToOutside
PUBLIC	?GetInquiryDataWindowMoveTypeToOutside@CMChartInterface@@MAE_NAAH@Z ; CMChartInterface::GetInquiryDataWindowMoveTypeToOutside
PUBLIC	?GetYScalePositionToOutside@CMChartInterface@@MAE_NAAH@Z ; CMChartInterface::GetYScalePositionToOutside
PUBLIC	?GetRightMarginToOutside@CMChartInterface@@MAE_NAAH@Z ; CMChartInterface::GetRightMarginToOutside
PUBLIC	?GetShowIndicatorVariableToOutside@CMChartInterface@@MAE_NAA_N@Z ; CMChartInterface::GetShowIndicatorVariableToOutside
PUBLIC	?GetShowIndicatorValueToOutside@CMChartInterface@@MAE_NAA_N@Z ; CMChartInterface::GetShowIndicatorValueToOutside
PUBLIC	?GetShowHighLowBoundToOutside@CMChartInterface@@MAE_NAA_N@Z ; CMChartInterface::GetShowHighLowBoundToOutside
PUBLIC	?GetShowExRightDividendToOutside@CMChartInterface@@MAE_NAA_N@Z ; CMChartInterface::GetShowExRightDividendToOutside
PUBLIC	?GetShowCurrentPriceToOutside@CMChartInterface@@MAE_NAAH@Z ; CMChartInterface::GetShowCurrentPriceToOutside
PUBLIC	?GetTrendLineColorToOutside@CMChartInterface@@MAE_NAAK@Z ; CMChartInterface::GetTrendLineColorToOutside
PUBLIC	?GetShowTrendLineValueToOutside@CMChartInterface@@MAE_NAAH@Z ; CMChartInterface::GetShowTrendLineValueToOutside
PUBLIC	?GetTimeLinkageToOutside@CMChartInterface@@MAE_NAA_N@Z ; CMChartInterface::GetTimeLinkageToOutside
PUBLIC	?GetAutoSaveToOutside@CMChartInterface@@MAE_NAA_N@Z ; CMChartInterface::GetAutoSaveToOutside
PUBLIC	?GetShowTrendLineTextToOutside@CMChartInterface@@MAE_NAA_N@Z ; CMChartInterface::GetShowTrendLineTextToOutside
PUBLIC	?GetShowTimeLineTextToOutside@CMChartInterface@@MAE_NAA_N@Z ; CMChartInterface::GetShowTimeLineTextToOutside
PUBLIC	?GetShowPriceLineLeftTextToOutside@CMChartInterface@@MAE_NAA_N@Z ; CMChartInterface::GetShowPriceLineLeftTextToOutside
PUBLIC	?GetShowPriceLineRightTextToOutside@CMChartInterface@@MAE_NAA_N@Z ; CMChartInterface::GetShowPriceLineRightTextToOutside
PUBLIC	?GetShowTrisectionLineTextToOutside@CMChartInterface@@MAE_NAA_N@Z ; CMChartInterface::GetShowTrisectionLineTextToOutside
PUBLIC	?GetShowQuadrisectionLineTextToOutside@CMChartInterface@@MAE_NAA_N@Z ; CMChartInterface::GetShowQuadrisectionLineTextToOutside
PUBLIC	?GetShowControlLineTextToOutside@CMChartInterface@@MAE_NAA_N@Z ; CMChartInterface::GetShowControlLineTextToOutside
PUBLIC	?GetShowCrossLineToOutside@CMChartInterface@@MAE_NAA_N@Z ; CMChartInterface::GetShowCrossLineToOutside
PUBLIC	?OnChartEnvSetupOk@CMChartInterface@@MAE_NXZ	; CMChartInterface::OnChartEnvSetupOk
PUBLIC	?SetPriceLog@CMChartInterface@@MAE_N_N@Z	; CMChartInterface::SetPriceLog
PUBLIC	?IsOutsideInterfaceType@CMChartInterface061115@@MBE?AW4TYPE_OCIF@COutsideCommonInterface@@XZ ; CMChartInterface061115::IsOutsideInterfaceType
PUBLIC	?GetRevisedPriceFlag@CMChartInterface061115@@MAEHXZ ; CMChartInterface061115::GetRevisedPriceFlag
PUBLIC	?SetRevisedPriceFlag@CMChartInterface061115@@MAEHH@Z ; CMChartInterface061115::SetRevisedPriceFlag
PUBLIC	?OnIndicatorAddOrRemoved@CMChartInterface061115@@MAEHPBDH@Z ; CMChartInterface061115::OnIndicatorAddOrRemoved
PUBLIC	?OnUserZoomChanged@CMChartInterface061115@@MAEHH@Z ; CMChartInterface061115::OnUserZoomChanged
PUBLIC	?OnToolStateChanged@CMChartInterface061115@@MAEHW4TOOLOPTION@CToolOptionInfo@@H@Z ; CMChartInterface061115::OnToolStateChanged
PUBLIC	?OnOrderInfomationChanged@CMChartInterface061115@@MAEHNHHPBD000@Z ; CMChartInterface061115::OnOrderInfomationChanged
PUBLIC	??1STINPUTCODEDATA@@QAE@XZ			; STINPUTCODEDATA::~STINPUTCODEDATA
PUBLIC	??0ST_CODEDATA@@QAE@XZ				; ST_CODEDATA::ST_CODEDATA
PUBLIC	??1ST_CODEDATA@@QAE@XZ				; ST_CODEDATA::~ST_CODEDATA
PUBLIC	??1stSend2Server@@QAE@XZ			; stSend2Server::~stSend2Server
PUBLIC	??1stReceiveFromServer@@QAE@XZ			; stReceiveFromServer::~stReceiveFromServer
PUBLIC	?ColorTableChanged@CExDialog@@UAEXXZ		; CExDialog::ColorTableChanged
PUBLIC	?AddTail@?$CList@P6AXXZP6AXXZ@@QAEPAU__POSITION@@P6AXXZ@Z ; CList<void (__cdecl*)(void),void (__cdecl*)(void)>::AddTail
PUBLIC	?RemoveAll@?$CList@P6AXXZP6AXXZ@@QAEXXZ		; CList<void (__cdecl*)(void),void (__cdecl*)(void)>::RemoveAll
PUBLIC	?NewNode@?$CList@P6AXXZP6AXXZ@@IAEPAUCNode@1@PAU21@0@Z ; CList<void (__cdecl*)(void),void (__cdecl*)(void)>::NewNode
PUBLIC	??1?$CList@P6AXXZP6AXXZ@@UAE@XZ			; CList<void (__cdecl*)(void),void (__cdecl*)(void)>::~CList<void (__cdecl*)(void),void (__cdecl*)(void)>
PUBLIC	?Serialize@?$CList@P6AXXZP6AXXZ@@UAEXAAVCArchive@@@Z ; CList<void (__cdecl*)(void),void (__cdecl*)(void)>::Serialize
PUBLIC	??_G?$CList@P6AXXZP6AXXZ@@UAEPAXI@Z		; CList<void (__cdecl*)(void),void (__cdecl*)(void)>::`scalar deleting destructor'
PUBLIC	?AddTail@?$CList@UST_LSHAREDFORMAT@@U1@@@QAEPAU__POSITION@@UST_LSHAREDFORMAT@@@Z ; CList<ST_LSHAREDFORMAT,ST_LSHAREDFORMAT>::AddTail
PUBLIC	?RemoveAll@?$CList@UST_LSHAREDFORMAT@@U1@@@QAEXXZ ; CList<ST_LSHAREDFORMAT,ST_LSHAREDFORMAT>::RemoveAll
PUBLIC	?NewNode@?$CList@UST_LSHAREDFORMAT@@U1@@@IAEPAUCNode@1@PAU21@0@Z ; CList<ST_LSHAREDFORMAT,ST_LSHAREDFORMAT>::NewNode
PUBLIC	??1?$CList@UST_LSHAREDFORMAT@@U1@@@UAE@XZ	; CList<ST_LSHAREDFORMAT,ST_LSHAREDFORMAT>::~CList<ST_LSHAREDFORMAT,ST_LSHAREDFORMAT>
PUBLIC	?Serialize@?$CList@UST_LSHAREDFORMAT@@U1@@@UAEXAAVCArchive@@@Z ; CList<ST_LSHAREDFORMAT,ST_LSHAREDFORMAT>::Serialize
PUBLIC	??_G?$CList@UST_LSHAREDFORMAT@@U1@@@UAEPAXI@Z	; CList<ST_LSHAREDFORMAT,ST_LSHAREDFORMAT>::`scalar deleting destructor'
PUBLIC	?AddTail@?$CList@UST_GSHAREDFORMAT@@U1@@@QAEPAU__POSITION@@UST_GSHAREDFORMAT@@@Z ; CList<ST_GSHAREDFORMAT,ST_GSHAREDFORMAT>::AddTail
PUBLIC	?RemoveAll@?$CList@UST_GSHAREDFORMAT@@U1@@@QAEXXZ ; CList<ST_GSHAREDFORMAT,ST_GSHAREDFORMAT>::RemoveAll
PUBLIC	?NewNode@?$CList@UST_GSHAREDFORMAT@@U1@@@IAEPAUCNode@1@PAU21@0@Z ; CList<ST_GSHAREDFORMAT,ST_GSHAREDFORMAT>::NewNode
PUBLIC	??1?$CList@UST_GSHAREDFORMAT@@U1@@@UAE@XZ	; CList<ST_GSHAREDFORMAT,ST_GSHAREDFORMAT>::~CList<ST_GSHAREDFORMAT,ST_GSHAREDFORMAT>
PUBLIC	?Serialize@?$CList@UST_GSHAREDFORMAT@@U1@@@UAEXAAVCArchive@@@Z ; CList<ST_GSHAREDFORMAT,ST_GSHAREDFORMAT>::Serialize
PUBLIC	??_G?$CList@UST_GSHAREDFORMAT@@U1@@@UAEPAXI@Z	; CList<ST_GSHAREDFORMAT,ST_GSHAREDFORMAT>::`scalar deleting destructor'
PUBLIC	?SetSize@?$CArray@PAUHWND__@@PAU1@@@QAEXHH@Z	; CArray<HWND__ *,HWND__ *>::SetSize
PUBLIC	??1?$CArray@PAUHWND__@@PAU1@@@UAE@XZ		; CArray<HWND__ *,HWND__ *>::~CArray<HWND__ *,HWND__ *>
PUBLIC	?Serialize@?$CArray@PAUHWND__@@PAU1@@@UAEXAAVCArchive@@@Z ; CArray<HWND__ *,HWND__ *>::Serialize
PUBLIC	??_G?$CArray@PAUHWND__@@PAU1@@@UAEPAXI@Z	; CArray<HWND__ *,HWND__ *>::`scalar deleting destructor'
PUBLIC	?OnCancel@CExOCXDLL@@MAEXXZ			; CExOCXDLL::OnCancel
PUBLIC	?OnOK@CExOCXDLL@@MAEXXZ				; CExOCXDLL::OnOK
PUBLIC	??1CExOCXDLL@@UAE@XZ				; CExOCXDLL::~CExOCXDLL
PUBLIC	??1stringdispid@CComTypeInfoHolder@ATL@@QAE@XZ	; ATL::CComTypeInfoHolder::stringdispid::~stringdispid
PUBLIC	??_Estringdispid@CComTypeInfoHolder@ATL@@QAEPAXI@Z ; ATL::CComTypeInfoHolder::stringdispid::`vector deleting destructor'
PUBLIC	??1STTRINFO@@QAE@XZ				; STTRINFO::~STTRINFO
PUBLIC	??0STTRINFO@@QAE@ABU0@@Z			; STTRINFO::STTRINFO
PUBLIC	??1CCommonDataInfo@@QAE@XZ			; CCommonDataInfo::~CCommonDataInfo
PUBLIC	??1CRealTRCounter@@QAE@XZ			; CRealTRCounter::~CRealTRCounter
PUBLIC	?AddTr@CRealTRCounter@@QAEIV?$CStringT@DV?$StrTraitMFC_DLL@DV?$ChTraitsCRT@D@ATL@@@@@ATL@@@Z ; CRealTRCounter::AddTr
PUBLIC	?IsLoad_MarketChart@CStdDialog@@UBE_NXZ		; CStdDialog::IsLoad_MarketChart
PUBLIC	?RequestMstCode@CStdDialog@@QAEXXZ		; CStdDialog::RequestMstCode
PUBLIC	?RequestWorkDate@CStdDialog@@QAEXXZ		; CStdDialog::RequestWorkDate
PUBLIC	?CheckDataTypeForReplay@CStdDialog@@QAEHXZ	; CStdDialog::CheckDataTypeForReplay
PUBLIC	?RqstTRForReplay@CStdDialog@@QAEXXZ		; CStdDialog::RqstTRForReplay
PUBLIC	?GetTimeSyncFlag@CStdDialog@@QAEHXZ		; CStdDialog::GetTimeSyncFlag
PUBLIC	?SetTimeSyncFlag@CStdDialog@@QAEXH@Z		; CStdDialog::SetTimeSyncFlag
PUBLIC	?SetBReplayMode@CStdDialog@@QAEXH@Z		; CStdDialog::SetBReplayMode
PUBLIC	?GetStartEndDateAtStdDialog@CStdDialog@@QAEXAAN0@Z ; CStdDialog::GetStartEndDateAtStdDialog
PUBLIC	?InitImageList@CStdDialog@@QAEXXZ		; CStdDialog::InitImageList
PUBLIC	?DeleteAllImageList@CStdDialog@@QAEXXZ		; CStdDialog::DeleteAllImageList
PUBLIC	?SetImaginaryCandleAndGapRevisionToOutside@CStdDialog@@UAE_N_N0@Z ; CStdDialog::SetImaginaryCandleAndGapRevisionToOutside
PUBLIC	?SetShowHighLowBoundToOutside@CStdDialog@@UAE_N_N@Z ; CStdDialog::SetShowHighLowBoundToOutside
PUBLIC	?SetShowExRightDividendToOutside@CStdDialog@@UAE_N_N@Z ; CStdDialog::SetShowExRightDividendToOutside
PUBLIC	?SetTimeLinkageToOutside@CStdDialog@@UAE_N_N@Z	; CStdDialog::SetTimeLinkageToOutside
PUBLIC	?SetAutoSaveToOutside@CStdDialog@@UAE_N_N@Z	; CStdDialog::SetAutoSaveToOutside
PUBLIC	?SetPriceLog@CStdDialog@@UAE_N_N@Z		; CStdDialog::SetPriceLog
PUBLIC	?GetImaginaryCandleToOutside@CStdDialog@@UAE_NAA_N@Z ; CStdDialog::GetImaginaryCandleToOutside
PUBLIC	?GetShowHighLowBoundToOutside@CStdDialog@@UAE_NAA_N@Z ; CStdDialog::GetShowHighLowBoundToOutside
PUBLIC	?GetShowExRightDividendToOutside@CStdDialog@@UAE_NAA_N@Z ; CStdDialog::GetShowExRightDividendToOutside
PUBLIC	?GetTimeLinkageToOutside@CStdDialog@@UAE_NAA_N@Z ; CStdDialog::GetTimeLinkageToOutside
PUBLIC	?GetAutoSaveToOutside@CStdDialog@@UAE_NAA_N@Z	; CStdDialog::GetAutoSaveToOutside
PUBLIC	?OnChartEnvSetupOk@CStdDialog@@UAE_NXZ		; CStdDialog::OnChartEnvSetupOk
PUBLIC	?GetMainPath@CStdDialog@@QAEPBDXZ		; CStdDialog::GetMainPath
PUBLIC	?GetUserID@CStdDialog@@QAEPBDXZ			; CStdDialog::GetUserID
PUBLIC	?RequestTRPacket@CStdDialog@@UAEXFQBDF_N@Z	; CStdDialog::RequestTRPacket
PUBLIC	?Recv_ReplayRealData@CStdDialog@@QAEXPAXH@Z	; CStdDialog::Recv_ReplayRealData
PUBLIC	?RunReplay@CStdDialog@@QAEHHPAUREPLAY_INFO@@@Z	; CStdDialog::RunReplay
PUBLIC	?ChangeSpeed@CStdDialog@@QAEXH@Z		; CStdDialog::ChangeSpeed
PUBLIC	?Load_ReplayChart_Lib@CStdDialog@@QAEHXZ	; CStdDialog::Load_ReplayChart_Lib
PUBLIC	?UnLoad_ReplayChart_Lib@CStdDialog@@QAEHXZ	; CStdDialog::UnLoad_ReplayChart_Lib
PUBLIC	?ShowDataListView@CStdDialog@@QAEXHVCRect@@@Z	; CStdDialog::ShowDataListView
PUBLIC	?SetDataWindowData@CStdDialog@@UAEXPAV?$CList@V?$CStringT@DV?$StrTraitMFC_DLL@DV?$ChTraitsCRT@D@ATL@@@@@ATL@@AAV12@@@@Z ; CStdDialog::SetDataWindowData
PUBLIC	?CreateDataWindow@CStdDialog@@QAEXXZ		; CStdDialog::CreateDataWindow
PUBLIC	?DestroyDataWindow@CStdDialog@@QAEXXZ		; CStdDialog::DestroyDataWindow
PUBLIC	?IsActiveDataWindow@CStdDialog@@UAE_NXZ		; CStdDialog::IsActiveDataWindow
PUBLIC	?Request_StockHogaData@CStdDialog@@QAEXV?$CStringT@DV?$StrTraitMFC_DLL@DV?$ChTraitsCRT@D@ATL@@@@@ATL@@@Z ; CStdDialog::Request_StockHogaData
PUBLIC	?Request_StockRealHogaData@CStdDialog@@QAEXV?$CStringT@DV?$StrTraitMFC_DLL@DV?$ChTraitsCRT@D@ATL@@@@@ATL@@@Z ; CStdDialog::Request_StockRealHogaData
PUBLIC	?Request_Disconnect_StockRealHogaData@CStdDialog@@QAEXV?$CStringT@DV?$StrTraitMFC_DLL@DV?$ChTraitsCRT@D@ATL@@@@@ATL@@@Z ; CStdDialog::Request_Disconnect_StockRealHogaData
PUBLIC	?ChangeCode@CStdDialog@@QAEXPBDHH@Z		; CStdDialog::ChangeCode
PUBLIC	?ChangeMarket@CStdDialog@@QAEXIHH@Z		; CStdDialog::ChangeMarket
PUBLIC	?EnableQueryOpt@CStdDialog@@QAEXH@Z		; CStdDialog::EnableQueryOpt
PUBLIC	?EnableAccount@CStdDialog@@QAEXH@Z		; CStdDialog::EnableAccount
PUBLIC	?GetMarketTypeFromCode@CStdDialog@@QAEHV?$CStringT@DV?$StrTraitMFC_DLL@DV?$ChTraitsCRT@D@ATL@@@@@ATL@@AAH@Z ; CStdDialog::GetMarketTypeFromCode
PUBLIC	?SetInitInfo@CStdDialog@@QAEXXZ			; CStdDialog::SetInitInfo
PUBLIC	?GetIndicatorNameListIntoComboBox@CStdDialog@@QAEXAAVCComboBox@@PBD@Z ; CStdDialog::GetIndicatorNameListIntoComboBox
PUBLIC	?InitChartBySystemTrading@CStdDialog@@QAEXPBD@Z	; CStdDialog::InitChartBySystemTrading
PUBLIC	?SetChartBySystemTrading@CStdDialog@@QAEXH@Z	; CStdDialog::SetChartBySystemTrading
PUBLIC	??0?$CList@JJ@@QAE@H@Z				; CList<long,long>::CList<long,long>
PUBLIC	?RemoveHead@?$CList@JJ@@QAEJXZ			; CList<long,long>::RemoveHead
PUBLIC	?AddTail@?$CList@JJ@@QAEPAU__POSITION@@J@Z	; CList<long,long>::AddTail
PUBLIC	?RemoveAll@?$CList@JJ@@QAEXXZ			; CList<long,long>::RemoveAll
PUBLIC	?NewNode@?$CList@JJ@@IAEPAUCNode@1@PAU21@0@Z	; CList<long,long>::NewNode
PUBLIC	?FreeNode@?$CList@JJ@@IAEXPAUCNode@1@@Z		; CList<long,long>::FreeNode
PUBLIC	??1?$CList@JJ@@UAE@XZ				; CList<long,long>::~CList<long,long>
PUBLIC	?Serialize@?$CList@JJ@@UAEXAAVCArchive@@@Z	; CList<long,long>::Serialize
PUBLIC	??_G?$CList@JJ@@UAEPAXI@Z			; CList<long,long>::`scalar deleting destructor'
PUBLIC	??0CStdDialog@@QAE@PAVCWnd@@@Z			; CStdDialog::CStdDialog
PUBLIC	?OnGSharedDataChange@CStdDialog@@MAEXPBD0H@Z	; CStdDialog::OnGSharedDataChange
PUBLIC	?Platform_Initialize@CStdDialog@@MAEXJJJPAVCStringList@@@Z ; CStdDialog::Platform_Initialize
PUBLIC	?Platform_WindowProc@CStdDialog@@MAEJIIJAAH@Z	; CStdDialog::Platform_WindowProc
PUBLIC	?Platform_PreTranslateMessage@CStdDialog@@MAEJPAUtagMSG@@@Z ; CStdDialog::Platform_PreTranslateMessage
PUBLIC	?Platform_OnSize@CStdDialog@@MAEXIHH@Z		; CStdDialog::Platform_OnSize
PUBLIC	?ReceiveData@CStdDialog@@UAEJJPBD00PAXJ@Z	; CStdDialog::ReceiveData
PUBLIC	?ReceiveRealData@CStdDialog@@UAEJGPBDPAX@Z	; CStdDialog::ReceiveRealData
PUBLIC	?ReceiveMessage@CStdDialog@@UAEJJPBD00@Z	; CStdDialog::ReceiveMessage
PUBLIC	?StatusChange@CStdDialog@@UAEJH@Z		; CStdDialog::StatusChange
PUBLIC	?RecieveError@CStdDialog@@QAEJHPBD@Z		; CStdDialog::RecieveError
PUBLIC	??0STDRDSINFO@CStdDialog@@QAE@XZ		; CStdDialog::STDRDSINFO::STDRDSINFO
PUBLIC	??1STDRDSINFO@CStdDialog@@QAE@XZ		; CStdDialog::STDRDSINFO::~STDRDSINFO
PUBLIC	?InitDrds@CStdDialog@@QAEXXZ			; CStdDialog::InitDrds
PUBLIC	?MakeDrdsConnectAdviseFromCode@CStdDialog@@QAEHHH@Z ; CStdDialog::MakeDrdsConnectAdviseFromCode
PUBLIC	?MakeDrdsUnConnectUnAdviseFromCode@CStdDialog@@QAEHHH@Z ; CStdDialog::MakeDrdsUnConnectUnAdviseFromCode
PUBLIC	?OnCodeAdvise@CStdDialog@@QAEXV?$CStringT@DV?$StrTraitMFC_DLL@DV?$ChTraitsCRT@D@ATL@@@@@ATL@@H@Z ; CStdDialog::OnCodeAdvise
PUBLIC	?OnCodeUnAdvise@CStdDialog@@QAEXV?$CStringT@DV?$StrTraitMFC_DLL@DV?$ChTraitsCRT@D@ATL@@@@@ATL@@H@Z ; CStdDialog::OnCodeUnAdvise
PUBLIC	?GetMapID@CStdDialog@@QAE?AV?$CStringT@DV?$StrTraitMFC_DLL@DV?$ChTraitsCRT@D@ATL@@@@@ATL@@XZ ; CStdDialog::GetMapID
PUBLIC	?GetStatusEnable@CStdDialog@@QAEHXZ		; CStdDialog::GetStatusEnable
PUBLIC	?SetJongListPrev@CStdDialog@@QAEXXZ		; CStdDialog::SetJongListPrev
PUBLIC	?SetJongListNext@CStdDialog@@QAEXXZ		; CStdDialog::SetJongListNext
PUBLIC	?GetAccountInfo@CStdDialog@@QAE?AV?$CStringT@DV?$StrTraitMFC_DLL@DV?$ChTraitsCRT@D@ATL@@@@@ATL@@XZ ; CStdDialog::GetAccountInfo
PUBLIC	??0?$CArray@USTTRINFO@@U1@@@QAE@XZ		; CArray<STTRINFO,STTRINFO>::CArray<STTRINFO,STTRINFO>
PUBLIC	?SetSize@?$CArray@USTTRINFO@@U1@@@QAEXHH@Z	; CArray<STTRINFO,STTRINFO>::SetSize
PUBLIC	?SetAtGrow@?$CArray@USTTRINFO@@U1@@@QAEXHUSTTRINFO@@@Z ; CArray<STTRINFO,STTRINFO>::SetAtGrow
PUBLIC	?Add@?$CArray@USTTRINFO@@U1@@@QAEHUSTTRINFO@@@Z	; CArray<STTRINFO,STTRINFO>::Add
PUBLIC	?RemoveAt@?$CArray@USTTRINFO@@U1@@@QAEXHH@Z	; CArray<STTRINFO,STTRINFO>::RemoveAt
PUBLIC	??1?$CArray@USTTRINFO@@U1@@@UAE@XZ		; CArray<STTRINFO,STTRINFO>::~CArray<STTRINFO,STTRINFO>
PUBLIC	?Serialize@?$CArray@USTTRINFO@@U1@@@UAEXAAVCArchive@@@Z ; CArray<STTRINFO,STTRINFO>::Serialize
PUBLIC	??_G?$CArray@USTTRINFO@@U1@@@UAEPAXI@Z		; CArray<STTRINFO,STTRINFO>::`scalar deleting destructor'
PUBLIC	?AllCodeUnAdvise@CStdDialog@@QAEXXZ		; CStdDialog::AllCodeUnAdvise
PUBLIC	?IsChartHide@CStdDialog@@QAEHXZ			; CStdDialog::IsChartHide
PUBLIC	?HideChart@CStdDialog@@QAEHXZ			; CStdDialog::HideChart
PUBLIC	?FormLoad@CStdDialog@@UAEXXZ			; CStdDialog::FormLoad
PUBLIC	?Resize@CStdDialog@@QAEXXZ			; CStdDialog::Resize
PUBLIC	?SetLeftBarType@CStdDialog@@QAEXI@Z		; CStdDialog::SetLeftBarType
PUBLIC	?SetShowExtInputBarDlg@CStdDialog@@QAEXH@Z	; CStdDialog::SetShowExtInputBarDlg
PUBLIC	?SetSmallView@CStdDialog@@QAEXH@Z		; CStdDialog::SetSmallView
PUBLIC	?InputCodeFromOutSide@CStdDialog@@QAEXV?$CStringT@DV?$StrTraitMFC_DLL@DV?$ChTraitsCRT@D@ATL@@@@@ATL@@@Z ; CStdDialog::InputCodeFromOutSide
PUBLIC	?ChangeStockMode@CStdDialog@@QAEXH@Z		; CStdDialog::ChangeStockMode
PUBLIC	?ChangeMiniStockMode@CStdDialog@@QAEXH@Z	; CStdDialog::ChangeMiniStockMode
PUBLIC	?ChangeUpjongMode@CStdDialog@@QAEXI@Z		; CStdDialog::ChangeUpjongMode
PUBLIC	?IsSystemChart@CStdDialog@@QAEHXZ		; CStdDialog::IsSystemChart
PUBLIC	?GridColumnExtend@CStdDialog@@QAEXXZ		; CStdDialog::GridColumnExtend
PUBLIC	?Send2Server@CStdDialog@@AAEHPBD0HHH@Z		; CStdDialog::Send2Server
PUBLIC	?GetRect@CStdDialog@@AAE?AVCRect@@IH@Z		; CStdDialog::GetRect
PUBLIC	?EnableWindowAll@CStdDialog@@AAEXH@Z		; CStdDialog::EnableWindowAll
PUBLIC	?_DoMakeUserExtraDir@CStdDialog@@AAEXPBD@Z	; CStdDialog::_DoMakeUserExtraDir
PUBLIC	?PreTranslateMessage@CStdDialog@@UAEHPAUtagMSG@@@Z ; CStdDialog::PreTranslateMessage
PUBLIC	?DoDataExchange@CStdDialog@@MAEXPAVCDataExchange@@@Z ; CStdDialog::DoDataExchange
PUBLIC	?WindowProc@CStdDialog@@MAEJIIJ@Z		; CStdDialog::WindowProc
PUBLIC	?OnInitDialog@CStdDialog@@MAEHXZ		; CStdDialog::OnInitDialog
PUBLIC	?OnDestroy@CStdDialog@@IAEXXZ			; CStdDialog::OnDestroy
PUBLIC	?OnSize@CStdDialog@@IAEXIHH@Z			; CStdDialog::OnSize
PUBLIC	?OnTimer@CStdDialog@@IAEXI@Z			; CStdDialog::OnTimer
PUBLIC	?OnSetCursor@CStdDialog@@IAEHPAVCWnd@@II@Z	; CStdDialog::OnSetCursor
PUBLIC	?OnLButtonDown@CStdDialog@@IAEXIVCPoint@@@Z	; CStdDialog::OnLButtonDown
PUBLIC	?OnPaint@CStdDialog@@IAEXXZ			; CStdDialog::OnPaint
PUBLIC	?OnMouseMove@CStdDialog@@IAEXIVCPoint@@@Z	; CStdDialog::OnMouseMove
PUBLIC	?OnEraseBkgnd@CStdDialog@@IAEHPAVCDC@@@Z	; CStdDialog::OnEraseBkgnd
PUBLIC	?OnBtnExtTool@CStdDialog@@IAEXXZ		; CStdDialog::OnBtnExtTool
PUBLIC	?OnWmSplitterMoved@CStdDialog@@IAEJIJ@Z		; CStdDialog::OnWmSplitterMoved
PUBLIC	?OnByPass_ExportToolOption@CStdDialog@@IAEJIJ@Z	; CStdDialog::OnByPass_ExportToolOption
PUBLIC	?ChangeSharedData@CStdDialog@@IAEJV?$CStringT@DV?$StrTraitMFC_DLL@DV?$ChTraitsCRT@D@ATL@@@@@ATL@@PAEHH@Z ; CStdDialog::ChangeSharedData
PUBLIC	?OnDropData@CStdDialog@@IAEJIJ@Z		; CStdDialog::OnDropData
PUBLIC	?OnReplayDrds@CStdDialog@@IAEJIJ@Z		; CStdDialog::OnReplayDrds
PUBLIC	?OnReplayFail@CStdDialog@@IAEJIJ@Z		; CStdDialog::OnReplayFail
PUBLIC	?OnReplayChangeDate@CStdDialog@@IAEJIJ@Z	; CStdDialog::OnReplayChangeDate
PUBLIC	?OnReplayEnd@CStdDialog@@IAEJIJ@Z		; CStdDialog::OnReplayEnd
PUBLIC	?OnReplaySetTotalSec@CStdDialog@@IAEJIJ@Z	; CStdDialog::OnReplaySetTotalSec
PUBLIC	?OnReplayEachSec@CStdDialog@@IAEJIJ@Z		; CStdDialog::OnReplayEachSec
PUBLIC	?OnDragEnd@CStdDialog@@IAEJIJ@Z			; CStdDialog::OnDragEnd
PUBLIC	?OnDragStart@CStdDialog@@IAEJIJ@Z		; CStdDialog::OnDragStart
PUBLIC	?OnChangeSkinColor@CStdDialog@@IAEJIJ@Z		; CStdDialog::OnChangeSkinColor
PUBLIC	?OnGetSkinColor@CStdDialog@@IAEJIJ@Z		; CStdDialog::OnGetSkinColor
PUBLIC	?OnUserInfo@CStdDialog@@IAEJIJ@Z		; CStdDialog::OnUserInfo
PUBLIC	?OnGetTRComm@CStdDialog@@IAEJIJ@Z		; CStdDialog::OnGetTRComm
PUBLIC	?GetThisMessageMap@CStdDialog@@KGPBUAFX_MSGMAP@@XZ ; CStdDialog::GetThisMessageMap
PUBLIC	?GetMessageMap@CStdDialog@@MBEPBUAFX_MSGMAP@@XZ	; CStdDialog::GetMessageMap
PUBLIC	?GetThisDispatchMap@CStdDialog@@KGPBUAFX_DISPMAP@@XZ ; CStdDialog::GetThisDispatchMap
PUBLIC	?GetDispatchMap@CStdDialog@@MBEPBUAFX_DISPMAP@@XZ ; CStdDialog::GetDispatchMap
PUBLIC	?GetThisInterfaceMap@CStdDialog@@KGPBUAFX_INTERFACEMAP@@XZ ; CStdDialog::GetThisInterfaceMap
PUBLIC	?GetInterfaceMap@CStdDialog@@MBEPBUAFX_INTERFACEMAP@@XZ ; CStdDialog::GetInterfaceMap
PUBLIC	?ConvertKoscomData@CStdDialog@@QAEXPBDPAXJ@Z	; CStdDialog::ConvertKoscomData
PUBLIC	?ConvertHogaData@CStdDialog@@QAEXPAXJ@Z		; CStdDialog::ConvertHogaData
PUBLIC	?MakeChartData@CStdDialog@@QAE?AV?$CStringT@DV?$StrTraitMFC_DLL@DV?$ChTraitsCRT@D@ATL@@@@@ATL@@PAXAAHHHHNH@Z ; CStdDialog::MakeChartData
PUBLIC	?MakeMarketChartData@CStdDialog@@QAE?AV?$CStringT@DV?$StrTraitMFC_DLL@DV?$ChTraitsCRT@D@ATL@@@@@ATL@@PAXAAHHN@Z ; CStdDialog::MakeMarketChartData
PUBLIC	?NofityNewDataReceive@CStdDialog@@QAEXXZ	; CStdDialog::NofityNewDataReceive
PUBLIC	?SetOneClickHide@CStdDialog@@QAEXH@Z		; CStdDialog::SetOneClickHide
PUBLIC	?GetRevisedPriceFlag@CStdDialog@@UAEHXZ		; CStdDialog::GetRevisedPriceFlag
PUBLIC	?SetRevisedPriceFlag@CStdDialog@@UAEHH@Z	; CStdDialog::SetRevisedPriceFlag
PUBLIC	?OnIndicatorAddOrRemoved@CStdDialog@@UAEHPBDH@Z	; CStdDialog::OnIndicatorAddOrRemoved
PUBLIC	?OnUserZoomChanged@CStdDialog@@UAEHH@Z		; CStdDialog::OnUserZoomChanged
PUBLIC	?OnToolStateChanged@CStdDialog@@UAEHW4TOOLOPTION@CToolOptionInfo@@H@Z ; CStdDialog::OnToolStateChanged
PUBLIC	?TrackPopupMenu@CStdDialog@@QAEHXZ		; CStdDialog::TrackPopupMenu
PUBLIC	?GetCrossLine@CStdDialog@@QAE_NXZ		; CStdDialog::GetCrossLine
PUBLIC	?SetCrossLine@CStdDialog@@QAEX_N@Z		; CStdDialog::SetCrossLine
PUBLIC	?LoadSaveSystemTrading@CStdDialog@@QAEXAAV?$CStringT@DV?$StrTraitMFC_DLL@DV?$ChTraitsCRT@D@ATL@@@@@ATL@@HHH@Z ; CStdDialog::LoadSaveSystemTrading
PUBLIC	?RemoveDrdsFromCode@CStdDialog@@QAEXPAV?$CList@UST_CODEDATA@@U1@@@V?$CStringT@DV?$StrTraitMFC_DLL@DV?$ChTraitsCRT@D@ATL@@@@@ATL@@@Z ; CStdDialog::RemoveDrdsFromCode
PUBLIC	?AddRealCodeList@CStdDialog@@QAEXPBD@Z		; CStdDialog::AddRealCodeList
PUBLIC	?GetDotPosition@CStdDialog@@QAEGAAV?$CStringT@DV?$StrTraitMFC_DLL@DV?$ChTraitsCRT@D@ATL@@@@@ATL@@@Z ; CStdDialog::GetDotPosition
PUBLIC	?GetWidthOfLeftBar@CStdDialog@@QAEHXZ		; CStdDialog::GetWidthOfLeftBar
PUBLIC	?OnDeleteChartItem@CStdDialog@@QAEXPBD@Z	; CStdDialog::OnDeleteChartItem
PUBLIC	?GetJongMokNameByCode@CStdDialog@@QAE?AV?$CStringT@DV?$StrTraitMFC_DLL@DV?$ChTraitsCRT@D@ATL@@@@@ATL@@PBD0@Z ; CStdDialog::GetJongMokNameByCode
PUBLIC	?OnSelectChartItem@CStdDialog@@QAEXPAU_ST_SELCHART@@@Z ; CStdDialog::OnSelectChartItem
PUBLIC	?IsSameItemCodeName@CStdDialog@@QAEHPBD@Z	; CStdDialog::IsSameItemCodeName
PUBLIC	?EnableRequestMoreButton@CStdDialog@@QAEXH@Z	; CStdDialog::EnableRequestMoreButton
PUBLIC	?CreateBufferBitmap@CStdDialog@@QAEXPAVCDC@@ABVCRect@@@Z ; CStdDialog::CreateBufferBitmap
PUBLIC	?OnMagnifyingglass@CStdDialog@@QAEXH@Z		; CStdDialog::OnMagnifyingglass
PUBLIC	?RequestDollarData@CStdDialog@@QAEXXZ		; CStdDialog::RequestDollarData
PUBLIC	?GetDlgToolBtnToggle@CStdDialog@@QAEHAAV?$CArray@HH@@00000AAV?$CMap@HHV?$CStringT@DV?$StrTraitMFC_DLL@DV?$ChTraitsCRT@D@ATL@@@@@ATL@@V12@@@@Z ; CStdDialog::GetDlgToolBtnToggle
PUBLIC	?SetDlgToolBtnToggle@CStdDialog@@QAEXHH@Z	; CStdDialog::SetDlgToolBtnToggle
PUBLIC	?GetBkgrndColor@CStdDialog@@QAEKXZ		; CStdDialog::GetBkgrndColor
PUBLIC	?ChangeSkinColor@CStdDialog@@QAEXXZ		; CStdDialog::ChangeSkinColor
PUBLIC	?SetSaveKey@CStdDialog@@QAEXPBD@Z		; CStdDialog::SetSaveKey
PUBLIC	?GetFileSaveKey@CStdDialog@@QAEXAAV?$CStringT@DV?$StrTraitMFC_DLL@DV?$ChTraitsCRT@D@ATL@@@@@ATL@@@Z ; CStdDialog::GetFileSaveKey
PUBLIC	?UpdateSaveKey@CStdDialog@@QAEXV?$CStringT@DV?$StrTraitMFC_DLL@DV?$ChTraitsCRT@D@ATL@@@@@ATL@@@Z ; CStdDialog::UpdateSaveKey
PUBLIC	?ClearSaveKey@CStdDialog@@QAEXXZ		; CStdDialog::ClearSaveKey
PUBLIC	?SaveChart@CStdDialog@@QAEXXZ			; CStdDialog::SaveChart
PUBLIC	?GetLinkInfoData@CStdDialog@@QAE?AV?$CStringT@DV?$StrTraitMFC_DLL@DV?$ChTraitsCRT@D@ATL@@@@@ATL@@XZ ; CStdDialog::GetLinkInfoData
PUBLIC	?DoCheckMin@CStdDialog@@QAEXHPBDAAV?$CStringT@DV?$StrTraitMFC_DLL@DV?$ChTraitsCRT@D@ATL@@@@@ATL@@@Z ; CStdDialog::DoCheckMin
PUBLIC	?GetItemNameFromItemCode@CStdDialog@@QAE?AV?$CStringT@DV?$StrTraitMFC_DLL@DV?$ChTraitsCRT@D@ATL@@@@@ATL@@V23@H@Z ; CStdDialog::GetItemNameFromItemCode
PUBLIC	?GetMarketTypeFromItemCode@CStdDialog@@QAEHV?$CStringT@DV?$StrTraitMFC_DLL@DV?$ChTraitsCRT@D@ATL@@@@@ATL@@@Z ; CStdDialog::GetMarketTypeFromItemCode
PUBLIC	?IsAvailableReplayRunnig@CStdDialog@@QAEHHH@Z	; CStdDialog::IsAvailableReplayRunnig
PUBLIC	?GetAccountList@CStdDialog@@QAEHHPAVCStringArray@@@Z ; CStdDialog::GetAccountList
PUBLIC	?RequestAccountData@CStdDialog@@QAEXPBD0H@Z	; CStdDialog::RequestAccountData
PUBLIC	?RequestAvgUnitPrice@CStdDialog@@QAEXXZ		; CStdDialog::RequestAvgUnitPrice
PUBLIC	?RequestCondUnitPrice@CStdDialog@@QAEXXZ	; CStdDialog::RequestCondUnitPrice
PUBLIC	?AddAccountCodeItem@CStdDialog@@QAEXPAXJ@Z	; CStdDialog::AddAccountCodeItem
PUBLIC	?MakeAccountConcData@CStdDialog@@QAEXPAXJ@Z	; CStdDialog::MakeAccountConcData
PUBLIC	?ResetChartData@CStdDialog@@QAEXXZ		; CStdDialog::ResetChartData
PUBLIC	?ChangeControlMarketType@CStdDialog@@QAEXH@Z	; CStdDialog::ChangeControlMarketType
PUBLIC	?IsSystemTradingUser@CStdDialog@@QAEHXZ		; CStdDialog::IsSystemTradingUser
PUBLIC	?OpenScreen@CStdDialog@@QAEXPAD@Z		; CStdDialog::OpenScreen
PUBLIC	?GetItemExpCode@CStdDialog@@QAE?AV?$CStringT@DV?$StrTraitMFC_DLL@DV?$ChTraitsCRT@D@ATL@@@@@ATL@@PBD@Z ; CStdDialog::GetItemExpCode
PUBLIC	?GetScreenNo@CStdDialog@@QAE?AV?$CStringT@DV?$StrTraitMFC_DLL@DV?$ChTraitsCRT@D@ATL@@@@@ATL@@XZ ; CStdDialog::GetScreenNo
PUBLIC	?GetBizDate@CStdDialog@@QAE?AV?$CStringT@DV?$StrTraitMFC_DLL@DV?$ChTraitsCRT@D@ATL@@@@@ATL@@XZ ; CStdDialog::GetBizDate
PUBLIC	?ShareInitCode@CStdDialog@@QAEXXZ		; CStdDialog::ShareInitCode
PUBLIC	?SendNextData@CStdDialog@@QAEXXZ		; CStdDialog::SendNextData
PUBLIC	?SendLastData@CStdDialog@@QAEXXZ		; CStdDialog::SendLastData
PUBLIC	?SaveShowInfo@CStdDialog@@QAEXXZ		; CStdDialog::SaveShowInfo
PUBLIC	?IsInvestMarket@CStdDialog@@QAEHAAV?$CStringT@DV?$StrTraitMFC_DLL@DV?$ChTraitsCRT@D@ATL@@@@@ATL@@@Z ; CStdDialog::IsInvestMarket
PUBLIC	??0?$CList@PAUSTSENDDATAQUE@@PAU1@@@QAE@H@Z	; CList<STSENDDATAQUE *,STSENDDATAQUE *>::CList<STSENDDATAQUE *,STSENDDATAQUE *>
PUBLIC	?RemoveHead@?$CList@PAUSTSENDDATAQUE@@PAU1@@@QAEPAUSTSENDDATAQUE@@XZ ; CList<STSENDDATAQUE *,STSENDDATAQUE *>::RemoveHead
PUBLIC	?AddTail@?$CList@PAUSTSENDDATAQUE@@PAU1@@@QAEPAU__POSITION@@PAUSTSENDDATAQUE@@@Z ; CList<STSENDDATAQUE *,STSENDDATAQUE *>::AddTail
PUBLIC	?RemoveAll@?$CList@PAUSTSENDDATAQUE@@PAU1@@@QAEXXZ ; CList<STSENDDATAQUE *,STSENDDATAQUE *>::RemoveAll
PUBLIC	?NewNode@?$CList@PAUSTSENDDATAQUE@@PAU1@@@IAEPAUCNode@1@PAU21@0@Z ; CList<STSENDDATAQUE *,STSENDDATAQUE *>::NewNode
PUBLIC	?FreeNode@?$CList@PAUSTSENDDATAQUE@@PAU1@@@IAEXPAUCNode@1@@Z ; CList<STSENDDATAQUE *,STSENDDATAQUE *>::FreeNode
PUBLIC	??1?$CList@PAUSTSENDDATAQUE@@PAU1@@@UAE@XZ	; CList<STSENDDATAQUE *,STSENDDATAQUE *>::~CList<STSENDDATAQUE *,STSENDDATAQUE *>
PUBLIC	?Serialize@?$CList@PAUSTSENDDATAQUE@@PAU1@@@UAEXAAVCArchive@@@Z ; CList<STSENDDATAQUE *,STSENDDATAQUE *>::Serialize
PUBLIC	??_G?$CList@PAUSTSENDDATAQUE@@PAU1@@@UAEPAXI@Z	; CList<STSENDDATAQUE *,STSENDDATAQUE *>::`scalar deleting destructor'
PUBLIC	?IsContinueFutCode@CStdDialog@@QAEHAAV?$CStringT@DV?$StrTraitMFC_DLL@DV?$ChTraitsCRT@D@ATL@@@@@ATL@@@Z ; CStdDialog::IsContinueFutCode
PUBLIC	?HasKey@CStdDialog@@QAEHV?$CStringT@DV?$StrTraitMFC_DLL@DV?$ChTraitsCRT@D@ATL@@@@@ATL@@@Z ; CStdDialog::HasKey
PUBLIC	?DoShareCode@CStdDialog@@QAEXPBD@Z		; CStdDialog::DoShareCode
PUBLIC	?GetFirstCode@CStdDialog@@QAEHAAV?$CStringT@DV?$StrTraitMFC_DLL@DV?$ChTraitsCRT@D@ATL@@@@@ATL@@HAAH@Z ; CStdDialog::GetFirstCode
PUBLIC	?_DoFirstRequest@CStdDialog@@QAEXXZ		; CStdDialog::_DoFirstRequest
PUBLIC	?DoClearUserChartData@CStdDialog@@QAEXXZ	; CStdDialog::DoClearUserChartData
PUBLIC	?IsChartScreen@CStdDialog@@QAEHPBD@Z		; CStdDialog::IsChartScreen
PUBLIC	?CharToString@CStdDialog@@QAE?AV?$CStringT@DV?$StrTraitMFC_DLL@DV?$ChTraitsCRT@D@ATL@@@@@ATL@@PADHH@Z ; CStdDialog::CharToString
PUBLIC	?_DoVersionCheck_ChartDef@CStdDialog@@QAEXXZ	; CStdDialog::_DoVersionCheck_ChartDef
PUBLIC	?_DoCheckDaultDataFile@CStdDialog@@QAEXXZ	; CStdDialog::_DoCheckDaultDataFile
PUBLIC	?_DoCopyDefaultToUser@CStdDialog@@QAEXPBD@Z	; CStdDialog::_DoCopyDefaultToUser
PUBLIC	?GetOldFututureCodeName@CStdDialog@@QAEHPBDAAV?$CStringT@DV?$StrTraitMFC_DLL@DV?$ChTraitsCRT@D@ATL@@@@@ATL@@@Z ; CStdDialog::GetOldFututureCodeName
PUBLIC	?DoGetWorkDate@CStdDialog@@QAEPBDH@Z		; CStdDialog::DoGetWorkDate
PUBLIC	?SetSelFolder@CStdDialog@@QAEXPBD@Z		; CStdDialog::SetSelFolder
PUBLIC	?IsAvailableBlockCount@CStdDialog@@QAEHHAAH@Z	; CStdDialog::IsAvailableBlockCount
PUBLIC	?GetFillString@CStdDialog@@QAEHAAV?$CStringT@DV?$StrTraitMFC_DLL@DV?$ChTraitsCRT@D@ATL@@@@@ATL@@HHH@Z ; CStdDialog::GetFillString
PUBLIC	?AddStandByTrCall@CStdDialog@@QAEXV?$CStringT@DV?$StrTraitMFC_DLL@DV?$ChTraitsCRT@D@ATL@@@@@ATL@@@Z ; CStdDialog::AddStandByTrCall
PUBLIC	?CallStandByTr@CStdDialog@@QAEXXZ		; CStdDialog::CallStandByTr
PUBLIC	??1CStdDialog@@UAE@XZ				; CStdDialog::~CStdDialog
PUBLIC	??_GCStdDialog@@UAEPAXI@Z			; CStdDialog::`scalar deleting destructor'
PUBLIC	??_GCDragNDrop@@QAEPAXI@Z			; CDragNDrop::`scalar deleting destructor'
PUBLIC	?Parser@@YA?AV?$CStringT@DV?$StrTraitMFC_DLL@DV?$ChTraitsCRT@D@ATL@@@@@ATL@@PBDPAH@Z ; Parser
PUBLIC	?SetComma@@YA?AV?$CStringT@DV?$StrTraitMFC_DLL@DV?$ChTraitsCRT@D@ATL@@@@@ATL@@V12@H@Z ; SetComma
PUBLIC	?RemoveAll@?$CList@UST_CODEDATA@@U1@@@QAEXXZ	; CList<ST_CODEDATA,ST_CODEDATA>::RemoveAll
PUBLIC	?RemoveAt@?$CList@UST_CODEDATA@@U1@@@QAEXPAU__POSITION@@@Z ; CList<ST_CODEDATA,ST_CODEDATA>::RemoveAt
PUBLIC	?FindIndex@?$CList@UST_CODEDATA@@U1@@@QBEPAU__POSITION@@H@Z ; CList<ST_CODEDATA,ST_CODEDATA>::FindIndex
PUBLIC	?FreeNode@?$CList@UST_CODEDATA@@U1@@@IAEXPAUCNode@1@@Z ; CList<ST_CODEDATA,ST_CODEDATA>::FreeNode
PUBLIC	?DoDirFileRemove@CAZUtil_FileManager@@SAHPBD0H@Z ; CAZUtil_FileManager::DoDirFileRemove
PUBLIC	??$SerializeElements@P6AXXZ@@YGXAAVCArchive@@PAP6AXXZH@Z ; SerializeElements<void (__cdecl*)(void)>
PUBLIC	??$SerializeElements@UST_LSHAREDFORMAT@@@@YGXAAVCArchive@@PAUST_LSHAREDFORMAT@@H@Z ; SerializeElements<ST_LSHAREDFORMAT>
PUBLIC	??$SerializeElements@UST_GSHAREDFORMAT@@@@YGXAAVCArchive@@PAUST_GSHAREDFORMAT@@H@Z ; SerializeElements<ST_GSHAREDFORMAT>
PUBLIC	??$SerializeElements@PAUHWND__@@@@YGXAAVCArchive@@PAPAUHWND__@@H@Z ; SerializeElements<HWND__ *>
PUBLIC	??$SerializeElements@J@@YGXAAVCArchive@@PAJH@Z	; SerializeElements<long>
PUBLIC	??$SerializeElements@USTTRINFO@@@@YGXAAVCArchive@@PAUSTTRINFO@@H@Z ; SerializeElements<STTRINFO>
PUBLIC	??$SerializeElements@PAUSTSENDDATAQUE@@@@YGXAAVCArchive@@PAPAUSTSENDDATAQUE@@H@Z ; SerializeElements<STSENDDATAQUE *>
PUBLIC	??_ECStdDialog@@WKI@AEPAXI@Z			; [thunk]:CStdDialog::`vector deleting destructor'
PUBLIC	?_OptionsStorage@?1??__local_stdio_printf_options@@9@4_KA ; `__local_stdio_printf_options'::`2'::_OptionsStorage
PUBLIC	?_OptionsStorage@?1??__local_stdio_scanf_options@@9@4_KA ; `__local_stdio_scanf_options'::`2'::_OptionsStorage
PUBLIC	??_R0PAVCException@@@8				; CException * `RTTI Type Descriptor'
PUBLIC	??_C@_02DPKJAMEF@?$CFd@				; `string'
PUBLIC	?_AtlWinModule@ATL@@3VCAtlWinModule@1@A		; ATL::_AtlWinModule
PUBLIC	??_C@_00CNPNBAHC@@				; `string'
PUBLIC	??_7CGdiObject@@6B@				; CGdiObject::`vftable'
PUBLIC	??_7CBitmap@@6B@				; CBitmap::`vftable'
PUBLIC	??_7CMenu@@6B@					; CMenu::`vftable'
PUBLIC	??_C@_0HD@JJCHHHNK@C?3?2Program?5Files?5?$CIx86?$CJ?2Microsof@ ; `string'
PUBLIC	??_C@_0BP@OIEOKIDM@Exception?5thrown?5in?5destructor@ ; `string'
PUBLIC	??_C@_0BB@HBOOMJBF@?$CFTs?5?$CI?$CFTs?3?$CFd?$CJ?6?$CFTs@ ; `string'
PUBLIC	??_C@_0N@OMEMOKLE@?$CFTs?5?$CI?$CFTs?3?$CFd?$CJ@ ; `string'
PUBLIC	??_C@_01HIHLOKLC@1@				; `string'
PUBLIC	??_C@_02DKCKIIND@?$CFs@				; `string'
PUBLIC	??_C@_0M@CBBNGGHM@PcTrMng?4dll@			; `string'
PUBLIC	??_C@_0P@IDMAJEGN@HANAROPCTRMAIN@		; `string'
PUBLIC	??_C@_06NDLAHCHE@?$CFs?$CF08X@			; `string'
PUBLIC	??_C@_02EMFKHFLK@?$CFX@				; `string'
PUBLIC	??_C@_01KICIPPFI@?2@				; `string'
PUBLIC	??_C@_01GBGANLPD@0@				; `string'
PUBLIC	??_R0?AVCObject@@@8				; CObject `RTTI Type Descriptor'
PUBLIC	??_R3CObject@@8					; CObject::`RTTI Class Hierarchy Descriptor'
PUBLIC	??_R2CObject@@8					; CObject::`RTTI Base Class Array'
PUBLIC	??_R1A@?0A@EA@CObject@@8			; CObject::`RTTI Base Class Descriptor at (0,-1,0,64)'
PUBLIC	??_R4CGdiObject@@6B@				; CGdiObject::`RTTI Complete Object Locator'
PUBLIC	??_R0?AVCGdiObject@@@8				; CGdiObject `RTTI Type Descriptor'
PUBLIC	??_R3CGdiObject@@8				; CGdiObject::`RTTI Class Hierarchy Descriptor'
PUBLIC	??_R2CGdiObject@@8				; CGdiObject::`RTTI Base Class Array'
PUBLIC	??_R1A@?0A@EA@CGdiObject@@8			; CGdiObject::`RTTI Base Class Descriptor at (0,-1,0,64)'
PUBLIC	??_R4CBitmap@@6B@				; CBitmap::`RTTI Complete Object Locator'
PUBLIC	??_R0?AVCBitmap@@@8				; CBitmap `RTTI Type Descriptor'
PUBLIC	??_R3CBitmap@@8					; CBitmap::`RTTI Class Hierarchy Descriptor'
PUBLIC	??_R2CBitmap@@8					; CBitmap::`RTTI Base Class Array'
PUBLIC	??_R1A@?0A@EA@CBitmap@@8			; CBitmap::`RTTI Base Class Descriptor at (0,-1,0,64)'
PUBLIC	??_R4CMenu@@6B@					; CMenu::`RTTI Complete Object Locator'
PUBLIC	??_R0?AVCMenu@@@8				; CMenu `RTTI Type Descriptor'
PUBLIC	??_R3CMenu@@8					; CMenu::`RTTI Class Hierarchy Descriptor'
PUBLIC	??_R2CMenu@@8					; CMenu::`RTTI Base Class Array'
PUBLIC	??_R1A@?0A@EA@CMenu@@8				; CMenu::`RTTI Base Class Descriptor at (0,-1,0,64)'
PUBLIC	??_R1A@?0A@EA@CWnd@@8				; CWnd::`RTTI Base Class Descriptor at (0,-1,0,64)'
PUBLIC	??_R0?AVCWnd@@@8				; CWnd `RTTI Type Descriptor'
PUBLIC	??_R3CWnd@@8					; CWnd::`RTTI Class Hierarchy Descriptor'
PUBLIC	??_R2CWnd@@8					; CWnd::`RTTI Base Class Array'
PUBLIC	??_R1A@?0A@EA@CCmdTarget@@8			; CCmdTarget::`RTTI Base Class Descriptor at (0,-1,0,64)'
PUBLIC	??_R0?AVCCmdTarget@@@8				; CCmdTarget `RTTI Type Descriptor'
PUBLIC	??_R3CCmdTarget@@8				; CCmdTarget::`RTTI Class Hierarchy Descriptor'
PUBLIC	??_R2CCmdTarget@@8				; CCmdTarget::`RTTI Base Class Array'
PUBLIC	??_R1A@?0A@EA@CDialog@@8			; CDialog::`RTTI Base Class Descriptor at (0,-1,0,64)'
PUBLIC	??_R0?AVCDialog@@@8				; CDialog `RTTI Type Descriptor'
PUBLIC	??_R3CDialog@@8					; CDialog::`RTTI Class Hierarchy Descriptor'
PUBLIC	??_R2CDialog@@8					; CDialog::`RTTI Base Class Array'
PUBLIC	??_7COutsideCommonInterface@@6B@		; COutsideCommonInterface::`vftable'
PUBLIC	??_7CMChartInterface@@6B@			; CMChartInterface::`vftable'
PUBLIC	??_7CMChartInterface061115@@6B@			; CMChartInterface061115::`vftable'
PUBLIC	??_C@_04OHDBDCPJ@?2Dev@				; `string'
PUBLIC	??_7?$CList@P6AXXZP6AXXZ@@6B@			; CList<void (__cdecl*)(void),void (__cdecl*)(void)>::`vftable'
PUBLIC	??_7?$CList@UST_LSHAREDFORMAT@@U1@@@6B@		; CList<ST_LSHAREDFORMAT,ST_LSHAREDFORMAT>::`vftable'
PUBLIC	??_7?$CList@UST_GSHAREDFORMAT@@U1@@@6B@		; CList<ST_GSHAREDFORMAT,ST_GSHAREDFORMAT>::`vftable'
PUBLIC	??_7?$CArray@PAUHWND__@@PAU1@@@6B@		; CArray<HWND__ *,HWND__ *>::`vftable'
PUBLIC	??_C@_01JLIPDDHJ@?3@				; `string'
PUBLIC	??_C@_05HCNNGKOI@?$CFs?0?$CFd@			; `string'
PUBLIC	?m_ImgList_W15H15@CStdDialog@@2VCImageList@@A	; CStdDialog::m_ImgList_W15H15
PUBLIC	?m_ImgList_W20H20@CStdDialog@@2VCImageList@@A	; CStdDialog::m_ImgList_W20H20
PUBLIC	?m_ImgList_W20H20_Tool@CStdDialog@@2VCImageList@@A ; CStdDialog::m_ImgList_W20H20_Tool
PUBLIC	?m_ImgList_W46H20@CStdDialog@@2VCImageList@@A	; CStdDialog::m_ImgList_W46H20
PUBLIC	?m_ImgList_W50H20@CStdDialog@@2VCImageList@@A	; CStdDialog::m_ImgList_W50H20
PUBLIC	?m_ImgList_W151H21@CStdDialog@@2VCImageList@@A	; CStdDialog::m_ImgList_W151H21
PUBLIC	?m_ImgList_W28H22@CStdDialog@@2VCImageList@@A	; CStdDialog::m_ImgList_W28H22
PUBLIC	?m_ImgList_W17H20@CStdDialog@@2VCImageList@@A	; CStdDialog::m_ImgList_W17H20
PUBLIC	?m_ImgList_W43H20@CStdDialog@@2VCImageList@@A	; CStdDialog::m_ImgList_W43H20
PUBLIC	?m_ImgList_W58H20@CStdDialog@@2VCImageList@@A	; CStdDialog::m_ImgList_W58H20
PUBLIC	?m_ImgList_W72H20@CStdDialog@@2VCImageList@@A	; CStdDialog::m_ImgList_W72H20
PUBLIC	?m_ImgList_W46H20_Gwan@CStdDialog@@2VCImageList@@A ; CStdDialog::m_ImgList_W46H20_Gwan
PUBLIC	?m_ImgList_W8H25@CStdDialog@@2VCImageList@@A	; CStdDialog::m_ImgList_W8H25
PUBLIC	??_7?$CList@JJ@@6B@				; CList<long,long>::`vftable'
PUBLIC	??_7?$CArray@USTTRINFO@@U1@@@6B@		; CArray<STTRINFO,STTRINFO>::`vftable'
PUBLIC	?dispatchMap@CStdDialog@@1UAFX_DISPMAP@@B	; CStdDialog::dispatchMap
PUBLIC	?interfaceMap@CStdDialog@@1UAFX_INTERFACEMAP@@B	; CStdDialog::interfaceMap
PUBLIC	??_7?$CList@PAUSTSENDDATAQUE@@PAU1@@@6B@	; CList<STSENDDATAQUE *,STSENDDATAQUE *>::`vftable'
PUBLIC	??_7CPartnerSite@CStdDialog@@6B@		; CStdDialog::CPartnerSite::`vftable'
PUBLIC	??_7CStdDialog@@6BCDialog@@@			; CStdDialog::`vftable'
PUBLIC	??_7CStdDialog@@6BCExResize@@@			; CStdDialog::`vftable'
PUBLIC	??_7CStdDialog@@6B@				; CStdDialog::`vftable'
PUBLIC	??_C@_03JALODAI@?$CFld@				; `string'
PUBLIC	??_C@_05BMGBEOOC@?$CFs?2?$CFs@			; `string'
PUBLIC	??_C@_04HDOCAJNK@?$CFs?$CFs@			; `string'
PUBLIC	??_C@_03COHLPAFH@?4ST@				; `string'
PUBLIC	??_C@_01IHBHIGKO@?0@				; `string'
PUBLIC	??_C@_01ICJEACDI@?$DL@				; `string'
PUBLIC	??_C@_05ELNNMDND@d1010@				; `string'
PUBLIC	??_C@_05FCMGPCJC@d1011@				; `string'
PUBLIC	??_C@_05HJOLKBFB@d1012@				; `string'
PUBLIC	??_C@_05GAPAJABA@d1013@				; `string'
PUBLIC	??_C@_05CPLBAGNH@d1014@				; `string'
PUBLIC	??_C@_05DMBEOOBE@d0515@				; `string'
PUBLIC	??_C@_05JJOIKFKO@33100@				; `string'
PUBLIC	??_C@_08ODMGEDJF@CP986100@			; `string'
PUBLIC	??_C@_0M@IDCKBHEO@?$LN?C?$LA?$KD?9?$LB?W?$LI?$KO?$LF?e@ ; `string'
PUBLIC	??_C@_04IBLPHLKF@7111@				; `string'
PUBLIC	??_C@_08BDLNPKGG@?A?$LO?G?U?B?w?F?$KO@		; `string'
PUBLIC	??_C@_04OHJFAAPI@7125@				; `string'
PUBLIC	??_C@_0L@BKMJMGHH@?$MA?O?A?V?$LP?y?B?w?F?$KO@	; `string'
PUBLIC	??_C@_04NHOFNMCD@7117@				; `string'
PUBLIC	??_C@_0N@LGLINEEL@?A?V?$LN?D?$LJ?L?$LE?O?B?w?F?$KO@ ; `string'
PUBLIC	??_C@_04FAHNMAOM@7118@				; `string'
PUBLIC	??_C@_0N@LDEELCPM@?$LI?V?F?$LM?$LJ?L?$LE?O?B?w?F?$KO@ ; `string'
PUBLIC	??_C@_04EJGGPBKN@7119@				; `string'
PUBLIC	??_C@_0L@EAGIGABK@?$LJ?L?$LE?O?F?$LN?B?w?F?$KO@	; `string'
PUBLIC	??_C@_04JKOCPELN@7120@				; `string'
PUBLIC	??_C@_0N@PBCFLIEH@?$LJ?L?$LE?O?$LO?w?A?$LO?B?w?F?$KO@ ; `string'
PUBLIC	??_C@_04IDPJMFPM@7121@				; `string'
PUBLIC	??_C@_0N@JKFBMNKE@?$LJ?L?$LE?O?$LM?$LB?$LP?I?B?w?F?$KO@ ; `string'
PUBLIC	??_C@_04GMPNOBJM@0508@				; `string'
PUBLIC	??_C@_04MMLIFDDL@7126@				; `string'
PUBLIC	??_C@_08LCDOJHCP@?$MA?$PM?$LH?$KL?B?w?F?$KO@	; `string'
PUBLIC	??_C@_04KINEJGDP@7122@				; `string'
PUBLIC	??_C@_0BB@DFDFBNIJ@?$LL?s?G?$LA?$LM?$LB?$LJ?$LA?$LJ?L?$LE?O?B?w?F?$KO@ ; `string'
PUBLIC	??_C@_04KKJCCIGG@7112@				; `string'
PUBLIC	??_C@_0N@GMHLMICA@?A?V?$LN?D?A?$LO?G?U?B?w?F?$KO@ ; `string'
PUBLIC	??_C@_04LDIJBJCH@7113@				; `string'
PUBLIC	??_C@_0N@GHDICDGD@?$LO?w?A?$LO?A?$LO?G?U?B?w?F?$KO@ ; `string'
PUBLIC	??_C@_0N@GAPLGDCM@?$LM?$LB?$LP?I?A?$LO?G?U?B?w?F?$KO@ ; `string'
PUBLIC	??_C@_04FDPJBEIC@7138@				; `string'
PUBLIC	??_C@_0BB@EGJICNEH@?A?V?$LN?D?$LM?$LB?$LJ?$LA?A?$LO?G?U?B?w?F?$KO@ ; `string'
PUBLIC	??_C@_04MOPOONGC@7116@				; `string'
PUBLIC	??_C@_0N@KANKAMGG@?G?X?$LP?$NM?A?u?$LN?C?B?w?F?$KO@ ; `string'
PUBLIC	??_C@_04OFNDLOKB@7115@				; `string'
PUBLIC	??_C@_0BB@OPPGABOC@?$LL?s?G?$LA?$LM?$LB?$LJ?$LA?A?$LO?G?U?B?w?F?$KO@ ; `string'
PUBLIC	??_C@_0O@MDBAJMMH@ChartInfo?4dat@		; `string'
PUBLIC	??_C@_01IDAFKMJL@_@				; `string'
PUBLIC	??_C@_0DF@NHJDMLKK@?$AN?6?$FLCStdDialog?3?3ChangeMiniStockM@ ; `string'
PUBLIC	??_C@_0CK@FPGDBEPE@?$AN?6?$FLCStdDialog?3?3FormLoad?$FN?5m_strC@ ; `string'
PUBLIC	??_C@_0N@EBGACMBB@UseCycleSave@			; `string'
PUBLIC	??_C@_05MPDBFDHF@Frame@				; `string'
PUBLIC	??_C@_0M@IBLEADIN@ShowLeftBar@			; `string'
PUBLIC	??_C@_0BD@MCKIPHBO@ShowExtInputBarDlg@		; `string'
PUBLIC	??_C@_0M@PNAFPLNG@ShowToolBar@			; `string'
PUBLIC	??_C@_08EMPIFEPK@?E?x?$LJ?Y?H?$KO?$LE?k@	; `string'
PUBLIC	??_C@_0FJ@LLNFAMBB@?$LN?C?$LN?$LK?E?$NL?$LI?$KO?$LM?R?$LN?$LK?$LA?$KB?5?$LK?N?A?$LH?G?O?$LP?$KJ?5?H?$KN?$LI?i?$MA?$LL?5@ ; `string'
PUBLIC	??_C@_08EAHEJGOH@?E?x?$LJ?Y?C?$OA?$LM?R@	; `string'
PUBLIC	??_C@_08LFLAPLBK@?F?$KP?$LM?v?A?v?G?$KF@	; `string'
PUBLIC	??_C@_03NFLNALCB@000@				; `string'
PUBLIC	??_C@_06MFLEHPOG@?$CF10?42f@			; `string'
PUBLIC	??_C@_01CLKCMJKC@?5@				; `string'
PUBLIC	??_C@_01JOAMLHOP@?9@				; `string'
PUBLIC	??_C@_05IDAEEJNL@d1018@				; `string'
PUBLIC	??_C@_05GFCMPLNO@c1002@				; `string'
PUBLIC	??_C@_05DGKKDHJG@d1015@				; `string'
PUBLIC	??_C@_06MANHAJBA@?$CF?9400s@			; `string'
PUBLIC	??_C@_0BK@INPONLN@CStdDialog?3?3ReceiveData?$CI?$CJ@ ; `string'
PUBLIC	??_C@_07KDMMOILP@d1012_1@			; `string'
PUBLIC	??_C@_0DA@FCFKCKCE@Error?5CStdDialog?3?3ReceiveData?5?$LP@ ; `string'
PUBLIC	??_C@_0L@LCJFIPAK@SYMBOLDATA@			; `string'
PUBLIC	??_C@_05EJMFFBE@d1017@				; `string'
PUBLIC	??_C@_05BNIHGEFF@d1016@				; `string'
PUBLIC	??_C@_08IOMDFAIH@pijs0111@			; `string'
PUBLIC	??_C@_08KFOOADEE@pijs0112@			; `string'
PUBLIC	??_C@_05JMLBELNH@a4017@				; `string'
PUBLIC	??_C@_05BLCJFHBI@a4018@				; `string'
PUBLIC	??_C@_07HJJFMMKH@?$FL?$CFs?$FN?$CFs?6@		; `string'
PUBLIC	??_C@_05BFCIHJJJ@80001@				; `string'
PUBLIC	??_C@_05GJGEDGEA@99999@				; `string'
PUBLIC	??_C@_0BG@CFAENPOE@?G?X?$LE?g?5?$MA?Z?$LH?a?$LA?$KB?5?$LO?x?$LN?$MA?$LE?O?$LE?Y?4@ ; `string'
PUBLIC	??_C@_0BB@LBDPAEMK@?$LB?b?$LA?$PM?$LE?$KJ?$MA?$PL?$LA?E?$LH?$KB?C?$NP?$MA?L@ ; `string'
PUBLIC	??_C@_0BK@IJCPIMLO@CStdDialog?3?3Send2Server?$CI?$CJ@ ; `string'
PUBLIC	??_C@_09PEDPPOKH@PtManager@			; `string'
PUBLIC	??_C@_0L@DIKICJIA@SCREENCODE@			; `string'
PUBLIC	??_C@_0N@BAKLNJEL@IPartnerSite@			; `string'
PUBLIC	??_C@_04EBNJJJJI@?$CF?4?$CKs@			; `string'
PUBLIC	??_C@_04ICNGLDCO@KXS3@				; `string'
PUBLIC	??_C@_01NBENCBCI@?$CK@				; `string'
PUBLIC	??_C@_04FNMIFLPJ@EWs3@				; `string'
PUBLIC	??_C@_04BHFKAEFH@IXIJ@				; `string'
PUBLIC	??_C@_04PNILKHIA@FFC0@				; `string'
PUBLIC	??_C@_04INJDIKHL@OOC0@				; `string'
PUBLIC	??_C@_04DIHLEKIB@JFC0@				; `string'
PUBLIC	??_C@_04EFHDAFAL@JOC0@				; `string'
PUBLIC	??_C@_04HJAFHKIM@HWFJ@				; `string'
PUBLIC	??_C@_04OJOAECLD@GTFJ@				; `string'
PUBLIC	??_C@_04MBICOLOB@FOJS@				; `string'
PUBLIC	??_C@_05CCMOGDN@?$CFs?3?$CFs@			; `string'
PUBLIC	??_C@_09POEKPOBJ@OldFuture@			; `string'
PUBLIC	??_C@_08BLEEFNBD@99999999@			; `string'
PUBLIC	??_C@_08HIHDIOFE@10599999@			; `string'
PUBLIC	??_C@_0CI@BHEKEHLC@?$AN?6?$FLCStdDialog?3?3OnSize?$FN?5m_strCon@ ; `string'
PUBLIC	??_C@_08GDLAKCMM@?A?$LO?$LI?q?$LO?F?$LE?T@	; `string'
PUBLIC	??_C@_0DI@GFEPOCJ@?$LF?$KF?$MA?L?E?$LI?5?$LM?v?$LN?E?$MA?L?5?A?v?$LP?$KM?$LF?G?$LA?m?5?$MA?V?$LN?$MA?$LE?O?$LE?Y@ ; `string'
PUBLIC	??_C@_06IJEBOOKN@?$CFd?0?$CFd?0@		; `string'
PUBLIC	??_C@_0N@IBGMGKGO@LOCAL_RESIZE@			; `string'
PUBLIC	??_C@_0CO@NCNOFENK@Dim?5szText?0?5szValue?6szText?$DN?$CC?$CFs?$CC@ ; `string'
PUBLIC	??_C@_0BD@CMCCCNBF@HANAROIGATEMANAGER@		; `string'
PUBLIC	??_C@_0BN@PKJBEBII@RootPath?$LI?$KG?5?$LO?r?$MA?$LL?5?$LM?v?5?$LO?x?$LN?$MA?$LE?O?$LE?Y?4@ ; `string'
PUBLIC	??_C@_06DJNEHHKG@?2Chart@			; `string'
PUBLIC	??_C@_0BE@DKIADLCN@?2Icss?2Image?2drchart@	; `string'
PUBLIC	??_C@_03JOOLLLO@?$CFs?2@			; `string'
PUBLIC	??_C@_0L@IDCHGHGK@USDKRWCOMP@			; `string'
PUBLIC	??_C@_05EIODHBAN@?$CF?910s@			; `string'
PUBLIC	??_C@_04OCCELDNI@?$CF04d@			; `string'
PUBLIC	??_C@_05EJONIJCJ@?$CF?916d@			; `string'
PUBLIC	??_C@_05OGILEIOE@?$CF?$CK?4?$CKd@		; `string'
PUBLIC	??_C@_02LMCMFDE@?$LP?y@				; `string'
PUBLIC	??_C@_02EHLBLIAD@?A?V@				; `string'
PUBLIC	??_C@_02NNHDHLCM@?$MA?O@			; `string'
PUBLIC	??_C@_02EJEPJIDE@?$LK?P@			; `string'
PUBLIC	??_C@_02MEPHBMOK@?F?$LN@			; `string'
PUBLIC	??_C@_0N@OEIEJIIE@FromSTCenter@			; `string'
PUBLIC	??_C@_01IPJKGB@?$CD@				; `string'
PUBLIC	??_C@_08NICNPAA@?A?$LO?$LI?q?D?Z?$LF?e@		; `string'
PUBLIC	??_C@_0O@MFKBBNGA@?A?$LO?$LI?q?D?Z?$LF?e?5?$LA?x?$MA?$KP@ ; `string'
PUBLIC	??_C@_0BF@FBAAFENH@?2Dev?2ReplayChart?4dll@	; `string'
PUBLIC	??_C@_0BB@NKPPLNMN@fnReplayDll_Load@		; `string'
PUBLIC	??_C@_0BD@JFILPKHB@fnReplayDll_Unload@		; `string'
PUBLIC	??_C@_0BI@MNNAOLFK@fnReplayDll_SetInitInfo@	; `string'
PUBLIC	??_C@_0BA@PDDFKCOP@fnReplayDll_Run@		; `string'
PUBLIC	??_C@_0BI@HFIPJANC@fnReplayDll_ChangeSpeed@	; `string'
PUBLIC	??_C@_0BP@MCPCPKAO@?$LK?$LJ?$LB?b?$LI?$KG?5?$LN?C?$MA?$NL?G?R?5?A?$LO?$LI?q?$MA?L?5?$LO?x?$LN?$MA?$LE?O?$LE?Y?4@ ; `string'
PUBLIC	??_C@_0BO@DHAEAEL@Can?5not?5Find?5W15_H15?4bmp?5file@ ; `string'
PUBLIC	??_C@_0M@CGCJLHNM@W15_H15?4bmp@			; `string'
PUBLIC	??_C@_0BO@BPPGDEIA@Can?5not?5Find?5W20_H20?4bmp?5file@ ; `string'
PUBLIC	??_C@_0M@DIMHJBLH@W20_H20?4bmp@			; `string'
PUBLIC	??_C@_0CD@GEEOGELK@Can?5not?5Find?5W20_H20_Tool?4bmp?5f@ ; `string'
PUBLIC	??_C@_0BB@EMKPJCBG@W20_H20_Tool?4bmp@		; `string'
PUBLIC	??_C@_0BO@GOJNIJJG@Can?5not?5Find?5W46_H20?4bmp?5file@ ; `string'
PUBLIC	??_C@_0M@NNGMCLLD@W46_H20?4bmp@			; `string'
PUBLIC	??_C@_0BO@OCAPMMPF@Can?5not?5Find?5W50_H20?4bmp?5file@ ; `string'
PUBLIC	??_C@_0M@BBPMIEDE@W50_H20?4bmp@			; `string'
PUBLIC	??_C@_0BP@NNEIEDMB@Can?5not?5Find?5W151_H21?4bmp?5file@ ; `string'
PUBLIC	??_C@_0N@PCFFEEID@W151_H21?4bmp@		; `string'
PUBLIC	??_C@_0BO@IIBDEBMG@Can?5not?5Find?5W28_H22?4bmp?5file@ ; `string'
PUBLIC	??_C@_0M@GGNIHAEI@W28_H22?4bmp@			; `string'
PUBLIC	??_C@_0BO@KNDPIPGI@Can?5not?5Find?5W17_H20?4bmp?5file@ ; `string'
PUBLIC	??_C@_0M@EDPJOMMP@W17_H20?4bmp@			; `string'
PUBLIC	??_C@_0BO@FBMJNLGI@Can?5not?5Find?5W43_H19?4bmp?5file@ ; `string'
PUBLIC	??_C@_0M@DLEFOAPH@W43_H20?4bmp@			; `string'
PUBLIC	??_C@_0BO@CBFFOMAH@Can?5not?5Find?5W58_H19?4bmp?5file@ ; `string'
PUBLIC	??_C@_0M@CCLMEMA@W58_H20?4bmp@			; `string'
PUBLIC	??_C@_0BO@MNCJFIAH@Can?5not?5Find?5W72_H20?4bmp?5file@ ; `string'
PUBLIC	??_C@_0M@ENGFONMI@W72_H20?4bmp@			; `string'
PUBLIC	??_C@_0CD@FDNKPKHG@Can?5not?5Find?5W46_H20_Gwan?4bmp?5f@ ; `string'
PUBLIC	??_C@_0BB@BKCAKBHM@W46_H20_Gwan?4bmp@		; `string'
PUBLIC	??_C@_0BN@IKEIDFJ@Can?5not?5Find?5W8_H25?4bmp?5file@ ; `string'
PUBLIC	??_C@_0L@COPLOIK@W8_H25?4bmp@			; `string'
PUBLIC	??_C@_02NFLHGFB@?0?$DL@				; `string'
PUBLIC	??_C@_0M@BBGPCCJB@?A?v?G?$KF?9?$LF?e?$LH?$KB?$LB?W@ ; `string'
PUBLIC	??_C@_01OCOKONAJ@L@				; `string'
PUBLIC	??_C@_01DGKLNCNG@R@				; `string'
PUBLIC	??_C@_0L@CCBFPMDD@?5?5?5?5?5?5?5?5?5?5@		; `string'
PUBLIC	??_C@_0BD@PINPPFKJ@?2Icss?2CHARTDEF?4CFG@	; `string'
PUBLIC	??_C@_0BC@OLFGGJJI@SystemTradingMode@		; `string'
PUBLIC	??_C@_07HACLDE@STBasic@				; `string'
PUBLIC	??_C@_0CB@PMOGLKBA@?$FLGetLinkInfoData?$FNSolomon?$LM?v?A?$KE?G?J?$LP@ ; `string'
PUBLIC	??_C@_05PJKHJHLA@p0612@				; `string'
PUBLIC	??_C@_05OALMKGPB@p0613@				; `string'
PUBLIC	??_C@_05KPPNDADG@p0614@				; `string'
PUBLIC	??_C@_05LGOGABHH@p0615@				; `string'
PUBLIC	??_C@_01HNPIGOCE@?$CG@				; `string'
PUBLIC	??_C@_02PPKAJPJL@?$CG?$CG@			; `string'
PUBLIC	??_C@_0CD@NLLKHNJF@?$LK?$LJ?$LB?b?$LI?p?$LF?e?$LN?C?5?A?$LO?$LI?q?C?$NP?$LA?$KB?G?R?5?$LM?v?5?$LO?x?$LN?$MA?$LE?O@ ; `string'
PUBLIC	??_C@_0CD@EEHNFPJD@?$LK?$LJ?$LB?b?$LI?p?$LF?e?$LN?C?5?A?$LO?$LI?q?A?$NP?C?$LI?G?R?5?$LM?v?5?$LO?x?$LN?$MA?$LE?O@ ; `string'
PUBLIC	??_C@_0CP@OHJGBPNB@?$LK?$LJ?$LB?b?$LI?p?$LF?e?$LE?B?5?A?V?$LN?D?$LA?z?5?$LM?$LB?$LJ?$LA?1?$LP?I?$LM?G?5?A?$LO?$LI@ ; `string'
PUBLIC	??_C@_0CA@BLFLABEK@?$FLGetAccountList?$FNSolomon?$LM?v?A?$KE?G?J?$LP?d@ ; `string'
PUBLIC	??_C@_0CF@HOMGPHFD@?$FLRequestAvgUnitPrice?$FNSolomon?$LM?v?A@ ; `string'
PUBLIC	??_C@_0CG@FGPFKHBF@?$FLRequestCondUnitPrice?$FNSolomon?$LM?v@ ; `string'
PUBLIC	??_C@_04LCFLHEIH@?$CFs00@			; `string'
PUBLIC	??_C@_05FDCEOMOF@?$CF6?46s@			; `string'
PUBLIC	??_C@_05NKCIDMAJ@?$CF9?49s@			; `string'
PUBLIC	??_C@_0CF@MGIAPKII@?$FLIsSystemTradingUser?$FNSolomon?$LM?v?A@ ; `string'
PUBLIC	??_C@_01NANMIPIL@N@				; `string'
PUBLIC	??_C@_01NFFPALBN@Y@				; `string'
PUBLIC	??_C@_0BM@IDFHNMID@?$FLOpenScreen?$FNSolomon?$LM?v?A?$KE?G?J?$LP?d@ ; `string'
PUBLIC	??_C@_0P@EMKEIKBJ@WidthOfLeftBar@		; `string'
PUBLIC	??_C@_0N@LEEPDEEM@?$LA?E?$LH?$KB?$LM?R?$LM?x?$LI?E?$LM?v@ ; `string'
PUBLIC	??_C@_0N@OFFCMLOF@?D?Z?$LN?$LK?$LE?Z?$LM?x?$LI?E?$LM?v@ ; `string'
PUBLIC	??_C@_0L@FHHJLDBM@K200?$LM?x?$LI?E?$LM?v@	; `string'
PUBLIC	??_C@_0L@GDHOEADP@?$LM?$LB?$LJ?$LA?$LM?x?$LI?E?$LM?v@ ; `string'
PUBLIC	??_C@_0N@IILOCDNC@?D?$NN?$LP?I?$LM?G?$LM?x?$LI?E?$LM?v@ ; `string'
PUBLIC	??_C@_0N@GPLCLMGF@?G?$LC?$LP?I?$LM?G?$LM?x?$LI?E?$LM?v@ ; `string'
PUBLIC	??_C@_06HFLFPHDF@Code00@			; `string'
PUBLIC	??_C@_04JDPKJLKG@0000@				; `string'
PUBLIC	??_C@_04NIJBPFOG@0515@				; `string'
PUBLIC	??_C@_0BG@ILJLMOMK@OnLoadHistory_Init_?$CFd@	; `string'
PUBLIC	??_C@_04KFDECMLJ@1301@				; `string'
PUBLIC	??_C@_0O@LKFCJOMC@SET_STOCKCODE@		; `string'
PUBLIC	??_C@_06GFJLBLKD@024110@			; `string'
PUBLIC	??_C@_05KGAGPFBB@20301@				; `string'
PUBLIC	??_C@_03MMKGDKGA@001@				; `string'
PUBLIC	??_C@_05GNFKCGLE@30301@				; `string'
PUBLIC	??_C@_0BG@KJDCKONO@?$CFs?2sfcode_history?4dat@	; `string'
PUBLIC	??_C@_08JJGADJMB@JFMASTER@			; `string'
PUBLIC	??_C@_05LNKGNLBG@cfcod@				; `string'
PUBLIC	??_C@_04EACLLJCN@6665@				; `string'
PUBLIC	??_C@_0BA@IBKFDOEP@COMMODITYMASTER@		; `string'
PUBLIC	??_C@_05LLADMFKJ@50301@				; `string'
PUBLIC	??_C@_07BFPKBOOB@DJI?$EADJC@			; `string'
PUBLIC	??_C@_06MEGEOGFA@109301@			; `string'
PUBLIC	??_C@_0L@MLFIJCDN@PGKOSPIXPT@			; `string'
PUBLIC	??_C@_0N@OLEGDLBE@FUTOPT_CHART@			; `string'
PUBLIC	??_C@_04PDLMKGCF@0516@				; `string'
PUBLIC	??_C@_0BF@IPLIGJMI@?$CFs?2Icss?2ChartDef?4cfg@	; `string'
PUBLIC	??_C@_0BA@BPDNFBNL@?$CFs?2ChartDef?4cfg@	; `string'
PUBLIC	??_C@_06GEKNBBDK@000000@			; `string'
PUBLIC	??_C@_07EDIFFIJI@Current@			; `string'
PUBLIC	??_C@_03GDMIGCCC@Ver@				; `string'
PUBLIC	??_C@_05FOHFAPDM@?$CK?4mct@			; `string'
PUBLIC	??_C@_05LCPPJHOO@?$CK?4cht@			; `string'
PUBLIC	??_C@_0N@OIJJJJDJ@?$CKIndiCond?$CK?4?$CK@	; `string'
PUBLIC	??_C@_0BA@DCJFOBMJ@?$CKChartInfo?$CK?4dat@	; `string'
PUBLIC	??_C@_0N@MPHJMBJK@?$CKAnalTool?$CK?4?$CK@	; `string'
PUBLIC	??_C@_0BA@KAFEMAFG@?$CKJipyoSync?$CK?4dat@	; `string'
PUBLIC	??_C@_0P@BPGJMBEI@_ChartInfo?4dat@		; `string'
PUBLIC	??_C@_07MHLIEPKG@?$CFs?2?$CFs?$CFs@		; `string'
PUBLIC	??_C@_05IJGIMMHE@Count@				; `string'
PUBLIC	??_C@_0L@OOKMJFJF@?$CFs?2Icss?2?$CFs@		; `string'
PUBLIC	??_C@_06LEPDLCLO@?2Guide@			; `string'
PUBLIC	??_C@_06KJHHNPMO@?2Saved@			; `string'
PUBLIC	??_C@_08NFBGDCLD@LASTSTAT@			; `string'
PUBLIC	??_C@_05ONEOBAM@?$CFs_?$CFs@			; `string'
PUBLIC	??_C@_0CM@PEPHEJNH@?$AN?6?$FLCStdDialog?3?3SetSaveKey?$FN?5m_st@ ; `string'
PUBLIC	??_C@_0CO@GLEHGHAE@?$AN?6?$FLCStdDialog?3?3ClearSaveKey?$FN?5m_@ ; `string'
PUBLIC	??_R0?AUIPartnerSite@@@8			; IPartnerSite `RTTI Type Descriptor'
PUBLIC	??_R3IPartnerSite@@8				; IPartnerSite::`RTTI Class Hierarchy Descriptor'
PUBLIC	??_R2IPartnerSite@@8				; IPartnerSite::`RTTI Base Class Array'
PUBLIC	??_R1A@?0A@EA@IPartnerSite@@8			; IPartnerSite::`RTTI Base Class Descriptor at (0,-1,0,64)'
PUBLIC	??_R4COutsideCommonInterface@@6B@		; COutsideCommonInterface::`RTTI Complete Object Locator'
PUBLIC	??_R0?AVCOutsideCommonInterface@@@8		; COutsideCommonInterface `RTTI Type Descriptor'
PUBLIC	??_R3COutsideCommonInterface@@8			; COutsideCommonInterface::`RTTI Class Hierarchy Descriptor'
PUBLIC	??_R2COutsideCommonInterface@@8			; COutsideCommonInterface::`RTTI Base Class Array'
PUBLIC	??_R1A@?0A@EA@COutsideCommonInterface@@8	; COutsideCommonInterface::`RTTI Base Class Descriptor at (0,-1,0,64)'
PUBLIC	??_R4CMChartInterface@@6B@			; CMChartInterface::`RTTI Complete Object Locator'
PUBLIC	??_R0?AVCMChartInterface@@@8			; CMChartInterface `RTTI Type Descriptor'
PUBLIC	??_R3CMChartInterface@@8			; CMChartInterface::`RTTI Class Hierarchy Descriptor'
PUBLIC	??_R2CMChartInterface@@8			; CMChartInterface::`RTTI Base Class Array'
PUBLIC	??_R1A@?0A@EA@CMChartInterface@@8		; CMChartInterface::`RTTI Base Class Descriptor at (0,-1,0,64)'
PUBLIC	??_R4CMChartInterface061115@@6B@		; CMChartInterface061115::`RTTI Complete Object Locator'
PUBLIC	??_R0?AVCMChartInterface061115@@@8		; CMChartInterface061115 `RTTI Type Descriptor'
PUBLIC	??_R3CMChartInterface061115@@8			; CMChartInterface061115::`RTTI Class Hierarchy Descriptor'
PUBLIC	??_R2CMChartInterface061115@@8			; CMChartInterface061115::`RTTI Base Class Array'
PUBLIC	??_R1A@?0A@EA@CMChartInterface061115@@8		; CMChartInterface061115::`RTTI Base Class Descriptor at (0,-1,0,64)'
PUBLIC	??_R4?$CList@P6AXXZP6AXXZ@@6B@			; CList<void (__cdecl*)(void),void (__cdecl*)(void)>::`RTTI Complete Object Locator'
PUBLIC	??_R0?AV?$CList@P6AXXZP6AXXZ@@@8		; CList<void (__cdecl*)(void),void (__cdecl*)(void)> `RTTI Type Descriptor'
PUBLIC	??_R3?$CList@P6AXXZP6AXXZ@@8			; CList<void (__cdecl*)(void),void (__cdecl*)(void)>::`RTTI Class Hierarchy Descriptor'
PUBLIC	??_R2?$CList@P6AXXZP6AXXZ@@8			; CList<void (__cdecl*)(void),void (__cdecl*)(void)>::`RTTI Base Class Array'
PUBLIC	??_R1A@?0A@EA@?$CList@P6AXXZP6AXXZ@@8		; CList<void (__cdecl*)(void),void (__cdecl*)(void)>::`RTTI Base Class Descriptor at (0,-1,0,64)'
PUBLIC	??_R4?$CList@UST_LSHAREDFORMAT@@U1@@@6B@	; CList<ST_LSHAREDFORMAT,ST_LSHAREDFORMAT>::`RTTI Complete Object Locator'
PUBLIC	??_R0?AV?$CList@UST_LSHAREDFORMAT@@U1@@@@8	; CList<ST_LSHAREDFORMAT,ST_LSHAREDFORMAT> `RTTI Type Descriptor'
PUBLIC	??_R3?$CList@UST_LSHAREDFORMAT@@U1@@@8		; CList<ST_LSHAREDFORMAT,ST_LSHAREDFORMAT>::`RTTI Class Hierarchy Descriptor'
PUBLIC	??_R2?$CList@UST_LSHAREDFORMAT@@U1@@@8		; CList<ST_LSHAREDFORMAT,ST_LSHAREDFORMAT>::`RTTI Base Class Array'
PUBLIC	??_R1A@?0A@EA@?$CList@UST_LSHAREDFORMAT@@U1@@@8	; CList<ST_LSHAREDFORMAT,ST_LSHAREDFORMAT>::`RTTI Base Class Descriptor at (0,-1,0,64)'
PUBLIC	??_R4?$CList@UST_GSHAREDFORMAT@@U1@@@6B@	; CList<ST_GSHAREDFORMAT,ST_GSHAREDFORMAT>::`RTTI Complete Object Locator'
PUBLIC	??_R0?AV?$CList@UST_GSHAREDFORMAT@@U1@@@@8	; CList<ST_GSHAREDFORMAT,ST_GSHAREDFORMAT> `RTTI Type Descriptor'
PUBLIC	??_R3?$CList@UST_GSHAREDFORMAT@@U1@@@8		; CList<ST_GSHAREDFORMAT,ST_GSHAREDFORMAT>::`RTTI Class Hierarchy Descriptor'
PUBLIC	??_R2?$CList@UST_GSHAREDFORMAT@@U1@@@8		; CList<ST_GSHAREDFORMAT,ST_GSHAREDFORMAT>::`RTTI Base Class Array'
PUBLIC	??_R1A@?0A@EA@?$CList@UST_GSHAREDFORMAT@@U1@@@8	; CList<ST_GSHAREDFORMAT,ST_GSHAREDFORMAT>::`RTTI Base Class Descriptor at (0,-1,0,64)'
PUBLIC	??_R4?$CArray@PAUHWND__@@PAU1@@@6B@		; CArray<HWND__ *,HWND__ *>::`RTTI Complete Object Locator'
PUBLIC	??_R0?AV?$CArray@PAUHWND__@@PAU1@@@@8		; CArray<HWND__ *,HWND__ *> `RTTI Type Descriptor'
PUBLIC	??_R3?$CArray@PAUHWND__@@PAU1@@@8		; CArray<HWND__ *,HWND__ *>::`RTTI Class Hierarchy Descriptor'
PUBLIC	??_R2?$CArray@PAUHWND__@@PAU1@@@8		; CArray<HWND__ *,HWND__ *>::`RTTI Base Class Array'
PUBLIC	??_R1A@?0A@EA@?$CArray@PAUHWND__@@PAU1@@@8	; CArray<HWND__ *,HWND__ *>::`RTTI Base Class Descriptor at (0,-1,0,64)'
PUBLIC	??_R4CStdDialog@@6BCDialog@@@			; CStdDialog::`RTTI Complete Object Locator'
PUBLIC	??_R0?AVCStdDialog@@@8				; CStdDialog `RTTI Type Descriptor'
PUBLIC	??_R3CStdDialog@@8				; CStdDialog::`RTTI Class Hierarchy Descriptor'
PUBLIC	??_R2CStdDialog@@8				; CStdDialog::`RTTI Base Class Array'
PUBLIC	??_R1A@?0A@EA@CStdDialog@@8			; CStdDialog::`RTTI Base Class Descriptor at (0,-1,0,64)'
PUBLIC	??_R1A@?0A@EA@CExOCXDLL@@8			; CExOCXDLL::`RTTI Base Class Descriptor at (0,-1,0,64)'
PUBLIC	??_R0?AVCExOCXDLL@@@8				; CExOCXDLL `RTTI Type Descriptor'
PUBLIC	??_R3CExOCXDLL@@8				; CExOCXDLL::`RTTI Class Hierarchy Descriptor'
PUBLIC	??_R2CExOCXDLL@@8				; CExOCXDLL::`RTTI Base Class Array'
PUBLIC	??_R1A@?0A@EA@CExDialog@@8			; CExDialog::`RTTI Base Class Descriptor at (0,-1,0,64)'
PUBLIC	??_R0?AVCExDialog@@@8				; CExDialog `RTTI Type Descriptor'
PUBLIC	??_R3CExDialog@@8				; CExDialog::`RTTI Class Hierarchy Descriptor'
PUBLIC	??_R2CExDialog@@8				; CExDialog::`RTTI Base Class Array'
PUBLIC	??_R1KI@?0A@EA@CExResize@@8			; CExResize::`RTTI Base Class Descriptor at (168,-1,0,64)'
PUBLIC	??_R0?AVCExResize@@@8				; CExResize `RTTI Type Descriptor'
PUBLIC	??_R3CExResize@@8				; CExResize::`RTTI Class Hierarchy Descriptor'
PUBLIC	??_R2CExResize@@8				; CExResize::`RTTI Base Class Array'
PUBLIC	??_R1A@?0A@EA@CExResize@@8			; CExResize::`RTTI Base Class Descriptor at (0,-1,0,64)'
PUBLIC	??_R1CNA@?0A@EA@CMChartInterface061115@@8	; CMChartInterface061115::`RTTI Base Class Descriptor at (720,-1,0,64)'
PUBLIC	??_R1CNA@?0A@EA@CMChartInterface@@8		; CMChartInterface::`RTTI Base Class Descriptor at (720,-1,0,64)'
PUBLIC	??_R1CNA@?0A@EA@COutsideCommonInterface@@8	; COutsideCommonInterface::`RTTI Base Class Descriptor at (720,-1,0,64)'
PUBLIC	??_R4CStdDialog@@6BCExResize@@@			; CStdDialog::`RTTI Complete Object Locator'
PUBLIC	??_R4CStdDialog@@6B@				; CStdDialog::`RTTI Complete Object Locator'
PUBLIC	??_R4?$CList@JJ@@6B@				; CList<long,long>::`RTTI Complete Object Locator'
PUBLIC	??_R0?AV?$CList@JJ@@@8				; CList<long,long> `RTTI Type Descriptor'
PUBLIC	??_R3?$CList@JJ@@8				; CList<long,long>::`RTTI Class Hierarchy Descriptor'
PUBLIC	??_R2?$CList@JJ@@8				; CList<long,long>::`RTTI Base Class Array'
PUBLIC	??_R1A@?0A@EA@?$CList@JJ@@8			; CList<long,long>::`RTTI Base Class Descriptor at (0,-1,0,64)'
PUBLIC	??_R4?$CArray@USTTRINFO@@U1@@@6B@		; CArray<STTRINFO,STTRINFO>::`RTTI Complete Object Locator'
PUBLIC	??_R0?AV?$CArray@USTTRINFO@@U1@@@@8		; CArray<STTRINFO,STTRINFO> `RTTI Type Descriptor'
PUBLIC	??_R3?$CArray@USTTRINFO@@U1@@@8			; CArray<STTRINFO,STTRINFO>::`RTTI Class Hierarchy Descriptor'
PUBLIC	??_R2?$CArray@USTTRINFO@@U1@@@8			; CArray<STTRINFO,STTRINFO>::`RTTI Base Class Array'
PUBLIC	??_R1A@?0A@EA@?$CArray@USTTRINFO@@U1@@@8	; CArray<STTRINFO,STTRINFO>::`RTTI Base Class Descriptor at (0,-1,0,64)'
PUBLIC	??_R4?$CList@PAUSTSENDDATAQUE@@PAU1@@@6B@	; CList<STSENDDATAQUE *,STSENDDATAQUE *>::`RTTI Complete Object Locator'
PUBLIC	??_R0?AV?$CList@PAUSTSENDDATAQUE@@PAU1@@@@8	; CList<STSENDDATAQUE *,STSENDDATAQUE *> `RTTI Type Descriptor'
PUBLIC	??_R3?$CList@PAUSTSENDDATAQUE@@PAU1@@@8		; CList<STSENDDATAQUE *,STSENDDATAQUE *>::`RTTI Class Hierarchy Descriptor'
PUBLIC	??_R2?$CList@PAUSTSENDDATAQUE@@PAU1@@@8		; CList<STSENDDATAQUE *,STSENDDATAQUE *>::`RTTI Base Class Array'
PUBLIC	??_R1A@?0A@EA@?$CList@PAUSTSENDDATAQUE@@PAU1@@@8 ; CList<STSENDDATAQUE *,STSENDDATAQUE *>::`RTTI Base Class Descriptor at (0,-1,0,64)'
PUBLIC	??_R4CPartnerSite@CStdDialog@@6B@		; CStdDialog::CPartnerSite::`RTTI Complete Object Locator'
PUBLIC	??_R0?AVCPartnerSite@CStdDialog@@@8		; CStdDialog::CPartnerSite `RTTI Type Descriptor'
PUBLIC	??_R3CPartnerSite@CStdDialog@@8			; CStdDialog::CPartnerSite::`RTTI Class Hierarchy Descriptor'
PUBLIC	??_R2CPartnerSite@CStdDialog@@8			; CStdDialog::CPartnerSite::`RTTI Base Class Array'
PUBLIC	??_R1A@?0A@EA@CPartnerSite@CStdDialog@@8	; CStdDialog::CPartnerSite::`RTTI Base Class Descriptor at (0,-1,0,64)'
EXTRN	??_L@YGXPAXIIP6EX0@Z1@Z:PROC			; `eh vector constructor iterator'
EXTRN	??_M@YGXPAXIIP6EX0@Z@Z:PROC			; `eh vector destructor iterator'
EXTRN	??2@YAPAXI@Z:PROC				; operator new
EXTRN	??3@YAXPAX@Z:PROC				; operator delete
EXTRN	??3@YAXPAXI@Z:PROC				; operator delete
EXTRN	?__global_delete@@YAXPAXI@Z:PROC		; __global_delete
EXTRN	??_U@YAPAXI@Z:PROC				; operator new[]
EXTRN	??_V@YAXPAX@Z:PROC				; operator delete[]
EXTRN	??_V@YAXPAXI@Z:PROC				; operator delete[]
EXTRN	_atexit:PROC
EXTRN	___std_terminate:PROC
EXTRN	__imp___invalid_parameter_noinfo:PROC
EXTRN	__imp___errno:PROC
EXTRN	__imp__strdup:PROC
EXTRN	__imp__GetEnvironmentVariableA@12:PROC
EXTRN	__imp__DeleteFileA@4:PROC
EXTRN	__imp__OutputDebugStringA@4:PROC
EXTRN	__imp__RaiseException@16:PROC
EXTRN	__imp__GetLastError@0:PROC
EXTRN	__imp__InitializeCriticalSectionEx@12:PROC
EXTRN	__imp__DeleteCriticalSection@4:PROC
EXTRN	__imp__GetVersionExA@4:PROC
EXTRN	__imp__FreeLibrary@4:PROC
EXTRN	__imp__GetModuleFileNameA@12:PROC
EXTRN	__imp__GetModuleHandleA@4:PROC
EXTRN	__imp__GetProcAddress@8:PROC
EXTRN	__imp__LoadLibraryA@4:PROC
EXTRN	__imp__lstrcmpA@8:PROC
EXTRN	__imp__GetPrivateProfileIntA@16:PROC
EXTRN	__imp__GetPrivateProfileStringA@24:PROC
EXTRN	__imp__WritePrivateProfileStringA@16:PROC
EXTRN	__imp__CopyFileA@12:PROC
EXTRN	__imp__CreateCompatibleBitmap@12:PROC
EXTRN	__imp__DeleteObject@4:PROC
EXTRN	__imp__GetBitmapDimensionEx@8:PROC
EXTRN	__imp__RegisterWindowMessageA@4:PROC
EXTRN	__imp__SendMessageA@16:PROC
EXTRN	__imp__PostMessageA@16:PROC
EXTRN	__imp__UnregisterClassA@8:PROC
EXTRN	__imp__IsWindow@4:PROC
EXTRN	__imp__IsChild@8:PROC
EXTRN	__imp__IsWindowVisible@4:PROC
EXTRN	__imp__BringWindowToTop@4:PROC
EXTRN	__imp__SetFocus@4:PROC
EXTRN	__imp__GetKeyState@4:PROC
EXTRN	__imp__SetTimer@16:PROC
EXTRN	__imp__KillTimer@8:PROC
EXTRN	__imp__EnableWindow@8:PROC
EXTRN	__imp__CreatePopupMenu@0:PROC
EXTRN	__imp__AppendMenuA@16:PROC
EXTRN	__imp__InvalidateRect@12:PROC
EXTRN	__imp__GetClientRect@8:PROC
EXTRN	__imp__GetWindowRect@8:PROC
EXTRN	__imp__SetCursor@4:PROC
EXTRN	__imp__GetCursorPos@4:PROC
EXTRN	__imp__ScreenToClient@8:PROC
EXTRN	__imp__WindowFromPoint@8:PROC
EXTRN	__imp__SetRectEmpty@4:PROC
EXTRN	__imp__EqualRect@8:PROC
EXTRN	__imp__PtInRect@12:PROC
EXTRN	__imp__GetParent@4:PROC
EXTRN	__imp__SetParent@8:PROC
EXTRN	__imp__LoadCursorW@8:PROC
EXTRN	__imp__LoadImageA@24:PROC
EXTRN	__imp__ImageList_AddMasked@12:PROC
EXTRN	__imp____stdio_common_vsprintf:PROC
EXTRN	__imp____stdio_common_vsscanf:PROC
EXTRN	__imp__free:PROC
EXTRN	__imp__malloc:PROC
EXTRN	__imp__atof:PROC
EXTRN	__imp__atoi:PROC
EXTRN	__imp__atol:PROC
EXTRN	?AfxThrowMemoryException@@YGXXZ:PROC		; AfxThrowMemoryException
EXTRN	?AfxThrowInvalidArgException@@YGXXZ:PROC	; AfxThrowInvalidArgException
EXTRN	?AfxThrowArchiveException@@YGXHPBD@Z:PROC	; AfxThrowArchiveException
EXTRN	?GetRuntimeClass@CObject@@UBEPAUCRuntimeClass@@XZ:PROC ; CObject::GetRuntimeClass
EXTRN	__imp__SysFreeString@4:PROC
EXTRN	__imp_??A?$CSimpleStringT@D$00@ATL@@QBEDH@Z:PROC
EXTRN	__imp_?Empty@?$CSimpleStringT@D$00@ATL@@QAEXXZ:PROC
EXTRN	__imp_?GetAt@?$CSimpleStringT@D$00@ATL@@QBEDH@Z:PROC
EXTRN	__imp_?GetBuffer@?$CSimpleStringT@D$00@ATL@@QAEPADH@Z:PROC
EXTRN	__imp_?GetBufferSetLength@?$CSimpleStringT@D$00@ATL@@QAEPADH@Z:PROC
EXTRN	__imp_?ReleaseBuffer@?$CSimpleStringT@D$00@ATL@@QAEXH@Z:PROC
EXTRN	__imp_?Concatenate@?$CSimpleStringT@D$00@ATL@@KAXAAV12@PBDH1H@Z:PROC
EXTRN	__imp_??0?$CStringT@DV?$StrTraitMFC_DLL@DV?$ChTraitsCRT@D@ATL@@@@@ATL@@QAE@XZ:PROC
EXTRN	__imp_??0?$CStringT@DV?$StrTraitMFC_DLL@DV?$ChTraitsCRT@D@ATL@@@@@ATL@@QAE@PAUIAtlStringMgr@1@@Z:PROC
EXTRN	__imp_??0?$CStringT@DV?$StrTraitMFC_DLL@DV?$ChTraitsCRT@D@ATL@@@@@ATL@@QAE@ABV01@@Z:PROC
EXTRN	__imp_??0?$CStringT@DV?$StrTraitMFC_DLL@DV?$ChTraitsCRT@D@ATL@@@@@ATL@@QAE@PBD@Z:PROC
EXTRN	__imp_??1?$CStringT@DV?$StrTraitMFC_DLL@DV?$ChTraitsCRT@D@ATL@@@@@ATL@@QAE@XZ:PROC
EXTRN	__imp_??4?$CStringT@DV?$StrTraitMFC_DLL@DV?$ChTraitsCRT@D@ATL@@@@@ATL@@QAEAAV01@ABV01@@Z:PROC
EXTRN	__imp_??4?$CStringT@DV?$StrTraitMFC_DLL@DV?$ChTraitsCRT@D@ATL@@@@@ATL@@QAEAAV01@PBD@Z:PROC
EXTRN	__imp_??Y?$CStringT@DV?$StrTraitMFC_DLL@DV?$ChTraitsCRT@D@ATL@@@@@ATL@@QAEAAV01@ABV?$CSimpleStringT@D$00@1@@Z:PROC
EXTRN	__imp_??Y?$CStringT@DV?$StrTraitMFC_DLL@DV?$ChTraitsCRT@D@ATL@@@@@ATL@@QAEAAV01@PBD@Z:PROC
EXTRN	__imp_??Y?$CStringT@DV?$StrTraitMFC_DLL@DV?$ChTraitsCRT@D@ATL@@@@@ATL@@QAEAAV01@D@Z:PROC
EXTRN	__imp_?GetManager@?$CStringT@DV?$StrTraitMFC_DLL@DV?$ChTraitsCRT@D@ATL@@@@@ATL@@QBEPAUIAtlStringMgr@2@XZ:PROC
EXTRN	__imp_?Compare@?$CStringT@DV?$StrTraitMFC_DLL@DV?$ChTraitsCRT@D@ATL@@@@@ATL@@QBEHPBD@Z:PROC
EXTRN	__imp_?CompareNoCase@?$CStringT@DV?$StrTraitMFC_DLL@DV?$ChTraitsCRT@D@ATL@@@@@ATL@@QBEHPBD@Z:PROC
EXTRN	__imp_?Replace@?$CStringT@DV?$StrTraitMFC_DLL@DV?$ChTraitsCRT@D@ATL@@@@@ATL@@QAEHPBD0@Z:PROC
EXTRN	__imp_?Remove@?$CStringT@DV?$StrTraitMFC_DLL@DV?$ChTraitsCRT@D@ATL@@@@@ATL@@QAEHD@Z:PROC
EXTRN	__imp_?Find@?$CStringT@DV?$StrTraitMFC_DLL@DV?$ChTraitsCRT@D@ATL@@@@@ATL@@QBEHDH@Z:PROC
EXTRN	__imp_?Find@?$CStringT@DV?$StrTraitMFC_DLL@DV?$ChTraitsCRT@D@ATL@@@@@ATL@@QBEHPBDH@Z:PROC
EXTRN	__imp_?ReverseFind@?$CStringT@DV?$StrTraitMFC_DLL@DV?$ChTraitsCRT@D@ATL@@@@@ATL@@QBEHD@Z:PROC
EXTRN	__imp_?MakeReverse@?$CStringT@DV?$StrTraitMFC_DLL@DV?$ChTraitsCRT@D@ATL@@@@@ATL@@QAEAAV12@XZ:PROC
EXTRN	__imp_?TrimRight@?$CStringT@DV?$StrTraitMFC_DLL@DV?$ChTraitsCRT@D@ATL@@@@@ATL@@QAEAAV12@XZ:PROC
EXTRN	__imp_?TrimLeft@?$CStringT@DV?$StrTraitMFC_DLL@DV?$ChTraitsCRT@D@ATL@@@@@ATL@@QAEAAV12@XZ:PROC
EXTRN	__imp_?TrimRight@?$CStringT@DV?$StrTraitMFC_DLL@DV?$ChTraitsCRT@D@ATL@@@@@ATL@@QAEAAV12@D@Z:PROC
EXTRN	__imp_?Mid@?$CStringT@DV?$StrTraitMFC_DLL@DV?$ChTraitsCRT@D@ATL@@@@@ATL@@QBE?AV12@H@Z:PROC
EXTRN	__imp_?Mid@?$CStringT@DV?$StrTraitMFC_DLL@DV?$ChTraitsCRT@D@ATL@@@@@ATL@@QBE?AV12@HH@Z:PROC
EXTRN	__imp_?Right@?$CStringT@DV?$StrTraitMFC_DLL@DV?$ChTraitsCRT@D@ATL@@@@@ATL@@QBE?AV12@H@Z:PROC
EXTRN	__imp_?Left@?$CStringT@DV?$StrTraitMFC_DLL@DV?$ChTraitsCRT@D@ATL@@@@@ATL@@QBE?AV12@H@Z:PROC
EXTRN	__imp_?Format@?$CStringT@DV?$StrTraitMFC_DLL@DV?$ChTraitsCRT@D@ATL@@@@@ATL@@QAAXPBDZZ:PROC
EXTRN	??0CStdioFile@@QAE@XZ:PROC			; CStdioFile::CStdioFile
EXTRN	?ReadString@CStdioFile@@UAEHAAV?$CStringT@DV?$StrTraitMFC_DLL@DV?$ChTraitsCRT@D@ATL@@@@@ATL@@@Z:PROC ; CStdioFile::ReadString
EXTRN	??1CStdioFile@@UAE@XZ:PROC			; CStdioFile::~CStdioFile
EXTRN	?Open@CStdioFile@@UAEHPBDIPAVCFileException@@@Z:PROC ; CStdioFile::Open
EXTRN	?Close@CStdioFile@@UAEXXZ:PROC			; CStdioFile::Close
EXTRN	??0CFileFind@@QAE@XZ:PROC			; CFileFind::CFileFind
EXTRN	??1CFileFind@@UAE@XZ:PROC			; CFileFind::~CFileFind
EXTRN	?GetFileName@CFileFind@@UBE?AV?$CStringT@DV?$StrTraitMFC_DLL@DV?$ChTraitsCRT@D@ATL@@@@@ATL@@XZ:PROC ; CFileFind::GetFileName
EXTRN	?FindFile@CFileFind@@UAEHPBDK@Z:PROC		; CFileFind::FindFile
EXTRN	?FindNextFileA@CFileFind@@UAEHXZ:PROC		; CFileFind::FindNextFileA
EXTRN	?Read@CArchive@@QAEIPAXI@Z:PROC			; CArchive::Read
EXTRN	?Write@CArchive@@QAEXPBXI@Z:PROC		; CArchive::Write
EXTRN	?ReadCount@CArchive@@QAEKXZ:PROC		; CArchive::ReadCount
EXTRN	?WriteCount@CArchive@@QAEXK@Z:PROC		; CArchive::WriteCount
EXTRN	??0CStringArray@@QAE@XZ:PROC			; CStringArray::CStringArray
EXTRN	?SetSize@CStringArray@@QAEXHH@Z:PROC		; CStringArray::SetSize
EXTRN	?SetAtGrow@CStringArray@@QAEXHPBD@Z:PROC	; CStringArray::SetAtGrow
EXTRN	?SetAtGrow@CStringArray@@QAEXHABV?$CStringT@DV?$StrTraitMFC_DLL@DV?$ChTraitsCRT@D@ATL@@@@@ATL@@@Z:PROC ; CStringArray::SetAtGrow
EXTRN	??1CStringArray@@UAE@XZ:PROC			; CStringArray::~CStringArray
EXTRN	??0CStringList@@QAE@H@Z:PROC			; CStringList::CStringList
EXTRN	?RemoveHead@CStringList@@QAE?AV?$CStringT@DV?$StrTraitMFC_DLL@DV?$ChTraitsCRT@D@ATL@@@@@ATL@@XZ:PROC ; CStringList::RemoveHead
EXTRN	?AddTail@CStringList@@QAEPAU__POSITION@@ABV?$CStringT@DV?$StrTraitMFC_DLL@DV?$ChTraitsCRT@D@ATL@@@@@ATL@@@Z:PROC ; CStringList::AddTail
EXTRN	?RemoveAll@CStringList@@QAEXXZ:PROC		; CStringList::RemoveAll
EXTRN	??1CStringList@@UAE@XZ:PROC			; CStringList::~CStringList
EXTRN	??0CMapStringToPtr@@QAE@H@Z:PROC		; CMapStringToPtr::CMapStringToPtr
EXTRN	?Lookup@CMapStringToPtr@@QBEHPBDAAPAX@Z:PROC	; CMapStringToPtr::Lookup
EXTRN	??ACMapStringToPtr@@QAEAAPAXPBD@Z:PROC		; CMapStringToPtr::operator[]
EXTRN	?RemoveKey@CMapStringToPtr@@QAEHPBD@Z:PROC	; CMapStringToPtr::RemoveKey
EXTRN	?RemoveAll@CMapStringToPtr@@QAEXXZ:PROC		; CMapStringToPtr::RemoveAll
EXTRN	?GetNextAssoc@CMapStringToPtr@@QBEXAAPAU__POSITION@@AAV?$CStringT@DV?$StrTraitMFC_DLL@DV?$ChTraitsCRT@D@ATL@@@@@ATL@@AAPAX@Z:PROC ; CMapStringToPtr::GetNextAssoc
EXTRN	??1CMapStringToPtr@@UAE@XZ:PROC			; CMapStringToPtr::~CMapStringToPtr
EXTRN	??0CMapStringToString@@QAE@H@Z:PROC		; CMapStringToString::CMapStringToString
EXTRN	?Lookup@CMapStringToString@@QBEHPBDAAV?$CStringT@DV?$StrTraitMFC_DLL@DV?$ChTraitsCRT@D@ATL@@@@@ATL@@@Z:PROC ; CMapStringToString::Lookup
EXTRN	?RemoveKey@CMapStringToString@@QAEHPBD@Z:PROC	; CMapStringToString::RemoveKey
EXTRN	?RemoveAll@CMapStringToString@@QAEXXZ:PROC	; CMapStringToString::RemoveAll
EXTRN	??1CMapStringToString@@UAE@XZ:PROC		; CMapStringToString::~CMapStringToString
EXTRN	?AfxGetModuleState@@YGPAVAFX_MODULE_STATE@@XZ:PROC ; AfxGetModuleState
EXTRN	?AfxGetStaticModuleState@@YGPAVAFX_MODULE_STATE@@XZ:PROC ; AfxGetStaticModuleState
EXTRN	??0AFX_MAINTAIN_STATE2@@QAE@PAVAFX_MODULE_STATE@@@Z:PROC ; AFX_MAINTAIN_STATE2::AFX_MAINTAIN_STATE2
EXTRN	??1AFX_MAINTAIN_STATE2@@QAE@XZ:PROC		; AFX_MAINTAIN_STATE2::~AFX_MAINTAIN_STATE2
EXTRN	?Create@CPlex@@SGPAU1@AAPAU1@II@Z:PROC		; CPlex::Create
EXTRN	?FreeDataChain@CPlex@@QAEXXZ:PROC		; CPlex::FreeDataChain
EXTRN	?GetRuntimeClass@CGdiObject@@UBEPAUCRuntimeClass@@XZ:PROC ; CGdiObject::GetRuntimeClass
EXTRN	?Attach@CGdiObject@@QAEHPAX@Z:PROC		; CGdiObject::Attach
EXTRN	?DeleteObject@CGdiObject@@QAEHXZ:PROC		; CGdiObject::DeleteObject
EXTRN	??_ECGdiObject@@UAEPAXI@Z:PROC			; CGdiObject::`vector deleting destructor'
EXTRN	?GetRuntimeClass@CBitmap@@UBEPAUCRuntimeClass@@XZ:PROC ; CBitmap::GetRuntimeClass
EXTRN	??_ECBitmap@@UAEPAXI@Z:PROC			; CBitmap::`vector deleting destructor'
EXTRN	??0CDC@@QAE@XZ:PROC				; CDC::CDC
EXTRN	?DeleteDC@CDC@@QAEHXZ:PROC			; CDC::DeleteDC
EXTRN	?GetClipBox@CDC@@UBEHPAUtagRECT@@@Z:PROC	; CDC::GetClipBox
EXTRN	?FillSolidRect@CDC@@QAEXPBUtagRECT@@K@Z:PROC	; CDC::FillSolidRect
EXTRN	??1CDC@@UAE@XZ:PROC				; CDC::~CDC
EXTRN	??0CPaintDC@@QAE@PAVCWnd@@@Z:PROC		; CPaintDC::CPaintDC
EXTRN	??1CPaintDC@@UAE@XZ:PROC			; CPaintDC::~CPaintDC
EXTRN	??0CImageList@@QAE@XZ:PROC			; CImageList::CImageList
EXTRN	?Create@CImageList@@QAEHHHIHH@Z:PROC		; CImageList::Create
EXTRN	?DeleteImageList@CImageList@@QAEHXZ:PROC	; CImageList::DeleteImageList
EXTRN	??1CImageList@@UAE@XZ:PROC			; CImageList::~CImageList
EXTRN	?GetRuntimeClass@CMenu@@UBEPAUCRuntimeClass@@XZ:PROC ; CMenu::GetRuntimeClass
EXTRN	?DestroyMenu@CMenu@@QAEHXZ:PROC			; CMenu::DestroyMenu
EXTRN	?Attach@CMenu@@QAEHPAUHMENU__@@@Z:PROC		; CMenu::Attach
EXTRN	?TrackPopupMenu@CMenu@@QAEHIHHPAVCWnd@@PBUtagRECT@@@Z:PROC ; CMenu::TrackPopupMenu
EXTRN	?DrawItem@CMenu@@UAEXPAUtagDRAWITEMSTRUCT@@@Z:PROC ; CMenu::DrawItem
EXTRN	?MeasureItem@CMenu@@UAEXPAUtagMEASUREITEMSTRUCT@@@Z:PROC ; CMenu::MeasureItem
EXTRN	??_ECMenu@@UAEPAXI@Z:PROC			; CMenu::`vector deleting destructor'
EXTRN	?DDX_Control@@YGXPAVCDataExchange@@HAAVCWnd@@@Z:PROC ; DDX_Control
EXTRN	?EnableAutomation@CCmdTarget@@QAEXXZ:PROC	; CCmdTarget::EnableAutomation
EXTRN	?IsInvokeAllowed@CCmdTarget@@UAEHJ@Z:PROC	; CCmdTarget::IsInvokeAllowed
EXTRN	?GetDispatchIID@CCmdTarget@@UAEHPAU_GUID@@@Z:PROC ; CCmdTarget::GetDispatchIID
EXTRN	?GetTypeInfoCount@CCmdTarget@@UAEIXZ:PROC	; CCmdTarget::GetTypeInfoCount
EXTRN	?GetTypeLibCache@CCmdTarget@@UAEPAVCTypeLibCache@@XZ:PROC ; CCmdTarget::GetTypeLibCache
EXTRN	?GetTypeLib@CCmdTarget@@UAEJKPAPAUITypeLib@@@Z:PROC ; CCmdTarget::GetTypeLib
EXTRN	?GetCommandMap@CCmdTarget@@MBEPBUAFX_OLECMDMAP@@XZ:PROC ; CCmdTarget::GetCommandMap
EXTRN	?GetThisDispatchMap@CCmdTarget@@KGPBUAFX_DISPMAP@@XZ:PROC ; CCmdTarget::GetThisDispatchMap
EXTRN	?GetConnectionMap@CCmdTarget@@MBEPBUAFX_CONNECTIONMAP@@XZ:PROC ; CCmdTarget::GetConnectionMap
EXTRN	?GetEventSinkMap@CCmdTarget@@MBEPBUAFX_EVENTSINKMAP@@XZ:PROC ; CCmdTarget::GetEventSinkMap
EXTRN	?OnCreateAggregates@CCmdTarget@@UAEHXZ:PROC	; CCmdTarget::OnCreateAggregates
EXTRN	?GetInterfaceHook@CCmdTarget@@UAEPAUIUnknown@@PBX@Z:PROC ; CCmdTarget::GetInterfaceHook
EXTRN	?GetExtraConnectionPoints@CCmdTarget@@MAEHPAVCPtrArray@@@Z:PROC ; CCmdTarget::GetExtraConnectionPoints
EXTRN	?GetConnectionHook@CCmdTarget@@MAEPAUIConnectionPoint@@ABU_GUID@@@Z:PROC ; CCmdTarget::GetConnectionHook
EXTRN	?ModifyStyle@CWnd@@QAEHKKI@Z:PROC		; CWnd::ModifyStyle
EXTRN	?FromHandle@CWnd@@SGPAV1@PAUHWND__@@@Z:PROC	; CWnd::FromHandle
EXTRN	?PreSubclassWindow@CWnd@@UAEXXZ:PROC		; CWnd::PreSubclassWindow
EXTRN	?Create@CWnd@@UAEHPBD0KABUtagRECT@@PAV1@IPAUCCreateContext@@@Z:PROC ; CWnd::Create
EXTRN	?CreateEx@CWnd@@UAEHKPBD0KHHHHPAUHWND__@@PAUHMENU__@@PAX@Z:PROC ; CWnd::CreateEx
EXTRN	?CreateEx@CWnd@@UAEHKPBD0KABUtagRECT@@PAV1@IPAX@Z:PROC ; CWnd::CreateEx
EXTRN	?DestroyWindow@CWnd@@UAEHXZ:PROC		; CWnd::DestroyWindow
EXTRN	?PreCreateWindow@CWnd@@UAEHAAUtagCREATESTRUCTA@@@Z:PROC ; CWnd::PreCreateWindow
EXTRN	?CalcWindowRect@CWnd@@UAEXPAUtagRECT@@I@Z:PROC	; CWnd::CalcWindowRect
EXTRN	?GetMenu@CWnd@@UBEPAVCMenu@@XZ:PROC		; CWnd::GetMenu
EXTRN	?SetMenu@CWnd@@UAEHPAVCMenu@@@Z:PROC		; CWnd::SetMenu
EXTRN	?MoveWindow@CWnd@@QAEXHHHHH@Z:PROC		; CWnd::MoveWindow
EXTRN	?SetWindowPos@CWnd@@QAEHPBV1@HHHHI@Z:PROC	; CWnd::SetWindowPos
EXTRN	?ScreenToClient@CWnd@@QBEXPAUtagRECT@@@Z:PROC	; CWnd::ScreenToClient
EXTRN	?ShowWindow@CWnd@@QAEHH@Z:PROC			; CWnd::ShowWindow
EXTRN	?OnToolHitTest@CWnd@@UBEHVCPoint@@PAUtagTOOLINFOA@@@Z:PROC ; CWnd::OnToolHitTest
EXTRN	?EnableWindow@CWnd@@QAEHH@Z:PROC		; CWnd::EnableWindow
EXTRN	?GetScrollBarCtrl@CWnd@@UBEPAVCScrollBar@@H@Z:PROC ; CWnd::GetScrollBarCtrl
EXTRN	?MessageBoxA@CWnd@@QAEHPBD0I@Z:PROC		; CWnd::MessageBoxA
EXTRN	?WinHelpA@CWnd@@UAEXKI@Z:PROC			; CWnd::WinHelpA
EXTRN	?HtmlHelpA@CWnd@@UAEXKI@Z:PROC			; CWnd::HtmlHelpA
EXTRN	?WinHelpInternal@CWnd@@UAEXKI@Z:PROC		; CWnd::WinHelpInternal
EXTRN	?ContinueModal@CWnd@@UAEHXZ:PROC		; CWnd::ContinueModal
EXTRN	?EndModalLoop@CWnd@@UAEXH@Z:PROC		; CWnd::EndModalLoop
EXTRN	?OnDrawIconicThumbnailOrLivePreview@CWnd@@UAEXAAVCDC@@VCRect@@VCSize@@HAAH@Z:PROC ; CWnd::OnDrawIconicThumbnailOrLivePreview
EXTRN	?GetThisInterfaceMap@CWnd@@KGPBUAFX_INTERFACEMAP@@XZ:PROC ; CWnd::GetThisInterfaceMap
EXTRN	?EnsureStdObj@CWnd@@UAEJXZ:PROC			; CWnd::EnsureStdObj
EXTRN	?get_accParent@CWnd@@UAEJPAPAUIDispatch@@@Z:PROC ; CWnd::get_accParent
EXTRN	?get_accChildCount@CWnd@@UAEJPAJ@Z:PROC		; CWnd::get_accChildCount
EXTRN	?get_accChild@CWnd@@UAEJUtagVARIANT@@PAPAUIDispatch@@@Z:PROC ; CWnd::get_accChild
EXTRN	?get_accName@CWnd@@UAEJUtagVARIANT@@PAPA_W@Z:PROC ; CWnd::get_accName
EXTRN	?get_accValue@CWnd@@UAEJUtagVARIANT@@PAPA_W@Z:PROC ; CWnd::get_accValue
EXTRN	?get_accDescription@CWnd@@UAEJUtagVARIANT@@PAPA_W@Z:PROC ; CWnd::get_accDescription
EXTRN	?get_accRole@CWnd@@UAEJUtagVARIANT@@PAU2@@Z:PROC ; CWnd::get_accRole
EXTRN	?get_accState@CWnd@@UAEJUtagVARIANT@@PAU2@@Z:PROC ; CWnd::get_accState
EXTRN	?get_accHelp@CWnd@@UAEJUtagVARIANT@@PAPA_W@Z:PROC ; CWnd::get_accHelp
EXTRN	?get_accHelpTopic@CWnd@@UAEJPAPA_WUtagVARIANT@@PAJ@Z:PROC ; CWnd::get_accHelpTopic
EXTRN	?get_accKeyboardShortcut@CWnd@@UAEJUtagVARIANT@@PAPA_W@Z:PROC ; CWnd::get_accKeyboardShortcut
EXTRN	?get_accFocus@CWnd@@UAEJPAUtagVARIANT@@@Z:PROC	; CWnd::get_accFocus
EXTRN	?get_accSelection@CWnd@@UAEJPAUtagVARIANT@@@Z:PROC ; CWnd::get_accSelection
EXTRN	?get_accDefaultAction@CWnd@@UAEJUtagVARIANT@@PAPA_W@Z:PROC ; CWnd::get_accDefaultAction
EXTRN	?accSelect@CWnd@@UAEJJUtagVARIANT@@@Z:PROC	; CWnd::accSelect
EXTRN	?accLocation@CWnd@@UAEJPAJ000UtagVARIANT@@@Z:PROC ; CWnd::accLocation
EXTRN	?accNavigate@CWnd@@UAEJJUtagVARIANT@@PAU2@@Z:PROC ; CWnd::accNavigate
EXTRN	?accHitTest@CWnd@@UAEJJJPAUtagVARIANT@@@Z:PROC	; CWnd::accHitTest
EXTRN	?accDoDefaultAction@CWnd@@UAEJUtagVARIANT@@@Z:PROC ; CWnd::accDoDefaultAction
EXTRN	?put_accName@CWnd@@UAEJUtagVARIANT@@PA_W@Z:PROC	; CWnd::put_accName
EXTRN	?put_accValue@CWnd@@UAEJUtagVARIANT@@PA_W@Z:PROC ; CWnd::put_accValue
EXTRN	?SetProxy@CWnd@@UAEJPAUIAccessibleProxy@@@Z:PROC ; CWnd::SetProxy
EXTRN	?CreateAccessibleProxy@CWnd@@UAEJIJPAJ@Z:PROC	; CWnd::CreateAccessibleProxy
EXTRN	?OnCommand@CWnd@@MAEHIJ@Z:PROC			; CWnd::OnCommand
EXTRN	?OnNotify@CWnd@@MAEHIJPAJ@Z:PROC		; CWnd::OnNotify
EXTRN	?GetSuperWndProcAddr@CWnd@@MAEPAP6GJPAUHWND__@@IIJ@ZXZ:PROC ; CWnd::GetSuperWndProcAddr
EXTRN	?OnAmbientProperty@CWnd@@UAEHPAVCOleControlSite@@JPAUtagVARIANT@@@Z:PROC ; CWnd::OnAmbientProperty
EXTRN	?WindowProc@CWnd@@MAEJIIJ@Z:PROC		; CWnd::WindowProc
EXTRN	?OnWndMsg@CWnd@@MAEHIIJPAJ@Z:PROC		; CWnd::OnWndMsg
EXTRN	?Default@CWnd@@IAEJXZ:PROC			; CWnd::Default
EXTRN	?DefWindowProcA@CWnd@@MAEJIIJ@Z:PROC		; CWnd::DefWindowProcA
EXTRN	?PostNcDestroy@CWnd@@MAEXXZ:PROC		; CWnd::PostNcDestroy
EXTRN	?OnChildNotify@CWnd@@MAEHIIJPAJ@Z:PROC		; CWnd::OnChildNotify
EXTRN	?OnTouchInputs@CWnd@@MAEHIPAUtagTOUCHINPUT@@@Z:PROC ; CWnd::OnTouchInputs
EXTRN	?OnTouchInput@CWnd@@MAEHVCPoint@@HHPAUtagTOUCHINPUT@@@Z:PROC ; CWnd::OnTouchInput
EXTRN	?GetGestureStatus@CWnd@@MAEKVCPoint@@@Z:PROC	; CWnd::GetGestureStatus
EXTRN	?OnGestureZoom@CWnd@@MAEHVCPoint@@J@Z:PROC	; CWnd::OnGestureZoom
EXTRN	?OnGesturePan@CWnd@@MAEHVCPoint@@0@Z:PROC	; CWnd::OnGesturePan
EXTRN	?OnGestureRotate@CWnd@@MAEHVCPoint@@N@Z:PROC	; CWnd::OnGestureRotate
EXTRN	?OnGestureTwoFingerTap@CWnd@@MAEHVCPoint@@@Z:PROC ; CWnd::OnGestureTwoFingerTap
EXTRN	?OnGesturePressAndTap@CWnd@@MAEHVCPoint@@J@Z:PROC ; CWnd::OnGesturePressAndTap
EXTRN	?ResizeDynamicLayout@CWnd@@MAEXXZ:PROC		; CWnd::ResizeDynamicLayout
EXTRN	?IsFrameWnd@CWnd@@UBEHXZ:PROC			; CWnd::IsFrameWnd
EXTRN	?OnFinalRelease@CWnd@@UAEXXZ:PROC		; CWnd::OnFinalRelease
EXTRN	?CreateControlContainer@CWnd@@MAEHPAPAVCOleControlContainer@@@Z:PROC ; CWnd::CreateControlContainer
EXTRN	?CreateControlSite@CWnd@@MAEHPAVCOleControlContainer@@PAPAVCOleControlSite@@IABU_GUID@@@Z:PROC ; CWnd::CreateControlSite
EXTRN	?Create@CDialog@@UAEHPBDPAVCWnd@@@Z:PROC	; CDialog::Create
EXTRN	?CreateIndirect@CDialog@@UAEHPBUDLGTEMPLATE@@PAVCWnd@@PAX@Z:PROC ; CDialog::CreateIndirect
EXTRN	?CreateIndirect@CDialog@@UAEHPAXPAVCWnd@@@Z:PROC ; CDialog::CreateIndirect
EXTRN	?DoModal@CDialog@@UAEHXZ:PROC			; CDialog::DoModal
EXTRN	?OnSetFont@CDialog@@UAEXPAVCFont@@@Z:PROC	; CDialog::OnSetFont
EXTRN	??1CDialog@@UAE@XZ:PROC				; CDialog::~CDialog
EXTRN	?OnCmdMsg@CDialog@@UAEHIHPAXPAUAFX_CMDHANDLERINFO@@@Z:PROC ; CDialog::OnCmdMsg
EXTRN	?CheckAutoCenter@CDialog@@UAEHXZ:PROC		; CDialog::CheckAutoCenter
EXTRN	?SetOccDialogInfo@CDialog@@MAEHPAU_AFX_OCC_DIALOG_INFO@@@Z:PROC ; CDialog::SetOccDialogInfo
EXTRN	?GetOccDialogInfo@CDialog@@MAEPAU_AFX_OCC_DIALOG_INFO@@XZ:PROC ; CDialog::GetOccDialogInfo
EXTRN	?PreInitDialog@CDialog@@MAEXXZ:PROC		; CDialog::PreInitDialog
EXTRN	?GetThisMessageMap@CDialog@@KGPBUAFX_MSGMAP@@XZ:PROC ; CDialog::GetThisMessageMap
EXTRN	?AfxFindResourceHandle@@YGPAUHINSTANCE__@@PBD0@Z:PROC ; AfxFindResourceHandle
EXTRN	?AfxMessageBox@@YGHPBDII@Z:PROC			; AfxMessageBox
EXTRN	?AfxExtractSubString@@YGHAAV?$CStringT@DV?$StrTraitMFC_DLL@DV?$ChTraitsCRT@D@ATL@@@@@ATL@@PBDHD@Z:PROC ; AfxExtractSubString
EXTRN	?AfxEnableControlContainer@@YAXPAVCOccManager@@@Z:PROC ; AfxEnableControlContainer
EXTRN	?AddLog@CLogMan@@QAEXV?$CStringT@DV?$StrTraitMFC_DLL@DV?$ChTraitsCRT@D@ATL@@@@@ATL@@@Z:PROC ; CLogMan::AddLog
EXTRN	?SaveLogFile@CLogMan@@QAEXV?$CStringT@DV?$StrTraitMFC_DLL@DV?$ChTraitsCRT@D@ATL@@@@@ATL@@@Z:PROC ; CLogMan::SaveLogFile
EXTRN	__imp___access:PROC
EXTRN	__imp___chmod:PROC
EXTRN	__imp___mkdir:PROC
EXTRN	__imp__mkdir:PROC
EXTRN	??0CxSplitterWnd@@QAE@XZ:PROC			; CxSplitterWnd::CxSplitterWnd
EXTRN	?CreateInWnd@CxSplitterWnd@@QAE_NPAVCWnd@@KPAUtagRECT@@@Z:PROC ; CxSplitterWnd::CreateInWnd
EXTRN	?AttachAsLeftCtrl@CxSplitterWnd@@QAE_NH_N@Z:PROC ; CxSplitterWnd::AttachAsLeftCtrl
EXTRN	?AttachAsLeftCtrl@CxSplitterWnd@@QAE_NPAVCWnd@@_N@Z:PROC ; CxSplitterWnd::AttachAsLeftCtrl
EXTRN	?AttachAsRightCtrl@CxSplitterWnd@@QAE_NH_N@Z:PROC ; CxSplitterWnd::AttachAsRightCtrl
EXTRN	?AttachAsRightCtrl@CxSplitterWnd@@QAE_NPAVCWnd@@_N@Z:PROC ; CxSplitterWnd::AttachAsRightCtrl
EXTRN	?DetachAllCtrls@CxSplitterWnd@@QAE_NXZ:PROC	; CxSplitterWnd::DetachAllCtrls
EXTRN	?RecalcLayout@CxSplitterWnd@@QAEXXZ:PROC	; CxSplitterWnd::RecalcLayout
EXTRN	??1CxSplitterWnd@@UAE@XZ:PROC			; CxSplitterWnd::~CxSplitterWnd
EXTRN	?GetNUserBlockAddCount@CDRChartOcx@@QAEJXZ:PROC	; CDRChartOcx::GetNUserBlockAddCount
EXTRN	?GetRowBlockCount@CDRChartOcx@@QAEFXZ:PROC	; CDRChartOcx::GetRowBlockCount
EXTRN	??1CExResize@@UAE@XZ:PROC			; CExResize::~CExResize
EXTRN	?SetBaseInterface@CExDialog@@QAEXI@Z:PROC	; CExDialog::SetBaseInterface
EXTRN	??_E?$CList@P6AXXZP6AXXZ@@UAEPAXI@Z:PROC	; CList<void (__cdecl*)(void),void (__cdecl*)(void)>::`vector deleting destructor'
EXTRN	?OnSize@CExDialog@@IAEXIHH@Z:PROC		; CExDialog::OnSize
EXTRN	?GetRuntimeClass@CExOCXDLL@@UBEPAUCRuntimeClass@@XZ:PROC ; CExOCXDLL::GetRuntimeClass
EXTRN	??0CExOCXDLL@@QAE@IPAVCWnd@@@Z:PROC		; CExOCXDLL::CExOCXDLL
EXTRN	??_E?$CList@UST_LSHAREDFORMAT@@U1@@@UAEPAXI@Z:PROC ; CList<ST_LSHAREDFORMAT,ST_LSHAREDFORMAT>::`vector deleting destructor'
EXTRN	??_E?$CList@UST_GSHAREDFORMAT@@U1@@@UAEPAXI@Z:PROC ; CList<ST_GSHAREDFORMAT,ST_GSHAREDFORMAT>::`vector deleting destructor'
EXTRN	?SetPermanentHandle@CExOCXDLL@@QAEXPAVCWnd@@@Z:PROC ; CExOCXDLL::SetPermanentHandle
EXTRN	?FormLoadCompleted@CExOCXDLL@@UAEXXZ:PROC	; CExOCXDLL::FormLoadCompleted
EXTRN	?Platform_GetBase@CExOCXDLL@@MAEJPBD@Z:PROC	; CExOCXDLL::Platform_GetBase
EXTRN	?Platform_GetKey@CExOCXDLL@@MAEJPBD@Z:PROC	; CExOCXDLL::Platform_GetKey
EXTRN	?Platform_SetKey@CExOCXDLL@@MAEXPBDJ@Z:PROC	; CExOCXDLL::Platform_SetKey
EXTRN	?Platform_Initialize@CExOCXDLL@@MAEXJJJPAVCStringList@@@Z:PROC ; CExOCXDLL::Platform_Initialize
EXTRN	?Platform_SetProperty@CExOCXDLL@@MAEXPAUSTDATAITEM@@H@Z:PROC ; CExOCXDLL::Platform_SetProperty
EXTRN	?Platform_GetState@CExOCXDLL@@MAEJHJJ@Z:PROC	; CExOCXDLL::Platform_GetState
EXTRN	?Platform_SetState@CExOCXDLL@@MAEJHJJ@Z:PROC	; CExOCXDLL::Platform_SetState
EXTRN	?Platform_WindowProc@CExOCXDLL@@MAEJIIJAAH@Z:PROC ; CExOCXDLL::Platform_WindowProc
EXTRN	?Platform_PreTranslateMessage@CExOCXDLL@@MAEJPAUtagMSG@@@Z:PROC ; CExOCXDLL::Platform_PreTranslateMessage
EXTRN	?Platform_OnSize@CExOCXDLL@@MAEXIHH@Z:PROC	; CExOCXDLL::Platform_OnSize
EXTRN	?Packet_GetData@CExOCXDLL@@MAEHPADH@Z:PROC	; CExOCXDLL::Packet_GetData
EXTRN	?Packet_GetPackDataSize@CExOCXDLL@@MAEHPAD@Z:PROC ; CExOCXDLL::Packet_GetPackDataSize
EXTRN	?Packet_SetData@CExOCXDLL@@MAEHPADH@Z:PROC	; CExOCXDLL::Packet_SetData
EXTRN	?Packet_SetData2@CExOCXDLL@@MAEHPADH@Z:PROC	; CExOCXDLL::Packet_SetData2
EXTRN	?Packet_SetData3@CExOCXDLL@@MAEHPADH@Z:PROC	; CExOCXDLL::Packet_SetData3
EXTRN	?Packet_SetData999@CExOCXDLL@@MAEHHPADH@Z:PROC	; CExOCXDLL::Packet_SetData999
EXTRN	?OnGSharedDataChange@CExOCXDLL@@MAEXPBD0H@Z:PROC ; CExOCXDLL::OnGSharedDataChange
EXTRN	?OnLSharedDataChange@CExOCXDLL@@MAEXPBD0H@Z:PROC ; CExOCXDLL::OnLSharedDataChange
EXTRN	??_E?$CArray@PAUHWND__@@PAU1@@@UAEPAXI@Z:PROC	; CArray<HWND__ *,HWND__ *>::`vector deleting destructor'
EXTRN	?PreTranslateMessage@CExOCXDLL@@UAEHPAUtagMSG@@@Z:PROC ; CExOCXDLL::PreTranslateMessage
EXTRN	?OnDestroy@CExOCXDLL@@IAEXXZ:PROC		; CExOCXDLL::OnDestroy
EXTRN	?OnInitDialog@CExOCXDLL@@MAEHXZ:PROC		; CExOCXDLL::OnInitDialog
EXTRN	??0CILButton@@QAE@XZ:PROC			; CILButton::CILButton
EXTRN	?FP_vSetImage@CILButton@@QAEXPAVCImageList@@HHHV?$CStringT@DV?$StrTraitMFC_DLL@DV?$ChTraitsCRT@D@ATL@@@@@ATL@@HHH@Z:PROC ; CILButton::FP_vSetImage
EXTRN	?FP_vSetToolTipText@CILButton@@QAEXV?$CStringT@DV?$StrTraitMFC_DLL@DV?$ChTraitsCRT@D@ATL@@@@@ATL@@@Z:PROC ; CILButton::FP_vSetToolTipText
EXTRN	??1CILButton@@UAE@XZ:PROC			; CILButton::~CILButton
EXTRN	?SyncMonthGapRev@CChartItem@@QAEHXZ:PROC	; CChartItem::SyncMonthGapRev
EXTRN	?GetType@CChartItem@@QAEDXZ:PROC		; CChartItem::GetType
EXTRN	?LoadTickMinDayInfo@CChartItem@@QAEXV?$CStringT@DV?$StrTraitMFC_DLL@DV?$ChTraitsCRT@D@ATL@@@@@ATL@@@Z:PROC ; CChartItem::LoadTickMinDayInfo
EXTRN	?SendMessageToInvoke@CChartItem@@QAEHFJJ@Z:PROC	; CChartItem::SendMessageToInvoke
EXTRN	?CheckDataTypeForReplay@CChartMng@@QAEHXZ:PROC	; CChartMng::CheckDataTypeForReplay
EXTRN	?MarketTRSend_By_OCXSignal@CChartMng@@QAEHHQBDHH@Z:PROC ; CChartMng::MarketTRSend_By_OCXSignal
EXTRN	?SetReplayRealTitle@CChartMng@@QAEXV?$CStringT@DV?$StrTraitMFC_DLL@DV?$ChTraitsCRT@D@ATL@@@@@ATL@@0PAU_TICK_DATA@@@Z:PROC ; CChartMng::SetReplayRealTitle
EXTRN	?SetReplayChangedDate@CChartMng@@QAEXV?$CStringT@DV?$StrTraitMFC_DLL@DV?$ChTraitsCRT@D@ATL@@@@@ATL@@0@Z:PROC ; CChartMng::SetReplayChangedDate
EXTRN	?SetBReplayChartMode@CChartMng@@QAEXH@Z:PROC	; CChartMng::SetBReplayChartMode
EXTRN	?GetStartEndDateAtChartMng@CChartMng@@QAEXAAN0@Z:PROC ; CChartMng::GetStartEndDateAtChartMng
EXTRN	?SetTimeShareOnlyOne@CChartMng@@QAEXH@Z:PROC	; CChartMng::SetTimeShareOnlyOne
EXTRN	?SetEnableBoundMarkOnlyOne@CChartMng@@QAEXH@Z:PROC ; CChartMng::SetEnableBoundMarkOnlyOne
EXTRN	?SetShowExRightOnlyOne@CChartMng@@QAEXH@Z:PROC	; CChartMng::SetShowExRightOnlyOne
EXTRN	?SetPriceLog@CChartMng@@QAEXH@Z:PROC		; CChartMng::SetPriceLog
EXTRN	?SetAutoSaveToOutside@CChartMng@@QAEX_N@Z:PROC	; CChartMng::SetAutoSaveToOutside
EXTRN	?GetImaginaryCandleToOutside@CChartMng@@QAE_NAA_N@Z:PROC ; CChartMng::GetImaginaryCandleToOutside
EXTRN	?GetShowHighLowBoundToOutside@CChartMng@@QAE_NAA_N@Z:PROC ; CChartMng::GetShowHighLowBoundToOutside
EXTRN	?GetShowExRightDividendToOutside@CChartMng@@QAE_NAA_N@Z:PROC ; CChartMng::GetShowExRightDividendToOutside
EXTRN	?GetTimeLinkageToOutside@CChartMng@@QAE_NAA_N@Z:PROC ; CChartMng::GetTimeLinkageToOutside
EXTRN	?GetAutoSaveToOutside@CChartMng@@QAE_NAA_N@Z:PROC ; CChartMng::GetAutoSaveToOutside
EXTRN	?OnChartEnvSetupOK@CChartMng@@QAEXXZ:PROC	; CChartMng::OnChartEnvSetupOK
EXTRN	?GetChartAllCode@CChartMng@@QAEXAAVCStringArray@@@Z:PROC ; CChartMng::GetChartAllCode
EXTRN	?GetpChartItemSelected@CChartMng@@QAEPAVCChartItem@@XZ:PROC ; CChartMng::GetpChartItemSelected
EXTRN	?SetMarketType@CChartMng@@QAEXH@Z:PROC		; CChartMng::SetMarketType
EXTRN	?ReplaceOldCode@CChartMng@@QAEXXZ:PROC		; CChartMng::ReplaceOldCode
EXTRN	??0CChartMng@@QAE@XZ:PROC			; CChartMng::CChartMng
EXTRN	?SetBaseDesk@CChartMng@@QAEXJ@Z:PROC		; CChartMng::SetBaseDesk
EXTRN	?Create@CChartMng@@QAEHABUtagRECT@@PAVCWnd@@PBD2IJ@Z:PROC ; CChartMng::Create
EXTRN	?SelectEmptyPos@CChartMng@@QAEHXZ:PROC		; CChartMng::SelectEmptyPos
EXTRN	?InsertChart@CChartMng@@QAEHXZ:PROC		; CChartMng::InsertChart
EXTRN	?MoveCharts@CChartMng@@QAEXHH@Z:PROC		; CChartMng::MoveCharts
EXTRN	?OnSTDataManagerMessaggeAll@CChartMng@@QAEHXZ:PROC ; CChartMng::OnSTDataManagerMessaggeAll
EXTRN	?SetSystemTradingMode@CChartMng@@QAEXHPBD@Z:PROC ; CChartMng::SetSystemTradingMode
EXTRN	?SetTimeMark@CChartMng@@QAEXPBDH@Z:PROC		; CChartMng::SetTimeMark
EXTRN	?LoadChart@CChartMng@@QAEHV?$CStringT@DV?$StrTraitMFC_DLL@DV?$ChTraitsCRT@D@ATL@@@@@ATL@@@Z:PROC ; CChartMng::LoadChart
EXTRN	?SaveChart@CChartMng@@QAEXV?$CStringT@DV?$StrTraitMFC_DLL@DV?$ChTraitsCRT@D@ATL@@@@@ATL@@@Z:PROC ; CChartMng::SaveChart
EXTRN	?ShowAvgLine@CChartMng@@QAEXV?$CStringT@DV?$StrTraitMFC_DLL@DV?$ChTraitsCRT@D@ATL@@@@@ATL@@0@Z:PROC ; CChartMng::ShowAvgLine
EXTRN	?FindSelectChartByItemCode@CChartMng@@QAEHPBDH@Z:PROC ; CChartMng::FindSelectChartByItemCode
EXTRN	??1CChartMng@@UAE@XZ:PROC			; CChartMng::~CChartMng
EXTRN	?RevisedPriceFlag@CChartMng@@QAEHXZ:PROC	; CChartMng::RevisedPriceFlag
EXTRN	?GetCurStatusInfo@CChartMng@@QAEXAADAAV?$CStringT@DV?$StrTraitMFC_DLL@DV?$ChTraitsCRT@D@ATL@@@@@ATL@@11AAJ@Z:PROC ; CChartMng::GetCurStatusInfo
EXTRN	?AddConcPacketGraph@CChartMng@@QAEXXZ:PROC	; CChartMng::AddConcPacketGraph
EXTRN	?RemoveConcPacketData@CChartMng@@QAEXXZ:PROC	; CChartMng::RemoveConcPacketData
EXTRN	?GetOldCode@CChartMng@@QAE?AV?$CStringT@DV?$StrTraitMFC_DLL@DV?$ChTraitsCRT@D@ATL@@@@@ATL@@XZ:PROC ; CChartMng::GetOldCode
EXTRN	?SetWndSystemTabEx@CXTabCtrl@@QAEXXZ:PROC	; CXTabCtrl::SetWndSystemTabEx
EXTRN	??0CLeftBarDlg@@QAE@PAVCWnd@@@Z:PROC		; CLeftBarDlg::CLeftBarDlg
EXTRN	?GetIndicatorNameListIntoComboBox@CLeftBarDlg@@QAEXAAVCComboBox@@PBD@Z:PROC ; CLeftBarDlg::GetIndicatorNameListIntoComboBox
EXTRN	?ChangeSkinColor@CLeftBarDlg@@QAEXXZ:PROC	; CLeftBarDlg::ChangeSkinColor
EXTRN	?SetPacketFromOutSide@CLeftBarDlg@@QAEXV?$CStringT@DV?$StrTraitMFC_DLL@DV?$ChTraitsCRT@D@ATL@@@@@ATL@@@Z:PROC ; CLeftBarDlg::SetPacketFromOutSide
EXTRN	?EnableWindow@CLeftBarDlg@@QAEHH@Z:PROC		; CLeftBarDlg::EnableWindow
EXTRN	?SetConfig@CLeftBarDlg@@QAEXH@Z:PROC		; CLeftBarDlg::SetConfig
EXTRN	?MakeAccountConcData@CLeftBarDlg@@QAEXPAXJ@Z:PROC ; CLeftBarDlg::MakeAccountConcData
EXTRN	?GetCodeType@CFOHistoryBtnCtrl@@QAEHV?$CStringT@DV?$StrTraitMFC_DLL@DV?$ChTraitsCRT@D@ATL@@@@@ATL@@@Z:PROC ; CFOHistoryBtnCtrl::GetCodeType
EXTRN	?GetJongMokNameByCode@CInputBarDlg@@QAE?AV?$CStringT@DV?$StrTraitMFC_DLL@DV?$ChTraitsCRT@D@ATL@@@@@ATL@@V23@PBD@Z:PROC ; CInputBarDlg::GetJongMokNameByCode
EXTRN	?ReplayFail@CInputBarDlg@@QAEXXZ:PROC		; CInputBarDlg::ReplayFail
EXTRN	?GetReplayStartTime@CInputBarDlg@@QAEJXZ:PROC	; CInputBarDlg::GetReplayStartTime
EXTRN	?GetReplayDayBefore@CInputBarDlg@@QAEJXZ:PROC	; CInputBarDlg::GetReplayDayBefore
EXTRN	?GetCurrentCode@CInputBarDlg@@QAE?AV?$CStringT@DV?$StrTraitMFC_DLL@DV?$ChTraitsCRT@D@ATL@@@@@ATL@@XZ:PROC ; CInputBarDlg::GetCurrentCode
EXTRN	?InitBaseInfo@CInputBarDlg@@QAEXPAVCBaseDesk2@@H@Z:PROC ; CInputBarDlg::InitBaseInfo
EXTRN	?SetKeyCodeChange@CInputBarDlg@@QAEXIJ@Z:PROC	; CInputBarDlg::SetKeyCodeChange
EXTRN	?InitUpjongCodeCombo@CInputBarDlg@@QAEXI@Z:PROC	; CInputBarDlg::InitUpjongCodeCombo
EXTRN	?ChangeMarket@CInputBarDlg@@QAEHIHH@Z:PROC	; CInputBarDlg::ChangeMarket
EXTRN	??0CInputBarDlg@@QAE@PAVCWnd@@@Z:PROC		; CInputBarDlg::CInputBarDlg
EXTRN	?HideLeftBarBtn@CInputBarDlg@@QAEXH@Z:PROC	; CInputBarDlg::HideLeftBarBtn
EXTRN	?SetReplayEachSec@CInputBarDlg@@QAEXV?$CStringT@DV?$StrTraitMFC_DLL@DV?$ChTraitsCRT@D@ATL@@@@@ATL@@@Z:PROC ; CInputBarDlg::SetReplayEachSec
EXTRN	?SetReplayTotalSec@CInputBarDlg@@QAEXH@Z:PROC	; CInputBarDlg::SetReplayTotalSec
EXTRN	?SetLeftBarType@CInputBarDlg@@QAEXI@Z:PROC	; CInputBarDlg::SetLeftBarType
EXTRN	?SetShowExtInputBarDlg@CInputBarDlg@@QAEXH@Z:PROC ; CInputBarDlg::SetShowExtInputBarDlg
EXTRN	?SetMode@CInputBarDlg@@QAEXH@Z:PROC		; CInputBarDlg::SetMode
EXTRN	?SetCodeInit@CInputBarDlg@@QAEXXZ:PROC		; CInputBarDlg::SetCodeInit
EXTRN	?SetAllPosition@CInputBarDlg@@QAEXH@Z:PROC	; CInputBarDlg::SetAllPosition
EXTRN	?GetAllCount@CInputBarDlg@@QAEHXZ:PROC		; CInputBarDlg::GetAllCount
EXTRN	?SetCodeDragAndDrop@CInputBarDlg@@QAEHV?$CStringT@DV?$StrTraitMFC_DLL@DV?$ChTraitsCRT@D@ATL@@@@@ATL@@H@Z:PROC ; CInputBarDlg::SetCodeDragAndDrop
EXTRN	?GetCurrentMode@CInputBarDlg@@QAEHHH@Z:PROC	; CInputBarDlg::GetCurrentMode
EXTRN	?SetShareCodeChanged@CInputBarDlg@@QAEXH@Z:PROC	; CInputBarDlg::SetShareCodeChanged
EXTRN	?GetChartViewType@CInputBarDlg@@QAEHAAVCStringList@@@Z:PROC ; CInputBarDlg::GetChartViewType
EXTRN	?SaveInputBar@CInputBarDlg@@QAEXXZ:PROC		; CInputBarDlg::SaveInputBar
EXTRN	?RequestReplayMode@CInputBarDlg@@QAEXXZ:PROC	; CInputBarDlg::RequestReplayMode
EXTRN	?InitChartMulitItem@CInputBarDlg@@QAEXPAU_ST_SELCHART@@@Z:PROC ; CInputBarDlg::InitChartMulitItem
EXTRN	?GetReplayChartMode@CInputBarDlg@@QAEHXZ:PROC	; CInputBarDlg::GetReplayChartMode
EXTRN	?SetReplayChartMode@CInputBarDlg@@QAEXH@Z:PROC	; CInputBarDlg::SetReplayChartMode
EXTRN	?EnableRequestMoreButton@CInputBarDlg@@QAEXH@Z:PROC ; CInputBarDlg::EnableRequestMoreButton
EXTRN	?ChangeSkinColor@CInputBarDlg@@QAEXXZ:PROC	; CInputBarDlg::ChangeSkinColor
EXTRN	?GetOldFututureCodeName@CInputBarDlg@@QAEHPBDAAV?$CStringT@DV?$StrTraitMFC_DLL@DV?$ChTraitsCRT@D@ATL@@@@@ATL@@@Z:PROC ; CInputBarDlg::GetOldFututureCodeName
EXTRN	?EnableQueryOpt@CInputBarDlg@@QAEXH@Z:PROC	; CInputBarDlg::EnableQueryOpt
EXTRN	?ParsingSymbol@CInputBarDlg@@QAEXPAD@Z:PROC	; CInputBarDlg::ParsingSymbol
EXTRN	?GetTimeSyncFlag@CExtInputBarDlg@@QAEHXZ:PROC	; CExtInputBarDlg::GetTimeSyncFlag
EXTRN	?SetTimeSyncFlag@CExtInputBarDlg@@QAEXH@Z:PROC	; CExtInputBarDlg::SetTimeSyncFlag
EXTRN	??0CExtInputBarDlg@@QAE@PAVCWnd@@@Z:PROC	; CExtInputBarDlg::CExtInputBarDlg
EXTRN	?SetMarketType@CExtInputBarDlg@@QAEXH@Z:PROC	; CExtInputBarDlg::SetMarketType
EXTRN	?InitChartMulitItem@CExtInputBarDlg@@QAEXPAU_ST_SELCHART@@@Z:PROC ; CExtInputBarDlg::InitChartMulitItem
EXTRN	?EnableQueryOpt@CExtInputBarDlg@@QAEXH@Z:PROC	; CExtInputBarDlg::EnableQueryOpt
EXTRN	?ChangeSkinColor@CExtInputBarDlg@@QAEXXZ:PROC	; CExtInputBarDlg::ChangeSkinColor
EXTRN	?SaveExtInputBar@CExtInputBarDlg@@QAEXXZ:PROC	; CExtInputBarDlg::SaveExtInputBar
EXTRN	?ResetChartData@CExtInputBarDlg@@QAEXXZ:PROC	; CExtInputBarDlg::ResetChartData
EXTRN	?MoveAccountCtrl@CExtInputBarDlg@@QAEXXZ:PROC	; CExtInputBarDlg::MoveAccountCtrl
EXTRN	?EnableAccount@CExtInputBarDlg@@QAEXH@Z:PROC	; CExtInputBarDlg::EnableAccount
EXTRN	??0CFavoriteThingsMng@@QAE@XZ:PROC		; CFavoriteThingsMng::CFavoriteThingsMng
EXTRN	??1CFavoriteThingsMng@@UAE@XZ:PROC		; CFavoriteThingsMng::~CFavoriteThingsMng
EXTRN	?SetPath@CFavoriteThingsMng@@QAEXV?$CStringT@DV?$StrTraitMFC_DLL@DV?$ChTraitsCRT@D@ATL@@@@@ATL@@@Z:PROC ; CFavoriteThingsMng::SetPath
EXTRN	??0CDlgToolbar@@QAE@PAVCWnd@@@Z:PROC		; CDlgToolbar::CDlgToolbar
EXTRN	?ResetAllButton@CDlgToolbar@@QAEXXZ:PROC	; CDlgToolbar::ResetAllButton
EXTRN	?SetToggleButton@CDlgToolbar@@QAEXHH@Z:PROC	; CDlgToolbar::SetToggleButton
EXTRN	?GetIndexArray@CDlgToolbar@@QAEHHAAV?$CArray@HH@@0@Z:PROC ; CDlgToolbar::GetIndexArray
EXTRN	?GetToolNameMap@CDlgToolbar@@QAEHAAV?$CMap@HHV?$CStringT@DV?$StrTraitMFC_DLL@DV?$ChTraitsCRT@D@ATL@@@@@ATL@@V12@@@@Z:PROC ; CDlgToolbar::GetToolNameMap
EXTRN	?SetToggleBtnFromOutside@CDlgToolbar@@QAEXI@Z:PROC ; CDlgToolbar::SetToggleBtnFromOutside
EXTRN	??0CRGBButton@@QAE@XZ:PROC			; CRGBButton::CRGBButton
EXTRN	?SetBorderColor@CRGBButton@@QAEXK@Z:PROC	; CRGBButton::SetBorderColor
EXTRN	?SetBackGroundColor@CRGBButton@@QAEXKK@Z:PROC	; CRGBButton::SetBackGroundColor
EXTRN	?SetSideBar@CRGBButton@@QAEXPAVCLeftBarDlg@@@Z:PROC ; CRGBButton::SetSideBar
EXTRN	??1CRGBButton@@UAE@XZ:PROC			; CRGBButton::~CRGBButton
EXTRN	??_E?$CList@JJ@@UAEPAXI@Z:PROC			; CList<long,long>::`vector deleting destructor'
EXTRN	??_E?$CArray@USTTRINFO@@U1@@@UAEPAXI@Z:PROC	; CArray<STTRINFO,STTRINFO>::`vector deleting destructor'
EXTRN	?OnRmsgDRUser@CStdDialog@@IAEJIJ@Z:PROC		; CStdDialog::OnRmsgDRUser
EXTRN	??_E?$CList@PAUSTSENDDATAQUE@@PAU1@@@UAEPAXI@Z:PROC ; CList<STSENDDATAQUE *,STSENDDATAQUE *>::`vector deleting destructor'
EXTRN	?DoSetPartnerSite@CStdDialog@@QAEXPAUIPartnerManager@@@Z:PROC ; CStdDialog::DoSetPartnerSite
EXTRN	?RecieveFidData@CPartnerSite@CStdDialog@@UAGJJPBD00PAXJ@Z:PROC ; CStdDialog::CPartnerSite::RecieveFidData
EXTRN	?RecieveTRData@CPartnerSite@CStdDialog@@UAGJJPBD00PAXJ@Z:PROC ; CStdDialog::CPartnerSite::RecieveTRData
EXTRN	?RecieveRealData@CPartnerSite@CStdDialog@@UAGJJJ@Z:PROC ; CStdDialog::CPartnerSite::RecieveRealData
EXTRN	?RecieveKeyData@CPartnerSite@CStdDialog@@UAGJHPBD@Z:PROC ; CStdDialog::CPartnerSite::RecieveKeyData
EXTRN	?RecieveRealDataEx@CPartnerSite@CStdDialog@@UAGJJPBDJ@Z:PROC ; CStdDialog::CPartnerSite::RecieveRealDataEx
EXTRN	?ReceiveOnUser@CPartnerSite@CStdDialog@@UAGJIJ@Z:PROC ; CStdDialog::CPartnerSite::ReceiveOnUser
EXTRN	?_DoCheckMetrixScreen@CStdDialog@@QAEXXZ:PROC	; CStdDialog::_DoCheckMetrixScreen
EXTRN	??_ECStdDialog@@UAEPAXI@Z:PROC			; CStdDialog::`vector deleting destructor'
EXTRN	??0CMiniBarDlg@@QAE@PAVCWnd@@@Z:PROC		; CMiniBarDlg::CMiniBarDlg
EXTRN	??0CMiniTickBarDlg@@QAE@PAVCWnd@@@Z:PROC	; CMiniTickBarDlg::CMiniTickBarDlg
EXTRN	?RequestMstCode@CTabCodeSearch@@QAEXPBDJ@Z:PROC	; CTabCodeSearch::RequestMstCode
EXTRN	?OnBtnext@CTabCodeSearch@@QAEXXZ:PROC		; CTabCodeSearch::OnBtnext
EXTRN	?OnBtprev@CTabCodeSearch@@QAEXXZ:PROC		; CTabCodeSearch::OnBtprev
EXTRN	??0CDataWindowDlg@@QAE@PAVCWnd@@@Z:PROC		; CDataWindowDlg::CDataWindowDlg
EXTRN	?CreateDataWindow@CDataWindowDlg@@QAE_NXZ:PROC	; CDataWindowDlg::CreateDataWindow
EXTRN	?SetDataWindowData@CDataWindowDlg@@QAEXPAV?$CList@V?$CStringT@DV?$StrTraitMFC_DLL@DV?$ChTraitsCRT@D@ATL@@@@@ATL@@AAV12@@@@Z:PROC ; CDataWindowDlg::SetDataWindowData
EXTRN	??0CCodeDataFromInputBar@@QAE@XZ:PROC		; CCodeDataFromInputBar::CCodeDataFromInputBar
EXTRN	??1CCodeDataFromInputBar@@UAE@XZ:PROC		; CCodeDataFromInputBar::~CCodeDataFromInputBar
EXTRN	?DirectRunST@CTabSystemTradingEx@@QAEXPBD@Z:PROC ; CTabSystemTradingEx::DirectRunST
EXTRN	?LoadMetaTable@IMetaTable@@QAEXXZ:PROC		; IMetaTable::LoadMetaTable
EXTRN	??0CDlgGlass@@QAE@PAVCWnd@@@Z:PROC		; CDlgGlass::CDlgGlass
EXTRN	?MakeBitmap@CDlgGlass@@QAEXXZ:PROC		; CDlgGlass::MakeBitmap
EXTRN	@__security_check_cookie@4:PROC
EXTRN	___CxxFrameHandler3:PROC
EXTRN	__chkstk:PROC
EXTRN	_memcpy:PROC
EXTRN	_memmove:PROC
EXTRN	_memset:PROC
EXTRN	??_7type_info@@6B@:QWORD			; type_info::`vftable'
EXTRN	__imp_?wndTop@CWnd@@2V1@B:BYTE
EXTRN	?g_pDebugMng@@3PAUIDebugManager@@A:DWORD	; g_pDebugMng
EXTRN	?g_pPtUtilMng@@3PAUIPartnerUtilManager@@A:DWORD	; g_pPtUtilMng
EXTRN	?g_logMan@@3VCLogMan@@A:BYTE			; g_logMan
EXTRN	?g_iMetaTable@@3VIMetaTable@@A:BYTE		; g_iMetaTable
EXTRN	___security_cookie:DWORD
EXTRN	__fltused:DWORD
;	COMDAT ?_OptionsStorage@?1??__local_stdio_printf_options@@9@4_KA
_BSS	SEGMENT
?_OptionsStorage@?1??__local_stdio_printf_options@@9@4_KA DQ 01H DUP (?) ; `__local_stdio_printf_options'::`2'::_OptionsStorage
_BSS	ENDS
;	COMDAT ?_OptionsStorage@?1??__local_stdio_scanf_options@@9@4_KA
_BSS	SEGMENT
?_OptionsStorage@?1??__local_stdio_scanf_options@@9@4_KA DQ 01H DUP (?) ; `__local_stdio_scanf_options'::`2'::_OptionsStorage
_BSS	ENDS
_BSS	SEGMENT
	ALIGN	4

?RMSG_INTERFACE@@3IB DD 01H DUP (?)			; RMSG_INTERFACE
?RMSG_GET_STDDLG_PTR@@3IB DD 01H DUP (?)		; RMSG_GET_STDDLG_PTR
?RMSG_REPLAY_REAL@@3IB DD 01H DUP (?)			; RMSG_REPLAY_REAL
?RMSG_REPLAY_FAIL@@3IB DD 01H DUP (?)			; RMSG_REPLAY_FAIL
?RMSG_REPLAY_CHANGE_DATE@@3IB DD 01H DUP (?)		; RMSG_REPLAY_CHANGE_DATE
?RMSG_REPLAY_END@@3IB DD 01H DUP (?)			; RMSG_REPLAY_END
?RMSG_REPLAY_INC_SEC@@3IB DD 01H DUP (?)		; RMSG_REPLAY_INC_SEC
?RMSG_REPLAY_TOTAL_SEC@@3IB DD 01H DUP (?)		; RMSG_REPLAY_TOTAL_SEC
?RMSG_GETSIGNAL_REAL@@3IB DD 01H DUP (?)		; RMSG_GETSIGNAL_REAL
?RMSG_SETQUERYOPT@@3IB DD 01H DUP (?)			; RMSG_SETQUERYOPT
?RMSG_CHARTMAIN@@3IB DD 01H DUP (?)			; RMSG_CHARTMAIN
?RMS_ANALYSIS_FUNC@@3IB DD 01H DUP (?)			; RMS_ANALYSIS_FUNC
?RMSG_GET_USERID@@3IB DD 01H DUP (?)			; RMSG_GET_USERID
?RMSG_CHANGE_SKINCOLOR@@3IB DD 01H DUP (?)		; RMSG_CHANGE_SKINCOLOR
?RMSG_GET_SKINCOLOR@@3IB DD 01H DUP (?)			; RMSG_GET_SKINCOLOR
?RMSG_CHANGEVERTSCALETYPE@@3IB DD 01H DUP (?)		; RMSG_CHANGEVERTSCALETYPE
?RMSG_CHANGE_CROSSLINE@@3IB DD 01H DUP (?)		; RMSG_CHANGE_CROSSLINE
?RMSG_ADD_PLATFORM_MENU@@3IB DD 01H DUP (?)		; RMSG_ADD_PLATFORM_MENU
?RMSG_SETINITIALCHARTDATA@@3IB DD 01H DUP (?)		; RMSG_SETINITIALCHARTDATA
?RMSG_GETINFO@@3IB DD 01H DUP (?)			; RMSG_GETINFO
?RMSG_SETINFO@@3IB DD 01H DUP (?)			; RMSG_SETINFO
?m_ImgList_W15H15@CStdDialog@@2VCImageList@@A DQ 01H DUP (?) ; CStdDialog::m_ImgList_W15H15
?m_ImgList_W20H20@CStdDialog@@2VCImageList@@A DQ 01H DUP (?) ; CStdDialog::m_ImgList_W20H20
?m_ImgList_W20H20_Tool@CStdDialog@@2VCImageList@@A DQ 01H DUP (?) ; CStdDialog::m_ImgList_W20H20_Tool
?m_ImgList_W46H20@CStdDialog@@2VCImageList@@A DQ 01H DUP (?) ; CStdDialog::m_ImgList_W46H20
?m_ImgList_W50H20@CStdDialog@@2VCImageList@@A DQ 01H DUP (?) ; CStdDialog::m_ImgList_W50H20
?m_ImgList_W151H21@CStdDialog@@2VCImageList@@A DQ 01H DUP (?) ; CStdDialog::m_ImgList_W151H21
?m_ImgList_W28H22@CStdDialog@@2VCImageList@@A DQ 01H DUP (?) ; CStdDialog::m_ImgList_W28H22
?m_ImgList_W17H20@CStdDialog@@2VCImageList@@A DQ 01H DUP (?) ; CStdDialog::m_ImgList_W17H20
?m_ImgList_W43H20@CStdDialog@@2VCImageList@@A DQ 01H DUP (?) ; CStdDialog::m_ImgList_W43H20
?m_ImgList_W58H20@CStdDialog@@2VCImageList@@A DQ 01H DUP (?) ; CStdDialog::m_ImgList_W58H20
?m_ImgList_W72H20@CStdDialog@@2VCImageList@@A DQ 01H DUP (?) ; CStdDialog::m_ImgList_W72H20
?m_ImgList_W46H20_Gwan@CStdDialog@@2VCImageList@@A DQ 01H DUP (?) ; CStdDialog::m_ImgList_W46H20_Gwan
?m_ImgList_W8H25@CStdDialog@@2VCImageList@@A DQ 01H DUP (?) ; CStdDialog::m_ImgList_W8H25
?RMSG_DRUSER@@3IB DD 01H DUP (?)			; RMSG_DRUSER
?RMSG_FROMCODELIST@@3IB DD 01H DUP (?)			; RMSG_FROMCODELIST
?RMSG_SETSHAREDATA@@3IB DD 01H DUP (?)			; RMSG_SETSHAREDATA
?RMSG_OPENMAP2@@3IB DD 01H DUP (?)			; RMSG_OPENMAP2
?RMSG_FROMHOGAJUMUN_DESTROY@@3IB DD 01H DUP (?)		; RMSG_FROMHOGAJUMUN_DESTROY
?RMSG_HOGACHANGEDATA_CODE@@3IB DD 01H DUP (?)		; RMSG_HOGACHANGEDATA_CODE
?RMSG_HOGACHANGEDATA_ACCT@@3IB DD 01H DUP (?)		; RMSG_HOGACHANGEDATA_ACCT
?RMSG_SHARED_PIN@@3IB DD 01H DUP (?)			; RMSG_SHARED_PIN
?RMSG_RESIZEFROMGWAN@@3IB DD 01H DUP (?)		; RMSG_RESIZEFROMGWAN
?RMSG_MESSAGESHOW@@3IB DD 01H DUP (?)			; RMSG_MESSAGESHOW
?RMSG_GETSKINVALUE@@3IB DD 01H DUP (?)			; RMSG_GETSKINVALUE
?RMSG_DRAGSTART@@3IB DD 01H DUP (?)			; RMSG_DRAGSTART
?RMSG_DRAGEND@@3IB DD 01H DUP (?)			; RMSG_DRAGEND
?RMSG_STTREE_ITEMCLICK@@3IB DD 01H DUP (?)		; RMSG_STTREE_ITEMCLICK
?RMSG_STTREE_ITEMDBLCLK@@3IB DD 01H DUP (?)		; RMSG_STTREE_ITEMDBLCLK
?RMSG_USERINFO@@3IB DD 01H DUP (?)			; RMSG_USERINFO
?RMSG_GET_SCREENTYPE@@3IB DD 01H DUP (?)		; RMSG_GET_SCREENTYPE
?RMSG_GET_TEMPDATA@@3IB DD 01H DUP (?)			; RMSG_GET_TEMPDATA
?RMSG_GET_LINKINFODATA@@3IB DD 01H DUP (?)		; RMSG_GET_LINKINFODATA
?RMSG_GET_ITEMNAMEFORMITEMCODE@@3IB DD 01H DUP (?)	; RMSG_GET_ITEMNAMEFORMITEMCODE
?RMSG_GET_MARKETTYPEFORMITEMCODE@@3IB DD 01H DUP (?)	; RMSG_GET_MARKETTYPEFORMITEMCODE
?RMSG_SET_CODEINPUTMARKETTYPE@@3IB DD 01H DUP (?)	; RMSG_SET_CODEINPUTMARKETTYPE
?RMSG_GET_ACCOUNTLIST@@3IB DD 01H DUP (?)		; RMSG_GET_ACCOUNTLIST
?RMSG_SET_ITEMCODENAME@@3IB DD 01H DUP (?)		; RMSG_SET_ITEMCODENAME
?RMSG_OPENSCREEN@@3IB DD 01H DUP (?)			; RMSG_OPENSCREEN
?RMSG_GET_HOSTDATE@@3IB DD 01H DUP (?)			; RMSG_GET_HOSTDATE
?RMSG_GET_ACCTNUM@@3IB DD 01H DUP (?)			; RMSG_GET_ACCTNUM
?RMSG_CHANGEACCTNUM@@3IB DD 01H DUP (?)			; RMSG_CHANGEACCTNUM
?RMSG_SET_PASSWORDINFO@@3IB DD 01H DUP (?)		; RMSG_SET_PASSWORDINFO
?RMSG_FORMLOADSAVE@@3IB DD 01H DUP (?)			; RMSG_FORMLOADSAVE
?RMSG_RECEIVEREPLAYDATA@@3IB DD 01H DUP (?)		; RMSG_RECEIVEREPLAYDATA
?RMSG_GET_TRCOMM@@3IB DD 01H DUP (?)			; RMSG_GET_TRCOMM
?RMSG_TABCODESEARCH@@3IB DD 01H DUP (?)			; RMSG_TABCODESEARCH
_BSS	ENDS
;	COMDAT CRT$XCU
CRT$XCU	SEGMENT
?_AtlWinModule$initializer$@ATL@@3P6AXXZA DD FLAT:??__E_AtlWinModule@ATL@@YAXXZ ; ATL::_AtlWinModule$initializer$
CRT$XCU	ENDS
;	COMDAT ??_R1A@?0A@EA@CPartnerSite@CStdDialog@@8
rdata$r	SEGMENT
??_R1A@?0A@EA@CPartnerSite@CStdDialog@@8 DD FLAT:??_R0?AVCPartnerSite@CStdDialog@@@8 ; CStdDialog::CPartnerSite::`RTTI Base Class Descriptor at (0,-1,0,64)'
	DD	01H
	DD	00H
	DD	0ffffffffH
	DD	00H
	DD	040H
	DD	FLAT:??_R3CPartnerSite@CStdDialog@@8
rdata$r	ENDS
;	COMDAT ??_R2CPartnerSite@CStdDialog@@8
rdata$r	SEGMENT
??_R2CPartnerSite@CStdDialog@@8 DD FLAT:??_R1A@?0A@EA@CPartnerSite@CStdDialog@@8 ; CStdDialog::CPartnerSite::`RTTI Base Class Array'
	DD	FLAT:??_R1A@?0A@EA@IPartnerSite@@8
rdata$r	ENDS
;	COMDAT ??_R3CPartnerSite@CStdDialog@@8
rdata$r	SEGMENT
??_R3CPartnerSite@CStdDialog@@8 DD 00H			; CStdDialog::CPartnerSite::`RTTI Class Hierarchy Descriptor'
	DD	00H
	DD	02H
	DD	FLAT:??_R2CPartnerSite@CStdDialog@@8
rdata$r	ENDS
;	COMDAT ??_R0?AVCPartnerSite@CStdDialog@@@8
data$rs	SEGMENT
??_R0?AVCPartnerSite@CStdDialog@@@8 DD FLAT:??_7type_info@@6B@ ; CStdDialog::CPartnerSite `RTTI Type Descriptor'
	DD	00H
	DB	'.?AVCPartnerSite@CStdDialog@@', 00H
data$rs	ENDS
;	COMDAT ??_R4CPartnerSite@CStdDialog@@6B@
rdata$r	SEGMENT
??_R4CPartnerSite@CStdDialog@@6B@ DD 00H		; CStdDialog::CPartnerSite::`RTTI Complete Object Locator'
	DD	00H
	DD	00H
	DD	FLAT:??_R0?AVCPartnerSite@CStdDialog@@@8
	DD	FLAT:??_R3CPartnerSite@CStdDialog@@8
rdata$r	ENDS
;	COMDAT ??_R1A@?0A@EA@?$CList@PAUSTSENDDATAQUE@@PAU1@@@8
rdata$r	SEGMENT
??_R1A@?0A@EA@?$CList@PAUSTSENDDATAQUE@@PAU1@@@8 DD FLAT:??_R0?AV?$CList@PAUSTSENDDATAQUE@@PAU1@@@@8 ; CList<STSENDDATAQUE *,STSENDDATAQUE *>::`RTTI Base Class Descriptor at (0,-1,0,64)'
	DD	01H
	DD	00H
	DD	0ffffffffH
	DD	00H
	DD	040H
	DD	FLAT:??_R3?$CList@PAUSTSENDDATAQUE@@PAU1@@@8
rdata$r	ENDS
;	COMDAT ??_R2?$CList@PAUSTSENDDATAQUE@@PAU1@@@8
rdata$r	SEGMENT
??_R2?$CList@PAUSTSENDDATAQUE@@PAU1@@@8 DD FLAT:??_R1A@?0A@EA@?$CList@PAUSTSENDDATAQUE@@PAU1@@@8 ; CList<STSENDDATAQUE *,STSENDDATAQUE *>::`RTTI Base Class Array'
	DD	FLAT:??_R1A@?0A@EA@CObject@@8
rdata$r	ENDS
;	COMDAT ??_R3?$CList@PAUSTSENDDATAQUE@@PAU1@@@8
rdata$r	SEGMENT
??_R3?$CList@PAUSTSENDDATAQUE@@PAU1@@@8 DD 00H		; CList<STSENDDATAQUE *,STSENDDATAQUE *>::`RTTI Class Hierarchy Descriptor'
	DD	00H
	DD	02H
	DD	FLAT:??_R2?$CList@PAUSTSENDDATAQUE@@PAU1@@@8
rdata$r	ENDS
;	COMDAT ??_R0?AV?$CList@PAUSTSENDDATAQUE@@PAU1@@@@8
data$rs	SEGMENT
??_R0?AV?$CList@PAUSTSENDDATAQUE@@PAU1@@@@8 DD FLAT:??_7type_info@@6B@ ; CList<STSENDDATAQUE *,STSENDDATAQUE *> `RTTI Type Descriptor'
	DD	00H
	DB	'.?AV?$CList@PAUSTSENDDATAQUE@@PAU1@@@', 00H
data$rs	ENDS
;	COMDAT ??_R4?$CList@PAUSTSENDDATAQUE@@PAU1@@@6B@
rdata$r	SEGMENT
??_R4?$CList@PAUSTSENDDATAQUE@@PAU1@@@6B@ DD 00H	; CList<STSENDDATAQUE *,STSENDDATAQUE *>::`RTTI Complete Object Locator'
	DD	00H
	DD	00H
	DD	FLAT:??_R0?AV?$CList@PAUSTSENDDATAQUE@@PAU1@@@@8
	DD	FLAT:??_R3?$CList@PAUSTSENDDATAQUE@@PAU1@@@8
rdata$r	ENDS
;	COMDAT ??_R1A@?0A@EA@?$CArray@USTTRINFO@@U1@@@8
rdata$r	SEGMENT
??_R1A@?0A@EA@?$CArray@USTTRINFO@@U1@@@8 DD FLAT:??_R0?AV?$CArray@USTTRINFO@@U1@@@@8 ; CArray<STTRINFO,STTRINFO>::`RTTI Base Class Descriptor at (0,-1,0,64)'
	DD	01H
	DD	00H
	DD	0ffffffffH
	DD	00H
	DD	040H
	DD	FLAT:??_R3?$CArray@USTTRINFO@@U1@@@8
rdata$r	ENDS
;	COMDAT ??_R2?$CArray@USTTRINFO@@U1@@@8
rdata$r	SEGMENT
??_R2?$CArray@USTTRINFO@@U1@@@8 DD FLAT:??_R1A@?0A@EA@?$CArray@USTTRINFO@@U1@@@8 ; CArray<STTRINFO,STTRINFO>::`RTTI Base Class Array'
	DD	FLAT:??_R1A@?0A@EA@CObject@@8
rdata$r	ENDS
;	COMDAT ??_R3?$CArray@USTTRINFO@@U1@@@8
rdata$r	SEGMENT
??_R3?$CArray@USTTRINFO@@U1@@@8 DD 00H			; CArray<STTRINFO,STTRINFO>::`RTTI Class Hierarchy Descriptor'
	DD	00H
	DD	02H
	DD	FLAT:??_R2?$CArray@USTTRINFO@@U1@@@8
rdata$r	ENDS
;	COMDAT ??_R0?AV?$CArray@USTTRINFO@@U1@@@@8
data$rs	SEGMENT
??_R0?AV?$CArray@USTTRINFO@@U1@@@@8 DD FLAT:??_7type_info@@6B@ ; CArray<STTRINFO,STTRINFO> `RTTI Type Descriptor'
	DD	00H
	DB	'.?AV?$CArray@USTTRINFO@@U1@@@', 00H
data$rs	ENDS
;	COMDAT ??_R4?$CArray@USTTRINFO@@U1@@@6B@
rdata$r	SEGMENT
??_R4?$CArray@USTTRINFO@@U1@@@6B@ DD 00H		; CArray<STTRINFO,STTRINFO>::`RTTI Complete Object Locator'
	DD	00H
	DD	00H
	DD	FLAT:??_R0?AV?$CArray@USTTRINFO@@U1@@@@8
	DD	FLAT:??_R3?$CArray@USTTRINFO@@U1@@@8
rdata$r	ENDS
;	COMDAT ??_R1A@?0A@EA@?$CList@JJ@@8
rdata$r	SEGMENT
??_R1A@?0A@EA@?$CList@JJ@@8 DD FLAT:??_R0?AV?$CList@JJ@@@8 ; CList<long,long>::`RTTI Base Class Descriptor at (0,-1,0,64)'
	DD	01H
	DD	00H
	DD	0ffffffffH
	DD	00H
	DD	040H
	DD	FLAT:??_R3?$CList@JJ@@8
rdata$r	ENDS
;	COMDAT ??_R2?$CList@JJ@@8
rdata$r	SEGMENT
??_R2?$CList@JJ@@8 DD FLAT:??_R1A@?0A@EA@?$CList@JJ@@8	; CList<long,long>::`RTTI Base Class Array'
	DD	FLAT:??_R1A@?0A@EA@CObject@@8
rdata$r	ENDS
;	COMDAT ??_R3?$CList@JJ@@8
rdata$r	SEGMENT
??_R3?$CList@JJ@@8 DD 00H				; CList<long,long>::`RTTI Class Hierarchy Descriptor'
	DD	00H
	DD	02H
	DD	FLAT:??_R2?$CList@JJ@@8
rdata$r	ENDS
;	COMDAT ??_R0?AV?$CList@JJ@@@8
data$rs	SEGMENT
??_R0?AV?$CList@JJ@@@8 DD FLAT:??_7type_info@@6B@	; CList<long,long> `RTTI Type Descriptor'
	DD	00H
	DB	'.?AV?$CList@JJ@@', 00H
data$rs	ENDS
;	COMDAT ??_R4?$CList@JJ@@6B@
rdata$r	SEGMENT
??_R4?$CList@JJ@@6B@ DD 00H				; CList<long,long>::`RTTI Complete Object Locator'
	DD	00H
	DD	00H
	DD	FLAT:??_R0?AV?$CList@JJ@@@8
	DD	FLAT:??_R3?$CList@JJ@@8
rdata$r	ENDS
;	COMDAT ??_R4CStdDialog@@6B@
rdata$r	SEGMENT
??_R4CStdDialog@@6B@ DD 00H				; CStdDialog::`RTTI Complete Object Locator'
	DD	02d0H
	DD	00H
	DD	FLAT:??_R0?AVCStdDialog@@@8
	DD	FLAT:??_R3CStdDialog@@8
rdata$r	ENDS
;	COMDAT ??_R4CStdDialog@@6BCExResize@@@
rdata$r	SEGMENT
??_R4CStdDialog@@6BCExResize@@@ DD 00H			; CStdDialog::`RTTI Complete Object Locator'
	DD	0a8H
	DD	00H
	DD	FLAT:??_R0?AVCStdDialog@@@8
	DD	FLAT:??_R3CStdDialog@@8
rdata$r	ENDS
;	COMDAT ??_R1CNA@?0A@EA@COutsideCommonInterface@@8
rdata$r	SEGMENT
??_R1CNA@?0A@EA@COutsideCommonInterface@@8 DD FLAT:??_R0?AVCOutsideCommonInterface@@@8 ; COutsideCommonInterface::`RTTI Base Class Descriptor at (720,-1,0,64)'
	DD	00H
	DD	02d0H
	DD	0ffffffffH
	DD	00H
	DD	040H
	DD	FLAT:??_R3COutsideCommonInterface@@8
rdata$r	ENDS
;	COMDAT ??_R1CNA@?0A@EA@CMChartInterface@@8
rdata$r	SEGMENT
??_R1CNA@?0A@EA@CMChartInterface@@8 DD FLAT:??_R0?AVCMChartInterface@@@8 ; CMChartInterface::`RTTI Base Class Descriptor at (720,-1,0,64)'
	DD	01H
	DD	02d0H
	DD	0ffffffffH
	DD	00H
	DD	040H
	DD	FLAT:??_R3CMChartInterface@@8
rdata$r	ENDS
;	COMDAT ??_R1CNA@?0A@EA@CMChartInterface061115@@8
rdata$r	SEGMENT
??_R1CNA@?0A@EA@CMChartInterface061115@@8 DD FLAT:??_R0?AVCMChartInterface061115@@@8 ; CMChartInterface061115::`RTTI Base Class Descriptor at (720,-1,0,64)'
	DD	02H
	DD	02d0H
	DD	0ffffffffH
	DD	00H
	DD	040H
	DD	FLAT:??_R3CMChartInterface061115@@8
rdata$r	ENDS
;	COMDAT ??_R1A@?0A@EA@CExResize@@8
rdata$r	SEGMENT
??_R1A@?0A@EA@CExResize@@8 DD FLAT:??_R0?AVCExResize@@@8 ; CExResize::`RTTI Base Class Descriptor at (0,-1,0,64)'
	DD	00H
	DD	00H
	DD	0ffffffffH
	DD	00H
	DD	040H
	DD	FLAT:??_R3CExResize@@8
rdata$r	ENDS
;	COMDAT ??_R2CExResize@@8
rdata$r	SEGMENT
??_R2CExResize@@8 DD FLAT:??_R1A@?0A@EA@CExResize@@8	; CExResize::`RTTI Base Class Array'
rdata$r	ENDS
;	COMDAT ??_R3CExResize@@8
rdata$r	SEGMENT
??_R3CExResize@@8 DD 00H				; CExResize::`RTTI Class Hierarchy Descriptor'
	DD	00H
	DD	01H
	DD	FLAT:??_R2CExResize@@8
rdata$r	ENDS
;	COMDAT ??_R0?AVCExResize@@@8
data$rs	SEGMENT
??_R0?AVCExResize@@@8 DD FLAT:??_7type_info@@6B@	; CExResize `RTTI Type Descriptor'
	DD	00H
	DB	'.?AVCExResize@@', 00H
data$rs	ENDS
;	COMDAT ??_R1KI@?0A@EA@CExResize@@8
rdata$r	SEGMENT
??_R1KI@?0A@EA@CExResize@@8 DD FLAT:??_R0?AVCExResize@@@8 ; CExResize::`RTTI Base Class Descriptor at (168,-1,0,64)'
	DD	00H
	DD	0a8H
	DD	0ffffffffH
	DD	00H
	DD	040H
	DD	FLAT:??_R3CExResize@@8
rdata$r	ENDS
;	COMDAT ??_R2CExDialog@@8
rdata$r	SEGMENT
??_R2CExDialog@@8 DD FLAT:??_R1A@?0A@EA@CExDialog@@8	; CExDialog::`RTTI Base Class Array'
	DD	FLAT:??_R1A@?0A@EA@CDialog@@8
	DD	FLAT:??_R1A@?0A@EA@CWnd@@8
	DD	FLAT:??_R1A@?0A@EA@CCmdTarget@@8
	DD	FLAT:??_R1A@?0A@EA@CObject@@8
	DD	FLAT:??_R1KI@?0A@EA@CExResize@@8
rdata$r	ENDS
;	COMDAT ??_R3CExDialog@@8
rdata$r	SEGMENT
??_R3CExDialog@@8 DD 00H				; CExDialog::`RTTI Class Hierarchy Descriptor'
	DD	01H
	DD	06H
	DD	FLAT:??_R2CExDialog@@8
rdata$r	ENDS
;	COMDAT ??_R0?AVCExDialog@@@8
data$rs	SEGMENT
??_R0?AVCExDialog@@@8 DD FLAT:??_7type_info@@6B@	; CExDialog `RTTI Type Descriptor'
	DD	00H
	DB	'.?AVCExDialog@@', 00H
data$rs	ENDS
;	COMDAT ??_R1A@?0A@EA@CExDialog@@8
rdata$r	SEGMENT
??_R1A@?0A@EA@CExDialog@@8 DD FLAT:??_R0?AVCExDialog@@@8 ; CExDialog::`RTTI Base Class Descriptor at (0,-1,0,64)'
	DD	05H
	DD	00H
	DD	0ffffffffH
	DD	00H
	DD	040H
	DD	FLAT:??_R3CExDialog@@8
rdata$r	ENDS
;	COMDAT ??_R2CExOCXDLL@@8
rdata$r	SEGMENT
??_R2CExOCXDLL@@8 DD FLAT:??_R1A@?0A@EA@CExOCXDLL@@8	; CExOCXDLL::`RTTI Base Class Array'
	DD	FLAT:??_R1A@?0A@EA@CExDialog@@8
	DD	FLAT:??_R1A@?0A@EA@CDialog@@8
	DD	FLAT:??_R1A@?0A@EA@CWnd@@8
	DD	FLAT:??_R1A@?0A@EA@CCmdTarget@@8
	DD	FLAT:??_R1A@?0A@EA@CObject@@8
	DD	FLAT:??_R1KI@?0A@EA@CExResize@@8
rdata$r	ENDS
;	COMDAT ??_R3CExOCXDLL@@8
rdata$r	SEGMENT
??_R3CExOCXDLL@@8 DD 00H				; CExOCXDLL::`RTTI Class Hierarchy Descriptor'
	DD	01H
	DD	07H
	DD	FLAT:??_R2CExOCXDLL@@8
rdata$r	ENDS
;	COMDAT ??_R0?AVCExOCXDLL@@@8
data$rs	SEGMENT
??_R0?AVCExOCXDLL@@@8 DD FLAT:??_7type_info@@6B@	; CExOCXDLL `RTTI Type Descriptor'
	DD	00H
	DB	'.?AVCExOCXDLL@@', 00H
data$rs	ENDS
;	COMDAT ??_R1A@?0A@EA@CExOCXDLL@@8
rdata$r	SEGMENT
??_R1A@?0A@EA@CExOCXDLL@@8 DD FLAT:??_R0?AVCExOCXDLL@@@8 ; CExOCXDLL::`RTTI Base Class Descriptor at (0,-1,0,64)'
	DD	06H
	DD	00H
	DD	0ffffffffH
	DD	00H
	DD	040H
	DD	FLAT:??_R3CExOCXDLL@@8
rdata$r	ENDS
;	COMDAT ??_R1A@?0A@EA@CStdDialog@@8
rdata$r	SEGMENT
??_R1A@?0A@EA@CStdDialog@@8 DD FLAT:??_R0?AVCStdDialog@@@8 ; CStdDialog::`RTTI Base Class Descriptor at (0,-1,0,64)'
	DD	0aH
	DD	00H
	DD	0ffffffffH
	DD	00H
	DD	040H
	DD	FLAT:??_R3CStdDialog@@8
rdata$r	ENDS
;	COMDAT ??_R2CStdDialog@@8
rdata$r	SEGMENT
??_R2CStdDialog@@8 DD FLAT:??_R1A@?0A@EA@CStdDialog@@8	; CStdDialog::`RTTI Base Class Array'
	DD	FLAT:??_R1A@?0A@EA@CExOCXDLL@@8
	DD	FLAT:??_R1A@?0A@EA@CExDialog@@8
	DD	FLAT:??_R1A@?0A@EA@CDialog@@8
	DD	FLAT:??_R1A@?0A@EA@CWnd@@8
	DD	FLAT:??_R1A@?0A@EA@CCmdTarget@@8
	DD	FLAT:??_R1A@?0A@EA@CObject@@8
	DD	FLAT:??_R1KI@?0A@EA@CExResize@@8
	DD	FLAT:??_R1CNA@?0A@EA@CMChartInterface061115@@8
	DD	FLAT:??_R1CNA@?0A@EA@CMChartInterface@@8
	DD	FLAT:??_R1CNA@?0A@EA@COutsideCommonInterface@@8
rdata$r	ENDS
;	COMDAT ??_R3CStdDialog@@8
rdata$r	SEGMENT
??_R3CStdDialog@@8 DD 00H				; CStdDialog::`RTTI Class Hierarchy Descriptor'
	DD	01H
	DD	0bH
	DD	FLAT:??_R2CStdDialog@@8
rdata$r	ENDS
;	COMDAT ??_R0?AVCStdDialog@@@8
data$rs	SEGMENT
??_R0?AVCStdDialog@@@8 DD FLAT:??_7type_info@@6B@	; CStdDialog `RTTI Type Descriptor'
	DD	00H
	DB	'.?AVCStdDialog@@', 00H
data$rs	ENDS
;	COMDAT ??_R4CStdDialog@@6BCDialog@@@
rdata$r	SEGMENT
??_R4CStdDialog@@6BCDialog@@@ DD 00H			; CStdDialog::`RTTI Complete Object Locator'
	DD	00H
	DD	00H
	DD	FLAT:??_R0?AVCStdDialog@@@8
	DD	FLAT:??_R3CStdDialog@@8
rdata$r	ENDS
;	COMDAT ??_R1A@?0A@EA@?$CArray@PAUHWND__@@PAU1@@@8
rdata$r	SEGMENT
??_R1A@?0A@EA@?$CArray@PAUHWND__@@PAU1@@@8 DD FLAT:??_R0?AV?$CArray@PAUHWND__@@PAU1@@@@8 ; CArray<HWND__ *,HWND__ *>::`RTTI Base Class Descriptor at (0,-1,0,64)'
	DD	01H
	DD	00H
	DD	0ffffffffH
	DD	00H
	DD	040H
	DD	FLAT:??_R3?$CArray@PAUHWND__@@PAU1@@@8
rdata$r	ENDS
;	COMDAT ??_R2?$CArray@PAUHWND__@@PAU1@@@8
rdata$r	SEGMENT
??_R2?$CArray@PAUHWND__@@PAU1@@@8 DD FLAT:??_R1A@?0A@EA@?$CArray@PAUHWND__@@PAU1@@@8 ; CArray<HWND__ *,HWND__ *>::`RTTI Base Class Array'
	DD	FLAT:??_R1A@?0A@EA@CObject@@8
rdata$r	ENDS
;	COMDAT ??_R3?$CArray@PAUHWND__@@PAU1@@@8
rdata$r	SEGMENT
??_R3?$CArray@PAUHWND__@@PAU1@@@8 DD 00H		; CArray<HWND__ *,HWND__ *>::`RTTI Class Hierarchy Descriptor'
	DD	00H
	DD	02H
	DD	FLAT:??_R2?$CArray@PAUHWND__@@PAU1@@@8
rdata$r	ENDS
;	COMDAT ??_R0?AV?$CArray@PAUHWND__@@PAU1@@@@8
data$rs	SEGMENT
??_R0?AV?$CArray@PAUHWND__@@PAU1@@@@8 DD FLAT:??_7type_info@@6B@ ; CArray<HWND__ *,HWND__ *> `RTTI Type Descriptor'
	DD	00H
	DB	'.?AV?$CArray@PAUHWND__@@PAU1@@@', 00H
data$rs	ENDS
;	COMDAT ??_R4?$CArray@PAUHWND__@@PAU1@@@6B@
rdata$r	SEGMENT
??_R4?$CArray@PAUHWND__@@PAU1@@@6B@ DD 00H		; CArray<HWND__ *,HWND__ *>::`RTTI Complete Object Locator'
	DD	00H
	DD	00H
	DD	FLAT:??_R0?AV?$CArray@PAUHWND__@@PAU1@@@@8
	DD	FLAT:??_R3?$CArray@PAUHWND__@@PAU1@@@8
rdata$r	ENDS
;	COMDAT ??_R1A@?0A@EA@?$CList@UST_GSHAREDFORMAT@@U1@@@8
rdata$r	SEGMENT
??_R1A@?0A@EA@?$CList@UST_GSHAREDFORMAT@@U1@@@8 DD FLAT:??_R0?AV?$CList@UST_GSHAREDFORMAT@@U1@@@@8 ; CList<ST_GSHAREDFORMAT,ST_GSHAREDFORMAT>::`RTTI Base Class Descriptor at (0,-1,0,64)'
	DD	01H
	DD	00H
	DD	0ffffffffH
	DD	00H
	DD	040H
	DD	FLAT:??_R3?$CList@UST_GSHAREDFORMAT@@U1@@@8
rdata$r	ENDS
;	COMDAT ??_R2?$CList@UST_GSHAREDFORMAT@@U1@@@8
rdata$r	SEGMENT
??_R2?$CList@UST_GSHAREDFORMAT@@U1@@@8 DD FLAT:??_R1A@?0A@EA@?$CList@UST_GSHAREDFORMAT@@U1@@@8 ; CList<ST_GSHAREDFORMAT,ST_GSHAREDFORMAT>::`RTTI Base Class Array'
	DD	FLAT:??_R1A@?0A@EA@CObject@@8
rdata$r	ENDS
;	COMDAT ??_R3?$CList@UST_GSHAREDFORMAT@@U1@@@8
rdata$r	SEGMENT
??_R3?$CList@UST_GSHAREDFORMAT@@U1@@@8 DD 00H		; CList<ST_GSHAREDFORMAT,ST_GSHAREDFORMAT>::`RTTI Class Hierarchy Descriptor'
	DD	00H
	DD	02H
	DD	FLAT:??_R2?$CList@UST_GSHAREDFORMAT@@U1@@@8
rdata$r	ENDS
;	COMDAT ??_R0?AV?$CList@UST_GSHAREDFORMAT@@U1@@@@8
data$rs	SEGMENT
??_R0?AV?$CList@UST_GSHAREDFORMAT@@U1@@@@8 DD FLAT:??_7type_info@@6B@ ; CList<ST_GSHAREDFORMAT,ST_GSHAREDFORMAT> `RTTI Type Descriptor'
	DD	00H
	DB	'.?AV?$CList@UST_GSHAREDFORMAT@@U1@@@', 00H
data$rs	ENDS
;	COMDAT ??_R4?$CList@UST_GSHAREDFORMAT@@U1@@@6B@
rdata$r	SEGMENT
??_R4?$CList@UST_GSHAREDFORMAT@@U1@@@6B@ DD 00H		; CList<ST_GSHAREDFORMAT,ST_GSHAREDFORMAT>::`RTTI Complete Object Locator'
	DD	00H
	DD	00H
	DD	FLAT:??_R0?AV?$CList@UST_GSHAREDFORMAT@@U1@@@@8
	DD	FLAT:??_R3?$CList@UST_GSHAREDFORMAT@@U1@@@8
rdata$r	ENDS
;	COMDAT ??_R1A@?0A@EA@?$CList@UST_LSHAREDFORMAT@@U1@@@8
rdata$r	SEGMENT
??_R1A@?0A@EA@?$CList@UST_LSHAREDFORMAT@@U1@@@8 DD FLAT:??_R0?AV?$CList@UST_LSHAREDFORMAT@@U1@@@@8 ; CList<ST_LSHAREDFORMAT,ST_LSHAREDFORMAT>::`RTTI Base Class Descriptor at (0,-1,0,64)'
	DD	01H
	DD	00H
	DD	0ffffffffH
	DD	00H
	DD	040H
	DD	FLAT:??_R3?$CList@UST_LSHAREDFORMAT@@U1@@@8
rdata$r	ENDS
;	COMDAT ??_R2?$CList@UST_LSHAREDFORMAT@@U1@@@8
rdata$r	SEGMENT
??_R2?$CList@UST_LSHAREDFORMAT@@U1@@@8 DD FLAT:??_R1A@?0A@EA@?$CList@UST_LSHAREDFORMAT@@U1@@@8 ; CList<ST_LSHAREDFORMAT,ST_LSHAREDFORMAT>::`RTTI Base Class Array'
	DD	FLAT:??_R1A@?0A@EA@CObject@@8
rdata$r	ENDS
;	COMDAT ??_R3?$CList@UST_LSHAREDFORMAT@@U1@@@8
rdata$r	SEGMENT
??_R3?$CList@UST_LSHAREDFORMAT@@U1@@@8 DD 00H		; CList<ST_LSHAREDFORMAT,ST_LSHAREDFORMAT>::`RTTI Class Hierarchy Descriptor'
	DD	00H
	DD	02H
	DD	FLAT:??_R2?$CList@UST_LSHAREDFORMAT@@U1@@@8
rdata$r	ENDS
;	COMDAT ??_R0?AV?$CList@UST_LSHAREDFORMAT@@U1@@@@8
data$rs	SEGMENT
??_R0?AV?$CList@UST_LSHAREDFORMAT@@U1@@@@8 DD FLAT:??_7type_info@@6B@ ; CList<ST_LSHAREDFORMAT,ST_LSHAREDFORMAT> `RTTI Type Descriptor'
	DD	00H
	DB	'.?AV?$CList@UST_LSHAREDFORMAT@@U1@@@', 00H
data$rs	ENDS
;	COMDAT ??_R4?$CList@UST_LSHAREDFORMAT@@U1@@@6B@
rdata$r	SEGMENT
??_R4?$CList@UST_LSHAREDFORMAT@@U1@@@6B@ DD 00H		; CList<ST_LSHAREDFORMAT,ST_LSHAREDFORMAT>::`RTTI Complete Object Locator'
	DD	00H
	DD	00H
	DD	FLAT:??_R0?AV?$CList@UST_LSHAREDFORMAT@@U1@@@@8
	DD	FLAT:??_R3?$CList@UST_LSHAREDFORMAT@@U1@@@8
rdata$r	ENDS
;	COMDAT ??_R1A@?0A@EA@?$CList@P6AXXZP6AXXZ@@8
rdata$r	SEGMENT
??_R1A@?0A@EA@?$CList@P6AXXZP6AXXZ@@8 DD FLAT:??_R0?AV?$CList@P6AXXZP6AXXZ@@@8 ; CList<void (__cdecl*)(void),void (__cdecl*)(void)>::`RTTI Base Class Descriptor at (0,-1,0,64)'
	DD	01H
	DD	00H
	DD	0ffffffffH
	DD	00H
	DD	040H
	DD	FLAT:??_R3?$CList@P6AXXZP6AXXZ@@8
rdata$r	ENDS
;	COMDAT ??_R2?$CList@P6AXXZP6AXXZ@@8
rdata$r	SEGMENT
??_R2?$CList@P6AXXZP6AXXZ@@8 DD FLAT:??_R1A@?0A@EA@?$CList@P6AXXZP6AXXZ@@8 ; CList<void (__cdecl*)(void),void (__cdecl*)(void)>::`RTTI Base Class Array'
	DD	FLAT:??_R1A@?0A@EA@CObject@@8
rdata$r	ENDS
;	COMDAT ??_R3?$CList@P6AXXZP6AXXZ@@8
rdata$r	SEGMENT
??_R3?$CList@P6AXXZP6AXXZ@@8 DD 00H			; CList<void (__cdecl*)(void),void (__cdecl*)(void)>::`RTTI Class Hierarchy Descriptor'
	DD	00H
	DD	02H
	DD	FLAT:??_R2?$CList@P6AXXZP6AXXZ@@8
rdata$r	ENDS
;	COMDAT ??_R0?AV?$CList@P6AXXZP6AXXZ@@@8
data$rs	SEGMENT
??_R0?AV?$CList@P6AXXZP6AXXZ@@@8 DD FLAT:??_7type_info@@6B@ ; CList<void (__cdecl*)(void),void (__cdecl*)(void)> `RTTI Type Descriptor'
	DD	00H
	DB	'.?AV?$CList@P6AXXZP6AXXZ@@', 00H
data$rs	ENDS
;	COMDAT ??_R4?$CList@P6AXXZP6AXXZ@@6B@
rdata$r	SEGMENT
??_R4?$CList@P6AXXZP6AXXZ@@6B@ DD 00H			; CList<void (__cdecl*)(void),void (__cdecl*)(void)>::`RTTI Complete Object Locator'
	DD	00H
	DD	00H
	DD	FLAT:??_R0?AV?$CList@P6AXXZP6AXXZ@@@8
	DD	FLAT:??_R3?$CList@P6AXXZP6AXXZ@@8
rdata$r	ENDS
;	COMDAT ??_R1A@?0A@EA@CMChartInterface061115@@8
rdata$r	SEGMENT
??_R1A@?0A@EA@CMChartInterface061115@@8 DD FLAT:??_R0?AVCMChartInterface061115@@@8 ; CMChartInterface061115::`RTTI Base Class Descriptor at (0,-1,0,64)'
	DD	02H
	DD	00H
	DD	0ffffffffH
	DD	00H
	DD	040H
	DD	FLAT:??_R3CMChartInterface061115@@8
rdata$r	ENDS
;	COMDAT ??_R2CMChartInterface061115@@8
rdata$r	SEGMENT
??_R2CMChartInterface061115@@8 DD FLAT:??_R1A@?0A@EA@CMChartInterface061115@@8 ; CMChartInterface061115::`RTTI Base Class Array'
	DD	FLAT:??_R1A@?0A@EA@CMChartInterface@@8
	DD	FLAT:??_R1A@?0A@EA@COutsideCommonInterface@@8
rdata$r	ENDS
;	COMDAT ??_R3CMChartInterface061115@@8
rdata$r	SEGMENT
??_R3CMChartInterface061115@@8 DD 00H			; CMChartInterface061115::`RTTI Class Hierarchy Descriptor'
	DD	00H
	DD	03H
	DD	FLAT:??_R2CMChartInterface061115@@8
rdata$r	ENDS
;	COMDAT ??_R0?AVCMChartInterface061115@@@8
data$rs	SEGMENT
??_R0?AVCMChartInterface061115@@@8 DD FLAT:??_7type_info@@6B@ ; CMChartInterface061115 `RTTI Type Descriptor'
	DD	00H
	DB	'.?AVCMChartInterface061115@@', 00H
data$rs	ENDS
;	COMDAT ??_R4CMChartInterface061115@@6B@
rdata$r	SEGMENT
??_R4CMChartInterface061115@@6B@ DD 00H			; CMChartInterface061115::`RTTI Complete Object Locator'
	DD	00H
	DD	00H
	DD	FLAT:??_R0?AVCMChartInterface061115@@@8
	DD	FLAT:??_R3CMChartInterface061115@@8
rdata$r	ENDS
;	COMDAT ??_R1A@?0A@EA@CMChartInterface@@8
rdata$r	SEGMENT
??_R1A@?0A@EA@CMChartInterface@@8 DD FLAT:??_R0?AVCMChartInterface@@@8 ; CMChartInterface::`RTTI Base Class Descriptor at (0,-1,0,64)'
	DD	01H
	DD	00H
	DD	0ffffffffH
	DD	00H
	DD	040H
	DD	FLAT:??_R3CMChartInterface@@8
rdata$r	ENDS
;	COMDAT ??_R2CMChartInterface@@8
rdata$r	SEGMENT
??_R2CMChartInterface@@8 DD FLAT:??_R1A@?0A@EA@CMChartInterface@@8 ; CMChartInterface::`RTTI Base Class Array'
	DD	FLAT:??_R1A@?0A@EA@COutsideCommonInterface@@8
rdata$r	ENDS
;	COMDAT ??_R3CMChartInterface@@8
rdata$r	SEGMENT
??_R3CMChartInterface@@8 DD 00H				; CMChartInterface::`RTTI Class Hierarchy Descriptor'
	DD	00H
	DD	02H
	DD	FLAT:??_R2CMChartInterface@@8
rdata$r	ENDS
;	COMDAT ??_R0?AVCMChartInterface@@@8
data$rs	SEGMENT
??_R0?AVCMChartInterface@@@8 DD FLAT:??_7type_info@@6B@	; CMChartInterface `RTTI Type Descriptor'
	DD	00H
	DB	'.?AVCMChartInterface@@', 00H
data$rs	ENDS
;	COMDAT ??_R4CMChartInterface@@6B@
rdata$r	SEGMENT
??_R4CMChartInterface@@6B@ DD 00H			; CMChartInterface::`RTTI Complete Object Locator'
	DD	00H
	DD	00H
	DD	FLAT:??_R0?AVCMChartInterface@@@8
	DD	FLAT:??_R3CMChartInterface@@8
rdata$r	ENDS
;	COMDAT ??_R1A@?0A@EA@COutsideCommonInterface@@8
rdata$r	SEGMENT
??_R1A@?0A@EA@COutsideCommonInterface@@8 DD FLAT:??_R0?AVCOutsideCommonInterface@@@8 ; COutsideCommonInterface::`RTTI Base Class Descriptor at (0,-1,0,64)'
	DD	00H
	DD	00H
	DD	0ffffffffH
	DD	00H
	DD	040H
	DD	FLAT:??_R3COutsideCommonInterface@@8
rdata$r	ENDS
;	COMDAT ??_R2COutsideCommonInterface@@8
rdata$r	SEGMENT
??_R2COutsideCommonInterface@@8 DD FLAT:??_R1A@?0A@EA@COutsideCommonInterface@@8 ; COutsideCommonInterface::`RTTI Base Class Array'
rdata$r	ENDS
;	COMDAT ??_R3COutsideCommonInterface@@8
rdata$r	SEGMENT
??_R3COutsideCommonInterface@@8 DD 00H			; COutsideCommonInterface::`RTTI Class Hierarchy Descriptor'
	DD	00H
	DD	01H
	DD	FLAT:??_R2COutsideCommonInterface@@8
rdata$r	ENDS
;	COMDAT ??_R0?AVCOutsideCommonInterface@@@8
data$rs	SEGMENT
??_R0?AVCOutsideCommonInterface@@@8 DD FLAT:??_7type_info@@6B@ ; COutsideCommonInterface `RTTI Type Descriptor'
	DD	00H
	DB	'.?AVCOutsideCommonInterface@@', 00H
data$rs	ENDS
;	COMDAT ??_R4COutsideCommonInterface@@6B@
rdata$r	SEGMENT
??_R4COutsideCommonInterface@@6B@ DD 00H		; COutsideCommonInterface::`RTTI Complete Object Locator'
	DD	00H
	DD	00H
	DD	FLAT:??_R0?AVCOutsideCommonInterface@@@8
	DD	FLAT:??_R3COutsideCommonInterface@@8
rdata$r	ENDS
;	COMDAT ??_R1A@?0A@EA@IPartnerSite@@8
rdata$r	SEGMENT
??_R1A@?0A@EA@IPartnerSite@@8 DD FLAT:??_R0?AUIPartnerSite@@@8 ; IPartnerSite::`RTTI Base Class Descriptor at (0,-1,0,64)'
	DD	00H
	DD	00H
	DD	0ffffffffH
	DD	00H
	DD	040H
	DD	FLAT:??_R3IPartnerSite@@8
rdata$r	ENDS
;	COMDAT ??_R2IPartnerSite@@8
rdata$r	SEGMENT
??_R2IPartnerSite@@8 DD FLAT:??_R1A@?0A@EA@IPartnerSite@@8 ; IPartnerSite::`RTTI Base Class Array'
rdata$r	ENDS
;	COMDAT ??_R3IPartnerSite@@8
rdata$r	SEGMENT
??_R3IPartnerSite@@8 DD 00H				; IPartnerSite::`RTTI Class Hierarchy Descriptor'
	DD	00H
	DD	01H
	DD	FLAT:??_R2IPartnerSite@@8
rdata$r	ENDS
;	COMDAT ??_R0?AUIPartnerSite@@@8
data$rs	SEGMENT
??_R0?AUIPartnerSite@@@8 DD FLAT:??_7type_info@@6B@	; IPartnerSite `RTTI Type Descriptor'
	DD	00H
	DB	'.?AUIPartnerSite@@', 00H
data$rs	ENDS
;	COMDAT ??_C@_0CO@GLEHGHAE@?$AN?6?$FLCStdDialog?3?3ClearSaveKey?$FN?5m_@
CONST	SEGMENT
??_C@_0CO@GLEHGHAE@?$AN?6?$FLCStdDialog?3?3ClearSaveKey?$FN?5m_@ DB 0dH, 0aH
	DB	'[CStdDialog::ClearSaveKey] m_strConfig=%s', 0dH, 0aH, 00H ; `string'
CONST	ENDS
;	COMDAT ??_C@_0CM@PEPHEJNH@?$AN?6?$FLCStdDialog?3?3SetSaveKey?$FN?5m_st@
CONST	SEGMENT
??_C@_0CM@PEPHEJNH@?$AN?6?$FLCStdDialog?3?3SetSaveKey?$FN?5m_st@ DB 0dH, 0aH
	DB	'[CStdDialog::SetSaveKey] m_strConfig=%s', 0dH, 0aH, 00H ; `string'
CONST	ENDS
;	COMDAT ??_C@_05ONEOBAM@?$CFs_?$CFs@
CONST	SEGMENT
??_C@_05ONEOBAM@?$CFs_?$CFs@ DB '%s_%s', 00H		; `string'
CONST	ENDS
;	COMDAT ??_C@_08NFBGDCLD@LASTSTAT@
CONST	SEGMENT
??_C@_08NFBGDCLD@LASTSTAT@ DB 'LASTSTAT', 00H		; `string'
CONST	ENDS
;	COMDAT ??_C@_06KJHHNPMO@?2Saved@
CONST	SEGMENT
??_C@_06KJHHNPMO@?2Saved@ DB '\Saved', 00H		; `string'
CONST	ENDS
;	COMDAT ??_C@_06LEPDLCLO@?2Guide@
CONST	SEGMENT
??_C@_06LEPDLCLO@?2Guide@ DB '\Guide', 00H		; `string'
CONST	ENDS
;	COMDAT ??_C@_0L@OOKMJFJF@?$CFs?2Icss?2?$CFs@
CONST	SEGMENT
??_C@_0L@OOKMJFJF@?$CFs?2Icss?2?$CFs@ DB '%s\Icss\%s', 00H ; `string'
CONST	ENDS
;	COMDAT ??_C@_05IJGIMMHE@Count@
CONST	SEGMENT
??_C@_05IJGIMMHE@Count@ DB 'Count', 00H			; `string'
CONST	ENDS
;	COMDAT ??_C@_07MHLIEPKG@?$CFs?2?$CFs?$CFs@
CONST	SEGMENT
??_C@_07MHLIEPKG@?$CFs?2?$CFs?$CFs@ DB '%s\%s%s', 00H	; `string'
CONST	ENDS
;	COMDAT ??_C@_0P@BPGJMBEI@_ChartInfo?4dat@
CONST	SEGMENT
??_C@_0P@BPGJMBEI@_ChartInfo?4dat@ DB '_ChartInfo.dat', 00H ; `string'
CONST	ENDS
;	COMDAT ??_C@_0BA@KAFEMAFG@?$CKJipyoSync?$CK?4dat@
CONST	SEGMENT
??_C@_0BA@KAFEMAFG@?$CKJipyoSync?$CK?4dat@ DB '*JipyoSync*.dat', 00H ; `string'
CONST	ENDS
;	COMDAT ??_C@_0N@MPHJMBJK@?$CKAnalTool?$CK?4?$CK@
CONST	SEGMENT
??_C@_0N@MPHJMBJK@?$CKAnalTool?$CK?4?$CK@ DB '*AnalTool*.*', 00H ; `string'
CONST	ENDS
;	COMDAT ??_C@_0BA@DCJFOBMJ@?$CKChartInfo?$CK?4dat@
CONST	SEGMENT
??_C@_0BA@DCJFOBMJ@?$CKChartInfo?$CK?4dat@ DB '*ChartInfo*.dat', 00H ; `string'
CONST	ENDS
;	COMDAT ??_C@_0N@OIJJJJDJ@?$CKIndiCond?$CK?4?$CK@
CONST	SEGMENT
??_C@_0N@OIJJJJDJ@?$CKIndiCond?$CK?4?$CK@ DB '*IndiCond*.*', 00H ; `string'
CONST	ENDS
;	COMDAT ??_C@_05LCPPJHOO@?$CK?4cht@
CONST	SEGMENT
??_C@_05LCPPJHOO@?$CK?4cht@ DB '*.cht', 00H		; `string'
CONST	ENDS
;	COMDAT ??_C@_05FOHFAPDM@?$CK?4mct@
CONST	SEGMENT
??_C@_05FOHFAPDM@?$CK?4mct@ DB '*.mct', 00H		; `string'
CONST	ENDS
;	COMDAT ??_C@_03GDMIGCCC@Ver@
CONST	SEGMENT
??_C@_03GDMIGCCC@Ver@ DB 'Ver', 00H			; `string'
CONST	ENDS
;	COMDAT ??_C@_07EDIFFIJI@Current@
CONST	SEGMENT
??_C@_07EDIFFIJI@Current@ DB 'Current', 00H		; `string'
CONST	ENDS
;	COMDAT ??_C@_06GEKNBBDK@000000@
CONST	SEGMENT
??_C@_06GEKNBBDK@000000@ DB '000000', 00H		; `string'
CONST	ENDS
;	COMDAT ??_C@_0BA@BPDNFBNL@?$CFs?2ChartDef?4cfg@
CONST	SEGMENT
??_C@_0BA@BPDNFBNL@?$CFs?2ChartDef?4cfg@ DB '%s\ChartDef.cfg', 00H ; `string'
CONST	ENDS
;	COMDAT ??_C@_0BF@IPLIGJMI@?$CFs?2Icss?2ChartDef?4cfg@
CONST	SEGMENT
??_C@_0BF@IPLIGJMI@?$CFs?2Icss?2ChartDef?4cfg@ DB '%s\Icss\ChartDef.cfg', 00H ; `string'
CONST	ENDS
;	COMDAT ??_C@_04PDLMKGCF@0516@
CONST	SEGMENT
??_C@_04PDLMKGCF@0516@ DB '0516', 00H			; `string'
CONST	ENDS
;	COMDAT ??_C@_0N@OLEGDLBE@FUTOPT_CHART@
CONST	SEGMENT
??_C@_0N@OLEGDLBE@FUTOPT_CHART@ DB 'FUTOPT_CHART', 00H	; `string'
CONST	ENDS
;	COMDAT ??_C@_0L@MLFIJCDN@PGKOSPIXPT@
CONST	SEGMENT
??_C@_0L@MLFIJCDN@PGKOSPIXPT@ DB 'PGKOSPIXPT', 00H	; `string'
CONST	ENDS
;	COMDAT ??_C@_06MEGEOGFA@109301@
CONST	SEGMENT
??_C@_06MEGEOGFA@109301@ DB '109301', 00H		; `string'
CONST	ENDS
;	COMDAT ??_C@_07BFPKBOOB@DJI?$EADJC@
CONST	SEGMENT
??_C@_07BFPKBOOB@DJI?$EADJC@ DB 'DJI@DJC', 00H		; `string'
CONST	ENDS
;	COMDAT ??_C@_05LLADMFKJ@50301@
CONST	SEGMENT
??_C@_05LLADMFKJ@50301@ DB '50301', 00H			; `string'
CONST	ENDS
;	COMDAT ??_C@_0BA@IBKFDOEP@COMMODITYMASTER@
CONST	SEGMENT
??_C@_0BA@IBKFDOEP@COMMODITYMASTER@ DB 'COMMODITYMASTER', 00H ; `string'
CONST	ENDS
;	COMDAT ??_C@_04EACLLJCN@6665@
CONST	SEGMENT
??_C@_04EACLLJCN@6665@ DB '6665', 00H			; `string'
CONST	ENDS
;	COMDAT ??_C@_05LNKGNLBG@cfcod@
CONST	SEGMENT
??_C@_05LNKGNLBG@cfcod@ DB 'cfcod', 00H			; `string'
CONST	ENDS
;	COMDAT ??_C@_08JJGADJMB@JFMASTER@
CONST	SEGMENT
??_C@_08JJGADJMB@JFMASTER@ DB 'JFMASTER', 00H		; `string'
CONST	ENDS
;	COMDAT ??_C@_0BG@KJDCKONO@?$CFs?2sfcode_history?4dat@
CONST	SEGMENT
??_C@_0BG@KJDCKONO@?$CFs?2sfcode_history?4dat@ DB '%s\sfcode_history.dat', 00H ; `string'
CONST	ENDS
;	COMDAT ??_C@_05GNFKCGLE@30301@
CONST	SEGMENT
??_C@_05GNFKCGLE@30301@ DB '30301', 00H			; `string'
CONST	ENDS
;	COMDAT ??_C@_03MMKGDKGA@001@
CONST	SEGMENT
??_C@_03MMKGDKGA@001@ DB '001', 00H			; `string'
CONST	ENDS
;	COMDAT ??_C@_05KGAGPFBB@20301@
CONST	SEGMENT
??_C@_05KGAGPFBB@20301@ DB '20301', 00H			; `string'
CONST	ENDS
;	COMDAT ??_C@_06GFJLBLKD@024110@
CONST	SEGMENT
??_C@_06GFJLBLKD@024110@ DB '024110', 00H		; `string'
CONST	ENDS
;	COMDAT ??_C@_0O@LKFCJOMC@SET_STOCKCODE@
CONST	SEGMENT
??_C@_0O@LKFCJOMC@SET_STOCKCODE@ DB 'SET_STOCKCODE', 00H ; `string'
CONST	ENDS
;	COMDAT ??_C@_04KFDECMLJ@1301@
CONST	SEGMENT
??_C@_04KFDECMLJ@1301@ DB '1301', 00H			; `string'
CONST	ENDS
;	COMDAT ??_C@_0BG@ILJLMOMK@OnLoadHistory_Init_?$CFd@
CONST	SEGMENT
??_C@_0BG@ILJLMOMK@OnLoadHistory_Init_?$CFd@ DB 'OnLoadHistory_Init_%d', 00H ; `string'
CONST	ENDS
;	COMDAT ??_C@_04NIJBPFOG@0515@
CONST	SEGMENT
??_C@_04NIJBPFOG@0515@ DB '0515', 00H			; `string'
CONST	ENDS
;	COMDAT ??_C@_04JDPKJLKG@0000@
CONST	SEGMENT
??_C@_04JDPKJLKG@0000@ DB '0000', 00H			; `string'
CONST	ENDS
;	COMDAT ??_C@_06HFLFPHDF@Code00@
CONST	SEGMENT
??_C@_06HFLFPHDF@Code00@ DB 'Code00', 00H		; `string'
CONST	ENDS
;	COMDAT ??_C@_0N@GPLCLMGF@?G?$LC?$LP?I?$LM?G?$LM?x?$LI?E?$LM?v@
CONST	SEGMENT
??_C@_0N@GPLCLMGF@?G?$LC?$LP?I?$LM?G?$LM?x?$LI?E?$LM?v@ DB 0c7H, 0b2H, 0bfH
	DB	0c9H, 0bcH, 0c7H, 0bcH, 0f8H, 0b8H, 0c5H, 0bcH, 0f6H, 00H ; `string'
CONST	ENDS
;	COMDAT ??_C@_0N@IILOCDNC@?D?$NN?$LP?I?$LM?G?$LM?x?$LI?E?$LM?v@
CONST	SEGMENT
??_C@_0N@IILOCDNC@?D?$NN?$LP?I?$LM?G?$LM?x?$LI?E?$LM?v@ DB 0c4H, 0ddH, 0bfH
	DB	0c9H, 0bcH, 0c7H, 0bcH, 0f8H, 0b8H, 0c5H, 0bcH, 0f6H, 00H ; `string'
CONST	ENDS
;	COMDAT ??_C@_0L@GDHOEADP@?$LM?$LB?$LJ?$LA?$LM?x?$LI?E?$LM?v@
CONST	SEGMENT
??_C@_0L@GDHOEADP@?$LM?$LB?$LJ?$LA?$LM?x?$LI?E?$LM?v@ DB 0bcH, 0b1H, 0b9H
	DB	0b0H, 0bcH, 0f8H, 0b8H, 0c5H, 0bcH, 0f6H, 00H ; `string'
CONST	ENDS
;	COMDAT ??_C@_0L@FHHJLDBM@K200?$LM?x?$LI?E?$LM?v@
CONST	SEGMENT
??_C@_0L@FHHJLDBM@K200?$LM?x?$LI?E?$LM?v@ DB 'K200', 0bcH, 0f8H, 0b8H, 0c5H
	DB	0bcH, 0f6H, 00H				; `string'
CONST	ENDS
;	COMDAT ??_C@_0N@OFFCMLOF@?D?Z?$LN?$LK?$LE?Z?$LM?x?$LI?E?$LM?v@
CONST	SEGMENT
??_C@_0N@OFFCMLOF@?D?Z?$LN?$LK?$LE?Z?$LM?x?$LI?E?$LM?v@ DB 0c4H, 0daH, 0bdH
	DB	0baH, 0b4H, 0daH, 0bcH, 0f8H, 0b8H, 0c5H, 0bcH, 0f6H, 00H ; `string'
CONST	ENDS
;	COMDAT ??_C@_0N@LEEPDEEM@?$LA?E?$LH?$KB?$LM?R?$LM?x?$LI?E?$LM?v@
CONST	SEGMENT
??_C@_0N@LEEPDEEM@?$LA?E?$LH?$KB?$LM?R?$LM?x?$LI?E?$LM?v@ DB 0b0H, 0c5H, 0b7H
	DB	0a1H, 0bcH, 0d2H, 0bcH, 0f8H, 0b8H, 0c5H, 0bcH, 0f6H, 00H ; `string'
CONST	ENDS
;	COMDAT ??_C@_0P@EMKEIKBJ@WidthOfLeftBar@
CONST	SEGMENT
??_C@_0P@EMKEIKBJ@WidthOfLeftBar@ DB 'WidthOfLeftBar', 00H ; `string'
CONST	ENDS
;	COMDAT ??_C@_0BM@IDFHNMID@?$FLOpenScreen?$FNSolomon?$LM?v?A?$KE?G?J?$LP?d@
CONST	SEGMENT
??_C@_0BM@IDFHNMID@?$FLOpenScreen?$FNSolomon?$LM?v?A?$KE?G?J?$LP?d@ DB '['
	DB	'OpenScreen]Solomon', 0bcH, 0f6H, 0c1H, 0a4H, 0c7H, 0caH, 0bfH
	DB	0e4H, 00H					; `string'
CONST	ENDS
;	COMDAT ??_C@_01NFFPALBN@Y@
CONST	SEGMENT
??_C@_01NFFPALBN@Y@ DB 'Y', 00H				; `string'
CONST	ENDS
;	COMDAT ??_C@_01NANMIPIL@N@
CONST	SEGMENT
??_C@_01NANMIPIL@N@ DB 'N', 00H				; `string'
CONST	ENDS
;	COMDAT ??_C@_0CF@MGIAPKII@?$FLIsSystemTradingUser?$FNSolomon?$LM?v?A@
CONST	SEGMENT
??_C@_0CF@MGIAPKII@?$FLIsSystemTradingUser?$FNSolomon?$LM?v?A@ DB '[IsSys'
	DB	'temTradingUser]Solomon', 0bcH, 0f6H, 0c1H, 0a4H, 0c7H, 0caH, 0bfH
	DB	0e4H, 00H					; `string'
CONST	ENDS
;	COMDAT ??_C@_05NKCIDMAJ@?$CF9?49s@
CONST	SEGMENT
??_C@_05NKCIDMAJ@?$CF9?49s@ DB '%9.9s', 00H		; `string'
CONST	ENDS
;	COMDAT ??_C@_05FDCEOMOF@?$CF6?46s@
CONST	SEGMENT
??_C@_05FDCEOMOF@?$CF6?46s@ DB '%6.6s', 00H		; `string'
CONST	ENDS
;	COMDAT ??_C@_04LCFLHEIH@?$CFs00@
CONST	SEGMENT
??_C@_04LCFLHEIH@?$CFs00@ DB '%s00', 00H		; `string'
CONST	ENDS
;	COMDAT ??_C@_0CG@FGPFKHBF@?$FLRequestCondUnitPrice?$FNSolomon?$LM?v@
CONST	SEGMENT
??_C@_0CG@FGPFKHBF@?$FLRequestCondUnitPrice?$FNSolomon?$LM?v@ DB '[Reques'
	DB	'tCondUnitPrice]Solomon', 0bcH, 0f6H, 0c1H, 0a4H, 0c7H, 0caH, 0bfH
	DB	0e4H, 00H					; `string'
CONST	ENDS
;	COMDAT ??_C@_0CF@HOMGPHFD@?$FLRequestAvgUnitPrice?$FNSolomon?$LM?v?A@
CONST	SEGMENT
??_C@_0CF@HOMGPHFD@?$FLRequestAvgUnitPrice?$FNSolomon?$LM?v?A@ DB '[Reque'
	DB	'stAvgUnitPrice]Solomon', 0bcH, 0f6H, 0c1H, 0a4H, 0c7H, 0caH, 0bfH
	DB	0e4H, 00H					; `string'
CONST	ENDS
;	COMDAT ??_C@_0CA@BLFLABEK@?$FLGetAccountList?$FNSolomon?$LM?v?A?$KE?G?J?$LP?d@
CONST	SEGMENT
??_C@_0CA@BLFLABEK@?$FLGetAccountList?$FNSolomon?$LM?v?A?$KE?G?J?$LP?d@ DB '['
	DB	'GetAccountList]Solomon', 0bcH, 0f6H, 0c1H, 0a4H, 0c7H, 0caH, 0bfH
	DB	0e4H, 00H					; `string'
CONST	ENDS
;	COMDAT ??_C@_0CP@OHJGBPNB@?$LK?$LJ?$LB?b?$LI?p?$LF?e?$LE?B?5?A?V?$LN?D?$LA?z?5?$LM?$LB?$LJ?$LA?1?$LP?I?$LM?G?5?A?$LO?$LI@
CONST	SEGMENT
??_C@_0CP@OHJGBPNB@?$LK?$LJ?$LB?b?$LI?p?$LF?e?$LE?B?5?A?V?$LN?D?$LA?z?5?$LM?$LB?$LJ?$LA?1?$LP?I?$LM?G?5?A?$LO?$LI@ DB 0baH
	DB	0b9H, 0b1H, 0e2H, 0b8H, 0f0H, 0b5H, 0e5H, 0b4H, 0c2H, ' ', 0c1H
	DB	0d6H, 0bdH, 0c4H, 0b0H, 0faH, ' ', 0bcH, 0b1H, 0b9H, 0b0H, '/', 0bfH
	DB	0c9H, 0bcH, 0c7H, ' ', 0c1H, 0beH, 0b8H, 0f1H, 0b8H, 0b8H, ' ', 0b0H
	DB	0a1H, 0b4H, 0c9H, 0c7H, 0d5H, 0b4H, 0cfH, 0b4H, 0d9H, '.', 00H ; `string'
CONST	ENDS
;	COMDAT ??_C@_0CD@EEHNFPJD@?$LK?$LJ?$LB?b?$LI?p?$LF?e?$LN?C?5?A?$LO?$LI?q?A?$NP?C?$LI?G?R?5?$LM?v?5?$LO?x?$LN?$MA?$LE?O@
CONST	SEGMENT
??_C@_0CD@EEHNFPJD@?$LK?$LJ?$LB?b?$LI?p?$LF?e?$LN?C?5?A?$LO?$LI?q?A?$NP?C?$LI?G?R?5?$LM?v?5?$LO?x?$LN?$MA?$LE?O@ DB 0baH
	DB	0b9H, 0b1H, 0e2H, 0b8H, 0f0H, 0b5H, 0e5H, 0bdH, 0c3H, ' ', 0c1H
	DB	0beH, 0b8H, 0f1H, 0c1H, 0dfH, 0c3H, 0b8H, 0c7H, 0d2H, ' ', 0bcH
	DB	0f6H, ' ', 0beH, 0f8H, 0bdH, 0c0H, 0b4H, 0cfH, 0b4H, 0d9H, '.', 00H ; `string'
CONST	ENDS
;	COMDAT ??_C@_0CD@NLLKHNJF@?$LK?$LJ?$LB?b?$LI?p?$LF?e?$LN?C?5?A?$LO?$LI?q?C?$NP?$LA?$KB?G?R?5?$LM?v?5?$LO?x?$LN?$MA?$LE?O@
CONST	SEGMENT
??_C@_0CD@NLLKHNJF@?$LK?$LJ?$LB?b?$LI?p?$LF?e?$LN?C?5?A?$LO?$LI?q?C?$NP?$LA?$KB?G?R?5?$LM?v?5?$LO?x?$LN?$MA?$LE?O@ DB 0baH
	DB	0b9H, 0b1H, 0e2H, 0b8H, 0f0H, 0b5H, 0e5H, 0bdH, 0c3H, ' ', 0c1H
	DB	0beH, 0b8H, 0f1H, 0c3H, 0dfH, 0b0H, 0a1H, 0c7H, 0d2H, ' ', 0bcH
	DB	0f6H, ' ', 0beH, 0f8H, 0bdH, 0c0H, 0b4H, 0cfH, 0b4H, 0d9H, '.', 00H ; `string'
CONST	ENDS
;	COMDAT ??_C@_02PPKAJPJL@?$CG?$CG@
CONST	SEGMENT
??_C@_02PPKAJPJL@?$CG?$CG@ DB '&&', 00H			; `string'
CONST	ENDS
;	COMDAT ??_C@_01HNPIGOCE@?$CG@
CONST	SEGMENT
??_C@_01HNPIGOCE@?$CG@ DB '&', 00H			; `string'
CONST	ENDS
;	COMDAT ??_C@_05LGOGABHH@p0615@
CONST	SEGMENT
??_C@_05LGOGABHH@p0615@ DB 'p0615', 00H			; `string'
CONST	ENDS
;	COMDAT ??_C@_05KPPNDADG@p0614@
CONST	SEGMENT
??_C@_05KPPNDADG@p0614@ DB 'p0614', 00H			; `string'
CONST	ENDS
;	COMDAT ??_C@_05OALMKGPB@p0613@
CONST	SEGMENT
??_C@_05OALMKGPB@p0613@ DB 'p0613', 00H			; `string'
CONST	ENDS
;	COMDAT ??_C@_05PJKHJHLA@p0612@
CONST	SEGMENT
??_C@_05PJKHJHLA@p0612@ DB 'p0612', 00H			; `string'
CONST	ENDS
;	COMDAT ??_C@_0CB@PMOGLKBA@?$FLGetLinkInfoData?$FNSolomon?$LM?v?A?$KE?G?J?$LP@
CONST	SEGMENT
??_C@_0CB@PMOGLKBA@?$FLGetLinkInfoData?$FNSolomon?$LM?v?A?$KE?G?J?$LP@ DB '['
	DB	'GetLinkInfoData]Solomon', 0bcH, 0f6H, 0c1H, 0a4H, 0c7H, 0caH, 0bfH
	DB	0e4H, 00H					; `string'
CONST	ENDS
;	COMDAT ??_C@_07HACLDE@STBasic@
CONST	SEGMENT
??_C@_07HACLDE@STBasic@ DB 'STBasic', 00H		; `string'
CONST	ENDS
;	COMDAT ??_C@_0BC@OLFGGJJI@SystemTradingMode@
CONST	SEGMENT
??_C@_0BC@OLFGGJJI@SystemTradingMode@ DB 'SystemTradingMode', 00H ; `string'
CONST	ENDS
;	COMDAT ??_C@_0BD@PINPPFKJ@?2Icss?2CHARTDEF?4CFG@
CONST	SEGMENT
??_C@_0BD@PINPPFKJ@?2Icss?2CHARTDEF?4CFG@ DB '\Icss\CHARTDEF.CFG', 00H ; `string'
CONST	ENDS
;	COMDAT ??_C@_0L@CCBFPMDD@?5?5?5?5?5?5?5?5?5?5@
CONST	SEGMENT
??_C@_0L@CCBFPMDD@?5?5?5?5?5?5?5?5?5?5@ DB '          ', 00H ; `string'
CONST	ENDS
;	COMDAT ??_C@_01DGKLNCNG@R@
CONST	SEGMENT
??_C@_01DGKLNCNG@R@ DB 'R', 00H				; `string'
CONST	ENDS
;	COMDAT ??_C@_01OCOKONAJ@L@
CONST	SEGMENT
??_C@_01OCOKONAJ@L@ DB 'L', 00H				; `string'
CONST	ENDS
;	COMDAT ??_C@_0M@BBGPCCJB@?A?v?G?$KF?9?$LF?e?$LH?$KB?$LB?W@
CONST	SEGMENT
??_C@_0M@BBGPCCJB@?A?v?G?$KF?9?$LF?e?$LH?$KB?$LB?W@ DB 0c1H, 0f6H, 0c7H, 0a5H
	DB	'-', 0b5H, 0e5H, 0b7H, 0a1H, 0b1H, 0d7H, 00H	; `string'
CONST	ENDS
;	COMDAT ??_C@_02NFLHGFB@?0?$DL@
CONST	SEGMENT
??_C@_02NFLHGFB@?0?$DL@ DB ',;', 00H			; `string'
CONST	ENDS
;	COMDAT ??_C@_0L@COPLOIK@W8_H25?4bmp@
CONST	SEGMENT
??_C@_0L@COPLOIK@W8_H25?4bmp@ DB 'W8_H25.bmp', 00H	; `string'
CONST	ENDS
;	COMDAT ??_C@_0BN@IKEIDFJ@Can?5not?5Find?5W8_H25?4bmp?5file@
CONST	SEGMENT
??_C@_0BN@IKEIDFJ@Can?5not?5Find?5W8_H25?4bmp?5file@ DB 'Can not Find W8_'
	DB	'H25.bmp file', 00H				; `string'
CONST	ENDS
;	COMDAT ??_C@_0BB@BKCAKBHM@W46_H20_Gwan?4bmp@
CONST	SEGMENT
??_C@_0BB@BKCAKBHM@W46_H20_Gwan?4bmp@ DB 'W46_H20_Gwan.bmp', 00H ; `string'
CONST	ENDS
;	COMDAT ??_C@_0CD@FDNKPKHG@Can?5not?5Find?5W46_H20_Gwan?4bmp?5f@
CONST	SEGMENT
??_C@_0CD@FDNKPKHG@Can?5not?5Find?5W46_H20_Gwan?4bmp?5f@ DB 'Can not Find'
	DB	' W46_H20_Gwan.bmp file', 00H		; `string'
CONST	ENDS
;	COMDAT ??_C@_0M@ENGFONMI@W72_H20?4bmp@
CONST	SEGMENT
??_C@_0M@ENGFONMI@W72_H20?4bmp@ DB 'W72_H20.bmp', 00H	; `string'
CONST	ENDS
;	COMDAT ??_C@_0BO@MNCJFIAH@Can?5not?5Find?5W72_H20?4bmp?5file@
CONST	SEGMENT
??_C@_0BO@MNCJFIAH@Can?5not?5Find?5W72_H20?4bmp?5file@ DB 'Can not Find W'
	DB	'72_H20.bmp file', 00H			; `string'
CONST	ENDS
;	COMDAT ??_C@_0M@CCLMEMA@W58_H20?4bmp@
CONST	SEGMENT
??_C@_0M@CCLMEMA@W58_H20?4bmp@ DB 'W58_H20.bmp', 00H	; `string'
CONST	ENDS
;	COMDAT ??_C@_0BO@CBFFOMAH@Can?5not?5Find?5W58_H19?4bmp?5file@
CONST	SEGMENT
??_C@_0BO@CBFFOMAH@Can?5not?5Find?5W58_H19?4bmp?5file@ DB 'Can not Find W'
	DB	'58_H19.bmp file', 00H			; `string'
CONST	ENDS
;	COMDAT ??_C@_0M@DLEFOAPH@W43_H20?4bmp@
CONST	SEGMENT
??_C@_0M@DLEFOAPH@W43_H20?4bmp@ DB 'W43_H20.bmp', 00H	; `string'
CONST	ENDS
;	COMDAT ??_C@_0BO@FBMJNLGI@Can?5not?5Find?5W43_H19?4bmp?5file@
CONST	SEGMENT
??_C@_0BO@FBMJNLGI@Can?5not?5Find?5W43_H19?4bmp?5file@ DB 'Can not Find W'
	DB	'43_H19.bmp file', 00H			; `string'
CONST	ENDS
;	COMDAT ??_C@_0M@EDPJOMMP@W17_H20?4bmp@
CONST	SEGMENT
??_C@_0M@EDPJOMMP@W17_H20?4bmp@ DB 'W17_H20.bmp', 00H	; `string'
CONST	ENDS
;	COMDAT ??_C@_0BO@KNDPIPGI@Can?5not?5Find?5W17_H20?4bmp?5file@
CONST	SEGMENT
??_C@_0BO@KNDPIPGI@Can?5not?5Find?5W17_H20?4bmp?5file@ DB 'Can not Find W'
	DB	'17_H20.bmp file', 00H			; `string'
CONST	ENDS
;	COMDAT ??_C@_0M@GGNIHAEI@W28_H22?4bmp@
CONST	SEGMENT
??_C@_0M@GGNIHAEI@W28_H22?4bmp@ DB 'W28_H22.bmp', 00H	; `string'
CONST	ENDS
;	COMDAT ??_C@_0BO@IIBDEBMG@Can?5not?5Find?5W28_H22?4bmp?5file@
CONST	SEGMENT
??_C@_0BO@IIBDEBMG@Can?5not?5Find?5W28_H22?4bmp?5file@ DB 'Can not Find W'
	DB	'28_H22.bmp file', 00H			; `string'
CONST	ENDS
;	COMDAT ??_C@_0N@PCFFEEID@W151_H21?4bmp@
CONST	SEGMENT
??_C@_0N@PCFFEEID@W151_H21?4bmp@ DB 'W151_H21.bmp', 00H	; `string'
CONST	ENDS
;	COMDAT ??_C@_0BP@NNEIEDMB@Can?5not?5Find?5W151_H21?4bmp?5file@
CONST	SEGMENT
??_C@_0BP@NNEIEDMB@Can?5not?5Find?5W151_H21?4bmp?5file@ DB 'Can not Find '
	DB	'W151_H21.bmp file', 00H			; `string'
CONST	ENDS
;	COMDAT ??_C@_0M@BBPMIEDE@W50_H20?4bmp@
CONST	SEGMENT
??_C@_0M@BBPMIEDE@W50_H20?4bmp@ DB 'W50_H20.bmp', 00H	; `string'
CONST	ENDS
;	COMDAT ??_C@_0BO@OCAPMMPF@Can?5not?5Find?5W50_H20?4bmp?5file@
CONST	SEGMENT
??_C@_0BO@OCAPMMPF@Can?5not?5Find?5W50_H20?4bmp?5file@ DB 'Can not Find W'
	DB	'50_H20.bmp file', 00H			; `string'
CONST	ENDS
;	COMDAT ??_C@_0M@NNGMCLLD@W46_H20?4bmp@
CONST	SEGMENT
??_C@_0M@NNGMCLLD@W46_H20?4bmp@ DB 'W46_H20.bmp', 00H	; `string'
CONST	ENDS
;	COMDAT ??_C@_0BO@GOJNIJJG@Can?5not?5Find?5W46_H20?4bmp?5file@
CONST	SEGMENT
??_C@_0BO@GOJNIJJG@Can?5not?5Find?5W46_H20?4bmp?5file@ DB 'Can not Find W'
	DB	'46_H20.bmp file', 00H			; `string'
CONST	ENDS
;	COMDAT ??_C@_0BB@EMKPJCBG@W20_H20_Tool?4bmp@
CONST	SEGMENT
??_C@_0BB@EMKPJCBG@W20_H20_Tool?4bmp@ DB 'W20_H20_Tool.bmp', 00H ; `string'
CONST	ENDS
;	COMDAT ??_C@_0CD@GEEOGELK@Can?5not?5Find?5W20_H20_Tool?4bmp?5f@
CONST	SEGMENT
??_C@_0CD@GEEOGELK@Can?5not?5Find?5W20_H20_Tool?4bmp?5f@ DB 'Can not Find'
	DB	' W20_H20_Tool.bmp file', 00H		; `string'
CONST	ENDS
;	COMDAT ??_C@_0M@DIMHJBLH@W20_H20?4bmp@
CONST	SEGMENT
??_C@_0M@DIMHJBLH@W20_H20?4bmp@ DB 'W20_H20.bmp', 00H	; `string'
CONST	ENDS
;	COMDAT ??_C@_0BO@BPPGDEIA@Can?5not?5Find?5W20_H20?4bmp?5file@
CONST	SEGMENT
??_C@_0BO@BPPGDEIA@Can?5not?5Find?5W20_H20?4bmp?5file@ DB 'Can not Find W'
	DB	'20_H20.bmp file', 00H			; `string'
CONST	ENDS
;	COMDAT ??_C@_0M@CGCJLHNM@W15_H15?4bmp@
CONST	SEGMENT
??_C@_0M@CGCJLHNM@W15_H15?4bmp@ DB 'W15_H15.bmp', 00H	; `string'
CONST	ENDS
;	COMDAT ??_C@_0BO@DHAEAEL@Can?5not?5Find?5W15_H15?4bmp?5file@
CONST	SEGMENT
??_C@_0BO@DHAEAEL@Can?5not?5Find?5W15_H15?4bmp?5file@ DB 'Can not Find W1'
	DB	'5_H15.bmp file', 00H			; `string'
CONST	ENDS
;	COMDAT ??_C@_0BP@MCPCPKAO@?$LK?$LJ?$LB?b?$LI?$KG?5?$LN?C?$MA?$NL?G?R?5?A?$LO?$LI?q?$MA?L?5?$LO?x?$LN?$MA?$LE?O?$LE?Y?4@
CONST	SEGMENT
??_C@_0BP@MCPCPKAO@?$LK?$LJ?$LB?b?$LI?$KG?5?$LN?C?$MA?$NL?G?R?5?A?$LO?$LI?q?$MA?L?5?$LO?x?$LN?$MA?$LE?O?$LE?Y?4@ DB 0baH
	DB	0b9H, 0b1H, 0e2H, 0b8H, 0a6H, ' ', 0bdH, 0c3H, 0c0H, 0dbH, 0c7H
	DB	0d2H, ' ', 0c1H, 0beH, 0b8H, 0f1H, 0c0H, 0ccH, ' ', 0beH, 0f8H
	DB	0bdH, 0c0H, 0b4H, 0cfH, 0b4H, 0d9H, '.', 00H	; `string'
CONST	ENDS
;	COMDAT ??_C@_0BI@HFIPJANC@fnReplayDll_ChangeSpeed@
CONST	SEGMENT
??_C@_0BI@HFIPJANC@fnReplayDll_ChangeSpeed@ DB 'fnReplayDll_ChangeSpeed', 00H ; `string'
CONST	ENDS
;	COMDAT ??_C@_0BA@PDDFKCOP@fnReplayDll_Run@
CONST	SEGMENT
??_C@_0BA@PDDFKCOP@fnReplayDll_Run@ DB 'fnReplayDll_Run', 00H ; `string'
CONST	ENDS
;	COMDAT ??_C@_0BI@MNNAOLFK@fnReplayDll_SetInitInfo@
CONST	SEGMENT
??_C@_0BI@MNNAOLFK@fnReplayDll_SetInitInfo@ DB 'fnReplayDll_SetInitInfo', 00H ; `string'
CONST	ENDS
;	COMDAT ??_C@_0BD@JFILPKHB@fnReplayDll_Unload@
CONST	SEGMENT
??_C@_0BD@JFILPKHB@fnReplayDll_Unload@ DB 'fnReplayDll_Unload', 00H ; `string'
CONST	ENDS
;	COMDAT ??_C@_0BB@NKPPLNMN@fnReplayDll_Load@
CONST	SEGMENT
??_C@_0BB@NKPPLNMN@fnReplayDll_Load@ DB 'fnReplayDll_Load', 00H ; `string'
CONST	ENDS
;	COMDAT ??_C@_0BF@FBAAFENH@?2Dev?2ReplayChart?4dll@
CONST	SEGMENT
??_C@_0BF@FBAAFENH@?2Dev?2ReplayChart?4dll@ DB '\Dev\ReplayChart.dll', 00H ; `string'
CONST	ENDS
;	COMDAT ??_C@_0O@MFKBBNGA@?A?$LO?$LI?q?D?Z?$LF?e?5?$LA?x?$MA?$KP@
CONST	SEGMENT
??_C@_0O@MFKBBNGA@?A?$LO?$LI?q?D?Z?$LF?e?5?$LA?x?$MA?$KP@ DB 0c1H, 0beH, 0b8H
	DB	0f1H, 0c4H, 0daH, 0b5H, 0e5H, ' ', 0b0H, 0f8H, 0c0H, 0afH, 00H ; `string'
CONST	ENDS
;	COMDAT ??_C@_08NICNPAA@?A?$LO?$LI?q?D?Z?$LF?e@
CONST	SEGMENT
??_C@_08NICNPAA@?A?$LO?$LI?q?D?Z?$LF?e@ DB 0c1H, 0beH, 0b8H, 0f1H, 0c4H, 0daH
	DB	0b5H, 0e5H, 00H				; `string'
CONST	ENDS
;	COMDAT ??_C@_01IPJKGB@?$CD@
CONST	SEGMENT
??_C@_01IPJKGB@?$CD@ DB '#', 00H			; `string'
CONST	ENDS
;	COMDAT ??_C@_0N@OEIEJIIE@FromSTCenter@
CONST	SEGMENT
??_C@_0N@OEIEJIIE@FromSTCenter@ DB 'FromSTCenter', 00H	; `string'
CONST	ENDS
;	COMDAT ??_C@_02MEPHBMOK@?F?$LN@
CONST	SEGMENT
??_C@_02MEPHBMOK@?F?$LN@ DB 0c6H, 0bdH, 00H		; `string'
CONST	ENDS
;	COMDAT ??_C@_02EJEPJIDE@?$LK?P@
CONST	SEGMENT
??_C@_02EJEPJIDE@?$LK?P@ DB 0baH, 0d0H, 00H		; `string'
CONST	ENDS
;	COMDAT ??_C@_02NNHDHLCM@?$MA?O@
CONST	SEGMENT
??_C@_02NNHDHLCM@?$MA?O@ DB 0c0H, 0cfH, 00H		; `string'
CONST	ENDS
;	COMDAT ??_C@_02EHLBLIAD@?A?V@
CONST	SEGMENT
??_C@_02EHLBLIAD@?A?V@ DB 0c1H, 0d6H, 00H		; `string'
CONST	ENDS
;	COMDAT ??_C@_02LMCMFDE@?$LP?y@
CONST	SEGMENT
??_C@_02LMCMFDE@?$LP?y@ DB 0bfH, 0f9H, 00H		; `string'
CONST	ENDS
;	COMDAT ??_C@_05OGILEIOE@?$CF?$CK?4?$CKd@
CONST	SEGMENT
??_C@_05OGILEIOE@?$CF?$CK?4?$CKd@ DB '%*.*d', 00H	; `string'
CONST	ENDS
;	COMDAT ??_C@_05EJONIJCJ@?$CF?916d@
CONST	SEGMENT
??_C@_05EJONIJCJ@?$CF?916d@ DB '%-16d', 00H		; `string'
CONST	ENDS
;	COMDAT ??_C@_04OCCELDNI@?$CF04d@
CONST	SEGMENT
??_C@_04OCCELDNI@?$CF04d@ DB '%04d', 00H		; `string'
CONST	ENDS
;	COMDAT ??_C@_05EIODHBAN@?$CF?910s@
CONST	SEGMENT
??_C@_05EIODHBAN@?$CF?910s@ DB '%-10s', 00H		; `string'
CONST	ENDS
;	COMDAT ??_C@_0L@IDCHGHGK@USDKRWCOMP@
CONST	SEGMENT
??_C@_0L@IDCHGHGK@USDKRWCOMP@ DB 'USDKRWCOMP', 00H	; `string'
CONST	ENDS
;	COMDAT ??_C@_03JOOLLLO@?$CFs?2@
CONST	SEGMENT
??_C@_03JOOLLLO@?$CFs?2@ DB '%s\', 00H			; `string'
CONST	ENDS
;	COMDAT ??_C@_0BE@DKIADLCN@?2Icss?2Image?2drchart@
CONST	SEGMENT
??_C@_0BE@DKIADLCN@?2Icss?2Image?2drchart@ DB '\Icss\Image\drchart', 00H ; `string'
CONST	ENDS
;	COMDAT ??_C@_06DJNEHHKG@?2Chart@
CONST	SEGMENT
??_C@_06DJNEHHKG@?2Chart@ DB '\Chart', 00H		; `string'
CONST	ENDS
;	COMDAT ??_C@_0BN@PKJBEBII@RootPath?$LI?$KG?5?$LO?r?$MA?$LL?5?$LM?v?5?$LO?x?$LN?$MA?$LE?O?$LE?Y?4@
CONST	SEGMENT
??_C@_0BN@PKJBEBII@RootPath?$LI?$KG?5?$LO?r?$MA?$LL?5?$LM?v?5?$LO?x?$LN?$MA?$LE?O?$LE?Y?4@ DB 'R'
	DB	'ootPath', 0b8H, 0a6H, ' ', 0beH, 0f2H, 0c0H, 0bbH, ' ', 0bcH, 0f6H
	DB	' ', 0beH, 0f8H, 0bdH, 0c0H, 0b4H, 0cfH, 0b4H, 0d9H, '.', 00H ; `string'
CONST	ENDS
;	COMDAT ??_C@_0BD@CMCCCNBF@HANAROIGATEMANAGER@
CONST	SEGMENT
??_C@_0BD@CMCCCNBF@HANAROIGATEMANAGER@ DB 'HANAROIGATEMANAGER', 00H ; `string'
CONST	ENDS
;	COMDAT ??_C@_0CO@NCNOFENK@Dim?5szText?0?5szValue?6szText?$DN?$CC?$CFs?$CC@
CONST	SEGMENT
??_C@_0CO@NCNOFENK@Dim?5szText?0?5szValue?6szText?$DN?$CC?$CFs?$CC@ DB 'D'
	DB	'im szText, szValue', 0aH, 'szText="%s"', 0aH, 'szValue="%s"', 0aH
	DB	00H						; `string'
CONST	ENDS
;	COMDAT ??_C@_0N@IBGMGKGO@LOCAL_RESIZE@
CONST	SEGMENT
??_C@_0N@IBGMGKGO@LOCAL_RESIZE@ DB 'LOCAL_RESIZE', 00H	; `string'
CONST	ENDS
;	COMDAT ??_C@_06IJEBOOKN@?$CFd?0?$CFd?0@
CONST	SEGMENT
??_C@_06IJEBOOKN@?$CFd?0?$CFd?0@ DB '%d,%d,', 00H	; `string'
CONST	ENDS
;	COMDAT ??_C@_0DI@GFEPOCJ@?$LF?$KF?$MA?L?E?$LI?5?$LM?v?$LN?E?$MA?L?5?A?v?$LP?$KM?$LF?G?$LA?m?5?$MA?V?$LN?$MA?$LE?O?$LE?Y@
CONST	SEGMENT
??_C@_0DI@GFEPOCJ@?$LF?$KF?$MA?L?E?$LI?5?$LM?v?$LN?E?$MA?L?5?A?v?$LP?$KM?$LF?G?$LA?m?5?$MA?V?$LN?$MA?$LE?O?$LE?Y@ DB 0b5H
	DB	0a5H, 0c0H, 0ccH, 0c5H, 0b8H, ' ', 0bcH, 0f6H, 0bdH, 0c5H, 0c0H
	DB	0ccH, ' ', 0c1H, 0f6H, 0bfH, 0acH, 0b5H, 0c7H, 0b0H, 0edH, ' ', 0c0H
	DB	0d6H, 0bdH, 0c0H, 0b4H, 0cfH, 0b4H, 0d9H, '.', 0c8H, 0adH, 0b8H
	DB	0e9H, 0c0H, 0bbH, ' ', 0c0H, 0e7H, 0bdH, 0c7H, 0c7H, 0e0H, 0c7H
	DB	0d8H, ' ', 0c1H, 0d6H, 0bcH, 0bcH, 0bfH, 0e4H, '.', 00H ; `string'
CONST	ENDS
;	COMDAT ??_C@_08GDLAKCMM@?A?$LO?$LI?q?$LO?F?$LE?T@
CONST	SEGMENT
??_C@_08GDLAKCMM@?A?$LO?$LI?q?$LO?F?$LE?T@ DB 0c1H, 0beH, 0b8H, 0f1H, 0beH
	DB	0c6H, 0b4H, 0d4H, 00H			; `string'
CONST	ENDS
;	COMDAT ??_C@_0CI@BHEKEHLC@?$AN?6?$FLCStdDialog?3?3OnSize?$FN?5m_strCon@
CONST	SEGMENT
??_C@_0CI@BHEKEHLC@?$AN?6?$FLCStdDialog?3?3OnSize?$FN?5m_strCon@ DB 0dH, 0aH
	DB	'[CStdDialog::OnSize] m_strConfig=%s', 0dH, 0aH, 00H ; `string'
CONST	ENDS
;	COMDAT ??_C@_08HIHDIOFE@10599999@
CONST	SEGMENT
??_C@_08HIHDIOFE@10599999@ DB '10599999', 00H		; `string'
CONST	ENDS
;	COMDAT ??_C@_08BLEEFNBD@99999999@
CONST	SEGMENT
??_C@_08BLEEFNBD@99999999@ DB '99999999', 00H		; `string'
CONST	ENDS
;	COMDAT ??_C@_09POEKPOBJ@OldFuture@
CONST	SEGMENT
??_C@_09POEKPOBJ@OldFuture@ DB 'OldFuture', 00H		; `string'
CONST	ENDS
;	COMDAT ??_C@_05CCMOGDN@?$CFs?3?$CFs@
CONST	SEGMENT
??_C@_05CCMOGDN@?$CFs?3?$CFs@ DB '%s:%s', 00H		; `string'
CONST	ENDS
;	COMDAT ??_C@_04MBICOLOB@FOJS@
CONST	SEGMENT
??_C@_04MBICOLOB@FOJS@ DB 'FOJS', 00H			; `string'
CONST	ENDS
;	COMDAT ??_C@_04OJOAECLD@GTFJ@
CONST	SEGMENT
??_C@_04OJOAECLD@GTFJ@ DB 'GTFJ', 00H			; `string'
CONST	ENDS
;	COMDAT ??_C@_04HJAFHKIM@HWFJ@
CONST	SEGMENT
??_C@_04HJAFHKIM@HWFJ@ DB 'HWFJ', 00H			; `string'
CONST	ENDS
;	COMDAT ??_C@_04EFHDAFAL@JOC0@
CONST	SEGMENT
??_C@_04EFHDAFAL@JOC0@ DB 'JOC0', 00H			; `string'
CONST	ENDS
;	COMDAT ??_C@_04DIHLEKIB@JFC0@
CONST	SEGMENT
??_C@_04DIHLEKIB@JFC0@ DB 'JFC0', 00H			; `string'
CONST	ENDS
;	COMDAT ??_C@_04INJDIKHL@OOC0@
CONST	SEGMENT
??_C@_04INJDIKHL@OOC0@ DB 'OOC0', 00H			; `string'
CONST	ENDS
;	COMDAT ??_C@_04PNILKHIA@FFC0@
CONST	SEGMENT
??_C@_04PNILKHIA@FFC0@ DB 'FFC0', 00H			; `string'
CONST	ENDS
;	COMDAT ??_C@_04BHFKAEFH@IXIJ@
CONST	SEGMENT
??_C@_04BHFKAEFH@IXIJ@ DB 'IXIJ', 00H			; `string'
CONST	ENDS
;	COMDAT ??_C@_04FNMIFLPJ@EWs3@
CONST	SEGMENT
??_C@_04FNMIFLPJ@EWs3@ DB 'EWs3', 00H			; `string'
CONST	ENDS
;	COMDAT ??_C@_01NBENCBCI@?$CK@
CONST	SEGMENT
??_C@_01NBENCBCI@?$CK@ DB '*', 00H			; `string'
CONST	ENDS
;	COMDAT ??_C@_04ICNGLDCO@KXS3@
CONST	SEGMENT
??_C@_04ICNGLDCO@KXS3@ DB 'KXS3', 00H			; `string'
CONST	ENDS
;	COMDAT ??_C@_04EBNJJJJI@?$CF?4?$CKs@
CONST	SEGMENT
??_C@_04EBNJJJJI@?$CF?4?$CKs@ DB '%.*s', 00H		; `string'
CONST	ENDS
;	COMDAT ??_C@_0N@BAKLNJEL@IPartnerSite@
CONST	SEGMENT
??_C@_0N@BAKLNJEL@IPartnerSite@ DB 'IPartnerSite', 00H	; `string'
CONST	ENDS
;	COMDAT ??_C@_0L@DIKICJIA@SCREENCODE@
CONST	SEGMENT
??_C@_0L@DIKICJIA@SCREENCODE@ DB 'SCREENCODE', 00H	; `string'
CONST	ENDS
;	COMDAT ??_C@_09PEDPPOKH@PtManager@
CONST	SEGMENT
??_C@_09PEDPPOKH@PtManager@ DB 'PtManager', 00H		; `string'
CONST	ENDS
;	COMDAT ??_C@_0BK@IJCPIMLO@CStdDialog?3?3Send2Server?$CI?$CJ@
CONST	SEGMENT
??_C@_0BK@IJCPIMLO@CStdDialog?3?3Send2Server?$CI?$CJ@ DB 'CStdDialog::Sen'
	DB	'd2Server()', 00H				; `string'
CONST	ENDS
;	COMDAT ??_C@_0BB@LBDPAEMK@?$LB?b?$LA?$PM?$LE?$KJ?$MA?$PL?$LA?E?$LH?$KB?C?$NP?$MA?L@
CONST	SEGMENT
??_C@_0BB@LBDPAEMK@?$LB?b?$LA?$PM?$LE?$KJ?$MA?$PL?$LA?E?$LH?$KB?C?$NP?$MA?L@ DB 0b1H
	DB	0e2H, 0b0H, 0fcH, 0b4H, 0a9H, 0c0H, 0fbH, 0b0H, 0c5H, 0b7H, 0a1H
	DB	0c3H, 0dfH, 0c0H, 0ccH, 00H			; `string'
CONST	ENDS
;	COMDAT ??_C@_0BG@CFAENPOE@?G?X?$LE?g?5?$MA?Z?$LH?a?$LA?$KB?5?$LO?x?$LN?$MA?$LE?O?$LE?Y?4@
CONST	SEGMENT
??_C@_0BG@CFAENPOE@?G?X?$LE?g?5?$MA?Z?$LH?a?$LA?$KB?5?$LO?x?$LN?$MA?$LE?O?$LE?Y?4@ DB 0c7H
	DB	0d8H, 0b4H, 0e7H, ' ', 0c0H, 0daH, 0b7H, 0e1H, 0b0H, 0a1H, ' ', 0beH
	DB	0f8H, 0bdH, 0c0H, 0b4H, 0cfH, 0b4H, 0d9H, '.', 00H ; `string'
CONST	ENDS
;	COMDAT ??_C@_05GJGEDGEA@99999@
CONST	SEGMENT
??_C@_05GJGEDGEA@99999@ DB '99999', 00H			; `string'
CONST	ENDS
;	COMDAT ??_C@_05BFCIHJJJ@80001@
CONST	SEGMENT
??_C@_05BFCIHJJJ@80001@ DB '80001', 00H			; `string'
CONST	ENDS
;	COMDAT ??_C@_07HJJFMMKH@?$FL?$CFs?$FN?$CFs?6@
CONST	SEGMENT
??_C@_07HJJFMMKH@?$FL?$CFs?$FN?$CFs?6@ DB '[%s]%s', 0aH, 00H ; `string'
CONST	ENDS
;	COMDAT ??_C@_05BLCJFHBI@a4018@
CONST	SEGMENT
??_C@_05BLCJFHBI@a4018@ DB 'a4018', 00H			; `string'
CONST	ENDS
;	COMDAT ??_C@_05JMLBELNH@a4017@
CONST	SEGMENT
??_C@_05JMLBELNH@a4017@ DB 'a4017', 00H			; `string'
CONST	ENDS
;	COMDAT ??_C@_08KFOOADEE@pijs0112@
CONST	SEGMENT
??_C@_08KFOOADEE@pijs0112@ DB 'pijs0112', 00H		; `string'
CONST	ENDS
;	COMDAT ??_C@_08IOMDFAIH@pijs0111@
CONST	SEGMENT
??_C@_08IOMDFAIH@pijs0111@ DB 'pijs0111', 00H		; `string'
CONST	ENDS
;	COMDAT ??_C@_05BNIHGEFF@d1016@
CONST	SEGMENT
??_C@_05BNIHGEFF@d1016@ DB 'd1016', 00H			; `string'
CONST	ENDS
;	COMDAT ??_C@_05EJMFFBE@d1017@
CONST	SEGMENT
??_C@_05EJMFFBE@d1017@ DB 'd1017', 00H			; `string'
CONST	ENDS
;	COMDAT ??_C@_0L@LCJFIPAK@SYMBOLDATA@
CONST	SEGMENT
??_C@_0L@LCJFIPAK@SYMBOLDATA@ DB 'SYMBOLDATA', 00H	; `string'
CONST	ENDS
;	COMDAT ??_C@_0DA@FCFKCKCE@Error?5CStdDialog?3?3ReceiveData?5?$LP@
CONST	SEGMENT
??_C@_0DA@FCFKCKCE@Error?5CStdDialog?3?3ReceiveData?5?$LP@ DB 'Error CStd'
	DB	'Dialog::ReceiveData ', 0bfH, 0a1H, 0bcH, 0adH, ' ', 0beH, 0cbH
	DB	0bcH, 0f6H, ' ', 0beH, 0f8H, 0b4H, 0c2H, ' TR', 00H ; `string'
CONST	ENDS
;	COMDAT ??_C@_07KDMMOILP@d1012_1@
CONST	SEGMENT
??_C@_07KDMMOILP@d1012_1@ DB 'd1012_1', 00H		; `string'
CONST	ENDS
;	COMDAT ??_C@_0BK@INPONLN@CStdDialog?3?3ReceiveData?$CI?$CJ@
CONST	SEGMENT
??_C@_0BK@INPONLN@CStdDialog?3?3ReceiveData?$CI?$CJ@ DB 'CStdDialog::Rece'
	DB	'iveData()', 00H				; `string'
CONST	ENDS
;	COMDAT ??_C@_06MANHAJBA@?$CF?9400s@
CONST	SEGMENT
??_C@_06MANHAJBA@?$CF?9400s@ DB '%-400s', 00H		; `string'
CONST	ENDS
;	COMDAT ??_C@_05DGKKDHJG@d1015@
CONST	SEGMENT
??_C@_05DGKKDHJG@d1015@ DB 'd1015', 00H			; `string'
CONST	ENDS
;	COMDAT ??_C@_05GFCMPLNO@c1002@
CONST	SEGMENT
??_C@_05GFCMPLNO@c1002@ DB 'c1002', 00H			; `string'
CONST	ENDS
;	COMDAT ??_C@_05IDAEEJNL@d1018@
CONST	SEGMENT
??_C@_05IDAEEJNL@d1018@ DB 'd1018', 00H			; `string'
CONST	ENDS
;	COMDAT ??_C@_01JOAMLHOP@?9@
CONST	SEGMENT
??_C@_01JOAMLHOP@?9@ DB '-', 00H			; `string'
CONST	ENDS
;	COMDAT ??_C@_01CLKCMJKC@?5@
CONST	SEGMENT
??_C@_01CLKCMJKC@?5@ DB ' ', 00H			; `string'
CONST	ENDS
;	COMDAT ??_C@_06MFLEHPOG@?$CF10?42f@
CONST	SEGMENT
??_C@_06MFLEHPOG@?$CF10?42f@ DB '%10.2f', 00H		; `string'
CONST	ENDS
;	COMDAT ??_C@_03NFLNALCB@000@
CONST	SEGMENT
??_C@_03NFLNALCB@000@ DB '000', 00H			; `string'
CONST	ENDS
;	COMDAT ??_C@_08LFLAPLBK@?F?$KP?$LM?v?A?v?G?$KF@
CONST	SEGMENT
??_C@_08LFLAPLBK@?F?$KP?$LM?v?A?v?G?$KF@ DB 0c6H, 0afH, 0bcH, 0f6H, 0c1H, 0f6H
	DB	0c7H, 0a5H, 00H				; `string'
CONST	ENDS
;	COMDAT ??_C@_08EAHEJGOH@?E?x?$LJ?Y?C?$OA?$LM?R@
CONST	SEGMENT
??_C@_08EAHEJGOH@?E?x?$LJ?Y?C?$OA?$LM?R@ DB 0c5H, 0f8H, 0b9H, 0d9H, 0c3H, 0e0H
	DB	0bcH, 0d2H, 00H				; `string'
CONST	ENDS
;	COMDAT ??_C@_0FJ@LLNFAMBB@?$LN?C?$LN?$LK?E?$NL?$LI?$KO?$LM?R?$LN?$LK?$LA?$KB?5?$LK?N?A?$LH?G?O?$LP?$KJ?5?H?$KN?$LI?i?$MA?$LL?5@
CONST	SEGMENT
??_C@_0FJ@LLNFAMBB@?$LN?C?$LN?$LK?E?$NL?$LI?$KO?$LM?R?$LN?$LK?$LA?$KB?5?$LK?N?A?$LH?G?O?$LP?$KJ?5?H?$KN?$LI?i?$MA?$LL?5@ DB 0bdH
	DB	0c3H, 0bdH, 0baH, 0c5H, 0dbH, 0b8H, 0aeH, 0bcH, 0d2H, 0bdH, 0baH
	DB	0b0H, 0a1H, ' ', 0baH, 0ceH, 0c1H, 0b7H, 0c7H, 0cfH, 0bfH, 0a9H
	DB	' ', 0c8H, 0adH, 0b8H, 0e9H, 0c0H, 0bbH, ' ', 0b6H, 0e7H, 0bfH
	DB	0efH, ' ', 0bcH, 0f6H, ' ', 0beH, 0f8H, 0bdH, 0c0H, 0b4H, 0cfH
	DB	0b4H, 0d9H, '. ', 0b4H, 0d9H, 0b8H, 0a5H, ' ', 0c8H, 0adH, 0b8H
	DB	0e9H, 0c0H, 0bbH, ' ', 0c1H, 0beH, 0b7H, 0e1H, 0c7H, 0cfH, 0b0H
	DB	0edH, ' ', 0bdH, 0c7H, 0c7H, 0e0H, 0c7H, 0cfH, 0bfH, 0a9H, ' ', 0c1H
	DB	0d6H, 0bdH, 0caH, 0bdH, 0c3H, 0bfH, 0c0H, '.', 00H ; `string'
CONST	ENDS
;	COMDAT ??_C@_08EMPIFEPK@?E?x?$LJ?Y?H?$KO?$LE?k@
CONST	SEGMENT
??_C@_08EMPIFEPK@?E?x?$LJ?Y?H?$KO?$LE?k@ DB 0c5H, 0f8H, 0b9H, 0d9H, 0c8H, 0aeH
	DB	0b4H, 0ebH, 00H				; `string'
CONST	ENDS
;	COMDAT ??_C@_0M@PNAFPLNG@ShowToolBar@
CONST	SEGMENT
??_C@_0M@PNAFPLNG@ShowToolBar@ DB 'ShowToolBar', 00H	; `string'
CONST	ENDS
;	COMDAT ??_C@_0BD@MCKIPHBO@ShowExtInputBarDlg@
CONST	SEGMENT
??_C@_0BD@MCKIPHBO@ShowExtInputBarDlg@ DB 'ShowExtInputBarDlg', 00H ; `string'
CONST	ENDS
;	COMDAT ??_C@_0M@IBLEADIN@ShowLeftBar@
CONST	SEGMENT
??_C@_0M@IBLEADIN@ShowLeftBar@ DB 'ShowLeftBar', 00H	; `string'
CONST	ENDS
;	COMDAT ??_C@_05MPDBFDHF@Frame@
CONST	SEGMENT
??_C@_05MPDBFDHF@Frame@ DB 'Frame', 00H			; `string'
CONST	ENDS
;	COMDAT ??_C@_0N@EBGACMBB@UseCycleSave@
CONST	SEGMENT
??_C@_0N@EBGACMBB@UseCycleSave@ DB 'UseCycleSave', 00H	; `string'
CONST	ENDS
;	COMDAT ??_C@_0CK@FPGDBEPE@?$AN?6?$FLCStdDialog?3?3FormLoad?$FN?5m_strC@
CONST	SEGMENT
??_C@_0CK@FPGDBEPE@?$AN?6?$FLCStdDialog?3?3FormLoad?$FN?5m_strC@ DB 0dH, 0aH
	DB	'[CStdDialog::FormLoad] m_strConfig=%s', 0dH, 0aH, 00H ; `string'
CONST	ENDS
;	COMDAT ??_C@_0DF@NHJDMLKK@?$AN?6?$FLCStdDialog?3?3ChangeMiniStockM@
CONST	SEGMENT
??_C@_0DF@NHJDMLKK@?$AN?6?$FLCStdDialog?3?3ChangeMiniStockM@ DB 0dH, 0aH, '['
	DB	'CStdDialog::ChangeMiniStockMode] m_strConfig=%s', 0dH, 0aH, 00H ; `string'
CONST	ENDS
;	COMDAT ??_C@_01IDAFKMJL@_@
CONST	SEGMENT
??_C@_01IDAFKMJL@_@ DB '_', 00H				; `string'
CONST	ENDS
;	COMDAT ??_C@_0O@MDBAJMMH@ChartInfo?4dat@
CONST	SEGMENT
??_C@_0O@MDBAJMMH@ChartInfo?4dat@ DB 'ChartInfo.dat', 00H ; `string'
CONST	ENDS
;	COMDAT ??_C@_0BB@OPPGABOC@?$LL?s?G?$LA?$LM?$LB?$LJ?$LA?A?$LO?G?U?B?w?F?$KO@
CONST	SEGMENT
??_C@_0BB@OPPGABOC@?$LL?s?G?$LA?$LM?$LB?$LJ?$LA?A?$LO?G?U?B?w?F?$KO@ DB 0bbH
	DB	0f3H, 0c7H, 0b0H, 0bcH, 0b1H, 0b9H, 0b0H, 0c1H, 0beH, 0c7H, 0d5H
	DB	0c2H, 0f7H, 0c6H, 0aeH, 00H			; `string'
CONST	ENDS
;	COMDAT ??_C@_04OFNDLOKB@7115@
CONST	SEGMENT
??_C@_04OFNDLOKB@7115@ DB '7115', 00H			; `string'
CONST	ENDS
;	COMDAT ??_C@_0N@KANKAMGG@?G?X?$LP?$NM?A?u?$LN?C?B?w?F?$KO@
CONST	SEGMENT
??_C@_0N@KANKAMGG@?G?X?$LP?$NM?A?u?$LN?C?B?w?F?$KO@ DB 0c7H, 0d8H, 0bfH, 0dcH
	DB	0c1H, 0f5H, 0bdH, 0c3H, 0c2H, 0f7H, 0c6H, 0aeH, 00H ; `string'
CONST	ENDS
;	COMDAT ??_C@_04MOPOONGC@7116@
CONST	SEGMENT
??_C@_04MOPOONGC@7116@ DB '7116', 00H			; `string'
CONST	ENDS
;	COMDAT ??_C@_0BB@EGJICNEH@?A?V?$LN?D?$LM?$LB?$LJ?$LA?A?$LO?G?U?B?w?F?$KO@
CONST	SEGMENT
??_C@_0BB@EGJICNEH@?A?V?$LN?D?$LM?$LB?$LJ?$LA?A?$LO?G?U?B?w?F?$KO@ DB 0c1H
	DB	0d6H, 0bdH, 0c4H, 0bcH, 0b1H, 0b9H, 0b0H, 0c1H, 0beH, 0c7H, 0d5H
	DB	0c2H, 0f7H, 0c6H, 0aeH, 00H			; `string'
CONST	ENDS
;	COMDAT ??_C@_04FDPJBEIC@7138@
CONST	SEGMENT
??_C@_04FDPJBEIC@7138@ DB '7138', 00H			; `string'
CONST	ENDS
;	COMDAT ??_C@_0N@GAPLGDCM@?$LM?$LB?$LP?I?A?$LO?G?U?B?w?F?$KO@
CONST	SEGMENT
??_C@_0N@GAPLGDCM@?$LM?$LB?$LP?I?A?$LO?G?U?B?w?F?$KO@ DB 0bcH, 0b1H, 0bfH
	DB	0c9H, 0c1H, 0beH, 0c7H, 0d5H, 0c2H, 0f7H, 0c6H, 0aeH, 00H ; `string'
CONST	ENDS
;	COMDAT ??_C@_0N@GHDICDGD@?$LO?w?A?$LO?A?$LO?G?U?B?w?F?$KO@
CONST	SEGMENT
??_C@_0N@GHDICDGD@?$LO?w?A?$LO?A?$LO?G?U?B?w?F?$KO@ DB 0beH, 0f7H, 0c1H, 0beH
	DB	0c1H, 0beH, 0c7H, 0d5H, 0c2H, 0f7H, 0c6H, 0aeH, 00H ; `string'
CONST	ENDS
;	COMDAT ??_C@_04LDIJBJCH@7113@
CONST	SEGMENT
??_C@_04LDIJBJCH@7113@ DB '7113', 00H			; `string'
CONST	ENDS
;	COMDAT ??_C@_0N@GMHLMICA@?A?V?$LN?D?A?$LO?G?U?B?w?F?$KO@
CONST	SEGMENT
??_C@_0N@GMHLMICA@?A?V?$LN?D?A?$LO?G?U?B?w?F?$KO@ DB 0c1H, 0d6H, 0bdH, 0c4H
	DB	0c1H, 0beH, 0c7H, 0d5H, 0c2H, 0f7H, 0c6H, 0aeH, 00H ; `string'
CONST	ENDS
;	COMDAT ??_C@_04KKJCCIGG@7112@
CONST	SEGMENT
??_C@_04KKJCCIGG@7112@ DB '7112', 00H			; `string'
CONST	ENDS
;	COMDAT ??_C@_0BB@DFDFBNIJ@?$LL?s?G?$LA?$LM?$LB?$LJ?$LA?$LJ?L?$LE?O?B?w?F?$KO@
CONST	SEGMENT
??_C@_0BB@DFDFBNIJ@?$LL?s?G?$LA?$LM?$LB?$LJ?$LA?$LJ?L?$LE?O?B?w?F?$KO@ DB 0bbH
	DB	0f3H, 0c7H, 0b0H, 0bcH, 0b1H, 0b9H, 0b0H, 0b9H, 0ccH, 0b4H, 0cfH
	DB	0c2H, 0f7H, 0c6H, 0aeH, 00H			; `string'
CONST	ENDS
;	COMDAT ??_C@_04KINEJGDP@7122@
CONST	SEGMENT
??_C@_04KINEJGDP@7122@ DB '7122', 00H			; `string'
CONST	ENDS
;	COMDAT ??_C@_08LCDOJHCP@?$MA?$PM?$LH?$KL?B?w?F?$KO@
CONST	SEGMENT
??_C@_08LCDOJHCP@?$MA?$PM?$LH?$KL?B?w?F?$KO@ DB 0c0H, 0fcH, 0b7H, 0abH, 0c2H
	DB	0f7H, 0c6H, 0aeH, 00H			; `string'
CONST	ENDS
;	COMDAT ??_C@_04MMLIFDDL@7126@
CONST	SEGMENT
??_C@_04MMLIFDDL@7126@ DB '7126', 00H			; `string'
CONST	ENDS
;	COMDAT ??_C@_04GMPNOBJM@0508@
CONST	SEGMENT
??_C@_04GMPNOBJM@0508@ DB '0508', 00H			; `string'
CONST	ENDS
;	COMDAT ??_C@_0N@JKFBMNKE@?$LJ?L?$LE?O?$LM?$LB?$LP?I?B?w?F?$KO@
CONST	SEGMENT
??_C@_0N@JKFBMNKE@?$LJ?L?$LE?O?$LM?$LB?$LP?I?B?w?F?$KO@ DB 0b9H, 0ccH, 0b4H
	DB	0cfH, 0bcH, 0b1H, 0bfH, 0c9H, 0c2H, 0f7H, 0c6H, 0aeH, 00H ; `string'
CONST	ENDS
;	COMDAT ??_C@_04IDPJMFPM@7121@
CONST	SEGMENT
??_C@_04IDPJMFPM@7121@ DB '7121', 00H			; `string'
CONST	ENDS
;	COMDAT ??_C@_0N@PBCFLIEH@?$LJ?L?$LE?O?$LO?w?A?$LO?B?w?F?$KO@
CONST	SEGMENT
??_C@_0N@PBCFLIEH@?$LJ?L?$LE?O?$LO?w?A?$LO?B?w?F?$KO@ DB 0b9H, 0ccH, 0b4H
	DB	0cfH, 0beH, 0f7H, 0c1H, 0beH, 0c2H, 0f7H, 0c6H, 0aeH, 00H ; `string'
CONST	ENDS
;	COMDAT ??_C@_04JKOCPELN@7120@
CONST	SEGMENT
??_C@_04JKOCPELN@7120@ DB '7120', 00H			; `string'
CONST	ENDS
;	COMDAT ??_C@_0L@EAGIGABK@?$LJ?L?$LE?O?F?$LN?B?w?F?$KO@
CONST	SEGMENT
??_C@_0L@EAGIGABK@?$LJ?L?$LE?O?F?$LN?B?w?F?$KO@ DB 0b9H, 0ccH, 0b4H, 0cfH
	DB	0c6H, 0bdH, 0c2H, 0f7H, 0c6H, 0aeH, 00H	; `string'
CONST	ENDS
;	COMDAT ??_C@_04EJGGPBKN@7119@
CONST	SEGMENT
??_C@_04EJGGPBKN@7119@ DB '7119', 00H			; `string'
CONST	ENDS
;	COMDAT ??_C@_0N@LDEELCPM@?$LI?V?F?$LM?$LJ?L?$LE?O?B?w?F?$KO@
CONST	SEGMENT
??_C@_0N@LDEELCPM@?$LI?V?F?$LM?$LJ?L?$LE?O?B?w?F?$KO@ DB 0b8H, 0d6H, 0c6H
	DB	0bcH, 0b9H, 0ccH, 0b4H, 0cfH, 0c2H, 0f7H, 0c6H, 0aeH, 00H ; `string'
CONST	ENDS
;	COMDAT ??_C@_04FAHNMAOM@7118@
CONST	SEGMENT
??_C@_04FAHNMAOM@7118@ DB '7118', 00H			; `string'
CONST	ENDS
;	COMDAT ??_C@_0N@LGLINEEL@?A?V?$LN?D?$LJ?L?$LE?O?B?w?F?$KO@
CONST	SEGMENT
??_C@_0N@LGLINEEL@?A?V?$LN?D?$LJ?L?$LE?O?B?w?F?$KO@ DB 0c1H, 0d6H, 0bdH, 0c4H
	DB	0b9H, 0ccH, 0b4H, 0cfH, 0c2H, 0f7H, 0c6H, 0aeH, 00H ; `string'
CONST	ENDS
;	COMDAT ??_C@_04NHOFNMCD@7117@
CONST	SEGMENT
??_C@_04NHOFNMCD@7117@ DB '7117', 00H			; `string'
CONST	ENDS
;	COMDAT ??_C@_0L@BKMJMGHH@?$MA?O?A?V?$LP?y?B?w?F?$KO@
CONST	SEGMENT
??_C@_0L@BKMJMGHH@?$MA?O?A?V?$LP?y?B?w?F?$KO@ DB 0c0H, 0cfH, 0c1H, 0d6H, 0bfH
	DB	0f9H, 0c2H, 0f7H, 0c6H, 0aeH, 00H		; `string'
CONST	ENDS
;	COMDAT ??_C@_04OHJFAAPI@7125@
CONST	SEGMENT
??_C@_04OHJFAAPI@7125@ DB '7125', 00H			; `string'
CONST	ENDS
;	COMDAT ??_C@_08BDLNPKGG@?A?$LO?G?U?B?w?F?$KO@
CONST	SEGMENT
??_C@_08BDLNPKGG@?A?$LO?G?U?B?w?F?$KO@ DB 0c1H, 0beH, 0c7H, 0d5H, 0c2H, 0f7H
	DB	0c6H, 0aeH, 00H				; `string'
CONST	ENDS
;	COMDAT ??_C@_04IBLPHLKF@7111@
CONST	SEGMENT
??_C@_04IBLPHLKF@7111@ DB '7111', 00H			; `string'
CONST	ENDS
;	COMDAT ??_C@_0M@IDCKBHEO@?$LN?C?$LA?$KD?9?$LB?W?$LI?$KO?$LF?e@
CONST	SEGMENT
??_C@_0M@IDCKBHEO@?$LN?C?$LA?$KD?9?$LB?W?$LI?$KO?$LF?e@ DB 0bdH, 0c3H, 0b0H
	DB	0a3H, '-', 0b1H, 0d7H, 0b8H, 0aeH, 0b5H, 0e5H, 00H ; `string'
CONST	ENDS
;	COMDAT ?messageMap@?1??GetThisMessageMap@CStdDialog@@KGPBUAFX_MSGMAP@@XZ@4U3@B
CONST	SEGMENT
?messageMap@?1??GetThisMessageMap@CStdDialog@@KGPBUAFX_MSGMAP@@XZ@4U3@B DD FLAT:?GetThisMessageMap@CDialog@@KGPBUAFX_MSGMAP@@XZ ; `CStdDialog::GetThisMessageMap'::`2'::messageMap
	DD	FLAT:?_messageEntries@?1??GetThisMessageMap@CStdDialog@@KGPBUAFX_MSGMAP@@XZ@4QBUAFX_MSGMAP_ENTRY@@B
CONST	ENDS
;	COMDAT ?_messageEntries@?1??GetThisMessageMap@CStdDialog@@KGPBUAFX_MSGMAP@@XZ@4QBUAFX_MSGMAP_ENTRY@@B
CONST	SEGMENT
?_messageEntries@?1??GetThisMessageMap@CStdDialog@@KGPBUAFX_MSGMAP@@XZ@4QBUAFX_MSGMAP_ENTRY@@B DD 02H ; `CStdDialog::GetThisMessageMap'::`2'::_messageEntries
	DD	00H
	DD	00H
	DD	00H
	DD	013H
	DD	FLAT:?OnDestroy@CStdDialog@@IAEXXZ
	DD	05H
	DD	00H
	DD	00H
	DD	00H
	DD	01aH
	DD	FLAT:?OnSize@CStdDialog@@IAEXIHH@Z
	DD	0113H
	DD	00H
	DD	00H
	DD	00H
	DD	015H
	DD	FLAT:?OnTimer@CStdDialog@@IAEXI@Z
	DD	020H
	DD	00H
	DD	00H
	DD	00H
	DD	05H
	DD	FLAT:?OnSetCursor@CStdDialog@@IAEHPAVCWnd@@II@Z
	DD	0201H
	DD	00H
	DD	00H
	DD	00H
	DD	036H
	DD	FLAT:?OnLButtonDown@CStdDialog@@IAEXIVCPoint@@@Z
	DD	0fH
	DD	00H
	DD	00H
	DD	00H
	DD	013H
	DD	FLAT:?OnPaint@CStdDialog@@IAEXXZ
	DD	014H
	DD	00H
	DD	00H
	DD	00H
	DD	01H
	DD	FLAT:?OnEraseBkgnd@CStdDialog@@IAEHPAVCDC@@@Z
	DD	0111H
	DD	00H
	DD	01889H
	DD	01889H
	DD	03aH
	DD	FLAT:?OnBtnExtTool@CStdDialog@@IAEXXZ
	DD	07e8H
	DD	00H
	DD	00H
	DD	00H
	DD	0eH
	DD	FLAT:?OnWmSplitterMoved@CStdDialog@@IAEJIJ@Z
	DD	0c000H
	DD	00H
	DD	00H
	DD	00H
	DD	FLAT:?RMS_ANALYSIS_FUNC@@3IB
	DD	FLAT:?OnByPass_ExportToolOption@CStdDialog@@IAEJIJ@Z
	DD	0c000H
	DD	00H
	DD	00H
	DD	00H
	DD	FLAT:?RMSG_REPLAY_REAL@@3IB
	DD	FLAT:?OnReplayDrds@CStdDialog@@IAEJIJ@Z
	DD	0c000H
	DD	00H
	DD	00H
	DD	00H
	DD	FLAT:?RMSG_REPLAY_FAIL@@3IB
	DD	FLAT:?OnReplayFail@CStdDialog@@IAEJIJ@Z
	DD	0c000H
	DD	00H
	DD	00H
	DD	00H
	DD	FLAT:?RMSG_REPLAY_CHANGE_DATE@@3IB
	DD	FLAT:?OnReplayChangeDate@CStdDialog@@IAEJIJ@Z
	DD	0c000H
	DD	00H
	DD	00H
	DD	00H
	DD	FLAT:?RMSG_REPLAY_END@@3IB
	DD	FLAT:?OnReplayEnd@CStdDialog@@IAEJIJ@Z
	DD	0c000H
	DD	00H
	DD	00H
	DD	00H
	DD	FLAT:?RMSG_REPLAY_TOTAL_SEC@@3IB
	DD	FLAT:?OnReplaySetTotalSec@CStdDialog@@IAEJIJ@Z
	DD	0c000H
	DD	00H
	DD	00H
	DD	00H
	DD	FLAT:?RMSG_REPLAY_INC_SEC@@3IB
	DD	FLAT:?OnReplayEachSec@CStdDialog@@IAEJIJ@Z
	DD	0c000H
	DD	00H
	DD	00H
	DD	00H
	DD	FLAT:?RMSG_DRAGSTART@@3IB
	DD	FLAT:?OnDragStart@CStdDialog@@IAEJIJ@Z
	DD	0c000H
	DD	00H
	DD	00H
	DD	00H
	DD	FLAT:?RMSG_DRAGEND@@3IB
	DD	FLAT:?OnDragEnd@CStdDialog@@IAEJIJ@Z
	DD	0c000H
	DD	00H
	DD	00H
	DD	00H
	DD	FLAT:?RMSG_CHANGE_SKINCOLOR@@3IB
	DD	FLAT:?OnChangeSkinColor@CStdDialog@@IAEJIJ@Z
	DD	0c000H
	DD	00H
	DD	00H
	DD	00H
	DD	FLAT:?RMSG_GET_SKINCOLOR@@3IB
	DD	FLAT:?OnGetSkinColor@CStdDialog@@IAEJIJ@Z
	DD	0c000H
	DD	00H
	DD	00H
	DD	00H
	DD	FLAT:?RMSG_USERINFO@@3IB
	DD	FLAT:?OnUserInfo@CStdDialog@@IAEJIJ@Z
	DD	0c000H
	DD	00H
	DD	00H
	DD	00H
	DD	FLAT:?RMSG_GET_TRCOMM@@3IB
	DD	FLAT:?OnGetTRComm@CStdDialog@@IAEJIJ@Z
	DD	0c000H
	DD	00H
	DD	00H
	DD	00H
	DD	FLAT:?RMSG_DRUSER@@3IB
	DD	FLAT:?OnRmsgDRUser@CStdDialog@@IAEJIJ@Z
	DD	00H
	DD	00H
	DD	00H
	DD	00H
	DD	00H
	DD	00H
CONST	ENDS
;	COMDAT ??_C@_08ODMGEDJF@CP986100@
CONST	SEGMENT
??_C@_08ODMGEDJF@CP986100@ DB 'CP986100', 00H		; `string'
CONST	ENDS
;	COMDAT ??_C@_05JJOIKFKO@33100@
CONST	SEGMENT
??_C@_05JJOIKFKO@33100@ DB '33100', 00H			; `string'
CONST	ENDS
;	COMDAT ??_C@_05DMBEOOBE@d0515@
CONST	SEGMENT
??_C@_05DMBEOOBE@d0515@ DB 'd0515', 00H			; `string'
CONST	ENDS
;	COMDAT ??_C@_05CPLBAGNH@d1014@
CONST	SEGMENT
??_C@_05CPLBAGNH@d1014@ DB 'd1014', 00H			; `string'
CONST	ENDS
;	COMDAT ??_C@_05GAPAJABA@d1013@
CONST	SEGMENT
??_C@_05GAPAJABA@d1013@ DB 'd1013', 00H			; `string'
CONST	ENDS
;	COMDAT ??_C@_05HJOLKBFB@d1012@
CONST	SEGMENT
??_C@_05HJOLKBFB@d1012@ DB 'd1012', 00H			; `string'
CONST	ENDS
;	COMDAT ??_C@_05FCMGPCJC@d1011@
CONST	SEGMENT
??_C@_05FCMGPCJC@d1011@ DB 'd1011', 00H			; `string'
CONST	ENDS
;	COMDAT ??_C@_05ELNNMDND@d1010@
CONST	SEGMENT
??_C@_05ELNNMDND@d1010@ DB 'd1010', 00H			; `string'
CONST	ENDS
;	COMDAT ??_C@_01ICJEACDI@?$DL@
CONST	SEGMENT
??_C@_01ICJEACDI@?$DL@ DB ';', 00H			; `string'
CONST	ENDS
;	COMDAT ??_C@_01IHBHIGKO@?0@
CONST	SEGMENT
??_C@_01IHBHIGKO@?0@ DB ',', 00H			; `string'
CONST	ENDS
;	COMDAT ??_C@_03COHLPAFH@?4ST@
CONST	SEGMENT
??_C@_03COHLPAFH@?4ST@ DB '.ST', 00H			; `string'
CONST	ENDS
;	COMDAT ??_C@_04HDOCAJNK@?$CFs?$CFs@
CONST	SEGMENT
??_C@_04HDOCAJNK@?$CFs?$CFs@ DB '%s%s', 00H		; `string'
CONST	ENDS
;	COMDAT ??_C@_05BMGBEOOC@?$CFs?2?$CFs@
CONST	SEGMENT
??_C@_05BMGBEOOC@?$CFs?2?$CFs@ DB '%s\%s', 00H		; `string'
CONST	ENDS
;	COMDAT ??_C@_03JALODAI@?$CFld@
CONST	SEGMENT
??_C@_03JALODAI@?$CFld@ DB '%ld', 00H			; `string'
CONST	ENDS
;	COMDAT ??_7CStdDialog@@6B@
CONST	SEGMENT
??_7CStdDialog@@6B@ DD FLAT:??_R4CStdDialog@@6B@	; CStdDialog::`vftable'
	DD	FLAT:?IsOutsideInterfaceType@CMChartInterface061115@@MBE?AW4TYPE_OCIF@COutsideCommonInterface@@XZ
	DD	FLAT:?SetRealInfo@COutsideCommonInterface@@MAEXPAXPAUHWND__@@IPAD22@Z
	DD	FLAT:?UnSetRealInfo@COutsideCommonInterface@@MAEXPAXPAUHWND__@@IPAD22@Z
	DD	FLAT:?GetMainPath@COutsideCommonInterface@@MBEPBDXZ
	DD	FLAT:?GetUserID@COutsideCommonInterface@@MBEPBDXZ
	DD	FLAT:?RequestTRPacket@CStdDialog@@UAEXFQBDF_N@Z
	DD	FLAT:?IsLoad_MarketChart@CStdDialog@@UBE_NXZ
	DD	FLAT:?IsActiveDataWindow@CStdDialog@@UAE_NXZ
	DD	FLAT:?SetDataWindowData@CStdDialog@@UAEXPAV?$CList@V?$CStringT@DV?$StrTraitMFC_DLL@DV?$ChTraitsCRT@D@ATL@@@@@ATL@@AAV12@@@@Z
	DD	FLAT:?SetImaginaryCandleAndGapRevisionToOutside@CStdDialog@@UAE_N_N0@Z
	DD	FLAT:?SetInquiryDataWindowTypeToOutside@CMChartInterface@@MAE_NH@Z
	DD	FLAT:?SetInquiryDataWindowMoveTypeToOutside@CMChartInterface@@MAE_NH@Z
	DD	FLAT:?SetYScalePositionToOutside@CMChartInterface@@MAE_NH@Z
	DD	FLAT:?SetRightMarginToOutside@CMChartInterface@@MAE_NH@Z
	DD	FLAT:?SetShowIndicatorVariableToOutside@CMChartInterface@@MAE_N_N@Z
	DD	FLAT:?SetShowIndicatorValueToOutside@CMChartInterface@@MAE_N_N@Z
	DD	FLAT:?SetShowHighLowBoundToOutside@CStdDialog@@UAE_N_N@Z
	DD	FLAT:?SetShowExRightDividendToOutside@CStdDialog@@UAE_N_N@Z
	DD	FLAT:?SetShowCurrentPriceToOutside@CMChartInterface@@MAE_NH@Z
	DD	FLAT:?SetTrendLineColorToOutside@CMChartInterface@@MAE_NK@Z
	DD	FLAT:?SetShowTrendLineValueToOutside@CMChartInterface@@MAE_NH@Z
	DD	FLAT:?SetTimeLinkageToOutside@CStdDialog@@UAE_N_N@Z
	DD	FLAT:?SetAutoSaveToOutside@CStdDialog@@UAE_N_N@Z
	DD	FLAT:?SetShowTrendLineTextToOutside@CMChartInterface@@MAE_N_N@Z
	DD	FLAT:?SetShowTimeLineTextToOutside@CMChartInterface@@MAE_N_N@Z
	DD	FLAT:?SetShowPriceLineLeftTextToOutside@CMChartInterface@@MAE_N_N@Z
	DD	FLAT:?SetShowPriceLineRightTextToOutside@CMChartInterface@@MAE_N_N@Z
	DD	FLAT:?SetShowTrisectionLineTextToOutside@CMChartInterface@@MAE_N_N@Z
	DD	FLAT:?SetShowQuadrisectionLineTextToOutside@CMChartInterface@@MAE_N_N@Z
	DD	FLAT:?SetShowControlLineTextToOutside@CMChartInterface@@MAE_N_N@Z
	DD	FLAT:?SetShowCrossLineToOutside@CMChartInterface@@MAE_N_N@Z
	DD	FLAT:?GetImaginaryCandleToOutside@CStdDialog@@UAE_NAA_N@Z
	DD	FLAT:?GetUseGapRevisionToOutside@CMChartInterface@@MAE_NAA_N@Z
	DD	FLAT:?GetInquiryDataWindowTypeToOutside@CMChartInterface@@MAE_NAAH@Z
	DD	FLAT:?GetInquiryDataWindowMoveTypeToOutside@CMChartInterface@@MAE_NAAH@Z
	DD	FLAT:?GetYScalePositionToOutside@CMChartInterface@@MAE_NAAH@Z
	DD	FLAT:?GetRightMarginToOutside@CMChartInterface@@MAE_NAAH@Z
	DD	FLAT:?GetShowIndicatorVariableToOutside@CMChartInterface@@MAE_NAA_N@Z
	DD	FLAT:?GetShowIndicatorValueToOutside@CMChartInterface@@MAE_NAA_N@Z
	DD	FLAT:?GetShowHighLowBoundToOutside@CStdDialog@@UAE_NAA_N@Z
	DD	FLAT:?GetShowExRightDividendToOutside@CStdDialog@@UAE_NAA_N@Z
	DD	FLAT:?GetShowCurrentPriceToOutside@CMChartInterface@@MAE_NAAH@Z
	DD	FLAT:?GetTrendLineColorToOutside@CMChartInterface@@MAE_NAAK@Z
	DD	FLAT:?GetShowTrendLineValueToOutside@CMChartInterface@@MAE_NAAH@Z
	DD	FLAT:?GetTimeLinkageToOutside@CStdDialog@@UAE_NAA_N@Z
	DD	FLAT:?GetAutoSaveToOutside@CStdDialog@@UAE_NAA_N@Z
	DD	FLAT:?GetShowTrendLineTextToOutside@CMChartInterface@@MAE_NAA_N@Z
	DD	FLAT:?GetShowTimeLineTextToOutside@CMChartInterface@@MAE_NAA_N@Z
	DD	FLAT:?GetShowPriceLineLeftTextToOutside@CMChartInterface@@MAE_NAA_N@Z
	DD	FLAT:?GetShowPriceLineRightTextToOutside@CMChartInterface@@MAE_NAA_N@Z
	DD	FLAT:?GetShowTrisectionLineTextToOutside@CMChartInterface@@MAE_NAA_N@Z
	DD	FLAT:?GetShowQuadrisectionLineTextToOutside@CMChartInterface@@MAE_NAA_N@Z
	DD	FLAT:?GetShowControlLineTextToOutside@CMChartInterface@@MAE_NAA_N@Z
	DD	FLAT:?GetShowCrossLineToOutside@CMChartInterface@@MAE_NAA_N@Z
	DD	FLAT:?OnChartEnvSetupOk@CStdDialog@@UAE_NXZ
	DD	FLAT:?SetPriceLog@CStdDialog@@UAE_N_N@Z
	DD	FLAT:?GetRevisedPriceFlag@CStdDialog@@UAEHXZ
	DD	FLAT:?SetRevisedPriceFlag@CStdDialog@@UAEHH@Z
	DD	FLAT:?OnIndicatorAddOrRemoved@CStdDialog@@UAEHPBDH@Z
	DD	FLAT:?OnUserZoomChanged@CStdDialog@@UAEHH@Z
	DD	FLAT:?OnToolStateChanged@CStdDialog@@UAEHW4TOOLOPTION@CToolOptionInfo@@H@Z
	DD	FLAT:?OnOrderInfomationChanged@CMChartInterface061115@@MAEHNHHPBD000@Z
CONST	ENDS
;	COMDAT ??_7CStdDialog@@6BCExResize@@@
CONST	SEGMENT
??_7CStdDialog@@6BCExResize@@@ DD FLAT:??_R4CStdDialog@@6BCExResize@@@ ; CStdDialog::`vftable'
	DD	FLAT:??_ECStdDialog@@WKI@AEPAXI@Z
CONST	ENDS
;	COMDAT ??_7CStdDialog@@6BCDialog@@@
CONST	SEGMENT
??_7CStdDialog@@6BCDialog@@@ DD FLAT:??_R4CStdDialog@@6BCDialog@@@ ; CStdDialog::`vftable'
	DD	FLAT:?GetRuntimeClass@CExOCXDLL@@UBEPAUCRuntimeClass@@XZ
	DD	FLAT:??_ECStdDialog@@UAEPAXI@Z
	DD	FLAT:?Serialize@CObject@@UAEXAAVCArchive@@@Z
	DD	FLAT:?AssertValid@CObject@@UBEXXZ
	DD	FLAT:?Dump@CObject@@UBEXAAVCDumpContext@@@Z
	DD	FLAT:?OnCmdMsg@CDialog@@UAEHIHPAXPAUAFX_CMDHANDLERINFO@@@Z
	DD	FLAT:?OnFinalRelease@CWnd@@UAEXXZ
	DD	FLAT:?IsInvokeAllowed@CCmdTarget@@UAEHJ@Z
	DD	FLAT:?GetDispatchIID@CCmdTarget@@UAEHPAU_GUID@@@Z
	DD	FLAT:?GetTypeInfoCount@CCmdTarget@@UAEIXZ
	DD	FLAT:?GetTypeLibCache@CCmdTarget@@UAEPAVCTypeLibCache@@XZ
	DD	FLAT:?GetTypeLib@CCmdTarget@@UAEJKPAPAUITypeLib@@@Z
	DD	FLAT:?GetMessageMap@CStdDialog@@MBEPBUAFX_MSGMAP@@XZ
	DD	FLAT:?GetCommandMap@CCmdTarget@@MBEPBUAFX_OLECMDMAP@@XZ
	DD	FLAT:?GetDispatchMap@CStdDialog@@MBEPBUAFX_DISPMAP@@XZ
	DD	FLAT:?GetConnectionMap@CCmdTarget@@MBEPBUAFX_CONNECTIONMAP@@XZ
	DD	FLAT:?GetInterfaceMap@CStdDialog@@MBEPBUAFX_INTERFACEMAP@@XZ
	DD	FLAT:?GetEventSinkMap@CCmdTarget@@MBEPBUAFX_EVENTSINKMAP@@XZ
	DD	FLAT:?OnCreateAggregates@CCmdTarget@@UAEHXZ
	DD	FLAT:?GetInterfaceHook@CCmdTarget@@UAEPAUIUnknown@@PBX@Z
	DD	FLAT:?GetExtraConnectionPoints@CCmdTarget@@MAEHPAVCPtrArray@@@Z
	DD	FLAT:?GetConnectionHook@CCmdTarget@@MAEPAUIConnectionPoint@@ABU_GUID@@@Z
	DD	FLAT:?PreSubclassWindow@CWnd@@UAEXXZ
	DD	FLAT:?Create@CWnd@@UAEHPBD0KABUtagRECT@@PAV1@IPAUCCreateContext@@@Z
	DD	FLAT:?CreateEx@CWnd@@UAEHKPBD0KABUtagRECT@@PAV1@IPAX@Z
	DD	FLAT:?CreateEx@CWnd@@UAEHKPBD0KHHHHPAUHWND__@@PAUHMENU__@@PAX@Z
	DD	FLAT:?DestroyWindow@CWnd@@UAEHXZ
	DD	FLAT:?PreCreateWindow@CWnd@@UAEHAAUtagCREATESTRUCTA@@@Z
	DD	FLAT:?CalcWindowRect@CWnd@@UAEXPAUtagRECT@@I@Z
	DD	FLAT:?GetMenu@CWnd@@UBEPAVCMenu@@XZ
	DD	FLAT:?SetMenu@CWnd@@UAEHPAVCMenu@@@Z
	DD	FLAT:?OnToolHitTest@CWnd@@UBEHVCPoint@@PAUtagTOOLINFOA@@@Z
	DD	FLAT:?GetScrollBarCtrl@CWnd@@UBEPAVCScrollBar@@H@Z
	DD	FLAT:?WinHelpA@CWnd@@UAEXKI@Z
	DD	FLAT:?HtmlHelpA@CWnd@@UAEXKI@Z
	DD	FLAT:?WinHelpInternal@CWnd@@UAEXKI@Z
	DD	FLAT:?ContinueModal@CWnd@@UAEHXZ
	DD	FLAT:?EndModalLoop@CWnd@@UAEXH@Z
	DD	FLAT:?OnDrawIconicThumbnailOrLivePreview@CWnd@@UAEXAAVCDC@@VCRect@@VCSize@@HAAH@Z
	DD	FLAT:?EnsureStdObj@CWnd@@UAEJXZ
	DD	FLAT:?get_accParent@CWnd@@UAEJPAPAUIDispatch@@@Z
	DD	FLAT:?get_accChildCount@CWnd@@UAEJPAJ@Z
	DD	FLAT:?get_accChild@CWnd@@UAEJUtagVARIANT@@PAPAUIDispatch@@@Z
	DD	FLAT:?get_accName@CWnd@@UAEJUtagVARIANT@@PAPA_W@Z
	DD	FLAT:?get_accValue@CWnd@@UAEJUtagVARIANT@@PAPA_W@Z
	DD	FLAT:?get_accDescription@CWnd@@UAEJUtagVARIANT@@PAPA_W@Z
	DD	FLAT:?get_accRole@CWnd@@UAEJUtagVARIANT@@PAU2@@Z
	DD	FLAT:?get_accState@CWnd@@UAEJUtagVARIANT@@PAU2@@Z
	DD	FLAT:?get_accHelp@CWnd@@UAEJUtagVARIANT@@PAPA_W@Z
	DD	FLAT:?get_accHelpTopic@CWnd@@UAEJPAPA_WUtagVARIANT@@PAJ@Z
	DD	FLAT:?get_accKeyboardShortcut@CWnd@@UAEJUtagVARIANT@@PAPA_W@Z
	DD	FLAT:?get_accFocus@CWnd@@UAEJPAUtagVARIANT@@@Z
	DD	FLAT:?get_accSelection@CWnd@@UAEJPAUtagVARIANT@@@Z
	DD	FLAT:?get_accDefaultAction@CWnd@@UAEJUtagVARIANT@@PAPA_W@Z
	DD	FLAT:?accSelect@CWnd@@UAEJJUtagVARIANT@@@Z
	DD	FLAT:?accLocation@CWnd@@UAEJPAJ000UtagVARIANT@@@Z
	DD	FLAT:?accNavigate@CWnd@@UAEJJUtagVARIANT@@PAU2@@Z
	DD	FLAT:?accHitTest@CWnd@@UAEJJJPAUtagVARIANT@@@Z
	DD	FLAT:?accDoDefaultAction@CWnd@@UAEJUtagVARIANT@@@Z
	DD	FLAT:?put_accName@CWnd@@UAEJUtagVARIANT@@PA_W@Z
	DD	FLAT:?put_accValue@CWnd@@UAEJUtagVARIANT@@PA_W@Z
	DD	FLAT:?SetProxy@CWnd@@UAEJPAUIAccessibleProxy@@@Z
	DD	FLAT:?CreateAccessibleProxy@CWnd@@UAEJIJPAJ@Z
	DD	FLAT:?OnCommand@CWnd@@MAEHIJ@Z
	DD	FLAT:?OnNotify@CWnd@@MAEHIJPAJ@Z
	DD	FLAT:?GetSuperWndProcAddr@CWnd@@MAEPAP6GJPAUHWND__@@IIJ@ZXZ
	DD	FLAT:?DoDataExchange@CStdDialog@@MAEXPAVCDataExchange@@@Z
	DD	FLAT:?BeginModalState@CWnd@@UAEXXZ
	DD	FLAT:?EndModalState@CWnd@@UAEXXZ
	DD	FLAT:?PreTranslateMessage@CStdDialog@@UAEHPAUtagMSG@@@Z
	DD	FLAT:?OnAmbientProperty@CWnd@@UAEHPAVCOleControlSite@@JPAUtagVARIANT@@@Z
	DD	FLAT:?WindowProc@CStdDialog@@MAEJIIJ@Z
	DD	FLAT:?OnWndMsg@CWnd@@MAEHIIJPAJ@Z
	DD	FLAT:?DefWindowProcA@CWnd@@MAEJIIJ@Z
	DD	FLAT:?PostNcDestroy@CWnd@@MAEXXZ
	DD	FLAT:?OnChildNotify@CWnd@@MAEHIIJPAJ@Z
	DD	FLAT:?OnTouchInputs@CWnd@@MAEHIPAUtagTOUCHINPUT@@@Z
	DD	FLAT:?OnTouchInput@CWnd@@MAEHVCPoint@@HHPAUtagTOUCHINPUT@@@Z
	DD	FLAT:?GetGestureStatus@CWnd@@MAEKVCPoint@@@Z
	DD	FLAT:?OnGestureZoom@CWnd@@MAEHVCPoint@@J@Z
	DD	FLAT:?OnGesturePan@CWnd@@MAEHVCPoint@@0@Z
	DD	FLAT:?OnGestureRotate@CWnd@@MAEHVCPoint@@N@Z
	DD	FLAT:?OnGestureTwoFingerTap@CWnd@@MAEHVCPoint@@@Z
	DD	FLAT:?OnGesturePressAndTap@CWnd@@MAEHVCPoint@@J@Z
	DD	FLAT:?ResizeDynamicLayout@CWnd@@MAEXXZ
	DD	FLAT:?CheckAutoCenter@CDialog@@UAEHXZ
	DD	FLAT:?IsFrameWnd@CWnd@@UBEHXZ
	DD	FLAT:?CreateControlContainer@CWnd@@MAEHPAPAVCOleControlContainer@@@Z
	DD	FLAT:?CreateControlSite@CWnd@@MAEHPAVCOleControlContainer@@PAPAVCOleControlSite@@IABU_GUID@@@Z
	DD	FLAT:?SetOccDialogInfo@CDialog@@MAEHPAU_AFX_OCC_DIALOG_INFO@@@Z
	DD	FLAT:?GetOccDialogInfo@CDialog@@MAEPAU_AFX_OCC_DIALOG_INFO@@XZ
	DD	FLAT:?Create@CDialog@@UAEHIPAVCWnd@@@Z
	DD	FLAT:?Create@CDialog@@UAEHPBDPAVCWnd@@@Z
	DD	FLAT:?CreateIndirect@CDialog@@UAEHPAXPAVCWnd@@@Z
	DD	FLAT:?CreateIndirect@CDialog@@UAEHPBUDLGTEMPLATE@@PAVCWnd@@PAX@Z
	DD	FLAT:?DoModal@CDialog@@UAEHXZ
	DD	FLAT:?OnInitDialog@CStdDialog@@MAEHXZ
	DD	FLAT:?OnSetFont@CDialog@@UAEXPAVCFont@@@Z
	DD	FLAT:?OnOK@CExOCXDLL@@MAEXXZ
	DD	FLAT:?OnCancel@CExOCXDLL@@MAEXXZ
	DD	FLAT:?PreInitDialog@CDialog@@MAEXXZ
	DD	FLAT:?ReceiveData@CStdDialog@@UAEJJPBD00PAXJ@Z
	DD	FLAT:?ReceiveRealData@CStdDialog@@UAEJGPBDPAX@Z
	DD	FLAT:?StatusChange@CStdDialog@@UAEJH@Z
	DD	FLAT:?ReceiveMessage@CStdDialog@@UAEJJPBD00@Z
	DD	FLAT:?ColorTableChanged@CExDialog@@UAEXXZ
	DD	FLAT:?FormLoad@CStdDialog@@UAEXXZ
	DD	FLAT:?FormLoadCompleted@CExOCXDLL@@UAEXXZ
	DD	FLAT:?Platform_GetBase@CExOCXDLL@@MAEJPBD@Z
	DD	FLAT:?Platform_GetKey@CExOCXDLL@@MAEJPBD@Z
	DD	FLAT:?Platform_SetKey@CExOCXDLL@@MAEXPBDJ@Z
	DD	FLAT:?Platform_Initialize@CStdDialog@@MAEXJJJPAVCStringList@@@Z
	DD	FLAT:?Platform_SetProperty@CExOCXDLL@@MAEXPAUSTDATAITEM@@H@Z
	DD	FLAT:?Platform_GetState@CExOCXDLL@@MAEJHJJ@Z
	DD	FLAT:?Platform_SetState@CExOCXDLL@@MAEJHJJ@Z
	DD	FLAT:?Platform_WindowProc@CStdDialog@@MAEJIIJAAH@Z
	DD	FLAT:?Platform_PreTranslateMessage@CStdDialog@@MAEJPAUtagMSG@@@Z
	DD	FLAT:?Platform_OnSize@CStdDialog@@MAEXIHH@Z
	DD	FLAT:?Packet_GetData@CExOCXDLL@@MAEHPADH@Z
	DD	FLAT:?Packet_GetPackDataSize@CExOCXDLL@@MAEHPAD@Z
	DD	FLAT:?Packet_SetData@CExOCXDLL@@MAEHPADH@Z
	DD	FLAT:?Packet_SetData2@CExOCXDLL@@MAEHPADH@Z
	DD	FLAT:?Packet_SetData3@CExOCXDLL@@MAEHPADH@Z
	DD	FLAT:?Packet_SetData999@CExOCXDLL@@MAEHHPADH@Z
	DD	FLAT:?OnGSharedDataChange@CStdDialog@@MAEXPBD0H@Z
	DD	FLAT:?OnLSharedDataChange@CExOCXDLL@@MAEXPBD0H@Z
CONST	ENDS
;	COMDAT ??_7CPartnerSite@CStdDialog@@6B@
CONST	SEGMENT
??_7CPartnerSite@CStdDialog@@6B@ DD FLAT:??_R4CPartnerSite@CStdDialog@@6B@ ; CStdDialog::CPartnerSite::`vftable'
	DD	FLAT:?RecieveFidData@CPartnerSite@CStdDialog@@UAGJJPBD00PAXJ@Z
	DD	FLAT:?RecieveTRData@CPartnerSite@CStdDialog@@UAGJJPBD00PAXJ@Z
	DD	FLAT:?RecieveRealData@CPartnerSite@CStdDialog@@UAGJJJ@Z
	DD	FLAT:?RecieveKeyData@CPartnerSite@CStdDialog@@UAGJHPBD@Z
	DD	FLAT:?RecieveRealDataEx@CPartnerSite@CStdDialog@@UAGJJPBDJ@Z
	DD	FLAT:?ReceiveOnUser@CPartnerSite@CStdDialog@@UAGJIJ@Z
	DD	FLAT:?ReceiveNoticeData@IPartnerSite@@UAGJPBDJ@Z
CONST	ENDS
;	COMDAT ??_7?$CList@PAUSTSENDDATAQUE@@PAU1@@@6B@
CONST	SEGMENT
??_7?$CList@PAUSTSENDDATAQUE@@PAU1@@@6B@ DD FLAT:??_R4?$CList@PAUSTSENDDATAQUE@@PAU1@@@6B@ ; CList<STSENDDATAQUE *,STSENDDATAQUE *>::`vftable'
	DD	FLAT:?GetRuntimeClass@CObject@@UBEPAUCRuntimeClass@@XZ
	DD	FLAT:??_E?$CList@PAUSTSENDDATAQUE@@PAU1@@@UAEPAXI@Z
	DD	FLAT:?Serialize@?$CList@PAUSTSENDDATAQUE@@PAU1@@@UAEXAAVCArchive@@@Z
	DD	FLAT:?AssertValid@CObject@@UBEXXZ
	DD	FLAT:?Dump@CObject@@UBEXAAVCDumpContext@@@Z
CONST	ENDS
;	COMDAT ?interfaceMap@CStdDialog@@1UAFX_INTERFACEMAP@@B
CONST	SEGMENT
?interfaceMap@CStdDialog@@1UAFX_INTERFACEMAP@@B DD FLAT:?GetThisInterfaceMap@CWnd@@KGPBUAFX_INTERFACEMAP@@XZ ; CStdDialog::interfaceMap
	DD	FLAT:?_interfaceEntries@CStdDialog@@0QBUAFX_INTERFACEMAP_ENTRY@@B
CONST	ENDS
;	COMDAT ?dispatchMap@CStdDialog@@1UAFX_DISPMAP@@B
CONST	SEGMENT
?dispatchMap@CStdDialog@@1UAFX_DISPMAP@@B DD FLAT:?GetThisDispatchMap@CCmdTarget@@KGPBUAFX_DISPMAP@@XZ ; CStdDialog::dispatchMap
	DD	FLAT:?_dispatchEntries@CStdDialog@@0QBUAFX_DISPMAP_ENTRY@@B
	DD	FLAT:?_dispatchEntryCount@CStdDialog@@0IA
	DD	FLAT:?_dwStockPropMask@CStdDialog@@0KA
CONST	ENDS
;	COMDAT ??_7?$CArray@USTTRINFO@@U1@@@6B@
CONST	SEGMENT
??_7?$CArray@USTTRINFO@@U1@@@6B@ DD FLAT:??_R4?$CArray@USTTRINFO@@U1@@@6B@ ; CArray<STTRINFO,STTRINFO>::`vftable'
	DD	FLAT:?GetRuntimeClass@CObject@@UBEPAUCRuntimeClass@@XZ
	DD	FLAT:??_E?$CArray@USTTRINFO@@U1@@@UAEPAXI@Z
	DD	FLAT:?Serialize@?$CArray@USTTRINFO@@U1@@@UAEXAAVCArchive@@@Z
	DD	FLAT:?AssertValid@CObject@@UBEXXZ
	DD	FLAT:?Dump@CObject@@UBEXAAVCDumpContext@@@Z
CONST	ENDS
;	COMDAT ??_7?$CList@JJ@@6B@
CONST	SEGMENT
??_7?$CList@JJ@@6B@ DD FLAT:??_R4?$CList@JJ@@6B@	; CList<long,long>::`vftable'
	DD	FLAT:?GetRuntimeClass@CObject@@UBEPAUCRuntimeClass@@XZ
	DD	FLAT:??_E?$CList@JJ@@UAEPAXI@Z
	DD	FLAT:?Serialize@?$CList@JJ@@UAEXAAVCArchive@@@Z
	DD	FLAT:?AssertValid@CObject@@UBEXXZ
	DD	FLAT:?Dump@CObject@@UBEXAAVCDumpContext@@@Z
CONST	ENDS
;	COMDAT ??_C@_05HCNNGKOI@?$CFs?0?$CFd@
CONST	SEGMENT
??_C@_05HCNNGKOI@?$CFs?0?$CFd@ DB '%s,%d', 00H		; `string'
CONST	ENDS
;	COMDAT ??_C@_01JLIPDDHJ@?3@
CONST	SEGMENT
??_C@_01JLIPDDHJ@?3@ DB ':', 00H			; `string'
CONST	ENDS
;	COMDAT ??_7?$CArray@PAUHWND__@@PAU1@@@6B@
CONST	SEGMENT
??_7?$CArray@PAUHWND__@@PAU1@@@6B@ DD FLAT:??_R4?$CArray@PAUHWND__@@PAU1@@@6B@ ; CArray<HWND__ *,HWND__ *>::`vftable'
	DD	FLAT:?GetRuntimeClass@CObject@@UBEPAUCRuntimeClass@@XZ
	DD	FLAT:??_E?$CArray@PAUHWND__@@PAU1@@@UAEPAXI@Z
	DD	FLAT:?Serialize@?$CArray@PAUHWND__@@PAU1@@@UAEXAAVCArchive@@@Z
	DD	FLAT:?AssertValid@CObject@@UBEXXZ
	DD	FLAT:?Dump@CObject@@UBEXAAVCDumpContext@@@Z
CONST	ENDS
;	COMDAT ??_7?$CList@UST_GSHAREDFORMAT@@U1@@@6B@
CONST	SEGMENT
??_7?$CList@UST_GSHAREDFORMAT@@U1@@@6B@ DD FLAT:??_R4?$CList@UST_GSHAREDFORMAT@@U1@@@6B@ ; CList<ST_GSHAREDFORMAT,ST_GSHAREDFORMAT>::`vftable'
	DD	FLAT:?GetRuntimeClass@CObject@@UBEPAUCRuntimeClass@@XZ
	DD	FLAT:??_E?$CList@UST_GSHAREDFORMAT@@U1@@@UAEPAXI@Z
	DD	FLAT:?Serialize@?$CList@UST_GSHAREDFORMAT@@U1@@@UAEXAAVCArchive@@@Z
	DD	FLAT:?AssertValid@CObject@@UBEXXZ
	DD	FLAT:?Dump@CObject@@UBEXAAVCDumpContext@@@Z
CONST	ENDS
;	COMDAT ??_7?$CList@UST_LSHAREDFORMAT@@U1@@@6B@
CONST	SEGMENT
??_7?$CList@UST_LSHAREDFORMAT@@U1@@@6B@ DD FLAT:??_R4?$CList@UST_LSHAREDFORMAT@@U1@@@6B@ ; CList<ST_LSHAREDFORMAT,ST_LSHAREDFORMAT>::`vftable'
	DD	FLAT:?GetRuntimeClass@CObject@@UBEPAUCRuntimeClass@@XZ
	DD	FLAT:??_E?$CList@UST_LSHAREDFORMAT@@U1@@@UAEPAXI@Z
	DD	FLAT:?Serialize@?$CList@UST_LSHAREDFORMAT@@U1@@@UAEXAAVCArchive@@@Z
	DD	FLAT:?AssertValid@CObject@@UBEXXZ
	DD	FLAT:?Dump@CObject@@UBEXAAVCDumpContext@@@Z
CONST	ENDS
;	COMDAT ??_7?$CList@P6AXXZP6AXXZ@@6B@
CONST	SEGMENT
??_7?$CList@P6AXXZP6AXXZ@@6B@ DD FLAT:??_R4?$CList@P6AXXZP6AXXZ@@6B@ ; CList<void (__cdecl*)(void),void (__cdecl*)(void)>::`vftable'
	DD	FLAT:?GetRuntimeClass@CObject@@UBEPAUCRuntimeClass@@XZ
	DD	FLAT:??_E?$CList@P6AXXZP6AXXZ@@UAEPAXI@Z
	DD	FLAT:?Serialize@?$CList@P6AXXZP6AXXZ@@UAEXAAVCArchive@@@Z
	DD	FLAT:?AssertValid@CObject@@UBEXXZ
	DD	FLAT:?Dump@CObject@@UBEXAAVCDumpContext@@@Z
CONST	ENDS
;	COMDAT ??_C@_04OHDBDCPJ@?2Dev@
CONST	SEGMENT
??_C@_04OHDBDCPJ@?2Dev@ DB '\Dev', 00H			; `string'
CONST	ENDS
;	COMDAT ??_7CMChartInterface061115@@6B@
CONST	SEGMENT
??_7CMChartInterface061115@@6B@ DD FLAT:??_R4CMChartInterface061115@@6B@ ; CMChartInterface061115::`vftable'
	DD	FLAT:?IsOutsideInterfaceType@CMChartInterface061115@@MBE?AW4TYPE_OCIF@COutsideCommonInterface@@XZ
	DD	FLAT:?SetRealInfo@COutsideCommonInterface@@MAEXPAXPAUHWND__@@IPAD22@Z
	DD	FLAT:?UnSetRealInfo@COutsideCommonInterface@@MAEXPAXPAUHWND__@@IPAD22@Z
	DD	FLAT:?GetMainPath@COutsideCommonInterface@@MBEPBDXZ
	DD	FLAT:?GetUserID@COutsideCommonInterface@@MBEPBDXZ
	DD	FLAT:?RequestTRPacket@COutsideCommonInterface@@MAEXFQBDF_N@Z
	DD	FLAT:?IsLoad_MarketChart@COutsideCommonInterface@@MBE_NXZ
	DD	FLAT:?IsActiveDataWindow@CMChartInterface@@MAE_NXZ
	DD	FLAT:?SetDataWindowData@CMChartInterface@@MAEXPAV?$CList@V?$CStringT@DV?$StrTraitMFC_DLL@DV?$ChTraitsCRT@D@ATL@@@@@ATL@@AAV12@@@@Z
	DD	FLAT:?SetImaginaryCandleAndGapRevisionToOutside@CMChartInterface@@MAE_N_N0@Z
	DD	FLAT:?SetInquiryDataWindowTypeToOutside@CMChartInterface@@MAE_NH@Z
	DD	FLAT:?SetInquiryDataWindowMoveTypeToOutside@CMChartInterface@@MAE_NH@Z
	DD	FLAT:?SetYScalePositionToOutside@CMChartInterface@@MAE_NH@Z
	DD	FLAT:?SetRightMarginToOutside@CMChartInterface@@MAE_NH@Z
	DD	FLAT:?SetShowIndicatorVariableToOutside@CMChartInterface@@MAE_N_N@Z
	DD	FLAT:?SetShowIndicatorValueToOutside@CMChartInterface@@MAE_N_N@Z
	DD	FLAT:?SetShowHighLowBoundToOutside@CMChartInterface@@MAE_N_N@Z
	DD	FLAT:?SetShowExRightDividendToOutside@CMChartInterface@@MAE_N_N@Z
	DD	FLAT:?SetShowCurrentPriceToOutside@CMChartInterface@@MAE_NH@Z
	DD	FLAT:?SetTrendLineColorToOutside@CMChartInterface@@MAE_NK@Z
	DD	FLAT:?SetShowTrendLineValueToOutside@CMChartInterface@@MAE_NH@Z
	DD	FLAT:?SetTimeLinkageToOutside@CMChartInterface@@MAE_N_N@Z
	DD	FLAT:?SetAutoSaveToOutside@CMChartInterface@@MAE_N_N@Z
	DD	FLAT:?SetShowTrendLineTextToOutside@CMChartInterface@@MAE_N_N@Z
	DD	FLAT:?SetShowTimeLineTextToOutside@CMChartInterface@@MAE_N_N@Z
	DD	FLAT:?SetShowPriceLineLeftTextToOutside@CMChartInterface@@MAE_N_N@Z
	DD	FLAT:?SetShowPriceLineRightTextToOutside@CMChartInterface@@MAE_N_N@Z
	DD	FLAT:?SetShowTrisectionLineTextToOutside@CMChartInterface@@MAE_N_N@Z
	DD	FLAT:?SetShowQuadrisectionLineTextToOutside@CMChartInterface@@MAE_N_N@Z
	DD	FLAT:?SetShowControlLineTextToOutside@CMChartInterface@@MAE_N_N@Z
	DD	FLAT:?SetShowCrossLineToOutside@CMChartInterface@@MAE_N_N@Z
	DD	FLAT:?GetImaginaryCandleToOutside@CMChartInterface@@MAE_NAA_N@Z
	DD	FLAT:?GetUseGapRevisionToOutside@CMChartInterface@@MAE_NAA_N@Z
	DD	FLAT:?GetInquiryDataWindowTypeToOutside@CMChartInterface@@MAE_NAAH@Z
	DD	FLAT:?GetInquiryDataWindowMoveTypeToOutside@CMChartInterface@@MAE_NAAH@Z
	DD	FLAT:?GetYScalePositionToOutside@CMChartInterface@@MAE_NAAH@Z
	DD	FLAT:?GetRightMarginToOutside@CMChartInterface@@MAE_NAAH@Z
	DD	FLAT:?GetShowIndicatorVariableToOutside@CMChartInterface@@MAE_NAA_N@Z
	DD	FLAT:?GetShowIndicatorValueToOutside@CMChartInterface@@MAE_NAA_N@Z
	DD	FLAT:?GetShowHighLowBoundToOutside@CMChartInterface@@MAE_NAA_N@Z
	DD	FLAT:?GetShowExRightDividendToOutside@CMChartInterface@@MAE_NAA_N@Z
	DD	FLAT:?GetShowCurrentPriceToOutside@CMChartInterface@@MAE_NAAH@Z
	DD	FLAT:?GetTrendLineColorToOutside@CMChartInterface@@MAE_NAAK@Z
	DD	FLAT:?GetShowTrendLineValueToOutside@CMChartInterface@@MAE_NAAH@Z
	DD	FLAT:?GetTimeLinkageToOutside@CMChartInterface@@MAE_NAA_N@Z
	DD	FLAT:?GetAutoSaveToOutside@CMChartInterface@@MAE_NAA_N@Z
	DD	FLAT:?GetShowTrendLineTextToOutside@CMChartInterface@@MAE_NAA_N@Z
	DD	FLAT:?GetShowTimeLineTextToOutside@CMChartInterface@@MAE_NAA_N@Z
	DD	FLAT:?GetShowPriceLineLeftTextToOutside@CMChartInterface@@MAE_NAA_N@Z
	DD	FLAT:?GetShowPriceLineRightTextToOutside@CMChartInterface@@MAE_NAA_N@Z
	DD	FLAT:?GetShowTrisectionLineTextToOutside@CMChartInterface@@MAE_NAA_N@Z
	DD	FLAT:?GetShowQuadrisectionLineTextToOutside@CMChartInterface@@MAE_NAA_N@Z
	DD	FLAT:?GetShowControlLineTextToOutside@CMChartInterface@@MAE_NAA_N@Z
	DD	FLAT:?GetShowCrossLineToOutside@CMChartInterface@@MAE_NAA_N@Z
	DD	FLAT:?OnChartEnvSetupOk@CMChartInterface@@MAE_NXZ
	DD	FLAT:?SetPriceLog@CMChartInterface@@MAE_N_N@Z
	DD	FLAT:?GetRevisedPriceFlag@CMChartInterface061115@@MAEHXZ
	DD	FLAT:?SetRevisedPriceFlag@CMChartInterface061115@@MAEHH@Z
	DD	FLAT:?OnIndicatorAddOrRemoved@CMChartInterface061115@@MAEHPBDH@Z
	DD	FLAT:?OnUserZoomChanged@CMChartInterface061115@@MAEHH@Z
	DD	FLAT:?OnToolStateChanged@CMChartInterface061115@@MAEHW4TOOLOPTION@CToolOptionInfo@@H@Z
	DD	FLAT:?OnOrderInfomationChanged@CMChartInterface061115@@MAEHNHHPBD000@Z
CONST	ENDS
;	COMDAT ??_7CMChartInterface@@6B@
CONST	SEGMENT
??_7CMChartInterface@@6B@ DD FLAT:??_R4CMChartInterface@@6B@ ; CMChartInterface::`vftable'
	DD	FLAT:?IsOutsideInterfaceType@CMChartInterface@@MBE?AW4TYPE_OCIF@COutsideCommonInterface@@XZ
	DD	FLAT:?SetRealInfo@COutsideCommonInterface@@MAEXPAXPAUHWND__@@IPAD22@Z
	DD	FLAT:?UnSetRealInfo@COutsideCommonInterface@@MAEXPAXPAUHWND__@@IPAD22@Z
	DD	FLAT:?GetMainPath@COutsideCommonInterface@@MBEPBDXZ
	DD	FLAT:?GetUserID@COutsideCommonInterface@@MBEPBDXZ
	DD	FLAT:?RequestTRPacket@COutsideCommonInterface@@MAEXFQBDF_N@Z
	DD	FLAT:?IsLoad_MarketChart@COutsideCommonInterface@@MBE_NXZ
	DD	FLAT:?IsActiveDataWindow@CMChartInterface@@MAE_NXZ
	DD	FLAT:?SetDataWindowData@CMChartInterface@@MAEXPAV?$CList@V?$CStringT@DV?$StrTraitMFC_DLL@DV?$ChTraitsCRT@D@ATL@@@@@ATL@@AAV12@@@@Z
	DD	FLAT:?SetImaginaryCandleAndGapRevisionToOutside@CMChartInterface@@MAE_N_N0@Z
	DD	FLAT:?SetInquiryDataWindowTypeToOutside@CMChartInterface@@MAE_NH@Z
	DD	FLAT:?SetInquiryDataWindowMoveTypeToOutside@CMChartInterface@@MAE_NH@Z
	DD	FLAT:?SetYScalePositionToOutside@CMChartInterface@@MAE_NH@Z
	DD	FLAT:?SetRightMarginToOutside@CMChartInterface@@MAE_NH@Z
	DD	FLAT:?SetShowIndicatorVariableToOutside@CMChartInterface@@MAE_N_N@Z
	DD	FLAT:?SetShowIndicatorValueToOutside@CMChartInterface@@MAE_N_N@Z
	DD	FLAT:?SetShowHighLowBoundToOutside@CMChartInterface@@MAE_N_N@Z
	DD	FLAT:?SetShowExRightDividendToOutside@CMChartInterface@@MAE_N_N@Z
	DD	FLAT:?SetShowCurrentPriceToOutside@CMChartInterface@@MAE_NH@Z
	DD	FLAT:?SetTrendLineColorToOutside@CMChartInterface@@MAE_NK@Z
	DD	FLAT:?SetShowTrendLineValueToOutside@CMChartInterface@@MAE_NH@Z
	DD	FLAT:?SetTimeLinkageToOutside@CMChartInterface@@MAE_N_N@Z
	DD	FLAT:?SetAutoSaveToOutside@CMChartInterface@@MAE_N_N@Z
	DD	FLAT:?SetShowTrendLineTextToOutside@CMChartInterface@@MAE_N_N@Z
	DD	FLAT:?SetShowTimeLineTextToOutside@CMChartInterface@@MAE_N_N@Z
	DD	FLAT:?SetShowPriceLineLeftTextToOutside@CMChartInterface@@MAE_N_N@Z
	DD	FLAT:?SetShowPriceLineRightTextToOutside@CMChartInterface@@MAE_N_N@Z
	DD	FLAT:?SetShowTrisectionLineTextToOutside@CMChartInterface@@MAE_N_N@Z
	DD	FLAT:?SetShowQuadrisectionLineTextToOutside@CMChartInterface@@MAE_N_N@Z
	DD	FLAT:?SetShowControlLineTextToOutside@CMChartInterface@@MAE_N_N@Z
	DD	FLAT:?SetShowCrossLineToOutside@CMChartInterface@@MAE_N_N@Z
	DD	FLAT:?GetImaginaryCandleToOutside@CMChartInterface@@MAE_NAA_N@Z
	DD	FLAT:?GetUseGapRevisionToOutside@CMChartInterface@@MAE_NAA_N@Z
	DD	FLAT:?GetInquiryDataWindowTypeToOutside@CMChartInterface@@MAE_NAAH@Z
	DD	FLAT:?GetInquiryDataWindowMoveTypeToOutside@CMChartInterface@@MAE_NAAH@Z
	DD	FLAT:?GetYScalePositionToOutside@CMChartInterface@@MAE_NAAH@Z
	DD	FLAT:?GetRightMarginToOutside@CMChartInterface@@MAE_NAAH@Z
	DD	FLAT:?GetShowIndicatorVariableToOutside@CMChartInterface@@MAE_NAA_N@Z
	DD	FLAT:?GetShowIndicatorValueToOutside@CMChartInterface@@MAE_NAA_N@Z
	DD	FLAT:?GetShowHighLowBoundToOutside@CMChartInterface@@MAE_NAA_N@Z
	DD	FLAT:?GetShowExRightDividendToOutside@CMChartInterface@@MAE_NAA_N@Z
	DD	FLAT:?GetShowCurrentPriceToOutside@CMChartInterface@@MAE_NAAH@Z
	DD	FLAT:?GetTrendLineColorToOutside@CMChartInterface@@MAE_NAAK@Z
	DD	FLAT:?GetShowTrendLineValueToOutside@CMChartInterface@@MAE_NAAH@Z
	DD	FLAT:?GetTimeLinkageToOutside@CMChartInterface@@MAE_NAA_N@Z
	DD	FLAT:?GetAutoSaveToOutside@CMChartInterface@@MAE_NAA_N@Z
	DD	FLAT:?GetShowTrendLineTextToOutside@CMChartInterface@@MAE_NAA_N@Z
	DD	FLAT:?GetShowTimeLineTextToOutside@CMChartInterface@@MAE_NAA_N@Z
	DD	FLAT:?GetShowPriceLineLeftTextToOutside@CMChartInterface@@MAE_NAA_N@Z
	DD	FLAT:?GetShowPriceLineRightTextToOutside@CMChartInterface@@MAE_NAA_N@Z
	DD	FLAT:?GetShowTrisectionLineTextToOutside@CMChartInterface@@MAE_NAA_N@Z
	DD	FLAT:?GetShowQuadrisectionLineTextToOutside@CMChartInterface@@MAE_NAA_N@Z
	DD	FLAT:?GetShowControlLineTextToOutside@CMChartInterface@@MAE_NAA_N@Z
	DD	FLAT:?GetShowCrossLineToOutside@CMChartInterface@@MAE_NAA_N@Z
	DD	FLAT:?OnChartEnvSetupOk@CMChartInterface@@MAE_NXZ
	DD	FLAT:?SetPriceLog@CMChartInterface@@MAE_N_N@Z
CONST	ENDS
;	COMDAT ??_7COutsideCommonInterface@@6B@
CONST	SEGMENT
??_7COutsideCommonInterface@@6B@ DD FLAT:??_R4COutsideCommonInterface@@6B@ ; COutsideCommonInterface::`vftable'
	DD	FLAT:?IsOutsideInterfaceType@COutsideCommonInterface@@MBE?AW4TYPE_OCIF@1@XZ
	DD	FLAT:?SetRealInfo@COutsideCommonInterface@@MAEXPAXPAUHWND__@@IPAD22@Z
	DD	FLAT:?UnSetRealInfo@COutsideCommonInterface@@MAEXPAXPAUHWND__@@IPAD22@Z
	DD	FLAT:?GetMainPath@COutsideCommonInterface@@MBEPBDXZ
	DD	FLAT:?GetUserID@COutsideCommonInterface@@MBEPBDXZ
	DD	FLAT:?RequestTRPacket@COutsideCommonInterface@@MAEXFQBDF_N@Z
	DD	FLAT:?IsLoad_MarketChart@COutsideCommonInterface@@MBE_NXZ
CONST	ENDS
;	COMDAT ??_R2CDialog@@8
rdata$r	SEGMENT
??_R2CDialog@@8 DD FLAT:??_R1A@?0A@EA@CDialog@@8	; CDialog::`RTTI Base Class Array'
	DD	FLAT:??_R1A@?0A@EA@CWnd@@8
	DD	FLAT:??_R1A@?0A@EA@CCmdTarget@@8
	DD	FLAT:??_R1A@?0A@EA@CObject@@8
rdata$r	ENDS
;	COMDAT ??_R3CDialog@@8
rdata$r	SEGMENT
??_R3CDialog@@8 DD 00H					; CDialog::`RTTI Class Hierarchy Descriptor'
	DD	00H
	DD	04H
	DD	FLAT:??_R2CDialog@@8
rdata$r	ENDS
;	COMDAT ??_R0?AVCDialog@@@8
data$rs	SEGMENT
??_R0?AVCDialog@@@8 DD FLAT:??_7type_info@@6B@		; CDialog `RTTI Type Descriptor'
	DD	00H
	DB	'.?AVCDialog@@', 00H
data$rs	ENDS
;	COMDAT ??_R1A@?0A@EA@CDialog@@8
rdata$r	SEGMENT
??_R1A@?0A@EA@CDialog@@8 DD FLAT:??_R0?AVCDialog@@@8	; CDialog::`RTTI Base Class Descriptor at (0,-1,0,64)'
	DD	03H
	DD	00H
	DD	0ffffffffH
	DD	00H
	DD	040H
	DD	FLAT:??_R3CDialog@@8
rdata$r	ENDS
;	COMDAT ??_R2CCmdTarget@@8
rdata$r	SEGMENT
??_R2CCmdTarget@@8 DD FLAT:??_R1A@?0A@EA@CCmdTarget@@8	; CCmdTarget::`RTTI Base Class Array'
	DD	FLAT:??_R1A@?0A@EA@CObject@@8
rdata$r	ENDS
;	COMDAT ??_R3CCmdTarget@@8
rdata$r	SEGMENT
??_R3CCmdTarget@@8 DD 00H				; CCmdTarget::`RTTI Class Hierarchy Descriptor'
	DD	00H
	DD	02H
	DD	FLAT:??_R2CCmdTarget@@8
rdata$r	ENDS
;	COMDAT ??_R0?AVCCmdTarget@@@8
data$rs	SEGMENT
??_R0?AVCCmdTarget@@@8 DD FLAT:??_7type_info@@6B@	; CCmdTarget `RTTI Type Descriptor'
	DD	00H
	DB	'.?AVCCmdTarget@@', 00H
data$rs	ENDS
;	COMDAT ??_R1A@?0A@EA@CCmdTarget@@8
rdata$r	SEGMENT
??_R1A@?0A@EA@CCmdTarget@@8 DD FLAT:??_R0?AVCCmdTarget@@@8 ; CCmdTarget::`RTTI Base Class Descriptor at (0,-1,0,64)'
	DD	01H
	DD	00H
	DD	0ffffffffH
	DD	00H
	DD	040H
	DD	FLAT:??_R3CCmdTarget@@8
rdata$r	ENDS
;	COMDAT ??_R2CWnd@@8
rdata$r	SEGMENT
??_R2CWnd@@8 DD	FLAT:??_R1A@?0A@EA@CWnd@@8		; CWnd::`RTTI Base Class Array'
	DD	FLAT:??_R1A@?0A@EA@CCmdTarget@@8
	DD	FLAT:??_R1A@?0A@EA@CObject@@8
rdata$r	ENDS
;	COMDAT ??_R3CWnd@@8
rdata$r	SEGMENT
??_R3CWnd@@8 DD	00H					; CWnd::`RTTI Class Hierarchy Descriptor'
	DD	00H
	DD	03H
	DD	FLAT:??_R2CWnd@@8
rdata$r	ENDS
;	COMDAT ??_R0?AVCWnd@@@8
data$rs	SEGMENT
??_R0?AVCWnd@@@8 DD FLAT:??_7type_info@@6B@		; CWnd `RTTI Type Descriptor'
	DD	00H
	DB	'.?AVCWnd@@', 00H
data$rs	ENDS
;	COMDAT ??_R1A@?0A@EA@CWnd@@8
rdata$r	SEGMENT
??_R1A@?0A@EA@CWnd@@8 DD FLAT:??_R0?AVCWnd@@@8		; CWnd::`RTTI Base Class Descriptor at (0,-1,0,64)'
	DD	02H
	DD	00H
	DD	0ffffffffH
	DD	00H
	DD	040H
	DD	FLAT:??_R3CWnd@@8
rdata$r	ENDS
;	COMDAT ??_R1A@?0A@EA@CMenu@@8
rdata$r	SEGMENT
??_R1A@?0A@EA@CMenu@@8 DD FLAT:??_R0?AVCMenu@@@8	; CMenu::`RTTI Base Class Descriptor at (0,-1,0,64)'
	DD	01H
	DD	00H
	DD	0ffffffffH
	DD	00H
	DD	040H
	DD	FLAT:??_R3CMenu@@8
rdata$r	ENDS
;	COMDAT ??_R2CMenu@@8
rdata$r	SEGMENT
??_R2CMenu@@8 DD FLAT:??_R1A@?0A@EA@CMenu@@8		; CMenu::`RTTI Base Class Array'
	DD	FLAT:??_R1A@?0A@EA@CObject@@8
rdata$r	ENDS
;	COMDAT ??_R3CMenu@@8
rdata$r	SEGMENT
??_R3CMenu@@8 DD 00H					; CMenu::`RTTI Class Hierarchy Descriptor'
	DD	00H
	DD	02H
	DD	FLAT:??_R2CMenu@@8
rdata$r	ENDS
;	COMDAT ??_R0?AVCMenu@@@8
data$rs	SEGMENT
??_R0?AVCMenu@@@8 DD FLAT:??_7type_info@@6B@		; CMenu `RTTI Type Descriptor'
	DD	00H
	DB	'.?AVCMenu@@', 00H
data$rs	ENDS
;	COMDAT ??_R4CMenu@@6B@
rdata$r	SEGMENT
??_R4CMenu@@6B@ DD 00H					; CMenu::`RTTI Complete Object Locator'
	DD	00H
	DD	00H
	DD	FLAT:??_R0?AVCMenu@@@8
	DD	FLAT:??_R3CMenu@@8
rdata$r	ENDS
;	COMDAT ??_R1A@?0A@EA@CBitmap@@8
rdata$r	SEGMENT
??_R1A@?0A@EA@CBitmap@@8 DD FLAT:??_R0?AVCBitmap@@@8	; CBitmap::`RTTI Base Class Descriptor at (0,-1,0,64)'
	DD	02H
	DD	00H
	DD	0ffffffffH
	DD	00H
	DD	040H
	DD	FLAT:??_R3CBitmap@@8
rdata$r	ENDS
;	COMDAT ??_R2CBitmap@@8
rdata$r	SEGMENT
??_R2CBitmap@@8 DD FLAT:??_R1A@?0A@EA@CBitmap@@8	; CBitmap::`RTTI Base Class Array'
	DD	FLAT:??_R1A@?0A@EA@CGdiObject@@8
	DD	FLAT:??_R1A@?0A@EA@CObject@@8
rdata$r	ENDS
;	COMDAT ??_R3CBitmap@@8
rdata$r	SEGMENT
??_R3CBitmap@@8 DD 00H					; CBitmap::`RTTI Class Hierarchy Descriptor'
	DD	00H
	DD	03H
	DD	FLAT:??_R2CBitmap@@8
rdata$r	ENDS
;	COMDAT ??_R0?AVCBitmap@@@8
data$rs	SEGMENT
??_R0?AVCBitmap@@@8 DD FLAT:??_7type_info@@6B@		; CBitmap `RTTI Type Descriptor'
	DD	00H
	DB	'.?AVCBitmap@@', 00H
data$rs	ENDS
;	COMDAT ??_R4CBitmap@@6B@
rdata$r	SEGMENT
??_R4CBitmap@@6B@ DD 00H				; CBitmap::`RTTI Complete Object Locator'
	DD	00H
	DD	00H
	DD	FLAT:??_R0?AVCBitmap@@@8
	DD	FLAT:??_R3CBitmap@@8
rdata$r	ENDS
;	COMDAT ??_R1A@?0A@EA@CGdiObject@@8
rdata$r	SEGMENT
??_R1A@?0A@EA@CGdiObject@@8 DD FLAT:??_R0?AVCGdiObject@@@8 ; CGdiObject::`RTTI Base Class Descriptor at (0,-1,0,64)'
	DD	01H
	DD	00H
	DD	0ffffffffH
	DD	00H
	DD	040H
	DD	FLAT:??_R3CGdiObject@@8
rdata$r	ENDS
;	COMDAT ??_R2CGdiObject@@8
rdata$r	SEGMENT
??_R2CGdiObject@@8 DD FLAT:??_R1A@?0A@EA@CGdiObject@@8	; CGdiObject::`RTTI Base Class Array'
	DD	FLAT:??_R1A@?0A@EA@CObject@@8
rdata$r	ENDS
;	COMDAT ??_R3CGdiObject@@8
rdata$r	SEGMENT
??_R3CGdiObject@@8 DD 00H				; CGdiObject::`RTTI Class Hierarchy Descriptor'
	DD	00H
	DD	02H
	DD	FLAT:??_R2CGdiObject@@8
rdata$r	ENDS
;	COMDAT ??_R0?AVCGdiObject@@@8
data$rs	SEGMENT
??_R0?AVCGdiObject@@@8 DD FLAT:??_7type_info@@6B@	; CGdiObject `RTTI Type Descriptor'
	DD	00H
	DB	'.?AVCGdiObject@@', 00H
data$rs	ENDS
;	COMDAT ??_R4CGdiObject@@6B@
rdata$r	SEGMENT
??_R4CGdiObject@@6B@ DD 00H				; CGdiObject::`RTTI Complete Object Locator'
	DD	00H
	DD	00H
	DD	FLAT:??_R0?AVCGdiObject@@@8
	DD	FLAT:??_R3CGdiObject@@8
rdata$r	ENDS
;	COMDAT ??_R1A@?0A@EA@CObject@@8
rdata$r	SEGMENT
??_R1A@?0A@EA@CObject@@8 DD FLAT:??_R0?AVCObject@@@8	; CObject::`RTTI Base Class Descriptor at (0,-1,0,64)'
	DD	00H
	DD	00H
	DD	0ffffffffH
	DD	00H
	DD	040H
	DD	FLAT:??_R3CObject@@8
rdata$r	ENDS
;	COMDAT ??_R2CObject@@8
rdata$r	SEGMENT
??_R2CObject@@8 DD FLAT:??_R1A@?0A@EA@CObject@@8	; CObject::`RTTI Base Class Array'
rdata$r	ENDS
;	COMDAT ??_R3CObject@@8
rdata$r	SEGMENT
??_R3CObject@@8 DD 00H					; CObject::`RTTI Class Hierarchy Descriptor'
	DD	00H
	DD	01H
	DD	FLAT:??_R2CObject@@8
rdata$r	ENDS
;	COMDAT ??_R0?AVCObject@@@8
data$rs	SEGMENT
??_R0?AVCObject@@@8 DD FLAT:??_7type_info@@6B@		; CObject `RTTI Type Descriptor'
	DD	00H
	DB	'.?AVCObject@@', 00H
data$rs	ENDS
;	COMDAT ??_C@_01GBGANLPD@0@
CONST	SEGMENT
??_C@_01GBGANLPD@0@ DB '0', 00H				; `string'
CONST	ENDS
;	COMDAT ??_C@_01KICIPPFI@?2@
CONST	SEGMENT
??_C@_01KICIPPFI@?2@ DB '\', 00H			; `string'
CONST	ENDS
;	COMDAT ??_C@_02EMFKHFLK@?$CFX@
CONST	SEGMENT
??_C@_02EMFKHFLK@?$CFX@ DB '%X', 00H			; `string'
CONST	ENDS
;	COMDAT ??_C@_06NDLAHCHE@?$CFs?$CF08X@
CONST	SEGMENT
??_C@_06NDLAHCHE@?$CFs?$CF08X@ DB '%s%08X', 00H		; `string'
CONST	ENDS
;	COMDAT ??_C@_0P@IDMAJEGN@HANAROPCTRMAIN@
CONST	SEGMENT
??_C@_0P@IDMAJEGN@HANAROPCTRMAIN@ DB 'HANAROPCTRMAIN', 00H ; `string'
CONST	ENDS
;	COMDAT ??_C@_0M@CBBNGGHM@PcTrMng?4dll@
CONST	SEGMENT
??_C@_0M@CBBNGGHM@PcTrMng?4dll@ DB 'PcTrMng.dll', 00H	; `string'
CONST	ENDS
;	COMDAT ??_C@_02DKCKIIND@?$CFs@
CONST	SEGMENT
??_C@_02DKCKIIND@?$CFs@ DB '%s', 00H			; `string'
CONST	ENDS
;	COMDAT ??_C@_01HIHLOKLC@1@
CONST	SEGMENT
??_C@_01HIHLOKLC@1@ DB '1', 00H				; `string'
CONST	ENDS
;	COMDAT ??_C@_0N@OMEMOKLE@?$CFTs?5?$CI?$CFTs?3?$CFd?$CJ@
CONST	SEGMENT
??_C@_0N@OMEMOKLE@?$CFTs?5?$CI?$CFTs?3?$CFd?$CJ@ DB '%Ts (%Ts:%d)', 00H ; `string'
CONST	ENDS
;	COMDAT ??_C@_0BB@HBOOMJBF@?$CFTs?5?$CI?$CFTs?3?$CFd?$CJ?6?$CFTs@
CONST	SEGMENT
??_C@_0BB@HBOOMJBF@?$CFTs?5?$CI?$CFTs?3?$CFd?$CJ?6?$CFTs@ DB '%Ts (%Ts:%d'
	DB	')', 0aH, '%Ts', 00H				; `string'
CONST	ENDS
;	COMDAT ??_C@_0BP@OIEOKIDM@Exception?5thrown?5in?5destructor@
CONST	SEGMENT
??_C@_0BP@OIEOKIDM@Exception?5thrown?5in?5destructor@ DB 'Exception throw'
	DB	'n in destructor', 00H			; `string'
CONST	ENDS
;	COMDAT ??_C@_0HD@JJCHHHNK@C?3?2Program?5Files?5?$CIx86?$CJ?2Microsof@
CONST	SEGMENT
??_C@_0HD@JJCHHHNK@C?3?2Program?5Files?5?$CIx86?$CJ?2Microsof@ DB 'C:\Pro'
	DB	'gram Files (x86)\Microsoft Visual Studio\2019\Community\VC\To'
	DB	'ols\MSVC\14.29.30133\atlmfc\include\afxwin1.inl', 00H ; `string'
CONST	ENDS
;	COMDAT ??_7CMenu@@6B@
CONST	SEGMENT
??_7CMenu@@6B@ DD FLAT:??_R4CMenu@@6B@			; CMenu::`vftable'
	DD	FLAT:?GetRuntimeClass@CMenu@@UBEPAUCRuntimeClass@@XZ
	DD	FLAT:??_ECMenu@@UAEPAXI@Z
	DD	FLAT:?Serialize@CObject@@UAEXAAVCArchive@@@Z
	DD	FLAT:?AssertValid@CObject@@UBEXXZ
	DD	FLAT:?Dump@CObject@@UBEXAAVCDumpContext@@@Z
	DD	FLAT:?DrawItem@CMenu@@UAEXPAUtagDRAWITEMSTRUCT@@@Z
	DD	FLAT:?MeasureItem@CMenu@@UAEXPAUtagMEASUREITEMSTRUCT@@@Z
CONST	ENDS
;	COMDAT ??_7CBitmap@@6B@
CONST	SEGMENT
??_7CBitmap@@6B@ DD FLAT:??_R4CBitmap@@6B@		; CBitmap::`vftable'
	DD	FLAT:?GetRuntimeClass@CBitmap@@UBEPAUCRuntimeClass@@XZ
	DD	FLAT:??_ECBitmap@@UAEPAXI@Z
	DD	FLAT:?Serialize@CObject@@UAEXAAVCArchive@@@Z
	DD	FLAT:?AssertValid@CObject@@UBEXXZ
	DD	FLAT:?Dump@CObject@@UBEXAAVCDumpContext@@@Z
CONST	ENDS
;	COMDAT ??_7CGdiObject@@6B@
CONST	SEGMENT
??_7CGdiObject@@6B@ DD FLAT:??_R4CGdiObject@@6B@	; CGdiObject::`vftable'
	DD	FLAT:?GetRuntimeClass@CGdiObject@@UBEPAUCRuntimeClass@@XZ
	DD	FLAT:??_ECGdiObject@@UAEPAXI@Z
	DD	FLAT:?Serialize@CObject@@UAEXAAVCArchive@@@Z
	DD	FLAT:?AssertValid@CObject@@UBEXXZ
	DD	FLAT:?Dump@CObject@@UBEXAAVCDumpContext@@@Z
CONST	ENDS
;	COMDAT ??_C@_00CNPNBAHC@@
CONST	SEGMENT
??_C@_00CNPNBAHC@@ DB 00H				; `string'
CONST	ENDS
;	COMDAT ?_AtlWinModule@ATL@@3VCAtlWinModule@1@A
_DATA	SEGMENT
?_AtlWinModule@ATL@@3VCAtlWinModule@1@A DD 02cH		; ATL::_AtlWinModule
	DB	24 DUP(00H)
	DD	00H
_DATA	ENDS
;	COMDAT ??_C@_02DPKJAMEF@?$CFd@
CONST	SEGMENT
??_C@_02DPKJAMEF@?$CFd@ DB '%d', 00H			; `string'
CONST	ENDS
;	COMDAT ??_R0PAVCException@@@8
data$r	SEGMENT
??_R0PAVCException@@@8 DD FLAT:??_7type_info@@6B@	; CException * `RTTI Type Descriptor'
	DD	00H
	DB	'.PAVCException@@', 00H
data$r	ENDS
;	COMDAT xdata$x
xdata$x	SEGMENT
__unwindtable$?DoDirFileRemove@CAZUtil_FileManager@@SAHPBD0H@Z DD 0ffffffffH
	DD	FLAT:__unwindfunclet$?DoDirFileRemove@CAZUtil_FileManager@@SAHPBD0H@Z$0
	DD	00H
	DD	FLAT:__unwindfunclet$?DoDirFileRemove@CAZUtil_FileManager@@SAHPBD0H@Z$1
	DD	01H
	DD	FLAT:__unwindfunclet$?DoDirFileRemove@CAZUtil_FileManager@@SAHPBD0H@Z$2
__ehfuncinfo$?DoDirFileRemove@CAZUtil_FileManager@@SAHPBD0H@Z DD 019930522H
	DD	03H
	DD	FLAT:__unwindtable$?DoDirFileRemove@CAZUtil_FileManager@@SAHPBD0H@Z
	DD	2 DUP(00H)
	DD	2 DUP(00H)
	DD	00H
	DD	01H
xdata$x	ENDS
;	COMDAT xdata$x
xdata$x	SEGMENT
__unwindtable$?SetComma@@YA?AV?$CStringT@DV?$StrTraitMFC_DLL@DV?$ChTraitsCRT@D@ATL@@@@@ATL@@V12@H@Z DD 0ffffffffH
	DD	FLAT:__unwindfunclet$?SetComma@@YA?AV?$CStringT@DV?$StrTraitMFC_DLL@DV?$ChTraitsCRT@D@ATL@@@@@ATL@@V12@H@Z$0
	DD	00H
	DD	FLAT:__unwindfunclet$?SetComma@@YA?AV?$CStringT@DV?$StrTraitMFC_DLL@DV?$ChTraitsCRT@D@ATL@@@@@ATL@@V12@H@Z$1
	DD	01H
	DD	FLAT:__unwindfunclet$?SetComma@@YA?AV?$CStringT@DV?$StrTraitMFC_DLL@DV?$ChTraitsCRT@D@ATL@@@@@ATL@@V12@H@Z$2
	DD	02H
	DD	FLAT:__unwindfunclet$?SetComma@@YA?AV?$CStringT@DV?$StrTraitMFC_DLL@DV?$ChTraitsCRT@D@ATL@@@@@ATL@@V12@H@Z$4
__ehfuncinfo$?SetComma@@YA?AV?$CStringT@DV?$StrTraitMFC_DLL@DV?$ChTraitsCRT@D@ATL@@@@@ATL@@V12@H@Z DD 019930522H
	DD	04H
	DD	FLAT:__unwindtable$?SetComma@@YA?AV?$CStringT@DV?$StrTraitMFC_DLL@DV?$ChTraitsCRT@D@ATL@@@@@ATL@@V12@H@Z
	DD	2 DUP(00H)
	DD	2 DUP(00H)
	DD	00H
	DD	01H
xdata$x	ENDS
;	COMDAT xdata$x
xdata$x	SEGMENT
__unwindtable$?Parser@@YA?AV?$CStringT@DV?$StrTraitMFC_DLL@DV?$ChTraitsCRT@D@ATL@@@@@ATL@@PBDPAH@Z DD 0ffffffffH
	DD	FLAT:__unwindfunclet$?Parser@@YA?AV?$CStringT@DV?$StrTraitMFC_DLL@DV?$ChTraitsCRT@D@ATL@@@@@ATL@@PBDPAH@Z$1
__ehfuncinfo$?Parser@@YA?AV?$CStringT@DV?$StrTraitMFC_DLL@DV?$ChTraitsCRT@D@ATL@@@@@ATL@@PBDPAH@Z DD 019930522H
	DD	01H
	DD	FLAT:__unwindtable$?Parser@@YA?AV?$CStringT@DV?$StrTraitMFC_DLL@DV?$ChTraitsCRT@D@ATL@@@@@ATL@@PBDPAH@Z
	DD	2 DUP(00H)
	DD	2 DUP(00H)
	DD	00H
	DD	01H
xdata$x	ENDS
;	COMDAT xdata$x
xdata$x	SEGMENT
__unwindtable$??1CStdDialog@@UAE@XZ DD 0ffffffffH
	DD	FLAT:___std_terminate
	DD	0ffffffffH
	DD	FLAT:___std_terminate
	DD	0ffffffffH
	DD	FLAT:___std_terminate
	DD	0ffffffffH
	DD	FLAT:___std_terminate
__ehfuncinfo$??1CStdDialog@@UAE@XZ DD 019930522H
	DD	04H
	DD	FLAT:__unwindtable$??1CStdDialog@@UAE@XZ
	DD	2 DUP(00H)
	DD	2 DUP(00H)
	DD	00H
	DD	05H
xdata$x	ENDS
;	COMDAT xdata$x
xdata$x	SEGMENT
__unwindtable$?CallStandByTr@CStdDialog@@QAEXXZ DD 0ffffffffH
	DD	FLAT:__unwindfunclet$?CallStandByTr@CStdDialog@@QAEXXZ$0
	DD	00H
	DD	FLAT:__unwindfunclet$?CallStandByTr@CStdDialog@@QAEXXZ$1
__ehfuncinfo$?CallStandByTr@CStdDialog@@QAEXXZ DD 019930522H
	DD	02H
	DD	FLAT:__unwindtable$?CallStandByTr@CStdDialog@@QAEXXZ
	DD	2 DUP(00H)
	DD	2 DUP(00H)
	DD	00H
	DD	01H
xdata$x	ENDS
;	COMDAT xdata$x
xdata$x	SEGMENT
__unwindtable$?AddStandByTrCall@CStdDialog@@QAEXV?$CStringT@DV?$StrTraitMFC_DLL@DV?$ChTraitsCRT@D@ATL@@@@@ATL@@@Z DD 0ffffffffH
	DD	FLAT:__unwindfunclet$?AddStandByTrCall@CStdDialog@@QAEXV?$CStringT@DV?$StrTraitMFC_DLL@DV?$ChTraitsCRT@D@ATL@@@@@ATL@@@Z$0
	DD	00H
	DD	FLAT:__unwindfunclet$?AddStandByTrCall@CStdDialog@@QAEXV?$CStringT@DV?$StrTraitMFC_DLL@DV?$ChTraitsCRT@D@ATL@@@@@ATL@@@Z$1
__ehfuncinfo$?AddStandByTrCall@CStdDialog@@QAEXV?$CStringT@DV?$StrTraitMFC_DLL@DV?$ChTraitsCRT@D@ATL@@@@@ATL@@@Z DD 019930522H
	DD	02H
	DD	FLAT:__unwindtable$?AddStandByTrCall@CStdDialog@@QAEXV?$CStringT@DV?$StrTraitMFC_DLL@DV?$ChTraitsCRT@D@ATL@@@@@ATL@@@Z
	DD	2 DUP(00H)
	DD	2 DUP(00H)
	DD	00H
	DD	01H
xdata$x	ENDS
;	COMDAT xdata$x
xdata$x	SEGMENT
__ehfuncinfo$?_DoCopyDefaultToUser@CStdDialog@@QAEXPBD@Z DD 019930522H
	DD	07H
	DD	FLAT:__unwindtable$?_DoCopyDefaultToUser@CStdDialog@@QAEXPBD@Z
	DD	2 DUP(00H)
	DD	2 DUP(00H)
	DD	00H
	DD	01H
__unwindtable$?_DoCopyDefaultToUser@CStdDialog@@QAEXPBD@Z DD 0ffffffffH
	DD	FLAT:__unwindfunclet$?_DoCopyDefaultToUser@CStdDialog@@QAEXPBD@Z$0
	DD	00H
	DD	FLAT:__unwindfunclet$?_DoCopyDefaultToUser@CStdDialog@@QAEXPBD@Z$1
	DD	01H
	DD	FLAT:__unwindfunclet$?_DoCopyDefaultToUser@CStdDialog@@QAEXPBD@Z$2
	DD	02H
	DD	FLAT:__unwindfunclet$?_DoCopyDefaultToUser@CStdDialog@@QAEXPBD@Z$3
	DD	03H
	DD	FLAT:__unwindfunclet$?_DoCopyDefaultToUser@CStdDialog@@QAEXPBD@Z$4
	DD	04H
	DD	FLAT:__unwindfunclet$?_DoCopyDefaultToUser@CStdDialog@@QAEXPBD@Z$5
	DD	05H
	DD	FLAT:__unwindfunclet$?_DoCopyDefaultToUser@CStdDialog@@QAEXPBD@Z$6
xdata$x	ENDS
;	COMDAT xdata$x
xdata$x	SEGMENT
__ehfuncinfo$?_DoCheckDaultDataFile@CStdDialog@@QAEXXZ DD 019930522H
	DD	05H
	DD	FLAT:__unwindtable$?_DoCheckDaultDataFile@CStdDialog@@QAEXXZ
	DD	2 DUP(00H)
	DD	2 DUP(00H)
	DD	00H
	DD	01H
__unwindtable$?_DoCheckDaultDataFile@CStdDialog@@QAEXXZ DD 0ffffffffH
	DD	FLAT:__unwindfunclet$?_DoCheckDaultDataFile@CStdDialog@@QAEXXZ$0
	DD	00H
	DD	FLAT:__unwindfunclet$?_DoCheckDaultDataFile@CStdDialog@@QAEXXZ$1
	DD	01H
	DD	FLAT:__unwindfunclet$?_DoCheckDaultDataFile@CStdDialog@@QAEXXZ$2
	DD	02H
	DD	FLAT:__unwindfunclet$?_DoCheckDaultDataFile@CStdDialog@@QAEXXZ$3
	DD	03H
	DD	FLAT:__unwindfunclet$?_DoCheckDaultDataFile@CStdDialog@@QAEXXZ$7
xdata$x	ENDS
;	COMDAT xdata$x
xdata$x	SEGMENT
__ehfuncinfo$?_DoVersionCheck_ChartDef@CStdDialog@@QAEXXZ DD 019930522H
	DD	07H
	DD	FLAT:__unwindtable$?_DoVersionCheck_ChartDef@CStdDialog@@QAEXXZ
	DD	2 DUP(00H)
	DD	2 DUP(00H)
	DD	00H
	DD	01H
__unwindtable$?_DoVersionCheck_ChartDef@CStdDialog@@QAEXXZ DD 0ffffffffH
	DD	FLAT:__unwindfunclet$?_DoVersionCheck_ChartDef@CStdDialog@@QAEXXZ$0
	DD	00H
	DD	FLAT:__unwindfunclet$?_DoVersionCheck_ChartDef@CStdDialog@@QAEXXZ$1
	DD	01H
	DD	FLAT:__unwindfunclet$?_DoVersionCheck_ChartDef@CStdDialog@@QAEXXZ$2
	DD	02H
	DD	FLAT:__unwindfunclet$?_DoVersionCheck_ChartDef@CStdDialog@@QAEXXZ$3
	DD	03H
	DD	FLAT:__unwindfunclet$?_DoVersionCheck_ChartDef@CStdDialog@@QAEXXZ$4
	DD	04H
	DD	FLAT:__unwindfunclet$?_DoVersionCheck_ChartDef@CStdDialog@@QAEXXZ$5
	DD	05H
	DD	FLAT:__unwindfunclet$?_DoVersionCheck_ChartDef@CStdDialog@@QAEXXZ$6
xdata$x	ENDS
;	COMDAT xdata$x
xdata$x	SEGMENT
__unwindtable$?CharToString@CStdDialog@@QAE?AV?$CStringT@DV?$StrTraitMFC_DLL@DV?$ChTraitsCRT@D@ATL@@@@@ATL@@PADHH@Z DD 0ffffffffH
	DD	FLAT:__unwindfunclet$?CharToString@CStdDialog@@QAE?AV?$CStringT@DV?$StrTraitMFC_DLL@DV?$ChTraitsCRT@D@ATL@@@@@ATL@@PADHH@Z$0
__ehfuncinfo$?CharToString@CStdDialog@@QAE?AV?$CStringT@DV?$StrTraitMFC_DLL@DV?$ChTraitsCRT@D@ATL@@@@@ATL@@PADHH@Z DD 019930522H
	DD	01H
	DD	FLAT:__unwindtable$?CharToString@CStdDialog@@QAE?AV?$CStringT@DV?$StrTraitMFC_DLL@DV?$ChTraitsCRT@D@ATL@@@@@ATL@@PADHH@Z
	DD	2 DUP(00H)
	DD	2 DUP(00H)
	DD	00H
	DD	01H
xdata$x	ENDS
;	COMDAT xdata$x
xdata$x	SEGMENT
__unwindtable$?IsChartScreen@CStdDialog@@QAEHPBD@Z DD 0ffffffffH
	DD	FLAT:__unwindfunclet$?IsChartScreen@CStdDialog@@QAEHPBD@Z$2
	DD	0ffffffffH
	DD	FLAT:__unwindfunclet$?IsChartScreen@CStdDialog@@QAEHPBD@Z$3
__ehfuncinfo$?IsChartScreen@CStdDialog@@QAEHPBD@Z DD 019930522H
	DD	02H
	DD	FLAT:__unwindtable$?IsChartScreen@CStdDialog@@QAEHPBD@Z
	DD	2 DUP(00H)
	DD	2 DUP(00H)
	DD	00H
	DD	01H
xdata$x	ENDS
;	COMDAT xdata$x
xdata$x	SEGMENT
__ehfuncinfo$?DoClearUserChartData@CStdDialog@@QAEXXZ DD 019930522H
	DD	05H
	DD	FLAT:__unwindtable$?DoClearUserChartData@CStdDialog@@QAEXXZ
	DD	2 DUP(00H)
	DD	2 DUP(00H)
	DD	00H
	DD	01H
__unwindtable$?DoClearUserChartData@CStdDialog@@QAEXXZ DD 0ffffffffH
	DD	FLAT:__unwindfunclet$?DoClearUserChartData@CStdDialog@@QAEXXZ$0
	DD	00H
	DD	FLAT:__unwindfunclet$?DoClearUserChartData@CStdDialog@@QAEXXZ$1
	DD	01H
	DD	FLAT:__unwindfunclet$?DoClearUserChartData@CStdDialog@@QAEXXZ$2
	DD	02H
	DD	FLAT:__unwindfunclet$?DoClearUserChartData@CStdDialog@@QAEXXZ$3
	DD	03H
	DD	FLAT:__unwindfunclet$?DoClearUserChartData@CStdDialog@@QAEXXZ$4
xdata$x	ENDS
;	COMDAT xdata$x
xdata$x	SEGMENT
__unwindtable$?_DoFirstRequest@CStdDialog@@QAEXXZ DD 0ffffffffH
	DD	FLAT:__unwindfunclet$?_DoFirstRequest@CStdDialog@@QAEXXZ$0
	DD	00H
	DD	FLAT:__unwindfunclet$?_DoFirstRequest@CStdDialog@@QAEXXZ$1
	DD	01H
	DD	FLAT:__unwindfunclet$?_DoFirstRequest@CStdDialog@@QAEXXZ$2
	DD	02H
	DD	FLAT:__unwindfunclet$?_DoFirstRequest@CStdDialog@@QAEXXZ$5
__ehfuncinfo$?_DoFirstRequest@CStdDialog@@QAEXXZ DD 019930522H
	DD	04H
	DD	FLAT:__unwindtable$?_DoFirstRequest@CStdDialog@@QAEXXZ
	DD	2 DUP(00H)
	DD	2 DUP(00H)
	DD	00H
	DD	01H
xdata$x	ENDS
;	COMDAT xdata$x
xdata$x	SEGMENT
__ehfuncinfo$?GetFirstCode@CStdDialog@@QAEHAAV?$CStringT@DV?$StrTraitMFC_DLL@DV?$ChTraitsCRT@D@ATL@@@@@ATL@@HAAH@Z DD 019930522H
	DD	013H
	DD	FLAT:__unwindtable$?GetFirstCode@CStdDialog@@QAEHAAV?$CStringT@DV?$StrTraitMFC_DLL@DV?$ChTraitsCRT@D@ATL@@@@@ATL@@HAAH@Z
	DD	2 DUP(00H)
	DD	2 DUP(00H)
	DD	00H
	DD	01H
__unwindtable$?GetFirstCode@CStdDialog@@QAEHAAV?$CStringT@DV?$StrTraitMFC_DLL@DV?$ChTraitsCRT@D@ATL@@@@@ATL@@HAAH@Z DD 0ffffffffH
	DD	FLAT:__unwindfunclet$?GetFirstCode@CStdDialog@@QAEHAAV?$CStringT@DV?$StrTraitMFC_DLL@DV?$ChTraitsCRT@D@ATL@@@@@ATL@@HAAH@Z$21
	DD	0ffffffffH
	DD	FLAT:__unwindfunclet$?GetFirstCode@CStdDialog@@QAEHAAV?$CStringT@DV?$StrTraitMFC_DLL@DV?$ChTraitsCRT@D@ATL@@@@@ATL@@HAAH@Z$1
	DD	01H
	DD	FLAT:__unwindfunclet$?GetFirstCode@CStdDialog@@QAEHAAV?$CStringT@DV?$StrTraitMFC_DLL@DV?$ChTraitsCRT@D@ATL@@@@@ATL@@HAAH@Z$2
	DD	02H
	DD	FLAT:__unwindfunclet$?GetFirstCode@CStdDialog@@QAEHAAV?$CStringT@DV?$StrTraitMFC_DLL@DV?$ChTraitsCRT@D@ATL@@@@@ATL@@HAAH@Z$3
	DD	03H
	DD	FLAT:__unwindfunclet$?GetFirstCode@CStdDialog@@QAEHAAV?$CStringT@DV?$StrTraitMFC_DLL@DV?$ChTraitsCRT@D@ATL@@@@@ATL@@HAAH@Z$4
	DD	04H
	DD	FLAT:__unwindfunclet$?GetFirstCode@CStdDialog@@QAEHAAV?$CStringT@DV?$StrTraitMFC_DLL@DV?$ChTraitsCRT@D@ATL@@@@@ATL@@HAAH@Z$5
	DD	04H
	DD	FLAT:__unwindfunclet$?GetFirstCode@CStdDialog@@QAEHAAV?$CStringT@DV?$StrTraitMFC_DLL@DV?$ChTraitsCRT@D@ATL@@@@@ATL@@HAAH@Z$6
	DD	04H
	DD	FLAT:__unwindfunclet$?GetFirstCode@CStdDialog@@QAEHAAV?$CStringT@DV?$StrTraitMFC_DLL@DV?$ChTraitsCRT@D@ATL@@@@@ATL@@HAAH@Z$7
	DD	04H
	DD	FLAT:__unwindfunclet$?GetFirstCode@CStdDialog@@QAEHAAV?$CStringT@DV?$StrTraitMFC_DLL@DV?$ChTraitsCRT@D@ATL@@@@@ATL@@HAAH@Z$8
	DD	08H
	DD	FLAT:__unwindfunclet$?GetFirstCode@CStdDialog@@QAEHAAV?$CStringT@DV?$StrTraitMFC_DLL@DV?$ChTraitsCRT@D@ATL@@@@@ATL@@HAAH@Z$9
	DD	09H
	DD	FLAT:__unwindfunclet$?GetFirstCode@CStdDialog@@QAEHAAV?$CStringT@DV?$StrTraitMFC_DLL@DV?$ChTraitsCRT@D@ATL@@@@@ATL@@HAAH@Z$10
	DD	04H
	DD	FLAT:__unwindfunclet$?GetFirstCode@CStdDialog@@QAEHAAV?$CStringT@DV?$StrTraitMFC_DLL@DV?$ChTraitsCRT@D@ATL@@@@@ATL@@HAAH@Z$11
	DD	0bH
	DD	FLAT:__unwindfunclet$?GetFirstCode@CStdDialog@@QAEHAAV?$CStringT@DV?$StrTraitMFC_DLL@DV?$ChTraitsCRT@D@ATL@@@@@ATL@@HAAH@Z$12
	DD	0cH
	DD	FLAT:__unwindfunclet$?GetFirstCode@CStdDialog@@QAEHAAV?$CStringT@DV?$StrTraitMFC_DLL@DV?$ChTraitsCRT@D@ATL@@@@@ATL@@HAAH@Z$13
	DD	0dH
	DD	FLAT:__unwindfunclet$?GetFirstCode@CStdDialog@@QAEHAAV?$CStringT@DV?$StrTraitMFC_DLL@DV?$ChTraitsCRT@D@ATL@@@@@ATL@@HAAH@Z$14
	DD	0eH
	DD	FLAT:__unwindfunclet$?GetFirstCode@CStdDialog@@QAEHAAV?$CStringT@DV?$StrTraitMFC_DLL@DV?$ChTraitsCRT@D@ATL@@@@@ATL@@HAAH@Z$15
	DD	0fH
	DD	FLAT:__unwindfunclet$?GetFirstCode@CStdDialog@@QAEHAAV?$CStringT@DV?$StrTraitMFC_DLL@DV?$ChTraitsCRT@D@ATL@@@@@ATL@@HAAH@Z$16
	DD	0dH
	DD	FLAT:__unwindfunclet$?GetFirstCode@CStdDialog@@QAEHAAV?$CStringT@DV?$StrTraitMFC_DLL@DV?$ChTraitsCRT@D@ATL@@@@@ATL@@HAAH@Z$17
	DD	04H
	DD	FLAT:__unwindfunclet$?GetFirstCode@CStdDialog@@QAEHAAV?$CStringT@DV?$StrTraitMFC_DLL@DV?$ChTraitsCRT@D@ATL@@@@@ATL@@HAAH@Z$19
xdata$x	ENDS
;	COMDAT xdata$x
xdata$x	SEGMENT
__unwindtable$?DoShareCode@CStdDialog@@QAEXPBD@Z DD 0ffffffffH
	DD	FLAT:__unwindfunclet$?DoShareCode@CStdDialog@@QAEXPBD@Z$0
__ehfuncinfo$?DoShareCode@CStdDialog@@QAEXPBD@Z DD 019930522H
	DD	01H
	DD	FLAT:__unwindtable$?DoShareCode@CStdDialog@@QAEXPBD@Z
	DD	2 DUP(00H)
	DD	2 DUP(00H)
	DD	00H
	DD	01H
xdata$x	ENDS
;	COMDAT xdata$x
xdata$x	SEGMENT
__unwindtable$?HasKey@CStdDialog@@QAEHV?$CStringT@DV?$StrTraitMFC_DLL@DV?$ChTraitsCRT@D@ATL@@@@@ATL@@@Z DD 0ffffffffH
	DD	FLAT:__unwindfunclet$?HasKey@CStdDialog@@QAEHV?$CStringT@DV?$StrTraitMFC_DLL@DV?$ChTraitsCRT@D@ATL@@@@@ATL@@@Z$0
	DD	00H
	DD	FLAT:__unwindfunclet$?HasKey@CStdDialog@@QAEHV?$CStringT@DV?$StrTraitMFC_DLL@DV?$ChTraitsCRT@D@ATL@@@@@ATL@@@Z$2
	DD	01H
	DD	FLAT:__unwindfunclet$?HasKey@CStdDialog@@QAEHV?$CStringT@DV?$StrTraitMFC_DLL@DV?$ChTraitsCRT@D@ATL@@@@@ATL@@@Z$3
	DD	02H
	DD	FLAT:__unwindfunclet$?HasKey@CStdDialog@@QAEHV?$CStringT@DV?$StrTraitMFC_DLL@DV?$ChTraitsCRT@D@ATL@@@@@ATL@@@Z$4
__ehfuncinfo$?HasKey@CStdDialog@@QAEHV?$CStringT@DV?$StrTraitMFC_DLL@DV?$ChTraitsCRT@D@ATL@@@@@ATL@@@Z DD 019930522H
	DD	04H
	DD	FLAT:__unwindtable$?HasKey@CStdDialog@@QAEHV?$CStringT@DV?$StrTraitMFC_DLL@DV?$ChTraitsCRT@D@ATL@@@@@ATL@@@Z
	DD	2 DUP(00H)
	DD	2 DUP(00H)
	DD	00H
	DD	01H
xdata$x	ENDS
;	COMDAT xdata$x
xdata$x	SEGMENT
__unwindtable$?IsContinueFutCode@CStdDialog@@QAEHAAV?$CStringT@DV?$StrTraitMFC_DLL@DV?$ChTraitsCRT@D@ATL@@@@@ATL@@@Z DD 0ffffffffH
	DD	FLAT:__unwindfunclet$?IsContinueFutCode@CStdDialog@@QAEHAAV?$CStringT@DV?$StrTraitMFC_DLL@DV?$ChTraitsCRT@D@ATL@@@@@ATL@@@Z$0
	DD	00H
	DD	FLAT:__unwindfunclet$?IsContinueFutCode@CStdDialog@@QAEHAAV?$CStringT@DV?$StrTraitMFC_DLL@DV?$ChTraitsCRT@D@ATL@@@@@ATL@@@Z$1
	DD	01H
	DD	FLAT:__unwindfunclet$?IsContinueFutCode@CStdDialog@@QAEHAAV?$CStringT@DV?$StrTraitMFC_DLL@DV?$ChTraitsCRT@D@ATL@@@@@ATL@@@Z$2
	DD	02H
	DD	FLAT:__unwindfunclet$?IsContinueFutCode@CStdDialog@@QAEHAAV?$CStringT@DV?$StrTraitMFC_DLL@DV?$ChTraitsCRT@D@ATL@@@@@ATL@@@Z$3
__ehfuncinfo$?IsContinueFutCode@CStdDialog@@QAEHAAV?$CStringT@DV?$StrTraitMFC_DLL@DV?$ChTraitsCRT@D@ATL@@@@@ATL@@@Z DD 019930522H
	DD	04H
	DD	FLAT:__unwindtable$?IsContinueFutCode@CStdDialog@@QAEHAAV?$CStringT@DV?$StrTraitMFC_DLL@DV?$ChTraitsCRT@D@ATL@@@@@ATL@@@Z
	DD	2 DUP(00H)
	DD	2 DUP(00H)
	DD	00H
	DD	01H
xdata$x	ENDS
;	COMDAT xdata$x
xdata$x	SEGMENT
__unwindtable$??_G?$CList@PAUSTSENDDATAQUE@@PAU1@@@UAEPAXI@Z DD 0ffffffffH
	DD	FLAT:___std_terminate
__ehfuncinfo$??_G?$CList@PAUSTSENDDATAQUE@@PAU1@@@UAEPAXI@Z DD 019930522H
	DD	01H
	DD	FLAT:__unwindtable$??_G?$CList@PAUSTSENDDATAQUE@@PAU1@@@UAEPAXI@Z
	DD	2 DUP(00H)
	DD	2 DUP(00H)
	DD	00H
	DD	05H
xdata$x	ENDS
;	COMDAT xdata$x
xdata$x	SEGMENT
__ehfuncinfo$??1?$CList@PAUSTSENDDATAQUE@@PAU1@@@UAE@XZ DD 019930522H
	DD	00H
	DD	00H
	DD	2 DUP(00H)
	DD	2 DUP(00H)
	DD	00H
	DD	05H
xdata$x	ENDS
;	COMDAT xdata$x
xdata$x	SEGMENT
__unwindtable$?SaveShowInfo@CStdDialog@@QAEXXZ DD 0ffffffffH
	DD	FLAT:__unwindfunclet$?SaveShowInfo@CStdDialog@@QAEXXZ$0
__ehfuncinfo$?SaveShowInfo@CStdDialog@@QAEXXZ DD 019930522H
	DD	01H
	DD	FLAT:__unwindtable$?SaveShowInfo@CStdDialog@@QAEXXZ
	DD	2 DUP(00H)
	DD	2 DUP(00H)
	DD	00H
	DD	01H
xdata$x	ENDS
;	COMDAT xdata$x
xdata$x	SEGMENT
__unwindtable$?SendLastData@CStdDialog@@QAEXXZ DD 0ffffffffH
	DD	FLAT:__unwindfunclet$?SendLastData@CStdDialog@@QAEXXZ$0
__ehfuncinfo$?SendLastData@CStdDialog@@QAEXXZ DD 019930522H
	DD	01H
	DD	FLAT:__unwindtable$?SendLastData@CStdDialog@@QAEXXZ
	DD	2 DUP(00H)
	DD	2 DUP(00H)
	DD	00H
	DD	01H
xdata$x	ENDS
;	COMDAT xdata$x
xdata$x	SEGMENT
__unwindtable$?SendNextData@CStdDialog@@QAEXXZ DD 0ffffffffH
	DD	FLAT:__unwindfunclet$?SendNextData@CStdDialog@@QAEXXZ$1
__ehfuncinfo$?SendNextData@CStdDialog@@QAEXXZ DD 019930522H
	DD	01H
	DD	FLAT:__unwindtable$?SendNextData@CStdDialog@@QAEXXZ
	DD	2 DUP(00H)
	DD	2 DUP(00H)
	DD	00H
	DD	01H
xdata$x	ENDS
;	COMDAT xdata$x
xdata$x	SEGMENT
__unwindtable$?GetScreenNo@CStdDialog@@QAE?AV?$CStringT@DV?$StrTraitMFC_DLL@DV?$ChTraitsCRT@D@ATL@@@@@ATL@@XZ DD 0ffffffffH
	DD	FLAT:__unwindfunclet$?GetScreenNo@CStdDialog@@QAE?AV?$CStringT@DV?$StrTraitMFC_DLL@DV?$ChTraitsCRT@D@ATL@@@@@ATL@@XZ$0
__ehfuncinfo$?GetScreenNo@CStdDialog@@QAE?AV?$CStringT@DV?$StrTraitMFC_DLL@DV?$ChTraitsCRT@D@ATL@@@@@ATL@@XZ DD 019930522H
	DD	01H
	DD	FLAT:__unwindtable$?GetScreenNo@CStdDialog@@QAE?AV?$CStringT@DV?$StrTraitMFC_DLL@DV?$ChTraitsCRT@D@ATL@@@@@ATL@@XZ
	DD	2 DUP(00H)
	DD	2 DUP(00H)
	DD	00H
	DD	01H
xdata$x	ENDS
;	COMDAT xdata$x
xdata$x	SEGMENT
__unwindtable$?GetItemExpCode@CStdDialog@@QAE?AV?$CStringT@DV?$StrTraitMFC_DLL@DV?$ChTraitsCRT@D@ATL@@@@@ATL@@PBD@Z DD 0ffffffffH
	DD	FLAT:__unwindfunclet$?GetItemExpCode@CStdDialog@@QAE?AV?$CStringT@DV?$StrTraitMFC_DLL@DV?$ChTraitsCRT@D@ATL@@@@@ATL@@PBD@Z$0
	DD	00H
	DD	FLAT:__unwindfunclet$?GetItemExpCode@CStdDialog@@QAE?AV?$CStringT@DV?$StrTraitMFC_DLL@DV?$ChTraitsCRT@D@ATL@@@@@ATL@@PBD@Z$1
__ehfuncinfo$?GetItemExpCode@CStdDialog@@QAE?AV?$CStringT@DV?$StrTraitMFC_DLL@DV?$ChTraitsCRT@D@ATL@@@@@ATL@@PBD@Z DD 019930522H
	DD	02H
	DD	FLAT:__unwindtable$?GetItemExpCode@CStdDialog@@QAE?AV?$CStringT@DV?$StrTraitMFC_DLL@DV?$ChTraitsCRT@D@ATL@@@@@ATL@@PBD@Z
	DD	2 DUP(00H)
	DD	2 DUP(00H)
	DD	00H
	DD	01H
xdata$x	ENDS
;	COMDAT xdata$x
xdata$x	SEGMENT
__unwindtable$?IsSystemTradingUser@CStdDialog@@QAEHXZ DD 0ffffffffH
	DD	FLAT:__unwindfunclet$?IsSystemTradingUser@CStdDialog@@QAEHXZ$0
__ehfuncinfo$?IsSystemTradingUser@CStdDialog@@QAEHXZ DD 019930522H
	DD	01H
	DD	FLAT:__unwindtable$?IsSystemTradingUser@CStdDialog@@QAEHXZ
	DD	2 DUP(00H)
	DD	2 DUP(00H)
	DD	00H
	DD	01H
xdata$x	ENDS
;	COMDAT xdata$x
xdata$x	SEGMENT
__unwindtable$?AddAccountCodeItem@CStdDialog@@QAEXPAXJ@Z DD 0ffffffffH
	DD	FLAT:__unwindfunclet$?AddAccountCodeItem@CStdDialog@@QAEXPAXJ@Z$0
	DD	00H
	DD	FLAT:__unwindfunclet$?AddAccountCodeItem@CStdDialog@@QAEXPAXJ@Z$1
	DD	01H
	DD	FLAT:__unwindfunclet$?AddAccountCodeItem@CStdDialog@@QAEXPAXJ@Z$2
__ehfuncinfo$?AddAccountCodeItem@CStdDialog@@QAEXPAXJ@Z DD 019930522H
	DD	03H
	DD	FLAT:__unwindtable$?AddAccountCodeItem@CStdDialog@@QAEXPAXJ@Z
	DD	2 DUP(00H)
	DD	2 DUP(00H)
	DD	00H
	DD	01H
xdata$x	ENDS
;	COMDAT xdata$x
xdata$x	SEGMENT
__ehfuncinfo$?RequestCondUnitPrice@CStdDialog@@QAEXXZ DD 019930522H
	DD	09H
	DD	FLAT:__unwindtable$?RequestCondUnitPrice@CStdDialog@@QAEXXZ
	DD	2 DUP(00H)
	DD	2 DUP(00H)
	DD	00H
	DD	01H
__unwindtable$?RequestCondUnitPrice@CStdDialog@@QAEXXZ DD 0ffffffffH
	DD	FLAT:__unwindfunclet$?RequestCondUnitPrice@CStdDialog@@QAEXXZ$0
	DD	00H
	DD	FLAT:__unwindfunclet$?RequestCondUnitPrice@CStdDialog@@QAEXXZ$1
	DD	0ffffffffH
	DD	FLAT:__unwindfunclet$?RequestCondUnitPrice@CStdDialog@@QAEXXZ$1
	DD	02H
	DD	FLAT:__unwindfunclet$?RequestCondUnitPrice@CStdDialog@@QAEXXZ$2
	DD	03H
	DD	FLAT:__unwindfunclet$?RequestCondUnitPrice@CStdDialog@@QAEXXZ$3
	DD	04H
	DD	FLAT:__unwindfunclet$?RequestCondUnitPrice@CStdDialog@@QAEXXZ$4
	DD	05H
	DD	FLAT:__unwindfunclet$?RequestCondUnitPrice@CStdDialog@@QAEXXZ$5
	DD	06H
	DD	FLAT:__unwindfunclet$?RequestCondUnitPrice@CStdDialog@@QAEXXZ$6
	DD	06H
	DD	FLAT:__unwindfunclet$?RequestCondUnitPrice@CStdDialog@@QAEXXZ$8
xdata$x	ENDS
;	COMDAT xdata$x
xdata$x	SEGMENT
__unwindtable$?RequestAvgUnitPrice@CStdDialog@@QAEXXZ DD 0ffffffffH
	DD	FLAT:__unwindfunclet$?RequestAvgUnitPrice@CStdDialog@@QAEXXZ$0
	DD	00H
	DD	FLAT:__unwindfunclet$?RequestAvgUnitPrice@CStdDialog@@QAEXXZ$1
	DD	0ffffffffH
	DD	FLAT:__unwindfunclet$?RequestAvgUnitPrice@CStdDialog@@QAEXXZ$1
	DD	02H
	DD	FLAT:__unwindfunclet$?RequestAvgUnitPrice@CStdDialog@@QAEXXZ$3
__ehfuncinfo$?RequestAvgUnitPrice@CStdDialog@@QAEXXZ DD 019930522H
	DD	04H
	DD	FLAT:__unwindtable$?RequestAvgUnitPrice@CStdDialog@@QAEXXZ
	DD	2 DUP(00H)
	DD	2 DUP(00H)
	DD	00H
	DD	01H
xdata$x	ENDS
;	COMDAT xdata$x
xdata$x	SEGMENT
__unwindtable$?GetMarketTypeFromItemCode@CStdDialog@@QAEHV?$CStringT@DV?$StrTraitMFC_DLL@DV?$ChTraitsCRT@D@ATL@@@@@ATL@@@Z DD 0ffffffffH
	DD	FLAT:__unwindfunclet$?GetMarketTypeFromItemCode@CStdDialog@@QAEHV?$CStringT@DV?$StrTraitMFC_DLL@DV?$ChTraitsCRT@D@ATL@@@@@ATL@@@Z$0
__ehfuncinfo$?GetMarketTypeFromItemCode@CStdDialog@@QAEHV?$CStringT@DV?$StrTraitMFC_DLL@DV?$ChTraitsCRT@D@ATL@@@@@ATL@@@Z DD 019930522H
	DD	01H
	DD	FLAT:__unwindtable$?GetMarketTypeFromItemCode@CStdDialog@@QAEHV?$CStringT@DV?$StrTraitMFC_DLL@DV?$ChTraitsCRT@D@ATL@@@@@ATL@@@Z
	DD	2 DUP(00H)
	DD	2 DUP(00H)
	DD	00H
	DD	01H
xdata$x	ENDS
;	COMDAT xdata$x
xdata$x	SEGMENT
__unwindtable$?GetItemNameFromItemCode@CStdDialog@@QAE?AV?$CStringT@DV?$StrTraitMFC_DLL@DV?$ChTraitsCRT@D@ATL@@@@@ATL@@V23@H@Z DD 0ffffffffH
	DD	FLAT:__unwindfunclet$?GetItemNameFromItemCode@CStdDialog@@QAE?AV?$CStringT@DV?$StrTraitMFC_DLL@DV?$ChTraitsCRT@D@ATL@@@@@ATL@@V23@H@Z$1
	DD	00H
	DD	FLAT:__unwindfunclet$?GetItemNameFromItemCode@CStdDialog@@QAE?AV?$CStringT@DV?$StrTraitMFC_DLL@DV?$ChTraitsCRT@D@ATL@@@@@ATL@@V23@H@Z$0
	DD	01H
	DD	FLAT:__unwindfunclet$?GetItemNameFromItemCode@CStdDialog@@QAE?AV?$CStringT@DV?$StrTraitMFC_DLL@DV?$ChTraitsCRT@D@ATL@@@@@ATL@@V23@H@Z$2
__ehfuncinfo$?GetItemNameFromItemCode@CStdDialog@@QAE?AV?$CStringT@DV?$StrTraitMFC_DLL@DV?$ChTraitsCRT@D@ATL@@@@@ATL@@V23@H@Z DD 019930522H
	DD	03H
	DD	FLAT:__unwindtable$?GetItemNameFromItemCode@CStdDialog@@QAE?AV?$CStringT@DV?$StrTraitMFC_DLL@DV?$ChTraitsCRT@D@ATL@@@@@ATL@@V23@H@Z
	DD	2 DUP(00H)
	DD	2 DUP(00H)
	DD	00H
	DD	01H
xdata$x	ENDS
;	COMDAT xdata$x
xdata$x	SEGMENT
__ehfuncinfo$?ClearSaveKey@CStdDialog@@QAEXXZ DD 019930522H
	DD	06H
	DD	FLAT:__unwindtable$?ClearSaveKey@CStdDialog@@QAEXXZ
	DD	2 DUP(00H)
	DD	2 DUP(00H)
	DD	00H
	DD	01H
__unwindtable$?ClearSaveKey@CStdDialog@@QAEXXZ DD 0ffffffffH
	DD	FLAT:__unwindfunclet$?ClearSaveKey@CStdDialog@@QAEXXZ$0
	DD	00H
	DD	FLAT:__unwindfunclet$?ClearSaveKey@CStdDialog@@QAEXXZ$6
	DD	01H
	DD	FLAT:__unwindfunclet$?ClearSaveKey@CStdDialog@@QAEXXZ$7
	DD	02H
	DD	FLAT:__unwindfunclet$?ClearSaveKey@CStdDialog@@QAEXXZ$8
	DD	03H
	DD	FLAT:__unwindfunclet$?ClearSaveKey@CStdDialog@@QAEXXZ$9
	DD	00H
	DD	FLAT:__unwindfunclet$?ClearSaveKey@CStdDialog@@QAEXXZ$5
xdata$x	ENDS
;	COMDAT xdata$x
xdata$x	SEGMENT
__unwindtable$?UpdateSaveKey@CStdDialog@@QAEXV?$CStringT@DV?$StrTraitMFC_DLL@DV?$ChTraitsCRT@D@ATL@@@@@ATL@@@Z DD 0ffffffffH
	DD	FLAT:__unwindfunclet$?UpdateSaveKey@CStdDialog@@QAEXV?$CStringT@DV?$StrTraitMFC_DLL@DV?$ChTraitsCRT@D@ATL@@@@@ATL@@@Z$0
__ehfuncinfo$?UpdateSaveKey@CStdDialog@@QAEXV?$CStringT@DV?$StrTraitMFC_DLL@DV?$ChTraitsCRT@D@ATL@@@@@ATL@@@Z DD 019930522H
	DD	01H
	DD	FLAT:__unwindtable$?UpdateSaveKey@CStdDialog@@QAEXV?$CStringT@DV?$StrTraitMFC_DLL@DV?$ChTraitsCRT@D@ATL@@@@@ATL@@@Z
	DD	2 DUP(00H)
	DD	2 DUP(00H)
	DD	00H
	DD	01H
xdata$x	ENDS
;	COMDAT xdata$x
xdata$x	SEGMENT
__unwindtable$?GetFileSaveKey@CStdDialog@@QAEXAAV?$CStringT@DV?$StrTraitMFC_DLL@DV?$ChTraitsCRT@D@ATL@@@@@ATL@@@Z DD 0ffffffffH
	DD	FLAT:__unwindfunclet$?GetFileSaveKey@CStdDialog@@QAEXAAV?$CStringT@DV?$StrTraitMFC_DLL@DV?$ChTraitsCRT@D@ATL@@@@@ATL@@@Z$2
	DD	0ffffffffH
	DD	FLAT:__unwindfunclet$?GetFileSaveKey@CStdDialog@@QAEXAAV?$CStringT@DV?$StrTraitMFC_DLL@DV?$ChTraitsCRT@D@ATL@@@@@ATL@@@Z$3
__ehfuncinfo$?GetFileSaveKey@CStdDialog@@QAEXAAV?$CStringT@DV?$StrTraitMFC_DLL@DV?$ChTraitsCRT@D@ATL@@@@@ATL@@@Z DD 019930522H
	DD	02H
	DD	FLAT:__unwindtable$?GetFileSaveKey@CStdDialog@@QAEXAAV?$CStringT@DV?$StrTraitMFC_DLL@DV?$ChTraitsCRT@D@ATL@@@@@ATL@@@Z
	DD	2 DUP(00H)
	DD	2 DUP(00H)
	DD	00H
	DD	01H
xdata$x	ENDS
;	COMDAT xdata$x
xdata$x	SEGMENT
__ehfuncinfo$?SetSaveKey@CStdDialog@@QAEXPBD@Z DD 019930522H
	DD	06H
	DD	FLAT:__unwindtable$?SetSaveKey@CStdDialog@@QAEXPBD@Z
	DD	2 DUP(00H)
	DD	2 DUP(00H)
	DD	00H
	DD	01H
__unwindtable$?SetSaveKey@CStdDialog@@QAEXPBD@Z DD 0ffffffffH
	DD	FLAT:__unwindfunclet$?SetSaveKey@CStdDialog@@QAEXPBD@Z$0
	DD	00H
	DD	FLAT:__unwindfunclet$?SetSaveKey@CStdDialog@@QAEXPBD@Z$6
	DD	01H
	DD	FLAT:__unwindfunclet$?SetSaveKey@CStdDialog@@QAEXPBD@Z$7
	DD	02H
	DD	FLAT:__unwindfunclet$?SetSaveKey@CStdDialog@@QAEXPBD@Z$8
	DD	03H
	DD	FLAT:__unwindfunclet$?SetSaveKey@CStdDialog@@QAEXPBD@Z$9
	DD	00H
	DD	FLAT:__unwindfunclet$?SetSaveKey@CStdDialog@@QAEXPBD@Z$5
xdata$x	ENDS
;	COMDAT xdata$x
xdata$x	SEGMENT
__unwindtable$?RequestDollarData@CStdDialog@@QAEXXZ DD 0ffffffffH
	DD	FLAT:__unwindfunclet$?RequestDollarData@CStdDialog@@QAEXXZ$0
	DD	00H
	DD	FLAT:__unwindfunclet$?RequestDollarData@CStdDialog@@QAEXXZ$1
	DD	01H
	DD	FLAT:__unwindfunclet$?RequestDollarData@CStdDialog@@QAEXXZ$4
__ehfuncinfo$?RequestDollarData@CStdDialog@@QAEXXZ DD 019930522H
	DD	03H
	DD	FLAT:__unwindtable$?RequestDollarData@CStdDialog@@QAEXXZ
	DD	2 DUP(00H)
	DD	2 DUP(00H)
	DD	00H
	DD	01H
xdata$x	ENDS
;	COMDAT xdata$x
xdata$x	SEGMENT
__unwindtable$?OnMagnifyingglass@CStdDialog@@QAEXH@Z DD 0ffffffffH
	DD	FLAT:__unwindfunclet$?OnMagnifyingglass@CStdDialog@@QAEXH@Z$0
	DD	0ffffffffH
	DD	FLAT:__unwindfunclet$?OnMagnifyingglass@CStdDialog@@QAEXH@Z$1
__ehfuncinfo$?OnMagnifyingglass@CStdDialog@@QAEXH@Z DD 019930522H
	DD	02H
	DD	FLAT:__unwindtable$?OnMagnifyingglass@CStdDialog@@QAEXH@Z
	DD	2 DUP(00H)
	DD	2 DUP(00H)
	DD	00H
	DD	01H
xdata$x	ENDS
;	COMDAT xdata$x
xdata$x	SEGMENT
__unwindtable$?AddRealCodeList@CStdDialog@@QAEXPBD@Z DD 0ffffffffH
	DD	FLAT:__unwindfunclet$?AddRealCodeList@CStdDialog@@QAEXPBD@Z$1
__ehfuncinfo$?AddRealCodeList@CStdDialog@@QAEXPBD@Z DD 019930522H
	DD	01H
	DD	FLAT:__unwindtable$?AddRealCodeList@CStdDialog@@QAEXPBD@Z
	DD	2 DUP(00H)
	DD	2 DUP(00H)
	DD	00H
	DD	01H
xdata$x	ENDS
;	COMDAT xdata$x
xdata$x	SEGMENT
__unwindtable$?RemoveDrdsFromCode@CStdDialog@@QAEXPAV?$CList@UST_CODEDATA@@U1@@@V?$CStringT@DV?$StrTraitMFC_DLL@DV?$ChTraitsCRT@D@ATL@@@@@ATL@@@Z DD 0ffffffffH
	DD	FLAT:__unwindfunclet$?RemoveDrdsFromCode@CStdDialog@@QAEXPAV?$CList@UST_CODEDATA@@U1@@@V?$CStringT@DV?$StrTraitMFC_DLL@DV?$ChTraitsCRT@D@ATL@@@@@ATL@@@Z$0
__ehfuncinfo$?RemoveDrdsFromCode@CStdDialog@@QAEXPAV?$CList@UST_CODEDATA@@U1@@@V?$CStringT@DV?$StrTraitMFC_DLL@DV?$ChTraitsCRT@D@ATL@@@@@ATL@@@Z DD 019930522H
	DD	01H
	DD	FLAT:__unwindtable$?RemoveDrdsFromCode@CStdDialog@@QAEXPAV?$CList@UST_CODEDATA@@U1@@@V?$CStringT@DV?$StrTraitMFC_DLL@DV?$ChTraitsCRT@D@ATL@@@@@ATL@@@Z
	DD	2 DUP(00H)
	DD	2 DUP(00H)
	DD	00H
	DD	01H
xdata$x	ENDS
;	COMDAT xdata$x
xdata$x	SEGMENT
__unwindtable$?LoadSaveSystemTrading@CStdDialog@@QAEXAAV?$CStringT@DV?$StrTraitMFC_DLL@DV?$ChTraitsCRT@D@ATL@@@@@ATL@@HHH@Z DD 0ffffffffH
	DD	FLAT:__unwindfunclet$?LoadSaveSystemTrading@CStdDialog@@QAEXAAV?$CStringT@DV?$StrTraitMFC_DLL@DV?$ChTraitsCRT@D@ATL@@@@@ATL@@HHH@Z$0
__ehfuncinfo$?LoadSaveSystemTrading@CStdDialog@@QAEXAAV?$CStringT@DV?$StrTraitMFC_DLL@DV?$ChTraitsCRT@D@ATL@@@@@ATL@@HHH@Z DD 019930522H
	DD	01H
	DD	FLAT:__unwindtable$?LoadSaveSystemTrading@CStdDialog@@QAEXAAV?$CStringT@DV?$StrTraitMFC_DLL@DV?$ChTraitsCRT@D@ATL@@@@@ATL@@HHH@Z
	DD	2 DUP(00H)
	DD	2 DUP(00H)
	DD	00H
	DD	01H
xdata$x	ENDS
;	COMDAT xdata$x
xdata$x	SEGMENT
__unwindtable$?MakeMarketChartData@CStdDialog@@QAE?AV?$CStringT@DV?$StrTraitMFC_DLL@DV?$ChTraitsCRT@D@ATL@@@@@ATL@@PAXAAHHN@Z DD 0ffffffffH
	DD	FLAT:__unwindfunclet$?MakeMarketChartData@CStdDialog@@QAE?AV?$CStringT@DV?$StrTraitMFC_DLL@DV?$ChTraitsCRT@D@ATL@@@@@ATL@@PAXAAHHN@Z$0
__ehfuncinfo$?MakeMarketChartData@CStdDialog@@QAE?AV?$CStringT@DV?$StrTraitMFC_DLL@DV?$ChTraitsCRT@D@ATL@@@@@ATL@@PAXAAHHN@Z DD 019930522H
	DD	01H
	DD	FLAT:__unwindtable$?MakeMarketChartData@CStdDialog@@QAE?AV?$CStringT@DV?$StrTraitMFC_DLL@DV?$ChTraitsCRT@D@ATL@@@@@ATL@@PAXAAHHN@Z
	DD	2 DUP(00H)
	DD	2 DUP(00H)
	DD	00H
	DD	01H
xdata$x	ENDS
;	COMDAT xdata$x
xdata$x	SEGMENT
__unwindtable$?MakeChartData@CStdDialog@@QAE?AV?$CStringT@DV?$StrTraitMFC_DLL@DV?$ChTraitsCRT@D@ATL@@@@@ATL@@PAXAAHHHHNH@Z DD 0ffffffffH
	DD	FLAT:__unwindfunclet$?MakeChartData@CStdDialog@@QAE?AV?$CStringT@DV?$StrTraitMFC_DLL@DV?$ChTraitsCRT@D@ATL@@@@@ATL@@PAXAAHHHHNH@Z$1
	DD	00H
	DD	FLAT:__unwindfunclet$?MakeChartData@CStdDialog@@QAE?AV?$CStringT@DV?$StrTraitMFC_DLL@DV?$ChTraitsCRT@D@ATL@@@@@ATL@@PAXAAHHHHNH@Z$2
__ehfuncinfo$?MakeChartData@CStdDialog@@QAE?AV?$CStringT@DV?$StrTraitMFC_DLL@DV?$ChTraitsCRT@D@ATL@@@@@ATL@@PAXAAHHHHNH@Z DD 019930522H
	DD	02H
	DD	FLAT:__unwindtable$?MakeChartData@CStdDialog@@QAE?AV?$CStringT@DV?$StrTraitMFC_DLL@DV?$ChTraitsCRT@D@ATL@@@@@ATL@@PAXAAHHHHNH@Z
	DD	2 DUP(00H)
	DD	2 DUP(00H)
	DD	00H
	DD	01H
xdata$x	ENDS
;	COMDAT xdata$x
xdata$x	SEGMENT
__ehfuncinfo$?ConvertHogaData@CStdDialog@@QAEXPAXJ@Z DD 019930522H
	DD	02bH
	DD	FLAT:__unwindtable$?ConvertHogaData@CStdDialog@@QAEXPAXJ@Z
	DD	2 DUP(00H)
	DD	2 DUP(00H)
	DD	00H
	DD	01H
__unwindtable$?ConvertHogaData@CStdDialog@@QAEXPAXJ@Z DD 0ffffffffH
	DD	FLAT:__unwindfunclet$?ConvertHogaData@CStdDialog@@QAEXPAXJ@Z$0
	DD	00H
	DD	FLAT:__unwindfunclet$?ConvertHogaData@CStdDialog@@QAEXPAXJ@Z$44
	DD	00H
	DD	FLAT:__unwindfunclet$?ConvertHogaData@CStdDialog@@QAEXPAXJ@Z$45
	DD	00H
	DD	FLAT:__unwindfunclet$?ConvertHogaData@CStdDialog@@QAEXPAXJ@Z$46
	DD	00H
	DD	FLAT:__unwindfunclet$?ConvertHogaData@CStdDialog@@QAEXPAXJ@Z$47
	DD	00H
	DD	FLAT:__unwindfunclet$?ConvertHogaData@CStdDialog@@QAEXPAXJ@Z$48
	DD	00H
	DD	FLAT:__unwindfunclet$?ConvertHogaData@CStdDialog@@QAEXPAXJ@Z$49
	DD	00H
	DD	FLAT:__unwindfunclet$?ConvertHogaData@CStdDialog@@QAEXPAXJ@Z$50
	DD	00H
	DD	FLAT:__unwindfunclet$?ConvertHogaData@CStdDialog@@QAEXPAXJ@Z$51
	DD	00H
	DD	FLAT:__unwindfunclet$?ConvertHogaData@CStdDialog@@QAEXPAXJ@Z$52
	DD	00H
	DD	FLAT:__unwindfunclet$?ConvertHogaData@CStdDialog@@QAEXPAXJ@Z$53
	DD	00H
	DD	FLAT:__unwindfunclet$?ConvertHogaData@CStdDialog@@QAEXPAXJ@Z$54
	DD	00H
	DD	FLAT:__unwindfunclet$?ConvertHogaData@CStdDialog@@QAEXPAXJ@Z$55
	DD	00H
	DD	FLAT:__unwindfunclet$?ConvertHogaData@CStdDialog@@QAEXPAXJ@Z$56
	DD	00H
	DD	FLAT:__unwindfunclet$?ConvertHogaData@CStdDialog@@QAEXPAXJ@Z$57
	DD	00H
	DD	FLAT:__unwindfunclet$?ConvertHogaData@CStdDialog@@QAEXPAXJ@Z$58
	DD	00H
	DD	FLAT:__unwindfunclet$?ConvertHogaData@CStdDialog@@QAEXPAXJ@Z$59
	DD	00H
	DD	FLAT:__unwindfunclet$?ConvertHogaData@CStdDialog@@QAEXPAXJ@Z$60
	DD	00H
	DD	FLAT:__unwindfunclet$?ConvertHogaData@CStdDialog@@QAEXPAXJ@Z$61
	DD	00H
	DD	FLAT:__unwindfunclet$?ConvertHogaData@CStdDialog@@QAEXPAXJ@Z$62
	DD	00H
