; Listing generated by Microsoft (R) Optimizing Compiler Version 19.29.30148.0 

	TITLE	D:\git\src\IBK\IBK_DRFN\#DRfn-CS\_Obj\MultiChart\StdDialogPartnerSite.obj
	.686P
	.XMM
	include listing.inc
	.model	flat

INCLUDELIB MSVCRT
INCLUDELIB OLDNAMES

PUBLIC	?WM_ATLGETHOST@ATL@@3IA				; ATL::WM_ATLGETHOST
PUBLIC	?WM_ATLGETCONTROL@ATL@@3IA			; ATL::WM_ATLGETCONTROL
PUBLIC	??_C@_0M@LPFHDJI@RMSG_DRUSER@			; `string'
PUBLIC	??_C@_0BB@IBKHOHJL@RMSG_REPLAY_REAL@		; `string'
PUBLIC	??_C@_0BB@JFLGBADG@RMSG_REPLAY_FAIL@		; `string'
PUBLIC	??_C@_0BI@KDGAIIMD@RMSG_REPLAY_CHANGE_DATE@	; `string'
PUBLIC	??_C@_0BA@NKHHCPON@RMSG_REPLAY_END@		; `string'
PUBLIC	??_C@_0BE@JFCIMCIP@RMSG_REPLAY_INC_SEC@		; `string'
PUBLIC	??_C@_0BG@GIAJEIJF@RMSG_REPLAY_TOTAL_SEC@	; `string'
PUBLIC	?m_bInitFailed@CAtlBaseModule@ATL@@2_NA		; ATL::CAtlBaseModule::m_bInitFailed
PUBLIC	??_C@_0BE@FJPKENOB@RMSG_GETSIGNAL_REAL@		; `string'
PUBLIC	??_C@_0BB@CNOFPEHG@RMSG_SETQUERYOPT@		; `string'
PUBLIC	??_C@_0P@KHFCBIOH@RMSG_CHARTMAIN@		; `string'
PUBLIC	??_C@_0BC@MMPGLPDH@RMS_ANALYSIS_FUNC@		; `string'
PUBLIC	??_C@_0BA@HKNFENJL@RMSG_GET_USERID@		; `string'
PUBLIC	??_C@_0BG@CNPAHNGG@RMSG_CHANGE_SKINCOLOR@	; `string'
PUBLIC	??_C@_0BD@FLDNDDHK@RMSG_GET_SKINCOLOR@		; `string'
PUBLIC	??_C@_0BJ@JLKHIBIK@RMSG_CHANGEVERTSCALETYPE@	; `string'
PUBLIC	??_C@_0BG@LNLCJKPF@RMSG_CHANGE_CROSSLINE@	; `string'
PUBLIC	??_C@_0BH@IFDMIMBP@RMSG_ADD_PLATFORM_MENU@	; `string'
PUBLIC	??_C@_0BJ@OGNAJHHI@RMSG_SETINITIALCHARTDATA@	; `string'
PUBLIC	??_C@_0N@IIOKMIEH@RMSG_GETINFO@			; `string'
PUBLIC	??_C@_0N@HABLPHJG@RMSG_SETINFO@			; `string'
PUBLIC	?_pAtlModule@ATL@@3PAVCAtlModule@1@A		; ATL::_pAtlModule
PUBLIC	?_pAtlAutoThreadModule@ATL@@3PAUIAtlAutoThreadModule@1@A ; ATL::_pAtlAutoThreadModule
EXTRN	?_AtlBaseModule@ATL@@3VCAtlBaseModule@1@A:BYTE	; ATL::_AtlBaseModule
;	COMDAT ?WM_ATLGETHOST@ATL@@3IA
_BSS	SEGMENT
?WM_ATLGETHOST@ATL@@3IA DD 01H DUP (?)			; ATL::WM_ATLGETHOST
_BSS	ENDS
;	COMDAT ?WM_ATLGETCONTROL@ATL@@3IA
_BSS	SEGMENT
?WM_ATLGETCONTROL@ATL@@3IA DD 01H DUP (?)		; ATL::WM_ATLGETCONTROL
_BSS	ENDS
;	COMDAT ?m_bInitFailed@CAtlBaseModule@ATL@@2_NA
_BSS	SEGMENT
?m_bInitFailed@CAtlBaseModule@ATL@@2_NA DB 01H DUP (?)	; ATL::CAtlBaseModule::m_bInitFailed
_BSS	ENDS
;	COMDAT ?_pAtlModule@ATL@@3PAVCAtlModule@1@A
_BSS	SEGMENT
?_pAtlModule@ATL@@3PAVCAtlModule@1@A DD 01H DUP (?)	; ATL::_pAtlModule
_BSS	ENDS
;	COMDAT ?_pAtlAutoThreadModule@ATL@@3PAUIAtlAutoThreadModule@1@A
_BSS	SEGMENT
?_pAtlAutoThreadModule@ATL@@3PAUIAtlAutoThreadModule@1@A DD 01H DUP (?) ; ATL::_pAtlAutoThreadModule
_BSS	ENDS
;	COMDAT ??_C@_0N@HABLPHJG@RMSG_SETINFO@
CONST	SEGMENT
??_C@_0N@HABLPHJG@RMSG_SETINFO@ DB 'RMSG_SETINFO', 00H	; `string'
CONST	ENDS
;	COMDAT ??_C@_0N@IIOKMIEH@RMSG_GETINFO@
CONST	SEGMENT
??_C@_0N@IIOKMIEH@RMSG_GETINFO@ DB 'RMSG_GETINFO', 00H	; `string'
CONST	ENDS
;	COMDAT ??_C@_0BJ@OGNAJHHI@RMSG_SETINITIALCHARTDATA@
CONST	SEGMENT
??_C@_0BJ@OGNAJHHI@RMSG_SETINITIALCHARTDATA@ DB 'RMSG_SETINITIALCHARTDATA'
	DB	00H						; `string'
CONST	ENDS
;	COMDAT ??_C@_0BH@IFDMIMBP@RMSG_ADD_PLATFORM_MENU@
CONST	SEGMENT
??_C@_0BH@IFDMIMBP@RMSG_ADD_PLATFORM_MENU@ DB 'RMSG_ADD_PLATFORM_MENU', 00H ; `string'
CONST	ENDS
;	COMDAT ??_C@_0BG@LNLCJKPF@RMSG_CHANGE_CROSSLINE@
CONST	SEGMENT
??_C@_0BG@LNLCJKPF@RMSG_CHANGE_CROSSLINE@ DB 'RMSG_CHANGE_CROSSLINE', 00H ; `string'
CONST	ENDS
;	COMDAT ??_C@_0BJ@JLKHIBIK@RMSG_CHANGEVERTSCALETYPE@
CONST	SEGMENT
??_C@_0BJ@JLKHIBIK@RMSG_CHANGEVERTSCALETYPE@ DB 'RMSG_CHANGEVERTSCALETYPE'
	DB	00H						; `string'
CONST	ENDS
;	COMDAT ??_C@_0BD@FLDNDDHK@RMSG_GET_SKINCOLOR@
CONST	SEGMENT
??_C@_0BD@FLDNDDHK@RMSG_GET_SKINCOLOR@ DB 'RMSG_GET_SKINCOLOR', 00H ; `string'
CONST	ENDS
;	COMDAT ??_C@_0BG@CNPAHNGG@RMSG_CHANGE_SKINCOLOR@
CONST	SEGMENT
??_C@_0BG@CNPAHNGG@RMSG_CHANGE_SKINCOLOR@ DB 'RMSG_CHANGE_SKINCOLOR', 00H ; `string'
CONST	ENDS
;	COMDAT ??_C@_0BA@HKNFENJL@RMSG_GET_USERID@
CONST	SEGMENT
??_C@_0BA@HKNFENJL@RMSG_GET_USERID@ DB 'RMSG_GET_USERID', 00H ; `string'
CONST	ENDS
;	COMDAT ??_C@_0BC@MMPGLPDH@RMS_ANALYSIS_FUNC@
CONST	SEGMENT
??_C@_0BC@MMPGLPDH@RMS_ANALYSIS_FUNC@ DB 'RMS_ANALYSIS_FUNC', 00H ; `string'
CONST	ENDS
;	COMDAT ??_C@_0P@KHFCBIOH@RMSG_CHARTMAIN@
CONST	SEGMENT
??_C@_0P@KHFCBIOH@RMSG_CHARTMAIN@ DB 'RMSG_CHARTMAIN', 00H ; `string'
CONST	ENDS
;	COMDAT ??_C@_0BB@CNOFPEHG@RMSG_SETQUERYOPT@
CONST	SEGMENT
??_C@_0BB@CNOFPEHG@RMSG_SETQUERYOPT@ DB 'RMSG_SETQUERYOPT', 00H ; `string'
CONST	ENDS
;	COMDAT ??_C@_0BE@FJPKENOB@RMSG_GETSIGNAL_REAL@
CONST	SEGMENT
??_C@_0BE@FJPKENOB@RMSG_GETSIGNAL_REAL@ DB 'RMSG_GETSIGNAL_REAL', 00H ; `string'
CONST	ENDS
;	COMDAT ??_C@_0BG@GIAJEIJF@RMSG_REPLAY_TOTAL_SEC@
CONST	SEGMENT
??_C@_0BG@GIAJEIJF@RMSG_REPLAY_TOTAL_SEC@ DB 'RMSG_REPLAY_TOTAL_SEC', 00H ; `string'
CONST	ENDS
;	COMDAT ??_C@_0BE@JFCIMCIP@RMSG_REPLAY_INC_SEC@
CONST	SEGMENT
??_C@_0BE@JFCIMCIP@RMSG_REPLAY_INC_SEC@ DB 'RMSG_REPLAY_INC_SEC', 00H ; `string'
CONST	ENDS
;	COMDAT ??_C@_0BA@NKHHCPON@RMSG_REPLAY_END@
CONST	SEGMENT
??_C@_0BA@NKHHCPON@RMSG_REPLAY_END@ DB 'RMSG_REPLAY_END', 00H ; `string'
CONST	ENDS
;	COMDAT ??_C@_0BI@KDGAIIMD@RMSG_REPLAY_CHANGE_DATE@
CONST	SEGMENT
??_C@_0BI@KDGAIIMD@RMSG_REPLAY_CHANGE_DATE@ DB 'RMSG_REPLAY_CHANGE_DATE', 00H ; `string'
CONST	ENDS
;	COMDAT ??_C@_0BB@JFLGBADG@RMSG_REPLAY_FAIL@
CONST	SEGMENT
??_C@_0BB@JFLGBADG@RMSG_REPLAY_FAIL@ DB 'RMSG_REPLAY_FAIL', 00H ; `string'
CONST	ENDS
;	COMDAT ??_C@_0BB@IBKHOHJL@RMSG_REPLAY_REAL@
CONST	SEGMENT
??_C@_0BB@IBKHOHJL@RMSG_REPLAY_REAL@ DB 'RMSG_REPLAY_REAL', 00H ; `string'
CONST	ENDS
;	COMDAT ??_C@_0M@LPFHDJI@RMSG_DRUSER@
CONST	SEGMENT
??_C@_0M@LPFHDJI@RMSG_DRUSER@ DB 'RMSG_DRUSER', 00H	; `string'
CONST	ENDS
PUBLIC	?__empty_global_delete@@YAXPAX@Z		; __empty_global_delete
PUBLIC	?__empty_global_delete@@YAXPAXI@Z		; __empty_global_delete
PUBLIC	___local_stdio_scanf_options
PUBLIC	_sscanf
PUBLIC	?_AtlRaiseException@ATL@@YAXKK@Z		; ATL::_AtlRaiseException
PUBLIC	?_AtlInitializeCriticalSectionEx@ATL@@YAHPAU_RTL_CRITICAL_SECTION@@KK@Z ; ATL::_AtlInitializeCriticalSectionEx
PUBLIC	?_AfxInitManaged@@YAHXZ				; _AfxInitManaged
PUBLIC	??1stringdispid@CComTypeInfoHolder@ATL@@QAE@XZ	; ATL::CComTypeInfoHolder::stringdispid::~stringdispid
PUBLIC	??_Estringdispid@CComTypeInfoHolder@ATL@@QAEPAXI@Z ; ATL::CComTypeInfoHolder::stringdispid::`vector deleting destructor'
PUBLIC	?OnRmsgDRUser@CStdDialog@@IAEJIJ@Z		; CStdDialog::OnRmsgDRUser
PUBLIC	?DoSetPartnerSite@CStdDialog@@QAEXPAUIPartnerManager@@@Z ; CStdDialog::DoSetPartnerSite
PUBLIC	?RecieveFidData@CPartnerSite@CStdDialog@@UAGJJPBD00PAXJ@Z ; CStdDialog::CPartnerSite::RecieveFidData
PUBLIC	?RecieveTRData@CPartnerSite@CStdDialog@@UAGJJPBD00PAXJ@Z ; CStdDialog::CPartnerSite::RecieveTRData
PUBLIC	?RecieveRealData@CPartnerSite@CStdDialog@@UAGJJJ@Z ; CStdDialog::CPartnerSite::RecieveRealData
PUBLIC	?RecieveKeyData@CPartnerSite@CStdDialog@@UAGJHPBD@Z ; CStdDialog::CPartnerSite::RecieveKeyData
PUBLIC	?RecieveRealDataEx@CPartnerSite@CStdDialog@@UAGJJPBDJ@Z ; CStdDialog::CPartnerSite::RecieveRealDataEx
PUBLIC	?ReceiveOnUser@CPartnerSite@CStdDialog@@UAGJIJ@Z ; CStdDialog::CPartnerSite::ReceiveOnUser
PUBLIC	?_DoCheckMetrixScreen@CStdDialog@@QAEXXZ	; CStdDialog::_DoCheckMetrixScreen
PUBLIC	?_OptionsStorage@?1??__local_stdio_scanf_options@@9@4_KA ; `__local_stdio_scanf_options'::`2'::_OptionsStorage
PUBLIC	?_AtlWinModule@ATL@@3VCAtlWinModule@1@A		; ATL::_AtlWinModule
PUBLIC	??_C@_00CNPNBAHC@@				; `string'
PUBLIC	??_C@_04JIMNDDED@?$CF08X@			; `string'
PUBLIC	??_C@_0BH@EJLLDLHG@OnSaveHistory?7?$CFd?7?$CFd?7?$CFs@ ; `string'
PUBLIC	??_C@_08IOMDFAIH@pijs0111@			; `string'
PUBLIC	??_C@_05GFCMPLNO@c1002@				; `string'
PUBLIC	??_C@_08KFOOADEE@pijs0112@			; `string'
PUBLIC	??_C@_0L@CBPHCCCB@USERSCREEN@			; `string'
PUBLIC	??_C@_01EEMJAFIK@?6@				; `string'
PUBLIC	??_C@_01GPOEFGEJ@?7@				; `string'
PUBLIC	??_C@_03NOBDJFIO@301@				; `string'
PUBLIC	??_C@_06OJPKBKKO@gicode@			; `string'
PUBLIC	??_C@_0O@KLOMEEGC@OnLoadHistory@		; `string'
PUBLIC	??_C@_0BG@ILJLMOMK@OnLoadHistory_Init_?$CFd@	; `string'
PUBLIC	??_C@_0O@DJPIKCGJ@TabCodeSearch@		; `string'
EXTRN	??_M@YGXPAXIIP6EX0@Z@Z:PROC			; `eh vector destructor iterator'
EXTRN	??3@YAXPAXI@Z:PROC				; operator delete
EXTRN	??_V@YAXPAXI@Z:PROC				; operator delete[]
EXTRN	_atexit:PROC
EXTRN	__imp__RaiseException@16:PROC
EXTRN	__imp__GetLastError@0:PROC
EXTRN	__imp__InitializeCriticalSectionEx@12:PROC
EXTRN	__imp__DeleteCriticalSection@4:PROC
EXTRN	__imp__RegisterWindowMessageA@4:PROC
EXTRN	__imp__UnregisterClassA@8:PROC
EXTRN	__imp____stdio_common_vsscanf:PROC
EXTRN	__imp__free:PROC
EXTRN	__imp__atoi:PROC
EXTRN	__imp__SysFreeString@4:PROC
EXTRN	__imp_??A?$CSimpleStringT@D$00@ATL@@QBEDH@Z:PROC
EXTRN	__imp_??0?$CStringT@DV?$StrTraitMFC_DLL@DV?$ChTraitsCRT@D@ATL@@@@@ATL@@QAE@XZ:PROC
EXTRN	__imp_??0?$CStringT@DV?$StrTraitMFC_DLL@DV?$ChTraitsCRT@D@ATL@@@@@ATL@@QAE@ABV01@@Z:PROC
EXTRN	__imp_??0?$CStringT@DV?$StrTraitMFC_DLL@DV?$ChTraitsCRT@D@ATL@@@@@ATL@@QAE@PBD@Z:PROC
EXTRN	__imp_??1?$CStringT@DV?$StrTraitMFC_DLL@DV?$ChTraitsCRT@D@ATL@@@@@ATL@@QAE@XZ:PROC
EXTRN	__imp_??4?$CStringT@DV?$StrTraitMFC_DLL@DV?$ChTraitsCRT@D@ATL@@@@@ATL@@QAEAAV01@ABV01@@Z:PROC
EXTRN	__imp_??4?$CStringT@DV?$StrTraitMFC_DLL@DV?$ChTraitsCRT@D@ATL@@@@@ATL@@QAEAAV01@PBD@Z:PROC
EXTRN	__imp_??Y?$CStringT@DV?$StrTraitMFC_DLL@DV?$ChTraitsCRT@D@ATL@@@@@ATL@@QAEAAV01@PBD@Z:PROC
EXTRN	__imp_?Compare@?$CStringT@DV?$StrTraitMFC_DLL@DV?$ChTraitsCRT@D@ATL@@@@@ATL@@QBEHPBD@Z:PROC
EXTRN	__imp_?CompareNoCase@?$CStringT@DV?$StrTraitMFC_DLL@DV?$ChTraitsCRT@D@ATL@@@@@ATL@@QBEHPBD@Z:PROC
EXTRN	__imp_?Find@?$CStringT@DV?$StrTraitMFC_DLL@DV?$ChTraitsCRT@D@ATL@@@@@ATL@@QBEHDH@Z:PROC
EXTRN	__imp_?Find@?$CStringT@DV?$StrTraitMFC_DLL@DV?$ChTraitsCRT@D@ATL@@@@@ATL@@QBEHPBDH@Z:PROC
EXTRN	__imp_?TrimRight@?$CStringT@DV?$StrTraitMFC_DLL@DV?$ChTraitsCRT@D@ATL@@@@@ATL@@QAEAAV12@XZ:PROC
EXTRN	__imp_?TrimLeft@?$CStringT@DV?$StrTraitMFC_DLL@DV?$ChTraitsCRT@D@ATL@@@@@ATL@@QAEAAV12@XZ:PROC
EXTRN	__imp_?Mid@?$CStringT@DV?$StrTraitMFC_DLL@DV?$ChTraitsCRT@D@ATL@@@@@ATL@@QBE?AV12@H@Z:PROC
EXTRN	__imp_?Left@?$CStringT@DV?$StrTraitMFC_DLL@DV?$ChTraitsCRT@D@ATL@@@@@ATL@@QBE?AV12@H@Z:PROC
EXTRN	__imp_?Format@?$CStringT@DV?$StrTraitMFC_DLL@DV?$ChTraitsCRT@D@ATL@@@@@ATL@@QAAXPBDZZ:PROC
EXTRN	??0CMapStringToString@@QAE@H@Z:PROC		; CMapStringToString::CMapStringToString
EXTRN	??ACMapStringToString@@QAEAAV?$CStringT@DV?$StrTraitMFC_DLL@DV?$ChTraitsCRT@D@ATL@@@@@ATL@@PBD@Z:PROC ; CMapStringToString::operator[]
EXTRN	?RemoveAll@CMapStringToString@@QAEXXZ:PROC	; CMapStringToString::RemoveAll
EXTRN	??1CMapStringToString@@UAE@XZ:PROC		; CMapStringToString::~CMapStringToString
EXTRN	??0AFX_MAINTAIN_STATE2@@QAE@PAVAFX_MODULE_STATE@@@Z:PROC ; AFX_MAINTAIN_STATE2::AFX_MAINTAIN_STATE2
EXTRN	??1AFX_MAINTAIN_STATE2@@QAE@XZ:PROC		; AFX_MAINTAIN_STATE2::~AFX_MAINTAIN_STATE2
EXTRN	?IsWindowEnabled@CWnd@@QBEHXZ:PROC		; CWnd::IsWindowEnabled
EXTRN	?ReceiveRealHogaData@CChartMng@@QAEXKPBDJ@Z:PROC ; CChartMng::ReceiveRealHogaData
EXTRN	?GetpChartItemSelected@CChartMng@@QAEPAVCChartItem@@XZ:PROC ; CChartMng::GetpChartItemSelected
EXTRN	?SetRealJPriceData@CChartMng@@QAEXPAX@Z:PROC	; CChartMng::SetRealJPriceData
EXTRN	?SaveChart@CChartMng@@QAEXV?$CStringT@DV?$StrTraitMFC_DLL@DV?$ChTraitsCRT@D@ATL@@@@@ATL@@@Z:PROC ; CChartMng::SaveChart
EXTRN	?GetCodeType@CFOHistoryBtnCtrl@@QAEHV?$CStringT@DV?$StrTraitMFC_DLL@DV?$ChTraitsCRT@D@ATL@@@@@ATL@@@Z:PROC ; CFOHistoryBtnCtrl::GetCodeType
EXTRN	?GetCurrentCode@CInputBarDlg@@QAE?AV?$CStringT@DV?$StrTraitMFC_DLL@DV?$ChTraitsCRT@D@ATL@@@@@ATL@@XZ:PROC ; CInputBarDlg::GetCurrentCode
EXTRN	?SaveValue@CInputBarDlg@@QAEXXZ:PROC		; CInputBarDlg::SaveValue
EXTRN	?GetCurrentMode@CInputBarDlg@@QAEHHH@Z:PROC	; CInputBarDlg::GetCurrentMode
EXTRN	?GetComboMarket@CInputBarDlg@@QAEHXZ:PROC	; CInputBarDlg::GetComboMarket
EXTRN	?SaveExtInputBar@CExtInputBarDlg@@QAEXXZ:PROC	; CExtInputBarDlg::SaveExtInputBar
EXTRN	?ChangeCode@CStdDialog@@QAEXPBDHH@Z:PROC	; CStdDialog::ChangeCode
EXTRN	?GetMarketTypeFromCode@CStdDialog@@QAEHV?$CStringT@DV?$StrTraitMFC_DLL@DV?$ChTraitsCRT@D@ATL@@@@@ATL@@AAH@Z:PROC ; CStdDialog::GetMarketTypeFromCode
EXTRN	?ChangeStockMode@CStdDialog@@QAEXH@Z:PROC	; CStdDialog::ChangeStockMode
EXTRN	?SetSaveKey@CStdDialog@@QAEXPBD@Z:PROC		; CStdDialog::SetSaveKey
EXTRN	?SaveShowInfo@CStdDialog@@QAEXXZ:PROC		; CStdDialog::SaveShowInfo
EXTRN	?DoShareCode@CStdDialog@@QAEXPBD@Z:PROC		; CStdDialog::DoShareCode
EXTRN	@__security_check_cookie@4:PROC
EXTRN	___CxxFrameHandler3:PROC
EXTRN	?g_pPtUtilMng@@3PAUIPartnerUtilManager@@A:DWORD	; g_pPtUtilMng
EXTRN	___security_cookie:DWORD
;	COMDAT ?_OptionsStorage@?1??__local_stdio_scanf_options@@9@4_KA
_BSS	SEGMENT
?_OptionsStorage@?1??__local_stdio_scanf_options@@9@4_KA DQ 01H DUP (?) ; `__local_stdio_scanf_options'::`2'::_OptionsStorage
_BSS	ENDS
_BSS	SEGMENT
?RMSG_REPLAY_REAL@@3IB DD 01H DUP (?)			; RMSG_REPLAY_REAL
?RMSG_REPLAY_FAIL@@3IB DD 01H DUP (?)			; RMSG_REPLAY_FAIL
?RMSG_REPLAY_CHANGE_DATE@@3IB DD 01H DUP (?)		; RMSG_REPLAY_CHANGE_DATE
?RMSG_REPLAY_END@@3IB DD 01H DUP (?)			; RMSG_REPLAY_END
?RMSG_REPLAY_INC_SEC@@3IB DD 01H DUP (?)		; RMSG_REPLAY_INC_SEC
?RMSG_REPLAY_TOTAL_SEC@@3IB DD 01H DUP (?)		; RMSG_REPLAY_TOTAL_SEC
?RMSG_GETSIGNAL_REAL@@3IB DD 01H DUP (?)		; RMSG_GETSIGNAL_REAL
?RMSG_SETQUERYOPT@@3IB DD 01H DUP (?)			; RMSG_SETQUERYOPT
?RMSG_CHARTMAIN@@3IB DD 01H DUP (?)			; RMSG_CHARTMAIN
?RMS_ANALYSIS_FUNC@@3IB DD 01H DUP (?)			; RMS_ANALYSIS_FUNC
?RMSG_GET_USERID@@3IB DD 01H DUP (?)			; RMSG_GET_USERID
?RMSG_CHANGE_SKINCOLOR@@3IB DD 01H DUP (?)		; RMSG_CHANGE_SKINCOLOR
?RMSG_GET_SKINCOLOR@@3IB DD 01H DUP (?)			; RMSG_GET_SKINCOLOR
?RMSG_CHANGEVERTSCALETYPE@@3IB DD 01H DUP (?)		; RMSG_CHANGEVERTSCALETYPE
?RMSG_CHANGE_CROSSLINE@@3IB DD 01H DUP (?)		; RMSG_CHANGE_CROSSLINE
?RMSG_ADD_PLATFORM_MENU@@3IB DD 01H DUP (?)		; RMSG_ADD_PLATFORM_MENU
?RMSG_SETINITIALCHARTDATA@@3IB DD 01H DUP (?)		; RMSG_SETINITIALCHARTDATA
?RMSG_GETINFO@@3IB DD 01H DUP (?)			; RMSG_GETINFO
?RMSG_SETINFO@@3IB DD 01H DUP (?)			; RMSG_SETINFO
?RMSG_DRUSER@@3IB DD 01H DUP (?)			; RMSG_DRUSER
_BSS	ENDS
;	COMDAT CRT$XCU
CRT$XCU	SEGMENT
?_AtlWinModule$initializer$@ATL@@3P6AXXZA DD FLAT:??__E_AtlWinModule@ATL@@YAXXZ ; ATL::_AtlWinModule$initializer$
CRT$XCU	ENDS
;	COMDAT ??_C@_0O@DJPIKCGJ@TabCodeSearch@
CONST	SEGMENT
??_C@_0O@DJPIKCGJ@TabCodeSearch@ DB 'TabCodeSearch', 00H ; `string'
CONST	ENDS
;	COMDAT ??_C@_0BG@ILJLMOMK@OnLoadHistory_Init_?$CFd@
CONST	SEGMENT
??_C@_0BG@ILJLMOMK@OnLoadHistory_Init_?$CFd@ DB 'OnLoadHistory_Init_%d', 00H ; `string'
CONST	ENDS
;	COMDAT ??_C@_0O@KLOMEEGC@OnLoadHistory@
CONST	SEGMENT
??_C@_0O@KLOMEEGC@OnLoadHistory@ DB 'OnLoadHistory', 00H ; `string'
CONST	ENDS
;	COMDAT ??_C@_06OJPKBKKO@gicode@
CONST	SEGMENT
??_C@_06OJPKBKKO@gicode@ DB 'gicode', 00H		; `string'
CONST	ENDS
;	COMDAT ??_C@_03NOBDJFIO@301@
CONST	SEGMENT
??_C@_03NOBDJFIO@301@ DB '301', 00H			; `string'
CONST	ENDS
;	COMDAT ??_C@_01GPOEFGEJ@?7@
CONST	SEGMENT
??_C@_01GPOEFGEJ@?7@ DB 09H, 00H			; `string'
CONST	ENDS
;	COMDAT ??_C@_01EEMJAFIK@?6@
CONST	SEGMENT
??_C@_01EEMJAFIK@?6@ DB 0aH, 00H			; `string'
CONST	ENDS
;	COMDAT ??_C@_0L@CBPHCCCB@USERSCREEN@
CONST	SEGMENT
??_C@_0L@CBPHCCCB@USERSCREEN@ DB 'USERSCREEN', 00H	; `string'
CONST	ENDS
;	COMDAT ??_C@_08KFOOADEE@pijs0112@
CONST	SEGMENT
??_C@_08KFOOADEE@pijs0112@ DB 'pijs0112', 00H		; `string'
CONST	ENDS
;	COMDAT ??_C@_05GFCMPLNO@c1002@
CONST	SEGMENT
??_C@_05GFCMPLNO@c1002@ DB 'c1002', 00H			; `string'
CONST	ENDS
;	COMDAT ??_C@_08IOMDFAIH@pijs0111@
CONST	SEGMENT
??_C@_08IOMDFAIH@pijs0111@ DB 'pijs0111', 00H		; `string'
CONST	ENDS
;	COMDAT ??_C@_0BH@EJLLDLHG@OnSaveHistory?7?$CFd?7?$CFd?7?$CFs@
CONST	SEGMENT
??_C@_0BH@EJLLDLHG@OnSaveHistory?7?$CFd?7?$CFd?7?$CFs@ DB 'OnSaveHistory', 09H
	DB	'%d', 09H, '%d', 09H, '%s', 00H		; `string'
CONST	ENDS
;	COMDAT ??_C@_04JIMNDDED@?$CF08X@
CONST	SEGMENT
??_C@_04JIMNDDED@?$CF08X@ DB '%08X', 00H		; `string'
CONST	ENDS
;	COMDAT ??_C@_00CNPNBAHC@@
CONST	SEGMENT
??_C@_00CNPNBAHC@@ DB 00H				; `string'
CONST	ENDS
;	COMDAT ?_AtlWinModule@ATL@@3VCAtlWinModule@1@A
_DATA	SEGMENT
?_AtlWinModule@ATL@@3VCAtlWinModule@1@A DD 02cH		; ATL::_AtlWinModule
	DB	24 DUP(00H)
	DD	00H
_DATA	ENDS
;	COMDAT xdata$x
xdata$x	SEGMENT
__unwindtable$?_DoCheckMetrixScreen@CStdDialog@@QAEXXZ DD 0ffffffffH
	DD	FLAT:__unwindfunclet$?_DoCheckMetrixScreen@CStdDialog@@QAEXXZ$0
	DD	00H
	DD	FLAT:__unwindfunclet$?_DoCheckMetrixScreen@CStdDialog@@QAEXXZ$1
	DD	00H
	DD	FLAT:__unwindfunclet$?_DoCheckMetrixScreen@CStdDialog@@QAEXXZ$2
__ehfuncinfo$?_DoCheckMetrixScreen@CStdDialog@@QAEXXZ DD 019930522H
	DD	03H
	DD	FLAT:__unwindtable$?_DoCheckMetrixScreen@CStdDialog@@QAEXXZ
	DD	2 DUP(00H)
	DD	2 DUP(00H)
	DD	00H
	DD	01H
xdata$x	ENDS
;	COMDAT xdata$x
xdata$x	SEGMENT
__unwindtable$?OnRmsgDRUser@CStdDialog@@IAEJIJ@Z DD 0ffffffffH
	DD	FLAT:__unwindfunclet$?OnRmsgDRUser@CStdDialog@@IAEJIJ@Z$0
	DD	00H
	DD	FLAT:__unwindfunclet$?OnRmsgDRUser@CStdDialog@@IAEJIJ@Z$1
	DD	01H
	DD	FLAT:__unwindfunclet$?OnRmsgDRUser@CStdDialog@@IAEJIJ@Z$2
__ehfuncinfo$?OnRmsgDRUser@CStdDialog@@IAEJIJ@Z DD 019930522H
	DD	03H
	DD	FLAT:__unwindtable$?OnRmsgDRUser@CStdDialog@@IAEJIJ@Z
	DD	2 DUP(00H)
	DD	2 DUP(00H)
	DD	00H
	DD	01H
xdata$x	ENDS
;	COMDAT xdata$x
xdata$x	SEGMENT
__ehfuncinfo$??_Estringdispid@CComTypeInfoHolder@ATL@@QAEPAXI@Z DD 019930522H
	DD	00H
	DD	00H
	DD	2 DUP(00H)
	DD	2 DUP(00H)
	DD	00H
	DD	05H
xdata$x	ENDS
CRT$XCU	SEGMENT
?RMSG_REPLAY_REAL$initializer$@@3P6AXXZA DD FLAT:??__ERMSG_REPLAY_REAL@@YAXXZ ; RMSG_REPLAY_REAL$initializer$
CRT$XCU	ENDS
CRT$XCU	SEGMENT
?RMSG_REPLAY_FAIL$initializer$@@3P6AXXZA DD FLAT:??__ERMSG_REPLAY_FAIL@@YAXXZ ; RMSG_REPLAY_FAIL$initializer$
CRT$XCU	ENDS
CRT$XCU	SEGMENT
?RMSG_REPLAY_CHANGE_DATE$initializer$@@3P6AXXZA DD FLAT:??__ERMSG_REPLAY_CHANGE_DATE@@YAXXZ ; RMSG_REPLAY_CHANGE_DATE$initializer$
CRT$XCU	ENDS
CRT$XCU	SEGMENT
?RMSG_REPLAY_END$initializer$@@3P6AXXZA DD FLAT:??__ERMSG_REPLAY_END@@YAXXZ ; RMSG_REPLAY_END$initializer$
CRT$XCU	ENDS
CRT$XCU	SEGMENT
?RMSG_REPLAY_INC_SEC$initializer$@@3P6AXXZA DD FLAT:??__ERMSG_REPLAY_INC_SEC@@YAXXZ ; RMSG_REPLAY_INC_SEC$initializer$
CRT$XCU	ENDS
CRT$XCU	SEGMENT
?RMSG_REPLAY_TOTAL_SEC$initializer$@@3P6AXXZA DD FLAT:??__ERMSG_REPLAY_TOTAL_SEC@@YAXXZ ; RMSG_REPLAY_TOTAL_SEC$initializer$
CRT$XCU	ENDS
CRT$XCU	SEGMENT
?RMSG_GETSIGNAL_REAL$initializer$@@3P6AXXZA DD FLAT:??__ERMSG_GETSIGNAL_REAL@@YAXXZ ; RMSG_GETSIGNAL_REAL$initializer$
CRT$XCU	ENDS
CRT$XCU	SEGMENT
?RMSG_SETQUERYOPT$initializer$@@3P6AXXZA DD FLAT:??__ERMSG_SETQUERYOPT@@YAXXZ ; RMSG_SETQUERYOPT$initializer$
CRT$XCU	ENDS
CRT$XCU	SEGMENT
?RMSG_CHARTMAIN$initializer$@@3P6AXXZA DD FLAT:??__ERMSG_CHARTMAIN@@YAXXZ ; RMSG_CHARTMAIN$initializer$
CRT$XCU	ENDS
CRT$XCU	SEGMENT
?RMS_ANALYSIS_FUNC$initializer$@@3P6AXXZA DD FLAT:??__ERMS_ANALYSIS_FUNC@@YAXXZ ; RMS_ANALYSIS_FUNC$initializer$
CRT$XCU	ENDS
CRT$XCU	SEGMENT
?RMSG_GET_USERID$initializer$@@3P6AXXZA DD FLAT:??__ERMSG_GET_USERID@@YAXXZ ; RMSG_GET_USERID$initializer$
CRT$XCU	ENDS
CRT$XCU	SEGMENT
?RMSG_CHANGE_SKINCOLOR$initializer$@@3P6AXXZA DD FLAT:??__ERMSG_CHANGE_SKINCOLOR@@YAXXZ ; RMSG_CHANGE_SKINCOLOR$initializer$
CRT$XCU	ENDS
CRT$XCU	SEGMENT
?RMSG_GET_SKINCOLOR$initializer$@@3P6AXXZA DD FLAT:??__ERMSG_GET_SKINCOLOR@@YAXXZ ; RMSG_GET_SKINCOLOR$initializer$
CRT$XCU	ENDS
CRT$XCU	SEGMENT
?RMSG_CHANGEVERTSCALETYPE$initializer$@@3P6AXXZA DD FLAT:??__ERMSG_CHANGEVERTSCALETYPE@@YAXXZ ; RMSG_CHANGEVERTSCALETYPE$initializer$
CRT$XCU	ENDS
CRT$XCU	SEGMENT
?RMSG_CHANGE_CROSSLINE$initializer$@@3P6AXXZA DD FLAT:??__ERMSG_CHANGE_CROSSLINE@@YAXXZ ; RMSG_CHANGE_CROSSLINE$initializer$
CRT$XCU	ENDS
CRT$XCU	SEGMENT
?RMSG_ADD_PLATFORM_MENU$initializer$@@3P6AXXZA DD FLAT:??__ERMSG_ADD_PLATFORM_MENU@@YAXXZ ; RMSG_ADD_PLATFORM_MENU$initializer$
CRT$XCU	ENDS
CRT$XCU	SEGMENT
?RMSG_SETINITIALCHARTDATA$initializer$@@3P6AXXZA DD FLAT:??__ERMSG_SETINITIALCHARTDATA@@YAXXZ ; RMSG_SETINITIALCHARTDATA$initializer$
CRT$XCU	ENDS
CRT$XCU	SEGMENT
?RMSG_GETINFO$initializer$@@3P6AXXZA DD FLAT:??__ERMSG_GETINFO@@YAXXZ ; RMSG_GETINFO$initializer$
CRT$XCU	ENDS
CRT$XCU	SEGMENT
?RMSG_SETINFO$initializer$@@3P6AXXZA DD FLAT:??__ERMSG_SETINFO@@YAXXZ ; RMSG_SETINFO$initializer$
CRT$XCU	ENDS
CRT$XCU	SEGMENT
?RMSG_DRUSER$initializer$@@3P6AXXZA DD FLAT:??__ERMSG_DRUSER@@YAXXZ ; RMSG_DRUSER$initializer$
CRT$XCU	ENDS
; Function compile flags: /Ogtp
; File D:\git\src\IBK\IBK_DRFN\ProjSrc\SrcDrfn\inc\DRCommon.h
;	COMDAT ??__ERMSG_DRUSER@@YAXXZ
text$di	SEGMENT
??__ERMSG_DRUSER@@YAXXZ PROC				; `dynamic initializer for 'RMSG_DRUSER'', COMDAT

; 9    : 	const UINT RMSG_DRUSER = ::RegisterWindowMessage(_T("RMSG_DRUSER"));

  00000	68 00 00 00 00	 push	 OFFSET ??_C@_0M@LPFHDJI@RMSG_DRUSER@
  00005	ff 15 00 00 00
	00		 call	 DWORD PTR __imp__RegisterWindowMessageA@4
  0000b	a3 00 00 00 00	 mov	 DWORD PTR ?RMSG_DRUSER@@3IB, eax
  00010	c3		 ret	 0
??__ERMSG_DRUSER@@YAXXZ ENDP				; `dynamic initializer for 'RMSG_DRUSER''
text$di	ENDS
; Function compile flags: /Ogtp
; File D:\git\src\IBK\IBK_DRFN\ProjSrc\SrcDrfn\Chart\MULTICHART\StdDialogPartnerSite.cpp
; File D:\git\src\IBK\IBK_DRFN\ProjSrc\SrcDrfn\Chart\MULTICHART\ChartItem.h
; File D:\git\src\IBK\IBK_DRFN\ProjSrc\SrcDrfn\Chart\MULTICHART\StdDialogPartnerSite.cpp
;	COMDAT ?_DoCheckMetrixScreen@CStdDialog@@QAEXXZ
_TEXT	SEGMENT
$T2 = -24						; size = 4
_szCode$ = -20						; size = 4
_szDomino$ = -16					; size = 4
__$EHRec$ = -12						; size = 12
?_DoCheckMetrixScreen@CStdDialog@@QAEXXZ PROC		; CStdDialog::_DoCheckMetrixScreen, COMDAT
; _this$ = ecx

; 16   : {

  00000	55		 push	 ebp
  00001	8b ec		 mov	 ebp, esp
  00003	6a ff		 push	 -1
  00005	68 00 00 00 00	 push	 __ehhandler$?_DoCheckMetrixScreen@CStdDialog@@QAEXXZ
  0000a	64 a1 00 00 00
	00		 mov	 eax, DWORD PTR fs:0
  00010	50		 push	 eax
  00011	83 ec 0c	 sub	 esp, 12			; 0000000cH
  00014	56		 push	 esi
  00015	57		 push	 edi
  00016	a1 00 00 00 00	 mov	 eax, DWORD PTR ___security_cookie
  0001b	33 c5		 xor	 eax, ebp
  0001d	50		 push	 eax
  0001e	8d 45 f4	 lea	 eax, DWORD PTR __$EHRec$[ebp]
  00021	64 a3 00 00 00
	00		 mov	 DWORD PTR fs:0, eax
  00027	8b f9		 mov	 edi, ecx

; 17   : 	//if(m_nScreenID<0367 && m_nScreenID>0371) return;
; 18   : 	if(m_nScreenID<367 && m_nScreenID>371) return;
; 19   : 
; 20   : 	CString szCode;

  00029	8d 4d ec	 lea	 ecx, DWORD PTR _szCode$[ebp]
  0002c	ff 15 00 00 00
	00		 call	 DWORD PTR __imp_??0?$CStringT@DV?$StrTraitMFC_DLL@DV?$ChTraitsCRT@D@ATL@@@@@ATL@@QAE@XZ

; 21   : 	if( m_ChartMng.GetpChartItemSelected() != NULL)

  00032	8d 8f 10 08 00
	00		 lea	 ecx, DWORD PTR [edi+2064]
  00038	c7 45 fc 00 00
	00 00		 mov	 DWORD PTR __$EHRec$[ebp+8], 0
  0003f	e8 00 00 00 00	 call	 ?GetpChartItemSelected@CChartMng@@QAEPAVCChartItem@@XZ ; CChartMng::GetpChartItemSelected
  00044	85 c0		 test	 eax, eax
  00046	74 38		 je	 SHORT $LN3@DoCheckMet

; 22   : 		szCode = m_ChartMng.GetpChartItemSelected()->GetSelectedItemCode();

  00048	8d 8f 10 08 00
	00		 lea	 ecx, DWORD PTR [edi+2064]
  0004e	e8 00 00 00 00	 call	 ?GetpChartItemSelected@CChartMng@@QAEPAVCChartItem@@XZ ; CChartMng::GetpChartItemSelected
; File D:\git\src\IBK\IBK_DRFN\ProjSrc\SrcDrfn\Chart\MULTICHART\ChartItem.h

; 737  : 	CString GetSelectedItemCode() { return m_strSelectedItemCode; };

  00053	05 54 05 00 00	 add	 eax, 1364		; 00000554H
  00058	8d 4d e8	 lea	 ecx, DWORD PTR $T2[ebp]
  0005b	50		 push	 eax
  0005c	ff 15 00 00 00
	00		 call	 DWORD PTR __imp_??0?$CStringT@DV?$StrTraitMFC_DLL@DV?$ChTraitsCRT@D@ATL@@@@@ATL@@QAE@ABV01@@Z
; File D:\git\src\IBK\IBK_DRFN\ProjSrc\SrcDrfn\Chart\MULTICHART\StdDialogPartnerSite.cpp

; 22   : 		szCode = m_ChartMng.GetpChartItemSelected()->GetSelectedItemCode();

  00062	8d 45 e8	 lea	 eax, DWORD PTR $T2[ebp]
  00065	c6 45 fc 01	 mov	 BYTE PTR __$EHRec$[ebp+8], 1
  00069	50		 push	 eax
  0006a	8d 4d ec	 lea	 ecx, DWORD PTR _szCode$[ebp]
  0006d	ff 15 00 00 00
	00		 call	 DWORD PTR __imp_??4?$CStringT@DV?$StrTraitMFC_DLL@DV?$ChTraitsCRT@D@ATL@@@@@ATL@@QAEAAV01@ABV01@@Z
  00073	8d 4d e8	 lea	 ecx, DWORD PTR $T2[ebp]
  00076	c6 45 fc 00	 mov	 BYTE PTR __$EHRec$[ebp+8], 0
  0007a	ff 15 00 00 00
	00		 call	 DWORD PTR __imp_??1?$CStringT@DV?$StrTraitMFC_DLL@DV?$ChTraitsCRT@D@ATL@@@@@ATL@@QAE@XZ
$LN3@DoCheckMet:

; 23   : 
; 24   : 	if(!g_pPtUtilMng) return;

  00080	83 3d 00 00 00
	00 00		 cmp	 DWORD PTR ?g_pPtUtilMng@@3PAUIPartnerUtilManager@@A, 0 ; g_pPtUtilMng
  00087	74 70		 je	 SHORT $LN11@DoCheckMet

; 25   : 
; 26   : 	m_nMatrix;
; 27   : 	CString szDomino;

  00089	8d 4d f0	 lea	 ecx, DWORD PTR _szDomino$[ebp]
  0008c	ff 15 00 00 00
	00		 call	 DWORD PTR __imp_??0?$CStringT@DV?$StrTraitMFC_DLL@DV?$ChTraitsCRT@D@ATL@@@@@ATL@@QAE@XZ

; 28   : 	int nMajor = (int)g_pPtUtilMng->DoWinixVariant(m_hPlatform, majorCC, "");

  00092	51		 push	 ecx
  00093	8b cc		 mov	 ecx, esp
  00095	c6 45 fc 02	 mov	 BYTE PTR __$EHRec$[ebp+8], 2
  00099	68 00 00 00 00	 push	 OFFSET ??_C@_00CNPNBAHC@@
  0009e	ff 15 00 00 00
	00		 call	 DWORD PTR __imp_??0?$CStringT@DV?$StrTraitMFC_DLL@DV?$ChTraitsCRT@D@ATL@@@@@ATL@@QAE@PBD@Z
  000a4	a1 00 00 00 00	 mov	 eax, DWORD PTR ?g_pPtUtilMng@@3PAUIPartnerUtilManager@@A ; g_pPtUtilMng
  000a9	6a 13		 push	 19			; 00000013H
  000ab	ff b7 20 03 00
	00		 push	 DWORD PTR [edi+800]
  000b1	8b 08		 mov	 ecx, DWORD PTR [eax]
  000b3	50		 push	 eax
  000b4	ff 11		 call	 DWORD PTR [ecx]

; 29   : 	szDomino.Format("OnSaveHistory\t%d\t%d\t%s", nMajor, m_nMatrix, szCode);

  000b6	ff 75 ec	 push	 DWORD PTR _szCode$[ebp]
  000b9	ff b7 e4 13 00
	00		 push	 DWORD PTR [edi+5092]
  000bf	50		 push	 eax
  000c0	8d 45 f0	 lea	 eax, DWORD PTR _szDomino$[ebp]
  000c3	68 00 00 00 00	 push	 OFFSET ??_C@_0BH@EJLLDLHG@OnSaveHistory?7?$CFd?7?$CFd?7?$CFs@
  000c8	50		 push	 eax
  000c9	ff 15 00 00 00
	00		 call	 DWORD PTR __imp_?Format@?$CStringT@DV?$StrTraitMFC_DLL@DV?$ChTraitsCRT@D@ATL@@@@@ATL@@QAAXPBDZZ

; 30   : 
; 31   : 	g_pPtUtilMng->DoWinixVariant(m_hPlatform, triggerCC, szDomino);

  000cf	83 c4 10	 add	 esp, 16			; 00000010H
  000d2	8d 45 f0	 lea	 eax, DWORD PTR _szDomino$[ebp]
  000d5	8b cc		 mov	 ecx, esp
  000d7	50		 push	 eax
  000d8	ff 15 00 00 00
	00		 call	 DWORD PTR __imp_??0?$CStringT@DV?$StrTraitMFC_DLL@DV?$ChTraitsCRT@D@ATL@@@@@ATL@@QAE@ABV01@@Z
  000de	a1 00 00 00 00	 mov	 eax, DWORD PTR ?g_pPtUtilMng@@3PAUIPartnerUtilManager@@A ; g_pPtUtilMng
  000e3	6a 06		 push	 6
  000e5	ff b7 20 03 00
	00		 push	 DWORD PTR [edi+800]
  000eb	8b 08		 mov	 ecx, DWORD PTR [eax]
  000ed	50		 push	 eax
  000ee	ff 11		 call	 DWORD PTR [ecx]

; 32   : 
; 33   : }

  000f0	8d 4d f0	 lea	 ecx, DWORD PTR _szDomino$[ebp]
  000f3	ff 15 00 00 00
	00		 call	 DWORD PTR __imp_??1?$CStringT@DV?$StrTraitMFC_DLL@DV?$ChTraitsCRT@D@ATL@@@@@ATL@@QAE@XZ
$LN11@DoCheckMet:
  000f9	8d 4d ec	 lea	 ecx, DWORD PTR _szCode$[ebp]
  000fc	ff 15 00 00 00
	00		 call	 DWORD PTR __imp_??1?$CStringT@DV?$StrTraitMFC_DLL@DV?$ChTraitsCRT@D@ATL@@@@@ATL@@QAE@XZ
  00102	8b 4d f4	 mov	 ecx, DWORD PTR __$EHRec$[ebp]
  00105	64 89 0d 00 00
	00 00		 mov	 DWORD PTR fs:0, ecx
  0010c	59		 pop	 ecx
  0010d	5f		 pop	 edi
  0010e	5e		 pop	 esi
  0010f	8b e5		 mov	 esp, ebp
  00111	5d		 pop	 ebp
  00112	c3		 ret	 0
_TEXT	ENDS
;	COMDAT text$x
text$x	SEGMENT
__unwindfunclet$?_DoCheckMetrixScreen@CStdDialog@@QAEXXZ$0:
  00000	8d 4d ec	 lea	 ecx, DWORD PTR _szCode$[ebp]
  00003	ff 25 00 00 00
	00		 jmp	 DWORD PTR __imp_??1?$CStringT@DV?$StrTraitMFC_DLL@DV?$ChTraitsCRT@D@ATL@@@@@ATL@@QAE@XZ
__unwindfunclet$?_DoCheckMetrixScreen@CStdDialog@@QAEXXZ$1:
  00009	8d 4d e8	 lea	 ecx, DWORD PTR $T2[ebp]
  0000c	ff 25 00 00 00
	00		 jmp	 DWORD PTR __imp_??1?$CStringT@DV?$StrTraitMFC_DLL@DV?$ChTraitsCRT@D@ATL@@@@@ATL@@QAE@XZ
__unwindfunclet$?_DoCheckMetrixScreen@CStdDialog@@QAEXXZ$2:
  00012	8d 4d f0	 lea	 ecx, DWORD PTR _szDomino$[ebp]
  00015	ff 25 00 00 00
	00		 jmp	 DWORD PTR __imp_??1?$CStringT@DV?$StrTraitMFC_DLL@DV?$ChTraitsCRT@D@ATL@@@@@ATL@@QAE@XZ
  0001b	cc		 int	 3
  0001c	cc		 int	 3
  0001d	cc		 int	 3
  0001e	cc		 int	 3
  0001f	cc		 int	 3
__ehhandler$?_DoCheckMetrixScreen@CStdDialog@@QAEXXZ:
  00020	90		 npad	 1
  00021	90		 npad	 1
  00022	8b 54 24 08	 mov	 edx, DWORD PTR [esp+8]
  00026	8d 42 0c	 lea	 eax, DWORD PTR [edx+12]
  00029	8b 4a e8	 mov	 ecx, DWORD PTR [edx-24]
  0002c	33 c8		 xor	 ecx, eax
  0002e	e8 00 00 00 00	 call	 @__security_check_cookie@4
  00033	b8 00 00 00 00	 mov	 eax, OFFSET __ehfuncinfo$?_DoCheckMetrixScreen@CStdDialog@@QAEXXZ
  00038	e9 00 00 00 00	 jmp	 ___CxxFrameHandler3
text$x	ENDS
?_DoCheckMetrixScreen@CStdDialog@@QAEXXZ ENDP		; CStdDialog::_DoCheckMetrixScreen
; Function compile flags: /Ogtp
; File D:\git\src\IBK\IBK_DRFN\ProjSrc\SrcDrfn\Chart\MULTICHART\StdDialogPartnerSite.cpp
; File C:\Program Files (x86)\Microsoft Visual Studio\2019\Community\VC\Tools\MSVC\14.29.30133\atlmfc\include\afxcoll.inl
; File D:\git\src\IBK\IBK_DRFN\ProjSrc\SrcDrfn\Chart\MULTICHART\StdDialogPartnerSite.cpp
; File C:\Program Files (x86)\Microsoft Visual Studio\2019\Community\VC\Tools\MSVC\14.29.30133\atlmfc\include\afxcoll.inl
; File D:\git\src\IBK\IBK_DRFN\ProjSrc\SrcDrfn\Chart\MULTICHART\StdDialogPartnerSite.cpp
;	COMDAT ?ReceiveOnUser@CPartnerSite@CStdDialog@@UAGJIJ@Z
_TEXT	SEGMENT
_strMap$1 = -80						; size = 28
__ctlState$ = -52					; size = 8
$T2 = -44						; size = 4
$T3 = -40						; size = 4
$T4 = -36						; size = 4
$T5 = -32						; size = 4
$T6 = -28						; size = 4
$T7 = -24						; size = 4
_szData$8 = -20						; size = 4
_szInitKey$9 = -16					; size = 4
_sLHIndex$10 = -12					; size = 4
_strTemp2$11 = -8					; size = 4
_strTemp$12 = -4					; size = 4
_strKey$13 = 8						; size = 4
_this$ = 8						; size = 4
_strValue$14 = 12					; size = 4
_wParam$ = 12						; size = 4
_sLHValue$15 = 16					; size = 4
_lParam$ = 16						; size = 4
?ReceiveOnUser@CPartnerSite@CStdDialog@@UAGJIJ@Z PROC	; CStdDialog::CPartnerSite::ReceiveOnUser, COMDAT

; 278  : {

  00000	55		 push	 ebp
  00001	8b ec		 mov	 ebp, esp
  00003	83 ec 50	 sub	 esp, 80			; 00000050H

; 279  : 	METHOD_PROLOGUE(CStdDialog, PartnerSite)

  00006	8d 4d cc	 lea	 ecx, DWORD PTR __ctlState$[ebp]
  00009	56		 push	 esi
  0000a	8b 75 08	 mov	 esi, DWORD PTR _this$[ebp]
  0000d	ff b6 0c ec ff
	ff		 push	 DWORD PTR [esi-5108]
  00013	e8 00 00 00 00	 call	 ??0AFX_MAINTAIN_STATE2@@QAE@PAVAFX_MODULE_STATE@@@Z ; AFX_MAINTAIN_STATE2::AFX_MAINTAIN_STATE2

; 280  : 		
; 281  : 	BYTE bt = LOBYTE(LOWORD(wParam));
; 282  : 	switch (bt)

  00018	80 7d 0c 05	 cmp	 BYTE PTR _wParam$[ebp], 5
  0001c	0f 85 0a 03 00
	00		 jne	 $LN17@ReceiveOnU

; 283  : 	{
; 284  : 	case DLL_DOMINO:		// 화면 열리면서 데이터 공유 받을 때
; 285  : 		{
; 286  : 			pThis->m_mapDominoCode.RemoveAll();

  00022	53		 push	 ebx
  00023	57		 push	 edi
  00024	8d 4e d8	 lea	 ecx, DWORD PTR [esi-40]
  00027	e8 00 00 00 00	 call	 ?RemoveAll@CMapStringToString@@QAEXXZ ; CMapStringToString::RemoveAll

; 287  : 			
; 288  : 			CString szData((char*)lParam), strTemp, strTemp2, strKey, strValue;

  0002c	ff 75 10	 push	 DWORD PTR _lParam$[ebp]
  0002f	8d 4d ec	 lea	 ecx, DWORD PTR _szData$8[ebp]
  00032	ff 15 00 00 00
	00		 call	 DWORD PTR __imp_??0?$CStringT@DV?$StrTraitMFC_DLL@DV?$ChTraitsCRT@D@ATL@@@@@ATL@@QAE@PBD@Z
  00038	8d 4d fc	 lea	 ecx, DWORD PTR _strTemp$12[ebp]
  0003b	ff 15 00 00 00
	00		 call	 DWORD PTR __imp_??0?$CStringT@DV?$StrTraitMFC_DLL@DV?$ChTraitsCRT@D@ATL@@@@@ATL@@QAE@XZ
  00041	8d 4d f8	 lea	 ecx, DWORD PTR _strTemp2$11[ebp]
  00044	ff 15 00 00 00
	00		 call	 DWORD PTR __imp_??0?$CStringT@DV?$StrTraitMFC_DLL@DV?$ChTraitsCRT@D@ATL@@@@@ATL@@QAE@XZ
  0004a	8d 4d 08	 lea	 ecx, DWORD PTR _strKey$13[ebp]
  0004d	ff 15 00 00 00
	00		 call	 DWORD PTR __imp_??0?$CStringT@DV?$StrTraitMFC_DLL@DV?$ChTraitsCRT@D@ATL@@@@@ATL@@QAE@XZ
  00053	8d 4d 0c	 lea	 ecx, DWORD PTR _strValue$14[ebp]
  00056	ff 15 00 00 00
	00		 call	 DWORD PTR __imp_??0?$CStringT@DV?$StrTraitMFC_DLL@DV?$ChTraitsCRT@D@ATL@@@@@ATL@@QAE@XZ

; 289  : 			CMapStringToString strMap;

  0005c	6a 0a		 push	 10			; 0000000aH
  0005e	8d 4d b0	 lea	 ecx, DWORD PTR _strMap$1[ebp]
  00061	e8 00 00 00 00	 call	 ??0CMapStringToString@@QAE@H@Z ; CMapStringToString::CMapStringToString

; 290  : 			strTemp = szData;

  00066	8d 45 ec	 lea	 eax, DWORD PTR _szData$8[ebp]
  00069	50		 push	 eax
  0006a	8d 4d fc	 lea	 ecx, DWORD PTR _strTemp$12[ebp]
  0006d	ff 15 00 00 00
	00		 call	 DWORD PTR __imp_??4?$CStringT@DV?$StrTraitMFC_DLL@DV?$ChTraitsCRT@D@ATL@@@@@ATL@@QAEAAV01@ABV01@@Z

; 291  : 			strTemp += _T("\n");

  00073	68 00 00 00 00	 push	 OFFSET ??_C@_01EEMJAFIK@?6@
  00078	8d 4d fc	 lea	 ecx, DWORD PTR _strTemp$12[ebp]
  0007b	ff 15 00 00 00
	00		 call	 DWORD PTR __imp_??Y?$CStringT@DV?$StrTraitMFC_DLL@DV?$ChTraitsCRT@D@ATL@@@@@ATL@@QAEAAV01@PBD@Z

; 292  : 
; 293  : 			int nFind = strTemp.Find(_T("\n"));

  00081	6a 00		 push	 0
  00083	68 00 00 00 00	 push	 OFFSET ??_C@_01EEMJAFIK@?6@
  00088	8d 4d fc	 lea	 ecx, DWORD PTR _strTemp$12[ebp]
  0008b	ff 15 00 00 00
	00		 call	 DWORD PTR __imp_?Find@?$CStringT@DV?$StrTraitMFC_DLL@DV?$ChTraitsCRT@D@ATL@@@@@ATL@@QBEHPBDH@Z
  00091	8b f8		 mov	 edi, eax

; 294  : 			while (nFind>=0)

  00093	85 ff		 test	 edi, edi
  00095	0f 88 5a 02 00
	00		 js	 $LN5@ReceiveOnU
  0009b	0f 1f 44 00 00	 npad	 5
$LL4@ReceiveOnU:

; 295  : 			{
; 296  : 				strTemp2 = strTemp.Left(nFind);

  000a0	57		 push	 edi
  000a1	8d 45 e8	 lea	 eax, DWORD PTR $T7[ebp]
  000a4	50		 push	 eax
  000a5	8d 4d fc	 lea	 ecx, DWORD PTR _strTemp$12[ebp]
  000a8	ff 15 00 00 00
	00		 call	 DWORD PTR __imp_?Left@?$CStringT@DV?$StrTraitMFC_DLL@DV?$ChTraitsCRT@D@ATL@@@@@ATL@@QBE?AV12@H@Z
  000ae	50		 push	 eax
  000af	8d 4d f8	 lea	 ecx, DWORD PTR _strTemp2$11[ebp]
  000b2	ff 15 00 00 00
	00		 call	 DWORD PTR __imp_??4?$CStringT@DV?$StrTraitMFC_DLL@DV?$ChTraitsCRT@D@ATL@@@@@ATL@@QAEAAV01@ABV01@@Z
  000b8	8d 4d e8	 lea	 ecx, DWORD PTR $T7[ebp]
  000bb	ff 15 00 00 00
	00		 call	 DWORD PTR __imp_??1?$CStringT@DV?$StrTraitMFC_DLL@DV?$ChTraitsCRT@D@ATL@@@@@ATL@@QAE@XZ

; 297  : 				strTemp = strTemp.Mid(nFind+1);

  000c1	8d 47 01	 lea	 eax, DWORD PTR [edi+1]
  000c4	50		 push	 eax
  000c5	8d 45 e4	 lea	 eax, DWORD PTR $T6[ebp]
  000c8	50		 push	 eax
  000c9	8d 4d fc	 lea	 ecx, DWORD PTR _strTemp$12[ebp]
  000cc	ff 15 00 00 00
	00		 call	 DWORD PTR __imp_?Mid@?$CStringT@DV?$StrTraitMFC_DLL@DV?$ChTraitsCRT@D@ATL@@@@@ATL@@QBE?AV12@H@Z
  000d2	50		 push	 eax
  000d3	8d 4d fc	 lea	 ecx, DWORD PTR _strTemp$12[ebp]
  000d6	ff 15 00 00 00
	00		 call	 DWORD PTR __imp_??4?$CStringT@DV?$StrTraitMFC_DLL@DV?$ChTraitsCRT@D@ATL@@@@@ATL@@QAEAAV01@ABV01@@Z
  000dc	8d 4d e4	 lea	 ecx, DWORD PTR $T6[ebp]
  000df	ff 15 00 00 00
	00		 call	 DWORD PTR __imp_??1?$CStringT@DV?$StrTraitMFC_DLL@DV?$ChTraitsCRT@D@ATL@@@@@ATL@@QAE@XZ

; 298  : 				nFind = strTemp2.Find(_T("\t"));

  000e5	6a 00		 push	 0
  000e7	68 00 00 00 00	 push	 OFFSET ??_C@_01GPOEFGEJ@?7@
  000ec	8d 4d f8	 lea	 ecx, DWORD PTR _strTemp2$11[ebp]
  000ef	ff 15 00 00 00
	00		 call	 DWORD PTR __imp_?Find@?$CStringT@DV?$StrTraitMFC_DLL@DV?$ChTraitsCRT@D@ATL@@@@@ATL@@QBEHPBDH@Z
  000f5	8b f8		 mov	 edi, eax

; 299  : 				if (nFind >= 0)

  000f7	85 ff		 test	 edi, edi
  000f9	0f 88 dc 01 00
	00		 js	 $LN13@ReceiveOnU

; 300  : 				{
; 301  : 					strKey = strTemp2.Left(nFind);

  000ff	57		 push	 edi
  00100	8d 45 e0	 lea	 eax, DWORD PTR $T5[ebp]
  00103	50		 push	 eax
  00104	8d 4d f8	 lea	 ecx, DWORD PTR _strTemp2$11[ebp]
  00107	ff 15 00 00 00
	00		 call	 DWORD PTR __imp_?Left@?$CStringT@DV?$StrTraitMFC_DLL@DV?$ChTraitsCRT@D@ATL@@@@@ATL@@QBE?AV12@H@Z
  0010d	50		 push	 eax
  0010e	8d 4d 08	 lea	 ecx, DWORD PTR _strKey$13[ebp]
  00111	ff 15 00 00 00
	00		 call	 DWORD PTR __imp_??4?$CStringT@DV?$StrTraitMFC_DLL@DV?$ChTraitsCRT@D@ATL@@@@@ATL@@QAEAAV01@ABV01@@Z
  00117	8d 4d e0	 lea	 ecx, DWORD PTR $T5[ebp]
  0011a	ff 15 00 00 00
	00		 call	 DWORD PTR __imp_??1?$CStringT@DV?$StrTraitMFC_DLL@DV?$ChTraitsCRT@D@ATL@@@@@ATL@@QAE@XZ

; 302  : 					strValue = strTemp2.Mid(nFind+1);

  00120	8d 47 01	 lea	 eax, DWORD PTR [edi+1]
  00123	50		 push	 eax
  00124	8d 45 dc	 lea	 eax, DWORD PTR $T4[ebp]
  00127	50		 push	 eax
  00128	8d 4d f8	 lea	 ecx, DWORD PTR _strTemp2$11[ebp]
  0012b	ff 15 00 00 00
	00		 call	 DWORD PTR __imp_?Mid@?$CStringT@DV?$StrTraitMFC_DLL@DV?$ChTraitsCRT@D@ATL@@@@@ATL@@QBE?AV12@H@Z
  00131	50		 push	 eax
  00132	8d 4d 0c	 lea	 ecx, DWORD PTR _strValue$14[ebp]
  00135	ff 15 00 00 00
	00		 call	 DWORD PTR __imp_??4?$CStringT@DV?$StrTraitMFC_DLL@DV?$ChTraitsCRT@D@ATL@@@@@ATL@@QAEAAV01@ABV01@@Z
  0013b	8d 4d dc	 lea	 ecx, DWORD PTR $T4[ebp]
  0013e	ff 15 00 00 00
	00		 call	 DWORD PTR __imp_??1?$CStringT@DV?$StrTraitMFC_DLL@DV?$ChTraitsCRT@D@ATL@@@@@ATL@@QAE@XZ
; File C:\Program Files (x86)\Microsoft Visual Studio\2019\Community\VC\Tools\MSVC\14.29.30133\atlmfc\include\afxcoll.inl

; 658  : 	{ (*this)[key] = newValue; }

  00144	ff 75 0c	 push	 DWORD PTR _strValue$14[ebp]
  00147	8d 4d b0	 lea	 ecx, DWORD PTR _strMap$1[ebp]
  0014a	ff 75 08	 push	 DWORD PTR _strKey$13[ebp]
  0014d	e8 00 00 00 00	 call	 ??ACMapStringToString@@QAEAAV?$CStringT@DV?$StrTraitMFC_DLL@DV?$ChTraitsCRT@D@ATL@@@@@ATL@@PBD@Z ; CMapStringToString::operator[]
  00152	8b c8		 mov	 ecx, eax
  00154	ff 15 00 00 00
	00		 call	 DWORD PTR __imp_??4?$CStringT@DV?$StrTraitMFC_DLL@DV?$ChTraitsCRT@D@ATL@@@@@ATL@@QAEAAV01@PBD@Z
; File D:\git\src\IBK\IBK_DRFN\ProjSrc\SrcDrfn\Chart\MULTICHART\StdDialogPartnerSite.cpp

; 305  : 					if (strKey[0]>='1' && strKey[0]<='9')

  0015a	6a 00		 push	 0
  0015c	8d 4d 08	 lea	 ecx, DWORD PTR _strKey$13[ebp]
  0015f	ff 15 00 00 00
	00		 call	 DWORD PTR __imp_??A?$CSimpleStringT@D$00@ATL@@QBEDH@Z
  00165	3c 31		 cmp	 al, 49			; 00000031H
  00167	7c 29		 jl	 SHORT $LN8@ReceiveOnU
  00169	6a 00		 push	 0
  0016b	8d 4d 08	 lea	 ecx, DWORD PTR _strKey$13[ebp]
  0016e	ff 15 00 00 00
	00		 call	 DWORD PTR __imp_??A?$CSimpleStringT@D$00@ATL@@QBEDH@Z
  00174	3c 39		 cmp	 al, 57			; 00000039H
  00176	7f 1a		 jg	 SHORT $LN8@ReceiveOnU

; 306  : 					{
; 307  : 						if (strKey.Find(_T("301")) > 0)

  00178	6a 00		 push	 0
  0017a	68 00 00 00 00	 push	 OFFSET ??_C@_03NOBDJFIO@301@
  0017f	8d 4d 08	 lea	 ecx, DWORD PTR _strKey$13[ebp]
  00182	ff 15 00 00 00
	00		 call	 DWORD PTR __imp_?Find@?$CStringT@DV?$StrTraitMFC_DLL@DV?$ChTraitsCRT@D@ATL@@@@@ATL@@QBEHPBDH@Z
  00188	85 c0		 test	 eax, eax
  0018a	0f 8e 4b 01 00
	00		 jle	 $LN13@ReceiveOnU

; 308  : 						{
; 309  : 							pThis->m_mapDominoCode.SetAt(strKey, strValue);
; 310  : 							RecieveKeyData(0, strTemp2);
; 311  : 						}
; 312  : 					}

  00190	eb 12		 jmp	 SHORT $LN57@ReceiveOnU
$LN8@ReceiveOnU:

; 313  : 					else if(strKey.CompareNoCase("gicode") == 0)

  00192	68 00 00 00 00	 push	 OFFSET ??_C@_06OJPKBKKO@gicode@
  00197	8d 4d 08	 lea	 ecx, DWORD PTR _strKey$13[ebp]
  0019a	ff 15 00 00 00
	00		 call	 DWORD PTR __imp_?CompareNoCase@?$CStringT@DV?$StrTraitMFC_DLL@DV?$ChTraitsCRT@D@ATL@@@@@ATL@@QBEHPBD@Z
  001a0	85 c0		 test	 eax, eax
  001a2	75 26		 jne	 SHORT $LN11@ReceiveOnU
$LN57@ReceiveOnU:

; 338  : 				}
; 339  : 
; 340  : 				nFind = strTemp.Find(_T("\n"));

  001a4	ff 75 0c	 push	 DWORD PTR _strValue$14[ebp]
  001a7	8d 4e d8	 lea	 ecx, DWORD PTR [esi-40]
  001aa	ff 75 08	 push	 DWORD PTR _strKey$13[ebp]
  001ad	e8 00 00 00 00	 call	 ??ACMapStringToString@@QAEAAV?$CStringT@DV?$StrTraitMFC_DLL@DV?$ChTraitsCRT@D@ATL@@@@@ATL@@PBD@Z ; CMapStringToString::operator[]
  001b2	8b c8		 mov	 ecx, eax
  001b4	ff 15 00 00 00
	00		 call	 DWORD PTR __imp_??4?$CStringT@DV?$StrTraitMFC_DLL@DV?$ChTraitsCRT@D@ATL@@@@@ATL@@QAEAAV01@PBD@Z
  001ba	ff 75 f8	 push	 DWORD PTR _strTemp2$11[ebp]
  001bd	8b 06		 mov	 eax, DWORD PTR [esi]
  001bf	6a 00		 push	 0
  001c1	56		 push	 esi
  001c2	ff 50 0c	 call	 DWORD PTR [eax+12]
  001c5	e9 11 01 00 00	 jmp	 $LN13@ReceiveOnU
$LN11@ReceiveOnU:

; 314  : 					{
; 315  : 						pThis->m_mapDominoCode.SetAt(strKey, strValue);
; 316  : 						RecieveKeyData(0, strTemp2);
; 317  : 					}
; 318  : 					else if (strKey.CompareNoCase(_T("OnLoadHistory")) == 0)

  001ca	68 00 00 00 00	 push	 OFFSET ??_C@_0O@KLOMEEGC@OnLoadHistory@
  001cf	8d 4d 08	 lea	 ecx, DWORD PTR _strKey$13[ebp]
  001d2	ff 15 00 00 00
	00		 call	 DWORD PTR __imp_?CompareNoCase@?$CStringT@DV?$StrTraitMFC_DLL@DV?$ChTraitsCRT@D@ATL@@@@@ATL@@QBEHPBD@Z
  001d8	85 c0		 test	 eax, eax
  001da	0f 85 fb 00 00
	00		 jne	 $LN13@ReceiveOnU

; 319  : 					{
; 320  : 						pThis->m_bMetrixScreen = TRUE;
; 321  : 						//pThis->m_nMatrix = atoi(strValue);
; 322  : 						nFind = strValue.Find(_T("\t"));

  001e0	50		 push	 eax
  001e1	68 00 00 00 00	 push	 OFFSET ??_C@_01GPOEFGEJ@?7@
  001e6	8d 4d 0c	 lea	 ecx, DWORD PTR _strValue$14[ebp]
  001e9	c7 46 0c 01 00
	00 00		 mov	 DWORD PTR [esi+12], 1
  001f0	ff 15 00 00 00
	00		 call	 DWORD PTR __imp_?Find@?$CStringT@DV?$StrTraitMFC_DLL@DV?$ChTraitsCRT@D@ATL@@@@@ATL@@QBEHPBDH@Z

; 323  : 						CString sLHIndex, sLHValue;

  001f6	8d 4d f4	 lea	 ecx, DWORD PTR _sLHIndex$10[ebp]
  001f9	8b f8		 mov	 edi, eax
  001fb	ff 15 00 00 00
	00		 call	 DWORD PTR __imp_??0?$CStringT@DV?$StrTraitMFC_DLL@DV?$ChTraitsCRT@D@ATL@@@@@ATL@@QAE@XZ
  00201	8d 4d 10	 lea	 ecx, DWORD PTR _sLHValue$15[ebp]
  00204	ff 15 00 00 00
	00		 call	 DWORD PTR __imp_??0?$CStringT@DV?$StrTraitMFC_DLL@DV?$ChTraitsCRT@D@ATL@@@@@ATL@@QAE@XZ

; 324  : 
; 325  : 						if(nFind<0) sLHIndex = strValue;

  0020a	85 ff		 test	 edi, edi
  0020c	79 0f		 jns	 SHORT $LN14@ReceiveOnU
  0020e	8d 45 0c	 lea	 eax, DWORD PTR _strValue$14[ebp]
  00211	50		 push	 eax
  00212	8d 4d f4	 lea	 ecx, DWORD PTR _sLHIndex$10[ebp]
  00215	ff 15 00 00 00
	00		 call	 DWORD PTR __imp_??4?$CStringT@DV?$StrTraitMFC_DLL@DV?$ChTraitsCRT@D@ATL@@@@@ATL@@QAEAAV01@ABV01@@Z
  0021b	eb 21		 jmp	 SHORT $LN15@ReceiveOnU
$LN14@ReceiveOnU:

; 326  : 						else sLHIndex = strValue.Left(nFind);

  0021d	57		 push	 edi
  0021e	8d 45 d8	 lea	 eax, DWORD PTR $T3[ebp]
  00221	50		 push	 eax
  00222	8d 4d 0c	 lea	 ecx, DWORD PTR _strValue$14[ebp]
  00225	ff 15 00 00 00
	00		 call	 DWORD PTR __imp_?Left@?$CStringT@DV?$StrTraitMFC_DLL@DV?$ChTraitsCRT@D@ATL@@@@@ATL@@QBE?AV12@H@Z
  0022b	50		 push	 eax
  0022c	8d 4d f4	 lea	 ecx, DWORD PTR _sLHIndex$10[ebp]
  0022f	ff 15 00 00 00
	00		 call	 DWORD PTR __imp_??4?$CStringT@DV?$StrTraitMFC_DLL@DV?$ChTraitsCRT@D@ATL@@@@@ATL@@QAEAAV01@ABV01@@Z
  00235	8d 4d d8	 lea	 ecx, DWORD PTR $T3[ebp]
  00238	ff 15 00 00 00
	00		 call	 DWORD PTR __imp_??1?$CStringT@DV?$StrTraitMFC_DLL@DV?$ChTraitsCRT@D@ATL@@@@@ATL@@QAE@XZ
$LN15@ReceiveOnU:

; 327  : 						pThis->m_nMatrix = atoi(sLHIndex);

  0023e	ff 75 f4	 push	 DWORD PTR _sLHIndex$10[ebp]
  00241	ff 15 00 00 00
	00		 call	 DWORD PTR __imp__atoi
  00247	83 c4 04	 add	 esp, 4
  0024a	89 46 d4	 mov	 DWORD PTR [esi-44], eax

; 328  : 
; 329  : 						sLHValue = strValue.Mid(nFind+1);

  0024d	8d 47 01	 lea	 eax, DWORD PTR [edi+1]
  00250	8d 4d 0c	 lea	 ecx, DWORD PTR _strValue$14[ebp]
  00253	50		 push	 eax
  00254	8d 45 d4	 lea	 eax, DWORD PTR $T2[ebp]
  00257	50		 push	 eax
  00258	ff 15 00 00 00
	00		 call	 DWORD PTR __imp_?Mid@?$CStringT@DV?$StrTraitMFC_DLL@DV?$ChTraitsCRT@D@ATL@@@@@ATL@@QBE?AV12@H@Z
  0025e	50		 push	 eax
  0025f	8d 4d 10	 lea	 ecx, DWORD PTR _sLHValue$15[ebp]
  00262	ff 15 00 00 00
	00		 call	 DWORD PTR __imp_??4?$CStringT@DV?$StrTraitMFC_DLL@DV?$ChTraitsCRT@D@ATL@@@@@ATL@@QAEAAV01@ABV01@@Z
  00268	8d 4d d4	 lea	 ecx, DWORD PTR $T2[ebp]
  0026b	ff 15 00 00 00
	00		 call	 DWORD PTR __imp_??1?$CStringT@DV?$StrTraitMFC_DLL@DV?$ChTraitsCRT@D@ATL@@@@@ATL@@QAE@XZ

; 330  : 						sLHValue.TrimLeft(); sLHValue.TrimRight();

  00271	8d 4d 10	 lea	 ecx, DWORD PTR _sLHValue$15[ebp]
  00274	ff 15 00 00 00
	00		 call	 DWORD PTR __imp_?TrimLeft@?$CStringT@DV?$StrTraitMFC_DLL@DV?$ChTraitsCRT@D@ATL@@@@@ATL@@QAEAAV12@XZ
  0027a	8d 4d 10	 lea	 ecx, DWORD PTR _sLHValue$15[ebp]
  0027d	ff 15 00 00 00
	00		 call	 DWORD PTR __imp_?TrimRight@?$CStringT@DV?$StrTraitMFC_DLL@DV?$ChTraitsCRT@D@ATL@@@@@ATL@@QAEAAV12@XZ

; 331  : 						if(sLHValue.GetLength()>0)

  00283	8b 45 10	 mov	 eax, DWORD PTR _sLHValue$15[ebp]
  00286	83 78 f4 00	 cmp	 DWORD PTR [eax-12], 0
  0028a	7e 3d		 jle	 SHORT $LN16@ReceiveOnU

; 332  : 						{
; 333  : 							CString szInitKey;

  0028c	8d 4d f0	 lea	 ecx, DWORD PTR _szInitKey$9[ebp]
  0028f	ff 15 00 00 00
	00		 call	 DWORD PTR __imp_??0?$CStringT@DV?$StrTraitMFC_DLL@DV?$ChTraitsCRT@D@ATL@@@@@ATL@@QAE@XZ

; 334  : 							szInitKey.Format("OnLoadHistory_Init_%d", pThis->m_nMatrix);

  00295	ff 76 d4	 push	 DWORD PTR [esi-44]
  00298	8d 45 f0	 lea	 eax, DWORD PTR _szInitKey$9[ebp]
  0029b	68 00 00 00 00	 push	 OFFSET ??_C@_0BG@ILJLMOMK@OnLoadHistory_Init_?$CFd@
  002a0	50		 push	 eax
  002a1	ff 15 00 00 00
	00		 call	 DWORD PTR __imp_?Format@?$CStringT@DV?$StrTraitMFC_DLL@DV?$ChTraitsCRT@D@ATL@@@@@ATL@@QAAXPBDZZ
  002a7	83 c4 0c	 add	 esp, 12			; 0000000cH
; File C:\Program Files (x86)\Microsoft Visual Studio\2019\Community\VC\Tools\MSVC\14.29.30133\atlmfc\include\afxcoll.inl

; 658  : 	{ (*this)[key] = newValue; }

  002aa	8d 4e d8	 lea	 ecx, DWORD PTR [esi-40]
  002ad	ff 75 10	 push	 DWORD PTR _sLHValue$15[ebp]
  002b0	ff 75 f0	 push	 DWORD PTR _szInitKey$9[ebp]
  002b3	e8 00 00 00 00	 call	 ??ACMapStringToString@@QAEAAV?$CStringT@DV?$StrTraitMFC_DLL@DV?$ChTraitsCRT@D@ATL@@@@@ATL@@PBD@Z ; CMapStringToString::operator[]
  002b8	8b c8		 mov	 ecx, eax
  002ba	ff 15 00 00 00
	00		 call	 DWORD PTR __imp_??4?$CStringT@DV?$StrTraitMFC_DLL@DV?$ChTraitsCRT@D@ATL@@@@@ATL@@QAEAAV01@PBD@Z
; File D:\git\src\IBK\IBK_DRFN\ProjSrc\SrcDrfn\Chart\MULTICHART\StdDialogPartnerSite.cpp

; 336  : 						}

  002c0	8d 4d f0	 lea	 ecx, DWORD PTR _szInitKey$9[ebp]
  002c3	ff 15 00 00 00
	00		 call	 DWORD PTR __imp_??1?$CStringT@DV?$StrTraitMFC_DLL@DV?$ChTraitsCRT@D@ATL@@@@@ATL@@QAE@XZ
$LN16@ReceiveOnU:

; 337  : 					}

  002c9	8d 4d 10	 lea	 ecx, DWORD PTR _sLHValue$15[ebp]
  002cc	ff 15 00 00 00
	00		 call	 DWORD PTR __imp_??1?$CStringT@DV?$StrTraitMFC_DLL@DV?$ChTraitsCRT@D@ATL@@@@@ATL@@QAE@XZ
  002d2	8d 4d f4	 lea	 ecx, DWORD PTR _sLHIndex$10[ebp]
  002d5	ff 15 00 00 00
	00		 call	 DWORD PTR __imp_??1?$CStringT@DV?$StrTraitMFC_DLL@DV?$ChTraitsCRT@D@ATL@@@@@ATL@@QAE@XZ
$LN13@ReceiveOnU:

; 338  : 				}
; 339  : 
; 340  : 				nFind = strTemp.Find(_T("\n"));

  002db	6a 00		 push	 0
  002dd	68 00 00 00 00	 push	 OFFSET ??_C@_01EEMJAFIK@?6@
  002e2	8d 4d fc	 lea	 ecx, DWORD PTR _strTemp$12[ebp]
  002e5	ff 15 00 00 00
	00		 call	 DWORD PTR __imp_?Find@?$CStringT@DV?$StrTraitMFC_DLL@DV?$ChTraitsCRT@D@ATL@@@@@ATL@@QBEHPBDH@Z
  002eb	8b f8		 mov	 edi, eax
  002ed	85 ff		 test	 edi, edi
  002ef	0f 89 ab fd ff
	ff		 jns	 $LL4@ReceiveOnU
$LN5@ReceiveOnU:

; 341  : 			}
; 342  : 		}		

  002f5	8d 4d b0	 lea	 ecx, DWORD PTR _strMap$1[ebp]
  002f8	e8 00 00 00 00	 call	 ??1CMapStringToString@@UAE@XZ ; CMapStringToString::~CMapStringToString
  002fd	8d 4d 0c	 lea	 ecx, DWORD PTR _strValue$14[ebp]
  00300	ff 15 00 00 00
	00		 call	 DWORD PTR __imp_??1?$CStringT@DV?$StrTraitMFC_DLL@DV?$ChTraitsCRT@D@ATL@@@@@ATL@@QAE@XZ
  00306	8d 4d 08	 lea	 ecx, DWORD PTR _strKey$13[ebp]
  00309	ff 15 00 00 00
	00		 call	 DWORD PTR __imp_??1?$CStringT@DV?$StrTraitMFC_DLL@DV?$ChTraitsCRT@D@ATL@@@@@ATL@@QAE@XZ
  0030f	8d 4d f8	 lea	 ecx, DWORD PTR _strTemp2$11[ebp]
  00312	ff 15 00 00 00
	00		 call	 DWORD PTR __imp_??1?$CStringT@DV?$StrTraitMFC_DLL@DV?$ChTraitsCRT@D@ATL@@@@@ATL@@QAE@XZ
  00318	8d 4d fc	 lea	 ecx, DWORD PTR _strTemp$12[ebp]
  0031b	ff 15 00 00 00
	00		 call	 DWORD PTR __imp_??1?$CStringT@DV?$StrTraitMFC_DLL@DV?$ChTraitsCRT@D@ATL@@@@@ATL@@QAE@XZ
  00321	8d 4d ec	 lea	 ecx, DWORD PTR _szData$8[ebp]
  00324	ff 15 00 00 00
	00		 call	 DWORD PTR __imp_??1?$CStringT@DV?$StrTraitMFC_DLL@DV?$ChTraitsCRT@D@ATL@@@@@ATL@@QAE@XZ
  0032a	5f		 pop	 edi
  0032b	5b		 pop	 ebx
$LN17@ReceiveOnU:

; 343  : 		break;
; 344  : 		//Code Cehck.
; 345  : 		//추후 Code관리가 필요할 경우 여기서 개선한다.
; 346  : 		case DLL_Check_AdviseCode:
; 347  : 			break;
; 348  : 	}
; 349  : 
; 350  : 	return S_OK;

  0032c	8d 4d cc	 lea	 ecx, DWORD PTR __ctlState$[ebp]
  0032f	e8 00 00 00 00	 call	 ??1AFX_MAINTAIN_STATE2@@QAE@XZ ; AFX_MAINTAIN_STATE2::~AFX_MAINTAIN_STATE2
  00334	33 c0		 xor	 eax, eax
  00336	5e		 pop	 esi

; 351  : }

  00337	8b e5		 mov	 esp, ebp
  00339	5d		 pop	 ebp
  0033a	c2 0c 00	 ret	 12			; 0000000cH
?ReceiveOnUser@CPartnerSite@CStdDialog@@UAGJIJ@Z ENDP	; CStdDialog::CPartnerSite::ReceiveOnUser
_TEXT	ENDS
; Function compile flags: /Ogtp
; File D:\git\src\IBK\IBK_DRFN\ProjSrc\SrcDrfn\Chart\MULTICHART\StdDialogPartnerSite.cpp
;	COMDAT ?RecieveRealDataEx@CPartnerSite@CStdDialog@@UAGJJPBDJ@Z
_TEXT	SEGMENT
__ctlState$ = -8					; size = 8
_this$ = 8						; size = 4
_dwKey$ = 12						; size = 4
_pszCode$ = 16						; size = 4
_dwData$ = 20						; size = 4
?RecieveRealDataEx@CPartnerSite@CStdDialog@@UAGJJPBDJ@Z PROC ; CStdDialog::CPartnerSite::RecieveRealDataEx, COMDAT

; 268  : {

  00000	55		 push	 ebp
  00001	8b ec		 mov	 ebp, esp
  00003	83 ec 08	 sub	 esp, 8

; 269  : 	METHOD_PROLOGUE(CStdDialog, PartnerSite)

  00006	8d 4d f8	 lea	 ecx, DWORD PTR __ctlState$[ebp]
  00009	56		 push	 esi
  0000a	8b 75 08	 mov	 esi, DWORD PTR _this$[ebp]
  0000d	ff b6 0c ec ff
	ff		 push	 DWORD PTR [esi-5108]
  00013	e8 00 00 00 00	 call	 ??0AFX_MAINTAIN_STATE2@@QAE@PAVAFX_MODULE_STATE@@@Z ; AFX_MAINTAIN_STATE2::AFX_MAINTAIN_STATE2

; 270  : 		
; 271  : 	pThis->m_ChartMng.ReceiveRealHogaData(dwKey, pszCode, dwData);

  00018	ff 75 14	 push	 DWORD PTR _dwData$[ebp]
  0001b	8d 8e 00 f4 ff
	ff		 lea	 ecx, DWORD PTR [esi-3072]
  00021	ff 75 10	 push	 DWORD PTR _pszCode$[ebp]
  00024	ff 75 0c	 push	 DWORD PTR _dwKey$[ebp]
  00027	e8 00 00 00 00	 call	 ?ReceiveRealHogaData@CChartMng@@QAEXKPBDJ@Z ; CChartMng::ReceiveRealHogaData

; 272  : 
; 273  : 	return S_OK;

  0002c	8d 4d f8	 lea	 ecx, DWORD PTR __ctlState$[ebp]
  0002f	e8 00 00 00 00	 call	 ??1AFX_MAINTAIN_STATE2@@QAE@XZ ; AFX_MAINTAIN_STATE2::~AFX_MAINTAIN_STATE2
  00034	33 c0		 xor	 eax, eax
  00036	5e		 pop	 esi

; 274  : }

  00037	8b e5		 mov	 esp, ebp
  00039	5d		 pop	 ebp
  0003a	c2 10 00	 ret	 16			; 00000010H
?RecieveRealDataEx@CPartnerSite@CStdDialog@@UAGJJPBDJ@Z ENDP ; CStdDialog::CPartnerSite::RecieveRealDataEx
_TEXT	ENDS
; Function compile flags: /Ogtp
; File D:\git\src\IBK\IBK_DRFN\ProjSrc\SrcDrfn\Chart\MULTICHART\StdDialogPartnerSite.cpp
; File D:\git\src\IBK\IBK_DRFN\ProjSrc\SrcDrfn\Chart\MULTICHART\StdDialog.h
; File C:\Program Files (x86)\Microsoft Visual Studio\2019\Community\VC\Tools\MSVC\14.29.30133\atlmfc\include\afxwin2.inl
; File D:\git\src\IBK\IBK_DRFN\ProjSrc\SrcDrfn\Chart\MULTICHART\StdDialog.h
; File D:\git\src\IBK\IBK_DRFN\ProjSrc\SrcDrfn\Chart\MULTICHART\StdDialogPartnerSite.cpp
; File C:\Program Files (x86)\Microsoft Visual Studio\2019\Community\VC\Tools\MSVC\14.29.30133\atlmfc\include\cstringt.h
; File D:\git\src\IBK\IBK_DRFN\ProjSrc\SrcDrfn\Chart\MULTICHART\StdDialogPartnerSite.cpp
; File C:\Program Files (x86)\Microsoft Visual Studio\2019\Community\VC\Tools\MSVC\14.29.30133\atlmfc\include\cstringt.h
; File D:\git\src\IBK\IBK_DRFN\ProjSrc\SrcDrfn\Chart\MULTICHART\StdDialogPartnerSite.cpp
; File D:\git\src\IBK\IBK_DRFN\ProjSrc\SrcDrfn\Chart\MULTICHART\StdDialog.h
; File D:\git\src\IBK\IBK_DRFN\ProjSrc\SrcDrfn\Chart\MULTICHART\StdDialogPartnerSite.cpp
;	COMDAT ?RecieveKeyData@CPartnerSite@CStdDialog@@UAGJHPBD@Z
_TEXT	SEGMENT
__ctlState$ = -16					; size = 8
_nCodeType$1 = -8					; size = 4
$T2 = -4						; size = 4
$T3 = -4						; size = 4
$T4 = 8							; size = 4
_nCodeType$5 = 8					; size = 4
$T6 = 8							; size = 4
$T7 = 8							; size = 4
_szData$8 = 8						; size = 4
_this$ = 8						; size = 4
_szSaveKey1$9 = 12					; size = 4
_nCodeType$10 = 12					; size = 4
_szSymbol$11 = 12					; size = 4
_nKey$ = 12						; size = 4
_szOldSaveKey$12 = 16					; size = 4
_szCode$13 = 16						; size = 4
_szCode$14 = 16						; size = 4
_szCode$15 = 16						; size = 4
__szData$ = 16						; size = 4
?RecieveKeyData@CPartnerSite@CStdDialog@@UAGJHPBD@Z PROC ; CStdDialog::CPartnerSite::RecieveKeyData, COMDAT

; 71   : {

  00000	55		 push	 ebp
  00001	8b ec		 mov	 ebp, esp
  00003	83 ec 10	 sub	 esp, 16			; 00000010H

; 72   : 	METHOD_PROLOGUE(CStdDialog, PartnerSite)

  00006	8d 4d f0	 lea	 ecx, DWORD PTR __ctlState$[ebp]
  00009	56		 push	 esi
  0000a	57		 push	 edi
  0000b	8b 7d 08	 mov	 edi, DWORD PTR _this$[ebp]
  0000e	81 c7 f0 eb ff
	ff		 add	 edi, -5136		; ffffebf0H
  00014	ff 77 1c	 push	 DWORD PTR [edi+28]
  00017	e8 00 00 00 00	 call	 ??0AFX_MAINTAIN_STATE2@@QAE@PAVAFX_MODULE_STATE@@@Z ; AFX_MAINTAIN_STATE2::AFX_MAINTAIN_STATE2

; 73   : 
; 74   : 	switch(nKey)

  0001c	8b 45 0c	 mov	 eax, DWORD PTR _nKey$[ebp]
  0001f	83 f8 04	 cmp	 eax, 4
  00022	0f 87 a2 04 00
	00		 ja	 $LN2@RecieveKey
  00028	ff 24 85 00 00
	00 00		 jmp	 DWORD PTR $LN105@RecieveKey[eax*4]
$LN8@RecieveKey:

; 75   : 	{
; 76   : 		case IPartnerSite::IPS_RK_shareCode:
; 77   : 			//매트릭스화면은 공유(도미노)처리를 하지않는다.
; 78   : 			if(pThis->m_bMetrixScreen) return S_OK;

  0002f	83 bf 1c 14 00
	00 00		 cmp	 DWORD PTR [edi+5148], 0
  00036	0f 85 8e 04 00
	00		 jne	 $LN2@RecieveKey

; 79   : 
; 80   : 			//100531-alzioyes: 공유일때는 CHANGE_ITEM 모드만 처리한다.
; 81   : 			if(pThis->m_pInputBarDlg->GetCurrentMode() != CHANGE_ITEM)

  0003c	8b 8f 0c 08 00
	00		 mov	 ecx, DWORD PTR [edi+2060]
  00042	6a 00		 push	 0
  00044	6a 00		 push	 0
  00046	e8 00 00 00 00	 call	 ?GetCurrentMode@CInputBarDlg@@QAEHHH@Z ; CInputBarDlg::GetCurrentMode
  0004b	85 c0		 test	 eax, eax
  0004d	0f 85 77 04 00
	00		 jne	 $LN2@RecieveKey

; 82   : 				return S_OK;
; 83   : 
; 84   : 			//조회중이면 return;
; 85   : 			if(pThis->m_pInputBarDlg->IsWindowEnabled()==FALSE)

  00053	8b 8f 0c 08 00
	00		 mov	 ecx, DWORD PTR [edi+2060]
  00059	e8 00 00 00 00	 call	 ?IsWindowEnabled@CWnd@@QBEHXZ ; CWnd::IsWindowEnabled
  0005e	85 c0		 test	 eax, eax
  00060	0f 84 64 04 00
	00		 je	 $LN2@RecieveKey

; 86   : 				return S_OK;
; 87   : 
; 88   : 			//WPARAM 종목코드, LPARAM MarketType	
; 89   : 			{
; 90   : 				CString szData(_szData), szCode,szSymbol;

  00066	ff 75 10	 push	 DWORD PTR __szData$[ebp]
  00069	8d 4d 08	 lea	 ecx, DWORD PTR _szData$8[ebp]
  0006c	ff 15 00 00 00
	00		 call	 DWORD PTR __imp_??0?$CStringT@DV?$StrTraitMFC_DLL@DV?$ChTraitsCRT@D@ATL@@@@@ATL@@QAE@PBD@Z
  00072	8d 4d 10	 lea	 ecx, DWORD PTR _szCode$15[ebp]
  00075	ff 15 00 00 00
	00		 call	 DWORD PTR __imp_??0?$CStringT@DV?$StrTraitMFC_DLL@DV?$ChTraitsCRT@D@ATL@@@@@ATL@@QAE@XZ
  0007b	8d 4d 0c	 lea	 ecx, DWORD PTR _szSymbol$11[ebp]
  0007e	ff 15 00 00 00
	00		 call	 DWORD PTR __imp_??0?$CStringT@DV?$StrTraitMFC_DLL@DV?$ChTraitsCRT@D@ATL@@@@@ATL@@QAE@XZ

; 91   : 				int nPos = szData.Find('\t');

  00084	6a 00		 push	 0
  00086	6a 09		 push	 9
  00088	8d 4d 08	 lea	 ecx, DWORD PTR _szData$8[ebp]
  0008b	ff 15 00 00 00
	00		 call	 DWORD PTR __imp_?Find@?$CStringT@DV?$StrTraitMFC_DLL@DV?$ChTraitsCRT@D@ATL@@@@@ATL@@QBEHDH@Z
  00091	8b f0		 mov	 esi, eax

; 92   : 				if(nPos<0) return FALSE;

  00093	85 f6		 test	 esi, esi
  00095	0f 88 73 01 00
	00		 js	 $LN27@RecieveKey

; 93   : 				
; 94   : 				szSymbol = szData.Left(nPos);

  0009b	56		 push	 esi
  0009c	8d 45 fc	 lea	 eax, DWORD PTR $T3[ebp]
  0009f	50		 push	 eax
  000a0	8d 4d 08	 lea	 ecx, DWORD PTR _szData$8[ebp]
  000a3	ff 15 00 00 00
	00		 call	 DWORD PTR __imp_?Left@?$CStringT@DV?$StrTraitMFC_DLL@DV?$ChTraitsCRT@D@ATL@@@@@ATL@@QBE?AV12@H@Z
  000a9	50		 push	 eax
  000aa	8d 4d 0c	 lea	 ecx, DWORD PTR _szSymbol$11[ebp]
  000ad	ff 15 00 00 00
	00		 call	 DWORD PTR __imp_??4?$CStringT@DV?$StrTraitMFC_DLL@DV?$ChTraitsCRT@D@ATL@@@@@ATL@@QAEAAV01@ABV01@@Z
  000b3	8d 4d fc	 lea	 ecx, DWORD PTR $T3[ebp]
  000b6	ff 15 00 00 00
	00		 call	 DWORD PTR __imp_??1?$CStringT@DV?$StrTraitMFC_DLL@DV?$ChTraitsCRT@D@ATL@@@@@ATL@@QAE@XZ

; 95   : 				szCode = szData.Mid(nPos+1);

  000bc	8d 46 01	 lea	 eax, DWORD PTR [esi+1]
  000bf	50		 push	 eax
  000c0	8d 45 fc	 lea	 eax, DWORD PTR $T2[ebp]
  000c3	50		 push	 eax
  000c4	8d 4d 08	 lea	 ecx, DWORD PTR _szData$8[ebp]
  000c7	ff 15 00 00 00
	00		 call	 DWORD PTR __imp_?Mid@?$CStringT@DV?$StrTraitMFC_DLL@DV?$ChTraitsCRT@D@ATL@@@@@ATL@@QBE?AV12@H@Z
  000cd	50		 push	 eax
  000ce	8d 4d 10	 lea	 ecx, DWORD PTR _szCode$15[ebp]
  000d1	ff 15 00 00 00
	00		 call	 DWORD PTR __imp_??4?$CStringT@DV?$StrTraitMFC_DLL@DV?$ChTraitsCRT@D@ATL@@@@@ATL@@QAEAAV01@ABV01@@Z
  000d7	8d 4d fc	 lea	 ecx, DWORD PTR $T2[ebp]
  000da	ff 15 00 00 00
	00		 call	 DWORD PTR __imp_??1?$CStringT@DV?$StrTraitMFC_DLL@DV?$ChTraitsCRT@D@ATL@@@@@ATL@@QAE@XZ

; 96   : 				szCode.TrimRight();

  000e0	8d 4d 10	 lea	 ecx, DWORD PTR _szCode$15[ebp]
  000e3	ff 15 00 00 00
	00		 call	 DWORD PTR __imp_?TrimRight@?$CStringT@DV?$StrTraitMFC_DLL@DV?$ChTraitsCRT@D@ATL@@@@@ATL@@QAEAAV12@XZ

; 97   : 
; 98   : 				if(g_pPtUtilMng)

  000e9	8b 0d 00 00 00
	00		 mov	 ecx, DWORD PTR ?g_pPtUtilMng@@3PAUIPartnerUtilManager@@A ; g_pPtUtilMng
  000ef	85 c9		 test	 ecx, ecx
  000f1	74 11		 je	 SHORT $LN14@RecieveKey

; 99   : 					if(g_pPtUtilMng->IsCodeSymbol(szSymbol)==FALSE)

  000f3	ff 75 0c	 push	 DWORD PTR _szSymbol$11[ebp]
  000f6	8b 01		 mov	 eax, DWORD PTR [ecx]
  000f8	51		 push	 ecx
  000f9	ff 50 50	 call	 DWORD PTR [eax+80]
  000fc	85 c0		 test	 eax, eax
  000fe	0f 84 0a 01 00
	00		 je	 $LN27@RecieveKey
$LN14@RecieveKey:

; 100  : 						return S_OK;
; 101  : 
; 102  : 				//WPARAM wp = (WPARAM)(LPCSTR)szCode;
; 103  : 				//LPARAM lp = pThis->m_nChartType;
; 104  : 				//pThis->SendMessage(UMSG_SENDSHAREDCODE, wp, lp);
; 105  : 				int nCodeType;
; 106  : 				int nMarketType = pThis->GetMarketTypeFromCode(szCode, nCodeType);

  00104	8d 45 f8	 lea	 eax, DWORD PTR _nCodeType$1[ebp]
  00107	50		 push	 eax
  00108	51		 push	 ecx
  00109	8d 45 10	 lea	 eax, DWORD PTR _szCode$15[ebp]
  0010c	8b cc		 mov	 ecx, esp
  0010e	50		 push	 eax
  0010f	ff 15 00 00 00
	00		 call	 DWORD PTR __imp_??0?$CStringT@DV?$StrTraitMFC_DLL@DV?$ChTraitsCRT@D@ATL@@@@@ATL@@QAE@ABV01@@Z
  00115	8b cf		 mov	 ecx, edi
  00117	e8 00 00 00 00	 call	 ?GetMarketTypeFromCode@CStdDialog@@QAEHV?$CStringT@DV?$StrTraitMFC_DLL@DV?$ChTraitsCRT@D@ATL@@@@@ATL@@AAH@Z ; CStdDialog::GetMarketTypeFromCode

; 107  : 				if (pThis->m_nChartType>SINGLE_CHART && 

  0011c	8b 8f c4 07 00
	00		 mov	 ecx, DWORD PTR [edi+1988]
  00122	83 f9 01	 cmp	 ecx, 1
  00125	76 12		 jbe	 SHORT $LN15@RecieveKey
  00127	83 f8 03	 cmp	 eax, 3
  0012a	0f 84 de 00 00
	00		 je	 $LN27@RecieveKey
  00130	83 f8 05	 cmp	 eax, 5
  00133	0f 84 d5 00 00
	00		 je	 $LN27@RecieveKey
$LN15@RecieveKey:

; 108  : 					(nMarketType==CMasterTypeInfo::STOCKFUTOPT_CHART || nMarketType==CMasterTypeInfo::FUOPT_JIPYO_CHART))
; 109  : 					return S_OK;
; 110  : 
; 111  : //{ //@alzioyes-A001
; 112  : //	CString szDebug;
; 113  : //	szDebug.Format("[%s]%08X]symbol=%s, code=%s\n", pThis->GetScreenNo(), this, szSymbol, szCode);
; 114  : //	OutputDebugString(szDebug);
; 115  : //}
; 116  : 				//@Solomon	미니종합차트에서 선/옵,업종이 공유되는 현상을 막음.
; 117  : //				if (pThis->m_nChartType == MINI_SINGLE2_CHART && nCodeType != CMasterTypeInfo::STOCK_CHART)
; 118  : 				//0006516: [7117] 미니차트 - 코스닥 종목의 종목공유가 안되는 현상 수정.
; 119  : 				if (pThis->m_nChartType == MINI_SINGLE2_CHART && nMarketType != CMasterTypeInfo::STOCK_CHART)

  00139	83 f9 04	 cmp	 ecx, 4
  0013c	75 08		 jne	 SHORT $LN17@RecieveKey
  0013e	85 c0		 test	 eax, eax
  00140	0f 85 c8 00 00
	00		 jne	 $LN27@RecieveKey
$LN17@RecieveKey:
; File D:\git\src\IBK\IBK_DRFN\ProjSrc\SrcDrfn\Chart\MULTICHART\StdDialog.h

; 1209 : 	BOOL IsOpenLoaded() { return m_ChartMng.GetSafeHwnd() ? m_ChartMng.IsLastEnvUpdated() : TRUE; }

  00146	8d 8f 10 08 00
	00		 lea	 ecx, DWORD PTR [edi+2064]
; File C:\Program Files (x86)\Microsoft Visual Studio\2019\Community\VC\Tools\MSVC\14.29.30133\atlmfc\include\afxwin2.inl

; 25   : 	{ return this == NULL ? NULL : m_hWnd; }

  0014c	85 c9		 test	 ecx, ecx
  0014e	74 13		 je	 SHORT $LN104@RecieveKey
; File D:\git\src\IBK\IBK_DRFN\ProjSrc\SrcDrfn\Chart\MULTICHART\StdDialog.h

; 1209 : 	BOOL IsOpenLoaded() { return m_ChartMng.GetSafeHwnd() ? m_ChartMng.IsLastEnvUpdated() : TRUE; }

  00150	83 79 20 00	 cmp	 DWORD PTR [ecx+32], 0
  00154	74 0d		 je	 SHORT $LN104@RecieveKey
; File D:\git\src\IBK\IBK_DRFN\ProjSrc\SrcDrfn\Chart\MULTICHART\StdDialogPartnerSite.cpp

; 122  : 				if( pThis->IsOpenLoaded() && pThis->m_nMarketType == nMarketType )

  00156	83 bf 04 09 00
	00 00		 cmp	 DWORD PTR [edi+2308], 0
  0015d	0f 84 ab 00 00
	00		 je	 $LN27@RecieveKey
$LN104@RecieveKey:
  00163	39 87 64 03 00
	00		 cmp	 DWORD PTR [edi+868], eax
  00169	0f 85 9f 00 00
	00		 jne	 $LN27@RecieveKey

; 123  : 				{
; 124  : 					//@Solomon	과거종목일 경우 종목 공유 없음.	-->
; 125  : 					if (pThis->m_pInputBarDlg && pThis->m_pInputBarDlg->m_pFOHisBtn)

  0016f	8b 87 0c 08 00
	00		 mov	 eax, DWORD PTR [edi+2060]
  00175	85 c0		 test	 eax, eax
  00177	74 64		 je	 SHORT $LN19@RecieveKey
  00179	83 b8 dc 23 00
	00 00		 cmp	 DWORD PTR [eax+9180], 0
  00180	74 5b		 je	 SHORT $LN19@RecieveKey

; 126  : 					{
; 127  : 						nCodeType = pThis->m_pInputBarDlg->m_pFOHisBtn->GetCodeType(szCode);

  00182	51		 push	 ecx
  00183	8d 45 10	 lea	 eax, DWORD PTR _szCode$15[ebp]
  00186	8b cc		 mov	 ecx, esp
  00188	50		 push	 eax
  00189	ff 15 00 00 00
	00		 call	 DWORD PTR __imp_??0?$CStringT@DV?$StrTraitMFC_DLL@DV?$ChTraitsCRT@D@ATL@@@@@ATL@@QAE@ABV01@@Z
  0018f	8b 8f 0c 08 00
	00		 mov	 ecx, DWORD PTR [edi+2060]
  00195	8b 89 dc 23 00
	00		 mov	 ecx, DWORD PTR [ecx+9180]
  0019b	e8 00 00 00 00	 call	 ?GetCodeType@CFOHistoryBtnCtrl@@QAEHV?$CStringT@DV?$StrTraitMFC_DLL@DV?$ChTraitsCRT@D@ATL@@@@@ATL@@@Z ; CFOHistoryBtnCtrl::GetCodeType
  001a0	89 45 f8	 mov	 DWORD PTR _nCodeType$1[ebp], eax

; 128  : 						switch (nCodeType)

  001a3	83 c0 f5	 add	 eax, -11		; fffffff5H
  001a6	83 f8 05	 cmp	 eax, 5
  001a9	77 63		 ja	 SHORT $LN27@RecieveKey
  001ab	0f b6 80 00 00
	00 00		 movzx	 eax, BYTE PTR $LN106@RecieveKey[eax]
  001b2	ff 24 85 00 00
	00 00		 jmp	 DWORD PTR $LN107@RecieveKey[eax*4]
$LN21@RecieveKey:

; 129  : 						{
; 130  : 							case futureType:	// 선물
; 131  : //KHD							case spreadType:	// 스프레드
; 132  : 							case callType:		// 콜옵션
; 133  : 							case putType:		// 풋옵션
; 134  : 							case sfutureType:	// 주식선물
; 135  : 							case koptionType:	// 주식옵션
; 136  : 								break;
; 137  : 							default:
; 138  : 								return S_OK;
; 139  : 						}
; 140  : 						//@Solomon	과거종목일 경우 종목 공유 없음.	<--
; 141  : 						pThis->DoNotifyChangeCode(FALSE);
; 142  : 						pThis->ChangeCode(szCode);

  001b9	6a 00		 push	 0
  001bb	6a 00		 push	 0
  001bd	ff 75 10	 push	 DWORD PTR _szCode$15[ebp]
  001c0	8b cf		 mov	 ecx, edi
  001c2	c7 87 18 14 00
	00 00 00 00 00	 mov	 DWORD PTR [edi+5144], 0
  001cc	e8 00 00 00 00	 call	 ?ChangeCode@CStdDialog@@QAEXPBDHH@Z ; CStdDialog::ChangeCode

; 143  : 						pThis->DoNotifyChangeCode(TRUE);

  001d1	c7 87 18 14 00
	00 01 00 00 00	 mov	 DWORD PTR [edi+5144], 1

; 144  : 					}

  001db	eb 31		 jmp	 SHORT $LN27@RecieveKey
$LN19@RecieveKey:

; 145  : 					else
; 146  : 					{
; 147  : 						pThis->ChangeCode(szCode);

  001dd	6a 00		 push	 0
  001df	6a 00		 push	 0
  001e1	ff 75 10	 push	 DWORD PTR _szCode$15[ebp]
  001e4	8b cf		 mov	 ecx, edi
  001e6	e8 00 00 00 00	 call	 ?ChangeCode@CStdDialog@@QAEXPBDHH@Z ; CStdDialog::ChangeCode

; 148  : 
; 149  : 						//@alzioyes-A001 
; 150  : 						pThis->DoShareCode(szCode);						

  001eb	ff 75 10	 push	 DWORD PTR _szCode$15[ebp]
  001ee	8b cf		 mov	 ecx, edi
  001f0	e8 00 00 00 00	 call	 ?DoShareCode@CStdDialog@@QAEXPBD@Z ; CStdDialog::DoShareCode

; 151  : 						if(g_pPtUtilMng)

  001f5	8b 0d 00 00 00
	00		 mov	 ecx, DWORD PTR ?g_pPtUtilMng@@3PAUIPartnerUtilManager@@A ; g_pPtUtilMng
  001fb	85 c9		 test	 ecx, ecx
  001fd	74 0f		 je	 SHORT $LN27@RecieveKey

; 152  : 							g_pPtUtilMng->AddToHistory(pThis->m_hPlatform, szCode);

  001ff	ff 75 10	 push	 DWORD PTR _szCode$15[ebp]
  00202	8b 01		 mov	 eax, DWORD PTR [ecx]
  00204	ff b7 20 03 00
	00		 push	 DWORD PTR [edi+800]
  0020a	51		 push	 ecx
  0020b	ff 50 48	 call	 DWORD PTR [eax+72]
$LN27@RecieveKey:

; 261  : 			break;
; 262  : 	}
; 263  : 
; 264  : 	return S_OK;

  0020e	8d 4d 0c	 lea	 ecx, DWORD PTR _szSymbol$11[ebp]
  00211	ff 15 00 00 00
	00		 call	 DWORD PTR __imp_??1?$CStringT@DV?$StrTraitMFC_DLL@DV?$ChTraitsCRT@D@ATL@@@@@ATL@@QAE@XZ
  00217	8d 4d 10	 lea	 ecx, DWORD PTR _szCode$15[ebp]
  0021a	ff 15 00 00 00
	00		 call	 DWORD PTR __imp_??1?$CStringT@DV?$StrTraitMFC_DLL@DV?$ChTraitsCRT@D@ATL@@@@@ATL@@QAE@XZ
  00220	8d 4d 08	 lea	 ecx, DWORD PTR _szData$8[ebp]
  00223	e9 9c 02 00 00	 jmp	 $LN110@RecieveKey
$LN28@RecieveKey:

; 153  : 					}
; 154  : 				}
; 155  : 			}
; 156  : 			break;
; 157  : 		case IPartnerSite::IPS_RK_codeDlg: //종목Dialog에서 선택한 Code
; 158  : 			//조회중이면 return;
; 159  : 			if(pThis->m_pInputBarDlg->IsWindowEnabled()==FALSE)

  00228	8b 8f 0c 08 00
	00		 mov	 ecx, DWORD PTR [edi+2060]
  0022e	e8 00 00 00 00	 call	 ?IsWindowEnabled@CWnd@@QBEHXZ ; CWnd::IsWindowEnabled
  00233	85 c0		 test	 eax, eax
  00235	0f 84 8f 02 00
	00		 je	 $LN2@RecieveKey

; 160  : 				return S_OK;
; 161  : 
; 162  : 			{
; 163  : 				//CString szSymbol;
; 164  : 				//g_pPtUtilMng->GetSymboCode(_szData, szSymbol);
; 165  : 
; 166  : 				CString szCode(_szData);

  0023b	ff 75 10	 push	 DWORD PTR __szData$[ebp]
  0023e	8d 4d 10	 lea	 ecx, DWORD PTR _szCode$14[ebp]
  00241	ff 15 00 00 00
	00		 call	 DWORD PTR __imp_??0?$CStringT@DV?$StrTraitMFC_DLL@DV?$ChTraitsCRT@D@ATL@@@@@ATL@@QAE@PBD@Z

; 167  : 				int nPos = szCode.Find('\t');

  00247	6a 00		 push	 0
  00249	6a 09		 push	 9
  0024b	8d 4d 10	 lea	 ecx, DWORD PTR _szCode$14[ebp]
  0024e	ff 15 00 00 00
	00		 call	 DWORD PTR __imp_?Find@?$CStringT@DV?$StrTraitMFC_DLL@DV?$ChTraitsCRT@D@ATL@@@@@ATL@@QBEHDH@Z

; 168  : 				if(nPos>0) szCode = szCode.Mid(nPos);

  00254	85 c0		 test	 eax, eax
  00256	7e 21		 jle	 SHORT $LN30@RecieveKey
  00258	50		 push	 eax
  00259	8d 45 08	 lea	 eax, DWORD PTR $T7[ebp]
  0025c	50		 push	 eax
  0025d	8d 4d 10	 lea	 ecx, DWORD PTR _szCode$14[ebp]
  00260	ff 15 00 00 00
	00		 call	 DWORD PTR __imp_?Mid@?$CStringT@DV?$StrTraitMFC_DLL@DV?$ChTraitsCRT@D@ATL@@@@@ATL@@QBE?AV12@H@Z
  00266	50		 push	 eax
  00267	8d 4d 10	 lea	 ecx, DWORD PTR _szCode$14[ebp]
  0026a	ff 15 00 00 00
	00		 call	 DWORD PTR __imp_??4?$CStringT@DV?$StrTraitMFC_DLL@DV?$ChTraitsCRT@D@ATL@@@@@ATL@@QAEAAV01@ABV01@@Z
  00270	8d 4d 08	 lea	 ecx, DWORD PTR $T7[ebp]
  00273	ff 15 00 00 00
	00		 call	 DWORD PTR __imp_??1?$CStringT@DV?$StrTraitMFC_DLL@DV?$ChTraitsCRT@D@ATL@@@@@ATL@@QAE@XZ
$LN30@RecieveKey:

; 169  : 
; 170  : 				szCode.TrimLeft();szCode.TrimRight();

  00279	8d 4d 10	 lea	 ecx, DWORD PTR _szCode$14[ebp]
  0027c	ff 15 00 00 00
	00		 call	 DWORD PTR __imp_?TrimLeft@?$CStringT@DV?$StrTraitMFC_DLL@DV?$ChTraitsCRT@D@ATL@@@@@ATL@@QAEAAV12@XZ
  00282	8d 4d 10	 lea	 ecx, DWORD PTR _szCode$14[ebp]
  00285	ff 15 00 00 00
	00		 call	 DWORD PTR __imp_?TrimRight@?$CStringT@DV?$StrTraitMFC_DLL@DV?$ChTraitsCRT@D@ATL@@@@@ATL@@QAEAAV12@XZ

; 171  : 				//빈종목넘기면 처리안한다.
; 172  : 				if(szCode.GetLength()==0) return S_OK;

  0028b	8b 45 10	 mov	 eax, DWORD PTR _szCode$14[ebp]
  0028e	83 78 f4 00	 cmp	 DWORD PTR [eax-12], 0
  00292	0f 84 df 00 00
	00		 je	 $LN41@RecieveKey

; 173  : 
; 174  : 				//WPARAM wp = (WPARAM)(LPCSTR)szCode;
; 175  : 				//LPARAM lp = pThis->m_nChartType;
; 176  : 				//pThis->SendMessage(UMSG_SENDSHAREDCODE, wp, lp);
; 177  : 				int nCodeType;
; 178  : 				int nMarketType = pThis->GetMarketTypeFromCode(szCode, nCodeType);

  00298	8d 45 0c	 lea	 eax, DWORD PTR _nCodeType$10[ebp]
  0029b	50		 push	 eax
  0029c	51		 push	 ecx
  0029d	8d 45 10	 lea	 eax, DWORD PTR _szCode$14[ebp]
  002a0	8b cc		 mov	 ecx, esp
  002a2	50		 push	 eax
  002a3	ff 15 00 00 00
	00		 call	 DWORD PTR __imp_??0?$CStringT@DV?$StrTraitMFC_DLL@DV?$ChTraitsCRT@D@ATL@@@@@ATL@@QAE@ABV01@@Z
  002a9	8b cf		 mov	 ecx, edi
  002ab	e8 00 00 00 00	 call	 ?GetMarketTypeFromCode@CStdDialog@@QAEHV?$CStringT@DV?$StrTraitMFC_DLL@DV?$ChTraitsCRT@D@ATL@@@@@ATL@@AAH@Z ; CStdDialog::GetMarketTypeFromCode

; 179  : 
; 180  : 				if (pThis->m_nChartType == SINGLE_CHART &&
; 181  : 					pThis->m_nMarketType == CMasterTypeInfo::STOCKFUTOPT_CHART &&

  002b0	83 bf c4 07 00
	00 01		 cmp	 DWORD PTR [edi+1988], 1
  002b7	8b f0		 mov	 esi, eax
  002b9	75 16		 jne	 SHORT $LN32@RecieveKey
  002bb	83 bf 64 03 00
	00 03		 cmp	 DWORD PTR [edi+868], 3
  002c2	75 0d		 jne	 SHORT $LN32@RecieveKey
  002c4	83 fe 02	 cmp	 esi, 2
  002c7	75 08		 jne	 SHORT $LN32@RecieveKey

; 182  : 					nMarketType == CMasterTypeInfo::FUTOPT_CHART)
; 183  : 				{
; 184  : 					pThis->ChangeStockMode(CMasterTypeInfo::FUTOPT_CHART);

  002c9	50		 push	 eax
  002ca	8b cf		 mov	 ecx, edi
  002cc	e8 00 00 00 00	 call	 ?ChangeStockMode@CStdDialog@@QAEXH@Z ; CStdDialog::ChangeStockMode
$LN32@RecieveKey:

; 185  : 				}
; 186  : 
; 187  : 				if(pThis->m_nMarketType == nMarketType)

  002d1	39 b7 64 03 00
	00		 cmp	 DWORD PTR [edi+868], esi
  002d7	0f 85 9a 00 00
	00		 jne	 $LN41@RecieveKey

; 188  : 				{
; 189  : 					//@Solomon	과거종목일 경우 종목 공유 없음.	-->
; 190  : 					if (pThis->m_pInputBarDlg && pThis->m_pInputBarDlg->m_pFOHisBtn)

  002dd	8b 87 0c 08 00
	00		 mov	 eax, DWORD PTR [edi+2060]
  002e3	85 c0		 test	 eax, eax
  002e5	74 40		 je	 SHORT $LN6@RecieveKey
  002e7	83 b8 dc 23 00
	00 00		 cmp	 DWORD PTR [eax+9180], 0
  002ee	74 37		 je	 SHORT $LN6@RecieveKey

; 191  : 					{
; 192  : 						nCodeType = pThis->m_pInputBarDlg->m_pFOHisBtn->GetCodeType(szCode);

  002f0	51		 push	 ecx
  002f1	8d 45 10	 lea	 eax, DWORD PTR _szCode$14[ebp]
  002f4	8b cc		 mov	 ecx, esp
  002f6	50		 push	 eax
  002f7	ff 15 00 00 00
	00		 call	 DWORD PTR __imp_??0?$CStringT@DV?$StrTraitMFC_DLL@DV?$ChTraitsCRT@D@ATL@@@@@ATL@@QAE@ABV01@@Z
  002fd	8b 8f 0c 08 00
	00		 mov	 ecx, DWORD PTR [edi+2060]
  00303	8b 89 dc 23 00
	00		 mov	 ecx, DWORD PTR [ecx+9180]
  00309	e8 00 00 00 00	 call	 ?GetCodeType@CFOHistoryBtnCtrl@@QAEHV?$CStringT@DV?$StrTraitMFC_DLL@DV?$ChTraitsCRT@D@ATL@@@@@ATL@@@Z ; CFOHistoryBtnCtrl::GetCodeType
  0030e	89 45 0c	 mov	 DWORD PTR _nCodeType$10[ebp], eax

; 193  : 						switch (nCodeType)

  00311	83 c0 f5	 add	 eax, -11		; fffffff5H
  00314	83 f8 05	 cmp	 eax, 5
  00317	77 0e		 ja	 SHORT $LN6@RecieveKey
  00319	0f b6 80 00 00
	00 00		 movzx	 eax, BYTE PTR $LN108@RecieveKey[eax]
  00320	ff 24 85 00 00
	00 00		 jmp	 DWORD PTR $LN109@RecieveKey[eax*4]
$LN6@RecieveKey:

; 205  : 					if(pThis->m_pInputBarDlg->GetCurrentCode() != szCode)

  00327	8b 8f 0c 08 00
	00		 mov	 ecx, DWORD PTR [edi+2060]
  0032d	8d 45 08	 lea	 eax, DWORD PTR $T6[ebp]
  00330	50		 push	 eax
  00331	e8 00 00 00 00	 call	 ?GetCurrentCode@CInputBarDlg@@QAE?AV?$CStringT@DV?$StrTraitMFC_DLL@DV?$ChTraitsCRT@D@ATL@@@@@ATL@@XZ ; CInputBarDlg::GetCurrentCode
; File C:\Program Files (x86)\Microsoft Visual Studio\2019\Community\VC\Tools\MSVC\14.29.30133\atlmfc\include\cstringt.h

; 2560 : 		return( str1.Compare( str2 ) != 0 );

  00336	ff 75 10	 push	 DWORD PTR _szCode$14[ebp]
  00339	8b c8		 mov	 ecx, eax
  0033b	ff 15 00 00 00
	00		 call	 DWORD PTR __imp_?Compare@?$CStringT@DV?$StrTraitMFC_DLL@DV?$ChTraitsCRT@D@ATL@@@@@ATL@@QBEHPBD@Z
; File D:\git\src\IBK\IBK_DRFN\ProjSrc\SrcDrfn\Chart\MULTICHART\StdDialogPartnerSite.cpp

; 205  : 					if(pThis->m_pInputBarDlg->GetCurrentCode() != szCode)

  00341	8d 4d 08	 lea	 ecx, DWORD PTR $T6[ebp]
; File C:\Program Files (x86)\Microsoft Visual Studio\2019\Community\VC\Tools\MSVC\14.29.30133\atlmfc\include\cstringt.h

; 2560 : 		return( str1.Compare( str2 ) != 0 );

  00344	8b f0		 mov	 esi, eax
; File D:\git\src\IBK\IBK_DRFN\ProjSrc\SrcDrfn\Chart\MULTICHART\StdDialogPartnerSite.cpp

; 205  : 					if(pThis->m_pInputBarDlg->GetCurrentCode() != szCode)

  00346	ff 15 00 00 00
	00		 call	 DWORD PTR __imp_??1?$CStringT@DV?$StrTraitMFC_DLL@DV?$ChTraitsCRT@D@ATL@@@@@ATL@@QAE@XZ
  0034c	85 f6		 test	 esi, esi
  0034e	74 0e		 je	 SHORT $LN40@RecieveKey

; 206  : 						pThis->ChangeCode(szCode);

  00350	6a 00		 push	 0
  00352	6a 00		 push	 0
  00354	ff 75 10	 push	 DWORD PTR _szCode$14[ebp]
  00357	8b cf		 mov	 ecx, edi
  00359	e8 00 00 00 00	 call	 ?ChangeCode@CStdDialog@@QAEXPBDHH@Z ; CStdDialog::ChangeCode
$LN40@RecieveKey:

; 207  : 					if(g_pPtUtilMng) g_pPtUtilMng->AddToHistory(pThis->m_hPlatform, szCode);

  0035e	8b 0d 00 00 00
	00		 mov	 ecx, DWORD PTR ?g_pPtUtilMng@@3PAUIPartnerUtilManager@@A ; g_pPtUtilMng
  00364	85 c9		 test	 ecx, ecx
  00366	74 0f		 je	 SHORT $LN41@RecieveKey
  00368	ff 75 10	 push	 DWORD PTR _szCode$14[ebp]
  0036b	8b 01		 mov	 eax, DWORD PTR [ecx]
  0036d	ff b7 20 03 00
	00		 push	 DWORD PTR [edi+800]
  00373	51		 push	 ecx
  00374	ff 50 48	 call	 DWORD PTR [eax+72]
$LN41@RecieveKey:

; 261  : 			break;
; 262  : 	}
; 263  : 
; 264  : 	return S_OK;

  00377	8d 4d 10	 lea	 ecx, DWORD PTR _szCode$14[ebp]
  0037a	e9 45 01 00 00	 jmp	 $LN110@RecieveKey
$LN42@RecieveKey:

; 208  : 				}
; 209  : 			}
; 210  : 			break;
; 211  : 		case IPartnerSite::IPS_RK_codeHidDlg:
; 212  : 			//조회중이면 return;
; 213  : 			if(pThis->m_pInputBarDlg->IsWindowEnabled()==FALSE)

  0037f	8b 8f 0c 08 00
	00		 mov	 ecx, DWORD PTR [edi+2060]
  00385	e8 00 00 00 00	 call	 ?IsWindowEnabled@CWnd@@QBEHXZ ; CWnd::IsWindowEnabled
  0038a	85 c0		 test	 eax, eax
  0038c	0f 84 38 01 00
	00		 je	 $LN2@RecieveKey

; 214  : 				return S_OK;
; 215  : 
; 216  : 			{
; 217  : 				CString szCode(_szData);

  00392	ff 75 10	 push	 DWORD PTR __szData$[ebp]
  00395	8d 4d 10	 lea	 ecx, DWORD PTR _szCode$13[ebp]
  00398	ff 15 00 00 00
	00		 call	 DWORD PTR __imp_??0?$CStringT@DV?$StrTraitMFC_DLL@DV?$ChTraitsCRT@D@ATL@@@@@ATL@@QAE@PBD@Z

; 218  : 
; 219  : //				int nMarketType = CMasterTypeInfo::FUTOPT_CHART;
; 220  : 				int nCodeType;
; 221  : 				int nMarketType = pThis->GetMarketTypeFromCode(szCode, nCodeType);

  0039e	8d 45 08	 lea	 eax, DWORD PTR _nCodeType$5[ebp]
  003a1	50		 push	 eax
  003a2	51		 push	 ecx
  003a3	8d 45 10	 lea	 eax, DWORD PTR _szCode$13[ebp]
  003a6	8b cc		 mov	 ecx, esp
  003a8	50		 push	 eax
  003a9	ff 15 00 00 00
	00		 call	 DWORD PTR __imp_??0?$CStringT@DV?$StrTraitMFC_DLL@DV?$ChTraitsCRT@D@ATL@@@@@ATL@@QAE@ABV01@@Z
  003af	8b cf		 mov	 ecx, edi
  003b1	e8 00 00 00 00	 call	 ?GetMarketTypeFromCode@CStdDialog@@QAEHV?$CStringT@DV?$StrTraitMFC_DLL@DV?$ChTraitsCRT@D@ATL@@@@@ATL@@AAH@Z ; CStdDialog::GetMarketTypeFromCode

; 222  : 				if(pThis->m_nMarketType == nMarketType)

  003b6	39 87 64 03 00
	00		 cmp	 DWORD PTR [edi+868], eax
  003bc	75 b9		 jne	 SHORT $LN41@RecieveKey

; 223  : //				if (nMarketType == CMasterTypeInfo::FUTOPT_CHART || nMarketType == CMasterTypeInfo::STOCKFUTOPT_CHART)
; 224  : 				{
; 225  : 					pThis->ChangeCode(szCode);

  003be	6a 00		 push	 0
  003c0	6a 00		 push	 0
  003c2	ff 75 10	 push	 DWORD PTR _szCode$13[ebp]
  003c5	8b cf		 mov	 ecx, edi
  003c7	e8 00 00 00 00	 call	 ?ChangeCode@CStdDialog@@QAEXPBDHH@Z ; CStdDialog::ChangeCode

; 226  : 					if(g_pPtUtilMng) g_pPtUtilMng->AddToHistory(pThis->m_hPlatform, szCode);

  003cc	8b 0d 00 00 00
	00		 mov	 ecx, DWORD PTR ?g_pPtUtilMng@@3PAUIPartnerUtilManager@@A ; g_pPtUtilMng
  003d2	85 c9		 test	 ecx, ecx
  003d4	74 a1		 je	 SHORT $LN41@RecieveKey
  003d6	ff 75 10	 push	 DWORD PTR _szCode$13[ebp]
  003d9	8b 01		 mov	 eax, DWORD PTR [ecx]
  003db	ff b7 20 03 00
	00		 push	 DWORD PTR [edi+800]
  003e1	51		 push	 ecx
  003e2	ff 50 48	 call	 DWORD PTR [eax+72]

; 227  : 				}
; 228  : 			}

  003e5	8d 4d 10	 lea	 ecx, DWORD PTR _szCode$13[ebp]

; 229  : 			break;

  003e8	e9 d7 00 00 00	 jmp	 $LN110@RecieveKey
$LN46@RecieveKey:

; 230  : 		case IPartnerSite::IPS_RK_gwansim:
; 231  : 			{
; 232  : 				//관심그룹이 변경되었다는 메시지를 받아서 관심그룹 갱신을 요청함.
; 233  : 				if(pThis->m_pGwanMng)

  003ed	8b 8f 14 14 00
	00		 mov	 ecx, DWORD PTR [edi+5140]
  003f3	85 c9		 test	 ecx, ecx
  003f5	0f 84 cf 00 00
	00		 je	 $LN2@RecieveKey

; 234  : 					pThis->m_pGwanMng->RequestGwansimGroup();

  003fb	8b 01		 mov	 eax, DWORD PTR [ecx]
  003fd	51		 push	 ecx
  003fe	ff 50 30	 call	 DWORD PTR [eax+48]

; 261  : 			break;
; 262  : 	}
; 263  : 
; 264  : 	return S_OK;

  00401	8d 4d f0	 lea	 ecx, DWORD PTR __ctlState$[ebp]
  00404	e8 00 00 00 00	 call	 ??1AFX_MAINTAIN_STATE2@@QAE@XZ ; AFX_MAINTAIN_STATE2::~AFX_MAINTAIN_STATE2
  00409	33 c0		 xor	 eax, eax

; 265  : }

  0040b	5f		 pop	 edi
  0040c	5e		 pop	 esi
  0040d	8b e5		 mov	 esp, ebp
  0040f	5d		 pop	 ebp
  00410	c2 0c 00	 ret	 12			; 0000000cH
$LN48@RecieveKey:

; 235  : 			}		
; 236  : 			break;
; 237  : 
; 238  : 		case IPartnerSite::IPS_RK_SaveKeyEnd:
; 239  : 			{
; 240  : 				CString szSaveKey1(_szData);

  00413	8b 75 10	 mov	 esi, DWORD PTR __szData$[ebp]
  00416	8d 4d 0c	 lea	 ecx, DWORD PTR _szSaveKey1$9[ebp]
  00419	56		 push	 esi
  0041a	ff 15 00 00 00
	00		 call	 DWORD PTR __imp_??0?$CStringT@DV?$StrTraitMFC_DLL@DV?$ChTraitsCRT@D@ATL@@@@@ATL@@QAE@PBD@Z

; 241  : 				CString szOldSaveKey;

  00420	8d 4d 10	 lea	 ecx, DWORD PTR _szOldSaveKey$12[ebp]
  00423	ff 15 00 00 00
	00		 call	 DWORD PTR __imp_??0?$CStringT@DV?$StrTraitMFC_DLL@DV?$ChTraitsCRT@D@ATL@@@@@ATL@@QAE@XZ

; 242  : 				if(szSaveKey1.Find("USERSCREEN")==0)				

  00429	6a 00		 push	 0
  0042b	68 00 00 00 00	 push	 OFFSET ??_C@_0L@CBPHCCCB@USERSCREEN@
  00430	8d 4d 0c	 lea	 ecx, DWORD PTR _szSaveKey1$9[ebp]
  00433	ff 15 00 00 00
	00		 call	 DWORD PTR __imp_?Find@?$CStringT@DV?$StrTraitMFC_DLL@DV?$ChTraitsCRT@D@ATL@@@@@ATL@@QBEHPBDH@Z
  00439	85 c0		 test	 eax, eax
  0043b	75 73		 jne	 SHORT $LN49@RecieveKey
; File D:\git\src\IBK\IBK_DRFN\ProjSrc\SrcDrfn\Chart\MULTICHART\StdDialog.h

; 1075 : 	CString GetSaveKey() { return m_strSaveKey; }

  0043d	8d 87 9c 13 00
	00		 lea	 eax, DWORD PTR [edi+5020]
  00443	50		 push	 eax
  00444	8d 4d 08	 lea	 ecx, DWORD PTR $T4[ebp]
  00447	ff 15 00 00 00
	00		 call	 DWORD PTR __imp_??0?$CStringT@DV?$StrTraitMFC_DLL@DV?$ChTraitsCRT@D@ATL@@@@@ATL@@QAE@ABV01@@Z
; File D:\git\src\IBK\IBK_DRFN\ProjSrc\SrcDrfn\Chart\MULTICHART\StdDialogPartnerSite.cpp

; 244  : 					szOldSaveKey = pThis->GetSaveKey();

  0044d	8d 45 08	 lea	 eax, DWORD PTR $T4[ebp]
  00450	50		 push	 eax
  00451	8d 4d 10	 lea	 ecx, DWORD PTR _szOldSaveKey$12[ebp]
  00454	ff 15 00 00 00
	00		 call	 DWORD PTR __imp_??4?$CStringT@DV?$StrTraitMFC_DLL@DV?$ChTraitsCRT@D@ATL@@@@@ATL@@QAEAAV01@ABV01@@Z
  0045a	8d 4d 08	 lea	 ecx, DWORD PTR $T4[ebp]
  0045d	ff 15 00 00 00
	00		 call	 DWORD PTR __imp_??1?$CStringT@DV?$StrTraitMFC_DLL@DV?$ChTraitsCRT@D@ATL@@@@@ATL@@QAE@XZ

; 245  : 					pThis->SetSaveKey(_szData);

  00463	56		 push	 esi
  00464	8b cf		 mov	 ecx, edi
  00466	e8 00 00 00 00	 call	 ?SetSaveKey@CStdDialog@@QAEXPBD@Z ; CStdDialog::SetSaveKey

; 246  : 
; 247  : 					pThis->SaveShowInfo();

  0046b	8b cf		 mov	 ecx, edi
  0046d	e8 00 00 00 00	 call	 ?SaveShowInfo@CStdDialog@@QAEXXZ ; CStdDialog::SaveShowInfo

; 248  : 					pThis->m_ChartMng.SaveChart(pThis->m_strConfig);

  00472	51		 push	 ecx
  00473	8d 87 a8 07 00
	00		 lea	 eax, DWORD PTR [edi+1960]
  00479	8b cc		 mov	 ecx, esp
  0047b	50		 push	 eax
  0047c	ff 15 00 00 00
	00		 call	 DWORD PTR __imp_??0?$CStringT@DV?$StrTraitMFC_DLL@DV?$ChTraitsCRT@D@ATL@@@@@ATL@@QAE@ABV01@@Z
  00482	8d 8f 10 08 00
	00		 lea	 ecx, DWORD PTR [edi+2064]
  00488	e8 00 00 00 00	 call	 ?SaveChart@CChartMng@@QAEXV?$CStringT@DV?$StrTraitMFC_DLL@DV?$ChTraitsCRT@D@ATL@@@@@ATL@@@Z ; CChartMng::SaveChart

; 249  : 					if(pThis->m_pInputBarDlg)

  0048d	8b 8f 0c 08 00
	00		 mov	 ecx, DWORD PTR [edi+2060]
  00493	85 c9		 test	 ecx, ecx
  00495	74 05		 je	 SHORT $LN51@RecieveKey

; 250  :  						pThis->m_pInputBarDlg->SaveValue();

  00497	e8 00 00 00 00	 call	 ?SaveValue@CInputBarDlg@@QAEXXZ ; CInputBarDlg::SaveValue
$LN51@RecieveKey:

; 251  : 					if(pThis->m_pExtInputBarDlg)

  0049c	8b 8f 98 12 00
	00		 mov	 ecx, DWORD PTR [edi+4760]
  004a2	85 c9		 test	 ecx, ecx
  004a4	74 05		 je	 SHORT $LN52@RecieveKey

; 252  : 						pThis->m_pExtInputBarDlg->SaveExtInputBar();

  004a6	e8 00 00 00 00	 call	 ?SaveExtInputBar@CExtInputBarDlg@@QAEXXZ ; CExtInputBarDlg::SaveExtInputBar
$LN52@RecieveKey:

; 253  : 
; 254  : 					pThis->SetSaveKey(szOldSaveKey);

  004ab	ff 75 10	 push	 DWORD PTR _szOldSaveKey$12[ebp]

; 255  : 				}

  004ae	eb 01		 jmp	 SHORT $LN111@RecieveKey
$LN49@RecieveKey:

; 256  : 				else
; 257  : 				{
; 258  : 					pThis->SetSaveKey(_szData);

  004b0	56		 push	 esi
$LN111@RecieveKey:

; 259  : 				}
; 260  : 			}

  004b1	8b cf		 mov	 ecx, edi
  004b3	e8 00 00 00 00	 call	 ?SetSaveKey@CStdDialog@@QAEXPBD@Z ; CStdDialog::SetSaveKey
  004b8	8d 4d 10	 lea	 ecx, DWORD PTR _szOldSaveKey$12[ebp]
  004bb	ff 15 00 00 00
	00		 call	 DWORD PTR __imp_??1?$CStringT@DV?$StrTraitMFC_DLL@DV?$ChTraitsCRT@D@ATL@@@@@ATL@@QAE@XZ
  004c1	8d 4d 0c	 lea	 ecx, DWORD PTR _szSaveKey1$9[ebp]
$LN110@RecieveKey:

; 261  : 			break;
; 262  : 	}
; 263  : 
; 264  : 	return S_OK;

  004c4	ff 15 00 00 00
	00		 call	 DWORD PTR __imp_??1?$CStringT@DV?$StrTraitMFC_DLL@DV?$ChTraitsCRT@D@ATL@@@@@ATL@@QAE@XZ
$LN2@RecieveKey:
  004ca	8d 4d f0	 lea	 ecx, DWORD PTR __ctlState$[ebp]
  004cd	e8 00 00 00 00	 call	 ??1AFX_MAINTAIN_STATE2@@QAE@XZ ; AFX_MAINTAIN_STATE2::~AFX_MAINTAIN_STATE2

; 265  : }

  004d2	5f		 pop	 edi
  004d3	33 c0		 xor	 eax, eax
  004d5	5e		 pop	 esi
  004d6	8b e5		 mov	 esp, ebp
  004d8	5d		 pop	 ebp
  004d9	c2 0c 00	 ret	 12			; 0000000cH
$LN105@RecieveKey:
  004dc	00 00 00 00	 DD	 $LN8@RecieveKey
  004e0	00 00 00 00	 DD	 $LN28@RecieveKey
  004e4	00 00 00 00	 DD	 $LN46@RecieveKey
  004e8	00 00 00 00	 DD	 $LN42@RecieveKey
  004ec	00 00 00 00	 DD	 $LN48@RecieveKey
$LN107@RecieveKey:
  004f0	00 00 00 00	 DD	 $LN21@RecieveKey
  004f4	00 00 00 00	 DD	 $LN27@RecieveKey
$LN106@RecieveKey:
  004f8	00		 DB	 0
  004f9	00		 DB	 0
  004fa	00		 DB	 0
  004fb	01		 DB	 1
  004fc	00		 DB	 0
  004fd	00		 DB	 0
  004fe	66 90		 npad	 2
$LN109@RecieveKey:
  00500	00 00 00 00	 DD	 $LN41@RecieveKey
  00504	00 00 00 00	 DD	 $LN6@RecieveKey
$LN108@RecieveKey:
  00508	00		 DB	 0
  00509	00		 DB	 0
  0050a	00		 DB	 0
  0050b	01		 DB	 1
  0050c	00		 DB	 0
  0050d	00		 DB	 0
?RecieveKeyData@CPartnerSite@CStdDialog@@UAGJHPBD@Z ENDP ; CStdDialog::CPartnerSite::RecieveKeyData
_TEXT	ENDS
; Function compile flags: /Ogtp
; File D:\git\src\IBK\IBK_DRFN\ProjSrc\SrcDrfn\Chart\MULTICHART\StdDialogPartnerSite.cpp
;	COMDAT ?RecieveRealData@CPartnerSite@CStdDialog@@UAGJJJ@Z
_TEXT	SEGMENT
__ctlState$ = -8					; size = 8
_this$ = 8						; size = 4
_dwKey$ = 12						; size = 4
_dwData$ = 16						; size = 4
?RecieveRealData@CPartnerSite@CStdDialog@@UAGJJJ@Z PROC	; CStdDialog::CPartnerSite::RecieveRealData, COMDAT

; 63   : {

  00000	55		 push	 ebp
  00001	8b ec		 mov	 ebp, esp
  00003	83 ec 08	 sub	 esp, 8

; 64   : 	METHOD_PROLOGUE(CStdDialog, PartnerSite)

  00006	8d 4d f8	 lea	 ecx, DWORD PTR __ctlState$[ebp]
  00009	56		 push	 esi
  0000a	8b 75 08	 mov	 esi, DWORD PTR _this$[ebp]
  0000d	ff b6 0c ec ff
	ff		 push	 DWORD PTR [esi-5108]
  00013	e8 00 00 00 00	 call	 ??0AFX_MAINTAIN_STATE2@@QAE@PAVAFX_MODULE_STATE@@@Z ; AFX_MAINTAIN_STATE2::AFX_MAINTAIN_STATE2

; 65   : 
; 66   : 	pThis->m_ChartMng.SetRealJPriceData((LPVOID)dwData);

  00018	ff 75 10	 push	 DWORD PTR _dwData$[ebp]
  0001b	8d 8e 00 f4 ff
	ff		 lea	 ecx, DWORD PTR [esi-3072]
  00021	e8 00 00 00 00	 call	 ?SetRealJPriceData@CChartMng@@QAEXPAX@Z ; CChartMng::SetRealJPriceData

; 67   : 	return S_OK;

  00026	8d 4d f8	 lea	 ecx, DWORD PTR __ctlState$[ebp]
  00029	e8 00 00 00 00	 call	 ??1AFX_MAINTAIN_STATE2@@QAE@XZ ; AFX_MAINTAIN_STATE2::~AFX_MAINTAIN_STATE2
  0002e	33 c0		 xor	 eax, eax
  00030	5e		 pop	 esi

; 68   : }

  00031	8b e5		 mov	 esp, ebp
  00033	5d		 pop	 ebp
  00034	c2 0c 00	 ret	 12			; 0000000cH
?RecieveRealData@CPartnerSite@CStdDialog@@UAGJJJ@Z ENDP	; CStdDialog::CPartnerSite::RecieveRealData
_TEXT	ENDS
; Function compile flags: /Ogtp
; File D:\git\src\IBK\IBK_DRFN\ProjSrc\SrcDrfn\Chart\MULTICHART\StdDialogPartnerSite.cpp
;	COMDAT ?RecieveTRData@CPartnerSite@CStdDialog@@UAGJJPBD00PAXJ@Z
_TEXT	SEGMENT
__ctlState$ = -8					; size = 8
_strTR$ = 8						; size = 4
_this$ = 8						; size = 4
_dwKey$ = 12						; size = 4
_szTR$ = 16						; size = 4
_szMsgCode$ = 20					; size = 4
_szMessage$ = 24					; size = 4
_aTRData$ = 28						; size = 4
_dwTRDateLen$ = 32					; size = 4
?RecieveTRData@CPartnerSite@CStdDialog@@UAGJJPBD00PAXJ@Z PROC ; CStdDialog::CPartnerSite::RecieveTRData, COMDAT

; 43   : {

  00000	55		 push	 ebp
  00001	8b ec		 mov	 ebp, esp
  00003	83 ec 08	 sub	 esp, 8

; 44   : // 	{
; 45   : // 		CString szDebug;
; 46   : // 		szDebug.Format("[DRCS][LOAD](%8d) CStdDialog::CPartnerSite::RecieveTRData: Entry\n", __LINE__);
; 47   : // 		OutputDebugString(szDebug);
; 48   : // 	}
; 49   : 
; 50   : 	METHOD_PROLOGUE(CStdDialog, PartnerSite)

  00006	8d 4d f8	 lea	 ecx, DWORD PTR __ctlState$[ebp]
  00009	56		 push	 esi
  0000a	57		 push	 edi
  0000b	8b 7d 08	 mov	 edi, DWORD PTR _this$[ebp]
  0000e	ff b7 0c ec ff
	ff		 push	 DWORD PTR [edi-5108]
  00014	e8 00 00 00 00	 call	 ??0AFX_MAINTAIN_STATE2@@QAE@PAVAFX_MODULE_STATE@@@Z ; AFX_MAINTAIN_STATE2::AFX_MAINTAIN_STATE2

; 51   : 
; 52   : 	CString strTR(szTR);

  00019	ff 75 10	 push	 DWORD PTR _szTR$[ebp]
  0001c	8d 4d 08	 lea	 ecx, DWORD PTR _strTR$[ebp]
  0001f	ff 15 00 00 00
	00		 call	 DWORD PTR __imp_??0?$CStringT@DV?$StrTraitMFC_DLL@DV?$ChTraitsCRT@D@ATL@@@@@ATL@@QAE@PBD@Z

; 53   : 	if (dwKey == TRKEY_WORKDATE)		strTR = TRNO_WORKDATE;

  00025	8b 75 0c	 mov	 esi, DWORD PTR _dwKey$[ebp]
  00028	83 fe 05	 cmp	 esi, 5
  0002b	75 07		 jne	 SHORT $LN2@RecieveTRD
  0002d	68 00 00 00 00	 push	 OFFSET ??_C@_08IOMDFAIH@pijs0111@
  00032	eb 16		 jmp	 SHORT $LN10@RecieveTRD
$LN2@RecieveTRD:

; 54   : 	else if (dwKey == TRKEY_STOCK_HOGA)	strTR = QUERY_STOCK_HOGA;

  00034	83 fe 32	 cmp	 esi, 50			; 00000032H
  00037	75 07		 jne	 SHORT $LN4@RecieveTRD
  00039	68 00 00 00 00	 push	 OFFSET ??_C@_05GFCMPLNO@c1002@
  0003e	eb 0a		 jmp	 SHORT $LN10@RecieveTRD
$LN4@RecieveTRD:

; 55   : 	else if (dwKey == TRKEY_MSTCODE)	strTR = TRNO_MSTCODE;

  00040	83 fe 02	 cmp	 esi, 2
  00043	75 0e		 jne	 SHORT $LN6@RecieveTRD
  00045	68 00 00 00 00	 push	 OFFSET ??_C@_08KFOOADEE@pijs0112@
$LN10@RecieveTRD:

; 56   : 
; 57   : 	pThis->ReceiveData(dwKey, strTR, szMsgCode, szMessage, aTRData, dwTRDateLen);

  0004a	8d 4d 08	 lea	 ecx, DWORD PTR _strTR$[ebp]
  0004d	ff 15 00 00 00
	00		 call	 DWORD PTR __imp_??4?$CStringT@DV?$StrTraitMFC_DLL@DV?$ChTraitsCRT@D@ATL@@@@@ATL@@QAEAAV01@PBD@Z
$LN6@RecieveTRD:
  00053	ff 75 20	 push	 DWORD PTR _dwTRDateLen$[ebp]
  00056	8b 87 f0 eb ff
	ff		 mov	 eax, DWORD PTR [edi-5136]
  0005c	8d 8f f0 eb ff
	ff		 lea	 ecx, DWORD PTR [edi-5136]
  00062	ff 75 1c	 push	 DWORD PTR _aTRData$[ebp]
  00065	ff 75 18	 push	 DWORD PTR _szMessage$[ebp]
  00068	ff 75 14	 push	 DWORD PTR _szMsgCode$[ebp]
  0006b	ff 75 08	 push	 DWORD PTR _strTR$[ebp]
  0006e	56		 push	 esi
  0006f	ff 90 94 01 00
	00		 call	 DWORD PTR [eax+404]

; 58   : 
; 59   : 	return S_OK;

  00075	8d 4d 08	 lea	 ecx, DWORD PTR _strTR$[ebp]
  00078	ff 15 00 00 00
	00		 call	 DWORD PTR __imp_??1?$CStringT@DV?$StrTraitMFC_DLL@DV?$ChTraitsCRT@D@ATL@@@@@ATL@@QAE@XZ
  0007e	8d 4d f8	 lea	 ecx, DWORD PTR __ctlState$[ebp]
  00081	e8 00 00 00 00	 call	 ??1AFX_MAINTAIN_STATE2@@QAE@XZ ; AFX_MAINTAIN_STATE2::~AFX_MAINTAIN_STATE2
  00086	5f		 pop	 edi
  00087	33 c0		 xor	 eax, eax
  00089	5e		 pop	 esi

; 60   : }

  0008a	8b e5		 mov	 esp, ebp
  0008c	5d		 pop	 ebp
  0008d	c2 1c 00	 ret	 28			; 0000001cH
?RecieveTRData@CPartnerSite@CStdDialog@@UAGJJPBD00PAXJ@Z ENDP ; CStdDialog::CPartnerSite::RecieveTRData
_TEXT	ENDS
; Function compile flags: /Ogtp
; File D:\git\src\IBK\IBK_DRFN\ProjSrc\SrcDrfn\Chart\MULTICHART\StdDialogPartnerSite.cpp
;	COMDAT ?RecieveFidData@CPartnerSite@CStdDialog@@UAGJJPBD00PAXJ@Z
_TEXT	SEGMENT
__ctlState$ = -8					; size = 8
_this$ = 8						; size = 4
_dwKey$ = 12						; size = 4
_szTR$ = 16						; size = 4
_szMsgCode$ = 20					; size = 4
_szMessage$ = 24					; size = 4
_aTRData$ = 28						; size = 4
_dwTRDateLen$ = 32					; size = 4
?RecieveFidData@CPartnerSite@CStdDialog@@UAGJJPBD00PAXJ@Z PROC ; CStdDialog::CPartnerSite::RecieveFidData, COMDAT

; 36   : {

  00000	55		 push	 ebp
  00001	8b ec		 mov	 ebp, esp

; 37   : 	METHOD_PROLOGUE(CStdDialog, PartnerSite)

  00003	8b 45 08	 mov	 eax, DWORD PTR _this$[ebp]
  00006	8d 4d f8	 lea	 ecx, DWORD PTR __ctlState$[ebp]
  00009	83 ec 08	 sub	 esp, 8
  0000c	ff b0 0c ec ff
	ff		 push	 DWORD PTR [eax-5108]
  00012	e8 00 00 00 00	 call	 ??0AFX_MAINTAIN_STATE2@@QAE@PAVAFX_MODULE_STATE@@@Z ; AFX_MAINTAIN_STATE2::AFX_MAINTAIN_STATE2

; 38   : 
; 39   : 	return S_OK;

  00017	8d 4d f8	 lea	 ecx, DWORD PTR __ctlState$[ebp]
  0001a	e8 00 00 00 00	 call	 ??1AFX_MAINTAIN_STATE2@@QAE@XZ ; AFX_MAINTAIN_STATE2::~AFX_MAINTAIN_STATE2
  0001f	33 c0		 xor	 eax, eax

; 40   : }

  00021	8b e5		 mov	 esp, ebp
  00023	5d		 pop	 ebp
  00024	c2 1c 00	 ret	 28			; 0000001cH
?RecieveFidData@CPartnerSite@CStdDialog@@UAGJJPBD00PAXJ@Z ENDP ; CStdDialog::CPartnerSite::RecieveFidData
_TEXT	ENDS
; Function compile flags: /Ogtp
; File D:\git\src\IBK\IBK_DRFN\ProjSrc\SrcDrfn\Chart\MULTICHART\StdDialogPartnerSite.cpp
;	COMDAT ?DoSetPartnerSite@CStdDialog@@QAEXPAUIPartnerManager@@@Z
_TEXT	SEGMENT
_pPtManager$ = 8					; size = 4
?DoSetPartnerSite@CStdDialog@@QAEXPAUIPartnerManager@@@Z PROC ; CStdDialog::DoSetPartnerSite, COMDAT
; _this$ = ecx

; 9    : {

  00000	55		 push	 ebp
  00001	8b ec		 mov	 ebp, esp
  00003	56		 push	 esi

; 10   : 	m_pPTManager = pPtManager;

  00004	8b 75 08	 mov	 esi, DWORD PTR _pPtManager$[ebp]
  00007	57		 push	 edi
  00008	8b f9		 mov	 edi, ecx

; 11   : 	m_szPTManager.Format("%08X", pPtManager);

  0000a	56		 push	 esi
  0000b	68 00 00 00 00	 push	 OFFSET ??_C@_04JIMNDDED@?$CF08X@
  00010	8d 87 0c 14 00
	00		 lea	 eax, DWORD PTR [edi+5132]
  00016	89 b7 08 14 00
	00		 mov	 DWORD PTR [edi+5128], esi
  0001c	50		 push	 eax
  0001d	ff 15 00 00 00
	00		 call	 DWORD PTR __imp_?Format@?$CStringT@DV?$StrTraitMFC_DLL@DV?$ChTraitsCRT@D@ATL@@@@@ATL@@QAAXPBDZZ
  00023	83 c4 0c	 add	 esp, 12			; 0000000cH

; 12   : 	if(pPtManager) pPtManager->SetSite(&m_xPartnerSite);

  00026	85 f6		 test	 esi, esi
  00028	74 0c		 je	 SHORT $LN2@DoSetPartn
  0002a	8b 0e		 mov	 ecx, DWORD PTR [esi]
  0002c	8d 87 10 14 00
	00		 lea	 eax, DWORD PTR [edi+5136]
  00032	50		 push	 eax
  00033	56		 push	 esi
  00034	ff 11		 call	 DWORD PTR [ecx]
$LN2@DoSetPartn:

; 13   : }

  00036	5f		 pop	 edi
  00037	5e		 pop	 esi
  00038	5d		 pop	 ebp
  00039	c2 04 00	 ret	 4
?DoSetPartnerSite@CStdDialog@@QAEXPAUIPartnerManager@@@Z ENDP ; CStdDialog::DoSetPartnerSite
_TEXT	ENDS
; Function compile flags: /Ogtp
; File D:\git\src\IBK\IBK_DRFN\ProjSrc\SrcDrfn\Chart\MULTICHART\StdDialogPartnerSite.cpp
;	COMDAT ?OnRmsgDRUser@CStdDialog@@IAEJIJ@Z
_TEXT	SEGMENT
$T2 = -16						; size = 4
__$EHRec$ = -12						; size = 12
_szTmp$3 = 8						; size = 4
_wp$ = 8						; size = 4
_szName$4 = 12						; size = 4
_lp$ = 12						; size = 4
?OnRmsgDRUser@CStdDialog@@IAEJIJ@Z PROC			; CStdDialog::OnRmsgDRUser, COMDAT
; _this$ = ecx

; 354  : {

  00000	55		 push	 ebp
  00001	8b ec		 mov	 ebp, esp
  00003	6a ff		 push	 -1
  00005	68 00 00 00 00	 push	 __ehhandler$?OnRmsgDRUser@CStdDialog@@IAEJIJ@Z
  0000a	64 a1 00 00 00
	00		 mov	 eax, DWORD PTR fs:0
  00010	50		 push	 eax
  00011	51		 push	 ecx
  00012	56		 push	 esi
  00013	57		 push	 edi
  00014	a1 00 00 00 00	 mov	 eax, DWORD PTR ___security_cookie
  00019	33 c5		 xor	 eax, ebp
  0001b	50		 push	 eax
  0001c	8d 45 f4	 lea	 eax, DWORD PTR __$EHRec$[ebp]
  0001f	64 a3 00 00 00
	00		 mov	 DWORD PTR fs:0, eax
  00025	8b f1		 mov	 esi, ecx

; 355  : 	BYTE bt = LOBYTE(LOWORD(wp));
; 356  : 	BYTE ht = HIBYTE(LOWORD(wp));
; 357  : 	
; 358  : 	switch(bt)

  00027	0f b6 45 08	 movzx	 eax, BYTE PTR _wp$[ebp]
  0002b	83 e8 05	 sub	 eax, 5
  0002e	74 27		 je	 SHORT $LN4@OnRmsgDRUs
  00030	83 e8 01	 sub	 eax, 1
  00033	0f 85 bd 00 00
	00		 jne	 $LN16@OnRmsgDRUs

; 372  : 		return 0L;
; 373  : 
; 374  : 	case drbt_GETINPUTBARMARKET:
; 375  : 		return m_pInputBarDlg->GetComboMarket();

  00039	8b 8e 0c 08 00
	00		 mov	 ecx, DWORD PTR [esi+2060]
  0003f	e8 00 00 00 00	 call	 ?GetComboMarket@CInputBarDlg@@QAEHXZ ; CInputBarDlg::GetComboMarket

; 376  : 	default:
; 377  : 		break;
; 378  : 	}
; 379  : 	
; 380  : 	return 0L;
; 381  : }

  00044	8b 4d f4	 mov	 ecx, DWORD PTR __$EHRec$[ebp]
  00047	64 89 0d 00 00
	00 00		 mov	 DWORD PTR fs:0, ecx
  0004e	59		 pop	 ecx
  0004f	5f		 pop	 edi
  00050	5e		 pop	 esi
  00051	8b e5		 mov	 esp, ebp
  00053	5d		 pop	 ebp
  00054	c2 08 00	 ret	 8
$LN4@OnRmsgDRUs:

; 359  : 	{
; 360  : 	case drbt_REGWINDOW:
; 361  : 		{
; 362  : 			CString szTmp = (LPCSTR)lp;

  00057	ff 75 0c	 push	 DWORD PTR _lp$[ebp]
  0005a	8d 4d 08	 lea	 ecx, DWORD PTR _szTmp$3[ebp]
  0005d	ff 15 00 00 00
	00		 call	 DWORD PTR __imp_??0?$CStringT@DV?$StrTraitMFC_DLL@DV?$ChTraitsCRT@D@ATL@@@@@ATL@@QAE@PBD@Z

; 363  : 			int nPos = szTmp.Find('\t');

  00063	6a 00		 push	 0
  00065	6a 09		 push	 9
  00067	8d 4d 08	 lea	 ecx, DWORD PTR _szTmp$3[ebp]
  0006a	c7 45 fc 00 00
	00 00		 mov	 DWORD PTR __$EHRec$[ebp+8], 0
  00071	ff 15 00 00 00
	00		 call	 DWORD PTR __imp_?Find@?$CStringT@DV?$StrTraitMFC_DLL@DV?$ChTraitsCRT@D@ATL@@@@@ATL@@QBEHDH@Z
  00077	8b f8		 mov	 edi, eax

; 364  : 			if(nPos<0) return 0L;

  00079	8d 4d 08	 lea	 ecx, DWORD PTR _szTmp$3[ebp]
  0007c	85 ff		 test	 edi, edi
  0007e	78 70		 js	 SHORT $LN17@OnRmsgDRUs

; 365  : 			
; 366  : 			CString szName = szTmp.Left(nPos);

  00080	57		 push	 edi
  00081	8d 45 0c	 lea	 eax, DWORD PTR _szName$4[ebp]
  00084	50		 push	 eax
  00085	ff 15 00 00 00
	00		 call	 DWORD PTR __imp_?Left@?$CStringT@DV?$StrTraitMFC_DLL@DV?$ChTraitsCRT@D@ATL@@@@@ATL@@QBE?AV12@H@Z

; 367  : 			szTmp = szTmp.Mid(nPos+1);

  0008b	8d 47 01	 lea	 eax, DWORD PTR [edi+1]
  0008e	c6 45 fc 01	 mov	 BYTE PTR __$EHRec$[ebp+8], 1
  00092	50		 push	 eax
  00093	8d 45 f0	 lea	 eax, DWORD PTR $T2[ebp]
  00096	50		 push	 eax
  00097	8d 4d 08	 lea	 ecx, DWORD PTR _szTmp$3[ebp]
  0009a	ff 15 00 00 00
	00		 call	 DWORD PTR __imp_?Mid@?$CStringT@DV?$StrTraitMFC_DLL@DV?$ChTraitsCRT@D@ATL@@@@@ATL@@QBE?AV12@H@Z
  000a0	50		 push	 eax
  000a1	8d 4d 08	 lea	 ecx, DWORD PTR _szTmp$3[ebp]
  000a4	c6 45 fc 02	 mov	 BYTE PTR __$EHRec$[ebp+8], 2
  000a8	ff 15 00 00 00
	00		 call	 DWORD PTR __imp_??4?$CStringT@DV?$StrTraitMFC_DLL@DV?$ChTraitsCRT@D@ATL@@@@@ATL@@QAEAAV01@ABV01@@Z
  000ae	8d 4d f0	 lea	 ecx, DWORD PTR $T2[ebp]
  000b1	c6 45 fc 01	 mov	 BYTE PTR __$EHRec$[ebp+8], 1
  000b5	ff 15 00 00 00
	00		 call	 DWORD PTR __imp_??1?$CStringT@DV?$StrTraitMFC_DLL@DV?$ChTraitsCRT@D@ATL@@@@@ATL@@QAE@XZ

; 368  : 			
; 369  : 			if(szName.CompareNoCase("TabCodeSearch")==0)

  000bb	68 00 00 00 00	 push	 OFFSET ??_C@_0O@DJPIKCGJ@TabCodeSearch@
  000c0	8d 4d 0c	 lea	 ecx, DWORD PTR _szName$4[ebp]
  000c3	ff 15 00 00 00
	00		 call	 DWORD PTR __imp_?CompareNoCase@?$CStringT@DV?$StrTraitMFC_DLL@DV?$ChTraitsCRT@D@ATL@@@@@ATL@@QBEHPBD@Z
  000c9	85 c0		 test	 eax, eax
  000cb	75 17		 jne	 SHORT $LN6@OnRmsgDRUs

; 370  : 				sscanf((LPCSTR)szTmp, "%08X", &m_hTabCodeSearch);

  000cd	8d 86 24 14 00
	00		 lea	 eax, DWORD PTR [esi+5156]
  000d3	50		 push	 eax
  000d4	68 00 00 00 00	 push	 OFFSET ??_C@_04JIMNDDED@?$CF08X@
  000d9	ff 75 08	 push	 DWORD PTR _szTmp$3[ebp]
  000dc	e8 00 00 00 00	 call	 _sscanf
  000e1	83 c4 0c	 add	 esp, 12			; 0000000cH
$LN6@OnRmsgDRUs:

; 371  : 		}

  000e4	8d 4d 0c	 lea	 ecx, DWORD PTR _szName$4[ebp]
  000e7	ff 15 00 00 00
	00		 call	 DWORD PTR __imp_??1?$CStringT@DV?$StrTraitMFC_DLL@DV?$ChTraitsCRT@D@ATL@@@@@ATL@@QAE@XZ
  000ed	8d 4d 08	 lea	 ecx, DWORD PTR _szTmp$3[ebp]
$LN17@OnRmsgDRUs:

; 376  : 	default:
; 377  : 		break;
; 378  : 	}
; 379  : 	
; 380  : 	return 0L;
; 381  : }

  000f0	ff 15 00 00 00
	00		 call	 DWORD PTR __imp_??1?$CStringT@DV?$StrTraitMFC_DLL@DV?$ChTraitsCRT@D@ATL@@@@@ATL@@QAE@XZ
$LN16@OnRmsgDRUs:
  000f6	33 c0		 xor	 eax, eax
  000f8	8b 4d f4	 mov	 ecx, DWORD PTR __$EHRec$[ebp]
  000fb	64 89 0d 00 00
	00 00		 mov	 DWORD PTR fs:0, ecx
  00102	59		 pop	 ecx
  00103	5f		 pop	 edi
  00104	5e		 pop	 esi
  00105	8b e5		 mov	 esp, ebp
  00107	5d		 pop	 ebp
  00108	c2 08 00	 ret	 8
_TEXT	ENDS
;	COMDAT text$x
text$x	SEGMENT
__unwindfunclet$?OnRmsgDRUser@CStdDialog@@IAEJIJ@Z$0:
  00000	8d 4d 08	 lea	 ecx, DWORD PTR _szTmp$3[ebp]
  00003	ff 25 00 00 00
	00		 jmp	 DWORD PTR __imp_??1?$CStringT@DV?$StrTraitMFC_DLL@DV?$ChTraitsCRT@D@ATL@@@@@ATL@@QAE@XZ
__unwindfunclet$?OnRmsgDRUser@CStdDialog@@IAEJIJ@Z$1:
  00009	8d 4d 0c	 lea	 ecx, DWORD PTR _szName$4[ebp]
  0000c	ff 25 00 00 00
	00		 jmp	 DWORD PTR __imp_??1?$CStringT@DV?$StrTraitMFC_DLL@DV?$ChTraitsCRT@D@ATL@@@@@ATL@@QAE@XZ
__unwindfunclet$?OnRmsgDRUser@CStdDialog@@IAEJIJ@Z$2:
  00012	8d 4d f0	 lea	 ecx, DWORD PTR $T2[ebp]
  00015	ff 25 00 00 00
	00		 jmp	 DWORD PTR __imp_??1?$CStringT@DV?$StrTraitMFC_DLL@DV?$ChTraitsCRT@D@ATL@@@@@ATL@@QAE@XZ
  0001b	cc		 int	 3
  0001c	cc		 int	 3
  0001d	cc		 int	 3
  0001e	cc		 int	 3
  0001f	cc		 int	 3
__ehhandler$?OnRmsgDRUser@CStdDialog@@IAEJIJ@Z:
  00020	90		 npad	 1
  00021	90		 npad	 1
  00022	8b 54 24 08	 mov	 edx, DWORD PTR [esp+8]
  00026	8d 42 0c	 lea	 eax, DWORD PTR [edx+12]
  00029	8b 4a f0	 mov	 ecx, DWORD PTR [edx-16]
  0002c	33 c8		 xor	 ecx, eax
  0002e	e8 00 00 00 00	 call	 @__security_check_cookie@4
  00033	b8 00 00 00 00	 mov	 eax, OFFSET __ehfuncinfo$?OnRmsgDRUser@CStdDialog@@IAEJIJ@Z
  00038	e9 00 00 00 00	 jmp	 ___CxxFrameHandler3
text$x	ENDS
?OnRmsgDRUser@CStdDialog@@IAEJIJ@Z ENDP			; CStdDialog::OnRmsgDRUser
; Function compile flags: /Ogtp
; File C:\Program Files (x86)\Microsoft Visual Studio\2019\Community\VC\Tools\MSVC\14.29.30133\atlmfc\include\atlcomcli.h
;	COMDAT ??_Estringdispid@CComTypeInfoHolder@ATL@@QAEPAXI@Z
_TEXT	SEGMENT
__$EHRec$ = -12						; size = 12
___flags$ = 8						; size = 4
??_Estringdispid@CComTypeInfoHolder@ATL@@QAEPAXI@Z PROC	; ATL::CComTypeInfoHolder::stringdispid::`vector deleting destructor', COMDAT
; _this$ = ecx
  00000	55		 push	 ebp
  00001	8b ec		 mov	 ebp, esp
  00003	6a ff		 push	 -1
  00005	68 00 00 00 00	 push	 __ehhandler$??_Estringdispid@CComTypeInfoHolder@ATL@@QAEPAXI@Z
  0000a	64 a1 00 00 00
	00		 mov	 eax, DWORD PTR fs:0
  00010	50		 push	 eax
  00011	53		 push	 ebx
  00012	56		 push	 esi
  00013	57		 push	 edi
  00014	a1 00 00 00 00	 mov	 eax, DWORD PTR ___security_cookie
  00019	33 c5		 xor	 eax, ebp
  0001b	50		 push	 eax
  0001c	8d 45 f4	 lea	 eax, DWORD PTR __$EHRec$[ebp]
  0001f	64 a3 00 00 00
	00		 mov	 DWORD PTR fs:0, eax
  00025	8b f1		 mov	 esi, ecx
  00027	8b 45 08	 mov	 eax, DWORD PTR ___flags$[ebp]
  0002a	8b d8		 mov	 ebx, eax
  0002c	83 e3 01	 and	 ebx, 1
  0002f	a8 02		 test	 al, 2
  00031	74 43		 je	 SHORT $LN2@vector
  00033	68 00 00 00 00	 push	 OFFSET ??1stringdispid@CComTypeInfoHolder@ATL@@QAE@XZ
  00038	ff 76 fc	 push	 DWORD PTR [esi-4]
  0003b	8d 7e fc	 lea	 edi, DWORD PTR [esi-4]
  0003e	6a 0c		 push	 12			; 0000000cH
  00040	56		 push	 esi
  00041	e8 00 00 00 00	 call	 ??_M@YGXPAXIIP6EX0@Z@Z
  00046	85 db		 test	 ebx, ebx
  00048	74 16		 je	 SHORT $LN3@vector
  0004a	8b 0f		 mov	 ecx, DWORD PTR [edi]
  0004c	8d 0c 49	 lea	 ecx, DWORD PTR [ecx+ecx*2]
  0004f	8d 0c 8d 04 00
	00 00		 lea	 ecx, DWORD PTR [ecx*4+4]
  00056	51		 push	 ecx
  00057	57		 push	 edi
  00058	e8 00 00 00 00	 call	 ??_V@YAXPAXI@Z		; operator delete[]
  0005d	83 c4 08	 add	 esp, 8
$LN3@vector:
  00060	8b c7		 mov	 eax, edi
  00062	8b 4d f4	 mov	 ecx, DWORD PTR __$EHRec$[ebp]
  00065	64 89 0d 00 00
	00 00		 mov	 DWORD PTR fs:0, ecx
  0006c	59		 pop	 ecx
  0006d	5f		 pop	 edi
  0006e	5e		 pop	 esi
  0006f	5b		 pop	 ebx
  00070	8b e5		 mov	 esp, ebp
  00072	5d		 pop	 ebp
  00073	c2 04 00	 ret	 4
$LN2@vector:

; 1680 :     ::SysFreeString(m_str);

  00076	ff 36		 push	 DWORD PTR [esi]
  00078	ff 15 00 00 00
	00		 call	 DWORD PTR __imp__SysFreeString@4
  0007e	85 db		 test	 ebx, ebx
  00080	74 0b		 je	 SHORT $LN4@vector
  00082	6a 0c		 push	 12			; 0000000cH
  00084	56		 push	 esi
  00085	e8 00 00 00 00	 call	 ??3@YAXPAXI@Z		; operator delete
  0008a	83 c4 08	 add	 esp, 8
$LN4@vector:
  0008d	8b c6		 mov	 eax, esi
  0008f	8b 4d f4	 mov	 ecx, DWORD PTR __$EHRec$[ebp]
  00092	64 89 0d 00 00
	00 00		 mov	 DWORD PTR fs:0, ecx
  00099	59		 pop	 ecx
  0009a	5f		 pop	 edi
  0009b	5e		 pop	 esi
  0009c	5b		 pop	 ebx
  0009d	8b e5		 mov	 esp, ebp
  0009f	5d		 pop	 ebp
  000a0	c2 04 00	 ret	 4
  000a3	cc		 int	 3
  000a4	cc		 int	 3
  000a5	cc		 int	 3
  000a6	cc		 int	 3
  000a7	cc		 int	 3
_TEXT	ENDS
;	COMDAT text$x
text$x	SEGMENT
__ehhandler$??_Estringdispid@CComTypeInfoHolder@ATL@@QAEPAXI@Z:
  00000	90		 npad	 1
  00001	90		 npad	 1
  00002	8b 54 24 08	 mov	 edx, DWORD PTR [esp+8]
  00006	8d 42 0c	 lea	 eax, DWORD PTR [edx+12]
  00009	8b 4a f0	 mov	 ecx, DWORD PTR [edx-16]
  0000c	33 c8		 xor	 ecx, eax
  0000e	e8 00 00 00 00	 call	 @__security_check_cookie@4
  00013	b8 00 00 00 00	 mov	 eax, OFFSET __ehfuncinfo$??_Estringdispid@CComTypeInfoHolder@ATL@@QAEPAXI@Z
  00018	e9 00 00 00 00	 jmp	 ___CxxFrameHandler3
text$x	ENDS
??_Estringdispid@CComTypeInfoHolder@ATL@@QAEPAXI@Z ENDP	; ATL::CComTypeInfoHolder::stringdispid::`vector deleting destructor'
; Function compile flags: /Ogtp
; File C:\Program Files (x86)\Microsoft Visual Studio\2019\Community\VC\Tools\MSVC\14.29.30133\atlmfc\include\atlcomcli.h
;	COMDAT ??1stringdispid@CComTypeInfoHolder@ATL@@QAE@XZ
_TEXT	SEGMENT
??1stringdispid@CComTypeInfoHolder@ATL@@QAE@XZ PROC	; ATL::CComTypeInfoHolder::stringdispid::~stringdispid, COMDAT
; _this$ = ecx

; 1680 :     ::SysFreeString(m_str);

  00000	ff 31		 push	 DWORD PTR [ecx]
  00002	ff 15 00 00 00
	00		 call	 DWORD PTR __imp__SysFreeString@4
  00008	c3		 ret	 0
??1stringdispid@CComTypeInfoHolder@ATL@@QAE@XZ ENDP	; ATL::CComTypeInfoHolder::stringdispid::~stringdispid
_TEXT	ENDS
; Function compile flags: /Ogtp
; File D:\git\src\IBK\IBK_DRFN\ProjSrc\SrcDrfn\Chart\MULTICHART\define\ChartMsgDef.h
;	COMDAT ??__ERMSG_SETINFO@@YAXXZ
text$di	SEGMENT
??__ERMSG_SETINFO@@YAXXZ PROC				; `dynamic initializer for 'RMSG_SETINFO'', COMDAT

; 238  : const UINT RMSG_SETINFO = ::RegisterWindowMessage(_T("RMSG_SETINFO"));

  00000	68 00 00 00 00	 push	 OFFSET ??_C@_0N@HABLPHJG@RMSG_SETINFO@
  00005	ff 15 00 00 00
	00		 call	 DWORD PTR __imp__RegisterWindowMessageA@4
  0000b	a3 00 00 00 00	 mov	 DWORD PTR ?RMSG_SETINFO@@3IB, eax
  00010	c3		 ret	 0
??__ERMSG_SETINFO@@YAXXZ ENDP				; `dynamic initializer for 'RMSG_SETINFO''
text$di	ENDS
; Function compile flags: /Ogtp
; File D:\git\src\IBK\IBK_DRFN\ProjSrc\SrcDrfn\Chart\MULTICHART\define\ChartMsgDef.h
;	COMDAT ??__ERMSG_GETINFO@@YAXXZ
text$di	SEGMENT
??__ERMSG_GETINFO@@YAXXZ PROC				; `dynamic initializer for 'RMSG_GETINFO'', COMDAT

; 237  : const UINT RMSG_GETINFO = ::RegisterWindowMessage(_T("RMSG_GETINFO"));

  00000	68 00 00 00 00	 push	 OFFSET ??_C@_0N@IIOKMIEH@RMSG_GETINFO@
  00005	ff 15 00 00 00
	00		 call	 DWORD PTR __imp__RegisterWindowMessageA@4
  0000b	a3 00 00 00 00	 mov	 DWORD PTR ?RMSG_GETINFO@@3IB, eax
  00010	c3		 ret	 0
??__ERMSG_GETINFO@@YAXXZ ENDP				; `dynamic initializer for 'RMSG_GETINFO''
text$di	ENDS
; Function compile flags: /Ogtp
; File D:\git\src\IBK\IBK_DRFN\ProjSrc\SrcDrfn\Chart\MULTICHART\define\ChartMsgDef.h
;	COMDAT ??__ERMSG_SETINITIALCHARTDATA@@YAXXZ
text$di	SEGMENT
??__ERMSG_SETINITIALCHARTDATA@@YAXXZ PROC		; `dynamic initializer for 'RMSG_SETINITIALCHARTDATA'', COMDAT

; 235  : const UINT RMSG_SETINITIALCHARTDATA = ::RegisterWindowMessage(_T("RMSG_SETINITIALCHARTDATA"));

  00000	68 00 00 00 00	 push	 OFFSET ??_C@_0BJ@OGNAJHHI@RMSG_SETINITIALCHARTDATA@
  00005	ff 15 00 00 00
	00		 call	 DWORD PTR __imp__RegisterWindowMessageA@4
  0000b	a3 00 00 00 00	 mov	 DWORD PTR ?RMSG_SETINITIALCHARTDATA@@3IB, eax
  00010	c3		 ret	 0
??__ERMSG_SETINITIALCHARTDATA@@YAXXZ ENDP		; `dynamic initializer for 'RMSG_SETINITIALCHARTDATA''
text$di	ENDS
; Function compile flags: /Ogtp
; File D:\git\src\IBK\IBK_DRFN\ProjSrc\SrcDrfn\Chart\MULTICHART\define\ChartMsgDef.h
;	COMDAT ??__ERMSG_ADD_PLATFORM_MENU@@YAXXZ
text$di	SEGMENT
??__ERMSG_ADD_PLATFORM_MENU@@YAXXZ PROC			; `dynamic initializer for 'RMSG_ADD_PLATFORM_MENU'', COMDAT

; 233  : const UINT RMSG_ADD_PLATFORM_MENU = ::RegisterWindowMessage(_T("RMSG_ADD_PLATFORM_MENU"));

  00000	68 00 00 00 00	 push	 OFFSET ??_C@_0BH@IFDMIMBP@RMSG_ADD_PLATFORM_MENU@
  00005	ff 15 00 00 00
	00		 call	 DWORD PTR __imp__RegisterWindowMessageA@4
  0000b	a3 00 00 00 00	 mov	 DWORD PTR ?RMSG_ADD_PLATFORM_MENU@@3IB, eax
  00010	c3		 ret	 0
??__ERMSG_ADD_PLATFORM_MENU@@YAXXZ ENDP			; `dynamic initializer for 'RMSG_ADD_PLATFORM_MENU''
text$di	ENDS
; Function compile flags: /Ogtp
; File D:\git\src\IBK\IBK_DRFN\ProjSrc\SrcDrfn\Chart\MULTICHART\define\ChartMsgDef.h
;	COMDAT ??__ERMSG_CHANGE_CROSSLINE@@YAXXZ
text$di	SEGMENT
??__ERMSG_CHANGE_CROSSLINE@@YAXXZ PROC			; `dynamic initializer for 'RMSG_CHANGE_CROSSLINE'', COMDAT

; 231  : const UINT RMSG_CHANGE_CROSSLINE = ::RegisterWindowMessage(_T("RMSG_CHANGE_CROSSLINE"));

  00000	68 00 00 00 00	 push	 OFFSET ??_C@_0BG@LNLCJKPF@RMSG_CHANGE_CROSSLINE@
  00005	ff 15 00 00 00
	00		 call	 DWORD PTR __imp__RegisterWindowMessageA@4
  0000b	a3 00 00 00 00	 mov	 DWORD PTR ?RMSG_CHANGE_CROSSLINE@@3IB, eax
  00010	c3		 ret	 0
??__ERMSG_CHANGE_CROSSLINE@@YAXXZ ENDP			; `dynamic initializer for 'RMSG_CHANGE_CROSSLINE''
text$di	ENDS
; Function compile flags: /Ogtp
; File D:\git\src\IBK\IBK_DRFN\ProjSrc\SrcDrfn\Chart\MULTICHART\define\ChartMsgDef.h
;	COMDAT ??__ERMSG_CHANGEVERTSCALETYPE@@YAXXZ
text$di	SEGMENT
??__ERMSG_CHANGEVERTSCALETYPE@@YAXXZ PROC		; `dynamic initializer for 'RMSG_CHANGEVERTSCALETYPE'', COMDAT

; 229  : const UINT RMSG_CHANGEVERTSCALETYPE = ::RegisterWindowMessage(_T("RMSG_CHANGEVERTSCALETYPE"));

  00000	68 00 00 00 00	 push	 OFFSET ??_C@_0BJ@JLKHIBIK@RMSG_CHANGEVERTSCALETYPE@
  00005	ff 15 00 00 00
	00		 call	 DWORD PTR __imp__RegisterWindowMessageA@4
  0000b	a3 00 00 00 00	 mov	 DWORD PTR ?RMSG_CHANGEVERTSCALETYPE@@3IB, eax
  00010	c3		 ret	 0
??__ERMSG_CHANGEVERTSCALETYPE@@YAXXZ ENDP		; `dynamic initializer for 'RMSG_CHANGEVERTSCALETYPE''
text$di	ENDS
; Function compile flags: /Ogtp
; File D:\git\src\IBK\IBK_DRFN\ProjSrc\SrcDrfn\Chart\MULTICHART\define\ChartMsgDef.h
;	COMDAT ??__ERMSG_GET_SKINCOLOR@@YAXXZ
text$di	SEGMENT
??__ERMSG_GET_SKINCOLOR@@YAXXZ PROC			; `dynamic initializer for 'RMSG_GET_SKINCOLOR'', COMDAT

; 226  : const UINT RMSG_GET_SKINCOLOR = ::RegisterWindowMessage(_T("RMSG_GET_SKINCOLOR"));

  00000	68 00 00 00 00	 push	 OFFSET ??_C@_0BD@FLDNDDHK@RMSG_GET_SKINCOLOR@
  00005	ff 15 00 00 00
	00		 call	 DWORD PTR __imp__RegisterWindowMessageA@4
  0000b	a3 00 00 00 00	 mov	 DWORD PTR ?RMSG_GET_SKINCOLOR@@3IB, eax
  00010	c3		 ret	 0
??__ERMSG_GET_SKINCOLOR@@YAXXZ ENDP			; `dynamic initializer for 'RMSG_GET_SKINCOLOR''
text$di	ENDS
; Function compile flags: /Ogtp
; File D:\git\src\IBK\IBK_DRFN\ProjSrc\SrcDrfn\Chart\MULTICHART\define\ChartMsgDef.h
;	COMDAT ??__ERMSG_CHANGE_SKINCOLOR@@YAXXZ
text$di	SEGMENT
??__ERMSG_CHANGE_SKINCOLOR@@YAXXZ PROC			; `dynamic initializer for 'RMSG_CHANGE_SKINCOLOR'', COMDAT

; 225  : const UINT RMSG_CHANGE_SKINCOLOR = ::RegisterWindowMessage(_T("RMSG_CHANGE_SKINCOLOR"));

  00000	68 00 00 00 00	 push	 OFFSET ??_C@_0BG@CNPAHNGG@RMSG_CHANGE_SKINCOLOR@
  00005	ff 15 00 00 00
	00		 call	 DWORD PTR __imp__RegisterWindowMessageA@4
  0000b	a3 00 00 00 00	 mov	 DWORD PTR ?RMSG_CHANGE_SKINCOLOR@@3IB, eax
  00010	c3		 ret	 0
??__ERMSG_CHANGE_SKINCOLOR@@YAXXZ ENDP			; `dynamic initializer for 'RMSG_CHANGE_SKINCOLOR''
text$di	ENDS
; Function compile flags: /Ogtp
; File D:\git\src\IBK\IBK_DRFN\ProjSrc\SrcDrfn\Chart\MULTICHART\define\ChartMsgDef.h
;	COMDAT ??__ERMSG_GET_USERID@@YAXXZ
text$di	SEGMENT
??__ERMSG_GET_USERID@@YAXXZ PROC			; `dynamic initializer for 'RMSG_GET_USERID'', COMDAT

; 215  : const UINT RMSG_GET_USERID = ::RegisterWindowMessage(_T("RMSG_GET_USERID"));	// User ID 얻기

  00000	68 00 00 00 00	 push	 OFFSET ??_C@_0BA@HKNFENJL@RMSG_GET_USERID@
  00005	ff 15 00 00 00
	00		 call	 DWORD PTR __imp__RegisterWindowMessageA@4
  0000b	a3 00 00 00 00	 mov	 DWORD PTR ?RMSG_GET_USERID@@3IB, eax
  00010	c3		 ret	 0
??__ERMSG_GET_USERID@@YAXXZ ENDP			; `dynamic initializer for 'RMSG_GET_USERID''
text$di	ENDS
; Function compile flags: /Ogtp
; File D:\git\src\IBK\IBK_DRFN\ProjSrc\SrcDrfn\Chart\MULTICHART\define\ChartMsgDef.h
;	COMDAT ??__ERMS_ANALYSIS_FUNC@@YAXXZ
text$di	SEGMENT
??__ERMS_ANALYSIS_FUNC@@YAXXZ PROC			; `dynamic initializer for 'RMS_ANALYSIS_FUNC'', COMDAT

; 211  : const UINT RMS_ANALYSIS_FUNC	= ::RegisterWindowMessage(_T("RMS_ANALYSIS_FUNC"));

  00000	68 00 00 00 00	 push	 OFFSET ??_C@_0BC@MMPGLPDH@RMS_ANALYSIS_FUNC@
  00005	ff 15 00 00 00
	00		 call	 DWORD PTR __imp__RegisterWindowMessageA@4
  0000b	a3 00 00 00 00	 mov	 DWORD PTR ?RMS_ANALYSIS_FUNC@@3IB, eax
  00010	c3		 ret	 0
??__ERMS_ANALYSIS_FUNC@@YAXXZ ENDP			; `dynamic initializer for 'RMS_ANALYSIS_FUNC''
text$di	ENDS
; Function compile flags: /Ogtp
; File D:\git\src\IBK\IBK_DRFN\ProjSrc\SrcDrfn\Chart\MULTICHART\define\ChartMsgDef.h
;	COMDAT ??__ERMSG_CHARTMAIN@@YAXXZ
text$di	SEGMENT
??__ERMSG_CHARTMAIN@@YAXXZ PROC				; `dynamic initializer for 'RMSG_CHARTMAIN'', COMDAT

; 208  : const UINT RMSG_CHARTMAIN		= ::RegisterWindowMessage(_T("RMSG_CHARTMAIN"));

  00000	68 00 00 00 00	 push	 OFFSET ??_C@_0P@KHFCBIOH@RMSG_CHARTMAIN@
  00005	ff 15 00 00 00
	00		 call	 DWORD PTR __imp__RegisterWindowMessageA@4
  0000b	a3 00 00 00 00	 mov	 DWORD PTR ?RMSG_CHARTMAIN@@3IB, eax
  00010	c3		 ret	 0
??__ERMSG_CHARTMAIN@@YAXXZ ENDP				; `dynamic initializer for 'RMSG_CHARTMAIN''
text$di	ENDS
; Function compile flags: /Ogtp
; File D:\git\src\IBK\IBK_DRFN\ProjSrc\SrcDrfn\Chart\MULTICHART\define\ChartMsgDef.h
;	COMDAT ??__ERMSG_SETQUERYOPT@@YAXXZ
text$di	SEGMENT
??__ERMSG_SETQUERYOPT@@YAXXZ PROC			; `dynamic initializer for 'RMSG_SETQUERYOPT'', COMDAT

; 183  : const UINT RMSG_SETQUERYOPT = ::RegisterWindowMessage(_T("RMSG_SETQUERYOPT"));

  00000	68 00 00 00 00	 push	 OFFSET ??_C@_0BB@CNOFPEHG@RMSG_SETQUERYOPT@
  00005	ff 15 00 00 00
	00		 call	 DWORD PTR __imp__RegisterWindowMessageA@4
  0000b	a3 00 00 00 00	 mov	 DWORD PTR ?RMSG_SETQUERYOPT@@3IB, eax
  00010	c3		 ret	 0
??__ERMSG_SETQUERYOPT@@YAXXZ ENDP			; `dynamic initializer for 'RMSG_SETQUERYOPT''
text$di	ENDS
; Function compile flags: /Ogtp
; File D:\git\src\IBK\IBK_DRFN\ProjSrc\SrcDrfn\Chart\commontr\TRDefine.h
;	COMDAT ??__ERMSG_GETSIGNAL_REAL@@YAXXZ
text$di	SEGMENT
??__ERMSG_GETSIGNAL_REAL@@YAXXZ PROC			; `dynamic initializer for 'RMSG_GETSIGNAL_REAL'', COMDAT

; 213  : const UINT RMSG_GETSIGNAL_REAL = ::RegisterWindowMessage(_T("RMSG_GETSIGNAL_REAL"));

  00000	68 00 00 00 00	 push	 OFFSET ??_C@_0BE@FJPKENOB@RMSG_GETSIGNAL_REAL@
  00005	ff 15 00 00 00
	00		 call	 DWORD PTR __imp__RegisterWindowMessageA@4
  0000b	a3 00 00 00 00	 mov	 DWORD PTR ?RMSG_GETSIGNAL_REAL@@3IB, eax
  00010	c3		 ret	 0
??__ERMSG_GETSIGNAL_REAL@@YAXXZ ENDP			; `dynamic initializer for 'RMSG_GETSIGNAL_REAL''
text$di	ENDS
; Function compile flags: /Ogtp
; File D:\git\src\IBK\IBK_DRFN\ProjSrc\SrcDrfn\Chart\chart_common\ReplayChartInfoDef.h
;	COMDAT ??__ERMSG_REPLAY_TOTAL_SEC@@YAXXZ
text$di	SEGMENT
??__ERMSG_REPLAY_TOTAL_SEC@@YAXXZ PROC			; `dynamic initializer for 'RMSG_REPLAY_TOTAL_SEC'', COMDAT

; 97   : 	const UINT RMSG_REPLAY_TOTAL_SEC = ::RegisterWindowMessage(_T("RMSG_REPLAY_TOTAL_SEC"));		// 전체 시간(초단위)를 전송

  00000	68 00 00 00 00	 push	 OFFSET ??_C@_0BG@GIAJEIJF@RMSG_REPLAY_TOTAL_SEC@
  00005	ff 15 00 00 00
	00		 call	 DWORD PTR __imp__RegisterWindowMessageA@4
  0000b	a3 00 00 00 00	 mov	 DWORD PTR ?RMSG_REPLAY_TOTAL_SEC@@3IB, eax
  00010	c3		 ret	 0
??__ERMSG_REPLAY_TOTAL_SEC@@YAXXZ ENDP			; `dynamic initializer for 'RMSG_REPLAY_TOTAL_SEC''
text$di	ENDS
; Function compile flags: /Ogtp
; File D:\git\src\IBK\IBK_DRFN\ProjSrc\SrcDrfn\Chart\chart_common\ReplayChartInfoDef.h
;	COMDAT ??__ERMSG_REPLAY_INC_SEC@@YAXXZ
text$di	SEGMENT
??__ERMSG_REPLAY_INC_SEC@@YAXXZ PROC			; `dynamic initializer for 'RMSG_REPLAY_INC_SEC'', COMDAT

; 96   : 	const UINT RMSG_REPLAY_INC_SEC = ::RegisterWindowMessage(_T("RMSG_REPLAY_INC_SEC"));			// 1초가 증가 될때마다 전송

  00000	68 00 00 00 00	 push	 OFFSET ??_C@_0BE@JFCIMCIP@RMSG_REPLAY_INC_SEC@
  00005	ff 15 00 00 00
	00		 call	 DWORD PTR __imp__RegisterWindowMessageA@4
  0000b	a3 00 00 00 00	 mov	 DWORD PTR ?RMSG_REPLAY_INC_SEC@@3IB, eax
  00010	c3		 ret	 0
??__ERMSG_REPLAY_INC_SEC@@YAXXZ ENDP			; `dynamic initializer for 'RMSG_REPLAY_INC_SEC''
text$di	ENDS
; Function compile flags: /Ogtp
; File D:\git\src\IBK\IBK_DRFN\ProjSrc\SrcDrfn\Chart\chart_common\ReplayChartInfoDef.h
;	COMDAT ??__ERMSG_REPLAY_END@@YAXXZ
text$di	SEGMENT
??__ERMSG_REPLAY_END@@YAXXZ PROC			; `dynamic initializer for 'RMSG_REPLAY_END'', COMDAT

; 95   : 	const UINT RMSG_REPLAY_END			= ::RegisterWindowMessage(_T("RMSG_REPLAY_END"));

  00000	68 00 00 00 00	 push	 OFFSET ??_C@_0BA@NKHHCPON@RMSG_REPLAY_END@
  00005	ff 15 00 00 00
	00		 call	 DWORD PTR __imp__RegisterWindowMessageA@4
  0000b	a3 00 00 00 00	 mov	 DWORD PTR ?RMSG_REPLAY_END@@3IB, eax
  00010	c3		 ret	 0
??__ERMSG_REPLAY_END@@YAXXZ ENDP			; `dynamic initializer for 'RMSG_REPLAY_END''
text$di	ENDS
; Function compile flags: /Ogtp
; File D:\git\src\IBK\IBK_DRFN\ProjSrc\SrcDrfn\Chart\chart_common\ReplayChartInfoDef.h
;	COMDAT ??__ERMSG_REPLAY_CHANGE_DATE@@YAXXZ
text$di	SEGMENT
??__ERMSG_REPLAY_CHANGE_DATE@@YAXXZ PROC		; `dynamic initializer for 'RMSG_REPLAY_CHANGE_DATE'', COMDAT

; 94   : 	const UINT RMSG_REPLAY_CHANGE_DATE	= ::RegisterWindowMessage(_T("RMSG_REPLAY_CHANGE_DATE"));

  00000	68 00 00 00 00	 push	 OFFSET ??_C@_0BI@KDGAIIMD@RMSG_REPLAY_CHANGE_DATE@
  00005	ff 15 00 00 00
	00		 call	 DWORD PTR __imp__RegisterWindowMessageA@4
  0000b	a3 00 00 00 00	 mov	 DWORD PTR ?RMSG_REPLAY_CHANGE_DATE@@3IB, eax
  00010	c3		 ret	 0
??__ERMSG_REPLAY_CHANGE_DATE@@YAXXZ ENDP		; `dynamic initializer for 'RMSG_REPLAY_CHANGE_DATE''
text$di	ENDS
; Function compile flags: /Ogtp
; File D:\git\src\IBK\IBK_DRFN\ProjSrc\SrcDrfn\Chart\chart_common\ReplayChartInfoDef.h
;	COMDAT ??__ERMSG_REPLAY_FAIL@@YAXXZ
text$di	SEGMENT
??__ERMSG_REPLAY_FAIL@@YAXXZ PROC			; `dynamic initializer for 'RMSG_REPLAY_FAIL'', COMDAT

; 93   : 	const UINT RMSG_REPLAY_FAIL			= ::RegisterWindowMessage(_T("RMSG_REPLAY_FAIL"));

  00000	68 00 00 00 00	 push	 OFFSET ??_C@_0BB@JFLGBADG@RMSG_REPLAY_FAIL@
  00005	ff 15 00 00 00
	00		 call	 DWORD PTR __imp__RegisterWindowMessageA@4
  0000b	a3 00 00 00 00	 mov	 DWORD PTR ?RMSG_REPLAY_FAIL@@3IB, eax
  00010	c3		 ret	 0
??__ERMSG_REPLAY_FAIL@@YAXXZ ENDP			; `dynamic initializer for 'RMSG_REPLAY_FAIL''
text$di	ENDS
; Function compile flags: /Ogtp
; File D:\git\src\IBK\IBK_DRFN\ProjSrc\SrcDrfn\Chart\chart_common\ReplayChartInfoDef.h
;	COMDAT ??__ERMSG_REPLAY_REAL@@YAXXZ
text$di	SEGMENT
??__ERMSG_REPLAY_REAL@@YAXXZ PROC			; `dynamic initializer for 'RMSG_REPLAY_REAL'', COMDAT

; 92   : 	const UINT RMSG_REPLAY_REAL			= ::RegisterWindowMessage(_T("RMSG_REPLAY_REAL"));

  00000	68 00 00 00 00	 push	 OFFSET ??_C@_0BB@IBKHOHJL@RMSG_REPLAY_REAL@
  00005	ff 15 00 00 00
	00		 call	 DWORD PTR __imp__RegisterWindowMessageA@4
  0000b	a3 00 00 00 00	 mov	 DWORD PTR ?RMSG_REPLAY_REAL@@3IB, eax
  00010	c3		 ret	 0
??__ERMSG_REPLAY_REAL@@YAXXZ ENDP			; `dynamic initializer for 'RMSG_REPLAY_REAL''
text$di	ENDS
; Function compile flags: /Ogtp
; File C:\Program Files (x86)\Microsoft Visual Studio\2019\Community\VC\Tools\MSVC\14.29.30133\atlmfc\include\atlbase.h
; File C:\Program Files (x86)\Microsoft Visual Studio\2019\Community\VC\Tools\MSVC\14.29.30133\atlmfc\include\atlsimpcoll.h
; File C:\Program Files (x86)\Microsoft Visual Studio\2019\Community\VC\Tools\MSVC\14.29.30133\atlmfc\include\atlbase.h
; File C:\Program Files (x86)\Microsoft Visual Studio\2019\Community\VC\Tools\MSVC\14.29.30133\atlmfc\include\atlsimpcoll.h
; File C:\Program Files (x86)\Microsoft Visual Studio\2019\Community\VC\Tools\MSVC\14.29.30133\atlmfc\include\atlcore.h
; File C:\Program Files (x86)\Microsoft Visual Studio\2019\Community\VC\Tools\MSVC\14.29.30133\atlmfc\include\atlsimpcoll.h
; File C:\Program Files (x86)\Microsoft Visual Studio\2019\Community\VC\Tools\MSVC\14.29.30133\atlmfc\include\atlcore.h
; File C:\Program Files (x86)\Microsoft Visual Studio\2019\Community\VC\Tools\MSVC\14.29.30133\atlmfc\include\atlbase.h
; File C:\Program Files (x86)\Microsoft Visual Studio\2019\Community\VC\Tools\MSVC\14.29.30133\atlmfc\include\atlsimpcoll.h
;	COMDAT ??__F_AtlWinModule@ATL@@YAXXZ
text$yd	SEGMENT
??__F_AtlWinModule@ATL@@YAXXZ PROC			; ATL::`dynamic atexit destructor for '_AtlWinModule'', COMDAT
; File C:\Program Files (x86)\Microsoft Visual Studio\2019\Community\VC\Tools\MSVC\14.29.30133\atlmfc\include\atlbase.h

; 7655 : 	if (pWinModule->cbSize == 0)

  00000	a1 00 00 00 00	 mov	 eax, DWORD PTR ?_AtlWinModule@ATL@@3VCAtlWinModule@1@A
  00005	8b 0d 00 00 00
	00		 mov	 ecx, DWORD PTR __imp__free

; 2957 : 		AtlWinModuleTerm(this, _AtlBaseModule.GetModuleInstance());

  0000b	57		 push	 edi
  0000c	8b 3d 04 00 00
	00		 mov	 edi, DWORD PTR ?_AtlBaseModule@ATL@@3VCAtlBaseModule@1@A+4

; 7655 : 	if (pWinModule->cbSize == 0)

  00012	85 c0		 test	 eax, eax
  00014	0f 84 93 00 00
	00		 je	 $LN8@dynamic

; 7656 : 		return S_OK;
; 7657 : 	if (pWinModule->cbSize != sizeof(_ATL_WIN_MODULE))

  0001a	83 f8 2c	 cmp	 eax, 44			; 0000002cH
  0001d	0f 85 8a 00 00
	00		 jne	 $LN8@dynamic

; 7658 : 		return E_INVALIDARG;
; 7659 : 
; 7660 : 	for (int i = 0; i < pWinModule->m_rgWindowClassAtoms.GetSize(); i++)

  00023	a1 24 00 00 00	 mov	 eax, DWORD PTR ?_AtlWinModule@ATL@@3VCAtlWinModule@1@A+36
  00028	56		 push	 esi
  00029	33 f6		 xor	 esi, esi
  0002b	85 c0		 test	 eax, eax
  0002d	7e 35		 jle	 SHORT $LN10@dynamic
  0002f	53		 push	 ebx
  00030	8b 1d 00 00 00
	00		 mov	 ebx, DWORD PTR __imp__UnregisterClassA@8
$LL11@dynamic:
; File C:\Program Files (x86)\Microsoft Visual Studio\2019\Community\VC\Tools\MSVC\14.29.30133\atlmfc\include\atlsimpcoll.h

; 238  : 		if(nIndex < 0 || nIndex >= m_nSize)

  00036	85 f6		 test	 esi, esi
  00038	0f 88 9e 00 00
	00		 js	 $LN46@dynamic
  0003e	3b f0		 cmp	 esi, eax
  00040	0f 8d 96 00 00
	00		 jge	 $LN46@dynamic
; File C:\Program Files (x86)\Microsoft Visual Studio\2019\Community\VC\Tools\MSVC\14.29.30133\atlmfc\include\atlbase.h

; 7661 : 		UnregisterClass((LPCTSTR)pWinModule->m_rgWindowClassAtoms[i], hInst);

  00046	a1 20 00 00 00	 mov	 eax, DWORD PTR ?_AtlWinModule@ATL@@3VCAtlWinModule@1@A+32
  0004b	57		 push	 edi
  0004c	0f b7 04 70	 movzx	 eax, WORD PTR [eax+esi*2]
  00050	50		 push	 eax
  00051	ff d3		 call	 ebx
  00053	a1 24 00 00 00	 mov	 eax, DWORD PTR ?_AtlWinModule@ATL@@3VCAtlWinModule@1@A+36
  00058	46		 inc	 esi
  00059	3b f0		 cmp	 esi, eax
  0005b	7c d9		 jl	 SHORT $LL11@dynamic
; File C:\Program Files (x86)\Microsoft Visual Studio\2019\Community\VC\Tools\MSVC\14.29.30133\atlmfc\include\atlsimpcoll.h

; 238  : 		if(nIndex < 0 || nIndex >= m_nSize)

  0005d	8b 0d 00 00 00
	00		 mov	 ecx, DWORD PTR __imp__free
  00063	5b		 pop	 ebx
$LN10@dynamic:

; 216  : 		if(m_aT != NULL)

  00064	a1 20 00 00 00	 mov	 eax, DWORD PTR ?_AtlWinModule@ATL@@3VCAtlWinModule@1@A+32
  00069	5e		 pop	 esi
  0006a	85 c0		 test	 eax, eax
  0006c	74 10		 je	 SHORT $LN25@dynamic

; 217  : 		{
; 218  : 			for(int i = 0; i < m_nSize; i++)
; 219  : 				m_aT[i].~T();
; 220  : 			free(m_aT);

  0006e	50		 push	 eax
  0006f	ff d1		 call	 ecx
  00071	83 c4 04	 add	 esp, 4

; 221  : 			m_aT = NULL;

  00074	c7 05 20 00 00
	00 00 00 00 00	 mov	 DWORD PTR ?_AtlWinModule@ATL@@3VCAtlWinModule@1@A+32, 0
$LN25@dynamic:
; File C:\Program Files (x86)\Microsoft Visual Studio\2019\Community\VC\Tools\MSVC\14.29.30133\atlmfc\include\atlcore.h

; 155  : 		DeleteCriticalSection(&m_sec);

  0007e	68 04 00 00 00	 push	 OFFSET ?_AtlWinModule@ATL@@3VCAtlWinModule@1@A+4
; File C:\Program Files (x86)\Microsoft Visual Studio\2019\Community\VC\Tools\MSVC\14.29.30133\atlmfc\include\atlsimpcoll.h

; 223  : 		m_nSize = 0;

  00083	c7 05 24 00 00
	00 00 00 00 00	 mov	 DWORD PTR ?_AtlWinModule@ATL@@3VCAtlWinModule@1@A+36, 0

; 224  : 		m_nAllocSize = 0;

  0008d	c7 05 28 00 00
	00 00 00 00 00	 mov	 DWORD PTR ?_AtlWinModule@ATL@@3VCAtlWinModule@1@A+40, 0
; File C:\Program Files (x86)\Microsoft Visual Studio\2019\Community\VC\Tools\MSVC\14.29.30133\atlmfc\include\atlcore.h

; 155  : 		DeleteCriticalSection(&m_sec);

  00097	ff 15 00 00 00
	00		 call	 DWORD PTR __imp__DeleteCriticalSection@4
; File C:\Program Files (x86)\Microsoft Visual Studio\2019\Community\VC\Tools\MSVC\14.29.30133\atlmfc\include\atlbase.h

; 7664 : 	pWinModule->cbSize = 0;

  0009d	8b 0d 00 00 00
	00		 mov	 ecx, DWORD PTR __imp__free
  000a3	c7 05 00 00 00
	00 00 00 00 00	 mov	 DWORD PTR ?_AtlWinModule@ATL@@3VCAtlWinModule@1@A, 0
$LN8@dynamic:
; File C:\Program Files (x86)\Microsoft Visual Studio\2019\Community\VC\Tools\MSVC\14.29.30133\atlmfc\include\atlsimpcoll.h

; 216  : 		if(m_aT != NULL)

  000ad	a1 20 00 00 00	 mov	 eax, DWORD PTR ?_AtlWinModule@ATL@@3VCAtlWinModule@1@A+32
  000b2	5f		 pop	 edi
  000b3	85 c0		 test	 eax, eax
  000b5	74 10		 je	 SHORT $LN40@dynamic

; 217  : 		{
; 218  : 			for(int i = 0; i < m_nSize; i++)
; 219  : 				m_aT[i].~T();
; 220  : 			free(m_aT);

  000b7	50		 push	 eax
  000b8	ff d1		 call	 ecx
  000ba	83 c4 04	 add	 esp, 4

; 221  : 			m_aT = NULL;

  000bd	c7 05 20 00 00
	00 00 00 00 00	 mov	 DWORD PTR ?_AtlWinModule@ATL@@3VCAtlWinModule@1@A+32, 0
$LN40@dynamic:

; 223  : 		m_nSize = 0;

  000c7	c7 05 24 00 00
	00 00 00 00 00	 mov	 DWORD PTR ?_AtlWinModule@ATL@@3VCAtlWinModule@1@A+36, 0

; 224  : 		m_nAllocSize = 0;

  000d1	c7 05 28 00 00
	00 00 00 00 00	 mov	 DWORD PTR ?_AtlWinModule@ATL@@3VCAtlWinModule@1@A+40, 0
  000db	c3		 ret	 0
$LN46@dynamic:

; 240  : 			_AtlRaiseException((DWORD)EXCEPTION_ARRAY_BOUNDS_EXCEEDED);

  000dc	6a 01		 push	 1
  000de	68 8c 00 00 c0	 push	 -1073741684		; c000008cH
  000e3	e8 00 00 00 00	 call	 ?_AtlRaiseException@ATL@@YAXKK@Z ; ATL::_AtlRaiseException
$LN56@dynamic:
  000e8	cc		 int	 3
??__F_AtlWinModule@ATL@@YAXXZ ENDP			; ATL::`dynamic atexit destructor for '_AtlWinModule''
text$yd	ENDS
; Function compile flags: /Ogtp
; File C:\Program Files (x86)\Microsoft Visual Studio\2019\Community\VC\Tools\MSVC\14.29.30133\atlmfc\include\atlbase.h
; File C:\Program Files (x86)\Microsoft Visual Studio\2019\Community\VC\Tools\MSVC\14.29.30133\atlmfc\include\atlwinverapi.h
; File C:\Program Files (x86)\Microsoft Visual Studio\2019\Community\VC\Tools\MSVC\14.29.30133\atlmfc\include\atlcore.h
; File C:\Program Files (x86)\Windows Kits\10\Include\10.0.22000.0\shared\winerror.h
; File C:\Program Files (x86)\Microsoft Visual Studio\2019\Community\VC\Tools\MSVC\14.29.30133\atlmfc\include\atlbase.h
;	COMDAT ??__E_AtlWinModule@ATL@@YAXXZ
text$di	SEGMENT
??__E_AtlWinModule@ATL@@YAXXZ PROC			; ATL::`dynamic initializer for '_AtlWinModule'', COMDAT
; File C:\Program Files (x86)\Microsoft Visual Studio\2019\Community\VC\Tools\MSVC\14.29.30133\atlmfc\include\atlwinverapi.h

; 730  : 	return ::InitializeCriticalSectionEx(lpCriticalSection, dwSpinCount, Flags);

  00000	6a 00		 push	 0
  00002	6a 00		 push	 0
  00004	68 04 00 00 00	 push	 OFFSET ?_AtlWinModule@ATL@@3VCAtlWinModule@1@A+4
  00009	ff 15 00 00 00
	00		 call	 DWORD PTR __imp__InitializeCriticalSectionEx@12
; File C:\Program Files (x86)\Microsoft Visual Studio\2019\Community\VC\Tools\MSVC\14.29.30133\atlmfc\include\atlcore.h

; 145  : 		if (!_AtlInitializeCriticalSectionEx(&m_sec, 0, 0))

  0000f	85 c0		 test	 eax, eax
  00011	75 27		 jne	 SHORT $LN4@dynamic

; 146  : 		{
; 147  : 			hRes = HRESULT_FROM_WIN32(GetLastError());

  00013	ff 15 00 00 00
	00		 call	 DWORD PTR __imp__GetLastError@0
; File C:\Program Files (x86)\Windows Kits\10\Include\10.0.22000.0\shared\winerror.h

; 29673: FORCEINLINE _Translates_Win32_to_HRESULT_(x) HRESULT HRESULT_FROM_WIN32(unsigned long x) { return (HRESULT)(x) <= 0 ? (HRESULT)(x) : (HRESULT) (((x) & 0x0000FFFF) | (FACILITY_WIN32 << 16) | 0x80000000);}

  00019	85 c0		 test	 eax, eax
  0001b	7e 0a		 jle	 SHORT $LN26@dynamic
  0001d	0f b7 c0	 movzx	 eax, ax
  00020	0d 00 00 07 80	 or	 eax, -2147024896	; 80070000H
; File C:\Program Files (x86)\Microsoft Visual Studio\2019\Community\VC\Tools\MSVC\14.29.30133\atlmfc\include\atlbase.h

; 2941 : 		if (FAILED(hr))

  00025	85 c0		 test	 eax, eax
$LN26@dynamic:
  00027	79 11		 jns	 SHORT $LN4@dynamic

; 2942 : 		{
; 2943 : 			ATLASSERT(0);
; 2944 : 			CAtlBaseModule::m_bInitFailed = true;

  00029	c6 05 00 00 00
	00 01		 mov	 BYTE PTR ?m_bInitFailed@CAtlBaseModule@ATL@@2_NA, 1 ; ATL::CAtlBaseModule::m_bInitFailed

; 2945 : 			cbSize = 0;

  00030	c7 05 00 00 00
	00 00 00 00 00	 mov	 DWORD PTR ?_AtlWinModule@ATL@@3VCAtlWinModule@1@A, 0
$LN4@dynamic:

; 2972 : __declspec(selectany) CAtlWinModule _AtlWinModule;

  0003a	68 00 00 00 00	 push	 OFFSET ??__F_AtlWinModule@ATL@@YAXXZ ; ATL::`dynamic atexit destructor for '_AtlWinModule''
  0003f	e8 00 00 00 00	 call	 _atexit
  00044	59		 pop	 ecx
  00045	c3		 ret	 0
??__E_AtlWinModule@ATL@@YAXXZ ENDP			; ATL::`dynamic initializer for '_AtlWinModule''
text$di	ENDS
; Function compile flags: /Ogtp
; File C:\Program Files (x86)\Microsoft Visual Studio\2019\Community\VC\Tools\MSVC\14.29.30133\atlmfc\include\afx.inl
;	COMDAT ?_AfxInitManaged@@YAHXZ
_TEXT	SEGMENT
?_AfxInitManaged@@YAHXZ PROC				; _AfxInitManaged, COMDAT

; 87   : 	return 0;

  00000	33 c0		 xor	 eax, eax

; 88   : }

  00002	c3		 ret	 0
?_AfxInitManaged@@YAHXZ ENDP				; _AfxInitManaged
_TEXT	ENDS
; Function compile flags: /Ogtp
; File C:\Program Files (x86)\Microsoft Visual Studio\2019\Community\VC\Tools\MSVC\14.29.30133\atlmfc\include\atlwinverapi.h
;	COMDAT ?_AtlInitializeCriticalSectionEx@ATL@@YAHPAU_RTL_CRITICAL_SECTION@@KK@Z
_TEXT	SEGMENT
_lpCriticalSection$ = 8					; size = 4
_dwSpinCount$ = 12					; size = 4
_Flags$ = 16						; size = 4
?_AtlInitializeCriticalSectionEx@ATL@@YAHPAU_RTL_CRITICAL_SECTION@@KK@Z PROC ; ATL::_AtlInitializeCriticalSectionEx, COMDAT

; 727  : {

  00000	55		 push	 ebp
  00001	8b ec		 mov	 ebp, esp

; 728  : #if (NTDDI_VERSION >= NTDDI_VISTA) && !defined(_USING_V110_SDK71_) && !defined(_ATL_XP_TARGETING)
; 729  : 	// InitializeCriticalSectionEx is available in Vista or later, desktop or store apps
; 730  : 	return ::InitializeCriticalSectionEx(lpCriticalSection, dwSpinCount, Flags);

  00003	ff 75 10	 push	 DWORD PTR _Flags$[ebp]
  00006	ff 75 0c	 push	 DWORD PTR _dwSpinCount$[ebp]
  00009	ff 75 08	 push	 DWORD PTR _lpCriticalSection$[ebp]
  0000c	ff 15 00 00 00
	00		 call	 DWORD PTR __imp__InitializeCriticalSectionEx@12

; 731  : #else
; 732  : 	UNREFERENCED_PARAMETER(Flags);
; 733  : 
; 734  : 	// ...otherwise fall back to using InitializeCriticalSectionAndSpinCount.
; 735  : 	return ::InitializeCriticalSectionAndSpinCount(lpCriticalSection, dwSpinCount);
; 736  : #endif
; 737  : }

  00012	5d		 pop	 ebp
  00013	c3		 ret	 0
?_AtlInitializeCriticalSectionEx@ATL@@YAHPAU_RTL_CRITICAL_SECTION@@KK@Z ENDP ; ATL::_AtlInitializeCriticalSectionEx
_TEXT	ENDS
; Function compile flags: /Ogtp
; File C:\Program Files (x86)\Microsoft Visual Studio\2019\Community\VC\Tools\MSVC\14.29.30133\atlmfc\include\atlexcept.h
;	COMDAT ?_AtlRaiseException@ATL@@YAXKK@Z
_TEXT	SEGMENT
_dwExceptionCode$ = 8					; size = 4
_dwExceptionFlags$ = 12					; size = 4
?_AtlRaiseException@ATL@@YAXKK@Z PROC			; ATL::_AtlRaiseException, COMDAT

; 30   : {

  00000	55		 push	 ebp
  00001	8b ec		 mov	 ebp, esp

; 31   : 	RaiseException( dwExceptionCode, dwExceptionFlags, 0, NULL );

  00003	6a 00		 push	 0
  00005	6a 00		 push	 0
  00007	ff 75 0c	 push	 DWORD PTR _dwExceptionFlags$[ebp]
  0000a	ff 75 08	 push	 DWORD PTR _dwExceptionCode$[ebp]
  0000d	ff 15 00 00 00
	00		 call	 DWORD PTR __imp__RaiseException@16

; 32   : }

  00013	5d		 pop	 ebp
  00014	c3		 ret	 0
?_AtlRaiseException@ATL@@YAXKK@Z ENDP			; ATL::_AtlRaiseException
_TEXT	ENDS
; Function compile flags: /Ogtp
; File C:\Program Files (x86)\Windows Kits\10\Include\10.0.22000.0\ucrt\stdio.h
;	COMDAT _sscanf
_TEXT	SEGMENT
__Buffer$ = 8						; size = 4
__Format$ = 12						; size = 4
_sscanf	PROC						; COMDAT

; 2247 :     {

  00000	55		 push	 ebp
  00001	8b ec		 mov	 ebp, esp

; 2153 :         return __stdio_common_vsscanf(

  00003	8d 45 10	 lea	 eax, DWORD PTR __Format$[ebp+4]
  00006	50		 push	 eax
  00007	6a 00		 push	 0
  00009	ff 75 0c	 push	 DWORD PTR __Format$[ebp]
  0000c	6a ff		 push	 -1
  0000e	ff 75 08	 push	 DWORD PTR __Buffer$[ebp]
  00011	e8 00 00 00 00	 call	 ___local_stdio_scanf_options
  00016	ff 70 04	 push	 DWORD PTR [eax+4]
  00019	ff 30		 push	 DWORD PTR [eax]
  0001b	ff 15 00 00 00
	00		 call	 DWORD PTR __imp____stdio_common_vsscanf
  00021	83 c4 1c	 add	 esp, 28			; 0000001cH

; 2248 :         int _Result;
; 2249 :         va_list _ArgList;
; 2250 :         __crt_va_start(_ArgList, _Format);
; 2251 :         _Result = _vsscanf_l(_Buffer, _Format, NULL, _ArgList);
; 2252 :         __crt_va_end(_ArgList);
; 2253 :         return _Result;
; 2254 :     }

  00024	5d		 pop	 ebp
  00025	c3		 ret	 0
_sscanf	ENDP
_TEXT	ENDS
; Function compile flags: /Ogtp
; File C:\Program Files (x86)\Windows Kits\10\Include\10.0.22000.0\ucrt\corecrt_stdio_config.h
;	COMDAT ___local_stdio_scanf_options
_TEXT	SEGMENT
___local_stdio_scanf_options PROC			; COMDAT

; 101  :         static unsigned __int64 _OptionsStorage;
; 102  :         return &_OptionsStorage;

  00000	b8 00 00 00 00	 mov	 eax, OFFSET ?_OptionsStorage@?1??__local_stdio_scanf_options@@9@4_KA ; `__local_stdio_scanf_options'::`2'::_OptionsStorage

; 103  :     }

  00005	c3		 ret	 0
___local_stdio_scanf_options ENDP
_TEXT	ENDS
; Function compile flags: /Ogtp
; File D:\git\src\IBK\IBK_DRFN\ProjSrc\SrcDrfn\Chart\MULTICHART\StdDialogPartnerSite.cpp
;	COMDAT ?__empty_global_delete@@YAXPAXI@Z
_TEXT	SEGMENT
___formal$ = 8						; size = 4
___formal$ = 12						; size = 4
?__empty_global_delete@@YAXPAXI@Z PROC			; __empty_global_delete, COMDAT

  00000	c2 00 00	 ret	 0
?__empty_global_delete@@YAXPAXI@Z ENDP			; __empty_global_delete
_TEXT	ENDS
; Function compile flags: /Ogtp
; File D:\git\src\IBK\IBK_DRFN\ProjSrc\SrcDrfn\Chart\MULTICHART\StdDialogPartnerSite.cpp
;	COMDAT ?__empty_global_delete@@YAXPAX@Z
_TEXT	SEGMENT
___formal$ = 8						; size = 4
?__empty_global_delete@@YAXPAX@Z PROC			; __empty_global_delete, COMDAT

  00000	c2 00 00	 ret	 0
?__empty_global_delete@@YAXPAX@Z ENDP			; __empty_global_delete
_TEXT	ENDS
END
