; Listing generated by Microsoft (R) Optimizing Compiler Version 19.29.30148.0 

	TITLE	D:\git\src\IBK\IBK_DRFN\#DRfn-CS\_Obj\MultiChart\TabCodeSearch.obj
	.686P
	.XMM
	include listing.inc
	.model	flat

INCLUDELIB MSVCRT
INCLUDELIB OLDNAMES

PUBLIC	??_C@_0P@JJCNALBJ@RMSG_DRAGSTART@		; `string'
PUBLIC	??_C@_0N@HCNBEPNP@RMSG_DRAGEND@			; `string'
PUBLIC	??_C@_0BB@IBKHOHJL@RMSG_REPLAY_REAL@		; `string'
PUBLIC	??_C@_0BB@JFLGBADG@RMSG_REPLAY_FAIL@		; `string'
PUBLIC	??_C@_0BI@KDGAIIMD@RMSG_REPLAY_CHANGE_DATE@	; `string'
PUBLIC	??_C@_0BA@NKHHCPON@RMSG_REPLAY_END@		; `string'
PUBLIC	??_C@_0BE@JFCIMCIP@RMSG_REPLAY_INC_SEC@		; `string'
PUBLIC	??_C@_0BG@GIAJEIJF@RMSG_REPLAY_TOTAL_SEC@	; `string'
PUBLIC	?WM_ATLGETHOST@ATL@@3IA				; ATL::WM_ATLGETHOST
PUBLIC	?WM_ATLGETCONTROL@ATL@@3IA			; ATL::WM_ATLGETCONTROL
PUBLIC	??_C@_0BE@KOIJLIKO@RMSG_ADDACCOUNTCODE@		; `string'
PUBLIC	??_C@_0BD@IBMNKIJA@RMSG_CHECKAVGPRICE@		; `string'
PUBLIC	??_C@_0BF@CHNDMHCB@RMSG_GETCURCHARTINFO@	; `string'
PUBLIC	??_C@_0BE@PFEEJKPO@RMSG_ADDACCOUNTCONC@		; `string'
PUBLIC	??_C@_0BD@OKKAEAJC@RMSG_RESETCONCDATA@		; `string'
PUBLIC	??_C@_0BC@NOGENPAJ@RMSG_GETINTERFACE@		; `string'
PUBLIC	??_C@_0M@NFOGHAF@RMSG_WMSIZE@			; `string'
PUBLIC	??_C@_0BD@BFILGGNC@RMSG_TABCODESEARCH@		; `string'
PUBLIC	??_C@_0P@BKKCOCLK@RMSG_INTERFACE@		; `string'
PUBLIC	?m_bInitFailed@CAtlBaseModule@ATL@@2_NA		; ATL::CAtlBaseModule::m_bInitFailed
PUBLIC	??_C@_0BB@EPGJDGDK@RMSG_CONCERNHWND@		; `string'
PUBLIC	??_C@_0BA@JHANHJCN@RMSG_INTREQUEST@		; `string'
PUBLIC	??_C@_0BE@FJPKENOB@RMSG_GETSIGNAL_REAL@		; `string'
PUBLIC	??_C@_0BB@CNOFPEHG@RMSG_SETQUERYOPT@		; `string'
PUBLIC	??_C@_0P@KHFCBIOH@RMSG_CHARTMAIN@		; `string'
PUBLIC	??_C@_0BC@MMPGLPDH@RMS_ANALYSIS_FUNC@		; `string'
PUBLIC	??_C@_0BA@HKNFENJL@RMSG_GET_USERID@		; `string'
PUBLIC	??_C@_0BG@CNPAHNGG@RMSG_CHANGE_SKINCOLOR@	; `string'
PUBLIC	??_C@_0BD@FLDNDDHK@RMSG_GET_SKINCOLOR@		; `string'
PUBLIC	??_C@_0BJ@JLKHIBIK@RMSG_CHANGEVERTSCALETYPE@	; `string'
PUBLIC	??_C@_0BG@LNLCJKPF@RMSG_CHANGE_CROSSLINE@	; `string'
PUBLIC	??_C@_0BH@IFDMIMBP@RMSG_ADD_PLATFORM_MENU@	; `string'
PUBLIC	??_C@_0BJ@OGNAJHHI@RMSG_SETINITIALCHARTDATA@	; `string'
PUBLIC	??_C@_0N@IIOKMIEH@RMSG_GETINFO@			; `string'
PUBLIC	??_C@_0N@HABLPHJG@RMSG_SETINFO@			; `string'
PUBLIC	?_pAtlModule@ATL@@3PAVCAtlModule@1@A		; ATL::_pAtlModule
PUBLIC	?_pAtlAutoThreadModule@ATL@@3PAUIAtlAutoThreadModule@1@A ; ATL::_pAtlAutoThreadModule
PUBLIC	??_C@_0M@LPFHDJI@RMSG_DRUSER@			; `string'
EXTRN	?_AtlBaseModule@ATL@@3VCAtlBaseModule@1@A:BYTE	; ATL::_AtlBaseModule
;	COMDAT ?WM_ATLGETHOST@ATL@@3IA
_BSS	SEGMENT
?WM_ATLGETHOST@ATL@@3IA DD 01H DUP (?)			; ATL::WM_ATLGETHOST
_BSS	ENDS
;	COMDAT ?WM_ATLGETCONTROL@ATL@@3IA
_BSS	SEGMENT
?WM_ATLGETCONTROL@ATL@@3IA DD 01H DUP (?)		; ATL::WM_ATLGETCONTROL
_BSS	ENDS
;	COMDAT ?m_bInitFailed@CAtlBaseModule@ATL@@2_NA
_BSS	SEGMENT
?m_bInitFailed@CAtlBaseModule@ATL@@2_NA DB 01H DUP (?)	; ATL::CAtlBaseModule::m_bInitFailed
_BSS	ENDS
;	COMDAT ?_pAtlModule@ATL@@3PAVCAtlModule@1@A
_BSS	SEGMENT
?_pAtlModule@ATL@@3PAVCAtlModule@1@A DD 01H DUP (?)	; ATL::_pAtlModule
_BSS	ENDS
;	COMDAT ?_pAtlAutoThreadModule@ATL@@3PAUIAtlAutoThreadModule@1@A
_BSS	SEGMENT
?_pAtlAutoThreadModule@ATL@@3PAUIAtlAutoThreadModule@1@A DD 01H DUP (?) ; ATL::_pAtlAutoThreadModule
_BSS	ENDS
;	COMDAT ??_C@_0M@LPFHDJI@RMSG_DRUSER@
CONST	SEGMENT
??_C@_0M@LPFHDJI@RMSG_DRUSER@ DB 'RMSG_DRUSER', 00H	; `string'
CONST	ENDS
;	COMDAT ??_C@_0N@HABLPHJG@RMSG_SETINFO@
CONST	SEGMENT
??_C@_0N@HABLPHJG@RMSG_SETINFO@ DB 'RMSG_SETINFO', 00H	; `string'
CONST	ENDS
;	COMDAT ??_C@_0N@IIOKMIEH@RMSG_GETINFO@
CONST	SEGMENT
??_C@_0N@IIOKMIEH@RMSG_GETINFO@ DB 'RMSG_GETINFO', 00H	; `string'
CONST	ENDS
;	COMDAT ??_C@_0BJ@OGNAJHHI@RMSG_SETINITIALCHARTDATA@
CONST	SEGMENT
??_C@_0BJ@OGNAJHHI@RMSG_SETINITIALCHARTDATA@ DB 'RMSG_SETINITIALCHARTDATA'
	DB	00H						; `string'
CONST	ENDS
;	COMDAT ??_C@_0BH@IFDMIMBP@RMSG_ADD_PLATFORM_MENU@
CONST	SEGMENT
??_C@_0BH@IFDMIMBP@RMSG_ADD_PLATFORM_MENU@ DB 'RMSG_ADD_PLATFORM_MENU', 00H ; `string'
CONST	ENDS
;	COMDAT ??_C@_0BG@LNLCJKPF@RMSG_CHANGE_CROSSLINE@
CONST	SEGMENT
??_C@_0BG@LNLCJKPF@RMSG_CHANGE_CROSSLINE@ DB 'RMSG_CHANGE_CROSSLINE', 00H ; `string'
CONST	ENDS
;	COMDAT ??_C@_0BJ@JLKHIBIK@RMSG_CHANGEVERTSCALETYPE@
CONST	SEGMENT
??_C@_0BJ@JLKHIBIK@RMSG_CHANGEVERTSCALETYPE@ DB 'RMSG_CHANGEVERTSCALETYPE'
	DB	00H						; `string'
CONST	ENDS
;	COMDAT ??_C@_0BD@FLDNDDHK@RMSG_GET_SKINCOLOR@
CONST	SEGMENT
??_C@_0BD@FLDNDDHK@RMSG_GET_SKINCOLOR@ DB 'RMSG_GET_SKINCOLOR', 00H ; `string'
CONST	ENDS
;	COMDAT ??_C@_0BG@CNPAHNGG@RMSG_CHANGE_SKINCOLOR@
CONST	SEGMENT
??_C@_0BG@CNPAHNGG@RMSG_CHANGE_SKINCOLOR@ DB 'RMSG_CHANGE_SKINCOLOR', 00H ; `string'
CONST	ENDS
;	COMDAT ??_C@_0BA@HKNFENJL@RMSG_GET_USERID@
CONST	SEGMENT
??_C@_0BA@HKNFENJL@RMSG_GET_USERID@ DB 'RMSG_GET_USERID', 00H ; `string'
CONST	ENDS
;	COMDAT ??_C@_0BC@MMPGLPDH@RMS_ANALYSIS_FUNC@
CONST	SEGMENT
??_C@_0BC@MMPGLPDH@RMS_ANALYSIS_FUNC@ DB 'RMS_ANALYSIS_FUNC', 00H ; `string'
CONST	ENDS
;	COMDAT ??_C@_0P@KHFCBIOH@RMSG_CHARTMAIN@
CONST	SEGMENT
??_C@_0P@KHFCBIOH@RMSG_CHARTMAIN@ DB 'RMSG_CHARTMAIN', 00H ; `string'
CONST	ENDS
;	COMDAT ??_C@_0BB@CNOFPEHG@RMSG_SETQUERYOPT@
CONST	SEGMENT
??_C@_0BB@CNOFPEHG@RMSG_SETQUERYOPT@ DB 'RMSG_SETQUERYOPT', 00H ; `string'
CONST	ENDS
;	COMDAT ??_C@_0BE@FJPKENOB@RMSG_GETSIGNAL_REAL@
CONST	SEGMENT
??_C@_0BE@FJPKENOB@RMSG_GETSIGNAL_REAL@ DB 'RMSG_GETSIGNAL_REAL', 00H ; `string'
CONST	ENDS
;	COMDAT ??_C@_0BA@JHANHJCN@RMSG_INTREQUEST@
CONST	SEGMENT
??_C@_0BA@JHANHJCN@RMSG_INTREQUEST@ DB 'RMSG_INTREQUEST', 00H ; `string'
CONST	ENDS
;	COMDAT ??_C@_0BB@EPGJDGDK@RMSG_CONCERNHWND@
CONST	SEGMENT
??_C@_0BB@EPGJDGDK@RMSG_CONCERNHWND@ DB 'RMSG_CONCERNHWND', 00H ; `string'
CONST	ENDS
;	COMDAT ??_C@_0P@BKKCOCLK@RMSG_INTERFACE@
CONST	SEGMENT
??_C@_0P@BKKCOCLK@RMSG_INTERFACE@ DB 'RMSG_INTERFACE', 00H ; `string'
CONST	ENDS
;	COMDAT ??_C@_0BD@BFILGGNC@RMSG_TABCODESEARCH@
CONST	SEGMENT
??_C@_0BD@BFILGGNC@RMSG_TABCODESEARCH@ DB 'RMSG_TABCODESEARCH', 00H ; `string'
CONST	ENDS
;	COMDAT ??_C@_0M@NFOGHAF@RMSG_WMSIZE@
CONST	SEGMENT
??_C@_0M@NFOGHAF@RMSG_WMSIZE@ DB 'RMSG_WMSIZE', 00H	; `string'
CONST	ENDS
;	COMDAT ??_C@_0BC@NOGENPAJ@RMSG_GETINTERFACE@
CONST	SEGMENT
??_C@_0BC@NOGENPAJ@RMSG_GETINTERFACE@ DB 'RMSG_GETINTERFACE', 00H ; `string'
CONST	ENDS
;	COMDAT ??_C@_0BD@OKKAEAJC@RMSG_RESETCONCDATA@
CONST	SEGMENT
??_C@_0BD@OKKAEAJC@RMSG_RESETCONCDATA@ DB 'RMSG_RESETCONCDATA', 00H ; `string'
CONST	ENDS
;	COMDAT ??_C@_0BE@PFEEJKPO@RMSG_ADDACCOUNTCONC@
CONST	SEGMENT
??_C@_0BE@PFEEJKPO@RMSG_ADDACCOUNTCONC@ DB 'RMSG_ADDACCOUNTCONC', 00H ; `string'
CONST	ENDS
;	COMDAT ??_C@_0BF@CHNDMHCB@RMSG_GETCURCHARTINFO@
CONST	SEGMENT
??_C@_0BF@CHNDMHCB@RMSG_GETCURCHARTINFO@ DB 'RMSG_GETCURCHARTINFO', 00H ; `string'
CONST	ENDS
;	COMDAT ??_C@_0BD@IBMNKIJA@RMSG_CHECKAVGPRICE@
CONST	SEGMENT
??_C@_0BD@IBMNKIJA@RMSG_CHECKAVGPRICE@ DB 'RMSG_CHECKAVGPRICE', 00H ; `string'
CONST	ENDS
;	COMDAT ??_C@_0BE@KOIJLIKO@RMSG_ADDACCOUNTCODE@
CONST	SEGMENT
??_C@_0BE@KOIJLIKO@RMSG_ADDACCOUNTCODE@ DB 'RMSG_ADDACCOUNTCODE', 00H ; `string'
CONST	ENDS
;	COMDAT ??_C@_0BG@GIAJEIJF@RMSG_REPLAY_TOTAL_SEC@
CONST	SEGMENT
??_C@_0BG@GIAJEIJF@RMSG_REPLAY_TOTAL_SEC@ DB 'RMSG_REPLAY_TOTAL_SEC', 00H ; `string'
CONST	ENDS
;	COMDAT ??_C@_0BE@JFCIMCIP@RMSG_REPLAY_INC_SEC@
CONST	SEGMENT
??_C@_0BE@JFCIMCIP@RMSG_REPLAY_INC_SEC@ DB 'RMSG_REPLAY_INC_SEC', 00H ; `string'
CONST	ENDS
;	COMDAT ??_C@_0BA@NKHHCPON@RMSG_REPLAY_END@
CONST	SEGMENT
??_C@_0BA@NKHHCPON@RMSG_REPLAY_END@ DB 'RMSG_REPLAY_END', 00H ; `string'
CONST	ENDS
;	COMDAT ??_C@_0BI@KDGAIIMD@RMSG_REPLAY_CHANGE_DATE@
CONST	SEGMENT
??_C@_0BI@KDGAIIMD@RMSG_REPLAY_CHANGE_DATE@ DB 'RMSG_REPLAY_CHANGE_DATE', 00H ; `string'
CONST	ENDS
;	COMDAT ??_C@_0BB@JFLGBADG@RMSG_REPLAY_FAIL@
CONST	SEGMENT
??_C@_0BB@JFLGBADG@RMSG_REPLAY_FAIL@ DB 'RMSG_REPLAY_FAIL', 00H ; `string'
CONST	ENDS
;	COMDAT ??_C@_0BB@IBKHOHJL@RMSG_REPLAY_REAL@
CONST	SEGMENT
??_C@_0BB@IBKHOHJL@RMSG_REPLAY_REAL@ DB 'RMSG_REPLAY_REAL', 00H ; `string'
CONST	ENDS
;	COMDAT ??_C@_0N@HCNBEPNP@RMSG_DRAGEND@
CONST	SEGMENT
??_C@_0N@HCNBEPNP@RMSG_DRAGEND@ DB 'RMSG_DRAGEND', 00H	; `string'
CONST	ENDS
;	COMDAT ??_C@_0P@JJCNALBJ@RMSG_DRAGSTART@
CONST	SEGMENT
??_C@_0P@JJCNALBJ@RMSG_DRAGSTART@ DB 'RMSG_DRAGSTART', 00H ; `string'
CONST	ENDS
PUBLIC	?__empty_global_delete@@YAXPAX@Z		; __empty_global_delete
PUBLIC	?__empty_global_delete@@YAXPAXI@Z		; __empty_global_delete
PUBLIC	___local_stdio_scanf_options
PUBLIC	_sscanf
PUBLIC	??1CObject@@UAE@XZ				; CObject::~CObject
PUBLIC	??3CObject@@SGXPAX@Z				; CObject::operator delete
PUBLIC	?Serialize@CObject@@UAEXAAVCArchive@@@Z		; CObject::Serialize
PUBLIC	?AssertValid@CObject@@UBEXXZ			; CObject::AssertValid
PUBLIC	?Dump@CObject@@UBEXAAVCDumpContext@@@Z		; CObject::Dump
PUBLIC	?_AtlRaiseException@ATL@@YAXKK@Z		; ATL::_AtlRaiseException
PUBLIC	?_AtlInitializeCriticalSectionEx@ATL@@YAHPAU_RTL_CRITICAL_SECTION@@KK@Z ; ATL::_AtlInitializeCriticalSectionEx
PUBLIC	?_AfxInitManaged@@YAHXZ				; _AfxInitManaged
PUBLIC	??1CGdiObject@@UAE@XZ				; CGdiObject::~CGdiObject
PUBLIC	??_GCGdiObject@@UAEPAXI@Z			; CGdiObject::`scalar deleting destructor'
PUBLIC	??1CBitmap@@UAE@XZ				; CBitmap::~CBitmap
PUBLIC	??_GCBitmap@@UAEPAXI@Z				; CBitmap::`scalar deleting destructor'
PUBLIC	?DoDataExchange@CWnd@@MAEXPAVCDataExchange@@@Z	; CWnd::DoDataExchange
PUBLIC	?BeginModalState@CWnd@@UAEXXZ			; CWnd::BeginModalState
PUBLIC	?EndModalState@CWnd@@UAEXXZ			; CWnd::EndModalState
PUBLIC	??_GCButton@@UAEPAXI@Z				; CButton::`scalar deleting destructor'
PUBLIC	?ReceiveData@CTabDlg@@UAEXPAUHWND__@@PBD11PAXJ@Z ; CTabDlg::ReceiveData
PUBLIC	??1CInputCodeList@@QAE@XZ			; CInputCodeList::~CInputCodeList
PUBLIC	??1CInputCodeListEx@@QAE@XZ			; CInputCodeListEx::~CInputCodeListEx
PUBLIC	?Convert@CCodeTypeBase@@UAEXPAD@Z		; CCodeTypeBase::Convert
PUBLIC	?Convert2@CCodeTypeBase@@UAEXPAD@Z		; CCodeTypeBase::Convert2
PUBLIC	?ConvertOneClickData@CCodeTypeBase@@UAEXPAD@Z	; CCodeTypeBase::ConvertOneClickData
PUBLIC	??1CCodeTypeBase@@QAE@XZ			; CCodeTypeBase::~CCodeTypeBase
PUBLIC	??0CCodeTypeA@@QAE@XZ				; CCodeTypeA::CCodeTypeA
PUBLIC	?Convert@CCodeTypeA@@UAEXPAD@Z			; CCodeTypeA::Convert
PUBLIC	?Convert2@CCodeTypeA@@UAEXPAD@Z			; CCodeTypeA::Convert2
PUBLIC	?ConvertOneClickData@CCodeTypeA@@UAEXPAD@Z	; CCodeTypeA::ConvertOneClickData
PUBLIC	??1CCodeTypeA@@QAE@XZ				; CCodeTypeA::~CCodeTypeA
PUBLIC	?Convert@CCodeTypeB@@UAEXPAD@Z			; CCodeTypeB::Convert
PUBLIC	?Convert2@CCodeTypeB@@UAEXPAD@Z			; CCodeTypeB::Convert2
PUBLIC	?ConvertOneClickData@CCodeTypeB@@UAEXPAD@Z	; CCodeTypeB::ConvertOneClickData
PUBLIC	??1CCodeTypeB@@QAE@XZ				; CCodeTypeB::~CCodeTypeB
PUBLIC	??0CCodeTypeB@@QAE@ABV0@@Z			; CCodeTypeB::CCodeTypeB
PUBLIC	??1_GV_ITEM@@QAE@XZ				; _GV_ITEM::~_GV_ITEM
PUBLIC	??1STINPUTCODEDATA@@QAE@XZ			; STINPUTCODEDATA::~STINPUTCODEDATA
PUBLIC	??1stSend2Server@@QAE@XZ			; stSend2Server::~stSend2Server
PUBLIC	??0?$CList@PAVCCallPutItemData@@PAV1@@@QAE@H@Z	; CList<CCallPutItemData *,CCallPutItemData *>::CList<CCallPutItemData *,CCallPutItemData *>
PUBLIC	?AddTail@?$CList@PAVCCallPutItemData@@PAV1@@@QAEPAU__POSITION@@PAVCCallPutItemData@@@Z ; CList<CCallPutItemData *,CCallPutItemData *>::AddTail
PUBLIC	?RemoveAll@?$CList@PAVCCallPutItemData@@PAV1@@@QAEXXZ ; CList<CCallPutItemData *,CCallPutItemData *>::RemoveAll
PUBLIC	?NewNode@?$CList@PAVCCallPutItemData@@PAV1@@@IAEPAUCNode@1@PAU21@0@Z ; CList<CCallPutItemData *,CCallPutItemData *>::NewNode
PUBLIC	??1?$CList@PAVCCallPutItemData@@PAV1@@@UAE@XZ	; CList<CCallPutItemData *,CCallPutItemData *>::~CList<CCallPutItemData *,CCallPutItemData *>
PUBLIC	?Serialize@?$CList@PAVCCallPutItemData@@PAV1@@@UAEXAAVCArchive@@@Z ; CList<CCallPutItemData *,CCallPutItemData *>::Serialize
PUBLIC	??_G?$CList@PAVCCallPutItemData@@PAV1@@@UAEPAXI@Z ; CList<CCallPutItemData *,CCallPutItemData *>::`scalar deleting destructor'
PUBLIC	?fnDataToList@CCallPutIMonthData@@QAEHPAUST_OPTION_ITEM_DATA@@@Z ; CCallPutIMonthData::fnDataToList
PUBLIC	??0?$CList@PAVCCallPutIMonthData@@PAV1@@@QAE@H@Z ; CList<CCallPutIMonthData *,CCallPutIMonthData *>::CList<CCallPutIMonthData *,CCallPutIMonthData *>
PUBLIC	?AddTail@?$CList@PAVCCallPutIMonthData@@PAV1@@@QAEPAU__POSITION@@PAVCCallPutIMonthData@@@Z ; CList<CCallPutIMonthData *,CCallPutIMonthData *>::AddTail
PUBLIC	?RemoveAll@?$CList@PAVCCallPutIMonthData@@PAV1@@@QAEXXZ ; CList<CCallPutIMonthData *,CCallPutIMonthData *>::RemoveAll
PUBLIC	?NewNode@?$CList@PAVCCallPutIMonthData@@PAV1@@@IAEPAUCNode@1@PAU21@0@Z ; CList<CCallPutIMonthData *,CCallPutIMonthData *>::NewNode
PUBLIC	??1?$CList@PAVCCallPutIMonthData@@PAV1@@@UAE@XZ	; CList<CCallPutIMonthData *,CCallPutIMonthData *>::~CList<CCallPutIMonthData *,CCallPutIMonthData *>
PUBLIC	?Serialize@?$CList@PAVCCallPutIMonthData@@PAV1@@@UAEXAAVCArchive@@@Z ; CList<CCallPutIMonthData *,CCallPutIMonthData *>::Serialize
PUBLIC	??_G?$CList@PAVCCallPutIMonthData@@PAV1@@@UAEPAXI@Z ; CList<CCallPutIMonthData *,CCallPutIMonthData *>::`scalar deleting destructor'
PUBLIC	?Parsing@CCallPutIHelper@@QAEXPAV?$CList@VCCodeTypeA@@V1@@@H@Z ; CCallPutIHelper::Parsing
PUBLIC	?ClearList@CCallPutIHelper@@QAEXXZ		; CCallPutIHelper::ClearList
PUBLIC	??1CCallPutIHelper@@QAE@XZ			; CCallPutIHelper::~CCallPutIHelper
PUBLIC	?RemoveAll@?$CList@VCCodeTypeA@@V1@@@QAEXXZ	; CList<CCodeTypeA,CCodeTypeA>::RemoveAll
PUBLIC	?RemoveAt@?$CList@VCCodeTypeA@@V1@@@QAEXPAU__POSITION@@@Z ; CList<CCodeTypeA,CCodeTypeA>::RemoveAt
PUBLIC	?FreeNode@?$CList@VCCodeTypeA@@V1@@@IAEXPAUCNode@1@@Z ; CList<CCodeTypeA,CCodeTypeA>::FreeNode
PUBLIC	??1ST_GwanSimGroup@@QAE@XZ			; ST_GwanSimGroup::~ST_GwanSimGroup
PUBLIC	??0CTabCodeSearch@@QAE@PAVCWnd@@@Z		; CTabCodeSearch::CTabCodeSearch
PUBLIC	?SetRealPriceData@CTabCodeSearch@@UAEXPAX@Z	; CTabCodeSearch::SetRealPriceData
PUBLIC	?InitGrid@CTabCodeSearch@@QAEXXZ		; CTabCodeSearch::InitGrid
PUBLIC	?InitGridRowCol@CTabCodeSearch@@QAEXH@Z		; CTabCodeSearch::InitGridRowCol
PUBLIC	?ChangeGridRowCol@CTabCodeSearch@@QAEXXZ	; CTabCodeSearch::ChangeGridRowCol
PUBLIC	?InsertGridData@CTabCodeSearch@@QAEXXZ		; CTabCodeSearch::InsertGridData
PUBLIC	?SetMasterData@CTabCodeSearch@@QAEXPAV?$CList@VCCodeTypeA@@V1@@@@Z ; CTabCodeSearch::SetMasterData
PUBLIC	?GetInsertGridDataText@CTabCodeSearch@@QAE?AV?$CStringT@DV?$StrTraitMFC_DLL@DV?$ChTraitsCRT@D@ATL@@@@@ATL@@HH@Z ; CTabCodeSearch::GetInsertGridDataText
PUBLIC	?InitMasterData@CTabCodeSearch@@QAEXXZ		; CTabCodeSearch::InitMasterData
PUBLIC	?GetRealExercise@CTabCodeSearch@@QAEJH@Z	; CTabCodeSearch::GetRealExercise
PUBLIC	?GetCodeInfo@CTabCodeSearch@@QAEHHAAH0AAV?$CStringT@DV?$StrTraitMFC_DLL@DV?$ChTraitsCRT@D@ATL@@@@@ATL@@@Z ; CTabCodeSearch::GetCodeInfo
PUBLIC	?ChangeListOrGridCtrl@CTabCodeSearch@@QAEXV?$CStringT@DV?$StrTraitMFC_DLL@DV?$ChTraitsCRT@D@ATL@@@@@ATL@@@Z ; CTabCodeSearch::ChangeListOrGridCtrl
PUBLIC	?PreTranslateMessage@CTabCodeSearch@@UAEHPAUtagMSG@@@Z ; CTabCodeSearch::PreTranslateMessage
PUBLIC	?DoDataExchange@CTabCodeSearch@@MAEXPAVCDataExchange@@@Z ; CTabCodeSearch::DoDataExchange
PUBLIC	?WindowProc@CTabCodeSearch@@MAEJIIJ@Z		; CTabCodeSearch::WindowProc
PUBLIC	?ChangeSkinColor@CTabCodeSearch@@MAEXK@Z	; CTabCodeSearch::ChangeSkinColor
PUBLIC	?ReceiveDataFromOutSide@CTabCodeSearch@@UAEXXZ	; CTabCodeSearch::ReceiveDataFromOutSide
PUBLIC	?RequestMstCode@CTabCodeSearch@@QAEXPBDJ@Z	; CTabCodeSearch::RequestMstCode
PUBLIC	?GetRectOfCtrl@CTabCodeSearch@@EAE?AVCRect@@HH@Z ; CTabCodeSearch::GetRectOfCtrl
PUBLIC	?RecalcLayout@CTabCodeSearch@@AAEXXZ		; CTabCodeSearch::RecalcLayout
PUBLIC	?OnWmSplitterMoved@CTabCodeSearch@@AAEJIJ@Z	; CTabCodeSearch::OnWmSplitterMoved
PUBLIC	?InitTreeSearch@CTabCodeSearch@@AAEXXZ		; CTabCodeSearch::InitTreeSearch
PUBLIC	?UpdateTreeSearch@CTabCodeSearch@@AAEXXZ	; CTabCodeSearch::UpdateTreeSearch
PUBLIC	?ClearAllTreeSearch@CTabCodeSearch@@AAEXXZ	; CTabCodeSearch::ClearAllTreeSearch
PUBLIC	?DeleteChildItem@CTabCodeSearch@@AAEXPAU_TREEITEM@@@Z ; CTabCodeSearch::DeleteChildItem
PUBLIC	?GetCodeData20001@CTabCodeSearch@@AAEXPAV?$CStringT@DV?$StrTraitMFC_DLL@DV?$ChTraitsCRT@D@ATL@@@@@ATL@@@Z ; CTabCodeSearch::GetCodeData20001
PUBLIC	?GetCodeData20011@CTabCodeSearch@@AAEXPAV?$CStringT@DV?$StrTraitMFC_DLL@DV?$ChTraitsCRT@D@ATL@@@@@ATL@@@Z ; CTabCodeSearch::GetCodeData20011
PUBLIC	?GetCodeData00410@CTabCodeSearch@@AAEXPAV?$CStringT@DV?$StrTraitMFC_DLL@DV?$ChTraitsCRT@D@ATL@@@@@ATL@@@Z ; CTabCodeSearch::GetCodeData00410
PUBLIC	?ReceiveData@CTabCodeSearch@@AAEXPBDPAXK@Z	; CTabCodeSearch::ReceiveData
PUBLIC	?SetConfig@CTabCodeSearch@@AAEXH@Z		; CTabCodeSearch::SetConfig
PUBLIC	?SetTimerInfo@CTabCodeSearch@@AAEXH@Z		; CTabCodeSearch::SetTimerInfo
PUBLIC	?RequestCurrentPrice@CTabCodeSearch@@AAEXPBDJ@Z	; CTabCodeSearch::RequestCurrentPrice
PUBLIC	?UpdateItemSise@CTabCodeSearch@@AAEXD@Z		; CTabCodeSearch::UpdateItemSise
PUBLIC	?RequestJongmokCodesInList@CTabCodeSearch@@AAEXPAU_TREEITEM@@@Z ; CTabCodeSearch::RequestJongmokCodesInList
PUBLIC	?DeleteFavoriteChild@CTabCodeSearch@@AAEXXZ	; CTabCodeSearch::DeleteFavoriteChild
PUBLIC	?IntRequest@CTabCodeSearch@@AAEXXZ		; CTabCodeSearch::IntRequest
PUBLIC	?AdviseMain@CTabCodeSearch@@AAEXH@Z		; CTabCodeSearch::AdviseMain
PUBLIC	?SetAccountInfo@CTabCodeSearch@@AAEXPBD@Z	; CTabCodeSearch::SetAccountInfo
PUBLIC	?RequestSavedQuery@CTabCodeSearch@@AAEXXZ	; CTabCodeSearch::RequestSavedQuery
PUBLIC	?Init_Button@CTabCodeSearch@@QAEXXZ		; CTabCodeSearch::Init_Button
PUBLIC	?ReceiveData@CTLMCallback@CTabCodeSearch@@UAGXHDJHPAX@Z ; CTabCodeSearch::CTLMCallback::ReceiveData
PUBLIC	?ReceiveRealData@CTLMCallback@CTabCodeSearch@@UAGJGPBDPAX@Z ; CTabCodeSearch::CTLMCallback::ReceiveRealData
PUBLIC	?_DoFilterStockCode@CTLMCallback@CTabCodeSearch@@QAEHPAV?$CList@VCCodeTypeA@@V1@@@@Z ; CTabCodeSearch::CTLMCallback::_DoFilterStockCode
PUBLIC	?MakeDrdsConnectAdvise@CTabCodeSearch@@QAEHV?$CStringT@DV?$StrTraitMFC_DLL@DV?$ChTraitsCRT@D@ATL@@@@@ATL@@@Z ; CTabCodeSearch::MakeDrdsConnectAdvise
PUBLIC	?MakeDrdsUnConnectUnAdvise@CTabCodeSearch@@QAEHV?$CStringT@DV?$StrTraitMFC_DLL@DV?$ChTraitsCRT@D@ATL@@@@@ATL@@@Z ; CTabCodeSearch::MakeDrdsUnConnectUnAdvise
PUBLIC	?RemoveAllTree@CTabCodeSearch@@QAEXXZ		; CTabCodeSearch::RemoveAllTree
PUBLIC	?CreateTreeCtrl@CTabCodeSearch@@QAEPAVCTrTreeCtrl@@V?$CStringT@DV?$StrTraitMFC_DLL@DV?$ChTraitsCRT@D@ATL@@@@@ATL@@I@Z ; CTabCodeSearch::CreateTreeCtrl
PUBLIC	?ChangeTreeFolder@CTabCodeSearch@@QAEJV?$CStringT@DV?$StrTraitMFC_DLL@DV?$ChTraitsCRT@D@ATL@@@@@ATL@@PAVCTrTreeCtrl@@JH@Z ; CTabCodeSearch::ChangeTreeFolder
PUBLIC	?fnFolderChange@CTabCodeSearch@@QAEXHH@Z	; CTabCodeSearch::fnFolderChange
PUBLIC	?ApplySelectedCodes@CTabCodeSearch@@QAEXXZ	; CTabCodeSearch::ApplySelectedCodes
PUBLIC	?IsPlayState@CTabCodeSearch@@QAEHXZ		; CTabCodeSearch::IsPlayState
PUBLIC	?RunAutoTimer@CTabCodeSearch@@QAEXXZ		; CTabCodeSearch::RunAutoTimer
PUBLIC	?ShowAccountOperator@CTabCodeSearch@@QAEXH@Z	; CTabCodeSearch::ShowAccountOperator
PUBLIC	?ReceiveData@CMyITrCommSite@CTabCodeSearch@@UAGJJPBD00PAXJ@Z ; CTabCodeSearch::CMyITrCommSite::ReceiveData
PUBLIC	?ReceiveRealData@CMyITrCommSite@CTabCodeSearch@@UAGJGPBDPAX@Z ; CTabCodeSearch::CMyITrCommSite::ReceiveRealData
PUBLIC	?StatusChange@CMyITrCommSite@CTabCodeSearch@@UAGJH@Z ; CTabCodeSearch::CMyITrCommSite::StatusChange
PUBLIC	?ReceiveMessage@CMyITrCommSite@CTabCodeSearch@@UAGJJPBD00@Z ; CTabCodeSearch::CMyITrCommSite::ReceiveMessage
PUBLIC	?SetSelFolder@CTabCodeSearch@@QAEHPBD@Z		; CTabCodeSearch::SetSelFolder
PUBLIC	?OnInitDialog@CTabCodeSearch@@UAEHXZ		; CTabCodeSearch::OnInitDialog
PUBLIC	?OnSize@CTabCodeSearch@@QAEXIHH@Z		; CTabCodeSearch::OnSize
PUBLIC	?OnDestroy@CTabCodeSearch@@QAEXXZ		; CTabCodeSearch::OnDestroy
PUBLIC	?OnSelchangedTreesearch@CTabCodeSearch@@QAEXPAUtagNMHDR@@PAJ@Z ; CTabCodeSearch::OnSelchangedTreesearch
PUBLIC	?OnDblclkListcode@CTabCodeSearch@@QAEXPAUtagNMHDR@@PAJ@Z ; CTabCodeSearch::OnDblclkListcode
PUBLIC	?OnBtportfolio@CTabCodeSearch@@QAEXXZ		; CTabCodeSearch::OnBtportfolio
PUBLIC	?OnBtregfavor@CTabCodeSearch@@QAEXXZ		; CTabCodeSearch::OnBtregfavor
PUBLIC	?OnBtsearch@CTabCodeSearch@@QAEXXZ		; CTabCodeSearch::OnBtsearch
PUBLIC	?OnLButtonUp@CTabCodeSearch@@QAEXIVCPoint@@@Z	; CTabCodeSearch::OnLButtonUp
PUBLIC	?OnRButtonUp@CTabCodeSearch@@QAEXIVCPoint@@@Z	; CTabCodeSearch::OnRButtonUp
PUBLIC	?OnMouseMove@CTabCodeSearch@@QAEXIVCPoint@@@Z	; CTabCodeSearch::OnMouseMove
PUBLIC	?OnBegindragListcode@CTabCodeSearch@@QAEXPAUtagNMHDR@@PAJ@Z ; CTabCodeSearch::OnBegindragListcode
PUBLIC	?OnBeginRdragListcode@CTabCodeSearch@@QAEXPAUtagNMHDR@@PAJ@Z ; CTabCodeSearch::OnBeginRdragListcode
PUBLIC	?OnClickListcode@CTabCodeSearch@@QAEXPAUtagNMHDR@@PAJ@Z ; CTabCodeSearch::OnClickListcode
PUBLIC	?OnBtall@CTabCodeSearch@@QAEXXZ			; CTabCodeSearch::OnBtall
PUBLIC	?OnRclickListcode@CTabCodeSearch@@QAEXPAUtagNMHDR@@PAJ@Z ; CTabCodeSearch::OnRclickListcode
PUBLIC	?OnTimer@CTabCodeSearch@@QAEXI@Z		; CTabCodeSearch::OnTimer
PUBLIC	?OnCtlColor@CTabCodeSearch@@QAEPAUHBRUSH__@@PAVCDC@@PAVCWnd@@I@Z ; CTabCodeSearch::OnCtlColor
PUBLIC	?OnBtnext@CTabCodeSearch@@QAEXXZ		; CTabCodeSearch::OnBtnext
PUBLIC	?OnBtprev@CTabCodeSearch@@QAEXXZ		; CTabCodeSearch::OnBtprev
PUBLIC	?OnBtresetocx@CTabCodeSearch@@QAEXXZ		; CTabCodeSearch::OnBtresetocx
PUBLIC	?OnBtnAddapply@CTabCodeSearch@@QAEXXZ		; CTabCodeSearch::OnBtnAddapply
PUBLIC	?OnChkAvgprice@CTabCodeSearch@@QAEXXZ		; CTabCodeSearch::OnChkAvgprice
PUBLIC	?OnChkConcprice@CTabCodeSearch@@QAEXXZ		; CTabCodeSearch::OnChkConcprice
PUBLIC	?OnItemchangedListcode@CTabCodeSearch@@QAEXPAUtagNMHDR@@PAJ@Z ; CTabCodeSearch::OnItemchangedListcode
PUBLIC	?OnItemchangingListcode@CTabCodeSearch@@QAEXPAUtagNMHDR@@PAJ@Z ; CTabCodeSearch::OnItemchangingListcode
PUBLIC	?OnIntRequest@CTabCodeSearch@@QAEJIJ@Z		; CTabCodeSearch::OnIntRequest
PUBLIC	?OnResetAll@CTabCodeSearch@@QAEJIJ@Z		; CTabCodeSearch::OnResetAll
PUBLIC	?OnAddAccountCodeItem@CTabCodeSearch@@QAEJIJ@Z	; CTabCodeSearch::OnAddAccountCodeItem
PUBLIC	?OnCheckAvgPrice@CTabCodeSearch@@QAEJIJ@Z	; CTabCodeSearch::OnCheckAvgPrice
PUBLIC	?OnMakeAccountConcData@CTabCodeSearch@@QAEJIJ@Z	; CTabCodeSearch::OnMakeAccountConcData
PUBLIC	?OnResetConcData@CTabCodeSearch@@QAEJIJ@Z	; CTabCodeSearch::OnResetConcData
PUBLIC	?GetThisMessageMap@CTabCodeSearch@@KGPBUAFX_MSGMAP@@XZ ; CTabCodeSearch::GetThisMessageMap
PUBLIC	?GetMessageMap@CTabCodeSearch@@MBEPBUAFX_MSGMAP@@XZ ; CTabCodeSearch::GetMessageMap
PUBLIC	?OnBnClickedBtplay@CTabCodeSearch@@IAEXXZ	; CTabCodeSearch::OnBnClickedBtplay
PUBLIC	?OnLvnItemchangedListcode@CTabCodeSearch@@IAEXPAUtagNMHDR@@PAJ@Z ; CTabCodeSearch::OnLvnItemchangedListcode
PUBLIC	?OnOutBarNotify@CTabCodeSearch@@IAEJIJ@Z	; CTabCodeSearch::OnOutBarNotify
PUBLIC	?OnRmsgTabCodeSearch@CTabCodeSearch@@IAEJIJ@Z	; CTabCodeSearch::OnRmsgTabCodeSearch
PUBLIC	?OnRmsgWMSize@CTabCodeSearch@@IAEJIJ@Z		; CTabCodeSearch::OnRmsgWMSize
PUBLIC	??0?$CList@PAVCItemLongData@@PAV1@@@QAE@H@Z	; CList<CItemLongData *,CItemLongData *>::CList<CItemLongData *,CItemLongData *>
PUBLIC	?AddTail@?$CList@PAVCItemLongData@@PAV1@@@QAEPAU__POSITION@@PAVCItemLongData@@@Z ; CList<CItemLongData *,CItemLongData *>::AddTail
PUBLIC	?RemoveAll@?$CList@PAVCItemLongData@@PAV1@@@QAEXXZ ; CList<CItemLongData *,CItemLongData *>::RemoveAll
PUBLIC	?NewNode@?$CList@PAVCItemLongData@@PAV1@@@IAEPAUCNode@1@PAU21@0@Z ; CList<CItemLongData *,CItemLongData *>::NewNode
PUBLIC	??1?$CList@PAVCItemLongData@@PAV1@@@UAE@XZ	; CList<CItemLongData *,CItemLongData *>::~CList<CItemLongData *,CItemLongData *>
PUBLIC	?Serialize@?$CList@PAVCItemLongData@@PAV1@@@UAEXAAVCArchive@@@Z ; CList<CItemLongData *,CItemLongData *>::Serialize
PUBLIC	??_G?$CList@PAVCItemLongData@@PAV1@@@UAEPAXI@Z	; CList<CItemLongData *,CItemLongData *>::`scalar deleting destructor'
PUBLIC	??_GCTabCodeSearch@@UAEPAXI@Z			; CTabCodeSearch::`scalar deleting destructor'
PUBLIC	??1stringdispid@CComTypeInfoHolder@ATL@@QAE@XZ	; ATL::CComTypeInfoHolder::stringdispid::~stringdispid
PUBLIC	??_Estringdispid@CComTypeInfoHolder@ATL@@QAEPAXI@Z ; ATL::CComTypeInfoHolder::stringdispid::`vector deleting destructor'
PUBLIC	?THREAD_PROCEEDSELECTTREE@@YAIPAX@Z		; THREAD_PROCEEDSELECTTREE
PUBLIC	??$SerializeElements@PAVCItemLongData@@@@YGXAAVCArchive@@PAPAVCItemLongData@@H@Z ; SerializeElements<CItemLongData *>
PUBLIC	??$SerializeElements@PAVCCallPutItemData@@@@YGXAAVCArchive@@PAPAVCCallPutItemData@@H@Z ; SerializeElements<CCallPutItemData *>
PUBLIC	??$SerializeElements@PAVCCallPutIMonthData@@@@YGXAAVCArchive@@PAPAVCCallPutIMonthData@@H@Z ; SerializeElements<CCallPutIMonthData *>
PUBLIC	?_OptionsStorage@?1??__local_stdio_scanf_options@@9@4_KA ; `__local_stdio_scanf_options'::`2'::_OptionsStorage
PUBLIC	??_R0PAVCException@@@8				; CException * `RTTI Type Descriptor'
PUBLIC	??_C@_02DPKJAMEF@?$CFd@				; `string'
PUBLIC	?_AtlWinModule@ATL@@3VCAtlWinModule@1@A		; ATL::_AtlWinModule
PUBLIC	??_C@_00CNPNBAHC@@				; `string'
PUBLIC	??_7CGdiObject@@6B@				; CGdiObject::`vftable'
PUBLIC	??_7CBitmap@@6B@				; CBitmap::`vftable'
PUBLIC	??_7CButton@@6B@				; CButton::`vftable'
PUBLIC	??_C@_0HD@JJCHHHNK@C?3?2Program?5Files?5?$CIx86?$CJ?2Microsof@ ; `string'
PUBLIC	??_C@_0BP@OIEOKIDM@Exception?5thrown?5in?5destructor@ ; `string'
PUBLIC	??_C@_0BB@HBOOMJBF@?$CFTs?5?$CI?$CFTs?3?$CFd?$CJ?6?$CFTs@ ; `string'
PUBLIC	??_C@_0N@OMEMOKLE@?$CFTs?5?$CI?$CFTs?3?$CFd?$CJ@ ; `string'
PUBLIC	??_C@_02DKCKIIND@?$CFs@				; `string'
PUBLIC	??_C@_0M@CBBNGGHM@PcTrMng?4dll@			; `string'
PUBLIC	??_C@_0P@IDMAJEGN@HANAROPCTRMAIN@		; `string'
PUBLIC	??_C@_06NDLAHCHE@?$CFs?$CF08X@			; `string'
PUBLIC	??_C@_02EMFKHFLK@?$CFX@				; `string'
PUBLIC	??_C@_01GBGANLPD@0@				; `string'
PUBLIC	??_R0?AVCObject@@@8				; CObject `RTTI Type Descriptor'
PUBLIC	??_R3CObject@@8					; CObject::`RTTI Class Hierarchy Descriptor'
PUBLIC	??_R2CObject@@8					; CObject::`RTTI Base Class Array'
PUBLIC	??_R1A@?0A@EA@CObject@@8			; CObject::`RTTI Base Class Descriptor at (0,-1,0,64)'
PUBLIC	??_R4CGdiObject@@6B@				; CGdiObject::`RTTI Complete Object Locator'
PUBLIC	??_R0?AVCGdiObject@@@8				; CGdiObject `RTTI Type Descriptor'
PUBLIC	??_R3CGdiObject@@8				; CGdiObject::`RTTI Class Hierarchy Descriptor'
PUBLIC	??_R2CGdiObject@@8				; CGdiObject::`RTTI Base Class Array'
PUBLIC	??_R1A@?0A@EA@CGdiObject@@8			; CGdiObject::`RTTI Base Class Descriptor at (0,-1,0,64)'
PUBLIC	??_R4CBitmap@@6B@				; CBitmap::`RTTI Complete Object Locator'
PUBLIC	??_R0?AVCBitmap@@@8				; CBitmap `RTTI Type Descriptor'
PUBLIC	??_R3CBitmap@@8					; CBitmap::`RTTI Class Hierarchy Descriptor'
PUBLIC	??_R2CBitmap@@8					; CBitmap::`RTTI Base Class Array'
PUBLIC	??_R1A@?0A@EA@CBitmap@@8			; CBitmap::`RTTI Base Class Descriptor at (0,-1,0,64)'
PUBLIC	??_R1A@?0A@EA@CWnd@@8				; CWnd::`RTTI Base Class Descriptor at (0,-1,0,64)'
PUBLIC	??_R0?AVCWnd@@@8				; CWnd `RTTI Type Descriptor'
PUBLIC	??_R3CWnd@@8					; CWnd::`RTTI Class Hierarchy Descriptor'
PUBLIC	??_R2CWnd@@8					; CWnd::`RTTI Base Class Array'
PUBLIC	??_R1A@?0A@EA@CCmdTarget@@8			; CCmdTarget::`RTTI Base Class Descriptor at (0,-1,0,64)'
PUBLIC	??_R0?AVCCmdTarget@@@8				; CCmdTarget `RTTI Type Descriptor'
PUBLIC	??_R3CCmdTarget@@8				; CCmdTarget::`RTTI Class Hierarchy Descriptor'
PUBLIC	??_R2CCmdTarget@@8				; CCmdTarget::`RTTI Base Class Array'
PUBLIC	??_R4CButton@@6B@				; CButton::`RTTI Complete Object Locator'
PUBLIC	??_R0?AVCButton@@@8				; CButton `RTTI Type Descriptor'
PUBLIC	??_R3CButton@@8					; CButton::`RTTI Class Hierarchy Descriptor'
PUBLIC	??_R2CButton@@8					; CButton::`RTTI Base Class Array'
PUBLIC	??_R1A@?0A@EA@CButton@@8			; CButton::`RTTI Base Class Descriptor at (0,-1,0,64)'
PUBLIC	??_R1A@?0A@EA@CDialog@@8			; CDialog::`RTTI Base Class Descriptor at (0,-1,0,64)'
PUBLIC	??_R0?AVCDialog@@@8				; CDialog `RTTI Type Descriptor'
PUBLIC	??_R3CDialog@@8					; CDialog::`RTTI Class Hierarchy Descriptor'
PUBLIC	??_R2CDialog@@8					; CDialog::`RTTI Base Class Array'
PUBLIC	??_C@_08KDNPGENH@TREELIST@			; `string'
PUBLIC	??_7CCodeTypeBase@@6B@				; CCodeTypeBase::`vftable'
PUBLIC	??_C@_05KBKNOCPJ@?$CF2?42s@			; `string'
PUBLIC	??_C@_02BJKMHJON@?$KI?W@			; `string'
PUBLIC	??_C@_02IJKLNJNJ@?$KI?$OA@			; `string'
PUBLIC	??_7CCodeTypeA@@6B@				; CCodeTypeA::`vftable'
PUBLIC	??_7CCodeTypeB@@6B@				; CCodeTypeB::`vftable'
PUBLIC	??_C@_01COCBENDE@7@				; `string'
PUBLIC	??_C@_01DHDKHMHF@6@				; `string'
PUBLIC	??_C@_01BMBHCPLG@5@				; `string'
PUBLIC	??_C@_01EKENIIDA@3@				; `string'
PUBLIC	??_C@_01FAMBOPH@4@				; `string'
PUBLIC	??_7?$CList@PAVCCallPutItemData@@PAV1@@@6B@	; CList<CCallPutItemData *,CCallPutItemData *>::`vftable'
PUBLIC	??_7?$CList@PAVCCallPutIMonthData@@PAV1@@@6B@	; CList<CCallPutIMonthData *,CCallPutIMonthData *>::`vftable'
PUBLIC	??_C@_04HOGOKFCN@?$LP?y?$LJ?$LA@		; `string'
PUBLIC	??_C@_04CNJBKMPC@Call@				; `string'
PUBLIC	??_7CTLMCallback@CTabCodeSearch@@6B@		; CTabCodeSearch::CTLMCallback::`vftable'
PUBLIC	??_7CMyITrCommSite@CTabCodeSearch@@6B@		; CTabCodeSearch::CMyITrCommSite::`vftable'
PUBLIC	??_7?$CList@PAVCItemLongData@@PAV1@@@6B@	; CList<CItemLongData *,CItemLongData *>::`vftable'
PUBLIC	??_7CTabCodeSearch@@6B@				; CTabCodeSearch::`vftable'
PUBLIC	??_C@_01JLIPDDHJ@?3@				; `string'
PUBLIC	??_C@_0BA@INBCGBNE@?$CF08X?7?$CF08X?7?$CF08X?7@	; `string'
PUBLIC	??_C@_03LLLCDPKN@5?C?J@				; `string'
PUBLIC	??_C@_04PHELHGKI@10?C?J@			; `string'
PUBLIC	??_C@_04MAJFIGJK@15?C?J@			; `string'
PUBLIC	??_C@_04LAOLAMHI@20?C?J@			; `string'
PUBLIC	??_C@_04IHDFPMEK@25?C?J@			; `string'
PUBLIC	??_C@_04INILCFMI@30?C?J@			; `string'
PUBLIC	??_C@_04EFGLKKLI@60?C?J@			; `string'
PUBLIC	??_C@_0O@DADNAINN@?$CFs?2folder?4bmp@		; `string'
PUBLIC	??_C@_0BD@OCOIJGGE@?$CFs?2outbar_icon?4bmp@	; `string'
PUBLIC	??_C@_0BD@CMCCCNBF@HANAROIGATEMANAGER@		; `string'
PUBLIC	??_C@_08CKONLPCE@?$LA?$PM?$LN?I?$LB?W?$LH?l@	; `string'
PUBLIC	??_C@_04IMIHFAMF@?A?V?$LN?D@			; `string'
PUBLIC	??_C@_03POALDHNL@ELW@				; `string'
PUBLIC	??_C@_04GHLAOPMI@?$LO?w?A?$LO@			; `string'
PUBLIC	??_C@_09BJLLGFJL@?$LM?$LB?$LJ?$LA?1?$LP?I?$LM?G@ ; `string'
PUBLIC	??_C@_08GABLNBPO@FOMASTER@			; `string'
PUBLIC	??_C@_08OPOALDAF@?$LL?s?G?$LA?$LM?$LB?$LJ?$LA@	; `string'
PUBLIC	??_C@_0N@BNILMEJJ@?$LK?$PM?$LI?$KF?A?$LO?$LI?q?$LA?K?$LL?v@ ; `string'
PUBLIC	??_C@_0P@OHLONHMC@?$LL?g?$LP?k?$MA?Z?A?$LG?$LA?G?$LA?K?$LL?v@ ; `string'
PUBLIC	??_C@_09POEKPOBJ@OldFuture@			; `string'
PUBLIC	??_C@_08NKEECE@?$LA?z?$LA?E?$LM?$LB?$LJ?$LA@	; `string'
PUBLIC	??_C@_08ODFAFGMO@?A?V?$LN?D?$LM?$LB?$LJ?$LA@	; `string'
PUBLIC	??_C@_0O@DJPIKCGJ@TabCodeSearch@		; `string'
PUBLIC	??_C@_07HANEOMHL@?$CFs?7?$CF08X@		; `string'
PUBLIC	??_C@_09MICNPEAJ@DRFNGWAN?3@			; `string'
PUBLIC	??_C@_01MMEEDKFM@X@				; `string'
PUBLIC	??_C@_08KFOOADEE@pijs0112@			; `string'
PUBLIC	??_C@_0BC@NBFECJEM@?D?Z?$LF?e?9?$LF?e?$LH?$KB?$LB?W?$LI?$KO?$LN?$LK?F?$KO@ ; `string'
PUBLIC	??_C@_01OCOKONAJ@L@				; `string'
PUBLIC	??_C@_0M@CJGEBODD@?D?Z?$LF?e?9?$LF?e?$LH?$KB?$LB?W@ ; `string'
PUBLIC	??_C@_01DGKLNCNG@R@				; `string'
PUBLIC	??_C@_03MHAIKEMP@300@				; `string'
PUBLIC	??_C@_0P@DKEDAHBN@HeightOfSearch@		; `string'
PUBLIC	??_C@_0BJ@EHHOABPL@SelectedFavoriteItemCode@	; `string'
PUBLIC	??_C@_0BB@FNJICNJ@SelectedItemName@		; `string'
PUBLIC	??_C@_0BH@MFNGHPMI@SelectedParentItemName@	; `string'
PUBLIC	??_C@_09JOPCILHH@CntOfUnit@			; `string'
PUBLIC	??_C@_05CJECCPPC@05010@				; `string'
PUBLIC	??_C@_04PDHJBHLJ@?$MA?g?$LL?$PN@		; `string'
PUBLIC	??_C@_04MFPFIJHG@?$MA?L?$MA?$PM@		; `string'
PUBLIC	??_C@_04NMHJGEDF@?$MA?L?H?D@			; `string'
PUBLIC	??_C@_0M@KALOFNLB@?B?w?F?$KO?5?C?J?$LB?b?H?$KN@	; `string'
PUBLIC	??_C@_04KKJCCIGG@7112@				; `string'
PUBLIC	??_C@_02PPKAJPJL@?$CG?$CG@			; `string'
PUBLIC	??_C@_01HNPIGOCE@?$CG@				; `string'
PUBLIC	??_C@_01ICJEACDI@?$DL@				; `string'
PUBLIC	??_C@_06ILELDFGC@USERTR@			; `string'
PUBLIC	??_C@_03OHHDNMNE@S31@				; `string'
PUBLIC	??_C@_01NBENCBCI@?$CK@				; `string'
PUBLIC	??_C@_0CA@LCGNJNDB@?B?w?F?$KO?$LN?$LK?E?$KJ?$LH?Q?5?$LB?b?$LE?I?$MA?L?5?$LF?$LP?$MA?$NL?A?$NP?$MA?T?$LE?O?$LE?Y?4@ ; `string'
PUBLIC	??_C@_0CL@IMEJDJIA@N?$CKN?5?$LL?s?E?B?$LP?$KB?$LM?$KN?$LE?B?5?$LF?$LJ?$LH?A?$LK?$LI?$LB?b?5?$LB?b?$LE?I?$MA?L?5@ ; `string'
PUBLIC	??_C@_04PNCKPNJH@?A?$KE?A?v@			; `string'
PUBLIC	??_C@_0L@DIKICJIA@SCREENCODE@			; `string'
PUBLIC	??_C@_07OLCDEDDD@PMASTER@			; `string'
PUBLIC	??_C@_08CDLEABGN@JPMASTER@			; `string'
PUBLIC	??_C@_08MDFMLEEP@?$LE?$NO?$LH?$KP?$LP?I?$LM?G@	; `string'
PUBLIC	??_R0PAVCMemoryException@@@8			; CMemoryException * `RTTI Type Descriptor'
PUBLIC	??_C@_06CDJAKJDK@?G?$OA?$LL?g?$LA?$KB@		; `string'
PUBLIC	??_C@_02KCIOKDCD@?D?$NN@			; `string'
PUBLIC	??_C@_02ECKNGKBC@?G?$LC@			; `string'
PUBLIC	??_C@_0P@JIBKHGJJ@master?2atm?4dat@		; `string'
PUBLIC	??_C@_03KBDGFMG@mst@				; `string'
PUBLIC	??_C@_08EFGGCJLD@?$CFs?2?$CFs?2?$CFs@		; `string'
PUBLIC	??_C@_05BJKOFFGO@PRICE@				; `string'
PUBLIC	??_C@_03NDHBKIJP@ATM@				; `string'
PUBLIC	??_C@_02NHMFCJJJ@AF@				; `string'
PUBLIC	??_C@_06FPLLPGGO@?$CFs?4M?$CFs@			; `string'
PUBLIC	??_C@_05NNFHCGPF@?$CFs?4?$CFs@			; `string'
PUBLIC	??_C@_05DNIIFBMG@?$CFs?5?$CFs@			; `string'
PUBLIC	??_C@_01MJMHLOMK@O@				; `string'
PUBLIC	??_C@_02KCECDBDA@?C?J@				; `string'
PUBLIC	??_C@_07HJHGFBIO@?$CF12?412s@			; `string'
PUBLIC	??_C@_05FDCEOMOF@?$CF6?46s@			; `string'
PUBLIC	??_C@_07BEGHJBJI@?$CF20?420s@			; `string'
PUBLIC	??_C@_05NKCIDMAJ@?$CF9?49s@			; `string'
PUBLIC	??_C@_01IHBHIGKO@?0@				; `string'
PUBLIC	??_C@_01JOAMLHOP@?9@				; `string'
PUBLIC	??_C@_04LCFLHEIH@?$CFs00@			; `string'
PUBLIC	??_C@_08CDGFJGJK@?$MA?Z?$LH?a?$MA?O?$MA?Z@	; `string'
PUBLIC	??_C@_04HDOCAJNK@?$CFs?$CFs@			; `string'
PUBLIC	??_C@_0L@OLKNJBLH@_DateTime_@			; `string'
PUBLIC	??_R0?AUITrCommSite@@@8				; ITrCommSite `RTTI Type Descriptor'
PUBLIC	??_R3ITrCommSite@@8				; ITrCommSite::`RTTI Class Hierarchy Descriptor'
PUBLIC	??_R2ITrCommSite@@8				; ITrCommSite::`RTTI Base Class Array'
PUBLIC	??_R1A@?0A@EA@ITrCommSite@@8			; ITrCommSite::`RTTI Base Class Descriptor at (0,-1,0,64)'
PUBLIC	??_R0?AUITLMCallback@@@8			; ITLMCallback `RTTI Type Descriptor'
PUBLIC	??_R3ITLMCallback@@8				; ITLMCallback::`RTTI Class Hierarchy Descriptor'
PUBLIC	??_R2ITLMCallback@@8				; ITLMCallback::`RTTI Base Class Array'
PUBLIC	??_R1A@?0A@EA@ITLMCallback@@8			; ITLMCallback::`RTTI Base Class Descriptor at (0,-1,0,64)'
PUBLIC	??_R4?$CList@PAVCItemLongData@@PAV1@@@6B@	; CList<CItemLongData *,CItemLongData *>::`RTTI Complete Object Locator'
PUBLIC	??_R0?AV?$CList@PAVCItemLongData@@PAV1@@@@8	; CList<CItemLongData *,CItemLongData *> `RTTI Type Descriptor'
PUBLIC	??_R3?$CList@PAVCItemLongData@@PAV1@@@8		; CList<CItemLongData *,CItemLongData *>::`RTTI Class Hierarchy Descriptor'
PUBLIC	??_R2?$CList@PAVCItemLongData@@PAV1@@@8		; CList<CItemLongData *,CItemLongData *>::`RTTI Base Class Array'
PUBLIC	??_R1A@?0A@EA@?$CList@PAVCItemLongData@@PAV1@@@8 ; CList<CItemLongData *,CItemLongData *>::`RTTI Base Class Descriptor at (0,-1,0,64)'
PUBLIC	??_R4CCodeTypeBase@@6B@				; CCodeTypeBase::`RTTI Complete Object Locator'
PUBLIC	??_R0?AVCCodeTypeBase@@@8			; CCodeTypeBase `RTTI Type Descriptor'
PUBLIC	??_R3CCodeTypeBase@@8				; CCodeTypeBase::`RTTI Class Hierarchy Descriptor'
PUBLIC	??_R2CCodeTypeBase@@8				; CCodeTypeBase::`RTTI Base Class Array'
PUBLIC	??_R1A@?0A@EA@CCodeTypeBase@@8			; CCodeTypeBase::`RTTI Base Class Descriptor at (0,-1,0,64)'
PUBLIC	??_R4CCodeTypeA@@6B@				; CCodeTypeA::`RTTI Complete Object Locator'
PUBLIC	??_R0?AVCCodeTypeA@@@8				; CCodeTypeA `RTTI Type Descriptor'
PUBLIC	??_R3CCodeTypeA@@8				; CCodeTypeA::`RTTI Class Hierarchy Descriptor'
PUBLIC	??_R2CCodeTypeA@@8				; CCodeTypeA::`RTTI Base Class Array'
PUBLIC	??_R1A@?0A@EA@CCodeTypeA@@8			; CCodeTypeA::`RTTI Base Class Descriptor at (0,-1,0,64)'
PUBLIC	??_R4CCodeTypeB@@6B@				; CCodeTypeB::`RTTI Complete Object Locator'
PUBLIC	??_R0?AVCCodeTypeB@@@8				; CCodeTypeB `RTTI Type Descriptor'
PUBLIC	??_R3CCodeTypeB@@8				; CCodeTypeB::`RTTI Class Hierarchy Descriptor'
PUBLIC	??_R2CCodeTypeB@@8				; CCodeTypeB::`RTTI Base Class Array'
PUBLIC	??_R1A@?0A@EA@CCodeTypeB@@8			; CCodeTypeB::`RTTI Base Class Descriptor at (0,-1,0,64)'
PUBLIC	??_R4?$CList@PAVCCallPutItemData@@PAV1@@@6B@	; CList<CCallPutItemData *,CCallPutItemData *>::`RTTI Complete Object Locator'
PUBLIC	??_R0?AV?$CList@PAVCCallPutItemData@@PAV1@@@@8	; CList<CCallPutItemData *,CCallPutItemData *> `RTTI Type Descriptor'
PUBLIC	??_R3?$CList@PAVCCallPutItemData@@PAV1@@@8	; CList<CCallPutItemData *,CCallPutItemData *>::`RTTI Class Hierarchy Descriptor'
PUBLIC	??_R2?$CList@PAVCCallPutItemData@@PAV1@@@8	; CList<CCallPutItemData *,CCallPutItemData *>::`RTTI Base Class Array'
PUBLIC	??_R1A@?0A@EA@?$CList@PAVCCallPutItemData@@PAV1@@@8 ; CList<CCallPutItemData *,CCallPutItemData *>::`RTTI Base Class Descriptor at (0,-1,0,64)'
PUBLIC	??_R4?$CList@PAVCCallPutIMonthData@@PAV1@@@6B@	; CList<CCallPutIMonthData *,CCallPutIMonthData *>::`RTTI Complete Object Locator'
PUBLIC	??_R0?AV?$CList@PAVCCallPutIMonthData@@PAV1@@@@8 ; CList<CCallPutIMonthData *,CCallPutIMonthData *> `RTTI Type Descriptor'
PUBLIC	??_R3?$CList@PAVCCallPutIMonthData@@PAV1@@@8	; CList<CCallPutIMonthData *,CCallPutIMonthData *>::`RTTI Class Hierarchy Descriptor'
PUBLIC	??_R2?$CList@PAVCCallPutIMonthData@@PAV1@@@8	; CList<CCallPutIMonthData *,CCallPutIMonthData *>::`RTTI Base Class Array'
PUBLIC	??_R1A@?0A@EA@?$CList@PAVCCallPutIMonthData@@PAV1@@@8 ; CList<CCallPutIMonthData *,CCallPutIMonthData *>::`RTTI Base Class Descriptor at (0,-1,0,64)'
PUBLIC	??_R4CTabCodeSearch@@6B@			; CTabCodeSearch::`RTTI Complete Object Locator'
PUBLIC	??_R0?AVCTabCodeSearch@@@8			; CTabCodeSearch `RTTI Type Descriptor'
PUBLIC	??_R3CTabCodeSearch@@8				; CTabCodeSearch::`RTTI Class Hierarchy Descriptor'
PUBLIC	??_R2CTabCodeSearch@@8				; CTabCodeSearch::`RTTI Base Class Array'
PUBLIC	??_R1A@?0A@EA@CTabCodeSearch@@8			; CTabCodeSearch::`RTTI Base Class Descriptor at (0,-1,0,64)'
PUBLIC	??_R1A@?0A@EA@CTabDlg@@8			; CTabDlg::`RTTI Base Class Descriptor at (0,-1,0,64)'
PUBLIC	??_R0?AVCTabDlg@@@8				; CTabDlg `RTTI Type Descriptor'
PUBLIC	??_R3CTabDlg@@8					; CTabDlg::`RTTI Class Hierarchy Descriptor'
PUBLIC	??_R2CTabDlg@@8					; CTabDlg::`RTTI Base Class Array'
PUBLIC	??_R1A@?0A@EA@CRscDlg@@8			; CRscDlg::`RTTI Base Class Descriptor at (0,-1,0,64)'
PUBLIC	??_R0?AVCRscDlg@@@8				; CRscDlg `RTTI Type Descriptor'
PUBLIC	??_R3CRscDlg@@8					; CRscDlg::`RTTI Class Hierarchy Descriptor'
PUBLIC	??_R2CRscDlg@@8					; CRscDlg::`RTTI Base Class Array'
PUBLIC	??_R4CTLMCallback@CTabCodeSearch@@6B@		; CTabCodeSearch::CTLMCallback::`RTTI Complete Object Locator'
PUBLIC	??_R0?AVCTLMCallback@CTabCodeSearch@@@8		; CTabCodeSearch::CTLMCallback `RTTI Type Descriptor'
PUBLIC	??_R3CTLMCallback@CTabCodeSearch@@8		; CTabCodeSearch::CTLMCallback::`RTTI Class Hierarchy Descriptor'
PUBLIC	??_R2CTLMCallback@CTabCodeSearch@@8		; CTabCodeSearch::CTLMCallback::`RTTI Base Class Array'
PUBLIC	??_R1A@?0A@EA@CTLMCallback@CTabCodeSearch@@8	; CTabCodeSearch::CTLMCallback::`RTTI Base Class Descriptor at (0,-1,0,64)'
PUBLIC	??_R4CMyITrCommSite@CTabCodeSearch@@6B@		; CTabCodeSearch::CMyITrCommSite::`RTTI Complete Object Locator'
PUBLIC	??_R0?AVCMyITrCommSite@CTabCodeSearch@@@8	; CTabCodeSearch::CMyITrCommSite `RTTI Type Descriptor'
PUBLIC	??_R3CMyITrCommSite@CTabCodeSearch@@8		; CTabCodeSearch::CMyITrCommSite::`RTTI Class Hierarchy Descriptor'
PUBLIC	??_R2CMyITrCommSite@CTabCodeSearch@@8		; CTabCodeSearch::CMyITrCommSite::`RTTI Base Class Array'
PUBLIC	??_R1A@?0A@EA@CMyITrCommSite@CTabCodeSearch@@8	; CTabCodeSearch::CMyITrCommSite::`RTTI Base Class Descriptor at (0,-1,0,64)'
PUBLIC	__xmm@00000064000000640000000000000000
EXTRN	??_M@YGXPAXIIP6EX0@Z@Z:PROC			; `eh vector destructor iterator'
EXTRN	??2@YAPAXI@Z:PROC				; operator new
EXTRN	??3@YAXPAX@Z:PROC				; operator delete
EXTRN	??3@YAXPAXI@Z:PROC				; operator delete
EXTRN	?__global_delete@@YAXPAXI@Z:PROC		; __global_delete
EXTRN	??_U@YAPAXI@Z:PROC				; operator new[]
EXTRN	??_V@YAXPAX@Z:PROC				; operator delete[]
EXTRN	??_V@YAXPAXI@Z:PROC				; operator delete[]
EXTRN	_atexit:PROC
EXTRN	___std_terminate:PROC
EXTRN	__imp__GetEnvironmentVariableA@12:PROC
EXTRN	__imp__RaiseException@16:PROC
EXTRN	__imp__GetLastError@0:PROC
EXTRN	__imp__InitializeCriticalSectionEx@12:PROC
EXTRN	__imp__DeleteCriticalSection@4:PROC
EXTRN	__imp__GetModuleHandleA@4:PROC
EXTRN	__imp__GetPrivateProfileStringA@24:PROC
EXTRN	__imp__WritePrivateProfileStringA@16:PROC
EXTRN	__imp__CreateSolidBrush@4:PROC
EXTRN	__imp__RegisterWindowMessageA@4:PROC
EXTRN	__imp__SendMessageA@16:PROC
EXTRN	__imp__PostMessageA@16:PROC
EXTRN	__imp__UnregisterClassA@8:PROC
EXTRN	__imp__SetCapture@4:PROC
EXTRN	__imp__ReleaseCapture@0:PROC
EXTRN	__imp__SetTimer@16:PROC
EXTRN	__imp__KillTimer@8:PROC
EXTRN	__imp__EnableWindow@8:PROC
EXTRN	__imp__InvalidateRect@12:PROC
EXTRN	__imp__GetClientRect@8:PROC
EXTRN	__imp__GetWindowRect@8:PROC
EXTRN	__imp__ClientToScreen@8:PROC
EXTRN	__imp__PtInRect@12:PROC
EXTRN	__imp__GetParent@4:PROC
EXTRN	__imp__SetParent@8:PROC
EXTRN	__imp__LoadImageA@24:PROC
EXTRN	__imp__ImageList_AddMasked@12:PROC
EXTRN	__imp____stdio_common_vsscanf:PROC
EXTRN	__imp__free:PROC
EXTRN	__imp__atof:PROC
EXTRN	__imp__atoi:PROC
EXTRN	?AfxThrowInvalidArgException@@YGXXZ:PROC	; AfxThrowInvalidArgException
EXTRN	?AfxThrowArchiveException@@YGXHPBD@Z:PROC	; AfxThrowArchiveException
EXTRN	?GetRuntimeClass@CObject@@UBEPAUCRuntimeClass@@XZ:PROC ; CObject::GetRuntimeClass
EXTRN	?Delete@CException@@QAEXXZ:PROC			; CException::Delete
EXTRN	__imp__SysFreeString@4:PROC
EXTRN	__imp_??A?$CSimpleStringT@D$00@ATL@@QBEDH@Z:PROC
EXTRN	__imp_?GetBuffer@?$CSimpleStringT@D$00@ATL@@QAEPADH@Z:PROC
EXTRN	__imp_?ReleaseBuffer@?$CSimpleStringT@D$00@ATL@@QAEXH@Z:PROC
EXTRN	__imp_??0?$CStringT@DV?$StrTraitMFC_DLL@DV?$ChTraitsCRT@D@ATL@@@@@ATL@@QAE@XZ:PROC
EXTRN	__imp_??0?$CStringT@DV?$StrTraitMFC_DLL@DV?$ChTraitsCRT@D@ATL@@@@@ATL@@QAE@ABV01@@Z:PROC
EXTRN	__imp_??0?$CStringT@DV?$StrTraitMFC_DLL@DV?$ChTraitsCRT@D@ATL@@@@@ATL@@QAE@PBD@Z:PROC
EXTRN	__imp_??1?$CStringT@DV?$StrTraitMFC_DLL@DV?$ChTraitsCRT@D@ATL@@@@@ATL@@QAE@XZ:PROC
EXTRN	__imp_??4?$CStringT@DV?$StrTraitMFC_DLL@DV?$ChTraitsCRT@D@ATL@@@@@ATL@@QAEAAV01@ABV01@@Z:PROC
EXTRN	__imp_??4?$CStringT@DV?$StrTraitMFC_DLL@DV?$ChTraitsCRT@D@ATL@@@@@ATL@@QAEAAV01@PBD@Z:PROC
EXTRN	__imp_??4?$CStringT@DV?$StrTraitMFC_DLL@DV?$ChTraitsCRT@D@ATL@@@@@ATL@@QAEAAV01@D@Z:PROC
EXTRN	__imp_??Y?$CStringT@DV?$StrTraitMFC_DLL@DV?$ChTraitsCRT@D@ATL@@@@@ATL@@QAEAAV01@ABV?$CSimpleStringT@D$00@1@@Z:PROC
EXTRN	__imp_??Y?$CStringT@DV?$StrTraitMFC_DLL@DV?$ChTraitsCRT@D@ATL@@@@@ATL@@QAEAAV01@PBD@Z:PROC
EXTRN	__imp_??Y?$CStringT@DV?$StrTraitMFC_DLL@DV?$ChTraitsCRT@D@ATL@@@@@ATL@@QAEAAV01@D@Z:PROC
EXTRN	__imp_?Compare@?$CStringT@DV?$StrTraitMFC_DLL@DV?$ChTraitsCRT@D@ATL@@@@@ATL@@QBEHPBD@Z:PROC
EXTRN	__imp_?Replace@?$CStringT@DV?$StrTraitMFC_DLL@DV?$ChTraitsCRT@D@ATL@@@@@ATL@@QAEHPBD0@Z:PROC
EXTRN	__imp_?Remove@?$CStringT@DV?$StrTraitMFC_DLL@DV?$ChTraitsCRT@D@ATL@@@@@ATL@@QAEHD@Z:PROC
EXTRN	__imp_?Find@?$CStringT@DV?$StrTraitMFC_DLL@DV?$ChTraitsCRT@D@ATL@@@@@ATL@@QBEHPBDH@Z:PROC
EXTRN	__imp_?TrimRight@?$CStringT@DV?$StrTraitMFC_DLL@DV?$ChTraitsCRT@D@ATL@@@@@ATL@@QAEAAV12@XZ:PROC
EXTRN	__imp_?Trim@?$CStringT@DV?$StrTraitMFC_DLL@DV?$ChTraitsCRT@D@ATL@@@@@ATL@@QAEAAV12@XZ:PROC
EXTRN	__imp_?Mid@?$CStringT@DV?$StrTraitMFC_DLL@DV?$ChTraitsCRT@D@ATL@@@@@ATL@@QBE?AV12@HH@Z:PROC
EXTRN	__imp_?Right@?$CStringT@DV?$StrTraitMFC_DLL@DV?$ChTraitsCRT@D@ATL@@@@@ATL@@QBE?AV12@H@Z:PROC
EXTRN	__imp_?Left@?$CStringT@DV?$StrTraitMFC_DLL@DV?$ChTraitsCRT@D@ATL@@@@@ATL@@QBE?AV12@H@Z:PROC
EXTRN	__imp_?Format@?$CStringT@DV?$StrTraitMFC_DLL@DV?$ChTraitsCRT@D@ATL@@@@@ATL@@QAAXPBDZZ:PROC
EXTRN	?Read@CArchive@@QAEIPAXI@Z:PROC			; CArchive::Read
EXTRN	?Write@CArchive@@QAEXPBXI@Z:PROC		; CArchive::Write
EXTRN	?ReadCount@CArchive@@QAEKXZ:PROC		; CArchive::ReadCount
EXTRN	?WriteCount@CArchive@@QAEXK@Z:PROC		; CArchive::WriteCount
EXTRN	??0CStringArray@@QAE@XZ:PROC			; CStringArray::CStringArray
EXTRN	??1CStringArray@@UAE@XZ:PROC			; CStringArray::~CStringArray
EXTRN	??0CStringList@@QAE@H@Z:PROC			; CStringList::CStringList
EXTRN	??1CStringList@@UAE@XZ:PROC			; CStringList::~CStringList
EXTRN	??0AFX_MAINTAIN_STATE2@@QAE@PAVAFX_MODULE_STATE@@@Z:PROC ; AFX_MAINTAIN_STATE2::AFX_MAINTAIN_STATE2
EXTRN	??1AFX_MAINTAIN_STATE2@@QAE@XZ:PROC		; AFX_MAINTAIN_STATE2::~AFX_MAINTAIN_STATE2
EXTRN	?Create@CPlex@@SGPAU1@AAPAU1@II@Z:PROC		; CPlex::Create
EXTRN	?FreeDataChain@CPlex@@QAEXXZ:PROC		; CPlex::FreeDataChain
EXTRN	?GetRuntimeClass@CGdiObject@@UBEPAUCRuntimeClass@@XZ:PROC ; CGdiObject::GetRuntimeClass
EXTRN	?Attach@CGdiObject@@QAEHPAX@Z:PROC		; CGdiObject::Attach
EXTRN	?DeleteObject@CGdiObject@@QAEHXZ:PROC		; CGdiObject::DeleteObject
EXTRN	??_ECGdiObject@@UAEPAXI@Z:PROC			; CGdiObject::`vector deleting destructor'
EXTRN	?GetRuntimeClass@CBitmap@@UBEPAUCRuntimeClass@@XZ:PROC ; CBitmap::GetRuntimeClass
EXTRN	??_ECBitmap@@UAEPAXI@Z:PROC			; CBitmap::`vector deleting destructor'
EXTRN	??0CImageList@@QAE@XZ:PROC			; CImageList::CImageList
EXTRN	?Create@CImageList@@QAEHHHIHH@Z:PROC		; CImageList::Create
EXTRN	?FromHandle@CImageList@@SGPAV1@PAU_IMAGELIST@@@Z:PROC ; CImageList::FromHandle
EXTRN	?DeleteImageList@CImageList@@QAEHXZ:PROC	; CImageList::DeleteImageList
EXTRN	??1CImageList@@UAE@XZ:PROC			; CImageList::~CImageList
EXTRN	?DDX_Control@@YGXPAVCDataExchange@@HAAVCWnd@@@Z:PROC ; DDX_Control
EXTRN	?OnCmdMsg@CCmdTarget@@UAEHIHPAXPAUAFX_CMDHANDLERINFO@@@Z:PROC ; CCmdTarget::OnCmdMsg
EXTRN	?IsInvokeAllowed@CCmdTarget@@UAEHJ@Z:PROC	; CCmdTarget::IsInvokeAllowed
EXTRN	?GetDispatchIID@CCmdTarget@@UAEHPAU_GUID@@@Z:PROC ; CCmdTarget::GetDispatchIID
EXTRN	?GetTypeInfoCount@CCmdTarget@@UAEIXZ:PROC	; CCmdTarget::GetTypeInfoCount
EXTRN	?GetTypeLibCache@CCmdTarget@@UAEPAVCTypeLibCache@@XZ:PROC ; CCmdTarget::GetTypeLibCache
EXTRN	?GetTypeLib@CCmdTarget@@UAEJKPAPAUITypeLib@@@Z:PROC ; CCmdTarget::GetTypeLib
EXTRN	?GetCommandMap@CCmdTarget@@MBEPBUAFX_OLECMDMAP@@XZ:PROC ; CCmdTarget::GetCommandMap
EXTRN	?GetDispatchMap@CCmdTarget@@MBEPBUAFX_DISPMAP@@XZ:PROC ; CCmdTarget::GetDispatchMap
EXTRN	?GetConnectionMap@CCmdTarget@@MBEPBUAFX_CONNECTIONMAP@@XZ:PROC ; CCmdTarget::GetConnectionMap
EXTRN	?GetEventSinkMap@CCmdTarget@@MBEPBUAFX_EVENTSINKMAP@@XZ:PROC ; CCmdTarget::GetEventSinkMap
EXTRN	?OnCreateAggregates@CCmdTarget@@UAEHXZ:PROC	; CCmdTarget::OnCreateAggregates
EXTRN	?GetInterfaceHook@CCmdTarget@@UAEPAUIUnknown@@PBX@Z:PROC ; CCmdTarget::GetInterfaceHook
EXTRN	?GetExtraConnectionPoints@CCmdTarget@@MAEHPAVCPtrArray@@@Z:PROC ; CCmdTarget::GetExtraConnectionPoints
EXTRN	?GetConnectionHook@CCmdTarget@@MAEPAUIConnectionPoint@@ABU_GUID@@@Z:PROC ; CCmdTarget::GetConnectionHook
EXTRN	??0CWnd@@QAE@XZ:PROC				; CWnd::CWnd
EXTRN	?FromHandle@CWnd@@SGPAV1@PAUHWND__@@@Z:PROC	; CWnd::FromHandle
EXTRN	?PreSubclassWindow@CWnd@@UAEXXZ:PROC		; CWnd::PreSubclassWindow
EXTRN	?Create@CWnd@@UAEHPBD0KABUtagRECT@@PAV1@IPAUCCreateContext@@@Z:PROC ; CWnd::Create
EXTRN	?CreateEx@CWnd@@UAEHKPBD0KHHHHPAUHWND__@@PAUHMENU__@@PAX@Z:PROC ; CWnd::CreateEx
EXTRN	?CreateEx@CWnd@@UAEHKPBD0KABUtagRECT@@PAV1@IPAX@Z:PROC ; CWnd::CreateEx
EXTRN	?DestroyWindow@CWnd@@UAEHXZ:PROC		; CWnd::DestroyWindow
EXTRN	?PreCreateWindow@CWnd@@UAEHAAUtagCREATESTRUCTA@@@Z:PROC ; CWnd::PreCreateWindow
EXTRN	?CalcWindowRect@CWnd@@UAEXPAUtagRECT@@I@Z:PROC	; CWnd::CalcWindowRect
EXTRN	?GetMenu@CWnd@@UBEPAVCMenu@@XZ:PROC		; CWnd::GetMenu
EXTRN	?SetMenu@CWnd@@UAEHPAVCMenu@@@Z:PROC		; CWnd::SetMenu
EXTRN	?ShowWindow@CWnd@@QAEHH@Z:PROC			; CWnd::ShowWindow
EXTRN	?OnToolHitTest@CWnd@@UBEHVCPoint@@PAUtagTOOLINFOA@@@Z:PROC ; CWnd::OnToolHitTest
EXTRN	?SetFocus@CWnd@@QAEPAV1@XZ:PROC			; CWnd::SetFocus
EXTRN	?GetScrollBarCtrl@CWnd@@UBEPAVCScrollBar@@H@Z:PROC ; CWnd::GetScrollBarCtrl
EXTRN	?WinHelpA@CWnd@@UAEXKI@Z:PROC			; CWnd::WinHelpA
EXTRN	?HtmlHelpA@CWnd@@UAEXKI@Z:PROC			; CWnd::HtmlHelpA
EXTRN	?WinHelpInternal@CWnd@@UAEXKI@Z:PROC		; CWnd::WinHelpInternal
EXTRN	?ContinueModal@CWnd@@UAEHXZ:PROC		; CWnd::ContinueModal
EXTRN	?EndModalLoop@CWnd@@UAEXH@Z:PROC		; CWnd::EndModalLoop
EXTRN	?OnDrawIconicThumbnailOrLivePreview@CWnd@@UAEXAAVCDC@@VCRect@@VCSize@@HAAH@Z:PROC ; CWnd::OnDrawIconicThumbnailOrLivePreview
EXTRN	?GetInterfaceMap@CWnd@@MBEPBUAFX_INTERFACEMAP@@XZ:PROC ; CWnd::GetInterfaceMap
EXTRN	?EnsureStdObj@CWnd@@UAEJXZ:PROC			; CWnd::EnsureStdObj
EXTRN	?get_accParent@CWnd@@UAEJPAPAUIDispatch@@@Z:PROC ; CWnd::get_accParent
EXTRN	?get_accChildCount@CWnd@@UAEJPAJ@Z:PROC		; CWnd::get_accChildCount
EXTRN	?get_accChild@CWnd@@UAEJUtagVARIANT@@PAPAUIDispatch@@@Z:PROC ; CWnd::get_accChild
EXTRN	?get_accName@CWnd@@UAEJUtagVARIANT@@PAPA_W@Z:PROC ; CWnd::get_accName
EXTRN	?get_accValue@CWnd@@UAEJUtagVARIANT@@PAPA_W@Z:PROC ; CWnd::get_accValue
EXTRN	?get_accDescription@CWnd@@UAEJUtagVARIANT@@PAPA_W@Z:PROC ; CWnd::get_accDescription
EXTRN	?get_accRole@CWnd@@UAEJUtagVARIANT@@PAU2@@Z:PROC ; CWnd::get_accRole
EXTRN	?get_accState@CWnd@@UAEJUtagVARIANT@@PAU2@@Z:PROC ; CWnd::get_accState
EXTRN	?get_accHelp@CWnd@@UAEJUtagVARIANT@@PAPA_W@Z:PROC ; CWnd::get_accHelp
EXTRN	?get_accHelpTopic@CWnd@@UAEJPAPA_WUtagVARIANT@@PAJ@Z:PROC ; CWnd::get_accHelpTopic
EXTRN	?get_accKeyboardShortcut@CWnd@@UAEJUtagVARIANT@@PAPA_W@Z:PROC ; CWnd::get_accKeyboardShortcut
EXTRN	?get_accFocus@CWnd@@UAEJPAUtagVARIANT@@@Z:PROC	; CWnd::get_accFocus
EXTRN	?get_accSelection@CWnd@@UAEJPAUtagVARIANT@@@Z:PROC ; CWnd::get_accSelection
EXTRN	?get_accDefaultAction@CWnd@@UAEJUtagVARIANT@@PAPA_W@Z:PROC ; CWnd::get_accDefaultAction
EXTRN	?accSelect@CWnd@@UAEJJUtagVARIANT@@@Z:PROC	; CWnd::accSelect
EXTRN	?accLocation@CWnd@@UAEJPAJ000UtagVARIANT@@@Z:PROC ; CWnd::accLocation
EXTRN	?accNavigate@CWnd@@UAEJJUtagVARIANT@@PAU2@@Z:PROC ; CWnd::accNavigate
EXTRN	?accHitTest@CWnd@@UAEJJJPAUtagVARIANT@@@Z:PROC	; CWnd::accHitTest
EXTRN	?accDoDefaultAction@CWnd@@UAEJUtagVARIANT@@@Z:PROC ; CWnd::accDoDefaultAction
EXTRN	?put_accName@CWnd@@UAEJUtagVARIANT@@PA_W@Z:PROC	; CWnd::put_accName
EXTRN	?put_accValue@CWnd@@UAEJUtagVARIANT@@PA_W@Z:PROC ; CWnd::put_accValue
EXTRN	?SetProxy@CWnd@@UAEJPAUIAccessibleProxy@@@Z:PROC ; CWnd::SetProxy
EXTRN	?CreateAccessibleProxy@CWnd@@UAEJIJPAJ@Z:PROC	; CWnd::CreateAccessibleProxy
EXTRN	?OnCommand@CWnd@@MAEHIJ@Z:PROC			; CWnd::OnCommand
EXTRN	?OnNotify@CWnd@@MAEHIJPAJ@Z:PROC		; CWnd::OnNotify
EXTRN	?GetSuperWndProcAddr@CWnd@@MAEPAP6GJPAUHWND__@@IIJ@ZXZ:PROC ; CWnd::GetSuperWndProcAddr
EXTRN	?PreTranslateMessage@CWnd@@UAEHPAUtagMSG@@@Z:PROC ; CWnd::PreTranslateMessage
EXTRN	?OnAmbientProperty@CWnd@@UAEHPAVCOleControlSite@@JPAUtagVARIANT@@@Z:PROC ; CWnd::OnAmbientProperty
EXTRN	?WindowProc@CWnd@@MAEJIIJ@Z:PROC		; CWnd::WindowProc
EXTRN	?OnWndMsg@CWnd@@MAEHIIJPAJ@Z:PROC		; CWnd::OnWndMsg
EXTRN	?Default@CWnd@@IAEJXZ:PROC			; CWnd::Default
EXTRN	?DefWindowProcA@CWnd@@MAEJIIJ@Z:PROC		; CWnd::DefWindowProcA
EXTRN	?PostNcDestroy@CWnd@@MAEXXZ:PROC		; CWnd::PostNcDestroy
EXTRN	?OnChildNotify@CWnd@@MAEHIIJPAJ@Z:PROC		; CWnd::OnChildNotify
EXTRN	?OnTouchInputs@CWnd@@MAEHIPAUtagTOUCHINPUT@@@Z:PROC ; CWnd::OnTouchInputs
EXTRN	?OnTouchInput@CWnd@@MAEHVCPoint@@HHPAUtagTOUCHINPUT@@@Z:PROC ; CWnd::OnTouchInput
EXTRN	?GetGestureStatus@CWnd@@MAEKVCPoint@@@Z:PROC	; CWnd::GetGestureStatus
EXTRN	?OnGestureZoom@CWnd@@MAEHVCPoint@@J@Z:PROC	; CWnd::OnGestureZoom
EXTRN	?OnGesturePan@CWnd@@MAEHVCPoint@@0@Z:PROC	; CWnd::OnGesturePan
EXTRN	?OnGestureRotate@CWnd@@MAEHVCPoint@@N@Z:PROC	; CWnd::OnGestureRotate
EXTRN	?OnGestureTwoFingerTap@CWnd@@MAEHVCPoint@@@Z:PROC ; CWnd::OnGestureTwoFingerTap
EXTRN	?OnGesturePressAndTap@CWnd@@MAEHVCPoint@@J@Z:PROC ; CWnd::OnGesturePressAndTap
EXTRN	?ResizeDynamicLayout@CWnd@@MAEXXZ:PROC		; CWnd::ResizeDynamicLayout
EXTRN	?CheckAutoCenter@CWnd@@UAEHXZ:PROC		; CWnd::CheckAutoCenter
EXTRN	?IsFrameWnd@CWnd@@UBEHXZ:PROC			; CWnd::IsFrameWnd
EXTRN	?OnFinalRelease@CWnd@@UAEXXZ:PROC		; CWnd::OnFinalRelease
EXTRN	?CreateControlContainer@CWnd@@MAEHPAPAVCOleControlContainer@@@Z:PROC ; CWnd::CreateControlContainer
EXTRN	?CreateControlSite@CWnd@@MAEHPAVCOleControlContainer@@PAPAVCOleControlSite@@IABU_GUID@@@Z:PROC ; CWnd::CreateControlSite
EXTRN	?SetOccDialogInfo@CWnd@@MAEHPAU_AFX_OCC_DIALOG_INFO@@@Z:PROC ; CWnd::SetOccDialogInfo
EXTRN	?GetOccDialogInfo@CWnd@@MAEPAU_AFX_OCC_DIALOG_INFO@@XZ:PROC ; CWnd::GetOccDialogInfo
EXTRN	?GetMessageMap@CWnd@@MBEPBUAFX_MSGMAP@@XZ:PROC	; CWnd::GetMessageMap
EXTRN	?GetRuntimeClass@CDialog@@UBEPAUCRuntimeClass@@XZ:PROC ; CDialog::GetRuntimeClass
EXTRN	?Create@CDialog@@UAEHPBDPAVCWnd@@@Z:PROC	; CDialog::Create
EXTRN	?CreateIndirect@CDialog@@UAEHPBUDLGTEMPLATE@@PAVCWnd@@PAX@Z:PROC ; CDialog::CreateIndirect
EXTRN	?CreateIndirect@CDialog@@UAEHPAXPAVCWnd@@@Z:PROC ; CDialog::CreateIndirect
EXTRN	?OnSetFont@CDialog@@UAEXPAVCFont@@@Z:PROC	; CDialog::OnSetFont
EXTRN	?OnOK@CDialog@@MAEXXZ:PROC			; CDialog::OnOK
EXTRN	?OnCancel@CDialog@@MAEXXZ:PROC			; CDialog::OnCancel
EXTRN	?OnCmdMsg@CDialog@@UAEHIHPAXPAUAFX_CMDHANDLERINFO@@@Z:PROC ; CDialog::OnCmdMsg
EXTRN	?CheckAutoCenter@CDialog@@UAEHXZ:PROC		; CDialog::CheckAutoCenter
EXTRN	?SetOccDialogInfo@CDialog@@MAEHPAU_AFX_OCC_DIALOG_INFO@@@Z:PROC ; CDialog::SetOccDialogInfo
EXTRN	?GetOccDialogInfo@CDialog@@MAEPAU_AFX_OCC_DIALOG_INFO@@XZ:PROC ; CDialog::GetOccDialogInfo
EXTRN	?PreInitDialog@CDialog@@MAEXXZ:PROC		; CDialog::PreInitDialog
EXTRN	?GetRuntimeClass@CButton@@UBEPAUCRuntimeClass@@XZ:PROC ; CButton::GetRuntimeClass
EXTRN	?Create@CButton@@UAEHPBDKABUtagRECT@@PAVCWnd@@I@Z:PROC ; CButton::Create
EXTRN	?DrawItem@CButton@@UAEXPAUtagDRAWITEMSTRUCT@@@Z:PROC ; CButton::DrawItem
EXTRN	??1CButton@@UAE@XZ:PROC				; CButton::~CButton
EXTRN	?OnChildNotify@CButton@@MAEHIIJPAJ@Z:PROC	; CButton::OnChildNotify
EXTRN	??_ECButton@@UAEPAXI@Z:PROC			; CButton::`vector deleting destructor'
EXTRN	?GetLBText@CComboBox@@QBEXHAAV?$CStringT@DV?$StrTraitMFC_DLL@DV?$ChTraitsCRT@D@ATL@@@@@ATL@@@Z:PROC ; CComboBox::GetLBText
EXTRN	?AfxBeginThread@@YGPAVCWinThread@@P6AIPAX@Z0HIKPAU_SECURITY_ATTRIBUTES@@@Z:PROC ; AfxBeginThread
EXTRN	?AfxMessageBox@@YGHPBDII@Z:PROC			; AfxMessageBox
EXTRN	?SetItemCountEx@CListCtrl@@QAEHHK@Z:PROC	; CListCtrl::SetItemCountEx
EXTRN	?GetItemText@CTreeCtrl@@QBE?AV?$CStringT@DV?$StrTraitMFC_DLL@DV?$ChTraitsCRT@D@ATL@@@@@ATL@@PAU_TREEITEM@@@Z:PROC ; CTreeCtrl::GetItemText
EXTRN	?Create@CRscDlg@@UAEHIPAVCWnd@@@Z:PROC		; CRscDlg::Create
EXTRN	?DoModal@CRscDlg@@UAEHXZ:PROC			; CRscDlg::DoModal
EXTRN	??0CILButton@@QAE@XZ:PROC			; CILButton::CILButton
EXTRN	?FP_vSetImage@CILButton@@QAEXPAVCImageList@@HHHV?$CStringT@DV?$StrTraitMFC_DLL@DV?$ChTraitsCRT@D@ATL@@@@@ATL@@HHH@Z:PROC ; CILButton::FP_vSetImage
EXTRN	?FP_vSetToolTipText@CILButton@@QAEXV?$CStringT@DV?$StrTraitMFC_DLL@DV?$ChTraitsCRT@D@ATL@@@@@ATL@@@Z:PROC ; CILButton::FP_vSetToolTipText
EXTRN	??1CILButton@@UAE@XZ:PROC			; CILButton::~CILButton
EXTRN	??0CTabDlg@@QAE@IPAVCWnd@@@Z:PROC		; CTabDlg::CTabDlg
EXTRN	??1CTabDlg@@UAE@XZ:PROC				; CTabDlg::~CTabDlg
EXTRN	?PreTranslateMessage@CTabDlg@@UAEHPAUtagMSG@@@Z:PROC ; CTabDlg::PreTranslateMessage
EXTRN	?DoDataExchange@CTabDlg@@MAEXPAVCDataExchange@@@Z:PROC ; CTabDlg::DoDataExchange
EXTRN	?RecalcLayoutCtrl@CTabDlg@@IAEXAAVCWnd@@H@Z:PROC ; CTabDlg::RecalcLayoutCtrl
EXTRN	?OnCtlColor@CTabDlg@@IAEPAUHBRUSH__@@PAVCDC@@PAVCWnd@@I@Z:PROC ; CTabDlg::OnCtlColor
EXTRN	?OnInitDialog@CTabDlg@@MAEHXZ:PROC		; CTabDlg::OnInitDialog
EXTRN	?OnDestroy@CTabDlg@@IAEXXZ:PROC			; CTabDlg::OnDestroy
EXTRN	?GetThisMessageMap@CTabDlg@@KGPBUAFX_MSGMAP@@XZ:PROC ; CTabDlg::GetThisMessageMap
EXTRN	?SetCurSel@CXListCtrl@@QAEHHH@Z:PROC		; CXListCtrl::SetCurSel
EXTRN	??0CXListCtrlJongData@@QAE@XZ:PROC		; CXListCtrlJongData::CXListCtrlJongData
EXTRN	?Init@CXListCtrlJongData@@QAEXPAVCLeftBarDlg@@H@Z:PROC ; CXListCtrlJongData::Init
EXTRN	?InsertCodeData@CXListCtrlJongData@@QAEXPBD0V?$CStringT@DV?$StrTraitMFC_DLL@DV?$ChTraitsCRT@D@ATL@@@@@ATL@@111DH@Z:PROC ; CXListCtrlJongData::InsertCodeData
EXTRN	?GetCodeSelected@CXListCtrlJongData@@QAE?AV?$CStringT@DV?$StrTraitMFC_DLL@DV?$ChTraitsCRT@D@ATL@@@@@ATL@@H@Z:PROC ; CXListCtrlJongData::GetCodeSelected
EXTRN	?GetTimeSelected@CXListCtrlJongData@@QAE?AV?$CStringT@DV?$StrTraitMFC_DLL@DV?$ChTraitsCRT@D@ATL@@@@@ATL@@H@Z:PROC ; CXListCtrlJongData::GetTimeSelected
EXTRN	?GetCheckedCodes@CXListCtrlJongData@@QAE?AV?$CStringT@DV?$StrTraitMFC_DLL@DV?$ChTraitsCRT@D@ATL@@@@@ATL@@XZ:PROC ; CXListCtrlJongData::GetCheckedCodes
EXTRN	?RemoveAll@CXListCtrlJongData@@QAEHXZ:PROC	; CXListCtrlJongData::RemoveAll
EXTRN	?GetCodeData@CXListCtrlJongData@@QAEXHAAV?$CStringT@DV?$StrTraitMFC_DLL@DV?$ChTraitsCRT@D@ATL@@@@@ATL@@000AAD@Z:PROC ; CXListCtrlJongData::GetCodeData
EXTRN	?GetSelectedCodes@CXListCtrlJongData@@QAE?AV?$CStringT@DV?$StrTraitMFC_DLL@DV?$ChTraitsCRT@D@ATL@@@@@ATL@@XZ:PROC ; CXListCtrlJongData::GetSelectedCodes
EXTRN	?CheckJongmokCode@CXListCtrlJongData@@QAEXPAVCStringList@@0@Z:PROC ; CXListCtrlJongData::CheckJongmokCode
EXTRN	?GetCheckByJongmokCode@CXListCtrlJongData@@QAEHPBD@Z:PROC ; CXListCtrlJongData::GetCheckByJongmokCode
EXTRN	?UnHighlightByJongmokCode@CXListCtrlJongData@@QAEXPBD@Z:PROC ; CXListCtrlJongData::UnHighlightByJongmokCode
EXTRN	?SetCursorPrev@CXListCtrlJongData@@QAEXHH@Z:PROC ; CXListCtrlJongData::SetCursorPrev
EXTRN	?SetCursorNext@CXListCtrlJongData@@QAEHHH@Z:PROC ; CXListCtrlJongData::SetCursorNext
EXTRN	?GetCommentAboutHighlight@CXListCtrlJongData@@QAE?AV?$CStringT@DV?$StrTraitMFC_DLL@DV?$ChTraitsCRT@D@ATL@@@@@ATL@@XZ:PROC ; CXListCtrlJongData::GetCommentAboutHighlight
EXTRN	?GetListOfChecked@CXListCtrlJongData@@QAEXPAVCStringList@@@Z:PROC ; CXListCtrlJongData::GetListOfChecked
EXTRN	??1CXListCtrlJongData@@UAE@XZ:PROC		; CXListCtrlJongData::~CXListCtrlJongData
EXTRN	?GetCheckedCount@CXListCtrlJongData@@QAEIXZ:PROC ; CXListCtrlJongData::GetCheckedCount
EXTRN	?GetCheckedCodeList@CXListCtrlJongData@@QAE?AV?$CStringT@DV?$StrTraitMFC_DLL@DV?$ChTraitsCRT@D@ATL@@@@@ATL@@XZ:PROC ; CXListCtrlJongData::GetCheckedCodeList
EXTRN	?SetHeaderColor@CXListCtrlJongData@@QAEXKK@Z:PROC ; CXListCtrlJongData::SetHeaderColor
EXTRN	??0CySplitterWnd@@QAE@XZ:PROC			; CySplitterWnd::CySplitterWnd
EXTRN	?BindWithControl@CySplitterWnd@@QAE_NPAVCWnd@@K@Z:PROC ; CySplitterWnd::BindWithControl
EXTRN	?SetMinHeight@CySplitterWnd@@QAEXHH@Z:PROC	; CySplitterWnd::SetMinHeight
EXTRN	?AttachAsAboveCtrl@CySplitterWnd@@QAE_NH_N@Z:PROC ; CySplitterWnd::AttachAsAboveCtrl
EXTRN	?AttachAsBelowCtrl@CySplitterWnd@@QAE_NH_N@Z:PROC ; CySplitterWnd::AttachAsBelowCtrl
EXTRN	?RecalcLayout@CySplitterWnd@@QAEXXZ:PROC	; CySplitterWnd::RecalcLayout
EXTRN	??1CySplitterWnd@@UAE@XZ:PROC			; CySplitterWnd::~CySplitterWnd
EXTRN	??0CExComboBox@@QAE@H@Z:PROC			; CExComboBox::CExComboBox
EXTRN	??1CExComboBox@@UAE@XZ:PROC			; CExComboBox::~CExComboBox
EXTRN	?GetPacketFromOutSide@CLeftBarDlg@@QAE?AV?$CStringT@DV?$StrTraitMFC_DLL@DV?$ChTraitsCRT@D@ATL@@@@@ATL@@XZ:PROC ; CLeftBarDlg::GetPacketFromOutSide
EXTRN	??0CGfxOutBarCtrl@@QAE@XZ:PROC			; CGfxOutBarCtrl::CGfxOutBarCtrl
EXTRN	?GetFolderData@CGfxOutBarCtrl@@QAEKH@Z:PROC	; CGfxOutBarCtrl::GetFolderData
EXTRN	?SetFolderData@CGfxOutBarCtrl@@QAEXHK@Z:PROC	; CGfxOutBarCtrl::SetFolderData
EXTRN	?GetFolderText@CGfxOutBarCtrl@@QAE?AV?$CStringT@DV?$StrTraitMFC_DLL@DV?$ChTraitsCRT@D@ATL@@@@@ATL@@H@Z:PROC ; CGfxOutBarCtrl::GetFolderText
EXTRN	?GetFolderChild@CGfxOutBarCtrl@@QAEPAVCWnd@@H@Z:PROC ; CGfxOutBarCtrl::GetFolderChild
EXTRN	?AddFolderBar@CGfxOutBarCtrl@@QAEHPBDPAVCWnd@@K@Z:PROC ; CGfxOutBarCtrl::AddFolderBar
EXTRN	?GetFolderCount@CGfxOutBarCtrl@@QBEHXZ:PROC	; CGfxOutBarCtrl::GetFolderCount
EXTRN	?SetSelFolder@CGfxOutBarCtrl@@QAEXH@Z:PROC	; CGfxOutBarCtrl::SetSelFolder
EXTRN	?SetSelFolder@CGfxOutBarCtrl@@QAEHPBD@Z:PROC	; CGfxOutBarCtrl::SetSelFolder
EXTRN	?Create@CGfxOutBarCtrl@@QAEHKABUtagRECT@@PAVCWnd@@IK@Z:PROC ; CGfxOutBarCtrl::Create
EXTRN	??1CGfxOutBarCtrl@@UAE@XZ:PROC			; CGfxOutBarCtrl::~CGfxOutBarCtrl
EXTRN	?SetFolderImageList@CGfxOutBarCtrl@@QAEXPAVCImageList@@HHH@Z:PROC ; CGfxOutBarCtrl::SetFolderImageList
EXTRN	??0CTrTreeCtrl@@QAE@XZ:PROC			; CTrTreeCtrl::CTrTreeCtrl
EXTRN	?Create@CTrTreeCtrl@@QAEHKABUtagRECT@@PAVCWnd@@I@Z:PROC ; CTrTreeCtrl::Create
EXTRN	?ClickDefault@CTrTreeCtrl@@QAEXXZ:PROC		; CTrTreeCtrl::ClickDefault
EXTRN	??0CExGridCtrl@@QAE@HHHH@Z:PROC			; CExGridCtrl::CExGridCtrl
EXTRN	?Create@CExGridCtrl@@QAEHAAUtagRECT@@PAVCWnd@@IK@Z:PROC ; CExGridCtrl::Create
EXTRN	?GetRowCount@CExGridCtrl@@QAEHXZ:PROC		; CExGridCtrl::GetRowCount
EXTRN	?GetColumnCount@CExGridCtrl@@QAEHXZ:PROC	; CExGridCtrl::GetColumnCount
EXTRN	?SetRowCount@CExGridCtrl@@QAEHH@Z:PROC		; CExGridCtrl::SetRowCount
EXTRN	?SetColumnCount@CExGridCtrl@@QAEHH@Z:PROC	; CExGridCtrl::SetColumnCount
EXTRN	?SetFixedColumnCount@CExGridCtrl@@QAEHH@Z:PROC	; CExGridCtrl::SetFixedColumnCount
EXTRN	?SetRowHeight@CExGridCtrl@@QAEHHH@Z:PROC	; CExGridCtrl::SetRowHeight
EXTRN	?SetColumnWidth@CExGridCtrl@@QAEHHH@Z:PROC	; CExGridCtrl::SetColumnWidth
EXTRN	?SetGridLineColor@CExGridCtrl@@QAEXK@Z:PROC	; CExGridCtrl::SetGridLineColor
EXTRN	?SetHighlightColor@CExGridCtrl@@QAEXK@Z:PROC	; CExGridCtrl::SetHighlightColor
EXTRN	?SetGridColor@CExGridCtrl@@QAEXK@Z:PROC		; CExGridCtrl::SetGridColor
EXTRN	?SetBkColor@CExGridCtrl@@QAEXK@Z:PROC		; CExGridCtrl::SetBkColor
EXTRN	?SetEditable@CExGridCtrl@@QAEXH@Z:PROC		; CExGridCtrl::SetEditable
EXTRN	?EnableTitleTips@CExGridCtrl@@QAEXH@Z:PROC	; CExGridCtrl::EnableTitleTips
EXTRN	?EnableColumnHide@CExGridCtrl@@QAEXH@Z:PROC	; CExGridCtrl::EnableColumnHide
EXTRN	?EnableRowHide@CExGridCtrl@@QAEXH@Z:PROC	; CExGridCtrl::EnableRowHide
EXTRN	?SetItem@CExGridCtrl@@QAEHPAU_GV_ITEM@@@Z:PROC	; CExGridCtrl::SetItem
EXTRN	?SetItemText@CExGridCtrl@@QAEHHHPBD@Z:PROC	; CExGridCtrl::SetItemText
EXTRN	?GetItemText@CExGridCtrl@@QAE?AV?$CStringT@DV?$StrTraitMFC_DLL@DV?$ChTraitsCRT@D@ATL@@@@@ATL@@HH@Z:PROC ; CExGridCtrl::GetItemText
EXTRN	?SetItemData@CExGridCtrl@@QAEHHHJ@Z:PROC	; CExGridCtrl::SetItemData
EXTRN	?GetItemData@CExGridCtrl@@QAEJHH@Z:PROC		; CExGridCtrl::GetItemData
EXTRN	?SetItemFormat@CExGridCtrl@@QAEHHHI@Z:PROC	; CExGridCtrl::SetItemFormat
EXTRN	?SetItemBkColour@CExGridCtrl@@QAEHHHK@Z:PROC	; CExGridCtrl::SetItemBkColour
EXTRN	?SetItemFgColour@CExGridCtrl@@QAEHHHK@Z:PROC	; CExGridCtrl::SetItemFgColour
EXTRN	?Refresh@CExGridCtrl@@QAEXXZ:PROC		; CExGridCtrl::Refresh
EXTRN	??_E?$CList@PAVCCallPutItemData@@PAV1@@@UAEPAXI@Z:PROC ; CList<CCallPutItemData *,CCallPutItemData *>::`vector deleting destructor'
EXTRN	??_E?$CList@PAVCCallPutIMonthData@@PAV1@@@UAEPAXI@Z:PROC ; CList<CCallPutIMonthData *,CCallPutIMonthData *>::`vector deleting destructor'
EXTRN	??0CCondTarget@@QAE@XZ:PROC			; CCondTarget::CCondTarget
EXTRN	??1CCondTarget@@UAE@XZ:PROC			; CCondTarget::~CCondTarget
EXTRN	?ReceiveData@CCondTarget@@QAEXPAXJ@Z:PROC	; CCondTarget::ReceiveData
EXTRN	?SetGetBackData@CCondTarget@@QAEPAVCGetBackData@@V?$CStringT@DV?$StrTraitMFC_DLL@DV?$ChTraitsCRT@D@ATL@@@@@ATL@@@Z:PROC ; CCondTarget::SetGetBackData
EXTRN	?LoadTdfData@CCondTarget@@QAEXPAVCGetBackData@@@Z:PROC ; CCondTarget::LoadTdfData
EXTRN	?CheckTargetResult@CCondTarget@@QAEHV?$CStringT@DV?$StrTraitMFC_DLL@DV?$ChTraitsCRT@D@ATL@@@@@ATL@@@Z:PROC ; CCondTarget::CheckTargetResult
EXTRN	?OnWinixNotifyLoad@CTabCodeSearch@@IAEJIJ@Z:PROC ; CTabCodeSearch::OnWinixNotifyLoad
EXTRN	?OnWinixNotifySave@CTabCodeSearch@@IAEJIJ@Z:PROC ; CTabCodeSearch::OnWinixNotifySave
EXTRN	?OnWinixNotifyGroup@CTabCodeSearch@@IAEJIJ@Z:PROC ; CTabCodeSearch::OnWinixNotifyGroup
EXTRN	?OnWinixNotifyGroupList@CTabCodeSearch@@IAEJIJ@Z:PROC ; CTabCodeSearch::OnWinixNotifyGroupList
EXTRN	?OnWinixNotifySaveCode@CTabCodeSearch@@IAEJIJ@Z:PROC ; CTabCodeSearch::OnWinixNotifySaveCode
EXTRN	??_E?$CList@PAVCItemLongData@@PAV1@@@UAEPAXI@Z:PROC ; CList<CItemLongData *,CItemLongData *>::`vector deleting destructor'
EXTRN	?DoClearItemLongDataList@CTabCodeSearch@@IAEXXZ:PROC ; CTabCodeSearch::DoClearItemLongDataList
EXTRN	??_ECTabCodeSearch@@UAEPAXI@Z:PROC		; CTabCodeSearch::`vector deleting destructor'
EXTRN	?ShowAvgLine@CChartMng@@QAEXV?$CStringT@DV?$StrTraitMFC_DLL@DV?$ChTraitsCRT@D@ATL@@@@@ATL@@0@Z:PROC ; CChartMng::ShowAvgLine
EXTRN	?GetCurStatusInfo@CChartMng@@QAEXAADAAV?$CStringT@DV?$StrTraitMFC_DLL@DV?$ChTraitsCRT@D@ATL@@@@@ATL@@11AAJ@Z:PROC ; CChartMng::GetCurStatusInfo
EXTRN	?GetPacketCount@CChartMng@@QAEJPBD@Z:PROC	; CChartMng::GetPacketCount
EXTRN	?GetPacketIndex@CChartMng@@QAEFPBDN@Z:PROC	; CChartMng::GetPacketIndex
EXTRN	?GetPacketNearIndex@CChartMng@@QAEFPBDN@Z:PROC	; CChartMng::GetPacketNearIndex
EXTRN	?AddConcPacketData@CChartMng@@QAEXPBDH0H0H0H0H@Z:PROC ; CChartMng::AddConcPacketData
EXTRN	?RemoveConcPacketData@CChartMng@@QAEXXZ:PROC	; CChartMng::RemoveConcPacketData
EXTRN	?GetCurrentCode@CInputBarDlg@@QAE?AV?$CStringT@DV?$StrTraitMFC_DLL@DV?$ChTraitsCRT@D@ATL@@@@@ATL@@XZ:PROC ; CInputBarDlg::GetCurrentCode
EXTRN	?ChangeCode@CStdDialog@@QAEXPBDHH@Z:PROC	; CStdDialog::ChangeCode
EXTRN	?ChangeStockMode@CStdDialog@@QAEXH@Z:PROC	; CStdDialog::ChangeStockMode
EXTRN	?GetItemExpCode@CStdDialog@@QAE?AV?$CStringT@DV?$StrTraitMFC_DLL@DV?$ChTraitsCRT@D@ATL@@@@@ATL@@PBD@Z:PROC ; CStdDialog::GetItemExpCode
EXTRN	?GetScreenNo@CStdDialog@@QAE?AV?$CStringT@DV?$StrTraitMFC_DLL@DV?$ChTraitsCRT@D@ATL@@@@@ATL@@XZ:PROC ; CStdDialog::GetScreenNo
EXTRN	?IsChartScreen@CStdDialog@@QAEHPBD@Z:PROC	; CStdDialog::IsChartScreen
EXTRN	@__security_check_cookie@4:PROC
EXTRN	___CxxFrameHandler3:PROC
EXTRN	_memcpy:PROC
EXTRN	_memset:PROC
EXTRN	??_7type_info@@6B@:QWORD			; type_info::`vftable'
EXTRN	___security_cookie:DWORD
EXTRN	__fltused:DWORD
;	COMDAT ?_OptionsStorage@?1??__local_stdio_scanf_options@@9@4_KA
_BSS	SEGMENT
?_OptionsStorage@?1??__local_stdio_scanf_options@@9@4_KA DQ 01H DUP (?) ; `__local_stdio_scanf_options'::`2'::_OptionsStorage
_BSS	ENDS
_BSS	SEGMENT
?RMSG_INTERFACE@@3IB DD 01H DUP (?)			; RMSG_INTERFACE
?RMSG_CONCERNHWND@@3IB DD 01H DUP (?)			; RMSG_CONCERNHWND
?RMSG_INTREQUEST@@3IB DD 01H DUP (?)			; RMSG_INTREQUEST
?RMSG_GETSIGNAL_REAL@@3IB DD 01H DUP (?)		; RMSG_GETSIGNAL_REAL
?RMSG_SETQUERYOPT@@3IB DD 01H DUP (?)			; RMSG_SETQUERYOPT
?RMSG_CHARTMAIN@@3IB DD 01H DUP (?)			; RMSG_CHARTMAIN
?RMS_ANALYSIS_FUNC@@3IB DD 01H DUP (?)			; RMS_ANALYSIS_FUNC
?RMSG_GET_USERID@@3IB DD 01H DUP (?)			; RMSG_GET_USERID
?RMSG_CHANGE_SKINCOLOR@@3IB DD 01H DUP (?)		; RMSG_CHANGE_SKINCOLOR
?RMSG_GET_SKINCOLOR@@3IB DD 01H DUP (?)			; RMSG_GET_SKINCOLOR
?RMSG_CHANGEVERTSCALETYPE@@3IB DD 01H DUP (?)		; RMSG_CHANGEVERTSCALETYPE
?RMSG_CHANGE_CROSSLINE@@3IB DD 01H DUP (?)		; RMSG_CHANGE_CROSSLINE
?RMSG_ADD_PLATFORM_MENU@@3IB DD 01H DUP (?)		; RMSG_ADD_PLATFORM_MENU
?RMSG_SETINITIALCHARTDATA@@3IB DD 01H DUP (?)		; RMSG_SETINITIALCHARTDATA
?RMSG_GETINFO@@3IB DD 01H DUP (?)			; RMSG_GETINFO
?RMSG_SETINFO@@3IB DD 01H DUP (?)			; RMSG_SETINFO
?RMSG_DRUSER@@3IB DD 01H DUP (?)			; RMSG_DRUSER
?RMSG_DRAGSTART@@3IB DD 01H DUP (?)			; RMSG_DRAGSTART
?RMSG_DRAGEND@@3IB DD 01H DUP (?)			; RMSG_DRAGEND
?RMSG_REPLAY_REAL@@3IB DD 01H DUP (?)			; RMSG_REPLAY_REAL
?RMSG_REPLAY_FAIL@@3IB DD 01H DUP (?)			; RMSG_REPLAY_FAIL
?RMSG_REPLAY_CHANGE_DATE@@3IB DD 01H DUP (?)		; RMSG_REPLAY_CHANGE_DATE
?RMSG_REPLAY_END@@3IB DD 01H DUP (?)			; RMSG_REPLAY_END
?RMSG_REPLAY_INC_SEC@@3IB DD 01H DUP (?)		; RMSG_REPLAY_INC_SEC
?RMSG_REPLAY_TOTAL_SEC@@3IB DD 01H DUP (?)		; RMSG_REPLAY_TOTAL_SEC
?RMSG_ADDACCOUNTCODE@@3IB DD 01H DUP (?)		; RMSG_ADDACCOUNTCODE
?RMSG_CHECKAVGPRICE@@3IB DD 01H DUP (?)			; RMSG_CHECKAVGPRICE
?RMSG_GETCURCHARTINFO@@3IB DD 01H DUP (?)		; RMSG_GETCURCHARTINFO
?RMSG_ADDACCOUNTCONC@@3IB DD 01H DUP (?)		; RMSG_ADDACCOUNTCONC
?RMSG_RESETCONCDATA@@3IB DD 01H DUP (?)			; RMSG_RESETCONCDATA
?RMSG_GETINTERFACE@@3IB DD 01H DUP (?)			; RMSG_GETINTERFACE
?RMSG_WMSIZE@@3IB DD 01H DUP (?)			; RMSG_WMSIZE
?RMSG_TABCODESEARCH@@3IB DD 01H DUP (?)			; RMSG_TABCODESEARCH
_BSS	ENDS
;	COMDAT CRT$XCU
CRT$XCU	SEGMENT
?_AtlWinModule$initializer$@ATL@@3P6AXXZA DD FLAT:??__E_AtlWinModule@ATL@@YAXXZ ; ATL::_AtlWinModule$initializer$
CRT$XCU	ENDS
;	COMDAT __xmm@00000064000000640000000000000000
CONST	SEGMENT
__xmm@00000064000000640000000000000000 DB 00H, 00H, 00H, 00H, 00H, 00H, 00H
	DB	00H, 'd', 00H, 00H, 00H, 'd', 00H, 00H, 00H
CONST	ENDS
;	COMDAT ??_R1A@?0A@EA@CMyITrCommSite@CTabCodeSearch@@8
rdata$r	SEGMENT
??_R1A@?0A@EA@CMyITrCommSite@CTabCodeSearch@@8 DD FLAT:??_R0?AVCMyITrCommSite@CTabCodeSearch@@@8 ; CTabCodeSearch::CMyITrCommSite::`RTTI Base Class Descriptor at (0,-1,0,64)'
	DD	01H
	DD	00H
	DD	0ffffffffH
	DD	00H
	DD	040H
	DD	FLAT:??_R3CMyITrCommSite@CTabCodeSearch@@8
rdata$r	ENDS
;	COMDAT ??_R2CMyITrCommSite@CTabCodeSearch@@8
rdata$r	SEGMENT
??_R2CMyITrCommSite@CTabCodeSearch@@8 DD FLAT:??_R1A@?0A@EA@CMyITrCommSite@CTabCodeSearch@@8 ; CTabCodeSearch::CMyITrCommSite::`RTTI Base Class Array'
	DD	FLAT:??_R1A@?0A@EA@ITrCommSite@@8
rdata$r	ENDS
;	COMDAT ??_R3CMyITrCommSite@CTabCodeSearch@@8
rdata$r	SEGMENT
??_R3CMyITrCommSite@CTabCodeSearch@@8 DD 00H		; CTabCodeSearch::CMyITrCommSite::`RTTI Class Hierarchy Descriptor'
	DD	00H
	DD	02H
	DD	FLAT:??_R2CMyITrCommSite@CTabCodeSearch@@8
rdata$r	ENDS
;	COMDAT ??_R0?AVCMyITrCommSite@CTabCodeSearch@@@8
data$rs	SEGMENT
??_R0?AVCMyITrCommSite@CTabCodeSearch@@@8 DD FLAT:??_7type_info@@6B@ ; CTabCodeSearch::CMyITrCommSite `RTTI Type Descriptor'
	DD	00H
	DB	'.?AVCMyITrCommSite@CTabCodeSearch@@', 00H
data$rs	ENDS
;	COMDAT ??_R4CMyITrCommSite@CTabCodeSearch@@6B@
rdata$r	SEGMENT
??_R4CMyITrCommSite@CTabCodeSearch@@6B@ DD 00H		; CTabCodeSearch::CMyITrCommSite::`RTTI Complete Object Locator'
	DD	00H
	DD	00H
	DD	FLAT:??_R0?AVCMyITrCommSite@CTabCodeSearch@@@8
	DD	FLAT:??_R3CMyITrCommSite@CTabCodeSearch@@8
rdata$r	ENDS
;	COMDAT ??_R1A@?0A@EA@CTLMCallback@CTabCodeSearch@@8
rdata$r	SEGMENT
??_R1A@?0A@EA@CTLMCallback@CTabCodeSearch@@8 DD FLAT:??_R0?AVCTLMCallback@CTabCodeSearch@@@8 ; CTabCodeSearch::CTLMCallback::`RTTI Base Class Descriptor at (0,-1,0,64)'
	DD	01H
	DD	00H
	DD	0ffffffffH
	DD	00H
	DD	040H
	DD	FLAT:??_R3CTLMCallback@CTabCodeSearch@@8
rdata$r	ENDS
;	COMDAT ??_R2CTLMCallback@CTabCodeSearch@@8
rdata$r	SEGMENT
??_R2CTLMCallback@CTabCodeSearch@@8 DD FLAT:??_R1A@?0A@EA@CTLMCallback@CTabCodeSearch@@8 ; CTabCodeSearch::CTLMCallback::`RTTI Base Class Array'
	DD	FLAT:??_R1A@?0A@EA@ITLMCallback@@8
rdata$r	ENDS
;	COMDAT ??_R3CTLMCallback@CTabCodeSearch@@8
rdata$r	SEGMENT
??_R3CTLMCallback@CTabCodeSearch@@8 DD 00H		; CTabCodeSearch::CTLMCallback::`RTTI Class Hierarchy Descriptor'
	DD	00H
	DD	02H
	DD	FLAT:??_R2CTLMCallback@CTabCodeSearch@@8
rdata$r	ENDS
;	COMDAT ??_R0?AVCTLMCallback@CTabCodeSearch@@@8
data$rs	SEGMENT
??_R0?AVCTLMCallback@CTabCodeSearch@@@8 DD FLAT:??_7type_info@@6B@ ; CTabCodeSearch::CTLMCallback `RTTI Type Descriptor'
	DD	00H
	DB	'.?AVCTLMCallback@CTabCodeSearch@@', 00H
data$rs	ENDS
;	COMDAT ??_R4CTLMCallback@CTabCodeSearch@@6B@
rdata$r	SEGMENT
??_R4CTLMCallback@CTabCodeSearch@@6B@ DD 00H		; CTabCodeSearch::CTLMCallback::`RTTI Complete Object Locator'
	DD	00H
	DD	00H
	DD	FLAT:??_R0?AVCTLMCallback@CTabCodeSearch@@@8
	DD	FLAT:??_R3CTLMCallback@CTabCodeSearch@@8
rdata$r	ENDS
;	COMDAT ??_R2CRscDlg@@8
rdata$r	SEGMENT
??_R2CRscDlg@@8 DD FLAT:??_R1A@?0A@EA@CRscDlg@@8	; CRscDlg::`RTTI Base Class Array'
	DD	FLAT:??_R1A@?0A@EA@CDialog@@8
	DD	FLAT:??_R1A@?0A@EA@CWnd@@8
	DD	FLAT:??_R1A@?0A@EA@CCmdTarget@@8
	DD	FLAT:??_R1A@?0A@EA@CObject@@8
rdata$r	ENDS
;	COMDAT ??_R3CRscDlg@@8
rdata$r	SEGMENT
??_R3CRscDlg@@8 DD 00H					; CRscDlg::`RTTI Class Hierarchy Descriptor'
	DD	00H
	DD	05H
	DD	FLAT:??_R2CRscDlg@@8
rdata$r	ENDS
;	COMDAT ??_R0?AVCRscDlg@@@8
data$rs	SEGMENT
??_R0?AVCRscDlg@@@8 DD FLAT:??_7type_info@@6B@		; CRscDlg `RTTI Type Descriptor'
	DD	00H
	DB	'.?AVCRscDlg@@', 00H
data$rs	ENDS
;	COMDAT ??_R1A@?0A@EA@CRscDlg@@8
rdata$r	SEGMENT
??_R1A@?0A@EA@CRscDlg@@8 DD FLAT:??_R0?AVCRscDlg@@@8	; CRscDlg::`RTTI Base Class Descriptor at (0,-1,0,64)'
	DD	04H
	DD	00H
	DD	0ffffffffH
	DD	00H
	DD	040H
	DD	FLAT:??_R3CRscDlg@@8
rdata$r	ENDS
;	COMDAT ??_R2CTabDlg@@8
rdata$r	SEGMENT
??_R2CTabDlg@@8 DD FLAT:??_R1A@?0A@EA@CTabDlg@@8	; CTabDlg::`RTTI Base Class Array'
	DD	FLAT:??_R1A@?0A@EA@CRscDlg@@8
	DD	FLAT:??_R1A@?0A@EA@CDialog@@8
	DD	FLAT:??_R1A@?0A@EA@CWnd@@8
	DD	FLAT:??_R1A@?0A@EA@CCmdTarget@@8
	DD	FLAT:??_R1A@?0A@EA@CObject@@8
rdata$r	ENDS
;	COMDAT ??_R3CTabDlg@@8
rdata$r	SEGMENT
??_R3CTabDlg@@8 DD 00H					; CTabDlg::`RTTI Class Hierarchy Descriptor'
	DD	00H
	DD	06H
	DD	FLAT:??_R2CTabDlg@@8
rdata$r	ENDS
;	COMDAT ??_R0?AVCTabDlg@@@8
data$rs	SEGMENT
??_R0?AVCTabDlg@@@8 DD FLAT:??_7type_info@@6B@		; CTabDlg `RTTI Type Descriptor'
	DD	00H
	DB	'.?AVCTabDlg@@', 00H
data$rs	ENDS
;	COMDAT ??_R1A@?0A@EA@CTabDlg@@8
rdata$r	SEGMENT
??_R1A@?0A@EA@CTabDlg@@8 DD FLAT:??_R0?AVCTabDlg@@@8	; CTabDlg::`RTTI Base Class Descriptor at (0,-1,0,64)'
	DD	05H
	DD	00H
	DD	0ffffffffH
	DD	00H
	DD	040H
	DD	FLAT:??_R3CTabDlg@@8
rdata$r	ENDS
;	COMDAT ??_R1A@?0A@EA@CTabCodeSearch@@8
rdata$r	SEGMENT
??_R1A@?0A@EA@CTabCodeSearch@@8 DD FLAT:??_R0?AVCTabCodeSearch@@@8 ; CTabCodeSearch::`RTTI Base Class Descriptor at (0,-1,0,64)'
	DD	06H
	DD	00H
	DD	0ffffffffH
	DD	00H
	DD	040H
	DD	FLAT:??_R3CTabCodeSearch@@8
rdata$r	ENDS
;	COMDAT ??_R2CTabCodeSearch@@8
rdata$r	SEGMENT
??_R2CTabCodeSearch@@8 DD FLAT:??_R1A@?0A@EA@CTabCodeSearch@@8 ; CTabCodeSearch::`RTTI Base Class Array'
	DD	FLAT:??_R1A@?0A@EA@CTabDlg@@8
	DD	FLAT:??_R1A@?0A@EA@CRscDlg@@8
	DD	FLAT:??_R1A@?0A@EA@CDialog@@8
	DD	FLAT:??_R1A@?0A@EA@CWnd@@8
	DD	FLAT:??_R1A@?0A@EA@CCmdTarget@@8
	DD	FLAT:??_R1A@?0A@EA@CObject@@8
rdata$r	ENDS
;	COMDAT ??_R3CTabCodeSearch@@8
rdata$r	SEGMENT
??_R3CTabCodeSearch@@8 DD 00H				; CTabCodeSearch::`RTTI Class Hierarchy Descriptor'
	DD	00H
	DD	07H
	DD	FLAT:??_R2CTabCodeSearch@@8
rdata$r	ENDS
;	COMDAT ??_R0?AVCTabCodeSearch@@@8
data$rs	SEGMENT
??_R0?AVCTabCodeSearch@@@8 DD FLAT:??_7type_info@@6B@	; CTabCodeSearch `RTTI Type Descriptor'
	DD	00H
	DB	'.?AVCTabCodeSearch@@', 00H
data$rs	ENDS
;	COMDAT ??_R4CTabCodeSearch@@6B@
rdata$r	SEGMENT
??_R4CTabCodeSearch@@6B@ DD 00H				; CTabCodeSearch::`RTTI Complete Object Locator'
	DD	00H
	DD	00H
	DD	FLAT:??_R0?AVCTabCodeSearch@@@8
	DD	FLAT:??_R3CTabCodeSearch@@8
rdata$r	ENDS
;	COMDAT ??_R1A@?0A@EA@?$CList@PAVCCallPutIMonthData@@PAV1@@@8
rdata$r	SEGMENT
??_R1A@?0A@EA@?$CList@PAVCCallPutIMonthData@@PAV1@@@8 DD FLAT:??_R0?AV?$CList@PAVCCallPutIMonthData@@PAV1@@@@8 ; CList<CCallPutIMonthData *,CCallPutIMonthData *>::`RTTI Base Class Descriptor at (0,-1,0,64)'
	DD	01H
	DD	00H
	DD	0ffffffffH
	DD	00H
	DD	040H
	DD	FLAT:??_R3?$CList@PAVCCallPutIMonthData@@PAV1@@@8
rdata$r	ENDS
;	COMDAT ??_R2?$CList@PAVCCallPutIMonthData@@PAV1@@@8
rdata$r	SEGMENT
??_R2?$CList@PAVCCallPutIMonthData@@PAV1@@@8 DD FLAT:??_R1A@?0A@EA@?$CList@PAVCCallPutIMonthData@@PAV1@@@8 ; CList<CCallPutIMonthData *,CCallPutIMonthData *>::`RTTI Base Class Array'
	DD	FLAT:??_R1A@?0A@EA@CObject@@8
rdata$r	ENDS
;	COMDAT ??_R3?$CList@PAVCCallPutIMonthData@@PAV1@@@8
rdata$r	SEGMENT
??_R3?$CList@PAVCCallPutIMonthData@@PAV1@@@8 DD 00H	; CList<CCallPutIMonthData *,CCallPutIMonthData *>::`RTTI Class Hierarchy Descriptor'
	DD	00H
	DD	02H
	DD	FLAT:??_R2?$CList@PAVCCallPutIMonthData@@PAV1@@@8
rdata$r	ENDS
;	COMDAT ??_R0?AV?$CList@PAVCCallPutIMonthData@@PAV1@@@@8
data$rs	SEGMENT
??_R0?AV?$CList@PAVCCallPutIMonthData@@PAV1@@@@8 DD FLAT:??_7type_info@@6B@ ; CList<CCallPutIMonthData *,CCallPutIMonthData *> `RTTI Type Descriptor'
	DD	00H
	DB	'.?AV?$CList@PAVCCallPutIMonthData@@PAV1@@@', 00H
data$rs	ENDS
;	COMDAT ??_R4?$CList@PAVCCallPutIMonthData@@PAV1@@@6B@
rdata$r	SEGMENT
??_R4?$CList@PAVCCallPutIMonthData@@PAV1@@@6B@ DD 00H	; CList<CCallPutIMonthData *,CCallPutIMonthData *>::`RTTI Complete Object Locator'
	DD	00H
	DD	00H
	DD	FLAT:??_R0?AV?$CList@PAVCCallPutIMonthData@@PAV1@@@@8
	DD	FLAT:??_R3?$CList@PAVCCallPutIMonthData@@PAV1@@@8
rdata$r	ENDS
;	COMDAT ??_R1A@?0A@EA@?$CList@PAVCCallPutItemData@@PAV1@@@8
rdata$r	SEGMENT
??_R1A@?0A@EA@?$CList@PAVCCallPutItemData@@PAV1@@@8 DD FLAT:??_R0?AV?$CList@PAVCCallPutItemData@@PAV1@@@@8 ; CList<CCallPutItemData *,CCallPutItemData *>::`RTTI Base Class Descriptor at (0,-1,0,64)'
	DD	01H
	DD	00H
	DD	0ffffffffH
	DD	00H
	DD	040H
	DD	FLAT:??_R3?$CList@PAVCCallPutItemData@@PAV1@@@8
rdata$r	ENDS
;	COMDAT ??_R2?$CList@PAVCCallPutItemData@@PAV1@@@8
rdata$r	SEGMENT
??_R2?$CList@PAVCCallPutItemData@@PAV1@@@8 DD FLAT:??_R1A@?0A@EA@?$CList@PAVCCallPutItemData@@PAV1@@@8 ; CList<CCallPutItemData *,CCallPutItemData *>::`RTTI Base Class Array'
	DD	FLAT:??_R1A@?0A@EA@CObject@@8
rdata$r	ENDS
;	COMDAT ??_R3?$CList@PAVCCallPutItemData@@PAV1@@@8
rdata$r	SEGMENT
??_R3?$CList@PAVCCallPutItemData@@PAV1@@@8 DD 00H	; CList<CCallPutItemData *,CCallPutItemData *>::`RTTI Class Hierarchy Descriptor'
	DD	00H
	DD	02H
	DD	FLAT:??_R2?$CList@PAVCCallPutItemData@@PAV1@@@8
rdata$r	ENDS
;	COMDAT ??_R0?AV?$CList@PAVCCallPutItemData@@PAV1@@@@8
data$rs	SEGMENT
??_R0?AV?$CList@PAVCCallPutItemData@@PAV1@@@@8 DD FLAT:??_7type_info@@6B@ ; CList<CCallPutItemData *,CCallPutItemData *> `RTTI Type Descriptor'
	DD	00H
	DB	'.?AV?$CList@PAVCCallPutItemData@@PAV1@@@', 00H
data$rs	ENDS
;	COMDAT ??_R4?$CList@PAVCCallPutItemData@@PAV1@@@6B@
rdata$r	SEGMENT
??_R4?$CList@PAVCCallPutItemData@@PAV1@@@6B@ DD 00H	; CList<CCallPutItemData *,CCallPutItemData *>::`RTTI Complete Object Locator'
	DD	00H
	DD	00H
	DD	FLAT:??_R0?AV?$CList@PAVCCallPutItemData@@PAV1@@@@8
	DD	FLAT:??_R3?$CList@PAVCCallPutItemData@@PAV1@@@8
rdata$r	ENDS
;	COMDAT ??_R1A@?0A@EA@CCodeTypeB@@8
rdata$r	SEGMENT
??_R1A@?0A@EA@CCodeTypeB@@8 DD FLAT:??_R0?AVCCodeTypeB@@@8 ; CCodeTypeB::`RTTI Base Class Descriptor at (0,-1,0,64)'
	DD	01H
	DD	00H
	DD	0ffffffffH
	DD	00H
	DD	040H
	DD	FLAT:??_R3CCodeTypeB@@8
rdata$r	ENDS
;	COMDAT ??_R2CCodeTypeB@@8
rdata$r	SEGMENT
??_R2CCodeTypeB@@8 DD FLAT:??_R1A@?0A@EA@CCodeTypeB@@8	; CCodeTypeB::`RTTI Base Class Array'
	DD	FLAT:??_R1A@?0A@EA@CCodeTypeBase@@8
rdata$r	ENDS
;	COMDAT ??_R3CCodeTypeB@@8
rdata$r	SEGMENT
??_R3CCodeTypeB@@8 DD 00H				; CCodeTypeB::`RTTI Class Hierarchy Descriptor'
	DD	00H
	DD	02H
	DD	FLAT:??_R2CCodeTypeB@@8
rdata$r	ENDS
;	COMDAT ??_R0?AVCCodeTypeB@@@8
data$rs	SEGMENT
??_R0?AVCCodeTypeB@@@8 DD FLAT:??_7type_info@@6B@	; CCodeTypeB `RTTI Type Descriptor'
	DD	00H
	DB	'.?AVCCodeTypeB@@', 00H
data$rs	ENDS
;	COMDAT ??_R4CCodeTypeB@@6B@
rdata$r	SEGMENT
??_R4CCodeTypeB@@6B@ DD 00H				; CCodeTypeB::`RTTI Complete Object Locator'
	DD	00H
	DD	00H
	DD	FLAT:??_R0?AVCCodeTypeB@@@8
	DD	FLAT:??_R3CCodeTypeB@@8
rdata$r	ENDS
;	COMDAT ??_R1A@?0A@EA@CCodeTypeA@@8
rdata$r	SEGMENT
??_R1A@?0A@EA@CCodeTypeA@@8 DD FLAT:??_R0?AVCCodeTypeA@@@8 ; CCodeTypeA::`RTTI Base Class Descriptor at (0,-1,0,64)'
	DD	01H
	DD	00H
	DD	0ffffffffH
	DD	00H
	DD	040H
	DD	FLAT:??_R3CCodeTypeA@@8
rdata$r	ENDS
;	COMDAT ??_R2CCodeTypeA@@8
rdata$r	SEGMENT
??_R2CCodeTypeA@@8 DD FLAT:??_R1A@?0A@EA@CCodeTypeA@@8	; CCodeTypeA::`RTTI Base Class Array'
	DD	FLAT:??_R1A@?0A@EA@CCodeTypeBase@@8
rdata$r	ENDS
;	COMDAT ??_R3CCodeTypeA@@8
rdata$r	SEGMENT
??_R3CCodeTypeA@@8 DD 00H				; CCodeTypeA::`RTTI Class Hierarchy Descriptor'
	DD	00H
	DD	02H
	DD	FLAT:??_R2CCodeTypeA@@8
rdata$r	ENDS
;	COMDAT ??_R0?AVCCodeTypeA@@@8
data$rs	SEGMENT
??_R0?AVCCodeTypeA@@@8 DD FLAT:??_7type_info@@6B@	; CCodeTypeA `RTTI Type Descriptor'
	DD	00H
	DB	'.?AVCCodeTypeA@@', 00H
data$rs	ENDS
;	COMDAT ??_R4CCodeTypeA@@6B@
rdata$r	SEGMENT
??_R4CCodeTypeA@@6B@ DD 00H				; CCodeTypeA::`RTTI Complete Object Locator'
	DD	00H
	DD	00H
	DD	FLAT:??_R0?AVCCodeTypeA@@@8
	DD	FLAT:??_R3CCodeTypeA@@8
rdata$r	ENDS
;	COMDAT ??_R1A@?0A@EA@CCodeTypeBase@@8
rdata$r	SEGMENT
??_R1A@?0A@EA@CCodeTypeBase@@8 DD FLAT:??_R0?AVCCodeTypeBase@@@8 ; CCodeTypeBase::`RTTI Base Class Descriptor at (0,-1,0,64)'
	DD	00H
	DD	00H
	DD	0ffffffffH
	DD	00H
	DD	040H
	DD	FLAT:??_R3CCodeTypeBase@@8
rdata$r	ENDS
;	COMDAT ??_R2CCodeTypeBase@@8
rdata$r	SEGMENT
??_R2CCodeTypeBase@@8 DD FLAT:??_R1A@?0A@EA@CCodeTypeBase@@8 ; CCodeTypeBase::`RTTI Base Class Array'
rdata$r	ENDS
;	COMDAT ??_R3CCodeTypeBase@@8
rdata$r	SEGMENT
??_R3CCodeTypeBase@@8 DD 00H				; CCodeTypeBase::`RTTI Class Hierarchy Descriptor'
	DD	00H
	DD	01H
	DD	FLAT:??_R2CCodeTypeBase@@8
rdata$r	ENDS
;	COMDAT ??_R0?AVCCodeTypeBase@@@8
data$rs	SEGMENT
??_R0?AVCCodeTypeBase@@@8 DD FLAT:??_7type_info@@6B@	; CCodeTypeBase `RTTI Type Descriptor'
	DD	00H
	DB	'.?AVCCodeTypeBase@@', 00H
data$rs	ENDS
;	COMDAT ??_R4CCodeTypeBase@@6B@
rdata$r	SEGMENT
??_R4CCodeTypeBase@@6B@ DD 00H				; CCodeTypeBase::`RTTI Complete Object Locator'
	DD	00H
	DD	00H
	DD	FLAT:??_R0?AVCCodeTypeBase@@@8
	DD	FLAT:??_R3CCodeTypeBase@@8
rdata$r	ENDS
;	COMDAT ??_R1A@?0A@EA@?$CList@PAVCItemLongData@@PAV1@@@8
rdata$r	SEGMENT
??_R1A@?0A@EA@?$CList@PAVCItemLongData@@PAV1@@@8 DD FLAT:??_R0?AV?$CList@PAVCItemLongData@@PAV1@@@@8 ; CList<CItemLongData *,CItemLongData *>::`RTTI Base Class Descriptor at (0,-1,0,64)'
	DD	01H
	DD	00H
	DD	0ffffffffH
	DD	00H
	DD	040H
	DD	FLAT:??_R3?$CList@PAVCItemLongData@@PAV1@@@8
rdata$r	ENDS
;	COMDAT ??_R2?$CList@PAVCItemLongData@@PAV1@@@8
rdata$r	SEGMENT
??_R2?$CList@PAVCItemLongData@@PAV1@@@8 DD FLAT:??_R1A@?0A@EA@?$CList@PAVCItemLongData@@PAV1@@@8 ; CList<CItemLongData *,CItemLongData *>::`RTTI Base Class Array'
	DD	FLAT:??_R1A@?0A@EA@CObject@@8
rdata$r	ENDS
;	COMDAT ??_R3?$CList@PAVCItemLongData@@PAV1@@@8
rdata$r	SEGMENT
??_R3?$CList@PAVCItemLongData@@PAV1@@@8 DD 00H		; CList<CItemLongData *,CItemLongData *>::`RTTI Class Hierarchy Descriptor'
	DD	00H
	DD	02H
	DD	FLAT:??_R2?$CList@PAVCItemLongData@@PAV1@@@8
rdata$r	ENDS
;	COMDAT ??_R0?AV?$CList@PAVCItemLongData@@PAV1@@@@8
data$rs	SEGMENT
??_R0?AV?$CList@PAVCItemLongData@@PAV1@@@@8 DD FLAT:??_7type_info@@6B@ ; CList<CItemLongData *,CItemLongData *> `RTTI Type Descriptor'
	DD	00H
	DB	'.?AV?$CList@PAVCItemLongData@@PAV1@@@', 00H
data$rs	ENDS
;	COMDAT ??_R4?$CList@PAVCItemLongData@@PAV1@@@6B@
rdata$r	SEGMENT
??_R4?$CList@PAVCItemLongData@@PAV1@@@6B@ DD 00H	; CList<CItemLongData *,CItemLongData *>::`RTTI Complete Object Locator'
	DD	00H
	DD	00H
	DD	FLAT:??_R0?AV?$CList@PAVCItemLongData@@PAV1@@@@8
	DD	FLAT:??_R3?$CList@PAVCItemLongData@@PAV1@@@8
rdata$r	ENDS
;	COMDAT ??_R1A@?0A@EA@ITLMCallback@@8
rdata$r	SEGMENT
??_R1A@?0A@EA@ITLMCallback@@8 DD FLAT:??_R0?AUITLMCallback@@@8 ; ITLMCallback::`RTTI Base Class Descriptor at (0,-1,0,64)'
	DD	00H
	DD	00H
	DD	0ffffffffH
	DD	00H
	DD	040H
	DD	FLAT:??_R3ITLMCallback@@8
rdata$r	ENDS
;	COMDAT ??_R2ITLMCallback@@8
rdata$r	SEGMENT
??_R2ITLMCallback@@8 DD FLAT:??_R1A@?0A@EA@ITLMCallback@@8 ; ITLMCallback::`RTTI Base Class Array'
rdata$r	ENDS
;	COMDAT ??_R3ITLMCallback@@8
rdata$r	SEGMENT
??_R3ITLMCallback@@8 DD 00H				; ITLMCallback::`RTTI Class Hierarchy Descriptor'
	DD	00H
	DD	01H
	DD	FLAT:??_R2ITLMCallback@@8
rdata$r	ENDS
;	COMDAT ??_R0?AUITLMCallback@@@8
data$rs	SEGMENT
??_R0?AUITLMCallback@@@8 DD FLAT:??_7type_info@@6B@	; ITLMCallback `RTTI Type Descriptor'
	DD	00H
	DB	'.?AUITLMCallback@@', 00H
data$rs	ENDS
;	COMDAT ??_R1A@?0A@EA@ITrCommSite@@8
rdata$r	SEGMENT
??_R1A@?0A@EA@ITrCommSite@@8 DD FLAT:??_R0?AUITrCommSite@@@8 ; ITrCommSite::`RTTI Base Class Descriptor at (0,-1,0,64)'
	DD	00H
	DD	00H
	DD	0ffffffffH
	DD	00H
	DD	040H
	DD	FLAT:??_R3ITrCommSite@@8
rdata$r	ENDS
;	COMDAT ??_R2ITrCommSite@@8
rdata$r	SEGMENT
??_R2ITrCommSite@@8 DD FLAT:??_R1A@?0A@EA@ITrCommSite@@8 ; ITrCommSite::`RTTI Base Class Array'
rdata$r	ENDS
;	COMDAT ??_R3ITrCommSite@@8
rdata$r	SEGMENT
??_R3ITrCommSite@@8 DD 00H				; ITrCommSite::`RTTI Class Hierarchy Descriptor'
	DD	00H
	DD	01H
	DD	FLAT:??_R2ITrCommSite@@8
rdata$r	ENDS
;	COMDAT ??_R0?AUITrCommSite@@@8
data$rs	SEGMENT
??_R0?AUITrCommSite@@@8 DD FLAT:??_7type_info@@6B@	; ITrCommSite `RTTI Type Descriptor'
	DD	00H
	DB	'.?AUITrCommSite@@', 00H
data$rs	ENDS
;	COMDAT ??_C@_0L@OLKNJBLH@_DateTime_@
CONST	SEGMENT
??_C@_0L@OLKNJBLH@_DateTime_@ DB '_DateTime_', 00H	; `string'
CONST	ENDS
;	COMDAT ??_C@_04HDOCAJNK@?$CFs?$CFs@
CONST	SEGMENT
??_C@_04HDOCAJNK@?$CFs?$CFs@ DB '%s%s', 00H		; `string'
CONST	ENDS
;	COMDAT ??_C@_08CDGFJGJK@?$MA?Z?$LH?a?$MA?O?$MA?Z@
CONST	SEGMENT
??_C@_08CDGFJGJK@?$MA?Z?$LH?a?$MA?O?$MA?Z@ DB 0c0H, 0daH, 0b7H, 0e1H, 0c0H
	DB	0cfH, 0c0H, 0daH, 00H			; `string'
CONST	ENDS
;	COMDAT ??_C@_04LCFLHEIH@?$CFs00@
CONST	SEGMENT
??_C@_04LCFLHEIH@?$CFs00@ DB '%s00', 00H		; `string'
CONST	ENDS
;	COMDAT ??_C@_01JOAMLHOP@?9@
CONST	SEGMENT
??_C@_01JOAMLHOP@?9@ DB '-', 00H			; `string'
CONST	ENDS
;	COMDAT ??_C@_01IHBHIGKO@?0@
CONST	SEGMENT
??_C@_01IHBHIGKO@?0@ DB ',', 00H			; `string'
CONST	ENDS
;	COMDAT ??_C@_05NKCIDMAJ@?$CF9?49s@
CONST	SEGMENT
??_C@_05NKCIDMAJ@?$CF9?49s@ DB '%9.9s', 00H		; `string'
CONST	ENDS
;	COMDAT ??_C@_07BEGHJBJI@?$CF20?420s@
CONST	SEGMENT
??_C@_07BEGHJBJI@?$CF20?420s@ DB '%20.20s', 00H		; `string'
CONST	ENDS
;	COMDAT ??_C@_05FDCEOMOF@?$CF6?46s@
CONST	SEGMENT
??_C@_05FDCEOMOF@?$CF6?46s@ DB '%6.6s', 00H		; `string'
CONST	ENDS
;	COMDAT ??_C@_07HJHGFBIO@?$CF12?412s@
CONST	SEGMENT
??_C@_07HJHGFBIO@?$CF12?412s@ DB '%12.12s', 00H		; `string'
CONST	ENDS
;	COMDAT ??_C@_02KCECDBDA@?C?J@
CONST	SEGMENT
??_C@_02KCECDBDA@?C?J@ DB 0c3H, 0caH, 00H		; `string'
CONST	ENDS
;	COMDAT ??_C@_01MJMHLOMK@O@
CONST	SEGMENT
??_C@_01MJMHLOMK@O@ DB 'O', 00H				; `string'
CONST	ENDS
;	COMDAT ??_C@_05DNIIFBMG@?$CFs?5?$CFs@
CONST	SEGMENT
??_C@_05DNIIFBMG@?$CFs?5?$CFs@ DB '%s %s', 00H		; `string'
CONST	ENDS
;	COMDAT ??_C@_05NNFHCGPF@?$CFs?4?$CFs@
CONST	SEGMENT
??_C@_05NNFHCGPF@?$CFs?4?$CFs@ DB '%s.%s', 00H		; `string'
CONST	ENDS
;	COMDAT ??_C@_06FPLLPGGO@?$CFs?4M?$CFs@
CONST	SEGMENT
??_C@_06FPLLPGGO@?$CFs?4M?$CFs@ DB '%s.M%s', 00H	; `string'
CONST	ENDS
;	COMDAT ??_C@_02NHMFCJJJ@AF@
CONST	SEGMENT
??_C@_02NHMFCJJJ@AF@ DB 'AF', 00H			; `string'
CONST	ENDS
;	COMDAT ??_C@_03NDHBKIJP@ATM@
CONST	SEGMENT
??_C@_03NDHBKIJP@ATM@ DB 'ATM', 00H			; `string'
CONST	ENDS
;	COMDAT ??_C@_05BJKOFFGO@PRICE@
CONST	SEGMENT
??_C@_05BJKOFFGO@PRICE@ DB 'PRICE', 00H			; `string'
CONST	ENDS
;	COMDAT ??_C@_08EFGGCJLD@?$CFs?2?$CFs?2?$CFs@
CONST	SEGMENT
??_C@_08EFGGCJLD@?$CFs?2?$CFs?2?$CFs@ DB '%s\%s\%s', 00H ; `string'
CONST	ENDS
;	COMDAT ??_C@_03KBDGFMG@mst@
CONST	SEGMENT
??_C@_03KBDGFMG@mst@ DB 'mst', 00H			; `string'
CONST	ENDS
;	COMDAT ??_C@_0P@JIBKHGJJ@master?2atm?4dat@
CONST	SEGMENT
??_C@_0P@JIBKHGJJ@master?2atm?4dat@ DB 'master\atm.dat', 00H ; `string'
CONST	ENDS
;	COMDAT ??_C@_02ECKNGKBC@?G?$LC@
CONST	SEGMENT
??_C@_02ECKNGKBC@?G?$LC@ DB 0c7H, 0b2H, 00H		; `string'
CONST	ENDS
;	COMDAT ??_C@_02KCIOKDCD@?D?$NN@
CONST	SEGMENT
??_C@_02KCIOKDCD@?D?$NN@ DB 0c4H, 0ddH, 00H		; `string'
CONST	ENDS
;	COMDAT ??_C@_06CDJAKJDK@?G?$OA?$LL?g?$LA?$KB@
CONST	SEGMENT
??_C@_06CDJAKJDK@?G?$OA?$LL?g?$LA?$KB@ DB 0c7H, 0e0H, 0bbH, 0e7H, 0b0H, 0a1H
	DB	00H						; `string'
CONST	ENDS
;	COMDAT ??_R0PAVCMemoryException@@@8
data$r	SEGMENT
??_R0PAVCMemoryException@@@8 DD FLAT:??_7type_info@@6B@	; CMemoryException * `RTTI Type Descriptor'
	DD	00H
	DB	'.PAVCMemoryException@@', 00H
data$r	ENDS
;	COMDAT ??_C@_08MDFMLEEP@?$LE?$NO?$LH?$KP?$LP?I?$LM?G@
CONST	SEGMENT
??_C@_08MDFMLEEP@?$LE?$NO?$LH?$KP?$LP?I?$LM?G@ DB 0b4H, 0deH, 0b7H, 0afH, 0bfH
	DB	0c9H, 0bcH, 0c7H, 00H			; `string'
CONST	ENDS
;	COMDAT ??_C@_08CDLEABGN@JPMASTER@
CONST	SEGMENT
??_C@_08CDLEABGN@JPMASTER@ DB 'JPMASTER', 00H		; `string'
CONST	ENDS
;	COMDAT ??_C@_07OLCDEDDD@PMASTER@
CONST	SEGMENT
??_C@_07OLCDEDDD@PMASTER@ DB 'PMASTER', 00H		; `string'
CONST	ENDS
;	COMDAT ??_C@_0L@DIKICJIA@SCREENCODE@
CONST	SEGMENT
??_C@_0L@DIKICJIA@SCREENCODE@ DB 'SCREENCODE', 00H	; `string'
CONST	ENDS
;	COMDAT ??_C@_04PNCKPNJH@?A?$KE?A?v@
CONST	SEGMENT
??_C@_04PNCKPNJH@?A?$KE?A?v@ DB 0c1H, 0a4H, 0c1H, 0f6H, 00H ; `string'
CONST	ENDS
;	COMDAT ??_C@_0CL@IMEJDJIA@N?$CKN?5?$LL?s?E?B?$LP?$KB?$LM?$KN?$LE?B?5?$LF?$LJ?$LH?A?$LK?$LI?$LB?b?5?$LB?b?$LE?I?$MA?L?5@
CONST	SEGMENT
??_C@_0CL@IMEJDJIA@N?$CKN?5?$LL?s?E?B?$LP?$KB?$LM?$KN?$LE?B?5?$LF?$LJ?$LH?A?$LK?$LI?$LB?b?5?$LB?b?$LE?I?$MA?L?5@ DB 'N'
	DB	'*N ', 0bbH, 0f3H, 0c5H, 0c2H, 0bfH, 0a1H, 0bcH, 0adH, 0b4H, 0c2H
	DB	' ', 0b5H, 0b9H, 0b7H, 0c1H, 0baH, 0b8H, 0b1H, 0e2H, ' ', 0b1H
	DB	0e2H, 0b4H, 0c9H, 0c0H, 0ccH, ' ', 0c1H, 0a6H, 0c7H, 0d1H, 0b5H
	DB	0cbH, 0b4H, 0cfH, 0b4H, 0d9H, '.', 00H	; `string'
CONST	ENDS
;	COMDAT ??_C@_0CA@LCGNJNDB@?B?w?F?$KO?$LN?$LK?E?$KJ?$LH?Q?5?$LB?b?$LE?I?$MA?L?5?$LF?$LP?$MA?$NL?A?$NP?$MA?T?$LE?O?$LE?Y?4@
CONST	SEGMENT
??_C@_0CA@LCGNJNDB@?B?w?F?$KO?$LN?$LK?E?$KJ?$LH?Q?5?$LB?b?$LE?I?$MA?L?5?$LF?$LP?$MA?$NL?A?$NP?$MA?T?$LE?O?$LE?Y?4@ DB 0c2H
	DB	0f7H, 0c6H, 0aeH, 0bdH, 0baH, 0c5H, 0a9H, 0b7H, 0d1H, ' ', 0b1H
	DB	0e2H, 0b4H, 0c9H, 0c0H, 0ccH, ' ', 0b5H, 0bfH, 0c0H, 0dbH, 0c1H
	DB	0dfH, 0c0H, 0d4H, 0b4H, 0cfH, 0b4H, 0d9H, '.', 00H ; `string'
CONST	ENDS
;	COMDAT ??_C@_01NBENCBCI@?$CK@
CONST	SEGMENT
??_C@_01NBENCBCI@?$CK@ DB '*', 00H			; `string'
CONST	ENDS
;	COMDAT ??_C@_03OHHDNMNE@S31@
CONST	SEGMENT
??_C@_03OHHDNMNE@S31@ DB 'S31', 00H			; `string'
CONST	ENDS
;	COMDAT ??_C@_06ILELDFGC@USERTR@
CONST	SEGMENT
??_C@_06ILELDFGC@USERTR@ DB 'USERTR', 00H		; `string'
CONST	ENDS
;	COMDAT ??_C@_01ICJEACDI@?$DL@
CONST	SEGMENT
??_C@_01ICJEACDI@?$DL@ DB ';', 00H			; `string'
CONST	ENDS
;	COMDAT ??_C@_01HNPIGOCE@?$CG@
CONST	SEGMENT
??_C@_01HNPIGOCE@?$CG@ DB '&', 00H			; `string'
CONST	ENDS
;	COMDAT ??_C@_02PPKAJPJL@?$CG?$CG@
CONST	SEGMENT
??_C@_02PPKAJPJL@?$CG?$CG@ DB '&&', 00H			; `string'
CONST	ENDS
;	COMDAT ??_C@_04KKJCCIGG@7112@
CONST	SEGMENT
??_C@_04KKJCCIGG@7112@ DB '7112', 00H			; `string'
CONST	ENDS
;	COMDAT ??_C@_0M@KALOFNLB@?B?w?F?$KO?5?C?J?$LB?b?H?$KN@
CONST	SEGMENT
??_C@_0M@KALOFNLB@?B?w?F?$KO?5?C?J?$LB?b?H?$KN@ DB 0c2H, 0f7H, 0c6H, 0aeH
	DB	' ', 0c3H, 0caH, 0b1H, 0e2H, 0c8H, 0adH, 00H	; `string'
CONST	ENDS
;	COMDAT ??_C@_04NMHJGEDF@?$MA?L?H?D@
CONST	SEGMENT
??_C@_04NMHJGEDF@?$MA?L?H?D@ DB 0c0H, 0ccH, 0c8H, 0c4H, 00H ; `string'
CONST	ENDS
;	COMDAT ??_C@_04MFPFIJHG@?$MA?L?$MA?$PM@
CONST	SEGMENT
??_C@_04MFPFIJHG@?$MA?L?$MA?$PM@ DB 0c0H, 0ccH, 0c0H, 0fcH, 00H ; `string'
CONST	ENDS
;	COMDAT ??_C@_04PDHJBHLJ@?$MA?g?$LL?$PN@
CONST	SEGMENT
??_C@_04PDHJBHLJ@?$MA?g?$LL?$PN@ DB 0c0H, 0e7H, 0bbH, 0fdH, 00H ; `string'
CONST	ENDS
;	COMDAT ??_C@_05CJECCPPC@05010@
CONST	SEGMENT
??_C@_05CJECCPPC@05010@ DB '05010', 00H			; `string'
CONST	ENDS
;	COMDAT ??_C@_09JOPCILHH@CntOfUnit@
CONST	SEGMENT
??_C@_09JOPCILHH@CntOfUnit@ DB 'CntOfUnit', 00H		; `string'
CONST	ENDS
;	COMDAT ??_C@_0BH@MFNGHPMI@SelectedParentItemName@
CONST	SEGMENT
??_C@_0BH@MFNGHPMI@SelectedParentItemName@ DB 'SelectedParentItemName', 00H ; `string'
CONST	ENDS
;	COMDAT ??_C@_0BB@FNJICNJ@SelectedItemName@
CONST	SEGMENT
??_C@_0BB@FNJICNJ@SelectedItemName@ DB 'SelectedItemName', 00H ; `string'
CONST	ENDS
;	COMDAT ??_C@_0BJ@EHHOABPL@SelectedFavoriteItemCode@
CONST	SEGMENT
??_C@_0BJ@EHHOABPL@SelectedFavoriteItemCode@ DB 'SelectedFavoriteItemCode'
	DB	00H						; `string'
CONST	ENDS
;	COMDAT ??_C@_0P@DKEDAHBN@HeightOfSearch@
CONST	SEGMENT
??_C@_0P@DKEDAHBN@HeightOfSearch@ DB 'HeightOfSearch', 00H ; `string'
CONST	ENDS
;	COMDAT ??_C@_03MHAIKEMP@300@
CONST	SEGMENT
??_C@_03MHAIKEMP@300@ DB '300', 00H			; `string'
CONST	ENDS
;	COMDAT ??_C@_01DGKLNCNG@R@
CONST	SEGMENT
??_C@_01DGKLNCNG@R@ DB 'R', 00H				; `string'
CONST	ENDS
;	COMDAT ??_C@_0M@CJGEBODD@?D?Z?$LF?e?9?$LF?e?$LH?$KB?$LB?W@
CONST	SEGMENT
??_C@_0M@CJGEBODD@?D?Z?$LF?e?9?$LF?e?$LH?$KB?$LB?W@ DB 0c4H, 0daH, 0b5H, 0e5H
	DB	'-', 0b5H, 0e5H, 0b7H, 0a1H, 0b1H, 0d7H, 00H	; `string'
CONST	ENDS
;	COMDAT ??_C@_01OCOKONAJ@L@
CONST	SEGMENT
??_C@_01OCOKONAJ@L@ DB 'L', 00H				; `string'
CONST	ENDS
;	COMDAT ??_C@_0BC@NBFECJEM@?D?Z?$LF?e?9?$LF?e?$LH?$KB?$LB?W?$LI?$KO?$LN?$LK?F?$KO@
CONST	SEGMENT
??_C@_0BC@NBFECJEM@?D?Z?$LF?e?9?$LF?e?$LH?$KB?$LB?W?$LI?$KO?$LN?$LK?F?$KO@ DB 0c4H
	DB	0daH, 0b5H, 0e5H, '-', 0b5H, 0e5H, 0b7H, 0a1H, 0b1H, 0d7H, 0b8H
	DB	0aeH, 0bdH, 0baH, 0c6H, 0aeH, 00H		; `string'
CONST	ENDS
;	COMDAT ??_C@_08KFOOADEE@pijs0112@
CONST	SEGMENT
??_C@_08KFOOADEE@pijs0112@ DB 'pijs0112', 00H		; `string'
CONST	ENDS
;	COMDAT ??_C@_01MMEEDKFM@X@
CONST	SEGMENT
??_C@_01MMEEDKFM@X@ DB 'X', 00H				; `string'
CONST	ENDS
;	COMDAT ??_C@_09MICNPEAJ@DRFNGWAN?3@
CONST	SEGMENT
??_C@_09MICNPEAJ@DRFNGWAN?3@ DB 'DRFNGWAN:', 00H	; `string'
CONST	ENDS
;	COMDAT ??_C@_07HANEOMHL@?$CFs?7?$CF08X@
CONST	SEGMENT
??_C@_07HANEOMHL@?$CFs?7?$CF08X@ DB '%s', 09H, '%08X', 00H ; `string'
CONST	ENDS
;	COMDAT ??_C@_0O@DJPIKCGJ@TabCodeSearch@
CONST	SEGMENT
??_C@_0O@DJPIKCGJ@TabCodeSearch@ DB 'TabCodeSearch', 00H ; `string'
CONST	ENDS
;	COMDAT ??_C@_08ODFAFGMO@?A?V?$LN?D?$LM?$LB?$LJ?$LA@
CONST	SEGMENT
??_C@_08ODFAFGMO@?A?V?$LN?D?$LM?$LB?$LJ?$LA@ DB 0c1H, 0d6H, 0bdH, 0c4H, 0bcH
	DB	0b1H, 0b9H, 0b0H, 00H			; `string'
CONST	ENDS
;	COMDAT ??_C@_08NKEECE@?$LA?z?$LA?E?$LM?$LB?$LJ?$LA@
CONST	SEGMENT
??_C@_08NKEECE@?$LA?z?$LA?E?$LM?$LB?$LJ?$LA@ DB 0b0H, 0faH, 0b0H, 0c5H, 0bcH
	DB	0b1H, 0b9H, 0b0H, 00H			; `string'
CONST	ENDS
;	COMDAT ??_C@_09POEKPOBJ@OldFuture@
CONST	SEGMENT
??_C@_09POEKPOBJ@OldFuture@ DB 'OldFuture', 00H		; `string'
CONST	ENDS
;	COMDAT ??_C@_0P@OHLONHMC@?$LL?g?$LP?k?$MA?Z?A?$LG?$LA?G?$LA?K?$LL?v@
CONST	SEGMENT
??_C@_0P@OHLONHMC@?$LL?g?$LP?k?$MA?Z?A?$LG?$LA?G?$LA?K?$LL?v@ DB 0bbH, 0e7H
	DB	0bfH, 0ebH, 0c0H, 0daH, 0c1H, 0b6H, 0b0H, 0c7H, 0b0H, 0cbH, 0bbH
	DB	0f6H, 00H					; `string'
CONST	ENDS
;	COMDAT ??_C@_0N@BNILMEJJ@?$LK?$PM?$LI?$KF?A?$LO?$LI?q?$LA?K?$LL?v@
CONST	SEGMENT
??_C@_0N@BNILMEJJ@?$LK?$PM?$LI?$KF?A?$LO?$LI?q?$LA?K?$LL?v@ DB 0baH, 0fcH
	DB	0b8H, 0a5H, 0c1H, 0beH, 0b8H, 0f1H, 0b0H, 0cbH, 0bbH, 0f6H, 00H ; `string'
CONST	ENDS
;	COMDAT ??_C@_08OPOALDAF@?$LL?s?G?$LA?$LM?$LB?$LJ?$LA@
CONST	SEGMENT
??_C@_08OPOALDAF@?$LL?s?G?$LA?$LM?$LB?$LJ?$LA@ DB 0bbH, 0f3H, 0c7H, 0b0H, 0bcH
	DB	0b1H, 0b9H, 0b0H, 00H			; `string'
CONST	ENDS
;	COMDAT ??_C@_08GABLNBPO@FOMASTER@
CONST	SEGMENT
??_C@_08GABLNBPO@FOMASTER@ DB 'FOMASTER', 00H		; `string'
CONST	ENDS
;	COMDAT ??_C@_09BJLLGFJL@?$LM?$LB?$LJ?$LA?1?$LP?I?$LM?G@
CONST	SEGMENT
??_C@_09BJLLGFJL@?$LM?$LB?$LJ?$LA?1?$LP?I?$LM?G@ DB 0bcH, 0b1H, 0b9H, 0b0H
	DB	'/', 0bfH, 0c9H, 0bcH, 0c7H, 00H		; `string'
CONST	ENDS
;	COMDAT ??_C@_04GHLAOPMI@?$LO?w?A?$LO@
CONST	SEGMENT
??_C@_04GHLAOPMI@?$LO?w?A?$LO@ DB 0beH, 0f7H, 0c1H, 0beH, 00H ; `string'
CONST	ENDS
;	COMDAT ??_C@_03POALDHNL@ELW@
CONST	SEGMENT
??_C@_03POALDHNL@ELW@ DB 'ELW', 00H			; `string'
CONST	ENDS
;	COMDAT ??_C@_04IMIHFAMF@?A?V?$LN?D@
CONST	SEGMENT
??_C@_04IMIHFAMF@?A?V?$LN?D@ DB 0c1H, 0d6H, 0bdH, 0c4H, 00H ; `string'
CONST	ENDS
;	COMDAT ??_C@_08CKONLPCE@?$LA?$PM?$LN?I?$LB?W?$LH?l@
CONST	SEGMENT
??_C@_08CKONLPCE@?$LA?$PM?$LN?I?$LB?W?$LH?l@ DB 0b0H, 0fcH, 0bdH, 0c9H, 0b1H
	DB	0d7H, 0b7H, 0ecH, 00H			; `string'
CONST	ENDS
;	COMDAT ??_C@_0BD@CMCCCNBF@HANAROIGATEMANAGER@
CONST	SEGMENT
??_C@_0BD@CMCCCNBF@HANAROIGATEMANAGER@ DB 'HANAROIGATEMANAGER', 00H ; `string'
CONST	ENDS
;	COMDAT ??_C@_0BD@OCOIJGGE@?$CFs?2outbar_icon?4bmp@
CONST	SEGMENT
??_C@_0BD@OCOIJGGE@?$CFs?2outbar_icon?4bmp@ DB '%s\outbar_icon.bmp', 00H ; `string'
CONST	ENDS
;	COMDAT ??_C@_0O@DADNAINN@?$CFs?2folder?4bmp@
CONST	SEGMENT
??_C@_0O@DADNAINN@?$CFs?2folder?4bmp@ DB '%s\folder.bmp', 00H ; `string'
CONST	ENDS
;	COMDAT ??_C@_04EFGLKKLI@60?C?J@
CONST	SEGMENT
??_C@_04EFGLKKLI@60?C?J@ DB '60', 0c3H, 0caH, 00H	; `string'
CONST	ENDS
;	COMDAT ??_C@_04INILCFMI@30?C?J@
CONST	SEGMENT
??_C@_04INILCFMI@30?C?J@ DB '30', 0c3H, 0caH, 00H	; `string'
CONST	ENDS
;	COMDAT ??_C@_04IHDFPMEK@25?C?J@
CONST	SEGMENT
??_C@_04IHDFPMEK@25?C?J@ DB '25', 0c3H, 0caH, 00H	; `string'
CONST	ENDS
;	COMDAT ??_C@_04LAOLAMHI@20?C?J@
CONST	SEGMENT
??_C@_04LAOLAMHI@20?C?J@ DB '20', 0c3H, 0caH, 00H	; `string'
CONST	ENDS
;	COMDAT ??_C@_04MAJFIGJK@15?C?J@
CONST	SEGMENT
??_C@_04MAJFIGJK@15?C?J@ DB '15', 0c3H, 0caH, 00H	; `string'
CONST	ENDS
;	COMDAT ??_C@_04PHELHGKI@10?C?J@
CONST	SEGMENT
??_C@_04PHELHGKI@10?C?J@ DB '10', 0c3H, 0caH, 00H	; `string'
CONST	ENDS
;	COMDAT ??_C@_03LLLCDPKN@5?C?J@
CONST	SEGMENT
??_C@_03LLLCDPKN@5?C?J@ DB '5', 0c3H, 0caH, 00H		; `string'
CONST	ENDS
;	COMDAT ??_C@_0BA@INBCGBNE@?$CF08X?7?$CF08X?7?$CF08X?7@
CONST	SEGMENT
??_C@_0BA@INBCGBNE@?$CF08X?7?$CF08X?7?$CF08X?7@ DB '%08X', 09H, '%08X', 09H
	DB	'%08X', 09H, 00H				; `string'
CONST	ENDS
;	COMDAT ?messageMap@?1??GetThisMessageMap@CTabCodeSearch@@KGPBUAFX_MSGMAP@@XZ@4U3@B
CONST	SEGMENT
?messageMap@?1??GetThisMessageMap@CTabCodeSearch@@KGPBUAFX_MSGMAP@@XZ@4U3@B DD FLAT:?GetThisMessageMap@CTabDlg@@KGPBUAFX_MSGMAP@@XZ ; `CTabCodeSearch::GetThisMessageMap'::`2'::messageMap
	DD	FLAT:?_messageEntries@?1??GetThisMessageMap@CTabCodeSearch@@KGPBUAFX_MSGMAP@@XZ@4QBUAFX_MSGMAP_ENTRY@@B
CONST	ENDS
;	COMDAT ?_messageEntries@?1??GetThisMessageMap@CTabCodeSearch@@KGPBUAFX_MSGMAP@@XZ@4QBUAFX_MSGMAP_ENTRY@@B
CONST	SEGMENT
?_messageEntries@?1??GetThisMessageMap@CTabCodeSearch@@KGPBUAFX_MSGMAP@@XZ@4QBUAFX_MSGMAP_ENTRY@@B DD 05H ; `CTabCodeSearch::GetThisMessageMap'::`2'::_messageEntries
	DD	00H
	DD	00H
	DD	00H
	DD	01aH
	DD	FLAT:?OnSize@CTabCodeSearch@@QAEXIHH@Z
	DD	02H
	DD	00H
	DD	00H
	DD	00H
	DD	013H
	DD	FLAT:?OnDestroy@CTabCodeSearch@@QAEXXZ
	DD	04eH
	DD	0fe6eH
	DD	01787H
	DD	01787H
	DD	03eH
	DD	FLAT:?OnSelchangedTreesearch@CTabCodeSearch@@QAEXPAUtagNMHDR@@PAJ@Z
	DD	04eH
	DD	0fffdH
	DD	01781H
	DD	01781H
	DD	03eH
	DD	FLAT:?OnDblclkListcode@CTabCodeSearch@@QAEXPAUtagNMHDR@@PAJ@Z
	DD	0111H
	DD	00H
	DD	0181eH
	DD	0181eH
	DD	03aH
	DD	FLAT:?OnBtportfolio@CTabCodeSearch@@QAEXXZ
	DD	0111H
	DD	00H
	DD	01776H
	DD	01776H
	DD	03aH
	DD	FLAT:?OnBtsearch@CTabCodeSearch@@QAEXXZ
	DD	0202H
	DD	00H
	DD	00H
	DD	00H
	DD	036H
	DD	FLAT:?OnLButtonUp@CTabCodeSearch@@QAEXIVCPoint@@@Z
	DD	0205H
	DD	00H
	DD	00H
	DD	00H
	DD	036H
	DD	FLAT:?OnRButtonUp@CTabCodeSearch@@QAEXIVCPoint@@@Z
	DD	0200H
	DD	00H
	DD	00H
	DD	00H
	DD	036H
	DD	FLAT:?OnMouseMove@CTabCodeSearch@@QAEXIVCPoint@@@Z
	DD	04eH
	DD	0ff93H
	DD	01781H
	DD	01781H
	DD	03eH
	DD	FLAT:?OnBegindragListcode@CTabCodeSearch@@QAEXPAUtagNMHDR@@PAJ@Z
	DD	04eH
	DD	0ff91H
	DD	01781H
	DD	01781H
	DD	03eH
	DD	FLAT:?OnBeginRdragListcode@CTabCodeSearch@@QAEXPAUtagNMHDR@@PAJ@Z
	DD	04eH
	DD	0fffeH
	DD	01781H
	DD	01781H
	DD	03eH
	DD	FLAT:?OnClickListcode@CTabCodeSearch@@QAEXPAUtagNMHDR@@PAJ@Z
	DD	04eH
	DD	0fffbH
	DD	01781H
	DD	01781H
	DD	03eH
	DD	FLAT:?OnRclickListcode@CTabCodeSearch@@QAEXPAUtagNMHDR@@PAJ@Z
	DD	0113H
	DD	00H
	DD	00H
	DD	00H
	DD	015H
	DD	FLAT:?OnTimer@CTabCodeSearch@@QAEXI@Z
	DD	019H
	DD	00H
	DD	00H
	DD	00H
	DD	08H
	DD	FLAT:?OnCtlColor@CTabCodeSearch@@QAEPAUHBRUSH__@@PAVCDC@@PAVCWnd@@I@Z
	DD	0111H
	DD	00H
	DD	0183eH
	DD	0183eH
	DD	03aH
	DD	FLAT:?OnBtnext@CTabCodeSearch@@QAEXXZ
	DD	0111H
	DD	00H
	DD	0183dH
	DD	0183dH
	DD	03aH
	DD	FLAT:?OnBtprev@CTabCodeSearch@@QAEXXZ
	DD	0111H
	DD	00H
	DD	01841H
	DD	01841H
	DD	03aH
	DD	FLAT:?OnBtresetocx@CTabCodeSearch@@QAEXXZ
	DD	0111H
	DD	00H
	DD	018a7H
	DD	018a7H
	DD	03aH
	DD	FLAT:?OnChkAvgprice@CTabCodeSearch@@QAEXXZ
	DD	0111H
	DD	00H
	DD	018a8H
	DD	018a8H
	DD	03aH
	DD	FLAT:?OnChkConcprice@CTabCodeSearch@@QAEXXZ
	DD	04eH
	DD	0ff9bH
	DD	01781H
	DD	01781H
	DD	03eH
	DD	FLAT:?OnItemchangedListcode@CTabCodeSearch@@QAEXPAUtagNMHDR@@PAJ@Z
	DD	04eH
	DD	0ff9cH
	DD	01781H
	DD	01781H
	DD	03eH
	DD	FLAT:?OnItemchangingListcode@CTabCodeSearch@@QAEXPAUtagNMHDR@@PAJ@Z
	DD	07e8H
	DD	00H
	DD	00H
	DD	00H
	DD	0eH
	DD	FLAT:?OnWmSplitterMoved@CTabCodeSearch@@AAEJIJ@Z
	DD	0c000H
	DD	00H
	DD	00H
	DD	00H
	DD	FLAT:?RMSG_INTREQUEST@@3IB
	DD	FLAT:?OnIntRequest@CTabCodeSearch@@QAEJIJ@Z
	DD	0c000H
	DD	00H
	DD	00H
	DD	00H
	DD	FLAT:?RMSG_CONCERNHWND@@3IB
	DD	FLAT:?OnResetAll@CTabCodeSearch@@QAEJIJ@Z
	DD	0111H
	DD	00H
	DD	0183fH
	DD	0183fH
	DD	03aH
	DD	FLAT:?OnBnClickedBtplay@CTabCodeSearch@@IAEXXZ
	DD	04eH
	DD	0ff9bH
	DD	01781H
	DD	01781H
	DD	03eH
	DD	FLAT:?OnLvnItemchangedListcode@CTabCodeSearch@@IAEXPAUtagNMHDR@@PAJ@Z
	DD	0c000H
	DD	00H
	DD	00H
	DD	00H
	DD	FLAT:?RMSG_ADDACCOUNTCODE@@3IB
	DD	FLAT:?OnAddAccountCodeItem@CTabCodeSearch@@QAEJIJ@Z
	DD	0c000H
	DD	00H
	DD	00H
	DD	00H
	DD	FLAT:?RMSG_CHECKAVGPRICE@@3IB
	DD	FLAT:?OnCheckAvgPrice@CTabCodeSearch@@QAEJIJ@Z
	DD	0c000H
	DD	00H
	DD	00H
	DD	00H
	DD	FLAT:?RMSG_ADDACCOUNTCONC@@3IB
	DD	FLAT:?OnMakeAccountConcData@CTabCodeSearch@@QAEJIJ@Z
	DD	0c000H
	DD	00H
	DD	00H
	DD	00H
	DD	FLAT:?RMSG_RESETCONCDATA@@3IB
	DD	FLAT:?OnResetConcData@CTabCodeSearch@@QAEJIJ@Z
	DD	08c1H
	DD	00H
	DD	00H
	DD	00H
	DD	0eH
	DD	FLAT:?OnOutBarNotify@CTabCodeSearch@@IAEJIJ@Z
	DD	0464H
	DD	00H
	DD	00H
	DD	00H
	DD	0eH
	DD	FLAT:?OnWinixNotifyLoad@CTabCodeSearch@@IAEJIJ@Z
	DD	0465H
	DD	00H
	DD	00H
	DD	00H
	DD	0eH
	DD	FLAT:?OnWinixNotifySave@CTabCodeSearch@@IAEJIJ@Z
	DD	0466H
	DD	00H
	DD	00H
	DD	00H
	DD	0eH
	DD	FLAT:?OnWinixNotifyGroup@CTabCodeSearch@@IAEJIJ@Z
	DD	0467H
	DD	00H
	DD	00H
	DD	00H
	DD	0eH
	DD	FLAT:?OnWinixNotifyGroupList@CTabCodeSearch@@IAEJIJ@Z
	DD	0468H
	DD	00H
	DD	00H
	DD	00H
	DD	0eH
	DD	FLAT:?OnWinixNotifySaveCode@CTabCodeSearch@@IAEJIJ@Z
	DD	0c000H
	DD	00H
	DD	00H
	DD	00H
	DD	FLAT:?RMSG_WMSIZE@@3IB
	DD	FLAT:?OnRmsgWMSize@CTabCodeSearch@@IAEJIJ@Z
	DD	0c000H
	DD	00H
	DD	00H
	DD	00H
	DD	FLAT:?RMSG_TABCODESEARCH@@3IB
	DD	FLAT:?OnRmsgTabCodeSearch@CTabCodeSearch@@IAEJIJ@Z
	DD	00H
	DD	00H
	DD	00H
	DD	00H
	DD	00H
	DD	00H
CONST	ENDS
;	COMDAT ??_C@_01JLIPDDHJ@?3@
CONST	SEGMENT
??_C@_01JLIPDDHJ@?3@ DB ':', 00H			; `string'
CONST	ENDS
;	COMDAT ??_7CTabCodeSearch@@6B@
CONST	SEGMENT
??_7CTabCodeSearch@@6B@ DD FLAT:??_R4CTabCodeSearch@@6B@ ; CTabCodeSearch::`vftable'
	DD	FLAT:?GetRuntimeClass@CDialog@@UBEPAUCRuntimeClass@@XZ
	DD	FLAT:??_ECTabCodeSearch@@UAEPAXI@Z
	DD	FLAT:?Serialize@CObject@@UAEXAAVCArchive@@@Z
	DD	FLAT:?AssertValid@CObject@@UBEXXZ
	DD	FLAT:?Dump@CObject@@UBEXAAVCDumpContext@@@Z
	DD	FLAT:?OnCmdMsg@CDialog@@UAEHIHPAXPAUAFX_CMDHANDLERINFO@@@Z
	DD	FLAT:?OnFinalRelease@CWnd@@UAEXXZ
	DD	FLAT:?IsInvokeAllowed@CCmdTarget@@UAEHJ@Z
	DD	FLAT:?GetDispatchIID@CCmdTarget@@UAEHPAU_GUID@@@Z
	DD	FLAT:?GetTypeInfoCount@CCmdTarget@@UAEIXZ
	DD	FLAT:?GetTypeLibCache@CCmdTarget@@UAEPAVCTypeLibCache@@XZ
	DD	FLAT:?GetTypeLib@CCmdTarget@@UAEJKPAPAUITypeLib@@@Z
	DD	FLAT:?GetMessageMap@CTabCodeSearch@@MBEPBUAFX_MSGMAP@@XZ
	DD	FLAT:?GetCommandMap@CCmdTarget@@MBEPBUAFX_OLECMDMAP@@XZ
	DD	FLAT:?GetDispatchMap@CCmdTarget@@MBEPBUAFX_DISPMAP@@XZ
	DD	FLAT:?GetConnectionMap@CCmdTarget@@MBEPBUAFX_CONNECTIONMAP@@XZ
	DD	FLAT:?GetInterfaceMap@CWnd@@MBEPBUAFX_INTERFACEMAP@@XZ
	DD	FLAT:?GetEventSinkMap@CCmdTarget@@MBEPBUAFX_EVENTSINKMAP@@XZ
	DD	FLAT:?OnCreateAggregates@CCmdTarget@@UAEHXZ
	DD	FLAT:?GetInterfaceHook@CCmdTarget@@UAEPAUIUnknown@@PBX@Z
	DD	FLAT:?GetExtraConnectionPoints@CCmdTarget@@MAEHPAVCPtrArray@@@Z
	DD	FLAT:?GetConnectionHook@CCmdTarget@@MAEPAUIConnectionPoint@@ABU_GUID@@@Z
	DD	FLAT:?PreSubclassWindow@CWnd@@UAEXXZ
	DD	FLAT:?Create@CWnd@@UAEHPBD0KABUtagRECT@@PAV1@IPAUCCreateContext@@@Z
	DD	FLAT:?CreateEx@CWnd@@UAEHKPBD0KABUtagRECT@@PAV1@IPAX@Z
	DD	FLAT:?CreateEx@CWnd@@UAEHKPBD0KHHHHPAUHWND__@@PAUHMENU__@@PAX@Z
	DD	FLAT:?DestroyWindow@CWnd@@UAEHXZ
	DD	FLAT:?PreCreateWindow@CWnd@@UAEHAAUtagCREATESTRUCTA@@@Z
	DD	FLAT:?CalcWindowRect@CWnd@@UAEXPAUtagRECT@@I@Z
	DD	FLAT:?GetMenu@CWnd@@UBEPAVCMenu@@XZ
	DD	FLAT:?SetMenu@CWnd@@UAEHPAVCMenu@@@Z
	DD	FLAT:?OnToolHitTest@CWnd@@UBEHVCPoint@@PAUtagTOOLINFOA@@@Z
	DD	FLAT:?GetScrollBarCtrl@CWnd@@UBEPAVCScrollBar@@H@Z
	DD	FLAT:?WinHelpA@CWnd@@UAEXKI@Z
	DD	FLAT:?HtmlHelpA@CWnd@@UAEXKI@Z
	DD	FLAT:?WinHelpInternal@CWnd@@UAEXKI@Z
	DD	FLAT:?ContinueModal@CWnd@@UAEHXZ
	DD	FLAT:?EndModalLoop@CWnd@@UAEXH@Z
	DD	FLAT:?OnDrawIconicThumbnailOrLivePreview@CWnd@@UAEXAAVCDC@@VCRect@@VCSize@@HAAH@Z
	DD	FLAT:?EnsureStdObj@CWnd@@UAEJXZ
	DD	FLAT:?get_accParent@CWnd@@UAEJPAPAUIDispatch@@@Z
	DD	FLAT:?get_accChildCount@CWnd@@UAEJPAJ@Z
	DD	FLAT:?get_accChild@CWnd@@UAEJUtagVARIANT@@PAPAUIDispatch@@@Z
	DD	FLAT:?get_accName@CWnd@@UAEJUtagVARIANT@@PAPA_W@Z
	DD	FLAT:?get_accValue@CWnd@@UAEJUtagVARIANT@@PAPA_W@Z
	DD	FLAT:?get_accDescription@CWnd@@UAEJUtagVARIANT@@PAPA_W@Z
	DD	FLAT:?get_accRole@CWnd@@UAEJUtagVARIANT@@PAU2@@Z
	DD	FLAT:?get_accState@CWnd@@UAEJUtagVARIANT@@PAU2@@Z
	DD	FLAT:?get_accHelp@CWnd@@UAEJUtagVARIANT@@PAPA_W@Z
	DD	FLAT:?get_accHelpTopic@CWnd@@UAEJPAPA_WUtagVARIANT@@PAJ@Z
	DD	FLAT:?get_accKeyboardShortcut@CWnd@@UAEJUtagVARIANT@@PAPA_W@Z
	DD	FLAT:?get_accFocus@CWnd@@UAEJPAUtagVARIANT@@@Z
	DD	FLAT:?get_accSelection@CWnd@@UAEJPAUtagVARIANT@@@Z
	DD	FLAT:?get_accDefaultAction@CWnd@@UAEJUtagVARIANT@@PAPA_W@Z
	DD	FLAT:?accSelect@CWnd@@UAEJJUtagVARIANT@@@Z
	DD	FLAT:?accLocation@CWnd@@UAEJPAJ000UtagVARIANT@@@Z
	DD	FLAT:?accNavigate@CWnd@@UAEJJUtagVARIANT@@PAU2@@Z
	DD	FLAT:?accHitTest@CWnd@@UAEJJJPAUtagVARIANT@@@Z
	DD	FLAT:?accDoDefaultAction@CWnd@@UAEJUtagVARIANT@@@Z
	DD	FLAT:?put_accName@CWnd@@UAEJUtagVARIANT@@PA_W@Z
	DD	FLAT:?put_accValue@CWnd@@UAEJUtagVARIANT@@PA_W@Z
	DD	FLAT:?SetProxy@CWnd@@UAEJPAUIAccessibleProxy@@@Z
	DD	FLAT:?CreateAccessibleProxy@CWnd@@UAEJIJPAJ@Z
	DD	FLAT:?OnCommand@CWnd@@MAEHIJ@Z
	DD	FLAT:?OnNotify@CWnd@@MAEHIJPAJ@Z
	DD	FLAT:?GetSuperWndProcAddr@CWnd@@MAEPAP6GJPAUHWND__@@IIJ@ZXZ
	DD	FLAT:?DoDataExchange@CTabCodeSearch@@MAEXPAVCDataExchange@@@Z
	DD	FLAT:?BeginModalState@CWnd@@UAEXXZ
	DD	FLAT:?EndModalState@CWnd@@UAEXXZ
	DD	FLAT:?PreTranslateMessage@CTabCodeSearch@@UAEHPAUtagMSG@@@Z
	DD	FLAT:?OnAmbientProperty@CWnd@@UAEHPAVCOleControlSite@@JPAUtagVARIANT@@@Z
	DD	FLAT:?WindowProc@CTabCodeSearch@@MAEJIIJ@Z
	DD	FLAT:?OnWndMsg@CWnd@@MAEHIIJPAJ@Z
	DD	FLAT:?DefWindowProcA@CWnd@@MAEJIIJ@Z
	DD	FLAT:?PostNcDestroy@CWnd@@MAEXXZ
	DD	FLAT:?OnChildNotify@CWnd@@MAEHIIJPAJ@Z
	DD	FLAT:?OnTouchInputs@CWnd@@MAEHIPAUtagTOUCHINPUT@@@Z
	DD	FLAT:?OnTouchInput@CWnd@@MAEHVCPoint@@HHPAUtagTOUCHINPUT@@@Z
	DD	FLAT:?GetGestureStatus@CWnd@@MAEKVCPoint@@@Z
	DD	FLAT:?OnGestureZoom@CWnd@@MAEHVCPoint@@J@Z
	DD	FLAT:?OnGesturePan@CWnd@@MAEHVCPoint@@0@Z
	DD	FLAT:?OnGestureRotate@CWnd@@MAEHVCPoint@@N@Z
	DD	FLAT:?OnGestureTwoFingerTap@CWnd@@MAEHVCPoint@@@Z
	DD	FLAT:?OnGesturePressAndTap@CWnd@@MAEHVCPoint@@J@Z
	DD	FLAT:?ResizeDynamicLayout@CWnd@@MAEXXZ
	DD	FLAT:?CheckAutoCenter@CDialog@@UAEHXZ
	DD	FLAT:?IsFrameWnd@CWnd@@UBEHXZ
	DD	FLAT:?CreateControlContainer@CWnd@@MAEHPAPAVCOleControlContainer@@@Z
	DD	FLAT:?CreateControlSite@CWnd@@MAEHPAVCOleControlContainer@@PAPAVCOleControlSite@@IABU_GUID@@@Z
	DD	FLAT:?SetOccDialogInfo@CDialog@@MAEHPAU_AFX_OCC_DIALOG_INFO@@@Z
	DD	FLAT:?GetOccDialogInfo@CDialog@@MAEPAU_AFX_OCC_DIALOG_INFO@@XZ
	DD	FLAT:?Create@CRscDlg@@UAEHIPAVCWnd@@@Z
	DD	FLAT:?Create@CDialog@@UAEHPBDPAVCWnd@@@Z
	DD	FLAT:?CreateIndirect@CDialog@@UAEHPAXPAVCWnd@@@Z
	DD	FLAT:?CreateIndirect@CDialog@@UAEHPBUDLGTEMPLATE@@PAVCWnd@@PAX@Z
	DD	FLAT:?DoModal@CRscDlg@@UAEHXZ
	DD	FLAT:?OnInitDialog@CTabCodeSearch@@UAEHXZ
	DD	FLAT:?OnSetFont@CDialog@@UAEXPAVCFont@@@Z
	DD	FLAT:?OnOK@CDialog@@MAEXXZ
	DD	FLAT:?OnCancel@CDialog@@MAEXXZ
	DD	FLAT:?PreInitDialog@CDialog@@MAEXXZ
	DD	FLAT:?ReceiveData@CTabDlg@@UAEXPAUHWND__@@PBD11PAXJ@Z
	DD	FLAT:?SetRealPriceData@CTabCodeSearch@@UAEXPAX@Z
	DD	FLAT:?ReceiveDataFromOutSide@CTabCodeSearch@@UAEXXZ
	DD	FLAT:?ChangeSkinColor@CTabCodeSearch@@MAEXK@Z
	DD	FLAT:?GetRectOfCtrl@CTabCodeSearch@@EAE?AVCRect@@HH@Z
CONST	ENDS
;	COMDAT ??_7?$CList@PAVCItemLongData@@PAV1@@@6B@
CONST	SEGMENT
??_7?$CList@PAVCItemLongData@@PAV1@@@6B@ DD FLAT:??_R4?$CList@PAVCItemLongData@@PAV1@@@6B@ ; CList<CItemLongData *,CItemLongData *>::`vftable'
	DD	FLAT:?GetRuntimeClass@CObject@@UBEPAUCRuntimeClass@@XZ
	DD	FLAT:??_E?$CList@PAVCItemLongData@@PAV1@@@UAEPAXI@Z
	DD	FLAT:?Serialize@?$CList@PAVCItemLongData@@PAV1@@@UAEXAAVCArchive@@@Z
	DD	FLAT:?AssertValid@CObject@@UBEXXZ
	DD	FLAT:?Dump@CObject@@UBEXAAVCDumpContext@@@Z
CONST	ENDS
;	COMDAT ??_7CMyITrCommSite@CTabCodeSearch@@6B@
CONST	SEGMENT
??_7CMyITrCommSite@CTabCodeSearch@@6B@ DD FLAT:??_R4CMyITrCommSite@CTabCodeSearch@@6B@ ; CTabCodeSearch::CMyITrCommSite::`vftable'
	DD	FLAT:?ReceiveData@CMyITrCommSite@CTabCodeSearch@@UAGJJPBD00PAXJ@Z
	DD	FLAT:?ReceiveRealData@CMyITrCommSite@CTabCodeSearch@@UAGJGPBDPAX@Z
	DD	FLAT:?StatusChange@CMyITrCommSite@CTabCodeSearch@@UAGJH@Z
	DD	FLAT:?ReceiveMessage@CMyITrCommSite@CTabCodeSearch@@UAGJJPBD00@Z
CONST	ENDS
;	COMDAT ??_7CTLMCallback@CTabCodeSearch@@6B@
CONST	SEGMENT
??_7CTLMCallback@CTabCodeSearch@@6B@ DD FLAT:??_R4CTLMCallback@CTabCodeSearch@@6B@ ; CTabCodeSearch::CTLMCallback::`vftable'
	DD	FLAT:?ReceiveData@CTLMCallback@CTabCodeSearch@@UAGXHDJHPAX@Z
	DD	FLAT:?ReceiveRealData@CTLMCallback@CTabCodeSearch@@UAGJGPBDPAX@Z
CONST	ENDS
;	COMDAT ??_C@_04CNJBKMPC@Call@
CONST	SEGMENT
??_C@_04CNJBKMPC@Call@ DB 'Call', 00H			; `string'
CONST	ENDS
;	COMDAT ??_C@_04HOGOKFCN@?$LP?y?$LJ?$LA@
CONST	SEGMENT
??_C@_04HOGOKFCN@?$LP?y?$LJ?$LA@ DB 0bfH, 0f9H, 0b9H, 0b0H, 00H ; `string'
CONST	ENDS
;	COMDAT ??_7?$CList@PAVCCallPutIMonthData@@PAV1@@@6B@
CONST	SEGMENT
??_7?$CList@PAVCCallPutIMonthData@@PAV1@@@6B@ DD FLAT:??_R4?$CList@PAVCCallPutIMonthData@@PAV1@@@6B@ ; CList<CCallPutIMonthData *,CCallPutIMonthData *>::`vftable'
	DD	FLAT:?GetRuntimeClass@CObject@@UBEPAUCRuntimeClass@@XZ
	DD	FLAT:??_E?$CList@PAVCCallPutIMonthData@@PAV1@@@UAEPAXI@Z
	DD	FLAT:?Serialize@?$CList@PAVCCallPutIMonthData@@PAV1@@@UAEXAAVCArchive@@@Z
	DD	FLAT:?AssertValid@CObject@@UBEXXZ
	DD	FLAT:?Dump@CObject@@UBEXAAVCDumpContext@@@Z
CONST	ENDS
;	COMDAT ??_7?$CList@PAVCCallPutItemData@@PAV1@@@6B@
CONST	SEGMENT
??_7?$CList@PAVCCallPutItemData@@PAV1@@@6B@ DD FLAT:??_R4?$CList@PAVCCallPutItemData@@PAV1@@@6B@ ; CList<CCallPutItemData *,CCallPutItemData *>::`vftable'
	DD	FLAT:?GetRuntimeClass@CObject@@UBEPAUCRuntimeClass@@XZ
	DD	FLAT:??_E?$CList@PAVCCallPutItemData@@PAV1@@@UAEPAXI@Z
	DD	FLAT:?Serialize@?$CList@PAVCCallPutItemData@@PAV1@@@UAEXAAVCArchive@@@Z
	DD	FLAT:?AssertValid@CObject@@UBEXXZ
	DD	FLAT:?Dump@CObject@@UBEXAAVCDumpContext@@@Z
CONST	ENDS
;	COMDAT ??_C@_01FAMBOPH@4@
CONST	SEGMENT
??_C@_01FAMBOPH@4@ DB '4', 00H				; `string'
CONST	ENDS
;	COMDAT ??_C@_01EKENIIDA@3@
CONST	SEGMENT
??_C@_01EKENIIDA@3@ DB '3', 00H				; `string'
CONST	ENDS
;	COMDAT ??_C@_01BMBHCPLG@5@
CONST	SEGMENT
??_C@_01BMBHCPLG@5@ DB '5', 00H				; `string'
CONST	ENDS
;	COMDAT ??_C@_01DHDKHMHF@6@
CONST	SEGMENT
??_C@_01DHDKHMHF@6@ DB '6', 00H				; `string'
CONST	ENDS
;	COMDAT ??_C@_01COCBENDE@7@
CONST	SEGMENT
??_C@_01COCBENDE@7@ DB '7', 00H				; `string'
CONST	ENDS
;	COMDAT ??_7CCodeTypeB@@6B@
CONST	SEGMENT
??_7CCodeTypeB@@6B@ DD FLAT:??_R4CCodeTypeB@@6B@	; CCodeTypeB::`vftable'
	DD	FLAT:?Convert@CCodeTypeB@@UAEXPAD@Z
	DD	FLAT:?Convert2@CCodeTypeB@@UAEXPAD@Z
	DD	FLAT:?ConvertOneClickData@CCodeTypeB@@UAEXPAD@Z
CONST	ENDS
;	COMDAT ??_7CCodeTypeA@@6B@
CONST	SEGMENT
??_7CCodeTypeA@@6B@ DD FLAT:??_R4CCodeTypeA@@6B@	; CCodeTypeA::`vftable'
	DD	FLAT:?Convert@CCodeTypeA@@UAEXPAD@Z
	DD	FLAT:?Convert2@CCodeTypeA@@UAEXPAD@Z
	DD	FLAT:?ConvertOneClickData@CCodeTypeA@@UAEXPAD@Z
CONST	ENDS
;	COMDAT ??_C@_02IJKLNJNJ@?$KI?$OA@
CONST	SEGMENT
??_C@_02IJKLNJNJ@?$KI?$OA@ DB 0a8H, 0e0H, 00H		; `string'
CONST	ENDS
;	COMDAT ??_C@_02BJKMHJON@?$KI?W@
CONST	SEGMENT
??_C@_02BJKMHJON@?$KI?W@ DB 0a8H, 0d7H, 00H		; `string'
CONST	ENDS
;	COMDAT ??_C@_05KBKNOCPJ@?$CF2?42s@
CONST	SEGMENT
??_C@_05KBKNOCPJ@?$CF2?42s@ DB '%2.2s', 00H		; `string'
CONST	ENDS
;	COMDAT ??_7CCodeTypeBase@@6B@
CONST	SEGMENT
??_7CCodeTypeBase@@6B@ DD FLAT:??_R4CCodeTypeBase@@6B@	; CCodeTypeBase::`vftable'
	DD	FLAT:?Convert@CCodeTypeBase@@UAEXPAD@Z
	DD	FLAT:?Convert2@CCodeTypeBase@@UAEXPAD@Z
	DD	FLAT:?ConvertOneClickData@CCodeTypeBase@@UAEXPAD@Z
CONST	ENDS
;	COMDAT ??_C@_08KDNPGENH@TREELIST@
CONST	SEGMENT
??_C@_08KDNPGENH@TREELIST@ DB 'TREELIST', 00H		; `string'
CONST	ENDS
;	COMDAT ??_R2CDialog@@8
rdata$r	SEGMENT
??_R2CDialog@@8 DD FLAT:??_R1A@?0A@EA@CDialog@@8	; CDialog::`RTTI Base Class Array'
	DD	FLAT:??_R1A@?0A@EA@CWnd@@8
	DD	FLAT:??_R1A@?0A@EA@CCmdTarget@@8
	DD	FLAT:??_R1A@?0A@EA@CObject@@8
rdata$r	ENDS
;	COMDAT ??_R3CDialog@@8
rdata$r	SEGMENT
??_R3CDialog@@8 DD 00H					; CDialog::`RTTI Class Hierarchy Descriptor'
	DD	00H
	DD	04H
	DD	FLAT:??_R2CDialog@@8
rdata$r	ENDS
;	COMDAT ??_R0?AVCDialog@@@8
data$rs	SEGMENT
??_R0?AVCDialog@@@8 DD FLAT:??_7type_info@@6B@		; CDialog `RTTI Type Descriptor'
	DD	00H
	DB	'.?AVCDialog@@', 00H
data$rs	ENDS
;	COMDAT ??_R1A@?0A@EA@CDialog@@8
rdata$r	SEGMENT
??_R1A@?0A@EA@CDialog@@8 DD FLAT:??_R0?AVCDialog@@@8	; CDialog::`RTTI Base Class Descriptor at (0,-1,0,64)'
	DD	03H
	DD	00H
	DD	0ffffffffH
	DD	00H
	DD	040H
	DD	FLAT:??_R3CDialog@@8
rdata$r	ENDS
;	COMDAT ??_R1A@?0A@EA@CButton@@8
rdata$r	SEGMENT
??_R1A@?0A@EA@CButton@@8 DD FLAT:??_R0?AVCButton@@@8	; CButton::`RTTI Base Class Descriptor at (0,-1,0,64)'
	DD	03H
	DD	00H
	DD	0ffffffffH
	DD	00H
	DD	040H
	DD	FLAT:??_R3CButton@@8
rdata$r	ENDS
;	COMDAT ??_R2CButton@@8
rdata$r	SEGMENT
??_R2CButton@@8 DD FLAT:??_R1A@?0A@EA@CButton@@8	; CButton::`RTTI Base Class Array'
	DD	FLAT:??_R1A@?0A@EA@CWnd@@8
	DD	FLAT:??_R1A@?0A@EA@CCmdTarget@@8
	DD	FLAT:??_R1A@?0A@EA@CObject@@8
rdata$r	ENDS
;	COMDAT ??_R3CButton@@8
rdata$r	SEGMENT
??_R3CButton@@8 DD 00H					; CButton::`RTTI Class Hierarchy Descriptor'
	DD	00H
	DD	04H
	DD	FLAT:??_R2CButton@@8
rdata$r	ENDS
;	COMDAT ??_R0?AVCButton@@@8
data$rs	SEGMENT
??_R0?AVCButton@@@8 DD FLAT:??_7type_info@@6B@		; CButton `RTTI Type Descriptor'
	DD	00H
	DB	'.?AVCButton@@', 00H
data$rs	ENDS
;	COMDAT ??_R4CButton@@6B@
rdata$r	SEGMENT
??_R4CButton@@6B@ DD 00H				; CButton::`RTTI Complete Object Locator'
	DD	00H
	DD	00H
	DD	FLAT:??_R0?AVCButton@@@8
	DD	FLAT:??_R3CButton@@8
rdata$r	ENDS
;	COMDAT ??_R2CCmdTarget@@8
rdata$r	SEGMENT
??_R2CCmdTarget@@8 DD FLAT:??_R1A@?0A@EA@CCmdTarget@@8	; CCmdTarget::`RTTI Base Class Array'
	DD	FLAT:??_R1A@?0A@EA@CObject@@8
rdata$r	ENDS
;	COMDAT ??_R3CCmdTarget@@8
rdata$r	SEGMENT
??_R3CCmdTarget@@8 DD 00H				; CCmdTarget::`RTTI Class Hierarchy Descriptor'
	DD	00H
	DD	02H
	DD	FLAT:??_R2CCmdTarget@@8
rdata$r	ENDS
;	COMDAT ??_R0?AVCCmdTarget@@@8
data$rs	SEGMENT
??_R0?AVCCmdTarget@@@8 DD FLAT:??_7type_info@@6B@	; CCmdTarget `RTTI Type Descriptor'
	DD	00H
	DB	'.?AVCCmdTarget@@', 00H
data$rs	ENDS
;	COMDAT ??_R1A@?0A@EA@CCmdTarget@@8
rdata$r	SEGMENT
??_R1A@?0A@EA@CCmdTarget@@8 DD FLAT:??_R0?AVCCmdTarget@@@8 ; CCmdTarget::`RTTI Base Class Descriptor at (0,-1,0,64)'
	DD	01H
	DD	00H
	DD	0ffffffffH
	DD	00H
	DD	040H
	DD	FLAT:??_R3CCmdTarget@@8
rdata$r	ENDS
;	COMDAT ??_R2CWnd@@8
rdata$r	SEGMENT
??_R2CWnd@@8 DD	FLAT:??_R1A@?0A@EA@CWnd@@8		; CWnd::`RTTI Base Class Array'
	DD	FLAT:??_R1A@?0A@EA@CCmdTarget@@8
	DD	FLAT:??_R1A@?0A@EA@CObject@@8
rdata$r	ENDS
;	COMDAT ??_R3CWnd@@8
rdata$r	SEGMENT
??_R3CWnd@@8 DD	00H					; CWnd::`RTTI Class Hierarchy Descriptor'
	DD	00H
	DD	03H
	DD	FLAT:??_R2CWnd@@8
rdata$r	ENDS
;	COMDAT ??_R0?AVCWnd@@@8
data$rs	SEGMENT
??_R0?AVCWnd@@@8 DD FLAT:??_7type_info@@6B@		; CWnd `RTTI Type Descriptor'
	DD	00H
	DB	'.?AVCWnd@@', 00H
data$rs	ENDS
;	COMDAT ??_R1A@?0A@EA@CWnd@@8
rdata$r	SEGMENT
??_R1A@?0A@EA@CWnd@@8 DD FLAT:??_R0?AVCWnd@@@8		; CWnd::`RTTI Base Class Descriptor at (0,-1,0,64)'
	DD	02H
	DD	00H
	DD	0ffffffffH
	DD	00H
	DD	040H
	DD	FLAT:??_R3CWnd@@8
rdata$r	ENDS
;	COMDAT ??_R1A@?0A@EA@CBitmap@@8
rdata$r	SEGMENT
??_R1A@?0A@EA@CBitmap@@8 DD FLAT:??_R0?AVCBitmap@@@8	; CBitmap::`RTTI Base Class Descriptor at (0,-1,0,64)'
	DD	02H
	DD	00H
	DD	0ffffffffH
	DD	00H
	DD	040H
	DD	FLAT:??_R3CBitmap@@8
rdata$r	ENDS
;	COMDAT ??_R2CBitmap@@8
rdata$r	SEGMENT
??_R2CBitmap@@8 DD FLAT:??_R1A@?0A@EA@CBitmap@@8	; CBitmap::`RTTI Base Class Array'
	DD	FLAT:??_R1A@?0A@EA@CGdiObject@@8
	DD	FLAT:??_R1A@?0A@EA@CObject@@8
rdata$r	ENDS
;	COMDAT ??_R3CBitmap@@8
rdata$r	SEGMENT
??_R3CBitmap@@8 DD 00H					; CBitmap::`RTTI Class Hierarchy Descriptor'
	DD	00H
	DD	03H
	DD	FLAT:??_R2CBitmap@@8
rdata$r	ENDS
;	COMDAT ??_R0?AVCBitmap@@@8
data$rs	SEGMENT
??_R0?AVCBitmap@@@8 DD FLAT:??_7type_info@@6B@		; CBitmap `RTTI Type Descriptor'
	DD	00H
	DB	'.?AVCBitmap@@', 00H
data$rs	ENDS
;	COMDAT ??_R4CBitmap@@6B@
rdata$r	SEGMENT
??_R4CBitmap@@6B@ DD 00H				; CBitmap::`RTTI Complete Object Locator'
	DD	00H
	DD	00H
	DD	FLAT:??_R0?AVCBitmap@@@8
	DD	FLAT:??_R3CBitmap@@8
rdata$r	ENDS
;	COMDAT ??_R1A@?0A@EA@CGdiObject@@8
rdata$r	SEGMENT
??_R1A@?0A@EA@CGdiObject@@8 DD FLAT:??_R0?AVCGdiObject@@@8 ; CGdiObject::`RTTI Base Class Descriptor at (0,-1,0,64)'
	DD	01H
	DD	00H
	DD	0ffffffffH
	DD	00H
	DD	040H
	DD	FLAT:??_R3CGdiObject@@8
rdata$r	ENDS
;	COMDAT ??_R2CGdiObject@@8
rdata$r	SEGMENT
??_R2CGdiObject@@8 DD FLAT:??_R1A@?0A@EA@CGdiObject@@8	; CGdiObject::`RTTI Base Class Array'
	DD	FLAT:??_R1A@?0A@EA@CObject@@8
rdata$r	ENDS
;	COMDAT ??_R3CGdiObject@@8
rdata$r	SEGMENT
??_R3CGdiObject@@8 DD 00H				; CGdiObject::`RTTI Class Hierarchy Descriptor'
	DD	00H
	DD	02H
	DD	FLAT:??_R2CGdiObject@@8
rdata$r	ENDS
;	COMDAT ??_R0?AVCGdiObject@@@8
data$rs	SEGMENT
??_R0?AVCGdiObject@@@8 DD FLAT:??_7type_info@@6B@	; CGdiObject `RTTI Type Descriptor'
	DD	00H
	DB	'.?AVCGdiObject@@', 00H
data$rs	ENDS
;	COMDAT ??_R4CGdiObject@@6B@
rdata$r	SEGMENT
??_R4CGdiObject@@6B@ DD 00H				; CGdiObject::`RTTI Complete Object Locator'
	DD	00H
	DD	00H
	DD	FLAT:??_R0?AVCGdiObject@@@8
	DD	FLAT:??_R3CGdiObject@@8
rdata$r	ENDS
;	COMDAT ??_R1A@?0A@EA@CObject@@8
rdata$r	SEGMENT
??_R1A@?0A@EA@CObject@@8 DD FLAT:??_R0?AVCObject@@@8	; CObject::`RTTI Base Class Descriptor at (0,-1,0,64)'
	DD	00H
	DD	00H
	DD	0ffffffffH
	DD	00H
	DD	040H
	DD	FLAT:??_R3CObject@@8
rdata$r	ENDS
;	COMDAT ??_R2CObject@@8
rdata$r	SEGMENT
??_R2CObject@@8 DD FLAT:??_R1A@?0A@EA@CObject@@8	; CObject::`RTTI Base Class Array'
rdata$r	ENDS
;	COMDAT ??_R3CObject@@8
rdata$r	SEGMENT
??_R3CObject@@8 DD 00H					; CObject::`RTTI Class Hierarchy Descriptor'
	DD	00H
	DD	01H
	DD	FLAT:??_R2CObject@@8
rdata$r	ENDS
;	COMDAT ??_R0?AVCObject@@@8
data$rs	SEGMENT
??_R0?AVCObject@@@8 DD FLAT:??_7type_info@@6B@		; CObject `RTTI Type Descriptor'
	DD	00H
	DB	'.?AVCObject@@', 00H
data$rs	ENDS
;	COMDAT ??_C@_01GBGANLPD@0@
CONST	SEGMENT
??_C@_01GBGANLPD@0@ DB '0', 00H				; `string'
CONST	ENDS
;	COMDAT ??_C@_02EMFKHFLK@?$CFX@
CONST	SEGMENT
??_C@_02EMFKHFLK@?$CFX@ DB '%X', 00H			; `string'
CONST	ENDS
;	COMDAT ??_C@_06NDLAHCHE@?$CFs?$CF08X@
CONST	SEGMENT
??_C@_06NDLAHCHE@?$CFs?$CF08X@ DB '%s%08X', 00H		; `string'
CONST	ENDS
;	COMDAT ??_C@_0P@IDMAJEGN@HANAROPCTRMAIN@
CONST	SEGMENT
??_C@_0P@IDMAJEGN@HANAROPCTRMAIN@ DB 'HANAROPCTRMAIN', 00H ; `string'
CONST	ENDS
;	COMDAT ??_C@_0M@CBBNGGHM@PcTrMng?4dll@
CONST	SEGMENT
??_C@_0M@CBBNGGHM@PcTrMng?4dll@ DB 'PcTrMng.dll', 00H	; `string'
CONST	ENDS
;	COMDAT ??_C@_02DKCKIIND@?$CFs@
CONST	SEGMENT
??_C@_02DKCKIIND@?$CFs@ DB '%s', 00H			; `string'
CONST	ENDS
;	COMDAT ??_C@_0N@OMEMOKLE@?$CFTs?5?$CI?$CFTs?3?$CFd?$CJ@
CONST	SEGMENT
??_C@_0N@OMEMOKLE@?$CFTs?5?$CI?$CFTs?3?$CFd?$CJ@ DB '%Ts (%Ts:%d)', 00H ; `string'
CONST	ENDS
;	COMDAT ??_C@_0BB@HBOOMJBF@?$CFTs?5?$CI?$CFTs?3?$CFd?$CJ?6?$CFTs@
CONST	SEGMENT
??_C@_0BB@HBOOMJBF@?$CFTs?5?$CI?$CFTs?3?$CFd?$CJ?6?$CFTs@ DB '%Ts (%Ts:%d'
	DB	')', 0aH, '%Ts', 00H				; `string'
CONST	ENDS
;	COMDAT ??_C@_0BP@OIEOKIDM@Exception?5thrown?5in?5destructor@
CONST	SEGMENT
??_C@_0BP@OIEOKIDM@Exception?5thrown?5in?5destructor@ DB 'Exception throw'
	DB	'n in destructor', 00H			; `string'
CONST	ENDS
;	COMDAT ??_C@_0HD@JJCHHHNK@C?3?2Program?5Files?5?$CIx86?$CJ?2Microsof@
CONST	SEGMENT
??_C@_0HD@JJCHHHNK@C?3?2Program?5Files?5?$CIx86?$CJ?2Microsof@ DB 'C:\Pro'
	DB	'gram Files (x86)\Microsoft Visual Studio\2019\Community\VC\To'
	DB	'ols\MSVC\14.29.30133\atlmfc\include\afxwin1.inl', 00H ; `string'
CONST	ENDS
;	COMDAT ??_7CButton@@6B@
CONST	SEGMENT
??_7CButton@@6B@ DD FLAT:??_R4CButton@@6B@		; CButton::`vftable'
	DD	FLAT:?GetRuntimeClass@CButton@@UBEPAUCRuntimeClass@@XZ
	DD	FLAT:??_ECButton@@UAEPAXI@Z
	DD	FLAT:?Serialize@CObject@@UAEXAAVCArchive@@@Z
	DD	FLAT:?AssertValid@CObject@@UBEXXZ
	DD	FLAT:?Dump@CObject@@UBEXAAVCDumpContext@@@Z
	DD	FLAT:?OnCmdMsg@CCmdTarget@@UAEHIHPAXPAUAFX_CMDHANDLERINFO@@@Z
	DD	FLAT:?OnFinalRelease@CWnd@@UAEXXZ
	DD	FLAT:?IsInvokeAllowed@CCmdTarget@@UAEHJ@Z
	DD	FLAT:?GetDispatchIID@CCmdTarget@@UAEHPAU_GUID@@@Z
	DD	FLAT:?GetTypeInfoCount@CCmdTarget@@UAEIXZ
	DD	FLAT:?GetTypeLibCache@CCmdTarget@@UAEPAVCTypeLibCache@@XZ
	DD	FLAT:?GetTypeLib@CCmdTarget@@UAEJKPAPAUITypeLib@@@Z
	DD	FLAT:?GetMessageMap@CWnd@@MBEPBUAFX_MSGMAP@@XZ
	DD	FLAT:?GetCommandMap@CCmdTarget@@MBEPBUAFX_OLECMDMAP@@XZ
	DD	FLAT:?GetDispatchMap@CCmdTarget@@MBEPBUAFX_DISPMAP@@XZ
	DD	FLAT:?GetConnectionMap@CCmdTarget@@MBEPBUAFX_CONNECTIONMAP@@XZ
	DD	FLAT:?GetInterfaceMap@CWnd@@MBEPBUAFX_INTERFACEMAP@@XZ
	DD	FLAT:?GetEventSinkMap@CCmdTarget@@MBEPBUAFX_EVENTSINKMAP@@XZ
	DD	FLAT:?OnCreateAggregates@CCmdTarget@@UAEHXZ
	DD	FLAT:?GetInterfaceHook@CCmdTarget@@UAEPAUIUnknown@@PBX@Z
	DD	FLAT:?GetExtraConnectionPoints@CCmdTarget@@MAEHPAVCPtrArray@@@Z
	DD	FLAT:?GetConnectionHook@CCmdTarget@@MAEPAUIConnectionPoint@@ABU_GUID@@@Z
	DD	FLAT:?PreSubclassWindow@CWnd@@UAEXXZ
	DD	FLAT:?Create@CWnd@@UAEHPBD0KABUtagRECT@@PAV1@IPAUCCreateContext@@@Z
	DD	FLAT:?CreateEx@CWnd@@UAEHKPBD0KABUtagRECT@@PAV1@IPAX@Z
	DD	FLAT:?CreateEx@CWnd@@UAEHKPBD0KHHHHPAUHWND__@@PAUHMENU__@@PAX@Z
	DD	FLAT:?DestroyWindow@CWnd@@UAEHXZ
	DD	FLAT:?PreCreateWindow@CWnd@@UAEHAAUtagCREATESTRUCTA@@@Z
	DD	FLAT:?CalcWindowRect@CWnd@@UAEXPAUtagRECT@@I@Z
	DD	FLAT:?GetMenu@CWnd@@UBEPAVCMenu@@XZ
	DD	FLAT:?SetMenu@CWnd@@UAEHPAVCMenu@@@Z
	DD	FLAT:?OnToolHitTest@CWnd@@UBEHVCPoint@@PAUtagTOOLINFOA@@@Z
	DD	FLAT:?GetScrollBarCtrl@CWnd@@UBEPAVCScrollBar@@H@Z
	DD	FLAT:?WinHelpA@CWnd@@UAEXKI@Z
	DD	FLAT:?HtmlHelpA@CWnd@@UAEXKI@Z
	DD	FLAT:?WinHelpInternal@CWnd@@UAEXKI@Z
	DD	FLAT:?ContinueModal@CWnd@@UAEHXZ
	DD	FLAT:?EndModalLoop@CWnd@@UAEXH@Z
	DD	FLAT:?OnDrawIconicThumbnailOrLivePreview@CWnd@@UAEXAAVCDC@@VCRect@@VCSize@@HAAH@Z
	DD	FLAT:?EnsureStdObj@CWnd@@UAEJXZ
	DD	FLAT:?get_accParent@CWnd@@UAEJPAPAUIDispatch@@@Z
	DD	FLAT:?get_accChildCount@CWnd@@UAEJPAJ@Z
	DD	FLAT:?get_accChild@CWnd@@UAEJUtagVARIANT@@PAPAUIDispatch@@@Z
	DD	FLAT:?get_accName@CWnd@@UAEJUtagVARIANT@@PAPA_W@Z
	DD	FLAT:?get_accValue@CWnd@@UAEJUtagVARIANT@@PAPA_W@Z
	DD	FLAT:?get_accDescription@CWnd@@UAEJUtagVARIANT@@PAPA_W@Z
	DD	FLAT:?get_accRole@CWnd@@UAEJUtagVARIANT@@PAU2@@Z
	DD	FLAT:?get_accState@CWnd@@UAEJUtagVARIANT@@PAU2@@Z
	DD	FLAT:?get_accHelp@CWnd@@UAEJUtagVARIANT@@PAPA_W@Z
	DD	FLAT:?get_accHelpTopic@CWnd@@UAEJPAPA_WUtagVARIANT@@PAJ@Z
	DD	FLAT:?get_accKeyboardShortcut@CWnd@@UAEJUtagVARIANT@@PAPA_W@Z
	DD	FLAT:?get_accFocus@CWnd@@UAEJPAUtagVARIANT@@@Z
	DD	FLAT:?get_accSelection@CWnd@@UAEJPAUtagVARIANT@@@Z
	DD	FLAT:?get_accDefaultAction@CWnd@@UAEJUtagVARIANT@@PAPA_W@Z
	DD	FLAT:?accSelect@CWnd@@UAEJJUtagVARIANT@@@Z
	DD	FLAT:?accLocation@CWnd@@UAEJPAJ000UtagVARIANT@@@Z
	DD	FLAT:?accNavigate@CWnd@@UAEJJUtagVARIANT@@PAU2@@Z
	DD	FLAT:?accHitTest@CWnd@@UAEJJJPAUtagVARIANT@@@Z
	DD	FLAT:?accDoDefaultAction@CWnd@@UAEJUtagVARIANT@@@Z
	DD	FLAT:?put_accName@CWnd@@UAEJUtagVARIANT@@PA_W@Z
	DD	FLAT:?put_accValue@CWnd@@UAEJUtagVARIANT@@PA_W@Z
	DD	FLAT:?SetProxy@CWnd@@UAEJPAUIAccessibleProxy@@@Z
	DD	FLAT:?CreateAccessibleProxy@CWnd@@UAEJIJPAJ@Z
	DD	FLAT:?OnCommand@CWnd@@MAEHIJ@Z
	DD	FLAT:?OnNotify@CWnd@@MAEHIJPAJ@Z
	DD	FLAT:?GetSuperWndProcAddr@CWnd@@MAEPAP6GJPAUHWND__@@IIJ@ZXZ
	DD	FLAT:?DoDataExchange@CWnd@@MAEXPAVCDataExchange@@@Z
	DD	FLAT:?BeginModalState@CWnd@@UAEXXZ
	DD	FLAT:?EndModalState@CWnd@@UAEXXZ
	DD	FLAT:?PreTranslateMessage@CWnd@@UAEHPAUtagMSG@@@Z
	DD	FLAT:?OnAmbientProperty@CWnd@@UAEHPAVCOleControlSite@@JPAUtagVARIANT@@@Z
	DD	FLAT:?WindowProc@CWnd@@MAEJIIJ@Z
	DD	FLAT:?OnWndMsg@CWnd@@MAEHIIJPAJ@Z
	DD	FLAT:?DefWindowProcA@CWnd@@MAEJIIJ@Z
	DD	FLAT:?PostNcDestroy@CWnd@@MAEXXZ
	DD	FLAT:?OnChildNotify@CButton@@MAEHIIJPAJ@Z
	DD	FLAT:?OnTouchInputs@CWnd@@MAEHIPAUtagTOUCHINPUT@@@Z
	DD	FLAT:?OnTouchInput@CWnd@@MAEHVCPoint@@HHPAUtagTOUCHINPUT@@@Z
	DD	FLAT:?GetGestureStatus@CWnd@@MAEKVCPoint@@@Z
	DD	FLAT:?OnGestureZoom@CWnd@@MAEHVCPoint@@J@Z
	DD	FLAT:?OnGesturePan@CWnd@@MAEHVCPoint@@0@Z
	DD	FLAT:?OnGestureRotate@CWnd@@MAEHVCPoint@@N@Z
	DD	FLAT:?OnGestureTwoFingerTap@CWnd@@MAEHVCPoint@@@Z
	DD	FLAT:?OnGesturePressAndTap@CWnd@@MAEHVCPoint@@J@Z
	DD	FLAT:?ResizeDynamicLayout@CWnd@@MAEXXZ
	DD	FLAT:?CheckAutoCenter@CWnd@@UAEHXZ
	DD	FLAT:?IsFrameWnd@CWnd@@UBEHXZ
	DD	FLAT:?CreateControlContainer@CWnd@@MAEHPAPAVCOleControlContainer@@@Z
	DD	FLAT:?CreateControlSite@CWnd@@MAEHPAVCOleControlContainer@@PAPAVCOleControlSite@@IABU_GUID@@@Z
	DD	FLAT:?SetOccDialogInfo@CWnd@@MAEHPAU_AFX_OCC_DIALOG_INFO@@@Z
	DD	FLAT:?GetOccDialogInfo@CWnd@@MAEPAU_AFX_OCC_DIALOG_INFO@@XZ
	DD	FLAT:?Create@CButton@@UAEHPBDKABUtagRECT@@PAVCWnd@@I@Z
	DD	FLAT:?DrawItem@CButton@@UAEXPAUtagDRAWITEMSTRUCT@@@Z
CONST	ENDS
;	COMDAT ??_7CBitmap@@6B@
CONST	SEGMENT
??_7CBitmap@@6B@ DD FLAT:??_R4CBitmap@@6B@		; CBitmap::`vftable'
	DD	FLAT:?GetRuntimeClass@CBitmap@@UBEPAUCRuntimeClass@@XZ
	DD	FLAT:??_ECBitmap@@UAEPAXI@Z
	DD	FLAT:?Serialize@CObject@@UAEXAAVCArchive@@@Z
	DD	FLAT:?AssertValid@CObject@@UBEXXZ
	DD	FLAT:?Dump@CObject@@UBEXAAVCDumpContext@@@Z
CONST	ENDS
;	COMDAT ??_7CGdiObject@@6B@
CONST	SEGMENT
??_7CGdiObject@@6B@ DD FLAT:??_R4CGdiObject@@6B@	; CGdiObject::`vftable'
	DD	FLAT:?GetRuntimeClass@CGdiObject@@UBEPAUCRuntimeClass@@XZ
	DD	FLAT:??_ECGdiObject@@UAEPAXI@Z
	DD	FLAT:?Serialize@CObject@@UAEXAAVCArchive@@@Z
	DD	FLAT:?AssertValid@CObject@@UBEXXZ
	DD	FLAT:?Dump@CObject@@UBEXAAVCDumpContext@@@Z
CONST	ENDS
;	COMDAT ??_C@_00CNPNBAHC@@
CONST	SEGMENT
??_C@_00CNPNBAHC@@ DB 00H				; `string'
CONST	ENDS
;	COMDAT ?_AtlWinModule@ATL@@3VCAtlWinModule@1@A
_DATA	SEGMENT
?_AtlWinModule@ATL@@3VCAtlWinModule@1@A DD 02cH		; ATL::_AtlWinModule
	DB	24 DUP(00H)
	DD	00H
_DATA	ENDS
;	COMDAT ??_C@_02DPKJAMEF@?$CFd@
CONST	SEGMENT
??_C@_02DPKJAMEF@?$CFd@ DB '%d', 00H			; `string'
CONST	ENDS
;	COMDAT ??_R0PAVCException@@@8
data$r	SEGMENT
??_R0PAVCException@@@8 DD FLAT:??_7type_info@@6B@	; CException * `RTTI Type Descriptor'
	DD	00H
	DB	'.PAVCException@@', 00H
data$r	ENDS
;	COMDAT xdata$x
xdata$x	SEGMENT
__ehfuncinfo$??_Estringdispid@CComTypeInfoHolder@ATL@@QAEPAXI@Z DD 019930522H
	DD	00H
	DD	00H
	DD	2 DUP(00H)
	DD	2 DUP(00H)
	DD	00H
	DD	05H
xdata$x	ENDS
;	COMDAT xdata$x
xdata$x	SEGMENT
__unwindtable$??_GCTabCodeSearch@@UAEPAXI@Z DD 0ffffffffH
	DD	FLAT:___std_terminate
	DD	0ffffffffH
	DD	FLAT:___std_terminate
	DD	01H
	DD	FLAT:___std_terminate
__ehfuncinfo$??_GCTabCodeSearch@@UAEPAXI@Z DD 019930522H
	DD	03H
	DD	FLAT:__unwindtable$??_GCTabCodeSearch@@UAEPAXI@Z
	DD	2 DUP(00H)
	DD	2 DUP(00H)
	DD	00H
	DD	05H
xdata$x	ENDS
;	COMDAT xdata$x
xdata$x	SEGMENT
__unwindtable$??1CTabCodeSearch@@UAE@XZ DD 0ffffffffH
	DD	FLAT:___std_terminate
	DD	0ffffffffH
	DD	FLAT:___std_terminate
	DD	01H
	DD	FLAT:___std_terminate
__ehfuncinfo$??1CTabCodeSearch@@UAE@XZ DD 019930522H
	DD	03H
	DD	FLAT:__unwindtable$??1CTabCodeSearch@@UAE@XZ
	DD	2 DUP(00H)
	DD	2 DUP(00H)
	DD	00H
	DD	05H
xdata$x	ENDS
;	COMDAT xdata$x
xdata$x	SEGMENT
__unwindtable$??_G?$CList@PAVCItemLongData@@PAV1@@@UAEPAXI@Z DD 0ffffffffH
	DD	FLAT:___std_terminate
__ehfuncinfo$??_G?$CList@PAVCItemLongData@@PAV1@@@UAEPAXI@Z DD 019930522H
	DD	01H
	DD	FLAT:__unwindtable$??_G?$CList@PAVCItemLongData@@PAV1@@@UAEPAXI@Z
	DD	2 DUP(00H)
	DD	2 DUP(00H)
	DD	00H
	DD	05H
xdata$x	ENDS
;	COMDAT xdata$x
xdata$x	SEGMENT
__ehfuncinfo$??1?$CList@PAVCItemLongData@@PAV1@@@UAE@XZ DD 019930522H
	DD	00H
	DD	00H
	DD	2 DUP(00H)
	DD	2 DUP(00H)
	DD	00H
	DD	05H
xdata$x	ENDS
;	COMDAT xdata$x
xdata$x	SEGMENT
__ehfuncinfo$?OnMakeAccountConcData@CTabCodeSearch@@QAEJIJ@Z DD 019930522H
	DD	08H
	DD	FLAT:__unwindtable$?OnMakeAccountConcData@CTabCodeSearch@@QAEJIJ@Z
	DD	2 DUP(00H)
	DD	2 DUP(00H)
	DD	00H
	DD	01H
__unwindtable$?OnMakeAccountConcData@CTabCodeSearch@@QAEJIJ@Z DD 0ffffffffH
	DD	FLAT:__unwindfunclet$?OnMakeAccountConcData@CTabCodeSearch@@QAEJIJ@Z$0
	DD	00H
	DD	FLAT:__unwindfunclet$?OnMakeAccountConcData@CTabCodeSearch@@QAEJIJ@Z$1
	DD	01H
	DD	FLAT:__unwindfunclet$?OnMakeAccountConcData@CTabCodeSearch@@QAEJIJ@Z$2
	DD	02H
	DD	FLAT:__unwindfunclet$?OnMakeAccountConcData@CTabCodeSearch@@QAEJIJ@Z$3
	DD	03H
	DD	FLAT:__unwindfunclet$?OnMakeAccountConcData@CTabCodeSearch@@QAEJIJ@Z$4
	DD	04H
	DD	FLAT:__unwindfunclet$?OnMakeAccountConcData@CTabCodeSearch@@QAEJIJ@Z$5
	DD	05H
	DD	FLAT:__unwindfunclet$?OnMakeAccountConcData@CTabCodeSearch@@QAEJIJ@Z$6
	DD	06H
	DD	FLAT:__unwindfunclet$?OnMakeAccountConcData@CTabCodeSearch@@QAEJIJ@Z$7
xdata$x	ENDS
;	COMDAT xdata$x
xdata$x	SEGMENT
__unwindtable$?OnCheckAvgPrice@CTabCodeSearch@@QAEJIJ@Z DD 0ffffffffH
	DD	FLAT:__unwindfunclet$?OnCheckAvgPrice@CTabCodeSearch@@QAEJIJ@Z$0
	DD	00H
	DD	FLAT:__unwindfunclet$?OnCheckAvgPrice@CTabCodeSearch@@QAEJIJ@Z$1
__ehfuncinfo$?OnCheckAvgPrice@CTabCodeSearch@@QAEJIJ@Z DD 019930522H
	DD	02H
	DD	FLAT:__unwindtable$?OnCheckAvgPrice@CTabCodeSearch@@QAEJIJ@Z
	DD	2 DUP(00H)
	DD	2 DUP(00H)
	DD	00H
	DD	01H
xdata$x	ENDS
;	COMDAT xdata$x
xdata$x	SEGMENT
__ehfuncinfo$?OnAddAccountCodeItem@CTabCodeSearch@@QAEJIJ@Z DD 019930522H
	DD	07H
	DD	FLAT:__unwindtable$?OnAddAccountCodeItem@CTabCodeSearch@@QAEJIJ@Z
	DD	2 DUP(00H)
	DD	2 DUP(00H)
	DD	00H
	DD	01H
__unwindtable$?OnAddAccountCodeItem@CTabCodeSearch@@QAEJIJ@Z DD 0ffffffffH
	DD	FLAT:__unwindfunclet$?OnAddAccountCodeItem@CTabCodeSearch@@QAEJIJ@Z$0
	DD	00H
	DD	FLAT:__unwindfunclet$?OnAddAccountCodeItem@CTabCodeSearch@@QAEJIJ@Z$1
	DD	01H
	DD	FLAT:__unwindfunclet$?OnAddAccountCodeItem@CTabCodeSearch@@QAEJIJ@Z$2
	DD	02H
	DD	FLAT:__unwindfunclet$?OnAddAccountCodeItem@CTabCodeSearch@@QAEJIJ@Z$3
	DD	03H
	DD	FLAT:__unwindfunclet$?OnAddAccountCodeItem@CTabCodeSearch@@QAEJIJ@Z$4
	DD	04H
	DD	FLAT:__unwindfunclet$?OnAddAccountCodeItem@CTabCodeSearch@@QAEJIJ@Z$5
	DD	05H
	DD	FLAT:__unwindfunclet$?OnAddAccountCodeItem@CTabCodeSearch@@QAEJIJ@Z$6
xdata$x	ENDS
;	COMDAT xdata$x
xdata$x	SEGMENT
__ehfuncinfo$?OnChkConcprice@CTabCodeSearch@@QAEXXZ DD 019930522H
	DD	09H
	DD	FLAT:__unwindtable$?OnChkConcprice@CTabCodeSearch@@QAEXXZ
	DD	2 DUP(00H)
	DD	2 DUP(00H)
	DD	00H
	DD	01H
__unwindtable$?OnChkConcprice@CTabCodeSearch@@QAEXXZ DD 0ffffffffH
	DD	FLAT:__unwindfunclet$?OnChkConcprice@CTabCodeSearch@@QAEXXZ$0
	DD	00H
	DD	FLAT:__unwindfunclet$?OnChkConcprice@CTabCodeSearch@@QAEXXZ$1
	DD	01H
	DD	FLAT:__unwindfunclet$?OnChkConcprice@CTabCodeSearch@@QAEXXZ$2
	DD	00H
	DD	FLAT:__unwindfunclet$?OnChkConcprice@CTabCodeSearch@@QAEXXZ$3
	DD	03H
	DD	FLAT:__unwindfunclet$?OnChkConcprice@CTabCodeSearch@@QAEXXZ$4
	DD	04H
	DD	FLAT:__unwindfunclet$?OnChkConcprice@CTabCodeSearch@@QAEXXZ$5
	DD	05H
	DD	FLAT:__unwindfunclet$?OnChkConcprice@CTabCodeSearch@@QAEXXZ$6
	DD	06H
	DD	FLAT:__unwindfunclet$?OnChkConcprice@CTabCodeSearch@@QAEXXZ$7
	DD	07H
	DD	FLAT:__unwindfunclet$?OnChkConcprice@CTabCodeSearch@@QAEXXZ$8
xdata$x	ENDS
;	COMDAT xdata$x
xdata$x	SEGMENT
__ehfuncinfo$?OnChkAvgprice@CTabCodeSearch@@QAEXXZ DD 019930522H
	DD	05H
	DD	FLAT:__unwindtable$?OnChkAvgprice@CTabCodeSearch@@QAEXXZ
	DD	2 DUP(00H)
	DD	2 DUP(00H)
	DD	00H
	DD	01H
__unwindtable$?OnChkAvgprice@CTabCodeSearch@@QAEXXZ DD 0ffffffffH
	DD	FLAT:__unwindfunclet$?OnChkAvgprice@CTabCodeSearch@@QAEXXZ$0
	DD	00H
	DD	FLAT:__unwindfunclet$?OnChkAvgprice@CTabCodeSearch@@QAEXXZ$1
	DD	01H
	DD	FLAT:__unwindfunclet$?OnChkAvgprice@CTabCodeSearch@@QAEXXZ$2
	DD	02H
	DD	FLAT:__unwindfunclet$?OnChkAvgprice@CTabCodeSearch@@QAEXXZ$3
	DD	02H
	DD	FLAT:__unwindfunclet$?OnChkAvgprice@CTabCodeSearch@@QAEXXZ$5
xdata$x	ENDS
;	COMDAT xdata$x
xdata$x	SEGMENT
__unwindtable$?OnBtnAddapply@CTabCodeSearch@@QAEXXZ DD 0ffffffffH
	DD	FLAT:__unwindfunclet$?OnBtnAddapply@CTabCodeSearch@@QAEXXZ$0
	DD	00H
	DD	FLAT:__unwindfunclet$?OnBtnAddapply@CTabCodeSearch@@QAEXXZ$1
	DD	00H
	DD	FLAT:__unwindfunclet$?OnBtnAddapply@CTabCodeSearch@@QAEXXZ$2
__ehfuncinfo$?OnBtnAddapply@CTabCodeSearch@@QAEXXZ DD 019930522H
	DD	03H
	DD	FLAT:__unwindtable$?OnBtnAddapply@CTabCodeSearch@@QAEXXZ
	DD	2 DUP(00H)
	DD	2 DUP(00H)
	DD	00H
	DD	01H
xdata$x	ENDS
;	COMDAT xdata$x
xdata$x	SEGMENT
__unwindtable$?OnRclickListcode@CTabCodeSearch@@QAEXPAUtagNMHDR@@PAJ@Z DD 0ffffffffH
	DD	FLAT:__unwindfunclet$?OnRclickListcode@CTabCodeSearch@@QAEXPAUtagNMHDR@@PAJ@Z$0
__ehfuncinfo$?OnRclickListcode@CTabCodeSearch@@QAEXPAUtagNMHDR@@PAJ@Z DD 019930522H
	DD	01H
	DD	FLAT:__unwindtable$?OnRclickListcode@CTabCodeSearch@@QAEXPAUtagNMHDR@@PAJ@Z
	DD	2 DUP(00H)
	DD	2 DUP(00H)
	DD	00H
	DD	01H
xdata$x	ENDS
;	COMDAT xdata$x
xdata$x	SEGMENT
__unwindtable$?OnClickListcode@CTabCodeSearch@@QAEXPAUtagNMHDR@@PAJ@Z DD 0ffffffffH
	DD	FLAT:__unwindfunclet$?OnClickListcode@CTabCodeSearch@@QAEXPAUtagNMHDR@@PAJ@Z$0
__ehfuncinfo$?OnClickListcode@CTabCodeSearch@@QAEXPAUtagNMHDR@@PAJ@Z DD 019930522H
	DD	01H
	DD	FLAT:__unwindtable$?OnClickListcode@CTabCodeSearch@@QAEXPAUtagNMHDR@@PAJ@Z
	DD	2 DUP(00H)
	DD	2 DUP(00H)
	DD	00H
	DD	01H
xdata$x	ENDS
;	COMDAT xdata$x
xdata$x	SEGMENT
__unwindtable$?OnRButtonUp@CTabCodeSearch@@QAEXIVCPoint@@@Z DD 0ffffffffH
	DD	FLAT:__unwindfunclet$?OnRButtonUp@CTabCodeSearch@@QAEXIVCPoint@@@Z$1
	DD	0ffffffffH
	DD	FLAT:__unwindfunclet$?OnRButtonUp@CTabCodeSearch@@QAEXIVCPoint@@@Z$2
	DD	01H
	DD	FLAT:__unwindfunclet$?OnRButtonUp@CTabCodeSearch@@QAEXIVCPoint@@@Z$3
__ehfuncinfo$?OnRButtonUp@CTabCodeSearch@@QAEXIVCPoint@@@Z DD 019930522H
	DD	03H
	DD	FLAT:__unwindtable$?OnRButtonUp@CTabCodeSearch@@QAEXIVCPoint@@@Z
	DD	2 DUP(00H)
	DD	2 DUP(00H)
	DD	00H
	DD	01H
xdata$x	ENDS
;	COMDAT xdata$x
xdata$x	SEGMENT
__unwindtable$?OnLButtonUp@CTabCodeSearch@@QAEXIVCPoint@@@Z DD 0ffffffffH
	DD	FLAT:__unwindfunclet$?OnLButtonUp@CTabCodeSearch@@QAEXIVCPoint@@@Z$1
	DD	0ffffffffH
	DD	FLAT:__unwindfunclet$?OnLButtonUp@CTabCodeSearch@@QAEXIVCPoint@@@Z$2
	DD	01H
	DD	FLAT:__unwindfunclet$?OnLButtonUp@CTabCodeSearch@@QAEXIVCPoint@@@Z$3
__ehfuncinfo$?OnLButtonUp@CTabCodeSearch@@QAEXIVCPoint@@@Z DD 019930522H
	DD	03H
	DD	FLAT:__unwindtable$?OnLButtonUp@CTabCodeSearch@@QAEXIVCPoint@@@Z
	DD	2 DUP(00H)
	DD	2 DUP(00H)
	DD	00H
	DD	01H
xdata$x	ENDS
;	COMDAT xdata$x
xdata$x	SEGMENT
__unwindtable$?OnDblclkListcode@CTabCodeSearch@@QAEXPAUtagNMHDR@@PAJ@Z DD 0ffffffffH
	DD	FLAT:__unwindfunclet$?OnDblclkListcode@CTabCodeSearch@@QAEXPAUtagNMHDR@@PAJ@Z$0
__ehfuncinfo$?OnDblclkListcode@CTabCodeSearch@@QAEXPAUtagNMHDR@@PAJ@Z DD 019930522H
	DD	01H
	DD	FLAT:__unwindtable$?OnDblclkListcode@CTabCodeSearch@@QAEXPAUtagNMHDR@@PAJ@Z
	DD	2 DUP(00H)
	DD	2 DUP(00H)
	DD	00H
	DD	01H
xdata$x	ENDS
;	COMDAT xdata$x
xdata$x	SEGMENT
__unwindtable$?OnDestroy@CTabCodeSearch@@QAEXXZ DD 0ffffffffH
	DD	FLAT:__unwindfunclet$?OnDestroy@CTabCodeSearch@@QAEXXZ$1
__ehfuncinfo$?OnDestroy@CTabCodeSearch@@QAEXXZ DD 019930522H
	DD	01H
	DD	FLAT:__unwindtable$?OnDestroy@CTabCodeSearch@@QAEXXZ
	DD	2 DUP(00H)
	DD	2 DUP(00H)
	DD	00H
	DD	01H
xdata$x	ENDS
;	COMDAT xdata$x
xdata$x	SEGMENT
__unwindtable$?OnInitDialog@CTabCodeSearch@@UAEHXZ DD 0ffffffffH
	DD	FLAT:__unwindfunclet$?OnInitDialog@CTabCodeSearch@@UAEHXZ$0
__ehfuncinfo$?OnInitDialog@CTabCodeSearch@@UAEHXZ DD 019930522H
	DD	01H
	DD	FLAT:__unwindtable$?OnInitDialog@CTabCodeSearch@@UAEHXZ
	DD	2 DUP(00H)
	DD	2 DUP(00H)
	DD	00H
	DD	01H
xdata$x	ENDS
;	COMDAT xdata$x
xdata$x	SEGMENT
__unwindtable$?RunAutoTimer@CTabCodeSearch@@QAEXXZ DD 0ffffffffH
	DD	FLAT:__unwindfunclet$?RunAutoTimer@CTabCodeSearch@@QAEXXZ$0
	DD	00H
	DD	FLAT:__unwindfunclet$?RunAutoTimer@CTabCodeSearch@@QAEXXZ$1
__ehfuncinfo$?RunAutoTimer@CTabCodeSearch@@QAEXXZ DD 019930522H
	DD	02H
	DD	FLAT:__unwindtable$?RunAutoTimer@CTabCodeSearch@@QAEXXZ
	DD	2 DUP(00H)
	DD	2 DUP(00H)
	DD	00H
	DD	01H
xdata$x	ENDS
;	COMDAT xdata$x
xdata$x	SEGMENT
__unwindtable$?ApplySelectedCodes@CTabCodeSearch@@QAEXXZ DD 0ffffffffH
	DD	FLAT:__unwindfunclet$?ApplySelectedCodes@CTabCodeSearch@@QAEXXZ$0
	DD	00H
	DD	FLAT:__unwindfunclet$?ApplySelectedCodes@CTabCodeSearch@@QAEXXZ$1
	DD	00H
	DD	FLAT:__unwindfunclet$?ApplySelectedCodes@CTabCodeSearch@@QAEXXZ$2
	DD	00H
	DD	FLAT:__unwindfunclet$?ApplySelectedCodes@CTabCodeSearch@@QAEXXZ$3
__ehfuncinfo$?ApplySelectedCodes@CTabCodeSearch@@QAEXXZ DD 019930522H
	DD	04H
	DD	FLAT:__unwindtable$?ApplySelectedCodes@CTabCodeSearch@@QAEXXZ
	DD	2 DUP(00H)
	DD	2 DUP(00H)
	DD	00H
	DD	01H
xdata$x	ENDS
;	COMDAT xdata$x
xdata$x	SEGMENT
__ehfuncinfo$?fnFolderChange@CTabCodeSearch@@QAEXHH@Z DD 019930522H
	DD	06H
	DD	FLAT:__unwindtable$?fnFolderChange@CTabCodeSearch@@QAEXHH@Z
	DD	2 DUP(00H)
	DD	2 DUP(00H)
	DD	00H
	DD	01H
__unwindtable$?fnFolderChange@CTabCodeSearch@@QAEXHH@Z DD 0ffffffffH
	DD	FLAT:__unwindfunclet$?fnFolderChange@CTabCodeSearch@@QAEXHH@Z$0
	DD	00H
	DD	FLAT:__unwindfunclet$?fnFolderChange@CTabCodeSearch@@QAEXHH@Z$2
	DD	01H
	DD	FLAT:__unwindfunclet$?fnFolderChange@CTabCodeSearch@@QAEXHH@Z$6
	DD	02H
	DD	FLAT:__unwindfunclet$?fnFolderChange@CTabCodeSearch@@QAEXHH@Z$7
	DD	01H
	DD	FLAT:__unwindfunclet$?fnFolderChange@CTabCodeSearch@@QAEXHH@Z$3
	DD	04H
	DD	FLAT:__unwindfunclet$?fnFolderChange@CTabCodeSearch@@QAEXHH@Z$4
xdata$x	ENDS
;	COMDAT xdata$x
xdata$x	SEGMENT
__ehfuncinfo$?ChangeTreeFolder@CTabCodeSearch@@QAEJV?$CStringT@DV?$StrTraitMFC_DLL@DV?$ChTraitsCRT@D@ATL@@@@@ATL@@PAVCTrTreeCtrl@@JH@Z DD 019930522H
	DD	05H
	DD	FLAT:__unwindtable$?ChangeTreeFolder@CTabCodeSearch@@QAEJV?$CStringT@DV?$StrTraitMFC_DLL@DV?$ChTraitsCRT@D@ATL@@@@@ATL@@PAVCTrTreeCtrl@@JH@Z
	DD	2 DUP(00H)
	DD	2 DUP(00H)
	DD	00H
	DD	01H
__unwindtable$?ChangeTreeFolder@CTabCodeSearch@@QAEJV?$CStringT@DV?$StrTraitMFC_DLL@DV?$ChTraitsCRT@D@ATL@@@@@ATL@@PAVCTrTreeCtrl@@JH@Z DD 0ffffffffH
	DD	FLAT:__unwindfunclet$?ChangeTreeFolder@CTabCodeSearch@@QAEJV?$CStringT@DV?$StrTraitMFC_DLL@DV?$ChTraitsCRT@D@ATL@@@@@ATL@@PAVCTrTreeCtrl@@JH@Z$0
	DD	00H
	DD	FLAT:__unwindfunclet$?ChangeTreeFolder@CTabCodeSearch@@QAEJV?$CStringT@DV?$StrTraitMFC_DLL@DV?$ChTraitsCRT@D@ATL@@@@@ATL@@PAVCTrTreeCtrl@@JH@Z$4
	DD	01H
	DD	FLAT:__unwindfunclet$?ChangeTreeFolder@CTabCodeSearch@@QAEJV?$CStringT@DV?$StrTraitMFC_DLL@DV?$ChTraitsCRT@D@ATL@@@@@ATL@@PAVCTrTreeCtrl@@JH@Z$5
	DD	00H
	DD	FLAT:__unwindfunclet$?ChangeTreeFolder@CTabCodeSearch@@QAEJV?$CStringT@DV?$StrTraitMFC_DLL@DV?$ChTraitsCRT@D@ATL@@@@@ATL@@PAVCTrTreeCtrl@@JH@Z$1
	DD	03H
	DD	FLAT:__unwindfunclet$?ChangeTreeFolder@CTabCodeSearch@@QAEJV?$CStringT@DV?$StrTraitMFC_DLL@DV?$ChTraitsCRT@D@ATL@@@@@ATL@@PAVCTrTreeCtrl@@JH@Z$2
xdata$x	ENDS
;	COMDAT xdata$x
xdata$x	SEGMENT
__unwindtable$?CreateTreeCtrl@CTabCodeSearch@@QAEPAVCTrTreeCtrl@@V?$CStringT@DV?$StrTraitMFC_DLL@DV?$ChTraitsCRT@D@ATL@@@@@ATL@@I@Z DD 0ffffffffH
	DD	FLAT:__unwindfunclet$?CreateTreeCtrl@CTabCodeSearch@@QAEPAVCTrTreeCtrl@@V?$CStringT@DV?$StrTraitMFC_DLL@DV?$ChTraitsCRT@D@ATL@@@@@ATL@@I@Z$0
	DD	00H
	DD	FLAT:__unwindfunclet$?CreateTreeCtrl@CTabCodeSearch@@QAEPAVCTrTreeCtrl@@V?$CStringT@DV?$StrTraitMFC_DLL@DV?$ChTraitsCRT@D@ATL@@@@@ATL@@I@Z$1
__ehfuncinfo$?CreateTreeCtrl@CTabCodeSearch@@QAEPAVCTrTreeCtrl@@V?$CStringT@DV?$StrTraitMFC_DLL@DV?$ChTraitsCRT@D@ATL@@@@@ATL@@I@Z DD 019930522H
	DD	02H
	DD	FLAT:__unwindtable$?CreateTreeCtrl@CTabCodeSearch@@QAEPAVCTrTreeCtrl@@V?$CStringT@DV?$StrTraitMFC_DLL@DV?$ChTraitsCRT@D@ATL@@@@@ATL@@I@Z
	DD	2 DUP(00H)
	DD	2 DUP(00H)
	DD	00H
	DD	01H
xdata$x	ENDS
;	COMDAT xdata$x
xdata$x	SEGMENT
__unwindtable$?MakeDrdsUnConnectUnAdvise@CTabCodeSearch@@QAEHV?$CStringT@DV?$StrTraitMFC_DLL@DV?$ChTraitsCRT@D@ATL@@@@@ATL@@@Z DD 0ffffffffH
	DD	FLAT:__unwindfunclet$?MakeDrdsUnConnectUnAdvise@CTabCodeSearch@@QAEHV?$CStringT@DV?$StrTraitMFC_DLL@DV?$ChTraitsCRT@D@ATL@@@@@ATL@@@Z$0
__ehfuncinfo$?MakeDrdsUnConnectUnAdvise@CTabCodeSearch@@QAEHV?$CStringT@DV?$StrTraitMFC_DLL@DV?$ChTraitsCRT@D@ATL@@@@@ATL@@@Z DD 019930522H
	DD	01H
	DD	FLAT:__unwindtable$?MakeDrdsUnConnectUnAdvise@CTabCodeSearch@@QAEHV?$CStringT@DV?$StrTraitMFC_DLL@DV?$ChTraitsCRT@D@ATL@@@@@ATL@@@Z
	DD	2 DUP(00H)
	DD	2 DUP(00H)
	DD	00H
	DD	01H
xdata$x	ENDS
;	COMDAT xdata$x
xdata$x	SEGMENT
__unwindtable$?MakeDrdsConnectAdvise@CTabCodeSearch@@QAEHV?$CStringT@DV?$StrTraitMFC_DLL@DV?$ChTraitsCRT@D@ATL@@@@@ATL@@@Z DD 0ffffffffH
	DD	FLAT:__unwindfunclet$?MakeDrdsConnectAdvise@CTabCodeSearch@@QAEHV?$CStringT@DV?$StrTraitMFC_DLL@DV?$ChTraitsCRT@D@ATL@@@@@ATL@@@Z$0
__ehfuncinfo$?MakeDrdsConnectAdvise@CTabCodeSearch@@QAEHV?$CStringT@DV?$StrTraitMFC_DLL@DV?$ChTraitsCRT@D@ATL@@@@@ATL@@@Z DD 019930522H
	DD	01H
	DD	FLAT:__unwindtable$?MakeDrdsConnectAdvise@CTabCodeSearch@@QAEHV?$CStringT@DV?$StrTraitMFC_DLL@DV?$ChTraitsCRT@D@ATL@@@@@ATL@@@Z
	DD	2 DUP(00H)
	DD	2 DUP(00H)
	DD	00H
	DD	01H
xdata$x	ENDS
;	COMDAT xdata$x
xdata$x	SEGMENT
__unwindtable$?_DoFilterStockCode@CTLMCallback@CTabCodeSearch@@QAEHPAV?$CList@VCCodeTypeA@@V1@@@@Z DD 0ffffffffH
	DD	FLAT:__unwindfunclet$?_DoFilterStockCode@CTLMCallback@CTabCodeSearch@@QAEHPAV?$CList@VCCodeTypeA@@V1@@@@Z$2
	DD	0ffffffffH
	DD	FLAT:__unwindfunclet$?_DoFilterStockCode@CTLMCallback@CTabCodeSearch@@QAEHPAV?$CList@VCCodeTypeA@@V1@@@@Z$0
__ehfuncinfo$?_DoFilterStockCode@CTLMCallback@CTabCodeSearch@@QAEHPAV?$CList@VCCodeTypeA@@V1@@@@Z DD 019930522H
	DD	02H
	DD	FLAT:__unwindtable$?_DoFilterStockCode@CTLMCallback@CTabCodeSearch@@QAEHPAV?$CList@VCCodeTypeA@@V1@@@@Z
	DD	2 DUP(00H)
	DD	2 DUP(00H)
	DD	00H
	DD	01H
xdata$x	ENDS
;	COMDAT xdata$x
xdata$x	SEGMENT
__unwindtable$?RequestCurrentPrice@CTabCodeSearch@@AAEXPBDJ@Z DD 0ffffffffH
	DD	FLAT:__unwindfunclet$?RequestCurrentPrice@CTabCodeSearch@@AAEXPBDJ@Z$0
__ehfuncinfo$?RequestCurrentPrice@CTabCodeSearch@@AAEXPBDJ@Z DD 019930522H
	DD	01H
	DD	FLAT:__unwindtable$?RequestCurrentPrice@CTabCodeSearch@@AAEXPBDJ@Z
	DD	2 DUP(00H)
	DD	2 DUP(00H)
	DD	00H
	DD	01H
xdata$x	ENDS
;	COMDAT xdata$x
xdata$x	SEGMENT
__unwindtable$?SetTimerInfo@CTabCodeSearch@@AAEXH@Z DD 0ffffffffH
	DD	FLAT:__unwindfunclet$?SetTimerInfo@CTabCodeSearch@@AAEXH@Z$0
__ehfuncinfo$?SetTimerInfo@CTabCodeSearch@@AAEXH@Z DD 019930522H
	DD	01H
	DD	FLAT:__unwindtable$?SetTimerInfo@CTabCodeSearch@@AAEXH@Z
	DD	2 DUP(00H)
	DD	2 DUP(00H)
	DD	00H
	DD	01H
xdata$x	ENDS
;	COMDAT xdata$x
xdata$x	SEGMENT
__ehfuncinfo$?SetConfig@CTabCodeSearch@@AAEXH@Z DD 019930522H
	DD	05H
	DD	FLAT:__unwindtable$?SetConfig@CTabCodeSearch@@AAEXH@Z
	DD	2 DUP(00H)
	DD	2 DUP(00H)
	DD	00H
	DD	01H
__unwindtable$?SetConfig@CTabCodeSearch@@AAEXH@Z DD 0ffffffffH
	DD	FLAT:__unwindfunclet$?SetConfig@CTabCodeSearch@@AAEXH@Z$0
	DD	00H
	DD	FLAT:__unwindfunclet$?SetConfig@CTabCodeSearch@@AAEXH@Z$1
	DD	01H
	DD	FLAT:__unwindfunclet$?SetConfig@CTabCodeSearch@@AAEXH@Z$2
	DD	02H
	DD	FLAT:__unwindfunclet$?SetConfig@CTabCodeSearch@@AAEXH@Z$3
	DD	03H
	DD	FLAT:__unwindfunclet$?SetConfig@CTabCodeSearch@@AAEXH@Z$4
xdata$x	ENDS
;	COMDAT xdata$x
xdata$x	SEGMENT
__unwindtable$?ReceiveData@CTabCodeSearch@@AAEXPBDPAXK@Z DD 0ffffffffH
	DD	FLAT:__unwindfunclet$?ReceiveData@CTabCodeSearch@@AAEXPBDPAXK@Z$0
	DD	00H
	DD	FLAT:__unwindfunclet$?ReceiveData@CTabCodeSearch@@AAEXPBDPAXK@Z$1
	DD	01H
	DD	FLAT:__unwindfunclet$?ReceiveData@CTabCodeSearch@@AAEXPBDPAXK@Z$2
__ehfuncinfo$?ReceiveData@CTabCodeSearch@@AAEXPBDPAXK@Z DD 019930522H
	DD	03H
	DD	FLAT:__unwindtable$?ReceiveData@CTabCodeSearch@@AAEXPBDPAXK@Z
	DD	2 DUP(00H)
	DD	2 DUP(00H)
	DD	00H
	DD	01H
xdata$x	ENDS
;	COMDAT xdata$x
xdata$x	SEGMENT
__ehfuncinfo$?InitTreeSearch@CTabCodeSearch@@AAEXXZ DD 019930522H
	DD	07H
	DD	FLAT:__unwindtable$?InitTreeSearch@CTabCodeSearch@@AAEXXZ
	DD	2 DUP(00H)
	DD	2 DUP(00H)
	DD	00H
	DD	01H
__unwindtable$?InitTreeSearch@CTabCodeSearch@@AAEXXZ DD 0ffffffffH
	DD	FLAT:__unwindfunclet$?InitTreeSearch@CTabCodeSearch@@AAEXXZ$0
	DD	00H
	DD	FLAT:__unwindfunclet$?InitTreeSearch@CTabCodeSearch@@AAEXXZ$1
	DD	01H
	DD	FLAT:__unwindfunclet$?InitTreeSearch@CTabCodeSearch@@AAEXXZ$2
	DD	01H
	DD	FLAT:__unwindfunclet$?InitTreeSearch@CTabCodeSearch@@AAEXXZ$26
	DD	03H
	DD	FLAT:__unwindfunclet$?InitTreeSearch@CTabCodeSearch@@AAEXXZ$27
	DD	01H
	DD	FLAT:__unwindfunclet$?InitTreeSearch@CTabCodeSearch@@AAEXXZ$3
	DD	05H
	DD	FLAT:__unwindfunclet$?InitTreeSearch@CTabCodeSearch@@AAEXXZ$24
xdata$x	ENDS
;	COMDAT xdata$x
xdata$x	SEGMENT
__unwindtable$?RequestMstCode@CTabCodeSearch@@QAEXPBDJ@Z DD 0ffffffffH
	DD	FLAT:__unwindfunclet$?RequestMstCode@CTabCodeSearch@@QAEXPBDJ@Z$0
__ehfuncinfo$?RequestMstCode@CTabCodeSearch@@QAEXPBDJ@Z DD 019930522H
	DD	01H
	DD	FLAT:__unwindtable$?RequestMstCode@CTabCodeSearch@@QAEXPBDJ@Z
	DD	2 DUP(00H)
	DD	2 DUP(00H)
	DD	00H
	DD	01H
xdata$x	ENDS
;	COMDAT xdata$x
xdata$x	SEGMENT
__ehfuncinfo$?WindowProc@CTabCodeSearch@@MAEJIIJ@Z DD 019930522H
	DD	0dH
	DD	FLAT:__unwindtable$?WindowProc@CTabCodeSearch@@MAEJIIJ@Z
	DD	2 DUP(00H)
	DD	2 DUP(00H)
	DD	00H
	DD	01H
__unwindtable$?WindowProc@CTabCodeSearch@@MAEJIIJ@Z DD 0ffffffffH
	DD	FLAT:__unwindfunclet$?WindowProc@CTabCodeSearch@@MAEJIIJ@Z$14
	DD	00H
	DD	FLAT:__unwindfunclet$?WindowProc@CTabCodeSearch@@MAEJIIJ@Z$15
	DD	01H
	DD	FLAT:__unwindfunclet$?WindowProc@CTabCodeSearch@@MAEJIIJ@Z$16
	DD	0ffffffffH
	DD	FLAT:__unwindfunclet$?WindowProc@CTabCodeSearch@@MAEJIIJ@Z$1
	DD	03H
	DD	FLAT:__unwindfunclet$?WindowProc@CTabCodeSearch@@MAEJIIJ@Z$2
	DD	04H
	DD	FLAT:__unwindfunclet$?WindowProc@CTabCodeSearch@@MAEJIIJ@Z$3
	DD	03H
	DD	FLAT:__unwindfunclet$?WindowProc@CTabCodeSearch@@MAEJIIJ@Z$6
	DD	0ffffffffH
	DD	FLAT:__unwindfunclet$?WindowProc@CTabCodeSearch@@MAEJIIJ@Z$8
	DD	07H
	DD	FLAT:__unwindfunclet$?WindowProc@CTabCodeSearch@@MAEJIIJ@Z$9
	DD	07H
	DD	FLAT:__unwindfunclet$?WindowProc@CTabCodeSearch@@MAEJIIJ@Z$10
	DD	0ffffffffH
	DD	FLAT:__unwindfunclet$?WindowProc@CTabCodeSearch@@MAEJIIJ@Z$11
	DD	0aH
	DD	FLAT:__unwindfunclet$?WindowProc@CTabCodeSearch@@MAEJIIJ@Z$12
	DD	0aH
	DD	FLAT:__unwindfunclet$?WindowProc@CTabCodeSearch@@MAEJIIJ@Z$13
xdata$x	ENDS
;	COMDAT xdata$x
xdata$x	SEGMENT
__unwindtable$?ChangeListOrGridCtrl@CTabCodeSearch@@QAEXV?$CStringT@DV?$StrTraitMFC_DLL@DV?$ChTraitsCRT@D@ATL@@@@@ATL@@@Z DD 0ffffffffH
	DD	FLAT:__unwindfunclet$?ChangeListOrGridCtrl@CTabCodeSearch@@QAEXV?$CStringT@DV?$StrTraitMFC_DLL@DV?$ChTraitsCRT@D@ATL@@@@@ATL@@@Z$0
__ehfuncinfo$?ChangeListOrGridCtrl@CTabCodeSearch@@QAEXV?$CStringT@DV?$StrTraitMFC_DLL@DV?$ChTraitsCRT@D@ATL@@@@@ATL@@@Z DD 019930522H
	DD	01H
	DD	FLAT:__unwindtable$?ChangeListOrGridCtrl@CTabCodeSearch@@QAEXV?$CStringT@DV?$StrTraitMFC_DLL@DV?$ChTraitsCRT@D@ATL@@@@@ATL@@@Z
	DD	2 DUP(00H)
	DD	2 DUP(00H)
	DD	00H
	DD	01H
xdata$x	ENDS
;	COMDAT xdata$x
xdata$x	SEGMENT
__ehfuncinfo$?SetMasterData@CTabCodeSearch@@QAEXPAV?$CList@VCCodeTypeA@@V1@@@@Z DD 019930522H
	DD	0aH
	DD	FLAT:__unwindtable$?SetMasterData@CTabCodeSearch@@QAEXPAV?$CList@VCCodeTypeA@@V1@@@@Z
	DD	2 DUP(00H)
	DD	2 DUP(00H)
	DD	00H
	DD	01H
__unwindtable$?SetMasterData@CTabCodeSearch@@QAEXPAV?$CList@VCCodeTypeA@@V1@@@@Z DD 0ffffffffH
	DD	FLAT:__unwindfunclet$?SetMasterData@CTabCodeSearch@@QAEXPAV?$CList@VCCodeTypeA@@V1@@@@Z$0
	DD	00H
	DD	FLAT:__unwindfunclet$?SetMasterData@CTabCodeSearch@@QAEXPAV?$CList@VCCodeTypeA@@V1@@@@Z$1
	DD	01H
	DD	FLAT:__unwindfunclet$?SetMasterData@CTabCodeSearch@@QAEXPAV?$CList@VCCodeTypeA@@V1@@@@Z$2
	DD	02H
	DD	FLAT:__unwindfunclet$?SetMasterData@CTabCodeSearch@@QAEXPAV?$CList@VCCodeTypeA@@V1@@@@Z$3
	DD	03H
	DD	FLAT:__unwindfunclet$?SetMasterData@CTabCodeSearch@@QAEXPAV?$CList@VCCodeTypeA@@V1@@@@Z$4
	DD	04H
	DD	FLAT:__unwindfunclet$?SetMasterData@CTabCodeSearch@@QAEXPAV?$CList@VCCodeTypeA@@V1@@@@Z$5
	DD	05H
	DD	FLAT:__unwindfunclet$?SetMasterData@CTabCodeSearch@@QAEXPAV?$CList@VCCodeTypeA@@V1@@@@Z$6
	DD	05H
	DD	FLAT:__unwindfunclet$?SetMasterData@CTabCodeSearch@@QAEXPAV?$CList@VCCodeTypeA@@V1@@@@Z$7
	DD	05H
	DD	FLAT:__unwindfunclet$?SetMasterData@CTabCodeSearch@@QAEXPAV?$CList@VCCodeTypeA@@V1@@@@Z$8
	DD	08H
	DD	FLAT:__unwindfunclet$?SetMasterData@CTabCodeSearch@@QAEXPAV?$CList@VCCodeTypeA@@V1@@@@Z$9
xdata$x	ENDS
;	COMDAT xdata$x
xdata$x	SEGMENT
__unwindtable$?InsertGridData@CTabCodeSearch@@QAEXXZ DD 0ffffffffH
	DD	FLAT:__unwindfunclet$?InsertGridData@CTabCodeSearch@@QAEXXZ$0
	DD	00H
	DD	FLAT:__unwindfunclet$?InsertGridData@CTabCodeSearch@@QAEXXZ$1
__ehfuncinfo$?InsertGridData@CTabCodeSearch@@QAEXXZ DD 019930522H
	DD	02H
	DD	FLAT:__unwindtable$?InsertGridData@CTabCodeSearch@@QAEXXZ
	DD	2 DUP(00H)
	DD	2 DUP(00H)
	DD	00H
	DD	01H
xdata$x	ENDS
;	COMDAT xdata$x
xdata$x	SEGMENT
__catchsym$?InitGridRowCol@CTabCodeSearch@@QAEXH@Z$2 DD 00H
	DD	FLAT:??_R0PAVCMemoryException@@@8
	DD	0ffffffecH
	DD	FLAT:__catch$?InitGridRowCol@CTabCodeSearch@@QAEXH@Z$0
__unwindtable$?InitGridRowCol@CTabCodeSearch@@QAEXH@Z DD 0ffffffffH
	DD	00H
	DD	0ffffffffH
	DD	00H
__tryblocktable$?InitGridRowCol@CTabCodeSearch@@QAEXH@Z DD 00H
	DD	00H
	DD	01H
	DD	01H
	DD	FLAT:__catchsym$?InitGridRowCol@CTabCodeSearch@@QAEXH@Z$2
__ehfuncinfo$?InitGridRowCol@CTabCodeSearch@@QAEXH@Z DD 019930522H
	DD	02H
	DD	FLAT:__unwindtable$?InitGridRowCol@CTabCodeSearch@@QAEXH@Z
	DD	01H
	DD	FLAT:__tryblocktable$?InitGridRowCol@CTabCodeSearch@@QAEXH@Z
	DD	2 DUP(00H)
	DD	00H
	DD	01H
xdata$x	ENDS
;	COMDAT xdata$x
xdata$x	SEGMENT
__unwindtable$?InitGrid@CTabCodeSearch@@QAEXXZ DD 0ffffffffH
	DD	FLAT:__unwindfunclet$?InitGrid@CTabCodeSearch@@QAEXXZ$0
	DD	0ffffffffH
	DD	FLAT:__unwindfunclet$?InitGrid@CTabCodeSearch@@QAEXXZ$2
	DD	01H
	DD	FLAT:__unwindfunclet$?InitGrid@CTabCodeSearch@@QAEXXZ$3
__ehfuncinfo$?InitGrid@CTabCodeSearch@@QAEXXZ DD 019930522H
	DD	03H
	DD	FLAT:__unwindtable$?InitGrid@CTabCodeSearch@@QAEXXZ
	DD	2 DUP(00H)
	DD	2 DUP(00H)
	DD	00H
	DD	01H
xdata$x	ENDS
;	COMDAT xdata$x
xdata$x	SEGMENT
__ehfuncinfo$??0CTabCodeSearch@@QAE@PAVCWnd@@@Z DD 019930522H
	DD	017H
	DD	FLAT:__unwindtable$??0CTabCodeSearch@@QAE@PAVCWnd@@@Z
	DD	2 DUP(00H)
	DD	2 DUP(00H)
	DD	00H
	DD	01H
__unwindtable$??0CTabCodeSearch@@QAE@PAVCWnd@@@Z DD 0ffffffffH
	DD	FLAT:__unwindfunclet$??0CTabCodeSearch@@QAE@PAVCWnd@@@Z$0
	DD	00H
	DD	FLAT:__unwindfunclet$??0CTabCodeSearch@@QAE@PAVCWnd@@@Z$1
	DD	01H
	DD	FLAT:__unwindfunclet$??0CTabCodeSearch@@QAE@PAVCWnd@@@Z$2
	DD	02H
	DD	FLAT:__unwindfunclet$??0CTabCodeSearch@@QAE@PAVCWnd@@@Z$3
	DD	03H
	DD	FLAT:__unwindfunclet$??0CTabCodeSearch@@QAE@PAVCWnd@@@Z$4
	DD	04H
	DD	FLAT:__unwindfunclet$??0CTabCodeSearch@@QAE@PAVCWnd@@@Z$5
	DD	05H
	DD	FLAT:__unwindfunclet$??0CTabCodeSearch@@QAE@PAVCWnd@@@Z$6
	DD	06H
	DD	FLAT:__unwindfunclet$??0CTabCodeSearch@@QAE@PAVCWnd@@@Z$7
	DD	07H
	DD	FLAT:__unwindfunclet$??0CTabCodeSearch@@QAE@PAVCWnd@@@Z$8
	DD	08H
	DD	FLAT:__unwindfunclet$??0CTabCodeSearch@@QAE@PAVCWnd@@@Z$9
	DD	09H
	DD	FLAT:__unwindfunclet$??0CTabCodeSearch@@QAE@PAVCWnd@@@Z$10
	DD	0aH
	DD	FLAT:__unwindfunclet$??0CTabCodeSearch@@QAE@PAVCWnd@@@Z$11
	DD	0bH
	DD	FLAT:__unwindfunclet$??0CTabCodeSearch@@QAE@PAVCWnd@@@Z$12
	DD	0cH
	DD	FLAT:__unwindfunclet$??0CTabCodeSearch@@QAE@PAVCWnd@@@Z$13
	DD	0dH
	DD	FLAT:__unwindfunclet$??0CTabCodeSearch@@QAE@PAVCWnd@@@Z$14
	DD	0eH
	DD	FLAT:__unwindfunclet$??0CTabCodeSearch@@QAE@PAVCWnd@@@Z$15
	DD	0fH
	DD	FLAT:__unwindfunclet$??0CTabCodeSearch@@QAE@PAVCWnd@@@Z$16
	DD	010H
	DD	FLAT:__unwindfunclet$??0CTabCodeSearch@@QAE@PAVCWnd@@@Z$17
	DD	011H
	DD	FLAT:__unwindfunclet$??0CTabCodeSearch@@QAE@PAVCWnd@@@Z$27
	DD	011H
	DD	FLAT:__unwindfunclet$??0CTabCodeSearch@@QAE@PAVCWnd@@@Z$18
	DD	013H
	DD	FLAT:__unwindfunclet$??0CTabCodeSearch@@QAE@PAVCWnd@@@Z$19
	DD	014H
	DD	FLAT:__unwindfunclet$??0CTabCodeSearch@@QAE@PAVCWnd@@@Z$20
	DD	015H
	DD	FLAT:__unwindfunclet$??0CTabCodeSearch@@QAE@PAVCWnd@@@Z$21
xdata$x	ENDS
;	COMDAT xdata$x
xdata$x	SEGMENT
__unwindtable$??0ST_GwanSimGroup@@QAE@XZ DD 0ffffffffH
	DD	FLAT:__unwindfunclet$??0ST_GwanSimGroup@@QAE@XZ$0
__ehfuncinfo$??0ST_GwanSimGroup@@QAE@XZ DD 019930522H
	DD	01H
	DD	FLAT:__unwindtable$??0ST_GwanSimGroup@@QAE@XZ
	DD	2 DUP(00H)
	DD	2 DUP(00H)
	DD	00H
	DD	01H
xdata$x	ENDS
;	COMDAT xdata$x
xdata$x	SEGMENT
__unwindtable$??1CCallPutIHelper@@QAE@XZ DD 0ffffffffH
	DD	FLAT:___std_terminate
__ehfuncinfo$??1CCallPutIHelper@@QAE@XZ DD 019930522H
	DD	01H
	DD	FLAT:__unwindtable$??1CCallPutIHelper@@QAE@XZ
	DD	2 DUP(00H)
	DD	2 DUP(00H)
	DD	00H
	DD	05H
xdata$x	ENDS
;	COMDAT xdata$x
xdata$x	SEGMENT
__unwindtable$?ClearList@CCallPutIHelper@@QAEXXZ DD 0ffffffffH
	DD	FLAT:___std_terminate
	DD	00H
	DD	FLAT:___std_terminate
__ehfuncinfo$?ClearList@CCallPutIHelper@@QAEXXZ DD 019930522H
	DD	02H
	DD	FLAT:__unwindtable$?ClearList@CCallPutIHelper@@QAEXXZ
	DD	2 DUP(00H)
	DD	2 DUP(00H)
	DD	00H
	DD	01H
xdata$x	ENDS
;	COMDAT xdata$x
xdata$x	SEGMENT
__unwindtable$?Parsing@CCallPutIHelper@@QAEXPAV?$CList@VCCodeTypeA@@V1@@@H@Z DD 0ffffffffH
	DD	FLAT:__unwindfunclet$?Parsing@CCallPutIHelper@@QAEXPAV?$CList@VCCodeTypeA@@V1@@@H@Z$0
	DD	00H
	DD	FLAT:__unwindfunclet$?Parsing@CCallPutIHelper@@QAEXPAV?$CList@VCCodeTypeA@@V1@@@H@Z$1
	DD	01H
	DD	FLAT:__unwindfunclet$?Parsing@CCallPutIHelper@@QAEXPAV?$CList@VCCodeTypeA@@V1@@@H@Z$2
	DD	02H
	DD	FLAT:__unwindfunclet$?Parsing@CCallPutIHelper@@QAEXPAV?$CList@VCCodeTypeA@@V1@@@H@Z$3
__ehfuncinfo$?Parsing@CCallPutIHelper@@QAEXPAV?$CList@VCCodeTypeA@@V1@@@H@Z DD 019930522H
	DD	04H
	DD	FLAT:__unwindtable$?Parsing@CCallPutIHelper@@QAEXPAV?$CList@VCCodeTypeA@@V1@@@H@Z
	DD	2 DUP(00H)
	DD	2 DUP(00H)
	DD	00H
	DD	01H
xdata$x	ENDS
;	COMDAT xdata$x
xdata$x	SEGMENT
__unwindtable$??_G?$CList@PAVCCallPutIMonthData@@PAV1@@@UAEPAXI@Z DD 0ffffffffH
	DD	FLAT:___std_terminate
__ehfuncinfo$??_G?$CList@PAVCCallPutIMonthData@@PAV1@@@UAEPAXI@Z DD 019930522H
	DD	01H
	DD	FLAT:__unwindtable$??_G?$CList@PAVCCallPutIMonthData@@PAV1@@@UAEPAXI@Z
	DD	2 DUP(00H)
	DD	2 DUP(00H)
	DD	00H
	DD	05H
xdata$x	ENDS
;	COMDAT xdata$x
xdata$x	SEGMENT
__ehfuncinfo$??1?$CList@PAVCCallPutIMonthData@@PAV1@@@UAE@XZ DD 019930522H
	DD	00H
	DD	00H
	DD	2 DUP(00H)
	DD	2 DUP(00H)
	DD	00H
	DD	05H
xdata$x	ENDS
;	COMDAT xdata$x
xdata$x	SEGMENT
__unwindtable$??_GCCallPutIMonthData@@QAEPAXI@Z DD 0ffffffffH
	DD	FLAT:___std_terminate
	DD	00H
	DD	FLAT:___std_terminate
__ehfuncinfo$??_GCCallPutIMonthData@@QAEPAXI@Z DD 019930522H
	DD	02H
	DD	FLAT:__unwindtable$??_GCCallPutIMonthData@@QAEPAXI@Z
	DD	2 DUP(00H)
	DD	2 DUP(00H)
	DD	00H
	DD	05H
xdata$x	ENDS
;	COMDAT xdata$x
xdata$x	SEGMENT
__unwindtable$??1CCallPutIMonthData@@QAE@XZ DD 0ffffffffH
	DD	FLAT:___std_terminate
__ehfuncinfo$??1CCallPutIMonthData@@QAE@XZ DD 019930522H
	DD	01H
	DD	FLAT:__unwindtable$??1CCallPutIMonthData@@QAE@XZ
	DD	2 DUP(00H)
	DD	2 DUP(00H)
	DD	00H
	DD	05H
xdata$x	ENDS
;	COMDAT xdata$x
xdata$x	SEGMENT
__unwindtable$??_G?$CList@PAVCCallPutItemData@@PAV1@@@UAEPAXI@Z DD 0ffffffffH
	DD	FLAT:___std_terminate
__ehfuncinfo$??_G?$CList@PAVCCallPutItemData@@PAV1@@@UAEPAXI@Z DD 019930522H
	DD	01H
	DD	FLAT:__unwindtable$??_G?$CList@PAVCCallPutItemData@@PAV1@@@UAEPAXI@Z
	DD	2 DUP(00H)
	DD	2 DUP(00H)
	DD	00H
	DD	05H
xdata$x	ENDS
;	COMDAT xdata$x
xdata$x	SEGMENT
__ehfuncinfo$??1?$CList@PAVCCallPutItemData@@PAV1@@@UAE@XZ DD 019930522H
	DD	00H
	DD	00H
	DD	2 DUP(00H)
	DD	2 DUP(00H)
	DD	00H
	DD	05H
xdata$x	ENDS
;	COMDAT xdata$x
xdata$x	SEGMENT
__ehfuncinfo$??0CCodeTypeB@@QAE@ABV0@@Z DD 019930522H
	DD	07H
	DD	FLAT:__unwindtable$??0CCodeTypeB@@QAE@ABV0@@Z
	DD	2 DUP(00H)
	DD	2 DUP(00H)
	DD	00H
	DD	01H
__unwindtable$??0CCodeTypeB@@QAE@ABV0@@Z DD 0ffffffffH
	DD	FLAT:__unwindfunclet$??0CCodeTypeB@@QAE@ABV0@@Z$7
	DD	0ffffffffH
	DD	FLAT:__unwindfunclet$??0CCodeTypeB@@QAE@ABV0@@Z$0
	DD	01H
	DD	FLAT:__unwindfunclet$??0CCodeTypeB@@QAE@ABV0@@Z$1
	DD	02H
	DD	FLAT:__unwindfunclet$??0CCodeTypeB@@QAE@ABV0@@Z$2
	DD	03H
	DD	FLAT:__unwindfunclet$??0CCodeTypeB@@QAE@ABV0@@Z$3
	DD	04H
	DD	FLAT:__unwindfunclet$??0CCodeTypeB@@QAE@ABV0@@Z$4
	DD	05H
	DD	FLAT:__unwindfunclet$??0CCodeTypeB@@QAE@ABV0@@Z$5
xdata$x	ENDS
;	COMDAT xdata$x
xdata$x	SEGMENT
__unwindtable$??0CCodeTypeA@@QAE@ABV0@@Z DD 0ffffffffH
	DD	FLAT:__unwindfunclet$??0CCodeTypeA@@QAE@ABV0@@Z$1
__ehfuncinfo$??0CCodeTypeA@@QAE@ABV0@@Z DD 019930522H
	DD	01H
	DD	FLAT:__unwindtable$??0CCodeTypeA@@QAE@ABV0@@Z
	DD	2 DUP(00H)
	DD	2 DUP(00H)
	DD	00H
	DD	01H
xdata$x	ENDS
;	COMDAT xdata$x
xdata$x	SEGMENT
__unwindtable$??0CCodeTypeBase@@QAE@ABV0@@Z DD 0ffffffffH
	DD	FLAT:__unwindfunclet$??0CCodeTypeBase@@QAE@ABV0@@Z$0
__ehfuncinfo$??0CCodeTypeBase@@QAE@ABV0@@Z DD 019930522H
	DD	01H
	DD	FLAT:__unwindtable$??0CCodeTypeBase@@QAE@ABV0@@Z
	DD	2 DUP(00H)
	DD	2 DUP(00H)
	DD	00H
	DD	01H
xdata$x	ENDS
;	COMDAT xdata$x
xdata$x	SEGMENT
__unwindtable$?CheckeNameType@CCodeTypeBase@@SAHPAD@Z DD 0ffffffffH
	DD	FLAT:__unwindfunclet$?CheckeNameType@CCodeTypeBase@@SAHPAD@Z$0
__ehfuncinfo$?CheckeNameType@CCodeTypeBase@@SAHPAD@Z DD 019930522H
	DD	01H
	DD	FLAT:__unwindtable$?CheckeNameType@CCodeTypeBase@@SAHPAD@Z
	DD	2 DUP(00H)
	DD	2 DUP(00H)
	DD	00H
	DD	01H
xdata$x	ENDS
;	COMDAT xdata$x
xdata$x	SEGMENT
__unwindtable$?ConvertOneClickData@CCodeTypeBase@@UAEXPAD@Z DD 0ffffffffH
	DD	FLAT:__unwindfunclet$?ConvertOneClickData@CCodeTypeBase@@UAEXPAD@Z$0
__ehfuncinfo$?ConvertOneClickData@CCodeTypeBase@@UAEXPAD@Z DD 019930522H
	DD	01H
	DD	FLAT:__unwindtable$?ConvertOneClickData@CCodeTypeBase@@UAEXPAD@Z
	DD	2 DUP(00H)
	DD	2 DUP(00H)
	DD	00H
	DD	01H
xdata$x	ENDS
;	COMDAT xdata$x
xdata$x	SEGMENT
__unwindtable$??0CInputCodeListEx@@QAE@XZ DD 0ffffffffH
	DD	FLAT:__unwindfunclet$??0CInputCodeListEx@@QAE@XZ$1
	DD	00H
	DD	FLAT:__unwindfunclet$??0CInputCodeListEx@@QAE@XZ$2
__ehfuncinfo$??0CInputCodeListEx@@QAE@XZ DD 019930522H
	DD	02H
	DD	FLAT:__unwindtable$??0CInputCodeListEx@@QAE@XZ
	DD	2 DUP(00H)
	DD	2 DUP(00H)
	DD	00H
	DD	01H
xdata$x	ENDS
;	COMDAT xdata$x
xdata$x	SEGMENT
__unwindtable$??0CInputCodeList@@QAE@XZ DD 0ffffffffH
	DD	FLAT:__unwindfunclet$??0CInputCodeList@@QAE@XZ$0
	DD	00H
	DD	FLAT:__unwindfunclet$??0CInputCodeList@@QAE@XZ$1
__ehfuncinfo$??0CInputCodeList@@QAE@XZ DD 019930522H
	DD	02H
	DD	FLAT:__unwindtable$??0CInputCodeList@@QAE@XZ
	DD	2 DUP(00H)
	DD	2 DUP(00H)
	DD	00H
	DD	01H
xdata$x	ENDS
;	COMDAT xdata$x
xdata$x	SEGMENT
__unwindtable$?AfxGetPctrInterface@@YGJH@Z DD 0ffffffffH
	DD	FLAT:__unwindfunclet$?AfxGetPctrInterface@@YGJH@Z$0
__ehfuncinfo$?AfxGetPctrInterface@@YGJH@Z DD 019930522H
	DD	01H
	DD	FLAT:__unwindtable$?AfxGetPctrInterface@@YGJH@Z
	DD	2 DUP(00H)
	DD	2 DUP(00H)
	DD	00H
	DD	01H
xdata$x	ENDS
;	COMDAT xdata$x
xdata$x	SEGMENT
__catchsym$??1CGdiObject@@UAE@XZ$3 DD 00H
	DD	FLAT:??_R0PAVCException@@@8
	DD	0fffffde4H
	DD	FLAT:__catch$??1CGdiObject@@UAE@XZ$0
__tryblocktable$??1CGdiObject@@UAE@XZ DD 00H
	DD	00H
	DD	02H
	DD	01H
	DD	FLAT:__catchsym$??1CGdiObject@@UAE@XZ$3
__unwindtable$??1CGdiObject@@UAE@XZ DD 0ffffffffH
	DD	00H
	DD	0ffffffffH
	DD	00H
	DD	01H
	DD	FLAT:__unwindfunclet$??1CGdiObject@@UAE@XZ$2
__ehfuncinfo$??1CGdiObject@@UAE@XZ DD 019930522H
	DD	03H
	DD	FLAT:__unwindtable$??1CGdiObject@@UAE@XZ
	DD	01H
	DD	FLAT:__tryblocktable$??1CGdiObject@@UAE@XZ
	DD	2 DUP(00H)
	DD	00H
	DD	05H
xdata$x	ENDS
CRT$XCU	SEGMENT
?RMSG_INTERFACE$initializer$@@3P6AXXZA DD FLAT:??__ERMSG_INTERFACE@@YAXXZ ; RMSG_INTERFACE$initializer$
CRT$XCU	ENDS
CRT$XCU	SEGMENT
?RMSG_CONCERNHWND$initializer$@@3P6AXXZA DD FLAT:??__ERMSG_CONCERNHWND@@YAXXZ ; RMSG_CONCERNHWND$initializer$
CRT$XCU	ENDS
CRT$XCU	SEGMENT
?RMSG_INTREQUEST$initializer$@@3P6AXXZA DD FLAT:??__ERMSG_INTREQUEST@@YAXXZ ; RMSG_INTREQUEST$initializer$
CRT$XCU	ENDS
CRT$XCU	SEGMENT
?RMSG_GETSIGNAL_REAL$initializer$@@3P6AXXZA DD FLAT:??__ERMSG_GETSIGNAL_REAL@@YAXXZ ; RMSG_GETSIGNAL_REAL$initializer$
CRT$XCU	ENDS
CRT$XCU	SEGMENT
?RMSG_SETQUERYOPT$initializer$@@3P6AXXZA DD FLAT:??__ERMSG_SETQUERYOPT@@YAXXZ ; RMSG_SETQUERYOPT$initializer$
CRT$XCU	ENDS
CRT$XCU	SEGMENT
?RMSG_CHARTMAIN$initializer$@@3P6AXXZA DD FLAT:??__ERMSG_CHARTMAIN@@YAXXZ ; RMSG_CHARTMAIN$initializer$
CRT$XCU	ENDS
CRT$XCU	SEGMENT
?RMS_ANALYSIS_FUNC$initializer$@@3P6AXXZA DD FLAT:??__ERMS_ANALYSIS_FUNC@@YAXXZ ; RMS_ANALYSIS_FUNC$initializer$
CRT$XCU	ENDS
CRT$XCU	SEGMENT
?RMSG_GET_USERID$initializer$@@3P6AXXZA DD FLAT:??__ERMSG_GET_USERID@@YAXXZ ; RMSG_GET_USERID$initializer$
CRT$XCU	ENDS
CRT$XCU	SEGMENT
?RMSG_CHANGE_SKINCOLOR$initializer$@@3P6AXXZA DD FLAT:??__ERMSG_CHANGE_SKINCOLOR@@YAXXZ ; RMSG_CHANGE_SKINCOLOR$initializer$
CRT$XCU	ENDS
CRT$XCU	SEGMENT
?RMSG_GET_SKINCOLOR$initializer$@@3P6AXXZA DD FLAT:??__ERMSG_GET_SKINCOLOR@@YAXXZ ; RMSG_GET_SKINCOLOR$initializer$
CRT$XCU	ENDS
CRT$XCU	SEGMENT
?RMSG_CHANGEVERTSCALETYPE$initializer$@@3P6AXXZA DD FLAT:??__ERMSG_CHANGEVERTSCALETYPE@@YAXXZ ; RMSG_CHANGEVERTSCALETYPE$initializer$
CRT$XCU	ENDS
CRT$XCU	SEGMENT
?RMSG_CHANGE_CROSSLINE$initializer$@@3P6AXXZA DD FLAT:??__ERMSG_CHANGE_CROSSLINE@@YAXXZ ; RMSG_CHANGE_CROSSLINE$initializer$
CRT$XCU	ENDS
CRT$XCU	SEGMENT
?RMSG_ADD_PLATFORM_MENU$initializer$@@3P6AXXZA DD FLAT:??__ERMSG_ADD_PLATFORM_MENU@@YAXXZ ; RMSG_ADD_PLATFORM_MENU$initializer$
CRT$XCU	ENDS
CRT$XCU	SEGMENT
?RMSG_SETINITIALCHARTDATA$initializer$@@3P6AXXZA DD FLAT:??__ERMSG_SETINITIALCHARTDATA@@YAXXZ ; RMSG_SETINITIALCHARTDATA$initializer$
CRT$XCU	ENDS
CRT$XCU	SEGMENT
?RMSG_GETINFO$initializer$@@3P6AXXZA DD FLAT:??__ERMSG_GETINFO@@YAXXZ ; RMSG_GETINFO$initializer$
CRT$XCU	ENDS
CRT$XCU	SEGMENT
?RMSG_SETINFO$initializer$@@3P6AXXZA DD FLAT:??__ERMSG_SETINFO@@YAXXZ ; RMSG_SETINFO$initializer$
CRT$XCU	ENDS
CRT$XCU	SEGMENT
?RMSG_DRUSER$initializer$@@3P6AXXZA DD FLAT:??__ERMSG_DRUSER@@YAXXZ ; RMSG_DRUSER$initializer$
CRT$XCU	ENDS
CRT$XCU	SEGMENT
?RMSG_DRAGSTART$initializer$@@3P6AXXZA DD FLAT:??__ERMSG_DRAGSTART@@YAXXZ ; RMSG_DRAGSTART$initializer$
CRT$XCU	ENDS
CRT$XCU	SEGMENT
?RMSG_DRAGEND$initializer$@@3P6AXXZA DD FLAT:??__ERMSG_DRAGEND@@YAXXZ ; RMSG_DRAGEND$initializer$
CRT$XCU	ENDS
CRT$XCU	SEGMENT
?RMSG_REPLAY_REAL$initializer$@@3P6AXXZA DD FLAT:??__ERMSG_REPLAY_REAL@@YAXXZ ; RMSG_REPLAY_REAL$initializer$
CRT$XCU	ENDS
CRT$XCU	SEGMENT
?RMSG_REPLAY_FAIL$initializer$@@3P6AXXZA DD FLAT:??__ERMSG_REPLAY_FAIL@@YAXXZ ; RMSG_REPLAY_FAIL$initializer$
CRT$XCU	ENDS
CRT$XCU	SEGMENT
?RMSG_REPLAY_CHANGE_DATE$initializer$@@3P6AXXZA DD FLAT:??__ERMSG_REPLAY_CHANGE_DATE@@YAXXZ ; RMSG_REPLAY_CHANGE_DATE$initializer$
CRT$XCU	ENDS
CRT$XCU	SEGMENT
?RMSG_REPLAY_END$initializer$@@3P6AXXZA DD FLAT:??__ERMSG_REPLAY_END@@YAXXZ ; RMSG_REPLAY_END$initializer$
CRT$XCU	ENDS
CRT$XCU	SEGMENT
?RMSG_REPLAY_INC_SEC$initializer$@@3P6AXXZA DD FLAT:??__ERMSG_REPLAY_INC_SEC@@YAXXZ ; RMSG_REPLAY_INC_SEC$initializer$
CRT$XCU	ENDS
CRT$XCU	SEGMENT
?RMSG_REPLAY_TOTAL_SEC$initializer$@@3P6AXXZA DD FLAT:??__ERMSG_REPLAY_TOTAL_SEC@@YAXXZ ; RMSG_REPLAY_TOTAL_SEC$initializer$
CRT$XCU	ENDS
CRT$XCU	SEGMENT
?RMSG_ADDACCOUNTCODE$initializer$@@3P6AXXZA DD FLAT:??__ERMSG_ADDACCOUNTCODE@@YAXXZ ; RMSG_ADDACCOUNTCODE$initializer$
CRT$XCU	ENDS
CRT$XCU	SEGMENT
?RMSG_CHECKAVGPRICE$initializer$@@3P6AXXZA DD FLAT:??__ERMSG_CHECKAVGPRICE@@YAXXZ ; RMSG_CHECKAVGPRICE$initializer$
CRT$XCU	ENDS
CRT$XCU	SEGMENT
?RMSG_GETCURCHARTINFO$initializer$@@3P6AXXZA DD FLAT:??__ERMSG_GETCURCHARTINFO@@YAXXZ ; RMSG_GETCURCHARTINFO$initializer$
CRT$XCU	ENDS
CRT$XCU	SEGMENT
?RMSG_ADDACCOUNTCONC$initializer$@@3P6AXXZA DD FLAT:??__ERMSG_ADDACCOUNTCONC@@YAXXZ ; RMSG_ADDACCOUNTCONC$initializer$
CRT$XCU	ENDS
CRT$XCU	SEGMENT
?RMSG_RESETCONCDATA$initializer$@@3P6AXXZA DD FLAT:??__ERMSG_RESETCONCDATA@@YAXXZ ; RMSG_RESETCONCDATA$initializer$
CRT$XCU	ENDS
CRT$XCU	SEGMENT
?RMSG_GETINTERFACE$initializer$@@3P6AXXZA DD FLAT:??__ERMSG_GETINTERFACE@@YAXXZ ; RMSG_GETINTERFACE$initializer$
CRT$XCU	ENDS
CRT$XCU	SEGMENT
?RMSG_WMSIZE$initializer$@@3P6AXXZA DD FLAT:??__ERMSG_WMSIZE@@YAXXZ ; RMSG_WMSIZE$initializer$
CRT$XCU	ENDS
CRT$XCU	SEGMENT
?RMSG_TABCODESEARCH$initializer$@@3P6AXXZA DD FLAT:??__ERMSG_TABCODESEARCH@@YAXXZ ; RMSG_TABCODESEARCH$initializer$
CRT$XCU	ENDS
; Function compile flags: /Ogtp
; File C:\Program Files (x86)\Microsoft Visual Studio\2019\Community\VC\Tools\MSVC\14.29.30133\atlmfc\include\afxtempl.h
; File C:\Program Files (x86)\Microsoft Visual Studio\2019\Community\VC\Tools\MSVC\14.29.30133\atlmfc\include\afx.inl
; File C:\Program Files (x86)\Microsoft Visual Studio\2019\Community\VC\Tools\MSVC\14.29.30133\atlmfc\include\afxtempl.h
; File C:\Program Files (x86)\Microsoft Visual Studio\2019\Community\VC\Tools\MSVC\14.29.30133\atlmfc\include\afx.inl
; File C:\Program Files (x86)\Microsoft Visual Studio\2019\Community\VC\Tools\MSVC\14.29.30133\atlmfc\include\afxtempl.h
; File C:\Program Files (x86)\Microsoft Visual Studio\2019\Community\VC\Tools\MSVC\14.29.30133\atlmfc\include\afx.inl
; File C:\Program Files (x86)\Microsoft Visual Studio\2019\Community\VC\Tools\MSVC\14.29.30133\atlmfc\include\afxtempl.h
;	COMDAT ??$SerializeElements@PAVCCallPutIMonthData@@@@YGXAAVCArchive@@PAPAVCCallPutIMonthData@@H@Z
_TEXT	SEGMENT
_ar$ = 8						; size = 4
_pElements$ = 12					; size = 4
_nCount$ = 16						; size = 4
??$SerializeElements@PAVCCallPutIMonthData@@@@YGXAAVCArchive@@PAPAVCCallPutIMonthData@@H@Z PROC ; SerializeElements<CCallPutIMonthData *>, COMDAT

; 67   : {

  00000	55		 push	 ebp
  00001	8b ec		 mov	 ebp, esp

; 68   : 	ENSURE(nCount == 0 || pElements != NULL);

  00003	8b 4d 0c	 mov	 ecx, DWORD PTR _pElements$[ebp]
  00006	53		 push	 ebx
  00007	56		 push	 esi
  00008	8b 75 10	 mov	 esi, DWORD PTR _nCount$[ebp]
  0000b	57		 push	 edi
  0000c	85 f6		 test	 esi, esi
  0000e	74 08		 je	 SHORT $LN2@SerializeE
  00010	85 c9		 test	 ecx, ecx
  00012	0f 84 89 00 00
	00		 je	 $LN34@SerializeE
$LN2@SerializeE:
; File C:\Program Files (x86)\Microsoft Visual Studio\2019\Community\VC\Tools\MSVC\14.29.30133\atlmfc\include\afx.inl

; 212  : 	{ return (m_nMode & CArchive::load) == 0; }

  00018	8b 55 08	 mov	 edx, DWORD PTR _ar$[ebp]
  0001b	8b 42 18	 mov	 eax, DWORD PTR [edx+24]
  0001e	f7 d0		 not	 eax
  00020	a8 01		 test	 al, 1
; File C:\Program Files (x86)\Microsoft Visual Studio\2019\Community\VC\Tools\MSVC\14.29.30133\atlmfc\include\afxtempl.h

; 73   : 	if (ar.IsStoring())

  00022	74 3c		 je	 SHORT $LN10@SerializeE

; 74   : 	{
; 75   : 		TYPE* pData;
; 76   : 		UINT_PTR nElementsLeft;
; 77   : 
; 78   : 		nElementsLeft = nCount;
; 79   : 		pData = pElements;
; 80   : 		while( nElementsLeft > 0 )

  00024	85 f6		 test	 esi, esi
  00026	74 31		 je	 SHORT $LN8@SerializeE
  00028	0f 1f 84 00 00
	00 00 00	 npad	 8
$LL5@SerializeE:

; 81   : 		{
; 82   : 			UINT nElementsToWrite;
; 83   : 
; 84   : 			nElementsToWrite = UINT(__min(nElementsLeft, INT_MAX/sizeof(TYPE)));

  00030	bb ff ff ff 1f	 mov	 ebx, 536870911		; 1fffffffH
  00035	3b f3		 cmp	 esi, ebx
  00037	0f 42 de	 cmovb	 ebx, esi

; 85   : 			ar.Write(pData, nElementsToWrite*sizeof(TYPE));

  0003a	8d 3c 9d 00 00
	00 00		 lea	 edi, DWORD PTR [ebx*4]
  00041	57		 push	 edi
  00042	51		 push	 ecx
  00043	8b ca		 mov	 ecx, edx
  00045	e8 00 00 00 00	 call	 ?Write@CArchive@@QAEXPBXI@Z ; CArchive::Write

; 86   : 			nElementsLeft -= nElementsToWrite;
; 87   : 			pData += nElementsToWrite;

  0004a	8b 4d 0c	 mov	 ecx, DWORD PTR _pElements$[ebp]
  0004d	8b 55 08	 mov	 edx, DWORD PTR _ar$[ebp]
  00050	03 cf		 add	 ecx, edi
  00052	89 4d 0c	 mov	 DWORD PTR _pElements$[ebp], ecx
  00055	2b f3		 sub	 esi, ebx
  00057	75 d7		 jne	 SHORT $LL5@SerializeE
$LN8@SerializeE:
  00059	5f		 pop	 edi

; 105  : 		}
; 106  : 	}
; 107  : }

  0005a	5e		 pop	 esi
  0005b	5b		 pop	 ebx
  0005c	5d		 pop	 ebp
  0005d	c2 0c 00	 ret	 12			; 0000000cH
$LN10@SerializeE:

; 97   : 		while( nElementsLeft > 0 )

  00060	85 f6		 test	 esi, esi
  00062	74 f5		 je	 SHORT $LN8@SerializeE
$LL7@SerializeE:

; 98   : 		{
; 99   : 			UINT nElementsToRead;
; 100  : 
; 101  : 			nElementsToRead = UINT(__min(nElementsLeft, INT_MAX/sizeof(TYPE)));

  00064	bf ff ff ff 1f	 mov	 edi, 536870911		; 1fffffffH
  00069	3b f7		 cmp	 esi, edi
  0006b	0f 42 fe	 cmovb	 edi, esi

; 102  : 			ar.EnsureRead(pData, nElementsToRead*sizeof(TYPE));

  0006e	8d 1c bd 00 00
	00 00		 lea	 ebx, DWORD PTR [edi*4]
; File C:\Program Files (x86)\Microsoft Visual Studio\2019\Community\VC\Tools\MSVC\14.29.30133\atlmfc\include\afx.inl

; 399  : 	UINT nRead=Read(lpBuf, nCount);

  00075	53		 push	 ebx
  00076	51		 push	 ecx
  00077	8b ca		 mov	 ecx, edx
  00079	e8 00 00 00 00	 call	 ?Read@CArchive@@QAEIPAXI@Z ; CArchive::Read

; 400  : 	if(nRead!=nCount)

  0007e	3b c3		 cmp	 eax, ebx
  00080	75 16		 jne	 SHORT $LN23@SerializeE
; File C:\Program Files (x86)\Microsoft Visual Studio\2019\Community\VC\Tools\MSVC\14.29.30133\atlmfc\include\afxtempl.h

; 97   : 		while( nElementsLeft > 0 )

  00082	8b 4d 0c	 mov	 ecx, DWORD PTR _pElements$[ebp]
  00085	8b 55 08	 mov	 edx, DWORD PTR _ar$[ebp]

; 103  : 			nElementsLeft -= nElementsToRead;
; 104  : 			pData += nElementsToRead;

  00088	03 cb		 add	 ecx, ebx
  0008a	89 4d 0c	 mov	 DWORD PTR _pElements$[ebp], ecx
  0008d	2b f7		 sub	 esi, edi
  0008f	75 d3		 jne	 SHORT $LL7@SerializeE

; 105  : 		}
; 106  : 	}
; 107  : }

  00091	5f		 pop	 edi
  00092	5e		 pop	 esi
  00093	5b		 pop	 ebx
  00094	5d		 pop	 ebp
  00095	c2 0c 00	 ret	 12			; 0000000cH
$LN23@SerializeE:
; File C:\Program Files (x86)\Microsoft Visual Studio\2019\Community\VC\Tools\MSVC\14.29.30133\atlmfc\include\afx.inl

; 402  : 		AfxThrowArchiveException(CArchiveException::endOfFile);

  00098	6a 00		 push	 0
  0009a	6a 03		 push	 3
  0009c	e8 00 00 00 00	 call	 ?AfxThrowArchiveException@@YGXHPBD@Z ; AfxThrowArchiveException
$LN34@SerializeE:
; File C:\Program Files (x86)\Microsoft Visual Studio\2019\Community\VC\Tools\MSVC\14.29.30133\atlmfc\include\afxtempl.h

; 68   : 	ENSURE(nCount == 0 || pElements != NULL);

  000a1	e8 00 00 00 00	 call	 ?AfxThrowInvalidArgException@@YGXXZ ; AfxThrowInvalidArgException
$LN32@SerializeE:
  000a6	cc		 int	 3
??$SerializeElements@PAVCCallPutIMonthData@@@@YGXAAVCArchive@@PAPAVCCallPutIMonthData@@H@Z ENDP ; SerializeElements<CCallPutIMonthData *>
_TEXT	ENDS
; Function compile flags: /Ogtp
; File C:\Program Files (x86)\Microsoft Visual Studio\2019\Community\VC\Tools\MSVC\14.29.30133\atlmfc\include\afxtempl.h
; File C:\Program Files (x86)\Microsoft Visual Studio\2019\Community\VC\Tools\MSVC\14.29.30133\atlmfc\include\afx.inl
; File C:\Program Files (x86)\Microsoft Visual Studio\2019\Community\VC\Tools\MSVC\14.29.30133\atlmfc\include\afxtempl.h
; File C:\Program Files (x86)\Microsoft Visual Studio\2019\Community\VC\Tools\MSVC\14.29.30133\atlmfc\include\afx.inl
; File C:\Program Files (x86)\Microsoft Visual Studio\2019\Community\VC\Tools\MSVC\14.29.30133\atlmfc\include\afxtempl.h
; File C:\Program Files (x86)\Microsoft Visual Studio\2019\Community\VC\Tools\MSVC\14.29.30133\atlmfc\include\afx.inl
; File C:\Program Files (x86)\Microsoft Visual Studio\2019\Community\VC\Tools\MSVC\14.29.30133\atlmfc\include\afxtempl.h
;	COMDAT ??$SerializeElements@PAVCCallPutItemData@@@@YGXAAVCArchive@@PAPAVCCallPutItemData@@H@Z
_TEXT	SEGMENT
_ar$ = 8						; size = 4
_pElements$ = 12					; size = 4
_nCount$ = 16						; size = 4
??$SerializeElements@PAVCCallPutItemData@@@@YGXAAVCArchive@@PAPAVCCallPutItemData@@H@Z PROC ; SerializeElements<CCallPutItemData *>, COMDAT

; 67   : {

  00000	55		 push	 ebp
  00001	8b ec		 mov	 ebp, esp

; 68   : 	ENSURE(nCount == 0 || pElements != NULL);

  00003	8b 4d 0c	 mov	 ecx, DWORD PTR _pElements$[ebp]
  00006	53		 push	 ebx
  00007	56		 push	 esi
  00008	8b 75 10	 mov	 esi, DWORD PTR _nCount$[ebp]
  0000b	57		 push	 edi
  0000c	85 f6		 test	 esi, esi
  0000e	74 08		 je	 SHORT $LN2@SerializeE
  00010	85 c9		 test	 ecx, ecx
  00012	0f 84 89 00 00
	00		 je	 $LN34@SerializeE
$LN2@SerializeE:
; File C:\Program Files (x86)\Microsoft Visual Studio\2019\Community\VC\Tools\MSVC\14.29.30133\atlmfc\include\afx.inl

; 212  : 	{ return (m_nMode & CArchive::load) == 0; }

  00018	8b 55 08	 mov	 edx, DWORD PTR _ar$[ebp]
  0001b	8b 42 18	 mov	 eax, DWORD PTR [edx+24]
  0001e	f7 d0		 not	 eax
  00020	a8 01		 test	 al, 1
; File C:\Program Files (x86)\Microsoft Visual Studio\2019\Community\VC\Tools\MSVC\14.29.30133\atlmfc\include\afxtempl.h

; 73   : 	if (ar.IsStoring())

  00022	74 3c		 je	 SHORT $LN10@SerializeE

; 74   : 	{
; 75   : 		TYPE* pData;
; 76   : 		UINT_PTR nElementsLeft;
; 77   : 
; 78   : 		nElementsLeft = nCount;
; 79   : 		pData = pElements;
; 80   : 		while( nElementsLeft > 0 )

  00024	85 f6		 test	 esi, esi
  00026	74 31		 je	 SHORT $LN8@SerializeE
  00028	0f 1f 84 00 00
	00 00 00	 npad	 8
$LL5@SerializeE:

; 81   : 		{
; 82   : 			UINT nElementsToWrite;
; 83   : 
; 84   : 			nElementsToWrite = UINT(__min(nElementsLeft, INT_MAX/sizeof(TYPE)));

  00030	bb ff ff ff 1f	 mov	 ebx, 536870911		; 1fffffffH
  00035	3b f3		 cmp	 esi, ebx
  00037	0f 42 de	 cmovb	 ebx, esi

; 85   : 			ar.Write(pData, nElementsToWrite*sizeof(TYPE));

  0003a	8d 3c 9d 00 00
	00 00		 lea	 edi, DWORD PTR [ebx*4]
  00041	57		 push	 edi
  00042	51		 push	 ecx
  00043	8b ca		 mov	 ecx, edx
  00045	e8 00 00 00 00	 call	 ?Write@CArchive@@QAEXPBXI@Z ; CArchive::Write

; 86   : 			nElementsLeft -= nElementsToWrite;
; 87   : 			pData += nElementsToWrite;

  0004a	8b 4d 0c	 mov	 ecx, DWORD PTR _pElements$[ebp]
  0004d	8b 55 08	 mov	 edx, DWORD PTR _ar$[ebp]
  00050	03 cf		 add	 ecx, edi
  00052	89 4d 0c	 mov	 DWORD PTR _pElements$[ebp], ecx
  00055	2b f3		 sub	 esi, ebx
  00057	75 d7		 jne	 SHORT $LL5@SerializeE
$LN8@SerializeE:
  00059	5f		 pop	 edi

; 105  : 		}
; 106  : 	}
; 107  : }

  0005a	5e		 pop	 esi
  0005b	5b		 pop	 ebx
  0005c	5d		 pop	 ebp
  0005d	c2 0c 00	 ret	 12			; 0000000cH
$LN10@SerializeE:

; 97   : 		while( nElementsLeft > 0 )

  00060	85 f6		 test	 esi, esi
  00062	74 f5		 je	 SHORT $LN8@SerializeE
$LL7@SerializeE:

; 98   : 		{
; 99   : 			UINT nElementsToRead;
; 100  : 
; 101  : 			nElementsToRead = UINT(__min(nElementsLeft, INT_MAX/sizeof(TYPE)));

  00064	bf ff ff ff 1f	 mov	 edi, 536870911		; 1fffffffH
  00069	3b f7		 cmp	 esi, edi
  0006b	0f 42 fe	 cmovb	 edi, esi

; 102  : 			ar.EnsureRead(pData, nElementsToRead*sizeof(TYPE));

  0006e	8d 1c bd 00 00
	00 00		 lea	 ebx, DWORD PTR [edi*4]
; File C:\Program Files (x86)\Microsoft Visual Studio\2019\Community\VC\Tools\MSVC\14.29.30133\atlmfc\include\afx.inl

; 399  : 	UINT nRead=Read(lpBuf, nCount);

  00075	53		 push	 ebx
  00076	51		 push	 ecx
  00077	8b ca		 mov	 ecx, edx
  00079	e8 00 00 00 00	 call	 ?Read@CArchive@@QAEIPAXI@Z ; CArchive::Read

; 400  : 	if(nRead!=nCount)

  0007e	3b c3		 cmp	 eax, ebx
  00080	75 16		 jne	 SHORT $LN23@SerializeE
; File C:\Program Files (x86)\Microsoft Visual Studio\2019\Community\VC\Tools\MSVC\14.29.30133\atlmfc\include\afxtempl.h

; 97   : 		while( nElementsLeft > 0 )

  00082	8b 4d 0c	 mov	 ecx, DWORD PTR _pElements$[ebp]
  00085	8b 55 08	 mov	 edx, DWORD PTR _ar$[ebp]

; 103  : 			nElementsLeft -= nElementsToRead;
; 104  : 			pData += nElementsToRead;

  00088	03 cb		 add	 ecx, ebx
  0008a	89 4d 0c	 mov	 DWORD PTR _pElements$[ebp], ecx
  0008d	2b f7		 sub	 esi, edi
  0008f	75 d3		 jne	 SHORT $LL7@SerializeE

; 105  : 		}
; 106  : 	}
; 107  : }

  00091	5f		 pop	 edi
  00092	5e		 pop	 esi
  00093	5b		 pop	 ebx
  00094	5d		 pop	 ebp
  00095	c2 0c 00	 ret	 12			; 0000000cH
$LN23@SerializeE:
; File C:\Program Files (x86)\Microsoft Visual Studio\2019\Community\VC\Tools\MSVC\14.29.30133\atlmfc\include\afx.inl

; 402  : 		AfxThrowArchiveException(CArchiveException::endOfFile);

  00098	6a 00		 push	 0
  0009a	6a 03		 push	 3
  0009c	e8 00 00 00 00	 call	 ?AfxThrowArchiveException@@YGXHPBD@Z ; AfxThrowArchiveException
$LN34@SerializeE:
; File C:\Program Files (x86)\Microsoft Visual Studio\2019\Community\VC\Tools\MSVC\14.29.30133\atlmfc\include\afxtempl.h

; 68   : 	ENSURE(nCount == 0 || pElements != NULL);

  000a1	e8 00 00 00 00	 call	 ?AfxThrowInvalidArgException@@YGXXZ ; AfxThrowInvalidArgException
$LN32@SerializeE:
  000a6	cc		 int	 3
??$SerializeElements@PAVCCallPutItemData@@@@YGXAAVCArchive@@PAPAVCCallPutItemData@@H@Z ENDP ; SerializeElements<CCallPutItemData *>
_TEXT	ENDS
; Function compile flags: /Ogtp
; File C:\Program Files (x86)\Microsoft Visual Studio\2019\Community\VC\Tools\MSVC\14.29.30133\atlmfc\include\afxtempl.h
; File C:\Program Files (x86)\Microsoft Visual Studio\2019\Community\VC\Tools\MSVC\14.29.30133\atlmfc\include\afx.inl
; File C:\Program Files (x86)\Microsoft Visual Studio\2019\Community\VC\Tools\MSVC\14.29.30133\atlmfc\include\afxtempl.h
; File C:\Program Files (x86)\Microsoft Visual Studio\2019\Community\VC\Tools\MSVC\14.29.30133\atlmfc\include\afx.inl
; File C:\Program Files (x86)\Microsoft Visual Studio\2019\Community\VC\Tools\MSVC\14.29.30133\atlmfc\include\afxtempl.h
; File C:\Program Files (x86)\Microsoft Visual Studio\2019\Community\VC\Tools\MSVC\14.29.30133\atlmfc\include\afx.inl
; File C:\Program Files (x86)\Microsoft Visual Studio\2019\Community\VC\Tools\MSVC\14.29.30133\atlmfc\include\afxtempl.h
;	COMDAT ??$SerializeElements@PAVCItemLongData@@@@YGXAAVCArchive@@PAPAVCItemLongData@@H@Z
_TEXT	SEGMENT
_ar$ = 8						; size = 4
_pElements$ = 12					; size = 4
_nCount$ = 16						; size = 4
??$SerializeElements@PAVCItemLongData@@@@YGXAAVCArchive@@PAPAVCItemLongData@@H@Z PROC ; SerializeElements<CItemLongData *>, COMDAT

; 67   : {

  00000	55		 push	 ebp
  00001	8b ec		 mov	 ebp, esp

; 68   : 	ENSURE(nCount == 0 || pElements != NULL);

  00003	8b 4d 0c	 mov	 ecx, DWORD PTR _pElements$[ebp]
  00006	53		 push	 ebx
  00007	56		 push	 esi
  00008	8b 75 10	 mov	 esi, DWORD PTR _nCount$[ebp]
  0000b	57		 push	 edi
  0000c	85 f6		 test	 esi, esi
  0000e	74 08		 je	 SHORT $LN2@SerializeE
  00010	85 c9		 test	 ecx, ecx
  00012	0f 84 89 00 00
	00		 je	 $LN34@SerializeE
$LN2@SerializeE:
; File C:\Program Files (x86)\Microsoft Visual Studio\2019\Community\VC\Tools\MSVC\14.29.30133\atlmfc\include\afx.inl

; 212  : 	{ return (m_nMode & CArchive::load) == 0; }

  00018	8b 55 08	 mov	 edx, DWORD PTR _ar$[ebp]
  0001b	8b 42 18	 mov	 eax, DWORD PTR [edx+24]
  0001e	f7 d0		 not	 eax
  00020	a8 01		 test	 al, 1
; File C:\Program Files (x86)\Microsoft Visual Studio\2019\Community\VC\Tools\MSVC\14.29.30133\atlmfc\include\afxtempl.h

; 73   : 	if (ar.IsStoring())

  00022	74 3c		 je	 SHORT $LN10@SerializeE

; 74   : 	{
; 75   : 		TYPE* pData;
; 76   : 		UINT_PTR nElementsLeft;
; 77   : 
; 78   : 		nElementsLeft = nCount;
; 79   : 		pData = pElements;
; 80   : 		while( nElementsLeft > 0 )

  00024	85 f6		 test	 esi, esi
  00026	74 31		 je	 SHORT $LN8@SerializeE
  00028	0f 1f 84 00 00
	00 00 00	 npad	 8
$LL5@SerializeE:

; 81   : 		{
; 82   : 			UINT nElementsToWrite;
; 83   : 
; 84   : 			nElementsToWrite = UINT(__min(nElementsLeft, INT_MAX/sizeof(TYPE)));

  00030	bb ff ff ff 1f	 mov	 ebx, 536870911		; 1fffffffH
  00035	3b f3		 cmp	 esi, ebx
  00037	0f 42 de	 cmovb	 ebx, esi

; 85   : 			ar.Write(pData, nElementsToWrite*sizeof(TYPE));

  0003a	8d 3c 9d 00 00
	00 00		 lea	 edi, DWORD PTR [ebx*4]
  00041	57		 push	 edi
  00042	51		 push	 ecx
  00043	8b ca		 mov	 ecx, edx
  00045	e8 00 00 00 00	 call	 ?Write@CArchive@@QAEXPBXI@Z ; CArchive::Write

; 86   : 			nElementsLeft -= nElementsToWrite;
; 87   : 			pData += nElementsToWrite;

  0004a	8b 4d 0c	 mov	 ecx, DWORD PTR _pElements$[ebp]
  0004d	8b 55 08	 mov	 edx, DWORD PTR _ar$[ebp]
  00050	03 cf		 add	 ecx, edi
  00052	89 4d 0c	 mov	 DWORD PTR _pElements$[ebp], ecx
  00055	2b f3		 sub	 esi, ebx
  00057	75 d7		 jne	 SHORT $LL5@SerializeE
$LN8@SerializeE:
  00059	5f		 pop	 edi

; 105  : 		}
; 106  : 	}
; 107  : }

  0005a	5e		 pop	 esi
  0005b	5b		 pop	 ebx
  0005c	5d		 pop	 ebp
  0005d	c2 0c 00	 ret	 12			; 0000000cH
$LN10@SerializeE:

; 97   : 		while( nElementsLeft > 0 )

  00060	85 f6		 test	 esi, esi
  00062	74 f5		 je	 SHORT $LN8@SerializeE
$LL7@SerializeE:

; 98   : 		{
; 99   : 			UINT nElementsToRead;
; 100  : 
; 101  : 			nElementsToRead = UINT(__min(nElementsLeft, INT_MAX/sizeof(TYPE)));

  00064	bf ff ff ff 1f	 mov	 edi, 536870911		; 1fffffffH
  00069	3b f7		 cmp	 esi, edi
  0006b	0f 42 fe	 cmovb	 edi, esi

; 102  : 			ar.EnsureRead(pData, nElementsToRead*sizeof(TYPE));

  0006e	8d 1c bd 00 00
	00 00		 lea	 ebx, DWORD PTR [edi*4]
; File C:\Program Files (x86)\Microsoft Visual Studio\2019\Community\VC\Tools\MSVC\14.29.30133\atlmfc\include\afx.inl

; 399  : 	UINT nRead=Read(lpBuf, nCount);

  00075	53		 push	 ebx
  00076	51		 push	 ecx
  00077	8b ca		 mov	 ecx, edx
  00079	e8 00 00 00 00	 call	 ?Read@CArchive@@QAEIPAXI@Z ; CArchive::Read

; 400  : 	if(nRead!=nCount)

  0007e	3b c3		 cmp	 eax, ebx
  00080	75 16		 jne	 SHORT $LN23@SerializeE
; File C:\Program Files (x86)\Microsoft Visual Studio\2019\Community\VC\Tools\MSVC\14.29.30133\atlmfc\include\afxtempl.h

; 97   : 		while( nElementsLeft > 0 )

  00082	8b 4d 0c	 mov	 ecx, DWORD PTR _pElements$[ebp]
  00085	8b 55 08	 mov	 edx, DWORD PTR _ar$[ebp]

; 103  : 			nElementsLeft -= nElementsToRead;
; 104  : 			pData += nElementsToRead;

  00088	03 cb		 add	 ecx, ebx
  0008a	89 4d 0c	 mov	 DWORD PTR _pElements$[ebp], ecx
  0008d	2b f7		 sub	 esi, edi
  0008f	75 d3		 jne	 SHORT $LL7@SerializeE

; 105  : 		}
; 106  : 	}
; 107  : }

  00091	5f		 pop	 edi
  00092	5e		 pop	 esi
  00093	5b		 pop	 ebx
  00094	5d		 pop	 ebp
  00095	c2 0c 00	 ret	 12			; 0000000cH
$LN23@SerializeE:
; File C:\Program Files (x86)\Microsoft Visual Studio\2019\Community\VC\Tools\MSVC\14.29.30133\atlmfc\include\afx.inl

; 402  : 		AfxThrowArchiveException(CArchiveException::endOfFile);

  00098	6a 00		 push	 0
  0009a	6a 03		 push	 3
  0009c	e8 00 00 00 00	 call	 ?AfxThrowArchiveException@@YGXHPBD@Z ; AfxThrowArchiveException
$LN34@SerializeE:
; File C:\Program Files (x86)\Microsoft Visual Studio\2019\Community\VC\Tools\MSVC\14.29.30133\atlmfc\include\afxtempl.h

; 68   : 	ENSURE(nCount == 0 || pElements != NULL);

  000a1	e8 00 00 00 00	 call	 ?AfxThrowInvalidArgException@@YGXXZ ; AfxThrowInvalidArgException
$LN32@SerializeE:
  000a6	cc		 int	 3
??$SerializeElements@PAVCItemLongData@@@@YGXAAVCArchive@@PAPAVCItemLongData@@H@Z ENDP ; SerializeElements<CItemLongData *>
_TEXT	ENDS
; Function compile flags: /Ogtp
; File D:\git\src\IBK\IBK_DRFN\ProjSrc\SrcDrfn\Chart\MULTICHART\TabCodeSearch.cpp
;	COMDAT ?THREAD_PROCEEDSELECTTREE@@YAIPAX@Z
_TEXT	SEGMENT
_lpVoid$ = 8						; size = 4
?THREAD_PROCEEDSELECTTREE@@YAIPAX@Z PROC		; THREAD_PROCEEDSELECTTREE, COMDAT

; 2490 : {

  00000	55		 push	 ebp
  00001	8b ec		 mov	 ebp, esp

; 2491 : 	CTrTreeCtrl* pSelectedTree = (CTrTreeCtrl*)lpVoid;
; 2492 : 	if(pSelectedTree)

  00003	8b 4d 08	 mov	 ecx, DWORD PTR _lpVoid$[ebp]
  00006	85 c9		 test	 ecx, ecx
  00008	74 05		 je	 SHORT $LN4@THREAD_PRO

; 2493 : 		pSelectedTree->ClickDefault();

  0000a	e8 00 00 00 00	 call	 ?ClickDefault@CTrTreeCtrl@@QAEXXZ ; CTrTreeCtrl::ClickDefault
$LN4@THREAD_PRO:

; 2494 : 
; 2495 : 	return 0;
; 2496 : }

  0000f	33 c0		 xor	 eax, eax
  00011	5d		 pop	 ebp
  00012	c3		 ret	 0
?THREAD_PROCEEDSELECTTREE@@YAIPAX@Z ENDP		; THREAD_PROCEEDSELECTTREE
_TEXT	ENDS
; Function compile flags: /Ogtp
; File D:\git\src\IBK\IBK_DRFN\ProjSrc\SrcDrfn\Chart\MULTICHART\TabCodeSearch.cpp
;	COMDAT ??__ERMSG_TABCODESEARCH@@YAXXZ
text$di	SEGMENT
??__ERMSG_TABCODESEARCH@@YAXXZ PROC			; `dynamic initializer for 'RMSG_TABCODESEARCH'', COMDAT

; 55   : const UINT RMSG_TABCODESEARCH		=	::RegisterWindowMessage(_T("RMSG_TABCODESEARCH"));

  00000	68 00 00 00 00	 push	 OFFSET ??_C@_0BD@BFILGGNC@RMSG_TABCODESEARCH@
  00005	ff 15 00 00 00
	00		 call	 DWORD PTR __imp__RegisterWindowMessageA@4
  0000b	a3 00 00 00 00	 mov	 DWORD PTR ?RMSG_TABCODESEARCH@@3IB, eax
  00010	c3		 ret	 0
??__ERMSG_TABCODESEARCH@@YAXXZ ENDP			; `dynamic initializer for 'RMSG_TABCODESEARCH''
text$di	ENDS
; Function compile flags: /Ogtp
; File D:\git\src\IBK\IBK_DRFN\ProjSrc\SrcDrfn\Chart\MULTICHART\TabCodeSearch.cpp
;	COMDAT ??__ERMSG_WMSIZE@@YAXXZ
text$di	SEGMENT
??__ERMSG_WMSIZE@@YAXXZ PROC				; `dynamic initializer for 'RMSG_WMSIZE'', COMDAT

; 54   : const UINT RMSG_WMSIZE				=	::RegisterWindowMessage(_T("RMSG_WMSIZE"));

  00000	68 00 00 00 00	 push	 OFFSET ??_C@_0M@NFOGHAF@RMSG_WMSIZE@
  00005	ff 15 00 00 00
	00		 call	 DWORD PTR __imp__RegisterWindowMessageA@4
  0000b	a3 00 00 00 00	 mov	 DWORD PTR ?RMSG_WMSIZE@@3IB, eax
  00010	c3		 ret	 0
??__ERMSG_WMSIZE@@YAXXZ ENDP				; `dynamic initializer for 'RMSG_WMSIZE''
text$di	ENDS
; Function compile flags: /Ogtp
; File D:\git\src\IBK\IBK_DRFN\ProjSrc\SrcDrfn\Chart\MULTICHART\TabCodeSearch.cpp
;	COMDAT ??__ERMSG_GETINTERFACE@@YAXXZ
text$di	SEGMENT
??__ERMSG_GETINTERFACE@@YAXXZ PROC			; `dynamic initializer for 'RMSG_GETINTERFACE'', COMDAT

; 53   : const UINT RMSG_GETINTERFACE		=	::RegisterWindowMessage(_T("RMSG_GETINTERFACE"));

  00000	68 00 00 00 00	 push	 OFFSET ??_C@_0BC@NOGENPAJ@RMSG_GETINTERFACE@
  00005	ff 15 00 00 00
	00		 call	 DWORD PTR __imp__RegisterWindowMessageA@4
  0000b	a3 00 00 00 00	 mov	 DWORD PTR ?RMSG_GETINTERFACE@@3IB, eax
  00010	c3		 ret	 0
??__ERMSG_GETINTERFACE@@YAXXZ ENDP			; `dynamic initializer for 'RMSG_GETINTERFACE''
text$di	ENDS
; Function compile flags: /Ogtp
; File D:\git\src\IBK\IBK_DRFN\ProjSrc\SrcDrfn\Chart\MULTICHART\TabCodeSearch.cpp
;	COMDAT ??__ERMSG_RESETCONCDATA@@YAXXZ
text$di	SEGMENT
??__ERMSG_RESETCONCDATA@@YAXXZ PROC			; `dynamic initializer for 'RMSG_RESETCONCDATA'', COMDAT

; 52   : const UINT RMSG_RESETCONCDATA		=   ::RegisterWindowMessage("RMSG_RESETCONCDATA");

  00000	68 00 00 00 00	 push	 OFFSET ??_C@_0BD@OKKAEAJC@RMSG_RESETCONCDATA@
  00005	ff 15 00 00 00
	00		 call	 DWORD PTR __imp__RegisterWindowMessageA@4
  0000b	a3 00 00 00 00	 mov	 DWORD PTR ?RMSG_RESETCONCDATA@@3IB, eax
  00010	c3		 ret	 0
??__ERMSG_RESETCONCDATA@@YAXXZ ENDP			; `dynamic initializer for 'RMSG_RESETCONCDATA''
text$di	ENDS
; Function compile flags: /Ogtp
; File D:\git\src\IBK\IBK_DRFN\ProjSrc\SrcDrfn\Chart\MULTICHART\TabCodeSearch.cpp
;	COMDAT ??__ERMSG_ADDACCOUNTCONC@@YAXXZ
text$di	SEGMENT
??__ERMSG_ADDACCOUNTCONC@@YAXXZ PROC			; `dynamic initializer for 'RMSG_ADDACCOUNTCONC'', COMDAT

; 51   : const UINT RMSG_ADDACCOUNTCONC		=   ::RegisterWindowMessage("RMSG_ADDACCOUNTCONC");

  00000	68 00 00 00 00	 push	 OFFSET ??_C@_0BE@PFEEJKPO@RMSG_ADDACCOUNTCONC@
  00005	ff 15 00 00 00
	00		 call	 DWORD PTR __imp__RegisterWindowMessageA@4
  0000b	a3 00 00 00 00	 mov	 DWORD PTR ?RMSG_ADDACCOUNTCONC@@3IB, eax
  00010	c3		 ret	 0
??__ERMSG_ADDACCOUNTCONC@@YAXXZ ENDP			; `dynamic initializer for 'RMSG_ADDACCOUNTCONC''
text$di	ENDS
; Function compile flags: /Ogtp
; File D:\git\src\IBK\IBK_DRFN\ProjSrc\SrcDrfn\Chart\MULTICHART\TabCodeSearch.cpp
;	COMDAT ??__ERMSG_GETCURCHARTINFO@@YAXXZ
text$di	SEGMENT
??__ERMSG_GETCURCHARTINFO@@YAXXZ PROC			; `dynamic initializer for 'RMSG_GETCURCHARTINFO'', COMDAT

; 50   : const UINT RMSG_GETCURCHARTINFO		=   ::RegisterWindowMessage("RMSG_GETCURCHARTINFO");

  00000	68 00 00 00 00	 push	 OFFSET ??_C@_0BF@CHNDMHCB@RMSG_GETCURCHARTINFO@
  00005	ff 15 00 00 00
	00		 call	 DWORD PTR __imp__RegisterWindowMessageA@4
  0000b	a3 00 00 00 00	 mov	 DWORD PTR ?RMSG_GETCURCHARTINFO@@3IB, eax
  00010	c3		 ret	 0
??__ERMSG_GETCURCHARTINFO@@YAXXZ ENDP			; `dynamic initializer for 'RMSG_GETCURCHARTINFO''
text$di	ENDS
; Function compile flags: /Ogtp
; File D:\git\src\IBK\IBK_DRFN\ProjSrc\SrcDrfn\Chart\MULTICHART\TabCodeSearch.cpp
;	COMDAT ??__ERMSG_CHECKAVGPRICE@@YAXXZ
text$di	SEGMENT
??__ERMSG_CHECKAVGPRICE@@YAXXZ PROC			; `dynamic initializer for 'RMSG_CHECKAVGPRICE'', COMDAT

; 49   : const UINT RMSG_CHECKAVGPRICE		=   ::RegisterWindowMessage("RMSG_CHECKAVGPRICE");

  00000	68 00 00 00 00	 push	 OFFSET ??_C@_0BD@IBMNKIJA@RMSG_CHECKAVGPRICE@
  00005	ff 15 00 00 00
	00		 call	 DWORD PTR __imp__RegisterWindowMessageA@4
  0000b	a3 00 00 00 00	 mov	 DWORD PTR ?RMSG_CHECKAVGPRICE@@3IB, eax
  00010	c3		 ret	 0
??__ERMSG_CHECKAVGPRICE@@YAXXZ ENDP			; `dynamic initializer for 'RMSG_CHECKAVGPRICE''
text$di	ENDS
; Function compile flags: /Ogtp
; File D:\git\src\IBK\IBK_DRFN\ProjSrc\SrcDrfn\Chart\MULTICHART\TabCodeSearch.cpp
;	COMDAT ??__ERMSG_ADDACCOUNTCODE@@YAXXZ
text$di	SEGMENT
??__ERMSG_ADDACCOUNTCODE@@YAXXZ PROC			; `dynamic initializer for 'RMSG_ADDACCOUNTCODE'', COMDAT

; 48   : const UINT RMSG_ADDACCOUNTCODE		=   ::RegisterWindowMessage("RMSG_ADDACCOUNTCODE");

  00000	68 00 00 00 00	 push	 OFFSET ??_C@_0BE@KOIJLIKO@RMSG_ADDACCOUNTCODE@
  00005	ff 15 00 00 00
	00		 call	 DWORD PTR __imp__RegisterWindowMessageA@4
  0000b	a3 00 00 00 00	 mov	 DWORD PTR ?RMSG_ADDACCOUNTCODE@@3IB, eax
  00010	c3		 ret	 0
??__ERMSG_ADDACCOUNTCODE@@YAXXZ ENDP			; `dynamic initializer for 'RMSG_ADDACCOUNTCODE''
text$di	ENDS
; Function compile flags: /Ogtp
; File C:\Program Files (x86)\Microsoft Visual Studio\2019\Community\VC\Tools\MSVC\14.29.30133\atlmfc\include\atlcomcli.h
;	COMDAT ??_Estringdispid@CComTypeInfoHolder@ATL@@QAEPAXI@Z
_TEXT	SEGMENT
__$EHRec$ = -12						; size = 12
___flags$ = 8						; size = 4
??_Estringdispid@CComTypeInfoHolder@ATL@@QAEPAXI@Z PROC	; ATL::CComTypeInfoHolder::stringdispid::`vector deleting destructor', COMDAT
; _this$ = ecx
  00000	55		 push	 ebp
  00001	8b ec		 mov	 ebp, esp
  00003	6a ff		 push	 -1
  00005	68 00 00 00 00	 push	 __ehhandler$??_Estringdispid@CComTypeInfoHolder@ATL@@QAEPAXI@Z
  0000a	64 a1 00 00 00
	00		 mov	 eax, DWORD PTR fs:0
  00010	50		 push	 eax
  00011	53		 push	 ebx
  00012	56		 push	 esi
  00013	57		 push	 edi
  00014	a1 00 00 00 00	 mov	 eax, DWORD PTR ___security_cookie
  00019	33 c5		 xor	 eax, ebp
  0001b	50		 push	 eax
  0001c	8d 45 f4	 lea	 eax, DWORD PTR __$EHRec$[ebp]
  0001f	64 a3 00 00 00
	00		 mov	 DWORD PTR fs:0, eax
  00025	8b f1		 mov	 esi, ecx
  00027	8b 45 08	 mov	 eax, DWORD PTR ___flags$[ebp]
  0002a	8b d8		 mov	 ebx, eax
  0002c	83 e3 01	 and	 ebx, 1
  0002f	a8 02		 test	 al, 2
  00031	74 43		 je	 SHORT $LN2@vector
  00033	68 00 00 00 00	 push	 OFFSET ??1stringdispid@CComTypeInfoHolder@ATL@@QAE@XZ
  00038	ff 76 fc	 push	 DWORD PTR [esi-4]
  0003b	8d 7e fc	 lea	 edi, DWORD PTR [esi-4]
  0003e	6a 0c		 push	 12			; 0000000cH
  00040	56		 push	 esi
  00041	e8 00 00 00 00	 call	 ??_M@YGXPAXIIP6EX0@Z@Z
  00046	85 db		 test	 ebx, ebx
  00048	74 16		 je	 SHORT $LN3@vector
  0004a	8b 0f		 mov	 ecx, DWORD PTR [edi]
  0004c	8d 0c 49	 lea	 ecx, DWORD PTR [ecx+ecx*2]
  0004f	8d 0c 8d 04 00
	00 00		 lea	 ecx, DWORD PTR [ecx*4+4]
  00056	51		 push	 ecx
  00057	57		 push	 edi
  00058	e8 00 00 00 00	 call	 ??_V@YAXPAXI@Z		; operator delete[]
  0005d	83 c4 08	 add	 esp, 8
$LN3@vector:
  00060	8b c7		 mov	 eax, edi
  00062	8b 4d f4	 mov	 ecx, DWORD PTR __$EHRec$[ebp]
  00065	64 89 0d 00 00
	00 00		 mov	 DWORD PTR fs:0, ecx
  0006c	59		 pop	 ecx
  0006d	5f		 pop	 edi
  0006e	5e		 pop	 esi
  0006f	5b		 pop	 ebx
  00070	8b e5		 mov	 esp, ebp
  00072	5d		 pop	 ebp
  00073	c2 04 00	 ret	 4
$LN2@vector:

; 1680 :     ::SysFreeString(m_str);

  00076	ff 36		 push	 DWORD PTR [esi]
  00078	ff 15 00 00 00
	00		 call	 DWORD PTR __imp__SysFreeString@4
  0007e	85 db		 test	 ebx, ebx
  00080	74 0b		 je	 SHORT $LN4@vector
  00082	6a 0c		 push	 12			; 0000000cH
  00084	56		 push	 esi
  00085	e8 00 00 00 00	 call	 ??3@YAXPAXI@Z		; operator delete
  0008a	83 c4 08	 add	 esp, 8
$LN4@vector:
  0008d	8b c6		 mov	 eax, esi
  0008f	8b 4d f4	 mov	 ecx, DWORD PTR __$EHRec$[ebp]
  00092	64 89 0d 00 00
	00 00		 mov	 DWORD PTR fs:0, ecx
  00099	59		 pop	 ecx
  0009a	5f		 pop	 edi
  0009b	5e		 pop	 esi
  0009c	5b		 pop	 ebx
  0009d	8b e5		 mov	 esp, ebp
  0009f	5d		 pop	 ebp
  000a0	c2 04 00	 ret	 4
  000a3	cc		 int	 3
  000a4	cc		 int	 3
  000a5	cc		 int	 3
  000a6	cc		 int	 3
  000a7	cc		 int	 3
_TEXT	ENDS
;	COMDAT text$x
text$x	SEGMENT
__ehhandler$??_Estringdispid@CComTypeInfoHolder@ATL@@QAEPAXI@Z:
  00000	90		 npad	 1
  00001	90		 npad	 1
  00002	8b 54 24 08	 mov	 edx, DWORD PTR [esp+8]
  00006	8d 42 0c	 lea	 eax, DWORD PTR [edx+12]
  00009	8b 4a f0	 mov	 ecx, DWORD PTR [edx-16]
  0000c	33 c8		 xor	 ecx, eax
  0000e	e8 00 00 00 00	 call	 @__security_check_cookie@4
  00013	b8 00 00 00 00	 mov	 eax, OFFSET __ehfuncinfo$??_Estringdispid@CComTypeInfoHolder@ATL@@QAEPAXI@Z
  00018	e9 00 00 00 00	 jmp	 ___CxxFrameHandler3
text$x	ENDS
??_Estringdispid@CComTypeInfoHolder@ATL@@QAEPAXI@Z ENDP	; ATL::CComTypeInfoHolder::stringdispid::`vector deleting destructor'
; Function compile flags: /Ogtp
; File C:\Program Files (x86)\Microsoft Visual Studio\2019\Community\VC\Tools\MSVC\14.29.30133\atlmfc\include\atlcomcli.h
;	COMDAT ??1stringdispid@CComTypeInfoHolder@ATL@@QAE@XZ
_TEXT	SEGMENT
??1stringdispid@CComTypeInfoHolder@ATL@@QAE@XZ PROC	; ATL::CComTypeInfoHolder::stringdispid::~stringdispid, COMDAT
; _this$ = ecx

; 1680 :     ::SysFreeString(m_str);

  00000	ff 31		 push	 DWORD PTR [ecx]
  00002	ff 15 00 00 00
	00		 call	 DWORD PTR __imp__SysFreeString@4
  00008	c3		 ret	 0
??1stringdispid@CComTypeInfoHolder@ATL@@QAE@XZ ENDP	; ATL::CComTypeInfoHolder::stringdispid::~stringdispid
_TEXT	ENDS
; Function compile flags: /Ogtp
; File D:\git\src\IBK\IBK_DRFN\ProjSrc\SrcDrfn\Chart\chart_common\ReplayChartInfoDef.h
;	COMDAT ??__ERMSG_REPLAY_TOTAL_SEC@@YAXXZ
text$di	SEGMENT
??__ERMSG_REPLAY_TOTAL_SEC@@YAXXZ PROC			; `dynamic initializer for 'RMSG_REPLAY_TOTAL_SEC'', COMDAT

; 97   : 	const UINT RMSG_REPLAY_TOTAL_SEC = ::RegisterWindowMessage(_T("RMSG_REPLAY_TOTAL_SEC"));		//  () 

  00000	68 00 00 00 00	 push	 OFFSET ??_C@_0BG@GIAJEIJF@RMSG_REPLAY_TOTAL_SEC@
  00005	ff 15 00 00 00
	00		 call	 DWORD PTR __imp__RegisterWindowMessageA@4
  0000b	a3 00 00 00 00	 mov	 DWORD PTR ?RMSG_REPLAY_TOTAL_SEC@@3IB, eax
  00010	c3		 ret	 0
??__ERMSG_REPLAY_TOTAL_SEC@@YAXXZ ENDP			; `dynamic initializer for 'RMSG_REPLAY_TOTAL_SEC''
text$di	ENDS
; Function compile flags: /Ogtp
; File D:\git\src\IBK\IBK_DRFN\ProjSrc\SrcDrfn\Chart\chart_common\ReplayChartInfoDef.h
;	COMDAT ??__ERMSG_REPLAY_INC_SEC@@YAXXZ
text$di	SEGMENT
??__ERMSG_REPLAY_INC_SEC@@YAXXZ PROC			; `dynamic initializer for 'RMSG_REPLAY_INC_SEC'', COMDAT

; 96   : 	const UINT RMSG_REPLAY_INC_SEC = ::RegisterWindowMessage(_T("RMSG_REPLAY_INC_SEC"));			// 1   

  00000	68 00 00 00 00	 push	 OFFSET ??_C@_0BE@JFCIMCIP@RMSG_REPLAY_INC_SEC@
  00005	ff 15 00 00 00
	00		 call	 DWORD PTR __imp__RegisterWindowMessageA@4
  0000b	a3 00 00 00 00	 mov	 DWORD PTR ?RMSG_REPLAY_INC_SEC@@3IB, eax
  00010	c3		 ret	 0
??__ERMSG_REPLAY_INC_SEC@@YAXXZ ENDP			; `dynamic initializer for 'RMSG_REPLAY_INC_SEC''
text$di	ENDS
; Function compile flags: /Ogtp
; File D:\git\src\IBK\IBK_DRFN\ProjSrc\SrcDrfn\Chart\chart_common\ReplayChartInfoDef.h
;	COMDAT ??__ERMSG_REPLAY_END@@YAXXZ
text$di	SEGMENT
??__ERMSG_REPLAY_END@@YAXXZ PROC			; `dynamic initializer for 'RMSG_REPLAY_END'', COMDAT

; 95   : 	const UINT RMSG_REPLAY_END			= ::RegisterWindowMessage(_T("RMSG_REPLAY_END"));

  00000	68 00 00 00 00	 push	 OFFSET ??_C@_0BA@NKHHCPON@RMSG_REPLAY_END@
  00005	ff 15 00 00 00
	00		 call	 DWORD PTR __imp__RegisterWindowMessageA@4
  0000b	a3 00 00 00 00	 mov	 DWORD PTR ?RMSG_REPLAY_END@@3IB, eax
  00010	c3		 ret	 0
??__ERMSG_REPLAY_END@@YAXXZ ENDP			; `dynamic initializer for 'RMSG_REPLAY_END''
text$di	ENDS
; Function compile flags: /Ogtp
; File D:\git\src\IBK\IBK_DRFN\ProjSrc\SrcDrfn\Chart\chart_common\ReplayChartInfoDef.h
;	COMDAT ??__ERMSG_REPLAY_CHANGE_DATE@@YAXXZ
text$di	SEGMENT
??__ERMSG_REPLAY_CHANGE_DATE@@YAXXZ PROC		; `dynamic initializer for 'RMSG_REPLAY_CHANGE_DATE'', COMDAT

; 94   : 	const UINT RMSG_REPLAY_CHANGE_DATE	= ::RegisterWindowMessage(_T("RMSG_REPLAY_CHANGE_DATE"));

  00000	68 00 00 00 00	 push	 OFFSET ??_C@_0BI@KDGAIIMD@RMSG_REPLAY_CHANGE_DATE@
  00005	ff 15 00 00 00
	00		 call	 DWORD PTR __imp__RegisterWindowMessageA@4
  0000b	a3 00 00 00 00	 mov	 DWORD PTR ?RMSG_REPLAY_CHANGE_DATE@@3IB, eax
  00010	c3		 ret	 0
??__ERMSG_REPLAY_CHANGE_DATE@@YAXXZ ENDP		; `dynamic initializer for 'RMSG_REPLAY_CHANGE_DATE''
text$di	ENDS
; Function compile flags: /Ogtp
; File D:\git\src\IBK\IBK_DRFN\ProjSrc\SrcDrfn\Chart\chart_common\ReplayChartInfoDef.h
;	COMDAT ??__ERMSG_REPLAY_FAIL@@YAXXZ
text$di	SEGMENT
??__ERMSG_REPLAY_FAIL@@YAXXZ PROC			; `dynamic initializer for 'RMSG_REPLAY_FAIL'', COMDAT

; 93   : 	const UINT RMSG_REPLAY_FAIL			= ::RegisterWindowMessage(_T("RMSG_REPLAY_FAIL"));

  00000	68 00 00 00 00	 push	 OFFSET ??_C@_0BB@JFLGBADG@RMSG_REPLAY_FAIL@
  00005	ff 15 00 00 00
	00		 call	 DWORD PTR __imp__RegisterWindowMessageA@4
  0000b	a3 00 00 00 00	 mov	 DWORD PTR ?RMSG_REPLAY_FAIL@@3IB, eax
  00010	c3		 ret	 0
??__ERMSG_REPLAY_FAIL@@YAXXZ ENDP			; `dynamic initializer for 'RMSG_REPLAY_FAIL''
text$di	ENDS
; Function compile flags: /Ogtp
; File D:\git\src\IBK\IBK_DRFN\ProjSrc\SrcDrfn\Chart\chart_common\ReplayChartInfoDef.h
;	COMDAT ??__ERMSG_REPLAY_REAL@@YAXXZ
text$di	SEGMENT
??__ERMSG_REPLAY_REAL@@YAXXZ PROC			; `dynamic initializer for 'RMSG_REPLAY_REAL'', COMDAT

; 92   : 	const UINT RMSG_REPLAY_REAL			= ::RegisterWindowMessage(_T("RMSG_REPLAY_REAL"));

  00000	68 00 00 00 00	 push	 OFFSET ??_C@_0BB@IBKHOHJL@RMSG_REPLAY_REAL@
  00005	ff 15 00 00 00
	00		 call	 DWORD PTR __imp__RegisterWindowMessageA@4
  0000b	a3 00 00 00 00	 mov	 DWORD PTR ?RMSG_REPLAY_REAL@@3IB, eax
  00010	c3		 ret	 0
??__ERMSG_REPLAY_REAL@@YAXXZ ENDP			; `dynamic initializer for 'RMSG_REPLAY_REAL''
text$di	ENDS
; Function compile flags: /Ogtp
; File D:\git\src\IBK\IBK_DRFN\ProjSrc\SrcDrfn\Chart\MULTICHART\define\DragNDropDefine.h
;	COMDAT ??__ERMSG_DRAGEND@@YAXXZ
text$di	SEGMENT
??__ERMSG_DRAGEND@@YAXXZ PROC				; `dynamic initializer for 'RMSG_DRAGEND'', COMDAT

; 5    : const UINT RMSG_DRAGEND				= ::RegisterWindowMessage(_T("RMSG_DRAGEND"));

  00000	68 00 00 00 00	 push	 OFFSET ??_C@_0N@HCNBEPNP@RMSG_DRAGEND@
  00005	ff 15 00 00 00
	00		 call	 DWORD PTR __imp__RegisterWindowMessageA@4
  0000b	a3 00 00 00 00	 mov	 DWORD PTR ?RMSG_DRAGEND@@3IB, eax
  00010	c3		 ret	 0
??__ERMSG_DRAGEND@@YAXXZ ENDP				; `dynamic initializer for 'RMSG_DRAGEND''
text$di	ENDS
; Function compile flags: /Ogtp
; File D:\git\src\IBK\IBK_DRFN\ProjSrc\SrcDrfn\Chart\MULTICHART\define\DragNDropDefine.h
;	COMDAT ??__ERMSG_DRAGSTART@@YAXXZ
text$di	SEGMENT
??__ERMSG_DRAGSTART@@YAXXZ PROC				; `dynamic initializer for 'RMSG_DRAGSTART'', COMDAT

; 4    : const UINT RMSG_DRAGSTART			= ::RegisterWindowMessage(_T("RMSG_DRAGSTART"));

  00000	68 00 00 00 00	 push	 OFFSET ??_C@_0P@JJCNALBJ@RMSG_DRAGSTART@
  00005	ff 15 00 00 00
	00		 call	 DWORD PTR __imp__RegisterWindowMessageA@4
  0000b	a3 00 00 00 00	 mov	 DWORD PTR ?RMSG_DRAGSTART@@3IB, eax
  00010	c3		 ret	 0
??__ERMSG_DRAGSTART@@YAXXZ ENDP				; `dynamic initializer for 'RMSG_DRAGSTART''
text$di	ENDS
; Function compile flags: /Ogtp
; File C:\Program Files (x86)\Microsoft Visual Studio\2019\Community\VC\Tools\MSVC\14.29.30133\atlmfc\include\afxtempl.h
; File D:\git\src\IBK\IBK_DRFN\ProjSrc\SrcDrfn\Chart\Chart_Common\CallPutHelper.h
; File C:\Program Files (x86)\Microsoft Visual Studio\2019\Community\VC\Tools\MSVC\14.29.30133\atlmfc\include\afxtempl.h
; File C:\Program Files (x86)\Microsoft Visual Studio\2019\Community\VC\Tools\MSVC\14.29.30133\atlmfc\include\afx.inl
;	COMDAT ??_GCTabCodeSearch@@UAEPAXI@Z
_TEXT	SEGMENT
__$EHRec$ = -12						; size = 12
___flags$ = 8						; size = 4
??_GCTabCodeSearch@@UAEPAXI@Z PROC			; CTabCodeSearch::`scalar deleting destructor', COMDAT
; _this$ = ecx
  00000	55		 push	 ebp
  00001	8b ec		 mov	 ebp, esp
  00003	6a ff		 push	 -1
  00005	68 00 00 00 00	 push	 __ehhandler$??_GCTabCodeSearch@@UAEPAXI@Z
  0000a	64 a1 00 00 00
	00		 mov	 eax, DWORD PTR fs:0
  00010	50		 push	 eax
  00011	56		 push	 esi
  00012	57		 push	 edi
  00013	a1 00 00 00 00	 mov	 eax, DWORD PTR ___security_cookie
  00018	33 c5		 xor	 eax, ebp
  0001a	50		 push	 eax
  0001b	8d 45 f4	 lea	 eax, DWORD PTR __$EHRec$[ebp]
  0001e	64 a3 00 00 00
	00		 mov	 DWORD PTR fs:0, eax
  00024	8b f9		 mov	 edi, ecx
; File C:\Program Files (x86)\Microsoft Visual Studio\2019\Community\VC\Tools\MSVC\14.29.30133\atlmfc\include\afxtempl.h

; 872  : 	m_pBlocks->FreeDataChain();

  00026	8b 8f f0 10 00
	00		 mov	 ecx, DWORD PTR [edi+4336]

; 878  : {

  0002c	c7 45 fc 00 00
	00 00		 mov	 DWORD PTR __$EHRec$[ebp+8], 0
  00033	c7 87 dc 10 00
	00 00 00 00 00	 mov	 DWORD PTR [edi+4316], OFFSET ??_7?$CList@PAVCItemLongData@@PAV1@@@6B@

; 870  : 	m_nCount = 0;

  0003d	c7 87 e8 10 00
	00 00 00 00 00	 mov	 DWORD PTR [edi+4328], 0

; 871  : 	m_pNodeHead = m_pNodeTail = m_pNodeFree = NULL;

  00047	c7 87 ec 10 00
	00 00 00 00 00	 mov	 DWORD PTR [edi+4332], 0
  00051	c7 87 e4 10 00
	00 00 00 00 00	 mov	 DWORD PTR [edi+4324], 0
  0005b	c7 87 e0 10 00
	00 00 00 00 00	 mov	 DWORD PTR [edi+4320], 0

; 872  : 	m_pBlocks->FreeDataChain();

  00065	e8 00 00 00 00	 call	 ?FreeDataChain@CPlex@@QAEXXZ ; CPlex::FreeDataChain
  0006a	8d 8f cc 10 00
	00		 lea	 ecx, DWORD PTR [edi+4300]

; 873  : 	m_pBlocks = NULL;

  00070	c7 87 f0 10 00
	00 00 00 00 00	 mov	 DWORD PTR [edi+4336], 0
  0007a	e8 00 00 00 00	 call	 ??1CImageList@@UAE@XZ	; CImageList::~CImageList
  0007f	8d 8f c4 10 00
	00		 lea	 ecx, DWORD PTR [edi+4292]
  00085	e8 00 00 00 00	 call	 ??1CImageList@@UAE@XZ	; CImageList::~CImageList
  0008a	8d 8f 48 0f 00
	00		 lea	 ecx, DWORD PTR [edi+3912]
  00090	e8 00 00 00 00	 call	 ??1CGfxOutBarCtrl@@UAE@XZ ; CGfxOutBarCtrl::~CGfxOutBarCtrl
  00095	8d 8f 44 0f 00
	00		 lea	 ecx, DWORD PTR [edi+3908]
  0009b	ff 15 00 00 00
	00		 call	 DWORD PTR __imp_??1?$CStringT@DV?$StrTraitMFC_DLL@DV?$ChTraitsCRT@D@ATL@@@@@ATL@@QAE@XZ
  000a1	8d 8f 1c 0f 00
	00		 lea	 ecx, DWORD PTR [edi+3868]
  000a7	e8 00 00 00 00	 call	 ??1CStringArray@@UAE@XZ	; CStringArray::~CStringArray
  000ac	8d 8f 08 0f 00
	00		 lea	 ecx, DWORD PTR [edi+3848]
  000b2	e8 00 00 00 00	 call	 ??1CStringArray@@UAE@XZ	; CStringArray::~CStringArray
  000b7	8d 8f f0 0e 00
	00		 lea	 ecx, DWORD PTR [edi+3824]
  000bd	ff 15 00 00 00
	00		 call	 DWORD PTR __imp_??1?$CStringT@DV?$StrTraitMFC_DLL@DV?$ChTraitsCRT@D@ATL@@@@@ATL@@QAE@XZ
  000c3	8d 8f e4 0e 00
	00		 lea	 ecx, DWORD PTR [edi+3812]
  000c9	ff 15 00 00 00
	00		 call	 DWORD PTR __imp_??1?$CStringT@DV?$StrTraitMFC_DLL@DV?$ChTraitsCRT@D@ATL@@@@@ATL@@QAE@XZ
  000cf	8d 8f d8 0e 00
	00		 lea	 ecx, DWORD PTR [edi+3800]
  000d5	ff 15 00 00 00
	00		 call	 DWORD PTR __imp_??1?$CStringT@DV?$StrTraitMFC_DLL@DV?$ChTraitsCRT@D@ATL@@@@@ATL@@QAE@XZ
  000db	8d 8f 8c 0e 00
	00		 lea	 ecx, DWORD PTR [edi+3724]
  000e1	ff 15 00 00 00
	00		 call	 DWORD PTR __imp_??1?$CStringT@DV?$StrTraitMFC_DLL@DV?$ChTraitsCRT@D@ATL@@@@@ATL@@QAE@XZ
  000e7	8d 8f 88 0e 00
	00		 lea	 ecx, DWORD PTR [edi+3720]
  000ed	ff 15 00 00 00
	00		 call	 DWORD PTR __imp_??1?$CStringT@DV?$StrTraitMFC_DLL@DV?$ChTraitsCRT@D@ATL@@@@@ATL@@QAE@XZ
  000f3	8d 8f 8c 0c 00
	00		 lea	 ecx, DWORD PTR [edi+3212]
  000f9	e8 00 00 00 00	 call	 ??1CCondTarget@@UAE@XZ	; CCondTarget::~CCondTarget
  000fe	8d b7 68 0c 00
	00		 lea	 esi, DWORD PTR [edi+3176]
; File D:\git\src\IBK\IBK_DRFN\ProjSrc\SrcDrfn\Chart\Chart_Common\CallPutHelper.h

; 150  : 		ClearList();

  00104	8b ce		 mov	 ecx, esi
  00106	c7 45 fc 01 00
	00 00		 mov	 DWORD PTR __$EHRec$[ebp+8], 1
  0010d	e8 00 00 00 00	 call	 ?ClearList@CCallPutIHelper@@QAEXXZ ; CCallPutIHelper::ClearList
; File C:\Program Files (x86)\Microsoft Visual Studio\2019\Community\VC\Tools\MSVC\14.29.30133\atlmfc\include\afxtempl.h

; 872  : 	m_pBlocks->FreeDataChain();

  00112	8b 4e 14	 mov	 ecx, DWORD PTR [esi+20]

; 878  : {

  00115	c6 45 fc 02	 mov	 BYTE PTR __$EHRec$[ebp+8], 2
  00119	c7 06 00 00 00
	00		 mov	 DWORD PTR [esi], OFFSET ??_7?$CList@PAVCCallPutIMonthData@@PAV1@@@6B@

; 870  : 	m_nCount = 0;

  0011f	c7 46 0c 00 00
	00 00		 mov	 DWORD PTR [esi+12], 0

; 871  : 	m_pNodeHead = m_pNodeTail = m_pNodeFree = NULL;

  00126	c7 46 10 00 00
	00 00		 mov	 DWORD PTR [esi+16], 0
  0012d	c7 46 08 00 00
	00 00		 mov	 DWORD PTR [esi+8], 0
  00134	c7 46 04 00 00
	00 00		 mov	 DWORD PTR [esi+4], 0

; 872  : 	m_pBlocks->FreeDataChain();

  0013b	e8 00 00 00 00	 call	 ?FreeDataChain@CPlex@@QAEXXZ ; CPlex::FreeDataChain
  00140	8d 8f 98 0b 00
	00		 lea	 ecx, DWORD PTR [edi+2968]

; 873  : 	m_pBlocks = NULL;

  00146	c7 46 14 00 00
	00 00		 mov	 DWORD PTR [esi+20], 0
  0014d	e8 00 00 00 00	 call	 ??1CySplitterWnd@@UAE@XZ ; CySplitterWnd::~CySplitterWnd
  00152	8d 8f 10 0b 00
	00		 lea	 ecx, DWORD PTR [edi+2832]
  00158	e8 00 00 00 00	 call	 ??1CExComboBox@@UAE@XZ	; CExComboBox::~CExComboBox
  0015d	8d 8f b0 09 00
	00		 lea	 ecx, DWORD PTR [edi+2480]
  00163	e8 00 00 00 00	 call	 ??1CILButton@@UAE@XZ	; CILButton::~CILButton
  00168	8d 8f 78 06 00
	00		 lea	 ecx, DWORD PTR [edi+1656]
  0016e	e8 00 00 00 00	 call	 ??1CXListCtrlJongData@@UAE@XZ ; CXListCtrlJongData::~CXListCtrlJongData
  00173	8d 8f 18 05 00
	00		 lea	 ecx, DWORD PTR [edi+1304]
  00179	e8 00 00 00 00	 call	 ??1CILButton@@UAE@XZ	; CILButton::~CILButton
  0017e	8d 8f b8 03 00
	00		 lea	 ecx, DWORD PTR [edi+952]
  00184	e8 00 00 00 00	 call	 ??1CILButton@@UAE@XZ	; CILButton::~CILButton
  00189	8d 8f 58 02 00
	00		 lea	 ecx, DWORD PTR [edi+600]
  0018f	e8 00 00 00 00	 call	 ??1CILButton@@UAE@XZ	; CILButton::~CILButton
  00194	8d 8f d8 01 00
	00		 lea	 ecx, DWORD PTR [edi+472]
  0019a	e8 00 00 00 00	 call	 ??1CButton@@UAE@XZ	; CButton::~CButton
  0019f	8d 8f 58 01 00
	00		 lea	 ecx, DWORD PTR [edi+344]
  001a5	e8 00 00 00 00	 call	 ??1CButton@@UAE@XZ	; CButton::~CButton
  001aa	8d 8f d8 00 00
	00		 lea	 ecx, DWORD PTR [edi+216]
  001b0	e8 00 00 00 00	 call	 ??1CButton@@UAE@XZ	; CButton::~CButton
  001b5	8b cf		 mov	 ecx, edi
  001b7	e8 00 00 00 00	 call	 ??1CTabDlg@@UAE@XZ	; CTabDlg::~CTabDlg
  001bc	8b 45 08	 mov	 eax, DWORD PTR ___flags$[ebp]
  001bf	a8 01		 test	 al, 1
  001c1	74 1d		 je	 SHORT $LN44@scalar
  001c3	a8 04		 test	 al, 4
  001c5	75 0b		 jne	 SHORT $LN3@scalar
; File C:\Program Files (x86)\Microsoft Visual Studio\2019\Community\VC\Tools\MSVC\14.29.30133\atlmfc\include\afx.inl

; 112  : 	{ ::operator delete(p); }

  001c7	57		 push	 edi
  001c8	e8 00 00 00 00	 call	 ??3@YAXPAX@Z		; operator delete
  001cd	83 c4 04	 add	 esp, 4
  001d0	eb 0e		 jmp	 SHORT $LN44@scalar
$LN3@scalar:
  001d2	68 00 11 00 00	 push	 4352			; 00001100H
  001d7	57		 push	 edi
  001d8	e8 00 00 00 00	 call	 ?__global_delete@@YAXPAXI@Z ; __global_delete
  001dd	83 c4 08	 add	 esp, 8
$LN44@scalar:
  001e0	8b c7		 mov	 eax, edi
  001e2	8b 4d f4	 mov	 ecx, DWORD PTR __$EHRec$[ebp]
  001e5	64 89 0d 00 00
	00 00		 mov	 DWORD PTR fs:0, ecx
  001ec	59		 pop	 ecx
  001ed	5f		 pop	 edi
  001ee	5e		 pop	 esi
  001ef	8b e5		 mov	 esp, ebp
  001f1	5d		 pop	 ebp
  001f2	c2 04 00	 ret	 4
  001f5	cc		 int	 3
  001f6	cc		 int	 3
  001f7	cc		 int	 3
  001f8	cc		 int	 3
  001f9	cc		 int	 3
_TEXT	ENDS
;	COMDAT text$x
text$x	SEGMENT
__ehhandler$??_GCTabCodeSearch@@UAEPAXI@Z:
  00000	90		 npad	 1
  00001	90		 npad	 1
  00002	8b 54 24 08	 mov	 edx, DWORD PTR [esp+8]
  00006	8d 42 0c	 lea	 eax, DWORD PTR [edx+12]
  00009	8b 4a f4	 mov	 ecx, DWORD PTR [edx-12]
  0000c	33 c8		 xor	 ecx, eax
  0000e	e8 00 00 00 00	 call	 @__security_check_cookie@4
  00013	b8 00 00 00 00	 mov	 eax, OFFSET __ehfuncinfo$??_GCTabCodeSearch@@UAEPAXI@Z
  00018	e9 00 00 00 00	 jmp	 ___CxxFrameHandler3
text$x	ENDS
??_GCTabCodeSearch@@UAEPAXI@Z ENDP			; CTabCodeSearch::`scalar deleting destructor'
; Function compile flags: /Ogtp
; File C:\Program Files (x86)\Microsoft Visual Studio\2019\Community\VC\Tools\MSVC\14.29.30133\atlmfc\include\afxtempl.h
; File C:\Program Files (x86)\Microsoft Visual Studio\2019\Community\VC\Tools\MSVC\14.29.30133\atlmfc\include\afx.inl
;	COMDAT ??_G?$CList@PAVCItemLongData@@PAV1@@@UAEPAXI@Z
_TEXT	SEGMENT
__$EHRec$ = -12						; size = 12
___flags$ = 8						; size = 4
??_G?$CList@PAVCItemLongData@@PAV1@@@UAEPAXI@Z PROC	; CList<CItemLongData *,CItemLongData *>::`scalar deleting destructor', COMDAT
; _this$ = ecx
  00000	55		 push	 ebp
  00001	8b ec		 mov	 ebp, esp
  00003	6a ff		 push	 -1
  00005	68 00 00 00 00	 push	 __ehhandler$??_G?$CList@PAVCItemLongData@@PAV1@@@UAEPAXI@Z
  0000a	64 a1 00 00 00
	00		 mov	 eax, DWORD PTR fs:0
  00010	50		 push	 eax
  00011	56		 push	 esi
  00012	a1 00 00 00 00	 mov	 eax, DWORD PTR ___security_cookie
  00017	33 c5		 xor	 eax, ebp
  00019	50		 push	 eax
  0001a	8d 45 f4	 lea	 eax, DWORD PTR __$EHRec$[ebp]
  0001d	64 a3 00 00 00
	00		 mov	 DWORD PTR fs:0, eax
  00023	8b f1		 mov	 esi, ecx
; File C:\Program Files (x86)\Microsoft Visual Studio\2019\Community\VC\Tools\MSVC\14.29.30133\atlmfc\include\afxtempl.h

; 872  : 	m_pBlocks->FreeDataChain();

  00025	8b 4e 14	 mov	 ecx, DWORD PTR [esi+20]

; 878  : {

  00028	c7 45 fc 00 00
	00 00		 mov	 DWORD PTR __$EHRec$[ebp+8], 0
  0002f	c7 06 00 00 00
	00		 mov	 DWORD PTR [esi], OFFSET ??_7?$CList@PAVCItemLongData@@PAV1@@@6B@

; 870  : 	m_nCount = 0;

  00035	c7 46 0c 00 00
	00 00		 mov	 DWORD PTR [esi+12], 0

; 871  : 	m_pNodeHead = m_pNodeTail = m_pNodeFree = NULL;

  0003c	c7 46 10 00 00
	00 00		 mov	 DWORD PTR [esi+16], 0
  00043	c7 46 08 00 00
	00 00		 mov	 DWORD PTR [esi+8], 0
  0004a	c7 46 04 00 00
	00 00		 mov	 DWORD PTR [esi+4], 0

; 872  : 	m_pBlocks->FreeDataChain();

  00051	e8 00 00 00 00	 call	 ?FreeDataChain@CPlex@@QAEXXZ ; CPlex::FreeDataChain

; 873  : 	m_pBlocks = NULL;

  00056	8b 45 08	 mov	 eax, DWORD PTR ___flags$[ebp]
  00059	c7 46 14 00 00
	00 00		 mov	 DWORD PTR [esi+20], 0
  00060	a8 01		 test	 al, 1
  00062	74 2c		 je	 SHORT $LN22@scalar
  00064	a8 04		 test	 al, 4
  00066	75 1d		 jne	 SHORT $LN3@scalar
; File C:\Program Files (x86)\Microsoft Visual Studio\2019\Community\VC\Tools\MSVC\14.29.30133\atlmfc\include\afx.inl

; 112  : 	{ ::operator delete(p); }

  00068	56		 push	 esi
  00069	e8 00 00 00 00	 call	 ??3@YAXPAX@Z		; operator delete
  0006e	83 c4 04	 add	 esp, 4
  00071	8b c6		 mov	 eax, esi
  00073	8b 4d f4	 mov	 ecx, DWORD PTR __$EHRec$[ebp]
  00076	64 89 0d 00 00
	00 00		 mov	 DWORD PTR fs:0, ecx
  0007d	59		 pop	 ecx
  0007e	5e		 pop	 esi
  0007f	8b e5		 mov	 esp, ebp
  00081	5d		 pop	 ebp
  00082	c2 04 00	 ret	 4
$LN3@scalar:
  00085	6a 1c		 push	 28			; 0000001cH
  00087	56		 push	 esi
  00088	e8 00 00 00 00	 call	 ?__global_delete@@YAXPAXI@Z ; __global_delete
  0008d	83 c4 08	 add	 esp, 8
$LN22@scalar:
  00090	8b c6		 mov	 eax, esi
  00092	8b 4d f4	 mov	 ecx, DWORD PTR __$EHRec$[ebp]
  00095	64 89 0d 00 00
	00 00		 mov	 DWORD PTR fs:0, ecx
  0009c	59		 pop	 ecx
  0009d	5e		 pop	 esi
  0009e	8b e5		 mov	 esp, ebp
  000a0	5d		 pop	 ebp
  000a1	c2 04 00	 ret	 4
  000a4	cc		 int	 3
  000a5	cc		 int	 3
  000a6	cc		 int	 3
  000a7	cc		 int	 3
  000a8	cc		 int	 3
_TEXT	ENDS
;	COMDAT text$x
text$x	SEGMENT
__ehhandler$??_G?$CList@PAVCItemLongData@@PAV1@@@UAEPAXI@Z:
  00000	90		 npad	 1
  00001	90		 npad	 1
  00002	8b 54 24 08	 mov	 edx, DWORD PTR [esp+8]
  00006	8d 42 0c	 lea	 eax, DWORD PTR [edx+12]
  00009	8b 4a f8	 mov	 ecx, DWORD PTR [edx-8]
  0000c	33 c8		 xor	 ecx, eax
  0000e	e8 00 00 00 00	 call	 @__security_check_cookie@4
  00013	b8 00 00 00 00	 mov	 eax, OFFSET __ehfuncinfo$??_G?$CList@PAVCItemLongData@@PAV1@@@UAEPAXI@Z
  00018	e9 00 00 00 00	 jmp	 ___CxxFrameHandler3
text$x	ENDS
??_G?$CList@PAVCItemLongData@@PAV1@@@UAEPAXI@Z ENDP	; CList<CItemLongData *,CItemLongData *>::`scalar deleting destructor'
; Function compile flags: /Ogtp
; File C:\Program Files (x86)\Microsoft Visual Studio\2019\Community\VC\Tools\MSVC\14.29.30133\atlmfc\include\afxtempl.h
; File C:\Program Files (x86)\Microsoft Visual Studio\2019\Community\VC\Tools\MSVC\14.29.30133\atlmfc\include\afx.inl
; File C:\Program Files (x86)\Microsoft Visual Studio\2019\Community\VC\Tools\MSVC\14.29.30133\atlmfc\include\afxtempl.h
; File C:\Program Files (x86)\Microsoft Visual Studio\2019\Community\VC\Tools\MSVC\14.29.30133\atlmfc\include\afx.inl
; File C:\Program Files (x86)\Microsoft Visual Studio\2019\Community\VC\Tools\MSVC\14.29.30133\atlmfc\include\afxtempl.h
; File C:\Program Files (x86)\Microsoft Visual Studio\2019\Community\VC\Tools\MSVC\14.29.30133\atlmfc\include\afx.inl
; File C:\Program Files (x86)\Microsoft Visual Studio\2019\Community\VC\Tools\MSVC\14.29.30133\atlmfc\include\afxtempl.h
; File C:\Program Files (x86)\Microsoft Visual Studio\2019\Community\VC\Tools\MSVC\14.29.30133\atlmfc\include\afx.inl
; File C:\Program Files (x86)\Microsoft Visual Studio\2019\Community\VC\Tools\MSVC\14.29.30133\atlmfc\include\afxtempl.h
; File C:\Program Files (x86)\Microsoft Visual Studio\2019\Community\VC\Tools\MSVC\14.29.30133\atlmfc\include\afx.inl
; File C:\Program Files (x86)\Microsoft Visual Studio\2019\Community\VC\Tools\MSVC\14.29.30133\atlmfc\include\afxtempl.h
; File C:\Program Files (x86)\Microsoft Visual Studio\2019\Community\VC\Tools\MSVC\14.29.30133\atlmfc\include\afx.inl
; File C:\Program Files (x86)\Microsoft Visual Studio\2019\Community\VC\Tools\MSVC\14.29.30133\atlmfc\include\afxtempl.h
;	COMDAT ?Serialize@?$CList@PAVCItemLongData@@PAV1@@@UAEXAAVCArchive@@@Z
_TEXT	SEGMENT
_nNewCount$1$ = -16					; size = 4
_newData$1 = -12					; size = 4
_pData$1$ = -8						; size = 4
_pData$1$ = -8						; size = 4
_pNode$1$ = -8						; size = 4
_nElementsLeft$1$ = -4					; size = 4
_this$1$ = -4						; size = 4
_ar$ = 8						; size = 4
?Serialize@?$CList@PAVCItemLongData@@PAV1@@@UAEXAAVCArchive@@@Z PROC ; CList<CItemLongData *,CItemLongData *>::Serialize, COMDAT
; _this$ = ecx

; 1169 : {

  00000	55		 push	 ebp
  00001	8b ec		 mov	 ebp, esp
  00003	83 ec 10	 sub	 esp, 16			; 00000010H
  00006	53		 push	 ebx
  00007	8b d9		 mov	 ebx, ecx
; File C:\Program Files (x86)\Microsoft Visual Studio\2019\Community\VC\Tools\MSVC\14.29.30133\atlmfc\include\afx.inl

; 212  : 	{ return (m_nMode & CArchive::load) == 0; }

  00009	8b 4d 08	 mov	 ecx, DWORD PTR _ar$[ebp]
; File C:\Program Files (x86)\Microsoft Visual Studio\2019\Community\VC\Tools\MSVC\14.29.30133\atlmfc\include\afxtempl.h

; 1169 : {

  0000c	56		 push	 esi
  0000d	57		 push	 edi
  0000e	89 5d fc	 mov	 DWORD PTR _this$1$[ebp], ebx
; File C:\Program Files (x86)\Microsoft Visual Studio\2019\Community\VC\Tools\MSVC\14.29.30133\atlmfc\include\afx.inl

; 212  : 	{ return (m_nMode & CArchive::load) == 0; }

  00011	8b 41 18	 mov	 eax, DWORD PTR [ecx+24]
  00014	f7 d0		 not	 eax
  00016	a8 01		 test	 al, 1
; File C:\Program Files (x86)\Microsoft Visual Studio\2019\Community\VC\Tools\MSVC\14.29.30133\atlmfc\include\afxtempl.h

; 1174 : 	if (ar.IsStoring())

  00018	0f 84 ae 00 00
	00		 je	 $LN7@Serialize

; 1175 : 	{
; 1176 : 		ar.WriteCount(m_nCount);

  0001e	ff 73 0c	 push	 DWORD PTR [ebx+12]
  00021	e8 00 00 00 00	 call	 ?WriteCount@CArchive@@QAEXK@Z ; CArchive::WriteCount

; 1177 : 		for (CNode* pNode = m_pNodeHead; pNode != NULL; pNode = pNode->pNext)

  00026	8b 43 04	 mov	 eax, DWORD PTR [ebx+4]
  00029	89 45 f8	 mov	 DWORD PTR _pNode$1$[ebp], eax
  0002c	85 c0		 test	 eax, eax
  0002e	0f 84 b9 01 00
	00		 je	 $LN86@Serialize
$LL4@Serialize:

; 1178 : 		{
; 1179 : 			ASSERT(AfxIsValidAddress(pNode, sizeof(CNode)));
; 1180 : 			TYPE* pData;
; 1181 : 			/*
; 1182 : 			 * in some cases the & operator might be overloaded, and we cannot use it to obtain
; 1183 : 			 * the address of a given object.  We then use the following trick to get the address
; 1184 : 			 */
; 1185 : 			pData = reinterpret_cast< TYPE* >( &reinterpret_cast< int& >( static_cast< TYPE& >( pNode->data ) ) );

  00034	8d 70 08	 lea	 esi, DWORD PTR [eax+8]

; 68   : 	ENSURE(nCount == 0 || pElements != NULL);

  00037	85 f6		 test	 esi, esi
  00039	0f 84 c0 01 00
	00		 je	 $LN76@Serialize
; File C:\Program Files (x86)\Microsoft Visual Studio\2019\Community\VC\Tools\MSVC\14.29.30133\atlmfc\include\afx.inl

; 212  : 	{ return (m_nMode & CArchive::load) == 0; }

  0003f	8b 4d 08	 mov	 ecx, DWORD PTR _ar$[ebp]
  00042	8b 41 18	 mov	 eax, DWORD PTR [ecx+24]
  00045	f7 d0		 not	 eax
  00047	a8 01		 test	 al, 1
; File C:\Program Files (x86)\Microsoft Visual Studio\2019\Community\VC\Tools\MSVC\14.29.30133\atlmfc\include\afxtempl.h

; 73   : 	if (ar.IsStoring())

  00049	74 33		 je	 SHORT $LN21@Serialize

; 74   : 	{
; 75   : 		TYPE* pData;
; 76   : 		UINT_PTR nElementsLeft;
; 77   : 
; 78   : 		nElementsLeft = nCount;

  0004b	b8 01 00 00 00	 mov	 eax, 1
  00050	89 45 fc	 mov	 DWORD PTR _nElementsLeft$1$[ebp], eax
$LL16@Serialize:

; 80   : 		while( nElementsLeft > 0 )
; 81   : 		{
; 82   : 			UINT nElementsToWrite;
; 83   : 
; 84   : 			nElementsToWrite = UINT(__min(nElementsLeft, INT_MAX/sizeof(TYPE)));

  00053	bb ff ff ff 1f	 mov	 ebx, 536870911		; 1fffffffH
  00058	3b c3		 cmp	 eax, ebx
  0005a	0f 42 d8	 cmovb	 ebx, eax

; 85   : 			ar.Write(pData, nElementsToWrite*sizeof(TYPE));

  0005d	8d 3c 9d 00 00
	00 00		 lea	 edi, DWORD PTR [ebx*4]
  00064	57		 push	 edi
  00065	56		 push	 esi
  00066	e8 00 00 00 00	 call	 ?Write@CArchive@@QAEXPBXI@Z ; CArchive::Write

; 86   : 			nElementsLeft -= nElementsToWrite;

  0006b	8b 45 fc	 mov	 eax, DWORD PTR _nElementsLeft$1$[ebp]

; 87   : 			pData += nElementsToWrite;

  0006e	03 f7		 add	 esi, edi
  00070	8b 4d 08	 mov	 ecx, DWORD PTR _ar$[ebp]
  00073	2b c3		 sub	 eax, ebx
  00075	89 45 fc	 mov	 DWORD PTR _nElementsLeft$1$[ebp], eax
  00078	85 c0		 test	 eax, eax
  0007a	75 d7		 jne	 SHORT $LL16@Serialize

; 88   : 		}
; 89   : 	}

  0007c	eb 35		 jmp	 SHORT $LN2@Serialize
$LN21@Serialize:

; 90   : 	else
; 91   : 	{
; 92   : 		TYPE* pData;
; 93   : 		UINT_PTR nElementsLeft;
; 94   : 
; 95   : 		nElementsLeft = nCount;

  0007e	bf 01 00 00 00	 mov	 edi, 1
$LL18@Serialize:

; 98   : 		{
; 99   : 			UINT nElementsToRead;
; 100  : 
; 101  : 			nElementsToRead = UINT(__min(nElementsLeft, INT_MAX/sizeof(TYPE)));

  00083	bb ff ff ff 1f	 mov	 ebx, 536870911		; 1fffffffH
  00088	3b fb		 cmp	 edi, ebx
  0008a	0f 42 df	 cmovb	 ebx, edi

; 102  : 			ar.EnsureRead(pData, nElementsToRead*sizeof(TYPE));

  0008d	8d 04 9d 00 00
	00 00		 lea	 eax, DWORD PTR [ebx*4]
; File C:\Program Files (x86)\Microsoft Visual Studio\2019\Community\VC\Tools\MSVC\14.29.30133\atlmfc\include\afx.inl

; 399  : 	UINT nRead=Read(lpBuf, nCount);

  00094	50		 push	 eax
  00095	56		 push	 esi
  00096	e8 00 00 00 00	 call	 ?Read@CArchive@@QAEIPAXI@Z ; CArchive::Read

; 400  : 	if(nRead!=nCount)

  0009b	8d 0c 9d 00 00
	00 00		 lea	 ecx, DWORD PTR [ebx*4]
  000a2	3b c1		 cmp	 eax, ecx
  000a4	0f 85 4c 01 00
	00		 jne	 $LN75@Serialize
; File C:\Program Files (x86)\Microsoft Visual Studio\2019\Community\VC\Tools\MSVC\14.29.30133\atlmfc\include\afxtempl.h

; 97   : 		while( nElementsLeft > 0 )

  000aa	03 f1		 add	 esi, ecx
  000ac	8b 4d 08	 mov	 ecx, DWORD PTR _ar$[ebp]

; 103  : 			nElementsLeft -= nElementsToRead;

  000af	2b fb		 sub	 edi, ebx
  000b1	75 d0		 jne	 SHORT $LL18@Serialize
$LN2@Serialize:

; 1177 : 		for (CNode* pNode = m_pNodeHead; pNode != NULL; pNode = pNode->pNext)

  000b3	8b 45 f8	 mov	 eax, DWORD PTR _pNode$1$[ebp]
  000b6	8b 00		 mov	 eax, DWORD PTR [eax]
  000b8	89 45 f8	 mov	 DWORD PTR _pNode$1$[ebp], eax
  000bb	85 c0		 test	 eax, eax
  000bd	0f 85 71 ff ff
	ff		 jne	 $LL4@Serialize

; 1197 : 		}
; 1198 : 	}
; 1199 : }

  000c3	5f		 pop	 edi
  000c4	5e		 pop	 esi
  000c5	5b		 pop	 ebx
  000c6	8b e5		 mov	 esp, ebp
  000c8	5d		 pop	 ebp
  000c9	c2 04 00	 ret	 4
$LN7@Serialize:

; 1186 : 			SerializeElements<TYPE>(ar, pData, 1);
; 1187 : 		}
; 1188 : 	}
; 1189 : 	else
; 1190 : 	{
; 1191 : 		DWORD_PTR nNewCount = ar.ReadCount();

  000cc	e8 00 00 00 00	 call	 ?ReadCount@CArchive@@QAEKXZ ; CArchive::ReadCount

; 1192 : 		while (nNewCount--)

  000d1	85 c0		 test	 eax, eax
  000d3	0f 84 14 01 00
	00		 je	 $LN86@Serialize
  000d9	0f 1f 80 00 00
	00 00		 npad	 7
$LL5@Serialize:
  000e0	48		 dec	 eax
  000e1	89 45 f0	 mov	 DWORD PTR _nNewCount$1$[ebp], eax
; File C:\Program Files (x86)\Microsoft Visual Studio\2019\Community\VC\Tools\MSVC\14.29.30133\atlmfc\include\afx.inl

; 212  : 	{ return (m_nMode & CArchive::load) == 0; }

  000e4	8b 45 08	 mov	 eax, DWORD PTR _ar$[ebp]
  000e7	8b 48 18	 mov	 ecx, DWORD PTR [eax+24]
  000ea	f7 d1		 not	 ecx
  000ec	f6 c1 01	 test	 cl, 1
; File C:\Program Files (x86)\Microsoft Visual Studio\2019\Community\VC\Tools\MSVC\14.29.30133\atlmfc\include\afxtempl.h

; 73   : 	if (ar.IsStoring())

  000ef	74 3d		 je	 SHORT $LN42@Serialize

; 79   : 		pData = pElements;

  000f1	8d 4d f4	 lea	 ecx, DWORD PTR _newData$1[ebp]
  000f4	bb 01 00 00 00	 mov	 ebx, 1
  000f9	89 4d f8	 mov	 DWORD PTR _pData$1$[ebp], ecx
  000fc	0f 1f 40 00	 npad	 4
$LL37@Serialize:

; 80   : 		while( nElementsLeft > 0 )
; 81   : 		{
; 82   : 			UINT nElementsToWrite;
; 83   : 
; 84   : 			nElementsToWrite = UINT(__min(nElementsLeft, INT_MAX/sizeof(TYPE)));

  00100	bf ff ff ff 1f	 mov	 edi, 536870911		; 1fffffffH
  00105	3b df		 cmp	 ebx, edi
  00107	0f 42 fb	 cmovb	 edi, ebx

; 85   : 			ar.Write(pData, nElementsToWrite*sizeof(TYPE));

  0010a	8d 34 bd 00 00
	00 00		 lea	 esi, DWORD PTR [edi*4]
  00111	56		 push	 esi
  00112	51		 push	 ecx
  00113	8b c8		 mov	 ecx, eax
  00115	e8 00 00 00 00	 call	 ?Write@CArchive@@QAEXPBXI@Z ; CArchive::Write

; 87   : 			pData += nElementsToWrite;

  0011a	8b 4d f8	 mov	 ecx, DWORD PTR _pData$1$[ebp]
  0011d	8b 45 08	 mov	 eax, DWORD PTR _ar$[ebp]
  00120	03 ce		 add	 ecx, esi
  00122	89 4d f8	 mov	 DWORD PTR _pData$1$[ebp], ecx
  00125	2b df		 sub	 ebx, edi
  00127	75 d7		 jne	 SHORT $LL37@Serialize

; 88   : 		}
; 89   : 	}

  00129	8b 5d fc	 mov	 ebx, DWORD PTR _this$1$[ebp]
  0012c	eb 4a		 jmp	 SHORT $LN40@Serialize
$LN42@Serialize:

; 96   : 		pData = pElements;

  0012e	8d 55 f4	 lea	 edx, DWORD PTR _newData$1[ebp]
  00131	be 01 00 00 00	 mov	 esi, 1
  00136	89 55 f8	 mov	 DWORD PTR _pData$1$[ebp], edx
  00139	0f 1f 80 00 00
	00 00		 npad	 7
$LL39@Serialize:

; 98   : 		{
; 99   : 			UINT nElementsToRead;
; 100  : 
; 101  : 			nElementsToRead = UINT(__min(nElementsLeft, INT_MAX/sizeof(TYPE)));

  00140	bf ff ff ff 1f	 mov	 edi, 536870911		; 1fffffffH
  00145	3b f7		 cmp	 esi, edi
  00147	0f 42 fe	 cmovb	 edi, esi

; 102  : 			ar.EnsureRead(pData, nElementsToRead*sizeof(TYPE));

  0014a	8d 0c bd 00 00
	00 00		 lea	 ecx, DWORD PTR [edi*4]
; File C:\Program Files (x86)\Microsoft Visual Studio\2019\Community\VC\Tools\MSVC\14.29.30133\atlmfc\include\afx.inl

; 399  : 	UINT nRead=Read(lpBuf, nCount);

  00151	51		 push	 ecx
  00152	52		 push	 edx
  00153	8b c8		 mov	 ecx, eax
  00155	e8 00 00 00 00	 call	 ?Read@CArchive@@QAEIPAXI@Z ; CArchive::Read

; 400  : 	if(nRead!=nCount)

  0015a	8d 0c bd 00 00
	00 00		 lea	 ecx, DWORD PTR [edi*4]
  00161	3b c1		 cmp	 eax, ecx
  00163	0f 85 8d 00 00
	00		 jne	 $LN75@Serialize
; File C:\Program Files (x86)\Microsoft Visual Studio\2019\Community\VC\Tools\MSVC\14.29.30133\atlmfc\include\afxtempl.h

; 97   : 		while( nElementsLeft > 0 )

  00169	8b 55 f8	 mov	 edx, DWORD PTR _pData$1$[ebp]
  0016c	8b 45 08	 mov	 eax, DWORD PTR _ar$[ebp]

; 104  : 			pData += nElementsToRead;

  0016f	03 d1		 add	 edx, ecx
  00171	89 55 f8	 mov	 DWORD PTR _pData$1$[ebp], edx
  00174	2b f7		 sub	 esi, edi
  00176	75 c8		 jne	 SHORT $LL39@Serialize
$LN40@Serialize:

; 902  : 	if (m_pNodeFree == NULL)

  00178	83 7b 10 00	 cmp	 DWORD PTR [ebx+16], 0

; 1193 : 		{
; 1194 : 			TYPE newData[1];
; 1195 : 			SerializeElements<TYPE>(ar, newData, 1);
; 1196 : 			AddTail(newData[0]);

  0017c	8b 75 f4	 mov	 esi, DWORD PTR _newData$1[ebp]

; 968  : 	CNode* pNewNode = NewNode(m_pNodeTail, NULL);

  0017f	8b 7b 08	 mov	 edi, DWORD PTR [ebx+8]

; 902  : 	if (m_pNodeFree == NULL)

  00182	75 32		 jne	 SHORT $LN63@Serialize

; 903  : 	{
; 904  : 		// add another block
; 905  : 		CPlex* pNewBlock = CPlex::Create(m_pBlocks, m_nBlockSize,

  00184	6a 0c		 push	 12			; 0000000cH
  00186	ff 73 18	 push	 DWORD PTR [ebx+24]
  00189	8d 43 14	 lea	 eax, DWORD PTR [ebx+20]
  0018c	50		 push	 eax
  0018d	e8 00 00 00 00	 call	 ?Create@CPlex@@SGPAU1@AAPAU1@II@Z ; CPlex::Create

; 906  : 				 sizeof(CNode));
; 907  : 
; 908  : 		// chain them into free list
; 909  : 		CNode* pNode = (CNode*) pNewBlock->data();
; 910  : 		// free in reverse order to make it easier to debug
; 911  : 		pNode += m_nBlockSize - 1;

  00192	8b 53 18	 mov	 edx, DWORD PTR [ebx+24]
  00195	83 c0 08	 add	 eax, 8
  00198	8d 4a ff	 lea	 ecx, DWORD PTR [edx-1]

; 912  : 		for (INT_PTR i = m_nBlockSize-1; i >= 0; i--, pNode--)

  0019b	83 c2 ff	 add	 edx, -1
  0019e	8d 0c 49	 lea	 ecx, DWORD PTR [ecx+ecx*2]
  001a1	8d 0c 88	 lea	 ecx, DWORD PTR [eax+ecx*4]
  001a4	78 10		 js	 SHORT $LN63@Serialize
$LL60@Serialize:

; 913  : 		{
; 914  : 			pNode->pNext = m_pNodeFree;

  001a6	8b 43 10	 mov	 eax, DWORD PTR [ebx+16]
  001a9	89 01		 mov	 DWORD PTR [ecx], eax

; 915  : 			m_pNodeFree = pNode;

  001ab	89 4b 10	 mov	 DWORD PTR [ebx+16], ecx
  001ae	83 e9 0c	 sub	 ecx, 12			; 0000000cH
  001b1	83 ea 01	 sub	 edx, 1
  001b4	79 f0		 jns	 SHORT $LL60@Serialize
$LN63@Serialize:

; 916  : 		}
; 917  : 	}
; 918  : 	ENSURE(m_pNodeFree != NULL);  // we must have something

  001b6	8b 4b 10	 mov	 ecx, DWORD PTR [ebx+16]
  001b9	85 c9		 test	 ecx, ecx
  001bb	74 42		 je	 SHORT $LN76@Serialize

; 919  : 
; 920  : 	CList::CNode* pNode = m_pNodeFree;
; 921  : 	m_pNodeFree = m_pNodeFree->pNext;

  001bd	8b 01		 mov	 eax, DWORD PTR [ecx]
  001bf	89 43 10	 mov	 DWORD PTR [ebx+16], eax

; 922  : 	pNode->pPrev = pPrev;

  001c2	89 79 04	 mov	 DWORD PTR [ecx+4], edi

; 923  : 	pNode->pNext = pNext;

  001c5	c7 01 00 00 00
	00		 mov	 DWORD PTR [ecx], 0

; 924  : 	m_nCount++;

  001cb	ff 43 0c	 inc	 DWORD PTR [ebx+12]

; 969  : 	pNewNode->data = newElement;

  001ce	89 71 08	 mov	 DWORD PTR [ecx+8], esi

; 970  : 	if (m_pNodeTail != NULL)

  001d1	8b 43 08	 mov	 eax, DWORD PTR [ebx+8]
  001d4	85 c0		 test	 eax, eax
  001d6	74 04		 je	 SHORT $LN54@Serialize

; 971  : 		m_pNodeTail->pNext = pNewNode;

  001d8	89 08		 mov	 DWORD PTR [eax], ecx
  001da	eb 03		 jmp	 SHORT $LN55@Serialize
$LN54@Serialize:

; 972  : 	else
; 973  : 		m_pNodeHead = pNewNode;

  001dc	89 4b 04	 mov	 DWORD PTR [ebx+4], ecx
$LN55@Serialize:

; 1192 : 		while (nNewCount--)

  001df	8b 45 f0	 mov	 eax, DWORD PTR _nNewCount$1$[ebp]

; 974  : 	m_pNodeTail = pNewNode;

  001e2	89 4b 08	 mov	 DWORD PTR [ebx+8], ecx

; 1192 : 		while (nNewCount--)

  001e5	85 c0		 test	 eax, eax
  001e7	0f 85 f3 fe ff
	ff		 jne	 $LL5@Serialize
$LN86@Serialize:
  001ed	5f		 pop	 edi

; 1197 : 		}
; 1198 : 	}
; 1199 : }

  001ee	5e		 pop	 esi
  001ef	5b		 pop	 ebx
  001f0	8b e5		 mov	 esp, ebp
  001f2	5d		 pop	 ebp
  001f3	c2 04 00	 ret	 4
$LN75@Serialize:
  001f6	6a 00		 push	 0
  001f8	6a 03		 push	 3
  001fa	e8 00 00 00 00	 call	 ?AfxThrowArchiveException@@YGXHPBD@Z ; AfxThrowArchiveException
$LN76@Serialize:
  001ff	e8 00 00 00 00	 call	 ?AfxThrowInvalidArgException@@YGXXZ ; AfxThrowInvalidArgException
$LN105@Serialize:
  00204	cc		 int	 3
?Serialize@?$CList@PAVCItemLongData@@PAV1@@@UAEXAAVCArchive@@@Z ENDP ; CList<CItemLongData *,CItemLongData *>::Serialize
_TEXT	ENDS
; Function compile flags: /Ogtp
; File C:\Program Files (x86)\Microsoft Visual Studio\2019\Community\VC\Tools\MSVC\14.29.30133\atlmfc\include\afxtempl.h
;	COMDAT ??1?$CList@PAVCItemLongData@@PAV1@@@UAE@XZ
_TEXT	SEGMENT
__$EHRec$ = -12						; size = 12
??1?$CList@PAVCItemLongData@@PAV1@@@UAE@XZ PROC		; CList<CItemLongData *,CItemLongData *>::~CList<CItemLongData *,CItemLongData *>, COMDAT
; _this$ = ecx

; 878  : {

  00000	55		 push	 ebp
  00001	8b ec		 mov	 ebp, esp
  00003	6a ff		 push	 -1
  00005	68 00 00 00 00	 push	 __ehhandler$??1?$CList@PAVCItemLongData@@PAV1@@@UAE@XZ
  0000a	64 a1 00 00 00
	00		 mov	 eax, DWORD PTR fs:0
  00010	50		 push	 eax
  00011	56		 push	 esi
  00012	a1 00 00 00 00	 mov	 eax, DWORD PTR ___security_cookie
  00017	33 c5		 xor	 eax, ebp
  00019	50		 push	 eax
  0001a	8d 45 f4	 lea	 eax, DWORD PTR __$EHRec$[ebp]
  0001d	64 a3 00 00 00
	00		 mov	 DWORD PTR fs:0, eax
  00023	8b f1		 mov	 esi, ecx

; 872  : 	m_pBlocks->FreeDataChain();

  00025	8b 4e 14	 mov	 ecx, DWORD PTR [esi+20]

; 878  : {

  00028	c7 06 00 00 00
	00		 mov	 DWORD PTR [esi], OFFSET ??_7?$CList@PAVCItemLongData@@PAV1@@@6B@

; 870  : 	m_nCount = 0;

  0002e	c7 46 0c 00 00
	00 00		 mov	 DWORD PTR [esi+12], 0

; 871  : 	m_pNodeHead = m_pNodeTail = m_pNodeFree = NULL;

  00035	c7 46 10 00 00
	00 00		 mov	 DWORD PTR [esi+16], 0
  0003c	c7 46 08 00 00
	00 00		 mov	 DWORD PTR [esi+8], 0
  00043	c7 46 04 00 00
	00 00		 mov	 DWORD PTR [esi+4], 0

; 872  : 	m_pBlocks->FreeDataChain();

  0004a	e8 00 00 00 00	 call	 ?FreeDataChain@CPlex@@QAEXXZ ; CPlex::FreeDataChain

; 873  : 	m_pBlocks = NULL;

  0004f	c7 46 14 00 00
	00 00		 mov	 DWORD PTR [esi+20], 0

; 879  : 	RemoveAll();
; 880  : 	ASSERT(m_nCount == 0);
; 881  : }

  00056	8b 4d f4	 mov	 ecx, DWORD PTR __$EHRec$[ebp]
  00059	64 89 0d 00 00
	00 00		 mov	 DWORD PTR fs:0, ecx
  00060	59		 pop	 ecx
  00061	5e		 pop	 esi
  00062	8b e5		 mov	 esp, ebp
  00064	5d		 pop	 ebp
  00065	c3		 ret	 0
  00066	cc		 int	 3
  00067	cc		 int	 3
  00068	cc		 int	 3
  00069	cc		 int	 3
  0006a	cc		 int	 3
_TEXT	ENDS
;	COMDAT text$x
text$x	SEGMENT
__ehhandler$??1?$CList@PAVCItemLongData@@PAV1@@@UAE@XZ:
  00000	90		 npad	 1
  00001	90		 npad	 1
  00002	8b 54 24 08	 mov	 edx, DWORD PTR [esp+8]
  00006	8d 42 0c	 lea	 eax, DWORD PTR [edx+12]
  00009	8b 4a f8	 mov	 ecx, DWORD PTR [edx-8]
  0000c	33 c8		 xor	 ecx, eax
  0000e	e8 00 00 00 00	 call	 @__security_check_cookie@4
  00013	b8 00 00 00 00	 mov	 eax, OFFSET __ehfuncinfo$??1?$CList@PAVCItemLongData@@PAV1@@@UAE@XZ
  00018	e9 00 00 00 00	 jmp	 ___CxxFrameHandler3
text$x	ENDS
??1?$CList@PAVCItemLongData@@PAV1@@@UAE@XZ ENDP		; CList<CItemLongData *,CItemLongData *>::~CList<CItemLongData *,CItemLongData *>
; Function compile flags: /Ogtp
; File C:\Program Files (x86)\Microsoft Visual Studio\2019\Community\VC\Tools\MSVC\14.29.30133\atlmfc\include\afxtempl.h
;	COMDAT ?NewNode@?$CList@PAVCItemLongData@@PAV1@@@IAEPAUCNode@1@PAU21@0@Z
_TEXT	SEGMENT
_pPrev$ = 8						; size = 4
_pNext$ = 12						; size = 4
?NewNode@?$CList@PAVCItemLongData@@PAV1@@@IAEPAUCNode@1@PAU21@0@Z PROC ; CList<CItemLongData *,CItemLongData *>::NewNode, COMDAT
; _this$ = ecx

; 901  : {

  00000	55		 push	 ebp
  00001	8b ec		 mov	 ebp, esp
  00003	56		 push	 esi
  00004	8b f1		 mov	 esi, ecx

; 902  : 	if (m_pNodeFree == NULL)

  00006	83 7e 10 00	 cmp	 DWORD PTR [esi+16], 0
  0000a	75 34		 jne	 SHORT $LN7@NewNode

; 903  : 	{
; 904  : 		// add another block
; 905  : 		CPlex* pNewBlock = CPlex::Create(m_pBlocks, m_nBlockSize,

  0000c	6a 0c		 push	 12			; 0000000cH
  0000e	ff 76 18	 push	 DWORD PTR [esi+24]
  00011	8d 46 14	 lea	 eax, DWORD PTR [esi+20]
  00014	50		 push	 eax
  00015	e8 00 00 00 00	 call	 ?Create@CPlex@@SGPAU1@AAPAU1@II@Z ; CPlex::Create

; 906  : 				 sizeof(CNode));
; 907  : 
; 908  : 		// chain them into free list
; 909  : 		CNode* pNode = (CNode*) pNewBlock->data();
; 910  : 		// free in reverse order to make it easier to debug
; 911  : 		pNode += m_nBlockSize - 1;

  0001a	8b 56 18	 mov	 edx, DWORD PTR [esi+24]
  0001d	83 c0 08	 add	 eax, 8
  00020	8d 0c 52	 lea	 ecx, DWORD PTR [edx+edx*2]
  00023	8d 04 88	 lea	 eax, DWORD PTR [eax+ecx*4]
  00026	83 c0 f4	 add	 eax, -12		; fffffff4H

; 912  : 		for (INT_PTR i = m_nBlockSize-1; i >= 0; i--, pNode--)

  00029	83 c2 ff	 add	 edx, -1
  0002c	78 12		 js	 SHORT $LN7@NewNode
  0002e	66 90		 npad	 2
$LL4@NewNode:

; 913  : 		{
; 914  : 			pNode->pNext = m_pNodeFree;

  00030	8b 4e 10	 mov	 ecx, DWORD PTR [esi+16]
  00033	89 08		 mov	 DWORD PTR [eax], ecx

; 915  : 			m_pNodeFree = pNode;

  00035	89 46 10	 mov	 DWORD PTR [esi+16], eax
  00038	83 e8 0c	 sub	 eax, 12			; 0000000cH
  0003b	83 ea 01	 sub	 edx, 1
  0003e	79 f0		 jns	 SHORT $LL4@NewNode
$LN7@NewNode:

; 916  : 		}
; 917  : 	}
; 918  : 	ENSURE(m_pNodeFree != NULL);  // we must have something

  00040	8b 46 10	 mov	 eax, DWORD PTR [esi+16]
  00043	85 c0		 test	 eax, eax
  00045	74 18		 je	 SHORT $LN17@NewNode

; 919  : 
; 920  : 	CList::CNode* pNode = m_pNodeFree;
; 921  : 	m_pNodeFree = m_pNodeFree->pNext;

  00047	8b 08		 mov	 ecx, DWORD PTR [eax]
  00049	89 4e 10	 mov	 DWORD PTR [esi+16], ecx

; 922  : 	pNode->pPrev = pPrev;

  0004c	8b 4d 08	 mov	 ecx, DWORD PTR _pPrev$[ebp]
  0004f	89 48 04	 mov	 DWORD PTR [eax+4], ecx

; 923  : 	pNode->pNext = pNext;

  00052	8b 4d 0c	 mov	 ecx, DWORD PTR _pNext$[ebp]
  00055	89 08		 mov	 DWORD PTR [eax], ecx

; 924  : 	m_nCount++;

  00057	ff 46 0c	 inc	 DWORD PTR [esi+12]

; 925  : 	ASSERT(m_nCount > 0);  // make sure we don't overflow
; 926  : 
; 927  : #pragma push_macro("new")
; 928  : #undef new
; 929  : 	::new( (void*)( &pNode->data ) ) TYPE;
; 930  : #pragma pop_macro("new")
; 931  : 	return pNode;

  0005a	5e		 pop	 esi

; 932  : }

  0005b	5d		 pop	 ebp
  0005c	c2 08 00	 ret	 8
$LN17@NewNode:

; 916  : 		}
; 917  : 	}
; 918  : 	ENSURE(m_pNodeFree != NULL);  // we must have something

  0005f	e8 00 00 00 00	 call	 ?AfxThrowInvalidArgException@@YGXXZ ; AfxThrowInvalidArgException
$LN15@NewNode:
  00064	cc		 int	 3
?NewNode@?$CList@PAVCItemLongData@@PAV1@@@IAEPAUCNode@1@PAU21@0@Z ENDP ; CList<CItemLongData *,CItemLongData *>::NewNode
_TEXT	ENDS
; Function compile flags: /Ogtp
; File C:\Program Files (x86)\Microsoft Visual Studio\2019\Community\VC\Tools\MSVC\14.29.30133\atlmfc\include\afxtempl.h
;	COMDAT ?RemoveAll@?$CList@PAVCItemLongData@@PAV1@@@QAEXXZ
_TEXT	SEGMENT
?RemoveAll@?$CList@PAVCItemLongData@@PAV1@@@QAEXXZ PROC	; CList<CItemLongData *,CItemLongData *>::RemoveAll, COMDAT
; _this$ = ecx

; 862  : {

  00000	56		 push	 esi
  00001	8b f1		 mov	 esi, ecx

; 863  : 	ASSERT_VALID(this);
; 864  : 
; 865  : 	// destroy elements
; 866  : 	CNode* pNode;
; 867  : 	for (pNode = m_pNodeHead; pNode != NULL; pNode = pNode->pNext)
; 868  : 		pNode->data.~TYPE();
; 869  : 
; 870  : 	m_nCount = 0;
; 871  : 	m_pNodeHead = m_pNodeTail = m_pNodeFree = NULL;
; 872  : 	m_pBlocks->FreeDataChain();

  00003	8b 4e 14	 mov	 ecx, DWORD PTR [esi+20]
  00006	c7 46 0c 00 00
	00 00		 mov	 DWORD PTR [esi+12], 0
  0000d	c7 46 10 00 00
	00 00		 mov	 DWORD PTR [esi+16], 0
  00014	c7 46 08 00 00
	00 00		 mov	 DWORD PTR [esi+8], 0
  0001b	c7 46 04 00 00
	00 00		 mov	 DWORD PTR [esi+4], 0
  00022	e8 00 00 00 00	 call	 ?FreeDataChain@CPlex@@QAEXXZ ; CPlex::FreeDataChain

; 873  : 	m_pBlocks = NULL;

  00027	c7 46 14 00 00
	00 00		 mov	 DWORD PTR [esi+20], 0
  0002e	5e		 pop	 esi

; 874  : }

  0002f	c3		 ret	 0
?RemoveAll@?$CList@PAVCItemLongData@@PAV1@@@QAEXXZ ENDP	; CList<CItemLongData *,CItemLongData *>::RemoveAll
_TEXT	ENDS
; Function compile flags: /Ogtp
; File C:\Program Files (x86)\Microsoft Visual Studio\2019\Community\VC\Tools\MSVC\14.29.30133\atlmfc\include\afxtempl.h
;	COMDAT ?AddTail@?$CList@PAVCItemLongData@@PAV1@@@QAEPAU__POSITION@@PAVCItemLongData@@@Z
_TEXT	SEGMENT
_newElement$ = 8					; size = 4
?AddTail@?$CList@PAVCItemLongData@@PAV1@@@QAEPAU__POSITION@@PAVCItemLongData@@@Z PROC ; CList<CItemLongData *,CItemLongData *>::AddTail, COMDAT
; _this$ = ecx

; 965  : {

  00000	55		 push	 ebp
  00001	8b ec		 mov	 ebp, esp
  00003	56		 push	 esi
  00004	8b f1		 mov	 esi, ecx
  00006	57		 push	 edi

; 902  : 	if (m_pNodeFree == NULL)

  00007	83 7e 10 00	 cmp	 DWORD PTR [esi+16], 0

; 966  : 	ASSERT_VALID(this);
; 967  : 
; 968  : 	CNode* pNewNode = NewNode(m_pNodeTail, NULL);

  0000b	8b 7e 08	 mov	 edi, DWORD PTR [esi+8]

; 902  : 	if (m_pNodeFree == NULL)

  0000e	75 32		 jne	 SHORT $LN11@AddTail

; 903  : 	{
; 904  : 		// add another block
; 905  : 		CPlex* pNewBlock = CPlex::Create(m_pBlocks, m_nBlockSize,

  00010	6a 0c		 push	 12			; 0000000cH
  00012	ff 76 18	 push	 DWORD PTR [esi+24]
  00015	8d 46 14	 lea	 eax, DWORD PTR [esi+20]
  00018	50		 push	 eax
  00019	e8 00 00 00 00	 call	 ?Create@CPlex@@SGPAU1@AAPAU1@II@Z ; CPlex::Create

; 906  : 				 sizeof(CNode));
; 907  : 
; 908  : 		// chain them into free list
; 909  : 		CNode* pNode = (CNode*) pNewBlock->data();
; 910  : 		// free in reverse order to make it easier to debug
; 911  : 		pNode += m_nBlockSize - 1;

  0001e	8b 56 18	 mov	 edx, DWORD PTR [esi+24]
  00021	83 c0 08	 add	 eax, 8
  00024	8d 4a ff	 lea	 ecx, DWORD PTR [edx-1]

; 912  : 		for (INT_PTR i = m_nBlockSize-1; i >= 0; i--, pNode--)

  00027	83 c2 ff	 add	 edx, -1
  0002a	8d 0c 49	 lea	 ecx, DWORD PTR [ecx+ecx*2]
  0002d	8d 0c 88	 lea	 ecx, DWORD PTR [eax+ecx*4]
  00030	78 10		 js	 SHORT $LN11@AddTail
$LL8@AddTail:

; 913  : 		{
; 914  : 			pNode->pNext = m_pNodeFree;

  00032	8b 46 10	 mov	 eax, DWORD PTR [esi+16]
  00035	89 01		 mov	 DWORD PTR [ecx], eax

; 915  : 			m_pNodeFree = pNode;

  00037	89 4e 10	 mov	 DWORD PTR [esi+16], ecx
  0003a	83 e9 0c	 sub	 ecx, 12			; 0000000cH
  0003d	83 ea 01	 sub	 edx, 1
  00040	79 f0		 jns	 SHORT $LL8@AddTail
$LN11@AddTail:

; 916  : 		}
; 917  : 	}
; 918  : 	ENSURE(m_pNodeFree != NULL);  // we must have something

  00042	8b 4e 10	 mov	 ecx, DWORD PTR [esi+16]
  00045	85 c9		 test	 ecx, ecx
  00047	74 39		 je	 SHORT $LN22@AddTail

; 919  : 
; 920  : 	CList::CNode* pNode = m_pNodeFree;
; 921  : 	m_pNodeFree = m_pNodeFree->pNext;

  00049	8b 01		 mov	 eax, DWORD PTR [ecx]
  0004b	89 46 10	 mov	 DWORD PTR [esi+16], eax

; 969  : 	pNewNode->data = newElement;

  0004e	8b 45 08	 mov	 eax, DWORD PTR _newElement$[ebp]

; 922  : 	pNode->pPrev = pPrev;

  00051	89 79 04	 mov	 DWORD PTR [ecx+4], edi

; 923  : 	pNode->pNext = pNext;

  00054	c7 01 00 00 00
	00		 mov	 DWORD PTR [ecx], 0

; 924  : 	m_nCount++;

  0005a	ff 46 0c	 inc	 DWORD PTR [esi+12]

; 969  : 	pNewNode->data = newElement;

  0005d	89 41 08	 mov	 DWORD PTR [ecx+8], eax

; 970  : 	if (m_pNodeTail != NULL)

  00060	8b 46 08	 mov	 eax, DWORD PTR [esi+8]
  00063	85 c0		 test	 eax, eax
  00065	74 0d		 je	 SHORT $LN2@AddTail

; 971  : 		m_pNodeTail->pNext = pNewNode;

  00067	89 08		 mov	 DWORD PTR [eax], ecx

; 972  : 	else
; 973  : 		m_pNodeHead = pNewNode;
; 974  : 	m_pNodeTail = pNewNode;
; 975  : 	return (POSITION) pNewNode;

  00069	8b c1		 mov	 eax, ecx
  0006b	5f		 pop	 edi
  0006c	89 4e 08	 mov	 DWORD PTR [esi+8], ecx
  0006f	5e		 pop	 esi

; 976  : }

  00070	5d		 pop	 ebp
  00071	c2 04 00	 ret	 4
$LN2@AddTail:

; 972  : 	else
; 973  : 		m_pNodeHead = pNewNode;
; 974  : 	m_pNodeTail = pNewNode;
; 975  : 	return (POSITION) pNewNode;

  00074	5f		 pop	 edi
  00075	89 4e 04	 mov	 DWORD PTR [esi+4], ecx
  00078	8b c1		 mov	 eax, ecx
  0007a	89 4e 08	 mov	 DWORD PTR [esi+8], ecx
  0007d	5e		 pop	 esi

; 976  : }

  0007e	5d		 pop	 ebp
  0007f	c2 04 00	 ret	 4
$LN22@AddTail:

; 918  : 	ENSURE(m_pNodeFree != NULL);  // we must have something

  00082	e8 00 00 00 00	 call	 ?AfxThrowInvalidArgException@@YGXXZ ; AfxThrowInvalidArgException
$LN20@AddTail:
  00087	cc		 int	 3
?AddTail@?$CList@PAVCItemLongData@@PAV1@@@QAEPAU__POSITION@@PAVCItemLongData@@@Z ENDP ; CList<CItemLongData *,CItemLongData *>::AddTail
_TEXT	ENDS
; Function compile flags: /Ogtp
; File C:\Program Files (x86)\Microsoft Visual Studio\2019\Community\VC\Tools\MSVC\14.29.30133\atlmfc\include\afxtempl.h
;	COMDAT ??0?$CList@PAVCItemLongData@@PAV1@@@QAE@H@Z
_TEXT	SEGMENT
_nBlockSize$ = 8					; size = 4
??0?$CList@PAVCItemLongData@@PAV1@@@QAE@H@Z PROC	; CList<CItemLongData *,CItemLongData *>::CList<CItemLongData *,CItemLongData *>, COMDAT
; _this$ = ecx

; 851  : {

  00000	55		 push	 ebp
  00001	8b ec		 mov	 ebp, esp

; 852  : 	ASSERT(nBlockSize > 0);
; 853  : 
; 854  : 	m_nCount = 0;
; 855  : 	m_pNodeHead = m_pNodeTail = m_pNodeFree = NULL;
; 856  : 	m_pBlocks = NULL;
; 857  : 	m_nBlockSize = nBlockSize;

  00003	8b 45 08	 mov	 eax, DWORD PTR _nBlockSize$[ebp]
  00006	89 41 18	 mov	 DWORD PTR [ecx+24], eax

; 858  : }

  00009	8b c1		 mov	 eax, ecx
  0000b	c7 01 00 00 00
	00		 mov	 DWORD PTR [ecx], OFFSET ??_7?$CList@PAVCItemLongData@@PAV1@@@6B@
  00011	c7 41 0c 00 00
	00 00		 mov	 DWORD PTR [ecx+12], 0
  00018	c7 41 10 00 00
	00 00		 mov	 DWORD PTR [ecx+16], 0
  0001f	c7 41 08 00 00
	00 00		 mov	 DWORD PTR [ecx+8], 0
  00026	c7 41 04 00 00
	00 00		 mov	 DWORD PTR [ecx+4], 0
  0002d	c7 41 14 00 00
	00 00		 mov	 DWORD PTR [ecx+20], 0
  00034	5d		 pop	 ebp
  00035	c2 04 00	 ret	 4
??0?$CList@PAVCItemLongData@@PAV1@@@QAE@H@Z ENDP	; CList<CItemLongData *,CItemLongData *>::CList<CItemLongData *,CItemLongData *>
_TEXT	ENDS
; Function compile flags: /Ogtp
; File D:\git\src\IBK\IBK_DRFN\ProjSrc\SrcDrfn\Chart\MULTICHART\TabCodeSearch.cpp
;	COMDAT ?OnRmsgWMSize@CTabCodeSearch@@IAEJIJ@Z
_TEXT	SEGMENT
_wp$ = 8						; size = 4
_lp$ = 12						; size = 4
?OnRmsgWMSize@CTabCodeSearch@@IAEJIJ@Z PROC		; CTabCodeSearch::OnRmsgWMSize, COMDAT
; _this$ = ecx

; 326  : 	RecalcLayout();

  00000	e8 00 00 00 00	 call	 ?RecalcLayout@CTabCodeSearch@@AAEXXZ ; CTabCodeSearch::RecalcLayout

; 327  : 	return 0L;

  00005	33 c0		 xor	 eax, eax

; 328  : }

  00007	c2 08 00	 ret	 8
?OnRmsgWMSize@CTabCodeSearch@@IAEJIJ@Z ENDP		; CTabCodeSearch::OnRmsgWMSize
_TEXT	ENDS
; Function compile flags: /Ogtp
; File D:\git\src\IBK\IBK_DRFN\ProjSrc\SrcDrfn\Chart\MULTICHART\TabCodeSearch.cpp
;	COMDAT ?OnRmsgTabCodeSearch@CTabCodeSearch@@IAEJIJ@Z
_TEXT	SEGMENT
_wp$ = 8						; size = 4
_lp$ = 12						; size = 4
?OnRmsgTabCodeSearch@CTabCodeSearch@@IAEJIJ@Z PROC	; CTabCodeSearch::OnRmsgTabCodeSearch, COMDAT
; _this$ = ecx

; 3248 : {

  00000	55		 push	 ebp
  00001	8b ec		 mov	 ebp, esp

; 3249 : 	if(wp==10)

  00003	83 7d 08 0a	 cmp	 DWORD PTR _wp$[ebp], 10	; 0000000aH
  00007	75 0e		 jne	 SHORT $LN6@OnRmsgTabC

; 3243 : 	return m_ctrlOutBar.SetSelFolder(szFolderName);

  00009	ff 75 0c	 push	 DWORD PTR _lp$[ebp]
  0000c	81 c1 48 0f 00
	00		 add	 ecx, 3912		; 00000f48H
  00012	e8 00 00 00 00	 call	 ?SetSelFolder@CGfxOutBarCtrl@@QAEHPBD@Z ; CGfxOutBarCtrl::SetSelFolder
$LN6@OnRmsgTabC:

; 3250 : 	{
; 3251 : 		SetSelFolder((LPCSTR)lp);
; 3252 : 	}
; 3253 : 	return 0L;
; 3254 : }

  00017	33 c0		 xor	 eax, eax
  00019	5d		 pop	 ebp
  0001a	c2 08 00	 ret	 8
?OnRmsgTabCodeSearch@CTabCodeSearch@@IAEJIJ@Z ENDP	; CTabCodeSearch::OnRmsgTabCodeSearch
_TEXT	ENDS
; Function compile flags: /Ogtp
; File D:\git\src\IBK\IBK_DRFN\ProjSrc\SrcDrfn\Chart\MULTICHART\TabCodeSearch.cpp
;	COMDAT ?OnOutBarNotify@CTabCodeSearch@@IAEJIJ@Z
_TEXT	SEGMENT
_wParam$ = 8						; size = 4
_lParam$ = 12						; size = 4
?OnOutBarNotify@CTabCodeSearch@@IAEJIJ@Z PROC		; CTabCodeSearch::OnOutBarNotify, COMDAT
; _this$ = ecx

; 2507 : {

  00000	55		 push	 ebp
  00001	8b ec		 mov	 ebp, esp

; 2508 : 	if (wParam==NM_FOLDERCHANGE)

  00003	83 7d 08 05	 cmp	 DWORD PTR _wParam$[ebp], 5
  00007	75 14		 jne	 SHORT $LN4@OnOutBarNo

; 2509 : 		fnFolderChange(((CStdDialog*)m_pMultiChartWnd)->m_nChartType, (int)lParam);

  00009	8b 81 c0 00 00
	00		 mov	 eax, DWORD PTR [ecx+192]
  0000f	ff 75 0c	 push	 DWORD PTR _lParam$[ebp]
  00012	ff b0 c4 07 00
	00		 push	 DWORD PTR [eax+1988]
  00018	e8 00 00 00 00	 call	 ?fnFolderChange@CTabCodeSearch@@QAEXHH@Z ; CTabCodeSearch::fnFolderChange
$LN4@OnOutBarNo:

; 2510 : 
; 2511 : 	return 0L;
; 2512 : }

  0001d	33 c0		 xor	 eax, eax
  0001f	5d		 pop	 ebp
  00020	c2 08 00	 ret	 8
?OnOutBarNotify@CTabCodeSearch@@IAEJIJ@Z ENDP		; CTabCodeSearch::OnOutBarNotify
_TEXT	ENDS
; Function compile flags: /Ogtp
; File D:\git\src\IBK\IBK_DRFN\ProjSrc\SrcDrfn\Chart\MULTICHART\TabCodeSearch.cpp
;	COMDAT ?OnLvnItemchangedListcode@CTabCodeSearch@@IAEXPAUtagNMHDR@@PAJ@Z
_TEXT	SEGMENT
_pNMHDR$ = 8						; size = 4
_pResult$ = 12						; size = 4
?OnLvnItemchangedListcode@CTabCodeSearch@@IAEXPAUtagNMHDR@@PAJ@Z PROC ; CTabCodeSearch::OnLvnItemchangedListcode, COMDAT
; _this$ = ecx

; 2410 : {

  00000	55		 push	 ebp
  00001	8b ec		 mov	 ebp, esp

; 2411 : 	LPNMLISTVIEW pNMLV = reinterpret_cast<LPNMLISTVIEW>(pNMHDR);
; 2412 : 	// TODO:      .
; 2413 : 	*pResult = 0;

  00003	8b 45 0c	 mov	 eax, DWORD PTR _pResult$[ebp]
  00006	c7 00 00 00 00
	00		 mov	 DWORD PTR [eax], 0

; 2414 : }

  0000c	5d		 pop	 ebp
  0000d	c2 08 00	 ret	 8
?OnLvnItemchangedListcode@CTabCodeSearch@@IAEXPAUtagNMHDR@@PAJ@Z ENDP ; CTabCodeSearch::OnLvnItemchangedListcode
_TEXT	ENDS
; Function compile flags: /Ogtp
; File D:\git\src\IBK\IBK_DRFN\ProjSrc\SrcDrfn\Chart\MULTICHART\TabCodeSearch.cpp
; File C:\Program Files (x86)\Microsoft Visual Studio\2019\Community\VC\Tools\MSVC\14.29.30133\atlmfc\include\afxwin2.inl
; File D:\git\src\IBK\IBK_DRFN\ProjSrc\SrcDrfn\Chart\MULTICHART\TabCodeSearch.cpp
; File C:\Program Files (x86)\Microsoft Visual Studio\2019\Community\VC\Tools\MSVC\14.29.30133\atlmfc\include\afxwin2.inl
; File D:\git\src\IBK\IBK_DRFN\ProjSrc\SrcDrfn\Chart\MULTICHART\TabCodeSearch.cpp
; File C:\Program Files (x86)\Microsoft Visual Studio\2019\Community\VC\Tools\MSVC\14.29.30133\atlmfc\include\afxwin2.inl
; File D:\git\src\IBK\IBK_DRFN\ProjSrc\SrcDrfn\Chart\MULTICHART\TabCodeSearch.cpp
; File C:\Program Files (x86)\Microsoft Visual Studio\2019\Community\VC\Tools\MSVC\14.29.30133\atlmfc\include\afxwin2.inl
; File D:\git\src\IBK\IBK_DRFN\ProjSrc\SrcDrfn\Chart\MULTICHART\TabCodeSearch.cpp
; File C:\Program Files (x86)\Microsoft Visual Studio\2019\Community\VC\Tools\MSVC\14.29.30133\atlmfc\include\afxwin2.inl
; File D:\git\src\IBK\IBK_DRFN\ProjSrc\SrcDrfn\Chart\MULTICHART\TabCodeSearch.cpp
; File C:\Program Files (x86)\Microsoft Visual Studio\2019\Community\VC\Tools\MSVC\14.29.30133\atlmfc\include\afxwin2.inl
; File D:\git\src\IBK\IBK_DRFN\ProjSrc\SrcDrfn\Chart\MULTICHART\TabCodeSearch.cpp
; File C:\Program Files (x86)\Microsoft Visual Studio\2019\Community\VC\Tools\MSVC\14.29.30133\atlmfc\include\afxwin2.inl
; File D:\git\src\IBK\IBK_DRFN\ProjSrc\SrcDrfn\Chart\MULTICHART\TabCodeSearch.cpp
; File C:\Program Files (x86)\Microsoft Visual Studio\2019\Community\VC\Tools\MSVC\14.29.30133\atlmfc\include\afxwin2.inl
; File D:\git\src\IBK\IBK_DRFN\ProjSrc\SrcDrfn\Chart\MULTICHART\TabCodeSearch.cpp
; File C:\Program Files (x86)\Microsoft Visual Studio\2019\Community\VC\Tools\MSVC\14.29.30133\atlmfc\include\afxwin2.inl
; File D:\git\src\IBK\IBK_DRFN\ProjSrc\SrcDrfn\Chart\MULTICHART\TabCodeSearch.cpp
; File C:\Program Files (x86)\Microsoft Visual Studio\2019\Community\VC\Tools\MSVC\14.29.30133\atlmfc\include\afxwin2.inl
; File D:\git\src\IBK\IBK_DRFN\ProjSrc\SrcDrfn\Chart\MULTICHART\TabCodeSearch.cpp
;	COMDAT ?OnBnClickedBtplay@CTabCodeSearch@@IAEXXZ
_TEXT	SEGMENT
?OnBnClickedBtplay@CTabCodeSearch@@IAEXXZ PROC		; CTabCodeSearch::OnBnClickedBtplay, COMDAT
; _this$ = ecx

; 2215 : {

  00000	55		 push	 ebp
  00001	8b ec		 mov	 ebp, esp
  00003	51		 push	 ecx
  00004	53		 push	 ebx

; 2216 : 	if(m_bPlay)		 

  00005	8b 1d 00 00 00
	00		 mov	 ebx, DWORD PTR __imp__SendMessageA@16
  0000b	56		 push	 esi
  0000c	57		 push	 edi
  0000d	8b f9		 mov	 edi, ecx
  0000f	83 bf 80 0e 00
	00 00		 cmp	 DWORD PTR [edi+3712], 0
  00016	74 66		 je	 SHORT $LN2@OnBnClicke
; File C:\Program Files (x86)\Microsoft Visual Studio\2019\Community\VC\Tools\MSVC\14.29.30133\atlmfc\include\afxwin2.inl

; 155  : 	{ ASSERT(::IsWindow(m_hWnd)); return ::KillTimer(m_hWnd, nIDEvent); }

  00018	6a 04		 push	 4
  0001a	ff 77 20	 push	 DWORD PTR [edi+32]
  0001d	ff 15 00 00 00
	00		 call	 DWORD PTR __imp__KillTimer@8
; File D:\git\src\IBK\IBK_DRFN\ProjSrc\SrcDrfn\Chart\MULTICHART\TabCodeSearch.cpp

; 2220 : 		m_btPlay.FP_vSetImage(m_pIL_W20H20, 68, 70);

  00023	6a ff		 push	 -1
  00025	6a ff		 push	 -1
  00027	6a 00		 push	 0
  00029	51		 push	 ecx
  0002a	8b cc		 mov	 ecx, esp
  0002c	68 00 00 00 00	 push	 OFFSET ??_C@_00CNPNBAHC@@
  00031	ff 15 00 00 00
	00		 call	 DWORD PTR __imp_??0?$CStringT@DV?$StrTraitMFC_DLL@DV?$ChTraitsCRT@D@ATL@@@@@ATL@@QAE@PBD@Z
  00037	6a 00		 push	 0
  00039	6a 46		 push	 70			; 00000046H
  0003b	6a 44		 push	 68			; 00000044H
  0003d	ff b7 a8 00 00
	00		 push	 DWORD PTR [edi+168]
  00043	8d 8f b0 09 00
	00		 lea	 ecx, DWORD PTR [edi+2480]
  00049	e8 00 00 00 00	 call	 ?FP_vSetImage@CILButton@@QAEXPAVCImageList@@HHHV?$CStringT@DV?$StrTraitMFC_DLL@DV?$ChTraitsCRT@D@ATL@@@@@ATL@@HHH@Z ; CILButton::FP_vSetImage

; 2221 : 		m_btPlay.FP_vSetToolTipText("");

  0004e	51		 push	 ecx
  0004f	8b cc		 mov	 ecx, esp
  00051	68 00 00 00 00	 push	 OFFSET ??_C@_04PDHJBHLJ@?$MA?g?$LL?$PN@
  00056	ff 15 00 00 00
	00		 call	 DWORD PTR __imp_??0?$CStringT@DV?$StrTraitMFC_DLL@DV?$ChTraitsCRT@D@ATL@@@@@ATL@@QAE@PBD@Z
  0005c	8d 8f b0 09 00
	00		 lea	 ecx, DWORD PTR [edi+2480]
  00062	e8 00 00 00 00	 call	 ?FP_vSetToolTipText@CILButton@@QAEXV?$CStringT@DV?$StrTraitMFC_DLL@DV?$ChTraitsCRT@D@ATL@@@@@ATL@@@Z ; CILButton::FP_vSetToolTipText
; File C:\Program Files (x86)\Microsoft Visual Studio\2019\Community\VC\Tools\MSVC\14.29.30133\atlmfc\include\afxwin2.inl

; 114  : 	{ ASSERT(::IsWindow(m_hWnd)); ::InvalidateRect(m_hWnd, NULL, bErase); }

  00067	6a 01		 push	 1
  00069	6a 00		 push	 0
  0006b	ff b7 d0 09 00
	00		 push	 DWORD PTR [edi+2512]
  00071	ff 15 00 00 00
	00		 call	 DWORD PTR __imp__InvalidateRect@12
; File D:\git\src\IBK\IBK_DRFN\ProjSrc\SrcDrfn\Chart\MULTICHART\TabCodeSearch.cpp

; 2223 : 		m_bPlay = FALSE;

  00077	33 c0		 xor	 eax, eax

; 2224 : 	}

  00079	e9 1a 01 00 00	 jmp	 $LN3@OnBnClicke
$LN2@OnBnClicke:

; 2228 : 		if(m_pChartMng->SendMessage(RMSG_GETINFO, 1, 0) != 0)	//SCROLL_STOP

  0007e	8b 87 c4 00 00
	00		 mov	 eax, DWORD PTR [edi+196]
; File C:\Program Files (x86)\Microsoft Visual Studio\2019\Community\VC\Tools\MSVC\14.29.30133\atlmfc\include\afxwin2.inl

; 32   : 	{ ASSERT(::IsWindow(m_hWnd)); return ::SendMessage(m_hWnd, message, wParam, lParam); }

  00084	6a 00		 push	 0
  00086	6a 01		 push	 1
  00088	ff 35 00 00 00
	00		 push	 DWORD PTR ?RMSG_GETINFO@@3IB
  0008e	ff 70 20	 push	 DWORD PTR [eax+32]
  00091	ff d3		 call	 ebx
; File D:\git\src\IBK\IBK_DRFN\ProjSrc\SrcDrfn\Chart\MULTICHART\TabCodeSearch.cpp

; 2228 : 		if(m_pChartMng->SendMessage(RMSG_GETINFO, 1, 0) != 0)	//SCROLL_STOP

  00093	6a 00		 push	 0
  00095	6a 00		 push	 0
  00097	85 c0		 test	 eax, eax
  00099	74 11		 je	 SHORT $LN4@OnBnClicke

; 2229 : 		{
; 2230 : 			AfxMessageBox("  .");

  0009b	68 00 00 00 00	 push	 OFFSET ??_C@_0CA@LCGNJNDB@?B?w?F?$KO?$LN?$LK?E?$KJ?$LH?Q?5?$LB?b?$LE?I?$MA?L?5?$LF?$LP?$MA?$NL?A?$NP?$MA?T?$LE?O?$LE?Y?4@
  000a0	e8 00 00 00 00	 call	 ?AfxMessageBox@@YGHPBDII@Z ; AfxMessageBox

; 2305 : }

  000a5	5f		 pop	 edi
  000a6	5e		 pop	 esi
  000a7	5b		 pop	 ebx
  000a8	8b e5		 mov	 esp, ebp
  000aa	5d		 pop	 ebp
  000ab	c3		 ret	 0
$LN4@OnBnClicke:

; 2231 : 			return;
; 2232 : 		}
; 2233 : 		//<<20110210_alzioyes:[A00000221]   .
; 2234 : 
; 2235 : 		// 
; 2236 : //		m_pMultiChartWnd->SendMessage(UMSG_CHANGEMODEBYINPUTBAR,0,0);
; 2237 : 
; 2238 : 		long lCntOfChart = m_pChartMng->SendMessage(UMSG_GETCNTOFCHART);

  000ac	8b 87 c4 00 00
	00		 mov	 eax, DWORD PTR [edi+196]
; File C:\Program Files (x86)\Microsoft Visual Studio\2019\Community\VC\Tools\MSVC\14.29.30133\atlmfc\include\afxwin2.inl

; 32   : 	{ ASSERT(::IsWindow(m_hWnd)); return ::SendMessage(m_hWnd, message, wParam, lParam); }

  000b2	68 42 04 00 00	 push	 1090			; 00000442H
  000b7	ff 70 20	 push	 DWORD PTR [eax+32]
  000ba	ff d3		 call	 ebx
; File D:\git\src\IBK\IBK_DRFN\ProjSrc\SrcDrfn\Chart\MULTICHART\TabCodeSearch.cpp

; 2241 : 		if(lCntOfChart>0)

  000bc	85 c0		 test	 eax, eax
  000be	7e 78		 jle	 SHORT $LN5@OnBnClicke

; 2244 : 			if( lCntOfChart>1 && !m_pChartMng->SendMessage( UMSG_RELAY_POSSSIBLE_CHECK ) )				

  000c0	83 f8 01	 cmp	 eax, 1
  000c3	7e 49		 jle	 SHORT $LN8@OnBnClicke
  000c5	8b 87 c4 00 00
	00		 mov	 eax, DWORD PTR [edi+196]
; File C:\Program Files (x86)\Microsoft Visual Studio\2019\Community\VC\Tools\MSVC\14.29.30133\atlmfc\include\afxwin2.inl

; 32   : 	{ ASSERT(::IsWindow(m_hWnd)); return ::SendMessage(m_hWnd, message, wParam, lParam); }

  000cb	6a 00		 push	 0
  000cd	6a 00		 push	 0
  000cf	68 e4 04 00 00	 push	 1252			; 000004e4H
  000d4	ff 70 20	 push	 DWORD PTR [eax+32]
  000d7	ff d3		 call	 ebx
; File D:\git\src\IBK\IBK_DRFN\ProjSrc\SrcDrfn\Chart\MULTICHART\TabCodeSearch.cpp

; 2244 : 			if( lCntOfChart>1 && !m_pChartMng->SendMessage( UMSG_RELAY_POSSSIBLE_CHECK ) )				

  000d9	85 c0		 test	 eax, eax
  000db	74 1c		 je	 SHORT $LN32@OnBnClicke

; 2249 : 			else if(  lCntOfChart>1 && m_pMultiChartWnd && !m_pMultiChartWnd->SendMessage( UMSG_GETJONGMOKLINK, 0, 0 ) )

  000dd	8b 87 c0 00 00
	00		 mov	 eax, DWORD PTR [edi+192]
  000e3	85 c0		 test	 eax, eax
  000e5	74 27		 je	 SHORT $LN8@OnBnClicke
; File C:\Program Files (x86)\Microsoft Visual Studio\2019\Community\VC\Tools\MSVC\14.29.30133\atlmfc\include\afxwin2.inl

; 32   : 	{ ASSERT(::IsWindow(m_hWnd)); return ::SendMessage(m_hWnd, message, wParam, lParam); }

  000e7	6a 00		 push	 0
  000e9	6a 00		 push	 0
  000eb	68 b4 04 00 00	 push	 1204			; 000004b4H
  000f0	ff 70 20	 push	 DWORD PTR [eax+32]
  000f3	ff d3		 call	 ebx
; File D:\git\src\IBK\IBK_DRFN\ProjSrc\SrcDrfn\Chart\MULTICHART\TabCodeSearch.cpp

; 2249 : 			else if(  lCntOfChart>1 && m_pMultiChartWnd && !m_pMultiChartWnd->SendMessage( UMSG_GETJONGMOKLINK, 0, 0 ) )

  000f5	85 c0		 test	 eax, eax
  000f7	75 15		 jne	 SHORT $LN8@OnBnClicke
$LN32@OnBnClicke:

; 2250 : 			{				
; 2251 : 				AfxMessageBox("N*N    .");

  000f9	6a 00		 push	 0
  000fb	6a 00		 push	 0
  000fd	68 00 00 00 00	 push	 OFFSET ??_C@_0CL@IMEJDJIA@N?$CKN?5?$LL?s?E?B?$LP?$KB?$LM?$KN?$LE?B?5?$LF?$LJ?$LH?A?$LK?$LI?$LB?b?5?$LB?b?$LE?I?$MA?L?5@
  00102	e8 00 00 00 00	 call	 ?AfxMessageBox@@YGHPBDII@Z ; AfxMessageBox

; 2305 : }

  00107	5f		 pop	 edi
  00108	5e		 pop	 esi
  00109	5b		 pop	 ebx
  0010a	8b e5		 mov	 esp, ebp
  0010c	5d		 pop	 ebp
  0010d	c3		 ret	 0
$LN8@OnBnClicke:

; 2252 : 				return;
; 2253 : 			}
; 2254 : 			
; 2255 : 			long lCntOfChart = m_pChartMng->SendMessage(UMSG_GETCNTOFCHART);

  0010e	8b 87 c4 00 00
	00		 mov	 eax, DWORD PTR [edi+196]
; File C:\Program Files (x86)\Microsoft Visual Studio\2019\Community\VC\Tools\MSVC\14.29.30133\atlmfc\include\afxwin2.inl

; 32   : 	{ ASSERT(::IsWindow(m_hWnd)); return ::SendMessage(m_hWnd, message, wParam, lParam); }

  00114	6a 00		 push	 0
  00116	6a 00		 push	 0
