; Listing generated by Microsoft (R) Optimizing Compiler Version 19.29.30148.0 

	TITLE	D:\git\src\IBK\IBK_DRFN\#DRfn-CS\_Obj\MultiChart\TabCodeSearchWinix.obj
	.686P
	.XMM
	include listing.inc
	.model	flat

INCLUDELIB MSVCRT
INCLUDELIB OLDNAMES

PUBLIC	??_C@_0P@BKKCOCLK@RMSG_INTERFACE@		; `string'
PUBLIC	??_C@_0BE@FJPKENOB@RMSG_GETSIGNAL_REAL@		; `string'
PUBLIC	??_C@_0BB@CNOFPEHG@RMSG_SETQUERYOPT@		; `string'
PUBLIC	??_C@_0P@KHFCBIOH@RMSG_CHARTMAIN@		; `string'
PUBLIC	??_C@_0BC@MMPGLPDH@RMS_ANALYSIS_FUNC@		; `string'
PUBLIC	??_C@_0BA@HKNFENJL@RMSG_GET_USERID@		; `string'
PUBLIC	??_C@_0BG@CNPAHNGG@RMSG_CHANGE_SKINCOLOR@	; `string'
PUBLIC	??_C@_0BD@FLDNDDHK@RMSG_GET_SKINCOLOR@		; `string'
PUBLIC	??_C@_0BJ@JLKHIBIK@RMSG_CHANGEVERTSCALETYPE@	; `string'
PUBLIC	??_C@_0BG@LNLCJKPF@RMSG_CHANGE_CROSSLINE@	; `string'
PUBLIC	??_C@_0BH@IFDMIMBP@RMSG_ADD_PLATFORM_MENU@	; `string'
PUBLIC	??_C@_0BJ@OGNAJHHI@RMSG_SETINITIALCHARTDATA@	; `string'
PUBLIC	??_C@_0N@IIOKMIEH@RMSG_GETINFO@			; `string'
PUBLIC	??_C@_0N@HABLPHJG@RMSG_SETINFO@			; `string'
PUBLIC	??_C@_0M@LPFHDJI@RMSG_DRUSER@			; `string'
;	COMDAT ??_C@_0M@LPFHDJI@RMSG_DRUSER@
CONST	SEGMENT
??_C@_0M@LPFHDJI@RMSG_DRUSER@ DB 'RMSG_DRUSER', 00H	; `string'
CONST	ENDS
;	COMDAT ??_C@_0N@HABLPHJG@RMSG_SETINFO@
CONST	SEGMENT
??_C@_0N@HABLPHJG@RMSG_SETINFO@ DB 'RMSG_SETINFO', 00H	; `string'
CONST	ENDS
;	COMDAT ??_C@_0N@IIOKMIEH@RMSG_GETINFO@
CONST	SEGMENT
??_C@_0N@IIOKMIEH@RMSG_GETINFO@ DB 'RMSG_GETINFO', 00H	; `string'
CONST	ENDS
;	COMDAT ??_C@_0BJ@OGNAJHHI@RMSG_SETINITIALCHARTDATA@
CONST	SEGMENT
??_C@_0BJ@OGNAJHHI@RMSG_SETINITIALCHARTDATA@ DB 'RMSG_SETINITIALCHARTDATA'
	DB	00H						; `string'
CONST	ENDS
;	COMDAT ??_C@_0BH@IFDMIMBP@RMSG_ADD_PLATFORM_MENU@
CONST	SEGMENT
??_C@_0BH@IFDMIMBP@RMSG_ADD_PLATFORM_MENU@ DB 'RMSG_ADD_PLATFORM_MENU', 00H ; `string'
CONST	ENDS
;	COMDAT ??_C@_0BG@LNLCJKPF@RMSG_CHANGE_CROSSLINE@
CONST	SEGMENT
??_C@_0BG@LNLCJKPF@RMSG_CHANGE_CROSSLINE@ DB 'RMSG_CHANGE_CROSSLINE', 00H ; `string'
CONST	ENDS
;	COMDAT ??_C@_0BJ@JLKHIBIK@RMSG_CHANGEVERTSCALETYPE@
CONST	SEGMENT
??_C@_0BJ@JLKHIBIK@RMSG_CHANGEVERTSCALETYPE@ DB 'RMSG_CHANGEVERTSCALETYPE'
	DB	00H						; `string'
CONST	ENDS
;	COMDAT ??_C@_0BD@FLDNDDHK@RMSG_GET_SKINCOLOR@
CONST	SEGMENT
??_C@_0BD@FLDNDDHK@RMSG_GET_SKINCOLOR@ DB 'RMSG_GET_SKINCOLOR', 00H ; `string'
CONST	ENDS
;	COMDAT ??_C@_0BG@CNPAHNGG@RMSG_CHANGE_SKINCOLOR@
CONST	SEGMENT
??_C@_0BG@CNPAHNGG@RMSG_CHANGE_SKINCOLOR@ DB 'RMSG_CHANGE_SKINCOLOR', 00H ; `string'
CONST	ENDS
;	COMDAT ??_C@_0BA@HKNFENJL@RMSG_GET_USERID@
CONST	SEGMENT
??_C@_0BA@HKNFENJL@RMSG_GET_USERID@ DB 'RMSG_GET_USERID', 00H ; `string'
CONST	ENDS
;	COMDAT ??_C@_0BC@MMPGLPDH@RMS_ANALYSIS_FUNC@
CONST	SEGMENT
??_C@_0BC@MMPGLPDH@RMS_ANALYSIS_FUNC@ DB 'RMS_ANALYSIS_FUNC', 00H ; `string'
CONST	ENDS
;	COMDAT ??_C@_0P@KHFCBIOH@RMSG_CHARTMAIN@
CONST	SEGMENT
??_C@_0P@KHFCBIOH@RMSG_CHARTMAIN@ DB 'RMSG_CHARTMAIN', 00H ; `string'
CONST	ENDS
;	COMDAT ??_C@_0BB@CNOFPEHG@RMSG_SETQUERYOPT@
CONST	SEGMENT
??_C@_0BB@CNOFPEHG@RMSG_SETQUERYOPT@ DB 'RMSG_SETQUERYOPT', 00H ; `string'
CONST	ENDS
;	COMDAT ??_C@_0BE@FJPKENOB@RMSG_GETSIGNAL_REAL@
CONST	SEGMENT
??_C@_0BE@FJPKENOB@RMSG_GETSIGNAL_REAL@ DB 'RMSG_GETSIGNAL_REAL', 00H ; `string'
CONST	ENDS
;	COMDAT ??_C@_0P@BKKCOCLK@RMSG_INTERFACE@
CONST	SEGMENT
??_C@_0P@BKKCOCLK@RMSG_INTERFACE@ DB 'RMSG_INTERFACE', 00H ; `string'
CONST	ENDS
PUBLIC	?__empty_global_delete@@YAXPAX@Z		; __empty_global_delete
PUBLIC	?__empty_global_delete@@YAXPAXI@Z		; __empty_global_delete
PUBLIC	___local_stdio_scanf_options
PUBLIC	_sscanf
PUBLIC	??1CObject@@UAE@XZ				; CObject::~CObject
PUBLIC	?Serialize@CObject@@UAEXAAVCArchive@@@Z		; CObject::Serialize
PUBLIC	?AssertValid@CObject@@UBEXXZ			; CObject::AssertValid
PUBLIC	?Dump@CObject@@UBEXAAVCDumpContext@@@Z		; CObject::Dump
PUBLIC	??1CINT_GROUP_ST@@QAE@XZ			; CINT_GROUP_ST::~CINT_GROUP_ST
PUBLIC	??1CINT_ITEM_ST@@QAE@XZ				; CINT_ITEM_ST::~CINT_ITEM_ST
PUBLIC	?Convert@CCodeTypeBase@@UAEXPAD@Z		; CCodeTypeBase::Convert
PUBLIC	?Convert2@CCodeTypeBase@@UAEXPAD@Z		; CCodeTypeBase::Convert2
PUBLIC	?ConvertOneClickData@CCodeTypeBase@@UAEXPAD@Z	; CCodeTypeBase::ConvertOneClickData
PUBLIC	??0CCodeTypeA@@QAE@XZ				; CCodeTypeA::CCodeTypeA
PUBLIC	?Convert@CCodeTypeA@@UAEXPAD@Z			; CCodeTypeA::Convert
PUBLIC	?Convert2@CCodeTypeA@@UAEXPAD@Z			; CCodeTypeA::Convert2
PUBLIC	?ConvertOneClickData@CCodeTypeA@@UAEXPAD@Z	; CCodeTypeA::ConvertOneClickData
PUBLIC	??1CCodeTypeA@@QAE@XZ				; CCodeTypeA::~CCodeTypeA
PUBLIC	??0?$CList@VCCodeTypeA@@V1@@@QAE@H@Z		; CList<CCodeTypeA,CCodeTypeA>::CList<CCodeTypeA,CCodeTypeA>
PUBLIC	?AddTail@?$CList@VCCodeTypeA@@V1@@@QAEPAU__POSITION@@VCCodeTypeA@@@Z ; CList<CCodeTypeA,CCodeTypeA>::AddTail
PUBLIC	?RemoveAll@?$CList@VCCodeTypeA@@V1@@@QAEXXZ	; CList<CCodeTypeA,CCodeTypeA>::RemoveAll
PUBLIC	?NewNode@?$CList@VCCodeTypeA@@V1@@@IAEPAUCNode@1@PAU21@0@Z ; CList<CCodeTypeA,CCodeTypeA>::NewNode
PUBLIC	??1?$CList@VCCodeTypeA@@V1@@@UAE@XZ		; CList<CCodeTypeA,CCodeTypeA>::~CList<CCodeTypeA,CCodeTypeA>
PUBLIC	?Serialize@?$CList@VCCodeTypeA@@V1@@@UAEXAAVCArchive@@@Z ; CList<CCodeTypeA,CCodeTypeA>::Serialize
PUBLIC	??_G?$CList@VCCodeTypeA@@V1@@@UAEPAXI@Z		; CList<CCodeTypeA,CCodeTypeA>::`scalar deleting destructor'
PUBLIC	?OnWinixNotifyLoad@CTabCodeSearch@@IAEJIJ@Z	; CTabCodeSearch::OnWinixNotifyLoad
PUBLIC	?OnWinixNotifySave@CTabCodeSearch@@IAEJIJ@Z	; CTabCodeSearch::OnWinixNotifySave
PUBLIC	?OnWinixNotifyGroup@CTabCodeSearch@@IAEJIJ@Z	; CTabCodeSearch::OnWinixNotifyGroup
PUBLIC	?OnWinixNotifyGroupList@CTabCodeSearch@@IAEJIJ@Z ; CTabCodeSearch::OnWinixNotifyGroupList
PUBLIC	?OnWinixNotifySaveCode@CTabCodeSearch@@IAEJIJ@Z	; CTabCodeSearch::OnWinixNotifySaveCode
PUBLIC	?AddTail@?$CList@PAVCItemLongData@@PAV1@@@QAEPAU__POSITION@@PAVCItemLongData@@@Z ; CList<CItemLongData *,CItemLongData *>::AddTail
PUBLIC	?RemoveAll@?$CList@PAVCItemLongData@@PAV1@@@QAEXXZ ; CList<CItemLongData *,CItemLongData *>::RemoveAll
PUBLIC	?NewNode@?$CList@PAVCItemLongData@@PAV1@@@IAEPAUCNode@1@PAU21@0@Z ; CList<CItemLongData *,CItemLongData *>::NewNode
PUBLIC	?DoDeleteTreeItem@CTabCodeSearch@@IAEXPAVCTreeCtrl@@AAV?$CStringT@DV?$StrTraitMFC_DLL@DV?$ChTraitsCRT@D@ATL@@@@@ATL@@@Z ; CTabCodeSearch::DoDeleteTreeItem
PUBLIC	?DoClearItemLongDataList@CTabCodeSearch@@IAEXXZ	; CTabCodeSearch::DoClearItemLongDataList
PUBLIC	??$SerializeElements@VCCodeTypeA@@@@YGXAAVCArchive@@PAVCCodeTypeA@@H@Z ; SerializeElements<CCodeTypeA>
PUBLIC	?_OptionsStorage@?1??__local_stdio_scanf_options@@9@4_KA ; `__local_stdio_scanf_options'::`2'::_OptionsStorage
PUBLIC	??_C@_00CNPNBAHC@@				; `string'
PUBLIC	??_C@_0M@CBBNGGHM@PcTrMng?4dll@			; `string'
PUBLIC	??_C@_0P@IDMAJEGN@HANAROPCTRMAIN@		; `string'
PUBLIC	??_C@_06NDLAHCHE@?$CFs?$CF08X@			; `string'
PUBLIC	??_C@_02EMFKHFLK@?$CFX@				; `string'
PUBLIC	??_R0?AVCObject@@@8				; CObject `RTTI Type Descriptor'
PUBLIC	??_R3CObject@@8					; CObject::`RTTI Class Hierarchy Descriptor'
PUBLIC	??_R2CObject@@8					; CObject::`RTTI Base Class Array'
PUBLIC	??_R1A@?0A@EA@CObject@@8			; CObject::`RTTI Base Class Descriptor at (0,-1,0,64)'
PUBLIC	??_C@_06JAFFKNDC@SUB_NO@			; `string'
PUBLIC	??_C@_04OKGDLNCL@NONE@				; `string'
PUBLIC	??_7CCodeTypeBase@@6B@				; CCodeTypeBase::`vftable'
PUBLIC	??_C@_05KBKNOCPJ@?$CF2?42s@			; `string'
PUBLIC	??_C@_02BJKMHJON@?$KI?W@			; `string'
PUBLIC	??_C@_02IJKLNJNJ@?$KI?$OA@			; `string'
PUBLIC	??_7CCodeTypeA@@6B@				; CCodeTypeA::`vftable'
PUBLIC	??_7?$CList@VCCodeTypeA@@V1@@@6B@		; CList<CCodeTypeA,CCodeTypeA>::`vftable'
PUBLIC	??_C@_08JGJFMGCK@?H?w?$LN?$LK?E?d?$LI?$KO@	; `string'
PUBLIC	??_C@_01JLIPDDHJ@?3@				; `string'
PUBLIC	??_C@_08DMKJFAIA@DRFNGWAN@			; `string'
PUBLIC	??_C@_06DIJPEION@?$CFs?$CFs?$CFs@		; `string'
PUBLIC	??_C@_09MEBGDEKD@GWANGROUP@			; `string'
PUBLIC	??_C@_06ILELDFGC@USERTR@			; `string'
PUBLIC	??_R4CCodeTypeBase@@6B@				; CCodeTypeBase::`RTTI Complete Object Locator'
PUBLIC	??_R0?AVCCodeTypeBase@@@8			; CCodeTypeBase `RTTI Type Descriptor'
PUBLIC	??_R3CCodeTypeBase@@8				; CCodeTypeBase::`RTTI Class Hierarchy Descriptor'
PUBLIC	??_R2CCodeTypeBase@@8				; CCodeTypeBase::`RTTI Base Class Array'
PUBLIC	??_R1A@?0A@EA@CCodeTypeBase@@8			; CCodeTypeBase::`RTTI Base Class Descriptor at (0,-1,0,64)'
PUBLIC	??_R4CCodeTypeA@@6B@				; CCodeTypeA::`RTTI Complete Object Locator'
PUBLIC	??_R0?AVCCodeTypeA@@@8				; CCodeTypeA `RTTI Type Descriptor'
PUBLIC	??_R3CCodeTypeA@@8				; CCodeTypeA::`RTTI Class Hierarchy Descriptor'
PUBLIC	??_R2CCodeTypeA@@8				; CCodeTypeA::`RTTI Base Class Array'
PUBLIC	??_R1A@?0A@EA@CCodeTypeA@@8			; CCodeTypeA::`RTTI Base Class Descriptor at (0,-1,0,64)'
PUBLIC	??_R4?$CList@VCCodeTypeA@@V1@@@6B@		; CList<CCodeTypeA,CCodeTypeA>::`RTTI Complete Object Locator'
PUBLIC	??_R0?AV?$CList@VCCodeTypeA@@V1@@@@8		; CList<CCodeTypeA,CCodeTypeA> `RTTI Type Descriptor'
PUBLIC	??_R3?$CList@VCCodeTypeA@@V1@@@8		; CList<CCodeTypeA,CCodeTypeA>::`RTTI Class Hierarchy Descriptor'
PUBLIC	??_R2?$CList@VCCodeTypeA@@V1@@@8		; CList<CCodeTypeA,CCodeTypeA>::`RTTI Base Class Array'
PUBLIC	??_R1A@?0A@EA@?$CList@VCCodeTypeA@@V1@@@8	; CList<CCodeTypeA,CCodeTypeA>::`RTTI Base Class Descriptor at (0,-1,0,64)'
EXTRN	??_L@YGXPAXIIP6EX0@Z1@Z:PROC			; `eh vector constructor iterator'
EXTRN	??_M@YGXPAXIIP6EX0@Z@Z:PROC			; `eh vector destructor iterator'
EXTRN	??2@YAPAXI@Z:PROC				; operator new
EXTRN	??3@YAXPAX@Z:PROC				; operator delete
EXTRN	??3@YAXPAXI@Z:PROC				; operator delete
EXTRN	?__global_delete@@YAXPAXI@Z:PROC		; __global_delete
EXTRN	___std_terminate:PROC
EXTRN	__imp__GetEnvironmentVariableA@12:PROC
EXTRN	__imp__GetModuleHandleA@4:PROC
EXTRN	__imp__RegisterWindowMessageA@4:PROC
EXTRN	__imp__SendMessageA@16:PROC
EXTRN	__imp____stdio_common_vsscanf:PROC
EXTRN	?AfxThrowInvalidArgException@@YGXXZ:PROC	; AfxThrowInvalidArgException
EXTRN	?AfxThrowArchiveException@@YGXHPBD@Z:PROC	; AfxThrowArchiveException
EXTRN	?GetRuntimeClass@CObject@@UBEPAUCRuntimeClass@@XZ:PROC ; CObject::GetRuntimeClass
EXTRN	__imp_??0?$CStringT@DV?$StrTraitMFC_DLL@DV?$ChTraitsCRT@D@ATL@@@@@ATL@@QAE@XZ:PROC
EXTRN	__imp_??0?$CStringT@DV?$StrTraitMFC_DLL@DV?$ChTraitsCRT@D@ATL@@@@@ATL@@QAE@ABV01@@Z:PROC
EXTRN	__imp_??0?$CStringT@DV?$StrTraitMFC_DLL@DV?$ChTraitsCRT@D@ATL@@@@@ATL@@QAE@PBD@Z:PROC
EXTRN	__imp_??1?$CStringT@DV?$StrTraitMFC_DLL@DV?$ChTraitsCRT@D@ATL@@@@@ATL@@QAE@XZ:PROC
EXTRN	__imp_??4?$CStringT@DV?$StrTraitMFC_DLL@DV?$ChTraitsCRT@D@ATL@@@@@ATL@@QAEAAV01@ABV01@@Z:PROC
EXTRN	__imp_??4?$CStringT@DV?$StrTraitMFC_DLL@DV?$ChTraitsCRT@D@ATL@@@@@ATL@@QAEAAV01@PBD@Z:PROC
EXTRN	__imp_?Compare@?$CStringT@DV?$StrTraitMFC_DLL@DV?$ChTraitsCRT@D@ATL@@@@@ATL@@QBEHPBD@Z:PROC
EXTRN	__imp_?CompareNoCase@?$CStringT@DV?$StrTraitMFC_DLL@DV?$ChTraitsCRT@D@ATL@@@@@ATL@@QBEHPBD@Z:PROC
EXTRN	__imp_?TrimRight@?$CStringT@DV?$StrTraitMFC_DLL@DV?$ChTraitsCRT@D@ATL@@@@@ATL@@QAEAAV12@XZ:PROC
EXTRN	__imp_?Format@?$CStringT@DV?$StrTraitMFC_DLL@DV?$ChTraitsCRT@D@ATL@@@@@ATL@@QAAXPBDZZ:PROC
EXTRN	?Read@CArchive@@QAEIPAXI@Z:PROC			; CArchive::Read
EXTRN	?Write@CArchive@@QAEXPBXI@Z:PROC		; CArchive::Write
EXTRN	?ReadCount@CArchive@@QAEKXZ:PROC		; CArchive::ReadCount
EXTRN	?WriteCount@CArchive@@QAEXK@Z:PROC		; CArchive::WriteCount
EXTRN	??0CStringArray@@QAE@XZ:PROC			; CStringArray::CStringArray
EXTRN	??1CStringArray@@UAE@XZ:PROC			; CStringArray::~CStringArray
EXTRN	??0CStringList@@QAE@H@Z:PROC			; CStringList::CStringList
EXTRN	??1CStringList@@UAE@XZ:PROC			; CStringList::~CStringList
EXTRN	?Create@CPlex@@SGPAU1@AAPAU1@II@Z:PROC		; CPlex::Create
EXTRN	?FreeDataChain@CPlex@@QAEXXZ:PROC		; CPlex::FreeDataChain
EXTRN	?GetItemText@CTreeCtrl@@QBE?AV?$CStringT@DV?$StrTraitMFC_DLL@DV?$ChTraitsCRT@D@ATL@@@@@ATL@@PAU_TREEITEM@@@Z:PROC ; CTreeCtrl::GetItemText
EXTRN	?SetItem@CTreeCtrl@@QAEHPAU_TREEITEM@@IPBDHHIIJ@Z:PROC ; CTreeCtrl::SetItem
EXTRN	?InsertItem@CTreeCtrl@@QAEPAU_TREEITEM@@IPBDHHIIJPAU2@1@Z:PROC ; CTreeCtrl::InsertItem
EXTRN	??_E?$CList@VCCodeTypeA@@V1@@@UAEPAXI@Z:PROC	; CList<CCodeTypeA,CCodeTypeA>::`vector deleting destructor'
EXTRN	@__security_check_cookie@4:PROC
EXTRN	___CxxFrameHandler3:PROC
EXTRN	??_7type_info@@6B@:QWORD			; type_info::`vftable'
EXTRN	___security_cookie:DWORD
;	COMDAT ?_OptionsStorage@?1??__local_stdio_scanf_options@@9@4_KA
_BSS	SEGMENT
?_OptionsStorage@?1??__local_stdio_scanf_options@@9@4_KA DQ 01H DUP (?) ; `__local_stdio_scanf_options'::`2'::_OptionsStorage
_BSS	ENDS
_BSS	SEGMENT
?RMSG_INTERFACE@@3IB DD 01H DUP (?)			; RMSG_INTERFACE
?RMSG_GETSIGNAL_REAL@@3IB DD 01H DUP (?)		; RMSG_GETSIGNAL_REAL
?RMSG_SETQUERYOPT@@3IB DD 01H DUP (?)			; RMSG_SETQUERYOPT
?RMSG_CHARTMAIN@@3IB DD 01H DUP (?)			; RMSG_CHARTMAIN
?RMS_ANALYSIS_FUNC@@3IB DD 01H DUP (?)			; RMS_ANALYSIS_FUNC
?RMSG_GET_USERID@@3IB DD 01H DUP (?)			; RMSG_GET_USERID
?RMSG_CHANGE_SKINCOLOR@@3IB DD 01H DUP (?)		; RMSG_CHANGE_SKINCOLOR
?RMSG_GET_SKINCOLOR@@3IB DD 01H DUP (?)			; RMSG_GET_SKINCOLOR
?RMSG_CHANGEVERTSCALETYPE@@3IB DD 01H DUP (?)		; RMSG_CHANGEVERTSCALETYPE
?RMSG_CHANGE_CROSSLINE@@3IB DD 01H DUP (?)		; RMSG_CHANGE_CROSSLINE
?RMSG_ADD_PLATFORM_MENU@@3IB DD 01H DUP (?)		; RMSG_ADD_PLATFORM_MENU
?RMSG_SETINITIALCHARTDATA@@3IB DD 01H DUP (?)		; RMSG_SETINITIALCHARTDATA
?RMSG_GETINFO@@3IB DD 01H DUP (?)			; RMSG_GETINFO
?RMSG_SETINFO@@3IB DD 01H DUP (?)			; RMSG_SETINFO
?RMSG_DRUSER@@3IB DD 01H DUP (?)			; RMSG_DRUSER
_BSS	ENDS
CRT$XCU	SEGMENT
?RMSG_INTERFACE$initializer$@@3P6AXXZA DD FLAT:??__ERMSG_INTERFACE@@YAXXZ ; RMSG_INTERFACE$initializer$
CRT$XCU	ENDS
;	COMDAT ??_R1A@?0A@EA@?$CList@VCCodeTypeA@@V1@@@8
rdata$r	SEGMENT
??_R1A@?0A@EA@?$CList@VCCodeTypeA@@V1@@@8 DD FLAT:??_R0?AV?$CList@VCCodeTypeA@@V1@@@@8 ; CList<CCodeTypeA,CCodeTypeA>::`RTTI Base Class Descriptor at (0,-1,0,64)'
	DD	01H
	DD	00H
	DD	0ffffffffH
	DD	00H
	DD	040H
	DD	FLAT:??_R3?$CList@VCCodeTypeA@@V1@@@8
rdata$r	ENDS
;	COMDAT ??_R2?$CList@VCCodeTypeA@@V1@@@8
rdata$r	SEGMENT
??_R2?$CList@VCCodeTypeA@@V1@@@8 DD FLAT:??_R1A@?0A@EA@?$CList@VCCodeTypeA@@V1@@@8 ; CList<CCodeTypeA,CCodeTypeA>::`RTTI Base Class Array'
	DD	FLAT:??_R1A@?0A@EA@CObject@@8
rdata$r	ENDS
;	COMDAT ??_R3?$CList@VCCodeTypeA@@V1@@@8
rdata$r	SEGMENT
??_R3?$CList@VCCodeTypeA@@V1@@@8 DD 00H			; CList<CCodeTypeA,CCodeTypeA>::`RTTI Class Hierarchy Descriptor'
	DD	00H
	DD	02H
	DD	FLAT:??_R2?$CList@VCCodeTypeA@@V1@@@8
rdata$r	ENDS
;	COMDAT ??_R0?AV?$CList@VCCodeTypeA@@V1@@@@8
data$rs	SEGMENT
??_R0?AV?$CList@VCCodeTypeA@@V1@@@@8 DD FLAT:??_7type_info@@6B@ ; CList<CCodeTypeA,CCodeTypeA> `RTTI Type Descriptor'
	DD	00H
	DB	'.?AV?$CList@VCCodeTypeA@@V1@@@', 00H
data$rs	ENDS
;	COMDAT ??_R4?$CList@VCCodeTypeA@@V1@@@6B@
rdata$r	SEGMENT
??_R4?$CList@VCCodeTypeA@@V1@@@6B@ DD 00H		; CList<CCodeTypeA,CCodeTypeA>::`RTTI Complete Object Locator'
	DD	00H
	DD	00H
	DD	FLAT:??_R0?AV?$CList@VCCodeTypeA@@V1@@@@8
	DD	FLAT:??_R3?$CList@VCCodeTypeA@@V1@@@8
rdata$r	ENDS
;	COMDAT ??_R1A@?0A@EA@CCodeTypeA@@8
rdata$r	SEGMENT
??_R1A@?0A@EA@CCodeTypeA@@8 DD FLAT:??_R0?AVCCodeTypeA@@@8 ; CCodeTypeA::`RTTI Base Class Descriptor at (0,-1,0,64)'
	DD	01H
	DD	00H
	DD	0ffffffffH
	DD	00H
	DD	040H
	DD	FLAT:??_R3CCodeTypeA@@8
rdata$r	ENDS
;	COMDAT ??_R2CCodeTypeA@@8
rdata$r	SEGMENT
??_R2CCodeTypeA@@8 DD FLAT:??_R1A@?0A@EA@CCodeTypeA@@8	; CCodeTypeA::`RTTI Base Class Array'
	DD	FLAT:??_R1A@?0A@EA@CCodeTypeBase@@8
rdata$r	ENDS
;	COMDAT ??_R3CCodeTypeA@@8
rdata$r	SEGMENT
??_R3CCodeTypeA@@8 DD 00H				; CCodeTypeA::`RTTI Class Hierarchy Descriptor'
	DD	00H
	DD	02H
	DD	FLAT:??_R2CCodeTypeA@@8
rdata$r	ENDS
;	COMDAT ??_R0?AVCCodeTypeA@@@8
data$rs	SEGMENT
??_R0?AVCCodeTypeA@@@8 DD FLAT:??_7type_info@@6B@	; CCodeTypeA `RTTI Type Descriptor'
	DD	00H
	DB	'.?AVCCodeTypeA@@', 00H
data$rs	ENDS
;	COMDAT ??_R4CCodeTypeA@@6B@
rdata$r	SEGMENT
??_R4CCodeTypeA@@6B@ DD 00H				; CCodeTypeA::`RTTI Complete Object Locator'
	DD	00H
	DD	00H
	DD	FLAT:??_R0?AVCCodeTypeA@@@8
	DD	FLAT:??_R3CCodeTypeA@@8
rdata$r	ENDS
;	COMDAT ??_R1A@?0A@EA@CCodeTypeBase@@8
rdata$r	SEGMENT
??_R1A@?0A@EA@CCodeTypeBase@@8 DD FLAT:??_R0?AVCCodeTypeBase@@@8 ; CCodeTypeBase::`RTTI Base Class Descriptor at (0,-1,0,64)'
	DD	00H
	DD	00H
	DD	0ffffffffH
	DD	00H
	DD	040H
	DD	FLAT:??_R3CCodeTypeBase@@8
rdata$r	ENDS
;	COMDAT ??_R2CCodeTypeBase@@8
rdata$r	SEGMENT
??_R2CCodeTypeBase@@8 DD FLAT:??_R1A@?0A@EA@CCodeTypeBase@@8 ; CCodeTypeBase::`RTTI Base Class Array'
rdata$r	ENDS
;	COMDAT ??_R3CCodeTypeBase@@8
rdata$r	SEGMENT
??_R3CCodeTypeBase@@8 DD 00H				; CCodeTypeBase::`RTTI Class Hierarchy Descriptor'
	DD	00H
	DD	01H
	DD	FLAT:??_R2CCodeTypeBase@@8
rdata$r	ENDS
;	COMDAT ??_R0?AVCCodeTypeBase@@@8
data$rs	SEGMENT
??_R0?AVCCodeTypeBase@@@8 DD FLAT:??_7type_info@@6B@	; CCodeTypeBase `RTTI Type Descriptor'
	DD	00H
	DB	'.?AVCCodeTypeBase@@', 00H
data$rs	ENDS
;	COMDAT ??_R4CCodeTypeBase@@6B@
rdata$r	SEGMENT
??_R4CCodeTypeBase@@6B@ DD 00H				; CCodeTypeBase::`RTTI Complete Object Locator'
	DD	00H
	DD	00H
	DD	FLAT:??_R0?AVCCodeTypeBase@@@8
	DD	FLAT:??_R3CCodeTypeBase@@8
rdata$r	ENDS
;	COMDAT ??_C@_06ILELDFGC@USERTR@
CONST	SEGMENT
??_C@_06ILELDFGC@USERTR@ DB 'USERTR', 00H		; `string'
CONST	ENDS
;	COMDAT ??_C@_09MEBGDEKD@GWANGROUP@
CONST	SEGMENT
??_C@_09MEBGDEKD@GWANGROUP@ DB 'GWANGROUP', 00H		; `string'
CONST	ENDS
;	COMDAT ??_C@_06DIJPEION@?$CFs?$CFs?$CFs@
CONST	SEGMENT
??_C@_06DIJPEION@?$CFs?$CFs?$CFs@ DB '%s%s%s', 00H	; `string'
CONST	ENDS
;	COMDAT ??_C@_08DMKJFAIA@DRFNGWAN@
CONST	SEGMENT
??_C@_08DMKJFAIA@DRFNGWAN@ DB 'DRFNGWAN', 00H		; `string'
CONST	ENDS
;	COMDAT ??_C@_01JLIPDDHJ@?3@
CONST	SEGMENT
??_C@_01JLIPDDHJ@?3@ DB ':', 00H			; `string'
CONST	ENDS
;	COMDAT ??_C@_08JGJFMGCK@?H?w?$LN?$LK?E?d?$LI?$KO@
CONST	SEGMENT
??_C@_08JGJFMGCK@?H?w?$LN?$LK?E?d?$LI?$KO@ DB 0c8H, 0f7H, 0bdH, 0baH, 0c5H
	DB	0e4H, 0b8H, 0aeH, 00H			; `string'
CONST	ENDS
;	COMDAT ??_7?$CList@VCCodeTypeA@@V1@@@6B@
CONST	SEGMENT
??_7?$CList@VCCodeTypeA@@V1@@@6B@ DD FLAT:??_R4?$CList@VCCodeTypeA@@V1@@@6B@ ; CList<CCodeTypeA,CCodeTypeA>::`vftable'
	DD	FLAT:?GetRuntimeClass@CObject@@UBEPAUCRuntimeClass@@XZ
	DD	FLAT:??_E?$CList@VCCodeTypeA@@V1@@@UAEPAXI@Z
	DD	FLAT:?Serialize@?$CList@VCCodeTypeA@@V1@@@UAEXAAVCArchive@@@Z
	DD	FLAT:?AssertValid@CObject@@UBEXXZ
	DD	FLAT:?Dump@CObject@@UBEXAAVCDumpContext@@@Z
CONST	ENDS
;	COMDAT ??_7CCodeTypeA@@6B@
CONST	SEGMENT
??_7CCodeTypeA@@6B@ DD FLAT:??_R4CCodeTypeA@@6B@	; CCodeTypeA::`vftable'
	DD	FLAT:?Convert@CCodeTypeA@@UAEXPAD@Z
	DD	FLAT:?Convert2@CCodeTypeA@@UAEXPAD@Z
	DD	FLAT:?ConvertOneClickData@CCodeTypeA@@UAEXPAD@Z
CONST	ENDS
;	COMDAT ??_C@_02IJKLNJNJ@?$KI?$OA@
CONST	SEGMENT
??_C@_02IJKLNJNJ@?$KI?$OA@ DB 0a8H, 0e0H, 00H		; `string'
CONST	ENDS
;	COMDAT ??_C@_02BJKMHJON@?$KI?W@
CONST	SEGMENT
??_C@_02BJKMHJON@?$KI?W@ DB 0a8H, 0d7H, 00H		; `string'
CONST	ENDS
;	COMDAT ??_C@_05KBKNOCPJ@?$CF2?42s@
CONST	SEGMENT
??_C@_05KBKNOCPJ@?$CF2?42s@ DB '%2.2s', 00H		; `string'
CONST	ENDS
;	COMDAT ??_7CCodeTypeBase@@6B@
CONST	SEGMENT
??_7CCodeTypeBase@@6B@ DD FLAT:??_R4CCodeTypeBase@@6B@	; CCodeTypeBase::`vftable'
	DD	FLAT:?Convert@CCodeTypeBase@@UAEXPAD@Z
	DD	FLAT:?Convert2@CCodeTypeBase@@UAEXPAD@Z
	DD	FLAT:?ConvertOneClickData@CCodeTypeBase@@UAEXPAD@Z
CONST	ENDS
;	COMDAT ??_C@_04OKGDLNCL@NONE@
CONST	SEGMENT
??_C@_04OKGDLNCL@NONE@ DB 'NONE', 00H			; `string'
CONST	ENDS
;	COMDAT ??_C@_06JAFFKNDC@SUB_NO@
CONST	SEGMENT
??_C@_06JAFFKNDC@SUB_NO@ DB 'SUB_NO', 00H		; `string'
CONST	ENDS
;	COMDAT ??_R1A@?0A@EA@CObject@@8
rdata$r	SEGMENT
??_R1A@?0A@EA@CObject@@8 DD FLAT:??_R0?AVCObject@@@8	; CObject::`RTTI Base Class Descriptor at (0,-1,0,64)'
	DD	00H
	DD	00H
	DD	0ffffffffH
	DD	00H
	DD	040H
	DD	FLAT:??_R3CObject@@8
rdata$r	ENDS
;	COMDAT ??_R2CObject@@8
rdata$r	SEGMENT
??_R2CObject@@8 DD FLAT:??_R1A@?0A@EA@CObject@@8	; CObject::`RTTI Base Class Array'
rdata$r	ENDS
;	COMDAT ??_R3CObject@@8
rdata$r	SEGMENT
??_R3CObject@@8 DD 00H					; CObject::`RTTI Class Hierarchy Descriptor'
	DD	00H
	DD	01H
	DD	FLAT:??_R2CObject@@8
rdata$r	ENDS
;	COMDAT ??_R0?AVCObject@@@8
data$rs	SEGMENT
??_R0?AVCObject@@@8 DD FLAT:??_7type_info@@6B@		; CObject `RTTI Type Descriptor'
	DD	00H
	DB	'.?AVCObject@@', 00H
data$rs	ENDS
;	COMDAT ??_C@_02EMFKHFLK@?$CFX@
CONST	SEGMENT
??_C@_02EMFKHFLK@?$CFX@ DB '%X', 00H			; `string'
CONST	ENDS
;	COMDAT ??_C@_06NDLAHCHE@?$CFs?$CF08X@
CONST	SEGMENT
??_C@_06NDLAHCHE@?$CFs?$CF08X@ DB '%s%08X', 00H		; `string'
CONST	ENDS
;	COMDAT ??_C@_0P@IDMAJEGN@HANAROPCTRMAIN@
CONST	SEGMENT
??_C@_0P@IDMAJEGN@HANAROPCTRMAIN@ DB 'HANAROPCTRMAIN', 00H ; `string'
CONST	ENDS
;	COMDAT ??_C@_0M@CBBNGGHM@PcTrMng?4dll@
CONST	SEGMENT
??_C@_0M@CBBNGGHM@PcTrMng?4dll@ DB 'PcTrMng.dll', 00H	; `string'
CONST	ENDS
;	COMDAT ??_C@_00CNPNBAHC@@
CONST	SEGMENT
??_C@_00CNPNBAHC@@ DB 00H				; `string'
CONST	ENDS
;	COMDAT xdata$x
xdata$x	SEGMENT
__unwindtable$?DoDeleteTreeItem@CTabCodeSearch@@IAEXPAVCTreeCtrl@@AAV?$CStringT@DV?$StrTraitMFC_DLL@DV?$ChTraitsCRT@D@ATL@@@@@ATL@@@Z DD 0ffffffffH
	DD	FLAT:__unwindfunclet$?DoDeleteTreeItem@CTabCodeSearch@@IAEXPAVCTreeCtrl@@AAV?$CStringT@DV?$StrTraitMFC_DLL@DV?$ChTraitsCRT@D@ATL@@@@@ATL@@@Z$0
	DD	00H
	DD	FLAT:__unwindfunclet$?DoDeleteTreeItem@CTabCodeSearch@@IAEXPAVCTreeCtrl@@AAV?$CStringT@DV?$StrTraitMFC_DLL@DV?$ChTraitsCRT@D@ATL@@@@@ATL@@@Z$1
__ehfuncinfo$?DoDeleteTreeItem@CTabCodeSearch@@IAEXPAVCTreeCtrl@@AAV?$CStringT@DV?$StrTraitMFC_DLL@DV?$ChTraitsCRT@D@ATL@@@@@ATL@@@Z DD 019930522H
	DD	02H
	DD	FLAT:__unwindtable$?DoDeleteTreeItem@CTabCodeSearch@@IAEXPAVCTreeCtrl@@AAV?$CStringT@DV?$StrTraitMFC_DLL@DV?$ChTraitsCRT@D@ATL@@@@@ATL@@@Z
	DD	2 DUP(00H)
	DD	2 DUP(00H)
	DD	00H
	DD	01H
xdata$x	ENDS
;	COMDAT xdata$x
xdata$x	SEGMENT
__ehfuncinfo$?OnWinixNotifyGroup@CTabCodeSearch@@IAEJIJ@Z DD 019930522H
	DD	09H
	DD	FLAT:__unwindtable$?OnWinixNotifyGroup@CTabCodeSearch@@IAEJIJ@Z
	DD	2 DUP(00H)
	DD	2 DUP(00H)
	DD	00H
	DD	01H
__unwindtable$?OnWinixNotifyGroup@CTabCodeSearch@@IAEJIJ@Z DD 0ffffffffH
	DD	FLAT:__unwindfunclet$?OnWinixNotifyGroup@CTabCodeSearch@@IAEJIJ@Z$0
	DD	00H
	DD	FLAT:__unwindfunclet$?OnWinixNotifyGroup@CTabCodeSearch@@IAEJIJ@Z$1
	DD	01H
	DD	FLAT:__unwindfunclet$?OnWinixNotifyGroup@CTabCodeSearch@@IAEJIJ@Z$7
	DD	01H
	DD	FLAT:__unwindfunclet$?OnWinixNotifyGroup@CTabCodeSearch@@IAEJIJ@Z$2
	DD	03H
	DD	FLAT:__unwindfunclet$?OnWinixNotifyGroup@CTabCodeSearch@@IAEJIJ@Z$3
	DD	04H
	DD	FLAT:__unwindfunclet$?OnWinixNotifyGroup@CTabCodeSearch@@IAEJIJ@Z$4
	DD	05H
	DD	FLAT:__unwindfunclet$?OnWinixNotifyGroup@CTabCodeSearch@@IAEJIJ@Z$5
	DD	05H
	DD	FLAT:__unwindfunclet$?OnWinixNotifyGroup@CTabCodeSearch@@IAEJIJ@Z$12
	DD	03H
	DD	FLAT:___std_terminate
xdata$x	ENDS
;	COMDAT xdata$x
xdata$x	SEGMENT
__ehfuncinfo$?OnWinixNotifySave@CTabCodeSearch@@IAEJIJ@Z DD 019930522H
	DD	0fH
	DD	FLAT:__unwindtable$?OnWinixNotifySave@CTabCodeSearch@@IAEJIJ@Z
	DD	2 DUP(00H)
	DD	2 DUP(00H)
	DD	00H
	DD	01H
__unwindtable$?OnWinixNotifySave@CTabCodeSearch@@IAEJIJ@Z DD 0ffffffffH
	DD	FLAT:__unwindfunclet$?OnWinixNotifySave@CTabCodeSearch@@IAEJIJ@Z$0
	DD	00H
	DD	FLAT:__unwindfunclet$?OnWinixNotifySave@CTabCodeSearch@@IAEJIJ@Z$1
	DD	01H
	DD	FLAT:__unwindfunclet$?OnWinixNotifySave@CTabCodeSearch@@IAEJIJ@Z$2
	DD	02H
	DD	FLAT:__unwindfunclet$?OnWinixNotifySave@CTabCodeSearch@@IAEJIJ@Z$7
	DD	03H
	DD	FLAT:__unwindfunclet$?OnWinixNotifySave@CTabCodeSearch@@IAEJIJ@Z$8
	DD	02H
	DD	FLAT:__unwindfunclet$?OnWinixNotifySave@CTabCodeSearch@@IAEJIJ@Z$3
	DD	05H
	DD	FLAT:__unwindfunclet$?OnWinixNotifySave@CTabCodeSearch@@IAEJIJ@Z$4
	DD	06H
	DD	FLAT:__unwindfunclet$?OnWinixNotifySave@CTabCodeSearch@@IAEJIJ@Z$5
	DD	07H
	DD	FLAT:__unwindfunclet$?OnWinixNotifySave@CTabCodeSearch@@IAEJIJ@Z$6
	DD	08H
	DD	FLAT:__unwindfunclet$?OnWinixNotifySave@CTabCodeSearch@@IAEJIJ@Z$10
	DD	09H
	DD	FLAT:__unwindfunclet$?OnWinixNotifySave@CTabCodeSearch@@IAEJIJ@Z$11
	DD	0aH
	DD	FLAT:__unwindfunclet$?OnWinixNotifySave@CTabCodeSearch@@IAEJIJ@Z$12
	DD	0bH
	DD	FLAT:__unwindfunclet$?OnWinixNotifySave@CTabCodeSearch@@IAEJIJ@Z$13
	DD	0cH
	DD	FLAT:__unwindfunclet$?OnWinixNotifySave@CTabCodeSearch@@IAEJIJ@Z$14
	DD	0dH
	DD	FLAT:__unwindfunclet$?OnWinixNotifySave@CTabCodeSearch@@IAEJIJ@Z$15
xdata$x	ENDS
;	COMDAT xdata$x
xdata$x	SEGMENT
__unwindtable$?Serialize@?$CList@VCCodeTypeA@@V1@@@UAEXAAVCArchive@@@Z DD 0ffffffffH
	DD	FLAT:__unwindfunclet$?Serialize@?$CList@VCCodeTypeA@@V1@@@UAEXAAVCArchive@@@Z$0
	DD	00H
	DD	FLAT:__unwindfunclet$?Serialize@?$CList@VCCodeTypeA@@V1@@@UAEXAAVCArchive@@@Z$3
__ehfuncinfo$?Serialize@?$CList@VCCodeTypeA@@V1@@@UAEXAAVCArchive@@@Z DD 019930522H
	DD	02H
	DD	FLAT:__unwindtable$?Serialize@?$CList@VCCodeTypeA@@V1@@@UAEXAAVCArchive@@@Z
	DD	2 DUP(00H)
	DD	2 DUP(00H)
	DD	00H
	DD	01H
xdata$x	ENDS
;	COMDAT xdata$x
xdata$x	SEGMENT
__ehfuncinfo$??1?$CList@VCCodeTypeA@@V1@@@UAE@XZ DD 019930522H
	DD	00H
	DD	00H
	DD	2 DUP(00H)
	DD	2 DUP(00H)
	DD	00H
	DD	05H
xdata$x	ENDS
;	COMDAT xdata$x
xdata$x	SEGMENT
__unwindtable$?AddTail@?$CList@VCCodeTypeA@@V1@@@QAEPAU__POSITION@@VCCodeTypeA@@@Z DD 0ffffffffH
	DD	FLAT:__unwindfunclet$?AddTail@?$CList@VCCodeTypeA@@V1@@@QAEPAU__POSITION@@VCCodeTypeA@@@Z$0
__ehfuncinfo$?AddTail@?$CList@VCCodeTypeA@@V1@@@QAEPAU__POSITION@@VCCodeTypeA@@@Z DD 019930522H
	DD	01H
	DD	FLAT:__unwindtable$?AddTail@?$CList@VCCodeTypeA@@V1@@@QAEPAU__POSITION@@VCCodeTypeA@@@Z
	DD	2 DUP(00H)
	DD	2 DUP(00H)
	DD	00H
	DD	01H
xdata$x	ENDS
;	COMDAT xdata$x
xdata$x	SEGMENT
__unwindtable$??0CCodeTypeA@@QAE@ABV0@@Z DD 0ffffffffH
	DD	FLAT:__unwindfunclet$??0CCodeTypeA@@QAE@ABV0@@Z$1
__ehfuncinfo$??0CCodeTypeA@@QAE@ABV0@@Z DD 019930522H
	DD	01H
	DD	FLAT:__unwindtable$??0CCodeTypeA@@QAE@ABV0@@Z
	DD	2 DUP(00H)
	DD	2 DUP(00H)
	DD	00H
	DD	01H
xdata$x	ENDS
;	COMDAT xdata$x
xdata$x	SEGMENT
__unwindtable$??0CCodeTypeBase@@QAE@ABV0@@Z DD 0ffffffffH
	DD	FLAT:__unwindfunclet$??0CCodeTypeBase@@QAE@ABV0@@Z$0
__ehfuncinfo$??0CCodeTypeBase@@QAE@ABV0@@Z DD 019930522H
	DD	01H
	DD	FLAT:__unwindtable$??0CCodeTypeBase@@QAE@ABV0@@Z
	DD	2 DUP(00H)
	DD	2 DUP(00H)
	DD	00H
	DD	01H
xdata$x	ENDS
;	COMDAT xdata$x
xdata$x	SEGMENT
__unwindtable$?CheckeNameType@CCodeTypeBase@@SAHPAD@Z DD 0ffffffffH
	DD	FLAT:__unwindfunclet$?CheckeNameType@CCodeTypeBase@@SAHPAD@Z$0
__ehfuncinfo$?CheckeNameType@CCodeTypeBase@@SAHPAD@Z DD 019930522H
	DD	01H
	DD	FLAT:__unwindtable$?CheckeNameType@CCodeTypeBase@@SAHPAD@Z
	DD	2 DUP(00H)
	DD	2 DUP(00H)
	DD	00H
	DD	01H
xdata$x	ENDS
;	COMDAT xdata$x
xdata$x	SEGMENT
__unwindtable$?ConvertOneClickData@CCodeTypeBase@@UAEXPAD@Z DD 0ffffffffH
	DD	FLAT:__unwindfunclet$?ConvertOneClickData@CCodeTypeBase@@UAEXPAD@Z$0
__ehfuncinfo$?ConvertOneClickData@CCodeTypeBase@@UAEXPAD@Z DD 019930522H
	DD	01H
	DD	FLAT:__unwindtable$?ConvertOneClickData@CCodeTypeBase@@UAEXPAD@Z
	DD	2 DUP(00H)
	DD	2 DUP(00H)
	DD	00H
	DD	01H
xdata$x	ENDS
;	COMDAT xdata$x
xdata$x	SEGMENT
__ehfuncinfo$??0CItemLongData@@QAE@PBD00000JJJ@Z DD 019930522H
	DD	06H
	DD	FLAT:__unwindtable$??0CItemLongData@@QAE@PBD00000JJJ@Z
	DD	2 DUP(00H)
	DD	2 DUP(00H)
	DD	00H
	DD	01H
__unwindtable$??0CItemLongData@@QAE@PBD00000JJJ@Z DD 0ffffffffH
	DD	FLAT:__unwindfunclet$??0CItemLongData@@QAE@PBD00000JJJ@Z$0
	DD	00H
	DD	FLAT:__unwindfunclet$??0CItemLongData@@QAE@PBD00000JJJ@Z$1
	DD	01H
	DD	FLAT:__unwindfunclet$??0CItemLongData@@QAE@PBD00000JJJ@Z$2
	DD	02H
	DD	FLAT:__unwindfunclet$??0CItemLongData@@QAE@PBD00000JJJ@Z$3
	DD	03H
	DD	FLAT:__unwindfunclet$??0CItemLongData@@QAE@PBD00000JJJ@Z$4
	DD	04H
	DD	FLAT:__unwindfunclet$??0CItemLongData@@QAE@PBD00000JJJ@Z$5
xdata$x	ENDS
;	COMDAT xdata$x
xdata$x	SEGMENT
__unwindtable$?AfxGetPctrInterface@@YGJH@Z DD 0ffffffffH
	DD	FLAT:__unwindfunclet$?AfxGetPctrInterface@@YGJH@Z$0
__ehfuncinfo$?AfxGetPctrInterface@@YGJH@Z DD 019930522H
	DD	01H
	DD	FLAT:__unwindtable$?AfxGetPctrInterface@@YGJH@Z
	DD	2 DUP(00H)
	DD	2 DUP(00H)
	DD	00H
	DD	01H
xdata$x	ENDS
CRT$XCU	SEGMENT
?RMSG_GETSIGNAL_REAL$initializer$@@3P6AXXZA DD FLAT:??__ERMSG_GETSIGNAL_REAL@@YAXXZ ; RMSG_GETSIGNAL_REAL$initializer$
CRT$XCU	ENDS
CRT$XCU	SEGMENT
?RMSG_SETQUERYOPT$initializer$@@3P6AXXZA DD FLAT:??__ERMSG_SETQUERYOPT@@YAXXZ ; RMSG_SETQUERYOPT$initializer$
CRT$XCU	ENDS
CRT$XCU	SEGMENT
?RMSG_CHARTMAIN$initializer$@@3P6AXXZA DD FLAT:??__ERMSG_CHARTMAIN@@YAXXZ ; RMSG_CHARTMAIN$initializer$
CRT$XCU	ENDS
CRT$XCU	SEGMENT
?RMS_ANALYSIS_FUNC$initializer$@@3P6AXXZA DD FLAT:??__ERMS_ANALYSIS_FUNC@@YAXXZ ; RMS_ANALYSIS_FUNC$initializer$
CRT$XCU	ENDS
CRT$XCU	SEGMENT
?RMSG_GET_USERID$initializer$@@3P6AXXZA DD FLAT:??__ERMSG_GET_USERID@@YAXXZ ; RMSG_GET_USERID$initializer$
CRT$XCU	ENDS
CRT$XCU	SEGMENT
?RMSG_CHANGE_SKINCOLOR$initializer$@@3P6AXXZA DD FLAT:??__ERMSG_CHANGE_SKINCOLOR@@YAXXZ ; RMSG_CHANGE_SKINCOLOR$initializer$
CRT$XCU	ENDS
CRT$XCU	SEGMENT
?RMSG_GET_SKINCOLOR$initializer$@@3P6AXXZA DD FLAT:??__ERMSG_GET_SKINCOLOR@@YAXXZ ; RMSG_GET_SKINCOLOR$initializer$
CRT$XCU	ENDS
CRT$XCU	SEGMENT
?RMSG_CHANGEVERTSCALETYPE$initializer$@@3P6AXXZA DD FLAT:??__ERMSG_CHANGEVERTSCALETYPE@@YAXXZ ; RMSG_CHANGEVERTSCALETYPE$initializer$
CRT$XCU	ENDS
CRT$XCU	SEGMENT
?RMSG_CHANGE_CROSSLINE$initializer$@@3P6AXXZA DD FLAT:??__ERMSG_CHANGE_CROSSLINE@@YAXXZ ; RMSG_CHANGE_CROSSLINE$initializer$
CRT$XCU	ENDS
CRT$XCU	SEGMENT
?RMSG_ADD_PLATFORM_MENU$initializer$@@3P6AXXZA DD FLAT:??__ERMSG_ADD_PLATFORM_MENU@@YAXXZ ; RMSG_ADD_PLATFORM_MENU$initializer$
CRT$XCU	ENDS
CRT$XCU	SEGMENT
?RMSG_SETINITIALCHARTDATA$initializer$@@3P6AXXZA DD FLAT:??__ERMSG_SETINITIALCHARTDATA@@YAXXZ ; RMSG_SETINITIALCHARTDATA$initializer$
CRT$XCU	ENDS
CRT$XCU	SEGMENT
?RMSG_GETINFO$initializer$@@3P6AXXZA DD FLAT:??__ERMSG_GETINFO@@YAXXZ ; RMSG_GETINFO$initializer$
CRT$XCU	ENDS
CRT$XCU	SEGMENT
?RMSG_SETINFO$initializer$@@3P6AXXZA DD FLAT:??__ERMSG_SETINFO@@YAXXZ ; RMSG_SETINFO$initializer$
CRT$XCU	ENDS
CRT$XCU	SEGMENT
?RMSG_DRUSER$initializer$@@3P6AXXZA DD FLAT:??__ERMSG_DRUSER@@YAXXZ ; RMSG_DRUSER$initializer$
CRT$XCU	ENDS
; Function compile flags: /Ogtp
; File C:\Program Files (x86)\Microsoft Visual Studio\2019\Community\VC\Tools\MSVC\14.29.30133\atlmfc\include\afxtempl.h
; File C:\Program Files (x86)\Microsoft Visual Studio\2019\Community\VC\Tools\MSVC\14.29.30133\atlmfc\include\afx.inl
; File C:\Program Files (x86)\Microsoft Visual Studio\2019\Community\VC\Tools\MSVC\14.29.30133\atlmfc\include\afxtempl.h
; File C:\Program Files (x86)\Microsoft Visual Studio\2019\Community\VC\Tools\MSVC\14.29.30133\atlmfc\include\afx.inl
; File C:\Program Files (x86)\Microsoft Visual Studio\2019\Community\VC\Tools\MSVC\14.29.30133\atlmfc\include\afxtempl.h
; File C:\Program Files (x86)\Microsoft Visual Studio\2019\Community\VC\Tools\MSVC\14.29.30133\atlmfc\include\afx.inl
; File C:\Program Files (x86)\Microsoft Visual Studio\2019\Community\VC\Tools\MSVC\14.29.30133\atlmfc\include\afxtempl.h
;	COMDAT ??$SerializeElements@VCCodeTypeA@@@@YGXAAVCArchive@@PAVCCodeTypeA@@H@Z
_TEXT	SEGMENT
_ar$ = 8						; size = 4
_pElements$ = 12					; size = 4
_nCount$ = 16						; size = 4
??$SerializeElements@VCCodeTypeA@@@@YGXAAVCArchive@@PAVCCodeTypeA@@H@Z PROC ; SerializeElements<CCodeTypeA>, COMDAT

; 67   : {

  00000	55		 push	 ebp
  00001	8b ec		 mov	 ebp, esp

; 68   : 	ENSURE(nCount == 0 || pElements != NULL);

  00003	8b 4d 0c	 mov	 ecx, DWORD PTR _pElements$[ebp]
  00006	53		 push	 ebx
  00007	56		 push	 esi
  00008	8b 75 10	 mov	 esi, DWORD PTR _nCount$[ebp]
  0000b	57		 push	 edi
  0000c	85 f6		 test	 esi, esi
  0000e	74 04		 je	 SHORT $LN2@SerializeE
  00010	85 c9		 test	 ecx, ecx
  00012	74 7d		 je	 SHORT $LN34@SerializeE
$LN2@SerializeE:
; File C:\Program Files (x86)\Microsoft Visual Studio\2019\Community\VC\Tools\MSVC\14.29.30133\atlmfc\include\afx.inl

; 212  : 	{ return (m_nMode & CArchive::load) == 0; }

  00014	8b 55 08	 mov	 edx, DWORD PTR _ar$[ebp]
  00017	8b 42 18	 mov	 eax, DWORD PTR [edx+24]
  0001a	f7 d0		 not	 eax
  0001c	a8 01		 test	 al, 1
; File C:\Program Files (x86)\Microsoft Visual Studio\2019\Community\VC\Tools\MSVC\14.29.30133\atlmfc\include\afxtempl.h

; 73   : 	if (ar.IsStoring())

  0001e	74 32		 je	 SHORT $LN10@SerializeE

; 74   : 	{
; 75   : 		TYPE* pData;
; 76   : 		UINT_PTR nElementsLeft;
; 77   : 
; 78   : 		nElementsLeft = nCount;
; 79   : 		pData = pElements;
; 80   : 		while( nElementsLeft > 0 )

  00020	85 f6		 test	 esi, esi
  00022	74 27		 je	 SHORT $LN8@SerializeE
$LL5@SerializeE:

; 81   : 		{
; 82   : 			UINT nElementsToWrite;
; 83   : 
; 84   : 			nElementsToWrite = UINT(__min(nElementsLeft, INT_MAX/sizeof(TYPE)));

  00024	bb ff ff ff 07	 mov	 ebx, 134217727		; 07ffffffH
  00029	3b f3		 cmp	 esi, ebx
  0002b	0f 42 de	 cmovb	 ebx, esi

; 85   : 			ar.Write(pData, nElementsToWrite*sizeof(TYPE));

  0002e	8b fb		 mov	 edi, ebx
  00030	c1 e7 04	 shl	 edi, 4
  00033	57		 push	 edi
  00034	51		 push	 ecx
  00035	8b ca		 mov	 ecx, edx
  00037	e8 00 00 00 00	 call	 ?Write@CArchive@@QAEXPBXI@Z ; CArchive::Write

; 86   : 			nElementsLeft -= nElementsToWrite;
; 87   : 			pData += nElementsToWrite;

  0003c	8b 4d 0c	 mov	 ecx, DWORD PTR _pElements$[ebp]
  0003f	8b 55 08	 mov	 edx, DWORD PTR _ar$[ebp]
  00042	03 cf		 add	 ecx, edi
  00044	89 4d 0c	 mov	 DWORD PTR _pElements$[ebp], ecx
  00047	2b f3		 sub	 esi, ebx
  00049	75 d9		 jne	 SHORT $LL5@SerializeE
$LN8@SerializeE:
  0004b	5f		 pop	 edi

; 105  : 		}
; 106  : 	}
; 107  : }

  0004c	5e		 pop	 esi
  0004d	5b		 pop	 ebx
  0004e	5d		 pop	 ebp
  0004f	c2 0c 00	 ret	 12			; 0000000cH
$LN10@SerializeE:

; 97   : 		while( nElementsLeft > 0 )

  00052	85 f6		 test	 esi, esi
  00054	74 f5		 je	 SHORT $LN8@SerializeE
$LL7@SerializeE:

; 98   : 		{
; 99   : 			UINT nElementsToRead;
; 100  : 
; 101  : 			nElementsToRead = UINT(__min(nElementsLeft, INT_MAX/sizeof(TYPE)));

  00056	bb ff ff ff 07	 mov	 ebx, 134217727		; 07ffffffH
  0005b	3b f3		 cmp	 esi, ebx
  0005d	0f 42 de	 cmovb	 ebx, esi

; 102  : 			ar.EnsureRead(pData, nElementsToRead*sizeof(TYPE));

  00060	8b fb		 mov	 edi, ebx
  00062	c1 e7 04	 shl	 edi, 4
; File C:\Program Files (x86)\Microsoft Visual Studio\2019\Community\VC\Tools\MSVC\14.29.30133\atlmfc\include\afx.inl

; 399  : 	UINT nRead=Read(lpBuf, nCount);

  00065	57		 push	 edi
  00066	51		 push	 ecx
  00067	8b ca		 mov	 ecx, edx
  00069	e8 00 00 00 00	 call	 ?Read@CArchive@@QAEIPAXI@Z ; CArchive::Read

; 400  : 	if(nRead!=nCount)

  0006e	3b c7		 cmp	 eax, edi
  00070	75 16		 jne	 SHORT $LN23@SerializeE
; File C:\Program Files (x86)\Microsoft Visual Studio\2019\Community\VC\Tools\MSVC\14.29.30133\atlmfc\include\afxtempl.h

; 97   : 		while( nElementsLeft > 0 )

  00072	8b 4d 0c	 mov	 ecx, DWORD PTR _pElements$[ebp]
  00075	8b 55 08	 mov	 edx, DWORD PTR _ar$[ebp]

; 103  : 			nElementsLeft -= nElementsToRead;
; 104  : 			pData += nElementsToRead;

  00078	03 cf		 add	 ecx, edi
  0007a	89 4d 0c	 mov	 DWORD PTR _pElements$[ebp], ecx
  0007d	2b f3		 sub	 esi, ebx
  0007f	75 d5		 jne	 SHORT $LL7@SerializeE

; 105  : 		}
; 106  : 	}
; 107  : }

  00081	5f		 pop	 edi
  00082	5e		 pop	 esi
  00083	5b		 pop	 ebx
  00084	5d		 pop	 ebp
  00085	c2 0c 00	 ret	 12			; 0000000cH
$LN23@SerializeE:
; File C:\Program Files (x86)\Microsoft Visual Studio\2019\Community\VC\Tools\MSVC\14.29.30133\atlmfc\include\afx.inl

; 402  : 		AfxThrowArchiveException(CArchiveException::endOfFile);

  00088	6a 00		 push	 0
  0008a	6a 03		 push	 3
  0008c	e8 00 00 00 00	 call	 ?AfxThrowArchiveException@@YGXHPBD@Z ; AfxThrowArchiveException
$LN34@SerializeE:
; File C:\Program Files (x86)\Microsoft Visual Studio\2019\Community\VC\Tools\MSVC\14.29.30133\atlmfc\include\afxtempl.h

; 68   : 	ENSURE(nCount == 0 || pElements != NULL);

  00091	e8 00 00 00 00	 call	 ?AfxThrowInvalidArgException@@YGXXZ ; AfxThrowInvalidArgException
$LN32@SerializeE:
  00096	cc		 int	 3
??$SerializeElements@VCCodeTypeA@@@@YGXAAVCArchive@@PAVCCodeTypeA@@H@Z ENDP ; SerializeElements<CCodeTypeA>
_TEXT	ENDS
; Function compile flags: /Ogtp
; File D:\git\src\IBK\IBK_DRFN\ProjSrc\SrcDrfn\Chart\MULTICHART\TabCodeSearchWinix.cpp
; File C:\Program Files (x86)\Microsoft Visual Studio\2019\Community\VC\Tools\MSVC\14.29.30133\atlmfc\include\afxtempl.h
; File D:\git\src\IBK\IBK_DRFN\ProjSrc\SrcDrfn\Chart\MULTICHART\TabCodeSearchWinix.cpp
; File C:\Program Files (x86)\Microsoft Visual Studio\2019\Community\VC\Tools\MSVC\14.29.30133\atlmfc\include\afxtempl.h
; File D:\git\src\IBK\IBK_DRFN\ProjSrc\SrcDrfn\Chart\MULTICHART\TabCodeSearchWinix.cpp
;	COMDAT ?DoClearItemLongDataList@CTabCodeSearch@@IAEXXZ
_TEXT	SEGMENT
?DoClearItemLongDataList@CTabCodeSearch@@IAEXXZ PROC	; CTabCodeSearch::DoClearItemLongDataList, COMDAT
; _this$ = ecx

; 91   : {

  00000	53		 push	 ebx
  00001	8b d9		 mov	 ebx, ecx
  00003	56		 push	 esi

; 92   : 	for(POSITION pos=m_ItemLongDataList.GetHeadPosition(); pos; )

  00004	8b b3 e0 10 00
	00		 mov	 esi, DWORD PTR [ebx+4320]
  0000a	85 f6		 test	 esi, esi
  0000c	74 51		 je	 SHORT $LN18@DoClearIte
  0000e	57		 push	 edi
  0000f	90		 npad	 1
$LL2@DoClearIte:

; 93   : 		delete m_ItemLongDataList.GetNext(pos);

  00010	8b 7e 08	 mov	 edi, DWORD PTR [esi+8]
; File C:\Program Files (x86)\Microsoft Visual Studio\2019\Community\VC\Tools\MSVC\14.29.30133\atlmfc\include\afxtempl.h

; 813  : 		rPosition = (POSITION) pNode->pNext;

  00013	8b 36		 mov	 esi, DWORD PTR [esi]
; File D:\git\src\IBK\IBK_DRFN\ProjSrc\SrcDrfn\Chart\MULTICHART\TabCodeSearchWinix.cpp

; 93   : 		delete m_ItemLongDataList.GetNext(pos);

  00015	85 ff		 test	 edi, edi
  00017	74 41		 je	 SHORT $LN11@DoClearIte
  00019	8d 4f 18	 lea	 ecx, DWORD PTR [edi+24]
  0001c	ff 15 00 00 00
	00		 call	 DWORD PTR __imp_??1?$CStringT@DV?$StrTraitMFC_DLL@DV?$ChTraitsCRT@D@ATL@@@@@ATL@@QAE@XZ
  00022	8d 4f 14	 lea	 ecx, DWORD PTR [edi+20]
  00025	ff 15 00 00 00
	00		 call	 DWORD PTR __imp_??1?$CStringT@DV?$StrTraitMFC_DLL@DV?$ChTraitsCRT@D@ATL@@@@@ATL@@QAE@XZ
  0002b	8d 4f 10	 lea	 ecx, DWORD PTR [edi+16]
  0002e	ff 15 00 00 00
	00		 call	 DWORD PTR __imp_??1?$CStringT@DV?$StrTraitMFC_DLL@DV?$ChTraitsCRT@D@ATL@@@@@ATL@@QAE@XZ
  00034	8d 4f 0c	 lea	 ecx, DWORD PTR [edi+12]
  00037	ff 15 00 00 00
	00		 call	 DWORD PTR __imp_??1?$CStringT@DV?$StrTraitMFC_DLL@DV?$ChTraitsCRT@D@ATL@@@@@ATL@@QAE@XZ
  0003d	8d 4f 08	 lea	 ecx, DWORD PTR [edi+8]
  00040	ff 15 00 00 00
	00		 call	 DWORD PTR __imp_??1?$CStringT@DV?$StrTraitMFC_DLL@DV?$ChTraitsCRT@D@ATL@@@@@ATL@@QAE@XZ
  00046	8d 4f 04	 lea	 ecx, DWORD PTR [edi+4]
  00049	ff 15 00 00 00
	00		 call	 DWORD PTR __imp_??1?$CStringT@DV?$StrTraitMFC_DLL@DV?$ChTraitsCRT@D@ATL@@@@@ATL@@QAE@XZ
  0004f	6a 28		 push	 40			; 00000028H
  00051	57		 push	 edi
  00052	e8 00 00 00 00	 call	 ??3@YAXPAXI@Z		; operator delete
  00057	83 c4 08	 add	 esp, 8
$LN11@DoClearIte:

; 92   : 	for(POSITION pos=m_ItemLongDataList.GetHeadPosition(); pos; )

  0005a	85 f6		 test	 esi, esi
  0005c	75 b2		 jne	 SHORT $LL2@DoClearIte
  0005e	5f		 pop	 edi
$LN18@DoClearIte:
; File C:\Program Files (x86)\Microsoft Visual Studio\2019\Community\VC\Tools\MSVC\14.29.30133\atlmfc\include\afxtempl.h

; 872  : 	m_pBlocks->FreeDataChain();

  0005f	8b 8b f0 10 00
	00		 mov	 ecx, DWORD PTR [ebx+4336]
  00065	c7 83 e8 10 00
	00 00 00 00 00	 mov	 DWORD PTR [ebx+4328], 0
  0006f	c7 83 ec 10 00
	00 00 00 00 00	 mov	 DWORD PTR [ebx+4332], 0
  00079	c7 83 e4 10 00
	00 00 00 00 00	 mov	 DWORD PTR [ebx+4324], 0
  00083	c7 83 e0 10 00
	00 00 00 00 00	 mov	 DWORD PTR [ebx+4320], 0
  0008d	e8 00 00 00 00	 call	 ?FreeDataChain@CPlex@@QAEXXZ ; CPlex::FreeDataChain

; 873  : 	m_pBlocks = NULL;

  00092	5e		 pop	 esi
  00093	c7 83 f0 10 00
	00 00 00 00 00	 mov	 DWORD PTR [ebx+4336], 0
  0009d	5b		 pop	 ebx
; File D:\git\src\IBK\IBK_DRFN\ProjSrc\SrcDrfn\Chart\MULTICHART\TabCodeSearchWinix.cpp

; 95   : }

  0009e	c3		 ret	 0
?DoClearItemLongDataList@CTabCodeSearch@@IAEXXZ ENDP	; CTabCodeSearch::DoClearItemLongDataList
_TEXT	ENDS
; Function compile flags: /Ogtp
; File D:\git\src\IBK\IBK_DRFN\ProjSrc\SrcDrfn\Chart\MULTICHART\TabCodeSearchWinix.cpp
; File C:\Program Files (x86)\Microsoft Visual Studio\2019\Community\VC\Tools\MSVC\14.29.30133\atlmfc\include\afxcmn.inl
; File D:\git\src\IBK\IBK_DRFN\ProjSrc\SrcDrfn\Chart\MULTICHART\TabCodeSearchWinix.cpp
; File C:\Program Files (x86)\Microsoft Visual Studio\2019\Community\VC\Tools\MSVC\14.29.30133\atlmfc\include\afxcmn.inl
; File D:\git\src\IBK\IBK_DRFN\ProjSrc\SrcDrfn\Chart\MULTICHART\TabCodeSearchWinix.cpp
; File C:\Program Files (x86)\Microsoft Visual Studio\2019\Community\VC\Tools\MSVC\14.29.30133\atlmfc\include\afxcmn.inl
; File D:\git\src\IBK\IBK_DRFN\ProjSrc\SrcDrfn\Chart\MULTICHART\TabCodeSearchWinix.cpp
;	COMDAT ?DoDeleteTreeItem@CTabCodeSearch@@IAEXPAVCTreeCtrl@@AAV?$CStringT@DV?$StrTraitMFC_DLL@DV?$ChTraitsCRT@D@ATL@@@@@ATL@@@Z
_TEXT	SEGMENT
$T2 = -16						; size = 4
__$EHRec$ = -12						; size = 12
_szChildText$ = 8					; size = 4
_pTreeCtrl$ = 8						; size = 4
_szRemain$ = 12						; size = 4
?DoDeleteTreeItem@CTabCodeSearch@@IAEXPAVCTreeCtrl@@AAV?$CStringT@DV?$StrTraitMFC_DLL@DV?$ChTraitsCRT@D@ATL@@@@@ATL@@@Z PROC ; CTabCodeSearch::DoDeleteTreeItem, COMDAT
; _this$ = ecx

; 70   : {

  00000	55		 push	 ebp
  00001	8b ec		 mov	 ebp, esp
  00003	6a ff		 push	 -1
  00005	68 00 00 00 00	 push	 __ehhandler$?DoDeleteTreeItem@CTabCodeSearch@@IAEXPAVCTreeCtrl@@AAV?$CStringT@DV?$StrTraitMFC_DLL@DV?$ChTraitsCRT@D@ATL@@@@@ATL@@@Z
  0000a	64 a1 00 00 00
	00		 mov	 eax, DWORD PTR fs:0
  00010	50		 push	 eax
  00011	51		 push	 ecx
  00012	53		 push	 ebx
  00013	56		 push	 esi
  00014	57		 push	 edi
  00015	a1 00 00 00 00	 mov	 eax, DWORD PTR ___security_cookie
  0001a	33 c5		 xor	 eax, ebp
  0001c	50		 push	 eax
  0001d	8d 45 f4	 lea	 eax, DWORD PTR __$EHRec$[ebp]
  00020	64 a3 00 00 00
	00		 mov	 DWORD PTR fs:0, eax
; File C:\Program Files (x86)\Microsoft Visual Studio\2019\Community\VC\Tools\MSVC\14.29.30133\atlmfc\include\afxcmn.inl

; 322  : 	{ ASSERT(::IsWindow(m_hWnd)); return (HTREEITEM)::SendMessage(m_hWnd, TVM_GETNEXTITEM, TVGN_ROOT, 0); }

  00026	8b 5d 08	 mov	 ebx, DWORD PTR _pTreeCtrl$[ebp]
  00029	8b 3d 00 00 00
	00		 mov	 edi, DWORD PTR __imp__SendMessageA@16
  0002f	6a 00		 push	 0
  00031	6a 00		 push	 0
  00033	68 0a 11 00 00	 push	 4362			; 0000110aH
  00038	ff 73 20	 push	 DWORD PTR [ebx+32]
  0003b	ff d7		 call	 edi
; File D:\git\src\IBK\IBK_DRFN\ProjSrc\SrcDrfn\Chart\MULTICHART\TabCodeSearchWinix.cpp

; 71   : 	HTREEITEM hTreeRoot= pTreeCtrl->GetRootItem();

  0003d	8b f0		 mov	 esi, eax

; 72   : 	if(!hTreeRoot) return;

  0003f	85 f6		 test	 esi, esi
  00041	74 7e		 je	 SHORT $LN1@DoDeleteTr

; 73   : 
; 74   : 	HTREEITEM hNextItem;
; 75   : 	HTREEITEM hChildItem = hTreeRoot;//pTreeCtrl->GetChildItem(hTreeRoot);
; 76   : 	CString szChildText;

  00043	8d 4d 08	 lea	 ecx, DWORD PTR _szChildText$[ebp]
  00046	ff 15 00 00 00
	00		 call	 DWORD PTR __imp_??0?$CStringT@DV?$StrTraitMFC_DLL@DV?$ChTraitsCRT@D@ATL@@@@@ATL@@QAE@XZ
  0004c	c7 45 fc 00 00
	00 00		 mov	 DWORD PTR __$EHRec$[ebp+8], 0
$LL2@DoDeleteTr:
; File C:\Program Files (x86)\Microsoft Visual Studio\2019\Community\VC\Tools\MSVC\14.29.30133\atlmfc\include\afxcmn.inl

; 298  : 	{ ASSERT(::IsWindow(m_hWnd)); return (HTREEITEM)::SendMessage(m_hWnd, TVM_GETNEXTITEM, nCode, (LPARAM)hItem); }

  00053	56		 push	 esi
  00054	6a 01		 push	 1
  00056	68 0a 11 00 00	 push	 4362			; 0000110aH
  0005b	ff 73 20	 push	 DWORD PTR [ebx+32]
  0005e	ff d7		 call	 edi
; File D:\git\src\IBK\IBK_DRFN\ProjSrc\SrcDrfn\Chart\MULTICHART\TabCodeSearchWinix.cpp

; 80   : 		hNextItem = pTreeCtrl->GetNextItem(hChildItem, TVGN_NEXT);

  00060	8b f8		 mov	 edi, eax

; 81   : 
; 82   : 		szChildText = pTreeCtrl->GetItemText(hChildItem);

  00062	8b cb		 mov	 ecx, ebx
  00064	56		 push	 esi
  00065	8d 45 f0	 lea	 eax, DWORD PTR $T2[ebp]
  00068	50		 push	 eax
  00069	e8 00 00 00 00	 call	 ?GetItemText@CTreeCtrl@@QBE?AV?$CStringT@DV?$StrTraitMFC_DLL@DV?$ChTraitsCRT@D@ATL@@@@@ATL@@PAU_TREEITEM@@@Z ; CTreeCtrl::GetItemText
  0006e	50		 push	 eax
  0006f	8d 4d 08	 lea	 ecx, DWORD PTR _szChildText$[ebp]
  00072	c6 45 fc 01	 mov	 BYTE PTR __$EHRec$[ebp+8], 1
  00076	ff 15 00 00 00
	00		 call	 DWORD PTR __imp_??4?$CStringT@DV?$StrTraitMFC_DLL@DV?$ChTraitsCRT@D@ATL@@@@@ATL@@QAEAAV01@ABV01@@Z
  0007c	8d 4d f0	 lea	 ecx, DWORD PTR $T2[ebp]
  0007f	c6 45 fc 00	 mov	 BYTE PTR __$EHRec$[ebp+8], 0
  00083	ff 15 00 00 00
	00		 call	 DWORD PTR __imp_??1?$CStringT@DV?$StrTraitMFC_DLL@DV?$ChTraitsCRT@D@ATL@@@@@ATL@@QAE@XZ

; 83   : 		if(szChildText.CompareNoCase(szRemain) !=0 )

  00089	8b 45 0c	 mov	 eax, DWORD PTR _szRemain$[ebp]
  0008c	8d 4d 08	 lea	 ecx, DWORD PTR _szChildText$[ebp]
  0008f	ff 30		 push	 DWORD PTR [eax]
  00091	ff 15 00 00 00
	00		 call	 DWORD PTR __imp_?CompareNoCase@?$CStringT@DV?$StrTraitMFC_DLL@DV?$ChTraitsCRT@D@ATL@@@@@ATL@@QBEHPBD@Z
  00097	85 c0		 test	 eax, eax
  00099	74 11		 je	 SHORT $LN5@DoDeleteTr
; File C:\Program Files (x86)\Microsoft Visual Studio\2019\Community\VC\Tools\MSVC\14.29.30133\atlmfc\include\afxcmn.inl

; 273  : 	{ ASSERT(::IsWindow(m_hWnd)); return (BOOL)::SendMessage(m_hWnd, TVM_DELETEITEM, 0, (LPARAM)hItem); }

  0009b	56		 push	 esi
  0009c	6a 00		 push	 0
  0009e	68 01 11 00 00	 push	 4353			; 00001101H
  000a3	ff 73 20	 push	 DWORD PTR [ebx+32]
  000a6	ff 15 00 00 00
	00		 call	 DWORD PTR __imp__SendMessageA@16
$LN5@DoDeleteTr:
; File D:\git\src\IBK\IBK_DRFN\ProjSrc\SrcDrfn\Chart\MULTICHART\TabCodeSearchWinix.cpp

; 86   : 		hChildItem = hNextItem;

  000ac	8b f7		 mov	 esi, edi
  000ae	85 ff		 test	 edi, edi
  000b0	8b 3d 00 00 00
	00		 mov	 edi, DWORD PTR __imp__SendMessageA@16
  000b6	75 9b		 jne	 SHORT $LL2@DoDeleteTr

; 87   : 	}
; 88   : }

  000b8	8d 4d 08	 lea	 ecx, DWORD PTR _szChildText$[ebp]
  000bb	ff 15 00 00 00
	00		 call	 DWORD PTR __imp_??1?$CStringT@DV?$StrTraitMFC_DLL@DV?$ChTraitsCRT@D@ATL@@@@@ATL@@QAE@XZ
$LN1@DoDeleteTr:
  000c1	8b 4d f4	 mov	 ecx, DWORD PTR __$EHRec$[ebp]
  000c4	64 89 0d 00 00
	00 00		 mov	 DWORD PTR fs:0, ecx
  000cb	59		 pop	 ecx
  000cc	5f		 pop	 edi
  000cd	5e		 pop	 esi
  000ce	5b		 pop	 ebx
  000cf	8b e5		 mov	 esp, ebp
  000d1	5d		 pop	 ebp
  000d2	c2 08 00	 ret	 8
_TEXT	ENDS
;	COMDAT text$x
text$x	SEGMENT
__unwindfunclet$?DoDeleteTreeItem@CTabCodeSearch@@IAEXPAVCTreeCtrl@@AAV?$CStringT@DV?$StrTraitMFC_DLL@DV?$ChTraitsCRT@D@ATL@@@@@ATL@@@Z$0:
  00000	8d 4d 08	 lea	 ecx, DWORD PTR _szChildText$[ebp]
  00003	ff 25 00 00 00
	00		 jmp	 DWORD PTR __imp_??1?$CStringT@DV?$StrTraitMFC_DLL@DV?$ChTraitsCRT@D@ATL@@@@@ATL@@QAE@XZ
__unwindfunclet$?DoDeleteTreeItem@CTabCodeSearch@@IAEXPAVCTreeCtrl@@AAV?$CStringT@DV?$StrTraitMFC_DLL@DV?$ChTraitsCRT@D@ATL@@@@@ATL@@@Z$1:
  00009	8d 4d f0	 lea	 ecx, DWORD PTR $T2[ebp]
  0000c	ff 25 00 00 00
	00		 jmp	 DWORD PTR __imp_??1?$CStringT@DV?$StrTraitMFC_DLL@DV?$ChTraitsCRT@D@ATL@@@@@ATL@@QAE@XZ
  00012	cc		 int	 3
  00013	cc		 int	 3
  00014	cc		 int	 3
  00015	cc		 int	 3
  00016	cc		 int	 3
__ehhandler$?DoDeleteTreeItem@CTabCodeSearch@@IAEXPAVCTreeCtrl@@AAV?$CStringT@DV?$StrTraitMFC_DLL@DV?$ChTraitsCRT@D@ATL@@@@@ATL@@@Z:
  00017	90		 npad	 1
  00018	90		 npad	 1
  00019	8b 54 24 08	 mov	 edx, DWORD PTR [esp+8]
  0001d	8d 42 0c	 lea	 eax, DWORD PTR [edx+12]
  00020	8b 4a ec	 mov	 ecx, DWORD PTR [edx-20]
  00023	33 c8		 xor	 ecx, eax
  00025	e8 00 00 00 00	 call	 @__security_check_cookie@4
  0002a	b8 00 00 00 00	 mov	 eax, OFFSET __ehfuncinfo$?DoDeleteTreeItem@CTabCodeSearch@@IAEXPAVCTreeCtrl@@AAV?$CStringT@DV?$StrTraitMFC_DLL@DV?$ChTraitsCRT@D@ATL@@@@@ATL@@@Z
  0002f	e9 00 00 00 00	 jmp	 ___CxxFrameHandler3
text$x	ENDS
?DoDeleteTreeItem@CTabCodeSearch@@IAEXPAVCTreeCtrl@@AAV?$CStringT@DV?$StrTraitMFC_DLL@DV?$ChTraitsCRT@D@ATL@@@@@ATL@@@Z ENDP ; CTabCodeSearch::DoDeleteTreeItem
; Function compile flags: /Ogtp
; File C:\Program Files (x86)\Microsoft Visual Studio\2019\Community\VC\Tools\MSVC\14.29.30133\atlmfc\include\afxtempl.h
;	COMDAT ?NewNode@?$CList@PAVCItemLongData@@PAV1@@@IAEPAUCNode@1@PAU21@0@Z
_TEXT	SEGMENT
_pPrev$ = 8						; size = 4
_pNext$ = 12						; size = 4
?NewNode@?$CList@PAVCItemLongData@@PAV1@@@IAEPAUCNode@1@PAU21@0@Z PROC ; CList<CItemLongData *,CItemLongData *>::NewNode, COMDAT
; _this$ = ecx

; 901  : {

  00000	55		 push	 ebp
  00001	8b ec		 mov	 ebp, esp
  00003	56		 push	 esi
  00004	8b f1		 mov	 esi, ecx

; 902  : 	if (m_pNodeFree == NULL)

  00006	83 7e 10 00	 cmp	 DWORD PTR [esi+16], 0
  0000a	75 34		 jne	 SHORT $LN7@NewNode

; 903  : 	{
; 904  : 		// add another block
; 905  : 		CPlex* pNewBlock = CPlex::Create(m_pBlocks, m_nBlockSize,

  0000c	6a 0c		 push	 12			; 0000000cH
  0000e	ff 76 18	 push	 DWORD PTR [esi+24]
  00011	8d 46 14	 lea	 eax, DWORD PTR [esi+20]
  00014	50		 push	 eax
  00015	e8 00 00 00 00	 call	 ?Create@CPlex@@SGPAU1@AAPAU1@II@Z ; CPlex::Create

; 906  : 				 sizeof(CNode));
; 907  : 
; 908  : 		// chain them into free list
; 909  : 		CNode* pNode = (CNode*) pNewBlock->data();
; 910  : 		// free in reverse order to make it easier to debug
; 911  : 		pNode += m_nBlockSize - 1;

  0001a	8b 56 18	 mov	 edx, DWORD PTR [esi+24]
  0001d	83 c0 08	 add	 eax, 8
  00020	8d 0c 52	 lea	 ecx, DWORD PTR [edx+edx*2]
  00023	8d 04 88	 lea	 eax, DWORD PTR [eax+ecx*4]
  00026	83 c0 f4	 add	 eax, -12		; fffffff4H

; 912  : 		for (INT_PTR i = m_nBlockSize-1; i >= 0; i--, pNode--)

  00029	83 c2 ff	 add	 edx, -1
  0002c	78 12		 js	 SHORT $LN7@NewNode
  0002e	66 90		 npad	 2
$LL4@NewNode:

; 913  : 		{
; 914  : 			pNode->pNext = m_pNodeFree;

  00030	8b 4e 10	 mov	 ecx, DWORD PTR [esi+16]
  00033	89 08		 mov	 DWORD PTR [eax], ecx

; 915  : 			m_pNodeFree = pNode;

  00035	89 46 10	 mov	 DWORD PTR [esi+16], eax
  00038	83 e8 0c	 sub	 eax, 12			; 0000000cH
  0003b	83 ea 01	 sub	 edx, 1
  0003e	79 f0		 jns	 SHORT $LL4@NewNode
$LN7@NewNode:

; 916  : 		}
; 917  : 	}
; 918  : 	ENSURE(m_pNodeFree != NULL);  // we must have something

  00040	8b 46 10	 mov	 eax, DWORD PTR [esi+16]
  00043	85 c0		 test	 eax, eax
  00045	74 18		 je	 SHORT $LN17@NewNode

; 919  : 
; 920  : 	CList::CNode* pNode = m_pNodeFree;
; 921  : 	m_pNodeFree = m_pNodeFree->pNext;

  00047	8b 08		 mov	 ecx, DWORD PTR [eax]
  00049	89 4e 10	 mov	 DWORD PTR [esi+16], ecx

; 922  : 	pNode->pPrev = pPrev;

  0004c	8b 4d 08	 mov	 ecx, DWORD PTR _pPrev$[ebp]
  0004f	89 48 04	 mov	 DWORD PTR [eax+4], ecx

; 923  : 	pNode->pNext = pNext;

  00052	8b 4d 0c	 mov	 ecx, DWORD PTR _pNext$[ebp]
  00055	89 08		 mov	 DWORD PTR [eax], ecx

; 924  : 	m_nCount++;

  00057	ff 46 0c	 inc	 DWORD PTR [esi+12]

; 925  : 	ASSERT(m_nCount > 0);  // make sure we don't overflow
; 926  : 
; 927  : #pragma push_macro("new")
; 928  : #undef new
; 929  : 	::new( (void*)( &pNode->data ) ) TYPE;
; 930  : #pragma pop_macro("new")
; 931  : 	return pNode;

  0005a	5e		 pop	 esi

; 932  : }

  0005b	5d		 pop	 ebp
  0005c	c2 08 00	 ret	 8
$LN17@NewNode:

; 916  : 		}
; 917  : 	}
; 918  : 	ENSURE(m_pNodeFree != NULL);  // we must have something

  0005f	e8 00 00 00 00	 call	 ?AfxThrowInvalidArgException@@YGXXZ ; AfxThrowInvalidArgException
$LN15@NewNode:
  00064	cc		 int	 3
?NewNode@?$CList@PAVCItemLongData@@PAV1@@@IAEPAUCNode@1@PAU21@0@Z ENDP ; CList<CItemLongData *,CItemLongData *>::NewNode
_TEXT	ENDS
; Function compile flags: /Ogtp
; File C:\Program Files (x86)\Microsoft Visual Studio\2019\Community\VC\Tools\MSVC\14.29.30133\atlmfc\include\afxtempl.h
;	COMDAT ?RemoveAll@?$CList@PAVCItemLongData@@PAV1@@@QAEXXZ
_TEXT	SEGMENT
?RemoveAll@?$CList@PAVCItemLongData@@PAV1@@@QAEXXZ PROC	; CList<CItemLongData *,CItemLongData *>::RemoveAll, COMDAT
; _this$ = ecx

; 862  : {

  00000	56		 push	 esi
  00001	8b f1		 mov	 esi, ecx

; 863  : 	ASSERT_VALID(this);
; 864  : 
; 865  : 	// destroy elements
; 866  : 	CNode* pNode;
; 867  : 	for (pNode = m_pNodeHead; pNode != NULL; pNode = pNode->pNext)
; 868  : 		pNode->data.~TYPE();
; 869  : 
; 870  : 	m_nCount = 0;
; 871  : 	m_pNodeHead = m_pNodeTail = m_pNodeFree = NULL;
; 872  : 	m_pBlocks->FreeDataChain();

  00003	8b 4e 14	 mov	 ecx, DWORD PTR [esi+20]
  00006	c7 46 0c 00 00
	00 00		 mov	 DWORD PTR [esi+12], 0
  0000d	c7 46 10 00 00
	00 00		 mov	 DWORD PTR [esi+16], 0
  00014	c7 46 08 00 00
	00 00		 mov	 DWORD PTR [esi+8], 0
  0001b	c7 46 04 00 00
	00 00		 mov	 DWORD PTR [esi+4], 0
  00022	e8 00 00 00 00	 call	 ?FreeDataChain@CPlex@@QAEXXZ ; CPlex::FreeDataChain

; 873  : 	m_pBlocks = NULL;

  00027	c7 46 14 00 00
	00 00		 mov	 DWORD PTR [esi+20], 0
  0002e	5e		 pop	 esi

; 874  : }

  0002f	c3		 ret	 0
?RemoveAll@?$CList@PAVCItemLongData@@PAV1@@@QAEXXZ ENDP	; CList<CItemLongData *,CItemLongData *>::RemoveAll
_TEXT	ENDS
; Function compile flags: /Ogtp
; File C:\Program Files (x86)\Microsoft Visual Studio\2019\Community\VC\Tools\MSVC\14.29.30133\atlmfc\include\afxtempl.h
;	COMDAT ?AddTail@?$CList@PAVCItemLongData@@PAV1@@@QAEPAU__POSITION@@PAVCItemLongData@@@Z
_TEXT	SEGMENT
_newElement$ = 8					; size = 4
?AddTail@?$CList@PAVCItemLongData@@PAV1@@@QAEPAU__POSITION@@PAVCItemLongData@@@Z PROC ; CList<CItemLongData *,CItemLongData *>::AddTail, COMDAT
; _this$ = ecx

; 965  : {

  00000	55		 push	 ebp
  00001	8b ec		 mov	 ebp, esp
  00003	56		 push	 esi
  00004	8b f1		 mov	 esi, ecx
  00006	57		 push	 edi

; 902  : 	if (m_pNodeFree == NULL)

  00007	83 7e 10 00	 cmp	 DWORD PTR [esi+16], 0

; 966  : 	ASSERT_VALID(this);
; 967  : 
; 968  : 	CNode* pNewNode = NewNode(m_pNodeTail, NULL);

  0000b	8b 7e 08	 mov	 edi, DWORD PTR [esi+8]

; 902  : 	if (m_pNodeFree == NULL)

  0000e	75 32		 jne	 SHORT $LN11@AddTail

; 903  : 	{
; 904  : 		// add another block
; 905  : 		CPlex* pNewBlock = CPlex::Create(m_pBlocks, m_nBlockSize,

  00010	6a 0c		 push	 12			; 0000000cH
  00012	ff 76 18	 push	 DWORD PTR [esi+24]
  00015	8d 46 14	 lea	 eax, DWORD PTR [esi+20]
  00018	50		 push	 eax
  00019	e8 00 00 00 00	 call	 ?Create@CPlex@@SGPAU1@AAPAU1@II@Z ; CPlex::Create

; 906  : 				 sizeof(CNode));
; 907  : 
; 908  : 		// chain them into free list
; 909  : 		CNode* pNode = (CNode*) pNewBlock->data();
; 910  : 		// free in reverse order to make it easier to debug
; 911  : 		pNode += m_nBlockSize - 1;

  0001e	8b 56 18	 mov	 edx, DWORD PTR [esi+24]
  00021	83 c0 08	 add	 eax, 8
  00024	8d 4a ff	 lea	 ecx, DWORD PTR [edx-1]

; 912  : 		for (INT_PTR i = m_nBlockSize-1; i >= 0; i--, pNode--)

  00027	83 c2 ff	 add	 edx, -1
  0002a	8d 0c 49	 lea	 ecx, DWORD PTR [ecx+ecx*2]
  0002d	8d 0c 88	 lea	 ecx, DWORD PTR [eax+ecx*4]
  00030	78 10		 js	 SHORT $LN11@AddTail
$LL8@AddTail:

; 913  : 		{
; 914  : 			pNode->pNext = m_pNodeFree;

  00032	8b 46 10	 mov	 eax, DWORD PTR [esi+16]
  00035	89 01		 mov	 DWORD PTR [ecx], eax

; 915  : 			m_pNodeFree = pNode;

  00037	89 4e 10	 mov	 DWORD PTR [esi+16], ecx
  0003a	83 e9 0c	 sub	 ecx, 12			; 0000000cH
  0003d	83 ea 01	 sub	 edx, 1
  00040	79 f0		 jns	 SHORT $LL8@AddTail
$LN11@AddTail:

; 916  : 		}
; 917  : 	}
; 918  : 	ENSURE(m_pNodeFree != NULL);  // we must have something

  00042	8b 4e 10	 mov	 ecx, DWORD PTR [esi+16]
  00045	85 c9		 test	 ecx, ecx
  00047	74 39		 je	 SHORT $LN22@AddTail

; 919  : 
; 920  : 	CList::CNode* pNode = m_pNodeFree;
; 921  : 	m_pNodeFree = m_pNodeFree->pNext;

  00049	8b 01		 mov	 eax, DWORD PTR [ecx]
  0004b	89 46 10	 mov	 DWORD PTR [esi+16], eax

; 969  : 	pNewNode->data = newElement;

  0004e	8b 45 08	 mov	 eax, DWORD PTR _newElement$[ebp]

; 922  : 	pNode->pPrev = pPrev;

  00051	89 79 04	 mov	 DWORD PTR [ecx+4], edi

; 923  : 	pNode->pNext = pNext;

  00054	c7 01 00 00 00
	00		 mov	 DWORD PTR [ecx], 0

; 924  : 	m_nCount++;

  0005a	ff 46 0c	 inc	 DWORD PTR [esi+12]

; 969  : 	pNewNode->data = newElement;

  0005d	89 41 08	 mov	 DWORD PTR [ecx+8], eax

; 970  : 	if (m_pNodeTail != NULL)

  00060	8b 46 08	 mov	 eax, DWORD PTR [esi+8]
  00063	85 c0		 test	 eax, eax
  00065	74 0d		 je	 SHORT $LN2@AddTail

; 971  : 		m_pNodeTail->pNext = pNewNode;

  00067	89 08		 mov	 DWORD PTR [eax], ecx

; 972  : 	else
; 973  : 		m_pNodeHead = pNewNode;
; 974  : 	m_pNodeTail = pNewNode;
; 975  : 	return (POSITION) pNewNode;

  00069	8b c1		 mov	 eax, ecx
  0006b	5f		 pop	 edi
  0006c	89 4e 08	 mov	 DWORD PTR [esi+8], ecx
  0006f	5e		 pop	 esi

; 976  : }

  00070	5d		 pop	 ebp
  00071	c2 04 00	 ret	 4
$LN2@AddTail:

; 972  : 	else
; 973  : 		m_pNodeHead = pNewNode;
; 974  : 	m_pNodeTail = pNewNode;
; 975  : 	return (POSITION) pNewNode;

  00074	5f		 pop	 edi
  00075	89 4e 04	 mov	 DWORD PTR [esi+4], ecx
  00078	8b c1		 mov	 eax, ecx
  0007a	89 4e 08	 mov	 DWORD PTR [esi+8], ecx
  0007d	5e		 pop	 esi

; 976  : }

  0007e	5d		 pop	 ebp
  0007f	c2 04 00	 ret	 4
$LN22@AddTail:

; 918  : 	ENSURE(m_pNodeFree != NULL);  // we must have something

  00082	e8 00 00 00 00	 call	 ?AfxThrowInvalidArgException@@YGXXZ ; AfxThrowInvalidArgException
$LN20@AddTail:
  00087	cc		 int	 3
?AddTail@?$CList@PAVCItemLongData@@PAV1@@@QAEPAU__POSITION@@PAVCItemLongData@@@Z ENDP ; CList<CItemLongData *,CItemLongData *>::AddTail
_TEXT	ENDS
; Function compile flags: /Ogtp
; File D:\git\src\IBK\IBK_DRFN\ProjSrc\SrcDrfn\Chart\MULTICHART\TabCodeSearchWinix.cpp
;	COMDAT ?OnWinixNotifySaveCode@CTabCodeSearch@@IAEJIJ@Z
_TEXT	SEGMENT
_wParam$ = 8						; size = 4
_lParam$ = 12						; size = 4
?OnWinixNotifySaveCode@CTabCodeSearch@@IAEJIJ@Z PROC	; CTabCodeSearch::OnWinixNotifySaveCode, COMDAT
; _this$ = ecx

; 140  : //	OutputDebugString("CTabCodeSearch::OnWinixNotifySaveCode\n");
; 141  : 	return 0L;

  00000	33 c0		 xor	 eax, eax

; 142  : }

  00002	c2 08 00	 ret	 8
?OnWinixNotifySaveCode@CTabCodeSearch@@IAEJIJ@Z ENDP	; CTabCodeSearch::OnWinixNotifySaveCode
_TEXT	ENDS
; Function compile flags: /Ogtp
; File D:\git\src\IBK\IBK_DRFN\ProjSrc\SrcDrfn\Chart\MULTICHART\TabCodeSearchWinix.cpp
;	COMDAT ?OnWinixNotifyGroupList@CTabCodeSearch@@IAEJIJ@Z
_TEXT	SEGMENT
_wParam$ = 8						; size = 4
_lParam$ = 12						; size = 4
?OnWinixNotifyGroupList@CTabCodeSearch@@IAEJIJ@Z PROC	; CTabCodeSearch::OnWinixNotifyGroupList, COMDAT
; _this$ = ecx

; 135  : //	OutputDebugString("CTabCodeSearch::OnWinixNotifyGroupList\n");
; 136  : 	return 0L;

  00000	33 c0		 xor	 eax, eax

; 137  : }

  00002	c2 08 00	 ret	 8
?OnWinixNotifyGroupList@CTabCodeSearch@@IAEJIJ@Z ENDP	; CTabCodeSearch::OnWinixNotifyGroupList
_TEXT	ENDS
; Function compile flags: /Ogtp
; File D:\git\src\IBK\IBK_DRFN\ProjSrc\SrcDrfn\Chart\MULTICHART\TabCodeSearchWinix.cpp
; File D:\git\src\IBK\IBK_DRFN\ProjSrc\SrcDrfn\inc\IBaseDefine.h
; File D:\git\src\IBK\IBK_DRFN\ProjSrc\SrcDrfn\Chart\MULTICHART\TabCodeSearchWinix.cpp
; File C:\Program Files (x86)\Microsoft Visual Studio\2019\Community\VC\Tools\MSVC\14.29.30133\atlmfc\include\afxtempl.h
; File D:\git\src\IBK\IBK_DRFN\ProjSrc\SrcDrfn\Chart\MULTICHART\TabCodeSearchWinix.cpp
; File C:\Program Files (x86)\Microsoft Visual Studio\2019\Community\VC\Tools\MSVC\14.29.30133\atlmfc\include\afxcoll.inl
; File D:\git\src\IBK\IBK_DRFN\ProjSrc\SrcDrfn\Chart\MULTICHART\TabCodeSearchWinix.cpp
; File C:\Program Files (x86)\Microsoft Visual Studio\2019\Community\VC\Tools\MSVC\14.29.30133\atlmfc\include\afxcoll.inl
; File D:\git\src\IBK\IBK_DRFN\ProjSrc\SrcDrfn\Chart\MULTICHART\TabCodeSearchWinix.cpp
; File D:\git\src\IBK\IBK_DRFN\ProjSrc\SrcDrfn\inc\ITreeListMng.h
; File D:\git\src\IBK\IBK_DRFN\ProjSrc\SrcDrfn\Chart\MULTICHART\TabCodeSearchWinix.cpp
; File C:\Program Files (x86)\Microsoft Visual Studio\2019\Community\VC\Tools\MSVC\14.29.30133\atlmfc\include\atlsimpstr.h
; File D:\git\src\IBK\IBK_DRFN\ProjSrc\SrcDrfn\Chart\MULTICHART\TabCodeSearchWinix.cpp
; File C:\Program Files (x86)\Microsoft Visual Studio\2019\Community\VC\Tools\MSVC\14.29.30133\atlmfc\include\afxcoll.inl
; File D:\git\src\IBK\IBK_DRFN\ProjSrc\SrcDrfn\Chart\MULTICHART\TabCodeSearchWinix.cpp
; File C:\Program Files (x86)\Microsoft Visual Studio\2019\Community\VC\Tools\MSVC\14.29.30133\atlmfc\include\afxtempl.h
; File D:\git\src\IBK\IBK_DRFN\ProjSrc\SrcDrfn\Chart\MULTICHART\TabCodeSearchWinix.cpp
; File C:\Program Files (x86)\Microsoft Visual Studio\2019\Community\VC\Tools\MSVC\14.29.30133\atlmfc\include\afxtempl.h
; File D:\git\src\IBK\IBK_DRFN\ProjSrc\SrcDrfn\Chart\MULTICHART\TabCodeSearchWinix.cpp
; File C:\Program Files (x86)\Microsoft Visual Studio\2019\Community\VC\Tools\MSVC\14.29.30133\atlmfc\include\afxcoll.inl
; File D:\git\src\IBK\IBK_DRFN\ProjSrc\SrcDrfn\Chart\MULTICHART\TabCodeSearchWinix.cpp
;	COMDAT ?OnWinixNotifyGroup@CTabCodeSearch@@IAEJIJ@Z
_TEXT	SEGMENT
_szItemList$ = -128					; size = 28
_this$ = -100						; size = 4
_this$GSCopy$1$ = -96					; size = 4
$T2 = -92						; size = 4
_ListTypeA$3 = -88					; size = 28
_szGroup$ = -60						; size = 4
_hMainWnd$4 = -56					; size = 4
_typeA$5 = -52						; size = 16
_szClipFormat$6 = -36					; size = 4
_szItem$7 = -32						; size = 4
_aBufWnd$8 = -28					; size = 9
__$ArrayPad$ = -16					; size = 4
__$EHRec$ = -12						; size = 12
_wParam$ = 8						; size = 4
_lParam$ = 12						; size = 4
?OnWinixNotifyGroup@CTabCodeSearch@@IAEJIJ@Z PROC	; CTabCodeSearch::OnWinixNotifyGroup, COMDAT
; _this$ = ecx

; 98   : {

  00000	55		 push	 ebp
  00001	8b ec		 mov	 ebp, esp
  00003	6a ff		 push	 -1
  00005	68 00 00 00 00	 push	 __ehhandler$?OnWinixNotifyGroup@CTabCodeSearch@@IAEJIJ@Z
  0000a	64 a1 00 00 00
	00		 mov	 eax, DWORD PTR fs:0
  00010	50		 push	 eax
  00011	83 ec 74	 sub	 esp, 116		; 00000074H
  00014	a1 00 00 00 00	 mov	 eax, DWORD PTR ___security_cookie
  00019	33 c5		 xor	 eax, ebp
  0001b	89 45 f0	 mov	 DWORD PTR __$ArrayPad$[ebp], eax
  0001e	53		 push	 ebx
  0001f	56		 push	 esi
  00020	57		 push	 edi
  00021	50		 push	 eax
  00022	8d 45 f4	 lea	 eax, DWORD PTR __$EHRec$[ebp]
  00025	64 a3 00 00 00
	00		 mov	 DWORD PTR fs:0, eax
  0002b	8b d9		 mov	 ebx, ecx
  0002d	89 5d a0	 mov	 DWORD PTR _this$GSCopy$1$[ebp], ebx

; 99   : // 	if(wParam==999 && lParam==999)
; 100  : // 	{
; 101  : // 		SendMessage(UM_CHANGE_REGKW, 0, 0);
; 102  : // 		//CStringArray arrKey, arrName;
; 103  : // 		//m_pGwanMng->GetGwansimGroupName(arrKey, arrName);
; 104  : // 		return 0L;
; 105  : // 	}
; 106  : 
; 107  : 	CString szGroup;

  00030	8d 4d c4	 lea	 ecx, DWORD PTR _szGroup$[ebp]
  00033	ff 15 00 00 00
	00		 call	 DWORD PTR __imp_??0?$CStringT@DV?$StrTraitMFC_DLL@DV?$ChTraitsCRT@D@ATL@@@@@ATL@@QAE@XZ

; 108  : 	CStringList szItemList;

  00039	6a 0a		 push	 10			; 0000000aH
  0003b	8d 4d 80	 lea	 ecx, DWORD PTR _szItemList$[ebp]
  0003e	c7 45 fc 00 00
	00 00		 mov	 DWORD PTR __$EHRec$[ebp+8], 0
  00045	e8 00 00 00 00	 call	 ??0CStringList@@QAE@H@Z	; CStringList::CStringList

; 109  : 	m_pGwanMng->ParseGwanList(wParam, lParam, szGroup, szItemList);

  0004a	8b 83 f8 10 00
	00		 mov	 eax, DWORD PTR [ebx+4344]
  00050	8d 55 80	 lea	 edx, DWORD PTR _szItemList$[ebp]
  00053	52		 push	 edx
  00054	8d 55 c4	 lea	 edx, DWORD PTR _szGroup$[ebp]
  00057	c6 45 fc 01	 mov	 BYTE PTR __$EHRec$[ebp+8], 1
  0005b	52		 push	 edx
  0005c	ff 75 0c	 push	 DWORD PTR _lParam$[ebp]
  0005f	8b 08		 mov	 ecx, DWORD PTR [eax]
  00061	ff 75 08	 push	 DWORD PTR _wParam$[ebp]
  00064	50		 push	 eax
  00065	ff 51 2c	 call	 DWORD PTR [ecx+44]

; 110  : 
; 111  : 	if(szItemList.GetCount()>0)

  00068	83 7d 8c 00	 cmp	 DWORD PTR _szItemList$[ebp+12], 0
  0006c	0f 8e 1a 02 00
	00		 jle	 $LN5@OnWinixNot
  00072	0f 57 c0	 xorps	 xmm0, xmm0
; File D:\git\src\IBK\IBK_DRFN\ProjSrc\SrcDrfn\inc\IBaseDefine.h

; 262  : 	AfxGetHanaroMainWnd(hMainWnd);

  00075	c7 45 c8 00 00
	00 00		 mov	 DWORD PTR _hMainWnd$4[ebp], 0
  0007c	8d 4d dc	 lea	 ecx, DWORD PTR _szClipFormat$6[ebp]
  0007f	66 0f d6 45 e4	 movq	 QWORD PTR _aBufWnd$8[ebp], xmm0
  00084	c6 45 ec 00	 mov	 BYTE PTR _aBufWnd$8[ebp+8], 0
  00088	ff 15 00 00 00
	00		 call	 DWORD PTR __imp_??0?$CStringT@DV?$StrTraitMFC_DLL@DV?$ChTraitsCRT@D@ATL@@@@@ATL@@QAE@XZ
  0008e	68 00 00 00 00	 push	 OFFSET ??_C@_0M@CBBNGGHM@PcTrMng?4dll@
  00093	c6 45 fc 02	 mov	 BYTE PTR __$EHRec$[ebp+8], 2
  00097	ff 15 00 00 00
	00		 call	 DWORD PTR __imp__GetModuleHandleA@4
  0009d	50		 push	 eax
  0009e	68 00 00 00 00	 push	 OFFSET ??_C@_0P@IDMAJEGN@HANAROPCTRMAIN@
  000a3	8d 45 dc	 lea	 eax, DWORD PTR _szClipFormat$6[ebp]
  000a6	68 00 00 00 00	 push	 OFFSET ??_C@_06NDLAHCHE@?$CFs?$CF08X@
  000ab	50		 push	 eax
  000ac	ff 15 00 00 00
	00		 call	 DWORD PTR __imp_?Format@?$CStringT@DV?$StrTraitMFC_DLL@DV?$ChTraitsCRT@D@ATL@@@@@ATL@@QAAXPBDZZ
  000b2	83 c4 10	 add	 esp, 16			; 00000010H
  000b5	8d 45 e4	 lea	 eax, DWORD PTR _aBufWnd$8[ebp]
  000b8	6a 09		 push	 9
  000ba	50		 push	 eax
  000bb	ff 75 dc	 push	 DWORD PTR _szClipFormat$6[ebp]
  000be	ff 15 00 00 00
	00		 call	 DWORD PTR __imp__GetEnvironmentVariableA@12
  000c4	8d 45 c8	 lea	 eax, DWORD PTR _hMainWnd$4[ebp]
  000c7	50		 push	 eax
  000c8	8d 45 e4	 lea	 eax, DWORD PTR _aBufWnd$8[ebp]
  000cb	68 00 00 00 00	 push	 OFFSET ??_C@_02EMFKHFLK@?$CFX@
  000d0	50		 push	 eax
  000d1	e8 00 00 00 00	 call	 _sscanf
  000d6	83 c4 0c	 add	 esp, 12			; 0000000cH
  000d9	8d 4d dc	 lea	 ecx, DWORD PTR _szClipFormat$6[ebp]
  000dc	ff 15 00 00 00
	00		 call	 DWORD PTR __imp_??1?$CStringT@DV?$StrTraitMFC_DLL@DV?$ChTraitsCRT@D@ATL@@@@@ATL@@QAE@XZ

; 263  : 
; 264  : 	return ::SendMessage(hMainWnd, RMSG_INTERFACE, (WPARAM)nID, 0);

  000e2	6a 00		 push	 0
  000e4	6a 05		 push	 5
  000e6	ff 35 00 00 00
	00		 push	 DWORD PTR ?RMSG_INTERFACE@@3IB
  000ec	ff 75 c8	 push	 DWORD PTR _hMainWnd$4[ebp]
  000ef	ff 15 00 00 00
	00		 call	 DWORD PTR __imp__SendMessageA@16
; File D:\git\src\IBK\IBK_DRFN\ProjSrc\SrcDrfn\Chart\MULTICHART\TabCodeSearchWinix.cpp

; 115  : 		CString szItem;

  000f5	8d 4d e0	 lea	 ecx, DWORD PTR _szItem$7[ebp]
  000f8	8b d8		 mov	 ebx, eax
  000fa	ff 15 00 00 00
	00		 call	 DWORD PTR __imp_??0?$CStringT@DV?$StrTraitMFC_DLL@DV?$ChTraitsCRT@D@ATL@@@@@ATL@@QAE@XZ
; File C:\Program Files (x86)\Microsoft Visual Studio\2019\Community\VC\Tools\MSVC\14.29.30133\atlmfc\include\afxtempl.h

; 854  : 	m_nCount = 0;

  00100	33 d2		 xor	 edx, edx
  00102	c7 45 a8 00 00
	00 00		 mov	 DWORD PTR _ListTypeA$3[ebp], OFFSET ??_7?$CList@VCCodeTypeA@@V1@@@6B@
  00109	89 55 b4	 mov	 DWORD PTR _ListTypeA$3[ebp+12], edx

; 855  : 	m_pNodeHead = m_pNodeTail = m_pNodeFree = NULL;

  0010c	89 55 b8	 mov	 DWORD PTR _ListTypeA$3[ebp+16], edx
  0010f	89 55 b0	 mov	 DWORD PTR _ListTypeA$3[ebp+8], edx
  00112	89 55 ac	 mov	 DWORD PTR _ListTypeA$3[ebp+4], edx

; 856  : 	m_pBlocks = NULL;

  00115	89 55 bc	 mov	 DWORD PTR _ListTypeA$3[ebp+20], edx

; 857  : 	m_nBlockSize = nBlockSize;

  00118	c7 45 c0 0a 00
	00 00		 mov	 DWORD PTR _ListTypeA$3[ebp+24], 10 ; 0000000aH
; File D:\git\src\IBK\IBK_DRFN\ProjSrc\SrcDrfn\Chart\MULTICHART\TabCodeSearchWinix.cpp

; 117  : 		for(POSITION pos=szItemList.GetHeadPosition(); pos;)

  0011f	8b 7d 84	 mov	 edi, DWORD PTR _szItemList$[ebp+4]
  00122	c6 45 fc 04	 mov	 BYTE PTR __$EHRec$[ebp+8], 4
  00126	85 ff		 test	 edi, edi
  00128	0f 84 e5 00 00
	00		 je	 $LN3@OnWinixNot
  0012e	66 90		 npad	 2
$LL2@OnWinixNot:
; File C:\Program Files (x86)\Microsoft Visual Studio\2019\Community\VC\Tools\MSVC\14.29.30133\atlmfc\include\afxcoll.inl

; 501  : 	{ CNode* pNode = (CNode*) rPosition;

  00130	8b c7		 mov	 eax, edi

; 503  : 		if( pNode == NULL )

  00132	85 ff		 test	 edi, edi
  00134	0f 84 83 01 00
	00		 je	 $LN77@OnWinixNot

; 505  : 		rPosition = (POSITION) pNode->pNext;

  0013a	8b 3f		 mov	 edi, DWORD PTR [edi]
; File D:\git\src\IBK\IBK_DRFN\ProjSrc\SrcDrfn\Chart\MULTICHART\TabCodeSearchWinix.cpp

; 119  : 			szItem = szItemList.GetNext(pos);

  0013c	8d 4d e0	 lea	 ecx, DWORD PTR _szItem$7[ebp]
; File C:\Program Files (x86)\Microsoft Visual Studio\2019\Community\VC\Tools\MSVC\14.29.30133\atlmfc\include\afxcoll.inl

; 506  : 		return pNode->data; }

  0013f	83 c0 08	 add	 eax, 8
; File D:\git\src\IBK\IBK_DRFN\ProjSrc\SrcDrfn\Chart\MULTICHART\TabCodeSearchWinix.cpp

; 119  : 			szItem = szItemList.GetNext(pos);

  00142	50		 push	 eax
  00143	ff 15 00 00 00
	00		 call	 DWORD PTR __imp_??4?$CStringT@DV?$StrTraitMFC_DLL@DV?$ChTraitsCRT@D@ATL@@@@@ATL@@QAEAAV01@ABV01@@Z
  00149	8d 4d d4	 lea	 ecx, DWORD PTR _typeA$5[ebp+8]
  0014c	c7 45 cc 00 00
	00 00		 mov	 DWORD PTR _typeA$5[ebp], OFFSET ??_7CCodeTypeBase@@6B@
  00153	ff 15 00 00 00
	00		 call	 DWORD PTR __imp_??0?$CStringT@DV?$StrTraitMFC_DLL@DV?$ChTraitsCRT@D@ATL@@@@@ATL@@QAE@XZ
  00159	8d 4d d8	 lea	 ecx, DWORD PTR _typeA$5[ebp+12]
  0015c	ff 15 00 00 00
	00		 call	 DWORD PTR __imp_??0?$CStringT@DV?$StrTraitMFC_DLL@DV?$ChTraitsCRT@D@ATL@@@@@ATL@@QAE@XZ
; File D:\git\src\IBK\IBK_DRFN\ProjSrc\SrcDrfn\inc\ITreeListMng.h

; 350  : 	CCodeTypeA() {}

  00162	c7 45 cc 00 00
	00 00		 mov	 DWORD PTR _typeA$5[ebp], OFFSET ??_7CCodeTypeA@@6B@
; File D:\git\src\IBK\IBK_DRFN\ProjSrc\SrcDrfn\Chart\MULTICHART\TabCodeSearchWinix.cpp

; 122  : 			typeA.m_szcode = szItem;

  00169	8d 45 e0	 lea	 eax, DWORD PTR _szItem$7[ebp]
  0016c	c6 45 fc 05	 mov	 BYTE PTR __$EHRec$[ebp+8], 5
  00170	50		 push	 eax
  00171	8d 4d d4	 lea	 ecx, DWORD PTR _typeA$5[ebp+8]
  00174	ff 15 00 00 00
	00		 call	 DWORD PTR __imp_??4?$CStringT@DV?$StrTraitMFC_DLL@DV?$ChTraitsCRT@D@ATL@@@@@ATL@@QAEAAV01@ABV01@@Z

; 123  : 			typeA.m_szhname = pMasterDataManager->GetCodeName(szItem);

  0017a	ff 75 e0	 push	 DWORD PTR _szItem$7[ebp]
  0017d	8b 03		 mov	 eax, DWORD PTR [ebx]
  0017f	8d 4d a4	 lea	 ecx, DWORD PTR $T2[ebp]
  00182	51		 push	 ecx
  00183	53		 push	 ebx
  00184	ff 90 c0 00 00
	00		 call	 DWORD PTR [eax+192]
  0018a	50		 push	 eax
  0018b	8d 4d d8	 lea	 ecx, DWORD PTR _typeA$5[ebp+12]
  0018e	c6 45 fc 06	 mov	 BYTE PTR __$EHRec$[ebp+8], 6
  00192	ff 15 00 00 00
	00		 call	 DWORD PTR __imp_??4?$CStringT@DV?$StrTraitMFC_DLL@DV?$ChTraitsCRT@D@ATL@@@@@ATL@@QAEAAV01@ABV01@@Z
  00198	8d 4d a4	 lea	 ecx, DWORD PTR $T2[ebp]
  0019b	c6 45 fc 05	 mov	 BYTE PTR __$EHRec$[ebp+8], 5
  0019f	ff 15 00 00 00
	00		 call	 DWORD PTR __imp_??1?$CStringT@DV?$StrTraitMFC_DLL@DV?$ChTraitsCRT@D@ATL@@@@@ATL@@QAE@XZ
; File C:\Program Files (x86)\Microsoft Visual Studio\2019\Community\VC\Tools\MSVC\14.29.30133\atlmfc\include\atlsimpstr.h

; 519  : 		return( GetData()->nDataLength );

  001a5	8b 45 d8	 mov	 eax, DWORD PTR _typeA$5[ebp+12]

; 533  : 		return( GetLength() == 0 );

  001a8	83 78 f4 00	 cmp	 DWORD PTR [eax-12], 0
; File D:\git\src\IBK\IBK_DRFN\ProjSrc\SrcDrfn\Chart\MULTICHART\TabCodeSearchWinix.cpp

; 124  : 			if(typeA.m_szhname.IsEmpty()) continue;	//   .

  001ac	74 44		 je	 SHORT $LN86@OnWinixNot

; 125  : 
; 126  : 			ListTypeA.AddTail(typeA);

  001ae	83 ec 10	 sub	 esp, 16			; 00000010H
  001b1	8b f4		 mov	 esi, esp
  001b3	89 75 9c	 mov	 DWORD PTR _this$[ebp], esi
  001b6	c7 06 00 00 00
	00		 mov	 DWORD PTR [esi], OFFSET ??_7CCodeTypeBase@@6B@
  001bc	8d 4e 08	 lea	 ecx, DWORD PTR [esi+8]
  001bf	8a 45 d0	 mov	 al, BYTE PTR _typeA$5[ebp+4]
  001c2	88 46 04	 mov	 BYTE PTR [esi+4], al
  001c5	8d 45 d4	 lea	 eax, DWORD PTR _typeA$5[ebp+8]
  001c8	50		 push	 eax
  001c9	ff 15 00 00 00
	00		 call	 DWORD PTR __imp_??0?$CStringT@DV?$StrTraitMFC_DLL@DV?$ChTraitsCRT@D@ATL@@@@@ATL@@QAE@ABV01@@Z
  001cf	8d 45 d8	 lea	 eax, DWORD PTR _typeA$5[ebp+12]
  001d2	c6 45 fc 07	 mov	 BYTE PTR __$EHRec$[ebp+8], 7
  001d6	50		 push	 eax
  001d7	8d 4e 0c	 lea	 ecx, DWORD PTR [esi+12]
  001da	ff 15 00 00 00
	00		 call	 DWORD PTR __imp_??0?$CStringT@DV?$StrTraitMFC_DLL@DV?$ChTraitsCRT@D@ATL@@@@@ATL@@QAE@ABV01@@Z
  001e0	8d 4d a8	 lea	 ecx, DWORD PTR _ListTypeA$3[ebp]
  001e3	c6 45 fc 05	 mov	 BYTE PTR __$EHRec$[ebp+8], 5
  001e7	c7 06 00 00 00
	00		 mov	 DWORD PTR [esi], OFFSET ??_7CCodeTypeA@@6B@
  001ed	e8 00 00 00 00	 call	 ?AddTail@?$CList@VCCodeTypeA@@V1@@@QAEPAU__POSITION@@VCCodeTypeA@@@Z ; CList<CCodeTypeA,CCodeTypeA>::AddTail
$LN86@OnWinixNot:

; 117  : 		for(POSITION pos=szItemList.GetHeadPosition(); pos;)

  001f2	8d 4d d8	 lea	 ecx, DWORD PTR _typeA$5[ebp+12]
  001f5	c6 45 fc 04	 mov	 BYTE PTR __$EHRec$[ebp+8], 4
  001f9	ff 15 00 00 00
	00		 call	 DWORD PTR __imp_??1?$CStringT@DV?$StrTraitMFC_DLL@DV?$ChTraitsCRT@D@ATL@@@@@ATL@@QAE@XZ
  001ff	8d 4d d4	 lea	 ecx, DWORD PTR _typeA$5[ebp+8]
  00202	ff 15 00 00 00
	00		 call	 DWORD PTR __imp_??1?$CStringT@DV?$StrTraitMFC_DLL@DV?$ChTraitsCRT@D@ATL@@@@@ATL@@QAE@XZ
  00208	85 ff		 test	 edi, edi
  0020a	0f 85 20 ff ff
	ff		 jne	 $LL2@OnWinixNot
; File C:\Program Files (x86)\Microsoft Visual Studio\2019\Community\VC\Tools\MSVC\14.29.30133\atlmfc\include\afxcoll.inl

; 503  : 		if( pNode == NULL )

  00210	8b 55 b4	 mov	 edx, DWORD PTR _ListTypeA$3[ebp+12]
$LN3@OnWinixNot:
; File D:\git\src\IBK\IBK_DRFN\ProjSrc\SrcDrfn\Chart\MULTICHART\TabCodeSearchWinix.cpp

; 128  : 		m_xTLMCallback.ReceiveData(0, 'A', 0, ListTypeA.GetCount(), (void*)&ListTypeA);

  00213	8b 45 a0	 mov	 eax, DWORD PTR _this$GSCopy$1$[ebp]
  00216	8d 75 a8	 lea	 esi, DWORD PTR _ListTypeA$3[ebp]
  00219	56		 push	 esi
  0021a	52		 push	 edx
  0021b	05 38 0f 00 00	 add	 eax, 3896		; 00000f38H
  00220	6a 00		 push	 0
  00222	6a 41		 push	 65			; 00000041H
  00224	6a 00		 push	 0
  00226	8b 08		 mov	 ecx, DWORD PTR [eax]
  00228	50		 push	 eax
  00229	ff 11		 call	 DWORD PTR [ecx]
; File C:\Program Files (x86)\Microsoft Visual Studio\2019\Community\VC\Tools\MSVC\14.29.30133\atlmfc\include\afxtempl.h

; 867  : 	for (pNode = m_pNodeHead; pNode != NULL; pNode = pNode->pNext)

  0022b	8b 75 ac	 mov	 esi, DWORD PTR _ListTypeA$3[ebp+4]

; 878  : {

  0022e	c6 45 fc 08	 mov	 BYTE PTR __$EHRec$[ebp+8], 8
  00232	c7 45 a8 00 00
	00 00		 mov	 DWORD PTR _ListTypeA$3[ebp], OFFSET ??_7?$CList@VCCodeTypeA@@V1@@@6B@

; 867  : 	for (pNode = m_pNodeHead; pNode != NULL; pNode = pNode->pNext)

  00239	85 f6		 test	 esi, esi
  0023b	74 1b		 je	 SHORT $LN63@OnWinixNot
  0023d	0f 1f 00	 npad	 3
$LL64@OnWinixNot:

; 868  : 		pNode->data.~TYPE();

  00240	8d 4e 14	 lea	 ecx, DWORD PTR [esi+20]
  00243	ff 15 00 00 00
	00		 call	 DWORD PTR __imp_??1?$CStringT@DV?$StrTraitMFC_DLL@DV?$ChTraitsCRT@D@ATL@@@@@ATL@@QAE@XZ
  00249	8d 4e 10	 lea	 ecx, DWORD PTR [esi+16]
  0024c	ff 15 00 00 00
	00		 call	 DWORD PTR __imp_??1?$CStringT@DV?$StrTraitMFC_DLL@DV?$ChTraitsCRT@D@ATL@@@@@ATL@@QAE@XZ

; 867  : 	for (pNode = m_pNodeHead; pNode != NULL; pNode = pNode->pNext)

  00252	8b 36		 mov	 esi, DWORD PTR [esi]
  00254	85 f6		 test	 esi, esi
  00256	75 e8		 jne	 SHORT $LL64@OnWinixNot
$LN63@OnWinixNot:

; 869  : 
; 870  : 	m_nCount = 0;
; 871  : 	m_pNodeHead = m_pNodeTail = m_pNodeFree = NULL;
; 872  : 	m_pBlocks->FreeDataChain();

  00258	8b 4d bc	 mov	 ecx, DWORD PTR _ListTypeA$3[ebp+20]
  0025b	c7 45 b4 00 00
	00 00		 mov	 DWORD PTR _ListTypeA$3[ebp+12], 0
  00262	c7 45 b8 00 00
	00 00		 mov	 DWORD PTR _ListTypeA$3[ebp+16], 0
  00269	c7 45 b0 00 00
	00 00		 mov	 DWORD PTR _ListTypeA$3[ebp+8], 0
  00270	c7 45 ac 00 00
	00 00		 mov	 DWORD PTR _ListTypeA$3[ebp+4], 0
  00277	e8 00 00 00 00	 call	 ?FreeDataChain@CPlex@@QAEXXZ ; CPlex::FreeDataChain
; File D:\git\src\IBK\IBK_DRFN\ProjSrc\SrcDrfn\Chart\MULTICHART\TabCodeSearchWinix.cpp

; 129  : 	}

  0027c	8d 4d e0	 lea	 ecx, DWORD PTR _szItem$7[ebp]
; File C:\Program Files (x86)\Microsoft Visual Studio\2019\Community\VC\Tools\MSVC\14.29.30133\atlmfc\include\afxtempl.h

; 873  : 	m_pBlocks = NULL;

  0027f	c7 45 bc 00 00
	00 00		 mov	 DWORD PTR _ListTypeA$3[ebp+20], 0
; File D:\git\src\IBK\IBK_DRFN\ProjSrc\SrcDrfn\Chart\MULTICHART\TabCodeSearchWinix.cpp

; 129  : 	}

  00286	ff 15 00 00 00
	00		 call	 DWORD PTR __imp_??1?$CStringT@DV?$StrTraitMFC_DLL@DV?$ChTraitsCRT@D@ATL@@@@@ATL@@QAE@XZ
$LN5@OnWinixNot:

; 130  : 
; 131  : 	return 0L;

  0028c	8d 4d 80	 lea	 ecx, DWORD PTR _szItemList$[ebp]
  0028f	e8 00 00 00 00	 call	 ??1CStringList@@UAE@XZ	; CStringList::~CStringList
  00294	8d 4d c4	 lea	 ecx, DWORD PTR _szGroup$[ebp]
  00297	ff 15 00 00 00
	00		 call	 DWORD PTR __imp_??1?$CStringT@DV?$StrTraitMFC_DLL@DV?$ChTraitsCRT@D@ATL@@@@@ATL@@QAE@XZ
  0029d	33 c0		 xor	 eax, eax

; 132  : }

  0029f	8b 4d f4	 mov	 ecx, DWORD PTR __$EHRec$[ebp]
  002a2	64 89 0d 00 00
	00 00		 mov	 DWORD PTR fs:0, ecx
  002a9	59		 pop	 ecx
  002aa	5f		 pop	 edi
  002ab	5e		 pop	 esi
  002ac	5b		 pop	 ebx
  002ad	8b 4d f0	 mov	 ecx, DWORD PTR __$ArrayPad$[ebp]
  002b0	33 cd		 xor	 ecx, ebp
  002b2	e8 00 00 00 00	 call	 @__security_check_cookie@4
  002b7	8b e5		 mov	 esp, ebp
  002b9	5d		 pop	 ebp
  002ba	c2 08 00	 ret	 8
$LN77@OnWinixNot:
; File C:\Program Files (x86)\Microsoft Visual Studio\2019\Community\VC\Tools\MSVC\14.29.30133\atlmfc\include\afxcoll.inl

; 504  : 			AfxThrowInvalidArgException();

  002bd	e8 00 00 00 00	 call	 ?AfxThrowInvalidArgException@@YGXXZ ; AfxThrowInvalidArgException
$LN85@OnWinixNot:
  002c2	cc		 int	 3
_TEXT	ENDS
;	COMDAT text$x
text$x	SEGMENT
__unwindfunclet$?OnWinixNotifyGroup@CTabCodeSearch@@IAEJIJ@Z$0:
  00000	8d 4d c4	 lea	 ecx, DWORD PTR _szGroup$[ebp]
  00003	ff 25 00 00 00
	00		 jmp	 DWORD PTR __imp_??1?$CStringT@DV?$StrTraitMFC_DLL@DV?$ChTraitsCRT@D@ATL@@@@@ATL@@QAE@XZ
__unwindfunclet$?OnWinixNotifyGroup@CTabCodeSearch@@IAEJIJ@Z$1:
  00009	8d 4d 80	 lea	 ecx, DWORD PTR _szItemList$[ebp]
  0000c	e9 00 00 00 00	 jmp	 ??1CStringList@@UAE@XZ	; CStringList::~CStringList
__unwindfunclet$?OnWinixNotifyGroup@CTabCodeSearch@@IAEJIJ@Z$7:
  00011	8d 4d dc	 lea	 ecx, DWORD PTR _szClipFormat$6[ebp]
  00014	ff 25 00 00 00
	00		 jmp	 DWORD PTR __imp_??1?$CStringT@DV?$StrTraitMFC_DLL@DV?$ChTraitsCRT@D@ATL@@@@@ATL@@QAE@XZ
__unwindfunclet$?OnWinixNotifyGroup@CTabCodeSearch@@IAEJIJ@Z$2:
  0001a	8d 4d e0	 lea	 ecx, DWORD PTR _szItem$7[ebp]
  0001d	ff 25 00 00 00
	00		 jmp	 DWORD PTR __imp_??1?$CStringT@DV?$StrTraitMFC_DLL@DV?$ChTraitsCRT@D@ATL@@@@@ATL@@QAE@XZ
__unwindfunclet$?OnWinixNotifyGroup@CTabCodeSearch@@IAEJIJ@Z$3:
  00023	8d 4d a8	 lea	 ecx, DWORD PTR _ListTypeA$3[ebp]
  00026	e9 00 00 00 00	 jmp	 ??1?$CList@VCCodeTypeA@@V1@@@UAE@XZ ; CList<CCodeTypeA,CCodeTypeA>::~CList<CCodeTypeA,CCodeTypeA>
__unwindfunclet$?OnWinixNotifyGroup@CTabCodeSearch@@IAEJIJ@Z$4:
  0002b	8d 4d cc	 lea	 ecx, DWORD PTR _typeA$5[ebp]
  0002e	e9 00 00 00 00	 jmp	 ??1CCodeTypeA@@QAE@XZ
__unwindfunclet$?OnWinixNotifyGroup@CTabCodeSearch@@IAEJIJ@Z$5:
  00033	8d 4d a4	 lea	 ecx, DWORD PTR $T2[ebp]
  00036	ff 25 00 00 00
	00		 jmp	 DWORD PTR __imp_??1?$CStringT@DV?$StrTraitMFC_DLL@DV?$ChTraitsCRT@D@ATL@@@@@ATL@@QAE@XZ
__unwindfunclet$?OnWinixNotifyGroup@CTabCodeSearch@@IAEJIJ@Z$12:
  0003c	8b 4d 9c	 mov	 ecx, DWORD PTR _this$[ebp]
  0003f	83 c1 08	 add	 ecx, 8
  00042	ff 25 00 00 00
	00		 jmp	 DWORD PTR __imp_??1?$CStringT@DV?$StrTraitMFC_DLL@DV?$ChTraitsCRT@D@ATL@@@@@ATL@@QAE@XZ
  00048	cc		 int	 3
  00049	cc		 int	 3
  0004a	cc		 int	 3
  0004b	cc		 int	 3
  0004c	cc		 int	 3
__ehhandler$?OnWinixNotifyGroup@CTabCodeSearch@@IAEJIJ@Z:
  0004d	90		 npad	 1
  0004e	90		 npad	 1
  0004f	8b 54 24 08	 mov	 edx, DWORD PTR [esp+8]
  00053	8d 42 0c	 lea	 eax, DWORD PTR [edx+12]
  00056	8b 8a 7c ff ff
	ff		 mov	 ecx, DWORD PTR [edx-132]
  0005c	33 c8		 xor	 ecx, eax
  0005e	e8 00 00 00 00	 call	 @__security_check_cookie@4
  00063	8b 4a fc	 mov	 ecx, DWORD PTR [edx-4]
  00066	33 c8		 xor	 ecx, eax
  00068	e8 00 00 00 00	 call	 @__security_check_cookie@4
  0006d	b8 00 00 00 00	 mov	 eax, OFFSET __ehfuncinfo$?OnWinixNotifyGroup@CTabCodeSearch@@IAEJIJ@Z
  00072	e9 00 00 00 00	 jmp	 ___CxxFrameHandler3
text$x	ENDS
?OnWinixNotifyGroup@CTabCodeSearch@@IAEJIJ@Z ENDP	; CTabCodeSearch::OnWinixNotifyGroup
; Function compile flags: /Ogtp
; File D:\git\src\IBK\IBK_DRFN\ProjSrc\SrcDrfn\Chart\MULTICHART\TabCodeSearchWinix.cpp
; File C:\Program Files (x86)\Microsoft Visual Studio\2019\Community\VC\Tools\MSVC\14.29.30133\atlmfc\include\afxcmn.inl
; File D:\git\src\IBK\IBK_DRFN\ProjSrc\SrcDrfn\Chart\MULTICHART\TabCodeSearchWinix.cpp
; File C:\Program Files (x86)\Microsoft Visual Studio\2019\Community\VC\Tools\MSVC\14.29.30133\atlmfc\include\afxcmn.inl
; File D:\git\src\IBK\IBK_DRFN\ProjSrc\SrcDrfn\Chart\MULTICHART\TabCodeSearchWinix.cpp
; File C:\Program Files (x86)\Microsoft Visual Studio\2019\Community\VC\Tools\MSVC\14.29.30133\atlmfc\include\afxcmn.inl
; File D:\git\src\IBK\IBK_DRFN\ProjSrc\SrcDrfn\Chart\MULTICHART\TabCodeSearchWinix.cpp
; File C:\Program Files (x86)\Microsoft Visual Studio\2019\Community\VC\Tools\MSVC\14.29.30133\atlmfc\include\afxcmn.inl
; File D:\git\src\IBK\IBK_DRFN\ProjSrc\SrcDrfn\Chart\MULTICHART\TabCodeSearchWinix.cpp
; File C:\Program Files (x86)\Microsoft Visual Studio\2019\Community\VC\Tools\MSVC\14.29.30133\atlmfc\include\afxtempl.h
; File D:\git\src\IBK\IBK_DRFN\ProjSrc\SrcDrfn\Chart\MULTICHART\TabCodeSearchWinix.cpp
; File C:\Program Files (x86)\Microsoft Visual Studio\2019\Community\VC\Tools\MSVC\14.29.30133\atlmfc\include\afxtempl.h
; File D:\git\src\IBK\IBK_DRFN\ProjSrc\SrcDrfn\inc\Define_Gwansim.h
; File C:\Program Files (x86)\Microsoft Visual Studio\2019\Community\VC\Tools\MSVC\14.29.30133\atlmfc\include\afxtempl.h
; File D:\git\src\IBK\IBK_DRFN\ProjSrc\SrcDrfn\inc\Define_Gwansim.h
; File D:\git\src\IBK\IBK_DRFN\ProjSrc\SrcDrfn\Chart\MULTICHART\TabCodeSearchWinix.cpp
; File D:\git\src\IBK\IBK_DRFN\ProjSrc\SrcDrfn\inc\Define_Gwansim.h
; File D:\git\src\IBK\IBK_DRFN\ProjSrc\SrcDrfn\Chart\MULTICHART\TabCodeSearchWinix.cpp
; File D:\git\src\IBK\IBK_DRFN\ProjSrc\SrcDrfn\inc\Define_Gwansim.h
; File D:\git\src\IBK\IBK_DRFN\ProjSrc\SrcDrfn\Chart\MULTICHART\TabCodeSearchWinix.cpp
; File C:\Program Files (x86)\Microsoft Visual Studio\2019\Community\VC\Tools\MSVC\14.29.30133\atlmfc\include\afxcoll.inl
; File C:\Program Files (x86)\Microsoft Visual Studio\2019\Community\VC\Tools\MSVC\14.29.30133\atlmfc\include\atlsimpstr.h
; File C:\Program Files (x86)\Microsoft Visual Studio\2019\Community\VC\Tools\MSVC\14.29.30133\atlmfc\include\afxcoll.inl
; File C:\Program Files (x86)\Microsoft Visual Studio\2019\Community\VC\Tools\MSVC\14.29.30133\atlmfc\include\afxcmn.inl
; File C:\Program Files (x86)\Microsoft Visual Studio\2019\Community\VC\Tools\MSVC\14.29.30133\atlmfc\include\atlsimpstr.h
; File C:\Program Files (x86)\Microsoft Visual Studio\2019\Community\VC\Tools\MSVC\14.29.30133\atlmfc\include\afxcmn.inl
; File D:\git\src\IBK\IBK_DRFN\ProjSrc\SrcDrfn\Chart\MULTICHART\TabCodeSearchWinix.cpp
; File C:\Program Files (x86)\Microsoft Visual Studio\2019\Community\VC\Tools\MSVC\14.29.30133\atlmfc\include\atlsimpstr.h
; File D:\git\src\IBK\IBK_DRFN\ProjSrc\SrcDrfn\inc\ITreeListMng.h
; File C:\Program Files (x86)\Microsoft Visual Studio\2019\Community\VC\Tools\MSVC\14.29.30133\atlmfc\include\atlsimpstr.h
; File D:\git\src\IBK\IBK_DRFN\ProjSrc\SrcDrfn\inc\ITreeListMng.h
; File C:\Program Files (x86)\Microsoft Visual Studio\2019\Community\VC\Tools\MSVC\14.29.30133\atlmfc\include\atlsimpstr.h
; File D:\git\src\IBK\IBK_DRFN\ProjSrc\SrcDrfn\inc\ITreeListMng.h
; File D:\git\src\IBK\IBK_DRFN\ProjSrc\SrcDrfn\Chart\MULTICHART\TabCodeSearchWinix.cpp
; File D:\git\src\IBK\IBK_DRFN\ProjSrc\SrcDrfn\inc\ITreeListMng.h
; File D:\git\src\IBK\IBK_DRFN\ProjSrc\SrcDrfn\Chart\MULTICHART\TabCodeSearchWinix.cpp
; File C:\Program Files (x86)\Microsoft Visual Studio\2019\Community\VC\Tools\MSVC\14.29.30133\atlmfc\include\afxcmn.inl
; File D:\git\src\IBK\IBK_DRFN\ProjSrc\SrcDrfn\Chart\MULTICHART\TabCodeSearchWinix.cpp
; File C:\Program Files (x86)\Microsoft Visual Studio\2019\Community\VC\Tools\MSVC\14.29.30133\atlmfc\include\afxcmn.inl
; File D:\git\src\IBK\IBK_DRFN\ProjSrc\SrcDrfn\Chart\MULTICHART\TabCodeSearchWinix.cpp
; File C:\Program Files (x86)\Microsoft Visual Studio\2019\Community\VC\Tools\MSVC\14.29.30133\atlmfc\include\afxcmn.inl
; File D:\git\src\IBK\IBK_DRFN\ProjSrc\SrcDrfn\Chart\MULTICHART\TabCodeSearchWinix.cpp
; File C:\Program Files (x86)\Microsoft Visual Studio\2019\Community\VC\Tools\MSVC\14.29.30133\atlmfc\include\afxcoll.inl
; File D:\git\src\IBK\IBK_DRFN\ProjSrc\SrcDrfn\Chart\MULTICHART\TabCodeSearchWinix.cpp
;	COMDAT ?OnWinixNotifySave@CTabCodeSearch@@IAEJIJ@Z
_TEXT	SEGMENT
_arrKey$ = -148						; size = 20
$T2 = -128						; size = 4
_arrName$ = -124					; size = 20
_itemGwan$ = -104					; size = 28
_OneItem$ = -76						; size = 36
_nSize$1$ = -40						; size = 4
_hTree$1$ = -36						; size = 4
$T3 = -32						; size = 4
_szGroupName$1$ = -28					; size = 4
_szRemain$ = -24					; size = 4
_this$1$ = -20						; size = 4
_pTreeCtrl$1$ = -16					; size = 4
_nIndx$1$ = -16						; size = 4
$T4 = -16						; size = 4
__$EHRec$ = -12						; size = 12
_wParam$ = 8						; size = 4
_szChildText$5 = 12					; size = 4
_szInData$6 = 12					; size = 4
_lParam$ = 12						; size = 4
?OnWinixNotifySave@CTabCodeSearch@@IAEJIJ@Z PROC	; CTabCodeSearch::OnWinixNotifySave, COMDAT
; _this$ = ecx

; 16   : {

  00000	55		 push	 ebp
  00001	8b ec		 mov	 ebp, esp
  00003	6a ff		 push	 -1
  00005	68 00 00 00 00	 push	 __ehhandler$?OnWinixNotifySave@CTabCodeSearch@@IAEJIJ@Z
  0000a	64 a1 00 00 00
	00		 mov	 eax, DWORD PTR fs:0
  00010	50		 push	 eax
  00011	81 ec 88 00 00
	00		 sub	 esp, 136		; 00000088H
  00017	53		 push	 ebx
  00018	56		 push	 esi
  00019	57		 push	 edi
  0001a	a1 00 00 00 00	 mov	 eax, DWORD PTR ___security_cookie
  0001f	33 c5		 xor	 eax, ebp
  00021	50		 push	 eax
  00022	8d 45 f4	 lea	 eax, DWORD PTR __$EHRec$[ebp]
  00025	64 a3 00 00 00
	00		 mov	 DWORD PTR fs:0, eax
  0002b	8b d9		 mov	 ebx, ecx
  0002d	89 5d ec	 mov	 DWORD PTR _this$1$[ebp], ebx

; 17   : 	if (!m_pGwanTree || !m_pGwanMng) return 0L;

  00030	83 bb bc 10 00
	00 00		 cmp	 DWORD PTR [ebx+4284], 0
  00037	0f 84 85 04 00
	00		 je	 $LN6@OnWinixNot
  0003d	83 bb f8 10 00
	00 00		 cmp	 DWORD PTR [ebx+4344], 0
  00044	0f 84 78 04 00
	00		 je	 $LN6@OnWinixNot

; 18   : 
; 19   : 	//PctrWinix.dll CWinixGwanItem::CTrCommSite::ReceiveData  .
; 20   : 	//  .
; 21   : 	//m_pGwanMng->RequestGwansimGroup();
; 22   : 	CStringArray arrKey, arrName;

  0004a	8d 8d 6c ff ff
	ff		 lea	 ecx, DWORD PTR _arrKey$[ebp]
  00050	e8 00 00 00 00	 call	 ??0CStringArray@@QAE@XZ	; CStringArray::CStringArray
  00055	8d 4d 84	 lea	 ecx, DWORD PTR _arrName$[ebp]
  00058	c7 45 fc 00 00
	00 00		 mov	 DWORD PTR __$EHRec$[ebp+8], 0
  0005f	e8 00 00 00 00	 call	 ??0CStringArray@@QAE@XZ	; CStringArray::CStringArray

; 23   : #if(0)//tour2k
; 24   : 	m_pGwanMng->GetGwansimGroupName(arrKey, arrName);
; 25   : #else
; 26   :         m_pGwanMng->ParseGroup( lParam, arrKey, arrName);

  00064	8b 83 f8 10 00
	00		 mov	 eax, DWORD PTR [ebx+4344]
  0006a	8d 55 84	 lea	 edx, DWORD PTR _arrName$[ebp]
  0006d	52		 push	 edx
  0006e	8d 95 6c ff ff
	ff		 lea	 edx, DWORD PTR _arrKey$[ebp]
  00074	c6 45 fc 01	 mov	 BYTE PTR __$EHRec$[ebp+8], 1
  00078	52		 push	 edx
  00079	ff 75 0c	 push	 DWORD PTR _lParam$[ebp]
  0007c	8b 08		 mov	 ecx, DWORD PTR [eax]
  0007e	50		 push	 eax
  0007f	ff 51 34	 call	 DWORD PTR [ecx+52]

; 36   : 	CString szRemain(_T(""));

  00082	68 00 00 00 00	 push	 OFFSET ??_C@_08JGJFMGCK@?H?w?$LN?$LK?E?d?$LI?$KO@
  00087	8d 4d e8	 lea	 ecx, DWORD PTR _szRemain$[ebp]
  0008a	ff 15 00 00 00
	00		 call	 DWORD PTR __imp_??0?$CStringT@DV?$StrTraitMFC_DLL@DV?$ChTraitsCRT@D@ATL@@@@@ATL@@QAE@PBD@Z

; 37   : 	DoDeleteTreeItem(m_pGwanTree, szRemain);

  00090	8b 83 bc 10 00
	00		 mov	 eax, DWORD PTR [ebx+4284]
; File C:\Program Files (x86)\Microsoft Visual Studio\2019\Community\VC\Tools\MSVC\14.29.30133\atlmfc\include\afxcmn.inl

; 322  : 	{ ASSERT(::IsWindow(m_hWnd)); return (HTREEITEM)::SendMessage(m_hWnd, TVM_GETNEXTITEM, TVGN_ROOT, 0); }

  00096	8b 3d 00 00 00
	00		 mov	 edi, DWORD PTR __imp__SendMessageA@16
  0009c	6a 00		 push	 0
  0009e	6a 00		 push	 0
  000a0	68 0a 11 00 00	 push	 4362			; 0000110aH
  000a5	ff 70 20	 push	 DWORD PTR [eax+32]
; File D:\git\src\IBK\IBK_DRFN\ProjSrc\SrcDrfn\Chart\MULTICHART\TabCodeSearchWinix.cpp

; 36   : 	CString szRemain(_T(""));

  000a8	c6 45 fc 02	 mov	 BYTE PTR __$EHRec$[ebp+8], 2

; 37   : 	DoDeleteTreeItem(m_pGwanTree, szRemain);

  000ac	89 45 f0	 mov	 DWORD PTR _pTreeCtrl$1$[ebp], eax
; File C:\Program Files (x86)\Microsoft Visual Studio\2019\Community\VC\Tools\MSVC\14.29.30133\atlmfc\include\afxcmn.inl

; 322  : 	{ ASSERT(::IsWindow(m_hWnd)); return (HTREEITEM)::SendMessage(m_hWnd, TVM_GETNEXTITEM, TVGN_ROOT, 0); }

  000af	ff d7		 call	 edi
; File D:\git\src\IBK\IBK_DRFN\ProjSrc\SrcDrfn\Chart\MULTICHART\TabCodeSearchWinix.cpp

; 71   : 	HTREEITEM hTreeRoot= pTreeCtrl->GetRootItem();

  000b1	8b f0		 mov	 esi, eax

; 72   : 	if(!hTreeRoot) return;

  000b3	85 f6		 test	 esi, esi
  000b5	0f 84 88 00 00
	00		 je	 $LN17@OnWinixNot

; 73   : 
; 74   : 	HTREEITEM hNextItem;
; 75   : 	HTREEITEM hChildItem = hTreeRoot;//pTreeCtrl->GetChildItem(hTreeRoot);
; 76   : 	CString szChildText;

  000bb	8d 4d 0c	 lea	 ecx, DWORD PTR _szChildText$5[ebp]
  000be	ff 15 00 00 00
	00		 call	 DWORD PTR __imp_??0?$CStringT@DV?$StrTraitMFC_DLL@DV?$ChTraitsCRT@D@ATL@@@@@ATL@@QAE@XZ
  000c4	8b 5d f0	 mov	 ebx, DWORD PTR _pTreeCtrl$1$[ebp]
  000c7	c6 45 fc 03	 mov	 BYTE PTR __$EHRec$[ebp+8], 3
  000cb	0f 1f 44 00 00	 npad	 5
$LL18@OnWinixNot:
; File C:\Program Files (x86)\Microsoft Visual Studio\2019\Community\VC\Tools\MSVC\14.29.30133\atlmfc\include\afxcmn.inl

; 298  : 	{ ASSERT(::IsWindow(m_hWnd)); return (HTREEITEM)::SendMessage(m_hWnd, TVM_GETNEXTITEM, nCode, (LPARAM)hItem); }

  000d0	56		 push	 esi
  000d1	6a 01		 push	 1
  000d3	68 0a 11 00 00	 push	 4362			; 0000110aH
  000d8	ff 73 20	 push	 DWORD PTR [ebx+32]
  000db	ff d7		 call	 edi
; File D:\git\src\IBK\IBK_DRFN\ProjSrc\SrcDrfn\Chart\MULTICHART\TabCodeSearchWinix.cpp

; 80   : 		hNextItem = pTreeCtrl->GetNextItem(hChildItem, TVGN_NEXT);

  000dd	8b f8		 mov	 edi, eax

; 81   : 
; 82   : 		szChildText = pTreeCtrl->GetItemText(hChildItem);

  000df	8b cb		 mov	 ecx, ebx
  000e1	56		 push	 esi
  000e2	8d 45 f0	 lea	 eax, DWORD PTR $T4[ebp]
  000e5	50		 push	 eax
  000e6	e8 00 00 00 00	 call	 ?GetItemText@CTreeCtrl@@QBE?AV?$CStringT@DV?$StrTraitMFC_DLL@DV?$ChTraitsCRT@D@ATL@@@@@ATL@@PAU_TREEITEM@@@Z ; CTreeCtrl::GetItemText
  000eb	50		 push	 eax
  000ec	8d 4d 0c	 lea	 ecx, DWORD PTR _szChildText$5[ebp]
  000ef	c6 45 fc 04	 mov	 BYTE PTR __$EHRec$[ebp+8], 4
  000f3	ff 15 00 00 00
	00		 call	 DWORD PTR __imp_??4?$CStringT@DV?$StrTraitMFC_DLL@DV?$ChTraitsCRT@D@ATL@@@@@ATL@@QAEAAV01@ABV01@@Z
  000f9	8d 4d f0	 lea	 ecx, DWORD PTR $T4[ebp]
  000fc	c6 45 fc 03	 mov	 BYTE PTR __$EHRec$[ebp+8], 3
  00100	ff 15 00 00 00
	00		 call	 DWORD PTR __imp_??1?$CStringT@DV?$StrTraitMFC_DLL@DV?$ChTraitsCRT@D@ATL@@@@@ATL@@QAE@XZ

; 83   : 		if(szChildText.CompareNoCase(szRemain) !=0 )

  00106	ff 75 e8	 push	 DWORD PTR _szRemain$[ebp]
  00109	8d 4d 0c	 lea	 ecx, DWORD PTR _szChildText$5[ebp]
  0010c	ff 15 00 00 00
	00		 call	 DWORD PTR __imp_?CompareNoCase@?$CStringT@DV?$StrTraitMFC_DLL@DV?$ChTraitsCRT@D@ATL@@@@@ATL@@QBEHPBD@Z
  00112	85 c0		 test	 eax, eax
  00114	74 11		 je	 SHORT $LN21@OnWinixNot
; File C:\Program Files (x86)\Microsoft Visual Studio\2019\Community\VC\Tools\MSVC\14.29.30133\atlmfc\include\afxcmn.inl

; 273  : 	{ ASSERT(::IsWindow(m_hWnd)); return (BOOL)::SendMessage(m_hWnd, TVM_DELETEITEM, 0, (LPARAM)hItem); }

  00116	56		 push	 esi
  00117	6a 00		 push	 0
  00119	68 01 11 00 00	 push	 4353			; 00001101H
  0011e	ff 73 20	 push	 DWORD PTR [ebx+32]
  00121	ff 15 00 00 00
	00		 call	 DWORD PTR __imp__SendMessageA@16
$LN21@OnWinixNot:
; File D:\git\src\IBK\IBK_DRFN\ProjSrc\SrcDrfn\Chart\MULTICHART\TabCodeSearchWinix.cpp

; 86   : 		hChildItem = hNextItem;

  00127	8b f7		 mov	 esi, edi
  00129	85 ff		 test	 edi, edi
  0012b	8b 3d 00 00 00
	00		 mov	 edi, DWORD PTR __imp__SendMessageA@16
  00131	75 9d		 jne	 SHORT $LL18@OnWinixNot

; 87   : 	}
; 88   : }

  00133	8d 4d 0c	 lea	 ecx, DWORD PTR _szChildText$5[ebp]
  00136	c6 45 fc 02	 mov	 BYTE PTR __$EHRec$[ebp+8], 2
  0013a	ff 15 00 00 00
	00		 call	 DWORD PTR __imp_??1?$CStringT@DV?$StrTraitMFC_DLL@DV?$ChTraitsCRT@D@ATL@@@@@ATL@@QAE@XZ
  00140	8b 5d ec	 mov	 ebx, DWORD PTR _this$1$[ebp]
$LN17@OnWinixNot:

; 92   : 	for(POSITION pos=m_ItemLongDataList.GetHeadPosition(); pos; )

  00143	8b bb e0 10 00
	00		 mov	 edi, DWORD PTR [ebx+4320]
  00149	85 ff		 test	 edi, edi
  0014b	74 51		 je	 SHORT $LN50@OnWinixNot
  0014d	0f 1f 00	 npad	 3
$LL34@OnWinixNot:

; 93   : 		delete m_ItemLongDataList.GetNext(pos);

  00150	8b 77 08	 mov	 esi, DWORD PTR [edi+8]
; File C:\Program Files (x86)\Microsoft Visual Studio\2019\Community\VC\Tools\MSVC\14.29.30133\atlmfc\include\afxtempl.h

; 813  : 		rPosition = (POSITION) pNode->pNext;

  00153	8b 3f		 mov	 edi, DWORD PTR [edi]
; File D:\git\src\IBK\IBK_DRFN\ProjSrc\SrcDrfn\Chart\MULTICHART\TabCodeSearchWinix.cpp

; 93   : 		delete m_ItemLongDataList.GetNext(pos);

  00155	85 f6		 test	 esi, esi
  00157	74 41		 je	 SHORT $LN43@OnWinixNot
  00159	8d 4e 18	 lea	 ecx, DWORD PTR [esi+24]
  0015c	ff 15 00 00 00
	00		 call	 DWORD PTR __imp_??1?$CStringT@DV?$StrTraitMFC_DLL@DV?$ChTraitsCRT@D@ATL@@@@@ATL@@QAE@XZ
  00162	8d 4e 14	 lea	 ecx, DWORD PTR [esi+20]
  00165	ff 15 00 00 00
	00		 call	 DWORD PTR __imp_??1?$CStringT@DV?$StrTraitMFC_DLL@DV?$ChTraitsCRT@D@ATL@@@@@ATL@@QAE@XZ
  0016b	8d 4e 10	 lea	 ecx, DWORD PTR [esi+16]
  0016e	ff 15 00 00 00
	00		 call	 DWORD PTR __imp_??1?$CStringT@DV?$StrTraitMFC_DLL@DV?$ChTraitsCRT@D@ATL@@@@@ATL@@QAE@XZ
  00174	8d 4e 0c	 lea	 ecx, DWORD PTR [esi+12]
  00177	ff 15 00 00 00
	00		 call	 DWORD PTR __imp_??1?$CStringT@DV?$StrTraitMFC_DLL@DV?$ChTraitsCRT@D@ATL@@@@@ATL@@QAE@XZ
  0017d	8d 4e 08	 lea	 ecx, DWORD PTR [esi+8]
  00180	ff 15 00 00 00
	00		 call	 DWORD PTR __imp_??1?$CStringT@DV?$StrTraitMFC_DLL@DV?$ChTraitsCRT@D@ATL@@@@@ATL@@QAE@XZ
  00186	8d 4e 04	 lea	 ecx, DWORD PTR [esi+4]
  00189	ff 15 00 00 00
	00		 call	 DWORD PTR __imp_??1?$CStringT@DV?$StrTraitMFC_DLL@DV?$ChTraitsCRT@D@ATL@@@@@ATL@@QAE@XZ
  0018f	6a 28		 push	 40			; 00000028H
  00191	56		 push	 esi
  00192	e8 00 00 00 00	 call	 ??3@YAXPAXI@Z		; operator delete
  00197	83 c4 08	 add	 esp, 8
$LN43@OnWinixNot:

; 89   : 
; 90   : void CTabCodeSearch::DoClearItemLongDataList()
; 91   : {
; 92   : 	for(POSITION pos=m_ItemLongDataList.GetHeadPosition(); pos; )

  0019a	85 ff		 test	 edi, edi
  0019c	75 b2		 jne	 SHORT $LL34@OnWinixNot
$LN50@OnWinixNot:
; File C:\Program Files (x86)\Microsoft Visual Studio\2019\Community\VC\Tools\MSVC\14.29.30133\atlmfc\include\afxtempl.h

; 872  : 	m_pBlocks->FreeDataChain();

  0019e	8b 8b f0 10 00
	00		 mov	 ecx, DWORD PTR [ebx+4336]
  001a4	c7 83 e8 10 00
	00 00 00 00 00	 mov	 DWORD PTR [ebx+4328], 0
  001ae	c7 83 ec 10 00
	00 00 00 00 00	 mov	 DWORD PTR [ebx+4332], 0
  001b8	c7 83 e4 10 00
	00 00 00 00 00	 mov	 DWORD PTR [ebx+4324], 0
  001c2	c7 83 e0 10 00
	00 00 00 00 00	 mov	 DWORD PTR [ebx+4320], 0
  001cc	e8 00 00 00 00	 call	 ?FreeDataChain@CPlex@@QAEXXZ ; CPlex::FreeDataChain
; File D:\git\src\IBK\IBK_DRFN\ProjSrc\SrcDrfn\inc\Define_Gwansim.h

; 151  : 	CINT_ITEM_ST()

  001d1	8d 4d b4	 lea	 ecx, DWORD PTR _OneItem$[ebp]
; File C:\Program Files (x86)\Microsoft Visual Studio\2019\Community\VC\Tools\MSVC\14.29.30133\atlmfc\include\afxtempl.h

; 873  : 	m_pBlocks = NULL;

  001d4	c7 83 f0 10 00
	00 00 00 00 00	 mov	 DWORD PTR [ebx+4336], 0
; File D:\git\src\IBK\IBK_DRFN\ProjSrc\SrcDrfn\inc\Define_Gwansim.h

; 151  : 	CINT_ITEM_ST()

  001de	ff 15 00 00 00
	00		 call	 DWORD PTR __imp_??0?$CStringT@DV?$StrTraitMFC_DLL@DV?$ChTraitsCRT@D@ATL@@@@@ATL@@QAE@XZ
  001e4	8d 4d b8	 lea	 ecx, DWORD PTR _OneItem$[ebp+4]
  001e7	ff 15 00 00 00
	00		 call	 DWORD PTR __imp_??0?$CStringT@DV?$StrTraitMFC_DLL@DV?$ChTraitsCRT@D@ATL@@@@@ATL@@QAE@XZ
  001ed	8d 4d bc	 lea	 ecx, DWORD PTR _OneItem$[ebp+8]
  001f0	ff 15 00 00 00
	00		 call	 DWORD PTR __imp_??0?$CStringT@DV?$StrTraitMFC_DLL@DV?$ChTraitsCRT@D@ATL@@@@@ATL@@QAE@XZ
  001f6	8d 4d c0	 lea	 ecx, DWORD PTR _OneItem$[ebp+12]
  001f9	ff 15 00 00 00
	00		 call	 DWORD PTR __imp_??0?$CStringT@DV?$StrTraitMFC_DLL@DV?$ChTraitsCRT@D@ATL@@@@@ATL@@QAE@XZ
  001ff	8d 4d c4	 lea	 ecx, DWORD PTR _OneItem$[ebp+16]
  00202	ff 15 00 00 00
	00		 call	 DWORD PTR __imp_??0?$CStringT@DV?$StrTraitMFC_DLL@DV?$ChTraitsCRT@D@ATL@@@@@ATL@@QAE@XZ
  00208	8d 4d c8	 lea	 ecx, DWORD PTR _OneItem$[ebp+20]
  0020b	ff 15 00 00 00
	00		 call	 DWORD PTR __imp_??0?$CStringT@DV?$StrTraitMFC_DLL@DV?$ChTraitsCRT@D@ATL@@@@@ATL@@QAE@XZ
  00211	8d 4d cc	 lea	 ecx, DWORD PTR _OneItem$[ebp+24]
  00214	ff 15 00 00 00
	00		 call	 DWORD PTR __imp_??0?$CStringT@DV?$StrTraitMFC_DLL@DV?$ChTraitsCRT@D@ATL@@@@@ATL@@QAE@XZ
  0021a	8d 4d d4	 lea	 ecx, DWORD PTR _OneItem$[ebp+32]
  0021d	ff 15 00 00 00
	00		 call	 DWORD PTR __imp_??0?$CStringT@DV?$StrTraitMFC_DLL@DV?$ChTraitsCRT@D@ATL@@@@@ATL@@QAE@XZ
; File D:\git\src\IBK\IBK_DRFN\ProjSrc\SrcDrfn\Chart\MULTICHART\TabCodeSearchWinix.cpp

; 42   : 	int nSize = arrName.GetSize();

  00223	8b 75 8c	 mov	 esi, DWORD PTR _arrName$[ebp+8]
; File D:\git\src\IBK\IBK_DRFN\ProjSrc\SrcDrfn\inc\Define_Gwansim.h

; 99   : 	CINT_GROUP_ST()

  00226	8d 4d 98	 lea	 ecx, DWORD PTR _itemGwan$[ebp]
; File D:\git\src\IBK\IBK_DRFN\ProjSrc\SrcDrfn\Chart\MULTICHART\TabCodeSearchWinix.cpp

; 42   : 	int nSize = arrName.GetSize();

  00229	89 75 d8	 mov	 DWORD PTR _nSize$1$[ebp], esi
; File D:\git\src\IBK\IBK_DRFN\ProjSrc\SrcDrfn\inc\Define_Gwansim.h

; 99   : 	CINT_GROUP_ST()

  0022c	ff 15 00 00 00
	00		 call	 DWORD PTR __imp_??0?$CStringT@DV?$StrTraitMFC_DLL@DV?$ChTraitsCRT@D@ATL@@@@@ATL@@QAE@XZ
  00232	8d 4d 9c	 lea	 ecx, DWORD PTR _itemGwan$[ebp+4]
  00235	ff 15 00 00 00
	00		 call	 DWORD PTR __imp_??0?$CStringT@DV?$StrTraitMFC_DLL@DV?$ChTraitsCRT@D@ATL@@@@@ATL@@QAE@XZ
  0023b	8d 4d a0	 lea	 ecx, DWORD PTR _itemGwan$[ebp+8]
  0023e	ff 15 00 00 00
	00		 call	 DWORD PTR __imp_??0?$CStringT@DV?$StrTraitMFC_DLL@DV?$ChTraitsCRT@D@ATL@@@@@ATL@@QAE@XZ
  00244	8d 4d a8	 lea	 ecx, DWORD PTR _itemGwan$[ebp+16]
  00247	ff 15 00 00 00
	00		 call	 DWORD PTR __imp_??0?$CStringT@DV?$StrTraitMFC_DLL@DV?$ChTraitsCRT@D@ATL@@@@@ATL@@QAE@XZ
  0024d	8d 4d ac	 lea	 ecx, DWORD PTR _itemGwan$[ebp+20]
  00250	ff 15 00 00 00
	00		 call	 DWORD PTR __imp_??0?$CStringT@DV?$StrTraitMFC_DLL@DV?$ChTraitsCRT@D@ATL@@@@@ATL@@QAE@XZ

; 100  : 	{
; 101  : 		m_nIcnt = 0;

  00256	c7 45 b0 00 00
	00 00		 mov	 DWORD PTR _itemGwan$[ebp+24], 0
; File D:\git\src\IBK\IBK_DRFN\ProjSrc\SrcDrfn\Chart\MULTICHART\TabCodeSearchWinix.cpp

; 49   : 	for(int nIndx = 0; nIndx < nSize; ++nIndx)

  0025d	33 c9		 xor	 ecx, ecx
  0025f	c6 45 fc 06	 mov	 BYTE PTR __$EHRec$[ebp+8], 6
  00263	89 4d f0	 mov	 DWORD PTR _nIndx$1$[ebp], ecx
  00266	85 f6		 test	 esi, esi
  00268	0f 8e ac 01 00
	00		 jle	 $LN3@OnWinixNot
  0026e	66 90		 npad	 2
$LL4@OnWinixNot:
; File C:\Program Files (x86)\Microsoft Visual Studio\2019\Community\VC\Tools\MSVC\14.29.30133\atlmfc\include\afxcoll.inl

; 289  : 		if( nIndex < 0 || nIndex >= m_nSize )

  00270	85 c9		 test	 ecx, ecx
  00272	0f 88 60 02 00
	00		 js	 $LN59@OnWinixNot
  00278	3b 4d 8c	 cmp	 ecx, DWORD PTR _arrName$[ebp+8]
  0027b	0f 8d 57 02 00
	00		 jge	 $LN59@OnWinixNot

; 291  : 		return m_pData[nIndex]; }

  00281	8b 45 88	 mov	 eax, DWORD PTR _arrName$[ebp+4]
; File C:\Program Files (x86)\Microsoft Visual Studio\2019\Community\VC\Tools\MSVC\14.29.30133\atlmfc\include\atlsimpstr.h

; 377  : 		return( m_pszData );

  00284	8b 14 88	 mov	 edx, DWORD PTR [eax+ecx*4]
  00287	89 55 e4	 mov	 DWORD PTR _szGroupName$1$[ebp], edx
; File C:\Program Files (x86)\Microsoft Visual Studio\2019\Community\VC\Tools\MSVC\14.29.30133\atlmfc\include\afxcoll.inl

; 289  : 		if( nIndex < 0 || nIndex >= m_nSize )

  0028a	3b 8d 74 ff ff
	ff		 cmp	 ecx, DWORD PTR _arrKey$[ebp+8]
  00290	0f 8d 42 02 00
	00		 jge	 $LN59@OnWinixNot

; 291  : 		return m_pData[nIndex]; }

  00296	8b 85 70 ff ff
	ff		 mov	 eax, DWORD PTR _arrKey$[ebp+4]
; File C:\Program Files (x86)\Microsoft Visual Studio\2019\Community\VC\Tools\MSVC\14.29.30133\atlmfc\include\afxcmn.inl

; 271  : 	{ ASSERT(::IsWindow(m_hWnd)); return InsertItem(TVIF_TEXT, lpszItem, 0, 0, 0, 0, 0, hParent, hInsertAfter); }

  0029c	68 02 00 ff ff	 push	 -65534			; ffff0002H
  002a1	68 00 00 ff ff	 push	 -65536			; ffff0000H
  002a6	6a 00		 push	 0
; File C:\Program Files (x86)\Microsoft Visual Studio\2019\Community\VC\Tools\MSVC\14.29.30133\atlmfc\include\atlsimpstr.h

; 377  : 		return( m_pszData );

  002a8	8b 34 88	 mov	 esi, DWORD PTR [eax+ecx*4]
; File C:\Program Files (x86)\Microsoft Visual Studio\2019\Community\VC\Tools\MSVC\14.29.30133\atlmfc\include\afxcmn.inl

; 271  : 	{ ASSERT(::IsWindow(m_hWnd)); return InsertItem(TVIF_TEXT, lpszItem, 0, 0, 0, 0, 0, hParent, hInsertAfter); }

  002ab	8b 8b bc 10 00
	00		 mov	 ecx, DWORD PTR [ebx+4284]
  002b1	6a 00		 push	 0
  002b3	6a 00		 push	 0
  002b5	6a 00		 push	 0
  002b7	6a 00		 push	 0
  002b9	52		 push	 edx
  002ba	6a 01		 push	 1
  002bc	e8 00 00 00 00	 call	 ?InsertItem@CTreeCtrl@@QAEPAU_TREEITEM@@IPBDHHIIJPAU2@1@Z ; CTreeCtrl::InsertItem
; File D:\git\src\IBK\IBK_DRFN\ProjSrc\SrcDrfn\Chart\MULTICHART\TabCodeSearchWinix.cpp

; 54   : 		CString szInData;

  002c1	8d 4d 0c	 lea	 ecx, DWORD PTR _szInData$6[ebp]
  002c4	89 45 dc	 mov	 DWORD PTR _hTree$1$[ebp], eax
  002c7	ff 15 00 00 00
	00		 call	 DWORD PTR __imp_??0?$CStringT@DV?$StrTraitMFC_DLL@DV?$ChTraitsCRT@D@ATL@@@@@ATL@@QAE@XZ

; 55   : 
; 56   : 		szInData.Format("%s%s%s", "DRFNGWAN" , ":" , szGroupKey);		

  002cd	56		 push	 esi
  002ce	68 00 00 00 00	 push	 OFFSET ??_C@_01JLIPDDHJ@?3@
  002d3	68 00 00 00 00	 push	 OFFSET ??_C@_08DMKJFAIA@DRFNGWAN@
  002d8	8d 45 0c	 lea	 eax, DWORD PTR _szInData$6[ebp]
  002db	c6 45 fc 07	 mov	 BYTE PTR __$EHRec$[ebp+8], 7
  002df	68 00 00 00 00	 push	 OFFSET ??_C@_06DIJPEION@?$CFs?$CFs?$CFs@
  002e4	50		 push	 eax
  002e5	ff 15 00 00 00
	00		 call	 DWORD PTR __imp_?Format@?$CStringT@DV?$StrTraitMFC_DLL@DV?$ChTraitsCRT@D@ATL@@@@@ATL@@QAAXPBDZZ

; 57   : 		CItemLongData* pNew = new CItemLongData(szGroupName, "SUB_NO", "USERTR", "GWANGROUP", szInData, "", 0, 0);

  002eb	6a 28		 push	 40			; 00000028H
  002ed	e8 00 00 00 00	 call	 ??2@YAPAXI@Z		; operator new
  002f2	8b f0		 mov	 esi, eax
  002f4	83 c4 18	 add	 esp, 24			; 00000018H
  002f7	89 75 80	 mov	 DWORD PTR $T2[ebp], esi
  002fa	85 f6		 test	 esi, esi
  002fc	0f 84 c7 00 00
	00		 je	 $LN8@OnWinixNot
; File C:\Program Files (x86)\Microsoft Visual Studio\2019\Community\VC\Tools\MSVC\14.29.30133\atlmfc\include\atlsimpstr.h

; 377  : 		return( m_pszData );

  00302	8b 45 0c	 mov	 eax, DWORD PTR _szInData$6[ebp]
; File D:\git\src\IBK\IBK_DRFN\ProjSrc\SrcDrfn\inc\ITreeListMng.h

; 215  : 	CItemLongData(LPCSTR szTitle, LPCSTR szSub, LPCSTR szMethod, LPCSTR szSection, LPCSTR szInputData, LPCSTR szTR, long dw1, long dw2, long pITrComm=NULL)

  00305	8d 4e 04	 lea	 ecx, DWORD PTR [esi+4]
; File C:\Program Files (x86)\Microsoft Visual Studio\2019\Community\VC\Tools\MSVC\14.29.30133\atlmfc\include\atlsimpstr.h

; 377  : 		return( m_pszData );

  00308	89 45 e0	 mov	 DWORD PTR $T3[ebp], eax
; File D:\git\src\IBK\IBK_DRFN\ProjSrc\SrcDrfn\inc\ITreeListMng.h

; 181  : 		m_nType=BaseLongData_Item; 

  0030b	c7 06 00 00 00
	00		 mov	 DWORD PTR [esi], 0

; 215  : 	CItemLongData(LPCSTR szTitle, LPCSTR szSub, LPCSTR szMethod, LPCSTR szSection, LPCSTR szInputData, LPCSTR szTR, long dw1, long dw2, long pITrComm=NULL)

  00311	ff 15 00 00 00
	00		 call	 DWORD PTR __imp_??0?$CStringT@DV?$StrTraitMFC_DLL@DV?$ChTraitsCRT@D@ATL@@@@@ATL@@QAE@XZ
  00317	8d 4e 08	 lea	 ecx, DWORD PTR [esi+8]
  0031a	ff 15 00 00 00
	00		 call	 DWORD PTR __imp_??0?$CStringT@DV?$StrTraitMFC_DLL@DV?$ChTraitsCRT@D@ATL@@@@@ATL@@QAE@XZ
  00320	8d 4e 0c	 lea	 ecx, DWORD PTR [esi+12]
  00323	ff 15 00 00 00
	00		 call	 DWORD PTR __imp_??0?$CStringT@DV?$StrTraitMFC_DLL@DV?$ChTraitsCRT@D@ATL@@@@@ATL@@QAE@XZ
  00329	8d 4e 10	 lea	 ecx, DWORD PTR [esi+16]
  0032c	ff 15 00 00 00
	00		 call	 DWORD PTR __imp_??0?$CStringT@DV?$StrTraitMFC_DLL@DV?$ChTraitsCRT@D@ATL@@@@@ATL@@QAE@XZ
  00332	8d 4e 14	 lea	 ecx, DWORD PTR [esi+20]
  00335	ff 15 00 00 00
	00		 call	 DWORD PTR __imp_??0?$CStringT@DV?$StrTraitMFC_DLL@DV?$ChTraitsCRT@D@ATL@@@@@ATL@@QAE@XZ
  0033b	8d 4e 18	 lea	 ecx, DWORD PTR [esi+24]
  0033e	ff 15 00 00 00
	00		 call	 DWORD PTR __imp_??0?$CStringT@DV?$StrTraitMFC_DLL@DV?$ChTraitsCRT@D@ATL@@@@@ATL@@QAE@XZ

; 216  : 	{
; 217  : 		m_szTitle = szTitle;

  00344	ff 75 e4	 push	 DWORD PTR _szGroupName$1$[ebp]
  00347	8d 4e 04	 lea	 ecx, DWORD PTR [esi+4]
  0034a	c6 45 fc 0e	 mov	 BYTE PTR __$EHRec$[ebp+8], 14 ; 0000000eH
  0034e	ff 15 00 00 00
	00		 call	 DWORD PTR __imp_??4?$CStringT@DV?$StrTraitMFC_DLL@DV?$ChTraitsCRT@D@ATL@@@@@ATL@@QAEAAV01@PBD@Z

; 218  : 		m_szSub = szSub;

  00354	68 00 00 00 00	 push	 OFFSET ??_C@_06JAFFKNDC@SUB_NO@
  00359	8d 4e 08	 lea	 ecx, DWORD PTR [esi+8]
  0035c	ff 15 00 00 00
	00		 call	 DWORD PTR __imp_??4?$CStringT@DV?$StrTraitMFC_DLL@DV?$ChTraitsCRT@D@ATL@@@@@ATL@@QAEAAV01@PBD@Z

; 219  : 		m_szMethod = szMethod;

  00362	68 00 00 00 00	 push	 OFFSET ??_C@_06ILELDFGC@USERTR@
  00367	8d 4e 0c	 lea	 ecx, DWORD PTR [esi+12]
  0036a	ff 15 00 00 00
	00		 call	 DWORD PTR __imp_??4?$CStringT@DV?$StrTraitMFC_DLL@DV?$ChTraitsCRT@D@ATL@@@@@ATL@@QAEAAV01@PBD@Z

; 220  : 		m_szSection = szSection;

  00370	68 00 00 00 00	 push	 OFFSET ??_C@_09MEBGDEKD@GWANGROUP@
  00375	8d 4e 10	 lea	 ecx, DWORD PTR [esi+16]
  00378	ff 15 00 00 00
	00		 call	 DWORD PTR __imp_??4?$CStringT@DV?$StrTraitMFC_DLL@DV?$ChTraitsCRT@D@ATL@@@@@ATL@@QAEAAV01@PBD@Z

; 221  : 		m_szInputData = szInputData;

  0037e	ff 75 e0	 push	 DWORD PTR $T3[ebp]
  00381	8d 4e 14	 lea	 ecx, DWORD PTR [esi+20]
  00384	ff 15 00 00 00
	00		 call	 DWORD PTR __imp_??4?$CStringT@DV?$StrTraitMFC_DLL@DV?$ChTraitsCRT@D@ATL@@@@@ATL@@QAEAAV01@PBD@Z

; 222  : 		m_szTR = szTR;

  0038a	68 00 00 00 00	 push	 OFFSET ??_C@_00CNPNBAHC@@
  0038f	8d 4e 18	 lea	 ecx, DWORD PTR [esi+24]
  00392	ff 15 00 00 00
	00		 call	 DWORD PTR __imp_??4?$CStringT@DV?$StrTraitMFC_DLL@DV?$ChTraitsCRT@D@ATL@@@@@ATL@@QAEAAV01@PBD@Z
; File C:\Program Files (x86)\Microsoft Visual Studio\2019\Community\VC\Tools\MSVC\14.29.30133\atlmfc\include\atlsimpstr.h

; 519  : 		return( GetData()->nDataLength );

  00398	8b 46 18	 mov	 eax, DWORD PTR [esi+24]
; File D:\git\src\IBK\IBK_DRFN\ProjSrc\SrcDrfn\inc\ITreeListMng.h

; 223  : 		if(m_szTR.GetLength()==0) m_szTR=TREELIST_DEFAULT_TR;

  0039b	83 78 f4 00	 cmp	 DWORD PTR [eax-12], 0
  0039f	75 0e		 jne	 SHORT $LN75@OnWinixNot
  003a1	68 00 00 00 00	 push	 OFFSET ??_C@_04OKGDLNCL@NONE@
  003a6	8d 4e 18	 lea	 ecx, DWORD PTR [esi+24]
  003a9	ff 15 00 00 00
	00		 call	 DWORD PTR __imp_??4?$CStringT@DV?$StrTraitMFC_DLL@DV?$ChTraitsCRT@D@ATL@@@@@ATL@@QAEAAV01@PBD@Z
$LN75@OnWinixNot:
; File D:\git\src\IBK\IBK_DRFN\ProjSrc\SrcDrfn\Chart\MULTICHART\TabCodeSearchWinix.cpp

; 57   : 		CItemLongData* pNew = new CItemLongData(szGroupName, "SUB_NO", "USERTR", "GWANGROUP", szInData, "", 0, 0);

  003af	8b 5d ec	 mov	 ebx, DWORD PTR _this$1$[ebp]
; File D:\git\src\IBK\IBK_DRFN\ProjSrc\SrcDrfn\inc\ITreeListMng.h

; 224  : 		m_lReserved1 = dw1;

  003b2	c7 46 1c 00 00
	00 00		 mov	 DWORD PTR [esi+28], 0

; 225  : 		m_lReserved2 = dw2;

  003b9	c7 46 20 00 00
	00 00		 mov	 DWORD PTR [esi+32], 0

; 226  : 		m_pITrComm = pITrComm;

  003c0	c7 46 24 00 00
	00 00		 mov	 DWORD PTR [esi+36], 0
; File D:\git\src\IBK\IBK_DRFN\ProjSrc\SrcDrfn\Chart\MULTICHART\TabCodeSearchWinix.cpp

; 57   : 		CItemLongData* pNew = new CItemLongData(szGroupName, "SUB_NO", "USERTR", "GWANGROUP", szInData, "", 0, 0);

  003c7	eb 02		 jmp	 SHORT $LN9@OnWinixNot
$LN8@OnWinixNot:
  003c9	33 f6		 xor	 esi, esi
$LN9@OnWinixNot:
; File C:\Program Files (x86)\Microsoft Visual Studio\2019\Community\VC\Tools\MSVC\14.29.30133\atlmfc\include\afxcmn.inl

; 342  : 	{ ASSERT(::IsWindow(m_hWnd)); return SetItem(hItem, TVIF_PARAM, NULL, 0, 0, 0, 0, (LPARAM)dwData); }

  003cb	56		 push	 esi
  003cc	6a 00		 push	 0
  003ce	6a 00		 push	 0
  003d0	6a 00		 push	 0
  003d2	6a 00		 push	 0
  003d4	6a 00		 push	 0
  003d6	6a 04		 push	 4
  003d8	ff 75 dc	 push	 DWORD PTR _hTree$1$[ebp]
; File D:\git\src\IBK\IBK_DRFN\ProjSrc\SrcDrfn\Chart\MULTICHART\TabCodeSearchWinix.cpp

; 58   : 		pNew->m_pITrComm = NULL;

  003db	c7 46 24 00 00
	00 00		 mov	 DWORD PTR [esi+36], 0
; File C:\Program Files (x86)\Microsoft Visual Studio\2019\Community\VC\Tools\MSVC\14.29.30133\atlmfc\include\afxcmn.inl

; 342  : 	{ ASSERT(::IsWindow(m_hWnd)); return SetItem(hItem, TVIF_PARAM, NULL, 0, 0, 0, 0, (LPARAM)dwData); }

  003e2	8b 8b bc 10 00
	00		 mov	 ecx, DWORD PTR [ebx+4284]
; File D:\git\src\IBK\IBK_DRFN\ProjSrc\SrcDrfn\Chart\MULTICHART\TabCodeSearchWinix.cpp

; 57   : 		CItemLongData* pNew = new CItemLongData(szGroupName, "SUB_NO", "USERTR", "GWANGROUP", szInData, "", 0, 0);

  003e8	c6 45 fc 07	 mov	 BYTE PTR __$EHRec$[ebp+8], 7
; File C:\Program Files (x86)\Microsoft Visual Studio\2019\Community\VC\Tools\MSVC\14.29.30133\atlmfc\include\afxcmn.inl

; 342  : 	{ ASSERT(::IsWindow(m_hWnd)); return SetItem(hItem, TVIF_PARAM, NULL, 0, 0, 0, 0, (LPARAM)dwData); }

  003ec	e8 00 00 00 00	 call	 ?SetItem@CTreeCtrl@@QAEHPAU_TREEITEM@@IPBDHHIIJ@Z ; CTreeCtrl::SetItem
; File D:\git\src\IBK\IBK_DRFN\ProjSrc\SrcDrfn\Chart\MULTICHART\TabCodeSearchWinix.cpp

; 61   : 		m_ItemLongDataList.AddTail(pNew);

  003f1	56		 push	 esi
  003f2	8d 8b dc 10 00
	00		 lea	 ecx, DWORD PTR [ebx+4316]
  003f8	e8 00 00 00 00	 call	 ?AddTail@?$CList@PAVCItemLongData@@PAV1@@@QAEPAU__POSITION@@PAVCItemLongData@@@Z ; CList<CItemLongData *,CItemLongData *>::AddTail

; 62   : 	}

  003fd	8d 4d 0c	 lea	 ecx, DWORD PTR _szInData$6[ebp]
  00400	c6 45 fc 06	 mov	 BYTE PTR __$EHRec$[ebp+8], 6
  00404	ff 15 00 00 00
	00		 call	 DWORD PTR __imp_??1?$CStringT@DV?$StrTraitMFC_DLL@DV?$ChTraitsCRT@D@ATL@@@@@ATL@@QAE@XZ
  0040a	8b 4d f0	 mov	 ecx, DWORD PTR _nIndx$1$[ebp]
  0040d	41		 inc	 ecx
  0040e	89 4d f0	 mov	 DWORD PTR _nIndx$1$[ebp], ecx
  00411	3b 4d d8	 cmp	 ecx, DWORD PTR _nSize$1$[ebp]
  00414	0f 8c 56 fe ff
	ff		 jl	 $LL4@OnWinixNot
$LN3@OnWinixNot:

; 63   : 	//TOUR2K
; 64   : 	m_pTreeListMng->LoadAccountAfter(m_pGwanTree, hTreeParent);

  0041a	8b 83 34 0f 00
	00		 mov	 eax, DWORD PTR [ebx+3892]
  00420	68 00 00 ff ff	 push	 -65536			; ffff0000H
  00425	ff b3 bc 10 00
	00		 push	 DWORD PTR [ebx+4284]
  0042b	8b 08		 mov	 ecx, DWORD PTR [eax]
  0042d	50		 push	 eax
  0042e	ff 51 38	 call	 DWORD PTR [ecx+56]
  00431	8d 4d ac	 lea	 ecx, DWORD PTR _itemGwan$[ebp+20]
  00434	ff 15 00 00 00
	00		 call	 DWORD PTR __imp_??1?$CStringT@DV?$StrTraitMFC_DLL@DV?$ChTraitsCRT@D@ATL@@@@@ATL@@QAE@XZ
  0043a	8d 4d a8	 lea	 ecx, DWORD PTR _itemGwan$[ebp+16]
  0043d	ff 15 00 00 00
	00		 call	 DWORD PTR __imp_??1?$CStringT@DV?$StrTraitMFC_DLL@DV?$ChTraitsCRT@D@ATL@@@@@ATL@@QAE@XZ
  00443	8d 4d a0	 lea	 ecx, DWORD PTR _itemGwan$[ebp+8]
  00446	ff 15 00 00 00
	00		 call	 DWORD PTR __imp_??1?$CStringT@DV?$StrTraitMFC_DLL@DV?$ChTraitsCRT@D@ATL@@@@@ATL@@QAE@XZ
  0044c	8d 4d 9c	 lea	 ecx, DWORD PTR _itemGwan$[ebp+4]
  0044f	ff 15 00 00 00
	00		 call	 DWORD PTR __imp_??1?$CStringT@DV?$StrTraitMFC_DLL@DV?$ChTraitsCRT@D@ATL@@@@@ATL@@QAE@XZ
  00455	8d 4d 98	 lea	 ecx, DWORD PTR _itemGwan$[ebp]
  00458	ff 15 00 00 00
	00		 call	 DWORD PTR __imp_??1?$CStringT@DV?$StrTraitMFC_DLL@DV?$ChTraitsCRT@D@ATL@@@@@ATL@@QAE@XZ
  0045e	8d 4d d4	 lea	 ecx, DWORD PTR _OneItem$[ebp+32]
  00461	ff 15 00 00 00
	00		 call	 DWORD PTR __imp_??1?$CStringT@DV?$StrTraitMFC_DLL@DV?$ChTraitsCRT@D@ATL@@@@@ATL@@QAE@XZ
  00467	8d 4d cc	 lea	 ecx, DWORD PTR _OneItem$[ebp+24]
  0046a	ff 15 00 00 00
	00		 call	 DWORD PTR __imp_??1?$CStringT@DV?$StrTraitMFC_DLL@DV?$ChTraitsCRT@D@ATL@@@@@ATL@@QAE@XZ
  00470	8d 4d c8	 lea	 ecx, DWORD PTR _OneItem$[ebp+20]
  00473	ff 15 00 00 00
	00		 call	 DWORD PTR __imp_??1?$CStringT@DV?$StrTraitMFC_DLL@DV?$ChTraitsCRT@D@ATL@@@@@ATL@@QAE@XZ
  00479	8d 4d c4	 lea	 ecx, DWORD PTR _OneItem$[ebp+16]
  0047c	ff 15 00 00 00
	00		 call	 DWORD PTR __imp_??1?$CStringT@DV?$StrTraitMFC_DLL@DV?$ChTraitsCRT@D@ATL@@@@@ATL@@QAE@XZ
  00482	8d 4d c0	 lea	 ecx, DWORD PTR _OneItem$[ebp+12]
  00485	ff 15 00 00 00
	00		 call	 DWORD PTR __imp_??1?$CStringT@DV?$StrTraitMFC_DLL@DV?$ChTraitsCRT@D@ATL@@@@@ATL@@QAE@XZ
  0048b	8d 4d bc	 lea	 ecx, DWORD PTR _OneItem$[ebp+8]
  0048e	ff 15 00 00 00
	00		 call	 DWORD PTR __imp_??1?$CStringT@DV?$StrTraitMFC_DLL@DV?$ChTraitsCRT@D@ATL@@@@@ATL@@QAE@XZ
  00494	8d 4d b8	 lea	 ecx, DWORD PTR _OneItem$[ebp+4]
  00497	ff 15 00 00 00
	00		 call	 DWORD PTR __imp_??1?$CStringT@DV?$StrTraitMFC_DLL@DV?$ChTraitsCRT@D@ATL@@@@@ATL@@QAE@XZ
  0049d	8d 4d b4	 lea	 ecx, DWORD PTR _OneItem$[ebp]
  004a0	ff 15 00 00 00
	00		 call	 DWORD PTR __imp_??1?$CStringT@DV?$StrTraitMFC_DLL@DV?$ChTraitsCRT@D@ATL@@@@@ATL@@QAE@XZ

; 65   : 
; 66   : 	return 0L;

  004a6	8d 4d e8	 lea	 ecx, DWORD PTR _szRemain$[ebp]
  004a9	ff 15 00 00 00
	00		 call	 DWORD PTR __imp_??1?$CStringT@DV?$StrTraitMFC_DLL@DV?$ChTraitsCRT@D@ATL@@@@@ATL@@QAE@XZ
  004af	8d 4d 84	 lea	 ecx, DWORD PTR _arrName$[ebp]
  004b2	e8 00 00 00 00	 call	 ??1CStringArray@@UAE@XZ	; CStringArray::~CStringArray
  004b7	8d 8d 6c ff ff
	ff		 lea	 ecx, DWORD PTR _arrKey$[ebp]
  004bd	e8 00 00 00 00	 call	 ??1CStringArray@@UAE@XZ	; CStringArray::~CStringArray
$LN6@OnWinixNot:

; 67   : }

  004c2	33 c0		 xor	 eax, eax
  004c4	8b 4d f4	 mov	 ecx, DWORD PTR __$EHRec$[ebp]
  004c7	64 89 0d 00 00
	00 00		 mov	 DWORD PTR fs:0, ecx
  004ce	59		 pop	 ecx
  004cf	5f		 pop	 edi
  004d0	5e		 pop	 esi
  004d1	5b		 pop	 ebx
  004d2	8b e5		 mov	 esp, ebp
  004d4	5d		 pop	 ebp
  004d5	c2 08 00	 ret	 8
$LN59@OnWinixNot:
; File C:\Program Files (x86)\Microsoft Visual Studio\2019\Community\VC\Tools\MSVC\14.29.30133\atlmfc\include\afxcoll.inl

; 290  : 			AfxThrowInvalidArgException();

  004d8	e8 00 00 00 00	 call	 ?AfxThrowInvalidArgException@@YGXXZ ; AfxThrowInvalidArgException
$LN116@OnWinixNot:
  004dd	cc		 int	 3
_TEXT	ENDS
;	COMDAT text$x
text$x	SEGMENT
__unwindfunclet$?OnWinixNotifySave@CTabCodeSearch@@IAEJIJ@Z$0:
  00000	8d 8d 6c ff ff
	ff		 lea	 ecx, DWORD PTR _arrKey$[ebp]
  00006	e9 00 00 00 00	 jmp	 ??1CStringArray@@UAE@XZ	; CStringArray::~CStringArray
__unwindfunclet$?OnWinixNotifySave@CTabCodeSearch@@IAEJIJ@Z$1:
  0000b	8d 4d 84	 lea	 ecx, DWORD PTR _arrName$[ebp]
  0000e	e9 00 00 00 00	 jmp	 ??1CStringArray@@UAE@XZ	; CStringArray::~CStringArray
__unwindfunclet$?OnWinixNotifySave@CTabCodeSearch@@IAEJIJ@Z$2:
  00013	8d 4d e8	 lea	 ecx, DWORD PTR _szRemain$[ebp]
  00016	ff 25 00 00 00
	00		 jmp	 DWORD PTR __imp_??1?$CStringT@DV?$StrTraitMFC_DLL@DV?$ChTraitsCRT@D@ATL@@@@@ATL@@QAE@XZ
__unwindfunclet$?OnWinixNotifySave@CTabCodeSearch@@IAEJIJ@Z$7:
  0001c	8d 4d 0c	 lea	 ecx, DWORD PTR _szChildText$5[ebp]
  0001f	ff 25 00 00 00
	00		 jmp	 DWORD PTR __imp_??1?$CStringT@DV?$StrTraitMFC_DLL@DV?$ChTraitsCRT@D@ATL@@@@@ATL@@QAE@XZ
__unwindfunclet$?OnWinixNotifySave@CTabCodeSearch@@IAEJIJ@Z$8:
  00025	8d 4d f0	 lea	 ecx, DWORD PTR $T4[ebp]
  00028	ff 25 00 00 00
	00		 jmp	 DWORD PTR __imp_??1?$CStringT@DV?$StrTraitMFC_DLL@DV?$ChTraitsCRT@D@ATL@@@@@ATL@@QAE@XZ
__unwindfunclet$?OnWinixNotifySave@CTabCodeSearch@@IAEJIJ@Z$3:
  0002e	8d 4d b4	 lea	 ecx, DWORD PTR _OneItem$[ebp]
  00031	e9 00 00 00 00	 jmp	 ??1CINT_ITEM_ST@@QAE@XZ
__unwindfunclet$?OnWinixNotifySave@CTabCodeSearch@@IAEJIJ@Z$4:
  00036	8d 4d 98	 lea	 ecx, DWORD PTR _itemGwan$[ebp]
  00039	e9 00 00 00 00	 jmp	 ??1CINT_GROUP_ST@@QAE@XZ
__unwindfunclet$?OnWinixNotifySave@CTabCodeSearch@@IAEJIJ@Z$5:
  0003e	8d 4d 0c	 lea	 ecx, DWORD PTR _szInData$6[ebp]
  00041	ff 25 00 00 00
	00		 jmp	 DWORD PTR __imp_??1?$CStringT@DV?$StrTraitMFC_DLL@DV?$ChTraitsCRT@D@ATL@@@@@ATL@@QAE@XZ
__unwindfunclet$?OnWinixNotifySave@CTabCodeSearch@@IAEJIJ@Z$6:
  00047	6a 28		 push	 40			; 00000028H
  00049	8b 45 80	 mov	 eax, DWORD PTR $T2[ebp]
  0004c	50		 push	 eax
  0004d	e8 00 00 00 00	 call	 ??3@YAXPAXI@Z		; operator delete
  00052	83 c4 08	 add	 esp, 8
  00055	c3		 ret	 0
__unwindfunclet$?OnWinixNotifySave@CTabCodeSearch@@IAEJIJ@Z$10:
  00056	8b 4d 80	 mov	 ecx, DWORD PTR $T2[ebp]
  00059	83 c1 04	 add	 ecx, 4
  0005c	ff 25 00 00 00
	00		 jmp	 DWORD PTR __imp_??1?$CStringT@DV?$StrTraitMFC_DLL@DV?$ChTraitsCRT@D@ATL@@@@@ATL@@QAE@XZ
__unwindfunclet$?OnWinixNotifySave@CTabCodeSearch@@IAEJIJ@Z$11:
  00062	8b 4d 80	 mov	 ecx, DWORD PTR $T2[ebp]
  00065	83 c1 08	 add	 ecx, 8
  00068	ff 25 00 00 00
	00		 jmp	 DWORD PTR __imp_??1?$CStringT@DV?$StrTraitMFC_DLL@DV?$ChTraitsCRT@D@ATL@@@@@ATL@@QAE@XZ
__unwindfunclet$?OnWinixNotifySave@CTabCodeSearch@@IAEJIJ@Z$12:
  0006e	8b 4d 80	 mov	 ecx, DWORD PTR $T2[ebp]
  00071	83 c1 0c	 add	 ecx, 12			; 0000000cH
  00074	ff 25 00 00 00
	00		 jmp	 DWORD PTR __imp_??1?$CStringT@DV?$StrTraitMFC_DLL@DV?$ChTraitsCRT@D@ATL@@@@@ATL@@QAE@XZ
__unwindfunclet$?OnWinixNotifySave@CTabCodeSearch@@IAEJIJ@Z$13:
  0007a	8b 4d 80	 mov	 ecx, DWORD PTR $T2[ebp]
  0007d	83 c1 10	 add	 ecx, 16			; 00000010H
  00080	ff 25 00 00 00
	00		 jmp	 DWORD PTR __imp_??1?$CStringT@DV?$StrTraitMFC_DLL@DV?$ChTraitsCRT@D@ATL@@@@@ATL@@QAE@XZ
__unwindfunclet$?OnWinixNotifySave@CTabCodeSearch@@IAEJIJ@Z$14:
  00086	8b 4d 80	 mov	 ecx, DWORD PTR $T2[ebp]
  00089	83 c1 14	 add	 ecx, 20			; 00000014H
  0008c	ff 25 00 00 00
	00		 jmp	 DWORD PTR __imp_??1?$CStringT@DV?$StrTraitMFC_DLL@DV?$ChTraitsCRT@D@ATL@@@@@ATL@@QAE@XZ
__unwindfunclet$?OnWinixNotifySave@CTabCodeSearch@@IAEJIJ@Z$15:
  00092	8b 4d 80	 mov	 ecx, DWORD PTR $T2[ebp]
  00095	83 c1 18	 add	 ecx, 24			; 00000018H
  00098	ff 25 00 00 00
	00		 jmp	 DWORD PTR __imp_??1?$CStringT@DV?$StrTraitMFC_DLL@DV?$ChTraitsCRT@D@ATL@@@@@ATL@@QAE@XZ
  0009e	cc		 int	 3
  0009f	cc		 int	 3
  000a0	cc		 int	 3
  000a1	cc		 int	 3
  000a2	cc		 int	 3
__ehhandler$?OnWinixNotifySave@CTabCodeSearch@@IAEJIJ@Z:
  000a3	90		 npad	 1
  000a4	90		 npad	 1
  000a5	8b 54 24 08	 mov	 edx, DWORD PTR [esp+8]
  000a9	8d 42 0c	 lea	 eax, DWORD PTR [edx+12]
  000ac	8b 8a 68 ff ff
	ff		 mov	 ecx, DWORD PTR [edx-152]
  000b2	33 c8		 xor	 ecx, eax
  000b4	e8 00 00 00 00	 call	 @__security_check_cookie@4
  000b9	b8 00 00 00 00	 mov	 eax, OFFSET __ehfuncinfo$?OnWinixNotifySave@CTabCodeSearch@@IAEJIJ@Z
  000be	e9 00 00 00 00	 jmp	 ___CxxFrameHandler3
text$x	ENDS
?OnWinixNotifySave@CTabCodeSearch@@IAEJIJ@Z ENDP	; CTabCodeSearch::OnWinixNotifySave
; Function compile flags: /Ogtp
; File D:\git\src\IBK\IBK_DRFN\ProjSrc\SrcDrfn\Chart\MULTICHART\TabCodeSearchWinix.cpp
;	COMDAT ?OnWinixNotifyLoad@CTabCodeSearch@@IAEJIJ@Z
_TEXT	SEGMENT
_wParam$ = 8						; size = 4
_lParam$ = 12						; size = 4
?OnWinixNotifyLoad@CTabCodeSearch@@IAEJIJ@Z PROC	; CTabCodeSearch::OnWinixNotifyLoad, COMDAT
; _this$ = ecx

; 11   : //	OutputDebugString("CTabCodeSearch::OnWinixNotifyLoad\n");
; 12   : 	return 0L;

  00000	33 c0		 xor	 eax, eax

; 13   : }

  00002	c2 08 00	 ret	 8
?OnWinixNotifyLoad@CTabCodeSearch@@IAEJIJ@Z ENDP	; CTabCodeSearch::OnWinixNotifyLoad
_TEXT	ENDS
; Function compile flags: /Ogtp
; File D:\git\src\IBK\IBK_DRFN\ProjSrc\SrcDrfn\inc\DRCommon.h
;	COMDAT ??__ERMSG_DRUSER@@YAXXZ
text$di	SEGMENT
??__ERMSG_DRUSER@@YAXXZ PROC				; `dynamic initializer for 'RMSG_DRUSER'', COMDAT

; 9    : 	const UINT RMSG_DRUSER = ::RegisterWindowMessage(_T("RMSG_DRUSER"));

  00000	68 00 00 00 00	 push	 OFFSET ??_C@_0M@LPFHDJI@RMSG_DRUSER@
  00005	ff 15 00 00 00
	00		 call	 DWORD PTR __imp__RegisterWindowMessageA@4
  0000b	a3 00 00 00 00	 mov	 DWORD PTR ?RMSG_DRUSER@@3IB, eax
  00010	c3		 ret	 0
??__ERMSG_DRUSER@@YAXXZ ENDP				; `dynamic initializer for 'RMSG_DRUSER''
text$di	ENDS
; Function compile flags: /Ogtp
; File C:\Program Files (x86)\Microsoft Visual Studio\2019\Community\VC\Tools\MSVC\14.29.30133\atlmfc\include\afx.inl
;	COMDAT ??_G?$CList@VCCodeTypeA@@V1@@@UAEPAXI@Z
_TEXT	SEGMENT
___flags$ = 8						; size = 4
??_G?$CList@VCCodeTypeA@@V1@@@UAEPAXI@Z PROC		; CList<CCodeTypeA,CCodeTypeA>::`scalar deleting destructor', COMDAT
; _this$ = ecx
  00000	55		 push	 ebp
  00001	8b ec		 mov	 ebp, esp
  00003	56		 push	 esi
  00004	8b f1		 mov	 esi, ecx
  00006	e8 00 00 00 00	 call	 ??1?$CList@VCCodeTypeA@@V1@@@UAE@XZ ; CList<CCodeTypeA,CCodeTypeA>::~CList<CCodeTypeA,CCodeTypeA>
  0000b	8b 45 08	 mov	 eax, DWORD PTR ___flags$[ebp]
  0000e	a8 01		 test	 al, 1
  00010	74 1f		 je	 SHORT $LN9@scalar
  00012	a8 04		 test	 al, 4
  00014	75 10		 jne	 SHORT $LN3@scalar

; 112  : 	{ ::operator delete(p); }

  00016	56		 push	 esi
  00017	e8 00 00 00 00	 call	 ??3@YAXPAX@Z		; operator delete
  0001c	83 c4 04	 add	 esp, 4
  0001f	8b c6		 mov	 eax, esi
  00021	5e		 pop	 esi
  00022	5d		 pop	 ebp
  00023	c2 04 00	 ret	 4
$LN3@scalar:
  00026	6a 1c		 push	 28			; 0000001cH
  00028	56		 push	 esi
  00029	e8 00 00 00 00	 call	 ?__global_delete@@YAXPAXI@Z ; __global_delete
  0002e	83 c4 08	 add	 esp, 8
$LN9@scalar:
  00031	8b c6		 mov	 eax, esi
  00033	5e		 pop	 esi
  00034	5d		 pop	 ebp
  00035	c2 04 00	 ret	 4
??_G?$CList@VCCodeTypeA@@V1@@@UAEPAXI@Z ENDP		; CList<CCodeTypeA,CCodeTypeA>::`scalar deleting destructor'
_TEXT	ENDS
; Function compile flags: /Ogtp
; File C:\Program Files (x86)\Microsoft Visual Studio\2019\Community\VC\Tools\MSVC\14.29.30133\atlmfc\include\afxtempl.h
; File C:\Program Files (x86)\Microsoft Visual Studio\2019\Community\VC\Tools\MSVC\14.29.30133\atlmfc\include\afx.inl
; File C:\Program Files (x86)\Microsoft Visual Studio\2019\Community\VC\Tools\MSVC\14.29.30133\atlmfc\include\afxtempl.h
; File C:\Program Files (x86)\Microsoft Visual Studio\2019\Community\VC\Tools\MSVC\14.29.30133\atlmfc\include\afx.inl
; File C:\Program Files (x86)\Microsoft Visual Studio\2019\Community\VC\Tools\MSVC\14.29.30133\atlmfc\include\afxtempl.h
; File C:\Program Files (x86)\Microsoft Visual Studio\2019\Community\VC\Tools\MSVC\14.29.30133\atlmfc\include\afx.inl
; File C:\Program Files (x86)\Microsoft Visual Studio\2019\Community\VC\Tools\MSVC\14.29.30133\atlmfc\include\afxtempl.h
; File C:\Program Files (x86)\Microsoft Visual Studio\2019\Community\VC\Tools\MSVC\14.29.30133\atlmfc\include\afx.inl
; File C:\Program Files (x86)\Microsoft Visual Studio\2019\Community\VC\Tools\MSVC\14.29.30133\atlmfc\include\afxtempl.h
; File C:\Program Files (x86)\Microsoft Visual Studio\2019\Community\VC\Tools\MSVC\14.29.30133\atlmfc\include\afx.inl
; File C:\Program Files (x86)\Microsoft Visual Studio\2019\Community\VC\Tools\MSVC\14.29.30133\atlmfc\include\afxtempl.h
; File C:\Program Files (x86)\Microsoft Visual Studio\2019\Community\VC\Tools\MSVC\14.29.30133\atlmfc\include\afx.inl
; File C:\Program Files (x86)\Microsoft Visual Studio\2019\Community\VC\Tools\MSVC\14.29.30133\atlmfc\include\afxtempl.h
;	COMDAT ?Serialize@?$CList@VCCodeTypeA@@V1@@@UAEXAAVCArchive@@@Z
_TEXT	SEGMENT
_newData$2 = -44					; size = 16
_this$ = -28						; size = 4
_nNewCount$1$ = -24					; size = 4
_nElementsToRead$1$ = -20				; size = 4
_pData$1$ = -20						; size = 4
_pNode$1$ = -20						; size = 4
_nElementsToRead$1$ = -16				; size = 4
_nElementsLeft$1$ = -16					; size = 4
_this$1$ = -16						; size = 4
__$EHRec$ = -12						; size = 12
_ar$ = 8						; size = 4
?Serialize@?$CList@VCCodeTypeA@@V1@@@UAEXAAVCArchive@@@Z PROC ; CList<CCodeTypeA,CCodeTypeA>::Serialize, COMDAT
; _this$ = ecx

; 1169 : {

  00000	55		 push	 ebp
  00001	8b ec		 mov	 ebp, esp
  00003	6a ff		 push	 -1
  00005	68 00 00 00 00	 push	 __ehhandler$?Serialize@?$CList@VCCodeTypeA@@V1@@@UAEXAAVCArchive@@@Z
  0000a	64 a1 00 00 00
	00		 mov	 eax, DWORD PTR fs:0
  00010	50		 push	 eax
  00011	83 ec 20	 sub	 esp, 32			; 00000020H
  00014	53		 push	 ebx
  00015	56		 push	 esi
  00016	57		 push	 edi
  00017	a1 00 00 00 00	 mov	 eax, DWORD PTR ___security_cookie
  0001c	33 c5		 xor	 eax, ebp
  0001e	50		 push	 eax
  0001f	8d 45 f4	 lea	 eax, DWORD PTR __$EHRec$[ebp]
  00022	64 a3 00 00 00
	00		 mov	 DWORD PTR fs:0, eax
  00028	8b d9		 mov	 ebx, ecx
  0002a	89 5d f0	 mov	 DWORD PTR _this$1$[ebp], ebx
; File C:\Program Files (x86)\Microsoft Visual Studio\2019\Community\VC\Tools\MSVC\14.29.30133\atlmfc\include\afx.inl

; 212  : 	{ return (m_nMode & CArchive::load) == 0; }

  0002d	8b 4d 08	 mov	 ecx, DWORD PTR _ar$[ebp]
  00030	8b 41 18	 mov	 eax, DWORD PTR [ecx+24]
  00033	f7 d0		 not	 eax
  00035	a8 01		 test	 al, 1
; File C:\Program Files (x86)\Microsoft Visual Studio\2019\Community\VC\Tools\MSVC\14.29.30133\atlmfc\include\afxtempl.h

; 1174 : 	if (ar.IsStoring())

  00037	0f 84 b2 00 00
	00		 je	 $LN7@Serialize

; 1175 : 	{
; 1176 : 		ar.WriteCount(m_nCount);

  0003d	ff 73 0c	 push	 DWORD PTR [ebx+12]
  00040	e8 00 00 00 00	 call	 ?WriteCount@CArchive@@QAEXK@Z ; CArchive::WriteCount

; 1177 : 		for (CNode* pNode = m_pNodeHead; pNode != NULL; pNode = pNode->pNext)

  00045	8b 43 04	 mov	 eax, DWORD PTR [ebx+4]
  00048	89 45 ec	 mov	 DWORD PTR _pNode$1$[ebp], eax
  0004b	85 c0		 test	 eax, eax
  0004d	0f 84 b0 01 00
	00		 je	 $LN77@Serialize
$LL4@Serialize:

; 1178 : 		{
; 1179 : 			ASSERT(AfxIsValidAddress(pNode, sizeof(CNode)));
; 1180 : 			TYPE* pData;
; 1181 : 			/*
; 1182 : 			 * in some cases the & operator might be overloaded, and we cannot use it to obtain
; 1183 : 			 * the address of a given object.  We then use the following trick to get the address
; 1184 : 			 */
; 1185 : 			pData = reinterpret_cast< TYPE* >( &reinterpret_cast< int& >( static_cast< TYPE& >( pNode->data ) ) );

  00053	8d 70 08	 lea	 esi, DWORD PTR [eax+8]

; 68   : 	ENSURE(nCount == 0 || pElements != NULL);

  00056	85 f6		 test	 esi, esi
  00058	0f 84 c2 01 00
	00		 je	 $LN69@Serialize
; File C:\Program Files (x86)\Microsoft Visual Studio\2019\Community\VC\Tools\MSVC\14.29.30133\atlmfc\include\afx.inl

; 212  : 	{ return (m_nMode & CArchive::load) == 0; }

  0005e	8b 4d 08	 mov	 ecx, DWORD PTR _ar$[ebp]
  00061	8b 41 18	 mov	 eax, DWORD PTR [ecx+24]
  00064	f7 d0		 not	 eax
  00066	a8 01		 test	 al, 1
; File C:\Program Files (x86)\Microsoft Visual Studio\2019\Community\VC\Tools\MSVC\14.29.30133\atlmfc\include\afxtempl.h

; 73   : 	if (ar.IsStoring())

  00068	74 31		 je	 SHORT $LN23@Serialize

; 74   : 	{
; 75   : 		TYPE* pData;
; 76   : 		UINT_PTR nElementsLeft;
; 77   : 
; 78   : 		nElementsLeft = nCount;

  0006a	b8 01 00 00 00	 mov	 eax, 1
  0006f	89 45 f0	 mov	 DWORD PTR _nElementsLeft$1$[ebp], eax
$LL18@Serialize:

; 80   : 		while( nElementsLeft > 0 )
; 81   : 		{
; 82   : 			UINT nElementsToWrite;
; 83   : 
; 84   : 			nElementsToWrite = UINT(__min(nElementsLeft, INT_MAX/sizeof(TYPE)));

  00072	bb ff ff ff 07	 mov	 ebx, 134217727		; 07ffffffH
  00077	3b c3		 cmp	 eax, ebx
  00079	0f 42 d8	 cmovb	 ebx, eax

; 85   : 			ar.Write(pData, nElementsToWrite*sizeof(TYPE));

  0007c	8b fb		 mov	 edi, ebx
  0007e	c1 e7 04	 shl	 edi, 4
  00081	57		 push	 edi
  00082	56		 push	 esi
  00083	e8 00 00 00 00	 call	 ?Write@CArchive@@QAEXPBXI@Z ; CArchive::Write

; 86   : 			nElementsLeft -= nElementsToWrite;

  00088	8b 45 f0	 mov	 eax, DWORD PTR _nElementsLeft$1$[ebp]

; 87   : 			pData += nElementsToWrite;

  0008b	03 f7		 add	 esi, edi
  0008d	8b 4d 08	 mov	 ecx, DWORD PTR _ar$[ebp]
  00090	2b c3		 sub	 eax, ebx
  00092	89 45 f0	 mov	 DWORD PTR _nElementsLeft$1$[ebp], eax
  00095	85 c0		 test	 eax, eax
  00097	75 d9		 jne	 SHORT $LL18@Serialize

; 88   : 		}
; 89   : 	}

  00099	eb 30		 jmp	 SHORT $LN2@Serialize
$LN23@Serialize:

; 90   : 	else
; 91   : 	{
; 92   : 		TYPE* pData;
; 93   : 		UINT_PTR nElementsLeft;
; 94   : 
; 95   : 		nElementsLeft = nCount;

  0009b	bf 01 00 00 00	 mov	 edi, 1
$LL20@Serialize:

; 97   : 		while( nElementsLeft > 0 )
; 98   : 		{
; 99   : 			UINT nElementsToRead;
; 100  : 
; 101  : 			nElementsToRead = UINT(__min(nElementsLeft, INT_MAX/sizeof(TYPE)));

  000a0	b8 ff ff ff 07	 mov	 eax, 134217727		; 07ffffffH
  000a5	3b f8		 cmp	 edi, eax
  000a7	0f 42 c7	 cmovb	 eax, edi

; 102  : 			ar.EnsureRead(pData, nElementsToRead*sizeof(TYPE));

  000aa	8b d8		 mov	 ebx, eax
  000ac	89 45 f0	 mov	 DWORD PTR _nElementsToRead$1$[ebp], eax
  000af	c1 e3 04	 shl	 ebx, 4
; File C:\Program Files (x86)\Microsoft Visual Studio\2019\Community\VC\Tools\MSVC\14.29.30133\atlmfc\include\afx.inl

; 399  : 	UINT nRead=Read(lpBuf, nCount);

  000b2	53		 push	 ebx
  000b3	56		 push	 esi
  000b4	e8 00 00 00 00	 call	 ?Read@CArchive@@QAEIPAXI@Z ; CArchive::Read

; 400  : 	if(nRead!=nCount)

  000b9	3b c3		 cmp	 eax, ebx
  000bb	0f 85 56 01 00
	00		 jne	 $LN68@Serialize
; File C:\Program Files (x86)\Microsoft Visual Studio\2019\Community\VC\Tools\MSVC\14.29.30133\atlmfc\include\afxtempl.h

; 104  : 			pData += nElementsToRead;

  000c1	8b 4d 08	 mov	 ecx, DWORD PTR _ar$[ebp]
  000c4	03 f3		 add	 esi, ebx
  000c6	2b 7d f0	 sub	 edi, DWORD PTR _nElementsToRead$1$[ebp]
  000c9	75 d5		 jne	 SHORT $LL20@Serialize
$LN2@Serialize:

; 1177 : 		for (CNode* pNode = m_pNodeHead; pNode != NULL; pNode = pNode->pNext)

  000cb	8b 45 ec	 mov	 eax, DWORD PTR _pNode$1$[ebp]
  000ce	8b 00		 mov	 eax, DWORD PTR [eax]
  000d0	89 45 ec	 mov	 DWORD PTR _pNode$1$[ebp], eax
  000d3	85 c0		 test	 eax, eax
  000d5	0f 85 78 ff ff
	ff		 jne	 $LL4@Serialize

; 1198 : 	}
; 1199 : }

  000db	8b 4d f4	 mov	 ecx, DWORD PTR __$EHRec$[ebp]
  000de	64 89 0d 00 00
	00 00		 mov	 DWORD PTR fs:0, ecx
  000e5	59		 pop	 ecx
  000e6	5f		 pop	 edi
  000e7	5e		 pop	 esi
  000e8	5b		 pop	 ebx
  000e9	8b e5		 mov	 esp, ebp
  000eb	5d		 pop	 ebp
  000ec	c2 04 00	 ret	 4
$LN7@Serialize:

; 1186 : 			SerializeElements<TYPE>(ar, pData, 1);
; 1187 : 		}
; 1188 : 	}
; 1189 : 	else
; 1190 : 	{
; 1191 : 		DWORD_PTR nNewCount = ar.ReadCount();

  000ef	e8 00 00 00 00	 call	 ?ReadCount@CArchive@@QAEKXZ ; CArchive::ReadCount

; 1192 : 		while (nNewCount--)

  000f4	85 c0		 test	 eax, eax
  000f6	0f 84 07 01 00
	00		 je	 $LN77@Serialize
  000fc	0f 1f 40 00	 npad	 4
$LL5@Serialize:

; 1194 : 			TYPE newData[1];

  00100	68 00 00 00 00	 push	 OFFSET ??1CCodeTypeA@@QAE@XZ
  00105	68 00 00 00 00	 push	 OFFSET ??0CCodeTypeA@@QAE@XZ ; CCodeTypeA::CCodeTypeA
  0010a	48		 dec	 eax
  0010b	6a 01		 push	 1
  0010d	89 45 e8	 mov	 DWORD PTR _nNewCount$1$[ebp], eax
  00110	8d 45 d4	 lea	 eax, DWORD PTR _newData$2[ebp]
  00113	6a 10		 push	 16			; 00000010H
  00115	50		 push	 eax
  00116	e8 00 00 00 00	 call	 ??_L@YGXPAXIIP6EX0@Z1@Z
; File C:\Program Files (x86)\Microsoft Visual Studio\2019\Community\VC\Tools\MSVC\14.29.30133\atlmfc\include\afx.inl

; 212  : 	{ return (m_nMode & CArchive::load) == 0; }

  0011b	8b 4d 08	 mov	 ecx, DWORD PTR _ar$[ebp]
; File C:\Program Files (x86)\Microsoft Visual Studio\2019\Community\VC\Tools\MSVC\14.29.30133\atlmfc\include\afxtempl.h

; 1194 : 			TYPE newData[1];

  0011e	c7 45 fc 00 00
	00 00		 mov	 DWORD PTR __$EHRec$[ebp+8], 0
; File C:\Program Files (x86)\Microsoft Visual Studio\2019\Community\VC\Tools\MSVC\14.29.30133\atlmfc\include\afx.inl

; 212  : 	{ return (m_nMode & CArchive::load) == 0; }

  00125	8b 41 18	 mov	 eax, DWORD PTR [ecx+24]
  00128	f7 d0		 not	 eax
  0012a	a8 01		 test	 al, 1
; File C:\Program Files (x86)\Microsoft Visual Studio\2019\Community\VC\Tools\MSVC\14.29.30133\atlmfc\include\afxtempl.h

; 73   : 	if (ar.IsStoring())

  0012c	74 39		 je	 SHORT $LN44@Serialize

; 79   : 		pData = pElements;

  0012e	8d 45 d4	 lea	 eax, DWORD PTR _newData$2[ebp]
  00131	bb 01 00 00 00	 mov	 ebx, 1
  00136	89 45 ec	 mov	 DWORD PTR _pData$1$[ebp], eax
  00139	0f 1f 80 00 00
	00 00		 npad	 7
$LL39@Serialize:

; 80   : 		while( nElementsLeft > 0 )
; 81   : 		{
; 82   : 			UINT nElementsToWrite;
; 83   : 
; 84   : 			nElementsToWrite = UINT(__min(nElementsLeft, INT_MAX/sizeof(TYPE)));

  00140	bf ff ff ff 07	 mov	 edi, 134217727		; 07ffffffH
  00145	3b df		 cmp	 ebx, edi
  00147	0f 42 fb	 cmovb	 edi, ebx

; 85   : 			ar.Write(pData, nElementsToWrite*sizeof(TYPE));

  0014a	8b f7		 mov	 esi, edi
  0014c	c1 e6 04	 shl	 esi, 4
  0014f	56		 push	 esi
  00150	50		 push	 eax
  00151	e8 00 00 00 00	 call	 ?Write@CArchive@@QAEXPBXI@Z ; CArchive::Write

; 87   : 			pData += nElementsToWrite;

  00156	8b 45 ec	 mov	 eax, DWORD PTR _pData$1$[ebp]
  00159	8b 4d 08	 mov	 ecx, DWORD PTR _ar$[ebp]
  0015c	03 c6		 add	 eax, esi
  0015e	89 45 ec	 mov	 DWORD PTR _pData$1$[ebp], eax
  00161	2b df		 sub	 ebx, edi
  00163	75 db		 jne	 SHORT $LL39@Serialize

; 88   : 		}
; 89   : 	}

  00165	eb 34		 jmp	 SHORT $LN42@Serialize
$LN44@Serialize:

; 90   : 	else
; 91   : 	{
; 92   : 		TYPE* pData;
; 93   : 		UINT_PTR nElementsLeft;
; 94   : 
; 95   : 		nElementsLeft = nCount;

  00167	be 01 00 00 00	 mov	 esi, 1

; 96   : 		pData = pElements;

  0016c	8d 5d d4	 lea	 ebx, DWORD PTR _newData$2[ebp]
  0016f	90		 npad	 1
$LL41@Serialize:

; 97   : 		while( nElementsLeft > 0 )
; 98   : 		{
; 99   : 			UINT nElementsToRead;
; 100  : 
; 101  : 			nElementsToRead = UINT(__min(nElementsLeft, INT_MAX/sizeof(TYPE)));

  00170	b8 ff ff ff 07	 mov	 eax, 134217727		; 07ffffffH
  00175	3b f0		 cmp	 esi, eax
  00177	0f 42 c6	 cmovb	 eax, esi

; 102  : 			ar.EnsureRead(pData, nElementsToRead*sizeof(TYPE));

  0017a	8b f8		 mov	 edi, eax
  0017c	89 45 ec	 mov	 DWORD PTR _nElementsToRead$1$[ebp], eax
  0017f	c1 e7 04	 shl	 edi, 4
; File C:\Program Files (x86)\Microsoft Visual Studio\2019\Community\VC\Tools\MSVC\14.29.30133\atlmfc\include\afx.inl

; 399  : 	UINT nRead=Read(lpBuf, nCount);

  00182	57		 push	 edi
  00183	53		 push	 ebx
  00184	e8 00 00 00 00	 call	 ?Read@CArchive@@QAEIPAXI@Z ; CArchive::Read

; 400  : 	if(nRead!=nCount)

  00189	3b c7		 cmp	 eax, edi
  0018b	0f 85 86 00 00
	00		 jne	 $LN68@Serialize
; File C:\Program Files (x86)\Microsoft Visual Studio\2019\Community\VC\Tools\MSVC\14.29.30133\atlmfc\include\afxtempl.h

; 104  : 			pData += nElementsToRead;

  00191	8b 4d 08	 mov	 ecx, DWORD PTR _ar$[ebp]
  00194	03 df		 add	 ebx, edi
  00196	2b 75 ec	 sub	 esi, DWORD PTR _nElementsToRead$1$[ebp]
  00199	75 d5		 jne	 SHORT $LL41@Serialize
$LN42@Serialize:

; 1195 : 			SerializeElements<TYPE>(ar, newData, 1);
; 1196 : 			AddTail(newData[0]);

  0019b	83 ec 10	 sub	 esp, 16			; 00000010H
  0019e	8b f4		 mov	 esi, esp
  001a0	89 75 e4	 mov	 DWORD PTR _this$[ebp], esi
  001a3	c7 06 00 00 00
	00		 mov	 DWORD PTR [esi], OFFSET ??_7CCodeTypeBase@@6B@
  001a9	8d 4e 08	 lea	 ecx, DWORD PTR [esi+8]
  001ac	8a 45 d8	 mov	 al, BYTE PTR _newData$2[ebp+4]
  001af	88 46 04	 mov	 BYTE PTR [esi+4], al
  001b2	8d 45 dc	 lea	 eax, DWORD PTR _newData$2[ebp+8]
  001b5	50		 push	 eax
  001b6	ff 15 00 00 00
	00		 call	 DWORD PTR __imp_??0?$CStringT@DV?$StrTraitMFC_DLL@DV?$ChTraitsCRT@D@ATL@@@@@ATL@@QAE@ABV01@@Z
  001bc	8d 45 e0	 lea	 eax, DWORD PTR _newData$2[ebp+12]
  001bf	c6 45 fc 01	 mov	 BYTE PTR __$EHRec$[ebp+8], 1
  001c3	50		 push	 eax
  001c4	8d 4e 0c	 lea	 ecx, DWORD PTR [esi+12]
  001c7	ff 15 00 00 00
	00		 call	 DWORD PTR __imp_??0?$CStringT@DV?$StrTraitMFC_DLL@DV?$ChTraitsCRT@D@ATL@@@@@ATL@@QAE@ABV01@@Z
  001cd	8b 4d f0	 mov	 ecx, DWORD PTR _this$1$[ebp]
  001d0	c6 45 fc 00	 mov	 BYTE PTR __$EHRec$[ebp+8], 0
  001d4	c7 06 00 00 00
	00		 mov	 DWORD PTR [esi], OFFSET ??_7CCodeTypeA@@6B@
  001da	e8 00 00 00 00	 call	 ?AddTail@?$CList@VCCodeTypeA@@V1@@@QAEPAU__POSITION@@VCCodeTypeA@@@Z ; CList<CCodeTypeA,CCodeTypeA>::AddTail

; 1197 : 		}

  001df	68 00 00 00 00	 push	 OFFSET ??1CCodeTypeA@@QAE@XZ
  001e4	6a 01		 push	 1
  001e6	6a 10		 push	 16			; 00000010H
  001e8	8d 45 d4	 lea	 eax, DWORD PTR _newData$2[ebp]
  001eb	c7 45 fc ff ff
	ff ff		 mov	 DWORD PTR __$EHRec$[ebp+8], -1
  001f2	50		 push	 eax
  001f3	e8 00 00 00 00	 call	 ??_M@YGXPAXIIP6EX0@Z@Z
  001f8	8b 45 e8	 mov	 eax, DWORD PTR _nNewCount$1$[ebp]
  001fb	85 c0		 test	 eax, eax
  001fd	0f 85 fd fe ff
	ff		 jne	 $LL5@Serialize
$LN77@Serialize:

; 1198 : 	}
; 1199 : }

  00203	8b 4d f4	 mov	 ecx, DWORD PTR __$EHRec$[ebp]
  00206	64 89 0d 00 00
	00 00		 mov	 DWORD PTR fs:0, ecx
  0020d	59		 pop	 ecx
  0020e	5f		 pop	 edi
  0020f	5e		 pop	 esi
  00210	5b		 pop	 ebx
  00211	8b e5		 mov	 esp, ebp
  00213	5d		 pop	 ebp
  00214	c2 04 00	 ret	 4
$LN68@Serialize:
  00217	6a 00		 push	 0
  00219	6a 03		 push	 3
  0021b	e8 00 00 00 00	 call	 ?AfxThrowArchiveException@@YGXHPBD@Z ; AfxThrowArchiveException
$LN69@Serialize:

; 68   : 	ENSURE(nCount == 0 || pElements != NULL);

  00220	e8 00 00 00 00	 call	 ?AfxThrowInvalidArgException@@YGXXZ ; AfxThrowInvalidArgException
$LN95@Serialize:
  00225	cc		 int	 3
_TEXT	ENDS
;	COMDAT text$x
text$x	SEGMENT
__unwindfunclet$?Serialize@?$CList@VCCodeTypeA@@V1@@@UAEXAAVCArchive@@@Z$0:
  00000	68 00 00 00 00	 push	 OFFSET ??1CCodeTypeA@@QAE@XZ
  00005	6a 01		 push	 1
  00007	6a 10		 push	 16			; 00000010H
  00009	8d 45 d4	 lea	 eax, DWORD PTR _newData$2[ebp]
  0000c	50		 push	 eax
  0000d	e8 00 00 00 00	 call	 ??_M@YGXPAXIIP6EX0@Z@Z
  00012	c3		 ret	 0
__unwindfunclet$?Serialize@?$CList@VCCodeTypeA@@V1@@@UAEXAAVCArchive@@@Z$3:
  00013	8b 4d e4	 mov	 ecx, DWORD PTR _this$[ebp]
  00016	83 c1 08	 add	 ecx, 8
  00019	ff 25 00 00 00
	00		 jmp	 DWORD PTR __imp_??1?$CStringT@DV?$StrTraitMFC_DLL@DV?$ChTraitsCRT@D@ATL@@@@@ATL@@QAE@XZ
  0001f	cc		 int	 3
  00020	cc		 int	 3
  00021	cc		 int	 3
  00022	cc		 int	 3
  00023	cc		 int	 3
__ehhandler$?Serialize@?$CList@VCCodeTypeA@@V1@@@UAEXAAVCArchive@@@Z:
  00024	90		 npad	 1
  00025	90		 npad	 1
  00026	8b 54 24 08	 mov	 edx, DWORD PTR [esp+8]
  0002a	8d 42 0c	 lea	 eax, DWORD PTR [edx+12]
  0002d	8b 4a d0	 mov	 ecx, DWORD PTR [edx-48]
  00030	33 c8		 xor	 ecx, eax
  00032	e8 00 00 00 00	 call	 @__security_check_cookie@4
  00037	b8 00 00 00 00	 mov	 eax, OFFSET __ehfuncinfo$?Serialize@?$CList@VCCodeTypeA@@V1@@@UAEXAAVCArchive@@@Z
  0003c	e9 00 00 00 00	 jmp	 ___CxxFrameHandler3
text$x	ENDS
?Serialize@?$CList@VCCodeTypeA@@V1@@@UAEXAAVCArchive@@@Z ENDP ; CList<CCodeTypeA,CCodeTypeA>::Serialize
; Function compile flags: /Ogtp
; File C:\Program Files (x86)\Microsoft Visual Studio\2019\Community\VC\Tools\MSVC\14.29.30133\atlmfc\include\afxtempl.h
;	COMDAT ??1?$CList@VCCodeTypeA@@V1@@@UAE@XZ
_TEXT	SEGMENT
__$EHRec$ = -12						; size = 12
??1?$CList@VCCodeTypeA@@V1@@@UAE@XZ PROC		; CList<CCodeTypeA,CCodeTypeA>::~CList<CCodeTypeA,CCodeTypeA>, COMDAT
; _this$ = ecx

; 878  : {

  00000	55		 push	 ebp
  00001	8b ec		 mov	 ebp, esp
  00003	6a ff		 push	 -1
  00005	68 00 00 00 00	 push	 __ehhandler$??1?$CList@VCCodeTypeA@@V1@@@UAE@XZ
  0000a	64 a1 00 00 00
	00		 mov	 eax, DWORD PTR fs:0
  00010	50		 push	 eax
  00011	56		 push	 esi
  00012	57		 push	 edi
  00013	a1 00 00 00 00	 mov	 eax, DWORD PTR ___security_cookie
  00018	33 c5		 xor	 eax, ebp
  0001a	50		 push	 eax
  0001b	8d 45 f4	 lea	 eax, DWORD PTR __$EHRec$[ebp]
  0001e	64 a3 00 00 00
	00		 mov	 DWORD PTR fs:0, eax
  00024	8b f9		 mov	 edi, ecx

; 867  : 	for (pNode = m_pNodeHead; pNode != NULL; pNode = pNode->pNext)

  00026	8b 77 04	 mov	 esi, DWORD PTR [edi+4]

; 878  : {

  00029	c7 07 00 00 00
	00		 mov	 DWORD PTR [edi], OFFSET ??_7?$CList@VCCodeTypeA@@V1@@@6B@

; 867  : 	for (pNode = m_pNodeHead; pNode != NULL; pNode = pNode->pNext)

  0002f	85 f6		 test	 esi, esi
  00031	74 18		 je	 SHORT $LN5@CList
$LL6@CList:

; 868  : 		pNode->data.~TYPE();

  00033	8d 4e 14	 lea	 ecx, DWORD PTR [esi+20]
  00036	ff 15 00 00 00
	00		 call	 DWORD PTR __imp_??1?$CStringT@DV?$StrTraitMFC_DLL@DV?$ChTraitsCRT@D@ATL@@@@@ATL@@QAE@XZ
  0003c	8d 4e 10	 lea	 ecx, DWORD PTR [esi+16]
  0003f	ff 15 00 00 00
	00		 call	 DWORD PTR __imp_??1?$CStringT@DV?$StrTraitMFC_DLL@DV?$ChTraitsCRT@D@ATL@@@@@ATL@@QAE@XZ

; 867  : 	for (pNode = m_pNodeHead; pNode != NULL; pNode = pNode->pNext)

  00045	8b 36		 mov	 esi, DWORD PTR [esi]
  00047	85 f6		 test	 esi, esi
  00049	75 e8		 jne	 SHORT $LL6@CList
$LN5@CList:

; 869  : 
; 870  : 	m_nCount = 0;
; 871  : 	m_pNodeHead = m_pNodeTail = m_pNodeFree = NULL;
; 872  : 	m_pBlocks->FreeDataChain();

  0004b	8b 4f 14	 mov	 ecx, DWORD PTR [edi+20]
  0004e	c7 47 0c 00 00
	00 00		 mov	 DWORD PTR [edi+12], 0
  00055	c7 47 10 00 00
	00 00		 mov	 DWORD PTR [edi+16], 0
  0005c	c7 47 08 00 00
	00 00		 mov	 DWORD PTR [edi+8], 0
  00063	c7 47 04 00 00
	00 00		 mov	 DWORD PTR [edi+4], 0
  0006a	e8 00 00 00 00	 call	 ?FreeDataChain@CPlex@@QAEXXZ ; CPlex::FreeDataChain

; 873  : 	m_pBlocks = NULL;

  0006f	c7 47 14 00 00
	00 00		 mov	 DWORD PTR [edi+20], 0

; 879  : 	RemoveAll();
; 880  : 	ASSERT(m_nCount == 0);
; 881  : }

  00076	8b 4d f4	 mov	 ecx, DWORD PTR __$EHRec$[ebp]
  00079	64 89 0d 00 00
	00 00		 mov	 DWORD PTR fs:0, ecx
  00080	59		 pop	 ecx
  00081	5f		 pop	 edi
  00082	5e		 pop	 esi
  00083	8b e5		 mov	 esp, ebp
  00085	5d		 pop	 ebp
  00086	c3		 ret	 0
  00087	cc		 int	 3
  00088	cc		 int	 3
  00089	cc		 int	 3
  0008a	cc		 int	 3
  0008b	cc		 int	 3
_TEXT	ENDS
;	COMDAT text$x
text$x	SEGMENT
__ehhandler$??1?$CList@VCCodeTypeA@@V1@@@UAE@XZ:
  00000	90		 npad	 1
  00001	90		 npad	 1
  00002	8b 54 24 08	 mov	 edx, DWORD PTR [esp+8]
  00006	8d 42 0c	 lea	 eax, DWORD PTR [edx+12]
  00009	8b 4a f4	 mov	 ecx, DWORD PTR [edx-12]
  0000c	33 c8		 xor	 ecx, eax
  0000e	e8 00 00 00 00	 call	 @__security_check_cookie@4
  00013	b8 00 00 00 00	 mov	 eax, OFFSET __ehfuncinfo$??1?$CList@VCCodeTypeA@@V1@@@UAE@XZ
  00018	e9 00 00 00 00	 jmp	 ___CxxFrameHandler3
text$x	ENDS
??1?$CList@VCCodeTypeA@@V1@@@UAE@XZ ENDP		; CList<CCodeTypeA,CCodeTypeA>::~CList<CCodeTypeA,CCodeTypeA>
; Function compile flags: /Ogtp
; File C:\Program Files (x86)\Microsoft Visual Studio\2019\Community\VC\Tools\MSVC\14.29.30133\atlmfc\include\afxtempl.h
; File D:\git\src\IBK\IBK_DRFN\ProjSrc\SrcDrfn\inc\ITreeListMng.h
; File C:\Program Files (x86)\Microsoft Visual Studio\2019\Community\VC\Tools\MSVC\14.29.30133\atlmfc\include\afxtempl.h
;	COMDAT ?NewNode@?$CList@VCCodeTypeA@@V1@@@IAEPAUCNode@1@PAU21@0@Z
_TEXT	SEGMENT
_pPrev$ = 8						; size = 4
_pNext$ = 12						; size = 4
?NewNode@?$CList@VCCodeTypeA@@V1@@@IAEPAUCNode@1@PAU21@0@Z PROC ; CList<CCodeTypeA,CCodeTypeA>::NewNode, COMDAT
; _this$ = ecx

; 901  : {

  00000	55		 push	 ebp
  00001	8b ec		 mov	 ebp, esp
  00003	56		 push	 esi
  00004	8b f1		 mov	 esi, ecx
  00006	57		 push	 edi

; 902  : 	if (m_pNodeFree == NULL)

  00007	83 7e 10 00	 cmp	 DWORD PTR [esi+16], 0
  0000b	75 33		 jne	 SHORT $LN7@NewNode

; 903  : 	{
; 904  : 		// add another block
; 905  : 		CPlex* pNewBlock = CPlex::Create(m_pBlocks, m_nBlockSize,

  0000d	6a 18		 push	 24			; 00000018H
  0000f	ff 76 18	 push	 DWORD PTR [esi+24]
  00012	8d 46 14	 lea	 eax, DWORD PTR [esi+20]
  00015	50		 push	 eax
  00016	e8 00 00 00 00	 call	 ?Create@CPlex@@SGPAU1@AAPAU1@II@Z ; CPlex::Create

; 906  : 				 sizeof(CNode));
; 907  : 
; 908  : 		// chain them into free list
; 909  : 		CNode* pNode = (CNode*) pNewBlock->data();
; 910  : 		// free in reverse order to make it easier to debug
; 911  : 		pNode += m_nBlockSize - 1;

  0001b	8b 56 18	 mov	 edx, DWORD PTR [esi+24]
  0001e	83 c0 08	 add	 eax, 8
  00021	8d 0c 52	 lea	 ecx, DWORD PTR [edx+edx*2]
  00024	8d 04 c8	 lea	 eax, DWORD PTR [eax+ecx*8]
  00027	83 c0 e8	 add	 eax, -24		; ffffffe8H

; 912  : 		for (INT_PTR i = m_nBlockSize-1; i >= 0; i--, pNode--)

  0002a	83 c2 ff	 add	 edx, -1
  0002d	78 11		 js	 SHORT $LN7@NewNode
  0002f	90		 npad	 1
$LL4@NewNode:

; 913  : 		{
; 914  : 			pNode->pNext = m_pNodeFree;

  00030	8b 4e 10	 mov	 ecx, DWORD PTR [esi+16]
  00033	89 08		 mov	 DWORD PTR [eax], ecx

; 915  : 			m_pNodeFree = pNode;

  00035	89 46 10	 mov	 DWORD PTR [esi+16], eax
  00038	83 e8 18	 sub	 eax, 24			; 00000018H
  0003b	83 ea 01	 sub	 edx, 1
  0003e	79 f0		 jns	 SHORT $LL4@NewNode
$LN7@NewNode:

; 916  : 		}
; 917  : 	}
; 918  : 	ENSURE(m_pNodeFree != NULL);  // we must have something

  00040	8b 7e 10	 mov	 edi, DWORD PTR [esi+16]
  00043	85 ff		 test	 edi, edi
  00045	74 3b		 je	 SHORT $LN22@NewNode

; 919  : 
; 920  : 	CList::CNode* pNode = m_pNodeFree;
; 921  : 	m_pNodeFree = m_pNodeFree->pNext;

  00047	8b 07		 mov	 eax, DWORD PTR [edi]
  00049	8d 4f 10	 lea	 ecx, DWORD PTR [edi+16]
  0004c	89 46 10	 mov	 DWORD PTR [esi+16], eax

; 922  : 	pNode->pPrev = pPrev;

  0004f	8b 45 08	 mov	 eax, DWORD PTR _pPrev$[ebp]
  00052	89 47 04	 mov	 DWORD PTR [edi+4], eax

; 923  : 	pNode->pNext = pNext;

  00055	8b 45 0c	 mov	 eax, DWORD PTR _pNext$[ebp]
  00058	89 07		 mov	 DWORD PTR [edi], eax

; 924  : 	m_nCount++;

  0005a	ff 46 0c	 inc	 DWORD PTR [esi+12]
  0005d	c7 47 08 00 00
	00 00		 mov	 DWORD PTR [edi+8], OFFSET ??_7CCodeTypeBase@@6B@
  00064	ff 15 00 00 00
	00		 call	 DWORD PTR __imp_??0?$CStringT@DV?$StrTraitMFC_DLL@DV?$ChTraitsCRT@D@ATL@@@@@ATL@@QAE@XZ
  0006a	8d 4f 14	 lea	 ecx, DWORD PTR [edi+20]
  0006d	ff 15 00 00 00
	00		 call	 DWORD PTR __imp_??0?$CStringT@DV?$StrTraitMFC_DLL@DV?$ChTraitsCRT@D@ATL@@@@@ATL@@QAE@XZ
; File D:\git\src\IBK\IBK_DRFN\ProjSrc\SrcDrfn\inc\ITreeListMng.h

; 350  : 	CCodeTypeA() {}

  00073	c7 47 08 00 00
	00 00		 mov	 DWORD PTR [edi+8], OFFSET ??_7CCodeTypeA@@6B@
; File C:\Program Files (x86)\Microsoft Visual Studio\2019\Community\VC\Tools\MSVC\14.29.30133\atlmfc\include\afxtempl.h

; 931  : 	return pNode;

  0007a	8b c7		 mov	 eax, edi
  0007c	5f		 pop	 edi
  0007d	5e		 pop	 esi

; 932  : }

  0007e	5d		 pop	 ebp
  0007f	c2 08 00	 ret	 8
$LN22@NewNode:

; 916  : 		}
; 917  : 	}
; 918  : 	ENSURE(m_pNodeFree != NULL);  // we must have something

  00082	e8 00 00 00 00	 call	 ?AfxThrowInvalidArgException@@YGXXZ ; AfxThrowInvalidArgException
$LN20@NewNode:
  00087	cc		 int	 3
?NewNode@?$CList@VCCodeTypeA@@V1@@@IAEPAUCNode@1@PAU21@0@Z ENDP ; CList<CCodeTypeA,CCodeTypeA>::NewNode
_TEXT	ENDS
; Function compile flags: /Ogtp
; File C:\Program Files (x86)\Microsoft Visual Studio\2019\Community\VC\Tools\MSVC\14.29.30133\atlmfc\include\afxtempl.h
;	COMDAT ?RemoveAll@?$CList@VCCodeTypeA@@V1@@@QAEXXZ
_TEXT	SEGMENT
?RemoveAll@?$CList@VCCodeTypeA@@V1@@@QAEXXZ PROC	; CList<CCodeTypeA,CCodeTypeA>::RemoveAll, COMDAT
; _this$ = ecx

; 862  : {

  00000	56		 push	 esi
  00001	57		 push	 edi
  00002	8b f9		 mov	 edi, ecx

; 863  : 	ASSERT_VALID(this);
; 864  : 
; 865  : 	// destroy elements
; 866  : 	CNode* pNode;
; 867  : 	for (pNode = m_pNodeHead; pNode != NULL; pNode = pNode->pNext)

  00004	8b 77 04	 mov	 esi, DWORD PTR [edi+4]
  00007	85 f6		 test	 esi, esi
  00009	74 1d		 je	 SHORT $LN3@RemoveAll
  0000b	0f 1f 44 00 00	 npad	 5
$LL4@RemoveAll:

; 868  : 		pNode->data.~TYPE();

  00010	8d 4e 14	 lea	 ecx, DWORD PTR [esi+20]
  00013	ff 15 00 00 00
	00		 call	 DWORD PTR __imp_??1?$CStringT@DV?$StrTraitMFC_DLL@DV?$ChTraitsCRT@D@ATL@@@@@ATL@@QAE@XZ
  00019	8d 4e 10	 lea	 ecx, DWORD PTR [esi+16]
  0001c	ff 15 00 00 00
	00		 call	 DWORD PTR __imp_??1?$CStringT@DV?$StrTraitMFC_DLL@DV?$ChTraitsCRT@D@ATL@@@@@ATL@@QAE@XZ
  00022	8b 36		 mov	 esi, DWORD PTR [esi]
  00024	85 f6		 test	 esi, esi
  00026	75 e8		 jne	 SHORT $LL4@RemoveAll
$LN3@RemoveAll:

; 869  : 
; 870  : 	m_nCount = 0;
; 871  : 	m_pNodeHead = m_pNodeTail = m_pNodeFree = NULL;
; 872  : 	m_pBlocks->FreeDataChain();

  00028	8b 4f 14	 mov	 ecx, DWORD PTR [edi+20]
  0002b	c7 47 0c 00 00
	00 00		 mov	 DWORD PTR [edi+12], 0
  00032	c7 47 10 00 00
	00 00		 mov	 DWORD PTR [edi+16], 0
  00039	c7 47 08 00 00
	00 00		 mov	 DWORD PTR [edi+8], 0
  00040	c7 47 04 00 00
	00 00		 mov	 DWORD PTR [edi+4], 0
  00047	e8 00 00 00 00	 call	 ?FreeDataChain@CPlex@@QAEXXZ ; CPlex::FreeDataChain

; 873  : 	m_pBlocks = NULL;

  0004c	c7 47 14 00 00
	00 00		 mov	 DWORD PTR [edi+20], 0
  00053	5f		 pop	 edi
  00054	5e		 pop	 esi

; 874  : }

  00055	c3		 ret	 0
?RemoveAll@?$CList@VCCodeTypeA@@V1@@@QAEXXZ ENDP	; CList<CCodeTypeA,CCodeTypeA>::RemoveAll
_TEXT	ENDS
; Function compile flags: /Ogtp
; File C:\Program Files (x86)\Microsoft Visual Studio\2019\Community\VC\Tools\MSVC\14.29.30133\atlmfc\include\afxtempl.h
; File D:\git\src\IBK\IBK_DRFN\ProjSrc\SrcDrfn\inc\ITreeListMng.h
; File C:\Program Files (x86)\Microsoft Visual Studio\2019\Community\VC\Tools\MSVC\14.29.30133\atlmfc\include\afxtempl.h
;	COMDAT ?AddTail@?$CList@VCCodeTypeA@@V1@@@QAEPAU__POSITION@@VCCodeTypeA@@@Z
_TEXT	SEGMENT
__$EHRec$ = -12						; size = 12
_newElement$ = 8					; size = 16
?AddTail@?$CList@VCCodeTypeA@@V1@@@QAEPAU__POSITION@@VCCodeTypeA@@@Z PROC ; CList<CCodeTypeA,CCodeTypeA>::AddTail, COMDAT
; _this$ = ecx

; 965  : {

  00000	55		 push	 ebp
  00001	8b ec		 mov	 ebp, esp
  00003	6a ff		 push	 -1
  00005	68 00 00 00 00	 push	 __ehhandler$?AddTail@?$CList@VCCodeTypeA@@V1@@@QAEPAU__POSITION@@VCCodeTypeA@@@Z
  0000a	64 a1 00 00 00
	00		 mov	 eax, DWORD PTR fs:0
  00010	50		 push	 eax
  00011	51		 push	 ecx
  00012	53		 push	 ebx
  00013	56		 push	 esi
  00014	57		 push	 edi
  00015	a1 00 00 00 00	 mov	 eax, DWORD PTR ___security_cookie
  0001a	33 c5		 xor	 eax, ebp
  0001c	50		 push	 eax
  0001d	8d 45 f4	 lea	 eax, DWORD PTR __$EHRec$[ebp]
  00020	64 a3 00 00 00
	00		 mov	 DWORD PTR fs:0, eax
  00026	8b f1		 mov	 esi, ecx

; 902  : 	if (m_pNodeFree == NULL)

  00028	83 7e 10 00	 cmp	 DWORD PTR [esi+16], 0

; 966  : 	ASSERT_VALID(this);
; 967  : 
; 968  : 	CNode* pNewNode = NewNode(m_pNodeTail, NULL);

  0002c	8b 7e 08	 mov	 edi, DWORD PTR [esi+8]
  0002f	c7 45 fc 00 00
	00 00		 mov	 DWORD PTR __$EHRec$[ebp+8], 0

; 902  : 	if (m_pNodeFree == NULL)

  00036	75 38		 jne	 SHORT $LN12@AddTail

; 903  : 	{
; 904  : 		// add another block
; 905  : 		CPlex* pNewBlock = CPlex::Create(m_pBlocks, m_nBlockSize,

  00038	6a 18		 push	 24			; 00000018H
  0003a	ff 76 18	 push	 DWORD PTR [esi+24]
  0003d	8d 46 14	 lea	 eax, DWORD PTR [esi+20]
  00040	50		 push	 eax
  00041	e8 00 00 00 00	 call	 ?Create@CPlex@@SGPAU1@AAPAU1@II@Z ; CPlex::Create

; 906  : 				 sizeof(CNode));
; 907  : 
; 908  : 		// chain them into free list
; 909  : 		CNode* pNode = (CNode*) pNewBlock->data();
; 910  : 		// free in reverse order to make it easier to debug
; 911  : 		pNode += m_nBlockSize - 1;

  00046	8b 56 18	 mov	 edx, DWORD PTR [esi+24]
  00049	83 c0 08	 add	 eax, 8
  0004c	8d 4a ff	 lea	 ecx, DWORD PTR [edx-1]

; 912  : 		for (INT_PTR i = m_nBlockSize-1; i >= 0; i--, pNode--)

  0004f	83 c2 ff	 add	 edx, -1
  00052	8d 0c 49	 lea	 ecx, DWORD PTR [ecx+ecx*2]
  00055	8d 0c c8	 lea	 ecx, DWORD PTR [eax+ecx*8]
  00058	78 16		 js	 SHORT $LN12@AddTail
  0005a	66 0f 1f 44 00
	00		 npad	 6
$LL9@AddTail:

; 913  : 		{
; 914  : 			pNode->pNext = m_pNodeFree;

  00060	8b 46 10	 mov	 eax, DWORD PTR [esi+16]
  00063	89 01		 mov	 DWORD PTR [ecx], eax

; 915  : 			m_pNodeFree = pNode;

  00065	89 4e 10	 mov	 DWORD PTR [esi+16], ecx
  00068	83 e9 18	 sub	 ecx, 24			; 00000018H
  0006b	83 ea 01	 sub	 edx, 1
  0006e	79 f0		 jns	 SHORT $LL9@AddTail
$LN12@AddTail:

; 916  : 		}
; 917  : 	}
; 918  : 	ENSURE(m_pNodeFree != NULL);  // we must have something

  00070	8b 5e 10	 mov	 ebx, DWORD PTR [esi+16]
  00073	85 db		 test	 ebx, ebx
  00075	0f 84 8e 00 00
	00		 je	 $LN39@AddTail

; 919  : 
; 920  : 	CList::CNode* pNode = m_pNodeFree;
; 921  : 	m_pNodeFree = m_pNodeFree->pNext;

  0007b	8b 03		 mov	 eax, DWORD PTR [ebx]
  0007d	8d 4b 10	 lea	 ecx, DWORD PTR [ebx+16]
  00080	89 46 10	 mov	 DWORD PTR [esi+16], eax

; 922  : 	pNode->pPrev = pPrev;

  00083	89 7b 04	 mov	 DWORD PTR [ebx+4], edi

; 923  : 	pNode->pNext = pNext;

  00086	c7 03 00 00 00
	00		 mov	 DWORD PTR [ebx], 0

; 924  : 	m_nCount++;

  0008c	ff 46 0c	 inc	 DWORD PTR [esi+12]
  0008f	c7 43 08 00 00
	00 00		 mov	 DWORD PTR [ebx+8], OFFSET ??_7CCodeTypeBase@@6B@
  00096	ff 15 00 00 00
	00		 call	 DWORD PTR __imp_??0?$CStringT@DV?$StrTraitMFC_DLL@DV?$ChTraitsCRT@D@ATL@@@@@ATL@@QAE@XZ
  0009c	8d 4b 14	 lea	 ecx, DWORD PTR [ebx+20]
  0009f	ff 15 00 00 00
	00		 call	 DWORD PTR __imp_??0?$CStringT@DV?$StrTraitMFC_DLL@DV?$ChTraitsCRT@D@ATL@@@@@ATL@@QAE@XZ
; File D:\git\src\IBK\IBK_DRFN\ProjSrc\SrcDrfn\inc\ITreeListMng.h

; 350  : 	CCodeTypeA() {}

  000a5	8b cb		 mov	 ecx, ebx
  000a7	c7 41 08 00 00
	00 00		 mov	 DWORD PTR [ecx+8], OFFSET ??_7CCodeTypeA@@6B@
  000ae	8a 45 0c	 mov	 al, BYTE PTR _newElement$[ebp+4]
  000b1	88 41 0c	 mov	 BYTE PTR [ecx+12], al
  000b4	8d 45 10	 lea	 eax, DWORD PTR _newElement$[ebp+8]
  000b7	50		 push	 eax
  000b8	8d 4b 10	 lea	 ecx, DWORD PTR [ebx+16]
  000bb	ff 15 00 00 00
	00		 call	 DWORD PTR __imp_??4?$CStringT@DV?$StrTraitMFC_DLL@DV?$ChTraitsCRT@D@ATL@@@@@ATL@@QAEAAV01@ABV01@@Z
  000c1	8d 45 14	 lea	 eax, DWORD PTR _newElement$[ebp+12]
  000c4	50		 push	 eax
  000c5	8d 4b 14	 lea	 ecx, DWORD PTR [ebx+20]
  000c8	ff 15 00 00 00
	00		 call	 DWORD PTR __imp_??4?$CStringT@DV?$StrTraitMFC_DLL@DV?$ChTraitsCRT@D@ATL@@@@@ATL@@QAEAAV01@ABV01@@Z
; File C:\Program Files (x86)\Microsoft Visual Studio\2019\Community\VC\Tools\MSVC\14.29.30133\atlmfc\include\afxtempl.h

; 970  : 	if (m_pNodeTail != NULL)

  000ce	8b 46 08	 mov	 eax, DWORD PTR [esi+8]
  000d1	8b fb		 mov	 edi, ebx
  000d3	85 c0		 test	 eax, eax
  000d5	74 04		 je	 SHORT $LN2@AddTail

; 971  : 		m_pNodeTail->pNext = pNewNode;

  000d7	89 38		 mov	 DWORD PTR [eax], edi
  000d9	eb 03		 jmp	 SHORT $LN3@AddTail
$LN2@AddTail:

; 972  : 	else
; 973  : 		m_pNodeHead = pNewNode;

  000db	89 7e 04	 mov	 DWORD PTR [esi+4], edi
$LN3@AddTail:
  000de	8d 4d 14	 lea	 ecx, DWORD PTR _newElement$[ebp+12]

; 974  : 	m_pNodeTail = pNewNode;

  000e1	89 7e 08	 mov	 DWORD PTR [esi+8], edi
  000e4	ff 15 00 00 00
	00		 call	 DWORD PTR __imp_??1?$CStringT@DV?$StrTraitMFC_DLL@DV?$ChTraitsCRT@D@ATL@@@@@ATL@@QAE@XZ
  000ea	8d 4d 10	 lea	 ecx, DWORD PTR _newElement$[ebp+8]
  000ed	ff 15 00 00 00
	00		 call	 DWORD PTR __imp_??1?$CStringT@DV?$StrTraitMFC_DLL@DV?$ChTraitsCRT@D@ATL@@@@@ATL@@QAE@XZ

; 975  : 	return (POSITION) pNewNode;

  000f3	8b c7		 mov	 eax, edi

; 976  : }

  000f5	8b 4d f4	 mov	 ecx, DWORD PTR __$EHRec$[ebp]
  000f8	64 89 0d 00 00
	00 00		 mov	 DWORD PTR fs:0, ecx
  000ff	59		 pop	 ecx
  00100	5f		 pop	 edi
  00101	5e		 pop	 esi
  00102	5b		 pop	 ebx
  00103	8b e5		 mov	 esp, ebp
  00105	5d		 pop	 ebp
  00106	c2 10 00	 ret	 16			; 00000010H
$LN39@AddTail:

; 918  : 	ENSURE(m_pNodeFree != NULL);  // we must have something

  00109	e8 00 00 00 00	 call	 ?AfxThrowInvalidArgException@@YGXXZ ; AfxThrowInvalidArgException
$LN37@AddTail:
  0010e	cc		 int	 3
_TEXT	ENDS
;	COMDAT text$x
text$x	SEGMENT
__unwindfunclet$?AddTail@?$CList@VCCodeTypeA@@V1@@@QAEPAU__POSITION@@VCCodeTypeA@@@Z$0:
  00000	8d 4d 08	 lea	 ecx, DWORD PTR _newElement$[ebp]
  00003	e9 00 00 00 00	 jmp	 ??1CCodeTypeA@@QAE@XZ
  00008	cc		 int	 3
  00009	cc		 int	 3
  0000a	cc		 int	 3
  0000b	cc		 int	 3
  0000c	cc		 int	 3
__ehhandler$?AddTail@?$CList@VCCodeTypeA@@V1@@@QAEPAU__POSITION@@VCCodeTypeA@@@Z:
  0000d	90		 npad	 1
  0000e	90		 npad	 1
  0000f	8b 54 24 08	 mov	 edx, DWORD PTR [esp+8]
  00013	8d 42 0c	 lea	 eax, DWORD PTR [edx+12]
  00016	8b 4a ec	 mov	 ecx, DWORD PTR [edx-20]
  00019	33 c8		 xor	 ecx, eax
  0001b	e8 00 00 00 00	 call	 @__security_check_cookie@4
  00020	b8 00 00 00 00	 mov	 eax, OFFSET __ehfuncinfo$?AddTail@?$CList@VCCodeTypeA@@V1@@@QAEPAU__POSITION@@VCCodeTypeA@@@Z
  00025	e9 00 00 00 00	 jmp	 ___CxxFrameHandler3
text$x	ENDS
?AddTail@?$CList@VCCodeTypeA@@V1@@@QAEPAU__POSITION@@VCCodeTypeA@@@Z ENDP ; CList<CCodeTypeA,CCodeTypeA>::AddTail
; Function compile flags: /Ogtp
; File C:\Program Files (x86)\Microsoft Visual Studio\2019\Community\VC\Tools\MSVC\14.29.30133\atlmfc\include\afxtempl.h
;	COMDAT ??0?$CList@VCCodeTypeA@@V1@@@QAE@H@Z
_TEXT	SEGMENT
_nBlockSize$ = 8					; size = 4
??0?$CList@VCCodeTypeA@@V1@@@QAE@H@Z PROC		; CList<CCodeTypeA,CCodeTypeA>::CList<CCodeTypeA,CCodeTypeA>, COMDAT
; _this$ = ecx

; 851  : {

  00000	55		 push	 ebp
  00001	8b ec		 mov	 ebp, esp

; 852  : 	ASSERT(nBlockSize > 0);
; 853  : 
; 854  : 	m_nCount = 0;
; 855  : 	m_pNodeHead = m_pNodeTail = m_pNodeFree = NULL;
; 856  : 	m_pBlocks = NULL;
; 857  : 	m_nBlockSize = nBlockSize;

  00003	8b 45 08	 mov	 eax, DWORD PTR _nBlockSize$[ebp]
  00006	89 41 18	 mov	 DWORD PTR [ecx+24], eax

; 858  : }

  00009	8b c1		 mov	 eax, ecx
  0000b	c7 01 00 00 00
	00		 mov	 DWORD PTR [ecx], OFFSET ??_7?$CList@VCCodeTypeA@@V1@@@6B@
  00011	c7 41 0c 00 00
	00 00		 mov	 DWORD PTR [ecx+12], 0
  00018	c7 41 10 00 00
	00 00		 mov	 DWORD PTR [ecx+16], 0
  0001f	c7 41 08 00 00
	00 00		 mov	 DWORD PTR [ecx+8], 0
  00026	c7 41 04 00 00
	00 00		 mov	 DWORD PTR [ecx+4], 0
  0002d	c7 41 14 00 00
	00 00		 mov	 DWORD PTR [ecx+20], 0
  00034	5d		 pop	 ebp
  00035	c2 04 00	 ret	 4
??0?$CList@VCCodeTypeA@@V1@@@QAE@H@Z ENDP		; CList<CCodeTypeA,CCodeTypeA>::CList<CCodeTypeA,CCodeTypeA>
_TEXT	ENDS
; Function compile flags: /Ogtp
; File D:\git\src\IBK\IBK_DRFN\ProjSrc\SrcDrfn\Chart\MULTICHART\define\ChartMsgDef.h
;	COMDAT ??__ERMSG_SETINFO@@YAXXZ
text$di	SEGMENT
??__ERMSG_SETINFO@@YAXXZ PROC				; `dynamic initializer for 'RMSG_SETINFO'', COMDAT

; 238  : const UINT RMSG_SETINFO = ::RegisterWindowMessage(_T("RMSG_SETINFO"));

  00000	68 00 00 00 00	 push	 OFFSET ??_C@_0N@HABLPHJG@RMSG_SETINFO@
  00005	ff 15 00 00 00
	00		 call	 DWORD PTR __imp__RegisterWindowMessageA@4
  0000b	a3 00 00 00 00	 mov	 DWORD PTR ?RMSG_SETINFO@@3IB, eax
  00010	c3		 ret	 0
??__ERMSG_SETINFO@@YAXXZ ENDP				; `dynamic initializer for 'RMSG_SETINFO''
text$di	ENDS
; Function compile flags: /Ogtp
; File D:\git\src\IBK\IBK_DRFN\ProjSrc\SrcDrfn\Chart\MULTICHART\define\ChartMsgDef.h
;	COMDAT ??__ERMSG_GETINFO@@YAXXZ
text$di	SEGMENT
??__ERMSG_GETINFO@@YAXXZ PROC				; `dynamic initializer for 'RMSG_GETINFO'', COMDAT

; 237  : const UINT RMSG_GETINFO = ::RegisterWindowMessage(_T("RMSG_GETINFO"));

  00000	68 00 00 00 00	 push	 OFFSET ??_C@_0N@IIOKMIEH@RMSG_GETINFO@
  00005	ff 15 00 00 00
	00		 call	 DWORD PTR __imp__RegisterWindowMessageA@4
  0000b	a3 00 00 00 00	 mov	 DWORD PTR ?RMSG_GETINFO@@3IB, eax
  00010	c3		 ret	 0
??__ERMSG_GETINFO@@YAXXZ ENDP				; `dynamic initializer for 'RMSG_GETINFO''
text$di	ENDS
; Function compile flags: /Ogtp
; File D:\git\src\IBK\IBK_DRFN\ProjSrc\SrcDrfn\Chart\MULTICHART\define\ChartMsgDef.h
;	COMDAT ??__ERMSG_SETINITIALCHARTDATA@@YAXXZ
text$di	SEGMENT
??__ERMSG_SETINITIALCHARTDATA@@YAXXZ PROC		; `dynamic initializer for 'RMSG_SETINITIALCHARTDATA'', COMDAT

; 235  : const UINT RMSG_SETINITIALCHARTDATA = ::RegisterWindowMessage(_T("RMSG_SETINITIALCHARTDATA"));

  00000	68 00 00 00 00	 push	 OFFSET ??_C@_0BJ@OGNAJHHI@RMSG_SETINITIALCHARTDATA@
  00005	ff 15 00 00 00
	00		 call	 DWORD PTR __imp__RegisterWindowMessageA@4
  0000b	a3 00 00 00 00	 mov	 DWORD PTR ?RMSG_SETINITIALCHARTDATA@@3IB, eax
  00010	c3		 ret	 0
??__ERMSG_SETINITIALCHARTDATA@@YAXXZ ENDP		; `dynamic initializer for 'RMSG_SETINITIALCHARTDATA''
text$di	ENDS
; Function compile flags: /Ogtp
; File D:\git\src\IBK\IBK_DRFN\ProjSrc\SrcDrfn\Chart\MULTICHART\define\ChartMsgDef.h
;	COMDAT ??__ERMSG_ADD_PLATFORM_MENU@@YAXXZ
text$di	SEGMENT
??__ERMSG_ADD_PLATFORM_MENU@@YAXXZ PROC			; `dynamic initializer for 'RMSG_ADD_PLATFORM_MENU'', COMDAT

; 233  : const UINT RMSG_ADD_PLATFORM_MENU = ::RegisterWindowMessage(_T("RMSG_ADD_PLATFORM_MENU"));

  00000	68 00 00 00 00	 push	 OFFSET ??_C@_0BH@IFDMIMBP@RMSG_ADD_PLATFORM_MENU@
  00005	ff 15 00 00 00
	00		 call	 DWORD PTR __imp__RegisterWindowMessageA@4
  0000b	a3 00 00 00 00	 mov	 DWORD PTR ?RMSG_ADD_PLATFORM_MENU@@3IB, eax
  00010	c3		 ret	 0
??__ERMSG_ADD_PLATFORM_MENU@@YAXXZ ENDP			; `dynamic initializer for 'RMSG_ADD_PLATFORM_MENU''
text$di	ENDS
; Function compile flags: /Ogtp
; File D:\git\src\IBK\IBK_DRFN\ProjSrc\SrcDrfn\Chart\MULTICHART\define\ChartMsgDef.h
;	COMDAT ??__ERMSG_CHANGE_CROSSLINE@@YAXXZ
text$di	SEGMENT
??__ERMSG_CHANGE_CROSSLINE@@YAXXZ PROC			; `dynamic initializer for 'RMSG_CHANGE_CROSSLINE'', COMDAT

; 231  : const UINT RMSG_CHANGE_CROSSLINE = ::RegisterWindowMessage(_T("RMSG_CHANGE_CROSSLINE"));

  00000	68 00 00 00 00	 push	 OFFSET ??_C@_0BG@LNLCJKPF@RMSG_CHANGE_CROSSLINE@
  00005	ff 15 00 00 00
	00		 call	 DWORD PTR __imp__RegisterWindowMessageA@4
  0000b	a3 00 00 00 00	 mov	 DWORD PTR ?RMSG_CHANGE_CROSSLINE@@3IB, eax
  00010	c3		 ret	 0
??__ERMSG_CHANGE_CROSSLINE@@YAXXZ ENDP			; `dynamic initializer for 'RMSG_CHANGE_CROSSLINE''
text$di	ENDS
; Function compile flags: /Ogtp
; File D:\git\src\IBK\IBK_DRFN\ProjSrc\SrcDrfn\Chart\MULTICHART\define\ChartMsgDef.h
;	COMDAT ??__ERMSG_CHANGEVERTSCALETYPE@@YAXXZ
text$di	SEGMENT
??__ERMSG_CHANGEVERTSCALETYPE@@YAXXZ PROC		; `dynamic initializer for 'RMSG_CHANGEVERTSCALETYPE'', COMDAT

; 229  : const UINT RMSG_CHANGEVERTSCALETYPE = ::RegisterWindowMessage(_T("RMSG_CHANGEVERTSCALETYPE"));

  00000	68 00 00 00 00	 push	 OFFSET ??_C@_0BJ@JLKHIBIK@RMSG_CHANGEVERTSCALETYPE@
  00005	ff 15 00 00 00
	00		 call	 DWORD PTR __imp__RegisterWindowMessageA@4
  0000b	a3 00 00 00 00	 mov	 DWORD PTR ?RMSG_CHANGEVERTSCALETYPE@@3IB, eax
  00010	c3		 ret	 0
??__ERMSG_CHANGEVERTSCALETYPE@@YAXXZ ENDP		; `dynamic initializer for 'RMSG_CHANGEVERTSCALETYPE''
text$di	ENDS
; Function compile flags: /Ogtp
; File D:\git\src\IBK\IBK_DRFN\ProjSrc\SrcDrfn\Chart\MULTICHART\define\ChartMsgDef.h
;	COMDAT ??__ERMSG_GET_SKINCOLOR@@YAXXZ
text$di	SEGMENT
??__ERMSG_GET_SKINCOLOR@@YAXXZ PROC			; `dynamic initializer for 'RMSG_GET_SKINCOLOR'', COMDAT

; 226  : const UINT RMSG_GET_SKINCOLOR = ::RegisterWindowMessage(_T("RMSG_GET_SKINCOLOR"));

  00000	68 00 00 00 00	 push	 OFFSET ??_C@_0BD@FLDNDDHK@RMSG_GET_SKINCOLOR@
  00005	ff 15 00 00 00
	00		 call	 DWORD PTR __imp__RegisterWindowMessageA@4
  0000b	a3 00 00 00 00	 mov	 DWORD PTR ?RMSG_GET_SKINCOLOR@@3IB, eax
  00010	c3		 ret	 0
??__ERMSG_GET_SKINCOLOR@@YAXXZ ENDP			; `dynamic initializer for 'RMSG_GET_SKINCOLOR''
text$di	ENDS
; Function compile flags: /Ogtp
; File D:\git\src\IBK\IBK_DRFN\ProjSrc\SrcDrfn\Chart\MULTICHART\define\ChartMsgDef.h
;	COMDAT ??__ERMSG_CHANGE_SKINCOLOR@@YAXXZ
text$di	SEGMENT
??__ERMSG_CHANGE_SKINCOLOR@@YAXXZ PROC			; `dynamic initializer for 'RMSG_CHANGE_SKINCOLOR'', COMDAT

; 225  : const UINT RMSG_CHANGE_SKINCOLOR = ::RegisterWindowMessage(_T("RMSG_CHANGE_SKINCOLOR"));

  00000	68 00 00 00 00	 push	 OFFSET ??_C@_0BG@CNPAHNGG@RMSG_CHANGE_SKINCOLOR@
  00005	ff 15 00 00 00
	00		 call	 DWORD PTR __imp__RegisterWindowMessageA@4
  0000b	a3 00 00 00 00	 mov	 DWORD PTR ?RMSG_CHANGE_SKINCOLOR@@3IB, eax
  00010	c3		 ret	 0
??__ERMSG_CHANGE_SKINCOLOR@@YAXXZ ENDP			; `dynamic initializer for 'RMSG_CHANGE_SKINCOLOR''
text$di	ENDS
; Function compile flags: /Ogtp
; File D:\git\src\IBK\IBK_DRFN\ProjSrc\SrcDrfn\Chart\MULTICHART\define\ChartMsgDef.h
;	COMDAT ??__ERMSG_GET_USERID@@YAXXZ
text$di	SEGMENT
??__ERMSG_GET_USERID@@YAXXZ PROC			; `dynamic initializer for 'RMSG_GET_USERID'', COMDAT

; 215  : const UINT RMSG_GET_USERID = ::RegisterWindowMessage(_T("RMSG_GET_USERID"));	// User ID 

  00000	68 00 00 00 00	 push	 OFFSET ??_C@_0BA@HKNFENJL@RMSG_GET_USERID@
  00005	ff 15 00 00 00
	00		 call	 DWORD PTR __imp__RegisterWindowMessageA@4
  0000b	a3 00 00 00 00	 mov	 DWORD PTR ?RMSG_GET_USERID@@3IB, eax
  00010	c3		 ret	 0
??__ERMSG_GET_USERID@@YAXXZ ENDP			; `dynamic initializer for 'RMSG_GET_USERID''
text$di	ENDS
; Function compile flags: /Ogtp
; File D:\git\src\IBK\IBK_DRFN\ProjSrc\SrcDrfn\Chart\MULTICHART\define\ChartMsgDef.h
;	COMDAT ??__ERMS_ANALYSIS_FUNC@@YAXXZ
text$di	SEGMENT
??__ERMS_ANALYSIS_FUNC@@YAXXZ PROC			; `dynamic initializer for 'RMS_ANALYSIS_FUNC'', COMDAT

; 211  : const UINT RMS_ANALYSIS_FUNC	= ::RegisterWindowMessage(_T("RMS_ANALYSIS_FUNC"));

  00000	68 00 00 00 00	 push	 OFFSET ??_C@_0BC@MMPGLPDH@RMS_ANALYSIS_FUNC@
  00005	ff 15 00 00 00
	00		 call	 DWORD PTR __imp__RegisterWindowMessageA@4
  0000b	a3 00 00 00 00	 mov	 DWORD PTR ?RMS_ANALYSIS_FUNC@@3IB, eax
  00010	c3		 ret	 0
??__ERMS_ANALYSIS_FUNC@@YAXXZ ENDP			; `dynamic initializer for 'RMS_ANALYSIS_FUNC''
text$di	ENDS
; Function compile flags: /Ogtp
; File D:\git\src\IBK\IBK_DRFN\ProjSrc\SrcDrfn\Chart\MULTICHART\define\ChartMsgDef.h
;	COMDAT ??__ERMSG_CHARTMAIN@@YAXXZ
text$di	SEGMENT
??__ERMSG_CHARTMAIN@@YAXXZ PROC				; `dynamic initializer for 'RMSG_CHARTMAIN'', COMDAT

; 208  : const UINT RMSG_CHARTMAIN		= ::RegisterWindowMessage(_T("RMSG_CHARTMAIN"));

  00000	68 00 00 00 00	 push	 OFFSET ??_C@_0P@KHFCBIOH@RMSG_CHARTMAIN@
  00005	ff 15 00 00 00
	00		 call	 DWORD PTR __imp__RegisterWindowMessageA@4
  0000b	a3 00 00 00 00	 mov	 DWORD PTR ?RMSG_CHARTMAIN@@3IB, eax
  00010	c3		 ret	 0
??__ERMSG_CHARTMAIN@@YAXXZ ENDP				; `dynamic initializer for 'RMSG_CHARTMAIN''
text$di	ENDS
; Function compile flags: /Ogtp
; File D:\git\src\IBK\IBK_DRFN\ProjSrc\SrcDrfn\Chart\MULTICHART\define\ChartMsgDef.h
;	COMDAT ??__ERMSG_SETQUERYOPT@@YAXXZ
text$di	SEGMENT
??__ERMSG_SETQUERYOPT@@YAXXZ PROC			; `dynamic initializer for 'RMSG_SETQUERYOPT'', COMDAT

; 183  : const UINT RMSG_SETQUERYOPT = ::RegisterWindowMessage(_T("RMSG_SETQUERYOPT"));

  00000	68 00 00 00 00	 push	 OFFSET ??_C@_0BB@CNOFPEHG@RMSG_SETQUERYOPT@
  00005	ff 15 00 00 00
	00		 call	 DWORD PTR __imp__RegisterWindowMessageA@4
  0000b	a3 00 00 00 00	 mov	 DWORD PTR ?RMSG_SETQUERYOPT@@3IB, eax
  00010	c3		 ret	 0
??__ERMSG_SETQUERYOPT@@YAXXZ ENDP			; `dynamic initializer for 'RMSG_SETQUERYOPT''
text$di	ENDS
; Function compile flags: /Ogtp
; File D:\git\src\IBK\IBK_DRFN\ProjSrc\SrcDrfn\Chart\commontr\TRDefine.h
;	COMDAT ??__ERMSG_GETSIGNAL_REAL@@YAXXZ
text$di	SEGMENT
??__ERMSG_GETSIGNAL_REAL@@YAXXZ PROC			; `dynamic initializer for 'RMSG_GETSIGNAL_REAL'', COMDAT

; 213  : const UINT RMSG_GETSIGNAL_REAL = ::RegisterWindowMessage(_T("RMSG_GETSIGNAL_REAL"));

  00000	68 00 00 00 00	 push	 OFFSET ??_C@_0BE@FJPKENOB@RMSG_GETSIGNAL_REAL@
  00005	ff 15 00 00 00
	00		 call	 DWORD PTR __imp__RegisterWindowMessageA@4
  0000b	a3 00 00 00 00	 mov	 DWORD PTR ?RMSG_GETSIGNAL_REAL@@3IB, eax
  00010	c3		 ret	 0
??__ERMSG_GETSIGNAL_REAL@@YAXXZ ENDP			; `dynamic initializer for 'RMSG_GETSIGNAL_REAL''
text$di	ENDS
; Function compile flags: /Ogtp
;	COMDAT ??1CCodeTypeA@@QAE@XZ
_TEXT	SEGMENT
??1CCodeTypeA@@QAE@XZ PROC				; CCodeTypeA::~CCodeTypeA, COMDAT
; _this$ = ecx
  00000	56		 push	 esi
  00001	8b f1		 mov	 esi, ecx
  00003	8d 4e 0c	 lea	 ecx, DWORD PTR [esi+12]
  00006	ff 15 00 00 00
	00		 call	 DWORD PTR __imp_??1?$CStringT@DV?$StrTraitMFC_DLL@DV?$ChTraitsCRT@D@ATL@@@@@ATL@@QAE@XZ
  0000c	8d 4e 08	 lea	 ecx, DWORD PTR [esi+8]
  0000f	5e		 pop	 esi
  00010	ff 25 00 00 00
	00		 jmp	 DWORD PTR __imp_??1?$CStringT@DV?$StrTraitMFC_DLL@DV?$ChTraitsCRT@D@ATL@@@@@ATL@@QAE@XZ
??1CCodeTypeA@@QAE@XZ ENDP				; CCodeTypeA::~CCodeTypeA
_TEXT	ENDS
; Function compile flags: /Ogtp
; File D:\git\src\IBK\IBK_DRFN\ProjSrc\SrcDrfn\inc\ITreeListMng.h
;	COMDAT ?ConvertOneClickData@CCodeTypeA@@UAEXPAD@Z
_TEXT	SEGMENT
_strData$ = 8						; size = 4
?ConvertOneClickData@CCodeTypeA@@UAEXPAD@Z PROC		; CCodeTypeA::ConvertOneClickData, COMDAT
; _this$ = ecx

; 374  : 	{

  00000	55		 push	 ebp
  00001	8b ec		 mov	 ebp, esp

; 376  : 	}

  00003	5d		 pop	 ebp

; 375  : 		CCodeTypeBase::ConvertOneClickData(strData);

  00004	e9 00 00 00 00	 jmp	 ?ConvertOneClickData@CCodeTypeBase@@UAEXPAD@Z ; CCodeTypeBase::ConvertOneClickData
?ConvertOneClickData@CCodeTypeA@@UAEXPAD@Z ENDP		; CCodeTypeA::ConvertOneClickData
_TEXT	ENDS
; Function compile flags: /Ogtp
; File D:\git\src\IBK\IBK_DRFN\ProjSrc\SrcDrfn\inc\ITreeListMng.h
;	COMDAT ?Convert2@CCodeTypeA@@UAEXPAD@Z
_TEXT	SEGMENT
_sTmp$ = -28						; size = 21
__$ArrayPad$ = -4					; size = 4
_pData$ = 8						; size = 4
?Convert2@CCodeTypeA@@UAEXPAD@Z PROC			; CCodeTypeA::Convert2, COMDAT
; _this$ = ecx

; 361  : 	{

  00000	55		 push	 ebp
  00001	8b ec		 mov	 ebp, esp
  00003	83 ec 1c	 sub	 esp, 28			; 0000001cH
  00006	a1 00 00 00 00	 mov	 eax, DWORD PTR ___security_cookie
  0000b	33 c5		 xor	 eax, ebp
  0000d	89 45 fc	 mov	 DWORD PTR __$ArrayPad$[ebp], eax
  00010	56		 push	 esi
  00011	8b 75 08	 mov	 esi, DWORD PTR _pData$[ebp]
  00014	57		 push	 edi
  00015	8b f9		 mov	 edi, ecx

; 362  : 		int nL;
; 363  : 		char sTmp[20+1];
; 364  : 		nL=6;  memcpy(sTmp, pData, nL); sTmp[nL]=0;  pData=&pData[nL]; m_szcode=sTmp;

  00017	c6 45 ea 00	 mov	 BYTE PTR _sTmp$[ebp+6], 0
  0001b	8b 06		 mov	 eax, DWORD PTR [esi]
  0001d	89 45 e4	 mov	 DWORD PTR _sTmp$[ebp], eax
  00020	66 8b 46 04	 mov	 ax, WORD PTR [esi+4]
  00024	8d 4f 08	 lea	 ecx, DWORD PTR [edi+8]
  00027	66 89 45 e8	 mov	 WORD PTR _sTmp$[ebp+4], ax
  0002b	8d 45 e4	 lea	 eax, DWORD PTR _sTmp$[ebp]
  0002e	50		 push	 eax
  0002f	ff 15 00 00 00
	00		 call	 DWORD PTR __imp_??4?$CStringT@DV?$StrTraitMFC_DLL@DV?$ChTraitsCRT@D@ATL@@@@@ATL@@QAEAAV01@PBD@Z

; 365  : 		nL=20; memcpy(sTmp, pData, nL); sTmp[nL]=0;  m_szhname=sTmp; m_szhname.TrimRight();

  00035	0f 10 46 06	 movups	 xmm0, XMMWORD PTR [esi+6]
  00039	8d 4f 0c	 lea	 ecx, DWORD PTR [edi+12]
  0003c	0f 11 45 e4	 movups	 XMMWORD PTR _sTmp$[ebp], xmm0
  00040	8b 46 16	 mov	 eax, DWORD PTR [esi+22]
  00043	89 45 f4	 mov	 DWORD PTR _sTmp$[ebp+16], eax
  00046	8d 45 e4	 lea	 eax, DWORD PTR _sTmp$[ebp]
  00049	50		 push	 eax
  0004a	c6 45 f8 00	 mov	 BYTE PTR _sTmp$[ebp+20], 0
  0004e	ff 15 00 00 00
	00		 call	 DWORD PTR __imp_??4?$CStringT@DV?$StrTraitMFC_DLL@DV?$ChTraitsCRT@D@ATL@@@@@ATL@@QAEAAV01@PBD@Z
  00054	8d 4f 0c	 lea	 ecx, DWORD PTR [edi+12]
  00057	ff 15 00 00 00
	00		 call	 DWORD PTR __imp_?TrimRight@?$CStringT@DV?$StrTraitMFC_DLL@DV?$ChTraitsCRT@D@ATL@@@@@ATL@@QAEAAV12@XZ

; 366  : 	}

  0005d	8b 4d fc	 mov	 ecx, DWORD PTR __$ArrayPad$[ebp]
  00060	5f		 pop	 edi
  00061	33 cd		 xor	 ecx, ebp
  00063	5e		 pop	 esi
  00064	e8 00 00 00 00	 call	 @__security_check_cookie@4
  00069	8b e5		 mov	 esp, ebp
  0006b	5d		 pop	 ebp
  0006c	c2 04 00	 ret	 4
?Convert2@CCodeTypeA@@UAEXPAD@Z ENDP			; CCodeTypeA::Convert2
_TEXT	ENDS
; Function compile flags: /Ogtp
; File D:\git\src\IBK\IBK_DRFN\ProjSrc\SrcDrfn\inc\ITreeListMng.h
;	COMDAT ?Convert@CCodeTypeA@@UAEXPAD@Z
_TEXT	SEGMENT
_sTmp$ = -28						; size = 21
__$ArrayPad$ = -4					; size = 4
_pData$ = 8						; size = 4
?Convert@CCodeTypeA@@UAEXPAD@Z PROC			; CCodeTypeA::Convert, COMDAT
; _this$ = ecx

; 352  : 	{

  00000	55		 push	 ebp
  00001	8b ec		 mov	 ebp, esp
  00003	83 ec 1c	 sub	 esp, 28			; 0000001cH
  00006	a1 00 00 00 00	 mov	 eax, DWORD PTR ___security_cookie
  0000b	33 c5		 xor	 eax, ebp
  0000d	89 45 fc	 mov	 DWORD PTR __$ArrayPad$[ebp], eax
  00010	56		 push	 esi
  00011	8b 75 08	 mov	 esi, DWORD PTR _pData$[ebp]
  00014	57		 push	 edi
  00015	8b f9		 mov	 edi, ecx

; 353  : 		int nL;
; 354  : 		char sTmp[20+1];
; 355  : 		m_cGb = pData[0];   pData=&pData[1];
; 356  : 		nL=6;  memcpy(sTmp, pData, nL); sTmp[nL]=0;  pData=&pData[nL]; m_szcode=sTmp;

  00017	c6 45 ea 00	 mov	 BYTE PTR _sTmp$[ebp+6], 0
  0001b	8a 06		 mov	 al, BYTE PTR [esi]
  0001d	88 47 04	 mov	 BYTE PTR [edi+4], al
  00020	8d 4f 08	 lea	 ecx, DWORD PTR [edi+8]
  00023	8b 46 01	 mov	 eax, DWORD PTR [esi+1]
  00026	89 45 e4	 mov	 DWORD PTR _sTmp$[ebp], eax
  00029	66 8b 46 05	 mov	 ax, WORD PTR [esi+5]
  0002d	66 89 45 e8	 mov	 WORD PTR _sTmp$[ebp+4], ax
  00031	8d 45 e4	 lea	 eax, DWORD PTR _sTmp$[ebp]
  00034	50		 push	 eax
  00035	ff 15 00 00 00
	00		 call	 DWORD PTR __imp_??4?$CStringT@DV?$StrTraitMFC_DLL@DV?$ChTraitsCRT@D@ATL@@@@@ATL@@QAEAAV01@PBD@Z

; 357  : 		nL=20; memcpy(sTmp, pData, nL); sTmp[nL]=0;  m_szhname=sTmp; m_szhname.TrimRight();

  0003b	0f 10 46 07	 movups	 xmm0, XMMWORD PTR [esi+7]
  0003f	8d 4f 0c	 lea	 ecx, DWORD PTR [edi+12]
  00042	0f 11 45 e4	 movups	 XMMWORD PTR _sTmp$[ebp], xmm0
  00046	8b 46 17	 mov	 eax, DWORD PTR [esi+23]
  00049	89 45 f4	 mov	 DWORD PTR _sTmp$[ebp+16], eax
  0004c	8d 45 e4	 lea	 eax, DWORD PTR _sTmp$[ebp]
  0004f	50		 push	 eax
  00050	c6 45 f8 00	 mov	 BYTE PTR _sTmp$[ebp+20], 0
  00054	ff 15 00 00 00
	00		 call	 DWORD PTR __imp_??4?$CStringT@DV?$StrTraitMFC_DLL@DV?$ChTraitsCRT@D@ATL@@@@@ATL@@QAEAAV01@PBD@Z
  0005a	8d 4f 0c	 lea	 ecx, DWORD PTR [edi+12]
  0005d	ff 15 00 00 00
	00		 call	 DWORD PTR __imp_?TrimRight@?$CStringT@DV?$StrTraitMFC_DLL@DV?$ChTraitsCRT@D@ATL@@@@@ATL@@QAEAAV12@XZ

; 358  : 	}

  00063	8b 4d fc	 mov	 ecx, DWORD PTR __$ArrayPad$[ebp]
  00066	5f		 pop	 edi
  00067	33 cd		 xor	 ecx, ebp
  00069	5e		 pop	 esi
  0006a	e8 00 00 00 00	 call	 @__security_check_cookie@4
  0006f	8b e5		 mov	 esp, ebp
  00071	5d		 pop	 ebp
  00072	c2 04 00	 ret	 4
?Convert@CCodeTypeA@@UAEXPAD@Z ENDP			; CCodeTypeA::Convert
_TEXT	ENDS
; Function compile flags: /Ogtp
; File D:\git\src\IBK\IBK_DRFN\ProjSrc\SrcDrfn\inc\ITreeListMng.h
;	COMDAT ??0CCodeTypeA@@QAE@XZ
_TEXT	SEGMENT
_this$ = -4						; size = 4
??0CCodeTypeA@@QAE@XZ PROC				; CCodeTypeA::CCodeTypeA, COMDAT
; _this$ = ecx

; 350  : 	CCodeTypeA() {}

  00000	55		 push	 ebp
  00001	8b ec		 mov	 ebp, esp
  00003	51		 push	 ecx
  00004	56		 push	 esi
  00005	8b f1		 mov	 esi, ecx
  00007	89 75 fc	 mov	 DWORD PTR _this$[ebp], esi
  0000a	8d 4e 08	 lea	 ecx, DWORD PTR [esi+8]
  0000d	c7 06 00 00 00
	00		 mov	 DWORD PTR [esi], OFFSET ??_7CCodeTypeBase@@6B@
  00013	ff 15 00 00 00
	00		 call	 DWORD PTR __imp_??0?$CStringT@DV?$StrTraitMFC_DLL@DV?$ChTraitsCRT@D@ATL@@@@@ATL@@QAE@XZ
  00019	8d 4e 0c	 lea	 ecx, DWORD PTR [esi+12]
  0001c	ff 15 00 00 00
	00		 call	 DWORD PTR __imp_??0?$CStringT@DV?$StrTraitMFC_DLL@DV?$ChTraitsCRT@D@ATL@@@@@ATL@@QAE@XZ
  00022	c7 06 00 00 00
	00		 mov	 DWORD PTR [esi], OFFSET ??_7CCodeTypeA@@6B@
  00028	8b c6		 mov	 eax, esi
  0002a	5e		 pop	 esi
  0002b	8b e5		 mov	 esp, ebp
  0002d	5d		 pop	 ebp
  0002e	c3		 ret	 0
??0CCodeTypeA@@QAE@XZ ENDP				; CCodeTypeA::CCodeTypeA
_TEXT	ENDS
; Function compile flags: /Ogtp
; File D:\git\src\IBK\IBK_DRFN\ProjSrc\SrcDrfn\inc\ITreeListMng.h
; File C:\Program Files (x86)\Microsoft Visual Studio\2019\Community\VC\Tools\MSVC\14.29.30133\atlmfc\include\atlsimpstr.h
; File D:\git\src\IBK\IBK_DRFN\ProjSrc\SrcDrfn\inc\ITreeListMng.h
; File C:\Program Files (x86)\Microsoft Visual Studio\2019\Community\VC\Tools\MSVC\14.29.30133\atlmfc\include\cstringt.h
; File D:\git\src\IBK\IBK_DRFN\ProjSrc\SrcDrfn\inc\ITreeListMng.h
; File C:\Program Files (x86)\Microsoft Visual Studio\2019\Community\VC\Tools\MSVC\14.29.30133\atlmfc\include\cstringt.h
; File D:\git\src\IBK\IBK_DRFN\ProjSrc\SrcDrfn\inc\ITreeListMng.h
; File C:\Program Files (x86)\Microsoft Visual Studio\2019\Community\VC\Tools\MSVC\14.29.30133\atlmfc\include\cstringt.h
; File D:\git\src\IBK\IBK_DRFN\ProjSrc\SrcDrfn\inc\ITreeListMng.h
; File C:\Program Files (x86)\Microsoft Visual Studio\2019\Community\VC\Tools\MSVC\14.29.30133\atlmfc\include\cstringt.h
; File D:\git\src\IBK\IBK_DRFN\ProjSrc\SrcDrfn\inc\ITreeListMng.h
;	COMDAT ?ConvertOneClickData@CCodeTypeBase@@UAEXPAD@Z
_TEXT	SEGMENT
__$EHRec$ = -12						; size = 12
_szKey$2 = 8						; size = 4
_strData$ = 8						; size = 4
?ConvertOneClickData@CCodeTypeBase@@UAEXPAD@Z PROC	; CCodeTypeBase::ConvertOneClickData, COMDAT
; _this$ = ecx

; 321  : 	{

  00000	55		 push	 ebp
  00001	8b ec		 mov	 ebp, esp
  00003	6a ff		 push	 -1
  00005	68 00 00 00 00	 push	 __ehhandler$?ConvertOneClickData@CCodeTypeBase@@UAEXPAD@Z
  0000a	64 a1 00 00 00
	00		 mov	 eax, DWORD PTR fs:0
  00010	50		 push	 eax
  00011	56		 push	 esi
  00012	57		 push	 edi
  00013	a1 00 00 00 00	 mov	 eax, DWORD PTR ___security_cookie
  00018	33 c5		 xor	 eax, ebp
  0001a	50		 push	 eax
  0001b	8d 45 f4	 lea	 eax, DWORD PTR __$EHRec$[ebp]
  0001e	64 a3 00 00 00
	00		 mov	 DWORD PTR fs:0, eax
  00024	8b f9		 mov	 edi, ecx

; 322  : 		// Virtual  ...
; 323  : 		Convert2(strData);

  00026	8b 07		 mov	 eax, DWORD PTR [edi]
  00028	ff 75 08	 push	 DWORD PTR _strData$[ebp]
  0002b	ff 50 04	 call	 DWORD PTR [eax+4]
; File C:\Program Files (x86)\Microsoft Visual Studio\2019\Community\VC\Tools\MSVC\14.29.30133\atlmfc\include\atlsimpstr.h

; 377  : 		return( m_pszData );

  0002e	8b 77 0c	 mov	 esi, DWORD PTR [edi+12]
; File D:\git\src\IBK\IBK_DRFN\ProjSrc\SrcDrfn\inc\ITreeListMng.h

; 329  : 		CString szKey;

  00031	8d 4d 08	 lea	 ecx, DWORD PTR _szKey$2[ebp]
  00034	ff 15 00 00 00
	00		 call	 DWORD PTR __imp_??0?$CStringT@DV?$StrTraitMFC_DLL@DV?$ChTraitsCRT@D@ATL@@@@@ATL@@QAE@XZ

; 330  : 		szKey.Format("%2.2s", strData);

  0003a	56		 push	 esi
  0003b	8d 45 08	 lea	 eax, DWORD PTR _szKey$2[ebp]
  0003e	c7 45 fc 00 00
	00 00		 mov	 DWORD PTR __$EHRec$[ebp+8], 0
  00045	68 00 00 00 00	 push	 OFFSET ??_C@_05KBKNOCPJ@?$CF2?42s@
  0004a	50		 push	 eax
  0004b	ff 15 00 00 00
	00		 call	 DWORD PTR __imp_?Format@?$CStringT@DV?$StrTraitMFC_DLL@DV?$ChTraitsCRT@D@ATL@@@@@ATL@@QAAXPBDZZ
  00051	83 c4 0c	 add	 esp, 12			; 0000000cH
; File C:\Program Files (x86)\Microsoft Visual Studio\2019\Community\VC\Tools\MSVC\14.29.30133\atlmfc\include\cstringt.h

; 2486 : 		return(str1.Compare(psz2) == 0);

  00054	8d 4d 08	 lea	 ecx, DWORD PTR _szKey$2[ebp]
  00057	68 00 00 00 00	 push	 OFFSET ??_C@_02BJKMHJON@?$KI?W@
  0005c	ff 15 00 00 00
	00		 call	 DWORD PTR __imp_?Compare@?$CStringT@DV?$StrTraitMFC_DLL@DV?$ChTraitsCRT@D@ATL@@@@@ATL@@QBEHPBD@Z
; File D:\git\src\IBK\IBK_DRFN\ProjSrc\SrcDrfn\inc\ITreeListMng.h

; 332  : 		if (szKey == "")	

  00062	8d 4d 08	 lea	 ecx, DWORD PTR _szKey$2[ebp]
; File C:\Program Files (x86)\Microsoft Visual Studio\2019\Community\VC\Tools\MSVC\14.29.30133\atlmfc\include\cstringt.h

; 2486 : 		return(str1.Compare(psz2) == 0);

  00065	85 c0		 test	 eax, eax
; File D:\git\src\IBK\IBK_DRFN\ProjSrc\SrcDrfn\inc\ITreeListMng.h

; 332  : 		if (szKey == "")	

  00067	75 0a		 jne	 SHORT $LN6@ConvertOne

; 333  : 		{
; 334  : 			return codeType_KOSDAQ;

  00069	ff 15 00 00 00
	00		 call	 DWORD PTR __imp_??1?$CStringT@DV?$StrTraitMFC_DLL@DV?$ChTraitsCRT@D@ATL@@@@@ATL@@QAE@XZ
  0006f	b0 02		 mov	 al, 2
  00071	eb 24		 jmp	 SHORT $LN17@ConvertOne
$LN6@ConvertOne:
; File C:\Program Files (x86)\Microsoft Visual Studio\2019\Community\VC\Tools\MSVC\14.29.30133\atlmfc\include\cstringt.h

; 2486 : 		return(str1.Compare(psz2) == 0);

  00073	68 00 00 00 00	 push	 OFFSET ??_C@_02IJKLNJNJ@?$KI?$OA@
  00078	ff 15 00 00 00
	00		 call	 DWORD PTR __imp_?Compare@?$CStringT@DV?$StrTraitMFC_DLL@DV?$ChTraitsCRT@D@ATL@@@@@ATL@@QBEHPBD@Z
; File D:\git\src\IBK\IBK_DRFN\ProjSrc\SrcDrfn\inc\ITreeListMng.h

; 336  : 		else if(szKey == "")

  0007e	8d 4d 08	 lea	 ecx, DWORD PTR _szKey$2[ebp]
; File C:\Program Files (x86)\Microsoft Visual Studio\2019\Community\VC\Tools\MSVC\14.29.30133\atlmfc\include\cstringt.h

; 2486 : 		return(str1.Compare(psz2) == 0);

  00081	85 c0		 test	 eax, eax
; File D:\git\src\IBK\IBK_DRFN\ProjSrc\SrcDrfn\inc\ITreeListMng.h

; 336  : 		else if(szKey == "")

  00083	75 0a		 jne	 SHORT $LN8@ConvertOne

; 337  : 		{
; 338  : 			return codeType_FREEBOARD;

  00085	ff 15 00 00 00
	00		 call	 DWORD PTR __imp_??1?$CStringT@DV?$StrTraitMFC_DLL@DV?$ChTraitsCRT@D@ATL@@@@@ATL@@QAE@XZ
  0008b	b0 03		 mov	 al, 3
  0008d	eb 08		 jmp	 SHORT $LN17@ConvertOne
$LN8@ConvertOne:

; 339  : 		}
; 340  : 		else
; 341  : 		{
; 342  : 			return codeType_KOSPI;

  0008f	ff 15 00 00 00
	00		 call	 DWORD PTR __imp_??1?$CStringT@DV?$StrTraitMFC_DLL@DV?$ChTraitsCRT@D@ATL@@@@@ATL@@QAE@XZ
  00095	b0 01		 mov	 al, 1
$LN17@ConvertOne:

; 324  : 		m_cGb = CheckeNameType((LPSTR)(LPCSTR)m_szhname);
; 325  : 	}

  00097	88 47 04	 mov	 BYTE PTR [edi+4], al
  0009a	8b 4d f4	 mov	 ecx, DWORD PTR __$EHRec$[ebp]
  0009d	64 89 0d 00 00
	00 00		 mov	 DWORD PTR fs:0, ecx
  000a4	59		 pop	 ecx
  000a5	5f		 pop	 edi
  000a6	5e		 pop	 esi
  000a7	8b e5		 mov	 esp, ebp
  000a9	5d		 pop	 ebp
  000aa	c2 04 00	 ret	 4
_TEXT	ENDS
;	COMDAT text$x
text$x	SEGMENT
__unwindfunclet$?ConvertOneClickData@CCodeTypeBase@@UAEXPAD@Z$0:
  00000	8d 4d 08	 lea	 ecx, DWORD PTR _szKey$2[ebp]
  00003	ff 25 00 00 00
	00		 jmp	 DWORD PTR __imp_??1?$CStringT@DV?$StrTraitMFC_DLL@DV?$ChTraitsCRT@D@ATL@@@@@ATL@@QAE@XZ
  00009	cc		 int	 3
  0000a	cc		 int	 3
  0000b	cc		 int	 3
  0000c	cc		 int	 3
  0000d	cc		 int	 3
__ehhandler$?ConvertOneClickData@CCodeTypeBase@@UAEXPAD@Z:
  0000e	90		 npad	 1
  0000f	90		 npad	 1
  00010	8b 54 24 08	 mov	 edx, DWORD PTR [esp+8]
  00014	8d 42 0c	 lea	 eax, DWORD PTR [edx+12]
  00017	8b 4a f4	 mov	 ecx, DWORD PTR [edx-12]
  0001a	33 c8		 xor	 ecx, eax
  0001c	e8 00 00 00 00	 call	 @__security_check_cookie@4
  00021	b8 00 00 00 00	 mov	 eax, OFFSET __ehfuncinfo$?ConvertOneClickData@CCodeTypeBase@@UAEXPAD@Z
  00026	e9 00 00 00 00	 jmp	 ___CxxFrameHandler3
text$x	ENDS
?ConvertOneClickData@CCodeTypeBase@@UAEXPAD@Z ENDP	; CCodeTypeBase::ConvertOneClickData
; Function compile flags: /Ogtp
; File D:\git\src\IBK\IBK_DRFN\ProjSrc\SrcDrfn\inc\ITreeListMng.h
;	COMDAT ?Convert2@CCodeTypeBase@@UAEXPAD@Z
_TEXT	SEGMENT
_pData$ = 8						; size = 4
?Convert2@CCodeTypeBase@@UAEXPAD@Z PROC			; CCodeTypeBase::Convert2, COMDAT
; _this$ = ecx

; 318  : 	virtual void  Convert2(char* pData) 	{}

  00000	c2 04 00	 ret	 4
?Convert2@CCodeTypeBase@@UAEXPAD@Z ENDP			; CCodeTypeBase::Convert2
_TEXT	ENDS
; Function compile flags: /Ogtp
; File D:\git\src\IBK\IBK_DRFN\ProjSrc\SrcDrfn\inc\ITreeListMng.h
;	COMDAT ?Convert@CCodeTypeBase@@UAEXPAD@Z
_TEXT	SEGMENT
_pData$ = 8						; size = 4
?Convert@CCodeTypeBase@@UAEXPAD@Z PROC			; CCodeTypeBase::Convert, COMDAT
; _this$ = ecx

; 317  : 	virtual void  Convert(char* pData) 	{}

  00000	c2 04 00	 ret	 4
?Convert@CCodeTypeBase@@UAEXPAD@Z ENDP			; CCodeTypeBase::Convert
_TEXT	ENDS
; Function compile flags: /Ogtp
;	COMDAT ??1CINT_ITEM_ST@@QAE@XZ
_TEXT	SEGMENT
??1CINT_ITEM_ST@@QAE@XZ PROC				; CINT_ITEM_ST::~CINT_ITEM_ST, COMDAT
; _this$ = ecx
  00000	56		 push	 esi
  00001	8b f1		 mov	 esi, ecx
  00003	8d 4e 20	 lea	 ecx, DWORD PTR [esi+32]
  00006	ff 15 00 00 00
	00		 call	 DWORD PTR __imp_??1?$CStringT@DV?$StrTraitMFC_DLL@DV?$ChTraitsCRT@D@ATL@@@@@ATL@@QAE@XZ
  0000c	8d 4e 18	 lea	 ecx, DWORD PTR [esi+24]
  0000f	ff 15 00 00 00
	00		 call	 DWORD PTR __imp_??1?$CStringT@DV?$StrTraitMFC_DLL@DV?$ChTraitsCRT@D@ATL@@@@@ATL@@QAE@XZ
  00015	8d 4e 14	 lea	 ecx, DWORD PTR [esi+20]
  00018	ff 15 00 00 00
	00		 call	 DWORD PTR __imp_??1?$CStringT@DV?$StrTraitMFC_DLL@DV?$ChTraitsCRT@D@ATL@@@@@ATL@@QAE@XZ
  0001e	8d 4e 10	 lea	 ecx, DWORD PTR [esi+16]
  00021	ff 15 00 00 00
	00		 call	 DWORD PTR __imp_??1?$CStringT@DV?$StrTraitMFC_DLL@DV?$ChTraitsCRT@D@ATL@@@@@ATL@@QAE@XZ
  00027	8d 4e 0c	 lea	 ecx, DWORD PTR [esi+12]
  0002a	ff 15 00 00 00
	00		 call	 DWORD PTR __imp_??1?$CStringT@DV?$StrTraitMFC_DLL@DV?$ChTraitsCRT@D@ATL@@@@@ATL@@QAE@XZ
  00030	8d 4e 08	 lea	 ecx, DWORD PTR [esi+8]
  00033	ff 15 00 00 00
	00		 call	 DWORD PTR __imp_??1?$CStringT@DV?$StrTraitMFC_DLL@DV?$ChTraitsCRT@D@ATL@@@@@ATL@@QAE@XZ
  00039	8d 4e 04	 lea	 ecx, DWORD PTR [esi+4]
  0003c	ff 15 00 00 00
	00		 call	 DWORD PTR __imp_??1?$CStringT@DV?$StrTraitMFC_DLL@DV?$ChTraitsCRT@D@ATL@@@@@ATL@@QAE@XZ
  00042	8b ce		 mov	 ecx, esi
  00044	5e		 pop	 esi
  00045	ff 25 00 00 00
	00		 jmp	 DWORD PTR __imp_??1?$CStringT@DV?$StrTraitMFC_DLL@DV?$ChTraitsCRT@D@ATL@@@@@ATL@@QAE@XZ
??1CINT_ITEM_ST@@QAE@XZ ENDP				; CINT_ITEM_ST::~CINT_ITEM_ST
_TEXT	ENDS
; Function compile flags: /Ogtp
;	COMDAT ??1CINT_GROUP_ST@@QAE@XZ
_TEXT	SEGMENT
??1CINT_GROUP_ST@@QAE@XZ PROC				; CINT_GROUP_ST::~CINT_GROUP_ST, COMDAT
; _this$ = ecx
  00000	56		 push	 esi
  00001	8b f1		 mov	 esi, ecx
  00003	8d 4e 14	 lea	 ecx, DWORD PTR [esi+20]
  00006	ff 15 00 00 00
	00		 call	 DWORD PTR __imp_??1?$CStringT@DV?$StrTraitMFC_DLL@DV?$ChTraitsCRT@D@ATL@@@@@ATL@@QAE@XZ
  0000c	8d 4e 10	 lea	 ecx, DWORD PTR [esi+16]
  0000f	ff 15 00 00 00
	00		 call	 DWORD PTR __imp_??1?$CStringT@DV?$StrTraitMFC_DLL@DV?$ChTraitsCRT@D@ATL@@@@@ATL@@QAE@XZ
  00015	8d 4e 08	 lea	 ecx, DWORD PTR [esi+8]
  00018	ff 15 00 00 00
	00		 call	 DWORD PTR __imp_??1?$CStringT@DV?$StrTraitMFC_DLL@DV?$ChTraitsCRT@D@ATL@@@@@ATL@@QAE@XZ
  0001e	8d 4e 04	 lea	 ecx, DWORD PTR [esi+4]
  00021	ff 15 00 00 00
	00		 call	 DWORD PTR __imp_??1?$CStringT@DV?$StrTraitMFC_DLL@DV?$ChTraitsCRT@D@ATL@@@@@ATL@@QAE@XZ
  00027	8b ce		 mov	 ecx, esi
  00029	5e		 pop	 esi
  0002a	ff 25 00 00 00
	00		 jmp	 DWORD PTR __imp_??1?$CStringT@DV?$StrTraitMFC_DLL@DV?$ChTraitsCRT@D@ATL@@@@@ATL@@QAE@XZ
??1CINT_GROUP_ST@@QAE@XZ ENDP				; CINT_GROUP_ST::~CINT_GROUP_ST
_TEXT	ENDS
; Function compile flags: /Ogtp
; File D:\git\src\IBK\IBK_DRFN\ProjSrc\SrcDrfn\inc\IBaseDefine.h
;	COMDAT ??__ERMSG_INTERFACE@@YAXXZ
text$di	SEGMENT
??__ERMSG_INTERFACE@@YAXXZ PROC				; `dynamic initializer for 'RMSG_INTERFACE'', COMDAT

; 170  : const UINT RMSG_INTERFACE = ::RegisterWindowMessage("RMSG_INTERFACE");

  00000	68 00 00 00 00	 push	 OFFSET ??_C@_0P@BKKCOCLK@RMSG_INTERFACE@
  00005	ff 15 00 00 00
	00		 call	 DWORD PTR __imp__RegisterWindowMessageA@4
  0000b	a3 00 00 00 00	 mov	 DWORD PTR ?RMSG_INTERFACE@@3IB, eax
  00010	c3		 ret	 0
??__ERMSG_INTERFACE@@YAXXZ ENDP				; `dynamic initializer for 'RMSG_INTERFACE''
text$di	ENDS
; Function compile flags: /Ogtp
; File C:\Program Files (x86)\Microsoft Visual Studio\2019\Community\VC\Tools\MSVC\14.29.30133\atlmfc\include\afx.inl
;	COMDAT ?Dump@CObject@@UBEXAAVCDumpContext@@@Z
_TEXT	SEGMENT
___formal$ = 8						; size = 4
?Dump@CObject@@UBEXAAVCDumpContext@@@Z PROC		; CObject::Dump, COMDAT
; _this$ = ecx

; 122  : 	{ /* no dumping in release builds */ }

  00000	c2 04 00	 ret	 4
?Dump@CObject@@UBEXAAVCDumpContext@@@Z ENDP		; CObject::Dump
_TEXT	ENDS
; Function compile flags: /Ogtp
; File C:\Program Files (x86)\Microsoft Visual Studio\2019\Community\VC\Tools\MSVC\14.29.30133\atlmfc\include\afx.inl
;	COMDAT ?AssertValid@CObject@@UBEXXZ
_TEXT	SEGMENT
?AssertValid@CObject@@UBEXXZ PROC			; CObject::AssertValid, COMDAT
; _this$ = ecx

; 120  : 	{ /* no asserts in release builds */ }

  00000	c2 00 00	 ret	 0
?AssertValid@CObject@@UBEXXZ ENDP			; CObject::AssertValid
_TEXT	ENDS
; Function compile flags: /Ogtp
; File C:\Program Files (x86)\Microsoft Visual Studio\2019\Community\VC\Tools\MSVC\14.29.30133\atlmfc\include\afx.inl
;	COMDAT ?Serialize@CObject@@UAEXAAVCArchive@@@Z
_TEXT	SEGMENT
___formal$ = 8						; size = 4
?Serialize@CObject@@UAEXAAVCArchive@@@Z PROC		; CObject::Serialize, COMDAT
; _this$ = ecx

; 106  : 	{ /* CObject does not serialize anything by default */ }

  00000	c2 04 00	 ret	 4
?Serialize@CObject@@UAEXAAVCArchive@@@Z ENDP		; CObject::Serialize
_TEXT	ENDS
; Function compile flags: /Ogtp
; File C:\Program Files (x86)\Microsoft Visual Studio\2019\Community\VC\Tools\MSVC\14.29.30133\atlmfc\include\afx.inl
;	COMDAT ??1CObject@@UAE@XZ
_TEXT	SEGMENT
??1CObject@@UAE@XZ PROC					; CObject::~CObject, COMDAT
; _this$ = ecx

; 104  : 	{ }

  00000	c2 00 00	 ret	 0
??1CObject@@UAE@XZ ENDP					; CObject::~CObject
_TEXT	ENDS
; Function compile flags: /Ogtp
; File C:\Program Files (x86)\Windows Kits\10\Include\10.0.22000.0\ucrt\stdio.h
;	COMDAT _sscanf
_TEXT	SEGMENT
__Buffer$ = 8						; size = 4
__Format$ = 12						; size = 4
_sscanf	PROC						; COMDAT

; 2247 :     {

  00000	55		 push	 ebp
  00001	8b ec		 mov	 ebp, esp

; 2153 :         return __stdio_common_vsscanf(

  00003	8d 45 10	 lea	 eax, DWORD PTR __Format$[ebp+4]
  00006	50		 push	 eax
  00007	6a 00		 push	 0
  00009	ff 75 0c	 push	 DWORD PTR __Format$[ebp]
  0000c	6a ff		 push	 -1
  0000e	ff 75 08	 push	 DWORD PTR __Buffer$[ebp]
  00011	e8 00 00 00 00	 call	 ___local_stdio_scanf_options
  00016	ff 70 04	 push	 DWORD PTR [eax+4]
  00019	ff 30		 push	 DWORD PTR [eax]
  0001b	ff 15 00 00 00
	00		 call	 DWORD PTR __imp____stdio_common_vsscanf
  00021	83 c4 1c	 add	 esp, 28			; 0000001cH

; 2248 :         int _Result;
; 2249 :         va_list _ArgList;
; 2250 :         __crt_va_start(_ArgList, _Format);
; 2251 :         _Result = _vsscanf_l(_Buffer, _Format, NULL, _ArgList);
; 2252 :         __crt_va_end(_ArgList);
; 2253 :         return _Result;
; 2254 :     }

  00024	5d		 pop	 ebp
  00025	c3		 ret	 0
_sscanf	ENDP
_TEXT	ENDS
; Function compile flags: /Ogtp
; File C:\Program Files (x86)\Windows Kits\10\Include\10.0.22000.0\ucrt\corecrt_stdio_config.h
;	COMDAT ___local_stdio_scanf_options
_TEXT	SEGMENT
___local_stdio_scanf_options PROC			; COMDAT

; 101  :         static unsigned __int64 _OptionsStorage;
; 102  :         return &_OptionsStorage;

  00000	b8 00 00 00 00	 mov	 eax, OFFSET ?_OptionsStorage@?1??__local_stdio_scanf_options@@9@4_KA ; `__local_stdio_scanf_options'::`2'::_OptionsStorage

; 103  :     }

  00005	c3		 ret	 0
___local_stdio_scanf_options ENDP
_TEXT	ENDS
; Function compile flags: /Ogtp
; File D:\git\src\IBK\IBK_DRFN\ProjSrc\SrcDrfn\Chart\MULTICHART\TabCodeSearchWinix.cpp
;	COMDAT ?__empty_global_delete@@YAXPAXI@Z
_TEXT	SEGMENT
___formal$ = 8						; size = 4
___formal$ = 12						; size = 4
?__empty_global_delete@@YAXPAXI@Z PROC			; __empty_global_delete, COMDAT

  00000	c2 00 00	 ret	 0
?__empty_global_delete@@YAXPAXI@Z ENDP			; __empty_global_delete
_TEXT	ENDS
; Function compile flags: /Ogtp
; File D:\git\src\IBK\IBK_DRFN\ProjSrc\SrcDrfn\Chart\MULTICHART\TabCodeSearchWinix.cpp
;	COMDAT ?__empty_global_delete@@YAXPAX@Z
_TEXT	SEGMENT
___formal$ = 8						; size = 4
?__empty_global_delete@@YAXPAX@Z PROC			; __empty_global_delete, COMDAT

  00000	c2 00 00	 ret	 0
?__empty_global_delete@@YAXPAX@Z ENDP			; __empty_global_delete
_TEXT	ENDS
END
