; Listing generated by Microsoft (R) Optimizing Compiler Version 19.29.30145.0 

	TITLE	D:\git\src\IBK\IBK_DRFN\#DRfn-CS\_Obj\MultiChart\TabDlgCreator.obj
	.686P
	.XMM
	include listing.inc
	.model	flat

INCLUDELIB MSVCRT
INCLUDELIB OLDNAMES

PUBLIC	??_C@_0M@LPFHDJI@RMSG_DRUSER@			; `string'
PUBLIC	??_C@_0BG@OHIMHJEO@RMSG_STTREE_ITEMCLICK@	; `string'
PUBLIC	??_C@_0BH@LAAMLACL@RMSG_STTREE_ITEMDBLCLK@	; `string'
PUBLIC	??_C@_0BE@FJPKENOB@RMSG_GETSIGNAL_REAL@		; `string'
PUBLIC	??_C@_0BB@CNOFPEHG@RMSG_SETQUERYOPT@		; `string'
PUBLIC	??_C@_0P@KHFCBIOH@RMSG_CHARTMAIN@		; `string'
PUBLIC	??_C@_0BC@MMPGLPDH@RMS_ANALYSIS_FUNC@		; `string'
PUBLIC	??_C@_0BA@HKNFENJL@RMSG_GET_USERID@		; `string'
PUBLIC	??_C@_0BG@CNPAHNGG@RMSG_CHANGE_SKINCOLOR@	; `string'
PUBLIC	??_C@_0BD@FLDNDDHK@RMSG_GET_SKINCOLOR@		; `string'
PUBLIC	??_C@_0BJ@JLKHIBIK@RMSG_CHANGEVERTSCALETYPE@	; `string'
PUBLIC	??_C@_0BG@LNLCJKPF@RMSG_CHANGE_CROSSLINE@	; `string'
PUBLIC	??_C@_0BH@IFDMIMBP@RMSG_ADD_PLATFORM_MENU@	; `string'
PUBLIC	??_C@_0BJ@OGNAJHHI@RMSG_SETINITIALCHARTDATA@	; `string'
PUBLIC	??_C@_0N@IIOKMIEH@RMSG_GETINFO@			; `string'
PUBLIC	??_C@_0N@HABLPHJG@RMSG_SETINFO@			; `string'
;	COMDAT ??_C@_0N@HABLPHJG@RMSG_SETINFO@
CONST	SEGMENT
??_C@_0N@HABLPHJG@RMSG_SETINFO@ DB 'RMSG_SETINFO', 00H	; `string'
CONST	ENDS
;	COMDAT ??_C@_0N@IIOKMIEH@RMSG_GETINFO@
CONST	SEGMENT
??_C@_0N@IIOKMIEH@RMSG_GETINFO@ DB 'RMSG_GETINFO', 00H	; `string'
CONST	ENDS
;	COMDAT ??_C@_0BJ@OGNAJHHI@RMSG_SETINITIALCHARTDATA@
CONST	SEGMENT
??_C@_0BJ@OGNAJHHI@RMSG_SETINITIALCHARTDATA@ DB 'RMSG_SETINITIALCHARTDATA'
	DB	00H						; `string'
CONST	ENDS
;	COMDAT ??_C@_0BH@IFDMIMBP@RMSG_ADD_PLATFORM_MENU@
CONST	SEGMENT
??_C@_0BH@IFDMIMBP@RMSG_ADD_PLATFORM_MENU@ DB 'RMSG_ADD_PLATFORM_MENU', 00H ; `string'
CONST	ENDS
;	COMDAT ??_C@_0BG@LNLCJKPF@RMSG_CHANGE_CROSSLINE@
CONST	SEGMENT
??_C@_0BG@LNLCJKPF@RMSG_CHANGE_CROSSLINE@ DB 'RMSG_CHANGE_CROSSLINE', 00H ; `string'
CONST	ENDS
;	COMDAT ??_C@_0BJ@JLKHIBIK@RMSG_CHANGEVERTSCALETYPE@
CONST	SEGMENT
??_C@_0BJ@JLKHIBIK@RMSG_CHANGEVERTSCALETYPE@ DB 'RMSG_CHANGEVERTSCALETYPE'
	DB	00H						; `string'
CONST	ENDS
;	COMDAT ??_C@_0BD@FLDNDDHK@RMSG_GET_SKINCOLOR@
CONST	SEGMENT
??_C@_0BD@FLDNDDHK@RMSG_GET_SKINCOLOR@ DB 'RMSG_GET_SKINCOLOR', 00H ; `string'
CONST	ENDS
;	COMDAT ??_C@_0BG@CNPAHNGG@RMSG_CHANGE_SKINCOLOR@
CONST	SEGMENT
??_C@_0BG@CNPAHNGG@RMSG_CHANGE_SKINCOLOR@ DB 'RMSG_CHANGE_SKINCOLOR', 00H ; `string'
CONST	ENDS
;	COMDAT ??_C@_0BA@HKNFENJL@RMSG_GET_USERID@
CONST	SEGMENT
??_C@_0BA@HKNFENJL@RMSG_GET_USERID@ DB 'RMSG_GET_USERID', 00H ; `string'
CONST	ENDS
;	COMDAT ??_C@_0BC@MMPGLPDH@RMS_ANALYSIS_FUNC@
CONST	SEGMENT
??_C@_0BC@MMPGLPDH@RMS_ANALYSIS_FUNC@ DB 'RMS_ANALYSIS_FUNC', 00H ; `string'
CONST	ENDS
;	COMDAT ??_C@_0P@KHFCBIOH@RMSG_CHARTMAIN@
CONST	SEGMENT
??_C@_0P@KHFCBIOH@RMSG_CHARTMAIN@ DB 'RMSG_CHARTMAIN', 00H ; `string'
CONST	ENDS
;	COMDAT ??_C@_0BB@CNOFPEHG@RMSG_SETQUERYOPT@
CONST	SEGMENT
??_C@_0BB@CNOFPEHG@RMSG_SETQUERYOPT@ DB 'RMSG_SETQUERYOPT', 00H ; `string'
CONST	ENDS
;	COMDAT ??_C@_0BE@FJPKENOB@RMSG_GETSIGNAL_REAL@
CONST	SEGMENT
??_C@_0BE@FJPKENOB@RMSG_GETSIGNAL_REAL@ DB 'RMSG_GETSIGNAL_REAL', 00H ; `string'
CONST	ENDS
;	COMDAT ??_C@_0BH@LAAMLACL@RMSG_STTREE_ITEMDBLCLK@
CONST	SEGMENT
??_C@_0BH@LAAMLACL@RMSG_STTREE_ITEMDBLCLK@ DB 'RMSG_STTREE_ITEMDBLCLK', 00H ; `string'
CONST	ENDS
;	COMDAT ??_C@_0BG@OHIMHJEO@RMSG_STTREE_ITEMCLICK@
CONST	SEGMENT
??_C@_0BG@OHIMHJEO@RMSG_STTREE_ITEMCLICK@ DB 'RMSG_STTREE_ITEMCLICK', 00H ; `string'
CONST	ENDS
;	COMDAT ??_C@_0M@LPFHDJI@RMSG_DRUSER@
CONST	SEGMENT
??_C@_0M@LPFHDJI@RMSG_DRUSER@ DB 'RMSG_DRUSER', 00H	; `string'
CONST	ENDS
PUBLIC	?__empty_global_delete@@YAXPAX@Z		; __empty_global_delete
PUBLIC	?__empty_global_delete@@YAXPAXI@Z		; __empty_global_delete
PUBLIC	??3CObject@@SGXPAX@Z				; CObject::operator delete
PUBLIC	??0CTabDlgCreator@@QAE@XZ			; CTabDlgCreator::CTabDlgCreator
PUBLIC	??1CTabDlgCreator@@UAE@XZ			; CTabDlgCreator::~CTabDlgCreator
PUBLIC	?Init@CTabDlgCreator@@QAEXPAVCWnd@@PAVCLeftBarDlg@@PAVCTabCtrl@@0@Z ; CTabDlgCreator::Init
PUBLIC	?GetCaptionOfTabDlg@CTabDlgCreator@@QAEXIPAD@Z	; CTabDlgCreator::GetCaptionOfTabDlg
PUBLIC	?CreateTabDlg@CTabDlgCreator@@QAEPAVCTabDlg@@I@Z ; CTabDlgCreator::CreateTabDlg
PUBLIC	?GetCntOfTabDlg@CTabDlgCreator@@QAEHXZ		; CTabDlgCreator::GetCntOfTabDlg
PUBLIC	??_GCTabDlgCreator@@UAEPAXI@Z			; CTabDlgCreator::`scalar deleting destructor'
PUBLIC	??_7CTabDlgCreator@@6B@				; CTabDlgCreator::`vftable'
PUBLIC	??_C@_04JDFEIJL@?A?v?G?$KF@			; `string'
PUBLIC	??_C@_04NGOPIPHE@?A?$LO?$LI?q@			; `string'
PUBLIC	??_C@_04JBJKMEJB@?$MA?$PM?$LH?$KL@		; `string'
PUBLIC	??_R4CTabDlgCreator@@6B@			; CTabDlgCreator::`RTTI Complete Object Locator'
PUBLIC	??_R0?AVCTabDlgCreator@@@8			; CTabDlgCreator `RTTI Type Descriptor'
PUBLIC	??_R3CTabDlgCreator@@8				; CTabDlgCreator::`RTTI Class Hierarchy Descriptor'
PUBLIC	??_R2CTabDlgCreator@@8				; CTabDlgCreator::`RTTI Base Class Array'
PUBLIC	??_R1A@?0A@EA@CTabDlgCreator@@8			; CTabDlgCreator::`RTTI Base Class Descriptor at (0,-1,0,64)'
EXTRN	??2@YAPAXI@Z:PROC				; operator new
EXTRN	??3@YAXPAX@Z:PROC				; operator delete
EXTRN	??3@YAXPAXI@Z:PROC				; operator delete
EXTRN	__imp__RegisterWindowMessageA@4:PROC
EXTRN	??_ECTabDlgCreator@@UAEPAXI@Z:PROC		; CTabDlgCreator::`vector deleting destructor'
EXTRN	??0CTabIndices@@QAE@PAVCWnd@@@Z:PROC		; CTabIndices::CTabIndices
EXTRN	??0CTabCodeSearch@@QAE@PAVCWnd@@@Z:PROC		; CTabCodeSearch::CTabCodeSearch
EXTRN	??0CTabSystemTradingEx@@QAE@PAVCWnd@@@Z:PROC	; CTabSystemTradingEx::CTabSystemTradingEx
EXTRN	@__security_check_cookie@4:PROC
EXTRN	___CxxFrameHandler3:PROC
EXTRN	??_7type_info@@6B@:QWORD			; type_info::`vftable'
EXTRN	___security_cookie:DWORD
_BSS	SEGMENT
?RMSG_GETSIGNAL_REAL@@3IB DD 01H DUP (?)		; RMSG_GETSIGNAL_REAL
?RMSG_SETQUERYOPT@@3IB DD 01H DUP (?)			; RMSG_SETQUERYOPT
?RMSG_CHARTMAIN@@3IB DD 01H DUP (?)			; RMSG_CHARTMAIN
?RMS_ANALYSIS_FUNC@@3IB DD 01H DUP (?)			; RMS_ANALYSIS_FUNC
?RMSG_GET_USERID@@3IB DD 01H DUP (?)			; RMSG_GET_USERID
?RMSG_CHANGE_SKINCOLOR@@3IB DD 01H DUP (?)		; RMSG_CHANGE_SKINCOLOR
?RMSG_GET_SKINCOLOR@@3IB DD 01H DUP (?)			; RMSG_GET_SKINCOLOR
?RMSG_CHANGEVERTSCALETYPE@@3IB DD 01H DUP (?)		; RMSG_CHANGEVERTSCALETYPE
?RMSG_CHANGE_CROSSLINE@@3IB DD 01H DUP (?)		; RMSG_CHANGE_CROSSLINE
?RMSG_ADD_PLATFORM_MENU@@3IB DD 01H DUP (?)		; RMSG_ADD_PLATFORM_MENU
?RMSG_SETINITIALCHARTDATA@@3IB DD 01H DUP (?)		; RMSG_SETINITIALCHARTDATA
?RMSG_GETINFO@@3IB DD 01H DUP (?)			; RMSG_GETINFO
?RMSG_SETINFO@@3IB DD 01H DUP (?)			; RMSG_SETINFO
?RMSG_DRUSER@@3IB DD 01H DUP (?)			; RMSG_DRUSER
?RMSG_STTREE_ITEMCLICK@@3IB DD 01H DUP (?)		; RMSG_STTREE_ITEMCLICK
?RMSG_STTREE_ITEMDBLCLK@@3IB DD 01H DUP (?)		; RMSG_STTREE_ITEMDBLCLK
_BSS	ENDS
CRT$XCU	SEGMENT
?RMSG_GETSIGNAL_REAL$initializer$@@3P6AXXZA DD FLAT:??__ERMSG_GETSIGNAL_REAL@@YAXXZ ; RMSG_GETSIGNAL_REAL$initializer$
CRT$XCU	ENDS
;	COMDAT ??_R1A@?0A@EA@CTabDlgCreator@@8
rdata$r	SEGMENT
??_R1A@?0A@EA@CTabDlgCreator@@8 DD FLAT:??_R0?AVCTabDlgCreator@@@8 ; CTabDlgCreator::`RTTI Base Class Descriptor at (0,-1,0,64)'
	DD	00H
	DD	00H
	DD	0ffffffffH
	DD	00H
	DD	040H
	DD	FLAT:??_R3CTabDlgCreator@@8
rdata$r	ENDS
;	COMDAT ??_R2CTabDlgCreator@@8
rdata$r	SEGMENT
??_R2CTabDlgCreator@@8 DD FLAT:??_R1A@?0A@EA@CTabDlgCreator@@8 ; CTabDlgCreator::`RTTI Base Class Array'
rdata$r	ENDS
;	COMDAT ??_R3CTabDlgCreator@@8
rdata$r	SEGMENT
??_R3CTabDlgCreator@@8 DD 00H				; CTabDlgCreator::`RTTI Class Hierarchy Descriptor'
	DD	00H
	DD	01H
	DD	FLAT:??_R2CTabDlgCreator@@8
rdata$r	ENDS
;	COMDAT ??_R0?AVCTabDlgCreator@@@8
data$rs	SEGMENT
??_R0?AVCTabDlgCreator@@@8 DD FLAT:??_7type_info@@6B@	; CTabDlgCreator `RTTI Type Descriptor'
	DD	00H
	DB	'.?AVCTabDlgCreator@@', 00H
data$rs	ENDS
;	COMDAT ??_R4CTabDlgCreator@@6B@
rdata$r	SEGMENT
??_R4CTabDlgCreator@@6B@ DD 00H				; CTabDlgCreator::`RTTI Complete Object Locator'
	DD	00H
	DD	00H
	DD	FLAT:??_R0?AVCTabDlgCreator@@@8
	DD	FLAT:??_R3CTabDlgCreator@@8
rdata$r	ENDS
;	COMDAT ??_C@_04JBJKMEJB@?$MA?$PM?$LH?$KL@
CONST	SEGMENT
??_C@_04JBJKMEJB@?$MA?$PM?$LH?$KL@ DB 0c0H, 0fcH, 0b7H, 0abH, 00H ; `string'
CONST	ENDS
;	COMDAT ??_C@_04NGOPIPHE@?A?$LO?$LI?q@
CONST	SEGMENT
??_C@_04NGOPIPHE@?A?$LO?$LI?q@ DB 0c1H, 0beH, 0b8H, 0f1H, 00H ; `string'
CONST	ENDS
;	COMDAT ??_C@_04JDFEIJL@?A?v?G?$KF@
CONST	SEGMENT
??_C@_04JDFEIJL@?A?v?G?$KF@ DB 0c1H, 0f6H, 0c7H, 0a5H, 00H ; `string'
CONST	ENDS
;	COMDAT ??_7CTabDlgCreator@@6B@
CONST	SEGMENT
??_7CTabDlgCreator@@6B@ DD FLAT:??_R4CTabDlgCreator@@6B@ ; CTabDlgCreator::`vftable'
	DD	FLAT:??_ECTabDlgCreator@@UAEPAXI@Z
CONST	ENDS
;	COMDAT xdata$x
xdata$x	SEGMENT
__unwindtable$?CreateTabDlg@CTabDlgCreator@@QAEPAVCTabDlg@@I@Z DD 0ffffffffH
	DD	FLAT:__unwindfunclet$?CreateTabDlg@CTabDlgCreator@@QAEPAVCTabDlg@@I@Z$0
	DD	0ffffffffH
	DD	FLAT:__unwindfunclet$?CreateTabDlg@CTabDlgCreator@@QAEPAVCTabDlg@@I@Z$1
	DD	0ffffffffH
	DD	FLAT:__unwindfunclet$?CreateTabDlg@CTabDlgCreator@@QAEPAVCTabDlg@@I@Z$2
__ehfuncinfo$?CreateTabDlg@CTabDlgCreator@@QAEPAVCTabDlg@@I@Z DD 019930522H
	DD	03H
	DD	FLAT:__unwindtable$?CreateTabDlg@CTabDlgCreator@@QAEPAVCTabDlg@@I@Z
	DD	2 DUP(00H)
	DD	2 DUP(00H)
	DD	00H
	DD	01H
xdata$x	ENDS
CRT$XCU	SEGMENT
?RMSG_SETQUERYOPT$initializer$@@3P6AXXZA DD FLAT:??__ERMSG_SETQUERYOPT@@YAXXZ ; RMSG_SETQUERYOPT$initializer$
CRT$XCU	ENDS
CRT$XCU	SEGMENT
?RMSG_CHARTMAIN$initializer$@@3P6AXXZA DD FLAT:??__ERMSG_CHARTMAIN@@YAXXZ ; RMSG_CHARTMAIN$initializer$
CRT$XCU	ENDS
CRT$XCU	SEGMENT
?RMS_ANALYSIS_FUNC$initializer$@@3P6AXXZA DD FLAT:??__ERMS_ANALYSIS_FUNC@@YAXXZ ; RMS_ANALYSIS_FUNC$initializer$
CRT$XCU	ENDS
CRT$XCU	SEGMENT
?RMSG_GET_USERID$initializer$@@3P6AXXZA DD FLAT:??__ERMSG_GET_USERID@@YAXXZ ; RMSG_GET_USERID$initializer$
CRT$XCU	ENDS
CRT$XCU	SEGMENT
?RMSG_CHANGE_SKINCOLOR$initializer$@@3P6AXXZA DD FLAT:??__ERMSG_CHANGE_SKINCOLOR@@YAXXZ ; RMSG_CHANGE_SKINCOLOR$initializer$
CRT$XCU	ENDS
CRT$XCU	SEGMENT
?RMSG_GET_SKINCOLOR$initializer$@@3P6AXXZA DD FLAT:??__ERMSG_GET_SKINCOLOR@@YAXXZ ; RMSG_GET_SKINCOLOR$initializer$
CRT$XCU	ENDS
CRT$XCU	SEGMENT
?RMSG_CHANGEVERTSCALETYPE$initializer$@@3P6AXXZA DD FLAT:??__ERMSG_CHANGEVERTSCALETYPE@@YAXXZ ; RMSG_CHANGEVERTSCALETYPE$initializer$
CRT$XCU	ENDS
CRT$XCU	SEGMENT
?RMSG_CHANGE_CROSSLINE$initializer$@@3P6AXXZA DD FLAT:??__ERMSG_CHANGE_CROSSLINE@@YAXXZ ; RMSG_CHANGE_CROSSLINE$initializer$
CRT$XCU	ENDS
CRT$XCU	SEGMENT
?RMSG_ADD_PLATFORM_MENU$initializer$@@3P6AXXZA DD FLAT:??__ERMSG_ADD_PLATFORM_MENU@@YAXXZ ; RMSG_ADD_PLATFORM_MENU$initializer$
CRT$XCU	ENDS
CRT$XCU	SEGMENT
?RMSG_SETINITIALCHARTDATA$initializer$@@3P6AXXZA DD FLAT:??__ERMSG_SETINITIALCHARTDATA@@YAXXZ ; RMSG_SETINITIALCHARTDATA$initializer$
CRT$XCU	ENDS
CRT$XCU	SEGMENT
?RMSG_GETINFO$initializer$@@3P6AXXZA DD FLAT:??__ERMSG_GETINFO@@YAXXZ ; RMSG_GETINFO$initializer$
CRT$XCU	ENDS
CRT$XCU	SEGMENT
?RMSG_SETINFO$initializer$@@3P6AXXZA DD FLAT:??__ERMSG_SETINFO@@YAXXZ ; RMSG_SETINFO$initializer$
CRT$XCU	ENDS
CRT$XCU	SEGMENT
?RMSG_DRUSER$initializer$@@3P6AXXZA DD FLAT:??__ERMSG_DRUSER@@YAXXZ ; RMSG_DRUSER$initializer$
CRT$XCU	ENDS
CRT$XCU	SEGMENT
?RMSG_STTREE_ITEMCLICK$initializer$@@3P6AXXZA DD FLAT:??__ERMSG_STTREE_ITEMCLICK@@YAXXZ ; RMSG_STTREE_ITEMCLICK$initializer$
CRT$XCU	ENDS
CRT$XCU	SEGMENT
?RMSG_STTREE_ITEMDBLCLK$initializer$@@3P6AXXZA DD FLAT:??__ERMSG_STTREE_ITEMDBLCLK@@YAXXZ ; RMSG_STTREE_ITEMDBLCLK$initializer$
CRT$XCU	ENDS
; Function compile flags: /Ogtp
; File D:\git\src\IBK\IBK_DRFN\ProjSrc\SrcDrfn\Chart\Common_ST\STTreeCtrl.h
;	COMDAT ??__ERMSG_STTREE_ITEMDBLCLK@@YAXXZ
text$di	SEGMENT
??__ERMSG_STTREE_ITEMDBLCLK@@YAXXZ PROC			; `dynamic initializer for 'RMSG_STTREE_ITEMDBLCLK'', COMDAT

; 12   : const UINT RMSG_STTREE_ITEMDBLCLK	= ::RegisterWindowMessage("RMSG_STTREE_ITEMDBLCLK");

  00000	68 00 00 00 00	 push	 OFFSET ??_C@_0BH@LAAMLACL@RMSG_STTREE_ITEMDBLCLK@
  00005	ff 15 00 00 00
	00		 call	 DWORD PTR __imp__RegisterWindowMessageA@4
  0000b	a3 00 00 00 00	 mov	 DWORD PTR ?RMSG_STTREE_ITEMDBLCLK@@3IB, eax
  00010	c3		 ret	 0
??__ERMSG_STTREE_ITEMDBLCLK@@YAXXZ ENDP			; `dynamic initializer for 'RMSG_STTREE_ITEMDBLCLK''
text$di	ENDS
; Function compile flags: /Ogtp
; File D:\git\src\IBK\IBK_DRFN\ProjSrc\SrcDrfn\Chart\Common_ST\STTreeCtrl.h
;	COMDAT ??__ERMSG_STTREE_ITEMCLICK@@YAXXZ
text$di	SEGMENT
??__ERMSG_STTREE_ITEMCLICK@@YAXXZ PROC			; `dynamic initializer for 'RMSG_STTREE_ITEMCLICK'', COMDAT

; 11   : const UINT RMSG_STTREE_ITEMCLICK	= ::RegisterWindowMessage("RMSG_STTREE_ITEMCLICK");

  00000	68 00 00 00 00	 push	 OFFSET ??_C@_0BG@OHIMHJEO@RMSG_STTREE_ITEMCLICK@
  00005	ff 15 00 00 00
	00		 call	 DWORD PTR __imp__RegisterWindowMessageA@4
  0000b	a3 00 00 00 00	 mov	 DWORD PTR ?RMSG_STTREE_ITEMCLICK@@3IB, eax
  00010	c3		 ret	 0
??__ERMSG_STTREE_ITEMCLICK@@YAXXZ ENDP			; `dynamic initializer for 'RMSG_STTREE_ITEMCLICK''
text$di	ENDS
; Function compile flags: /Ogtp
; File D:\git\src\IBK\IBK_DRFN\ProjSrc\SrcDrfn\inc\DRCommon.h
;	COMDAT ??__ERMSG_DRUSER@@YAXXZ
text$di	SEGMENT
??__ERMSG_DRUSER@@YAXXZ PROC				; `dynamic initializer for 'RMSG_DRUSER'', COMDAT

; 9    : 	const UINT RMSG_DRUSER = ::RegisterWindowMessage(_T("RMSG_DRUSER"));

  00000	68 00 00 00 00	 push	 OFFSET ??_C@_0M@LPFHDJI@RMSG_DRUSER@
  00005	ff 15 00 00 00
	00		 call	 DWORD PTR __imp__RegisterWindowMessageA@4
  0000b	a3 00 00 00 00	 mov	 DWORD PTR ?RMSG_DRUSER@@3IB, eax
  00010	c3		 ret	 0
??__ERMSG_DRUSER@@YAXXZ ENDP				; `dynamic initializer for 'RMSG_DRUSER''
text$di	ENDS
; Function compile flags: /Ogtp
; File D:\git\src\IBK\IBK_DRFN\ProjSrc\SrcDrfn\Chart\MULTICHART\define\ChartMsgDef.h
;	COMDAT ??__ERMSG_SETINFO@@YAXXZ
text$di	SEGMENT
??__ERMSG_SETINFO@@YAXXZ PROC				; `dynamic initializer for 'RMSG_SETINFO'', COMDAT

; 238  : const UINT RMSG_SETINFO = ::RegisterWindowMessage(_T("RMSG_SETINFO"));

  00000	68 00 00 00 00	 push	 OFFSET ??_C@_0N@HABLPHJG@RMSG_SETINFO@
  00005	ff 15 00 00 00
	00		 call	 DWORD PTR __imp__RegisterWindowMessageA@4
  0000b	a3 00 00 00 00	 mov	 DWORD PTR ?RMSG_SETINFO@@3IB, eax
  00010	c3		 ret	 0
??__ERMSG_SETINFO@@YAXXZ ENDP				; `dynamic initializer for 'RMSG_SETINFO''
text$di	ENDS
; Function compile flags: /Ogtp
; File D:\git\src\IBK\IBK_DRFN\ProjSrc\SrcDrfn\Chart\MULTICHART\define\ChartMsgDef.h
;	COMDAT ??__ERMSG_GETINFO@@YAXXZ
text$di	SEGMENT
??__ERMSG_GETINFO@@YAXXZ PROC				; `dynamic initializer for 'RMSG_GETINFO'', COMDAT

; 237  : const UINT RMSG_GETINFO = ::RegisterWindowMessage(_T("RMSG_GETINFO"));

  00000	68 00 00 00 00	 push	 OFFSET ??_C@_0N@IIOKMIEH@RMSG_GETINFO@
  00005	ff 15 00 00 00
	00		 call	 DWORD PTR __imp__RegisterWindowMessageA@4
  0000b	a3 00 00 00 00	 mov	 DWORD PTR ?RMSG_GETINFO@@3IB, eax
  00010	c3		 ret	 0
??__ERMSG_GETINFO@@YAXXZ ENDP				; `dynamic initializer for 'RMSG_GETINFO''
text$di	ENDS
; Function compile flags: /Ogtp
; File D:\git\src\IBK\IBK_DRFN\ProjSrc\SrcDrfn\Chart\MULTICHART\define\ChartMsgDef.h
;	COMDAT ??__ERMSG_SETINITIALCHARTDATA@@YAXXZ
text$di	SEGMENT
??__ERMSG_SETINITIALCHARTDATA@@YAXXZ PROC		; `dynamic initializer for 'RMSG_SETINITIALCHARTDATA'', COMDAT

; 235  : const UINT RMSG_SETINITIALCHARTDATA = ::RegisterWindowMessage(_T("RMSG_SETINITIALCHARTDATA"));

  00000	68 00 00 00 00	 push	 OFFSET ??_C@_0BJ@OGNAJHHI@RMSG_SETINITIALCHARTDATA@
  00005	ff 15 00 00 00
	00		 call	 DWORD PTR __imp__RegisterWindowMessageA@4
  0000b	a3 00 00 00 00	 mov	 DWORD PTR ?RMSG_SETINITIALCHARTDATA@@3IB, eax
  00010	c3		 ret	 0
??__ERMSG_SETINITIALCHARTDATA@@YAXXZ ENDP		; `dynamic initializer for 'RMSG_SETINITIALCHARTDATA''
text$di	ENDS
; Function compile flags: /Ogtp
; File D:\git\src\IBK\IBK_DRFN\ProjSrc\SrcDrfn\Chart\MULTICHART\define\ChartMsgDef.h
;	COMDAT ??__ERMSG_ADD_PLATFORM_MENU@@YAXXZ
text$di	SEGMENT
??__ERMSG_ADD_PLATFORM_MENU@@YAXXZ PROC			; `dynamic initializer for 'RMSG_ADD_PLATFORM_MENU'', COMDAT

; 233  : const UINT RMSG_ADD_PLATFORM_MENU = ::RegisterWindowMessage(_T("RMSG_ADD_PLATFORM_MENU"));

  00000	68 00 00 00 00	 push	 OFFSET ??_C@_0BH@IFDMIMBP@RMSG_ADD_PLATFORM_MENU@
  00005	ff 15 00 00 00
	00		 call	 DWORD PTR __imp__RegisterWindowMessageA@4
  0000b	a3 00 00 00 00	 mov	 DWORD PTR ?RMSG_ADD_PLATFORM_MENU@@3IB, eax
  00010	c3		 ret	 0
??__ERMSG_ADD_PLATFORM_MENU@@YAXXZ ENDP			; `dynamic initializer for 'RMSG_ADD_PLATFORM_MENU''
text$di	ENDS
; Function compile flags: /Ogtp
; File D:\git\src\IBK\IBK_DRFN\ProjSrc\SrcDrfn\Chart\MULTICHART\define\ChartMsgDef.h
;	COMDAT ??__ERMSG_CHANGE_CROSSLINE@@YAXXZ
text$di	SEGMENT
??__ERMSG_CHANGE_CROSSLINE@@YAXXZ PROC			; `dynamic initializer for 'RMSG_CHANGE_CROSSLINE'', COMDAT

; 231  : const UINT RMSG_CHANGE_CROSSLINE = ::RegisterWindowMessage(_T("RMSG_CHANGE_CROSSLINE"));

  00000	68 00 00 00 00	 push	 OFFSET ??_C@_0BG@LNLCJKPF@RMSG_CHANGE_CROSSLINE@
  00005	ff 15 00 00 00
	00		 call	 DWORD PTR __imp__RegisterWindowMessageA@4
  0000b	a3 00 00 00 00	 mov	 DWORD PTR ?RMSG_CHANGE_CROSSLINE@@3IB, eax
  00010	c3		 ret	 0
??__ERMSG_CHANGE_CROSSLINE@@YAXXZ ENDP			; `dynamic initializer for 'RMSG_CHANGE_CROSSLINE''
text$di	ENDS
; Function compile flags: /Ogtp
; File D:\git\src\IBK\IBK_DRFN\ProjSrc\SrcDrfn\Chart\MULTICHART\define\ChartMsgDef.h
;	COMDAT ??__ERMSG_CHANGEVERTSCALETYPE@@YAXXZ
text$di	SEGMENT
??__ERMSG_CHANGEVERTSCALETYPE@@YAXXZ PROC		; `dynamic initializer for 'RMSG_CHANGEVERTSCALETYPE'', COMDAT

; 229  : const UINT RMSG_CHANGEVERTSCALETYPE = ::RegisterWindowMessage(_T("RMSG_CHANGEVERTSCALETYPE"));

  00000	68 00 00 00 00	 push	 OFFSET ??_C@_0BJ@JLKHIBIK@RMSG_CHANGEVERTSCALETYPE@
  00005	ff 15 00 00 00
	00		 call	 DWORD PTR __imp__RegisterWindowMessageA@4
  0000b	a3 00 00 00 00	 mov	 DWORD PTR ?RMSG_CHANGEVERTSCALETYPE@@3IB, eax
  00010	c3		 ret	 0
??__ERMSG_CHANGEVERTSCALETYPE@@YAXXZ ENDP		; `dynamic initializer for 'RMSG_CHANGEVERTSCALETYPE''
text$di	ENDS
; Function compile flags: /Ogtp
; File D:\git\src\IBK\IBK_DRFN\ProjSrc\SrcDrfn\Chart\MULTICHART\define\ChartMsgDef.h
;	COMDAT ??__ERMSG_GET_SKINCOLOR@@YAXXZ
text$di	SEGMENT
??__ERMSG_GET_SKINCOLOR@@YAXXZ PROC			; `dynamic initializer for 'RMSG_GET_SKINCOLOR'', COMDAT

; 226  : const UINT RMSG_GET_SKINCOLOR = ::RegisterWindowMessage(_T("RMSG_GET_SKINCOLOR"));

  00000	68 00 00 00 00	 push	 OFFSET ??_C@_0BD@FLDNDDHK@RMSG_GET_SKINCOLOR@
  00005	ff 15 00 00 00
	00		 call	 DWORD PTR __imp__RegisterWindowMessageA@4
  0000b	a3 00 00 00 00	 mov	 DWORD PTR ?RMSG_GET_SKINCOLOR@@3IB, eax
  00010	c3		 ret	 0
??__ERMSG_GET_SKINCOLOR@@YAXXZ ENDP			; `dynamic initializer for 'RMSG_GET_SKINCOLOR''
text$di	ENDS
; Function compile flags: /Ogtp
; File D:\git\src\IBK\IBK_DRFN\ProjSrc\SrcDrfn\Chart\MULTICHART\define\ChartMsgDef.h
;	COMDAT ??__ERMSG_CHANGE_SKINCOLOR@@YAXXZ
text$di	SEGMENT
??__ERMSG_CHANGE_SKINCOLOR@@YAXXZ PROC			; `dynamic initializer for 'RMSG_CHANGE_SKINCOLOR'', COMDAT

; 225  : const UINT RMSG_CHANGE_SKINCOLOR = ::RegisterWindowMessage(_T("RMSG_CHANGE_SKINCOLOR"));

  00000	68 00 00 00 00	 push	 OFFSET ??_C@_0BG@CNPAHNGG@RMSG_CHANGE_SKINCOLOR@
  00005	ff 15 00 00 00
	00		 call	 DWORD PTR __imp__RegisterWindowMessageA@4
  0000b	a3 00 00 00 00	 mov	 DWORD PTR ?RMSG_CHANGE_SKINCOLOR@@3IB, eax
  00010	c3		 ret	 0
??__ERMSG_CHANGE_SKINCOLOR@@YAXXZ ENDP			; `dynamic initializer for 'RMSG_CHANGE_SKINCOLOR''
text$di	ENDS
; Function compile flags: /Ogtp
; File D:\git\src\IBK\IBK_DRFN\ProjSrc\SrcDrfn\Chart\MULTICHART\define\ChartMsgDef.h
;	COMDAT ??__ERMSG_GET_USERID@@YAXXZ
text$di	SEGMENT
??__ERMSG_GET_USERID@@YAXXZ PROC			; `dynamic initializer for 'RMSG_GET_USERID'', COMDAT

; 215  : const UINT RMSG_GET_USERID = ::RegisterWindowMessage(_T("RMSG_GET_USERID"));	// User ID 얻기

  00000	68 00 00 00 00	 push	 OFFSET ??_C@_0BA@HKNFENJL@RMSG_GET_USERID@
  00005	ff 15 00 00 00
	00		 call	 DWORD PTR __imp__RegisterWindowMessageA@4
  0000b	a3 00 00 00 00	 mov	 DWORD PTR ?RMSG_GET_USERID@@3IB, eax
  00010	c3		 ret	 0
??__ERMSG_GET_USERID@@YAXXZ ENDP			; `dynamic initializer for 'RMSG_GET_USERID''
text$di	ENDS
; Function compile flags: /Ogtp
; File D:\git\src\IBK\IBK_DRFN\ProjSrc\SrcDrfn\Chart\MULTICHART\define\ChartMsgDef.h
;	COMDAT ??__ERMS_ANALYSIS_FUNC@@YAXXZ
text$di	SEGMENT
??__ERMS_ANALYSIS_FUNC@@YAXXZ PROC			; `dynamic initializer for 'RMS_ANALYSIS_FUNC'', COMDAT

; 211  : const UINT RMS_ANALYSIS_FUNC	= ::RegisterWindowMessage(_T("RMS_ANALYSIS_FUNC"));

  00000	68 00 00 00 00	 push	 OFFSET ??_C@_0BC@MMPGLPDH@RMS_ANALYSIS_FUNC@
  00005	ff 15 00 00 00
	00		 call	 DWORD PTR __imp__RegisterWindowMessageA@4
  0000b	a3 00 00 00 00	 mov	 DWORD PTR ?RMS_ANALYSIS_FUNC@@3IB, eax
  00010	c3		 ret	 0
??__ERMS_ANALYSIS_FUNC@@YAXXZ ENDP			; `dynamic initializer for 'RMS_ANALYSIS_FUNC''
text$di	ENDS
; Function compile flags: /Ogtp
; File D:\git\src\IBK\IBK_DRFN\ProjSrc\SrcDrfn\Chart\MULTICHART\define\ChartMsgDef.h
;	COMDAT ??__ERMSG_CHARTMAIN@@YAXXZ
text$di	SEGMENT
??__ERMSG_CHARTMAIN@@YAXXZ PROC				; `dynamic initializer for 'RMSG_CHARTMAIN'', COMDAT

; 208  : const UINT RMSG_CHARTMAIN		= ::RegisterWindowMessage(_T("RMSG_CHARTMAIN"));

  00000	68 00 00 00 00	 push	 OFFSET ??_C@_0P@KHFCBIOH@RMSG_CHARTMAIN@
  00005	ff 15 00 00 00
	00		 call	 DWORD PTR __imp__RegisterWindowMessageA@4
  0000b	a3 00 00 00 00	 mov	 DWORD PTR ?RMSG_CHARTMAIN@@3IB, eax
  00010	c3		 ret	 0
??__ERMSG_CHARTMAIN@@YAXXZ ENDP				; `dynamic initializer for 'RMSG_CHARTMAIN''
text$di	ENDS
; Function compile flags: /Ogtp
; File D:\git\src\IBK\IBK_DRFN\ProjSrc\SrcDrfn\Chart\MULTICHART\define\ChartMsgDef.h
;	COMDAT ??__ERMSG_SETQUERYOPT@@YAXXZ
text$di	SEGMENT
??__ERMSG_SETQUERYOPT@@YAXXZ PROC			; `dynamic initializer for 'RMSG_SETQUERYOPT'', COMDAT

; 183  : const UINT RMSG_SETQUERYOPT = ::RegisterWindowMessage(_T("RMSG_SETQUERYOPT"));

  00000	68 00 00 00 00	 push	 OFFSET ??_C@_0BB@CNOFPEHG@RMSG_SETQUERYOPT@
  00005	ff 15 00 00 00
	00		 call	 DWORD PTR __imp__RegisterWindowMessageA@4
  0000b	a3 00 00 00 00	 mov	 DWORD PTR ?RMSG_SETQUERYOPT@@3IB, eax
  00010	c3		 ret	 0
??__ERMSG_SETQUERYOPT@@YAXXZ ENDP			; `dynamic initializer for 'RMSG_SETQUERYOPT''
text$di	ENDS
; Function compile flags: /Ogtp
; File D:\git\src\IBK\IBK_DRFN\ProjSrc\SrcDrfn\Chart\commontr\TRDefine.h
;	COMDAT ??__ERMSG_GETSIGNAL_REAL@@YAXXZ
text$di	SEGMENT
??__ERMSG_GETSIGNAL_REAL@@YAXXZ PROC			; `dynamic initializer for 'RMSG_GETSIGNAL_REAL'', COMDAT

; 213  : const UINT RMSG_GETSIGNAL_REAL = ::RegisterWindowMessage(_T("RMSG_GETSIGNAL_REAL"));

  00000	68 00 00 00 00	 push	 OFFSET ??_C@_0BE@FJPKENOB@RMSG_GETSIGNAL_REAL@
  00005	ff 15 00 00 00
	00		 call	 DWORD PTR __imp__RegisterWindowMessageA@4
  0000b	a3 00 00 00 00	 mov	 DWORD PTR ?RMSG_GETSIGNAL_REAL@@3IB, eax
  00010	c3		 ret	 0
??__ERMSG_GETSIGNAL_REAL@@YAXXZ ENDP			; `dynamic initializer for 'RMSG_GETSIGNAL_REAL''
text$di	ENDS
; Function compile flags: /Ogtp
;	COMDAT ??_GCTabDlgCreator@@UAEPAXI@Z
_TEXT	SEGMENT
___flags$ = 8						; size = 4
??_GCTabDlgCreator@@UAEPAXI@Z PROC			; CTabDlgCreator::`scalar deleting destructor', COMDAT
; _this$ = ecx
  00000	55		 push	 ebp
  00001	8b ec		 mov	 ebp, esp
  00003	f6 45 08 01	 test	 BYTE PTR ___flags$[ebp], 1
  00007	56		 push	 esi
  00008	8b f1		 mov	 esi, ecx
  0000a	c7 06 00 00 00
	00		 mov	 DWORD PTR [esi], OFFSET ??_7CTabDlgCreator@@6B@
  00010	74 0b		 je	 SHORT $LN4@scalar
  00012	6a 14		 push	 20			; 00000014H
  00014	56		 push	 esi
  00015	e8 00 00 00 00	 call	 ??3@YAXPAXI@Z		; operator delete
  0001a	83 c4 08	 add	 esp, 8
$LN4@scalar:
  0001d	8b c6		 mov	 eax, esi
  0001f	5e		 pop	 esi
  00020	5d		 pop	 ebp
  00021	c2 04 00	 ret	 4
??_GCTabDlgCreator@@UAEPAXI@Z ENDP			; CTabDlgCreator::`scalar deleting destructor'
_TEXT	ENDS
; Function compile flags: /Ogtp
; File D:\git\src\IBK\IBK_DRFN\ProjSrc\SrcDrfn\Chart\MULTICHART\TabDlgCreator.cpp
;	COMDAT ?GetCntOfTabDlg@CTabDlgCreator@@QAEHXZ
_TEXT	SEGMENT
?GetCntOfTabDlg@CTabDlgCreator@@QAEHXZ PROC		; CTabDlgCreator::GetCntOfTabDlg, COMDAT
; _this$ = ecx

; 69   : 	return STOCK_TABTOTALCNT;

  00000	b8 02 00 00 00	 mov	 eax, 2

; 70   : }

  00005	c3		 ret	 0
?GetCntOfTabDlg@CTabDlgCreator@@QAEHXZ ENDP		; CTabDlgCreator::GetCntOfTabDlg
_TEXT	ENDS
; Function compile flags: /Ogtp
; File D:\git\src\IBK\IBK_DRFN\ProjSrc\SrcDrfn\Chart\MULTICHART\TabDlgCreator.cpp
; File C:\Program Files (x86)\Microsoft Visual Studio\2019\Community\VC\Tools\MSVC\14.29.30133\atlmfc\include\afx.inl
; File D:\git\src\IBK\IBK_DRFN\ProjSrc\SrcDrfn\Chart\MULTICHART\TabDlgCreator.cpp
; File C:\Program Files (x86)\Microsoft Visual Studio\2019\Community\VC\Tools\MSVC\14.29.30133\atlmfc\include\afx.inl
; File D:\git\src\IBK\IBK_DRFN\ProjSrc\SrcDrfn\Chart\MULTICHART\TabDlgCreator.cpp
; File C:\Program Files (x86)\Microsoft Visual Studio\2019\Community\VC\Tools\MSVC\14.29.30133\atlmfc\include\afx.inl
; File D:\git\src\IBK\IBK_DRFN\ProjSrc\SrcDrfn\Chart\MULTICHART\TabDlgCreator.cpp
;	COMDAT ?CreateTabDlg@CTabDlgCreator@@QAEPAVCTabDlg@@I@Z
_TEXT	SEGMENT
__$EHRec$ = -12						; size = 12
$T2 = 8							; size = 4
$T3 = 8							; size = 4
$T4 = 8							; size = 4
_nIndex$ = 8						; size = 4
?CreateTabDlg@CTabDlgCreator@@QAEPAVCTabDlg@@I@Z PROC	; CTabDlgCreator::CreateTabDlg, COMDAT
; _this$ = ecx

; 109  : {

  00000	55		 push	 ebp
  00001	8b ec		 mov	 ebp, esp
  00003	6a ff		 push	 -1
  00005	68 00 00 00 00	 push	 __ehhandler$?CreateTabDlg@CTabDlgCreator@@QAEPAVCTabDlg@@I@Z
  0000a	64 a1 00 00 00
	00		 mov	 eax, DWORD PTR fs:0
  00010	50		 push	 eax
  00011	56		 push	 esi
  00012	57		 push	 edi
  00013	a1 00 00 00 00	 mov	 eax, DWORD PTR ___security_cookie
  00018	33 c5		 xor	 eax, ebp
  0001a	50		 push	 eax
  0001b	8d 45 f4	 lea	 eax, DWORD PTR __$EHRec$[ebp]
  0001e	64 a3 00 00 00
	00		 mov	 DWORD PTR fs:0, eax
  00024	8b f9		 mov	 edi, ecx

; 110  : 	CTabDlg* _pTab = NULL;
; 111  : 	switch(nIndex)

  00026	8b 45 08	 mov	 eax, DWORD PTR _nIndex$[ebp]
  00029	83 e8 00	 sub	 eax, 0
  0002c	0f 84 ec 00 00
	00		 je	 $LN6@CreateTabD
  00032	83 e8 01	 sub	 eax, 1
  00035	0f 84 85 00 00
	00		 je	 $LN4@CreateTabD
  0003b	83 e8 01	 sub	 eax, 1
  0003e	75 6b		 jne	 SHORT $LN29@CreateTabD
; File C:\Program Files (x86)\Microsoft Visual Studio\2019\Community\VC\Tools\MSVC\14.29.30133\atlmfc\include\afx.inl

; 116  : 	{ return ::operator new(nSize); }

  00040	68 d8 09 00 00	 push	 2520			; 000009d8H
  00045	e8 00 00 00 00	 call	 ??2@YAPAXI@Z		; operator new
  0004a	83 c4 04	 add	 esp, 4
; File D:\git\src\IBK\IBK_DRFN\ProjSrc\SrcDrfn\Chart\MULTICHART\TabDlgCreator.cpp

; 128  : 	case TABNO_SYSTEMTRADING:	CREATETAB(_pTab,CTabSystemTradingEx)		break;

  0004d	89 45 08	 mov	 DWORD PTR $T2[ebp], eax
  00050	c7 45 fc 02 00
	00 00		 mov	 DWORD PTR __$EHRec$[ebp+8], 2
  00057	85 c0		 test	 eax, eax
  00059	74 0d		 je	 SHORT $LN15@CreateTabD
  0005b	6a 00		 push	 0
  0005d	8b c8		 mov	 ecx, eax
  0005f	e8 00 00 00 00	 call	 ??0CTabSystemTradingEx@@QAE@PAVCWnd@@@Z ; CTabSystemTradingEx::CTabSystemTradingEx
  00064	8b f0		 mov	 esi, eax
  00066	eb 02		 jmp	 SHORT $LN16@CreateTabD
$LN15@CreateTabD:
  00068	33 f6		 xor	 esi, esi
$LN16@CreateTabD:
  0006a	c7 45 fc ff ff
	ff ff		 mov	 DWORD PTR __$EHRec$[ebp+8], -1
  00071	85 f6		 test	 esi, esi
  00073	0f 84 07 01 00
	00		 je	 $LN26@CreateTabD
  00079	8b 47 04	 mov	 eax, DWORD PTR [edi+4]
  0007c	8b ce		 mov	 ecx, esi
  0007e	89 86 bc 00 00
	00		 mov	 DWORD PTR [esi+188], eax
  00084	8b 47 0c	 mov	 eax, DWORD PTR [edi+12]
  00087	89 86 c0 00 00
	00		 mov	 DWORD PTR [esi+192], eax
  0008d	8b 47 10	 mov	 eax, DWORD PTR [edi+16]
  00090	89 86 c4 00 00
	00		 mov	 DWORD PTR [esi+196], eax
  00096	ff 77 08	 push	 DWORD PTR [edi+8]
  00099	8b 06		 mov	 eax, DWORD PTR [esi]
  0009b	68 ad 17 00 00	 push	 6061			; 000017adH
  000a0	ff 90 6c 01 00
	00		 call	 DWORD PTR [eax+364]
  000a6	e9 d5 00 00 00	 jmp	 $LN26@CreateTabD
$LN29@CreateTabD:

; 129  : 		// 상품선물옵션 2차 - ojtaso (20071016)
; 130  : //@유진삭제
; 131  : //	case TABNO_CODESEARCHCMM:	CREATETAB(_pTab,CTabCodeSearchCommodity)		break;
; 132  : //@유진삭제
; 133  : 	}
; 134  : 	return _pTab;

  000ab	33 c0		 xor	 eax, eax

; 135  : }

  000ad	8b 4d f4	 mov	 ecx, DWORD PTR __$EHRec$[ebp]
  000b0	64 89 0d 00 00
	00 00		 mov	 DWORD PTR fs:0, ecx
  000b7	59		 pop	 ecx
  000b8	5f		 pop	 edi
  000b9	5e		 pop	 esi
  000ba	8b e5		 mov	 esp, ebp
  000bc	5d		 pop	 ebp
  000bd	c2 04 00	 ret	 4
$LN4@CreateTabD:
; File C:\Program Files (x86)\Microsoft Visual Studio\2019\Community\VC\Tools\MSVC\14.29.30133\atlmfc\include\afx.inl

; 116  : 	{ return ::operator new(nSize); }

  000c0	68 a0 17 00 00	 push	 6048			; 000017a0H
  000c5	e8 00 00 00 00	 call	 ??2@YAPAXI@Z		; operator new
  000ca	83 c4 04	 add	 esp, 4
; File D:\git\src\IBK\IBK_DRFN\ProjSrc\SrcDrfn\Chart\MULTICHART\TabDlgCreator.cpp

; 115  : 	case TABNO_ASSISTINDEX:	CREATETAB(_pTab,CTabIndices)		break;

  000cd	89 45 08	 mov	 DWORD PTR $T4[ebp], eax
  000d0	c7 45 fc 00 00
	00 00		 mov	 DWORD PTR __$EHRec$[ebp+8], 0
  000d7	85 c0		 test	 eax, eax
  000d9	74 0d		 je	 SHORT $LN11@CreateTabD
  000db	6a 00		 push	 0
  000dd	8b c8		 mov	 ecx, eax
  000df	e8 00 00 00 00	 call	 ??0CTabIndices@@QAE@PAVCWnd@@@Z ; CTabIndices::CTabIndices
  000e4	8b f0		 mov	 esi, eax
  000e6	eb 02		 jmp	 SHORT $LN12@CreateTabD
$LN11@CreateTabD:
  000e8	33 f6		 xor	 esi, esi
$LN12@CreateTabD:
  000ea	c7 45 fc ff ff
	ff ff		 mov	 DWORD PTR __$EHRec$[ebp+8], -1
  000f1	85 f6		 test	 esi, esi
  000f3	0f 84 87 00 00
	00		 je	 $LN26@CreateTabD
  000f9	8b 47 04	 mov	 eax, DWORD PTR [edi+4]
  000fc	89 86 bc 00 00
	00		 mov	 DWORD PTR [esi+188], eax
  00102	8b 47 0c	 mov	 eax, DWORD PTR [edi+12]
  00105	89 86 c0 00 00
	00		 mov	 DWORD PTR [esi+192], eax
  0010b	8b 4f 10	 mov	 ecx, DWORD PTR [edi+16]
  0010e	89 8e c4 00 00
	00		 mov	 DWORD PTR [esi+196], ecx
  00114	ff 77 08	 push	 DWORD PTR [edi+8]
  00117	68 72 17 00 00	 push	 6002			; 00001772H
  0011c	eb 58		 jmp	 SHORT $LN31@CreateTabD
$LN6@CreateTabD:
; File C:\Program Files (x86)\Microsoft Visual Studio\2019\Community\VC\Tools\MSVC\14.29.30133\atlmfc\include\afx.inl

; 116  : 	{ return ::operator new(nSize); }

  0011e	68 00 11 00 00	 push	 4352			; 00001100H
  00123	e8 00 00 00 00	 call	 ??2@YAPAXI@Z		; operator new
  00128	83 c4 04	 add	 esp, 4
; File D:\git\src\IBK\IBK_DRFN\ProjSrc\SrcDrfn\Chart\MULTICHART\TabDlgCreator.cpp

; 117  : 	case TABNO_CODESEARCH:	CREATETAB(_pTab,CTabCodeSearch)		break;

  0012b	89 45 08	 mov	 DWORD PTR $T3[ebp], eax
  0012e	c7 45 fc 01 00
	00 00		 mov	 DWORD PTR __$EHRec$[ebp+8], 1
  00135	85 c0		 test	 eax, eax
  00137	74 0d		 je	 SHORT $LN13@CreateTabD
  00139	6a 00		 push	 0
  0013b	8b c8		 mov	 ecx, eax
  0013d	e8 00 00 00 00	 call	 ??0CTabCodeSearch@@QAE@PAVCWnd@@@Z ; CTabCodeSearch::CTabCodeSearch
  00142	8b f0		 mov	 esi, eax
  00144	eb 02		 jmp	 SHORT $LN14@CreateTabD
$LN13@CreateTabD:
  00146	33 f6		 xor	 esi, esi
$LN14@CreateTabD:
  00148	c7 45 fc ff ff
	ff ff		 mov	 DWORD PTR __$EHRec$[ebp+8], -1
  0014f	85 f6		 test	 esi, esi
  00151	74 2d		 je	 SHORT $LN26@CreateTabD
  00153	8b 47 04	 mov	 eax, DWORD PTR [edi+4]
  00156	89 86 bc 00 00
	00		 mov	 DWORD PTR [esi+188], eax
  0015c	8b 47 0c	 mov	 eax, DWORD PTR [edi+12]
  0015f	89 86 c0 00 00
	00		 mov	 DWORD PTR [esi+192], eax
  00165	8b 4f 10	 mov	 ecx, DWORD PTR [edi+16]
  00168	89 8e c4 00 00
	00		 mov	 DWORD PTR [esi+196], ecx
  0016e	ff 77 08	 push	 DWORD PTR [edi+8]
  00171	68 77 17 00 00	 push	 6007			; 00001777H
$LN31@CreateTabD:

; 135  : }

  00176	8b 16		 mov	 edx, DWORD PTR [esi]
  00178	8b ce		 mov	 ecx, esi
  0017a	ff 92 6c 01 00
	00		 call	 DWORD PTR [edx+364]
$LN26@CreateTabD:
  00180	8b c6		 mov	 eax, esi
  00182	8b 4d f4	 mov	 ecx, DWORD PTR __$EHRec$[ebp]
  00185	64 89 0d 00 00
	00 00		 mov	 DWORD PTR fs:0, ecx
  0018c	59		 pop	 ecx
  0018d	5f		 pop	 edi
  0018e	5e		 pop	 esi
  0018f	8b e5		 mov	 esp, ebp
  00191	5d		 pop	 ebp
  00192	c2 04 00	 ret	 4
_TEXT	ENDS
;	COMDAT text$x
text$x	SEGMENT
__unwindfunclet$?CreateTabDlg@CTabDlgCreator@@QAEPAVCTabDlg@@I@Z$2:
  00000	8b 45 08	 mov	 eax, DWORD PTR $T2[ebp]
  00003	50		 push	 eax
  00004	e8 00 00 00 00	 call	 ??3CObject@@SGXPAX@Z	; CObject::operator delete
  00009	c3		 ret	 0
__unwindfunclet$?CreateTabDlg@CTabDlgCreator@@QAEPAVCTabDlg@@I@Z$0:
  0000a	8b 45 08	 mov	 eax, DWORD PTR $T4[ebp]
  0000d	50		 push	 eax
  0000e	e8 00 00 00 00	 call	 ??3CObject@@SGXPAX@Z	; CObject::operator delete
  00013	c3		 ret	 0
__unwindfunclet$?CreateTabDlg@CTabDlgCreator@@QAEPAVCTabDlg@@I@Z$1:
  00014	8b 45 08	 mov	 eax, DWORD PTR $T3[ebp]
  00017	50		 push	 eax
  00018	e8 00 00 00 00	 call	 ??3CObject@@SGXPAX@Z	; CObject::operator delete
  0001d	c3		 ret	 0
  0001e	cc		 int	 3
  0001f	cc		 int	 3
  00020	cc		 int	 3
  00021	cc		 int	 3
  00022	cc		 int	 3
__ehhandler$?CreateTabDlg@CTabDlgCreator@@QAEPAVCTabDlg@@I@Z:
  00023	90		 npad	 1
  00024	90		 npad	 1
  00025	8b 54 24 08	 mov	 edx, DWORD PTR [esp+8]
  00029	8d 42 0c	 lea	 eax, DWORD PTR [edx+12]
  0002c	8b 4a f4	 mov	 ecx, DWORD PTR [edx-12]
  0002f	33 c8		 xor	 ecx, eax
  00031	e8 00 00 00 00	 call	 @__security_check_cookie@4
  00036	b8 00 00 00 00	 mov	 eax, OFFSET __ehfuncinfo$?CreateTabDlg@CTabDlgCreator@@QAEPAVCTabDlg@@I@Z
  0003b	e9 00 00 00 00	 jmp	 ___CxxFrameHandler3
text$x	ENDS
?CreateTabDlg@CTabDlgCreator@@QAEPAVCTabDlg@@I@Z ENDP	; CTabDlgCreator::CreateTabDlg
; Function compile flags: /Ogtp
; File D:\git\src\IBK\IBK_DRFN\ProjSrc\SrcDrfn\Chart\MULTICHART\TabDlgCreator.cpp
;	COMDAT ?GetCaptionOfTabDlg@CTabDlgCreator@@QAEXIPAD@Z
_TEXT	SEGMENT
_nIndex$ = 8						; size = 4
_pszCaption$ = 12					; size = 4
?GetCaptionOfTabDlg@CTabDlgCreator@@QAEXIPAD@Z PROC	; CTabDlgCreator::GetCaptionOfTabDlg, COMDAT
; _this$ = ecx

; 74   : {

  00000	55		 push	 ebp
  00001	8b ec		 mov	 ebp, esp

; 75   : 	switch(nIndex)

  00003	8b 45 08	 mov	 eax, DWORD PTR _nIndex$[ebp]
  00006	83 e8 00	 sub	 eax, 0
  00009	74 36		 je	 SHORT $LN5@GetCaption
  0000b	83 e8 01	 sub	 eax, 1
  0000e	74 1b		 je	 SHORT $LN4@GetCaption
  00010	83 e8 01	 sub	 eax, 1
  00013	75 3e		 jne	 SHORT $LN2@GetCaption

; 88   : 		break;
; 89   : //	case TABNO_MYFAVORITE:
; 90   : //		strcpy(pszCaption,TAB_MYFAVORITE);
; 91   : //		break;
; 92   : //	case TABNO_ORDER:
; 93   : //		strcpy(pszCaption,TAB_ORDER);
; 94   : //		break;	
; 95   : 	case TABNO_SYSTEMTRADING:
; 96   : 		strcpy(pszCaption,TAB_SYSTEMTRADING);

  00015	8b 4d 0c	 mov	 ecx, DWORD PTR _pszCaption$[ebp]
  00018	a1 00 00 00 00	 mov	 eax, DWORD PTR ??_C@_04JBJKMEJB@?$MA?$PM?$LH?$KL@
  0001d	89 01		 mov	 DWORD PTR [ecx], eax
  0001f	a0 04 00 00 00	 mov	 al, BYTE PTR ??_C@_04JBJKMEJB@?$MA?$PM?$LH?$KL@+4

; 97   : 		break;	
; 98   : //@유진삭제
; 99   : //	case TABNO_SYSTEM: //2005. 05. 16일 추가.===================================
; 100  : //		strcpy(pszCaption,TAB_SYSTEM);
; 101  : //		break;
; 102  : //@유진삭제
; 103  : 		//2005. 05. 16일 추가.===================================
; 104  : 
; 105  : 	}
; 106  : }

  00024	88 41 04	 mov	 BYTE PTR [ecx+4], al
  00027	5d		 pop	 ebp
  00028	c2 08 00	 ret	 8
$LN4@GetCaption:

; 76   : 	{
; 77   : //	case TABNO_CHART:
; 78   : //		strcpy(pszCaption,TAB_CHART);
; 79   : //		break;
; 80   : 	case TABNO_ASSISTINDEX:
; 81   : 		strcpy(pszCaption,TAB_ASSISTINDEX);

  0002b	8b 4d 0c	 mov	 ecx, DWORD PTR _pszCaption$[ebp]
  0002e	a1 00 00 00 00	 mov	 eax, DWORD PTR ??_C@_04JDFEIJL@?A?v?G?$KF@
  00033	89 01		 mov	 DWORD PTR [ecx], eax
  00035	a0 04 00 00 00	 mov	 al, BYTE PTR ??_C@_04JDFEIJL@?A?v?G?$KF@+4

; 97   : 		break;	
; 98   : //@유진삭제
; 99   : //	case TABNO_SYSTEM: //2005. 05. 16일 추가.===================================
; 100  : //		strcpy(pszCaption,TAB_SYSTEM);
; 101  : //		break;
; 102  : //@유진삭제
; 103  : 		//2005. 05. 16일 추가.===================================
; 104  : 
; 105  : 	}
; 106  : }

  0003a	88 41 04	 mov	 BYTE PTR [ecx+4], al
  0003d	5d		 pop	 ebp
  0003e	c2 08 00	 ret	 8
$LN5@GetCaption:

; 82   : 		break;
; 83   : //	case TABNO_FAVORITEGRP:
; 84   : //		strcpy(pszCaption,TAB_FAVORITEGRP);
; 85   : //		break;
; 86   : 	case TABNO_CODESEARCH:
; 87   : 		strcpy(pszCaption,TAB_CODESEARCH);

  00041	8b 4d 0c	 mov	 ecx, DWORD PTR _pszCaption$[ebp]
  00044	a1 00 00 00 00	 mov	 eax, DWORD PTR ??_C@_04NGOPIPHE@?A?$LO?$LI?q@
  00049	89 01		 mov	 DWORD PTR [ecx], eax
  0004b	a0 04 00 00 00	 mov	 al, BYTE PTR ??_C@_04NGOPIPHE@?A?$LO?$LI?q@+4

; 97   : 		break;	
; 98   : //@유진삭제
; 99   : //	case TABNO_SYSTEM: //2005. 05. 16일 추가.===================================
; 100  : //		strcpy(pszCaption,TAB_SYSTEM);
; 101  : //		break;
; 102  : //@유진삭제
; 103  : 		//2005. 05. 16일 추가.===================================
; 104  : 
; 105  : 	}
; 106  : }

  00050	88 41 04	 mov	 BYTE PTR [ecx+4], al
$LN2@GetCaption:
  00053	5d		 pop	 ebp
  00054	c2 08 00	 ret	 8
?GetCaptionOfTabDlg@CTabDlgCreator@@QAEXIPAD@Z ENDP	; CTabDlgCreator::GetCaptionOfTabDlg
_TEXT	ENDS
; Function compile flags: /Ogtp
; File D:\git\src\IBK\IBK_DRFN\ProjSrc\SrcDrfn\Chart\MULTICHART\TabDlgCreator.cpp
;	COMDAT ?Init@CTabDlgCreator@@QAEXPAVCWnd@@PAVCLeftBarDlg@@PAVCTabCtrl@@0@Z
_TEXT	SEGMENT
_pMultiChartWnd$ = 8					; size = 4
_pParentDlg$ = 12					; size = 4
_pTabCtrl$ = 16						; size = 4
_pChartMng$ = 20					; size = 4
?Init@CTabDlgCreator@@QAEXPAVCWnd@@PAVCLeftBarDlg@@PAVCTabCtrl@@0@Z PROC ; CTabDlgCreator::Init, COMDAT
; _this$ = ecx

; 60   : {

  00000	55		 push	 ebp
  00001	8b ec		 mov	 ebp, esp

; 61   : 	m_pMultiChartWnd = pMultiChartWnd;

  00003	8b 45 08	 mov	 eax, DWORD PTR _pMultiChartWnd$[ebp]
  00006	89 41 0c	 mov	 DWORD PTR [ecx+12], eax

; 62   : 	m_pParentDlg = pParentDlg;

  00009	8b 45 0c	 mov	 eax, DWORD PTR _pParentDlg$[ebp]
  0000c	89 41 04	 mov	 DWORD PTR [ecx+4], eax

; 63   : 	m_pTabCtrl = pTabCtrl;

  0000f	8b 45 10	 mov	 eax, DWORD PTR _pTabCtrl$[ebp]
  00012	89 41 08	 mov	 DWORD PTR [ecx+8], eax

; 64   : 	m_pChartMng = pChartMng;

  00015	8b 45 14	 mov	 eax, DWORD PTR _pChartMng$[ebp]
  00018	89 41 10	 mov	 DWORD PTR [ecx+16], eax

; 65   : }

  0001b	5d		 pop	 ebp
  0001c	c2 10 00	 ret	 16			; 00000010H
?Init@CTabDlgCreator@@QAEXPAVCWnd@@PAVCLeftBarDlg@@PAVCTabCtrl@@0@Z ENDP ; CTabDlgCreator::Init
_TEXT	ENDS
; Function compile flags: /Ogtp
; File D:\git\src\IBK\IBK_DRFN\ProjSrc\SrcDrfn\Chart\MULTICHART\TabDlgCreator.cpp
;	COMDAT ??1CTabDlgCreator@@UAE@XZ
_TEXT	SEGMENT
??1CTabDlgCreator@@UAE@XZ PROC				; CTabDlgCreator::~CTabDlgCreator, COMDAT
; _this$ = ecx

; 55   : {

  00000	c7 01 00 00 00
	00		 mov	 DWORD PTR [ecx], OFFSET ??_7CTabDlgCreator@@6B@

; 56   : 
; 57   : }

  00006	c3		 ret	 0
??1CTabDlgCreator@@UAE@XZ ENDP				; CTabDlgCreator::~CTabDlgCreator
_TEXT	ENDS
; Function compile flags: /Ogtp
; File D:\git\src\IBK\IBK_DRFN\ProjSrc\SrcDrfn\Chart\MULTICHART\TabDlgCreator.cpp
;	COMDAT ??0CTabDlgCreator@@QAE@XZ
_TEXT	SEGMENT
??0CTabDlgCreator@@QAE@XZ PROC				; CTabDlgCreator::CTabDlgCreator, COMDAT
; _this$ = ecx

; 47   : {

  00000	c7 01 00 00 00
	00		 mov	 DWORD PTR [ecx], OFFSET ??_7CTabDlgCreator@@6B@

; 48   : 	m_pParentDlg = NULL;
; 49   : 	m_pTabCtrl = NULL;
; 50   : 	m_pMultiChartWnd = NULL;
; 51   : 	m_pChartMng = NULL;
; 52   : }

  00006	8b c1		 mov	 eax, ecx
  00008	c7 41 04 00 00
	00 00		 mov	 DWORD PTR [ecx+4], 0
  0000f	c7 41 08 00 00
	00 00		 mov	 DWORD PTR [ecx+8], 0
  00016	c7 41 0c 00 00
	00 00		 mov	 DWORD PTR [ecx+12], 0
  0001d	c7 41 10 00 00
	00 00		 mov	 DWORD PTR [ecx+16], 0
  00024	c3		 ret	 0
??0CTabDlgCreator@@QAE@XZ ENDP				; CTabDlgCreator::CTabDlgCreator
_TEXT	ENDS
; Function compile flags: /Ogtp
; File C:\Program Files (x86)\Microsoft Visual Studio\2019\Community\VC\Tools\MSVC\14.29.30133\atlmfc\include\afx.inl
;	COMDAT ??3CObject@@SGXPAX@Z
_TEXT	SEGMENT
_p$ = 8							; size = 4
??3CObject@@SGXPAX@Z PROC				; CObject::operator delete, COMDAT

; 112  : 	{ ::operator delete(p); }

  00000	55		 push	 ebp
  00001	8b ec		 mov	 ebp, esp
  00003	ff 75 08	 push	 DWORD PTR _p$[ebp]
  00006	e8 00 00 00 00	 call	 ??3@YAXPAX@Z		; operator delete
  0000b	83 c4 04	 add	 esp, 4
  0000e	5d		 pop	 ebp
  0000f	c2 04 00	 ret	 4
??3CObject@@SGXPAX@Z ENDP				; CObject::operator delete
_TEXT	ENDS
; Function compile flags: /Ogtp
; File D:\git\src\IBK\IBK_DRFN\ProjSrc\SrcDrfn\Chart\MULTICHART\TabDlgCreator.cpp
;	COMDAT ?__empty_global_delete@@YAXPAXI@Z
_TEXT	SEGMENT
___formal$ = 8						; size = 4
___formal$ = 12						; size = 4
?__empty_global_delete@@YAXPAXI@Z PROC			; __empty_global_delete, COMDAT

  00000	c2 00 00	 ret	 0
?__empty_global_delete@@YAXPAXI@Z ENDP			; __empty_global_delete
_TEXT	ENDS
; Function compile flags: /Ogtp
; File D:\git\src\IBK\IBK_DRFN\ProjSrc\SrcDrfn\Chart\MULTICHART\TabDlgCreator.cpp
;	COMDAT ?__empty_global_delete@@YAXPAX@Z
_TEXT	SEGMENT
___formal$ = 8						; size = 4
?__empty_global_delete@@YAXPAX@Z PROC			; __empty_global_delete, COMDAT

  00000	c2 00 00	 ret	 0
?__empty_global_delete@@YAXPAX@Z ENDP			; __empty_global_delete
_TEXT	ENDS
END
