; Listing generated by Microsoft (R) Optimizing Compiler Version 19.29.30145.0 

	TITLE	D:\git\src\IBK\IBK_DRFN\#DRfn-CS\_Obj\MultiChart\TabIndices.obj
	.686P
	.XMM
	include listing.inc
	.model	flat

INCLUDELIB MSVCRT
INCLUDELIB OLDNAMES

PUBLIC	?szIndexGroupName@@3PAPADA			; szIndexGroupName
PUBLIC	??_C@_08LFLAPLBK@?F?$KP?$LM?v?A?v?G?$KF@	; `string'
PUBLIC	??_C@_08JJLNFKND@?A?q?$LA?$NM?C?$KD?$LB?b@	; `string'
PUBLIC	??_C@_08MAIEANBI@?$LL?g?$LP?k?A?v?G?$KF@	; `string'
PUBLIC	??_C@_08EDPMKOLC@?$LB?b?$LK?$LL?A?v?G?$KF@	; `string'
PUBLIC	??_C@_08IJEIMMPG@?$LA?$KB?$LA?$NN?A?v?G?$KF@	; `string'
PUBLIC	??_C@_08PNLEAGMP@?C?$NP?$LM?$LM?A?v?G?$KF@	; `string'
PUBLIC	??_C@_0L@BAEGCNCP@?$LK?$KP?$LF?$LP?$LM?$LK?A?v?G?$KF@ ; `string'
PUBLIC	??_C@_0L@OJKLPOPK@?$LA?E?$LH?$KB?$LH?$KO?A?v?G?$KF@ ; `string'
PUBLIC	??_C@_0M@PJMKPBLB@2?B?w?F?D?$LL?$PN?A?v?G?$KF@	; `string'
PUBLIC	??_C@_08NPEIHMNO@?$LB?b?E?$LI?A?v?G?$KF@	; `string'
PUBLIC	??_C@_08OOIINJIM@?$LN?C?$MA?e?A?v?G?$KF@	; `string'
PUBLIC	??_C@_08KJOAPPHN@?$MA?$PM?C?$LM?A?v?G?$KF@	; `string'
PUBLIC	??_C@_0M@NFOGHAF@RMSG_WMSIZE@			; `string'
PUBLIC	?WM_ATLGETHOST@ATL@@3IA				; ATL::WM_ATLGETHOST
PUBLIC	?WM_ATLGETCONTROL@ATL@@3IA			; ATL::WM_ATLGETCONTROL
PUBLIC	??_C@_0P@JJCNALBJ@RMSG_DRAGSTART@		; `string'
PUBLIC	??_C@_0N@HCNBEPNP@RMSG_DRAGEND@			; `string'
PUBLIC	??_C@_0BE@FJPKENOB@RMSG_GETSIGNAL_REAL@		; `string'
PUBLIC	??_C@_0BB@CNOFPEHG@RMSG_SETQUERYOPT@		; `string'
PUBLIC	??_C@_0P@KHFCBIOH@RMSG_CHARTMAIN@		; `string'
PUBLIC	??_C@_0BC@MMPGLPDH@RMS_ANALYSIS_FUNC@		; `string'
PUBLIC	??_C@_0BA@HKNFENJL@RMSG_GET_USERID@		; `string'
PUBLIC	??_C@_0BG@CNPAHNGG@RMSG_CHANGE_SKINCOLOR@	; `string'
PUBLIC	??_C@_0BD@FLDNDDHK@RMSG_GET_SKINCOLOR@		; `string'
PUBLIC	??_C@_0BJ@JLKHIBIK@RMSG_CHANGEVERTSCALETYPE@	; `string'
PUBLIC	??_C@_0BG@LNLCJKPF@RMSG_CHANGE_CROSSLINE@	; `string'
PUBLIC	??_C@_0BH@IFDMIMBP@RMSG_ADD_PLATFORM_MENU@	; `string'
PUBLIC	??_C@_0BJ@OGNAJHHI@RMSG_SETINITIALCHARTDATA@	; `string'
PUBLIC	??_C@_0N@IIOKMIEH@RMSG_GETINFO@			; `string'
PUBLIC	??_C@_0N@HABLPHJG@RMSG_SETINFO@			; `string'
PUBLIC	?m_bInitFailed@CAtlBaseModule@ATL@@2_NA		; ATL::CAtlBaseModule::m_bInitFailed
PUBLIC	??_C@_0BB@IBKHOHJL@RMSG_REPLAY_REAL@		; `string'
PUBLIC	??_C@_0BB@JFLGBADG@RMSG_REPLAY_FAIL@		; `string'
PUBLIC	??_C@_0BI@KDGAIIMD@RMSG_REPLAY_CHANGE_DATE@	; `string'
PUBLIC	??_C@_0BA@NKHHCPON@RMSG_REPLAY_END@		; `string'
PUBLIC	??_C@_0BE@JFCIMCIP@RMSG_REPLAY_INC_SEC@		; `string'
PUBLIC	??_C@_0BG@GIAJEIJF@RMSG_REPLAY_TOTAL_SEC@	; `string'
PUBLIC	?_pAtlModule@ATL@@3PAVCAtlModule@1@A		; ATL::_pAtlModule
PUBLIC	?_pAtlAutoThreadModule@ATL@@3PAUIAtlAutoThreadModule@1@A ; ATL::_pAtlAutoThreadModule
EXTRN	?_AtlBaseModule@ATL@@3VCAtlBaseModule@1@A:BYTE	; ATL::_AtlBaseModule
;	COMDAT ?WM_ATLGETHOST@ATL@@3IA
_BSS	SEGMENT
?WM_ATLGETHOST@ATL@@3IA DD 01H DUP (?)			; ATL::WM_ATLGETHOST
_BSS	ENDS
;	COMDAT ?WM_ATLGETCONTROL@ATL@@3IA
_BSS	SEGMENT
?WM_ATLGETCONTROL@ATL@@3IA DD 01H DUP (?)		; ATL::WM_ATLGETCONTROL
_BSS	ENDS
;	COMDAT ?m_bInitFailed@CAtlBaseModule@ATL@@2_NA
_BSS	SEGMENT
?m_bInitFailed@CAtlBaseModule@ATL@@2_NA DB 01H DUP (?)	; ATL::CAtlBaseModule::m_bInitFailed
_BSS	ENDS
;	COMDAT ?_pAtlModule@ATL@@3PAVCAtlModule@1@A
_BSS	SEGMENT
?_pAtlModule@ATL@@3PAVCAtlModule@1@A DD 01H DUP (?)	; ATL::_pAtlModule
_BSS	ENDS
;	COMDAT ?_pAtlAutoThreadModule@ATL@@3PAUIAtlAutoThreadModule@1@A
_BSS	SEGMENT
?_pAtlAutoThreadModule@ATL@@3PAUIAtlAutoThreadModule@1@A DD 01H DUP (?) ; ATL::_pAtlAutoThreadModule
_BSS	ENDS
;	COMDAT ??_C@_0BG@GIAJEIJF@RMSG_REPLAY_TOTAL_SEC@
CONST	SEGMENT
??_C@_0BG@GIAJEIJF@RMSG_REPLAY_TOTAL_SEC@ DB 'RMSG_REPLAY_TOTAL_SEC', 00H ; `string'
CONST	ENDS
;	COMDAT ??_C@_0BE@JFCIMCIP@RMSG_REPLAY_INC_SEC@
CONST	SEGMENT
??_C@_0BE@JFCIMCIP@RMSG_REPLAY_INC_SEC@ DB 'RMSG_REPLAY_INC_SEC', 00H ; `string'
CONST	ENDS
;	COMDAT ??_C@_0BA@NKHHCPON@RMSG_REPLAY_END@
CONST	SEGMENT
??_C@_0BA@NKHHCPON@RMSG_REPLAY_END@ DB 'RMSG_REPLAY_END', 00H ; `string'
CONST	ENDS
;	COMDAT ??_C@_0BI@KDGAIIMD@RMSG_REPLAY_CHANGE_DATE@
CONST	SEGMENT
??_C@_0BI@KDGAIIMD@RMSG_REPLAY_CHANGE_DATE@ DB 'RMSG_REPLAY_CHANGE_DATE', 00H ; `string'
CONST	ENDS
;	COMDAT ??_C@_0BB@JFLGBADG@RMSG_REPLAY_FAIL@
CONST	SEGMENT
??_C@_0BB@JFLGBADG@RMSG_REPLAY_FAIL@ DB 'RMSG_REPLAY_FAIL', 00H ; `string'
CONST	ENDS
;	COMDAT ??_C@_0BB@IBKHOHJL@RMSG_REPLAY_REAL@
CONST	SEGMENT
??_C@_0BB@IBKHOHJL@RMSG_REPLAY_REAL@ DB 'RMSG_REPLAY_REAL', 00H ; `string'
CONST	ENDS
;	COMDAT ??_C@_0N@HABLPHJG@RMSG_SETINFO@
CONST	SEGMENT
??_C@_0N@HABLPHJG@RMSG_SETINFO@ DB 'RMSG_SETINFO', 00H	; `string'
CONST	ENDS
;	COMDAT ??_C@_0N@IIOKMIEH@RMSG_GETINFO@
CONST	SEGMENT
??_C@_0N@IIOKMIEH@RMSG_GETINFO@ DB 'RMSG_GETINFO', 00H	; `string'
CONST	ENDS
;	COMDAT ??_C@_0BJ@OGNAJHHI@RMSG_SETINITIALCHARTDATA@
CONST	SEGMENT
??_C@_0BJ@OGNAJHHI@RMSG_SETINITIALCHARTDATA@ DB 'RMSG_SETINITIALCHARTDATA'
	DB	00H						; `string'
CONST	ENDS
;	COMDAT ??_C@_0BH@IFDMIMBP@RMSG_ADD_PLATFORM_MENU@
CONST	SEGMENT
??_C@_0BH@IFDMIMBP@RMSG_ADD_PLATFORM_MENU@ DB 'RMSG_ADD_PLATFORM_MENU', 00H ; `string'
CONST	ENDS
;	COMDAT ??_C@_0BG@LNLCJKPF@RMSG_CHANGE_CROSSLINE@
CONST	SEGMENT
??_C@_0BG@LNLCJKPF@RMSG_CHANGE_CROSSLINE@ DB 'RMSG_CHANGE_CROSSLINE', 00H ; `string'
CONST	ENDS
;	COMDAT ??_C@_0BJ@JLKHIBIK@RMSG_CHANGEVERTSCALETYPE@
CONST	SEGMENT
??_C@_0BJ@JLKHIBIK@RMSG_CHANGEVERTSCALETYPE@ DB 'RMSG_CHANGEVERTSCALETYPE'
	DB	00H						; `string'
CONST	ENDS
;	COMDAT ??_C@_0BD@FLDNDDHK@RMSG_GET_SKINCOLOR@
CONST	SEGMENT
??_C@_0BD@FLDNDDHK@RMSG_GET_SKINCOLOR@ DB 'RMSG_GET_SKINCOLOR', 00H ; `string'
CONST	ENDS
;	COMDAT ??_C@_0BG@CNPAHNGG@RMSG_CHANGE_SKINCOLOR@
CONST	SEGMENT
??_C@_0BG@CNPAHNGG@RMSG_CHANGE_SKINCOLOR@ DB 'RMSG_CHANGE_SKINCOLOR', 00H ; `string'
CONST	ENDS
;	COMDAT ??_C@_0BA@HKNFENJL@RMSG_GET_USERID@
CONST	SEGMENT
??_C@_0BA@HKNFENJL@RMSG_GET_USERID@ DB 'RMSG_GET_USERID', 00H ; `string'
CONST	ENDS
;	COMDAT ??_C@_0BC@MMPGLPDH@RMS_ANALYSIS_FUNC@
CONST	SEGMENT
??_C@_0BC@MMPGLPDH@RMS_ANALYSIS_FUNC@ DB 'RMS_ANALYSIS_FUNC', 00H ; `string'
CONST	ENDS
;	COMDAT ??_C@_0P@KHFCBIOH@RMSG_CHARTMAIN@
CONST	SEGMENT
??_C@_0P@KHFCBIOH@RMSG_CHARTMAIN@ DB 'RMSG_CHARTMAIN', 00H ; `string'
CONST	ENDS
;	COMDAT ??_C@_0BB@CNOFPEHG@RMSG_SETQUERYOPT@
CONST	SEGMENT
??_C@_0BB@CNOFPEHG@RMSG_SETQUERYOPT@ DB 'RMSG_SETQUERYOPT', 00H ; `string'
CONST	ENDS
;	COMDAT ??_C@_0BE@FJPKENOB@RMSG_GETSIGNAL_REAL@
CONST	SEGMENT
??_C@_0BE@FJPKENOB@RMSG_GETSIGNAL_REAL@ DB 'RMSG_GETSIGNAL_REAL', 00H ; `string'
CONST	ENDS
;	COMDAT ??_C@_0N@HCNBEPNP@RMSG_DRAGEND@
CONST	SEGMENT
??_C@_0N@HCNBEPNP@RMSG_DRAGEND@ DB 'RMSG_DRAGEND', 00H	; `string'
CONST	ENDS
;	COMDAT ??_C@_0P@JJCNALBJ@RMSG_DRAGSTART@
CONST	SEGMENT
??_C@_0P@JJCNALBJ@RMSG_DRAGSTART@ DB 'RMSG_DRAGSTART', 00H ; `string'
CONST	ENDS
;	COMDAT ??_C@_0M@NFOGHAF@RMSG_WMSIZE@
CONST	SEGMENT
??_C@_0M@NFOGHAF@RMSG_WMSIZE@ DB 'RMSG_WMSIZE', 00H	; `string'
CONST	ENDS
;	COMDAT ??_C@_08KJOAPPHN@?$MA?$PM?C?$LM?A?v?G?$KF@
CONST	SEGMENT
??_C@_08KJOAPPHN@?$MA?$PM?C?$LM?A?v?G?$KF@ DB 0c0H, 0fcH, 0c3H, 0bcH, 0c1H
	DB	0f6H, 0c7H, 0a5H, 00H			; `string'
CONST	ENDS
;	COMDAT ??_C@_08OOIINJIM@?$LN?C?$MA?e?A?v?G?$KF@
CONST	SEGMENT
??_C@_08OOIINJIM@?$LN?C?$MA?e?A?v?G?$KF@ DB 0bdH, 0c3H, 0c0H, 0e5H, 0c1H, 0f6H
	DB	0c7H, 0a5H, 00H				; `string'
CONST	ENDS
;	COMDAT ??_C@_08NPEIHMNO@?$LB?b?E?$LI?A?v?G?$KF@
CONST	SEGMENT
??_C@_08NPEIHMNO@?$LB?b?E?$LI?A?v?G?$KF@ DB 0b1H, 0e2H, 0c5H, 0b8H, 0c1H, 0f6H
	DB	0c7H, 0a5H, 00H				; `string'
CONST	ENDS
;	COMDAT ??_C@_0M@PJMKPBLB@2?B?w?F?D?$LL?$PN?A?v?G?$KF@
CONST	SEGMENT
??_C@_0M@PJMKPBLB@2?B?w?F?D?$LL?$PN?A?v?G?$KF@ DB '2', 0c2H, 0f7H, 0c6H, 0c4H
	DB	0bbH, 0fdH, 0c1H, 0f6H, 0c7H, 0a5H, 00H	; `string'
CONST	ENDS
;	COMDAT ??_C@_0L@OJKLPOPK@?$LA?E?$LH?$KB?$LH?$KO?A?v?G?$KF@
CONST	SEGMENT
??_C@_0L@OJKLPOPK@?$LA?E?$LH?$KB?$LH?$KO?A?v?G?$KF@ DB 0b0H, 0c5H, 0b7H, 0a1H
	DB	0b7H, 0aeH, 0c1H, 0f6H, 0c7H, 0a5H, 00H	; `string'
CONST	ENDS
;	COMDAT ??_C@_0L@BAEGCNCP@?$LK?$KP?$LF?$LP?$LM?$LK?A?v?G?$KF@
CONST	SEGMENT
??_C@_0L@BAEGCNCP@?$LK?$KP?$LF?$LP?$LM?$LK?A?v?G?$KF@ DB 0baH, 0afH, 0b5H
	DB	0bfH, 0bcH, 0baH, 0c1H, 0f6H, 0c7H, 0a5H, 00H ; `string'
CONST	ENDS
;	COMDAT ??_C@_08PNLEAGMP@?C?$NP?$LM?$LM?A?v?G?$KF@
CONST	SEGMENT
??_C@_08PNLEAGMP@?C?$NP?$LM?$LM?A?v?G?$KF@ DB 0c3H, 0dfH, 0bcH, 0bcH, 0c1H
	DB	0f6H, 0c7H, 0a5H, 00H			; `string'
CONST	ENDS
;	COMDAT ??_C@_08IJEIMMPG@?$LA?$KB?$LA?$NN?A?v?G?$KF@
CONST	SEGMENT
??_C@_08IJEIMMPG@?$LA?$KB?$LA?$NN?A?v?G?$KF@ DB 0b0H, 0a1H, 0b0H, 0ddH, 0c1H
	DB	0f6H, 0c7H, 0a5H, 00H			; `string'
CONST	ENDS
;	COMDAT ??_C@_08EDPMKOLC@?$LB?b?$LK?$LL?A?v?G?$KF@
CONST	SEGMENT
??_C@_08EDPMKOLC@?$LB?b?$LK?$LL?A?v?G?$KF@ DB 0b1H, 0e2H, 0baH, 0bbH, 0c1H
	DB	0f6H, 0c7H, 0a5H, 00H			; `string'
CONST	ENDS
;	COMDAT ??_C@_08MAIEANBI@?$LL?g?$LP?k?A?v?G?$KF@
CONST	SEGMENT
??_C@_08MAIEANBI@?$LL?g?$LP?k?A?v?G?$KF@ DB 0bbH, 0e7H, 0bfH, 0ebH, 0c1H, 0f6H
	DB	0c7H, 0a5H, 00H				; `string'
CONST	ENDS
;	COMDAT ??_C@_08JJLNFKND@?A?q?$LA?$NM?C?$KD?$LB?b@
CONST	SEGMENT
??_C@_08JJLNFKND@?A?q?$LA?$NM?C?$KD?$LB?b@ DB 0c1H, 0f1H, 0b0H, 0dcH, 0c3H
	DB	0a3H, 0b1H, 0e2H, 00H			; `string'
CONST	ENDS
;	COMDAT ??_C@_08LFLAPLBK@?F?$KP?$LM?v?A?v?G?$KF@
CONST	SEGMENT
??_C@_08LFLAPLBK@?F?$KP?$LM?v?A?v?G?$KF@ DB 0c6H, 0afH, 0bcH, 0f6H, 0c1H, 0f6H
	DB	0c7H, 0a5H, 00H				; `string'
CONST	ENDS
_DATA	SEGMENT
?szIndexGroupName@@3PAPADA DD FLAT:??_C@_08LFLAPLBK@?F?$KP?$LM?v?A?v?G?$KF@ ; szIndexGroupName
	DD	FLAT:??_C@_08JJLNFKND@?A?q?$LA?$NM?C?$KD?$LB?b@
	DD	FLAT:??_C@_08MAIEANBI@?$LL?g?$LP?k?A?v?G?$KF@
	DD	FLAT:??_C@_08EDPMKOLC@?$LB?b?$LK?$LL?A?v?G?$KF@
	DD	FLAT:??_C@_08IJEIMMPG@?$LA?$KB?$LA?$NN?A?v?G?$KF@
	DD	FLAT:??_C@_08PNLEAGMP@?C?$NP?$LM?$LM?A?v?G?$KF@
	DD	FLAT:??_C@_0L@BAEGCNCP@?$LK?$KP?$LF?$LP?$LM?$LK?A?v?G?$KF@
	DD	FLAT:??_C@_0L@OJKLPOPK@?$LA?E?$LH?$KB?$LH?$KO?A?v?G?$KF@
	DD	FLAT:??_C@_0M@PJMKPBLB@2?B?w?F?D?$LL?$PN?A?v?G?$KF@
	DD	FLAT:??_C@_08NPEIHMNO@?$LB?b?E?$LI?A?v?G?$KF@
	DD	FLAT:??_C@_08OOIINJIM@?$LN?C?$MA?e?A?v?G?$KF@
	DD	FLAT:??_C@_08KJOAPPHN@?$MA?$PM?C?$LM?A?v?G?$KF@
_DATA	ENDS
PUBLIC	?__empty_global_delete@@YAXPAX@Z		; __empty_global_delete
PUBLIC	?__empty_global_delete@@YAXPAXI@Z		; __empty_global_delete
PUBLIC	??1CObject@@UAE@XZ				; CObject::~CObject
PUBLIC	??3CObject@@SGXPAX@Z				; CObject::operator delete
PUBLIC	?Serialize@CObject@@UAEXAAVCArchive@@@Z		; CObject::Serialize
PUBLIC	?AssertValid@CObject@@UBEXXZ			; CObject::AssertValid
PUBLIC	?Dump@CObject@@UBEXAAVCDumpContext@@@Z		; CObject::Dump
PUBLIC	?_AtlRaiseException@ATL@@YAXKK@Z		; ATL::_AtlRaiseException
PUBLIC	?_AtlInitializeCriticalSectionEx@ATL@@YAHPAU_RTL_CRITICAL_SECTION@@KK@Z ; ATL::_AtlInitializeCriticalSectionEx
PUBLIC	??1CGdiObject@@UAE@XZ				; CGdiObject::~CGdiObject
PUBLIC	??_GCGdiObject@@UAEPAXI@Z			; CGdiObject::`scalar deleting destructor'
PUBLIC	??1CBitmap@@UAE@XZ				; CBitmap::~CBitmap
PUBLIC	??_GCBitmap@@UAEPAXI@Z				; CBitmap::`scalar deleting destructor'
PUBLIC	??1CMenu@@UAE@XZ				; CMenu::~CMenu
PUBLIC	??_GCMenu@@UAEPAXI@Z				; CMenu::`scalar deleting destructor'
PUBLIC	?DoDataExchange@CWnd@@MAEXPAVCDataExchange@@@Z	; CWnd::DoDataExchange
PUBLIC	?BeginModalState@CWnd@@UAEXXZ			; CWnd::BeginModalState
PUBLIC	?EndModalState@CWnd@@UAEXXZ			; CWnd::EndModalState
PUBLIC	??_GCButton@@UAEPAXI@Z				; CButton::`scalar deleting destructor'
PUBLIC	??_GCListBox@@UAEPAXI@Z				; CListBox::`scalar deleting destructor'
PUBLIC	??_GCComboBox@@UAEPAXI@Z			; CComboBox::`scalar deleting destructor'
PUBLIC	??_GCEdit@@UAEPAXI@Z				; CEdit::`scalar deleting destructor'
PUBLIC	?DeleteAllItems@CTreeCtrl@@QAEHXZ		; CTreeCtrl::DeleteAllItems
PUBLIC	?ReceiveData@CTabDlg@@UAEXPAUHWND__@@PBD11PAXJ@Z ; CTabDlg::ReceiveData
PUBLIC	?SetRealPriceData@CTabDlg@@UAEXPAX@Z		; CTabDlg::SetRealPriceData
PUBLIC	?ReceiveDataFromOutSide@CTabDlg@@UAEXXZ		; CTabDlg::ReceiveDataFromOutSide
PUBLIC	?Init_Button@CTabIndices@@QAEXXZ		; CTabIndices::Init_Button
PUBLIC	?LookUpStartIndex@CTabIndices@@QAEHH@Z		; CTabIndices::LookUpStartIndex
PUBLIC	?MakeCheckedJipyoList@CTabIndices@@QAEXXZ	; CTabIndices::MakeCheckedJipyoList
PUBLIC	?ClearCheckJipyoList@CTabIndices@@QAEXXZ	; CTabIndices::ClearCheckJipyoList
PUBLIC	?Move_Selected_JipyoItem@CTabIndices@@QAEXH@Z	; CTabIndices::Move_Selected_JipyoItem
PUBLIC	??0CTabIndices@@QAE@PAVCWnd@@@Z			; CTabIndices::CTabIndices
PUBLIC	??0?$CList@PAVCTrTreeCtrl@@PAV1@@@QAE@H@Z	; CList<CTrTreeCtrl *,CTrTreeCtrl *>::CList<CTrTreeCtrl *,CTrTreeCtrl *>
PUBLIC	?AddTail@?$CList@PAVCTrTreeCtrl@@PAV1@@@QAEPAU__POSITION@@PAVCTrTreeCtrl@@@Z ; CList<CTrTreeCtrl *,CTrTreeCtrl *>::AddTail
PUBLIC	?RemoveAll@?$CList@PAVCTrTreeCtrl@@PAV1@@@QAEXXZ ; CList<CTrTreeCtrl *,CTrTreeCtrl *>::RemoveAll
PUBLIC	?FindIndex@?$CList@PAVCTrTreeCtrl@@PAV1@@@QBEPAU__POSITION@@H@Z ; CList<CTrTreeCtrl *,CTrTreeCtrl *>::FindIndex
PUBLIC	?NewNode@?$CList@PAVCTrTreeCtrl@@PAV1@@@IAEPAUCNode@1@PAU21@0@Z ; CList<CTrTreeCtrl *,CTrTreeCtrl *>::NewNode
PUBLIC	??1?$CList@PAVCTrTreeCtrl@@PAV1@@@UAE@XZ	; CList<CTrTreeCtrl *,CTrTreeCtrl *>::~CList<CTrTreeCtrl *,CTrTreeCtrl *>
PUBLIC	?Serialize@?$CList@PAVCTrTreeCtrl@@PAV1@@@UAEXAAVCArchive@@@Z ; CList<CTrTreeCtrl *,CTrTreeCtrl *>::Serialize
PUBLIC	??_G?$CList@PAVCTrTreeCtrl@@PAV1@@@UAEPAXI@Z	; CList<CTrTreeCtrl *,CTrTreeCtrl *>::`scalar deleting destructor'
PUBLIC	?GetFindItemList@CTabIndices@@QAEXHV?$CStringT@DV?$StrTraitMFC_DLL@DV?$ChTraitsCRT@D@ATL@@@@@ATL@@AAVCStringArray@@@Z ; CTabIndices::GetFindItemList
PUBLIC	?ChangeSkinColor@CTabIndices@@UAEXK@Z		; CTabIndices::ChangeSkinColor
PUBLIC	?DoDataExchange@CTabIndices@@MAEXPAVCDataExchange@@@Z ; CTabIndices::DoDataExchange
PUBLIC	?WindowProc@CTabIndices@@MAEJIIJ@Z		; CTabIndices::WindowProc
PUBLIC	?PreTranslateMessage@CTabIndices@@MAEHPAUtagMSG@@@Z ; CTabIndices::PreTranslateMessage
PUBLIC	?SetItemForm@CTabIndices@@AAEXXZ		; CTabIndices::SetItemForm
PUBLIC	?GetRectOfCtrl@CTabIndices@@EAE?AVCRect@@HH@Z	; CTabIndices::GetRectOfCtrl
PUBLIC	?RecalcLayout@CTabIndices@@AAEXXZ		; CTabIndices::RecalcLayout
PUBLIC	?SetUpjongDataTree@CTabIndices@@AAEXXZ		; CTabIndices::SetUpjongDataTree
PUBLIC	?SetTechnicalIndicator@CTabIndices@@AAEXXZ	; CTabIndices::SetTechnicalIndicator
PUBLIC	?SetMarketIndicator@CTabIndices@@AAEXXZ		; CTabIndices::SetMarketIndicator
PUBLIC	?SetConfig@CTabIndices@@AAEXH@Z			; CTabIndices::SetConfig
PUBLIC	?OnWmSplitterMoved@CTabIndices@@AAEJIJ@Z	; CTabIndices::OnWmSplitterMoved
PUBLIC	?RemoveAllTree@CTabIndices@@AAEXXZ		; CTabIndices::RemoveAllTree
PUBLIC	?RefreshIndex@CTabIndices@@AAEXXZ		; CTabIndices::RefreshIndex
PUBLIC	?OnSize@CTabIndices@@IAEXIHH@Z			; CTabIndices::OnSize
PUBLIC	?OnInitDialog@CTabIndices@@MAEHXZ		; CTabIndices::OnInitDialog
PUBLIC	?OnBtapply@CTabIndices@@IAEXXZ			; CTabIndices::OnBtapply
PUBLIC	?OnBtsearch@CTabIndices@@IAEXXZ			; CTabIndices::OnBtsearch
PUBLIC	?OnDblclkTreeitems@CTabIndices@@IAEXPAUtagNMHDR@@PAJ@Z ; CTabIndices::OnDblclkTreeitems
PUBLIC	?OnDestroy@CTabIndices@@IAEXXZ			; CTabIndices::OnDestroy
PUBLIC	?OnBegindragTreeitems@CTabIndices@@IAEXPAUtagNMHDR@@PAJ@Z ; CTabIndices::OnBegindragTreeitems
PUBLIC	?OnMouseMove@CTabIndices@@IAEXIVCPoint@@@Z	; CTabIndices::OnMouseMove
PUBLIC	?OnLButtonUp@CTabIndices@@IAEXIVCPoint@@@Z	; CTabIndices::OnLButtonUp
PUBLIC	?OnBegindragListitems@CTabIndices@@IAEXPAUtagNMHDR@@PAJ@Z ; CTabIndices::OnBegindragListitems
PUBLIC	?OnDblclkListitems@CTabIndices@@IAEXPAUtagNMHDR@@PAJ@Z ; CTabIndices::OnDblclkListitems
PUBLIC	?OnBtnShowRepeat@CTabIndices@@IAEXXZ		; CTabIndices::OnBtnShowRepeat
PUBLIC	?OnBtnNext@CTabIndices@@IAEXXZ			; CTabIndices::OnBtnNext
PUBLIC	?OnBtnPrev@CTabIndices@@IAEXXZ			; CTabIndices::OnBtnPrev
PUBLIC	?OnBtnStop@CTabIndices@@IAEXXZ			; CTabIndices::OnBtnStop
PUBLIC	?OnSelchangeCmbTime@CTabIndices@@IAEXXZ		; CTabIndices::OnSelchangeCmbTime
PUBLIC	?OnRadioAuto@CTabIndices@@IAEXXZ		; CTabIndices::OnRadioAuto
PUBLIC	?OnRadioManual@CTabIndices@@IAEXXZ		; CTabIndices::OnRadioManual
PUBLIC	?OnBtnAdditem@CTabIndices@@IAEXXZ		; CTabIndices::OnBtnAdditem
PUBLIC	?OnBtnDelitem@CTabIndices@@IAEXXZ		; CTabIndices::OnBtnDelitem
PUBLIC	?OnTimer@CTabIndices@@IAEXI@Z			; CTabIndices::OnTimer
PUBLIC	?OnKillFocus@CTabIndices@@IAEXPAVCWnd@@@Z	; CTabIndices::OnKillFocus
PUBLIC	?OnBnClickedBtnFind@CTabIndices@@IAEXXZ		; CTabIndices::OnBnClickedBtnFind
PUBLIC	?OnBnClickedBtnExtend@CTabIndices@@IAEXXZ	; CTabIndices::OnBnClickedBtnExtend
PUBLIC	?OnLbnSelchangeListFind@CTabIndices@@IAEXXZ	; CTabIndices::OnLbnSelchangeListFind
PUBLIC	?OnChangeEditFind@CTabIndices@@IAEXXZ		; CTabIndices::OnChangeEditFind
PUBLIC	?OnSendMenu@CTabIndices@@IAEXI@Z		; CTabIndices::OnSendMenu
PUBLIC	?OnRmsgWMSize@CTabIndices@@IAEJIJ@Z		; CTabIndices::OnRmsgWMSize
PUBLIC	?GetThisMessageMap@CTabIndices@@KGPBUAFX_MSGMAP@@XZ ; CTabIndices::GetThisMessageMap
PUBLIC	?GetMessageMap@CTabIndices@@MBEPBUAFX_MSGMAP@@XZ ; CTabIndices::GetMessageMap
PUBLIC	??1CTabIndices@@UAE@XZ				; CTabIndices::~CTabIndices
PUBLIC	??_GCTabIndices@@UAEPAXI@Z			; CTabIndices::`scalar deleting destructor'
PUBLIC	??1stringdispid@CComTypeInfoHolder@ATL@@QAE@XZ	; ATL::CComTypeInfoHolder::stringdispid::~stringdispid
PUBLIC	??_Estringdispid@CComTypeInfoHolder@ATL@@QAEPAXI@Z ; ATL::CComTypeInfoHolder::stringdispid::`vector deleting destructor'
PUBLIC	??$SerializeElements@PAVCTrTreeCtrl@@@@YGXAAVCArchive@@PAPAVCTrTreeCtrl@@H@Z ; SerializeElements<CTrTreeCtrl *>
PUBLIC	??_R0PAVCException@@@8				; CException * `RTTI Type Descriptor'
PUBLIC	??_C@_02DPKJAMEF@?$CFd@				; `string'
PUBLIC	?_AtlWinModule@ATL@@3VCAtlWinModule@1@A		; ATL::_AtlWinModule
PUBLIC	??_C@_00CNPNBAHC@@				; `string'
PUBLIC	??_7CGdiObject@@6B@				; CGdiObject::`vftable'
PUBLIC	??_7CBitmap@@6B@				; CBitmap::`vftable'
PUBLIC	??_7CMenu@@6B@					; CMenu::`vftable'
PUBLIC	??_7CButton@@6B@				; CButton::`vftable'
PUBLIC	??_7CListBox@@6B@				; CListBox::`vftable'
PUBLIC	??_7CComboBox@@6B@				; CComboBox::`vftable'
PUBLIC	??_7CEdit@@6B@					; CEdit::`vftable'
PUBLIC	??_C@_0HD@JJCHHHNK@C?3?2Program?5Files?5?$CIx86?$CJ?2Microsof@ ; `string'
PUBLIC	??_C@_0BP@OIEOKIDM@Exception?5thrown?5in?5destructor@ ; `string'
PUBLIC	??_C@_0BB@HBOOMJBF@?$CFTs?5?$CI?$CFTs?3?$CFd?$CJ?6?$CFTs@ ; `string'
PUBLIC	??_C@_0N@OMEMOKLE@?$CFTs?5?$CI?$CFTs?3?$CFd?$CJ@ ; `string'
PUBLIC	??_C@_01GBGANLPD@0@				; `string'
PUBLIC	??_R0?AVCObject@@@8				; CObject `RTTI Type Descriptor'
PUBLIC	??_R3CObject@@8					; CObject::`RTTI Class Hierarchy Descriptor'
PUBLIC	??_R2CObject@@8					; CObject::`RTTI Base Class Array'
PUBLIC	??_R1A@?0A@EA@CObject@@8			; CObject::`RTTI Base Class Descriptor at (0,-1,0,64)'
PUBLIC	??_R4CGdiObject@@6B@				; CGdiObject::`RTTI Complete Object Locator'
PUBLIC	??_R0?AVCGdiObject@@@8				; CGdiObject `RTTI Type Descriptor'
PUBLIC	??_R3CGdiObject@@8				; CGdiObject::`RTTI Class Hierarchy Descriptor'
PUBLIC	??_R2CGdiObject@@8				; CGdiObject::`RTTI Base Class Array'
PUBLIC	??_R1A@?0A@EA@CGdiObject@@8			; CGdiObject::`RTTI Base Class Descriptor at (0,-1,0,64)'
PUBLIC	??_R4CBitmap@@6B@				; CBitmap::`RTTI Complete Object Locator'
PUBLIC	??_R0?AVCBitmap@@@8				; CBitmap `RTTI Type Descriptor'
PUBLIC	??_R3CBitmap@@8					; CBitmap::`RTTI Class Hierarchy Descriptor'
PUBLIC	??_R2CBitmap@@8					; CBitmap::`RTTI Base Class Array'
PUBLIC	??_R1A@?0A@EA@CBitmap@@8			; CBitmap::`RTTI Base Class Descriptor at (0,-1,0,64)'
PUBLIC	??_R4CMenu@@6B@					; CMenu::`RTTI Complete Object Locator'
PUBLIC	??_R0?AVCMenu@@@8				; CMenu `RTTI Type Descriptor'
PUBLIC	??_R3CMenu@@8					; CMenu::`RTTI Class Hierarchy Descriptor'
PUBLIC	??_R2CMenu@@8					; CMenu::`RTTI Base Class Array'
PUBLIC	??_R1A@?0A@EA@CMenu@@8				; CMenu::`RTTI Base Class Descriptor at (0,-1,0,64)'
PUBLIC	??_R1A@?0A@EA@CWnd@@8				; CWnd::`RTTI Base Class Descriptor at (0,-1,0,64)'
PUBLIC	??_R0?AVCWnd@@@8				; CWnd `RTTI Type Descriptor'
PUBLIC	??_R3CWnd@@8					; CWnd::`RTTI Class Hierarchy Descriptor'
PUBLIC	??_R2CWnd@@8					; CWnd::`RTTI Base Class Array'
PUBLIC	??_R1A@?0A@EA@CCmdTarget@@8			; CCmdTarget::`RTTI Base Class Descriptor at (0,-1,0,64)'
PUBLIC	??_R0?AVCCmdTarget@@@8				; CCmdTarget `RTTI Type Descriptor'
PUBLIC	??_R3CCmdTarget@@8				; CCmdTarget::`RTTI Class Hierarchy Descriptor'
PUBLIC	??_R2CCmdTarget@@8				; CCmdTarget::`RTTI Base Class Array'
PUBLIC	??_R4CButton@@6B@				; CButton::`RTTI Complete Object Locator'
PUBLIC	??_R0?AVCButton@@@8				; CButton `RTTI Type Descriptor'
PUBLIC	??_R3CButton@@8					; CButton::`RTTI Class Hierarchy Descriptor'
PUBLIC	??_R2CButton@@8					; CButton::`RTTI Base Class Array'
PUBLIC	??_R1A@?0A@EA@CButton@@8			; CButton::`RTTI Base Class Descriptor at (0,-1,0,64)'
PUBLIC	??_R4CListBox@@6B@				; CListBox::`RTTI Complete Object Locator'
PUBLIC	??_R0?AVCListBox@@@8				; CListBox `RTTI Type Descriptor'
PUBLIC	??_R3CListBox@@8				; CListBox::`RTTI Class Hierarchy Descriptor'
PUBLIC	??_R2CListBox@@8				; CListBox::`RTTI Base Class Array'
PUBLIC	??_R1A@?0A@EA@CListBox@@8			; CListBox::`RTTI Base Class Descriptor at (0,-1,0,64)'
PUBLIC	??_R4CComboBox@@6B@				; CComboBox::`RTTI Complete Object Locator'
PUBLIC	??_R0?AVCComboBox@@@8				; CComboBox `RTTI Type Descriptor'
PUBLIC	??_R3CComboBox@@8				; CComboBox::`RTTI Class Hierarchy Descriptor'
PUBLIC	??_R2CComboBox@@8				; CComboBox::`RTTI Base Class Array'
PUBLIC	??_R1A@?0A@EA@CComboBox@@8			; CComboBox::`RTTI Base Class Descriptor at (0,-1,0,64)'
PUBLIC	??_R4CEdit@@6B@					; CEdit::`RTTI Complete Object Locator'
PUBLIC	??_R0?AVCEdit@@@8				; CEdit `RTTI Type Descriptor'
PUBLIC	??_R3CEdit@@8					; CEdit::`RTTI Class Hierarchy Descriptor'
PUBLIC	??_R2CEdit@@8					; CEdit::`RTTI Base Class Array'
PUBLIC	??_R1A@?0A@EA@CEdit@@8				; CEdit::`RTTI Base Class Descriptor at (0,-1,0,64)'
PUBLIC	??_R1A@?0A@EA@CDialog@@8			; CDialog::`RTTI Base Class Descriptor at (0,-1,0,64)'
PUBLIC	??_R0?AVCDialog@@@8				; CDialog `RTTI Type Descriptor'
PUBLIC	??_R3CDialog@@8					; CDialog::`RTTI Class Hierarchy Descriptor'
PUBLIC	??_R2CDialog@@8					; CDialog::`RTTI Base Class Array'
PUBLIC	??_7?$CList@PAVCTrTreeCtrl@@PAV1@@@6B@		; CList<CTrTreeCtrl *,CTrTreeCtrl *>::`vftable'
PUBLIC	??_7CTabIndices@@6B@				; CTabIndices::`vftable'
PUBLIC	??_C@_01JLIPDDHJ@?3@				; `string'
PUBLIC	??_C@_04FABLJDN@Name@				; `string'
PUBLIC	??_C@_03JONJGAHB@3?C?J@				; `string'
PUBLIC	??_C@_03LLLCDPKN@5?C?J@				; `string'
PUBLIC	??_C@_04MAJFIGJK@15?C?J@			; `string'
PUBLIC	??_C@_02PFIAKEDG@80@				; `string'
PUBLIC	??_C@_0BA@MHHHNIIB@HeightOfIndices@		; `string'
PUBLIC	??_C@_0L@JJCOOLME@TabIndices@			; `string'
PUBLIC	??_C@_0O@GIEOAGCM@IndexSelected@		; `string'
PUBLIC	??_C@_0O@DADNAINN@?$CFs?2folder?4bmp@		; `string'
PUBLIC	??_C@_0BD@OCOIJGGE@?$CFs?2outbar_icon?4bmp@	; `string'
PUBLIC	??_C@_09IBPFDGDO@JipyoFile@			; `string'
PUBLIC	??_C@_02PPKAJPJL@?$CG?$CG@			; `string'
PUBLIC	??_C@_04BEBPOGNC@?B?w?F?$KO@			; `string'
PUBLIC	??_C@_08BDLNPKGG@?A?$LO?G?U?B?w?F?$KO@		; `string'
PUBLIC	??_C@_0CN@OPAEAOJB@?$LA?$PM?$LN?I?A?v?G?$KF?5?A?$NP?5?$LL?h?A?$KG?G?R?5?A?v?G?$KF?$LI?$KG?5?G?O?$LD?$KK?5@ ; `string'
PUBLIC	??_C@_0BI@OIIBGPHF@?$CFs?5?$LI?$KG?5?$LL?h?A?$KG?G?O?$LN?C?$LA?Z?$LN?$MA?$LE?O?$LB?n?$DP@ ; `string'
PUBLIC	??_C@_04JDFEIJL@?A?v?G?$KF@			; `string'
PUBLIC	??_C@_02PBFOLPKM@?$FN?5@			; `string'
PUBLIC	??_C@_0BF@KMELNNPL@?G?O?$LD?$KK?$LI?$KG?5?$LM?$LB?E?C?G?O?$LN?J?$LN?C?$LP?$MA?4@ ; `string'
PUBLIC	??_C@_0BO@HKOHILGA@?$LL?h?A?$KG?G?R?5?G?W?$LI?q?$MA?$LL?5?$LM?$LB?E?C?G?X?5?A?V?$LN?J?$LN?C?$LP?$MA@ ; `string'
PUBLIC	??_C@_0O@BMKAAEKD@?A?q?$LA?$NM?C?$KD?$LB?b?5?$LL?h?A?$KG@ ; `string'
PUBLIC	??_C@_0O@KCIMPLBF@?A?q?$LA?$NM?C?$KD?$LB?b?5?C?$NP?$LA?$KB@ ; `string'
PUBLIC	??_C@_04FLCJJKJJ@?$LF?n?$LH?O@			; `string'
PUBLIC	??_C@_04CFDBLPCI@?$LL?h?A?$KG@			; `string'
PUBLIC	??_C@_05NAOMKNKP@?$CFd?3?$CFs@			; `string'
PUBLIC	??_R4CTabIndices@@6B@				; CTabIndices::`RTTI Complete Object Locator'
PUBLIC	??_R0?AVCTabIndices@@@8				; CTabIndices `RTTI Type Descriptor'
PUBLIC	??_R3CTabIndices@@8				; CTabIndices::`RTTI Class Hierarchy Descriptor'
PUBLIC	??_R2CTabIndices@@8				; CTabIndices::`RTTI Base Class Array'
PUBLIC	??_R1A@?0A@EA@CTabIndices@@8			; CTabIndices::`RTTI Base Class Descriptor at (0,-1,0,64)'
PUBLIC	??_R1A@?0A@EA@CTabDlg@@8			; CTabDlg::`RTTI Base Class Descriptor at (0,-1,0,64)'
PUBLIC	??_R0?AVCTabDlg@@@8				; CTabDlg `RTTI Type Descriptor'
PUBLIC	??_R3CTabDlg@@8					; CTabDlg::`RTTI Class Hierarchy Descriptor'
PUBLIC	??_R2CTabDlg@@8					; CTabDlg::`RTTI Base Class Array'
PUBLIC	??_R1A@?0A@EA@CRscDlg@@8			; CRscDlg::`RTTI Base Class Descriptor at (0,-1,0,64)'
PUBLIC	??_R0?AVCRscDlg@@@8				; CRscDlg `RTTI Type Descriptor'
PUBLIC	??_R3CRscDlg@@8					; CRscDlg::`RTTI Class Hierarchy Descriptor'
PUBLIC	??_R2CRscDlg@@8					; CRscDlg::`RTTI Base Class Array'
PUBLIC	??_R4?$CList@PAVCTrTreeCtrl@@PAV1@@@6B@		; CList<CTrTreeCtrl *,CTrTreeCtrl *>::`RTTI Complete Object Locator'
PUBLIC	??_R0?AV?$CList@PAVCTrTreeCtrl@@PAV1@@@@8	; CList<CTrTreeCtrl *,CTrTreeCtrl *> `RTTI Type Descriptor'
PUBLIC	??_R3?$CList@PAVCTrTreeCtrl@@PAV1@@@8		; CList<CTrTreeCtrl *,CTrTreeCtrl *>::`RTTI Class Hierarchy Descriptor'
PUBLIC	??_R2?$CList@PAVCTrTreeCtrl@@PAV1@@@8		; CList<CTrTreeCtrl *,CTrTreeCtrl *>::`RTTI Base Class Array'
PUBLIC	??_R1A@?0A@EA@?$CList@PAVCTrTreeCtrl@@PAV1@@@8	; CList<CTrTreeCtrl *,CTrTreeCtrl *>::`RTTI Base Class Descriptor at (0,-1,0,64)'
PUBLIC	__xmm@00000064000000640000000000000000
EXTRN	??_M@YGXPAXIIP6EX0@Z@Z:PROC			; `eh vector destructor iterator'
EXTRN	??2@YAPAXI@Z:PROC				; operator new
EXTRN	??3@YAXPAX@Z:PROC				; operator delete
EXTRN	??3@YAXPAXI@Z:PROC				; operator delete
EXTRN	?__global_delete@@YAXPAXI@Z:PROC		; __global_delete
EXTRN	??_V@YAXPAXI@Z:PROC				; operator delete[]
EXTRN	_atexit:PROC
EXTRN	___std_terminate:PROC
EXTRN	__imp__RaiseException@16:PROC
EXTRN	__imp__GetLastError@0:PROC
EXTRN	__imp__InitializeCriticalSectionEx@12:PROC
EXTRN	__imp__DeleteCriticalSection@4:PROC
EXTRN	__imp__GetPrivateProfileStringA@24:PROC
EXTRN	__imp__WritePrivateProfileStringA@16:PROC
EXTRN	__imp__CreateSolidBrush@4:PROC
EXTRN	__imp__RegisterWindowMessageA@4:PROC
EXTRN	__imp__SendMessageA@16:PROC
EXTRN	__imp__PostMessageA@16:PROC
EXTRN	__imp__UnregisterClassA@8:PROC
EXTRN	__imp__SetCapture@4:PROC
EXTRN	__imp__ReleaseCapture@0:PROC
EXTRN	__imp__KillTimer@8:PROC
EXTRN	__imp__EnableWindow@8:PROC
EXTRN	__imp__CreatePopupMenu@0:PROC
EXTRN	__imp__AppendMenuA@16:PROC
EXTRN	__imp__InvalidateRect@12:PROC
EXTRN	__imp__GetClientRect@8:PROC
EXTRN	__imp__GetWindowRect@8:PROC
EXTRN	__imp__GetCursorPos@4:PROC
EXTRN	__imp__ClientToScreen@8:PROC
EXTRN	__imp__PtInRect@12:PROC
EXTRN	__imp__GetParent@4:PROC
EXTRN	__imp__LoadImageA@24:PROC
EXTRN	__imp__ImageList_AddMasked@12:PROC
EXTRN	__imp__free:PROC
EXTRN	__imp__atoi:PROC
EXTRN	__imp__atol:PROC
EXTRN	?AfxThrowInvalidArgException@@YGXXZ:PROC	; AfxThrowInvalidArgException
EXTRN	?AfxThrowArchiveException@@YGXHPBD@Z:PROC	; AfxThrowArchiveException
EXTRN	?GetRuntimeClass@CObject@@UBEPAUCRuntimeClass@@XZ:PROC ; CObject::GetRuntimeClass
EXTRN	__imp__SysFreeString@4:PROC
EXTRN	__imp_??0?$CStringT@DV?$StrTraitMFC_DLL@DV?$ChTraitsCRT@D@ATL@@@@@ATL@@QAE@XZ:PROC
EXTRN	__imp_??0?$CStringT@DV?$StrTraitMFC_DLL@DV?$ChTraitsCRT@D@ATL@@@@@ATL@@QAE@ABV01@@Z:PROC
EXTRN	__imp_??0?$CStringT@DV?$StrTraitMFC_DLL@DV?$ChTraitsCRT@D@ATL@@@@@ATL@@QAE@PBD@Z:PROC
EXTRN	__imp_??1?$CStringT@DV?$StrTraitMFC_DLL@DV?$ChTraitsCRT@D@ATL@@@@@ATL@@QAE@XZ:PROC
EXTRN	__imp_??4?$CStringT@DV?$StrTraitMFC_DLL@DV?$ChTraitsCRT@D@ATL@@@@@ATL@@QAEAAV01@ABV01@@Z:PROC
EXTRN	__imp_??4?$CStringT@DV?$StrTraitMFC_DLL@DV?$ChTraitsCRT@D@ATL@@@@@ATL@@QAEAAV01@PBD@Z:PROC
EXTRN	__imp_??4?$CStringT@DV?$StrTraitMFC_DLL@DV?$ChTraitsCRT@D@ATL@@@@@ATL@@QAEAAV01@D@Z:PROC
EXTRN	__imp_??Y?$CStringT@DV?$StrTraitMFC_DLL@DV?$ChTraitsCRT@D@ATL@@@@@ATL@@QAEAAV01@ABV?$CSimpleStringT@D$00@1@@Z:PROC
EXTRN	__imp_??Y?$CStringT@DV?$StrTraitMFC_DLL@DV?$ChTraitsCRT@D@ATL@@@@@ATL@@QAEAAV01@PBD@Z:PROC
EXTRN	__imp_??Y?$CStringT@DV?$StrTraitMFC_DLL@DV?$ChTraitsCRT@D@ATL@@@@@ATL@@QAEAAV01@D@Z:PROC
EXTRN	__imp_?CompareNoCase@?$CStringT@DV?$StrTraitMFC_DLL@DV?$ChTraitsCRT@D@ATL@@@@@ATL@@QBEHPBD@Z:PROC
EXTRN	__imp_?Delete@?$CStringT@DV?$StrTraitMFC_DLL@DV?$ChTraitsCRT@D@ATL@@@@@ATL@@QAEHHH@Z:PROC
EXTRN	__imp_?Find@?$CStringT@DV?$StrTraitMFC_DLL@DV?$ChTraitsCRT@D@ATL@@@@@ATL@@QBEHPBDH@Z:PROC
EXTRN	__imp_?MakeUpper@?$CStringT@DV?$StrTraitMFC_DLL@DV?$ChTraitsCRT@D@ATL@@@@@ATL@@QAEAAV12@XZ:PROC
EXTRN	__imp_?Mid@?$CStringT@DV?$StrTraitMFC_DLL@DV?$ChTraitsCRT@D@ATL@@@@@ATL@@QBE?AV12@H@Z:PROC
EXTRN	__imp_?Left@?$CStringT@DV?$StrTraitMFC_DLL@DV?$ChTraitsCRT@D@ATL@@@@@ATL@@QBE?AV12@H@Z:PROC
EXTRN	__imp_?Format@?$CStringT@DV?$StrTraitMFC_DLL@DV?$ChTraitsCRT@D@ATL@@@@@ATL@@QAAXPBDZZ:PROC
EXTRN	?Read@CArchive@@QAEIPAXI@Z:PROC			; CArchive::Read
EXTRN	?Write@CArchive@@QAEXPBXI@Z:PROC		; CArchive::Write
EXTRN	?ReadCount@CArchive@@QAEKXZ:PROC		; CArchive::ReadCount
EXTRN	?WriteCount@CArchive@@QAEXK@Z:PROC		; CArchive::WriteCount
EXTRN	??0CStringArray@@QAE@XZ:PROC			; CStringArray::CStringArray
EXTRN	?SetSize@CStringArray@@QAEXHH@Z:PROC		; CStringArray::SetSize
EXTRN	?SetAtGrow@CStringArray@@QAEXHPBD@Z:PROC	; CStringArray::SetAtGrow
EXTRN	?SetAtGrow@CStringArray@@QAEXHABV?$CStringT@DV?$StrTraitMFC_DLL@DV?$ChTraitsCRT@D@ATL@@@@@ATL@@@Z:PROC ; CStringArray::SetAtGrow
EXTRN	?Append@CStringArray@@QAEHABV1@@Z:PROC		; CStringArray::Append
EXTRN	??1CStringArray@@UAE@XZ:PROC			; CStringArray::~CStringArray
EXTRN	??0CStringList@@QAE@H@Z:PROC			; CStringList::CStringList
EXTRN	?AddTail@CStringList@@QAEPAU__POSITION@@ABV?$CStringT@DV?$StrTraitMFC_DLL@DV?$ChTraitsCRT@D@ATL@@@@@ATL@@@Z:PROC ; CStringList::AddTail
EXTRN	?RemoveAt@CStringList@@QAEXPAU__POSITION@@@Z:PROC ; CStringList::RemoveAt
EXTRN	??1CStringList@@UAE@XZ:PROC			; CStringList::~CStringList
EXTRN	?Create@CPlex@@SGPAU1@AAPAU1@II@Z:PROC		; CPlex::Create
EXTRN	?FreeDataChain@CPlex@@QAEXXZ:PROC		; CPlex::FreeDataChain
EXTRN	?GetRuntimeClass@CGdiObject@@UBEPAUCRuntimeClass@@XZ:PROC ; CGdiObject::GetRuntimeClass
EXTRN	?Attach@CGdiObject@@QAEHPAX@Z:PROC		; CGdiObject::Attach
EXTRN	?DeleteObject@CGdiObject@@QAEHXZ:PROC		; CGdiObject::DeleteObject
EXTRN	??_ECGdiObject@@UAEPAXI@Z:PROC			; CGdiObject::`vector deleting destructor'
EXTRN	?GetRuntimeClass@CBitmap@@UBEPAUCRuntimeClass@@XZ:PROC ; CBitmap::GetRuntimeClass
EXTRN	??_ECBitmap@@UAEPAXI@Z:PROC			; CBitmap::`vector deleting destructor'
EXTRN	??0CImageList@@QAE@XZ:PROC			; CImageList::CImageList
EXTRN	?Create@CImageList@@QAEHHHIHH@Z:PROC		; CImageList::Create
EXTRN	?FromHandle@CImageList@@SGPAV1@PAU_IMAGELIST@@@Z:PROC ; CImageList::FromHandle
EXTRN	?DeleteImageList@CImageList@@QAEHXZ:PROC	; CImageList::DeleteImageList
EXTRN	??1CImageList@@UAE@XZ:PROC			; CImageList::~CImageList
EXTRN	?GetRuntimeClass@CMenu@@UBEPAUCRuntimeClass@@XZ:PROC ; CMenu::GetRuntimeClass
EXTRN	?DestroyMenu@CMenu@@QAEHXZ:PROC			; CMenu::DestroyMenu
EXTRN	?Attach@CMenu@@QAEHPAUHMENU__@@@Z:PROC		; CMenu::Attach
EXTRN	?TrackPopupMenu@CMenu@@QAEHIHHPAVCWnd@@PBUtagRECT@@@Z:PROC ; CMenu::TrackPopupMenu
EXTRN	?DrawItem@CMenu@@UAEXPAUtagDRAWITEMSTRUCT@@@Z:PROC ; CMenu::DrawItem
EXTRN	?MeasureItem@CMenu@@UAEXPAUtagMEASUREITEMSTRUCT@@@Z:PROC ; CMenu::MeasureItem
EXTRN	??_ECMenu@@UAEPAXI@Z:PROC			; CMenu::`vector deleting destructor'
EXTRN	?DDX_Control@@YGXPAVCDataExchange@@HAAVCWnd@@@Z:PROC ; DDX_Control
EXTRN	?OnCmdMsg@CCmdTarget@@UAEHIHPAXPAUAFX_CMDHANDLERINFO@@@Z:PROC ; CCmdTarget::OnCmdMsg
EXTRN	?IsInvokeAllowed@CCmdTarget@@UAEHJ@Z:PROC	; CCmdTarget::IsInvokeAllowed
EXTRN	?GetDispatchIID@CCmdTarget@@UAEHPAU_GUID@@@Z:PROC ; CCmdTarget::GetDispatchIID
EXTRN	?GetTypeInfoCount@CCmdTarget@@UAEIXZ:PROC	; CCmdTarget::GetTypeInfoCount
EXTRN	?GetTypeLibCache@CCmdTarget@@UAEPAVCTypeLibCache@@XZ:PROC ; CCmdTarget::GetTypeLibCache
EXTRN	?GetTypeLib@CCmdTarget@@UAEJKPAPAUITypeLib@@@Z:PROC ; CCmdTarget::GetTypeLib
EXTRN	?GetCommandMap@CCmdTarget@@MBEPBUAFX_OLECMDMAP@@XZ:PROC ; CCmdTarget::GetCommandMap
EXTRN	?GetDispatchMap@CCmdTarget@@MBEPBUAFX_DISPMAP@@XZ:PROC ; CCmdTarget::GetDispatchMap
EXTRN	?GetConnectionMap@CCmdTarget@@MBEPBUAFX_CONNECTIONMAP@@XZ:PROC ; CCmdTarget::GetConnectionMap
EXTRN	?GetEventSinkMap@CCmdTarget@@MBEPBUAFX_EVENTSINKMAP@@XZ:PROC ; CCmdTarget::GetEventSinkMap
EXTRN	?OnCreateAggregates@CCmdTarget@@UAEHXZ:PROC	; CCmdTarget::OnCreateAggregates
EXTRN	?GetInterfaceHook@CCmdTarget@@UAEPAUIUnknown@@PBX@Z:PROC ; CCmdTarget::GetInterfaceHook
EXTRN	?GetExtraConnectionPoints@CCmdTarget@@MAEHPAVCPtrArray@@@Z:PROC ; CCmdTarget::GetExtraConnectionPoints
EXTRN	?GetConnectionHook@CCmdTarget@@MAEPAUIConnectionPoint@@ABU_GUID@@@Z:PROC ; CCmdTarget::GetConnectionHook
EXTRN	??0CWnd@@QAE@XZ:PROC				; CWnd::CWnd
EXTRN	?FromHandle@CWnd@@SGPAV1@PAUHWND__@@@Z:PROC	; CWnd::FromHandle
EXTRN	?PreSubclassWindow@CWnd@@UAEXXZ:PROC		; CWnd::PreSubclassWindow
EXTRN	?Create@CWnd@@UAEHPBD0KABUtagRECT@@PAV1@IPAUCCreateContext@@@Z:PROC ; CWnd::Create
EXTRN	?CreateEx@CWnd@@UAEHKPBD0KHHHHPAUHWND__@@PAUHMENU__@@PAX@Z:PROC ; CWnd::CreateEx
EXTRN	?CreateEx@CWnd@@UAEHKPBD0KABUtagRECT@@PAV1@IPAX@Z:PROC ; CWnd::CreateEx
EXTRN	?DestroyWindow@CWnd@@UAEHXZ:PROC		; CWnd::DestroyWindow
EXTRN	?PreCreateWindow@CWnd@@UAEHAAUtagCREATESTRUCTA@@@Z:PROC ; CWnd::PreCreateWindow
EXTRN	?CalcWindowRect@CWnd@@UAEXPAUtagRECT@@I@Z:PROC	; CWnd::CalcWindowRect
EXTRN	?GetDlgItem@CWnd@@QBEPAV1@H@Z:PROC		; CWnd::GetDlgItem
EXTRN	?GetWindowTextA@CWnd@@QBEXAAV?$CStringT@DV?$StrTraitMFC_DLL@DV?$ChTraitsCRT@D@ATL@@@@@ATL@@@Z:PROC ; CWnd::GetWindowTextA
EXTRN	?GetMenu@CWnd@@UBEPAVCMenu@@XZ:PROC		; CWnd::GetMenu
EXTRN	?SetMenu@CWnd@@UAEHPAVCMenu@@@Z:PROC		; CWnd::SetMenu
EXTRN	?ShowWindow@CWnd@@QAEHH@Z:PROC			; CWnd::ShowWindow
EXTRN	?OnToolHitTest@CWnd@@UBEHVCPoint@@PAUtagTOOLINFOA@@@Z:PROC ; CWnd::OnToolHitTest
EXTRN	?EnableWindow@CWnd@@QAEHH@Z:PROC		; CWnd::EnableWindow
EXTRN	?GetScrollBarCtrl@CWnd@@UBEPAVCScrollBar@@H@Z:PROC ; CWnd::GetScrollBarCtrl
EXTRN	?MessageBoxA@CWnd@@QAEHPBD0I@Z:PROC		; CWnd::MessageBoxA
EXTRN	?WinHelpA@CWnd@@UAEXKI@Z:PROC			; CWnd::WinHelpA
EXTRN	?HtmlHelpA@CWnd@@UAEXKI@Z:PROC			; CWnd::HtmlHelpA
EXTRN	?WinHelpInternal@CWnd@@UAEXKI@Z:PROC		; CWnd::WinHelpInternal
EXTRN	?ContinueModal@CWnd@@UAEHXZ:PROC		; CWnd::ContinueModal
EXTRN	?EndModalLoop@CWnd@@UAEXH@Z:PROC		; CWnd::EndModalLoop
EXTRN	?OnDrawIconicThumbnailOrLivePreview@CWnd@@UAEXAAVCDC@@VCRect@@VCSize@@HAAH@Z:PROC ; CWnd::OnDrawIconicThumbnailOrLivePreview
EXTRN	?GetInterfaceMap@CWnd@@MBEPBUAFX_INTERFACEMAP@@XZ:PROC ; CWnd::GetInterfaceMap
EXTRN	?EnsureStdObj@CWnd@@UAEJXZ:PROC			; CWnd::EnsureStdObj
EXTRN	?get_accParent@CWnd@@UAEJPAPAUIDispatch@@@Z:PROC ; CWnd::get_accParent
EXTRN	?get_accChildCount@CWnd@@UAEJPAJ@Z:PROC		; CWnd::get_accChildCount
EXTRN	?get_accChild@CWnd@@UAEJUtagVARIANT@@PAPAUIDispatch@@@Z:PROC ; CWnd::get_accChild
EXTRN	?get_accName@CWnd@@UAEJUtagVARIANT@@PAPA_W@Z:PROC ; CWnd::get_accName
EXTRN	?get_accValue@CWnd@@UAEJUtagVARIANT@@PAPA_W@Z:PROC ; CWnd::get_accValue
EXTRN	?get_accDescription@CWnd@@UAEJUtagVARIANT@@PAPA_W@Z:PROC ; CWnd::get_accDescription
EXTRN	?get_accRole@CWnd@@UAEJUtagVARIANT@@PAU2@@Z:PROC ; CWnd::get_accRole
EXTRN	?get_accState@CWnd@@UAEJUtagVARIANT@@PAU2@@Z:PROC ; CWnd::get_accState
EXTRN	?get_accHelp@CWnd@@UAEJUtagVARIANT@@PAPA_W@Z:PROC ; CWnd::get_accHelp
EXTRN	?get_accHelpTopic@CWnd@@UAEJPAPA_WUtagVARIANT@@PAJ@Z:PROC ; CWnd::get_accHelpTopic
EXTRN	?get_accKeyboardShortcut@CWnd@@UAEJUtagVARIANT@@PAPA_W@Z:PROC ; CWnd::get_accKeyboardShortcut
EXTRN	?get_accFocus@CWnd@@UAEJPAUtagVARIANT@@@Z:PROC	; CWnd::get_accFocus
EXTRN	?get_accSelection@CWnd@@UAEJPAUtagVARIANT@@@Z:PROC ; CWnd::get_accSelection
EXTRN	?get_accDefaultAction@CWnd@@UAEJUtagVARIANT@@PAPA_W@Z:PROC ; CWnd::get_accDefaultAction
EXTRN	?accSelect@CWnd@@UAEJJUtagVARIANT@@@Z:PROC	; CWnd::accSelect
EXTRN	?accLocation@CWnd@@UAEJPAJ000UtagVARIANT@@@Z:PROC ; CWnd::accLocation
EXTRN	?accNavigate@CWnd@@UAEJJUtagVARIANT@@PAU2@@Z:PROC ; CWnd::accNavigate
EXTRN	?accHitTest@CWnd@@UAEJJJPAUtagVARIANT@@@Z:PROC	; CWnd::accHitTest
EXTRN	?accDoDefaultAction@CWnd@@UAEJUtagVARIANT@@@Z:PROC ; CWnd::accDoDefaultAction
EXTRN	?put_accName@CWnd@@UAEJUtagVARIANT@@PA_W@Z:PROC	; CWnd::put_accName
EXTRN	?put_accValue@CWnd@@UAEJUtagVARIANT@@PA_W@Z:PROC ; CWnd::put_accValue
EXTRN	?SetProxy@CWnd@@UAEJPAUIAccessibleProxy@@@Z:PROC ; CWnd::SetProxy
EXTRN	?CreateAccessibleProxy@CWnd@@UAEJIJPAJ@Z:PROC	; CWnd::CreateAccessibleProxy
EXTRN	?OnCommand@CWnd@@MAEHIJ@Z:PROC			; CWnd::OnCommand
EXTRN	?OnNotify@CWnd@@MAEHIJPAJ@Z:PROC		; CWnd::OnNotify
EXTRN	?GetSuperWndProcAddr@CWnd@@MAEPAP6GJPAUHWND__@@IIJ@ZXZ:PROC ; CWnd::GetSuperWndProcAddr
EXTRN	?PreTranslateMessage@CWnd@@UAEHPAUtagMSG@@@Z:PROC ; CWnd::PreTranslateMessage
EXTRN	?OnAmbientProperty@CWnd@@UAEHPAVCOleControlSite@@JPAUtagVARIANT@@@Z:PROC ; CWnd::OnAmbientProperty
EXTRN	?WindowProc@CWnd@@MAEJIIJ@Z:PROC		; CWnd::WindowProc
EXTRN	?OnWndMsg@CWnd@@MAEHIIJPAJ@Z:PROC		; CWnd::OnWndMsg
EXTRN	?Default@CWnd@@IAEJXZ:PROC			; CWnd::Default
EXTRN	?DefWindowProcA@CWnd@@MAEJIIJ@Z:PROC		; CWnd::DefWindowProcA
EXTRN	?PostNcDestroy@CWnd@@MAEXXZ:PROC		; CWnd::PostNcDestroy
EXTRN	?OnChildNotify@CWnd@@MAEHIIJPAJ@Z:PROC		; CWnd::OnChildNotify
EXTRN	?OnTouchInputs@CWnd@@MAEHIPAUtagTOUCHINPUT@@@Z:PROC ; CWnd::OnTouchInputs
EXTRN	?OnTouchInput@CWnd@@MAEHVCPoint@@HHPAUtagTOUCHINPUT@@@Z:PROC ; CWnd::OnTouchInput
EXTRN	?GetGestureStatus@CWnd@@MAEKVCPoint@@@Z:PROC	; CWnd::GetGestureStatus
EXTRN	?OnGestureZoom@CWnd@@MAEHVCPoint@@J@Z:PROC	; CWnd::OnGestureZoom
EXTRN	?OnGesturePan@CWnd@@MAEHVCPoint@@0@Z:PROC	; CWnd::OnGesturePan
EXTRN	?OnGestureRotate@CWnd@@MAEHVCPoint@@N@Z:PROC	; CWnd::OnGestureRotate
EXTRN	?OnGestureTwoFingerTap@CWnd@@MAEHVCPoint@@@Z:PROC ; CWnd::OnGestureTwoFingerTap
EXTRN	?OnGesturePressAndTap@CWnd@@MAEHVCPoint@@J@Z:PROC ; CWnd::OnGesturePressAndTap
EXTRN	?ResizeDynamicLayout@CWnd@@MAEXXZ:PROC		; CWnd::ResizeDynamicLayout
EXTRN	?CheckAutoCenter@CWnd@@UAEHXZ:PROC		; CWnd::CheckAutoCenter
EXTRN	?IsFrameWnd@CWnd@@UBEHXZ:PROC			; CWnd::IsFrameWnd
EXTRN	?OnFinalRelease@CWnd@@UAEXXZ:PROC		; CWnd::OnFinalRelease
EXTRN	?CreateControlContainer@CWnd@@MAEHPAPAVCOleControlContainer@@@Z:PROC ; CWnd::CreateControlContainer
EXTRN	?CreateControlSite@CWnd@@MAEHPAVCOleControlContainer@@PAPAVCOleControlSite@@IABU_GUID@@@Z:PROC ; CWnd::CreateControlSite
EXTRN	?SetOccDialogInfo@CWnd@@MAEHPAU_AFX_OCC_DIALOG_INFO@@@Z:PROC ; CWnd::SetOccDialogInfo
EXTRN	?GetOccDialogInfo@CWnd@@MAEPAU_AFX_OCC_DIALOG_INFO@@XZ:PROC ; CWnd::GetOccDialogInfo
EXTRN	?GetMessageMap@CWnd@@MBEPBUAFX_MSGMAP@@XZ:PROC	; CWnd::GetMessageMap
EXTRN	?GetRuntimeClass@CDialog@@UBEPAUCRuntimeClass@@XZ:PROC ; CDialog::GetRuntimeClass
EXTRN	?Create@CDialog@@UAEHPBDPAVCWnd@@@Z:PROC	; CDialog::Create
EXTRN	?CreateIndirect@CDialog@@UAEHPBUDLGTEMPLATE@@PAVCWnd@@PAX@Z:PROC ; CDialog::CreateIndirect
EXTRN	?CreateIndirect@CDialog@@UAEHPAXPAVCWnd@@@Z:PROC ; CDialog::CreateIndirect
EXTRN	?OnSetFont@CDialog@@UAEXPAVCFont@@@Z:PROC	; CDialog::OnSetFont
EXTRN	?OnOK@CDialog@@MAEXXZ:PROC			; CDialog::OnOK
EXTRN	?OnCancel@CDialog@@MAEXXZ:PROC			; CDialog::OnCancel
EXTRN	?OnCmdMsg@CDialog@@UAEHIHPAXPAUAFX_CMDHANDLERINFO@@@Z:PROC ; CDialog::OnCmdMsg
EXTRN	?CheckAutoCenter@CDialog@@UAEHXZ:PROC		; CDialog::CheckAutoCenter
EXTRN	?SetOccDialogInfo@CDialog@@MAEHPAU_AFX_OCC_DIALOG_INFO@@@Z:PROC ; CDialog::SetOccDialogInfo
EXTRN	?GetOccDialogInfo@CDialog@@MAEPAU_AFX_OCC_DIALOG_INFO@@XZ:PROC ; CDialog::GetOccDialogInfo
EXTRN	?PreInitDialog@CDialog@@MAEXXZ:PROC		; CDialog::PreInitDialog
EXTRN	?GetRuntimeClass@CButton@@UBEPAUCRuntimeClass@@XZ:PROC ; CButton::GetRuntimeClass
EXTRN	?Create@CButton@@UAEHPBDKABUtagRECT@@PAVCWnd@@I@Z:PROC ; CButton::Create
EXTRN	?DrawItem@CButton@@UAEXPAUtagDRAWITEMSTRUCT@@@Z:PROC ; CButton::DrawItem
EXTRN	??1CButton@@UAE@XZ:PROC				; CButton::~CButton
EXTRN	?OnChildNotify@CButton@@MAEHIIJPAJ@Z:PROC	; CButton::OnChildNotify
EXTRN	??_ECButton@@UAEPAXI@Z:PROC			; CButton::`vector deleting destructor'
EXTRN	?GetRuntimeClass@CListBox@@UBEPAUCRuntimeClass@@XZ:PROC ; CListBox::GetRuntimeClass
EXTRN	?Create@CListBox@@UAEHKABUtagRECT@@PAVCWnd@@I@Z:PROC ; CListBox::Create
EXTRN	?GetText@CListBox@@QBEXHAAV?$CStringT@DV?$StrTraitMFC_DLL@DV?$ChTraitsCRT@D@ATL@@@@@ATL@@@Z:PROC ; CListBox::GetText
EXTRN	?DrawItem@CListBox@@UAEXPAUtagDRAWITEMSTRUCT@@@Z:PROC ; CListBox::DrawItem
EXTRN	?MeasureItem@CListBox@@UAEXPAUtagMEASUREITEMSTRUCT@@@Z:PROC ; CListBox::MeasureItem
EXTRN	?CompareItem@CListBox@@UAEHPAUtagCOMPAREITEMSTRUCT@@@Z:PROC ; CListBox::CompareItem
EXTRN	?DeleteItem@CListBox@@UAEXPAUtagDELETEITEMSTRUCT@@@Z:PROC ; CListBox::DeleteItem
EXTRN	?VKeyToItem@CListBox@@UAEHII@Z:PROC		; CListBox::VKeyToItem
EXTRN	?CharToItem@CListBox@@UAEHII@Z:PROC		; CListBox::CharToItem
EXTRN	??1CListBox@@UAE@XZ:PROC			; CListBox::~CListBox
EXTRN	?OnChildNotify@CListBox@@MAEHIIJPAJ@Z:PROC	; CListBox::OnChildNotify
EXTRN	??_ECListBox@@UAEPAXI@Z:PROC			; CListBox::`vector deleting destructor'
EXTRN	?GetRuntimeClass@CComboBox@@UBEPAUCRuntimeClass@@XZ:PROC ; CComboBox::GetRuntimeClass
EXTRN	?Create@CComboBox@@UAEHKABUtagRECT@@PAVCWnd@@I@Z:PROC ; CComboBox::Create
EXTRN	?DrawItem@CComboBox@@UAEXPAUtagDRAWITEMSTRUCT@@@Z:PROC ; CComboBox::DrawItem
EXTRN	?MeasureItem@CComboBox@@UAEXPAUtagMEASUREITEMSTRUCT@@@Z:PROC ; CComboBox::MeasureItem
EXTRN	?CompareItem@CComboBox@@UAEHPAUtagCOMPAREITEMSTRUCT@@@Z:PROC ; CComboBox::CompareItem
EXTRN	?DeleteItem@CComboBox@@UAEXPAUtagDELETEITEMSTRUCT@@@Z:PROC ; CComboBox::DeleteItem
EXTRN	??1CComboBox@@UAE@XZ:PROC			; CComboBox::~CComboBox
EXTRN	?OnChildNotify@CComboBox@@MAEHIIJPAJ@Z:PROC	; CComboBox::OnChildNotify
EXTRN	??_ECComboBox@@UAEPAXI@Z:PROC			; CComboBox::`vector deleting destructor'
EXTRN	?GetRuntimeClass@CEdit@@UBEPAUCRuntimeClass@@XZ:PROC ; CEdit::GetRuntimeClass
EXTRN	??1CEdit@@UAE@XZ:PROC				; CEdit::~CEdit
EXTRN	??_ECEdit@@UAEPAXI@Z:PROC			; CEdit::`vector deleting destructor'
EXTRN	?AfxMessageBox@@YGHPBDII@Z:PROC			; AfxMessageBox
EXTRN	?GetItemText@CListCtrl@@QBE?AV?$CStringT@DV?$StrTraitMFC_DLL@DV?$ChTraitsCRT@D@ATL@@@@@ATL@@HH@Z:PROC ; CListCtrl::GetItemText
EXTRN	?GetItemText@CTreeCtrl@@QBE?AV?$CStringT@DV?$StrTraitMFC_DLL@DV?$ChTraitsCRT@D@ATL@@@@@ATL@@PAU_TREEITEM@@@Z:PROC ; CTreeCtrl::GetItemText
EXTRN	?GetItemData@CTreeCtrl@@QBEKPAU_TREEITEM@@@Z:PROC ; CTreeCtrl::GetItemData
EXTRN	?SetItem@CTreeCtrl@@QAEHPAU_TREEITEM@@IPBDHHIIJ@Z:PROC ; CTreeCtrl::SetItem
EXTRN	?ItemHasChildren@CTreeCtrl@@QBEHPAU_TREEITEM@@@Z:PROC ; CTreeCtrl::ItemHasChildren
EXTRN	?InsertItem@CTreeCtrl@@QAEPAU_TREEITEM@@IPBDHHIIJPAU2@1@Z:PROC ; CTreeCtrl::InsertItem
EXTRN	?Create@CRscDlg@@UAEHIPAVCWnd@@@Z:PROC		; CRscDlg::Create
EXTRN	?DoModal@CRscDlg@@UAEHXZ:PROC			; CRscDlg::DoModal
EXTRN	??0CILButton@@QAE@XZ:PROC			; CILButton::CILButton
EXTRN	?FP_vSetImage@CILButton@@QAEXPAVCImageList@@HHHV?$CStringT@DV?$StrTraitMFC_DLL@DV?$ChTraitsCRT@D@ATL@@@@@ATL@@HHH@Z:PROC ; CILButton::FP_vSetImage
EXTRN	??1CILButton@@UAE@XZ:PROC			; CILButton::~CILButton
EXTRN	??0CTabDlg@@QAE@IPAVCWnd@@@Z:PROC		; CTabDlg::CTabDlg
EXTRN	??1CTabDlg@@UAE@XZ:PROC				; CTabDlg::~CTabDlg
EXTRN	?PreTranslateMessage@CTabDlg@@UAEHPAUtagMSG@@@Z:PROC ; CTabDlg::PreTranslateMessage
EXTRN	?DoDataExchange@CTabDlg@@MAEXPAVCDataExchange@@@Z:PROC ; CTabDlg::DoDataExchange
EXTRN	?RecalcLayoutCtrl@CTabDlg@@IAEXAAVCWnd@@H@Z:PROC ; CTabDlg::RecalcLayoutCtrl
EXTRN	?OnInitDialog@CTabDlg@@MAEHXZ:PROC		; CTabDlg::OnInitDialog
EXTRN	?OnDestroy@CTabDlg@@IAEXXZ:PROC			; CTabDlg::OnDestroy
EXTRN	?GetThisMessageMap@CTabDlg@@KGPBUAFX_MSGMAP@@XZ:PROC ; CTabDlg::GetThisMessageMap
EXTRN	??0CXListCtrl@@QAE@XZ:PROC			; CXListCtrl::CXListCtrl
EXTRN	??1CXListCtrl@@UAE@XZ:PROC			; CXListCtrl::~CXListCtrl
EXTRN	?DeleteItem@CXListCtrl@@QAEHH@Z:PROC		; CXListCtrl::DeleteItem
EXTRN	?GetCheckbox@CXListCtrl@@QAEHHH@Z:PROC		; CXListCtrl::GetCheckbox
EXTRN	?InsertItem@CXListCtrl@@QAEHHPBD@Z:PROC		; CXListCtrl::InsertItem
EXTRN	?SetCheckbox@CXListCtrl@@QAEHHHHH@Z:PROC	; CXListCtrl::SetCheckbox
EXTRN	?SetCurSel@CXListCtrl@@QAEHHH@Z:PROC		; CXListCtrl::SetCurSel
EXTRN	??0CySplitterWnd@@QAE@XZ:PROC			; CySplitterWnd::CySplitterWnd
EXTRN	?BindWithControl@CySplitterWnd@@QAE_NPAVCWnd@@K@Z:PROC ; CySplitterWnd::BindWithControl
EXTRN	?SetMinHeight@CySplitterWnd@@QAEXHH@Z:PROC	; CySplitterWnd::SetMinHeight
EXTRN	?AttachAsAboveCtrl@CySplitterWnd@@QAE_NH_N@Z:PROC ; CySplitterWnd::AttachAsAboveCtrl
EXTRN	?AttachAsBelowCtrl@CySplitterWnd@@QAE_NH_N@Z:PROC ; CySplitterWnd::AttachAsBelowCtrl
EXTRN	?RecalcLayout@CySplitterWnd@@QAEXXZ:PROC	; CySplitterWnd::RecalcLayout
EXTRN	??1CySplitterWnd@@UAE@XZ:PROC			; CySplitterWnd::~CySplitterWnd
EXTRN	??0CGfxOutBarCtrl@@QAE@XZ:PROC			; CGfxOutBarCtrl::CGfxOutBarCtrl
EXTRN	?AddFolderBar@CGfxOutBarCtrl@@QAEHPBDPAVCWnd@@K@Z:PROC ; CGfxOutBarCtrl::AddFolderBar
EXTRN	?SetSelFolder@CGfxOutBarCtrl@@QAEXH@Z:PROC	; CGfxOutBarCtrl::SetSelFolder
EXTRN	?Create@CGfxOutBarCtrl@@QAEHKABUtagRECT@@PAVCWnd@@IK@Z:PROC ; CGfxOutBarCtrl::Create
EXTRN	??1CGfxOutBarCtrl@@UAE@XZ:PROC			; CGfxOutBarCtrl::~CGfxOutBarCtrl
EXTRN	?SetFolderImageList@CGfxOutBarCtrl@@QAEXPAVCImageList@@HHH@Z:PROC ; CGfxOutBarCtrl::SetFolderImageList
EXTRN	??0CTrTreeCtrl@@QAE@XZ:PROC			; CTrTreeCtrl::CTrTreeCtrl
EXTRN	??1CTrTreeCtrl@@UAE@XZ:PROC			; CTrTreeCtrl::~CTrTreeCtrl
EXTRN	?Create@CTrTreeCtrl@@QAEHKABUtagRECT@@PAVCWnd@@I@Z:PROC ; CTrTreeCtrl::Create
EXTRN	??0CExStatic@@QAE@H@Z:PROC			; CExStatic::CExStatic
EXTRN	?SetStaticColor@CExStatic@@QAEHKKK@Z:PROC	; CExStatic::SetStaticColor
EXTRN	??1CExStatic@@UAE@XZ:PROC			; CExStatic::~CExStatic
EXTRN	??_E?$CList@PAVCTrTreeCtrl@@PAV1@@@UAEPAXI@Z:PROC ; CList<CTrTreeCtrl *,CTrTreeCtrl *>::`vector deleting destructor'
EXTRN	??_ECTabIndices@@UAEPAXI@Z:PROC			; CTabIndices::`vector deleting destructor'
EXTRN	?GetIndicatorNameListIntoTreeCtrl@CLeftBarDlg@@QAEXAAVCTreeCtrl@@@Z:PROC ; CLeftBarDlg::GetIndicatorNameListIntoTreeCtrl
EXTRN	?GetUserPath@CLeftBarDlg@@QAE?AV?$CStringT@DV?$StrTraitMFC_DLL@DV?$ChTraitsCRT@D@ATL@@@@@ATL@@XZ:PROC ; CLeftBarDlg::GetUserPath
EXTRN	??0CFavoriteThingsMng@@QAE@XZ:PROC		; CFavoriteThingsMng::CFavoriteThingsMng
EXTRN	??1CFavoriteThingsMng@@UAE@XZ:PROC		; CFavoriteThingsMng::~CFavoriteThingsMng
EXTRN	?SetPath@CFavoriteThingsMng@@QAEXV?$CStringT@DV?$StrTraitMFC_DLL@DV?$ChTraitsCRT@D@ATL@@@@@ATL@@@Z:PROC ; CFavoriteThingsMng::SetPath
EXTRN	?SaveItemInfo@CFavoriteThingsMng@@QAEHPAUstFvrData@@PBD@Z:PROC ; CFavoriteThingsMng::SaveItemInfo
EXTRN	?DeleteItemInfo@CFavoriteThingsMng@@QAEHPBD0@Z:PROC ; CFavoriteThingsMng::DeleteItemInfo
EXTRN	?LoadItemInfo@CFavoriteThingsMng@@QAEHPBD@Z:PROC ; CFavoriteThingsMng::LoadItemInfo
EXTRN	@__security_check_cookie@4:PROC
EXTRN	___CxxFrameHandler3:PROC
EXTRN	_memcpy:PROC
EXTRN	_memset:PROC
EXTRN	??_7type_info@@6B@:QWORD			; type_info::`vftable'
EXTRN	___security_cookie:DWORD
_BSS	SEGMENT
?RMSG_DRAGSTART@@3IB DD 01H DUP (?)			; RMSG_DRAGSTART
?RMSG_DRAGEND@@3IB DD 01H DUP (?)			; RMSG_DRAGEND
?RMSG_GETSIGNAL_REAL@@3IB DD 01H DUP (?)		; RMSG_GETSIGNAL_REAL
?RMSG_SETQUERYOPT@@3IB DD 01H DUP (?)			; RMSG_SETQUERYOPT
?RMSG_CHARTMAIN@@3IB DD 01H DUP (?)			; RMSG_CHARTMAIN
?RMS_ANALYSIS_FUNC@@3IB DD 01H DUP (?)			; RMS_ANALYSIS_FUNC
?RMSG_GET_USERID@@3IB DD 01H DUP (?)			; RMSG_GET_USERID
?RMSG_CHANGE_SKINCOLOR@@3IB DD 01H DUP (?)		; RMSG_CHANGE_SKINCOLOR
?RMSG_GET_SKINCOLOR@@3IB DD 01H DUP (?)			; RMSG_GET_SKINCOLOR
?RMSG_CHANGEVERTSCALETYPE@@3IB DD 01H DUP (?)		; RMSG_CHANGEVERTSCALETYPE
?RMSG_CHANGE_CROSSLINE@@3IB DD 01H DUP (?)		; RMSG_CHANGE_CROSSLINE
?RMSG_ADD_PLATFORM_MENU@@3IB DD 01H DUP (?)		; RMSG_ADD_PLATFORM_MENU
?RMSG_SETINITIALCHARTDATA@@3IB DD 01H DUP (?)		; RMSG_SETINITIALCHARTDATA
?RMSG_GETINFO@@3IB DD 01H DUP (?)			; RMSG_GETINFO
?RMSG_SETINFO@@3IB DD 01H DUP (?)			; RMSG_SETINFO
?RMSG_REPLAY_REAL@@3IB DD 01H DUP (?)			; RMSG_REPLAY_REAL
?RMSG_REPLAY_FAIL@@3IB DD 01H DUP (?)			; RMSG_REPLAY_FAIL
?RMSG_REPLAY_CHANGE_DATE@@3IB DD 01H DUP (?)		; RMSG_REPLAY_CHANGE_DATE
?RMSG_REPLAY_END@@3IB DD 01H DUP (?)			; RMSG_REPLAY_END
?RMSG_REPLAY_INC_SEC@@3IB DD 01H DUP (?)		; RMSG_REPLAY_INC_SEC
?RMSG_REPLAY_TOTAL_SEC@@3IB DD 01H DUP (?)		; RMSG_REPLAY_TOTAL_SEC
?RMSG_WMSIZE@@3IB DD 01H DUP (?)			; RMSG_WMSIZE
_BSS	ENDS
;	COMDAT CRT$XCU
CRT$XCU	SEGMENT
?_AtlWinModule$initializer$@ATL@@3P6AXXZA DD FLAT:??__E_AtlWinModule@ATL@@YAXXZ ; ATL::_AtlWinModule$initializer$
CRT$XCU	ENDS
;	COMDAT __xmm@00000064000000640000000000000000
CONST	SEGMENT
__xmm@00000064000000640000000000000000 DB 00H, 00H, 00H, 00H, 00H, 00H, 00H
	DB	00H, 'd', 00H, 00H, 00H, 'd', 00H, 00H, 00H
CONST	ENDS
;	COMDAT ??_R1A@?0A@EA@?$CList@PAVCTrTreeCtrl@@PAV1@@@8
rdata$r	SEGMENT
??_R1A@?0A@EA@?$CList@PAVCTrTreeCtrl@@PAV1@@@8 DD FLAT:??_R0?AV?$CList@PAVCTrTreeCtrl@@PAV1@@@@8 ; CList<CTrTreeCtrl *,CTrTreeCtrl *>::`RTTI Base Class Descriptor at (0,-1,0,64)'
	DD	01H
	DD	00H
	DD	0ffffffffH
	DD	00H
	DD	040H
	DD	FLAT:??_R3?$CList@PAVCTrTreeCtrl@@PAV1@@@8
rdata$r	ENDS
;	COMDAT ??_R2?$CList@PAVCTrTreeCtrl@@PAV1@@@8
rdata$r	SEGMENT
??_R2?$CList@PAVCTrTreeCtrl@@PAV1@@@8 DD FLAT:??_R1A@?0A@EA@?$CList@PAVCTrTreeCtrl@@PAV1@@@8 ; CList<CTrTreeCtrl *,CTrTreeCtrl *>::`RTTI Base Class Array'
	DD	FLAT:??_R1A@?0A@EA@CObject@@8
rdata$r	ENDS
;	COMDAT ??_R3?$CList@PAVCTrTreeCtrl@@PAV1@@@8
rdata$r	SEGMENT
??_R3?$CList@PAVCTrTreeCtrl@@PAV1@@@8 DD 00H		; CList<CTrTreeCtrl *,CTrTreeCtrl *>::`RTTI Class Hierarchy Descriptor'
	DD	00H
	DD	02H
	DD	FLAT:??_R2?$CList@PAVCTrTreeCtrl@@PAV1@@@8
rdata$r	ENDS
;	COMDAT ??_R0?AV?$CList@PAVCTrTreeCtrl@@PAV1@@@@8
data$rs	SEGMENT
??_R0?AV?$CList@PAVCTrTreeCtrl@@PAV1@@@@8 DD FLAT:??_7type_info@@6B@ ; CList<CTrTreeCtrl *,CTrTreeCtrl *> `RTTI Type Descriptor'
	DD	00H
	DB	'.?AV?$CList@PAVCTrTreeCtrl@@PAV1@@@', 00H
data$rs	ENDS
;	COMDAT ??_R4?$CList@PAVCTrTreeCtrl@@PAV1@@@6B@
rdata$r	SEGMENT
??_R4?$CList@PAVCTrTreeCtrl@@PAV1@@@6B@ DD 00H		; CList<CTrTreeCtrl *,CTrTreeCtrl *>::`RTTI Complete Object Locator'
	DD	00H
	DD	00H
	DD	FLAT:??_R0?AV?$CList@PAVCTrTreeCtrl@@PAV1@@@@8
	DD	FLAT:??_R3?$CList@PAVCTrTreeCtrl@@PAV1@@@8
rdata$r	ENDS
;	COMDAT ??_R2CRscDlg@@8
rdata$r	SEGMENT
??_R2CRscDlg@@8 DD FLAT:??_R1A@?0A@EA@CRscDlg@@8	; CRscDlg::`RTTI Base Class Array'
	DD	FLAT:??_R1A@?0A@EA@CDialog@@8
	DD	FLAT:??_R1A@?0A@EA@CWnd@@8
	DD	FLAT:??_R1A@?0A@EA@CCmdTarget@@8
	DD	FLAT:??_R1A@?0A@EA@CObject@@8
rdata$r	ENDS
;	COMDAT ??_R3CRscDlg@@8
rdata$r	SEGMENT
??_R3CRscDlg@@8 DD 00H					; CRscDlg::`RTTI Class Hierarchy Descriptor'
	DD	00H
	DD	05H
	DD	FLAT:??_R2CRscDlg@@8
rdata$r	ENDS
;	COMDAT ??_R0?AVCRscDlg@@@8
data$rs	SEGMENT
??_R0?AVCRscDlg@@@8 DD FLAT:??_7type_info@@6B@		; CRscDlg `RTTI Type Descriptor'
	DD	00H
	DB	'.?AVCRscDlg@@', 00H
data$rs	ENDS
;	COMDAT ??_R1A@?0A@EA@CRscDlg@@8
rdata$r	SEGMENT
??_R1A@?0A@EA@CRscDlg@@8 DD FLAT:??_R0?AVCRscDlg@@@8	; CRscDlg::`RTTI Base Class Descriptor at (0,-1,0,64)'
	DD	04H
	DD	00H
	DD	0ffffffffH
	DD	00H
	DD	040H
	DD	FLAT:??_R3CRscDlg@@8
rdata$r	ENDS
;	COMDAT ??_R2CTabDlg@@8
rdata$r	SEGMENT
??_R2CTabDlg@@8 DD FLAT:??_R1A@?0A@EA@CTabDlg@@8	; CTabDlg::`RTTI Base Class Array'
	DD	FLAT:??_R1A@?0A@EA@CRscDlg@@8
	DD	FLAT:??_R1A@?0A@EA@CDialog@@8
	DD	FLAT:??_R1A@?0A@EA@CWnd@@8
	DD	FLAT:??_R1A@?0A@EA@CCmdTarget@@8
	DD	FLAT:??_R1A@?0A@EA@CObject@@8
rdata$r	ENDS
;	COMDAT ??_R3CTabDlg@@8
rdata$r	SEGMENT
??_R3CTabDlg@@8 DD 00H					; CTabDlg::`RTTI Class Hierarchy Descriptor'
	DD	00H
	DD	06H
	DD	FLAT:??_R2CTabDlg@@8
rdata$r	ENDS
;	COMDAT ??_R0?AVCTabDlg@@@8
data$rs	SEGMENT
??_R0?AVCTabDlg@@@8 DD FLAT:??_7type_info@@6B@		; CTabDlg `RTTI Type Descriptor'
	DD	00H
	DB	'.?AVCTabDlg@@', 00H
data$rs	ENDS
;	COMDAT ??_R1A@?0A@EA@CTabDlg@@8
rdata$r	SEGMENT
??_R1A@?0A@EA@CTabDlg@@8 DD FLAT:??_R0?AVCTabDlg@@@8	; CTabDlg::`RTTI Base Class Descriptor at (0,-1,0,64)'
	DD	05H
	DD	00H
	DD	0ffffffffH
	DD	00H
	DD	040H
	DD	FLAT:??_R3CTabDlg@@8
rdata$r	ENDS
;	COMDAT ??_R1A@?0A@EA@CTabIndices@@8
rdata$r	SEGMENT
??_R1A@?0A@EA@CTabIndices@@8 DD FLAT:??_R0?AVCTabIndices@@@8 ; CTabIndices::`RTTI Base Class Descriptor at (0,-1,0,64)'
	DD	06H
	DD	00H
	DD	0ffffffffH
	DD	00H
	DD	040H
	DD	FLAT:??_R3CTabIndices@@8
rdata$r	ENDS
;	COMDAT ??_R2CTabIndices@@8
rdata$r	SEGMENT
??_R2CTabIndices@@8 DD FLAT:??_R1A@?0A@EA@CTabIndices@@8 ; CTabIndices::`RTTI Base Class Array'
	DD	FLAT:??_R1A@?0A@EA@CTabDlg@@8
	DD	FLAT:??_R1A@?0A@EA@CRscDlg@@8
	DD	FLAT:??_R1A@?0A@EA@CDialog@@8
	DD	FLAT:??_R1A@?0A@EA@CWnd@@8
	DD	FLAT:??_R1A@?0A@EA@CCmdTarget@@8
	DD	FLAT:??_R1A@?0A@EA@CObject@@8
rdata$r	ENDS
;	COMDAT ??_R3CTabIndices@@8
rdata$r	SEGMENT
??_R3CTabIndices@@8 DD 00H				; CTabIndices::`RTTI Class Hierarchy Descriptor'
	DD	00H
	DD	07H
	DD	FLAT:??_R2CTabIndices@@8
rdata$r	ENDS
;	COMDAT ??_R0?AVCTabIndices@@@8
data$rs	SEGMENT
??_R0?AVCTabIndices@@@8 DD FLAT:??_7type_info@@6B@	; CTabIndices `RTTI Type Descriptor'
	DD	00H
	DB	'.?AVCTabIndices@@', 00H
data$rs	ENDS
;	COMDAT ??_R4CTabIndices@@6B@
rdata$r	SEGMENT
??_R4CTabIndices@@6B@ DD 00H				; CTabIndices::`RTTI Complete Object Locator'
	DD	00H
	DD	00H
	DD	FLAT:??_R0?AVCTabIndices@@@8
	DD	FLAT:??_R3CTabIndices@@8
rdata$r	ENDS
;	COMDAT ??_C@_05NAOMKNKP@?$CFd?3?$CFs@
CONST	SEGMENT
??_C@_05NAOMKNKP@?$CFd?3?$CFs@ DB '%d:%s', 00H		; `string'
CONST	ENDS
;	COMDAT ??_C@_04CFDBLPCI@?$LL?h?A?$KG@
CONST	SEGMENT
??_C@_04CFDBLPCI@?$LL?h?A?$KG@ DB 0bbH, 0e8H, 0c1H, 0a6H, 00H ; `string'
CONST	ENDS
;	COMDAT ??_C@_04FLCJJKJJ@?$LF?n?$LH?O@
CONST	SEGMENT
??_C@_04FLCJJKJJ@?$LF?n?$LH?O@ DB 0b5H, 0eeH, 0b7H, 0cfH, 00H ; `string'
CONST	ENDS
;	COMDAT ??_C@_0O@KCIMPLBF@?A?q?$LA?$NM?C?$KD?$LB?b?5?C?$NP?$LA?$KB@
CONST	SEGMENT
??_C@_0O@KCIMPLBF@?A?q?$LA?$NM?C?$KD?$LB?b?5?C?$NP?$LA?$KB@ DB 0c1H, 0f1H
	DB	0b0H, 0dcH, 0c3H, 0a3H, 0b1H, 0e2H, ' ', 0c3H, 0dfH, 0b0H, 0a1H
	DB	00H						; `string'
CONST	ENDS
;	COMDAT ??_C@_0O@BMKAAEKD@?A?q?$LA?$NM?C?$KD?$LB?b?5?$LL?h?A?$KG@
CONST	SEGMENT
??_C@_0O@BMKAAEKD@?A?q?$LA?$NM?C?$KD?$LB?b?5?$LL?h?A?$KG@ DB 0c1H, 0f1H, 0b0H
	DB	0dcH, 0c3H, 0a3H, 0b1H, 0e2H, ' ', 0bbH, 0e8H, 0c1H, 0a6H, 00H ; `string'
CONST	ENDS
;	COMDAT ??_C@_0BO@HKOHILGA@?$LL?h?A?$KG?G?R?5?G?W?$LI?q?$MA?$LL?5?$LM?$LB?E?C?G?X?5?A?V?$LN?J?$LN?C?$LP?$MA@
CONST	SEGMENT
??_C@_0BO@HKOHILGA@?$LL?h?A?$KG?G?R?5?G?W?$LI?q?$MA?$LL?5?$LM?$LB?E?C?G?X?5?A?V?$LN?J?$LN?C?$LP?$MA@ DB 0bbH
	DB	0e8H, 0c1H, 0a6H, 0c7H, 0d2H, ' ', 0c7H, 0d7H, 0b8H, 0f1H, 0c0H
	DB	0bbH, ' ', 0bcH, 0b1H, 0c5H, 0c3H, 0c7H, 0d8H, ' ', 0c1H, 0d6H
	DB	0bdH, 0caH, 0bdH, 0c3H, 0bfH, 0c0H, 00H	; `string'
CONST	ENDS
;	COMDAT ??_C@_0BF@KMELNNPL@?G?O?$LD?$KK?$LI?$KG?5?$LM?$LB?E?C?G?O?$LN?J?$LN?C?$LP?$MA?4@
CONST	SEGMENT
??_C@_0BF@KMELNNPL@?G?O?$LD?$KK?$LI?$KG?5?$LM?$LB?E?C?G?O?$LN?J?$LN?C?$LP?$MA?4@ DB 0c7H
	DB	0cfH, 0b3H, 0aaH, 0b8H, 0a6H, ' ', 0bcH, 0b1H, 0c5H, 0c3H, 0c7H
	DB	0cfH, 0bdH, 0caH, 0bdH, 0c3H, 0bfH, 0c0H, '.', 00H ; `string'
CONST	ENDS
;	COMDAT ??_C@_02PBFOLPKM@?$FN?5@
CONST	SEGMENT
??_C@_02PBFOLPKM@?$FN?5@ DB '] ', 00H			; `string'
CONST	ENDS
;	COMDAT ??_C@_04JDFEIJL@?A?v?G?$KF@
CONST	SEGMENT
??_C@_04JDFEIJL@?A?v?G?$KF@ DB 0c1H, 0f6H, 0c7H, 0a5H, 00H ; `string'
CONST	ENDS
;	COMDAT ??_C@_0BI@OIIBGPHF@?$CFs?5?$LI?$KG?5?$LL?h?A?$KG?G?O?$LN?C?$LA?Z?$LN?$MA?$LE?O?$LB?n?$DP@
CONST	SEGMENT
??_C@_0BI@OIIBGPHF@?$CFs?5?$LI?$KG?5?$LL?h?A?$KG?G?O?$LN?C?$LA?Z?$LN?$MA?$LE?O?$LB?n?$DP@ DB '%'
	DB	's ', 0b8H, 0a6H, ' ', 0bbH, 0e8H, 0c1H, 0a6H, 0c7H, 0cfH, 0bdH
	DB	0c3H, 0b0H, 0daH, 0bdH, 0c0H, 0b4H, 0cfH, 0b1H, 0eeH, '?', 00H ; `string'
CONST	ENDS
;	COMDAT ??_C@_0CN@OPAEAOJB@?$LA?$PM?$LN?I?A?v?G?$KF?5?A?$NP?5?$LL?h?A?$KG?G?R?5?A?v?G?$KF?$LI?$KG?5?G?O?$LD?$KK?5@
CONST	SEGMENT
??_C@_0CN@OPAEAOJB@?$LA?$PM?$LN?I?A?v?G?$KF?5?A?$NP?5?$LL?h?A?$KG?G?R?5?A?v?G?$KF?$LI?$KG?5?G?O?$LD?$KK?5@ DB 0b0H
	DB	0fcH, 0bdH, 0c9H, 0c1H, 0f6H, 0c7H, 0a5H, ' ', 0c1H, 0dfH, ' ', 0bbH
	DB	0e8H, 0c1H, 0a6H, 0c7H, 0d2H, ' ', 0c1H, 0f6H, 0c7H, 0a5H, 0b8H
	DB	0a6H, ' ', 0c7H, 0cfH, 0b3H, 0aaH, ' ', 0bcH, 0b1H, 0c5H, 0c3H
	DB	0c7H, 0cfH, 0bdH, 0caH, 0bdH, 0c3H, 0bfH, 0c0H, '.', 00H ; `string'
CONST	ENDS
;	COMDAT ??_C@_08BDLNPKGG@?A?$LO?G?U?B?w?F?$KO@
CONST	SEGMENT
??_C@_08BDLNPKGG@?A?$LO?G?U?B?w?F?$KO@ DB 0c1H, 0beH, 0c7H, 0d5H, 0c2H, 0f7H
	DB	0c6H, 0aeH, 00H				; `string'
CONST	ENDS
;	COMDAT ??_C@_04BEBPOGNC@?B?w?F?$KO@
CONST	SEGMENT
??_C@_04BEBPOGNC@?B?w?F?$KO@ DB 0c2H, 0f7H, 0c6H, 0aeH, 00H ; `string'
CONST	ENDS
;	COMDAT ??_C@_02PPKAJPJL@?$CG?$CG@
CONST	SEGMENT
??_C@_02PPKAJPJL@?$CG?$CG@ DB '&&', 00H			; `string'
CONST	ENDS
;	COMDAT ??_C@_09IBPFDGDO@JipyoFile@
CONST	SEGMENT
??_C@_09IBPFDGDO@JipyoFile@ DB 'JipyoFile', 00H		; `string'
CONST	ENDS
;	COMDAT ??_C@_0BD@OCOIJGGE@?$CFs?2outbar_icon?4bmp@
CONST	SEGMENT
??_C@_0BD@OCOIJGGE@?$CFs?2outbar_icon?4bmp@ DB '%s\outbar_icon.bmp', 00H ; `string'
CONST	ENDS
;	COMDAT ??_C@_0O@DADNAINN@?$CFs?2folder?4bmp@
CONST	SEGMENT
??_C@_0O@DADNAINN@?$CFs?2folder?4bmp@ DB '%s\folder.bmp', 00H ; `string'
CONST	ENDS
;	COMDAT ??_C@_0O@GIEOAGCM@IndexSelected@
CONST	SEGMENT
??_C@_0O@GIEOAGCM@IndexSelected@ DB 'IndexSelected', 00H ; `string'
CONST	ENDS
;	COMDAT ??_C@_0L@JJCOOLME@TabIndices@
CONST	SEGMENT
??_C@_0L@JJCOOLME@TabIndices@ DB 'TabIndices', 00H	; `string'
CONST	ENDS
;	COMDAT ??_C@_0BA@MHHHNIIB@HeightOfIndices@
CONST	SEGMENT
??_C@_0BA@MHHHNIIB@HeightOfIndices@ DB 'HeightOfIndices', 00H ; `string'
CONST	ENDS
;	COMDAT ??_C@_02PFIAKEDG@80@
CONST	SEGMENT
??_C@_02PFIAKEDG@80@ DB '80', 00H			; `string'
CONST	ENDS
;	COMDAT ??_C@_04MAJFIGJK@15?C?J@
CONST	SEGMENT
??_C@_04MAJFIGJK@15?C?J@ DB '15', 0c3H, 0caH, 00H	; `string'
CONST	ENDS
;	COMDAT ??_C@_03LLLCDPKN@5?C?J@
CONST	SEGMENT
??_C@_03LLLCDPKN@5?C?J@ DB '5', 0c3H, 0caH, 00H		; `string'
CONST	ENDS
;	COMDAT ??_C@_03JONJGAHB@3?C?J@
CONST	SEGMENT
??_C@_03JONJGAHB@3?C?J@ DB '3', 0c3H, 0caH, 00H		; `string'
CONST	ENDS
;	COMDAT ??_C@_04FABLJDN@Name@
CONST	SEGMENT
??_C@_04FABLJDN@Name@ DB 'Name', 00H			; `string'
CONST	ENDS
;	COMDAT ?messageMap@?1??GetThisMessageMap@CTabIndices@@KGPBUAFX_MSGMAP@@XZ@4U3@B
CONST	SEGMENT
?messageMap@?1??GetThisMessageMap@CTabIndices@@KGPBUAFX_MSGMAP@@XZ@4U3@B DD FLAT:?GetThisMessageMap@CTabDlg@@KGPBUAFX_MSGMAP@@XZ ; `CTabIndices::GetThisMessageMap'::`2'::messageMap
	DD	FLAT:?_messageEntries@?1??GetThisMessageMap@CTabIndices@@KGPBUAFX_MSGMAP@@XZ@4QBUAFX_MSGMAP_ENTRY@@B
CONST	ENDS
;	COMDAT ?_messageEntries@?1??GetThisMessageMap@CTabIndices@@KGPBUAFX_MSGMAP@@XZ@4QBUAFX_MSGMAP_ENTRY@@B
CONST	SEGMENT
?_messageEntries@?1??GetThisMessageMap@CTabIndices@@KGPBUAFX_MSGMAP@@XZ@4QBUAFX_MSGMAP_ENTRY@@B DD 05H ; `CTabIndices::GetThisMessageMap'::`2'::_messageEntries
	DD	00H
	DD	00H
	DD	00H
	DD	01aH
	DD	FLAT:?OnSize@CTabIndices@@IAEXIHH@Z
	DD	0111H
	DD	00H
	DD	01778H
	DD	01778H
	DD	03aH
	DD	FLAT:?OnBtapply@CTabIndices@@IAEXXZ
	DD	0111H
	DD	00H
	DD	01776H
	DD	01776H
	DD	03aH
	DD	FLAT:?OnBtsearch@CTabIndices@@IAEXXZ
	DD	04eH
	DD	0fffdH
	DD	01786H
	DD	01786H
	DD	03eH
	DD	FLAT:?OnDblclkTreeitems@CTabIndices@@IAEXPAUtagNMHDR@@PAJ@Z
	DD	02H
	DD	00H
	DD	00H
	DD	00H
	DD	013H
	DD	FLAT:?OnDestroy@CTabIndices@@IAEXXZ
	DD	04eH
	DD	0fe69H
	DD	01786H
	DD	01786H
	DD	03eH
	DD	FLAT:?OnBegindragTreeitems@CTabIndices@@IAEXPAUtagNMHDR@@PAJ@Z
	DD	0200H
	DD	00H
	DD	00H
	DD	00H
	DD	036H
	DD	FLAT:?OnMouseMove@CTabIndices@@IAEXIVCPoint@@@Z
	DD	0202H
	DD	00H
	DD	00H
	DD	00H
	DD	036H
	DD	FLAT:?OnLButtonUp@CTabIndices@@IAEXIVCPoint@@@Z
	DD	04eH
	DD	0ff93H
	DD	0177cH
	DD	0177cH
	DD	03eH
	DD	FLAT:?OnBegindragListitems@CTabIndices@@IAEXPAUtagNMHDR@@PAJ@Z
	DD	04eH
	DD	0fffdH
	DD	0177cH
	DD	0177cH
	DD	03eH
	DD	FLAT:?OnDblclkListitems@CTabIndices@@IAEXPAUtagNMHDR@@PAJ@Z
	DD	0111H
	DD	00H
	DD	01851H
	DD	01851H
	DD	03aH
	DD	FLAT:?OnBtnShowRepeat@CTabIndices@@IAEXXZ
	DD	0111H
	DD	00H
	DD	0184bH
	DD	0184bH
	DD	03aH
	DD	FLAT:?OnBtnNext@CTabIndices@@IAEXXZ
	DD	0111H
	DD	00H
	DD	01855H
	DD	01855H
	DD	03aH
	DD	FLAT:?OnBtnPrev@CTabIndices@@IAEXXZ
	DD	0111H
	DD	00H
	DD	01856H
	DD	01856H
	DD	03aH
	DD	FLAT:?OnBtnStop@CTabIndices@@IAEXXZ
	DD	0111H
	DD	01H
	DD	0178eH
	DD	0178eH
	DD	03aH
	DD	FLAT:?OnSelchangeCmbTime@CTabIndices@@IAEXXZ
	DD	0111H
	DD	00H
	DD	01854H
	DD	01854H
	DD	03aH
	DD	FLAT:?OnRadioAuto@CTabIndices@@IAEXXZ
	DD	0111H
	DD	00H
	DD	01853H
	DD	01853H
	DD	03aH
	DD	FLAT:?OnRadioManual@CTabIndices@@IAEXXZ
	DD	0111H
	DD	00H
	DD	01852H
	DD	01852H
	DD	03aH
	DD	FLAT:?OnBtnAdditem@CTabIndices@@IAEXXZ
	DD	0111H
	DD	00H
	DD	0184aH
	DD	0184aH
	DD	03aH
	DD	FLAT:?OnBtnDelitem@CTabIndices@@IAEXXZ
	DD	0111H
	DD	00H
	DD	017b6H
	DD	017b6H
	DD	03aH
	DD	FLAT:?OnBnClickedBtnFind@CTabIndices@@IAEXXZ
	DD	0111H
	DD	00H
	DD	0187aH
	DD	0187aH
	DD	03aH
	DD	FLAT:?OnBnClickedBtnExtend@CTabIndices@@IAEXXZ
	DD	0111H
	DD	01H
	DD	0187cH
	DD	0187cH
	DD	03aH
	DD	FLAT:?OnLbnSelchangeListFind@CTabIndices@@IAEXXZ
	DD	0111H
	DD	0300H
	DD	0178cH
	DD	0178cH
	DD	03aH
	DD	FLAT:?OnChangeEditFind@CTabIndices@@IAEXXZ
	DD	0113H
	DD	00H
	DD	00H
	DD	00H
	DD	015H
	DD	FLAT:?OnTimer@CTabIndices@@IAEXI@Z
	DD	08H
	DD	00H
	DD	00H
	DD	00H
	DD	024H
	DD	FLAT:?OnKillFocus@CTabIndices@@IAEXPAVCWnd@@@Z
	DD	07e8H
	DD	00H
	DD	00H
	DD	00H
	DD	0eH
	DD	FLAT:?OnWmSplitterMoved@CTabIndices@@AAEJIJ@Z
	DD	0111H
	DD	00H
	DD	064H
	DD	0c8H
	DD	03cH
	DD	FLAT:?OnSendMenu@CTabIndices@@IAEXI@Z
	DD	0c000H
	DD	00H
	DD	00H
	DD	00H
	DD	FLAT:?RMSG_WMSIZE@@3IB
	DD	FLAT:?OnRmsgWMSize@CTabIndices@@IAEJIJ@Z
	DD	00H
	DD	00H
	DD	00H
	DD	00H
	DD	00H
	DD	00H
CONST	ENDS
;	COMDAT ??_C@_01JLIPDDHJ@?3@
CONST	SEGMENT
??_C@_01JLIPDDHJ@?3@ DB ':', 00H			; `string'
CONST	ENDS
;	COMDAT ??_7CTabIndices@@6B@
CONST	SEGMENT
??_7CTabIndices@@6B@ DD FLAT:??_R4CTabIndices@@6B@	; CTabIndices::`vftable'
	DD	FLAT:?GetRuntimeClass@CDialog@@UBEPAUCRuntimeClass@@XZ
	DD	FLAT:??_ECTabIndices@@UAEPAXI@Z
	DD	FLAT:?Serialize@CObject@@UAEXAAVCArchive@@@Z
	DD	FLAT:?AssertValid@CObject@@UBEXXZ
	DD	FLAT:?Dump@CObject@@UBEXAAVCDumpContext@@@Z
	DD	FLAT:?OnCmdMsg@CDialog@@UAEHIHPAXPAUAFX_CMDHANDLERINFO@@@Z
	DD	FLAT:?OnFinalRelease@CWnd@@UAEXXZ
	DD	FLAT:?IsInvokeAllowed@CCmdTarget@@UAEHJ@Z
	DD	FLAT:?GetDispatchIID@CCmdTarget@@UAEHPAU_GUID@@@Z
	DD	FLAT:?GetTypeInfoCount@CCmdTarget@@UAEIXZ
	DD	FLAT:?GetTypeLibCache@CCmdTarget@@UAEPAVCTypeLibCache@@XZ
	DD	FLAT:?GetTypeLib@CCmdTarget@@UAEJKPAPAUITypeLib@@@Z
	DD	FLAT:?GetMessageMap@CTabIndices@@MBEPBUAFX_MSGMAP@@XZ
	DD	FLAT:?GetCommandMap@CCmdTarget@@MBEPBUAFX_OLECMDMAP@@XZ
	DD	FLAT:?GetDispatchMap@CCmdTarget@@MBEPBUAFX_DISPMAP@@XZ
	DD	FLAT:?GetConnectionMap@CCmdTarget@@MBEPBUAFX_CONNECTIONMAP@@XZ
	DD	FLAT:?GetInterfaceMap@CWnd@@MBEPBUAFX_INTERFACEMAP@@XZ
	DD	FLAT:?GetEventSinkMap@CCmdTarget@@MBEPBUAFX_EVENTSINKMAP@@XZ
	DD	FLAT:?OnCreateAggregates@CCmdTarget@@UAEHXZ
	DD	FLAT:?GetInterfaceHook@CCmdTarget@@UAEPAUIUnknown@@PBX@Z
	DD	FLAT:?GetExtraConnectionPoints@CCmdTarget@@MAEHPAVCPtrArray@@@Z
	DD	FLAT:?GetConnectionHook@CCmdTarget@@MAEPAUIConnectionPoint@@ABU_GUID@@@Z
	DD	FLAT:?PreSubclassWindow@CWnd@@UAEXXZ
	DD	FLAT:?Create@CWnd@@UAEHPBD0KABUtagRECT@@PAV1@IPAUCCreateContext@@@Z
	DD	FLAT:?CreateEx@CWnd@@UAEHKPBD0KABUtagRECT@@PAV1@IPAX@Z
	DD	FLAT:?CreateEx@CWnd@@UAEHKPBD0KHHHHPAUHWND__@@PAUHMENU__@@PAX@Z
	DD	FLAT:?DestroyWindow@CWnd@@UAEHXZ
	DD	FLAT:?PreCreateWindow@CWnd@@UAEHAAUtagCREATESTRUCTA@@@Z
	DD	FLAT:?CalcWindowRect@CWnd@@UAEXPAUtagRECT@@I@Z
	DD	FLAT:?GetMenu@CWnd@@UBEPAVCMenu@@XZ
	DD	FLAT:?SetMenu@CWnd@@UAEHPAVCMenu@@@Z
	DD	FLAT:?OnToolHitTest@CWnd@@UBEHVCPoint@@PAUtagTOOLINFOA@@@Z
	DD	FLAT:?GetScrollBarCtrl@CWnd@@UBEPAVCScrollBar@@H@Z
	DD	FLAT:?WinHelpA@CWnd@@UAEXKI@Z
	DD	FLAT:?HtmlHelpA@CWnd@@UAEXKI@Z
	DD	FLAT:?WinHelpInternal@CWnd@@UAEXKI@Z
	DD	FLAT:?ContinueModal@CWnd@@UAEHXZ
	DD	FLAT:?EndModalLoop@CWnd@@UAEXH@Z
	DD	FLAT:?OnDrawIconicThumbnailOrLivePreview@CWnd@@UAEXAAVCDC@@VCRect@@VCSize@@HAAH@Z
	DD	FLAT:?EnsureStdObj@CWnd@@UAEJXZ
	DD	FLAT:?get_accParent@CWnd@@UAEJPAPAUIDispatch@@@Z
	DD	FLAT:?get_accChildCount@CWnd@@UAEJPAJ@Z
	DD	FLAT:?get_accChild@CWnd@@UAEJUtagVARIANT@@PAPAUIDispatch@@@Z
	DD	FLAT:?get_accName@CWnd@@UAEJUtagVARIANT@@PAPA_W@Z
	DD	FLAT:?get_accValue@CWnd@@UAEJUtagVARIANT@@PAPA_W@Z
	DD	FLAT:?get_accDescription@CWnd@@UAEJUtagVARIANT@@PAPA_W@Z
	DD	FLAT:?get_accRole@CWnd@@UAEJUtagVARIANT@@PAU2@@Z
	DD	FLAT:?get_accState@CWnd@@UAEJUtagVARIANT@@PAU2@@Z
	DD	FLAT:?get_accHelp@CWnd@@UAEJUtagVARIANT@@PAPA_W@Z
	DD	FLAT:?get_accHelpTopic@CWnd@@UAEJPAPA_WUtagVARIANT@@PAJ@Z
	DD	FLAT:?get_accKeyboardShortcut@CWnd@@UAEJUtagVARIANT@@PAPA_W@Z
	DD	FLAT:?get_accFocus@CWnd@@UAEJPAUtagVARIANT@@@Z
	DD	FLAT:?get_accSelection@CWnd@@UAEJPAUtagVARIANT@@@Z
	DD	FLAT:?get_accDefaultAction@CWnd@@UAEJUtagVARIANT@@PAPA_W@Z
	DD	FLAT:?accSelect@CWnd@@UAEJJUtagVARIANT@@@Z
	DD	FLAT:?accLocation@CWnd@@UAEJPAJ000UtagVARIANT@@@Z
	DD	FLAT:?accNavigate@CWnd@@UAEJJUtagVARIANT@@PAU2@@Z
	DD	FLAT:?accHitTest@CWnd@@UAEJJJPAUtagVARIANT@@@Z
	DD	FLAT:?accDoDefaultAction@CWnd@@UAEJUtagVARIANT@@@Z
	DD	FLAT:?put_accName@CWnd@@UAEJUtagVARIANT@@PA_W@Z
	DD	FLAT:?put_accValue@CWnd@@UAEJUtagVARIANT@@PA_W@Z
	DD	FLAT:?SetProxy@CWnd@@UAEJPAUIAccessibleProxy@@@Z
	DD	FLAT:?CreateAccessibleProxy@CWnd@@UAEJIJPAJ@Z
	DD	FLAT:?OnCommand@CWnd@@MAEHIJ@Z
	DD	FLAT:?OnNotify@CWnd@@MAEHIJPAJ@Z
	DD	FLAT:?GetSuperWndProcAddr@CWnd@@MAEPAP6GJPAUHWND__@@IIJ@ZXZ
	DD	FLAT:?DoDataExchange@CTabIndices@@MAEXPAVCDataExchange@@@Z
	DD	FLAT:?BeginModalState@CWnd@@UAEXXZ
	DD	FLAT:?EndModalState@CWnd@@UAEXXZ
	DD	FLAT:?PreTranslateMessage@CTabIndices@@MAEHPAUtagMSG@@@Z
	DD	FLAT:?OnAmbientProperty@CWnd@@UAEHPAVCOleControlSite@@JPAUtagVARIANT@@@Z
	DD	FLAT:?WindowProc@CTabIndices@@MAEJIIJ@Z
	DD	FLAT:?OnWndMsg@CWnd@@MAEHIIJPAJ@Z
	DD	FLAT:?DefWindowProcA@CWnd@@MAEJIIJ@Z
	DD	FLAT:?PostNcDestroy@CWnd@@MAEXXZ
	DD	FLAT:?OnChildNotify@CWnd@@MAEHIIJPAJ@Z
	DD	FLAT:?OnTouchInputs@CWnd@@MAEHIPAUtagTOUCHINPUT@@@Z
	DD	FLAT:?OnTouchInput@CWnd@@MAEHVCPoint@@HHPAUtagTOUCHINPUT@@@Z
	DD	FLAT:?GetGestureStatus@CWnd@@MAEKVCPoint@@@Z
	DD	FLAT:?OnGestureZoom@CWnd@@MAEHVCPoint@@J@Z
	DD	FLAT:?OnGesturePan@CWnd@@MAEHVCPoint@@0@Z
	DD	FLAT:?OnGestureRotate@CWnd@@MAEHVCPoint@@N@Z
	DD	FLAT:?OnGestureTwoFingerTap@CWnd@@MAEHVCPoint@@@Z
	DD	FLAT:?OnGesturePressAndTap@CWnd@@MAEHVCPoint@@J@Z
	DD	FLAT:?ResizeDynamicLayout@CWnd@@MAEXXZ
	DD	FLAT:?CheckAutoCenter@CDialog@@UAEHXZ
	DD	FLAT:?IsFrameWnd@CWnd@@UBEHXZ
	DD	FLAT:?CreateControlContainer@CWnd@@MAEHPAPAVCOleControlContainer@@@Z
	DD	FLAT:?CreateControlSite@CWnd@@MAEHPAVCOleControlContainer@@PAPAVCOleControlSite@@IABU_GUID@@@Z
	DD	FLAT:?SetOccDialogInfo@CDialog@@MAEHPAU_AFX_OCC_DIALOG_INFO@@@Z
	DD	FLAT:?GetOccDialogInfo@CDialog@@MAEPAU_AFX_OCC_DIALOG_INFO@@XZ
	DD	FLAT:?Create@CRscDlg@@UAEHIPAVCWnd@@@Z
	DD	FLAT:?Create@CDialog@@UAEHPBDPAVCWnd@@@Z
	DD	FLAT:?CreateIndirect@CDialog@@UAEHPAXPAVCWnd@@@Z
	DD	FLAT:?CreateIndirect@CDialog@@UAEHPBUDLGTEMPLATE@@PAVCWnd@@PAX@Z
	DD	FLAT:?DoModal@CRscDlg@@UAEHXZ
	DD	FLAT:?OnInitDialog@CTabIndices@@MAEHXZ
	DD	FLAT:?OnSetFont@CDialog@@UAEXPAVCFont@@@Z
	DD	FLAT:?OnOK@CDialog@@MAEXXZ
	DD	FLAT:?OnCancel@CDialog@@MAEXXZ
	DD	FLAT:?PreInitDialog@CDialog@@MAEXXZ
	DD	FLAT:?ReceiveData@CTabDlg@@UAEXPAUHWND__@@PBD11PAXJ@Z
	DD	FLAT:?SetRealPriceData@CTabDlg@@UAEXPAX@Z
	DD	FLAT:?ReceiveDataFromOutSide@CTabDlg@@UAEXXZ
	DD	FLAT:?ChangeSkinColor@CTabIndices@@UAEXK@Z
	DD	FLAT:?GetRectOfCtrl@CTabIndices@@EAE?AVCRect@@HH@Z
CONST	ENDS
;	COMDAT ??_7?$CList@PAVCTrTreeCtrl@@PAV1@@@6B@
CONST	SEGMENT
??_7?$CList@PAVCTrTreeCtrl@@PAV1@@@6B@ DD FLAT:??_R4?$CList@PAVCTrTreeCtrl@@PAV1@@@6B@ ; CList<CTrTreeCtrl *,CTrTreeCtrl *>::`vftable'
	DD	FLAT:?GetRuntimeClass@CObject@@UBEPAUCRuntimeClass@@XZ
	DD	FLAT:??_E?$CList@PAVCTrTreeCtrl@@PAV1@@@UAEPAXI@Z
	DD	FLAT:?Serialize@?$CList@PAVCTrTreeCtrl@@PAV1@@@UAEXAAVCArchive@@@Z
	DD	FLAT:?AssertValid@CObject@@UBEXXZ
	DD	FLAT:?Dump@CObject@@UBEXAAVCDumpContext@@@Z
CONST	ENDS
;	COMDAT ??_R2CDialog@@8
rdata$r	SEGMENT
??_R2CDialog@@8 DD FLAT:??_R1A@?0A@EA@CDialog@@8	; CDialog::`RTTI Base Class Array'
	DD	FLAT:??_R1A@?0A@EA@CWnd@@8
	DD	FLAT:??_R1A@?0A@EA@CCmdTarget@@8
	DD	FLAT:??_R1A@?0A@EA@CObject@@8
rdata$r	ENDS
;	COMDAT ??_R3CDialog@@8
rdata$r	SEGMENT
??_R3CDialog@@8 DD 00H					; CDialog::`RTTI Class Hierarchy Descriptor'
	DD	00H
	DD	04H
	DD	FLAT:??_R2CDialog@@8
rdata$r	ENDS
;	COMDAT ??_R0?AVCDialog@@@8
data$rs	SEGMENT
??_R0?AVCDialog@@@8 DD FLAT:??_7type_info@@6B@		; CDialog `RTTI Type Descriptor'
	DD	00H
	DB	'.?AVCDialog@@', 00H
data$rs	ENDS
;	COMDAT ??_R1A@?0A@EA@CDialog@@8
rdata$r	SEGMENT
??_R1A@?0A@EA@CDialog@@8 DD FLAT:??_R0?AVCDialog@@@8	; CDialog::`RTTI Base Class Descriptor at (0,-1,0,64)'
	DD	03H
	DD	00H
	DD	0ffffffffH
	DD	00H
	DD	040H
	DD	FLAT:??_R3CDialog@@8
rdata$r	ENDS
;	COMDAT ??_R1A@?0A@EA@CEdit@@8
rdata$r	SEGMENT
??_R1A@?0A@EA@CEdit@@8 DD FLAT:??_R0?AVCEdit@@@8	; CEdit::`RTTI Base Class Descriptor at (0,-1,0,64)'
	DD	03H
	DD	00H
	DD	0ffffffffH
	DD	00H
	DD	040H
	DD	FLAT:??_R3CEdit@@8
rdata$r	ENDS
;	COMDAT ??_R2CEdit@@8
rdata$r	SEGMENT
??_R2CEdit@@8 DD FLAT:??_R1A@?0A@EA@CEdit@@8		; CEdit::`RTTI Base Class Array'
	DD	FLAT:??_R1A@?0A@EA@CWnd@@8
	DD	FLAT:??_R1A@?0A@EA@CCmdTarget@@8
	DD	FLAT:??_R1A@?0A@EA@CObject@@8
rdata$r	ENDS
;	COMDAT ??_R3CEdit@@8
rdata$r	SEGMENT
??_R3CEdit@@8 DD 00H					; CEdit::`RTTI Class Hierarchy Descriptor'
	DD	00H
	DD	04H
	DD	FLAT:??_R2CEdit@@8
rdata$r	ENDS
;	COMDAT ??_R0?AVCEdit@@@8
data$rs	SEGMENT
??_R0?AVCEdit@@@8 DD FLAT:??_7type_info@@6B@		; CEdit `RTTI Type Descriptor'
	DD	00H
	DB	'.?AVCEdit@@', 00H
data$rs	ENDS
;	COMDAT ??_R4CEdit@@6B@
rdata$r	SEGMENT
??_R4CEdit@@6B@ DD 00H					; CEdit::`RTTI Complete Object Locator'
	DD	00H
	DD	00H
	DD	FLAT:??_R0?AVCEdit@@@8
	DD	FLAT:??_R3CEdit@@8
rdata$r	ENDS
;	COMDAT ??_R1A@?0A@EA@CComboBox@@8
rdata$r	SEGMENT
??_R1A@?0A@EA@CComboBox@@8 DD FLAT:??_R0?AVCComboBox@@@8 ; CComboBox::`RTTI Base Class Descriptor at (0,-1,0,64)'
	DD	03H
	DD	00H
	DD	0ffffffffH
	DD	00H
	DD	040H
	DD	FLAT:??_R3CComboBox@@8
rdata$r	ENDS
;	COMDAT ??_R2CComboBox@@8
rdata$r	SEGMENT
??_R2CComboBox@@8 DD FLAT:??_R1A@?0A@EA@CComboBox@@8	; CComboBox::`RTTI Base Class Array'
	DD	FLAT:??_R1A@?0A@EA@CWnd@@8
	DD	FLAT:??_R1A@?0A@EA@CCmdTarget@@8
	DD	FLAT:??_R1A@?0A@EA@CObject@@8
rdata$r	ENDS
;	COMDAT ??_R3CComboBox@@8
rdata$r	SEGMENT
??_R3CComboBox@@8 DD 00H				; CComboBox::`RTTI Class Hierarchy Descriptor'
	DD	00H
	DD	04H
	DD	FLAT:??_R2CComboBox@@8
rdata$r	ENDS
;	COMDAT ??_R0?AVCComboBox@@@8
data$rs	SEGMENT
??_R0?AVCComboBox@@@8 DD FLAT:??_7type_info@@6B@	; CComboBox `RTTI Type Descriptor'
	DD	00H
	DB	'.?AVCComboBox@@', 00H
data$rs	ENDS
;	COMDAT ??_R4CComboBox@@6B@
rdata$r	SEGMENT
??_R4CComboBox@@6B@ DD 00H				; CComboBox::`RTTI Complete Object Locator'
	DD	00H
	DD	00H
	DD	FLAT:??_R0?AVCComboBox@@@8
	DD	FLAT:??_R3CComboBox@@8
rdata$r	ENDS
;	COMDAT ??_R1A@?0A@EA@CListBox@@8
rdata$r	SEGMENT
??_R1A@?0A@EA@CListBox@@8 DD FLAT:??_R0?AVCListBox@@@8	; CListBox::`RTTI Base Class Descriptor at (0,-1,0,64)'
	DD	03H
	DD	00H
	DD	0ffffffffH
	DD	00H
	DD	040H
	DD	FLAT:??_R3CListBox@@8
rdata$r	ENDS
;	COMDAT ??_R2CListBox@@8
rdata$r	SEGMENT
??_R2CListBox@@8 DD FLAT:??_R1A@?0A@EA@CListBox@@8	; CListBox::`RTTI Base Class Array'
	DD	FLAT:??_R1A@?0A@EA@CWnd@@8
	DD	FLAT:??_R1A@?0A@EA@CCmdTarget@@8
	DD	FLAT:??_R1A@?0A@EA@CObject@@8
rdata$r	ENDS
;	COMDAT ??_R3CListBox@@8
rdata$r	SEGMENT
??_R3CListBox@@8 DD 00H					; CListBox::`RTTI Class Hierarchy Descriptor'
	DD	00H
	DD	04H
	DD	FLAT:??_R2CListBox@@8
rdata$r	ENDS
;	COMDAT ??_R0?AVCListBox@@@8
data$rs	SEGMENT
??_R0?AVCListBox@@@8 DD FLAT:??_7type_info@@6B@		; CListBox `RTTI Type Descriptor'
	DD	00H
	DB	'.?AVCListBox@@', 00H
data$rs	ENDS
;	COMDAT ??_R4CListBox@@6B@
rdata$r	SEGMENT
??_R4CListBox@@6B@ DD 00H				; CListBox::`RTTI Complete Object Locator'
	DD	00H
	DD	00H
	DD	FLAT:??_R0?AVCListBox@@@8
	DD	FLAT:??_R3CListBox@@8
rdata$r	ENDS
;	COMDAT ??_R1A@?0A@EA@CButton@@8
rdata$r	SEGMENT
??_R1A@?0A@EA@CButton@@8 DD FLAT:??_R0?AVCButton@@@8	; CButton::`RTTI Base Class Descriptor at (0,-1,0,64)'
	DD	03H
	DD	00H
	DD	0ffffffffH
	DD	00H
	DD	040H
	DD	FLAT:??_R3CButton@@8
rdata$r	ENDS
;	COMDAT ??_R2CButton@@8
rdata$r	SEGMENT
??_R2CButton@@8 DD FLAT:??_R1A@?0A@EA@CButton@@8	; CButton::`RTTI Base Class Array'
	DD	FLAT:??_R1A@?0A@EA@CWnd@@8
	DD	FLAT:??_R1A@?0A@EA@CCmdTarget@@8
	DD	FLAT:??_R1A@?0A@EA@CObject@@8
rdata$r	ENDS
;	COMDAT ??_R3CButton@@8
rdata$r	SEGMENT
??_R3CButton@@8 DD 00H					; CButton::`RTTI Class Hierarchy Descriptor'
	DD	00H
	DD	04H
	DD	FLAT:??_R2CButton@@8
rdata$r	ENDS
;	COMDAT ??_R0?AVCButton@@@8
data$rs	SEGMENT
??_R0?AVCButton@@@8 DD FLAT:??_7type_info@@6B@		; CButton `RTTI Type Descriptor'
	DD	00H
	DB	'.?AVCButton@@', 00H
data$rs	ENDS
;	COMDAT ??_R4CButton@@6B@
rdata$r	SEGMENT
??_R4CButton@@6B@ DD 00H				; CButton::`RTTI Complete Object Locator'
	DD	00H
	DD	00H
	DD	FLAT:??_R0?AVCButton@@@8
	DD	FLAT:??_R3CButton@@8
rdata$r	ENDS
;	COMDAT ??_R2CCmdTarget@@8
rdata$r	SEGMENT
??_R2CCmdTarget@@8 DD FLAT:??_R1A@?0A@EA@CCmdTarget@@8	; CCmdTarget::`RTTI Base Class Array'
	DD	FLAT:??_R1A@?0A@EA@CObject@@8
rdata$r	ENDS
;	COMDAT ??_R3CCmdTarget@@8
rdata$r	SEGMENT
??_R3CCmdTarget@@8 DD 00H				; CCmdTarget::`RTTI Class Hierarchy Descriptor'
	DD	00H
	DD	02H
	DD	FLAT:??_R2CCmdTarget@@8
rdata$r	ENDS
;	COMDAT ??_R0?AVCCmdTarget@@@8
data$rs	SEGMENT
??_R0?AVCCmdTarget@@@8 DD FLAT:??_7type_info@@6B@	; CCmdTarget `RTTI Type Descriptor'
	DD	00H
	DB	'.?AVCCmdTarget@@', 00H
data$rs	ENDS
;	COMDAT ??_R1A@?0A@EA@CCmdTarget@@8
rdata$r	SEGMENT
??_R1A@?0A@EA@CCmdTarget@@8 DD FLAT:??_R0?AVCCmdTarget@@@8 ; CCmdTarget::`RTTI Base Class Descriptor at (0,-1,0,64)'
	DD	01H
	DD	00H
	DD	0ffffffffH
	DD	00H
	DD	040H
	DD	FLAT:??_R3CCmdTarget@@8
rdata$r	ENDS
;	COMDAT ??_R2CWnd@@8
rdata$r	SEGMENT
??_R2CWnd@@8 DD	FLAT:??_R1A@?0A@EA@CWnd@@8		; CWnd::`RTTI Base Class Array'
	DD	FLAT:??_R1A@?0A@EA@CCmdTarget@@8
	DD	FLAT:??_R1A@?0A@EA@CObject@@8
rdata$r	ENDS
;	COMDAT ??_R3CWnd@@8
rdata$r	SEGMENT
??_R3CWnd@@8 DD	00H					; CWnd::`RTTI Class Hierarchy Descriptor'
	DD	00H
	DD	03H
	DD	FLAT:??_R2CWnd@@8
rdata$r	ENDS
;	COMDAT ??_R0?AVCWnd@@@8
data$rs	SEGMENT
??_R0?AVCWnd@@@8 DD FLAT:??_7type_info@@6B@		; CWnd `RTTI Type Descriptor'
	DD	00H
	DB	'.?AVCWnd@@', 00H
data$rs	ENDS
;	COMDAT ??_R1A@?0A@EA@CWnd@@8
rdata$r	SEGMENT
??_R1A@?0A@EA@CWnd@@8 DD FLAT:??_R0?AVCWnd@@@8		; CWnd::`RTTI Base Class Descriptor at (0,-1,0,64)'
	DD	02H
	DD	00H
	DD	0ffffffffH
	DD	00H
	DD	040H
	DD	FLAT:??_R3CWnd@@8
rdata$r	ENDS
;	COMDAT ??_R1A@?0A@EA@CMenu@@8
rdata$r	SEGMENT
??_R1A@?0A@EA@CMenu@@8 DD FLAT:??_R0?AVCMenu@@@8	; CMenu::`RTTI Base Class Descriptor at (0,-1,0,64)'
	DD	01H
	DD	00H
	DD	0ffffffffH
	DD	00H
	DD	040H
	DD	FLAT:??_R3CMenu@@8
rdata$r	ENDS
;	COMDAT ??_R2CMenu@@8
rdata$r	SEGMENT
??_R2CMenu@@8 DD FLAT:??_R1A@?0A@EA@CMenu@@8		; CMenu::`RTTI Base Class Array'
	DD	FLAT:??_R1A@?0A@EA@CObject@@8
rdata$r	ENDS
;	COMDAT ??_R3CMenu@@8
rdata$r	SEGMENT
??_R3CMenu@@8 DD 00H					; CMenu::`RTTI Class Hierarchy Descriptor'
	DD	00H
	DD	02H
	DD	FLAT:??_R2CMenu@@8
rdata$r	ENDS
;	COMDAT ??_R0?AVCMenu@@@8
data$rs	SEGMENT
??_R0?AVCMenu@@@8 DD FLAT:??_7type_info@@6B@		; CMenu `RTTI Type Descriptor'
	DD	00H
	DB	'.?AVCMenu@@', 00H
data$rs	ENDS
;	COMDAT ??_R4CMenu@@6B@
rdata$r	SEGMENT
??_R4CMenu@@6B@ DD 00H					; CMenu::`RTTI Complete Object Locator'
	DD	00H
	DD	00H
	DD	FLAT:??_R0?AVCMenu@@@8
	DD	FLAT:??_R3CMenu@@8
rdata$r	ENDS
;	COMDAT ??_R1A@?0A@EA@CBitmap@@8
rdata$r	SEGMENT
??_R1A@?0A@EA@CBitmap@@8 DD FLAT:??_R0?AVCBitmap@@@8	; CBitmap::`RTTI Base Class Descriptor at (0,-1,0,64)'
	DD	02H
	DD	00H
	DD	0ffffffffH
	DD	00H
	DD	040H
	DD	FLAT:??_R3CBitmap@@8
rdata$r	ENDS
;	COMDAT ??_R2CBitmap@@8
rdata$r	SEGMENT
??_R2CBitmap@@8 DD FLAT:??_R1A@?0A@EA@CBitmap@@8	; CBitmap::`RTTI Base Class Array'
	DD	FLAT:??_R1A@?0A@EA@CGdiObject@@8
	DD	FLAT:??_R1A@?0A@EA@CObject@@8
rdata$r	ENDS
;	COMDAT ??_R3CBitmap@@8
rdata$r	SEGMENT
??_R3CBitmap@@8 DD 00H					; CBitmap::`RTTI Class Hierarchy Descriptor'
	DD	00H
	DD	03H
	DD	FLAT:??_R2CBitmap@@8
rdata$r	ENDS
;	COMDAT ??_R0?AVCBitmap@@@8
data$rs	SEGMENT
??_R0?AVCBitmap@@@8 DD FLAT:??_7type_info@@6B@		; CBitmap `RTTI Type Descriptor'
	DD	00H
	DB	'.?AVCBitmap@@', 00H
data$rs	ENDS
;	COMDAT ??_R4CBitmap@@6B@
rdata$r	SEGMENT
??_R4CBitmap@@6B@ DD 00H				; CBitmap::`RTTI Complete Object Locator'
	DD	00H
	DD	00H
	DD	FLAT:??_R0?AVCBitmap@@@8
	DD	FLAT:??_R3CBitmap@@8
rdata$r	ENDS
;	COMDAT ??_R1A@?0A@EA@CGdiObject@@8
rdata$r	SEGMENT
??_R1A@?0A@EA@CGdiObject@@8 DD FLAT:??_R0?AVCGdiObject@@@8 ; CGdiObject::`RTTI Base Class Descriptor at (0,-1,0,64)'
	DD	01H
	DD	00H
	DD	0ffffffffH
	DD	00H
	DD	040H
	DD	FLAT:??_R3CGdiObject@@8
rdata$r	ENDS
;	COMDAT ??_R2CGdiObject@@8
rdata$r	SEGMENT
??_R2CGdiObject@@8 DD FLAT:??_R1A@?0A@EA@CGdiObject@@8	; CGdiObject::`RTTI Base Class Array'
	DD	FLAT:??_R1A@?0A@EA@CObject@@8
rdata$r	ENDS
;	COMDAT ??_R3CGdiObject@@8
rdata$r	SEGMENT
??_R3CGdiObject@@8 DD 00H				; CGdiObject::`RTTI Class Hierarchy Descriptor'
	DD	00H
	DD	02H
	DD	FLAT:??_R2CGdiObject@@8
rdata$r	ENDS
;	COMDAT ??_R0?AVCGdiObject@@@8
data$rs	SEGMENT
??_R0?AVCGdiObject@@@8 DD FLAT:??_7type_info@@6B@	; CGdiObject `RTTI Type Descriptor'
	DD	00H
	DB	'.?AVCGdiObject@@', 00H
data$rs	ENDS
;	COMDAT ??_R4CGdiObject@@6B@
rdata$r	SEGMENT
??_R4CGdiObject@@6B@ DD 00H				; CGdiObject::`RTTI Complete Object Locator'
	DD	00H
	DD	00H
	DD	FLAT:??_R0?AVCGdiObject@@@8
	DD	FLAT:??_R3CGdiObject@@8
rdata$r	ENDS
;	COMDAT ??_R1A@?0A@EA@CObject@@8
rdata$r	SEGMENT
??_R1A@?0A@EA@CObject@@8 DD FLAT:??_R0?AVCObject@@@8	; CObject::`RTTI Base Class Descriptor at (0,-1,0,64)'
	DD	00H
	DD	00H
	DD	0ffffffffH
	DD	00H
	DD	040H
	DD	FLAT:??_R3CObject@@8
rdata$r	ENDS
;	COMDAT ??_R2CObject@@8
rdata$r	SEGMENT
??_R2CObject@@8 DD FLAT:??_R1A@?0A@EA@CObject@@8	; CObject::`RTTI Base Class Array'
rdata$r	ENDS
;	COMDAT ??_R3CObject@@8
rdata$r	SEGMENT
??_R3CObject@@8 DD 00H					; CObject::`RTTI Class Hierarchy Descriptor'
	DD	00H
	DD	01H
	DD	FLAT:??_R2CObject@@8
rdata$r	ENDS
;	COMDAT ??_R0?AVCObject@@@8
data$rs	SEGMENT
??_R0?AVCObject@@@8 DD FLAT:??_7type_info@@6B@		; CObject `RTTI Type Descriptor'
	DD	00H
	DB	'.?AVCObject@@', 00H
data$rs	ENDS
;	COMDAT ??_C@_01GBGANLPD@0@
CONST	SEGMENT
??_C@_01GBGANLPD@0@ DB '0', 00H				; `string'
CONST	ENDS
;	COMDAT ??_C@_0N@OMEMOKLE@?$CFTs?5?$CI?$CFTs?3?$CFd?$CJ@
CONST	SEGMENT
??_C@_0N@OMEMOKLE@?$CFTs?5?$CI?$CFTs?3?$CFd?$CJ@ DB '%Ts (%Ts:%d)', 00H ; `string'
CONST	ENDS
;	COMDAT ??_C@_0BB@HBOOMJBF@?$CFTs?5?$CI?$CFTs?3?$CFd?$CJ?6?$CFTs@
CONST	SEGMENT
??_C@_0BB@HBOOMJBF@?$CFTs?5?$CI?$CFTs?3?$CFd?$CJ?6?$CFTs@ DB '%Ts (%Ts:%d'
	DB	')', 0aH, '%Ts', 00H				; `string'
CONST	ENDS
;	COMDAT ??_C@_0BP@OIEOKIDM@Exception?5thrown?5in?5destructor@
CONST	SEGMENT
??_C@_0BP@OIEOKIDM@Exception?5thrown?5in?5destructor@ DB 'Exception throw'
	DB	'n in destructor', 00H			; `string'
CONST	ENDS
;	COMDAT ??_C@_0HD@JJCHHHNK@C?3?2Program?5Files?5?$CIx86?$CJ?2Microsof@
CONST	SEGMENT
??_C@_0HD@JJCHHHNK@C?3?2Program?5Files?5?$CIx86?$CJ?2Microsof@ DB 'C:\Pro'
	DB	'gram Files (x86)\Microsoft Visual Studio\2019\Community\VC\To'
	DB	'ols\MSVC\14.29.30133\atlmfc\include\afxwin1.inl', 00H ; `string'
CONST	ENDS
;	COMDAT ??_7CEdit@@6B@
CONST	SEGMENT
??_7CEdit@@6B@ DD FLAT:??_R4CEdit@@6B@			; CEdit::`vftable'
	DD	FLAT:?GetRuntimeClass@CEdit@@UBEPAUCRuntimeClass@@XZ
	DD	FLAT:??_ECEdit@@UAEPAXI@Z
	DD	FLAT:?Serialize@CObject@@UAEXAAVCArchive@@@Z
	DD	FLAT:?AssertValid@CObject@@UBEXXZ
	DD	FLAT:?Dump@CObject@@UBEXAAVCDumpContext@@@Z
	DD	FLAT:?OnCmdMsg@CCmdTarget@@UAEHIHPAXPAUAFX_CMDHANDLERINFO@@@Z
	DD	FLAT:?OnFinalRelease@CWnd@@UAEXXZ
	DD	FLAT:?IsInvokeAllowed@CCmdTarget@@UAEHJ@Z
	DD	FLAT:?GetDispatchIID@CCmdTarget@@UAEHPAU_GUID@@@Z
	DD	FLAT:?GetTypeInfoCount@CCmdTarget@@UAEIXZ
	DD	FLAT:?GetTypeLibCache@CCmdTarget@@UAEPAVCTypeLibCache@@XZ
	DD	FLAT:?GetTypeLib@CCmdTarget@@UAEJKPAPAUITypeLib@@@Z
	DD	FLAT:?GetMessageMap@CWnd@@MBEPBUAFX_MSGMAP@@XZ
	DD	FLAT:?GetCommandMap@CCmdTarget@@MBEPBUAFX_OLECMDMAP@@XZ
	DD	FLAT:?GetDispatchMap@CCmdTarget@@MBEPBUAFX_DISPMAP@@XZ
	DD	FLAT:?GetConnectionMap@CCmdTarget@@MBEPBUAFX_CONNECTIONMAP@@XZ
	DD	FLAT:?GetInterfaceMap@CWnd@@MBEPBUAFX_INTERFACEMAP@@XZ
	DD	FLAT:?GetEventSinkMap@CCmdTarget@@MBEPBUAFX_EVENTSINKMAP@@XZ
	DD	FLAT:?OnCreateAggregates@CCmdTarget@@UAEHXZ
	DD	FLAT:?GetInterfaceHook@CCmdTarget@@UAEPAUIUnknown@@PBX@Z
	DD	FLAT:?GetExtraConnectionPoints@CCmdTarget@@MAEHPAVCPtrArray@@@Z
	DD	FLAT:?GetConnectionHook@CCmdTarget@@MAEPAUIConnectionPoint@@ABU_GUID@@@Z
	DD	FLAT:?PreSubclassWindow@CWnd@@UAEXXZ
	DD	FLAT:?Create@CWnd@@UAEHPBD0KABUtagRECT@@PAV1@IPAUCCreateContext@@@Z
	DD	FLAT:?CreateEx@CWnd@@UAEHKPBD0KABUtagRECT@@PAV1@IPAX@Z
	DD	FLAT:?CreateEx@CWnd@@UAEHKPBD0KHHHHPAUHWND__@@PAUHMENU__@@PAX@Z
	DD	FLAT:?DestroyWindow@CWnd@@UAEHXZ
	DD	FLAT:?PreCreateWindow@CWnd@@UAEHAAUtagCREATESTRUCTA@@@Z
	DD	FLAT:?CalcWindowRect@CWnd@@UAEXPAUtagRECT@@I@Z
	DD	FLAT:?GetMenu@CWnd@@UBEPAVCMenu@@XZ
	DD	FLAT:?SetMenu@CWnd@@UAEHPAVCMenu@@@Z
	DD	FLAT:?OnToolHitTest@CWnd@@UBEHVCPoint@@PAUtagTOOLINFOA@@@Z
	DD	FLAT:?GetScrollBarCtrl@CWnd@@UBEPAVCScrollBar@@H@Z
	DD	FLAT:?WinHelpA@CWnd@@UAEXKI@Z
	DD	FLAT:?HtmlHelpA@CWnd@@UAEXKI@Z
	DD	FLAT:?WinHelpInternal@CWnd@@UAEXKI@Z
	DD	FLAT:?ContinueModal@CWnd@@UAEHXZ
	DD	FLAT:?EndModalLoop@CWnd@@UAEXH@Z
	DD	FLAT:?OnDrawIconicThumbnailOrLivePreview@CWnd@@UAEXAAVCDC@@VCRect@@VCSize@@HAAH@Z
	DD	FLAT:?EnsureStdObj@CWnd@@UAEJXZ
	DD	FLAT:?get_accParent@CWnd@@UAEJPAPAUIDispatch@@@Z
	DD	FLAT:?get_accChildCount@CWnd@@UAEJPAJ@Z
	DD	FLAT:?get_accChild@CWnd@@UAEJUtagVARIANT@@PAPAUIDispatch@@@Z
	DD	FLAT:?get_accName@CWnd@@UAEJUtagVARIANT@@PAPA_W@Z
	DD	FLAT:?get_accValue@CWnd@@UAEJUtagVARIANT@@PAPA_W@Z
	DD	FLAT:?get_accDescription@CWnd@@UAEJUtagVARIANT@@PAPA_W@Z
	DD	FLAT:?get_accRole@CWnd@@UAEJUtagVARIANT@@PAU2@@Z
	DD	FLAT:?get_accState@CWnd@@UAEJUtagVARIANT@@PAU2@@Z
	DD	FLAT:?get_accHelp@CWnd@@UAEJUtagVARIANT@@PAPA_W@Z
	DD	FLAT:?get_accHelpTopic@CWnd@@UAEJPAPA_WUtagVARIANT@@PAJ@Z
	DD	FLAT:?get_accKeyboardShortcut@CWnd@@UAEJUtagVARIANT@@PAPA_W@Z
	DD	FLAT:?get_accFocus@CWnd@@UAEJPAUtagVARIANT@@@Z
	DD	FLAT:?get_accSelection@CWnd@@UAEJPAUtagVARIANT@@@Z
	DD	FLAT:?get_accDefaultAction@CWnd@@UAEJUtagVARIANT@@PAPA_W@Z
	DD	FLAT:?accSelect@CWnd@@UAEJJUtagVARIANT@@@Z
	DD	FLAT:?accLocation@CWnd@@UAEJPAJ000UtagVARIANT@@@Z
	DD	FLAT:?accNavigate@CWnd@@UAEJJUtagVARIANT@@PAU2@@Z
	DD	FLAT:?accHitTest@CWnd@@UAEJJJPAUtagVARIANT@@@Z
	DD	FLAT:?accDoDefaultAction@CWnd@@UAEJUtagVARIANT@@@Z
	DD	FLAT:?put_accName@CWnd@@UAEJUtagVARIANT@@PA_W@Z
	DD	FLAT:?put_accValue@CWnd@@UAEJUtagVARIANT@@PA_W@Z
	DD	FLAT:?SetProxy@CWnd@@UAEJPAUIAccessibleProxy@@@Z
	DD	FLAT:?CreateAccessibleProxy@CWnd@@UAEJIJPAJ@Z
	DD	FLAT:?OnCommand@CWnd@@MAEHIJ@Z
	DD	FLAT:?OnNotify@CWnd@@MAEHIJPAJ@Z
	DD	FLAT:?GetSuperWndProcAddr@CWnd@@MAEPAP6GJPAUHWND__@@IIJ@ZXZ
	DD	FLAT:?DoDataExchange@CWnd@@MAEXPAVCDataExchange@@@Z
	DD	FLAT:?BeginModalState@CWnd@@UAEXXZ
	DD	FLAT:?EndModalState@CWnd@@UAEXXZ
	DD	FLAT:?PreTranslateMessage@CWnd@@UAEHPAUtagMSG@@@Z
	DD	FLAT:?OnAmbientProperty@CWnd@@UAEHPAVCOleControlSite@@JPAUtagVARIANT@@@Z
	DD	FLAT:?WindowProc@CWnd@@MAEJIIJ@Z
	DD	FLAT:?OnWndMsg@CWnd@@MAEHIIJPAJ@Z
	DD	FLAT:?DefWindowProcA@CWnd@@MAEJIIJ@Z
	DD	FLAT:?PostNcDestroy@CWnd@@MAEXXZ
	DD	FLAT:?OnChildNotify@CWnd@@MAEHIIJPAJ@Z
	DD	FLAT:?OnTouchInputs@CWnd@@MAEHIPAUtagTOUCHINPUT@@@Z
	DD	FLAT:?OnTouchInput@CWnd@@MAEHVCPoint@@HHPAUtagTOUCHINPUT@@@Z
	DD	FLAT:?GetGestureStatus@CWnd@@MAEKVCPoint@@@Z
	DD	FLAT:?OnGestureZoom@CWnd@@MAEHVCPoint@@J@Z
	DD	FLAT:?OnGesturePan@CWnd@@MAEHVCPoint@@0@Z
	DD	FLAT:?OnGestureRotate@CWnd@@MAEHVCPoint@@N@Z
	DD	FLAT:?OnGestureTwoFingerTap@CWnd@@MAEHVCPoint@@@Z
	DD	FLAT:?OnGesturePressAndTap@CWnd@@MAEHVCPoint@@J@Z
	DD	FLAT:?ResizeDynamicLayout@CWnd@@MAEXXZ
	DD	FLAT:?CheckAutoCenter@CWnd@@UAEHXZ
	DD	FLAT:?IsFrameWnd@CWnd@@UBEHXZ
	DD	FLAT:?CreateControlContainer@CWnd@@MAEHPAPAVCOleControlContainer@@@Z
	DD	FLAT:?CreateControlSite@CWnd@@MAEHPAVCOleControlContainer@@PAPAVCOleControlSite@@IABU_GUID@@@Z
	DD	FLAT:?SetOccDialogInfo@CWnd@@MAEHPAU_AFX_OCC_DIALOG_INFO@@@Z
	DD	FLAT:?GetOccDialogInfo@CWnd@@MAEPAU_AFX_OCC_DIALOG_INFO@@XZ
CONST	ENDS
;	COMDAT ??_7CComboBox@@6B@
CONST	SEGMENT
??_7CComboBox@@6B@ DD FLAT:??_R4CComboBox@@6B@		; CComboBox::`vftable'
	DD	FLAT:?GetRuntimeClass@CComboBox@@UBEPAUCRuntimeClass@@XZ
	DD	FLAT:??_ECComboBox@@UAEPAXI@Z
	DD	FLAT:?Serialize@CObject@@UAEXAAVCArchive@@@Z
	DD	FLAT:?AssertValid@CObject@@UBEXXZ
	DD	FLAT:?Dump@CObject@@UBEXAAVCDumpContext@@@Z
	DD	FLAT:?OnCmdMsg@CCmdTarget@@UAEHIHPAXPAUAFX_CMDHANDLERINFO@@@Z
	DD	FLAT:?OnFinalRelease@CWnd@@UAEXXZ
	DD	FLAT:?IsInvokeAllowed@CCmdTarget@@UAEHJ@Z
	DD	FLAT:?GetDispatchIID@CCmdTarget@@UAEHPAU_GUID@@@Z
	DD	FLAT:?GetTypeInfoCount@CCmdTarget@@UAEIXZ
	DD	FLAT:?GetTypeLibCache@CCmdTarget@@UAEPAVCTypeLibCache@@XZ
	DD	FLAT:?GetTypeLib@CCmdTarget@@UAEJKPAPAUITypeLib@@@Z
	DD	FLAT:?GetMessageMap@CWnd@@MBEPBUAFX_MSGMAP@@XZ
	DD	FLAT:?GetCommandMap@CCmdTarget@@MBEPBUAFX_OLECMDMAP@@XZ
	DD	FLAT:?GetDispatchMap@CCmdTarget@@MBEPBUAFX_DISPMAP@@XZ
	DD	FLAT:?GetConnectionMap@CCmdTarget@@MBEPBUAFX_CONNECTIONMAP@@XZ
	DD	FLAT:?GetInterfaceMap@CWnd@@MBEPBUAFX_INTERFACEMAP@@XZ
	DD	FLAT:?GetEventSinkMap@CCmdTarget@@MBEPBUAFX_EVENTSINKMAP@@XZ
	DD	FLAT:?OnCreateAggregates@CCmdTarget@@UAEHXZ
	DD	FLAT:?GetInterfaceHook@CCmdTarget@@UAEPAUIUnknown@@PBX@Z
	DD	FLAT:?GetExtraConnectionPoints@CCmdTarget@@MAEHPAVCPtrArray@@@Z
	DD	FLAT:?GetConnectionHook@CCmdTarget@@MAEPAUIConnectionPoint@@ABU_GUID@@@Z
	DD	FLAT:?PreSubclassWindow@CWnd@@UAEXXZ
	DD	FLAT:?Create@CWnd@@UAEHPBD0KABUtagRECT@@PAV1@IPAUCCreateContext@@@Z
	DD	FLAT:?CreateEx@CWnd@@UAEHKPBD0KABUtagRECT@@PAV1@IPAX@Z
	DD	FLAT:?CreateEx@CWnd@@UAEHKPBD0KHHHHPAUHWND__@@PAUHMENU__@@PAX@Z
	DD	FLAT:?DestroyWindow@CWnd@@UAEHXZ
	DD	FLAT:?PreCreateWindow@CWnd@@UAEHAAUtagCREATESTRUCTA@@@Z
	DD	FLAT:?CalcWindowRect@CWnd@@UAEXPAUtagRECT@@I@Z
	DD	FLAT:?GetMenu@CWnd@@UBEPAVCMenu@@XZ
	DD	FLAT:?SetMenu@CWnd@@UAEHPAVCMenu@@@Z
	DD	FLAT:?OnToolHitTest@CWnd@@UBEHVCPoint@@PAUtagTOOLINFOA@@@Z
	DD	FLAT:?GetScrollBarCtrl@CWnd@@UBEPAVCScrollBar@@H@Z
	DD	FLAT:?WinHelpA@CWnd@@UAEXKI@Z
	DD	FLAT:?HtmlHelpA@CWnd@@UAEXKI@Z
	DD	FLAT:?WinHelpInternal@CWnd@@UAEXKI@Z
	DD	FLAT:?ContinueModal@CWnd@@UAEHXZ
	DD	FLAT:?EndModalLoop@CWnd@@UAEXH@Z
	DD	FLAT:?OnDrawIconicThumbnailOrLivePreview@CWnd@@UAEXAAVCDC@@VCRect@@VCSize@@HAAH@Z
	DD	FLAT:?EnsureStdObj@CWnd@@UAEJXZ
	DD	FLAT:?get_accParent@CWnd@@UAEJPAPAUIDispatch@@@Z
	DD	FLAT:?get_accChildCount@CWnd@@UAEJPAJ@Z
	DD	FLAT:?get_accChild@CWnd@@UAEJUtagVARIANT@@PAPAUIDispatch@@@Z
	DD	FLAT:?get_accName@CWnd@@UAEJUtagVARIANT@@PAPA_W@Z
	DD	FLAT:?get_accValue@CWnd@@UAEJUtagVARIANT@@PAPA_W@Z
	DD	FLAT:?get_accDescription@CWnd@@UAEJUtagVARIANT@@PAPA_W@Z
	DD	FLAT:?get_accRole@CWnd@@UAEJUtagVARIANT@@PAU2@@Z
	DD	FLAT:?get_accState@CWnd@@UAEJUtagVARIANT@@PAU2@@Z
	DD	FLAT:?get_accHelp@CWnd@@UAEJUtagVARIANT@@PAPA_W@Z
	DD	FLAT:?get_accHelpTopic@CWnd@@UAEJPAPA_WUtagVARIANT@@PAJ@Z
	DD	FLAT:?get_accKeyboardShortcut@CWnd@@UAEJUtagVARIANT@@PAPA_W@Z
	DD	FLAT:?get_accFocus@CWnd@@UAEJPAUtagVARIANT@@@Z
	DD	FLAT:?get_accSelection@CWnd@@UAEJPAUtagVARIANT@@@Z
	DD	FLAT:?get_accDefaultAction@CWnd@@UAEJUtagVARIANT@@PAPA_W@Z
	DD	FLAT:?accSelect@CWnd@@UAEJJUtagVARIANT@@@Z
	DD	FLAT:?accLocation@CWnd@@UAEJPAJ000UtagVARIANT@@@Z
	DD	FLAT:?accNavigate@CWnd@@UAEJJUtagVARIANT@@PAU2@@Z
	DD	FLAT:?accHitTest@CWnd@@UAEJJJPAUtagVARIANT@@@Z
	DD	FLAT:?accDoDefaultAction@CWnd@@UAEJUtagVARIANT@@@Z
	DD	FLAT:?put_accName@CWnd@@UAEJUtagVARIANT@@PA_W@Z
	DD	FLAT:?put_accValue@CWnd@@UAEJUtagVARIANT@@PA_W@Z
	DD	FLAT:?SetProxy@CWnd@@UAEJPAUIAccessibleProxy@@@Z
	DD	FLAT:?CreateAccessibleProxy@CWnd@@UAEJIJPAJ@Z
	DD	FLAT:?OnCommand@CWnd@@MAEHIJ@Z
	DD	FLAT:?OnNotify@CWnd@@MAEHIJPAJ@Z
	DD	FLAT:?GetSuperWndProcAddr@CWnd@@MAEPAP6GJPAUHWND__@@IIJ@ZXZ
	DD	FLAT:?DoDataExchange@CWnd@@MAEXPAVCDataExchange@@@Z
	DD	FLAT:?BeginModalState@CWnd@@UAEXXZ
	DD	FLAT:?EndModalState@CWnd@@UAEXXZ
	DD	FLAT:?PreTranslateMessage@CWnd@@UAEHPAUtagMSG@@@Z
	DD	FLAT:?OnAmbientProperty@CWnd@@UAEHPAVCOleControlSite@@JPAUtagVARIANT@@@Z
	DD	FLAT:?WindowProc@CWnd@@MAEJIIJ@Z
	DD	FLAT:?OnWndMsg@CWnd@@MAEHIIJPAJ@Z
	DD	FLAT:?DefWindowProcA@CWnd@@MAEJIIJ@Z
	DD	FLAT:?PostNcDestroy@CWnd@@MAEXXZ
	DD	FLAT:?OnChildNotify@CComboBox@@MAEHIIJPAJ@Z
	DD	FLAT:?OnTouchInputs@CWnd@@MAEHIPAUtagTOUCHINPUT@@@Z
	DD	FLAT:?OnTouchInput@CWnd@@MAEHVCPoint@@HHPAUtagTOUCHINPUT@@@Z
	DD	FLAT:?GetGestureStatus@CWnd@@MAEKVCPoint@@@Z
	DD	FLAT:?OnGestureZoom@CWnd@@MAEHVCPoint@@J@Z
	DD	FLAT:?OnGesturePan@CWnd@@MAEHVCPoint@@0@Z
	DD	FLAT:?OnGestureRotate@CWnd@@MAEHVCPoint@@N@Z
	DD	FLAT:?OnGestureTwoFingerTap@CWnd@@MAEHVCPoint@@@Z
	DD	FLAT:?OnGesturePressAndTap@CWnd@@MAEHVCPoint@@J@Z
	DD	FLAT:?ResizeDynamicLayout@CWnd@@MAEXXZ
	DD	FLAT:?CheckAutoCenter@CWnd@@UAEHXZ
	DD	FLAT:?IsFrameWnd@CWnd@@UBEHXZ
	DD	FLAT:?CreateControlContainer@CWnd@@MAEHPAPAVCOleControlContainer@@@Z
	DD	FLAT:?CreateControlSite@CWnd@@MAEHPAVCOleControlContainer@@PAPAVCOleControlSite@@IABU_GUID@@@Z
	DD	FLAT:?SetOccDialogInfo@CWnd@@MAEHPAU_AFX_OCC_DIALOG_INFO@@@Z
	DD	FLAT:?GetOccDialogInfo@CWnd@@MAEPAU_AFX_OCC_DIALOG_INFO@@XZ
	DD	FLAT:?Create@CComboBox@@UAEHKABUtagRECT@@PAVCWnd@@I@Z
	DD	FLAT:?DrawItem@CComboBox@@UAEXPAUtagDRAWITEMSTRUCT@@@Z
	DD	FLAT:?MeasureItem@CComboBox@@UAEXPAUtagMEASUREITEMSTRUCT@@@Z
	DD	FLAT:?CompareItem@CComboBox@@UAEHPAUtagCOMPAREITEMSTRUCT@@@Z
	DD	FLAT:?DeleteItem@CComboBox@@UAEXPAUtagDELETEITEMSTRUCT@@@Z
CONST	ENDS
;	COMDAT ??_7CListBox@@6B@
CONST	SEGMENT
??_7CListBox@@6B@ DD FLAT:??_R4CListBox@@6B@		; CListBox::`vftable'
	DD	FLAT:?GetRuntimeClass@CListBox@@UBEPAUCRuntimeClass@@XZ
	DD	FLAT:??_ECListBox@@UAEPAXI@Z
	DD	FLAT:?Serialize@CObject@@UAEXAAVCArchive@@@Z
	DD	FLAT:?AssertValid@CObject@@UBEXXZ
	DD	FLAT:?Dump@CObject@@UBEXAAVCDumpContext@@@Z
	DD	FLAT:?OnCmdMsg@CCmdTarget@@UAEHIHPAXPAUAFX_CMDHANDLERINFO@@@Z
	DD	FLAT:?OnFinalRelease@CWnd@@UAEXXZ
	DD	FLAT:?IsInvokeAllowed@CCmdTarget@@UAEHJ@Z
	DD	FLAT:?GetDispatchIID@CCmdTarget@@UAEHPAU_GUID@@@Z
	DD	FLAT:?GetTypeInfoCount@CCmdTarget@@UAEIXZ
	DD	FLAT:?GetTypeLibCache@CCmdTarget@@UAEPAVCTypeLibCache@@XZ
	DD	FLAT:?GetTypeLib@CCmdTarget@@UAEJKPAPAUITypeLib@@@Z
	DD	FLAT:?GetMessageMap@CWnd@@MBEPBUAFX_MSGMAP@@XZ
	DD	FLAT:?GetCommandMap@CCmdTarget@@MBEPBUAFX_OLECMDMAP@@XZ
	DD	FLAT:?GetDispatchMap@CCmdTarget@@MBEPBUAFX_DISPMAP@@XZ
	DD	FLAT:?GetConnectionMap@CCmdTarget@@MBEPBUAFX_CONNECTIONMAP@@XZ
	DD	FLAT:?GetInterfaceMap@CWnd@@MBEPBUAFX_INTERFACEMAP@@XZ
	DD	FLAT:?GetEventSinkMap@CCmdTarget@@MBEPBUAFX_EVENTSINKMAP@@XZ
	DD	FLAT:?OnCreateAggregates@CCmdTarget@@UAEHXZ
	DD	FLAT:?GetInterfaceHook@CCmdTarget@@UAEPAUIUnknown@@PBX@Z
	DD	FLAT:?GetExtraConnectionPoints@CCmdTarget@@MAEHPAVCPtrArray@@@Z
	DD	FLAT:?GetConnectionHook@CCmdTarget@@MAEPAUIConnectionPoint@@ABU_GUID@@@Z
	DD	FLAT:?PreSubclassWindow@CWnd@@UAEXXZ
	DD	FLAT:?Create@CWnd@@UAEHPBD0KABUtagRECT@@PAV1@IPAUCCreateContext@@@Z
	DD	FLAT:?CreateEx@CWnd@@UAEHKPBD0KABUtagRECT@@PAV1@IPAX@Z
	DD	FLAT:?CreateEx@CWnd@@UAEHKPBD0KHHHHPAUHWND__@@PAUHMENU__@@PAX@Z
	DD	FLAT:?DestroyWindow@CWnd@@UAEHXZ
	DD	FLAT:?PreCreateWindow@CWnd@@UAEHAAUtagCREATESTRUCTA@@@Z
	DD	FLAT:?CalcWindowRect@CWnd@@UAEXPAUtagRECT@@I@Z
	DD	FLAT:?GetMenu@CWnd@@UBEPAVCMenu@@XZ
	DD	FLAT:?SetMenu@CWnd@@UAEHPAVCMenu@@@Z
	DD	FLAT:?OnToolHitTest@CWnd@@UBEHVCPoint@@PAUtagTOOLINFOA@@@Z
	DD	FLAT:?GetScrollBarCtrl@CWnd@@UBEPAVCScrollBar@@H@Z
	DD	FLAT:?WinHelpA@CWnd@@UAEXKI@Z
	DD	FLAT:?HtmlHelpA@CWnd@@UAEXKI@Z
	DD	FLAT:?WinHelpInternal@CWnd@@UAEXKI@Z
	DD	FLAT:?ContinueModal@CWnd@@UAEHXZ
	DD	FLAT:?EndModalLoop@CWnd@@UAEXH@Z
	DD	FLAT:?OnDrawIconicThumbnailOrLivePreview@CWnd@@UAEXAAVCDC@@VCRect@@VCSize@@HAAH@Z
	DD	FLAT:?EnsureStdObj@CWnd@@UAEJXZ
	DD	FLAT:?get_accParent@CWnd@@UAEJPAPAUIDispatch@@@Z
	DD	FLAT:?get_accChildCount@CWnd@@UAEJPAJ@Z
	DD	FLAT:?get_accChild@CWnd@@UAEJUtagVARIANT@@PAPAUIDispatch@@@Z
	DD	FLAT:?get_accName@CWnd@@UAEJUtagVARIANT@@PAPA_W@Z
	DD	FLAT:?get_accValue@CWnd@@UAEJUtagVARIANT@@PAPA_W@Z
	DD	FLAT:?get_accDescription@CWnd@@UAEJUtagVARIANT@@PAPA_W@Z
	DD	FLAT:?get_accRole@CWnd@@UAEJUtagVARIANT@@PAU2@@Z
	DD	FLAT:?get_accState@CWnd@@UAEJUtagVARIANT@@PAU2@@Z
	DD	FLAT:?get_accHelp@CWnd@@UAEJUtagVARIANT@@PAPA_W@Z
	DD	FLAT:?get_accHelpTopic@CWnd@@UAEJPAPA_WUtagVARIANT@@PAJ@Z
	DD	FLAT:?get_accKeyboardShortcut@CWnd@@UAEJUtagVARIANT@@PAPA_W@Z
	DD	FLAT:?get_accFocus@CWnd@@UAEJPAUtagVARIANT@@@Z
	DD	FLAT:?get_accSelection@CWnd@@UAEJPAUtagVARIANT@@@Z
	DD	FLAT:?get_accDefaultAction@CWnd@@UAEJUtagVARIANT@@PAPA_W@Z
	DD	FLAT:?accSelect@CWnd@@UAEJJUtagVARIANT@@@Z
	DD	FLAT:?accLocation@CWnd@@UAEJPAJ000UtagVARIANT@@@Z
	DD	FLAT:?accNavigate@CWnd@@UAEJJUtagVARIANT@@PAU2@@Z
	DD	FLAT:?accHitTest@CWnd@@UAEJJJPAUtagVARIANT@@@Z
	DD	FLAT:?accDoDefaultAction@CWnd@@UAEJUtagVARIANT@@@Z
	DD	FLAT:?put_accName@CWnd@@UAEJUtagVARIANT@@PA_W@Z
	DD	FLAT:?put_accValue@CWnd@@UAEJUtagVARIANT@@PA_W@Z
	DD	FLAT:?SetProxy@CWnd@@UAEJPAUIAccessibleProxy@@@Z
	DD	FLAT:?CreateAccessibleProxy@CWnd@@UAEJIJPAJ@Z
	DD	FLAT:?OnCommand@CWnd@@MAEHIJ@Z
	DD	FLAT:?OnNotify@CWnd@@MAEHIJPAJ@Z
	DD	FLAT:?GetSuperWndProcAddr@CWnd@@MAEPAP6GJPAUHWND__@@IIJ@ZXZ
	DD	FLAT:?DoDataExchange@CWnd@@MAEXPAVCDataExchange@@@Z
	DD	FLAT:?BeginModalState@CWnd@@UAEXXZ
	DD	FLAT:?EndModalState@CWnd@@UAEXXZ
	DD	FLAT:?PreTranslateMessage@CWnd@@UAEHPAUtagMSG@@@Z
	DD	FLAT:?OnAmbientProperty@CWnd@@UAEHPAVCOleControlSite@@JPAUtagVARIANT@@@Z
	DD	FLAT:?WindowProc@CWnd@@MAEJIIJ@Z
	DD	FLAT:?OnWndMsg@CWnd@@MAEHIIJPAJ@Z
	DD	FLAT:?DefWindowProcA@CWnd@@MAEJIIJ@Z
	DD	FLAT:?PostNcDestroy@CWnd@@MAEXXZ
	DD	FLAT:?OnChildNotify@CListBox@@MAEHIIJPAJ@Z
	DD	FLAT:?OnTouchInputs@CWnd@@MAEHIPAUtagTOUCHINPUT@@@Z
	DD	FLAT:?OnTouchInput@CWnd@@MAEHVCPoint@@HHPAUtagTOUCHINPUT@@@Z
	DD	FLAT:?GetGestureStatus@CWnd@@MAEKVCPoint@@@Z
	DD	FLAT:?OnGestureZoom@CWnd@@MAEHVCPoint@@J@Z
	DD	FLAT:?OnGesturePan@CWnd@@MAEHVCPoint@@0@Z
	DD	FLAT:?OnGestureRotate@CWnd@@MAEHVCPoint@@N@Z
	DD	FLAT:?OnGestureTwoFingerTap@CWnd@@MAEHVCPoint@@@Z
	DD	FLAT:?OnGesturePressAndTap@CWnd@@MAEHVCPoint@@J@Z
	DD	FLAT:?ResizeDynamicLayout@CWnd@@MAEXXZ
	DD	FLAT:?CheckAutoCenter@CWnd@@UAEHXZ
	DD	FLAT:?IsFrameWnd@CWnd@@UBEHXZ
	DD	FLAT:?CreateControlContainer@CWnd@@MAEHPAPAVCOleControlContainer@@@Z
	DD	FLAT:?CreateControlSite@CWnd@@MAEHPAVCOleControlContainer@@PAPAVCOleControlSite@@IABU_GUID@@@Z
	DD	FLAT:?SetOccDialogInfo@CWnd@@MAEHPAU_AFX_OCC_DIALOG_INFO@@@Z
	DD	FLAT:?GetOccDialogInfo@CWnd@@MAEPAU_AFX_OCC_DIALOG_INFO@@XZ
	DD	FLAT:?Create@CListBox@@UAEHKABUtagRECT@@PAVCWnd@@I@Z
	DD	FLAT:?DrawItem@CListBox@@UAEXPAUtagDRAWITEMSTRUCT@@@Z
	DD	FLAT:?MeasureItem@CListBox@@UAEXPAUtagMEASUREITEMSTRUCT@@@Z
	DD	FLAT:?CompareItem@CListBox@@UAEHPAUtagCOMPAREITEMSTRUCT@@@Z
	DD	FLAT:?DeleteItem@CListBox@@UAEXPAUtagDELETEITEMSTRUCT@@@Z
	DD	FLAT:?VKeyToItem@CListBox@@UAEHII@Z
	DD	FLAT:?CharToItem@CListBox@@UAEHII@Z
CONST	ENDS
;	COMDAT ??_7CButton@@6B@
CONST	SEGMENT
??_7CButton@@6B@ DD FLAT:??_R4CButton@@6B@		; CButton::`vftable'
	DD	FLAT:?GetRuntimeClass@CButton@@UBEPAUCRuntimeClass@@XZ
	DD	FLAT:??_ECButton@@UAEPAXI@Z
	DD	FLAT:?Serialize@CObject@@UAEXAAVCArchive@@@Z
	DD	FLAT:?AssertValid@CObject@@UBEXXZ
	DD	FLAT:?Dump@CObject@@UBEXAAVCDumpContext@@@Z
	DD	FLAT:?OnCmdMsg@CCmdTarget@@UAEHIHPAXPAUAFX_CMDHANDLERINFO@@@Z
	DD	FLAT:?OnFinalRelease@CWnd@@UAEXXZ
	DD	FLAT:?IsInvokeAllowed@CCmdTarget@@UAEHJ@Z
	DD	FLAT:?GetDispatchIID@CCmdTarget@@UAEHPAU_GUID@@@Z
	DD	FLAT:?GetTypeInfoCount@CCmdTarget@@UAEIXZ
	DD	FLAT:?GetTypeLibCache@CCmdTarget@@UAEPAVCTypeLibCache@@XZ
	DD	FLAT:?GetTypeLib@CCmdTarget@@UAEJKPAPAUITypeLib@@@Z
	DD	FLAT:?GetMessageMap@CWnd@@MBEPBUAFX_MSGMAP@@XZ
	DD	FLAT:?GetCommandMap@CCmdTarget@@MBEPBUAFX_OLECMDMAP@@XZ
	DD	FLAT:?GetDispatchMap@CCmdTarget@@MBEPBUAFX_DISPMAP@@XZ
	DD	FLAT:?GetConnectionMap@CCmdTarget@@MBEPBUAFX_CONNECTIONMAP@@XZ
	DD	FLAT:?GetInterfaceMap@CWnd@@MBEPBUAFX_INTERFACEMAP@@XZ
	DD	FLAT:?GetEventSinkMap@CCmdTarget@@MBEPBUAFX_EVENTSINKMAP@@XZ
	DD	FLAT:?OnCreateAggregates@CCmdTarget@@UAEHXZ
	DD	FLAT:?GetInterfaceHook@CCmdTarget@@UAEPAUIUnknown@@PBX@Z
	DD	FLAT:?GetExtraConnectionPoints@CCmdTarget@@MAEHPAVCPtrArray@@@Z
	DD	FLAT:?GetConnectionHook@CCmdTarget@@MAEPAUIConnectionPoint@@ABU_GUID@@@Z
	DD	FLAT:?PreSubclassWindow@CWnd@@UAEXXZ
	DD	FLAT:?Create@CWnd@@UAEHPBD0KABUtagRECT@@PAV1@IPAUCCreateContext@@@Z
	DD	FLAT:?CreateEx@CWnd@@UAEHKPBD0KABUtagRECT@@PAV1@IPAX@Z
	DD	FLAT:?CreateEx@CWnd@@UAEHKPBD0KHHHHPAUHWND__@@PAUHMENU__@@PAX@Z
	DD	FLAT:?DestroyWindow@CWnd@@UAEHXZ
	DD	FLAT:?PreCreateWindow@CWnd@@UAEHAAUtagCREATESTRUCTA@@@Z
	DD	FLAT:?CalcWindowRect@CWnd@@UAEXPAUtagRECT@@I@Z
	DD	FLAT:?GetMenu@CWnd@@UBEPAVCMenu@@XZ
	DD	FLAT:?SetMenu@CWnd@@UAEHPAVCMenu@@@Z
	DD	FLAT:?OnToolHitTest@CWnd@@UBEHVCPoint@@PAUtagTOOLINFOA@@@Z
	DD	FLAT:?GetScrollBarCtrl@CWnd@@UBEPAVCScrollBar@@H@Z
	DD	FLAT:?WinHelpA@CWnd@@UAEXKI@Z
	DD	FLAT:?HtmlHelpA@CWnd@@UAEXKI@Z
	DD	FLAT:?WinHelpInternal@CWnd@@UAEXKI@Z
	DD	FLAT:?ContinueModal@CWnd@@UAEHXZ
	DD	FLAT:?EndModalLoop@CWnd@@UAEXH@Z
	DD	FLAT:?OnDrawIconicThumbnailOrLivePreview@CWnd@@UAEXAAVCDC@@VCRect@@VCSize@@HAAH@Z
	DD	FLAT:?EnsureStdObj@CWnd@@UAEJXZ
	DD	FLAT:?get_accParent@CWnd@@UAEJPAPAUIDispatch@@@Z
	DD	FLAT:?get_accChildCount@CWnd@@UAEJPAJ@Z
	DD	FLAT:?get_accChild@CWnd@@UAEJUtagVARIANT@@PAPAUIDispatch@@@Z
	DD	FLAT:?get_accName@CWnd@@UAEJUtagVARIANT@@PAPA_W@Z
	DD	FLAT:?get_accValue@CWnd@@UAEJUtagVARIANT@@PAPA_W@Z
	DD	FLAT:?get_accDescription@CWnd@@UAEJUtagVARIANT@@PAPA_W@Z
	DD	FLAT:?get_accRole@CWnd@@UAEJUtagVARIANT@@PAU2@@Z
	DD	FLAT:?get_accState@CWnd@@UAEJUtagVARIANT@@PAU2@@Z
	DD	FLAT:?get_accHelp@CWnd@@UAEJUtagVARIANT@@PAPA_W@Z
	DD	FLAT:?get_accHelpTopic@CWnd@@UAEJPAPA_WUtagVARIANT@@PAJ@Z
	DD	FLAT:?get_accKeyboardShortcut@CWnd@@UAEJUtagVARIANT@@PAPA_W@Z
	DD	FLAT:?get_accFocus@CWnd@@UAEJPAUtagVARIANT@@@Z
	DD	FLAT:?get_accSelection@CWnd@@UAEJPAUtagVARIANT@@@Z
	DD	FLAT:?get_accDefaultAction@CWnd@@UAEJUtagVARIANT@@PAPA_W@Z
	DD	FLAT:?accSelect@CWnd@@UAEJJUtagVARIANT@@@Z
	DD	FLAT:?accLocation@CWnd@@UAEJPAJ000UtagVARIANT@@@Z
	DD	FLAT:?accNavigate@CWnd@@UAEJJUtagVARIANT@@PAU2@@Z
	DD	FLAT:?accHitTest@CWnd@@UAEJJJPAUtagVARIANT@@@Z
	DD	FLAT:?accDoDefaultAction@CWnd@@UAEJUtagVARIANT@@@Z
	DD	FLAT:?put_accName@CWnd@@UAEJUtagVARIANT@@PA_W@Z
	DD	FLAT:?put_accValue@CWnd@@UAEJUtagVARIANT@@PA_W@Z
	DD	FLAT:?SetProxy@CWnd@@UAEJPAUIAccessibleProxy@@@Z
	DD	FLAT:?CreateAccessibleProxy@CWnd@@UAEJIJPAJ@Z
	DD	FLAT:?OnCommand@CWnd@@MAEHIJ@Z
	DD	FLAT:?OnNotify@CWnd@@MAEHIJPAJ@Z
	DD	FLAT:?GetSuperWndProcAddr@CWnd@@MAEPAP6GJPAUHWND__@@IIJ@ZXZ
	DD	FLAT:?DoDataExchange@CWnd@@MAEXPAVCDataExchange@@@Z
	DD	FLAT:?BeginModalState@CWnd@@UAEXXZ
	DD	FLAT:?EndModalState@CWnd@@UAEXXZ
	DD	FLAT:?PreTranslateMessage@CWnd@@UAEHPAUtagMSG@@@Z
	DD	FLAT:?OnAmbientProperty@CWnd@@UAEHPAVCOleControlSite@@JPAUtagVARIANT@@@Z
	DD	FLAT:?WindowProc@CWnd@@MAEJIIJ@Z
	DD	FLAT:?OnWndMsg@CWnd@@MAEHIIJPAJ@Z
	DD	FLAT:?DefWindowProcA@CWnd@@MAEJIIJ@Z
	DD	FLAT:?PostNcDestroy@CWnd@@MAEXXZ
	DD	FLAT:?OnChildNotify@CButton@@MAEHIIJPAJ@Z
	DD	FLAT:?OnTouchInputs@CWnd@@MAEHIPAUtagTOUCHINPUT@@@Z
	DD	FLAT:?OnTouchInput@CWnd@@MAEHVCPoint@@HHPAUtagTOUCHINPUT@@@Z
	DD	FLAT:?GetGestureStatus@CWnd@@MAEKVCPoint@@@Z
	DD	FLAT:?OnGestureZoom@CWnd@@MAEHVCPoint@@J@Z
	DD	FLAT:?OnGesturePan@CWnd@@MAEHVCPoint@@0@Z
	DD	FLAT:?OnGestureRotate@CWnd@@MAEHVCPoint@@N@Z
	DD	FLAT:?OnGestureTwoFingerTap@CWnd@@MAEHVCPoint@@@Z
	DD	FLAT:?OnGesturePressAndTap@CWnd@@MAEHVCPoint@@J@Z
	DD	FLAT:?ResizeDynamicLayout@CWnd@@MAEXXZ
	DD	FLAT:?CheckAutoCenter@CWnd@@UAEHXZ
	DD	FLAT:?IsFrameWnd@CWnd@@UBEHXZ
	DD	FLAT:?CreateControlContainer@CWnd@@MAEHPAPAVCOleControlContainer@@@Z
	DD	FLAT:?CreateControlSite@CWnd@@MAEHPAVCOleControlContainer@@PAPAVCOleControlSite@@IABU_GUID@@@Z
	DD	FLAT:?SetOccDialogInfo@CWnd@@MAEHPAU_AFX_OCC_DIALOG_INFO@@@Z
	DD	FLAT:?GetOccDialogInfo@CWnd@@MAEPAU_AFX_OCC_DIALOG_INFO@@XZ
	DD	FLAT:?Create@CButton@@UAEHPBDKABUtagRECT@@PAVCWnd@@I@Z
	DD	FLAT:?DrawItem@CButton@@UAEXPAUtagDRAWITEMSTRUCT@@@Z
CONST	ENDS
;	COMDAT ??_7CMenu@@6B@
CONST	SEGMENT
??_7CMenu@@6B@ DD FLAT:??_R4CMenu@@6B@			; CMenu::`vftable'
	DD	FLAT:?GetRuntimeClass@CMenu@@UBEPAUCRuntimeClass@@XZ
	DD	FLAT:??_ECMenu@@UAEPAXI@Z
	DD	FLAT:?Serialize@CObject@@UAEXAAVCArchive@@@Z
	DD	FLAT:?AssertValid@CObject@@UBEXXZ
	DD	FLAT:?Dump@CObject@@UBEXAAVCDumpContext@@@Z
	DD	FLAT:?DrawItem@CMenu@@UAEXPAUtagDRAWITEMSTRUCT@@@Z
	DD	FLAT:?MeasureItem@CMenu@@UAEXPAUtagMEASUREITEMSTRUCT@@@Z
CONST	ENDS
;	COMDAT ??_7CBitmap@@6B@
CONST	SEGMENT
??_7CBitmap@@6B@ DD FLAT:??_R4CBitmap@@6B@		; CBitmap::`vftable'
	DD	FLAT:?GetRuntimeClass@CBitmap@@UBEPAUCRuntimeClass@@XZ
	DD	FLAT:??_ECBitmap@@UAEPAXI@Z
	DD	FLAT:?Serialize@CObject@@UAEXAAVCArchive@@@Z
	DD	FLAT:?AssertValid@CObject@@UBEXXZ
	DD	FLAT:?Dump@CObject@@UBEXAAVCDumpContext@@@Z
CONST	ENDS
;	COMDAT ??_7CGdiObject@@6B@
CONST	SEGMENT
??_7CGdiObject@@6B@ DD FLAT:??_R4CGdiObject@@6B@	; CGdiObject::`vftable'
	DD	FLAT:?GetRuntimeClass@CGdiObject@@UBEPAUCRuntimeClass@@XZ
	DD	FLAT:??_ECGdiObject@@UAEPAXI@Z
	DD	FLAT:?Serialize@CObject@@UAEXAAVCArchive@@@Z
	DD	FLAT:?AssertValid@CObject@@UBEXXZ
	DD	FLAT:?Dump@CObject@@UBEXAAVCDumpContext@@@Z
CONST	ENDS
;	COMDAT ??_C@_00CNPNBAHC@@
CONST	SEGMENT
??_C@_00CNPNBAHC@@ DB 00H				; `string'
CONST	ENDS
;	COMDAT ?_AtlWinModule@ATL@@3VCAtlWinModule@1@A
_DATA	SEGMENT
?_AtlWinModule@ATL@@3VCAtlWinModule@1@A DD 02cH		; ATL::_AtlWinModule
	DB	24 DUP(00H)
	DD	00H
_DATA	ENDS
;	COMDAT ??_C@_02DPKJAMEF@?$CFd@
CONST	SEGMENT
??_C@_02DPKJAMEF@?$CFd@ DB '%d', 00H			; `string'
CONST	ENDS
;	COMDAT ??_R0PAVCException@@@8
data$r	SEGMENT
??_R0PAVCException@@@8 DD FLAT:??_7type_info@@6B@	; CException * `RTTI Type Descriptor'
	DD	00H
	DB	'.PAVCException@@', 00H
data$r	ENDS
;	COMDAT xdata$x
xdata$x	SEGMENT
__ehfuncinfo$??_Estringdispid@CComTypeInfoHolder@ATL@@QAEPAXI@Z DD 019930522H
	DD	00H
	DD	00H
	DD	2 DUP(00H)
	DD	2 DUP(00H)
	DD	00H
	DD	05H
xdata$x	ENDS
;	COMDAT xdata$x
xdata$x	SEGMENT
__unwindtable$??1CTabIndices@@UAE@XZ DD 0ffffffffH
	DD	FLAT:___std_terminate
__ehfuncinfo$??1CTabIndices@@UAE@XZ DD 019930522H
	DD	01H
	DD	FLAT:__unwindtable$??1CTabIndices@@UAE@XZ
	DD	2 DUP(00H)
	DD	2 DUP(00H)
	DD	00H
	DD	05H
xdata$x	ENDS
;	COMDAT xdata$x
xdata$x	SEGMENT
__unwindtable$?OnLbnSelchangeListFind@CTabIndices@@IAEXXZ DD 0ffffffffH
	DD	FLAT:__unwindfunclet$?OnLbnSelchangeListFind@CTabIndices@@IAEXXZ$0
	DD	00H
	DD	FLAT:__unwindfunclet$?OnLbnSelchangeListFind@CTabIndices@@IAEXXZ$1
	DD	01H
	DD	FLAT:__unwindfunclet$?OnLbnSelchangeListFind@CTabIndices@@IAEXXZ$2
__ehfuncinfo$?OnLbnSelchangeListFind@CTabIndices@@IAEXXZ DD 019930522H
	DD	03H
	DD	FLAT:__unwindtable$?OnLbnSelchangeListFind@CTabIndices@@IAEXXZ
	DD	2 DUP(00H)
	DD	2 DUP(00H)
	DD	00H
	DD	01H
xdata$x	ENDS
;	COMDAT xdata$x
xdata$x	SEGMENT
__unwindtable$?OnBnClickedBtnFind@CTabIndices@@IAEXXZ DD 0ffffffffH
	DD	FLAT:__unwindfunclet$?OnBnClickedBtnFind@CTabIndices@@IAEXXZ$0
	DD	00H
	DD	FLAT:__unwindfunclet$?OnBnClickedBtnFind@CTabIndices@@IAEXXZ$1
	DD	01H
	DD	FLAT:__unwindfunclet$?OnBnClickedBtnFind@CTabIndices@@IAEXXZ$4
	DD	02H
	DD	FLAT:__unwindfunclet$?OnBnClickedBtnFind@CTabIndices@@IAEXXZ$5
__ehfuncinfo$?OnBnClickedBtnFind@CTabIndices@@IAEXXZ DD 019930522H
	DD	04H
	DD	FLAT:__unwindtable$?OnBnClickedBtnFind@CTabIndices@@IAEXXZ
	DD	2 DUP(00H)
	DD	2 DUP(00H)
	DD	00H
	DD	01H
xdata$x	ENDS
;	COMDAT xdata$x
xdata$x	SEGMENT
__unwindtable$?OnBtnAdditem@CTabIndices@@IAEXXZ DD 0ffffffffH
	DD	FLAT:__unwindfunclet$?OnBtnAdditem@CTabIndices@@IAEXXZ$0
	DD	00H
	DD	FLAT:__unwindfunclet$?OnBtnAdditem@CTabIndices@@IAEXXZ$1
__ehfuncinfo$?OnBtnAdditem@CTabIndices@@IAEXXZ DD 019930522H
	DD	02H
	DD	FLAT:__unwindtable$?OnBtnAdditem@CTabIndices@@IAEXXZ
	DD	2 DUP(00H)
	DD	2 DUP(00H)
	DD	00H
	DD	01H
xdata$x	ENDS
;	COMDAT xdata$x
xdata$x	SEGMENT
__unwindtable$?OnBtnShowRepeat@CTabIndices@@IAEXXZ DD 0ffffffffH
	DD	FLAT:__unwindfunclet$?OnBtnShowRepeat@CTabIndices@@IAEXXZ$0
	DD	00H
	DD	FLAT:__unwindfunclet$?OnBtnShowRepeat@CTabIndices@@IAEXXZ$1
	DD	01H
	DD	FLAT:__unwindfunclet$?OnBtnShowRepeat@CTabIndices@@IAEXXZ$2
__ehfuncinfo$?OnBtnShowRepeat@CTabIndices@@IAEXXZ DD 019930522H
	DD	03H
	DD	FLAT:__unwindtable$?OnBtnShowRepeat@CTabIndices@@IAEXXZ
	DD	2 DUP(00H)
	DD	2 DUP(00H)
	DD	00H
	DD	01H
xdata$x	ENDS
;	COMDAT xdata$x
xdata$x	SEGMENT
__unwindtable$?OnDestroy@CTabIndices@@IAEXXZ DD 0ffffffffH
	DD	FLAT:__unwindfunclet$?OnDestroy@CTabIndices@@IAEXXZ$0
	DD	00H
	DD	FLAT:__unwindfunclet$?OnDestroy@CTabIndices@@IAEXXZ$1
__ehfuncinfo$?OnDestroy@CTabIndices@@IAEXXZ DD 019930522H
	DD	02H
	DD	FLAT:__unwindtable$?OnDestroy@CTabIndices@@IAEXXZ
	DD	2 DUP(00H)
	DD	2 DUP(00H)
	DD	00H
	DD	01H
xdata$x	ENDS
;	COMDAT xdata$x
xdata$x	SEGMENT
__ehfuncinfo$?OnBtsearch@CTabIndices@@IAEXXZ DD 019930522H
	DD	05H
	DD	FLAT:__unwindtable$?OnBtsearch@CTabIndices@@IAEXXZ
	DD	2 DUP(00H)
	DD	2 DUP(00H)
	DD	00H
	DD	01H
__unwindtable$?OnBtsearch@CTabIndices@@IAEXXZ DD 0ffffffffH
	DD	FLAT:__unwindfunclet$?OnBtsearch@CTabIndices@@IAEXXZ$0
	DD	00H
	DD	FLAT:__unwindfunclet$?OnBtsearch@CTabIndices@@IAEXXZ$1
	DD	01H
	DD	FLAT:__unwindfunclet$?OnBtsearch@CTabIndices@@IAEXXZ$2
	DD	02H
	DD	FLAT:__unwindfunclet$?OnBtsearch@CTabIndices@@IAEXXZ$3
	DD	03H
	DD	FLAT:__unwindfunclet$?OnBtsearch@CTabIndices@@IAEXXZ$4
xdata$x	ENDS
;	COMDAT xdata$x
xdata$x	SEGMENT
__unwindtable$?OnBtapply@CTabIndices@@IAEXXZ DD 0ffffffffH
	DD	FLAT:__unwindfunclet$?OnBtapply@CTabIndices@@IAEXXZ$0
	DD	00H
	DD	FLAT:__unwindfunclet$?OnBtapply@CTabIndices@@IAEXXZ$1
	DD	01H
	DD	FLAT:__unwindfunclet$?OnBtapply@CTabIndices@@IAEXXZ$2
	DD	01H
	DD	FLAT:__unwindfunclet$?OnBtapply@CTabIndices@@IAEXXZ$3
__ehfuncinfo$?OnBtapply@CTabIndices@@IAEXXZ DD 019930522H
	DD	04H
	DD	FLAT:__unwindtable$?OnBtapply@CTabIndices@@IAEXXZ
	DD	2 DUP(00H)
	DD	2 DUP(00H)
	DD	00H
	DD	01H
xdata$x	ENDS
;	COMDAT xdata$x
xdata$x	SEGMENT
__unwindtable$?RefreshIndex@CTabIndices@@AAEXXZ DD 0ffffffffH
	DD	FLAT:__unwindfunclet$?RefreshIndex@CTabIndices@@AAEXXZ$0
__ehfuncinfo$?RefreshIndex@CTabIndices@@AAEXXZ DD 019930522H
	DD	01H
	DD	FLAT:__unwindtable$?RefreshIndex@CTabIndices@@AAEXXZ
	DD	2 DUP(00H)
	DD	2 DUP(00H)
	DD	00H
	DD	01H
xdata$x	ENDS
;	COMDAT xdata$x
xdata$x	SEGMENT
__unwindtable$?SetConfig@CTabIndices@@AAEXH@Z DD 0ffffffffH
	DD	FLAT:__unwindfunclet$?SetConfig@CTabIndices@@AAEXH@Z$0
	DD	00H
	DD	FLAT:__unwindfunclet$?SetConfig@CTabIndices@@AAEXH@Z$1
__ehfuncinfo$?SetConfig@CTabIndices@@AAEXH@Z DD 019930522H
	DD	02H
	DD	FLAT:__unwindtable$?SetConfig@CTabIndices@@AAEXH@Z
	DD	2 DUP(00H)
	DD	2 DUP(00H)
	DD	00H
	DD	01H
xdata$x	ENDS
;	COMDAT xdata$x
xdata$x	SEGMENT
__ehfuncinfo$?SetItemForm@CTabIndices@@AAEXXZ DD 019930522H
	DD	09H
	DD	FLAT:__unwindtable$?SetItemForm@CTabIndices@@AAEXXZ
	DD	2 DUP(00H)
	DD	2 DUP(00H)
	DD	00H
	DD	01H
__unwindtable$?SetItemForm@CTabIndices@@AAEXXZ DD 0ffffffffH
	DD	FLAT:__unwindfunclet$?SetItemForm@CTabIndices@@AAEXXZ$0
	DD	00H
	DD	FLAT:__unwindfunclet$?SetItemForm@CTabIndices@@AAEXXZ$1
	DD	01H
	DD	FLAT:__unwindfunclet$?SetItemForm@CTabIndices@@AAEXXZ$2
	DD	02H
	DD	FLAT:__unwindfunclet$?SetItemForm@CTabIndices@@AAEXXZ$3
	DD	03H
	DD	FLAT:__unwindfunclet$?SetItemForm@CTabIndices@@AAEXXZ$4
	DD	04H
	DD	FLAT:__unwindfunclet$?SetItemForm@CTabIndices@@AAEXXZ$5
	DD	05H
	DD	FLAT:__unwindfunclet$?SetItemForm@CTabIndices@@AAEXXZ$6
	DD	05H
	DD	FLAT:__unwindfunclet$?SetItemForm@CTabIndices@@AAEXXZ$7
	DD	07H
	DD	FLAT:__unwindfunclet$?SetItemForm@CTabIndices@@AAEXXZ$8
xdata$x	ENDS
;	COMDAT xdata$x
xdata$x	SEGMENT
__unwindtable$?WindowProc@CTabIndices@@MAEJIIJ@Z DD 0ffffffffH
	DD	FLAT:__unwindfunclet$?WindowProc@CTabIndices@@MAEJIIJ@Z$0
	DD	00H
	DD	FLAT:__unwindfunclet$?WindowProc@CTabIndices@@MAEJIIJ@Z$1
	DD	0ffffffffH
	DD	FLAT:__unwindfunclet$?WindowProc@CTabIndices@@MAEJIIJ@Z$2
	DD	0ffffffffH
	DD	FLAT:___std_terminate
__ehfuncinfo$?WindowProc@CTabIndices@@MAEJIIJ@Z DD 019930522H
	DD	04H
	DD	FLAT:__unwindtable$?WindowProc@CTabIndices@@MAEJIIJ@Z
	DD	2 DUP(00H)
	DD	2 DUP(00H)
	DD	00H
	DD	01H
xdata$x	ENDS
;	COMDAT xdata$x
xdata$x	SEGMENT
__ehfuncinfo$?GetFindItemList@CTabIndices@@QAEXHV?$CStringT@DV?$StrTraitMFC_DLL@DV?$ChTraitsCRT@D@ATL@@@@@ATL@@AAVCStringArray@@@Z DD 019930522H
	DD	07H
	DD	FLAT:__unwindtable$?GetFindItemList@CTabIndices@@QAEXHV?$CStringT@DV?$StrTraitMFC_DLL@DV?$ChTraitsCRT@D@ATL@@@@@ATL@@AAVCStringArray@@@Z
	DD	2 DUP(00H)
	DD	2 DUP(00H)
	DD	00H
	DD	01H
__unwindtable$?GetFindItemList@CTabIndices@@QAEXHV?$CStringT@DV?$StrTraitMFC_DLL@DV?$ChTraitsCRT@D@ATL@@@@@ATL@@AAVCStringArray@@@Z DD 0ffffffffH
	DD	FLAT:__unwindfunclet$?GetFindItemList@CTabIndices@@QAEXHV?$CStringT@DV?$StrTraitMFC_DLL@DV?$ChTraitsCRT@D@ATL@@@@@ATL@@AAVCStringArray@@@Z$0
	DD	00H
	DD	FLAT:__unwindfunclet$?GetFindItemList@CTabIndices@@QAEXHV?$CStringT@DV?$StrTraitMFC_DLL@DV?$ChTraitsCRT@D@ATL@@@@@ATL@@AAVCStringArray@@@Z$1
	DD	01H
	DD	FLAT:__unwindfunclet$?GetFindItemList@CTabIndices@@QAEXHV?$CStringT@DV?$StrTraitMFC_DLL@DV?$ChTraitsCRT@D@ATL@@@@@ATL@@AAVCStringArray@@@Z$2
	DD	02H
	DD	FLAT:__unwindfunclet$?GetFindItemList@CTabIndices@@QAEXHV?$CStringT@DV?$StrTraitMFC_DLL@DV?$ChTraitsCRT@D@ATL@@@@@ATL@@AAVCStringArray@@@Z$3
	DD	03H
	DD	FLAT:__unwindfunclet$?GetFindItemList@CTabIndices@@QAEXHV?$CStringT@DV?$StrTraitMFC_DLL@DV?$ChTraitsCRT@D@ATL@@@@@ATL@@AAVCStringArray@@@Z$4
	DD	03H
	DD	FLAT:__unwindfunclet$?GetFindItemList@CTabIndices@@QAEXHV?$CStringT@DV?$StrTraitMFC_DLL@DV?$ChTraitsCRT@D@ATL@@@@@ATL@@AAVCStringArray@@@Z$5
	DD	03H
	DD	FLAT:__unwindfunclet$?GetFindItemList@CTabIndices@@QAEXHV?$CStringT@DV?$StrTraitMFC_DLL@DV?$ChTraitsCRT@D@ATL@@@@@ATL@@AAVCStringArray@@@Z$6
xdata$x	ENDS
;	COMDAT xdata$x
xdata$x	SEGMENT
__unwindtable$??_G?$CList@PAVCTrTreeCtrl@@PAV1@@@UAEPAXI@Z DD 0ffffffffH
	DD	FLAT:___std_terminate
__ehfuncinfo$??_G?$CList@PAVCTrTreeCtrl@@PAV1@@@UAEPAXI@Z DD 019930522H
	DD	01H
	DD	FLAT:__unwindtable$??_G?$CList@PAVCTrTreeCtrl@@PAV1@@@UAEPAXI@Z
	DD	2 DUP(00H)
	DD	2 DUP(00H)
	DD	00H
	DD	05H
xdata$x	ENDS
;	COMDAT xdata$x
xdata$x	SEGMENT
__ehfuncinfo$??1?$CList@PAVCTrTreeCtrl@@PAV1@@@UAE@XZ DD 019930522H
	DD	00H
	DD	00H
	DD	2 DUP(00H)
	DD	2 DUP(00H)
	DD	00H
	DD	05H
xdata$x	ENDS
;	COMDAT xdata$x
xdata$x	SEGMENT
__ehfuncinfo$??0CTabIndices@@QAE@PAVCWnd@@@Z DD 019930522H
	DD	022H
	DD	FLAT:__unwindtable$??0CTabIndices@@QAE@PAVCWnd@@@Z
	DD	2 DUP(00H)
	DD	2 DUP(00H)
	DD	00H
	DD	01H
__unwindtable$??0CTabIndices@@QAE@PAVCWnd@@@Z DD 0ffffffffH
	DD	FLAT:__unwindfunclet$??0CTabIndices@@QAE@PAVCWnd@@@Z$0
	DD	00H
	DD	FLAT:__unwindfunclet$??0CTabIndices@@QAE@PAVCWnd@@@Z$1
	DD	01H
	DD	FLAT:__unwindfunclet$??0CTabIndices@@QAE@PAVCWnd@@@Z$2
	DD	02H
	DD	FLAT:__unwindfunclet$??0CTabIndices@@QAE@PAVCWnd@@@Z$3
	DD	03H
	DD	FLAT:__unwindfunclet$??0CTabIndices@@QAE@PAVCWnd@@@Z$4
	DD	04H
	DD	FLAT:__unwindfunclet$??0CTabIndices@@QAE@PAVCWnd@@@Z$5
	DD	05H
	DD	FLAT:__unwindfunclet$??0CTabIndices@@QAE@PAVCWnd@@@Z$6
	DD	06H
	DD	FLAT:__unwindfunclet$??0CTabIndices@@QAE@PAVCWnd@@@Z$7
	DD	07H
	DD	FLAT:__unwindfunclet$??0CTabIndices@@QAE@PAVCWnd@@@Z$8
	DD	08H
	DD	FLAT:__unwindfunclet$??0CTabIndices@@QAE@PAVCWnd@@@Z$9
	DD	09H
	DD	FLAT:__unwindfunclet$??0CTabIndices@@QAE@PAVCWnd@@@Z$10
	DD	0aH
	DD	FLAT:__unwindfunclet$??0CTabIndices@@QAE@PAVCWnd@@@Z$11
	DD	0bH
	DD	FLAT:__unwindfunclet$??0CTabIndices@@QAE@PAVCWnd@@@Z$12
	DD	0cH
	DD	FLAT:__unwindfunclet$??0CTabIndices@@QAE@PAVCWnd@@@Z$13
	DD	0dH
	DD	FLAT:__unwindfunclet$??0CTabIndices@@QAE@PAVCWnd@@@Z$14
	DD	0eH
	DD	FLAT:__unwindfunclet$??0CTabIndices@@QAE@PAVCWnd@@@Z$15
	DD	0fH
	DD	FLAT:__unwindfunclet$??0CTabIndices@@QAE@PAVCWnd@@@Z$16
	DD	010H
	DD	FLAT:__unwindfunclet$??0CTabIndices@@QAE@PAVCWnd@@@Z$17
	DD	011H
	DD	FLAT:__unwindfunclet$??0CTabIndices@@QAE@PAVCWnd@@@Z$18
	DD	012H
	DD	FLAT:__unwindfunclet$??0CTabIndices@@QAE@PAVCWnd@@@Z$19
	DD	013H
	DD	FLAT:__unwindfunclet$??0CTabIndices@@QAE@PAVCWnd@@@Z$20
	DD	014H
	DD	FLAT:__unwindfunclet$??0CTabIndices@@QAE@PAVCWnd@@@Z$21
	DD	015H
	DD	FLAT:__unwindfunclet$??0CTabIndices@@QAE@PAVCWnd@@@Z$22
	DD	016H
	DD	FLAT:__unwindfunclet$??0CTabIndices@@QAE@PAVCWnd@@@Z$23
	DD	017H
	DD	FLAT:__unwindfunclet$??0CTabIndices@@QAE@PAVCWnd@@@Z$24
	DD	018H
	DD	FLAT:__unwindfunclet$??0CTabIndices@@QAE@PAVCWnd@@@Z$25
	DD	019H
	DD	FLAT:__unwindfunclet$??0CTabIndices@@QAE@PAVCWnd@@@Z$26
	DD	01aH
	DD	FLAT:__unwindfunclet$??0CTabIndices@@QAE@PAVCWnd@@@Z$27
	DD	01bH
	DD	FLAT:__unwindfunclet$??0CTabIndices@@QAE@PAVCWnd@@@Z$28
	DD	01cH
	DD	FLAT:__unwindfunclet$??0CTabIndices@@QAE@PAVCWnd@@@Z$29
	DD	01dH
	DD	FLAT:__unwindfunclet$??0CTabIndices@@QAE@PAVCWnd@@@Z$30
	DD	01eH
	DD	FLAT:__unwindfunclet$??0CTabIndices@@QAE@PAVCWnd@@@Z$31
	DD	01fH
	DD	FLAT:__unwindfunclet$??0CTabIndices@@QAE@PAVCWnd@@@Z$32
	DD	020H
	DD	FLAT:__unwindfunclet$??0CTabIndices@@QAE@PAVCWnd@@@Z$33
xdata$x	ENDS
;	COMDAT xdata$x
xdata$x	SEGMENT
__unwindtable$?ClearCheckJipyoList@CTabIndices@@QAEXXZ DD 0ffffffffH
	DD	FLAT:__unwindfunclet$?ClearCheckJipyoList@CTabIndices@@QAEXXZ$0
__ehfuncinfo$?ClearCheckJipyoList@CTabIndices@@QAEXXZ DD 019930522H
	DD	01H
	DD	FLAT:__unwindtable$?ClearCheckJipyoList@CTabIndices@@QAEXXZ
	DD	2 DUP(00H)
	DD	2 DUP(00H)
	DD	00H
	DD	01H
xdata$x	ENDS
;	COMDAT xdata$x
xdata$x	SEGMENT
__unwindtable$?MakeCheckedJipyoList@CTabIndices@@QAEXXZ DD 0ffffffffH
	DD	FLAT:__unwindfunclet$?MakeCheckedJipyoList@CTabIndices@@QAEXXZ$2
	DD	0ffffffffH
	DD	FLAT:__unwindfunclet$?MakeCheckedJipyoList@CTabIndices@@QAEXXZ$0
	DD	01H
	DD	FLAT:__unwindfunclet$?MakeCheckedJipyoList@CTabIndices@@QAEXXZ$1
__ehfuncinfo$?MakeCheckedJipyoList@CTabIndices@@QAEXXZ DD 019930522H
	DD	03H
	DD	FLAT:__unwindtable$?MakeCheckedJipyoList@CTabIndices@@QAEXXZ
	DD	2 DUP(00H)
	DD	2 DUP(00H)
	DD	00H
	DD	01H
xdata$x	ENDS
;	COMDAT xdata$x
xdata$x	SEGMENT
__unwindtable$?LookUpStartIndex@CTabIndices@@QAEHH@Z DD 0ffffffffH
	DD	FLAT:__unwindfunclet$?LookUpStartIndex@CTabIndices@@QAEHH@Z$0
	DD	00H
	DD	FLAT:__unwindfunclet$?LookUpStartIndex@CTabIndices@@QAEHH@Z$1
	DD	0ffffffffH
	DD	FLAT:__unwindfunclet$?LookUpStartIndex@CTabIndices@@QAEHH@Z$2
	DD	02H
	DD	FLAT:__unwindfunclet$?LookUpStartIndex@CTabIndices@@QAEHH@Z$3
__ehfuncinfo$?LookUpStartIndex@CTabIndices@@QAEHH@Z DD 019930522H
	DD	04H
	DD	FLAT:__unwindtable$?LookUpStartIndex@CTabIndices@@QAEHH@Z
	DD	2 DUP(00H)
	DD	2 DUP(00H)
	DD	00H
	DD	01H
xdata$x	ENDS
;	COMDAT xdata$x
xdata$x	SEGMENT
__unwindtable$??_GCMenu@@UAEPAXI@Z DD 0ffffffffH
	DD	FLAT:___std_terminate
__ehfuncinfo$??_GCMenu@@UAEPAXI@Z DD 019930522H
	DD	01H
	DD	FLAT:__unwindtable$??_GCMenu@@UAEPAXI@Z
	DD	2 DUP(00H)
	DD	2 DUP(00H)
	DD	00H
	DD	05H
xdata$x	ENDS
;	COMDAT xdata$x
xdata$x	SEGMENT
__ehfuncinfo$??1CMenu@@UAE@XZ DD 019930522H
	DD	00H
	DD	00H
	DD	2 DUP(00H)
	DD	2 DUP(00H)
	DD	00H
	DD	05H
xdata$x	ENDS
;	COMDAT xdata$x
xdata$x	SEGMENT
__catchsym$??1CGdiObject@@UAE@XZ$3 DD 00H
	DD	FLAT:??_R0PAVCException@@@8
	DD	0fffffde4H
	DD	FLAT:__catch$??1CGdiObject@@UAE@XZ$0
__tryblocktable$??1CGdiObject@@UAE@XZ DD 00H
	DD	00H
	DD	02H
	DD	01H
	DD	FLAT:__catchsym$??1CGdiObject@@UAE@XZ$3
__unwindtable$??1CGdiObject@@UAE@XZ DD 0ffffffffH
	DD	00H
	DD	0ffffffffH
	DD	00H
	DD	01H
	DD	FLAT:__unwindfunclet$??1CGdiObject@@UAE@XZ$2
__ehfuncinfo$??1CGdiObject@@UAE@XZ DD 019930522H
	DD	03H
	DD	FLAT:__unwindtable$??1CGdiObject@@UAE@XZ
	DD	01H
	DD	FLAT:__tryblocktable$??1CGdiObject@@UAE@XZ
	DD	2 DUP(00H)
	DD	00H
	DD	05H
xdata$x	ENDS
CRT$XCU	SEGMENT
?RMSG_DRAGSTART$initializer$@@3P6AXXZA DD FLAT:??__ERMSG_DRAGSTART@@YAXXZ ; RMSG_DRAGSTART$initializer$
CRT$XCU	ENDS
CRT$XCU	SEGMENT
?RMSG_DRAGEND$initializer$@@3P6AXXZA DD FLAT:??__ERMSG_DRAGEND@@YAXXZ ; RMSG_DRAGEND$initializer$
CRT$XCU	ENDS
CRT$XCU	SEGMENT
?RMSG_GETSIGNAL_REAL$initializer$@@3P6AXXZA DD FLAT:??__ERMSG_GETSIGNAL_REAL@@YAXXZ ; RMSG_GETSIGNAL_REAL$initializer$
CRT$XCU	ENDS
CRT$XCU	SEGMENT
?RMSG_SETQUERYOPT$initializer$@@3P6AXXZA DD FLAT:??__ERMSG_SETQUERYOPT@@YAXXZ ; RMSG_SETQUERYOPT$initializer$
CRT$XCU	ENDS
CRT$XCU	SEGMENT
?RMSG_CHARTMAIN$initializer$@@3P6AXXZA DD FLAT:??__ERMSG_CHARTMAIN@@YAXXZ ; RMSG_CHARTMAIN$initializer$
CRT$XCU	ENDS
CRT$XCU	SEGMENT
?RMS_ANALYSIS_FUNC$initializer$@@3P6AXXZA DD FLAT:??__ERMS_ANALYSIS_FUNC@@YAXXZ ; RMS_ANALYSIS_FUNC$initializer$
CRT$XCU	ENDS
CRT$XCU	SEGMENT
?RMSG_GET_USERID$initializer$@@3P6AXXZA DD FLAT:??__ERMSG_GET_USERID@@YAXXZ ; RMSG_GET_USERID$initializer$
CRT$XCU	ENDS
CRT$XCU	SEGMENT
?RMSG_CHANGE_SKINCOLOR$initializer$@@3P6AXXZA DD FLAT:??__ERMSG_CHANGE_SKINCOLOR@@YAXXZ ; RMSG_CHANGE_SKINCOLOR$initializer$
CRT$XCU	ENDS
CRT$XCU	SEGMENT
?RMSG_GET_SKINCOLOR$initializer$@@3P6AXXZA DD FLAT:??__ERMSG_GET_SKINCOLOR@@YAXXZ ; RMSG_GET_SKINCOLOR$initializer$
CRT$XCU	ENDS
CRT$XCU	SEGMENT
?RMSG_CHANGEVERTSCALETYPE$initializer$@@3P6AXXZA DD FLAT:??__ERMSG_CHANGEVERTSCALETYPE@@YAXXZ ; RMSG_CHANGEVERTSCALETYPE$initializer$
CRT$XCU	ENDS
CRT$XCU	SEGMENT
?RMSG_CHANGE_CROSSLINE$initializer$@@3P6AXXZA DD FLAT:??__ERMSG_CHANGE_CROSSLINE@@YAXXZ ; RMSG_CHANGE_CROSSLINE$initializer$
CRT$XCU	ENDS
CRT$XCU	SEGMENT
?RMSG_ADD_PLATFORM_MENU$initializer$@@3P6AXXZA DD FLAT:??__ERMSG_ADD_PLATFORM_MENU@@YAXXZ ; RMSG_ADD_PLATFORM_MENU$initializer$
CRT$XCU	ENDS
CRT$XCU	SEGMENT
?RMSG_SETINITIALCHARTDATA$initializer$@@3P6AXXZA DD FLAT:??__ERMSG_SETINITIALCHARTDATA@@YAXXZ ; RMSG_SETINITIALCHARTDATA$initializer$
CRT$XCU	ENDS
CRT$XCU	SEGMENT
?RMSG_GETINFO$initializer$@@3P6AXXZA DD FLAT:??__ERMSG_GETINFO@@YAXXZ ; RMSG_GETINFO$initializer$
CRT$XCU	ENDS
CRT$XCU	SEGMENT
?RMSG_SETINFO$initializer$@@3P6AXXZA DD FLAT:??__ERMSG_SETINFO@@YAXXZ ; RMSG_SETINFO$initializer$
CRT$XCU	ENDS
CRT$XCU	SEGMENT
?RMSG_REPLAY_REAL$initializer$@@3P6AXXZA DD FLAT:??__ERMSG_REPLAY_REAL@@YAXXZ ; RMSG_REPLAY_REAL$initializer$
CRT$XCU	ENDS
CRT$XCU	SEGMENT
?RMSG_REPLAY_FAIL$initializer$@@3P6AXXZA DD FLAT:??__ERMSG_REPLAY_FAIL@@YAXXZ ; RMSG_REPLAY_FAIL$initializer$
CRT$XCU	ENDS
CRT$XCU	SEGMENT
?RMSG_REPLAY_CHANGE_DATE$initializer$@@3P6AXXZA DD FLAT:??__ERMSG_REPLAY_CHANGE_DATE@@YAXXZ ; RMSG_REPLAY_CHANGE_DATE$initializer$
CRT$XCU	ENDS
CRT$XCU	SEGMENT
?RMSG_REPLAY_END$initializer$@@3P6AXXZA DD FLAT:??__ERMSG_REPLAY_END@@YAXXZ ; RMSG_REPLAY_END$initializer$
CRT$XCU	ENDS
CRT$XCU	SEGMENT
?RMSG_REPLAY_INC_SEC$initializer$@@3P6AXXZA DD FLAT:??__ERMSG_REPLAY_INC_SEC@@YAXXZ ; RMSG_REPLAY_INC_SEC$initializer$
CRT$XCU	ENDS
CRT$XCU	SEGMENT
?RMSG_REPLAY_TOTAL_SEC$initializer$@@3P6AXXZA DD FLAT:??__ERMSG_REPLAY_TOTAL_SEC@@YAXXZ ; RMSG_REPLAY_TOTAL_SEC$initializer$
CRT$XCU	ENDS
CRT$XCU	SEGMENT
?RMSG_WMSIZE$initializer$@@3P6AXXZA DD FLAT:??__ERMSG_WMSIZE@@YAXXZ ; RMSG_WMSIZE$initializer$
CRT$XCU	ENDS
; Function compile flags: /Ogtp
; File C:\Program Files (x86)\Microsoft Visual Studio\2019\Community\VC\Tools\MSVC\14.29.30133\atlmfc\include\afxtempl.h
; File C:\Program Files (x86)\Microsoft Visual Studio\2019\Community\VC\Tools\MSVC\14.29.30133\atlmfc\include\afx.inl
; File C:\Program Files (x86)\Microsoft Visual Studio\2019\Community\VC\Tools\MSVC\14.29.30133\atlmfc\include\afxtempl.h
; File C:\Program Files (x86)\Microsoft Visual Studio\2019\Community\VC\Tools\MSVC\14.29.30133\atlmfc\include\afx.inl
; File C:\Program Files (x86)\Microsoft Visual Studio\2019\Community\VC\Tools\MSVC\14.29.30133\atlmfc\include\afxtempl.h
; File C:\Program Files (x86)\Microsoft Visual Studio\2019\Community\VC\Tools\MSVC\14.29.30133\atlmfc\include\afx.inl
; File C:\Program Files (x86)\Microsoft Visual Studio\2019\Community\VC\Tools\MSVC\14.29.30133\atlmfc\include\afxtempl.h
;	COMDAT ??$SerializeElements@PAVCTrTreeCtrl@@@@YGXAAVCArchive@@PAPAVCTrTreeCtrl@@H@Z
_TEXT	SEGMENT
_ar$ = 8						; size = 4
_pElements$ = 12					; size = 4
_nCount$ = 16						; size = 4
??$SerializeElements@PAVCTrTreeCtrl@@@@YGXAAVCArchive@@PAPAVCTrTreeCtrl@@H@Z PROC ; SerializeElements<CTrTreeCtrl *>, COMDAT

; 67   : {

  00000	55		 push	 ebp
  00001	8b ec		 mov	 ebp, esp

; 68   : 	ENSURE(nCount == 0 || pElements != NULL);

  00003	8b 4d 0c	 mov	 ecx, DWORD PTR _pElements$[ebp]
  00006	53		 push	 ebx
  00007	56		 push	 esi
  00008	8b 75 10	 mov	 esi, DWORD PTR _nCount$[ebp]
  0000b	57		 push	 edi
  0000c	85 f6		 test	 esi, esi
  0000e	74 08		 je	 SHORT $LN2@SerializeE
  00010	85 c9		 test	 ecx, ecx
  00012	0f 84 89 00 00
	00		 je	 $LN34@SerializeE
$LN2@SerializeE:
; File C:\Program Files (x86)\Microsoft Visual Studio\2019\Community\VC\Tools\MSVC\14.29.30133\atlmfc\include\afx.inl

; 212  : 	{ return (m_nMode & CArchive::load) == 0; }

  00018	8b 55 08	 mov	 edx, DWORD PTR _ar$[ebp]
  0001b	8b 42 18	 mov	 eax, DWORD PTR [edx+24]
  0001e	f7 d0		 not	 eax
  00020	a8 01		 test	 al, 1
; File C:\Program Files (x86)\Microsoft Visual Studio\2019\Community\VC\Tools\MSVC\14.29.30133\atlmfc\include\afxtempl.h

; 73   : 	if (ar.IsStoring())

  00022	74 3c		 je	 SHORT $LN10@SerializeE

; 74   : 	{
; 75   : 		TYPE* pData;
; 76   : 		UINT_PTR nElementsLeft;
; 77   : 
; 78   : 		nElementsLeft = nCount;
; 79   : 		pData = pElements;
; 80   : 		while( nElementsLeft > 0 )

  00024	85 f6		 test	 esi, esi
  00026	74 31		 je	 SHORT $LN8@SerializeE
  00028	0f 1f 84 00 00
	00 00 00	 npad	 8
$LL5@SerializeE:

; 81   : 		{
; 82   : 			UINT nElementsToWrite;
; 83   : 
; 84   : 			nElementsToWrite = UINT(__min(nElementsLeft, INT_MAX/sizeof(TYPE)));

  00030	bb ff ff ff 1f	 mov	 ebx, 536870911		; 1fffffffH
  00035	3b f3		 cmp	 esi, ebx
  00037	0f 42 de	 cmovb	 ebx, esi

; 85   : 			ar.Write(pData, nElementsToWrite*sizeof(TYPE));

  0003a	8d 3c 9d 00 00
	00 00		 lea	 edi, DWORD PTR [ebx*4]
  00041	57		 push	 edi
  00042	51		 push	 ecx
  00043	8b ca		 mov	 ecx, edx
  00045	e8 00 00 00 00	 call	 ?Write@CArchive@@QAEXPBXI@Z ; CArchive::Write

; 86   : 			nElementsLeft -= nElementsToWrite;
; 87   : 			pData += nElementsToWrite;

  0004a	8b 4d 0c	 mov	 ecx, DWORD PTR _pElements$[ebp]
  0004d	8b 55 08	 mov	 edx, DWORD PTR _ar$[ebp]
  00050	03 cf		 add	 ecx, edi
  00052	89 4d 0c	 mov	 DWORD PTR _pElements$[ebp], ecx
  00055	2b f3		 sub	 esi, ebx
  00057	75 d7		 jne	 SHORT $LL5@SerializeE
$LN8@SerializeE:
  00059	5f		 pop	 edi

; 105  : 		}
; 106  : 	}
; 107  : }

  0005a	5e		 pop	 esi
  0005b	5b		 pop	 ebx
  0005c	5d		 pop	 ebp
  0005d	c2 0c 00	 ret	 12			; 0000000cH
$LN10@SerializeE:

; 97   : 		while( nElementsLeft > 0 )

  00060	85 f6		 test	 esi, esi
  00062	74 f5		 je	 SHORT $LN8@SerializeE
$LL7@SerializeE:

; 98   : 		{
; 99   : 			UINT nElementsToRead;
; 100  : 
; 101  : 			nElementsToRead = UINT(__min(nElementsLeft, INT_MAX/sizeof(TYPE)));

  00064	bf ff ff ff 1f	 mov	 edi, 536870911		; 1fffffffH
  00069	3b f7		 cmp	 esi, edi
  0006b	0f 42 fe	 cmovb	 edi, esi

; 102  : 			ar.EnsureRead(pData, nElementsToRead*sizeof(TYPE));

  0006e	8d 1c bd 00 00
	00 00		 lea	 ebx, DWORD PTR [edi*4]
; File C:\Program Files (x86)\Microsoft Visual Studio\2019\Community\VC\Tools\MSVC\14.29.30133\atlmfc\include\afx.inl

; 399  : 	UINT nRead=Read(lpBuf, nCount);

  00075	53		 push	 ebx
  00076	51		 push	 ecx
  00077	8b ca		 mov	 ecx, edx
  00079	e8 00 00 00 00	 call	 ?Read@CArchive@@QAEIPAXI@Z ; CArchive::Read

; 400  : 	if(nRead!=nCount)

  0007e	3b c3		 cmp	 eax, ebx
  00080	75 16		 jne	 SHORT $LN23@SerializeE
; File C:\Program Files (x86)\Microsoft Visual Studio\2019\Community\VC\Tools\MSVC\14.29.30133\atlmfc\include\afxtempl.h

; 97   : 		while( nElementsLeft > 0 )

  00082	8b 4d 0c	 mov	 ecx, DWORD PTR _pElements$[ebp]
  00085	8b 55 08	 mov	 edx, DWORD PTR _ar$[ebp]

; 103  : 			nElementsLeft -= nElementsToRead;
; 104  : 			pData += nElementsToRead;

  00088	03 cb		 add	 ecx, ebx
  0008a	89 4d 0c	 mov	 DWORD PTR _pElements$[ebp], ecx
  0008d	2b f7		 sub	 esi, edi
  0008f	75 d3		 jne	 SHORT $LL7@SerializeE

; 105  : 		}
; 106  : 	}
; 107  : }

  00091	5f		 pop	 edi
  00092	5e		 pop	 esi
  00093	5b		 pop	 ebx
  00094	5d		 pop	 ebp
  00095	c2 0c 00	 ret	 12			; 0000000cH
$LN23@SerializeE:
; File C:\Program Files (x86)\Microsoft Visual Studio\2019\Community\VC\Tools\MSVC\14.29.30133\atlmfc\include\afx.inl

; 402  : 		AfxThrowArchiveException(CArchiveException::endOfFile);

  00098	6a 00		 push	 0
  0009a	6a 03		 push	 3
  0009c	e8 00 00 00 00	 call	 ?AfxThrowArchiveException@@YGXHPBD@Z ; AfxThrowArchiveException
$LN34@SerializeE:
; File C:\Program Files (x86)\Microsoft Visual Studio\2019\Community\VC\Tools\MSVC\14.29.30133\atlmfc\include\afxtempl.h

; 68   : 	ENSURE(nCount == 0 || pElements != NULL);

  000a1	e8 00 00 00 00	 call	 ?AfxThrowInvalidArgException@@YGXXZ ; AfxThrowInvalidArgException
$LN32@SerializeE:
  000a6	cc		 int	 3
??$SerializeElements@PAVCTrTreeCtrl@@@@YGXAAVCArchive@@PAPAVCTrTreeCtrl@@H@Z ENDP ; SerializeElements<CTrTreeCtrl *>
_TEXT	ENDS
; Function compile flags: /Ogtp
; File D:\git\src\IBK\IBK_DRFN\ProjSrc\SrcDrfn\Chart\MULTICHART\TabIndices.cpp
;	COMDAT ??__ERMSG_WMSIZE@@YAXXZ
text$di	SEGMENT
??__ERMSG_WMSIZE@@YAXXZ PROC				; `dynamic initializer for 'RMSG_WMSIZE'', COMDAT

; 53   : const UINT RMSG_WMSIZE = ::RegisterWindowMessage(_T("RMSG_WMSIZE"));

  00000	68 00 00 00 00	 push	 OFFSET ??_C@_0M@NFOGHAF@RMSG_WMSIZE@
  00005	ff 15 00 00 00
	00		 call	 DWORD PTR __imp__RegisterWindowMessageA@4
  0000b	a3 00 00 00 00	 mov	 DWORD PTR ?RMSG_WMSIZE@@3IB, eax
  00010	c3		 ret	 0
??__ERMSG_WMSIZE@@YAXXZ ENDP				; `dynamic initializer for 'RMSG_WMSIZE''
text$di	ENDS
; Function compile flags: /Ogtp
; File C:\Program Files (x86)\Microsoft Visual Studio\2019\Community\VC\Tools\MSVC\14.29.30133\atlmfc\include\atlcomcli.h
;	COMDAT ??_Estringdispid@CComTypeInfoHolder@ATL@@QAEPAXI@Z
_TEXT	SEGMENT
__$EHRec$ = -12						; size = 12
___flags$ = 8						; size = 4
??_Estringdispid@CComTypeInfoHolder@ATL@@QAEPAXI@Z PROC	; ATL::CComTypeInfoHolder::stringdispid::`vector deleting destructor', COMDAT
; _this$ = ecx
  00000	55		 push	 ebp
  00001	8b ec		 mov	 ebp, esp
  00003	6a ff		 push	 -1
  00005	68 00 00 00 00	 push	 __ehhandler$??_Estringdispid@CComTypeInfoHolder@ATL@@QAEPAXI@Z
  0000a	64 a1 00 00 00
	00		 mov	 eax, DWORD PTR fs:0
  00010	50		 push	 eax
  00011	53		 push	 ebx
  00012	56		 push	 esi
  00013	57		 push	 edi
  00014	a1 00 00 00 00	 mov	 eax, DWORD PTR ___security_cookie
  00019	33 c5		 xor	 eax, ebp
  0001b	50		 push	 eax
  0001c	8d 45 f4	 lea	 eax, DWORD PTR __$EHRec$[ebp]
  0001f	64 a3 00 00 00
	00		 mov	 DWORD PTR fs:0, eax
  00025	8b f1		 mov	 esi, ecx
  00027	8b 45 08	 mov	 eax, DWORD PTR ___flags$[ebp]
  0002a	8b d8		 mov	 ebx, eax
  0002c	83 e3 01	 and	 ebx, 1
  0002f	a8 02		 test	 al, 2
  00031	74 43		 je	 SHORT $LN2@vector
  00033	68 00 00 00 00	 push	 OFFSET ??1stringdispid@CComTypeInfoHolder@ATL@@QAE@XZ
  00038	ff 76 fc	 push	 DWORD PTR [esi-4]
  0003b	8d 7e fc	 lea	 edi, DWORD PTR [esi-4]
  0003e	6a 0c		 push	 12			; 0000000cH
  00040	56		 push	 esi
  00041	e8 00 00 00 00	 call	 ??_M@YGXPAXIIP6EX0@Z@Z
  00046	85 db		 test	 ebx, ebx
  00048	74 16		 je	 SHORT $LN3@vector
  0004a	8b 0f		 mov	 ecx, DWORD PTR [edi]
  0004c	8d 0c 49	 lea	 ecx, DWORD PTR [ecx+ecx*2]
  0004f	8d 0c 8d 04 00
	00 00		 lea	 ecx, DWORD PTR [ecx*4+4]
  00056	51		 push	 ecx
  00057	57		 push	 edi
  00058	e8 00 00 00 00	 call	 ??_V@YAXPAXI@Z		; operator delete[]
  0005d	83 c4 08	 add	 esp, 8
$LN3@vector:
  00060	8b c7		 mov	 eax, edi
  00062	8b 4d f4	 mov	 ecx, DWORD PTR __$EHRec$[ebp]
  00065	64 89 0d 00 00
	00 00		 mov	 DWORD PTR fs:0, ecx
  0006c	59		 pop	 ecx
  0006d	5f		 pop	 edi
  0006e	5e		 pop	 esi
  0006f	5b		 pop	 ebx
  00070	8b e5		 mov	 esp, ebp
  00072	5d		 pop	 ebp
  00073	c2 04 00	 ret	 4
$LN2@vector:

; 1680 :     ::SysFreeString(m_str);

  00076	ff 36		 push	 DWORD PTR [esi]
  00078	ff 15 00 00 00
	00		 call	 DWORD PTR __imp__SysFreeString@4
  0007e	85 db		 test	 ebx, ebx
  00080	74 0b		 je	 SHORT $LN4@vector
  00082	6a 0c		 push	 12			; 0000000cH
  00084	56		 push	 esi
  00085	e8 00 00 00 00	 call	 ??3@YAXPAXI@Z		; operator delete
  0008a	83 c4 08	 add	 esp, 8
$LN4@vector:
  0008d	8b c6		 mov	 eax, esi
  0008f	8b 4d f4	 mov	 ecx, DWORD PTR __$EHRec$[ebp]
  00092	64 89 0d 00 00
	00 00		 mov	 DWORD PTR fs:0, ecx
  00099	59		 pop	 ecx
  0009a	5f		 pop	 edi
  0009b	5e		 pop	 esi
  0009c	5b		 pop	 ebx
  0009d	8b e5		 mov	 esp, ebp
  0009f	5d		 pop	 ebp
  000a0	c2 04 00	 ret	 4
  000a3	cc		 int	 3
  000a4	cc		 int	 3
  000a5	cc		 int	 3
  000a6	cc		 int	 3
  000a7	cc		 int	 3
_TEXT	ENDS
;	COMDAT text$x
text$x	SEGMENT
__ehhandler$??_Estringdispid@CComTypeInfoHolder@ATL@@QAEPAXI@Z:
  00000	90		 npad	 1
  00001	90		 npad	 1
  00002	8b 54 24 08	 mov	 edx, DWORD PTR [esp+8]
  00006	8d 42 0c	 lea	 eax, DWORD PTR [edx+12]
  00009	8b 4a f0	 mov	 ecx, DWORD PTR [edx-16]
  0000c	33 c8		 xor	 ecx, eax
  0000e	e8 00 00 00 00	 call	 @__security_check_cookie@4
  00013	b8 00 00 00 00	 mov	 eax, OFFSET __ehfuncinfo$??_Estringdispid@CComTypeInfoHolder@ATL@@QAEPAXI@Z
  00018	e9 00 00 00 00	 jmp	 ___CxxFrameHandler3
text$x	ENDS
??_Estringdispid@CComTypeInfoHolder@ATL@@QAEPAXI@Z ENDP	; ATL::CComTypeInfoHolder::stringdispid::`vector deleting destructor'
; Function compile flags: /Ogtp
; File C:\Program Files (x86)\Microsoft Visual Studio\2019\Community\VC\Tools\MSVC\14.29.30133\atlmfc\include\atlcomcli.h
;	COMDAT ??1stringdispid@CComTypeInfoHolder@ATL@@QAE@XZ
_TEXT	SEGMENT
??1stringdispid@CComTypeInfoHolder@ATL@@QAE@XZ PROC	; ATL::CComTypeInfoHolder::stringdispid::~stringdispid, COMDAT
; _this$ = ecx

; 1680 :     ::SysFreeString(m_str);

  00000	ff 31		 push	 DWORD PTR [ecx]
  00002	ff 15 00 00 00
	00		 call	 DWORD PTR __imp__SysFreeString@4
  00008	c3		 ret	 0
??1stringdispid@CComTypeInfoHolder@ATL@@QAE@XZ ENDP	; ATL::CComTypeInfoHolder::stringdispid::~stringdispid
_TEXT	ENDS
; Function compile flags: /Ogtp
; File D:\git\src\IBK\IBK_DRFN\ProjSrc\SrcDrfn\Chart\chart_common\ReplayChartInfoDef.h
;	COMDAT ??__ERMSG_REPLAY_TOTAL_SEC@@YAXXZ
text$di	SEGMENT
??__ERMSG_REPLAY_TOTAL_SEC@@YAXXZ PROC			; `dynamic initializer for 'RMSG_REPLAY_TOTAL_SEC'', COMDAT

; 97   : 	const UINT RMSG_REPLAY_TOTAL_SEC = ::RegisterWindowMessage(_T("RMSG_REPLAY_TOTAL_SEC"));		//  () 

  00000	68 00 00 00 00	 push	 OFFSET ??_C@_0BG@GIAJEIJF@RMSG_REPLAY_TOTAL_SEC@
  00005	ff 15 00 00 00
	00		 call	 DWORD PTR __imp__RegisterWindowMessageA@4
  0000b	a3 00 00 00 00	 mov	 DWORD PTR ?RMSG_REPLAY_TOTAL_SEC@@3IB, eax
  00010	c3		 ret	 0
??__ERMSG_REPLAY_TOTAL_SEC@@YAXXZ ENDP			; `dynamic initializer for 'RMSG_REPLAY_TOTAL_SEC''
text$di	ENDS
; Function compile flags: /Ogtp
; File D:\git\src\IBK\IBK_DRFN\ProjSrc\SrcDrfn\Chart\chart_common\ReplayChartInfoDef.h
;	COMDAT ??__ERMSG_REPLAY_INC_SEC@@YAXXZ
text$di	SEGMENT
??__ERMSG_REPLAY_INC_SEC@@YAXXZ PROC			; `dynamic initializer for 'RMSG_REPLAY_INC_SEC'', COMDAT

; 96   : 	const UINT RMSG_REPLAY_INC_SEC = ::RegisterWindowMessage(_T("RMSG_REPLAY_INC_SEC"));			// 1   

  00000	68 00 00 00 00	 push	 OFFSET ??_C@_0BE@JFCIMCIP@RMSG_REPLAY_INC_SEC@
  00005	ff 15 00 00 00
	00		 call	 DWORD PTR __imp__RegisterWindowMessageA@4
  0000b	a3 00 00 00 00	 mov	 DWORD PTR ?RMSG_REPLAY_INC_SEC@@3IB, eax
  00010	c3		 ret	 0
??__ERMSG_REPLAY_INC_SEC@@YAXXZ ENDP			; `dynamic initializer for 'RMSG_REPLAY_INC_SEC''
text$di	ENDS
; Function compile flags: /Ogtp
; File D:\git\src\IBK\IBK_DRFN\ProjSrc\SrcDrfn\Chart\chart_common\ReplayChartInfoDef.h
;	COMDAT ??__ERMSG_REPLAY_END@@YAXXZ
text$di	SEGMENT
??__ERMSG_REPLAY_END@@YAXXZ PROC			; `dynamic initializer for 'RMSG_REPLAY_END'', COMDAT

; 95   : 	const UINT RMSG_REPLAY_END			= ::RegisterWindowMessage(_T("RMSG_REPLAY_END"));

  00000	68 00 00 00 00	 push	 OFFSET ??_C@_0BA@NKHHCPON@RMSG_REPLAY_END@
  00005	ff 15 00 00 00
	00		 call	 DWORD PTR __imp__RegisterWindowMessageA@4
  0000b	a3 00 00 00 00	 mov	 DWORD PTR ?RMSG_REPLAY_END@@3IB, eax
  00010	c3		 ret	 0
??__ERMSG_REPLAY_END@@YAXXZ ENDP			; `dynamic initializer for 'RMSG_REPLAY_END''
text$di	ENDS
; Function compile flags: /Ogtp
; File D:\git\src\IBK\IBK_DRFN\ProjSrc\SrcDrfn\Chart\chart_common\ReplayChartInfoDef.h
;	COMDAT ??__ERMSG_REPLAY_CHANGE_DATE@@YAXXZ
text$di	SEGMENT
??__ERMSG_REPLAY_CHANGE_DATE@@YAXXZ PROC		; `dynamic initializer for 'RMSG_REPLAY_CHANGE_DATE'', COMDAT

; 94   : 	const UINT RMSG_REPLAY_CHANGE_DATE	= ::RegisterWindowMessage(_T("RMSG_REPLAY_CHANGE_DATE"));

  00000	68 00 00 00 00	 push	 OFFSET ??_C@_0BI@KDGAIIMD@RMSG_REPLAY_CHANGE_DATE@
  00005	ff 15 00 00 00
	00		 call	 DWORD PTR __imp__RegisterWindowMessageA@4
  0000b	a3 00 00 00 00	 mov	 DWORD PTR ?RMSG_REPLAY_CHANGE_DATE@@3IB, eax
  00010	c3		 ret	 0
??__ERMSG_REPLAY_CHANGE_DATE@@YAXXZ ENDP		; `dynamic initializer for 'RMSG_REPLAY_CHANGE_DATE''
text$di	ENDS
; Function compile flags: /Ogtp
; File D:\git\src\IBK\IBK_DRFN\ProjSrc\SrcDrfn\Chart\chart_common\ReplayChartInfoDef.h
;	COMDAT ??__ERMSG_REPLAY_FAIL@@YAXXZ
text$di	SEGMENT
??__ERMSG_REPLAY_FAIL@@YAXXZ PROC			; `dynamic initializer for 'RMSG_REPLAY_FAIL'', COMDAT

; 93   : 	const UINT RMSG_REPLAY_FAIL			= ::RegisterWindowMessage(_T("RMSG_REPLAY_FAIL"));

  00000	68 00 00 00 00	 push	 OFFSET ??_C@_0BB@JFLGBADG@RMSG_REPLAY_FAIL@
  00005	ff 15 00 00 00
	00		 call	 DWORD PTR __imp__RegisterWindowMessageA@4
  0000b	a3 00 00 00 00	 mov	 DWORD PTR ?RMSG_REPLAY_FAIL@@3IB, eax
  00010	c3		 ret	 0
??__ERMSG_REPLAY_FAIL@@YAXXZ ENDP			; `dynamic initializer for 'RMSG_REPLAY_FAIL''
text$di	ENDS
; Function compile flags: /Ogtp
; File D:\git\src\IBK\IBK_DRFN\ProjSrc\SrcDrfn\Chart\chart_common\ReplayChartInfoDef.h
;	COMDAT ??__ERMSG_REPLAY_REAL@@YAXXZ
text$di	SEGMENT
??__ERMSG_REPLAY_REAL@@YAXXZ PROC			; `dynamic initializer for 'RMSG_REPLAY_REAL'', COMDAT

; 92   : 	const UINT RMSG_REPLAY_REAL			= ::RegisterWindowMessage(_T("RMSG_REPLAY_REAL"));

  00000	68 00 00 00 00	 push	 OFFSET ??_C@_0BB@IBKHOHJL@RMSG_REPLAY_REAL@
  00005	ff 15 00 00 00
	00		 call	 DWORD PTR __imp__RegisterWindowMessageA@4
  0000b	a3 00 00 00 00	 mov	 DWORD PTR ?RMSG_REPLAY_REAL@@3IB, eax
  00010	c3		 ret	 0
??__ERMSG_REPLAY_REAL@@YAXXZ ENDP			; `dynamic initializer for 'RMSG_REPLAY_REAL''
text$di	ENDS
; Function compile flags: /Ogtp
; File D:\git\src\IBK\IBK_DRFN\ProjSrc\SrcDrfn\Chart\MULTICHART\define\ChartMsgDef.h
;	COMDAT ??__ERMSG_SETINFO@@YAXXZ
text$di	SEGMENT
??__ERMSG_SETINFO@@YAXXZ PROC				; `dynamic initializer for 'RMSG_SETINFO'', COMDAT

; 238  : const UINT RMSG_SETINFO = ::RegisterWindowMessage(_T("RMSG_SETINFO"));

  00000	68 00 00 00 00	 push	 OFFSET ??_C@_0N@HABLPHJG@RMSG_SETINFO@
  00005	ff 15 00 00 00
	00		 call	 DWORD PTR __imp__RegisterWindowMessageA@4
  0000b	a3 00 00 00 00	 mov	 DWORD PTR ?RMSG_SETINFO@@3IB, eax
  00010	c3		 ret	 0
??__ERMSG_SETINFO@@YAXXZ ENDP				; `dynamic initializer for 'RMSG_SETINFO''
text$di	ENDS
; Function compile flags: /Ogtp
; File D:\git\src\IBK\IBK_DRFN\ProjSrc\SrcDrfn\Chart\MULTICHART\define\ChartMsgDef.h
;	COMDAT ??__ERMSG_GETINFO@@YAXXZ
text$di	SEGMENT
??__ERMSG_GETINFO@@YAXXZ PROC				; `dynamic initializer for 'RMSG_GETINFO'', COMDAT

; 237  : const UINT RMSG_GETINFO = ::RegisterWindowMessage(_T("RMSG_GETINFO"));

  00000	68 00 00 00 00	 push	 OFFSET ??_C@_0N@IIOKMIEH@RMSG_GETINFO@
  00005	ff 15 00 00 00
	00		 call	 DWORD PTR __imp__RegisterWindowMessageA@4
  0000b	a3 00 00 00 00	 mov	 DWORD PTR ?RMSG_GETINFO@@3IB, eax
  00010	c3		 ret	 0
??__ERMSG_GETINFO@@YAXXZ ENDP				; `dynamic initializer for 'RMSG_GETINFO''
text$di	ENDS
; Function compile flags: /Ogtp
; File D:\git\src\IBK\IBK_DRFN\ProjSrc\SrcDrfn\Chart\MULTICHART\define\ChartMsgDef.h
;	COMDAT ??__ERMSG_SETINITIALCHARTDATA@@YAXXZ
text$di	SEGMENT
??__ERMSG_SETINITIALCHARTDATA@@YAXXZ PROC		; `dynamic initializer for 'RMSG_SETINITIALCHARTDATA'', COMDAT

; 235  : const UINT RMSG_SETINITIALCHARTDATA = ::RegisterWindowMessage(_T("RMSG_SETINITIALCHARTDATA"));

  00000	68 00 00 00 00	 push	 OFFSET ??_C@_0BJ@OGNAJHHI@RMSG_SETINITIALCHARTDATA@
  00005	ff 15 00 00 00
	00		 call	 DWORD PTR __imp__RegisterWindowMessageA@4
  0000b	a3 00 00 00 00	 mov	 DWORD PTR ?RMSG_SETINITIALCHARTDATA@@3IB, eax
  00010	c3		 ret	 0
??__ERMSG_SETINITIALCHARTDATA@@YAXXZ ENDP		; `dynamic initializer for 'RMSG_SETINITIALCHARTDATA''
text$di	ENDS
; Function compile flags: /Ogtp
; File D:\git\src\IBK\IBK_DRFN\ProjSrc\SrcDrfn\Chart\MULTICHART\define\ChartMsgDef.h
;	COMDAT ??__ERMSG_ADD_PLATFORM_MENU@@YAXXZ
text$di	SEGMENT
??__ERMSG_ADD_PLATFORM_MENU@@YAXXZ PROC			; `dynamic initializer for 'RMSG_ADD_PLATFORM_MENU'', COMDAT

; 233  : const UINT RMSG_ADD_PLATFORM_MENU = ::RegisterWindowMessage(_T("RMSG_ADD_PLATFORM_MENU"));

  00000	68 00 00 00 00	 push	 OFFSET ??_C@_0BH@IFDMIMBP@RMSG_ADD_PLATFORM_MENU@
  00005	ff 15 00 00 00
	00		 call	 DWORD PTR __imp__RegisterWindowMessageA@4
  0000b	a3 00 00 00 00	 mov	 DWORD PTR ?RMSG_ADD_PLATFORM_MENU@@3IB, eax
  00010	c3		 ret	 0
??__ERMSG_ADD_PLATFORM_MENU@@YAXXZ ENDP			; `dynamic initializer for 'RMSG_ADD_PLATFORM_MENU''
text$di	ENDS
; Function compile flags: /Ogtp
; File D:\git\src\IBK\IBK_DRFN\ProjSrc\SrcDrfn\Chart\MULTICHART\define\ChartMsgDef.h
;	COMDAT ??__ERMSG_CHANGE_CROSSLINE@@YAXXZ
text$di	SEGMENT
??__ERMSG_CHANGE_CROSSLINE@@YAXXZ PROC			; `dynamic initializer for 'RMSG_CHANGE_CROSSLINE'', COMDAT

; 231  : const UINT RMSG_CHANGE_CROSSLINE = ::RegisterWindowMessage(_T("RMSG_CHANGE_CROSSLINE"));

  00000	68 00 00 00 00	 push	 OFFSET ??_C@_0BG@LNLCJKPF@RMSG_CHANGE_CROSSLINE@
  00005	ff 15 00 00 00
	00		 call	 DWORD PTR __imp__RegisterWindowMessageA@4
  0000b	a3 00 00 00 00	 mov	 DWORD PTR ?RMSG_CHANGE_CROSSLINE@@3IB, eax
  00010	c3		 ret	 0
??__ERMSG_CHANGE_CROSSLINE@@YAXXZ ENDP			; `dynamic initializer for 'RMSG_CHANGE_CROSSLINE''
text$di	ENDS
; Function compile flags: /Ogtp
; File D:\git\src\IBK\IBK_DRFN\ProjSrc\SrcDrfn\Chart\MULTICHART\define\ChartMsgDef.h
;	COMDAT ??__ERMSG_CHANGEVERTSCALETYPE@@YAXXZ
text$di	SEGMENT
??__ERMSG_CHANGEVERTSCALETYPE@@YAXXZ PROC		; `dynamic initializer for 'RMSG_CHANGEVERTSCALETYPE'', COMDAT

; 229  : const UINT RMSG_CHANGEVERTSCALETYPE = ::RegisterWindowMessage(_T("RMSG_CHANGEVERTSCALETYPE"));

  00000	68 00 00 00 00	 push	 OFFSET ??_C@_0BJ@JLKHIBIK@RMSG_CHANGEVERTSCALETYPE@
  00005	ff 15 00 00 00
	00		 call	 DWORD PTR __imp__RegisterWindowMessageA@4
  0000b	a3 00 00 00 00	 mov	 DWORD PTR ?RMSG_CHANGEVERTSCALETYPE@@3IB, eax
  00010	c3		 ret	 0
??__ERMSG_CHANGEVERTSCALETYPE@@YAXXZ ENDP		; `dynamic initializer for 'RMSG_CHANGEVERTSCALETYPE''
text$di	ENDS
; Function compile flags: /Ogtp
; File D:\git\src\IBK\IBK_DRFN\ProjSrc\SrcDrfn\Chart\MULTICHART\define\ChartMsgDef.h
;	COMDAT ??__ERMSG_GET_SKINCOLOR@@YAXXZ
text$di	SEGMENT
??__ERMSG_GET_SKINCOLOR@@YAXXZ PROC			; `dynamic initializer for 'RMSG_GET_SKINCOLOR'', COMDAT

; 226  : const UINT RMSG_GET_SKINCOLOR = ::RegisterWindowMessage(_T("RMSG_GET_SKINCOLOR"));

  00000	68 00 00 00 00	 push	 OFFSET ??_C@_0BD@FLDNDDHK@RMSG_GET_SKINCOLOR@
  00005	ff 15 00 00 00
	00		 call	 DWORD PTR __imp__RegisterWindowMessageA@4
  0000b	a3 00 00 00 00	 mov	 DWORD PTR ?RMSG_GET_SKINCOLOR@@3IB, eax
  00010	c3		 ret	 0
??__ERMSG_GET_SKINCOLOR@@YAXXZ ENDP			; `dynamic initializer for 'RMSG_GET_SKINCOLOR''
text$di	ENDS
; Function compile flags: /Ogtp
; File D:\git\src\IBK\IBK_DRFN\ProjSrc\SrcDrfn\Chart\MULTICHART\define\ChartMsgDef.h
;	COMDAT ??__ERMSG_CHANGE_SKINCOLOR@@YAXXZ
text$di	SEGMENT
??__ERMSG_CHANGE_SKINCOLOR@@YAXXZ PROC			; `dynamic initializer for 'RMSG_CHANGE_SKINCOLOR'', COMDAT

; 225  : const UINT RMSG_CHANGE_SKINCOLOR = ::RegisterWindowMessage(_T("RMSG_CHANGE_SKINCOLOR"));

  00000	68 00 00 00 00	 push	 OFFSET ??_C@_0BG@CNPAHNGG@RMSG_CHANGE_SKINCOLOR@
  00005	ff 15 00 00 00
	00		 call	 DWORD PTR __imp__RegisterWindowMessageA@4
  0000b	a3 00 00 00 00	 mov	 DWORD PTR ?RMSG_CHANGE_SKINCOLOR@@3IB, eax
  00010	c3		 ret	 0
??__ERMSG_CHANGE_SKINCOLOR@@YAXXZ ENDP			; `dynamic initializer for 'RMSG_CHANGE_SKINCOLOR''
text$di	ENDS
; Function compile flags: /Ogtp
; File D:\git\src\IBK\IBK_DRFN\ProjSrc\SrcDrfn\Chart\MULTICHART\define\ChartMsgDef.h
;	COMDAT ??__ERMSG_GET_USERID@@YAXXZ
text$di	SEGMENT
??__ERMSG_GET_USERID@@YAXXZ PROC			; `dynamic initializer for 'RMSG_GET_USERID'', COMDAT

; 215  : const UINT RMSG_GET_USERID = ::RegisterWindowMessage(_T("RMSG_GET_USERID"));	// User ID 

  00000	68 00 00 00 00	 push	 OFFSET ??_C@_0BA@HKNFENJL@RMSG_GET_USERID@
  00005	ff 15 00 00 00
	00		 call	 DWORD PTR __imp__RegisterWindowMessageA@4
  0000b	a3 00 00 00 00	 mov	 DWORD PTR ?RMSG_GET_USERID@@3IB, eax
  00010	c3		 ret	 0
??__ERMSG_GET_USERID@@YAXXZ ENDP			; `dynamic initializer for 'RMSG_GET_USERID''
text$di	ENDS
; Function compile flags: /Ogtp
; File D:\git\src\IBK\IBK_DRFN\ProjSrc\SrcDrfn\Chart\MULTICHART\define\ChartMsgDef.h
;	COMDAT ??__ERMS_ANALYSIS_FUNC@@YAXXZ
text$di	SEGMENT
??__ERMS_ANALYSIS_FUNC@@YAXXZ PROC			; `dynamic initializer for 'RMS_ANALYSIS_FUNC'', COMDAT

; 211  : const UINT RMS_ANALYSIS_FUNC	= ::RegisterWindowMessage(_T("RMS_ANALYSIS_FUNC"));

  00000	68 00 00 00 00	 push	 OFFSET ??_C@_0BC@MMPGLPDH@RMS_ANALYSIS_FUNC@
  00005	ff 15 00 00 00
	00		 call	 DWORD PTR __imp__RegisterWindowMessageA@4
  0000b	a3 00 00 00 00	 mov	 DWORD PTR ?RMS_ANALYSIS_FUNC@@3IB, eax
  00010	c3		 ret	 0
??__ERMS_ANALYSIS_FUNC@@YAXXZ ENDP			; `dynamic initializer for 'RMS_ANALYSIS_FUNC''
text$di	ENDS
; Function compile flags: /Ogtp
; File D:\git\src\IBK\IBK_DRFN\ProjSrc\SrcDrfn\Chart\MULTICHART\define\ChartMsgDef.h
;	COMDAT ??__ERMSG_CHARTMAIN@@YAXXZ
text$di	SEGMENT
??__ERMSG_CHARTMAIN@@YAXXZ PROC				; `dynamic initializer for 'RMSG_CHARTMAIN'', COMDAT

; 208  : const UINT RMSG_CHARTMAIN		= ::RegisterWindowMessage(_T("RMSG_CHARTMAIN"));

  00000	68 00 00 00 00	 push	 OFFSET ??_C@_0P@KHFCBIOH@RMSG_CHARTMAIN@
  00005	ff 15 00 00 00
	00		 call	 DWORD PTR __imp__RegisterWindowMessageA@4
  0000b	a3 00 00 00 00	 mov	 DWORD PTR ?RMSG_CHARTMAIN@@3IB, eax
  00010	c3		 ret	 0
??__ERMSG_CHARTMAIN@@YAXXZ ENDP				; `dynamic initializer for 'RMSG_CHARTMAIN''
text$di	ENDS
; Function compile flags: /Ogtp
; File D:\git\src\IBK\IBK_DRFN\ProjSrc\SrcDrfn\Chart\MULTICHART\define\ChartMsgDef.h
;	COMDAT ??__ERMSG_SETQUERYOPT@@YAXXZ
text$di	SEGMENT
??__ERMSG_SETQUERYOPT@@YAXXZ PROC			; `dynamic initializer for 'RMSG_SETQUERYOPT'', COMDAT

; 183  : const UINT RMSG_SETQUERYOPT = ::RegisterWindowMessage(_T("RMSG_SETQUERYOPT"));

  00000	68 00 00 00 00	 push	 OFFSET ??_C@_0BB@CNOFPEHG@RMSG_SETQUERYOPT@
  00005	ff 15 00 00 00
	00		 call	 DWORD PTR __imp__RegisterWindowMessageA@4
  0000b	a3 00 00 00 00	 mov	 DWORD PTR ?RMSG_SETQUERYOPT@@3IB, eax
  00010	c3		 ret	 0
??__ERMSG_SETQUERYOPT@@YAXXZ ENDP			; `dynamic initializer for 'RMSG_SETQUERYOPT''
text$di	ENDS
; Function compile flags: /Ogtp
; File D:\git\src\IBK\IBK_DRFN\ProjSrc\SrcDrfn\Chart\commontr\TRDefine.h
;	COMDAT ??__ERMSG_GETSIGNAL_REAL@@YAXXZ
text$di	SEGMENT
??__ERMSG_GETSIGNAL_REAL@@YAXXZ PROC			; `dynamic initializer for 'RMSG_GETSIGNAL_REAL'', COMDAT

; 213  : const UINT RMSG_GETSIGNAL_REAL = ::RegisterWindowMessage(_T("RMSG_GETSIGNAL_REAL"));

  00000	68 00 00 00 00	 push	 OFFSET ??_C@_0BE@FJPKENOB@RMSG_GETSIGNAL_REAL@
  00005	ff 15 00 00 00
	00		 call	 DWORD PTR __imp__RegisterWindowMessageA@4
  0000b	a3 00 00 00 00	 mov	 DWORD PTR ?RMSG_GETSIGNAL_REAL@@3IB, eax
  00010	c3		 ret	 0
??__ERMSG_GETSIGNAL_REAL@@YAXXZ ENDP			; `dynamic initializer for 'RMSG_GETSIGNAL_REAL''
text$di	ENDS
; Function compile flags: /Ogtp
; File D:\git\src\IBK\IBK_DRFN\ProjSrc\SrcDrfn\Chart\MULTICHART\define\DragNDropDefine.h
;	COMDAT ??__ERMSG_DRAGEND@@YAXXZ
text$di	SEGMENT
??__ERMSG_DRAGEND@@YAXXZ PROC				; `dynamic initializer for 'RMSG_DRAGEND'', COMDAT

; 5    : const UINT RMSG_DRAGEND				= ::RegisterWindowMessage(_T("RMSG_DRAGEND"));

  00000	68 00 00 00 00	 push	 OFFSET ??_C@_0N@HCNBEPNP@RMSG_DRAGEND@
  00005	ff 15 00 00 00
	00		 call	 DWORD PTR __imp__RegisterWindowMessageA@4
  0000b	a3 00 00 00 00	 mov	 DWORD PTR ?RMSG_DRAGEND@@3IB, eax
  00010	c3		 ret	 0
??__ERMSG_DRAGEND@@YAXXZ ENDP				; `dynamic initializer for 'RMSG_DRAGEND''
text$di	ENDS
; Function compile flags: /Ogtp
; File D:\git\src\IBK\IBK_DRFN\ProjSrc\SrcDrfn\Chart\MULTICHART\define\DragNDropDefine.h
;	COMDAT ??__ERMSG_DRAGSTART@@YAXXZ
text$di	SEGMENT
??__ERMSG_DRAGSTART@@YAXXZ PROC				; `dynamic initializer for 'RMSG_DRAGSTART'', COMDAT

; 4    : const UINT RMSG_DRAGSTART			= ::RegisterWindowMessage(_T("RMSG_DRAGSTART"));

  00000	68 00 00 00 00	 push	 OFFSET ??_C@_0P@JJCNALBJ@RMSG_DRAGSTART@
  00005	ff 15 00 00 00
	00		 call	 DWORD PTR __imp__RegisterWindowMessageA@4
  0000b	a3 00 00 00 00	 mov	 DWORD PTR ?RMSG_DRAGSTART@@3IB, eax
  00010	c3		 ret	 0
??__ERMSG_DRAGSTART@@YAXXZ ENDP				; `dynamic initializer for 'RMSG_DRAGSTART''
text$di	ENDS
; Function compile flags: /Ogtp
; File C:\Program Files (x86)\Microsoft Visual Studio\2019\Community\VC\Tools\MSVC\14.29.30133\atlmfc\include\afx.inl
;	COMDAT ??_GCTabIndices@@UAEPAXI@Z
_TEXT	SEGMENT
___flags$ = 8						; size = 4
??_GCTabIndices@@UAEPAXI@Z PROC				; CTabIndices::`scalar deleting destructor', COMDAT
; _this$ = ecx
  00000	55		 push	 ebp
  00001	8b ec		 mov	 ebp, esp
  00003	56		 push	 esi
  00004	8b f1		 mov	 esi, ecx
  00006	e8 00 00 00 00	 call	 ??1CTabIndices@@UAE@XZ
  0000b	8b 45 08	 mov	 eax, DWORD PTR ___flags$[ebp]
  0000e	a8 01		 test	 al, 1
  00010	74 22		 je	 SHORT $LN9@scalar
  00012	a8 04		 test	 al, 4
  00014	75 10		 jne	 SHORT $LN3@scalar

; 112  : 	{ ::operator delete(p); }

  00016	56		 push	 esi
  00017	e8 00 00 00 00	 call	 ??3@YAXPAX@Z		; operator delete
  0001c	83 c4 04	 add	 esp, 4
  0001f	8b c6		 mov	 eax, esi
  00021	5e		 pop	 esi
  00022	5d		 pop	 ebp
  00023	c2 04 00	 ret	 4
$LN3@scalar:
  00026	68 a0 17 00 00	 push	 6048			; 000017a0H
  0002b	56		 push	 esi
  0002c	e8 00 00 00 00	 call	 ?__global_delete@@YAXPAXI@Z ; __global_delete
  00031	83 c4 08	 add	 esp, 8
$LN9@scalar:
  00034	8b c6		 mov	 eax, esi
  00036	5e		 pop	 esi
  00037	5d		 pop	 ebp
  00038	c2 04 00	 ret	 4
??_GCTabIndices@@UAEPAXI@Z ENDP				; CTabIndices::`scalar deleting destructor'
_TEXT	ENDS
; Function compile flags: /Ogtp
; File C:\Program Files (x86)\Microsoft Visual Studio\2019\Community\VC\Tools\MSVC\14.29.30133\atlmfc\include\afxtempl.h
;	COMDAT ??1CTabIndices@@UAE@XZ
_TEXT	SEGMENT
__$EHRec$ = -12						; size = 12
??1CTabIndices@@UAE@XZ PROC				; CTabIndices::~CTabIndices, COMDAT
; _this$ = ecx
  00000	55		 push	 ebp
  00001	8b ec		 mov	 ebp, esp
  00003	6a ff		 push	 -1
  00005	68 00 00 00 00	 push	 __ehhandler$??1CTabIndices@@UAE@XZ
  0000a	64 a1 00 00 00
	00		 mov	 eax, DWORD PTR fs:0
  00010	50		 push	 eax
  00011	56		 push	 esi
  00012	a1 00 00 00 00	 mov	 eax, DWORD PTR ___security_cookie
  00017	33 c5		 xor	 eax, ebp
  00019	50		 push	 eax
  0001a	8d 45 f4	 lea	 eax, DWORD PTR __$EHRec$[ebp]
  0001d	64 a3 00 00 00
	00		 mov	 DWORD PTR fs:0, eax
  00023	8b f1		 mov	 esi, ecx
  00025	8d 8e 98 17 00
	00		 lea	 ecx, DWORD PTR [esi+6040]
  0002b	e8 00 00 00 00	 call	 ??1CImageList@@UAE@XZ	; CImageList::~CImageList
  00030	8d 8e 90 17 00
	00		 lea	 ecx, DWORD PTR [esi+6032]
  00036	e8 00 00 00 00	 call	 ??1CImageList@@UAE@XZ	; CImageList::~CImageList
  0003b	8d 8e 6c 17 00
	00		 lea	 ecx, DWORD PTR [esi+5996]
  00041	e8 00 00 00 00	 call	 ??1CStringArray@@UAE@XZ	; CStringArray::~CStringArray
  00046	8d 8e 58 17 00
	00		 lea	 ecx, DWORD PTR [esi+5976]
  0004c	e8 00 00 00 00	 call	 ??1CStringArray@@UAE@XZ	; CStringArray::~CStringArray
  00051	8d 8e 44 17 00
	00		 lea	 ecx, DWORD PTR [esi+5956]
  00057	e8 00 00 00 00	 call	 ??1CStringArray@@UAE@XZ	; CStringArray::~CStringArray
  0005c	8d 8e 30 17 00
	00		 lea	 ecx, DWORD PTR [esi+5936]
  00062	e8 00 00 00 00	 call	 ??1CStringArray@@UAE@XZ	; CStringArray::~CStringArray
  00067	8d 8e 1c 17 00
	00		 lea	 ecx, DWORD PTR [esi+5916]
  0006d	e8 00 00 00 00	 call	 ??1CStringArray@@UAE@XZ	; CStringArray::~CStringArray
  00072	8d 8e 08 17 00
	00		 lea	 ecx, DWORD PTR [esi+5896]
  00078	e8 00 00 00 00	 call	 ??1CStringArray@@UAE@XZ	; CStringArray::~CStringArray
  0007d	8d 8e f4 16 00
	00		 lea	 ecx, DWORD PTR [esi+5876]
  00083	e8 00 00 00 00	 call	 ??1CStringArray@@UAE@XZ	; CStringArray::~CStringArray
  00088	8d 8e e0 16 00
	00		 lea	 ecx, DWORD PTR [esi+5856]
  0008e	e8 00 00 00 00	 call	 ??1CStringArray@@UAE@XZ	; CStringArray::~CStringArray
  00093	8d 8e 48 16 00
	00		 lea	 ecx, DWORD PTR [esi+5704]
  00099	e8 00 00 00 00	 call	 ??1CTrTreeCtrl@@UAE@XZ	; CTrTreeCtrl::~CTrTreeCtrl
  0009e	8d 8e e8 14 00
	00		 lea	 ecx, DWORD PTR [esi+5352]
  000a4	e8 00 00 00 00	 call	 ??1CILButton@@UAE@XZ	; CILButton::~CILButton
  000a9	8d 8e 88 13 00
	00		 lea	 ecx, DWORD PTR [esi+5000]
  000af	e8 00 00 00 00	 call	 ??1CILButton@@UAE@XZ	; CILButton::~CILButton
  000b4	8d 8e 28 12 00
	00		 lea	 ecx, DWORD PTR [esi+4648]
  000ba	e8 00 00 00 00	 call	 ??1CILButton@@UAE@XZ	; CILButton::~CILButton
  000bf	8d 8e c8 10 00
	00		 lea	 ecx, DWORD PTR [esi+4296]
  000c5	e8 00 00 00 00	 call	 ??1CILButton@@UAE@XZ	; CILButton::~CILButton
  000ca	8d 8e 68 0f 00
	00		 lea	 ecx, DWORD PTR [esi+3944]
  000d0	e8 00 00 00 00	 call	 ??1CILButton@@UAE@XZ	; CILButton::~CILButton
  000d5	8d 8e e8 0e 00
	00		 lea	 ecx, DWORD PTR [esi+3816]
  000db	e8 00 00 00 00	 call	 ??1CComboBox@@UAE@XZ	; CComboBox::~CComboBox
  000e0	8d 8e 88 0d 00
	00		 lea	 ecx, DWORD PTR [esi+3464]
  000e6	e8 00 00 00 00	 call	 ??1CILButton@@UAE@XZ	; CILButton::~CILButton
  000eb	8d 8e 28 0c 00
	00		 lea	 ecx, DWORD PTR [esi+3112]
  000f1	e8 00 00 00 00	 call	 ??1CILButton@@UAE@XZ	; CILButton::~CILButton
  000f6	8d 8e c8 0a 00
	00		 lea	 ecx, DWORD PTR [esi+2760]
  000fc	e8 00 00 00 00	 call	 ??1CILButton@@UAE@XZ	; CILButton::~CILButton
  00101	8d 8e 48 0a 00
	00		 lea	 ecx, DWORD PTR [esi+2632]
  00107	e8 00 00 00 00	 call	 ??1CButton@@UAE@XZ	; CButton::~CButton
  0010c	8d 8e c8 09 00
	00		 lea	 ecx, DWORD PTR [esi+2504]
  00112	e8 00 00 00 00	 call	 ??1CButton@@UAE@XZ	; CButton::~CButton
  00117	8d 8e 48 09 00
	00		 lea	 ecx, DWORD PTR [esi+2376]
  0011d	e8 00 00 00 00	 call	 ??1CListBox@@UAE@XZ	; CListBox::~CListBox
  00122	8d 8e e8 07 00
	00		 lea	 ecx, DWORD PTR [esi+2024]
  00128	e8 00 00 00 00	 call	 ??1CILButton@@UAE@XZ	; CILButton::~CILButton
  0012d	8d 8e 88 06 00
	00		 lea	 ecx, DWORD PTR [esi+1672]
  00133	e8 00 00 00 00	 call	 ??1CILButton@@UAE@XZ	; CILButton::~CILButton
  00138	8d 8e 08 06 00
	00		 lea	 ecx, DWORD PTR [esi+1544]
  0013e	e8 00 00 00 00	 call	 ??1CEdit@@UAE@XZ	; CEdit::~CEdit
  00143	8d 8e 80 05 00
	00		 lea	 ecx, DWORD PTR [esi+1408]
  00149	e8 00 00 00 00	 call	 ??1CExStatic@@UAE@XZ	; CExStatic::~CExStatic

; 872  : 	m_pBlocks->FreeDataChain();

  0014e	8b 8e 74 05 00
	00		 mov	 ecx, DWORD PTR [esi+1396]

; 878  : {

  00154	c7 45 fc 00 00
	00 00		 mov	 DWORD PTR __$EHRec$[ebp+8], 0
  0015b	c7 86 60 05 00
	00 00 00 00 00	 mov	 DWORD PTR [esi+1376], OFFSET ??_7?$CList@PAVCTrTreeCtrl@@PAV1@@@6B@

; 870  : 	m_nCount = 0;

  00165	c7 86 6c 05 00
	00 00 00 00 00	 mov	 DWORD PTR [esi+1388], 0

; 871  : 	m_pNodeHead = m_pNodeTail = m_pNodeFree = NULL;

  0016f	c7 86 70 05 00
	00 00 00 00 00	 mov	 DWORD PTR [esi+1392], 0
  00179	c7 86 68 05 00
	00 00 00 00 00	 mov	 DWORD PTR [esi+1384], 0
  00183	c7 86 64 05 00
	00 00 00 00 00	 mov	 DWORD PTR [esi+1380], 0

; 872  : 	m_pBlocks->FreeDataChain();

  0018d	e8 00 00 00 00	 call	 ?FreeDataChain@CPlex@@QAEXXZ ; CPlex::FreeDataChain
  00192	8d 8e f0 03 00
	00		 lea	 ecx, DWORD PTR [esi+1008]

; 873  : 	m_pBlocks = NULL;

  00198	c7 86 74 05 00
	00 00 00 00 00	 mov	 DWORD PTR [esi+1396], 0
  001a2	e8 00 00 00 00	 call	 ??1CGfxOutBarCtrl@@UAE@XZ ; CGfxOutBarCtrl::~CGfxOutBarCtrl
  001a7	8d 8e d8 01 00
	00		 lea	 ecx, DWORD PTR [esi+472]
  001ad	e8 00 00 00 00	 call	 ??1CXListCtrl@@UAE@XZ	; CXListCtrl::~CXListCtrl
  001b2	8d 8e 10 01 00
	00		 lea	 ecx, DWORD PTR [esi+272]
  001b8	e8 00 00 00 00	 call	 ??1CySplitterWnd@@UAE@XZ ; CySplitterWnd::~CySplitterWnd
  001bd	8d 8e 04 01 00
	00		 lea	 ecx, DWORD PTR [esi+260]
  001c3	ff 15 00 00 00
	00		 call	 DWORD PTR __imp_??1?$CStringT@DV?$StrTraitMFC_DLL@DV?$ChTraitsCRT@D@ATL@@@@@ATL@@QAE@XZ
  001c9	8d 8e e8 00 00
	00		 lea	 ecx, DWORD PTR [esi+232]
  001cf	e8 00 00 00 00	 call	 ??1CStringList@@UAE@XZ	; CStringList::~CStringList
  001d4	8b ce		 mov	 ecx, esi
  001d6	e8 00 00 00 00	 call	 ??1CTabDlg@@UAE@XZ	; CTabDlg::~CTabDlg
  001db	8b 4d f4	 mov	 ecx, DWORD PTR __$EHRec$[ebp]
  001de	64 89 0d 00 00
	00 00		 mov	 DWORD PTR fs:0, ecx
  001e5	59		 pop	 ecx
  001e6	5e		 pop	 esi
  001e7	8b e5		 mov	 esp, ebp
  001e9	5d		 pop	 ebp
  001ea	c3		 ret	 0
  001eb	cc		 int	 3
  001ec	cc		 int	 3
  001ed	cc		 int	 3
  001ee	cc		 int	 3
  001ef	cc		 int	 3
_TEXT	ENDS
;	COMDAT text$x
text$x	SEGMENT
__ehhandler$??1CTabIndices@@UAE@XZ:
  00000	90		 npad	 1
  00001	90		 npad	 1
  00002	8b 54 24 08	 mov	 edx, DWORD PTR [esp+8]
  00006	8d 42 0c	 lea	 eax, DWORD PTR [edx+12]
  00009	8b 4a f8	 mov	 ecx, DWORD PTR [edx-8]
  0000c	33 c8		 xor	 ecx, eax
  0000e	e8 00 00 00 00	 call	 @__security_check_cookie@4
  00013	b8 00 00 00 00	 mov	 eax, OFFSET __ehfuncinfo$??1CTabIndices@@UAE@XZ
  00018	e9 00 00 00 00	 jmp	 ___CxxFrameHandler3
text$x	ENDS
??1CTabIndices@@UAE@XZ ENDP				; CTabIndices::~CTabIndices
; Function compile flags: /Ogtp
; File D:\git\src\IBK\IBK_DRFN\ProjSrc\SrcDrfn\Chart\MULTICHART\TabIndices.cpp
;	COMDAT ?GetMessageMap@CTabIndices@@MBEPBUAFX_MSGMAP@@XZ
_TEXT	SEGMENT
?GetMessageMap@CTabIndices@@MBEPBUAFX_MSGMAP@@XZ PROC	; CTabIndices::GetMessageMap, COMDAT
; _this$ = ecx

; 114  : BEGIN_MESSAGE_MAP(CTabIndices, CTabDlg)

  00000	b8 00 00 00 00	 mov	 eax, OFFSET ?messageMap@?1??GetThisMessageMap@CTabIndices@@KGPBUAFX_MSGMAP@@XZ@4U3@B
  00005	c3		 ret	 0
?GetMessageMap@CTabIndices@@MBEPBUAFX_MSGMAP@@XZ ENDP	; CTabIndices::GetMessageMap
_TEXT	ENDS
; Function compile flags: /Ogtp
; File D:\git\src\IBK\IBK_DRFN\ProjSrc\SrcDrfn\Chart\MULTICHART\TabIndices.cpp
;	COMDAT ?GetThisMessageMap@CTabIndices@@KGPBUAFX_MSGMAP@@XZ
_TEXT	SEGMENT
?GetThisMessageMap@CTabIndices@@KGPBUAFX_MSGMAP@@XZ PROC ; CTabIndices::GetThisMessageMap, COMDAT

; 115  : 	//{{AFX_MSG_MAP(CTabIndices)
; 116  : 	ON_WM_SIZE()
; 117  : //	ON_WM_CTLCOLOR()
; 118  : 	ON_BN_CLICKED(IDC_BTAPPLY, OnBtapply)
; 119  : 	ON_BN_CLICKED(IDC_BTSEARCH, OnBtsearch)
; 120  : 	ON_NOTIFY(NM_DBLCLK, IDC_TREEITEMS, OnDblclkTreeitems)
; 121  : 	ON_WM_DESTROY()
; 122  : 	ON_NOTIFY(TVN_BEGINDRAG, IDC_TREEITEMS, OnBegindragTreeitems)
; 123  : 	ON_WM_MOUSEMOVE()
; 124  : 	ON_WM_LBUTTONUP()	
; 125  : 	ON_NOTIFY(LVN_BEGINDRAG, IDC_LISTITEMS, OnBegindragListitems)	
; 126  : 	ON_NOTIFY(NM_DBLCLK, IDC_LISTITEMS, OnDblclkListitems)
; 127  : 	ON_BN_CLICKED(IDC_BTN_SHOW_REPEAT, OnBtnShowRepeat)	
; 128  : 	ON_BN_CLICKED(IDC_BTN_NEXT, OnBtnNext)
; 129  : 	ON_BN_CLICKED(IDC_BTN_PREV, OnBtnPrev)
; 130  : 	ON_BN_CLICKED(IDC_BTN_STOP, OnBtnStop)
; 131  : 	ON_CBN_SELCHANGE(IDC_CMB_TIME, OnSelchangeCmbTime)
; 132  : 	ON_BN_CLICKED(IDC_RADIO_AUTO, OnRadioAuto)
; 133  : 	ON_BN_CLICKED(IDC_RADIO_MANUAL, OnRadioManual)
; 134  : 	ON_BN_CLICKED(IDC_BTN_ADDITEM, OnBtnAdditem)
; 135  : 	ON_BN_CLICKED(IDC_BTN_DELITEM, OnBtnDelitem)
; 136  : 	ON_BN_CLICKED(IDC_BTN_FIND, OnBnClickedBtnFind)
; 137  : 	ON_BN_CLICKED(IDC_BTN_EXTEND, OnBnClickedBtnExtend)
; 138  : 	ON_LBN_SELCHANGE(IDC_LIST_FIND, OnLbnSelchangeListFind)
; 139  : 	ON_EN_CHANGE(IDC_EDIT_FIND, OnChangeEditFind)
; 140  : 	ON_WM_TIMER()
; 141  : 	ON_WM_KILLFOCUS()
; 142  : 	//}}AFX_MSG_MAP
; 143  : 	ON_MESSAGE( WM_SPLITTER_MOVED, OnWmSplitterMoved )	
; 144  : 	ON_COMMAND_RANGE(MENU_ID_ADD, MENU_ID_DEL, OnSendMenu)		//Modified by cyberahn@KOSCOM 2006.10.11.
; 145  : 	ON_REGISTERED_MESSAGE(RMSG_WMSIZE, OnRmsgWMSize)
; 146  : END_MESSAGE_MAP()

  00000	b8 00 00 00 00	 mov	 eax, OFFSET ?messageMap@?1??GetThisMessageMap@CTabIndices@@KGPBUAFX_MSGMAP@@XZ@4U3@B
  00005	c3		 ret	 0
?GetThisMessageMap@CTabIndices@@KGPBUAFX_MSGMAP@@XZ ENDP ; CTabIndices::GetThisMessageMap
_TEXT	ENDS
; Function compile flags: /Ogtp
; File D:\git\src\IBK\IBK_DRFN\ProjSrc\SrcDrfn\Chart\MULTICHART\TabIndices.cpp
;	COMDAT ?OnRmsgWMSize@CTabIndices@@IAEJIJ@Z
_TEXT	SEGMENT
_wp$ = 8						; size = 4
_lp$ = 12						; size = 4
?OnRmsgWMSize@CTabIndices@@IAEJIJ@Z PROC		; CTabIndices::OnRmsgWMSize, COMDAT
; _this$ = ecx

; 176  : 	RecalcLayout();

  00000	e8 00 00 00 00	 call	 ?RecalcLayout@CTabIndices@@AAEXXZ ; CTabIndices::RecalcLayout

; 177  : 	return 0L;

  00005	33 c0		 xor	 eax, eax

; 178  : }

  00007	c2 08 00	 ret	 8
?OnRmsgWMSize@CTabIndices@@IAEJIJ@Z ENDP		; CTabIndices::OnRmsgWMSize
_TEXT	ENDS
; Function compile flags: /Ogtp
; File D:\git\src\IBK\IBK_DRFN\ProjSrc\SrcDrfn\Chart\MULTICHART\TabIndices.cpp
;	COMDAT ?OnSendMenu@CTabIndices@@IAEXI@Z
_TEXT	SEGMENT
_nIndex$ = 8						; size = 4
?OnSendMenu@CTabIndices@@IAEXI@Z PROC			; CTabIndices::OnSendMenu, COMDAT
; _this$ = ecx

; 2313 : {

  00000	55		 push	 ebp
  00001	8b ec		 mov	 ebp, esp

; 2314 : 	if (nIndex == MENU_ID_ADD)		//# Add

  00003	8b 45 08	 mov	 eax, DWORD PTR _nIndex$[ebp]
  00006	83 f8 64	 cmp	 eax, 100		; 00000064H
  00009	75 09		 jne	 SHORT $LN2@OnSendMenu

; 2315 : 	{
; 2316 : 		OnBtsearch();

  0000b	e8 00 00 00 00	 call	 ?OnBtsearch@CTabIndices@@IAEXXZ ; CTabIndices::OnBtsearch

; 2321 : 	}
; 2322 : }

  00010	5d		 pop	 ebp
  00011	c2 04 00	 ret	 4
$LN2@OnSendMenu:

; 2317 : 	}
; 2318 : 	else if (nIndex == MENU_ID_DEL)		//# Del

  00014	3d c8 00 00 00	 cmp	 eax, 200		; 000000c8H
  00019	75 05		 jne	 SHORT $LN4@OnSendMenu

; 2319 : 	{
; 2320 : 		OnBtapply();

  0001b	e8 00 00 00 00	 call	 ?OnBtapply@CTabIndices@@IAEXXZ ; CTabIndices::OnBtapply
$LN4@OnSendMenu:

; 2321 : 	}
; 2322 : }

  00020	5d		 pop	 ebp
  00021	c2 04 00	 ret	 4
?OnSendMenu@CTabIndices@@IAEXI@Z ENDP			; CTabIndices::OnSendMenu
_TEXT	ENDS
; Function compile flags: /Ogtp
; File D:\git\src\IBK\IBK_DRFN\ProjSrc\SrcDrfn\Chart\MULTICHART\TabIndices.cpp
;	COMDAT ?OnChangeEditFind@CTabIndices@@IAEXXZ
_TEXT	SEGMENT
?OnChangeEditFind@CTabIndices@@IAEXXZ PROC		; CTabIndices::OnChangeEditFind, COMDAT
; _this$ = ecx

; 2291 : 	OnBnClickedBtnFind();

  00000	e9 00 00 00 00	 jmp	 ?OnBnClickedBtnFind@CTabIndices@@IAEXXZ ; CTabIndices::OnBnClickedBtnFind
?OnChangeEditFind@CTabIndices@@IAEXXZ ENDP		; CTabIndices::OnChangeEditFind
_TEXT	ENDS
; Function compile flags: /Ogtp
; File D:\git\src\IBK\IBK_DRFN\ProjSrc\SrcDrfn\Chart\MULTICHART\TabIndices.cpp
; File C:\Program Files (x86)\Microsoft Visual Studio\2019\Community\VC\Tools\MSVC\14.29.30133\atlmfc\include\afxwin2.inl
; File D:\git\src\IBK\IBK_DRFN\ProjSrc\SrcDrfn\Chart\MULTICHART\TabIndices.cpp
; File C:\Program Files (x86)\Microsoft Visual Studio\2019\Community\VC\Tools\MSVC\14.29.30133\atlmfc\include\afxwin2.inl
; File D:\git\src\IBK\IBK_DRFN\ProjSrc\SrcDrfn\Chart\MULTICHART\TabIndices.cpp
; File C:\Program Files (x86)\Microsoft Visual Studio\2019\Community\VC\Tools\MSVC\14.29.30133\atlmfc\include\afxwin2.inl
; File D:\git\src\IBK\IBK_DRFN\ProjSrc\SrcDrfn\Chart\MULTICHART\TabIndices.cpp
; File C:\Program Files (x86)\Microsoft Visual Studio\2019\Community\VC\Tools\MSVC\14.29.30133\atlmfc\include\afxwin2.inl
; File D:\git\src\IBK\IBK_DRFN\ProjSrc\SrcDrfn\Chart\MULTICHART\TabIndices.cpp
;	COMDAT ?OnLbnSelchangeListFind@CTabIndices@@IAEXXZ
_TEXT	SEGMENT
_strResult$ = -44					; size = 20
_strData$ = -20						; size = 4
_str$ = -16						; size = 4
__$EHRec$ = -12						; size = 12
?OnLbnSelchangeListFind@CTabIndices@@IAEXXZ PROC	; CTabIndices::OnLbnSelchangeListFind, COMDAT
; _this$ = ecx

; 2274 : {

  00000	55		 push	 ebp
  00001	8b ec		 mov	 ebp, esp
  00003	6a ff		 push	 -1
  00005	68 00 00 00 00	 push	 __ehhandler$?OnLbnSelchangeListFind@CTabIndices@@IAEXXZ
  0000a	64 a1 00 00 00
	00		 mov	 eax, DWORD PTR fs:0
  00010	50		 push	 eax
  00011	83 ec 20	 sub	 esp, 32			; 00000020H
  00014	53		 push	 ebx
  00015	56		 push	 esi
  00016	a1 00 00 00 00	 mov	 eax, DWORD PTR ___security_cookie
  0001b	33 c5		 xor	 eax, ebp
  0001d	50		 push	 eax
  0001e	8d 45 f4	 lea	 eax, DWORD PTR __$EHRec$[ebp]
  00021	64 a3 00 00 00
	00		 mov	 DWORD PTR fs:0, eax
  00027	8b d9		 mov	 ebx, ecx

; 2275 : 	CString strData;

  00029	8d 4d ec	 lea	 ecx, DWORD PTR _strData$[ebp]
  0002c	ff 15 00 00 00
	00		 call	 DWORD PTR __imp_??0?$CStringT@DV?$StrTraitMFC_DLL@DV?$ChTraitsCRT@D@ATL@@@@@ATL@@QAE@XZ
; File C:\Program Files (x86)\Microsoft Visual Studio\2019\Community\VC\Tools\MSVC\14.29.30133\atlmfc\include\afxwin2.inl

; 666  : 	{ ASSERT(::IsWindow(m_hWnd)); return (int)::SendMessage(m_hWnd, LB_GETCURSEL, 0, 0); }

  00032	6a 00		 push	 0
  00034	6a 00		 push	 0
  00036	68 88 01 00 00	 push	 392			; 00000188H
  0003b	ff b3 68 09 00
	00		 push	 DWORD PTR [ebx+2408]
; File D:\git\src\IBK\IBK_DRFN\ProjSrc\SrcDrfn\Chart\MULTICHART\TabIndices.cpp

; 2275 : 	CString strData;

  00041	c7 45 fc 00 00
	00 00		 mov	 DWORD PTR __$EHRec$[ebp+8], 0
; File C:\Program Files (x86)\Microsoft Visual Studio\2019\Community\VC\Tools\MSVC\14.29.30133\atlmfc\include\afxwin2.inl

; 666  : 	{ ASSERT(::IsWindow(m_hWnd)); return (int)::SendMessage(m_hWnd, LB_GETCURSEL, 0, 0); }

  00048	ff 15 00 00 00
	00		 call	 DWORD PTR __imp__SendMessageA@16
; File D:\git\src\IBK\IBK_DRFN\ProjSrc\SrcDrfn\Chart\MULTICHART\TabIndices.cpp

; 2276 : 	int nSel = m_listFind.GetCurSel();

  0004e	8b f0		 mov	 esi, eax

; 2277 : 	m_listFind.GetText(nSel, strData);

  00050	8d 8b 48 09 00
	00		 lea	 ecx, DWORD PTR [ebx+2376]
  00056	8d 45 ec	 lea	 eax, DWORD PTR _strData$[ebp]
  00059	50		 push	 eax
  0005a	56		 push	 esi
  0005b	e8 00 00 00 00	 call	 ?GetText@CListBox@@QBEXHAAV?$CStringT@DV?$StrTraitMFC_DLL@DV?$ChTraitsCRT@D@ATL@@@@@ATL@@@Z ; CListBox::GetText

; 2281 : 	CString str;

  00060	8d 4d f0	 lea	 ecx, DWORD PTR _str$[ebp]
  00063	ff 15 00 00 00
	00		 call	 DWORD PTR __imp_??0?$CStringT@DV?$StrTraitMFC_DLL@DV?$ChTraitsCRT@D@ATL@@@@@ATL@@QAE@XZ
; File C:\Program Files (x86)\Microsoft Visual Studio\2019\Community\VC\Tools\MSVC\14.29.30133\atlmfc\include\afxwin2.inl

; 683  : 	{ ASSERT(::IsWindow(m_hWnd)); return ::SendMessage(m_hWnd, LB_GETITEMDATA, nIndex, 0); }

  00069	6a 00		 push	 0
  0006b	56		 push	 esi
  0006c	68 99 01 00 00	 push	 409			; 00000199H
  00071	ff b3 68 09 00
	00		 push	 DWORD PTR [ebx+2408]
; File D:\git\src\IBK\IBK_DRFN\ProjSrc\SrcDrfn\Chart\MULTICHART\TabIndices.cpp

; 2281 : 	CString str;

  00077	c6 45 fc 01	 mov	 BYTE PTR __$EHRec$[ebp+8], 1
; File C:\Program Files (x86)\Microsoft Visual Studio\2019\Community\VC\Tools\MSVC\14.29.30133\atlmfc\include\afxwin2.inl

; 683  : 	{ ASSERT(::IsWindow(m_hWnd)); return ::SendMessage(m_hWnd, LB_GETITEMDATA, nIndex, 0); }

  0007b	ff 15 00 00 00
	00		 call	 DWORD PTR __imp__SendMessageA@16
; File D:\git\src\IBK\IBK_DRFN\ProjSrc\SrcDrfn\Chart\MULTICHART\TabIndices.cpp

; 2282 : 	str.Format("%d:%s", m_listFind.GetItemData(nSel), strData);

  00081	ff 75 ec	 push	 DWORD PTR _strData$[ebp]
  00084	50		 push	 eax
  00085	8d 45 f0	 lea	 eax, DWORD PTR _str$[ebp]
  00088	68 00 00 00 00	 push	 OFFSET ??_C@_05NAOMKNKP@?$CFd?3?$CFs@
  0008d	50		 push	 eax
  0008e	ff 15 00 00 00
	00		 call	 DWORD PTR __imp_?Format@?$CStringT@DV?$StrTraitMFC_DLL@DV?$ChTraitsCRT@D@ATL@@@@@ATL@@QAAXPBDZZ
  00094	83 c4 10	 add	 esp, 16			; 00000010H

; 2283 : 	CStringArray strResult;

  00097	8d 4d d4	 lea	 ecx, DWORD PTR _strResult$[ebp]
  0009a	e8 00 00 00 00	 call	 ??0CStringArray@@QAE@XZ	; CStringArray::CStringArray

; 2284 : 	GetFindItemList(TFI_JIPYOITEM_ID, str, strResult);

  0009f	8d 45 d4	 lea	 eax, DWORD PTR _strResult$[ebp]
  000a2	c6 45 fc 02	 mov	 BYTE PTR __$EHRec$[ebp+8], 2
  000a6	50		 push	 eax
  000a7	51		 push	 ecx
  000a8	8d 45 f0	 lea	 eax, DWORD PTR _str$[ebp]
  000ab	8b cc		 mov	 ecx, esp
  000ad	50		 push	 eax
  000ae	ff 15 00 00 00
	00		 call	 DWORD PTR __imp_??0?$CStringT@DV?$StrTraitMFC_DLL@DV?$ChTraitsCRT@D@ATL@@@@@ATL@@QAE@ABV01@@Z
  000b4	6a 02		 push	 2
  000b6	8b cb		 mov	 ecx, ebx
  000b8	e8 00 00 00 00	 call	 ?GetFindItemList@CTabIndices@@QAEXHV?$CStringT@DV?$StrTraitMFC_DLL@DV?$ChTraitsCRT@D@ATL@@@@@ATL@@AAVCStringArray@@@Z ; CTabIndices::GetFindItemList

; 2285 : //<< [QC No]090728HMC039
; 2286 : }

  000bd	8d 4d d4	 lea	 ecx, DWORD PTR _strResult$[ebp]
  000c0	e8 00 00 00 00	 call	 ??1CStringArray@@UAE@XZ	; CStringArray::~CStringArray
  000c5	8d 4d f0	 lea	 ecx, DWORD PTR _str$[ebp]
  000c8	ff 15 00 00 00
	00		 call	 DWORD PTR __imp_??1?$CStringT@DV?$StrTraitMFC_DLL@DV?$ChTraitsCRT@D@ATL@@@@@ATL@@QAE@XZ
  000ce	8d 4d ec	 lea	 ecx, DWORD PTR _strData$[ebp]
  000d1	ff 15 00 00 00
	00		 call	 DWORD PTR __imp_??1?$CStringT@DV?$StrTraitMFC_DLL@DV?$ChTraitsCRT@D@ATL@@@@@ATL@@QAE@XZ
  000d7	8b 4d f4	 mov	 ecx, DWORD PTR __$EHRec$[ebp]
  000da	64 89 0d 00 00
	00 00		 mov	 DWORD PTR fs:0, ecx
  000e1	59		 pop	 ecx
  000e2	5e		 pop	 esi
  000e3	5b		 pop	 ebx
  000e4	8b e5		 mov	 esp, ebp
  000e6	5d		 pop	 ebp
  000e7	c3		 ret	 0
_TEXT	ENDS
;	COMDAT text$x
text$x	SEGMENT
__unwindfunclet$?OnLbnSelchangeListFind@CTabIndices@@IAEXXZ$0:
  00000	8d 4d ec	 lea	 ecx, DWORD PTR _strData$[ebp]
  00003	ff 25 00 00 00
	00		 jmp	 DWORD PTR __imp_??1?$CStringT@DV?$StrTraitMFC_DLL@DV?$ChTraitsCRT@D@ATL@@@@@ATL@@QAE@XZ
__unwindfunclet$?OnLbnSelchangeListFind@CTabIndices@@IAEXXZ$1:
  00009	8d 4d f0	 lea	 ecx, DWORD PTR _str$[ebp]
  0000c	ff 25 00 00 00
	00		 jmp	 DWORD PTR __imp_??1?$CStringT@DV?$StrTraitMFC_DLL@DV?$ChTraitsCRT@D@ATL@@@@@ATL@@QAE@XZ
__unwindfunclet$?OnLbnSelchangeListFind@CTabIndices@@IAEXXZ$2:
  00012	8d 4d d4	 lea	 ecx, DWORD PTR _strResult$[ebp]
  00015	e9 00 00 00 00	 jmp	 ??1CStringArray@@UAE@XZ	; CStringArray::~CStringArray
  0001a	cc		 int	 3
  0001b	cc		 int	 3
  0001c	cc		 int	 3
  0001d	cc		 int	 3
  0001e	cc		 int	 3
__ehhandler$?OnLbnSelchangeListFind@CTabIndices@@IAEXXZ:
  0001f	90		 npad	 1
  00020	90		 npad	 1
  00021	8b 54 24 08	 mov	 edx, DWORD PTR [esp+8]
  00025	8d 42 0c	 lea	 eax, DWORD PTR [edx+12]
  00028	8b 4a d4	 mov	 ecx, DWORD PTR [edx-44]
  0002b	33 c8		 xor	 ecx, eax
  0002d	e8 00 00 00 00	 call	 @__security_check_cookie@4
  00032	b8 00 00 00 00	 mov	 eax, OFFSET __ehfuncinfo$?OnLbnSelchangeListFind@CTabIndices@@IAEXXZ
  00037	e9 00 00 00 00	 jmp	 ___CxxFrameHandler3
text$x	ENDS
?OnLbnSelchangeListFind@CTabIndices@@IAEXXZ ENDP	; CTabIndices::OnLbnSelchangeListFind
; Function compile flags: /Ogtp
; File D:\git\src\IBK\IBK_DRFN\ProjSrc\SrcDrfn\Chart\MULTICHART\TabIndices.cpp
;	COMDAT ?OnBnClickedBtnExtend@CTabIndices@@IAEXXZ
_TEXT	SEGMENT
?OnBnClickedBtnExtend@CTabIndices@@IAEXXZ PROC		; CTabIndices::OnBnClickedBtnExtend, COMDAT
; _this$ = ecx

; 2250 : {

  00000	55		 push	 ebp
  00001	8b ec		 mov	 ebp, esp
  00003	51		 push	 ecx
  00004	56		 push	 esi
  00005	8b f1		 mov	 esi, ecx

; 2251 : 	if(m_bFindExtend)

  00007	83 be 7c 05 00
	00 00		 cmp	 DWORD PTR [esi+1404], 0
  0000e	8d 8e 48 09 00
	00		 lea	 ecx, DWORD PTR [esi+2376]
  00014	74 2d		 je	 SHORT $LN2@OnBnClicke

; 2252 : 	{
; 2253 : 		//  
; 2254 : 		m_bFindExtend = FALSE;
; 2255 : 		m_listFind.ShowWindow(FALSE);

  00016	6a 00		 push	 0
  00018	c7 86 7c 05 00
	00 00 00 00 00	 mov	 DWORD PTR [esi+1404], 0
  00022	e8 00 00 00 00	 call	 ?ShowWindow@CWnd@@QAEHH@Z ; CWnd::ShowWindow

; 2256 : 		m_btnExtend	.FP_vSetImage(m_pIL_W20H20, 48, 50, TRUE, "", FALSE);

  00027	6a ff		 push	 -1
  00029	6a ff		 push	 -1
  0002b	6a 00		 push	 0
  0002d	51		 push	 ecx
  0002e	8b cc		 mov	 ecx, esp
  00030	68 00 00 00 00	 push	 OFFSET ??_C@_00CNPNBAHC@@
  00035	ff 15 00 00 00
	00		 call	 DWORD PTR __imp_??0?$CStringT@DV?$StrTraitMFC_DLL@DV?$ChTraitsCRT@D@ATL@@@@@ATL@@QAE@PBD@Z
  0003b	6a 01		 push	 1
  0003d	6a 32		 push	 50			; 00000032H
  0003f	6a 30		 push	 48			; 00000030H

; 2257 : 		Invalidate();
; 2258 : 		RecalcLayout();
; 2259 : 		//m_btnExtend.FP_vSetImage();
; 2260 : 	}

  00041	eb 2b		 jmp	 SHORT $LN11@OnBnClicke
$LN2@OnBnClicke:

; 2261 : 	else
; 2262 : 	{
; 2263 : 		//  
; 2264 : 		m_bFindExtend = TRUE;
; 2265 : 		m_listFind.ShowWindow(TRUE);

  00043	6a 01		 push	 1
  00045	c7 86 7c 05 00
	00 01 00 00 00	 mov	 DWORD PTR [esi+1404], 1
  0004f	e8 00 00 00 00	 call	 ?ShowWindow@CWnd@@QAEHH@Z ; CWnd::ShowWindow

; 2266 : 		m_btnExtend	.FP_vSetImage(m_pIL_W20H20, 44, 46, TRUE, "", FALSE);

  00054	6a ff		 push	 -1
  00056	6a ff		 push	 -1
  00058	6a 00		 push	 0
  0005a	51		 push	 ecx
  0005b	8b cc		 mov	 ecx, esp
  0005d	68 00 00 00 00	 push	 OFFSET ??_C@_00CNPNBAHC@@
  00062	ff 15 00 00 00
	00		 call	 DWORD PTR __imp_??0?$CStringT@DV?$StrTraitMFC_DLL@DV?$ChTraitsCRT@D@ATL@@@@@ATL@@QAE@PBD@Z
  00068	6a 01		 push	 1
  0006a	6a 2e		 push	 46			; 0000002eH
  0006c	6a 2c		 push	 44			; 0000002cH
$LN11@OnBnClicke:

; 2267 : 		Invalidate();
; 2268 : 		RecalcLayout();		
; 2269 : 	}
; 2270 : }

  0006e	ff b6 a8 00 00
	00		 push	 DWORD PTR [esi+168]
  00074	8d 8e e8 07 00
	00		 lea	 ecx, DWORD PTR [esi+2024]
  0007a	e8 00 00 00 00	 call	 ?FP_vSetImage@CILButton@@QAEXPAVCImageList@@HHHV?$CStringT@DV?$StrTraitMFC_DLL@DV?$ChTraitsCRT@D@ATL@@@@@ATL@@HHH@Z ; CILButton::FP_vSetImage
  0007f	6a 01		 push	 1
  00081	6a 00		 push	 0
  00083	ff 76 20	 push	 DWORD PTR [esi+32]
  00086	ff 15 00 00 00
	00		 call	 DWORD PTR __imp__InvalidateRect@12
  0008c	8b ce		 mov	 ecx, esi
  0008e	e8 00 00 00 00	 call	 ?RecalcLayout@CTabIndices@@AAEXXZ ; CTabIndices::RecalcLayout
  00093	5e		 pop	 esi
  00094	8b e5		 mov	 esp, ebp
  00096	5d		 pop	 ebp
  00097	c3		 ret	 0
?OnBnClickedBtnExtend@CTabIndices@@IAEXXZ ENDP		; CTabIndices::OnBnClickedBtnExtend
_TEXT	ENDS
; Function compile flags: /Ogtp
; File D:\git\src\IBK\IBK_DRFN\ProjSrc\SrcDrfn\Chart\MULTICHART\TabIndices.cpp
; File C:\Program Files (x86)\Microsoft Visual Studio\2019\Community\VC\Tools\MSVC\14.29.30133\atlmfc\include\afxwin2.inl
; File D:\git\src\IBK\IBK_DRFN\ProjSrc\SrcDrfn\Chart\MULTICHART\TabIndices.cpp
; File C:\Program Files (x86)\Microsoft Visual Studio\2019\Community\VC\Tools\MSVC\14.29.30133\atlmfc\include\afxwin2.inl
; File D:\git\src\IBK\IBK_DRFN\ProjSrc\SrcDrfn\Chart\MULTICHART\TabIndices.cpp
; File C:\Program Files (x86)\Microsoft Visual Studio\2019\Community\VC\Tools\MSVC\14.29.30133\atlmfc\include\afxwin2.inl
; File D:\git\src\IBK\IBK_DRFN\ProjSrc\SrcDrfn\Chart\MULTICHART\TabIndices.cpp
; File C:\Program Files (x86)\Microsoft Visual Studio\2019\Community\VC\Tools\MSVC\14.29.30133\atlmfc\include\afxcoll.inl
; File D:\git\src\IBK\IBK_DRFN\ProjSrc\SrcDrfn\Chart\MULTICHART\TabIndices.cpp
; File C:\Program Files (x86)\Microsoft Visual Studio\2019\Community\VC\Tools\MSVC\14.29.30133\atlmfc\include\afxcoll.inl
; File D:\git\src\IBK\IBK_DRFN\ProjSrc\SrcDrfn\Chart\MULTICHART\TabIndices.cpp
; File C:\Program Files (x86)\Microsoft Visual Studio\2019\Community\VC\Tools\MSVC\14.29.30133\atlmfc\include\afxcoll.inl
; File D:\git\src\IBK\IBK_DRFN\ProjSrc\SrcDrfn\Chart\MULTICHART\TabIndices.cpp
; File C:\Program Files (x86)\Microsoft Visual Studio\2019\Community\VC\Tools\MSVC\14.29.30133\atlmfc\include\afxcoll.inl
; File D:\git\src\IBK\IBK_DRFN\ProjSrc\SrcDrfn\Chart\MULTICHART\TabIndices.cpp
; File C:\Program Files (x86)\Microsoft Visual Studio\2019\Community\VC\Tools\MSVC\14.29.30133\atlmfc\include\afxcoll.inl
; File D:\git\src\IBK\IBK_DRFN\ProjSrc\SrcDrfn\Chart\MULTICHART\TabIndices.cpp
; File C:\Program Files (x86)\Microsoft Visual Studio\2019\Community\VC\Tools\MSVC\14.29.30133\atlmfc\include\afxcoll.inl
; File D:\git\src\IBK\IBK_DRFN\ProjSrc\SrcDrfn\Chart\MULTICHART\TabIndices.cpp
; File C:\Program Files (x86)\Microsoft Visual Studio\2019\Community\VC\Tools\MSVC\14.29.30133\atlmfc\include\afxwin2.inl
; File D:\git\src\IBK\IBK_DRFN\ProjSrc\SrcDrfn\Chart\MULTICHART\TabIndices.cpp
; File C:\Program Files (x86)\Microsoft Visual Studio\2019\Community\VC\Tools\MSVC\14.29.30133\atlmfc\include\afxwin2.inl
; File D:\git\src\IBK\IBK_DRFN\ProjSrc\SrcDrfn\Chart\MULTICHART\TabIndices.cpp
;	COMDAT ?OnBnClickedBtnFind@CTabIndices@@IAEXXZ
_TEXT	SEGMENT
_strResult$ = -48					; size = 20
$T2 = -28						; size = 4
$T3 = -24						; size = 4
_strFindData$ = -20					; size = 4
_str$ = -16						; size = 4
__$EHRec$ = -12						; size = 12
?OnBnClickedBtnFind@CTabIndices@@IAEXXZ PROC		; CTabIndices::OnBnClickedBtnFind, COMDAT
; _this$ = ecx

; 2151 : {

  00000	55		 push	 ebp
  00001	8b ec		 mov	 ebp, esp
  00003	6a ff		 push	 -1
  00005	68 00 00 00 00	 push	 __ehhandler$?OnBnClickedBtnFind@CTabIndices@@IAEXXZ
  0000a	64 a1 00 00 00
	00		 mov	 eax, DWORD PTR fs:0
  00010	50		 push	 eax
  00011	83 ec 24	 sub	 esp, 36			; 00000024H
  00014	53		 push	 ebx
  00015	56		 push	 esi
  00016	57		 push	 edi
  00017	a1 00 00 00 00	 mov	 eax, DWORD PTR ___security_cookie
  0001c	33 c5		 xor	 eax, ebp
  0001e	50		 push	 eax
  0001f	8d 45 f4	 lea	 eax, DWORD PTR __$EHRec$[ebp]
  00022	64 a3 00 00 00
	00		 mov	 DWORD PTR fs:0, eax
  00028	8b f9		 mov	 edi, ecx

; 2152 : 	CString strFindData;

  0002a	8d 4d ec	 lea	 ecx, DWORD PTR _strFindData$[ebp]
  0002d	ff 15 00 00 00
	00		 call	 DWORD PTR __imp_??0?$CStringT@DV?$StrTraitMFC_DLL@DV?$ChTraitsCRT@D@ATL@@@@@ATL@@QAE@XZ

; 2153 : 	CStringArray strResult;

  00033	8d 4d d0	 lea	 ecx, DWORD PTR _strResult$[ebp]
  00036	c7 45 fc 00 00
	00 00		 mov	 DWORD PTR __$EHRec$[ebp+8], 0
  0003d	e8 00 00 00 00	 call	 ??0CStringArray@@QAE@XZ	; CStringArray::CStringArray
; File C:\Program Files (x86)\Microsoft Visual Studio\2019\Community\VC\Tools\MSVC\14.29.30133\atlmfc\include\afxwin2.inl

; 731  : 	{ ASSERT(::IsWindow(m_hWnd)); ::SendMessage(m_hWnd, LB_RESETCONTENT, 0, 0); }

  00042	6a 00		 push	 0
  00044	6a 00		 push	 0
  00046	68 84 01 00 00	 push	 388			; 00000184H
  0004b	ff b7 68 09 00
	00		 push	 DWORD PTR [edi+2408]
; File D:\git\src\IBK\IBK_DRFN\ProjSrc\SrcDrfn\Chart\MULTICHART\TabIndices.cpp

; 2153 : 	CStringArray strResult;

  00051	c6 45 fc 01	 mov	 BYTE PTR __$EHRec$[ebp+8], 1
; File C:\Program Files (x86)\Microsoft Visual Studio\2019\Community\VC\Tools\MSVC\14.29.30133\atlmfc\include\afxwin2.inl

; 731  : 	{ ASSERT(::IsWindow(m_hWnd)); ::SendMessage(m_hWnd, LB_RESETCONTENT, 0, 0); }

  00055	ff 15 00 00 00
	00		 call	 DWORD PTR __imp__SendMessageA@16
; File D:\git\src\IBK\IBK_DRFN\ProjSrc\SrcDrfn\Chart\MULTICHART\TabIndices.cpp

; 2156 : 	m_editFind.GetWindowText(strFindData);

  0005b	8d 45 ec	 lea	 eax, DWORD PTR _strFindData$[ebp]
  0005e	50		 push	 eax
  0005f	8d 8f 08 06 00
	00		 lea	 ecx, DWORD PTR [edi+1544]
  00065	e8 00 00 00 00	 call	 ?GetWindowTextA@CWnd@@QBEXAAV?$CStringT@DV?$StrTraitMFC_DLL@DV?$ChTraitsCRT@D@ATL@@@@@ATL@@@Z ; CWnd::GetWindowTextA

; 2157 : 
; 2158 : 	if(!m_bFindExtend)

  0006a	83 bf 7c 05 00
	00 00		 cmp	 DWORD PTR [edi+1404], 0
  00071	75 56		 jne	 SHORT $LN5@OnBnClicke

; 2159 : 	{
; 2160 : 		m_listFind.ShowWindow(TRUE);

  00073	6a 01		 push	 1
  00075	8d 8f 48 09 00
	00		 lea	 ecx, DWORD PTR [edi+2376]
  0007b	e8 00 00 00 00	 call	 ?ShowWindow@CWnd@@QAEHH@Z ; CWnd::ShowWindow

; 2161 : 		m_bFindExtend = TRUE;
; 2162 : 		m_btnExtend	.FP_vSetImage(m_pIL_W20H20, 44, 46, TRUE, "", FALSE);

  00080	6a ff		 push	 -1
  00082	6a ff		 push	 -1
  00084	6a 00		 push	 0
  00086	51		 push	 ecx
  00087	8b cc		 mov	 ecx, esp
  00089	c7 87 7c 05 00
	00 01 00 00 00	 mov	 DWORD PTR [edi+1404], 1
  00093	68 00 00 00 00	 push	 OFFSET ??_C@_00CNPNBAHC@@
  00098	ff 15 00 00 00
	00		 call	 DWORD PTR __imp_??0?$CStringT@DV?$StrTraitMFC_DLL@DV?$ChTraitsCRT@D@ATL@@@@@ATL@@QAE@PBD@Z
  0009e	6a 01		 push	 1
  000a0	6a 2e		 push	 46			; 0000002eH
  000a2	6a 2c		 push	 44			; 0000002cH
  000a4	ff b7 a8 00 00
	00		 push	 DWORD PTR [edi+168]
  000aa	8d 8f e8 07 00
	00		 lea	 ecx, DWORD PTR [edi+2024]
  000b0	e8 00 00 00 00	 call	 ?FP_vSetImage@CILButton@@QAEXPAVCImageList@@HHHV?$CStringT@DV?$StrTraitMFC_DLL@DV?$ChTraitsCRT@D@ATL@@@@@ATL@@HHH@Z ; CILButton::FP_vSetImage
; File C:\Program Files (x86)\Microsoft Visual Studio\2019\Community\VC\Tools\MSVC\14.29.30133\atlmfc\include\afxwin2.inl

; 114  : 	{ ASSERT(::IsWindow(m_hWnd)); ::InvalidateRect(m_hWnd, NULL, bErase); }

  000b5	6a 01		 push	 1
  000b7	6a 00		 push	 0
  000b9	ff 77 20	 push	 DWORD PTR [edi+32]
  000bc	ff 15 00 00 00
	00		 call	 DWORD PTR __imp__InvalidateRect@12
; File D:\git\src\IBK\IBK_DRFN\ProjSrc\SrcDrfn\Chart\MULTICHART\TabIndices.cpp

; 2164 : 		RecalcLayout();		

  000c2	8b cf		 mov	 ecx, edi
  000c4	e8 00 00 00 00	 call	 ?RecalcLayout@CTabIndices@@AAEXXZ ; CTabIndices::RecalcLayout
$LN5@OnBnClicke:

; 2165 : 	}	
; 2166 : 	
; 2167 : 	 //   
; 2168 : 	GetFindItemList(TFI_JIPYOITEM_TITLE, strFindData, strResult);

  000c9	8d 45 d0	 lea	 eax, DWORD PTR _strResult$[ebp]
  000cc	50		 push	 eax
  000cd	51		 push	 ecx
  000ce	8d 45 ec	 lea	 eax, DWORD PTR _strFindData$[ebp]
  000d1	8b cc		 mov	 ecx, esp
  000d3	50		 push	 eax
  000d4	ff 15 00 00 00
	00		 call	 DWORD PTR __imp_??0?$CStringT@DV?$StrTraitMFC_DLL@DV?$ChTraitsCRT@D@ATL@@@@@ATL@@QAE@ABV01@@Z
  000da	6a 01		 push	 1
  000dc	8b cf		 mov	 ecx, edi
  000de	e8 00 00 00 00	 call	 ?GetFindItemList@CTabIndices@@QAEXHV?$CStringT@DV?$StrTraitMFC_DLL@DV?$ChTraitsCRT@D@ATL@@@@@ATL@@AAVCStringArray@@@Z ; CTabIndices::GetFindItemList

; 2169 : //>> [QC No]090728HMC039
; 2170 : //	m_listFind.AddString(strResult[i]);
; 2171 : 	int nPos = -1;
; 2172 : 	CString str;

  000e3	8d 4d f0	 lea	 ecx, DWORD PTR _str$[ebp]
  000e6	ff 15 00 00 00
	00		 call	 DWORD PTR __imp_??0?$CStringT@DV?$StrTraitMFC_DLL@DV?$ChTraitsCRT@D@ATL@@@@@ATL@@QAE@XZ

; 2173 : 	for (int i = 0; i < strResult.GetSize(); i++)

  000ec	8b 45 d8	 mov	 eax, DWORD PTR _strResult$[ebp+8]
  000ef	33 f6		 xor	 esi, esi
  000f1	c6 45 fc 02	 mov	 BYTE PTR __$EHRec$[ebp+8], 2
  000f5	85 c0		 test	 eax, eax
  000f7	0f 8e c1 00 00
	00		 jle	 $LN3@OnBnClicke
  000fd	0f 1f 00	 npad	 3
$LL4@OnBnClicke:
; File C:\Program Files (x86)\Microsoft Visual Studio\2019\Community\VC\Tools\MSVC\14.29.30133\atlmfc\include\afxcoll.inl

; 306  : 		if( nIndex < 0 || nIndex >= m_nSize )

  00100	85 f6		 test	 esi, esi
  00102	0f 88 e2 00 00
	00		 js	 $LN51@OnBnClicke
  00108	3b f0		 cmp	 esi, eax
  0010a	0f 8d da 00 00
	00		 jge	 $LN51@OnBnClicke

; 308  : 		return m_pData[nIndex]; }

  00110	8b 45 d4	 mov	 eax, DWORD PTR _strResult$[ebp+4]
; File D:\git\src\IBK\IBK_DRFN\ProjSrc\SrcDrfn\Chart\MULTICHART\TabIndices.cpp

; 2175 : 		nPos = strResult[i].Find(":");

  00113	6a 00		 push	 0
  00115	68 00 00 00 00	 push	 OFFSET ??_C@_01JLIPDDHJ@?3@
; File C:\Program Files (x86)\Microsoft Visual Studio\2019\Community\VC\Tools\MSVC\14.29.30133\atlmfc\include\afxcoll.inl

; 308  : 		return m_pData[nIndex]; }

  0011a	8d 0c b0	 lea	 ecx, DWORD PTR [eax+esi*4]
; File D:\git\src\IBK\IBK_DRFN\ProjSrc\SrcDrfn\Chart\MULTICHART\TabIndices.cpp

; 2175 : 		nPos = strResult[i].Find(":");

  0011d	ff 15 00 00 00
	00		 call	 DWORD PTR __imp_?Find@?$CStringT@DV?$StrTraitMFC_DLL@DV?$ChTraitsCRT@D@ATL@@@@@ATL@@QBEHPBDH@Z
  00123	8b d8		 mov	 ebx, eax
; File C:\Program Files (x86)\Microsoft Visual Studio\2019\Community\VC\Tools\MSVC\14.29.30133\atlmfc\include\afxcoll.inl

; 306  : 		if( nIndex < 0 || nIndex >= m_nSize )

  00125	3b 75 d8	 cmp	 esi, DWORD PTR _strResult$[ebp+8]
  00128	0f 8d bc 00 00
	00		 jge	 $LN51@OnBnClicke

; 308  : 		return m_pData[nIndex]; }

  0012e	8b 4d d4	 mov	 ecx, DWORD PTR _strResult$[ebp+4]
; File D:\git\src\IBK\IBK_DRFN\ProjSrc\SrcDrfn\Chart\MULTICHART\TabIndices.cpp

; 2176 : 		str = strResult[i].Left(nPos);

  00131	8d 45 e8	 lea	 eax, DWORD PTR $T3[ebp]
  00134	53		 push	 ebx
  00135	50		 push	 eax
; File C:\Program Files (x86)\Microsoft Visual Studio\2019\Community\VC\Tools\MSVC\14.29.30133\atlmfc\include\afxcoll.inl

; 308  : 		return m_pData[nIndex]; }

  00136	8d 0c b1	 lea	 ecx, DWORD PTR [ecx+esi*4]
; File D:\git\src\IBK\IBK_DRFN\ProjSrc\SrcDrfn\Chart\MULTICHART\TabIndices.cpp

; 2176 : 		str = strResult[i].Left(nPos);

  00139	ff 15 00 00 00
	00		 call	 DWORD PTR __imp_?Left@?$CStringT@DV?$StrTraitMFC_DLL@DV?$ChTraitsCRT@D@ATL@@@@@ATL@@QBE?AV12@H@Z
  0013f	50		 push	 eax
  00140	8d 4d f0	 lea	 ecx, DWORD PTR _str$[ebp]
  00143	c6 45 fc 03	 mov	 BYTE PTR __$EHRec$[ebp+8], 3
  00147	ff 15 00 00 00
	00		 call	 DWORD PTR __imp_??4?$CStringT@DV?$StrTraitMFC_DLL@DV?$ChTraitsCRT@D@ATL@@@@@ATL@@QAEAAV01@ABV01@@Z
  0014d	8d 4d e8	 lea	 ecx, DWORD PTR $T3[ebp]
  00150	c6 45 fc 02	 mov	 BYTE PTR __$EHRec$[ebp+8], 2
  00154	ff 15 00 00 00
	00		 call	 DWORD PTR __imp_??1?$CStringT@DV?$StrTraitMFC_DLL@DV?$ChTraitsCRT@D@ATL@@@@@ATL@@QAE@XZ
; File C:\Program Files (x86)\Microsoft Visual Studio\2019\Community\VC\Tools\MSVC\14.29.30133\atlmfc\include\afxcoll.inl

; 306  : 		if( nIndex < 0 || nIndex >= m_nSize )

  0015a	3b 75 d8	 cmp	 esi, DWORD PTR _strResult$[ebp+8]
  0015d	0f 8d 87 00 00
	00		 jge	 $LN51@OnBnClicke
; File D:\git\src\IBK\IBK_DRFN\ProjSrc\SrcDrfn\Chart\MULTICHART\TabIndices.cpp

; 2177 : 		m_listFind.AddString(strResult[i].Mid(nPos + 1));

  00163	8d 43 01	 lea	 eax, DWORD PTR [ebx+1]
  00166	50		 push	 eax
  00167	8d 45 e4	 lea	 eax, DWORD PTR $T2[ebp]
  0016a	50		 push	 eax
; File C:\Program Files (x86)\Microsoft Visual Studio\2019\Community\VC\Tools\MSVC\14.29.30133\atlmfc\include\afxcoll.inl

; 308  : 		return m_pData[nIndex]; }

  0016b	8b 45 d4	 mov	 eax, DWORD PTR _strResult$[ebp+4]
  0016e	8d 0c b0	 lea	 ecx, DWORD PTR [eax+esi*4]
; File D:\git\src\IBK\IBK_DRFN\ProjSrc\SrcDrfn\Chart\MULTICHART\TabIndices.cpp

; 2177 : 		m_listFind.AddString(strResult[i].Mid(nPos + 1));

  00171	ff 15 00 00 00
	00		 call	 DWORD PTR __imp_?Mid@?$CStringT@DV?$StrTraitMFC_DLL@DV?$ChTraitsCRT@D@ATL@@@@@ATL@@QBE?AV12@H@Z
; File C:\Program Files (x86)\Microsoft Visual Studio\2019\Community\VC\Tools\MSVC\14.29.30133\atlmfc\include\afxwin2.inl

; 725  : 	{ ASSERT(::IsWindow(m_hWnd)); return (int)::SendMessage(m_hWnd, LB_ADDSTRING, 0, (LPARAM)lpszItem); }

  00177	8b 1d 00 00 00
	00		 mov	 ebx, DWORD PTR __imp__SendMessageA@16
  0017d	ff 30		 push	 DWORD PTR [eax]
  0017f	6a 00		 push	 0
  00181	68 80 01 00 00	 push	 384			; 00000180H
  00186	ff b7 68 09 00
	00		 push	 DWORD PTR [edi+2408]
  0018c	ff d3		 call	 ebx
; File D:\git\src\IBK\IBK_DRFN\ProjSrc\SrcDrfn\Chart\MULTICHART\TabIndices.cpp

; 2177 : 		m_listFind.AddString(strResult[i].Mid(nPos + 1));

  0018e	8d 4d e4	 lea	 ecx, DWORD PTR $T2[ebp]
  00191	ff 15 00 00 00
	00		 call	 DWORD PTR __imp_??1?$CStringT@DV?$StrTraitMFC_DLL@DV?$ChTraitsCRT@D@ATL@@@@@ATL@@QAE@XZ

; 2178 : 		m_listFind.SetItemData(i, atol(str));

  00197	ff 75 f0	 push	 DWORD PTR _str$[ebp]
  0019a	ff 15 00 00 00
	00		 call	 DWORD PTR __imp__atol
  001a0	83 c4 04	 add	 esp, 4
; File C:\Program Files (x86)\Microsoft Visual Studio\2019\Community\VC\Tools\MSVC\14.29.30133\atlmfc\include\afxwin2.inl

; 685  : 	{ ASSERT(::IsWindow(m_hWnd)); return (int)::SendMessage(m_hWnd, LB_SETITEMDATA, nIndex, (LPARAM)dwItemData); }

  001a3	50		 push	 eax
  001a4	56		 push	 esi
  001a5	68 9a 01 00 00	 push	 410			; 0000019aH
  001aa	ff b7 68 09 00
	00		 push	 DWORD PTR [edi+2408]
  001b0	ff d3		 call	 ebx
; File D:\git\src\IBK\IBK_DRFN\ProjSrc\SrcDrfn\Chart\MULTICHART\TabIndices.cpp

; 2173 : 	for (int i = 0; i < strResult.GetSize(); i++)

  001b2	8b 45 d8	 mov	 eax, DWORD PTR _strResult$[ebp+8]
  001b5	46		 inc	 esi
  001b6	3b f0		 cmp	 esi, eax
  001b8	0f 8c 42 ff ff
	ff		 jl	 $LL4@OnBnClicke
$LN3@OnBnClicke:

; 2179 : 	}
; 2180 : //<< [QC No]090728HMC039
; 2181 : }

  001be	8d 4d f0	 lea	 ecx, DWORD PTR _str$[ebp]
  001c1	ff 15 00 00 00
	00		 call	 DWORD PTR __imp_??1?$CStringT@DV?$StrTraitMFC_DLL@DV?$ChTraitsCRT@D@ATL@@@@@ATL@@QAE@XZ
  001c7	8d 4d d0	 lea	 ecx, DWORD PTR _strResult$[ebp]
  001ca	e8 00 00 00 00	 call	 ??1CStringArray@@UAE@XZ	; CStringArray::~CStringArray
  001cf	8d 4d ec	 lea	 ecx, DWORD PTR _strFindData$[ebp]
  001d2	ff 15 00 00 00
	00		 call	 DWORD PTR __imp_??1?$CStringT@DV?$StrTraitMFC_DLL@DV?$ChTraitsCRT@D@ATL@@@@@ATL@@QAE@XZ
  001d8	8b 4d f4	 mov	 ecx, DWORD PTR __$EHRec$[ebp]
  001db	64 89 0d 00 00
	00 00		 mov	 DWORD PTR fs:0, ecx
  001e2	59		 pop	 ecx
  001e3	5f		 pop	 edi
  001e4	5e		 pop	 esi
  001e5	5b		 pop	 ebx
  001e6	8b e5		 mov	 esp, ebp
  001e8	5d		 pop	 ebp
  001e9	c3		 ret	 0
$LN51@OnBnClicke:
  001ea	e8 00 00 00 00	 call	 ?AfxThrowInvalidArgException@@YGXXZ ; AfxThrowInvalidArgException
$LN56@OnBnClicke:
  001ef	cc		 int	 3
_TEXT	ENDS
;	COMDAT text$x
text$x	SEGMENT
__unwindfunclet$?OnBnClickedBtnFind@CTabIndices@@IAEXXZ$0:
  00000	8d 4d ec	 lea	 ecx, DWORD PTR _strFindData$[ebp]
  00003	ff 25 00 00 00
	00		 jmp	 DWORD PTR __imp_??1?$CStringT@DV?$StrTraitMFC_DLL@DV?$ChTraitsCRT@D@ATL@@@@@ATL@@QAE@XZ
__unwindfunclet$?OnBnClickedBtnFind@CTabIndices@@IAEXXZ$1:
  00009	8d 4d d0	 lea	 ecx, DWORD PTR _strResult$[ebp]
  0000c	e9 00 00 00 00	 jmp	 ??1CStringArray@@UAE@XZ	; CStringArray::~CStringArray
__unwindfunclet$?OnBnClickedBtnFind@CTabIndices@@IAEXXZ$4:
  00011	8d 4d f0	 lea	 ecx, DWORD PTR _str$[ebp]
  00014	ff 25 00 00 00
	00		 jmp	 DWORD PTR __imp_??1?$CStringT@DV?$StrTraitMFC_DLL@DV?$ChTraitsCRT@D@ATL@@@@@ATL@@QAE@XZ
__unwindfunclet$?OnBnClickedBtnFind@CTabIndices@@IAEXXZ$5:
  0001a	8d 4d e8	 lea	 ecx, DWORD PTR $T3[ebp]
  0001d	ff 25 00 00 00
	00		 jmp	 DWORD PTR __imp_??1?$CStringT@DV?$StrTraitMFC_DLL@DV?$ChTraitsCRT@D@ATL@@@@@ATL@@QAE@XZ
  00023	cc		 int	 3
  00024	cc		 int	 3
  00025	cc		 int	 3
  00026	cc		 int	 3
  00027	cc		 int	 3
__ehhandler$?OnBnClickedBtnFind@CTabIndices@@IAEXXZ:
  00028	90		 npad	 1
  00029	90		 npad	 1
  0002a	8b 54 24 08	 mov	 edx, DWORD PTR [esp+8]
  0002e	8d 42 0c	 lea	 eax, DWORD PTR [edx+12]
  00031	8b 4a cc	 mov	 ecx, DWORD PTR [edx-52]
  00034	33 c8		 xor	 ecx, eax
  00036	e8 00 00 00 00	 call	 @__security_check_cookie@4
  0003b	b8 00 00 00 00	 mov	 eax, OFFSET __ehfuncinfo$?OnBnClickedBtnFind@CTabIndices@@IAEXXZ
  00040	e9 00 00 00 00	 jmp	 ___CxxFrameHandler3
text$x	ENDS
?OnBnClickedBtnFind@CTabIndices@@IAEXXZ ENDP		; CTabIndices::OnBnClickedBtnFind
; Function compile flags: /Ogtp
; File D:\git\src\IBK\IBK_DRFN\ProjSrc\SrcDrfn\Chart\MULTICHART\TabIndices.cpp
; File C:\Program Files (x86)\Microsoft Visual Studio\2019\Community\VC\Tools\MSVC\14.29.30133\atlmfc\include\afxwin2.inl
; File D:\git\src\IBK\IBK_DRFN\ProjSrc\SrcDrfn\Chart\MULTICHART\TabIndices.cpp
;	COMDAT ?OnKillFocus@CTabIndices@@IAEXPAVCWnd@@@Z
_TEXT	SEGMENT
_pNewWnd$ = 8						; size = 4
?OnKillFocus@CTabIndices@@IAEXPAVCWnd@@@Z PROC		; CTabIndices::OnKillFocus, COMDAT
; _this$ = ecx

; 1949 : {

  00000	56		 push	 esi
  00001	8b f1		 mov	 esi, ecx
; File C:\Program Files (x86)\Microsoft Visual Studio\2019\Community\VC\Tools\MSVC\14.29.30133\atlmfc\include\afxwin2.inl

; 308  : 	{ Default(); }

  00003	e8 00 00 00 00	 call	 ?Default@CWnd@@IAEJXZ	; CWnd::Default
; File D:\git\src\IBK\IBK_DRFN\ProjSrc\SrcDrfn\Chart\MULTICHART\TabIndices.cpp

; 1953 : 	m_bRun = FALSE;

  00008	c7 86 d8 00 00
	00 00 00 00 00	 mov	 DWORD PTR [esi+216], 0
  00012	5e		 pop	 esi

; 1954 : }

  00013	c2 04 00	 ret	 4
?OnKillFocus@CTabIndices@@IAEXPAVCWnd@@@Z ENDP		; CTabIndices::OnKillFocus
_TEXT	ENDS
; Function compile flags: /Ogtp
; File D:\git\src\IBK\IBK_DRFN\ProjSrc\SrcDrfn\Chart\MULTICHART\TabIndices.cpp
; File C:\Program Files (x86)\Microsoft Visual Studio\2019\Community\VC\Tools\MSVC\14.29.30133\atlmfc\include\afxwin2.inl
; File D:\git\src\IBK\IBK_DRFN\ProjSrc\SrcDrfn\Chart\MULTICHART\TabIndices.cpp
;	COMDAT ?OnTimer@CTabIndices@@IAEXI@Z
_TEXT	SEGMENT
_nIDEvent$ = 8						; size = 4
?OnTimer@CTabIndices@@IAEXI@Z PROC			; CTabIndices::OnTimer, COMDAT
; _this$ = ecx

; 1568 : 	if(m_bRun == FALSE) return;

  00000	83 b9 d8 00 00
	00 00		 cmp	 DWORD PTR [ecx+216], 0
  00007	74 05		 je	 SHORT $LN1@OnTimer
; File C:\Program Files (x86)\Microsoft Visual Studio\2019\Community\VC\Tools\MSVC\14.29.30133\atlmfc\include\afxwin2.inl

; 466  : 	{ Default(); }

  00009	e8 00 00 00 00	 call	 ?Default@CWnd@@IAEJXZ	; CWnd::Default
$LN1@OnTimer:
; File D:\git\src\IBK\IBK_DRFN\ProjSrc\SrcDrfn\Chart\MULTICHART\TabIndices.cpp

; 1572 : }

  0000e	c2 04 00	 ret	 4
?OnTimer@CTabIndices@@IAEXI@Z ENDP			; CTabIndices::OnTimer
_TEXT	ENDS
; Function compile flags: /Ogtp
; File D:\git\src\IBK\IBK_DRFN\ProjSrc\SrcDrfn\Chart\MULTICHART\TabIndices.cpp
; File C:\Program Files (x86)\Microsoft Visual Studio\2019\Community\VC\Tools\MSVC\14.29.30133\atlmfc\include\afxcmn.inl
; File D:\git\src\IBK\IBK_DRFN\ProjSrc\SrcDrfn\Chart\MULTICHART\TabIndices.cpp
; File C:\Program Files (x86)\Microsoft Visual Studio\2019\Community\VC\Tools\MSVC\14.29.30133\atlmfc\include\afxcmn.inl
; File D:\git\src\IBK\IBK_DRFN\ProjSrc\SrcDrfn\Chart\MULTICHART\TabIndices.cpp
; File C:\Program Files (x86)\Microsoft Visual Studio\2019\Community\VC\Tools\MSVC\14.29.30133\atlmfc\include\afxcmn.inl
; File D:\git\src\IBK\IBK_DRFN\ProjSrc\SrcDrfn\Chart\MULTICHART\TabIndices.cpp
;	COMDAT ?OnBtnDelitem@CTabIndices@@IAEXXZ
_TEXT	SEGMENT
?OnBtnDelitem@CTabIndices@@IAEXXZ PROC			; CTabIndices::OnBtnDelitem, COMDAT
; _this$ = ecx

; 1551 : {

  00000	53		 push	 ebx
  00001	56		 push	 esi
; File C:\Program Files (x86)\Microsoft Visual Studio\2019\Community\VC\Tools\MSVC\14.29.30133\atlmfc\include\afxcmn.inl

; 177  : 	{ ASSERT(::IsWindow(m_hWnd)); return (int) ::SendMessage(m_hWnd, LVM_GETNEXTITEM, nItem, MAKELPARAM(nFlags, 0)); }

  00002	8b 35 00 00 00
	00		 mov	 esi, DWORD PTR __imp__SendMessageA@16
; File D:\git\src\IBK\IBK_DRFN\ProjSrc\SrcDrfn\Chart\MULTICHART\TabIndices.cpp

; 1551 : {

  00008	8b d9		 mov	 ebx, ecx
; File C:\Program Files (x86)\Microsoft Visual Studio\2019\Community\VC\Tools\MSVC\14.29.30133\atlmfc\include\afxcmn.inl

; 177  : 	{ ASSERT(::IsWindow(m_hWnd)); return (int) ::SendMessage(m_hWnd, LVM_GETNEXTITEM, nItem, MAKELPARAM(nFlags, 0)); }

  0000a	6a 02		 push	 2
  0000c	6a ff		 push	 -1
  0000e	68 0c 10 00 00	 push	 4108			; 0000100cH
  00013	ff b3 f8 01 00
	00		 push	 DWORD PTR [ebx+504]
  00019	ff d6		 call	 esi

; 179  : 	{ ASSERT(::IsWindow(m_hWnd)); return (POSITION)(DWORD_PTR)(1+GetNextItem(-1, LVIS_SELECTED)); }

  0001b	83 c0 01	 add	 eax, 1
; File D:\git\src\IBK\IBK_DRFN\ProjSrc\SrcDrfn\Chart\MULTICHART\TabIndices.cpp

; 1554 : 	if(pos)

  0001e	74 46		 je	 SHORT $LN2@OnBtnDelit
; File C:\Program Files (x86)\Microsoft Visual Studio\2019\Community\VC\Tools\MSVC\14.29.30133\atlmfc\include\afxcmn.inl

; 181  : 	{ ASSERT(::IsWindow(m_hWnd)); DWORD_PTR nOldPos = (DWORD_PTR)pos-1; pos = (POSITION)(DWORD_PTR)(1+GetNextItem((UINT)nOldPos, LVIS_SELECTED)); return (UINT)nOldPos; }

  00020	57		 push	 edi

; 177  : 	{ ASSERT(::IsWindow(m_hWnd)); return (int) ::SendMessage(m_hWnd, LVM_GETNEXTITEM, nItem, MAKELPARAM(nFlags, 0)); }

  00021	6a 02		 push	 2

; 181  : 	{ ASSERT(::IsWindow(m_hWnd)); DWORD_PTR nOldPos = (DWORD_PTR)pos-1; pos = (POSITION)(DWORD_PTR)(1+GetNextItem((UINT)nOldPos, LVIS_SELECTED)); return (UINT)nOldPos; }

  00023	8d 78 ff	 lea	 edi, DWORD PTR [eax-1]

; 177  : 	{ ASSERT(::IsWindow(m_hWnd)); return (int) ::SendMessage(m_hWnd, LVM_GETNEXTITEM, nItem, MAKELPARAM(nFlags, 0)); }

  00026	57		 push	 edi
  00027	68 0c 10 00 00	 push	 4108			; 0000100cH
  0002c	ff b3 f8 01 00
	00		 push	 DWORD PTR [ebx+504]
  00032	ff d6		 call	 esi
; File D:\git\src\IBK\IBK_DRFN\ProjSrc\SrcDrfn\Chart\MULTICHART\TabIndices.cpp

; 1557 : 		m_listItems.DeleteItem(nItem);

  00034	57		 push	 edi
  00035	8d 8b d8 01 00
	00		 lea	 ecx, DWORD PTR [ebx+472]
  0003b	e8 00 00 00 00	 call	 ?DeleteItem@CXListCtrl@@QAEHH@Z ; CXListCtrl::DeleteItem

; 1558 : 		(nItem > 0) ? nItem-- : nItem = 0;
; 1559 : 		m_listItems.SetCurSel(nItem);

  00040	33 c9		 xor	 ecx, ecx
  00042	8d 47 ff	 lea	 eax, DWORD PTR [edi-1]
  00045	85 ff		 test	 edi, edi
  00047	6a 01		 push	 1
  00049	0f 4e c1	 cmovle	 eax, ecx
  0004c	8d 8b d8 01 00
	00		 lea	 ecx, DWORD PTR [ebx+472]
  00052	50		 push	 eax
  00053	e8 00 00 00 00	 call	 ?SetCurSel@CXListCtrl@@QAEHHH@Z ; CXListCtrl::SetCurSel

; 1560 : 		m_nOldSelJipyoIndex = -1;

  00058	5f		 pop	 edi
  00059	5e		 pop	 esi
  0005a	c7 83 08 01 00
	00 ff ff ff ff	 mov	 DWORD PTR [ebx+264], -1

; 1564 : }

  00064	5b		 pop	 ebx
  00065	c3		 ret	 0
$LN2@OnBtnDelit:

; 1561 : 	}
; 1562 : 	else
; 1563 : 		AfxMessageBox("   ");

  00066	6a 00		 push	 0
  00068	6a 00		 push	 0
  0006a	68 00 00 00 00	 push	 OFFSET ??_C@_0BO@HKOHILGA@?$LL?h?A?$KG?G?R?5?G?W?$LI?q?$MA?$LL?5?$LM?$LB?E?C?G?X?5?A?V?$LN?J?$LN?C?$LP?$MA@
  0006f	e8 00 00 00 00	 call	 ?AfxMessageBox@@YGHPBDII@Z ; AfxMessageBox
  00074	5e		 pop	 esi

; 1564 : }

  00075	5b		 pop	 ebx
  00076	c3		 ret	 0
?OnBtnDelitem@CTabIndices@@IAEXXZ ENDP			; CTabIndices::OnBtnDelitem
_TEXT	ENDS
; Function compile flags: /Ogtp
; File D:\git\src\IBK\IBK_DRFN\ProjSrc\SrcDrfn\Chart\MULTICHART\TabIndices.cpp
; File C:\Program Files (x86)\Microsoft Visual Studio\2019\Community\VC\Tools\MSVC\14.29.30133\atlmfc\include\afxcmn.inl
; File D:\git\src\IBK\IBK_DRFN\ProjSrc\SrcDrfn\Chart\MULTICHART\TabIndices.cpp
; File C:\Program Files (x86)\Microsoft Visual Studio\2019\Community\VC\Tools\MSVC\14.29.30133\atlmfc\include\afxcmn.inl
; File D:\git\src\IBK\IBK_DRFN\ProjSrc\SrcDrfn\Chart\MULTICHART\TabIndices.cpp
; File C:\Program Files (x86)\Microsoft Visual Studio\2019\Community\VC\Tools\MSVC\14.29.30133\atlmfc\include\afxwin2.inl
; File D:\git\src\IBK\IBK_DRFN\ProjSrc\SrcDrfn\Chart\MULTICHART\TabIndices.cpp
; File C:\Program Files (x86)\Microsoft Visual Studio\2019\Community\VC\Tools\MSVC\14.29.30133\atlmfc\include\afxcmn.inl
; File D:\git\src\IBK\IBK_DRFN\ProjSrc\SrcDrfn\Chart\MULTICHART\TabIndices.cpp
;	COMDAT ?OnBtnAdditem@CTabIndices@@IAEXXZ
_TEXT	SEGMENT
_this$1$ = -24						; size = 4
_strText$ = -20						; size = 4
_strValue$2 = -16					; size = 4
__$EHRec$ = -12						; size = 12
?OnBtnAdditem@CTabIndices@@IAEXXZ PROC			; CTabIndices::OnBtnAdditem, COMDAT
; _this$ = ecx

; 1523 : {	

  00000	55		 push	 ebp
  00001	8b ec		 mov	 ebp, esp
  00003	6a ff		 push	 -1
  00005	68 00 00 00 00	 push	 __ehhandler$?OnBtnAdditem@CTabIndices@@IAEXXZ
  0000a	64 a1 00 00 00
	00		 mov	 eax, DWORD PTR fs:0
  00010	50		 push	 eax
  00011	83 ec 0c	 sub	 esp, 12			; 0000000cH
  00014	53		 push	 ebx
  00015	56		 push	 esi
  00016	57		 push	 edi
  00017	a1 00 00 00 00	 mov	 eax, DWORD PTR ___security_cookie
  0001c	33 c5		 xor	 eax, ebp
  0001e	50		 push	 eax
  0001f	8d 45 f4	 lea	 eax, DWORD PTR __$EHRec$[ebp]
  00022	64 a3 00 00 00
	00		 mov	 DWORD PTR fs:0, eax
  00028	8b f1		 mov	 esi, ecx
  0002a	89 75 e8	 mov	 DWORD PTR _this$1$[ebp], esi
; File C:\Program Files (x86)\Microsoft Visual Studio\2019\Community\VC\Tools\MSVC\14.29.30133\atlmfc\include\afxcmn.inl

; 316  : 	{ ASSERT(::IsWindow(m_hWnd)); return (HTREEITEM)::SendMessage(m_hWnd, TVM_GETNEXTITEM, TVGN_CARET, 0); }

  0002d	8b 3d 00 00 00
	00		 mov	 edi, DWORD PTR __imp__SendMessageA@16
  00033	6a 00		 push	 0
  00035	6a 09		 push	 9
  00037	68 0a 11 00 00	 push	 4362			; 0000110aH
  0003c	ff b6 68 16 00
	00		 push	 DWORD PTR [esi+5736]
  00042	ff d7		 call	 edi
; File D:\git\src\IBK\IBK_DRFN\ProjSrc\SrcDrfn\Chart\MULTICHART\TabIndices.cpp

; 1525 : 	hItem = m_treeItems.GetSelectedItem();

  00044	8b d8		 mov	 ebx, eax
; File C:\Program Files (x86)\Microsoft Visual Studio\2019\Community\VC\Tools\MSVC\14.29.30133\atlmfc\include\afxcmn.inl

; 306  : 	{ ASSERT(::IsWindow(m_hWnd)); return (HTREEITEM)::SendMessage(m_hWnd, TVM_GETNEXTITEM, TVGN_PARENT, (LPARAM)hItem); }

  00046	53		 push	 ebx
  00047	6a 03		 push	 3
  00049	68 0a 11 00 00	 push	 4362			; 0000110aH
  0004e	ff b6 68 16 00
	00		 push	 DWORD PTR [esi+5736]
  00054	ff d7		 call	 edi
; File D:\git\src\IBK\IBK_DRFN\ProjSrc\SrcDrfn\Chart\MULTICHART\TabIndices.cpp

; 1527 : 	if(hPItem==NULL) 

  00056	85 c0		 test	 eax, eax
  00058	0f 84 b5 00 00
	00		 je	 $LN1@OnBtnAddit

; 1528 : 	{
; 1529 : 		return;
; 1530 : 	}
; 1531 : 	CString strText = m_treeItems.GetItemText(hItem);

  0005e	53		 push	 ebx
  0005f	8d 45 ec	 lea	 eax, DWORD PTR _strText$[ebp]
  00062	50		 push	 eax
  00063	8d 8e 48 16 00
	00		 lea	 ecx, DWORD PTR [esi+5704]
  00069	e8 00 00 00 00	 call	 ?GetItemText@CTreeCtrl@@QBE?AV?$CStringT@DV?$StrTraitMFC_DLL@DV?$ChTraitsCRT@D@ATL@@@@@ATL@@PAU_TREEITEM@@@Z ; CTreeCtrl::GetItemText

; 1533 : 	if(m_listItems.GetSafeHwnd()) // 2005. 04. 22 by Nam

  0006e	8d 9e d8 01 00
	00		 lea	 ebx, DWORD PTR [esi+472]
  00074	c7 45 fc 00 00
	00 00		 mov	 DWORD PTR __$EHRec$[ebp+8], 0
; File C:\Program Files (x86)\Microsoft Visual Studio\2019\Community\VC\Tools\MSVC\14.29.30133\atlmfc\include\afxwin2.inl

; 25   : 	{ return this == NULL ? NULL : m_hWnd; }

  0007b	85 db		 test	 ebx, ebx
  0007d	0f 84 87 00 00
	00		 je	 $LN6@OnBtnAddit
; File D:\git\src\IBK\IBK_DRFN\ProjSrc\SrcDrfn\Chart\MULTICHART\TabIndices.cpp

; 1533 : 	if(m_listItems.GetSafeHwnd()) // 2005. 04. 22 by Nam

  00083	83 7b 20 00	 cmp	 DWORD PTR [ebx+32], 0
  00087	0f 84 7d 00 00
	00		 je	 $LN6@OnBtnAddit
; File C:\Program Files (x86)\Microsoft Visual Studio\2019\Community\VC\Tools\MSVC\14.29.30133\atlmfc\include\afxcmn.inl

; 155  : 	{ ASSERT(::IsWindow(m_hWnd)); return (int) ::SendMessage(m_hWnd, LVM_GETITEMCOUNT, 0, 0L); }

  0008d	6a 00		 push	 0
  0008f	6a 00		 push	 0
  00091	68 04 10 00 00	 push	 4100			; 00001004H
  00096	ff b6 f8 01 00
	00		 push	 DWORD PTR [esi+504]
  0009c	ff d7		 call	 edi
; File D:\git\src\IBK\IBK_DRFN\ProjSrc\SrcDrfn\Chart\MULTICHART\TabIndices.cpp

; 1535 : 		int nTot = m_listItems.GetItemCount();

  0009e	8b f8		 mov	 edi, eax

; 1536 : 		for(int i = 0; i < nTot; i++)

  000a0	33 f6		 xor	 esi, esi
  000a2	85 ff		 test	 edi, edi
  000a4	7e 34		 jle	 SHORT $LN3@OnBtnAddit
$LL4@OnBtnAddit:

; 1537 : 		{
; 1538 : 			CString strValue = m_listItems.GetItemText(i,0);

  000a6	6a 00		 push	 0
  000a8	56		 push	 esi
  000a9	8d 45 f0	 lea	 eax, DWORD PTR _strValue$2[ebp]
  000ac	8b cb		 mov	 ecx, ebx
  000ae	50		 push	 eax
  000af	e8 00 00 00 00	 call	 ?GetItemText@CListCtrl@@QBE?AV?$CStringT@DV?$StrTraitMFC_DLL@DV?$ChTraitsCRT@D@ATL@@@@@ATL@@HH@Z ; CListCtrl::GetItemText

; 1539 : 			if(strValue.CompareNoCase(strText) == 0)

  000b4	ff 75 ec	 push	 DWORD PTR _strText$[ebp]
  000b7	8d 4d f0	 lea	 ecx, DWORD PTR _strValue$2[ebp]
  000ba	c6 45 fc 01	 mov	 BYTE PTR __$EHRec$[ebp+8], 1
  000be	ff 15 00 00 00
	00		 call	 DWORD PTR __imp_?CompareNoCase@?$CStringT@DV?$StrTraitMFC_DLL@DV?$ChTraitsCRT@D@ATL@@@@@ATL@@QBEHPBD@Z
  000c4	8d 4d f0	 lea	 ecx, DWORD PTR _strValue$2[ebp]
  000c7	85 c0		 test	 eax, eax
  000c9	74 5a		 je	 SHORT $LN27@OnBtnAddit

; 1541 : 		}

  000cb	c6 45 fc 00	 mov	 BYTE PTR __$EHRec$[ebp+8], 0
  000cf	ff 15 00 00 00
	00		 call	 DWORD PTR __imp_??1?$CStringT@DV?$StrTraitMFC_DLL@DV?$ChTraitsCRT@D@ATL@@@@@ATL@@QAE@XZ
  000d5	46		 inc	 esi
  000d6	3b f7		 cmp	 esi, edi
  000d8	7c cc		 jl	 SHORT $LL4@OnBtnAddit
$LN3@OnBtnAddit:

; 1542 : 		
; 1543 : 		m_listItems.InsertItem(nTot, strText);

  000da	ff 75 ec	 push	 DWORD PTR _strText$[ebp]
  000dd	8b cb		 mov	 ecx, ebx
  000df	57		 push	 edi
  000e0	e8 00 00 00 00	 call	 ?InsertItem@CXListCtrl@@QAEHHPBD@Z ; CXListCtrl::InsertItem

; 1544 : 		m_listItems.SetCheckbox(nTot, 0, 0); //   .

  000e5	6a 01		 push	 1
  000e7	6a 00		 push	 0
  000e9	6a 00		 push	 0
  000eb	57		 push	 edi
  000ec	8b cb		 mov	 ecx, ebx
  000ee	e8 00 00 00 00	 call	 ?SetCheckbox@CXListCtrl@@QAEHHHHH@Z ; CXListCtrl::SetCheckbox

; 1545 : 		m_listItems.SetCurSel(nTot);

  000f3	6a 01		 push	 1
  000f5	57		 push	 edi
  000f6	8b cb		 mov	 ecx, ebx
  000f8	e8 00 00 00 00	 call	 ?SetCurSel@CXListCtrl@@QAEHHH@Z ; CXListCtrl::SetCurSel

; 1546 : 		m_nOldSelJipyoIndex = -1;

  000fd	8b 45 e8	 mov	 eax, DWORD PTR _this$1$[ebp]
  00100	c7 80 08 01 00
	00 ff ff ff ff	 mov	 DWORD PTR [eax+264], -1
$LN6@OnBtnAddit:

; 1547 : 	}
; 1548 : }

  0010a	8d 4d ec	 lea	 ecx, DWORD PTR _strText$[ebp]
  0010d	ff 15 00 00 00
	00		 call	 DWORD PTR __imp_??1?$CStringT@DV?$StrTraitMFC_DLL@DV?$ChTraitsCRT@D@ATL@@@@@ATL@@QAE@XZ
$LN1@OnBtnAddit:
  00113	8b 4d f4	 mov	 ecx, DWORD PTR __$EHRec$[ebp]
  00116	64 89 0d 00 00
	00 00		 mov	 DWORD PTR fs:0, ecx
  0011d	59		 pop	 ecx
  0011e	5f		 pop	 edi
  0011f	5e		 pop	 esi
  00120	5b		 pop	 ebx
  00121	8b e5		 mov	 esp, ebp
  00123	5d		 pop	 ebp
  00124	c3		 ret	 0
$LN27@OnBtnAddit:

; 1540 : 				return;

  00125	ff 15 00 00 00
	00		 call	 DWORD PTR __imp_??1?$CStringT@DV?$StrTraitMFC_DLL@DV?$ChTraitsCRT@D@ATL@@@@@ATL@@QAE@XZ
  0012b	eb dd		 jmp	 SHORT $LN6@OnBtnAddit
_TEXT	ENDS
;	COMDAT text$x
text$x	SEGMENT
__unwindfunclet$?OnBtnAdditem@CTabIndices@@IAEXXZ$0:
  00000	8d 4d ec	 lea	 ecx, DWORD PTR _strText$[ebp]
  00003	ff 25 00 00 00
	00		 jmp	 DWORD PTR __imp_??1?$CStringT@DV?$StrTraitMFC_DLL@DV?$ChTraitsCRT@D@ATL@@@@@ATL@@QAE@XZ
__unwindfunclet$?OnBtnAdditem@CTabIndices@@IAEXXZ$1:
  00009	8d 4d f0	 lea	 ecx, DWORD PTR _strValue$2[ebp]
  0000c	ff 25 00 00 00
	00		 jmp	 DWORD PTR __imp_??1?$CStringT@DV?$StrTraitMFC_DLL@DV?$ChTraitsCRT@D@ATL@@@@@ATL@@QAE@XZ
  00012	cc		 int	 3
  00013	cc		 int	 3
  00014	cc		 int	 3
  00015	cc		 int	 3
  00016	cc		 int	 3
__ehhandler$?OnBtnAdditem@CTabIndices@@IAEXXZ:
  00017	90		 npad	 1
  00018	90		 npad	 1
  00019	8b 54 24 08	 mov	 edx, DWORD PTR [esp+8]
  0001d	8d 42 0c	 lea	 eax, DWORD PTR [edx+12]
  00020	8b 4a e4	 mov	 ecx, DWORD PTR [edx-28]
  00023	33 c8		 xor	 ecx, eax
  00025	e8 00 00 00 00	 call	 @__security_check_cookie@4
  0002a	b8 00 00 00 00	 mov	 eax, OFFSET __ehfuncinfo$?OnBtnAdditem@CTabIndices@@IAEXXZ
  0002f	e9 00 00 00 00	 jmp	 ___CxxFrameHandler3
text$x	ENDS
?OnBtnAdditem@CTabIndices@@IAEXXZ ENDP			; CTabIndices::OnBtnAdditem
; Function compile flags: /Ogtp
; File D:\git\src\IBK\IBK_DRFN\ProjSrc\SrcDrfn\Chart\MULTICHART\TabIndices.cpp
;	COMDAT ?OnRadioManual@CTabIndices@@IAEXXZ
_TEXT	SEGMENT
?OnRadioManual@CTabIndices@@IAEXXZ PROC			; CTabIndices::OnRadioManual, COMDAT
; _this$ = ecx

; 1518 : 	// TODO: Add your control notification handler code here
; 1519 : 	
; 1520 : }

  00000	c2 00 00	 ret	 0
?OnRadioManual@CTabIndices@@IAEXXZ ENDP			; CTabIndices::OnRadioManual
_TEXT	ENDS
; Function compile flags: /Ogtp
; File D:\git\src\IBK\IBK_DRFN\ProjSrc\SrcDrfn\Chart\MULTICHART\TabIndices.cpp
;	COMDAT ?OnRadioAuto@CTabIndices@@IAEXXZ
_TEXT	SEGMENT
?OnRadioAuto@CTabIndices@@IAEXXZ PROC			; CTabIndices::OnRadioAuto, COMDAT
; _this$ = ecx

; 1512 : 	// TODO: Add your control notification handler code here
; 1513 : 	
; 1514 : }

  00000	c2 00 00	 ret	 0
?OnRadioAuto@CTabIndices@@IAEXXZ ENDP			; CTabIndices::OnRadioAuto
_TEXT	ENDS
; Function compile flags: /Ogtp
; File D:\git\src\IBK\IBK_DRFN\ProjSrc\SrcDrfn\Chart\MULTICHART\TabIndices.cpp
;	COMDAT ?OnSelchangeCmbTime@CTabIndices@@IAEXXZ
_TEXT	SEGMENT
?OnSelchangeCmbTime@CTabIndices@@IAEXXZ PROC		; CTabIndices::OnSelchangeCmbTime, COMDAT
; _this$ = ecx

; 1506 : 	// TODO: Add your control notification handler code here
; 1507 : 	OnBtnStop();

  00000	e9 00 00 00 00	 jmp	 ?OnBtnStop@CTabIndices@@IAEXXZ ; CTabIndices::OnBtnStop
?OnSelchangeCmbTime@CTabIndices@@IAEXXZ ENDP		; CTabIndices::OnSelchangeCmbTime
_TEXT	ENDS
; Function compile flags: /Ogtp
; File D:\git\src\IBK\IBK_DRFN\ProjSrc\SrcDrfn\Chart\MULTICHART\TabIndices.cpp
; File C:\Program Files (x86)\Microsoft Visual Studio\2019\Community\VC\Tools\MSVC\14.29.30133\atlmfc\include\afxwin2.inl
; File D:\git\src\IBK\IBK_DRFN\ProjSrc\SrcDrfn\Chart\MULTICHART\TabIndices.cpp
;	COMDAT ?OnBtnStop@CTabIndices@@IAEXXZ
_TEXT	SEGMENT
?OnBtnStop@CTabIndices@@IAEXXZ PROC			; CTabIndices::OnBtnStop, COMDAT
; _this$ = ecx

; 1483 : {

  00000	56		 push	 esi
  00001	8b f1		 mov	 esi, ecx
; File C:\Program Files (x86)\Microsoft Visual Studio\2019\Community\VC\Tools\MSVC\14.29.30133\atlmfc\include\afxwin2.inl

; 155  : 	{ ASSERT(::IsWindow(m_hWnd)); return ::KillTimer(m_hWnd, nIDEvent); }

  00003	68 00 01 00 00	 push	 256			; 00000100H
  00008	ff 76 20	 push	 DWORD PTR [esi+32]
  0000b	ff 15 00 00 00
	00		 call	 DWORD PTR __imp__KillTimer@8
; File D:\git\src\IBK\IBK_DRFN\ProjSrc\SrcDrfn\Chart\MULTICHART\TabIndices.cpp

; 1491 : 	m_btnStop		.EnableWindow(FALSE);

  00011	6a 00		 push	 0
  00013	8d 8e c8 0a 00
	00		 lea	 ecx, DWORD PTR [esi+2760]
  00019	c7 86 d8 00 00
	00 00 00 00 00	 mov	 DWORD PTR [esi+216], 0
  00023	e8 00 00 00 00	 call	 ?EnableWindow@CWnd@@QAEHH@Z ; CWnd::EnableWindow

; 1492 : 	m_RadioAuto		.EnableWindow(TRUE);

  00028	6a 01		 push	 1
  0002a	8d 8e c8 09 00
	00		 lea	 ecx, DWORD PTR [esi+2504]
  00030	e8 00 00 00 00	 call	 ?EnableWindow@CWnd@@QAEHH@Z ; CWnd::EnableWindow

; 1493 : 	m_RadioManual	.EnableWindow(TRUE);

  00035	6a 01		 push	 1
  00037	8d 8e 48 0a 00
	00		 lea	 ecx, DWORD PTR [esi+2632]
  0003d	e8 00 00 00 00	 call	 ?EnableWindow@CWnd@@QAEHH@Z ; CWnd::EnableWindow

; 1494 : 	m_cmbTime		.EnableWindow(TRUE);

  00042	6a 01		 push	 1
  00044	8d 8e e8 0e 00
	00		 lea	 ecx, DWORD PTR [esi+3816]
  0004a	e8 00 00 00 00	 call	 ?EnableWindow@CWnd@@QAEHH@Z ; CWnd::EnableWindow

; 1495 : 	m_btnAddItem	.EnableWindow(TRUE);

  0004f	6a 01		 push	 1
  00051	8d 8e 28 12 00
	00		 lea	 ecx, DWORD PTR [esi+4648]
  00057	e8 00 00 00 00	 call	 ?EnableWindow@CWnd@@QAEHH@Z ; CWnd::EnableWindow

; 1496 : 	m_btnDelItem	.EnableWindow(TRUE);

  0005c	6a 01		 push	 1
  0005e	8d 8e c8 10 00
	00		 lea	 ecx, DWORD PTR [esi+4296]
  00064	e8 00 00 00 00	 call	 ?EnableWindow@CWnd@@QAEHH@Z ; CWnd::EnableWindow

; 1497 : 	m_btnNext		.EnableWindow(TRUE);

  00069	6a 01		 push	 1
  0006b	8d 8e 88 0d 00
	00		 lea	 ecx, DWORD PTR [esi+3464]
  00071	e8 00 00 00 00	 call	 ?EnableWindow@CWnd@@QAEHH@Z ; CWnd::EnableWindow

; 1498 : 	m_btnPrev		.EnableWindow(TRUE);

  00076	6a 01		 push	 1
  00078	8d 8e 28 0c 00
	00		 lea	 ecx, DWORD PTR [esi+3112]
  0007e	e8 00 00 00 00	 call	 ?EnableWindow@CWnd@@QAEHH@Z ; CWnd::EnableWindow

; 1499 : 	m_listItems		.EnableWindow(TRUE);

  00083	6a 01		 push	 1
  00085	8d 8e d8 01 00
	00		 lea	 ecx, DWORD PTR [esi+472]
  0008b	e8 00 00 00 00	 call	 ?EnableWindow@CWnd@@QAEHH@Z ; CWnd::EnableWindow

; 1500 : 
; 1501 : 	m_nOldSelJipyoIndex = -1;	

  00090	c7 86 08 01 00
	00 ff ff ff ff	 mov	 DWORD PTR [esi+264], -1
  0009a	5e		 pop	 esi

; 1502 : }

  0009b	c3		 ret	 0
?OnBtnStop@CTabIndices@@IAEXXZ ENDP			; CTabIndices::OnBtnStop
_TEXT	ENDS
; Function compile flags: /Ogtp
; File D:\git\src\IBK\IBK_DRFN\ProjSrc\SrcDrfn\Chart\MULTICHART\TabIndices.cpp
;	COMDAT ?OnBtnPrev@CTabIndices@@IAEXXZ
_TEXT	SEGMENT
?OnBtnPrev@CTabIndices@@IAEXXZ PROC			; CTabIndices::OnBtnPrev, COMDAT
; _this$ = ecx

; 1442 : 	
; 1443 : 	
; 1444 : 	// TODO: Add your control notification handler code here
; 1445 : //	MakeCheckedJipyoList();
; 1446 : //	if(m_RadioAuto.GetCheck())
; 1447 : //	{
; 1448 : //		OnBtnStop();
; 1449 : //
; 1450 : //		m_bRun = TRUE;
; 1451 : //		m_listItems.SetAutoRunRecycle(m_bRun);		
; 1452 : //
; 1453 : //		if(m_cmbTime.GetCurSel() != CB_ERR)
; 1454 : //		{	
; 1455 : //			//m_listItems		.EnableWindow(FALSE);
; 1456 : //			m_btnStop		.EnableWindow(TRUE);
; 1457 : //			m_RadioAuto		.EnableWindow(FALSE);
; 1458 : //			m_RadioManual	.EnableWindow(FALSE);
; 1459 : //			m_cmbTime		.EnableWindow(FALSE);
; 1460 : //			m_btnAddItem	.EnableWindow(FALSE);
; 1461 : //			m_btnDelItem	.EnableWindow(FALSE);
; 1462 : //			m_btnNext		.EnableWindow(FALSE);
; 1463 : //			m_btnPrev		.EnableWindow(FALSE);
; 1464 : //
; 1465 : //
; 1466 : //			CString strText;
; 1467 : //			m_cmbTime.GetLBText(m_cmbTime.GetCurSel(), strText);
; 1468 : //			strText.Replace("", "");
; 1469 : //			strText.Remove(' ');
; 1470 : //			SetTimer(ID_SRND_TIMER, atoi(strText) * 1000, NULL);
; 1471 : //			m_bBack = TRUE;
; 1472 : //		}	
; 1473 : //	}
; 1474 : //	else if(m_RadioManual.GetCheck())
; 1475 : //	{
; 1476 : //		m_bBack = TRUE;
; 1477 : //		
; 1478 : //		Move_Selected_JipyoItem(m_nOldSelJipyoIndex);
; 1479 : //	}
; 1480 : }

  00000	c2 00 00	 ret	 0
?OnBtnPrev@CTabIndices@@IAEXXZ ENDP			; CTabIndices::OnBtnPrev
_TEXT	ENDS
; Function compile flags: /Ogtp
; File D:\git\src\IBK\IBK_DRFN\ProjSrc\SrcDrfn\Chart\MULTICHART\TabIndices.cpp
;	COMDAT ?OnBtnNext@CTabIndices@@IAEXXZ
_TEXT	SEGMENT
?OnBtnNext@CTabIndices@@IAEXXZ PROC			; CTabIndices::OnBtnNext, COMDAT
; _this$ = ecx

; 1402 : 	
; 1403 : 	
; 1404 : 	// TODO: Add your control notification handler code here	
; 1405 : //	MakeCheckedJipyoList();
; 1406 : //	if(m_RadioAuto.GetCheck()) // 
; 1407 : //	{
; 1408 : //		OnBtnStop();
; 1409 : //		
; 1410 : //		m_bRun = TRUE;
; 1411 : //		m_listItems.SetAutoRunRecycle(m_bRun);		
; 1412 : //
; 1413 : //		if(m_cmbTime.GetCurSel() != CB_ERR)
; 1414 : //		{	
; 1415 : //			//m_listItems		.EnableWindow(FALSE);
; 1416 : //			m_btnStop		.EnableWindow(TRUE);
; 1417 : //			m_RadioAuto		.EnableWindow(FALSE);
; 1418 : //			m_RadioManual	.EnableWindow(FALSE);
; 1419 : //			m_cmbTime		.EnableWindow(FALSE);
; 1420 : //			m_btnAddItem	.EnableWindow(FALSE);
; 1421 : //			m_btnDelItem	.EnableWindow(FALSE);
; 1422 : //			m_btnNext		.EnableWindow(FALSE);
; 1423 : //			m_btnPrev		.EnableWindow(FALSE);
; 1424 : //
; 1425 : //			CString strText;
; 1426 : //			m_cmbTime.GetLBText(m_cmbTime.GetCurSel(), strText);
; 1427 : //			strText.Replace("", "");
; 1428 : //			strText.Remove(' ');
; 1429 : //			SetTimer(ID_SRND_TIMER, atoi(strText) * 1000, NULL);
; 1430 : //			m_bBack = FALSE;	
; 1431 : //		}
; 1432 : //	}
; 1433 : //	else
; 1434 : //	{
; 1435 : //		m_bBack = FALSE;		
; 1436 : //		Move_Selected_JipyoItem(m_nOldSelJipyoIndex);
; 1437 : //	}
; 1438 : }

  00000	c2 00 00	 ret	 0
?OnBtnNext@CTabIndices@@IAEXXZ ENDP			; CTabIndices::OnBtnNext
_TEXT	ENDS
; Function compile flags: /Ogtp
; File D:\git\src\IBK\IBK_DRFN\ProjSrc\SrcDrfn\Chart\MULTICHART\TabIndices.cpp
;	COMDAT ?OnBtnShowRepeat@CTabIndices@@IAEXXZ
_TEXT	SEGMENT
_strImagePath$ = -24					; size = 4
_strImageUp$ = -20					; size = 4
_strImageDown$ = -16					; size = 4
__$EHRec$ = -12						; size = 12
?OnBtnShowRepeat@CTabIndices@@IAEXXZ PROC		; CTabIndices::OnBtnShowRepeat, COMDAT
; _this$ = ecx

; 1346 : {	

  00000	55		 push	 ebp
  00001	8b ec		 mov	 ebp, esp
  00003	6a ff		 push	 -1
  00005	68 00 00 00 00	 push	 __ehhandler$?OnBtnShowRepeat@CTabIndices@@IAEXXZ
  0000a	64 a1 00 00 00
	00		 mov	 eax, DWORD PTR fs:0
  00010	50		 push	 eax
  00011	83 ec 0c	 sub	 esp, 12			; 0000000cH
  00014	56		 push	 esi
  00015	57		 push	 edi
  00016	a1 00 00 00 00	 mov	 eax, DWORD PTR ___security_cookie
  0001b	33 c5		 xor	 eax, ebp
  0001d	50		 push	 eax
  0001e	8d 45 f4	 lea	 eax, DWORD PTR __$EHRec$[ebp]
  00021	64 a3 00 00 00
	00		 mov	 DWORD PTR fs:0, eax
  00027	8b f9		 mov	 edi, ecx

; 1347 : 	m_bShowJipyoItem = !m_bShowJipyoItem;

  00029	33 c0		 xor	 eax, eax

; 1348 : 	CString strImagePath = m_pParentDlg->m_szImageDir;

  0002b	8d 4d e8	 lea	 ecx, DWORD PTR _strImagePath$[ebp]
  0002e	39 87 e8 03 00
	00		 cmp	 DWORD PTR [edi+1000], eax
  00034	0f 94 c0	 sete	 al
  00037	89 87 e8 03 00
	00		 mov	 DWORD PTR [edi+1000], eax
  0003d	8b 87 bc 00 00
	00		 mov	 eax, DWORD PTR [edi+188]
  00043	05 ac 01 00 00	 add	 eax, 428		; 000001acH
  00048	50		 push	 eax
  00049	ff 15 00 00 00
	00		 call	 DWORD PTR __imp_??0?$CStringT@DV?$StrTraitMFC_DLL@DV?$ChTraitsCRT@D@ATL@@@@@ATL@@QAE@ABV01@@Z

; 1349 : 	CString strImageUp, strImageDown;

  0004f	8d 4d ec	 lea	 ecx, DWORD PTR _strImageUp$[ebp]
  00052	c7 45 fc 00 00
	00 00		 mov	 DWORD PTR __$EHRec$[ebp+8], 0
  00059	ff 15 00 00 00
	00		 call	 DWORD PTR __imp_??0?$CStringT@DV?$StrTraitMFC_DLL@DV?$ChTraitsCRT@D@ATL@@@@@ATL@@QAE@XZ
  0005f	8d 4d f0	 lea	 ecx, DWORD PTR _strImageDown$[ebp]
  00062	ff 15 00 00 00
	00		 call	 DWORD PTR __imp_??0?$CStringT@DV?$StrTraitMFC_DLL@DV?$ChTraitsCRT@D@ATL@@@@@ATL@@QAE@XZ

; 1350 : 			
; 1351 : 	if(m_bShowJipyoItem)
; 1352 : 	{
; 1353 : 		//m_btnShowList.FP_vSetImage(m_pIL_W30H19, 2, 3);
; 1354 : 
; 1355 : 		m_ySplitterY1	.ShowWindow(SW_SHOW);
; 1356 : 		m_listItems		.ShowWindow(SW_SHOW);
; 1357 : 		m_btnPrev		.ShowWindow(SW_SHOW);
; 1358 : 		m_btnStop		.ShowWindow(SW_SHOW);
; 1359 : 		m_btnNext		.ShowWindow(SW_SHOW);
; 1360 : 		m_RadioManual	.ShowWindow(SW_SHOW);
; 1361 : 		m_RadioAuto		.ShowWindow(SW_SHOW);				
; 1362 : 		m_btnAddItem	.ShowWindow(SW_SHOW);
; 1363 : 		m_btnDelItem	.ShowWindow(SW_SHOW);
; 1364 : 		m_cmbTime		.ShowWindow(SW_SHOW);
; 1365 : //		GetDlgItem(IDC_RADIO_MANUAL	)->ShowWindow(SW_SHOW);
; 1366 : //		GetDlgItem(IDC_RADIO_AUTO	)->ShowWindow(SW_SHOW);
; 1367 : //		GetDlgItem(IDC_BTN_ADDITEM	)->ShowWindow(SW_SHOW);
; 1368 : //		GetDlgItem(IDC_BTN_DELITEM	)->ShowWindow(SW_SHOW);
; 1369 : //		GetDlgItem(IDC_CMB_TIME		)->ShowWindow(SW_SHOW);
; 1370 : 
; 1371 : 
; 1372 : 	}
; 1373 : 	else
; 1374 : 	{
; 1375 : //		m_btnShowList.FP_vSetImage(m_pIL_W30H19, 0, 1);
; 1376 : 
; 1377 : 		m_ySplitterY1	.ShowWindow(SW_HIDE);
; 1378 : 		m_listItems		.ShowWindow(SW_HIDE);
; 1379 : 		m_btnPrev		.ShowWindow(SW_HIDE);
; 1380 : 		m_btnStop		.ShowWindow(SW_HIDE);
; 1381 : 		m_btnNext		.ShowWindow(SW_HIDE);
; 1382 : 		m_RadioManual	.ShowWindow(SW_HIDE);
; 1383 : 		m_RadioAuto		.ShowWindow(SW_HIDE);				
; 1384 : 		m_btnAddItem	.ShowWindow(SW_HIDE);
; 1385 : 		m_btnDelItem	.ShowWindow(SW_HIDE);
; 1386 : 		m_cmbTime		.ShowWindow(SW_HIDE);
; 1387 : //		GetDlgItem(IDC_RADIO_MANUAL	)->ShowWindow(SW_HIDE);
; 1388 : //		GetDlgItem(IDC_RADIO_AUTO	)->ShowWindow(SW_HIDE);
; 1389 : //		GetDlgItem(IDC_BTN_ADDITEM	)->ShowWindow(SW_HIDE);
; 1390 : //		GetDlgItem(IDC_BTN_DELITEM	)->ShowWindow(SW_HIDE);
; 1391 : //		GetDlgItem(IDC_CMB_TIME		)->ShowWindow(SW_HIDE);
; 1392 : 	}
; 1393 : 	RecalcLayout();

  00068	8b b7 e8 03 00
	00		 mov	 esi, DWORD PTR [edi+1000]
  0006e	8d 8f 10 01 00
	00		 lea	 ecx, DWORD PTR [edi+272]
  00074	f7 de		 neg	 esi
  00076	c6 45 fc 02	 mov	 BYTE PTR __$EHRec$[ebp+8], 2
  0007a	1b f6		 sbb	 esi, esi
  0007c	83 e6 05	 and	 esi, 5
  0007f	56		 push	 esi
  00080	e8 00 00 00 00	 call	 ?ShowWindow@CWnd@@QAEHH@Z ; CWnd::ShowWindow
  00085	56		 push	 esi
  00086	8d 8f d8 01 00
	00		 lea	 ecx, DWORD PTR [edi+472]
  0008c	e8 00 00 00 00	 call	 ?ShowWindow@CWnd@@QAEHH@Z ; CWnd::ShowWindow
  00091	56		 push	 esi
  00092	8d 8f 28 0c 00
	00		 lea	 ecx, DWORD PTR [edi+3112]
  00098	e8 00 00 00 00	 call	 ?ShowWindow@CWnd@@QAEHH@Z ; CWnd::ShowWindow
  0009d	56		 push	 esi
  0009e	8d 8f c8 0a 00
	00		 lea	 ecx, DWORD PTR [edi+2760]
  000a4	e8 00 00 00 00	 call	 ?ShowWindow@CWnd@@QAEHH@Z ; CWnd::ShowWindow
  000a9	56		 push	 esi
  000aa	8d 8f 88 0d 00
	00		 lea	 ecx, DWORD PTR [edi+3464]
  000b0	e8 00 00 00 00	 call	 ?ShowWindow@CWnd@@QAEHH@Z ; CWnd::ShowWindow
  000b5	56		 push	 esi
  000b6	8d 8f 48 0a 00
	00		 lea	 ecx, DWORD PTR [edi+2632]
  000bc	e8 00 00 00 00	 call	 ?ShowWindow@CWnd@@QAEHH@Z ; CWnd::ShowWindow
  000c1	56		 push	 esi
  000c2	8d 8f c8 09 00
	00		 lea	 ecx, DWORD PTR [edi+2504]
  000c8	e8 00 00 00 00	 call	 ?ShowWindow@CWnd@@QAEHH@Z ; CWnd::ShowWindow
  000cd	56		 push	 esi
  000ce	8d 8f 28 12 00
	00		 lea	 ecx, DWORD PTR [edi+4648]
  000d4	e8 00 00 00 00	 call	 ?ShowWindow@CWnd@@QAEHH@Z ; CWnd::ShowWindow
  000d9	56		 push	 esi
  000da	8d 8f c8 10 00
	00		 lea	 ecx, DWORD PTR [edi+4296]
  000e0	e8 00 00 00 00	 call	 ?ShowWindow@CWnd@@QAEHH@Z ; CWnd::ShowWindow
  000e5	56		 push	 esi
  000e6	8d 8f e8 0e 00
	00		 lea	 ecx, DWORD PTR [edi+3816]
  000ec	e8 00 00 00 00	 call	 ?ShowWindow@CWnd@@QAEHH@Z ; CWnd::ShowWindow
  000f1	8b cf		 mov	 ecx, edi
  000f3	e8 00 00 00 00	 call	 ?RecalcLayout@CTabIndices@@AAEXXZ ; CTabIndices::RecalcLayout

; 1394 : 
; 1395 : 
; 1396 : 	
; 1397 : //	m_btnShowList.Invalidate();
; 1398 : }

  000f8	8d 4d f0	 lea	 ecx, DWORD PTR _strImageDown$[ebp]
  000fb	ff 15 00 00 00
	00		 call	 DWORD PTR __imp_??1?$CStringT@DV?$StrTraitMFC_DLL@DV?$ChTraitsCRT@D@ATL@@@@@ATL@@QAE@XZ
  00101	8d 4d ec	 lea	 ecx, DWORD PTR _strImageUp$[ebp]
  00104	ff 15 00 00 00
	00		 call	 DWORD PTR __imp_??1?$CStringT@DV?$StrTraitMFC_DLL@DV?$ChTraitsCRT@D@ATL@@@@@ATL@@QAE@XZ
  0010a	8d 4d e8	 lea	 ecx, DWORD PTR _strImagePath$[ebp]
  0010d	ff 15 00 00 00
	00		 call	 DWORD PTR __imp_??1?$CStringT@DV?$StrTraitMFC_DLL@DV?$ChTraitsCRT@D@ATL@@@@@ATL@@QAE@XZ
  00113	8b 4d f4	 mov	 ecx, DWORD PTR __$EHRec$[ebp]
  00116	64 89 0d 00 00
	00 00		 mov	 DWORD PTR fs:0, ecx
  0011d	59		 pop	 ecx
  0011e	5f		 pop	 edi
  0011f	5e		 pop	 esi
  00120	8b e5		 mov	 esp, ebp
  00122	5d		 pop	 ebp
  00123	c3		 ret	 0
_TEXT	ENDS
;	COMDAT text$x
text$x	SEGMENT
__unwindfunclet$?OnBtnShowRepeat@CTabIndices@@IAEXXZ$0:
  00000	8d 4d e8	 lea	 ecx, DWORD PTR _strImagePath$[ebp]
  00003	ff 25 00 00 00
	00		 jmp	 DWORD PTR __imp_??1?$CStringT@DV?$StrTraitMFC_DLL@DV?$ChTraitsCRT@D@ATL@@@@@ATL@@QAE@XZ
__unwindfunclet$?OnBtnShowRepeat@CTabIndices@@IAEXXZ$1:
  00009	8d 4d ec	 lea	 ecx, DWORD PTR _strImageUp$[ebp]
  0000c	ff 25 00 00 00
	00		 jmp	 DWORD PTR __imp_??1?$CStringT@DV?$StrTraitMFC_DLL@DV?$ChTraitsCRT@D@ATL@@@@@ATL@@QAE@XZ
__unwindfunclet$?OnBtnShowRepeat@CTabIndices@@IAEXXZ$2:
  00012	8d 4d f0	 lea	 ecx, DWORD PTR _strImageDown$[ebp]
  00015	ff 25 00 00 00
	00		 jmp	 DWORD PTR __imp_??1?$CStringT@DV?$StrTraitMFC_DLL@DV?$ChTraitsCRT@D@ATL@@@@@ATL@@QAE@XZ
  0001b	cc		 int	 3
  0001c	cc		 int	 3
  0001d	cc		 int	 3
  0001e	cc		 int	 3
  0001f	cc		 int	 3
__ehhandler$?OnBtnShowRepeat@CTabIndices@@IAEXXZ:
  00020	90		 npad	 1
  00021	90		 npad	 1
  00022	8b 54 24 08	 mov	 edx, DWORD PTR [esp+8]
  00026	8d 42 0c	 lea	 eax, DWORD PTR [edx+12]
  00029	8b 4a e8	 mov	 ecx, DWORD PTR [edx-24]
  0002c	33 c8		 xor	 ecx, eax
  0002e	e8 00 00 00 00	 call	 @__security_check_cookie@4
  00033	b8 00 00 00 00	 mov	 eax, OFFSET __ehfuncinfo$?OnBtnShowRepeat@CTabIndices@@IAEXXZ
  00038	e9 00 00 00 00	 jmp	 ___CxxFrameHandler3
text$x	ENDS
?OnBtnShowRepeat@CTabIndices@@IAEXXZ ENDP		; CTabIndices::OnBtnShowRepeat
; Function compile flags: /Ogtp
; File D:\git\src\IBK\IBK_DRFN\ProjSrc\SrcDrfn\Chart\MULTICHART\TabIndices.cpp
;	COMDAT ?OnDblclkListitems@CTabIndices@@IAEXPAUtagNMHDR@@PAJ@Z
_TEXT	SEGMENT
_pNMHDR$ = 8						; size = 4
_pResult$ = 12						; size = 4
?OnDblclkListitems@CTabIndices@@IAEXPAUtagNMHDR@@PAJ@Z PROC ; CTabIndices::OnDblclkListitems, COMDAT
; _this$ = ecx

; 886  : {

  00000	55		 push	 ebp
  00001	8b ec		 mov	 ebp, esp

; 887  : 	// TODO: Add your control notification handler code here
; 888  : 	//OnBtapply();
; 889  : 	*pResult = 0;

  00003	8b 45 0c	 mov	 eax, DWORD PTR _pResult$[ebp]
  00006	c7 00 00 00 00
	00		 mov	 DWORD PTR [eax], 0

; 890  : }

  0000c	5d		 pop	 ebp
  0000d	c2 08 00	 ret	 8
?OnDblclkListitems@CTabIndices@@IAEXPAUtagNMHDR@@PAJ@Z ENDP ; CTabIndices::OnDblclkListitems
_TEXT	ENDS
; Function compile flags: /Ogtp
; File D:\git\src\IBK\IBK_DRFN\ProjSrc\SrcDrfn\Chart\MULTICHART\TabIndices.cpp
; File C:\Program Files (x86)\Microsoft Visual Studio\2019\Community\VC\Tools\MSVC\14.29.30133\atlmfc\include\afxwin2.inl
; File D:\git\src\IBK\IBK_DRFN\ProjSrc\SrcDrfn\Chart\MULTICHART\TabIndices.cpp
; File C:\Program Files (x86)\Microsoft Visual Studio\2019\Community\VC\Tools\MSVC\14.29.30133\atlmfc\include\afxwin2.inl
; File D:\git\src\IBK\IBK_DRFN\ProjSrc\SrcDrfn\Chart\MULTICHART\TabIndices.cpp
;	COMDAT ?OnBegindragListitems@CTabIndices@@IAEXPAUtagNMHDR@@PAJ@Z
_TEXT	SEGMENT
_pNMHDR$ = 8						; size = 4
_pResult$ = 12						; size = 4
?OnBegindragListitems@CTabIndices@@IAEXPAUtagNMHDR@@PAJ@Z PROC ; CTabIndices::OnBegindragListitems, COMDAT
; _this$ = ecx

; 1327 : {

  00000	55		 push	 ebp
  00001	8b ec		 mov	 ebp, esp
; File C:\Program Files (x86)\Microsoft Visual Studio\2019\Community\VC\Tools\MSVC\14.29.30133\atlmfc\include\afxwin2.inl

; 163  : 	{ ASSERT(::IsWindow(m_hWnd)); return CWnd::FromHandle(::SetCapture(m_hWnd)); }

  00003	ff 71 20	 push	 DWORD PTR [ecx+32]
; File D:\git\src\IBK\IBK_DRFN\ProjSrc\SrcDrfn\Chart\MULTICHART\TabIndices.cpp

; 1330 : 	m_bLBtnDown = TRUE;

  00006	c7 81 80 17 00
	00 01 00 00 00	 mov	 DWORD PTR [ecx+6016], 1
; File C:\Program Files (x86)\Microsoft Visual Studio\2019\Community\VC\Tools\MSVC\14.29.30133\atlmfc\include\afxwin2.inl

; 163  : 	{ ASSERT(::IsWindow(m_hWnd)); return CWnd::FromHandle(::SetCapture(m_hWnd)); }

  00010	ff 15 00 00 00
	00		 call	 DWORD PTR __imp__SetCapture@4
  00016	50		 push	 eax
  00017	e8 00 00 00 00	 call	 ?FromHandle@CWnd@@SGPAV1@PAUHWND__@@@Z ; CWnd::FromHandle
; File D:\git\src\IBK\IBK_DRFN\ProjSrc\SrcDrfn\Chart\MULTICHART\TabIndices.cpp

; 1332 : 	*pResult = 0;

  0001c	8b 45 0c	 mov	 eax, DWORD PTR _pResult$[ebp]
  0001f	c7 00 00 00 00
	00		 mov	 DWORD PTR [eax], 0

; 1333 : }

  00025	5d		 pop	 ebp
  00026	c2 08 00	 ret	 8
?OnBegindragListitems@CTabIndices@@IAEXPAUtagNMHDR@@PAJ@Z ENDP ; CTabIndices::OnBegindragListitems
_TEXT	ENDS
; Function compile flags: /Ogtp
; File D:\git\src\IBK\IBK_DRFN\ProjSrc\SrcDrfn\Chart\MULTICHART\TabIndices.cpp
; File C:\Program Files (x86)\Microsoft Visual Studio\2019\Community\VC\Tools\MSVC\14.29.30133\atlmfc\include\afxwin2.inl
; File D:\git\src\IBK\IBK_DRFN\ProjSrc\SrcDrfn\Chart\MULTICHART\TabIndices.cpp
; File C:\Program Files (x86)\Microsoft Visual Studio\2019\Community\VC\Tools\MSVC\14.29.30133\atlmfc\include\afxwin2.inl
; File C:\Program Files (x86)\Microsoft Visual Studio\2019\Community\VC\Tools\MSVC\14.29.30133\atlmfc\include\atltypes.h
; File C:\Program Files (x86)\Microsoft Visual Studio\2019\Community\VC\Tools\MSVC\14.29.30133\atlmfc\include\afxwin2.inl
; File C:\Program Files (x86)\Microsoft Visual Studio\2019\Community\VC\Tools\MSVC\14.29.30133\atlmfc\include\atltypes.h
; File D:\git\src\IBK\IBK_DRFN\ProjSrc\SrcDrfn\Chart\MULTICHART\TabIndices.cpp
; File C:\Program Files (x86)\Microsoft Visual Studio\2019\Community\VC\Tools\MSVC\14.29.30133\atlmfc\include\atltypes.h
; File D:\git\src\IBK\IBK_DRFN\ProjSrc\SrcDrfn\Chart\MULTICHART\TabIndices.cpp
; File C:\Program Files (x86)\Microsoft Visual Studio\2019\Community\VC\Tools\MSVC\14.29.30133\atlmfc\include\afxwin2.inl
; File D:\git\src\IBK\IBK_DRFN\ProjSrc\SrcDrfn\Chart\MULTICHART\TabIndices.cpp
; File C:\Program Files (x86)\Microsoft Visual Studio\2019\Community\VC\Tools\MSVC\14.29.30133\atlmfc\include\afxwin2.inl
; File D:\git\src\IBK\IBK_DRFN\ProjSrc\SrcDrfn\Chart\MULTICHART\TabIndices.cpp
;	COMDAT ?OnLButtonUp@CTabIndices@@IAEXIVCPoint@@@Z
_TEXT	SEGMENT
_ptDrag$1 = -44						; size = 8
_rectList$2 = -36					; size = 16
_rectChartMng$3 = -20					; size = 16
__$ArrayPad$ = -4					; size = 4
_nFlags$ = 8						; size = 4
_point$ = 12						; size = 8
?OnLButtonUp@CTabIndices@@IAEXIVCPoint@@@Z PROC		; CTabIndices::OnLButtonUp, COMDAT
; _this$ = ecx

; 1297 : {

  00000	55		 push	 ebp
  00001	8b ec		 mov	 ebp, esp
  00003	83 ec 2c	 sub	 esp, 44			; 0000002cH
  00006	a1 00 00 00 00	 mov	 eax, DWORD PTR ___security_cookie
  0000b	33 c5		 xor	 eax, ebp
  0000d	89 45 fc	 mov	 DWORD PTR __$ArrayPad$[ebp], eax
  00010	57		 push	 edi
  00011	8b f9		 mov	 edi, ecx

; 1298 : 	// TODO: Add your message handler code here and/or call default
; 1299 : 	if(m_bLBtnDown)

  00013	83 bf 80 17 00
	00 00		 cmp	 DWORD PTR [edi+6016], 0
  0001a	0f 84 da 00 00
	00		 je	 $LN2@OnLButtonU

; 1300 : 	{
; 1301 : 		m_bLBtnDown = FALSE;

  00020	c7 87 80 17 00
	00 00 00 00 00	 mov	 DWORD PTR [edi+6016], 0

; 1302 : 		ReleaseCapture();

  0002a	ff 15 00 00 00
	00		 call	 DWORD PTR __imp__ReleaseCapture@0

; 1303 : 
; 1304 : 		if(m_bDragNDrop)	//  

  00030	83 bf 84 17 00
	00 00		 cmp	 DWORD PTR [edi+6020], 0
  00037	0f 84 b3 00 00
	00		 je	 $LN7@OnLButtonU

; 1306 : 			CPoint ptDrag(point);

  0003d	8b 45 0c	 mov	 eax, DWORD PTR _point$[ebp]
  00040	8b 4d 10	 mov	 ecx, DWORD PTR _point$[ebp+4]
  00043	56		 push	 esi
  00044	89 45 d4	 mov	 DWORD PTR _ptDrag$1[ebp], eax
; File C:\Program Files (x86)\Microsoft Visual Studio\2019\Community\VC\Tools\MSVC\14.29.30133\atlmfc\include\afxwin2.inl

; 92   : 	{ ASSERT(::IsWindow(m_hWnd)); ::ClientToScreen(m_hWnd, lpPoint); }

  00047	8d 45 d4	 lea	 eax, DWORD PTR _ptDrag$1[ebp]
  0004a	50		 push	 eax
  0004b	ff 77 20	 push	 DWORD PTR [edi+32]
; File D:\git\src\IBK\IBK_DRFN\ProjSrc\SrcDrfn\Chart\MULTICHART\TabIndices.cpp

; 1306 : 			CPoint ptDrag(point);

  0004e	89 4d d8	 mov	 DWORD PTR _ptDrag$1[ebp+4], ecx
; File C:\Program Files (x86)\Microsoft Visual Studio\2019\Community\VC\Tools\MSVC\14.29.30133\atlmfc\include\afxwin2.inl

; 92   : 	{ ASSERT(::IsWindow(m_hWnd)); ::ClientToScreen(m_hWnd, lpPoint); }

  00051	ff 15 00 00 00
	00		 call	 DWORD PTR __imp__ClientToScreen@8

; 84   : 	{ ASSERT(::IsWindow(m_hWnd)); ::GetWindowRect(m_hWnd, lpRect); }

  00057	8b 35 00 00 00
	00		 mov	 esi, DWORD PTR __imp__GetWindowRect@8
  0005d	8d 45 ec	 lea	 eax, DWORD PTR _rectChartMng$3[ebp]
  00060	50		 push	 eax
  00061	8b 87 bc 00 00
	00		 mov	 eax, DWORD PTR [edi+188]
; File C:\Program Files (x86)\Microsoft Visual Studio\2019\Community\VC\Tools\MSVC\14.29.30133\atlmfc\include\atltypes.h

; 528  : 	left = 0;

  00067	c7 45 ec 00 00
	00 00		 mov	 DWORD PTR _rectChartMng$3[ebp], 0
  0006e	c7 45 dc 00 00
	00 00		 mov	 DWORD PTR _rectList$2[ebp], 0
  00075	c7 45 f0 00 00
	00 00		 mov	 DWORD PTR _rectChartMng$3[ebp+4], 0
  0007c	c7 45 e0 00 00
	00 00		 mov	 DWORD PTR _rectList$2[ebp+4], 0
  00083	c7 45 f4 00 00
	00 00		 mov	 DWORD PTR _rectChartMng$3[ebp+8], 0
  0008a	c7 45 e4 00 00
	00 00		 mov	 DWORD PTR _rectList$2[ebp+8], 0
  00091	c7 45 f8 00 00
	00 00		 mov	 DWORD PTR _rectChartMng$3[ebp+12], 0
  00098	c7 45 e8 00 00
	00 00		 mov	 DWORD PTR _rectList$2[ebp+12], 0
; File C:\Program Files (x86)\Microsoft Visual Studio\2019\Community\VC\Tools\MSVC\14.29.30133\atlmfc\include\afxwin2.inl

; 84   : 	{ ASSERT(::IsWindow(m_hWnd)); ::GetWindowRect(m_hWnd, lpRect); }

  0009f	ff 70 20	 push	 DWORD PTR [eax+32]
  000a2	ff d6		 call	 esi
  000a4	8d 45 dc	 lea	 eax, DWORD PTR _rectList$2[ebp]
  000a7	50		 push	 eax
  000a8	ff b7 f8 01 00
	00		 push	 DWORD PTR [edi+504]
  000ae	ff d6		 call	 esi
; File C:\Program Files (x86)\Microsoft Visual Studio\2019\Community\VC\Tools\MSVC\14.29.30133\atlmfc\include\atltypes.h

; 648  : 	return ::PtInRect(this, point);

  000b0	ff 75 d8	 push	 DWORD PTR _ptDrag$1[ebp+4]
  000b3	8b 35 00 00 00
	00		 mov	 esi, DWORD PTR __imp__PtInRect@12
  000b9	8d 45 ec	 lea	 eax, DWORD PTR _rectChartMng$3[ebp]
  000bc	ff 75 d4	 push	 DWORD PTR _ptDrag$1[ebp]
  000bf	50		 push	 eax
  000c0	ff d6		 call	 esi
; File D:\git\src\IBK\IBK_DRFN\ProjSrc\SrcDrfn\Chart\MULTICHART\TabIndices.cpp

; 1311 : 			if(!rectChartMng.PtInRect(ptDrag))

  000c2	85 c0		 test	 eax, eax
  000c4	75 09		 jne	 SHORT $LN4@OnLButtonU

; 1312 : 			{
; 1313 : 				OnBtapply();

  000c6	8b cf		 mov	 ecx, edi
  000c8	e8 00 00 00 00	 call	 ?OnBtapply@CTabIndices@@IAEXXZ ; CTabIndices::OnBtapply

; 1314 : 			}

  000cd	eb 20		 jmp	 SHORT $LN39@OnLButtonU
$LN4@OnLButtonU:
; File C:\Program Files (x86)\Microsoft Visual Studio\2019\Community\VC\Tools\MSVC\14.29.30133\atlmfc\include\atltypes.h

; 648  : 	return ::PtInRect(this, point);

  000cf	ff 75 d8	 push	 DWORD PTR _ptDrag$1[ebp+4]
  000d2	8d 45 dc	 lea	 eax, DWORD PTR _rectList$2[ebp]
  000d5	ff 75 d4	 push	 DWORD PTR _ptDrag$1[ebp]
  000d8	50		 push	 eax
  000d9	ff d6		 call	 esi
; File D:\git\src\IBK\IBK_DRFN\ProjSrc\SrcDrfn\Chart\MULTICHART\TabIndices.cpp

; 1315 : 			else if(rectList.PtInRect(ptDrag))

  000db	85 c0		 test	 eax, eax
  000dd	74 10		 je	 SHORT $LN39@OnLButtonU

; 1316 : 			{
; 1317 : 				if(m_bRun == FALSE)

  000df	83 bf d8 00 00
	00 00		 cmp	 DWORD PTR [edi+216], 0
  000e6	75 07		 jne	 SHORT $LN39@OnLButtonU

; 1318 : 					OnBtnAdditem();	

  000e8	8b cf		 mov	 ecx, edi
  000ea	e8 00 00 00 00	 call	 ?OnBtnAdditem@CTabIndices@@IAEXXZ ; CTabIndices::OnBtnAdditem
$LN39@OnLButtonU:
  000ef	5e		 pop	 esi
$LN7@OnLButtonU:

; 1319 : 			}
; 1320 : 		}
; 1321 : 		m_bDragNDrop = FALSE;

  000f0	c7 87 84 17 00
	00 00 00 00 00	 mov	 DWORD PTR [edi+6020], 0
$LN2@OnLButtonU:
; File C:\Program Files (x86)\Microsoft Visual Studio\2019\Community\VC\Tools\MSVC\14.29.30133\atlmfc\include\afxwin2.inl

; 434  : 	{ Default(); }

  000fa	8b cf		 mov	 ecx, edi
  000fc	e8 00 00 00 00	 call	 ?Default@CWnd@@IAEJXZ	; CWnd::Default
; File D:\git\src\IBK\IBK_DRFN\ProjSrc\SrcDrfn\Chart\MULTICHART\TabIndices.cpp

; 1324 : }

  00101	8b 4d fc	 mov	 ecx, DWORD PTR __$ArrayPad$[ebp]
  00104	33 cd		 xor	 ecx, ebp
; File C:\Program Files (x86)\Microsoft Visual Studio\2019\Community\VC\Tools\MSVC\14.29.30133\atlmfc\include\afxwin2.inl

; 434  : 	{ Default(); }

  00106	5f		 pop	 edi
; File D:\git\src\IBK\IBK_DRFN\ProjSrc\SrcDrfn\Chart\MULTICHART\TabIndices.cpp

; 1324 : }

  00107	e8 00 00 00 00	 call	 @__security_check_cookie@4
  0010c	8b e5		 mov	 esp, ebp
  0010e	5d		 pop	 ebp
  0010f	c2 0c 00	 ret	 12			; 0000000cH
?OnLButtonUp@CTabIndices@@IAEXIVCPoint@@@Z ENDP		; CTabIndices::OnLButtonUp
_TEXT	ENDS
; Function compile flags: /Ogtp
; File D:\git\src\IBK\IBK_DRFN\ProjSrc\SrcDrfn\Chart\MULTICHART\TabIndices.cpp
; File C:\Program Files (x86)\Microsoft Visual Studio\2019\Community\VC\Tools\MSVC\14.29.30133\atlmfc\include\afxwin2.inl
; File D:\git\src\IBK\IBK_DRFN\ProjSrc\SrcDrfn\Chart\MULTICHART\TabIndices.cpp
; File C:\Program Files (x86)\Microsoft Visual Studio\2019\Community\VC\Tools\MSVC\14.29.30133\atlmfc\include\afxwin2.inl
; File D:\git\src\IBK\IBK_DRFN\ProjSrc\SrcDrfn\Chart\MULTICHART\TabIndices.cpp
; File C:\Program Files (x86)\Microsoft Visual Studio\2019\Community\VC\Tools\MSVC\14.29.30133\atlmfc\include\afxwin2.inl
; File D:\git\src\IBK\IBK_DRFN\ProjSrc\SrcDrfn\Chart\MULTICHART\TabIndices.cpp
;	COMDAT ?OnMouseMove@CTabIndices@@IAEXIVCPoint@@@Z
_TEXT	SEGMENT
_ptDrag$1 = -8						; size = 8
_nFlags$ = 8						; size = 4
_point$ = 12						; size = 8
?OnMouseMove@CTabIndices@@IAEXIVCPoint@@@Z PROC		; CTabIndices::OnMouseMove, COMDAT
; _this$ = ecx

; 1282 : {

  00000	55		 push	 ebp
  00001	8b ec		 mov	 ebp, esp
  00003	83 ec 08	 sub	 esp, 8
  00006	57		 push	 edi
  00007	8b f9		 mov	 edi, ecx

; 1283 : 	// TODO: Add your message handler code here and/or call default
; 1284 : 	if(m_bLBtnDown)

  00009	83 bf 80 17 00
	00 00		 cmp	 DWORD PTR [edi+6016], 0
  00010	74 68		 je	 SHORT $LN2@OnMouseMov

; 1288 : 		CPoint ptDrag(point);

  00012	8b 45 0c	 mov	 eax, DWORD PTR _point$[ebp]
  00015	8b 55 10	 mov	 edx, DWORD PTR _point$[ebp+4]
  00018	56		 push	 esi
  00019	89 45 f8	 mov	 DWORD PTR _ptDrag$1[ebp], eax
; File C:\Program Files (x86)\Microsoft Visual Studio\2019\Community\VC\Tools\MSVC\14.29.30133\atlmfc\include\afxwin2.inl

; 92   : 	{ ASSERT(::IsWindow(m_hWnd)); ::ClientToScreen(m_hWnd, lpPoint); }

  0001c	8d 45 f8	 lea	 eax, DWORD PTR _ptDrag$1[ebp]
  0001f	50		 push	 eax
  00020	ff 77 20	 push	 DWORD PTR [edi+32]
; File D:\git\src\IBK\IBK_DRFN\ProjSrc\SrcDrfn\Chart\MULTICHART\TabIndices.cpp

; 1287 : 		m_bDragNDrop = TRUE;

  00023	c7 87 84 17 00
	00 01 00 00 00	 mov	 DWORD PTR [edi+6020], 1

; 1288 : 		CPoint ptDrag(point);

  0002d	89 55 fc	 mov	 DWORD PTR _ptDrag$1[ebp+4], edx
; File C:\Program Files (x86)\Microsoft Visual Studio\2019\Community\VC\Tools\MSVC\14.29.30133\atlmfc\include\afxwin2.inl

; 92   : 	{ ASSERT(::IsWindow(m_hWnd)); ::ClientToScreen(m_hWnd, lpPoint); }

  00030	ff 15 00 00 00
	00		 call	 DWORD PTR __imp__ClientToScreen@8
; File D:\git\src\IBK\IBK_DRFN\ProjSrc\SrcDrfn\Chart\MULTICHART\TabIndices.cpp

; 1290 : 		m_pMultiChartWnd->GetParent()->GetParent()->GetParent()->SendMessage(RMSG_DRAGSTART, (WPARAM)&ptDrag, (LPARAM)m_hWnd);

  00036	8b 87 c0 00 00
	00		 mov	 eax, DWORD PTR [edi+192]
; File C:\Program Files (x86)\Microsoft Visual Studio\2019\Community\VC\Tools\MSVC\14.29.30133\atlmfc\include\afxwin2.inl

; 213  : 	{ ASSERT(::IsWindow(m_hWnd)); return CWnd::FromHandle(::GetParent(m_hWnd)); }

  0003c	8b 35 00 00 00
	00		 mov	 esi, DWORD PTR __imp__GetParent@4
  00042	ff 70 20	 push	 DWORD PTR [eax+32]
  00045	ff d6		 call	 esi
  00047	50		 push	 eax
  00048	e8 00 00 00 00	 call	 ?FromHandle@CWnd@@SGPAV1@PAUHWND__@@@Z ; CWnd::FromHandle
  0004d	ff 70 20	 push	 DWORD PTR [eax+32]
  00050	ff d6		 call	 esi
  00052	50		 push	 eax
  00053	e8 00 00 00 00	 call	 ?FromHandle@CWnd@@SGPAV1@PAUHWND__@@@Z ; CWnd::FromHandle
  00058	ff 70 20	 push	 DWORD PTR [eax+32]
  0005b	ff d6		 call	 esi
  0005d	50		 push	 eax
  0005e	e8 00 00 00 00	 call	 ?FromHandle@CWnd@@SGPAV1@PAUHWND__@@@Z ; CWnd::FromHandle

; 32   : 	{ ASSERT(::IsWindow(m_hWnd)); return ::SendMessage(m_hWnd, message, wParam, lParam); }

  00063	ff 77 20	 push	 DWORD PTR [edi+32]
  00066	8d 4d f8	 lea	 ecx, DWORD PTR _ptDrag$1[ebp]
  00069	51		 push	 ecx
  0006a	ff 35 00 00 00
	00		 push	 DWORD PTR ?RMSG_DRAGSTART@@3IB
  00070	ff 70 20	 push	 DWORD PTR [eax+32]
  00073	ff 15 00 00 00
	00		 call	 DWORD PTR __imp__SendMessageA@16
  00079	5e		 pop	 esi
$LN2@OnMouseMov:

; 454  : 	{ Default(); }

  0007a	8b cf		 mov	 ecx, edi
  0007c	e8 00 00 00 00	 call	 ?Default@CWnd@@IAEJXZ	; CWnd::Default
  00081	5f		 pop	 edi
; File D:\git\src\IBK\IBK_DRFN\ProjSrc\SrcDrfn\Chart\MULTICHART\TabIndices.cpp

; 1294 : }

  00082	8b e5		 mov	 esp, ebp
  00084	5d		 pop	 ebp
  00085	c2 0c 00	 ret	 12			; 0000000cH
?OnMouseMove@CTabIndices@@IAEXIVCPoint@@@Z ENDP		; CTabIndices::OnMouseMove
_TEXT	ENDS
; Function compile flags: /Ogtp
; File D:\git\src\IBK\IBK_DRFN\ProjSrc\SrcDrfn\Chart\MULTICHART\TabIndices.cpp
; File C:\Program Files (x86)\Microsoft Visual Studio\2019\Community\VC\Tools\MSVC\14.29.30133\atlmfc\include\afxcmn.inl
; File D:\git\src\IBK\IBK_DRFN\ProjSrc\SrcDrfn\Chart\MULTICHART\TabIndices.cpp
; File C:\Program Files (x86)\Microsoft Visual Studio\2019\Community\VC\Tools\MSVC\14.29.30133\atlmfc\include\afxcmn.inl
; File C:\Program Files (x86)\Microsoft Visual Studio\2019\Community\VC\Tools\MSVC\14.29.30133\atlmfc\include\afxwin2.inl
; File D:\git\src\IBK\IBK_DRFN\ProjSrc\SrcDrfn\Chart\MULTICHART\TabIndices.cpp
;	COMDAT ?OnBegindragTreeitems@CTabIndices@@IAEXPAUtagNMHDR@@PAJ@Z
_TEXT	SEGMENT
_pNMHDR$ = 8						; size = 4
_pResult$ = 12						; size = 4
?OnBegindragTreeitems@CTabIndices@@IAEXPAUtagNMHDR@@PAJ@Z PROC ; CTabIndices::OnBegindragTreeitems, COMDAT
; _this$ = ecx

; 1272 : {

  00000	55		 push	 ebp
  00001	8b ec		 mov	 ebp, esp
; File C:\Program Files (x86)\Microsoft Visual Studio\2019\Community\VC\Tools\MSVC\14.29.30133\atlmfc\include\afxcmn.inl

; 324  : 	{ ASSERT(::IsWindow(m_hWnd)); return (BOOL)::SendMessage(m_hWnd, TVM_SELECTITEM, nCode, (LPARAM)hItem); }

  00003	8b 45 08	 mov	 eax, DWORD PTR _pNMHDR$[ebp]
; File D:\git\src\IBK\IBK_DRFN\ProjSrc\SrcDrfn\Chart\MULTICHART\TabIndices.cpp

; 1272 : {

  00006	56		 push	 esi
  00007	8b f1		 mov	 esi, ecx

; 1273 : 	NM_TREEVIEW* pNMTreeView = (NM_TREEVIEW*)pNMHDR;
; 1274 : 	// TODO: Add your control notification handler code here
; 1275 : 	m_bLBtnDown = TRUE;

  00009	c7 86 80 17 00
	00 01 00 00 00	 mov	 DWORD PTR [esi+6016], 1
; File C:\Program Files (x86)\Microsoft Visual Studio\2019\Community\VC\Tools\MSVC\14.29.30133\atlmfc\include\afxcmn.inl

; 324  : 	{ ASSERT(::IsWindow(m_hWnd)); return (BOOL)::SendMessage(m_hWnd, TVM_SELECTITEM, nCode, (LPARAM)hItem); }

  00013	ff 70 3c	 push	 DWORD PTR [eax+60]
  00016	6a 09		 push	 9
  00018	68 0b 11 00 00	 push	 4363			; 0000110bH
  0001d	ff b6 68 16 00
	00		 push	 DWORD PTR [esi+5736]
  00023	ff 15 00 00 00
	00		 call	 DWORD PTR __imp__SendMessageA@16
; File C:\Program Files (x86)\Microsoft Visual Studio\2019\Community\VC\Tools\MSVC\14.29.30133\atlmfc\include\afxwin2.inl

; 163  : 	{ ASSERT(::IsWindow(m_hWnd)); return CWnd::FromHandle(::SetCapture(m_hWnd)); }

  00029	ff 76 20	 push	 DWORD PTR [esi+32]
  0002c	ff 15 00 00 00
	00		 call	 DWORD PTR __imp__SetCapture@4
  00032	50		 push	 eax
  00033	e8 00 00 00 00	 call	 ?FromHandle@CWnd@@SGPAV1@PAUHWND__@@@Z ; CWnd::FromHandle
; File D:\git\src\IBK\IBK_DRFN\ProjSrc\SrcDrfn\Chart\MULTICHART\TabIndices.cpp

; 1278 : 	*pResult = 0;

  00038	8b 45 0c	 mov	 eax, DWORD PTR _pResult$[ebp]
  0003b	5e		 pop	 esi
  0003c	c7 00 00 00 00
	00		 mov	 DWORD PTR [eax], 0

; 1279 : }

  00042	5d		 pop	 ebp
  00043	c2 08 00	 ret	 8
?OnBegindragTreeitems@CTabIndices@@IAEXPAUtagNMHDR@@PAJ@Z ENDP ; CTabIndices::OnBegindragTreeitems
_TEXT	ENDS
; Function compile flags: /Ogtp
; File D:\git\src\IBK\IBK_DRFN\ProjSrc\SrcDrfn\Chart\MULTICHART\TabIndices.cpp
; File C:\Program Files (x86)\Microsoft Visual Studio\2019\Community\VC\Tools\MSVC\14.29.30133\atlmfc\include\afxtempl.h
; File D:\git\src\IBK\IBK_DRFN\ProjSrc\SrcDrfn\Chart\MULTICHART\TabIndices.cpp
; File C:\Program Files (x86)\Microsoft Visual Studio\2019\Community\VC\Tools\MSVC\14.29.30133\atlmfc\include\afxtempl.h
; File D:\git\src\IBK\IBK_DRFN\ProjSrc\SrcDrfn\Chart\MULTICHART\TabIndices.cpp
; File C:\Program Files (x86)\Microsoft Visual Studio\2019\Community\VC\Tools\MSVC\14.29.30133\atlmfc\include\afxtempl.h
; File D:\git\src\IBK\IBK_DRFN\ProjSrc\SrcDrfn\Chart\MULTICHART\TabIndices.cpp
;	COMDAT ?OnDestroy@CTabIndices@@IAEXXZ
_TEXT	SEGMENT
_strCfgFile$2 = -20					; size = 4
_strTemp$3 = -16					; size = 4
__$EHRec$ = -12						; size = 12
?OnDestroy@CTabIndices@@IAEXXZ PROC			; CTabIndices::OnDestroy, COMDAT
; _this$ = ecx

; 1261 : {

  00000	55		 push	 ebp
  00001	8b ec		 mov	 ebp, esp
  00003	6a ff		 push	 -1
  00005	68 00 00 00 00	 push	 __ehhandler$?OnDestroy@CTabIndices@@IAEXXZ
  0000a	64 a1 00 00 00
	00		 mov	 eax, DWORD PTR fs:0
  00010	50		 push	 eax
  00011	83 ec 08	 sub	 esp, 8
  00014	53		 push	 ebx
  00015	56		 push	 esi
  00016	57		 push	 edi
  00017	a1 00 00 00 00	 mov	 eax, DWORD PTR ___security_cookie
  0001c	33 c5		 xor	 eax, ebp
  0001e	50		 push	 eax
  0001f	8d 45 f4	 lea	 eax, DWORD PTR __$EHRec$[ebp]
  00022	64 a3 00 00 00
	00		 mov	 DWORD PTR fs:0, eax
  00028	8b d9		 mov	 ebx, ecx

; 1262 : 	CTabDlg::OnDestroy();

  0002a	e8 00 00 00 00	 call	 ?OnDestroy@CTabDlg@@IAEXXZ ; CTabDlg::OnDestroy

; 349  : 	CString strTemp;

  0002f	8d 4d f0	 lea	 ecx, DWORD PTR _strTemp$3[ebp]
  00032	ff 15 00 00 00
	00		 call	 DWORD PTR __imp_??0?$CStringT@DV?$StrTraitMFC_DLL@DV?$ChTraitsCRT@D@ATL@@@@@ATL@@QAE@XZ

; 350  : 	char szTemp[64];
; 351  : 
; 352  : 	CString strCfgFile = ((CStdDialog*)m_pMultiChartWnd)->m_strConfig;

  00038	8b 83 c0 00 00
	00		 mov	 eax, DWORD PTR [ebx+192]
  0003e	8d 4d ec	 lea	 ecx, DWORD PTR _strCfgFile$2[ebp]
  00041	05 a8 07 00 00	 add	 eax, 1960		; 000007a8H
  00046	c7 45 fc 00 00
	00 00		 mov	 DWORD PTR __$EHRec$[ebp+8], 0
  0004d	50		 push	 eax
  0004e	ff 15 00 00 00
	00		 call	 DWORD PTR __imp_??0?$CStringT@DV?$StrTraitMFC_DLL@DV?$ChTraitsCRT@D@ATL@@@@@ATL@@QAE@ABV01@@Z

; 353  : 	if(bLoad)
; 354  : 	{
; 355  : 		::GetPrivateProfileString("TabIndices","HeightOfIndices","80",szTemp,sizeof(szTemp),strCfgFile);
; 356  : 		m_nHeightOfIndices = atoi(szTemp);
; 357  : 		::GetPrivateProfileString("TabIndices","IndexSelected","0",szTemp,sizeof(szTemp),strCfgFile);
; 358  : 		m_nIndexSelected = atoi(szTemp);
; 359  : 	}
; 360  : 	else
; 361  : 	{
; 362  : 		strTemp.Format("%d",m_nHeightOfIndices);

  00054	ff b3 88 17 00
	00		 push	 DWORD PTR [ebx+6024]
  0005a	8b 3d 00 00 00
	00		 mov	 edi, DWORD PTR __imp_?Format@?$CStringT@DV?$StrTraitMFC_DLL@DV?$ChTraitsCRT@D@ATL@@@@@ATL@@QAAXPBDZZ
  00060	8d 45 f0	 lea	 eax, DWORD PTR _strTemp$3[ebp]
  00063	68 00 00 00 00	 push	 OFFSET ??_C@_02DPKJAMEF@?$CFd@
  00068	50		 push	 eax
  00069	c6 45 fc 01	 mov	 BYTE PTR __$EHRec$[ebp+8], 1
  0006d	ff d7		 call	 edi

; 363  : 		::WritePrivateProfileString("TabIndices","HeightOfIndices",strTemp,strCfgFile);

  0006f	8b 35 00 00 00
	00		 mov	 esi, DWORD PTR __imp__WritePrivateProfileStringA@16
  00075	83 c4 0c	 add	 esp, 12			; 0000000cH
  00078	ff 75 ec	 push	 DWORD PTR _strCfgFile$2[ebp]
  0007b	ff 75 f0	 push	 DWORD PTR _strTemp$3[ebp]
  0007e	68 00 00 00 00	 push	 OFFSET ??_C@_0BA@MHHHNIIB@HeightOfIndices@
  00083	68 00 00 00 00	 push	 OFFSET ??_C@_0L@JJCOOLME@TabIndices@
  00088	ff d6		 call	 esi

; 364  : 		strTemp.Format("%d",m_nIndexSelected);

  0008a	ff b3 8c 17 00
	00		 push	 DWORD PTR [ebx+6028]
  00090	8d 45 f0	 lea	 eax, DWORD PTR _strTemp$3[ebp]
  00093	68 00 00 00 00	 push	 OFFSET ??_C@_02DPKJAMEF@?$CFd@
  00098	50		 push	 eax
  00099	ff d7		 call	 edi
  0009b	83 c4 0c	 add	 esp, 12			; 0000000cH

; 365  : 		::WritePrivateProfileString("TabIndices","IndexSelected",strTemp,strCfgFile);

  0009e	ff 75 ec	 push	 DWORD PTR _strCfgFile$2[ebp]
  000a1	ff 75 f0	 push	 DWORD PTR _strTemp$3[ebp]
  000a4	68 00 00 00 00	 push	 OFFSET ??_C@_0O@GIEOAGCM@IndexSelected@
  000a9	68 00 00 00 00	 push	 OFFSET ??_C@_0L@JJCOOLME@TabIndices@
  000ae	ff d6		 call	 esi

; 366  : 	}
; 367  : }

  000b0	8d 4d ec	 lea	 ecx, DWORD PTR _strCfgFile$2[ebp]
  000b3	ff 15 00 00 00
	00		 call	 DWORD PTR __imp_??1?$CStringT@DV?$StrTraitMFC_DLL@DV?$ChTraitsCRT@D@ATL@@@@@ATL@@QAE@XZ
  000b9	8d 4d f0	 lea	 ecx, DWORD PTR _strTemp$3[ebp]
  000bc	c7 45 fc ff ff
	ff ff		 mov	 DWORD PTR __$EHRec$[ebp+8], -1
  000c3	ff 15 00 00 00
	00		 call	 DWORD PTR __imp_??1?$CStringT@DV?$StrTraitMFC_DLL@DV?$ChTraitsCRT@D@ATL@@@@@ATL@@QAE@XZ

; 2109 : 	POSITION pos = m_ListTree.GetHeadPosition();

  000c9	8b bb 64 05 00
	00		 mov	 edi, DWORD PTR [ebx+1380]

; 2110 : 	for (;pos;)

  000cf	85 ff		 test	 edi, edi
  000d1	74 1d		 je	 SHORT $LN23@OnDestroy
$LL22@OnDestroy:

; 2111 : 	{
; 2112 : 		pTree = m_ListTree.GetNext(pos);

  000d3	8b 77 08	 mov	 esi, DWORD PTR [edi+8]
; File C:\Program Files (x86)\Microsoft Visual Studio\2019\Community\VC\Tools\MSVC\14.29.30133\atlmfc\include\afxtempl.h

; 813  : 		rPosition = (POSITION) pNode->pNext;

  000d6	8b 3f		 mov	 edi, DWORD PTR [edi]
; File D:\git\src\IBK\IBK_DRFN\ProjSrc\SrcDrfn\Chart\MULTICHART\TabIndices.cpp

; 2113 : 		if (pTree)

  000d8	85 f6		 test	 esi, esi
  000da	74 10		 je	 SHORT $LN27@OnDestroy

; 2114 : 		{
; 2115 : 			pTree->DestroyWindow();

  000dc	8b 06		 mov	 eax, DWORD PTR [esi]
  000de	8b ce		 mov	 ecx, esi
  000e0	ff 50 68	 call	 DWORD PTR [eax+104]

; 2116 : 			delete pTree;

  000e3	8b 06		 mov	 eax, DWORD PTR [esi]
  000e5	8b ce		 mov	 ecx, esi
  000e7	6a 01		 push	 1
  000e9	ff 50 04	 call	 DWORD PTR [eax+4]
$LN27@OnDestroy:

; 2110 : 	for (;pos;)

  000ec	85 ff		 test	 edi, edi
  000ee	75 e3		 jne	 SHORT $LL22@OnDestroy
$LN23@OnDestroy:
; File C:\Program Files (x86)\Microsoft Visual Studio\2019\Community\VC\Tools\MSVC\14.29.30133\atlmfc\include\afxtempl.h

; 872  : 	m_pBlocks->FreeDataChain();

  000f0	8b 8b 74 05 00
	00		 mov	 ecx, DWORD PTR [ebx+1396]
  000f6	c7 83 6c 05 00
	00 00 00 00 00	 mov	 DWORD PTR [ebx+1388], 0
  00100	c7 83 70 05 00
	00 00 00 00 00	 mov	 DWORD PTR [ebx+1392], 0
  0010a	c7 83 68 05 00
	00 00 00 00 00	 mov	 DWORD PTR [ebx+1384], 0
  00114	c7 83 64 05 00
	00 00 00 00 00	 mov	 DWORD PTR [ebx+1380], 0
  0011e	e8 00 00 00 00	 call	 ?FreeDataChain@CPlex@@QAEXXZ ; CPlex::FreeDataChain
; File D:\git\src\IBK\IBK_DRFN\ProjSrc\SrcDrfn\Chart\MULTICHART\TabIndices.cpp

; 1267 : 	m_ImageListIcon.DeleteImageList();

  00123	8d 8b 90 17 00
	00		 lea	 ecx, DWORD PTR [ebx+6032]
; File C:\Program Files (x86)\Microsoft Visual Studio\2019\Community\VC\Tools\MSVC\14.29.30133\atlmfc\include\afxtempl.h

; 873  : 	m_pBlocks = NULL;

  00129	c7 83 74 05 00
	00 00 00 00 00	 mov	 DWORD PTR [ebx+1396], 0
; File D:\git\src\IBK\IBK_DRFN\ProjSrc\SrcDrfn\Chart\MULTICHART\TabIndices.cpp

; 1267 : 	m_ImageListIcon.DeleteImageList();

  00133	e8 00 00 00 00	 call	 ?DeleteImageList@CImageList@@QAEHXZ ; CImageList::DeleteImageList

; 1268 : 	m_ImageOutbarIcon.DeleteImageList();

  00138	8d 8b 98 17 00
	00		 lea	 ecx, DWORD PTR [ebx+6040]
  0013e	e8 00 00 00 00	 call	 ?DeleteImageList@CImageList@@QAEHXZ ; CImageList::DeleteImageList

; 1269 : }

  00143	8b 4d f4	 mov	 ecx, DWORD PTR __$EHRec$[ebp]
  00146	64 89 0d 00 00
	00 00		 mov	 DWORD PTR fs:0, ecx
  0014d	59		 pop	 ecx
  0014e	5f		 pop	 edi
  0014f	5e		 pop	 esi
  00150	5b		 pop	 ebx
  00151	8b e5		 mov	 esp, ebp
  00153	5d		 pop	 ebp
  00154	c3		 ret	 0
_TEXT	ENDS
;	COMDAT text$x
text$x	SEGMENT
__unwindfunclet$?OnDestroy@CTabIndices@@IAEXXZ$0:
  00000	8d 4d f0	 lea	 ecx, DWORD PTR _strTemp$3[ebp]
  00003	ff 25 00 00 00
	00		 jmp	 DWORD PTR __imp_??1?$CStringT@DV?$StrTraitMFC_DLL@DV?$ChTraitsCRT@D@ATL@@@@@ATL@@QAE@XZ
__unwindfunclet$?OnDestroy@CTabIndices@@IAEXXZ$1:
  00009	8d 4d ec	 lea	 ecx, DWORD PTR _strCfgFile$2[ebp]
  0000c	ff 25 00 00 00
	00		 jmp	 DWORD PTR __imp_??1?$CStringT@DV?$StrTraitMFC_DLL@DV?$ChTraitsCRT@D@ATL@@@@@ATL@@QAE@XZ
  00012	cc		 int	 3
  00013	cc		 int	 3
  00014	cc		 int	 3
  00015	cc		 int	 3
  00016	cc		 int	 3
__ehhandler$?OnDestroy@CTabIndices@@IAEXXZ:
  00017	90		 npad	 1
  00018	90		 npad	 1
  00019	8b 54 24 08	 mov	 edx, DWORD PTR [esp+8]
  0001d	8d 42 0c	 lea	 eax, DWORD PTR [edx+12]
  00020	8b 4a e8	 mov	 ecx, DWORD PTR [edx-24]
  00023	33 c8		 xor	 ecx, eax
  00025	e8 00 00 00 00	 call	 @__security_check_cookie@4
  0002a	b8 00 00 00 00	 mov	 eax, OFFSET __ehfuncinfo$?OnDestroy@CTabIndices@@IAEXXZ
  0002f	e9 00 00 00 00	 jmp	 ___CxxFrameHandler3
text$x	ENDS
?OnDestroy@CTabIndices@@IAEXXZ ENDP			; CTabIndices::OnDestroy
; Function compile flags: /Ogtp
; File D:\git\src\IBK\IBK_DRFN\ProjSrc\SrcDrfn\Chart\MULTICHART\TabIndices.cpp
;	COMDAT ?OnDblclkTreeitems@CTabIndices@@IAEXPAUtagNMHDR@@PAJ@Z
_TEXT	SEGMENT
_pNMHDR$ = 8						; size = 4
_pResult$ = 12						; size = 4
?OnDblclkTreeitems@CTabIndices@@IAEXPAUtagNMHDR@@PAJ@Z PROC ; CTabIndices::OnDblclkTreeitems, COMDAT
; _this$ = ecx

; 1254 : {

  00000	55		 push	 ebp
  00001	8b ec		 mov	 ebp, esp

; 1255 : 	// TODO: Add your control notification handler code here
; 1256 : 	OnBtapply();

  00003	e8 00 00 00 00	 call	 ?OnBtapply@CTabIndices@@IAEXXZ ; CTabIndices::OnBtapply

; 1257 : 	*pResult = 0;

  00008	8b 45 0c	 mov	 eax, DWORD PTR _pResult$[ebp]
  0000b	c7 00 00 00 00
	00		 mov	 DWORD PTR [eax], 0

; 1258 : }

  00011	5d		 pop	 ebp
  00012	c2 08 00	 ret	 8
?OnDblclkTreeitems@CTabIndices@@IAEXPAUtagNMHDR@@PAJ@Z ENDP ; CTabIndices::OnDblclkTreeitems
_TEXT	ENDS
; Function compile flags: /Ogtp
; File D:\git\src\IBK\IBK_DRFN\ProjSrc\SrcDrfn\Chart\MULTICHART\TabIndices.cpp
; File C:\Program Files (x86)\Microsoft Visual Studio\2019\Community\VC\Tools\MSVC\14.29.30133\atlmfc\include\afxtempl.h
; File D:\git\src\IBK\IBK_DRFN\ProjSrc\SrcDrfn\Chart\MULTICHART\TabIndices.cpp
; File C:\Program Files (x86)\Microsoft Visual Studio\2019\Community\VC\Tools\MSVC\14.29.30133\atlmfc\include\afxcmn.inl
; File D:\git\src\IBK\IBK_DRFN\ProjSrc\SrcDrfn\Chart\MULTICHART\TabIndices.cpp
; File C:\Program Files (x86)\Microsoft Visual Studio\2019\Community\VC\Tools\MSVC\14.29.30133\atlmfc\include\atlsimpstr.h
; File D:\git\src\IBK\IBK_DRFN\ProjSrc\SrcDrfn\Chart\MULTICHART\TabIndices.cpp
; File C:\Program Files (x86)\Microsoft Visual Studio\2019\Community\VC\Tools\MSVC\14.29.30133\atlmfc\include\atlsimpstr.h
; File D:\git\src\IBK\IBK_DRFN\ProjSrc\SrcDrfn\Chart\MULTICHART\TabIndices.cpp
; File C:\Program Files (x86)\Microsoft Visual Studio\2019\Community\VC\Tools\MSVC\14.29.30133\atlmfc\include\atltypes.h
; File D:\git\src\IBK\IBK_DRFN\ProjSrc\SrcDrfn\Chart\MULTICHART\TabIndices.cpp
; File C:\Program Files (x86)\Microsoft Visual Studio\2019\Community\VC\Tools\MSVC\14.29.30133\atlmfc\include\afxwin2.inl
; File C:\Program Files (x86)\Microsoft Visual Studio\2019\Community\VC\Tools\MSVC\14.29.30133\atlmfc\include\atlsimpstr.h
; File D:\git\src\IBK\IBK_DRFN\ProjSrc\SrcDrfn\Chart\MULTICHART\TabIndices.cpp
; File C:\Program Files (x86)\Microsoft Visual Studio\2019\Community\VC\Tools\MSVC\14.29.30133\atlmfc\include\afxtempl.h
; File D:\git\src\IBK\IBK_DRFN\ProjSrc\SrcDrfn\Chart\MULTICHART\TabIndices.cpp
; File C:\Program Files (x86)\Microsoft Visual Studio\2019\Community\VC\Tools\MSVC\14.29.30133\atlmfc\include\afxcmn.inl
; File D:\git\src\IBK\IBK_DRFN\ProjSrc\SrcDrfn\Chart\MULTICHART\TabIndices.cpp
; File C:\Program Files (x86)\Microsoft Visual Studio\2019\Community\VC\Tools\MSVC\14.29.30133\atlmfc\include\afxcmn.inl
; File D:\git\src\IBK\IBK_DRFN\ProjSrc\SrcDrfn\Chart\MULTICHART\TabIndices.cpp
; File C:\Program Files (x86)\Microsoft Visual Studio\2019\Community\VC\Tools\MSVC\14.29.30133\atlmfc\include\afxtempl.h
; File C:\Program Files (x86)\Microsoft Visual Studio\2019\Community\VC\Tools\MSVC\14.29.30133\atlmfc\include\afxcmn.inl
; File C:\Program Files (x86)\Microsoft Visual Studio\2019\Community\VC\Tools\MSVC\14.29.30133\atlmfc\include\afxtempl.h
; File D:\git\src\IBK\IBK_DRFN\ProjSrc\SrcDrfn\Chart\MULTICHART\TabIndices.cpp
; File C:\Program Files (x86)\Microsoft Visual Studio\2019\Community\VC\Tools\MSVC\14.29.30133\atlmfc\include\afxcmn.inl
; File D:\git\src\IBK\IBK_DRFN\ProjSrc\SrcDrfn\Chart\MULTICHART\TabIndices.cpp
; File C:\Program Files (x86)\Microsoft Visual Studio\2019\Community\VC\Tools\MSVC\14.29.30133\atlmfc\include\afxtempl.h
; File D:\git\src\IBK\IBK_DRFN\ProjSrc\SrcDrfn\Chart\MULTICHART\TabIndices.cpp
;	COMDAT ?OnBtsearch@CTabIndices@@IAEXXZ
_TEXT	SEGMENT
_pFavoriteMng$ = -392					; size = 52
_strItem$ = -340					; size = 4
_treeItem$2$ = -336					; size = 4
_wSizeItem$1$ = -332					; size = 4
_strPItem$ = -328					; size = 4
_wIndexItem$1$ = -324					; size = 4
_sSelItemText$ = -320					; size = 4
_strItemTitle$ = -316					; size = 4
__stData$ = -312					; size = 280
_rect$ = -32						; size = 16
__$ArrayPad$ = -16					; size = 4
__$EHRec$ = -12						; size = 12
?OnBtsearch@CTabIndices@@IAEXXZ PROC			; CTabIndices::OnBtsearch, COMDAT
; _this$ = ecx

; 1088 : {

  00000	55		 push	 ebp
  00001	8b ec		 mov	 ebp, esp
  00003	6a ff		 push	 -1
  00005	68 00 00 00 00	 push	 __ehhandler$?OnBtsearch@CTabIndices@@IAEXXZ
  0000a	64 a1 00 00 00
	00		 mov	 eax, DWORD PTR fs:0
  00010	50		 push	 eax
  00011	81 ec 7c 01 00
	00		 sub	 esp, 380		; 0000017cH
  00017	a1 00 00 00 00	 mov	 eax, DWORD PTR ___security_cookie
  0001c	33 c5		 xor	 eax, ebp
  0001e	89 45 f0	 mov	 DWORD PTR __$ArrayPad$[ebp], eax
  00021	53		 push	 ebx
  00022	56		 push	 esi
  00023	57		 push	 edi
  00024	50		 push	 eax
  00025	8d 45 f4	 lea	 eax, DWORD PTR __$EHRec$[ebp]
  00028	64 a3 00 00 00
	00		 mov	 DWORD PTR fs:0, eax
  0002e	8b f1		 mov	 esi, ecx

; 1089 : 	// TODO: Add your control notification handler code here
; 1090 : 	stFvrData _stData;
; 1091 : 	CString strItem;

  00030	8d 8d ac fe ff
	ff		 lea	 ecx, DWORD PTR _strItem$[ebp]
  00036	ff 15 00 00 00
	00		 call	 DWORD PTR __imp_??0?$CStringT@DV?$StrTraitMFC_DLL@DV?$ChTraitsCRT@D@ATL@@@@@ATL@@QAE@XZ

; 1092 : 	CString strItemTitle;

  0003c	8d 8d c4 fe ff
	ff		 lea	 ecx, DWORD PTR _strItemTitle$[ebp]
  00042	c7 45 fc 00 00
	00 00		 mov	 DWORD PTR __$EHRec$[ebp+8], 0
  00049	ff 15 00 00 00
	00		 call	 DWORD PTR __imp_??0?$CStringT@DV?$StrTraitMFC_DLL@DV?$ChTraitsCRT@D@ATL@@@@@ATL@@QAE@XZ

; 1093 : 	::ZeroMemory(&_stData,sizeof(_stData));

  0004f	68 18 01 00 00	 push	 280			; 00000118H
  00054	8d 85 c8 fe ff
	ff		 lea	 eax, DWORD PTR __stData$[ebp]
  0005a	c6 45 fc 01	 mov	 BYTE PTR __$EHRec$[ebp+8], 1
  0005e	6a 00		 push	 0
  00060	50		 push	 eax
  00061	e8 00 00 00 00	 call	 _memset
  00066	83 c4 0c	 add	 esp, 12			; 0000000cH

; 1094 : 	strItemTitle = '[';

  00069	8d 8d c4 fe ff
	ff		 lea	 ecx, DWORD PTR _strItemTitle$[ebp]
  0006f	6a 5b		 push	 91			; 0000005bH
  00071	ff 15 00 00 00
	00		 call	 DWORD PTR __imp_??4?$CStringT@DV?$StrTraitMFC_DLL@DV?$ChTraitsCRT@D@ATL@@@@@ATL@@QAEAAV01@D@Z

; 1095 : 	strItemTitle += TAB_ASSISTINDEX;

  00077	68 00 00 00 00	 push	 OFFSET ??_C@_04JDFEIJL@?A?v?G?$KF@
  0007c	8d 8d c4 fe ff
	ff		 lea	 ecx, DWORD PTR _strItemTitle$[ebp]
  00082	ff 15 00 00 00
	00		 call	 DWORD PTR __imp_??Y?$CStringT@DV?$StrTraitMFC_DLL@DV?$ChTraitsCRT@D@ATL@@@@@ATL@@QAEAAV01@PBD@Z

; 1096 : 	strItemTitle += "] ";

  00088	68 00 00 00 00	 push	 OFFSET ??_C@_02PBFOLPKM@?$FN?5@
  0008d	8d 8d c4 fe ff
	ff		 lea	 ecx, DWORD PTR _strItemTitle$[ebp]
  00093	ff 15 00 00 00
	00		 call	 DWORD PTR __imp_??Y?$CStringT@DV?$StrTraitMFC_DLL@DV?$ChTraitsCRT@D@ATL@@@@@ATL@@QAEAAV01@PBD@Z

; 1097 : 
; 1098 : 	POSITION pos = m_ListTree.FindIndex(m_nIndexSelected);

  00099	8b 86 8c 17 00
	00		 mov	 eax, DWORD PTR [esi+6028]
; File C:\Program Files (x86)\Microsoft Visual Studio\2019\Community\VC\Tools\MSVC\14.29.30133\atlmfc\include\afxtempl.h

; 1133 : 	if (nIndex >= m_nCount || nIndex < 0)

  0009f	3b 86 6c 05 00
	00		 cmp	 eax, DWORD PTR [esi+1388]
  000a5	7d 15		 jge	 SHORT $LN19@OnBtsearch
  000a7	85 c0		 test	 eax, eax
  000a9	78 11		 js	 SHORT $LN19@OnBtsearch

; 1135 : 
; 1136 : 	CNode* pNode = m_pNodeHead;

  000ab	8b 8e 64 05 00
	00		 mov	 ecx, DWORD PTR [esi+1380]

; 1137 : 	while (nIndex--)

  000b1	74 0b		 je	 SHORT $LN15@OnBtsearch
$LL16@OnBtsearch:

; 1138 : 	{
; 1139 : 		ASSERT(AfxIsValidAddress(pNode, sizeof(CNode)));
; 1140 : 		pNode = pNode->pNext;

  000b3	8b 09		 mov	 ecx, DWORD PTR [ecx]
  000b5	83 e8 01	 sub	 eax, 1
  000b8	75 f9		 jne	 SHORT $LL16@OnBtsearch

; 1141 : 	}
; 1142 : 	return (POSITION) pNode;

  000ba	eb 02		 jmp	 SHORT $LN15@OnBtsearch
$LN19@OnBtsearch:

; 1134 : 		return NULL;  // went too far

  000bc	33 c9		 xor	 ecx, ecx
$LN15@OnBtsearch:
; File D:\git\src\IBK\IBK_DRFN\ProjSrc\SrcDrfn\Chart\MULTICHART\TabIndices.cpp

; 1099 : 	CTreeCtrl* treeItem  = m_ListTree.GetAt(pos);

  000be	8b 59 08	 mov	 ebx, DWORD PTR [ecx+8]
; File C:\Program Files (x86)\Microsoft Visual Studio\2019\Community\VC\Tools\MSVC\14.29.30133\atlmfc\include\afxcmn.inl

; 316  : 	{ ASSERT(::IsWindow(m_hWnd)); return (HTREEITEM)::SendMessage(m_hWnd, TVM_GETNEXTITEM, TVGN_CARET, 0); }

  000c1	6a 00		 push	 0
  000c3	6a 09		 push	 9
  000c5	68 0a 11 00 00	 push	 4362			; 0000110aH
  000ca	ff 73 20	 push	 DWORD PTR [ebx+32]
  000cd	ff 15 00 00 00
	00		 call	 DWORD PTR __imp__SendMessageA@16
; File D:\git\src\IBK\IBK_DRFN\ProjSrc\SrcDrfn\Chart\MULTICHART\TabIndices.cpp

; 1101 : 	hItem = treeItem->GetSelectedItem();

  000d3	8b f8		 mov	 edi, eax

; 1102 : 	//HTREEITEM hPItem = m_treeItems.GetParentItem(hItem);
; 1103 : 	if(hItem==NULL) 

  000d5	85 ff		 test	 edi, edi
  000d7	75 17		 jne	 SHORT $LN5@OnBtsearch

; 1104 : 	{
; 1105 : 		MessageBox(" .",DLLTITLENAME);

  000d9	50		 push	 eax
  000da	68 00 00 00 00	 push	 OFFSET ??_C@_08BDLNPKGG@?A?$LO?G?U?B?w?F?$KO@
  000df	68 00 00 00 00	 push	 OFFSET ??_C@_0BF@KMELNNPL@?G?O?$LD?$KK?$LI?$KG?5?$LM?$LB?E?C?G?O?$LN?J?$LN?C?$LP?$MA?4@
  000e4	8b ce		 mov	 ecx, esi
  000e6	e8 00 00 00 00	 call	 ?MessageBoxA@CWnd@@QAEHPBD0I@Z ; CWnd::MessageBoxA
  000eb	e9 23 02 00 00	 jmp	 $LN14@OnBtsearch
$LN5@OnBtsearch:

; 1106 : 		return;
; 1107 : 	}		
; 1108 : 	
; 1109 : 	CString strPItem = szIndexGroupName[m_nIndexSelected];

  000f0	8b 86 8c 17 00
	00		 mov	 eax, DWORD PTR [esi+6028]
  000f6	8d 8d b8 fe ff
	ff		 lea	 ecx, DWORD PTR _strPItem$[ebp]
  000fc	ff 34 85 00 00
	00 00		 push	 DWORD PTR ?szIndexGroupName@@3PAPADA[eax*4]
  00103	ff 15 00 00 00
	00		 call	 DWORD PTR __imp_??0?$CStringT@DV?$StrTraitMFC_DLL@DV?$ChTraitsCRT@D@ATL@@@@@ATL@@QAE@PBD@Z

; 1110 : 	CString sSelItemText = treeItem->GetItemText(hItem);

  00109	57		 push	 edi
  0010a	8d 85 c0 fe ff
	ff		 lea	 eax, DWORD PTR _sSelItemText$[ebp]
  00110	c6 45 fc 02	 mov	 BYTE PTR __$EHRec$[ebp+8], 2
  00114	50		 push	 eax
  00115	8b cb		 mov	 ecx, ebx
  00117	e8 00 00 00 00	 call	 ?GetItemText@CTreeCtrl@@QBE?AV?$CStringT@DV?$StrTraitMFC_DLL@DV?$ChTraitsCRT@D@ATL@@@@@ATL@@PAU_TREEITEM@@@Z ; CTreeCtrl::GetItemText
; File C:\Program Files (x86)\Microsoft Visual Studio\2019\Community\VC\Tools\MSVC\14.29.30133\atlmfc\include\atlsimpstr.h

; 519  : 		return( GetData()->nDataLength );

  0011c	8b 85 c0 fe ff
	ff		 mov	 eax, DWORD PTR _sSelItemText$[ebp]
; File D:\git\src\IBK\IBK_DRFN\ProjSrc\SrcDrfn\Chart\MULTICHART\TabIndices.cpp

; 1110 : 	CString sSelItemText = treeItem->GetItemText(hItem);

  00122	c6 45 fc 03	 mov	 BYTE PTR __$EHRec$[ebp+8], 3

; 1111 : 	if(sSelItemText.GetLength())

  00126	83 78 f4 00	 cmp	 DWORD PTR [eax-12], 0
  0012a	74 67		 je	 SHORT $LN6@OnBtsearch

; 1112 : 	{
; 1113 : 		strItemTitle += sSelItemText;

  0012c	8d 85 c0 fe ff
	ff		 lea	 eax, DWORD PTR _sSelItemText$[ebp]
  00132	50		 push	 eax
  00133	8d 8d c4 fe ff
	ff		 lea	 ecx, DWORD PTR _strItemTitle$[ebp]
  00139	ff 15 00 00 00
	00		 call	 DWORD PTR __imp_??Y?$CStringT@DV?$StrTraitMFC_DLL@DV?$ChTraitsCRT@D@ATL@@@@@ATL@@QAEAAV01@ABV?$CSimpleStringT@D$00@1@@Z

; 1114 : 		strItemTitle += '(';

  0013f	6a 28		 push	 40			; 00000028H
  00141	8d 8d c4 fe ff
	ff		 lea	 ecx, DWORD PTR _strItemTitle$[ebp]
  00147	ff 15 00 00 00
	00		 call	 DWORD PTR __imp_??Y?$CStringT@DV?$StrTraitMFC_DLL@DV?$ChTraitsCRT@D@ATL@@@@@ATL@@QAEAAV01@D@Z

; 1115 : 		strItemTitle += strPItem;

  0014d	8d 85 b8 fe ff
	ff		 lea	 eax, DWORD PTR _strPItem$[ebp]
  00153	50		 push	 eax
  00154	8d 8d c4 fe ff
	ff		 lea	 ecx, DWORD PTR _strItemTitle$[ebp]
  0015a	ff 15 00 00 00
	00		 call	 DWORD PTR __imp_??Y?$CStringT@DV?$StrTraitMFC_DLL@DV?$ChTraitsCRT@D@ATL@@@@@ATL@@QAEAAV01@ABV?$CSimpleStringT@D$00@1@@Z

; 1116 : 		strItemTitle += ')';

  00160	6a 29		 push	 41			; 00000029H
  00162	8d 8d c4 fe ff
	ff		 lea	 ecx, DWORD PTR _strItemTitle$[ebp]
  00168	ff 15 00 00 00
	00		 call	 DWORD PTR __imp_??Y?$CStringT@DV?$StrTraitMFC_DLL@DV?$ChTraitsCRT@D@ATL@@@@@ATL@@QAEAAV01@D@Z

; 1117 : 		DWORD wItemData = m_treeItems.GetItemData(hItem);

  0016e	57		 push	 edi
  0016f	8d 8e 48 16 00
	00		 lea	 ecx, DWORD PTR [esi+5704]
  00175	e8 00 00 00 00	 call	 ?GetItemData@CTreeCtrl@@QBEKPAU_TREEITEM@@@Z ; CTreeCtrl::GetItemData
; File C:\Program Files (x86)\Microsoft Visual Studio\2019\Community\VC\Tools\MSVC\14.29.30133\atlmfc\include\atlsimpstr.h

; 519  : 		return( GetData()->nDataLength );

  0017a	8b 85 c0 fe ff
	ff		 mov	 eax, DWORD PTR _sSelItemText$[ebp]
; File D:\git\src\IBK\IBK_DRFN\ProjSrc\SrcDrfn\Chart\MULTICHART\TabIndices.cpp

; 1122 : 		memcpy(_stData.m_chData1,sSelItemText,sSelItemText.GetLength());

  00180	ff 70 f4	 push	 DWORD PTR [eax-12]
  00183	50		 push	 eax
  00184	8d 85 20 ff ff
	ff		 lea	 eax, DWORD PTR __stData$[ebp+88]
  0018a	50		 push	 eax
  0018b	e8 00 00 00 00	 call	 _memcpy
  00190	83 c4 0c	 add	 esp, 12			; 0000000cH
$LN6@OnBtsearch:

; 1128 : 	GetDlgItem(IDC_BTSEARCH)->GetWindowRect(rect);

  00193	0f 57 c0	 xorps	 xmm0, xmm0
  00196	8b ce		 mov	 ecx, esi
  00198	68 76 17 00 00	 push	 6006			; 00001776H
; File C:\Program Files (x86)\Microsoft Visual Studio\2019\Community\VC\Tools\MSVC\14.29.30133\atlmfc\include\atltypes.h

; 528  : 	left = 0;

  0019d	0f 11 45 e0	 movups	 XMMWORD PTR _rect$[ebp], xmm0
; File D:\git\src\IBK\IBK_DRFN\ProjSrc\SrcDrfn\Chart\MULTICHART\TabIndices.cpp

; 1128 : 	GetDlgItem(IDC_BTSEARCH)->GetWindowRect(rect);

  001a1	e8 00 00 00 00	 call	 ?GetDlgItem@CWnd@@QBEPAV1@H@Z ; CWnd::GetDlgItem
; File C:\Program Files (x86)\Microsoft Visual Studio\2019\Community\VC\Tools\MSVC\14.29.30133\atlmfc\include\afxwin2.inl

; 84   : 	{ ASSERT(::IsWindow(m_hWnd)); ::GetWindowRect(m_hWnd, lpRect); }

  001a6	8d 4d e0	 lea	 ecx, DWORD PTR _rect$[ebp]
  001a9	51		 push	 ecx
  001aa	ff 70 20	 push	 DWORD PTR [eax+32]
  001ad	ff 15 00 00 00
	00		 call	 DWORD PTR __imp__GetWindowRect@8
; File C:\Program Files (x86)\Microsoft Visual Studio\2019\Community\VC\Tools\MSVC\14.29.30133\atlmfc\include\atlsimpstr.h

; 519  : 		return( GetData()->nDataLength );

  001b3	8b 85 c4 fe ff
	ff		 mov	 eax, DWORD PTR _strItemTitle$[ebp]
; File D:\git\src\IBK\IBK_DRFN\ProjSrc\SrcDrfn\Chart\MULTICHART\TabIndices.cpp

; 1132 : 	memcpy(_stData.m_chTitle,strItemTitle,strItemTitle.GetLength());	

  001b9	ff 70 f4	 push	 DWORD PTR [eax-12]
  001bc	50		 push	 eax
  001bd	8d 85 c8 fe ff
	ff		 lea	 eax, DWORD PTR __stData$[ebp]
  001c3	50		 push	 eax
  001c4	e8 00 00 00 00	 call	 _memcpy

; 1133 : 	_stData.m_lTabNum = TABNO_ASSISTINDEX;
; 1134 : 	_stData.m_lSubData1 = m_nIndexSelected;

  001c9	8b 86 8c 17 00
	00		 mov	 eax, DWORD PTR [esi+6028]

; 1135 : 
; 1136 : 	CFavoriteThingsMng pFavoriteMng;

  001cf	8d 8d 78 fe ff
	ff		 lea	 ecx, DWORD PTR _pFavoriteMng$[ebp]
  001d5	83 c4 0c	 add	 esp, 12			; 0000000cH
  001d8	c7 85 08 ff ff
	ff 01 00 00 00	 mov	 DWORD PTR __stData$[ebp+64], 1
  001e2	89 85 0c ff ff
	ff		 mov	 DWORD PTR __stData$[ebp+68], eax
  001e8	e8 00 00 00 00	 call	 ??0CFavoriteThingsMng@@QAE@XZ ; CFavoriteThingsMng::CFavoriteThingsMng

; 1137 : 	pFavoriteMng.SetPath(m_pParentDlg->GetUserPath());

  001ed	51		 push	 ecx
  001ee	8b 8e bc 00 00
	00		 mov	 ecx, DWORD PTR [esi+188]
  001f4	54		 push	 esp
  001f5	c6 45 fc 04	 mov	 BYTE PTR __$EHRec$[ebp+8], 4
  001f9	e8 00 00 00 00	 call	 ?GetUserPath@CLeftBarDlg@@QAE?AV?$CStringT@DV?$StrTraitMFC_DLL@DV?$ChTraitsCRT@D@ATL@@@@@ATL@@XZ ; CLeftBarDlg::GetUserPath
  001fe	8d 8d 78 fe ff
	ff		 lea	 ecx, DWORD PTR _pFavoriteMng$[ebp]
  00204	e8 00 00 00 00	 call	 ?SetPath@CFavoriteThingsMng@@QAEXV?$CStringT@DV?$StrTraitMFC_DLL@DV?$ChTraitsCRT@D@ATL@@@@@ATL@@@Z ; CFavoriteThingsMng::SetPath

; 1138 : 	pFavoriteMng.SaveItemInfo(&_stData,"JipyoFile");

  00209	68 00 00 00 00	 push	 OFFSET ??_C@_09IBPFDGDO@JipyoFile@
  0020e	8d 85 c8 fe ff
	ff		 lea	 eax, DWORD PTR __stData$[ebp]
  00214	50		 push	 eax
  00215	8d 8d 78 fe ff
	ff		 lea	 ecx, DWORD PTR _pFavoriteMng$[ebp]
  0021b	e8 00 00 00 00	 call	 ?SaveItemInfo@CFavoriteThingsMng@@QAEHPAUstFvrData@@PBD@Z ; CFavoriteThingsMng::SaveItemInfo
; File C:\Program Files (x86)\Microsoft Visual Studio\2019\Community\VC\Tools\MSVC\14.29.30133\atlmfc\include\afxtempl.h

; 1133 : 	if (nIndex >= m_nCount || nIndex < 0)

  00220	83 be 6c 05 00
	00 01		 cmp	 DWORD PTR [esi+1388], 1
  00227	7e 0a		 jle	 SHORT $LN49@OnBtsearch

; 1135 : 
; 1136 : 	CNode* pNode = m_pNodeHead;

  00229	8b 86 64 05 00
	00		 mov	 eax, DWORD PTR [esi+1380]

; 1141 : 	}
; 1142 : 	return (POSITION) pNode;

  0022f	8b 00		 mov	 eax, DWORD PTR [eax]
  00231	eb 02		 jmp	 SHORT $LN45@OnBtsearch
$LN49@OnBtsearch:

; 1134 : 		return NULL;  // went too far

  00233	33 c0		 xor	 eax, eax
$LN45@OnBtsearch:
; File D:\git\src\IBK\IBK_DRFN\ProjSrc\SrcDrfn\Chart\MULTICHART\TabIndices.cpp

; 1141 : 	treeItem  = m_ListTree.GetAt(pos);

  00235	8b 40 08	 mov	 eax, DWORD PTR [eax+8]
; File C:\Program Files (x86)\Microsoft Visual Studio\2019\Community\VC\Tools\MSVC\14.29.30133\atlmfc\include\afxcmn.inl

; 277  : 	{ ASSERT(::IsWindow(m_hWnd)); return (BOOL)::SendMessage(m_hWnd, TVM_DELETEITEM, 0, (LPARAM)TVI_ROOT); }

  00238	68 00 00 ff ff	 push	 -65536			; ffff0000H
  0023d	6a 00		 push	 0
  0023f	68 01 11 00 00	 push	 4353			; 00001101H
  00244	ff 70 20	 push	 DWORD PTR [eax+32]
; File D:\git\src\IBK\IBK_DRFN\ProjSrc\SrcDrfn\Chart\MULTICHART\TabIndices.cpp

; 1141 : 	treeItem  = m_ListTree.GetAt(pos);

  00247	89 85 b0 fe ff
	ff		 mov	 DWORD PTR _treeItem$2$[ebp], eax
; File C:\Program Files (x86)\Microsoft Visual Studio\2019\Community\VC\Tools\MSVC\14.29.30133\atlmfc\include\afxcmn.inl

; 277  : 	{ ASSERT(::IsWindow(m_hWnd)); return (BOOL)::SendMessage(m_hWnd, TVM_DELETEITEM, 0, (LPARAM)TVI_ROOT); }

  0024d	ff 15 00 00 00
	00		 call	 DWORD PTR __imp__SendMessageA@16
; File D:\git\src\IBK\IBK_DRFN\ProjSrc\SrcDrfn\Chart\MULTICHART\TabIndices.cpp

; 1144 : 	pFavoriteMng.LoadItemInfo("JipyoFile");

  00253	68 00 00 00 00	 push	 OFFSET ??_C@_09IBPFDGDO@JipyoFile@
  00258	8d 8d 78 fe ff
	ff		 lea	 ecx, DWORD PTR _pFavoriteMng$[ebp]
  0025e	e8 00 00 00 00	 call	 ?LoadItemInfo@CFavoriteThingsMng@@QAEHPBD@Z ; CFavoriteThingsMng::LoadItemInfo

; 1145 : 	int wSizeItem = pFavoriteMng.m_ArrayFvrItem.GetSize();

  00263	8b 8d 98 fe ff
	ff		 mov	 ecx, DWORD PTR _pFavoriteMng$[ebp+32]

; 1146 : 	for(int wIndexItem=0;wIndexItem<wSizeItem;wIndexItem++)

  00269	33 c0		 xor	 eax, eax
  0026b	8b d1		 mov	 edx, ecx
  0026d	89 85 bc fe ff
	ff		 mov	 DWORD PTR _wIndexItem$1$[ebp], eax
  00273	89 95 b4 fe ff
	ff		 mov	 DWORD PTR _wSizeItem$1$[ebp], edx
  00279	85 d2		 test	 edx, edx
  0027b	7e 73		 jle	 SHORT $LN3@OnBtsearch

; 1141 : 	treeItem  = m_ListTree.GetAt(pos);

  0027d	33 db		 xor	 ebx, ebx
  0027f	90		 npad	 1
$LL4@OnBtsearch:
; File C:\Program Files (x86)\Microsoft Visual Studio\2019\Community\VC\Tools\MSVC\14.29.30133\atlmfc\include\afxtempl.h

; 288  : 	if(nIndex >= 0 && nIndex < m_nSize)

  00280	85 db		 test	 ebx, ebx
  00282	0f 88 bf 00 00
	00		 js	 $LN54@OnBtsearch
  00288	3b c1		 cmp	 eax, ecx
  0028a	0f 8d b7 00 00
	00		 jge	 $LN54@OnBtsearch

; 289  : 		return m_pData[nIndex];

  00290	8b b5 94 fe ff
	ff		 mov	 esi, DWORD PTR _pFavoriteMng$[ebp+28]
; File C:\Program Files (x86)\Microsoft Visual Studio\2019\Community\VC\Tools\MSVC\14.29.30133\atlmfc\include\afxcmn.inl

; 271  : 	{ ASSERT(::IsWindow(m_hWnd)); return InsertItem(TVIF_TEXT, lpszItem, 0, 0, 0, 0, 0, hParent, hInsertAfter); }

  00296	8d 85 20 ff ff
	ff		 lea	 eax, DWORD PTR __stData$[ebp+88]
  0029c	68 02 00 ff ff	 push	 -65534			; ffff0002H
  002a1	68 00 00 ff ff	 push	 -65536			; ffff0000H
  002a6	6a 00		 push	 0
  002a8	6a 00		 push	 0
  002aa	6a 00		 push	 0
  002ac	6a 00		 push	 0
  002ae	6a 00		 push	 0
; File C:\Program Files (x86)\Microsoft Visual Studio\2019\Community\VC\Tools\MSVC\14.29.30133\atlmfc\include\afxtempl.h

; 289  : 		return m_pData[nIndex];

  002b0	03 f3		 add	 esi, ebx
; File D:\git\src\IBK\IBK_DRFN\ProjSrc\SrcDrfn\Chart\MULTICHART\TabIndices.cpp

; 1148 : 		_stData = pFavoriteMng.m_ArrayFvrItem.GetAt(wIndexItem);

  002b2	8d bd c8 fe ff
	ff		 lea	 edi, DWORD PTR __stData$[ebp]
  002b8	b9 46 00 00 00	 mov	 ecx, 70			; 00000046H
  002bd	f3 a5		 rep movsd
; File C:\Program Files (x86)\Microsoft Visual Studio\2019\Community\VC\Tools\MSVC\14.29.30133\atlmfc\include\afxcmn.inl

; 271  : 	{ ASSERT(::IsWindow(m_hWnd)); return InsertItem(TVIF_TEXT, lpszItem, 0, 0, 0, 0, 0, hParent, hInsertAfter); }

  002bf	8b 8d b0 fe ff
	ff		 mov	 ecx, DWORD PTR _treeItem$2$[ebp]
  002c5	50		 push	 eax
  002c6	6a 01		 push	 1
  002c8	e8 00 00 00 00	 call	 ?InsertItem@CTreeCtrl@@QAEPAU_TREEITEM@@IPBDHHIIJPAU2@1@Z ; CTreeCtrl::InsertItem
; File D:\git\src\IBK\IBK_DRFN\ProjSrc\SrcDrfn\Chart\MULTICHART\TabIndices.cpp

; 1146 : 	for(int wIndexItem=0;wIndexItem<wSizeItem;wIndexItem++)

  002cd	8b 85 bc fe ff
	ff		 mov	 eax, DWORD PTR _wIndexItem$1$[ebp]
  002d3	81 c3 18 01 00
	00		 add	 ebx, 280		; 00000118H
  002d9	40		 inc	 eax
  002da	89 85 bc fe ff
	ff		 mov	 DWORD PTR _wIndexItem$1$[ebp], eax
  002e0	3b 85 b4 fe ff
	ff		 cmp	 eax, DWORD PTR _wSizeItem$1$[ebp]
  002e6	7d 08		 jge	 SHORT $LN3@OnBtsearch
  002e8	8b 8d 98 fe ff
	ff		 mov	 ecx, DWORD PTR _pFavoriteMng$[ebp+32]
  002ee	eb 90		 jmp	 SHORT $LL4@OnBtsearch
$LN3@OnBtsearch:

; 1251 : }

  002f0	8d 8d 78 fe ff
	ff		 lea	 ecx, DWORD PTR _pFavoriteMng$[ebp]
  002f6	e8 00 00 00 00	 call	 ??1CFavoriteThingsMng@@UAE@XZ ; CFavoriteThingsMng::~CFavoriteThingsMng
  002fb	8d 8d c0 fe ff
	ff		 lea	 ecx, DWORD PTR _sSelItemText$[ebp]
  00301	ff 15 00 00 00
	00		 call	 DWORD PTR __imp_??1?$CStringT@DV?$StrTraitMFC_DLL@DV?$ChTraitsCRT@D@ATL@@@@@ATL@@QAE@XZ
  00307	8d 8d b8 fe ff
	ff		 lea	 ecx, DWORD PTR _strPItem$[ebp]
  0030d	ff 15 00 00 00
	00		 call	 DWORD PTR __imp_??1?$CStringT@DV?$StrTraitMFC_DLL@DV?$ChTraitsCRT@D@ATL@@@@@ATL@@QAE@XZ
$LN14@OnBtsearch:
  00313	8d 8d c4 fe ff
	ff		 lea	 ecx, DWORD PTR _strItemTitle$[ebp]
  00319	ff 15 00 00 00
	00		 call	 DWORD PTR __imp_??1?$CStringT@DV?$StrTraitMFC_DLL@DV?$ChTraitsCRT@D@ATL@@@@@ATL@@QAE@XZ
  0031f	8d 8d ac fe ff
	ff		 lea	 ecx, DWORD PTR _strItem$[ebp]
  00325	ff 15 00 00 00
	00		 call	 DWORD PTR __imp_??1?$CStringT@DV?$StrTraitMFC_DLL@DV?$ChTraitsCRT@D@ATL@@@@@ATL@@QAE@XZ
  0032b	8b 4d f4	 mov	 ecx, DWORD PTR __$EHRec$[ebp]
  0032e	64 89 0d 00 00
	00 00		 mov	 DWORD PTR fs:0, ecx
  00335	59		 pop	 ecx
  00336	5f		 pop	 edi
  00337	5e		 pop	 esi
  00338	5b		 pop	 ebx
  00339	8b 4d f0	 mov	 ecx, DWORD PTR __$ArrayPad$[ebp]
  0033c	33 cd		 xor	 ecx, ebp
  0033e	e8 00 00 00 00	 call	 @__security_check_cookie@4
  00343	8b e5		 mov	 esp, ebp
  00345	5d		 pop	 ebp
  00346	c3		 ret	 0
$LN54@OnBtsearch:
; File C:\Program Files (x86)\Microsoft Visual Studio\2019\Community\VC\Tools\MSVC\14.29.30133\atlmfc\include\afxtempl.h

; 290  : 	AfxThrowInvalidArgException();

  00347	e8 00 00 00 00	 call	 ?AfxThrowInvalidArgException@@YGXXZ ; AfxThrowInvalidArgException
$LN92@OnBtsearch:
  0034c	cc		 int	 3
_TEXT	ENDS
;	COMDAT text$x
text$x	SEGMENT
__unwindfunclet$?OnBtsearch@CTabIndices@@IAEXXZ$0:
  00000	8d 8d ac fe ff
	ff		 lea	 ecx, DWORD PTR _strItem$[ebp]
  00006	ff 25 00 00 00
	00		 jmp	 DWORD PTR __imp_??1?$CStringT@DV?$StrTraitMFC_DLL@DV?$ChTraitsCRT@D@ATL@@@@@ATL@@QAE@XZ
__unwindfunclet$?OnBtsearch@CTabIndices@@IAEXXZ$1:
  0000c	8d 8d c4 fe ff
	ff		 lea	 ecx, DWORD PTR _strItemTitle$[ebp]
  00012	ff 25 00 00 00
	00		 jmp	 DWORD PTR __imp_??1?$CStringT@DV?$StrTraitMFC_DLL@DV?$ChTraitsCRT@D@ATL@@@@@ATL@@QAE@XZ
__unwindfunclet$?OnBtsearch@CTabIndices@@IAEXXZ$2:
  00018	8d 8d b8 fe ff
	ff		 lea	 ecx, DWORD PTR _strPItem$[ebp]
  0001e	ff 25 00 00 00
	00		 jmp	 DWORD PTR __imp_??1?$CStringT@DV?$StrTraitMFC_DLL@DV?$ChTraitsCRT@D@ATL@@@@@ATL@@QAE@XZ
__unwindfunclet$?OnBtsearch@CTabIndices@@IAEXXZ$3:
  00024	8d 8d c0 fe ff
	ff		 lea	 ecx, DWORD PTR _sSelItemText$[ebp]
  0002a	ff 25 00 00 00
	00		 jmp	 DWORD PTR __imp_??1?$CStringT@DV?$StrTraitMFC_DLL@DV?$ChTraitsCRT@D@ATL@@@@@ATL@@QAE@XZ
__unwindfunclet$?OnBtsearch@CTabIndices@@IAEXXZ$4:
  00030	8d 8d 78 fe ff
	ff		 lea	 ecx, DWORD PTR _pFavoriteMng$[ebp]
  00036	e9 00 00 00 00	 jmp	 ??1CFavoriteThingsMng@@UAE@XZ ; CFavoriteThingsMng::~CFavoriteThingsMng
  0003b	cc		 int	 3
  0003c	cc		 int	 3
  0003d	cc		 int	 3
  0003e	cc		 int	 3
  0003f	cc		 int	 3
__ehhandler$?OnBtsearch@CTabIndices@@IAEXXZ:
  00040	90		 npad	 1
  00041	90		 npad	 1
  00042	8b 54 24 08	 mov	 edx, DWORD PTR [esp+8]
  00046	8d 42 0c	 lea	 eax, DWORD PTR [edx+12]
  00049	8b 8a 74 fe ff
	ff		 mov	 ecx, DWORD PTR [edx-396]
  0004f	33 c8		 xor	 ecx, eax
  00051	e8 00 00 00 00	 call	 @__security_check_cookie@4
  00056	8b 4a fc	 mov	 ecx, DWORD PTR [edx-4]
  00059	33 c8		 xor	 ecx, eax
  0005b	e8 00 00 00 00	 call	 @__security_check_cookie@4
  00060	b8 00 00 00 00	 mov	 eax, OFFSET __ehfuncinfo$?OnBtsearch@CTabIndices@@IAEXXZ
  00065	e9 00 00 00 00	 jmp	 ___CxxFrameHandler3
text$x	ENDS
?OnBtsearch@CTabIndices@@IAEXXZ ENDP			; CTabIndices::OnBtsearch
; Function compile flags: /Ogtp
; File D:\git\src\IBK\IBK_DRFN\ProjSrc\SrcDrfn\Chart\MULTICHART\TabIndices.cpp
; File C:\Program Files (x86)\Microsoft Visual Studio\2019\Community\VC\Tools\MSVC\14.29.30133\atlmfc\include\afxtempl.h
; File D:\git\src\IBK\IBK_DRFN\ProjSrc\SrcDrfn\Chart\MULTICHART\TabIndices.cpp
; File C:\Program Files (x86)\Microsoft Visual Studio\2019\Community\VC\Tools\MSVC\14.29.30133\atlmfc\include\afxcmn.inl
; File D:\git\src\IBK\IBK_DRFN\ProjSrc\SrcDrfn\Chart\MULTICHART\TabIndices.cpp
; File C:\Program Files (x86)\Microsoft Visual Studio\2019\Community\VC\Tools\MSVC\14.29.30133\atlmfc\include\afxcmn.inl
; File D:\git\src\IBK\IBK_DRFN\ProjSrc\SrcDrfn\Chart\MULTICHART\TabIndices.cpp
; File C:\Program Files (x86)\Microsoft Visual Studio\2019\Community\VC\Tools\MSVC\14.29.30133\atlmfc\include\atlsimpstr.h
; File D:\git\src\IBK\IBK_DRFN\ProjSrc\SrcDrfn\Chart\MULTICHART\TabIndices.cpp
; File C:\Program Files (x86)\Microsoft Visual Studio\2019\Community\VC\Tools\MSVC\14.29.30133\atlmfc\include\afxcmn.inl
; File D:\git\src\IBK\IBK_DRFN\ProjSrc\SrcDrfn\Chart\MULTICHART\TabIndices.cpp
; File C:\Program Files (x86)\Microsoft Visual Studio\2019\Community\VC\Tools\MSVC\14.29.30133\atlmfc\include\afxtempl.h
; File C:\Program Files (x86)\Microsoft Visual Studio\2019\Community\VC\Tools\MSVC\14.29.30133\atlmfc\include\afxcmn.inl
; File C:\Program Files (x86)\Microsoft Visual Studio\2019\Community\VC\Tools\MSVC\14.29.30133\atlmfc\include\afxtempl.h
; File D:\git\src\IBK\IBK_DRFN\ProjSrc\SrcDrfn\Chart\MULTICHART\TabIndices.cpp
; File C:\Program Files (x86)\Microsoft Visual Studio\2019\Community\VC\Tools\MSVC\14.29.30133\atlmfc\include\afxcmn.inl
; File D:\git\src\IBK\IBK_DRFN\ProjSrc\SrcDrfn\Chart\MULTICHART\TabIndices.cpp
; File C:\Program Files (x86)\Microsoft Visual Studio\2019\Community\VC\Tools\MSVC\14.29.30133\atlmfc\include\afxtempl.h
; File D:\git\src\IBK\IBK_DRFN\ProjSrc\SrcDrfn\Chart\MULTICHART\TabIndices.cpp
;	COMDAT ?OnBtapply@CTabIndices@@IAEXXZ
_TEXT	SEGMENT
_pFavoriteMng$2 = -368					; size = 52
_treeMyFavorite$1$ = -316				; size = 4
_wSizeItem$1$ = -312					; size = 4
_strMessage$ = -308					; size = 4
_wIndexItem$1$ = -304					; size = 4
$T3 = -304						; size = 4
_strItemName$ = -300					; size = 4
__stData$ = -296					; size = 280
__$ArrayPad$ = -16					; size = 4
__$EHRec$ = -12						; size = 12
?OnBtapply@CTabIndices@@IAEXXZ PROC			; CTabIndices::OnBtapply, COMDAT
; _this$ = ecx

; 893  : {

  00000	55		 push	 ebp
  00001	8b ec		 mov	 ebp, esp
  00003	6a ff		 push	 -1
  00005	68 00 00 00 00	 push	 __ehhandler$?OnBtapply@CTabIndices@@IAEXXZ
  0000a	64 a1 00 00 00
	00		 mov	 eax, DWORD PTR fs:0
  00010	50		 push	 eax
  00011	81 ec 64 01 00
	00		 sub	 esp, 356		; 00000164H
  00017	a1 00 00 00 00	 mov	 eax, DWORD PTR ___security_cookie
  0001c	33 c5		 xor	 eax, ebp
  0001e	89 45 f0	 mov	 DWORD PTR __$ArrayPad$[ebp], eax
  00021	53		 push	 ebx
  00022	56		 push	 esi
  00023	57		 push	 edi
  00024	50		 push	 eax
  00025	8d 45 f4	 lea	 eax, DWORD PTR __$EHRec$[ebp]
  00028	64 a3 00 00 00
	00		 mov	 DWORD PTR fs:0, eax
  0002e	8b f1		 mov	 esi, ecx

; 894  : 
; 895  : 	//{{   ->  
; 896  : //	POSITION pos = m_ListTree.FindIndex(m_nIndexSelected);
; 897  : //	CTreeCtrl* treeItem  = m_ListTree.GetAt(pos);
; 898  : //	HTREEITEM hItem = NULL;
; 899  : //	hItem = treeItem->GetSelectedItem();
; 900  : //
; 901  : //	//  
; 902  : //	CString strText			= treeItem->GetItemText(hItem);
; 903  : //
; 904  : //	BOOL bMarket = FALSE;
; 905  : //	if(szIndexGroupName[m_nIndexSelected] == "")		
; 906  : //	{		
; 907  : //		if(m_pChartMng->GetSafeHwnd()) // 2005. 04. 22 by Nam
; 908  : //			m_pChartMng->SendMessage(UMSG_ADDCHARTBLOCK,(WPARAM)(LPCTSTR)strText, FROM_TABJIPYO_MARKET);
; 909  : //	}
; 910  : //	else
; 911  : //	{
; 912  : //		if(m_pChartMng->GetSafeHwnd()) // 2005. 04. 22 by Nam
; 913  : //			m_pChartMng->SendMessage(UMSG_ADDCHARTBLOCK,(WPARAM)(LPCTSTR)strText);
; 914  : //	}
; 915  : 	//}}
; 916  : 
; 917  : //	stFvrData _stData;
; 918  : //	CString strItem;
; 919  : //	CString strItemTitle;
; 920  : //	::ZeroMemory(&_stData,sizeof(_stData));
; 921  : //	strItemTitle = '[';
; 922  : //	strItemTitle += TAB_ASSISTINDEX;
; 923  : //	strItemTitle += "] ";
; 924  : //
; 925  : //	POSITION pos = m_ListTree.FindIndex(m_nIndexSelected);
; 926  : //	CTreeCtrl* treeItem  = m_ListTree.GetAt(pos);
; 927  : //	HTREEITEM hItem = NULL;
; 928  : //	hItem = treeItem->GetSelectedItem();
; 929  : //	//HTREEITEM hPItem = m_treeItems.GetParentItem(hItem);
; 930  : //	if(hItem==NULL) 
; 931  : //	{
; 932  : //		MessageBox(" .",DLLTITLENAME);
; 933  : //		return;
; 934  : //	}		
; 935  : //	
; 936  : //	CString strPItem = szIndexGroupName[m_nIndexSelected];
; 937  : //	CString sSelItemText = treeItem->GetItemText(hItem);
; 938  : //	if(sSelItemText.GetLength())
; 939  : //	{
; 940  : //		strItemTitle += sSelItemText;
; 941  : //		strItemTitle += '(';
; 942  : //		strItemTitle += strPItem;
; 943  : //		strItemTitle += ')';
; 944  : //		DWORD wItemData = m_treeItems.GetItemData(hItem);
; 945  : //
; 946  : //
; 947  : //		//       .
; 948  : //		//2005. 08. 10 by sy,nam
; 949  : //		memcpy(_stData.m_chData1,sSelItemText,sSelItemText.GetLength());
; 950  : //		//=============================================================
; 951  : //	}
; 952  : //
; 953  : //	CRect rect;
; 954  : //	CPoint pt;
; 955  : //	GetDlgItem(IDC_BTSEARCH)->GetWindowRect(rect);
; 956  : //	pt.x = rect.left;
; 957  : //	pt.y = rect.top;
; 958  : //	
; 959  : //	memcpy(_stData.m_chTitle,strItemTitle,strItemTitle.GetLength());	
; 960  : //	_stData.m_lTabNum = TABNO_ASSISTINDEX;
; 961  : //	_stData.m_lSubData1 = m_nIndexSelected;
; 962  : //
; 963  : //	CFavoriteThingsMng pFavoriteMng;
; 964  : //	pFavoriteMng.SetPath(m_pParentDlg->m_strRootPath+ "\\User\\Chart");
; 965  : //	pFavoriteMng.SaveItemInfo(&_stData,"JipyoFile");
; 966  : //
; 967  : //	pos = m_ListTree.FindIndex(1);
; 968  : //	treeItem  = m_ListTree.GetAt(pos);
; 969  : //
; 970  : //	treeItem->DeleteAllItems();
; 971  : //	pFavoriteMng.LoadItemInfo("JipyoFile");
; 972  : //	int wSizeItem = pFavoriteMng.m_ArrayFvrItem.GetSize();
; 973  : //	for(int wIndexItem=0;wIndexItem<wSizeItem;wIndexItem++)
; 974  : //	{
; 975  : //		_stData = pFavoriteMng.m_ArrayFvrItem.GetAt(wIndexItem);
; 976  : //		treeItem->InsertItem(_stData.m_chData1);
; 977  : //	}		
; 978  : /////////////////////////
; 979  : 	if(m_nIndexSelected != 1)

  00030	83 be 8c 17 00
	00 01		 cmp	 DWORD PTR [esi+6028], 1
  00037	0f 85 e9 01 00
	00		 jne	 $LN1@OnBtapply
; File C:\Program Files (x86)\Microsoft Visual Studio\2019\Community\VC\Tools\MSVC\14.29.30133\atlmfc\include\afxtempl.h

; 1133 : 	if (nIndex >= m_nCount || nIndex < 0)

  0003d	83 be 6c 05 00
	00 01		 cmp	 DWORD PTR [esi+1388], 1
  00044	7e 0a		 jle	 SHORT $LN19@OnBtapply

; 1135 : 
; 1136 : 	CNode* pNode = m_pNodeHead;

  00046	8b 86 64 05 00
	00		 mov	 eax, DWORD PTR [esi+1380]

; 1137 : 	while (nIndex--)
; 1138 : 	{
; 1139 : 		ASSERT(AfxIsValidAddress(pNode, sizeof(CNode)));
; 1140 : 		pNode = pNode->pNext;
; 1141 : 	}
; 1142 : 	return (POSITION) pNode;

  0004c	8b 18		 mov	 ebx, DWORD PTR [eax]
  0004e	eb 02		 jmp	 SHORT $LN15@OnBtapply
$LN19@OnBtapply:

; 1134 : 		return NULL;  // went too far

  00050	33 db		 xor	 ebx, ebx
$LN15@OnBtapply:
; File D:\git\src\IBK\IBK_DRFN\ProjSrc\SrcDrfn\Chart\MULTICHART\TabIndices.cpp

; 983  : 	CTreeCtrl* treeMyFavorite  = m_ListTree.GetAt(pos);

  00052	8b 5b 08	 mov	 ebx, DWORD PTR [ebx+8]

; 984  : 	stFvrData _stData;
; 985  : 
; 986  : 	CString strItemName;

  00055	8d 8d d4 fe ff
	ff		 lea	 ecx, DWORD PTR _strItemName$[ebp]
  0005b	89 9d c4 fe ff
	ff		 mov	 DWORD PTR _treeMyFavorite$1$[ebp], ebx
  00061	ff 15 00 00 00
	00		 call	 DWORD PTR __imp_??0?$CStringT@DV?$StrTraitMFC_DLL@DV?$ChTraitsCRT@D@ATL@@@@@ATL@@QAE@XZ

; 987  : 	CString strMessage;

  00067	8d 8d cc fe ff
	ff		 lea	 ecx, DWORD PTR _strMessage$[ebp]
  0006d	c7 45 fc 00 00
	00 00		 mov	 DWORD PTR __$EHRec$[ebp+8], 0
  00074	ff 15 00 00 00
	00		 call	 DWORD PTR __imp_??0?$CStringT@DV?$StrTraitMFC_DLL@DV?$ChTraitsCRT@D@ATL@@@@@ATL@@QAE@XZ
; File C:\Program Files (x86)\Microsoft Visual Studio\2019\Community\VC\Tools\MSVC\14.29.30133\atlmfc\include\afxcmn.inl

; 316  : 	{ ASSERT(::IsWindow(m_hWnd)); return (HTREEITEM)::SendMessage(m_hWnd, TVM_GETNEXTITEM, TVGN_CARET, 0); }

  0007a	8b 3d 00 00 00
	00		 mov	 edi, DWORD PTR __imp__SendMessageA@16
  00080	6a 00		 push	 0
  00082	6a 09		 push	 9
  00084	68 0a 11 00 00	 push	 4362			; 0000110aH
  00089	ff 73 20	 push	 DWORD PTR [ebx+32]
; File D:\git\src\IBK\IBK_DRFN\ProjSrc\SrcDrfn\Chart\MULTICHART\TabIndices.cpp

; 987  : 	CString strMessage;

  0008c	c6 45 fc 01	 mov	 BYTE PTR __$EHRec$[ebp+8], 1
; File C:\Program Files (x86)\Microsoft Visual Studio\2019\Community\VC\Tools\MSVC\14.29.30133\atlmfc\include\afxcmn.inl

; 316  : 	{ ASSERT(::IsWindow(m_hWnd)); return (HTREEITEM)::SendMessage(m_hWnd, TVM_GETNEXTITEM, TVGN_CARET, 0); }

  00090	ff d7		 call	 edi
; File D:\git\src\IBK\IBK_DRFN\ProjSrc\SrcDrfn\Chart\MULTICHART\TabIndices.cpp

; 990  : 	strItemName = treeMyFavorite->GetItemText(hItem);

  00092	50		 push	 eax
  00093	8d 85 d0 fe ff
	ff		 lea	 eax, DWORD PTR $T3[ebp]
  00099	8b cb		 mov	 ecx, ebx
  0009b	50		 push	 eax
  0009c	e8 00 00 00 00	 call	 ?GetItemText@CTreeCtrl@@QBE?AV?$CStringT@DV?$StrTraitMFC_DLL@DV?$ChTraitsCRT@D@ATL@@@@@ATL@@PAU_TREEITEM@@@Z ; CTreeCtrl::GetItemText
  000a1	50		 push	 eax
  000a2	8d 8d d4 fe ff
	ff		 lea	 ecx, DWORD PTR _strItemName$[ebp]
  000a8	c6 45 fc 02	 mov	 BYTE PTR __$EHRec$[ebp+8], 2
  000ac	ff 15 00 00 00
	00		 call	 DWORD PTR __imp_??4?$CStringT@DV?$StrTraitMFC_DLL@DV?$ChTraitsCRT@D@ATL@@@@@ATL@@QAEAAV01@ABV01@@Z
  000b2	8d 8d d0 fe ff
	ff		 lea	 ecx, DWORD PTR $T3[ebp]
  000b8	c6 45 fc 01	 mov	 BYTE PTR __$EHRec$[ebp+8], 1
  000bc	ff 15 00 00 00
	00		 call	 DWORD PTR __imp_??1?$CStringT@DV?$StrTraitMFC_DLL@DV?$ChTraitsCRT@D@ATL@@@@@ATL@@QAE@XZ
; File C:\Program Files (x86)\Microsoft Visual Studio\2019\Community\VC\Tools\MSVC\14.29.30133\atlmfc\include\atlsimpstr.h

; 519  : 		return( GetData()->nDataLength );

  000c2	8b 85 d4 fe ff
	ff		 mov	 eax, DWORD PTR _strItemName$[ebp]
; File D:\git\src\IBK\IBK_DRFN\ProjSrc\SrcDrfn\Chart\MULTICHART\TabIndices.cpp

; 992  : 	if(strItemName.GetLength() <= 0)

  000c8	83 78 f4 00	 cmp	 DWORD PTR [eax-12], 0
  000cc	7f 18		 jg	 SHORT $LN6@OnBtapply

; 993  : 	{
; 994  : 		MessageBox("     .",DLLTITLENAME);

  000ce	6a 00		 push	 0
  000d0	68 00 00 00 00	 push	 OFFSET ??_C@_08BDLNPKGG@?A?$LO?G?U?B?w?F?$KO@
  000d5	68 00 00 00 00	 push	 OFFSET ??_C@_0CN@OPAEAOJB@?$LA?$PM?$LN?I?A?v?G?$KF?5?A?$NP?5?$LL?h?A?$KG?G?R?5?A?v?G?$KF?$LI?$KG?5?G?O?$LD?$KK?5@
  000da	8b ce		 mov	 ecx, esi
  000dc	e8 00 00 00 00	 call	 ?MessageBoxA@CWnd@@QAEHPBD0I@Z ; CWnd::MessageBoxA
  000e1	e9 28 01 00 00	 jmp	 $LN7@OnBtapply
$LN6@OnBtapply:

; 995  : 		return;
; 996  : 	}
; 997  : 	strMessage.Format("%s  ?",strItemName);

  000e6	50		 push	 eax
  000e7	8d 85 cc fe ff
	ff		 lea	 eax, DWORD PTR _strMessage$[ebp]
  000ed	68 00 00 00 00	 push	 OFFSET ??_C@_0BI@OIIBGPHF@?$CFs?5?$LI?$KG?5?$LL?h?A?$KG?G?O?$LN?C?$LA?Z?$LN?$MA?$LE?O?$LB?n?$DP@
  000f2	50		 push	 eax
  000f3	ff 15 00 00 00
	00		 call	 DWORD PTR __imp_?Format@?$CStringT@DV?$StrTraitMFC_DLL@DV?$ChTraitsCRT@D@ATL@@@@@ATL@@QAAXPBDZZ
  000f9	83 c4 0c	 add	 esp, 12			; 0000000cH

; 998  : 	int nRetValue = MessageBox(strMessage,DLLTITLENAME,MB_YESNO|MB_ICONSTOP);

  000fc	8b ce		 mov	 ecx, esi
  000fe	6a 14		 push	 20			; 00000014H
  00100	68 00 00 00 00	 push	 OFFSET ??_C@_08BDLNPKGG@?A?$LO?G?U?B?w?F?$KO@
  00105	ff b5 cc fe ff
	ff		 push	 DWORD PTR _strMessage$[ebp]
  0010b	e8 00 00 00 00	 call	 ?MessageBoxA@CWnd@@QAEHPBD0I@Z ; CWnd::MessageBoxA

; 999  : 	if(nRetValue==IDYES)

  00110	83 f8 06	 cmp	 eax, 6
  00113	0f 85 f5 00 00
	00		 jne	 $LN7@OnBtapply

; 1000 : 	{
; 1001 : 		CFavoriteThingsMng pFavoriteMng;

  00119	8d 8d 90 fe ff
	ff		 lea	 ecx, DWORD PTR _pFavoriteMng$2[ebp]
  0011f	e8 00 00 00 00	 call	 ??0CFavoriteThingsMng@@QAE@XZ ; CFavoriteThingsMng::CFavoriteThingsMng

; 1002 : 		pFavoriteMng.SetPath(m_pParentDlg->GetUserPath());

  00124	51		 push	 ecx
  00125	8b 8e bc 00 00
	00		 mov	 ecx, DWORD PTR [esi+188]
  0012b	54		 push	 esp
  0012c	c6 45 fc 03	 mov	 BYTE PTR __$EHRec$[ebp+8], 3
  00130	e8 00 00 00 00	 call	 ?GetUserPath@CLeftBarDlg@@QAE?AV?$CStringT@DV?$StrTraitMFC_DLL@DV?$ChTraitsCRT@D@ATL@@@@@ATL@@XZ ; CLeftBarDlg::GetUserPath
  00135	8d 8d 90 fe ff
	ff		 lea	 ecx, DWORD PTR _pFavoriteMng$2[ebp]
  0013b	e8 00 00 00 00	 call	 ?SetPath@CFavoriteThingsMng@@QAEXV?$CStringT@DV?$StrTraitMFC_DLL@DV?$ChTraitsCRT@D@ATL@@@@@ATL@@@Z ; CFavoriteThingsMng::SetPath

; 1003 : 		pFavoriteMng.LoadItemInfo("JipyoFile");

  00140	68 00 00 00 00	 push	 OFFSET ??_C@_09IBPFDGDO@JipyoFile@
  00145	8d 8d 90 fe ff
	ff		 lea	 ecx, DWORD PTR _pFavoriteMng$2[ebp]
  0014b	e8 00 00 00 00	 call	 ?LoadItemInfo@CFavoriteThingsMng@@QAEHPBD@Z ; CFavoriteThingsMng::LoadItemInfo

; 1004 : 		pFavoriteMng.DeleteItemInfo(strItemName, "JipyoFile");

  00150	68 00 00 00 00	 push	 OFFSET ??_C@_09IBPFDGDO@JipyoFile@
  00155	ff b5 d4 fe ff
	ff		 push	 DWORD PTR _strItemName$[ebp]
  0015b	8d 8d 90 fe ff
	ff		 lea	 ecx, DWORD PTR _pFavoriteMng$2[ebp]
  00161	e8 00 00 00 00	 call	 ?DeleteItemInfo@CFavoriteThingsMng@@QAEHPBD0@Z ; CFavoriteThingsMng::DeleteItemInfo
; File C:\Program Files (x86)\Microsoft Visual Studio\2019\Community\VC\Tools\MSVC\14.29.30133\atlmfc\include\afxcmn.inl

; 277  : 	{ ASSERT(::IsWindow(m_hWnd)); return (BOOL)::SendMessage(m_hWnd, TVM_DELETEITEM, 0, (LPARAM)TVI_ROOT); }

  00166	68 00 00 ff ff	 push	 -65536			; ffff0000H
  0016b	6a 00		 push	 0
  0016d	68 01 11 00 00	 push	 4353			; 00001101H
  00172	ff 73 20	 push	 DWORD PTR [ebx+32]
  00175	ff d7		 call	 edi
; File D:\git\src\IBK\IBK_DRFN\ProjSrc\SrcDrfn\Chart\MULTICHART\TabIndices.cpp

; 1006 : 		int wSizeItem = pFavoriteMng.m_ArrayFvrItem.GetSize();

  00177	8b 8d b0 fe ff
	ff		 mov	 ecx, DWORD PTR _pFavoriteMng$2[ebp+32]

; 1007 : 		for(int wIndexItem=0;wIndexItem<wSizeItem;wIndexItem++)

  0017d	33 c0		 xor	 eax, eax
  0017f	8b d1		 mov	 edx, ecx
  00181	89 85 d0 fe ff
	ff		 mov	 DWORD PTR _wIndexItem$1$[ebp], eax
  00187	89 95 c8 fe ff
	ff		 mov	 DWORD PTR _wSizeItem$1$[ebp], edx
  0018d	85 d2		 test	 edx, edx
  0018f	7e 72		 jle	 SHORT $LN3@OnBtapply

; 1000 : 	{
; 1001 : 		CFavoriteThingsMng pFavoriteMng;

  00191	33 db		 xor	 ebx, ebx
$LL4@OnBtapply:
; File C:\Program Files (x86)\Microsoft Visual Studio\2019\Community\VC\Tools\MSVC\14.29.30133\atlmfc\include\afxtempl.h

; 288  : 	if(nIndex >= 0 && nIndex < m_nSize)

  00193	85 db		 test	 ebx, ebx
  00195	0f 88 a7 00 00
	00		 js	 $LN34@OnBtapply
  0019b	3b c1		 cmp	 eax, ecx
  0019d	0f 8d 9f 00 00
	00		 jge	 $LN34@OnBtapply

; 289  : 		return m_pData[nIndex];

  001a3	8b b5 ac fe ff
	ff		 mov	 esi, DWORD PTR _pFavoriteMng$2[ebp+28]
; File C:\Program Files (x86)\Microsoft Visual Studio\2019\Community\VC\Tools\MSVC\14.29.30133\atlmfc\include\afxcmn.inl

; 271  : 	{ ASSERT(::IsWindow(m_hWnd)); return InsertItem(TVIF_TEXT, lpszItem, 0, 0, 0, 0, 0, hParent, hInsertAfter); }

  001a9	8d 85 30 ff ff
	ff		 lea	 eax, DWORD PTR __stData$[ebp+88]
  001af	68 02 00 ff ff	 push	 -65534			; ffff0002H
  001b4	68 00 00 ff ff	 push	 -65536			; ffff0000H
  001b9	6a 00		 push	 0
  001bb	6a 00		 push	 0
  001bd	6a 00		 push	 0
  001bf	6a 00		 push	 0
  001c1	6a 00		 push	 0
; File C:\Program Files (x86)\Microsoft Visual Studio\2019\Community\VC\Tools\MSVC\14.29.30133\atlmfc\include\afxtempl.h

; 289  : 		return m_pData[nIndex];

  001c3	03 f3		 add	 esi, ebx
; File D:\git\src\IBK\IBK_DRFN\ProjSrc\SrcDrfn\Chart\MULTICHART\TabIndices.cpp

; 1009 : 			_stData = pFavoriteMng.m_ArrayFvrItem.GetAt(wIndexItem);

  001c5	8d bd d8 fe ff
	ff		 lea	 edi, DWORD PTR __stData$[ebp]
  001cb	b9 46 00 00 00	 mov	 ecx, 70			; 00000046H
  001d0	f3 a5		 rep movsd
; File C:\Program Files (x86)\Microsoft Visual Studio\2019\Community\VC\Tools\MSVC\14.29.30133\atlmfc\include\afxcmn.inl

; 271  : 	{ ASSERT(::IsWindow(m_hWnd)); return InsertItem(TVIF_TEXT, lpszItem, 0, 0, 0, 0, 0, hParent, hInsertAfter); }

  001d2	8b 8d c4 fe ff
	ff		 mov	 ecx, DWORD PTR _treeMyFavorite$1$[ebp]
  001d8	50		 push	 eax
  001d9	6a 01		 push	 1
  001db	e8 00 00 00 00	 call	 ?InsertItem@CTreeCtrl@@QAEPAU_TREEITEM@@IPBDHHIIJPAU2@1@Z ; CTreeCtrl::InsertItem
; File D:\git\src\IBK\IBK_DRFN\ProjSrc\SrcDrfn\Chart\MULTICHART\TabIndices.cpp

; 1007 : 		for(int wIndexItem=0;wIndexItem<wSizeItem;wIndexItem++)

  001e0	8b 85 d0 fe ff
	ff		 mov	 eax, DWORD PTR _wIndexItem$1$[ebp]
  001e6	81 c3 18 01 00
	00		 add	 ebx, 280		; 00000118H
  001ec	40		 inc	 eax
  001ed	89 85 d0 fe ff
	ff		 mov	 DWORD PTR _wIndexItem$1$[ebp], eax
  001f3	3b 85 c8 fe ff
	ff		 cmp	 eax, DWORD PTR _wSizeItem$1$[ebp]
  001f9	7d 08		 jge	 SHORT $LN3@OnBtapply
  001fb	8b 8d b0 fe ff
	ff		 mov	 ecx, DWORD PTR _pFavoriteMng$2[ebp+32]
  00201	eb 90		 jmp	 SHORT $LL4@OnBtapply
$LN3@OnBtapply:

; 1010 : 			treeMyFavorite->InsertItem(_stData.m_chData1);
; 1011 : 		}		
; 1012 : 		//m_pFavoriteMng->DeleteGrp(strGrpName);
; 1013 : 		//LoadTreeData();
; 1014 : 	}

  00203	8d 8d 90 fe ff
	ff		 lea	 ecx, DWORD PTR _pFavoriteMng$2[ebp]
  00209	e8 00 00 00 00	 call	 ??1CFavoriteThingsMng@@UAE@XZ ; CFavoriteThingsMng::~CFavoriteThingsMng
$LN7@OnBtapply:

; 1085 : }

  0020e	8d 8d cc fe ff
	ff		 lea	 ecx, DWORD PTR _strMessage$[ebp]
  00214	ff 15 00 00 00
	00		 call	 DWORD PTR __imp_??1?$CStringT@DV?$StrTraitMFC_DLL@DV?$ChTraitsCRT@D@ATL@@@@@ATL@@QAE@XZ
  0021a	8d 8d d4 fe ff
	ff		 lea	 ecx, DWORD PTR _strItemName$[ebp]
  00220	ff 15 00 00 00
	00		 call	 DWORD PTR __imp_??1?$CStringT@DV?$StrTraitMFC_DLL@DV?$ChTraitsCRT@D@ATL@@@@@ATL@@QAE@XZ
$LN1@OnBtapply:
  00226	8b 4d f4	 mov	 ecx, DWORD PTR __$EHRec$[ebp]
  00229	64 89 0d 00 00
	00 00		 mov	 DWORD PTR fs:0, ecx
  00230	59		 pop	 ecx
  00231	5f		 pop	 edi
  00232	5e		 pop	 esi
  00233	5b		 pop	 ebx
  00234	8b 4d f0	 mov	 ecx, DWORD PTR __$ArrayPad$[ebp]
  00237	33 cd		 xor	 ecx, ebp
  00239	e8 00 00 00 00	 call	 @__security_check_cookie@4
  0023e	8b e5		 mov	 esp, ebp
  00240	5d		 pop	 ebp
  00241	c3		 ret	 0
$LN34@OnBtapply:
; File C:\Program Files (x86)\Microsoft Visual Studio\2019\Community\VC\Tools\MSVC\14.29.30133\atlmfc\include\afxtempl.h

; 290  : 	AfxThrowInvalidArgException();

  00242	e8 00 00 00 00	 call	 ?AfxThrowInvalidArgException@@YGXXZ ; AfxThrowInvalidArgException
$LN54@OnBtapply:
  00247	cc		 int	 3
_TEXT	ENDS
;	COMDAT text$x
text$x	SEGMENT
__unwindfunclet$?OnBtapply@CTabIndices@@IAEXXZ$0:
  00000	8d 8d d4 fe ff
	ff		 lea	 ecx, DWORD PTR _strItemName$[ebp]
  00006	ff 25 00 00 00
	00		 jmp	 DWORD PTR __imp_??1?$CStringT@DV?$StrTraitMFC_DLL@DV?$ChTraitsCRT@D@ATL@@@@@ATL@@QAE@XZ
__unwindfunclet$?OnBtapply@CTabIndices@@IAEXXZ$1:
  0000c	8d 8d cc fe ff
	ff		 lea	 ecx, DWORD PTR _strMessage$[ebp]
  00012	ff 25 00 00 00
	00		 jmp	 DWORD PTR __imp_??1?$CStringT@DV?$StrTraitMFC_DLL@DV?$ChTraitsCRT@D@ATL@@@@@ATL@@QAE@XZ
__unwindfunclet$?OnBtapply@CTabIndices@@IAEXXZ$2:
  00018	8d 8d d0 fe ff
	ff		 lea	 ecx, DWORD PTR $T3[ebp]
  0001e	ff 25 00 00 00
	00		 jmp	 DWORD PTR __imp_??1?$CStringT@DV?$StrTraitMFC_DLL@DV?$ChTraitsCRT@D@ATL@@@@@ATL@@QAE@XZ
__unwindfunclet$?OnBtapply@CTabIndices@@IAEXXZ$3:
  00024	8d 8d 90 fe ff
	ff		 lea	 ecx, DWORD PTR _pFavoriteMng$2[ebp]
  0002a	e9 00 00 00 00	 jmp	 ??1CFavoriteThingsMng@@UAE@XZ ; CFavoriteThingsMng::~CFavoriteThingsMng
  0002f	cc		 int	 3
  00030	cc		 int	 3
  00031	cc		 int	 3
  00032	cc		 int	 3
  00033	cc		 int	 3
__ehhandler$?OnBtapply@CTabIndices@@IAEXXZ:
  00034	90		 npad	 1
  00035	90		 npad	 1
  00036	8b 54 24 08	 mov	 edx, DWORD PTR [esp+8]
  0003a	8d 42 0c	 lea	 eax, DWORD PTR [edx+12]
  0003d	8b 8a 8c fe ff
	ff		 mov	 ecx, DWORD PTR [edx-372]
  00043	33 c8		 xor	 ecx, eax
  00045	e8 00 00 00 00	 call	 @__security_check_cookie@4
  0004a	8b 4a fc	 mov	 ecx, DWORD PTR [edx-4]
  0004d	33 c8		 xor	 ecx, eax
  0004f	e8 00 00 00 00	 call	 @__security_check_cookie@4
  00054	b8 00 00 00 00	 mov	 eax, OFFSET __ehfuncinfo$?OnBtapply@CTabIndices@@IAEXXZ
  00059	e9 00 00 00 00	 jmp	 ___CxxFrameHandler3
text$x	ENDS
?OnBtapply@CTabIndices@@IAEXXZ ENDP			; CTabIndices::OnBtapply
; Function compile flags: /Ogtp
; File D:\git\src\IBK\IBK_DRFN\ProjSrc\SrcDrfn\Chart\MULTICHART\TabIndices.cpp
; File C:\Program Files (x86)\Microsoft Visual Studio\2019\Community\VC\Tools\MSVC\14.29.30133\atlmfc\include\afxwin2.inl
; File D:\git\src\IBK\IBK_DRFN\ProjSrc\SrcDrfn\Chart\MULTICHART\TabIndices.cpp
; File C:\Program Files (x86)\Microsoft Visual Studio\2019\Community\VC\Tools\MSVC\14.29.30133\atlmfc\include\afxcmn2.inl
; File D:\git\src\IBK\IBK_DRFN\ProjSrc\SrcDrfn\Chart\MULTICHART\control\XListCtrl.h
; File D:\git\src\IBK\IBK_DRFN\ProjSrc\SrcDrfn\Chart\MULTICHART\TabIndices.cpp
; File C:\Program Files (x86)\Microsoft Visual Studio\2019\Community\VC\Tools\MSVC\14.29.30133\atlmfc\include\afxcmn.inl
; File D:\git\src\IBK\IBK_DRFN\ProjSrc\SrcDrfn\Chart\MULTICHART\TabIndices.cpp
; File C:\Program Files (x86)\Microsoft Visual Studio\2019\Community\VC\Tools\MSVC\14.29.30133\atlmfc\include\afxcmn.inl
; File D:\git\src\IBK\IBK_DRFN\ProjSrc\SrcDrfn\Chart\MULTICHART\TabIndices.cpp
; File C:\Program Files (x86)\Microsoft Visual Studio\2019\Community\VC\Tools\MSVC\14.29.30133\atlmfc\include\afxcmn.inl
; File D:\git\src\IBK\IBK_DRFN\ProjSrc\SrcDrfn\Chart\MULTICHART\TabIndices.cpp
; File C:\Program Files (x86)\Microsoft Visual Studio\2019\Community\VC\Tools\MSVC\14.29.30133\atlmfc\include\afxcmn.inl
; File D:\git\src\IBK\IBK_DRFN\ProjSrc\SrcDrfn\Chart\MULTICHART\TabIndices.cpp
; File C:\Program Files (x86)\Microsoft Visual Studio\2019\Community\VC\Tools\MSVC\14.29.30133\atlmfc\include\afxcmn.inl
; File D:\git\src\IBK\IBK_DRFN\ProjSrc\SrcDrfn\Chart\MULTICHART\TabIndices.cpp
; File C:\Program Files (x86)\Microsoft Visual Studio\2019\Community\VC\Tools\MSVC\14.29.30133\atlmfc\include\afxcmn.inl
; File D:\git\src\IBK\IBK_DRFN\ProjSrc\SrcDrfn\Chart\MULTICHART\TabIndices.cpp
; File C:\Program Files (x86)\Microsoft Visual Studio\2019\Community\VC\Tools\MSVC\14.29.30133\atlmfc\include\afxcmn.inl
; File D:\git\src\IBK\IBK_DRFN\ProjSrc\SrcDrfn\Chart\MULTICHART\TabIndices.cpp
; File C:\Program Files (x86)\Microsoft Visual Studio\2019\Community\VC\Tools\MSVC\14.29.30133\atlmfc\include\afxcmn.inl
; File D:\git\src\IBK\IBK_DRFN\ProjSrc\SrcDrfn\Chart\MULTICHART\TabIndices.cpp
; File C:\Program Files (x86)\Microsoft Visual Studio\2019\Community\VC\Tools\MSVC\14.29.30133\atlmfc\include\afxcmn.inl
; File D:\git\src\IBK\IBK_DRFN\ProjSrc\SrcDrfn\Chart\MULTICHART\TabIndices.cpp
; File C:\Program Files (x86)\Microsoft Visual Studio\2019\Community\VC\Tools\MSVC\14.29.30133\atlmfc\include\afxwin2.inl
; File D:\git\src\IBK\IBK_DRFN\ProjSrc\SrcDrfn\Chart\MULTICHART\TabIndices.cpp
;	COMDAT ?OnInitDialog@CTabIndices@@MAEHXZ
_TEXT	SEGMENT
_hditem$ = -96						; size = 48
_lvcolumn$ = -48					; size = 44
?OnInitDialog@CTabIndices@@MAEHXZ PROC			; CTabIndices::OnInitDialog, COMDAT
; _this$ = ecx

; 181  : {

  00000	55		 push	 ebp
  00001	8b ec		 mov	 ebp, esp
  00003	83 ec 60	 sub	 esp, 96			; 00000060H
  00006	53		 push	 ebx
  00007	56		 push	 esi
  00008	57		 push	 edi
  00009	8b d9		 mov	 ebx, ecx

; 182  : 	CTabDlg::OnInitDialog();

  0000b	e8 00 00 00 00	 call	 ?OnInitDialog@CTabDlg@@MAEHXZ ; CTabDlg::OnInitDialog

; 2093 : 	m_btnSearch	.FP_vSetImage(m_pIL_W43H20, 0, 2, TRUE, "", FALSE);

  00010	6a ff		 push	 -1
  00012	6a ff		 push	 -1
  00014	6a 00		 push	 0
  00016	51		 push	 ecx
  00017	8b cc		 mov	 ecx, esp
  00019	68 00 00 00 00	 push	 OFFSET ??_C@_04FLCJJKJJ@?$LF?n?$LH?O@
  0001e	ff 15 00 00 00
	00		 call	 DWORD PTR __imp_??0?$CStringT@DV?$StrTraitMFC_DLL@DV?$ChTraitsCRT@D@ATL@@@@@ATL@@QAE@PBD@Z
  00024	6a 01		 push	 1
  00026	6a 02		 push	 2
  00028	6a 00		 push	 0
  0002a	ff b3 b0 00 00
	00		 push	 DWORD PTR [ebx+176]
  00030	8d 8b 88 13 00
	00		 lea	 ecx, DWORD PTR [ebx+5000]
  00036	e8 00 00 00 00	 call	 ?FP_vSetImage@CILButton@@QAEXPAVCImageList@@HHHV?$CStringT@DV?$StrTraitMFC_DLL@DV?$ChTraitsCRT@D@ATL@@@@@ATL@@HHH@Z ; CILButton::FP_vSetImage

; 2094 : 
; 2095 : 	//
; 2096 : //@ m_btnApply	.FP_vSetImage(m_pIL_W43H19, 0, 2, TRUE, "", FALSE);
; 2097 : 	m_btnApply	.FP_vSetImage(m_pIL_W43H20, 0, 2, TRUE, "", FALSE);

  0003b	6a ff		 push	 -1
  0003d	6a ff		 push	 -1
  0003f	6a 00		 push	 0
  00041	51		 push	 ecx
  00042	8b cc		 mov	 ecx, esp
  00044	68 00 00 00 00	 push	 OFFSET ??_C@_04CFDBLPCI@?$LL?h?A?$KG@
  00049	ff 15 00 00 00
	00		 call	 DWORD PTR __imp_??0?$CStringT@DV?$StrTraitMFC_DLL@DV?$ChTraitsCRT@D@ATL@@@@@ATL@@QAE@PBD@Z
  0004f	6a 01		 push	 1
  00051	6a 02		 push	 2
  00053	6a 00		 push	 0
  00055	ff b3 b0 00 00
	00		 push	 DWORD PTR [ebx+176]
  0005b	8d 8b e8 14 00
	00		 lea	 ecx, DWORD PTR [ebx+5352]
  00061	e8 00 00 00 00	 call	 ?FP_vSetImage@CILButton@@QAEXPAVCImageList@@HHHV?$CStringT@DV?$StrTraitMFC_DLL@DV?$ChTraitsCRT@D@ATL@@@@@ATL@@HHH@Z ; CILButton::FP_vSetImage

; 2098 : 
; 2099 : 	//
; 2100 : 	m_btnFind	.FP_vSetImage(m_pIL_W20H20, 76, 78, TRUE, "", FALSE);

  00066	6a ff		 push	 -1
  00068	6a ff		 push	 -1
  0006a	6a 00		 push	 0
  0006c	51		 push	 ecx
  0006d	8b cc		 mov	 ecx, esp
  0006f	68 00 00 00 00	 push	 OFFSET ??_C@_00CNPNBAHC@@
  00074	ff 15 00 00 00
	00		 call	 DWORD PTR __imp_??0?$CStringT@DV?$StrTraitMFC_DLL@DV?$ChTraitsCRT@D@ATL@@@@@ATL@@QAE@PBD@Z
  0007a	6a 01		 push	 1
  0007c	6a 4e		 push	 78			; 0000004eH
  0007e	6a 4c		 push	 76			; 0000004cH
  00080	ff b3 a8 00 00
	00		 push	 DWORD PTR [ebx+168]
  00086	8d 8b 88 06 00
	00		 lea	 ecx, DWORD PTR [ebx+1672]
  0008c	e8 00 00 00 00	 call	 ?FP_vSetImage@CILButton@@QAEXPAVCImageList@@HHHV?$CStringT@DV?$StrTraitMFC_DLL@DV?$ChTraitsCRT@D@ATL@@@@@ATL@@HHH@Z ; CILButton::FP_vSetImage

; 2101 : 
; 2102 : 	// 
; 2103 : 	m_btnExtend	.FP_vSetImage(m_pIL_W20H20, 48, 50, TRUE, "", FALSE);

  00091	6a ff		 push	 -1
  00093	6a ff		 push	 -1
  00095	6a 00		 push	 0
  00097	51		 push	 ecx
  00098	8b cc		 mov	 ecx, esp
  0009a	68 00 00 00 00	 push	 OFFSET ??_C@_00CNPNBAHC@@
  0009f	ff 15 00 00 00
	00		 call	 DWORD PTR __imp_??0?$CStringT@DV?$StrTraitMFC_DLL@DV?$ChTraitsCRT@D@ATL@@@@@ATL@@QAE@PBD@Z
  000a5	6a 01		 push	 1
  000a7	6a 32		 push	 50			; 00000032H
  000a9	6a 30		 push	 48			; 00000030H
  000ab	ff b3 a8 00 00
	00		 push	 DWORD PTR [ebx+168]
  000b1	8d 8b e8 07 00
	00		 lea	 ecx, DWORD PTR [ebx+2024]
  000b7	e8 00 00 00 00	 call	 ?FP_vSetImage@CILButton@@QAEXPAVCImageList@@HHHV?$CStringT@DV?$StrTraitMFC_DLL@DV?$ChTraitsCRT@D@ATL@@@@@ATL@@HHH@Z ; CILButton::FP_vSetImage
; File C:\Program Files (x86)\Microsoft Visual Studio\2019\Community\VC\Tools\MSVC\14.29.30133\atlmfc\include\afxwin2.inl

; 731  : 	{ ASSERT(::IsWindow(m_hWnd)); ::SendMessage(m_hWnd, LB_RESETCONTENT, 0, 0); }

  000bc	8b 3d 00 00 00
	00		 mov	 edi, DWORD PTR __imp__SendMessageA@16
  000c2	6a 00		 push	 0
  000c4	6a 00		 push	 0
  000c6	68 84 01 00 00	 push	 388			; 00000184H
  000cb	ff b3 68 09 00
	00		 push	 DWORD PTR [ebx+2408]
  000d1	ff d7		 call	 edi
; File D:\git\src\IBK\IBK_DRFN\ProjSrc\SrcDrfn\Chart\MULTICHART\TabIndices.cpp

; 187  : 	m_listFind.ShowWindow(FALSE);

  000d3	6a 00		 push	 0
  000d5	8d 8b 48 09 00
	00		 lea	 ecx, DWORD PTR [ebx+2376]
  000db	e8 00 00 00 00	 call	 ?ShowWindow@CWnd@@QAEHH@Z ; CWnd::ShowWindow
; File C:\Program Files (x86)\Microsoft Visual Studio\2019\Community\VC\Tools\MSVC\14.29.30133\atlmfc\include\afxcmn2.inl

; 117  : 	{ ASSERT(::IsWindow(m_hWnd)); return (DWORD) ::SendMessage(m_hWnd, LVM_SETEXTENDEDLISTVIEWSTYLE, 0, (LPARAM) dwNewStyle); }

  000e0	6a 20		 push	 32			; 00000020H
  000e2	6a 00		 push	 0
  000e4	68 36 10 00 00	 push	 4150			; 00001036H
  000e9	ff b3 f8 01 00
	00		 push	 DWORD PTR [ebx+504]
  000ef	ff d7		 call	 edi
  000f1	0f 57 c0	 xorps	 xmm0, xmm0
; File D:\git\src\IBK\IBK_DRFN\ProjSrc\SrcDrfn\Chart\MULTICHART\control\XListCtrl.h

; 174  : 		m_crHighLightText = m_crUsrHighLightText = crText;

  000f4	c7 83 80 03 00
	00 00 00 01 00	 mov	 DWORD PTR [ebx+896], 65536 ; 00010000H
  000fe	c7 83 70 03 00
	00 00 00 01 00	 mov	 DWORD PTR [ebx+880], 65536 ; 00010000H

; 175  : 		m_crHighLight = m_crUsrHighLight = crBackground;

  00108	c7 83 7c 03 00
	00 b4 c8 f0 00	 mov	 DWORD PTR [ebx+892], 15780020 ; 00f0c8b4H
  00112	c7 83 6c 03 00
	00 b4 c8 f0 00	 mov	 DWORD PTR [ebx+876], 15780020 ; 00f0c8b4H
; File D:\git\src\IBK\IBK_DRFN\ProjSrc\SrcDrfn\Chart\MULTICHART\TabIndices.cpp

; 279  : 	memset(&lvcolumn, 0, sizeof(lvcolumn));

  0011c	c7 45 e0 00 00
	00 00		 mov	 DWORD PTR _lvcolumn$[ebp+16], 0
  00123	66 0f 13 45 e8	 movlpd	 QWORD PTR _lvcolumn$[ebp+24], xmm0
  00128	66 0f 13 45 f0	 movlpd	 QWORD PTR _lvcolumn$[ebp+32], xmm0
  0012d	c7 45 f8 00 00
	00 00		 mov	 DWORD PTR _lvcolumn$[ebp+40], 0

; 280  : 	lvcolumn.mask = LVCF_FMT | LVCF_SUBITEM | LVCF_TEXT | LVCF_WIDTH;

  00134	c7 45 d0 0f 00
	00 00		 mov	 DWORD PTR _lvcolumn$[ebp], 15 ; 0000000fH
; File C:\Program Files (x86)\Microsoft Visual Studio\2019\Community\VC\Tools\MSVC\14.29.30133\atlmfc\include\afxcmn.inl

; 209  : 	{ ASSERT(::IsWindow(m_hWnd)); return (int) ::SendMessage(m_hWnd, LVM_INSERTCOLUMN, nCol, (LPARAM)pColumn); }

  0013b	8d 45 d0	 lea	 eax, DWORD PTR _lvcolumn$[ebp]
; File D:\git\src\IBK\IBK_DRFN\ProjSrc\SrcDrfn\Chart\MULTICHART\TabIndices.cpp

; 281  : 	lvcolumn.fmt = LVCFMT_LEFT;

  0013e	c7 45 d4 00 00
	00 00		 mov	 DWORD PTR _lvcolumn$[ebp+4], 0
; File C:\Program Files (x86)\Microsoft Visual Studio\2019\Community\VC\Tools\MSVC\14.29.30133\atlmfc\include\afxcmn.inl

; 209  : 	{ ASSERT(::IsWindow(m_hWnd)); return (int) ::SendMessage(m_hWnd, LVM_INSERTCOLUMN, nCol, (LPARAM)pColumn); }

  00145	50		 push	 eax
  00146	6a 00		 push	 0
  00148	68 1b 10 00 00	 push	 4123			; 0000101bH
  0014d	ff b3 f8 01 00
	00		 push	 DWORD PTR [ebx+504]
; File D:\git\src\IBK\IBK_DRFN\ProjSrc\SrcDrfn\Chart\MULTICHART\TabIndices.cpp

; 282  : 	lvcolumn.pszText = "Name";

  00153	c7 45 dc 00 00
	00 00		 mov	 DWORD PTR _lvcolumn$[ebp+12], OFFSET ??_C@_04FABLJDN@Name@

; 283  : 	lvcolumn.iSubItem = 0;

  0015a	c7 45 e4 00 00
	00 00		 mov	 DWORD PTR _lvcolumn$[ebp+20], 0

; 284  : 	lvcolumn.cx = rect.Width();

  00161	c7 45 d8 00 00
	00 00		 mov	 DWORD PTR _lvcolumn$[ebp+8], 0
; File C:\Program Files (x86)\Microsoft Visual Studio\2019\Community\VC\Tools\MSVC\14.29.30133\atlmfc\include\afxcmn.inl

; 209  : 	{ ASSERT(::IsWindow(m_hWnd)); return (int) ::SendMessage(m_hWnd, LVM_INSERTCOLUMN, nCol, (LPARAM)pColumn); }

  00168	ff d7		 call	 edi

; 547  : 	{ ASSERT(::IsWindow(m_hWnd)); return (BOOL)::SendMessage(m_hWnd, HDM_GETITEM, nPos, (LPARAM)pHeaderItem); }

  0016a	8d 45 a0	 lea	 eax, DWORD PTR _hditem$[ebp]
; File D:\git\src\IBK\IBK_DRFN\ProjSrc\SrcDrfn\Chart\MULTICHART\TabIndices.cpp

; 287  : 	hditem.mask = HDI_IMAGE | HDI_FORMAT;

  0016d	c7 45 a0 24 00
	00 00		 mov	 DWORD PTR _hditem$[ebp], 36 ; 00000024H
; File C:\Program Files (x86)\Microsoft Visual Studio\2019\Community\VC\Tools\MSVC\14.29.30133\atlmfc\include\afxcmn.inl

; 547  : 	{ ASSERT(::IsWindow(m_hWnd)); return (BOOL)::SendMessage(m_hWnd, HDM_GETITEM, nPos, (LPARAM)pHeaderItem); }

  00174	50		 push	 eax
  00175	6a 00		 push	 0
  00177	68 03 12 00 00	 push	 4611			; 00001203H
  0017c	ff b3 90 02 00
	00		 push	 DWORD PTR [ebx+656]
  00182	ff d7		 call	 edi
; File D:\git\src\IBK\IBK_DRFN\ProjSrc\SrcDrfn\Chart\MULTICHART\TabIndices.cpp

; 289  : 	hditem.fmt |=  HDF_IMAGE;

  00184	81 4d b4 00 08
	00 00		 or	 DWORD PTR _hditem$[ebp+20], 2048 ; 00000800H
; File C:\Program Files (x86)\Microsoft Visual Studio\2019\Community\VC\Tools\MSVC\14.29.30133\atlmfc\include\afxcmn.inl

; 549  : 	{ ASSERT(::IsWindow(m_hWnd)); return (BOOL)::SendMessage(m_hWnd, HDM_SETITEM, nPos, (LPARAM)pHeaderItem); }

  0018b	8d 45 a0	 lea	 eax, DWORD PTR _hditem$[ebp]
  0018e	50		 push	 eax
  0018f	6a 00		 push	 0
  00191	68 04 12 00 00	 push	 4612			; 00001204H
  00196	ff b3 90 02 00
	00		 push	 DWORD PTR [ebx+656]
; File D:\git\src\IBK\IBK_DRFN\ProjSrc\SrcDrfn\Chart\MULTICHART\TabIndices.cpp

; 290  : 	hditem.iImage = XHEADERCTRL_NO_IMAGE;

  0019c	c7 45 bc 00 00
	00 00		 mov	 DWORD PTR _hditem$[ebp+28], 0
; File C:\Program Files (x86)\Microsoft Visual Studio\2019\Community\VC\Tools\MSVC\14.29.30133\atlmfc\include\afxcmn.inl

; 549  : 	{ ASSERT(::IsWindow(m_hWnd)); return (BOOL)::SendMessage(m_hWnd, HDM_SETITEM, nPos, (LPARAM)pHeaderItem); }

  001a3	ff d7		 call	 edi

; 207  : 	{ ASSERT(::IsWindow(m_hWnd)); return (BOOL) ::SendMessage(m_hWnd, LVM_SETCOLUMN, nCol, (LPARAM)pColumn); }

  001a5	8d 45 d0	 lea	 eax, DWORD PTR _lvcolumn$[ebp]
; File D:\git\src\IBK\IBK_DRFN\ProjSrc\SrcDrfn\Chart\MULTICHART\TabIndices.cpp

; 292  : 	memset(&lvcolumn, 0, sizeof(lvcolumn));

  001a8	c7 45 e0 00 00
	00 00		 mov	 DWORD PTR _lvcolumn$[ebp+16], 0
; File C:\Program Files (x86)\Microsoft Visual Studio\2019\Community\VC\Tools\MSVC\14.29.30133\atlmfc\include\afxcmn.inl

; 207  : 	{ ASSERT(::IsWindow(m_hWnd)); return (BOOL) ::SendMessage(m_hWnd, LVM_SETCOLUMN, nCol, (LPARAM)pColumn); }

  001af	50		 push	 eax
  001b0	6a 00		 push	 0
  001b2	0f 57 c0	 xorps	 xmm0, xmm0
; File D:\git\src\IBK\IBK_DRFN\ProjSrc\SrcDrfn\Chart\MULTICHART\TabIndices.cpp

; 292  : 	memset(&lvcolumn, 0, sizeof(lvcolumn));

  001b5	c7 45 f8 00 00
	00 00		 mov	 DWORD PTR _lvcolumn$[ebp+40], 0
; File C:\Program Files (x86)\Microsoft Visual Studio\2019\Community\VC\Tools\MSVC\14.29.30133\atlmfc\include\afxcmn.inl

; 207  : 	{ ASSERT(::IsWindow(m_hWnd)); return (BOOL) ::SendMessage(m_hWnd, LVM_SETCOLUMN, nCol, (LPARAM)pColumn); }

  001bc	68 1a 10 00 00	 push	 4122			; 0000101aH
  001c1	ff b3 f8 01 00
	00		 push	 DWORD PTR [ebx+504]
; File D:\git\src\IBK\IBK_DRFN\ProjSrc\SrcDrfn\Chart\MULTICHART\TabIndices.cpp

; 292  : 	memset(&lvcolumn, 0, sizeof(lvcolumn));

  001c7	66 0f 13 45 d8	 movlpd	 QWORD PTR _lvcolumn$[ebp+8], xmm0
  001cc	66 0f 13 45 e8	 movlpd	 QWORD PTR _lvcolumn$[ebp+24], xmm0
  001d1	66 0f 13 45 f0	 movlpd	 QWORD PTR _lvcolumn$[ebp+32], xmm0

; 293  : 	lvcolumn.mask = LVCF_FMT | LVCF_SUBITEM;

  001d6	c7 45 d0 09 00
	00 00		 mov	 DWORD PTR _lvcolumn$[ebp], 9

; 294  : 	lvcolumn.fmt = LVCFMT_LEFT;

  001dd	c7 45 d4 00 00
	00 00		 mov	 DWORD PTR _lvcolumn$[ebp+4], 0

; 295  : 	lvcolumn.iSubItem = 0;

  001e4	c7 45 e4 00 00
	00 00		 mov	 DWORD PTR _lvcolumn$[ebp+20], 0
; File C:\Program Files (x86)\Microsoft Visual Studio\2019\Community\VC\Tools\MSVC\14.29.30133\atlmfc\include\afxcmn.inl

; 207  : 	{ ASSERT(::IsWindow(m_hWnd)); return (BOOL) ::SendMessage(m_hWnd, LVM_SETCOLUMN, nCol, (LPARAM)pColumn); }

  001eb	ff d7		 call	 edi
; File D:\git\src\IBK\IBK_DRFN\ProjSrc\SrcDrfn\Chart\MULTICHART\TabIndices.cpp

; 317  :     m_ySplitterY1.BindWithControl(this, IDC_SPLITTERY1);

  001ed	68 7e 17 00 00	 push	 6014			; 0000177eH
  001f2	53		 push	 ebx
  001f3	8d 8b 10 01 00
	00		 lea	 ecx, DWORD PTR [ebx+272]
  001f9	e8 00 00 00 00	 call	 ?BindWithControl@CySplitterWnd@@QAE_NPAVCWnd@@K@Z ; CySplitterWnd::BindWithControl

; 318  :     m_ySplitterY1.SetMinHeight(30, 50);

  001fe	6a 32		 push	 50			; 00000032H
  00200	6a 1e		 push	 30			; 0000001eH
  00202	8d 8b 10 01 00
	00		 lea	 ecx, DWORD PTR [ebx+272]
  00208	e8 00 00 00 00	 call	 ?SetMinHeight@CySplitterWnd@@QAEXHH@Z ; CySplitterWnd::SetMinHeight

; 319  :     m_ySplitterY1.AttachAsAboveCtrl(IDC_TREEITEMS);

  0020d	6a 01		 push	 1
  0020f	68 86 17 00 00	 push	 6022			; 00001786H
  00214	8d 8b 10 01 00
	00		 lea	 ecx, DWORD PTR [ebx+272]
  0021a	e8 00 00 00 00	 call	 ?AttachAsAboveCtrl@CySplitterWnd@@QAE_NH_N@Z ; CySplitterWnd::AttachAsAboveCtrl

; 320  :     m_ySplitterY1.AttachAsBelowCtrl(IDC_LISTITEMS);

  0021f	6a 01		 push	 1
  00221	68 7c 17 00 00	 push	 6012			; 0000177cH
  00226	8d 8b 10 01 00
	00		 lea	 ecx, DWORD PTR [ebx+272]
  0022c	e8 00 00 00 00	 call	 ?AttachAsBelowCtrl@CySplitterWnd@@QAE_NH_N@Z ; CySplitterWnd::AttachAsBelowCtrl

; 321  : 	//m_ySplitterY1.AttachAsBelowCtrl(IDC_TREEITEMS);
; 322  :     m_ySplitterY1.RecalcLayout();

  00231	8d 8b 10 01 00
	00		 lea	 ecx, DWORD PTR [ebx+272]
  00237	e8 00 00 00 00	 call	 ?RecalcLayout@CySplitterWnd@@QAEXXZ ; CySplitterWnd::RecalcLayout
; File C:\Program Files (x86)\Microsoft Visual Studio\2019\Community\VC\Tools\MSVC\14.29.30133\atlmfc\include\afxwin2.inl

; 630  : 	{ ASSERT(::IsWindow(m_hWnd)); ::SendMessage(m_hWnd, BM_SETCHECK, nCheck, 0); }

  0023c	6a 00		 push	 0
  0023e	6a 01		 push	 1
  00240	68 f1 00 00 00	 push	 241			; 000000f1H
  00245	ff b3 68 0a 00
	00		 push	 DWORD PTR [ebx+2664]
  0024b	ff d7		 call	 edi
  0024d	6a 00		 push	 0
  0024f	6a 00		 push	 0
  00251	68 f1 00 00 00	 push	 241			; 000000f1H
  00256	ff b3 e8 09 00
	00		 push	 DWORD PTR [ebx+2536]
  0025c	ff d7		 call	 edi

; 795  : 	{ ASSERT(::IsWindow(m_hWnd)); return (int)::SendMessage(m_hWnd, CB_ADDSTRING, 0, (LPARAM)lpszString); }

  0025e	68 00 00 00 00	 push	 OFFSET ??_C@_03JONJGAHB@3?C?J@
  00263	6a 00		 push	 0
  00265	68 43 01 00 00	 push	 323			; 00000143H
  0026a	ff b3 08 0f 00
	00		 push	 DWORD PTR [ebx+3848]
  00270	ff d7		 call	 edi
  00272	68 00 00 00 00	 push	 OFFSET ??_C@_03LLLCDPKN@5?C?J@
  00277	6a 00		 push	 0
  00279	68 43 01 00 00	 push	 323			; 00000143H
  0027e	ff b3 08 0f 00
	00		 push	 DWORD PTR [ebx+3848]
  00284	ff d7		 call	 edi
  00286	68 00 00 00 00	 push	 OFFSET ??_C@_04MAJFIGJK@15?C?J@
  0028b	6a 00		 push	 0
  0028d	68 43 01 00 00	 push	 323			; 00000143H
  00292	ff b3 08 0f 00
	00		 push	 DWORD PTR [ebx+3848]
  00298	ff d7		 call	 edi

; 767  : 	{ ASSERT(::IsWindow(m_hWnd)); return (int)::SendMessage(m_hWnd, CB_SETCURSEL, nSelect, 0); }

  0029a	6a 00		 push	 0
  0029c	6a 00		 push	 0
  0029e	68 4e 01 00 00	 push	 334			; 0000014eH
  002a3	ff b3 08 0f 00
	00		 push	 DWORD PTR [ebx+3848]
  002a9	ff d7		 call	 edi
; File D:\git\src\IBK\IBK_DRFN\ProjSrc\SrcDrfn\Chart\MULTICHART\TabIndices.cpp

; 340  : 	SetItemForm(); //  

  002ab	8b cb		 mov	 ecx, ebx
  002ad	e8 00 00 00 00	 call	 ?SetItemForm@CTabIndices@@AAEXXZ ; CTabIndices::SetItemForm

; 341  : 
; 342  : 	m_stTitle.SetStaticColor(m_crBk, m_crBk, CLR_FONT_DEFAULT);

  002b2	8b 83 d0 00 00
	00		 mov	 eax, DWORD PTR [ebx+208]
  002b8	8d 8b 80 05 00
	00		 lea	 ecx, DWORD PTR [ebx+1408]
  002be	68 00 00 01 00	 push	 65536			; 00010000H
  002c3	50		 push	 eax
  002c4	50		 push	 eax
  002c5	e8 00 00 00 00	 call	 ?SetStaticColor@CExStatic@@QAEHKKK@Z ; CExStatic::SetStaticColor

; 343  : 	return TRUE;  // return TRUE unless you set the focus to a control
; 344  : 	              // EXCEPTION: OCX Property Pages should return FALSE
; 345  : }

  002ca	5f		 pop	 edi
  002cb	5e		 pop	 esi
  002cc	b8 01 00 00 00	 mov	 eax, 1
  002d1	5b		 pop	 ebx
  002d2	8b e5		 mov	 esp, ebp
  002d4	5d		 pop	 ebp
  002d5	c3		 ret	 0
?OnInitDialog@CTabIndices@@MAEHXZ ENDP			; CTabIndices::OnInitDialog
_TEXT	ENDS
; Function compile flags: /Ogtp
; File D:\git\src\IBK\IBK_DRFN\ProjSrc\SrcDrfn\Chart\MULTICHART\TabIndices.cpp
; File C:\Program Files (x86)\Microsoft Visual Studio\2019\Community\VC\Tools\MSVC\14.29.30133\atlmfc\include\afxwin2.inl
; File D:\git\src\IBK\IBK_DRFN\ProjSrc\SrcDrfn\Chart\MULTICHART\TabIndices.cpp
;	COMDAT ?OnSize@CTabIndices@@IAEXIHH@Z
_TEXT	SEGMENT
_nType$ = 8						; size = 4
_cx$ = 12						; size = 4
_cy$ = 16						; size = 4
?OnSize@CTabIndices@@IAEXIHH@Z PROC			; CTabIndices::OnSize, COMDAT
; _this$ = ecx

; 166  : {

  00000	56		 push	 esi
  00001	8b f1		 mov	 esi, ecx
; File C:\Program Files (x86)\Microsoft Visual Studio\2019\Community\VC\Tools\MSVC\14.29.30133\atlmfc\include\afxwin2.inl

; 330  : 	{ Default(); }

  00003	e8 00 00 00 00	 call	 ?Default@CWnd@@IAEJXZ	; CWnd::Default

; 39   : 	{ ASSERT(::IsWindow(m_hWnd)); return ::PostMessage(m_hWnd, message, wParam, lParam); }

  00008	6a 00		 push	 0
  0000a	6a 00		 push	 0
  0000c	ff 35 00 00 00
	00		 push	 DWORD PTR ?RMSG_WMSIZE@@3IB
  00012	ff 76 20	 push	 DWORD PTR [esi+32]
  00015	ff 15 00 00 00
	00		 call	 DWORD PTR __imp__PostMessageA@16
  0001b	5e		 pop	 esi
; File D:\git\src\IBK\IBK_DRFN\ProjSrc\SrcDrfn\Chart\MULTICHART\TabIndices.cpp

; 171  : }

  0001c	c2 0c 00	 ret	 12			; 0000000cH
?OnSize@CTabIndices@@IAEXIHH@Z ENDP			; CTabIndices::OnSize
_TEXT	ENDS
; Function compile flags: /Ogtp
; File D:\git\src\IBK\IBK_DRFN\ProjSrc\SrcDrfn\Chart\MULTICHART\TabIndices.cpp
; File C:\Program Files (x86)\Microsoft Visual Studio\2019\Community\VC\Tools\MSVC\14.29.30133\atlmfc\include\afxtempl.h
; File D:\git\src\IBK\IBK_DRFN\ProjSrc\SrcDrfn\Chart\MULTICHART\TabIndices.cpp
; File C:\Program Files (x86)\Microsoft Visual Studio\2019\Community\VC\Tools\MSVC\14.29.30133\atlmfc\include\afxcmn.inl
; File D:\git\src\IBK\IBK_DRFN\ProjSrc\SrcDrfn\Chart\MULTICHART\TabIndices.cpp
; File C:\Program Files (x86)\Microsoft Visual Studio\2019\Community\VC\Tools\MSVC\14.29.30133\atlmfc\include\afxwin2.inl
; File D:\git\src\IBK\IBK_DRFN\ProjSrc\SrcDrfn\Chart\MULTICHART\TabIndices.cpp
; File C:\Program Files (x86)\Microsoft Visual Studio\2019\Community\VC\Tools\MSVC\14.29.30133\atlmfc\include\afxcmn.inl
; File D:\git\src\IBK\IBK_DRFN\ProjSrc\SrcDrfn\Chart\MULTICHART\TabIndices.cpp
;	COMDAT ?RefreshIndex@CTabIndices@@AAEXXZ
_TEXT	SEGMENT
_strIndicator$2 = -20					; size = 4
_bExistance$1$ = -16					; size = 4
__$EHRec$ = -12						; size = 12
?RefreshIndex@CTabIndices@@AAEXXZ PROC			; CTabIndices::RefreshIndex, COMDAT
; _this$ = ecx

; 2124 : {

  00000	55		 push	 ebp
  00001	8b ec		 mov	 ebp, esp
  00003	6a ff		 push	 -1
  00005	68 00 00 00 00	 push	 __ehhandler$?RefreshIndex@CTabIndices@@AAEXXZ
  0000a	64 a1 00 00 00
	00		 mov	 eax, DWORD PTR fs:0
  00010	50		 push	 eax
  00011	83 ec 08	 sub	 esp, 8
  00014	53		 push	 ebx
  00015	56		 push	 esi
  00016	57		 push	 edi
  00017	a1 00 00 00 00	 mov	 eax, DWORD PTR ___security_cookie
  0001c	33 c5		 xor	 eax, ebp
  0001e	50		 push	 eax
  0001f	8d 45 f4	 lea	 eax, DWORD PTR __$EHRec$[ebp]
  00022	64 a3 00 00 00
	00		 mov	 DWORD PTR fs:0, eax
  00028	8b d9		 mov	 ebx, ecx

; 2125 : 	POSITION pos = m_ListTree.FindIndex(m_nIndexSelected);

  0002a	8b 83 8c 17 00
	00		 mov	 eax, DWORD PTR [ebx+6028]
; File C:\Program Files (x86)\Microsoft Visual Studio\2019\Community\VC\Tools\MSVC\14.29.30133\atlmfc\include\afxtempl.h

; 1133 : 	if (nIndex >= m_nCount || nIndex < 0)

  00030	3b 83 6c 05 00
	00		 cmp	 eax, DWORD PTR [ebx+1388]
  00036	7d 15		 jge	 SHORT $LN14@RefreshInd
  00038	85 c0		 test	 eax, eax
  0003a	78 11		 js	 SHORT $LN14@RefreshInd

; 1135 : 
; 1136 : 	CNode* pNode = m_pNodeHead;

  0003c	8b 93 64 05 00
	00		 mov	 edx, DWORD PTR [ebx+1380]

; 1137 : 	while (nIndex--)

  00042	74 0b		 je	 SHORT $LN10@RefreshInd
$LL11@RefreshInd:

; 1138 : 	{
; 1139 : 		ASSERT(AfxIsValidAddress(pNode, sizeof(CNode)));
; 1140 : 		pNode = pNode->pNext;

  00044	8b 12		 mov	 edx, DWORD PTR [edx]
  00046	83 e8 01	 sub	 eax, 1
  00049	75 f9		 jne	 SHORT $LL11@RefreshInd

; 1141 : 	}
; 1142 : 	return (POSITION) pNode;

  0004b	eb 02		 jmp	 SHORT $LN10@RefreshInd
$LN14@RefreshInd:

; 1134 : 		return NULL;  // went too far

  0004d	33 d2		 xor	 edx, edx
$LN10@RefreshInd:
; File D:\git\src\IBK\IBK_DRFN\ProjSrc\SrcDrfn\Chart\MULTICHART\TabIndices.cpp

; 2126 : 	CTreeCtrl* pTreeCtrl  = m_ListTree.GetAt(pos);

  0004f	8b 7a 08	 mov	 edi, DWORD PTR [edx+8]

; 2127 : 	HTREEITEM hmyItem = NULL;
; 2128 : 
; 2129 : 	BOOL bExistance = FALSE;
; 2130 : 	// Show all of the children of hmyItem in bold.
; 2131 : 	if (pTreeCtrl->ItemHasChildren(hmyItem))

  00052	8b cf		 mov	 ecx, edi
  00054	6a 00		 push	 0
  00056	c7 45 f0 00 00
	00 00		 mov	 DWORD PTR _bExistance$1$[ebp], 0
  0005d	e8 00 00 00 00	 call	 ?ItemHasChildren@CTreeCtrl@@QBEHPAU_TREEITEM@@@Z ; CTreeCtrl::ItemHasChildren
  00062	85 c0		 test	 eax, eax
  00064	0f 84 a3 00 00
	00		 je	 $LN3@RefreshInd
; File C:\Program Files (x86)\Microsoft Visual Studio\2019\Community\VC\Tools\MSVC\14.29.30133\atlmfc\include\afxcmn.inl

; 300  : 	{ ASSERT(::IsWindow(m_hWnd)); return (HTREEITEM)::SendMessage(m_hWnd, TVM_GETNEXTITEM, TVGN_CHILD, (LPARAM)hItem); }

  0006a	6a 00		 push	 0
  0006c	6a 04		 push	 4
  0006e	68 0a 11 00 00	 push	 4362			; 0000110aH
  00073	ff 77 20	 push	 DWORD PTR [edi+32]
  00076	ff 15 00 00 00
	00		 call	 DWORD PTR __imp__SendMessageA@16
; File D:\git\src\IBK\IBK_DRFN\ProjSrc\SrcDrfn\Chart\MULTICHART\TabIndices.cpp

; 2133 : 		HTREEITEM hItem = pTreeCtrl->GetChildItem(hmyItem);

  0007c	8b f0		 mov	 esi, eax

; 2134 : 
; 2135 : 		while (hItem != NULL)

  0007e	85 f6		 test	 esi, esi
  00080	0f 84 87 00 00
	00		 je	 $LN3@RefreshInd
$LL2@RefreshInd:

; 2136 : 		{
; 2137 : 			CString strIndicator = pTreeCtrl->GetItemText(hItem);

  00086	56		 push	 esi
  00087	8d 45 ec	 lea	 eax, DWORD PTR _strIndicator$2[ebp]
  0008a	8b cf		 mov	 ecx, edi
  0008c	50		 push	 eax
  0008d	e8 00 00 00 00	 call	 ?GetItemText@CTreeCtrl@@QBE?AV?$CStringT@DV?$StrTraitMFC_DLL@DV?$ChTraitsCRT@D@ATL@@@@@ATL@@PAU_TREEITEM@@@Z ; CTreeCtrl::GetItemText

; 2138 : 			if(m_pChartMng)

  00092	8b 83 c4 00 00
	00		 mov	 eax, DWORD PTR [ebx+196]
  00098	c7 45 fc 00 00
	00 00		 mov	 DWORD PTR __$EHRec$[ebp+8], 0
  0009f	85 c0		 test	 eax, eax
  000a1	74 18		 je	 SHORT $LN37@RefreshInd
; File C:\Program Files (x86)\Microsoft Visual Studio\2019\Community\VC\Tools\MSVC\14.29.30133\atlmfc\include\afxwin2.inl

; 32   : 	{ ASSERT(::IsWindow(m_hWnd)); return ::SendMessage(m_hWnd, message, wParam, lParam); }

  000a3	6a 00		 push	 0
  000a5	ff 75 ec	 push	 DWORD PTR _strIndicator$2[ebp]
  000a8	68 10 04 00 00	 push	 1040			; 00000410H
  000ad	ff 70 20	 push	 DWORD PTR [eax+32]
  000b0	ff 15 00 00 00
	00		 call	 DWORD PTR __imp__SendMessageA@16
; File D:\git\src\IBK\IBK_DRFN\ProjSrc\SrcDrfn\Chart\MULTICHART\TabIndices.cpp

; 2139 : 				bExistance = m_pChartMng->SendMessage(UMSG_HASGRAPH,(WPARAM)(LPCTSTR)strIndicator);

  000b6	89 45 f0	 mov	 DWORD PTR _bExistance$1$[ebp], eax
  000b9	eb 03		 jmp	 SHORT $LN5@RefreshInd
$LN37@RefreshInd:

; 2138 : 			if(m_pChartMng)

  000bb	8b 45 f0	 mov	 eax, DWORD PTR _bExistance$1$[ebp]
$LN5@RefreshInd:
; File C:\Program Files (x86)\Microsoft Visual Studio\2019\Community\VC\Tools\MSVC\14.29.30133\atlmfc\include\afxcmn.inl

; 302  : 	{ ASSERT(::IsWindow(m_hWnd)); return (HTREEITEM)::SendMessage(m_hWnd, TVM_GETNEXTITEM, TVGN_NEXT, (LPARAM)hItem); }

  000be	6a 00		 push	 0
  000c0	6a 10		 push	 16			; 00000010H
  000c2	85 c0		 test	 eax, eax
  000c4	b9 10 00 00 00	 mov	 ecx, 16			; 00000010H
  000c9	b8 ef ff ff ff	 mov	 eax, -17		; ffffffefH
  000ce	0f 44 c8	 cmove	 ecx, eax
  000d1	51		 push	 ecx
  000d2	6a 00		 push	 0
  000d4	6a 00		 push	 0
  000d6	6a 00		 push	 0
  000d8	6a 08		 push	 8
  000da	56		 push	 esi
  000db	8b cf		 mov	 ecx, edi
  000dd	e8 00 00 00 00	 call	 ?SetItem@CTreeCtrl@@QAEHPAU_TREEITEM@@IPBDHHIIJ@Z ; CTreeCtrl::SetItem
  000e2	56		 push	 esi
  000e3	6a 01		 push	 1
  000e5	68 0a 11 00 00	 push	 4362			; 0000110aH
  000ea	ff 77 20	 push	 DWORD PTR [edi+32]
  000ed	ff 15 00 00 00
	00		 call	 DWORD PTR __imp__SendMessageA@16
; File D:\git\src\IBK\IBK_DRFN\ProjSrc\SrcDrfn\Chart\MULTICHART\TabIndices.cpp

; 2145 : 		}

  000f3	8d 4d ec	 lea	 ecx, DWORD PTR _strIndicator$2[ebp]
  000f6	c7 45 fc ff ff
	ff ff		 mov	 DWORD PTR __$EHRec$[ebp+8], -1
  000fd	8b f0		 mov	 esi, eax
  000ff	ff 15 00 00 00
	00		 call	 DWORD PTR __imp_??1?$CStringT@DV?$StrTraitMFC_DLL@DV?$ChTraitsCRT@D@ATL@@@@@ATL@@QAE@XZ
  00105	85 f6		 test	 esi, esi
  00107	0f 85 79 ff ff
	ff		 jne	 $LL2@RefreshInd
$LN3@RefreshInd:

; 2146 : 	}
; 2147 : }

  0010d	8b 4d f4	 mov	 ecx, DWORD PTR __$EHRec$[ebp]
  00110	64 89 0d 00 00
	00 00		 mov	 DWORD PTR fs:0, ecx
  00117	59		 pop	 ecx
  00118	5f		 pop	 edi
  00119	5e		 pop	 esi
  0011a	5b		 pop	 ebx
  0011b	8b e5		 mov	 esp, ebp
  0011d	5d		 pop	 ebp
  0011e	c3		 ret	 0
_TEXT	ENDS
;	COMDAT text$x
text$x	SEGMENT
__unwindfunclet$?RefreshIndex@CTabIndices@@AAEXXZ$0:
  00000	8d 4d ec	 lea	 ecx, DWORD PTR _strIndicator$2[ebp]
  00003	ff 25 00 00 00
	00		 jmp	 DWORD PTR __imp_??1?$CStringT@DV?$StrTraitMFC_DLL@DV?$ChTraitsCRT@D@ATL@@@@@ATL@@QAE@XZ
  00009	cc		 int	 3
  0000a	cc		 int	 3
  0000b	cc		 int	 3
  0000c	cc		 int	 3
  0000d	cc		 int	 3
__ehhandler$?RefreshIndex@CTabIndices@@AAEXXZ:
  0000e	90		 npad	 1
  0000f	90		 npad	 1
  00010	8b 54 24 08	 mov	 edx, DWORD PTR [esp+8]
  00014	8d 42 0c	 lea	 eax, DWORD PTR [edx+12]
  00017	8b 4a e8	 mov	 ecx, DWORD PTR [edx-24]
  0001a	33 c8		 xor	 ecx, eax
  0001c	e8 00 00 00 00	 call	 @__security_check_cookie@4
  00021	b8 00 00 00 00	 mov	 eax, OFFSET __ehfuncinfo$?RefreshIndex@CTabIndices@@AAEXXZ
  00026	e9 00 00 00 00	 jmp	 ___CxxFrameHandler3
text$x	ENDS
?RefreshIndex@CTabIndices@@AAEXXZ ENDP			; CTabIndices::RefreshIndex
; Function compile flags: /Ogtp
; File D:\git\src\IBK\IBK_DRFN\ProjSrc\SrcDrfn\Chart\MULTICHART\TabIndices.cpp
; File C:\Program Files (x86)\Microsoft Visual Studio\2019\Community\VC\Tools\MSVC\14.29.30133\atlmfc\include\afxtempl.h
; File D:\git\src\IBK\IBK_DRFN\ProjSrc\SrcDrfn\Chart\MULTICHART\TabIndices.cpp
; File C:\Program Files (x86)\Microsoft Visual Studio\2019\Community\VC\Tools\MSVC\14.29.30133\atlmfc\include\afxtempl.h
; File D:\git\src\IBK\IBK_DRFN\ProjSrc\SrcDrfn\Chart\MULTICHART\TabIndices.cpp
;	COMDAT ?RemoveAllTree@CTabIndices@@AAEXXZ
_TEXT	SEGMENT
?RemoveAllTree@CTabIndices@@AAEXXZ PROC			; CTabIndices::RemoveAllTree, COMDAT
; _this$ = ecx

; 2107 : {

  00000	53		 push	 ebx
  00001	8b d9		 mov	 ebx, ecx
  00003	56		 push	 esi

; 2108 : 	CTrTreeCtrl* pTree = NULL;
; 2109 : 	POSITION pos = m_ListTree.GetHeadPosition();

  00004	8b b3 64 05 00
	00		 mov	 esi, DWORD PTR [ebx+1380]

; 2110 : 	for (;pos;)

  0000a	85 f6		 test	 esi, esi
  0000c	74 20		 je	 SHORT $LN13@RemoveAllT
  0000e	57		 push	 edi
  0000f	90		 npad	 1
$LL2@RemoveAllT:

; 2111 : 	{
; 2112 : 		pTree = m_ListTree.GetNext(pos);

  00010	8b 7e 08	 mov	 edi, DWORD PTR [esi+8]
; File C:\Program Files (x86)\Microsoft Visual Studio\2019\Community\VC\Tools\MSVC\14.29.30133\atlmfc\include\afxtempl.h

; 813  : 		rPosition = (POSITION) pNode->pNext;

  00013	8b 36		 mov	 esi, DWORD PTR [esi]
; File D:\git\src\IBK\IBK_DRFN\ProjSrc\SrcDrfn\Chart\MULTICHART\TabIndices.cpp

; 2113 : 		if (pTree)

  00015	85 ff		 test	 edi, edi
  00017	74 10		 je	 SHORT $LN7@RemoveAllT

; 2114 : 		{
; 2115 : 			pTree->DestroyWindow();

  00019	8b 07		 mov	 eax, DWORD PTR [edi]
  0001b	8b cf		 mov	 ecx, edi
  0001d	ff 50 68	 call	 DWORD PTR [eax+104]

; 2116 : 			delete pTree;

  00020	8b 07		 mov	 eax, DWORD PTR [edi]
  00022	8b cf		 mov	 ecx, edi
  00024	6a 01		 push	 1
  00026	ff 50 04	 call	 DWORD PTR [eax+4]
$LN7@RemoveAllT:

; 2110 : 	for (;pos;)

  00029	85 f6		 test	 esi, esi
  0002b	75 e3		 jne	 SHORT $LL2@RemoveAllT
  0002d	5f		 pop	 edi
$LN13@RemoveAllT:
; File C:\Program Files (x86)\Microsoft Visual Studio\2019\Community\VC\Tools\MSVC\14.29.30133\atlmfc\include\afxtempl.h

; 872  : 	m_pBlocks->FreeDataChain();

  0002e	8b 8b 74 05 00
	00		 mov	 ecx, DWORD PTR [ebx+1396]
  00034	c7 83 6c 05 00
	00 00 00 00 00	 mov	 DWORD PTR [ebx+1388], 0
  0003e	c7 83 70 05 00
	00 00 00 00 00	 mov	 DWORD PTR [ebx+1392], 0
  00048	c7 83 68 05 00
	00 00 00 00 00	 mov	 DWORD PTR [ebx+1384], 0
  00052	c7 83 64 05 00
	00 00 00 00 00	 mov	 DWORD PTR [ebx+1380], 0
  0005c	e8 00 00 00 00	 call	 ?FreeDataChain@CPlex@@QAEXXZ ; CPlex::FreeDataChain

; 873  : 	m_pBlocks = NULL;

  00061	5e		 pop	 esi
  00062	c7 83 74 05 00
	00 00 00 00 00	 mov	 DWORD PTR [ebx+1396], 0
  0006c	5b		 pop	 ebx
; File D:\git\src\IBK\IBK_DRFN\ProjSrc\SrcDrfn\Chart\MULTICHART\TabIndices.cpp

; 2121 : }

  0006d	c3		 ret	 0
?RemoveAllTree@CTabIndices@@AAEXXZ ENDP			; CTabIndices::RemoveAllTree
_TEXT	ENDS
; Function compile flags: /Ogtp
; File D:\git\src\IBK\IBK_DRFN\ProjSrc\SrcDrfn\Chart\MULTICHART\TabIndices.cpp
;	COMDAT ?OnWmSplitterMoved@CTabIndices@@AAEJIJ@Z
_TEXT	SEGMENT
_wParam$ = 8						; size = 4
_lParam$ = 12						; size = 4
?OnWmSplitterMoved@CTabIndices@@AAEJIJ@Z PROC		; CTabIndices::OnWmSplitterMoved, COMDAT
; _this$ = ecx

; 563  : {

  00000	55		 push	 ebp
  00001	8b ec		 mov	 ebp, esp

; 564  : 	if(IDC_SPLITTERY1==lParam)

  00003	81 7d 0c 7e 17
	00 00		 cmp	 DWORD PTR _lParam$[ebp], 6014 ; 0000177eH
  0000a	75 0e		 jne	 SHORT $LN4@OnWmSplitt

; 565  : 	{
; 566  : 		m_nHeightOfIndices += wParam;

  0000c	8b 45 08	 mov	 eax, DWORD PTR _wParam$[ebp]
  0000f	01 81 88 17 00
	00		 add	 DWORD PTR [ecx+6024], eax

; 567  : 		RecalcLayout();

  00015	e8 00 00 00 00	 call	 ?RecalcLayout@CTabIndices@@AAEXXZ ; CTabIndices::RecalcLayout
$LN4@OnWmSplitt:

; 568  : 	}	
; 569  : 	return 1L;
; 570  : }

  0001a	b8 01 00 00 00	 mov	 eax, 1
  0001f	5d		 pop	 ebp
  00020	c2 08 00	 ret	 8
?OnWmSplitterMoved@CTabIndices@@AAEJIJ@Z ENDP		; CTabIndices::OnWmSplitterMoved
_TEXT	ENDS
; Function compile flags: /Ogtp
; File D:\git\src\IBK\IBK_DRFN\ProjSrc\SrcDrfn\Chart\MULTICHART\TabIndices.cpp
;	COMDAT ?SetConfig@CTabIndices@@AAEXH@Z
_TEXT	SEGMENT
_strTemp$ = -88						; size = 4
_strCfgFile$ = -84					; size = 4
_szTemp$ = -80						; size = 64
__$ArrayPad$ = -16					; size = 4
__$EHRec$ = -12						; size = 12
_bLoad$ = 8						; size = 4
?SetConfig@CTabIndices@@AAEXH@Z PROC			; CTabIndices::SetConfig, COMDAT
; _this$ = ecx

; 348  : {

  00000	55		 push	 ebp
  00001	8b ec		 mov	 ebp, esp
  00003	6a ff		 push	 -1
  00005	68 00 00 00 00	 push	 __ehhandler$?SetConfig@CTabIndices@@AAEXH@Z
  0000a	64 a1 00 00 00
	00		 mov	 eax, DWORD PTR fs:0
  00010	50		 push	 eax
  00011	83 ec 4c	 sub	 esp, 76			; 0000004cH
  00014	a1 00 00 00 00	 mov	 eax, DWORD PTR ___security_cookie
  00019	33 c5		 xor	 eax, ebp
  0001b	89 45 f0	 mov	 DWORD PTR __$ArrayPad$[ebp], eax
  0001e	53		 push	 ebx
  0001f	56		 push	 esi
  00020	57		 push	 edi
  00021	50		 push	 eax
  00022	8d 45 f4	 lea	 eax, DWORD PTR __$EHRec$[ebp]
  00025	64 a3 00 00 00
	00		 mov	 DWORD PTR fs:0, eax
  0002b	8b d9		 mov	 ebx, ecx

; 349  : 	CString strTemp;

  0002d	8d 4d a8	 lea	 ecx, DWORD PTR _strTemp$[ebp]
  00030	ff 15 00 00 00
	00		 call	 DWORD PTR __imp_??0?$CStringT@DV?$StrTraitMFC_DLL@DV?$ChTraitsCRT@D@ATL@@@@@ATL@@QAE@XZ

; 350  : 	char szTemp[64];
; 351  : 
; 352  : 	CString strCfgFile = ((CStdDialog*)m_pMultiChartWnd)->m_strConfig;

  00036	8b 83 c0 00 00
	00		 mov	 eax, DWORD PTR [ebx+192]
  0003c	8d 4d ac	 lea	 ecx, DWORD PTR _strCfgFile$[ebp]
  0003f	05 a8 07 00 00	 add	 eax, 1960		; 000007a8H
  00044	c7 45 fc 00 00
	00 00		 mov	 DWORD PTR __$EHRec$[ebp+8], 0
  0004b	50		 push	 eax
  0004c	ff 15 00 00 00
	00		 call	 DWORD PTR __imp_??0?$CStringT@DV?$StrTraitMFC_DLL@DV?$ChTraitsCRT@D@ATL@@@@@ATL@@QAE@ABV01@@Z

; 353  : 	if(bLoad)

  00052	83 7d 08 00	 cmp	 DWORD PTR _bLoad$[ebp], 0
  00056	c6 45 fc 01	 mov	 BYTE PTR __$EHRec$[ebp+8], 1
  0005a	74 60		 je	 SHORT $LN2@SetConfig

; 354  : 	{
; 355  : 		::GetPrivateProfileString("TabIndices","HeightOfIndices","80",szTemp,sizeof(szTemp),strCfgFile);

  0005c	ff 75 ac	 push	 DWORD PTR _strCfgFile$[ebp]
  0005f	8b 3d 00 00 00
	00		 mov	 edi, DWORD PTR __imp__GetPrivateProfileStringA@24
  00065	8d 45 b0	 lea	 eax, DWORD PTR _szTemp$[ebp]
  00068	6a 40		 push	 64			; 00000040H
  0006a	50		 push	 eax
  0006b	68 00 00 00 00	 push	 OFFSET ??_C@_02PFIAKEDG@80@
  00070	68 00 00 00 00	 push	 OFFSET ??_C@_0BA@MHHHNIIB@HeightOfIndices@
  00075	68 00 00 00 00	 push	 OFFSET ??_C@_0L@JJCOOLME@TabIndices@
  0007a	ff d7		 call	 edi

; 356  : 		m_nHeightOfIndices = atoi(szTemp);

  0007c	8b 35 00 00 00
	00		 mov	 esi, DWORD PTR __imp__atoi
  00082	8d 45 b0	 lea	 eax, DWORD PTR _szTemp$[ebp]
  00085	50		 push	 eax
  00086	ff d6		 call	 esi
  00088	83 c4 04	 add	 esp, 4
  0008b	89 83 88 17 00
	00		 mov	 DWORD PTR [ebx+6024], eax

; 357  : 		::GetPrivateProfileString("TabIndices","IndexSelected","0",szTemp,sizeof(szTemp),strCfgFile);

  00091	8d 45 b0	 lea	 eax, DWORD PTR _szTemp$[ebp]
  00094	ff 75 ac	 push	 DWORD PTR _strCfgFile$[ebp]
  00097	6a 40		 push	 64			; 00000040H
  00099	50		 push	 eax
  0009a	68 00 00 00 00	 push	 OFFSET ??_C@_01GBGANLPD@0@
  0009f	68 00 00 00 00	 push	 OFFSET ??_C@_0O@GIEOAGCM@IndexSelected@
  000a4	68 00 00 00 00	 push	 OFFSET ??_C@_0L@JJCOOLME@TabIndices@
  000a9	ff d7		 call	 edi

; 358  : 		m_nIndexSelected = atoi(szTemp);

  000ab	8d 45 b0	 lea	 eax, DWORD PTR _szTemp$[ebp]
  000ae	50		 push	 eax
  000af	ff d6		 call	 esi
  000b1	83 c4 04	 add	 esp, 4
  000b4	89 83 8c 17 00
	00		 mov	 DWORD PTR [ebx+6028], eax

; 359  : 	}

  000ba	eb 58		 jmp	 SHORT $LN3@SetConfig
$LN2@SetConfig:

; 360  : 	else
; 361  : 	{
; 362  : 		strTemp.Format("%d",m_nHeightOfIndices);

  000bc	ff b3 88 17 00
	00		 push	 DWORD PTR [ebx+6024]
  000c2	8b 3d 00 00 00
	00		 mov	 edi, DWORD PTR __imp_?Format@?$CStringT@DV?$StrTraitMFC_DLL@DV?$ChTraitsCRT@D@ATL@@@@@ATL@@QAAXPBDZZ
  000c8	8d 45 a8	 lea	 eax, DWORD PTR _strTemp$[ebp]
  000cb	68 00 00 00 00	 push	 OFFSET ??_C@_02DPKJAMEF@?$CFd@
  000d0	50		 push	 eax
  000d1	ff d7		 call	 edi

; 363  : 		::WritePrivateProfileString("TabIndices","HeightOfIndices",strTemp,strCfgFile);

  000d3	8b 35 00 00 00
	00		 mov	 esi, DWORD PTR __imp__WritePrivateProfileStringA@16
  000d9	83 c4 0c	 add	 esp, 12			; 0000000cH
  000dc	ff 75 ac	 push	 DWORD PTR _strCfgFile$[ebp]
  000df	ff 75 a8	 push	 DWORD PTR _strTemp$[ebp]
  000e2	68 00 00 00 00	 push	 OFFSET ??_C@_0BA@MHHHNIIB@HeightOfIndices@
  000e7	68 00 00 00 00	 push	 OFFSET ??_C@_0L@JJCOOLME@TabIndices@
  000ec	ff d6		 call	 esi

; 364  : 		strTemp.Format("%d",m_nIndexSelected);

  000ee	ff b3 8c 17 00
	00		 push	 DWORD PTR [ebx+6028]
  000f4	8d 45 a8	 lea	 eax, DWORD PTR _strTemp$[ebp]
  000f7	68 00 00 00 00	 push	 OFFSET ??_C@_02DPKJAMEF@?$CFd@
  000fc	50		 push	 eax
  000fd	ff d7		 call	 edi
  000ff	83 c4 0c	 add	 esp, 12			; 0000000cH

; 365  : 		::WritePrivateProfileString("TabIndices","IndexSelected",strTemp,strCfgFile);

  00102	ff 75 ac	 push	 DWORD PTR _strCfgFile$[ebp]
  00105	ff 75 a8	 push	 DWORD PTR _strTemp$[ebp]
  00108	68 00 00 00 00	 push	 OFFSET ??_C@_0O@GIEOAGCM@IndexSelected@
  0010d	68 00 00 00 00	 push	 OFFSET ??_C@_0L@JJCOOLME@TabIndices@
  00112	ff d6		 call	 esi
$LN3@SetConfig:

; 366  : 	}
; 367  : }

  00114	8d 4d ac	 lea	 ecx, DWORD PTR _strCfgFile$[ebp]
  00117	ff 15 00 00 00
	00		 call	 DWORD PTR __imp_??1?$CStringT@DV?$StrTraitMFC_DLL@DV?$ChTraitsCRT@D@ATL@@@@@ATL@@QAE@XZ
  0011d	8d 4d a8	 lea	 ecx, DWORD PTR _strTemp$[ebp]
  00120	ff 15 00 00 00
	00		 call	 DWORD PTR __imp_??1?$CStringT@DV?$StrTraitMFC_DLL@DV?$ChTraitsCRT@D@ATL@@@@@ATL@@QAE@XZ
  00126	8b 4d f4	 mov	 ecx, DWORD PTR __$EHRec$[ebp]
  00129	64 89 0d 00 00
	00 00		 mov	 DWORD PTR fs:0, ecx
  00130	59		 pop	 ecx
  00131	5f		 pop	 edi
  00132	5e		 pop	 esi
  00133	5b		 pop	 ebx
  00134	8b 4d f0	 mov	 ecx, DWORD PTR __$ArrayPad$[ebp]
  00137	33 cd		 xor	 ecx, ebp
  00139	e8 00 00 00 00	 call	 @__security_check_cookie@4
  0013e	8b e5		 mov	 esp, ebp
  00140	5d		 pop	 ebp
  00141	c2 04 00	 ret	 4
_TEXT	ENDS
;	COMDAT text$x
text$x	SEGMENT
__unwindfunclet$?SetConfig@CTabIndices@@AAEXH@Z$0:
  00000	8d 4d a8	 lea	 ecx, DWORD PTR _strTemp$[ebp]
  00003	ff 25 00 00 00
	00		 jmp	 DWORD PTR __imp_??1?$CStringT@DV?$StrTraitMFC_DLL@DV?$ChTraitsCRT@D@ATL@@@@@ATL@@QAE@XZ
__unwindfunclet$?SetConfig@CTabIndices@@AAEXH@Z$1:
  00009	8d 4d ac	 lea	 ecx, DWORD PTR _strCfgFile$[ebp]
  0000c	ff 25 00 00 00
	00		 jmp	 DWORD PTR __imp_??1?$CStringT@DV?$StrTraitMFC_DLL@DV?$ChTraitsCRT@D@ATL@@@@@ATL@@QAE@XZ
  00012	cc		 int	 3
  00013	cc		 int	 3
  00014	cc		 int	 3
  00015	cc		 int	 3
  00016	cc		 int	 3
__ehhandler$?SetConfig@CTabIndices@@AAEXH@Z:
  00017	90		 npad	 1
  00018	90		 npad	 1
  00019	8b 54 24 08	 mov	 edx, DWORD PTR [esp+8]
  0001d	8d 42 0c	 lea	 eax, DWORD PTR [edx+12]
  00020	8b 4a a4	 mov	 ecx, DWORD PTR [edx-92]
  00023	33 c8		 xor	 ecx, eax
  00025	e8 00 00 00 00	 call	 @__security_check_cookie@4
  0002a	8b 4a fc	 mov	 ecx, DWORD PTR [edx-4]
  0002d	33 c8		 xor	 ecx, eax
  0002f	e8 00 00 00 00	 call	 @__security_check_cookie@4
  00034	b8 00 00 00 00	 mov	 eax, OFFSET __ehfuncinfo$?SetConfig@CTabIndices@@AAEXH@Z
  00039	e9 00 00 00 00	 jmp	 ___CxxFrameHandler3
text$x	ENDS
?SetConfig@CTabIndices@@AAEXH@Z ENDP			; CTabIndices::SetConfig
; Function compile flags: /Ogtp
; File D:\git\src\IBK\IBK_DRFN\ProjSrc\SrcDrfn\Chart\MULTICHART\TabIndices.cpp
;	COMDAT ?SetMarketIndicator@CTabIndices@@AAEXXZ
_TEXT	SEGMENT
?SetMarketIndicator@CTabIndices@@AAEXXZ PROC		; CTabIndices::SetMarketIndicator, COMDAT
; _this$ = ecx

; 861  : /*	#include "arMarketIndicator.h"
; 862  : 	
; 863  : // 	m_listItems.ShowWindow(SW_SHOW);
; 864  : 	m_treeItems.ShowWindow(SW_HIDE);
; 865  : 	if(m_listItems.GetItemCount()) return;
; 866  : //	m_listItems.DeleteAllItems();	
; 867  : 	for(int i=0;;i++)
; 868  : 	{
; 869  : 		if (g_lpszInputMarketIndicator[i] == NULL)
; 870  : 			break;
; 871  : 		m_listItems.InsertItem(i, "");		
; 872  : 		if(i%2) // odd
; 873  : 		{
; 874  : 			m_listItems.SetItemText(i, 0, g_lpszInputMarketIndicator[i]);
; 875  : 		}
; 876  : 		else		// even
; 877  : 		{
; 878  : 			m_listItems.SetItemText(i, 0, g_lpszInputMarketIndicator[i],RGB(0,0,0),CRGRID);
; 879  : 		}				
; 880  : 
; 881  : 	}
; 882  : */
; 883  : }

  00000	c2 00 00	 ret	 0
?SetMarketIndicator@CTabIndices@@AAEXXZ ENDP		; CTabIndices::SetMarketIndicator
_TEXT	ENDS
; Function compile flags: /Ogtp
; File D:\git\src\IBK\IBK_DRFN\ProjSrc\SrcDrfn\Chart\MULTICHART\TabIndices.cpp
; File C:\Program Files (x86)\Microsoft Visual Studio\2019\Community\VC\Tools\MSVC\14.29.30133\atlmfc\include\afxwin2.inl
; File D:\git\src\IBK\IBK_DRFN\ProjSrc\SrcDrfn\Chart\MULTICHART\TabIndices.cpp
;	COMDAT ?SetTechnicalIndicator@CTabIndices@@AAEXXZ
_TEXT	SEGMENT
?SetTechnicalIndicator@CTabIndices@@AAEXXZ PROC		; CTabIndices::SetTechnicalIndicator, COMDAT
; _this$ = ecx

; 851  : {

  00000	56		 push	 esi
  00001	8b f1		 mov	 esi, ecx

; 852  : 	m_listItems.ShowWindow(SW_HIDE);

  00003	6a 00		 push	 0
  00005	8d 8e d8 01 00
	00		 lea	 ecx, DWORD PTR [esi+472]
  0000b	e8 00 00 00 00	 call	 ?ShowWindow@CWnd@@QAEHH@Z ; CWnd::ShowWindow

; 854  : 	if(m_ctrlOutBar)

  00010	8d 8e f0 03 00
	00		 lea	 ecx, DWORD PTR [esi+1008]
; File C:\Program Files (x86)\Microsoft Visual Studio\2019\Community\VC\Tools\MSVC\14.29.30133\atlmfc\include\afxwin2.inl

; 19   : 	{ return this == NULL ? NULL : m_hWnd; }

  00016	85 c9		 test	 ecx, ecx
  00018	74 0d		 je	 SHORT $LN2@SetTechnic
; File D:\git\src\IBK\IBK_DRFN\ProjSrc\SrcDrfn\Chart\MULTICHART\TabIndices.cpp

; 854  : 	if(m_ctrlOutBar)

  0001a	83 79 20 00	 cmp	 DWORD PTR [ecx+32], 0
  0001e	74 07		 je	 SHORT $LN2@SetTechnic

; 855  : 		m_ctrlOutBar.ShowWindow(SW_SHOW);

  00020	6a 05		 push	 5
  00022	e8 00 00 00 00	 call	 ?ShowWindow@CWnd@@QAEHH@Z ; CWnd::ShowWindow
$LN2@SetTechnic:

; 856  : 	m_pParentDlg->GetIndicatorNameListIntoTreeCtrl(m_treeItems);

  00027	8b 8e bc 00 00
	00		 mov	 ecx, DWORD PTR [esi+188]
  0002d	8d 86 48 16 00
	00		 lea	 eax, DWORD PTR [esi+5704]
  00033	50		 push	 eax
  00034	e8 00 00 00 00	 call	 ?GetIndicatorNameListIntoTreeCtrl@CLeftBarDlg@@QAEXAAVCTreeCtrl@@@Z ; CLeftBarDlg::GetIndicatorNameListIntoTreeCtrl
  00039	5e		 pop	 esi

; 857  : }

  0003a	c3		 ret	 0
?SetTechnicalIndicator@CTabIndices@@AAEXXZ ENDP		; CTabIndices::SetTechnicalIndicator
_TEXT	ENDS
; Function compile flags: /Ogtp
; File D:\git\src\IBK\IBK_DRFN\ProjSrc\SrcDrfn\Chart\MULTICHART\TabIndices.cpp
; File C:\Program Files (x86)\Microsoft Visual Studio\2019\Community\VC\Tools\MSVC\14.29.30133\atlmfc\include\afxcmn.inl
; File C:\Program Files (x86)\Microsoft Visual Studio\2019\Community\VC\Tools\MSVC\14.29.30133\atlmfc\include\afxcoll.inl
; File D:\git\src\IBK\IBK_DRFN\ProjSrc\SrcDrfn\Chart\MULTICHART\TabIndices.cpp
; File C:\Program Files (x86)\Microsoft Visual Studio\2019\Community\VC\Tools\MSVC\14.29.30133\atlmfc\include\afxcoll.inl
; File D:\git\src\IBK\IBK_DRFN\ProjSrc\SrcDrfn\Chart\MULTICHART\TabIndices.cpp
; File C:\Program Files (x86)\Microsoft Visual Studio\2019\Community\VC\Tools\MSVC\14.29.30133\atlmfc\include\afxcoll.inl
; File D:\git\src\IBK\IBK_DRFN\ProjSrc\SrcDrfn\Chart\MULTICHART\TabIndices.cpp
; File C:\Program Files (x86)\Microsoft Visual Studio\2019\Community\VC\Tools\MSVC\14.29.30133\atlmfc\include\afxcoll.inl
; File D:\git\src\IBK\IBK_DRFN\ProjSrc\SrcDrfn\Chart\MULTICHART\TabIndices.cpp
; File C:\Program Files (x86)\Microsoft Visual Studio\2019\Community\VC\Tools\MSVC\14.29.30133\atlmfc\include\afxcoll.inl
; File D:\git\src\IBK\IBK_DRFN\ProjSrc\SrcDrfn\Chart\MULTICHART\TabIndices.cpp
; File C:\Program Files (x86)\Microsoft Visual Studio\2019\Community\VC\Tools\MSVC\14.29.30133\atlmfc\include\afxcoll.inl
; File D:\git\src\IBK\IBK_DRFN\ProjSrc\SrcDrfn\Chart\MULTICHART\TabIndices.cpp
; File C:\Program Files (x86)\Microsoft Visual Studio\2019\Community\VC\Tools\MSVC\14.29.30133\atlmfc\include\afxcoll.inl
; File D:\git\src\IBK\IBK_DRFN\ProjSrc\SrcDrfn\Chart\MULTICHART\TabIndices.cpp
; File C:\Program Files (x86)\Microsoft Visual Studio\2019\Community\VC\Tools\MSVC\14.29.30133\atlmfc\include\afxcoll.inl
; File D:\git\src\IBK\IBK_DRFN\ProjSrc\SrcDrfn\Chart\MULTICHART\TabIndices.cpp
; File C:\Program Files (x86)\Microsoft Visual Studio\2019\Community\VC\Tools\MSVC\14.29.30133\atlmfc\include\afxcoll.inl
; File D:\git\src\IBK\IBK_DRFN\ProjSrc\SrcDrfn\Chart\MULTICHART\TabIndices.cpp
;	COMDAT ?SetUpjongDataTree@CTabIndices@@AAEXXZ
_TEXT	SEGMENT
?SetUpjongDataTree@CTabIndices@@AAEXXZ PROC		; CTabIndices::SetUpjongDataTree, COMDAT
; _this$ = ecx

; 751  : {

  00000	56		 push	 esi
  00001	8b f1		 mov	 esi, ecx

; 752  :  	m_listItems.ShowWindow(SW_HIDE);

  00003	6a 00		 push	 0
  00005	8d 8e d8 01 00
	00		 lea	 ecx, DWORD PTR [esi+472]
  0000b	e8 00 00 00 00	 call	 ?ShowWindow@CWnd@@QAEHH@Z ; CWnd::ShowWindow

; 753  : //	m_treeItems.ShowWindow(SW_SHOW);
; 754  : 	m_ctrlOutBar.ShowWindow(SW_SHOW);

  00010	6a 05		 push	 5
  00012	8d 8e f0 03 00
	00		 lea	 ecx, DWORD PTR [esi+1008]
  00018	e8 00 00 00 00	 call	 ?ShowWindow@CWnd@@QAEHH@Z ; CWnd::ShowWindow
; File C:\Program Files (x86)\Microsoft Visual Studio\2019\Community\VC\Tools\MSVC\14.29.30133\atlmfc\include\afxcmn.inl

; 277  : 	{ ASSERT(::IsWindow(m_hWnd)); return (BOOL)::SendMessage(m_hWnd, TVM_DELETEITEM, 0, (LPARAM)TVI_ROOT); }

  0001d	68 00 00 ff ff	 push	 -65536			; ffff0000H
  00022	6a 00		 push	 0
  00024	68 01 11 00 00	 push	 4353			; 00001101H
  00029	ff b6 68 16 00
	00		 push	 DWORD PTR [esi+5736]
  0002f	ff 15 00 00 00
	00		 call	 DWORD PTR __imp__SendMessageA@16
; File C:\Program Files (x86)\Microsoft Visual Studio\2019\Community\VC\Tools\MSVC\14.29.30133\atlmfc\include\afxcoll.inl

; 286  : 	{ SetSize(0); }

  00035	6a ff		 push	 -1
  00037	6a 00		 push	 0
; File D:\git\src\IBK\IBK_DRFN\ProjSrc\SrcDrfn\Chart\MULTICHART\TabIndices.cpp

; 757  : 	m_arKOSPIUpCode		.RemoveAll();

  00039	8d 8e e0 16 00
	00		 lea	 ecx, DWORD PTR [esi+5856]
; File C:\Program Files (x86)\Microsoft Visual Studio\2019\Community\VC\Tools\MSVC\14.29.30133\atlmfc\include\afxcoll.inl

; 286  : 	{ SetSize(0); }

  0003f	e8 00 00 00 00	 call	 ?SetSize@CStringArray@@QAEXHH@Z ; CStringArray::SetSize
  00044	6a ff		 push	 -1
  00046	6a 00		 push	 0
; File D:\git\src\IBK\IBK_DRFN\ProjSrc\SrcDrfn\Chart\MULTICHART\TabIndices.cpp

; 758  : 	m_arKOSPIUpName		.RemoveAll();	

  00048	8d 8e f4 16 00
	00		 lea	 ecx, DWORD PTR [esi+5876]
; File C:\Program Files (x86)\Microsoft Visual Studio\2019\Community\VC\Tools\MSVC\14.29.30133\atlmfc\include\afxcoll.inl

; 286  : 	{ SetSize(0); }

  0004e	e8 00 00 00 00	 call	 ?SetSize@CStringArray@@QAEXHH@Z ; CStringArray::SetSize
  00053	6a ff		 push	 -1
  00055	6a 00		 push	 0
; File D:\git\src\IBK\IBK_DRFN\ProjSrc\SrcDrfn\Chart\MULTICHART\TabIndices.cpp

; 759  : 	m_arKOSPI200UpCode	.RemoveAll();

  00057	8d 8e 08 17 00
	00		 lea	 ecx, DWORD PTR [esi+5896]
; File C:\Program Files (x86)\Microsoft Visual Studio\2019\Community\VC\Tools\MSVC\14.29.30133\atlmfc\include\afxcoll.inl

; 286  : 	{ SetSize(0); }

  0005d	e8 00 00 00 00	 call	 ?SetSize@CStringArray@@QAEXHH@Z ; CStringArray::SetSize
  00062	6a ff		 push	 -1
  00064	6a 00		 push	 0
; File D:\git\src\IBK\IBK_DRFN\ProjSrc\SrcDrfn\Chart\MULTICHART\TabIndices.cpp

; 760  : 	m_arKOSPI200UpName	.RemoveAll();	

  00066	8d 8e 1c 17 00
	00		 lea	 ecx, DWORD PTR [esi+5916]
; File C:\Program Files (x86)\Microsoft Visual Studio\2019\Community\VC\Tools\MSVC\14.29.30133\atlmfc\include\afxcoll.inl

; 286  : 	{ SetSize(0); }

  0006c	e8 00 00 00 00	 call	 ?SetSize@CStringArray@@QAEXHH@Z ; CStringArray::SetSize
  00071	6a ff		 push	 -1
  00073	6a 00		 push	 0
; File D:\git\src\IBK\IBK_DRFN\ProjSrc\SrcDrfn\Chart\MULTICHART\TabIndices.cpp

; 761  : 	m_arKOSDAQUpCode	.RemoveAll();	

  00075	8d 8e 30 17 00
	00		 lea	 ecx, DWORD PTR [esi+5936]
; File C:\Program Files (x86)\Microsoft Visual Studio\2019\Community\VC\Tools\MSVC\14.29.30133\atlmfc\include\afxcoll.inl

; 286  : 	{ SetSize(0); }

  0007b	e8 00 00 00 00	 call	 ?SetSize@CStringArray@@QAEXHH@Z ; CStringArray::SetSize
  00080	6a ff		 push	 -1
  00082	6a 00		 push	 0
; File D:\git\src\IBK\IBK_DRFN\ProjSrc\SrcDrfn\Chart\MULTICHART\TabIndices.cpp

; 762  : 	m_arKOSDAQUpName	.RemoveAll();			

  00084	8d 8e 44 17 00
	00		 lea	 ecx, DWORD PTR [esi+5956]
; File C:\Program Files (x86)\Microsoft Visual Studio\2019\Community\VC\Tools\MSVC\14.29.30133\atlmfc\include\afxcoll.inl

; 286  : 	{ SetSize(0); }

  0008a	e8 00 00 00 00	 call	 ?SetSize@CStringArray@@QAEXHH@Z ; CStringArray::SetSize
  0008f	6a ff		 push	 -1
  00091	6a 00		 push	 0
; File D:\git\src\IBK\IBK_DRFN\ProjSrc\SrcDrfn\Chart\MULTICHART\TabIndices.cpp

; 763  : 	m_arETCUpCode		.RemoveAll();

  00093	8d 8e 58 17 00
	00		 lea	 ecx, DWORD PTR [esi+5976]
; File C:\Program Files (x86)\Microsoft Visual Studio\2019\Community\VC\Tools\MSVC\14.29.30133\atlmfc\include\afxcoll.inl

; 286  : 	{ SetSize(0); }

  00099	e8 00 00 00 00	 call	 ?SetSize@CStringArray@@QAEXHH@Z ; CStringArray::SetSize
  0009e	6a ff		 push	 -1
  000a0	6a 00		 push	 0
; File D:\git\src\IBK\IBK_DRFN\ProjSrc\SrcDrfn\Chart\MULTICHART\TabIndices.cpp

; 764  : 	m_arETCUpName		.RemoveAll();	

  000a2	8d 8e 6c 17 00
	00		 lea	 ecx, DWORD PTR [esi+5996]
; File C:\Program Files (x86)\Microsoft Visual Studio\2019\Community\VC\Tools\MSVC\14.29.30133\atlmfc\include\afxcoll.inl

; 286  : 	{ SetSize(0); }

  000a8	e8 00 00 00 00	 call	 ?SetSize@CStringArray@@QAEXHH@Z ; CStringArray::SetSize
  000ad	5e		 pop	 esi
; File D:\git\src\IBK\IBK_DRFN\ProjSrc\SrcDrfn\Chart\MULTICHART\TabIndices.cpp

; 848  : }

  000ae	c3		 ret	 0
?SetUpjongDataTree@CTabIndices@@AAEXXZ ENDP		; CTabIndices::SetUpjongDataTree
_TEXT	ENDS
; Function compile flags: /Ogtp
; File D:\git\src\IBK\IBK_DRFN\ProjSrc\SrcDrfn\Chart\MULTICHART\TabIndices.cpp
; File C:\Program Files (x86)\Microsoft Visual Studio\2019\Community\VC\Tools\MSVC\14.29.30133\atlmfc\include\afxwin2.inl
; File C:\Program Files (x86)\Microsoft Visual Studio\2019\Community\VC\Tools\MSVC\14.29.30133\atlmfc\include\atltypes.h
; File C:\Program Files (x86)\Microsoft Visual Studio\2019\Community\VC\Tools\MSVC\14.29.30133\atlmfc\include\afxwin2.inl
; File D:\git\src\IBK\IBK_DRFN\ProjSrc\SrcDrfn\Chart\MULTICHART\TabIndices.cpp
; File C:\Program Files (x86)\Microsoft Visual Studio\2019\Community\VC\Tools\MSVC\14.29.30133\atlmfc\include\afxwin2.inl
; File D:\git\src\IBK\IBK_DRFN\ProjSrc\SrcDrfn\Chart\MULTICHART\TabIndices.cpp
; File C:\Program Files (x86)\Microsoft Visual Studio\2019\Community\VC\Tools\MSVC\14.29.30133\atlmfc\include\atltypes.h
; File C:\Program Files (x86)\Microsoft Visual Studio\2019\Community\VC\Tools\MSVC\14.29.30133\atlmfc\include\afxcmn.inl
; File D:\git\src\IBK\IBK_DRFN\ProjSrc\SrcDrfn\Chart\MULTICHART\TabIndices.cpp
;	COMDAT ?RecalcLayout@CTabIndices@@AAEXXZ
_TEXT	SEGMENT
_rect$ = -20						; size = 16
__$ArrayPad$ = -4					; size = 4
?RecalcLayout@CTabIndices@@AAEXXZ PROC			; CTabIndices::RecalcLayout, COMDAT
; _this$ = ecx

; 518  : {

  00000	55		 push	 ebp
  00001	8b ec		 mov	 ebp, esp
  00003	83 ec 14	 sub	 esp, 20			; 00000014H
  00006	a1 00 00 00 00	 mov	 eax, DWORD PTR ___security_cookie
  0000b	33 c5		 xor	 eax, ebp
  0000d	89 45 fc	 mov	 DWORD PTR __$ArrayPad$[ebp], eax
  00010	56		 push	 esi
  00011	8b f1		 mov	 esi, ecx
  00013	57		 push	 edi

; 519  : //	RecalcLayoutCtrl(m_listIndices);
; 520  : 	RecalcLayoutCtrl(m_listItems);

  00014	6a 00		 push	 0
  00016	8d be d8 01 00
	00		 lea	 edi, DWORD PTR [esi+472]
  0001c	57		 push	 edi
  0001d	e8 00 00 00 00	 call	 ?RecalcLayoutCtrl@CTabDlg@@IAEXAAVCWnd@@H@Z ; CTabDlg::RecalcLayoutCtrl

; 521  : //	RecalcLayoutCtrl(m_treeItems);
; 522  : 	RecalcLayoutCtrl(m_ctrlOutBar);

  00022	6a 00		 push	 0
  00024	8d 86 f0 03 00
	00		 lea	 eax, DWORD PTR [esi+1008]
  0002a	8b ce		 mov	 ecx, esi
  0002c	50		 push	 eax
  0002d	e8 00 00 00 00	 call	 ?RecalcLayoutCtrl@CTabDlg@@IAEXAAVCWnd@@H@Z ; CTabDlg::RecalcLayoutCtrl

; 523  : 	RecalcLayoutCtrl(m_ySplitterY1);

  00032	6a 00		 push	 0
  00034	8d 86 10 01 00
	00		 lea	 eax, DWORD PTR [esi+272]
  0003a	8b ce		 mov	 ecx, esi
  0003c	50		 push	 eax
  0003d	e8 00 00 00 00	 call	 ?RecalcLayoutCtrl@CTabDlg@@IAEXAAVCWnd@@H@Z ; CTabDlg::RecalcLayoutCtrl

; 524  : 	
; 525  : 	RecalcLayoutCtrl(m_btnShowList);	

  00042	6a 00		 push	 0
  00044	8d 86 68 0f 00
	00		 lea	 eax, DWORD PTR [esi+3944]
  0004a	8b ce		 mov	 ecx, esi
  0004c	50		 push	 eax
  0004d	e8 00 00 00 00	 call	 ?RecalcLayoutCtrl@CTabDlg@@IAEXAAVCWnd@@H@Z ; CTabDlg::RecalcLayoutCtrl

; 526  : 	RecalcLayoutCtrl(m_btnApply);	

  00052	6a 00		 push	 0
  00054	8d 86 e8 14 00
	00		 lea	 eax, DWORD PTR [esi+5352]
  0005a	8b ce		 mov	 ecx, esi
  0005c	50		 push	 eax
  0005d	e8 00 00 00 00	 call	 ?RecalcLayoutCtrl@CTabDlg@@IAEXAAVCWnd@@H@Z ; CTabDlg::RecalcLayoutCtrl

; 527  : 	RecalcLayoutCtrl(m_btnSearch);

  00062	6a 00		 push	 0
  00064	8d 86 88 13 00
	00		 lea	 eax, DWORD PTR [esi+5000]
  0006a	8b ce		 mov	 ecx, esi
  0006c	50		 push	 eax
  0006d	e8 00 00 00 00	 call	 ?RecalcLayoutCtrl@CTabDlg@@IAEXAAVCWnd@@H@Z ; CTabDlg::RecalcLayoutCtrl

; 528  : 
; 529  : 	RecalcLayoutCtrl(m_btnPrev);

  00072	6a 00		 push	 0
  00074	8d 86 28 0c 00
	00		 lea	 eax, DWORD PTR [esi+3112]
  0007a	8b ce		 mov	 ecx, esi
  0007c	50		 push	 eax
  0007d	e8 00 00 00 00	 call	 ?RecalcLayoutCtrl@CTabDlg@@IAEXAAVCWnd@@H@Z ; CTabDlg::RecalcLayoutCtrl

; 530  : 	RecalcLayoutCtrl(m_btnStop);	

  00082	6a 00		 push	 0
  00084	8d 86 c8 0a 00
	00		 lea	 eax, DWORD PTR [esi+2760]
  0008a	8b ce		 mov	 ecx, esi
  0008c	50		 push	 eax
  0008d	e8 00 00 00 00	 call	 ?RecalcLayoutCtrl@CTabDlg@@IAEXAAVCWnd@@H@Z ; CTabDlg::RecalcLayoutCtrl

; 531  : 	RecalcLayoutCtrl(m_btnNext);	

  00092	6a 00		 push	 0
  00094	8d 86 88 0d 00
	00		 lea	 eax, DWORD PTR [esi+3464]
  0009a	8b ce		 mov	 ecx, esi
  0009c	50		 push	 eax
  0009d	e8 00 00 00 00	 call	 ?RecalcLayoutCtrl@CTabDlg@@IAEXAAVCWnd@@H@Z ; CTabDlg::RecalcLayoutCtrl

; 532  : 	RecalcLayoutCtrl(m_RadioAuto);

  000a2	6a 00		 push	 0
  000a4	8d 86 c8 09 00
	00		 lea	 eax, DWORD PTR [esi+2504]
  000aa	8b ce		 mov	 ecx, esi
  000ac	50		 push	 eax
  000ad	e8 00 00 00 00	 call	 ?RecalcLayoutCtrl@CTabDlg@@IAEXAAVCWnd@@H@Z ; CTabDlg::RecalcLayoutCtrl

; 533  : 	RecalcLayoutCtrl(m_RadioManual);

  000b2	6a 00		 push	 0
  000b4	8d 86 48 0a 00
	00		 lea	 eax, DWORD PTR [esi+2632]
  000ba	8b ce		 mov	 ecx, esi
  000bc	50		 push	 eax
  000bd	e8 00 00 00 00	 call	 ?RecalcLayoutCtrl@CTabDlg@@IAEXAAVCWnd@@H@Z ; CTabDlg::RecalcLayoutCtrl

; 534  : //
; 535  : //	
; 536  : 	RecalcLayoutCtrl(m_btnAddItem);

  000c2	6a 00		 push	 0
  000c4	8d 86 28 12 00
	00		 lea	 eax, DWORD PTR [esi+4648]
  000ca	8b ce		 mov	 ecx, esi
  000cc	50		 push	 eax
  000cd	e8 00 00 00 00	 call	 ?RecalcLayoutCtrl@CTabDlg@@IAEXAAVCWnd@@H@Z ; CTabDlg::RecalcLayoutCtrl

; 537  : 	RecalcLayoutCtrl(m_btnDelItem);

  000d2	6a 00		 push	 0
  000d4	8d 86 c8 10 00
	00		 lea	 eax, DWORD PTR [esi+4296]
  000da	8b ce		 mov	 ecx, esi
  000dc	50		 push	 eax
  000dd	e8 00 00 00 00	 call	 ?RecalcLayoutCtrl@CTabDlg@@IAEXAAVCWnd@@H@Z ; CTabDlg::RecalcLayoutCtrl

; 538  : 	RecalcLayoutCtrl(m_cmbTime);

  000e2	6a 00		 push	 0
  000e4	8d 86 e8 0e 00
	00		 lea	 eax, DWORD PTR [esi+3816]
  000ea	8b ce		 mov	 ecx, esi
  000ec	50		 push	 eax
  000ed	e8 00 00 00 00	 call	 ?RecalcLayoutCtrl@CTabDlg@@IAEXAAVCWnd@@H@Z ; CTabDlg::RecalcLayoutCtrl

; 539  : 
; 540  : 	//007 {{
; 541  : 	RecalcLayoutCtrl(m_editFind);

  000f2	6a 00		 push	 0
  000f4	8d 86 08 06 00
	00		 lea	 eax, DWORD PTR [esi+1544]
  000fa	8b ce		 mov	 ecx, esi
  000fc	50		 push	 eax
  000fd	e8 00 00 00 00	 call	 ?RecalcLayoutCtrl@CTabDlg@@IAEXAAVCWnd@@H@Z ; CTabDlg::RecalcLayoutCtrl

; 542  : 	RecalcLayoutCtrl(m_btnFind);

  00102	6a 00		 push	 0
  00104	8d 86 88 06 00
	00		 lea	 eax, DWORD PTR [esi+1672]
  0010a	8b ce		 mov	 ecx, esi
  0010c	50		 push	 eax
  0010d	e8 00 00 00 00	 call	 ?RecalcLayoutCtrl@CTabDlg@@IAEXAAVCWnd@@H@Z ; CTabDlg::RecalcLayoutCtrl

; 543  : 	RecalcLayoutCtrl(m_btnExtend);

  00112	6a 00		 push	 0
  00114	8d 86 e8 07 00
	00		 lea	 eax, DWORD PTR [esi+2024]
  0011a	8b ce		 mov	 ecx, esi
  0011c	50		 push	 eax
  0011d	e8 00 00 00 00	 call	 ?RecalcLayoutCtrl@CTabDlg@@IAEXAAVCWnd@@H@Z ; CTabDlg::RecalcLayoutCtrl

; 544  : 	RecalcLayoutCtrl(m_listFind);

  00122	6a 00		 push	 0
  00124	8d 86 48 09 00
	00		 lea	 eax, DWORD PTR [esi+2376]
  0012a	8b ce		 mov	 ecx, esi
  0012c	50		 push	 eax
  0012d	e8 00 00 00 00	 call	 ?RecalcLayoutCtrl@CTabDlg@@IAEXAAVCWnd@@H@Z ; CTabDlg::RecalcLayoutCtrl

; 545  : 	//007 }}
; 546  : 
; 547  : 	RecalcLayoutCtrl(m_stTitle);

  00132	6a 00		 push	 0
  00134	8d 86 80 05 00
	00		 lea	 eax, DWORD PTR [esi+1408]
  0013a	8b ce		 mov	 ecx, esi
  0013c	50		 push	 eax
  0013d	e8 00 00 00 00	 call	 ?RecalcLayoutCtrl@CTabDlg@@IAEXAAVCWnd@@H@Z ; CTabDlg::RecalcLayoutCtrl
; File C:\Program Files (x86)\Microsoft Visual Studio\2019\Community\VC\Tools\MSVC\14.29.30133\atlmfc\include\afxwin2.inl

; 86   : 	{ ASSERT(::IsWindow(m_hWnd)); ::GetClientRect(m_hWnd, lpRect); }

  00142	8d 45 ec	 lea	 eax, DWORD PTR _rect$[ebp]
  00145	0f 57 c0	 xorps	 xmm0, xmm0
  00148	50		 push	 eax
  00149	ff 76 20	 push	 DWORD PTR [esi+32]
; File C:\Program Files (x86)\Microsoft Visual Studio\2019\Community\VC\Tools\MSVC\14.29.30133\atlmfc\include\atltypes.h

; 528  : 	left = 0;

  0014c	0f 11 45 ec	 movups	 XMMWORD PTR _rect$[ebp], xmm0
; File C:\Program Files (x86)\Microsoft Visual Studio\2019\Community\VC\Tools\MSVC\14.29.30133\atlmfc\include\afxwin2.inl

; 86   : 	{ ASSERT(::IsWindow(m_hWnd)); ::GetClientRect(m_hWnd, lpRect); }

  00150	ff 15 00 00 00
	00		 call	 DWORD PTR __imp__GetClientRect@8
; File D:\git\src\IBK\IBK_DRFN\ProjSrc\SrcDrfn\Chart\MULTICHART\TabIndices.cpp

; 550  : 	rect.right -= GAP_TABDLG*4;

  00156	8b 45 f4	 mov	 eax, DWORD PTR _rect$[ebp+8]
  00159	83 e8 10	 sub	 eax, 16			; 00000010H
  0015c	89 45 f4	 mov	 DWORD PTR _rect$[ebp+8], eax
  0015f	0f b7 c0	 movzx	 eax, ax
; File C:\Program Files (x86)\Microsoft Visual Studio\2019\Community\VC\Tools\MSVC\14.29.30133\atlmfc\include\afxwin2.inl

; 25   : 	{ return this == NULL ? NULL : m_hWnd; }

  00162	85 ff		 test	 edi, edi
  00164	74 20		 je	 SHORT $LN2@RecalcLayo
; File D:\git\src\IBK\IBK_DRFN\ProjSrc\SrcDrfn\Chart\MULTICHART\TabIndices.cpp

; 555  : 	if(m_listItems.GetSafeHwnd())	

  00166	83 7f 20 00	 cmp	 DWORD PTR [edi+32], 0
  0016a	74 1a		 je	 SHORT $LN2@RecalcLayo
; File C:\Program Files (x86)\Microsoft Visual Studio\2019\Community\VC\Tools\MSVC\14.29.30133\atlmfc\include\atltypes.h

; 576  : 	return right - left;

  0016c	2b 45 ec	 sub	 eax, DWORD PTR _rect$[ebp]
; File C:\Program Files (x86)\Microsoft Visual Studio\2019\Community\VC\Tools\MSVC\14.29.30133\atlmfc\include\afxcmn.inl

; 215  : 	{ ASSERT(::IsWindow(m_hWnd)); return (BOOL) ::SendMessage(m_hWnd, LVM_SETCOLUMNWIDTH, nCol, MAKELPARAM(cx, 0)); }

  0016f	0f b7 c0	 movzx	 eax, ax
  00172	50		 push	 eax
  00173	6a 00		 push	 0
  00175	68 1e 10 00 00	 push	 4126			; 0000101eH
  0017a	ff b6 f8 01 00
	00		 push	 DWORD PTR [esi+504]
  00180	ff 15 00 00 00
	00		 call	 DWORD PTR __imp__SendMessageA@16
$LN2@RecalcLayo:
; File D:\git\src\IBK\IBK_DRFN\ProjSrc\SrcDrfn\Chart\MULTICHART\TabIndices.cpp

; 559  : }

  00186	8b 4d fc	 mov	 ecx, DWORD PTR __$ArrayPad$[ebp]
  00189	5f		 pop	 edi
  0018a	33 cd		 xor	 ecx, ebp
  0018c	5e		 pop	 esi
  0018d	e8 00 00 00 00	 call	 @__security_check_cookie@4
  00192	8b e5		 mov	 esp, ebp
  00194	5d		 pop	 ebp
  00195	c3		 ret	 0
?RecalcLayout@CTabIndices@@AAEXXZ ENDP			; CTabIndices::RecalcLayout
_TEXT	ENDS
; Function compile flags: /Ogtp
; File D:\git\src\IBK\IBK_DRFN\ProjSrc\SrcDrfn\Chart\MULTICHART\TabIndices.cpp
; File C:\Program Files (x86)\Microsoft Visual Studio\2019\Community\VC\Tools\MSVC\14.29.30133\atlmfc\include\atltypes.h
; File D:\git\src\IBK\IBK_DRFN\ProjSrc\SrcDrfn\Chart\MULTICHART\TabIndices.cpp
; File C:\Program Files (x86)\Microsoft Visual Studio\2019\Community\VC\Tools\MSVC\14.29.30133\atlmfc\include\afxwin2.inl
; File C:\Program Files (x86)\Microsoft Visual Studio\2019\Community\VC\Tools\MSVC\14.29.30133\atlmfc\include\atltypes.h
; File C:\Program Files (x86)\Microsoft Visual Studio\2019\Community\VC\Tools\MSVC\14.29.30133\atlmfc\include\afxwin2.inl
; File C:\Program Files (x86)\Microsoft Visual Studio\2019\Community\VC\Tools\MSVC\14.29.30133\atlmfc\include\atltypes.h
; File D:\git\src\IBK\IBK_DRFN\ProjSrc\SrcDrfn\Chart\MULTICHART\TabIndices.cpp
; File C:\Program Files (x86)\Microsoft Visual Studio\2019\Community\VC\Tools\MSVC\14.29.30133\atlmfc\include\atltypes.h
; File D:\git\src\IBK\IBK_DRFN\ProjSrc\SrcDrfn\Chart\MULTICHART\TabIndices.cpp
;	COMDAT ?GetRectOfCtrl@CTabIndices@@EAE?AVCRect@@HH@Z
_TEXT	SEGMENT
tv1587 = -4						; size = 4
tv1583 = 8						; size = 4
___$ReturnUdt$ = 8					; size = 4
_nID$ = 12						; size = 4
_bInit$ = 16						; size = 4
?GetRectOfCtrl@CTabIndices@@EAE?AVCRect@@HH@Z PROC	; CTabIndices::GetRectOfCtrl, COMDAT
; _this$ = ecx

; 371  : {

  00000	55		 push	 ebp
  00001	8b ec		 mov	 ebp, esp
  00003	51		 push	 ecx
  00004	53		 push	 ebx
  00005	56		 push	 esi
; File C:\Program Files (x86)\Microsoft Visual Studio\2019\Community\VC\Tools\MSVC\14.29.30133\atlmfc\include\atltypes.h

; 528  : 	left = 0;

  00006	8b 75 08	 mov	 esi, DWORD PTR ___$ReturnUdt$[ebp]
; File D:\git\src\IBK\IBK_DRFN\ProjSrc\SrcDrfn\Chart\MULTICHART\TabIndices.cpp

; 371  : {

  00009	8b d9		 mov	 ebx, ecx
  0000b	57		 push	 edi
; File C:\Program Files (x86)\Microsoft Visual Studio\2019\Community\VC\Tools\MSVC\14.29.30133\atlmfc\include\afxwin2.inl

; 86   : 	{ ASSERT(::IsWindow(m_hWnd)); ::GetClientRect(m_hWnd, lpRect); }

  0000c	56		 push	 esi
; File C:\Program Files (x86)\Microsoft Visual Studio\2019\Community\VC\Tools\MSVC\14.29.30133\atlmfc\include\atltypes.h

; 528  : 	left = 0;

  0000d	c7 06 00 00 00
	00		 mov	 DWORD PTR [esi], 0

; 529  : 	top = 0;

  00013	c7 46 04 00 00
	00 00		 mov	 DWORD PTR [esi+4], 0

; 530  : 	right = 0;

  0001a	c7 46 08 00 00
	00 00		 mov	 DWORD PTR [esi+8], 0

; 531  : 	bottom = 0;

  00021	c7 46 0c 00 00
	00 00		 mov	 DWORD PTR [esi+12], 0
; File C:\Program Files (x86)\Microsoft Visual Studio\2019\Community\VC\Tools\MSVC\14.29.30133\atlmfc\include\afxwin2.inl

; 86   : 	{ ASSERT(::IsWindow(m_hWnd)); ::GetClientRect(m_hWnd, lpRect); }

  00028	ff 73 20	 push	 DWORD PTR [ebx+32]
  0002b	ff 15 00 00 00
	00		 call	 DWORD PTR __imp__GetClientRect@8
; File C:\Program Files (x86)\Microsoft Visual Studio\2019\Community\VC\Tools\MSVC\14.29.30133\atlmfc\include\atltypes.h

; 576  : 	return right - left;

  00031	8b 16		 mov	 edx, DWORD PTR [esi]
  00033	8b 46 08	 mov	 eax, DWORD PTR [esi+8]

; 933  : 	top += t;

  00036	8b 7e 04	 mov	 edi, DWORD PTR [esi+4]

; 576  : 	return right - left;

  00039	2b c2		 sub	 eax, edx

; 935  : 	bottom -= b;

  0003b	8b 4e 0c	 mov	 ecx, DWORD PTR [esi+12]
  0003e	83 c7 04	 add	 edi, 4

; 576  : 	return right - left;

  00041	89 45 fc	 mov	 DWORD PTR tv1587[ebp], eax

; 932  : 	left += l;

  00044	8d 42 02	 lea	 eax, DWORD PTR [edx+2]
  00047	89 45 08	 mov	 DWORD PTR tv1583[ebp], eax
  0004a	89 06		 mov	 DWORD PTR [esi], eax
; File D:\git\src\IBK\IBK_DRFN\ProjSrc\SrcDrfn\Chart\MULTICHART\TabIndices.cpp

; 376  : 	switch(nID)

  0004c	8b 45 0c	 mov	 eax, DWORD PTR _nID$[ebp]
; File C:\Program Files (x86)\Microsoft Visual Studio\2019\Community\VC\Tools\MSVC\14.29.30133\atlmfc\include\atltypes.h

; 933  : 	top += t;

  0004f	89 7e 04	 mov	 DWORD PTR [esi+4], edi
; File D:\git\src\IBK\IBK_DRFN\ProjSrc\SrcDrfn\Chart\MULTICHART\TabIndices.cpp

; 376  : 	switch(nID)

  00052	3d 7a 18 00 00	 cmp	 eax, 6266		; 0000187aH
  00057	0f 8f 60 02 00
	00		 jg	 $LN34@GetRectOfC
  0005d	0f 84 3b 02 00
	00		 je	 $LN6@GetRectOfC
  00063	05 8a e8 ff ff	 add	 eax, -6006		; ffffe88aH
  00068	3d e0 00 00 00	 cmp	 eax, 224		; 000000e0H
  0006d	0f 87 dc 02 00
	00		 ja	 $LN32@GetRectOfC
  00073	0f b6 80 00 00
	00 00		 movzx	 eax, BYTE PTR $LN43@GetRectOfC[eax]
  0007a	ff 24 85 00 00
	00 00		 jmp	 DWORD PTR $LN44@GetRectOfC[eax*4]
$LN4@GetRectOfC:

; 377  : 	{
; 378  : //	case IDC_LISTINDICES:
; 379  : //		rect.bottom = rect.top + m_nHeightOfIndices;
; 380  : //		break;		
; 381  : //	case IDC_LISTITEMS:
; 382  : //	case IDC_TREEITEMS:
; 383  : //		rect.top = rect.top + m_nHeightOfIndices + GAP_TABDLG;
; 384  : //		rect.bottom = rect.bottom - HEIGHTOFBUTTON - GAP_TABDLG;			
; 385  : //		break;	
; 386  : 	//007 {{ 
; 387  : 	case IDC_EDIT_FIND:
; 388  : //		rect.top = rect.top + GAP_TABDLG;
; 389  : 		rect.bottom = rect.top + HEIGHTOFBUTTON;

  00081	8d 47 14	 lea	 eax, DWORD PTR [edi+20]
  00084	89 46 0c	 mov	 DWORD PTR [esi+12], eax

; 390  : 		rect.left = rect.left ;
; 391  : 		rect.right = rect.left + 110; 

  00087	8b 45 08	 mov	 eax, DWORD PTR tv1583[ebp]
  0008a	83 c0 6e	 add	 eax, 110		; 0000006eH
  0008d	89 46 08	 mov	 DWORD PTR [esi+8], eax

; 508  : 		rect.bottom = rect.top + HEIGHTOFBUTTON;
; 509  : 		break;
; 510  : 	default:
; 511  : 		break;
; 512  : 	}
; 513  : 	return rect;

  00090	8b c6		 mov	 eax, esi
  00092	5f		 pop	 edi
  00093	5e		 pop	 esi
  00094	5b		 pop	 ebx

; 514  : }

  00095	8b e5		 mov	 esp, ebp
  00097	5d		 pop	 ebp
  00098	c2 0c 00	 ret	 12			; 0000000cH
$LN5@GetRectOfC:

; 392  : 		break;
; 393  : 	case IDC_BTN_FIND:
; 394  : //		rect.top = rect.top + GAP_TABDLG;
; 395  : 		rect.bottom = rect.top + HEIGHTOFBUTTON;

  0009b	8d 47 14	 lea	 eax, DWORD PTR [edi+20]
  0009e	89 46 0c	 mov	 DWORD PTR [esi+12], eax

; 396  : 		rect.left = rect.left + 110 + GAP_TABDLG;

  000a1	8d 42 74	 lea	 eax, DWORD PTR [edx+116]
  000a4	89 06		 mov	 DWORD PTR [esi], eax

; 397  : 		rect.right = rect.left + 20;

  000a6	83 c0 14	 add	 eax, 20			; 00000014H
  000a9	89 46 08	 mov	 DWORD PTR [esi+8], eax

; 508  : 		rect.bottom = rect.top + HEIGHTOFBUTTON;
; 509  : 		break;
; 510  : 	default:
; 511  : 		break;
; 512  : 	}
; 513  : 	return rect;

  000ac	8b c6		 mov	 eax, esi
  000ae	5f		 pop	 edi
  000af	5e		 pop	 esi
  000b0	5b		 pop	 ebx

; 514  : }

  000b1	8b e5		 mov	 esp, ebp
  000b3	5d		 pop	 ebp
  000b4	c2 0c 00	 ret	 12			; 0000000cH
$LN13@GetRectOfC:

; 420  : 		break;
; 421  : 	case IDC_TREEITEMS:
; 422  : 		rect.top = rect.top + GAP_TABDLG;

  000b7	83 c7 04	 add	 edi, 4
  000ba	89 7e 04	 mov	 DWORD PTR [esi+4], edi

; 423  : 		if(m_bShowJipyoItem)			

  000bd	83 bb e8 03 00
	00 00		 cmp	 DWORD PTR [ebx+1000], 0
  000c4	74 16		 je	 SHORT $LN14@GetRectOfC

; 424  : 			rect.bottom = rect.top + m_nHeightOfIndices;			

  000c6	8b 8b 88 17 00
	00		 mov	 ecx, DWORD PTR [ebx+6024]

; 508  : 		rect.bottom = rect.top + HEIGHTOFBUTTON;
; 509  : 		break;
; 510  : 	default:
; 511  : 		break;
; 512  : 	}
; 513  : 	return rect;

  000cc	8b c6		 mov	 eax, esi
  000ce	03 cf		 add	 ecx, edi
  000d0	5f		 pop	 edi
  000d1	89 4e 0c	 mov	 DWORD PTR [esi+12], ecx
  000d4	5e		 pop	 esi
  000d5	5b		 pop	 ebx

; 514  : }

  000d6	8b e5		 mov	 esp, ebp
  000d8	5d		 pop	 ebp
  000d9	c2 0c 00	 ret	 12			; 0000000cH
$LN14@GetRectOfC:

; 425  : 		else
; 426  : 			rect.bottom = rect.bottom - HEIGHTOFBUTTON - GAP_TABDLG;			

  000dc	83 c1 e8	 add	 ecx, -24		; ffffffe8H

; 508  : 		rect.bottom = rect.top + HEIGHTOFBUTTON;
; 509  : 		break;
; 510  : 	default:
; 511  : 		break;
; 512  : 	}
; 513  : 	return rect;

  000df	8b c6		 mov	 eax, esi
  000e1	5f		 pop	 edi
  000e2	89 4e 0c	 mov	 DWORD PTR [esi+12], ecx
  000e5	5e		 pop	 esi
  000e6	5b		 pop	 ebx

; 514  : }

  000e7	8b e5		 mov	 esp, ebp
  000e9	5d		 pop	 ebp
  000ea	c2 0c 00	 ret	 12			; 0000000cH
$LN16@GetRectOfC:

; 427  : 		break;
; 428  : 	case IDC_LISTITEMS:
; 429  : 		rect.top	= rect.top + m_nHeightOfIndices + GAP_TABDLG + 2;

  000ed	8b 83 88 17 00
	00		 mov	 eax, DWORD PTR [ebx+6024]
  000f3	83 c0 06	 add	 eax, 6
  000f6	03 c7		 add	 eax, edi
  000f8	89 46 04	 mov	 DWORD PTR [esi+4], eax

; 430  : 		rect.bottom = rect.bottom - HEIGHTOFBUTTON * 3 - GAP_TABDLG;			

  000fb	8d 41 c0	 lea	 eax, DWORD PTR [ecx-64]
  000fe	89 46 0c	 mov	 DWORD PTR [esi+12], eax

; 508  : 		rect.bottom = rect.top + HEIGHTOFBUTTON;
; 509  : 		break;
; 510  : 	default:
; 511  : 		break;
; 512  : 	}
; 513  : 	return rect;

  00101	8b c6		 mov	 eax, esi
  00103	5f		 pop	 edi
  00104	5e		 pop	 esi
  00105	5b		 pop	 ebx

; 514  : }

  00106	8b e5		 mov	 esp, ebp
  00108	5d		 pop	 ebp
  00109	c2 0c 00	 ret	 12			; 0000000cH
$LN17@GetRectOfC:

; 431  : 		break;	
; 432  : 	case IDC_SPLITTERY1:
; 433  : 		rect.top = rect.top + m_nHeightOfIndices;

  0010c	8b 83 88 17 00
	00		 mov	 eax, DWORD PTR [ebx+6024]
  00112	03 c7		 add	 eax, edi
  00114	89 46 04	 mov	 DWORD PTR [esi+4], eax

; 434  : 		rect.bottom = rect.top + GAP_TABDLG + 2;

  00117	83 c0 06	 add	 eax, 6
  0011a	89 46 0c	 mov	 DWORD PTR [esi+12], eax

; 508  : 		rect.bottom = rect.top + HEIGHTOFBUTTON;
; 509  : 		break;
; 510  : 	default:
; 511  : 		break;
; 512  : 	}
; 513  : 	return rect;

  0011d	8b c6		 mov	 eax, esi
  0011f	5f		 pop	 edi
  00120	5e		 pop	 esi
  00121	5b		 pop	 ebx

; 514  : }

  00122	8b e5		 mov	 esp, ebp
  00124	5d		 pop	 ebp
  00125	c2 0c 00	 ret	 12			; 0000000cH
$LN21@GetRectOfC:

; 444  : 
; 445  : 	case IDC_BTSEARCH:
; 446  : 		rect.top = rect.bottom - HEIGHTOFBUTTON - 3;
; 447  : 		rect.left = rect.right - 43 * 2 - 2;

  00128	8b 46 08	 mov	 eax, DWORD PTR [esi+8]
  0012b	83 c1 e9	 add	 ecx, -23		; ffffffe9H
  0012e	83 c0 a8	 add	 eax, -88		; ffffffa8H
  00131	89 4e 04	 mov	 DWORD PTR [esi+4], ecx
  00134	89 06		 mov	 DWORD PTR [esi], eax

; 448  : 		rect.right = rect.left + 43;

  00136	83 c0 2b	 add	 eax, 43			; 0000002bH
  00139	89 46 08	 mov	 DWORD PTR [esi+8], eax

; 449  : 		rect.bottom = rect.top + HEIGHTOFBUTTON;

  0013c	8d 41 14	 lea	 eax, DWORD PTR [ecx+20]
  0013f	89 46 0c	 mov	 DWORD PTR [esi+12], eax

; 508  : 		rect.bottom = rect.top + HEIGHTOFBUTTON;
; 509  : 		break;
; 510  : 	default:
; 511  : 		break;
; 512  : 	}
; 513  : 	return rect;

  00142	8b c6		 mov	 eax, esi
  00144	5f		 pop	 edi
  00145	5e		 pop	 esi
  00146	5b		 pop	 ebx

; 514  : }

  00147	8b e5		 mov	 esp, ebp
  00149	5d		 pop	 ebp
  0014a	c2 0c 00	 ret	 12			; 0000000cH
$LN22@GetRectOfC:

; 450  : 		break;
; 451  : 	case IDC_BTAPPLY:
; 452  : 		rect.top = rect.bottom - HEIGHTOFBUTTON - 3;
; 453  : 		//rect.left = rect.right - 60;
; 454  : 		rect.left = rect.right - 43;

  0014d	8b 46 08	 mov	 eax, DWORD PTR [esi+8]
  00150	83 c1 e9	 add	 ecx, -23		; ffffffe9H
  00153	83 c0 d5	 add	 eax, -43		; ffffffd5H
  00156	89 4e 04	 mov	 DWORD PTR [esi+4], ecx
  00159	89 06		 mov	 DWORD PTR [esi], eax

; 508  : 		rect.bottom = rect.top + HEIGHTOFBUTTON;
; 509  : 		break;
; 510  : 	default:
; 511  : 		break;
; 512  : 	}
; 513  : 	return rect;

  0015b	5f		 pop	 edi
  0015c	8d 41 14	 lea	 eax, DWORD PTR [ecx+20]
  0015f	89 46 0c	 mov	 DWORD PTR [esi+12], eax
  00162	8b c6		 mov	 eax, esi
  00164	5e		 pop	 esi
  00165	5b		 pop	 ebx

; 514  : }

  00166	8b e5		 mov	 esp, ebp
  00168	5d		 pop	 ebp
  00169	c2 0c 00	 ret	 12			; 0000000cH
$LN23@GetRectOfC:

; 455  : 		rect.bottom = rect.top + HEIGHTOFBUTTON;
; 456  : 		break;	
; 457  : 	case IDC_BTN_SHOW_REPEAT:
; 458  : 		rect.top = rect.bottom - HEIGHTOFBUTTON;

  0016c	8d 41 ec	 lea	 eax, DWORD PTR [ecx-20]
  0016f	89 46 04	 mov	 DWORD PTR [esi+4], eax

; 459  : 		rect.left = rect.left + 1;

  00172	8d 42 03	 lea	 eax, DWORD PTR [edx+3]
  00175	89 06		 mov	 DWORD PTR [esi], eax

; 460  : 		rect.right = rect.left + 30;		

  00177	83 c0 1e	 add	 eax, 30			; 0000001eH
  0017a	89 46 08	 mov	 DWORD PTR [esi+8], eax

; 508  : 		rect.bottom = rect.top + HEIGHTOFBUTTON;
; 509  : 		break;
; 510  : 	default:
; 511  : 		break;
; 512  : 	}
; 513  : 	return rect;

  0017d	8b c6		 mov	 eax, esi
  0017f	5f		 pop	 edi
  00180	5e		 pop	 esi
  00181	5b		 pop	 ebx

; 514  : }

  00182	8b e5		 mov	 esp, ebp
  00184	5d		 pop	 ebp
  00185	c2 0c 00	 ret	 12			; 0000000cH
$LN24@GetRectOfC:

; 461  : 		break;	
; 462  : 	case IDC_BTN_ADDITEM:
; 463  : 		rect.top = rect.bottom - HEIGHTOFBUTTON * 2;

  00188	83 c1 d8	 add	 ecx, -40		; ffffffd8H

; 464  : 		rect.left = rect.left + 1;

  0018b	8d 42 03	 lea	 eax, DWORD PTR [edx+3]
  0018e	89 06		 mov	 DWORD PTR [esi], eax

; 465  : 		rect.right = rect.left + 88;		

  00190	83 c0 58	 add	 eax, 88			; 00000058H
  00193	89 46 08	 mov	 DWORD PTR [esi+8], eax

; 508  : 		rect.bottom = rect.top + HEIGHTOFBUTTON;
; 509  : 		break;
; 510  : 	default:
; 511  : 		break;
; 512  : 	}
; 513  : 	return rect;

  00196	5f		 pop	 edi
  00197	8d 41 14	 lea	 eax, DWORD PTR [ecx+20]
  0019a	89 4e 04	 mov	 DWORD PTR [esi+4], ecx
  0019d	89 46 0c	 mov	 DWORD PTR [esi+12], eax
  001a0	8b c6		 mov	 eax, esi
  001a2	5e		 pop	 esi
  001a3	5b		 pop	 ebx

; 514  : }

  001a4	8b e5		 mov	 esp, ebp
  001a6	5d		 pop	 ebp
  001a7	c2 0c 00	 ret	 12			; 0000000cH
$LN25@GetRectOfC:

; 466  : 		rect.bottom = rect.top + HEIGHTOFBUTTON;
; 467  : 		break;
; 468  : 	case IDC_BTN_DELITEM:
; 469  : 		rect.top = rect.bottom - HEIGHTOFBUTTON * 2;

  001aa	83 c1 d8	 add	 ecx, -40		; ffffffd8H

; 470  : 		rect.left = rect.left + 1 + 89;

  001ad	8d 42 5c	 lea	 eax, DWORD PTR [edx+92]
  001b0	89 06		 mov	 DWORD PTR [esi], eax

; 471  : 		rect.right = rect.left + 61;		

  001b2	83 c0 3d	 add	 eax, 61			; 0000003dH
  001b5	89 46 08	 mov	 DWORD PTR [esi+8], eax

; 508  : 		rect.bottom = rect.top + HEIGHTOFBUTTON;
; 509  : 		break;
; 510  : 	default:
; 511  : 		break;
; 512  : 	}
; 513  : 	return rect;

  001b8	5f		 pop	 edi
  001b9	8d 41 14	 lea	 eax, DWORD PTR [ecx+20]
  001bc	89 4e 04	 mov	 DWORD PTR [esi+4], ecx
  001bf	89 46 0c	 mov	 DWORD PTR [esi+12], eax
  001c2	8b c6		 mov	 eax, esi
  001c4	5e		 pop	 esi
  001c5	5b		 pop	 ebx

; 514  : }

  001c6	8b e5		 mov	 esp, ebp
  001c8	5d		 pop	 ebp
  001c9	c2 0c 00	 ret	 12			; 0000000cH
$LN26@GetRectOfC:

; 472  : 		rect.bottom = rect.top + HEIGHTOFBUTTON;
; 473  : 		break;
; 474  : 	case IDC_CMB_TIME:
; 475  : 		rect.top = rect.bottom - HEIGHTOFBUTTON * 2;

  001cc	83 c1 d8	 add	 ecx, -40		; ffffffd8H

; 476  : 		rect.left = rect.left + 1 + 89 + 62;

  001cf	8d 82 9a 00 00
	00		 lea	 eax, DWORD PTR [edx+154]
  001d5	89 06		 mov	 DWORD PTR [esi], eax

; 477  : 		rect.right = rect.left + 55;

  001d7	83 c0 37	 add	 eax, 55			; 00000037H
  001da	89 46 08	 mov	 DWORD PTR [esi+8], eax

; 508  : 		rect.bottom = rect.top + HEIGHTOFBUTTON;
; 509  : 		break;
; 510  : 	default:
; 511  : 		break;
; 512  : 	}
; 513  : 	return rect;

  001dd	5f		 pop	 edi
  001de	8d 41 14	 lea	 eax, DWORD PTR [ecx+20]
  001e1	89 4e 04	 mov	 DWORD PTR [esi+4], ecx
  001e4	89 46 0c	 mov	 DWORD PTR [esi+12], eax
  001e7	8b c6		 mov	 eax, esi
  001e9	5e		 pop	 esi
  001ea	5b		 pop	 ebx

; 514  : }

  001eb	8b e5		 mov	 esp, ebp
  001ed	5d		 pop	 ebp
  001ee	c2 0c 00	 ret	 12			; 0000000cH
$LN27@GetRectOfC:

; 478  : 		rect.bottom = rect.top + HEIGHTOFBUTTON;
; 479  : 		break;	
; 480  : 	case IDC_BTN_PREV:
; 481  : 		rect.top = rect.bottom - HEIGHTOFBUTTON * 3;

  001f1	83 c1 c4	 add	 ecx, -60		; ffffffc4H

; 482  : 		rect.left = rect.left + 1;

  001f4	8d 42 03	 lea	 eax, DWORD PTR [edx+3]
  001f7	89 06		 mov	 DWORD PTR [esi], eax

; 483  : 		rect.right  = rect.left + 33;

  001f9	83 c0 21	 add	 eax, 33			; 00000021H
  001fc	89 46 08	 mov	 DWORD PTR [esi+8], eax

; 508  : 		rect.bottom = rect.top + HEIGHTOFBUTTON;
; 509  : 		break;
; 510  : 	default:
; 511  : 		break;
; 512  : 	}
; 513  : 	return rect;

  001ff	5f		 pop	 edi
  00200	8d 41 14	 lea	 eax, DWORD PTR [ecx+20]
  00203	89 4e 04	 mov	 DWORD PTR [esi+4], ecx
  00206	89 46 0c	 mov	 DWORD PTR [esi+12], eax
  00209	8b c6		 mov	 eax, esi
  0020b	5e		 pop	 esi
  0020c	5b		 pop	 ebx

; 514  : }

  0020d	8b e5		 mov	 esp, ebp
  0020f	5d		 pop	 ebp
  00210	c2 0c 00	 ret	 12			; 0000000cH
$LN28@GetRectOfC:

; 484  : 		rect.bottom = rect.top + HEIGHTOFBUTTON;
; 485  : 		break;
; 486  : 	case IDC_BTN_STOP:
; 487  : 		rect.top = rect.bottom - HEIGHTOFBUTTON * 3;

  00213	83 c1 c4	 add	 ecx, -60		; ffffffc4H

; 488  : 		rect.left  = rect.left + 1 + 34;

  00216	8d 42 25	 lea	 eax, DWORD PTR [edx+37]
  00219	89 06		 mov	 DWORD PTR [esi], eax

; 489  : 		rect.right = rect.left + 33;		

  0021b	83 c0 21	 add	 eax, 33			; 00000021H
  0021e	89 46 08	 mov	 DWORD PTR [esi+8], eax

; 508  : 		rect.bottom = rect.top + HEIGHTOFBUTTON;
; 509  : 		break;
; 510  : 	default:
; 511  : 		break;
; 512  : 	}
; 513  : 	return rect;

  00221	5f		 pop	 edi
  00222	8d 41 14	 lea	 eax, DWORD PTR [ecx+20]
  00225	89 4e 04	 mov	 DWORD PTR [esi+4], ecx
  00228	89 46 0c	 mov	 DWORD PTR [esi+12], eax
  0022b	8b c6		 mov	 eax, esi
  0022d	5e		 pop	 esi
  0022e	5b		 pop	 ebx

; 514  : }

  0022f	8b e5		 mov	 esp, ebp
  00231	5d		 pop	 ebp
  00232	c2 0c 00	 ret	 12			; 0000000cH
$LN29@GetRectOfC:

; 490  : 		rect.bottom = rect.top + HEIGHTOFBUTTON;
; 491  : 		break;
; 492  : 	case IDC_BTN_NEXT:
; 493  : 		rect.top = rect.bottom - HEIGHTOFBUTTON * 3;

  00235	83 c1 c4	 add	 ecx, -60		; ffffffc4H

; 494  : 		rect.left  = rect.left + 1 + 34 + 34;

  00238	8d 42 47	 lea	 eax, DWORD PTR [edx+71]
  0023b	89 06		 mov	 DWORD PTR [esi], eax

; 495  : 		rect.right = rect.left + 33;	

  0023d	83 c0 21	 add	 eax, 33			; 00000021H
  00240	89 46 08	 mov	 DWORD PTR [esi+8], eax

; 508  : 		rect.bottom = rect.top + HEIGHTOFBUTTON;
; 509  : 		break;
; 510  : 	default:
; 511  : 		break;
; 512  : 	}
; 513  : 	return rect;

  00243	5f		 pop	 edi
  00244	8d 41 14	 lea	 eax, DWORD PTR [ecx+20]
  00247	89 4e 04	 mov	 DWORD PTR [esi+4], ecx
  0024a	89 46 0c	 mov	 DWORD PTR [esi+12], eax
  0024d	8b c6		 mov	 eax, esi
  0024f	5e		 pop	 esi
  00250	5b		 pop	 ebx

; 514  : }

  00251	8b e5		 mov	 esp, ebp
  00253	5d		 pop	 ebp
  00254	c2 0c 00	 ret	 12			; 0000000cH
$LN30@GetRectOfC:

; 496  : 		rect.bottom = rect.top + HEIGHTOFBUTTON;
; 497  : 		break;
; 498  : 	case IDC_RADIO_MANUAL:
; 499  : 		rect.top = rect.bottom - HEIGHTOFBUTTON * 3;

  00257	83 c1 c4	 add	 ecx, -60		; ffffffc4H

; 500  : 		rect.left  = rect.left + 1 + 34 + 34 + 34;

  0025a	8d 42 69	 lea	 eax, DWORD PTR [edx+105]
  0025d	89 06		 mov	 DWORD PTR [esi], eax

; 501  : 		rect.right = rect.left + 42;	

  0025f	83 c0 2a	 add	 eax, 42			; 0000002aH
  00262	89 46 08	 mov	 DWORD PTR [esi+8], eax

; 508  : 		rect.bottom = rect.top + HEIGHTOFBUTTON;
; 509  : 		break;
; 510  : 	default:
; 511  : 		break;
; 512  : 	}
; 513  : 	return rect;

  00265	5f		 pop	 edi
  00266	8d 41 14	 lea	 eax, DWORD PTR [ecx+20]
  00269	89 4e 04	 mov	 DWORD PTR [esi+4], ecx
  0026c	89 46 0c	 mov	 DWORD PTR [esi+12], eax
  0026f	8b c6		 mov	 eax, esi
  00271	5e		 pop	 esi
  00272	5b		 pop	 ebx

; 514  : }

  00273	8b e5		 mov	 esp, ebp
  00275	5d		 pop	 ebp
  00276	c2 0c 00	 ret	 12			; 0000000cH
$LN31@GetRectOfC:

; 502  : 		rect.bottom = rect.top + HEIGHTOFBUTTON;
; 503  : 		break;
; 504  : 	case IDC_RADIO_AUTO:	
; 505  : 		rect.top = rect.bottom - HEIGHTOFBUTTON * 3;

  00279	83 c1 c4	 add	 ecx, -60		; ffffffc4H

; 506  : 		rect.left  = rect.left + 1 + 34 + 34 + 34 + 47;

  0027c	8d 82 98 00 00
	00		 lea	 eax, DWORD PTR [edx+152]
  00282	89 06		 mov	 DWORD PTR [esi], eax

; 507  : 		rect.right = rect.left + 42;	

  00284	83 c0 2a	 add	 eax, 42			; 0000002aH
  00287	89 46 08	 mov	 DWORD PTR [esi+8], eax

; 508  : 		rect.bottom = rect.top + HEIGHTOFBUTTON;
; 509  : 		break;
; 510  : 	default:
; 511  : 		break;
; 512  : 	}
; 513  : 	return rect;

  0028a	5f		 pop	 edi
  0028b	8d 41 14	 lea	 eax, DWORD PTR [ecx+20]
  0028e	89 4e 04	 mov	 DWORD PTR [esi+4], ecx
  00291	89 46 0c	 mov	 DWORD PTR [esi+12], eax
  00294	8b c6		 mov	 eax, esi
  00296	5e		 pop	 esi
  00297	5b		 pop	 ebx

; 514  : }

  00298	8b e5		 mov	 esp, ebp
  0029a	5d		 pop	 ebp
  0029b	c2 0c 00	 ret	 12			; 0000000cH
$LN6@GetRectOfC:

; 398  : 		break;
; 399  : 	case IDC_BTN_EXTEND:
; 400  : //		rect.top = rect.top + GAP_TABDLG;
; 401  : 		rect.bottom = rect.top + HEIGHTOFBUTTON;

  0029e	8d 47 14	 lea	 eax, DWORD PTR [edi+20]
  002a1	89 46 0c	 mov	 DWORD PTR [esi+12], eax

; 402  : 		rect.left = rect.left + 110 + GAP_TABDLG + 20 + 2;

  002a4	8d 82 8a 00 00
	00		 lea	 eax, DWORD PTR [edx+138]
  002aa	89 06		 mov	 DWORD PTR [esi], eax

; 403  : 		rect.right = rect.left + 20; 

  002ac	83 c0 14	 add	 eax, 20			; 00000014H
  002af	89 46 08	 mov	 DWORD PTR [esi+8], eax

; 508  : 		rect.bottom = rect.top + HEIGHTOFBUTTON;
; 509  : 		break;
; 510  : 	default:
; 511  : 		break;
; 512  : 	}
; 513  : 	return rect;

  002b2	8b c6		 mov	 eax, esi
  002b4	5f		 pop	 edi
  002b5	5e		 pop	 esi
  002b6	5b		 pop	 ebx

; 514  : }

  002b7	8b e5		 mov	 esp, ebp
  002b9	5d		 pop	 ebp
  002ba	c2 0c 00	 ret	 12			; 0000000cH
$LN34@GetRectOfC:

; 376  : 	switch(nID)

  002bd	2d 7c 18 00 00	 sub	 eax, 6268		; 0000187cH
  002c2	74 7f		 je	 SHORT $LN7@GetRectOfC
  002c4	83 e8 0b	 sub	 eax, 11			; 0000000bH
  002c7	74 54		 je	 SHORT $LN18@GetRectOfC
  002c9	2d ef 0e 00 00	 sub	 eax, 3823		; 00000eefH
  002ce	75 7f		 jne	 SHORT $LN32@GetRectOfC

; 408  : 		break;
; 409  : 	//007 }}
; 410  : 	case 10102 : 
; 411  : 		if(m_bFindExtend)
; 412  : 			rect.top = rect.top + HEIGHTOFBUTTON * 6 + GAP_TABDLG * 2;
; 413  : 		else
; 414  : 			rect.top = rect.top + HEIGHTOFBUTTON + GAP_TABDLG;
; 415  : 
; 416  : 		if(m_bShowJipyoItem)			

  002d0	83 bb 7c 05 00
	00 00		 cmp	 DWORD PTR [ebx+1404], 0
  002d7	ba 18 00 00 00	 mov	 edx, 24			; 00000018H
  002dc	b8 80 00 00 00	 mov	 eax, 128		; 00000080H
  002e1	0f 44 c2	 cmove	 eax, edx
  002e4	8d 14 38	 lea	 edx, DWORD PTR [eax+edi]
  002e7	89 56 04	 mov	 DWORD PTR [esi+4], edx
  002ea	83 bb e8 03 00
	00 00		 cmp	 DWORD PTR [ebx+1000], 0
  002f1	74 19		 je	 SHORT $LN11@GetRectOfC

; 417  : 			rect.bottom = rect.top + m_nHeightOfIndices - 2;			

  002f3	8b 8b 88 17 00
	00		 mov	 ecx, DWORD PTR [ebx+6024]

; 508  : 		rect.bottom = rect.top + HEIGHTOFBUTTON;
; 509  : 		break;
; 510  : 	default:
; 511  : 		break;
; 512  : 	}
; 513  : 	return rect;

  002f9	8b c6		 mov	 eax, esi
  002fb	83 c1 fe	 add	 ecx, -2			; fffffffeH
  002fe	03 ca		 add	 ecx, edx
  00300	5f		 pop	 edi
  00301	89 4e 0c	 mov	 DWORD PTR [esi+12], ecx
  00304	5e		 pop	 esi
  00305	5b		 pop	 ebx

; 514  : }

  00306	8b e5		 mov	 esp, ebp
  00308	5d		 pop	 ebp
  00309	c2 0c 00	 ret	 12			; 0000000cH
$LN11@GetRectOfC:

; 418  : 		else
; 419  : 			rect.bottom = rect.bottom - HEIGHTOFBUTTON - GAP_TABDLG - 2;

  0030c	83 c1 e6	 add	 ecx, -26		; ffffffe6H

; 508  : 		rect.bottom = rect.top + HEIGHTOFBUTTON;
; 509  : 		break;
; 510  : 	default:
; 511  : 		break;
; 512  : 	}
; 513  : 	return rect;

  0030f	8b c6		 mov	 eax, esi
  00311	5f		 pop	 edi
  00312	89 4e 0c	 mov	 DWORD PTR [esi+12], ecx
  00315	5e		 pop	 esi
  00316	5b		 pop	 ebx

; 514  : }

  00317	8b e5		 mov	 esp, ebp
  00319	5d		 pop	 ebp
  0031a	c2 0c 00	 ret	 12			; 0000000cH
$LN18@GetRectOfC:

; 435  : 		break;		
; 436  : 	case IDC_STATIC_TITLE2:
; 437  : 		rect.top = rect.bottom - HEIGHTOFBUTTON + 2 - 2;
; 438  : 		rect.left = rect.left + 5;
; 439  : 		if(nWidth > 150)
; 440  : 			rect.right = rect.left + 56;
; 441  : 		else
; 442  : 			rect.right = rect.left;
; 443  : 		break;

  0031d	81 7d fc 96 00
	00 00		 cmp	 DWORD PTR tv1587[ebp], 150 ; 00000096H
  00324	8d 41 ec	 lea	 eax, DWORD PTR [ecx-20]
  00327	89 46 04	 mov	 DWORD PTR [esi+4], eax
  0032a	8d 4a 07	 lea	 ecx, DWORD PTR [edx+7]
  0032d	8d 41 38	 lea	 eax, DWORD PTR [ecx+56]
  00330	89 0e		 mov	 DWORD PTR [esi], ecx
  00332	0f 4e c1	 cmovle	 eax, ecx
  00335	89 46 08	 mov	 DWORD PTR [esi+8], eax

; 508  : 		rect.bottom = rect.top + HEIGHTOFBUTTON;
; 509  : 		break;
; 510  : 	default:
; 511  : 		break;
; 512  : 	}
; 513  : 	return rect;

  00338	8b c6		 mov	 eax, esi
  0033a	5f		 pop	 edi
  0033b	5e		 pop	 esi
  0033c	5b		 pop	 ebx

; 514  : }

  0033d	8b e5		 mov	 esp, ebp
  0033f	5d		 pop	 ebp
  00340	c2 0c 00	 ret	 12			; 0000000cH
$LN7@GetRectOfC:

; 404  : 		break;
; 405  : 	case IDC_LIST_FIND:
; 406  : 		rect.top = rect.top + HEIGHTOFBUTTON + GAP_TABDLG;

  00343	8d 4f 18	 lea	 ecx, DWORD PTR [edi+24]
  00346	89 4e 04	 mov	 DWORD PTR [esi+4], ecx

; 407  : 		rect.bottom = rect.top + HEIGHTOFBUTTON * 5;        

  00349	83 c1 64	 add	 ecx, 100		; 00000064H

; 508  : 		rect.bottom = rect.top + HEIGHTOFBUTTON;
; 509  : 		break;
; 510  : 	default:
; 511  : 		break;
; 512  : 	}
; 513  : 	return rect;

  0034c	89 4e 0c	 mov	 DWORD PTR [esi+12], ecx
$LN32@GetRectOfC:
  0034f	5f		 pop	 edi
  00350	8b c6		 mov	 eax, esi
  00352	5e		 pop	 esi
  00353	5b		 pop	 ebx

; 514  : }

  00354	8b e5		 mov	 esp, ebp
  00356	5d		 pop	 ebp
  00357	c2 0c 00	 ret	 12			; 0000000cH
  0035a	66 90		 npad	 2
$LN44@GetRectOfC:
  0035c	00 00 00 00	 DD	 $LN21@GetRectOfC
  00360	00 00 00 00	 DD	 $LN22@GetRectOfC
  00364	00 00 00 00	 DD	 $LN16@GetRectOfC
  00368	00 00 00 00	 DD	 $LN17@GetRectOfC
  0036c	00 00 00 00	 DD	 $LN13@GetRectOfC
  00370	00 00 00 00	 DD	 $LN4@GetRectOfC
  00374	00 00 00 00	 DD	 $LN26@GetRectOfC
  00378	00 00 00 00	 DD	 $LN5@GetRectOfC
  0037c	00 00 00 00	 DD	 $LN25@GetRectOfC
  00380	00 00 00 00	 DD	 $LN29@GetRectOfC
  00384	00 00 00 00	 DD	 $LN23@GetRectOfC
  00388	00 00 00 00	 DD	 $LN24@GetRectOfC
  0038c	00 00 00 00	 DD	 $LN30@GetRectOfC
  00390	00 00 00 00	 DD	 $LN31@GetRectOfC
  00394	00 00 00 00	 DD	 $LN27@GetRectOfC
  00398	00 00 00 00	 DD	 $LN28@GetRectOfC
  0039c	00 00 00 00	 DD	 $LN32@GetRectOfC
$LN43@GetRectOfC:
  003a0	00		 DB	 0
  003a1	10		 DB	 16			; 00000010H
  003a2	01		 DB	 1
  003a3	10		 DB	 16			; 00000010H
  003a4	10		 DB	 16			; 00000010H
  003a5	10		 DB	 16			; 00000010H
  003a6	02		 DB	 2
  003a7	10		 DB	 16			; 00000010H
  003a8	03		 DB	 3
  003a9	10		 DB	 16			; 00000010H
  003aa	10		 DB	 16			; 00000010H
  003ab	10		 DB	 16			; 00000010H
  003ac	10		 DB	 16			; 00000010H
  003ad	10		 DB	 16			; 00000010H
  003ae	10		 DB	 16			; 00000010H
  003af	10		 DB	 16			; 00000010H
  003b0	04		 DB	 4
  003b1	10		 DB	 16			; 00000010H
  003b2	10		 DB	 16			; 00000010H
  003b3	10		 DB	 16			; 00000010H
  003b4	10		 DB	 16			; 00000010H
  003b5	10		 DB	 16			; 00000010H
  003b6	05		 DB	 5
  003b7	10		 DB	 16			; 00000010H
  003b8	06		 DB	 6
  003b9	10		 DB	 16			; 00000010H
  003ba	10		 DB	 16			; 00000010H
  003bb	10		 DB	 16			; 00000010H
  003bc	10		 DB	 16			; 00000010H
  003bd	10		 DB	 16			; 00000010H
  003be	10		 DB	 16			; 00000010H
  003bf	10		 DB	 16			; 00000010H
  003c0	10		 DB	 16			; 00000010H
  003c1	10		 DB	 16			; 00000010H
  003c2	10		 DB	 16			; 00000010H
  003c3	10		 DB	 16			; 00000010H
  003c4	10		 DB	 16			; 00000010H
  003c5	10		 DB	 16			; 00000010H
  003c6	10		 DB	 16			; 00000010H
  003c7	10		 DB	 16			; 00000010H
  003c8	10		 DB	 16			; 00000010H
  003c9	10		 DB	 16			; 00000010H
  003ca	10		 DB	 16			; 00000010H
  003cb	10		 DB	 16			; 00000010H
  003cc	10		 DB	 16			; 00000010H
  003cd	10		 DB	 16			; 00000010H
  003ce	10		 DB	 16			; 00000010H
  003cf	10		 DB	 16			; 00000010H
  003d0	10		 DB	 16			; 00000010H
  003d1	10		 DB	 16			; 00000010H
  003d2	10		 DB	 16			; 00000010H
  003d3	10		 DB	 16			; 00000010H
  003d4	10		 DB	 16			; 00000010H
  003d5	10		 DB	 16			; 00000010H
  003d6	10		 DB	 16			; 00000010H
  003d7	10		 DB	 16			; 00000010H
  003d8	10		 DB	 16			; 00000010H
  003d9	10		 DB	 16			; 00000010H
  003da	10		 DB	 16			; 00000010H
  003db	10		 DB	 16			; 00000010H
  003dc	10		 DB	 16			; 00000010H
  003dd	10		 DB	 16			; 00000010H
  003de	10		 DB	 16			; 00000010H
  003df	10		 DB	 16			; 00000010H
  003e0	07		 DB	 7
  003e1	10		 DB	 16			; 00000010H
  003e2	10		 DB	 16			; 00000010H
  003e3	10		 DB	 16			; 00000010H
  003e4	10		 DB	 16			; 00000010H
  003e5	10		 DB	 16			; 00000010H
  003e6	10		 DB	 16			; 00000010H
  003e7	10		 DB	 16			; 00000010H
  003e8	10		 DB	 16			; 00000010H
  003e9	10		 DB	 16			; 00000010H
  003ea	10		 DB	 16			; 00000010H
  003eb	10		 DB	 16			; 00000010H
  003ec	10		 DB	 16			; 00000010H
  003ed	10		 DB	 16			; 00000010H
  003ee	10		 DB	 16			; 00000010H
  003ef	10		 DB	 16			; 00000010H
  003f0	10		 DB	 16			; 00000010H
  003f1	10		 DB	 16			; 00000010H
  003f2	10		 DB	 16			; 00000010H
  003f3	10		 DB	 16			; 00000010H
  003f4	10		 DB	 16			; 00000010H
  003f5	10		 DB	 16			; 00000010H
  003f6	10		 DB	 16			; 00000010H
  003f7	10		 DB	 16			; 00000010H
  003f8	10		 DB	 16			; 00000010H
  003f9	10		 DB	 16			; 00000010H
  003fa	10		 DB	 16			; 00000010H
  003fb	10		 DB	 16			; 00000010H
  003fc	10		 DB	 16			; 00000010H
  003fd	10		 DB	 16			; 00000010H
  003fe	10		 DB	 16			; 00000010H
  003ff	10		 DB	 16			; 00000010H
  00400	10		 DB	 16			; 00000010H
  00401	10		 DB	 16			; 00000010H
  00402	10		 DB	 16			; 00000010H
  00403	10		 DB	 16			; 00000010H
  00404	10		 DB	 16			; 00000010H
  00405	10		 DB	 16			; 00000010H
  00406	10		 DB	 16			; 00000010H
  00407	10		 DB	 16			; 00000010H
  00408	10		 DB	 16			; 00000010H
  00409	10		 DB	 16			; 00000010H
  0040a	10		 DB	 16			; 00000010H
  0040b	10		 DB	 16			; 00000010H
  0040c	10		 DB	 16			; 00000010H
  0040d	10		 DB	 16			; 00000010H
  0040e	10		 DB	 16			; 00000010H
  0040f	10		 DB	 16			; 00000010H
  00410	10		 DB	 16			; 00000010H
  00411	10		 DB	 16			; 00000010H
  00412	10		 DB	 16			; 00000010H
  00413	10		 DB	 16			; 00000010H
  00414	10		 DB	 16			; 00000010H
  00415	10		 DB	 16			; 00000010H
  00416	10		 DB	 16			; 00000010H
  00417	10		 DB	 16			; 00000010H
  00418	10		 DB	 16			; 00000010H
  00419	10		 DB	 16			; 00000010H
  0041a	10		 DB	 16			; 00000010H
  0041b	10		 DB	 16			; 00000010H
  0041c	10		 DB	 16			; 00000010H
  0041d	10		 DB	 16			; 00000010H
  0041e	10		 DB	 16			; 00000010H
  0041f	10		 DB	 16			; 00000010H
  00420	10		 DB	 16			; 00000010H
  00421	10		 DB	 16			; 00000010H
  00422	10		 DB	 16			; 00000010H
  00423	10		 DB	 16			; 00000010H
  00424	10		 DB	 16			; 00000010H
  00425	10		 DB	 16			; 00000010H
  00426	10		 DB	 16			; 00000010H
  00427	10		 DB	 16			; 00000010H
  00428	10		 DB	 16			; 00000010H
  00429	10		 DB	 16			; 00000010H
  0042a	10		 DB	 16			; 00000010H
  0042b	10		 DB	 16			; 00000010H
  0042c	10		 DB	 16			; 00000010H
  0042d	10		 DB	 16			; 00000010H
  0042e	10		 DB	 16			; 00000010H
  0042f	10		 DB	 16			; 00000010H
  00430	10		 DB	 16			; 00000010H
  00431	10		 DB	 16			; 00000010H
  00432	10		 DB	 16			; 00000010H
  00433	10		 DB	 16			; 00000010H
  00434	10		 DB	 16			; 00000010H
  00435	10		 DB	 16			; 00000010H
  00436	10		 DB	 16			; 00000010H
  00437	10		 DB	 16			; 00000010H
  00438	10		 DB	 16			; 00000010H
  00439	10		 DB	 16			; 00000010H
  0043a	10		 DB	 16			; 00000010H
  0043b	10		 DB	 16			; 00000010H
  0043c	10		 DB	 16			; 00000010H
  0043d	10		 DB	 16			; 00000010H
  0043e	10		 DB	 16			; 00000010H
  0043f	10		 DB	 16			; 00000010H
  00440	10		 DB	 16			; 00000010H
  00441	10		 DB	 16			; 00000010H
  00442	10		 DB	 16			; 00000010H
  00443	10		 DB	 16			; 00000010H
  00444	10		 DB	 16			; 00000010H
  00445	10		 DB	 16			; 00000010H
  00446	10		 DB	 16			; 00000010H
  00447	10		 DB	 16			; 00000010H
  00448	10		 DB	 16			; 00000010H
  00449	10		 DB	 16			; 00000010H
  0044a	10		 DB	 16			; 00000010H
  0044b	10		 DB	 16			; 00000010H
  0044c	10		 DB	 16			; 00000010H
  0044d	10		 DB	 16			; 00000010H
  0044e	10		 DB	 16			; 00000010H
  0044f	10		 DB	 16			; 00000010H
  00450	10		 DB	 16			; 00000010H
  00451	10		 DB	 16			; 00000010H
  00452	10		 DB	 16			; 00000010H
  00453	10		 DB	 16			; 00000010H
  00454	10		 DB	 16			; 00000010H
  00455	10		 DB	 16			; 00000010H
  00456	10		 DB	 16			; 00000010H
  00457	10		 DB	 16			; 00000010H
  00458	10		 DB	 16			; 00000010H
  00459	10		 DB	 16			; 00000010H
  0045a	10		 DB	 16			; 00000010H
  0045b	10		 DB	 16			; 00000010H
  0045c	10		 DB	 16			; 00000010H
  0045d	10		 DB	 16			; 00000010H
  0045e	10		 DB	 16			; 00000010H
  0045f	10		 DB	 16			; 00000010H
  00460	10		 DB	 16			; 00000010H
  00461	10		 DB	 16			; 00000010H
  00462	10		 DB	 16			; 00000010H
  00463	10		 DB	 16			; 00000010H
  00464	10		 DB	 16			; 00000010H
  00465	10		 DB	 16			; 00000010H
  00466	10		 DB	 16			; 00000010H
  00467	10		 DB	 16			; 00000010H
  00468	10		 DB	 16			; 00000010H
  00469	10		 DB	 16			; 00000010H
  0046a	10		 DB	 16			; 00000010H
  0046b	10		 DB	 16			; 00000010H
  0046c	10		 DB	 16			; 00000010H
  0046d	10		 DB	 16			; 00000010H
  0046e	10		 DB	 16			; 00000010H
  0046f	10		 DB	 16			; 00000010H
  00470	10		 DB	 16			; 00000010H
  00471	10		 DB	 16			; 00000010H
  00472	10		 DB	 16			; 00000010H
  00473	10		 DB	 16			; 00000010H
  00474	08		 DB	 8
  00475	09		 DB	 9
  00476	10		 DB	 16			; 00000010H
  00477	10		 DB	 16			; 00000010H
  00478	10		 DB	 16			; 00000010H
  00479	10		 DB	 16			; 00000010H
  0047a	10		 DB	 16			; 00000010H
  0047b	0a		 DB	 10			; 0000000aH
  0047c	0b		 DB	 11			; 0000000bH
  0047d	0c		 DB	 12			; 0000000cH
  0047e	0d		 DB	 13			; 0000000dH
  0047f	0e		 DB	 14			; 0000000eH
  00480	0f		 DB	 15			; 0000000fH
?GetRectOfCtrl@CTabIndices@@EAE?AVCRect@@HH@Z ENDP	; CTabIndices::GetRectOfCtrl
_TEXT	ENDS
; Function compile flags: /Ogtp
; File D:\git\src\IBK\IBK_DRFN\ProjSrc\SrcDrfn\Chart\MULTICHART\TabIndices.cpp
; File C:\Program Files (x86)\Microsoft Visual Studio\2019\Community\VC\Tools\MSVC\14.29.30133\atlmfc\include\afxwin2.inl
; File D:\git\src\IBK\IBK_DRFN\ProjSrc\SrcDrfn\Chart\MULTICHART\TabIndices.cpp
; File C:\Program Files (x86)\Microsoft Visual Studio\2019\Community\VC\Tools\MSVC\14.29.30133\atlmfc\include\atltypes.h
; File D:\git\src\IBK\IBK_DRFN\ProjSrc\SrcDrfn\Chart\MULTICHART\TabIndices.cpp
; File C:\Program Files (x86)\Microsoft Visual Studio\2019\Community\VC\Tools\MSVC\14.29.30133\atlmfc\include\atltypes.h
; File D:\git\src\IBK\IBK_DRFN\ProjSrc\SrcDrfn\Chart\MULTICHART\TabIndices.cpp
; File C:\Program Files (x86)\Microsoft Visual Studio\2019\Community\VC\Tools\MSVC\14.29.30133\atlmfc\include\afxwin2.inl
; File D:\git\src\IBK\IBK_DRFN\ProjSrc\SrcDrfn\Chart\MULTICHART\TabIndices.cpp
; File C:\Program Files (x86)\Microsoft Visual Studio\2019\Community\VC\Tools\MSVC\14.29.30133\atlmfc\include\afxwin2.inl
; File D:\git\src\IBK\IBK_DRFN\ProjSrc\SrcDrfn\Chart\MULTICHART\TabIndices.cpp
; File C:\Program Files (x86)\Microsoft Visual Studio\2019\Community\VC\Tools\MSVC\14.29.30133\atlmfc\include\afxwin2.inl
; File D:\git\src\IBK\IBK_DRFN\ProjSrc\SrcDrfn\Chart\MULTICHART\TabIndices.cpp
; File C:\Program Files (x86)\Microsoft Visual Studio\2019\Community\VC\Tools\MSVC\14.29.30133\atlmfc\include\afxcoll.inl
; File D:\git\src\IBK\IBK_DRFN\ProjSrc\SrcDrfn\Chart\MULTICHART\TabIndices.cpp
; File C:\Program Files (x86)\Microsoft Visual Studio\2019\Community\VC\Tools\MSVC\14.29.30133\atlmfc\include\afxcoll.inl
; File C:\Program Files (x86)\Microsoft Visual Studio\2019\Community\VC\Tools\MSVC\14.29.30133\atlmfc\include\afxwin1.inl
; File D:\git\src\IBK\IBK_DRFN\ProjSrc\SrcDrfn\Chart\MULTICHART\TabIndices.cpp
; File C:\Program Files (x86)\Microsoft Visual Studio\2019\Community\VC\Tools\MSVC\14.29.30133\atlmfc\include\afxwin1.inl
; File D:\git\src\IBK\IBK_DRFN\ProjSrc\SrcDrfn\Chart\MULTICHART\TabIndices.cpp
; File C:\Program Files (x86)\Microsoft Visual Studio\2019\Community\VC\Tools\MSVC\14.29.30133\atlmfc\include\afxwin1.inl
; File D:\git\src\IBK\IBK_DRFN\ProjSrc\SrcDrfn\Chart\MULTICHART\TabIndices.cpp
; File C:\Program Files (x86)\Microsoft Visual Studio\2019\Community\VC\Tools\MSVC\14.29.30133\atlmfc\include\afx.inl
; File D:\git\src\IBK\IBK_DRFN\ProjSrc\SrcDrfn\Chart\MULTICHART\TabIndices.cpp
; File C:\Program Files (x86)\Microsoft Visual Studio\2019\Community\VC\Tools\MSVC\14.29.30133\atlmfc\include\afxwin1.inl
; File C:\Program Files (x86)\Microsoft Visual Studio\2019\Community\VC\Tools\MSVC\14.29.30133\atlmfc\include\afxcmn.inl
; File D:\git\src\IBK\IBK_DRFN\ProjSrc\SrcDrfn\Chart\MULTICHART\TabIndices.cpp
; File C:\Program Files (x86)\Microsoft Visual Studio\2019\Community\VC\Tools\MSVC\14.29.30133\atlmfc\include\afxcoll.inl
; File D:\git\src\IBK\IBK_DRFN\ProjSrc\SrcDrfn\Chart\MULTICHART\TabIndices.cpp
; File C:\Program Files (x86)\Microsoft Visual Studio\2019\Community\VC\Tools\MSVC\14.29.30133\atlmfc\include\afxcoll.inl
; File C:\Program Files (x86)\Microsoft Visual Studio\2019\Community\VC\Tools\MSVC\14.29.30133\atlmfc\include\afxtempl.h
; File C:\Program Files (x86)\Microsoft Visual Studio\2019\Community\VC\Tools\MSVC\14.29.30133\atlmfc\include\afxcoll.inl
; File C:\Program Files (x86)\Microsoft Visual Studio\2019\Community\VC\Tools\MSVC\14.29.30133\atlmfc\include\afxtempl.h
; File D:\git\src\IBK\IBK_DRFN\ProjSrc\SrcDrfn\Chart\MULTICHART\TabIndices.cpp
; File C:\Program Files (x86)\Microsoft Visual Studio\2019\Community\VC\Tools\MSVC\14.29.30133\atlmfc\include\afxcoll.inl
; File D:\git\src\IBK\IBK_DRFN\ProjSrc\SrcDrfn\Chart\MULTICHART\TabIndices.cpp
; File C:\Program Files (x86)\Microsoft Visual Studio\2019\Community\VC\Tools\MSVC\14.29.30133\atlmfc\include\afxcoll.inl
; File D:\git\src\IBK\IBK_DRFN\ProjSrc\SrcDrfn\Chart\MULTICHART\TabIndices.cpp
; File C:\Program Files (x86)\Microsoft Visual Studio\2019\Community\VC\Tools\MSVC\14.29.30133\atlmfc\include\afxcoll.inl
; File D:\git\src\IBK\IBK_DRFN\ProjSrc\SrcDrfn\Chart\MULTICHART\TabIndices.cpp
; File C:\Program Files (x86)\Microsoft Visual Studio\2019\Community\VC\Tools\MSVC\14.29.30133\atlmfc\include\afxwin2.inl
; File D:\git\src\IBK\IBK_DRFN\ProjSrc\SrcDrfn\Chart\MULTICHART\TabIndices.cpp
; File C:\Program Files (x86)\Microsoft Visual Studio\2019\Community\VC\Tools\MSVC\14.29.30133\atlmfc\include\afxwin2.inl
; File D:\git\src\IBK\IBK_DRFN\ProjSrc\SrcDrfn\Chart\MULTICHART\TabIndices.cpp
; File C:\Program Files (x86)\Microsoft Visual Studio\2019\Community\VC\Tools\MSVC\14.29.30133\atlmfc\include\afxcoll.inl
; File D:\git\src\IBK\IBK_DRFN\ProjSrc\SrcDrfn\Chart\MULTICHART\TabIndices.cpp
; File C:\Program Files (x86)\Microsoft Visual Studio\2019\Community\VC\Tools\MSVC\14.29.30133\atlmfc\include\afxcoll.inl
; File D:\git\src\IBK\IBK_DRFN\ProjSrc\SrcDrfn\Chart\MULTICHART\TabIndices.cpp
; File C:\Program Files (x86)\Microsoft Visual Studio\2019\Community\VC\Tools\MSVC\14.29.30133\atlmfc\include\afxcmn.inl
; File D:\git\src\IBK\IBK_DRFN\ProjSrc\SrcDrfn\Chart\MULTICHART\TabIndices.cpp
; File C:\Program Files (x86)\Microsoft Visual Studio\2019\Community\VC\Tools\MSVC\14.29.30133\atlmfc\include\afxwin1.inl
; File D:\git\src\IBK\IBK_DRFN\ProjSrc\SrcDrfn\Chart\MULTICHART\TabIndices.cpp
;	COMDAT ?SetItemForm@CTabIndices@@AAEXXZ
_TEXT	SEGMENT
_strArrayMarket$ = -480					; size = 20
_pFavoriteMng$2 = -460					; size = 52
_strArrayIndicatorAll$ = -408				; size = 20
$T3 = -388						; size = 4
_strGrpName$4 = -384					; size = 4
_pImageList$1$ = -380					; size = 4
_strArrayIndicator$ = -376				; size = 20
_lIndex$1$ = -356					; size = 4
$T5 = -352						; size = 4
tv885 = -348						; size = 4
_wIndexItem$1$ = -344					; size = 4
_this$1$ = -340						; size = 4
_bitmap$ = -336						; size = 8
_wSizeItem$1$ = -328					; size = 4
_lSize$1$ = -328					; size = 4
_strIndicator$ = -324					; size = 4
_this$GSCopy$1$ = -320					; size = 4
_strImageDir$ = -316					; size = 4
__stFvrData$6 = -312					; size = 280
$T7 = -32						; size = 16
$T8 = -32						; size = 16
__$ArrayPad$ = -16					; size = 4
__$EHRec$ = -12						; size = 12
?SetItemForm@CTabIndices@@AAEXXZ PROC			; CTabIndices::SetItemForm, COMDAT
; _this$ = ecx

; 580  : {

  00000	55		 push	 ebp
  00001	8b ec		 mov	 ebp, esp
  00003	6a ff		 push	 -1
  00005	68 00 00 00 00	 push	 __ehhandler$?SetItemForm@CTabIndices@@AAEXXZ
  0000a	64 a1 00 00 00
	00		 mov	 eax, DWORD PTR fs:0
  00010	50		 push	 eax
  00011	81 ec d4 01 00
	00		 sub	 esp, 468		; 000001d4H
  00017	a1 00 00 00 00	 mov	 eax, DWORD PTR ___security_cookie
  0001c	33 c5		 xor	 eax, ebp
  0001e	89 45 f0	 mov	 DWORD PTR __$ArrayPad$[ebp], eax
  00021	56		 push	 esi
  00022	57		 push	 edi
  00023	50		 push	 eax
  00024	8d 45 f4	 lea	 eax, DWORD PTR __$EHRec$[ebp]
  00027	64 a3 00 00 00
	00		 mov	 DWORD PTR fs:0, eax
  0002d	8b f1		 mov	 esi, ecx
  0002f	89 b5 c0 fe ff
	ff		 mov	 DWORD PTR _this$GSCopy$1$[ebp], esi

; 852  : 	m_listItems.ShowWindow(SW_HIDE);

  00035	6a 00		 push	 0
  00037	8d 8e d8 01 00
	00		 lea	 ecx, DWORD PTR [esi+472]
  0003d	e8 00 00 00 00	 call	 ?ShowWindow@CWnd@@QAEHH@Z ; CWnd::ShowWindow

; 854  : 	if(m_ctrlOutBar)

  00042	8d be f0 03 00
	00		 lea	 edi, DWORD PTR [esi+1008]
  00048	89 bd ac fe ff
	ff		 mov	 DWORD PTR _this$1$[ebp], edi
; File C:\Program Files (x86)\Microsoft Visual Studio\2019\Community\VC\Tools\MSVC\14.29.30133\atlmfc\include\afxwin2.inl

; 19   : 	{ return this == NULL ? NULL : m_hWnd; }

  0004e	85 ff		 test	 edi, edi
  00050	74 0f		 je	 SHORT $LN33@SetItemFor
; File D:\git\src\IBK\IBK_DRFN\ProjSrc\SrcDrfn\Chart\MULTICHART\TabIndices.cpp

; 854  : 	if(m_ctrlOutBar)

  00052	83 7f 20 00	 cmp	 DWORD PTR [edi+32], 0
  00056	74 09		 je	 SHORT $LN33@SetItemFor

; 855  : 		m_ctrlOutBar.ShowWindow(SW_SHOW);

  00058	6a 05		 push	 5
  0005a	8b cf		 mov	 ecx, edi
  0005c	e8 00 00 00 00	 call	 ?ShowWindow@CWnd@@QAEHH@Z ; CWnd::ShowWindow
$LN33@SetItemFor:

; 856  : 	m_pParentDlg->GetIndicatorNameListIntoTreeCtrl(m_treeItems);

  00061	8b 8e bc 00 00
	00		 mov	 ecx, DWORD PTR [esi+188]
  00067	8d 86 48 16 00
	00		 lea	 eax, DWORD PTR [esi+5704]
  0006d	50		 push	 eax
  0006e	e8 00 00 00 00	 call	 ?GetIndicatorNameListIntoTreeCtrl@CLeftBarDlg@@QAEXAAVCTreeCtrl@@@Z ; CLeftBarDlg::GetIndicatorNameListIntoTreeCtrl
; File C:\Program Files (x86)\Microsoft Visual Studio\2019\Community\VC\Tools\MSVC\14.29.30133\atlmfc\include\atltypes.h

; 540  : 	left = l;

  00073	0f 28 05 00 00
	00 00		 movaps	 xmm0, XMMWORD PTR __xmm@00000064000000640000000000000000
; File D:\git\src\IBK\IBK_DRFN\ProjSrc\SrcDrfn\Chart\MULTICHART\TabIndices.cpp

; 588  : 	m_ctrlOutBar.Create(WS_CHILD|WS_VISIBLE, CRect(0,0,100,100), this, 10102, dwf);

  0007a	8d 45 e0	 lea	 eax, DWORD PTR $T8[ebp]
  0007d	68 fc 03 00 00	 push	 1020			; 000003fcH
  00082	68 76 27 00 00	 push	 10102			; 00002776H
  00087	56		 push	 esi
  00088	50		 push	 eax
  00089	68 00 00 00 50	 push	 1342177280		; 50000000H
  0008e	8b cf		 mov	 ecx, edi
; File C:\Program Files (x86)\Microsoft Visual Studio\2019\Community\VC\Tools\MSVC\14.29.30133\atlmfc\include\atltypes.h

; 540  : 	left = l;

  00090	0f 11 45 e0	 movups	 XMMWORD PTR $T8[ebp], xmm0
; File D:\git\src\IBK\IBK_DRFN\ProjSrc\SrcDrfn\Chart\MULTICHART\TabIndices.cpp

; 588  : 	m_ctrlOutBar.Create(WS_CHILD|WS_VISIBLE, CRect(0,0,100,100), this, 10102, dwf);

  00094	e8 00 00 00 00	 call	 ?Create@CGfxOutBarCtrl@@QAEHKABUtagRECT@@PAVCWnd@@IK@Z ; CGfxOutBarCtrl::Create

; 589  : 	//2006.12.07  
; 590  : 	//LeftBar     
; 591  : 	//m_ctrlOutBar.SetFolderImageList(m_pIL_W151H21, 0, 2, 3);
; 592  : 	m_ctrlOutBar.SetFolderImageList(&m_ImageOutbarIcon, 0, 1, 3);

  00099	6a 03		 push	 3
  0009b	6a 01		 push	 1
  0009d	8d 86 98 17 00
	00		 lea	 eax, DWORD PTR [esi+6040]
  000a3	8b cf		 mov	 ecx, edi
  000a5	6a 00		 push	 0
  000a7	50		 push	 eax
  000a8	e8 00 00 00 00	 call	 ?SetFolderImageList@CGfxOutBarCtrl@@QAEXPAVCImageList@@HHH@Z ; CGfxOutBarCtrl::SetFolderImageList
; File C:\Program Files (x86)\Microsoft Visual Studio\2019\Community\VC\Tools\MSVC\14.29.30133\atlmfc\include\afxwin2.inl

; 29   : 	{ m_hWndOwner = pOwnerWnd != NULL ? pOwnerWnd->m_hWnd : NULL; }

  000ad	8b 46 20	 mov	 eax, DWORD PTR [esi+32]

; 32   : 	{ ASSERT(::IsWindow(m_hWnd)); return ::SendMessage(m_hWnd, message, wParam, lParam); }

  000b0	6a 00		 push	 0

; 29   : 	{ m_hWndOwner = pOwnerWnd != NULL ? pOwnerWnd->m_hWnd : NULL; }

  000b2	89 86 4c 04 00
	00		 mov	 DWORD PTR [esi+1100], eax
; File D:\git\src\IBK\IBK_DRFN\ProjSrc\SrcDrfn\Chart\MULTICHART\TabIndices.cpp

; 601  : 	m_ctrlOutBar.cr3dUnFace = (COLORREF)m_pMultiChartWnd->SendMessage(RMSG_GET_SKINCOLOR, (WPARAM)0);

  000b8	8b 86 c0 00 00
	00		 mov	 eax, DWORD PTR [esi+192]
; File C:\Program Files (x86)\Microsoft Visual Studio\2019\Community\VC\Tools\MSVC\14.29.30133\atlmfc\include\afxwin2.inl

; 32   : 	{ ASSERT(::IsWindow(m_hWnd)); return ::SendMessage(m_hWnd, message, wParam, lParam); }

  000be	6a 00		 push	 0
  000c0	ff 35 00 00 00
	00		 push	 DWORD PTR ?RMSG_GET_SKINCOLOR@@3IB
; File D:\git\src\IBK\IBK_DRFN\ProjSrc\SrcDrfn\Chart\MULTICHART\TabIndices.cpp

; 600  : 	m_ctrlOutBar.cr3dFace =  RGB(191,211,233);

  000c6	c7 86 80 04 00
	00 bf d3 e9 00	 mov	 DWORD PTR [esi+1152], 15324095 ; 00e9d3bfH
; File C:\Program Files (x86)\Microsoft Visual Studio\2019\Community\VC\Tools\MSVC\14.29.30133\atlmfc\include\afxwin2.inl

; 32   : 	{ ASSERT(::IsWindow(m_hWnd)); return ::SendMessage(m_hWnd, message, wParam, lParam); }

  000d0	ff 70 20	 push	 DWORD PTR [eax+32]
  000d3	ff 15 00 00 00
	00		 call	 DWORD PTR __imp__SendMessageA@16
; File D:\git\src\IBK\IBK_DRFN\ProjSrc\SrcDrfn\Chart\MULTICHART\TabIndices.cpp

; 614  : 	CStringArray strArrayIndicator;	

  000d9	8d 8d 88 fe ff
	ff		 lea	 ecx, DWORD PTR _strArrayIndicator$[ebp]
  000df	89 86 84 04 00
	00		 mov	 DWORD PTR [esi+1156], eax
  000e5	e8 00 00 00 00	 call	 ??0CStringArray@@QAE@XZ	; CStringArray::CStringArray

; 615  : 	CStringArray strArrayIndicatorAll;	

  000ea	8d 8d 68 fe ff
	ff		 lea	 ecx, DWORD PTR _strArrayIndicatorAll$[ebp]
  000f0	c7 45 fc 00 00
	00 00		 mov	 DWORD PTR __$EHRec$[ebp+8], 0
  000f7	e8 00 00 00 00	 call	 ??0CStringArray@@QAE@XZ	; CStringArray::CStringArray

; 616  : 	CStringArray strArrayMarket; //   .

  000fc	8d 8d 20 fe ff
	ff		 lea	 ecx, DWORD PTR _strArrayMarket$[ebp]
  00102	c6 45 fc 01	 mov	 BYTE PTR __$EHRec$[ebp+8], 1
  00106	e8 00 00 00 00	 call	 ??0CStringArray@@QAE@XZ	; CStringArray::CStringArray

; 619  : 	CString strIndicator;

  0010b	8d 8d bc fe ff
	ff		 lea	 ecx, DWORD PTR _strIndicator$[ebp]
  00111	ff 15 00 00 00
	00		 call	 DWORD PTR __imp_??0?$CStringT@DV?$StrTraitMFC_DLL@DV?$ChTraitsCRT@D@ATL@@@@@ATL@@QAE@XZ
; File C:\Program Files (x86)\Microsoft Visual Studio\2019\Community\VC\Tools\MSVC\14.29.30133\atlmfc\include\afxcoll.inl

; 286  : 	{ SetSize(0); }

  00117	6a ff		 push	 -1
  00119	6a 00		 push	 0
  0011b	8d 8d 68 fe ff
	ff		 lea	 ecx, DWORD PTR _strArrayIndicatorAll$[ebp]
; File D:\git\src\IBK\IBK_DRFN\ProjSrc\SrcDrfn\Chart\MULTICHART\TabIndices.cpp

; 619  : 	CString strIndicator;

  00121	c6 45 fc 03	 mov	 BYTE PTR __$EHRec$[ebp+8], 3
; File C:\Program Files (x86)\Microsoft Visual Studio\2019\Community\VC\Tools\MSVC\14.29.30133\atlmfc\include\afxcoll.inl

; 286  : 	{ SetSize(0); }

  00125	e8 00 00 00 00	 call	 ?SetSize@CStringArray@@QAEXHH@Z ; CStringArray::SetSize
; File C:\Program Files (x86)\Microsoft Visual Studio\2019\Community\VC\Tools\MSVC\14.29.30133\atlmfc\include\afxwin1.inl

; 70   : 	{ m_hObject = NULL; }

  0012a	c7 85 b4 fe ff
	ff 00 00 00 00	 mov	 DWORD PTR _bitmap$[ebp+4], 0

; 177  : 	{ }

  00134	c7 85 b0 fe ff
	ff 00 00 00 00	 mov	 DWORD PTR _bitmap$[ebp], OFFSET ??_7CBitmap@@6B@
; File D:\git\src\IBK\IBK_DRFN\ProjSrc\SrcDrfn\Chart\MULTICHART\TabIndices.cpp

; 631  : 	CString strImageDir;

  0013e	8d 8d c4 fe ff
	ff		 lea	 ecx, DWORD PTR _strImageDir$[ebp]
  00144	ff 15 00 00 00
	00		 call	 DWORD PTR __imp_??0?$CStringT@DV?$StrTraitMFC_DLL@DV?$ChTraitsCRT@D@ATL@@@@@ATL@@QAE@XZ

; 632  : 	strImageDir.Format("%s\\folder.bmp", m_pParentDlg->m_szImageDir);

  0014a	8b 86 bc 00 00
	00		 mov	 eax, DWORD PTR [esi+188]
  00150	c6 45 fc 05	 mov	 BYTE PTR __$EHRec$[ebp+8], 5
  00154	ff b0 ac 01 00
	00		 push	 DWORD PTR [eax+428]
  0015a	8d 85 c4 fe ff
	ff		 lea	 eax, DWORD PTR _strImageDir$[ebp]
  00160	68 00 00 00 00	 push	 OFFSET ??_C@_0O@DADNAINN@?$CFs?2folder?4bmp@
  00165	50		 push	 eax
  00166	ff 15 00 00 00
	00		 call	 DWORD PTR __imp_?Format@?$CStringT@DV?$StrTraitMFC_DLL@DV?$ChTraitsCRT@D@ATL@@@@@ATL@@QAAXPBDZZ

; 633  : 	bitmap.Attach((HBITMAP)LoadImage(NULL, (LPSTR)(LPCTSTR)strImageDir, IMAGE_BITMAP, 0, 0, LR_LOADFROMFILE|LR_CREATEDIBSECTION|LR_DEFAULTSIZE));

  0016c	8b 3d 00 00 00
	00		 mov	 edi, DWORD PTR __imp__LoadImageA@24
  00172	83 c4 0c	 add	 esp, 12			; 0000000cH
  00175	68 50 20 00 00	 push	 8272			; 00002050H
  0017a	6a 00		 push	 0
  0017c	6a 00		 push	 0
  0017e	6a 00		 push	 0
  00180	ff b5 c4 fe ff
	ff		 push	 DWORD PTR _strImageDir$[ebp]
  00186	6a 00		 push	 0
  00188	ff d7		 call	 edi
  0018a	50		 push	 eax
  0018b	8d 8d b0 fe ff
	ff		 lea	 ecx, DWORD PTR _bitmap$[ebp]
  00191	e8 00 00 00 00	 call	 ?Attach@CGdiObject@@QAEHPAX@Z ; CGdiObject::Attach

; 634  : 	m_ImageListIcon.Create(18, 18, ILC_MASK | ILC_COLORDDB, 1, 1);

  00196	6a 01		 push	 1
  00198	6a 01		 push	 1
  0019a	8d 8e 90 17 00
	00		 lea	 ecx, DWORD PTR [esi+6032]
  001a0	68 ff 00 00 00	 push	 255			; 000000ffH
  001a5	89 8d 84 fe ff
	ff		 mov	 DWORD PTR _pImageList$1$[ebp], ecx
  001ab	6a 12		 push	 18			; 00000012H
  001ad	6a 12		 push	 18			; 00000012H
  001af	e8 00 00 00 00	 call	 ?Create@CImageList@@QAEHHHIHH@Z ; CImageList::Create
; File C:\Program Files (x86)\Microsoft Visual Studio\2019\Community\VC\Tools\MSVC\14.29.30133\atlmfc\include\afxwin1.inl

; 859  : 	{ ASSERT(m_hImageList != NULL); return ImageList_AddMasked(m_hImageList, (HBITMAP)pbmImage->GetSafeHandle(), crMask); }

  001b4	68 ff 00 ff 00	 push	 16711935		; 00ff00ffH
  001b9	ff b5 b4 fe ff
	ff		 push	 DWORD PTR _bitmap$[ebp+4]
  001bf	ff b6 94 17 00
	00		 push	 DWORD PTR [esi+6036]
  001c5	8b 35 00 00 00
	00		 mov	 esi, DWORD PTR __imp__ImageList_AddMasked@12
  001cb	ff d6		 call	 esi
; File D:\git\src\IBK\IBK_DRFN\ProjSrc\SrcDrfn\Chart\MULTICHART\TabIndices.cpp

; 636  : 	bitmap.DeleteObject();

  001cd	8d 8d b0 fe ff
	ff		 lea	 ecx, DWORD PTR _bitmap$[ebp]
  001d3	e8 00 00 00 00	 call	 ?DeleteObject@CGdiObject@@QAEHXZ ; CGdiObject::DeleteObject

; 637  : 
; 638  : 	//20061213   
; 639  : 	//LeftBar   
; 640  : //@ 
; 641  : 	strImageDir = "";

  001d8	68 00 00 00 00	 push	 OFFSET ??_C@_00CNPNBAHC@@
  001dd	8d 8d c4 fe ff
	ff		 lea	 ecx, DWORD PTR _strImageDir$[ebp]
  001e3	ff 15 00 00 00
	00		 call	 DWORD PTR __imp_??4?$CStringT@DV?$StrTraitMFC_DLL@DV?$ChTraitsCRT@D@ATL@@@@@ATL@@QAEAAV01@PBD@Z

; 642  : 	strImageDir.Format("%s\\outbar_icon.bmp", m_pParentDlg->m_szImageDir);

  001e9	8b 8d c0 fe ff
	ff		 mov	 ecx, DWORD PTR _this$GSCopy$1$[ebp]
  001ef	8b 81 bc 00 00
	00		 mov	 eax, DWORD PTR [ecx+188]
  001f5	ff b0 ac 01 00
	00		 push	 DWORD PTR [eax+428]
  001fb	8d 85 c4 fe ff
	ff		 lea	 eax, DWORD PTR _strImageDir$[ebp]
  00201	68 00 00 00 00	 push	 OFFSET ??_C@_0BD@OCOIJGGE@?$CFs?2outbar_icon?4bmp@
  00206	50		 push	 eax
  00207	ff 15 00 00 00
	00		 call	 DWORD PTR __imp_?Format@?$CStringT@DV?$StrTraitMFC_DLL@DV?$ChTraitsCRT@D@ATL@@@@@ATL@@QAAXPBDZZ
  0020d	83 c4 0c	 add	 esp, 12			; 0000000cH

; 643  : 	bitmap.Attach((HBITMAP)LoadImage(NULL, (LPSTR)(LPCTSTR)strImageDir, IMAGE_BITMAP, 0, 0, LR_LOADFROMFILE|LR_CREATEDIBSECTION|LR_DEFAULTSIZE));

  00210	68 50 20 00 00	 push	 8272			; 00002050H
  00215	6a 00		 push	 0
  00217	6a 00		 push	 0
  00219	6a 00		 push	 0
  0021b	ff b5 c4 fe ff
	ff		 push	 DWORD PTR _strImageDir$[ebp]
  00221	6a 00		 push	 0
  00223	ff d7		 call	 edi
  00225	50		 push	 eax
  00226	8d 8d b0 fe ff
	ff		 lea	 ecx, DWORD PTR _bitmap$[ebp]
  0022c	e8 00 00 00 00	 call	 ?Attach@CGdiObject@@QAEHPAX@Z ; CGdiObject::Attach

; 644  : 	m_ImageOutbarIcon.Create(20, 20, ILC_MASK | ILC_COLORDDB, 1, 1);

  00231	8b bd c0 fe ff
	ff		 mov	 edi, DWORD PTR _this$GSCopy$1$[ebp]
  00237	6a 01		 push	 1
  00239	6a 01		 push	 1
  0023b	68 ff 00 00 00	 push	 255			; 000000ffH
  00240	6a 14		 push	 20			; 00000014H
  00242	6a 14		 push	 20			; 00000014H
  00244	8d 8f 98 17 00
	00		 lea	 ecx, DWORD PTR [edi+6040]
  0024a	e8 00 00 00 00	 call	 ?Create@CImageList@@QAEHHHIHH@Z ; CImageList::Create
; File C:\Program Files (x86)\Microsoft Visual Studio\2019\Community\VC\Tools\MSVC\14.29.30133\atlmfc\include\afxwin1.inl

; 859  : 	{ ASSERT(m_hImageList != NULL); return ImageList_AddMasked(m_hImageList, (HBITMAP)pbmImage->GetSafeHandle(), crMask); }

  0024f	68 ff 00 ff 00	 push	 16711935		; 00ff00ffH
  00254	ff b5 b4 fe ff
	ff		 push	 DWORD PTR _bitmap$[ebp+4]
  0025a	ff b7 9c 17 00
	00		 push	 DWORD PTR [edi+6044]
  00260	ff d6		 call	 esi
; File D:\git\src\IBK\IBK_DRFN\ProjSrc\SrcDrfn\Chart\MULTICHART\TabIndices.cpp

; 646  : 	bitmap.DeleteObject();

  00262	8d 8d b0 fe ff
	ff		 lea	 ecx, DWORD PTR _bitmap$[ebp]
  00268	e8 00 00 00 00	 call	 ?DeleteObject@CGdiObject@@QAEHXZ ; CGdiObject::DeleteObject

; 647  : //@ 
; 648  : 	//20061213  end
; 649  : 
; 650  : 	for(long lIndex = 0;lIndex<lAllCnt;lIndex++)

  0026d	33 f6		 xor	 esi, esi
  0026f	89 b5 9c fe ff
	ff		 mov	 DWORD PTR _lIndex$1$[ebp], esi
$LL4@SetItemFor:
; File C:\Program Files (x86)\Microsoft Visual Studio\2019\Community\VC\Tools\MSVC\14.29.30133\atlmfc\include\afx.inl

; 116  : 	{ return ::operator new(nSize); }

  00275	68 98 00 00 00	 push	 152			; 00000098H
  0027a	e8 00 00 00 00	 call	 ??2@YAPAXI@Z		; operator new
  0027f	83 c4 04	 add	 esp, 4
; File D:\git\src\IBK\IBK_DRFN\ProjSrc\SrcDrfn\Chart\MULTICHART\TabIndices.cpp

; 652  : 		CTrTreeCtrl* pTree = new CTrTreeCtrl;

  00282	89 85 7c fe ff
	ff		 mov	 DWORD PTR $T3[ebp], eax
  00288	c6 45 fc 06	 mov	 BYTE PTR __$EHRec$[ebp+8], 6
  0028c	85 c0		 test	 eax, eax
  0028e	74 11		 je	 SHORT $LN20@SetItemFor
  00290	8b c8		 mov	 ecx, eax
  00292	e8 00 00 00 00	 call	 ??0CTrTreeCtrl@@QAE@XZ	; CTrTreeCtrl::CTrTreeCtrl
  00297	8b f8		 mov	 edi, eax
  00299	89 85 a0 fe ff
	ff		 mov	 DWORD PTR $T5[ebp], eax
  0029f	eb 08		 jmp	 SHORT $LN21@SetItemFor
$LN20@SetItemFor:
  002a1	33 ff		 xor	 edi, edi
  002a3	89 bd a0 fe ff
	ff		 mov	 DWORD PTR $T5[ebp], edi
$LN21@SetItemFor:

; 653  : 		//CTreeCtrlEx* pTree = new CTreeCtrlEx;
; 654  : 		pTree->Create(WS_CHILD|TVS_SHOWSELALWAYS, CRect(0,0,0,0), &m_ctrlOutBar, 10100+(lIndex-1));

  002a9	8d 86 73 27 00
	00		 lea	 eax, DWORD PTR [esi+10099]
  002af	c6 45 fc 05	 mov	 BYTE PTR __$EHRec$[ebp+8], 5
  002b3	50		 push	 eax
  002b4	ff b5 ac fe ff
	ff		 push	 DWORD PTR _this$1$[ebp]
  002ba	8d 45 e0	 lea	 eax, DWORD PTR $T7[ebp]
  002bd	0f 57 c0	 xorps	 xmm0, xmm0
  002c0	50		 push	 eax
  002c1	68 20 00 00 40	 push	 1073741856		; 40000020H
  002c6	8b cf		 mov	 ecx, edi
  002c8	0f 11 45 e0	 movups	 XMMWORD PTR $T7[ebp], xmm0
  002cc	e8 00 00 00 00	 call	 ?Create@CTrTreeCtrl@@QAEHKABUtagRECT@@PAVCWnd@@I@Z ; CTrTreeCtrl::Create
; File C:\Program Files (x86)\Microsoft Visual Studio\2019\Community\VC\Tools\MSVC\14.29.30133\atlmfc\include\afxwin1.inl

; 853  : 	{ return (this == NULL) ? NULL : m_hImageList; }

  002d1	8b 85 84 fe ff
	ff		 mov	 eax, DWORD PTR _pImageList$1$[ebp]
  002d7	85 c0		 test	 eax, eax
  002d9	74 03		 je	 SHORT $LN78@SetItemFor
$LN77@SetItemFor:
  002db	8b 40 04	 mov	 eax, DWORD PTR [eax+4]
$LN78@SetItemFor:
; File C:\Program Files (x86)\Microsoft Visual Studio\2019\Community\VC\Tools\MSVC\14.29.30133\atlmfc\include\afxcmn.inl

; 293  : 	return CImageList::FromHandle((HIMAGELIST)::SendMessage(m_hWnd, TVM_SETIMAGELIST, (WPARAM)nImageList, (LPARAM)pImageList->GetSafeHandle()));

  002de	50		 push	 eax
  002df	6a 00		 push	 0
  002e1	68 09 11 00 00	 push	 4361			; 00001109H
  002e6	ff 77 20	 push	 DWORD PTR [edi+32]
  002e9	ff 15 00 00 00
	00		 call	 DWORD PTR __imp__SendMessageA@16
  002ef	50		 push	 eax
  002f0	e8 00 00 00 00	 call	 ?FromHandle@CImageList@@SGPAV1@PAU_IMAGELIST@@@Z ; CImageList::FromHandle
; File D:\git\src\IBK\IBK_DRFN\ProjSrc\SrcDrfn\Chart\MULTICHART\TabIndices.cpp

; 657  : 		if(lIndex == 1)		//

  002f5	83 fe 01	 cmp	 esi, 1
  002f8	0f 85 09 01 00
	00		 jne	 $LN11@SetItemFor
; File C:\Program Files (x86)\Microsoft Visual Studio\2019\Community\VC\Tools\MSVC\14.29.30133\atlmfc\include\afxcoll.inl

; 286  : 	{ SetSize(0); }

  002fe	6a ff		 push	 -1
  00300	6a 00		 push	 0
  00302	8d 8d 88 fe ff
	ff		 lea	 ecx, DWORD PTR _strArrayIndicator$[ebp]
  00308	e8 00 00 00 00	 call	 ?SetSize@CStringArray@@QAEXHH@Z ; CStringArray::SetSize
; File D:\git\src\IBK\IBK_DRFN\ProjSrc\SrcDrfn\Chart\MULTICHART\TabIndices.cpp

; 660  : 			CFavoriteThingsMng pFavoriteMng;

  0030d	8d 8d 34 fe ff
	ff		 lea	 ecx, DWORD PTR _pFavoriteMng$2[ebp]
  00313	e8 00 00 00 00	 call	 ??0CFavoriteThingsMng@@QAE@XZ ; CFavoriteThingsMng::CFavoriteThingsMng

; 661  : 			DWORD wSizeItem = 0;
; 662  : 			CString strGrpName;

  00318	8d 8d 80 fe ff
	ff		 lea	 ecx, DWORD PTR _strGrpName$4[ebp]
  0031e	ff 15 00 00 00
	00		 call	 DWORD PTR __imp_??0?$CStringT@DV?$StrTraitMFC_DLL@DV?$ChTraitsCRT@D@ATL@@@@@ATL@@QAE@XZ

; 663  : 			DWORD wIndexItem = 0;
; 664  : 			stFvrData _stFvrData;
; 665  : 			pFavoriteMng.SetPath(m_pParentDlg->GetUserPath());

  00324	51		 push	 ecx
  00325	8b 8d c0 fe ff
	ff		 mov	 ecx, DWORD PTR _this$GSCopy$1$[ebp]
  0032b	54		 push	 esp
  0032c	c6 45 fc 08	 mov	 BYTE PTR __$EHRec$[ebp+8], 8
  00330	8b 89 bc 00 00
	00		 mov	 ecx, DWORD PTR [ecx+188]
  00336	e8 00 00 00 00	 call	 ?GetUserPath@CLeftBarDlg@@QAE?AV?$CStringT@DV?$StrTraitMFC_DLL@DV?$ChTraitsCRT@D@ATL@@@@@ATL@@XZ ; CLeftBarDlg::GetUserPath
  0033b	8d 8d 34 fe ff
	ff		 lea	 ecx, DWORD PTR _pFavoriteMng$2[ebp]
  00341	e8 00 00 00 00	 call	 ?SetPath@CFavoriteThingsMng@@QAEXV?$CStringT@DV?$StrTraitMFC_DLL@DV?$ChTraitsCRT@D@ATL@@@@@ATL@@@Z ; CFavoriteThingsMng::SetPath

; 666  : 			pFavoriteMng.LoadItemInfo("JipyoFile");

  00346	68 00 00 00 00	 push	 OFFSET ??_C@_09IBPFDGDO@JipyoFile@
  0034b	8d 8d 34 fe ff
	ff		 lea	 ecx, DWORD PTR _pFavoriteMng$2[ebp]
  00351	e8 00 00 00 00	 call	 ?LoadItemInfo@CFavoriteThingsMng@@QAEHPBD@Z ; CFavoriteThingsMng::LoadItemInfo

; 667  : 			wSizeItem = pFavoriteMng.m_ArrayFvrItem.GetSize();

  00356	8b 95 54 fe ff
	ff		 mov	 edx, DWORD PTR _pFavoriteMng$2[ebp+32]

; 668  : 			for(wIndexItem=0;wIndexItem<wSizeItem;wIndexItem++)

  0035c	33 c0		 xor	 eax, eax
  0035e	8b ca		 mov	 ecx, edx
  00360	89 85 a8 fe ff
	ff		 mov	 DWORD PTR _wIndexItem$1$[ebp], eax
  00366	89 8d b8 fe ff
	ff		 mov	 DWORD PTR _wSizeItem$1$[ebp], ecx
  0036c	85 c9		 test	 ecx, ecx
  0036e	74 7a		 je	 SHORT $LN134@SetItemFor
; File C:\Program Files (x86)\Microsoft Visual Studio\2019\Community\VC\Tools\MSVC\14.29.30133\atlmfc\include\afxcoll.inl

; 286  : 	{ SetSize(0); }

  00370	33 c9		 xor	 ecx, ecx
  00372	89 8d a4 fe ff
	ff		 mov	 DWORD PTR tv885[ebp], ecx
$LL7@SetItemFor:
; File C:\Program Files (x86)\Microsoft Visual Studio\2019\Community\VC\Tools\MSVC\14.29.30133\atlmfc\include\afxtempl.h

; 288  : 	if(nIndex >= 0 && nIndex < m_nSize)

  00378	85 c0		 test	 eax, eax
  0037a	0f 88 35 02 00
	00		 js	 $LN82@SetItemFor
  00380	3b c2		 cmp	 eax, edx
  00382	0f 8d 2d 02 00
	00		 jge	 $LN82@SetItemFor

; 289  : 		return m_pData[nIndex];

  00388	8b b5 50 fe ff
	ff		 mov	 esi, DWORD PTR _pFavoriteMng$2[ebp+28]
; File C:\Program Files (x86)\Microsoft Visual Studio\2019\Community\VC\Tools\MSVC\14.29.30133\atlmfc\include\afxcoll.inl

; 316  : 		SetAtGrow(nIndex, newElement);

  0038e	8d 85 20 ff ff
	ff		 lea	 eax, DWORD PTR __stFvrData$6[ebp+88]
; File C:\Program Files (x86)\Microsoft Visual Studio\2019\Community\VC\Tools\MSVC\14.29.30133\atlmfc\include\afxtempl.h

; 289  : 		return m_pData[nIndex];

  00394	03 f1		 add	 esi, ecx
; File D:\git\src\IBK\IBK_DRFN\ProjSrc\SrcDrfn\Chart\MULTICHART\TabIndices.cpp

; 670  : 				_stFvrData = pFavoriteMng.m_ArrayFvrItem.GetAt(wIndexItem);

  00396	8d bd c8 fe ff
	ff		 lea	 edi, DWORD PTR __stFvrData$6[ebp]
  0039c	b9 46 00 00 00	 mov	 ecx, 70			; 00000046H
; File C:\Program Files (x86)\Microsoft Visual Studio\2019\Community\VC\Tools\MSVC\14.29.30133\atlmfc\include\afxcoll.inl

; 316  : 		SetAtGrow(nIndex, newElement);

  003a1	50		 push	 eax
  003a2	ff b5 90 fe ff
	ff		 push	 DWORD PTR _strArrayIndicator$[ebp+8]
; File D:\git\src\IBK\IBK_DRFN\ProjSrc\SrcDrfn\Chart\MULTICHART\TabIndices.cpp

; 670  : 				_stFvrData = pFavoriteMng.m_ArrayFvrItem.GetAt(wIndexItem);

  003a8	f3 a5		 rep movsd
; File C:\Program Files (x86)\Microsoft Visual Studio\2019\Community\VC\Tools\MSVC\14.29.30133\atlmfc\include\afxcoll.inl

; 316  : 		SetAtGrow(nIndex, newElement);

  003aa	8d 8d 88 fe ff
	ff		 lea	 ecx, DWORD PTR _strArrayIndicator$[ebp]
  003b0	e8 00 00 00 00	 call	 ?SetAtGrow@CStringArray@@QAEXHPBD@Z ; CStringArray::SetAtGrow
; File D:\git\src\IBK\IBK_DRFN\ProjSrc\SrcDrfn\Chart\MULTICHART\TabIndices.cpp

; 668  : 			for(wIndexItem=0;wIndexItem<wSizeItem;wIndexItem++)

  003b5	8b 85 a8 fe ff
	ff		 mov	 eax, DWORD PTR _wIndexItem$1$[ebp]
  003bb	8b 8d a4 fe ff
	ff		 mov	 ecx, DWORD PTR tv885[ebp]
  003c1	40		 inc	 eax
  003c2	81 c1 18 01 00
	00		 add	 ecx, 280		; 00000118H
  003c8	89 85 a8 fe ff
	ff		 mov	 DWORD PTR _wIndexItem$1$[ebp], eax
  003ce	89 8d a4 fe ff
	ff		 mov	 DWORD PTR tv885[ebp], ecx
  003d4	3b 85 b8 fe ff
	ff		 cmp	 eax, DWORD PTR _wSizeItem$1$[ebp]
  003da	73 08		 jae	 SHORT $LN136@SetItemFor
  003dc	8b 95 54 fe ff
	ff		 mov	 edx, DWORD PTR _pFavoriteMng$2[ebp+32]
  003e2	eb 94		 jmp	 SHORT $LL7@SetItemFor
$LN136@SetItemFor:
  003e4	8b bd a0 fe ff
	ff		 mov	 edi, DWORD PTR $T5[ebp]
$LN134@SetItemFor:

; 671  : 				strArrayIndicator.Add(_stFvrData.m_chData1);
; 672  : 			}		
; 673  : 		}

  003ea	8d 8d 80 fe ff
	ff		 lea	 ecx, DWORD PTR _strGrpName$4[ebp]
  003f0	ff 15 00 00 00
	00		 call	 DWORD PTR __imp_??1?$CStringT@DV?$StrTraitMFC_DLL@DV?$ChTraitsCRT@D@ATL@@@@@ATL@@QAE@XZ
  003f6	8d 8d 34 fe ff
	ff		 lea	 ecx, DWORD PTR _pFavoriteMng$2[ebp]
  003fc	c6 45 fc 05	 mov	 BYTE PTR __$EHRec$[ebp+8], 5
  00400	e8 00 00 00 00	 call	 ??1CFavoriteThingsMng@@UAE@XZ ; CFavoriteThingsMng::~CFavoriteThingsMng
  00405	eb 47		 jmp	 SHORT $LN15@SetItemFor
$LN11@SetItemFor:

; 674  : 		else if(lIndex == 2)	//

  00407	83 fe 02	 cmp	 esi, 2
  0040a	75 11		 jne	 SHORT $LN13@SetItemFor
; File C:\Program Files (x86)\Microsoft Visual Studio\2019\Community\VC\Tools\MSVC\14.29.30133\atlmfc\include\afxcoll.inl

; 286  : 	{ SetSize(0); }

  0040c	6a ff		 push	 -1
  0040e	6a 00		 push	 0
  00410	8d 8d 88 fe ff
	ff		 lea	 ecx, DWORD PTR _strArrayIndicator$[ebp]
  00416	e8 00 00 00 00	 call	 ?SetSize@CStringArray@@QAEXHH@Z ; CStringArray::SetSize
; File D:\git\src\IBK\IBK_DRFN\ProjSrc\SrcDrfn\Chart\MULTICHART\TabIndices.cpp

; 677  : 		}

  0041b	eb 31		 jmp	 SHORT $LN15@SetItemFor
$LN13@SetItemFor:

; 680  : 			if(m_pChartMng->GetSafeHwnd())

  0041d	8b 8d c0 fe ff
	ff		 mov	 ecx, DWORD PTR _this$GSCopy$1$[ebp]
  00423	8b 81 c4 00 00
	00		 mov	 eax, DWORD PTR [ecx+196]
; File C:\Program Files (x86)\Microsoft Visual Studio\2019\Community\VC\Tools\MSVC\14.29.30133\atlmfc\include\afxwin2.inl

; 25   : 	{ return this == NULL ? NULL : m_hWnd; }

  00429	85 c0		 test	 eax, eax
  0042b	74 21		 je	 SHORT $LN15@SetItemFor
  0042d	8b 40 20	 mov	 eax, DWORD PTR [eax+32]
; File D:\git\src\IBK\IBK_DRFN\ProjSrc\SrcDrfn\Chart\MULTICHART\TabIndices.cpp

; 680  : 			if(m_pChartMng->GetSafeHwnd())

  00430	85 c0		 test	 eax, eax
  00432	74 1a		 je	 SHORT $LN15@SetItemFor
; File C:\Program Files (x86)\Microsoft Visual Studio\2019\Community\VC\Tools\MSVC\14.29.30133\atlmfc\include\afxwin2.inl

; 32   : 	{ ASSERT(::IsWindow(m_hWnd)); return ::SendMessage(m_hWnd, message, wParam, lParam); }

  00434	8d 8d 88 fe ff
	ff		 lea	 ecx, DWORD PTR _strArrayIndicator$[ebp]
  0043a	51		 push	 ecx
  0043b	ff 34 b5 00 00
	00 00		 push	 DWORD PTR ?szIndexGroupName@@3PAPADA[esi*4]
  00442	68 0f 04 00 00	 push	 1039			; 0000040fH
  00447	50		 push	 eax
  00448	ff 15 00 00 00
	00		 call	 DWORD PTR __imp__SendMessageA@16
$LN15@SetItemFor:
; File D:\git\src\IBK\IBK_DRFN\ProjSrc\SrcDrfn\Chart\MULTICHART\TabIndices.cpp

; 683  : 		lSize = strArrayIndicator.GetSize();

  0044e	8b 85 90 fe ff
	ff		 mov	 eax, DWORD PTR _strArrayIndicator$[ebp+8]

; 687  : 		for(long lPos=0;lPos<lSize;lPos++)

  00454	33 f6		 xor	 esi, esi
  00456	8b c8		 mov	 ecx, eax
  00458	89 8d b8 fe ff
	ff		 mov	 DWORD PTR _lSize$1$[ebp], ecx
  0045e	85 c9		 test	 ecx, ecx
  00460	0f 8e 80 00 00
	00		 jle	 $LN135@SetItemFor
$LL10@SetItemFor:
; File C:\Program Files (x86)\Microsoft Visual Studio\2019\Community\VC\Tools\MSVC\14.29.30133\atlmfc\include\afxcoll.inl

; 289  : 		if( nIndex < 0 || nIndex >= m_nSize )

  00466	85 f6		 test	 esi, esi
  00468	0f 88 47 01 00
	00		 js	 $LN82@SetItemFor
  0046e	3b f0		 cmp	 esi, eax
  00470	0f 8d 3f 01 00
	00		 jge	 $LN82@SetItemFor

; 291  : 		return m_pData[nIndex]; }

  00476	8b 85 8c fe ff
	ff		 mov	 eax, DWORD PTR _strArrayIndicator$[ebp+4]
; File D:\git\src\IBK\IBK_DRFN\ProjSrc\SrcDrfn\Chart\MULTICHART\TabIndices.cpp

; 689  : 			strIndicator = strArrayIndicator.GetAt(lPos);

  0047c	8d 8d bc fe ff
	ff		 lea	 ecx, DWORD PTR _strIndicator$[ebp]
; File C:\Program Files (x86)\Microsoft Visual Studio\2019\Community\VC\Tools\MSVC\14.29.30133\atlmfc\include\afxcoll.inl

; 291  : 		return m_pData[nIndex]; }

  00482	8d 04 b0	 lea	 eax, DWORD PTR [eax+esi*4]
; File D:\git\src\IBK\IBK_DRFN\ProjSrc\SrcDrfn\Chart\MULTICHART\TabIndices.cpp

; 689  : 			strIndicator = strArrayIndicator.GetAt(lPos);

  00485	50		 push	 eax
  00486	ff 15 00 00 00
	00		 call	 DWORD PTR __imp_??4?$CStringT@DV?$StrTraitMFC_DLL@DV?$ChTraitsCRT@D@ATL@@@@@ATL@@QAEAAV01@ABV01@@Z

; 690  : 
; 691  : 			long lPos1 = strIndicator.Find("&&");

  0048c	6a 00		 push	 0
  0048e	68 00 00 00 00	 push	 OFFSET ??_C@_02PPKAJPJL@?$CG?$CG@
  00493	8d 8d bc fe ff
	ff		 lea	 ecx, DWORD PTR _strIndicator$[ebp]
  00499	ff 15 00 00 00
	00		 call	 DWORD PTR __imp_?Find@?$CStringT@DV?$StrTraitMFC_DLL@DV?$ChTraitsCRT@D@ATL@@@@@ATL@@QBEHPBDH@Z

; 692  : 			if(lPos1>=0)

  0049f	85 c0		 test	 eax, eax
  004a1	78 0f		 js	 SHORT $LN16@SetItemFor

; 693  : 			{
; 694  : 				strIndicator.Delete(lPos);

  004a3	6a 01		 push	 1
  004a5	56		 push	 esi
  004a6	8d 8d bc fe ff
	ff		 lea	 ecx, DWORD PTR _strIndicator$[ebp]
  004ac	ff 15 00 00 00
	00		 call	 DWORD PTR __imp_?Delete@?$CStringT@DV?$StrTraitMFC_DLL@DV?$ChTraitsCRT@D@ATL@@@@@ATL@@QAEHHH@Z
$LN16@SetItemFor:
; File C:\Program Files (x86)\Microsoft Visual Studio\2019\Community\VC\Tools\MSVC\14.29.30133\atlmfc\include\afxcmn.inl

; 271  : 	{ ASSERT(::IsWindow(m_hWnd)); return InsertItem(TVIF_TEXT, lpszItem, 0, 0, 0, 0, 0, hParent, hInsertAfter); }

  004b2	68 02 00 ff ff	 push	 -65534			; ffff0002H
  004b7	68 00 00 ff ff	 push	 -65536			; ffff0000H
  004bc	6a 00		 push	 0
  004be	6a 00		 push	 0
  004c0	6a 00		 push	 0
  004c2	6a 00		 push	 0
  004c4	6a 00		 push	 0
  004c6	ff b5 bc fe ff
	ff		 push	 DWORD PTR _strIndicator$[ebp]
  004cc	8b cf		 mov	 ecx, edi
  004ce	6a 01		 push	 1
  004d0	e8 00 00 00 00	 call	 ?InsertItem@CTreeCtrl@@QAEPAU_TREEITEM@@IPBDHHIIJPAU2@1@Z ; CTreeCtrl::InsertItem
; File D:\git\src\IBK\IBK_DRFN\ProjSrc\SrcDrfn\Chart\MULTICHART\TabIndices.cpp

; 687  : 		for(long lPos=0;lPos<lSize;lPos++)

  004d5	46		 inc	 esi
  004d6	3b b5 b8 fe ff
	ff		 cmp	 esi, DWORD PTR _lSize$1$[ebp]
  004dc	7d 08		 jge	 SHORT $LN135@SetItemFor
  004de	8b 85 90 fe ff
	ff		 mov	 eax, DWORD PTR _strArrayIndicator$[ebp+8]
  004e4	eb 80		 jmp	 SHORT $LL10@SetItemFor
$LN135@SetItemFor:

; 695  : 			}	
; 696  : 			pTree->InsertItem(strIndicator);
; 697  : 			lPosAll++;
; 698  : 		}
; 699  : 		strArrayIndicatorAll.Append(strArrayIndicator);

  004e6	8d 85 88 fe ff
	ff		 lea	 eax, DWORD PTR _strArrayIndicator$[ebp]
  004ec	50		 push	 eax
  004ed	8d 8d 68 fe ff
	ff		 lea	 ecx, DWORD PTR _strArrayIndicatorAll$[ebp]
  004f3	e8 00 00 00 00	 call	 ?Append@CStringArray@@QAEHABV1@@Z ; CStringArray::Append

; 700  : 
; 701  : 		if(lIndex == 0)

  004f8	8b b5 9c fe ff
	ff		 mov	 esi, DWORD PTR _lIndex$1$[ebp]

; 702  : 			m_ctrlOutBar.AddFolderBar("", pTree);

  004fe	b8 00 00 00 00	 mov	 eax, OFFSET ??_C@_04BEBPOGNC@?B?w?F?$KO@
  00503	85 f6		 test	 esi, esi
  00505	74 07		 je	 SHORT $LN18@SetItemFor

; 703  : 		else
; 704  : 			m_ctrlOutBar.AddFolderBar(szIndexGroupName[lIndex], pTree);

  00507	8b 04 b5 00 00
	00 00		 mov	 eax, DWORD PTR ?szIndexGroupName@@3PAPADA[esi*4]
$LN18@SetItemFor:

; 705  : 		
; 706  : 		m_ListTree.AddTail(pTree);

  0050e	8b 8d ac fe ff
	ff		 mov	 ecx, DWORD PTR _this$1$[ebp]
  00514	6a 00		 push	 0
  00516	57		 push	 edi
  00517	50		 push	 eax
  00518	e8 00 00 00 00	 call	 ?AddFolderBar@CGfxOutBarCtrl@@QAEHPBDPAVCWnd@@K@Z ; CGfxOutBarCtrl::AddFolderBar
  0051d	8b 8d c0 fe ff
	ff		 mov	 ecx, DWORD PTR _this$GSCopy$1$[ebp]
  00523	57		 push	 edi
  00524	8d 89 60 05 00
	00		 lea	 ecx, DWORD PTR [ecx+1376]
  0052a	e8 00 00 00 00	 call	 ?AddTail@?$CList@PAVCTrTreeCtrl@@PAV1@@@QAEPAU__POSITION@@PAVCTrTreeCtrl@@@Z ; CList<CTrTreeCtrl *,CTrTreeCtrl *>::AddTail
  0052f	46		 inc	 esi
  00530	89 b5 9c fe ff
	ff		 mov	 DWORD PTR _lIndex$1$[ebp], esi
  00536	83 fe 0c	 cmp	 esi, 12			; 0000000cH
  00539	0f 8c 36 fd ff
	ff		 jl	 $LL4@SetItemFor

; 707  : 	}
; 708  : 
; 709  : //	pUtil->SetGrade(cMenuGubun, theApp.m_pUserInfo->Level);
; 710  : //	pUtil->MakeTreeAllNode(pTree);
; 711  : 
; 712  : 	
; 713  : 
; 714  : //	HTREEITEM hItem;
; 715  : //	HTREEITEM  huRootItem = pTree->InsertItem("KOSPI");
; 716  : //	POSITION pos = m_pListU->GetHeadPosition();
; 717  : //	while(pos)
; 718  : 	{
; 719  : //		uMaster = m_pListU->GetNext(pos);
; 720  : 		//hItem = pTree->InsertItem("aaa",huRootItem);
; 721  : 		//pTree->SetItemData(hItem,10000);
; 722  : 		//pTree->Expand(huRootItem, TVE_EXPAND);
; 723  : 	}
; 724  : 
; 725  : 	//m_ctrlOutBar.AddFolderBar((LPSTR)(LPCTSTR)"", pTree);
; 726  : 
; 727  : 	//m_ctrlOutBar.AddFolderBar((LPSTR)(LPCTSTR)"111", &m_treeItems);
; 728  : //	m_ListTree.AddTail(&m_treeItems);
; 729  : 
; 730  : //	m_ListTree.AddTail(&m_treeItems);
; 731  : 
; 732  : 	m_ctrlOutBar.SetSelFolder(0);

  0053f	8b 8d ac fe ff
	ff		 mov	 ecx, DWORD PTR _this$1$[ebp]
  00545	6a 00		 push	 0
  00547	e8 00 00 00 00	 call	 ?SetSelFolder@CGfxOutBarCtrl@@QAEXH@Z ; CGfxOutBarCtrl::SetSelFolder

; 747  : }

  0054c	8d 8d c4 fe ff
	ff		 lea	 ecx, DWORD PTR _strImageDir$[ebp]
  00552	ff 15 00 00 00
	00		 call	 DWORD PTR __imp_??1?$CStringT@DV?$StrTraitMFC_DLL@DV?$ChTraitsCRT@D@ATL@@@@@ATL@@QAE@XZ
; File C:\Program Files (x86)\Microsoft Visual Studio\2019\Community\VC\Tools\MSVC\14.29.30133\atlmfc\include\afxwin1.inl

; 179  : 	{ }

  00558	8d 8d b0 fe ff
	ff		 lea	 ecx, DWORD PTR _bitmap$[ebp]
  0055e	c7 85 b0 fe ff
	ff 00 00 00 00	 mov	 DWORD PTR _bitmap$[ebp], OFFSET ??_7CBitmap@@6B@
  00568	e8 00 00 00 00	 call	 ??1CGdiObject@@UAE@XZ	; CGdiObject::~CGdiObject
; File D:\git\src\IBK\IBK_DRFN\ProjSrc\SrcDrfn\Chart\MULTICHART\TabIndices.cpp

; 747  : }

  0056d	8d 8d bc fe ff
	ff		 lea	 ecx, DWORD PTR _strIndicator$[ebp]
  00573	ff 15 00 00 00
	00		 call	 DWORD PTR __imp_??1?$CStringT@DV?$StrTraitMFC_DLL@DV?$ChTraitsCRT@D@ATL@@@@@ATL@@QAE@XZ
  00579	8d 8d 20 fe ff
	ff		 lea	 ecx, DWORD PTR _strArrayMarket$[ebp]
  0057f	e8 00 00 00 00	 call	 ??1CStringArray@@UAE@XZ	; CStringArray::~CStringArray
  00584	8d 8d 68 fe ff
	ff		 lea	 ecx, DWORD PTR _strArrayIndicatorAll$[ebp]
  0058a	e8 00 00 00 00	 call	 ??1CStringArray@@UAE@XZ	; CStringArray::~CStringArray
  0058f	8d 8d 88 fe ff
	ff		 lea	 ecx, DWORD PTR _strArrayIndicator$[ebp]
  00595	e8 00 00 00 00	 call	 ??1CStringArray@@UAE@XZ	; CStringArray::~CStringArray
  0059a	8b 4d f4	 mov	 ecx, DWORD PTR __$EHRec$[ebp]
  0059d	64 89 0d 00 00
	00 00		 mov	 DWORD PTR fs:0, ecx
  005a4	59		 pop	 ecx
  005a5	5f		 pop	 edi
  005a6	5e		 pop	 esi
  005a7	8b 4d f0	 mov	 ecx, DWORD PTR __$ArrayPad$[ebp]
  005aa	33 cd		 xor	 ecx, ebp
  005ac	e8 00 00 00 00	 call	 @__security_check_cookie@4
  005b1	8b e5		 mov	 esp, ebp
  005b3	5d		 pop	 ebp
  005b4	c3		 ret	 0
$LN82@SetItemFor:
  005b5	e8 00 00 00 00	 call	 ?AfxThrowInvalidArgException@@YGXXZ ; AfxThrowInvalidArgException
$LN138@SetItemFor:
  005ba	cc		 int	 3
_TEXT	ENDS
;	COMDAT text$x
text$x	SEGMENT
__unwindfunclet$?SetItemForm@CTabIndices@@AAEXXZ$0:
  00000	8d 8d 88 fe ff
	ff		 lea	 ecx, DWORD PTR _strArrayIndicator$[ebp]
  00006	e9 00 00 00 00	 jmp	 ??1CStringArray@@UAE@XZ	; CStringArray::~CStringArray
__unwindfunclet$?SetItemForm@CTabIndices@@AAEXXZ$1:
  0000b	8d 8d 68 fe ff
	ff		 lea	 ecx, DWORD PTR _strArrayIndicatorAll$[ebp]
  00011	e9 00 00 00 00	 jmp	 ??1CStringArray@@UAE@XZ	; CStringArray::~CStringArray
__unwindfunclet$?SetItemForm@CTabIndices@@AAEXXZ$2:
  00016	8d 8d 20 fe ff
	ff		 lea	 ecx, DWORD PTR _strArrayMarket$[ebp]
  0001c	e9 00 00 00 00	 jmp	 ??1CStringArray@@UAE@XZ	; CStringArray::~CStringArray
__unwindfunclet$?SetItemForm@CTabIndices@@AAEXXZ$3:
  00021	8d 8d bc fe ff
	ff		 lea	 ecx, DWORD PTR _strIndicator$[ebp]
  00027	ff 25 00 00 00
	00		 jmp	 DWORD PTR __imp_??1?$CStringT@DV?$StrTraitMFC_DLL@DV?$ChTraitsCRT@D@ATL@@@@@ATL@@QAE@XZ
__unwindfunclet$?SetItemForm@CTabIndices@@AAEXXZ$4:
  0002d	8d 8d b0 fe ff
	ff		 lea	 ecx, DWORD PTR _bitmap$[ebp]
  00033	e9 00 00 00 00	 jmp	 ??1CBitmap@@UAE@XZ	; CBitmap::~CBitmap
__unwindfunclet$?SetItemForm@CTabIndices@@AAEXXZ$5:
  00038	8d 8d c4 fe ff
	ff		 lea	 ecx, DWORD PTR _strImageDir$[ebp]
  0003e	ff 25 00 00 00
	00		 jmp	 DWORD PTR __imp_??1?$CStringT@DV?$StrTraitMFC_DLL@DV?$ChTraitsCRT@D@ATL@@@@@ATL@@QAE@XZ
__unwindfunclet$?SetItemForm@CTabIndices@@AAEXXZ$6:
  00044	8b 85 7c fe ff
	ff		 mov	 eax, DWORD PTR $T3[ebp]
  0004a	50		 push	 eax
  0004b	e8 00 00 00 00	 call	 ??3CObject@@SGXPAX@Z	; CObject::operator delete
  00050	c3		 ret	 0
__unwindfunclet$?SetItemForm@CTabIndices@@AAEXXZ$7:
  00051	8d 8d 34 fe ff
	ff		 lea	 ecx, DWORD PTR _pFavoriteMng$2[ebp]
  00057	e9 00 00 00 00	 jmp	 ??1CFavoriteThingsMng@@UAE@XZ ; CFavoriteThingsMng::~CFavoriteThingsMng
__unwindfunclet$?SetItemForm@CTabIndices@@AAEXXZ$8:
  0005c	8d 8d 80 fe ff
	ff		 lea	 ecx, DWORD PTR _strGrpName$4[ebp]
  00062	ff 25 00 00 00
	00		 jmp	 DWORD PTR __imp_??1?$CStringT@DV?$StrTraitMFC_DLL@DV?$ChTraitsCRT@D@ATL@@@@@ATL@@QAE@XZ
  00068	cc		 int	 3
  00069	cc		 int	 3
  0006a	cc		 int	 3
  0006b	cc		 int	 3
  0006c	cc		 int	 3
__ehhandler$?SetItemForm@CTabIndices@@AAEXXZ:
  0006d	90		 npad	 1
  0006e	90		 npad	 1
  0006f	8b 54 24 08	 mov	 edx, DWORD PTR [esp+8]
  00073	8d 42 0c	 lea	 eax, DWORD PTR [edx+12]
  00076	8b 8a 20 fe ff
	ff		 mov	 ecx, DWORD PTR [edx-480]
  0007c	33 c8		 xor	 ecx, eax
  0007e	e8 00 00 00 00	 call	 @__security_check_cookie@4
  00083	8b 4a fc	 mov	 ecx, DWORD PTR [edx-4]
  00086	33 c8		 xor	 ecx, eax
  00088	e8 00 00 00 00	 call	 @__security_check_cookie@4
  0008d	b8 00 00 00 00	 mov	 eax, OFFSET __ehfuncinfo$?SetItemForm@CTabIndices@@AAEXXZ
  00092	e9 00 00 00 00	 jmp	 ___CxxFrameHandler3
text$x	ENDS
?SetItemForm@CTabIndices@@AAEXXZ ENDP			; CTabIndices::SetItemForm
; Function compile flags: /Ogtp
; File D:\git\src\IBK\IBK_DRFN\ProjSrc\SrcDrfn\Chart\MULTICHART\TabIndices.cpp
; File C:\Program Files (x86)\Microsoft Visual Studio\2019\Community\VC\Tools\MSVC\14.29.30133\atlmfc\include\afxwin2.inl
; File D:\git\src\IBK\IBK_DRFN\ProjSrc\SrcDrfn\Chart\MULTICHART\TabIndices.cpp
;	COMDAT ?PreTranslateMessage@CTabIndices@@MAEHPAUtagMSG@@@Z
_TEXT	SEGMENT
_pMsg$ = 8						; size = 4
?PreTranslateMessage@CTabIndices@@MAEHPAUtagMSG@@@Z PROC ; CTabIndices::PreTranslateMessage, COMDAT
; _this$ = ecx

; 2296 : {

  00000	55		 push	 ebp
  00001	8b ec		 mov	 ebp, esp

; 2297 : 	UINT nKeyCode = pMsg->wParam;

  00003	8b 45 08	 mov	 eax, DWORD PTR _pMsg$[ebp]

; 2298 : 
; 2299 : 	HWND hwndEditFind;
; 2300 : 	hwndEditFind = m_editFind.GetSafeHwnd();

  00006	8d 91 08 06 00
	00		 lea	 edx, DWORD PTR [ecx+1544]
; File C:\Program Files (x86)\Microsoft Visual Studio\2019\Community\VC\Tools\MSVC\14.29.30133\atlmfc\include\afxwin2.inl

; 25   : 	{ return this == NULL ? NULL : m_hWnd; }

  0000c	85 d2		 test	 edx, edx
  0000e	74 03		 je	 SHORT $LN8@PreTransla
$LN7@PreTransla:
  00010	8b 52 20	 mov	 edx, DWORD PTR [edx+32]
$LN8@PreTransla:
; File D:\git\src\IBK\IBK_DRFN\ProjSrc\SrcDrfn\Chart\MULTICHART\TabIndices.cpp

; 2301 : 	if(pMsg->hwnd == hwndEditFind)

  00013	39 10		 cmp	 DWORD PTR [eax], edx
  00015	75 14		 jne	 SHORT $LN3@PreTransla

; 2302 : 	{
; 2303 : 		if (nKeyCode == VK_RETURN)

  00017	83 78 08 0d	 cmp	 DWORD PTR [eax+8], 13	; 0000000dH
  0001b	75 0e		 jne	 SHORT $LN3@PreTransla

; 2304 : 		{
; 2305 : 			OnBnClickedBtnFind();

  0001d	e8 00 00 00 00	 call	 ?OnBnClickedBtnFind@CTabIndices@@IAEXXZ ; CTabIndices::OnBnClickedBtnFind

; 2306 : 			return TRUE;

  00022	b8 01 00 00 00	 mov	 eax, 1

; 2310 : }

  00027	5d		 pop	 ebp
  00028	c2 04 00	 ret	 4
$LN3@PreTransla:

; 2307 : 		}
; 2308 : 	}
; 2309 : 	return CTabDlg::PreTranslateMessage(pMsg);	

  0002b	89 45 08	 mov	 DWORD PTR _pMsg$[ebp], eax

; 2310 : }

  0002e	5d		 pop	 ebp

; 2307 : 		}
; 2308 : 	}
; 2309 : 	return CTabDlg::PreTranslateMessage(pMsg);	

  0002f	e9 00 00 00 00	 jmp	 ?PreTranslateMessage@CTabDlg@@UAEHPAUtagMSG@@@Z ; CTabDlg::PreTranslateMessage
?PreTranslateMessage@CTabIndices@@MAEHPAUtagMSG@@@Z ENDP ; CTabIndices::PreTranslateMessage
_TEXT	ENDS
; Function compile flags: /Ogtp
; File D:\git\src\IBK\IBK_DRFN\ProjSrc\SrcDrfn\Chart\MULTICHART\TabIndices.cpp
; File C:\Program Files (x86)\Microsoft Visual Studio\2019\Community\VC\Tools\MSVC\14.29.30133\atlmfc\include\afxwin2.inl
; File D:\git\src\IBK\IBK_DRFN\ProjSrc\SrcDrfn\Chart\MULTICHART\TabIndices.cpp
; File C:\Program Files (x86)\Microsoft Visual Studio\2019\Community\VC\Tools\MSVC\14.29.30133\atlmfc\include\afxwin2.inl
; File D:\git\src\IBK\IBK_DRFN\ProjSrc\SrcDrfn\Chart\MULTICHART\TabIndices.cpp
; File C:\Program Files (x86)\Microsoft Visual Studio\2019\Community\VC\Tools\MSVC\14.29.30133\atlmfc\include\afxwin2.inl
; File D:\git\src\IBK\IBK_DRFN\ProjSrc\SrcDrfn\Chart\MULTICHART\TabIndices.cpp
; File C:\Program Files (x86)\Microsoft Visual Studio\2019\Community\VC\Tools\MSVC\14.29.30133\atlmfc\include\afxwin2.inl
; File D:\git\src\IBK\IBK_DRFN\ProjSrc\SrcDrfn\Chart\MULTICHART\TabIndices.cpp
; File C:\Program Files (x86)\Microsoft Visual Studio\2019\Community\VC\Tools\MSVC\14.29.30133\atlmfc\include\afxwin1.inl
; File D:\git\src\IBK\IBK_DRFN\ProjSrc\SrcDrfn\Chart\MULTICHART\TabIndices.cpp
; File C:\Program Files (x86)\Microsoft Visual Studio\2019\Community\VC\Tools\MSVC\14.29.30133\atlmfc\include\afxwin1.inl
; File D:\git\src\IBK\IBK_DRFN\ProjSrc\SrcDrfn\Chart\MULTICHART\TabIndices.cpp
; File C:\Program Files (x86)\Microsoft Visual Studio\2019\Community\VC\Tools\MSVC\14.29.30133\atlmfc\include\afxwin1.inl
; File D:\git\src\IBK\IBK_DRFN\ProjSrc\SrcDrfn\Chart\MULTICHART\TabIndices.cpp
; File C:\Program Files (x86)\Microsoft Visual Studio\2019\Community\VC\Tools\MSVC\14.29.30133\atlmfc\include\afxwin1.inl
; File C:\Program Files (x86)\Microsoft Visual Studio\2019\Community\VC\Tools\MSVC\14.29.30133\atlmfc\include\atltypes.h
; File D:\git\src\IBK\IBK_DRFN\ProjSrc\SrcDrfn\Chart\MULTICHART\TabIndices.cpp
; File C:\Program Files (x86)\Microsoft Visual Studio\2019\Community\VC\Tools\MSVC\14.29.30133\atlmfc\include\afxwin1.inl
; File D:\git\src\IBK\IBK_DRFN\ProjSrc\SrcDrfn\Chart\MULTICHART\TabIndices.cpp
; File C:\Program Files (x86)\Microsoft Visual Studio\2019\Community\VC\Tools\MSVC\14.29.30133\atlmfc\include\afxwin2.inl
; File D:\git\src\IBK\IBK_DRFN\ProjSrc\SrcDrfn\Chart\MULTICHART\TabIndices.cpp
; File C:\Program Files (x86)\Microsoft Visual Studio\2019\Community\VC\Tools\MSVC\14.29.30133\atlmfc\include\afxwin2.inl
; File D:\git\src\IBK\IBK_DRFN\ProjSrc\SrcDrfn\Chart\MULTICHART\TabIndices.cpp
; File C:\Program Files (x86)\Microsoft Visual Studio\2019\Community\VC\Tools\MSVC\14.29.30133\atlmfc\include\afxcoll.inl
; File D:\git\src\IBK\IBK_DRFN\ProjSrc\SrcDrfn\Chart\MULTICHART\TabIndices.cpp
; File C:\Program Files (x86)\Microsoft Visual Studio\2019\Community\VC\Tools\MSVC\14.29.30133\atlmfc\include\afxcoll.inl
; File D:\git\src\IBK\IBK_DRFN\ProjSrc\SrcDrfn\Chart\MULTICHART\TabIndices.cpp
; File C:\Program Files (x86)\Microsoft Visual Studio\2019\Community\VC\Tools\MSVC\14.29.30133\atlmfc\include\afxwin2.inl
; File D:\git\src\IBK\IBK_DRFN\ProjSrc\SrcDrfn\Chart\MULTICHART\TabIndices.cpp
; File C:\Program Files (x86)\Microsoft Visual Studio\2019\Community\VC\Tools\MSVC\14.29.30133\atlmfc\include\afxcmn.inl
; File D:\git\src\IBK\IBK_DRFN\ProjSrc\SrcDrfn\Chart\MULTICHART\TabIndices.cpp
; File C:\Program Files (x86)\Microsoft Visual Studio\2019\Community\VC\Tools\MSVC\14.29.30133\atlmfc\include\afxwin2.inl
; File D:\git\src\IBK\IBK_DRFN\ProjSrc\SrcDrfn\Chart\MULTICHART\TabIndices.cpp
; File C:\Program Files (x86)\Microsoft Visual Studio\2019\Community\VC\Tools\MSVC\14.29.30133\atlmfc\include\afxwin2.inl
; File C:\Program Files (x86)\Microsoft Visual Studio\2019\Community\VC\Tools\MSVC\14.29.30133\atlmfc\include\atltypes.h
; File C:\Program Files (x86)\Microsoft Visual Studio\2019\Community\VC\Tools\MSVC\14.29.30133\atlmfc\include\afxwin2.inl
; File D:\git\src\IBK\IBK_DRFN\ProjSrc\SrcDrfn\Chart\MULTICHART\TabIndices.cpp
; File C:\Program Files (x86)\Microsoft Visual Studio\2019\Community\VC\Tools\MSVC\14.29.30133\atlmfc\include\atltypes.h
; File D:\git\src\IBK\IBK_DRFN\ProjSrc\SrcDrfn\Chart\MULTICHART\TabIndices.cpp
; File C:\Program Files (x86)\Microsoft Visual Studio\2019\Community\VC\Tools\MSVC\14.29.30133\atlmfc\include\afxwin2.inl
; File D:\git\src\IBK\IBK_DRFN\ProjSrc\SrcDrfn\Chart\MULTICHART\TabIndices.cpp
; File C:\Program Files (x86)\Microsoft Visual Studio\2019\Community\VC\Tools\MSVC\14.29.30133\atlmfc\include\afxcoll.inl
; File D:\git\src\IBK\IBK_DRFN\ProjSrc\SrcDrfn\Chart\MULTICHART\TabIndices.cpp
;	COMDAT ?WindowProc@CTabIndices@@MAEJIIJ@Z
_TEXT	SEGMENT
_strArrayIndicator$2 = -68				; size = 20
_pTreeCtrl$1$ = -48					; size = 4
_pPoint$3 = -44						; size = 8
_lSize$1$ = -40						; size = 4
_strIndicator$4 = -36					; size = 4
_rectChartMng$5 = -32					; size = 16
_menu$6 = -24						; size = 8
_lParam$GSCopy$1$ = -20					; size = 4
__$ArrayPad$ = -16					; size = 4
__$EHRec$ = -12						; size = 12
_message$ = 8						; size = 4
_wParam$ = 12						; size = 4
_lParam$ = 16						; size = 4
?WindowProc@CTabIndices@@MAEJIIJ@Z PROC			; CTabIndices::WindowProc, COMDAT
; _this$ = ecx

; 1957 : {

  00000	55		 push	 ebp
  00001	8b ec		 mov	 ebp, esp
  00003	6a ff		 push	 -1
  00005	68 00 00 00 00	 push	 __ehhandler$?WindowProc@CTabIndices@@MAEJIIJ@Z
  0000a	64 a1 00 00 00
	00		 mov	 eax, DWORD PTR fs:0
  00010	50		 push	 eax
  00011	83 ec 38	 sub	 esp, 56			; 00000038H
  00014	a1 00 00 00 00	 mov	 eax, DWORD PTR ___security_cookie
  00019	33 c5		 xor	 eax, ebp
  0001b	89 45 f0	 mov	 DWORD PTR __$ArrayPad$[ebp], eax
  0001e	53		 push	 ebx
  0001f	56		 push	 esi
  00020	57		 push	 edi
  00021	50		 push	 eax
  00022	8d 45 f4	 lea	 eax, DWORD PTR __$EHRec$[ebp]
  00025	64 a3 00 00 00
	00		 mov	 DWORD PTR fs:0, eax
  0002b	8b f9		 mov	 edi, ecx

; 1959 : 	switch(message)

  0002d	8b 5d 08	 mov	 ebx, DWORD PTR _message$[ebp]
  00030	8b 75 10	 mov	 esi, DWORD PTR _lParam$[ebp]
  00033	8b 15 00 00 00
	00		 mov	 edx, DWORD PTR __imp__SendMessageA@16
  00039	89 75 ec	 mov	 DWORD PTR _lParam$GSCopy$1$[ebp], esi
  0003c	81 fb 65 06 00
	00		 cmp	 ebx, 1637		; 00000665H
  00042	0f 87 31 01 00
	00		 ja	 $LN27@WindowProc
  00048	0f 84 87 00 00
	00		 je	 $LN19@WindowProc
  0004e	81 fb ae 04 00
	00		 cmp	 ebx, 1198		; 000004aeH
  00054	74 6b		 je	 SHORT $LN7@WindowProc
  00056	81 fb 63 06 00
	00		 cmp	 ebx, 1635		; 00000663H
  0005c	0f 85 5d 02 00
	00		 jne	 $LN108@WindowProc

; 1967 : 		case UDM_MAP_OPEN_SEARCH:
; 1968 : 			{
; 1969 : 				//if(m_pChartMng->GetSafeHwnd()) // 2005. 04. 22 by Nam
; 1970 : 				//	m_pChartMng->SendMessage(UMSG_ADDCHARTBLOCK,(WPARAM)(LPCTSTR)lParam, FROM_TABJIPYO_MARKET);
; 1971 : 				if(szIndexGroupName[m_nIndexSelected] == "")		

  00062	8b 87 8c 17 00
	00		 mov	 eax, DWORD PTR [edi+6028]
  00068	8b 8f c4 00 00
	00		 mov	 ecx, DWORD PTR [edi+196]
  0006e	81 3c 85 00 00
	00 00 00 00 00
	00		 cmp	 DWORD PTR ?szIndexGroupName@@3PAPADA[eax*4], OFFSET ??_C@_08OOIINJIM@?$LN?C?$MA?e?A?v?G?$KF@
  00079	75 23		 jne	 SHORT $LN9@WindowProc
; File C:\Program Files (x86)\Microsoft Visual Studio\2019\Community\VC\Tools\MSVC\14.29.30133\atlmfc\include\afxwin2.inl

; 25   : 	{ return this == NULL ? NULL : m_hWnd; }

  0007b	85 c9		 test	 ecx, ecx
  0007d	0f 84 3c 02 00
	00		 je	 $LN108@WindowProc
  00083	8b 41 20	 mov	 eax, DWORD PTR [ecx+32]
; File D:\git\src\IBK\IBK_DRFN\ProjSrc\SrcDrfn\Chart\MULTICHART\TabIndices.cpp

; 1973 : 					if(m_pChartMng->GetSafeHwnd()) // 2005. 04. 22 by Nam

  00086	85 c0		 test	 eax, eax
  00088	0f 84 31 02 00
	00		 je	 $LN108@WindowProc
; File C:\Program Files (x86)\Microsoft Visual Studio\2019\Community\VC\Tools\MSVC\14.29.30133\atlmfc\include\afxwin2.inl

; 32   : 	{ ASSERT(::IsWindow(m_hWnd)); return ::SendMessage(m_hWnd, message, wParam, lParam); }

  0008e	6a 03		 push	 3
  00090	56		 push	 esi
  00091	68 11 04 00 00	 push	 1041			; 00000411H
  00096	50		 push	 eax
  00097	ff d2		 call	 edx
; File D:\git\src\IBK\IBK_DRFN\ProjSrc\SrcDrfn\Chart\MULTICHART\TabIndices.cpp

; 1975 : 				}

  00099	e9 1b 02 00 00	 jmp	 $LN112@WindowProc
$LN9@WindowProc:
; File C:\Program Files (x86)\Microsoft Visual Studio\2019\Community\VC\Tools\MSVC\14.29.30133\atlmfc\include\afxwin2.inl

; 25   : 	{ return this == NULL ? NULL : m_hWnd; }

  0009e	85 c9		 test	 ecx, ecx
  000a0	0f 84 19 02 00
	00		 je	 $LN108@WindowProc
  000a6	8b 41 20	 mov	 eax, DWORD PTR [ecx+32]
; File D:\git\src\IBK\IBK_DRFN\ProjSrc\SrcDrfn\Chart\MULTICHART\TabIndices.cpp

; 1978 : 					if(m_pChartMng->GetSafeHwnd()) // 2005. 04. 22 by Nam

  000a9	85 c0		 test	 eax, eax
  000ab	0f 84 0e 02 00
	00		 je	 $LN108@WindowProc
; File C:\Program Files (x86)\Microsoft Visual Studio\2019\Community\VC\Tools\MSVC\14.29.30133\atlmfc\include\afxwin2.inl

; 32   : 	{ ASSERT(::IsWindow(m_hWnd)); return ::SendMessage(m_hWnd, message, wParam, lParam); }

  000b1	6a 00		 push	 0
  000b3	56		 push	 esi
  000b4	68 11 04 00 00	 push	 1041			; 00000411H
  000b9	50		 push	 eax
  000ba	ff d2		 call	 edx
; File D:\git\src\IBK\IBK_DRFN\ProjSrc\SrcDrfn\Chart\MULTICHART\TabIndices.cpp

; 1984 : 				break;

  000bc	e9 f8 01 00 00	 jmp	 $LN112@WindowProc
$LN7@WindowProc:

; 1960 : 	{
; 1961 : 		case UMSG_STOP_JIPYOCYCLE:
; 1962 : 			{
; 1963 : 				m_bRun = FALSE;//AfxMessageBox(" ");

  000c1	c7 87 d8 00 00
	00 00 00 00 00	 mov	 DWORD PTR [edi+216], 0

; 1964 : 				OnBtnStop();

  000cb	e8 00 00 00 00	 call	 ?OnBtnStop@CTabIndices@@IAEXXZ ; CTabIndices::OnBtnStop

; 1965 : 			}
; 1966 : 			break;

  000d0	e9 e4 01 00 00	 jmp	 $LN112@WindowProc
$LN19@WindowProc:
; File C:\Program Files (x86)\Microsoft Visual Studio\2019\Community\VC\Tools\MSVC\14.29.30133\atlmfc\include\afxwin1.inl

; 903  : 	{ m_hMenu = NULL; }

  000d5	c7 45 e8 00 00
	00 00		 mov	 DWORD PTR _menu$6[ebp], OFFSET ??_7CMenu@@6B@
  000dc	c7 45 ec 00 00
	00 00		 mov	 DWORD PTR _menu$6[ebp+4], 0
; File D:\git\src\IBK\IBK_DRFN\ProjSrc\SrcDrfn\Chart\MULTICHART\TabIndices.cpp

; 2032 : 				CMenu menu;

  000e3	c7 45 fc 02 00
	00 00		 mov	 DWORD PTR __$EHRec$[ebp+8], 2
; File C:\Program Files (x86)\Microsoft Visual Studio\2019\Community\VC\Tools\MSVC\14.29.30133\atlmfc\include\afxwin1.inl

; 909  : 	{ return Attach(::CreatePopupMenu()); }

  000ea	ff 15 00 00 00
	00		 call	 DWORD PTR __imp__CreatePopupMenu@0
  000f0	50		 push	 eax
  000f1	8d 4d e8	 lea	 ecx, DWORD PTR _menu$6[ebp]
  000f4	e8 00 00 00 00	 call	 ?Attach@CMenu@@QAEHPAUHMENU__@@@Z ; CMenu::Attach
; File D:\git\src\IBK\IBK_DRFN\ProjSrc\SrcDrfn\Chart\MULTICHART\TabIndices.cpp

; 2035 : 				if(m_nIndexSelected == 1)	// Del

  000f9	83 bf 8c 17 00
	00 01		 cmp	 DWORD PTR [edi+6028], 1
  00100	75 0c		 jne	 SHORT $LN20@WindowProc
; File C:\Program Files (x86)\Microsoft Visual Studio\2019\Community\VC\Tools\MSVC\14.29.30133\atlmfc\include\afxwin1.inl

; 924  : 	{ ASSERT(::IsMenu(m_hMenu)); return ::AppendMenu(m_hMenu, nFlags, nIDNewItem, lpszNewItem); }

  00102	68 00 00 00 00	 push	 OFFSET ??_C@_0O@BMKAAEKD@?A?q?$LA?$NM?C?$KD?$LB?b?5?$LL?h?A?$KG@
  00107	68 c8 00 00 00	 push	 200			; 000000c8H
; File D:\git\src\IBK\IBK_DRFN\ProjSrc\SrcDrfn\Chart\MULTICHART\TabIndices.cpp

; 2036 : 					menu.AppendMenu(MF_STRING, MENU_ID_DEL, (LPCTSTR)MENU_TITLE_DEL); 

  0010c	eb 07		 jmp	 SHORT $LN111@WindowProc
$LN20@WindowProc:
; File C:\Program Files (x86)\Microsoft Visual Studio\2019\Community\VC\Tools\MSVC\14.29.30133\atlmfc\include\afxwin1.inl

; 924  : 	{ ASSERT(::IsMenu(m_hMenu)); return ::AppendMenu(m_hMenu, nFlags, nIDNewItem, lpszNewItem); }

  0010e	68 00 00 00 00	 push	 OFFSET ??_C@_0O@KCIMPLBF@?A?q?$LA?$NM?C?$KD?$LB?b?5?C?$NP?$LA?$KB@
  00113	6a 64		 push	 100			; 00000064H
$LN111@WindowProc:
; File C:\Program Files (x86)\Microsoft Visual Studio\2019\Community\VC\Tools\MSVC\14.29.30133\atlmfc\include\atltypes.h

; 424  : 	x = (short)LOWORD(dwPoint);

  00115	6a 00		 push	 0
  00117	ff 75 ec	 push	 DWORD PTR _menu$6[ebp+4]
  0011a	ff 15 00 00 00
	00		 call	 DWORD PTR __imp__AppendMenuA@16
  00120	8b 4d 0c	 mov	 ecx, DWORD PTR _wParam$[ebp]
  00123	0f bf c1	 movsx	 eax, cx
  00126	89 45 d4	 mov	 DWORD PTR _pPoint$3[ebp], eax

; 425  : 	y = (short)HIWORD(dwPoint);

  00129	8b c1		 mov	 eax, ecx
  0012b	c1 e8 10	 shr	 eax, 16			; 00000010H
  0012e	98		 cwde
  0012f	89 45 d8	 mov	 DWORD PTR _pPoint$3[ebp+4], eax
; File D:\git\src\IBK\IBK_DRFN\ProjSrc\SrcDrfn\Chart\MULTICHART\TabIndices.cpp

; 2041 : 				GetCursorPos(&pPoint);

  00132	8d 45 d4	 lea	 eax, DWORD PTR _pPoint$3[ebp]
  00135	50		 push	 eax
  00136	ff 15 00 00 00
	00		 call	 DWORD PTR __imp__GetCursorPos@4

; 2042 : 				menu.TrackPopupMenu(TPM_LEFTALIGN | TPM_RIGHTBUTTON, pPoint.x, pPoint.y, this);

  0013c	6a 00		 push	 0
  0013e	57		 push	 edi
  0013f	ff 75 d8	 push	 DWORD PTR _pPoint$3[ebp+4]
  00142	8d 4d e8	 lea	 ecx, DWORD PTR _menu$6[ebp]
  00145	ff 75 d4	 push	 DWORD PTR _pPoint$3[ebp]
  00148	6a 02		 push	 2
  0014a	e8 00 00 00 00	 call	 ?TrackPopupMenu@CMenu@@QAEHIHHPAVCWnd@@PBUtagRECT@@@Z ; CMenu::TrackPopupMenu

; 2043 : 				menu.DestroyMenu();

  0014f	8d 4d e8	 lea	 ecx, DWORD PTR _menu$6[ebp]
  00152	e8 00 00 00 00	 call	 ?DestroyMenu@CMenu@@QAEHXZ ; CMenu::DestroyMenu
; File C:\Program Files (x86)\Microsoft Visual Studio\2019\Community\VC\Tools\MSVC\14.29.30133\atlmfc\include\afxwin1.inl

; 905  : 	{ DestroyMenu(); }

  00157	8d 4d e8	 lea	 ecx, DWORD PTR _menu$6[ebp]
  0015a	c7 45 fc 03 00
	00 00		 mov	 DWORD PTR __$EHRec$[ebp+8], 3
  00161	c7 45 e8 00 00
	00 00		 mov	 DWORD PTR _menu$6[ebp], OFFSET ??_7CMenu@@6B@
  00168	e8 00 00 00 00	 call	 ?DestroyMenu@CMenu@@QAEHXZ ; CMenu::DestroyMenu
  0016d	c7 45 fc ff ff
	ff ff		 mov	 DWORD PTR __$EHRec$[ebp+8], -1
  00174	e9 40 01 00 00	 jmp	 $LN112@WindowProc
$LN27@WindowProc:
; File D:\git\src\IBK\IBK_DRFN\ProjSrc\SrcDrfn\Chart\MULTICHART\TabIndices.cpp

; 1959 : 	switch(message)

  00179	81 fb c1 08 00
	00		 cmp	 ebx, 2241		; 000008c1H
  0017f	0f 85 3a 01 00
	00		 jne	 $LN108@WindowProc

; 1985 : 			}
; 1986 : 		case WMU_OUTBAR_NOTIFY:
; 1987 : 			{
; 1988 : 				if(wParam == NM_FOLDERCHANGE)

  00185	8b 4d 0c	 mov	 ecx, DWORD PTR _wParam$[ebp]
  00188	83 f9 05	 cmp	 ecx, 5
  0018b	0f 85 31 01 00
	00		 jne	 $LN15@WindowProc

; 1989 : 				{
; 1990 : 					m_nIndexSelected = lParam;

  00191	89 b7 8c 17 00
	00		 mov	 DWORD PTR [edi+6028], esi

; 1991 : 					if(m_nIndexSelected == 2)

  00197	83 fe 02	 cmp	 esi, 2
  0019a	0f 85 22 01 00
	00		 jne	 $LN15@WindowProc

; 1992 : 					{
; 1993 : 						POSITION pos = m_ListTree.FindIndex(m_nIndexSelected);

  001a0	56		 push	 esi
  001a1	8d 8f 60 05 00
	00		 lea	 ecx, DWORD PTR [edi+1376]
  001a7	e8 00 00 00 00	 call	 ?FindIndex@?$CList@PAVCTrTreeCtrl@@PAV1@@@QBEPAU__POSITION@@H@Z ; CList<CTrTreeCtrl *,CTrTreeCtrl *>::FindIndex

; 1994 : 						CTreeCtrl* pTreeCtrl  = m_ListTree.GetAt(pos);
; 1995 : 						HTREEITEM hmyItem = NULL;
; 1996 : 
; 1997 : 						BOOL bExistance = FALSE;
; 1998 : 						CString strIndicator;

  001ac	8d 4d dc	 lea	 ecx, DWORD PTR _strIndicator$4[ebp]
  001af	8b 40 08	 mov	 eax, DWORD PTR [eax+8]
  001b2	89 45 d0	 mov	 DWORD PTR _pTreeCtrl$1$[ebp], eax
  001b5	ff 15 00 00 00
	00		 call	 DWORD PTR __imp_??0?$CStringT@DV?$StrTraitMFC_DLL@DV?$ChTraitsCRT@D@ATL@@@@@ATL@@QAE@XZ

; 1999 : 
; 2000 : 						CStringArray strArrayIndicator;	

  001bb	8d 4d bc	 lea	 ecx, DWORD PTR _strArrayIndicator$2[ebp]
  001be	c7 45 fc 00 00
	00 00		 mov	 DWORD PTR __$EHRec$[ebp+8], 0
  001c5	e8 00 00 00 00	 call	 ??0CStringArray@@QAE@XZ	; CStringArray::CStringArray

; 2001 : 						if(m_pChartMng->GetSafeHwnd())

  001ca	8b 87 c4 00 00
	00		 mov	 eax, DWORD PTR [edi+196]
  001d0	c6 45 fc 01	 mov	 BYTE PTR __$EHRec$[ebp+8], 1
; File C:\Program Files (x86)\Microsoft Visual Studio\2019\Community\VC\Tools\MSVC\14.29.30133\atlmfc\include\afxwin2.inl

; 25   : 	{ return this == NULL ? NULL : m_hWnd; }

  001d4	85 c0		 test	 eax, eax
  001d6	0f 84 c5 00 00
	00		 je	 $LN5@WindowProc
  001dc	8b 40 20	 mov	 eax, DWORD PTR [eax+32]
; File D:\git\src\IBK\IBK_DRFN\ProjSrc\SrcDrfn\Chart\MULTICHART\TabIndices.cpp

; 2001 : 						if(m_pChartMng->GetSafeHwnd())

  001df	85 c0		 test	 eax, eax
  001e1	0f 84 ba 00 00
	00		 je	 $LN5@WindowProc
; File C:\Program Files (x86)\Microsoft Visual Studio\2019\Community\VC\Tools\MSVC\14.29.30133\atlmfc\include\afxwin2.inl

; 32   : 	{ ASSERT(::IsWindow(m_hWnd)); return ::SendMessage(m_hWnd, message, wParam, lParam); }

  001e7	8d 4d bc	 lea	 ecx, DWORD PTR _strArrayIndicator$2[ebp]
  001ea	51		 push	 ecx
  001eb	68 00 00 00 00	 push	 OFFSET ??_C@_08KJOAPPHN@?$MA?$PM?C?$LM?A?v?G?$KF@
  001f0	68 0f 04 00 00	 push	 1039			; 0000040fH
  001f5	50		 push	 eax
  001f6	ff 15 00 00 00
	00		 call	 DWORD PTR __imp__SendMessageA@16
; File D:\git\src\IBK\IBK_DRFN\ProjSrc\SrcDrfn\Chart\MULTICHART\TabIndices.cpp

; 2004 : 							int lSize = strArrayIndicator.GetSize();

  001fc	8b 45 c4	 mov	 eax, DWORD PTR _strArrayIndicator$2[ebp+8]

; 2005 : 
; 2006 : 							pTreeCtrl->DeleteAllItems();

  001ff	8b 4d d0	 mov	 ecx, DWORD PTR _pTreeCtrl$1$[ebp]
  00202	89 45 d8	 mov	 DWORD PTR _lSize$1$[ebp], eax
  00205	e8 00 00 00 00	 call	 ?DeleteAllItems@CTreeCtrl@@QAEHXZ ; CTreeCtrl::DeleteAllItems

; 2008 : 							for(long lPos=0;lPos<lSize;lPos++)

  0020a	33 f6		 xor	 esi, esi
  0020c	39 75 d8	 cmp	 DWORD PTR _lSize$1$[ebp], esi
  0020f	0f 8e 89 00 00
	00		 jle	 $LN102@WindowProc
$LL6@WindowProc:
; File C:\Program Files (x86)\Microsoft Visual Studio\2019\Community\VC\Tools\MSVC\14.29.30133\atlmfc\include\afxcoll.inl

; 289  : 		if( nIndex < 0 || nIndex >= m_nSize )

  00215	85 f6		 test	 esi, esi
  00217	0f 88 38 01 00
	00		 js	 $LN86@WindowProc
  0021d	3b 75 c4	 cmp	 esi, DWORD PTR _strArrayIndicator$2[ebp+8]
  00220	0f 8d 2f 01 00
	00		 jge	 $LN86@WindowProc

; 291  : 		return m_pData[nIndex]; }

  00226	8b 45 c0	 mov	 eax, DWORD PTR _strArrayIndicator$2[ebp+4]
; File D:\git\src\IBK\IBK_DRFN\ProjSrc\SrcDrfn\Chart\MULTICHART\TabIndices.cpp

; 2010 : 								strIndicator = strArrayIndicator.GetAt(lPos);

  00229	8d 4d dc	 lea	 ecx, DWORD PTR _strIndicator$4[ebp]
; File C:\Program Files (x86)\Microsoft Visual Studio\2019\Community\VC\Tools\MSVC\14.29.30133\atlmfc\include\afxcoll.inl

; 291  : 		return m_pData[nIndex]; }

  0022c	8d 04 b0	 lea	 eax, DWORD PTR [eax+esi*4]
; File D:\git\src\IBK\IBK_DRFN\ProjSrc\SrcDrfn\Chart\MULTICHART\TabIndices.cpp

; 2010 : 								strIndicator = strArrayIndicator.GetAt(lPos);

  0022f	50		 push	 eax
  00230	ff 15 00 00 00
	00		 call	 DWORD PTR __imp_??4?$CStringT@DV?$StrTraitMFC_DLL@DV?$ChTraitsCRT@D@ATL@@@@@ATL@@QAEAAV01@ABV01@@Z

; 2011 : 
; 2012 : 								long lPos1 = strIndicator.Find("&&");

  00236	6a 00		 push	 0
  00238	68 00 00 00 00	 push	 OFFSET ??_C@_02PPKAJPJL@?$CG?$CG@
  0023d	8d 4d dc	 lea	 ecx, DWORD PTR _strIndicator$4[ebp]
  00240	ff 15 00 00 00
	00		 call	 DWORD PTR __imp_?Find@?$CStringT@DV?$StrTraitMFC_DLL@DV?$ChTraitsCRT@D@ATL@@@@@ATL@@QBEHPBDH@Z

; 2013 : 								if(lPos1>=0)

  00246	85 c0		 test	 eax, eax
  00248	78 0c		 js	 SHORT $LN17@WindowProc

; 2014 : 								{
; 2015 : 									strIndicator.Delete(lPos);

  0024a	6a 01		 push	 1
  0024c	56		 push	 esi
  0024d	8d 4d dc	 lea	 ecx, DWORD PTR _strIndicator$4[ebp]
  00250	ff 15 00 00 00
	00		 call	 DWORD PTR __imp_?Delete@?$CStringT@DV?$StrTraitMFC_DLL@DV?$ChTraitsCRT@D@ATL@@@@@ATL@@QAEHHH@Z
$LN17@WindowProc:

; 2016 : 								}	
; 2017 : 								bExistance = m_pChartMng->SendMessage(UMSG_HASGRAPH,(WPARAM)(LPCTSTR)strIndicator);

  00256	8b 87 c4 00 00
	00		 mov	 eax, DWORD PTR [edi+196]
; File C:\Program Files (x86)\Microsoft Visual Studio\2019\Community\VC\Tools\MSVC\14.29.30133\atlmfc\include\afxwin2.inl

; 32   : 	{ ASSERT(::IsWindow(m_hWnd)); return ::SendMessage(m_hWnd, message, wParam, lParam); }

  0025c	6a 00		 push	 0
  0025e	ff 75 dc	 push	 DWORD PTR _strIndicator$4[ebp]
  00261	68 10 04 00 00	 push	 1040			; 00000410H
  00266	ff 70 20	 push	 DWORD PTR [eax+32]
  00269	ff 15 00 00 00
	00		 call	 DWORD PTR __imp__SendMessageA@16
; File D:\git\src\IBK\IBK_DRFN\ProjSrc\SrcDrfn\Chart\MULTICHART\TabIndices.cpp

; 2018 : 								if(bExistance)

  0026f	85 c0		 test	 eax, eax
  00271	74 21		 je	 SHORT $LN4@WindowProc
; File C:\Program Files (x86)\Microsoft Visual Studio\2019\Community\VC\Tools\MSVC\14.29.30133\atlmfc\include\afxcmn.inl

; 271  : 	{ ASSERT(::IsWindow(m_hWnd)); return InsertItem(TVIF_TEXT, lpszItem, 0, 0, 0, 0, 0, hParent, hInsertAfter); }

  00273	8b 4d d0	 mov	 ecx, DWORD PTR _pTreeCtrl$1$[ebp]
  00276	68 02 00 ff ff	 push	 -65534			; ffff0002H
  0027b	68 00 00 ff ff	 push	 -65536			; ffff0000H
  00280	6a 00		 push	 0
  00282	6a 00		 push	 0
  00284	6a 00		 push	 0
  00286	6a 00		 push	 0
  00288	6a 00		 push	 0
  0028a	ff 75 dc	 push	 DWORD PTR _strIndicator$4[ebp]
  0028d	6a 01		 push	 1
  0028f	e8 00 00 00 00	 call	 ?InsertItem@CTreeCtrl@@QAEPAU_TREEITEM@@IPBDHHIIJPAU2@1@Z ; CTreeCtrl::InsertItem
$LN4@WindowProc:
; File D:\git\src\IBK\IBK_DRFN\ProjSrc\SrcDrfn\Chart\MULTICHART\TabIndices.cpp

; 2008 : 							for(long lPos=0;lPos<lSize;lPos++)

  00294	46		 inc	 esi
  00295	3b 75 d8	 cmp	 esi, DWORD PTR _lSize$1$[ebp]
  00298	0f 8c 77 ff ff
	ff		 jl	 $LL6@WindowProc
$LN102@WindowProc:

; 2019 : 									pTreeCtrl->InsertItem(strIndicator);
; 2020 : 							}
; 2021 : 						}
; 2022 : 					}

  0029e	8b 75 ec	 mov	 esi, DWORD PTR _lParam$GSCopy$1$[ebp]
$LN5@WindowProc:
  002a1	8d 4d bc	 lea	 ecx, DWORD PTR _strArrayIndicator$2[ebp]
  002a4	e8 00 00 00 00	 call	 ??1CStringArray@@UAE@XZ	; CStringArray::~CStringArray
  002a9	8d 4d dc	 lea	 ecx, DWORD PTR _strIndicator$4[ebp]
  002ac	c7 45 fc ff ff
	ff ff		 mov	 DWORD PTR __$EHRec$[ebp+8], -1
  002b3	ff 15 00 00 00
	00		 call	 DWORD PTR __imp_??1?$CStringT@DV?$StrTraitMFC_DLL@DV?$ChTraitsCRT@D@ATL@@@@@ATL@@QAE@XZ
$LN112@WindowProc:

; 2044 : 			}
; 2045 : 			break;
; 2046 : 	}
; 2047 : 	if(message == RMSG_DRAGSTART)

  002b9	8b 15 00 00 00
	00		 mov	 edx, DWORD PTR __imp__SendMessageA@16
$LN108@WindowProc:
  002bf	8b 4d 0c	 mov	 ecx, DWORD PTR _wParam$[ebp]
$LN15@WindowProc:
  002c2	a1 00 00 00 00	 mov	 eax, DWORD PTR ?RMSG_DRAGSTART@@3IB
  002c7	3b d8		 cmp	 ebx, eax
  002c9	75 10		 jne	 SHORT $LN22@WindowProc
; File C:\Program Files (x86)\Microsoft Visual Studio\2019\Community\VC\Tools\MSVC\14.29.30133\atlmfc\include\afxwin2.inl

; 32   : 	{ ASSERT(::IsWindow(m_hWnd)); return ::SendMessage(m_hWnd, message, wParam, lParam); }

  002cb	56		 push	 esi
  002cc	51		 push	 ecx
  002cd	50		 push	 eax
  002ce	8b 87 c0 00 00
	00		 mov	 eax, DWORD PTR [edi+192]
  002d4	ff 70 20	 push	 DWORD PTR [eax+32]
  002d7	ff d2		 call	 edx
; File D:\git\src\IBK\IBK_DRFN\ProjSrc\SrcDrfn\Chart\MULTICHART\TabIndices.cpp

; 2050 : 	}

  002d9	eb 50		 jmp	 SHORT $LN25@WindowProc
$LN22@WindowProc:

; 2051 : 	else if(message == RMSG_DRAGEND)

  002db	3b 1d 00 00 00
	00		 cmp	 ebx, DWORD PTR ?RMSG_DRAGEND@@3IB
  002e1	75 48		 jne	 SHORT $LN25@WindowProc
; File C:\Program Files (x86)\Microsoft Visual Studio\2019\Community\VC\Tools\MSVC\14.29.30133\atlmfc\include\afxwin2.inl

; 84   : 	{ ASSERT(::IsWindow(m_hWnd)); ::GetWindowRect(m_hWnd, lpRect); }

  002e3	8d 45 e0	 lea	 eax, DWORD PTR _rectChartMng$5[ebp]
  002e6	0f 57 c0	 xorps	 xmm0, xmm0
  002e9	50		 push	 eax
  002ea	8b 87 bc 00 00
	00		 mov	 eax, DWORD PTR [edi+188]
; File C:\Program Files (x86)\Microsoft Visual Studio\2019\Community\VC\Tools\MSVC\14.29.30133\atlmfc\include\atltypes.h

; 528  : 	left = 0;

  002f0	0f 11 45 e0	 movups	 XMMWORD PTR _rectChartMng$5[ebp], xmm0
; File C:\Program Files (x86)\Microsoft Visual Studio\2019\Community\VC\Tools\MSVC\14.29.30133\atlmfc\include\afxwin2.inl

; 84   : 	{ ASSERT(::IsWindow(m_hWnd)); ::GetWindowRect(m_hWnd, lpRect); }

  002f4	ff 70 20	 push	 DWORD PTR [eax+32]
  002f7	ff 15 00 00 00
	00		 call	 DWORD PTR __imp__GetWindowRect@8
; File D:\git\src\IBK\IBK_DRFN\ProjSrc\SrcDrfn\Chart\MULTICHART\TabIndices.cpp

; 2056 : 		if(!rectChartMng.PtInRect(*pDnD->GetCursorPoint()))

  002fd	8b 06		 mov	 eax, DWORD PTR [esi]
; File C:\Program Files (x86)\Microsoft Visual Studio\2019\Community\VC\Tools\MSVC\14.29.30133\atlmfc\include\atltypes.h

; 648  : 	return ::PtInRect(this, point);

  002ff	ff 70 04	 push	 DWORD PTR [eax+4]
  00302	ff 30		 push	 DWORD PTR [eax]
  00304	8d 45 e0	 lea	 eax, DWORD PTR _rectChartMng$5[ebp]
  00307	50		 push	 eax
  00308	ff 15 00 00 00
	00		 call	 DWORD PTR __imp__PtInRect@12
; File D:\git\src\IBK\IBK_DRFN\ProjSrc\SrcDrfn\Chart\MULTICHART\TabIndices.cpp

; 2056 : 		if(!rectChartMng.PtInRect(*pDnD->GetCursorPoint()))

  0030e	85 c0		 test	 eax, eax
  00310	75 19		 jne	 SHORT $LN25@WindowProc
; File C:\Program Files (x86)\Microsoft Visual Studio\2019\Community\VC\Tools\MSVC\14.29.30133\atlmfc\include\afxwin2.inl

; 39   : 	{ ASSERT(::IsWindow(m_hWnd)); return ::PostMessage(m_hWnd, message, wParam, lParam); }

  00312	8b 87 c0 00 00
	00		 mov	 eax, DWORD PTR [edi+192]
  00318	56		 push	 esi
  00319	ff 75 0c	 push	 DWORD PTR _wParam$[ebp]
  0031c	ff 35 00 00 00
	00		 push	 DWORD PTR ?RMSG_DRAGEND@@3IB
  00322	ff 70 20	 push	 DWORD PTR [eax+32]
  00325	ff 15 00 00 00
	00		 call	 DWORD PTR __imp__PostMessageA@16
$LN25@WindowProc:
; File D:\git\src\IBK\IBK_DRFN\ProjSrc\SrcDrfn\Chart\MULTICHART\TabIndices.cpp

; 2062 : 	return CTabDlg::WindowProc(message, wParam, lParam);

  0032b	56		 push	 esi
  0032c	ff 75 0c	 push	 DWORD PTR _wParam$[ebp]
  0032f	8b cf		 mov	 ecx, edi
  00331	53		 push	 ebx
  00332	e8 00 00 00 00	 call	 ?WindowProc@CWnd@@MAEJIIJ@Z ; CWnd::WindowProc

; 2063 : }

  00337	8b 4d f4	 mov	 ecx, DWORD PTR __$EHRec$[ebp]
  0033a	64 89 0d 00 00
	00 00		 mov	 DWORD PTR fs:0, ecx
  00341	59		 pop	 ecx
  00342	5f		 pop	 edi
  00343	5e		 pop	 esi
  00344	5b		 pop	 ebx
  00345	8b 4d f0	 mov	 ecx, DWORD PTR __$ArrayPad$[ebp]
  00348	33 cd		 xor	 ecx, ebp
  0034a	e8 00 00 00 00	 call	 @__security_check_cookie@4
  0034f	8b e5		 mov	 esp, ebp
  00351	5d		 pop	 ebp
  00352	c2 0c 00	 ret	 12			; 0000000cH
$LN86@WindowProc:
; File C:\Program Files (x86)\Microsoft Visual Studio\2019\Community\VC\Tools\MSVC\14.29.30133\atlmfc\include\afxcoll.inl

; 290  : 			AfxThrowInvalidArgException();

  00355	e8 00 00 00 00	 call	 ?AfxThrowInvalidArgException@@YGXXZ ; AfxThrowInvalidArgException
$LN110@WindowProc:
  0035a	cc		 int	 3
_TEXT	ENDS
;	COMDAT text$x
text$x	SEGMENT
__unwindfunclet$?WindowProc@CTabIndices@@MAEJIIJ@Z$2:
  00000	8d 4d e8	 lea	 ecx, DWORD PTR _menu$6[ebp]
  00003	e9 00 00 00 00	 jmp	 ??1CMenu@@UAE@XZ	; CMenu::~CMenu
__unwindfunclet$?WindowProc@CTabIndices@@MAEJIIJ@Z$0:
  00008	8d 4d dc	 lea	 ecx, DWORD PTR _strIndicator$4[ebp]
  0000b	ff 25 00 00 00
	00		 jmp	 DWORD PTR __imp_??1?$CStringT@DV?$StrTraitMFC_DLL@DV?$ChTraitsCRT@D@ATL@@@@@ATL@@QAE@XZ
__unwindfunclet$?WindowProc@CTabIndices@@MAEJIIJ@Z$1:
  00011	8d 4d bc	 lea	 ecx, DWORD PTR _strArrayIndicator$2[ebp]
  00014	e9 00 00 00 00	 jmp	 ??1CStringArray@@UAE@XZ	; CStringArray::~CStringArray
  00019	cc		 int	 3
  0001a	cc		 int	 3
  0001b	cc		 int	 3
  0001c	cc		 int	 3
  0001d	cc		 int	 3
__ehhandler$?WindowProc@CTabIndices@@MAEJIIJ@Z:
  0001e	90		 npad	 1
  0001f	90		 npad	 1
  00020	8b 54 24 08	 mov	 edx, DWORD PTR [esp+8]
  00024	8d 42 0c	 lea	 eax, DWORD PTR [edx+12]
  00027	8b 4a b8	 mov	 ecx, DWORD PTR [edx-72]
  0002a	33 c8		 xor	 ecx, eax
  0002c	e8 00 00 00 00	 call	 @__security_check_cookie@4
  00031	8b 4a fc	 mov	 ecx, DWORD PTR [edx-4]
  00034	33 c8		 xor	 ecx, eax
  00036	e8 00 00 00 00	 call	 @__security_check_cookie@4
  0003b	b8 00 00 00 00	 mov	 eax, OFFSET __ehfuncinfo$?WindowProc@CTabIndices@@MAEJIIJ@Z
  00040	e9 00 00 00 00	 jmp	 ___CxxFrameHandler3
text$x	ENDS
?WindowProc@CTabIndices@@MAEJIIJ@Z ENDP			; CTabIndices::WindowProc
; Function compile flags: /Ogtp
; File D:\git\src\IBK\IBK_DRFN\ProjSrc\SrcDrfn\Chart\MULTICHART\TabIndices.cpp
;	COMDAT ?DoDataExchange@CTabIndices@@MAEXPAVCDataExchange@@@Z
_TEXT	SEGMENT
_pDX$ = 8						; size = 4
?DoDataExchange@CTabIndices@@MAEXPAVCDataExchange@@@Z PROC ; CTabIndices::DoDataExchange, COMDAT
; _this$ = ecx

; 88   : {

  00000	55		 push	 ebp
  00001	8b ec		 mov	 ebp, esp
  00003	56		 push	 esi
  00004	57		 push	 edi

; 89   : 	CTabDlg::DoDataExchange(pDX);

  00005	8b 7d 08	 mov	 edi, DWORD PTR _pDX$[ebp]
  00008	8b f1		 mov	 esi, ecx
  0000a	57		 push	 edi
  0000b	e8 00 00 00 00	 call	 ?DoDataExchange@CTabDlg@@MAEXPAVCDataExchange@@@Z ; CTabDlg::DoDataExchange

; 90   : 	//{{AFX_DATA_MAP(CTabIndices)
; 91   : 	DDX_Control(pDX, IDC_STATIC_TITLE2, m_stTitle);

  00010	8d 86 80 05 00
	00		 lea	 eax, DWORD PTR [esi+1408]
  00016	50		 push	 eax
  00017	68 87 18 00 00	 push	 6279			; 00001887H
  0001c	57		 push	 edi
  0001d	e8 00 00 00 00	 call	 ?DDX_Control@@YGXPAVCDataExchange@@HAAVCWnd@@@Z ; DDX_Control

; 92   : 	DDX_Control(pDX, IDC_RADIO_AUTO, m_RadioAuto);

  00022	8d 86 c8 09 00
	00		 lea	 eax, DWORD PTR [esi+2504]
  00028	50		 push	 eax
  00029	68 54 18 00 00	 push	 6228			; 00001854H
  0002e	57		 push	 edi
  0002f	e8 00 00 00 00	 call	 ?DDX_Control@@YGXPAVCDataExchange@@HAAVCWnd@@@Z ; DDX_Control

; 93   : 	DDX_Control(pDX, IDC_RADIO_MANUAL, m_RadioManual);

  00034	8d 86 48 0a 00
	00		 lea	 eax, DWORD PTR [esi+2632]
  0003a	50		 push	 eax
  0003b	68 53 18 00 00	 push	 6227			; 00001853H
  00040	57		 push	 edi
  00041	e8 00 00 00 00	 call	 ?DDX_Control@@YGXPAVCDataExchange@@HAAVCWnd@@@Z ; DDX_Control

; 94   : 	DDX_Control(pDX, IDC_BTN_STOP, m_btnStop);

  00046	8d 86 c8 0a 00
	00		 lea	 eax, DWORD PTR [esi+2760]
  0004c	50		 push	 eax
  0004d	68 56 18 00 00	 push	 6230			; 00001856H
  00052	57		 push	 edi
  00053	e8 00 00 00 00	 call	 ?DDX_Control@@YGXPAVCDataExchange@@HAAVCWnd@@@Z ; DDX_Control

; 95   : 	DDX_Control(pDX, IDC_BTN_PREV, m_btnPrev);

  00058	8d 86 28 0c 00
	00		 lea	 eax, DWORD PTR [esi+3112]
  0005e	50		 push	 eax
  0005f	68 55 18 00 00	 push	 6229			; 00001855H
  00064	57		 push	 edi
  00065	e8 00 00 00 00	 call	 ?DDX_Control@@YGXPAVCDataExchange@@HAAVCWnd@@@Z ; DDX_Control

; 96   : 	DDX_Control(pDX, IDC_BTN_NEXT, m_btnNext);

  0006a	8d 86 88 0d 00
	00		 lea	 eax, DWORD PTR [esi+3464]
  00070	50		 push	 eax
  00071	68 4b 18 00 00	 push	 6219			; 0000184bH
  00076	57		 push	 edi
  00077	e8 00 00 00 00	 call	 ?DDX_Control@@YGXPAVCDataExchange@@HAAVCWnd@@@Z ; DDX_Control

; 97   : 	DDX_Control(pDX, IDC_CMB_TIME, m_cmbTime);

  0007c	8d 86 e8 0e 00
	00		 lea	 eax, DWORD PTR [esi+3816]
  00082	50		 push	 eax
  00083	68 8e 17 00 00	 push	 6030			; 0000178eH
  00088	57		 push	 edi
  00089	e8 00 00 00 00	 call	 ?DDX_Control@@YGXPAVCDataExchange@@HAAVCWnd@@@Z ; DDX_Control

; 98   : 	DDX_Control(pDX, IDC_BTN_SHOW_REPEAT, m_btnShowList);

  0008e	8d 86 68 0f 00
	00		 lea	 eax, DWORD PTR [esi+3944]
  00094	50		 push	 eax
  00095	68 51 18 00 00	 push	 6225			; 00001851H
  0009a	57		 push	 edi
  0009b	e8 00 00 00 00	 call	 ?DDX_Control@@YGXPAVCDataExchange@@HAAVCWnd@@@Z ; DDX_Control

; 99   : 	DDX_Control(pDX, IDC_BTN_DELITEM, m_btnDelItem);

  000a0	8d 86 c8 10 00
	00		 lea	 eax, DWORD PTR [esi+4296]
  000a6	50		 push	 eax
  000a7	68 4a 18 00 00	 push	 6218			; 0000184aH
  000ac	57		 push	 edi
  000ad	e8 00 00 00 00	 call	 ?DDX_Control@@YGXPAVCDataExchange@@HAAVCWnd@@@Z ; DDX_Control

; 100  : 	DDX_Control(pDX, IDC_BTN_ADDITEM, m_btnAddItem);

  000b2	8d 86 28 12 00
	00		 lea	 eax, DWORD PTR [esi+4648]
  000b8	50		 push	 eax
  000b9	68 52 18 00 00	 push	 6226			; 00001852H
  000be	57		 push	 edi
  000bf	e8 00 00 00 00	 call	 ?DDX_Control@@YGXPAVCDataExchange@@HAAVCWnd@@@Z ; DDX_Control

; 101  : 	DDX_Control(pDX, IDC_BTSEARCH, m_btnSearch);

  000c4	8d 86 88 13 00
	00		 lea	 eax, DWORD PTR [esi+5000]
  000ca	50		 push	 eax
  000cb	68 76 17 00 00	 push	 6006			; 00001776H
  000d0	57		 push	 edi
  000d1	e8 00 00 00 00	 call	 ?DDX_Control@@YGXPAVCDataExchange@@HAAVCWnd@@@Z ; DDX_Control

; 102  : 	DDX_Control(pDX, IDC_BTAPPLY, m_btnApply);

  000d6	8d 86 e8 14 00
	00		 lea	 eax, DWORD PTR [esi+5352]
  000dc	50		 push	 eax
  000dd	68 78 17 00 00	 push	 6008			; 00001778H
  000e2	57		 push	 edi
  000e3	e8 00 00 00 00	 call	 ?DDX_Control@@YGXPAVCDataExchange@@HAAVCWnd@@@Z ; DDX_Control

; 103  : 	DDX_Control(pDX, IDC_TREEITEMS, m_treeItems);

  000e8	8d 86 48 16 00
	00		 lea	 eax, DWORD PTR [esi+5704]
  000ee	50		 push	 eax
  000ef	68 86 17 00 00	 push	 6022			; 00001786H
  000f4	57		 push	 edi
  000f5	e8 00 00 00 00	 call	 ?DDX_Control@@YGXPAVCDataExchange@@HAAVCWnd@@@Z ; DDX_Control

; 104  : 	DDX_Control(pDX, IDC_LISTITEMS, m_listItems);	

  000fa	8d 86 d8 01 00
	00		 lea	 eax, DWORD PTR [esi+472]
  00100	50		 push	 eax
  00101	68 7c 17 00 00	 push	 6012			; 0000177cH
  00106	57		 push	 edi
  00107	e8 00 00 00 00	 call	 ?DDX_Control@@YGXPAVCDataExchange@@HAAVCWnd@@@Z ; DDX_Control

; 105  : 	DDX_Control(pDX, IDC_EDIT_FIND, m_editFind);

  0010c	8d 86 08 06 00
	00		 lea	 eax, DWORD PTR [esi+1544]
  00112	50		 push	 eax
  00113	68 8c 17 00 00	 push	 6028			; 0000178cH
  00118	57		 push	 edi
  00119	e8 00 00 00 00	 call	 ?DDX_Control@@YGXPAVCDataExchange@@HAAVCWnd@@@Z ; DDX_Control

; 106  : 	DDX_Control(pDX, IDC_BTN_FIND, m_btnFind);

  0011e	8d 86 88 06 00
	00		 lea	 eax, DWORD PTR [esi+1672]
  00124	50		 push	 eax
  00125	68 b6 17 00 00	 push	 6070			; 000017b6H
  0012a	57		 push	 edi
  0012b	e8 00 00 00 00	 call	 ?DDX_Control@@YGXPAVCDataExchange@@HAAVCWnd@@@Z ; DDX_Control

; 107  : 	DDX_Control(pDX, IDC_BTN_EXTEND, m_btnExtend);

  00130	8d 86 e8 07 00
	00		 lea	 eax, DWORD PTR [esi+2024]
  00136	50		 push	 eax
  00137	68 7a 18 00 00	 push	 6266			; 0000187aH
  0013c	57		 push	 edi
  0013d	e8 00 00 00 00	 call	 ?DDX_Control@@YGXPAVCDataExchange@@HAAVCWnd@@@Z ; DDX_Control

; 108  : 	DDX_Control(pDX, IDC_LIST_FIND, m_listFind);

  00142	8d 86 48 09 00
	00		 lea	 eax, DWORD PTR [esi+2376]
  00148	50		 push	 eax
  00149	68 7c 18 00 00	 push	 6268			; 0000187cH
  0014e	57		 push	 edi
  0014f	e8 00 00 00 00	 call	 ?DDX_Control@@YGXPAVCDataExchange@@HAAVCWnd@@@Z ; DDX_Control
  00154	5f		 pop	 edi
  00155	5e		 pop	 esi

; 109  : 	//}}AFX_DATA_MAP
; 110  : 	//DDX_Control(pDX, IDC_LISTINDICES, m_listIndices);
; 111  : }

  00156	5d		 pop	 ebp
  00157	c2 04 00	 ret	 4
?DoDataExchange@CTabIndices@@MAEXPAVCDataExchange@@@Z ENDP ; CTabIndices::DoDataExchange
_TEXT	ENDS
; Function compile flags: /Ogtp
; File D:\git\src\IBK\IBK_DRFN\ProjSrc\SrcDrfn\Chart\MULTICHART\TabIndices.cpp
; File C:\Program Files (x86)\Microsoft Visual Studio\2019\Community\VC\Tools\MSVC\14.29.30133\atlmfc\include\afxwin2.inl
; File D:\git\src\IBK\IBK_DRFN\ProjSrc\SrcDrfn\Chart\MULTICHART\TabIndices.cpp
; File C:\Program Files (x86)\Microsoft Visual Studio\2019\Community\VC\Tools\MSVC\14.29.30133\atlmfc\include\afxwin2.inl
; File D:\git\src\IBK\IBK_DRFN\ProjSrc\SrcDrfn\Chart\MULTICHART\TabIndices.cpp
; File C:\Program Files (x86)\Microsoft Visual Studio\2019\Community\VC\Tools\MSVC\14.29.30133\atlmfc\include\afxwin1.inl
; File D:\git\src\IBK\IBK_DRFN\ProjSrc\SrcDrfn\Chart\MULTICHART\TabIndices.cpp
; File C:\Program Files (x86)\Microsoft Visual Studio\2019\Community\VC\Tools\MSVC\14.29.30133\atlmfc\include\afxwin2.inl
; File D:\git\src\IBK\IBK_DRFN\ProjSrc\SrcDrfn\Chart\MULTICHART\TabIndices.cpp
; File C:\Program Files (x86)\Microsoft Visual Studio\2019\Community\VC\Tools\MSVC\14.29.30133\atlmfc\include\afxwin2.inl
; File D:\git\src\IBK\IBK_DRFN\ProjSrc\SrcDrfn\Chart\MULTICHART\TabIndices.cpp
; File C:\Program Files (x86)\Microsoft Visual Studio\2019\Community\VC\Tools\MSVC\14.29.30133\atlmfc\include\afxwin2.inl
; File D:\git\src\IBK\IBK_DRFN\ProjSrc\SrcDrfn\Chart\MULTICHART\TabIndices.cpp
; File C:\Program Files (x86)\Microsoft Visual Studio\2019\Community\VC\Tools\MSVC\14.29.30133\atlmfc\include\afxwin2.inl
; File D:\git\src\IBK\IBK_DRFN\ProjSrc\SrcDrfn\Chart\MULTICHART\TabIndices.cpp
;	COMDAT ?ChangeSkinColor@CTabIndices@@UAEXK@Z
_TEXT	SEGMENT
_OLColor$ = -16						; size = 12
__$ArrayPad$ = -4					; size = 4
_clrBkgrnd$ = 8						; size = 4
?ChangeSkinColor@CTabIndices@@UAEXK@Z PROC		; CTabIndices::ChangeSkinColor, COMDAT
; _this$ = ecx

; 2340 : {

  00000	55		 push	 ebp
  00001	8b ec		 mov	 ebp, esp
  00003	83 ec 10	 sub	 esp, 16			; 00000010H
  00006	a1 00 00 00 00	 mov	 eax, DWORD PTR ___security_cookie
  0000b	33 c5		 xor	 eax, ebp
  0000d	89 45 fc	 mov	 DWORD PTR __$ArrayPad$[ebp], eax
  00010	53		 push	 ebx
  00011	56		 push	 esi
  00012	8b d9		 mov	 ebx, ecx
; File C:\Program Files (x86)\Microsoft Visual Studio\2019\Community\VC\Tools\MSVC\14.29.30133\atlmfc\include\afxwin2.inl

; 32   : 	{ ASSERT(::IsWindow(m_hWnd)); return ::SendMessage(m_hWnd, message, wParam, lParam); }

  00014	6a 00		 push	 0
  00016	6a 00		 push	 0
  00018	ff 35 00 00 00
	00		 push	 DWORD PTR ?RMSG_GET_SKINCOLOR@@3IB
; File D:\git\src\IBK\IBK_DRFN\ProjSrc\SrcDrfn\Chart\MULTICHART\TabIndices.cpp

; 2341 : 	m_crBk = (COLORREF)m_pMultiChartWnd->SendMessage(RMSG_GET_SKINCOLOR, (WPARAM)0);

  0001e	8b 83 c0 00 00
	00		 mov	 eax, DWORD PTR [ebx+192]
; File C:\Program Files (x86)\Microsoft Visual Studio\2019\Community\VC\Tools\MSVC\14.29.30133\atlmfc\include\afxwin2.inl

; 32   : 	{ ASSERT(::IsWindow(m_hWnd)); return ::SendMessage(m_hWnd, message, wParam, lParam); }

  00024	ff 70 20	 push	 DWORD PTR [eax+32]
  00027	ff 15 00 00 00
	00		 call	 DWORD PTR __imp__SendMessageA@16
; File D:\git\src\IBK\IBK_DRFN\ProjSrc\SrcDrfn\Chart\MULTICHART\TabIndices.cpp

; 2342 : 	m_brBkColor.DeleteObject();

  0002d	8d 8b c8 00 00
	00		 lea	 ecx, DWORD PTR [ebx+200]
  00033	89 83 d0 00 00
	00		 mov	 DWORD PTR [ebx+208], eax
  00039	e8 00 00 00 00	 call	 ?DeleteObject@CGdiObject@@QAEHXZ ; CGdiObject::DeleteObject
; File C:\Program Files (x86)\Microsoft Visual Studio\2019\Community\VC\Tools\MSVC\14.29.30133\atlmfc\include\afxwin1.inl

; 132  : 	{ return Attach(::CreateSolidBrush(crColor)); }

  0003e	ff b3 d0 00 00
	00		 push	 DWORD PTR [ebx+208]
  00044	ff 15 00 00 00
	00		 call	 DWORD PTR __imp__CreateSolidBrush@4
  0004a	50		 push	 eax
  0004b	8d 8b c8 00 00
	00		 lea	 ecx, DWORD PTR [ebx+200]
  00051	e8 00 00 00 00	 call	 ?Attach@CGdiObject@@QAEHPAX@Z ; CGdiObject::Attach
; File D:\git\src\IBK\IBK_DRFN\ProjSrc\SrcDrfn\Chart\MULTICHART\TabIndices.cpp

; 2346 : 	if(m_pMultiChartWnd->SendMessage(RMSG_GET_SKINCOLOR, (WPARAM)2, (LPARAM)&OLColor))

  00056	8b 83 c0 00 00
	00		 mov	 eax, DWORD PTR [ebx+192]
; File C:\Program Files (x86)\Microsoft Visual Studio\2019\Community\VC\Tools\MSVC\14.29.30133\atlmfc\include\afxwin2.inl

; 32   : 	{ ASSERT(::IsWindow(m_hWnd)); return ::SendMessage(m_hWnd, message, wParam, lParam); }

  0005c	8d 4d f0	 lea	 ecx, DWORD PTR _OLColor$[ebp]
  0005f	51		 push	 ecx
  00060	6a 02		 push	 2
  00062	ff 35 00 00 00
	00		 push	 DWORD PTR ?RMSG_GET_SKINCOLOR@@3IB
  00068	ff 70 20	 push	 DWORD PTR [eax+32]
  0006b	ff 15 00 00 00
	00		 call	 DWORD PTR __imp__SendMessageA@16
; File D:\git\src\IBK\IBK_DRFN\ProjSrc\SrcDrfn\Chart\MULTICHART\TabIndices.cpp

; 2346 : 	if(m_pMultiChartWnd->SendMessage(RMSG_GET_SKINCOLOR, (WPARAM)2, (LPARAM)&OLColor))

  00071	85 c0		 test	 eax, eax
  00073	74 18		 je	 SHORT $LN2@ChangeSkin

; 2347 : 	{
; 2348 : 		m_ctrlOutBar.cr3dFace = OLColor.clrOLOutLine;

  00075	8b 45 f4	 mov	 eax, DWORD PTR _OLColor$[ebp+4]
  00078	89 83 80 04 00
	00		 mov	 DWORD PTR [ebx+1152], eax

; 2349 : 		m_ctrlOutBar.cr3dUnFace = OLColor.clrOLOutLine;

  0007e	89 83 84 04 00
	00		 mov	 DWORD PTR [ebx+1156], eax

; 2350 : 		m_ctrlOutBar.crBackGroundColor1 =  OLColor.clrOLBkgrnd;

  00084	8b 45 f0	 mov	 eax, DWORD PTR _OLColor$[ebp]
  00087	89 83 74 04 00
	00		 mov	 DWORD PTR [ebx+1140], eax
$LN2@ChangeSkin:

; 2351 : 	}
; 2352 : 
; 2353 : 	m_stTitle.SetStaticColor(m_crBk, m_crBk, CLR_FONT_DEFAULT);

  0008d	8b 83 d0 00 00
	00		 mov	 eax, DWORD PTR [ebx+208]
  00093	8d 8b 80 05 00
	00		 lea	 ecx, DWORD PTR [ebx+1408]
  00099	68 00 00 01 00	 push	 65536			; 00010000H
  0009e	50		 push	 eax
  0009f	50		 push	 eax
  000a0	e8 00 00 00 00	 call	 ?SetStaticColor@CExStatic@@QAEHKKK@Z ; CExStatic::SetStaticColor
; File C:\Program Files (x86)\Microsoft Visual Studio\2019\Community\VC\Tools\MSVC\14.29.30133\atlmfc\include\afxwin2.inl

; 114  : 	{ ASSERT(::IsWindow(m_hWnd)); ::InvalidateRect(m_hWnd, NULL, bErase); }

  000a5	6a 01		 push	 1
  000a7	6a 00		 push	 0
  000a9	ff 73 20	 push	 DWORD PTR [ebx+32]
  000ac	ff 15 00 00 00
	00		 call	 DWORD PTR __imp__InvalidateRect@12
; File D:\git\src\IBK\IBK_DRFN\ProjSrc\SrcDrfn\Chart\MULTICHART\TabIndices.cpp

; 2355 : }

  000b2	8b 4d fc	 mov	 ecx, DWORD PTR __$ArrayPad$[ebp]
; File C:\Program Files (x86)\Microsoft Visual Studio\2019\Community\VC\Tools\MSVC\14.29.30133\atlmfc\include\afxwin2.inl

; 114  : 	{ ASSERT(::IsWindow(m_hWnd)); ::InvalidateRect(m_hWnd, NULL, bErase); }

  000b5	5e		 pop	 esi
; File D:\git\src\IBK\IBK_DRFN\ProjSrc\SrcDrfn\Chart\MULTICHART\TabIndices.cpp

; 2355 : }

  000b6	33 cd		 xor	 ecx, ebp
; File C:\Program Files (x86)\Microsoft Visual Studio\2019\Community\VC\Tools\MSVC\14.29.30133\atlmfc\include\afxwin2.inl

; 114  : 	{ ASSERT(::IsWindow(m_hWnd)); ::InvalidateRect(m_hWnd, NULL, bErase); }

  000b8	5b		 pop	 ebx
; File D:\git\src\IBK\IBK_DRFN\ProjSrc\SrcDrfn\Chart\MULTICHART\TabIndices.cpp

; 2355 : }

  000b9	e8 00 00 00 00	 call	 @__security_check_cookie@4
  000be	8b e5		 mov	 esp, ebp
  000c0	5d		 pop	 ebp
  000c1	c2 04 00	 ret	 4
?ChangeSkinColor@CTabIndices@@UAEXK@Z ENDP		; CTabIndices::ChangeSkinColor
_TEXT	ENDS
; Function compile flags: /Ogtp
; File D:\git\src\IBK\IBK_DRFN\ProjSrc\SrcDrfn\Chart\MULTICHART\TabIndices.cpp
; File C:\Program Files (x86)\Microsoft Visual Studio\2019\Community\VC\Tools\MSVC\14.29.30133\atlmfc\include\afxtempl.h
; File D:\git\src\IBK\IBK_DRFN\ProjSrc\SrcDrfn\Chart\MULTICHART\TabIndices.cpp
; File C:\Program Files (x86)\Microsoft Visual Studio\2019\Community\VC\Tools\MSVC\14.29.30133\atlmfc\include\afxcmn.inl
; File D:\git\src\IBK\IBK_DRFN\ProjSrc\SrcDrfn\Chart\MULTICHART\TabIndices.cpp
; File C:\Program Files (x86)\Microsoft Visual Studio\2019\Community\VC\Tools\MSVC\14.29.30133\atlmfc\include\afxcmn.inl
; File C:\Program Files (x86)\Microsoft Visual Studio\2019\Community\VC\Tools\MSVC\14.29.30133\atlmfc\include\afxcoll.inl
; File D:\git\src\IBK\IBK_DRFN\ProjSrc\SrcDrfn\Chart\MULTICHART\TabIndices.cpp
; File C:\Program Files (x86)\Microsoft Visual Studio\2019\Community\VC\Tools\MSVC\14.29.30133\atlmfc\include\afxcoll.inl
; File C:\Program Files (x86)\Microsoft Visual Studio\2019\Community\VC\Tools\MSVC\14.29.30133\atlmfc\include\afxcmn.inl
; File D:\git\src\IBK\IBK_DRFN\ProjSrc\SrcDrfn\Chart\MULTICHART\TabIndices.cpp
;	COMDAT ?GetFindItemList@CTabIndices@@QAEXHV?$CStringT@DV?$StrTraitMFC_DLL@DV?$ChTraitsCRT@D@ATL@@@@@ATL@@AAVCStringArray@@@Z
_TEXT	SEGMENT
_pos$1$ = -48						; size = 4
$T2 = -44						; size = 4
$T3 = -40						; size = 4
$T4 = -36						; size = 4
_this$1$ = -32						; size = 4
_iIndex$1$ = -28					; size = 4
_strIndicator$ = -24					; size = 4
_strTemp$ = -20						; size = 4
_str$ = -16						; size = 4
__$EHRec$ = -12						; size = 12
_nFindType$ = 8						; size = 4
_strFindData$ = 12					; size = 4
_strResult$ = 16					; size = 4
?GetFindItemList@CTabIndices@@QAEXHV?$CStringT@DV?$StrTraitMFC_DLL@DV?$ChTraitsCRT@D@ATL@@@@@ATL@@AAVCStringArray@@@Z PROC ; CTabIndices::GetFindItemList, COMDAT
; _this$ = ecx

; 2185 : {

  00000	55		 push	 ebp
  00001	8b ec		 mov	 ebp, esp
  00003	6a ff		 push	 -1
  00005	68 00 00 00 00	 push	 __ehhandler$?GetFindItemList@CTabIndices@@QAEXHV?$CStringT@DV?$StrTraitMFC_DLL@DV?$ChTraitsCRT@D@ATL@@@@@ATL@@AAVCStringArray@@@Z
  0000a	64 a1 00 00 00
	00		 mov	 eax, DWORD PTR fs:0
  00010	50		 push	 eax
  00011	83 ec 24	 sub	 esp, 36			; 00000024H
  00014	53		 push	 ebx
  00015	56		 push	 esi
  00016	57		 push	 edi
  00017	a1 00 00 00 00	 mov	 eax, DWORD PTR ___security_cookie
  0001c	33 c5		 xor	 eax, ebp
  0001e	50		 push	 eax
  0001f	8d 45 f4	 lea	 eax, DWORD PTR __$EHRec$[ebp]
  00022	64 a3 00 00 00
	00		 mov	 DWORD PTR fs:0, eax
  00028	8b f9		 mov	 edi, ecx
  0002a	89 7d e0	 mov	 DWORD PTR _this$1$[ebp], edi

; 2186 : 
; 2187 : 	CString strIndicator, strTemp;

  0002d	8d 4d e8	 lea	 ecx, DWORD PTR _strIndicator$[ebp]
  00030	c7 45 fc 00 00
	00 00		 mov	 DWORD PTR __$EHRec$[ebp+8], 0
  00037	ff 15 00 00 00
	00		 call	 DWORD PTR __imp_??0?$CStringT@DV?$StrTraitMFC_DLL@DV?$ChTraitsCRT@D@ATL@@@@@ATL@@QAE@XZ
  0003d	8d 4d ec	 lea	 ecx, DWORD PTR _strTemp$[ebp]
  00040	ff 15 00 00 00
	00		 call	 DWORD PTR __imp_??0?$CStringT@DV?$StrTraitMFC_DLL@DV?$ChTraitsCRT@D@ATL@@@@@ATL@@QAE@XZ

; 2188 : 	strFindData.MakeUpper();

  00046	8d 4d 0c	 lea	 ecx, DWORD PTR _strFindData$[ebp]
  00049	c6 45 fc 02	 mov	 BYTE PTR __$EHRec$[ebp+8], 2
  0004d	ff 15 00 00 00
	00		 call	 DWORD PTR __imp_?MakeUpper@?$CStringT@DV?$StrTraitMFC_DLL@DV?$ChTraitsCRT@D@ATL@@@@@ATL@@QAEAAV12@XZ

; 2189 : 
; 2190 : 	int iIndex = 0;

  00053	33 db		 xor	 ebx, ebx

; 2191 : 
; 2192 : //>> [QC No]090728HMC039
; 2193 : 	int nPos = -1;
; 2194 : 	CString str;

  00055	8d 4d f0	 lea	 ecx, DWORD PTR _str$[ebp]
  00058	89 5d e4	 mov	 DWORD PTR _iIndex$1$[ebp], ebx
  0005b	ff 15 00 00 00
	00		 call	 DWORD PTR __imp_??0?$CStringT@DV?$StrTraitMFC_DLL@DV?$ChTraitsCRT@D@ATL@@@@@ATL@@QAE@XZ

; 2195 : //<< [QC No]090728HMC039
; 2196 : 	for (POSITION pos=m_ListTree.GetHeadPosition(); pos != m_ListTree.GetTailPosition(); ) 

  00061	8b 8f 64 05 00
	00		 mov	 ecx, DWORD PTR [edi+1380]
  00067	c6 45 fc 03	 mov	 BYTE PTR __$EHRec$[ebp+8], 3
  0006b	3b 8f 68 05 00
	00		 cmp	 ecx, DWORD PTR [edi+1384]
  00071	0f 84 4d 01 00
	00		 je	 $LN51@GetFindIte
$LL2@GetFindIte:

; 2197 : 	{
; 2198 : 		CTreeCtrl* pTreeCtrl = m_ListTree.GetNext(pos);

  00077	8b 79 08	 mov	 edi, DWORD PTR [ecx+8]
; File C:\Program Files (x86)\Microsoft Visual Studio\2019\Community\VC\Tools\MSVC\14.29.30133\atlmfc\include\afxtempl.h

; 813  : 		rPosition = (POSITION) pNode->pNext;

  0007a	8b 09		 mov	 ecx, DWORD PTR [ecx]
  0007c	89 4d d0	 mov	 DWORD PTR _pos$1$[ebp], ecx
; File D:\git\src\IBK\IBK_DRFN\ProjSrc\SrcDrfn\Chart\MULTICHART\TabIndices.cpp

; 2203 : 		if (pTreeCtrl->ItemHasChildren(hmyItem))

  0007f	8b cf		 mov	 ecx, edi
  00081	6a 00		 push	 0
  00083	e8 00 00 00 00	 call	 ?ItemHasChildren@CTreeCtrl@@QBEHPAU_TREEITEM@@@Z ; CTreeCtrl::ItemHasChildren
  00088	85 c0		 test	 eax, eax
  0008a	0f 84 c4 01 00
	00		 je	 $LN6@GetFindIte
; File C:\Program Files (x86)\Microsoft Visual Studio\2019\Community\VC\Tools\MSVC\14.29.30133\atlmfc\include\afxcmn.inl

; 300  : 	{ ASSERT(::IsWindow(m_hWnd)); return (HTREEITEM)::SendMessage(m_hWnd, TVM_GETNEXTITEM, TVGN_CHILD, (LPARAM)hItem); }

  00090	6a 00		 push	 0
  00092	6a 04		 push	 4
  00094	68 0a 11 00 00	 push	 4362			; 0000110aH
  00099	ff 77 20	 push	 DWORD PTR [edi+32]
  0009c	ff 15 00 00 00
	00		 call	 DWORD PTR __imp__SendMessageA@16
; File D:\git\src\IBK\IBK_DRFN\ProjSrc\SrcDrfn\Chart\MULTICHART\TabIndices.cpp

; 2205 : 			HTREEITEM hItem = pTreeCtrl->GetChildItem(hmyItem);

  000a2	8b f0		 mov	 esi, eax

; 2206 : 
; 2207 : 			while (hItem != NULL)

  000a4	85 f6		 test	 esi, esi
  000a6	0f 84 a8 01 00
	00		 je	 $LN6@GetFindIte
  000ac	0f 1f 40 00	 npad	 4
$LL5@GetFindIte:

; 2208 : 			{
; 2209 : 				strIndicator = pTreeCtrl->GetItemText(hItem);

  000b0	56		 push	 esi
  000b1	8d 45 dc	 lea	 eax, DWORD PTR $T4[ebp]
  000b4	8b cf		 mov	 ecx, edi
  000b6	50		 push	 eax
  000b7	e8 00 00 00 00	 call	 ?GetItemText@CTreeCtrl@@QBE?AV?$CStringT@DV?$StrTraitMFC_DLL@DV?$ChTraitsCRT@D@ATL@@@@@ATL@@PAU_TREEITEM@@@Z ; CTreeCtrl::GetItemText
  000bc	50		 push	 eax
  000bd	8d 4d e8	 lea	 ecx, DWORD PTR _strIndicator$[ebp]
  000c0	c6 45 fc 04	 mov	 BYTE PTR __$EHRec$[ebp+8], 4
  000c4	ff 15 00 00 00
	00		 call	 DWORD PTR __imp_??4?$CStringT@DV?$StrTraitMFC_DLL@DV?$ChTraitsCRT@D@ATL@@@@@ATL@@QAEAAV01@ABV01@@Z
  000ca	8d 4d dc	 lea	 ecx, DWORD PTR $T4[ebp]
  000cd	c6 45 fc 03	 mov	 BYTE PTR __$EHRec$[ebp+8], 3
  000d1	ff 15 00 00 00
	00		 call	 DWORD PTR __imp_??1?$CStringT@DV?$StrTraitMFC_DLL@DV?$ChTraitsCRT@D@ATL@@@@@ATL@@QAE@XZ

; 2210 : 				strTemp = strIndicator;

  000d7	8d 45 e8	 lea	 eax, DWORD PTR _strIndicator$[ebp]
  000da	50		 push	 eax
  000db	8d 4d ec	 lea	 ecx, DWORD PTR _strTemp$[ebp]
  000de	ff 15 00 00 00
	00		 call	 DWORD PTR __imp_??4?$CStringT@DV?$StrTraitMFC_DLL@DV?$ChTraitsCRT@D@ATL@@@@@ATL@@QAEAAV01@ABV01@@Z

; 2211 : 				strTemp.MakeUpper();

  000e4	8d 4d ec	 lea	 ecx, DWORD PTR _strTemp$[ebp]
  000e7	ff 15 00 00 00
	00		 call	 DWORD PTR __imp_?MakeUpper@?$CStringT@DV?$StrTraitMFC_DLL@DV?$ChTraitsCRT@D@ATL@@@@@ATL@@QAEAAV12@XZ

; 2212 : 				switch(nFindType) 

  000ed	8b 45 08	 mov	 eax, DWORD PTR _nFindType$[ebp]
  000f0	83 e8 01	 sub	 eax, 1
  000f3	0f 84 03 01 00
	00		 je	 $LN13@GetFindIte
  000f9	83 e8 01	 sub	 eax, 1
  000fc	0f 85 34 01 00
	00		 jne	 $LN14@GetFindIte

; 2213 : 				{
; 2214 : //>> [QC No]090728HMC039
; 2215 : 				case TFI_JIPYOITEM_ID:			//   Select
; 2216 : 					nPos = strFindData.Find(":");

  00102	50		 push	 eax
  00103	68 00 00 00 00	 push	 OFFSET ??_C@_01JLIPDDHJ@?3@
  00108	8d 4d 0c	 lea	 ecx, DWORD PTR _strFindData$[ebp]
  0010b	ff 15 00 00 00
	00		 call	 DWORD PTR __imp_?Find@?$CStringT@DV?$StrTraitMFC_DLL@DV?$ChTraitsCRT@D@ATL@@@@@ATL@@QBEHPBDH@Z
  00111	8b d8		 mov	 ebx, eax

; 2217 : 					str = strFindData.Mid(nPos + 1);

  00113	8d 45 d8	 lea	 eax, DWORD PTR $T3[ebp]
  00116	8d 4b 01	 lea	 ecx, DWORD PTR [ebx+1]
  00119	51		 push	 ecx
  0011a	50		 push	 eax
  0011b	8d 4d 0c	 lea	 ecx, DWORD PTR _strFindData$[ebp]
  0011e	ff 15 00 00 00
	00		 call	 DWORD PTR __imp_?Mid@?$CStringT@DV?$StrTraitMFC_DLL@DV?$ChTraitsCRT@D@ATL@@@@@ATL@@QBE?AV12@H@Z
  00124	50		 push	 eax
  00125	8d 4d f0	 lea	 ecx, DWORD PTR _str$[ebp]
  00128	c6 45 fc 05	 mov	 BYTE PTR __$EHRec$[ebp+8], 5
  0012c	ff 15 00 00 00
	00		 call	 DWORD PTR __imp_??4?$CStringT@DV?$StrTraitMFC_DLL@DV?$ChTraitsCRT@D@ATL@@@@@ATL@@QAEAAV01@ABV01@@Z
  00132	8d 4d d8	 lea	 ecx, DWORD PTR $T3[ebp]
  00135	c6 45 fc 03	 mov	 BYTE PTR __$EHRec$[ebp+8], 3
  00139	ff 15 00 00 00
	00		 call	 DWORD PTR __imp_??1?$CStringT@DV?$StrTraitMFC_DLL@DV?$ChTraitsCRT@D@ATL@@@@@ATL@@QAE@XZ

; 2218 : 					if(strTemp.Find(str) != -1)

  0013f	6a 00		 push	 0
  00141	ff 75 f0	 push	 DWORD PTR _str$[ebp]
  00144	8d 4d ec	 lea	 ecx, DWORD PTR _strTemp$[ebp]
  00147	ff 15 00 00 00
	00		 call	 DWORD PTR __imp_?Find@?$CStringT@DV?$StrTraitMFC_DLL@DV?$ChTraitsCRT@D@ATL@@@@@ATL@@QBEHPBDH@Z
  0014d	83 f8 ff	 cmp	 eax, -1
  00150	0f 84 e0 00 00
	00		 je	 $LN14@GetFindIte

; 2219 : 					{
; 2220 : 						str = strFindData.Left(nPos);

  00156	53		 push	 ebx
  00157	8d 45 d4	 lea	 eax, DWORD PTR $T2[ebp]
  0015a	50		 push	 eax
  0015b	8d 4d 0c	 lea	 ecx, DWORD PTR _strFindData$[ebp]
  0015e	ff 15 00 00 00
	00		 call	 DWORD PTR __imp_?Left@?$CStringT@DV?$StrTraitMFC_DLL@DV?$ChTraitsCRT@D@ATL@@@@@ATL@@QBE?AV12@H@Z
  00164	50		 push	 eax
  00165	8d 4d f0	 lea	 ecx, DWORD PTR _str$[ebp]
  00168	c6 45 fc 06	 mov	 BYTE PTR __$EHRec$[ebp+8], 6
  0016c	ff 15 00 00 00
	00		 call	 DWORD PTR __imp_??4?$CStringT@DV?$StrTraitMFC_DLL@DV?$ChTraitsCRT@D@ATL@@@@@ATL@@QAEAAV01@ABV01@@Z
  00172	8d 4d d4	 lea	 ecx, DWORD PTR $T2[ebp]
  00175	c6 45 fc 03	 mov	 BYTE PTR __$EHRec$[ebp+8], 3
  00179	ff 15 00 00 00
	00		 call	 DWORD PTR __imp_??1?$CStringT@DV?$StrTraitMFC_DLL@DV?$ChTraitsCRT@D@ATL@@@@@ATL@@QAE@XZ

; 2221 : 						if(hItem == (HTREEITEM)atol(str))

  0017f	ff 75 f0	 push	 DWORD PTR _str$[ebp]
  00182	ff 15 00 00 00
	00		 call	 DWORD PTR __imp__atol
  00188	83 c4 04	 add	 esp, 4
  0018b	3b f0		 cmp	 esi, eax
  0018d	0f 85 a3 00 00
	00		 jne	 $LN14@GetFindIte

; 2222 : 						{
; 2223 : 							m_ctrlOutBar.SetSelFolder(iIndex);

  00193	8b 4d e0	 mov	 ecx, DWORD PTR _this$1$[ebp]
  00196	ff 75 e4	 push	 DWORD PTR _iIndex$1$[ebp]
  00199	8d 89 f0 03 00
	00		 lea	 ecx, DWORD PTR [ecx+1008]
  0019f	e8 00 00 00 00	 call	 ?SetSelFolder@CGfxOutBarCtrl@@QAEXH@Z ; CGfxOutBarCtrl::SetSelFolder
; File C:\Program Files (x86)\Microsoft Visual Studio\2019\Community\VC\Tools\MSVC\14.29.30133\atlmfc\include\afxcmn.inl

; 326  : 	{ ASSERT(::IsWindow(m_hWnd)); return (BOOL) ::SendMessage(m_hWnd, TVM_SELECTITEM, TVGN_CARET, (LPARAM)hItem); }

  001a4	56		 push	 esi
  001a5	6a 09		 push	 9
  001a7	68 0b 11 00 00	 push	 4363			; 0000110bH
  001ac	ff 77 20	 push	 DWORD PTR [edi+32]
  001af	ff 15 00 00 00
	00		 call	 DWORD PTR __imp__SendMessageA@16
; File C:\Program Files (x86)\Microsoft Visual Studio\2019\Community\VC\Tools\MSVC\14.29.30133\atlmfc\include\afxcoll.inl

; 321  : 		SetAtGrow(nIndex, newElement);

  001b5	8b 4d 10	 mov	 ecx, DWORD PTR _strResult$[ebp]
  001b8	8d 45 e8	 lea	 eax, DWORD PTR _strIndicator$[ebp]
  001bb	50		 push	 eax
  001bc	ff 71 08	 push	 DWORD PTR [ecx+8]
  001bf	e8 00 00 00 00	 call	 ?SetAtGrow@CStringArray@@QAEXHABV?$CStringT@DV?$StrTraitMFC_DLL@DV?$ChTraitsCRT@D@ATL@@@@@ATL@@@Z ; CStringArray::SetAtGrow
$LN51@GetFindIte:
; File D:\git\src\IBK\IBK_DRFN\ProjSrc\SrcDrfn\Chart\MULTICHART\TabIndices.cpp

; 2245 : }

  001c4	8d 4d f0	 lea	 ecx, DWORD PTR _str$[ebp]
  001c7	ff 15 00 00 00
	00		 call	 DWORD PTR __imp_??1?$CStringT@DV?$StrTraitMFC_DLL@DV?$ChTraitsCRT@D@ATL@@@@@ATL@@QAE@XZ
  001cd	8d 4d ec	 lea	 ecx, DWORD PTR _strTemp$[ebp]
  001d0	ff 15 00 00 00
	00		 call	 DWORD PTR __imp_??1?$CStringT@DV?$StrTraitMFC_DLL@DV?$ChTraitsCRT@D@ATL@@@@@ATL@@QAE@XZ
  001d6	8d 4d e8	 lea	 ecx, DWORD PTR _strIndicator$[ebp]
  001d9	ff 15 00 00 00
	00		 call	 DWORD PTR __imp_??1?$CStringT@DV?$StrTraitMFC_DLL@DV?$ChTraitsCRT@D@ATL@@@@@ATL@@QAE@XZ
  001df	8d 4d 0c	 lea	 ecx, DWORD PTR _strFindData$[ebp]
  001e2	ff 15 00 00 00
	00		 call	 DWORD PTR __imp_??1?$CStringT@DV?$StrTraitMFC_DLL@DV?$ChTraitsCRT@D@ATL@@@@@ATL@@QAE@XZ
  001e8	8b 4d f4	 mov	 ecx, DWORD PTR __$EHRec$[ebp]
  001eb	64 89 0d 00 00
	00 00		 mov	 DWORD PTR fs:0, ecx
  001f2	59		 pop	 ecx
  001f3	5f		 pop	 edi
  001f4	5e		 pop	 esi
  001f5	5b		 pop	 ebx
  001f6	8b e5		 mov	 esp, ebp
  001f8	5d		 pop	 ebp
  001f9	c2 0c 00	 ret	 12			; 0000000cH
$LN13@GetFindIte:

; 2224 : 							pTreeCtrl->SelectItem(hItem);
; 2225 : 							strResult.Add(strIndicator);
; 2226 : 							return;
; 2227 : 						}
; 2228 : 					}
; 2229 : 					break;
; 2230 : 				case TFI_JIPYOITEM_TITLE:		//  
; 2231 : 					if(strTemp.Find(strFindData) != -1)

  001fc	6a 00		 push	 0
  001fe	ff 75 0c	 push	 DWORD PTR _strFindData$[ebp]
  00201	8d 4d ec	 lea	 ecx, DWORD PTR _strTemp$[ebp]
  00204	ff 15 00 00 00
	00		 call	 DWORD PTR __imp_?Find@?$CStringT@DV?$StrTraitMFC_DLL@DV?$ChTraitsCRT@D@ATL@@@@@ATL@@QBEHPBDH@Z
  0020a	83 f8 ff	 cmp	 eax, -1
  0020d	74 27		 je	 SHORT $LN14@GetFindIte

; 2232 : 					{
; 2233 : 						str.Format("%d:%s", hItem, strIndicator);

  0020f	ff 75 e8	 push	 DWORD PTR _strIndicator$[ebp]
  00212	8d 45 f0	 lea	 eax, DWORD PTR _str$[ebp]
  00215	56		 push	 esi
  00216	68 00 00 00 00	 push	 OFFSET ??_C@_05NAOMKNKP@?$CFd?3?$CFs@
  0021b	50		 push	 eax
  0021c	ff 15 00 00 00
	00		 call	 DWORD PTR __imp_?Format@?$CStringT@DV?$StrTraitMFC_DLL@DV?$ChTraitsCRT@D@ATL@@@@@ATL@@QAAXPBDZZ
  00222	83 c4 10	 add	 esp, 16			; 00000010H
; File C:\Program Files (x86)\Microsoft Visual Studio\2019\Community\VC\Tools\MSVC\14.29.30133\atlmfc\include\afxcoll.inl

; 321  : 		SetAtGrow(nIndex, newElement);

  00225	8d 45 f0	 lea	 eax, DWORD PTR _str$[ebp]
  00228	50		 push	 eax
  00229	8b 45 10	 mov	 eax, DWORD PTR _strResult$[ebp]
  0022c	8b c8		 mov	 ecx, eax
  0022e	ff 70 08	 push	 DWORD PTR [eax+8]
  00231	e8 00 00 00 00	 call	 ?SetAtGrow@CStringArray@@QAEXHABV?$CStringT@DV?$StrTraitMFC_DLL@DV?$ChTraitsCRT@D@ATL@@@@@ATL@@@Z ; CStringArray::SetAtGrow
$LN14@GetFindIte:
; File C:\Program Files (x86)\Microsoft Visual Studio\2019\Community\VC\Tools\MSVC\14.29.30133\atlmfc\include\afxcmn.inl

; 302  : 	{ ASSERT(::IsWindow(m_hWnd)); return (HTREEITEM)::SendMessage(m_hWnd, TVM_GETNEXTITEM, TVGN_NEXT, (LPARAM)hItem); }

  00236	56		 push	 esi
  00237	6a 01		 push	 1
  00239	68 0a 11 00 00	 push	 4362			; 0000110aH
  0023e	ff 77 20	 push	 DWORD PTR [edi+32]
  00241	ff 15 00 00 00
	00		 call	 DWORD PTR __imp__SendMessageA@16
; File D:\git\src\IBK\IBK_DRFN\ProjSrc\SrcDrfn\Chart\MULTICHART\TabIndices.cpp

; 2240 : 				hItem = pTreeCtrl->GetNextSiblingItem(hItem);

  00247	8b f0		 mov	 esi, eax
  00249	85 f6		 test	 esi, esi
  0024b	0f 85 5f fe ff
	ff		 jne	 $LL5@GetFindIte
  00251	8b 5d e4	 mov	 ebx, DWORD PTR _iIndex$1$[ebp]
$LN6@GetFindIte:

; 2195 : //<< [QC No]090728HMC039
; 2196 : 	for (POSITION pos=m_ListTree.GetHeadPosition(); pos != m_ListTree.GetTailPosition(); ) 

  00254	8b 45 e0	 mov	 eax, DWORD PTR _this$1$[ebp]

; 2241 : 			}
; 2242 : 		}
; 2243 : 		iIndex++;

  00257	43		 inc	 ebx
  00258	8b 4d d0	 mov	 ecx, DWORD PTR _pos$1$[ebp]
  0025b	89 5d e4	 mov	 DWORD PTR _iIndex$1$[ebp], ebx
  0025e	3b 88 68 05 00
	00		 cmp	 ecx, DWORD PTR [eax+1384]
  00264	0f 85 0d fe ff
	ff		 jne	 $LL2@GetFindIte

; 2195 : //<< [QC No]090728HMC039
; 2196 : 	for (POSITION pos=m_ListTree.GetHeadPosition(); pos != m_ListTree.GetTailPosition(); ) 

  0026a	e9 55 ff ff ff	 jmp	 $LN51@GetFindIte
_TEXT	ENDS
;	COMDAT text$x
text$x	SEGMENT
__unwindfunclet$?GetFindItemList@CTabIndices@@QAEXHV?$CStringT@DV?$StrTraitMFC_DLL@DV?$ChTraitsCRT@D@ATL@@@@@ATL@@AAVCStringArray@@@Z$0:
  00000	8d 4d 0c	 lea	 ecx, DWORD PTR _strFindData$[ebp]
  00003	ff 25 00 00 00
	00		 jmp	 DWORD PTR __imp_??1?$CStringT@DV?$StrTraitMFC_DLL@DV?$ChTraitsCRT@D@ATL@@@@@ATL@@QAE@XZ
__unwindfunclet$?GetFindItemList@CTabIndices@@QAEXHV?$CStringT@DV?$StrTraitMFC_DLL@DV?$ChTraitsCRT@D@ATL@@@@@ATL@@AAVCStringArray@@@Z$1:
  00009	8d 4d e8	 lea	 ecx, DWORD PTR _strIndicator$[ebp]
  0000c	ff 25 00 00 00
	00		 jmp	 DWORD PTR __imp_??1?$CStringT@DV?$StrTraitMFC_DLL@DV?$ChTraitsCRT@D@ATL@@@@@ATL@@QAE@XZ
__unwindfunclet$?GetFindItemList@CTabIndices@@QAEXHV?$CStringT@DV?$StrTraitMFC_DLL@DV?$ChTraitsCRT@D@ATL@@@@@ATL@@AAVCStringArray@@@Z$2:
  00012	8d 4d ec	 lea	 ecx, DWORD PTR _strTemp$[ebp]
  00015	ff 25 00 00 00
	00		 jmp	 DWORD PTR __imp_??1?$CStringT@DV?$StrTraitMFC_DLL@DV?$ChTraitsCRT@D@ATL@@@@@ATL@@QAE@XZ
__unwindfunclet$?GetFindItemList@CTabIndices@@QAEXHV?$CStringT@DV?$StrTraitMFC_DLL@DV?$ChTraitsCRT@D@ATL@@@@@ATL@@AAVCStringArray@@@Z$3:
  0001b	8d 4d f0	 lea	 ecx, DWORD PTR _str$[ebp]
  0001e	ff 25 00 00 00
	00		 jmp	 DWORD PTR __imp_??1?$CStringT@DV?$StrTraitMFC_DLL@DV?$ChTraitsCRT@D@ATL@@@@@ATL@@QAE@XZ
__unwindfunclet$?GetFindItemList@CTabIndices@@QAEXHV?$CStringT@DV?$StrTraitMFC_DLL@DV?$ChTraitsCRT@D@ATL@@@@@ATL@@AAVCStringArray@@@Z$4:
  00024	8d 4d dc	 lea	 ecx, DWORD PTR $T4[ebp]
  00027	ff 25 00 00 00
	00		 jmp	 DWORD PTR __imp_??1?$CStringT@DV?$StrTraitMFC_DLL@DV?$ChTraitsCRT@D@ATL@@@@@ATL@@QAE@XZ
__unwindfunclet$?GetFindItemList@CTabIndices@@QAEXHV?$CStringT@DV?$StrTraitMFC_DLL@DV?$ChTraitsCRT@D@ATL@@@@@ATL@@AAVCStringArray@@@Z$5:
  0002d	8d 4d d8	 lea	 ecx, DWORD PTR $T3[ebp]
  00030	ff 25 00 00 00
	00		 jmp	 DWORD PTR __imp_??1?$CStringT@DV?$StrTraitMFC_DLL@DV?$ChTraitsCRT@D@ATL@@@@@ATL@@QAE@XZ
__unwindfunclet$?GetFindItemList@CTabIndices@@QAEXHV?$CStringT@DV?$StrTraitMFC_DLL@DV?$ChTraitsCRT@D@ATL@@@@@ATL@@AAVCStringArray@@@Z$6:
  00036	8d 4d d4	 lea	 ecx, DWORD PTR $T2[ebp]
  00039	ff 25 00 00 00
	00		 jmp	 DWORD PTR __imp_??1?$CStringT@DV?$StrTraitMFC_DLL@DV?$ChTraitsCRT@D@ATL@@@@@ATL@@QAE@XZ
  0003f	cc		 int	 3
  00040	cc		 int	 3
  00041	cc		 int	 3
  00042	cc		 int	 3
  00043	cc		 int	 3
__ehhandler$?GetFindItemList@CTabIndices@@QAEXHV?$CStringT@DV?$StrTraitMFC_DLL@DV?$ChTraitsCRT@D@ATL@@@@@ATL@@AAVCStringArray@@@Z:
  00044	90		 npad	 1
  00045	90		 npad	 1
  00046	8b 54 24 08	 mov	 edx, DWORD PTR [esp+8]
  0004a	8d 42 0c	 lea	 eax, DWORD PTR [edx+12]
  0004d	8b 4a cc	 mov	 ecx, DWORD PTR [edx-52]
  00050	33 c8		 xor	 ecx, eax
  00052	e8 00 00 00 00	 call	 @__security_check_cookie@4
  00057	b8 00 00 00 00	 mov	 eax, OFFSET __ehfuncinfo$?GetFindItemList@CTabIndices@@QAEXHV?$CStringT@DV?$StrTraitMFC_DLL@DV?$ChTraitsCRT@D@ATL@@@@@ATL@@AAVCStringArray@@@Z
  0005c	e9 00 00 00 00	 jmp	 ___CxxFrameHandler3
text$x	ENDS
?GetFindItemList@CTabIndices@@QAEXHV?$CStringT@DV?$StrTraitMFC_DLL@DV?$ChTraitsCRT@D@ATL@@@@@ATL@@AAVCStringArray@@@Z ENDP ; CTabIndices::GetFindItemList
; Function compile flags: /Ogtp
; File C:\Program Files (x86)\Microsoft Visual Studio\2019\Community\VC\Tools\MSVC\14.29.30133\atlmfc\include\afxtempl.h
; File C:\Program Files (x86)\Microsoft Visual Studio\2019\Community\VC\Tools\MSVC\14.29.30133\atlmfc\include\afx.inl
;	COMDAT ??_G?$CList@PAVCTrTreeCtrl@@PAV1@@@UAEPAXI@Z
_TEXT	SEGMENT
__$EHRec$ = -12						; size = 12
___flags$ = 8						; size = 4
??_G?$CList@PAVCTrTreeCtrl@@PAV1@@@UAEPAXI@Z PROC	; CList<CTrTreeCtrl *,CTrTreeCtrl *>::`scalar deleting destructor', COMDAT
; _this$ = ecx
  00000	55		 push	 ebp
  00001	8b ec		 mov	 ebp, esp
  00003	6a ff		 push	 -1
  00005	68 00 00 00 00	 push	 __ehhandler$??_G?$CList@PAVCTrTreeCtrl@@PAV1@@@UAEPAXI@Z
  0000a	64 a1 00 00 00
	00		 mov	 eax, DWORD PTR fs:0
  00010	50		 push	 eax
  00011	56		 push	 esi
  00012	a1 00 00 00 00	 mov	 eax, DWORD PTR ___security_cookie
  00017	33 c5		 xor	 eax, ebp
  00019	50		 push	 eax
  0001a	8d 45 f4	 lea	 eax, DWORD PTR __$EHRec$[ebp]
  0001d	64 a3 00 00 00
	00		 mov	 DWORD PTR fs:0, eax
  00023	8b f1		 mov	 esi, ecx
; File C:\Program Files (x86)\Microsoft Visual Studio\2019\Community\VC\Tools\MSVC\14.29.30133\atlmfc\include\afxtempl.h

; 872  : 	m_pBlocks->FreeDataChain();

  00025	8b 4e 14	 mov	 ecx, DWORD PTR [esi+20]

; 878  : {

  00028	c7 45 fc 00 00
	00 00		 mov	 DWORD PTR __$EHRec$[ebp+8], 0
  0002f	c7 06 00 00 00
	00		 mov	 DWORD PTR [esi], OFFSET ??_7?$CList@PAVCTrTreeCtrl@@PAV1@@@6B@

; 870  : 	m_nCount = 0;

  00035	c7 46 0c 00 00
	00 00		 mov	 DWORD PTR [esi+12], 0

; 871  : 	m_pNodeHead = m_pNodeTail = m_pNodeFree = NULL;

  0003c	c7 46 10 00 00
	00 00		 mov	 DWORD PTR [esi+16], 0
  00043	c7 46 08 00 00
	00 00		 mov	 DWORD PTR [esi+8], 0
  0004a	c7 46 04 00 00
	00 00		 mov	 DWORD PTR [esi+4], 0

; 872  : 	m_pBlocks->FreeDataChain();

  00051	e8 00 00 00 00	 call	 ?FreeDataChain@CPlex@@QAEXXZ ; CPlex::FreeDataChain

; 873  : 	m_pBlocks = NULL;

  00056	8b 45 08	 mov	 eax, DWORD PTR ___flags$[ebp]
  00059	c7 46 14 00 00
	00 00		 mov	 DWORD PTR [esi+20], 0
  00060	a8 01		 test	 al, 1
  00062	74 2c		 je	 SHORT $LN22@scalar
  00064	a8 04		 test	 al, 4
  00066	75 1d		 jne	 SHORT $LN3@scalar
; File C:\Program Files (x86)\Microsoft Visual Studio\2019\Community\VC\Tools\MSVC\14.29.30133\atlmfc\include\afx.inl

; 112  : 	{ ::operator delete(p); }

  00068	56		 push	 esi
  00069	e8 00 00 00 00	 call	 ??3@YAXPAX@Z		; operator delete
  0006e	83 c4 04	 add	 esp, 4
  00071	8b c6		 mov	 eax, esi
  00073	8b 4d f4	 mov	 ecx, DWORD PTR __$EHRec$[ebp]
  00076	64 89 0d 00 00
	00 00		 mov	 DWORD PTR fs:0, ecx
  0007d	59		 pop	 ecx
  0007e	5e		 pop	 esi
  0007f	8b e5		 mov	 esp, ebp
  00081	5d		 pop	 ebp
  00082	c2 04 00	 ret	 4
$LN3@scalar:
  00085	6a 1c		 push	 28			; 0000001cH
  00087	56		 push	 esi
  00088	e8 00 00 00 00	 call	 ?__global_delete@@YAXPAXI@Z ; __global_delete
  0008d	83 c4 08	 add	 esp, 8
$LN22@scalar:
  00090	8b c6		 mov	 eax, esi
  00092	8b 4d f4	 mov	 ecx, DWORD PTR __$EHRec$[ebp]
  00095	64 89 0d 00 00
	00 00		 mov	 DWORD PTR fs:0, ecx
  0009c	59		 pop	 ecx
  0009d	5e		 pop	 esi
  0009e	8b e5		 mov	 esp, ebp
  000a0	5d		 pop	 ebp
  000a1	c2 04 00	 ret	 4
  000a4	cc		 int	 3
  000a5	cc		 int	 3
  000a6	cc		 int	 3
  000a7	cc		 int	 3
  000a8	cc		 int	 3
_TEXT	ENDS
;	COMDAT text$x
text$x	SEGMENT
__ehhandler$??_G?$CList@PAVCTrTreeCtrl@@PAV1@@@UAEPAXI@Z:
  00000	90		 npad	 1
  00001	90		 npad	 1
  00002	8b 54 24 08	 mov	 edx, DWORD PTR [esp+8]
  00006	8d 42 0c	 lea	 eax, DWORD PTR [edx+12]
  00009	8b 4a f8	 mov	 ecx, DWORD PTR [edx-8]
  0000c	33 c8		 xor	 ecx, eax
  0000e	e8 00 00 00 00	 call	 @__security_check_cookie@4
  00013	b8 00 00 00 00	 mov	 eax, OFFSET __ehfuncinfo$??_G?$CList@PAVCTrTreeCtrl@@PAV1@@@UAEPAXI@Z
  00018	e9 00 00 00 00	 jmp	 ___CxxFrameHandler3
text$x	ENDS
??_G?$CList@PAVCTrTreeCtrl@@PAV1@@@UAEPAXI@Z ENDP	; CList<CTrTreeCtrl *,CTrTreeCtrl *>::`scalar deleting destructor'
; Function compile flags: /Ogtp
; File C:\Program Files (x86)\Microsoft Visual Studio\2019\Community\VC\Tools\MSVC\14.29.30133\atlmfc\include\afxtempl.h
; File C:\Program Files (x86)\Microsoft Visual Studio\2019\Community\VC\Tools\MSVC\14.29.30133\atlmfc\include\afx.inl
; File C:\Program Files (x86)\Microsoft Visual Studio\2019\Community\VC\Tools\MSVC\14.29.30133\atlmfc\include\afxtempl.h
; File C:\Program Files (x86)\Microsoft Visual Studio\2019\Community\VC\Tools\MSVC\14.29.30133\atlmfc\include\afx.inl
; File C:\Program Files (x86)\Microsoft Visual Studio\2019\Community\VC\Tools\MSVC\14.29.30133\atlmfc\include\afxtempl.h
; File C:\Program Files (x86)\Microsoft Visual Studio\2019\Community\VC\Tools\MSVC\14.29.30133\atlmfc\include\afx.inl
; File C:\Program Files (x86)\Microsoft Visual Studio\2019\Community\VC\Tools\MSVC\14.29.30133\atlmfc\include\afxtempl.h
; File C:\Program Files (x86)\Microsoft Visual Studio\2019\Community\VC\Tools\MSVC\14.29.30133\atlmfc\include\afx.inl
; File C:\Program Files (x86)\Microsoft Visual Studio\2019\Community\VC\Tools\MSVC\14.29.30133\atlmfc\include\afxtempl.h
; File C:\Program Files (x86)\Microsoft Visual Studio\2019\Community\VC\Tools\MSVC\14.29.30133\atlmfc\include\afx.inl
; File C:\Program Files (x86)\Microsoft Visual Studio\2019\Community\VC\Tools\MSVC\14.29.30133\atlmfc\include\afxtempl.h
; File C:\Program Files (x86)\Microsoft Visual Studio\2019\Community\VC\Tools\MSVC\14.29.30133\atlmfc\include\afx.inl
; File C:\Program Files (x86)\Microsoft Visual Studio\2019\Community\VC\Tools\MSVC\14.29.30133\atlmfc\include\afxtempl.h
;	COMDAT ?Serialize@?$CList@PAVCTrTreeCtrl@@PAV1@@@UAEXAAVCArchive@@@Z
_TEXT	SEGMENT
_nNewCount$1$ = -16					; size = 4
_newData$1 = -12					; size = 4
_pData$1$ = -8						; size = 4
_pNode$1$ = -8						; size = 4
_nElementsLeft$1$ = -4					; size = 4
_this$1$ = -4						; size = 4
_ar$ = 8						; size = 4
?Serialize@?$CList@PAVCTrTreeCtrl@@PAV1@@@UAEXAAVCArchive@@@Z PROC ; CList<CTrTreeCtrl *,CTrTreeCtrl *>::Serialize, COMDAT
; _this$ = ecx

; 1169 : {

  00000	55		 push	 ebp
  00001	8b ec		 mov	 ebp, esp
  00003	83 ec 10	 sub	 esp, 16			; 00000010H
  00006	53		 push	 ebx
  00007	8b d9		 mov	 ebx, ecx
; File C:\Program Files (x86)\Microsoft Visual Studio\2019\Community\VC\Tools\MSVC\14.29.30133\atlmfc\include\afx.inl

; 212  : 	{ return (m_nMode & CArchive::load) == 0; }

  00009	8b 4d 08	 mov	 ecx, DWORD PTR _ar$[ebp]
; File C:\Program Files (x86)\Microsoft Visual Studio\2019\Community\VC\Tools\MSVC\14.29.30133\atlmfc\include\afxtempl.h

; 1169 : {

  0000c	56		 push	 esi
  0000d	57		 push	 edi
  0000e	89 5d fc	 mov	 DWORD PTR _this$1$[ebp], ebx
; File C:\Program Files (x86)\Microsoft Visual Studio\2019\Community\VC\Tools\MSVC\14.29.30133\atlmfc\include\afx.inl

; 212  : 	{ return (m_nMode & CArchive::load) == 0; }

  00011	8b 41 18	 mov	 eax, DWORD PTR [ecx+24]
  00014	f7 d0		 not	 eax
  00016	a8 01		 test	 al, 1
; File C:\Program Files (x86)\Microsoft Visual Studio\2019\Community\VC\Tools\MSVC\14.29.30133\atlmfc\include\afxtempl.h

; 1174 : 	if (ar.IsStoring())

  00018	0f 84 ae 00 00
	00		 je	 $LN7@Serialize

; 1175 : 	{
; 1176 : 		ar.WriteCount(m_nCount);

  0001e	ff 73 0c	 push	 DWORD PTR [ebx+12]
  00021	e8 00 00 00 00	 call	 ?WriteCount@CArchive@@QAEXK@Z ; CArchive::WriteCount

; 1177 : 		for (CNode* pNode = m_pNodeHead; pNode != NULL; pNode = pNode->pNext)

  00026	8b 43 04	 mov	 eax, DWORD PTR [ebx+4]
  00029	89 45 f8	 mov	 DWORD PTR _pNode$1$[ebp], eax
  0002c	85 c0		 test	 eax, eax
  0002e	0f 84 43 01 00
	00		 je	 $LN68@Serialize
$LL4@Serialize:

; 1178 : 		{
; 1179 : 			ASSERT(AfxIsValidAddress(pNode, sizeof(CNode)));
; 1180 : 			TYPE* pData;
; 1181 : 			/*
; 1182 : 			 * in some cases the & operator might be overloaded, and we cannot use it to obtain
; 1183 : 			 * the address of a given object.  We then use the following trick to get the address
; 1184 : 			 */
; 1185 : 			pData = reinterpret_cast< TYPE* >( &reinterpret_cast< int& >( static_cast< TYPE& >( pNode->data ) ) );

  00034	8d 70 08	 lea	 esi, DWORD PTR [eax+8]

; 68   : 	ENSURE(nCount == 0 || pElements != NULL);

  00037	85 f6		 test	 esi, esi
  00039	0f 84 4a 01 00
	00		 je	 $LN60@Serialize
; File C:\Program Files (x86)\Microsoft Visual Studio\2019\Community\VC\Tools\MSVC\14.29.30133\atlmfc\include\afx.inl

; 212  : 	{ return (m_nMode & CArchive::load) == 0; }

  0003f	8b 4d 08	 mov	 ecx, DWORD PTR _ar$[ebp]
  00042	8b 41 18	 mov	 eax, DWORD PTR [ecx+24]
  00045	f7 d0		 not	 eax
  00047	a8 01		 test	 al, 1
; File C:\Program Files (x86)\Microsoft Visual Studio\2019\Community\VC\Tools\MSVC\14.29.30133\atlmfc\include\afxtempl.h

; 73   : 	if (ar.IsStoring())

  00049	74 33		 je	 SHORT $LN21@Serialize

; 74   : 	{
; 75   : 		TYPE* pData;
; 76   : 		UINT_PTR nElementsLeft;
; 77   : 
; 78   : 		nElementsLeft = nCount;

  0004b	b8 01 00 00 00	 mov	 eax, 1
  00050	89 45 fc	 mov	 DWORD PTR _nElementsLeft$1$[ebp], eax
$LL16@Serialize:

; 80   : 		while( nElementsLeft > 0 )
; 81   : 		{
; 82   : 			UINT nElementsToWrite;
; 83   : 
; 84   : 			nElementsToWrite = UINT(__min(nElementsLeft, INT_MAX/sizeof(TYPE)));

  00053	bb ff ff ff 1f	 mov	 ebx, 536870911		; 1fffffffH
  00058	3b c3		 cmp	 eax, ebx
  0005a	0f 42 d8	 cmovb	 ebx, eax

; 85   : 			ar.Write(pData, nElementsToWrite*sizeof(TYPE));

  0005d	8d 3c 9d 00 00
	00 00		 lea	 edi, DWORD PTR [ebx*4]
  00064	57		 push	 edi
  00065	56		 push	 esi
  00066	e8 00 00 00 00	 call	 ?Write@CArchive@@QAEXPBXI@Z ; CArchive::Write

; 86   : 			nElementsLeft -= nElementsToWrite;

  0006b	8b 45 fc	 mov	 eax, DWORD PTR _nElementsLeft$1$[ebp]

; 87   : 			pData += nElementsToWrite;

  0006e	03 f7		 add	 esi, edi
  00070	8b 4d 08	 mov	 ecx, DWORD PTR _ar$[ebp]
  00073	2b c3		 sub	 eax, ebx
  00075	89 45 fc	 mov	 DWORD PTR _nElementsLeft$1$[ebp], eax
  00078	85 c0		 test	 eax, eax
  0007a	75 d7		 jne	 SHORT $LL16@Serialize

; 88   : 		}
; 89   : 	}

  0007c	eb 35		 jmp	 SHORT $LN2@Serialize
$LN21@Serialize:

; 90   : 	else
; 91   : 	{
; 92   : 		TYPE* pData;
; 93   : 		UINT_PTR nElementsLeft;
; 94   : 
; 95   : 		nElementsLeft = nCount;

  0007e	bf 01 00 00 00	 mov	 edi, 1
$LL18@Serialize:

; 98   : 		{
; 99   : 			UINT nElementsToRead;
; 100  : 
; 101  : 			nElementsToRead = UINT(__min(nElementsLeft, INT_MAX/sizeof(TYPE)));

  00083	bb ff ff ff 1f	 mov	 ebx, 536870911		; 1fffffffH
  00088	3b fb		 cmp	 edi, ebx
  0008a	0f 42 df	 cmovb	 ebx, edi

; 102  : 			ar.EnsureRead(pData, nElementsToRead*sizeof(TYPE));

  0008d	8d 04 9d 00 00
	00 00		 lea	 eax, DWORD PTR [ebx*4]
; File C:\Program Files (x86)\Microsoft Visual Studio\2019\Community\VC\Tools\MSVC\14.29.30133\atlmfc\include\afx.inl

; 399  : 	UINT nRead=Read(lpBuf, nCount);

  00094	50		 push	 eax
  00095	56		 push	 esi
  00096	e8 00 00 00 00	 call	 ?Read@CArchive@@QAEIPAXI@Z ; CArchive::Read

; 400  : 	if(nRead!=nCount)

  0009b	8d 0c 9d 00 00
	00 00		 lea	 ecx, DWORD PTR [ebx*4]
  000a2	3b c1		 cmp	 eax, ecx
  000a4	0f 85 d6 00 00
	00		 jne	 $LN59@Serialize
; File C:\Program Files (x86)\Microsoft Visual Studio\2019\Community\VC\Tools\MSVC\14.29.30133\atlmfc\include\afxtempl.h

; 97   : 		while( nElementsLeft > 0 )

  000aa	03 f1		 add	 esi, ecx
  000ac	8b 4d 08	 mov	 ecx, DWORD PTR _ar$[ebp]

; 103  : 			nElementsLeft -= nElementsToRead;

  000af	2b fb		 sub	 edi, ebx
  000b1	75 d0		 jne	 SHORT $LL18@Serialize
$LN2@Serialize:

; 1177 : 		for (CNode* pNode = m_pNodeHead; pNode != NULL; pNode = pNode->pNext)

  000b3	8b 45 f8	 mov	 eax, DWORD PTR _pNode$1$[ebp]
  000b6	8b 00		 mov	 eax, DWORD PTR [eax]
  000b8	89 45 f8	 mov	 DWORD PTR _pNode$1$[ebp], eax
  000bb	85 c0		 test	 eax, eax
  000bd	0f 85 71 ff ff
	ff		 jne	 $LL4@Serialize

; 1197 : 		}
; 1198 : 	}
; 1199 : }

  000c3	5f		 pop	 edi
  000c4	5e		 pop	 esi
  000c5	5b		 pop	 ebx
  000c6	8b e5		 mov	 esp, ebp
  000c8	5d		 pop	 ebp
  000c9	c2 04 00	 ret	 4
$LN7@Serialize:

; 1186 : 			SerializeElements<TYPE>(ar, pData, 1);
; 1187 : 		}
; 1188 : 	}
; 1189 : 	else
; 1190 : 	{
; 1191 : 		DWORD_PTR nNewCount = ar.ReadCount();

  000cc	e8 00 00 00 00	 call	 ?ReadCount@CArchive@@QAEKXZ ; CArchive::ReadCount

; 1192 : 		while (nNewCount--)

  000d1	85 c0		 test	 eax, eax
  000d3	0f 84 9e 00 00
	00		 je	 $LN68@Serialize
  000d9	0f 1f 80 00 00
	00 00		 npad	 7
$LL5@Serialize:
  000e0	48		 dec	 eax
  000e1	89 45 f0	 mov	 DWORD PTR _nNewCount$1$[ebp], eax
; File C:\Program Files (x86)\Microsoft Visual Studio\2019\Community\VC\Tools\MSVC\14.29.30133\atlmfc\include\afx.inl

; 212  : 	{ return (m_nMode & CArchive::load) == 0; }

  000e4	8b 45 08	 mov	 eax, DWORD PTR _ar$[ebp]
  000e7	8b 48 18	 mov	 ecx, DWORD PTR [eax+24]
  000ea	f7 d1		 not	 ecx
  000ec	f6 c1 01	 test	 cl, 1
; File C:\Program Files (x86)\Microsoft Visual Studio\2019\Community\VC\Tools\MSVC\14.29.30133\atlmfc\include\afxtempl.h

; 73   : 	if (ar.IsStoring())

  000ef	74 3a		 je	 SHORT $LN42@Serialize

; 79   : 		pData = pElements;

  000f1	8d 4d f4	 lea	 ecx, DWORD PTR _newData$1[ebp]
  000f4	bb 01 00 00 00	 mov	 ebx, 1
  000f9	89 4d f8	 mov	 DWORD PTR _pData$1$[ebp], ecx
  000fc	0f 1f 40 00	 npad	 4
$LL37@Serialize:

; 80   : 		while( nElementsLeft > 0 )
; 81   : 		{
; 82   : 			UINT nElementsToWrite;
; 83   : 
; 84   : 			nElementsToWrite = UINT(__min(nElementsLeft, INT_MAX/sizeof(TYPE)));

  00100	bf ff ff ff 1f	 mov	 edi, 536870911		; 1fffffffH
  00105	3b df		 cmp	 ebx, edi
  00107	0f 42 fb	 cmovb	 edi, ebx

; 85   : 			ar.Write(pData, nElementsToWrite*sizeof(TYPE));

  0010a	8d 34 bd 00 00
	00 00		 lea	 esi, DWORD PTR [edi*4]
  00111	56		 push	 esi
  00112	51		 push	 ecx
  00113	8b c8		 mov	 ecx, eax
  00115	e8 00 00 00 00	 call	 ?Write@CArchive@@QAEXPBXI@Z ; CArchive::Write

; 87   : 			pData += nElementsToWrite;

  0011a	8b 4d f8	 mov	 ecx, DWORD PTR _pData$1$[ebp]
  0011d	8b 45 08	 mov	 eax, DWORD PTR _ar$[ebp]
  00120	03 ce		 add	 ecx, esi
  00122	89 4d f8	 mov	 DWORD PTR _pData$1$[ebp], ecx
  00125	2b df		 sub	 ebx, edi
  00127	75 d7		 jne	 SHORT $LL37@Serialize

; 88   : 		}
; 89   : 	}

  00129	eb 36		 jmp	 SHORT $LN40@Serialize
$LN42@Serialize:

; 90   : 	else
; 91   : 	{
; 92   : 		TYPE* pData;
; 93   : 		UINT_PTR nElementsLeft;
; 94   : 
; 95   : 		nElementsLeft = nCount;

  0012b	be 01 00 00 00	 mov	 esi, 1

; 96   : 		pData = pElements;

  00130	8d 5d f4	 lea	 ebx, DWORD PTR _newData$1[ebp]
$LL39@Serialize:

; 98   : 		{
; 99   : 			UINT nElementsToRead;
; 100  : 
; 101  : 			nElementsToRead = UINT(__min(nElementsLeft, INT_MAX/sizeof(TYPE)));

  00133	bf ff ff ff 1f	 mov	 edi, 536870911		; 1fffffffH
  00138	3b f7		 cmp	 esi, edi
  0013a	0f 42 fe	 cmovb	 edi, esi

; 102  : 			ar.EnsureRead(pData, nElementsToRead*sizeof(TYPE));

  0013d	8d 0c bd 00 00
	00 00		 lea	 ecx, DWORD PTR [edi*4]
; File C:\Program Files (x86)\Microsoft Visual Studio\2019\Community\VC\Tools\MSVC\14.29.30133\atlmfc\include\afx.inl

; 399  : 	UINT nRead=Read(lpBuf, nCount);

  00144	51		 push	 ecx
  00145	53		 push	 ebx
  00146	8b c8		 mov	 ecx, eax
  00148	e8 00 00 00 00	 call	 ?Read@CArchive@@QAEIPAXI@Z ; CArchive::Read

; 400  : 	if(nRead!=nCount)

  0014d	8d 0c bd 00 00
	00 00		 lea	 ecx, DWORD PTR [edi*4]
  00154	3b c1		 cmp	 eax, ecx
  00156	75 28		 jne	 SHORT $LN59@Serialize
; File C:\Program Files (x86)\Microsoft Visual Studio\2019\Community\VC\Tools\MSVC\14.29.30133\atlmfc\include\afxtempl.h

; 104  : 			pData += nElementsToRead;

  00158	8b 45 08	 mov	 eax, DWORD PTR _ar$[ebp]
  0015b	03 d9		 add	 ebx, ecx
  0015d	2b f7		 sub	 esi, edi
  0015f	75 d2		 jne	 SHORT $LL39@Serialize
$LN40@Serialize:

; 1193 : 		{
; 1194 : 			TYPE newData[1];
; 1195 : 			SerializeElements<TYPE>(ar, newData, 1);
; 1196 : 			AddTail(newData[0]);

  00161	ff 75 f4	 push	 DWORD PTR _newData$1[ebp]
  00164	8b 4d fc	 mov	 ecx, DWORD PTR _this$1$[ebp]
  00167	e8 00 00 00 00	 call	 ?AddTail@?$CList@PAVCTrTreeCtrl@@PAV1@@@QAEPAU__POSITION@@PAVCTrTreeCtrl@@@Z ; CList<CTrTreeCtrl *,CTrTreeCtrl *>::AddTail
  0016c	8b 45 f0	 mov	 eax, DWORD PTR _nNewCount$1$[ebp]
  0016f	85 c0		 test	 eax, eax
  00171	0f 85 69 ff ff
	ff		 jne	 $LL5@Serialize
$LN68@Serialize:
  00177	5f		 pop	 edi

; 1197 : 		}
; 1198 : 	}
; 1199 : }

  00178	5e		 pop	 esi
  00179	5b		 pop	 ebx
  0017a	8b e5		 mov	 esp, ebp
  0017c	5d		 pop	 ebp
  0017d	c2 04 00	 ret	 4
$LN59@Serialize:
  00180	6a 00		 push	 0
  00182	6a 03		 push	 3
  00184	e8 00 00 00 00	 call	 ?AfxThrowArchiveException@@YGXHPBD@Z ; AfxThrowArchiveException
$LN60@Serialize:

; 68   : 	ENSURE(nCount == 0 || pElements != NULL);

  00189	e8 00 00 00 00	 call	 ?AfxThrowInvalidArgException@@YGXXZ ; AfxThrowInvalidArgException
$LN85@Serialize:
  0018e	cc		 int	 3
?Serialize@?$CList@PAVCTrTreeCtrl@@PAV1@@@UAEXAAVCArchive@@@Z ENDP ; CList<CTrTreeCtrl *,CTrTreeCtrl *>::Serialize
_TEXT	ENDS
; Function compile flags: /Ogtp
; File C:\Program Files (x86)\Microsoft Visual Studio\2019\Community\VC\Tools\MSVC\14.29.30133\atlmfc\include\afxtempl.h
;	COMDAT ??1?$CList@PAVCTrTreeCtrl@@PAV1@@@UAE@XZ
_TEXT	SEGMENT
__$EHRec$ = -12						; size = 12
??1?$CList@PAVCTrTreeCtrl@@PAV1@@@UAE@XZ PROC		; CList<CTrTreeCtrl *,CTrTreeCtrl *>::~CList<CTrTreeCtrl *,CTrTreeCtrl *>, COMDAT
; _this$ = ecx

; 878  : {

  00000	55		 push	 ebp
  00001	8b ec		 mov	 ebp, esp
  00003	6a ff		 push	 -1
  00005	68 00 00 00 00	 push	 __ehhandler$??1?$CList@PAVCTrTreeCtrl@@PAV1@@@UAE@XZ
  0000a	64 a1 00 00 00
	00		 mov	 eax, DWORD PTR fs:0
  00010	50		 push	 eax
  00011	56		 push	 esi
  00012	a1 00 00 00 00	 mov	 eax, DWORD PTR ___security_cookie
  00017	33 c5		 xor	 eax, ebp
  00019	50		 push	 eax
  0001a	8d 45 f4	 lea	 eax, DWORD PTR __$EHRec$[ebp]
  0001d	64 a3 00 00 00
	00		 mov	 DWORD PTR fs:0, eax
  00023	8b f1		 mov	 esi, ecx

; 872  : 	m_pBlocks->FreeDataChain();

  00025	8b 4e 14	 mov	 ecx, DWORD PTR [esi+20]

; 878  : {

  00028	c7 06 00 00 00
	00		 mov	 DWORD PTR [esi], OFFSET ??_7?$CList@PAVCTrTreeCtrl@@PAV1@@@6B@

; 870  : 	m_nCount = 0;

  0002e	c7 46 0c 00 00
	00 00		 mov	 DWORD PTR [esi+12], 0

; 871  : 	m_pNodeHead = m_pNodeTail = m_pNodeFree = NULL;

  00035	c7 46 10 00 00
	00 00		 mov	 DWORD PTR [esi+16], 0
  0003c	c7 46 08 00 00
	00 00		 mov	 DWORD PTR [esi+8], 0
  00043	c7 46 04 00 00
	00 00		 mov	 DWORD PTR [esi+4], 0

; 872  : 	m_pBlocks->FreeDataChain();

  0004a	e8 00 00 00 00	 call	 ?FreeDataChain@CPlex@@QAEXXZ ; CPlex::FreeDataChain

; 873  : 	m_pBlocks = NULL;

  0004f	c7 46 14 00 00
	00 00		 mov	 DWORD PTR [esi+20], 0

; 879  : 	RemoveAll();
; 880  : 	ASSERT(m_nCount == 0);
; 881  : }

  00056	8b 4d f4	 mov	 ecx, DWORD PTR __$EHRec$[ebp]
  00059	64 89 0d 00 00
	00 00		 mov	 DWORD PTR fs:0, ecx
  00060	59		 pop	 ecx
  00061	5e		 pop	 esi
  00062	8b e5		 mov	 esp, ebp
  00064	5d		 pop	 ebp
  00065	c3		 ret	 0
  00066	cc		 int	 3
  00067	cc		 int	 3
  00068	cc		 int	 3
  00069	cc		 int	 3
  0006a	cc		 int	 3
_TEXT	ENDS
;	COMDAT text$x
text$x	SEGMENT
__ehhandler$??1?$CList@PAVCTrTreeCtrl@@PAV1@@@UAE@XZ:
  00000	90		 npad	 1
  00001	90		 npad	 1
  00002	8b 54 24 08	 mov	 edx, DWORD PTR [esp+8]
  00006	8d 42 0c	 lea	 eax, DWORD PTR [edx+12]
  00009	8b 4a f8	 mov	 ecx, DWORD PTR [edx-8]
  0000c	33 c8		 xor	 ecx, eax
  0000e	e8 00 00 00 00	 call	 @__security_check_cookie@4
  00013	b8 00 00 00 00	 mov	 eax, OFFSET __ehfuncinfo$??1?$CList@PAVCTrTreeCtrl@@PAV1@@@UAE@XZ
  00018	e9 00 00 00 00	 jmp	 ___CxxFrameHandler3
text$x	ENDS
??1?$CList@PAVCTrTreeCtrl@@PAV1@@@UAE@XZ ENDP		; CList<CTrTreeCtrl *,CTrTreeCtrl *>::~CList<CTrTreeCtrl *,CTrTreeCtrl *>
; Function compile flags: /Ogtp
; File C:\Program Files (x86)\Microsoft Visual Studio\2019\Community\VC\Tools\MSVC\14.29.30133\atlmfc\include\afxtempl.h
;	COMDAT ?NewNode@?$CList@PAVCTrTreeCtrl@@PAV1@@@IAEPAUCNode@1@PAU21@0@Z
_TEXT	SEGMENT
_pPrev$ = 8						; size = 4
_pNext$ = 12						; size = 4
?NewNode@?$CList@PAVCTrTreeCtrl@@PAV1@@@IAEPAUCNode@1@PAU21@0@Z PROC ; CList<CTrTreeCtrl *,CTrTreeCtrl *>::NewNode, COMDAT
; _this$ = ecx

; 901  : {

  00000	55		 push	 ebp
  00001	8b ec		 mov	 ebp, esp
  00003	56		 push	 esi
  00004	8b f1		 mov	 esi, ecx

; 902  : 	if (m_pNodeFree == NULL)

  00006	83 7e 10 00	 cmp	 DWORD PTR [esi+16], 0
  0000a	75 34		 jne	 SHORT $LN7@NewNode

; 903  : 	{
; 904  : 		// add another block
; 905  : 		CPlex* pNewBlock = CPlex::Create(m_pBlocks, m_nBlockSize,

  0000c	6a 0c		 push	 12			; 0000000cH
  0000e	ff 76 18	 push	 DWORD PTR [esi+24]
  00011	8d 46 14	 lea	 eax, DWORD PTR [esi+20]
  00014	50		 push	 eax
  00015	e8 00 00 00 00	 call	 ?Create@CPlex@@SGPAU1@AAPAU1@II@Z ; CPlex::Create

; 906  : 				 sizeof(CNode));
; 907  : 
; 908  : 		// chain them into free list
; 909  : 		CNode* pNode = (CNode*) pNewBlock->data();
; 910  : 		// free in reverse order to make it easier to debug
; 911  : 		pNode += m_nBlockSize - 1;

  0001a	8b 56 18	 mov	 edx, DWORD PTR [esi+24]
  0001d	83 c0 08	 add	 eax, 8
  00020	8d 0c 52	 lea	 ecx, DWORD PTR [edx+edx*2]
  00023	8d 04 88	 lea	 eax, DWORD PTR [eax+ecx*4]
  00026	83 c0 f4	 add	 eax, -12		; fffffff4H

; 912  : 		for (INT_PTR i = m_nBlockSize-1; i >= 0; i--, pNode--)

  00029	83 c2 ff	 add	 edx, -1
  0002c	78 12		 js	 SHORT $LN7@NewNode
  0002e	66 90		 npad	 2
$LL4@NewNode:

; 913  : 		{
; 914  : 			pNode->pNext = m_pNodeFree;

  00030	8b 4e 10	 mov	 ecx, DWORD PTR [esi+16]
  00033	89 08		 mov	 DWORD PTR [eax], ecx

; 915  : 			m_pNodeFree = pNode;

  00035	89 46 10	 mov	 DWORD PTR [esi+16], eax
  00038	83 e8 0c	 sub	 eax, 12			; 0000000cH
  0003b	83 ea 01	 sub	 edx, 1
  0003e	79 f0		 jns	 SHORT $LL4@NewNode
$LN7@NewNode:

; 916  : 		}
; 917  : 	}
; 918  : 	ENSURE(m_pNodeFree != NULL);  // we must have something

  00040	8b 46 10	 mov	 eax, DWORD PTR [esi+16]
  00043	85 c0		 test	 eax, eax
  00045	74 18		 je	 SHORT $LN17@NewNode

; 919  : 
; 920  : 	CList::CNode* pNode = m_pNodeFree;
; 921  : 	m_pNodeFree = m_pNodeFree->pNext;

  00047	8b 08		 mov	 ecx, DWORD PTR [eax]
  00049	89 4e 10	 mov	 DWORD PTR [esi+16], ecx

; 922  : 	pNode->pPrev = pPrev;

  0004c	8b 4d 08	 mov	 ecx, DWORD PTR _pPrev$[ebp]
  0004f	89 48 04	 mov	 DWORD PTR [eax+4], ecx

; 923  : 	pNode->pNext = pNext;

  00052	8b 4d 0c	 mov	 ecx, DWORD PTR _pNext$[ebp]
  00055	89 08		 mov	 DWORD PTR [eax], ecx

; 924  : 	m_nCount++;

  00057	ff 46 0c	 inc	 DWORD PTR [esi+12]

; 925  : 	ASSERT(m_nCount > 0);  // make sure we don't overflow
; 926  : 
; 927  : #pragma push_macro("new")
; 928  : #undef new
; 929  : 	::new( (void*)( &pNode->data ) ) TYPE;
; 930  : #pragma pop_macro("new")
; 931  : 	return pNode;

  0005a	5e		 pop	 esi

; 932  : }

  0005b	5d		 pop	 ebp
  0005c	c2 08 00	 ret	 8
$LN17@NewNode:

; 916  : 		}
; 917  : 	}
; 918  : 	ENSURE(m_pNodeFree != NULL);  // we must have something

  0005f	e8 00 00 00 00	 call	 ?AfxThrowInvalidArgException@@YGXXZ ; AfxThrowInvalidArgException
$LN15@NewNode:
  00064	cc		 int	 3
?NewNode@?$CList@PAVCTrTreeCtrl@@PAV1@@@IAEPAUCNode@1@PAU21@0@Z ENDP ; CList<CTrTreeCtrl *,CTrTreeCtrl *>::NewNode
_TEXT	ENDS
; Function compile flags: /Ogtp
; File C:\Program Files (x86)\Microsoft Visual Studio\2019\Community\VC\Tools\MSVC\14.29.30133\atlmfc\include\afxtempl.h
;	COMDAT ?FindIndex@?$CList@PAVCTrTreeCtrl@@PAV1@@@QBEPAU__POSITION@@H@Z
_TEXT	SEGMENT
_nIndex$ = 8						; size = 4
?FindIndex@?$CList@PAVCTrTreeCtrl@@PAV1@@@QBEPAU__POSITION@@H@Z PROC ; CList<CTrTreeCtrl *,CTrTreeCtrl *>::FindIndex, COMDAT
; _this$ = ecx

; 1130 : {

  00000	55		 push	 ebp
  00001	8b ec		 mov	 ebp, esp

; 1131 : 	ASSERT_VALID(this);
; 1132 : 
; 1133 : 	if (nIndex >= m_nCount || nIndex < 0)

  00003	8b 55 08	 mov	 edx, DWORD PTR _nIndex$[ebp]
  00006	3b 51 0c	 cmp	 edx, DWORD PTR [ecx+12]
  00009	7d 14		 jge	 SHORT $LN5@FindIndex
  0000b	85 d2		 test	 edx, edx
  0000d	78 10		 js	 SHORT $LN5@FindIndex

; 1135 : 
; 1136 : 	CNode* pNode = m_pNodeHead;

  0000f	8b 41 04	 mov	 eax, DWORD PTR [ecx+4]

; 1137 : 	while (nIndex--)

  00012	74 0d		 je	 SHORT $LN1@FindIndex
$LL2@FindIndex:

; 1138 : 	{
; 1139 : 		ASSERT(AfxIsValidAddress(pNode, sizeof(CNode)));
; 1140 : 		pNode = pNode->pNext;

  00014	8b 00		 mov	 eax, DWORD PTR [eax]
  00016	83 ea 01	 sub	 edx, 1
  00019	75 f9		 jne	 SHORT $LL2@FindIndex

; 1141 : 	}
; 1142 : 	return (POSITION) pNode;
; 1143 : }

  0001b	5d		 pop	 ebp
  0001c	c2 04 00	 ret	 4
$LN5@FindIndex:

; 1134 : 		return NULL;  // went too far

  0001f	33 c0		 xor	 eax, eax
$LN1@FindIndex:

; 1141 : 	}
; 1142 : 	return (POSITION) pNode;
; 1143 : }

  00021	5d		 pop	 ebp
  00022	c2 04 00	 ret	 4
?FindIndex@?$CList@PAVCTrTreeCtrl@@PAV1@@@QBEPAU__POSITION@@H@Z ENDP ; CList<CTrTreeCtrl *,CTrTreeCtrl *>::FindIndex
_TEXT	ENDS
; Function compile flags: /Ogtp
; File C:\Program Files (x86)\Microsoft Visual Studio\2019\Community\VC\Tools\MSVC\14.29.30133\atlmfc\include\afxtempl.h
;	COMDAT ?RemoveAll@?$CList@PAVCTrTreeCtrl@@PAV1@@@QAEXXZ
_TEXT	SEGMENT
?RemoveAll@?$CList@PAVCTrTreeCtrl@@PAV1@@@QAEXXZ PROC	; CList<CTrTreeCtrl *,CTrTreeCtrl *>::RemoveAll, COMDAT
; _this$ = ecx

; 862  : {

  00000	56		 push	 esi
  00001	8b f1		 mov	 esi, ecx

; 863  : 	ASSERT_VALID(this);
; 864  : 
; 865  : 	// destroy elements
; 866  : 	CNode* pNode;
; 867  : 	for (pNode = m_pNodeHead; pNode != NULL; pNode = pNode->pNext)
; 868  : 		pNode->data.~TYPE();
; 869  : 
; 870  : 	m_nCount = 0;
; 871  : 	m_pNodeHead = m_pNodeTail = m_pNodeFree = NULL;
; 872  : 	m_pBlocks->FreeDataChain();

  00003	8b 4e 14	 mov	 ecx, DWORD PTR [esi+20]
  00006	c7 46 0c 00 00
	00 00		 mov	 DWORD PTR [esi+12], 0
  0000d	c7 46 10 00 00
	00 00		 mov	 DWORD PTR [esi+16], 0
  00014	c7 46 08 00 00
	00 00		 mov	 DWORD PTR [esi+8], 0
  0001b	c7 46 04 00 00
	00 00		 mov	 DWORD PTR [esi+4], 0
  00022	e8 00 00 00 00	 call	 ?FreeDataChain@CPlex@@QAEXXZ ; CPlex::FreeDataChain

; 873  : 	m_pBlocks = NULL;

  00027	c7 46 14 00 00
	00 00		 mov	 DWORD PTR [esi+20], 0
  0002e	5e		 pop	 esi

; 874  : }

  0002f	c3		 ret	 0
?RemoveAll@?$CList@PAVCTrTreeCtrl@@PAV1@@@QAEXXZ ENDP	; CList<CTrTreeCtrl *,CTrTreeCtrl *>::RemoveAll
_TEXT	ENDS
; Function compile flags: /Ogtp
; File C:\Program Files (x86)\Microsoft Visual Studio\2019\Community\VC\Tools\MSVC\14.29.30133\atlmfc\include\afxtempl.h
;	COMDAT ?AddTail@?$CList@PAVCTrTreeCtrl@@PAV1@@@QAEPAU__POSITION@@PAVCTrTreeCtrl@@@Z
_TEXT	SEGMENT
_newElement$ = 8					; size = 4
?AddTail@?$CList@PAVCTrTreeCtrl@@PAV1@@@QAEPAU__POSITION@@PAVCTrTreeCtrl@@@Z PROC ; CList<CTrTreeCtrl *,CTrTreeCtrl *>::AddTail, COMDAT
; _this$ = ecx

; 965  : {

  00000	55		 push	 ebp
  00001	8b ec		 mov	 ebp, esp
  00003	56		 push	 esi
  00004	8b f1		 mov	 esi, ecx
  00006	57		 push	 edi

; 902  : 	if (m_pNodeFree == NULL)

  00007	83 7e 10 00	 cmp	 DWORD PTR [esi+16], 0

; 966  : 	ASSERT_VALID(this);
; 967  : 
; 968  : 	CNode* pNewNode = NewNode(m_pNodeTail, NULL);

  0000b	8b 7e 08	 mov	 edi, DWORD PTR [esi+8]

; 902  : 	if (m_pNodeFree == NULL)

  0000e	75 32		 jne	 SHORT $LN11@AddTail

; 903  : 	{
; 904  : 		// add another block
; 905  : 		CPlex* pNewBlock = CPlex::Create(m_pBlocks, m_nBlockSize,

  00010	6a 0c		 push	 12			; 0000000cH
  00012	ff 76 18	 push	 DWORD PTR [esi+24]
  00015	8d 46 14	 lea	 eax, DWORD PTR [esi+20]
  00018	50		 push	 eax
  00019	e8 00 00 00 00	 call	 ?Create@CPlex@@SGPAU1@AAPAU1@II@Z ; CPlex::Create

; 906  : 				 sizeof(CNode));
; 907  : 
; 908  : 		// chain them into free list
; 909  : 		CNode* pNode = (CNode*) pNewBlock->data();
; 910  : 		// free in reverse order to make it easier to debug
; 911  : 		pNode += m_nBlockSize - 1;

  0001e	8b 56 18	 mov	 edx, DWORD PTR [esi+24]
  00021	83 c0 08	 add	 eax, 8
  00024	8d 4a ff	 lea	 ecx, DWORD PTR [edx-1]

; 912  : 		for (INT_PTR i = m_nBlockSize-1; i >= 0; i--, pNode--)

  00027	83 c2 ff	 add	 edx, -1
  0002a	8d 0c 49	 lea	 ecx, DWORD PTR [ecx+ecx*2]
  0002d	8d 0c 88	 lea	 ecx, DWORD PTR [eax+ecx*4]
  00030	78 10		 js	 SHORT $LN11@AddTail
$LL8@AddTail:

; 913  : 		{
; 914  : 			pNode->pNext = m_pNodeFree;

  00032	8b 46 10	 mov	 eax, DWORD PTR [esi+16]
  00035	89 01		 mov	 DWORD PTR [ecx], eax

; 915  : 			m_pNodeFree = pNode;

  00037	89 4e 10	 mov	 DWORD PTR [esi+16], ecx
  0003a	83 e9 0c	 sub	 ecx, 12			; 0000000cH
  0003d	83 ea 01	 sub	 edx, 1
  00040	79 f0		 jns	 SHORT $LL8@AddTail
$LN11@AddTail:

; 916  : 		}
; 917  : 	}
; 918  : 	ENSURE(m_pNodeFree != NULL);  // we must have something

  00042	8b 4e 10	 mov	 ecx, DWORD PTR [esi+16]
  00045	85 c9		 test	 ecx, ecx
  00047	74 39		 je	 SHORT $LN22@AddTail

; 919  : 
; 920  : 	CList::CNode* pNode = m_pNodeFree;
; 921  : 	m_pNodeFree = m_pNodeFree->pNext;

  00049	8b 01		 mov	 eax, DWORD PTR [ecx]
  0004b	89 46 10	 mov	 DWORD PTR [esi+16], eax

; 969  : 	pNewNode->data = newElement;

  0004e	8b 45 08	 mov	 eax, DWORD PTR _newElement$[ebp]

; 922  : 	pNode->pPrev = pPrev;

  00051	89 79 04	 mov	 DWORD PTR [ecx+4], edi

; 923  : 	pNode->pNext = pNext;

  00054	c7 01 00 00 00
	00		 mov	 DWORD PTR [ecx], 0

; 924  : 	m_nCount++;

  0005a	ff 46 0c	 inc	 DWORD PTR [esi+12]

; 969  : 	pNewNode->data = newElement;

  0005d	89 41 08	 mov	 DWORD PTR [ecx+8], eax

; 970  : 	if (m_pNodeTail != NULL)

  00060	8b 46 08	 mov	 eax, DWORD PTR [esi+8]
  00063	85 c0		 test	 eax, eax
  00065	74 0d		 je	 SHORT $LN2@AddTail

; 971  : 		m_pNodeTail->pNext = pNewNode;

  00067	89 08		 mov	 DWORD PTR [eax], ecx

; 972  : 	else
; 973  : 		m_pNodeHead = pNewNode;
; 974  : 	m_pNodeTail = pNewNode;
; 975  : 	return (POSITION) pNewNode;

  00069	8b c1		 mov	 eax, ecx
  0006b	5f		 pop	 edi
  0006c	89 4e 08	 mov	 DWORD PTR [esi+8], ecx
  0006f	5e		 pop	 esi

; 976  : }

  00070	5d		 pop	 ebp
  00071	c2 04 00	 ret	 4
$LN2@AddTail:

; 972  : 	else
; 973  : 		m_pNodeHead = pNewNode;
; 974  : 	m_pNodeTail = pNewNode;
; 975  : 	return (POSITION) pNewNode;

  00074	5f		 pop	 edi
  00075	89 4e 04	 mov	 DWORD PTR [esi+4], ecx
  00078	8b c1		 mov	 eax, ecx
  0007a	89 4e 08	 mov	 DWORD PTR [esi+8], ecx
  0007d	5e		 pop	 esi

; 976  : }

  0007e	5d		 pop	 ebp
  0007f	c2 04 00	 ret	 4
$LN22@AddTail:

; 918  : 	ENSURE(m_pNodeFree != NULL);  // we must have something

  00082	e8 00 00 00 00	 call	 ?AfxThrowInvalidArgException@@YGXXZ ; AfxThrowInvalidArgException
$LN20@AddTail:
  00087	cc		 int	 3
?AddTail@?$CList@PAVCTrTreeCtrl@@PAV1@@@QAEPAU__POSITION@@PAVCTrTreeCtrl@@@Z ENDP ; CList<CTrTreeCtrl *,CTrTreeCtrl *>::AddTail
_TEXT	ENDS
; Function compile flags: /Ogtp
; File C:\Program Files (x86)\Microsoft Visual Studio\2019\Community\VC\Tools\MSVC\14.29.30133\atlmfc\include\afxtempl.h
;	COMDAT ??0?$CList@PAVCTrTreeCtrl@@PAV1@@@QAE@H@Z
_TEXT	SEGMENT
_nBlockSize$ = 8					; size = 4
??0?$CList@PAVCTrTreeCtrl@@PAV1@@@QAE@H@Z PROC		; CList<CTrTreeCtrl *,CTrTreeCtrl *>::CList<CTrTreeCtrl *,CTrTreeCtrl *>, COMDAT
; _this$ = ecx

; 851  : {

  00000	55		 push	 ebp
  00001	8b ec		 mov	 ebp, esp

; 852  : 	ASSERT(nBlockSize > 0);
; 853  : 
; 854  : 	m_nCount = 0;
; 855  : 	m_pNodeHead = m_pNodeTail = m_pNodeFree = NULL;
; 856  : 	m_pBlocks = NULL;
; 857  : 	m_nBlockSize = nBlockSize;

  00003	8b 45 08	 mov	 eax, DWORD PTR _nBlockSize$[ebp]
  00006	89 41 18	 mov	 DWORD PTR [ecx+24], eax

; 858  : }

  00009	8b c1		 mov	 eax, ecx
  0000b	c7 01 00 00 00
	00		 mov	 DWORD PTR [ecx], OFFSET ??_7?$CList@PAVCTrTreeCtrl@@PAV1@@@6B@
  00011	c7 41 0c 00 00
	00 00		 mov	 DWORD PTR [ecx+12], 0
  00018	c7 41 10 00 00
	00 00		 mov	 DWORD PTR [ecx+16], 0
  0001f	c7 41 08 00 00
	00 00		 mov	 DWORD PTR [ecx+8], 0
  00026	c7 41 04 00 00
	00 00		 mov	 DWORD PTR [ecx+4], 0
  0002d	c7 41 14 00 00
	00 00		 mov	 DWORD PTR [ecx+20], 0
  00034	5d		 pop	 ebp
  00035	c2 04 00	 ret	 4
??0?$CList@PAVCTrTreeCtrl@@PAV1@@@QAE@H@Z ENDP		; CList<CTrTreeCtrl *,CTrTreeCtrl *>::CList<CTrTreeCtrl *,CTrTreeCtrl *>
_TEXT	ENDS
; Function compile flags: /Ogtp
; File D:\git\src\IBK\IBK_DRFN\ProjSrc\SrcDrfn\Chart\MULTICHART\TabIndices.cpp
; File C:\Program Files (x86)\Microsoft Visual Studio\2019\Community\VC\Tools\MSVC\14.29.30133\atlmfc\include\afxtempl.h
; File D:\git\src\IBK\IBK_DRFN\ProjSrc\SrcDrfn\Chart\MULTICHART\TabIndices.cpp
; File C:\Program Files (x86)\Microsoft Visual Studio\2019\Community\VC\Tools\MSVC\14.29.30133\atlmfc\include\afxwin2.inl
; File D:\git\src\IBK\IBK_DRFN\ProjSrc\SrcDrfn\Chart\MULTICHART\TabIndices.cpp
; File C:\Program Files (x86)\Microsoft Visual Studio\2019\Community\VC\Tools\MSVC\14.29.30133\atlmfc\include\afxwin2.inl
; File D:\git\src\IBK\IBK_DRFN\ProjSrc\SrcDrfn\Chart\MULTICHART\TabIndices.cpp
; File C:\Program Files (x86)\Microsoft Visual Studio\2019\Community\VC\Tools\MSVC\14.29.30133\atlmfc\include\afxwin2.inl
; File D:\git\src\IBK\IBK_DRFN\ProjSrc\SrcDrfn\Chart\MULTICHART\TabIndices.cpp
; File C:\Program Files (x86)\Microsoft Visual Studio\2019\Community\VC\Tools\MSVC\14.29.30133\atlmfc\include\afxwin2.inl
; File D:\git\src\IBK\IBK_DRFN\ProjSrc\SrcDrfn\Chart\MULTICHART\TabIndices.cpp
; File C:\Program Files (x86)\Microsoft Visual Studio\2019\Community\VC\Tools\MSVC\14.29.30133\atlmfc\include\afxwin2.inl
; File D:\git\src\IBK\IBK_DRFN\ProjSrc\SrcDrfn\Chart\MULTICHART\TabIndices.cpp
; File C:\Program Files (x86)\Microsoft Visual Studio\2019\Community\VC\Tools\MSVC\14.29.30133\atlmfc\include\afxwin2.inl
; File D:\git\src\IBK\IBK_DRFN\ProjSrc\SrcDrfn\Chart\MULTICHART\TabIndices.cpp
; File C:\Program Files (x86)\Microsoft Visual Studio\2019\Community\VC\Tools\MSVC\14.29.30133\atlmfc\include\afxwin2.inl
; File D:\git\src\IBK\IBK_DRFN\ProjSrc\SrcDrfn\Chart\MULTICHART\TabIndices.cpp
; File C:\Program Files (x86)\Microsoft Visual Studio\2019\Community\VC\Tools\MSVC\14.29.30133\atlmfc\include\afxwin2.inl
; File D:\git\src\IBK\IBK_DRFN\ProjSrc\SrcDrfn\Chart\MULTICHART\TabIndices.cpp
; File C:\Program Files (x86)\Microsoft Visual Studio\2019\Community\VC\Tools\MSVC\14.29.30133\atlmfc\include\afxwin2.inl
; File D:\git\src\IBK\IBK_DRFN\ProjSrc\SrcDrfn\Chart\MULTICHART\TabIndices.cpp
; File C:\Program Files (x86)\Microsoft Visual Studio\2019\Community\VC\Tools\MSVC\14.29.30133\atlmfc\include\afxwin2.inl
; File D:\git\src\IBK\IBK_DRFN\ProjSrc\SrcDrfn\Chart\MULTICHART\TabIndices.cpp
;	COMDAT ??0CTabIndices@@QAE@PAVCWnd@@@Z
_TEXT	SEGMENT
_this$ = -16						; size = 4
__$EHRec$ = -12						; size = 12
_this$ = 8						; size = 4
_this$ = 8						; size = 4
_this$ = 8						; size = 4
_this$ = 8						; size = 4
_this$ = 8						; size = 4
_pParent$ = 8						; size = 4
??0CTabIndices@@QAE@PAVCWnd@@@Z PROC			; CTabIndices::CTabIndices, COMDAT
; _this$ = ecx

; 57   : {

  00000	55		 push	 ebp
  00001	8b ec		 mov	 ebp, esp
  00003	6a ff		 push	 -1
  00005	68 00 00 00 00	 push	 __ehhandler$??0CTabIndices@@QAE@PAVCWnd@@@Z
  0000a	64 a1 00 00 00
	00		 mov	 eax, DWORD PTR fs:0
  00010	50		 push	 eax
  00011	51		 push	 ecx
  00012	53		 push	 ebx
  00013	56		 push	 esi
  00014	57		 push	 edi
  00015	a1 00 00 00 00	 mov	 eax, DWORD PTR ___security_cookie
  0001a	33 c5		 xor	 eax, ebp
  0001c	50		 push	 eax
  0001d	8d 45 f4	 lea	 eax, DWORD PTR __$EHRec$[ebp]
  00020	64 a3 00 00 00
	00		 mov	 DWORD PTR fs:0, eax
  00026	8b d9		 mov	 ebx, ecx
  00028	89 5d f0	 mov	 DWORD PTR _this$[ebp], ebx

; 56   : 	: CTabDlg(CTabIndices::IDD, pParent)

  0002b	ff 75 08	 push	 DWORD PTR _pParent$[ebp]
  0002e	68 72 17 00 00	 push	 6002			; 00001772H
  00033	e8 00 00 00 00	 call	 ??0CTabDlg@@QAE@IPAVCWnd@@@Z ; CTabDlg::CTabDlg

; 57   : {

  00038	6a 0a		 push	 10			; 0000000aH
  0003a	8d 8b e8 00 00
	00		 lea	 ecx, DWORD PTR [ebx+232]
  00040	c7 45 fc 00 00
	00 00		 mov	 DWORD PTR __$EHRec$[ebp+8], 0
  00047	c7 03 00 00 00
	00		 mov	 DWORD PTR [ebx], OFFSET ??_7CTabIndices@@6B@
  0004d	e8 00 00 00 00	 call	 ??0CStringList@@QAE@H@Z	; CStringList::CStringList
  00052	8d 8b 04 01 00
	00		 lea	 ecx, DWORD PTR [ebx+260]
  00058	ff 15 00 00 00
	00		 call	 DWORD PTR __imp_??0?$CStringT@DV?$StrTraitMFC_DLL@DV?$ChTraitsCRT@D@ATL@@@@@ATL@@QAE@XZ
  0005e	8d 8b 10 01 00
	00		 lea	 ecx, DWORD PTR [ebx+272]
  00064	c6 45 fc 02	 mov	 BYTE PTR __$EHRec$[ebp+8], 2
  00068	e8 00 00 00 00	 call	 ??0CySplitterWnd@@QAE@XZ ; CySplitterWnd::CySplitterWnd
  0006d	8d 8b d8 01 00
	00		 lea	 ecx, DWORD PTR [ebx+472]
  00073	c6 45 fc 03	 mov	 BYTE PTR __$EHRec$[ebp+8], 3
  00077	e8 00 00 00 00	 call	 ??0CXListCtrl@@QAE@XZ	; CXListCtrl::CXListCtrl
  0007c	8d 8b f0 03 00
	00		 lea	 ecx, DWORD PTR [ebx+1008]
  00082	c6 45 fc 04	 mov	 BYTE PTR __$EHRec$[ebp+8], 4
  00086	e8 00 00 00 00	 call	 ??0CGfxOutBarCtrl@@QAE@XZ ; CGfxOutBarCtrl::CGfxOutBarCtrl
; File C:\Program Files (x86)\Microsoft Visual Studio\2019\Community\VC\Tools\MSVC\14.29.30133\atlmfc\include\afxtempl.h

; 851  : {

  0008b	c7 83 60 05 00
	00 00 00 00 00	 mov	 DWORD PTR [ebx+1376], OFFSET ??_7?$CList@PAVCTrTreeCtrl@@PAV1@@@6B@

; 852  : 	ASSERT(nBlockSize > 0);
; 853  : 
; 854  : 	m_nCount = 0;

  00095	c7 83 6c 05 00
	00 00 00 00 00	 mov	 DWORD PTR [ebx+1388], 0

; 855  : 	m_pNodeHead = m_pNodeTail = m_pNodeFree = NULL;

  0009f	c7 83 70 05 00
	00 00 00 00 00	 mov	 DWORD PTR [ebx+1392], 0
  000a9	c7 83 68 05 00
	00 00 00 00 00	 mov	 DWORD PTR [ebx+1384], 0
  000b3	c7 83 64 05 00
	00 00 00 00 00	 mov	 DWORD PTR [ebx+1380], 0

; 856  : 	m_pBlocks = NULL;

  000bd	c7 83 74 05 00
	00 00 00 00 00	 mov	 DWORD PTR [ebx+1396], 0

; 857  : 	m_nBlockSize = nBlockSize;

  000c7	c7 83 78 05 00
	00 0a 00 00 00	 mov	 DWORD PTR [ebx+1400], 10 ; 0000000aH
; File D:\git\src\IBK\IBK_DRFN\ProjSrc\SrcDrfn\Chart\MULTICHART\TabIndices.cpp

; 57   : {

  000d1	6a 00		 push	 0
  000d3	8d 8b 80 05 00
	00		 lea	 ecx, DWORD PTR [ebx+1408]
  000d9	c6 45 fc 06	 mov	 BYTE PTR __$EHRec$[ebp+8], 6
  000dd	e8 00 00 00 00	 call	 ??0CExStatic@@QAE@H@Z	; CExStatic::CExStatic
  000e2	8d b3 08 06 00
	00		 lea	 esi, DWORD PTR [ebx+1544]
  000e8	c6 45 fc 07	 mov	 BYTE PTR __$EHRec$[ebp+8], 7
; File C:\Program Files (x86)\Microsoft Visual Studio\2019\Community\VC\Tools\MSVC\14.29.30133\atlmfc\include\afxwin2.inl

; 851  : 	{ }

  000ec	8b ce		 mov	 ecx, esi
; File D:\git\src\IBK\IBK_DRFN\ProjSrc\SrcDrfn\Chart\MULTICHART\TabIndices.cpp

; 57   : {

  000ee	89 75 08	 mov	 DWORD PTR _this$[ebp], esi
; File C:\Program Files (x86)\Microsoft Visual Studio\2019\Community\VC\Tools\MSVC\14.29.30133\atlmfc\include\afxwin2.inl

; 851  : 	{ }

  000f1	e8 00 00 00 00	 call	 ??0CWnd@@QAE@XZ		; CWnd::CWnd
  000f6	c7 06 00 00 00
	00		 mov	 DWORD PTR [esi], OFFSET ??_7CEdit@@6B@
; File D:\git\src\IBK\IBK_DRFN\ProjSrc\SrcDrfn\Chart\MULTICHART\TabIndices.cpp

; 57   : {

  000fc	8d 8b 88 06 00
	00		 lea	 ecx, DWORD PTR [ebx+1672]
  00102	c6 45 fc 08	 mov	 BYTE PTR __$EHRec$[ebp+8], 8
  00106	e8 00 00 00 00	 call	 ??0CILButton@@QAE@XZ	; CILButton::CILButton
  0010b	8d 8b e8 07 00
	00		 lea	 ecx, DWORD PTR [ebx+2024]
  00111	c6 45 fc 09	 mov	 BYTE PTR __$EHRec$[ebp+8], 9
  00115	e8 00 00 00 00	 call	 ??0CILButton@@QAE@XZ	; CILButton::CILButton
  0011a	8d b3 48 09 00
	00		 lea	 esi, DWORD PTR [ebx+2376]
  00120	c6 45 fc 0a	 mov	 BYTE PTR __$EHRec$[ebp+8], 10 ; 0000000aH
; File C:\Program Files (x86)\Microsoft Visual Studio\2019\Community\VC\Tools\MSVC\14.29.30133\atlmfc\include\afxwin2.inl

; 662  : 	{ }

  00124	8b ce		 mov	 ecx, esi
; File D:\git\src\IBK\IBK_DRFN\ProjSrc\SrcDrfn\Chart\MULTICHART\TabIndices.cpp

; 57   : {

  00126	89 75 08	 mov	 DWORD PTR _this$[ebp], esi
; File C:\Program Files (x86)\Microsoft Visual Studio\2019\Community\VC\Tools\MSVC\14.29.30133\atlmfc\include\afxwin2.inl

; 662  : 	{ }

  00129	e8 00 00 00 00	 call	 ??0CWnd@@QAE@XZ		; CWnd::CWnd
  0012e	c7 06 00 00 00
	00		 mov	 DWORD PTR [esi], OFFSET ??_7CListBox@@6B@
; File D:\git\src\IBK\IBK_DRFN\ProjSrc\SrcDrfn\Chart\MULTICHART\TabIndices.cpp

; 57   : {

  00134	8d b3 c8 09 00
	00		 lea	 esi, DWORD PTR [ebx+2504]
  0013a	c6 45 fc 0b	 mov	 BYTE PTR __$EHRec$[ebp+8], 11 ; 0000000bH
; File C:\Program Files (x86)\Microsoft Visual Studio\2019\Community\VC\Tools\MSVC\14.29.30133\atlmfc\include\afxwin2.inl

; 622  : 	{ }

  0013e	8b ce		 mov	 ecx, esi
; File D:\git\src\IBK\IBK_DRFN\ProjSrc\SrcDrfn\Chart\MULTICHART\TabIndices.cpp

; 57   : {

  00140	89 75 08	 mov	 DWORD PTR _this$[ebp], esi
; File C:\Program Files (x86)\Microsoft Visual Studio\2019\Community\VC\Tools\MSVC\14.29.30133\atlmfc\include\afxwin2.inl

; 622  : 	{ }

  00143	e8 00 00 00 00	 call	 ??0CWnd@@QAE@XZ		; CWnd::CWnd
  00148	c7 06 00 00 00
	00		 mov	 DWORD PTR [esi], OFFSET ??_7CButton@@6B@
; File D:\git\src\IBK\IBK_DRFN\ProjSrc\SrcDrfn\Chart\MULTICHART\TabIndices.cpp

; 57   : {

  0014e	8d b3 48 0a 00
	00		 lea	 esi, DWORD PTR [ebx+2632]
  00154	c6 45 fc 0c	 mov	 BYTE PTR __$EHRec$[ebp+8], 12 ; 0000000cH
; File C:\Program Files (x86)\Microsoft Visual Studio\2019\Community\VC\Tools\MSVC\14.29.30133\atlmfc\include\afxwin2.inl

; 622  : 	{ }

  00158	8b ce		 mov	 ecx, esi
; File D:\git\src\IBK\IBK_DRFN\ProjSrc\SrcDrfn\Chart\MULTICHART\TabIndices.cpp

; 57   : {

  0015a	89 75 08	 mov	 DWORD PTR _this$[ebp], esi
; File C:\Program Files (x86)\Microsoft Visual Studio\2019\Community\VC\Tools\MSVC\14.29.30133\atlmfc\include\afxwin2.inl

; 622  : 	{ }

  0015d	e8 00 00 00 00	 call	 ??0CWnd@@QAE@XZ		; CWnd::CWnd
  00162	c7 06 00 00 00
	00		 mov	 DWORD PTR [esi], OFFSET ??_7CButton@@6B@
; File D:\git\src\IBK\IBK_DRFN\ProjSrc\SrcDrfn\Chart\MULTICHART\TabIndices.cpp

; 57   : {

  00168	8d 8b c8 0a 00
	00		 lea	 ecx, DWORD PTR [ebx+2760]
  0016e	c6 45 fc 0d	 mov	 BYTE PTR __$EHRec$[ebp+8], 13 ; 0000000dH
  00172	e8 00 00 00 00	 call	 ??0CILButton@@QAE@XZ	; CILButton::CILButton
  00177	8d 8b 28 0c 00
	00		 lea	 ecx, DWORD PTR [ebx+3112]
  0017d	c6 45 fc 0e	 mov	 BYTE PTR __$EHRec$[ebp+8], 14 ; 0000000eH
  00181	e8 00 00 00 00	 call	 ??0CILButton@@QAE@XZ	; CILButton::CILButton
  00186	8d 8b 88 0d 00
	00		 lea	 ecx, DWORD PTR [ebx+3464]
  0018c	c6 45 fc 0f	 mov	 BYTE PTR __$EHRec$[ebp+8], 15 ; 0000000fH
  00190	e8 00 00 00 00	 call	 ??0CILButton@@QAE@XZ	; CILButton::CILButton
  00195	8d b3 e8 0e 00
	00		 lea	 esi, DWORD PTR [ebx+3816]
  0019b	c6 45 fc 10	 mov	 BYTE PTR __$EHRec$[ebp+8], 16 ; 00000010H
; File C:\Program Files (x86)\Microsoft Visual Studio\2019\Community\VC\Tools\MSVC\14.29.30133\atlmfc\include\afxwin2.inl

; 761  : 	{ }

  0019f	8b ce		 mov	 ecx, esi
; File D:\git\src\IBK\IBK_DRFN\ProjSrc\SrcDrfn\Chart\MULTICHART\TabIndices.cpp

; 57   : {

  001a1	89 75 08	 mov	 DWORD PTR _this$[ebp], esi
; File C:\Program Files (x86)\Microsoft Visual Studio\2019\Community\VC\Tools\MSVC\14.29.30133\atlmfc\include\afxwin2.inl

; 761  : 	{ }

  001a4	e8 00 00 00 00	 call	 ??0CWnd@@QAE@XZ		; CWnd::CWnd
  001a9	c7 06 00 00 00
	00		 mov	 DWORD PTR [esi], OFFSET ??_7CComboBox@@6B@
; File D:\git\src\IBK\IBK_DRFN\ProjSrc\SrcDrfn\Chart\MULTICHART\TabIndices.cpp

; 57   : {

  001af	8d 8b 68 0f 00
	00		 lea	 ecx, DWORD PTR [ebx+3944]
  001b5	c6 45 fc 11	 mov	 BYTE PTR __$EHRec$[ebp+8], 17 ; 00000011H
  001b9	e8 00 00 00 00	 call	 ??0CILButton@@QAE@XZ	; CILButton::CILButton
  001be	8d 8b c8 10 00
	00		 lea	 ecx, DWORD PTR [ebx+4296]
  001c4	c6 45 fc 12	 mov	 BYTE PTR __$EHRec$[ebp+8], 18 ; 00000012H
  001c8	e8 00 00 00 00	 call	 ??0CILButton@@QAE@XZ	; CILButton::CILButton
  001cd	8d 8b 28 12 00
	00		 lea	 ecx, DWORD PTR [ebx+4648]
  001d3	c6 45 fc 13	 mov	 BYTE PTR __$EHRec$[ebp+8], 19 ; 00000013H
  001d7	e8 00 00 00 00	 call	 ??0CILButton@@QAE@XZ	; CILButton::CILButton
  001dc	8d 8b 88 13 00
	00		 lea	 ecx, DWORD PTR [ebx+5000]
  001e2	c6 45 fc 14	 mov	 BYTE PTR __$EHRec$[ebp+8], 20 ; 00000014H
  001e6	e8 00 00 00 00	 call	 ??0CILButton@@QAE@XZ	; CILButton::CILButton
  001eb	8d 8b e8 14 00
	00		 lea	 ecx, DWORD PTR [ebx+5352]
  001f1	c6 45 fc 15	 mov	 BYTE PTR __$EHRec$[ebp+8], 21 ; 00000015H
  001f5	e8 00 00 00 00	 call	 ??0CILButton@@QAE@XZ	; CILButton::CILButton
  001fa	8d 8b 48 16 00
	00		 lea	 ecx, DWORD PTR [ebx+5704]
  00200	c6 45 fc 16	 mov	 BYTE PTR __$EHRec$[ebp+8], 22 ; 00000016H
  00204	e8 00 00 00 00	 call	 ??0CTrTreeCtrl@@QAE@XZ	; CTrTreeCtrl::CTrTreeCtrl
  00209	8d 8b e0 16 00
	00		 lea	 ecx, DWORD PTR [ebx+5856]
  0020f	c6 45 fc 17	 mov	 BYTE PTR __$EHRec$[ebp+8], 23 ; 00000017H
  00213	e8 00 00 00 00	 call	 ??0CStringArray@@QAE@XZ	; CStringArray::CStringArray
  00218	8d 8b f4 16 00
	00		 lea	 ecx, DWORD PTR [ebx+5876]
  0021e	c6 45 fc 18	 mov	 BYTE PTR __$EHRec$[ebp+8], 24 ; 00000018H
  00222	e8 00 00 00 00	 call	 ??0CStringArray@@QAE@XZ	; CStringArray::CStringArray
  00227	8d 8b 08 17 00
	00		 lea	 ecx, DWORD PTR [ebx+5896]
  0022d	c6 45 fc 19	 mov	 BYTE PTR __$EHRec$[ebp+8], 25 ; 00000019H
  00231	e8 00 00 00 00	 call	 ??0CStringArray@@QAE@XZ	; CStringArray::CStringArray
  00236	8d 8b 1c 17 00
	00		 lea	 ecx, DWORD PTR [ebx+5916]
  0023c	c6 45 fc 1a	 mov	 BYTE PTR __$EHRec$[ebp+8], 26 ; 0000001aH
  00240	e8 00 00 00 00	 call	 ??0CStringArray@@QAE@XZ	; CStringArray::CStringArray
  00245	8d 8b 30 17 00
	00		 lea	 ecx, DWORD PTR [ebx+5936]
  0024b	c6 45 fc 1b	 mov	 BYTE PTR __$EHRec$[ebp+8], 27 ; 0000001bH
  0024f	e8 00 00 00 00	 call	 ??0CStringArray@@QAE@XZ	; CStringArray::CStringArray
  00254	8d 8b 44 17 00
	00		 lea	 ecx, DWORD PTR [ebx+5956]
  0025a	c6 45 fc 1c	 mov	 BYTE PTR __$EHRec$[ebp+8], 28 ; 0000001cH
  0025e	e8 00 00 00 00	 call	 ??0CStringArray@@QAE@XZ	; CStringArray::CStringArray
  00263	8d 8b 58 17 00
	00		 lea	 ecx, DWORD PTR [ebx+5976]
  00269	c6 45 fc 1d	 mov	 BYTE PTR __$EHRec$[ebp+8], 29 ; 0000001dH
  0026d	e8 00 00 00 00	 call	 ??0CStringArray@@QAE@XZ	; CStringArray::CStringArray
  00272	8d 8b 6c 17 00
	00		 lea	 ecx, DWORD PTR [ebx+5996]
  00278	c6 45 fc 1e	 mov	 BYTE PTR __$EHRec$[ebp+8], 30 ; 0000001eH
  0027c	e8 00 00 00 00	 call	 ??0CStringArray@@QAE@XZ	; CStringArray::CStringArray
  00281	8d 8b 90 17 00
	00		 lea	 ecx, DWORD PTR [ebx+6032]
  00287	c6 45 fc 1f	 mov	 BYTE PTR __$EHRec$[ebp+8], 31 ; 0000001fH
  0028b	e8 00 00 00 00	 call	 ??0CImageList@@QAE@XZ	; CImageList::CImageList
  00290	8d 8b 98 17 00
	00		 lea	 ecx, DWORD PTR [ebx+6040]
  00296	c6 45 fc 20	 mov	 BYTE PTR __$EHRec$[ebp+8], 32 ; 00000020H
  0029a	e8 00 00 00 00	 call	 ??0CImageList@@QAE@XZ	; CImageList::CImageList
  0029f	c6 45 fc 21	 mov	 BYTE PTR __$EHRec$[ebp+8], 33 ; 00000021H

; 58   : 	//{{AFX_DATA_INIT(CTabIndices)
; 59   : 		// NOTE: the ClassWizard will add member initialization here
; 60   : 	//}}AFX_DATA_INIT
; 61   : 	m_nHeightOfIndices = 120;

  002a3	c7 83 88 17 00
	00 78 00 00 00	 mov	 DWORD PTR [ebx+6024], 120 ; 00000078H

; 62   : 	m_nIndexSelected = 0;

  002ad	c7 83 8c 17 00
	00 00 00 00 00	 mov	 DWORD PTR [ebx+6028], 0

; 63   : 	m_bLBtnDown = FALSE;

  002b7	c7 83 80 17 00
	00 00 00 00 00	 mov	 DWORD PTR [ebx+6016], 0

; 64   : 	m_bDragNDrop = FALSE;

  002c1	c7 83 84 17 00
	00 00 00 00 00	 mov	 DWORD PTR [ebx+6020], 0

; 65   : 
; 66   : //	m_pListU = NULL;
; 67   : //	m_pListKU = NULL;
; 68   : //	m_pListUP = NULL;
; 69   : //	m_pListUD = NULL;
; 70   : 
; 71   : 	m_bShowJipyoItem = FALSE; //    .
; 72   : 	m_bBack = FALSE; //     
; 73   : 	m_strOldJipyo = _T("");

  002cb	68 00 00 00 00	 push	 OFFSET ??_C@_00CNPNBAHC@@
  002d0	8d 8b 04 01 00
	00		 lea	 ecx, DWORD PTR [ebx+260]
  002d6	c7 83 e8 03 00
	00 00 00 00 00	 mov	 DWORD PTR [ebx+1000], 0
  002e0	c7 83 ec 03 00
	00 00 00 00 00	 mov	 DWORD PTR [ebx+1004], 0
  002ea	ff 15 00 00 00
	00		 call	 DWORD PTR __imp_??4?$CStringT@DV?$StrTraitMFC_DLL@DV?$ChTraitsCRT@D@ATL@@@@@ATL@@QAEAAV01@PBD@Z

; 74   : 	m_nOldSelJipyoIndex = -1; //    Index

  002f0	c7 83 08 01 00
	00 ff ff ff ff	 mov	 DWORD PTR [ebx+264], -1

; 75   : 	m_posPrev = NULL;
; 76   : 	m_posNext = NULL;
; 77   : 	m_posCur  = NULL;	
; 78   : 	m_nNextJipyoIndex	= -1;
; 79   : 
; 80   : 	m_bRun = FALSE;
; 81   : 
; 82   : 	m_bFindExtend = FALSE;
; 83   : 	
; 84   : }

  002fa	8b c3		 mov	 eax, ebx
  002fc	c7 83 e0 00 00
	00 00 00 00 00	 mov	 DWORD PTR [ebx+224], 0
  00306	c7 83 e4 00 00
	00 00 00 00 00	 mov	 DWORD PTR [ebx+228], 0
  00310	c7 83 dc 00 00
	00 00 00 00 00	 mov	 DWORD PTR [ebx+220], 0
  0031a	c7 83 0c 01 00
	00 ff ff ff ff	 mov	 DWORD PTR [ebx+268], -1
  00324	c7 83 d8 00 00
	00 00 00 00 00	 mov	 DWORD PTR [ebx+216], 0
  0032e	c7 83 7c 05 00
	00 00 00 00 00	 mov	 DWORD PTR [ebx+1404], 0
  00338	8b 4d f4	 mov	 ecx, DWORD PTR __$EHRec$[ebp]
  0033b	64 89 0d 00 00
	00 00		 mov	 DWORD PTR fs:0, ecx
  00342	59		 pop	 ecx
  00343	5f		 pop	 edi
  00344	5e		 pop	 esi
  00345	5b		 pop	 ebx
  00346	8b e5		 mov	 esp, ebp
  00348	5d		 pop	 ebp
  00349	c2 04 00	 ret	 4
_TEXT	ENDS
;	COMDAT text$x
text$x	SEGMENT
__unwindfunclet$??0CTabIndices@@QAE@PAVCWnd@@@Z$0:
  00000	8b 4d f0	 mov	 ecx, DWORD PTR _this$[ebp]
  00003	e9 00 00 00 00	 jmp	 ??1CTabDlg@@UAE@XZ	; CTabDlg::~CTabDlg
__unwindfunclet$??0CTabIndices@@QAE@PAVCWnd@@@Z$1:
  00008	8b 4d f0	 mov	 ecx, DWORD PTR _this$[ebp]
  0000b	81 c1 e8 00 00
	00		 add	 ecx, 232		; 000000e8H
  00011	e9 00 00 00 00	 jmp	 ??1CStringList@@UAE@XZ	; CStringList::~CStringList
__unwindfunclet$??0CTabIndices@@QAE@PAVCWnd@@@Z$2:
  00016	8b 4d f0	 mov	 ecx, DWORD PTR _this$[ebp]
  00019	81 c1 04 01 00
	00		 add	 ecx, 260		; 00000104H
  0001f	ff 25 00 00 00
	00		 jmp	 DWORD PTR __imp_??1?$CStringT@DV?$StrTraitMFC_DLL@DV?$ChTraitsCRT@D@ATL@@@@@ATL@@QAE@XZ
__unwindfunclet$??0CTabIndices@@QAE@PAVCWnd@@@Z$3:
  00025	8b 4d f0	 mov	 ecx, DWORD PTR _this$[ebp]
  00028	81 c1 10 01 00
	00		 add	 ecx, 272		; 00000110H
  0002e	e9 00 00 00 00	 jmp	 ??1CySplitterWnd@@UAE@XZ ; CySplitterWnd::~CySplitterWnd
__unwindfunclet$??0CTabIndices@@QAE@PAVCWnd@@@Z$4:
  00033	8b 4d f0	 mov	 ecx, DWORD PTR _this$[ebp]
  00036	81 c1 d8 01 00
	00		 add	 ecx, 472		; 000001d8H
  0003c	e9 00 00 00 00	 jmp	 ??1CXListCtrl@@UAE@XZ	; CXListCtrl::~CXListCtrl
__unwindfunclet$??0CTabIndices@@QAE@PAVCWnd@@@Z$5:
  00041	8b 4d f0	 mov	 ecx, DWORD PTR _this$[ebp]
  00044	81 c1 f0 03 00
	00		 add	 ecx, 1008		; 000003f0H
  0004a	e9 00 00 00 00	 jmp	 ??1CGfxOutBarCtrl@@UAE@XZ ; CGfxOutBarCtrl::~CGfxOutBarCtrl
__unwindfunclet$??0CTabIndices@@QAE@PAVCWnd@@@Z$6:
  0004f	8b 4d f0	 mov	 ecx, DWORD PTR _this$[ebp]
  00052	81 c1 60 05 00
	00		 add	 ecx, 1376		; 00000560H
  00058	e9 00 00 00 00	 jmp	 ??1?$CList@PAVCTrTreeCtrl@@PAV1@@@UAE@XZ ; CList<CTrTreeCtrl *,CTrTreeCtrl *>::~CList<CTrTreeCtrl *,CTrTreeCtrl *>
__unwindfunclet$??0CTabIndices@@QAE@PAVCWnd@@@Z$7:
  0005d	8b 4d f0	 mov	 ecx, DWORD PTR _this$[ebp]
  00060	81 c1 80 05 00
	00		 add	 ecx, 1408		; 00000580H
  00066	e9 00 00 00 00	 jmp	 ??1CExStatic@@UAE@XZ	; CExStatic::~CExStatic
__unwindfunclet$??0CTabIndices@@QAE@PAVCWnd@@@Z$8:
  0006b	8b 4d f0	 mov	 ecx, DWORD PTR _this$[ebp]
  0006e	81 c1 08 06 00
	00		 add	 ecx, 1544		; 00000608H
  00074	e9 00 00 00 00	 jmp	 ??1CEdit@@UAE@XZ	; CEdit::~CEdit
__unwindfunclet$??0CTabIndices@@QAE@PAVCWnd@@@Z$9:
  00079	8b 4d f0	 mov	 ecx, DWORD PTR _this$[ebp]
  0007c	81 c1 88 06 00
	00		 add	 ecx, 1672		; 00000688H
  00082	e9 00 00 00 00	 jmp	 ??1CILButton@@UAE@XZ	; CILButton::~CILButton
__unwindfunclet$??0CTabIndices@@QAE@PAVCWnd@@@Z$10:
  00087	8b 4d f0	 mov	 ecx, DWORD PTR _this$[ebp]
  0008a	81 c1 e8 07 00
	00		 add	 ecx, 2024		; 000007e8H
  00090	e9 00 00 00 00	 jmp	 ??1CILButton@@UAE@XZ	; CILButton::~CILButton
__unwindfunclet$??0CTabIndices@@QAE@PAVCWnd@@@Z$11:
  00095	8b 4d f0	 mov	 ecx, DWORD PTR _this$[ebp]
  00098	81 c1 48 09 00
	00		 add	 ecx, 2376		; 00000948H
  0009e	e9 00 00 00 00	 jmp	 ??1CListBox@@UAE@XZ	; CListBox::~CListBox
__unwindfunclet$??0CTabIndices@@QAE@PAVCWnd@@@Z$12:
  000a3	8b 4d f0	 mov	 ecx, DWORD PTR _this$[ebp]
  000a6	81 c1 c8 09 00
	00		 add	 ecx, 2504		; 000009c8H
  000ac	e9 00 00 00 00	 jmp	 ??1CButton@@UAE@XZ	; CButton::~CButton
__unwindfunclet$??0CTabIndices@@QAE@PAVCWnd@@@Z$13:
  000b1	8b 4d f0	 mov	 ecx, DWORD PTR _this$[ebp]
  000b4	81 c1 48 0a 00
	00		 add	 ecx, 2632		; 00000a48H
  000ba	e9 00 00 00 00	 jmp	 ??1CButton@@UAE@XZ	; CButton::~CButton
__unwindfunclet$??0CTabIndices@@QAE@PAVCWnd@@@Z$14:
  000bf	8b 4d f0	 mov	 ecx, DWORD PTR _this$[ebp]
  000c2	81 c1 c8 0a 00
	00		 add	 ecx, 2760		; 00000ac8H
  000c8	e9 00 00 00 00	 jmp	 ??1CILButton@@UAE@XZ	; CILButton::~CILButton
__unwindfunclet$??0CTabIndices@@QAE@PAVCWnd@@@Z$15:
  000cd	8b 4d f0	 mov	 ecx, DWORD PTR _this$[ebp]
  000d0	81 c1 28 0c 00
	00		 add	 ecx, 3112		; 00000c28H
  000d6	e9 00 00 00 00	 jmp	 ??1CILButton@@UAE@XZ	; CILButton::~CILButton
__unwindfunclet$??0CTabIndices@@QAE@PAVCWnd@@@Z$16:
  000db	8b 4d f0	 mov	 ecx, DWORD PTR _this$[ebp]
  000de	81 c1 88 0d 00
	00		 add	 ecx, 3464		; 00000d88H
  000e4	e9 00 00 00 00	 jmp	 ??1CILButton@@UAE@XZ	; CILButton::~CILButton
__unwindfunclet$??0CTabIndices@@QAE@PAVCWnd@@@Z$17:
  000e9	8b 4d f0	 mov	 ecx, DWORD PTR _this$[ebp]
  000ec	81 c1 e8 0e 00
	00		 add	 ecx, 3816		; 00000ee8H
  000f2	e9 00 00 00 00	 jmp	 ??1CComboBox@@UAE@XZ	; CComboBox::~CComboBox
__unwindfunclet$??0CTabIndices@@QAE@PAVCWnd@@@Z$18:
  000f7	8b 4d f0	 mov	 ecx, DWORD PTR _this$[ebp]
  000fa	81 c1 68 0f 00
	00		 add	 ecx, 3944		; 00000f68H
  00100	e9 00 00 00 00	 jmp	 ??1CILButton@@UAE@XZ	; CILButton::~CILButton
__unwindfunclet$??0CTabIndices@@QAE@PAVCWnd@@@Z$19:
  00105	8b 4d f0	 mov	 ecx, DWORD PTR _this$[ebp]
  00108	81 c1 c8 10 00
	00		 add	 ecx, 4296		; 000010c8H
  0010e	e9 00 00 00 00	 jmp	 ??1CILButton@@UAE@XZ	; CILButton::~CILButton
__unwindfunclet$??0CTabIndices@@QAE@PAVCWnd@@@Z$20:
  00113	8b 4d f0	 mov	 ecx, DWORD PTR _this$[ebp]
  00116	81 c1 28 12 00
	00		 add	 ecx, 4648		; 00001228H
  0011c	e9 00 00 00 00	 jmp	 ??1CILButton@@UAE@XZ	; CILButton::~CILButton
__unwindfunclet$??0CTabIndices@@QAE@PAVCWnd@@@Z$21:
  00121	8b 4d f0	 mov	 ecx, DWORD PTR _this$[ebp]
  00124	81 c1 88 13 00
	00		 add	 ecx, 5000		; 00001388H
  0012a	e9 00 00 00 00	 jmp	 ??1CILButton@@UAE@XZ	; CILButton::~CILButton
__unwindfunclet$??0CTabIndices@@QAE@PAVCWnd@@@Z$22:
  0012f	8b 4d f0	 mov	 ecx, DWORD PTR _this$[ebp]
  00132	81 c1 e8 14 00
	00		 add	 ecx, 5352		; 000014e8H
  00138	e9 00 00 00 00	 jmp	 ??1CILButton@@UAE@XZ	; CILButton::~CILButton
__unwindfunclet$??0CTabIndices@@QAE@PAVCWnd@@@Z$23:
  0013d	8b 4d f0	 mov	 ecx, DWORD PTR _this$[ebp]
  00140	81 c1 48 16 00
	00		 add	 ecx, 5704		; 00001648H
  00146	e9 00 00 00 00	 jmp	 ??1CTrTreeCtrl@@UAE@XZ	; CTrTreeCtrl::~CTrTreeCtrl
__unwindfunclet$??0CTabIndices@@QAE@PAVCWnd@@@Z$24:
  0014b	8b 4d f0	 mov	 ecx, DWORD PTR _this$[ebp]
  0014e	81 c1 e0 16 00
	00		 add	 ecx, 5856		; 000016e0H
  00154	e9 00 00 00 00	 jmp	 ??1CStringArray@@UAE@XZ	; CStringArray::~CStringArray
__unwindfunclet$??0CTabIndices@@QAE@PAVCWnd@@@Z$25:
  00159	8b 4d f0	 mov	 ecx, DWORD PTR _this$[ebp]
  0015c	81 c1 f4 16 00
	00		 add	 ecx, 5876		; 000016f4H
  00162	e9 00 00 00 00	 jmp	 ??1CStringArray@@UAE@XZ	; CStringArray::~CStringArray
__unwindfunclet$??0CTabIndices@@QAE@PAVCWnd@@@Z$26:
  00167	8b 4d f0	 mov	 ecx, DWORD PTR _this$[ebp]
  0016a	81 c1 08 17 00
	00		 add	 ecx, 5896		; 00001708H
  00170	e9 00 00 00 00	 jmp	 ??1CStringArray@@UAE@XZ	; CStringArray::~CStringArray
__unwindfunclet$??0CTabIndices@@QAE@PAVCWnd@@@Z$27:
  00175	8b 4d f0	 mov	 ecx, DWORD PTR _this$[ebp]
  00178	81 c1 1c 17 00
	00		 add	 ecx, 5916		; 0000171cH
  0017e	e9 00 00 00 00	 jmp	 ??1CStringArray@@UAE@XZ	; CStringArray::~CStringArray
__unwindfunclet$??0CTabIndices@@QAE@PAVCWnd@@@Z$28:
  00183	8b 4d f0	 mov	 ecx, DWORD PTR _this$[ebp]
  00186	81 c1 30 17 00
	00		 add	 ecx, 5936		; 00001730H
  0018c	e9 00 00 00 00	 jmp	 ??1CStringArray@@UAE@XZ	; CStringArray::~CStringArray
__unwindfunclet$??0CTabIndices@@QAE@PAVCWnd@@@Z$29:
  00191	8b 4d f0	 mov	 ecx, DWORD PTR _this$[ebp]
  00194	81 c1 44 17 00
	00		 add	 ecx, 5956		; 00001744H
  0019a	e9 00 00 00 00	 jmp	 ??1CStringArray@@UAE@XZ	; CStringArray::~CStringArray
__unwindfunclet$??0CTabIndices@@QAE@PAVCWnd@@@Z$30:
  0019f	8b 4d f0	 mov	 ecx, DWORD PTR _this$[ebp]
  001a2	81 c1 58 17 00
	00		 add	 ecx, 5976		; 00001758H
  001a8	e9 00 00 00 00	 jmp	 ??1CStringArray@@UAE@XZ	; CStringArray::~CStringArray
__unwindfunclet$??0CTabIndices@@QAE@PAVCWnd@@@Z$31:
  001ad	8b 4d f0	 mov	 ecx, DWORD PTR _this$[ebp]
  001b0	81 c1 6c 17 00
	00		 add	 ecx, 5996		; 0000176cH
  001b6	e9 00 00 00 00	 jmp	 ??1CStringArray@@UAE@XZ	; CStringArray::~CStringArray
__unwindfunclet$??0CTabIndices@@QAE@PAVCWnd@@@Z$32:
  001bb	8b 4d f0	 mov	 ecx, DWORD PTR _this$[ebp]
  001be	81 c1 90 17 00
	00		 add	 ecx, 6032		; 00001790H
  001c4	e9 00 00 00 00	 jmp	 ??1CImageList@@UAE@XZ	; CImageList::~CImageList
__unwindfunclet$??0CTabIndices@@QAE@PAVCWnd@@@Z$33:
  001c9	8b 4d f0	 mov	 ecx, DWORD PTR _this$[ebp]
  001cc	81 c1 98 17 00
	00		 add	 ecx, 6040		; 00001798H
  001d2	e9 00 00 00 00	 jmp	 ??1CImageList@@UAE@XZ	; CImageList::~CImageList
  001d7	cc		 int	 3
  001d8	cc		 int	 3
  001d9	cc		 int	 3
  001da	cc		 int	 3
  001db	cc		 int	 3
__ehhandler$??0CTabIndices@@QAE@PAVCWnd@@@Z:
  001dc	90		 npad	 1
  001dd	90		 npad	 1
  001de	8b 54 24 08	 mov	 edx, DWORD PTR [esp+8]
  001e2	8d 42 0c	 lea	 eax, DWORD PTR [edx+12]
  001e5	8b 4a ec	 mov	 ecx, DWORD PTR [edx-20]
  001e8	33 c8		 xor	 ecx, eax
  001ea	e8 00 00 00 00	 call	 @__security_check_cookie@4
  001ef	b8 00 00 00 00	 mov	 eax, OFFSET __ehfuncinfo$??0CTabIndices@@QAE@PAVCWnd@@@Z
  001f4	e9 00 00 00 00	 jmp	 ___CxxFrameHandler3
text$x	ENDS
??0CTabIndices@@QAE@PAVCWnd@@@Z ENDP			; CTabIndices::CTabIndices
; Function compile flags: /Ogtp
; File D:\git\src\IBK\IBK_DRFN\ProjSrc\SrcDrfn\Chart\MULTICHART\TabIndices.cpp
;	COMDAT ?Move_Selected_JipyoItem@CTabIndices@@QAEXH@Z
_TEXT	SEGMENT
_nRecvItem$ = 8						; size = 4
?Move_Selected_JipyoItem@CTabIndices@@QAEXH@Z PROC	; CTabIndices::Move_Selected_JipyoItem, COMDAT
; _this$ = ecx

; 1576 : //	int nStartIndex = - 1;
; 1577 : //	if(m_nOldSelJipyoIndex < 0)
; 1578 : //	{
; 1579 : //		int nItem = -1;
; 1580 : //		POSITION pos = m_listItems.GetFirstSelectedItemPosition();
; 1581 : //
; 1582 : //		//        .
; 1583 : //		if(pos == NULL)
; 1584 : //		{
; 1585 : //			m_listItems.SetCurSel(0);
; 1586 : //			pos = m_listItems.GetFirstSelectedItemPosition();
; 1587 : //		}
; 1588 : //
; 1589 : //		if(pos)
; 1590 : //		{			
; 1591 : //			//    Zero Base  Index .
; 1592 : //			nItem = m_listItems.GetNextSelectedItem(pos);
; 1593 : //			if( m_listItems.GetCheckbox(nItem, 0) == CHECKED )
; 1594 : //			{
; 1595 : //				nStartIndex = nItem;	
; 1596 : //			}
; 1597 : //			else
; 1598 : //			{
; 1599 : //				nStartIndex = LookUpStartIndex(nItem); //   .
; 1600 : //			}
; 1601 : //			
; 1602 : //			if(nStartIndex == -1)
; 1603 : //			{
; 1604 : //				//             
; 1605 : //				//   .
; 1606 : //				nStartIndex = LookUpStartIndex(0);
; 1607 : //				//m_nOldSelJipyoIndex = 
; 1608 : //				//Move_Selected_JipyoItem(0);
; 1609 : //			}
; 1610 : //			
; 1611 : //			m_nOldSelJipyoIndex = nStartIndex;
; 1612 : //		}
; 1613 : //	}
; 1614 : //	else
; 1615 : //	{		
; 1616 : //		POSITION posCompare = m_listItems.GetFirstSelectedItemPosition();
; 1617 : //		if(posCompare)
; 1618 : //		{				
; 1619 : //			//    Zero Base  Index .
; 1620 : //			int nItem = m_listItems.GetNextSelectedItem(posCompare);
; 1621 : //			if( m_listItems.GetCheckbox(nItem, 0) == CHECKED )
; 1622 : //			{
; 1623 : //				if(m_nOldSelJipyoIndex != nItem)
; 1624 : //				{
; 1625 : //					m_nOldSelJipyoIndex = -1;
; 1626 : //					Move_Selected_JipyoItem(0);
; 1627 : //				}
; 1628 : //			}
; 1629 : //		}
; 1630 : //
; 1631 : //		POSITION pos = m_listCheckedJipyo.GetHeadPosition();
; 1632 : //		CString strIndex;
; 1633 : //		while( pos != NULL )
; 1634 : //		{
; 1635 : //			strIndex = _T("");
; 1636 : //			strIndex = (CString)m_listCheckedJipyo.GetAt(pos);
; 1637 : //			if(strIndex.GetLength())
; 1638 : //			{					
; 1639 : //				if(atoi(strIndex) == m_nOldSelJipyoIndex)
; 1640 : //					break;
; 1641 : //			}
; 1642 : //			m_listCheckedJipyo.GetNext(pos);
; 1643 : //		}
; 1644 : //
; 1645 : //		if(m_bBack)
; 1646 : //		{			
; 1647 : //			if(pos != NULL)
; 1648 : //				m_listCheckedJipyo.GetPrev(pos);
; 1649 : //
; 1650 : //			if(pos == NULL)
; 1651 : //				pos = m_listCheckedJipyo.GetTailPosition();
; 1652 : //			
; 1653 : //			strIndex = (CString)m_listCheckedJipyo.GetAt(pos);
; 1654 : //		}
; 1655 : //		else
; 1656 : //		{
; 1657 : //			if(pos != NULL)
; 1658 : //				m_listCheckedJipyo.GetNext(pos);
; 1659 : //			
; 1660 : //			if(pos == NULL)
; 1661 : //				pos = m_listCheckedJipyo.GetHeadPosition();
; 1662 : //			
; 1663 : //			strIndex = (CString)m_listCheckedJipyo.GetAt(pos);
; 1664 : //		}
; 1665 : //		m_nOldSelJipyoIndex = nStartIndex = atoi(strIndex);
; 1666 : //	}
; 1667 : //
; 1668 : //	m_listItems.SetCurSel(nStartIndex);				
; 1669 : //	CString strText = m_listItems.GetItemText(nStartIndex, 0);
; 1670 : //
; 1671 : //	if(m_strOldJipyo.GetLength())
; 1672 : //	{			
; 1673 : //		//( m_pChartMng->SendMessage(UMSG_HASGRAPH,(WPARAM)(LPCTSTR)m_strOldJipyo) );
; 1674 : //		//
; 1675 : //			m_pChartMng->SendMessage(UMSG_DEL_CHART_BLOCK,(WPARAM)(LPCTSTR)m_strOldJipyo);
; 1676 : //		//	m_strOldJipyo = _T("");
; 1677 : //		//
; 1678 : //	}
; 1679 : //
; 1680 : //	m_pChartMng->SendMessage(UMSG_ADDCHARTBLOCK,(WPARAM)(LPCTSTR)strText);
; 1681 : //	m_strOldJipyo = strText;
; 1682 : 
; 1683 : 
; 1684 : //	if(strText.GetLength())
; 1685 : //		AfxMessageBox(strText);
; 1686 : 
; 1687 : /*
; 1688 : 	int nItem = nRecvItem;
; 1689 : 	POSITION pos = NULL;
; 1690 : 	if(nItem == -1)
; 1691 : 	{	
; 1692 : 		pos = m_listItems.GetFirstSelectedItemPosition();	
; 1693 : 		if(pos)
; 1694 : 		{
; 1695 : 			//    Zero Base  Index .
; 1696 : 			nItem = m_listItems.GetNextSelectedItem(pos);
; 1697 : 			m_listItems.GetCheckbox(nItem, 0);
; 1698 : 		}
; 1699 : 		else
; 1700 : 		{
; 1701 : 			nItem = 0;
; 1702 : 			//OnBtnStop();
; 1703 : 			//AfxMessageBox("    ");		
; 1704 : 			//return;
; 1705 : 		}
; 1706 : 	}
; 1707 : 
; 1708 : 
; 1709 : 	int nStartIndex = LookUpStartIndex(nItem);	
; 1710 : 	if(m_bBack)
; 1711 : 	{
; 1712 : 		m_nOldSelJipyoIndex = nStartIndex - 1;
; 1713 : 		if(m_nOldSelJipyoIndex < 0)
; 1714 : 			m_nOldSelJipyoIndex = m_listItems.GetItemCount() - 1;			
; 1715 : 	}
; 1716 : 	else
; 1717 : 	{
; 1718 : 		m_nOldSelJipyoIndex = nStartIndex + 1;
; 1719 : 		if(m_nOldSelJipyoIndex == (m_listItems.GetItemCount() ))
; 1720 : 			m_nOldSelJipyoIndex = 0;
; 1721 : 	}
; 1722 : 
; 1723 : 	CString sTemp;
; 1724 : 	CString strText;
; 1725 : 	sTemp.Format("nStartIndex : %d, m_nOldSelJipyoIndex : %d,  : %s", \
; 1726 : 					nStartIndex, m_nOldSelJipyoIndex,strText);
; 1727 : 	OutputDebugString(sTemp);
; 1728 : 
; 1729 : 	m_listItems.SetCurSel(nStartIndex);				
; 1730 : 	strText = m_listItems.GetItemText(nStartIndex, 0);
; 1731 : 	//AfxMessageBox(strText);
; 1732 : //===========================================================================================
; 1733 : /*	if(m_bBack)
; 1734 : 	{	
; 1735 : 		CString strText;
; 1736 : 		int nCnt = 0;
; 1737 : 		for(int i = nItem; i >= 0; i--)
; 1738 : 		{			
; 1739 : 			if(m_listItems.GetCheckbox(i, 0))
; 1740 : 			{
; 1741 : 				//        .
; 1742 : 				// 2  . =============================================
; 1743 : 				nCnt++;
; 1744 : 				if(nCnt == 2)
; 1745 : 				{
; 1746 : 					m_nOldSelJipyoIndex = i;
; 1747 : 					break;
; 1748 : 				}//============================================================================
; 1749 : 				else if( (nCnt == 1) && ( (m_nOldSelJipyoIndex == 0) || (m_nOldSelJipyoIndex == -1)))
; 1750 : 				{
; 1751 : 					//      
; 1752 :                     //         
; 1753 : 					//    m_nOldSelJipyoIndex .
; 1754 : 					nItem = m_listItems.GetItemCount() - 1;
; 1755 : 					m_nOldSelJipyoIndex = nItem;
; 1756 : 				}
; 1757 : 
; 1758 : 				m_listItems.SetCurSel(i);				
; 1759 : 				strText = m_listItems.GetItemText(i, 0);
; 1760 : 				OutputDebugString(strText);
; 1761 : 				/*
; 1762 : 				if(m_pChartMng->GetSafeHwnd() && strText.GetLength()) // 2005. 05. 13 by Nam
; 1763 : 				{
; 1764 : 					//    ,      
; 1765 : 					//    .
; 1766 : 					if( m_strOldJipyo.GetLength() && (strText != m_strOldJipyo))
; 1767 : 						m_pChartMng->SendMessage(UMSG_ADDCHARTBLOCK,(WPARAM)(LPCTSTR)m_strOldJipyo);
; 1768 : 
; 1769 : 					if(m_strOldJipyo != strText)
; 1770 : 					{	
; 1771 : 						m_pChartMng->SendMessage(UMSG_ADDCHARTBLOCK,(WPARAM)(LPCTSTR)strText);
; 1772 : 						m_strOldJipyo = strText;
; 1773 : 					}
; 1774 : 				}			
; 1775 : 			}
; 1776 : 		}
; 1777 : 	}
; 1778 : 	else if(m_bBack == FALSE)
; 1779 : 	{
; 1780 : 		int nCnt = 0;
; 1781 : 		int nTot = m_listItems.GetItemCount();
; 1782 : 		CString strText, strOldText;
; 1783 : 		for(int i = nItem; i < nTot ; i++)
; 1784 : 		{
; 1785 : 			if(m_listItems.GetCheckbox(i, 0))
; 1786 : 			{
; 1787 : 				nCnt++;
; 1788 : 				//        .
; 1789 : 				// 2  . =============================================
; 1790 : 				if(nCnt == 2)
; 1791 : 				{
; 1792 : 					m_nOldSelJipyoIndex = i;
; 1793 : 					break;
; 1794 : 				}//============================================================================
; 1795 : 				else if( (nCnt == 1) && ( (m_nOldSelJipyoIndex == (nTot - 1)) || (m_nOldSelJipyoIndex == -1)))
; 1796 : 				{
; 1797 : 					//       
; 1798 :                     //         
; 1799 : 					//    m_nOldSelJipyoIndex .
; 1800 : 					nItem = 0;
; 1801 : 					m_nOldSelJipyoIndex = nItem;
; 1802 : 				}
; 1803 : 
; 1804 : 				m_listItems.SetCurSel(i);				
; 1805 : 				strText = m_listItems.GetItemText(i, 0);
; 1806 : 				OutputDebugString(strText);
; 1807 : 				/*if(m_pChartMng->GetSafeHwnd() && strText.GetLength()) // 2005. 05. 13 by Nam
; 1808 : 				{
; 1809 : 					if(strOldText.GetLength())
; 1810 : 						m_pChartMng->SendMessage(UMSG_ADDCHARTBLOCK,(WPARAM)(LPCTSTR)strOldText);
; 1811 : 
; 1812 : 					m_pChartMng->SendMessage(UMSG_ADDCHARTBLOCK,(WPARAM)(LPCTSTR)strText);
; 1813 : 					strOldText = strText;
; 1814 : 				}
; 1815 : 			}
; 1816 : 		}
; 1817 : 	}*/
; 1818 : 	
; 1819 : /*	if(m_bBack)
; 1820 : 	{
; 1821 : 		CString strText, strOldText;
; 1822 : 		for(int i = nItem; i >= 0; i--)
; 1823 : 		{			
; 1824 : 			if(m_listItems.GetCheckbox(i, 0))
; 1825 : 			{
; 1826 : 				m_listItems.SetCurSel(i);				
; 1827 : 				strText = m_listItems.GetItemText(i, 0);
; 1828 : 				OutputDebugString(strText);
; 1829 : 				if(m_pChartMng->GetSafeHwnd() && strText.GetLength()) // 2005. 05. 13 by Nam
; 1830 : 				{
; 1831 : 					if(strOldText.GetLength())
; 1832 : 						m_pChartMng->SendMessage(UMSG_ADDCHARTBLOCK,(WPARAM)(LPCTSTR)strOldText);
; 1833 : 
; 1834 : 					m_pChartMng->SendMessage(UMSG_ADDCHARTBLOCK,(WPARAM)(LPCTSTR)strText);
; 1835 : 					strOldText = strText;
; 1836 : 				}
; 1837 : 			}
; 1838 : 		}		
; 1839 : 	}
; 1840 : 	else
; 1841 : 	{
; 1842 : 		int nTot = m_listItems.GetItemCount();
; 1843 : 		CString strText, strOldText;
; 1844 : 		for(int i = nItem; i < nTot ; i++)
; 1845 : 		{
; 1846 : 			if(m_listItems.GetCheckbox(i, 0))
; 1847 : 			{
; 1848 : 				m_listItems.SetCurSel(i);				
; 1849 : 				strText = m_listItems.GetItemText(i, 0);
; 1850 : 				OutputDebugString(strText);
; 1851 : 				if(m_pChartMng->GetSafeHwnd() && strText.GetLength()) // 2005. 05. 13 by Nam
; 1852 : 				{
; 1853 : 					if(strOldText.GetLength())
; 1854 : 						m_pChartMng->SendMessage(UMSG_ADDCHARTBLOCK,(WPARAM)(LPCTSTR)strOldText);
; 1855 : 
; 1856 : 					m_pChartMng->SendMessage(UMSG_ADDCHARTBLOCK,(WPARAM)(LPCTSTR)strText);
; 1857 : 					strOldText = strText;
; 1858 : 				}
; 1859 : 			}
; 1860 : 		}
; 1861 : 	}
; 1862 : 	*/	
; 1863 : }

  00000	c2 04 00	 ret	 4
?Move_Selected_JipyoItem@CTabIndices@@QAEXH@Z ENDP	; CTabIndices::Move_Selected_JipyoItem
_TEXT	ENDS
; Function compile flags: /Ogtp
; File D:\git\src\IBK\IBK_DRFN\ProjSrc\SrcDrfn\Chart\MULTICHART\TabIndices.cpp
; File C:\Program Files (x86)\Microsoft Visual Studio\2019\Community\VC\Tools\MSVC\14.29.30133\atlmfc\include\afxcoll.inl
; File D:\git\src\IBK\IBK_DRFN\ProjSrc\SrcDrfn\Chart\MULTICHART\TabIndices.cpp
;	COMDAT ?ClearCheckJipyoList@CTabIndices@@QAEXXZ
_TEXT	SEGMENT
_p$ = -16						; size = 4
__$EHRec$ = -12						; size = 12
?ClearCheckJipyoList@CTabIndices@@QAEXXZ PROC		; CTabIndices::ClearCheckJipyoList, COMDAT
; _this$ = ecx

; 1866 : {	

  00000	55		 push	 ebp
  00001	8b ec		 mov	 ebp, esp
  00003	6a ff		 push	 -1
  00005	68 00 00 00 00	 push	 __ehhandler$?ClearCheckJipyoList@CTabIndices@@QAEXXZ
  0000a	64 a1 00 00 00
	00		 mov	 eax, DWORD PTR fs:0
  00010	50		 push	 eax
  00011	51		 push	 ecx
  00012	56		 push	 esi
  00013	57		 push	 edi
  00014	a1 00 00 00 00	 mov	 eax, DWORD PTR ___security_cookie
  00019	33 c5		 xor	 eax, ebp
  0001b	50		 push	 eax
  0001c	8d 45 f4	 lea	 eax, DWORD PTR __$EHRec$[ebp]
  0001f	64 a3 00 00 00
	00		 mov	 DWORD PTR fs:0, eax
  00025	8b f9		 mov	 edi, ecx

; 1867 : 	POSITION pos = NULL;
; 1868 : 	CString p;

  00027	8d 4d f0	 lea	 ecx, DWORD PTR _p$[ebp]
  0002a	ff 15 00 00 00
	00		 call	 DWORD PTR __imp_??0?$CStringT@DV?$StrTraitMFC_DLL@DV?$ChTraitsCRT@D@ATL@@@@@ATL@@QAE@XZ

; 1869 : 	while( (pos = m_listCheckedJipyo.GetHeadPosition()) != NULL)

  00030	8b b7 ec 00 00
	00		 mov	 esi, DWORD PTR [edi+236]
  00036	c7 45 fc 00 00
	00 00		 mov	 DWORD PTR __$EHRec$[ebp+8], 0
  0003d	85 f6		 test	 esi, esi
  0003f	74 3a		 je	 SHORT $LN3@ClearCheck
$LL2@ClearCheck:

; 1870 : 	{
; 1871 : 		p = _T("");

  00041	68 00 00 00 00	 push	 OFFSET ??_C@_00CNPNBAHC@@
  00046	8d 4d f0	 lea	 ecx, DWORD PTR _p$[ebp]
  00049	ff 15 00 00 00
	00		 call	 DWORD PTR __imp_??4?$CStringT@DV?$StrTraitMFC_DLL@DV?$ChTraitsCRT@D@ATL@@@@@ATL@@QAEAAV01@PBD@Z
; File C:\Program Files (x86)\Microsoft Visual Studio\2019\Community\VC\Tools\MSVC\14.29.30133\atlmfc\include\afxcoll.inl

; 533  : 		return pNode->data; }

  0004f	8d 46 08	 lea	 eax, DWORD PTR [esi+8]
; File D:\git\src\IBK\IBK_DRFN\ProjSrc\SrcDrfn\Chart\MULTICHART\TabIndices.cpp

; 1872 : 		p = m_listCheckedJipyo.GetAt(pos);

  00052	50		 push	 eax
  00053	8d 4d f0	 lea	 ecx, DWORD PTR _p$[ebp]
  00056	ff 15 00 00 00
	00		 call	 DWORD PTR __imp_??4?$CStringT@DV?$StrTraitMFC_DLL@DV?$ChTraitsCRT@D@ATL@@@@@ATL@@QAEAAV01@ABV01@@Z

; 1873 : 		if(p.GetLength())

  0005c	8b 45 f0	 mov	 eax, DWORD PTR _p$[ebp]
  0005f	83 78 f4 00	 cmp	 DWORD PTR [eax-12], 0
  00063	74 0c		 je	 SHORT $LN4@ClearCheck

; 1874 : 		{			
; 1875 : 			m_listCheckedJipyo.RemoveAt(pos);    

  00065	56		 push	 esi
  00066	8d 8f e8 00 00
	00		 lea	 ecx, DWORD PTR [edi+232]
  0006c	e8 00 00 00 00	 call	 ?RemoveAt@CStringList@@QAEXPAU__POSITION@@@Z ; CStringList::RemoveAt
$LN4@ClearCheck:

; 1869 : 	while( (pos = m_listCheckedJipyo.GetHeadPosition()) != NULL)

  00071	8b b7 ec 00 00
	00		 mov	 esi, DWORD PTR [edi+236]
  00077	85 f6		 test	 esi, esi
  00079	75 c6		 jne	 SHORT $LL2@ClearCheck
$LN3@ClearCheck:

; 1876 : 		}
; 1877 : 		//m_listCheckedJipyo.GetNext(pos);
; 1878 : 	}
; 1879 : 
; 1880 : 
; 1881 : /*	POSITION pos;	
; 1882 : 	CString* pa = NULL;
; 1883 : 	CString  strKey;	
; 1884 : 	
; 1885 : 	for(pos = m_listCheckedJipyo.GetHeadPosition(); pos != NULL;)
; 1886 : 	{
; 1887 : 		m_listCheckedJipyo.GetNextAssoc(pos, strKey, (void*&)pa);
; 1888 : 		delete pa;
; 1889 : 		pa = NULL;
; 1890 : 	}
; 1891 : 	m_listCheckedJipyo.RemoveAll();		
; 1892 : */
; 1893 : }

  0007b	8d 4d f0	 lea	 ecx, DWORD PTR _p$[ebp]
  0007e	ff 15 00 00 00
	00		 call	 DWORD PTR __imp_??1?$CStringT@DV?$StrTraitMFC_DLL@DV?$ChTraitsCRT@D@ATL@@@@@ATL@@QAE@XZ
  00084	8b 4d f4	 mov	 ecx, DWORD PTR __$EHRec$[ebp]
  00087	64 89 0d 00 00
	00 00		 mov	 DWORD PTR fs:0, ecx
  0008e	59		 pop	 ecx
  0008f	5f		 pop	 edi
  00090	5e		 pop	 esi
  00091	8b e5		 mov	 esp, ebp
  00093	5d		 pop	 ebp
  00094	c3		 ret	 0
_TEXT	ENDS
;	COMDAT text$x
text$x	SEGMENT
__unwindfunclet$?ClearCheckJipyoList@CTabIndices@@QAEXXZ$0:
  00000	8d 4d f0	 lea	 ecx, DWORD PTR _p$[ebp]
  00003	ff 25 00 00 00
	00		 jmp	 DWORD PTR __imp_??1?$CStringT@DV?$StrTraitMFC_DLL@DV?$ChTraitsCRT@D@ATL@@@@@ATL@@QAE@XZ
  00009	cc		 int	 3
  0000a	cc		 int	 3
  0000b	cc		 int	 3
  0000c	cc		 int	 3
  0000d	cc		 int	 3
__ehhandler$?ClearCheckJipyoList@CTabIndices@@QAEXXZ:
  0000e	90		 npad	 1
  0000f	90		 npad	 1
  00010	8b 54 24 08	 mov	 edx, DWORD PTR [esp+8]
  00014	8d 42 0c	 lea	 eax, DWORD PTR [edx+12]
  00017	8b 4a f0	 mov	 ecx, DWORD PTR [edx-16]
  0001a	33 c8		 xor	 ecx, eax
  0001c	e8 00 00 00 00	 call	 @__security_check_cookie@4
  00021	b8 00 00 00 00	 mov	 eax, OFFSET __ehfuncinfo$?ClearCheckJipyoList@CTabIndices@@QAEXXZ
  00026	e9 00 00 00 00	 jmp	 ___CxxFrameHandler3
text$x	ENDS
?ClearCheckJipyoList@CTabIndices@@QAEXXZ ENDP		; CTabIndices::ClearCheckJipyoList
; Function compile flags: /Ogtp
; File D:\git\src\IBK\IBK_DRFN\ProjSrc\SrcDrfn\Chart\MULTICHART\TabIndices.cpp
; File C:\Program Files (x86)\Microsoft Visual Studio\2019\Community\VC\Tools\MSVC\14.29.30133\atlmfc\include\afxcoll.inl
; File D:\git\src\IBK\IBK_DRFN\ProjSrc\SrcDrfn\Chart\MULTICHART\TabIndices.cpp
; File C:\Program Files (x86)\Microsoft Visual Studio\2019\Community\VC\Tools\MSVC\14.29.30133\atlmfc\include\atlsimpstr.h
; File D:\git\src\IBK\IBK_DRFN\ProjSrc\SrcDrfn\Chart\MULTICHART\TabIndices.cpp
; File C:\Program Files (x86)\Microsoft Visual Studio\2019\Community\VC\Tools\MSVC\14.29.30133\atlmfc\include\afxcmn.inl
; File D:\git\src\IBK\IBK_DRFN\ProjSrc\SrcDrfn\Chart\MULTICHART\TabIndices.cpp
; File C:\Program Files (x86)\Microsoft Visual Studio\2019\Community\VC\Tools\MSVC\14.29.30133\atlmfc\include\afxcmn.inl
; File D:\git\src\IBK\IBK_DRFN\ProjSrc\SrcDrfn\Chart\MULTICHART\TabIndices.cpp
; File C:\Program Files (x86)\Microsoft Visual Studio\2019\Community\VC\Tools\MSVC\14.29.30133\atlmfc\include\afxcmn.inl
; File D:\git\src\IBK\IBK_DRFN\ProjSrc\SrcDrfn\Chart\MULTICHART\TabIndices.cpp
; File C:\Program Files (x86)\Microsoft Visual Studio\2019\Community\VC\Tools\MSVC\14.29.30133\atlmfc\include\afxcmn.inl
; File D:\git\src\IBK\IBK_DRFN\ProjSrc\SrcDrfn\Chart\MULTICHART\TabIndices.cpp
;	COMDAT ?MakeCheckedJipyoList@CTabIndices@@QAEXXZ
_TEXT	SEGMENT
_sValue$2 = -20						; size = 4
_p$3 = -16						; size = 4
_sKey$4 = -16						; size = 4
__$EHRec$ = -12						; size = 12
?MakeCheckedJipyoList@CTabIndices@@QAEXXZ PROC		; CTabIndices::MakeCheckedJipyoList, COMDAT
; _this$ = ecx

; 1896 : {

  00000	55		 push	 ebp
  00001	8b ec		 mov	 ebp, esp
  00003	6a ff		 push	 -1
  00005	68 00 00 00 00	 push	 __ehhandler$?MakeCheckedJipyoList@CTabIndices@@QAEXXZ
  0000a	64 a1 00 00 00
	00		 mov	 eax, DWORD PTR fs:0
  00010	50		 push	 eax
  00011	83 ec 08	 sub	 esp, 8
  00014	53		 push	 ebx
  00015	56		 push	 esi
  00016	57		 push	 edi
  00017	a1 00 00 00 00	 mov	 eax, DWORD PTR ___security_cookie
  0001c	33 c5		 xor	 eax, ebp
  0001e	50		 push	 eax
  0001f	8d 45 f4	 lea	 eax, DWORD PTR __$EHRec$[ebp]
  00022	64 a3 00 00 00
	00		 mov	 DWORD PTR fs:0, eax
  00028	8b f9		 mov	 edi, ecx

; 1868 : 	CString p;

  0002a	8d 4d f0	 lea	 ecx, DWORD PTR _p$3[ebp]
  0002d	ff 15 00 00 00
	00		 call	 DWORD PTR __imp_??0?$CStringT@DV?$StrTraitMFC_DLL@DV?$ChTraitsCRT@D@ATL@@@@@ATL@@QAE@XZ

; 1869 : 	while( (pos = m_listCheckedJipyo.GetHeadPosition()) != NULL)

  00033	8b b7 ec 00 00
	00		 mov	 esi, DWORD PTR [edi+236]
  00039	c7 45 fc 00 00
	00 00		 mov	 DWORD PTR __$EHRec$[ebp+8], 0
  00040	85 f6		 test	 esi, esi
  00042	74 46		 je	 SHORT $LN11@MakeChecke
  00044	0f 1f 40 00 0f
	1f 84 00 00 00
	00 00		 npad	 12
$LL10@MakeChecke:

; 1870 : 	{
; 1871 : 		p = _T("");

  00050	68 00 00 00 00	 push	 OFFSET ??_C@_00CNPNBAHC@@
  00055	8d 4d f0	 lea	 ecx, DWORD PTR _p$3[ebp]
  00058	ff 15 00 00 00
	00		 call	 DWORD PTR __imp_??4?$CStringT@DV?$StrTraitMFC_DLL@DV?$ChTraitsCRT@D@ATL@@@@@ATL@@QAEAAV01@PBD@Z
; File C:\Program Files (x86)\Microsoft Visual Studio\2019\Community\VC\Tools\MSVC\14.29.30133\atlmfc\include\afxcoll.inl

; 533  : 		return pNode->data; }

  0005e	8d 46 08	 lea	 eax, DWORD PTR [esi+8]
; File D:\git\src\IBK\IBK_DRFN\ProjSrc\SrcDrfn\Chart\MULTICHART\TabIndices.cpp

; 1872 : 		p = m_listCheckedJipyo.GetAt(pos);

  00061	50		 push	 eax
  00062	8d 4d f0	 lea	 ecx, DWORD PTR _p$3[ebp]
  00065	ff 15 00 00 00
	00		 call	 DWORD PTR __imp_??4?$CStringT@DV?$StrTraitMFC_DLL@DV?$ChTraitsCRT@D@ATL@@@@@ATL@@QAEAAV01@ABV01@@Z
; File C:\Program Files (x86)\Microsoft Visual Studio\2019\Community\VC\Tools\MSVC\14.29.30133\atlmfc\include\atlsimpstr.h

; 519  : 		return( GetData()->nDataLength );

  0006b	8b 45 f0	 mov	 eax, DWORD PTR _p$3[ebp]
; File D:\git\src\IBK\IBK_DRFN\ProjSrc\SrcDrfn\Chart\MULTICHART\TabIndices.cpp

; 1873 : 		if(p.GetLength())

  0006e	83 78 f4 00	 cmp	 DWORD PTR [eax-12], 0
  00072	74 0c		 je	 SHORT $LN32@MakeChecke

; 1874 : 		{			
; 1875 : 			m_listCheckedJipyo.RemoveAt(pos);    

  00074	56		 push	 esi
  00075	8d 8f e8 00 00
	00		 lea	 ecx, DWORD PTR [edi+232]
  0007b	e8 00 00 00 00	 call	 ?RemoveAt@CStringList@@QAEXPAU__POSITION@@@Z ; CStringList::RemoveAt
$LN32@MakeChecke:

; 1869 : 	while( (pos = m_listCheckedJipyo.GetHeadPosition()) != NULL)

  00080	8b b7 ec 00 00
	00		 mov	 esi, DWORD PTR [edi+236]
  00086	85 f6		 test	 esi, esi
  00088	75 c6		 jne	 SHORT $LL10@MakeChecke
$LN11@MakeChecke:

; 1876 : 		}
; 1877 : 		//m_listCheckedJipyo.GetNext(pos);
; 1878 : 	}
; 1879 : 
; 1880 : 
; 1881 : /*	POSITION pos;	
; 1882 : 	CString* pa = NULL;
; 1883 : 	CString  strKey;	
; 1884 : 	
; 1885 : 	for(pos = m_listCheckedJipyo.GetHeadPosition(); pos != NULL;)
; 1886 : 	{
; 1887 : 		m_listCheckedJipyo.GetNextAssoc(pos, strKey, (void*&)pa);
; 1888 : 		delete pa;
; 1889 : 		pa = NULL;
; 1890 : 	}
; 1891 : 	m_listCheckedJipyo.RemoveAll();		
; 1892 : */
; 1893 : }

  0008a	8d 4d f0	 lea	 ecx, DWORD PTR _p$3[ebp]
  0008d	c7 45 fc ff ff
	ff ff		 mov	 DWORD PTR __$EHRec$[ebp+8], -1
  00094	ff 15 00 00 00
	00		 call	 DWORD PTR __imp_??1?$CStringT@DV?$StrTraitMFC_DLL@DV?$ChTraitsCRT@D@ATL@@@@@ATL@@QAE@XZ
; File C:\Program Files (x86)\Microsoft Visual Studio\2019\Community\VC\Tools\MSVC\14.29.30133\atlmfc\include\afxcmn.inl

; 155  : 	{ ASSERT(::IsWindow(m_hWnd)); return (int) ::SendMessage(m_hWnd, LVM_GETITEMCOUNT, 0, 0L); }

  0009a	8b 1d 00 00 00
	00		 mov	 ebx, DWORD PTR __imp__SendMessageA@16
; File D:\git\src\IBK\IBK_DRFN\ProjSrc\SrcDrfn\Chart\MULTICHART\TabIndices.cpp

; 1898 : 	for(int i = 0; i < m_listItems.GetItemCount(); i++)

  000a0	33 f6		 xor	 esi, esi
; File C:\Program Files (x86)\Microsoft Visual Studio\2019\Community\VC\Tools\MSVC\14.29.30133\atlmfc\include\afxcmn.inl

; 155  : 	{ ASSERT(::IsWindow(m_hWnd)); return (int) ::SendMessage(m_hWnd, LVM_GETITEMCOUNT, 0, 0L); }

  000a2	56		 push	 esi
  000a3	56		 push	 esi
  000a4	68 04 10 00 00	 push	 4100			; 00001004H
  000a9	ff b7 f8 01 00
	00		 push	 DWORD PTR [edi+504]
  000af	ff d3		 call	 ebx
; File D:\git\src\IBK\IBK_DRFN\ProjSrc\SrcDrfn\Chart\MULTICHART\TabIndices.cpp

; 1898 : 	for(int i = 0; i < m_listItems.GetItemCount(); i++)

  000b1	85 c0		 test	 eax, eax
  000b3	0f 8e 8d 00 00
	00		 jle	 $LN3@MakeChecke
  000b9	8d 87 d8 01 00
	00		 lea	 eax, DWORD PTR [edi+472]
  000bf	90		 npad	 1
$LL4@MakeChecke:

; 1899 : 	{			
; 1900 : 		if(m_listItems.GetCheckbox(i, 0))

  000c0	6a 00		 push	 0
  000c2	56		 push	 esi
  000c3	8b c8		 mov	 ecx, eax
  000c5	e8 00 00 00 00	 call	 ?GetCheckbox@CXListCtrl@@QAEHHH@Z ; CXListCtrl::GetCheckbox
  000ca	85 c0		 test	 eax, eax
  000cc	74 58		 je	 SHORT $LN2@MakeChecke

; 1901 : 		{
; 1902 : 			CString sKey, sValue;

  000ce	8d 4d f0	 lea	 ecx, DWORD PTR _sKey$4[ebp]
  000d1	ff 15 00 00 00
	00		 call	 DWORD PTR __imp_??0?$CStringT@DV?$StrTraitMFC_DLL@DV?$ChTraitsCRT@D@ATL@@@@@ATL@@QAE@XZ
  000d7	8d 4d ec	 lea	 ecx, DWORD PTR _sValue$2[ebp]
  000da	c7 45 fc 01 00
	00 00		 mov	 DWORD PTR __$EHRec$[ebp+8], 1
  000e1	ff 15 00 00 00
	00		 call	 DWORD PTR __imp_??0?$CStringT@DV?$StrTraitMFC_DLL@DV?$ChTraitsCRT@D@ATL@@@@@ATL@@QAE@XZ

; 1903 : 			sKey.Format("%d", i);			

  000e7	56		 push	 esi
  000e8	8d 45 f0	 lea	 eax, DWORD PTR _sKey$4[ebp]
  000eb	c6 45 fc 02	 mov	 BYTE PTR __$EHRec$[ebp+8], 2
  000ef	68 00 00 00 00	 push	 OFFSET ??_C@_02DPKJAMEF@?$CFd@
  000f4	50		 push	 eax
  000f5	ff 15 00 00 00
	00		 call	 DWORD PTR __imp_?Format@?$CStringT@DV?$StrTraitMFC_DLL@DV?$ChTraitsCRT@D@ATL@@@@@ATL@@QAAXPBDZZ
  000fb	83 c4 0c	 add	 esp, 12			; 0000000cH

; 1904 : 			m_listCheckedJipyo.AddTail(sKey);			

  000fe	8d 45 f0	 lea	 eax, DWORD PTR _sKey$4[ebp]
  00101	8d 8f e8 00 00
	00		 lea	 ecx, DWORD PTR [edi+232]
  00107	50		 push	 eax
  00108	e8 00 00 00 00	 call	 ?AddTail@CStringList@@QAEPAU__POSITION@@ABV?$CStringT@DV?$StrTraitMFC_DLL@DV?$ChTraitsCRT@D@ATL@@@@@ATL@@@Z ; CStringList::AddTail

; 1905 : 		}

  0010d	8d 4d ec	 lea	 ecx, DWORD PTR _sValue$2[ebp]
  00110	ff 15 00 00 00
	00		 call	 DWORD PTR __imp_??1?$CStringT@DV?$StrTraitMFC_DLL@DV?$ChTraitsCRT@D@ATL@@@@@ATL@@QAE@XZ
  00116	8d 4d f0	 lea	 ecx, DWORD PTR _sKey$4[ebp]
  00119	c7 45 fc ff ff
	ff ff		 mov	 DWORD PTR __$EHRec$[ebp+8], -1
  00120	ff 15 00 00 00
	00		 call	 DWORD PTR __imp_??1?$CStringT@DV?$StrTraitMFC_DLL@DV?$ChTraitsCRT@D@ATL@@@@@ATL@@QAE@XZ
$LN2@MakeChecke:
; File C:\Program Files (x86)\Microsoft Visual Studio\2019\Community\VC\Tools\MSVC\14.29.30133\atlmfc\include\afxcmn.inl

; 155  : 	{ ASSERT(::IsWindow(m_hWnd)); return (int) ::SendMessage(m_hWnd, LVM_GETITEMCOUNT, 0, 0L); }

  00126	6a 00		 push	 0
  00128	6a 00		 push	 0
  0012a	68 04 10 00 00	 push	 4100			; 00001004H
  0012f	ff b7 f8 01 00
	00		 push	 DWORD PTR [edi+504]
; File D:\git\src\IBK\IBK_DRFN\ProjSrc\SrcDrfn\Chart\MULTICHART\TabIndices.cpp

; 1898 : 	for(int i = 0; i < m_listItems.GetItemCount(); i++)

  00135	46		 inc	 esi
; File C:\Program Files (x86)\Microsoft Visual Studio\2019\Community\VC\Tools\MSVC\14.29.30133\atlmfc\include\afxcmn.inl

; 155  : 	{ ASSERT(::IsWindow(m_hWnd)); return (int) ::SendMessage(m_hWnd, LVM_GETITEMCOUNT, 0, 0L); }

  00136	ff d3		 call	 ebx
; File D:\git\src\IBK\IBK_DRFN\ProjSrc\SrcDrfn\Chart\MULTICHART\TabIndices.cpp

; 1898 : 	for(int i = 0; i < m_listItems.GetItemCount(); i++)

  00138	3b f0		 cmp	 esi, eax
  0013a	8d 87 d8 01 00
	00		 lea	 eax, DWORD PTR [edi+472]
  00140	0f 8c 7a ff ff
	ff		 jl	 $LL4@MakeChecke
$LN3@MakeChecke:

; 1906 : 	}
; 1907 : }

  00146	8b 4d f4	 mov	 ecx, DWORD PTR __$EHRec$[ebp]
  00149	64 89 0d 00 00
	00 00		 mov	 DWORD PTR fs:0, ecx
  00150	59		 pop	 ecx
  00151	5f		 pop	 edi
  00152	5e		 pop	 esi
  00153	5b		 pop	 ebx
  00154	8b e5		 mov	 esp, ebp
  00156	5d		 pop	 ebp
  00157	c3		 ret	 0
_TEXT	ENDS
;	COMDAT text$x
text$x	SEGMENT
__unwindfunclet$?MakeCheckedJipyoList@CTabIndices@@QAEXXZ$2:
  00000	8d 4d f0	 lea	 ecx, DWORD PTR _p$3[ebp]
  00003	ff 25 00 00 00
	00		 jmp	 DWORD PTR __imp_??1?$CStringT@DV?$StrTraitMFC_DLL@DV?$ChTraitsCRT@D@ATL@@@@@ATL@@QAE@XZ
__unwindfunclet$?MakeCheckedJipyoList@CTabIndices@@QAEXXZ$0:
  00009	8d 4d f0	 lea	 ecx, DWORD PTR _sKey$4[ebp]
  0000c	ff 25 00 00 00
	00		 jmp	 DWORD PTR __imp_??1?$CStringT@DV?$StrTraitMFC_DLL@DV?$ChTraitsCRT@D@ATL@@@@@ATL@@QAE@XZ
__unwindfunclet$?MakeCheckedJipyoList@CTabIndices@@QAEXXZ$1:
  00012	8d 4d ec	 lea	 ecx, DWORD PTR _sValue$2[ebp]
  00015	ff 25 00 00 00
	00		 jmp	 DWORD PTR __imp_??1?$CStringT@DV?$StrTraitMFC_DLL@DV?$ChTraitsCRT@D@ATL@@@@@ATL@@QAE@XZ
  0001b	cc		 int	 3
  0001c	cc		 int	 3
  0001d	cc		 int	 3
  0001e	cc		 int	 3
  0001f	cc		 int	 3
__ehhandler$?MakeCheckedJipyoList@CTabIndices@@QAEXXZ:
  00020	90		 npad	 1
  00021	90		 npad	 1
  00022	8b 54 24 08	 mov	 edx, DWORD PTR [esp+8]
  00026	8d 42 0c	 lea	 eax, DWORD PTR [edx+12]
  00029	8b 4a e8	 mov	 ecx, DWORD PTR [edx-24]
  0002c	33 c8		 xor	 ecx, eax
  0002e	e8 00 00 00 00	 call	 @__security_check_cookie@4
  00033	b8 00 00 00 00	 mov	 eax, OFFSET __ehfuncinfo$?MakeCheckedJipyoList@CTabIndices@@QAEXXZ
  00038	e9 00 00 00 00	 jmp	 ___CxxFrameHandler3
text$x	ENDS
?MakeCheckedJipyoList@CTabIndices@@QAEXXZ ENDP		; CTabIndices::MakeCheckedJipyoList
; Function compile flags: /Ogtp
; File D:\git\src\IBK\IBK_DRFN\ProjSrc\SrcDrfn\Chart\MULTICHART\TabIndices.cpp
; File C:\Program Files (x86)\Microsoft Visual Studio\2019\Community\VC\Tools\MSVC\14.29.30133\atlmfc\include\afxcoll.inl
; File D:\git\src\IBK\IBK_DRFN\ProjSrc\SrcDrfn\Chart\MULTICHART\TabIndices.cpp
; File C:\Program Files (x86)\Microsoft Visual Studio\2019\Community\VC\Tools\MSVC\14.29.30133\atlmfc\include\afxcoll.inl
; File D:\git\src\IBK\IBK_DRFN\ProjSrc\SrcDrfn\Chart\MULTICHART\TabIndices.cpp
; File C:\Program Files (x86)\Microsoft Visual Studio\2019\Community\VC\Tools\MSVC\14.29.30133\atlmfc\include\afxcoll.inl
; File D:\git\src\IBK\IBK_DRFN\ProjSrc\SrcDrfn\Chart\MULTICHART\TabIndices.cpp
; File C:\Program Files (x86)\Microsoft Visual Studio\2019\Community\VC\Tools\MSVC\14.29.30133\atlmfc\include\afxcoll.inl
; File D:\git\src\IBK\IBK_DRFN\ProjSrc\SrcDrfn\Chart\MULTICHART\TabIndices.cpp
;	COMDAT ?LookUpStartIndex@CTabIndices@@QAEHH@Z
_TEXT	SEGMENT
_p$2 = -16						; size = 4
_p$3 = -16						; size = 4
__$EHRec$ = -12						; size = 12
$T4 = 8							; size = 4
$T5 = 8							; size = 4
_nSelIndex$ = 8						; size = 4
?LookUpStartIndex@CTabIndices@@QAEHH@Z PROC		; CTabIndices::LookUpStartIndex, COMDAT
; _this$ = ecx

; 1911 : {

  00000	55		 push	 ebp
  00001	8b ec		 mov	 ebp, esp
  00003	6a ff		 push	 -1
  00005	68 00 00 00 00	 push	 __ehhandler$?LookUpStartIndex@CTabIndices@@QAEHH@Z
  0000a	64 a1 00 00 00
	00		 mov	 eax, DWORD PTR fs:0
  00010	50		 push	 eax
  00011	51		 push	 ecx
  00012	53		 push	 ebx
  00013	56		 push	 esi
  00014	57		 push	 edi
  00015	a1 00 00 00 00	 mov	 eax, DWORD PTR ___security_cookie
  0001a	33 c5		 xor	 eax, ebp
  0001c	50		 push	 eax
  0001d	8d 45 f4	 lea	 eax, DWORD PTR __$EHRec$[ebp]
  00020	64 a3 00 00 00
	00		 mov	 DWORD PTR fs:0, eax

; 1912 : 	if(m_bBack)

  00026	83 b9 ec 03 00
	00 00		 cmp	 DWORD PTR [ecx+1004], 0
  0002d	0f 84 a1 00 00
	00		 je	 $LN6@LookUpStar

; 1913 : 	{
; 1914 : 		POSITION pos = m_listCheckedJipyo.GetTailPosition();

  00033	8b b1 f0 00 00
	00		 mov	 esi, DWORD PTR [ecx+240]

; 1915 : 		CString p;

  00039	8d 4d f0	 lea	 ecx, DWORD PTR _p$3[ebp]
  0003c	ff 15 00 00 00
	00		 call	 DWORD PTR __imp_??0?$CStringT@DV?$StrTraitMFC_DLL@DV?$ChTraitsCRT@D@ATL@@@@@ATL@@QAE@XZ
  00042	c7 45 fc 00 00
	00 00		 mov	 DWORD PTR __$EHRec$[ebp+8], 0

; 1916 : 		while( pos != NULL )

  00049	85 f6		 test	 esi, esi
  0004b	74 67		 je	 SHORT $LN61@LookUpStar
  0004d	8b 5d 08	 mov	 ebx, DWORD PTR _nSelIndex$[ebp]
  00050	8b 3d 00 00 00
	00		 mov	 edi, DWORD PTR __imp__atoi
  00056	66 66 0f 1f 84
	00 00 00 00 00	 npad	 10
$LL2@LookUpStar:

; 1917 : 		{
; 1918 : 			p = _T("");

  00060	68 00 00 00 00	 push	 OFFSET ??_C@_00CNPNBAHC@@
  00065	8d 4d f0	 lea	 ecx, DWORD PTR _p$3[ebp]
  00068	ff 15 00 00 00
	00		 call	 DWORD PTR __imp_??4?$CStringT@DV?$StrTraitMFC_DLL@DV?$ChTraitsCRT@D@ATL@@@@@ATL@@QAEAAV01@PBD@Z
; File C:\Program Files (x86)\Microsoft Visual Studio\2019\Community\VC\Tools\MSVC\14.29.30133\atlmfc\include\afxcoll.inl

; 533  : 		return pNode->data; }

  0006e	8d 46 08	 lea	 eax, DWORD PTR [esi+8]
; File D:\git\src\IBK\IBK_DRFN\ProjSrc\SrcDrfn\Chart\MULTICHART\TabIndices.cpp

; 1919 : 			p = (CString)m_listCheckedJipyo.GetAt(pos);

  00071	50		 push	 eax
  00072	8d 4d 08	 lea	 ecx, DWORD PTR $T5[ebp]
  00075	ff 15 00 00 00
	00		 call	 DWORD PTR __imp_??0?$CStringT@DV?$StrTraitMFC_DLL@DV?$ChTraitsCRT@D@ATL@@@@@ATL@@QAE@ABV01@@Z
  0007b	50		 push	 eax
  0007c	8d 4d f0	 lea	 ecx, DWORD PTR _p$3[ebp]
  0007f	c6 45 fc 01	 mov	 BYTE PTR __$EHRec$[ebp+8], 1
  00083	ff 15 00 00 00
	00		 call	 DWORD PTR __imp_??4?$CStringT@DV?$StrTraitMFC_DLL@DV?$ChTraitsCRT@D@ATL@@@@@ATL@@QAEAAV01@ABV01@@Z
  00089	8d 4d 08	 lea	 ecx, DWORD PTR $T5[ebp]
  0008c	c6 45 fc 00	 mov	 BYTE PTR __$EHRec$[ebp+8], 0
  00090	ff 15 00 00 00
	00		 call	 DWORD PTR __imp_??1?$CStringT@DV?$StrTraitMFC_DLL@DV?$ChTraitsCRT@D@ATL@@@@@ATL@@QAE@XZ

; 1920 : 			if(p.GetLength())

  00096	8b 45 f0	 mov	 eax, DWORD PTR _p$3[ebp]
  00099	83 78 f4 00	 cmp	 DWORD PTR [eax-12], 0
  0009d	74 0e		 je	 SHORT $LN9@LookUpStar

; 1921 : 			{			
; 1922 : 				if(atoi(p) <= nSelIndex)

  0009f	50		 push	 eax
  000a0	ff d7		 call	 edi
  000a2	83 c4 04	 add	 esp, 4
  000a5	3b c3		 cmp	 eax, ebx
  000a7	0f 8e a7 00 00
	00		 jle	 $LN52@LookUpStar
$LN9@LookUpStar:
; File C:\Program Files (x86)\Microsoft Visual Studio\2019\Community\VC\Tools\MSVC\14.29.30133\atlmfc\include\afxcoll.inl

; 519  : 		rPosition = (POSITION) pNode->pPrev;

  000ad	8b 76 04	 mov	 esi, DWORD PTR [esi+4]
; File D:\git\src\IBK\IBK_DRFN\ProjSrc\SrcDrfn\Chart\MULTICHART\TabIndices.cpp

; 1916 : 		while( pos != NULL )

  000b0	85 f6		 test	 esi, esi
  000b2	75 ac		 jne	 SHORT $LL2@LookUpStar
$LN61@LookUpStar:

; 1939 : 					return atoi(p);				
; 1940 : 			}
; 1941 : 			m_listCheckedJipyo.GetNext(pos);
; 1942 : 		}
; 1943 : 	}
; 1944 : 
; 1945 : 	return -1;	

  000b4	8d 4d f0	 lea	 ecx, DWORD PTR _p$2[ebp]
  000b7	ff 15 00 00 00
	00		 call	 DWORD PTR __imp_??1?$CStringT@DV?$StrTraitMFC_DLL@DV?$ChTraitsCRT@D@ATL@@@@@ATL@@QAE@XZ
  000bd	83 c8 ff	 or	 eax, -1

; 1946 : }

  000c0	8b 4d f4	 mov	 ecx, DWORD PTR __$EHRec$[ebp]
  000c3	64 89 0d 00 00
	00 00		 mov	 DWORD PTR fs:0, ecx
  000ca	59		 pop	 ecx
  000cb	5f		 pop	 edi
  000cc	5e		 pop	 esi
  000cd	5b		 pop	 ebx
  000ce	8b e5		 mov	 esp, ebp
  000d0	5d		 pop	 ebp
  000d1	c2 04 00	 ret	 4
$LN6@LookUpStar:

; 1923 : 					return atoi(p);			
; 1924 : 			}
; 1925 : 			m_listCheckedJipyo.GetPrev(pos);
; 1926 : 		}		
; 1927 : 	}
; 1928 : 	else
; 1929 : 	{
; 1930 : 		POSITION pos = m_listCheckedJipyo.GetHeadPosition();

  000d4	8b b1 ec 00 00
	00		 mov	 esi, DWORD PTR [ecx+236]

; 1931 : 		CString p;

  000da	8d 4d f0	 lea	 ecx, DWORD PTR _p$2[ebp]
  000dd	ff 15 00 00 00
	00		 call	 DWORD PTR __imp_??0?$CStringT@DV?$StrTraitMFC_DLL@DV?$ChTraitsCRT@D@ATL@@@@@ATL@@QAE@XZ
  000e3	c7 45 fc 02 00
	00 00		 mov	 DWORD PTR __$EHRec$[ebp+8], 2

; 1932 : 		while( pos != NULL )

  000ea	85 f6		 test	 esi, esi
  000ec	74 c6		 je	 SHORT $LN61@LookUpStar
  000ee	8b 5d 08	 mov	 ebx, DWORD PTR _nSelIndex$[ebp]
  000f1	8b 3d 00 00 00
	00		 mov	 edi, DWORD PTR __imp__atoi
  000f7	66 0f 1f 84 00
	00 00 00 00	 npad	 9
$LL4@LookUpStar:

; 1933 : 		{
; 1934 : 			p = _T("");

  00100	68 00 00 00 00	 push	 OFFSET ??_C@_00CNPNBAHC@@
  00105	8d 4d f0	 lea	 ecx, DWORD PTR _p$2[ebp]
  00108	ff 15 00 00 00
	00		 call	 DWORD PTR __imp_??4?$CStringT@DV?$StrTraitMFC_DLL@DV?$ChTraitsCRT@D@ATL@@@@@ATL@@QAEAAV01@PBD@Z
; File C:\Program Files (x86)\Microsoft Visual Studio\2019\Community\VC\Tools\MSVC\14.29.30133\atlmfc\include\afxcoll.inl

; 533  : 		return pNode->data; }

  0010e	8d 46 08	 lea	 eax, DWORD PTR [esi+8]
; File D:\git\src\IBK\IBK_DRFN\ProjSrc\SrcDrfn\Chart\MULTICHART\TabIndices.cpp

; 1935 : 			p = (CString)m_listCheckedJipyo.GetAt(pos);

  00111	50		 push	 eax
  00112	8d 4d 08	 lea	 ecx, DWORD PTR $T4[ebp]
  00115	ff 15 00 00 00
	00		 call	 DWORD PTR __imp_??0?$CStringT@DV?$StrTraitMFC_DLL@DV?$ChTraitsCRT@D@ATL@@@@@ATL@@QAE@ABV01@@Z
  0011b	50		 push	 eax
  0011c	8d 4d f0	 lea	 ecx, DWORD PTR _p$2[ebp]
  0011f	c6 45 fc 03	 mov	 BYTE PTR __$EHRec$[ebp+8], 3
  00123	ff 15 00 00 00
	00		 call	 DWORD PTR __imp_??4?$CStringT@DV?$StrTraitMFC_DLL@DV?$ChTraitsCRT@D@ATL@@@@@ATL@@QAEAAV01@ABV01@@Z
  00129	8d 4d 08	 lea	 ecx, DWORD PTR $T4[ebp]
  0012c	c6 45 fc 02	 mov	 BYTE PTR __$EHRec$[ebp+8], 2
  00130	ff 15 00 00 00
	00		 call	 DWORD PTR __imp_??1?$CStringT@DV?$StrTraitMFC_DLL@DV?$ChTraitsCRT@D@ATL@@@@@ATL@@QAE@XZ

; 1936 : 			if(p.GetLength())

  00136	8b 45 f0	 mov	 eax, DWORD PTR _p$2[ebp]
  00139	83 78 f4 00	 cmp	 DWORD PTR [eax-12], 0
  0013d	74 0a		 je	 SHORT $LN11@LookUpStar

; 1937 : 			{					
; 1938 : 				if(atoi(p) >= nSelIndex)

  0013f	50		 push	 eax
  00140	ff d7		 call	 edi
  00142	83 c4 04	 add	 esp, 4
  00145	3b c3		 cmp	 eax, ebx
  00147	7d 0b		 jge	 SHORT $LN52@LookUpStar
$LN11@LookUpStar:
; File C:\Program Files (x86)\Microsoft Visual Studio\2019\Community\VC\Tools\MSVC\14.29.30133\atlmfc\include\afxcoll.inl

; 505  : 		rPosition = (POSITION) pNode->pNext;

  00149	8b 36		 mov	 esi, DWORD PTR [esi]
; File D:\git\src\IBK\IBK_DRFN\ProjSrc\SrcDrfn\Chart\MULTICHART\TabIndices.cpp

; 1932 : 		while( pos != NULL )

  0014b	85 f6		 test	 esi, esi
  0014d	75 b1		 jne	 SHORT $LL4@LookUpStar
  0014f	e9 60 ff ff ff	 jmp	 $LN61@LookUpStar
$LN52@LookUpStar:

; 1939 : 					return atoi(p);				
; 1940 : 			}
; 1941 : 			m_listCheckedJipyo.GetNext(pos);
; 1942 : 		}
; 1943 : 	}
; 1944 : 
; 1945 : 	return -1;	

  00154	ff 75 f0	 push	 DWORD PTR _p$2[ebp]
  00157	ff d7		 call	 edi
  00159	83 c4 04	 add	 esp, 4
  0015c	8d 4d f0	 lea	 ecx, DWORD PTR _p$2[ebp]
  0015f	8b f0		 mov	 esi, eax
  00161	ff 15 00 00 00
	00		 call	 DWORD PTR __imp_??1?$CStringT@DV?$StrTraitMFC_DLL@DV?$ChTraitsCRT@D@ATL@@@@@ATL@@QAE@XZ
  00167	8b c6		 mov	 eax, esi

; 1946 : }

  00169	8b 4d f4	 mov	 ecx, DWORD PTR __$EHRec$[ebp]
  0016c	64 89 0d 00 00
	00 00		 mov	 DWORD PTR fs:0, ecx
  00173	59		 pop	 ecx
  00174	5f		 pop	 edi
  00175	5e		 pop	 esi
  00176	5b		 pop	 ebx
  00177	8b e5		 mov	 esp, ebp
  00179	5d		 pop	 ebp
  0017a	c2 04 00	 ret	 4
_TEXT	ENDS
;	COMDAT text$x
text$x	SEGMENT
__unwindfunclet$?LookUpStartIndex@CTabIndices@@QAEHH@Z$0:
  00000	8d 4d f0	 lea	 ecx, DWORD PTR _p$3[ebp]
  00003	ff 25 00 00 00
	00		 jmp	 DWORD PTR __imp_??1?$CStringT@DV?$StrTraitMFC_DLL@DV?$ChTraitsCRT@D@ATL@@@@@ATL@@QAE@XZ
__unwindfunclet$?LookUpStartIndex@CTabIndices@@QAEHH@Z$1:
  00009	8d 4d 08	 lea	 ecx, DWORD PTR $T5[ebp]
  0000c	ff 25 00 00 00
	00		 jmp	 DWORD PTR __imp_??1?$CStringT@DV?$StrTraitMFC_DLL@DV?$ChTraitsCRT@D@ATL@@@@@ATL@@QAE@XZ
__unwindfunclet$?LookUpStartIndex@CTabIndices@@QAEHH@Z$2:
  00012	8d 4d f0	 lea	 ecx, DWORD PTR _p$2[ebp]
  00015	ff 25 00 00 00
	00		 jmp	 DWORD PTR __imp_??1?$CStringT@DV?$StrTraitMFC_DLL@DV?$ChTraitsCRT@D@ATL@@@@@ATL@@QAE@XZ
__unwindfunclet$?LookUpStartIndex@CTabIndices@@QAEHH@Z$3:
  0001b	8d 4d 08	 lea	 ecx, DWORD PTR $T4[ebp]
  0001e	ff 25 00 00 00
	00		 jmp	 DWORD PTR __imp_??1?$CStringT@DV?$StrTraitMFC_DLL@DV?$ChTraitsCRT@D@ATL@@@@@ATL@@QAE@XZ
  00024	cc		 int	 3
  00025	cc		 int	 3
  00026	cc		 int	 3
  00027	cc		 int	 3
  00028	cc		 int	 3
__ehhandler$?LookUpStartIndex@CTabIndices@@QAEHH@Z:
  00029	90		 npad	 1
  0002a	90		 npad	 1
  0002b	8b 54 24 08	 mov	 edx, DWORD PTR [esp+8]
  0002f	8d 42 0c	 lea	 eax, DWORD PTR [edx+12]
  00032	8b 4a ec	 mov	 ecx, DWORD PTR [edx-20]
  00035	33 c8		 xor	 ecx, eax
  00037	e8 00 00 00 00	 call	 @__security_check_cookie@4
  0003c	b8 00 00 00 00	 mov	 eax, OFFSET __ehfuncinfo$?LookUpStartIndex@CTabIndices@@QAEHH@Z
  00041	e9 00 00 00 00	 jmp	 ___CxxFrameHandler3
text$x	ENDS
?LookUpStartIndex@CTabIndices@@QAEHH@Z ENDP		; CTabIndices::LookUpStartIndex
; Function compile flags: /Ogtp
; File D:\git\src\IBK\IBK_DRFN\ProjSrc\SrcDrfn\Chart\MULTICHART\TabIndices.cpp
;	COMDAT ?Init_Button@CTabIndices@@QAEXXZ
_TEXT	SEGMENT
?Init_Button@CTabIndices@@QAEXXZ PROC			; CTabIndices::Init_Button, COMDAT
; _this$ = ecx

; 2066 : {	

  00000	55		 push	 ebp
  00001	8b ec		 mov	 ebp, esp
  00003	51		 push	 ecx
  00004	56		 push	 esi

; 2067 : //	m_btnSearch.FP_vSetImage(m_pIL_W93H20, 0, 2);
; 2068 : //	m_btnSearch.FP_vSetToolTipText("");
; 2069 : 	
; 2070 : //	m_btnApply.FP_vSetImage(m_pIL_W60H19, 32, 34);
; 2071 : //	m_btnApply.FP_vSetToolTipText("");
; 2072 : 
; 2073 : 	//  	
; 2074 : //	m_btnShowList.FP_vSetImage(m_pIL_W30H19, 0, 1);
; 2075 : 
; 2076 : 	//
; 2077 : //	m_btnStop.FP_vSetImage(m_pIL_W33H19, 3, 4, FALSE, "", FALSE, 5);
; 2078 : 
; 2079 : 	//
; 2080 : //	m_btnPrev.FP_vSetImage(m_pIL_W33H19, 9, 10, FALSE, "", FALSE, 11);
; 2081 : 
; 2082 : 	//
; 2083 : //	m_btnNext.FP_vSetImage(m_pIL_W33H19, 0, 1, FALSE, "", FALSE, 2);
; 2084 : 
; 2085 : 	// 
; 2086 : //	m_btnAddItem.FP_vSetImage(m_pIL_W88H19, 0, 1);
; 2087 : 
; 2088 : 	//	
; 2089 : //	m_btnDelItem.FP_vSetImage(m_pIL_W60H19, 3, 4);
; 2090 : 
; 2091 : 	//
; 2092 : //@ m_btnSearch	.FP_vSetImage(m_pIL_W43H19, 0, 2, TRUE, "", FALSE);
; 2093 : 	m_btnSearch	.FP_vSetImage(m_pIL_W43H20, 0, 2, TRUE, "", FALSE);

  00005	6a ff		 push	 -1
  00007	6a ff		 push	 -1
  00009	6a 00		 push	 0
  0000b	51		 push	 ecx
  0000c	8b f1		 mov	 esi, ecx
  0000e	8b cc		 mov	 ecx, esp
  00010	68 00 00 00 00	 push	 OFFSET ??_C@_04FLCJJKJJ@?$LF?n?$LH?O@
  00015	ff 15 00 00 00
	00		 call	 DWORD PTR __imp_??0?$CStringT@DV?$StrTraitMFC_DLL@DV?$ChTraitsCRT@D@ATL@@@@@ATL@@QAE@PBD@Z
  0001b	6a 01		 push	 1
  0001d	6a 02		 push	 2
  0001f	6a 00		 push	 0
  00021	ff b6 b0 00 00
	00		 push	 DWORD PTR [esi+176]
  00027	8d 8e 88 13 00
	00		 lea	 ecx, DWORD PTR [esi+5000]
  0002d	e8 00 00 00 00	 call	 ?FP_vSetImage@CILButton@@QAEXPAVCImageList@@HHHV?$CStringT@DV?$StrTraitMFC_DLL@DV?$ChTraitsCRT@D@ATL@@@@@ATL@@HHH@Z ; CILButton::FP_vSetImage

; 2094 : 
; 2095 : 	//
; 2096 : //@ m_btnApply	.FP_vSetImage(m_pIL_W43H19, 0, 2, TRUE, "", FALSE);
; 2097 : 	m_btnApply	.FP_vSetImage(m_pIL_W43H20, 0, 2, TRUE, "", FALSE);

  00032	6a ff		 push	 -1
  00034	6a ff		 push	 -1
  00036	6a 00		 push	 0
  00038	51		 push	 ecx
  00039	8b cc		 mov	 ecx, esp
  0003b	68 00 00 00 00	 push	 OFFSET ??_C@_04CFDBLPCI@?$LL?h?A?$KG@
  00040	ff 15 00 00 00
	00		 call	 DWORD PTR __imp_??0?$CStringT@DV?$StrTraitMFC_DLL@DV?$ChTraitsCRT@D@ATL@@@@@ATL@@QAE@PBD@Z
  00046	6a 01		 push	 1
  00048	6a 02		 push	 2
  0004a	6a 00		 push	 0
  0004c	ff b6 b0 00 00
	00		 push	 DWORD PTR [esi+176]
  00052	8d 8e e8 14 00
	00		 lea	 ecx, DWORD PTR [esi+5352]
  00058	e8 00 00 00 00	 call	 ?FP_vSetImage@CILButton@@QAEXPAVCImageList@@HHHV?$CStringT@DV?$StrTraitMFC_DLL@DV?$ChTraitsCRT@D@ATL@@@@@ATL@@HHH@Z ; CILButton::FP_vSetImage

; 2098 : 
; 2099 : 	//
; 2100 : 	m_btnFind	.FP_vSetImage(m_pIL_W20H20, 76, 78, TRUE, "", FALSE);

  0005d	6a ff		 push	 -1
  0005f	6a ff		 push	 -1
  00061	6a 00		 push	 0
  00063	51		 push	 ecx
  00064	8b cc		 mov	 ecx, esp
  00066	68 00 00 00 00	 push	 OFFSET ??_C@_00CNPNBAHC@@
  0006b	ff 15 00 00 00
	00		 call	 DWORD PTR __imp_??0?$CStringT@DV?$StrTraitMFC_DLL@DV?$ChTraitsCRT@D@ATL@@@@@ATL@@QAE@PBD@Z
  00071	6a 01		 push	 1
  00073	6a 4e		 push	 78			; 0000004eH
  00075	6a 4c		 push	 76			; 0000004cH
  00077	ff b6 a8 00 00
	00		 push	 DWORD PTR [esi+168]
  0007d	8d 8e 88 06 00
	00		 lea	 ecx, DWORD PTR [esi+1672]
  00083	e8 00 00 00 00	 call	 ?FP_vSetImage@CILButton@@QAEXPAVCImageList@@HHHV?$CStringT@DV?$StrTraitMFC_DLL@DV?$ChTraitsCRT@D@ATL@@@@@ATL@@HHH@Z ; CILButton::FP_vSetImage

; 2101 : 
; 2102 : 	// 
; 2103 : 	m_btnExtend	.FP_vSetImage(m_pIL_W20H20, 48, 50, TRUE, "", FALSE);

  00088	6a ff		 push	 -1
  0008a	6a ff		 push	 -1
  0008c	6a 00		 push	 0
  0008e	51		 push	 ecx
  0008f	8b cc		 mov	 ecx, esp
  00091	68 00 00 00 00	 push	 OFFSET ??_C@_00CNPNBAHC@@
  00096	ff 15 00 00 00
	00		 call	 DWORD PTR __imp_??0?$CStringT@DV?$StrTraitMFC_DLL@DV?$ChTraitsCRT@D@ATL@@@@@ATL@@QAE@PBD@Z
  0009c	6a 01		 push	 1
  0009e	6a 32		 push	 50			; 00000032H
  000a0	6a 30		 push	 48			; 00000030H
  000a2	ff b6 a8 00 00
	00		 push	 DWORD PTR [esi+168]
  000a8	8d 8e e8 07 00
	00		 lea	 ecx, DWORD PTR [esi+2024]
  000ae	e8 00 00 00 00	 call	 ?FP_vSetImage@CILButton@@QAEXPAVCImageList@@HHHV?$CStringT@DV?$StrTraitMFC_DLL@DV?$ChTraitsCRT@D@ATL@@@@@ATL@@HHH@Z ; CILButton::FP_vSetImage

; 2104 : }

  000b3	5e		 pop	 esi
  000b4	8b e5		 mov	 esp, ebp
  000b6	5d		 pop	 ebp
  000b7	c3		 ret	 0
?Init_Button@CTabIndices@@QAEXXZ ENDP			; CTabIndices::Init_Button
_TEXT	ENDS
; Function compile flags: /Ogtp
; File D:\git\src\IBK\IBK_DRFN\ProjSrc\SrcDrfn\Chart\MULTICHART\TabDlg.h
;	COMDAT ?ReceiveDataFromOutSide@CTabDlg@@UAEXXZ
_TEXT	SEGMENT
?ReceiveDataFromOutSide@CTabDlg@@UAEXXZ PROC		; CTabDlg::ReceiveDataFromOutSide, COMDAT
; _this$ = ecx

; 113  : 	virtual void ReceiveDataFromOutSide() {}

  00000	c2 00 00	 ret	 0
?ReceiveDataFromOutSide@CTabDlg@@UAEXXZ ENDP		; CTabDlg::ReceiveDataFromOutSide
_TEXT	ENDS
; Function compile flags: /Ogtp
; File D:\git\src\IBK\IBK_DRFN\ProjSrc\SrcDrfn\Chart\MULTICHART\TabDlg.h
;	COMDAT ?SetRealPriceData@CTabDlg@@UAEXPAX@Z
_TEXT	SEGMENT
_pData$ = 8						; size = 4
?SetRealPriceData@CTabDlg@@UAEXPAX@Z PROC		; CTabDlg::SetRealPriceData, COMDAT
; _this$ = ecx

; 112  : 	virtual void SetRealPriceData(void *pData) {}

  00000	c2 04 00	 ret	 4
?SetRealPriceData@CTabDlg@@UAEXPAX@Z ENDP		; CTabDlg::SetRealPriceData
_TEXT	ENDS
; Function compile flags: /Ogtp
; File D:\git\src\IBK\IBK_DRFN\ProjSrc\SrcDrfn\Chart\MULTICHART\TabDlg.h
;	COMDAT ?ReceiveData@CTabDlg@@UAEXPAUHWND__@@PBD11PAXJ@Z
_TEXT	SEGMENT
_hTrComm$ = 8						; size = 4
_szTR$ = 12						; size = 4
_szMsgCode$ = 16					; size = 4
_szMessage$ = 20					; size = 4
_aTRData$ = 24						; size = 4
_dwTRDateLen$ = 28					; size = 4
?ReceiveData@CTabDlg@@UAEXPAUHWND__@@PBD11PAXJ@Z PROC	; CTabDlg::ReceiveData, COMDAT
; _this$ = ecx

; 111  : 	virtual void ReceiveData(HWND hTrComm, LPCSTR szTR, LPCSTR szMsgCode, LPCSTR szMessage, LPVOID aTRData, long dwTRDateLen) {}

  00000	c2 18 00	 ret	 24			; 00000018H
?ReceiveData@CTabDlg@@UAEXPAUHWND__@@PBD11PAXJ@Z ENDP	; CTabDlg::ReceiveData
_TEXT	ENDS
; Function compile flags: /Ogtp
; File C:\Program Files (x86)\Microsoft Visual Studio\2019\Community\VC\Tools\MSVC\14.29.30133\atlmfc\include\afxcmn.inl
;	COMDAT ?DeleteAllItems@CTreeCtrl@@QAEHXZ
_TEXT	SEGMENT
?DeleteAllItems@CTreeCtrl@@QAEHXZ PROC			; CTreeCtrl::DeleteAllItems, COMDAT
; _this$ = ecx

; 277  : 	{ ASSERT(::IsWindow(m_hWnd)); return (BOOL)::SendMessage(m_hWnd, TVM_DELETEITEM, 0, (LPARAM)TVI_ROOT); }

  00000	68 00 00 ff ff	 push	 -65536			; ffff0000H
  00005	6a 00		 push	 0
  00007	68 01 11 00 00	 push	 4353			; 00001101H
  0000c	ff 71 20	 push	 DWORD PTR [ecx+32]
  0000f	ff 15 00 00 00
	00		 call	 DWORD PTR __imp__SendMessageA@16
  00015	c3		 ret	 0
?DeleteAllItems@CTreeCtrl@@QAEHXZ ENDP			; CTreeCtrl::DeleteAllItems
_TEXT	ENDS
; Function compile flags: /Ogtp
; File C:\Program Files (x86)\Microsoft Visual Studio\2019\Community\VC\Tools\MSVC\14.29.30133\atlmfc\include\afx.inl
;	COMDAT ??_GCEdit@@UAEPAXI@Z
_TEXT	SEGMENT
___flags$ = 8						; size = 4
??_GCEdit@@UAEPAXI@Z PROC				; CEdit::`scalar deleting destructor', COMDAT
; _this$ = ecx
  00000	55		 push	 ebp
  00001	8b ec		 mov	 ebp, esp
  00003	56		 push	 esi
  00004	8b f1		 mov	 esi, ecx
  00006	e8 00 00 00 00	 call	 ??1CEdit@@UAE@XZ	; CEdit::~CEdit
  0000b	8b 45 08	 mov	 eax, DWORD PTR ___flags$[ebp]
  0000e	a8 01		 test	 al, 1
  00010	74 22		 je	 SHORT $LN9@scalar
  00012	a8 04		 test	 al, 4
  00014	75 10		 jne	 SHORT $LN3@scalar

; 112  : 	{ ::operator delete(p); }

  00016	56		 push	 esi
  00017	e8 00 00 00 00	 call	 ??3@YAXPAX@Z		; operator delete
  0001c	83 c4 04	 add	 esp, 4
  0001f	8b c6		 mov	 eax, esi
  00021	5e		 pop	 esi
  00022	5d		 pop	 ebp
  00023	c2 04 00	 ret	 4
$LN3@scalar:
  00026	68 80 00 00 00	 push	 128			; 00000080H
  0002b	56		 push	 esi
  0002c	e8 00 00 00 00	 call	 ?__global_delete@@YAXPAXI@Z ; __global_delete
  00031	83 c4 08	 add	 esp, 8
$LN9@scalar:
  00034	8b c6		 mov	 eax, esi
  00036	5e		 pop	 esi
  00037	5d		 pop	 ebp
  00038	c2 04 00	 ret	 4
??_GCEdit@@UAEPAXI@Z ENDP				; CEdit::`scalar deleting destructor'
_TEXT	ENDS
; Function compile flags: /Ogtp
; File C:\Program Files (x86)\Microsoft Visual Studio\2019\Community\VC\Tools\MSVC\14.29.30133\atlmfc\include\afx.inl
;	COMDAT ??_GCComboBox@@UAEPAXI@Z
_TEXT	SEGMENT
___flags$ = 8						; size = 4
??_GCComboBox@@UAEPAXI@Z PROC				; CComboBox::`scalar deleting destructor', COMDAT
; _this$ = ecx
  00000	55		 push	 ebp
  00001	8b ec		 mov	 ebp, esp
  00003	56		 push	 esi
  00004	8b f1		 mov	 esi, ecx
  00006	e8 00 00 00 00	 call	 ??1CComboBox@@UAE@XZ	; CComboBox::~CComboBox
  0000b	8b 45 08	 mov	 eax, DWORD PTR ___flags$[ebp]
  0000e	a8 01		 test	 al, 1
  00010	74 22		 je	 SHORT $LN9@scalar
  00012	a8 04		 test	 al, 4
  00014	75 10		 jne	 SHORT $LN3@scalar

; 112  : 	{ ::operator delete(p); }

  00016	56		 push	 esi
  00017	e8 00 00 00 00	 call	 ??3@YAXPAX@Z		; operator delete
  0001c	83 c4 04	 add	 esp, 4
  0001f	8b c6		 mov	 eax, esi
  00021	5e		 pop	 esi
  00022	5d		 pop	 ebp
  00023	c2 04 00	 ret	 4
$LN3@scalar:
  00026	68 80 00 00 00	 push	 128			; 00000080H
  0002b	56		 push	 esi
  0002c	e8 00 00 00 00	 call	 ?__global_delete@@YAXPAXI@Z ; __global_delete
  00031	83 c4 08	 add	 esp, 8
$LN9@scalar:
  00034	8b c6		 mov	 eax, esi
  00036	5e		 pop	 esi
  00037	5d		 pop	 ebp
  00038	c2 04 00	 ret	 4
??_GCComboBox@@UAEPAXI@Z ENDP				; CComboBox::`scalar deleting destructor'
_TEXT	ENDS
; Function compile flags: /Ogtp
; File C:\Program Files (x86)\Microsoft Visual Studio\2019\Community\VC\Tools\MSVC\14.29.30133\atlmfc\include\afx.inl
;	COMDAT ??_GCListBox@@UAEPAXI@Z
_TEXT	SEGMENT
___flags$ = 8						; size = 4
??_GCListBox@@UAEPAXI@Z PROC				; CListBox::`scalar deleting destructor', COMDAT
; _this$ = ecx
  00000	55		 push	 ebp
  00001	8b ec		 mov	 ebp, esp
  00003	56		 push	 esi
  00004	8b f1		 mov	 esi, ecx
  00006	e8 00 00 00 00	 call	 ??1CListBox@@UAE@XZ	; CListBox::~CListBox
  0000b	8b 45 08	 mov	 eax, DWORD PTR ___flags$[ebp]
  0000e	a8 01		 test	 al, 1
  00010	74 22		 je	 SHORT $LN9@scalar
  00012	a8 04		 test	 al, 4
  00014	75 10		 jne	 SHORT $LN3@scalar

; 112  : 	{ ::operator delete(p); }

  00016	56		 push	 esi
  00017	e8 00 00 00 00	 call	 ??3@YAXPAX@Z		; operator delete
  0001c	83 c4 04	 add	 esp, 4
  0001f	8b c6		 mov	 eax, esi
  00021	5e		 pop	 esi
  00022	5d		 pop	 ebp
  00023	c2 04 00	 ret	 4
$LN3@scalar:
  00026	68 80 00 00 00	 push	 128			; 00000080H
  0002b	56		 push	 esi
  0002c	e8 00 00 00 00	 call	 ?__global_delete@@YAXPAXI@Z ; __global_delete
  00031	83 c4 08	 add	 esp, 8
$LN9@scalar:
  00034	8b c6		 mov	 eax, esi
  00036	5e		 pop	 esi
  00037	5d		 pop	 ebp
  00038	c2 04 00	 ret	 4
??_GCListBox@@UAEPAXI@Z ENDP				; CListBox::`scalar deleting destructor'
_TEXT	ENDS
; Function compile flags: /Ogtp
; File C:\Program Files (x86)\Microsoft Visual Studio\2019\Community\VC\Tools\MSVC\14.29.30133\atlmfc\include\afx.inl
;	COMDAT ??_GCButton@@UAEPAXI@Z
_TEXT	SEGMENT
___flags$ = 8						; size = 4
??_GCButton@@UAEPAXI@Z PROC				; CButton::`scalar deleting destructor', COMDAT
; _this$ = ecx
  00000	55		 push	 ebp
  00001	8b ec		 mov	 ebp, esp
  00003	56		 push	 esi
  00004	8b f1		 mov	 esi, ecx
  00006	e8 00 00 00 00	 call	 ??1CButton@@UAE@XZ	; CButton::~CButton
  0000b	8b 45 08	 mov	 eax, DWORD PTR ___flags$[ebp]
  0000e	a8 01		 test	 al, 1
  00010	74 22		 je	 SHORT $LN9@scalar
  00012	a8 04		 test	 al, 4
  00014	75 10		 jne	 SHORT $LN3@scalar

; 112  : 	{ ::operator delete(p); }

  00016	56		 push	 esi
  00017	e8 00 00 00 00	 call	 ??3@YAXPAX@Z		; operator delete
  0001c	83 c4 04	 add	 esp, 4
  0001f	8b c6		 mov	 eax, esi
  00021	5e		 pop	 esi
  00022	5d		 pop	 ebp
  00023	c2 04 00	 ret	 4
$LN3@scalar:
  00026	68 80 00 00 00	 push	 128			; 00000080H
  0002b	56		 push	 esi
  0002c	e8 00 00 00 00	 call	 ?__global_delete@@YAXPAXI@Z ; __global_delete
  00031	83 c4 08	 add	 esp, 8
$LN9@scalar:
  00034	8b c6		 mov	 eax, esi
  00036	5e		 pop	 esi
  00037	5d		 pop	 ebp
  00038	c2 04 00	 ret	 4
??_GCButton@@UAEPAXI@Z ENDP				; CButton::`scalar deleting destructor'
_TEXT	ENDS
; Function compile flags: /Ogtp
; File C:\Program Files (x86)\Microsoft Visual Studio\2019\Community\VC\Tools\MSVC\14.29.30133\atlmfc\include\afxwin2.inl
;	COMDAT ?EndModalState@CWnd@@UAEXXZ
_TEXT	SEGMENT
?EndModalState@CWnd@@UAEXXZ PROC			; CWnd::EndModalState, COMDAT
; _this$ = ecx

; 567  : 	{ ::EnableWindow(m_hWnd, TRUE); }

  00000	6a 01		 push	 1
  00002	ff 71 20	 push	 DWORD PTR [ecx+32]
  00005	ff 15 00 00 00
	00		 call	 DWORD PTR __imp__EnableWindow@8
  0000b	c3		 ret	 0
?EndModalState@CWnd@@UAEXXZ ENDP			; CWnd::EndModalState
_TEXT	ENDS
; Function compile flags: /Ogtp
; File C:\Program Files (x86)\Microsoft Visual Studio\2019\Community\VC\Tools\MSVC\14.29.30133\atlmfc\include\afxwin2.inl
;	COMDAT ?BeginModalState@CWnd@@UAEXXZ
_TEXT	SEGMENT
?BeginModalState@CWnd@@UAEXXZ PROC			; CWnd::BeginModalState, COMDAT
; _this$ = ecx

; 565  : 	{ ::EnableWindow(m_hWnd, FALSE); }

  00000	6a 00		 push	 0
  00002	ff 71 20	 push	 DWORD PTR [ecx+32]
  00005	ff 15 00 00 00
	00		 call	 DWORD PTR __imp__EnableWindow@8
  0000b	c3		 ret	 0
?BeginModalState@CWnd@@UAEXXZ ENDP			; CWnd::BeginModalState
_TEXT	ENDS
; Function compile flags: /Ogtp
; File C:\Program Files (x86)\Microsoft Visual Studio\2019\Community\VC\Tools\MSVC\14.29.30133\atlmfc\include\afxwin2.inl
;	COMDAT ?DoDataExchange@CWnd@@MAEXPAVCDataExchange@@@Z
_TEXT	SEGMENT
___formal$ = 8						; size = 4
?DoDataExchange@CWnd@@MAEXPAVCDataExchange@@@Z PROC	; CWnd::DoDataExchange, COMDAT
; _this$ = ecx

; 561  : 	{ } // default does nothing

  00000	c2 04 00	 ret	 4
?DoDataExchange@CWnd@@MAEXPAVCDataExchange@@@Z ENDP	; CWnd::DoDataExchange
_TEXT	ENDS
; Function compile flags: /Ogtp
; File C:\Program Files (x86)\Microsoft Visual Studio\2019\Community\VC\Tools\MSVC\14.29.30133\atlmfc\include\afxwin1.inl
; File C:\Program Files (x86)\Microsoft Visual Studio\2019\Community\VC\Tools\MSVC\14.29.30133\atlmfc\include\afx.inl
;	COMDAT ??_GCMenu@@UAEPAXI@Z
_TEXT	SEGMENT
__$EHRec$ = -12						; size = 12
___flags$ = 8						; size = 4
??_GCMenu@@UAEPAXI@Z PROC				; CMenu::`scalar deleting destructor', COMDAT
; _this$ = ecx
  00000	55		 push	 ebp
  00001	8b ec		 mov	 ebp, esp
  00003	6a ff		 push	 -1
  00005	68 00 00 00 00	 push	 __ehhandler$??_GCMenu@@UAEPAXI@Z
  0000a	64 a1 00 00 00
	00		 mov	 eax, DWORD PTR fs:0
  00010	50		 push	 eax
  00011	56		 push	 esi
  00012	a1 00 00 00 00	 mov	 eax, DWORD PTR ___security_cookie
  00017	33 c5		 xor	 eax, ebp
  00019	50		 push	 eax
  0001a	8d 45 f4	 lea	 eax, DWORD PTR __$EHRec$[ebp]
  0001d	64 a3 00 00 00
	00		 mov	 DWORD PTR fs:0, eax
  00023	8b f1		 mov	 esi, ecx
; File C:\Program Files (x86)\Microsoft Visual Studio\2019\Community\VC\Tools\MSVC\14.29.30133\atlmfc\include\afxwin1.inl

; 905  : 	{ DestroyMenu(); }

  00025	c7 45 fc 00 00
	00 00		 mov	 DWORD PTR __$EHRec$[ebp+8], 0
  0002c	c7 06 00 00 00
	00		 mov	 DWORD PTR [esi], OFFSET ??_7CMenu@@6B@
  00032	e8 00 00 00 00	 call	 ?DestroyMenu@CMenu@@QAEHXZ ; CMenu::DestroyMenu
  00037	8b 45 08	 mov	 eax, DWORD PTR ___flags$[ebp]
  0003a	a8 01		 test	 al, 1
  0003c	74 2c		 je	 SHORT $LN12@scalar
  0003e	a8 04		 test	 al, 4
  00040	75 1d		 jne	 SHORT $LN3@scalar
; File C:\Program Files (x86)\Microsoft Visual Studio\2019\Community\VC\Tools\MSVC\14.29.30133\atlmfc\include\afx.inl

; 112  : 	{ ::operator delete(p); }

  00042	56		 push	 esi
  00043	e8 00 00 00 00	 call	 ??3@YAXPAX@Z		; operator delete
  00048	83 c4 04	 add	 esp, 4
  0004b	8b c6		 mov	 eax, esi
  0004d	8b 4d f4	 mov	 ecx, DWORD PTR __$EHRec$[ebp]
  00050	64 89 0d 00 00
	00 00		 mov	 DWORD PTR fs:0, ecx
  00057	59		 pop	 ecx
  00058	5e		 pop	 esi
  00059	8b e5		 mov	 esp, ebp
  0005b	5d		 pop	 ebp
  0005c	c2 04 00	 ret	 4
$LN3@scalar:
  0005f	6a 08		 push	 8
  00061	56		 push	 esi
  00062	e8 00 00 00 00	 call	 ?__global_delete@@YAXPAXI@Z ; __global_delete
  00067	83 c4 08	 add	 esp, 8
$LN12@scalar:
  0006a	8b c6		 mov	 eax, esi
  0006c	8b 4d f4	 mov	 ecx, DWORD PTR __$EHRec$[ebp]
  0006f	64 89 0d 00 00
	00 00		 mov	 DWORD PTR fs:0, ecx
  00076	59		 pop	 ecx
  00077	5e		 pop	 esi
  00078	8b e5		 mov	 esp, ebp
  0007a	5d		 pop	 ebp
  0007b	c2 04 00	 ret	 4
  0007e	cc		 int	 3
  0007f	cc		 int	 3
  00080	cc		 int	 3
  00081	cc		 int	 3
  00082	cc		 int	 3
_TEXT	ENDS
;	COMDAT text$x
text$x	SEGMENT
__ehhandler$??_GCMenu@@UAEPAXI@Z:
  00000	90		 npad	 1
  00001	90		 npad	 1
  00002	8b 54 24 08	 mov	 edx, DWORD PTR [esp+8]
  00006	8d 42 0c	 lea	 eax, DWORD PTR [edx+12]
  00009	8b 4a f8	 mov	 ecx, DWORD PTR [edx-8]
  0000c	33 c8		 xor	 ecx, eax
  0000e	e8 00 00 00 00	 call	 @__security_check_cookie@4
  00013	b8 00 00 00 00	 mov	 eax, OFFSET __ehfuncinfo$??_GCMenu@@UAEPAXI@Z
  00018	e9 00 00 00 00	 jmp	 ___CxxFrameHandler3
text$x	ENDS
??_GCMenu@@UAEPAXI@Z ENDP				; CMenu::`scalar deleting destructor'
; Function compile flags: /Ogtp
; File C:\Program Files (x86)\Microsoft Visual Studio\2019\Community\VC\Tools\MSVC\14.29.30133\atlmfc\include\afxwin1.inl
;	COMDAT ??1CMenu@@UAE@XZ
_TEXT	SEGMENT
__$EHRec$ = -12						; size = 12
??1CMenu@@UAE@XZ PROC					; CMenu::~CMenu, COMDAT
; _this$ = ecx

; 905  : 	{ DestroyMenu(); }

  00000	55		 push	 ebp
  00001	8b ec		 mov	 ebp, esp
  00003	6a ff		 push	 -1
  00005	68 00 00 00 00	 push	 __ehhandler$??1CMenu@@UAE@XZ
  0000a	64 a1 00 00 00
	00		 mov	 eax, DWORD PTR fs:0
  00010	50		 push	 eax
  00011	a1 00 00 00 00	 mov	 eax, DWORD PTR ___security_cookie
  00016	33 c5		 xor	 eax, ebp
  00018	50		 push	 eax
  00019	8d 45 f4	 lea	 eax, DWORD PTR __$EHRec$[ebp]
  0001c	64 a3 00 00 00
	00		 mov	 DWORD PTR fs:0, eax
  00022	c7 01 00 00 00
	00		 mov	 DWORD PTR [ecx], OFFSET ??_7CMenu@@6B@
  00028	e8 00 00 00 00	 call	 ?DestroyMenu@CMenu@@QAEHXZ ; CMenu::DestroyMenu
  0002d	8b 4d f4	 mov	 ecx, DWORD PTR __$EHRec$[ebp]
  00030	64 89 0d 00 00
	00 00		 mov	 DWORD PTR fs:0, ecx
  00037	59		 pop	 ecx
  00038	8b e5		 mov	 esp, ebp
  0003a	5d		 pop	 ebp
  0003b	c3		 ret	 0
  0003c	cc		 int	 3
  0003d	cc		 int	 3
  0003e	cc		 int	 3
  0003f	cc		 int	 3
  00040	cc		 int	 3
_TEXT	ENDS
;	COMDAT text$x
text$x	SEGMENT
__ehhandler$??1CMenu@@UAE@XZ:
  00000	90		 npad	 1
  00001	90		 npad	 1
  00002	8b 54 24 08	 mov	 edx, DWORD PTR [esp+8]
  00006	8d 42 0c	 lea	 eax, DWORD PTR [edx+12]
  00009	8b 4a fc	 mov	 ecx, DWORD PTR [edx-4]
  0000c	33 c8		 xor	 ecx, eax
  0000e	e8 00 00 00 00	 call	 @__security_check_cookie@4
  00013	b8 00 00 00 00	 mov	 eax, OFFSET __ehfuncinfo$??1CMenu@@UAE@XZ
  00018	e9 00 00 00 00	 jmp	 ___CxxFrameHandler3
text$x	ENDS
??1CMenu@@UAE@XZ ENDP					; CMenu::~CMenu
; Function compile flags: /Ogtp
; File C:\Program Files (x86)\Microsoft Visual Studio\2019\Community\VC\Tools\MSVC\14.29.30133\atlmfc\include\afxwin1.inl
; File C:\Program Files (x86)\Microsoft Visual Studio\2019\Community\VC\Tools\MSVC\14.29.30133\atlmfc\include\afx.inl
;	COMDAT ??_GCBitmap@@UAEPAXI@Z
_TEXT	SEGMENT
___flags$ = 8						; size = 4
??_GCBitmap@@UAEPAXI@Z PROC				; CBitmap::`scalar deleting destructor', COMDAT
; _this$ = ecx
  00000	55		 push	 ebp
  00001	8b ec		 mov	 ebp, esp
; File C:\Program Files (x86)\Microsoft Visual Studio\2019\Community\VC\Tools\MSVC\14.29.30133\atlmfc\include\afxwin1.inl

; 179  : 	{ }

  00003	56		 push	 esi
  00004	8b f1		 mov	 esi, ecx
  00006	c7 06 00 00 00
	00		 mov	 DWORD PTR [esi], OFFSET ??_7CBitmap@@6B@
  0000c	e8 00 00 00 00	 call	 ??1CGdiObject@@UAE@XZ	; CGdiObject::~CGdiObject
  00011	8b 45 08	 mov	 eax, DWORD PTR ___flags$[ebp]
  00014	a8 01		 test	 al, 1
  00016	74 1f		 je	 SHORT $LN12@scalar
  00018	a8 04		 test	 al, 4
  0001a	75 10		 jne	 SHORT $LN3@scalar
; File C:\Program Files (x86)\Microsoft Visual Studio\2019\Community\VC\Tools\MSVC\14.29.30133\atlmfc\include\afx.inl

; 112  : 	{ ::operator delete(p); }

  0001c	56		 push	 esi
  0001d	e8 00 00 00 00	 call	 ??3@YAXPAX@Z		; operator delete
  00022	83 c4 04	 add	 esp, 4
  00025	8b c6		 mov	 eax, esi
  00027	5e		 pop	 esi
  00028	5d		 pop	 ebp
  00029	c2 04 00	 ret	 4
$LN3@scalar:
  0002c	6a 08		 push	 8
  0002e	56		 push	 esi
  0002f	e8 00 00 00 00	 call	 ?__global_delete@@YAXPAXI@Z ; __global_delete
  00034	83 c4 08	 add	 esp, 8
$LN12@scalar:
  00037	8b c6		 mov	 eax, esi
  00039	5e		 pop	 esi
  0003a	5d		 pop	 ebp
  0003b	c2 04 00	 ret	 4
??_GCBitmap@@UAEPAXI@Z ENDP				; CBitmap::`scalar deleting destructor'
_TEXT	ENDS
; Function compile flags: /Ogtp
; File C:\Program Files (x86)\Microsoft Visual Studio\2019\Community\VC\Tools\MSVC\14.29.30133\atlmfc\include\afxwin1.inl
;	COMDAT ??1CBitmap@@UAE@XZ
_TEXT	SEGMENT
??1CBitmap@@UAE@XZ PROC					; CBitmap::~CBitmap, COMDAT
; _this$ = ecx

; 179  : 	{ }

  00000	c7 01 00 00 00
	00		 mov	 DWORD PTR [ecx], OFFSET ??_7CBitmap@@6B@
  00006	e9 00 00 00 00	 jmp	 ??1CGdiObject@@UAE@XZ	; CGdiObject::~CGdiObject
??1CBitmap@@UAE@XZ ENDP					; CBitmap::~CBitmap
_TEXT	ENDS
; Function compile flags: /Ogtp
; File C:\Program Files (x86)\Microsoft Visual Studio\2019\Community\VC\Tools\MSVC\14.29.30133\atlmfc\include\afx.inl
;	COMDAT ??_GCGdiObject@@UAEPAXI@Z
_TEXT	SEGMENT
___flags$ = 8						; size = 4
??_GCGdiObject@@UAEPAXI@Z PROC				; CGdiObject::`scalar deleting destructor', COMDAT
; _this$ = ecx
  00000	55		 push	 ebp
  00001	8b ec		 mov	 ebp, esp
  00003	56		 push	 esi
  00004	8b f1		 mov	 esi, ecx
  00006	e8 00 00 00 00	 call	 ??1CGdiObject@@UAE@XZ	; CGdiObject::~CGdiObject
  0000b	8b 45 08	 mov	 eax, DWORD PTR ___flags$[ebp]
  0000e	a8 01		 test	 al, 1
  00010	74 1f		 je	 SHORT $LN9@scalar
  00012	a8 04		 test	 al, 4
  00014	75 10		 jne	 SHORT $LN3@scalar

; 112  : 	{ ::operator delete(p); }

  00016	56		 push	 esi
  00017	e8 00 00 00 00	 call	 ??3@YAXPAX@Z		; operator delete
  0001c	83 c4 04	 add	 esp, 4
  0001f	8b c6		 mov	 eax, esi
  00021	5e		 pop	 esi
  00022	5d		 pop	 ebp
  00023	c2 04 00	 ret	 4
$LN3@scalar:
  00026	6a 08		 push	 8
  00028	56		 push	 esi
  00029	e8 00 00 00 00	 call	 ?__global_delete@@YAXPAXI@Z ; __global_delete
  0002e	83 c4 08	 add	 esp, 8
$LN9@scalar:
  00031	8b c6		 mov	 eax, esi
  00033	5e		 pop	 esi
  00034	5d		 pop	 ebp
  00035	c2 04 00	 ret	 4
??_GCGdiObject@@UAEPAXI@Z ENDP				; CGdiObject::`scalar deleting destructor'
_TEXT	ENDS
; Function compile flags: /Ogtp
; File C:\Program Files (x86)\Microsoft Visual Studio\2019\Community\VC\Tools\MSVC\14.29.30133\atlmfc\include\afxwin1.inl
;	COMDAT ??1CGdiObject@@UAE@XZ
_TEXT	SEGMENT
_pException$2 = -540					; size = 4
_strMsg$3 = -536					; size = 4
_szErrorMessage$4 = -532				; size = 512
__$ArrayPad$ = -20					; size = 4
__$EHRec$ = -16						; size = 16
??1CGdiObject@@UAE@XZ PROC				; CGdiObject::~CGdiObject, COMDAT
; _this$ = ecx

; 74   : {

  00000	55		 push	 ebp
  00001	8b ec		 mov	 ebp, esp
  00003	6a ff		 push	 -1
  00005	68 00 00 00 00	 push	 __ehhandler$??1CGdiObject@@UAE@XZ
  0000a	64 a1 00 00 00
	00		 mov	 eax, DWORD PTR fs:0
  00010	50		 push	 eax
  00011	81 ec 10 02 00
	00		 sub	 esp, 528		; 00000210H
  00017	a1 00 00 00 00	 mov	 eax, DWORD PTR ___security_cookie
  0001c	33 c5		 xor	 eax, ebp
  0001e	89 45 ec	 mov	 DWORD PTR __$ArrayPad$[ebp], eax
  00021	53		 push	 ebx
  00022	56		 push	 esi
  00023	57		 push	 edi
  00024	50		 push	 eax
  00025	8d 45 f4	 lea	 eax, DWORD PTR __$EHRec$[ebp+4]
  00028	64 a3 00 00 00
	00		 mov	 DWORD PTR fs:0, eax
  0002e	89 65 f0	 mov	 DWORD PTR __$EHRec$[ebp], esp
  00031	c7 01 00 00 00
	00		 mov	 DWORD PTR [ecx], OFFSET ??_7CGdiObject@@6B@

; 75   : 	AFX_BEGIN_DESTRUCTOR

  00037	c7 45 fc 00 00
	00 00		 mov	 DWORD PTR __$EHRec$[ebp+12], 0

; 76   : 	DeleteObject();

  0003e	e8 00 00 00 00	 call	 ?DeleteObject@CGdiObject@@QAEHXZ ; CGdiObject::DeleteObject
$LN18@CGdiObject:

; 78   : }

  00043	8b 4d f4	 mov	 ecx, DWORD PTR __$EHRec$[ebp+4]
  00046	64 89 0d 00 00
	00 00		 mov	 DWORD PTR fs:0, ecx
  0004d	59		 pop	 ecx
  0004e	5f		 pop	 edi
  0004f	5e		 pop	 esi
  00050	5b		 pop	 ebx
  00051	8b 4d ec	 mov	 ecx, DWORD PTR __$ArrayPad$[ebp]
  00054	33 cd		 xor	 ecx, ebp
  00056	e8 00 00 00 00	 call	 @__security_check_cookie@4
  0005b	8b e5		 mov	 esp, ebp
  0005d	5d		 pop	 ebp
  0005e	c3		 ret	 0
__catch$??1CGdiObject@@UAE@XZ$0:

; 77   : 	AFX_END_DESTRUCTOR

  0005f	8d 8d e8 fd ff
	ff		 lea	 ecx, DWORD PTR _strMsg$3[ebp]
  00065	ff 15 00 00 00
	00		 call	 DWORD PTR __imp_??0?$CStringT@DV?$StrTraitMFC_DLL@DV?$ChTraitsCRT@D@ATL@@@@@ATL@@QAE@XZ
  0006b	8b b5 e4 fd ff
	ff		 mov	 esi, DWORD PTR _pException$2[ebp]
  00071	8d 8d ec fd ff
	ff		 lea	 ecx, DWORD PTR _szErrorMessage$4[ebp]
  00077	6a 00		 push	 0
  00079	68 00 02 00 00	 push	 512			; 00000200H
  0007e	51		 push	 ecx
  0007f	8b 06		 mov	 eax, DWORD PTR [esi]
  00081	8b ce		 mov	 ecx, esi
  00083	c6 45 fc 02	 mov	 BYTE PTR __$EHRec$[ebp+12], 2
  00087	ff 50 14	 call	 DWORD PTR [eax+20]
  0008a	85 c0		 test	 eax, eax
  0008c	74 2a		 je	 SHORT $LN9@CGdiObject
  0008e	8d 85 ec fd ff
	ff		 lea	 eax, DWORD PTR _szErrorMessage$4[ebp]
  00094	50		 push	 eax
  00095	6a 4d		 push	 77			; 0000004dH
  00097	68 00 00 00 00	 push	 OFFSET ??_C@_0HD@JJCHHHNK@C?3?2Program?5Files?5?$CIx86?$CJ?2Microsof@
  0009c	68 00 00 00 00	 push	 OFFSET ??_C@_0BP@OIEOKIDM@Exception?5thrown?5in?5destructor@
  000a1	8d 85 e8 fd ff
	ff		 lea	 eax, DWORD PTR _strMsg$3[ebp]
  000a7	68 00 00 00 00	 push	 OFFSET ??_C@_0BB@HBOOMJBF@?$CFTs?5?$CI?$CFTs?3?$CFd?$CJ?6?$CFTs@
  000ac	50		 push	 eax
  000ad	ff 15 00 00 00
	00		 call	 DWORD PTR __imp_?Format@?$CStringT@DV?$StrTraitMFC_DLL@DV?$ChTraitsCRT@D@ATL@@@@@ATL@@QAAXPBDZZ
  000b3	83 c4 18	 add	 esp, 24			; 00000018H
  000b6	eb 21		 jmp	 SHORT $LN10@CGdiObject
$LN9@CGdiObject:
  000b8	6a 4d		 push	 77			; 0000004dH
  000ba	68 00 00 00 00	 push	 OFFSET ??_C@_0HD@JJCHHHNK@C?3?2Program?5Files?5?$CIx86?$CJ?2Microsof@
  000bf	68 00 00 00 00	 push	 OFFSET ??_C@_0BP@OIEOKIDM@Exception?5thrown?5in?5destructor@
  000c4	8d 85 e8 fd ff
	ff		 lea	 eax, DWORD PTR _strMsg$3[ebp]
  000ca	68 00 00 00 00	 push	 OFFSET ??_C@_0N@OMEMOKLE@?$CFTs?5?$CI?$CFTs?3?$CFd?$CJ@
  000cf	50		 push	 eax
  000d0	ff 15 00 00 00
	00		 call	 DWORD PTR __imp_?Format@?$CStringT@DV?$StrTraitMFC_DLL@DV?$ChTraitsCRT@D@ATL@@@@@ATL@@QAAXPBDZZ
  000d6	83 c4 14	 add	 esp, 20			; 00000014H
$LN10@CGdiObject:
  000d9	6a 00		 push	 0
  000db	6a 00		 push	 0
  000dd	ff b5 e8 fd ff
	ff		 push	 DWORD PTR _strMsg$3[ebp]
  000e3	e8 00 00 00 00	 call	 ?AfxMessageBox@@YGHPBDII@Z ; AfxMessageBox
  000e8	8d 8d e8 fd ff
	ff		 lea	 ecx, DWORD PTR _strMsg$3[ebp]
  000ee	ff 15 00 00 00
	00		 call	 DWORD PTR __imp_??1?$CStringT@DV?$StrTraitMFC_DLL@DV?$ChTraitsCRT@D@ATL@@@@@ATL@@QAE@XZ
  000f4	8b 06		 mov	 eax, DWORD PTR [esi]
  000f6	8b ce		 mov	 ecx, esi
  000f8	6a 01		 push	 1
  000fa	ff 50 04	 call	 DWORD PTR [eax+4]
  000fd	b8 00 00 00 00	 mov	 eax, $LN18@CGdiObject
  00102	c3		 ret	 0
_TEXT	ENDS
;	COMDAT text$x
text$x	SEGMENT
__unwindfunclet$??1CGdiObject@@UAE@XZ$2:
  00000	8d 8d e8 fd ff
	ff		 lea	 ecx, DWORD PTR _strMsg$3[ebp]
  00006	ff 25 00 00 00
	00		 jmp	 DWORD PTR __imp_??1?$CStringT@DV?$StrTraitMFC_DLL@DV?$ChTraitsCRT@D@ATL@@@@@ATL@@QAE@XZ
  0000c	cc		 int	 3
  0000d	cc		 int	 3
  0000e	cc		 int	 3
  0000f	cc		 int	 3
  00010	cc		 int	 3
__ehhandler$??1CGdiObject@@UAE@XZ:
  00011	90		 npad	 1
  00012	90		 npad	 1
  00013	8b 54 24 08	 mov	 edx, DWORD PTR [esp+8]
  00017	8d 42 0c	 lea	 eax, DWORD PTR [edx+12]
  0001a	8b 8a e0 fd ff
	ff		 mov	 ecx, DWORD PTR [edx-544]
  00020	33 c8		 xor	 ecx, eax
  00022	e8 00 00 00 00	 call	 @__security_check_cookie@4
  00027	8b 4a f8	 mov	 ecx, DWORD PTR [edx-8]
  0002a	33 c8		 xor	 ecx, eax
  0002c	e8 00 00 00 00	 call	 @__security_check_cookie@4
  00031	b8 00 00 00 00	 mov	 eax, OFFSET __ehfuncinfo$??1CGdiObject@@UAE@XZ
  00036	e9 00 00 00 00	 jmp	 ___CxxFrameHandler3
text$x	ENDS
??1CGdiObject@@UAE@XZ ENDP				; CGdiObject::~CGdiObject
; Function compile flags: /Ogtp
; File C:\Program Files (x86)\Microsoft Visual Studio\2019\Community\VC\Tools\MSVC\14.29.30133\atlmfc\include\atlbase.h
; File C:\Program Files (x86)\Microsoft Visual Studio\2019\Community\VC\Tools\MSVC\14.29.30133\atlmfc\include\atlsimpcoll.h
; File C:\Program Files (x86)\Microsoft Visual Studio\2019\Community\VC\Tools\MSVC\14.29.30133\atlmfc\include\atlbase.h
; File C:\Program Files (x86)\Microsoft Visual Studio\2019\Community\VC\Tools\MSVC\14.29.30133\atlmfc\include\atlsimpcoll.h
; File C:\Program Files (x86)\Microsoft Visual Studio\2019\Community\VC\Tools\MSVC\14.29.30133\atlmfc\include\atlcore.h
; File C:\Program Files (x86)\Microsoft Visual Studio\2019\Community\VC\Tools\MSVC\14.29.30133\atlmfc\include\atlsimpcoll.h
; File C:\Program Files (x86)\Microsoft Visual Studio\2019\Community\VC\Tools\MSVC\14.29.30133\atlmfc\include\atlcore.h
; File C:\Program Files (x86)\Microsoft Visual Studio\2019\Community\VC\Tools\MSVC\14.29.30133\atlmfc\include\atlbase.h
; File C:\Program Files (x86)\Microsoft Visual Studio\2019\Community\VC\Tools\MSVC\14.29.30133\atlmfc\include\atlsimpcoll.h
;	COMDAT ??__F_AtlWinModule@ATL@@YAXXZ
text$yd	SEGMENT
??__F_AtlWinModule@ATL@@YAXXZ PROC			; ATL::`dynamic atexit destructor for '_AtlWinModule'', COMDAT
; File C:\Program Files (x86)\Microsoft Visual Studio\2019\Community\VC\Tools\MSVC\14.29.30133\atlmfc\include\atlbase.h

; 7655 : 	if (pWinModule->cbSize == 0)

  00000	a1 00 00 00 00	 mov	 eax, DWORD PTR ?_AtlWinModule@ATL@@3VCAtlWinModule@1@A
  00005	8b 0d 00 00 00
	00		 mov	 ecx, DWORD PTR __imp__free

; 2957 : 		AtlWinModuleTerm(this, _AtlBaseModule.GetModuleInstance());

  0000b	57		 push	 edi
  0000c	8b 3d 04 00 00
	00		 mov	 edi, DWORD PTR ?_AtlBaseModule@ATL@@3VCAtlBaseModule@1@A+4

; 7655 : 	if (pWinModule->cbSize == 0)

  00012	85 c0		 test	 eax, eax
  00014	0f 84 93 00 00
	00		 je	 $LN8@dynamic

; 7656 : 		return S_OK;
; 7657 : 	if (pWinModule->cbSize != sizeof(_ATL_WIN_MODULE))

  0001a	83 f8 2c	 cmp	 eax, 44			; 0000002cH
  0001d	0f 85 8a 00 00
	00		 jne	 $LN8@dynamic

; 7658 : 		return E_INVALIDARG;
; 7659 : 
; 7660 : 	for (int i = 0; i < pWinModule->m_rgWindowClassAtoms.GetSize(); i++)

  00023	a1 24 00 00 00	 mov	 eax, DWORD PTR ?_AtlWinModule@ATL@@3VCAtlWinModule@1@A+36
  00028	56		 push	 esi
  00029	33 f6		 xor	 esi, esi
  0002b	85 c0		 test	 eax, eax
  0002d	7e 35		 jle	 SHORT $LN10@dynamic
  0002f	53		 push	 ebx
  00030	8b 1d 00 00 00
	00		 mov	 ebx, DWORD PTR __imp__UnregisterClassA@8
$LL11@dynamic:
; File C:\Program Files (x86)\Microsoft Visual Studio\2019\Community\VC\Tools\MSVC\14.29.30133\atlmfc\include\atlsimpcoll.h

; 238  : 		if(nIndex < 0 || nIndex >= m_nSize)

  00036	85 f6		 test	 esi, esi
  00038	0f 88 9e 00 00
	00		 js	 $LN46@dynamic
  0003e	3b f0		 cmp	 esi, eax
  00040	0f 8d 96 00 00
	00		 jge	 $LN46@dynamic
; File C:\Program Files (x86)\Microsoft Visual Studio\2019\Community\VC\Tools\MSVC\14.29.30133\atlmfc\include\atlbase.h

; 7661 : 		UnregisterClass((LPCTSTR)pWinModule->m_rgWindowClassAtoms[i], hInst);

  00046	a1 20 00 00 00	 mov	 eax, DWORD PTR ?_AtlWinModule@ATL@@3VCAtlWinModule@1@A+32
  0004b	57		 push	 edi
  0004c	0f b7 04 70	 movzx	 eax, WORD PTR [eax+esi*2]
  00050	50		 push	 eax
  00051	ff d3		 call	 ebx
  00053	a1 24 00 00 00	 mov	 eax, DWORD PTR ?_AtlWinModule@ATL@@3VCAtlWinModule@1@A+36
  00058	46		 inc	 esi
  00059	3b f0		 cmp	 esi, eax
  0005b	7c d9		 jl	 SHORT $LL11@dynamic
; File C:\Program Files (x86)\Microsoft Visual Studio\2019\Community\VC\Tools\MSVC\14.29.30133\atlmfc\include\atlsimpcoll.h

; 238  : 		if(nIndex < 0 || nIndex >= m_nSize)

  0005d	8b 0d 00 00 00
	00		 mov	 ecx, DWORD PTR __imp__free
  00063	5b		 pop	 ebx
$LN10@dynamic:

; 216  : 		if(m_aT != NULL)

  00064	a1 20 00 00 00	 mov	 eax, DWORD PTR ?_AtlWinModule@ATL@@3VCAtlWinModule@1@A+32
  00069	5e		 pop	 esi
  0006a	85 c0		 test	 eax, eax
  0006c	74 10		 je	 SHORT $LN25@dynamic

; 217  : 		{
; 218  : 			for(int i = 0; i < m_nSize; i++)
; 219  : 				m_aT[i].~T();
; 220  : 			free(m_aT);

  0006e	50		 push	 eax
  0006f	ff d1		 call	 ecx
  00071	83 c4 04	 add	 esp, 4

; 221  : 			m_aT = NULL;

  00074	c7 05 20 00 00
	00 00 00 00 00	 mov	 DWORD PTR ?_AtlWinModule@ATL@@3VCAtlWinModule@1@A+32, 0
$LN25@dynamic:
; File C:\Program Files (x86)\Microsoft Visual Studio\2019\Community\VC\Tools\MSVC\14.29.30133\atlmfc\include\atlcore.h

; 155  : 		DeleteCriticalSection(&m_sec);

  0007e	68 04 00 00 00	 push	 OFFSET ?_AtlWinModule@ATL@@3VCAtlWinModule@1@A+4
; File C:\Program Files (x86)\Microsoft Visual Studio\2019\Community\VC\Tools\MSVC\14.29.30133\atlmfc\include\atlsimpcoll.h

; 223  : 		m_nSize = 0;

  00083	c7 05 24 00 00
	00 00 00 00 00	 mov	 DWORD PTR ?_AtlWinModule@ATL@@3VCAtlWinModule@1@A+36, 0

; 224  : 		m_nAllocSize = 0;

  0008d	c7 05 28 00 00
	00 00 00 00 00	 mov	 DWORD PTR ?_AtlWinModule@ATL@@3VCAtlWinModule@1@A+40, 0
; File C:\Program Files (x86)\Microsoft Visual Studio\2019\Community\VC\Tools\MSVC\14.29.30133\atlmfc\include\atlcore.h

; 155  : 		DeleteCriticalSection(&m_sec);

  00097	ff 15 00 00 00
	00		 call	 DWORD PTR __imp__DeleteCriticalSection@4
; File C:\Program Files (x86)\Microsoft Visual Studio\2019\Community\VC\Tools\MSVC\14.29.30133\atlmfc\include\atlbase.h

; 7664 : 	pWinModule->cbSize = 0;

  0009d	8b 0d 00 00 00
	00		 mov	 ecx, DWORD PTR __imp__free
  000a3	c7 05 00 00 00
	00 00 00 00 00	 mov	 DWORD PTR ?_AtlWinModule@ATL@@3VCAtlWinModule@1@A, 0
$LN8@dynamic:
; File C:\Program Files (x86)\Microsoft Visual Studio\2019\Community\VC\Tools\MSVC\14.29.30133\atlmfc\include\atlsimpcoll.h

; 216  : 		if(m_aT != NULL)

  000ad	a1 20 00 00 00	 mov	 eax, DWORD PTR ?_AtlWinModule@ATL@@3VCAtlWinModule@1@A+32
  000b2	5f		 pop	 edi
  000b3	85 c0		 test	 eax, eax
  000b5	74 10		 je	 SHORT $LN40@dynamic

; 217  : 		{
; 218  : 			for(int i = 0; i < m_nSize; i++)
; 219  : 				m_aT[i].~T();
; 220  : 			free(m_aT);

  000b7	50		 push	 eax
  000b8	ff d1		 call	 ecx
  000ba	83 c4 04	 add	 esp, 4

; 221  : 			m_aT = NULL;

  000bd	c7 05 20 00 00
	00 00 00 00 00	 mov	 DWORD PTR ?_AtlWinModule@ATL@@3VCAtlWinModule@1@A+32, 0
$LN40@dynamic:

; 223  : 		m_nSize = 0;

  000c7	c7 05 24 00 00
	00 00 00 00 00	 mov	 DWORD PTR ?_AtlWinModule@ATL@@3VCAtlWinModule@1@A+36, 0

; 224  : 		m_nAllocSize = 0;

  000d1	c7 05 28 00 00
	00 00 00 00 00	 mov	 DWORD PTR ?_AtlWinModule@ATL@@3VCAtlWinModule@1@A+40, 0
  000db	c3		 ret	 0
$LN46@dynamic:

; 240  : 			_AtlRaiseException((DWORD)EXCEPTION_ARRAY_BOUNDS_EXCEEDED);

  000dc	6a 01		 push	 1
  000de	68 8c 00 00 c0	 push	 -1073741684		; c000008cH
  000e3	e8 00 00 00 00	 call	 ?_AtlRaiseException@ATL@@YAXKK@Z ; ATL::_AtlRaiseException
$LN56@dynamic:
  000e8	cc		 int	 3
??__F_AtlWinModule@ATL@@YAXXZ ENDP			; ATL::`dynamic atexit destructor for '_AtlWinModule''
text$yd	ENDS
; Function compile flags: /Ogtp
; File C:\Program Files (x86)\Microsoft Visual Studio\2019\Community\VC\Tools\MSVC\14.29.30133\atlmfc\include\atlbase.h
; File C:\Program Files (x86)\Microsoft Visual Studio\2019\Community\VC\Tools\MSVC\14.29.30133\atlmfc\include\atlwinverapi.h
; File C:\Program Files (x86)\Microsoft Visual Studio\2019\Community\VC\Tools\MSVC\14.29.30133\atlmfc\include\atlcore.h
; File C:\Program Files (x86)\Windows Kits\10\Include\10.0.22000.0\shared\winerror.h
; File C:\Program Files (x86)\Microsoft Visual Studio\2019\Community\VC\Tools\MSVC\14.29.30133\atlmfc\include\atlbase.h
;	COMDAT ??__E_AtlWinModule@ATL@@YAXXZ
text$di	SEGMENT
??__E_AtlWinModule@ATL@@YAXXZ PROC			; ATL::`dynamic initializer for '_AtlWinModule'', COMDAT
; File C:\Program Files (x86)\Microsoft Visual Studio\2019\Community\VC\Tools\MSVC\14.29.30133\atlmfc\include\atlwinverapi.h

; 730  : 	return ::InitializeCriticalSectionEx(lpCriticalSection, dwSpinCount, Flags);

  00000	6a 00		 push	 0
  00002	6a 00		 push	 0
  00004	68 04 00 00 00	 push	 OFFSET ?_AtlWinModule@ATL@@3VCAtlWinModule@1@A+4
  00009	ff 15 00 00 00
	00		 call	 DWORD PTR __imp__InitializeCriticalSectionEx@12
; File C:\Program Files (x86)\Microsoft Visual Studio\2019\Community\VC\Tools\MSVC\14.29.30133\atlmfc\include\atlcore.h

; 145  : 		if (!_AtlInitializeCriticalSectionEx(&m_sec, 0, 0))

  0000f	85 c0		 test	 eax, eax
  00011	75 27		 jne	 SHORT $LN4@dynamic

; 146  : 		{
; 147  : 			hRes = HRESULT_FROM_WIN32(GetLastError());

  00013	ff 15 00 00 00
	00		 call	 DWORD PTR __imp__GetLastError@0
; File C:\Program Files (x86)\Windows Kits\10\Include\10.0.22000.0\shared\winerror.h

; 29673: FORCEINLINE _Translates_Win32_to_HRESULT_(x) HRESULT HRESULT_FROM_WIN32(unsigned long x) { return (HRESULT)(x) <= 0 ? (HRESULT)(x) : (HRESULT) (((x) & 0x0000FFFF) | (FACILITY_WIN32 << 16) | 0x80000000);}

  00019	85 c0		 test	 eax, eax
  0001b	7e 0a		 jle	 SHORT $LN26@dynamic
  0001d	0f b7 c0	 movzx	 eax, ax
  00020	0d 00 00 07 80	 or	 eax, -2147024896	; 80070000H
; File C:\Program Files (x86)\Microsoft Visual Studio\2019\Community\VC\Tools\MSVC\14.29.30133\atlmfc\include\atlbase.h

; 2941 : 		if (FAILED(hr))

  00025	85 c0		 test	 eax, eax
$LN26@dynamic:
  00027	79 11		 jns	 SHORT $LN4@dynamic

; 2942 : 		{
; 2943 : 			ATLASSERT(0);
; 2944 : 			CAtlBaseModule::m_bInitFailed = true;

  00029	c6 05 00 00 00
	00 01		 mov	 BYTE PTR ?m_bInitFailed@CAtlBaseModule@ATL@@2_NA, 1 ; ATL::CAtlBaseModule::m_bInitFailed

; 2945 : 			cbSize = 0;

  00030	c7 05 00 00 00
	00 00 00 00 00	 mov	 DWORD PTR ?_AtlWinModule@ATL@@3VCAtlWinModule@1@A, 0
$LN4@dynamic:

; 2972 : __declspec(selectany) CAtlWinModule _AtlWinModule;

  0003a	68 00 00 00 00	 push	 OFFSET ??__F_AtlWinModule@ATL@@YAXXZ ; ATL::`dynamic atexit destructor for '_AtlWinModule''
  0003f	e8 00 00 00 00	 call	 _atexit
  00044	59		 pop	 ecx
  00045	c3		 ret	 0
??__E_AtlWinModule@ATL@@YAXXZ ENDP			; ATL::`dynamic initializer for '_AtlWinModule''
text$di	ENDS
; Function compile flags: /Ogtp
; File C:\Program Files (x86)\Microsoft Visual Studio\2019\Community\VC\Tools\MSVC\14.29.30133\atlmfc\include\atlwinverapi.h
;	COMDAT ?_AtlInitializeCriticalSectionEx@ATL@@YAHPAU_RTL_CRITICAL_SECTION@@KK@Z
_TEXT	SEGMENT
_lpCriticalSection$ = 8					; size = 4
_dwSpinCount$ = 12					; size = 4
_Flags$ = 16						; size = 4
?_AtlInitializeCriticalSectionEx@ATL@@YAHPAU_RTL_CRITICAL_SECTION@@KK@Z PROC ; ATL::_AtlInitializeCriticalSectionEx, COMDAT

; 727  : {

  00000	55		 push	 ebp
  00001	8b ec		 mov	 ebp, esp

; 728  : #if (NTDDI_VERSION >= NTDDI_VISTA) && !defined(_USING_V110_SDK71_) && !defined(_ATL_XP_TARGETING)
; 729  : 	// InitializeCriticalSectionEx is available in Vista or later, desktop or store apps
; 730  : 	return ::InitializeCriticalSectionEx(lpCriticalSection, dwSpinCount, Flags);

  00003	ff 75 10	 push	 DWORD PTR _Flags$[ebp]
  00006	ff 75 0c	 push	 DWORD PTR _dwSpinCount$[ebp]
  00009	ff 75 08	 push	 DWORD PTR _lpCriticalSection$[ebp]
  0000c	ff 15 00 00 00
	00		 call	 DWORD PTR __imp__InitializeCriticalSectionEx@12

; 731  : #else
; 732  : 	UNREFERENCED_PARAMETER(Flags);
; 733  : 
; 734  : 	// ...otherwise fall back to using InitializeCriticalSectionAndSpinCount.
; 735  : 	return ::InitializeCriticalSectionAndSpinCount(lpCriticalSection, dwSpinCount);
; 736  : #endif
; 737  : }

  00012	5d		 pop	 ebp
  00013	c3		 ret	 0
?_AtlInitializeCriticalSectionEx@ATL@@YAHPAU_RTL_CRITICAL_SECTION@@KK@Z ENDP ; ATL::_AtlInitializeCriticalSectionEx
_TEXT	ENDS
; Function compile flags: /Ogtp
; File C:\Program Files (x86)\Microsoft Visual Studio\2019\Community\VC\Tools\MSVC\14.29.30133\atlmfc\include\atlexcept.h
;	COMDAT ?_AtlRaiseException@ATL@@YAXKK@Z
_TEXT	SEGMENT
_dwExceptionCode$ = 8					; size = 4
_dwExceptionFlags$ = 12					; size = 4
?_AtlRaiseException@ATL@@YAXKK@Z PROC			; ATL::_AtlRaiseException, COMDAT

; 30   : {

  00000	55		 push	 ebp
  00001	8b ec		 mov	 ebp, esp

; 31   : 	RaiseException( dwExceptionCode, dwExceptionFlags, 0, NULL );

  00003	6a 00		 push	 0
  00005	6a 00		 push	 0
  00007	ff 75 0c	 push	 DWORD PTR _dwExceptionFlags$[ebp]
  0000a	ff 75 08	 push	 DWORD PTR _dwExceptionCode$[ebp]
  0000d	ff 15 00 00 00
	00		 call	 DWORD PTR __imp__RaiseException@16

; 32   : }

  00013	5d		 pop	 ebp
  00014	c3		 ret	 0
?_AtlRaiseException@ATL@@YAXKK@Z ENDP			; ATL::_AtlRaiseException
_TEXT	ENDS
; Function compile flags: /Ogtp
; File C:\Program Files (x86)\Microsoft Visual Studio\2019\Community\VC\Tools\MSVC\14.29.30133\atlmfc\include\afx.inl
;	COMDAT ?Dump@CObject@@UBEXAAVCDumpContext@@@Z
_TEXT	SEGMENT
___formal$ = 8						; size = 4
?Dump@CObject@@UBEXAAVCDumpContext@@@Z PROC		; CObject::Dump, COMDAT
; _this$ = ecx

; 122  : 	{ /* no dumping in release builds */ }

  00000	c2 04 00	 ret	 4
?Dump@CObject@@UBEXAAVCDumpContext@@@Z ENDP		; CObject::Dump
_TEXT	ENDS
; Function compile flags: /Ogtp
; File C:\Program Files (x86)\Microsoft Visual Studio\2019\Community\VC\Tools\MSVC\14.29.30133\atlmfc\include\afx.inl
;	COMDAT ?AssertValid@CObject@@UBEXXZ
_TEXT	SEGMENT
?AssertValid@CObject@@UBEXXZ PROC			; CObject::AssertValid, COMDAT
; _this$ = ecx

; 120  : 	{ /* no asserts in release builds */ }

  00000	c2 00 00	 ret	 0
?AssertValid@CObject@@UBEXXZ ENDP			; CObject::AssertValid
_TEXT	ENDS
; Function compile flags: /Ogtp
; File C:\Program Files (x86)\Microsoft Visual Studio\2019\Community\VC\Tools\MSVC\14.29.30133\atlmfc\include\afx.inl
;	COMDAT ?Serialize@CObject@@UAEXAAVCArchive@@@Z
_TEXT	SEGMENT
___formal$ = 8						; size = 4
?Serialize@CObject@@UAEXAAVCArchive@@@Z PROC		; CObject::Serialize, COMDAT
; _this$ = ecx

; 106  : 	{ /* CObject does not serialize anything by default */ }

  00000	c2 04 00	 ret	 4
?Serialize@CObject@@UAEXAAVCArchive@@@Z ENDP		; CObject::Serialize
_TEXT	ENDS
; Function compile flags: /Ogtp
; File C:\Program Files (x86)\Microsoft Visual Studio\2019\Community\VC\Tools\MSVC\14.29.30133\atlmfc\include\afx.inl
;	COMDAT ??3CObject@@SGXPAX@Z
_TEXT	SEGMENT
_p$ = 8							; size = 4
??3CObject@@SGXPAX@Z PROC				; CObject::operator delete, COMDAT

; 112  : 	{ ::operator delete(p); }

  00000	55		 push	 ebp
  00001	8b ec		 mov	 ebp, esp
  00003	ff 75 08	 push	 DWORD PTR _p$[ebp]
  00006	e8 00 00 00 00	 call	 ??3@YAXPAX@Z		; operator delete
  0000b	83 c4 04	 add	 esp, 4
  0000e	5d		 pop	 ebp
  0000f	c2 04 00	 ret	 4
??3CObject@@SGXPAX@Z ENDP				; CObject::operator delete
_TEXT	ENDS
; Function compile flags: /Ogtp
; File C:\Program Files (x86)\Microsoft Visual Studio\2019\Community\VC\Tools\MSVC\14.29.30133\atlmfc\include\afx.inl
;	COMDAT ??1CObject@@UAE@XZ
_TEXT	SEGMENT
??1CObject@@UAE@XZ PROC					; CObject::~CObject, COMDAT
; _this$ = ecx

; 104  : 	{ }

  00000	c2 00 00	 ret	 0
??1CObject@@UAE@XZ ENDP					; CObject::~CObject
_TEXT	ENDS
; Function compile flags: /Ogtp
; File D:\git\src\IBK\IBK_DRFN\ProjSrc\SrcDrfn\Chart\MULTICHART\TabIndices.cpp
;	COMDAT ?__empty_global_delete@@YAXPAXI@Z
_TEXT	SEGMENT
___formal$ = 8						; size = 4
___formal$ = 12						; size = 4
?__empty_global_delete@@YAXPAXI@Z PROC			; __empty_global_delete, COMDAT

  00000	c2 00 00	 ret	 0
?__empty_global_delete@@YAXPAXI@Z ENDP			; __empty_global_delete
_TEXT	ENDS
; Function compile flags: /Ogtp
; File D:\git\src\IBK\IBK_DRFN\ProjSrc\SrcDrfn\Chart\MULTICHART\TabIndices.cpp
;	COMDAT ?__empty_global_delete@@YAXPAX@Z
_TEXT	SEGMENT
___formal$ = 8						; size = 4
?__empty_global_delete@@YAXPAX@Z PROC			; __empty_global_delete, COMDAT

  00000	c2 00 00	 ret	 0
?__empty_global_delete@@YAXPAX@Z ENDP			; __empty_global_delete
_TEXT	ENDS
END
