; Listing generated by Microsoft (R) Optimizing Compiler Version 19.29.30145.0 

	TITLE	D:\git\src\IBK\IBK_DRFN\#DRfn-CS\_Obj\MultiChart\TabSystemTradingEx.obj
	.686P
	.XMM
	include listing.inc
	.model	flat

INCLUDELIB MSVCRT
INCLUDELIB OLDNAMES

PUBLIC	??_C@_0BB@IBKHOHJL@RMSG_REPLAY_REAL@		; `string'
PUBLIC	??_C@_0BB@JFLGBADG@RMSG_REPLAY_FAIL@		; `string'
PUBLIC	??_C@_0BI@KDGAIIMD@RMSG_REPLAY_CHANGE_DATE@	; `string'
PUBLIC	??_C@_0BA@NKHHCPON@RMSG_REPLAY_END@		; `string'
PUBLIC	??_C@_0BE@JFCIMCIP@RMSG_REPLAY_INC_SEC@		; `string'
PUBLIC	??_C@_0BG@GIAJEIJF@RMSG_REPLAY_TOTAL_SEC@	; `string'
PUBLIC	??_C@_0BG@OHIMHJEO@RMSG_STTREE_ITEMCLICK@	; `string'
PUBLIC	??_C@_0BH@LAAMLACL@RMSG_STTREE_ITEMDBLCLK@	; `string'
PUBLIC	??_C@_0P@BKKCOCLK@RMSG_INTERFACE@		; `string'
PUBLIC	?m_bInitFailed@CAtlBaseModule@ATL@@2_NA		; ATL::CAtlBaseModule::m_bInitFailed
PUBLIC	?WM_ATLGETHOST@ATL@@3IA				; ATL::WM_ATLGETHOST
PUBLIC	?WM_ATLGETCONTROL@ATL@@3IA			; ATL::WM_ATLGETCONTROL
PUBLIC	??_C@_0BE@FJPKENOB@RMSG_GETSIGNAL_REAL@		; `string'
PUBLIC	??_C@_0BB@CNOFPEHG@RMSG_SETQUERYOPT@		; `string'
PUBLIC	??_C@_0P@KHFCBIOH@RMSG_CHARTMAIN@		; `string'
PUBLIC	??_C@_0BC@MMPGLPDH@RMS_ANALYSIS_FUNC@		; `string'
PUBLIC	??_C@_0BA@HKNFENJL@RMSG_GET_USERID@		; `string'
PUBLIC	??_C@_0BG@CNPAHNGG@RMSG_CHANGE_SKINCOLOR@	; `string'
PUBLIC	??_C@_0BD@FLDNDDHK@RMSG_GET_SKINCOLOR@		; `string'
PUBLIC	??_C@_0BJ@JLKHIBIK@RMSG_CHANGEVERTSCALETYPE@	; `string'
PUBLIC	??_C@_0BG@LNLCJKPF@RMSG_CHANGE_CROSSLINE@	; `string'
PUBLIC	??_C@_0BH@IFDMIMBP@RMSG_ADD_PLATFORM_MENU@	; `string'
PUBLIC	??_C@_0BJ@OGNAJHHI@RMSG_SETINITIALCHARTDATA@	; `string'
PUBLIC	??_C@_0N@IIOKMIEH@RMSG_GETINFO@			; `string'
PUBLIC	??_C@_0N@HABLPHJG@RMSG_SETINFO@			; `string'
PUBLIC	?_pAtlModule@ATL@@3PAVCAtlModule@1@A		; ATL::_pAtlModule
PUBLIC	??_C@_0BC@LAMDBJGM@RMSG_OB_ITEMCLICK@		; `string'
PUBLIC	??_C@_0BD@GFDLLOKP@RMSG_OB_ITEMDBLCLK@		; `string'
PUBLIC	??_C@_0BB@MOBJEGOO@RMSG_RUN_MULTIST@		; `string'
PUBLIC	??_C@_0BP@BAPIAINO@RMSG_INDEXADDIN_NOTIFY_RAWDATA@ ; `string'
PUBLIC	??_C@_0BP@DPOBLABI@RMSG_INDEXADDIN_NOTIFY_BUYSELL@ ; `string'
PUBLIC	??_C@_0BO@OEMLJDPK@RMSG_INDEXADDIN_NOTIFY_SIGNAL@ ; `string'
PUBLIC	??_C@_0BI@HDHMAMNF@RMSG_DESTROY_CONFIRMWND@	; `string'
PUBLIC	??_C@_0BK@HAGIDNEN@RMSG_GET_SCREENVIEWHANDLE@	; `string'
PUBLIC	??_C@_0BG@LAFFFKAH@RMSG_REQUEST_HOGADATA@	; `string'
PUBLIC	??_C@_0BC@HAIAMDMN@RMSG_ISSTRUNSTATE@		; `string'
PUBLIC	?_pAtlAutoThreadModule@ATL@@3PAUIAtlAutoThreadModule@1@A ; ATL::_pAtlAutoThreadModule
EXTRN	?_AtlBaseModule@ATL@@3VCAtlBaseModule@1@A:BYTE	; ATL::_AtlBaseModule
;	COMDAT ?m_bInitFailed@CAtlBaseModule@ATL@@2_NA
_BSS	SEGMENT
?m_bInitFailed@CAtlBaseModule@ATL@@2_NA DB 01H DUP (?)	; ATL::CAtlBaseModule::m_bInitFailed
_BSS	ENDS
;	COMDAT ?WM_ATLGETHOST@ATL@@3IA
_BSS	SEGMENT
?WM_ATLGETHOST@ATL@@3IA DD 01H DUP (?)			; ATL::WM_ATLGETHOST
_BSS	ENDS
;	COMDAT ?WM_ATLGETCONTROL@ATL@@3IA
_BSS	SEGMENT
?WM_ATLGETCONTROL@ATL@@3IA DD 01H DUP (?)		; ATL::WM_ATLGETCONTROL
_BSS	ENDS
;	COMDAT ?_pAtlModule@ATL@@3PAVCAtlModule@1@A
_BSS	SEGMENT
?_pAtlModule@ATL@@3PAVCAtlModule@1@A DD 01H DUP (?)	; ATL::_pAtlModule
_BSS	ENDS
;	COMDAT ?_pAtlAutoThreadModule@ATL@@3PAUIAtlAutoThreadModule@1@A
_BSS	SEGMENT
?_pAtlAutoThreadModule@ATL@@3PAUIAtlAutoThreadModule@1@A DD 01H DUP (?) ; ATL::_pAtlAutoThreadModule
_BSS	ENDS
;	COMDAT ??_C@_0BC@HAIAMDMN@RMSG_ISSTRUNSTATE@
CONST	SEGMENT
??_C@_0BC@HAIAMDMN@RMSG_ISSTRUNSTATE@ DB 'RMSG_ISSTRUNSTATE', 00H ; `string'
CONST	ENDS
;	COMDAT ??_C@_0BG@LAFFFKAH@RMSG_REQUEST_HOGADATA@
CONST	SEGMENT
??_C@_0BG@LAFFFKAH@RMSG_REQUEST_HOGADATA@ DB 'RMSG_REQUEST_HOGADATA', 00H ; `string'
CONST	ENDS
;	COMDAT ??_C@_0BK@HAGIDNEN@RMSG_GET_SCREENVIEWHANDLE@
CONST	SEGMENT
??_C@_0BK@HAGIDNEN@RMSG_GET_SCREENVIEWHANDLE@ DB 'RMSG_GET_SCREENVIEWHAND'
	DB	'LE', 00H					; `string'
CONST	ENDS
;	COMDAT ??_C@_0BI@HDHMAMNF@RMSG_DESTROY_CONFIRMWND@
CONST	SEGMENT
??_C@_0BI@HDHMAMNF@RMSG_DESTROY_CONFIRMWND@ DB 'RMSG_DESTROY_CONFIRMWND', 00H ; `string'
CONST	ENDS
;	COMDAT ??_C@_0BO@OEMLJDPK@RMSG_INDEXADDIN_NOTIFY_SIGNAL@
CONST	SEGMENT
??_C@_0BO@OEMLJDPK@RMSG_INDEXADDIN_NOTIFY_SIGNAL@ DB 'RMSG_INDEXADDIN_NOT'
	DB	'IFY_SIGNAL', 00H				; `string'
CONST	ENDS
;	COMDAT ??_C@_0BP@DPOBLABI@RMSG_INDEXADDIN_NOTIFY_BUYSELL@
CONST	SEGMENT
??_C@_0BP@DPOBLABI@RMSG_INDEXADDIN_NOTIFY_BUYSELL@ DB 'RMSG_INDEXADDIN_NO'
	DB	'TIFY_BUYSELL', 00H				; `string'
CONST	ENDS
;	COMDAT ??_C@_0BP@BAPIAINO@RMSG_INDEXADDIN_NOTIFY_RAWDATA@
CONST	SEGMENT
??_C@_0BP@BAPIAINO@RMSG_INDEXADDIN_NOTIFY_RAWDATA@ DB 'RMSG_INDEXADDIN_NO'
	DB	'TIFY_RAWDATA', 00H				; `string'
CONST	ENDS
;	COMDAT ??_C@_0BB@MOBJEGOO@RMSG_RUN_MULTIST@
CONST	SEGMENT
??_C@_0BB@MOBJEGOO@RMSG_RUN_MULTIST@ DB 'RMSG_RUN_MULTIST', 00H ; `string'
CONST	ENDS
;	COMDAT ??_C@_0BD@GFDLLOKP@RMSG_OB_ITEMDBLCLK@
CONST	SEGMENT
??_C@_0BD@GFDLLOKP@RMSG_OB_ITEMDBLCLK@ DB 'RMSG_OB_ITEMDBLCLK', 00H ; `string'
CONST	ENDS
;	COMDAT ??_C@_0BC@LAMDBJGM@RMSG_OB_ITEMCLICK@
CONST	SEGMENT
??_C@_0BC@LAMDBJGM@RMSG_OB_ITEMCLICK@ DB 'RMSG_OB_ITEMCLICK', 00H ; `string'
CONST	ENDS
;	COMDAT ??_C@_0N@HABLPHJG@RMSG_SETINFO@
CONST	SEGMENT
??_C@_0N@HABLPHJG@RMSG_SETINFO@ DB 'RMSG_SETINFO', 00H	; `string'
CONST	ENDS
;	COMDAT ??_C@_0N@IIOKMIEH@RMSG_GETINFO@
CONST	SEGMENT
??_C@_0N@IIOKMIEH@RMSG_GETINFO@ DB 'RMSG_GETINFO', 00H	; `string'
CONST	ENDS
;	COMDAT ??_C@_0BJ@OGNAJHHI@RMSG_SETINITIALCHARTDATA@
CONST	SEGMENT
??_C@_0BJ@OGNAJHHI@RMSG_SETINITIALCHARTDATA@ DB 'RMSG_SETINITIALCHARTDATA'
	DB	00H						; `string'
CONST	ENDS
;	COMDAT ??_C@_0BH@IFDMIMBP@RMSG_ADD_PLATFORM_MENU@
CONST	SEGMENT
??_C@_0BH@IFDMIMBP@RMSG_ADD_PLATFORM_MENU@ DB 'RMSG_ADD_PLATFORM_MENU', 00H ; `string'
CONST	ENDS
;	COMDAT ??_C@_0BG@LNLCJKPF@RMSG_CHANGE_CROSSLINE@
CONST	SEGMENT
??_C@_0BG@LNLCJKPF@RMSG_CHANGE_CROSSLINE@ DB 'RMSG_CHANGE_CROSSLINE', 00H ; `string'
CONST	ENDS
;	COMDAT ??_C@_0BJ@JLKHIBIK@RMSG_CHANGEVERTSCALETYPE@
CONST	SEGMENT
??_C@_0BJ@JLKHIBIK@RMSG_CHANGEVERTSCALETYPE@ DB 'RMSG_CHANGEVERTSCALETYPE'
	DB	00H						; `string'
CONST	ENDS
;	COMDAT ??_C@_0BD@FLDNDDHK@RMSG_GET_SKINCOLOR@
CONST	SEGMENT
??_C@_0BD@FLDNDDHK@RMSG_GET_SKINCOLOR@ DB 'RMSG_GET_SKINCOLOR', 00H ; `string'
CONST	ENDS
;	COMDAT ??_C@_0BG@CNPAHNGG@RMSG_CHANGE_SKINCOLOR@
CONST	SEGMENT
??_C@_0BG@CNPAHNGG@RMSG_CHANGE_SKINCOLOR@ DB 'RMSG_CHANGE_SKINCOLOR', 00H ; `string'
CONST	ENDS
;	COMDAT ??_C@_0BA@HKNFENJL@RMSG_GET_USERID@
CONST	SEGMENT
??_C@_0BA@HKNFENJL@RMSG_GET_USERID@ DB 'RMSG_GET_USERID', 00H ; `string'
CONST	ENDS
;	COMDAT ??_C@_0BC@MMPGLPDH@RMS_ANALYSIS_FUNC@
CONST	SEGMENT
??_C@_0BC@MMPGLPDH@RMS_ANALYSIS_FUNC@ DB 'RMS_ANALYSIS_FUNC', 00H ; `string'
CONST	ENDS
;	COMDAT ??_C@_0P@KHFCBIOH@RMSG_CHARTMAIN@
CONST	SEGMENT
??_C@_0P@KHFCBIOH@RMSG_CHARTMAIN@ DB 'RMSG_CHARTMAIN', 00H ; `string'
CONST	ENDS
;	COMDAT ??_C@_0BB@CNOFPEHG@RMSG_SETQUERYOPT@
CONST	SEGMENT
??_C@_0BB@CNOFPEHG@RMSG_SETQUERYOPT@ DB 'RMSG_SETQUERYOPT', 00H ; `string'
CONST	ENDS
;	COMDAT ??_C@_0BE@FJPKENOB@RMSG_GETSIGNAL_REAL@
CONST	SEGMENT
??_C@_0BE@FJPKENOB@RMSG_GETSIGNAL_REAL@ DB 'RMSG_GETSIGNAL_REAL', 00H ; `string'
CONST	ENDS
;	COMDAT ??_C@_0P@BKKCOCLK@RMSG_INTERFACE@
CONST	SEGMENT
??_C@_0P@BKKCOCLK@RMSG_INTERFACE@ DB 'RMSG_INTERFACE', 00H ; `string'
CONST	ENDS
;	COMDAT ??_C@_0BH@LAAMLACL@RMSG_STTREE_ITEMDBLCLK@
CONST	SEGMENT
??_C@_0BH@LAAMLACL@RMSG_STTREE_ITEMDBLCLK@ DB 'RMSG_STTREE_ITEMDBLCLK', 00H ; `string'
CONST	ENDS
;	COMDAT ??_C@_0BG@OHIMHJEO@RMSG_STTREE_ITEMCLICK@
CONST	SEGMENT
??_C@_0BG@OHIMHJEO@RMSG_STTREE_ITEMCLICK@ DB 'RMSG_STTREE_ITEMCLICK', 00H ; `string'
CONST	ENDS
;	COMDAT ??_C@_0BG@GIAJEIJF@RMSG_REPLAY_TOTAL_SEC@
CONST	SEGMENT
??_C@_0BG@GIAJEIJF@RMSG_REPLAY_TOTAL_SEC@ DB 'RMSG_REPLAY_TOTAL_SEC', 00H ; `string'
CONST	ENDS
;	COMDAT ??_C@_0BE@JFCIMCIP@RMSG_REPLAY_INC_SEC@
CONST	SEGMENT
??_C@_0BE@JFCIMCIP@RMSG_REPLAY_INC_SEC@ DB 'RMSG_REPLAY_INC_SEC', 00H ; `string'
CONST	ENDS
;	COMDAT ??_C@_0BA@NKHHCPON@RMSG_REPLAY_END@
CONST	SEGMENT
??_C@_0BA@NKHHCPON@RMSG_REPLAY_END@ DB 'RMSG_REPLAY_END', 00H ; `string'
CONST	ENDS
;	COMDAT ??_C@_0BI@KDGAIIMD@RMSG_REPLAY_CHANGE_DATE@
CONST	SEGMENT
??_C@_0BI@KDGAIIMD@RMSG_REPLAY_CHANGE_DATE@ DB 'RMSG_REPLAY_CHANGE_DATE', 00H ; `string'
CONST	ENDS
;	COMDAT ??_C@_0BB@JFLGBADG@RMSG_REPLAY_FAIL@
CONST	SEGMENT
??_C@_0BB@JFLGBADG@RMSG_REPLAY_FAIL@ DB 'RMSG_REPLAY_FAIL', 00H ; `string'
CONST	ENDS
;	COMDAT ??_C@_0BB@IBKHOHJL@RMSG_REPLAY_REAL@
CONST	SEGMENT
??_C@_0BB@IBKHOHJL@RMSG_REPLAY_REAL@ DB 'RMSG_REPLAY_REAL', 00H ; `string'
CONST	ENDS
PUBLIC	?__empty_global_delete@@YAXPAX@Z		; __empty_global_delete
PUBLIC	?__empty_global_delete@@YAXPAXI@Z		; __empty_global_delete
PUBLIC	___local_stdio_printf_options
PUBLIC	___local_stdio_scanf_options
PUBLIC	_sprintf
PUBLIC	_sscanf
PUBLIC	??1CObject@@UAE@XZ				; CObject::~CObject
PUBLIC	??3CObject@@SGXPAX@Z				; CObject::operator delete
PUBLIC	?Serialize@CObject@@UAEXAAVCArchive@@@Z		; CObject::Serialize
PUBLIC	?AssertValid@CObject@@UBEXXZ			; CObject::AssertValid
PUBLIC	?Dump@CObject@@UBEXAAVCDumpContext@@@Z		; CObject::Dump
PUBLIC	?_AtlRaiseException@ATL@@YAXKK@Z		; ATL::_AtlRaiseException
PUBLIC	?_AtlInitializeCriticalSectionEx@ATL@@YAHPAU_RTL_CRITICAL_SECTION@@KK@Z ; ATL::_AtlInitializeCriticalSectionEx
PUBLIC	??HATL@@YA?AV?$CStringT@DV?$StrTraitMFC_DLL@DV?$ChTraitsCRT@D@ATL@@@@@0@ABV10@0@Z ; ATL::operator+
PUBLIC	??HATL@@YA?AV?$CStringT@DV?$StrTraitMFC_DLL@DV?$ChTraitsCRT@D@ATL@@@@@0@ABV10@PBD@Z ; ATL::operator+
PUBLIC	?_AfxInitManaged@@YAHXZ				; _AfxInitManaged
PUBLIC	??1CGdiObject@@UAE@XZ				; CGdiObject::~CGdiObject
PUBLIC	??_GCGdiObject@@UAEPAXI@Z			; CGdiObject::`scalar deleting destructor'
PUBLIC	??1CBitmap@@UAE@XZ				; CBitmap::~CBitmap
PUBLIC	??_GCBitmap@@UAEPAXI@Z				; CBitmap::`scalar deleting destructor'
PUBLIC	??1CMenu@@UAE@XZ				; CMenu::~CMenu
PUBLIC	??_GCMenu@@UAEPAXI@Z				; CMenu::`scalar deleting destructor'
PUBLIC	?BeginModalState@CWnd@@UAEXXZ			; CWnd::BeginModalState
PUBLIC	?EndModalState@CWnd@@UAEXXZ			; CWnd::EndModalState
PUBLIC	?ReceiveData@CTabDlg@@UAEXPAUHWND__@@PBD11PAXJ@Z ; CTabDlg::ReceiveData
PUBLIC	?SetRealPriceData@CTabDlg@@UAEXPAX@Z		; CTabDlg::SetRealPriceData
PUBLIC	?ReceiveDataFromOutSide@CTabDlg@@UAEXXZ		; CTabDlg::ReceiveDataFromOutSide
PUBLIC	??1STMNG_ITEMINFO@@QAE@XZ			; STMNG_ITEMINFO::~STMNG_ITEMINFO
PUBLIC	??1CSTOrderRData_EG@@QAE@XZ			; CSTOrderRData_EG::~CSTOrderRData_EG
PUBLIC	??0CTabSystemTradingEx@@QAE@PAVCWnd@@@Z		; CTabSystemTradingEx::CTabSystemTradingEx
PUBLIC	??1CTabSystemTradingEx@@UAE@XZ			; CTabSystemTradingEx::~CTabSystemTradingEx
PUBLIC	?InitControl@CTabSystemTradingEx@@QAEXXZ	; CTabSystemTradingEx::InitControl
PUBLIC	?RecalcLayout@CTabSystemTradingEx@@QAEXXZ	; CTabSystemTradingEx::RecalcLayout
PUBLIC	?GetRectOfCtrl@CTabSystemTradingEx@@UAE?AVCRect@@HH@Z ; CTabSystemTradingEx::GetRectOfCtrl
PUBLIC	?LoadInfo@CTabSystemTradingEx@@QAEXXZ		; CTabSystemTradingEx::LoadInfo
PUBLIC	?OpenAUP@CTabSystemTradingEx@@QAEHXZ		; CTabSystemTradingEx::OpenAUP
PUBLIC	?LoadTradeAup@CTabSystemTradingEx@@QAEPAVCWnd@@V?$CStringT@DV?$StrTraitMFC_DLL@DV?$ChTraitsCRT@D@ATL@@@@@ATL@@PAV2@@Z ; CTabSystemTradingEx::LoadTradeAup
PUBLIC	?UnLoadSTList@CTabSystemTradingEx@@QAEXXZ	; CTabSystemTradingEx::UnLoadSTList
PUBLIC	?ChangeSkinColor@CTabSystemTradingEx@@UAEXK@Z	; CTabSystemTradingEx::ChangeSkinColor
PUBLIC	?LoadOutlookBar@CTabSystemTradingEx@@QAEXXZ	; CTabSystemTradingEx::LoadOutlookBar
PUBLIC	?LoadSTList@CTabSystemTradingEx@@QAEXXZ		; CTabSystemTradingEx::LoadSTList
PUBLIC	?AddSTFile@CTabSystemTradingEx@@QAEXAAVCListBox@@V?$CStringT@DV?$StrTraitMFC_DLL@DV?$ChTraitsCRT@D@ATL@@@@@ATL@@@Z ; CTabSystemTradingEx::AddSTFile
PUBLIC	?IsSTSelected@CTabSystemTradingEx@@QAEHXZ	; CTabSystemTradingEx::IsSTSelected
PUBLIC	?RunWizard@CTabSystemTradingEx@@QAEXH@Z		; CTabSystemTradingEx::RunWizard
PUBLIC	?CanSTModule@CTabSystemTradingEx@@QAEHXZ	; CTabSystemTradingEx::CanSTModule
PUBLIC	?IsSTRun@CTabSystemTradingEx@@QAEHPBD0H@Z	; CTabSystemTradingEx::IsSTRun
PUBLIC	?CheckOcx@CTabSystemTradingEx@@QAEHXZ		; CTabSystemTradingEx::CheckOcx
PUBLIC	?CheckRegister@CTabSystemTradingEx@@QAEHPBD0@Z	; CTabSystemTradingEx::CheckRegister
PUBLIC	?TestJumun@CTabSystemTradingEx@@QAEXXZ		; CTabSystemTradingEx::TestJumun
PUBLIC	?DataMonitorCallbackProc@CTabSystemTradingEx@@SGXPBDJJJJ@Z ; CTabSystemTradingEx::DataMonitorCallbackProc
PUBLIC	?MakeSTDefaultDirectory@CTabSystemTradingEx@@AAEXXZ ; CTabSystemTradingEx::MakeSTDefaultDirectory
PUBLIC	?DoDataExchange@CTabSystemTradingEx@@MAEXPAVCDataExchange@@@Z ; CTabSystemTradingEx::DoDataExchange
PUBLIC	?OnInitDialog@CTabSystemTradingEx@@MAEHXZ	; CTabSystemTradingEx::OnInitDialog
PUBLIC	?OnDestroy@CTabSystemTradingEx@@IAEXXZ		; CTabSystemTradingEx::OnDestroy
PUBLIC	?OnSize@CTabSystemTradingEx@@IAEXIHH@Z		; CTabSystemTradingEx::OnSize
PUBLIC	?OnCtlColor@CTabSystemTradingEx@@IAEPAUHBRUSH__@@PAVCDC@@PAVCWnd@@I@Z ; CTabSystemTradingEx::OnCtlColor
PUBLIC	?OnBtnStwizardA@CTabSystemTradingEx@@IAEXXZ	; CTabSystemTradingEx::OnBtnStwizardA
PUBLIC	?OnBtnStoptimaA@CTabSystemTradingEx@@IAEXXZ	; CTabSystemTradingEx::OnBtnStoptimaA
PUBLIC	?OnBtnStanal@CTabSystemTradingEx@@IAEXXZ	; CTabSystemTradingEx::OnBtnStanal
PUBLIC	?OnBtnStDelete@CTabSystemTradingEx@@IAEXXZ	; CTabSystemTradingEx::OnBtnStDelete
PUBLIC	?GetThisMessageMap@CTabSystemTradingEx@@KGPBUAFX_MSGMAP@@XZ ; CTabSystemTradingEx::GetThisMessageMap
PUBLIC	?GetMessageMap@CTabSystemTradingEx@@MBEPBUAFX_MSGMAP@@XZ ; CTabSystemTradingEx::GetMessageMap
PUBLIC	?OnRmsgObItemClk@CTabSystemTradingEx@@IAEJIJ@Z	; CTabSystemTradingEx::OnRmsgObItemClk
PUBLIC	?OnRmsgObItemDBClk@CTabSystemTradingEx@@IAEJIJ@Z ; CTabSystemTradingEx::OnRmsgObItemDBClk
PUBLIC	?OnRmsgMultiST@CTabSystemTradingEx@@IAEJIJ@Z	; CTabSystemTradingEx::OnRmsgMultiST
PUBLIC	?OnRmsgIndexAddinNotifyRawData@CTabSystemTradingEx@@IAEJIJ@Z ; CTabSystemTradingEx::OnRmsgIndexAddinNotifyRawData
PUBLIC	?OnRmsgIndexAddinNotifyBuySell@CTabSystemTradingEx@@IAEJIJ@Z ; CTabSystemTradingEx::OnRmsgIndexAddinNotifyBuySell
PUBLIC	?OnRmsgIndexAddinNotifySignal@CTabSystemTradingEx@@IAEJIJ@Z ; CTabSystemTradingEx::OnRmsgIndexAddinNotifySignal
PUBLIC	?OnRmsgDestroyConfirmWnd@CTabSystemTradingEx@@IAEJIJ@Z ; CTabSystemTradingEx::OnRmsgDestroyConfirmWnd
PUBLIC	?OnRmsgIsSTRunState@CTabSystemTradingEx@@IAEJIJ@Z ; CTabSystemTradingEx::OnRmsgIsSTRunState
PUBLIC	?ShowHideStOptimaA@CTabSystemTradingEx@@QAEXHHH@Z ; CTabSystemTradingEx::ShowHideStOptimaA
PUBLIC	?HideStOptimaA@CTabSystemTradingEx@@QAEXXZ	; CTabSystemTradingEx::HideStOptimaA
PUBLIC	?STClear@CTabSystemTradingEx@@QAEXXZ		; CTabSystemTradingEx::STClear
PUBLIC	?Run_STDLL@CTabSystemTradingEx@@QAEHPBD@Z	; CTabSystemTradingEx::Run_STDLL
PUBLIC	?DirectRunST@CTabSystemTradingEx@@QAEXPBD@Z	; CTabSystemTradingEx::DirectRunST
PUBLIC	?RunMultiST@CTabSystemTradingEx@@QAEXXZ		; CTabSystemTradingEx::RunMultiST
PUBLIC	?RunIndexSD@CTabSystemTradingEx@@QAEJHPAUSTMNG_ITEMINFO@@@Z ; CTabSystemTradingEx::RunIndexSD
PUBLIC	?DoDlgSysVarOption@CTabSystemTradingEx@@QAEHPAVCStringList@@J@Z ; CTabSystemTradingEx::DoDlgSysVarOption
PUBLIC	?GetInterface@CSTInterface@CTabSystemTradingEx@@UAGPAXH@Z ; CTabSystemTradingEx::CSTInterface::GetInterface
PUBLIC	?GetOutBarColor@CSTInterface@CTabSystemTradingEx@@UAGJAAK0@Z ; CTabSystemTradingEx::CSTInterface::GetOutBarColor
PUBLIC	?SetUserData@CSTAnalysisInput@CTabSystemTradingEx@@UAGXHPAUISTUserData@@@Z ; CTabSystemTradingEx::CSTAnalysisInput::SetUserData
PUBLIC	?IsUseUserData@CSTAnalysisInput@CTabSystemTradingEx@@UAGHXZ ; CTabSystemTradingEx::CSTAnalysisInput::IsUseUserData
PUBLIC	?GetUserDataInterface@CSTAnalysisInput@CTabSystemTradingEx@@UAGPAUISTUserData@@XZ ; CTabSystemTradingEx::CSTAnalysisInput::GetUserDataInterface
PUBLIC	?GetData@CSTAnalysisInput@CTabSystemTradingEx@@UAG?AVCOleVariant@@H@Z ; CTabSystemTradingEx::CSTAnalysisInput::GetData
PUBLIC	?GetCode@CSTAnalysisInput@CTabSystemTradingEx@@UAG?AV?$CStringT@DV?$StrTraitMFC_DLL@DV?$ChTraitsCRT@D@ATL@@@@@ATL@@XZ ; CTabSystemTradingEx::CSTAnalysisInput::GetCode
PUBLIC	?GetCodeName@CSTAnalysisInput@CTabSystemTradingEx@@UAG?AV?$CStringT@DV?$StrTraitMFC_DLL@DV?$ChTraitsCRT@D@ATL@@@@@ATL@@XZ ; CTabSystemTradingEx::CSTAnalysisInput::GetCodeName
PUBLIC	?GetCodeType@CSTAnalysisInput@CTabSystemTradingEx@@UAGHXZ ; CTabSystemTradingEx::CSTAnalysisInput::GetCodeType
PUBLIC	?GetSTInfo@CSTAnalysisInput@CTabSystemTradingEx@@UAGHPAUSTMNG_ITEMINFO@@@Z ; CTabSystemTradingEx::CSTAnalysisInput::GetSTInfo
PUBLIC	?GetCount@CSTAnalysisInput@CTabSystemTradingEx@@UAGHXZ ; CTabSystemTradingEx::CSTAnalysisInput::GetCount
PUBLIC	?GetEndDay@CSTAnalysisInput@CTabSystemTradingEx@@UAG?AV?$CStringT@DV?$StrTraitMFC_DLL@DV?$ChTraitsCRT@D@ATL@@@@@ATL@@XZ ; CTabSystemTradingEx::CSTAnalysisInput::GetEndDay
PUBLIC	?GetDivideCnt@CSTAnalysisInput@CTabSystemTradingEx@@UAGHXZ ; CTabSystemTradingEx::CSTAnalysisInput::GetDivideCnt
PUBLIC	?GetDivideState@CSTAnalysisInput@CTabSystemTradingEx@@UAGHXZ ; CTabSystemTradingEx::CSTAnalysisInput::GetDivideState
PUBLIC	?GetUnitPos@CSTAnalysisInput@CTabSystemTradingEx@@UAGHXZ ; CTabSystemTradingEx::CSTAnalysisInput::GetUnitPos
PUBLIC	?GetDeivideRate@CSTAnalysisInput@CTabSystemTradingEx@@UAGNXZ ; CTabSystemTradingEx::CSTAnalysisInput::GetDeivideRate
PUBLIC	?GetChartData@CSTAnalysisInput@CTabSystemTradingEx@@UAGHAAJ000000@Z ; CTabSystemTradingEx::CSTAnalysisInput::GetChartData
PUBLIC	?IsDivide@CSTAnalysisInput@CTabSystemTradingEx@@UAGHXZ ; CTabSystemTradingEx::CSTAnalysisInput::IsDivide
PUBLIC	?GetControl@CSTAnalysisInput@CTabSystemTradingEx@@UAGJH@Z ; CTabSystemTradingEx::CSTAnalysisInput::GetControl
PUBLIC	??0CSTAnalysisInput@CTabSystemTradingEx@@QAE@XZ	; CTabSystemTradingEx::CSTAnalysisInput::CSTAnalysisInput
PUBLIC	??1CSTAnalysisInput@CTabSystemTradingEx@@QAE@XZ	; CTabSystemTradingEx::CSTAnalysisInput::~CSTAnalysisInput
PUBLIC	?RunST@CSTRunManager@CTabSystemTradingEx@@UAGHHAAV?$CStringT@DV?$StrTraitMFC_DLL@DV?$ChTraitsCRT@D@ATL@@@@@ATL@@J@Z ; CTabSystemTradingEx::CSTRunManager::RunST
PUBLIC	?GetSelectedSTInfo@CSTRunManager@CTabSystemTradingEx@@UAGJXZ ; CTabSystemTradingEx::CSTRunManager::GetSelectedSTInfo
PUBLIC	?GetViewHandle@CSTRunManager@CTabSystemTradingEx@@UAGJXZ ; CTabSystemTradingEx::CSTRunManager::GetViewHandle
PUBLIC	?GetOutBarColor@CSTRunManager@CTabSystemTradingEx@@UAGJAAK0@Z ; CTabSystemTradingEx::CSTRunManager::GetOutBarColor
PUBLIC	?OnBnClickedStchkdiv@CTabSystemTradingEx@@QAEXXZ ; CTabSystemTradingEx::OnBnClickedStchkdiv
PUBLIC	?OnStshowoption@CTabSystemTradingEx@@QAEXXZ	; CTabSystemTradingEx::OnStshowoption
PUBLIC	?PlayOrderSound@CTabSystemTradingEx@@QAEXHHPBDH0@Z ; CTabSystemTradingEx::PlayOrderSound
PUBLIC	?IsAllowJumun@CTabSystemTradingEx@@QAEHPAVCSTOrderRData_EG@@H@Z ; CTabSystemTradingEx::IsAllowJumun
PUBLIC	?IsAllowJumunBefore@CTabSystemTradingEx@@QAEHPBDAAV?$CStringT@DV?$StrTraitMFC_DLL@DV?$ChTraitsCRT@D@ATL@@@@@ATL@@@Z ; CTabSystemTradingEx::IsAllowJumunBefore
PUBLIC	?CallJunmunDlg@CTabSystemTradingEx@@QAEXPAVCSTOrderRData_EG@@@Z ; CTabSystemTradingEx::CallJunmunDlg
PUBLIC	??0?$CMap@PAVCConfirmWnd@@PAV1@JJ@@QAE@H@Z	; CMap<CConfirmWnd *,CConfirmWnd *,long,long>::CMap<CConfirmWnd *,CConfirmWnd *,long,long>
PUBLIC	?Lookup@?$CMap@PAVCConfirmWnd@@PAV1@JJ@@QBEHPAVCConfirmWnd@@AAJ@Z ; CMap<CConfirmWnd *,CConfirmWnd *,long,long>::Lookup
PUBLIC	??A?$CMap@PAVCConfirmWnd@@PAV1@JJ@@QAEAAJPAVCConfirmWnd@@@Z ; CMap<CConfirmWnd *,CConfirmWnd *,long,long>::operator[]
PUBLIC	?SetAt@?$CMap@PAVCConfirmWnd@@PAV1@JJ@@QAEXPAVCConfirmWnd@@J@Z ; CMap<CConfirmWnd *,CConfirmWnd *,long,long>::SetAt
PUBLIC	?RemoveKey@?$CMap@PAVCConfirmWnd@@PAV1@JJ@@QAEHPAVCConfirmWnd@@@Z ; CMap<CConfirmWnd *,CConfirmWnd *,long,long>::RemoveKey
PUBLIC	?RemoveAll@?$CMap@PAVCConfirmWnd@@PAV1@JJ@@QAEXXZ ; CMap<CConfirmWnd *,CConfirmWnd *,long,long>::RemoveAll
PUBLIC	?GetNextAssoc@?$CMap@PAVCConfirmWnd@@PAV1@JJ@@QBEXAAPAU__POSITION@@AAPAVCConfirmWnd@@AAJ@Z ; CMap<CConfirmWnd *,CConfirmWnd *,long,long>::GetNextAssoc
PUBLIC	?InitHashTable@?$CMap@PAVCConfirmWnd@@PAV1@JJ@@QAEXIH@Z ; CMap<CConfirmWnd *,CConfirmWnd *,long,long>::InitHashTable
PUBLIC	?NewAssoc@?$CMap@PAVCConfirmWnd@@PAV1@JJ@@IAEPAVCAssoc@1@PAVCConfirmWnd@@@Z ; CMap<CConfirmWnd *,CConfirmWnd *,long,long>::NewAssoc
PUBLIC	?FreeAssoc@?$CMap@PAVCConfirmWnd@@PAV1@JJ@@IAEXPAVCAssoc@1@@Z ; CMap<CConfirmWnd *,CConfirmWnd *,long,long>::FreeAssoc
PUBLIC	?GetAssocAt@?$CMap@PAVCConfirmWnd@@PAV1@JJ@@IBEPAVCAssoc@1@PAVCConfirmWnd@@AAI1@Z ; CMap<CConfirmWnd *,CConfirmWnd *,long,long>::GetAssocAt
PUBLIC	??1?$CMap@PAVCConfirmWnd@@PAV1@JJ@@UAE@XZ	; CMap<CConfirmWnd *,CConfirmWnd *,long,long>::~CMap<CConfirmWnd *,CConfirmWnd *,long,long>
PUBLIC	?Serialize@?$CMap@PAVCConfirmWnd@@PAV1@JJ@@UAEXAAVCArchive@@@Z ; CMap<CConfirmWnd *,CConfirmWnd *,long,long>::Serialize
PUBLIC	??_G?$CMap@PAVCConfirmWnd@@PAV1@JJ@@UAEPAXI@Z	; CMap<CConfirmWnd *,CConfirmWnd *,long,long>::`scalar deleting destructor'
PUBLIC	?GetParent@CSTDlgConfirmSendJumun@CTabSystemTradingEx@@EAGPAVCWnd@@XZ ; CTabSystemTradingEx::CSTDlgConfirmSendJumun::GetParent
PUBLIC	?GetHwndScreenView@CSTDlgConfirmSendJumun@CTabSystemTradingEx@@EAGPAUHWND__@@XZ ; CTabSystemTradingEx::CSTDlgConfirmSendJumun::GetHwndScreenView
PUBLIC	??_GCTabSystemTradingEx@@UAEPAXI@Z		; CTabSystemTradingEx::`scalar deleting destructor'
PUBLIC	??1stringdispid@CComTypeInfoHolder@ATL@@QAE@XZ	; ATL::CComTypeInfoHolder::stringdispid::~stringdispid
PUBLIC	??_Estringdispid@CComTypeInfoHolder@ATL@@QAEPAXI@Z ; ATL::CComTypeInfoHolder::stringdispid::`vector deleting destructor'
PUBLIC	??1stAddinSTRun@@QAE@XZ				; stAddinSTRun::~stAddinSTRun
PUBLIC	??1stAddinSTRunInfo@@QAE@XZ			; stAddinSTRunInfo::~stAddinSTRunInfo
PUBLIC	??$CompareElements@PAVCConfirmWnd@@PAV1@@@YGHPBQAVCConfirmWnd@@0@Z ; CompareElements<CConfirmWnd *,CConfirmWnd *>
PUBLIC	??$SerializeElements@PAVCConfirmWnd@@@@YGXAAVCArchive@@PAPAVCConfirmWnd@@H@Z ; SerializeElements<CConfirmWnd *>
PUBLIC	??$SerializeElements@J@@YGXAAVCArchive@@PAJH@Z	; SerializeElements<long>
PUBLIC	?_OptionsStorage@?1??__local_stdio_printf_options@@9@4_KA ; `__local_stdio_printf_options'::`2'::_OptionsStorage
PUBLIC	?_OptionsStorage@?1??__local_stdio_scanf_options@@9@4_KA ; `__local_stdio_scanf_options'::`2'::_OptionsStorage
PUBLIC	??_R0PAVCException@@@8				; CException * `RTTI Type Descriptor'
PUBLIC	?_AtlWinModule@ATL@@3VCAtlWinModule@1@A		; ATL::_AtlWinModule
PUBLIC	??_C@_00CNPNBAHC@@				; `string'
PUBLIC	??_7CGdiObject@@6B@				; CGdiObject::`vftable'
PUBLIC	??_7CBitmap@@6B@				; CBitmap::`vftable'
PUBLIC	??_7CMenu@@6B@					; CMenu::`vftable'
PUBLIC	??_C@_0HD@JJCHHHNK@C?3?2Program?5Files?5?$CIx86?$CJ?2Microsof@ ; `string'
PUBLIC	??_C@_0BP@OIEOKIDM@Exception?5thrown?5in?5destructor@ ; `string'
PUBLIC	??_C@_0BB@HBOOMJBF@?$CFTs?5?$CI?$CFTs?3?$CFd?$CJ?6?$CFTs@ ; `string'
PUBLIC	??_C@_0N@OMEMOKLE@?$CFTs?5?$CI?$CFTs?3?$CFd?$CJ@ ; `string'
PUBLIC	??_C@_02DKCKIIND@?$CFs@				; `string'
PUBLIC	??_C@_0M@CBBNGGHM@PcTrMng?4dll@			; `string'
PUBLIC	??_C@_0P@IDMAJEGN@HANAROPCTRMAIN@		; `string'
PUBLIC	??_C@_06NDLAHCHE@?$CFs?$CF08X@			; `string'
PUBLIC	??_C@_02EMFKHFLK@?$CFX@				; `string'
PUBLIC	??_C@_01KICIPPFI@?2@				; `string'
PUBLIC	??_R0?AVCObject@@@8				; CObject `RTTI Type Descriptor'
PUBLIC	??_R3CObject@@8					; CObject::`RTTI Class Hierarchy Descriptor'
PUBLIC	??_R2CObject@@8					; CObject::`RTTI Base Class Array'
PUBLIC	??_R1A@?0A@EA@CObject@@8			; CObject::`RTTI Base Class Descriptor at (0,-1,0,64)'
PUBLIC	??_R4CGdiObject@@6B@				; CGdiObject::`RTTI Complete Object Locator'
PUBLIC	??_R0?AVCGdiObject@@@8				; CGdiObject `RTTI Type Descriptor'
PUBLIC	??_R3CGdiObject@@8				; CGdiObject::`RTTI Class Hierarchy Descriptor'
PUBLIC	??_R2CGdiObject@@8				; CGdiObject::`RTTI Base Class Array'
PUBLIC	??_R1A@?0A@EA@CGdiObject@@8			; CGdiObject::`RTTI Base Class Descriptor at (0,-1,0,64)'
PUBLIC	??_R4CBitmap@@6B@				; CBitmap::`RTTI Complete Object Locator'
PUBLIC	??_R0?AVCBitmap@@@8				; CBitmap `RTTI Type Descriptor'
PUBLIC	??_R3CBitmap@@8					; CBitmap::`RTTI Class Hierarchy Descriptor'
PUBLIC	??_R2CBitmap@@8					; CBitmap::`RTTI Base Class Array'
PUBLIC	??_R1A@?0A@EA@CBitmap@@8			; CBitmap::`RTTI Base Class Descriptor at (0,-1,0,64)'
PUBLIC	??_R4CMenu@@6B@					; CMenu::`RTTI Complete Object Locator'
PUBLIC	??_R0?AVCMenu@@@8				; CMenu `RTTI Type Descriptor'
PUBLIC	??_R3CMenu@@8					; CMenu::`RTTI Class Hierarchy Descriptor'
PUBLIC	??_R2CMenu@@8					; CMenu::`RTTI Base Class Array'
PUBLIC	??_R1A@?0A@EA@CMenu@@8				; CMenu::`RTTI Base Class Descriptor at (0,-1,0,64)'
PUBLIC	??_R1A@?0A@EA@CWnd@@8				; CWnd::`RTTI Base Class Descriptor at (0,-1,0,64)'
PUBLIC	??_R0?AVCWnd@@@8				; CWnd `RTTI Type Descriptor'
PUBLIC	??_R3CWnd@@8					; CWnd::`RTTI Class Hierarchy Descriptor'
PUBLIC	??_R2CWnd@@8					; CWnd::`RTTI Base Class Array'
PUBLIC	??_R1A@?0A@EA@CCmdTarget@@8			; CCmdTarget::`RTTI Base Class Descriptor at (0,-1,0,64)'
PUBLIC	??_R0?AVCCmdTarget@@@8				; CCmdTarget `RTTI Type Descriptor'
PUBLIC	??_R3CCmdTarget@@8				; CCmdTarget::`RTTI Class Hierarchy Descriptor'
PUBLIC	??_R2CCmdTarget@@8				; CCmdTarget::`RTTI Base Class Array'
PUBLIC	??_R1A@?0A@EA@CDialog@@8			; CDialog::`RTTI Base Class Descriptor at (0,-1,0,64)'
PUBLIC	??_R0?AVCDialog@@@8				; CDialog `RTTI Type Descriptor'
PUBLIC	??_R3CDialog@@8					; CDialog::`RTTI Class Hierarchy Descriptor'
PUBLIC	??_R2CDialog@@8					; CDialog::`RTTI Base Class Array'
PUBLIC	??_7ISTInterface@@6B@				; ISTInterface::`vftable'
PUBLIC	??_7ISTAnalysisInput@@6B@			; ISTAnalysisInput::`vftable'
PUBLIC	??_7ISTRunManager@@6B@				; ISTRunManager::`vftable'
PUBLIC	??_C@_04HDOCAJNK@?$CFs?$CFs@			; `string'
PUBLIC	??_C@_04ECGMOPPD@?$CK?4ST@			; `string'
PUBLIC	??_C@_03COHLPAFH@?4ST@				; `string'
PUBLIC	??_7CSTInterface@CTabSystemTradingEx@@6B@	; CTabSystemTradingEx::CSTInterface::`vftable'
PUBLIC	??_7CSTAnalysisInput@CTabSystemTradingEx@@6B@	; CTabSystemTradingEx::CSTAnalysisInput::`vftable'
PUBLIC	??_7CSTRunManager@CTabSystemTradingEx@@6B@	; CTabSystemTradingEx::CSTRunManager::`vftable'
PUBLIC	??_7?$CMap@PAVCConfirmWnd@@PAV1@JJ@@6B@		; CMap<CConfirmWnd *,CConfirmWnd *,long,long>::`vftable'
PUBLIC	??_7CSTDlgConfirmSendJumun@CTabSystemTradingEx@@6B@ ; CTabSystemTradingEx::CSTDlgConfirmSendJumun::`vftable'
PUBLIC	??_7CTabSystemTradingEx@@6B@			; CTabSystemTradingEx::`vftable'
PUBLIC	??_C@_08IFJCKPBE@RunJumun@			; `string'
PUBLIC	??_C@_07OPLPMPLO@JMethod@			; `string'
PUBLIC	??_C@_0BD@CNEELEMP@SCW_IGfxOutBarCtrl@		; `string'
PUBLIC	??_C@_04EHADJNMH@?2dev@				; `string'
PUBLIC	??_C@_0O@DBLFPBPG@SYSTEMDLLPATH@		; `string'
PUBLIC	??_C@_0BP@CFDAMKMM@?2dev?2HWStrategyConfigureWizard@ ; `string'
PUBLIC	??_C@_0BB@KNEADKDO@?$MA?$PM?$LH?$KL?$MA?$NL?$LM?$LK?$CIWizard?$CJ@ ; `string'
PUBLIC	??_C@_0L@OBHGFOPP@?$MA?$PM?$LH?$KL?C?V?$MA?$PL?H?$KN@ ; `string'
PUBLIC	??_C@_0L@ODKOBBAJ@?$LK?$KP?$LM?v?C?V?$MA?$PL?H?$KN@ ; `string'
PUBLIC	??_C@_0L@PKLMOOMC@?$LN?C?$LA?$KD?C?V?$MA?$PL?H?$KN@ ; `string'
PUBLIC	??_C@_0BI@PFKPIPEB@?A?$LO?$LI?q?A?$LG?H?$LI?5?H?D?5?$LA?$KB?$LE?I?G?U?$LE?O?$LE?Y?4@ ; `string'
PUBLIC	??_C@_0EJ@JEOKELGF@?C?V?$MA?$PL?H?$KN?$LP?$KB?$LM?$KN?5?G?J?$LP?d?G?Q?5OCX?$CITeeChart7@ ; `string'
PUBLIC	??_C@_0BE@MEGAPCJC@?2dev?2IndexOptimizer@	; `string'
PUBLIC	??_C@_0BG@CHJJKIAP@ChartSTIndexAddIn?4dll@	; `string'
PUBLIC	??_C@_0CE@LIBOKAIK@?$MA?$PL?$LP?k?G?R?5?$MA?$PM?$LH?$KL?$MA?$LL?5?$LM?$LB?E?C?G?X?A?V?$LN?C?$LB?b?5?$LJ?Y?$LG?x@ ; `string'
PUBLIC	??_C@_0DB@EIJFPBEL@?$LK?P?G?R?1?A?$NP?C?$LI?$MA?O?5?$LA?f?$LP?l?$LP?$KB?$LE?B?5?$LK?$LI?$LA?m?$LM?$KN?5?$LJ?v?F@ ; `string'
PUBLIC	??_C@_0BA@PIGBAOMG@STLIST_MODIFIED@		; `string'
PUBLIC	??_C@_0BH@DGGPLJDE@MultiChart_ReceiveData@	; `string'
PUBLIC	??_C@_0O@OENIFHCP@SystemTrading@		; `string'
PUBLIC	??_C@_04JIMNDDED@?$CF08X@			; `string'
PUBLIC	??_C@_0BD@JAKAOGNI@HWStrategyAnalysis@		; `string'
PUBLIC	??_C@_04HLONOPDM@?4dll@				; `string'
PUBLIC	??_C@_0BD@JKFCKDIB@?$CFs?5File?5Load?5Faile@	; `string'
PUBLIC	??_C@_0BC@CJPOKCCI@CREATE_TRADING_EX@		; `string'
PUBLIC	??_C@_0BD@GPFJHOGC@?F?$KP?H?$KN?H?$KN?$LI?i?5?$LH?N?$LF?e?5?$LP?$KB?$LH?$KP@ ; `string'
PUBLIC	??_C@_08FFNCOOBK@?$MA?$PM?$LH?$KL?$MA?$NL?$LM?$LK@ ; `string'
PUBLIC	??_C@_06GHGGCGIE@?C?V?$MA?$PL?H?$KN@		; `string'
PUBLIC	??_C@_04OJDIEKEH@?G?X?A?$KG@			; `string'
PUBLIC	??_C@_08OEAPFIFH@?$LM?$LK?$LA?z?$LK?P?$LM?$KO@	; `string'
PUBLIC	??_C@_06PKADKHFF@?$MA?g?A?$LG?H?$LI@		; `string'
PUBLIC	??_C@_0O@DADNAINN@?$CFs?2folder?4bmp@		; `string'
PUBLIC	??_C@_0BD@OCOIJGGE@?$CFs?2outbar_icon?4bmp@	; `string'
PUBLIC	??_C@_0CD@HGNBEHEC@?2dev?2HWStrategyConfigureWizard?4@ ; `string'
PUBLIC	??_C@_09HNPKBJBA@stdata?2st@			; `string'
PUBLIC	??_C@_0BL@OHKGLIGI@SCW_GetInterfaceOfStrategy@	; `string'
PUBLIC	??_C@_0BO@CPKKMKKO@SCW_DeleteInterfaceOfStrategy@ ; `string'
PUBLIC	??_C@_06OGEGGNMP@STData@			; `string'
PUBLIC	??_C@_09OEOJJIHH@STData?2ST@			; `string'
PUBLIC	??_C@_0BJ@EBBPKHM@STData?2ST?2?$LL?g?$LP?k?$MA?Z?$LE?$NM?$MA?$KH?$MA?$PM?$LH?$KL@ ; `string'
PUBLIC	??_C@_0BJ@HMEDFCNB@STData?2ST?2?$LL?g?$LP?k?$MA?Z?A?$LG?G?U?$MA?$PM?$LH?$KL@ ; `string'
PUBLIC	??_C@_0M@LCNHCPP@STData?2Temp@			; `string'
PUBLIC	??_C@_0P@DJLJBKHA@STData?2STBasic@		; `string'
PUBLIC	??_C@_0BK@LOJGNPMK@STData?2STBasic?2?$LL?g?$LP?k?$MA?Z?$MA?$PM?$LH?$KL@ ; `string'
PUBLIC	??_C@_09KOCLIKCG@STData?2SD@			; `string'
PUBLIC	??_C@_0L@EGLGCEHG@STData?2SDD@			; `string'
PUBLIC	??_C@_08OOJOHCD@?$CFs?2?$CFs?4ST@		; `string'
PUBLIC	??_C@_02KAMBCCOF@?$FO1@				; `string'
PUBLIC	??_C@_02NNLGNGKA@?$FO4@				; `string'
PUBLIC	??_C@_02MEKNOHOB@?$FO5@				; `string'
PUBLIC	??_C@_02LJNKBDKE@?$FO0@				; `string'
PUBLIC	??_C@_08HGPJPHIB@PosName0@			; `string'
PUBLIC	??_C@_0N@GKFNKJGL@StrategyList@			; `string'
PUBLIC	??_C@_0BF@KKLLNDJP@Icss?2stdata?2stsystem@	; `string'
PUBLIC	??_C@_03GELJOCAG@?4SD@				; `string'
PUBLIC	??_C@_0L@FEICBMFP@?2STData?2SD@			; `string'
PUBLIC	??_C@_01JKBOJNNK@?$FO@				; `string'
PUBLIC	??_C@_0O@CKKCLLBB@TeeChart7?4ocx@		; `string'
PUBLIC	??_C@_09KKMEEMHD@?$CFs?2exe?2?$CFs@		; `string'
PUBLIC	??_C@_09JELLLLNA@?$CFs?2dev?2?$CFs@		; `string'
PUBLIC	??_C@_0BH@BPKOJLNA@MSChart20Lib?4MSChart?42@	; `string'
PUBLIC	??_C@_0N@CPPCJIEJ@Mschrt20?4ocx@		; `string'
PUBLIC	??_C@_0BO@PLHNFDPJ@TeeChart?4ChartPageNavigator?47@ ; `string'
PUBLIC	??_C@_0P@GJBKKKJN@Icss?2stdata?2sd@		; `string'
PUBLIC	??_C@_0O@NGCOIHBK@usr?2stdata?2sd@		; `string'
PUBLIC	??_C@_09KEIDFEGD@STNAME?$DN?$CFs@		; `string'
PUBLIC	??_C@_0O@GLFFNEMD@SFGPATH?$DN?$CFs?2?$CFs@	; `string'
PUBLIC	??_C@_0P@OMDCFLHM@STPATH?$DN?$CFs?2?$CFs?$CFs@	; `string'
PUBLIC	??_C@_0BO@DLDLABLN@HWStrategyConfigureWizard?4dll@ ; `string'
PUBLIC	??_C@_0BI@PLCLJLGO@DoModal_DlgSysVarOption@	; `string'
PUBLIC	??_C@_05GFCMPLNO@c1002@				; `string'
PUBLIC	??_C@_05IJKFNIJF@f0201@				; `string'
PUBLIC	??_C@_0L@CNMPMHDJ@AllowJumun@			; `string'
PUBLIC	??_C@_07MBLBAEDA@STBAsic@			; `string'
PUBLIC	??_C@_0CC@IAIDCHCN@?$LO?w?A?$LO?A?v?$LM?v?$LP?$KB?$LM?$KN?$LE?B?5?A?V?$LJ?$KO?$MA?L?5?$LK?R?$LA?$KB?G?U?$LE?O?$LE@ ; `string'
PUBLIC	??_C@_0BO@IJIBIHGG@MS30?$LP?$KB?$LM?$KN?$LE?B?5?A?V?$LJ?$KO?$MA?L?5?$LK?R?$LA?$KB?G?U?$LE?O?$LE?Y?4@ ; `string'
PUBLIC	??_C@_0CC@MKDBBJFD@?G?X?$LP?$NM?A?v?$LM?v?$LP?$KB?$LM?$KN?$LE?B?5?A?V?$LJ?$KO?$MA?L?5?$LK?R?$LA?$KB?G?U?$LE?O?$LE@ ; `string'
PUBLIC	??_C@_0BN@PNIKDDLL@ELW?$LP?$KB?$LM?$KN?$LE?B?5?A?V?$LJ?$KO?$MA?L?5?$LK?R?$LA?$KB?G?U?$LE?O?$LE?Y?4@ ; `string'
PUBLIC	??_C@_0CK@KDHMJHOM@?G?v?$MA?g?5?$LM?$LB?E?C?G?Q?5?A?$LO?$LI?q?$LP?$KB?$LM?$KN?$LE?B?5?A?V?$LJ?$KO?$MA?L?5?$LK@ ; `string'
PUBLIC	??_C@_0CD@CEOFIHIE@?$FLGetHwndScreenView?$FNSolomon?$LM?v?A?$KE?G@ ; `string'
PUBLIC	??_R4ISTInterface@@6B@				; ISTInterface::`RTTI Complete Object Locator'
PUBLIC	??_R0?AUISTInterface@@@8			; ISTInterface `RTTI Type Descriptor'
PUBLIC	??_R3ISTInterface@@8				; ISTInterface::`RTTI Class Hierarchy Descriptor'
PUBLIC	??_R2ISTInterface@@8				; ISTInterface::`RTTI Base Class Array'
PUBLIC	??_R1A@?0A@EA@ISTInterface@@8			; ISTInterface::`RTTI Base Class Descriptor at (0,-1,0,64)'
PUBLIC	??_R4ISTAnalysisInput@@6B@			; ISTAnalysisInput::`RTTI Complete Object Locator'
PUBLIC	??_R0?AUISTAnalysisInput@@@8			; ISTAnalysisInput `RTTI Type Descriptor'
PUBLIC	??_R3ISTAnalysisInput@@8			; ISTAnalysisInput::`RTTI Class Hierarchy Descriptor'
PUBLIC	??_R2ISTAnalysisInput@@8			; ISTAnalysisInput::`RTTI Base Class Array'
PUBLIC	??_R1A@?0A@EA@ISTAnalysisInput@@8		; ISTAnalysisInput::`RTTI Base Class Descriptor at (0,-1,0,64)'
PUBLIC	??_R4ISTRunManager@@6B@				; ISTRunManager::`RTTI Complete Object Locator'
PUBLIC	??_R0?AUISTRunManager@@@8			; ISTRunManager `RTTI Type Descriptor'
PUBLIC	??_R3ISTRunManager@@8				; ISTRunManager::`RTTI Class Hierarchy Descriptor'
PUBLIC	??_R2ISTRunManager@@8				; ISTRunManager::`RTTI Base Class Array'
PUBLIC	??_R1A@?0A@EA@ISTRunManager@@8			; ISTRunManager::`RTTI Base Class Descriptor at (0,-1,0,64)'
PUBLIC	??_R0?AUISTDlgConfirmSendJumun@@@8		; ISTDlgConfirmSendJumun `RTTI Type Descriptor'
PUBLIC	??_R3ISTDlgConfirmSendJumun@@8			; ISTDlgConfirmSendJumun::`RTTI Class Hierarchy Descriptor'
PUBLIC	??_R2ISTDlgConfirmSendJumun@@8			; ISTDlgConfirmSendJumun::`RTTI Base Class Array'
PUBLIC	??_R1A@?0A@EA@ISTDlgConfirmSendJumun@@8		; ISTDlgConfirmSendJumun::`RTTI Base Class Descriptor at (0,-1,0,64)'
PUBLIC	??_R4CTabSystemTradingEx@@6B@			; CTabSystemTradingEx::`RTTI Complete Object Locator'
PUBLIC	??_R0?AVCTabSystemTradingEx@@@8			; CTabSystemTradingEx `RTTI Type Descriptor'
PUBLIC	??_R3CTabSystemTradingEx@@8			; CTabSystemTradingEx::`RTTI Class Hierarchy Descriptor'
PUBLIC	??_R2CTabSystemTradingEx@@8			; CTabSystemTradingEx::`RTTI Base Class Array'
PUBLIC	??_R1A@?0A@EA@CTabSystemTradingEx@@8		; CTabSystemTradingEx::`RTTI Base Class Descriptor at (0,-1,0,64)'
PUBLIC	??_R1A@?0A@EA@CTabDlg@@8			; CTabDlg::`RTTI Base Class Descriptor at (0,-1,0,64)'
PUBLIC	??_R0?AVCTabDlg@@@8				; CTabDlg `RTTI Type Descriptor'
PUBLIC	??_R3CTabDlg@@8					; CTabDlg::`RTTI Class Hierarchy Descriptor'
PUBLIC	??_R2CTabDlg@@8					; CTabDlg::`RTTI Base Class Array'
PUBLIC	??_R1A@?0A@EA@CRscDlg@@8			; CRscDlg::`RTTI Base Class Descriptor at (0,-1,0,64)'
PUBLIC	??_R0?AVCRscDlg@@@8				; CRscDlg `RTTI Type Descriptor'
PUBLIC	??_R3CRscDlg@@8					; CRscDlg::`RTTI Class Hierarchy Descriptor'
PUBLIC	??_R2CRscDlg@@8					; CRscDlg::`RTTI Base Class Array'
PUBLIC	??_R4CSTInterface@CTabSystemTradingEx@@6B@	; CTabSystemTradingEx::CSTInterface::`RTTI Complete Object Locator'
PUBLIC	??_R0?AVCSTInterface@CTabSystemTradingEx@@@8	; CTabSystemTradingEx::CSTInterface `RTTI Type Descriptor'
PUBLIC	??_R3CSTInterface@CTabSystemTradingEx@@8	; CTabSystemTradingEx::CSTInterface::`RTTI Class Hierarchy Descriptor'
PUBLIC	??_R2CSTInterface@CTabSystemTradingEx@@8	; CTabSystemTradingEx::CSTInterface::`RTTI Base Class Array'
PUBLIC	??_R1A@?0A@EA@CSTInterface@CTabSystemTradingEx@@8 ; CTabSystemTradingEx::CSTInterface::`RTTI Base Class Descriptor at (0,-1,0,64)'
PUBLIC	??_R4CSTAnalysisInput@CTabSystemTradingEx@@6B@	; CTabSystemTradingEx::CSTAnalysisInput::`RTTI Complete Object Locator'
PUBLIC	??_R0?AVCSTAnalysisInput@CTabSystemTradingEx@@@8 ; CTabSystemTradingEx::CSTAnalysisInput `RTTI Type Descriptor'
PUBLIC	??_R3CSTAnalysisInput@CTabSystemTradingEx@@8	; CTabSystemTradingEx::CSTAnalysisInput::`RTTI Class Hierarchy Descriptor'
PUBLIC	??_R2CSTAnalysisInput@CTabSystemTradingEx@@8	; CTabSystemTradingEx::CSTAnalysisInput::`RTTI Base Class Array'
PUBLIC	??_R1A@?0A@EA@CSTAnalysisInput@CTabSystemTradingEx@@8 ; CTabSystemTradingEx::CSTAnalysisInput::`RTTI Base Class Descriptor at (0,-1,0,64)'
PUBLIC	??_R4CSTRunManager@CTabSystemTradingEx@@6B@	; CTabSystemTradingEx::CSTRunManager::`RTTI Complete Object Locator'
PUBLIC	??_R0?AVCSTRunManager@CTabSystemTradingEx@@@8	; CTabSystemTradingEx::CSTRunManager `RTTI Type Descriptor'
PUBLIC	??_R3CSTRunManager@CTabSystemTradingEx@@8	; CTabSystemTradingEx::CSTRunManager::`RTTI Class Hierarchy Descriptor'
PUBLIC	??_R2CSTRunManager@CTabSystemTradingEx@@8	; CTabSystemTradingEx::CSTRunManager::`RTTI Base Class Array'
PUBLIC	??_R1A@?0A@EA@CSTRunManager@CTabSystemTradingEx@@8 ; CTabSystemTradingEx::CSTRunManager::`RTTI Base Class Descriptor at (0,-1,0,64)'
PUBLIC	??_R4?$CMap@PAVCConfirmWnd@@PAV1@JJ@@6B@	; CMap<CConfirmWnd *,CConfirmWnd *,long,long>::`RTTI Complete Object Locator'
PUBLIC	??_R0?AV?$CMap@PAVCConfirmWnd@@PAV1@JJ@@@8	; CMap<CConfirmWnd *,CConfirmWnd *,long,long> `RTTI Type Descriptor'
PUBLIC	??_R3?$CMap@PAVCConfirmWnd@@PAV1@JJ@@8		; CMap<CConfirmWnd *,CConfirmWnd *,long,long>::`RTTI Class Hierarchy Descriptor'
PUBLIC	??_R2?$CMap@PAVCConfirmWnd@@PAV1@JJ@@8		; CMap<CConfirmWnd *,CConfirmWnd *,long,long>::`RTTI Base Class Array'
PUBLIC	??_R1A@?0A@EA@?$CMap@PAVCConfirmWnd@@PAV1@JJ@@8	; CMap<CConfirmWnd *,CConfirmWnd *,long,long>::`RTTI Base Class Descriptor at (0,-1,0,64)'
PUBLIC	??_R4CSTDlgConfirmSendJumun@CTabSystemTradingEx@@6B@ ; CTabSystemTradingEx::CSTDlgConfirmSendJumun::`RTTI Complete Object Locator'
PUBLIC	??_R0?AVCSTDlgConfirmSendJumun@CTabSystemTradingEx@@@8 ; CTabSystemTradingEx::CSTDlgConfirmSendJumun `RTTI Type Descriptor'
PUBLIC	??_R3CSTDlgConfirmSendJumun@CTabSystemTradingEx@@8 ; CTabSystemTradingEx::CSTDlgConfirmSendJumun::`RTTI Class Hierarchy Descriptor'
PUBLIC	??_R2CSTDlgConfirmSendJumun@CTabSystemTradingEx@@8 ; CTabSystemTradingEx::CSTDlgConfirmSendJumun::`RTTI Base Class Array'
PUBLIC	??_R1A@?0A@EA@CSTDlgConfirmSendJumun@CTabSystemTradingEx@@8 ; CTabSystemTradingEx::CSTDlgConfirmSendJumun::`RTTI Base Class Descriptor at (0,-1,0,64)'
PUBLIC	__real@0000000000000000
EXTRN	??_M@YGXPAXIIP6EX0@Z@Z:PROC			; `eh vector destructor iterator'
EXTRN	__purecall:PROC
EXTRN	??2@YAPAXI@Z:PROC				; operator new
EXTRN	??3@YAXPAX@Z:PROC				; operator delete
EXTRN	??3@YAXPAXI@Z:PROC				; operator delete
EXTRN	?__global_delete@@YAXPAXI@Z:PROC		; __global_delete
EXTRN	??_U@YAPAXI@Z:PROC				; operator new[]
EXTRN	??_V@YAXPAX@Z:PROC				; operator delete[]
EXTRN	??_V@YAXPAXI@Z:PROC				; operator delete[]
EXTRN	_atexit:PROC
EXTRN	___std_terminate:PROC
EXTRN	__imp__GetEnvironmentVariableA@12:PROC
EXTRN	__imp__SetEnvironmentVariableA@8:PROC
EXTRN	__imp__CreateDirectoryA@8:PROC
EXTRN	__imp__RaiseException@16:PROC
EXTRN	__imp__GetLastError@0:PROC
EXTRN	__imp__InitializeCriticalSectionEx@12:PROC
EXTRN	__imp__DeleteCriticalSection@4:PROC
EXTRN	__imp__FreeLibrary@4:PROC
EXTRN	__imp__GetModuleHandleA@4:PROC
EXTRN	__imp__GetProcAddress@8:PROC
EXTRN	__imp__LoadLibraryA@4:PROC
EXTRN	__imp__lstrlenA@4:PROC
EXTRN	__imp__GetPrivateProfileIntA@16:PROC
EXTRN	__imp__GetPrivateProfileStringA@24:PROC
EXTRN	__imp__CreateSolidBrush@4:PROC
EXTRN	__imp__RegisterWindowMessageA@4:PROC
EXTRN	__imp__SendMessageA@16:PROC
EXTRN	__imp__PostMessageA@16:PROC
EXTRN	__imp__UnregisterClassA@8:PROC
EXTRN	__imp__EnableWindow@8:PROC
EXTRN	__imp__GetSystemMetrics@4:PROC
EXTRN	__imp__CreatePopupMenu@0:PROC
EXTRN	__imp__AppendMenuA@16:PROC
EXTRN	__imp__InvalidateRect@12:PROC
EXTRN	__imp__GetClientRect@8:PROC
EXTRN	__imp__GetWindowRect@8:PROC
EXTRN	__imp__GetParent@4:PROC
EXTRN	__imp__FindWindowA@8:PROC
EXTRN	__imp__LoadImageA@24:PROC
EXTRN	__imp__ImageList_AddMasked@12:PROC
EXTRN	__imp____stdio_common_vsprintf:PROC
EXTRN	__imp____stdio_common_vsscanf:PROC
EXTRN	__imp__free:PROC
EXTRN	?AfxThrowInvalidArgException@@YGXXZ:PROC	; AfxThrowInvalidArgException
EXTRN	?AfxThrowArchiveException@@YGXHPBD@Z:PROC	; AfxThrowArchiveException
EXTRN	?GetRuntimeClass@CObject@@UBEPAUCRuntimeClass@@XZ:PROC ; CObject::GetRuntimeClass
EXTRN	__imp__SysFreeString@4:PROC
EXTRN	__imp__VariantClear@4:PROC
EXTRN	__imp_?Concatenate@?$CSimpleStringT@D$00@ATL@@KAXAAV12@PBDH1H@Z:PROC
EXTRN	__imp_??0?$CStringT@DV?$StrTraitMFC_DLL@DV?$ChTraitsCRT@D@ATL@@@@@ATL@@QAE@XZ:PROC
EXTRN	__imp_??0?$CStringT@DV?$StrTraitMFC_DLL@DV?$ChTraitsCRT@D@ATL@@@@@ATL@@QAE@PAUIAtlStringMgr@1@@Z:PROC
EXTRN	__imp_??0?$CStringT@DV?$StrTraitMFC_DLL@DV?$ChTraitsCRT@D@ATL@@@@@ATL@@QAE@ABV01@@Z:PROC
EXTRN	__imp_??0?$CStringT@DV?$StrTraitMFC_DLL@DV?$ChTraitsCRT@D@ATL@@@@@ATL@@QAE@PBD@Z:PROC
EXTRN	__imp_??1?$CStringT@DV?$StrTraitMFC_DLL@DV?$ChTraitsCRT@D@ATL@@@@@ATL@@QAE@XZ:PROC
EXTRN	__imp_??4?$CStringT@DV?$StrTraitMFC_DLL@DV?$ChTraitsCRT@D@ATL@@@@@ATL@@QAEAAV01@ABV01@@Z:PROC
EXTRN	__imp_??4?$CStringT@DV?$StrTraitMFC_DLL@DV?$ChTraitsCRT@D@ATL@@@@@ATL@@QAEAAV01@PBD@Z:PROC
EXTRN	__imp_?GetManager@?$CStringT@DV?$StrTraitMFC_DLL@DV?$ChTraitsCRT@D@ATL@@@@@ATL@@QBEPAUIAtlStringMgr@2@XZ:PROC
EXTRN	__imp_?Compare@?$CStringT@DV?$StrTraitMFC_DLL@DV?$ChTraitsCRT@D@ATL@@@@@ATL@@QBEHPBD@Z:PROC
EXTRN	__imp_?Delete@?$CStringT@DV?$StrTraitMFC_DLL@DV?$ChTraitsCRT@D@ATL@@@@@ATL@@QAEHHH@Z:PROC
EXTRN	__imp_?Find@?$CStringT@DV?$StrTraitMFC_DLL@DV?$ChTraitsCRT@D@ATL@@@@@ATL@@QBEHDH@Z:PROC
EXTRN	__imp_?Find@?$CStringT@DV?$StrTraitMFC_DLL@DV?$ChTraitsCRT@D@ATL@@@@@ATL@@QBEHPBDH@Z:PROC
EXTRN	__imp_?ReverseFind@?$CStringT@DV?$StrTraitMFC_DLL@DV?$ChTraitsCRT@D@ATL@@@@@ATL@@QBEHD@Z:PROC
EXTRN	__imp_?Mid@?$CStringT@DV?$StrTraitMFC_DLL@DV?$ChTraitsCRT@D@ATL@@@@@ATL@@QBE?AV12@H@Z:PROC
EXTRN	__imp_?Left@?$CStringT@DV?$StrTraitMFC_DLL@DV?$ChTraitsCRT@D@ATL@@@@@ATL@@QBE?AV12@H@Z:PROC
EXTRN	__imp_?Format@?$CStringT@DV?$StrTraitMFC_DLL@DV?$ChTraitsCRT@D@ATL@@@@@ATL@@QAAXPBDZZ:PROC
EXTRN	??0CFileFind@@QAE@XZ:PROC			; CFileFind::CFileFind
EXTRN	??1CFileFind@@UAE@XZ:PROC			; CFileFind::~CFileFind
EXTRN	?GetFileTitle@CFileFind@@UBE?AV?$CStringT@DV?$StrTraitMFC_DLL@DV?$ChTraitsCRT@D@ATL@@@@@ATL@@XZ:PROC ; CFileFind::GetFileTitle
EXTRN	?FindFile@CFileFind@@UAEHPBDK@Z:PROC		; CFileFind::FindFile
EXTRN	?FindNextFileA@CFileFind@@UAEHXZ:PROC		; CFileFind::FindNextFileA
EXTRN	?Read@CArchive@@QAEIPAXI@Z:PROC			; CArchive::Read
EXTRN	?Write@CArchive@@QAEXPBXI@Z:PROC		; CArchive::Write
EXTRN	?ReadCount@CArchive@@QAEKXZ:PROC		; CArchive::ReadCount
EXTRN	?WriteCount@CArchive@@QAEXK@Z:PROC		; CArchive::WriteCount
EXTRN	??0CStringArray@@QAE@XZ:PROC			; CStringArray::CStringArray
EXTRN	?SetSize@CStringArray@@QAEXHH@Z:PROC		; CStringArray::SetSize
EXTRN	?SetAtGrow@CStringArray@@QAEXHABV?$CStringT@DV?$StrTraitMFC_DLL@DV?$ChTraitsCRT@D@ATL@@@@@ATL@@@Z:PROC ; CStringArray::SetAtGrow
EXTRN	??1CStringArray@@UAE@XZ:PROC			; CStringArray::~CStringArray
EXTRN	??0CStringList@@QAE@H@Z:PROC			; CStringList::CStringList
EXTRN	?AddTail@CStringList@@QAEPAU__POSITION@@ABV?$CStringT@DV?$StrTraitMFC_DLL@DV?$ChTraitsCRT@D@ATL@@@@@ATL@@@Z:PROC ; CStringList::AddTail
EXTRN	??1CStringList@@UAE@XZ:PROC			; CStringList::~CStringList
EXTRN	?AfxGetModuleState@@YGPAVAFX_MODULE_STATE@@XZ:PROC ; AfxGetModuleState
EXTRN	?AfxGetStaticModuleState@@YGPAVAFX_MODULE_STATE@@XZ:PROC ; AfxGetStaticModuleState
EXTRN	??0AFX_MAINTAIN_STATE2@@QAE@PAVAFX_MODULE_STATE@@@Z:PROC ; AFX_MAINTAIN_STATE2::AFX_MAINTAIN_STATE2
EXTRN	??1AFX_MAINTAIN_STATE2@@QAE@XZ:PROC		; AFX_MAINTAIN_STATE2::~AFX_MAINTAIN_STATE2
EXTRN	?Create@CPlex@@SGPAU1@AAPAU1@II@Z:PROC		; CPlex::Create
EXTRN	?FreeDataChain@CPlex@@QAEXXZ:PROC		; CPlex::FreeDataChain
EXTRN	?GetRuntimeClass@CGdiObject@@UBEPAUCRuntimeClass@@XZ:PROC ; CGdiObject::GetRuntimeClass
EXTRN	?Attach@CGdiObject@@QAEHPAX@Z:PROC		; CGdiObject::Attach
EXTRN	?DeleteObject@CGdiObject@@QAEHXZ:PROC		; CGdiObject::DeleteObject
EXTRN	??_ECGdiObject@@UAEPAXI@Z:PROC			; CGdiObject::`vector deleting destructor'
EXTRN	?GetRuntimeClass@CBitmap@@UBEPAUCRuntimeClass@@XZ:PROC ; CBitmap::GetRuntimeClass
EXTRN	??_ECBitmap@@UAEPAXI@Z:PROC			; CBitmap::`vector deleting destructor'
EXTRN	??0CImageList@@QAE@XZ:PROC			; CImageList::CImageList
EXTRN	?Create@CImageList@@QAEHHHIHH@Z:PROC		; CImageList::Create
EXTRN	?DeleteImageList@CImageList@@QAEHXZ:PROC	; CImageList::DeleteImageList
EXTRN	??1CImageList@@UAE@XZ:PROC			; CImageList::~CImageList
EXTRN	?GetRuntimeClass@CMenu@@UBEPAUCRuntimeClass@@XZ:PROC ; CMenu::GetRuntimeClass
EXTRN	?DestroyMenu@CMenu@@QAEHXZ:PROC			; CMenu::DestroyMenu
EXTRN	?Attach@CMenu@@QAEHPAUHMENU__@@@Z:PROC		; CMenu::Attach
EXTRN	?TrackPopupMenu@CMenu@@QAEHIHHPAVCWnd@@PBUtagRECT@@@Z:PROC ; CMenu::TrackPopupMenu
EXTRN	?DrawItem@CMenu@@UAEXPAUtagDRAWITEMSTRUCT@@@Z:PROC ; CMenu::DrawItem
EXTRN	?MeasureItem@CMenu@@UAEXPAUtagMEASUREITEMSTRUCT@@@Z:PROC ; CMenu::MeasureItem
EXTRN	??_ECMenu@@UAEPAXI@Z:PROC			; CMenu::`vector deleting destructor'
EXTRN	?DDX_Control@@YGXPAVCDataExchange@@HAAVCWnd@@@Z:PROC ; DDX_Control
EXTRN	?IsInvokeAllowed@CCmdTarget@@UAEHJ@Z:PROC	; CCmdTarget::IsInvokeAllowed
EXTRN	?GetDispatchIID@CCmdTarget@@UAEHPAU_GUID@@@Z:PROC ; CCmdTarget::GetDispatchIID
EXTRN	?GetTypeInfoCount@CCmdTarget@@UAEIXZ:PROC	; CCmdTarget::GetTypeInfoCount
EXTRN	?GetTypeLibCache@CCmdTarget@@UAEPAVCTypeLibCache@@XZ:PROC ; CCmdTarget::GetTypeLibCache
EXTRN	?GetTypeLib@CCmdTarget@@UAEJKPAPAUITypeLib@@@Z:PROC ; CCmdTarget::GetTypeLib
EXTRN	?GetCommandMap@CCmdTarget@@MBEPBUAFX_OLECMDMAP@@XZ:PROC ; CCmdTarget::GetCommandMap
EXTRN	?GetDispatchMap@CCmdTarget@@MBEPBUAFX_DISPMAP@@XZ:PROC ; CCmdTarget::GetDispatchMap
EXTRN	?GetConnectionMap@CCmdTarget@@MBEPBUAFX_CONNECTIONMAP@@XZ:PROC ; CCmdTarget::GetConnectionMap
EXTRN	?GetEventSinkMap@CCmdTarget@@MBEPBUAFX_EVENTSINKMAP@@XZ:PROC ; CCmdTarget::GetEventSinkMap
EXTRN	?OnCreateAggregates@CCmdTarget@@UAEHXZ:PROC	; CCmdTarget::OnCreateAggregates
EXTRN	?GetInterfaceHook@CCmdTarget@@UAEPAUIUnknown@@PBX@Z:PROC ; CCmdTarget::GetInterfaceHook
EXTRN	?GetExtraConnectionPoints@CCmdTarget@@MAEHPAVCPtrArray@@@Z:PROC ; CCmdTarget::GetExtraConnectionPoints
EXTRN	?GetConnectionHook@CCmdTarget@@MAEPAUIConnectionPoint@@ABU_GUID@@@Z:PROC ; CCmdTarget::GetConnectionHook
EXTRN	?FromHandle@CWnd@@SGPAV1@PAUHWND__@@@Z:PROC	; CWnd::FromHandle
EXTRN	?PreSubclassWindow@CWnd@@UAEXXZ:PROC		; CWnd::PreSubclassWindow
EXTRN	?Create@CWnd@@UAEHPBD0KABUtagRECT@@PAV1@IPAUCCreateContext@@@Z:PROC ; CWnd::Create
EXTRN	?CreateEx@CWnd@@UAEHKPBD0KHHHHPAUHWND__@@PAUHMENU__@@PAX@Z:PROC ; CWnd::CreateEx
EXTRN	?CreateEx@CWnd@@UAEHKPBD0KABUtagRECT@@PAV1@IPAX@Z:PROC ; CWnd::CreateEx
EXTRN	?DestroyWindow@CWnd@@UAEHXZ:PROC		; CWnd::DestroyWindow
EXTRN	?PreCreateWindow@CWnd@@UAEHAAUtagCREATESTRUCTA@@@Z:PROC ; CWnd::PreCreateWindow
EXTRN	?CalcWindowRect@CWnd@@UAEXPAUtagRECT@@I@Z:PROC	; CWnd::CalcWindowRect
EXTRN	?GetDlgItem@CWnd@@QBEPAV1@H@Z:PROC		; CWnd::GetDlgItem
EXTRN	?GetMenu@CWnd@@UBEPAVCMenu@@XZ:PROC		; CWnd::GetMenu
EXTRN	?SetMenu@CWnd@@UAEHPAVCMenu@@@Z:PROC		; CWnd::SetMenu
EXTRN	?MoveWindow@CWnd@@QAEXHHHHH@Z:PROC		; CWnd::MoveWindow
EXTRN	?SetWindowPos@CWnd@@QAEHPBV1@HHHHI@Z:PROC	; CWnd::SetWindowPos
EXTRN	?ScreenToClient@CWnd@@QBEXPAUtagRECT@@@Z:PROC	; CWnd::ScreenToClient
EXTRN	?ShowWindow@CWnd@@QAEHH@Z:PROC			; CWnd::ShowWindow
EXTRN	?OnToolHitTest@CWnd@@UBEHVCPoint@@PAUtagTOOLINFOA@@@Z:PROC ; CWnd::OnToolHitTest
EXTRN	?EnableWindow@CWnd@@QAEHH@Z:PROC		; CWnd::EnableWindow
EXTRN	?GetDlgItemInt@CWnd@@QBEIHPAHH@Z:PROC		; CWnd::GetDlgItemInt
EXTRN	?IsDlgButtonChecked@CWnd@@QBEIH@Z:PROC		; CWnd::IsDlgButtonChecked
EXTRN	?GetScrollBarCtrl@CWnd@@UBEPAVCScrollBar@@H@Z:PROC ; CWnd::GetScrollBarCtrl
EXTRN	?MessageBoxA@CWnd@@QAEHPBD0I@Z:PROC		; CWnd::MessageBoxA
EXTRN	?WinHelpA@CWnd@@UAEXKI@Z:PROC			; CWnd::WinHelpA
EXTRN	?HtmlHelpA@CWnd@@UAEXKI@Z:PROC			; CWnd::HtmlHelpA
EXTRN	?WinHelpInternal@CWnd@@UAEXKI@Z:PROC		; CWnd::WinHelpInternal
EXTRN	?ContinueModal@CWnd@@UAEHXZ:PROC		; CWnd::ContinueModal
EXTRN	?EndModalLoop@CWnd@@UAEXH@Z:PROC		; CWnd::EndModalLoop
EXTRN	?OnDrawIconicThumbnailOrLivePreview@CWnd@@UAEXAAVCDC@@VCRect@@VCSize@@HAAH@Z:PROC ; CWnd::OnDrawIconicThumbnailOrLivePreview
EXTRN	?GetInterfaceMap@CWnd@@MBEPBUAFX_INTERFACEMAP@@XZ:PROC ; CWnd::GetInterfaceMap
EXTRN	?EnsureStdObj@CWnd@@UAEJXZ:PROC			; CWnd::EnsureStdObj
EXTRN	?get_accParent@CWnd@@UAEJPAPAUIDispatch@@@Z:PROC ; CWnd::get_accParent
EXTRN	?get_accChildCount@CWnd@@UAEJPAJ@Z:PROC		; CWnd::get_accChildCount
EXTRN	?get_accChild@CWnd@@UAEJUtagVARIANT@@PAPAUIDispatch@@@Z:PROC ; CWnd::get_accChild
EXTRN	?get_accName@CWnd@@UAEJUtagVARIANT@@PAPA_W@Z:PROC ; CWnd::get_accName
EXTRN	?get_accValue@CWnd@@UAEJUtagVARIANT@@PAPA_W@Z:PROC ; CWnd::get_accValue
EXTRN	?get_accDescription@CWnd@@UAEJUtagVARIANT@@PAPA_W@Z:PROC ; CWnd::get_accDescription
EXTRN	?get_accRole@CWnd@@UAEJUtagVARIANT@@PAU2@@Z:PROC ; CWnd::get_accRole
EXTRN	?get_accState@CWnd@@UAEJUtagVARIANT@@PAU2@@Z:PROC ; CWnd::get_accState
EXTRN	?get_accHelp@CWnd@@UAEJUtagVARIANT@@PAPA_W@Z:PROC ; CWnd::get_accHelp
EXTRN	?get_accHelpTopic@CWnd@@UAEJPAPA_WUtagVARIANT@@PAJ@Z:PROC ; CWnd::get_accHelpTopic
EXTRN	?get_accKeyboardShortcut@CWnd@@UAEJUtagVARIANT@@PAPA_W@Z:PROC ; CWnd::get_accKeyboardShortcut
EXTRN	?get_accFocus@CWnd@@UAEJPAUtagVARIANT@@@Z:PROC	; CWnd::get_accFocus
EXTRN	?get_accSelection@CWnd@@UAEJPAUtagVARIANT@@@Z:PROC ; CWnd::get_accSelection
EXTRN	?get_accDefaultAction@CWnd@@UAEJUtagVARIANT@@PAPA_W@Z:PROC ; CWnd::get_accDefaultAction
EXTRN	?accSelect@CWnd@@UAEJJUtagVARIANT@@@Z:PROC	; CWnd::accSelect
EXTRN	?accLocation@CWnd@@UAEJPAJ000UtagVARIANT@@@Z:PROC ; CWnd::accLocation
EXTRN	?accNavigate@CWnd@@UAEJJUtagVARIANT@@PAU2@@Z:PROC ; CWnd::accNavigate
EXTRN	?accHitTest@CWnd@@UAEJJJPAUtagVARIANT@@@Z:PROC	; CWnd::accHitTest
EXTRN	?accDoDefaultAction@CWnd@@UAEJUtagVARIANT@@@Z:PROC ; CWnd::accDoDefaultAction
EXTRN	?put_accName@CWnd@@UAEJUtagVARIANT@@PA_W@Z:PROC	; CWnd::put_accName
EXTRN	?put_accValue@CWnd@@UAEJUtagVARIANT@@PA_W@Z:PROC ; CWnd::put_accValue
EXTRN	?SetProxy@CWnd@@UAEJPAUIAccessibleProxy@@@Z:PROC ; CWnd::SetProxy
EXTRN	?CreateAccessibleProxy@CWnd@@UAEJIJPAJ@Z:PROC	; CWnd::CreateAccessibleProxy
EXTRN	?OnCommand@CWnd@@MAEHIJ@Z:PROC			; CWnd::OnCommand
EXTRN	?OnNotify@CWnd@@MAEHIJPAJ@Z:PROC		; CWnd::OnNotify
EXTRN	?GetSuperWndProcAddr@CWnd@@MAEPAP6GJPAUHWND__@@IIJ@ZXZ:PROC ; CWnd::GetSuperWndProcAddr
EXTRN	?OnAmbientProperty@CWnd@@UAEHPAVCOleControlSite@@JPAUtagVARIANT@@@Z:PROC ; CWnd::OnAmbientProperty
EXTRN	?WindowProc@CWnd@@MAEJIIJ@Z:PROC		; CWnd::WindowProc
EXTRN	?OnWndMsg@CWnd@@MAEHIIJPAJ@Z:PROC		; CWnd::OnWndMsg
EXTRN	?Default@CWnd@@IAEJXZ:PROC			; CWnd::Default
EXTRN	?DefWindowProcA@CWnd@@MAEJIIJ@Z:PROC		; CWnd::DefWindowProcA
EXTRN	?PostNcDestroy@CWnd@@MAEXXZ:PROC		; CWnd::PostNcDestroy
EXTRN	?OnChildNotify@CWnd@@MAEHIIJPAJ@Z:PROC		; CWnd::OnChildNotify
EXTRN	?OnTouchInputs@CWnd@@MAEHIPAUtagTOUCHINPUT@@@Z:PROC ; CWnd::OnTouchInputs
EXTRN	?OnTouchInput@CWnd@@MAEHVCPoint@@HHPAUtagTOUCHINPUT@@@Z:PROC ; CWnd::OnTouchInput
EXTRN	?GetGestureStatus@CWnd@@MAEKVCPoint@@@Z:PROC	; CWnd::GetGestureStatus
EXTRN	?OnGestureZoom@CWnd@@MAEHVCPoint@@J@Z:PROC	; CWnd::OnGestureZoom
EXTRN	?OnGesturePan@CWnd@@MAEHVCPoint@@0@Z:PROC	; CWnd::OnGesturePan
EXTRN	?OnGestureRotate@CWnd@@MAEHVCPoint@@N@Z:PROC	; CWnd::OnGestureRotate
EXTRN	?OnGestureTwoFingerTap@CWnd@@MAEHVCPoint@@@Z:PROC ; CWnd::OnGestureTwoFingerTap
EXTRN	?OnGesturePressAndTap@CWnd@@MAEHVCPoint@@J@Z:PROC ; CWnd::OnGesturePressAndTap
EXTRN	?ResizeDynamicLayout@CWnd@@MAEXXZ:PROC		; CWnd::ResizeDynamicLayout
EXTRN	?IsFrameWnd@CWnd@@UBEHXZ:PROC			; CWnd::IsFrameWnd
EXTRN	?OnFinalRelease@CWnd@@UAEXXZ:PROC		; CWnd::OnFinalRelease
EXTRN	?CreateControlContainer@CWnd@@MAEHPAPAVCOleControlContainer@@@Z:PROC ; CWnd::CreateControlContainer
EXTRN	?CreateControlSite@CWnd@@MAEHPAVCOleControlContainer@@PAPAVCOleControlSite@@IABU_GUID@@@Z:PROC ; CWnd::CreateControlSite
EXTRN	?GetRuntimeClass@CDialog@@UBEPAUCRuntimeClass@@XZ:PROC ; CDialog::GetRuntimeClass
EXTRN	?Create@CDialog@@UAEHPBDPAVCWnd@@@Z:PROC	; CDialog::Create
EXTRN	?CreateIndirect@CDialog@@UAEHPBUDLGTEMPLATE@@PAVCWnd@@PAX@Z:PROC ; CDialog::CreateIndirect
EXTRN	?CreateIndirect@CDialog@@UAEHPAXPAVCWnd@@@Z:PROC ; CDialog::CreateIndirect
EXTRN	?DoModal@CDialog@@UAEHXZ:PROC			; CDialog::DoModal
EXTRN	?OnSetFont@CDialog@@UAEXPAVCFont@@@Z:PROC	; CDialog::OnSetFont
EXTRN	?OnOK@CDialog@@MAEXXZ:PROC			; CDialog::OnOK
EXTRN	?OnCancel@CDialog@@MAEXXZ:PROC			; CDialog::OnCancel
EXTRN	?OnCmdMsg@CDialog@@UAEHIHPAXPAUAFX_CMDHANDLERINFO@@@Z:PROC ; CDialog::OnCmdMsg
EXTRN	?CheckAutoCenter@CDialog@@UAEHXZ:PROC		; CDialog::CheckAutoCenter
EXTRN	?SetOccDialogInfo@CDialog@@MAEHPAU_AFX_OCC_DIALOG_INFO@@@Z:PROC ; CDialog::SetOccDialogInfo
EXTRN	?GetOccDialogInfo@CDialog@@MAEPAU_AFX_OCC_DIALOG_INFO@@XZ:PROC ; CDialog::GetOccDialogInfo
EXTRN	?PreInitDialog@CDialog@@MAEXXZ:PROC		; CDialog::PreInitDialog
EXTRN	?AfxMessageBox@@YGHPBDII@Z:PROC			; AfxMessageBox
EXTRN	?AfxVariantInit@@YGXPAUtagVARIANT@@@Z:PROC	; AfxVariantInit
EXTRN	?Create@CRscDlg@@UAEHIPAVCWnd@@@Z:PROC		; CRscDlg::Create
EXTRN	?DoModal@CRscDlg@@UAEHXZ:PROC			; CRscDlg::DoModal
EXTRN	__imp__sndPlaySoundA@8:PROC
EXTRN	??0CILButton@@QAE@XZ:PROC			; CILButton::CILButton
EXTRN	?FP_vSetImage@CILButton@@QAEXPAVCImageList@@HHHV?$CStringT@DV?$StrTraitMFC_DLL@DV?$ChTraitsCRT@D@ATL@@@@@ATL@@HHH@Z:PROC ; CILButton::FP_vSetImage
EXTRN	?FP_vSetToolTipText@CILButton@@QAEXV?$CStringT@DV?$StrTraitMFC_DLL@DV?$ChTraitsCRT@D@ATL@@@@@ATL@@@Z:PROC ; CILButton::FP_vSetToolTipText
EXTRN	??1CILButton@@UAE@XZ:PROC			; CILButton::~CILButton
EXTRN	??0CTabDlg@@QAE@IPAVCWnd@@@Z:PROC		; CTabDlg::CTabDlg
EXTRN	??1CTabDlg@@UAE@XZ:PROC				; CTabDlg::~CTabDlg
EXTRN	?PreTranslateMessage@CTabDlg@@UAEHPAUtagMSG@@@Z:PROC ; CTabDlg::PreTranslateMessage
EXTRN	?DoDataExchange@CTabDlg@@MAEXPAVCDataExchange@@@Z:PROC ; CTabDlg::DoDataExchange
EXTRN	?RecalcLayoutCtrl@CTabDlg@@IAEXAAVCWnd@@H@Z:PROC ; CTabDlg::RecalcLayoutCtrl
EXTRN	?OnCtlColor@CTabDlg@@IAEPAUHBRUSH__@@PAVCDC@@PAVCWnd@@I@Z:PROC ; CTabDlg::OnCtlColor
EXTRN	?OnInitDialog@CTabDlg@@MAEHXZ:PROC		; CTabDlg::OnInitDialog
EXTRN	?GetThisMessageMap@CTabDlg@@KGPBUAFX_MSGMAP@@XZ:PROC ; CTabDlg::GetThisMessageMap
EXTRN	??0CDllDlg@@QAE@PBD0PAXPAUHINSTANCE__@@PAVCWnd@@@Z:PROC ; CDllDlg::CDllDlg
EXTRN	??1CDllDlg@@UAE@XZ:PROC				; CDllDlg::~CDllDlg
EXTRN	??0CDlgSTExOption@@QAE@PAVCWnd@@@Z:PROC		; CDlgSTExOption::CDlgSTExOption
EXTRN	?GetDivCount@CDlgSTExOption@@QAEHXZ:PROC	; CDlgSTExOption::GetDivCount
EXTRN	?GetRepRate@CDlgSTExOption@@QAENXZ:PROC		; CDlgSTExOption::GetRepRate
EXTRN	?OpenRefort@CDlgSTExOption@@QAEXXZ:PROC		; CDlgSTExOption::OpenRefort
EXTRN	?SetInitDlg@CDlgSTExOption@@QAEXXZ:PROC		; CDlgSTExOption::SetInitDlg
EXTRN	?OnBnClickedStapply@CDlgSTExOption@@QAEXXZ:PROC	; CDlgSTExOption::OnBnClickedStapply
EXTRN	??0CSTExtTree@@QAE@XZ:PROC			; CSTExtTree::CSTExtTree
EXTRN	??1CSTExtTree@@UAE@XZ:PROC			; CSTExtTree::~CSTExtTree
EXTRN	??0CSTBasicTree@@QAE@XZ:PROC			; CSTBasicTree::CSTBasicTree
EXTRN	??1CSTBasicTree@@UAE@XZ:PROC			; CSTBasicTree::~CSTBasicTree
EXTRN	??0CConfirmWnd@@QAE@XZ:PROC			; CConfirmWnd::CConfirmWnd
EXTRN	?OpenWindow@CConfirmWnd@@QAEHXZ:PROC		; CConfirmWnd::OpenWindow
EXTRN	?GetEndDate@CChartItem@@QAE?AV?$CStringT@DV?$StrTraitMFC_DLL@DV?$ChTraitsCRT@D@ATL@@@@@ATL@@XZ:PROC ; CChartItem::GetEndDate
EXTRN	?GetDataCode@CChartItem@@QAE?AV?$CStringT@DV?$StrTraitMFC_DLL@DV?$ChTraitsCRT@D@ATL@@@@@ATL@@H@Z:PROC ; CChartItem::GetDataCode
EXTRN	?SetSTRunSTPath@CChartItem@@QAEXV?$CStringT@DV?$StrTraitMFC_DLL@DV?$ChTraitsCRT@D@ATL@@@@@ATL@@@Z:PROC ; CChartItem::SetSTRunSTPath
EXTRN	?InvokeAddInSTIndex@CChartItem@@QAEHPBDFJ@Z:PROC ; CChartItem::InvokeAddInSTIndex
EXTRN	??0CSysTabExChartItem@@QAE@XZ:PROC		; CSysTabExChartItem::CSysTabExChartItem
EXTRN	??_E?$CMap@PAVCConfirmWnd@@PAV1@JJ@@UAEPAXI@Z:PROC ; CMap<CConfirmWnd *,CConfirmWnd *,long,long>::`vector deleting destructor'
EXTRN	??_ECTabSystemTradingEx@@UAEPAXI@Z:PROC		; CTabSystemTradingEx::`vector deleting destructor'
EXTRN	?GetpChartItemSelected@CChartMng@@QAEPAVCChartItem@@XZ:PROC ; CChartMng::GetpChartItemSelected
EXTRN	?GetMarketTypeFromCode@CStdDialog@@QAEHV?$CStringT@DV?$StrTraitMFC_DLL@DV?$ChTraitsCRT@D@ATL@@@@@ATL@@AAH@Z:PROC ; CStdDialog::GetMarketTypeFromCode
EXTRN	?GetItemNameFromItemCode@CStdDialog@@QAE?AV?$CStringT@DV?$StrTraitMFC_DLL@DV?$ChTraitsCRT@D@ATL@@@@@ATL@@V23@H@Z:PROC ; CStdDialog::GetItemNameFromItemCode
EXTRN	@__security_check_cookie@4:PROC
EXTRN	___CxxFrameHandler3:PROC
EXTRN	_memcpy:PROC
EXTRN	_memset:PROC
EXTRN	??_7type_info@@6B@:QWORD			; type_info::`vftable'
EXTRN	___security_cookie:DWORD
EXTRN	__fltused:DWORD
;	COMDAT ?_OptionsStorage@?1??__local_stdio_printf_options@@9@4_KA
_BSS	SEGMENT
?_OptionsStorage@?1??__local_stdio_printf_options@@9@4_KA DQ 01H DUP (?) ; `__local_stdio_printf_options'::`2'::_OptionsStorage
_BSS	ENDS
;	COMDAT ?_OptionsStorage@?1??__local_stdio_scanf_options@@9@4_KA
_BSS	SEGMENT
?_OptionsStorage@?1??__local_stdio_scanf_options@@9@4_KA DQ 01H DUP (?) ; `__local_stdio_scanf_options'::`2'::_OptionsStorage
_BSS	ENDS
_BSS	SEGMENT
?RMSG_INTERFACE@@3IB DD 01H DUP (?)			; RMSG_INTERFACE
?RMSG_GETSIGNAL_REAL@@3IB DD 01H DUP (?)		; RMSG_GETSIGNAL_REAL
?RMSG_SETQUERYOPT@@3IB DD 01H DUP (?)			; RMSG_SETQUERYOPT
?RMSG_CHARTMAIN@@3IB DD 01H DUP (?)			; RMSG_CHARTMAIN
?RMS_ANALYSIS_FUNC@@3IB DD 01H DUP (?)			; RMS_ANALYSIS_FUNC
?RMSG_GET_USERID@@3IB DD 01H DUP (?)			; RMSG_GET_USERID
?RMSG_CHANGE_SKINCOLOR@@3IB DD 01H DUP (?)		; RMSG_CHANGE_SKINCOLOR
?RMSG_GET_SKINCOLOR@@3IB DD 01H DUP (?)			; RMSG_GET_SKINCOLOR
?RMSG_CHANGEVERTSCALETYPE@@3IB DD 01H DUP (?)		; RMSG_CHANGEVERTSCALETYPE
?RMSG_CHANGE_CROSSLINE@@3IB DD 01H DUP (?)		; RMSG_CHANGE_CROSSLINE
?RMSG_ADD_PLATFORM_MENU@@3IB DD 01H DUP (?)		; RMSG_ADD_PLATFORM_MENU
?RMSG_SETINITIALCHARTDATA@@3IB DD 01H DUP (?)		; RMSG_SETINITIALCHARTDATA
?RMSG_GETINFO@@3IB DD 01H DUP (?)			; RMSG_GETINFO
?RMSG_SETINFO@@3IB DD 01H DUP (?)			; RMSG_SETINFO
?RMSG_STTREE_ITEMCLICK@@3IB DD 01H DUP (?)		; RMSG_STTREE_ITEMCLICK
?RMSG_STTREE_ITEMDBLCLK@@3IB DD 01H DUP (?)		; RMSG_STTREE_ITEMDBLCLK
?RMSG_REPLAY_REAL@@3IB DD 01H DUP (?)			; RMSG_REPLAY_REAL
?RMSG_REPLAY_FAIL@@3IB DD 01H DUP (?)			; RMSG_REPLAY_FAIL
?RMSG_REPLAY_CHANGE_DATE@@3IB DD 01H DUP (?)		; RMSG_REPLAY_CHANGE_DATE
?RMSG_REPLAY_END@@3IB DD 01H DUP (?)			; RMSG_REPLAY_END
?RMSG_REPLAY_INC_SEC@@3IB DD 01H DUP (?)		; RMSG_REPLAY_INC_SEC
?RMSG_REPLAY_TOTAL_SEC@@3IB DD 01H DUP (?)		; RMSG_REPLAY_TOTAL_SEC
?RMSG_OB_ITEMCLICK@@3IB DD 01H DUP (?)			; RMSG_OB_ITEMCLICK
?RMSG_OB_ITEMDBLCLK@@3IB DD 01H DUP (?)			; RMSG_OB_ITEMDBLCLK
?RMSG_RUN_MULTIST@@3IB DD 01H DUP (?)			; RMSG_RUN_MULTIST
?RMSG_INDEXADDIN_NOTIFY_RAWDATA@@3IB DD 01H DUP (?)	; RMSG_INDEXADDIN_NOTIFY_RAWDATA
?RMSG_INDEXADDIN_NOTIFY_BUYSELL@@3IB DD 01H DUP (?)	; RMSG_INDEXADDIN_NOTIFY_BUYSELL
?RMSG_INDEXADDIN_NOTIFY_SIGNAL@@3IB DD 01H DUP (?)	; RMSG_INDEXADDIN_NOTIFY_SIGNAL
?RMSG_DESTROY_CONFIRMWND@@3IB DD 01H DUP (?)		; RMSG_DESTROY_CONFIRMWND
?RMSG_GET_SCREENVIEWHANDLE@@3IB DD 01H DUP (?)		; RMSG_GET_SCREENVIEWHANDLE
?RMSG_REQUEST_HOGADATA@@3IB DD 01H DUP (?)		; RMSG_REQUEST_HOGADATA
?RMSG_ISSTRUNSTATE@@3IB DD 01H DUP (?)			; RMSG_ISSTRUNSTATE
_BSS	ENDS
;	COMDAT CRT$XCU
CRT$XCU	SEGMENT
?_AtlWinModule$initializer$@ATL@@3P6AXXZA DD FLAT:??__E_AtlWinModule@ATL@@YAXXZ ; ATL::_AtlWinModule$initializer$
CRT$XCU	ENDS
;	COMDAT __real@0000000000000000
CONST	SEGMENT
__real@0000000000000000 DQ 00000000000000000r	; 0
CONST	ENDS
;	COMDAT ??_R1A@?0A@EA@CSTDlgConfirmSendJumun@CTabSystemTradingEx@@8
rdata$r	SEGMENT
??_R1A@?0A@EA@CSTDlgConfirmSendJumun@CTabSystemTradingEx@@8 DD FLAT:??_R0?AVCSTDlgConfirmSendJumun@CTabSystemTradingEx@@@8 ; CTabSystemTradingEx::CSTDlgConfirmSendJumun::`RTTI Base Class Descriptor at (0,-1,0,64)'
	DD	01H
	DD	00H
	DD	0ffffffffH
	DD	00H
	DD	040H
	DD	FLAT:??_R3CSTDlgConfirmSendJumun@CTabSystemTradingEx@@8
rdata$r	ENDS
;	COMDAT ??_R2CSTDlgConfirmSendJumun@CTabSystemTradingEx@@8
rdata$r	SEGMENT
??_R2CSTDlgConfirmSendJumun@CTabSystemTradingEx@@8 DD FLAT:??_R1A@?0A@EA@CSTDlgConfirmSendJumun@CTabSystemTradingEx@@8 ; CTabSystemTradingEx::CSTDlgConfirmSendJumun::`RTTI Base Class Array'
	DD	FLAT:??_R1A@?0A@EA@ISTDlgConfirmSendJumun@@8
rdata$r	ENDS
;	COMDAT ??_R3CSTDlgConfirmSendJumun@CTabSystemTradingEx@@8
rdata$r	SEGMENT
??_R3CSTDlgConfirmSendJumun@CTabSystemTradingEx@@8 DD 00H ; CTabSystemTradingEx::CSTDlgConfirmSendJumun::`RTTI Class Hierarchy Descriptor'
	DD	00H
	DD	02H
	DD	FLAT:??_R2CSTDlgConfirmSendJumun@CTabSystemTradingEx@@8
rdata$r	ENDS
;	COMDAT ??_R0?AVCSTDlgConfirmSendJumun@CTabSystemTradingEx@@@8
data$rs	SEGMENT
??_R0?AVCSTDlgConfirmSendJumun@CTabSystemTradingEx@@@8 DD FLAT:??_7type_info@@6B@ ; CTabSystemTradingEx::CSTDlgConfirmSendJumun `RTTI Type Descriptor'
	DD	00H
	DB	'.?AVCSTDlgConfirmSendJumun@CTabSystemTradingEx@@', 00H
data$rs	ENDS
;	COMDAT ??_R4CSTDlgConfirmSendJumun@CTabSystemTradingEx@@6B@
rdata$r	SEGMENT
??_R4CSTDlgConfirmSendJumun@CTabSystemTradingEx@@6B@ DD 00H ; CTabSystemTradingEx::CSTDlgConfirmSendJumun::`RTTI Complete Object Locator'
	DD	00H
	DD	00H
	DD	FLAT:??_R0?AVCSTDlgConfirmSendJumun@CTabSystemTradingEx@@@8
	DD	FLAT:??_R3CSTDlgConfirmSendJumun@CTabSystemTradingEx@@8
rdata$r	ENDS
;	COMDAT ??_R1A@?0A@EA@?$CMap@PAVCConfirmWnd@@PAV1@JJ@@8
rdata$r	SEGMENT
??_R1A@?0A@EA@?$CMap@PAVCConfirmWnd@@PAV1@JJ@@8 DD FLAT:??_R0?AV?$CMap@PAVCConfirmWnd@@PAV1@JJ@@@8 ; CMap<CConfirmWnd *,CConfirmWnd *,long,long>::`RTTI Base Class Descriptor at (0,-1,0,64)'
	DD	01H
	DD	00H
	DD	0ffffffffH
	DD	00H
	DD	040H
	DD	FLAT:??_R3?$CMap@PAVCConfirmWnd@@PAV1@JJ@@8
rdata$r	ENDS
;	COMDAT ??_R2?$CMap@PAVCConfirmWnd@@PAV1@JJ@@8
rdata$r	SEGMENT
??_R2?$CMap@PAVCConfirmWnd@@PAV1@JJ@@8 DD FLAT:??_R1A@?0A@EA@?$CMap@PAVCConfirmWnd@@PAV1@JJ@@8 ; CMap<CConfirmWnd *,CConfirmWnd *,long,long>::`RTTI Base Class Array'
	DD	FLAT:??_R1A@?0A@EA@CObject@@8
rdata$r	ENDS
;	COMDAT ??_R3?$CMap@PAVCConfirmWnd@@PAV1@JJ@@8
rdata$r	SEGMENT
??_R3?$CMap@PAVCConfirmWnd@@PAV1@JJ@@8 DD 00H		; CMap<CConfirmWnd *,CConfirmWnd *,long,long>::`RTTI Class Hierarchy Descriptor'
	DD	00H
	DD	02H
	DD	FLAT:??_R2?$CMap@PAVCConfirmWnd@@PAV1@JJ@@8
rdata$r	ENDS
;	COMDAT ??_R0?AV?$CMap@PAVCConfirmWnd@@PAV1@JJ@@@8
data$rs	SEGMENT
??_R0?AV?$CMap@PAVCConfirmWnd@@PAV1@JJ@@@8 DD FLAT:??_7type_info@@6B@ ; CMap<CConfirmWnd *,CConfirmWnd *,long,long> `RTTI Type Descriptor'
	DD	00H
	DB	'.?AV?$CMap@PAVCConfirmWnd@@PAV1@JJ@@', 00H
data$rs	ENDS
;	COMDAT ??_R4?$CMap@PAVCConfirmWnd@@PAV1@JJ@@6B@
rdata$r	SEGMENT
??_R4?$CMap@PAVCConfirmWnd@@PAV1@JJ@@6B@ DD 00H		; CMap<CConfirmWnd *,CConfirmWnd *,long,long>::`RTTI Complete Object Locator'
	DD	00H
	DD	00H
	DD	FLAT:??_R0?AV?$CMap@PAVCConfirmWnd@@PAV1@JJ@@@8
	DD	FLAT:??_R3?$CMap@PAVCConfirmWnd@@PAV1@JJ@@8
rdata$r	ENDS
;	COMDAT ??_R1A@?0A@EA@CSTRunManager@CTabSystemTradingEx@@8
rdata$r	SEGMENT
??_R1A@?0A@EA@CSTRunManager@CTabSystemTradingEx@@8 DD FLAT:??_R0?AVCSTRunManager@CTabSystemTradingEx@@@8 ; CTabSystemTradingEx::CSTRunManager::`RTTI Base Class Descriptor at (0,-1,0,64)'
	DD	01H
	DD	00H
	DD	0ffffffffH
	DD	00H
	DD	040H
	DD	FLAT:??_R3CSTRunManager@CTabSystemTradingEx@@8
rdata$r	ENDS
;	COMDAT ??_R2CSTRunManager@CTabSystemTradingEx@@8
rdata$r	SEGMENT
??_R2CSTRunManager@CTabSystemTradingEx@@8 DD FLAT:??_R1A@?0A@EA@CSTRunManager@CTabSystemTradingEx@@8 ; CTabSystemTradingEx::CSTRunManager::`RTTI Base Class Array'
	DD	FLAT:??_R1A@?0A@EA@ISTRunManager@@8
rdata$r	ENDS
;	COMDAT ??_R3CSTRunManager@CTabSystemTradingEx@@8
rdata$r	SEGMENT
??_R3CSTRunManager@CTabSystemTradingEx@@8 DD 00H	; CTabSystemTradingEx::CSTRunManager::`RTTI Class Hierarchy Descriptor'
	DD	00H
	DD	02H
	DD	FLAT:??_R2CSTRunManager@CTabSystemTradingEx@@8
rdata$r	ENDS
;	COMDAT ??_R0?AVCSTRunManager@CTabSystemTradingEx@@@8
data$rs	SEGMENT
??_R0?AVCSTRunManager@CTabSystemTradingEx@@@8 DD FLAT:??_7type_info@@6B@ ; CTabSystemTradingEx::CSTRunManager `RTTI Type Descriptor'
	DD	00H
	DB	'.?AVCSTRunManager@CTabSystemTradingEx@@', 00H
data$rs	ENDS
;	COMDAT ??_R4CSTRunManager@CTabSystemTradingEx@@6B@
rdata$r	SEGMENT
??_R4CSTRunManager@CTabSystemTradingEx@@6B@ DD 00H	; CTabSystemTradingEx::CSTRunManager::`RTTI Complete Object Locator'
	DD	00H
	DD	00H
	DD	FLAT:??_R0?AVCSTRunManager@CTabSystemTradingEx@@@8
	DD	FLAT:??_R3CSTRunManager@CTabSystemTradingEx@@8
rdata$r	ENDS
;	COMDAT ??_R1A@?0A@EA@CSTAnalysisInput@CTabSystemTradingEx@@8
rdata$r	SEGMENT
??_R1A@?0A@EA@CSTAnalysisInput@CTabSystemTradingEx@@8 DD FLAT:??_R0?AVCSTAnalysisInput@CTabSystemTradingEx@@@8 ; CTabSystemTradingEx::CSTAnalysisInput::`RTTI Base Class Descriptor at (0,-1,0,64)'
	DD	01H
	DD	00H
	DD	0ffffffffH
	DD	00H
	DD	040H
	DD	FLAT:??_R3CSTAnalysisInput@CTabSystemTradingEx@@8
rdata$r	ENDS
;	COMDAT ??_R2CSTAnalysisInput@CTabSystemTradingEx@@8
rdata$r	SEGMENT
??_R2CSTAnalysisInput@CTabSystemTradingEx@@8 DD FLAT:??_R1A@?0A@EA@CSTAnalysisInput@CTabSystemTradingEx@@8 ; CTabSystemTradingEx::CSTAnalysisInput::`RTTI Base Class Array'
	DD	FLAT:??_R1A@?0A@EA@ISTAnalysisInput@@8
rdata$r	ENDS
;	COMDAT ??_R3CSTAnalysisInput@CTabSystemTradingEx@@8
rdata$r	SEGMENT
??_R3CSTAnalysisInput@CTabSystemTradingEx@@8 DD 00H	; CTabSystemTradingEx::CSTAnalysisInput::`RTTI Class Hierarchy Descriptor'
	DD	00H
	DD	02H
	DD	FLAT:??_R2CSTAnalysisInput@CTabSystemTradingEx@@8
rdata$r	ENDS
;	COMDAT ??_R0?AVCSTAnalysisInput@CTabSystemTradingEx@@@8
data$rs	SEGMENT
??_R0?AVCSTAnalysisInput@CTabSystemTradingEx@@@8 DD FLAT:??_7type_info@@6B@ ; CTabSystemTradingEx::CSTAnalysisInput `RTTI Type Descriptor'
	DD	00H
	DB	'.?AVCSTAnalysisInput@CTabSystemTradingEx@@', 00H
data$rs	ENDS
;	COMDAT ??_R4CSTAnalysisInput@CTabSystemTradingEx@@6B@
rdata$r	SEGMENT
??_R4CSTAnalysisInput@CTabSystemTradingEx@@6B@ DD 00H	; CTabSystemTradingEx::CSTAnalysisInput::`RTTI Complete Object Locator'
	DD	00H
	DD	00H
	DD	FLAT:??_R0?AVCSTAnalysisInput@CTabSystemTradingEx@@@8
	DD	FLAT:??_R3CSTAnalysisInput@CTabSystemTradingEx@@8
rdata$r	ENDS
;	COMDAT ??_R1A@?0A@EA@CSTInterface@CTabSystemTradingEx@@8
rdata$r	SEGMENT
??_R1A@?0A@EA@CSTInterface@CTabSystemTradingEx@@8 DD FLAT:??_R0?AVCSTInterface@CTabSystemTradingEx@@@8 ; CTabSystemTradingEx::CSTInterface::`RTTI Base Class Descriptor at (0,-1,0,64)'
	DD	01H
	DD	00H
	DD	0ffffffffH
	DD	00H
	DD	040H
	DD	FLAT:??_R3CSTInterface@CTabSystemTradingEx@@8
rdata$r	ENDS
;	COMDAT ??_R2CSTInterface@CTabSystemTradingEx@@8
rdata$r	SEGMENT
??_R2CSTInterface@CTabSystemTradingEx@@8 DD FLAT:??_R1A@?0A@EA@CSTInterface@CTabSystemTradingEx@@8 ; CTabSystemTradingEx::CSTInterface::`RTTI Base Class Array'
	DD	FLAT:??_R1A@?0A@EA@ISTInterface@@8
rdata$r	ENDS
;	COMDAT ??_R3CSTInterface@CTabSystemTradingEx@@8
rdata$r	SEGMENT
??_R3CSTInterface@CTabSystemTradingEx@@8 DD 00H		; CTabSystemTradingEx::CSTInterface::`RTTI Class Hierarchy Descriptor'
	DD	00H
	DD	02H
	DD	FLAT:??_R2CSTInterface@CTabSystemTradingEx@@8
rdata$r	ENDS
;	COMDAT ??_R0?AVCSTInterface@CTabSystemTradingEx@@@8
data$rs	SEGMENT
??_R0?AVCSTInterface@CTabSystemTradingEx@@@8 DD FLAT:??_7type_info@@6B@ ; CTabSystemTradingEx::CSTInterface `RTTI Type Descriptor'
	DD	00H
	DB	'.?AVCSTInterface@CTabSystemTradingEx@@', 00H
data$rs	ENDS
;	COMDAT ??_R4CSTInterface@CTabSystemTradingEx@@6B@
rdata$r	SEGMENT
??_R4CSTInterface@CTabSystemTradingEx@@6B@ DD 00H	; CTabSystemTradingEx::CSTInterface::`RTTI Complete Object Locator'
	DD	00H
	DD	00H
	DD	FLAT:??_R0?AVCSTInterface@CTabSystemTradingEx@@@8
	DD	FLAT:??_R3CSTInterface@CTabSystemTradingEx@@8
rdata$r	ENDS
;	COMDAT ??_R2CRscDlg@@8
rdata$r	SEGMENT
??_R2CRscDlg@@8 DD FLAT:??_R1A@?0A@EA@CRscDlg@@8	; CRscDlg::`RTTI Base Class Array'
	DD	FLAT:??_R1A@?0A@EA@CDialog@@8
	DD	FLAT:??_R1A@?0A@EA@CWnd@@8
	DD	FLAT:??_R1A@?0A@EA@CCmdTarget@@8
	DD	FLAT:??_R1A@?0A@EA@CObject@@8
rdata$r	ENDS
;	COMDAT ??_R3CRscDlg@@8
rdata$r	SEGMENT
??_R3CRscDlg@@8 DD 00H					; CRscDlg::`RTTI Class Hierarchy Descriptor'
	DD	00H
	DD	05H
	DD	FLAT:??_R2CRscDlg@@8
rdata$r	ENDS
;	COMDAT ??_R0?AVCRscDlg@@@8
data$rs	SEGMENT
??_R0?AVCRscDlg@@@8 DD FLAT:??_7type_info@@6B@		; CRscDlg `RTTI Type Descriptor'
	DD	00H
	DB	'.?AVCRscDlg@@', 00H
data$rs	ENDS
;	COMDAT ??_R1A@?0A@EA@CRscDlg@@8
rdata$r	SEGMENT
??_R1A@?0A@EA@CRscDlg@@8 DD FLAT:??_R0?AVCRscDlg@@@8	; CRscDlg::`RTTI Base Class Descriptor at (0,-1,0,64)'
	DD	04H
	DD	00H
	DD	0ffffffffH
	DD	00H
	DD	040H
	DD	FLAT:??_R3CRscDlg@@8
rdata$r	ENDS
;	COMDAT ??_R2CTabDlg@@8
rdata$r	SEGMENT
??_R2CTabDlg@@8 DD FLAT:??_R1A@?0A@EA@CTabDlg@@8	; CTabDlg::`RTTI Base Class Array'
	DD	FLAT:??_R1A@?0A@EA@CRscDlg@@8
	DD	FLAT:??_R1A@?0A@EA@CDialog@@8
	DD	FLAT:??_R1A@?0A@EA@CWnd@@8
	DD	FLAT:??_R1A@?0A@EA@CCmdTarget@@8
	DD	FLAT:??_R1A@?0A@EA@CObject@@8
rdata$r	ENDS
;	COMDAT ??_R3CTabDlg@@8
rdata$r	SEGMENT
??_R3CTabDlg@@8 DD 00H					; CTabDlg::`RTTI Class Hierarchy Descriptor'
	DD	00H
	DD	06H
	DD	FLAT:??_R2CTabDlg@@8
rdata$r	ENDS
;	COMDAT ??_R0?AVCTabDlg@@@8
data$rs	SEGMENT
??_R0?AVCTabDlg@@@8 DD FLAT:??_7type_info@@6B@		; CTabDlg `RTTI Type Descriptor'
	DD	00H
	DB	'.?AVCTabDlg@@', 00H
data$rs	ENDS
;	COMDAT ??_R1A@?0A@EA@CTabDlg@@8
rdata$r	SEGMENT
??_R1A@?0A@EA@CTabDlg@@8 DD FLAT:??_R0?AVCTabDlg@@@8	; CTabDlg::`RTTI Base Class Descriptor at (0,-1,0,64)'
	DD	05H
	DD	00H
	DD	0ffffffffH
	DD	00H
	DD	040H
	DD	FLAT:??_R3CTabDlg@@8
rdata$r	ENDS
;	COMDAT ??_R1A@?0A@EA@CTabSystemTradingEx@@8
rdata$r	SEGMENT
??_R1A@?0A@EA@CTabSystemTradingEx@@8 DD FLAT:??_R0?AVCTabSystemTradingEx@@@8 ; CTabSystemTradingEx::`RTTI Base Class Descriptor at (0,-1,0,64)'
	DD	06H
	DD	00H
	DD	0ffffffffH
	DD	00H
	DD	040H
	DD	FLAT:??_R3CTabSystemTradingEx@@8
rdata$r	ENDS
;	COMDAT ??_R2CTabSystemTradingEx@@8
rdata$r	SEGMENT
??_R2CTabSystemTradingEx@@8 DD FLAT:??_R1A@?0A@EA@CTabSystemTradingEx@@8 ; CTabSystemTradingEx::`RTTI Base Class Array'
	DD	FLAT:??_R1A@?0A@EA@CTabDlg@@8
	DD	FLAT:??_R1A@?0A@EA@CRscDlg@@8
	DD	FLAT:??_R1A@?0A@EA@CDialog@@8
	DD	FLAT:??_R1A@?0A@EA@CWnd@@8
	DD	FLAT:??_R1A@?0A@EA@CCmdTarget@@8
	DD	FLAT:??_R1A@?0A@EA@CObject@@8
rdata$r	ENDS
;	COMDAT ??_R3CTabSystemTradingEx@@8
rdata$r	SEGMENT
??_R3CTabSystemTradingEx@@8 DD 00H			; CTabSystemTradingEx::`RTTI Class Hierarchy Descriptor'
	DD	00H
	DD	07H
	DD	FLAT:??_R2CTabSystemTradingEx@@8
rdata$r	ENDS
;	COMDAT ??_R0?AVCTabSystemTradingEx@@@8
data$rs	SEGMENT
??_R0?AVCTabSystemTradingEx@@@8 DD FLAT:??_7type_info@@6B@ ; CTabSystemTradingEx `RTTI Type Descriptor'
	DD	00H
	DB	'.?AVCTabSystemTradingEx@@', 00H
data$rs	ENDS
;	COMDAT ??_R4CTabSystemTradingEx@@6B@
rdata$r	SEGMENT
??_R4CTabSystemTradingEx@@6B@ DD 00H			; CTabSystemTradingEx::`RTTI Complete Object Locator'
	DD	00H
	DD	00H
	DD	FLAT:??_R0?AVCTabSystemTradingEx@@@8
	DD	FLAT:??_R3CTabSystemTradingEx@@8
rdata$r	ENDS
;	COMDAT ??_R1A@?0A@EA@ISTDlgConfirmSendJumun@@8
rdata$r	SEGMENT
??_R1A@?0A@EA@ISTDlgConfirmSendJumun@@8 DD FLAT:??_R0?AUISTDlgConfirmSendJumun@@@8 ; ISTDlgConfirmSendJumun::`RTTI Base Class Descriptor at (0,-1,0,64)'
	DD	00H
	DD	00H
	DD	0ffffffffH
	DD	00H
	DD	040H
	DD	FLAT:??_R3ISTDlgConfirmSendJumun@@8
rdata$r	ENDS
;	COMDAT ??_R2ISTDlgConfirmSendJumun@@8
rdata$r	SEGMENT
??_R2ISTDlgConfirmSendJumun@@8 DD FLAT:??_R1A@?0A@EA@ISTDlgConfirmSendJumun@@8 ; ISTDlgConfirmSendJumun::`RTTI Base Class Array'
rdata$r	ENDS
;	COMDAT ??_R3ISTDlgConfirmSendJumun@@8
rdata$r	SEGMENT
??_R3ISTDlgConfirmSendJumun@@8 DD 00H			; ISTDlgConfirmSendJumun::`RTTI Class Hierarchy Descriptor'
	DD	00H
	DD	01H
	DD	FLAT:??_R2ISTDlgConfirmSendJumun@@8
rdata$r	ENDS
;	COMDAT ??_R0?AUISTDlgConfirmSendJumun@@@8
data$rs	SEGMENT
??_R0?AUISTDlgConfirmSendJumun@@@8 DD FLAT:??_7type_info@@6B@ ; ISTDlgConfirmSendJumun `RTTI Type Descriptor'
	DD	00H
	DB	'.?AUISTDlgConfirmSendJumun@@', 00H
data$rs	ENDS
;	COMDAT ??_R1A@?0A@EA@ISTRunManager@@8
rdata$r	SEGMENT
??_R1A@?0A@EA@ISTRunManager@@8 DD FLAT:??_R0?AUISTRunManager@@@8 ; ISTRunManager::`RTTI Base Class Descriptor at (0,-1,0,64)'
	DD	00H
	DD	00H
	DD	0ffffffffH
	DD	00H
	DD	040H
	DD	FLAT:??_R3ISTRunManager@@8
rdata$r	ENDS
;	COMDAT ??_R2ISTRunManager@@8
rdata$r	SEGMENT
??_R2ISTRunManager@@8 DD FLAT:??_R1A@?0A@EA@ISTRunManager@@8 ; ISTRunManager::`RTTI Base Class Array'
rdata$r	ENDS
;	COMDAT ??_R3ISTRunManager@@8
rdata$r	SEGMENT
??_R3ISTRunManager@@8 DD 00H				; ISTRunManager::`RTTI Class Hierarchy Descriptor'
	DD	00H
	DD	01H
	DD	FLAT:??_R2ISTRunManager@@8
rdata$r	ENDS
;	COMDAT ??_R0?AUISTRunManager@@@8
data$rs	SEGMENT
??_R0?AUISTRunManager@@@8 DD FLAT:??_7type_info@@6B@	; ISTRunManager `RTTI Type Descriptor'
	DD	00H
	DB	'.?AUISTRunManager@@', 00H
data$rs	ENDS
;	COMDAT ??_R4ISTRunManager@@6B@
rdata$r	SEGMENT
??_R4ISTRunManager@@6B@ DD 00H				; ISTRunManager::`RTTI Complete Object Locator'
	DD	00H
	DD	00H
	DD	FLAT:??_R0?AUISTRunManager@@@8
	DD	FLAT:??_R3ISTRunManager@@8
rdata$r	ENDS
;	COMDAT ??_R1A@?0A@EA@ISTAnalysisInput@@8
rdata$r	SEGMENT
??_R1A@?0A@EA@ISTAnalysisInput@@8 DD FLAT:??_R0?AUISTAnalysisInput@@@8 ; ISTAnalysisInput::`RTTI Base Class Descriptor at (0,-1,0,64)'
	DD	00H
	DD	00H
	DD	0ffffffffH
	DD	00H
	DD	040H
	DD	FLAT:??_R3ISTAnalysisInput@@8
rdata$r	ENDS
;	COMDAT ??_R2ISTAnalysisInput@@8
rdata$r	SEGMENT
??_R2ISTAnalysisInput@@8 DD FLAT:??_R1A@?0A@EA@ISTAnalysisInput@@8 ; ISTAnalysisInput::`RTTI Base Class Array'
rdata$r	ENDS
;	COMDAT ??_R3ISTAnalysisInput@@8
rdata$r	SEGMENT
??_R3ISTAnalysisInput@@8 DD 00H				; ISTAnalysisInput::`RTTI Class Hierarchy Descriptor'
	DD	00H
	DD	01H
	DD	FLAT:??_R2ISTAnalysisInput@@8
rdata$r	ENDS
;	COMDAT ??_R0?AUISTAnalysisInput@@@8
data$rs	SEGMENT
??_R0?AUISTAnalysisInput@@@8 DD FLAT:??_7type_info@@6B@	; ISTAnalysisInput `RTTI Type Descriptor'
	DD	00H
	DB	'.?AUISTAnalysisInput@@', 00H
data$rs	ENDS
;	COMDAT ??_R4ISTAnalysisInput@@6B@
rdata$r	SEGMENT
??_R4ISTAnalysisInput@@6B@ DD 00H			; ISTAnalysisInput::`RTTI Complete Object Locator'
	DD	00H
	DD	00H
	DD	FLAT:??_R0?AUISTAnalysisInput@@@8
	DD	FLAT:??_R3ISTAnalysisInput@@8
rdata$r	ENDS
;	COMDAT ??_R1A@?0A@EA@ISTInterface@@8
rdata$r	SEGMENT
??_R1A@?0A@EA@ISTInterface@@8 DD FLAT:??_R0?AUISTInterface@@@8 ; ISTInterface::`RTTI Base Class Descriptor at (0,-1,0,64)'
	DD	00H
	DD	00H
	DD	0ffffffffH
	DD	00H
	DD	040H
	DD	FLAT:??_R3ISTInterface@@8
rdata$r	ENDS
;	COMDAT ??_R2ISTInterface@@8
rdata$r	SEGMENT
??_R2ISTInterface@@8 DD FLAT:??_R1A@?0A@EA@ISTInterface@@8 ; ISTInterface::`RTTI Base Class Array'
rdata$r	ENDS
;	COMDAT ??_R3ISTInterface@@8
rdata$r	SEGMENT
??_R3ISTInterface@@8 DD 00H				; ISTInterface::`RTTI Class Hierarchy Descriptor'
	DD	00H
	DD	01H
	DD	FLAT:??_R2ISTInterface@@8
rdata$r	ENDS
;	COMDAT ??_R0?AUISTInterface@@@8
data$rs	SEGMENT
??_R0?AUISTInterface@@@8 DD FLAT:??_7type_info@@6B@	; ISTInterface `RTTI Type Descriptor'
	DD	00H
	DB	'.?AUISTInterface@@', 00H
data$rs	ENDS
;	COMDAT ??_R4ISTInterface@@6B@
rdata$r	SEGMENT
??_R4ISTInterface@@6B@ DD 00H				; ISTInterface::`RTTI Complete Object Locator'
	DD	00H
	DD	00H
	DD	FLAT:??_R0?AUISTInterface@@@8
	DD	FLAT:??_R3ISTInterface@@8
rdata$r	ENDS
;	COMDAT ??_C@_0CD@CEOFIHIE@?$FLGetHwndScreenView?$FNSolomon?$LM?v?A?$KE?G@
CONST	SEGMENT
??_C@_0CD@CEOFIHIE@?$FLGetHwndScreenView?$FNSolomon?$LM?v?A?$KE?G@ DB '[G'
	DB	'etHwndScreenView]Solomon', 0bcH, 0f6H, 0c1H, 0a4H, 0c7H, 0caH
	DB	0bfH, 0e4H, 00H				; `string'
CONST	ENDS
;	COMDAT ??_C@_0CK@KDHMJHOM@?G?v?$MA?g?5?$LM?$LB?E?C?G?Q?5?A?$LO?$LI?q?$LP?$KB?$LM?$KN?$LE?B?5?A?V?$LJ?$KO?$MA?L?5?$LK@
CONST	SEGMENT
??_C@_0CK@KDHMJHOM@?G?v?$MA?g?5?$LM?$LB?E?C?G?Q?5?A?$LO?$LI?q?$LP?$KB?$LM?$KN?$LE?B?5?A?V?$LJ?$KO?$MA?L?5?$LK@ DB 0c7H
	DB	0f6H, 0c0H, 0e7H, ' ', 0bcH, 0b1H, 0c5H, 0c3H, 0c7H, 0d1H, ' ', 0c1H
	DB	0beH, 0b8H, 0f1H, 0bfH, 0a1H, 0bcH, 0adH, 0b4H, 0c2H, ' ', 0c1H
	DB	0d6H, 0b9H, 0aeH, 0c0H, 0ccH, ' ', 0baH, 0d2H, 0b0H, 0a1H, 0c7H
	DB	0d5H, 0b4H, 0cfH, 0b4H, 0d9H, '.', 00H	; `string'
CONST	ENDS
;	COMDAT ??_C@_0BN@PNIKDDLL@ELW?$LP?$KB?$LM?$KN?$LE?B?5?A?V?$LJ?$KO?$MA?L?5?$LK?R?$LA?$KB?G?U?$LE?O?$LE?Y?4@
CONST	SEGMENT
??_C@_0BN@PNIKDDLL@ELW?$LP?$KB?$LM?$KN?$LE?B?5?A?V?$LJ?$KO?$MA?L?5?$LK?R?$LA?$KB?G?U?$LE?O?$LE?Y?4@ DB 'E'
	DB	'LW', 0bfH, 0a1H, 0bcH, 0adH, 0b4H, 0c2H, ' ', 0c1H, 0d6H, 0b9H
	DB	0aeH, 0c0H, 0ccH, ' ', 0baH, 0d2H, 0b0H, 0a1H, 0c7H, 0d5H, 0b4H
	DB	0cfH, 0b4H, 0d9H, '.', 00H			; `string'
CONST	ENDS
;	COMDAT ??_C@_0CC@MKDBBJFD@?G?X?$LP?$NM?A?v?$LM?v?$LP?$KB?$LM?$KN?$LE?B?5?A?V?$LJ?$KO?$MA?L?5?$LK?R?$LA?$KB?G?U?$LE?O?$LE@
CONST	SEGMENT
??_C@_0CC@MKDBBJFD@?G?X?$LP?$NM?A?v?$LM?v?$LP?$KB?$LM?$KN?$LE?B?5?A?V?$LJ?$KO?$MA?L?5?$LK?R?$LA?$KB?G?U?$LE?O?$LE@ DB 0c7H
	DB	0d8H, 0bfH, 0dcH, 0c1H, 0f6H, 0bcH, 0f6H, 0bfH, 0a1H, 0bcH, 0adH
	DB	0b4H, 0c2H, ' ', 0c1H, 0d6H, 0b9H, 0aeH, 0c0H, 0ccH, ' ', 0baH
	DB	0d2H, 0b0H, 0a1H, 0c7H, 0d5H, 0b4H, 0cfH, 0b4H, 0d9H, '.', 00H ; `string'
CONST	ENDS
;	COMDAT ??_C@_0BO@IJIBIHGG@MS30?$LP?$KB?$LM?$KN?$LE?B?5?A?V?$LJ?$KO?$MA?L?5?$LK?R?$LA?$KB?G?U?$LE?O?$LE?Y?4@
CONST	SEGMENT
??_C@_0BO@IJIBIHGG@MS30?$LP?$KB?$LM?$KN?$LE?B?5?A?V?$LJ?$KO?$MA?L?5?$LK?R?$LA?$KB?G?U?$LE?O?$LE?Y?4@ DB 'M'
	DB	'S30', 0bfH, 0a1H, 0bcH, 0adH, 0b4H, 0c2H, ' ', 0c1H, 0d6H, 0b9H
	DB	0aeH, 0c0H, 0ccH, ' ', 0baH, 0d2H, 0b0H, 0a1H, 0c7H, 0d5H, 0b4H
	DB	0cfH, 0b4H, 0d9H, '.', 00H			; `string'
CONST	ENDS
;	COMDAT ??_C@_0CC@IAIDCHCN@?$LO?w?A?$LO?A?v?$LM?v?$LP?$KB?$LM?$KN?$LE?B?5?A?V?$LJ?$KO?$MA?L?5?$LK?R?$LA?$KB?G?U?$LE?O?$LE@
CONST	SEGMENT
??_C@_0CC@IAIDCHCN@?$LO?w?A?$LO?A?v?$LM?v?$LP?$KB?$LM?$KN?$LE?B?5?A?V?$LJ?$KO?$MA?L?5?$LK?R?$LA?$KB?G?U?$LE?O?$LE@ DB 0beH
	DB	0f7H, 0c1H, 0beH, 0c1H, 0f6H, 0bcH, 0f6H, 0bfH, 0a1H, 0bcH, 0adH
	DB	0b4H, 0c2H, ' ', 0c1H, 0d6H, 0b9H, 0aeH, 0c0H, 0ccH, ' ', 0baH
	DB	0d2H, 0b0H, 0a1H, 0c7H, 0d5H, 0b4H, 0cfH, 0b4H, 0d9H, '.', 00H ; `string'
CONST	ENDS
;	COMDAT ??_C@_07MBLBAEDA@STBAsic@
CONST	SEGMENT
??_C@_07MBLBAEDA@STBAsic@ DB 'STBAsic', 00H		; `string'
CONST	ENDS
;	COMDAT ??_C@_0L@CNMPMHDJ@AllowJumun@
CONST	SEGMENT
??_C@_0L@CNMPMHDJ@AllowJumun@ DB 'AllowJumun', 00H	; `string'
CONST	ENDS
;	COMDAT ??_C@_05IJKFNIJF@f0201@
CONST	SEGMENT
??_C@_05IJKFNIJF@f0201@ DB 'f0201', 00H			; `string'
CONST	ENDS
;	COMDAT ??_C@_05GFCMPLNO@c1002@
CONST	SEGMENT
??_C@_05GFCMPLNO@c1002@ DB 'c1002', 00H			; `string'
CONST	ENDS
;	COMDAT ??_C@_0BI@PLCLJLGO@DoModal_DlgSysVarOption@
CONST	SEGMENT
??_C@_0BI@PLCLJLGO@DoModal_DlgSysVarOption@ DB 'DoModal_DlgSysVarOption', 00H ; `string'
CONST	ENDS
;	COMDAT ??_C@_0BO@DLDLABLN@HWStrategyConfigureWizard?4dll@
CONST	SEGMENT
??_C@_0BO@DLDLABLN@HWStrategyConfigureWizard?4dll@ DB 'HWStrategyConfigur'
	DB	'eWizard.dll', 00H				; `string'
CONST	ENDS
;	COMDAT ??_C@_0P@OMDCFLHM@STPATH?$DN?$CFs?2?$CFs?$CFs@
CONST	SEGMENT
??_C@_0P@OMDCFLHM@STPATH?$DN?$CFs?2?$CFs?$CFs@ DB 'STPATH=%s\%s%s', 00H ; `string'
CONST	ENDS
;	COMDAT ??_C@_0O@GLFFNEMD@SFGPATH?$DN?$CFs?2?$CFs@
CONST	SEGMENT
??_C@_0O@GLFFNEMD@SFGPATH?$DN?$CFs?2?$CFs@ DB 'SFGPATH=%s\%s', 00H ; `string'
CONST	ENDS
;	COMDAT ??_C@_09KEIDFEGD@STNAME?$DN?$CFs@
CONST	SEGMENT
??_C@_09KEIDFEGD@STNAME?$DN?$CFs@ DB 'STNAME=%s', 00H	; `string'
CONST	ENDS
;	COMDAT ??_C@_0O@NGCOIHBK@usr?2stdata?2sd@
CONST	SEGMENT
??_C@_0O@NGCOIHBK@usr?2stdata?2sd@ DB 'usr\stdata\sd', 00H ; `string'
CONST	ENDS
;	COMDAT ??_C@_0P@GJBKKKJN@Icss?2stdata?2sd@
CONST	SEGMENT
??_C@_0P@GJBKKKJN@Icss?2stdata?2sd@ DB 'Icss\stdata\sd', 00H ; `string'
CONST	ENDS
;	COMDAT ??_C@_0BO@PLHNFDPJ@TeeChart?4ChartPageNavigator?47@
CONST	SEGMENT
??_C@_0BO@PLHNFDPJ@TeeChart?4ChartPageNavigator?47@ DB 'TeeChart.ChartPag'
	DB	'eNavigator.7', 00H				; `string'
CONST	ENDS
;	COMDAT ??_C@_0N@CPPCJIEJ@Mschrt20?4ocx@
CONST	SEGMENT
??_C@_0N@CPPCJIEJ@Mschrt20?4ocx@ DB 'Mschrt20.ocx', 00H	; `string'
CONST	ENDS
;	COMDAT ??_C@_0BH@BPKOJLNA@MSChart20Lib?4MSChart?42@
CONST	SEGMENT
??_C@_0BH@BPKOJLNA@MSChart20Lib?4MSChart?42@ DB 'MSChart20Lib.MSChart.2', 00H ; `string'
CONST	ENDS
;	COMDAT ??_C@_09JELLLLNA@?$CFs?2dev?2?$CFs@
CONST	SEGMENT
??_C@_09JELLLLNA@?$CFs?2dev?2?$CFs@ DB '%s\dev\%s', 00H	; `string'
CONST	ENDS
;	COMDAT ??_C@_09KKMEEMHD@?$CFs?2exe?2?$CFs@
CONST	SEGMENT
??_C@_09KKMEEMHD@?$CFs?2exe?2?$CFs@ DB '%s\exe\%s', 00H	; `string'
CONST	ENDS
;	COMDAT ??_C@_0O@CKKCLLBB@TeeChart7?4ocx@
CONST	SEGMENT
??_C@_0O@CKKCLLBB@TeeChart7?4ocx@ DB 'TeeChart7.ocx', 00H ; `string'
CONST	ENDS
;	COMDAT ??_C@_01JKBOJNNK@?$FO@
CONST	SEGMENT
??_C@_01JKBOJNNK@?$FO@ DB '^', 00H			; `string'
CONST	ENDS
;	COMDAT ??_C@_0L@FEICBMFP@?2STData?2SD@
CONST	SEGMENT
??_C@_0L@FEICBMFP@?2STData?2SD@ DB '\STData\SD', 00H	; `string'
CONST	ENDS
;	COMDAT ??_C@_03GELJOCAG@?4SD@
CONST	SEGMENT
??_C@_03GELJOCAG@?4SD@ DB '.SD', 00H			; `string'
CONST	ENDS
;	COMDAT ??_C@_0BF@KKLLNDJP@Icss?2stdata?2stsystem@
CONST	SEGMENT
??_C@_0BF@KKLLNDJP@Icss?2stdata?2stsystem@ DB 'Icss\stdata\stsystem', 00H ; `string'
CONST	ENDS
;	COMDAT ??_C@_0N@GKFNKJGL@StrategyList@
CONST	SEGMENT
??_C@_0N@GKFNKJGL@StrategyList@ DB 'StrategyList', 00H	; `string'
CONST	ENDS
;	COMDAT ??_C@_08HGPJPHIB@PosName0@
CONST	SEGMENT
??_C@_08HGPJPHIB@PosName0@ DB 'PosName0', 00H		; `string'
CONST	ENDS
;	COMDAT ??_C@_02LJNKBDKE@?$FO0@
CONST	SEGMENT
??_C@_02LJNKBDKE@?$FO0@ DB '^0', 00H			; `string'
CONST	ENDS
;	COMDAT ??_C@_02MEKNOHOB@?$FO5@
CONST	SEGMENT
??_C@_02MEKNOHOB@?$FO5@ DB '^5', 00H			; `string'
CONST	ENDS
;	COMDAT ??_C@_02NNLGNGKA@?$FO4@
CONST	SEGMENT
??_C@_02NNLGNGKA@?$FO4@ DB '^4', 00H			; `string'
CONST	ENDS
;	COMDAT ??_C@_02KAMBCCOF@?$FO1@
CONST	SEGMENT
??_C@_02KAMBCCOF@?$FO1@ DB '^1', 00H			; `string'
CONST	ENDS
;	COMDAT ??_C@_08OOJOHCD@?$CFs?2?$CFs?4ST@
CONST	SEGMENT
??_C@_08OOJOHCD@?$CFs?2?$CFs?4ST@ DB '%s\%s.ST', 00H	; `string'
CONST	ENDS
;	COMDAT ??_C@_0L@EGLGCEHG@STData?2SDD@
CONST	SEGMENT
??_C@_0L@EGLGCEHG@STData?2SDD@ DB 'STData\SDD', 00H	; `string'
CONST	ENDS
;	COMDAT ??_C@_09KOCLIKCG@STData?2SD@
CONST	SEGMENT
??_C@_09KOCLIKCG@STData?2SD@ DB 'STData\SD', 00H	; `string'
CONST	ENDS
;	COMDAT ??_C@_0BK@LOJGNPMK@STData?2STBasic?2?$LL?g?$LP?k?$MA?Z?$MA?$PM?$LH?$KL@
CONST	SEGMENT
??_C@_0BK@LOJGNPMK@STData?2STBasic?2?$LL?g?$LP?k?$MA?Z?$MA?$PM?$LH?$KL@ DB 'S'
	DB	'TData\STBasic\', 0bbH, 0e7H, 0bfH, 0ebH, 0c0H, 0daH, 0c0H, 0fcH
	DB	0b7H, 0abH, 00H				; `string'
CONST	ENDS
;	COMDAT ??_C@_0P@DJLJBKHA@STData?2STBasic@
CONST	SEGMENT
??_C@_0P@DJLJBKHA@STData?2STBasic@ DB 'STData\STBasic', 00H ; `string'
CONST	ENDS
;	COMDAT ??_C@_0M@LCNHCPP@STData?2Temp@
CONST	SEGMENT
??_C@_0M@LCNHCPP@STData?2Temp@ DB 'STData\Temp', 00H	; `string'
CONST	ENDS
;	COMDAT ??_C@_0BJ@HMEDFCNB@STData?2ST?2?$LL?g?$LP?k?$MA?Z?A?$LG?G?U?$MA?$PM?$LH?$KL@
CONST	SEGMENT
??_C@_0BJ@HMEDFCNB@STData?2ST?2?$LL?g?$LP?k?$MA?Z?A?$LG?G?U?$MA?$PM?$LH?$KL@ DB 'S'
	DB	'TData\ST\', 0bbH, 0e7H, 0bfH, 0ebH, 0c0H, 0daH, 0c1H, 0b6H, 0c7H
	DB	0d5H, 0c0H, 0fcH, 0b7H, 0abH, 00H		; `string'
CONST	ENDS
;	COMDAT ??_C@_0BJ@EBBPKHM@STData?2ST?2?$LL?g?$LP?k?$MA?Z?$LE?$NM?$MA?$KH?$MA?$PM?$LH?$KL@
CONST	SEGMENT
??_C@_0BJ@EBBPKHM@STData?2ST?2?$LL?g?$LP?k?$MA?Z?$LE?$NM?$MA?$KH?$MA?$PM?$LH?$KL@ DB 'S'
	DB	'TData\ST\', 0bbH, 0e7H, 0bfH, 0ebH, 0c0H, 0daH, 0b4H, 0dcH, 0c0H
	DB	0a7H, 0c0H, 0fcH, 0b7H, 0abH, 00H		; `string'
CONST	ENDS
;	COMDAT ??_C@_09OEOJJIHH@STData?2ST@
CONST	SEGMENT
??_C@_09OEOJJIHH@STData?2ST@ DB 'STData\ST', 00H	; `string'
CONST	ENDS
;	COMDAT ??_C@_06OGEGGNMP@STData@
CONST	SEGMENT
??_C@_06OGEGGNMP@STData@ DB 'STData', 00H		; `string'
CONST	ENDS
;	COMDAT ??_C@_0BO@CPKKMKKO@SCW_DeleteInterfaceOfStrategy@
CONST	SEGMENT
??_C@_0BO@CPKKMKKO@SCW_DeleteInterfaceOfStrategy@ DB 'SCW_DeleteInterface'
	DB	'OfStrategy', 00H				; `string'
CONST	ENDS
;	COMDAT ??_C@_0BL@OHKGLIGI@SCW_GetInterfaceOfStrategy@
CONST	SEGMENT
??_C@_0BL@OHKGLIGI@SCW_GetInterfaceOfStrategy@ DB 'SCW_GetInterfaceOfStra'
	DB	'tegy', 00H					; `string'
CONST	ENDS
;	COMDAT ??_C@_09HNPKBJBA@stdata?2st@
CONST	SEGMENT
??_C@_09HNPKBJBA@stdata?2st@ DB 'stdata\st', 00H	; `string'
CONST	ENDS
;	COMDAT ??_C@_0CD@HGNBEHEC@?2dev?2HWStrategyConfigureWizard?4@
CONST	SEGMENT
??_C@_0CD@HGNBEHEC@?2dev?2HWStrategyConfigureWizard?4@ DB '\dev\HWStrateg'
	DB	'yConfigureWizard.dll', 00H			; `string'
CONST	ENDS
;	COMDAT ??_C@_0BD@OCOIJGGE@?$CFs?2outbar_icon?4bmp@
CONST	SEGMENT
??_C@_0BD@OCOIJGGE@?$CFs?2outbar_icon?4bmp@ DB '%s\outbar_icon.bmp', 00H ; `string'
CONST	ENDS
;	COMDAT ??_C@_0O@DADNAINN@?$CFs?2folder?4bmp@
CONST	SEGMENT
??_C@_0O@DADNAINN@?$CFs?2folder?4bmp@ DB '%s\folder.bmp', 00H ; `string'
CONST	ENDS
;	COMDAT ??_C@_06PKADKHFF@?$MA?g?A?$LG?H?$LI@
CONST	SEGMENT
??_C@_06PKADKHFF@?$MA?g?A?$LG?H?$LI@ DB 0c0H, 0e7H, 0c1H, 0b6H, 0c8H, 0b8H
	DB	00H						; `string'
CONST	ENDS
;	COMDAT ??_C@_08OEAPFIFH@?$LM?$LK?$LA?z?$LK?P?$LM?$KO@
CONST	SEGMENT
??_C@_08OEAPFIFH@?$LM?$LK?$LA?z?$LK?P?$LM?$KO@ DB 0bcH, 0baH, 0b0H, 0faH, 0baH
	DB	0d0H, 0bcH, 0aeH, 00H			; `string'
CONST	ENDS
;	COMDAT ??_C@_04OJDIEKEH@?G?X?A?$KG@
CONST	SEGMENT
??_C@_04OJDIEKEH@?G?X?A?$KG@ DB 0c7H, 0d8H, 0c1H, 0a6H, 00H ; `string'
CONST	ENDS
;	COMDAT ??_C@_06GHGGCGIE@?C?V?$MA?$PL?H?$KN@
CONST	SEGMENT
??_C@_06GHGGCGIE@?C?V?$MA?$PL?H?$KN@ DB 0c3H, 0d6H, 0c0H, 0fbH, 0c8H, 0adH
	DB	00H						; `string'
CONST	ENDS
;	COMDAT ??_C@_08FFNCOOBK@?$MA?$PM?$LH?$KL?$MA?$NL?$LM?$LK@
CONST	SEGMENT
??_C@_08FFNCOOBK@?$MA?$PM?$LH?$KL?$MA?$NL?$LM?$LK@ DB 0c0H, 0fcH, 0b7H, 0abH
	DB	0c0H, 0dbH, 0bcH, 0baH, 00H			; `string'
CONST	ENDS
;	COMDAT ??_C@_0BD@GPFJHOGC@?F?$KP?H?$KN?H?$KN?$LI?i?5?$LH?N?$LF?e?5?$LP?$KB?$LH?$KP@
CONST	SEGMENT
??_C@_0BD@GPFJHOGC@?F?$KP?H?$KN?H?$KN?$LI?i?5?$LH?N?$LF?e?5?$LP?$KB?$LH?$KP@ DB 0c6H
	DB	0afH, 0c8H, 0adH, 0c8H, 0adH, 0b8H, 0e9H, ' ', 0b7H, 0ceH, 0b5H
	DB	0e5H, ' ', 0bfH, 0a1H, 0b7H, 0afH, 00H	; `string'
CONST	ENDS
;	COMDAT ??_C@_0BC@CJPOKCCI@CREATE_TRADING_EX@
CONST	SEGMENT
??_C@_0BC@CJPOKCCI@CREATE_TRADING_EX@ DB 'CREATE_TRADING_EX', 00H ; `string'
CONST	ENDS
;	COMDAT ??_C@_0BD@JKFCKDIB@?$CFs?5File?5Load?5Faile@
CONST	SEGMENT
??_C@_0BD@JKFCKDIB@?$CFs?5File?5Load?5Faile@ DB '%s File Load Faile', 00H ; `string'
CONST	ENDS
;	COMDAT ??_C@_04HLONOPDM@?4dll@
CONST	SEGMENT
??_C@_04HLONOPDM@?4dll@ DB '.dll', 00H			; `string'
CONST	ENDS
;	COMDAT ??_C@_0BD@JAKAOGNI@HWStrategyAnalysis@
CONST	SEGMENT
??_C@_0BD@JAKAOGNI@HWStrategyAnalysis@ DB 'HWStrategyAnalysis', 00H ; `string'
CONST	ENDS
;	COMDAT ??_C@_04JIMNDDED@?$CF08X@
CONST	SEGMENT
??_C@_04JIMNDDED@?$CF08X@ DB '%08X', 00H		; `string'
CONST	ENDS
;	COMDAT ??_C@_0O@OENIFHCP@SystemTrading@
CONST	SEGMENT
??_C@_0O@OENIFHCP@SystemTrading@ DB 'SystemTrading', 00H ; `string'
CONST	ENDS
;	COMDAT ??_C@_0BH@DGGPLJDE@MultiChart_ReceiveData@
CONST	SEGMENT
??_C@_0BH@DGGPLJDE@MultiChart_ReceiveData@ DB 'MultiChart_ReceiveData', 00H ; `string'
CONST	ENDS
;	COMDAT ??_C@_0BA@PIGBAOMG@STLIST_MODIFIED@
CONST	SEGMENT
??_C@_0BA@PIGBAOMG@STLIST_MODIFIED@ DB 'STLIST_MODIFIED', 00H ; `string'
CONST	ENDS
;	COMDAT ??_C@_0DB@EIJFPBEL@?$LK?P?G?R?1?A?$NP?C?$LI?$MA?O?5?$LA?f?$LP?l?$LP?$KB?$LE?B?5?$LK?$LI?$LA?m?$LM?$KN?5?$LJ?v?F@
CONST	SEGMENT
??_C@_0DB@EIJFPBEL@?$LK?P?G?R?1?A?$NP?C?$LI?$MA?O?5?$LA?f?$LP?l?$LP?$KB?$LE?B?5?$LK?$LI?$LA?m?$LM?$KN?5?$LJ?v?F@ DB 0baH
	DB	0d0H, 0c7H, 0d2H, '/', 0c1H, 0dfH, 0c3H, 0b8H, 0c0H, 0cfH, ' ', 0b0H
	DB	0e6H, 0bfH, 0ecH, 0bfH, 0a1H, 0b4H, 0c2H, ' ', 0baH, 0b8H, 0b0H
	DB	0edH, 0bcH, 0adH, ' ', 0b9H, 0f6H, 0c6H, 0b0H, 0c0H, 0bbH, ' ', 0c0H
	DB	0ccH, 0bfH, 0ebH, 0c7H, 0d8H, 0c1H, 0d6H, 0bcH, 0bcH, 0bfH, 0e4H
	DB	'.', 00H					; `string'
CONST	ENDS
;	COMDAT ??_C@_0CE@LIBOKAIK@?$MA?$PL?$LP?k?G?R?5?$MA?$PM?$LH?$KL?$MA?$LL?5?$LM?$LB?E?C?G?X?A?V?$LN?C?$LB?b?5?$LJ?Y?$LG?x@
CONST	SEGMENT
??_C@_0CE@LIBOKAIK@?$MA?$PL?$LP?k?G?R?5?$MA?$PM?$LH?$KL?$MA?$LL?5?$LM?$LB?E?C?G?X?A?V?$LN?C?$LB?b?5?$LJ?Y?$LG?x@ DB 0c0H
	DB	0fbH, 0bfH, 0ebH, 0c7H, 0d2H, ' ', 0c0H, 0fcH, 0b7H, 0abH, 0c0H
	DB	0bbH, ' ', 0bcH, 0b1H, 0c5H, 0c3H, 0c7H, 0d8H, 0c1H, 0d6H, 0bdH
	DB	0c3H, 0b1H, 0e2H, ' ', 0b9H, 0d9H, 0b6H, 0f8H, 0b4H, 0cfH, 0b4H
	DB	0d9H, 00H					; `string'
CONST	ENDS
;	COMDAT ??_C@_0BG@CHJJKIAP@ChartSTIndexAddIn?4dll@
CONST	SEGMENT
??_C@_0BG@CHJJKIAP@ChartSTIndexAddIn?4dll@ DB 'ChartSTIndexAddIn.dll', 00H ; `string'
CONST	ENDS
;	COMDAT ??_C@_0BE@MEGAPCJC@?2dev?2IndexOptimizer@
CONST	SEGMENT
??_C@_0BE@MEGAPCJC@?2dev?2IndexOptimizer@ DB '\dev\IndexOptimizer', 00H ; `string'
CONST	ENDS
;	COMDAT ??_C@_0EJ@JEOKELGF@?C?V?$MA?$PL?H?$KN?$LP?$KB?$LM?$KN?5?G?J?$LP?d?G?Q?5OCX?$CITeeChart7@
CONST	SEGMENT
??_C@_0EJ@JEOKELGF@?C?V?$MA?$PL?H?$KN?$LP?$KB?$LM?$KN?5?G?J?$LP?d?G?Q?5OCX?$CITeeChart7@ DB 0c3H
	DB	0d6H, 0c0H, 0fbH, 0c8H, 0adH, 0bfH, 0a1H, 0bcH, 0adH, ' ', 0c7H
	DB	0caH, 0bfH, 0e4H, 0c7H, 0d1H, ' OCX(TeeChart7.ocx, MSChrt20.oc'
	DB	'x)', 0b5H, 0eeH, 0b7H, 0cfH, 0c0H, 0ccH, ' ', 0beH, 0c8H, 0b5H
	DB	0c7H, 0beH, 0eeH, 0c0H, 0d6H, 0bdH, 0c0H, 0b4H, 0cfH, 0b4H, 0d9H
	DB	'.', 00H					; `string'
CONST	ENDS
;	COMDAT ??_C@_0BI@PFKPIPEB@?A?$LO?$LI?q?A?$LG?H?$LI?5?H?D?5?$LA?$KB?$LE?I?G?U?$LE?O?$LE?Y?4@
CONST	SEGMENT
??_C@_0BI@PFKPIPEB@?A?$LO?$LI?q?A?$LG?H?$LI?5?H?D?5?$LA?$KB?$LE?I?G?U?$LE?O?$LE?Y?4@ DB 0c1H
	DB	0beH, 0b8H, 0f1H, 0c1H, 0b6H, 0c8H, 0b8H, ' ', 0c8H, 0c4H, ' ', 0b0H
	DB	0a1H, 0b4H, 0c9H, 0c7H, 0d5H, 0b4H, 0cfH, 0b4H, 0d9H, '.', 00H ; `string'
CONST	ENDS
;	COMDAT ??_C@_0L@PKLMOOMC@?$LN?C?$LA?$KD?C?V?$MA?$PL?H?$KN@
CONST	SEGMENT
??_C@_0L@PKLMOOMC@?$LN?C?$LA?$KD?C?V?$MA?$PL?H?$KN@ DB 0bdH, 0c3H, 0b0H, 0a3H
	DB	0c3H, 0d6H, 0c0H, 0fbH, 0c8H, 0adH, 00H	; `string'
CONST	ENDS
;	COMDAT ??_C@_0L@ODKOBBAJ@?$LK?$KP?$LM?v?C?V?$MA?$PL?H?$KN@
CONST	SEGMENT
??_C@_0L@ODKOBBAJ@?$LK?$KP?$LM?v?C?V?$MA?$PL?H?$KN@ DB 0baH, 0afH, 0bcH, 0f6H
	DB	0c3H, 0d6H, 0c0H, 0fbH, 0c8H, 0adH, 00H	; `string'
CONST	ENDS
;	COMDAT ??_C@_0L@OBHGFOPP@?$MA?$PM?$LH?$KL?C?V?$MA?$PL?H?$KN@
CONST	SEGMENT
??_C@_0L@OBHGFOPP@?$MA?$PM?$LH?$KL?C?V?$MA?$PL?H?$KN@ DB 0c0H, 0fcH, 0b7H
	DB	0abH, 0c3H, 0d6H, 0c0H, 0fbH, 0c8H, 0adH, 00H ; `string'
CONST	ENDS
;	COMDAT ??_C@_0BB@KNEADKDO@?$MA?$PM?$LH?$KL?$MA?$NL?$LM?$LK?$CIWizard?$CJ@
CONST	SEGMENT
??_C@_0BB@KNEADKDO@?$MA?$PM?$LH?$KL?$MA?$NL?$LM?$LK?$CIWizard?$CJ@ DB 0c0H
	DB	0fcH, 0b7H, 0abH, 0c0H, 0dbH, 0bcH, 0baH, '(Wizard)', 00H ; `string'
CONST	ENDS
;	COMDAT ??_C@_0BP@CFDAMKMM@?2dev?2HWStrategyConfigureWizard@
CONST	SEGMENT
??_C@_0BP@CFDAMKMM@?2dev?2HWStrategyConfigureWizard@ DB '\dev\HWStrategyC'
	DB	'onfigureWizard', 00H			; `string'
CONST	ENDS
;	COMDAT ??_C@_0O@DBLFPBPG@SYSTEMDLLPATH@
CONST	SEGMENT
??_C@_0O@DBLFPBPG@SYSTEMDLLPATH@ DB 'SYSTEMDLLPATH', 00H ; `string'
CONST	ENDS
;	COMDAT ??_C@_04EHADJNMH@?2dev@
CONST	SEGMENT
??_C@_04EHADJNMH@?2dev@ DB '\dev', 00H			; `string'
CONST	ENDS
;	COMDAT ??_C@_0BD@CNEELEMP@SCW_IGfxOutBarCtrl@
CONST	SEGMENT
??_C@_0BD@CNEELEMP@SCW_IGfxOutBarCtrl@ DB 'SCW_IGfxOutBarCtrl', 00H ; `string'
CONST	ENDS
;	COMDAT ?messageMap@?1??GetThisMessageMap@CTabSystemTradingEx@@KGPBUAFX_MSGMAP@@XZ@4U3@B
CONST	SEGMENT
?messageMap@?1??GetThisMessageMap@CTabSystemTradingEx@@KGPBUAFX_MSGMAP@@XZ@4U3@B DD FLAT:?GetThisMessageMap@CTabDlg@@KGPBUAFX_MSGMAP@@XZ ; `CTabSystemTradingEx::GetThisMessageMap'::`2'::messageMap
	DD	FLAT:?_messageEntries@?1??GetThisMessageMap@CTabSystemTradingEx@@KGPBUAFX_MSGMAP@@XZ@4QBUAFX_MSGMAP_ENTRY@@B
CONST	ENDS
;	COMDAT ?_messageEntries@?1??GetThisMessageMap@CTabSystemTradingEx@@KGPBUAFX_MSGMAP@@XZ@4QBUAFX_MSGMAP_ENTRY@@B
CONST	SEGMENT
?_messageEntries@?1??GetThisMessageMap@CTabSystemTradingEx@@KGPBUAFX_MSGMAP@@XZ@4QBUAFX_MSGMAP_ENTRY@@B DD 05H ; `CTabSystemTradingEx::GetThisMessageMap'::`2'::_messageEntries
	DD	00H
	DD	00H
	DD	00H
	DD	01aH
	DD	FLAT:?OnSize@CTabSystemTradingEx@@IAEXIHH@Z
	DD	019H
	DD	00H
	DD	00H
	DD	00H
	DD	08H
	DD	FLAT:?OnCtlColor@CTabSystemTradingEx@@IAEPAUHBRUSH__@@PAVCDC@@PAVCWnd@@I@Z
	DD	02H
	DD	00H
	DD	00H
	DD	00H
	DD	013H
	DD	FLAT:?OnDestroy@CTabSystemTradingEx@@IAEXXZ
	DD	0111H
	DD	00H
	DD	01877H
	DD	01877H
	DD	03aH
	DD	FLAT:?OnBtnStwizardA@CTabSystemTradingEx@@IAEXXZ
	DD	0111H
	DD	00H
	DD	01866H
	DD	01866H
	DD	03aH
	DD	FLAT:?OnBtnStoptimaA@CTabSystemTradingEx@@IAEXXZ
	DD	0111H
	DD	00H
	DD	01892H
	DD	01892H
	DD	03aH
	DD	FLAT:?OnBtnStDelete@CTabSystemTradingEx@@IAEXXZ
	DD	0111H
	DD	00H
	DD	01867H
	DD	01867H
	DD	03aH
	DD	FLAT:?OnBtnStanal@CTabSystemTradingEx@@IAEXXZ
	DD	0111H
	DD	00H
	DD	0187fH
	DD	0187fH
	DD	03aH
	DD	FLAT:?OnBnClickedStchkdiv@CTabSystemTradingEx@@QAEXXZ
	DD	0c000H
	DD	00H
	DD	00H
	DD	00H
	DD	FLAT:?RMSG_OB_ITEMCLICK@@3IB
	DD	FLAT:?OnRmsgObItemClk@CTabSystemTradingEx@@IAEJIJ@Z
	DD	0c000H
	DD	00H
	DD	00H
	DD	00H
	DD	FLAT:?RMSG_OB_ITEMDBLCLK@@3IB
	DD	FLAT:?OnRmsgObItemDBClk@CTabSystemTradingEx@@IAEJIJ@Z
	DD	0c000H
	DD	00H
	DD	00H
	DD	00H
	DD	FLAT:?RMSG_RUN_MULTIST@@3IB
	DD	FLAT:?OnRmsgMultiST@CTabSystemTradingEx@@IAEJIJ@Z
	DD	0c000H
	DD	00H
	DD	00H
	DD	00H
	DD	FLAT:?RMSG_INDEXADDIN_NOTIFY_RAWDATA@@3IB
	DD	FLAT:?OnRmsgIndexAddinNotifyRawData@CTabSystemTradingEx@@IAEJIJ@Z
	DD	0c000H
	DD	00H
	DD	00H
	DD	00H
	DD	FLAT:?RMSG_INDEXADDIN_NOTIFY_BUYSELL@@3IB
	DD	FLAT:?OnRmsgIndexAddinNotifyBuySell@CTabSystemTradingEx@@IAEJIJ@Z
	DD	0c000H
	DD	00H
	DD	00H
	DD	00H
	DD	FLAT:?RMSG_INDEXADDIN_NOTIFY_SIGNAL@@3IB
	DD	FLAT:?OnRmsgIndexAddinNotifySignal@CTabSystemTradingEx@@IAEJIJ@Z
	DD	0c000H
	DD	00H
	DD	00H
	DD	00H
	DD	FLAT:?RMSG_DESTROY_CONFIRMWND@@3IB
	DD	FLAT:?OnRmsgDestroyConfirmWnd@CTabSystemTradingEx@@IAEJIJ@Z
	DD	0c000H
	DD	00H
	DD	00H
	DD	00H
	DD	FLAT:?RMSG_ISSTRUNSTATE@@3IB
	DD	FLAT:?OnRmsgIsSTRunState@CTabSystemTradingEx@@IAEJIJ@Z
	DD	0111H
	DD	00H
	DD	01863H
	DD	01863H
	DD	03aH
	DD	FLAT:?OnStshowoption@CTabSystemTradingEx@@QAEXXZ
	DD	00H
	DD	00H
	DD	00H
	DD	00H
	DD	00H
	DD	00H
CONST	ENDS
;	COMDAT ??_C@_07OPLPMPLO@JMethod@
CONST	SEGMENT
??_C@_07OPLPMPLO@JMethod@ DB 'JMethod', 00H		; `string'
CONST	ENDS
;	COMDAT ??_C@_08IFJCKPBE@RunJumun@
CONST	SEGMENT
??_C@_08IFJCKPBE@RunJumun@ DB 'RunJumun', 00H		; `string'
CONST	ENDS
;	COMDAT ??_7CTabSystemTradingEx@@6B@
CONST	SEGMENT
??_7CTabSystemTradingEx@@6B@ DD FLAT:??_R4CTabSystemTradingEx@@6B@ ; CTabSystemTradingEx::`vftable'
	DD	FLAT:?GetRuntimeClass@CDialog@@UBEPAUCRuntimeClass@@XZ
	DD	FLAT:??_ECTabSystemTradingEx@@UAEPAXI@Z
	DD	FLAT:?Serialize@CObject@@UAEXAAVCArchive@@@Z
	DD	FLAT:?AssertValid@CObject@@UBEXXZ
	DD	FLAT:?Dump@CObject@@UBEXAAVCDumpContext@@@Z
	DD	FLAT:?OnCmdMsg@CDialog@@UAEHIHPAXPAUAFX_CMDHANDLERINFO@@@Z
	DD	FLAT:?OnFinalRelease@CWnd@@UAEXXZ
	DD	FLAT:?IsInvokeAllowed@CCmdTarget@@UAEHJ@Z
	DD	FLAT:?GetDispatchIID@CCmdTarget@@UAEHPAU_GUID@@@Z
	DD	FLAT:?GetTypeInfoCount@CCmdTarget@@UAEIXZ
	DD	FLAT:?GetTypeLibCache@CCmdTarget@@UAEPAVCTypeLibCache@@XZ
	DD	FLAT:?GetTypeLib@CCmdTarget@@UAEJKPAPAUITypeLib@@@Z
	DD	FLAT:?GetMessageMap@CTabSystemTradingEx@@MBEPBUAFX_MSGMAP@@XZ
	DD	FLAT:?GetCommandMap@CCmdTarget@@MBEPBUAFX_OLECMDMAP@@XZ
	DD	FLAT:?GetDispatchMap@CCmdTarget@@MBEPBUAFX_DISPMAP@@XZ
	DD	FLAT:?GetConnectionMap@CCmdTarget@@MBEPBUAFX_CONNECTIONMAP@@XZ
	DD	FLAT:?GetInterfaceMap@CWnd@@MBEPBUAFX_INTERFACEMAP@@XZ
	DD	FLAT:?GetEventSinkMap@CCmdTarget@@MBEPBUAFX_EVENTSINKMAP@@XZ
	DD	FLAT:?OnCreateAggregates@CCmdTarget@@UAEHXZ
	DD	FLAT:?GetInterfaceHook@CCmdTarget@@UAEPAUIUnknown@@PBX@Z
	DD	FLAT:?GetExtraConnectionPoints@CCmdTarget@@MAEHPAVCPtrArray@@@Z
	DD	FLAT:?GetConnectionHook@CCmdTarget@@MAEPAUIConnectionPoint@@ABU_GUID@@@Z
	DD	FLAT:?PreSubclassWindow@CWnd@@UAEXXZ
	DD	FLAT:?Create@CWnd@@UAEHPBD0KABUtagRECT@@PAV1@IPAUCCreateContext@@@Z
	DD	FLAT:?CreateEx@CWnd@@UAEHKPBD0KABUtagRECT@@PAV1@IPAX@Z
	DD	FLAT:?CreateEx@CWnd@@UAEHKPBD0KHHHHPAUHWND__@@PAUHMENU__@@PAX@Z
	DD	FLAT:?DestroyWindow@CWnd@@UAEHXZ
	DD	FLAT:?PreCreateWindow@CWnd@@UAEHAAUtagCREATESTRUCTA@@@Z
	DD	FLAT:?CalcWindowRect@CWnd@@UAEXPAUtagRECT@@I@Z
	DD	FLAT:?GetMenu@CWnd@@UBEPAVCMenu@@XZ
	DD	FLAT:?SetMenu@CWnd@@UAEHPAVCMenu@@@Z
	DD	FLAT:?OnToolHitTest@CWnd@@UBEHVCPoint@@PAUtagTOOLINFOA@@@Z
	DD	FLAT:?GetScrollBarCtrl@CWnd@@UBEPAVCScrollBar@@H@Z
	DD	FLAT:?WinHelpA@CWnd@@UAEXKI@Z
	DD	FLAT:?HtmlHelpA@CWnd@@UAEXKI@Z
	DD	FLAT:?WinHelpInternal@CWnd@@UAEXKI@Z
	DD	FLAT:?ContinueModal@CWnd@@UAEHXZ
	DD	FLAT:?EndModalLoop@CWnd@@UAEXH@Z
	DD	FLAT:?OnDrawIconicThumbnailOrLivePreview@CWnd@@UAEXAAVCDC@@VCRect@@VCSize@@HAAH@Z
	DD	FLAT:?EnsureStdObj@CWnd@@UAEJXZ
	DD	FLAT:?get_accParent@CWnd@@UAEJPAPAUIDispatch@@@Z
	DD	FLAT:?get_accChildCount@CWnd@@UAEJPAJ@Z
	DD	FLAT:?get_accChild@CWnd@@UAEJUtagVARIANT@@PAPAUIDispatch@@@Z
	DD	FLAT:?get_accName@CWnd@@UAEJUtagVARIANT@@PAPA_W@Z
	DD	FLAT:?get_accValue@CWnd@@UAEJUtagVARIANT@@PAPA_W@Z
	DD	FLAT:?get_accDescription@CWnd@@UAEJUtagVARIANT@@PAPA_W@Z
	DD	FLAT:?get_accRole@CWnd@@UAEJUtagVARIANT@@PAU2@@Z
	DD	FLAT:?get_accState@CWnd@@UAEJUtagVARIANT@@PAU2@@Z
	DD	FLAT:?get_accHelp@CWnd@@UAEJUtagVARIANT@@PAPA_W@Z
	DD	FLAT:?get_accHelpTopic@CWnd@@UAEJPAPA_WUtagVARIANT@@PAJ@Z
	DD	FLAT:?get_accKeyboardShortcut@CWnd@@UAEJUtagVARIANT@@PAPA_W@Z
	DD	FLAT:?get_accFocus@CWnd@@UAEJPAUtagVARIANT@@@Z
	DD	FLAT:?get_accSelection@CWnd@@UAEJPAUtagVARIANT@@@Z
	DD	FLAT:?get_accDefaultAction@CWnd@@UAEJUtagVARIANT@@PAPA_W@Z
	DD	FLAT:?accSelect@CWnd@@UAEJJUtagVARIANT@@@Z
	DD	FLAT:?accLocation@CWnd@@UAEJPAJ000UtagVARIANT@@@Z
	DD	FLAT:?accNavigate@CWnd@@UAEJJUtagVARIANT@@PAU2@@Z
	DD	FLAT:?accHitTest@CWnd@@UAEJJJPAUtagVARIANT@@@Z
	DD	FLAT:?accDoDefaultAction@CWnd@@UAEJUtagVARIANT@@@Z
	DD	FLAT:?put_accName@CWnd@@UAEJUtagVARIANT@@PA_W@Z
	DD	FLAT:?put_accValue@CWnd@@UAEJUtagVARIANT@@PA_W@Z
	DD	FLAT:?SetProxy@CWnd@@UAEJPAUIAccessibleProxy@@@Z
	DD	FLAT:?CreateAccessibleProxy@CWnd@@UAEJIJPAJ@Z
	DD	FLAT:?OnCommand@CWnd@@MAEHIJ@Z
	DD	FLAT:?OnNotify@CWnd@@MAEHIJPAJ@Z
	DD	FLAT:?GetSuperWndProcAddr@CWnd@@MAEPAP6GJPAUHWND__@@IIJ@ZXZ
	DD	FLAT:?DoDataExchange@CTabSystemTradingEx@@MAEXPAVCDataExchange@@@Z
	DD	FLAT:?BeginModalState@CWnd@@UAEXXZ
	DD	FLAT:?EndModalState@CWnd@@UAEXXZ
	DD	FLAT:?PreTranslateMessage@CTabDlg@@UAEHPAUtagMSG@@@Z
	DD	FLAT:?OnAmbientProperty@CWnd@@UAEHPAVCOleControlSite@@JPAUtagVARIANT@@@Z
	DD	FLAT:?WindowProc@CWnd@@MAEJIIJ@Z
	DD	FLAT:?OnWndMsg@CWnd@@MAEHIIJPAJ@Z
	DD	FLAT:?DefWindowProcA@CWnd@@MAEJIIJ@Z
	DD	FLAT:?PostNcDestroy@CWnd@@MAEXXZ
	DD	FLAT:?OnChildNotify@CWnd@@MAEHIIJPAJ@Z
	DD	FLAT:?OnTouchInputs@CWnd@@MAEHIPAUtagTOUCHINPUT@@@Z
	DD	FLAT:?OnTouchInput@CWnd@@MAEHVCPoint@@HHPAUtagTOUCHINPUT@@@Z
	DD	FLAT:?GetGestureStatus@CWnd@@MAEKVCPoint@@@Z
	DD	FLAT:?OnGestureZoom@CWnd@@MAEHVCPoint@@J@Z
	DD	FLAT:?OnGesturePan@CWnd@@MAEHVCPoint@@0@Z
	DD	FLAT:?OnGestureRotate@CWnd@@MAEHVCPoint@@N@Z
	DD	FLAT:?OnGestureTwoFingerTap@CWnd@@MAEHVCPoint@@@Z
	DD	FLAT:?OnGesturePressAndTap@CWnd@@MAEHVCPoint@@J@Z
	DD	FLAT:?ResizeDynamicLayout@CWnd@@MAEXXZ
	DD	FLAT:?CheckAutoCenter@CDialog@@UAEHXZ
	DD	FLAT:?IsFrameWnd@CWnd@@UBEHXZ
	DD	FLAT:?CreateControlContainer@CWnd@@MAEHPAPAVCOleControlContainer@@@Z
	DD	FLAT:?CreateControlSite@CWnd@@MAEHPAVCOleControlContainer@@PAPAVCOleControlSite@@IABU_GUID@@@Z
	DD	FLAT:?SetOccDialogInfo@CDialog@@MAEHPAU_AFX_OCC_DIALOG_INFO@@@Z
	DD	FLAT:?GetOccDialogInfo@CDialog@@MAEPAU_AFX_OCC_DIALOG_INFO@@XZ
	DD	FLAT:?Create@CRscDlg@@UAEHIPAVCWnd@@@Z
	DD	FLAT:?Create@CDialog@@UAEHPBDPAVCWnd@@@Z
	DD	FLAT:?CreateIndirect@CDialog@@UAEHPAXPAVCWnd@@@Z
	DD	FLAT:?CreateIndirect@CDialog@@UAEHPBUDLGTEMPLATE@@PAVCWnd@@PAX@Z
	DD	FLAT:?DoModal@CRscDlg@@UAEHXZ
	DD	FLAT:?OnInitDialog@CTabSystemTradingEx@@MAEHXZ
	DD	FLAT:?OnSetFont@CDialog@@UAEXPAVCFont@@@Z
	DD	FLAT:?OnOK@CDialog@@MAEXXZ
	DD	FLAT:?OnCancel@CDialog@@MAEXXZ
	DD	FLAT:?PreInitDialog@CDialog@@MAEXXZ
	DD	FLAT:?ReceiveData@CTabDlg@@UAEXPAUHWND__@@PBD11PAXJ@Z
	DD	FLAT:?SetRealPriceData@CTabDlg@@UAEXPAX@Z
	DD	FLAT:?ReceiveDataFromOutSide@CTabDlg@@UAEXXZ
	DD	FLAT:?ChangeSkinColor@CTabSystemTradingEx@@UAEXK@Z
	DD	FLAT:?GetRectOfCtrl@CTabSystemTradingEx@@UAE?AVCRect@@HH@Z
CONST	ENDS
;	COMDAT ??_7CSTDlgConfirmSendJumun@CTabSystemTradingEx@@6B@
CONST	SEGMENT
??_7CSTDlgConfirmSendJumun@CTabSystemTradingEx@@6B@ DD FLAT:??_R4CSTDlgConfirmSendJumun@CTabSystemTradingEx@@6B@ ; CTabSystemTradingEx::CSTDlgConfirmSendJumun::`vftable'
	DD	FLAT:?GetParent@CSTDlgConfirmSendJumun@CTabSystemTradingEx@@EAGPAVCWnd@@XZ
	DD	FLAT:?GetHwndScreenView@CSTDlgConfirmSendJumun@CTabSystemTradingEx@@EAGPAUHWND__@@XZ
CONST	ENDS
;	COMDAT ??_7?$CMap@PAVCConfirmWnd@@PAV1@JJ@@6B@
CONST	SEGMENT
??_7?$CMap@PAVCConfirmWnd@@PAV1@JJ@@6B@ DD FLAT:??_R4?$CMap@PAVCConfirmWnd@@PAV1@JJ@@6B@ ; CMap<CConfirmWnd *,CConfirmWnd *,long,long>::`vftable'
	DD	FLAT:?GetRuntimeClass@CObject@@UBEPAUCRuntimeClass@@XZ
	DD	FLAT:??_E?$CMap@PAVCConfirmWnd@@PAV1@JJ@@UAEPAXI@Z
	DD	FLAT:?Serialize@?$CMap@PAVCConfirmWnd@@PAV1@JJ@@UAEXAAVCArchive@@@Z
	DD	FLAT:?AssertValid@CObject@@UBEXXZ
	DD	FLAT:?Dump@CObject@@UBEXAAVCDumpContext@@@Z
CONST	ENDS
;	COMDAT ??_7CSTRunManager@CTabSystemTradingEx@@6B@
CONST	SEGMENT
??_7CSTRunManager@CTabSystemTradingEx@@6B@ DD FLAT:??_R4CSTRunManager@CTabSystemTradingEx@@6B@ ; CTabSystemTradingEx::CSTRunManager::`vftable'
	DD	FLAT:?RunST@CSTRunManager@CTabSystemTradingEx@@UAGHHAAV?$CStringT@DV?$StrTraitMFC_DLL@DV?$ChTraitsCRT@D@ATL@@@@@ATL@@J@Z
	DD	FLAT:?GetSelectedSTInfo@CSTRunManager@CTabSystemTradingEx@@UAGJXZ
	DD	FLAT:?GetViewHandle@CSTRunManager@CTabSystemTradingEx@@UAGJXZ
	DD	FLAT:?GetOutBarColor@CSTRunManager@CTabSystemTradingEx@@UAGJAAK0@Z
CONST	ENDS
;	COMDAT ??_7CSTAnalysisInput@CTabSystemTradingEx@@6B@
CONST	SEGMENT
??_7CSTAnalysisInput@CTabSystemTradingEx@@6B@ DD FLAT:??_R4CSTAnalysisInput@CTabSystemTradingEx@@6B@ ; CTabSystemTradingEx::CSTAnalysisInput::`vftable'
	DD	FLAT:?SetUserData@CSTAnalysisInput@CTabSystemTradingEx@@UAGXHPAUISTUserData@@@Z
	DD	FLAT:?IsUseUserData@CSTAnalysisInput@CTabSystemTradingEx@@UAGHXZ
	DD	FLAT:?GetUserDataInterface@CSTAnalysisInput@CTabSystemTradingEx@@UAGPAUISTUserData@@XZ
	DD	FLAT:?GetData@CSTAnalysisInput@CTabSystemTradingEx@@UAG?AVCOleVariant@@H@Z
	DD	FLAT:?GetCode@CSTAnalysisInput@CTabSystemTradingEx@@UAG?AV?$CStringT@DV?$StrTraitMFC_DLL@DV?$ChTraitsCRT@D@ATL@@@@@ATL@@XZ
	DD	FLAT:?GetCodeName@CSTAnalysisInput@CTabSystemTradingEx@@UAG?AV?$CStringT@DV?$StrTraitMFC_DLL@DV?$ChTraitsCRT@D@ATL@@@@@ATL@@XZ
	DD	FLAT:?GetCodeType@CSTAnalysisInput@CTabSystemTradingEx@@UAGHXZ
	DD	FLAT:?GetSTInfo@CSTAnalysisInput@CTabSystemTradingEx@@UAGHPAUSTMNG_ITEMINFO@@@Z
	DD	FLAT:?GetCount@CSTAnalysisInput@CTabSystemTradingEx@@UAGHXZ
	DD	FLAT:?GetEndDay@CSTAnalysisInput@CTabSystemTradingEx@@UAG?AV?$CStringT@DV?$StrTraitMFC_DLL@DV?$ChTraitsCRT@D@ATL@@@@@ATL@@XZ
	DD	FLAT:?GetDivideCnt@CSTAnalysisInput@CTabSystemTradingEx@@UAGHXZ
	DD	FLAT:?GetDivideState@CSTAnalysisInput@CTabSystemTradingEx@@UAGHXZ
	DD	FLAT:?GetUnitPos@CSTAnalysisInput@CTabSystemTradingEx@@UAGHXZ
	DD	FLAT:?GetDeivideRate@CSTAnalysisInput@CTabSystemTradingEx@@UAGNXZ
	DD	FLAT:?GetChartData@CSTAnalysisInput@CTabSystemTradingEx@@UAGHAAJ000000@Z
	DD	FLAT:?IsDivide@CSTAnalysisInput@CTabSystemTradingEx@@UAGHXZ
	DD	FLAT:?GetControl@CSTAnalysisInput@CTabSystemTradingEx@@UAGJH@Z
CONST	ENDS
;	COMDAT ??_7CSTInterface@CTabSystemTradingEx@@6B@
CONST	SEGMENT
??_7CSTInterface@CTabSystemTradingEx@@6B@ DD FLAT:??_R4CSTInterface@CTabSystemTradingEx@@6B@ ; CTabSystemTradingEx::CSTInterface::`vftable'
	DD	FLAT:?GetInterface@CSTInterface@CTabSystemTradingEx@@UAGPAXH@Z
	DD	FLAT:?GetOutBarColor@CSTInterface@CTabSystemTradingEx@@UAGJAAK0@Z
CONST	ENDS
;	COMDAT ??_C@_03COHLPAFH@?4ST@
CONST	SEGMENT
??_C@_03COHLPAFH@?4ST@ DB '.ST', 00H			; `string'
CONST	ENDS
;	COMDAT ??_C@_04ECGMOPPD@?$CK?4ST@
CONST	SEGMENT
??_C@_04ECGMOPPD@?$CK?4ST@ DB '*.ST', 00H		; `string'
CONST	ENDS
;	COMDAT ??_C@_04HDOCAJNK@?$CFs?$CFs@
CONST	SEGMENT
??_C@_04HDOCAJNK@?$CFs?$CFs@ DB '%s%s', 00H		; `string'
CONST	ENDS
;	COMDAT ??_7ISTRunManager@@6B@
CONST	SEGMENT
??_7ISTRunManager@@6B@ DD FLAT:??_R4ISTRunManager@@6B@	; ISTRunManager::`vftable'
	DD	FLAT:__purecall
	DD	FLAT:__purecall
	DD	FLAT:__purecall
	DD	FLAT:__purecall
CONST	ENDS
;	COMDAT ??_7ISTAnalysisInput@@6B@
CONST	SEGMENT
??_7ISTAnalysisInput@@6B@ DD FLAT:??_R4ISTAnalysisInput@@6B@ ; ISTAnalysisInput::`vftable'
	DD	FLAT:__purecall
	DD	FLAT:__purecall
	DD	FLAT:__purecall
	DD	FLAT:__purecall
	DD	FLAT:__purecall
	DD	FLAT:__purecall
	DD	FLAT:__purecall
	DD	FLAT:__purecall
	DD	FLAT:__purecall
	DD	FLAT:__purecall
	DD	FLAT:__purecall
	DD	FLAT:__purecall
	DD	FLAT:__purecall
	DD	FLAT:__purecall
	DD	FLAT:__purecall
	DD	FLAT:__purecall
	DD	FLAT:__purecall
CONST	ENDS
;	COMDAT ??_7ISTInterface@@6B@
CONST	SEGMENT
??_7ISTInterface@@6B@ DD FLAT:??_R4ISTInterface@@6B@	; ISTInterface::`vftable'
	DD	FLAT:__purecall
	DD	FLAT:__purecall
CONST	ENDS
;	COMDAT ??_R2CDialog@@8
rdata$r	SEGMENT
??_R2CDialog@@8 DD FLAT:??_R1A@?0A@EA@CDialog@@8	; CDialog::`RTTI Base Class Array'
	DD	FLAT:??_R1A@?0A@EA@CWnd@@8
	DD	FLAT:??_R1A@?0A@EA@CCmdTarget@@8
	DD	FLAT:??_R1A@?0A@EA@CObject@@8
rdata$r	ENDS
;	COMDAT ??_R3CDialog@@8
rdata$r	SEGMENT
??_R3CDialog@@8 DD 00H					; CDialog::`RTTI Class Hierarchy Descriptor'
	DD	00H
	DD	04H
	DD	FLAT:??_R2CDialog@@8
rdata$r	ENDS
;	COMDAT ??_R0?AVCDialog@@@8
data$rs	SEGMENT
??_R0?AVCDialog@@@8 DD FLAT:??_7type_info@@6B@		; CDialog `RTTI Type Descriptor'
	DD	00H
	DB	'.?AVCDialog@@', 00H
data$rs	ENDS
;	COMDAT ??_R1A@?0A@EA@CDialog@@8
rdata$r	SEGMENT
??_R1A@?0A@EA@CDialog@@8 DD FLAT:??_R0?AVCDialog@@@8	; CDialog::`RTTI Base Class Descriptor at (0,-1,0,64)'
	DD	03H
	DD	00H
	DD	0ffffffffH
	DD	00H
	DD	040H
	DD	FLAT:??_R3CDialog@@8
rdata$r	ENDS
;	COMDAT ??_R2CCmdTarget@@8
rdata$r	SEGMENT
??_R2CCmdTarget@@8 DD FLAT:??_R1A@?0A@EA@CCmdTarget@@8	; CCmdTarget::`RTTI Base Class Array'
	DD	FLAT:??_R1A@?0A@EA@CObject@@8
rdata$r	ENDS
;	COMDAT ??_R3CCmdTarget@@8
rdata$r	SEGMENT
??_R3CCmdTarget@@8 DD 00H				; CCmdTarget::`RTTI Class Hierarchy Descriptor'
	DD	00H
	DD	02H
	DD	FLAT:??_R2CCmdTarget@@8
rdata$r	ENDS
;	COMDAT ??_R0?AVCCmdTarget@@@8
data$rs	SEGMENT
??_R0?AVCCmdTarget@@@8 DD FLAT:??_7type_info@@6B@	; CCmdTarget `RTTI Type Descriptor'
	DD	00H
	DB	'.?AVCCmdTarget@@', 00H
data$rs	ENDS
;	COMDAT ??_R1A@?0A@EA@CCmdTarget@@8
rdata$r	SEGMENT
??_R1A@?0A@EA@CCmdTarget@@8 DD FLAT:??_R0?AVCCmdTarget@@@8 ; CCmdTarget::`RTTI Base Class Descriptor at (0,-1,0,64)'
	DD	01H
	DD	00H
	DD	0ffffffffH
	DD	00H
	DD	040H
	DD	FLAT:??_R3CCmdTarget@@8
rdata$r	ENDS
;	COMDAT ??_R2CWnd@@8
rdata$r	SEGMENT
??_R2CWnd@@8 DD	FLAT:??_R1A@?0A@EA@CWnd@@8		; CWnd::`RTTI Base Class Array'
	DD	FLAT:??_R1A@?0A@EA@CCmdTarget@@8
	DD	FLAT:??_R1A@?0A@EA@CObject@@8
rdata$r	ENDS
;	COMDAT ??_R3CWnd@@8
rdata$r	SEGMENT
??_R3CWnd@@8 DD	00H					; CWnd::`RTTI Class Hierarchy Descriptor'
	DD	00H
	DD	03H
	DD	FLAT:??_R2CWnd@@8
rdata$r	ENDS
;	COMDAT ??_R0?AVCWnd@@@8
data$rs	SEGMENT
??_R0?AVCWnd@@@8 DD FLAT:??_7type_info@@6B@		; CWnd `RTTI Type Descriptor'
	DD	00H
	DB	'.?AVCWnd@@', 00H
data$rs	ENDS
;	COMDAT ??_R1A@?0A@EA@CWnd@@8
rdata$r	SEGMENT
??_R1A@?0A@EA@CWnd@@8 DD FLAT:??_R0?AVCWnd@@@8		; CWnd::`RTTI Base Class Descriptor at (0,-1,0,64)'
	DD	02H
	DD	00H
	DD	0ffffffffH
	DD	00H
	DD	040H
	DD	FLAT:??_R3CWnd@@8
rdata$r	ENDS
;	COMDAT ??_R1A@?0A@EA@CMenu@@8
rdata$r	SEGMENT
??_R1A@?0A@EA@CMenu@@8 DD FLAT:??_R0?AVCMenu@@@8	; CMenu::`RTTI Base Class Descriptor at (0,-1,0,64)'
	DD	01H
	DD	00H
	DD	0ffffffffH
	DD	00H
	DD	040H
	DD	FLAT:??_R3CMenu@@8
rdata$r	ENDS
;	COMDAT ??_R2CMenu@@8
rdata$r	SEGMENT
??_R2CMenu@@8 DD FLAT:??_R1A@?0A@EA@CMenu@@8		; CMenu::`RTTI Base Class Array'
	DD	FLAT:??_R1A@?0A@EA@CObject@@8
rdata$r	ENDS
;	COMDAT ??_R3CMenu@@8
rdata$r	SEGMENT
??_R3CMenu@@8 DD 00H					; CMenu::`RTTI Class Hierarchy Descriptor'
	DD	00H
	DD	02H
	DD	FLAT:??_R2CMenu@@8
rdata$r	ENDS
;	COMDAT ??_R0?AVCMenu@@@8
data$rs	SEGMENT
??_R0?AVCMenu@@@8 DD FLAT:??_7type_info@@6B@		; CMenu `RTTI Type Descriptor'
	DD	00H
	DB	'.?AVCMenu@@', 00H
data$rs	ENDS
;	COMDAT ??_R4CMenu@@6B@
rdata$r	SEGMENT
??_R4CMenu@@6B@ DD 00H					; CMenu::`RTTI Complete Object Locator'
	DD	00H
	DD	00H
	DD	FLAT:??_R0?AVCMenu@@@8
	DD	FLAT:??_R3CMenu@@8
rdata$r	ENDS
;	COMDAT ??_R1A@?0A@EA@CBitmap@@8
rdata$r	SEGMENT
??_R1A@?0A@EA@CBitmap@@8 DD FLAT:??_R0?AVCBitmap@@@8	; CBitmap::`RTTI Base Class Descriptor at (0,-1,0,64)'
	DD	02H
	DD	00H
	DD	0ffffffffH
	DD	00H
	DD	040H
	DD	FLAT:??_R3CBitmap@@8
rdata$r	ENDS
;	COMDAT ??_R2CBitmap@@8
rdata$r	SEGMENT
??_R2CBitmap@@8 DD FLAT:??_R1A@?0A@EA@CBitmap@@8	; CBitmap::`RTTI Base Class Array'
	DD	FLAT:??_R1A@?0A@EA@CGdiObject@@8
	DD	FLAT:??_R1A@?0A@EA@CObject@@8
rdata$r	ENDS
;	COMDAT ??_R3CBitmap@@8
rdata$r	SEGMENT
??_R3CBitmap@@8 DD 00H					; CBitmap::`RTTI Class Hierarchy Descriptor'
	DD	00H
	DD	03H
	DD	FLAT:??_R2CBitmap@@8
rdata$r	ENDS
;	COMDAT ??_R0?AVCBitmap@@@8
data$rs	SEGMENT
??_R0?AVCBitmap@@@8 DD FLAT:??_7type_info@@6B@		; CBitmap `RTTI Type Descriptor'
	DD	00H
	DB	'.?AVCBitmap@@', 00H
data$rs	ENDS
;	COMDAT ??_R4CBitmap@@6B@
rdata$r	SEGMENT
??_R4CBitmap@@6B@ DD 00H				; CBitmap::`RTTI Complete Object Locator'
	DD	00H
	DD	00H
	DD	FLAT:??_R0?AVCBitmap@@@8
	DD	FLAT:??_R3CBitmap@@8
rdata$r	ENDS
;	COMDAT ??_R1A@?0A@EA@CGdiObject@@8
rdata$r	SEGMENT
??_R1A@?0A@EA@CGdiObject@@8 DD FLAT:??_R0?AVCGdiObject@@@8 ; CGdiObject::`RTTI Base Class Descriptor at (0,-1,0,64)'
	DD	01H
	DD	00H
	DD	0ffffffffH
	DD	00H
	DD	040H
	DD	FLAT:??_R3CGdiObject@@8
rdata$r	ENDS
;	COMDAT ??_R2CGdiObject@@8
rdata$r	SEGMENT
??_R2CGdiObject@@8 DD FLAT:??_R1A@?0A@EA@CGdiObject@@8	; CGdiObject::`RTTI Base Class Array'
	DD	FLAT:??_R1A@?0A@EA@CObject@@8
rdata$r	ENDS
;	COMDAT ??_R3CGdiObject@@8
rdata$r	SEGMENT
??_R3CGdiObject@@8 DD 00H				; CGdiObject::`RTTI Class Hierarchy Descriptor'
	DD	00H
	DD	02H
	DD	FLAT:??_R2CGdiObject@@8
rdata$r	ENDS
;	COMDAT ??_R0?AVCGdiObject@@@8
data$rs	SEGMENT
??_R0?AVCGdiObject@@@8 DD FLAT:??_7type_info@@6B@	; CGdiObject `RTTI Type Descriptor'
	DD	00H
	DB	'.?AVCGdiObject@@', 00H
data$rs	ENDS
;	COMDAT ??_R4CGdiObject@@6B@
rdata$r	SEGMENT
??_R4CGdiObject@@6B@ DD 00H				; CGdiObject::`RTTI Complete Object Locator'
	DD	00H
	DD	00H
	DD	FLAT:??_R0?AVCGdiObject@@@8
	DD	FLAT:??_R3CGdiObject@@8
rdata$r	ENDS
;	COMDAT ??_R1A@?0A@EA@CObject@@8
rdata$r	SEGMENT
??_R1A@?0A@EA@CObject@@8 DD FLAT:??_R0?AVCObject@@@8	; CObject::`RTTI Base Class Descriptor at (0,-1,0,64)'
	DD	00H
	DD	00H
	DD	0ffffffffH
	DD	00H
	DD	040H
	DD	FLAT:??_R3CObject@@8
rdata$r	ENDS
;	COMDAT ??_R2CObject@@8
rdata$r	SEGMENT
??_R2CObject@@8 DD FLAT:??_R1A@?0A@EA@CObject@@8	; CObject::`RTTI Base Class Array'
rdata$r	ENDS
;	COMDAT ??_R3CObject@@8
rdata$r	SEGMENT
??_R3CObject@@8 DD 00H					; CObject::`RTTI Class Hierarchy Descriptor'
	DD	00H
	DD	01H
	DD	FLAT:??_R2CObject@@8
rdata$r	ENDS
;	COMDAT ??_R0?AVCObject@@@8
data$rs	SEGMENT
??_R0?AVCObject@@@8 DD FLAT:??_7type_info@@6B@		; CObject `RTTI Type Descriptor'
	DD	00H
	DB	'.?AVCObject@@', 00H
data$rs	ENDS
;	COMDAT ??_C@_01KICIPPFI@?2@
CONST	SEGMENT
??_C@_01KICIPPFI@?2@ DB '\', 00H			; `string'
CONST	ENDS
;	COMDAT ??_C@_02EMFKHFLK@?$CFX@
CONST	SEGMENT
??_C@_02EMFKHFLK@?$CFX@ DB '%X', 00H			; `string'
CONST	ENDS
;	COMDAT ??_C@_06NDLAHCHE@?$CFs?$CF08X@
CONST	SEGMENT
??_C@_06NDLAHCHE@?$CFs?$CF08X@ DB '%s%08X', 00H		; `string'
CONST	ENDS
;	COMDAT ??_C@_0P@IDMAJEGN@HANAROPCTRMAIN@
CONST	SEGMENT
??_C@_0P@IDMAJEGN@HANAROPCTRMAIN@ DB 'HANAROPCTRMAIN', 00H ; `string'
CONST	ENDS
;	COMDAT ??_C@_0M@CBBNGGHM@PcTrMng?4dll@
CONST	SEGMENT
??_C@_0M@CBBNGGHM@PcTrMng?4dll@ DB 'PcTrMng.dll', 00H	; `string'
CONST	ENDS
;	COMDAT ??_C@_02DKCKIIND@?$CFs@
CONST	SEGMENT
??_C@_02DKCKIIND@?$CFs@ DB '%s', 00H			; `string'
CONST	ENDS
;	COMDAT ??_C@_0N@OMEMOKLE@?$CFTs?5?$CI?$CFTs?3?$CFd?$CJ@
CONST	SEGMENT
??_C@_0N@OMEMOKLE@?$CFTs?5?$CI?$CFTs?3?$CFd?$CJ@ DB '%Ts (%Ts:%d)', 00H ; `string'
CONST	ENDS
;	COMDAT ??_C@_0BB@HBOOMJBF@?$CFTs?5?$CI?$CFTs?3?$CFd?$CJ?6?$CFTs@
CONST	SEGMENT
??_C@_0BB@HBOOMJBF@?$CFTs?5?$CI?$CFTs?3?$CFd?$CJ?6?$CFTs@ DB '%Ts (%Ts:%d'
	DB	')', 0aH, '%Ts', 00H				; `string'
CONST	ENDS
;	COMDAT ??_C@_0BP@OIEOKIDM@Exception?5thrown?5in?5destructor@
CONST	SEGMENT
??_C@_0BP@OIEOKIDM@Exception?5thrown?5in?5destructor@ DB 'Exception throw'
	DB	'n in destructor', 00H			; `string'
CONST	ENDS
;	COMDAT ??_C@_0HD@JJCHHHNK@C?3?2Program?5Files?5?$CIx86?$CJ?2Microsof@
CONST	SEGMENT
??_C@_0HD@JJCHHHNK@C?3?2Program?5Files?5?$CIx86?$CJ?2Microsof@ DB 'C:\Pro'
	DB	'gram Files (x86)\Microsoft Visual Studio\2019\Community\VC\To'
	DB	'ols\MSVC\14.29.30133\atlmfc\include\afxwin1.inl', 00H ; `string'
CONST	ENDS
;	COMDAT ??_7CMenu@@6B@
CONST	SEGMENT
??_7CMenu@@6B@ DD FLAT:??_R4CMenu@@6B@			; CMenu::`vftable'
	DD	FLAT:?GetRuntimeClass@CMenu@@UBEPAUCRuntimeClass@@XZ
	DD	FLAT:??_ECMenu@@UAEPAXI@Z
	DD	FLAT:?Serialize@CObject@@UAEXAAVCArchive@@@Z
	DD	FLAT:?AssertValid@CObject@@UBEXXZ
	DD	FLAT:?Dump@CObject@@UBEXAAVCDumpContext@@@Z
	DD	FLAT:?DrawItem@CMenu@@UAEXPAUtagDRAWITEMSTRUCT@@@Z
	DD	FLAT:?MeasureItem@CMenu@@UAEXPAUtagMEASUREITEMSTRUCT@@@Z
CONST	ENDS
;	COMDAT ??_7CBitmap@@6B@
CONST	SEGMENT
??_7CBitmap@@6B@ DD FLAT:??_R4CBitmap@@6B@		; CBitmap::`vftable'
	DD	FLAT:?GetRuntimeClass@CBitmap@@UBEPAUCRuntimeClass@@XZ
	DD	FLAT:??_ECBitmap@@UAEPAXI@Z
	DD	FLAT:?Serialize@CObject@@UAEXAAVCArchive@@@Z
	DD	FLAT:?AssertValid@CObject@@UBEXXZ
	DD	FLAT:?Dump@CObject@@UBEXAAVCDumpContext@@@Z
CONST	ENDS
;	COMDAT ??_7CGdiObject@@6B@
CONST	SEGMENT
??_7CGdiObject@@6B@ DD FLAT:??_R4CGdiObject@@6B@	; CGdiObject::`vftable'
	DD	FLAT:?GetRuntimeClass@CGdiObject@@UBEPAUCRuntimeClass@@XZ
	DD	FLAT:??_ECGdiObject@@UAEPAXI@Z
	DD	FLAT:?Serialize@CObject@@UAEXAAVCArchive@@@Z
	DD	FLAT:?AssertValid@CObject@@UBEXXZ
	DD	FLAT:?Dump@CObject@@UBEXAAVCDumpContext@@@Z
CONST	ENDS
;	COMDAT ??_C@_00CNPNBAHC@@
CONST	SEGMENT
??_C@_00CNPNBAHC@@ DB 00H				; `string'
CONST	ENDS
;	COMDAT ?_AtlWinModule@ATL@@3VCAtlWinModule@1@A
_DATA	SEGMENT
?_AtlWinModule@ATL@@3VCAtlWinModule@1@A DD 02cH		; ATL::_AtlWinModule
	DB	24 DUP(00H)
	DD	00H
_DATA	ENDS
;	COMDAT ??_R0PAVCException@@@8
data$r	SEGMENT
??_R0PAVCException@@@8 DD FLAT:??_7type_info@@6B@	; CException * `RTTI Type Descriptor'
	DD	00H
	DB	'.PAVCException@@', 00H
data$r	ENDS
;	COMDAT xdata$x
xdata$x	SEGMENT
__unwindtable$??0stAddinSTRun@@QAE@XZ DD 0ffffffffH
	DD	FLAT:__unwindfunclet$??0stAddinSTRun@@QAE@XZ$0
	DD	00H
	DD	FLAT:__unwindfunclet$??0stAddinSTRun@@QAE@XZ$1
	DD	01H
	DD	FLAT:__unwindfunclet$??0stAddinSTRun@@QAE@XZ$2
__ehfuncinfo$??0stAddinSTRun@@QAE@XZ DD 019930522H
	DD	03H
	DD	FLAT:__unwindtable$??0stAddinSTRun@@QAE@XZ
	DD	2 DUP(00H)
	DD	2 DUP(00H)
	DD	00H
	DD	01H
xdata$x	ENDS
;	COMDAT xdata$x
xdata$x	SEGMENT
__ehfuncinfo$??_Estringdispid@CComTypeInfoHolder@ATL@@QAEPAXI@Z DD 019930522H
	DD	00H
	DD	00H
	DD	2 DUP(00H)
	DD	2 DUP(00H)
	DD	00H
	DD	05H
xdata$x	ENDS
;	COMDAT xdata$x
xdata$x	SEGMENT
__unwindtable$??_G?$CMap@PAVCConfirmWnd@@PAV1@JJ@@UAEPAXI@Z DD 0ffffffffH
	DD	FLAT:___std_terminate
__ehfuncinfo$??_G?$CMap@PAVCConfirmWnd@@PAV1@JJ@@UAEPAXI@Z DD 019930522H
	DD	01H
	DD	FLAT:__unwindtable$??_G?$CMap@PAVCConfirmWnd@@PAV1@JJ@@UAEPAXI@Z
	DD	2 DUP(00H)
	DD	2 DUP(00H)
	DD	00H
	DD	05H
xdata$x	ENDS
;	COMDAT xdata$x
xdata$x	SEGMENT
__ehfuncinfo$??1?$CMap@PAVCConfirmWnd@@PAV1@JJ@@UAE@XZ DD 019930522H
	DD	00H
	DD	00H
	DD	2 DUP(00H)
	DD	2 DUP(00H)
	DD	00H
	DD	05H
xdata$x	ENDS
;	COMDAT xdata$x
xdata$x	SEGMENT
__unwindtable$?CallJunmunDlg@CTabSystemTradingEx@@QAEXPAVCSTOrderRData_EG@@@Z DD 0ffffffffH
	DD	FLAT:__unwindfunclet$?CallJunmunDlg@CTabSystemTradingEx@@QAEXPAVCSTOrderRData_EG@@@Z$0
	DD	0ffffffffH
	DD	FLAT:__unwindfunclet$?CallJunmunDlg@CTabSystemTradingEx@@QAEXPAVCSTOrderRData_EG@@@Z$1
	DD	01H
	DD	FLAT:__unwindfunclet$?CallJunmunDlg@CTabSystemTradingEx@@QAEXPAVCSTOrderRData_EG@@@Z$2
	DD	02H
	DD	FLAT:__unwindfunclet$?CallJunmunDlg@CTabSystemTradingEx@@QAEXPAVCSTOrderRData_EG@@@Z$3
__ehfuncinfo$?CallJunmunDlg@CTabSystemTradingEx@@QAEXPAVCSTOrderRData_EG@@@Z DD 019930522H
	DD	04H
	DD	FLAT:__unwindtable$?CallJunmunDlg@CTabSystemTradingEx@@QAEXPAVCSTOrderRData_EG@@@Z
	DD	2 DUP(00H)
	DD	2 DUP(00H)
	DD	00H
	DD	01H
xdata$x	ENDS
;	COMDAT xdata$x
xdata$x	SEGMENT
__unwindtable$?DoDlgSysVarOption@CTabSystemTradingEx@@QAEHPAVCStringList@@J@Z DD 0ffffffffH
	DD	FLAT:__unwindfunclet$?DoDlgSysVarOption@CTabSystemTradingEx@@QAEHPAVCStringList@@J@Z$0
__ehfuncinfo$?DoDlgSysVarOption@CTabSystemTradingEx@@QAEHPAVCStringList@@J@Z DD 019930522H
	DD	01H
	DD	FLAT:__unwindtable$?DoDlgSysVarOption@CTabSystemTradingEx@@QAEHPAVCStringList@@J@Z
	DD	2 DUP(00H)
	DD	2 DUP(00H)
	DD	00H
	DD	01H
xdata$x	ENDS
;	COMDAT xdata$x
xdata$x	SEGMENT
__ehfuncinfo$?RunIndexSD@CTabSystemTradingEx@@QAEJHPAUSTMNG_ITEMINFO@@@Z DD 019930522H
	DD	01aH
	DD	FLAT:__unwindtable$?RunIndexSD@CTabSystemTradingEx@@QAEJHPAUSTMNG_ITEMINFO@@@Z
	DD	2 DUP(00H)
	DD	2 DUP(00H)
	DD	00H
	DD	01H
__unwindtable$?RunIndexSD@CTabSystemTradingEx@@QAEJHPAUSTMNG_ITEMINFO@@@Z DD 0ffffffffH
	DD	FLAT:__unwindfunclet$?RunIndexSD@CTabSystemTradingEx@@QAEJHPAUSTMNG_ITEMINFO@@@Z$0
	DD	00H
	DD	FLAT:__unwindfunclet$?RunIndexSD@CTabSystemTradingEx@@QAEJHPAUSTMNG_ITEMINFO@@@Z$19
	DD	01H
	DD	FLAT:__unwindfunclet$?RunIndexSD@CTabSystemTradingEx@@QAEJHPAUSTMNG_ITEMINFO@@@Z$2
	DD	00H
	DD	FLAT:__unwindfunclet$?RunIndexSD@CTabSystemTradingEx@@QAEJHPAUSTMNG_ITEMINFO@@@Z$2
	DD	03H
	DD	FLAT:__unwindfunclet$?RunIndexSD@CTabSystemTradingEx@@QAEJHPAUSTMNG_ITEMINFO@@@Z$21
	DD	04H
	DD	FLAT:__unwindfunclet$?RunIndexSD@CTabSystemTradingEx@@QAEJHPAUSTMNG_ITEMINFO@@@Z$4
	DD	03H
	DD	FLAT:__unwindfunclet$?RunIndexSD@CTabSystemTradingEx@@QAEJHPAUSTMNG_ITEMINFO@@@Z$4
	DD	06H
	DD	FLAT:__unwindfunclet$?RunIndexSD@CTabSystemTradingEx@@QAEJHPAUSTMNG_ITEMINFO@@@Z$5
	DD	07H
	DD	FLAT:__unwindfunclet$?RunIndexSD@CTabSystemTradingEx@@QAEJHPAUSTMNG_ITEMINFO@@@Z$23
	DD	08H
	DD	FLAT:__unwindfunclet$?RunIndexSD@CTabSystemTradingEx@@QAEJHPAUSTMNG_ITEMINFO@@@Z$24
	DD	07H
	DD	FLAT:__unwindfunclet$?RunIndexSD@CTabSystemTradingEx@@QAEJHPAUSTMNG_ITEMINFO@@@Z$25
	DD	07H
	DD	FLAT:__unwindfunclet$?RunIndexSD@CTabSystemTradingEx@@QAEJHPAUSTMNG_ITEMINFO@@@Z$26
	DD	0bH
	DD	FLAT:__unwindfunclet$?RunIndexSD@CTabSystemTradingEx@@QAEJHPAUSTMNG_ITEMINFO@@@Z$27
	DD	0cH
	DD	FLAT:__unwindfunclet$?RunIndexSD@CTabSystemTradingEx@@QAEJHPAUSTMNG_ITEMINFO@@@Z$11
	DD	0bH
	DD	FLAT:__unwindfunclet$?RunIndexSD@CTabSystemTradingEx@@QAEJHPAUSTMNG_ITEMINFO@@@Z$11
	DD	07H
	DD	FLAT:__unwindfunclet$?RunIndexSD@CTabSystemTradingEx@@QAEJHPAUSTMNG_ITEMINFO@@@Z$11
	DD	0fH
	DD	FLAT:__unwindfunclet$?RunIndexSD@CTabSystemTradingEx@@QAEJHPAUSTMNG_ITEMINFO@@@Z$12
	DD	010H
	DD	FLAT:__unwindfunclet$?RunIndexSD@CTabSystemTradingEx@@QAEJHPAUSTMNG_ITEMINFO@@@Z$13
	DD	011H
	DD	FLAT:__unwindfunclet$?RunIndexSD@CTabSystemTradingEx@@QAEJHPAUSTMNG_ITEMINFO@@@Z$29
	DD	012H
	DD	FLAT:__unwindfunclet$?RunIndexSD@CTabSystemTradingEx@@QAEJHPAUSTMNG_ITEMINFO@@@Z$30
	DD	013H
	DD	FLAT:__unwindfunclet$?RunIndexSD@CTabSystemTradingEx@@QAEJHPAUSTMNG_ITEMINFO@@@Z$16
	DD	012H
	DD	FLAT:__unwindfunclet$?RunIndexSD@CTabSystemTradingEx@@QAEJHPAUSTMNG_ITEMINFO@@@Z$16
	DD	011H
	DD	FLAT:__unwindfunclet$?RunIndexSD@CTabSystemTradingEx@@QAEJHPAUSTMNG_ITEMINFO@@@Z$16
	DD	016H
	DD	FLAT:__unwindfunclet$?RunIndexSD@CTabSystemTradingEx@@QAEJHPAUSTMNG_ITEMINFO@@@Z$17
	DD	017H
	DD	FLAT:__unwindfunclet$?RunIndexSD@CTabSystemTradingEx@@QAEJHPAUSTMNG_ITEMINFO@@@Z$18
	DD	018H
	DD	FLAT:__unwindfunclet$?RunIndexSD@CTabSystemTradingEx@@QAEJHPAUSTMNG_ITEMINFO@@@Z$32
xdata$x	ENDS
;	COMDAT xdata$x
xdata$x	SEGMENT
__ehfuncinfo$?RunMultiST@CTabSystemTradingEx@@QAEXXZ DD 019930522H
	DD	0fH
	DD	FLAT:__unwindtable$?RunMultiST@CTabSystemTradingEx@@QAEXXZ
	DD	2 DUP(00H)
	DD	2 DUP(00H)
	DD	00H
	DD	01H
__unwindtable$?RunMultiST@CTabSystemTradingEx@@QAEXXZ DD 0ffffffffH
	DD	FLAT:__unwindfunclet$?RunMultiST@CTabSystemTradingEx@@QAEXXZ$14
	DD	00H
	DD	FLAT:__unwindfunclet$?RunMultiST@CTabSystemTradingEx@@QAEXXZ$15
	DD	01H
	DD	FLAT:__unwindfunclet$?RunMultiST@CTabSystemTradingEx@@QAEXXZ$16
	DD	0ffffffffH
	DD	FLAT:__unwindfunclet$?RunMultiST@CTabSystemTradingEx@@QAEXXZ$0
	DD	03H
	DD	FLAT:__unwindfunclet$?RunMultiST@CTabSystemTradingEx@@QAEXXZ$19
	DD	04H
	DD	FLAT:__unwindfunclet$?RunMultiST@CTabSystemTradingEx@@QAEXXZ$20
	DD	05H
	DD	FLAT:__unwindfunclet$?RunMultiST@CTabSystemTradingEx@@QAEXXZ$21
	DD	03H
	DD	FLAT:__unwindfunclet$?RunMultiST@CTabSystemTradingEx@@QAEXXZ$4
	DD	03H
	DD	FLAT:__unwindfunclet$?RunMultiST@CTabSystemTradingEx@@QAEXXZ$5
	DD	03H
	DD	FLAT:__unwindfunclet$?RunMultiST@CTabSystemTradingEx@@QAEXXZ$6
	DD	09H
	DD	FLAT:__unwindfunclet$?RunMultiST@CTabSystemTradingEx@@QAEXXZ$7
	DD	09H
	DD	FLAT:__unwindfunclet$?RunMultiST@CTabSystemTradingEx@@QAEXXZ$8
	DD	09H
	DD	FLAT:__unwindfunclet$?RunMultiST@CTabSystemTradingEx@@QAEXXZ$9
	DD	09H
	DD	FLAT:__unwindfunclet$?RunMultiST@CTabSystemTradingEx@@QAEXXZ$10
	DD	0dH
	DD	FLAT:__unwindfunclet$?RunMultiST@CTabSystemTradingEx@@QAEXXZ$11
xdata$x	ENDS
;	COMDAT xdata$x
xdata$x	SEGMENT
__ehfuncinfo$?DirectRunST@CTabSystemTradingEx@@QAEXPBD@Z DD 019930522H
	DD	0bH
	DD	FLAT:__unwindtable$?DirectRunST@CTabSystemTradingEx@@QAEXPBD@Z
	DD	2 DUP(00H)
	DD	2 DUP(00H)
	DD	00H
	DD	01H
__unwindtable$?DirectRunST@CTabSystemTradingEx@@QAEXPBD@Z DD 0ffffffffH
	DD	FLAT:__unwindfunclet$?DirectRunST@CTabSystemTradingEx@@QAEXPBD@Z$0
	DD	00H
	DD	FLAT:__unwindfunclet$?DirectRunST@CTabSystemTradingEx@@QAEXPBD@Z$1
	DD	01H
	DD	FLAT:__unwindfunclet$?DirectRunST@CTabSystemTradingEx@@QAEXPBD@Z$2
	DD	01H
	DD	FLAT:__unwindfunclet$?DirectRunST@CTabSystemTradingEx@@QAEXPBD@Z$10
	DD	03H
	DD	FLAT:__unwindfunclet$?DirectRunST@CTabSystemTradingEx@@QAEXPBD@Z$11
	DD	04H
	DD	FLAT:__unwindfunclet$?DirectRunST@CTabSystemTradingEx@@QAEXPBD@Z$12
	DD	01H
	DD	FLAT:__unwindfunclet$?DirectRunST@CTabSystemTradingEx@@QAEXPBD@Z$3
	DD	06H
	DD	FLAT:__unwindfunclet$?DirectRunST@CTabSystemTradingEx@@QAEXPBD@Z$4
	DD	06H
	DD	FLAT:__unwindfunclet$?DirectRunST@CTabSystemTradingEx@@QAEXPBD@Z$5
	DD	06H
	DD	FLAT:__unwindfunclet$?DirectRunST@CTabSystemTradingEx@@QAEXPBD@Z$6
	DD	09H
	DD	FLAT:__unwindfunclet$?DirectRunST@CTabSystemTradingEx@@QAEXPBD@Z$7
xdata$x	ENDS
;	COMDAT xdata$x
xdata$x	SEGMENT
__ehfuncinfo$?Run_STDLL@CTabSystemTradingEx@@QAEHPBD@Z DD 019930522H
	DD	0bH
	DD	FLAT:__unwindtable$?Run_STDLL@CTabSystemTradingEx@@QAEHPBD@Z
	DD	2 DUP(00H)
	DD	2 DUP(00H)
	DD	00H
	DD	01H
__unwindtable$?Run_STDLL@CTabSystemTradingEx@@QAEHPBD@Z DD 0ffffffffH
	DD	FLAT:__unwindfunclet$?Run_STDLL@CTabSystemTradingEx@@QAEHPBD@Z$0
	DD	00H
	DD	FLAT:__unwindfunclet$?Run_STDLL@CTabSystemTradingEx@@QAEHPBD@Z$8
	DD	01H
	DD	FLAT:__unwindfunclet$?Run_STDLL@CTabSystemTradingEx@@QAEHPBD@Z$2
	DD	00H
	DD	FLAT:__unwindfunclet$?Run_STDLL@CTabSystemTradingEx@@QAEHPBD@Z$2
	DD	03H
	DD	FLAT:__unwindfunclet$?Run_STDLL@CTabSystemTradingEx@@QAEHPBD@Z$3
	DD	04H
	DD	FLAT:__unwindfunclet$?Run_STDLL@CTabSystemTradingEx@@QAEHPBD@Z$10
	DD	05H
	DD	FLAT:__unwindfunclet$?Run_STDLL@CTabSystemTradingEx@@QAEHPBD@Z$11
	DD	06H
	DD	FLAT:__unwindfunclet$?Run_STDLL@CTabSystemTradingEx@@QAEHPBD@Z$6
	DD	05H
	DD	FLAT:__unwindfunclet$?Run_STDLL@CTabSystemTradingEx@@QAEHPBD@Z$6
	DD	04H
	DD	FLAT:__unwindfunclet$?Run_STDLL@CTabSystemTradingEx@@QAEHPBD@Z$6
	DD	09H
	DD	FLAT:__unwindfunclet$?Run_STDLL@CTabSystemTradingEx@@QAEHPBD@Z$7
xdata$x	ENDS
;	COMDAT xdata$x
xdata$x	SEGMENT
__unwindtable$?ShowHideStOptimaA@CTabSystemTradingEx@@QAEXHHH@Z DD 0ffffffffH
	DD	FLAT:__unwindfunclet$?ShowHideStOptimaA@CTabSystemTradingEx@@QAEXHHH@Z$0
	DD	0ffffffffH
	DD	FLAT:__unwindfunclet$?ShowHideStOptimaA@CTabSystemTradingEx@@QAEXHHH@Z$1
__ehfuncinfo$?ShowHideStOptimaA@CTabSystemTradingEx@@QAEXHHH@Z DD 019930522H
	DD	02H
	DD	FLAT:__unwindtable$?ShowHideStOptimaA@CTabSystemTradingEx@@QAEXHHH@Z
	DD	2 DUP(00H)
	DD	2 DUP(00H)
	DD	00H
	DD	01H
xdata$x	ENDS
;	COMDAT xdata$x
xdata$x	SEGMENT
__unwindtable$?OnRmsgIndexAddinNotifyBuySell@CTabSystemTradingEx@@IAEJIJ@Z DD 0ffffffffH
	DD	FLAT:__unwindfunclet$?OnRmsgIndexAddinNotifyBuySell@CTabSystemTradingEx@@IAEJIJ@Z$0
__ehfuncinfo$?OnRmsgIndexAddinNotifyBuySell@CTabSystemTradingEx@@IAEJIJ@Z DD 019930522H
	DD	01H
	DD	FLAT:__unwindtable$?OnRmsgIndexAddinNotifyBuySell@CTabSystemTradingEx@@IAEJIJ@Z
	DD	2 DUP(00H)
	DD	2 DUP(00H)
	DD	00H
	DD	01H
xdata$x	ENDS
;	COMDAT xdata$x
xdata$x	SEGMENT
__ehfuncinfo$?OnRmsgObItemDBClk@CTabSystemTradingEx@@IAEJIJ@Z DD 019930522H
	DD	07H
	DD	FLAT:__unwindtable$?OnRmsgObItemDBClk@CTabSystemTradingEx@@IAEJIJ@Z
	DD	2 DUP(00H)
	DD	2 DUP(00H)
	DD	00H
	DD	01H
__unwindtable$?OnRmsgObItemDBClk@CTabSystemTradingEx@@IAEJIJ@Z DD 0ffffffffH
	DD	FLAT:__unwindfunclet$?OnRmsgObItemDBClk@CTabSystemTradingEx@@IAEJIJ@Z$0
	DD	00H
	DD	FLAT:__unwindfunclet$?OnRmsgObItemDBClk@CTabSystemTradingEx@@IAEJIJ@Z$5
	DD	01H
	DD	FLAT:__unwindfunclet$?OnRmsgObItemDBClk@CTabSystemTradingEx@@IAEJIJ@Z$2
	DD	02H
	DD	FLAT:__unwindfunclet$?OnRmsgObItemDBClk@CTabSystemTradingEx@@IAEJIJ@Z$3
	DD	01H
	DD	FLAT:__unwindfunclet$?OnRmsgObItemDBClk@CTabSystemTradingEx@@IAEJIJ@Z$3
	DD	00H
	DD	FLAT:__unwindfunclet$?OnRmsgObItemDBClk@CTabSystemTradingEx@@IAEJIJ@Z$3
	DD	05H
	DD	FLAT:__unwindfunclet$?OnRmsgObItemDBClk@CTabSystemTradingEx@@IAEJIJ@Z$4
xdata$x	ENDS
;	COMDAT xdata$x
xdata$x	SEGMENT
__ehfuncinfo$?OnBtnStoptimaA@CTabSystemTradingEx@@IAEXXZ DD 019930522H
	DD	0bH
	DD	FLAT:__unwindtable$?OnBtnStoptimaA@CTabSystemTradingEx@@IAEXXZ
	DD	2 DUP(00H)
	DD	2 DUP(00H)
	DD	00H
	DD	01H
__unwindtable$?OnBtnStoptimaA@CTabSystemTradingEx@@IAEXXZ DD 0ffffffffH
	DD	FLAT:__unwindfunclet$?OnBtnStoptimaA@CTabSystemTradingEx@@IAEXXZ$0
	DD	0ffffffffH
	DD	00H
	DD	00H
	DD	FLAT:__unwindfunclet$?OnBtnStoptimaA@CTabSystemTradingEx@@IAEXXZ$1
	DD	0ffffffffH
	DD	00H
	DD	0ffffffffH
	DD	00H
	DD	02H
	DD	FLAT:__unwindfunclet$?OnBtnStoptimaA@CTabSystemTradingEx@@IAEXXZ$8
	DD	0ffffffffH
	DD	00H
	DD	02H
	DD	FLAT:__unwindfunclet$?OnBtnStoptimaA@CTabSystemTradingEx@@IAEXXZ$2
	DD	07H
	DD	FLAT:__unwindfunclet$?OnBtnStoptimaA@CTabSystemTradingEx@@IAEXXZ$3
	DD	08H
	DD	FLAT:__unwindfunclet$?OnBtnStoptimaA@CTabSystemTradingEx@@IAEXXZ$4
	DD	0ffffffffH
	DD	FLAT:___std_terminate
xdata$x	ENDS
;	COMDAT xdata$x
xdata$x	SEGMENT
__ehfuncinfo$?OnInitDialog@CTabSystemTradingEx@@MAEHXZ DD 019930522H
	DD	08H
	DD	FLAT:__unwindtable$?OnInitDialog@CTabSystemTradingEx@@MAEHXZ
	DD	2 DUP(00H)
	DD	2 DUP(00H)
	DD	00H
	DD	01H
__unwindtable$?OnInitDialog@CTabSystemTradingEx@@MAEHXZ DD 0ffffffffH
	DD	FLAT:__unwindfunclet$?OnInitDialog@CTabSystemTradingEx@@MAEHXZ$1
	DD	0ffffffffH
	DD	FLAT:__unwindfunclet$?OnInitDialog@CTabSystemTradingEx@@MAEHXZ$2
	DD	01H
	DD	FLAT:__unwindfunclet$?OnInitDialog@CTabSystemTradingEx@@MAEHXZ$3
	DD	02H
	DD	FLAT:__unwindfunclet$?OnInitDialog@CTabSystemTradingEx@@MAEHXZ$6
	DD	03H
	DD	FLAT:__unwindfunclet$?OnInitDialog@CTabSystemTradingEx@@MAEHXZ$7
	DD	0ffffffffH
	DD	FLAT:__unwindfunclet$?OnInitDialog@CTabSystemTradingEx@@MAEHXZ$8
	DD	05H
	DD	FLAT:__unwindfunclet$?OnInitDialog@CTabSystemTradingEx@@MAEHXZ$10
	DD	05H
	DD	FLAT:__unwindfunclet$?OnInitDialog@CTabSystemTradingEx@@MAEHXZ$9
xdata$x	ENDS
;	COMDAT xdata$x
xdata$x	SEGMENT
__unwindtable$?MakeSTDefaultDirectory@CTabSystemTradingEx@@AAEXXZ DD 0ffffffffH
	DD	FLAT:__unwindfunclet$?MakeSTDefaultDirectory@CTabSystemTradingEx@@AAEXXZ$0
	DD	00H
	DD	FLAT:__unwindfunclet$?MakeSTDefaultDirectory@CTabSystemTradingEx@@AAEXXZ$1
	DD	01H
	DD	FLAT:__unwindfunclet$?MakeSTDefaultDirectory@CTabSystemTradingEx@@AAEXXZ$4
	DD	02H
	DD	FLAT:__unwindfunclet$?MakeSTDefaultDirectory@CTabSystemTradingEx@@AAEXXZ$5
__ehfuncinfo$?MakeSTDefaultDirectory@CTabSystemTradingEx@@AAEXXZ DD 019930522H
	DD	04H
	DD	FLAT:__unwindtable$?MakeSTDefaultDirectory@CTabSystemTradingEx@@AAEXXZ
	DD	2 DUP(00H)
	DD	2 DUP(00H)
	DD	00H
	DD	01H
xdata$x	ENDS
;	COMDAT xdata$x
xdata$x	SEGMENT
__unwindtable$?DataMonitorCallbackProc@CTabSystemTradingEx@@SGXPBDJJJJ@Z DD 0ffffffffH
	DD	FLAT:__unwindfunclet$?DataMonitorCallbackProc@CTabSystemTradingEx@@SGXPBDJJJJ@Z$0
__ehfuncinfo$?DataMonitorCallbackProc@CTabSystemTradingEx@@SGXPBDJJJJ@Z DD 019930522H
	DD	01H
	DD	FLAT:__unwindtable$?DataMonitorCallbackProc@CTabSystemTradingEx@@SGXPBDJJJJ@Z
	DD	2 DUP(00H)
	DD	2 DUP(00H)
	DD	00H
	DD	01H
xdata$x	ENDS
;	COMDAT xdata$x
xdata$x	SEGMENT
__unwindtable$?CheckRegister@CTabSystemTradingEx@@QAEHPBD0@Z DD 0ffffffffH
	DD	FLAT:__unwindfunclet$?CheckRegister@CTabSystemTradingEx@@QAEHPBD0@Z$0
__ehfuncinfo$?CheckRegister@CTabSystemTradingEx@@QAEHPBD0@Z DD 019930522H
	DD	01H
	DD	FLAT:__unwindtable$?CheckRegister@CTabSystemTradingEx@@QAEHPBD0@Z
	DD	2 DUP(00H)
	DD	2 DUP(00H)
	DD	00H
	DD	01H
xdata$x	ENDS
;	COMDAT xdata$x
xdata$x	SEGMENT
__unwindtable$?CheckOcx@CTabSystemTradingEx@@QAEHXZ DD 0ffffffffH
	DD	FLAT:__unwindfunclet$?CheckOcx@CTabSystemTradingEx@@QAEHXZ$0
__ehfuncinfo$?CheckOcx@CTabSystemTradingEx@@QAEHXZ DD 019930522H
	DD	01H
	DD	FLAT:__unwindtable$?CheckOcx@CTabSystemTradingEx@@QAEHXZ
	DD	2 DUP(00H)
	DD	2 DUP(00H)
	DD	00H
	DD	01H
xdata$x	ENDS
;	COMDAT xdata$x
xdata$x	SEGMENT
__unwindtable$?IsSTRun@CTabSystemTradingEx@@QAEHPBD0H@Z DD 0ffffffffH
	DD	FLAT:__unwindfunclet$?IsSTRun@CTabSystemTradingEx@@QAEHPBD0H@Z$0
__ehfuncinfo$?IsSTRun@CTabSystemTradingEx@@QAEHPBD0H@Z DD 019930522H
	DD	01H
	DD	FLAT:__unwindtable$?IsSTRun@CTabSystemTradingEx@@QAEHPBD0H@Z
	DD	2 DUP(00H)
	DD	2 DUP(00H)
	DD	00H
	DD	01H
xdata$x	ENDS
;	COMDAT xdata$x
xdata$x	SEGMENT
__unwindtable$?RunWizard@CTabSystemTradingEx@@QAEXH@Z DD 0ffffffffH
	DD	FLAT:__unwindfunclet$?RunWizard@CTabSystemTradingEx@@QAEXH@Z$0
	DD	00H
	DD	FLAT:__unwindfunclet$?RunWizard@CTabSystemTradingEx@@QAEXH@Z$1
	DD	01H
	DD	FLAT:__unwindfunclet$?RunWizard@CTabSystemTradingEx@@QAEXH@Z$2
__ehfuncinfo$?RunWizard@CTabSystemTradingEx@@QAEXH@Z DD 019930522H
	DD	03H
	DD	FLAT:__unwindtable$?RunWizard@CTabSystemTradingEx@@QAEXH@Z
	DD	2 DUP(00H)
	DD	2 DUP(00H)
	DD	00H
	DD	01H
xdata$x	ENDS
;	COMDAT xdata$x
xdata$x	SEGMENT
__unwindtable$?AddSTFile@CTabSystemTradingEx@@QAEXAAVCListBox@@V?$CStringT@DV?$StrTraitMFC_DLL@DV?$ChTraitsCRT@D@ATL@@@@@ATL@@@Z DD 0ffffffffH
	DD	FLAT:__unwindfunclet$?AddSTFile@CTabSystemTradingEx@@QAEXAAVCListBox@@V?$CStringT@DV?$StrTraitMFC_DLL@DV?$ChTraitsCRT@D@ATL@@@@@ATL@@@Z$0
	DD	00H
	DD	FLAT:__unwindfunclet$?AddSTFile@CTabSystemTradingEx@@QAEXAAVCListBox@@V?$CStringT@DV?$StrTraitMFC_DLL@DV?$ChTraitsCRT@D@ATL@@@@@ATL@@@Z$1
__ehfuncinfo$?AddSTFile@CTabSystemTradingEx@@QAEXAAVCListBox@@V?$CStringT@DV?$StrTraitMFC_DLL@DV?$ChTraitsCRT@D@ATL@@@@@ATL@@@Z DD 019930522H
	DD	02H
	DD	FLAT:__unwindtable$?AddSTFile@CTabSystemTradingEx@@QAEXAAVCListBox@@V?$CStringT@DV?$StrTraitMFC_DLL@DV?$ChTraitsCRT@D@ATL@@@@@ATL@@@Z
	DD	2 DUP(00H)
	DD	2 DUP(00H)
	DD	00H
	DD	01H
xdata$x	ENDS
;	COMDAT xdata$x
xdata$x	SEGMENT
__ehfuncinfo$?LoadSTList@CTabSystemTradingEx@@QAEXXZ DD 019930522H
	DD	07H
	DD	FLAT:__unwindtable$?LoadSTList@CTabSystemTradingEx@@QAEXXZ
	DD	2 DUP(00H)
	DD	2 DUP(00H)
	DD	00H
	DD	01H
__unwindtable$?LoadSTList@CTabSystemTradingEx@@QAEXXZ DD 0ffffffffH
	DD	FLAT:__unwindfunclet$?LoadSTList@CTabSystemTradingEx@@QAEXXZ$6
	DD	00H
	DD	FLAT:__unwindfunclet$?LoadSTList@CTabSystemTradingEx@@QAEXXZ$1
	DD	0ffffffffH
	DD	FLAT:__unwindfunclet$?LoadSTList@CTabSystemTradingEx@@QAEXXZ$1
	DD	02H
	DD	FLAT:__unwindfunclet$?LoadSTList@CTabSystemTradingEx@@QAEXXZ$8
	DD	03H
	DD	FLAT:__unwindfunclet$?LoadSTList@CTabSystemTradingEx@@QAEXXZ$3
	DD	02H
	DD	FLAT:__unwindfunclet$?LoadSTList@CTabSystemTradingEx@@QAEXXZ$3
	DD	05H
	DD	FLAT:__unwindfunclet$?LoadSTList@CTabSystemTradingEx@@QAEXXZ$4
xdata$x	ENDS
;	COMDAT xdata$x
xdata$x	SEGMENT
__unwindtable$?LoadOutlookBar@CTabSystemTradingEx@@QAEXXZ DD 0ffffffffH
	DD	FLAT:__unwindfunclet$?LoadOutlookBar@CTabSystemTradingEx@@QAEXXZ$0
	DD	00H
	DD	FLAT:__unwindfunclet$?LoadOutlookBar@CTabSystemTradingEx@@QAEXXZ$1
	DD	01H
	DD	FLAT:__unwindfunclet$?LoadOutlookBar@CTabSystemTradingEx@@QAEXXZ$2
__ehfuncinfo$?LoadOutlookBar@CTabSystemTradingEx@@QAEXXZ DD 019930522H
	DD	03H
	DD	FLAT:__unwindtable$?LoadOutlookBar@CTabSystemTradingEx@@QAEXXZ
	DD	2 DUP(00H)
	DD	2 DUP(00H)
	DD	00H
	DD	01H
xdata$x	ENDS
;	COMDAT xdata$x
xdata$x	SEGMENT
__unwindtable$?LoadTradeAup@CTabSystemTradingEx@@QAEPAVCWnd@@V?$CStringT@DV?$StrTraitMFC_DLL@DV?$ChTraitsCRT@D@ATL@@@@@ATL@@PAV2@@Z DD 0ffffffffH
	DD	FLAT:__unwindfunclet$?LoadTradeAup@CTabSystemTradingEx@@QAEPAVCWnd@@V?$CStringT@DV?$StrTraitMFC_DLL@DV?$ChTraitsCRT@D@ATL@@@@@ATL@@PAV2@@Z$0
	DD	00H
	DD	FLAT:__unwindfunclet$?LoadTradeAup@CTabSystemTradingEx@@QAEPAVCWnd@@V?$CStringT@DV?$StrTraitMFC_DLL@DV?$ChTraitsCRT@D@ATL@@@@@ATL@@PAV2@@Z$1
	DD	01H
	DD	FLAT:__unwindfunclet$?LoadTradeAup@CTabSystemTradingEx@@QAEPAVCWnd@@V?$CStringT@DV?$StrTraitMFC_DLL@DV?$ChTraitsCRT@D@ATL@@@@@ATL@@PAV2@@Z$2
__ehfuncinfo$?LoadTradeAup@CTabSystemTradingEx@@QAEPAVCWnd@@V?$CStringT@DV?$StrTraitMFC_DLL@DV?$ChTraitsCRT@D@ATL@@@@@ATL@@PAV2@@Z DD 019930522H
	DD	03H
	DD	FLAT:__unwindtable$?LoadTradeAup@CTabSystemTradingEx@@QAEPAVCWnd@@V?$CStringT@DV?$StrTraitMFC_DLL@DV?$ChTraitsCRT@D@ATL@@@@@ATL@@PAV2@@Z
	DD	2 DUP(00H)
	DD	2 DUP(00H)
	DD	00H
	DD	01H
xdata$x	ENDS
;	COMDAT xdata$x
xdata$x	SEGMENT
__unwindtable$?OpenAUP@CTabSystemTradingEx@@QAEHXZ DD 0ffffffffH
	DD	FLAT:__unwindfunclet$?OpenAUP@CTabSystemTradingEx@@QAEHXZ$0
	DD	00H
	DD	FLAT:__unwindfunclet$?OpenAUP@CTabSystemTradingEx@@QAEHXZ$2
	DD	01H
	DD	FLAT:__unwindfunclet$?OpenAUP@CTabSystemTradingEx@@QAEHXZ$3
	DD	02H
	DD	FLAT:__unwindfunclet$?OpenAUP@CTabSystemTradingEx@@QAEHXZ$4
__ehfuncinfo$?OpenAUP@CTabSystemTradingEx@@QAEHXZ DD 019930522H
	DD	04H
	DD	FLAT:__unwindtable$?OpenAUP@CTabSystemTradingEx@@QAEHXZ
	DD	2 DUP(00H)
	DD	2 DUP(00H)
	DD	00H
	DD	01H
xdata$x	ENDS
;	COMDAT xdata$x
xdata$x	SEGMENT
__unwindtable$?LoadInfo@CTabSystemTradingEx@@QAEXXZ DD 0ffffffffH
	DD	FLAT:__unwindfunclet$?LoadInfo@CTabSystemTradingEx@@QAEXXZ$0
	DD	00H
	DD	FLAT:__unwindfunclet$?LoadInfo@CTabSystemTradingEx@@QAEXXZ$2
	DD	00H
	DD	FLAT:__unwindfunclet$?LoadInfo@CTabSystemTradingEx@@QAEXXZ$1
__ehfuncinfo$?LoadInfo@CTabSystemTradingEx@@QAEXXZ DD 019930522H
	DD	03H
	DD	FLAT:__unwindtable$?LoadInfo@CTabSystemTradingEx@@QAEXXZ
	DD	2 DUP(00H)
	DD	2 DUP(00H)
	DD	00H
	DD	01H
xdata$x	ENDS
;	COMDAT xdata$x
xdata$x	SEGMENT
__unwindtable$??1CTabSystemTradingEx@@UAE@XZ DD 0ffffffffH
	DD	FLAT:___std_terminate
__ehfuncinfo$??1CTabSystemTradingEx@@UAE@XZ DD 019930522H
	DD	01H
	DD	FLAT:__unwindtable$??1CTabSystemTradingEx@@UAE@XZ
	DD	2 DUP(00H)
	DD	2 DUP(00H)
	DD	00H
	DD	05H
xdata$x	ENDS
;	COMDAT xdata$x
xdata$x	SEGMENT
__ehfuncinfo$??0CTabSystemTradingEx@@QAE@PAVCWnd@@@Z DD 019930522H
	DD	012H
	DD	FLAT:__unwindtable$??0CTabSystemTradingEx@@QAE@PAVCWnd@@@Z
	DD	2 DUP(00H)
	DD	2 DUP(00H)
	DD	00H
	DD	01H
__unwindtable$??0CTabSystemTradingEx@@QAE@PAVCWnd@@@Z DD 0ffffffffH
	DD	FLAT:__unwindfunclet$??0CTabSystemTradingEx@@QAE@PAVCWnd@@@Z$0
	DD	00H
	DD	FLAT:__unwindfunclet$??0CTabSystemTradingEx@@QAE@PAVCWnd@@@Z$1
	DD	01H
	DD	FLAT:__unwindfunclet$??0CTabSystemTradingEx@@QAE@PAVCWnd@@@Z$2
	DD	02H
	DD	FLAT:__unwindfunclet$??0CTabSystemTradingEx@@QAE@PAVCWnd@@@Z$3
	DD	03H
	DD	FLAT:__unwindfunclet$??0CTabSystemTradingEx@@QAE@PAVCWnd@@@Z$4
	DD	04H
	DD	FLAT:__unwindfunclet$??0CTabSystemTradingEx@@QAE@PAVCWnd@@@Z$5
	DD	05H
	DD	FLAT:__unwindfunclet$??0CTabSystemTradingEx@@QAE@PAVCWnd@@@Z$6
	DD	06H
	DD	FLAT:__unwindfunclet$??0CTabSystemTradingEx@@QAE@PAVCWnd@@@Z$7
	DD	07H
	DD	FLAT:__unwindfunclet$??0CTabSystemTradingEx@@QAE@PAVCWnd@@@Z$8
	DD	08H
	DD	FLAT:__unwindfunclet$??0CTabSystemTradingEx@@QAE@PAVCWnd@@@Z$9
	DD	09H
	DD	FLAT:__unwindfunclet$??0CTabSystemTradingEx@@QAE@PAVCWnd@@@Z$10
	DD	0aH
	DD	FLAT:__unwindfunclet$??0CTabSystemTradingEx@@QAE@PAVCWnd@@@Z$11
	DD	0bH
	DD	FLAT:__unwindfunclet$??0CTabSystemTradingEx@@QAE@PAVCWnd@@@Z$12
	DD	0cH
	DD	FLAT:__unwindfunclet$??0CTabSystemTradingEx@@QAE@PAVCWnd@@@Z$13
	DD	0dH
	DD	FLAT:__unwindfunclet$??0CTabSystemTradingEx@@QAE@PAVCWnd@@@Z$14
	DD	0eH
	DD	FLAT:__unwindfunclet$??0CTabSystemTradingEx@@QAE@PAVCWnd@@@Z$15
	DD	0fH
	DD	FLAT:__unwindfunclet$??0CTabSystemTradingEx@@QAE@PAVCWnd@@@Z$16
	DD	010H
	DD	FLAT:__unwindfunclet$??0CTabSystemTradingEx@@QAE@PAVCWnd@@@Z$17
xdata$x	ENDS
;	COMDAT xdata$x
xdata$x	SEGMENT
__unwindtable$?AfxGetPctrInterface@@YGJH@Z DD 0ffffffffH
	DD	FLAT:__unwindfunclet$?AfxGetPctrInterface@@YGJH@Z$0
__ehfuncinfo$?AfxGetPctrInterface@@YGJH@Z DD 019930522H
	DD	01H
	DD	FLAT:__unwindtable$?AfxGetPctrInterface@@YGJH@Z
	DD	2 DUP(00H)
	DD	2 DUP(00H)
	DD	00H
	DD	01H
xdata$x	ENDS
;	COMDAT xdata$x
xdata$x	SEGMENT
__unwindtable$?AfxGetPctrMainHandle@@YGPAUHWND__@@XZ DD 0ffffffffH
	DD	FLAT:__unwindfunclet$?AfxGetPctrMainHandle@@YGPAUHWND__@@XZ$0
__ehfuncinfo$?AfxGetPctrMainHandle@@YGPAUHWND__@@XZ DD 019930522H
	DD	01H
	DD	FLAT:__unwindtable$?AfxGetPctrMainHandle@@YGPAUHWND__@@XZ
	DD	2 DUP(00H)
	DD	2 DUP(00H)
	DD	00H
	DD	01H
xdata$x	ENDS
;	COMDAT xdata$x
xdata$x	SEGMENT
__unwindtable$??_GCMenu@@UAEPAXI@Z DD 0ffffffffH
	DD	FLAT:___std_terminate
__ehfuncinfo$??_GCMenu@@UAEPAXI@Z DD 019930522H
	DD	01H
	DD	FLAT:__unwindtable$??_GCMenu@@UAEPAXI@Z
	DD	2 DUP(00H)
	DD	2 DUP(00H)
	DD	00H
	DD	05H
xdata$x	ENDS
;	COMDAT xdata$x
xdata$x	SEGMENT
__ehfuncinfo$??1CMenu@@UAE@XZ DD 019930522H
	DD	00H
	DD	00H
	DD	2 DUP(00H)
	DD	2 DUP(00H)
	DD	00H
	DD	05H
xdata$x	ENDS
;	COMDAT xdata$x
xdata$x	SEGMENT
__catchsym$??1CGdiObject@@UAE@XZ$3 DD 00H
	DD	FLAT:??_R0PAVCException@@@8
	DD	0fffffde4H
	DD	FLAT:__catch$??1CGdiObject@@UAE@XZ$0
__tryblocktable$??1CGdiObject@@UAE@XZ DD 00H
	DD	00H
	DD	02H
	DD	01H
	DD	FLAT:__catchsym$??1CGdiObject@@UAE@XZ$3
__unwindtable$??1CGdiObject@@UAE@XZ DD 0ffffffffH
	DD	00H
	DD	0ffffffffH
	DD	00H
	DD	01H
	DD	FLAT:__unwindfunclet$??1CGdiObject@@UAE@XZ$2
__ehfuncinfo$??1CGdiObject@@UAE@XZ DD 019930522H
	DD	03H
	DD	FLAT:__unwindtable$??1CGdiObject@@UAE@XZ
	DD	01H
	DD	FLAT:__tryblocktable$??1CGdiObject@@UAE@XZ
	DD	2 DUP(00H)
	DD	00H
	DD	05H
xdata$x	ENDS
;	COMDAT xdata$x
xdata$x	SEGMENT
__unwindtable$??HATL@@YA?AV?$CStringT@DV?$StrTraitMFC_DLL@DV?$ChTraitsCRT@D@ATL@@@@@0@ABV10@PBD@Z DD 0ffffffffH
	DD	FLAT:__unwindfunclet$??HATL@@YA?AV?$CStringT@DV?$StrTraitMFC_DLL@DV?$ChTraitsCRT@D@ATL@@@@@0@ABV10@PBD@Z$0
__ehfuncinfo$??HATL@@YA?AV?$CStringT@DV?$StrTraitMFC_DLL@DV?$ChTraitsCRT@D@ATL@@@@@0@ABV10@PBD@Z DD 019930522H
	DD	01H
	DD	FLAT:__unwindtable$??HATL@@YA?AV?$CStringT@DV?$StrTraitMFC_DLL@DV?$ChTraitsCRT@D@ATL@@@@@0@ABV10@PBD@Z
	DD	2 DUP(00H)
	DD	2 DUP(00H)
	DD	00H
	DD	01H
xdata$x	ENDS
;	COMDAT xdata$x
xdata$x	SEGMENT
__unwindtable$??HATL@@YA?AV?$CStringT@DV?$StrTraitMFC_DLL@DV?$ChTraitsCRT@D@ATL@@@@@0@ABV10@0@Z DD 0ffffffffH
	DD	FLAT:__unwindfunclet$??HATL@@YA?AV?$CStringT@DV?$StrTraitMFC_DLL@DV?$ChTraitsCRT@D@ATL@@@@@0@ABV10@0@Z$0
__ehfuncinfo$??HATL@@YA?AV?$CStringT@DV?$StrTraitMFC_DLL@DV?$ChTraitsCRT@D@ATL@@@@@0@ABV10@0@Z DD 019930522H
	DD	01H
	DD	FLAT:__unwindtable$??HATL@@YA?AV?$CStringT@DV?$StrTraitMFC_DLL@DV?$ChTraitsCRT@D@ATL@@@@@0@ABV10@0@Z
	DD	2 DUP(00H)
	DD	2 DUP(00H)
	DD	00H
	DD	01H
xdata$x	ENDS
CRT$XCU	SEGMENT
?RMSG_INTERFACE$initializer$@@3P6AXXZA DD FLAT:??__ERMSG_INTERFACE@@YAXXZ ; RMSG_INTERFACE$initializer$
CRT$XCU	ENDS
CRT$XCU	SEGMENT
?RMSG_GETSIGNAL_REAL$initializer$@@3P6AXXZA DD FLAT:??__ERMSG_GETSIGNAL_REAL@@YAXXZ ; RMSG_GETSIGNAL_REAL$initializer$
CRT$XCU	ENDS
CRT$XCU	SEGMENT
?RMSG_SETQUERYOPT$initializer$@@3P6AXXZA DD FLAT:??__ERMSG_SETQUERYOPT@@YAXXZ ; RMSG_SETQUERYOPT$initializer$
CRT$XCU	ENDS
CRT$XCU	SEGMENT
?RMSG_CHARTMAIN$initializer$@@3P6AXXZA DD FLAT:??__ERMSG_CHARTMAIN@@YAXXZ ; RMSG_CHARTMAIN$initializer$
CRT$XCU	ENDS
CRT$XCU	SEGMENT
?RMS_ANALYSIS_FUNC$initializer$@@3P6AXXZA DD FLAT:??__ERMS_ANALYSIS_FUNC@@YAXXZ ; RMS_ANALYSIS_FUNC$initializer$
CRT$XCU	ENDS
CRT$XCU	SEGMENT
?RMSG_GET_USERID$initializer$@@3P6AXXZA DD FLAT:??__ERMSG_GET_USERID@@YAXXZ ; RMSG_GET_USERID$initializer$
CRT$XCU	ENDS
CRT$XCU	SEGMENT
?RMSG_CHANGE_SKINCOLOR$initializer$@@3P6AXXZA DD FLAT:??__ERMSG_CHANGE_SKINCOLOR@@YAXXZ ; RMSG_CHANGE_SKINCOLOR$initializer$
CRT$XCU	ENDS
CRT$XCU	SEGMENT
?RMSG_GET_SKINCOLOR$initializer$@@3P6AXXZA DD FLAT:??__ERMSG_GET_SKINCOLOR@@YAXXZ ; RMSG_GET_SKINCOLOR$initializer$
CRT$XCU	ENDS
CRT$XCU	SEGMENT
?RMSG_CHANGEVERTSCALETYPE$initializer$@@3P6AXXZA DD FLAT:??__ERMSG_CHANGEVERTSCALETYPE@@YAXXZ ; RMSG_CHANGEVERTSCALETYPE$initializer$
CRT$XCU	ENDS
CRT$XCU	SEGMENT
?RMSG_CHANGE_CROSSLINE$initializer$@@3P6AXXZA DD FLAT:??__ERMSG_CHANGE_CROSSLINE@@YAXXZ ; RMSG_CHANGE_CROSSLINE$initializer$
CRT$XCU	ENDS
CRT$XCU	SEGMENT
?RMSG_ADD_PLATFORM_MENU$initializer$@@3P6AXXZA DD FLAT:??__ERMSG_ADD_PLATFORM_MENU@@YAXXZ ; RMSG_ADD_PLATFORM_MENU$initializer$
CRT$XCU	ENDS
CRT$XCU	SEGMENT
?RMSG_SETINITIALCHARTDATA$initializer$@@3P6AXXZA DD FLAT:??__ERMSG_SETINITIALCHARTDATA@@YAXXZ ; RMSG_SETINITIALCHARTDATA$initializer$
CRT$XCU	ENDS
CRT$XCU	SEGMENT
?RMSG_GETINFO$initializer$@@3P6AXXZA DD FLAT:??__ERMSG_GETINFO@@YAXXZ ; RMSG_GETINFO$initializer$
CRT$XCU	ENDS
CRT$XCU	SEGMENT
?RMSG_SETINFO$initializer$@@3P6AXXZA DD FLAT:??__ERMSG_SETINFO@@YAXXZ ; RMSG_SETINFO$initializer$
CRT$XCU	ENDS
CRT$XCU	SEGMENT
?RMSG_STTREE_ITEMCLICK$initializer$@@3P6AXXZA DD FLAT:??__ERMSG_STTREE_ITEMCLICK@@YAXXZ ; RMSG_STTREE_ITEMCLICK$initializer$
CRT$XCU	ENDS
CRT$XCU	SEGMENT
?RMSG_STTREE_ITEMDBLCLK$initializer$@@3P6AXXZA DD FLAT:??__ERMSG_STTREE_ITEMDBLCLK@@YAXXZ ; RMSG_STTREE_ITEMDBLCLK$initializer$
CRT$XCU	ENDS
CRT$XCU	SEGMENT
?RMSG_REPLAY_REAL$initializer$@@3P6AXXZA DD FLAT:??__ERMSG_REPLAY_REAL@@YAXXZ ; RMSG_REPLAY_REAL$initializer$
CRT$XCU	ENDS
CRT$XCU	SEGMENT
?RMSG_REPLAY_FAIL$initializer$@@3P6AXXZA DD FLAT:??__ERMSG_REPLAY_FAIL@@YAXXZ ; RMSG_REPLAY_FAIL$initializer$
CRT$XCU	ENDS
CRT$XCU	SEGMENT
?RMSG_REPLAY_CHANGE_DATE$initializer$@@3P6AXXZA DD FLAT:??__ERMSG_REPLAY_CHANGE_DATE@@YAXXZ ; RMSG_REPLAY_CHANGE_DATE$initializer$
CRT$XCU	ENDS
CRT$XCU	SEGMENT
?RMSG_REPLAY_END$initializer$@@3P6AXXZA DD FLAT:??__ERMSG_REPLAY_END@@YAXXZ ; RMSG_REPLAY_END$initializer$
CRT$XCU	ENDS
CRT$XCU	SEGMENT
?RMSG_REPLAY_INC_SEC$initializer$@@3P6AXXZA DD FLAT:??__ERMSG_REPLAY_INC_SEC@@YAXXZ ; RMSG_REPLAY_INC_SEC$initializer$
CRT$XCU	ENDS
CRT$XCU	SEGMENT
?RMSG_REPLAY_TOTAL_SEC$initializer$@@3P6AXXZA DD FLAT:??__ERMSG_REPLAY_TOTAL_SEC@@YAXXZ ; RMSG_REPLAY_TOTAL_SEC$initializer$
CRT$XCU	ENDS
CRT$XCU	SEGMENT
?RMSG_OB_ITEMCLICK$initializer$@@3P6AXXZA DD FLAT:??__ERMSG_OB_ITEMCLICK@@YAXXZ ; RMSG_OB_ITEMCLICK$initializer$
CRT$XCU	ENDS
CRT$XCU	SEGMENT
?RMSG_OB_ITEMDBLCLK$initializer$@@3P6AXXZA DD FLAT:??__ERMSG_OB_ITEMDBLCLK@@YAXXZ ; RMSG_OB_ITEMDBLCLK$initializer$
CRT$XCU	ENDS
CRT$XCU	SEGMENT
?RMSG_RUN_MULTIST$initializer$@@3P6AXXZA DD FLAT:??__ERMSG_RUN_MULTIST@@YAXXZ ; RMSG_RUN_MULTIST$initializer$
CRT$XCU	ENDS
CRT$XCU	SEGMENT
?RMSG_INDEXADDIN_NOTIFY_RAWDATA$initializer$@@3P6AXXZA DD FLAT:??__ERMSG_INDEXADDIN_NOTIFY_RAWDATA@@YAXXZ ; RMSG_INDEXADDIN_NOTIFY_RAWDATA$initializer$
CRT$XCU	ENDS
CRT$XCU	SEGMENT
?RMSG_INDEXADDIN_NOTIFY_BUYSELL$initializer$@@3P6AXXZA DD FLAT:??__ERMSG_INDEXADDIN_NOTIFY_BUYSELL@@YAXXZ ; RMSG_INDEXADDIN_NOTIFY_BUYSELL$initializer$
CRT$XCU	ENDS
CRT$XCU	SEGMENT
?RMSG_INDEXADDIN_NOTIFY_SIGNAL$initializer$@@3P6AXXZA DD FLAT:??__ERMSG_INDEXADDIN_NOTIFY_SIGNAL@@YAXXZ ; RMSG_INDEXADDIN_NOTIFY_SIGNAL$initializer$
CRT$XCU	ENDS
CRT$XCU	SEGMENT
?RMSG_DESTROY_CONFIRMWND$initializer$@@3P6AXXZA DD FLAT:??__ERMSG_DESTROY_CONFIRMWND@@YAXXZ ; RMSG_DESTROY_CONFIRMWND$initializer$
CRT$XCU	ENDS
CRT$XCU	SEGMENT
?RMSG_GET_SCREENVIEWHANDLE$initializer$@@3P6AXXZA DD FLAT:??__ERMSG_GET_SCREENVIEWHANDLE@@YAXXZ ; RMSG_GET_SCREENVIEWHANDLE$initializer$
CRT$XCU	ENDS
CRT$XCU	SEGMENT
?RMSG_REQUEST_HOGADATA$initializer$@@3P6AXXZA DD FLAT:??__ERMSG_REQUEST_HOGADATA@@YAXXZ ; RMSG_REQUEST_HOGADATA$initializer$
CRT$XCU	ENDS
CRT$XCU	SEGMENT
?RMSG_ISSTRUNSTATE$initializer$@@3P6AXXZA DD FLAT:??__ERMSG_ISSTRUNSTATE@@YAXXZ ; RMSG_ISSTRUNSTATE$initializer$
CRT$XCU	ENDS
; Function compile flags: /Ogtp
; File C:\Program Files (x86)\Microsoft Visual Studio\2019\Community\VC\Tools\MSVC\14.29.30133\atlmfc\include\afxtempl.h
; File C:\Program Files (x86)\Microsoft Visual Studio\2019\Community\VC\Tools\MSVC\14.29.30133\atlmfc\include\afx.inl
; File C:\Program Files (x86)\Microsoft Visual Studio\2019\Community\VC\Tools\MSVC\14.29.30133\atlmfc\include\afxtempl.h
; File C:\Program Files (x86)\Microsoft Visual Studio\2019\Community\VC\Tools\MSVC\14.29.30133\atlmfc\include\afx.inl
; File C:\Program Files (x86)\Microsoft Visual Studio\2019\Community\VC\Tools\MSVC\14.29.30133\atlmfc\include\afxtempl.h
; File C:\Program Files (x86)\Microsoft Visual Studio\2019\Community\VC\Tools\MSVC\14.29.30133\atlmfc\include\afx.inl
; File C:\Program Files (x86)\Microsoft Visual Studio\2019\Community\VC\Tools\MSVC\14.29.30133\atlmfc\include\afxtempl.h
;	COMDAT ??$SerializeElements@J@@YGXAAVCArchive@@PAJH@Z
_TEXT	SEGMENT
_ar$ = 8						; size = 4
_pElements$ = 12					; size = 4
_nCount$ = 16						; size = 4
??$SerializeElements@J@@YGXAAVCArchive@@PAJH@Z PROC	; SerializeElements<long>, COMDAT

; 67   : {

  00000	55		 push	 ebp
  00001	8b ec		 mov	 ebp, esp

; 68   : 	ENSURE(nCount == 0 || pElements != NULL);

  00003	8b 4d 0c	 mov	 ecx, DWORD PTR _pElements$[ebp]
  00006	53		 push	 ebx
  00007	56		 push	 esi
  00008	8b 75 10	 mov	 esi, DWORD PTR _nCount$[ebp]
  0000b	57		 push	 edi
  0000c	85 f6		 test	 esi, esi
  0000e	74 08		 je	 SHORT $LN2@SerializeE
  00010	85 c9		 test	 ecx, ecx
  00012	0f 84 89 00 00
	00		 je	 $LN34@SerializeE
$LN2@SerializeE:
; File C:\Program Files (x86)\Microsoft Visual Studio\2019\Community\VC\Tools\MSVC\14.29.30133\atlmfc\include\afx.inl

; 212  : 	{ return (m_nMode & CArchive::load) == 0; }

  00018	8b 55 08	 mov	 edx, DWORD PTR _ar$[ebp]
  0001b	8b 42 18	 mov	 eax, DWORD PTR [edx+24]
  0001e	f7 d0		 not	 eax
  00020	a8 01		 test	 al, 1
; File C:\Program Files (x86)\Microsoft Visual Studio\2019\Community\VC\Tools\MSVC\14.29.30133\atlmfc\include\afxtempl.h

; 73   : 	if (ar.IsStoring())

  00022	74 3c		 je	 SHORT $LN10@SerializeE

; 74   : 	{
; 75   : 		TYPE* pData;
; 76   : 		UINT_PTR nElementsLeft;
; 77   : 
; 78   : 		nElementsLeft = nCount;
; 79   : 		pData = pElements;
; 80   : 		while( nElementsLeft > 0 )

  00024	85 f6		 test	 esi, esi
  00026	74 31		 je	 SHORT $LN8@SerializeE
  00028	0f 1f 84 00 00
	00 00 00	 npad	 8
$LL5@SerializeE:

; 81   : 		{
; 82   : 			UINT nElementsToWrite;
; 83   : 
; 84   : 			nElementsToWrite = UINT(__min(nElementsLeft, INT_MAX/sizeof(TYPE)));

  00030	bb ff ff ff 1f	 mov	 ebx, 536870911		; 1fffffffH
  00035	3b f3		 cmp	 esi, ebx
  00037	0f 42 de	 cmovb	 ebx, esi

; 85   : 			ar.Write(pData, nElementsToWrite*sizeof(TYPE));

  0003a	8d 3c 9d 00 00
	00 00		 lea	 edi, DWORD PTR [ebx*4]
  00041	57		 push	 edi
  00042	51		 push	 ecx
  00043	8b ca		 mov	 ecx, edx
  00045	e8 00 00 00 00	 call	 ?Write@CArchive@@QAEXPBXI@Z ; CArchive::Write

; 86   : 			nElementsLeft -= nElementsToWrite;
; 87   : 			pData += nElementsToWrite;

  0004a	8b 4d 0c	 mov	 ecx, DWORD PTR _pElements$[ebp]
  0004d	8b 55 08	 mov	 edx, DWORD PTR _ar$[ebp]
  00050	03 cf		 add	 ecx, edi
  00052	89 4d 0c	 mov	 DWORD PTR _pElements$[ebp], ecx
  00055	2b f3		 sub	 esi, ebx
  00057	75 d7		 jne	 SHORT $LL5@SerializeE
$LN8@SerializeE:
  00059	5f		 pop	 edi

; 105  : 		}
; 106  : 	}
; 107  : }

  0005a	5e		 pop	 esi
  0005b	5b		 pop	 ebx
  0005c	5d		 pop	 ebp
  0005d	c2 0c 00	 ret	 12			; 0000000cH
$LN10@SerializeE:

; 97   : 		while( nElementsLeft > 0 )

  00060	85 f6		 test	 esi, esi
  00062	74 f5		 je	 SHORT $LN8@SerializeE
$LL7@SerializeE:

; 98   : 		{
; 99   : 			UINT nElementsToRead;
; 100  : 
; 101  : 			nElementsToRead = UINT(__min(nElementsLeft, INT_MAX/sizeof(TYPE)));

  00064	bf ff ff ff 1f	 mov	 edi, 536870911		; 1fffffffH
  00069	3b f7		 cmp	 esi, edi
  0006b	0f 42 fe	 cmovb	 edi, esi

; 102  : 			ar.EnsureRead(pData, nElementsToRead*sizeof(TYPE));

  0006e	8d 1c bd 00 00
	00 00		 lea	 ebx, DWORD PTR [edi*4]
; File C:\Program Files (x86)\Microsoft Visual Studio\2019\Community\VC\Tools\MSVC\14.29.30133\atlmfc\include\afx.inl

; 399  : 	UINT nRead=Read(lpBuf, nCount);

  00075	53		 push	 ebx
  00076	51		 push	 ecx
  00077	8b ca		 mov	 ecx, edx
  00079	e8 00 00 00 00	 call	 ?Read@CArchive@@QAEIPAXI@Z ; CArchive::Read

; 400  : 	if(nRead!=nCount)

  0007e	3b c3		 cmp	 eax, ebx
  00080	75 16		 jne	 SHORT $LN23@SerializeE
; File C:\Program Files (x86)\Microsoft Visual Studio\2019\Community\VC\Tools\MSVC\14.29.30133\atlmfc\include\afxtempl.h

; 97   : 		while( nElementsLeft > 0 )

  00082	8b 4d 0c	 mov	 ecx, DWORD PTR _pElements$[ebp]
  00085	8b 55 08	 mov	 edx, DWORD PTR _ar$[ebp]

; 103  : 			nElementsLeft -= nElementsToRead;
; 104  : 			pData += nElementsToRead;

  00088	03 cb		 add	 ecx, ebx
  0008a	89 4d 0c	 mov	 DWORD PTR _pElements$[ebp], ecx
  0008d	2b f7		 sub	 esi, edi
  0008f	75 d3		 jne	 SHORT $LL7@SerializeE

; 105  : 		}
; 106  : 	}
; 107  : }

  00091	5f		 pop	 edi
  00092	5e		 pop	 esi
  00093	5b		 pop	 ebx
  00094	5d		 pop	 ebp
  00095	c2 0c 00	 ret	 12			; 0000000cH
$LN23@SerializeE:
; File C:\Program Files (x86)\Microsoft Visual Studio\2019\Community\VC\Tools\MSVC\14.29.30133\atlmfc\include\afx.inl

; 402  : 		AfxThrowArchiveException(CArchiveException::endOfFile);

  00098	6a 00		 push	 0
  0009a	6a 03		 push	 3
  0009c	e8 00 00 00 00	 call	 ?AfxThrowArchiveException@@YGXHPBD@Z ; AfxThrowArchiveException
$LN34@SerializeE:
; File C:\Program Files (x86)\Microsoft Visual Studio\2019\Community\VC\Tools\MSVC\14.29.30133\atlmfc\include\afxtempl.h

; 68   : 	ENSURE(nCount == 0 || pElements != NULL);

  000a1	e8 00 00 00 00	 call	 ?AfxThrowInvalidArgException@@YGXXZ ; AfxThrowInvalidArgException
$LN32@SerializeE:
  000a6	cc		 int	 3
??$SerializeElements@J@@YGXAAVCArchive@@PAJH@Z ENDP	; SerializeElements<long>
_TEXT	ENDS
; Function compile flags: /Ogtp
; File C:\Program Files (x86)\Microsoft Visual Studio\2019\Community\VC\Tools\MSVC\14.29.30133\atlmfc\include\afxtempl.h
; File C:\Program Files (x86)\Microsoft Visual Studio\2019\Community\VC\Tools\MSVC\14.29.30133\atlmfc\include\afx.inl
; File C:\Program Files (x86)\Microsoft Visual Studio\2019\Community\VC\Tools\MSVC\14.29.30133\atlmfc\include\afxtempl.h
; File C:\Program Files (x86)\Microsoft Visual Studio\2019\Community\VC\Tools\MSVC\14.29.30133\atlmfc\include\afx.inl
; File C:\Program Files (x86)\Microsoft Visual Studio\2019\Community\VC\Tools\MSVC\14.29.30133\atlmfc\include\afxtempl.h
; File C:\Program Files (x86)\Microsoft Visual Studio\2019\Community\VC\Tools\MSVC\14.29.30133\atlmfc\include\afx.inl
; File C:\Program Files (x86)\Microsoft Visual Studio\2019\Community\VC\Tools\MSVC\14.29.30133\atlmfc\include\afxtempl.h
;	COMDAT ??$SerializeElements@PAVCConfirmWnd@@@@YGXAAVCArchive@@PAPAVCConfirmWnd@@H@Z
_TEXT	SEGMENT
_ar$ = 8						; size = 4
_pElements$ = 12					; size = 4
_nCount$ = 16						; size = 4
??$SerializeElements@PAVCConfirmWnd@@@@YGXAAVCArchive@@PAPAVCConfirmWnd@@H@Z PROC ; SerializeElements<CConfirmWnd *>, COMDAT

; 67   : {

  00000	55		 push	 ebp
  00001	8b ec		 mov	 ebp, esp

; 68   : 	ENSURE(nCount == 0 || pElements != NULL);

  00003	8b 4d 0c	 mov	 ecx, DWORD PTR _pElements$[ebp]
  00006	53		 push	 ebx
  00007	56		 push	 esi
  00008	8b 75 10	 mov	 esi, DWORD PTR _nCount$[ebp]
  0000b	57		 push	 edi
  0000c	85 f6		 test	 esi, esi
  0000e	74 08		 je	 SHORT $LN2@SerializeE
  00010	85 c9		 test	 ecx, ecx
  00012	0f 84 89 00 00
	00		 je	 $LN34@SerializeE
$LN2@SerializeE:
; File C:\Program Files (x86)\Microsoft Visual Studio\2019\Community\VC\Tools\MSVC\14.29.30133\atlmfc\include\afx.inl

; 212  : 	{ return (m_nMode & CArchive::load) == 0; }

  00018	8b 55 08	 mov	 edx, DWORD PTR _ar$[ebp]
  0001b	8b 42 18	 mov	 eax, DWORD PTR [edx+24]
  0001e	f7 d0		 not	 eax
  00020	a8 01		 test	 al, 1
; File C:\Program Files (x86)\Microsoft Visual Studio\2019\Community\VC\Tools\MSVC\14.29.30133\atlmfc\include\afxtempl.h

; 73   : 	if (ar.IsStoring())

  00022	74 3c		 je	 SHORT $LN10@SerializeE

; 74   : 	{
; 75   : 		TYPE* pData;
; 76   : 		UINT_PTR nElementsLeft;
; 77   : 
; 78   : 		nElementsLeft = nCount;
; 79   : 		pData = pElements;
; 80   : 		while( nElementsLeft > 0 )

  00024	85 f6		 test	 esi, esi
  00026	74 31		 je	 SHORT $LN8@SerializeE
  00028	0f 1f 84 00 00
	00 00 00	 npad	 8
$LL5@SerializeE:

; 81   : 		{
; 82   : 			UINT nElementsToWrite;
; 83   : 
; 84   : 			nElementsToWrite = UINT(__min(nElementsLeft, INT_MAX/sizeof(TYPE)));

  00030	bb ff ff ff 1f	 mov	 ebx, 536870911		; 1fffffffH
  00035	3b f3		 cmp	 esi, ebx
  00037	0f 42 de	 cmovb	 ebx, esi

; 85   : 			ar.Write(pData, nElementsToWrite*sizeof(TYPE));

  0003a	8d 3c 9d 00 00
	00 00		 lea	 edi, DWORD PTR [ebx*4]
  00041	57		 push	 edi
  00042	51		 push	 ecx
  00043	8b ca		 mov	 ecx, edx
  00045	e8 00 00 00 00	 call	 ?Write@CArchive@@QAEXPBXI@Z ; CArchive::Write

; 86   : 			nElementsLeft -= nElementsToWrite;
; 87   : 			pData += nElementsToWrite;

  0004a	8b 4d 0c	 mov	 ecx, DWORD PTR _pElements$[ebp]
  0004d	8b 55 08	 mov	 edx, DWORD PTR _ar$[ebp]
  00050	03 cf		 add	 ecx, edi
  00052	89 4d 0c	 mov	 DWORD PTR _pElements$[ebp], ecx
  00055	2b f3		 sub	 esi, ebx
  00057	75 d7		 jne	 SHORT $LL5@SerializeE
$LN8@SerializeE:
  00059	5f		 pop	 edi

; 105  : 		}
; 106  : 	}
; 107  : }

  0005a	5e		 pop	 esi
  0005b	5b		 pop	 ebx
  0005c	5d		 pop	 ebp
  0005d	c2 0c 00	 ret	 12			; 0000000cH
$LN10@SerializeE:

; 97   : 		while( nElementsLeft > 0 )

  00060	85 f6		 test	 esi, esi
  00062	74 f5		 je	 SHORT $LN8@SerializeE
$LL7@SerializeE:

; 98   : 		{
; 99   : 			UINT nElementsToRead;
; 100  : 
; 101  : 			nElementsToRead = UINT(__min(nElementsLeft, INT_MAX/sizeof(TYPE)));

  00064	bf ff ff ff 1f	 mov	 edi, 536870911		; 1fffffffH
  00069	3b f7		 cmp	 esi, edi
  0006b	0f 42 fe	 cmovb	 edi, esi

; 102  : 			ar.EnsureRead(pData, nElementsToRead*sizeof(TYPE));

  0006e	8d 1c bd 00 00
	00 00		 lea	 ebx, DWORD PTR [edi*4]
; File C:\Program Files (x86)\Microsoft Visual Studio\2019\Community\VC\Tools\MSVC\14.29.30133\atlmfc\include\afx.inl

; 399  : 	UINT nRead=Read(lpBuf, nCount);

  00075	53		 push	 ebx
  00076	51		 push	 ecx
  00077	8b ca		 mov	 ecx, edx
  00079	e8 00 00 00 00	 call	 ?Read@CArchive@@QAEIPAXI@Z ; CArchive::Read

; 400  : 	if(nRead!=nCount)

  0007e	3b c3		 cmp	 eax, ebx
  00080	75 16		 jne	 SHORT $LN23@SerializeE
; File C:\Program Files (x86)\Microsoft Visual Studio\2019\Community\VC\Tools\MSVC\14.29.30133\atlmfc\include\afxtempl.h

; 97   : 		while( nElementsLeft > 0 )

  00082	8b 4d 0c	 mov	 ecx, DWORD PTR _pElements$[ebp]
  00085	8b 55 08	 mov	 edx, DWORD PTR _ar$[ebp]

; 103  : 			nElementsLeft -= nElementsToRead;
; 104  : 			pData += nElementsToRead;

  00088	03 cb		 add	 ecx, ebx
  0008a	89 4d 0c	 mov	 DWORD PTR _pElements$[ebp], ecx
  0008d	2b f7		 sub	 esi, edi
  0008f	75 d3		 jne	 SHORT $LL7@SerializeE

; 105  : 		}
; 106  : 	}
; 107  : }

  00091	5f		 pop	 edi
  00092	5e		 pop	 esi
  00093	5b		 pop	 ebx
  00094	5d		 pop	 ebp
  00095	c2 0c 00	 ret	 12			; 0000000cH
$LN23@SerializeE:
; File C:\Program Files (x86)\Microsoft Visual Studio\2019\Community\VC\Tools\MSVC\14.29.30133\atlmfc\include\afx.inl

; 402  : 		AfxThrowArchiveException(CArchiveException::endOfFile);

  00098	6a 00		 push	 0
  0009a	6a 03		 push	 3
  0009c	e8 00 00 00 00	 call	 ?AfxThrowArchiveException@@YGXHPBD@Z ; AfxThrowArchiveException
$LN34@SerializeE:
; File C:\Program Files (x86)\Microsoft Visual Studio\2019\Community\VC\Tools\MSVC\14.29.30133\atlmfc\include\afxtempl.h

; 68   : 	ENSURE(nCount == 0 || pElements != NULL);

  000a1	e8 00 00 00 00	 call	 ?AfxThrowInvalidArgException@@YGXXZ ; AfxThrowInvalidArgException
$LN32@SerializeE:
  000a6	cc		 int	 3
??$SerializeElements@PAVCConfirmWnd@@@@YGXAAVCArchive@@PAPAVCConfirmWnd@@H@Z ENDP ; SerializeElements<CConfirmWnd *>
_TEXT	ENDS
; Function compile flags: /Ogtp
; File C:\Program Files (x86)\Microsoft Visual Studio\2019\Community\VC\Tools\MSVC\14.29.30133\atlmfc\include\afxtempl.h
;	COMDAT ??$CompareElements@PAVCConfirmWnd@@PAV1@@@YGHPBQAVCConfirmWnd@@0@Z
_TEXT	SEGMENT
_pElement1$ = 8						; size = 4
_pElement2$ = 12					; size = 4
??$CompareElements@PAVCConfirmWnd@@PAV1@@@YGHPBQAVCConfirmWnd@@0@Z PROC ; CompareElements<CConfirmWnd *,CConfirmWnd *>, COMDAT

; 151  : {

  00000	55		 push	 ebp
  00001	8b ec		 mov	 ebp, esp

; 152  : 	ENSURE(pElement1 != NULL && pElement2 != NULL);

  00003	8b 4d 08	 mov	 ecx, DWORD PTR _pElement1$[ebp]
  00006	85 c9		 test	 ecx, ecx
  00008	74 14		 je	 SHORT $LN7@CompareEle
  0000a	8b 55 0c	 mov	 edx, DWORD PTR _pElement2$[ebp]
  0000d	85 d2		 test	 edx, edx
  0000f	74 0d		 je	 SHORT $LN7@CompareEle

; 153  : 	ASSERT(AfxIsValidAddress(pElement1, sizeof(TYPE), FALSE));
; 154  : 	ASSERT(AfxIsValidAddress(pElement2, sizeof(ARG_TYPE), FALSE));
; 155  : 
; 156  : 	return *pElement1 == *pElement2;

  00011	8b 09		 mov	 ecx, DWORD PTR [ecx]
  00013	33 c0		 xor	 eax, eax
  00015	3b 0a		 cmp	 ecx, DWORD PTR [edx]
  00017	0f 94 c0	 sete	 al

; 157  : }

  0001a	5d		 pop	 ebp
  0001b	c2 08 00	 ret	 8
$LN7@CompareEle:

; 152  : 	ENSURE(pElement1 != NULL && pElement2 != NULL);

  0001e	e8 00 00 00 00	 call	 ?AfxThrowInvalidArgException@@YGXXZ ; AfxThrowInvalidArgException
$LN10@CompareEle:
  00023	cc		 int	 3
??$CompareElements@PAVCConfirmWnd@@PAV1@@@YGHPBQAVCConfirmWnd@@0@Z ENDP ; CompareElements<CConfirmWnd *,CConfirmWnd *>
_TEXT	ENDS
; Function compile flags: /Ogtp
; File D:\git\src\IBK\IBK_DRFN\ProjSrc\SrcDrfn\Chart\MULTICHART\TabSystemTradingEx.cpp
;	COMDAT ??__ERMSG_ISSTRUNSTATE@@YAXXZ
text$di	SEGMENT
??__ERMSG_ISSTRUNSTATE@@YAXXZ PROC			; `dynamic initializer for 'RMSG_ISSTRUNSTATE'', COMDAT

; 43   : const UINT RMSG_ISSTRUNSTATE = ::RegisterWindowMessage(_T("RMSG_ISSTRUNSTATE"));

  00000	68 00 00 00 00	 push	 OFFSET ??_C@_0BC@HAIAMDMN@RMSG_ISSTRUNSTATE@
  00005	ff 15 00 00 00
	00		 call	 DWORD PTR __imp__RegisterWindowMessageA@4
  0000b	a3 00 00 00 00	 mov	 DWORD PTR ?RMSG_ISSTRUNSTATE@@3IB, eax
  00010	c3		 ret	 0
??__ERMSG_ISSTRUNSTATE@@YAXXZ ENDP			; `dynamic initializer for 'RMSG_ISSTRUNSTATE''
text$di	ENDS
; Function compile flags: /Ogtp
; File D:\git\src\IBK\IBK_DRFN\ProjSrc\SrcDrfn\Chart\MULTICHART\TabSystemTradingEx.cpp
;	COMDAT ??__ERMSG_REQUEST_HOGADATA@@YAXXZ
text$di	SEGMENT
??__ERMSG_REQUEST_HOGADATA@@YAXXZ PROC			; `dynamic initializer for 'RMSG_REQUEST_HOGADATA'', COMDAT

; 42   : const UINT RMSG_REQUEST_HOGADATA = ::RegisterWindowMessage(_T("RMSG_REQUEST_HOGADATA"));

  00000	68 00 00 00 00	 push	 OFFSET ??_C@_0BG@LAFFFKAH@RMSG_REQUEST_HOGADATA@
  00005	ff 15 00 00 00
	00		 call	 DWORD PTR __imp__RegisterWindowMessageA@4
  0000b	a3 00 00 00 00	 mov	 DWORD PTR ?RMSG_REQUEST_HOGADATA@@3IB, eax
  00010	c3		 ret	 0
??__ERMSG_REQUEST_HOGADATA@@YAXXZ ENDP			; `dynamic initializer for 'RMSG_REQUEST_HOGADATA''
text$di	ENDS
; Function compile flags: /Ogtp
; File D:\git\src\IBK\IBK_DRFN\ProjSrc\SrcDrfn\Chart\MULTICHART\TabSystemTradingEx.cpp
;	COMDAT ??__ERMSG_GET_SCREENVIEWHANDLE@@YAXXZ
text$di	SEGMENT
??__ERMSG_GET_SCREENVIEWHANDLE@@YAXXZ PROC		; `dynamic initializer for 'RMSG_GET_SCREENVIEWHANDLE'', COMDAT

; 41   : const UINT RMSG_GET_SCREENVIEWHANDLE = ::RegisterWindowMessage(_T("RMSG_GET_SCREENVIEWHANDLE"));

  00000	68 00 00 00 00	 push	 OFFSET ??_C@_0BK@HAGIDNEN@RMSG_GET_SCREENVIEWHANDLE@
  00005	ff 15 00 00 00
	00		 call	 DWORD PTR __imp__RegisterWindowMessageA@4
  0000b	a3 00 00 00 00	 mov	 DWORD PTR ?RMSG_GET_SCREENVIEWHANDLE@@3IB, eax
  00010	c3		 ret	 0
??__ERMSG_GET_SCREENVIEWHANDLE@@YAXXZ ENDP		; `dynamic initializer for 'RMSG_GET_SCREENVIEWHANDLE''
text$di	ENDS
; Function compile flags: /Ogtp
; File D:\git\src\IBK\IBK_DRFN\ProjSrc\SrcDrfn\Chart\MULTICHART\TabSystemTradingEx.cpp
;	COMDAT ??__ERMSG_DESTROY_CONFIRMWND@@YAXXZ
text$di	SEGMENT
??__ERMSG_DESTROY_CONFIRMWND@@YAXXZ PROC		; `dynamic initializer for 'RMSG_DESTROY_CONFIRMWND'', COMDAT

; 40   : const UINT RMSG_DESTROY_CONFIRMWND = ::RegisterWindowMessage("RMSG_DESTROY_CONFIRMWND");

  00000	68 00 00 00 00	 push	 OFFSET ??_C@_0BI@HDHMAMNF@RMSG_DESTROY_CONFIRMWND@
  00005	ff 15 00 00 00
	00		 call	 DWORD PTR __imp__RegisterWindowMessageA@4
  0000b	a3 00 00 00 00	 mov	 DWORD PTR ?RMSG_DESTROY_CONFIRMWND@@3IB, eax
  00010	c3		 ret	 0
??__ERMSG_DESTROY_CONFIRMWND@@YAXXZ ENDP		; `dynamic initializer for 'RMSG_DESTROY_CONFIRMWND''
text$di	ENDS
; Function compile flags: /Ogtp
; File D:\git\src\IBK\IBK_DRFN\ProjSrc\SrcDrfn\Chart\MULTICHART\TabSystemTradingEx.cpp
;	COMDAT ??__ERMSG_INDEXADDIN_NOTIFY_SIGNAL@@YAXXZ
text$di	SEGMENT
??__ERMSG_INDEXADDIN_NOTIFY_SIGNAL@@YAXXZ PROC		; `dynamic initializer for 'RMSG_INDEXADDIN_NOTIFY_SIGNAL'', COMDAT

; 39   : const UINT RMSG_INDEXADDIN_NOTIFY_SIGNAL  = ::RegisterWindowMessage("RMSG_INDEXADDIN_NOTIFY_SIGNAL");

  00000	68 00 00 00 00	 push	 OFFSET ??_C@_0BO@OEMLJDPK@RMSG_INDEXADDIN_NOTIFY_SIGNAL@
  00005	ff 15 00 00 00
	00		 call	 DWORD PTR __imp__RegisterWindowMessageA@4
  0000b	a3 00 00 00 00	 mov	 DWORD PTR ?RMSG_INDEXADDIN_NOTIFY_SIGNAL@@3IB, eax
  00010	c3		 ret	 0
??__ERMSG_INDEXADDIN_NOTIFY_SIGNAL@@YAXXZ ENDP		; `dynamic initializer for 'RMSG_INDEXADDIN_NOTIFY_SIGNAL''
text$di	ENDS
; Function compile flags: /Ogtp
; File D:\git\src\IBK\IBK_DRFN\ProjSrc\SrcDrfn\Chart\MULTICHART\TabSystemTradingEx.cpp
;	COMDAT ??__ERMSG_INDEXADDIN_NOTIFY_BUYSELL@@YAXXZ
text$di	SEGMENT
??__ERMSG_INDEXADDIN_NOTIFY_BUYSELL@@YAXXZ PROC		; `dynamic initializer for 'RMSG_INDEXADDIN_NOTIFY_BUYSELL'', COMDAT

; 38   : const UINT RMSG_INDEXADDIN_NOTIFY_BUYSELL = ::RegisterWindowMessage("RMSG_INDEXADDIN_NOTIFY_BUYSELL");

  00000	68 00 00 00 00	 push	 OFFSET ??_C@_0BP@DPOBLABI@RMSG_INDEXADDIN_NOTIFY_BUYSELL@
  00005	ff 15 00 00 00
	00		 call	 DWORD PTR __imp__RegisterWindowMessageA@4
  0000b	a3 00 00 00 00	 mov	 DWORD PTR ?RMSG_INDEXADDIN_NOTIFY_BUYSELL@@3IB, eax
  00010	c3		 ret	 0
??__ERMSG_INDEXADDIN_NOTIFY_BUYSELL@@YAXXZ ENDP		; `dynamic initializer for 'RMSG_INDEXADDIN_NOTIFY_BUYSELL''
text$di	ENDS
; Function compile flags: /Ogtp
; File D:\git\src\IBK\IBK_DRFN\ProjSrc\SrcDrfn\Chart\MULTICHART\TabSystemTradingEx.cpp
;	COMDAT ??__ERMSG_INDEXADDIN_NOTIFY_RAWDATA@@YAXXZ
text$di	SEGMENT
??__ERMSG_INDEXADDIN_NOTIFY_RAWDATA@@YAXXZ PROC		; `dynamic initializer for 'RMSG_INDEXADDIN_NOTIFY_RAWDATA'', COMDAT

; 37   : const UINT RMSG_INDEXADDIN_NOTIFY_RAWDATA = ::RegisterWindowMessage("RMSG_INDEXADDIN_NOTIFY_RAWDATA");

  00000	68 00 00 00 00	 push	 OFFSET ??_C@_0BP@BAPIAINO@RMSG_INDEXADDIN_NOTIFY_RAWDATA@
  00005	ff 15 00 00 00
	00		 call	 DWORD PTR __imp__RegisterWindowMessageA@4
  0000b	a3 00 00 00 00	 mov	 DWORD PTR ?RMSG_INDEXADDIN_NOTIFY_RAWDATA@@3IB, eax
  00010	c3		 ret	 0
??__ERMSG_INDEXADDIN_NOTIFY_RAWDATA@@YAXXZ ENDP		; `dynamic initializer for 'RMSG_INDEXADDIN_NOTIFY_RAWDATA''
text$di	ENDS
; Function compile flags: /Ogtp
; File D:\git\src\IBK\IBK_DRFN\ProjSrc\SrcDrfn\Chart\MULTICHART\TabSystemTradingEx.cpp
;	COMDAT ??__ERMSG_RUN_MULTIST@@YAXXZ
text$di	SEGMENT
??__ERMSG_RUN_MULTIST@@YAXXZ PROC			; `dynamic initializer for 'RMSG_RUN_MULTIST'', COMDAT

; 36   : const UINT RMSG_RUN_MULTIST		= ::RegisterWindowMessage("RMSG_RUN_MULTIST");

  00000	68 00 00 00 00	 push	 OFFSET ??_C@_0BB@MOBJEGOO@RMSG_RUN_MULTIST@
  00005	ff 15 00 00 00
	00		 call	 DWORD PTR __imp__RegisterWindowMessageA@4
  0000b	a3 00 00 00 00	 mov	 DWORD PTR ?RMSG_RUN_MULTIST@@3IB, eax
  00010	c3		 ret	 0
??__ERMSG_RUN_MULTIST@@YAXXZ ENDP			; `dynamic initializer for 'RMSG_RUN_MULTIST''
text$di	ENDS
; Function compile flags: /Ogtp
; File D:\git\src\IBK\IBK_DRFN\ProjSrc\SrcDrfn\Chart\MULTICHART\TabSystemTradingEx.cpp
;	COMDAT ??__ERMSG_OB_ITEMDBLCLK@@YAXXZ
text$di	SEGMENT
??__ERMSG_OB_ITEMDBLCLK@@YAXXZ PROC			; `dynamic initializer for 'RMSG_OB_ITEMDBLCLK'', COMDAT

; 35   : const UINT RMSG_OB_ITEMDBLCLK	= ::RegisterWindowMessage("RMSG_OB_ITEMDBLCLK");

  00000	68 00 00 00 00	 push	 OFFSET ??_C@_0BD@GFDLLOKP@RMSG_OB_ITEMDBLCLK@
  00005	ff 15 00 00 00
	00		 call	 DWORD PTR __imp__RegisterWindowMessageA@4
  0000b	a3 00 00 00 00	 mov	 DWORD PTR ?RMSG_OB_ITEMDBLCLK@@3IB, eax
  00010	c3		 ret	 0
??__ERMSG_OB_ITEMDBLCLK@@YAXXZ ENDP			; `dynamic initializer for 'RMSG_OB_ITEMDBLCLK''
text$di	ENDS
; Function compile flags: /Ogtp
; File D:\git\src\IBK\IBK_DRFN\ProjSrc\SrcDrfn\Chart\MULTICHART\TabSystemTradingEx.cpp
;	COMDAT ??__ERMSG_OB_ITEMCLICK@@YAXXZ
text$di	SEGMENT
??__ERMSG_OB_ITEMCLICK@@YAXXZ PROC			; `dynamic initializer for 'RMSG_OB_ITEMCLICK'', COMDAT

; 34   : const UINT RMSG_OB_ITEMCLICK	= ::RegisterWindowMessage("RMSG_OB_ITEMCLICK");

  00000	68 00 00 00 00	 push	 OFFSET ??_C@_0BC@LAMDBJGM@RMSG_OB_ITEMCLICK@
  00005	ff 15 00 00 00
	00		 call	 DWORD PTR __imp__RegisterWindowMessageA@4
  0000b	a3 00 00 00 00	 mov	 DWORD PTR ?RMSG_OB_ITEMCLICK@@3IB, eax
  00010	c3		 ret	 0
??__ERMSG_OB_ITEMCLICK@@YAXXZ ENDP			; `dynamic initializer for 'RMSG_OB_ITEMCLICK''
text$di	ENDS
; Function compile flags: /Ogtp
;	COMDAT ??1stAddinSTRunInfo@@QAE@XZ
_TEXT	SEGMENT
??1stAddinSTRunInfo@@QAE@XZ PROC			; stAddinSTRunInfo::~stAddinSTRunInfo, COMDAT
; _this$ = ecx
  00000	56		 push	 esi
  00001	8b f1		 mov	 esi, ecx
  00003	8d 4e 10	 lea	 ecx, DWORD PTR [esi+16]
  00006	ff 15 00 00 00
	00		 call	 DWORD PTR __imp_??1?$CStringT@DV?$StrTraitMFC_DLL@DV?$ChTraitsCRT@D@ATL@@@@@ATL@@QAE@XZ
  0000c	8d 4e 08	 lea	 ecx, DWORD PTR [esi+8]
  0000f	5e		 pop	 esi
  00010	ff 25 00 00 00
	00		 jmp	 DWORD PTR __imp_??1?$CStringT@DV?$StrTraitMFC_DLL@DV?$ChTraitsCRT@D@ATL@@@@@ATL@@QAE@XZ
??1stAddinSTRunInfo@@QAE@XZ ENDP			; stAddinSTRunInfo::~stAddinSTRunInfo
_TEXT	ENDS
; Function compile flags: /Ogtp
;	COMDAT ??1stAddinSTRun@@QAE@XZ
_TEXT	SEGMENT
??1stAddinSTRun@@QAE@XZ PROC				; stAddinSTRun::~stAddinSTRun, COMDAT
; _this$ = ecx
  00000	56		 push	 esi
  00001	8b f1		 mov	 esi, ecx
  00003	8d 4e 28	 lea	 ecx, DWORD PTR [esi+40]
  00006	ff 15 00 00 00
	00		 call	 DWORD PTR __imp_??1?$CStringT@DV?$StrTraitMFC_DLL@DV?$ChTraitsCRT@D@ATL@@@@@ATL@@QAE@XZ
  0000c	8d 4e 14	 lea	 ecx, DWORD PTR [esi+20]
  0000f	e8 00 00 00 00	 call	 ??1CStringArray@@UAE@XZ	; CStringArray::~CStringArray
  00014	8d 4e 10	 lea	 ecx, DWORD PTR [esi+16]
  00017	ff 15 00 00 00
	00		 call	 DWORD PTR __imp_??1?$CStringT@DV?$StrTraitMFC_DLL@DV?$ChTraitsCRT@D@ATL@@@@@ATL@@QAE@XZ
  0001d	8d 4e 08	 lea	 ecx, DWORD PTR [esi+8]
  00020	ff 15 00 00 00
	00		 call	 DWORD PTR __imp_??1?$CStringT@DV?$StrTraitMFC_DLL@DV?$ChTraitsCRT@D@ATL@@@@@ATL@@QAE@XZ
  00026	8b ce		 mov	 ecx, esi
  00028	5e		 pop	 esi
  00029	ff 25 00 00 00
	00		 jmp	 DWORD PTR __imp_??1?$CStringT@DV?$StrTraitMFC_DLL@DV?$ChTraitsCRT@D@ATL@@@@@ATL@@QAE@XZ
??1stAddinSTRun@@QAE@XZ ENDP				; stAddinSTRun::~stAddinSTRun
_TEXT	ENDS
; Function compile flags: /Ogtp
; File C:\Program Files (x86)\Microsoft Visual Studio\2019\Community\VC\Tools\MSVC\14.29.30133\atlmfc\include\atlcomcli.h
;	COMDAT ??_Estringdispid@CComTypeInfoHolder@ATL@@QAEPAXI@Z
_TEXT	SEGMENT
__$EHRec$ = -12						; size = 12
___flags$ = 8						; size = 4
??_Estringdispid@CComTypeInfoHolder@ATL@@QAEPAXI@Z PROC	; ATL::CComTypeInfoHolder::stringdispid::`vector deleting destructor', COMDAT
; _this$ = ecx
  00000	55		 push	 ebp
  00001	8b ec		 mov	 ebp, esp
  00003	6a ff		 push	 -1
  00005	68 00 00 00 00	 push	 __ehhandler$??_Estringdispid@CComTypeInfoHolder@ATL@@QAEPAXI@Z
  0000a	64 a1 00 00 00
	00		 mov	 eax, DWORD PTR fs:0
  00010	50		 push	 eax
  00011	53		 push	 ebx
  00012	56		 push	 esi
  00013	57		 push	 edi
  00014	a1 00 00 00 00	 mov	 eax, DWORD PTR ___security_cookie
  00019	33 c5		 xor	 eax, ebp
  0001b	50		 push	 eax
  0001c	8d 45 f4	 lea	 eax, DWORD PTR __$EHRec$[ebp]
  0001f	64 a3 00 00 00
	00		 mov	 DWORD PTR fs:0, eax
  00025	8b f1		 mov	 esi, ecx
  00027	8b 45 08	 mov	 eax, DWORD PTR ___flags$[ebp]
  0002a	8b d8		 mov	 ebx, eax
  0002c	83 e3 01	 and	 ebx, 1
  0002f	a8 02		 test	 al, 2
  00031	74 43		 je	 SHORT $LN2@vector
  00033	68 00 00 00 00	 push	 OFFSET ??1stringdispid@CComTypeInfoHolder@ATL@@QAE@XZ
  00038	ff 76 fc	 push	 DWORD PTR [esi-4]
  0003b	8d 7e fc	 lea	 edi, DWORD PTR [esi-4]
  0003e	6a 0c		 push	 12			; 0000000cH
  00040	56		 push	 esi
  00041	e8 00 00 00 00	 call	 ??_M@YGXPAXIIP6EX0@Z@Z
  00046	85 db		 test	 ebx, ebx
  00048	74 16		 je	 SHORT $LN3@vector
  0004a	8b 0f		 mov	 ecx, DWORD PTR [edi]
  0004c	8d 0c 49	 lea	 ecx, DWORD PTR [ecx+ecx*2]
  0004f	8d 0c 8d 04 00
	00 00		 lea	 ecx, DWORD PTR [ecx*4+4]
  00056	51		 push	 ecx
  00057	57		 push	 edi
  00058	e8 00 00 00 00	 call	 ??_V@YAXPAXI@Z		; operator delete[]
  0005d	83 c4 08	 add	 esp, 8
$LN3@vector:
  00060	8b c7		 mov	 eax, edi
  00062	8b 4d f4	 mov	 ecx, DWORD PTR __$EHRec$[ebp]
  00065	64 89 0d 00 00
	00 00		 mov	 DWORD PTR fs:0, ecx
  0006c	59		 pop	 ecx
  0006d	5f		 pop	 edi
  0006e	5e		 pop	 esi
  0006f	5b		 pop	 ebx
  00070	8b e5		 mov	 esp, ebp
  00072	5d		 pop	 ebp
  00073	c2 04 00	 ret	 4
$LN2@vector:

; 1680 :     ::SysFreeString(m_str);

  00076	ff 36		 push	 DWORD PTR [esi]
  00078	ff 15 00 00 00
	00		 call	 DWORD PTR __imp__SysFreeString@4
  0007e	85 db		 test	 ebx, ebx
  00080	74 0b		 je	 SHORT $LN4@vector
  00082	6a 0c		 push	 12			; 0000000cH
  00084	56		 push	 esi
  00085	e8 00 00 00 00	 call	 ??3@YAXPAXI@Z		; operator delete
  0008a	83 c4 08	 add	 esp, 8
$LN4@vector:
  0008d	8b c6		 mov	 eax, esi
  0008f	8b 4d f4	 mov	 ecx, DWORD PTR __$EHRec$[ebp]
  00092	64 89 0d 00 00
	00 00		 mov	 DWORD PTR fs:0, ecx
  00099	59		 pop	 ecx
  0009a	5f		 pop	 edi
  0009b	5e		 pop	 esi
  0009c	5b		 pop	 ebx
  0009d	8b e5		 mov	 esp, ebp
  0009f	5d		 pop	 ebp
  000a0	c2 04 00	 ret	 4
  000a3	cc		 int	 3
  000a4	cc		 int	 3
  000a5	cc		 int	 3
  000a6	cc		 int	 3
  000a7	cc		 int	 3
_TEXT	ENDS
;	COMDAT text$x
text$x	SEGMENT
__ehhandler$??_Estringdispid@CComTypeInfoHolder@ATL@@QAEPAXI@Z:
  00000	90		 npad	 1
  00001	90		 npad	 1
  00002	8b 54 24 08	 mov	 edx, DWORD PTR [esp+8]
  00006	8d 42 0c	 lea	 eax, DWORD PTR [edx+12]
  00009	8b 4a f0	 mov	 ecx, DWORD PTR [edx-16]
  0000c	33 c8		 xor	 ecx, eax
  0000e	e8 00 00 00 00	 call	 @__security_check_cookie@4
  00013	b8 00 00 00 00	 mov	 eax, OFFSET __ehfuncinfo$??_Estringdispid@CComTypeInfoHolder@ATL@@QAEPAXI@Z
  00018	e9 00 00 00 00	 jmp	 ___CxxFrameHandler3
text$x	ENDS
??_Estringdispid@CComTypeInfoHolder@ATL@@QAEPAXI@Z ENDP	; ATL::CComTypeInfoHolder::stringdispid::`vector deleting destructor'
; Function compile flags: /Ogtp
; File C:\Program Files (x86)\Microsoft Visual Studio\2019\Community\VC\Tools\MSVC\14.29.30133\atlmfc\include\atlcomcli.h
;	COMDAT ??1stringdispid@CComTypeInfoHolder@ATL@@QAE@XZ
_TEXT	SEGMENT
??1stringdispid@CComTypeInfoHolder@ATL@@QAE@XZ PROC	; ATL::CComTypeInfoHolder::stringdispid::~stringdispid, COMDAT
; _this$ = ecx

; 1680 :     ::SysFreeString(m_str);

  00000	ff 31		 push	 DWORD PTR [ecx]
  00002	ff 15 00 00 00
	00		 call	 DWORD PTR __imp__SysFreeString@4
  00008	c3		 ret	 0
??1stringdispid@CComTypeInfoHolder@ATL@@QAE@XZ ENDP	; ATL::CComTypeInfoHolder::stringdispid::~stringdispid
_TEXT	ENDS
; Function compile flags: /Ogtp
; File D:\git\src\IBK\IBK_DRFN\ProjSrc\SrcDrfn\Chart\chart_common\ReplayChartInfoDef.h
;	COMDAT ??__ERMSG_REPLAY_TOTAL_SEC@@YAXXZ
text$di	SEGMENT
??__ERMSG_REPLAY_TOTAL_SEC@@YAXXZ PROC			; `dynamic initializer for 'RMSG_REPLAY_TOTAL_SEC'', COMDAT

; 97   : 	const UINT RMSG_REPLAY_TOTAL_SEC = ::RegisterWindowMessage(_T("RMSG_REPLAY_TOTAL_SEC"));		//  () 

  00000	68 00 00 00 00	 push	 OFFSET ??_C@_0BG@GIAJEIJF@RMSG_REPLAY_TOTAL_SEC@
  00005	ff 15 00 00 00
	00		 call	 DWORD PTR __imp__RegisterWindowMessageA@4
  0000b	a3 00 00 00 00	 mov	 DWORD PTR ?RMSG_REPLAY_TOTAL_SEC@@3IB, eax
  00010	c3		 ret	 0
??__ERMSG_REPLAY_TOTAL_SEC@@YAXXZ ENDP			; `dynamic initializer for 'RMSG_REPLAY_TOTAL_SEC''
text$di	ENDS
; Function compile flags: /Ogtp
; File D:\git\src\IBK\IBK_DRFN\ProjSrc\SrcDrfn\Chart\chart_common\ReplayChartInfoDef.h
;	COMDAT ??__ERMSG_REPLAY_INC_SEC@@YAXXZ
text$di	SEGMENT
??__ERMSG_REPLAY_INC_SEC@@YAXXZ PROC			; `dynamic initializer for 'RMSG_REPLAY_INC_SEC'', COMDAT

; 96   : 	const UINT RMSG_REPLAY_INC_SEC = ::RegisterWindowMessage(_T("RMSG_REPLAY_INC_SEC"));			// 1   

  00000	68 00 00 00 00	 push	 OFFSET ??_C@_0BE@JFCIMCIP@RMSG_REPLAY_INC_SEC@
  00005	ff 15 00 00 00
	00		 call	 DWORD PTR __imp__RegisterWindowMessageA@4
  0000b	a3 00 00 00 00	 mov	 DWORD PTR ?RMSG_REPLAY_INC_SEC@@3IB, eax
  00010	c3		 ret	 0
??__ERMSG_REPLAY_INC_SEC@@YAXXZ ENDP			; `dynamic initializer for 'RMSG_REPLAY_INC_SEC''
text$di	ENDS
; Function compile flags: /Ogtp
; File D:\git\src\IBK\IBK_DRFN\ProjSrc\SrcDrfn\Chart\chart_common\ReplayChartInfoDef.h
;	COMDAT ??__ERMSG_REPLAY_END@@YAXXZ
text$di	SEGMENT
??__ERMSG_REPLAY_END@@YAXXZ PROC			; `dynamic initializer for 'RMSG_REPLAY_END'', COMDAT

; 95   : 	const UINT RMSG_REPLAY_END			= ::RegisterWindowMessage(_T("RMSG_REPLAY_END"));

  00000	68 00 00 00 00	 push	 OFFSET ??_C@_0BA@NKHHCPON@RMSG_REPLAY_END@
  00005	ff 15 00 00 00
	00		 call	 DWORD PTR __imp__RegisterWindowMessageA@4
  0000b	a3 00 00 00 00	 mov	 DWORD PTR ?RMSG_REPLAY_END@@3IB, eax
  00010	c3		 ret	 0
??__ERMSG_REPLAY_END@@YAXXZ ENDP			; `dynamic initializer for 'RMSG_REPLAY_END''
text$di	ENDS
; Function compile flags: /Ogtp
; File D:\git\src\IBK\IBK_DRFN\ProjSrc\SrcDrfn\Chart\chart_common\ReplayChartInfoDef.h
;	COMDAT ??__ERMSG_REPLAY_CHANGE_DATE@@YAXXZ
text$di	SEGMENT
??__ERMSG_REPLAY_CHANGE_DATE@@YAXXZ PROC		; `dynamic initializer for 'RMSG_REPLAY_CHANGE_DATE'', COMDAT

; 94   : 	const UINT RMSG_REPLAY_CHANGE_DATE	= ::RegisterWindowMessage(_T("RMSG_REPLAY_CHANGE_DATE"));

  00000	68 00 00 00 00	 push	 OFFSET ??_C@_0BI@KDGAIIMD@RMSG_REPLAY_CHANGE_DATE@
  00005	ff 15 00 00 00
	00		 call	 DWORD PTR __imp__RegisterWindowMessageA@4
  0000b	a3 00 00 00 00	 mov	 DWORD PTR ?RMSG_REPLAY_CHANGE_DATE@@3IB, eax
  00010	c3		 ret	 0
??__ERMSG_REPLAY_CHANGE_DATE@@YAXXZ ENDP		; `dynamic initializer for 'RMSG_REPLAY_CHANGE_DATE''
text$di	ENDS
; Function compile flags: /Ogtp
; File D:\git\src\IBK\IBK_DRFN\ProjSrc\SrcDrfn\Chart\chart_common\ReplayChartInfoDef.h
;	COMDAT ??__ERMSG_REPLAY_FAIL@@YAXXZ
text$di	SEGMENT
??__ERMSG_REPLAY_FAIL@@YAXXZ PROC			; `dynamic initializer for 'RMSG_REPLAY_FAIL'', COMDAT

; 93   : 	const UINT RMSG_REPLAY_FAIL			= ::RegisterWindowMessage(_T("RMSG_REPLAY_FAIL"));

  00000	68 00 00 00 00	 push	 OFFSET ??_C@_0BB@JFLGBADG@RMSG_REPLAY_FAIL@
  00005	ff 15 00 00 00
	00		 call	 DWORD PTR __imp__RegisterWindowMessageA@4
  0000b	a3 00 00 00 00	 mov	 DWORD PTR ?RMSG_REPLAY_FAIL@@3IB, eax
  00010	c3		 ret	 0
??__ERMSG_REPLAY_FAIL@@YAXXZ ENDP			; `dynamic initializer for 'RMSG_REPLAY_FAIL''
text$di	ENDS
; Function compile flags: /Ogtp
; File D:\git\src\IBK\IBK_DRFN\ProjSrc\SrcDrfn\Chart\chart_common\ReplayChartInfoDef.h
;	COMDAT ??__ERMSG_REPLAY_REAL@@YAXXZ
text$di	SEGMENT
??__ERMSG_REPLAY_REAL@@YAXXZ PROC			; `dynamic initializer for 'RMSG_REPLAY_REAL'', COMDAT

; 92   : 	const UINT RMSG_REPLAY_REAL			= ::RegisterWindowMessage(_T("RMSG_REPLAY_REAL"));

  00000	68 00 00 00 00	 push	 OFFSET ??_C@_0BB@IBKHOHJL@RMSG_REPLAY_REAL@
  00005	ff 15 00 00 00
	00		 call	 DWORD PTR __imp__RegisterWindowMessageA@4
  0000b	a3 00 00 00 00	 mov	 DWORD PTR ?RMSG_REPLAY_REAL@@3IB, eax
  00010	c3		 ret	 0
??__ERMSG_REPLAY_REAL@@YAXXZ ENDP			; `dynamic initializer for 'RMSG_REPLAY_REAL''
text$di	ENDS
; Function compile flags: /Ogtp
; File C:\Program Files (x86)\Microsoft Visual Studio\2019\Community\VC\Tools\MSVC\14.29.30133\atlmfc\include\afx.inl
;	COMDAT ??_GCTabSystemTradingEx@@UAEPAXI@Z
_TEXT	SEGMENT
___flags$ = 8						; size = 4
??_GCTabSystemTradingEx@@UAEPAXI@Z PROC			; CTabSystemTradingEx::`scalar deleting destructor', COMDAT
; _this$ = ecx
  00000	55		 push	 ebp
  00001	8b ec		 mov	 ebp, esp
  00003	56		 push	 esi
  00004	8b f1		 mov	 esi, ecx
  00006	e8 00 00 00 00	 call	 ??1CTabSystemTradingEx@@UAE@XZ ; CTabSystemTradingEx::~CTabSystemTradingEx
  0000b	8b 45 08	 mov	 eax, DWORD PTR ___flags$[ebp]
  0000e	a8 01		 test	 al, 1
  00010	74 22		 je	 SHORT $LN9@scalar
  00012	a8 04		 test	 al, 4
  00014	75 10		 jne	 SHORT $LN3@scalar

; 112  : 	{ ::operator delete(p); }

  00016	56		 push	 esi
  00017	e8 00 00 00 00	 call	 ??3@YAXPAX@Z		; operator delete
  0001c	83 c4 04	 add	 esp, 4
  0001f	8b c6		 mov	 eax, esi
  00021	5e		 pop	 esi
  00022	5d		 pop	 ebp
  00023	c2 04 00	 ret	 4
$LN3@scalar:
  00026	68 d8 09 00 00	 push	 2520			; 000009d8H
  0002b	56		 push	 esi
  0002c	e8 00 00 00 00	 call	 ?__global_delete@@YAXPAXI@Z ; __global_delete
  00031	83 c4 08	 add	 esp, 8
$LN9@scalar:
  00034	8b c6		 mov	 eax, esi
  00036	5e		 pop	 esi
  00037	5d		 pop	 ebp
  00038	c2 04 00	 ret	 4
??_GCTabSystemTradingEx@@UAEPAXI@Z ENDP			; CTabSystemTradingEx::`scalar deleting destructor'
_TEXT	ENDS
; Function compile flags: /Ogtp
; File D:\git\src\IBK\IBK_DRFN\ProjSrc\SrcDrfn\Chart\MULTICHART\TabSystemTradingEx.cpp
;	COMDAT ?GetHwndScreenView@CSTDlgConfirmSendJumun@CTabSystemTradingEx@@EAGPAUHWND__@@XZ
_TEXT	SEGMENT
_this$ = 8						; size = 4
?GetHwndScreenView@CSTDlgConfirmSendJumun@CTabSystemTradingEx@@EAGPAUHWND__@@XZ PROC ; CTabSystemTradingEx::CSTDlgConfirmSendJumun::GetHwndScreenView, COMDAT

; 2307 : {

  00000	55		 push	 ebp
  00001	8b ec		 mov	 ebp, esp

; 2308 : 	MYMETHOD_PROLOGUE(CTabSystemTradingEx, STDlgConfirmSendJumun)
; 2309 : 
; 2310 : 	AfxMessageBox("[GetHwndScreenView]Solomon"); //@Solomon-091015

  00003	6a 00		 push	 0
  00005	6a 00		 push	 0
  00007	68 00 00 00 00	 push	 OFFSET ??_C@_0CD@CEOFIHIE@?$FLGetHwndScreenView?$FNSolomon?$LM?v?A?$KE?G@
  0000c	e8 00 00 00 00	 call	 ?AfxMessageBox@@YGHPBDII@Z ; AfxMessageBox

; 2311 : 
; 2312 : 	return ((CStdDialog*)pThis->m_pMultiChartWnd)->m_hViewInMain;

  00011	8b 45 08	 mov	 eax, DWORD PTR _this$[ebp]
  00014	8b 80 f0 f6 ff
	ff		 mov	 eax, DWORD PTR [eax-2320]
  0001a	8b 80 08 08 00
	00		 mov	 eax, DWORD PTR [eax+2056]

; 2313 : }

  00020	5d		 pop	 ebp
  00021	c2 04 00	 ret	 4
?GetHwndScreenView@CSTDlgConfirmSendJumun@CTabSystemTradingEx@@EAGPAUHWND__@@XZ ENDP ; CTabSystemTradingEx::CSTDlgConfirmSendJumun::GetHwndScreenView
_TEXT	ENDS
; Function compile flags: /Ogtp
; File D:\git\src\IBK\IBK_DRFN\ProjSrc\SrcDrfn\Chart\MULTICHART\TabSystemTradingEx.cpp
;	COMDAT ?GetParent@CSTDlgConfirmSendJumun@CTabSystemTradingEx@@EAGPAVCWnd@@XZ
_TEXT	SEGMENT
_this$ = 8						; size = 4
?GetParent@CSTDlgConfirmSendJumun@CTabSystemTradingEx@@EAGPAVCWnd@@XZ PROC ; CTabSystemTradingEx::CSTDlgConfirmSendJumun::GetParent, COMDAT

; 2300 : {

  00000	55		 push	 ebp
  00001	8b ec		 mov	 ebp, esp

; 2301 : 	MYMETHOD_PROLOGUE(CTabSystemTradingEx, STDlgConfirmSendJumun)

  00003	8b 45 08	 mov	 eax, DWORD PTR _this$[ebp]
  00006	05 30 f6 ff ff	 add	 eax, -2512		; fffff630H

; 2302 : 
; 2303 : 	return (CWnd*)pThis;
; 2304 : }

  0000b	5d		 pop	 ebp
  0000c	c2 04 00	 ret	 4
?GetParent@CSTDlgConfirmSendJumun@CTabSystemTradingEx@@EAGPAVCWnd@@XZ ENDP ; CTabSystemTradingEx::CSTDlgConfirmSendJumun::GetParent
_TEXT	ENDS
; Function compile flags: /Ogtp
; File C:\Program Files (x86)\Microsoft Visual Studio\2019\Community\VC\Tools\MSVC\14.29.30133\atlmfc\include\afxtempl.h
; File C:\Program Files (x86)\Microsoft Visual Studio\2019\Community\VC\Tools\MSVC\14.29.30133\atlmfc\include\afx.inl
;	COMDAT ??_G?$CMap@PAVCConfirmWnd@@PAV1@JJ@@UAEPAXI@Z
_TEXT	SEGMENT
__$EHRec$ = -12						; size = 12
___flags$ = 8						; size = 4
??_G?$CMap@PAVCConfirmWnd@@PAV1@JJ@@UAEPAXI@Z PROC	; CMap<CConfirmWnd *,CConfirmWnd *,long,long>::`scalar deleting destructor', COMDAT
; _this$ = ecx
  00000	55		 push	 ebp
  00001	8b ec		 mov	 ebp, esp
  00003	6a ff		 push	 -1
  00005	68 00 00 00 00	 push	 __ehhandler$??_G?$CMap@PAVCConfirmWnd@@PAV1@JJ@@UAEPAXI@Z
  0000a	64 a1 00 00 00
	00		 mov	 eax, DWORD PTR fs:0
  00010	50		 push	 eax
  00011	56		 push	 esi
  00012	a1 00 00 00 00	 mov	 eax, DWORD PTR ___security_cookie
  00017	33 c5		 xor	 eax, ebp
  00019	50		 push	 eax
  0001a	8d 45 f4	 lea	 eax, DWORD PTR __$EHRec$[ebp]
  0001d	64 a3 00 00 00
	00		 mov	 DWORD PTR fs:0, eax
  00023	8b f1		 mov	 esi, ecx
; File C:\Program Files (x86)\Microsoft Visual Studio\2019\Community\VC\Tools\MSVC\14.29.30133\atlmfc\include\afxtempl.h

; 1446 : 	if (m_pHashTable != NULL)

  00025	8b 46 04	 mov	 eax, DWORD PTR [esi+4]

; 1472 : {

  00028	c7 45 fc 00 00
	00 00		 mov	 DWORD PTR __$EHRec$[ebp+8], 0
  0002f	c7 06 00 00 00
	00		 mov	 DWORD PTR [esi], OFFSET ??_7?$CMap@PAVCConfirmWnd@@PAV1@JJ@@6B@

; 1446 : 	if (m_pHashTable != NULL)

  00035	85 c0		 test	 eax, eax
  00037	74 10		 je	 SHORT $LN17@scalar

; 1447 : 	{
; 1448 : 		// destroy elements (values and keys)
; 1449 : 		for (UINT nHash = 0; nHash < m_nHashTableSize; nHash++)
; 1450 : 		{
; 1451 : 			CAssoc* pAssoc;
; 1452 : 			for (pAssoc = m_pHashTable[nHash]; pAssoc != NULL;
; 1453 : 			  pAssoc = pAssoc->pNext)
; 1454 : 			{
; 1455 : 				pAssoc->CAssoc::~CAssoc();
; 1456 : 			}
; 1457 : 		}
; 1458 : 
; 1459 : 		// free hash table
; 1460 : 		delete[] m_pHashTable;

  00039	50		 push	 eax
  0003a	e8 00 00 00 00	 call	 ??_V@YAXPAX@Z		; operator delete[]
  0003f	83 c4 04	 add	 esp, 4

; 1461 : 		m_pHashTable = NULL;

  00042	c7 46 04 00 00
	00 00		 mov	 DWORD PTR [esi+4], 0
$LN17@scalar:

; 1462 : 	}
; 1463 : 
; 1464 : 	m_nCount = 0;
; 1465 : 	m_pFreeList = NULL;
; 1466 : 	m_pBlocks->FreeDataChain();

  00049	8b 4e 14	 mov	 ecx, DWORD PTR [esi+20]
  0004c	c7 46 0c 00 00
	00 00		 mov	 DWORD PTR [esi+12], 0
  00053	c7 46 10 00 00
	00 00		 mov	 DWORD PTR [esi+16], 0
  0005a	e8 00 00 00 00	 call	 ?FreeDataChain@CPlex@@QAEXXZ ; CPlex::FreeDataChain

; 1467 : 	m_pBlocks = NULL;

  0005f	8b 45 08	 mov	 eax, DWORD PTR ___flags$[ebp]
  00062	c7 46 14 00 00
	00 00		 mov	 DWORD PTR [esi+20], 0
  00069	a8 01		 test	 al, 1
  0006b	74 2c		 je	 SHORT $LN31@scalar
  0006d	a8 04		 test	 al, 4
  0006f	75 1d		 jne	 SHORT $LN3@scalar
; File C:\Program Files (x86)\Microsoft Visual Studio\2019\Community\VC\Tools\MSVC\14.29.30133\atlmfc\include\afx.inl

; 112  : 	{ ::operator delete(p); }

  00071	56		 push	 esi
  00072	e8 00 00 00 00	 call	 ??3@YAXPAX@Z		; operator delete
  00077	83 c4 04	 add	 esp, 4
  0007a	8b c6		 mov	 eax, esi
  0007c	8b 4d f4	 mov	 ecx, DWORD PTR __$EHRec$[ebp]
  0007f	64 89 0d 00 00
	00 00		 mov	 DWORD PTR fs:0, ecx
  00086	59		 pop	 ecx
  00087	5e		 pop	 esi
  00088	8b e5		 mov	 esp, ebp
  0008a	5d		 pop	 ebp
  0008b	c2 04 00	 ret	 4
$LN3@scalar:
  0008e	6a 1c		 push	 28			; 0000001cH
  00090	56		 push	 esi
  00091	e8 00 00 00 00	 call	 ?__global_delete@@YAXPAXI@Z ; __global_delete
  00096	83 c4 08	 add	 esp, 8
$LN31@scalar:
  00099	8b c6		 mov	 eax, esi
  0009b	8b 4d f4	 mov	 ecx, DWORD PTR __$EHRec$[ebp]
  0009e	64 89 0d 00 00
	00 00		 mov	 DWORD PTR fs:0, ecx
  000a5	59		 pop	 ecx
  000a6	5e		 pop	 esi
  000a7	8b e5		 mov	 esp, ebp
  000a9	5d		 pop	 ebp
  000aa	c2 04 00	 ret	 4
  000ad	cc		 int	 3
  000ae	cc		 int	 3
  000af	cc		 int	 3
  000b0	cc		 int	 3
  000b1	cc		 int	 3
_TEXT	ENDS
;	COMDAT text$x
text$x	SEGMENT
__ehhandler$??_G?$CMap@PAVCConfirmWnd@@PAV1@JJ@@UAEPAXI@Z:
  00000	90		 npad	 1
  00001	90		 npad	 1
  00002	8b 54 24 08	 mov	 edx, DWORD PTR [esp+8]
  00006	8d 42 0c	 lea	 eax, DWORD PTR [edx+12]
  00009	8b 4a f8	 mov	 ecx, DWORD PTR [edx-8]
  0000c	33 c8		 xor	 ecx, eax
  0000e	e8 00 00 00 00	 call	 @__security_check_cookie@4
  00013	b8 00 00 00 00	 mov	 eax, OFFSET __ehfuncinfo$??_G?$CMap@PAVCConfirmWnd@@PAV1@JJ@@UAEPAXI@Z
  00018	e9 00 00 00 00	 jmp	 ___CxxFrameHandler3
text$x	ENDS
??_G?$CMap@PAVCConfirmWnd@@PAV1@JJ@@UAEPAXI@Z ENDP	; CMap<CConfirmWnd *,CConfirmWnd *,long,long>::`scalar deleting destructor'
; Function compile flags: /Ogtp
; File C:\Program Files (x86)\Microsoft Visual Studio\2019\Community\VC\Tools\MSVC\14.29.30133\atlmfc\include\afxtempl.h
; File C:\Program Files (x86)\Microsoft Visual Studio\2019\Community\VC\Tools\MSVC\14.29.30133\atlmfc\include\afx.inl
; File C:\Program Files (x86)\Microsoft Visual Studio\2019\Community\VC\Tools\MSVC\14.29.30133\atlmfc\include\afxtempl.h
; File C:\Program Files (x86)\Microsoft Visual Studio\2019\Community\VC\Tools\MSVC\14.29.30133\atlmfc\include\afx.inl
; File C:\Program Files (x86)\Microsoft Visual Studio\2019\Community\VC\Tools\MSVC\14.29.30133\atlmfc\include\afxtempl.h
; File C:\Program Files (x86)\Microsoft Visual Studio\2019\Community\VC\Tools\MSVC\14.29.30133\atlmfc\include\afx.inl
; File C:\Program Files (x86)\Microsoft Visual Studio\2019\Community\VC\Tools\MSVC\14.29.30133\atlmfc\include\afxtempl.h
; File C:\Program Files (x86)\Microsoft Visual Studio\2019\Community\VC\Tools\MSVC\14.29.30133\atlmfc\include\afx.inl
; File C:\Program Files (x86)\Microsoft Visual Studio\2019\Community\VC\Tools\MSVC\14.29.30133\atlmfc\include\afxtempl.h
; File C:\Program Files (x86)\Microsoft Visual Studio\2019\Community\VC\Tools\MSVC\14.29.30133\atlmfc\include\afx.inl
; File C:\Program Files (x86)\Microsoft Visual Studio\2019\Community\VC\Tools\MSVC\14.29.30133\atlmfc\include\afxtempl.h
; File C:\Program Files (x86)\Microsoft Visual Studio\2019\Community\VC\Tools\MSVC\14.29.30133\atlmfc\include\afx.inl
; File C:\Program Files (x86)\Microsoft Visual Studio\2019\Community\VC\Tools\MSVC\14.29.30133\atlmfc\include\afxtempl.h
; File C:\Program Files (x86)\Microsoft Visual Studio\2019\Community\VC\Tools\MSVC\14.29.30133\atlmfc\include\afx.inl
; File C:\Program Files (x86)\Microsoft Visual Studio\2019\Community\VC\Tools\MSVC\14.29.30133\atlmfc\include\afxtempl.h
; File C:\Program Files (x86)\Microsoft Visual Studio\2019\Community\VC\Tools\MSVC\14.29.30133\atlmfc\include\afx.inl
; File C:\Program Files (x86)\Microsoft Visual Studio\2019\Community\VC\Tools\MSVC\14.29.30133\atlmfc\include\afxtempl.h
; File C:\Program Files (x86)\Microsoft Visual Studio\2019\Community\VC\Tools\MSVC\14.29.30133\atlmfc\include\afx.inl
; File C:\Program Files (x86)\Microsoft Visual Studio\2019\Community\VC\Tools\MSVC\14.29.30133\atlmfc\include\afxtempl.h
; File C:\Program Files (x86)\Microsoft Visual Studio\2019\Community\VC\Tools\MSVC\14.29.30133\atlmfc\include\afx.inl
; File C:\Program Files (x86)\Microsoft Visual Studio\2019\Community\VC\Tools\MSVC\14.29.30133\atlmfc\include\afxtempl.h
; File C:\Program Files (x86)\Microsoft Visual Studio\2019\Community\VC\Tools\MSVC\14.29.30133\atlmfc\include\afx.inl
; File C:\Program Files (x86)\Microsoft Visual Studio\2019\Community\VC\Tools\MSVC\14.29.30133\atlmfc\include\afxtempl.h
; File C:\Program Files (x86)\Microsoft Visual Studio\2019\Community\VC\Tools\MSVC\14.29.30133\atlmfc\include\afx.inl
; File C:\Program Files (x86)\Microsoft Visual Studio\2019\Community\VC\Tools\MSVC\14.29.30133\atlmfc\include\afxtempl.h
; File C:\Program Files (x86)\Microsoft Visual Studio\2019\Community\VC\Tools\MSVC\14.29.30133\atlmfc\include\afx.inl
; File C:\Program Files (x86)\Microsoft Visual Studio\2019\Community\VC\Tools\MSVC\14.29.30133\atlmfc\include\afxtempl.h
; File C:\Program Files (x86)\Microsoft Visual Studio\2019\Community\VC\Tools\MSVC\14.29.30133\atlmfc\include\afx.inl
; File C:\Program Files (x86)\Microsoft Visual Studio\2019\Community\VC\Tools\MSVC\14.29.30133\atlmfc\include\afxtempl.h
; File C:\Program Files (x86)\Microsoft Visual Studio\2019\Community\VC\Tools\MSVC\14.29.30133\atlmfc\include\afx.inl
; File C:\Program Files (x86)\Microsoft Visual Studio\2019\Community\VC\Tools\MSVC\14.29.30133\atlmfc\include\afxtempl.h
; File C:\Program Files (x86)\Microsoft Visual Studio\2019\Community\VC\Tools\MSVC\14.29.30133\atlmfc\include\afx.inl
; File C:\Program Files (x86)\Microsoft Visual Studio\2019\Community\VC\Tools\MSVC\14.29.30133\atlmfc\include\afxtempl.h
; File C:\Program Files (x86)\Microsoft Visual Studio\2019\Community\VC\Tools\MSVC\14.29.30133\atlmfc\include\afx.inl
; File C:\Program Files (x86)\Microsoft Visual Studio\2019\Community\VC\Tools\MSVC\14.29.30133\atlmfc\include\afxtempl.h
; File C:\Program Files (x86)\Microsoft Visual Studio\2019\Community\VC\Tools\MSVC\14.29.30133\atlmfc\include\afx.inl
; File C:\Program Files (x86)\Microsoft Visual Studio\2019\Community\VC\Tools\MSVC\14.29.30133\atlmfc\include\afxtempl.h
; File C:\Program Files (x86)\Microsoft Visual Studio\2019\Community\VC\Tools\MSVC\14.29.30133\atlmfc\include\afx.inl
; File C:\Program Files (x86)\Microsoft Visual Studio\2019\Community\VC\Tools\MSVC\14.29.30133\atlmfc\include\afxtempl.h
;	COMDAT ?Serialize@?$CMap@PAVCConfirmWnd@@PAV1@JJ@@UAEXAAVCArchive@@@Z
_TEXT	SEGMENT
_nHashBucket$1$ = -32					; size = 4
_nCount$1$ = -32					; size = 4
_nElementsToRead$1$ = -32				; size = 4
_nElementsToRead$1$ = -28				; size = 4
_pData$1$ = -28						; size = 4
_nCount$1$ = -28					; size = 4
_newValue$1$ = -28					; size = 4
_this$1$ = -24						; size = 4
_newKey$3 = -20						; size = 4
_newValue$4 = -16					; size = 4
_pData$1$ = -12						; size = 4
_pData$1$ = -12						; size = 4
_key$1$ = -12						; size = 4
_nHash$1$ = -12						; size = 4
_nNewCount$1$ = -8					; size = 4
_pAssoc$1$ = -8						; size = 4
_nElementsLeft$1$ = -4					; size = 4
_pData$1$ = -4						; size = 4
_pData$1$ = -4						; size = 4
_nHashSize$1$ = 8					; size = 4
_pData$1$ = 8						; size = 4
_nElementsLeft$1$ = 8					; size = 4
_pData$1$ = 8						; size = 4
_nElementsLeft$1$ = 8					; size = 4
_ar$ = 8						; size = 4
?Serialize@?$CMap@PAVCConfirmWnd@@PAV1@JJ@@UAEXAAVCArchive@@@Z PROC ; CMap<CConfirmWnd *,CConfirmWnd *,long,long>::Serialize, COMDAT
; _this$ = ecx

; 1743 : {

  00000	55		 push	 ebp
  00001	8b ec		 mov	 ebp, esp
  00003	83 ec 20	 sub	 esp, 32			; 00000020H
  00006	53		 push	 ebx
; File C:\Program Files (x86)\Microsoft Visual Studio\2019\Community\VC\Tools\MSVC\14.29.30133\atlmfc\include\afx.inl

; 212  : 	{ return (m_nMode & CArchive::load) == 0; }

  00007	8b 5d 08	 mov	 ebx, DWORD PTR _ar$[ebp]
; File C:\Program Files (x86)\Microsoft Visual Studio\2019\Community\VC\Tools\MSVC\14.29.30133\atlmfc\include\afxtempl.h

; 1743 : {

  0000a	56		 push	 esi
  0000b	8b f1		 mov	 esi, ecx

; 1748 : 	if (ar.IsStoring())

  0000d	8b cb		 mov	 ecx, ebx
  0000f	57		 push	 edi
; File C:\Program Files (x86)\Microsoft Visual Studio\2019\Community\VC\Tools\MSVC\14.29.30133\atlmfc\include\afx.inl

; 212  : 	{ return (m_nMode & CArchive::load) == 0; }

  00010	8b 43 18	 mov	 eax, DWORD PTR [ebx+24]
  00013	f7 d0		 not	 eax
; File C:\Program Files (x86)\Microsoft Visual Studio\2019\Community\VC\Tools\MSVC\14.29.30133\atlmfc\include\afxtempl.h

; 1743 : {

  00015	89 75 e8	 mov	 DWORD PTR _this$1$[ebp], esi
; File C:\Program Files (x86)\Microsoft Visual Studio\2019\Community\VC\Tools\MSVC\14.29.30133\atlmfc\include\afx.inl

; 212  : 	{ return (m_nMode & CArchive::load) == 0; }

  00018	a8 01		 test	 al, 1
; File C:\Program Files (x86)\Microsoft Visual Studio\2019\Community\VC\Tools\MSVC\14.29.30133\atlmfc\include\afxtempl.h

; 1748 : 	if (ar.IsStoring())

  0001a	0f 84 71 01 00
	00		 je	 $LN10@Serialize

; 1749 : 	{
; 1750 : 		ar.WriteCount(m_nCount);

  00020	ff 76 0c	 push	 DWORD PTR [esi+12]
  00023	e8 00 00 00 00	 call	 ?WriteCount@CArchive@@QAEXK@Z ; CArchive::WriteCount

; 1751 : 		if (m_nCount == 0)

  00028	83 7e 0c 00	 cmp	 DWORD PTR [esi+12], 0
  0002c	0f 84 c9 03 00
	00		 je	 $LN189@Serialize

; 1752 : 			return;  // nothing more to do
; 1753 : 
; 1754 : 		ASSERT(m_pHashTable != NULL);
; 1755 : 		if (m_pHashTable != NULL)

  00032	83 7e 04 00	 cmp	 DWORD PTR [esi+4], 0
  00036	0f 84 bf 03 00
	00		 je	 $LN189@Serialize

; 1756 : 		{
; 1757 : 			for (UINT nHash = 0; nHash < m_nHashTableSize; nHash++)

  0003c	33 c9		 xor	 ecx, ecx
  0003e	89 4d f4	 mov	 DWORD PTR _nHash$1$[ebp], ecx
  00041	39 4e 08	 cmp	 DWORD PTR [esi+8], ecx
  00044	0f 86 b1 03 00
	00		 jbe	 $LN189@Serialize
  0004a	66 0f 1f 44 00
	00		 npad	 6
$LL4@Serialize:

; 1758 : 			{
; 1759 : 				CAssoc* pAssoc;
; 1760 : 				for (pAssoc = m_pHashTable[nHash]; pAssoc != NULL; pAssoc = pAssoc->pNext)

  00050	8b 46 04	 mov	 eax, DWORD PTR [esi+4]
  00053	8b 0c 88	 mov	 ecx, DWORD PTR [eax+ecx*4]
  00056	89 4d f8	 mov	 DWORD PTR _pAssoc$1$[ebp], ecx
  00059	85 c9		 test	 ecx, ecx
  0005b	0f 84 17 01 00
	00		 je	 $LN2@Serialize
$LL7@Serialize:
; File C:\Program Files (x86)\Microsoft Visual Studio\2019\Community\VC\Tools\MSVC\14.29.30133\atlmfc\include\afx.inl

; 212  : 	{ return (m_nMode & CArchive::load) == 0; }

  00061	8b 43 18	 mov	 eax, DWORD PTR [ebx+24]
; File C:\Program Files (x86)\Microsoft Visual Studio\2019\Community\VC\Tools\MSVC\14.29.30133\atlmfc\include\afxtempl.h

; 1770 : 					pValue = reinterpret_cast< VALUE* >( &reinterpret_cast< int& >( static_cast< VALUE& >( pAssoc->value ) ) );

  00064	8d 71 04	 lea	 esi, DWORD PTR [ecx+4]
; File C:\Program Files (x86)\Microsoft Visual Studio\2019\Community\VC\Tools\MSVC\14.29.30133\atlmfc\include\afx.inl

; 212  : 	{ return (m_nMode & CArchive::load) == 0; }

  00067	f7 d0		 not	 eax
; File C:\Program Files (x86)\Microsoft Visual Studio\2019\Community\VC\Tools\MSVC\14.29.30133\atlmfc\include\afxtempl.h

; 1770 : 					pValue = reinterpret_cast< VALUE* >( &reinterpret_cast< int& >( static_cast< VALUE& >( pAssoc->value ) ) );

  00069	89 75 e4	 mov	 DWORD PTR _pData$1$[ebp], esi

; 73   : 	if (ar.IsStoring())

  0006c	89 4d fc	 mov	 DWORD PTR _pData$1$[ebp], ecx
; File C:\Program Files (x86)\Microsoft Visual Studio\2019\Community\VC\Tools\MSVC\14.29.30133\atlmfc\include\afx.inl

; 212  : 	{ return (m_nMode & CArchive::load) == 0; }

  0006f	a8 01		 test	 al, 1
; File C:\Program Files (x86)\Microsoft Visual Studio\2019\Community\VC\Tools\MSVC\14.29.30133\atlmfc\include\afxtempl.h

; 73   : 	if (ar.IsStoring())

  00071	74 3c		 je	 SHORT $LN26@Serialize

; 74   : 	{
; 75   : 		TYPE* pData;
; 76   : 		UINT_PTR nElementsLeft;
; 77   : 
; 78   : 		nElementsLeft = nCount;

  00073	be 01 00 00 00	 mov	 esi, 1

; 79   : 		pData = pElements;

  00078	8b c1		 mov	 eax, ecx
  0007a	66 0f 1f 44 00
	00		 npad	 6
$LL21@Serialize:

; 85   : 			ar.Write(pData, nElementsToWrite*sizeof(TYPE));

  00080	8b 4d 08	 mov	 ecx, DWORD PTR _ar$[ebp]
  00083	bb ff ff ff 1f	 mov	 ebx, 536870911		; 1fffffffH
  00088	3b f3		 cmp	 esi, ebx
  0008a	0f 42 de	 cmovb	 ebx, esi
  0008d	8d 3c 9d 00 00
	00 00		 lea	 edi, DWORD PTR [ebx*4]
  00094	57		 push	 edi
  00095	50		 push	 eax
  00096	e8 00 00 00 00	 call	 ?Write@CArchive@@QAEXPBXI@Z ; CArchive::Write

; 87   : 			pData += nElementsToWrite;

  0009b	8b 45 fc	 mov	 eax, DWORD PTR _pData$1$[ebp]
  0009e	03 c7		 add	 eax, edi
  000a0	89 45 fc	 mov	 DWORD PTR _pData$1$[ebp], eax
  000a3	2b f3		 sub	 esi, ebx
  000a5	75 d9		 jne	 SHORT $LL21@Serialize
  000a7	8b 75 e4	 mov	 esi, DWORD PTR _pData$1$[ebp]

; 88   : 		}
; 89   : 	}

  000aa	8b 5d 08	 mov	 ebx, DWORD PTR _ar$[ebp]
  000ad	eb 3b		 jmp	 SHORT $LN41@Serialize
$LN26@Serialize:

; 90   : 	else
; 91   : 	{
; 92   : 		TYPE* pData;
; 93   : 		UINT_PTR nElementsLeft;
; 94   : 
; 95   : 		nElementsLeft = nCount;

  000af	bf 01 00 00 00	 mov	 edi, 1

; 96   : 		pData = pElements;

  000b4	8b d1		 mov	 edx, ecx
$LL23@Serialize:

; 101  : 			nElementsToRead = UINT(__min(nElementsLeft, INT_MAX/sizeof(TYPE)));

  000b6	b8 ff ff ff 1f	 mov	 eax, 536870911		; 1fffffffH
; File C:\Program Files (x86)\Microsoft Visual Studio\2019\Community\VC\Tools\MSVC\14.29.30133\atlmfc\include\afx.inl

; 399  : 	UINT nRead=Read(lpBuf, nCount);

  000bb	8b cb		 mov	 ecx, ebx
; File C:\Program Files (x86)\Microsoft Visual Studio\2019\Community\VC\Tools\MSVC\14.29.30133\atlmfc\include\afxtempl.h

; 101  : 			nElementsToRead = UINT(__min(nElementsLeft, INT_MAX/sizeof(TYPE)));

  000bd	3b f8		 cmp	 edi, eax
  000bf	0f 42 c7	 cmovb	 eax, edi
  000c2	89 45 e0	 mov	 DWORD PTR _nElementsToRead$1$[ebp], eax

; 102  : 			ar.EnsureRead(pData, nElementsToRead*sizeof(TYPE));

  000c5	c1 e0 02	 shl	 eax, 2
; File C:\Program Files (x86)\Microsoft Visual Studio\2019\Community\VC\Tools\MSVC\14.29.30133\atlmfc\include\afx.inl

; 399  : 	UINT nRead=Read(lpBuf, nCount);

  000c8	50		 push	 eax
  000c9	52		 push	 edx
; File C:\Program Files (x86)\Microsoft Visual Studio\2019\Community\VC\Tools\MSVC\14.29.30133\atlmfc\include\afxtempl.h

; 102  : 			ar.EnsureRead(pData, nElementsToRead*sizeof(TYPE));

  000ca	89 45 e4	 mov	 DWORD PTR _nCount$1$[ebp], eax
; File C:\Program Files (x86)\Microsoft Visual Studio\2019\Community\VC\Tools\MSVC\14.29.30133\atlmfc\include\afx.inl

; 399  : 	UINT nRead=Read(lpBuf, nCount);

  000cd	e8 00 00 00 00	 call	 ?Read@CArchive@@QAEIPAXI@Z ; CArchive::Read

; 400  : 	if(nRead!=nCount)

  000d2	8b 4d e4	 mov	 ecx, DWORD PTR _nCount$1$[ebp]
  000d5	3b c1		 cmp	 eax, ecx
  000d7	0f 85 2c 03 00
	00		 jne	 $LN165@Serialize
; File C:\Program Files (x86)\Microsoft Visual Studio\2019\Community\VC\Tools\MSVC\14.29.30133\atlmfc\include\afxtempl.h

; 104  : 			pData += nElementsToRead;

  000dd	8b 55 fc	 mov	 edx, DWORD PTR _pData$1$[ebp]
  000e0	03 d1		 add	 edx, ecx
  000e2	89 55 fc	 mov	 DWORD PTR _pData$1$[ebp], edx
  000e5	2b 7d e0	 sub	 edi, DWORD PTR _nElementsToRead$1$[ebp]
  000e8	75 cc		 jne	 SHORT $LL23@Serialize
$LN41@Serialize:

; 68   : 	ENSURE(nCount == 0 || pElements != NULL);

  000ea	85 f6		 test	 esi, esi
  000ec	0f 84 12 03 00
	00		 je	 $LN167@Serialize
; File C:\Program Files (x86)\Microsoft Visual Studio\2019\Community\VC\Tools\MSVC\14.29.30133\atlmfc\include\afx.inl

; 212  : 	{ return (m_nMode & CArchive::load) == 0; }

  000f2	8b 43 18	 mov	 eax, DWORD PTR [ebx+24]
  000f5	f7 d0		 not	 eax
  000f7	a8 01		 test	 al, 1
; File C:\Program Files (x86)\Microsoft Visual Studio\2019\Community\VC\Tools\MSVC\14.29.30133\atlmfc\include\afxtempl.h

; 73   : 	if (ar.IsStoring())

  000f9	74 36		 je	 SHORT $LN47@Serialize

; 74   : 	{
; 75   : 		TYPE* pData;
; 76   : 		UINT_PTR nElementsLeft;
; 77   : 
; 78   : 		nElementsLeft = nCount;

  000fb	b8 01 00 00 00	 mov	 eax, 1
  00100	89 45 fc	 mov	 DWORD PTR _nElementsLeft$1$[ebp], eax
$LL42@Serialize:

; 85   : 			ar.Write(pData, nElementsToWrite*sizeof(TYPE));

  00103	8b 4d 08	 mov	 ecx, DWORD PTR _ar$[ebp]
  00106	bb ff ff ff 1f	 mov	 ebx, 536870911		; 1fffffffH
  0010b	3b c3		 cmp	 eax, ebx
  0010d	0f 42 d8	 cmovb	 ebx, eax
  00110	8d 3c 9d 00 00
	00 00		 lea	 edi, DWORD PTR [ebx*4]
  00117	57		 push	 edi
  00118	56		 push	 esi
  00119	e8 00 00 00 00	 call	 ?Write@CArchive@@QAEXPBXI@Z ; CArchive::Write

; 86   : 			nElementsLeft -= nElementsToWrite;

  0011e	8b 45 fc	 mov	 eax, DWORD PTR _nElementsLeft$1$[ebp]

; 87   : 			pData += nElementsToWrite;

  00121	03 f7		 add	 esi, edi
  00123	2b c3		 sub	 eax, ebx
  00125	89 45 fc	 mov	 DWORD PTR _nElementsLeft$1$[ebp], eax
  00128	85 c0		 test	 eax, eax
  0012a	75 d7		 jne	 SHORT $LL42@Serialize

; 88   : 		}
; 89   : 	}

  0012c	8b 5d 08	 mov	 ebx, DWORD PTR _ar$[ebp]
  0012f	eb 33		 jmp	 SHORT $LN5@Serialize
$LN47@Serialize:

; 90   : 	else
; 91   : 	{
; 92   : 		TYPE* pData;
; 93   : 		UINT_PTR nElementsLeft;
; 94   : 
; 95   : 		nElementsLeft = nCount;

  00131	bf 01 00 00 00	 mov	 edi, 1
$LL44@Serialize:

; 101  : 			nElementsToRead = UINT(__min(nElementsLeft, INT_MAX/sizeof(TYPE)));

  00136	b8 ff ff ff 1f	 mov	 eax, 536870911		; 1fffffffH
; File C:\Program Files (x86)\Microsoft Visual Studio\2019\Community\VC\Tools\MSVC\14.29.30133\atlmfc\include\afx.inl

; 399  : 	UINT nRead=Read(lpBuf, nCount);

  0013b	8b cb		 mov	 ecx, ebx
; File C:\Program Files (x86)\Microsoft Visual Studio\2019\Community\VC\Tools\MSVC\14.29.30133\atlmfc\include\afxtempl.h

; 101  : 			nElementsToRead = UINT(__min(nElementsLeft, INT_MAX/sizeof(TYPE)));

  0013d	3b f8		 cmp	 edi, eax
  0013f	0f 42 c7	 cmovb	 eax, edi
  00142	89 45 e4	 mov	 DWORD PTR _nElementsToRead$1$[ebp], eax

; 102  : 			ar.EnsureRead(pData, nElementsToRead*sizeof(TYPE));

  00145	c1 e0 02	 shl	 eax, 2
; File C:\Program Files (x86)\Microsoft Visual Studio\2019\Community\VC\Tools\MSVC\14.29.30133\atlmfc\include\afx.inl

; 399  : 	UINT nRead=Read(lpBuf, nCount);

  00148	50		 push	 eax
  00149	56		 push	 esi
; File C:\Program Files (x86)\Microsoft Visual Studio\2019\Community\VC\Tools\MSVC\14.29.30133\atlmfc\include\afxtempl.h

; 102  : 			ar.EnsureRead(pData, nElementsToRead*sizeof(TYPE));

  0014a	89 45 e0	 mov	 DWORD PTR _nCount$1$[ebp], eax
; File C:\Program Files (x86)\Microsoft Visual Studio\2019\Community\VC\Tools\MSVC\14.29.30133\atlmfc\include\afx.inl

; 399  : 	UINT nRead=Read(lpBuf, nCount);

  0014d	e8 00 00 00 00	 call	 ?Read@CArchive@@QAEIPAXI@Z ; CArchive::Read

; 400  : 	if(nRead!=nCount)

  00152	8b 4d e0	 mov	 ecx, DWORD PTR _nCount$1$[ebp]
  00155	3b c1		 cmp	 eax, ecx
  00157	0f 85 ac 02 00
	00		 jne	 $LN165@Serialize
; File C:\Program Files (x86)\Microsoft Visual Studio\2019\Community\VC\Tools\MSVC\14.29.30133\atlmfc\include\afxtempl.h

; 103  : 			nElementsLeft -= nElementsToRead;

  0015d	03 f1		 add	 esi, ecx
  0015f	2b 7d e4	 sub	 edi, DWORD PTR _nElementsToRead$1$[ebp]
  00162	75 d2		 jne	 SHORT $LL44@Serialize
$LN5@Serialize:

; 1758 : 			{
; 1759 : 				CAssoc* pAssoc;
; 1760 : 				for (pAssoc = m_pHashTable[nHash]; pAssoc != NULL; pAssoc = pAssoc->pNext)

  00164	8b 4d f8	 mov	 ecx, DWORD PTR _pAssoc$1$[ebp]
  00167	8b 49 08	 mov	 ecx, DWORD PTR [ecx+8]
  0016a	89 4d f8	 mov	 DWORD PTR _pAssoc$1$[ebp], ecx
  0016d	85 c9		 test	 ecx, ecx
  0016f	0f 85 ec fe ff
	ff		 jne	 $LL7@Serialize
  00175	8b 75 e8	 mov	 esi, DWORD PTR _this$1$[ebp]
$LN2@Serialize:

; 1756 : 		{
; 1757 : 			for (UINT nHash = 0; nHash < m_nHashTableSize; nHash++)

  00178	8b 4d f4	 mov	 ecx, DWORD PTR _nHash$1$[ebp]
  0017b	41		 inc	 ecx
  0017c	89 4d f4	 mov	 DWORD PTR _nHash$1$[ebp], ecx
  0017f	3b 4e 08	 cmp	 ecx, DWORD PTR [esi+8]
  00182	0f 82 c8 fe ff
	ff		 jb	 $LL4@Serialize

; 1787 : 		}
; 1788 : 	}
; 1789 : }

  00188	5f		 pop	 edi
  00189	5e		 pop	 esi
  0018a	5b		 pop	 ebx
  0018b	8b e5		 mov	 esp, ebp
  0018d	5d		 pop	 ebp
  0018e	c2 04 00	 ret	 4
$LN10@Serialize:

; 1771 : 					SerializeElements<KEY>(ar, pKey, 1);
; 1772 : 					SerializeElements<VALUE>(ar, pValue, 1);
; 1773 : 				}
; 1774 : 			}
; 1775 : 		}
; 1776 : 	}
; 1777 : 	else
; 1778 : 	{
; 1779 : 		DWORD_PTR nNewCount = ar.ReadCount();

  00191	e8 00 00 00 00	 call	 ?ReadCount@CArchive@@QAEKXZ ; CArchive::ReadCount

; 1780 : 		while (nNewCount--)

  00196	85 c0		 test	 eax, eax
  00198	0f 84 5d 02 00
	00		 je	 $LN189@Serialize
  0019e	66 90		 npad	 2
$LL8@Serialize:
  001a0	48		 dec	 eax
  001a1	89 45 f8	 mov	 DWORD PTR _nNewCount$1$[ebp], eax
; File C:\Program Files (x86)\Microsoft Visual Studio\2019\Community\VC\Tools\MSVC\14.29.30133\atlmfc\include\afx.inl

; 212  : 	{ return (m_nMode & CArchive::load) == 0; }

  001a4	8b 43 18	 mov	 eax, DWORD PTR [ebx+24]
  001a7	f7 d0		 not	 eax
  001a9	a8 01		 test	 al, 1
; File C:\Program Files (x86)\Microsoft Visual Studio\2019\Community\VC\Tools\MSVC\14.29.30133\atlmfc\include\afxtempl.h

; 73   : 	if (ar.IsStoring())

  001ab	74 43		 je	 SHORT $LN67@Serialize

; 74   : 	{
; 75   : 		TYPE* pData;
; 76   : 		UINT_PTR nElementsLeft;
; 77   : 
; 78   : 		nElementsLeft = nCount;

  001ad	b8 01 00 00 00	 mov	 eax, 1

; 79   : 		pData = pElements;

  001b2	8d 4d ec	 lea	 ecx, DWORD PTR _newKey$3[ebp]
  001b5	89 45 08	 mov	 DWORD PTR _nElementsLeft$1$[ebp], eax
  001b8	89 4d f4	 mov	 DWORD PTR _pData$1$[ebp], ecx
  001bb	0f 1f 44 00 00	 npad	 5
$LL62@Serialize:

; 80   : 		while( nElementsLeft > 0 )
; 81   : 		{
; 82   : 			UINT nElementsToWrite;
; 83   : 
; 84   : 			nElementsToWrite = UINT(__min(nElementsLeft, INT_MAX/sizeof(TYPE)));

  001c0	bf ff ff ff 1f	 mov	 edi, 536870911		; 1fffffffH
  001c5	3b c7		 cmp	 eax, edi
  001c7	0f 42 f8	 cmovb	 edi, eax

; 85   : 			ar.Write(pData, nElementsToWrite*sizeof(TYPE));

  001ca	8d 34 bd 00 00
	00 00		 lea	 esi, DWORD PTR [edi*4]
  001d1	56		 push	 esi
  001d2	51		 push	 ecx
  001d3	8b cb		 mov	 ecx, ebx
  001d5	e8 00 00 00 00	 call	 ?Write@CArchive@@QAEXPBXI@Z ; CArchive::Write

; 86   : 			nElementsLeft -= nElementsToWrite;

  001da	8b 45 08	 mov	 eax, DWORD PTR _nElementsLeft$1$[ebp]

; 87   : 			pData += nElementsToWrite;

  001dd	8b 4d f4	 mov	 ecx, DWORD PTR _pData$1$[ebp]
  001e0	2b c7		 sub	 eax, edi
  001e2	03 ce		 add	 ecx, esi
  001e4	89 45 08	 mov	 DWORD PTR _nElementsLeft$1$[ebp], eax
  001e7	89 4d f4	 mov	 DWORD PTR _pData$1$[ebp], ecx
  001ea	85 c0		 test	 eax, eax
  001ec	75 d2		 jne	 SHORT $LL62@Serialize

; 88   : 		}
; 89   : 	}

  001ee	eb 45		 jmp	 SHORT $LN81@Serialize
$LN67@Serialize:

; 96   : 		pData = pElements;

  001f0	8d 55 ec	 lea	 edx, DWORD PTR _newKey$3[ebp]
  001f3	be 01 00 00 00	 mov	 esi, 1
  001f8	89 55 08	 mov	 DWORD PTR _pData$1$[ebp], edx
  001fb	0f 1f 44 00 00	 npad	 5
$LL64@Serialize:

; 101  : 			nElementsToRead = UINT(__min(nElementsLeft, INT_MAX/sizeof(TYPE)));

  00200	bf ff ff ff 1f	 mov	 edi, 536870911		; 1fffffffH
; File C:\Program Files (x86)\Microsoft Visual Studio\2019\Community\VC\Tools\MSVC\14.29.30133\atlmfc\include\afx.inl

; 399  : 	UINT nRead=Read(lpBuf, nCount);

  00205	8b cb		 mov	 ecx, ebx
; File C:\Program Files (x86)\Microsoft Visual Studio\2019\Community\VC\Tools\MSVC\14.29.30133\atlmfc\include\afxtempl.h

; 101  : 			nElementsToRead = UINT(__min(nElementsLeft, INT_MAX/sizeof(TYPE)));

  00207	3b f7		 cmp	 esi, edi
  00209	0f 42 fe	 cmovb	 edi, esi

; 102  : 			ar.EnsureRead(pData, nElementsToRead*sizeof(TYPE));

  0020c	8d 04 bd 00 00
	00 00		 lea	 eax, DWORD PTR [edi*4]
; File C:\Program Files (x86)\Microsoft Visual Studio\2019\Community\VC\Tools\MSVC\14.29.30133\atlmfc\include\afx.inl

; 399  : 	UINT nRead=Read(lpBuf, nCount);

  00213	50		 push	 eax
  00214	52		 push	 edx
  00215	e8 00 00 00 00	 call	 ?Read@CArchive@@QAEIPAXI@Z ; CArchive::Read

; 400  : 	if(nRead!=nCount)

  0021a	8d 0c bd 00 00
	00 00		 lea	 ecx, DWORD PTR [edi*4]
  00221	3b c1		 cmp	 eax, ecx
  00223	0f 85 e0 01 00
	00		 jne	 $LN165@Serialize
; File C:\Program Files (x86)\Microsoft Visual Studio\2019\Community\VC\Tools\MSVC\14.29.30133\atlmfc\include\afxtempl.h

; 104  : 			pData += nElementsToRead;

  00229	8b 55 08	 mov	 edx, DWORD PTR _pData$1$[ebp]
  0022c	03 d1		 add	 edx, ecx
  0022e	89 55 08	 mov	 DWORD PTR _pData$1$[ebp], edx
  00231	2b f7		 sub	 esi, edi
  00233	75 cb		 jne	 SHORT $LL64@Serialize
$LN81@Serialize:
; File C:\Program Files (x86)\Microsoft Visual Studio\2019\Community\VC\Tools\MSVC\14.29.30133\atlmfc\include\afx.inl

; 212  : 	{ return (m_nMode & CArchive::load) == 0; }

  00235	8b 43 18	 mov	 eax, DWORD PTR [ebx+24]
  00238	f7 d0		 not	 eax
  0023a	a8 01		 test	 al, 1
; File C:\Program Files (x86)\Microsoft Visual Studio\2019\Community\VC\Tools\MSVC\14.29.30133\atlmfc\include\afxtempl.h

; 73   : 	if (ar.IsStoring())

  0023c	74 42		 je	 SHORT $LN87@Serialize

; 74   : 	{
; 75   : 		TYPE* pData;
; 76   : 		UINT_PTR nElementsLeft;
; 77   : 
; 78   : 		nElementsLeft = nCount;

  0023e	b8 01 00 00 00	 mov	 eax, 1

; 79   : 		pData = pElements;

  00243	8d 4d f0	 lea	 ecx, DWORD PTR _newValue$4[ebp]
  00246	89 45 08	 mov	 DWORD PTR _nElementsLeft$1$[ebp], eax
  00249	89 4d f4	 mov	 DWORD PTR _pData$1$[ebp], ecx
  0024c	0f 1f 40 00	 npad	 4
$LL82@Serialize:

; 80   : 		while( nElementsLeft > 0 )
; 81   : 		{
; 82   : 			UINT nElementsToWrite;
; 83   : 
; 84   : 			nElementsToWrite = UINT(__min(nElementsLeft, INT_MAX/sizeof(TYPE)));

  00250	bf ff ff ff 1f	 mov	 edi, 536870911		; 1fffffffH
  00255	3b c7		 cmp	 eax, edi
  00257	0f 42 f8	 cmovb	 edi, eax

; 85   : 			ar.Write(pData, nElementsToWrite*sizeof(TYPE));

  0025a	8d 34 bd 00 00
	00 00		 lea	 esi, DWORD PTR [edi*4]
  00261	56		 push	 esi
  00262	51		 push	 ecx
  00263	8b cb		 mov	 ecx, ebx
  00265	e8 00 00 00 00	 call	 ?Write@CArchive@@QAEXPBXI@Z ; CArchive::Write

; 86   : 			nElementsLeft -= nElementsToWrite;

  0026a	8b 45 08	 mov	 eax, DWORD PTR _nElementsLeft$1$[ebp]

; 87   : 			pData += nElementsToWrite;

  0026d	8b 4d f4	 mov	 ecx, DWORD PTR _pData$1$[ebp]
  00270	2b c7		 sub	 eax, edi
  00272	03 ce		 add	 ecx, esi
  00274	89 45 08	 mov	 DWORD PTR _nElementsLeft$1$[ebp], eax
  00277	89 4d f4	 mov	 DWORD PTR _pData$1$[ebp], ecx
  0027a	85 c0		 test	 eax, eax
  0027c	75 d2		 jne	 SHORT $LL82@Serialize

; 88   : 		}
; 89   : 	}

  0027e	eb 45		 jmp	 SHORT $LN85@Serialize
$LN87@Serialize:

; 96   : 		pData = pElements;

  00280	8d 55 f0	 lea	 edx, DWORD PTR _newValue$4[ebp]
  00283	be 01 00 00 00	 mov	 esi, 1
  00288	89 55 08	 mov	 DWORD PTR _pData$1$[ebp], edx
  0028b	0f 1f 44 00 00	 npad	 5
$LL84@Serialize:

; 101  : 			nElementsToRead = UINT(__min(nElementsLeft, INT_MAX/sizeof(TYPE)));

  00290	bf ff ff ff 1f	 mov	 edi, 536870911		; 1fffffffH
; File C:\Program Files (x86)\Microsoft Visual Studio\2019\Community\VC\Tools\MSVC\14.29.30133\atlmfc\include\afx.inl

; 399  : 	UINT nRead=Read(lpBuf, nCount);

  00295	8b cb		 mov	 ecx, ebx
; File C:\Program Files (x86)\Microsoft Visual Studio\2019\Community\VC\Tools\MSVC\14.29.30133\atlmfc\include\afxtempl.h

; 101  : 			nElementsToRead = UINT(__min(nElementsLeft, INT_MAX/sizeof(TYPE)));

  00297	3b f7		 cmp	 esi, edi
  00299	0f 42 fe	 cmovb	 edi, esi

; 102  : 			ar.EnsureRead(pData, nElementsToRead*sizeof(TYPE));

  0029c	8d 04 bd 00 00
	00 00		 lea	 eax, DWORD PTR [edi*4]
; File C:\Program Files (x86)\Microsoft Visual Studio\2019\Community\VC\Tools\MSVC\14.29.30133\atlmfc\include\afx.inl

; 399  : 	UINT nRead=Read(lpBuf, nCount);

  002a3	50		 push	 eax
  002a4	52		 push	 edx
  002a5	e8 00 00 00 00	 call	 ?Read@CArchive@@QAEIPAXI@Z ; CArchive::Read

; 400  : 	if(nRead!=nCount)

  002aa	8d 0c bd 00 00
	00 00		 lea	 ecx, DWORD PTR [edi*4]
  002b1	3b c1		 cmp	 eax, ecx
  002b3	0f 85 50 01 00
	00		 jne	 $LN165@Serialize
; File C:\Program Files (x86)\Microsoft Visual Studio\2019\Community\VC\Tools\MSVC\14.29.30133\atlmfc\include\afxtempl.h

; 104  : 			pData += nElementsToRead;

  002b9	8b 55 08	 mov	 edx, DWORD PTR _pData$1$[ebp]
  002bc	03 d1		 add	 edx, ecx
  002be	89 55 08	 mov	 DWORD PTR _pData$1$[ebp], edx
  002c1	2b f7		 sub	 esi, edi
  002c3	75 cb		 jne	 SHORT $LL84@Serialize
$LN85@Serialize:

; 1781 : 		{
; 1782 : 			KEY newKey[1];
; 1783 : 			VALUE newValue[1];
; 1784 : 			SerializeElements<KEY>(ar, newKey, 1);
; 1785 : 			SerializeElements<VALUE>(ar, newValue, 1);
; 1786 : 			SetAt(newKey[0], newValue[0]);

  002c5	8b 45 f0	 mov	 eax, DWORD PTR _newValue$4[ebp]
  002c8	b9 1d f3 01 00	 mov	 ecx, 127773		; 0001f31dH
  002cd	89 45 e4	 mov	 DWORD PTR _newValue$1$[ebp], eax
  002d0	8b 45 ec	 mov	 eax, DWORD PTR _newKey$3[ebp]
  002d3	89 45 f4	 mov	 DWORD PTR _key$1$[ebp], eax
  002d6	99		 cdq
  002d7	f7 f9		 idiv	 ecx

; 1534 : 	nHashBucket = nHashValue % m_nHashTableSize;

  002d9	8b 75 e8	 mov	 esi, DWORD PTR _this$1$[ebp]

; 166  : 	HashVal.rem = 16807 * HashVal.rem - 2836 * HashVal.quot;

  002dc	69 c0 14 0b 00
	00		 imul	 eax, eax, 2836
  002e2	69 ca a7 41 00
	00		 imul	 ecx, edx, 16807
  002e8	2b c8		 sub	 ecx, eax

; 1534 : 	nHashBucket = nHashValue % m_nHashTableSize;

  002ea	8d b9 ff ff ff
	7f		 lea	 edi, DWORD PTR [ecx+2147483647]
  002f0	0f 49 f9	 cmovns	 edi, ecx
  002f3	8b 4e 08	 mov	 ecx, DWORD PTR [esi+8]
  002f6	33 d2		 xor	 edx, edx
  002f8	89 4d 08	 mov	 DWORD PTR _nHashSize$1$[ebp], ecx
  002fb	8b c7		 mov	 eax, edi
  002fd	f7 f1		 div	 ecx

; 1535 : 
; 1536 : 	if (m_pHashTable == NULL)

  002ff	8b 4e 04	 mov	 ecx, DWORD PTR [esi+4]
  00302	8b c2		 mov	 eax, edx
  00304	89 45 e0	 mov	 DWORD PTR _nHashBucket$1$[ebp], eax
  00307	85 c9		 test	 ecx, ecx
  00309	75 49		 jne	 SHORT $LN112@Serialize

; 1434 : 		m_pHashTable = new CAssoc* [nHashSize];

  0030b	8b 45 08	 mov	 eax, DWORD PTR _nHashSize$1$[ebp]
  0030e	ba 04 00 00 00	 mov	 edx, 4
  00313	f7 e2		 mul	 edx
  00315	0f 90 c1	 seto	 cl
  00318	f7 d9		 neg	 ecx
  0031a	0b c8		 or	 ecx, eax
  0031c	51		 push	 ecx
  0031d	e8 00 00 00 00	 call	 ??_U@YAPAXI@Z		; operator new[]
  00322	83 c4 04	 add	 esp, 4
  00325	89 46 04	 mov	 DWORD PTR [esi+4], eax

; 1435 : 		ENSURE(m_pHashTable != NULL);

  00328	85 c0		 test	 eax, eax
  0032a	0f 84 d4 00 00
	00		 je	 $LN167@Serialize

; 1436 : 		memset(m_pHashTable, 0, sizeof(CAssoc*) * nHashSize);

  00330	8b 4d 08	 mov	 ecx, DWORD PTR _nHashSize$1$[ebp]
  00333	c1 e1 02	 shl	 ecx, 2
  00336	51		 push	 ecx
  00337	6a 00		 push	 0
  00339	50		 push	 eax
  0033a	e8 00 00 00 00	 call	 _memset

; 1437 : 	}
; 1438 : 	m_nHashTableSize = nHashSize;

  0033f	8b 45 08	 mov	 eax, DWORD PTR _nHashSize$1$[ebp]
  00342	83 c4 0c	 add	 esp, 12			; 0000000cH

; 1595 : 		ENSURE(m_pHashTable);

  00345	83 7e 04 00	 cmp	 DWORD PTR [esi+4], 0

; 1438 : 	m_nHashTableSize = nHashSize;

  00349	89 46 08	 mov	 DWORD PTR [esi+8], eax

; 1595 : 		ENSURE(m_pHashTable);

  0034c	0f 84 b2 00 00
	00		 je	 $LN167@Serialize
  00352	eb 20		 jmp	 SHORT $LN225@Serialize
$LN112@Serialize:

; 1541 : 	for (pAssoc = m_pHashTable[nHashBucket]; pAssoc != NULL; pAssoc = pAssoc->pNext)

  00354	8b 0c 81	 mov	 ecx, DWORD PTR [ecx+eax*4]
  00357	85 c9		 test	 ecx, ecx
  00359	74 19		 je	 SHORT $LN225@Serialize
  0035b	8b 45 f4	 mov	 eax, DWORD PTR _key$1$[ebp]
  0035e	66 90		 npad	 2
$LL111@Serialize:

; 1542 : 	{
; 1543 : 		if (pAssoc->nHashValue == nHashValue && CompareElements(&pAssoc->key, &key))

  00360	39 79 0c	 cmp	 DWORD PTR [ecx+12], edi
  00363	75 08		 jne	 SHORT $LN109@Serialize

; 156  : 	return *pElement1 == *pElement2;

  00365	39 01		 cmp	 DWORD PTR [ecx], eax

; 1543 : 		if (pAssoc->nHashValue == nHashValue && CompareElements(&pAssoc->key, &key))

  00367	0f 84 7d 00 00
	00		 je	 $LN104@Serialize
$LN109@Serialize:

; 1537 : 		return NULL;
; 1538 : 
; 1539 : 	// see if it exists
; 1540 : 	CAssoc* pAssoc;
; 1541 : 	for (pAssoc = m_pHashTable[nHashBucket]; pAssoc != NULL; pAssoc = pAssoc->pNext)

  0036d	8b 49 08	 mov	 ecx, DWORD PTR [ecx+8]
  00370	85 c9		 test	 ecx, ecx
  00372	75 ec		 jne	 SHORT $LL111@Serialize
$LN225@Serialize:

; 1481 : 	if (m_pFreeList == NULL)

  00374	83 7e 10 00	 cmp	 DWORD PTR [esi+16], 0
  00378	75 37		 jne	 SHORT $LN142@Serialize

; 1482 : 	{
; 1483 : 		// add another block
; 1484 : 		CPlex* newBlock = CPlex::Create(m_pBlocks, m_nBlockSize, sizeof(CMap::CAssoc));

  0037a	6a 10		 push	 16			; 00000010H
  0037c	ff 76 18	 push	 DWORD PTR [esi+24]
  0037f	8d 46 14	 lea	 eax, DWORD PTR [esi+20]
  00382	50		 push	 eax
  00383	e8 00 00 00 00	 call	 ?Create@CPlex@@SGPAU1@AAPAU1@II@Z ; CPlex::Create

; 1485 : 		// chain them into free list
; 1486 : 		CMap::CAssoc* pAssoc = (CMap::CAssoc*) newBlock->data();
; 1487 : 		// free in reverse order to make it easier to debug
; 1488 : 		pAssoc += m_nBlockSize - 1;

  00388	8b 56 18	 mov	 edx, DWORD PTR [esi+24]
  0038b	83 c0 08	 add	 eax, 8
  0038e	8b ca		 mov	 ecx, edx
  00390	c1 e1 04	 shl	 ecx, 4
  00393	83 c1 f0	 add	 ecx, -16		; fffffff0H
  00396	03 c8		 add	 ecx, eax

; 1489 : 		for (INT_PTR i = m_nBlockSize-1; i >= 0; i--, pAssoc--)

  00398	83 c2 ff	 add	 edx, -1
  0039b	78 14		 js	 SHORT $LN142@Serialize
  0039d	0f 1f 00	 npad	 3
$LL139@Serialize:

; 1490 : 		{
; 1491 : 			pAssoc->pNext = m_pFreeList;

  003a0	8b 46 10	 mov	 eax, DWORD PTR [esi+16]
  003a3	89 41 08	 mov	 DWORD PTR [ecx+8], eax

; 1492 : 			m_pFreeList = pAssoc;

  003a6	89 4e 10	 mov	 DWORD PTR [esi+16], ecx
  003a9	83 e9 10	 sub	 ecx, 16			; 00000010H
  003ac	83 ea 01	 sub	 edx, 1
  003af	79 ef		 jns	 SHORT $LL139@Serialize
$LN142@Serialize:

; 1493 : 		}
; 1494 : 	}
; 1495 : 	ENSURE(m_pFreeList != NULL);  // we must have something

  003b1	8b 4e 10	 mov	 ecx, DWORD PTR [esi+16]
  003b4	85 c9		 test	 ecx, ecx
  003b6	74 4c		 je	 SHORT $LN167@Serialize

; 1496 : 
; 1497 : 	CMap::CAssoc* pAssoc = m_pFreeList;
; 1498 : 
; 1499 : 	// zero the memory
; 1500 : 	CMap::CAssoc* pTemp = pAssoc->pNext;

  003b8	8b 41 08	 mov	 eax, DWORD PTR [ecx+8]
  003bb	0f 57 c0	 xorps	 xmm0, xmm0

; 1602 : 		pAssoc->pNext = m_pHashTable[nHashBucket];

  003be	8b 55 e0	 mov	 edx, DWORD PTR _nHashBucket$1$[ebp]

; 1501 : 	memset( pAssoc, 0, sizeof(CMap::CAssoc) );

  003c1	0f 11 01	 movups	 XMMWORD PTR [ecx], xmm0

; 1502 : 	pAssoc->pNext = pTemp;

  003c4	89 41 08	 mov	 DWORD PTR [ecx+8], eax

; 1503 : 
; 1504 : 	m_pFreeList = m_pFreeList->pNext;

  003c7	8b 46 10	 mov	 eax, DWORD PTR [esi+16]
  003ca	8b 40 08	 mov	 eax, DWORD PTR [eax+8]

; 1505 : 	m_nCount++;

  003cd	ff 46 0c	 inc	 DWORD PTR [esi+12]
  003d0	89 46 10	 mov	 DWORD PTR [esi+16], eax

; 1256 : 		CPair( ARG_KEY keyval ) : key( keyval )	{}

  003d3	8b 45 f4	 mov	 eax, DWORD PTR _key$1$[ebp]
  003d6	89 01		 mov	 DWORD PTR [ecx], eax

; 1598 : 		pAssoc->nHashValue = nHashValue;

  003d8	89 79 0c	 mov	 DWORD PTR [ecx+12], edi

; 1599 : 		//'pAssoc->value' is a constructed object, nothing more
; 1600 : 
; 1601 : 		// put into hash table
; 1602 : 		pAssoc->pNext = m_pHashTable[nHashBucket];

  003db	8b 46 04	 mov	 eax, DWORD PTR [esi+4]
  003de	8b 04 90	 mov	 eax, DWORD PTR [eax+edx*4]
  003e1	89 41 08	 mov	 DWORD PTR [ecx+8], eax

; 1603 : 		m_pHashTable[nHashBucket] = pAssoc;

  003e4	8b 46 04	 mov	 eax, DWORD PTR [esi+4]
  003e7	89 0c 90	 mov	 DWORD PTR [eax+edx*4], ecx
$LN104@Serialize:

; 1350 : 	{ (*this)[key] = newValue; }

  003ea	8b 45 e4	 mov	 eax, DWORD PTR _newValue$1$[ebp]
  003ed	89 41 04	 mov	 DWORD PTR [ecx+4], eax

; 1780 : 		while (nNewCount--)

  003f0	8b 45 f8	 mov	 eax, DWORD PTR _nNewCount$1$[ebp]
  003f3	85 c0		 test	 eax, eax
  003f5	0f 85 a5 fd ff
	ff		 jne	 $LL8@Serialize
$LN189@Serialize:
  003fb	5f		 pop	 edi

; 1787 : 		}
; 1788 : 	}
; 1789 : }

  003fc	5e		 pop	 esi
  003fd	5b		 pop	 ebx
  003fe	8b e5		 mov	 esp, ebp
  00400	5d		 pop	 ebp
  00401	c2 04 00	 ret	 4
$LN167@Serialize:
  00404	e8 00 00 00 00	 call	 ?AfxThrowInvalidArgException@@YGXXZ ; AfxThrowInvalidArgException
$LN165@Serialize:
  00409	6a 00		 push	 0
  0040b	6a 03		 push	 3
  0040d	e8 00 00 00 00	 call	 ?AfxThrowArchiveException@@YGXHPBD@Z ; AfxThrowArchiveException
$LN226@Serialize:
  00412	cc		 int	 3
?Serialize@?$CMap@PAVCConfirmWnd@@PAV1@JJ@@UAEXAAVCArchive@@@Z ENDP ; CMap<CConfirmWnd *,CConfirmWnd *,long,long>::Serialize
_TEXT	ENDS
; Function compile flags: /Ogtp
; File C:\Program Files (x86)\Microsoft Visual Studio\2019\Community\VC\Tools\MSVC\14.29.30133\atlmfc\include\afxtempl.h
;	COMDAT ??1?$CMap@PAVCConfirmWnd@@PAV1@JJ@@UAE@XZ
_TEXT	SEGMENT
__$EHRec$ = -12						; size = 12
??1?$CMap@PAVCConfirmWnd@@PAV1@JJ@@UAE@XZ PROC		; CMap<CConfirmWnd *,CConfirmWnd *,long,long>::~CMap<CConfirmWnd *,CConfirmWnd *,long,long>, COMDAT
; _this$ = ecx

; 1472 : {

  00000	55		 push	 ebp
  00001	8b ec		 mov	 ebp, esp
  00003	6a ff		 push	 -1
  00005	68 00 00 00 00	 push	 __ehhandler$??1?$CMap@PAVCConfirmWnd@@PAV1@JJ@@UAE@XZ
  0000a	64 a1 00 00 00
	00		 mov	 eax, DWORD PTR fs:0
  00010	50		 push	 eax
  00011	56		 push	 esi
  00012	a1 00 00 00 00	 mov	 eax, DWORD PTR ___security_cookie
  00017	33 c5		 xor	 eax, ebp
  00019	50		 push	 eax
  0001a	8d 45 f4	 lea	 eax, DWORD PTR __$EHRec$[ebp]
  0001d	64 a3 00 00 00
	00		 mov	 DWORD PTR fs:0, eax
  00023	8b f1		 mov	 esi, ecx

; 1446 : 	if (m_pHashTable != NULL)

  00025	8b 46 04	 mov	 eax, DWORD PTR [esi+4]

; 1472 : {

  00028	c7 06 00 00 00
	00		 mov	 DWORD PTR [esi], OFFSET ??_7?$CMap@PAVCConfirmWnd@@PAV1@JJ@@6B@

; 1446 : 	if (m_pHashTable != NULL)

  0002e	85 c0		 test	 eax, eax
  00030	74 10		 je	 SHORT $LN10@CMap

; 1447 : 	{
; 1448 : 		// destroy elements (values and keys)
; 1449 : 		for (UINT nHash = 0; nHash < m_nHashTableSize; nHash++)
; 1450 : 		{
; 1451 : 			CAssoc* pAssoc;
; 1452 : 			for (pAssoc = m_pHashTable[nHash]; pAssoc != NULL;
; 1453 : 			  pAssoc = pAssoc->pNext)
; 1454 : 			{
; 1455 : 				pAssoc->CAssoc::~CAssoc();
; 1456 : 			}
; 1457 : 		}
; 1458 : 
; 1459 : 		// free hash table
; 1460 : 		delete[] m_pHashTable;

  00032	50		 push	 eax
  00033	e8 00 00 00 00	 call	 ??_V@YAXPAX@Z		; operator delete[]
  00038	83 c4 04	 add	 esp, 4

; 1461 : 		m_pHashTable = NULL;

  0003b	c7 46 04 00 00
	00 00		 mov	 DWORD PTR [esi+4], 0
$LN10@CMap:

; 1462 : 	}
; 1463 : 
; 1464 : 	m_nCount = 0;
; 1465 : 	m_pFreeList = NULL;
; 1466 : 	m_pBlocks->FreeDataChain();

  00042	8b 4e 14	 mov	 ecx, DWORD PTR [esi+20]
  00045	c7 46 0c 00 00
	00 00		 mov	 DWORD PTR [esi+12], 0
  0004c	c7 46 10 00 00
	00 00		 mov	 DWORD PTR [esi+16], 0
  00053	e8 00 00 00 00	 call	 ?FreeDataChain@CPlex@@QAEXXZ ; CPlex::FreeDataChain

; 1467 : 	m_pBlocks = NULL;

  00058	c7 46 14 00 00
	00 00		 mov	 DWORD PTR [esi+20], 0

; 1473 : 	RemoveAll();
; 1474 : 	ASSERT(m_nCount == 0);
; 1475 : }

  0005f	8b 4d f4	 mov	 ecx, DWORD PTR __$EHRec$[ebp]
  00062	64 89 0d 00 00
	00 00		 mov	 DWORD PTR fs:0, ecx
  00069	59		 pop	 ecx
  0006a	5e		 pop	 esi
  0006b	8b e5		 mov	 esp, ebp
  0006d	5d		 pop	 ebp
  0006e	c3		 ret	 0
  0006f	cc		 int	 3
  00070	cc		 int	 3
  00071	cc		 int	 3
  00072	cc		 int	 3
  00073	cc		 int	 3
_TEXT	ENDS
;	COMDAT text$x
text$x	SEGMENT
__ehhandler$??1?$CMap@PAVCConfirmWnd@@PAV1@JJ@@UAE@XZ:
  00000	90		 npad	 1
  00001	90		 npad	 1
  00002	8b 54 24 08	 mov	 edx, DWORD PTR [esp+8]
  00006	8d 42 0c	 lea	 eax, DWORD PTR [edx+12]
  00009	8b 4a f8	 mov	 ecx, DWORD PTR [edx-8]
  0000c	33 c8		 xor	 ecx, eax
  0000e	e8 00 00 00 00	 call	 @__security_check_cookie@4
  00013	b8 00 00 00 00	 mov	 eax, OFFSET __ehfuncinfo$??1?$CMap@PAVCConfirmWnd@@PAV1@JJ@@UAE@XZ
  00018	e9 00 00 00 00	 jmp	 ___CxxFrameHandler3
text$x	ENDS
??1?$CMap@PAVCConfirmWnd@@PAV1@JJ@@UAE@XZ ENDP		; CMap<CConfirmWnd *,CConfirmWnd *,long,long>::~CMap<CConfirmWnd *,CConfirmWnd *,long,long>
; Function compile flags: /Ogtp
; File C:\Program Files (x86)\Microsoft Visual Studio\2019\Community\VC\Tools\MSVC\14.29.30133\atlmfc\include\afxtempl.h
;	COMDAT ?GetAssocAt@?$CMap@PAVCConfirmWnd@@PAV1@JJ@@IBEPAVCAssoc@1@PAVCConfirmWnd@@AAI1@Z
_TEXT	SEGMENT
_key$ = 8						; size = 4
_nHashBucket$ = 12					; size = 4
_nHashValue$ = 16					; size = 4
?GetAssocAt@?$CMap@PAVCConfirmWnd@@PAV1@JJ@@IBEPAVCAssoc@1@PAVCConfirmWnd@@AAI1@Z PROC ; CMap<CConfirmWnd *,CConfirmWnd *,long,long>::GetAssocAt, COMDAT
; _this$ = ecx

; 1532 : {

  00000	55		 push	 ebp
  00001	8b ec		 mov	 ebp, esp
  00003	56		 push	 esi
  00004	8b f1		 mov	 esi, ecx

; 165  : 	ldiv_t HashVal = ldiv((long)(ARG_KEY)key, 127773);

  00006	b9 1d f3 01 00	 mov	 ecx, 127773		; 0001f31dH

; 1532 : {

  0000b	57		 push	 edi

; 165  : 	ldiv_t HashVal = ldiv((long)(ARG_KEY)key, 127773);

  0000c	8b 7d 08	 mov	 edi, DWORD PTR _key$[ebp]
  0000f	8b c7		 mov	 eax, edi
  00011	99		 cdq
  00012	f7 f9		 idiv	 ecx

; 166  : 	HashVal.rem = 16807 * HashVal.rem - 2836 * HashVal.quot;

  00014	69 c0 14 0b 00
	00		 imul	 eax, eax, 2836
  0001a	69 ca a7 41 00
	00		 imul	 ecx, edx, 16807
  00020	2b c8		 sub	 ecx, eax

; 1533 : 	nHashValue = HashKey<ARG_KEY>(key);

  00022	8d 81 ff ff ff
	7f		 lea	 eax, DWORD PTR [ecx+2147483647]
  00028	0f 49 c1	 cmovns	 eax, ecx
  0002b	8b 4d 10	 mov	 ecx, DWORD PTR _nHashValue$[ebp]

; 1534 : 	nHashBucket = nHashValue % m_nHashTableSize;

  0002e	33 d2		 xor	 edx, edx
  00030	89 01		 mov	 DWORD PTR [ecx], eax
  00032	f7 76 08	 div	 DWORD PTR [esi+8]
  00035	8b 45 0c	 mov	 eax, DWORD PTR _nHashBucket$[ebp]
  00038	89 10		 mov	 DWORD PTR [eax], edx

; 1535 : 
; 1536 : 	if (m_pHashTable == NULL)

  0003a	8b 46 04	 mov	 eax, DWORD PTR [esi+4]
  0003d	85 c0		 test	 eax, eax
  0003f	74 1f		 je	 SHORT $LN26@GetAssocAt

; 1537 : 		return NULL;
; 1538 : 
; 1539 : 	// see if it exists
; 1540 : 	CAssoc* pAssoc;
; 1541 : 	for (pAssoc = m_pHashTable[nHashBucket]; pAssoc != NULL; pAssoc = pAssoc->pNext)

  00041	8b 04 90	 mov	 eax, DWORD PTR [eax+edx*4]
  00044	85 c0		 test	 eax, eax
  00046	74 18		 je	 SHORT $LN26@GetAssocAt

; 1542 : 	{
; 1543 : 		if (pAssoc->nHashValue == nHashValue && CompareElements(&pAssoc->key, &key))

  00048	8b 09		 mov	 ecx, DWORD PTR [ecx]
  0004a	66 0f 1f 44 00
	00		 npad	 6
$LL4@GetAssocAt:
  00050	39 48 0c	 cmp	 DWORD PTR [eax+12], ecx
  00053	75 04		 jne	 SHORT $LN2@GetAssocAt

; 156  : 	return *pElement1 == *pElement2;

  00055	39 38		 cmp	 DWORD PTR [eax], edi

; 1542 : 	{
; 1543 : 		if (pAssoc->nHashValue == nHashValue && CompareElements(&pAssoc->key, &key))

  00057	74 09		 je	 SHORT $LN1@GetAssocAt
$LN2@GetAssocAt:

; 1537 : 		return NULL;
; 1538 : 
; 1539 : 	// see if it exists
; 1540 : 	CAssoc* pAssoc;
; 1541 : 	for (pAssoc = m_pHashTable[nHashBucket]; pAssoc != NULL; pAssoc = pAssoc->pNext)

  00059	8b 40 08	 mov	 eax, DWORD PTR [eax+8]
  0005c	85 c0		 test	 eax, eax
  0005e	75 f0		 jne	 SHORT $LL4@GetAssocAt
$LN26@GetAssocAt:

; 1544 : 			return pAssoc;
; 1545 : 	}
; 1546 : 	return NULL;

  00060	33 c0		 xor	 eax, eax
$LN1@GetAssocAt:
  00062	5f		 pop	 edi

; 1547 : }

  00063	5e		 pop	 esi
  00064	5d		 pop	 ebp
  00065	c2 0c 00	 ret	 12			; 0000000cH
?GetAssocAt@?$CMap@PAVCConfirmWnd@@PAV1@JJ@@IBEPAVCAssoc@1@PAVCConfirmWnd@@AAI1@Z ENDP ; CMap<CConfirmWnd *,CConfirmWnd *,long,long>::GetAssocAt
_TEXT	ENDS
; Function compile flags: /Ogtp
; File C:\Program Files (x86)\Microsoft Visual Studio\2019\Community\VC\Tools\MSVC\14.29.30133\atlmfc\include\afxtempl.h
;	COMDAT ?FreeAssoc@?$CMap@PAVCConfirmWnd@@PAV1@JJ@@IAEXPAVCAssoc@1@@Z
_TEXT	SEGMENT
_pAssoc$ = 8						; size = 4
?FreeAssoc@?$CMap@PAVCConfirmWnd@@PAV1@JJ@@IAEXPAVCAssoc@1@@Z PROC ; CMap<CConfirmWnd *,CConfirmWnd *,long,long>::FreeAssoc, COMDAT
; _this$ = ecx

; 1516 : {

  00000	55		 push	 ebp
  00001	8b ec		 mov	 ebp, esp

; 1517 : 	pAssoc->CAssoc::~CAssoc();
; 1518 : 	pAssoc->pNext = m_pFreeList;

  00003	8b 55 08	 mov	 edx, DWORD PTR _pAssoc$[ebp]
  00006	56		 push	 esi
  00007	8b f1		 mov	 esi, ecx
  00009	8b 46 10	 mov	 eax, DWORD PTR [esi+16]
  0000c	89 42 08	 mov	 DWORD PTR [edx+8], eax

; 1519 : 	m_pFreeList = pAssoc;
; 1520 : 	m_nCount--;

  0000f	83 46 0c ff	 add	 DWORD PTR [esi+12], -1
  00013	89 56 10	 mov	 DWORD PTR [esi+16], edx

; 1521 : 	ASSERT(m_nCount >= 0);  // make sure we don't underflow
; 1522 : 
; 1523 : 	// if no more elements, cleanup completely
; 1524 : 	if (m_nCount == 0)

  00016	75 34		 jne	 SHORT $LN2@FreeAssoc

; 1446 : 	if (m_pHashTable != NULL)

  00018	8b 46 04	 mov	 eax, DWORD PTR [esi+4]
  0001b	85 c0		 test	 eax, eax
  0001d	74 10		 je	 SHORT $LN11@FreeAssoc

; 1447 : 	{
; 1448 : 		// destroy elements (values and keys)
; 1449 : 		for (UINT nHash = 0; nHash < m_nHashTableSize; nHash++)
; 1450 : 		{
; 1451 : 			CAssoc* pAssoc;
; 1452 : 			for (pAssoc = m_pHashTable[nHash]; pAssoc != NULL;
; 1453 : 			  pAssoc = pAssoc->pNext)
; 1454 : 			{
; 1455 : 				pAssoc->CAssoc::~CAssoc();
; 1456 : 			}
; 1457 : 		}
; 1458 : 
; 1459 : 		// free hash table
; 1460 : 		delete[] m_pHashTable;

  0001f	50		 push	 eax
  00020	e8 00 00 00 00	 call	 ??_V@YAXPAX@Z		; operator delete[]
  00025	83 c4 04	 add	 esp, 4

; 1461 : 		m_pHashTable = NULL;

  00028	c7 46 04 00 00
	00 00		 mov	 DWORD PTR [esi+4], 0
$LN11@FreeAssoc:

; 1462 : 	}
; 1463 : 
; 1464 : 	m_nCount = 0;
; 1465 : 	m_pFreeList = NULL;
; 1466 : 	m_pBlocks->FreeDataChain();

  0002f	8b 4e 14	 mov	 ecx, DWORD PTR [esi+20]
  00032	c7 46 0c 00 00
	00 00		 mov	 DWORD PTR [esi+12], 0
  00039	c7 46 10 00 00
	00 00		 mov	 DWORD PTR [esi+16], 0
  00040	e8 00 00 00 00	 call	 ?FreeDataChain@CPlex@@QAEXXZ ; CPlex::FreeDataChain

; 1467 : 	m_pBlocks = NULL;

  00045	c7 46 14 00 00
	00 00		 mov	 DWORD PTR [esi+20], 0
$LN2@FreeAssoc:
  0004c	5e		 pop	 esi

; 1525 : 		RemoveAll();
; 1526 : }

  0004d	5d		 pop	 ebp
  0004e	c2 04 00	 ret	 4
?FreeAssoc@?$CMap@PAVCConfirmWnd@@PAV1@JJ@@IAEXPAVCAssoc@1@@Z ENDP ; CMap<CConfirmWnd *,CConfirmWnd *,long,long>::FreeAssoc
_TEXT	ENDS
; Function compile flags: /Ogtp
; File C:\Program Files (x86)\Microsoft Visual Studio\2019\Community\VC\Tools\MSVC\14.29.30133\atlmfc\include\afxtempl.h
;	COMDAT ?NewAssoc@?$CMap@PAVCConfirmWnd@@PAV1@JJ@@IAEPAVCAssoc@1@PAVCConfirmWnd@@@Z
_TEXT	SEGMENT
_key$ = 8						; size = 4
?NewAssoc@?$CMap@PAVCConfirmWnd@@PAV1@JJ@@IAEPAVCAssoc@1@PAVCConfirmWnd@@@Z PROC ; CMap<CConfirmWnd *,CConfirmWnd *,long,long>::NewAssoc, COMDAT
; _this$ = ecx

; 1480 : {

  00000	55		 push	 ebp
  00001	8b ec		 mov	 ebp, esp
  00003	56		 push	 esi
  00004	8b f1		 mov	 esi, ecx

; 1481 : 	if (m_pFreeList == NULL)

  00006	83 7e 10 00	 cmp	 DWORD PTR [esi+16], 0
  0000a	75 35		 jne	 SHORT $LN7@NewAssoc

; 1482 : 	{
; 1483 : 		// add another block
; 1484 : 		CPlex* newBlock = CPlex::Create(m_pBlocks, m_nBlockSize, sizeof(CMap::CAssoc));

  0000c	6a 10		 push	 16			; 00000010H
  0000e	ff 76 18	 push	 DWORD PTR [esi+24]
  00011	8d 46 14	 lea	 eax, DWORD PTR [esi+20]
  00014	50		 push	 eax
  00015	e8 00 00 00 00	 call	 ?Create@CPlex@@SGPAU1@AAPAU1@II@Z ; CPlex::Create

; 1485 : 		// chain them into free list
; 1486 : 		CMap::CAssoc* pAssoc = (CMap::CAssoc*) newBlock->data();
; 1487 : 		// free in reverse order to make it easier to debug
; 1488 : 		pAssoc += m_nBlockSize - 1;

  0001a	8b 56 18	 mov	 edx, DWORD PTR [esi+24]
  0001d	83 c0 08	 add	 eax, 8
  00020	8b ca		 mov	 ecx, edx
  00022	c1 e1 04	 shl	 ecx, 4
  00025	83 c1 f0	 add	 ecx, -16		; fffffff0H
  00028	03 c1		 add	 eax, ecx

; 1489 : 		for (INT_PTR i = m_nBlockSize-1; i >= 0; i--, pAssoc--)

  0002a	83 c2 ff	 add	 edx, -1
  0002d	78 12		 js	 SHORT $LN7@NewAssoc
  0002f	90		 npad	 1
$LL4@NewAssoc:

; 1490 : 		{
; 1491 : 			pAssoc->pNext = m_pFreeList;

  00030	8b 4e 10	 mov	 ecx, DWORD PTR [esi+16]
  00033	89 48 08	 mov	 DWORD PTR [eax+8], ecx

; 1492 : 			m_pFreeList = pAssoc;

  00036	89 46 10	 mov	 DWORD PTR [esi+16], eax
  00039	83 e8 10	 sub	 eax, 16			; 00000010H
  0003c	83 ea 01	 sub	 edx, 1
  0003f	79 ef		 jns	 SHORT $LL4@NewAssoc
$LN7@NewAssoc:

; 1493 : 		}
; 1494 : 	}
; 1495 : 	ENSURE(m_pFreeList != NULL);  // we must have something

  00041	8b 46 10	 mov	 eax, DWORD PTR [esi+16]
  00044	85 c0		 test	 eax, eax
  00046	74 22		 je	 SHORT $LN21@NewAssoc

; 1496 : 
; 1497 : 	CMap::CAssoc* pAssoc = m_pFreeList;
; 1498 : 
; 1499 : 	// zero the memory
; 1500 : 	CMap::CAssoc* pTemp = pAssoc->pNext;

  00048	8b 48 08	 mov	 ecx, DWORD PTR [eax+8]
  0004b	0f 57 c0	 xorps	 xmm0, xmm0

; 1501 : 	memset( pAssoc, 0, sizeof(CMap::CAssoc) );

  0004e	0f 11 00	 movups	 XMMWORD PTR [eax], xmm0

; 1502 : 	pAssoc->pNext = pTemp;

  00051	89 48 08	 mov	 DWORD PTR [eax+8], ecx

; 1503 : 
; 1504 : 	m_pFreeList = m_pFreeList->pNext;

  00054	8b 4e 10	 mov	 ecx, DWORD PTR [esi+16]
  00057	8b 49 08	 mov	 ecx, DWORD PTR [ecx+8]

; 1505 : 	m_nCount++;

  0005a	ff 46 0c	 inc	 DWORD PTR [esi+12]
  0005d	89 4e 10	 mov	 DWORD PTR [esi+16], ecx

; 1256 : 		CPair( ARG_KEY keyval ) : key( keyval )	{}

  00060	8b 4d 08	 mov	 ecx, DWORD PTR _key$[ebp]
  00063	89 08		 mov	 DWORD PTR [eax], ecx

; 1506 : 	ASSERT(m_nCount > 0);  // make sure we don't overflow
; 1507 : #pragma push_macro("new")
; 1508 : #undef new
; 1509 : 	::new(pAssoc) CMap::CAssoc(key);
; 1510 : #pragma pop_macro("new")
; 1511 : 	return pAssoc;

  00065	5e		 pop	 esi

; 1512 : }

  00066	5d		 pop	 ebp
  00067	c2 04 00	 ret	 4
$LN21@NewAssoc:

; 1493 : 		}
; 1494 : 	}
; 1495 : 	ENSURE(m_pFreeList != NULL);  // we must have something

  0006a	e8 00 00 00 00	 call	 ?AfxThrowInvalidArgException@@YGXXZ ; AfxThrowInvalidArgException
$LN19@NewAssoc:
  0006f	cc		 int	 3
?NewAssoc@?$CMap@PAVCConfirmWnd@@PAV1@JJ@@IAEPAVCAssoc@1@PAVCConfirmWnd@@@Z ENDP ; CMap<CConfirmWnd *,CConfirmWnd *,long,long>::NewAssoc
_TEXT	ENDS
; Function compile flags: /Ogtp
; File C:\Program Files (x86)\Microsoft Visual Studio\2019\Community\VC\Tools\MSVC\14.29.30133\atlmfc\include\afxtempl.h
;	COMDAT ?InitHashTable@?$CMap@PAVCConfirmWnd@@PAV1@JJ@@QAEXIH@Z
_TEXT	SEGMENT
_nHashSize$ = 8						; size = 4
_bAllocNow$ = 12					; size = 4
?InitHashTable@?$CMap@PAVCConfirmWnd@@PAV1@JJ@@QAEXIH@Z PROC ; CMap<CConfirmWnd *,CConfirmWnd *,long,long>::InitHashTable, COMDAT
; _this$ = ecx

; 1420 : {

  00000	55		 push	 ebp
  00001	8b ec		 mov	 ebp, esp
  00003	56		 push	 esi
  00004	8b f1		 mov	 esi, ecx
  00006	57		 push	 edi

; 1421 : 	ASSERT_VALID(this);
; 1422 : 	ASSERT(m_nCount == 0);
; 1423 : 	ASSERT(nHashSize > 0);
; 1424 : 
; 1425 : 	if (m_pHashTable != NULL)

  00007	8b 46 04	 mov	 eax, DWORD PTR [esi+4]
  0000a	85 c0		 test	 eax, eax
  0000c	74 10		 je	 SHORT $LN5@InitHashTa

; 1426 : 	{
; 1427 : 		// free hash table
; 1428 : 		delete[] m_pHashTable;

  0000e	50		 push	 eax
  0000f	e8 00 00 00 00	 call	 ??_V@YAXPAX@Z		; operator delete[]
  00014	83 c4 04	 add	 esp, 4

; 1429 : 		m_pHashTable = NULL;

  00017	c7 46 04 00 00
	00 00		 mov	 DWORD PTR [esi+4], 0
$LN5@InitHashTa:

; 1430 : 	}
; 1431 : 
; 1432 : 	if (bAllocNow)

  0001e	83 7d 0c 00	 cmp	 DWORD PTR _bAllocNow$[ebp], 0
  00022	8b 7d 08	 mov	 edi, DWORD PTR _nHashSize$[ebp]
  00025	74 37		 je	 SHORT $LN6@InitHashTa

; 1433 : 	{
; 1434 : 		m_pHashTable = new CAssoc* [nHashSize];

  00027	33 c9		 xor	 ecx, ecx
  00029	8b c7		 mov	 eax, edi
  0002b	ba 04 00 00 00	 mov	 edx, 4
  00030	f7 e2		 mul	 edx
  00032	0f 90 c1	 seto	 cl
  00035	f7 d9		 neg	 ecx
  00037	0b c8		 or	 ecx, eax
  00039	51		 push	 ecx
  0003a	e8 00 00 00 00	 call	 ??_U@YAPAXI@Z		; operator new[]
  0003f	8b c8		 mov	 ecx, eax
  00041	83 c4 04	 add	 esp, 4
  00044	89 4e 04	 mov	 DWORD PTR [esi+4], ecx

; 1435 : 		ENSURE(m_pHashTable != NULL);

  00047	85 c9		 test	 ecx, ecx
  00049	74 1c		 je	 SHORT $LN11@InitHashTa

; 1436 : 		memset(m_pHashTable, 0, sizeof(CAssoc*) * nHashSize);

  0004b	8d 04 bd 00 00
	00 00		 lea	 eax, DWORD PTR [edi*4]
  00052	50		 push	 eax
  00053	6a 00		 push	 0
  00055	51		 push	 ecx
  00056	e8 00 00 00 00	 call	 _memset
  0005b	83 c4 0c	 add	 esp, 12			; 0000000cH
$LN6@InitHashTa:

; 1437 : 	}
; 1438 : 	m_nHashTableSize = nHashSize;

  0005e	89 7e 08	 mov	 DWORD PTR [esi+8], edi
  00061	5f		 pop	 edi
  00062	5e		 pop	 esi

; 1439 : }

  00063	5d		 pop	 ebp
  00064	c2 08 00	 ret	 8
$LN11@InitHashTa:

; 1435 : 		ENSURE(m_pHashTable != NULL);

  00067	e8 00 00 00 00	 call	 ?AfxThrowInvalidArgException@@YGXXZ ; AfxThrowInvalidArgException
$LN9@InitHashTa:
  0006c	cc		 int	 3
?InitHashTable@?$CMap@PAVCConfirmWnd@@PAV1@JJ@@QAEXIH@Z ENDP ; CMap<CConfirmWnd *,CConfirmWnd *,long,long>::InitHashTable
_TEXT	ENDS
; Function compile flags: /Ogtp
; File C:\Program Files (x86)\Microsoft Visual Studio\2019\Community\VC\Tools\MSVC\14.29.30133\atlmfc\include\afxtempl.h
;	COMDAT ?GetNextAssoc@?$CMap@PAVCConfirmWnd@@PAV1@JJ@@QBEXAAPAU__POSITION@@AAPAVCConfirmWnd@@AAJ@Z
_TEXT	SEGMENT
_rNextPosition$ = 8					; size = 4
_rKey$ = 12						; size = 4
_rValue$ = 16						; size = 4
?GetNextAssoc@?$CMap@PAVCConfirmWnd@@PAV1@JJ@@QBEXAAPAU__POSITION@@AAPAVCConfirmWnd@@AAJ@Z PROC ; CMap<CConfirmWnd *,CConfirmWnd *,long,long>::GetNextAssoc, COMDAT
; _this$ = ecx

; 1640 : {

  00000	55		 push	 ebp
  00001	8b ec		 mov	 ebp, esp
  00003	53		 push	 ebx
  00004	56		 push	 esi
  00005	57		 push	 edi
  00006	8b f9		 mov	 edi, ecx

; 1641 : 	ASSERT_VALID(this);
; 1642 : 	ENSURE(m_pHashTable != NULL);  // never call on empty map

  00008	8b 5f 04	 mov	 ebx, DWORD PTR [edi+4]
  0000b	85 db		 test	 ebx, ebx
  0000d	74 6b		 je	 SHORT $LN37@GetNextAss

; 1643 : 
; 1644 : 	CAssoc* pAssocRet = (CAssoc*)rNextPosition;

  0000f	8b 75 08	 mov	 esi, DWORD PTR _rNextPosition$[ebp]
  00012	8b 36		 mov	 esi, DWORD PTR [esi]

; 1645 : 	ENSURE(pAssocRet != NULL);

  00014	85 f6		 test	 esi, esi
  00016	74 62		 je	 SHORT $LN37@GetNextAss

; 1646 : 
; 1647 : 	if (pAssocRet == (CAssoc*) BEFORE_START_POSITION)

  00018	83 fe ff	 cmp	 esi, -1
  0001b	75 1b		 jne	 SHORT $LN12@GetNextAss

; 1648 : 	{
; 1649 : 		// find the first association
; 1650 : 		for (UINT nBucket = 0; nBucket < m_nHashTableSize; nBucket++)

  0001d	8b 57 08	 mov	 edx, DWORD PTR [edi+8]
  00020	33 c9		 xor	 ecx, ecx
  00022	85 d2		 test	 edx, edx
  00024	74 12		 je	 SHORT $LN12@GetNextAss
  00026	8b c3		 mov	 eax, ebx
$LL10@GetNextAss:

; 1651 : 		{
; 1652 : 			if ((pAssocRet = m_pHashTable[nBucket]) != NULL)

  00028	8b 30		 mov	 esi, DWORD PTR [eax]
  0002a	85 f6		 test	 esi, esi
  0002c	75 0a		 jne	 SHORT $LN12@GetNextAss

; 1648 : 	{
; 1649 : 		// find the first association
; 1650 : 		for (UINT nBucket = 0; nBucket < m_nHashTableSize; nBucket++)

  0002e	41		 inc	 ecx
  0002f	83 c0 04	 add	 eax, 4
  00032	3b ca		 cmp	 ecx, edx
  00034	73 44		 jae	 SHORT $LN37@GetNextAss
  00036	eb f0		 jmp	 SHORT $LL10@GetNextAss
$LN12@GetNextAss:

; 1658 : 	}
; 1659 : 
; 1660 : 	// find next association
; 1661 : 	ASSERT(AfxIsValidAddress(pAssocRet, sizeof(CAssoc)));
; 1662 : 	CAssoc* pAssocNext;
; 1663 : 	if ((pAssocNext = pAssocRet->pNext) == NULL)

  00038	8b 4e 08	 mov	 ecx, DWORD PTR [esi+8]
  0003b	85 c9		 test	 ecx, ecx
  0003d	75 20		 jne	 SHORT $LN38@GetNextAss

; 1664 : 	{
; 1665 : 		// go to next bucket
; 1666 : 		for (UINT nBucket = (pAssocRet->nHashValue % m_nHashTableSize) + 1;

  0003f	8b 7f 08	 mov	 edi, DWORD PTR [edi+8]
  00042	33 d2		 xor	 edx, edx
  00044	8b 46 0c	 mov	 eax, DWORD PTR [esi+12]
  00047	f7 f7		 div	 edi
  00049	42		 inc	 edx

; 1667 : 		  nBucket < m_nHashTableSize; nBucket++)

  0004a	3b d7		 cmp	 edx, edi
  0004c	73 11		 jae	 SHORT $LN38@GetNextAss

; 1668 : 			if ((pAssocNext = m_pHashTable[nBucket]) != NULL)

  0004e	8d 04 93	 lea	 eax, DWORD PTR [ebx+edx*4]
$LL16@GetNextAss:
  00051	8b 08		 mov	 ecx, DWORD PTR [eax]
  00053	85 c9		 test	 ecx, ecx
  00055	75 08		 jne	 SHORT $LN38@GetNextAss

; 1667 : 		  nBucket < m_nHashTableSize; nBucket++)

  00057	42		 inc	 edx
  00058	83 c0 04	 add	 eax, 4
  0005b	3b d7		 cmp	 edx, edi
  0005d	72 f2		 jb	 SHORT $LL16@GetNextAss
$LN38@GetNextAss:

; 1669 : 				break;
; 1670 : 	}
; 1671 : 
; 1672 : 	rNextPosition = (POSITION) pAssocNext;

  0005f	8b 45 08	 mov	 eax, DWORD PTR _rNextPosition$[ebp]

; 1673 : 
; 1674 : 	// fill in return data
; 1675 : 	rKey = pAssocRet->key;
; 1676 : 	rValue = pAssocRet->value;
; 1677 : }

  00062	5f		 pop	 edi
  00063	89 08		 mov	 DWORD PTR [eax], ecx
  00065	8b 45 0c	 mov	 eax, DWORD PTR _rKey$[ebp]
  00068	8b 0e		 mov	 ecx, DWORD PTR [esi]
  0006a	89 08		 mov	 DWORD PTR [eax], ecx
  0006c	8b 45 10	 mov	 eax, DWORD PTR _rValue$[ebp]
  0006f	8b 4e 04	 mov	 ecx, DWORD PTR [esi+4]
  00072	5e		 pop	 esi
  00073	5b		 pop	 ebx
  00074	89 08		 mov	 DWORD PTR [eax], ecx
  00076	5d		 pop	 ebp
  00077	c2 0c 00	 ret	 12			; 0000000cH
$LN37@GetNextAss:

; 1653 : 			{
; 1654 : 				break;
; 1655 : 			}
; 1656 : 		}
; 1657 : 		ENSURE(pAssocRet != NULL);  // must find something

  0007a	e8 00 00 00 00	 call	 ?AfxThrowInvalidArgException@@YGXXZ ; AfxThrowInvalidArgException
$LN39@GetNextAss:
  0007f	cc		 int	 3
?GetNextAssoc@?$CMap@PAVCConfirmWnd@@PAV1@JJ@@QBEXAAPAU__POSITION@@AAPAVCConfirmWnd@@AAJ@Z ENDP ; CMap<CConfirmWnd *,CConfirmWnd *,long,long>::GetNextAssoc
_TEXT	ENDS
; Function compile flags: /Ogtp
; File C:\Program Files (x86)\Microsoft Visual Studio\2019\Community\VC\Tools\MSVC\14.29.30133\atlmfc\include\afxtempl.h
;	COMDAT ?RemoveAll@?$CMap@PAVCConfirmWnd@@PAV1@JJ@@QAEXXZ
_TEXT	SEGMENT
?RemoveAll@?$CMap@PAVCConfirmWnd@@PAV1@JJ@@QAEXXZ PROC	; CMap<CConfirmWnd *,CConfirmWnd *,long,long>::RemoveAll, COMDAT
; _this$ = ecx

; 1443 : {

  00000	56		 push	 esi
  00001	8b f1		 mov	 esi, ecx

; 1444 : 	ASSERT_VALID(this);
; 1445 : 
; 1446 : 	if (m_pHashTable != NULL)

  00003	8b 46 04	 mov	 eax, DWORD PTR [esi+4]
  00006	85 c0		 test	 eax, eax
  00008	74 10		 je	 SHORT $LN8@RemoveAll

; 1447 : 	{
; 1448 : 		// destroy elements (values and keys)
; 1449 : 		for (UINT nHash = 0; nHash < m_nHashTableSize; nHash++)
; 1450 : 		{
; 1451 : 			CAssoc* pAssoc;
; 1452 : 			for (pAssoc = m_pHashTable[nHash]; pAssoc != NULL;
; 1453 : 			  pAssoc = pAssoc->pNext)
; 1454 : 			{
; 1455 : 				pAssoc->CAssoc::~CAssoc();
; 1456 : 			}
; 1457 : 		}
; 1458 : 
; 1459 : 		// free hash table
; 1460 : 		delete[] m_pHashTable;

  0000a	50		 push	 eax
  0000b	e8 00 00 00 00	 call	 ??_V@YAXPAX@Z		; operator delete[]
  00010	83 c4 04	 add	 esp, 4

; 1461 : 		m_pHashTable = NULL;

  00013	c7 46 04 00 00
	00 00		 mov	 DWORD PTR [esi+4], 0
$LN8@RemoveAll:

; 1462 : 	}
; 1463 : 
; 1464 : 	m_nCount = 0;
; 1465 : 	m_pFreeList = NULL;
; 1466 : 	m_pBlocks->FreeDataChain();

  0001a	8b 4e 14	 mov	 ecx, DWORD PTR [esi+20]
  0001d	c7 46 0c 00 00
	00 00		 mov	 DWORD PTR [esi+12], 0
  00024	c7 46 10 00 00
	00 00		 mov	 DWORD PTR [esi+16], 0
  0002b	e8 00 00 00 00	 call	 ?FreeDataChain@CPlex@@QAEXXZ ; CPlex::FreeDataChain

; 1467 : 	m_pBlocks = NULL;

  00030	c7 46 14 00 00
	00 00		 mov	 DWORD PTR [esi+20], 0
  00037	5e		 pop	 esi

; 1468 : }

  00038	c3		 ret	 0
?RemoveAll@?$CMap@PAVCConfirmWnd@@PAV1@JJ@@QAEXXZ ENDP	; CMap<CConfirmWnd *,CConfirmWnd *,long,long>::RemoveAll
_TEXT	ENDS
; Function compile flags: /Ogtp
; File C:\Program Files (x86)\Microsoft Visual Studio\2019\Community\VC\Tools\MSVC\14.29.30133\atlmfc\include\afxtempl.h
;	COMDAT ?RemoveKey@?$CMap@PAVCConfirmWnd@@PAV1@JJ@@QAEHPAVCConfirmWnd@@@Z
_TEXT	SEGMENT
_key$ = 8						; size = 4
?RemoveKey@?$CMap@PAVCConfirmWnd@@PAV1@JJ@@QAEHPAVCConfirmWnd@@@Z PROC ; CMap<CConfirmWnd *,CConfirmWnd *,long,long>::RemoveKey, COMDAT
; _this$ = ecx

; 1611 : {

  00000	55		 push	 ebp
  00001	8b ec		 mov	 ebp, esp
  00003	53		 push	 ebx
  00004	56		 push	 esi
  00005	8b f1		 mov	 esi, ecx
  00007	57		 push	 edi

; 1612 : 	ASSERT_VALID(this);
; 1613 : 
; 1614 : 	if (m_pHashTable == NULL)

  00008	83 7e 04 00	 cmp	 DWORD PTR [esi+4], 0
  0000c	74 49		 je	 SHORT $LN48@RemoveKey

; 165  : 	ldiv_t HashVal = ldiv((long)(ARG_KEY)key, 127773);

  0000e	8b 5d 08	 mov	 ebx, DWORD PTR _key$[ebp]
  00011	b9 1d f3 01 00	 mov	 ecx, 127773		; 0001f31dH
  00016	8b c3		 mov	 eax, ebx
  00018	99		 cdq
  00019	f7 f9		 idiv	 ecx

; 166  : 	HashVal.rem = 16807 * HashVal.rem - 2836 * HashVal.quot;

  0001b	69 c0 14 0b 00
	00		 imul	 eax, eax, 2836
  00021	69 ca a7 41 00
	00		 imul	 ecx, edx, 16807
  00027	2b c8		 sub	 ecx, eax

; 1615 : 		return FALSE;  // nothing in the table
; 1616 : 
; 1617 : 	UINT nHashValue;
; 1618 : 	CAssoc** ppAssocPrev;
; 1619 : 	nHashValue = HashKey<ARG_KEY>(key);
; 1620 : 	ppAssocPrev = &m_pHashTable[nHashValue%m_nHashTableSize];

  00029	8d b9 ff ff ff
	7f		 lea	 edi, DWORD PTR [ecx+2147483647]
  0002f	0f 49 f9	 cmovns	 edi, ecx
  00032	33 d2		 xor	 edx, edx
  00034	8b c7		 mov	 eax, edi
  00036	f7 76 08	 div	 DWORD PTR [esi+8]
  00039	8b 46 04	 mov	 eax, DWORD PTR [esi+4]
  0003c	8d 14 90	 lea	 edx, DWORD PTR [eax+edx*4]

; 1621 : 
; 1622 : 	CAssoc* pAssoc;
; 1623 : 	for (pAssoc = *ppAssocPrev; pAssoc != NULL; pAssoc = pAssoc->pNext)

  0003f	8b 02		 mov	 eax, DWORD PTR [edx]
  00041	85 c0		 test	 eax, eax
  00043	74 12		 je	 SHORT $LN48@RemoveKey
$LL4@RemoveKey:

; 1624 : 	{
; 1625 : 		if ((pAssoc->nHashValue == nHashValue) && CompareElements(&pAssoc->key, &key))

  00045	39 78 0c	 cmp	 DWORD PTR [eax+12], edi
  00048	75 04		 jne	 SHORT $LN6@RemoveKey

; 156  : 	return *pElement1 == *pElement2;

  0004a	39 18		 cmp	 DWORD PTR [eax], ebx

; 1624 : 	{
; 1625 : 		if ((pAssoc->nHashValue == nHashValue) && CompareElements(&pAssoc->key, &key))

  0004c	74 12		 je	 SHORT $LN36@RemoveKey
$LN6@RemoveKey:

; 1629 : 			FreeAssoc(pAssoc);
; 1630 : 			return TRUE;
; 1631 : 		}
; 1632 : 		ppAssocPrev = &pAssoc->pNext;

  0004e	8d 50 08	 lea	 edx, DWORD PTR [eax+8]
  00051	8b 02		 mov	 eax, DWORD PTR [edx]
  00053	85 c0		 test	 eax, eax
  00055	75 ee		 jne	 SHORT $LL4@RemoveKey
$LN48@RemoveKey:
  00057	5f		 pop	 edi

; 1633 : 	}
; 1634 : 	return FALSE;  // not found
; 1635 : }

  00058	5e		 pop	 esi
  00059	33 c0		 xor	 eax, eax
  0005b	5b		 pop	 ebx
  0005c	5d		 pop	 ebp
  0005d	c2 04 00	 ret	 4
$LN36@RemoveKey:

; 1626 : 		{
; 1627 : 			// remove it
; 1628 : 			*ppAssocPrev = pAssoc->pNext;  // remove from list

  00060	8b 48 08	 mov	 ecx, DWORD PTR [eax+8]
  00063	89 0a		 mov	 DWORD PTR [edx], ecx

; 1518 : 	pAssoc->pNext = m_pFreeList;

  00065	8b 4e 10	 mov	 ecx, DWORD PTR [esi+16]
  00068	89 48 08	 mov	 DWORD PTR [eax+8], ecx

; 1519 : 	m_pFreeList = pAssoc;
; 1520 : 	m_nCount--;

  0006b	83 46 0c ff	 add	 DWORD PTR [esi+12], -1
  0006f	89 46 10	 mov	 DWORD PTR [esi+16], eax

; 1521 : 	ASSERT(m_nCount >= 0);  // make sure we don't underflow
; 1522 : 
; 1523 : 	// if no more elements, cleanup completely
; 1524 : 	if (m_nCount == 0)

  00072	75 34		 jne	 SHORT $LN21@RemoveKey

; 1446 : 	if (m_pHashTable != NULL)

  00074	8b 46 04	 mov	 eax, DWORD PTR [esi+4]
  00077	85 c0		 test	 eax, eax
  00079	74 10		 je	 SHORT $LN30@RemoveKey

; 1447 : 	{
; 1448 : 		// destroy elements (values and keys)
; 1449 : 		for (UINT nHash = 0; nHash < m_nHashTableSize; nHash++)
; 1450 : 		{
; 1451 : 			CAssoc* pAssoc;
; 1452 : 			for (pAssoc = m_pHashTable[nHash]; pAssoc != NULL;
; 1453 : 			  pAssoc = pAssoc->pNext)
; 1454 : 			{
; 1455 : 				pAssoc->CAssoc::~CAssoc();
; 1456 : 			}
; 1457 : 		}
; 1458 : 
; 1459 : 		// free hash table
; 1460 : 		delete[] m_pHashTable;

  0007b	50		 push	 eax
  0007c	e8 00 00 00 00	 call	 ??_V@YAXPAX@Z		; operator delete[]
  00081	83 c4 04	 add	 esp, 4

; 1461 : 		m_pHashTable = NULL;

  00084	c7 46 04 00 00
	00 00		 mov	 DWORD PTR [esi+4], 0
$LN30@RemoveKey:

; 1462 : 	}
; 1463 : 
; 1464 : 	m_nCount = 0;
; 1465 : 	m_pFreeList = NULL;
; 1466 : 	m_pBlocks->FreeDataChain();

  0008b	8b 4e 14	 mov	 ecx, DWORD PTR [esi+20]
  0008e	c7 46 0c 00 00
	00 00		 mov	 DWORD PTR [esi+12], 0
  00095	c7 46 10 00 00
	00 00		 mov	 DWORD PTR [esi+16], 0
  0009c	e8 00 00 00 00	 call	 ?FreeDataChain@CPlex@@QAEXXZ ; CPlex::FreeDataChain

; 1467 : 	m_pBlocks = NULL;

  000a1	c7 46 14 00 00
	00 00		 mov	 DWORD PTR [esi+20], 0
$LN21@RemoveKey:
  000a8	5f		 pop	 edi

; 1633 : 	}
; 1634 : 	return FALSE;  // not found
; 1635 : }

  000a9	5e		 pop	 esi
  000aa	b8 01 00 00 00	 mov	 eax, 1
  000af	5b		 pop	 ebx
  000b0	5d		 pop	 ebp
  000b1	c2 04 00	 ret	 4
?RemoveKey@?$CMap@PAVCConfirmWnd@@PAV1@JJ@@QAEHPAVCConfirmWnd@@@Z ENDP ; CMap<CConfirmWnd *,CConfirmWnd *,long,long>::RemoveKey
_TEXT	ENDS
; Function compile flags: /Ogtp
; File C:\Program Files (x86)\Microsoft Visual Studio\2019\Community\VC\Tools\MSVC\14.29.30133\atlmfc\include\afxtempl.h
;	COMDAT ?SetAt@?$CMap@PAVCConfirmWnd@@PAV1@JJ@@QAEXPAVCConfirmWnd@@J@Z
_TEXT	SEGMENT
_nHashBucket$1 = -8					; size = 4
_nHashValue$2 = -4					; size = 4
_key$ = 8						; size = 4
_newValue$ = 12						; size = 4
?SetAt@?$CMap@PAVCConfirmWnd@@PAV1@JJ@@QAEXPAVCConfirmWnd@@J@Z PROC ; CMap<CConfirmWnd *,CConfirmWnd *,long,long>::SetAt, COMDAT
; _this$ = ecx

; 1350 : 	{ (*this)[key] = newValue; }

  00000	55		 push	 ebp
  00001	8b ec		 mov	 ebp, esp
  00003	83 ec 08	 sub	 esp, 8

; 1590 : 	if ((pAssoc = GetAssocAt(key, nHashBucket, nHashValue)) == NULL)

  00006	8d 45 fc	 lea	 eax, DWORD PTR _nHashValue$2[ebp]

; 1350 : 	{ (*this)[key] = newValue; }

  00009	53		 push	 ebx

; 1590 : 	if ((pAssoc = GetAssocAt(key, nHashBucket, nHashValue)) == NULL)

  0000a	8b 5d 08	 mov	 ebx, DWORD PTR _key$[ebp]

; 1350 : 	{ (*this)[key] = newValue; }

  0000d	56		 push	 esi

; 1590 : 	if ((pAssoc = GetAssocAt(key, nHashBucket, nHashValue)) == NULL)

  0000e	50		 push	 eax
  0000f	8d 45 f8	 lea	 eax, DWORD PTR _nHashBucket$1[ebp]

; 1350 : 	{ (*this)[key] = newValue; }

  00012	8b f1		 mov	 esi, ecx

; 1590 : 	if ((pAssoc = GetAssocAt(key, nHashBucket, nHashValue)) == NULL)

  00014	50		 push	 eax
  00015	53		 push	 ebx
  00016	e8 00 00 00 00	 call	 ?GetAssocAt@?$CMap@PAVCConfirmWnd@@PAV1@JJ@@IBEPAVCAssoc@1@PAVCConfirmWnd@@AAI1@Z ; CMap<CConfirmWnd *,CConfirmWnd *,long,long>::GetAssocAt
  0001b	8b d0		 mov	 edx, eax
  0001d	85 d2		 test	 edx, edx
  0001f	0f 85 cd 00 00
	00		 jne	 $LN7@SetAt

; 1591 : 	{
; 1592 : 		if (m_pHashTable == NULL)

  00025	8b 46 04	 mov	 eax, DWORD PTR [esi+4]
  00028	85 c0		 test	 eax, eax
  0002a	75 4c		 jne	 SHORT $LN42@SetAt

; 1593 : 			InitHashTable(m_nHashTableSize);

  0002c	57		 push	 edi
  0002d	8b 7e 08	 mov	 edi, DWORD PTR [esi+8]

; 1434 : 		m_pHashTable = new CAssoc* [nHashSize];

  00030	33 c9		 xor	 ecx, ecx
  00032	8b c7		 mov	 eax, edi
  00034	ba 04 00 00 00	 mov	 edx, 4
  00039	f7 e2		 mul	 edx
  0003b	0f 90 c1	 seto	 cl
  0003e	f7 d9		 neg	 ecx
  00040	0b c8		 or	 ecx, eax
  00042	51		 push	 ecx
  00043	e8 00 00 00 00	 call	 ??_U@YAPAXI@Z		; operator new[]
  00048	83 c4 04	 add	 esp, 4
  0004b	89 46 04	 mov	 DWORD PTR [esi+4], eax

; 1435 : 		ENSURE(m_pHashTable != NULL);

  0004e	85 c0		 test	 eax, eax
  00050	0f 84 aa 00 00
	00		 je	 $LN39@SetAt

; 1436 : 		memset(m_pHashTable, 0, sizeof(CAssoc*) * nHashSize);

  00056	8d 0c bd 00 00
	00 00		 lea	 ecx, DWORD PTR [edi*4]
  0005d	51		 push	 ecx
  0005e	6a 00		 push	 0
  00060	50		 push	 eax
  00061	e8 00 00 00 00	 call	 _memset

; 1437 : 	}
; 1438 : 	m_nHashTableSize = nHashSize;

  00066	8b 46 04	 mov	 eax, DWORD PTR [esi+4]
  00069	83 c4 0c	 add	 esp, 12			; 0000000cH
  0006c	89 7e 08	 mov	 DWORD PTR [esi+8], edi
  0006f	5f		 pop	 edi

; 1595 : 		ENSURE(m_pHashTable);

  00070	85 c0		 test	 eax, eax
  00072	0f 84 88 00 00
	00		 je	 $LN39@SetAt
$LN42@SetAt:

; 1481 : 	if (m_pFreeList == NULL)

  00078	83 7e 10 00	 cmp	 DWORD PTR [esi+16], 0
  0007c	75 34		 jne	 SHORT $LN26@SetAt

; 1482 : 	{
; 1483 : 		// add another block
; 1484 : 		CPlex* newBlock = CPlex::Create(m_pBlocks, m_nBlockSize, sizeof(CMap::CAssoc));

  0007e	6a 10		 push	 16			; 00000010H
  00080	ff 76 18	 push	 DWORD PTR [esi+24]
  00083	8d 46 14	 lea	 eax, DWORD PTR [esi+20]
  00086	50		 push	 eax
  00087	e8 00 00 00 00	 call	 ?Create@CPlex@@SGPAU1@AAPAU1@II@Z ; CPlex::Create

; 1485 : 		// chain them into free list
; 1486 : 		CMap::CAssoc* pAssoc = (CMap::CAssoc*) newBlock->data();
; 1487 : 		// free in reverse order to make it easier to debug
; 1488 : 		pAssoc += m_nBlockSize - 1;

  0008c	8b 56 18	 mov	 edx, DWORD PTR [esi+24]
  0008f	83 c0 08	 add	 eax, 8
  00092	8b ca		 mov	 ecx, edx
  00094	c1 e1 04	 shl	 ecx, 4
  00097	83 c1 f0	 add	 ecx, -16		; fffffff0H
  0009a	03 c8		 add	 ecx, eax

; 1489 : 		for (INT_PTR i = m_nBlockSize-1; i >= 0; i--, pAssoc--)

  0009c	83 c2 ff	 add	 edx, -1
  0009f	78 11		 js	 SHORT $LN26@SetAt
$LL23@SetAt:

; 1490 : 		{
; 1491 : 			pAssoc->pNext = m_pFreeList;

  000a1	8b 46 10	 mov	 eax, DWORD PTR [esi+16]
  000a4	89 41 08	 mov	 DWORD PTR [ecx+8], eax

; 1492 : 			m_pFreeList = pAssoc;

  000a7	89 4e 10	 mov	 DWORD PTR [esi+16], ecx
  000aa	83 e9 10	 sub	 ecx, 16			; 00000010H
  000ad	83 ea 01	 sub	 edx, 1
  000b0	79 ef		 jns	 SHORT $LL23@SetAt
$LN26@SetAt:

; 1493 : 		}
; 1494 : 	}
; 1495 : 	ENSURE(m_pFreeList != NULL);  // we must have something

  000b2	8b 56 10	 mov	 edx, DWORD PTR [esi+16]
  000b5	85 d2		 test	 edx, edx
  000b7	74 47		 je	 SHORT $LN39@SetAt

; 1496 : 
; 1497 : 	CMap::CAssoc* pAssoc = m_pFreeList;
; 1498 : 
; 1499 : 	// zero the memory
; 1500 : 	CMap::CAssoc* pTemp = pAssoc->pNext;

  000b9	8b 42 08	 mov	 eax, DWORD PTR [edx+8]
  000bc	0f 57 c0	 xorps	 xmm0, xmm0

; 1501 : 	memset( pAssoc, 0, sizeof(CMap::CAssoc) );

  000bf	0f 11 02	 movups	 XMMWORD PTR [edx], xmm0

; 1502 : 	pAssoc->pNext = pTemp;

  000c2	89 42 08	 mov	 DWORD PTR [edx+8], eax

; 1503 : 
; 1504 : 	m_pFreeList = m_pFreeList->pNext;

  000c5	8b 46 10	 mov	 eax, DWORD PTR [esi+16]
  000c8	8b 40 08	 mov	 eax, DWORD PTR [eax+8]

; 1505 : 	m_nCount++;

  000cb	ff 46 0c	 inc	 DWORD PTR [esi+12]
  000ce	89 46 10	 mov	 DWORD PTR [esi+16], eax

; 1598 : 		pAssoc->nHashValue = nHashValue;

  000d1	8b 45 fc	 mov	 eax, DWORD PTR _nHashValue$2[ebp]
  000d4	89 42 0c	 mov	 DWORD PTR [edx+12], eax

; 1599 : 		//'pAssoc->value' is a constructed object, nothing more
; 1600 : 
; 1601 : 		// put into hash table
; 1602 : 		pAssoc->pNext = m_pHashTable[nHashBucket];

  000d7	8b 45 f8	 mov	 eax, DWORD PTR _nHashBucket$1[ebp]

; 1256 : 		CPair( ARG_KEY keyval ) : key( keyval )	{}

  000da	89 1a		 mov	 DWORD PTR [edx], ebx

; 1602 : 		pAssoc->pNext = m_pHashTable[nHashBucket];

  000dc	8d 0c 85 00 00
	00 00		 lea	 ecx, DWORD PTR [eax*4]
  000e3	8b 46 04	 mov	 eax, DWORD PTR [esi+4]
  000e6	8b 04 01	 mov	 eax, DWORD PTR [ecx+eax]
  000e9	89 42 08	 mov	 DWORD PTR [edx+8], eax

; 1603 : 		m_pHashTable[nHashBucket] = pAssoc;

  000ec	8b 46 04	 mov	 eax, DWORD PTR [esi+4]
  000ef	89 14 01	 mov	 DWORD PTR [ecx+eax], edx
$LN7@SetAt:

; 1350 : 	{ (*this)[key] = newValue; }

  000f2	8b 45 0c	 mov	 eax, DWORD PTR _newValue$[ebp]
  000f5	5e		 pop	 esi
  000f6	89 42 04	 mov	 DWORD PTR [edx+4], eax
  000f9	5b		 pop	 ebx
  000fa	8b e5		 mov	 esp, ebp
  000fc	5d		 pop	 ebp
  000fd	c2 08 00	 ret	 8
$LN39@SetAt:

; 1495 : 	ENSURE(m_pFreeList != NULL);  // we must have something

  00100	e8 00 00 00 00	 call	 ?AfxThrowInvalidArgException@@YGXXZ ; AfxThrowInvalidArgException
$LN40@SetAt:
  00105	cc		 int	 3
?SetAt@?$CMap@PAVCConfirmWnd@@PAV1@JJ@@QAEXPAVCConfirmWnd@@J@Z ENDP ; CMap<CConfirmWnd *,CConfirmWnd *,long,long>::SetAt
_TEXT	ENDS
; Function compile flags: /Ogtp
; File C:\Program Files (x86)\Microsoft Visual Studio\2019\Community\VC\Tools\MSVC\14.29.30133\atlmfc\include\afxtempl.h
;	COMDAT ??A?$CMap@PAVCConfirmWnd@@PAV1@JJ@@QAEAAJPAVCConfirmWnd@@@Z
_TEXT	SEGMENT
_nHashBucket$ = -8					; size = 4
_nHashValue$ = -4					; size = 4
_key$ = 8						; size = 4
??A?$CMap@PAVCConfirmWnd@@PAV1@JJ@@QAEAAJPAVCConfirmWnd@@@Z PROC ; CMap<CConfirmWnd *,CConfirmWnd *,long,long>::operator[], COMDAT
; _this$ = ecx

; 1585 : {

  00000	55		 push	 ebp
  00001	8b ec		 mov	 ebp, esp
  00003	83 ec 08	 sub	 esp, 8

; 1586 : 	ASSERT_VALID(this);
; 1587 : 
; 1588 : 	UINT nHashBucket, nHashValue;
; 1589 : 	CAssoc* pAssoc;
; 1590 : 	if ((pAssoc = GetAssocAt(key, nHashBucket, nHashValue)) == NULL)

  00006	8d 45 fc	 lea	 eax, DWORD PTR _nHashValue$[ebp]
  00009	53		 push	 ebx
  0000a	8b 5d 08	 mov	 ebx, DWORD PTR _key$[ebp]
  0000d	56		 push	 esi
  0000e	50		 push	 eax
  0000f	8d 45 f8	 lea	 eax, DWORD PTR _nHashBucket$[ebp]
  00012	8b f1		 mov	 esi, ecx
  00014	50		 push	 eax
  00015	53		 push	 ebx
  00016	e8 00 00 00 00	 call	 ?GetAssocAt@?$CMap@PAVCConfirmWnd@@PAV1@JJ@@IBEPAVCAssoc@1@PAVCConfirmWnd@@AAI1@Z ; CMap<CConfirmWnd *,CConfirmWnd *,long,long>::GetAssocAt
  0001b	8b d0		 mov	 edx, eax
  0001d	85 d2		 test	 edx, edx
  0001f	0f 85 cd 00 00
	00		 jne	 $LN5@operator

; 1591 : 	{
; 1592 : 		if (m_pHashTable == NULL)

  00025	8b 46 04	 mov	 eax, DWORD PTR [esi+4]
  00028	85 c0		 test	 eax, eax
  0002a	75 4c		 jne	 SHORT $LN39@operator

; 1593 : 			InitHashTable(m_nHashTableSize);

  0002c	57		 push	 edi
  0002d	8b 7e 08	 mov	 edi, DWORD PTR [esi+8]

; 1434 : 		m_pHashTable = new CAssoc* [nHashSize];

