; Listing generated by Microsoft (R) Optimizing Compiler Version 19.29.30145.0 

	TITLE	D:\git\src\IBK\IBK_DRFN\#DRfn-CS\_Obj\MultiChart\TabSystemTradingEx.obj
	.686P
	.XMM
	include listing.inc
	.model	flat

INCLUDELIB MSVCRT
INCLUDELIB OLDNAMES

PUBLIC	??_C@_0BB@IBKHOHJL@RMSG_REPLAY_REAL@		; `string'
PUBLIC	??_C@_0BB@JFLGBADG@RMSG_REPLAY_FAIL@		; `string'
PUBLIC	??_C@_0BI@KDGAIIMD@RMSG_REPLAY_CHANGE_DATE@	; `string'
PUBLIC	??_C@_0BA@NKHHCPON@RMSG_REPLAY_END@		; `string'
PUBLIC	??_C@_0BE@JFCIMCIP@RMSG_REPLAY_INC_SEC@		; `string'
PUBLIC	??_C@_0BG@GIAJEIJF@RMSG_REPLAY_TOTAL_SEC@	; `string'
PUBLIC	??_C@_0BG@OHIMHJEO@RMSG_STTREE_ITEMCLICK@	; `string'
PUBLIC	??_C@_0BH@LAAMLACL@RMSG_STTREE_ITEMDBLCLK@	; `string'
PUBLIC	??_C@_0P@BKKCOCLK@RMSG_INTERFACE@		; `string'
PUBLIC	?m_bInitFailed@CAtlBaseModule@ATL@@2_NA		; ATL::CAtlBaseModule::m_bInitFailed
PUBLIC	?WM_ATLGETHOST@ATL@@3IA				; ATL::WM_ATLGETHOST
PUBLIC	?WM_ATLGETCONTROL@ATL@@3IA			; ATL::WM_ATLGETCONTROL
PUBLIC	??_C@_0BE@FJPKENOB@RMSG_GETSIGNAL_REAL@		; `string'
PUBLIC	??_C@_0BB@CNOFPEHG@RMSG_SETQUERYOPT@		; `string'
PUBLIC	??_C@_0P@KHFCBIOH@RMSG_CHARTMAIN@		; `string'
PUBLIC	??_C@_0BC@MMPGLPDH@RMS_ANALYSIS_FUNC@		; `string'
PUBLIC	??_C@_0BA@HKNFENJL@RMSG_GET_USERID@		; `string'
PUBLIC	??_C@_0BG@CNPAHNGG@RMSG_CHANGE_SKINCOLOR@	; `string'
PUBLIC	??_C@_0BD@FLDNDDHK@RMSG_GET_SKINCOLOR@		; `string'
PUBLIC	??_C@_0BJ@JLKHIBIK@RMSG_CHANGEVERTSCALETYPE@	; `string'
PUBLIC	??_C@_0BG@LNLCJKPF@RMSG_CHANGE_CROSSLINE@	; `string'
PUBLIC	??_C@_0BH@IFDMIMBP@RMSG_ADD_PLATFORM_MENU@	; `string'
PUBLIC	??_C@_0BJ@OGNAJHHI@RMSG_SETINITIALCHARTDATA@	; `string'
PUBLIC	??_C@_0N@IIOKMIEH@RMSG_GETINFO@			; `string'
PUBLIC	??_C@_0N@HABLPHJG@RMSG_SETINFO@			; `string'
PUBLIC	?_pAtlModule@ATL@@3PAVCAtlModule@1@A		; ATL::_pAtlModule
PUBLIC	??_C@_0BC@LAMDBJGM@RMSG_OB_ITEMCLICK@		; `string'
PUBLIC	??_C@_0BD@GFDLLOKP@RMSG_OB_ITEMDBLCLK@		; `string'
PUBLIC	??_C@_0BB@MOBJEGOO@RMSG_RUN_MULTIST@		; `string'
PUBLIC	??_C@_0BP@BAPIAINO@RMSG_INDEXADDIN_NOTIFY_RAWDATA@ ; `string'
PUBLIC	??_C@_0BP@DPOBLABI@RMSG_INDEXADDIN_NOTIFY_BUYSELL@ ; `string'
PUBLIC	??_C@_0BO@OEMLJDPK@RMSG_INDEXADDIN_NOTIFY_SIGNAL@ ; `string'
PUBLIC	??_C@_0BI@HDHMAMNF@RMSG_DESTROY_CONFIRMWND@	; `string'
PUBLIC	??_C@_0BK@HAGIDNEN@RMSG_GET_SCREENVIEWHANDLE@	; `string'
PUBLIC	??_C@_0BG@LAFFFKAH@RMSG_REQUEST_HOGADATA@	; `string'
PUBLIC	??_C@_0BC@HAIAMDMN@RMSG_ISSTRUNSTATE@		; `string'
PUBLIC	?_pAtlAutoThreadModule@ATL@@3PAUIAtlAutoThreadModule@1@A ; ATL::_pAtlAutoThreadModule
EXTRN	?_AtlBaseModule@ATL@@3VCAtlBaseModule@1@A:BYTE	; ATL::_AtlBaseModule
;	COMDAT ?m_bInitFailed@CAtlBaseModule@ATL@@2_NA
_BSS	SEGMENT
?m_bInitFailed@CAtlBaseModule@ATL@@2_NA DB 01H DUP (?)	; ATL::CAtlBaseModule::m_bInitFailed
_BSS	ENDS
;	COMDAT ?WM_ATLGETHOST@ATL@@3IA
_BSS	SEGMENT
?WM_ATLGETHOST@ATL@@3IA DD 01H DUP (?)			; ATL::WM_ATLGETHOST
_BSS	ENDS
;	COMDAT ?WM_ATLGETCONTROL@ATL@@3IA
_BSS	SEGMENT
?WM_ATLGETCONTROL@ATL@@3IA DD 01H DUP (?)		; ATL::WM_ATLGETCONTROL
_BSS	ENDS
;	COMDAT ?_pAtlModule@ATL@@3PAVCAtlModule@1@A
_BSS	SEGMENT
?_pAtlModule@ATL@@3PAVCAtlModule@1@A DD 01H DUP (?)	; ATL::_pAtlModule
_BSS	ENDS
;	COMDAT ?_pAtlAutoThreadModule@ATL@@3PAUIAtlAutoThreadModule@1@A
_BSS	SEGMENT
?_pAtlAutoThreadModule@ATL@@3PAUIAtlAutoThreadModule@1@A DD 01H DUP (?) ; ATL::_pAtlAutoThreadModule
_BSS	ENDS
;	COMDAT ??_C@_0BC@HAIAMDMN@RMSG_ISSTRUNSTATE@
CONST	SEGMENT
??_C@_0BC@HAIAMDMN@RMSG_ISSTRUNSTATE@ DB 'RMSG_ISSTRUNSTATE', 00H ; `string'
CONST	ENDS
;	COMDAT ??_C@_0BG@LAFFFKAH@RMSG_REQUEST_HOGADATA@
CONST	SEGMENT
??_C@_0BG@LAFFFKAH@RMSG_REQUEST_HOGADATA@ DB 'RMSG_REQUEST_HOGADATA', 00H ; `string'
CONST	ENDS
;	COMDAT ??_C@_0BK@HAGIDNEN@RMSG_GET_SCREENVIEWHANDLE@
CONST	SEGMENT
??_C@_0BK@HAGIDNEN@RMSG_GET_SCREENVIEWHANDLE@ DB 'RMSG_GET_SCREENVIEWHAND'
	DB	'LE', 00H					; `string'
CONST	ENDS
;	COMDAT ??_C@_0BI@HDHMAMNF@RMSG_DESTROY_CONFIRMWND@
CONST	SEGMENT
??_C@_0BI@HDHMAMNF@RMSG_DESTROY_CONFIRMWND@ DB 'RMSG_DESTROY_CONFIRMWND', 00H ; `string'
CONST	ENDS
;	COMDAT ??_C@_0BO@OEMLJDPK@RMSG_INDEXADDIN_NOTIFY_SIGNAL@
CONST	SEGMENT
??_C@_0BO@OEMLJDPK@RMSG_INDEXADDIN_NOTIFY_SIGNAL@ DB 'RMSG_INDEXADDIN_NOT'
	DB	'IFY_SIGNAL', 00H				; `string'
CONST	ENDS
;	COMDAT ??_C@_0BP@DPOBLABI@RMSG_INDEXADDIN_NOTIFY_BUYSELL@
CONST	SEGMENT
??_C@_0BP@DPOBLABI@RMSG_INDEXADDIN_NOTIFY_BUYSELL@ DB 'RMSG_INDEXADDIN_NO'
	DB	'TIFY_BUYSELL', 00H				; `string'
CONST	ENDS
;	COMDAT ??_C@_0BP@BAPIAINO@RMSG_INDEXADDIN_NOTIFY_RAWDATA@
CONST	SEGMENT
??_C@_0BP@BAPIAINO@RMSG_INDEXADDIN_NOTIFY_RAWDATA@ DB 'RMSG_INDEXADDIN_NO'
	DB	'TIFY_RAWDATA', 00H				; `string'
CONST	ENDS
;	COMDAT ??_C@_0BB@MOBJEGOO@RMSG_RUN_MULTIST@
CONST	SEGMENT
??_C@_0BB@MOBJEGOO@RMSG_RUN_MULTIST@ DB 'RMSG_RUN_MULTIST', 00H ; `string'
CONST	ENDS
;	COMDAT ??_C@_0BD@GFDLLOKP@RMSG_OB_ITEMDBLCLK@
CONST	SEGMENT
??_C@_0BD@GFDLLOKP@RMSG_OB_ITEMDBLCLK@ DB 'RMSG_OB_ITEMDBLCLK', 00H ; `string'
CONST	ENDS
;	COMDAT ??_C@_0BC@LAMDBJGM@RMSG_OB_ITEMCLICK@
CONST	SEGMENT
??_C@_0BC@LAMDBJGM@RMSG_OB_ITEMCLICK@ DB 'RMSG_OB_ITEMCLICK', 00H ; `string'
CONST	ENDS
;	COMDAT ??_C@_0N@HABLPHJG@RMSG_SETINFO@
CONST	SEGMENT
??_C@_0N@HABLPHJG@RMSG_SETINFO@ DB 'RMSG_SETINFO', 00H	; `string'
CONST	ENDS
;	COMDAT ??_C@_0N@IIOKMIEH@RMSG_GETINFO@
CONST	SEGMENT
??_C@_0N@IIOKMIEH@RMSG_GETINFO@ DB 'RMSG_GETINFO', 00H	; `string'
CONST	ENDS
;	COMDAT ??_C@_0BJ@OGNAJHHI@RMSG_SETINITIALCHARTDATA@
CONST	SEGMENT
??_C@_0BJ@OGNAJHHI@RMSG_SETINITIALCHARTDATA@ DB 'RMSG_SETINITIALCHARTDATA'
	DB	00H						; `string'
CONST	ENDS
;	COMDAT ??_C@_0BH@IFDMIMBP@RMSG_ADD_PLATFORM_MENU@
CONST	SEGMENT
??_C@_0BH@IFDMIMBP@RMSG_ADD_PLATFORM_MENU@ DB 'RMSG_ADD_PLATFORM_MENU', 00H ; `string'
CONST	ENDS
;	COMDAT ??_C@_0BG@LNLCJKPF@RMSG_CHANGE_CROSSLINE@
CONST	SEGMENT
??_C@_0BG@LNLCJKPF@RMSG_CHANGE_CROSSLINE@ DB 'RMSG_CHANGE_CROSSLINE', 00H ; `string'
CONST	ENDS
;	COMDAT ??_C@_0BJ@JLKHIBIK@RMSG_CHANGEVERTSCALETYPE@
CONST	SEGMENT
??_C@_0BJ@JLKHIBIK@RMSG_CHANGEVERTSCALETYPE@ DB 'RMSG_CHANGEVERTSCALETYPE'
	DB	00H						; `string'
CONST	ENDS
;	COMDAT ??_C@_0BD@FLDNDDHK@RMSG_GET_SKINCOLOR@
CONST	SEGMENT
??_C@_0BD@FLDNDDHK@RMSG_GET_SKINCOLOR@ DB 'RMSG_GET_SKINCOLOR', 00H ; `string'
CONST	ENDS
;	COMDAT ??_C@_0BG@CNPAHNGG@RMSG_CHANGE_SKINCOLOR@
CONST	SEGMENT
??_C@_0BG@CNPAHNGG@RMSG_CHANGE_SKINCOLOR@ DB 'RMSG_CHANGE_SKINCOLOR', 00H ; `string'
CONST	ENDS
;	COMDAT ??_C@_0BA@HKNFENJL@RMSG_GET_USERID@
CONST	SEGMENT
??_C@_0BA@HKNFENJL@RMSG_GET_USERID@ DB 'RMSG_GET_USERID', 00H ; `string'
CONST	ENDS
;	COMDAT ??_C@_0BC@MMPGLPDH@RMS_ANALYSIS_FUNC@
CONST	SEGMENT
??_C@_0BC@MMPGLPDH@RMS_ANALYSIS_FUNC@ DB 'RMS_ANALYSIS_FUNC', 00H ; `string'
CONST	ENDS
;	COMDAT ??_C@_0P@KHFCBIOH@RMSG_CHARTMAIN@
CONST	SEGMENT
??_C@_0P@KHFCBIOH@RMSG_CHARTMAIN@ DB 'RMSG_CHARTMAIN', 00H ; `string'
CONST	ENDS
;	COMDAT ??_C@_0BB@CNOFPEHG@RMSG_SETQUERYOPT@
CONST	SEGMENT
??_C@_0BB@CNOFPEHG@RMSG_SETQUERYOPT@ DB 'RMSG_SETQUERYOPT', 00H ; `string'
CONST	ENDS
;	COMDAT ??_C@_0BE@FJPKENOB@RMSG_GETSIGNAL_REAL@
CONST	SEGMENT
??_C@_0BE@FJPKENOB@RMSG_GETSIGNAL_REAL@ DB 'RMSG_GETSIGNAL_REAL', 00H ; `string'
CONST	ENDS
;	COMDAT ??_C@_0P@BKKCOCLK@RMSG_INTERFACE@
CONST	SEGMENT
??_C@_0P@BKKCOCLK@RMSG_INTERFACE@ DB 'RMSG_INTERFACE', 00H ; `string'
CONST	ENDS
;	COMDAT ??_C@_0BH@LAAMLACL@RMSG_STTREE_ITEMDBLCLK@
CONST	SEGMENT
??_C@_0BH@LAAMLACL@RMSG_STTREE_ITEMDBLCLK@ DB 'RMSG_STTREE_ITEMDBLCLK', 00H ; `string'
CONST	ENDS
;	COMDAT ??_C@_0BG@OHIMHJEO@RMSG_STTREE_ITEMCLICK@
CONST	SEGMENT
??_C@_0BG@OHIMHJEO@RMSG_STTREE_ITEMCLICK@ DB 'RMSG_STTREE_ITEMCLICK', 00H ; `string'
CONST	ENDS
;	COMDAT ??_C@_0BG@GIAJEIJF@RMSG_REPLAY_TOTAL_SEC@
CONST	SEGMENT
??_C@_0BG@GIAJEIJF@RMSG_REPLAY_TOTAL_SEC@ DB 'RMSG_REPLAY_TOTAL_SEC', 00H ; `string'
CONST	ENDS
;	COMDAT ??_C@_0BE@JFCIMCIP@RMSG_REPLAY_INC_SEC@
CONST	SEGMENT
??_C@_0BE@JFCIMCIP@RMSG_REPLAY_INC_SEC@ DB 'RMSG_REPLAY_INC_SEC', 00H ; `string'
CONST	ENDS
;	COMDAT ??_C@_0BA@NKHHCPON@RMSG_REPLAY_END@
CONST	SEGMENT
??_C@_0BA@NKHHCPON@RMSG_REPLAY_END@ DB 'RMSG_REPLAY_END', 00H ; `string'
CONST	ENDS
;	COMDAT ??_C@_0BI@KDGAIIMD@RMSG_REPLAY_CHANGE_DATE@
CONST	SEGMENT
??_C@_0BI@KDGAIIMD@RMSG_REPLAY_CHANGE_DATE@ DB 'RMSG_REPLAY_CHANGE_DATE', 00H ; `string'
CONST	ENDS
;	COMDAT ??_C@_0BB@JFLGBADG@RMSG_REPLAY_FAIL@
CONST	SEGMENT
??_C@_0BB@JFLGBADG@RMSG_REPLAY_FAIL@ DB 'RMSG_REPLAY_FAIL', 00H ; `string'
CONST	ENDS
;	COMDAT ??_C@_0BB@IBKHOHJL@RMSG_REPLAY_REAL@
CONST	SEGMENT
??_C@_0BB@IBKHOHJL@RMSG_REPLAY_REAL@ DB 'RMSG_REPLAY_REAL', 00H ; `string'
CONST	ENDS
PUBLIC	?__empty_global_delete@@YAXPAX@Z		; __empty_global_delete
PUBLIC	?__empty_global_delete@@YAXPAXI@Z		; __empty_global_delete
PUBLIC	___local_stdio_printf_options
PUBLIC	___local_stdio_scanf_options
PUBLIC	_sprintf
PUBLIC	_sscanf
PUBLIC	??1CObject@@UAE@XZ				; CObject::~CObject
PUBLIC	??3CObject@@SGXPAX@Z				; CObject::operator delete
PUBLIC	?Serialize@CObject@@UAEXAAVCArchive@@@Z		; CObject::Serialize
PUBLIC	?AssertValid@CObject@@UBEXXZ			; CObject::AssertValid
PUBLIC	?Dump@CObject@@UBEXAAVCDumpContext@@@Z		; CObject::Dump
PUBLIC	?_AtlRaiseException@ATL@@YAXKK@Z		; ATL::_AtlRaiseException
PUBLIC	?_AtlInitializeCriticalSectionEx@ATL@@YAHPAU_RTL_CRITICAL_SECTION@@KK@Z ; ATL::_AtlInitializeCriticalSectionEx
PUBLIC	??HATL@@YA?AV?$CStringT@DV?$StrTraitMFC_DLL@DV?$ChTraitsCRT@D@ATL@@@@@0@ABV10@0@Z ; ATL::operator+
PUBLIC	??HATL@@YA?AV?$CStringT@DV?$StrTraitMFC_DLL@DV?$ChTraitsCRT@D@ATL@@@@@0@ABV10@PBD@Z ; ATL::operator+
PUBLIC	?_AfxInitManaged@@YAHXZ				; _AfxInitManaged
PUBLIC	??1CGdiObject@@UAE@XZ				; CGdiObject::~CGdiObject
PUBLIC	??_GCGdiObject@@UAEPAXI@Z			; CGdiObject::`scalar deleting destructor'
PUBLIC	??1CBitmap@@UAE@XZ				; CBitmap::~CBitmap
PUBLIC	??_GCBitmap@@UAEPAXI@Z				; CBitmap::`scalar deleting destructor'
PUBLIC	??1CMenu@@UAE@XZ				; CMenu::~CMenu
PUBLIC	??_GCMenu@@UAEPAXI@Z				; CMenu::`scalar deleting destructor'
PUBLIC	?BeginModalState@CWnd@@UAEXXZ			; CWnd::BeginModalState
PUBLIC	?EndModalState@CWnd@@UAEXXZ			; CWnd::EndModalState
PUBLIC	?ReceiveData@CTabDlg@@UAEXPAUHWND__@@PBD11PAXJ@Z ; CTabDlg::ReceiveData
PUBLIC	?SetRealPriceData@CTabDlg@@UAEXPAX@Z		; CTabDlg::SetRealPriceData
PUBLIC	?ReceiveDataFromOutSide@CTabDlg@@UAEXXZ		; CTabDlg::ReceiveDataFromOutSide
PUBLIC	??1STMNG_ITEMINFO@@QAE@XZ			; STMNG_ITEMINFO::~STMNG_ITEMINFO
PUBLIC	??1CSTOrderRData_EG@@QAE@XZ			; CSTOrderRData_EG::~CSTOrderRData_EG
PUBLIC	??0CTabSystemTradingEx@@QAE@PAVCWnd@@@Z		; CTabSystemTradingEx::CTabSystemTradingEx
PUBLIC	??1CTabSystemTradingEx@@UAE@XZ			; CTabSystemTradingEx::~CTabSystemTradingEx
PUBLIC	?InitControl@CTabSystemTradingEx@@QAEXXZ	; CTabSystemTradingEx::InitControl
PUBLIC	?RecalcLayout@CTabSystemTradingEx@@QAEXXZ	; CTabSystemTradingEx::RecalcLayout
PUBLIC	?GetRectOfCtrl@CTabSystemTradingEx@@UAE?AVCRect@@HH@Z ; CTabSystemTradingEx::GetRectOfCtrl
PUBLIC	?LoadInfo@CTabSystemTradingEx@@QAEXXZ		; CTabSystemTradingEx::LoadInfo
PUBLIC	?OpenAUP@CTabSystemTradingEx@@QAEHXZ		; CTabSystemTradingEx::OpenAUP
PUBLIC	?LoadTradeAup@CTabSystemTradingEx@@QAEPAVCWnd@@V?$CStringT@DV?$StrTraitMFC_DLL@DV?$ChTraitsCRT@D@ATL@@@@@ATL@@PAV2@@Z ; CTabSystemTradingEx::LoadTradeAup
PUBLIC	?UnLoadSTList@CTabSystemTradingEx@@QAEXXZ	; CTabSystemTradingEx::UnLoadSTList
PUBLIC	?ChangeSkinColor@CTabSystemTradingEx@@UAEXK@Z	; CTabSystemTradingEx::ChangeSkinColor
PUBLIC	?LoadOutlookBar@CTabSystemTradingEx@@QAEXXZ	; CTabSystemTradingEx::LoadOutlookBar
PUBLIC	?LoadSTList@CTabSystemTradingEx@@QAEXXZ		; CTabSystemTradingEx::LoadSTList
PUBLIC	?AddSTFile@CTabSystemTradingEx@@QAEXAAVCListBox@@V?$CStringT@DV?$StrTraitMFC_DLL@DV?$ChTraitsCRT@D@ATL@@@@@ATL@@@Z ; CTabSystemTradingEx::AddSTFile
PUBLIC	?IsSTSelected@CTabSystemTradingEx@@QAEHXZ	; CTabSystemTradingEx::IsSTSelected
PUBLIC	?RunWizard@CTabSystemTradingEx@@QAEXH@Z		; CTabSystemTradingEx::RunWizard
PUBLIC	?CanSTModule@CTabSystemTradingEx@@QAEHXZ	; CTabSystemTradingEx::CanSTModule
PUBLIC	?IsSTRun@CTabSystemTradingEx@@QAEHPBD0H@Z	; CTabSystemTradingEx::IsSTRun
PUBLIC	?CheckOcx@CTabSystemTradingEx@@QAEHXZ		; CTabSystemTradingEx::CheckOcx
PUBLIC	?CheckRegister@CTabSystemTradingEx@@QAEHPBD0@Z	; CTabSystemTradingEx::CheckRegister
PUBLIC	?TestJumun@CTabSystemTradingEx@@QAEXXZ		; CTabSystemTradingEx::TestJumun
PUBLIC	?DataMonitorCallbackProc@CTabSystemTradingEx@@SGXPBDJJJJ@Z ; CTabSystemTradingEx::DataMonitorCallbackProc
PUBLIC	?MakeSTDefaultDirectory@CTabSystemTradingEx@@AAEXXZ ; CTabSystemTradingEx::MakeSTDefaultDirectory
PUBLIC	?DoDataExchange@CTabSystemTradingEx@@MAEXPAVCDataExchange@@@Z ; CTabSystemTradingEx::DoDataExchange
PUBLIC	?OnInitDialog@CTabSystemTradingEx@@MAEHXZ	; CTabSystemTradingEx::OnInitDialog
PUBLIC	?OnDestroy@CTabSystemTradingEx@@IAEXXZ		; CTabSystemTradingEx::OnDestroy
PUBLIC	?OnSize@CTabSystemTradingEx@@IAEXIHH@Z		; CTabSystemTradingEx::OnSize
PUBLIC	?OnCtlColor@CTabSystemTradingEx@@IAEPAUHBRUSH__@@PAVCDC@@PAVCWnd@@I@Z ; CTabSystemTradingEx::OnCtlColor
PUBLIC	?OnBtnStwizardA@CTabSystemTradingEx@@IAEXXZ	; CTabSystemTradingEx::OnBtnStwizardA
PUBLIC	?OnBtnStoptimaA@CTabSystemTradingEx@@IAEXXZ	; CTabSystemTradingEx::OnBtnStoptimaA
PUBLIC	?OnBtnStanal@CTabSystemTradingEx@@IAEXXZ	; CTabSystemTradingEx::OnBtnStanal
PUBLIC	?OnBtnStDelete@CTabSystemTradingEx@@IAEXXZ	; CTabSystemTradingEx::OnBtnStDelete
PUBLIC	?GetThisMessageMap@CTabSystemTradingEx@@KGPBUAFX_MSGMAP@@XZ ; CTabSystemTradingEx::GetThisMessageMap
PUBLIC	?GetMessageMap@CTabSystemTradingEx@@MBEPBUAFX_MSGMAP@@XZ ; CTabSystemTradingEx::GetMessageMap
PUBLIC	?OnRmsgObItemClk@CTabSystemTradingEx@@IAEJIJ@Z	; CTabSystemTradingEx::OnRmsgObItemClk
PUBLIC	?OnRmsgObItemDBClk@CTabSystemTradingEx@@IAEJIJ@Z ; CTabSystemTradingEx::OnRmsgObItemDBClk
PUBLIC	?OnRmsgMultiST@CTabSystemTradingEx@@IAEJIJ@Z	; CTabSystemTradingEx::OnRmsgMultiST
PUBLIC	?OnRmsgIndexAddinNotifyRawData@CTabSystemTradingEx@@IAEJIJ@Z ; CTabSystemTradingEx::OnRmsgIndexAddinNotifyRawData
PUBLIC	?OnRmsgIndexAddinNotifyBuySell@CTabSystemTradingEx@@IAEJIJ@Z ; CTabSystemTradingEx::OnRmsgIndexAddinNotifyBuySell
PUBLIC	?OnRmsgIndexAddinNotifySignal@CTabSystemTradingEx@@IAEJIJ@Z ; CTabSystemTradingEx::OnRmsgIndexAddinNotifySignal
PUBLIC	?OnRmsgDestroyConfirmWnd@CTabSystemTradingEx@@IAEJIJ@Z ; CTabSystemTradingEx::OnRmsgDestroyConfirmWnd
PUBLIC	?OnRmsgIsSTRunState@CTabSystemTradingEx@@IAEJIJ@Z ; CTabSystemTradingEx::OnRmsgIsSTRunState
PUBLIC	?ShowHideStOptimaA@CTabSystemTradingEx@@QAEXHHH@Z ; CTabSystemTradingEx::ShowHideStOptimaA
PUBLIC	?HideStOptimaA@CTabSystemTradingEx@@QAEXXZ	; CTabSystemTradingEx::HideStOptimaA
PUBLIC	?STClear@CTabSystemTradingEx@@QAEXXZ		; CTabSystemTradingEx::STClear
PUBLIC	?Run_STDLL@CTabSystemTradingEx@@QAEHPBD@Z	; CTabSystemTradingEx::Run_STDLL
PUBLIC	?DirectRunST@CTabSystemTradingEx@@QAEXPBD@Z	; CTabSystemTradingEx::DirectRunST
PUBLIC	?RunMultiST@CTabSystemTradingEx@@QAEXXZ		; CTabSystemTradingEx::RunMultiST
PUBLIC	?RunIndexSD@CTabSystemTradingEx@@QAEJHPAUSTMNG_ITEMINFO@@@Z ; CTabSystemTradingEx::RunIndexSD
PUBLIC	?DoDlgSysVarOption@CTabSystemTradingEx@@QAEHPAVCStringList@@J@Z ; CTabSystemTradingEx::DoDlgSysVarOption
PUBLIC	?GetInterface@CSTInterface@CTabSystemTradingEx@@UAGPAXH@Z ; CTabSystemTradingEx::CSTInterface::GetInterface
PUBLIC	?GetOutBarColor@CSTInterface@CTabSystemTradingEx@@UAGJAAK0@Z ; CTabSystemTradingEx::CSTInterface::GetOutBarColor
PUBLIC	?SetUserData@CSTAnalysisInput@CTabSystemTradingEx@@UAGXHPAUISTUserData@@@Z ; CTabSystemTradingEx::CSTAnalysisInput::SetUserData
PUBLIC	?IsUseUserData@CSTAnalysisInput@CTabSystemTradingEx@@UAGHXZ ; CTabSystemTradingEx::CSTAnalysisInput::IsUseUserData
PUBLIC	?GetUserDataInterface@CSTAnalysisInput@CTabSystemTradingEx@@UAGPAUISTUserData@@XZ ; CTabSystemTradingEx::CSTAnalysisInput::GetUserDataInterface
PUBLIC	?GetData@CSTAnalysisInput@CTabSystemTradingEx@@UAG?AVCOleVariant@@H@Z ; CTabSystemTradingEx::CSTAnalysisInput::GetData
PUBLIC	?GetCode@CSTAnalysisInput@CTabSystemTradingEx@@UAG?AV?$CStringT@DV?$StrTraitMFC_DLL@DV?$ChTraitsCRT@D@ATL@@@@@ATL@@XZ ; CTabSystemTradingEx::CSTAnalysisInput::GetCode
PUBLIC	?GetCodeName@CSTAnalysisInput@CTabSystemTradingEx@@UAG?AV?$CStringT@DV?$StrTraitMFC_DLL@DV?$ChTraitsCRT@D@ATL@@@@@ATL@@XZ ; CTabSystemTradingEx::CSTAnalysisInput::GetCodeName
PUBLIC	?GetCodeType@CSTAnalysisInput@CTabSystemTradingEx@@UAGHXZ ; CTabSystemTradingEx::CSTAnalysisInput::GetCodeType
PUBLIC	?GetSTInfo@CSTAnalysisInput@CTabSystemTradingEx@@UAGHPAUSTMNG_ITEMINFO@@@Z ; CTabSystemTradingEx::CSTAnalysisInput::GetSTInfo
PUBLIC	?GetCount@CSTAnalysisInput@CTabSystemTradingEx@@UAGHXZ ; CTabSystemTradingEx::CSTAnalysisInput::GetCount
PUBLIC	?GetEndDay@CSTAnalysisInput@CTabSystemTradingEx@@UAG?AV?$CStringT@DV?$StrTraitMFC_DLL@DV?$ChTraitsCRT@D@ATL@@@@@ATL@@XZ ; CTabSystemTradingEx::CSTAnalysisInput::GetEndDay
PUBLIC	?GetDivideCnt@CSTAnalysisInput@CTabSystemTradingEx@@UAGHXZ ; CTabSystemTradingEx::CSTAnalysisInput::GetDivideCnt
PUBLIC	?GetDivideState@CSTAnalysisInput@CTabSystemTradingEx@@UAGHXZ ; CTabSystemTradingEx::CSTAnalysisInput::GetDivideState
PUBLIC	?GetUnitPos@CSTAnalysisInput@CTabSystemTradingEx@@UAGHXZ ; CTabSystemTradingEx::CSTAnalysisInput::GetUnitPos
PUBLIC	?GetDeivideRate@CSTAnalysisInput@CTabSystemTradingEx@@UAGNXZ ; CTabSystemTradingEx::CSTAnalysisInput::GetDeivideRate
PUBLIC	?GetChartData@CSTAnalysisInput@CTabSystemTradingEx@@UAGHAAJ000000@Z ; CTabSystemTradingEx::CSTAnalysisInput::GetChartData
PUBLIC	?IsDivide@CSTAnalysisInput@CTabSystemTradingEx@@UAGHXZ ; CTabSystemTradingEx::CSTAnalysisInput::IsDivide
PUBLIC	?GetControl@CSTAnalysisInput@CTabSystemTradingEx@@UAGJH@Z ; CTabSystemTradingEx::CSTAnalysisInput::GetControl
PUBLIC	??0CSTAnalysisInput@CTabSystemTradingEx@@QAE@XZ	; CTabSystemTradingEx::CSTAnalysisInput::CSTAnalysisInput
PUBLIC	??1CSTAnalysisInput@CTabSystemTradingEx@@QAE@XZ	; CTabSystemTradingEx::CSTAnalysisInput::~CSTAnalysisInput
PUBLIC	?RunST@CSTRunManager@CTabSystemTradingEx@@UAGHHAAV?$CStringT@DV?$StrTraitMFC_DLL@DV?$ChTraitsCRT@D@ATL@@@@@ATL@@J@Z ; CTabSystemTradingEx::CSTRunManager::RunST
PUBLIC	?GetSelectedSTInfo@CSTRunManager@CTabSystemTradingEx@@UAGJXZ ; CTabSystemTradingEx::CSTRunManager::GetSelectedSTInfo
PUBLIC	?GetViewHandle@CSTRunManager@CTabSystemTradingEx@@UAGJXZ ; CTabSystemTradingEx::CSTRunManager::GetViewHandle
PUBLIC	?GetOutBarColor@CSTRunManager@CTabSystemTradingEx@@UAGJAAK0@Z ; CTabSystemTradingEx::CSTRunManager::GetOutBarColor
PUBLIC	?OnBnClickedStchkdiv@CTabSystemTradingEx@@QAEXXZ ; CTabSystemTradingEx::OnBnClickedStchkdiv
PUBLIC	?OnStshowoption@CTabSystemTradingEx@@QAEXXZ	; CTabSystemTradingEx::OnStshowoption
PUBLIC	?PlayOrderSound@CTabSystemTradingEx@@QAEXHHPBDH0@Z ; CTabSystemTradingEx::PlayOrderSound
PUBLIC	?IsAllowJumun@CTabSystemTradingEx@@QAEHPAVCSTOrderRData_EG@@H@Z ; CTabSystemTradingEx::IsAllowJumun
PUBLIC	?IsAllowJumunBefore@CTabSystemTradingEx@@QAEHPBDAAV?$CStringT@DV?$StrTraitMFC_DLL@DV?$ChTraitsCRT@D@ATL@@@@@ATL@@@Z ; CTabSystemTradingEx::IsAllowJumunBefore
PUBLIC	?CallJunmunDlg@CTabSystemTradingEx@@QAEXPAVCSTOrderRData_EG@@@Z ; CTabSystemTradingEx::CallJunmunDlg
PUBLIC	??0?$CMap@PAVCConfirmWnd@@PAV1@JJ@@QAE@H@Z	; CMap<CConfirmWnd *,CConfirmWnd *,long,long>::CMap<CConfirmWnd *,CConfirmWnd *,long,long>
PUBLIC	?Lookup@?$CMap@PAVCConfirmWnd@@PAV1@JJ@@QBEHPAVCConfirmWnd@@AAJ@Z ; CMap<CConfirmWnd *,CConfirmWnd *,long,long>::Lookup
PUBLIC	??A?$CMap@PAVCConfirmWnd@@PAV1@JJ@@QAEAAJPAVCConfirmWnd@@@Z ; CMap<CConfirmWnd *,CConfirmWnd *,long,long>::operator[]
PUBLIC	?SetAt@?$CMap@PAVCConfirmWnd@@PAV1@JJ@@QAEXPAVCConfirmWnd@@J@Z ; CMap<CConfirmWnd *,CConfirmWnd *,long,long>::SetAt
PUBLIC	?RemoveKey@?$CMap@PAVCConfirmWnd@@PAV1@JJ@@QAEHPAVCConfirmWnd@@@Z ; CMap<CConfirmWnd *,CConfirmWnd *,long,long>::RemoveKey
PUBLIC	?RemoveAll@?$CMap@PAVCConfirmWnd@@PAV1@JJ@@QAEXXZ ; CMap<CConfirmWnd *,CConfirmWnd *,long,long>::RemoveAll
PUBLIC	?GetNextAssoc@?$CMap@PAVCConfirmWnd@@PAV1@JJ@@QBEXAAPAU__POSITION@@AAPAVCConfirmWnd@@AAJ@Z ; CMap<CConfirmWnd *,CConfirmWnd *,long,long>::GetNextAssoc
PUBLIC	?InitHashTable@?$CMap@PAVCConfirmWnd@@PAV1@JJ@@QAEXIH@Z ; CMap<CConfirmWnd *,CConfirmWnd *,long,long>::InitHashTable
PUBLIC	?NewAssoc@?$CMap@PAVCConfirmWnd@@PAV1@JJ@@IAEPAVCAssoc@1@PAVCConfirmWnd@@@Z ; CMap<CConfirmWnd *,CConfirmWnd *,long,long>::NewAssoc
PUBLIC	?FreeAssoc@?$CMap@PAVCConfirmWnd@@PAV1@JJ@@IAEXPAVCAssoc@1@@Z ; CMap<CConfirmWnd *,CConfirmWnd *,long,long>::FreeAssoc
PUBLIC	?GetAssocAt@?$CMap@PAVCConfirmWnd@@PAV1@JJ@@IBEPAVCAssoc@1@PAVCConfirmWnd@@AAI1@Z ; CMap<CConfirmWnd *,CConfirmWnd *,long,long>::GetAssocAt
PUBLIC	??1?$CMap@PAVCConfirmWnd@@PAV1@JJ@@UAE@XZ	; CMap<CConfirmWnd *,CConfirmWnd *,long,long>::~CMap<CConfirmWnd *,CConfirmWnd *,long,long>
PUBLIC	?Serialize@?$CMap@PAVCConfirmWnd@@PAV1@JJ@@UAEXAAVCArchive@@@Z ; CMap<CConfirmWnd *,CConfirmWnd *,long,long>::Serialize
PUBLIC	??_G?$CMap@PAVCConfirmWnd@@PAV1@JJ@@UAEPAXI@Z	; CMap<CConfirmWnd *,CConfirmWnd *,long,long>::`scalar deleting destructor'
PUBLIC	?GetParent@CSTDlgConfirmSendJumun@CTabSystemTradingEx@@EAGPAVCWnd@@XZ ; CTabSystemTradingEx::CSTDlgConfirmSendJumun::GetParent
PUBLIC	?GetHwndScreenView@CSTDlgConfirmSendJumun@CTabSystemTradingEx@@EAGPAUHWND__@@XZ ; CTabSystemTradingEx::CSTDlgConfirmSendJumun::GetHwndScreenView
PUBLIC	??_GCTabSystemTradingEx@@UAEPAXI@Z		; CTabSystemTradingEx::`scalar deleting destructor'
PUBLIC	??1stringdispid@CComTypeInfoHolder@ATL@@QAE@XZ	; ATL::CComTypeInfoHolder::stringdispid::~stringdispid
PUBLIC	??_Estringdispid@CComTypeInfoHolder@ATL@@QAEPAXI@Z ; ATL::CComTypeInfoHolder::stringdispid::`vector deleting destructor'
PUBLIC	??1stAddinSTRun@@QAE@XZ				; stAddinSTRun::~stAddinSTRun
PUBLIC	??1stAddinSTRunInfo@@QAE@XZ			; stAddinSTRunInfo::~stAddinSTRunInfo
PUBLIC	??$CompareElements@PAVCConfirmWnd@@PAV1@@@YGHPBQAVCConfirmWnd@@0@Z ; CompareElements<CConfirmWnd *,CConfirmWnd *>
PUBLIC	??$SerializeElements@PAVCConfirmWnd@@@@YGXAAVCArchive@@PAPAVCConfirmWnd@@H@Z ; SerializeElements<CConfirmWnd *>
PUBLIC	??$SerializeElements@J@@YGXAAVCArchive@@PAJH@Z	; SerializeElements<long>
PUBLIC	?_OptionsStorage@?1??__local_stdio_printf_options@@9@4_KA ; `__local_stdio_printf_options'::`2'::_OptionsStorage
PUBLIC	?_OptionsStorage@?1??__local_stdio_scanf_options@@9@4_KA ; `__local_stdio_scanf_options'::`2'::_OptionsStorage
PUBLIC	??_R0PAVCException@@@8				; CException * `RTTI Type Descriptor'
PUBLIC	?_AtlWinModule@ATL@@3VCAtlWinModule@1@A		; ATL::_AtlWinModule
PUBLIC	??_C@_00CNPNBAHC@@				; `string'
PUBLIC	??_7CGdiObject@@6B@				; CGdiObject::`vftable'
PUBLIC	??_7CBitmap@@6B@				; CBitmap::`vftable'
PUBLIC	??_7CMenu@@6B@					; CMenu::`vftable'
PUBLIC	??_C@_0HD@JJCHHHNK@C?3?2Program?5Files?5?$CIx86?$CJ?2Microsof@ ; `string'
PUBLIC	??_C@_0BP@OIEOKIDM@Exception?5thrown?5in?5destructor@ ; `string'
PUBLIC	??_C@_0BB@HBOOMJBF@?$CFTs?5?$CI?$CFTs?3?$CFd?$CJ?6?$CFTs@ ; `string'
PUBLIC	??_C@_0N@OMEMOKLE@?$CFTs?5?$CI?$CFTs?3?$CFd?$CJ@ ; `string'
PUBLIC	??_C@_02DKCKIIND@?$CFs@				; `string'
PUBLIC	??_C@_0M@CBBNGGHM@PcTrMng?4dll@			; `string'
PUBLIC	??_C@_0P@IDMAJEGN@HANAROPCTRMAIN@		; `string'
PUBLIC	??_C@_06NDLAHCHE@?$CFs?$CF08X@			; `string'
PUBLIC	??_C@_02EMFKHFLK@?$CFX@				; `string'
PUBLIC	??_C@_01KICIPPFI@?2@				; `string'
PUBLIC	??_R0?AVCObject@@@8				; CObject `RTTI Type Descriptor'
PUBLIC	??_R3CObject@@8					; CObject::`RTTI Class Hierarchy Descriptor'
PUBLIC	??_R2CObject@@8					; CObject::`RTTI Base Class Array'
PUBLIC	??_R1A@?0A@EA@CObject@@8			; CObject::`RTTI Base Class Descriptor at (0,-1,0,64)'
PUBLIC	??_R4CGdiObject@@6B@				; CGdiObject::`RTTI Complete Object Locator'
PUBLIC	??_R0?AVCGdiObject@@@8				; CGdiObject `RTTI Type Descriptor'
PUBLIC	??_R3CGdiObject@@8				; CGdiObject::`RTTI Class Hierarchy Descriptor'
PUBLIC	??_R2CGdiObject@@8				; CGdiObject::`RTTI Base Class Array'
PUBLIC	??_R1A@?0A@EA@CGdiObject@@8			; CGdiObject::`RTTI Base Class Descriptor at (0,-1,0,64)'
PUBLIC	??_R4CBitmap@@6B@				; CBitmap::`RTTI Complete Object Locator'
PUBLIC	??_R0?AVCBitmap@@@8				; CBitmap `RTTI Type Descriptor'
PUBLIC	??_R3CBitmap@@8					; CBitmap::`RTTI Class Hierarchy Descriptor'
PUBLIC	??_R2CBitmap@@8					; CBitmap::`RTTI Base Class Array'
PUBLIC	??_R1A@?0A@EA@CBitmap@@8			; CBitmap::`RTTI Base Class Descriptor at (0,-1,0,64)'
PUBLIC	??_R4CMenu@@6B@					; CMenu::`RTTI Complete Object Locator'
PUBLIC	??_R0?AVCMenu@@@8				; CMenu `RTTI Type Descriptor'
PUBLIC	??_R3CMenu@@8					; CMenu::`RTTI Class Hierarchy Descriptor'
PUBLIC	??_R2CMenu@@8					; CMenu::`RTTI Base Class Array'
PUBLIC	??_R1A@?0A@EA@CMenu@@8				; CMenu::`RTTI Base Class Descriptor at (0,-1,0,64)'
PUBLIC	??_R1A@?0A@EA@CWnd@@8				; CWnd::`RTTI Base Class Descriptor at (0,-1,0,64)'
PUBLIC	??_R0?AVCWnd@@@8				; CWnd `RTTI Type Descriptor'
PUBLIC	??_R3CWnd@@8					; CWnd::`RTTI Class Hierarchy Descriptor'
PUBLIC	??_R2CWnd@@8					; CWnd::`RTTI Base Class Array'
PUBLIC	??_R1A@?0A@EA@CCmdTarget@@8			; CCmdTarget::`RTTI Base Class Descriptor at (0,-1,0,64)'
PUBLIC	??_R0?AVCCmdTarget@@@8				; CCmdTarget `RTTI Type Descriptor'
PUBLIC	??_R3CCmdTarget@@8				; CCmdTarget::`RTTI Class Hierarchy Descriptor'
PUBLIC	??_R2CCmdTarget@@8				; CCmdTarget::`RTTI Base Class Array'
PUBLIC	??_R1A@?0A@EA@CDialog@@8			; CDialog::`RTTI Base Class Descriptor at (0,-1,0,64)'
PUBLIC	??_R0?AVCDialog@@@8				; CDialog `RTTI Type Descriptor'
PUBLIC	??_R3CDialog@@8					; CDialog::`RTTI Class Hierarchy Descriptor'
PUBLIC	??_R2CDialog@@8					; CDialog::`RTTI Base Class Array'
PUBLIC	??_7ISTInterface@@6B@				; ISTInterface::`vftable'
PUBLIC	??_7ISTAnalysisInput@@6B@			; ISTAnalysisInput::`vftable'
PUBLIC	??_7ISTRunManager@@6B@				; ISTRunManager::`vftable'
PUBLIC	??_C@_04HDOCAJNK@?$CFs?$CFs@			; `string'
PUBLIC	??_C@_04ECGMOPPD@?$CK?4ST@			; `string'
PUBLIC	??_C@_03COHLPAFH@?4ST@				; `string'
PUBLIC	??_7CSTInterface@CTabSystemTradingEx@@6B@	; CTabSystemTradingEx::CSTInterface::`vftable'
PUBLIC	??_7CSTAnalysisInput@CTabSystemTradingEx@@6B@	; CTabSystemTradingEx::CSTAnalysisInput::`vftable'
PUBLIC	??_7CSTRunManager@CTabSystemTradingEx@@6B@	; CTabSystemTradingEx::CSTRunManager::`vftable'
PUBLIC	??_7?$CMap@PAVCConfirmWnd@@PAV1@JJ@@6B@		; CMap<CConfirmWnd *,CConfirmWnd *,long,long>::`vftable'
PUBLIC	??_7CSTDlgConfirmSendJumun@CTabSystemTradingEx@@6B@ ; CTabSystemTradingEx::CSTDlgConfirmSendJumun::`vftable'
PUBLIC	??_7CTabSystemTradingEx@@6B@			; CTabSystemTradingEx::`vftable'
PUBLIC	??_C@_08IFJCKPBE@RunJumun@			; `string'
PUBLIC	??_C@_07OPLPMPLO@JMethod@			; `string'
PUBLIC	??_C@_0BD@CNEELEMP@SCW_IGfxOutBarCtrl@		; `string'
PUBLIC	??_C@_04EHADJNMH@?2dev@				; `string'
PUBLIC	??_C@_0O@DBLFPBPG@SYSTEMDLLPATH@		; `string'
PUBLIC	??_C@_0BP@CFDAMKMM@?2dev?2HWStrategyConfigureWizard@ ; `string'
PUBLIC	??_C@_0BB@KNEADKDO@?$MA?$PM?$LH?$KL?$MA?$NL?$LM?$LK?$CIWizard?$CJ@ ; `string'
PUBLIC	??_C@_0L@OBHGFOPP@?$MA?$PM?$LH?$KL?C?V?$MA?$PL?H?$KN@ ; `string'
PUBLIC	??_C@_0L@ODKOBBAJ@?$LK?$KP?$LM?v?C?V?$MA?$PL?H?$KN@ ; `string'
PUBLIC	??_C@_0L@PKLMOOMC@?$LN?C?$LA?$KD?C?V?$MA?$PL?H?$KN@ ; `string'
PUBLIC	??_C@_0BI@PFKPIPEB@?A?$LO?$LI?q?A?$LG?H?$LI?5?H?D?5?$LA?$KB?$LE?I?G?U?$LE?O?$LE?Y?4@ ; `string'
PUBLIC	??_C@_0EJ@JEOKELGF@?C?V?$MA?$PL?H?$KN?$LP?$KB?$LM?$KN?5?G?J?$LP?d?G?Q?5OCX?$CITeeChart7@ ; `string'
PUBLIC	??_C@_0BE@MEGAPCJC@?2dev?2IndexOptimizer@	; `string'
PUBLIC	??_C@_0BG@CHJJKIAP@ChartSTIndexAddIn?4dll@	; `string'
PUBLIC	??_C@_0CE@LIBOKAIK@?$MA?$PL?$LP?k?G?R?5?$MA?$PM?$LH?$KL?$MA?$LL?5?$LM?$LB?E?C?G?X?A?V?$LN?C?$LB?b?5?$LJ?Y?$LG?x@ ; `string'
PUBLIC	??_C@_0DB@EIJFPBEL@?$LK?P?G?R?1?A?$NP?C?$LI?$MA?O?5?$LA?f?$LP?l?$LP?$KB?$LE?B?5?$LK?$LI?$LA?m?$LM?$KN?5?$LJ?v?F@ ; `string'
PUBLIC	??_C@_0BA@PIGBAOMG@STLIST_MODIFIED@		; `string'
PUBLIC	??_C@_0BH@DGGPLJDE@MultiChart_ReceiveData@	; `string'
PUBLIC	??_C@_0O@OENIFHCP@SystemTrading@		; `string'
PUBLIC	??_C@_04JIMNDDED@?$CF08X@			; `string'
PUBLIC	??_C@_0BD@JAKAOGNI@HWStrategyAnalysis@		; `string'
PUBLIC	??_C@_04HLONOPDM@?4dll@				; `string'
PUBLIC	??_C@_0BD@JKFCKDIB@?$CFs?5File?5Load?5Faile@	; `string'
PUBLIC	??_C@_0BC@CJPOKCCI@CREATE_TRADING_EX@		; `string'
PUBLIC	??_C@_0BD@GPFJHOGC@?F?$KP?H?$KN?H?$KN?$LI?i?5?$LH?N?$LF?e?5?$LP?$KB?$LH?$KP@ ; `string'
PUBLIC	??_C@_08FFNCOOBK@?$MA?$PM?$LH?$KL?$MA?$NL?$LM?$LK@ ; `string'
PUBLIC	??_C@_06GHGGCGIE@?C?V?$MA?$PL?H?$KN@		; `string'
PUBLIC	??_C@_04OJDIEKEH@?G?X?A?$KG@			; `string'
PUBLIC	??_C@_08OEAPFIFH@?$LM?$LK?$LA?z?$LK?P?$LM?$KO@	; `string'
PUBLIC	??_C@_06PKADKHFF@?$MA?g?A?$LG?H?$LI@		; `string'
PUBLIC	??_C@_0O@DADNAINN@?$CFs?2folder?4bmp@		; `string'
PUBLIC	??_C@_0BD@OCOIJGGE@?$CFs?2outbar_icon?4bmp@	; `string'
PUBLIC	??_C@_0CD@HGNBEHEC@?2dev?2HWStrategyConfigureWizard?4@ ; `string'
PUBLIC	??_C@_09HNPKBJBA@stdata?2st@			; `string'
PUBLIC	??_C@_0BL@OHKGLIGI@SCW_GetInterfaceOfStrategy@	; `string'
PUBLIC	??_C@_0BO@CPKKMKKO@SCW_DeleteInterfaceOfStrategy@ ; `string'
PUBLIC	??_C@_06OGEGGNMP@STData@			; `string'
PUBLIC	??_C@_09OEOJJIHH@STData?2ST@			; `string'
PUBLIC	??_C@_0BJ@EBBPKHM@STData?2ST?2?$LL?g?$LP?k?$MA?Z?$LE?$NM?$MA?$KH?$MA?$PM?$LH?$KL@ ; `string'
PUBLIC	??_C@_0BJ@HMEDFCNB@STData?2ST?2?$LL?g?$LP?k?$MA?Z?A?$LG?G?U?$MA?$PM?$LH?$KL@ ; `string'
PUBLIC	??_C@_0M@LCNHCPP@STData?2Temp@			; `string'
PUBLIC	??_C@_0P@DJLJBKHA@STData?2STBasic@		; `string'
PUBLIC	??_C@_0BK@LOJGNPMK@STData?2STBasic?2?$LL?g?$LP?k?$MA?Z?$MA?$PM?$LH?$KL@ ; `string'
PUBLIC	??_C@_09KOCLIKCG@STData?2SD@			; `string'
PUBLIC	??_C@_0L@EGLGCEHG@STData?2SDD@			; `string'
PUBLIC	??_C@_08OOJOHCD@?$CFs?2?$CFs?4ST@		; `string'
PUBLIC	??_C@_02KAMBCCOF@?$FO1@				; `string'
PUBLIC	??_C@_02NNLGNGKA@?$FO4@				; `string'
PUBLIC	??_C@_02MEKNOHOB@?$FO5@				; `string'
PUBLIC	??_C@_02LJNKBDKE@?$FO0@				; `string'
PUBLIC	??_C@_08HGPJPHIB@PosName0@			; `string'
PUBLIC	??_C@_0N@GKFNKJGL@StrategyList@			; `string'
PUBLIC	??_C@_0BF@KKLLNDJP@Icss?2stdata?2stsystem@	; `string'
PUBLIC	??_C@_03GELJOCAG@?4SD@				; `string'
PUBLIC	??_C@_0L@FEICBMFP@?2STData?2SD@			; `string'
PUBLIC	??_C@_01JKBOJNNK@?$FO@				; `string'
PUBLIC	??_C@_0O@CKKCLLBB@TeeChart7?4ocx@		; `string'
PUBLIC	??_C@_09KKMEEMHD@?$CFs?2exe?2?$CFs@		; `string'
PUBLIC	??_C@_09JELLLLNA@?$CFs?2dev?2?$CFs@		; `string'
PUBLIC	??_C@_0BH@BPKOJLNA@MSChart20Lib?4MSChart?42@	; `string'
PUBLIC	??_C@_0N@CPPCJIEJ@Mschrt20?4ocx@		; `string'
PUBLIC	??_C@_0BO@PLHNFDPJ@TeeChart?4ChartPageNavigator?47@ ; `string'
PUBLIC	??_C@_0P@GJBKKKJN@Icss?2stdata?2sd@		; `string'
PUBLIC	??_C@_0O@NGCOIHBK@usr?2stdata?2sd@		; `string'
PUBLIC	??_C@_09KEIDFEGD@STNAME?$DN?$CFs@		; `string'
PUBLIC	??_C@_0O@GLFFNEMD@SFGPATH?$DN?$CFs?2?$CFs@	; `string'
PUBLIC	??_C@_0P@OMDCFLHM@STPATH?$DN?$CFs?2?$CFs?$CFs@	; `string'
PUBLIC	??_C@_0BO@DLDLABLN@HWStrategyConfigureWizard?4dll@ ; `string'
PUBLIC	??_C@_0BI@PLCLJLGO@DoModal_DlgSysVarOption@	; `string'
PUBLIC	??_C@_05GFCMPLNO@c1002@				; `string'
PUBLIC	??_C@_05IJKFNIJF@f0201@				; `string'
PUBLIC	??_C@_0L@CNMPMHDJ@AllowJumun@			; `string'
PUBLIC	??_C@_07MBLBAEDA@STBAsic@			; `string'
PUBLIC	??_C@_0CC@IAIDCHCN@?$LO?w?A?$LO?A?v?$LM?v?$LP?$KB?$LM?$KN?$LE?B?5?A?V?$LJ?$KO?$MA?L?5?$LK?R?$LA?$KB?G?U?$LE?O?$LE@ ; `string'
PUBLIC	??_C@_0BO@IJIBIHGG@MS30?$LP?$KB?$LM?$KN?$LE?B?5?A?V?$LJ?$KO?$MA?L?5?$LK?R?$LA?$KB?G?U?$LE?O?$LE?Y?4@ ; `string'
PUBLIC	??_C@_0CC@MKDBBJFD@?G?X?$LP?$NM?A?v?$LM?v?$LP?$KB?$LM?$KN?$LE?B?5?A?V?$LJ?$KO?$MA?L?5?$LK?R?$LA?$KB?G?U?$LE?O?$LE@ ; `string'
PUBLIC	??_C@_0BN@PNIKDDLL@ELW?$LP?$KB?$LM?$KN?$LE?B?5?A?V?$LJ?$KO?$MA?L?5?$LK?R?$LA?$KB?G?U?$LE?O?$LE?Y?4@ ; `string'
PUBLIC	??_C@_0CK@KDHMJHOM@?G?v?$MA?g?5?$LM?$LB?E?C?G?Q?5?A?$LO?$LI?q?$LP?$KB?$LM?$KN?$LE?B?5?A?V?$LJ?$KO?$MA?L?5?$LK@ ; `string'
PUBLIC	??_C@_0CD@CEOFIHIE@?$FLGetHwndScreenView?$FNSolomon?$LM?v?A?$KE?G@ ; `string'
PUBLIC	??_R4ISTInterface@@6B@				; ISTInterface::`RTTI Complete Object Locator'
PUBLIC	??_R0?AUISTInterface@@@8			; ISTInterface `RTTI Type Descriptor'
PUBLIC	??_R3ISTInterface@@8				; ISTInterface::`RTTI Class Hierarchy Descriptor'
PUBLIC	??_R2ISTInterface@@8				; ISTInterface::`RTTI Base Class Array'
PUBLIC	??_R1A@?0A@EA@ISTInterface@@8			; ISTInterface::`RTTI Base Class Descriptor at (0,-1,0,64)'
PUBLIC	??_R4ISTAnalysisInput@@6B@			; ISTAnalysisInput::`RTTI Complete Object Locator'
PUBLIC	??_R0?AUISTAnalysisInput@@@8			; ISTAnalysisInput `RTTI Type Descriptor'
PUBLIC	??_R3ISTAnalysisInput@@8			; ISTAnalysisInput::`RTTI Class Hierarchy Descriptor'
PUBLIC	??_R2ISTAnalysisInput@@8			; ISTAnalysisInput::`RTTI Base Class Array'
PUBLIC	??_R1A@?0A@EA@ISTAnalysisInput@@8		; ISTAnalysisInput::`RTTI Base Class Descriptor at (0,-1,0,64)'
PUBLIC	??_R4ISTRunManager@@6B@				; ISTRunManager::`RTTI Complete Object Locator'
PUBLIC	??_R0?AUISTRunManager@@@8			; ISTRunManager `RTTI Type Descriptor'
PUBLIC	??_R3ISTRunManager@@8				; ISTRunManager::`RTTI Class Hierarchy Descriptor'
PUBLIC	??_R2ISTRunManager@@8				; ISTRunManager::`RTTI Base Class Array'
PUBLIC	??_R1A@?0A@EA@ISTRunManager@@8			; ISTRunManager::`RTTI Base Class Descriptor at (0,-1,0,64)'
PUBLIC	??_R0?AUISTDlgConfirmSendJumun@@@8		; ISTDlgConfirmSendJumun `RTTI Type Descriptor'
PUBLIC	??_R3ISTDlgConfirmSendJumun@@8			; ISTDlgConfirmSendJumun::`RTTI Class Hierarchy Descriptor'
PUBLIC	??_R2ISTDlgConfirmSendJumun@@8			; ISTDlgConfirmSendJumun::`RTTI Base Class Array'
PUBLIC	??_R1A@?0A@EA@ISTDlgConfirmSendJumun@@8		; ISTDlgConfirmSendJumun::`RTTI Base Class Descriptor at (0,-1,0,64)'
PUBLIC	??_R4CTabSystemTradingEx@@6B@			; CTabSystemTradingEx::`RTTI Complete Object Locator'
PUBLIC	??_R0?AVCTabSystemTradingEx@@@8			; CTabSystemTradingEx `RTTI Type Descriptor'
PUBLIC	??_R3CTabSystemTradingEx@@8			; CTabSystemTradingEx::`RTTI Class Hierarchy Descriptor'
PUBLIC	??_R2CTabSystemTradingEx@@8			; CTabSystemTradingEx::`RTTI Base Class Array'
PUBLIC	??_R1A@?0A@EA@CTabSystemTradingEx@@8		; CTabSystemTradingEx::`RTTI Base Class Descriptor at (0,-1,0,64)'
PUBLIC	??_R1A@?0A@EA@CTabDlg@@8			; CTabDlg::`RTTI Base Class Descriptor at (0,-1,0,64)'
PUBLIC	??_R0?AVCTabDlg@@@8				; CTabDlg `RTTI Type Descriptor'
PUBLIC	??_R3CTabDlg@@8					; CTabDlg::`RTTI Class Hierarchy Descriptor'
PUBLIC	??_R2CTabDlg@@8					; CTabDlg::`RTTI Base Class Array'
PUBLIC	??_R1A@?0A@EA@CRscDlg@@8			; CRscDlg::`RTTI Base Class Descriptor at (0,-1,0,64)'
PUBLIC	??_R0?AVCRscDlg@@@8				; CRscDlg `RTTI Type Descriptor'
PUBLIC	??_R3CRscDlg@@8					; CRscDlg::`RTTI Class Hierarchy Descriptor'
PUBLIC	??_R2CRscDlg@@8					; CRscDlg::`RTTI Base Class Array'
PUBLIC	??_R4CSTInterface@CTabSystemTradingEx@@6B@	; CTabSystemTradingEx::CSTInterface::`RTTI Complete Object Locator'
PUBLIC	??_R0?AVCSTInterface@CTabSystemTradingEx@@@8	; CTabSystemTradingEx::CSTInterface `RTTI Type Descriptor'
PUBLIC	??_R3CSTInterface@CTabSystemTradingEx@@8	; CTabSystemTradingEx::CSTInterface::`RTTI Class Hierarchy Descriptor'
PUBLIC	??_R2CSTInterface@CTabSystemTradingEx@@8	; CTabSystemTradingEx::CSTInterface::`RTTI Base Class Array'
PUBLIC	??_R1A@?0A@EA@CSTInterface@CTabSystemTradingEx@@8 ; CTabSystemTradingEx::CSTInterface::`RTTI Base Class Descriptor at (0,-1,0,64)'
PUBLIC	??_R4CSTAnalysisInput@CTabSystemTradingEx@@6B@	; CTabSystemTradingEx::CSTAnalysisInput::`RTTI Complete Object Locator'
PUBLIC	??_R0?AVCSTAnalysisInput@CTabSystemTradingEx@@@8 ; CTabSystemTradingEx::CSTAnalysisInput `RTTI Type Descriptor'
PUBLIC	??_R3CSTAnalysisInput@CTabSystemTradingEx@@8	; CTabSystemTradingEx::CSTAnalysisInput::`RTTI Class Hierarchy Descriptor'
PUBLIC	??_R2CSTAnalysisInput@CTabSystemTradingEx@@8	; CTabSystemTradingEx::CSTAnalysisInput::`RTTI Base Class Array'
PUBLIC	??_R1A@?0A@EA@CSTAnalysisInput@CTabSystemTradingEx@@8 ; CTabSystemTradingEx::CSTAnalysisInput::`RTTI Base Class Descriptor at (0,-1,0,64)'
PUBLIC	??_R4CSTRunManager@CTabSystemTradingEx@@6B@	; CTabSystemTradingEx::CSTRunManager::`RTTI Complete Object Locator'
PUBLIC	??_R0?AVCSTRunManager@CTabSystemTradingEx@@@8	; CTabSystemTradingEx::CSTRunManager `RTTI Type Descriptor'
PUBLIC	??_R3CSTRunManager@CTabSystemTradingEx@@8	; CTabSystemTradingEx::CSTRunManager::`RTTI Class Hierarchy Descriptor'
PUBLIC	??_R2CSTRunManager@CTabSystemTradingEx@@8	; CTabSystemTradingEx::CSTRunManager::`RTTI Base Class Array'
PUBLIC	??_R1A@?0A@EA@CSTRunManager@CTabSystemTradingEx@@8 ; CTabSystemTradingEx::CSTRunManager::`RTTI Base Class Descriptor at (0,-1,0,64)'
PUBLIC	??_R4?$CMap@PAVCConfirmWnd@@PAV1@JJ@@6B@	; CMap<CConfirmWnd *,CConfirmWnd *,long,long>::`RTTI Complete Object Locator'
PUBLIC	??_R0?AV?$CMap@PAVCConfirmWnd@@PAV1@JJ@@@8	; CMap<CConfirmWnd *,CConfirmWnd *,long,long> `RTTI Type Descriptor'
PUBLIC	??_R3?$CMap@PAVCConfirmWnd@@PAV1@JJ@@8		; CMap<CConfirmWnd *,CConfirmWnd *,long,long>::`RTTI Class Hierarchy Descriptor'
PUBLIC	??_R2?$CMap@PAVCConfirmWnd@@PAV1@JJ@@8		; CMap<CConfirmWnd *,CConfirmWnd *,long,long>::`RTTI Base Class Array'
PUBLIC	??_R1A@?0A@EA@?$CMap@PAVCConfirmWnd@@PAV1@JJ@@8	; CMap<CConfirmWnd *,CConfirmWnd *,long,long>::`RTTI Base Class Descriptor at (0,-1,0,64)'
PUBLIC	??_R4CSTDlgConfirmSendJumun@CTabSystemTradingEx@@6B@ ; CTabSystemTradingEx::CSTDlgConfirmSendJumun::`RTTI Complete Object Locator'
PUBLIC	??_R0?AVCSTDlgConfirmSendJumun@CTabSystemTradingEx@@@8 ; CTabSystemTradingEx::CSTDlgConfirmSendJumun `RTTI Type Descriptor'
PUBLIC	??_R3CSTDlgConfirmSendJumun@CTabSystemTradingEx@@8 ; CTabSystemTradingEx::CSTDlgConfirmSendJumun::`RTTI Class Hierarchy Descriptor'
PUBLIC	??_R2CSTDlgConfirmSendJumun@CTabSystemTradingEx@@8 ; CTabSystemTradingEx::CSTDlgConfirmSendJumun::`RTTI Base Class Array'
PUBLIC	??_R1A@?0A@EA@CSTDlgConfirmSendJumun@CTabSystemTradingEx@@8 ; CTabSystemTradingEx::CSTDlgConfirmSendJumun::`RTTI Base Class Descriptor at (0,-1,0,64)'
PUBLIC	__real@0000000000000000
EXTRN	??_M@YGXPAXIIP6EX0@Z@Z:PROC			; `eh vector destructor iterator'
EXTRN	__purecall:PROC
EXTRN	??2@YAPAXI@Z:PROC				; operator new
EXTRN	??3@YAXPAX@Z:PROC				; operator delete
EXTRN	??3@YAXPAXI@Z:PROC				; operator delete
EXTRN	?__global_delete@@YAXPAXI@Z:PROC		; __global_delete
EXTRN	??_U@YAPAXI@Z:PROC				; operator new[]
EXTRN	??_V@YAXPAX@Z:PROC				; operator delete[]
EXTRN	??_V@YAXPAXI@Z:PROC				; operator delete[]
EXTRN	_atexit:PROC
EXTRN	___std_terminate:PROC
EXTRN	__imp__GetEnvironmentVariableA@12:PROC
EXTRN	__imp__SetEnvironmentVariableA@8:PROC
EXTRN	__imp__CreateDirectoryA@8:PROC
EXTRN	__imp__RaiseException@16:PROC
EXTRN	__imp__GetLastError@0:PROC
EXTRN	__imp__InitializeCriticalSectionEx@12:PROC
EXTRN	__imp__DeleteCriticalSection@4:PROC
EXTRN	__imp__FreeLibrary@4:PROC
EXTRN	__imp__GetModuleHandleA@4:PROC
EXTRN	__imp__GetProcAddress@8:PROC
EXTRN	__imp__LoadLibraryA@4:PROC
EXTRN	__imp__lstrlenA@4:PROC
EXTRN	__imp__GetPrivateProfileIntA@16:PROC
EXTRN	__imp__GetPrivateProfileStringA@24:PROC
EXTRN	__imp__CreateSolidBrush@4:PROC
EXTRN	__imp__RegisterWindowMessageA@4:PROC
EXTRN	__imp__SendMessageA@16:PROC
EXTRN	__imp__PostMessageA@16:PROC
EXTRN	__imp__UnregisterClassA@8:PROC
EXTRN	__imp__EnableWindow@8:PROC
EXTRN	__imp__GetSystemMetrics@4:PROC
EXTRN	__imp__CreatePopupMenu@0:PROC
EXTRN	__imp__AppendMenuA@16:PROC
EXTRN	__imp__InvalidateRect@12:PROC
EXTRN	__imp__GetClientRect@8:PROC
EXTRN	__imp__GetWindowRect@8:PROC
EXTRN	__imp__GetParent@4:PROC
EXTRN	__imp__FindWindowA@8:PROC
EXTRN	__imp__LoadImageA@24:PROC
EXTRN	__imp__ImageList_AddMasked@12:PROC
EXTRN	__imp____stdio_common_vsprintf:PROC
EXTRN	__imp____stdio_common_vsscanf:PROC
EXTRN	__imp__free:PROC
EXTRN	?AfxThrowInvalidArgException@@YGXXZ:PROC	; AfxThrowInvalidArgException
EXTRN	?AfxThrowArchiveException@@YGXHPBD@Z:PROC	; AfxThrowArchiveException
EXTRN	?GetRuntimeClass@CObject@@UBEPAUCRuntimeClass@@XZ:PROC ; CObject::GetRuntimeClass
EXTRN	__imp__SysFreeString@4:PROC
EXTRN	__imp__VariantClear@4:PROC
EXTRN	__imp_?Concatenate@?$CSimpleStringT@D$00@ATL@@KAXAAV12@PBDH1H@Z:PROC
EXTRN	__imp_??0?$CStringT@DV?$StrTraitMFC_DLL@DV?$ChTraitsCRT@D@ATL@@@@@ATL@@QAE@XZ:PROC
EXTRN	__imp_??0?$CStringT@DV?$StrTraitMFC_DLL@DV?$ChTraitsCRT@D@ATL@@@@@ATL@@QAE@PAUIAtlStringMgr@1@@Z:PROC
EXTRN	__imp_??0?$CStringT@DV?$StrTraitMFC_DLL@DV?$ChTraitsCRT@D@ATL@@@@@ATL@@QAE@ABV01@@Z:PROC
EXTRN	__imp_??0?$CStringT@DV?$StrTraitMFC_DLL@DV?$ChTraitsCRT@D@ATL@@@@@ATL@@QAE@PBD@Z:PROC
EXTRN	__imp_??1?$CStringT@DV?$StrTraitMFC_DLL@DV?$ChTraitsCRT@D@ATL@@@@@ATL@@QAE@XZ:PROC
EXTRN	__imp_??4?$CStringT@DV?$StrTraitMFC_DLL@DV?$ChTraitsCRT@D@ATL@@@@@ATL@@QAEAAV01@ABV01@@Z:PROC
EXTRN	__imp_??4?$CStringT@DV?$StrTraitMFC_DLL@DV?$ChTraitsCRT@D@ATL@@@@@ATL@@QAEAAV01@PBD@Z:PROC
EXTRN	__imp_?GetManager@?$CStringT@DV?$StrTraitMFC_DLL@DV?$ChTraitsCRT@D@ATL@@@@@ATL@@QBEPAUIAtlStringMgr@2@XZ:PROC
EXTRN	__imp_?Compare@?$CStringT@DV?$StrTraitMFC_DLL@DV?$ChTraitsCRT@D@ATL@@@@@ATL@@QBEHPBD@Z:PROC
EXTRN	__imp_?Delete@?$CStringT@DV?$StrTraitMFC_DLL@DV?$ChTraitsCRT@D@ATL@@@@@ATL@@QAEHHH@Z:PROC
EXTRN	__imp_?Find@?$CStringT@DV?$StrTraitMFC_DLL@DV?$ChTraitsCRT@D@ATL@@@@@ATL@@QBEHDH@Z:PROC
EXTRN	__imp_?Find@?$CStringT@DV?$StrTraitMFC_DLL@DV?$ChTraitsCRT@D@ATL@@@@@ATL@@QBEHPBDH@Z:PROC
EXTRN	__imp_?ReverseFind@?$CStringT@DV?$StrTraitMFC_DLL@DV?$ChTraitsCRT@D@ATL@@@@@ATL@@QBEHD@Z:PROC
EXTRN	__imp_?Mid@?$CStringT@DV?$StrTraitMFC_DLL@DV?$ChTraitsCRT@D@ATL@@@@@ATL@@QBE?AV12@H@Z:PROC
EXTRN	__imp_?Left@?$CStringT@DV?$StrTraitMFC_DLL@DV?$ChTraitsCRT@D@ATL@@@@@ATL@@QBE?AV12@H@Z:PROC
EXTRN	__imp_?Format@?$CStringT@DV?$StrTraitMFC_DLL@DV?$ChTraitsCRT@D@ATL@@@@@ATL@@QAAXPBDZZ:PROC
EXTRN	??0CFileFind@@QAE@XZ:PROC			; CFileFind::CFileFind
EXTRN	??1CFileFind@@UAE@XZ:PROC			; CFileFind::~CFileFind
EXTRN	?GetFileTitle@CFileFind@@UBE?AV?$CStringT@DV?$StrTraitMFC_DLL@DV?$ChTraitsCRT@D@ATL@@@@@ATL@@XZ:PROC ; CFileFind::GetFileTitle
EXTRN	?FindFile@CFileFind@@UAEHPBDK@Z:PROC		; CFileFind::FindFile
EXTRN	?FindNextFileA@CFileFind@@UAEHXZ:PROC		; CFileFind::FindNextFileA
EXTRN	?Read@CArchive@@QAEIPAXI@Z:PROC			; CArchive::Read
EXTRN	?Write@CArchive@@QAEXPBXI@Z:PROC		; CArchive::Write
EXTRN	?ReadCount@CArchive@@QAEKXZ:PROC		; CArchive::ReadCount
EXTRN	?WriteCount@CArchive@@QAEXK@Z:PROC		; CArchive::WriteCount
EXTRN	??0CStringArray@@QAE@XZ:PROC			; CStringArray::CStringArray
EXTRN	?SetSize@CStringArray@@QAEXHH@Z:PROC		; CStringArray::SetSize
EXTRN	?SetAtGrow@CStringArray@@QAEXHABV?$CStringT@DV?$StrTraitMFC_DLL@DV?$ChTraitsCRT@D@ATL@@@@@ATL@@@Z:PROC ; CStringArray::SetAtGrow
EXTRN	??1CStringArray@@UAE@XZ:PROC			; CStringArray::~CStringArray
EXTRN	??0CStringList@@QAE@H@Z:PROC			; CStringList::CStringList
EXTRN	?AddTail@CStringList@@QAEPAU__POSITION@@ABV?$CStringT@DV?$StrTraitMFC_DLL@DV?$ChTraitsCRT@D@ATL@@@@@ATL@@@Z:PROC ; CStringList::AddTail
EXTRN	??1CStringList@@UAE@XZ:PROC			; CStringList::~CStringList
EXTRN	?AfxGetModuleState@@YGPAVAFX_MODULE_STATE@@XZ:PROC ; AfxGetModuleState
EXTRN	?AfxGetStaticModuleState@@YGPAVAFX_MODULE_STATE@@XZ:PROC ; AfxGetStaticModuleState
EXTRN	??0AFX_MAINTAIN_STATE2@@QAE@PAVAFX_MODULE_STATE@@@Z:PROC ; AFX_MAINTAIN_STATE2::AFX_MAINTAIN_STATE2
EXTRN	??1AFX_MAINTAIN_STATE2@@QAE@XZ:PROC		; AFX_MAINTAIN_STATE2::~AFX_MAINTAIN_STATE2
EXTRN	?Create@CPlex@@SGPAU1@AAPAU1@II@Z:PROC		; CPlex::Create
EXTRN	?FreeDataChain@CPlex@@QAEXXZ:PROC		; CPlex::FreeDataChain
EXTRN	?GetRuntimeClass@CGdiObject@@UBEPAUCRuntimeClass@@XZ:PROC ; CGdiObject::GetRuntimeClass
EXTRN	?Attach@CGdiObject@@QAEHPAX@Z:PROC		; CGdiObject::Attach
EXTRN	?DeleteObject@CGdiObject@@QAEHXZ:PROC		; CGdiObject::DeleteObject
EXTRN	??_ECGdiObject@@UAEPAXI@Z:PROC			; CGdiObject::`vector deleting destructor'
EXTRN	?GetRuntimeClass@CBitmap@@UBEPAUCRuntimeClass@@XZ:PROC ; CBitmap::GetRuntimeClass
EXTRN	??_ECBitmap@@UAEPAXI@Z:PROC			; CBitmap::`vector deleting destructor'
EXTRN	??0CImageList@@QAE@XZ:PROC			; CImageList::CImageList
EXTRN	?Create@CImageList@@QAEHHHIHH@Z:PROC		; CImageList::Create
EXTRN	?DeleteImageList@CImageList@@QAEHXZ:PROC	; CImageList::DeleteImageList
EXTRN	??1CImageList@@UAE@XZ:PROC			; CImageList::~CImageList
EXTRN	?GetRuntimeClass@CMenu@@UBEPAUCRuntimeClass@@XZ:PROC ; CMenu::GetRuntimeClass
EXTRN	?DestroyMenu@CMenu@@QAEHXZ:PROC			; CMenu::DestroyMenu
EXTRN	?Attach@CMenu@@QAEHPAUHMENU__@@@Z:PROC		; CMenu::Attach
EXTRN	?TrackPopupMenu@CMenu@@QAEHIHHPAVCWnd@@PBUtagRECT@@@Z:PROC ; CMenu::TrackPopupMenu
EXTRN	?DrawItem@CMenu@@UAEXPAUtagDRAWITEMSTRUCT@@@Z:PROC ; CMenu::DrawItem
EXTRN	?MeasureItem@CMenu@@UAEXPAUtagMEASUREITEMSTRUCT@@@Z:PROC ; CMenu::MeasureItem
EXTRN	??_ECMenu@@UAEPAXI@Z:PROC			; CMenu::`vector deleting destructor'
EXTRN	?DDX_Control@@YGXPAVCDataExchange@@HAAVCWnd@@@Z:PROC ; DDX_Control
EXTRN	?IsInvokeAllowed@CCmdTarget@@UAEHJ@Z:PROC	; CCmdTarget::IsInvokeAllowed
EXTRN	?GetDispatchIID@CCmdTarget@@UAEHPAU_GUID@@@Z:PROC ; CCmdTarget::GetDispatchIID
EXTRN	?GetTypeInfoCount@CCmdTarget@@UAEIXZ:PROC	; CCmdTarget::GetTypeInfoCount
EXTRN	?GetTypeLibCache@CCmdTarget@@UAEPAVCTypeLibCache@@XZ:PROC ; CCmdTarget::GetTypeLibCache
EXTRN	?GetTypeLib@CCmdTarget@@UAEJKPAPAUITypeLib@@@Z:PROC ; CCmdTarget::GetTypeLib
EXTRN	?GetCommandMap@CCmdTarget@@MBEPBUAFX_OLECMDMAP@@XZ:PROC ; CCmdTarget::GetCommandMap
EXTRN	?GetDispatchMap@CCmdTarget@@MBEPBUAFX_DISPMAP@@XZ:PROC ; CCmdTarget::GetDispatchMap
EXTRN	?GetConnectionMap@CCmdTarget@@MBEPBUAFX_CONNECTIONMAP@@XZ:PROC ; CCmdTarget::GetConnectionMap
EXTRN	?GetEventSinkMap@CCmdTarget@@MBEPBUAFX_EVENTSINKMAP@@XZ:PROC ; CCmdTarget::GetEventSinkMap
EXTRN	?OnCreateAggregates@CCmdTarget@@UAEHXZ:PROC	; CCmdTarget::OnCreateAggregates
EXTRN	?GetInterfaceHook@CCmdTarget@@UAEPAUIUnknown@@PBX@Z:PROC ; CCmdTarget::GetInterfaceHook
EXTRN	?GetExtraConnectionPoints@CCmdTarget@@MAEHPAVCPtrArray@@@Z:PROC ; CCmdTarget::GetExtraConnectionPoints
EXTRN	?GetConnectionHook@CCmdTarget@@MAEPAUIConnectionPoint@@ABU_GUID@@@Z:PROC ; CCmdTarget::GetConnectionHook
EXTRN	?FromHandle@CWnd@@SGPAV1@PAUHWND__@@@Z:PROC	; CWnd::FromHandle
EXTRN	?PreSubclassWindow@CWnd@@UAEXXZ:PROC		; CWnd::PreSubclassWindow
EXTRN	?Create@CWnd@@UAEHPBD0KABUtagRECT@@PAV1@IPAUCCreateContext@@@Z:PROC ; CWnd::Create
EXTRN	?CreateEx@CWnd@@UAEHKPBD0KHHHHPAUHWND__@@PAUHMENU__@@PAX@Z:PROC ; CWnd::CreateEx
EXTRN	?CreateEx@CWnd@@UAEHKPBD0KABUtagRECT@@PAV1@IPAX@Z:PROC ; CWnd::CreateEx
EXTRN	?DestroyWindow@CWnd@@UAEHXZ:PROC		; CWnd::DestroyWindow
EXTRN	?PreCreateWindow@CWnd@@UAEHAAUtagCREATESTRUCTA@@@Z:PROC ; CWnd::PreCreateWindow
EXTRN	?CalcWindowRect@CWnd@@UAEXPAUtagRECT@@I@Z:PROC	; CWnd::CalcWindowRect
EXTRN	?GetDlgItem@CWnd@@QBEPAV1@H@Z:PROC		; CWnd::GetDlgItem
EXTRN	?GetMenu@CWnd@@UBEPAVCMenu@@XZ:PROC		; CWnd::GetMenu
EXTRN	?SetMenu@CWnd@@UAEHPAVCMenu@@@Z:PROC		; CWnd::SetMenu
EXTRN	?MoveWindow@CWnd@@QAEXHHHHH@Z:PROC		; CWnd::MoveWindow
EXTRN	?SetWindowPos@CWnd@@QAEHPBV1@HHHHI@Z:PROC	; CWnd::SetWindowPos
EXTRN	?ScreenToClient@CWnd@@QBEXPAUtagRECT@@@Z:PROC	; CWnd::ScreenToClient
EXTRN	?ShowWindow@CWnd@@QAEHH@Z:PROC			; CWnd::ShowWindow
EXTRN	?OnToolHitTest@CWnd@@UBEHVCPoint@@PAUtagTOOLINFOA@@@Z:PROC ; CWnd::OnToolHitTest
EXTRN	?EnableWindow@CWnd@@QAEHH@Z:PROC		; CWnd::EnableWindow
EXTRN	?GetDlgItemInt@CWnd@@QBEIHPAHH@Z:PROC		; CWnd::GetDlgItemInt
EXTRN	?IsDlgButtonChecked@CWnd@@QBEIH@Z:PROC		; CWnd::IsDlgButtonChecked
EXTRN	?GetScrollBarCtrl@CWnd@@UBEPAVCScrollBar@@H@Z:PROC ; CWnd::GetScrollBarCtrl
EXTRN	?MessageBoxA@CWnd@@QAEHPBD0I@Z:PROC		; CWnd::MessageBoxA
EXTRN	?WinHelpA@CWnd@@UAEXKI@Z:PROC			; CWnd::WinHelpA
EXTRN	?HtmlHelpA@CWnd@@UAEXKI@Z:PROC			; CWnd::HtmlHelpA
EXTRN	?WinHelpInternal@CWnd@@UAEXKI@Z:PROC		; CWnd::WinHelpInternal
EXTRN	?ContinueModal@CWnd@@UAEHXZ:PROC		; CWnd::ContinueModal
EXTRN	?EndModalLoop@CWnd@@UAEXH@Z:PROC		; CWnd::EndModalLoop
EXTRN	?OnDrawIconicThumbnailOrLivePreview@CWnd@@UAEXAAVCDC@@VCRect@@VCSize@@HAAH@Z:PROC ; CWnd::OnDrawIconicThumbnailOrLivePreview
EXTRN	?GetInterfaceMap@CWnd@@MBEPBUAFX_INTERFACEMAP@@XZ:PROC ; CWnd::GetInterfaceMap
EXTRN	?EnsureStdObj@CWnd@@UAEJXZ:PROC			; CWnd::EnsureStdObj
EXTRN	?get_accParent@CWnd@@UAEJPAPAUIDispatch@@@Z:PROC ; CWnd::get_accParent
EXTRN	?get_accChildCount@CWnd@@UAEJPAJ@Z:PROC		; CWnd::get_accChildCount
EXTRN	?get_accChild@CWnd@@UAEJUtagVARIANT@@PAPAUIDispatch@@@Z:PROC ; CWnd::get_accChild
EXTRN	?get_accName@CWnd@@UAEJUtagVARIANT@@PAPA_W@Z:PROC ; CWnd::get_accName
EXTRN	?get_accValue@CWnd@@UAEJUtagVARIANT@@PAPA_W@Z:PROC ; CWnd::get_accValue
EXTRN	?get_accDescription@CWnd@@UAEJUtagVARIANT@@PAPA_W@Z:PROC ; CWnd::get_accDescription
EXTRN	?get_accRole@CWnd@@UAEJUtagVARIANT@@PAU2@@Z:PROC ; CWnd::get_accRole
EXTRN	?get_accState@CWnd@@UAEJUtagVARIANT@@PAU2@@Z:PROC ; CWnd::get_accState
EXTRN	?get_accHelp@CWnd@@UAEJUtagVARIANT@@PAPA_W@Z:PROC ; CWnd::get_accHelp
EXTRN	?get_accHelpTopic@CWnd@@UAEJPAPA_WUtagVARIANT@@PAJ@Z:PROC ; CWnd::get_accHelpTopic
EXTRN	?get_accKeyboardShortcut@CWnd@@UAEJUtagVARIANT@@PAPA_W@Z:PROC ; CWnd::get_accKeyboardShortcut
EXTRN	?get_accFocus@CWnd@@UAEJPAUtagVARIANT@@@Z:PROC	; CWnd::get_accFocus
EXTRN	?get_accSelection@CWnd@@UAEJPAUtagVARIANT@@@Z:PROC ; CWnd::get_accSelection
EXTRN	?get_accDefaultAction@CWnd@@UAEJUtagVARIANT@@PAPA_W@Z:PROC ; CWnd::get_accDefaultAction
EXTRN	?accSelect@CWnd@@UAEJJUtagVARIANT@@@Z:PROC	; CWnd::accSelect
EXTRN	?accLocation@CWnd@@UAEJPAJ000UtagVARIANT@@@Z:PROC ; CWnd::accLocation
EXTRN	?accNavigate@CWnd@@UAEJJUtagVARIANT@@PAU2@@Z:PROC ; CWnd::accNavigate
EXTRN	?accHitTest@CWnd@@UAEJJJPAUtagVARIANT@@@Z:PROC	; CWnd::accHitTest
EXTRN	?accDoDefaultAction@CWnd@@UAEJUtagVARIANT@@@Z:PROC ; CWnd::accDoDefaultAction
EXTRN	?put_accName@CWnd@@UAEJUtagVARIANT@@PA_W@Z:PROC	; CWnd::put_accName
EXTRN	?put_accValue@CWnd@@UAEJUtagVARIANT@@PA_W@Z:PROC ; CWnd::put_accValue
EXTRN	?SetProxy@CWnd@@UAEJPAUIAccessibleProxy@@@Z:PROC ; CWnd::SetProxy
EXTRN	?CreateAccessibleProxy@CWnd@@UAEJIJPAJ@Z:PROC	; CWnd::CreateAccessibleProxy
EXTRN	?OnCommand@CWnd@@MAEHIJ@Z:PROC			; CWnd::OnCommand
EXTRN	?OnNotify@CWnd@@MAEHIJPAJ@Z:PROC		; CWnd::OnNotify
EXTRN	?GetSuperWndProcAddr@CWnd@@MAEPAP6GJPAUHWND__@@IIJ@ZXZ:PROC ; CWnd::GetSuperWndProcAddr
EXTRN	?OnAmbientProperty@CWnd@@UAEHPAVCOleControlSite@@JPAUtagVARIANT@@@Z:PROC ; CWnd::OnAmbientProperty
EXTRN	?WindowProc@CWnd@@MAEJIIJ@Z:PROC		; CWnd::WindowProc
EXTRN	?OnWndMsg@CWnd@@MAEHIIJPAJ@Z:PROC		; CWnd::OnWndMsg
EXTRN	?Default@CWnd@@IAEJXZ:PROC			; CWnd::Default
EXTRN	?DefWindowProcA@CWnd@@MAEJIIJ@Z:PROC		; CWnd::DefWindowProcA
EXTRN	?PostNcDestroy@CWnd@@MAEXXZ:PROC		; CWnd::PostNcDestroy
EXTRN	?OnChildNotify@CWnd@@MAEHIIJPAJ@Z:PROC		; CWnd::OnChildNotify
EXTRN	?OnTouchInputs@CWnd@@MAEHIPAUtagTOUCHINPUT@@@Z:PROC ; CWnd::OnTouchInputs
EXTRN	?OnTouchInput@CWnd@@MAEHVCPoint@@HHPAUtagTOUCHINPUT@@@Z:PROC ; CWnd::OnTouchInput
EXTRN	?GetGestureStatus@CWnd@@MAEKVCPoint@@@Z:PROC	; CWnd::GetGestureStatus
EXTRN	?OnGestureZoom@CWnd@@MAEHVCPoint@@J@Z:PROC	; CWnd::OnGestureZoom
EXTRN	?OnGesturePan@CWnd@@MAEHVCPoint@@0@Z:PROC	; CWnd::OnGesturePan
EXTRN	?OnGestureRotate@CWnd@@MAEHVCPoint@@N@Z:PROC	; CWnd::OnGestureRotate
EXTRN	?OnGestureTwoFingerTap@CWnd@@MAEHVCPoint@@@Z:PROC ; CWnd::OnGestureTwoFingerTap
EXTRN	?OnGesturePressAndTap@CWnd@@MAEHVCPoint@@J@Z:PROC ; CWnd::OnGesturePressAndTap
EXTRN	?ResizeDynamicLayout@CWnd@@MAEXXZ:PROC		; CWnd::ResizeDynamicLayout
EXTRN	?IsFrameWnd@CWnd@@UBEHXZ:PROC			; CWnd::IsFrameWnd
EXTRN	?OnFinalRelease@CWnd@@UAEXXZ:PROC		; CWnd::OnFinalRelease
EXTRN	?CreateControlContainer@CWnd@@MAEHPAPAVCOleControlContainer@@@Z:PROC ; CWnd::CreateControlContainer
EXTRN	?CreateControlSite@CWnd@@MAEHPAVCOleControlContainer@@PAPAVCOleControlSite@@IABU_GUID@@@Z:PROC ; CWnd::CreateControlSite
EXTRN	?GetRuntimeClass@CDialog@@UBEPAUCRuntimeClass@@XZ:PROC ; CDialog::GetRuntimeClass
EXTRN	?Create@CDialog@@UAEHPBDPAVCWnd@@@Z:PROC	; CDialog::Create
EXTRN	?CreateIndirect@CDialog@@UAEHPBUDLGTEMPLATE@@PAVCWnd@@PAX@Z:PROC ; CDialog::CreateIndirect
EXTRN	?CreateIndirect@CDialog@@UAEHPAXPAVCWnd@@@Z:PROC ; CDialog::CreateIndirect
EXTRN	?DoModal@CDialog@@UAEHXZ:PROC			; CDialog::DoModal
EXTRN	?OnSetFont@CDialog@@UAEXPAVCFont@@@Z:PROC	; CDialog::OnSetFont
EXTRN	?OnOK@CDialog@@MAEXXZ:PROC			; CDialog::OnOK
EXTRN	?OnCancel@CDialog@@MAEXXZ:PROC			; CDialog::OnCancel
EXTRN	?OnCmdMsg@CDialog@@UAEHIHPAXPAUAFX_CMDHANDLERINFO@@@Z:PROC ; CDialog::OnCmdMsg
EXTRN	?CheckAutoCenter@CDialog@@UAEHXZ:PROC		; CDialog::CheckAutoCenter
EXTRN	?SetOccDialogInfo@CDialog@@MAEHPAU_AFX_OCC_DIALOG_INFO@@@Z:PROC ; CDialog::SetOccDialogInfo
EXTRN	?GetOccDialogInfo@CDialog@@MAEPAU_AFX_OCC_DIALOG_INFO@@XZ:PROC ; CDialog::GetOccDialogInfo
EXTRN	?PreInitDialog@CDialog@@MAEXXZ:PROC		; CDialog::PreInitDialog
EXTRN	?AfxMessageBox@@YGHPBDII@Z:PROC			; AfxMessageBox
EXTRN	?AfxVariantInit@@YGXPAUtagVARIANT@@@Z:PROC	; AfxVariantInit
EXTRN	?Create@CRscDlg@@UAEHIPAVCWnd@@@Z:PROC		; CRscDlg::Create
EXTRN	?DoModal@CRscDlg@@UAEHXZ:PROC			; CRscDlg::DoModal
EXTRN	__imp__sndPlaySoundA@8:PROC
EXTRN	??0CILButton@@QAE@XZ:PROC			; CILButton::CILButton
EXTRN	?FP_vSetImage@CILButton@@QAEXPAVCImageList@@HHHV?$CStringT@DV?$StrTraitMFC_DLL@DV?$ChTraitsCRT@D@ATL@@@@@ATL@@HHH@Z:PROC ; CILButton::FP_vSetImage
EXTRN	?FP_vSetToolTipText@CILButton@@QAEXV?$CStringT@DV?$StrTraitMFC_DLL@DV?$ChTraitsCRT@D@ATL@@@@@ATL@@@Z:PROC ; CILButton::FP_vSetToolTipText
EXTRN	??1CILButton@@UAE@XZ:PROC			; CILButton::~CILButton
EXTRN	??0CTabDlg@@QAE@IPAVCWnd@@@Z:PROC		; CTabDlg::CTabDlg
EXTRN	??1CTabDlg@@UAE@XZ:PROC				; CTabDlg::~CTabDlg
EXTRN	?PreTranslateMessage@CTabDlg@@UAEHPAUtagMSG@@@Z:PROC ; CTabDlg::PreTranslateMessage
EXTRN	?DoDataExchange@CTabDlg@@MAEXPAVCDataExchange@@@Z:PROC ; CTabDlg::DoDataExchange
EXTRN	?RecalcLayoutCtrl@CTabDlg@@IAEXAAVCWnd@@H@Z:PROC ; CTabDlg::RecalcLayoutCtrl
EXTRN	?OnCtlColor@CTabDlg@@IAEPAUHBRUSH__@@PAVCDC@@PAVCWnd@@I@Z:PROC ; CTabDlg::OnCtlColor
EXTRN	?OnInitDialog@CTabDlg@@MAEHXZ:PROC		; CTabDlg::OnInitDialog
EXTRN	?GetThisMessageMap@CTabDlg@@KGPBUAFX_MSGMAP@@XZ:PROC ; CTabDlg::GetThisMessageMap
EXTRN	??0CDllDlg@@QAE@PBD0PAXPAUHINSTANCE__@@PAVCWnd@@@Z:PROC ; CDllDlg::CDllDlg
EXTRN	??1CDllDlg@@UAE@XZ:PROC				; CDllDlg::~CDllDlg
EXTRN	??0CDlgSTExOption@@QAE@PAVCWnd@@@Z:PROC		; CDlgSTExOption::CDlgSTExOption
EXTRN	?GetDivCount@CDlgSTExOption@@QAEHXZ:PROC	; CDlgSTExOption::GetDivCount
EXTRN	?GetRepRate@CDlgSTExOption@@QAENXZ:PROC		; CDlgSTExOption::GetRepRate
EXTRN	?OpenRefort@CDlgSTExOption@@QAEXXZ:PROC		; CDlgSTExOption::OpenRefort
EXTRN	?SetInitDlg@CDlgSTExOption@@QAEXXZ:PROC		; CDlgSTExOption::SetInitDlg
EXTRN	?OnBnClickedStapply@CDlgSTExOption@@QAEXXZ:PROC	; CDlgSTExOption::OnBnClickedStapply
EXTRN	??0CSTExtTree@@QAE@XZ:PROC			; CSTExtTree::CSTExtTree
EXTRN	??1CSTExtTree@@UAE@XZ:PROC			; CSTExtTree::~CSTExtTree
EXTRN	??0CSTBasicTree@@QAE@XZ:PROC			; CSTBasicTree::CSTBasicTree
EXTRN	??1CSTBasicTree@@UAE@XZ:PROC			; CSTBasicTree::~CSTBasicTree
EXTRN	??0CConfirmWnd@@QAE@XZ:PROC			; CConfirmWnd::CConfirmWnd
EXTRN	?OpenWindow@CConfirmWnd@@QAEHXZ:PROC		; CConfirmWnd::OpenWindow
EXTRN	?GetEndDate@CChartItem@@QAE?AV?$CStringT@DV?$StrTraitMFC_DLL@DV?$ChTraitsCRT@D@ATL@@@@@ATL@@XZ:PROC ; CChartItem::GetEndDate
EXTRN	?GetDataCode@CChartItem@@QAE?AV?$CStringT@DV?$StrTraitMFC_DLL@DV?$ChTraitsCRT@D@ATL@@@@@ATL@@H@Z:PROC ; CChartItem::GetDataCode
EXTRN	?SetSTRunSTPath@CChartItem@@QAEXV?$CStringT@DV?$StrTraitMFC_DLL@DV?$ChTraitsCRT@D@ATL@@@@@ATL@@@Z:PROC ; CChartItem::SetSTRunSTPath
EXTRN	?InvokeAddInSTIndex@CChartItem@@QAEHPBDFJ@Z:PROC ; CChartItem::InvokeAddInSTIndex
EXTRN	??0CSysTabExChartItem@@QAE@XZ:PROC		; CSysTabExChartItem::CSysTabExChartItem
EXTRN	??_E?$CMap@PAVCConfirmWnd@@PAV1@JJ@@UAEPAXI@Z:PROC ; CMap<CConfirmWnd *,CConfirmWnd *,long,long>::`vector deleting destructor'
EXTRN	??_ECTabSystemTradingEx@@UAEPAXI@Z:PROC		; CTabSystemTradingEx::`vector deleting destructor'
EXTRN	?GetpChartItemSelected@CChartMng@@QAEPAVCChartItem@@XZ:PROC ; CChartMng::GetpChartItemSelected
EXTRN	?GetMarketTypeFromCode@CStdDialog@@QAEHV?$CStringT@DV?$StrTraitMFC_DLL@DV?$ChTraitsCRT@D@ATL@@@@@ATL@@AAH@Z:PROC ; CStdDialog::GetMarketTypeFromCode
EXTRN	?GetItemNameFromItemCode@CStdDialog@@QAE?AV?$CStringT@DV?$StrTraitMFC_DLL@DV?$ChTraitsCRT@D@ATL@@@@@ATL@@V23@H@Z:PROC ; CStdDialog::GetItemNameFromItemCode
EXTRN	@__security_check_cookie@4:PROC
EXTRN	___CxxFrameHandler3:PROC
EXTRN	_memcpy:PROC
EXTRN	_memset:PROC
EXTRN	??_7type_info@@6B@:QWORD			; type_info::`vftable'
EXTRN	___security_cookie:DWORD
EXTRN	__fltused:DWORD
;	COMDAT ?_OptionsStorage@?1??__local_stdio_printf_options@@9@4_KA
_BSS	SEGMENT
?_OptionsStorage@?1??__local_stdio_printf_options@@9@4_KA DQ 01H DUP (?) ; `__local_stdio_printf_options'::`2'::_OptionsStorage
_BSS	ENDS
;	COMDAT ?_OptionsStorage@?1??__local_stdio_scanf_options@@9@4_KA
_BSS	SEGMENT
?_OptionsStorage@?1??__local_stdio_scanf_options@@9@4_KA DQ 01H DUP (?) ; `__local_stdio_scanf_options'::`2'::_OptionsStorage
_BSS	ENDS
_BSS	SEGMENT
?RMSG_INTERFACE@@3IB DD 01H DUP (?)			; RMSG_INTERFACE
?RMSG_GETSIGNAL_REAL@@3IB DD 01H DUP (?)		; RMSG_GETSIGNAL_REAL
?RMSG_SETQUERYOPT@@3IB DD 01H DUP (?)			; RMSG_SETQUERYOPT
?RMSG_CHARTMAIN@@3IB DD 01H DUP (?)			; RMSG_CHARTMAIN
?RMS_ANALYSIS_FUNC@@3IB DD 01H DUP (?)			; RMS_ANALYSIS_FUNC
?RMSG_GET_USERID@@3IB DD 01H DUP (?)			; RMSG_GET_USERID
?RMSG_CHANGE_SKINCOLOR@@3IB DD 01H DUP (?)		; RMSG_CHANGE_SKINCOLOR
?RMSG_GET_SKINCOLOR@@3IB DD 01H DUP (?)			; RMSG_GET_SKINCOLOR
?RMSG_CHANGEVERTSCALETYPE@@3IB DD 01H DUP (?)		; RMSG_CHANGEVERTSCALETYPE
?RMSG_CHANGE_CROSSLINE@@3IB DD 01H DUP (?)		; RMSG_CHANGE_CROSSLINE
?RMSG_ADD_PLATFORM_MENU@@3IB DD 01H DUP (?)		; RMSG_ADD_PLATFORM_MENU
?RMSG_SETINITIALCHARTDATA@@3IB DD 01H DUP (?)		; RMSG_SETINITIALCHARTDATA
?RMSG_GETINFO@@3IB DD 01H DUP (?)			; RMSG_GETINFO
?RMSG_SETINFO@@3IB DD 01H DUP (?)			; RMSG_SETINFO
?RMSG_STTREE_ITEMCLICK@@3IB DD 01H DUP (?)		; RMSG_STTREE_ITEMCLICK
?RMSG_STTREE_ITEMDBLCLK@@3IB DD 01H DUP (?)		; RMSG_STTREE_ITEMDBLCLK
?RMSG_REPLAY_REAL@@3IB DD 01H DUP (?)			; RMSG_REPLAY_REAL
?RMSG_REPLAY_FAIL@@3IB DD 01H DUP (?)			; RMSG_REPLAY_FAIL
?RMSG_REPLAY_CHANGE_DATE@@3IB DD 01H DUP (?)		; RMSG_REPLAY_CHANGE_DATE
?RMSG_REPLAY_END@@3IB DD 01H DUP (?)			; RMSG_REPLAY_END
?RMSG_REPLAY_INC_SEC@@3IB DD 01H DUP (?)		; RMSG_REPLAY_INC_SEC
?RMSG_REPLAY_TOTAL_SEC@@3IB DD 01H DUP (?)		; RMSG_REPLAY_TOTAL_SEC
?RMSG_OB_ITEMCLICK@@3IB DD 01H DUP (?)			; RMSG_OB_ITEMCLICK
?RMSG_OB_ITEMDBLCLK@@3IB DD 01H DUP (?)			; RMSG_OB_ITEMDBLCLK
?RMSG_RUN_MULTIST@@3IB DD 01H DUP (?)			; RMSG_RUN_MULTIST
?RMSG_INDEXADDIN_NOTIFY_RAWDATA@@3IB DD 01H DUP (?)	; RMSG_INDEXADDIN_NOTIFY_RAWDATA
?RMSG_INDEXADDIN_NOTIFY_BUYSELL@@3IB DD 01H DUP (?)	; RMSG_INDEXADDIN_NOTIFY_BUYSELL
?RMSG_INDEXADDIN_NOTIFY_SIGNAL@@3IB DD 01H DUP (?)	; RMSG_INDEXADDIN_NOTIFY_SIGNAL
?RMSG_DESTROY_CONFIRMWND@@3IB DD 01H DUP (?)		; RMSG_DESTROY_CONFIRMWND
?RMSG_GET_SCREENVIEWHANDLE@@3IB DD 01H DUP (?)		; RMSG_GET_SCREENVIEWHANDLE
?RMSG_REQUEST_HOGADATA@@3IB DD 01H DUP (?)		; RMSG_REQUEST_HOGADATA
?RMSG_ISSTRUNSTATE@@3IB DD 01H DUP (?)			; RMSG_ISSTRUNSTATE
_BSS	ENDS
;	COMDAT CRT$XCU
CRT$XCU	SEGMENT
?_AtlWinModule$initializer$@ATL@@3P6AXXZA DD FLAT:??__E_AtlWinModule@ATL@@YAXXZ ; ATL::_AtlWinModule$initializer$
CRT$XCU	ENDS
;	COMDAT __real@0000000000000000
CONST	SEGMENT
__real@0000000000000000 DQ 00000000000000000r	; 0
CONST	ENDS
;	COMDAT ??_R1A@?0A@EA@CSTDlgConfirmSendJumun@CTabSystemTradingEx@@8
rdata$r	SEGMENT
??_R1A@?0A@EA@CSTDlgConfirmSendJumun@CTabSystemTradingEx@@8 DD FLAT:??_R0?AVCSTDlgConfirmSendJumun@CTabSystemTradingEx@@@8 ; CTabSystemTradingEx::CSTDlgConfirmSendJumun::`RTTI Base Class Descriptor at (0,-1,0,64)'
	DD	01H
	DD	00H
	DD	0ffffffffH
	DD	00H
	DD	040H
	DD	FLAT:??_R3CSTDlgConfirmSendJumun@CTabSystemTradingEx@@8
rdata$r	ENDS
;	COMDAT ??_R2CSTDlgConfirmSendJumun@CTabSystemTradingEx@@8
rdata$r	SEGMENT
??_R2CSTDlgConfirmSendJumun@CTabSystemTradingEx@@8 DD FLAT:??_R1A@?0A@EA@CSTDlgConfirmSendJumun@CTabSystemTradingEx@@8 ; CTabSystemTradingEx::CSTDlgConfirmSendJumun::`RTTI Base Class Array'
	DD	FLAT:??_R1A@?0A@EA@ISTDlgConfirmSendJumun@@8
rdata$r	ENDS
;	COMDAT ??_R3CSTDlgConfirmSendJumun@CTabSystemTradingEx@@8
rdata$r	SEGMENT
??_R3CSTDlgConfirmSendJumun@CTabSystemTradingEx@@8 DD 00H ; CTabSystemTradingEx::CSTDlgConfirmSendJumun::`RTTI Class Hierarchy Descriptor'
	DD	00H
	DD	02H
	DD	FLAT:??_R2CSTDlgConfirmSendJumun@CTabSystemTradingEx@@8
rdata$r	ENDS
;	COMDAT ??_R0?AVCSTDlgConfirmSendJumun@CTabSystemTradingEx@@@8
data$rs	SEGMENT
??_R0?AVCSTDlgConfirmSendJumun@CTabSystemTradingEx@@@8 DD FLAT:??_7type_info@@6B@ ; CTabSystemTradingEx::CSTDlgConfirmSendJumun `RTTI Type Descriptor'
	DD	00H
	DB	'.?AVCSTDlgConfirmSendJumun@CTabSystemTradingEx@@', 00H
data$rs	ENDS
;	COMDAT ??_R4CSTDlgConfirmSendJumun@CTabSystemTradingEx@@6B@
rdata$r	SEGMENT
??_R4CSTDlgConfirmSendJumun@CTabSystemTradingEx@@6B@ DD 00H ; CTabSystemTradingEx::CSTDlgConfirmSendJumun::`RTTI Complete Object Locator'
	DD	00H
	DD	00H
	DD	FLAT:??_R0?AVCSTDlgConfirmSendJumun@CTabSystemTradingEx@@@8
	DD	FLAT:??_R3CSTDlgConfirmSendJumun@CTabSystemTradingEx@@8
rdata$r	ENDS
;	COMDAT ??_R1A@?0A@EA@?$CMap@PAVCConfirmWnd@@PAV1@JJ@@8
rdata$r	SEGMENT
??_R1A@?0A@EA@?$CMap@PAVCConfirmWnd@@PAV1@JJ@@8 DD FLAT:??_R0?AV?$CMap@PAVCConfirmWnd@@PAV1@JJ@@@8 ; CMap<CConfirmWnd *,CConfirmWnd *,long,long>::`RTTI Base Class Descriptor at (0,-1,0,64)'
	DD	01H
	DD	00H
	DD	0ffffffffH
	DD	00H
	DD	040H
	DD	FLAT:??_R3?$CMap@PAVCConfirmWnd@@PAV1@JJ@@8
rdata$r	ENDS
;	COMDAT ??_R2?$CMap@PAVCConfirmWnd@@PAV1@JJ@@8
rdata$r	SEGMENT
??_R2?$CMap@PAVCConfirmWnd@@PAV1@JJ@@8 DD FLAT:??_R1A@?0A@EA@?$CMap@PAVCConfirmWnd@@PAV1@JJ@@8 ; CMap<CConfirmWnd *,CConfirmWnd *,long,long>::`RTTI Base Class Array'
	DD	FLAT:??_R1A@?0A@EA@CObject@@8
rdata$r	ENDS
;	COMDAT ??_R3?$CMap@PAVCConfirmWnd@@PAV1@JJ@@8
rdata$r	SEGMENT
??_R3?$CMap@PAVCConfirmWnd@@PAV1@JJ@@8 DD 00H		; CMap<CConfirmWnd *,CConfirmWnd *,long,long>::`RTTI Class Hierarchy Descriptor'
	DD	00H
	DD	02H
	DD	FLAT:??_R2?$CMap@PAVCConfirmWnd@@PAV1@JJ@@8
rdata$r	ENDS
;	COMDAT ??_R0?AV?$CMap@PAVCConfirmWnd@@PAV1@JJ@@@8
data$rs	SEGMENT
??_R0?AV?$CMap@PAVCConfirmWnd@@PAV1@JJ@@@8 DD FLAT:??_7type_info@@6B@ ; CMap<CConfirmWnd *,CConfirmWnd *,long,long> `RTTI Type Descriptor'
	DD	00H
	DB	'.?AV?$CMap@PAVCConfirmWnd@@PAV1@JJ@@', 00H
data$rs	ENDS
;	COMDAT ??_R4?$CMap@PAVCConfirmWnd@@PAV1@JJ@@6B@
rdata$r	SEGMENT
??_R4?$CMap@PAVCConfirmWnd@@PAV1@JJ@@6B@ DD 00H		; CMap<CConfirmWnd *,CConfirmWnd *,long,long>::`RTTI Complete Object Locator'
	DD	00H
	DD	00H
	DD	FLAT:??_R0?AV?$CMap@PAVCConfirmWnd@@PAV1@JJ@@@8
	DD	FLAT:??_R3?$CMap@PAVCConfirmWnd@@PAV1@JJ@@8
rdata$r	ENDS
;	COMDAT ??_R1A@?0A@EA@CSTRunManager@CTabSystemTradingEx@@8
rdata$r	SEGMENT
??_R1A@?0A@EA@CSTRunManager@CTabSystemTradingEx@@8 DD FLAT:??_R0?AVCSTRunManager@CTabSystemTradingEx@@@8 ; CTabSystemTradingEx::CSTRunManager::`RTTI Base Class Descriptor at (0,-1,0,64)'
	DD	01H
	DD	00H
	DD	0ffffffffH
	DD	00H
	DD	040H
	DD	FLAT:??_R3CSTRunManager@CTabSystemTradingEx@@8
rdata$r	ENDS
;	COMDAT ??_R2CSTRunManager@CTabSystemTradingEx@@8
rdata$r	SEGMENT
??_R2CSTRunManager@CTabSystemTradingEx@@8 DD FLAT:??_R1A@?0A@EA@CSTRunManager@CTabSystemTradingEx@@8 ; CTabSystemTradingEx::CSTRunManager::`RTTI Base Class Array'
	DD	FLAT:??_R1A@?0A@EA@ISTRunManager@@8
rdata$r	ENDS
;	COMDAT ??_R3CSTRunManager@CTabSystemTradingEx@@8
rdata$r	SEGMENT
??_R3CSTRunManager@CTabSystemTradingEx@@8 DD 00H	; CTabSystemTradingEx::CSTRunManager::`RTTI Class Hierarchy Descriptor'
	DD	00H
	DD	02H
	DD	FLAT:??_R2CSTRunManager@CTabSystemTradingEx@@8
rdata$r	ENDS
;	COMDAT ??_R0?AVCSTRunManager@CTabSystemTradingEx@@@8
data$rs	SEGMENT
??_R0?AVCSTRunManager@CTabSystemTradingEx@@@8 DD FLAT:??_7type_info@@6B@ ; CTabSystemTradingEx::CSTRunManager `RTTI Type Descriptor'
	DD	00H
	DB	'.?AVCSTRunManager@CTabSystemTradingEx@@', 00H
data$rs	ENDS
;	COMDAT ??_R4CSTRunManager@CTabSystemTradingEx@@6B@
rdata$r	SEGMENT
??_R4CSTRunManager@CTabSystemTradingEx@@6B@ DD 00H	; CTabSystemTradingEx::CSTRunManager::`RTTI Complete Object Locator'
	DD	00H
	DD	00H
	DD	FLAT:??_R0?AVCSTRunManager@CTabSystemTradingEx@@@8
	DD	FLAT:??_R3CSTRunManager@CTabSystemTradingEx@@8
rdata$r	ENDS
;	COMDAT ??_R1A@?0A@EA@CSTAnalysisInput@CTabSystemTradingEx@@8
rdata$r	SEGMENT
??_R1A@?0A@EA@CSTAnalysisInput@CTabSystemTradingEx@@8 DD FLAT:??_R0?AVCSTAnalysisInput@CTabSystemTradingEx@@@8 ; CTabSystemTradingEx::CSTAnalysisInput::`RTTI Base Class Descriptor at (0,-1,0,64)'
	DD	01H
	DD	00H
	DD	0ffffffffH
	DD	00H
	DD	040H
	DD	FLAT:??_R3CSTAnalysisInput@CTabSystemTradingEx@@8
rdata$r	ENDS
;	COMDAT ??_R2CSTAnalysisInput@CTabSystemTradingEx@@8
rdata$r	SEGMENT
??_R2CSTAnalysisInput@CTabSystemTradingEx@@8 DD FLAT:??_R1A@?0A@EA@CSTAnalysisInput@CTabSystemTradingEx@@8 ; CTabSystemTradingEx::CSTAnalysisInput::`RTTI Base Class Array'
	DD	FLAT:??_R1A@?0A@EA@ISTAnalysisInput@@8
rdata$r	ENDS
;	COMDAT ??_R3CSTAnalysisInput@CTabSystemTradingEx@@8
rdata$r	SEGMENT
??_R3CSTAnalysisInput@CTabSystemTradingEx@@8 DD 00H	; CTabSystemTradingEx::CSTAnalysisInput::`RTTI Class Hierarchy Descriptor'
	DD	00H
	DD	02H
	DD	FLAT:??_R2CSTAnalysisInput@CTabSystemTradingEx@@8
rdata$r	ENDS
;	COMDAT ??_R0?AVCSTAnalysisInput@CTabSystemTradingEx@@@8
data$rs	SEGMENT
??_R0?AVCSTAnalysisInput@CTabSystemTradingEx@@@8 DD FLAT:??_7type_info@@6B@ ; CTabSystemTradingEx::CSTAnalysisInput `RTTI Type Descriptor'
	DD	00H
	DB	'.?AVCSTAnalysisInput@CTabSystemTradingEx@@', 00H
data$rs	ENDS
;	COMDAT ??_R4CSTAnalysisInput@CTabSystemTradingEx@@6B@
rdata$r	SEGMENT
??_R4CSTAnalysisInput@CTabSystemTradingEx@@6B@ DD 00H	; CTabSystemTradingEx::CSTAnalysisInput::`RTTI Complete Object Locator'
	DD	00H
	DD	00H
	DD	FLAT:??_R0?AVCSTAnalysisInput@CTabSystemTradingEx@@@8
	DD	FLAT:??_R3CSTAnalysisInput@CTabSystemTradingEx@@8
rdata$r	ENDS
;	COMDAT ??_R1A@?0A@EA@CSTInterface@CTabSystemTradingEx@@8
rdata$r	SEGMENT
??_R1A@?0A@EA@CSTInterface@CTabSystemTradingEx@@8 DD FLAT:??_R0?AVCSTInterface@CTabSystemTradingEx@@@8 ; CTabSystemTradingEx::CSTInterface::`RTTI Base Class Descriptor at (0,-1,0,64)'
	DD	01H
	DD	00H
	DD	0ffffffffH
	DD	00H
	DD	040H
	DD	FLAT:??_R3CSTInterface@CTabSystemTradingEx@@8
rdata$r	ENDS
;	COMDAT ??_R2CSTInterface@CTabSystemTradingEx@@8
rdata$r	SEGMENT
??_R2CSTInterface@CTabSystemTradingEx@@8 DD FLAT:??_R1A@?0A@EA@CSTInterface@CTabSystemTradingEx@@8 ; CTabSystemTradingEx::CSTInterface::`RTTI Base Class Array'
	DD	FLAT:??_R1A@?0A@EA@ISTInterface@@8
rdata$r	ENDS
;	COMDAT ??_R3CSTInterface@CTabSystemTradingEx@@8
rdata$r	SEGMENT
??_R3CSTInterface@CTabSystemTradingEx@@8 DD 00H		; CTabSystemTradingEx::CSTInterface::`RTTI Class Hierarchy Descriptor'
	DD	00H
	DD	02H
	DD	FLAT:??_R2CSTInterface@CTabSystemTradingEx@@8
rdata$r	ENDS
;	COMDAT ??_R0?AVCSTInterface@CTabSystemTradingEx@@@8
data$rs	SEGMENT
??_R0?AVCSTInterface@CTabSystemTradingEx@@@8 DD FLAT:??_7type_info@@6B@ ; CTabSystemTradingEx::CSTInterface `RTTI Type Descriptor'
	DD	00H
	DB	'.?AVCSTInterface@CTabSystemTradingEx@@', 00H
data$rs	ENDS
;	COMDAT ??_R4CSTInterface@CTabSystemTradingEx@@6B@
rdata$r	SEGMENT
??_R4CSTInterface@CTabSystemTradingEx@@6B@ DD 00H	; CTabSystemTradingEx::CSTInterface::`RTTI Complete Object Locator'
	DD	00H
	DD	00H
	DD	FLAT:??_R0?AVCSTInterface@CTabSystemTradingEx@@@8
	DD	FLAT:??_R3CSTInterface@CTabSystemTradingEx@@8
rdata$r	ENDS
;	COMDAT ??_R2CRscDlg@@8
rdata$r	SEGMENT
??_R2CRscDlg@@8 DD FLAT:??_R1A@?0A@EA@CRscDlg@@8	; CRscDlg::`RTTI Base Class Array'
	DD	FLAT:??_R1A@?0A@EA@CDialog@@8
	DD	FLAT:??_R1A@?0A@EA@CWnd@@8
	DD	FLAT:??_R1A@?0A@EA@CCmdTarget@@8
	DD	FLAT:??_R1A@?0A@EA@CObject@@8
rdata$r	ENDS
;	COMDAT ??_R3CRscDlg@@8
rdata$r	SEGMENT
??_R3CRscDlg@@8 DD 00H					; CRscDlg::`RTTI Class Hierarchy Descriptor'
	DD	00H
	DD	05H
	DD	FLAT:??_R2CRscDlg@@8
rdata$r	ENDS
;	COMDAT ??_R0?AVCRscDlg@@@8
data$rs	SEGMENT
??_R0?AVCRscDlg@@@8 DD FLAT:??_7type_info@@6B@		; CRscDlg `RTTI Type Descriptor'
	DD	00H
	DB	'.?AVCRscDlg@@', 00H
data$rs	ENDS
;	COMDAT ??_R1A@?0A@EA@CRscDlg@@8
rdata$r	SEGMENT
??_R1A@?0A@EA@CRscDlg@@8 DD FLAT:??_R0?AVCRscDlg@@@8	; CRscDlg::`RTTI Base Class Descriptor at (0,-1,0,64)'
	DD	04H
	DD	00H
	DD	0ffffffffH
	DD	00H
	DD	040H
	DD	FLAT:??_R3CRscDlg@@8
rdata$r	ENDS
;	COMDAT ??_R2CTabDlg@@8
rdata$r	SEGMENT
??_R2CTabDlg@@8 DD FLAT:??_R1A@?0A@EA@CTabDlg@@8	; CTabDlg::`RTTI Base Class Array'
	DD	FLAT:??_R1A@?0A@EA@CRscDlg@@8
	DD	FLAT:??_R1A@?0A@EA@CDialog@@8
	DD	FLAT:??_R1A@?0A@EA@CWnd@@8
	DD	FLAT:??_R1A@?0A@EA@CCmdTarget@@8
	DD	FLAT:??_R1A@?0A@EA@CObject@@8
rdata$r	ENDS
;	COMDAT ??_R3CTabDlg@@8
rdata$r	SEGMENT
??_R3CTabDlg@@8 DD 00H					; CTabDlg::`RTTI Class Hierarchy Descriptor'
	DD	00H
	DD	06H
	DD	FLAT:??_R2CTabDlg@@8
rdata$r	ENDS
;	COMDAT ??_R0?AVCTabDlg@@@8
data$rs	SEGMENT
??_R0?AVCTabDlg@@@8 DD FLAT:??_7type_info@@6B@		; CTabDlg `RTTI Type Descriptor'
	DD	00H
	DB	'.?AVCTabDlg@@', 00H
data$rs	ENDS
;	COMDAT ??_R1A@?0A@EA@CTabDlg@@8
rdata$r	SEGMENT
??_R1A@?0A@EA@CTabDlg@@8 DD FLAT:??_R0?AVCTabDlg@@@8	; CTabDlg::`RTTI Base Class Descriptor at (0,-1,0,64)'
	DD	05H
	DD	00H
	DD	0ffffffffH
	DD	00H
	DD	040H
	DD	FLAT:??_R3CTabDlg@@8
rdata$r	ENDS
;	COMDAT ??_R1A@?0A@EA@CTabSystemTradingEx@@8
rdata$r	SEGMENT
??_R1A@?0A@EA@CTabSystemTradingEx@@8 DD FLAT:??_R0?AVCTabSystemTradingEx@@@8 ; CTabSystemTradingEx::`RTTI Base Class Descriptor at (0,-1,0,64)'
	DD	06H
	DD	00H
	DD	0ffffffffH
	DD	00H
	DD	040H
	DD	FLAT:??_R3CTabSystemTradingEx@@8
rdata$r	ENDS
;	COMDAT ??_R2CTabSystemTradingEx@@8
rdata$r	SEGMENT
??_R2CTabSystemTradingEx@@8 DD FLAT:??_R1A@?0A@EA@CTabSystemTradingEx@@8 ; CTabSystemTradingEx::`RTTI Base Class Array'
	DD	FLAT:??_R1A@?0A@EA@CTabDlg@@8
	DD	FLAT:??_R1A@?0A@EA@CRscDlg@@8
	DD	FLAT:??_R1A@?0A@EA@CDialog@@8
	DD	FLAT:??_R1A@?0A@EA@CWnd@@8
	DD	FLAT:??_R1A@?0A@EA@CCmdTarget@@8
	DD	FLAT:??_R1A@?0A@EA@CObject@@8
rdata$r	ENDS
;	COMDAT ??_R3CTabSystemTradingEx@@8
rdata$r	SEGMENT
??_R3CTabSystemTradingEx@@8 DD 00H			; CTabSystemTradingEx::`RTTI Class Hierarchy Descriptor'
	DD	00H
	DD	07H
	DD	FLAT:??_R2CTabSystemTradingEx@@8
rdata$r	ENDS
;	COMDAT ??_R0?AVCTabSystemTradingEx@@@8
data$rs	SEGMENT
??_R0?AVCTabSystemTradingEx@@@8 DD FLAT:??_7type_info@@6B@ ; CTabSystemTradingEx `RTTI Type Descriptor'
	DD	00H
	DB	'.?AVCTabSystemTradingEx@@', 00H
data$rs	ENDS
;	COMDAT ??_R4CTabSystemTradingEx@@6B@
rdata$r	SEGMENT
??_R4CTabSystemTradingEx@@6B@ DD 00H			; CTabSystemTradingEx::`RTTI Complete Object Locator'
	DD	00H
	DD	00H
	DD	FLAT:??_R0?AVCTabSystemTradingEx@@@8
	DD	FLAT:??_R3CTabSystemTradingEx@@8
rdata$r	ENDS
;	COMDAT ??_R1A@?0A@EA@ISTDlgConfirmSendJumun@@8
rdata$r	SEGMENT
??_R1A@?0A@EA@ISTDlgConfirmSendJumun@@8 DD FLAT:??_R0?AUISTDlgConfirmSendJumun@@@8 ; ISTDlgConfirmSendJumun::`RTTI Base Class Descriptor at (0,-1,0,64)'
	DD	00H
	DD	00H
	DD	0ffffffffH
	DD	00H
	DD	040H
	DD	FLAT:??_R3ISTDlgConfirmSendJumun@@8
rdata$r	ENDS
;	COMDAT ??_R2ISTDlgConfirmSendJumun@@8
rdata$r	SEGMENT
??_R2ISTDlgConfirmSendJumun@@8 DD FLAT:??_R1A@?0A@EA@ISTDlgConfirmSendJumun@@8 ; ISTDlgConfirmSendJumun::`RTTI Base Class Array'
rdata$r	ENDS
;	COMDAT ??_R3ISTDlgConfirmSendJumun@@8
rdata$r	SEGMENT
??_R3ISTDlgConfirmSendJumun@@8 DD 00H			; ISTDlgConfirmSendJumun::`RTTI Class Hierarchy Descriptor'
	DD	00H
	DD	01H
	DD	FLAT:??_R2ISTDlgConfirmSendJumun@@8
rdata$r	ENDS
;	COMDAT ??_R0?AUISTDlgConfirmSendJumun@@@8
data$rs	SEGMENT
??_R0?AUISTDlgConfirmSendJumun@@@8 DD FLAT:??_7type_info@@6B@ ; ISTDlgConfirmSendJumun `RTTI Type Descriptor'
	DD	00H
	DB	'.?AUISTDlgConfirmSendJumun@@', 00H
data$rs	ENDS
;	COMDAT ??_R1A@?0A@EA@ISTRunManager@@8
rdata$r	SEGMENT
??_R1A@?0A@EA@ISTRunManager@@8 DD FLAT:??_R0?AUISTRunManager@@@8 ; ISTRunManager::`RTTI Base Class Descriptor at (0,-1,0,64)'
	DD	00H
	DD	00H
	DD	0ffffffffH
	DD	00H
	DD	040H
	DD	FLAT:??_R3ISTRunManager@@8
rdata$r	ENDS
;	COMDAT ??_R2ISTRunManager@@8
rdata$r	SEGMENT
??_R2ISTRunManager@@8 DD FLAT:??_R1A@?0A@EA@ISTRunManager@@8 ; ISTRunManager::`RTTI Base Class Array'
rdata$r	ENDS
;	COMDAT ??_R3ISTRunManager@@8
rdata$r	SEGMENT
??_R3ISTRunManager@@8 DD 00H				; ISTRunManager::`RTTI Class Hierarchy Descriptor'
	DD	00H
	DD	01H
	DD	FLAT:??_R2ISTRunManager@@8
rdata$r	ENDS
;	COMDAT ??_R0?AUISTRunManager@@@8
data$rs	SEGMENT
??_R0?AUISTRunManager@@@8 DD FLAT:??_7type_info@@6B@	; ISTRunManager `RTTI Type Descriptor'
	DD	00H
	DB	'.?AUISTRunManager@@', 00H
data$rs	ENDS
;	COMDAT ??_R4ISTRunManager@@6B@
rdata$r	SEGMENT
??_R4ISTRunManager@@6B@ DD 00H				; ISTRunManager::`RTTI Complete Object Locator'
	DD	00H
	DD	00H
	DD	FLAT:??_R0?AUISTRunManager@@@8
	DD	FLAT:??_R3ISTRunManager@@8
rdata$r	ENDS
;	COMDAT ??_R1A@?0A@EA@ISTAnalysisInput@@8
rdata$r	SEGMENT
??_R1A@?0A@EA@ISTAnalysisInput@@8 DD FLAT:??_R0?AUISTAnalysisInput@@@8 ; ISTAnalysisInput::`RTTI Base Class Descriptor at (0,-1,0,64)'
	DD	00H
	DD	00H
	DD	0ffffffffH
	DD	00H
	DD	040H
	DD	FLAT:??_R3ISTAnalysisInput@@8
rdata$r	ENDS
;	COMDAT ??_R2ISTAnalysisInput@@8
rdata$r	SEGMENT
??_R2ISTAnalysisInput@@8 DD FLAT:??_R1A@?0A@EA@ISTAnalysisInput@@8 ; ISTAnalysisInput::`RTTI Base Class Array'
rdata$r	ENDS
;	COMDAT ??_R3ISTAnalysisInput@@8
rdata$r	SEGMENT
??_R3ISTAnalysisInput@@8 DD 00H				; ISTAnalysisInput::`RTTI Class Hierarchy Descriptor'
	DD	00H
	DD	01H
	DD	FLAT:??_R2ISTAnalysisInput@@8
rdata$r	ENDS
;	COMDAT ??_R0?AUISTAnalysisInput@@@8
data$rs	SEGMENT
??_R0?AUISTAnalysisInput@@@8 DD FLAT:??_7type_info@@6B@	; ISTAnalysisInput `RTTI Type Descriptor'
	DD	00H
	DB	'.?AUISTAnalysisInput@@', 00H
data$rs	ENDS
;	COMDAT ??_R4ISTAnalysisInput@@6B@
rdata$r	SEGMENT
??_R4ISTAnalysisInput@@6B@ DD 00H			; ISTAnalysisInput::`RTTI Complete Object Locator'
	DD	00H
	DD	00H
	DD	FLAT:??_R0?AUISTAnalysisInput@@@8
	DD	FLAT:??_R3ISTAnalysisInput@@8
rdata$r	ENDS
;	COMDAT ??_R1A@?0A@EA@ISTInterface@@8
rdata$r	SEGMENT
??_R1A@?0A@EA@ISTInterface@@8 DD FLAT:??_R0?AUISTInterface@@@8 ; ISTInterface::`RTTI Base Class Descriptor at (0,-1,0,64)'
	DD	00H
	DD	00H
	DD	0ffffffffH
	DD	00H
	DD	040H
	DD	FLAT:??_R3ISTInterface@@8
rdata$r	ENDS
;	COMDAT ??_R2ISTInterface@@8
rdata$r	SEGMENT
??_R2ISTInterface@@8 DD FLAT:??_R1A@?0A@EA@ISTInterface@@8 ; ISTInterface::`RTTI Base Class Array'
rdata$r	ENDS
;	COMDAT ??_R3ISTInterface@@8
rdata$r	SEGMENT
??_R3ISTInterface@@8 DD 00H				; ISTInterface::`RTTI Class Hierarchy Descriptor'
	DD	00H
	DD	01H
	DD	FLAT:??_R2ISTInterface@@8
rdata$r	ENDS
;	COMDAT ??_R0?AUISTInterface@@@8
data$rs	SEGMENT
??_R0?AUISTInterface@@@8 DD FLAT:??_7type_info@@6B@	; ISTInterface `RTTI Type Descriptor'
	DD	00H
	DB	'.?AUISTInterface@@', 00H
data$rs	ENDS
;	COMDAT ??_R4ISTInterface@@6B@
rdata$r	SEGMENT
??_R4ISTInterface@@6B@ DD 00H				; ISTInterface::`RTTI Complete Object Locator'
	DD	00H
	DD	00H
	DD	FLAT:??_R0?AUISTInterface@@@8
	DD	FLAT:??_R3ISTInterface@@8
rdata$r	ENDS
;	COMDAT ??_C@_0CD@CEOFIHIE@?$FLGetHwndScreenView?$FNSolomon?$LM?v?A?$KE?G@
CONST	SEGMENT
??_C@_0CD@CEOFIHIE@?$FLGetHwndScreenView?$FNSolomon?$LM?v?A?$KE?G@ DB '[G'
	DB	'etHwndScreenView]Solomon', 0bcH, 0f6H, 0c1H, 0a4H, 0c7H, 0caH
	DB	0bfH, 0e4H, 00H				; `string'
CONST	ENDS
;	COMDAT ??_C@_0CK@KDHMJHOM@?G?v?$MA?g?5?$LM?$LB?E?C?G?Q?5?A?$LO?$LI?q?$LP?$KB?$LM?$KN?$LE?B?5?A?V?$LJ?$KO?$MA?L?5?$LK@
CONST	SEGMENT
??_C@_0CK@KDHMJHOM@?G?v?$MA?g?5?$LM?$LB?E?C?G?Q?5?A?$LO?$LI?q?$LP?$KB?$LM?$KN?$LE?B?5?A?V?$LJ?$KO?$MA?L?5?$LK@ DB 0c7H
	DB	0f6H, 0c0H, 0e7H, ' ', 0bcH, 0b1H, 0c5H, 0c3H, 0c7H, 0d1H, ' ', 0c1H
	DB	0beH, 0b8H, 0f1H, 0bfH, 0a1H, 0bcH, 0adH, 0b4H, 0c2H, ' ', 0c1H
	DB	0d6H, 0b9H, 0aeH, 0c0H, 0ccH, ' ', 0baH, 0d2H, 0b0H, 0a1H, 0c7H
	DB	0d5H, 0b4H, 0cfH, 0b4H, 0d9H, '.', 00H	; `string'
CONST	ENDS
;	COMDAT ??_C@_0BN@PNIKDDLL@ELW?$LP?$KB?$LM?$KN?$LE?B?5?A?V?$LJ?$KO?$MA?L?5?$LK?R?$LA?$KB?G?U?$LE?O?$LE?Y?4@
CONST	SEGMENT
??_C@_0BN@PNIKDDLL@ELW?$LP?$KB?$LM?$KN?$LE?B?5?A?V?$LJ?$KO?$MA?L?5?$LK?R?$LA?$KB?G?U?$LE?O?$LE?Y?4@ DB 'E'
	DB	'LW', 0bfH, 0a1H, 0bcH, 0adH, 0b4H, 0c2H, ' ', 0c1H, 0d6H, 0b9H
	DB	0aeH, 0c0H, 0ccH, ' ', 0baH, 0d2H, 0b0H, 0a1H, 0c7H, 0d5H, 0b4H
	DB	0cfH, 0b4H, 0d9H, '.', 00H			; `string'
CONST	ENDS
;	COMDAT ??_C@_0CC@MKDBBJFD@?G?X?$LP?$NM?A?v?$LM?v?$LP?$KB?$LM?$KN?$LE?B?5?A?V?$LJ?$KO?$MA?L?5?$LK?R?$LA?$KB?G?U?$LE?O?$LE@
CONST	SEGMENT
??_C@_0CC@MKDBBJFD@?G?X?$LP?$NM?A?v?$LM?v?$LP?$KB?$LM?$KN?$LE?B?5?A?V?$LJ?$KO?$MA?L?5?$LK?R?$LA?$KB?G?U?$LE?O?$LE@ DB 0c7H
	DB	0d8H, 0bfH, 0dcH, 0c1H, 0f6H, 0bcH, 0f6H, 0bfH, 0a1H, 0bcH, 0adH
	DB	0b4H, 0c2H, ' ', 0c1H, 0d6H, 0b9H, 0aeH, 0c0H, 0ccH, ' ', 0baH
	DB	0d2H, 0b0H, 0a1H, 0c7H, 0d5H, 0b4H, 0cfH, 0b4H, 0d9H, '.', 00H ; `string'
CONST	ENDS
;	COMDAT ??_C@_0BO@IJIBIHGG@MS30?$LP?$KB?$LM?$KN?$LE?B?5?A?V?$LJ?$KO?$MA?L?5?$LK?R?$LA?$KB?G?U?$LE?O?$LE?Y?4@
CONST	SEGMENT
??_C@_0BO@IJIBIHGG@MS30?$LP?$KB?$LM?$KN?$LE?B?5?A?V?$LJ?$KO?$MA?L?5?$LK?R?$LA?$KB?G?U?$LE?O?$LE?Y?4@ DB 'M'
	DB	'S30', 0bfH, 0a1H, 0bcH, 0adH, 0b4H, 0c2H, ' ', 0c1H, 0d6H, 0b9H
	DB	0aeH, 0c0H, 0ccH, ' ', 0baH, 0d2H, 0b0H, 0a1H, 0c7H, 0d5H, 0b4H
	DB	0cfH, 0b4H, 0d9H, '.', 00H			; `string'
CONST	ENDS
;	COMDAT ??_C@_0CC@IAIDCHCN@?$LO?w?A?$LO?A?v?$LM?v?$LP?$KB?$LM?$KN?$LE?B?5?A?V?$LJ?$KO?$MA?L?5?$LK?R?$LA?$KB?G?U?$LE?O?$LE@
CONST	SEGMENT
??_C@_0CC@IAIDCHCN@?$LO?w?A?$LO?A?v?$LM?v?$LP?$KB?$LM?$KN?$LE?B?5?A?V?$LJ?$KO?$MA?L?5?$LK?R?$LA?$KB?G?U?$LE?O?$LE@ DB 0beH
	DB	0f7H, 0c1H, 0beH, 0c1H, 0f6H, 0bcH, 0f6H, 0bfH, 0a1H, 0bcH, 0adH
	DB	0b4H, 0c2H, ' ', 0c1H, 0d6H, 0b9H, 0aeH, 0c0H, 0ccH, ' ', 0baH
	DB	0d2H, 0b0H, 0a1H, 0c7H, 0d5H, 0b4H, 0cfH, 0b4H, 0d9H, '.', 00H ; `string'
CONST	ENDS
;	COMDAT ??_C@_07MBLBAEDA@STBAsic@
CONST	SEGMENT
??_C@_07MBLBAEDA@STBAsic@ DB 'STBAsic', 00H		; `string'
CONST	ENDS
;	COMDAT ??_C@_0L@CNMPMHDJ@AllowJumun@
CONST	SEGMENT
??_C@_0L@CNMPMHDJ@AllowJumun@ DB 'AllowJumun', 00H	; `string'
CONST	ENDS
;	COMDAT ??_C@_05IJKFNIJF@f0201@
CONST	SEGMENT
??_C@_05IJKFNIJF@f0201@ DB 'f0201', 00H			; `string'
CONST	ENDS
;	COMDAT ??_C@_05GFCMPLNO@c1002@
CONST	SEGMENT
??_C@_05GFCMPLNO@c1002@ DB 'c1002', 00H			; `string'
CONST	ENDS
;	COMDAT ??_C@_0BI@PLCLJLGO@DoModal_DlgSysVarOption@
CONST	SEGMENT
??_C@_0BI@PLCLJLGO@DoModal_DlgSysVarOption@ DB 'DoModal_DlgSysVarOption', 00H ; `string'
CONST	ENDS
;	COMDAT ??_C@_0BO@DLDLABLN@HWStrategyConfigureWizard?4dll@
CONST	SEGMENT
??_C@_0BO@DLDLABLN@HWStrategyConfigureWizard?4dll@ DB 'HWStrategyConfigur'
	DB	'eWizard.dll', 00H				; `string'
CONST	ENDS
;	COMDAT ??_C@_0P@OMDCFLHM@STPATH?$DN?$CFs?2?$CFs?$CFs@
CONST	SEGMENT
??_C@_0P@OMDCFLHM@STPATH?$DN?$CFs?2?$CFs?$CFs@ DB 'STPATH=%s\%s%s', 00H ; `string'
CONST	ENDS
;	COMDAT ??_C@_0O@GLFFNEMD@SFGPATH?$DN?$CFs?2?$CFs@
CONST	SEGMENT
??_C@_0O@GLFFNEMD@SFGPATH?$DN?$CFs?2?$CFs@ DB 'SFGPATH=%s\%s', 00H ; `string'
CONST	ENDS
;	COMDAT ??_C@_09KEIDFEGD@STNAME?$DN?$CFs@
CONST	SEGMENT
??_C@_09KEIDFEGD@STNAME?$DN?$CFs@ DB 'STNAME=%s', 00H	; `string'
CONST	ENDS
;	COMDAT ??_C@_0O@NGCOIHBK@usr?2stdata?2sd@
CONST	SEGMENT
??_C@_0O@NGCOIHBK@usr?2stdata?2sd@ DB 'usr\stdata\sd', 00H ; `string'
CONST	ENDS
;	COMDAT ??_C@_0P@GJBKKKJN@Icss?2stdata?2sd@
CONST	SEGMENT
??_C@_0P@GJBKKKJN@Icss?2stdata?2sd@ DB 'Icss\stdata\sd', 00H ; `string'
CONST	ENDS
;	COMDAT ??_C@_0BO@PLHNFDPJ@TeeChart?4ChartPageNavigator?47@
CONST	SEGMENT
??_C@_0BO@PLHNFDPJ@TeeChart?4ChartPageNavigator?47@ DB 'TeeChart.ChartPag'
	DB	'eNavigator.7', 00H				; `string'
CONST	ENDS
;	COMDAT ??_C@_0N@CPPCJIEJ@Mschrt20?4ocx@
CONST	SEGMENT
??_C@_0N@CPPCJIEJ@Mschrt20?4ocx@ DB 'Mschrt20.ocx', 00H	; `string'
CONST	ENDS
;	COMDAT ??_C@_0BH@BPKOJLNA@MSChart20Lib?4MSChart?42@
CONST	SEGMENT
??_C@_0BH@BPKOJLNA@MSChart20Lib?4MSChart?42@ DB 'MSChart20Lib.MSChart.2', 00H ; `string'
CONST	ENDS
;	COMDAT ??_C@_09JELLLLNA@?$CFs?2dev?2?$CFs@
CONST	SEGMENT
??_C@_09JELLLLNA@?$CFs?2dev?2?$CFs@ DB '%s\dev\%s', 00H	; `string'
CONST	ENDS
;	COMDAT ??_C@_09KKMEEMHD@?$CFs?2exe?2?$CFs@
CONST	SEGMENT
??_C@_09KKMEEMHD@?$CFs?2exe?2?$CFs@ DB '%s\exe\%s', 00H	; `string'
CONST	ENDS
;	COMDAT ??_C@_0O@CKKCLLBB@TeeChart7?4ocx@
CONST	SEGMENT
??_C@_0O@CKKCLLBB@TeeChart7?4ocx@ DB 'TeeChart7.ocx', 00H ; `string'
CONST	ENDS
;	COMDAT ??_C@_01JKBOJNNK@?$FO@
CONST	SEGMENT
??_C@_01JKBOJNNK@?$FO@ DB '^', 00H			; `string'
CONST	ENDS
;	COMDAT ??_C@_0L@FEICBMFP@?2STData?2SD@
CONST	SEGMENT
??_C@_0L@FEICBMFP@?2STData?2SD@ DB '\STData\SD', 00H	; `string'
CONST	ENDS
;	COMDAT ??_C@_03GELJOCAG@?4SD@
CONST	SEGMENT
??_C@_03GELJOCAG@?4SD@ DB '.SD', 00H			; `string'
CONST	ENDS
;	COMDAT ??_C@_0BF@KKLLNDJP@Icss?2stdata?2stsystem@
CONST	SEGMENT
??_C@_0BF@KKLLNDJP@Icss?2stdata?2stsystem@ DB 'Icss\stdata\stsystem', 00H ; `string'
CONST	ENDS
;	COMDAT ??_C@_0N@GKFNKJGL@StrategyList@
CONST	SEGMENT
??_C@_0N@GKFNKJGL@StrategyList@ DB 'StrategyList', 00H	; `string'
CONST	ENDS
;	COMDAT ??_C@_08HGPJPHIB@PosName0@
CONST	SEGMENT
??_C@_08HGPJPHIB@PosName0@ DB 'PosName0', 00H		; `string'
CONST	ENDS
;	COMDAT ??_C@_02LJNKBDKE@?$FO0@
CONST	SEGMENT
??_C@_02LJNKBDKE@?$FO0@ DB '^0', 00H			; `string'
CONST	ENDS
;	COMDAT ??_C@_02MEKNOHOB@?$FO5@
CONST	SEGMENT
??_C@_02MEKNOHOB@?$FO5@ DB '^5', 00H			; `string'
CONST	ENDS
;	COMDAT ??_C@_02NNLGNGKA@?$FO4@
CONST	SEGMENT
??_C@_02NNLGNGKA@?$FO4@ DB '^4', 00H			; `string'
CONST	ENDS
;	COMDAT ??_C@_02KAMBCCOF@?$FO1@
CONST	SEGMENT
??_C@_02KAMBCCOF@?$FO1@ DB '^1', 00H			; `string'
CONST	ENDS
;	COMDAT ??_C@_08OOJOHCD@?$CFs?2?$CFs?4ST@
CONST	SEGMENT
??_C@_08OOJOHCD@?$CFs?2?$CFs?4ST@ DB '%s\%s.ST', 00H	; `string'
CONST	ENDS
;	COMDAT ??_C@_0L@EGLGCEHG@STData?2SDD@
CONST	SEGMENT
??_C@_0L@EGLGCEHG@STData?2SDD@ DB 'STData\SDD', 00H	; `string'
CONST	ENDS
;	COMDAT ??_C@_09KOCLIKCG@STData?2SD@
CONST	SEGMENT
??_C@_09KOCLIKCG@STData?2SD@ DB 'STData\SD', 00H	; `string'
CONST	ENDS
;	COMDAT ??_C@_0BK@LOJGNPMK@STData?2STBasic?2?$LL?g?$LP?k?$MA?Z?$MA?$PM?$LH?$KL@
CONST	SEGMENT
??_C@_0BK@LOJGNPMK@STData?2STBasic?2?$LL?g?$LP?k?$MA?Z?$MA?$PM?$LH?$KL@ DB 'S'
	DB	'TData\STBasic\', 0bbH, 0e7H, 0bfH, 0ebH, 0c0H, 0daH, 0c0H, 0fcH
	DB	0b7H, 0abH, 00H				; `string'
CONST	ENDS
;	COMDAT ??_C@_0P@DJLJBKHA@STData?2STBasic@
CONST	SEGMENT
??_C@_0P@DJLJBKHA@STData?2STBasic@ DB 'STData\STBasic', 00H ; `string'
CONST	ENDS
;	COMDAT ??_C@_0M@LCNHCPP@STData?2Temp@
CONST	SEGMENT
??_C@_0M@LCNHCPP@STData?2Temp@ DB 'STData\Temp', 00H	; `string'
CONST	ENDS
;	COMDAT ??_C@_0BJ@HMEDFCNB@STData?2ST?2?$LL?g?$LP?k?$MA?Z?A?$LG?G?U?$MA?$PM?$LH?$KL@
CONST	SEGMENT
??_C@_0BJ@HMEDFCNB@STData?2ST?2?$LL?g?$LP?k?$MA?Z?A?$LG?G?U?$MA?$PM?$LH?$KL@ DB 'S'
	DB	'TData\ST\', 0bbH, 0e7H, 0bfH, 0ebH, 0c0H, 0daH, 0c1H, 0b6H, 0c7H
	DB	0d5H, 0c0H, 0fcH, 0b7H, 0abH, 00H		; `string'
CONST	ENDS
;	COMDAT ??_C@_0BJ@EBBPKHM@STData?2ST?2?$LL?g?$LP?k?$MA?Z?$LE?$NM?$MA?$KH?$MA?$PM?$LH?$KL@
CONST	SEGMENT
??_C@_0BJ@EBBPKHM@STData?2ST?2?$LL?g?$LP?k?$MA?Z?$LE?$NM?$MA?$KH?$MA?$PM?$LH?$KL@ DB 'S'
	DB	'TData\ST\', 0bbH, 0e7H, 0bfH, 0ebH, 0c0H, 0daH, 0b4H, 0dcH, 0c0H
	DB	0a7H, 0c0H, 0fcH, 0b7H, 0abH, 00H		; `string'
CONST	ENDS
;	COMDAT ??_C@_09OEOJJIHH@STData?2ST@
CONST	SEGMENT
??_C@_09OEOJJIHH@STData?2ST@ DB 'STData\ST', 00H	; `string'
CONST	ENDS
;	COMDAT ??_C@_06OGEGGNMP@STData@
CONST	SEGMENT
??_C@_06OGEGGNMP@STData@ DB 'STData', 00H		; `string'
CONST	ENDS
;	COMDAT ??_C@_0BO@CPKKMKKO@SCW_DeleteInterfaceOfStrategy@
CONST	SEGMENT
??_C@_0BO@CPKKMKKO@SCW_DeleteInterfaceOfStrategy@ DB 'SCW_DeleteInterface'
	DB	'OfStrategy', 00H				; `string'
CONST	ENDS
;	COMDAT ??_C@_0BL@OHKGLIGI@SCW_GetInterfaceOfStrategy@
CONST	SEGMENT
??_C@_0BL@OHKGLIGI@SCW_GetInterfaceOfStrategy@ DB 'SCW_GetInterfaceOfStra'
	DB	'tegy', 00H					; `string'
CONST	ENDS
;	COMDAT ??_C@_09HNPKBJBA@stdata?2st@
CONST	SEGMENT
??_C@_09HNPKBJBA@stdata?2st@ DB 'stdata\st', 00H	; `string'
CONST	ENDS
;	COMDAT ??_C@_0CD@HGNBEHEC@?2dev?2HWStrategyConfigureWizard?4@
CONST	SEGMENT
??_C@_0CD@HGNBEHEC@?2dev?2HWStrategyConfigureWizard?4@ DB '\dev\HWStrateg'
	DB	'yConfigureWizard.dll', 00H			; `string'
CONST	ENDS
;	COMDAT ??_C@_0BD@OCOIJGGE@?$CFs?2outbar_icon?4bmp@
CONST	SEGMENT
??_C@_0BD@OCOIJGGE@?$CFs?2outbar_icon?4bmp@ DB '%s\outbar_icon.bmp', 00H ; `string'
CONST	ENDS
;	COMDAT ??_C@_0O@DADNAINN@?$CFs?2folder?4bmp@
CONST	SEGMENT
??_C@_0O@DADNAINN@?$CFs?2folder?4bmp@ DB '%s\folder.bmp', 00H ; `string'
CONST	ENDS
;	COMDAT ??_C@_06PKADKHFF@?$MA?g?A?$LG?H?$LI@
CONST	SEGMENT
??_C@_06PKADKHFF@?$MA?g?A?$LG?H?$LI@ DB 0c0H, 0e7H, 0c1H, 0b6H, 0c8H, 0b8H
	DB	00H						; `string'
CONST	ENDS
;	COMDAT ??_C@_08OEAPFIFH@?$LM?$LK?$LA?z?$LK?P?$LM?$KO@
CONST	SEGMENT
??_C@_08OEAPFIFH@?$LM?$LK?$LA?z?$LK?P?$LM?$KO@ DB 0bcH, 0baH, 0b0H, 0faH, 0baH
	DB	0d0H, 0bcH, 0aeH, 00H			; `string'
CONST	ENDS
;	COMDAT ??_C@_04OJDIEKEH@?G?X?A?$KG@
CONST	SEGMENT
??_C@_04OJDIEKEH@?G?X?A?$KG@ DB 0c7H, 0d8H, 0c1H, 0a6H, 00H ; `string'
CONST	ENDS
;	COMDAT ??_C@_06GHGGCGIE@?C?V?$MA?$PL?H?$KN@
CONST	SEGMENT
??_C@_06GHGGCGIE@?C?V?$MA?$PL?H?$KN@ DB 0c3H, 0d6H, 0c0H, 0fbH, 0c8H, 0adH
	DB	00H						; `string'
CONST	ENDS
;	COMDAT ??_C@_08FFNCOOBK@?$MA?$PM?$LH?$KL?$MA?$NL?$LM?$LK@
CONST	SEGMENT
??_C@_08FFNCOOBK@?$MA?$PM?$LH?$KL?$MA?$NL?$LM?$LK@ DB 0c0H, 0fcH, 0b7H, 0abH
	DB	0c0H, 0dbH, 0bcH, 0baH, 00H			; `string'
CONST	ENDS
;	COMDAT ??_C@_0BD@GPFJHOGC@?F?$KP?H?$KN?H?$KN?$LI?i?5?$LH?N?$LF?e?5?$LP?$KB?$LH?$KP@
CONST	SEGMENT
??_C@_0BD@GPFJHOGC@?F?$KP?H?$KN?H?$KN?$LI?i?5?$LH?N?$LF?e?5?$LP?$KB?$LH?$KP@ DB 0c6H
	DB	0afH, 0c8H, 0adH, 0c8H, 0adH, 0b8H, 0e9H, ' ', 0b7H, 0ceH, 0b5H
	DB	0e5H, ' ', 0bfH, 0a1H, 0b7H, 0afH, 00H	; `string'
CONST	ENDS
;	COMDAT ??_C@_0BC@CJPOKCCI@CREATE_TRADING_EX@
CONST	SEGMENT
??_C@_0BC@CJPOKCCI@CREATE_TRADING_EX@ DB 'CREATE_TRADING_EX', 00H ; `string'
CONST	ENDS
;	COMDAT ??_C@_0BD@JKFCKDIB@?$CFs?5File?5Load?5Faile@
CONST	SEGMENT
??_C@_0BD@JKFCKDIB@?$CFs?5File?5Load?5Faile@ DB '%s File Load Faile', 00H ; `string'
CONST	ENDS
;	COMDAT ??_C@_04HLONOPDM@?4dll@
CONST	SEGMENT
??_C@_04HLONOPDM@?4dll@ DB '.dll', 00H			; `string'
CONST	ENDS
;	COMDAT ??_C@_0BD@JAKAOGNI@HWStrategyAnalysis@
CONST	SEGMENT
??_C@_0BD@JAKAOGNI@HWStrategyAnalysis@ DB 'HWStrategyAnalysis', 00H ; `string'
CONST	ENDS
;	COMDAT ??_C@_04JIMNDDED@?$CF08X@
CONST	SEGMENT
??_C@_04JIMNDDED@?$CF08X@ DB '%08X', 00H		; `string'
CONST	ENDS
;	COMDAT ??_C@_0O@OENIFHCP@SystemTrading@
CONST	SEGMENT
??_C@_0O@OENIFHCP@SystemTrading@ DB 'SystemTrading', 00H ; `string'
CONST	ENDS
;	COMDAT ??_C@_0BH@DGGPLJDE@MultiChart_ReceiveData@
CONST	SEGMENT
??_C@_0BH@DGGPLJDE@MultiChart_ReceiveData@ DB 'MultiChart_ReceiveData', 00H ; `string'
CONST	ENDS
;	COMDAT ??_C@_0BA@PIGBAOMG@STLIST_MODIFIED@
CONST	SEGMENT
??_C@_0BA@PIGBAOMG@STLIST_MODIFIED@ DB 'STLIST_MODIFIED', 00H ; `string'
CONST	ENDS
;	COMDAT ??_C@_0DB@EIJFPBEL@?$LK?P?G?R?1?A?$NP?C?$LI?$MA?O?5?$LA?f?$LP?l?$LP?$KB?$LE?B?5?$LK?$LI?$LA?m?$LM?$KN?5?$LJ?v?F@
CONST	SEGMENT
??_C@_0DB@EIJFPBEL@?$LK?P?G?R?1?A?$NP?C?$LI?$MA?O?5?$LA?f?$LP?l?$LP?$KB?$LE?B?5?$LK?$LI?$LA?m?$LM?$KN?5?$LJ?v?F@ DB 0baH
	DB	0d0H, 0c7H, 0d2H, '/', 0c1H, 0dfH, 0c3H, 0b8H, 0c0H, 0cfH, ' ', 0b0H
	DB	0e6H, 0bfH, 0ecH, 0bfH, 0a1H, 0b4H, 0c2H, ' ', 0baH, 0b8H, 0b0H
	DB	0edH, 0bcH, 0adH, ' ', 0b9H, 0f6H, 0c6H, 0b0H, 0c0H, 0bbH, ' ', 0c0H
	DB	0ccH, 0bfH, 0ebH, 0c7H, 0d8H, 0c1H, 0d6H, 0bcH, 0bcH, 0bfH, 0e4H
	DB	'.', 00H					; `string'
CONST	ENDS
;	COMDAT ??_C@_0CE@LIBOKAIK@?$MA?$PL?$LP?k?G?R?5?$MA?$PM?$LH?$KL?$MA?$LL?5?$LM?$LB?E?C?G?X?A?V?$LN?C?$LB?b?5?$LJ?Y?$LG?x@
CONST	SEGMENT
??_C@_0CE@LIBOKAIK@?$MA?$PL?$LP?k?G?R?5?$MA?$PM?$LH?$KL?$MA?$LL?5?$LM?$LB?E?C?G?X?A?V?$LN?C?$LB?b?5?$LJ?Y?$LG?x@ DB 0c0H
	DB	0fbH, 0bfH, 0ebH, 0c7H, 0d2H, ' ', 0c0H, 0fcH, 0b7H, 0abH, 0c0H
	DB	0bbH, ' ', 0bcH, 0b1H, 0c5H, 0c3H, 0c7H, 0d8H, 0c1H, 0d6H, 0bdH
	DB	0c3H, 0b1H, 0e2H, ' ', 0b9H, 0d9H, 0b6H, 0f8H, 0b4H, 0cfH, 0b4H
	DB	0d9H, 00H					; `string'
CONST	ENDS
;	COMDAT ??_C@_0BG@CHJJKIAP@ChartSTIndexAddIn?4dll@
CONST	SEGMENT
??_C@_0BG@CHJJKIAP@ChartSTIndexAddIn?4dll@ DB 'ChartSTIndexAddIn.dll', 00H ; `string'
CONST	ENDS
;	COMDAT ??_C@_0BE@MEGAPCJC@?2dev?2IndexOptimizer@
CONST	SEGMENT
??_C@_0BE@MEGAPCJC@?2dev?2IndexOptimizer@ DB '\dev\IndexOptimizer', 00H ; `string'
CONST	ENDS
;	COMDAT ??_C@_0EJ@JEOKELGF@?C?V?$MA?$PL?H?$KN?$LP?$KB?$LM?$KN?5?G?J?$LP?d?G?Q?5OCX?$CITeeChart7@
CONST	SEGMENT
??_C@_0EJ@JEOKELGF@?C?V?$MA?$PL?H?$KN?$LP?$KB?$LM?$KN?5?G?J?$LP?d?G?Q?5OCX?$CITeeChart7@ DB 0c3H
	DB	0d6H, 0c0H, 0fbH, 0c8H, 0adH, 0bfH, 0a1H, 0bcH, 0adH, ' ', 0c7H
	DB	0caH, 0bfH, 0e4H, 0c7H, 0d1H, ' OCX(TeeChart7.ocx, MSChrt20.oc'
	DB	'x)', 0b5H, 0eeH, 0b7H, 0cfH, 0c0H, 0ccH, ' ', 0beH, 0c8H, 0b5H
	DB	0c7H, 0beH, 0eeH, 0c0H, 0d6H, 0bdH, 0c0H, 0b4H, 0cfH, 0b4H, 0d9H
	DB	'.', 00H					; `string'
CONST	ENDS
;	COMDAT ??_C@_0BI@PFKPIPEB@?A?$LO?$LI?q?A?$LG?H?$LI?5?H?D?5?$LA?$KB?$LE?I?G?U?$LE?O?$LE?Y?4@
CONST	SEGMENT
??_C@_0BI@PFKPIPEB@?A?$LO?$LI?q?A?$LG?H?$LI?5?H?D?5?$LA?$KB?$LE?I?G?U?$LE?O?$LE?Y?4@ DB 0c1H
	DB	0beH, 0b8H, 0f1H, 0c1H, 0b6H, 0c8H, 0b8H, ' ', 0c8H, 0c4H, ' ', 0b0H
	DB	0a1H, 0b4H, 0c9H, 0c7H, 0d5H, 0b4H, 0cfH, 0b4H, 0d9H, '.', 00H ; `string'
CONST	ENDS
;	COMDAT ??_C@_0L@PKLMOOMC@?$LN?C?$LA?$KD?C?V?$MA?$PL?H?$KN@
CONST	SEGMENT
??_C@_0L@PKLMOOMC@?$LN?C?$LA?$KD?C?V?$MA?$PL?H?$KN@ DB 0bdH, 0c3H, 0b0H, 0a3H
	DB	0c3H, 0d6H, 0c0H, 0fbH, 0c8H, 0adH, 00H	; `string'
CONST	ENDS
;	COMDAT ??_C@_0L@ODKOBBAJ@?$LK?$KP?$LM?v?C?V?$MA?$PL?H?$KN@
CONST	SEGMENT
??_C@_0L@ODKOBBAJ@?$LK?$KP?$LM?v?C?V?$MA?$PL?H?$KN@ DB 0baH, 0afH, 0bcH, 0f6H
	DB	0c3H, 0d6H, 0c0H, 0fbH, 0c8H, 0adH, 00H	; `string'
CONST	ENDS
;	COMDAT ??_C@_0L@OBHGFOPP@?$MA?$PM?$LH?$KL?C?V?$MA?$PL?H?$KN@
CONST	SEGMENT
??_C@_0L@OBHGFOPP@?$MA?$PM?$LH?$KL?C?V?$MA?$PL?H?$KN@ DB 0c0H, 0fcH, 0b7H
	DB	0abH, 0c3H, 0d6H, 0c0H, 0fbH, 0c8H, 0adH, 00H ; `string'
CONST	ENDS
;	COMDAT ??_C@_0BB@KNEADKDO@?$MA?$PM?$LH?$KL?$MA?$NL?$LM?$LK?$CIWizard?$CJ@
CONST	SEGMENT
??_C@_0BB@KNEADKDO@?$MA?$PM?$LH?$KL?$MA?$NL?$LM?$LK?$CIWizard?$CJ@ DB 0c0H
	DB	0fcH, 0b7H, 0abH, 0c0H, 0dbH, 0bcH, 0baH, '(Wizard)', 00H ; `string'
CONST	ENDS
;	COMDAT ??_C@_0BP@CFDAMKMM@?2dev?2HWStrategyConfigureWizard@
CONST	SEGMENT
??_C@_0BP@CFDAMKMM@?2dev?2HWStrategyConfigureWizard@ DB '\dev\HWStrategyC'
	DB	'onfigureWizard', 00H			; `string'
CONST	ENDS
;	COMDAT ??_C@_0O@DBLFPBPG@SYSTEMDLLPATH@
CONST	SEGMENT
??_C@_0O@DBLFPBPG@SYSTEMDLLPATH@ DB 'SYSTEMDLLPATH', 00H ; `string'
CONST	ENDS
;	COMDAT ??_C@_04EHADJNMH@?2dev@
CONST	SEGMENT
??_C@_04EHADJNMH@?2dev@ DB '\dev', 00H			; `string'
CONST	ENDS
;	COMDAT ??_C@_0BD@CNEELEMP@SCW_IGfxOutBarCtrl@
CONST	SEGMENT
??_C@_0BD@CNEELEMP@SCW_IGfxOutBarCtrl@ DB 'SCW_IGfxOutBarCtrl', 00H ; `string'
CONST	ENDS
;	COMDAT ?messageMap@?1??GetThisMessageMap@CTabSystemTradingEx@@KGPBUAFX_MSGMAP@@XZ@4U3@B
CONST	SEGMENT
?messageMap@?1??GetThisMessageMap@CTabSystemTradingEx@@KGPBUAFX_MSGMAP@@XZ@4U3@B DD FLAT:?GetThisMessageMap@CTabDlg@@KGPBUAFX_MSGMAP@@XZ ; `CTabSystemTradingEx::GetThisMessageMap'::`2'::messageMap
	DD	FLAT:?_messageEntries@?1??GetThisMessageMap@CTabSystemTradingEx@@KGPBUAFX_MSGMAP@@XZ@4QBUAFX_MSGMAP_ENTRY@@B
CONST	ENDS
;	COMDAT ?_messageEntries@?1??GetThisMessageMap@CTabSystemTradingEx@@KGPBUAFX_MSGMAP@@XZ@4QBUAFX_MSGMAP_ENTRY@@B
CONST	SEGMENT
?_messageEntries@?1??GetThisMessageMap@CTabSystemTradingEx@@KGPBUAFX_MSGMAP@@XZ@4QBUAFX_MSGMAP_ENTRY@@B DD 05H ; `CTabSystemTradingEx::GetThisMessageMap'::`2'::_messageEntries
	DD	00H
	DD	00H
	DD	00H
	DD	01aH
	DD	FLAT:?OnSize@CTabSystemTradingEx@@IAEXIHH@Z
	DD	019H
	DD	00H
	DD	00H
	DD	00H
	DD	08H
	DD	FLAT:?OnCtlColor@CTabSystemTradingEx@@IAEPAUHBRUSH__@@PAVCDC@@PAVCWnd@@I@Z
	DD	02H
	DD	00H
	DD	00H
	DD	00H
	DD	013H
	DD	FLAT:?OnDestroy@CTabSystemTradingEx@@IAEXXZ
	DD	0111H
	DD	00H
	DD	01877H
	DD	01877H
	DD	03aH
	DD	FLAT:?OnBtnStwizardA@CTabSystemTradingEx@@IAEXXZ
	DD	0111H
	DD	00H
	DD	01866H
	DD	01866H
	DD	03aH
	DD	FLAT:?OnBtnStoptimaA@CTabSystemTradingEx@@IAEXXZ
	DD	0111H
	DD	00H
	DD	01892H
	DD	01892H
	DD	03aH
	DD	FLAT:?OnBtnStDelete@CTabSystemTradingEx@@IAEXXZ
	DD	0111H
	DD	00H
	DD	01867H
	DD	01867H
	DD	03aH
	DD	FLAT:?OnBtnStanal@CTabSystemTradingEx@@IAEXXZ
	DD	0111H
	DD	00H
	DD	0187fH
	DD	0187fH
	DD	03aH
	DD	FLAT:?OnBnClickedStchkdiv@CTabSystemTradingEx@@QAEXXZ
	DD	0c000H
	DD	00H
	DD	00H
	DD	00H
	DD	FLAT:?RMSG_OB_ITEMCLICK@@3IB
	DD	FLAT:?OnRmsgObItemClk@CTabSystemTradingEx@@IAEJIJ@Z
	DD	0c000H
	DD	00H
	DD	00H
	DD	00H
	DD	FLAT:?RMSG_OB_ITEMDBLCLK@@3IB
	DD	FLAT:?OnRmsgObItemDBClk@CTabSystemTradingEx@@IAEJIJ@Z
	DD	0c000H
	DD	00H
	DD	00H
	DD	00H
	DD	FLAT:?RMSG_RUN_MULTIST@@3IB
	DD	FLAT:?OnRmsgMultiST@CTabSystemTradingEx@@IAEJIJ@Z
	DD	0c000H
	DD	00H
	DD	00H
	DD	00H
	DD	FLAT:?RMSG_INDEXADDIN_NOTIFY_RAWDATA@@3IB
	DD	FLAT:?OnRmsgIndexAddinNotifyRawData@CTabSystemTradingEx@@IAEJIJ@Z
	DD	0c000H
	DD	00H
	DD	00H
	DD	00H
	DD	FLAT:?RMSG_INDEXADDIN_NOTIFY_BUYSELL@@3IB
	DD	FLAT:?OnRmsgIndexAddinNotifyBuySell@CTabSystemTradingEx@@IAEJIJ@Z
	DD	0c000H
	DD	00H
	DD	00H
	DD	00H
	DD	FLAT:?RMSG_INDEXADDIN_NOTIFY_SIGNAL@@3IB
	DD	FLAT:?OnRmsgIndexAddinNotifySignal@CTabSystemTradingEx@@IAEJIJ@Z
	DD	0c000H
	DD	00H
	DD	00H
	DD	00H
	DD	FLAT:?RMSG_DESTROY_CONFIRMWND@@3IB
	DD	FLAT:?OnRmsgDestroyConfirmWnd@CTabSystemTradingEx@@IAEJIJ@Z
	DD	0c000H
	DD	00H
	DD	00H
	DD	00H
	DD	FLAT:?RMSG_ISSTRUNSTATE@@3IB
	DD	FLAT:?OnRmsgIsSTRunState@CTabSystemTradingEx@@IAEJIJ@Z
	DD	0111H
	DD	00H
	DD	01863H
	DD	01863H
	DD	03aH
	DD	FLAT:?OnStshowoption@CTabSystemTradingEx@@QAEXXZ
	DD	00H
	DD	00H
	DD	00H
	DD	00H
	DD	00H
	DD	00H
CONST	ENDS
;	COMDAT ??_C@_07OPLPMPLO@JMethod@
CONST	SEGMENT
??_C@_07OPLPMPLO@JMethod@ DB 'JMethod', 00H		; `string'
CONST	ENDS
;	COMDAT ??_C@_08IFJCKPBE@RunJumun@
CONST	SEGMENT
??_C@_08IFJCKPBE@RunJumun@ DB 'RunJumun', 00H		; `string'
CONST	ENDS
;	COMDAT ??_7CTabSystemTradingEx@@6B@
CONST	SEGMENT
??_7CTabSystemTradingEx@@6B@ DD FLAT:??_R4CTabSystemTradingEx@@6B@ ; CTabSystemTradingEx::`vftable'
	DD	FLAT:?GetRuntimeClass@CDialog@@UBEPAUCRuntimeClass@@XZ
	DD	FLAT:??_ECTabSystemTradingEx@@UAEPAXI@Z
	DD	FLAT:?Serialize@CObject@@UAEXAAVCArchive@@@Z
	DD	FLAT:?AssertValid@CObject@@UBEXXZ
	DD	FLAT:?Dump@CObject@@UBEXAAVCDumpContext@@@Z
	DD	FLAT:?OnCmdMsg@CDialog@@UAEHIHPAXPAUAFX_CMDHANDLERINFO@@@Z
	DD	FLAT:?OnFinalRelease@CWnd@@UAEXXZ
	DD	FLAT:?IsInvokeAllowed@CCmdTarget@@UAEHJ@Z
	DD	FLAT:?GetDispatchIID@CCmdTarget@@UAEHPAU_GUID@@@Z
	DD	FLAT:?GetTypeInfoCount@CCmdTarget@@UAEIXZ
	DD	FLAT:?GetTypeLibCache@CCmdTarget@@UAEPAVCTypeLibCache@@XZ
	DD	FLAT:?GetTypeLib@CCmdTarget@@UAEJKPAPAUITypeLib@@@Z
	DD	FLAT:?GetMessageMap@CTabSystemTradingEx@@MBEPBUAFX_MSGMAP@@XZ
	DD	FLAT:?GetCommandMap@CCmdTarget@@MBEPBUAFX_OLECMDMAP@@XZ
	DD	FLAT:?GetDispatchMap@CCmdTarget@@MBEPBUAFX_DISPMAP@@XZ
	DD	FLAT:?GetConnectionMap@CCmdTarget@@MBEPBUAFX_CONNECTIONMAP@@XZ
	DD	FLAT:?GetInterfaceMap@CWnd@@MBEPBUAFX_INTERFACEMAP@@XZ
	DD	FLAT:?GetEventSinkMap@CCmdTarget@@MBEPBUAFX_EVENTSINKMAP@@XZ
	DD	FLAT:?OnCreateAggregates@CCmdTarget@@UAEHXZ
	DD	FLAT:?GetInterfaceHook@CCmdTarget@@UAEPAUIUnknown@@PBX@Z
	DD	FLAT:?GetExtraConnectionPoints@CCmdTarget@@MAEHPAVCPtrArray@@@Z
	DD	FLAT:?GetConnectionHook@CCmdTarget@@MAEPAUIConnectionPoint@@ABU_GUID@@@Z
	DD	FLAT:?PreSubclassWindow@CWnd@@UAEXXZ
	DD	FLAT:?Create@CWnd@@UAEHPBD0KABUtagRECT@@PAV1@IPAUCCreateContext@@@Z
	DD	FLAT:?CreateEx@CWnd@@UAEHKPBD0KABUtagRECT@@PAV1@IPAX@Z
	DD	FLAT:?CreateEx@CWnd@@UAEHKPBD0KHHHHPAUHWND__@@PAUHMENU__@@PAX@Z
	DD	FLAT:?DestroyWindow@CWnd@@UAEHXZ
	DD	FLAT:?PreCreateWindow@CWnd@@UAEHAAUtagCREATESTRUCTA@@@Z
	DD	FLAT:?CalcWindowRect@CWnd@@UAEXPAUtagRECT@@I@Z
	DD	FLAT:?GetMenu@CWnd@@UBEPAVCMenu@@XZ
	DD	FLAT:?SetMenu@CWnd@@UAEHPAVCMenu@@@Z
	DD	FLAT:?OnToolHitTest@CWnd@@UBEHVCPoint@@PAUtagTOOLINFOA@@@Z
	DD	FLAT:?GetScrollBarCtrl@CWnd@@UBEPAVCScrollBar@@H@Z
	DD	FLAT:?WinHelpA@CWnd@@UAEXKI@Z
	DD	FLAT:?HtmlHelpA@CWnd@@UAEXKI@Z
	DD	FLAT:?WinHelpInternal@CWnd@@UAEXKI@Z
	DD	FLAT:?ContinueModal@CWnd@@UAEHXZ
	DD	FLAT:?EndModalLoop@CWnd@@UAEXH@Z
	DD	FLAT:?OnDrawIconicThumbnailOrLivePreview@CWnd@@UAEXAAVCDC@@VCRect@@VCSize@@HAAH@Z
	DD	FLAT:?EnsureStdObj@CWnd@@UAEJXZ
	DD	FLAT:?get_accParent@CWnd@@UAEJPAPAUIDispatch@@@Z
	DD	FLAT:?get_accChildCount@CWnd@@UAEJPAJ@Z
	DD	FLAT:?get_accChild@CWnd@@UAEJUtagVARIANT@@PAPAUIDispatch@@@Z
	DD	FLAT:?get_accName@CWnd@@UAEJUtagVARIANT@@PAPA_W@Z
	DD	FLAT:?get_accValue@CWnd@@UAEJUtagVARIANT@@PAPA_W@Z
	DD	FLAT:?get_accDescription@CWnd@@UAEJUtagVARIANT@@PAPA_W@Z
	DD	FLAT:?get_accRole@CWnd@@UAEJUtagVARIANT@@PAU2@@Z
	DD	FLAT:?get_accState@CWnd@@UAEJUtagVARIANT@@PAU2@@Z
	DD	FLAT:?get_accHelp@CWnd@@UAEJUtagVARIANT@@PAPA_W@Z
	DD	FLAT:?get_accHelpTopic@CWnd@@UAEJPAPA_WUtagVARIANT@@PAJ@Z
	DD	FLAT:?get_accKeyboardShortcut@CWnd@@UAEJUtagVARIANT@@PAPA_W@Z
	DD	FLAT:?get_accFocus@CWnd@@UAEJPAUtagVARIANT@@@Z
	DD	FLAT:?get_accSelection@CWnd@@UAEJPAUtagVARIANT@@@Z
	DD	FLAT:?get_accDefaultAction@CWnd@@UAEJUtagVARIANT@@PAPA_W@Z
	DD	FLAT:?accSelect@CWnd@@UAEJJUtagVARIANT@@@Z
	DD	FLAT:?accLocation@CWnd@@UAEJPAJ000UtagVARIANT@@@Z
	DD	FLAT:?accNavigate@CWnd@@UAEJJUtagVARIANT@@PAU2@@Z
	DD	FLAT:?accHitTest@CWnd@@UAEJJJPAUtagVARIANT@@@Z
	DD	FLAT:?accDoDefaultAction@CWnd@@UAEJUtagVARIANT@@@Z
	DD	FLAT:?put_accName@CWnd@@UAEJUtagVARIANT@@PA_W@Z
	DD	FLAT:?put_accValue@CWnd@@UAEJUtagVARIANT@@PA_W@Z
	DD	FLAT:?SetProxy@CWnd@@UAEJPAUIAccessibleProxy@@@Z
	DD	FLAT:?CreateAccessibleProxy@CWnd@@UAEJIJPAJ@Z
	DD	FLAT:?OnCommand@CWnd@@MAEHIJ@Z
	DD	FLAT:?OnNotify@CWnd@@MAEHIJPAJ@Z
	DD	FLAT:?GetSuperWndProcAddr@CWnd@@MAEPAP6GJPAUHWND__@@IIJ@ZXZ
	DD	FLAT:?DoDataExchange@CTabSystemTradingEx@@MAEXPAVCDataExchange@@@Z
	DD	FLAT:?BeginModalState@CWnd@@UAEXXZ
	DD	FLAT:?EndModalState@CWnd@@UAEXXZ
	DD	FLAT:?PreTranslateMessage@CTabDlg@@UAEHPAUtagMSG@@@Z
	DD	FLAT:?OnAmbientProperty@CWnd@@UAEHPAVCOleControlSite@@JPAUtagVARIANT@@@Z
	DD	FLAT:?WindowProc@CWnd@@MAEJIIJ@Z
	DD	FLAT:?OnWndMsg@CWnd@@MAEHIIJPAJ@Z
	DD	FLAT:?DefWindowProcA@CWnd@@MAEJIIJ@Z
	DD	FLAT:?PostNcDestroy@CWnd@@MAEXXZ
	DD	FLAT:?OnChildNotify@CWnd@@MAEHIIJPAJ@Z
	DD	FLAT:?OnTouchInputs@CWnd@@MAEHIPAUtagTOUCHINPUT@@@Z
	DD	FLAT:?OnTouchInput@CWnd@@MAEHVCPoint@@HHPAUtagTOUCHINPUT@@@Z
	DD	FLAT:?GetGestureStatus@CWnd@@MAEKVCPoint@@@Z
	DD	FLAT:?OnGestureZoom@CWnd@@MAEHVCPoint@@J@Z
	DD	FLAT:?OnGesturePan@CWnd@@MAEHVCPoint@@0@Z
	DD	FLAT:?OnGestureRotate@CWnd@@MAEHVCPoint@@N@Z
	DD	FLAT:?OnGestureTwoFingerTap@CWnd@@MAEHVCPoint@@@Z
	DD	FLAT:?OnGesturePressAndTap@CWnd@@MAEHVCPoint@@J@Z
	DD	FLAT:?ResizeDynamicLayout@CWnd@@MAEXXZ
	DD	FLAT:?CheckAutoCenter@CDialog@@UAEHXZ
	DD	FLAT:?IsFrameWnd@CWnd@@UBEHXZ
	DD	FLAT:?CreateControlContainer@CWnd@@MAEHPAPAVCOleControlContainer@@@Z
	DD	FLAT:?CreateControlSite@CWnd@@MAEHPAVCOleControlContainer@@PAPAVCOleControlSite@@IABU_GUID@@@Z
	DD	FLAT:?SetOccDialogInfo@CDialog@@MAEHPAU_AFX_OCC_DIALOG_INFO@@@Z
	DD	FLAT:?GetOccDialogInfo@CDialog@@MAEPAU_AFX_OCC_DIALOG_INFO@@XZ
	DD	FLAT:?Create@CRscDlg@@UAEHIPAVCWnd@@@Z
	DD	FLAT:?Create@CDialog@@UAEHPBDPAVCWnd@@@Z
	DD	FLAT:?CreateIndirect@CDialog@@UAEHPAXPAVCWnd@@@Z
	DD	FLAT:?CreateIndirect@CDialog@@UAEHPBUDLGTEMPLATE@@PAVCWnd@@PAX@Z
	DD	FLAT:?DoModal@CRscDlg@@UAEHXZ
	DD	FLAT:?OnInitDialog@CTabSystemTradingEx@@MAEHXZ
	DD	FLAT:?OnSetFont@CDialog@@UAEXPAVCFont@@@Z
	DD	FLAT:?OnOK@CDialog@@MAEXXZ
	DD	FLAT:?OnCancel@CDialog@@MAEXXZ
	DD	FLAT:?PreInitDialog@CDialog@@MAEXXZ
	DD	FLAT:?ReceiveData@CTabDlg@@UAEXPAUHWND__@@PBD11PAXJ@Z
	DD	FLAT:?SetRealPriceData@CTabDlg@@UAEXPAX@Z
	DD	FLAT:?ReceiveDataFromOutSide@CTabDlg@@UAEXXZ
	DD	FLAT:?ChangeSkinColor@CTabSystemTradingEx@@UAEXK@Z
	DD	FLAT:?GetRectOfCtrl@CTabSystemTradingEx@@UAE?AVCRect@@HH@Z
CONST	ENDS
;	COMDAT ??_7CSTDlgConfirmSendJumun@CTabSystemTradingEx@@6B@
CONST	SEGMENT
??_7CSTDlgConfirmSendJumun@CTabSystemTradingEx@@6B@ DD FLAT:??_R4CSTDlgConfirmSendJumun@CTabSystemTradingEx@@6B@ ; CTabSystemTradingEx::CSTDlgConfirmSendJumun::`vftable'
	DD	FLAT:?GetParent@CSTDlgConfirmSendJumun@CTabSystemTradingEx@@EAGPAVCWnd@@XZ
	DD	FLAT:?GetHwndScreenView@CSTDlgConfirmSendJumun@CTabSystemTradingEx@@EAGPAUHWND__@@XZ
CONST	ENDS
;	COMDAT ??_7?$CMap@PAVCConfirmWnd@@PAV1@JJ@@6B@
CONST	SEGMENT
??_7?$CMap@PAVCConfirmWnd@@PAV1@JJ@@6B@ DD FLAT:??_R4?$CMap@PAVCConfirmWnd@@PAV1@JJ@@6B@ ; CMap<CConfirmWnd *,CConfirmWnd *,long,long>::`vftable'
	DD	FLAT:?GetRuntimeClass@CObject@@UBEPAUCRuntimeClass@@XZ
	DD	FLAT:??_E?$CMap@PAVCConfirmWnd@@PAV1@JJ@@UAEPAXI@Z
	DD	FLAT:?Serialize@?$CMap@PAVCConfirmWnd@@PAV1@JJ@@UAEXAAVCArchive@@@Z
	DD	FLAT:?AssertValid@CObject@@UBEXXZ
	DD	FLAT:?Dump@CObject@@UBEXAAVCDumpContext@@@Z
CONST	ENDS
;	COMDAT ??_7CSTRunManager@CTabSystemTradingEx@@6B@
CONST	SEGMENT
??_7CSTRunManager@CTabSystemTradingEx@@6B@ DD FLAT:??_R4CSTRunManager@CTabSystemTradingEx@@6B@ ; CTabSystemTradingEx::CSTRunManager::`vftable'
	DD	FLAT:?RunST@CSTRunManager@CTabSystemTradingEx@@UAGHHAAV?$CStringT@DV?$StrTraitMFC_DLL@DV?$ChTraitsCRT@D@ATL@@@@@ATL@@J@Z
	DD	FLAT:?GetSelectedSTInfo@CSTRunManager@CTabSystemTradingEx@@UAGJXZ
	DD	FLAT:?GetViewHandle@CSTRunManager@CTabSystemTradingEx@@UAGJXZ
	DD	FLAT:?GetOutBarColor@CSTRunManager@CTabSystemTradingEx@@UAGJAAK0@Z
CONST	ENDS
;	COMDAT ??_7CSTAnalysisInput@CTabSystemTradingEx@@6B@
CONST	SEGMENT
??_7CSTAnalysisInput@CTabSystemTradingEx@@6B@ DD FLAT:??_R4CSTAnalysisInput@CTabSystemTradingEx@@6B@ ; CTabSystemTradingEx::CSTAnalysisInput::`vftable'
	DD	FLAT:?SetUserData@CSTAnalysisInput@CTabSystemTradingEx@@UAGXHPAUISTUserData@@@Z
	DD	FLAT:?IsUseUserData@CSTAnalysisInput@CTabSystemTradingEx@@UAGHXZ
	DD	FLAT:?GetUserDataInterface@CSTAnalysisInput@CTabSystemTradingEx@@UAGPAUISTUserData@@XZ
	DD	FLAT:?GetData@CSTAnalysisInput@CTabSystemTradingEx@@UAG?AVCOleVariant@@H@Z
	DD	FLAT:?GetCode@CSTAnalysisInput@CTabSystemTradingEx@@UAG?AV?$CStringT@DV?$StrTraitMFC_DLL@DV?$ChTraitsCRT@D@ATL@@@@@ATL@@XZ
	DD	FLAT:?GetCodeName@CSTAnalysisInput@CTabSystemTradingEx@@UAG?AV?$CStringT@DV?$StrTraitMFC_DLL@DV?$ChTraitsCRT@D@ATL@@@@@ATL@@XZ
	DD	FLAT:?GetCodeType@CSTAnalysisInput@CTabSystemTradingEx@@UAGHXZ
	DD	FLAT:?GetSTInfo@CSTAnalysisInput@CTabSystemTradingEx@@UAGHPAUSTMNG_ITEMINFO@@@Z
	DD	FLAT:?GetCount@CSTAnalysisInput@CTabSystemTradingEx@@UAGHXZ
	DD	FLAT:?GetEndDay@CSTAnalysisInput@CTabSystemTradingEx@@UAG?AV?$CStringT@DV?$StrTraitMFC_DLL@DV?$ChTraitsCRT@D@ATL@@@@@ATL@@XZ
	DD	FLAT:?GetDivideCnt@CSTAnalysisInput@CTabSystemTradingEx@@UAGHXZ
	DD	FLAT:?GetDivideState@CSTAnalysisInput@CTabSystemTradingEx@@UAGHXZ
	DD	FLAT:?GetUnitPos@CSTAnalysisInput@CTabSystemTradingEx@@UAGHXZ
	DD	FLAT:?GetDeivideRate@CSTAnalysisInput@CTabSystemTradingEx@@UAGNXZ
	DD	FLAT:?GetChartData@CSTAnalysisInput@CTabSystemTradingEx@@UAGHAAJ000000@Z
	DD	FLAT:?IsDivide@CSTAnalysisInput@CTabSystemTradingEx@@UAGHXZ
	DD	FLAT:?GetControl@CSTAnalysisInput@CTabSystemTradingEx@@UAGJH@Z
CONST	ENDS
;	COMDAT ??_7CSTInterface@CTabSystemTradingEx@@6B@
CONST	SEGMENT
??_7CSTInterface@CTabSystemTradingEx@@6B@ DD FLAT:??_R4CSTInterface@CTabSystemTradingEx@@6B@ ; CTabSystemTradingEx::CSTInterface::`vftable'
	DD	FLAT:?GetInterface@CSTInterface@CTabSystemTradingEx@@UAGPAXH@Z
	DD	FLAT:?GetOutBarColor@CSTInterface@CTabSystemTradingEx@@UAGJAAK0@Z
CONST	ENDS
;	COMDAT ??_C@_03COHLPAFH@?4ST@
CONST	SEGMENT
??_C@_03COHLPAFH@?4ST@ DB '.ST', 00H			; `string'
CONST	ENDS
;	COMDAT ??_C@_04ECGMOPPD@?$CK?4ST@
CONST	SEGMENT
??_C@_04ECGMOPPD@?$CK?4ST@ DB '*.ST', 00H		; `string'
CONST	ENDS
;	COMDAT ??_C@_04HDOCAJNK@?$CFs?$CFs@
CONST	SEGMENT
??_C@_04HDOCAJNK@?$CFs?$CFs@ DB '%s%s', 00H		; `string'
CONST	ENDS
;	COMDAT ??_7ISTRunManager@@6B@
CONST	SEGMENT
??_7ISTRunManager@@6B@ DD FLAT:??_R4ISTRunManager@@6B@	; ISTRunManager::`vftable'
	DD	FLAT:__purecall
	DD	FLAT:__purecall
	DD	FLAT:__purecall
	DD	FLAT:__purecall
CONST	ENDS
;	COMDAT ??_7ISTAnalysisInput@@6B@
CONST	SEGMENT
??_7ISTAnalysisInput@@6B@ DD FLAT:??_R4ISTAnalysisInput@@6B@ ; ISTAnalysisInput::`vftable'
	DD	FLAT:__purecall
	DD	FLAT:__purecall
	DD	FLAT:__purecall
	DD	FLAT:__purecall
	DD	FLAT:__purecall
	DD	FLAT:__purecall
	DD	FLAT:__purecall
	DD	FLAT:__purecall
	DD	FLAT:__purecall
	DD	FLAT:__purecall
	DD	FLAT:__purecall
	DD	FLAT:__purecall
	DD	FLAT:__purecall
	DD	FLAT:__purecall
	DD	FLAT:__purecall
	DD	FLAT:__purecall
	DD	FLAT:__purecall
CONST	ENDS
;	COMDAT ??_7ISTInterface@@6B@
CONST	SEGMENT
??_7ISTInterface@@6B@ DD FLAT:??_R4ISTInterface@@6B@	; ISTInterface::`vftable'
	DD	FLAT:__purecall
	DD	FLAT:__purecall
CONST	ENDS
;	COMDAT ??_R2CDialog@@8
rdata$r	SEGMENT
??_R2CDialog@@8 DD FLAT:??_R1A@?0A@EA@CDialog@@8	; CDialog::`RTTI Base Class Array'
	DD	FLAT:??_R1A@?0A@EA@CWnd@@8
	DD	FLAT:??_R1A@?0A@EA@CCmdTarget@@8
	DD	FLAT:??_R1A@?0A@EA@CObject@@8
rdata$r	ENDS
;	COMDAT ??_R3CDialog@@8
rdata$r	SEGMENT
??_R3CDialog@@8 DD 00H					; CDialog::`RTTI Class Hierarchy Descriptor'
	DD	00H
	DD	04H
	DD	FLAT:??_R2CDialog@@8
rdata$r	ENDS
;	COMDAT ??_R0?AVCDialog@@@8
data$rs	SEGMENT
??_R0?AVCDialog@@@8 DD FLAT:??_7type_info@@6B@		; CDialog `RTTI Type Descriptor'
	DD	00H
	DB	'.?AVCDialog@@', 00H
data$rs	ENDS
;	COMDAT ??_R1A@?0A@EA@CDialog@@8
rdata$r	SEGMENT
??_R1A@?0A@EA@CDialog@@8 DD FLAT:??_R0?AVCDialog@@@8	; CDialog::`RTTI Base Class Descriptor at (0,-1,0,64)'
	DD	03H
	DD	00H
	DD	0ffffffffH
	DD	00H
	DD	040H
	DD	FLAT:??_R3CDialog@@8
rdata$r	ENDS
;	COMDAT ??_R2CCmdTarget@@8
rdata$r	SEGMENT
??_R2CCmdTarget@@8 DD FLAT:??_R1A@?0A@EA@CCmdTarget@@8	; CCmdTarget::`RTTI Base Class Array'
	DD	FLAT:??_R1A@?0A@EA@CObject@@8
rdata$r	ENDS
;	COMDAT ??_R3CCmdTarget@@8
rdata$r	SEGMENT
??_R3CCmdTarget@@8 DD 00H				; CCmdTarget::`RTTI Class Hierarchy Descriptor'
	DD	00H
	DD	02H
	DD	FLAT:??_R2CCmdTarget@@8
rdata$r	ENDS
;	COMDAT ??_R0?AVCCmdTarget@@@8
data$rs	SEGMENT
??_R0?AVCCmdTarget@@@8 DD FLAT:??_7type_info@@6B@	; CCmdTarget `RTTI Type Descriptor'
	DD	00H
	DB	'.?AVCCmdTarget@@', 00H
data$rs	ENDS
;	COMDAT ??_R1A@?0A@EA@CCmdTarget@@8
rdata$r	SEGMENT
??_R1A@?0A@EA@CCmdTarget@@8 DD FLAT:??_R0?AVCCmdTarget@@@8 ; CCmdTarget::`RTTI Base Class Descriptor at (0,-1,0,64)'
	DD	01H
	DD	00H
	DD	0ffffffffH
	DD	00H
	DD	040H
	DD	FLAT:??_R3CCmdTarget@@8
rdata$r	ENDS
;	COMDAT ??_R2CWnd@@8
rdata$r	SEGMENT
??_R2CWnd@@8 DD	FLAT:??_R1A@?0A@EA@CWnd@@8		; CWnd::`RTTI Base Class Array'
	DD	FLAT:??_R1A@?0A@EA@CCmdTarget@@8
	DD	FLAT:??_R1A@?0A@EA@CObject@@8
rdata$r	ENDS
;	COMDAT ??_R3CWnd@@8
rdata$r	SEGMENT
??_R3CWnd@@8 DD	00H					; CWnd::`RTTI Class Hierarchy Descriptor'
	DD	00H
	DD	03H
	DD	FLAT:??_R2CWnd@@8
rdata$r	ENDS
;	COMDAT ??_R0?AVCWnd@@@8
data$rs	SEGMENT
??_R0?AVCWnd@@@8 DD FLAT:??_7type_info@@6B@		; CWnd `RTTI Type Descriptor'
	DD	00H
	DB	'.?AVCWnd@@', 00H
data$rs	ENDS
;	COMDAT ??_R1A@?0A@EA@CWnd@@8
rdata$r	SEGMENT
??_R1A@?0A@EA@CWnd@@8 DD FLAT:??_R0?AVCWnd@@@8		; CWnd::`RTTI Base Class Descriptor at (0,-1,0,64)'
	DD	02H
	DD	00H
	DD	0ffffffffH
	DD	00H
	DD	040H
	DD	FLAT:??_R3CWnd@@8
rdata$r	ENDS
;	COMDAT ??_R1A@?0A@EA@CMenu@@8
rdata$r	SEGMENT
??_R1A@?0A@EA@CMenu@@8 DD FLAT:??_R0?AVCMenu@@@8	; CMenu::`RTTI Base Class Descriptor at (0,-1,0,64)'
	DD	01H
	DD	00H
	DD	0ffffffffH
	DD	00H
	DD	040H
	DD	FLAT:??_R3CMenu@@8
rdata$r	ENDS
;	COMDAT ??_R2CMenu@@8
rdata$r	SEGMENT
??_R2CMenu@@8 DD FLAT:??_R1A@?0A@EA@CMenu@@8		; CMenu::`RTTI Base Class Array'
	DD	FLAT:??_R1A@?0A@EA@CObject@@8
rdata$r	ENDS
;	COMDAT ??_R3CMenu@@8
rdata$r	SEGMENT
??_R3CMenu@@8 DD 00H					; CMenu::`RTTI Class Hierarchy Descriptor'
	DD	00H
	DD	02H
	DD	FLAT:??_R2CMenu@@8
rdata$r	ENDS
;	COMDAT ??_R0?AVCMenu@@@8
data$rs	SEGMENT
??_R0?AVCMenu@@@8 DD FLAT:??_7type_info@@6B@		; CMenu `RTTI Type Descriptor'
	DD	00H
	DB	'.?AVCMenu@@', 00H
data$rs	ENDS
;	COMDAT ??_R4CMenu@@6B@
rdata$r	SEGMENT
??_R4CMenu@@6B@ DD 00H					; CMenu::`RTTI Complete Object Locator'
	DD	00H
	DD	00H
	DD	FLAT:??_R0?AVCMenu@@@8
	DD	FLAT:??_R3CMenu@@8
rdata$r	ENDS
;	COMDAT ??_R1A@?0A@EA@CBitmap@@8
rdata$r	SEGMENT
??_R1A@?0A@EA@CBitmap@@8 DD FLAT:??_R0?AVCBitmap@@@8	; CBitmap::`RTTI Base Class Descriptor at (0,-1,0,64)'
	DD	02H
	DD	00H
	DD	0ffffffffH
	DD	00H
	DD	040H
	DD	FLAT:??_R3CBitmap@@8
rdata$r	ENDS
;	COMDAT ??_R2CBitmap@@8
rdata$r	SEGMENT
??_R2CBitmap@@8 DD FLAT:??_R1A@?0A@EA@CBitmap@@8	; CBitmap::`RTTI Base Class Array'
	DD	FLAT:??_R1A@?0A@EA@CGdiObject@@8
	DD	FLAT:??_R1A@?0A@EA@CObject@@8
rdata$r	ENDS
;	COMDAT ??_R3CBitmap@@8
rdata$r	SEGMENT
??_R3CBitmap@@8 DD 00H					; CBitmap::`RTTI Class Hierarchy Descriptor'
	DD	00H
	DD	03H
	DD	FLAT:??_R2CBitmap@@8
rdata$r	ENDS
;	COMDAT ??_R0?AVCBitmap@@@8
data$rs	SEGMENT
??_R0?AVCBitmap@@@8 DD FLAT:??_7type_info@@6B@		; CBitmap `RTTI Type Descriptor'
	DD	00H
	DB	'.?AVCBitmap@@', 00H
data$rs	ENDS
;	COMDAT ??_R4CBitmap@@6B@
rdata$r	SEGMENT
??_R4CBitmap@@6B@ DD 00H				; CBitmap::`RTTI Complete Object Locator'
	DD	00H
	DD	00H
	DD	FLAT:??_R0?AVCBitmap@@@8
	DD	FLAT:??_R3CBitmap@@8
rdata$r	ENDS
;	COMDAT ??_R1A@?0A@EA@CGdiObject@@8
rdata$r	SEGMENT
??_R1A@?0A@EA@CGdiObject@@8 DD FLAT:??_R0?AVCGdiObject@@@8 ; CGdiObject::`RTTI Base Class Descriptor at (0,-1,0,64)'
	DD	01H
	DD	00H
	DD	0ffffffffH
	DD	00H
	DD	040H
	DD	FLAT:??_R3CGdiObject@@8
rdata$r	ENDS
;	COMDAT ??_R2CGdiObject@@8
rdata$r	SEGMENT
??_R2CGdiObject@@8 DD FLAT:??_R1A@?0A@EA@CGdiObject@@8	; CGdiObject::`RTTI Base Class Array'
	DD	FLAT:??_R1A@?0A@EA@CObject@@8
rdata$r	ENDS
;	COMDAT ??_R3CGdiObject@@8
rdata$r	SEGMENT
??_R3CGdiObject@@8 DD 00H				; CGdiObject::`RTTI Class Hierarchy Descriptor'
	DD	00H
	DD	02H
	DD	FLAT:??_R2CGdiObject@@8
rdata$r	ENDS
;	COMDAT ??_R0?AVCGdiObject@@@8
data$rs	SEGMENT
??_R0?AVCGdiObject@@@8 DD FLAT:??_7type_info@@6B@	; CGdiObject `RTTI Type Descriptor'
	DD	00H
	DB	'.?AVCGdiObject@@', 00H
data$rs	ENDS
;	COMDAT ??_R4CGdiObject@@6B@
rdata$r	SEGMENT
??_R4CGdiObject@@6B@ DD 00H				; CGdiObject::`RTTI Complete Object Locator'
	DD	00H
	DD	00H
	DD	FLAT:??_R0?AVCGdiObject@@@8
	DD	FLAT:??_R3CGdiObject@@8
rdata$r	ENDS
;	COMDAT ??_R1A@?0A@EA@CObject@@8
rdata$r	SEGMENT
??_R1A@?0A@EA@CObject@@8 DD FLAT:??_R0?AVCObject@@@8	; CObject::`RTTI Base Class Descriptor at (0,-1,0,64)'
	DD	00H
	DD	00H
	DD	0ffffffffH
	DD	00H
	DD	040H
	DD	FLAT:??_R3CObject@@8
rdata$r	ENDS
;	COMDAT ??_R2CObject@@8
rdata$r	SEGMENT
??_R2CObject@@8 DD FLAT:??_R1A@?0A@EA@CObject@@8	; CObject::`RTTI Base Class Array'
rdata$r	ENDS
;	COMDAT ??_R3CObject@@8
rdata$r	SEGMENT
??_R3CObject@@8 DD 00H					; CObject::`RTTI Class Hierarchy Descriptor'
	DD	00H
	DD	01H
	DD	FLAT:??_R2CObject@@8
rdata$r	ENDS
;	COMDAT ??_R0?AVCObject@@@8
data$rs	SEGMENT
??_R0?AVCObject@@@8 DD FLAT:??_7type_info@@6B@		; CObject `RTTI Type Descriptor'
	DD	00H
	DB	'.?AVCObject@@', 00H
data$rs	ENDS
;	COMDAT ??_C@_01KICIPPFI@?2@
CONST	SEGMENT
??_C@_01KICIPPFI@?2@ DB '\', 00H			; `string'
CONST	ENDS
;	COMDAT ??_C@_02EMFKHFLK@?$CFX@
CONST	SEGMENT
??_C@_02EMFKHFLK@?$CFX@ DB '%X', 00H			; `string'
CONST	ENDS
;	COMDAT ??_C@_06NDLAHCHE@?$CFs?$CF08X@
CONST	SEGMENT
??_C@_06NDLAHCHE@?$CFs?$CF08X@ DB '%s%08X', 00H		; `string'
CONST	ENDS
;	COMDAT ??_C@_0P@IDMAJEGN@HANAROPCTRMAIN@
CONST	SEGMENT
??_C@_0P@IDMAJEGN@HANAROPCTRMAIN@ DB 'HANAROPCTRMAIN', 00H ; `string'
CONST	ENDS
;	COMDAT ??_C@_0M@CBBNGGHM@PcTrMng?4dll@
CONST	SEGMENT
??_C@_0M@CBBNGGHM@PcTrMng?4dll@ DB 'PcTrMng.dll', 00H	; `string'
CONST	ENDS
;	COMDAT ??_C@_02DKCKIIND@?$CFs@
CONST	SEGMENT
??_C@_02DKCKIIND@?$CFs@ DB '%s', 00H			; `string'
CONST	ENDS
;	COMDAT ??_C@_0N@OMEMOKLE@?$CFTs?5?$CI?$CFTs?3?$CFd?$CJ@
CONST	SEGMENT
??_C@_0N@OMEMOKLE@?$CFTs?5?$CI?$CFTs?3?$CFd?$CJ@ DB '%Ts (%Ts:%d)', 00H ; `string'
CONST	ENDS
;	COMDAT ??_C@_0BB@HBOOMJBF@?$CFTs?5?$CI?$CFTs?3?$CFd?$CJ?6?$CFTs@
CONST	SEGMENT
??_C@_0BB@HBOOMJBF@?$CFTs?5?$CI?$CFTs?3?$CFd?$CJ?6?$CFTs@ DB '%Ts (%Ts:%d'
	DB	')', 0aH, '%Ts', 00H				; `string'
CONST	ENDS
;	COMDAT ??_C@_0BP@OIEOKIDM@Exception?5thrown?5in?5destructor@
CONST	SEGMENT
??_C@_0BP@OIEOKIDM@Exception?5thrown?5in?5destructor@ DB 'Exception throw'
	DB	'n in destructor', 00H			; `string'
CONST	ENDS
;	COMDAT ??_C@_0HD@JJCHHHNK@C?3?2Program?5Files?5?$CIx86?$CJ?2Microsof@
CONST	SEGMENT
??_C@_0HD@JJCHHHNK@C?3?2Program?5Files?5?$CIx86?$CJ?2Microsof@ DB 'C:\Pro'
	DB	'gram Files (x86)\Microsoft Visual Studio\2019\Community\VC\To'
	DB	'ols\MSVC\14.29.30133\atlmfc\include\afxwin1.inl', 00H ; `string'
CONST	ENDS
;	COMDAT ??_7CMenu@@6B@
CONST	SEGMENT
??_7CMenu@@6B@ DD FLAT:??_R4CMenu@@6B@			; CMenu::`vftable'
	DD	FLAT:?GetRuntimeClass@CMenu@@UBEPAUCRuntimeClass@@XZ
	DD	FLAT:??_ECMenu@@UAEPAXI@Z
	DD	FLAT:?Serialize@CObject@@UAEXAAVCArchive@@@Z
	DD	FLAT:?AssertValid@CObject@@UBEXXZ
	DD	FLAT:?Dump@CObject@@UBEXAAVCDumpContext@@@Z
	DD	FLAT:?DrawItem@CMenu@@UAEXPAUtagDRAWITEMSTRUCT@@@Z
	DD	FLAT:?MeasureItem@CMenu@@UAEXPAUtagMEASUREITEMSTRUCT@@@Z
CONST	ENDS
;	COMDAT ??_7CBitmap@@6B@
CONST	SEGMENT
??_7CBitmap@@6B@ DD FLAT:??_R4CBitmap@@6B@		; CBitmap::`vftable'
	DD	FLAT:?GetRuntimeClass@CBitmap@@UBEPAUCRuntimeClass@@XZ
	DD	FLAT:??_ECBitmap@@UAEPAXI@Z
	DD	FLAT:?Serialize@CObject@@UAEXAAVCArchive@@@Z
	DD	FLAT:?AssertValid@CObject@@UBEXXZ
	DD	FLAT:?Dump@CObject@@UBEXAAVCDumpContext@@@Z
CONST	ENDS
;	COMDAT ??_7CGdiObject@@6B@
CONST	SEGMENT
??_7CGdiObject@@6B@ DD FLAT:??_R4CGdiObject@@6B@	; CGdiObject::`vftable'
	DD	FLAT:?GetRuntimeClass@CGdiObject@@UBEPAUCRuntimeClass@@XZ
	DD	FLAT:??_ECGdiObject@@UAEPAXI@Z
	DD	FLAT:?Serialize@CObject@@UAEXAAVCArchive@@@Z
	DD	FLAT:?AssertValid@CObject@@UBEXXZ
	DD	FLAT:?Dump@CObject@@UBEXAAVCDumpContext@@@Z
CONST	ENDS
;	COMDAT ??_C@_00CNPNBAHC@@
CONST	SEGMENT
??_C@_00CNPNBAHC@@ DB 00H				; `string'
CONST	ENDS
;	COMDAT ?_AtlWinModule@ATL@@3VCAtlWinModule@1@A
_DATA	SEGMENT
?_AtlWinModule@ATL@@3VCAtlWinModule@1@A DD 02cH		; ATL::_AtlWinModule
	DB	24 DUP(00H)
	DD	00H
_DATA	ENDS
;	COMDAT ??_R0PAVCException@@@8
data$r	SEGMENT
??_R0PAVCException@@@8 DD FLAT:??_7type_info@@6B@	; CException * `RTTI Type Descriptor'
	DD	00H
	DB	'.PAVCException@@', 00H
data$r	ENDS
;	COMDAT xdata$x
xdata$x	SEGMENT
__unwindtable$??0stAddinSTRun@@QAE@XZ DD 0ffffffffH
	DD	FLAT:__unwindfunclet$??0stAddinSTRun@@QAE@XZ$0
	DD	00H
	DD	FLAT:__unwindfunclet$??0stAddinSTRun@@QAE@XZ$1
	DD	01H
	DD	FLAT:__unwindfunclet$??0stAddinSTRun@@QAE@XZ$2
__ehfuncinfo$??0stAddinSTRun@@QAE@XZ DD 019930522H
	DD	03H
	DD	FLAT:__unwindtable$??0stAddinSTRun@@QAE@XZ
	DD	2 DUP(00H)
	DD	2 DUP(00H)
	DD	00H
	DD	01H
xdata$x	ENDS
;	COMDAT xdata$x
xdata$x	SEGMENT
__ehfuncinfo$??_Estringdispid@CComTypeInfoHolder@ATL@@QAEPAXI@Z DD 019930522H
	DD	00H
	DD	00H
	DD	2 DUP(00H)
	DD	2 DUP(00H)
	DD	00H
	DD	05H
xdata$x	ENDS
;	COMDAT xdata$x
xdata$x	SEGMENT
__unwindtable$??_G?$CMap@PAVCConfirmWnd@@PAV1@JJ@@UAEPAXI@Z DD 0ffffffffH
	DD	FLAT:___std_terminate
__ehfuncinfo$??_G?$CMap@PAVCConfirmWnd@@PAV1@JJ@@UAEPAXI@Z DD 019930522H
	DD	01H
	DD	FLAT:__unwindtable$??_G?$CMap@PAVCConfirmWnd@@PAV1@JJ@@UAEPAXI@Z
	DD	2 DUP(00H)
	DD	2 DUP(00H)
	DD	00H
	DD	05H
xdata$x	ENDS
;	COMDAT xdata$x
xdata$x	SEGMENT
__ehfuncinfo$??1?$CMap@PAVCConfirmWnd@@PAV1@JJ@@UAE@XZ DD 019930522H
	DD	00H
	DD	00H
	DD	2 DUP(00H)
	DD	2 DUP(00H)
	DD	00H
	DD	05H
xdata$x	ENDS
;	COMDAT xdata$x
xdata$x	SEGMENT
__unwindtable$?CallJunmunDlg@CTabSystemTradingEx@@QAEXPAVCSTOrderRData_EG@@@Z DD 0ffffffffH
	DD	FLAT:__unwindfunclet$?CallJunmunDlg@CTabSystemTradingEx@@QAEXPAVCSTOrderRData_EG@@@Z$0
	DD	0ffffffffH
	DD	FLAT:__unwindfunclet$?CallJunmunDlg@CTabSystemTradingEx@@QAEXPAVCSTOrderRData_EG@@@Z$1
	DD	01H
	DD	FLAT:__unwindfunclet$?CallJunmunDlg@CTabSystemTradingEx@@QAEXPAVCSTOrderRData_EG@@@Z$2
	DD	02H
	DD	FLAT:__unwindfunclet$?CallJunmunDlg@CTabSystemTradingEx@@QAEXPAVCSTOrderRData_EG@@@Z$3
__ehfuncinfo$?CallJunmunDlg@CTabSystemTradingEx@@QAEXPAVCSTOrderRData_EG@@@Z DD 019930522H
	DD	04H
	DD	FLAT:__unwindtable$?CallJunmunDlg@CTabSystemTradingEx@@QAEXPAVCSTOrderRData_EG@@@Z
	DD	2 DUP(00H)
	DD	2 DUP(00H)
	DD	00H
	DD	01H
xdata$x	ENDS
;	COMDAT xdata$x
xdata$x	SEGMENT
__unwindtable$?DoDlgSysVarOption@CTabSystemTradingEx@@QAEHPAVCStringList@@J@Z DD 0ffffffffH
	DD	FLAT:__unwindfunclet$?DoDlgSysVarOption@CTabSystemTradingEx@@QAEHPAVCStringList@@J@Z$0
__ehfuncinfo$?DoDlgSysVarOption@CTabSystemTradingEx@@QAEHPAVCStringList@@J@Z DD 019930522H
	DD	01H
	DD	FLAT:__unwindtable$?DoDlgSysVarOption@CTabSystemTradingEx@@QAEHPAVCStringList@@J@Z
	DD	2 DUP(00H)
	DD	2 DUP(00H)
	DD	00H
	DD	01H
xdata$x	ENDS
;	COMDAT xdata$x
xdata$x	SEGMENT
__ehfuncinfo$?RunIndexSD@CTabSystemTradingEx@@QAEJHPAUSTMNG_ITEMINFO@@@Z DD 019930522H
	DD	01aH
	DD	FLAT:__unwindtable$?RunIndexSD@CTabSystemTradingEx@@QAEJHPAUSTMNG_ITEMINFO@@@Z
	DD	2 DUP(00H)
	DD	2 DUP(00H)
	DD	00H
	DD	01H
__unwindtable$?RunIndexSD@CTabSystemTradingEx@@QAEJHPAUSTMNG_ITEMINFO@@@Z DD 0ffffffffH
	DD	FLAT:__unwindfunclet$?RunIndexSD@CTabSystemTradingEx@@QAEJHPAUSTMNG_ITEMINFO@@@Z$0
	DD	00H
	DD	FLAT:__unwindfunclet$?RunIndexSD@CTabSystemTradingEx@@QAEJHPAUSTMNG_ITEMINFO@@@Z$19
	DD	01H
	DD	FLAT:__unwindfunclet$?RunIndexSD@CTabSystemTradingEx@@QAEJHPAUSTMNG_ITEMINFO@@@Z$2
	DD	00H
	DD	FLAT:__unwindfunclet$?RunIndexSD@CTabSystemTradingEx@@QAEJHPAUSTMNG_ITEMINFO@@@Z$2
	DD	03H
	DD	FLAT:__unwindfunclet$?RunIndexSD@CTabSystemTradingEx@@QAEJHPAUSTMNG_ITEMINFO@@@Z$21
	DD	04H
	DD	FLAT:__unwindfunclet$?RunIndexSD@CTabSystemTradingEx@@QAEJHPAUSTMNG_ITEMINFO@@@Z$4
	DD	03H
	DD	FLAT:__unwindfunclet$?RunIndexSD@CTabSystemTradingEx@@QAEJHPAUSTMNG_ITEMINFO@@@Z$4
	DD	06H
	DD	FLAT:__unwindfunclet$?RunIndexSD@CTabSystemTradingEx@@QAEJHPAUSTMNG_ITEMINFO@@@Z$5
	DD	07H
	DD	FLAT:__unwindfunclet$?RunIndexSD@CTabSystemTradingEx@@QAEJHPAUSTMNG_ITEMINFO@@@Z$23
	DD	08H
	DD	FLAT:__unwindfunclet$?RunIndexSD@CTabSystemTradingEx@@QAEJHPAUSTMNG_ITEMINFO@@@Z$24
	DD	07H
	DD	FLAT:__unwindfunclet$?RunIndexSD@CTabSystemTradingEx@@QAEJHPAUSTMNG_ITEMINFO@@@Z$25
	DD	07H
	DD	FLAT:__unwindfunclet$?RunIndexSD@CTabSystemTradingEx@@QAEJHPAUSTMNG_ITEMINFO@@@Z$26
	DD	0bH
	DD	FLAT:__unwindfunclet$?RunIndexSD@CTabSystemTradingEx@@QAEJHPAUSTMNG_ITEMINFO@@@Z$27
	DD	0cH
	DD	FLAT:__unwindfunclet$?RunIndexSD@CTabSystemTradingEx@@QAEJHPAUSTMNG_ITEMINFO@@@Z$11
	DD	0bH
	DD	FLAT:__unwindfunclet$?RunIndexSD@CTabSystemTradingEx@@QAEJHPAUSTMNG_ITEMINFO@@@Z$11
	DD	07H
	DD	FLAT:__unwindfunclet$?RunIndexSD@CTabSystemTradingEx@@QAEJHPAUSTMNG_ITEMINFO@@@Z$11
	DD	0fH
	DD	FLAT:__unwindfunclet$?RunIndexSD@CTabSystemTradingEx@@QAEJHPAUSTMNG_ITEMINFO@@@Z$12
	DD	010H
	DD	FLAT:__unwindfunclet$?RunIndexSD@CTabSystemTradingEx@@QAEJHPAUSTMNG_ITEMINFO@@@Z$13
	DD	011H
	DD	FLAT:__unwindfunclet$?RunIndexSD@CTabSystemTradingEx@@QAEJHPAUSTMNG_ITEMINFO@@@Z$29
	DD	012H
	DD	FLAT:__unwindfunclet$?RunIndexSD@CTabSystemTradingEx@@QAEJHPAUSTMNG_ITEMINFO@@@Z$30
	DD	013H
	DD	FLAT:__unwindfunclet$?RunIndexSD@CTabSystemTradingEx@@QAEJHPAUSTMNG_ITEMINFO@@@Z$16
	DD	012H
	DD	FLAT:__unwindfunclet$?RunIndexSD@CTabSystemTradingEx@@QAEJHPAUSTMNG_ITEMINFO@@@Z$16
	DD	011H
	DD	FLAT:__unwindfunclet$?RunIndexSD@CTabSystemTradingEx@@QAEJHPAUSTMNG_ITEMINFO@@@Z$16
	DD	016H
	DD	FLAT:__unwindfunclet$?RunIndexSD@CTabSystemTradingEx@@QAEJHPAUSTMNG_ITEMINFO@@@Z$17
	DD	017H
	DD	FLAT:__unwindfunclet$?RunIndexSD@CTabSystemTradingEx@@QAEJHPAUSTMNG_ITEMINFO@@@Z$18
	DD	018H
	DD	FLAT:__unwindfunclet$?RunIndexSD@CTabSystemTradingEx@@QAEJHPAUSTMNG_ITEMINFO@@@Z$32
xdata$x	ENDS
;	COMDAT xdata$x
xdata$x	SEGMENT
__ehfuncinfo$?RunMultiST@CTabSystemTradingEx@@QAEXXZ DD 019930522H
	DD	0fH
	DD	FLAT:__unwindtable$?RunMultiST@CTabSystemTradingEx@@QAEXXZ
	DD	2 DUP(00H)
	DD	2 DUP(00H)
	DD	00H
	DD	01H
__unwindtable$?RunMultiST@CTabSystemTradingEx@@QAEXXZ DD 0ffffffffH
	DD	FLAT:__unwindfunclet$?RunMultiST@CTabSystemTradingEx@@QAEXXZ$14
	DD	00H
	DD	FLAT:__unwindfunclet$?RunMultiST@CTabSystemTradingEx@@QAEXXZ$15
	DD	01H
	DD	FLAT:__unwindfunclet$?RunMultiST@CTabSystemTradingEx@@QAEXXZ$16
	DD	0ffffffffH
	DD	FLAT:__unwindfunclet$?RunMultiST@CTabSystemTradingEx@@QAEXXZ$0
	DD	03H
	DD	FLAT:__unwindfunclet$?RunMultiST@CTabSystemTradingEx@@QAEXXZ$19
	DD	04H
	DD	FLAT:__unwindfunclet$?RunMultiST@CTabSystemTradingEx@@QAEXXZ$20
	DD	05H
	DD	FLAT:__unwindfunclet$?RunMultiST@CTabSystemTradingEx@@QAEXXZ$21
	DD	03H
	DD	FLAT:__unwindfunclet$?RunMultiST@CTabSystemTradingEx@@QAEXXZ$4
	DD	03H
	DD	FLAT:__unwindfunclet$?RunMultiST@CTabSystemTradingEx@@QAEXXZ$5
	DD	03H
	DD	FLAT:__unwindfunclet$?RunMultiST@CTabSystemTradingEx@@QAEXXZ$6
	DD	09H
	DD	FLAT:__unwindfunclet$?RunMultiST@CTabSystemTradingEx@@QAEXXZ$7
	DD	09H
	DD	FLAT:__unwindfunclet$?RunMultiST@CTabSystemTradingEx@@QAEXXZ$8
	DD	09H
	DD	FLAT:__unwindfunclet$?RunMultiST@CTabSystemTradingEx@@QAEXXZ$9
	DD	09H
	DD	FLAT:__unwindfunclet$?RunMultiST@CTabSystemTradingEx@@QAEXXZ$10
	DD	0dH
	DD	FLAT:__unwindfunclet$?RunMultiST@CTabSystemTradingEx@@QAEXXZ$11
xdata$x	ENDS
;	COMDAT xdata$x
xdata$x	SEGMENT
__ehfuncinfo$?DirectRunST@CTabSystemTradingEx@@QAEXPBD@Z DD 019930522H
	DD	0bH
	DD	FLAT:__unwindtable$?DirectRunST@CTabSystemTradingEx@@QAEXPBD@Z
	DD	2 DUP(00H)
	DD	2 DUP(00H)
	DD	00H
	DD	01H
__unwindtable$?DirectRunST@CTabSystemTradingEx@@QAEXPBD@Z DD 0ffffffffH
	DD	FLAT:__unwindfunclet$?DirectRunST@CTabSystemTradingEx@@QAEXPBD@Z$0
	DD	00H
	DD	FLAT:__unwindfunclet$?DirectRunST@CTabSystemTradingEx@@QAEXPBD@Z$1
	DD	01H
	DD	FLAT:__unwindfunclet$?DirectRunST@CTabSystemTradingEx@@QAEXPBD@Z$2
	DD	01H
	DD	FLAT:__unwindfunclet$?DirectRunST@CTabSystemTradingEx@@QAEXPBD@Z$10
	DD	03H
	DD	FLAT:__unwindfunclet$?DirectRunST@CTabSystemTradingEx@@QAEXPBD@Z$11
	DD	04H
	DD	FLAT:__unwindfunclet$?DirectRunST@CTabSystemTradingEx@@QAEXPBD@Z$12
	DD	01H
	DD	FLAT:__unwindfunclet$?DirectRunST@CTabSystemTradingEx@@QAEXPBD@Z$3
	DD	06H
	DD	FLAT:__unwindfunclet$?DirectRunST@CTabSystemTradingEx@@QAEXPBD@Z$4
	DD	06H
	DD	FLAT:__unwindfunclet$?DirectRunST@CTabSystemTradingEx@@QAEXPBD@Z$5
	DD	06H
	DD	FLAT:__unwindfunclet$?DirectRunST@CTabSystemTradingEx@@QAEXPBD@Z$6
	DD	09H
	DD	FLAT:__unwindfunclet$?DirectRunST@CTabSystemTradingEx@@QAEXPBD@Z$7
xdata$x	ENDS
;	COMDAT xdata$x
xdata$x	SEGMENT
__ehfuncinfo$?Run_STDLL@CTabSystemTradingEx@@QAEHPBD@Z DD 019930522H
	DD	0bH
	DD	FLAT:__unwindtable$?Run_STDLL@CTabSystemTradingEx@@QAEHPBD@Z
	DD	2 DUP(00H)
	DD	2 DUP(00H)
	DD	00H
	DD	01H
__unwindtable$?Run_STDLL@CTabSystemTradingEx@@QAEHPBD@Z DD 0ffffffffH
	DD	FLAT:__unwindfunclet$?Run_STDLL@CTabSystemTradingEx@@QAEHPBD@Z$0
	DD	00H
	DD	FLAT:__unwindfunclet$?Run_STDLL@CTabSystemTradingEx@@QAEHPBD@Z$8
	DD	01H
	DD	FLAT:__unwindfunclet$?Run_STDLL@CTabSystemTradingEx@@QAEHPBD@Z$2
	DD	00H
	DD	FLAT:__unwindfunclet$?Run_STDLL@CTabSystemTradingEx@@QAEHPBD@Z$2
	DD	03H
	DD	FLAT:__unwindfunclet$?Run_STDLL@CTabSystemTradingEx@@QAEHPBD@Z$3
	DD	04H
	DD	FLAT:__unwindfunclet$?Run_STDLL@CTabSystemTradingEx@@QAEHPBD@Z$10
	DD	05H
	DD	FLAT:__unwindfunclet$?Run_STDLL@CTabSystemTradingEx@@QAEHPBD@Z$11
	DD	06H
	DD	FLAT:__unwindfunclet$?Run_STDLL@CTabSystemTradingEx@@QAEHPBD@Z$6
	DD	05H
	DD	FLAT:__unwindfunclet$?Run_STDLL@CTabSystemTradingEx@@QAEHPBD@Z$6
	DD	04H
	DD	FLAT:__unwindfunclet$?Run_STDLL@CTabSystemTradingEx@@QAEHPBD@Z$6
	DD	09H
	DD	FLAT:__unwindfunclet$?Run_STDLL@CTabSystemTradingEx@@QAEHPBD@Z$7
xdata$x	ENDS
;	COMDAT xdata$x
xdata$x	SEGMENT
__unwindtable$?ShowHideStOptimaA@CTabSystemTradingEx@@QAEXHHH@Z DD 0ffffffffH
	DD	FLAT:__unwindfunclet$?ShowHideStOptimaA@CTabSystemTradingEx@@QAEXHHH@Z$0
	DD	0ffffffffH
	DD	FLAT:__unwindfunclet$?ShowHideStOptimaA@CTabSystemTradingEx@@QAEXHHH@Z$1
__ehfuncinfo$?ShowHideStOptimaA@CTabSystemTradingEx@@QAEXHHH@Z DD 019930522H
	DD	02H
	DD	FLAT:__unwindtable$?ShowHideStOptimaA@CTabSystemTradingEx@@QAEXHHH@Z
	DD	2 DUP(00H)
	DD	2 DUP(00H)
	DD	00H
	DD	01H
xdata$x	ENDS
;	COMDAT xdata$x
xdata$x	SEGMENT
__unwindtable$?OnRmsgIndexAddinNotifyBuySell@CTabSystemTradingEx@@IAEJIJ@Z DD 0ffffffffH
	DD	FLAT:__unwindfunclet$?OnRmsgIndexAddinNotifyBuySell@CTabSystemTradingEx@@IAEJIJ@Z$0
__ehfuncinfo$?OnRmsgIndexAddinNotifyBuySell@CTabSystemTradingEx@@IAEJIJ@Z DD 019930522H
	DD	01H
	DD	FLAT:__unwindtable$?OnRmsgIndexAddinNotifyBuySell@CTabSystemTradingEx@@IAEJIJ@Z
	DD	2 DUP(00H)
	DD	2 DUP(00H)
	DD	00H
	DD	01H
xdata$x	ENDS
;	COMDAT xdata$x
xdata$x	SEGMENT
__ehfuncinfo$?OnRmsgObItemDBClk@CTabSystemTradingEx@@IAEJIJ@Z DD 019930522H
	DD	07H
	DD	FLAT:__unwindtable$?OnRmsgObItemDBClk@CTabSystemTradingEx@@IAEJIJ@Z
	DD	2 DUP(00H)
	DD	2 DUP(00H)
	DD	00H
	DD	01H
__unwindtable$?OnRmsgObItemDBClk@CTabSystemTradingEx@@IAEJIJ@Z DD 0ffffffffH
	DD	FLAT:__unwindfunclet$?OnRmsgObItemDBClk@CTabSystemTradingEx@@IAEJIJ@Z$0
	DD	00H
	DD	FLAT:__unwindfunclet$?OnRmsgObItemDBClk@CTabSystemTradingEx@@IAEJIJ@Z$5
	DD	01H
	DD	FLAT:__unwindfunclet$?OnRmsgObItemDBClk@CTabSystemTradingEx@@IAEJIJ@Z$2
	DD	02H
	DD	FLAT:__unwindfunclet$?OnRmsgObItemDBClk@CTabSystemTradingEx@@IAEJIJ@Z$3
	DD	01H
	DD	FLAT:__unwindfunclet$?OnRmsgObItemDBClk@CTabSystemTradingEx@@IAEJIJ@Z$3
	DD	00H
	DD	FLAT:__unwindfunclet$?OnRmsgObItemDBClk@CTabSystemTradingEx@@IAEJIJ@Z$3
	DD	05H
	DD	FLAT:__unwindfunclet$?OnRmsgObItemDBClk@CTabSystemTradingEx@@IAEJIJ@Z$4
xdata$x	ENDS
;	COMDAT xdata$x
xdata$x	SEGMENT
__ehfuncinfo$?OnBtnStoptimaA@CTabSystemTradingEx@@IAEXXZ DD 019930522H
	DD	0bH
	DD	FLAT:__unwindtable$?OnBtnStoptimaA@CTabSystemTradingEx@@IAEXXZ
	DD	2 DUP(00H)
	DD	2 DUP(00H)
	DD	00H
	DD	01H
__unwindtable$?OnBtnStoptimaA@CTabSystemTradingEx@@IAEXXZ DD 0ffffffffH
	DD	FLAT:__unwindfunclet$?OnBtnStoptimaA@CTabSystemTradingEx@@IAEXXZ$0
	DD	0ffffffffH
	DD	00H
	DD	00H
	DD	FLAT:__unwindfunclet$?OnBtnStoptimaA@CTabSystemTradingEx@@IAEXXZ$1
	DD	0ffffffffH
	DD	00H
	DD	0ffffffffH
	DD	00H
	DD	02H
	DD	FLAT:__unwindfunclet$?OnBtnStoptimaA@CTabSystemTradingEx@@IAEXXZ$8
	DD	0ffffffffH
	DD	00H
	DD	02H
	DD	FLAT:__unwindfunclet$?OnBtnStoptimaA@CTabSystemTradingEx@@IAEXXZ$2
	DD	07H
	DD	FLAT:__unwindfunclet$?OnBtnStoptimaA@CTabSystemTradingEx@@IAEXXZ$3
	DD	08H
	DD	FLAT:__unwindfunclet$?OnBtnStoptimaA@CTabSystemTradingEx@@IAEXXZ$4
	DD	0ffffffffH
	DD	FLAT:___std_terminate
xdata$x	ENDS
;	COMDAT xdata$x
xdata$x	SEGMENT
__ehfuncinfo$?OnInitDialog@CTabSystemTradingEx@@MAEHXZ DD 019930522H
	DD	08H
	DD	FLAT:__unwindtable$?OnInitDialog@CTabSystemTradingEx@@MAEHXZ
	DD	2 DUP(00H)
	DD	2 DUP(00H)
	DD	00H
	DD	01H
__unwindtable$?OnInitDialog@CTabSystemTradingEx@@MAEHXZ DD 0ffffffffH
	DD	FLAT:__unwindfunclet$?OnInitDialog@CTabSystemTradingEx@@MAEHXZ$1
	DD	0ffffffffH
	DD	FLAT:__unwindfunclet$?OnInitDialog@CTabSystemTradingEx@@MAEHXZ$2
	DD	01H
	DD	FLAT:__unwindfunclet$?OnInitDialog@CTabSystemTradingEx@@MAEHXZ$3
	DD	02H
	DD	FLAT:__unwindfunclet$?OnInitDialog@CTabSystemTradingEx@@MAEHXZ$6
	DD	03H
	DD	FLAT:__unwindfunclet$?OnInitDialog@CTabSystemTradingEx@@MAEHXZ$7
	DD	0ffffffffH
	DD	FLAT:__unwindfunclet$?OnInitDialog@CTabSystemTradingEx@@MAEHXZ$8
	DD	05H
	DD	FLAT:__unwindfunclet$?OnInitDialog@CTabSystemTradingEx@@MAEHXZ$10
	DD	05H
	DD	FLAT:__unwindfunclet$?OnInitDialog@CTabSystemTradingEx@@MAEHXZ$9
xdata$x	ENDS
;	COMDAT xdata$x
xdata$x	SEGMENT
__unwindtable$?MakeSTDefaultDirectory@CTabSystemTradingEx@@AAEXXZ DD 0ffffffffH
	DD	FLAT:__unwindfunclet$?MakeSTDefaultDirectory@CTabSystemTradingEx@@AAEXXZ$0
	DD	00H
	DD	FLAT:__unwindfunclet$?MakeSTDefaultDirectory@CTabSystemTradingEx@@AAEXXZ$1
	DD	01H
	DD	FLAT:__unwindfunclet$?MakeSTDefaultDirectory@CTabSystemTradingEx@@AAEXXZ$4
	DD	02H
	DD	FLAT:__unwindfunclet$?MakeSTDefaultDirectory@CTabSystemTradingEx@@AAEXXZ$5
__ehfuncinfo$?MakeSTDefaultDirectory@CTabSystemTradingEx@@AAEXXZ DD 019930522H
	DD	04H
	DD	FLAT:__unwindtable$?MakeSTDefaultDirectory@CTabSystemTradingEx@@AAEXXZ
	DD	2 DUP(00H)
	DD	2 DUP(00H)
	DD	00H
	DD	01H
xdata$x	ENDS
;	COMDAT xdata$x
xdata$x	SEGMENT
__unwindtable$?DataMonitorCallbackProc@CTabSystemTradingEx@@SGXPBDJJJJ@Z DD 0ffffffffH
	DD	FLAT:__unwindfunclet$?DataMonitorCallbackProc@CTabSystemTradingEx@@SGXPBDJJJJ@Z$0
__ehfuncinfo$?DataMonitorCallbackProc@CTabSystemTradingEx@@SGXPBDJJJJ@Z DD 019930522H
	DD	01H
	DD	FLAT:__unwindtable$?DataMonitorCallbackProc@CTabSystemTradingEx@@SGXPBDJJJJ@Z
	DD	2 DUP(00H)
	DD	2 DUP(00H)
	DD	00H
	DD	01H
xdata$x	ENDS
;	COMDAT xdata$x
xdata$x	SEGMENT
__unwindtable$?CheckRegister@CTabSystemTradingEx@@QAEHPBD0@Z DD 0ffffffffH
	DD	FLAT:__unwindfunclet$?CheckRegister@CTabSystemTradingEx@@QAEHPBD0@Z$0
__ehfuncinfo$?CheckRegister@CTabSystemTradingEx@@QAEHPBD0@Z DD 019930522H
	DD	01H
	DD	FLAT:__unwindtable$?CheckRegister@CTabSystemTradingEx@@QAEHPBD0@Z
	DD	2 DUP(00H)
	DD	2 DUP(00H)
	DD	00H
	DD	01H
xdata$x	ENDS
;	COMDAT xdata$x
xdata$x	SEGMENT
__unwindtable$?CheckOcx@CTabSystemTradingEx@@QAEHXZ DD 0ffffffffH
	DD	FLAT:__unwindfunclet$?CheckOcx@CTabSystemTradingEx@@QAEHXZ$0
__ehfuncinfo$?CheckOcx@CTabSystemTradingEx@@QAEHXZ DD 019930522H
	DD	01H
	DD	FLAT:__unwindtable$?CheckOcx@CTabSystemTradingEx@@QAEHXZ
	DD	2 DUP(00H)
	DD	2 DUP(00H)
	DD	00H
	DD	01H
xdata$x	ENDS
;	COMDAT xdata$x
xdata$x	SEGMENT
__unwindtable$?IsSTRun@CTabSystemTradingEx@@QAEHPBD0H@Z DD 0ffffffffH
	DD	FLAT:__unwindfunclet$?IsSTRun@CTabSystemTradingEx@@QAEHPBD0H@Z$0
__ehfuncinfo$?IsSTRun@CTabSystemTradingEx@@QAEHPBD0H@Z DD 019930522H
	DD	01H
	DD	FLAT:__unwindtable$?IsSTRun@CTabSystemTradingEx@@QAEHPBD0H@Z
	DD	2 DUP(00H)
	DD	2 DUP(00H)
	DD	00H
	DD	01H
xdata$x	ENDS
;	COMDAT xdata$x
xdata$x	SEGMENT
__unwindtable$?RunWizard@CTabSystemTradingEx@@QAEXH@Z DD 0ffffffffH
	DD	FLAT:__unwindfunclet$?RunWizard@CTabSystemTradingEx@@QAEXH@Z$0
	DD	00H
	DD	FLAT:__unwindfunclet$?RunWizard@CTabSystemTradingEx@@QAEXH@Z$1
	DD	01H
	DD	FLAT:__unwindfunclet$?RunWizard@CTabSystemTradingEx@@QAEXH@Z$2
__ehfuncinfo$?RunWizard@CTabSystemTradingEx@@QAEXH@Z DD 019930522H
	DD	03H
	DD	FLAT:__unwindtable$?RunWizard@CTabSystemTradingEx@@QAEXH@Z
	DD	2 DUP(00H)
	DD	2 DUP(00H)
	DD	00H
	DD	01H
xdata$x	ENDS
;	COMDAT xdata$x
xdata$x	SEGMENT
__unwindtable$?AddSTFile@CTabSystemTradingEx@@QAEXAAVCListBox@@V?$CStringT@DV?$StrTraitMFC_DLL@DV?$ChTraitsCRT@D@ATL@@@@@ATL@@@Z DD 0ffffffffH
	DD	FLAT:__unwindfunclet$?AddSTFile@CTabSystemTradingEx@@QAEXAAVCListBox@@V?$CStringT@DV?$StrTraitMFC_DLL@DV?$ChTraitsCRT@D@ATL@@@@@ATL@@@Z$0
	DD	00H
	DD	FLAT:__unwindfunclet$?AddSTFile@CTabSystemTradingEx@@QAEXAAVCListBox@@V?$CStringT@DV?$StrTraitMFC_DLL@DV?$ChTraitsCRT@D@ATL@@@@@ATL@@@Z$1
__ehfuncinfo$?AddSTFile@CTabSystemTradingEx@@QAEXAAVCListBox@@V?$CStringT@DV?$StrTraitMFC_DLL@DV?$ChTraitsCRT@D@ATL@@@@@ATL@@@Z DD 019930522H
	DD	02H
	DD	FLAT:__unwindtable$?AddSTFile@CTabSystemTradingEx@@QAEXAAVCListBox@@V?$CStringT@DV?$StrTraitMFC_DLL@DV?$ChTraitsCRT@D@ATL@@@@@ATL@@@Z
	DD	2 DUP(00H)
	DD	2 DUP(00H)
	DD	00H
	DD	01H
xdata$x	ENDS
;	COMDAT xdata$x
xdata$x	SEGMENT
__ehfuncinfo$?LoadSTList@CTabSystemTradingEx@@QAEXXZ DD 019930522H
	DD	07H
	DD	FLAT:__unwindtable$?LoadSTList@CTabSystemTradingEx@@QAEXXZ
	DD	2 DUP(00H)
	DD	2 DUP(00H)
	DD	00H
	DD	01H
__unwindtable$?LoadSTList@CTabSystemTradingEx@@QAEXXZ DD 0ffffffffH
	DD	FLAT:__unwindfunclet$?LoadSTList@CTabSystemTradingEx@@QAEXXZ$6
	DD	00H
	DD	FLAT:__unwindfunclet$?LoadSTList@CTabSystemTradingEx@@QAEXXZ$1
	DD	0ffffffffH
	DD	FLAT:__unwindfunclet$?LoadSTList@CTabSystemTradingEx@@QAEXXZ$1
	DD	02H
	DD	FLAT:__unwindfunclet$?LoadSTList@CTabSystemTradingEx@@QAEXXZ$8
	DD	03H
	DD	FLAT:__unwindfunclet$?LoadSTList@CTabSystemTradingEx@@QAEXXZ$3
	DD	02H
	DD	FLAT:__unwindfunclet$?LoadSTList@CTabSystemTradingEx@@QAEXXZ$3
	DD	05H
	DD	FLAT:__unwindfunclet$?LoadSTList@CTabSystemTradingEx@@QAEXXZ$4
xdata$x	ENDS
;	COMDAT xdata$x
xdata$x	SEGMENT
__unwindtable$?LoadOutlookBar@CTabSystemTradingEx@@QAEXXZ DD 0ffffffffH
	DD	FLAT:__unwindfunclet$?LoadOutlookBar@CTabSystemTradingEx@@QAEXXZ$0
	DD	00H
	DD	FLAT:__unwindfunclet$?LoadOutlookBar@CTabSystemTradingEx@@QAEXXZ$1
	DD	01H
	DD	FLAT:__unwindfunclet$?LoadOutlookBar@CTabSystemTradingEx@@QAEXXZ$2
__ehfuncinfo$?LoadOutlookBar@CTabSystemTradingEx@@QAEXXZ DD 019930522H
	DD	03H
	DD	FLAT:__unwindtable$?LoadOutlookBar@CTabSystemTradingEx@@QAEXXZ
	DD	2 DUP(00H)
	DD	2 DUP(00H)
	DD	00H
	DD	01H
xdata$x	ENDS
;	COMDAT xdata$x
xdata$x	SEGMENT
__unwindtable$?LoadTradeAup@CTabSystemTradingEx@@QAEPAVCWnd@@V?$CStringT@DV?$StrTraitMFC_DLL@DV?$ChTraitsCRT@D@ATL@@@@@ATL@@PAV2@@Z DD 0ffffffffH
	DD	FLAT:__unwindfunclet$?LoadTradeAup@CTabSystemTradingEx@@QAEPAVCWnd@@V?$CStringT@DV?$StrTraitMFC_DLL@DV?$ChTraitsCRT@D@ATL@@@@@ATL@@PAV2@@Z$0
	DD	00H
	DD	FLAT:__unwindfunclet$?LoadTradeAup@CTabSystemTradingEx@@QAEPAVCWnd@@V?$CStringT@DV?$StrTraitMFC_DLL@DV?$ChTraitsCRT@D@ATL@@@@@ATL@@PAV2@@Z$1
	DD	01H
	DD	FLAT:__unwindfunclet$?LoadTradeAup@CTabSystemTradingEx@@QAEPAVCWnd@@V?$CStringT@DV?$StrTraitMFC_DLL@DV?$ChTraitsCRT@D@ATL@@@@@ATL@@PAV2@@Z$2
__ehfuncinfo$?LoadTradeAup@CTabSystemTradingEx@@QAEPAVCWnd@@V?$CStringT@DV?$StrTraitMFC_DLL@DV?$ChTraitsCRT@D@ATL@@@@@ATL@@PAV2@@Z DD 019930522H
	DD	03H
	DD	FLAT:__unwindtable$?LoadTradeAup@CTabSystemTradingEx@@QAEPAVCWnd@@V?$CStringT@DV?$StrTraitMFC_DLL@DV?$ChTraitsCRT@D@ATL@@@@@ATL@@PAV2@@Z
	DD	2 DUP(00H)
	DD	2 DUP(00H)
	DD	00H
	DD	01H
xdata$x	ENDS
;	COMDAT xdata$x
xdata$x	SEGMENT
__unwindtable$?OpenAUP@CTabSystemTradingEx@@QAEHXZ DD 0ffffffffH
	DD	FLAT:__unwindfunclet$?OpenAUP@CTabSystemTradingEx@@QAEHXZ$0
	DD	00H
	DD	FLAT:__unwindfunclet$?OpenAUP@CTabSystemTradingEx@@QAEHXZ$2
	DD	01H
	DD	FLAT:__unwindfunclet$?OpenAUP@CTabSystemTradingEx@@QAEHXZ$3
	DD	02H
	DD	FLAT:__unwindfunclet$?OpenAUP@CTabSystemTradingEx@@QAEHXZ$4
__ehfuncinfo$?OpenAUP@CTabSystemTradingEx@@QAEHXZ DD 019930522H
	DD	04H
	DD	FLAT:__unwindtable$?OpenAUP@CTabSystemTradingEx@@QAEHXZ
	DD	2 DUP(00H)
	DD	2 DUP(00H)
	DD	00H
	DD	01H
xdata$x	ENDS
;	COMDAT xdata$x
xdata$x	SEGMENT
__unwindtable$?LoadInfo@CTabSystemTradingEx@@QAEXXZ DD 0ffffffffH
	DD	FLAT:__unwindfunclet$?LoadInfo@CTabSystemTradingEx@@QAEXXZ$0
	DD	00H
	DD	FLAT:__unwindfunclet$?LoadInfo@CTabSystemTradingEx@@QAEXXZ$2
	DD	00H
	DD	FLAT:__unwindfunclet$?LoadInfo@CTabSystemTradingEx@@QAEXXZ$1
__ehfuncinfo$?LoadInfo@CTabSystemTradingEx@@QAEXXZ DD 019930522H
	DD	03H
	DD	FLAT:__unwindtable$?LoadInfo@CTabSystemTradingEx@@QAEXXZ
	DD	2 DUP(00H)
	DD	2 DUP(00H)
	DD	00H
	DD	01H
xdata$x	ENDS
;	COMDAT xdata$x
xdata$x	SEGMENT
__unwindtable$??1CTabSystemTradingEx@@UAE@XZ DD 0ffffffffH
	DD	FLAT:___std_terminate
__ehfuncinfo$??1CTabSystemTradingEx@@UAE@XZ DD 019930522H
	DD	01H
	DD	FLAT:__unwindtable$??1CTabSystemTradingEx@@UAE@XZ
	DD	2 DUP(00H)
	DD	2 DUP(00H)
	DD	00H
	DD	05H
xdata$x	ENDS
;	COMDAT xdata$x
xdata$x	SEGMENT
__ehfuncinfo$??0CTabSystemTradingEx@@QAE@PAVCWnd@@@Z DD 019930522H
	DD	012H
	DD	FLAT:__unwindtable$??0CTabSystemTradingEx@@QAE@PAVCWnd@@@Z
	DD	2 DUP(00H)
	DD	2 DUP(00H)
	DD	00H
	DD	01H
__unwindtable$??0CTabSystemTradingEx@@QAE@PAVCWnd@@@Z DD 0ffffffffH
	DD	FLAT:__unwindfunclet$??0CTabSystemTradingEx@@QAE@PAVCWnd@@@Z$0
	DD	00H
	DD	FLAT:__unwindfunclet$??0CTabSystemTradingEx@@QAE@PAVCWnd@@@Z$1
	DD	01H
	DD	FLAT:__unwindfunclet$??0CTabSystemTradingEx@@QAE@PAVCWnd@@@Z$2
	DD	02H
	DD	FLAT:__unwindfunclet$??0CTabSystemTradingEx@@QAE@PAVCWnd@@@Z$3
	DD	03H
	DD	FLAT:__unwindfunclet$??0CTabSystemTradingEx@@QAE@PAVCWnd@@@Z$4
	DD	04H
	DD	FLAT:__unwindfunclet$??0CTabSystemTradingEx@@QAE@PAVCWnd@@@Z$5
	DD	05H
	DD	FLAT:__unwindfunclet$??0CTabSystemTradingEx@@QAE@PAVCWnd@@@Z$6
	DD	06H
	DD	FLAT:__unwindfunclet$??0CTabSystemTradingEx@@QAE@PAVCWnd@@@Z$7
	DD	07H
	DD	FLAT:__unwindfunclet$??0CTabSystemTradingEx@@QAE@PAVCWnd@@@Z$8
	DD	08H
	DD	FLAT:__unwindfunclet$??0CTabSystemTradingEx@@QAE@PAVCWnd@@@Z$9
	DD	09H
	DD	FLAT:__unwindfunclet$??0CTabSystemTradingEx@@QAE@PAVCWnd@@@Z$10
	DD	0aH
	DD	FLAT:__unwindfunclet$??0CTabSystemTradingEx@@QAE@PAVCWnd@@@Z$11
	DD	0bH
	DD	FLAT:__unwindfunclet$??0CTabSystemTradingEx@@QAE@PAVCWnd@@@Z$12
	DD	0cH
	DD	FLAT:__unwindfunclet$??0CTabSystemTradingEx@@QAE@PAVCWnd@@@Z$13
	DD	0dH
	DD	FLAT:__unwindfunclet$??0CTabSystemTradingEx@@QAE@PAVCWnd@@@Z$14
	DD	0eH
	DD	FLAT:__unwindfunclet$??0CTabSystemTradingEx@@QAE@PAVCWnd@@@Z$15
	DD	0fH
	DD	FLAT:__unwindfunclet$??0CTabSystemTradingEx@@QAE@PAVCWnd@@@Z$16
	DD	010H
	DD	FLAT:__unwindfunclet$??0CTabSystemTradingEx@@QAE@PAVCWnd@@@Z$17
xdata$x	ENDS
;	COMDAT xdata$x
xdata$x	SEGMENT
__unwindtable$?AfxGetPctrInterface@@YGJH@Z DD 0ffffffffH
	DD	FLAT:__unwindfunclet$?AfxGetPctrInterface@@YGJH@Z$0
__ehfuncinfo$?AfxGetPctrInterface@@YGJH@Z DD 019930522H
	DD	01H
	DD	FLAT:__unwindtable$?AfxGetPctrInterface@@YGJH@Z
	DD	2 DUP(00H)
	DD	2 DUP(00H)
	DD	00H
	DD	01H
xdata$x	ENDS
;	COMDAT xdata$x
xdata$x	SEGMENT
__unwindtable$?AfxGetPctrMainHandle@@YGPAUHWND__@@XZ DD 0ffffffffH
	DD	FLAT:__unwindfunclet$?AfxGetPctrMainHandle@@YGPAUHWND__@@XZ$0
__ehfuncinfo$?AfxGetPctrMainHandle@@YGPAUHWND__@@XZ DD 019930522H
	DD	01H
	DD	FLAT:__unwindtable$?AfxGetPctrMainHandle@@YGPAUHWND__@@XZ
	DD	2 DUP(00H)
	DD	2 DUP(00H)
	DD	00H
	DD	01H
xdata$x	ENDS
;	COMDAT xdata$x
xdata$x	SEGMENT
__unwindtable$??_GCMenu@@UAEPAXI@Z DD 0ffffffffH
	DD	FLAT:___std_terminate
__ehfuncinfo$??_GCMenu@@UAEPAXI@Z DD 019930522H
	DD	01H
	DD	FLAT:__unwindtable$??_GCMenu@@UAEPAXI@Z
	DD	2 DUP(00H)
	DD	2 DUP(00H)
	DD	00H
	DD	05H
xdata$x	ENDS
;	COMDAT xdata$x
xdata$x	SEGMENT
__ehfuncinfo$??1CMenu@@UAE@XZ DD 019930522H
	DD	00H
	DD	00H
	DD	2 DUP(00H)
	DD	2 DUP(00H)
	DD	00H
	DD	05H
xdata$x	ENDS
;	COMDAT xdata$x
xdata$x	SEGMENT
__catchsym$??1CGdiObject@@UAE@XZ$3 DD 00H
	DD	FLAT:??_R0PAVCException@@@8
	DD	0fffffde4H
	DD	FLAT:__catch$??1CGdiObject@@UAE@XZ$0
__tryblocktable$??1CGdiObject@@UAE@XZ DD 00H
	DD	00H
	DD	02H
	DD	01H
	DD	FLAT:__catchsym$??1CGdiObject@@UAE@XZ$3
__unwindtable$??1CGdiObject@@UAE@XZ DD 0ffffffffH
	DD	00H
	DD	0ffffffffH
	DD	00H
	DD	01H
	DD	FLAT:__unwindfunclet$??1CGdiObject@@UAE@XZ$2
__ehfuncinfo$??1CGdiObject@@UAE@XZ DD 019930522H
	DD	03H
	DD	FLAT:__unwindtable$??1CGdiObject@@UAE@XZ
	DD	01H
	DD	FLAT:__tryblocktable$??1CGdiObject@@UAE@XZ
	DD	2 DUP(00H)
	DD	00H
	DD	05H
xdata$x	ENDS
;	COMDAT xdata$x
xdata$x	SEGMENT
__unwindtable$??HATL@@YA?AV?$CStringT@DV?$StrTraitMFC_DLL@DV?$ChTraitsCRT@D@ATL@@@@@0@ABV10@PBD@Z DD 0ffffffffH
	DD	FLAT:__unwindfunclet$??HATL@@YA?AV?$CStringT@DV?$StrTraitMFC_DLL@DV?$ChTraitsCRT@D@ATL@@@@@0@ABV10@PBD@Z$0
__ehfuncinfo$??HATL@@YA?AV?$CStringT@DV?$StrTraitMFC_DLL@DV?$ChTraitsCRT@D@ATL@@@@@0@ABV10@PBD@Z DD 019930522H
	DD	01H
	DD	FLAT:__unwindtable$??HATL@@YA?AV?$CStringT@DV?$StrTraitMFC_DLL@DV?$ChTraitsCRT@D@ATL@@@@@0@ABV10@PBD@Z
	DD	2 DUP(00H)
	DD	2 DUP(00H)
	DD	00H
	DD	01H
xdata$x	ENDS
;	COMDAT xdata$x
xdata$x	SEGMENT
__unwindtable$??HATL@@YA?AV?$CStringT@DV?$StrTraitMFC_DLL@DV?$ChTraitsCRT@D@ATL@@@@@0@ABV10@0@Z DD 0ffffffffH
	DD	FLAT:__unwindfunclet$??HATL@@YA?AV?$CStringT@DV?$StrTraitMFC_DLL@DV?$ChTraitsCRT@D@ATL@@@@@0@ABV10@0@Z$0
__ehfuncinfo$??HATL@@YA?AV?$CStringT@DV?$StrTraitMFC_DLL@DV?$ChTraitsCRT@D@ATL@@@@@0@ABV10@0@Z DD 019930522H
	DD	01H
	DD	FLAT:__unwindtable$??HATL@@YA?AV?$CStringT@DV?$StrTraitMFC_DLL@DV?$ChTraitsCRT@D@ATL@@@@@0@ABV10@0@Z
	DD	2 DUP(00H)
	DD	2 DUP(00H)
	DD	00H
	DD	01H
xdata$x	ENDS
CRT$XCU	SEGMENT
?RMSG_INTERFACE$initializer$@@3P6AXXZA DD FLAT:??__ERMSG_INTERFACE@@YAXXZ ; RMSG_INTERFACE$initializer$
CRT$XCU	ENDS
CRT$XCU	SEGMENT
?RMSG_GETSIGNAL_REAL$initializer$@@3P6AXXZA DD FLAT:??__ERMSG_GETSIGNAL_REAL@@YAXXZ ; RMSG_GETSIGNAL_REAL$initializer$
CRT$XCU	ENDS
CRT$XCU	SEGMENT
?RMSG_SETQUERYOPT$initializer$@@3P6AXXZA DD FLAT:??__ERMSG_SETQUERYOPT@@YAXXZ ; RMSG_SETQUERYOPT$initializer$
CRT$XCU	ENDS
CRT$XCU	SEGMENT
?RMSG_CHARTMAIN$initializer$@@3P6AXXZA DD FLAT:??__ERMSG_CHARTMAIN@@YAXXZ ; RMSG_CHARTMAIN$initializer$
CRT$XCU	ENDS
CRT$XCU	SEGMENT
?RMS_ANALYSIS_FUNC$initializer$@@3P6AXXZA DD FLAT:??__ERMS_ANALYSIS_FUNC@@YAXXZ ; RMS_ANALYSIS_FUNC$initializer$
CRT$XCU	ENDS
CRT$XCU	SEGMENT
?RMSG_GET_USERID$initializer$@@3P6AXXZA DD FLAT:??__ERMSG_GET_USERID@@YAXXZ ; RMSG_GET_USERID$initializer$
CRT$XCU	ENDS
CRT$XCU	SEGMENT
?RMSG_CHANGE_SKINCOLOR$initializer$@@3P6AXXZA DD FLAT:??__ERMSG_CHANGE_SKINCOLOR@@YAXXZ ; RMSG_CHANGE_SKINCOLOR$initializer$
CRT$XCU	ENDS
CRT$XCU	SEGMENT
?RMSG_GET_SKINCOLOR$initializer$@@3P6AXXZA DD FLAT:??__ERMSG_GET_SKINCOLOR@@YAXXZ ; RMSG_GET_SKINCOLOR$initializer$
CRT$XCU	ENDS
CRT$XCU	SEGMENT
?RMSG_CHANGEVERTSCALETYPE$initializer$@@3P6AXXZA DD FLAT:??__ERMSG_CHANGEVERTSCALETYPE@@YAXXZ ; RMSG_CHANGEVERTSCALETYPE$initializer$
CRT$XCU	ENDS
CRT$XCU	SEGMENT
?RMSG_CHANGE_CROSSLINE$initializer$@@3P6AXXZA DD FLAT:??__ERMSG_CHANGE_CROSSLINE@@YAXXZ ; RMSG_CHANGE_CROSSLINE$initializer$
CRT$XCU	ENDS
CRT$XCU	SEGMENT
?RMSG_ADD_PLATFORM_MENU$initializer$@@3P6AXXZA DD FLAT:??__ERMSG_ADD_PLATFORM_MENU@@YAXXZ ; RMSG_ADD_PLATFORM_MENU$initializer$
CRT$XCU	ENDS
CRT$XCU	SEGMENT
?RMSG_SETINITIALCHARTDATA$initializer$@@3P6AXXZA DD FLAT:??__ERMSG_SETINITIALCHARTDATA@@YAXXZ ; RMSG_SETINITIALCHARTDATA$initializer$
CRT$XCU	ENDS
CRT$XCU	SEGMENT
?RMSG_GETINFO$initializer$@@3P6AXXZA DD FLAT:??__ERMSG_GETINFO@@YAXXZ ; RMSG_GETINFO$initializer$
CRT$XCU	ENDS
CRT$XCU	SEGMENT
?RMSG_SETINFO$initializer$@@3P6AXXZA DD FLAT:??__ERMSG_SETINFO@@YAXXZ ; RMSG_SETINFO$initializer$
CRT$XCU	ENDS
CRT$XCU	SEGMENT
?RMSG_STTREE_ITEMCLICK$initializer$@@3P6AXXZA DD FLAT:??__ERMSG_STTREE_ITEMCLICK@@YAXXZ ; RMSG_STTREE_ITEMCLICK$initializer$
CRT$XCU	ENDS
CRT$XCU	SEGMENT
?RMSG_STTREE_ITEMDBLCLK$initializer$@@3P6AXXZA DD FLAT:??__ERMSG_STTREE_ITEMDBLCLK@@YAXXZ ; RMSG_STTREE_ITEMDBLCLK$initializer$
CRT$XCU	ENDS
CRT$XCU	SEGMENT
?RMSG_REPLAY_REAL$initializer$@@3P6AXXZA DD FLAT:??__ERMSG_REPLAY_REAL@@YAXXZ ; RMSG_REPLAY_REAL$initializer$
CRT$XCU	ENDS
CRT$XCU	SEGMENT
?RMSG_REPLAY_FAIL$initializer$@@3P6AXXZA DD FLAT:??__ERMSG_REPLAY_FAIL@@YAXXZ ; RMSG_REPLAY_FAIL$initializer$
CRT$XCU	ENDS
CRT$XCU	SEGMENT
?RMSG_REPLAY_CHANGE_DATE$initializer$@@3P6AXXZA DD FLAT:??__ERMSG_REPLAY_CHANGE_DATE@@YAXXZ ; RMSG_REPLAY_CHANGE_DATE$initializer$
CRT$XCU	ENDS
CRT$XCU	SEGMENT
?RMSG_REPLAY_END$initializer$@@3P6AXXZA DD FLAT:??__ERMSG_REPLAY_END@@YAXXZ ; RMSG_REPLAY_END$initializer$
CRT$XCU	ENDS
CRT$XCU	SEGMENT
?RMSG_REPLAY_INC_SEC$initializer$@@3P6AXXZA DD FLAT:??__ERMSG_REPLAY_INC_SEC@@YAXXZ ; RMSG_REPLAY_INC_SEC$initializer$
CRT$XCU	ENDS
CRT$XCU	SEGMENT
?RMSG_REPLAY_TOTAL_SEC$initializer$@@3P6AXXZA DD FLAT:??__ERMSG_REPLAY_TOTAL_SEC@@YAXXZ ; RMSG_REPLAY_TOTAL_SEC$initializer$
CRT$XCU	ENDS
CRT$XCU	SEGMENT
?RMSG_OB_ITEMCLICK$initializer$@@3P6AXXZA DD FLAT:??__ERMSG_OB_ITEMCLICK@@YAXXZ ; RMSG_OB_ITEMCLICK$initializer$
CRT$XCU	ENDS
CRT$XCU	SEGMENT
?RMSG_OB_ITEMDBLCLK$initializer$@@3P6AXXZA DD FLAT:??__ERMSG_OB_ITEMDBLCLK@@YAXXZ ; RMSG_OB_ITEMDBLCLK$initializer$
CRT$XCU	ENDS
CRT$XCU	SEGMENT
?RMSG_RUN_MULTIST$initializer$@@3P6AXXZA DD FLAT:??__ERMSG_RUN_MULTIST@@YAXXZ ; RMSG_RUN_MULTIST$initializer$
CRT$XCU	ENDS
CRT$XCU	SEGMENT
?RMSG_INDEXADDIN_NOTIFY_RAWDATA$initializer$@@3P6AXXZA DD FLAT:??__ERMSG_INDEXADDIN_NOTIFY_RAWDATA@@YAXXZ ; RMSG_INDEXADDIN_NOTIFY_RAWDATA$initializer$
CRT$XCU	ENDS
CRT$XCU	SEGMENT
?RMSG_INDEXADDIN_NOTIFY_BUYSELL$initializer$@@3P6AXXZA DD FLAT:??__ERMSG_INDEXADDIN_NOTIFY_BUYSELL@@YAXXZ ; RMSG_INDEXADDIN_NOTIFY_BUYSELL$initializer$
CRT$XCU	ENDS
CRT$XCU	SEGMENT
?RMSG_INDEXADDIN_NOTIFY_SIGNAL$initializer$@@3P6AXXZA DD FLAT:??__ERMSG_INDEXADDIN_NOTIFY_SIGNAL@@YAXXZ ; RMSG_INDEXADDIN_NOTIFY_SIGNAL$initializer$
CRT$XCU	ENDS
CRT$XCU	SEGMENT
?RMSG_DESTROY_CONFIRMWND$initializer$@@3P6AXXZA DD FLAT:??__ERMSG_DESTROY_CONFIRMWND@@YAXXZ ; RMSG_DESTROY_CONFIRMWND$initializer$
CRT$XCU	ENDS
CRT$XCU	SEGMENT
?RMSG_GET_SCREENVIEWHANDLE$initializer$@@3P6AXXZA DD FLAT:??__ERMSG_GET_SCREENVIEWHANDLE@@YAXXZ ; RMSG_GET_SCREENVIEWHANDLE$initializer$
CRT$XCU	ENDS
CRT$XCU	SEGMENT
?RMSG_REQUEST_HOGADATA$initializer$@@3P6AXXZA DD FLAT:??__ERMSG_REQUEST_HOGADATA@@YAXXZ ; RMSG_REQUEST_HOGADATA$initializer$
CRT$XCU	ENDS
CRT$XCU	SEGMENT
?RMSG_ISSTRUNSTATE$initializer$@@3P6AXXZA DD FLAT:??__ERMSG_ISSTRUNSTATE@@YAXXZ ; RMSG_ISSTRUNSTATE$initializer$
CRT$XCU	ENDS
; Function compile flags: /Ogtp
; File C:\Program Files (x86)\Microsoft Visual Studio\2019\Community\VC\Tools\MSVC\14.29.30133\atlmfc\include\afxtempl.h
; File C:\Program Files (x86)\Microsoft Visual Studio\2019\Community\VC\Tools\MSVC\14.29.30133\atlmfc\include\afx.inl
; File C:\Program Files (x86)\Microsoft Visual Studio\2019\Community\VC\Tools\MSVC\14.29.30133\atlmfc\include\afxtempl.h
; File C:\Program Files (x86)\Microsoft Visual Studio\2019\Community\VC\Tools\MSVC\14.29.30133\atlmfc\include\afx.inl
; File C:\Program Files (x86)\Microsoft Visual Studio\2019\Community\VC\Tools\MSVC\14.29.30133\atlmfc\include\afxtempl.h
; File C:\Program Files (x86)\Microsoft Visual Studio\2019\Community\VC\Tools\MSVC\14.29.30133\atlmfc\include\afx.inl
; File C:\Program Files (x86)\Microsoft Visual Studio\2019\Community\VC\Tools\MSVC\14.29.30133\atlmfc\include\afxtempl.h
;	COMDAT ??$SerializeElements@J@@YGXAAVCArchive@@PAJH@Z
_TEXT	SEGMENT
_ar$ = 8						; size = 4
_pElements$ = 12					; size = 4
_nCount$ = 16						; size = 4
??$SerializeElements@J@@YGXAAVCArchive@@PAJH@Z PROC	; SerializeElements<long>, COMDAT

; 67   : {

  00000	55		 push	 ebp
  00001	8b ec		 mov	 ebp, esp

; 68   : 	ENSURE(nCount == 0 || pElements != NULL);

  00003	8b 4d 0c	 mov	 ecx, DWORD PTR _pElements$[ebp]
  00006	53		 push	 ebx
  00007	56		 push	 esi
  00008	8b 75 10	 mov	 esi, DWORD PTR _nCount$[ebp]
  0000b	57		 push	 edi
  0000c	85 f6		 test	 esi, esi
  0000e	74 08		 je	 SHORT $LN2@SerializeE
  00010	85 c9		 test	 ecx, ecx
  00012	0f 84 89 00 00
	00		 je	 $LN34@SerializeE
$LN2@SerializeE:
; File C:\Program Files (x86)\Microsoft Visual Studio\2019\Community\VC\Tools\MSVC\14.29.30133\atlmfc\include\afx.inl

; 212  : 	{ return (m_nMode & CArchive::load) == 0; }

  00018	8b 55 08	 mov	 edx, DWORD PTR _ar$[ebp]
  0001b	8b 42 18	 mov	 eax, DWORD PTR [edx+24]
  0001e	f7 d0		 not	 eax
  00020	a8 01		 test	 al, 1
; File C:\Program Files (x86)\Microsoft Visual Studio\2019\Community\VC\Tools\MSVC\14.29.30133\atlmfc\include\afxtempl.h

; 73   : 	if (ar.IsStoring())

  00022	74 3c		 je	 SHORT $LN10@SerializeE

; 74   : 	{
; 75   : 		TYPE* pData;
; 76   : 		UINT_PTR nElementsLeft;
; 77   : 
; 78   : 		nElementsLeft = nCount;
; 79   : 		pData = pElements;
; 80   : 		while( nElementsLeft > 0 )

  00024	85 f6		 test	 esi, esi
  00026	74 31		 je	 SHORT $LN8@SerializeE
  00028	0f 1f 84 00 00
	00 00 00	 npad	 8
$LL5@SerializeE:

; 81   : 		{
; 82   : 			UINT nElementsToWrite;
; 83   : 
; 84   : 			nElementsToWrite = UINT(__min(nElementsLeft, INT_MAX/sizeof(TYPE)));

  00030	bb ff ff ff 1f	 mov	 ebx, 536870911		; 1fffffffH
  00035	3b f3		 cmp	 esi, ebx
  00037	0f 42 de	 cmovb	 ebx, esi

; 85   : 			ar.Write(pData, nElementsToWrite*sizeof(TYPE));

  0003a	8d 3c 9d 00 00
	00 00		 lea	 edi, DWORD PTR [ebx*4]
  00041	57		 push	 edi
  00042	51		 push	 ecx
  00043	8b ca		 mov	 ecx, edx
  00045	e8 00 00 00 00	 call	 ?Write@CArchive@@QAEXPBXI@Z ; CArchive::Write

; 86   : 			nElementsLeft -= nElementsToWrite;
; 87   : 			pData += nElementsToWrite;

  0004a	8b 4d 0c	 mov	 ecx, DWORD PTR _pElements$[ebp]
  0004d	8b 55 08	 mov	 edx, DWORD PTR _ar$[ebp]
  00050	03 cf		 add	 ecx, edi
  00052	89 4d 0c	 mov	 DWORD PTR _pElements$[ebp], ecx
  00055	2b f3		 sub	 esi, ebx
  00057	75 d7		 jne	 SHORT $LL5@SerializeE
$LN8@SerializeE:
  00059	5f		 pop	 edi

; 105  : 		}
; 106  : 	}
; 107  : }

  0005a	5e		 pop	 esi
  0005b	5b		 pop	 ebx
  0005c	5d		 pop	 ebp
  0005d	c2 0c 00	 ret	 12			; 0000000cH
$LN10@SerializeE:

; 97   : 		while( nElementsLeft > 0 )

  00060	85 f6		 test	 esi, esi
  00062	74 f5		 je	 SHORT $LN8@SerializeE
$LL7@SerializeE:

; 98   : 		{
; 99   : 			UINT nElementsToRead;
; 100  : 
; 101  : 			nElementsToRead = UINT(__min(nElementsLeft, INT_MAX/sizeof(TYPE)));

  00064	bf ff ff ff 1f	 mov	 edi, 536870911		; 1fffffffH
  00069	3b f7		 cmp	 esi, edi
  0006b	0f 42 fe	 cmovb	 edi, esi

; 102  : 			ar.EnsureRead(pData, nElementsToRead*sizeof(TYPE));

  0006e	8d 1c bd 00 00
	00 00		 lea	 ebx, DWORD PTR [edi*4]
; File C:\Program Files (x86)\Microsoft Visual Studio\2019\Community\VC\Tools\MSVC\14.29.30133\atlmfc\include\afx.inl

; 399  : 	UINT nRead=Read(lpBuf, nCount);

  00075	53		 push	 ebx
  00076	51		 push	 ecx
  00077	8b ca		 mov	 ecx, edx
  00079	e8 00 00 00 00	 call	 ?Read@CArchive@@QAEIPAXI@Z ; CArchive::Read

; 400  : 	if(nRead!=nCount)

  0007e	3b c3		 cmp	 eax, ebx
  00080	75 16		 jne	 SHORT $LN23@SerializeE
; File C:\Program Files (x86)\Microsoft Visual Studio\2019\Community\VC\Tools\MSVC\14.29.30133\atlmfc\include\afxtempl.h

; 97   : 		while( nElementsLeft > 0 )

  00082	8b 4d 0c	 mov	 ecx, DWORD PTR _pElements$[ebp]
  00085	8b 55 08	 mov	 edx, DWORD PTR _ar$[ebp]

; 103  : 			nElementsLeft -= nElementsToRead;
; 104  : 			pData += nElementsToRead;

  00088	03 cb		 add	 ecx, ebx
  0008a	89 4d 0c	 mov	 DWORD PTR _pElements$[ebp], ecx
  0008d	2b f7		 sub	 esi, edi
  0008f	75 d3		 jne	 SHORT $LL7@SerializeE

; 105  : 		}
; 106  : 	}
; 107  : }

  00091	5f		 pop	 edi
  00092	5e		 pop	 esi
  00093	5b		 pop	 ebx
  00094	5d		 pop	 ebp
  00095	c2 0c 00	 ret	 12			; 0000000cH
$LN23@SerializeE:
; File C:\Program Files (x86)\Microsoft Visual Studio\2019\Community\VC\Tools\MSVC\14.29.30133\atlmfc\include\afx.inl

; 402  : 		AfxThrowArchiveException(CArchiveException::endOfFile);

  00098	6a 00		 push	 0
  0009a	6a 03		 push	 3
  0009c	e8 00 00 00 00	 call	 ?AfxThrowArchiveException@@YGXHPBD@Z ; AfxThrowArchiveException
$LN34@SerializeE:
; File C:\Program Files (x86)\Microsoft Visual Studio\2019\Community\VC\Tools\MSVC\14.29.30133\atlmfc\include\afxtempl.h

; 68   : 	ENSURE(nCount == 0 || pElements != NULL);

  000a1	e8 00 00 00 00	 call	 ?AfxThrowInvalidArgException@@YGXXZ ; AfxThrowInvalidArgException
$LN32@SerializeE:
  000a6	cc		 int	 3
??$SerializeElements@J@@YGXAAVCArchive@@PAJH@Z ENDP	; SerializeElements<long>
_TEXT	ENDS
; Function compile flags: /Ogtp
; File C:\Program Files (x86)\Microsoft Visual Studio\2019\Community\VC\Tools\MSVC\14.29.30133\atlmfc\include\afxtempl.h
; File C:\Program Files (x86)\Microsoft Visual Studio\2019\Community\VC\Tools\MSVC\14.29.30133\atlmfc\include\afx.inl
; File C:\Program Files (x86)\Microsoft Visual Studio\2019\Community\VC\Tools\MSVC\14.29.30133\atlmfc\include\afxtempl.h
; File C:\Program Files (x86)\Microsoft Visual Studio\2019\Community\VC\Tools\MSVC\14.29.30133\atlmfc\include\afx.inl
; File C:\Program Files (x86)\Microsoft Visual Studio\2019\Community\VC\Tools\MSVC\14.29.30133\atlmfc\include\afxtempl.h
; File C:\Program Files (x86)\Microsoft Visual Studio\2019\Community\VC\Tools\MSVC\14.29.30133\atlmfc\include\afx.inl
; File C:\Program Files (x86)\Microsoft Visual Studio\2019\Community\VC\Tools\MSVC\14.29.30133\atlmfc\include\afxtempl.h
;	COMDAT ??$SerializeElements@PAVCConfirmWnd@@@@YGXAAVCArchive@@PAPAVCConfirmWnd@@H@Z
_TEXT	SEGMENT
_ar$ = 8						; size = 4
_pElements$ = 12					; size = 4
_nCount$ = 16						; size = 4
??$SerializeElements@PAVCConfirmWnd@@@@YGXAAVCArchive@@PAPAVCConfirmWnd@@H@Z PROC ; SerializeElements<CConfirmWnd *>, COMDAT

; 67   : {

  00000	55		 push	 ebp
  00001	8b ec		 mov	 ebp, esp

; 68   : 	ENSURE(nCount == 0 || pElements != NULL);

  00003	8b 4d 0c	 mov	 ecx, DWORD PTR _pElements$[ebp]
  00006	53		 push	 ebx
  00007	56		 push	 esi
  00008	8b 75 10	 mov	 esi, DWORD PTR _nCount$[ebp]
  0000b	57		 push	 edi
  0000c	85 f6		 test	 esi, esi
  0000e	74 08		 je	 SHORT $LN2@SerializeE
  00010	85 c9		 test	 ecx, ecx
  00012	0f 84 89 00 00
	00		 je	 $LN34@SerializeE
$LN2@SerializeE:
; File C:\Program Files (x86)\Microsoft Visual Studio\2019\Community\VC\Tools\MSVC\14.29.30133\atlmfc\include\afx.inl

; 212  : 	{ return (m_nMode & CArchive::load) == 0; }

  00018	8b 55 08	 mov	 edx, DWORD PTR _ar$[ebp]
  0001b	8b 42 18	 mov	 eax, DWORD PTR [edx+24]
  0001e	f7 d0		 not	 eax
  00020	a8 01		 test	 al, 1
; File C:\Program Files (x86)\Microsoft Visual Studio\2019\Community\VC\Tools\MSVC\14.29.30133\atlmfc\include\afxtempl.h

; 73   : 	if (ar.IsStoring())

  00022	74 3c		 je	 SHORT $LN10@SerializeE

; 74   : 	{
; 75   : 		TYPE* pData;
; 76   : 		UINT_PTR nElementsLeft;
; 77   : 
; 78   : 		nElementsLeft = nCount;
; 79   : 		pData = pElements;
; 80   : 		while( nElementsLeft > 0 )

  00024	85 f6		 test	 esi, esi
  00026	74 31		 je	 SHORT $LN8@SerializeE
  00028	0f 1f 84 00 00
	00 00 00	 npad	 8
$LL5@SerializeE:

; 81   : 		{
; 82   : 			UINT nElementsToWrite;
; 83   : 
; 84   : 			nElementsToWrite = UINT(__min(nElementsLeft, INT_MAX/sizeof(TYPE)));

  00030	bb ff ff ff 1f	 mov	 ebx, 536870911		; 1fffffffH
  00035	3b f3		 cmp	 esi, ebx
  00037	0f 42 de	 cmovb	 ebx, esi

; 85   : 			ar.Write(pData, nElementsToWrite*sizeof(TYPE));

  0003a	8d 3c 9d 00 00
	00 00		 lea	 edi, DWORD PTR [ebx*4]
  00041	57		 push	 edi
  00042	51		 push	 ecx
  00043	8b ca		 mov	 ecx, edx
  00045	e8 00 00 00 00	 call	 ?Write@CArchive@@QAEXPBXI@Z ; CArchive::Write

; 86   : 			nElementsLeft -= nElementsToWrite;
; 87   : 			pData += nElementsToWrite;

  0004a	8b 4d 0c	 mov	 ecx, DWORD PTR _pElements$[ebp]
  0004d	8b 55 08	 mov	 edx, DWORD PTR _ar$[ebp]
  00050	03 cf		 add	 ecx, edi
  00052	89 4d 0c	 mov	 DWORD PTR _pElements$[ebp], ecx
  00055	2b f3		 sub	 esi, ebx
  00057	75 d7		 jne	 SHORT $LL5@SerializeE
$LN8@SerializeE:
  00059	5f		 pop	 edi

; 105  : 		}
; 106  : 	}
; 107  : }

  0005a	5e		 pop	 esi
  0005b	5b		 pop	 ebx
  0005c	5d		 pop	 ebp
  0005d	c2 0c 00	 ret	 12			; 0000000cH
$LN10@SerializeE:

; 97   : 		while( nElementsLeft > 0 )

  00060	85 f6		 test	 esi, esi
  00062	74 f5		 je	 SHORT $LN8@SerializeE
$LL7@SerializeE:

; 98   : 		{
; 99   : 			UINT nElementsToRead;
; 100  : 
; 101  : 			nElementsToRead = UINT(__min(nElementsLeft, INT_MAX/sizeof(TYPE)));

  00064	bf ff ff ff 1f	 mov	 edi, 536870911		; 1fffffffH
  00069	3b f7		 cmp	 esi, edi
  0006b	0f 42 fe	 cmovb	 edi, esi

; 102  : 			ar.EnsureRead(pData, nElementsToRead*sizeof(TYPE));

  0006e	8d 1c bd 00 00
	00 00		 lea	 ebx, DWORD PTR [edi*4]
; File C:\Program Files (x86)\Microsoft Visual Studio\2019\Community\VC\Tools\MSVC\14.29.30133\atlmfc\include\afx.inl

; 399  : 	UINT nRead=Read(lpBuf, nCount);

  00075	53		 push	 ebx
  00076	51		 push	 ecx
  00077	8b ca		 mov	 ecx, edx
  00079	e8 00 00 00 00	 call	 ?Read@CArchive@@QAEIPAXI@Z ; CArchive::Read

; 400  : 	if(nRead!=nCount)

  0007e	3b c3		 cmp	 eax, ebx
  00080	75 16		 jne	 SHORT $LN23@SerializeE
; File C:\Program Files (x86)\Microsoft Visual Studio\2019\Community\VC\Tools\MSVC\14.29.30133\atlmfc\include\afxtempl.h

; 97   : 		while( nElementsLeft > 0 )

  00082	8b 4d 0c	 mov	 ecx, DWORD PTR _pElements$[ebp]
  00085	8b 55 08	 mov	 edx, DWORD PTR _ar$[ebp]

; 103  : 			nElementsLeft -= nElementsToRead;
; 104  : 			pData += nElementsToRead;

  00088	03 cb		 add	 ecx, ebx
  0008a	89 4d 0c	 mov	 DWORD PTR _pElements$[ebp], ecx
  0008d	2b f7		 sub	 esi, edi
  0008f	75 d3		 jne	 SHORT $LL7@SerializeE

; 105  : 		}
; 106  : 	}
; 107  : }

  00091	5f		 pop	 edi
  00092	5e		 pop	 esi
  00093	5b		 pop	 ebx
  00094	5d		 pop	 ebp
  00095	c2 0c 00	 ret	 12			; 0000000cH
$LN23@SerializeE:
; File C:\Program Files (x86)\Microsoft Visual Studio\2019\Community\VC\Tools\MSVC\14.29.30133\atlmfc\include\afx.inl

; 402  : 		AfxThrowArchiveException(CArchiveException::endOfFile);

  00098	6a 00		 push	 0
  0009a	6a 03		 push	 3
  0009c	e8 00 00 00 00	 call	 ?AfxThrowArchiveException@@YGXHPBD@Z ; AfxThrowArchiveException
$LN34@SerializeE:
; File C:\Program Files (x86)\Microsoft Visual Studio\2019\Community\VC\Tools\MSVC\14.29.30133\atlmfc\include\afxtempl.h

; 68   : 	ENSURE(nCount == 0 || pElements != NULL);

  000a1	e8 00 00 00 00	 call	 ?AfxThrowInvalidArgException@@YGXXZ ; AfxThrowInvalidArgException
$LN32@SerializeE:
  000a6	cc		 int	 3
??$SerializeElements@PAVCConfirmWnd@@@@YGXAAVCArchive@@PAPAVCConfirmWnd@@H@Z ENDP ; SerializeElements<CConfirmWnd *>
_TEXT	ENDS
; Function compile flags: /Ogtp
; File C:\Program Files (x86)\Microsoft Visual Studio\2019\Community\VC\Tools\MSVC\14.29.30133\atlmfc\include\afxtempl.h
;	COMDAT ??$CompareElements@PAVCConfirmWnd@@PAV1@@@YGHPBQAVCConfirmWnd@@0@Z
_TEXT	SEGMENT
_pElement1$ = 8						; size = 4
_pElement2$ = 12					; size = 4
??$CompareElements@PAVCConfirmWnd@@PAV1@@@YGHPBQAVCConfirmWnd@@0@Z PROC ; CompareElements<CConfirmWnd *,CConfirmWnd *>, COMDAT

; 151  : {

  00000	55		 push	 ebp
  00001	8b ec		 mov	 ebp, esp

; 152  : 	ENSURE(pElement1 != NULL && pElement2 != NULL);

  00003	8b 4d 08	 mov	 ecx, DWORD PTR _pElement1$[ebp]
  00006	85 c9		 test	 ecx, ecx
  00008	74 14		 je	 SHORT $LN7@CompareEle
  0000a	8b 55 0c	 mov	 edx, DWORD PTR _pElement2$[ebp]
  0000d	85 d2		 test	 edx, edx
  0000f	74 0d		 je	 SHORT $LN7@CompareEle

; 153  : 	ASSERT(AfxIsValidAddress(pElement1, sizeof(TYPE), FALSE));
; 154  : 	ASSERT(AfxIsValidAddress(pElement2, sizeof(ARG_TYPE), FALSE));
; 155  : 
; 156  : 	return *pElement1 == *pElement2;

  00011	8b 09		 mov	 ecx, DWORD PTR [ecx]
  00013	33 c0		 xor	 eax, eax
  00015	3b 0a		 cmp	 ecx, DWORD PTR [edx]
  00017	0f 94 c0	 sete	 al

; 157  : }

  0001a	5d		 pop	 ebp
  0001b	c2 08 00	 ret	 8
$LN7@CompareEle:

; 152  : 	ENSURE(pElement1 != NULL && pElement2 != NULL);

  0001e	e8 00 00 00 00	 call	 ?AfxThrowInvalidArgException@@YGXXZ ; AfxThrowInvalidArgException
$LN10@CompareEle:
  00023	cc		 int	 3
??$CompareElements@PAVCConfirmWnd@@PAV1@@@YGHPBQAVCConfirmWnd@@0@Z ENDP ; CompareElements<CConfirmWnd *,CConfirmWnd *>
_TEXT	ENDS
; Function compile flags: /Ogtp
; File D:\git\src\IBK\IBK_DRFN\ProjSrc\SrcDrfn\Chart\MULTICHART\TabSystemTradingEx.cpp
;	COMDAT ??__ERMSG_ISSTRUNSTATE@@YAXXZ
text$di	SEGMENT
??__ERMSG_ISSTRUNSTATE@@YAXXZ PROC			; `dynamic initializer for 'RMSG_ISSTRUNSTATE'', COMDAT

; 43   : const UINT RMSG_ISSTRUNSTATE = ::RegisterWindowMessage(_T("RMSG_ISSTRUNSTATE"));

  00000	68 00 00 00 00	 push	 OFFSET ??_C@_0BC@HAIAMDMN@RMSG_ISSTRUNSTATE@
  00005	ff 15 00 00 00
	00		 call	 DWORD PTR __imp__RegisterWindowMessageA@4
  0000b	a3 00 00 00 00	 mov	 DWORD PTR ?RMSG_ISSTRUNSTATE@@3IB, eax
  00010	c3		 ret	 0
??__ERMSG_ISSTRUNSTATE@@YAXXZ ENDP			; `dynamic initializer for 'RMSG_ISSTRUNSTATE''
text$di	ENDS
; Function compile flags: /Ogtp
; File D:\git\src\IBK\IBK_DRFN\ProjSrc\SrcDrfn\Chart\MULTICHART\TabSystemTradingEx.cpp
;	COMDAT ??__ERMSG_REQUEST_HOGADATA@@YAXXZ
text$di	SEGMENT
??__ERMSG_REQUEST_HOGADATA@@YAXXZ PROC			; `dynamic initializer for 'RMSG_REQUEST_HOGADATA'', COMDAT

; 42   : const UINT RMSG_REQUEST_HOGADATA = ::RegisterWindowMessage(_T("RMSG_REQUEST_HOGADATA"));

  00000	68 00 00 00 00	 push	 OFFSET ??_C@_0BG@LAFFFKAH@RMSG_REQUEST_HOGADATA@
  00005	ff 15 00 00 00
	00		 call	 DWORD PTR __imp__RegisterWindowMessageA@4
  0000b	a3 00 00 00 00	 mov	 DWORD PTR ?RMSG_REQUEST_HOGADATA@@3IB, eax
  00010	c3		 ret	 0
??__ERMSG_REQUEST_HOGADATA@@YAXXZ ENDP			; `dynamic initializer for 'RMSG_REQUEST_HOGADATA''
text$di	ENDS
; Function compile flags: /Ogtp
; File D:\git\src\IBK\IBK_DRFN\ProjSrc\SrcDrfn\Chart\MULTICHART\TabSystemTradingEx.cpp
;	COMDAT ??__ERMSG_GET_SCREENVIEWHANDLE@@YAXXZ
text$di	SEGMENT
??__ERMSG_GET_SCREENVIEWHANDLE@@YAXXZ PROC		; `dynamic initializer for 'RMSG_GET_SCREENVIEWHANDLE'', COMDAT

; 41   : const UINT RMSG_GET_SCREENVIEWHANDLE = ::RegisterWindowMessage(_T("RMSG_GET_SCREENVIEWHANDLE"));

  00000	68 00 00 00 00	 push	 OFFSET ??_C@_0BK@HAGIDNEN@RMSG_GET_SCREENVIEWHANDLE@
  00005	ff 15 00 00 00
	00		 call	 DWORD PTR __imp__RegisterWindowMessageA@4
  0000b	a3 00 00 00 00	 mov	 DWORD PTR ?RMSG_GET_SCREENVIEWHANDLE@@3IB, eax
  00010	c3		 ret	 0
??__ERMSG_GET_SCREENVIEWHANDLE@@YAXXZ ENDP		; `dynamic initializer for 'RMSG_GET_SCREENVIEWHANDLE''
text$di	ENDS
; Function compile flags: /Ogtp
; File D:\git\src\IBK\IBK_DRFN\ProjSrc\SrcDrfn\Chart\MULTICHART\TabSystemTradingEx.cpp
;	COMDAT ??__ERMSG_DESTROY_CONFIRMWND@@YAXXZ
text$di	SEGMENT
??__ERMSG_DESTROY_CONFIRMWND@@YAXXZ PROC		; `dynamic initializer for 'RMSG_DESTROY_CONFIRMWND'', COMDAT

; 40   : const UINT RMSG_DESTROY_CONFIRMWND = ::RegisterWindowMessage("RMSG_DESTROY_CONFIRMWND");

  00000	68 00 00 00 00	 push	 OFFSET ??_C@_0BI@HDHMAMNF@RMSG_DESTROY_CONFIRMWND@
  00005	ff 15 00 00 00
	00		 call	 DWORD PTR __imp__RegisterWindowMessageA@4
  0000b	a3 00 00 00 00	 mov	 DWORD PTR ?RMSG_DESTROY_CONFIRMWND@@3IB, eax
  00010	c3		 ret	 0
??__ERMSG_DESTROY_CONFIRMWND@@YAXXZ ENDP		; `dynamic initializer for 'RMSG_DESTROY_CONFIRMWND''
text$di	ENDS
; Function compile flags: /Ogtp
; File D:\git\src\IBK\IBK_DRFN\ProjSrc\SrcDrfn\Chart\MULTICHART\TabSystemTradingEx.cpp
;	COMDAT ??__ERMSG_INDEXADDIN_NOTIFY_SIGNAL@@YAXXZ
text$di	SEGMENT
??__ERMSG_INDEXADDIN_NOTIFY_SIGNAL@@YAXXZ PROC		; `dynamic initializer for 'RMSG_INDEXADDIN_NOTIFY_SIGNAL'', COMDAT

; 39   : const UINT RMSG_INDEXADDIN_NOTIFY_SIGNAL  = ::RegisterWindowMessage("RMSG_INDEXADDIN_NOTIFY_SIGNAL");

  00000	68 00 00 00 00	 push	 OFFSET ??_C@_0BO@OEMLJDPK@RMSG_INDEXADDIN_NOTIFY_SIGNAL@
  00005	ff 15 00 00 00
	00		 call	 DWORD PTR __imp__RegisterWindowMessageA@4
  0000b	a3 00 00 00 00	 mov	 DWORD PTR ?RMSG_INDEXADDIN_NOTIFY_SIGNAL@@3IB, eax
  00010	c3		 ret	 0
??__ERMSG_INDEXADDIN_NOTIFY_SIGNAL@@YAXXZ ENDP		; `dynamic initializer for 'RMSG_INDEXADDIN_NOTIFY_SIGNAL''
text$di	ENDS
; Function compile flags: /Ogtp
; File D:\git\src\IBK\IBK_DRFN\ProjSrc\SrcDrfn\Chart\MULTICHART\TabSystemTradingEx.cpp
;	COMDAT ??__ERMSG_INDEXADDIN_NOTIFY_BUYSELL@@YAXXZ
text$di	SEGMENT
??__ERMSG_INDEXADDIN_NOTIFY_BUYSELL@@YAXXZ PROC		; `dynamic initializer for 'RMSG_INDEXADDIN_NOTIFY_BUYSELL'', COMDAT

; 38   : const UINT RMSG_INDEXADDIN_NOTIFY_BUYSELL = ::RegisterWindowMessage("RMSG_INDEXADDIN_NOTIFY_BUYSELL");

  00000	68 00 00 00 00	 push	 OFFSET ??_C@_0BP@DPOBLABI@RMSG_INDEXADDIN_NOTIFY_BUYSELL@
  00005	ff 15 00 00 00
	00		 call	 DWORD PTR __imp__RegisterWindowMessageA@4
  0000b	a3 00 00 00 00	 mov	 DWORD PTR ?RMSG_INDEXADDIN_NOTIFY_BUYSELL@@3IB, eax
  00010	c3		 ret	 0
??__ERMSG_INDEXADDIN_NOTIFY_BUYSELL@@YAXXZ ENDP		; `dynamic initializer for 'RMSG_INDEXADDIN_NOTIFY_BUYSELL''
text$di	ENDS
; Function compile flags: /Ogtp
; File D:\git\src\IBK\IBK_DRFN\ProjSrc\SrcDrfn\Chart\MULTICHART\TabSystemTradingEx.cpp
;	COMDAT ??__ERMSG_INDEXADDIN_NOTIFY_RAWDATA@@YAXXZ
text$di	SEGMENT
??__ERMSG_INDEXADDIN_NOTIFY_RAWDATA@@YAXXZ PROC		; `dynamic initializer for 'RMSG_INDEXADDIN_NOTIFY_RAWDATA'', COMDAT

; 37   : const UINT RMSG_INDEXADDIN_NOTIFY_RAWDATA = ::RegisterWindowMessage("RMSG_INDEXADDIN_NOTIFY_RAWDATA");

  00000	68 00 00 00 00	 push	 OFFSET ??_C@_0BP@BAPIAINO@RMSG_INDEXADDIN_NOTIFY_RAWDATA@
  00005	ff 15 00 00 00
	00		 call	 DWORD PTR __imp__RegisterWindowMessageA@4
  0000b	a3 00 00 00 00	 mov	 DWORD PTR ?RMSG_INDEXADDIN_NOTIFY_RAWDATA@@3IB, eax
  00010	c3		 ret	 0
??__ERMSG_INDEXADDIN_NOTIFY_RAWDATA@@YAXXZ ENDP		; `dynamic initializer for 'RMSG_INDEXADDIN_NOTIFY_RAWDATA''
text$di	ENDS
; Function compile flags: /Ogtp
; File D:\git\src\IBK\IBK_DRFN\ProjSrc\SrcDrfn\Chart\MULTICHART\TabSystemTradingEx.cpp
;	COMDAT ??__ERMSG_RUN_MULTIST@@YAXXZ
text$di	SEGMENT
??__ERMSG_RUN_MULTIST@@YAXXZ PROC			; `dynamic initializer for 'RMSG_RUN_MULTIST'', COMDAT

; 36   : const UINT RMSG_RUN_MULTIST		= ::RegisterWindowMessage("RMSG_RUN_MULTIST");

  00000	68 00 00 00 00	 push	 OFFSET ??_C@_0BB@MOBJEGOO@RMSG_RUN_MULTIST@
  00005	ff 15 00 00 00
	00		 call	 DWORD PTR __imp__RegisterWindowMessageA@4
  0000b	a3 00 00 00 00	 mov	 DWORD PTR ?RMSG_RUN_MULTIST@@3IB, eax
  00010	c3		 ret	 0
??__ERMSG_RUN_MULTIST@@YAXXZ ENDP			; `dynamic initializer for 'RMSG_RUN_MULTIST''
text$di	ENDS
; Function compile flags: /Ogtp
; File D:\git\src\IBK\IBK_DRFN\ProjSrc\SrcDrfn\Chart\MULTICHART\TabSystemTradingEx.cpp
;	COMDAT ??__ERMSG_OB_ITEMDBLCLK@@YAXXZ
text$di	SEGMENT
??__ERMSG_OB_ITEMDBLCLK@@YAXXZ PROC			; `dynamic initializer for 'RMSG_OB_ITEMDBLCLK'', COMDAT

; 35   : const UINT RMSG_OB_ITEMDBLCLK	= ::RegisterWindowMessage("RMSG_OB_ITEMDBLCLK");

  00000	68 00 00 00 00	 push	 OFFSET ??_C@_0BD@GFDLLOKP@RMSG_OB_ITEMDBLCLK@
  00005	ff 15 00 00 00
	00		 call	 DWORD PTR __imp__RegisterWindowMessageA@4
  0000b	a3 00 00 00 00	 mov	 DWORD PTR ?RMSG_OB_ITEMDBLCLK@@3IB, eax
  00010	c3		 ret	 0
??__ERMSG_OB_ITEMDBLCLK@@YAXXZ ENDP			; `dynamic initializer for 'RMSG_OB_ITEMDBLCLK''
text$di	ENDS
; Function compile flags: /Ogtp
; File D:\git\src\IBK\IBK_DRFN\ProjSrc\SrcDrfn\Chart\MULTICHART\TabSystemTradingEx.cpp
;	COMDAT ??__ERMSG_OB_ITEMCLICK@@YAXXZ
text$di	SEGMENT
??__ERMSG_OB_ITEMCLICK@@YAXXZ PROC			; `dynamic initializer for 'RMSG_OB_ITEMCLICK'', COMDAT

; 34   : const UINT RMSG_OB_ITEMCLICK	= ::RegisterWindowMessage("RMSG_OB_ITEMCLICK");

  00000	68 00 00 00 00	 push	 OFFSET ??_C@_0BC@LAMDBJGM@RMSG_OB_ITEMCLICK@
  00005	ff 15 00 00 00
	00		 call	 DWORD PTR __imp__RegisterWindowMessageA@4
  0000b	a3 00 00 00 00	 mov	 DWORD PTR ?RMSG_OB_ITEMCLICK@@3IB, eax
  00010	c3		 ret	 0
??__ERMSG_OB_ITEMCLICK@@YAXXZ ENDP			; `dynamic initializer for 'RMSG_OB_ITEMCLICK''
text$di	ENDS
; Function compile flags: /Ogtp
;	COMDAT ??1stAddinSTRunInfo@@QAE@XZ
_TEXT	SEGMENT
??1stAddinSTRunInfo@@QAE@XZ PROC			; stAddinSTRunInfo::~stAddinSTRunInfo, COMDAT
; _this$ = ecx
  00000	56		 push	 esi
  00001	8b f1		 mov	 esi, ecx
  00003	8d 4e 10	 lea	 ecx, DWORD PTR [esi+16]
  00006	ff 15 00 00 00
	00		 call	 DWORD PTR __imp_??1?$CStringT@DV?$StrTraitMFC_DLL@DV?$ChTraitsCRT@D@ATL@@@@@ATL@@QAE@XZ
  0000c	8d 4e 08	 lea	 ecx, DWORD PTR [esi+8]
  0000f	5e		 pop	 esi
  00010	ff 25 00 00 00
	00		 jmp	 DWORD PTR __imp_??1?$CStringT@DV?$StrTraitMFC_DLL@DV?$ChTraitsCRT@D@ATL@@@@@ATL@@QAE@XZ
??1stAddinSTRunInfo@@QAE@XZ ENDP			; stAddinSTRunInfo::~stAddinSTRunInfo
_TEXT	ENDS
; Function compile flags: /Ogtp
;	COMDAT ??1stAddinSTRun@@QAE@XZ
_TEXT	SEGMENT
??1stAddinSTRun@@QAE@XZ PROC				; stAddinSTRun::~stAddinSTRun, COMDAT
; _this$ = ecx
  00000	56		 push	 esi
  00001	8b f1		 mov	 esi, ecx
  00003	8d 4e 28	 lea	 ecx, DWORD PTR [esi+40]
  00006	ff 15 00 00 00
	00		 call	 DWORD PTR __imp_??1?$CStringT@DV?$StrTraitMFC_DLL@DV?$ChTraitsCRT@D@ATL@@@@@ATL@@QAE@XZ
  0000c	8d 4e 14	 lea	 ecx, DWORD PTR [esi+20]
  0000f	e8 00 00 00 00	 call	 ??1CStringArray@@UAE@XZ	; CStringArray::~CStringArray
  00014	8d 4e 10	 lea	 ecx, DWORD PTR [esi+16]
  00017	ff 15 00 00 00
	00		 call	 DWORD PTR __imp_??1?$CStringT@DV?$StrTraitMFC_DLL@DV?$ChTraitsCRT@D@ATL@@@@@ATL@@QAE@XZ
  0001d	8d 4e 08	 lea	 ecx, DWORD PTR [esi+8]
  00020	ff 15 00 00 00
	00		 call	 DWORD PTR __imp_??1?$CStringT@DV?$StrTraitMFC_DLL@DV?$ChTraitsCRT@D@ATL@@@@@ATL@@QAE@XZ
  00026	8b ce		 mov	 ecx, esi
  00028	5e		 pop	 esi
  00029	ff 25 00 00 00
	00		 jmp	 DWORD PTR __imp_??1?$CStringT@DV?$StrTraitMFC_DLL@DV?$ChTraitsCRT@D@ATL@@@@@ATL@@QAE@XZ
??1stAddinSTRun@@QAE@XZ ENDP				; stAddinSTRun::~stAddinSTRun
_TEXT	ENDS
; Function compile flags: /Ogtp
; File C:\Program Files (x86)\Microsoft Visual Studio\2019\Community\VC\Tools\MSVC\14.29.30133\atlmfc\include\atlcomcli.h
;	COMDAT ??_Estringdispid@CComTypeInfoHolder@ATL@@QAEPAXI@Z
_TEXT	SEGMENT
__$EHRec$ = -12						; size = 12
___flags$ = 8						; size = 4
??_Estringdispid@CComTypeInfoHolder@ATL@@QAEPAXI@Z PROC	; ATL::CComTypeInfoHolder::stringdispid::`vector deleting destructor', COMDAT
; _this$ = ecx
  00000	55		 push	 ebp
  00001	8b ec		 mov	 ebp, esp
  00003	6a ff		 push	 -1
  00005	68 00 00 00 00	 push	 __ehhandler$??_Estringdispid@CComTypeInfoHolder@ATL@@QAEPAXI@Z
  0000a	64 a1 00 00 00
	00		 mov	 eax, DWORD PTR fs:0
  00010	50		 push	 eax
  00011	53		 push	 ebx
  00012	56		 push	 esi
  00013	57		 push	 edi
  00014	a1 00 00 00 00	 mov	 eax, DWORD PTR ___security_cookie
  00019	33 c5		 xor	 eax, ebp
  0001b	50		 push	 eax
  0001c	8d 45 f4	 lea	 eax, DWORD PTR __$EHRec$[ebp]
  0001f	64 a3 00 00 00
	00		 mov	 DWORD PTR fs:0, eax
  00025	8b f1		 mov	 esi, ecx
  00027	8b 45 08	 mov	 eax, DWORD PTR ___flags$[ebp]
  0002a	8b d8		 mov	 ebx, eax
  0002c	83 e3 01	 and	 ebx, 1
  0002f	a8 02		 test	 al, 2
  00031	74 43		 je	 SHORT $LN2@vector
  00033	68 00 00 00 00	 push	 OFFSET ??1stringdispid@CComTypeInfoHolder@ATL@@QAE@XZ
  00038	ff 76 fc	 push	 DWORD PTR [esi-4]
  0003b	8d 7e fc	 lea	 edi, DWORD PTR [esi-4]
  0003e	6a 0c		 push	 12			; 0000000cH
  00040	56		 push	 esi
  00041	e8 00 00 00 00	 call	 ??_M@YGXPAXIIP6EX0@Z@Z
  00046	85 db		 test	 ebx, ebx
  00048	74 16		 je	 SHORT $LN3@vector
  0004a	8b 0f		 mov	 ecx, DWORD PTR [edi]
  0004c	8d 0c 49	 lea	 ecx, DWORD PTR [ecx+ecx*2]
  0004f	8d 0c 8d 04 00
	00 00		 lea	 ecx, DWORD PTR [ecx*4+4]
  00056	51		 push	 ecx
  00057	57		 push	 edi
  00058	e8 00 00 00 00	 call	 ??_V@YAXPAXI@Z		; operator delete[]
  0005d	83 c4 08	 add	 esp, 8
$LN3@vector:
  00060	8b c7		 mov	 eax, edi
  00062	8b 4d f4	 mov	 ecx, DWORD PTR __$EHRec$[ebp]
  00065	64 89 0d 00 00
	00 00		 mov	 DWORD PTR fs:0, ecx
  0006c	59		 pop	 ecx
  0006d	5f		 pop	 edi
  0006e	5e		 pop	 esi
  0006f	5b		 pop	 ebx
  00070	8b e5		 mov	 esp, ebp
  00072	5d		 pop	 ebp
  00073	c2 04 00	 ret	 4
$LN2@vector:

; 1680 :     ::SysFreeString(m_str);

  00076	ff 36		 push	 DWORD PTR [esi]
  00078	ff 15 00 00 00
	00		 call	 DWORD PTR __imp__SysFreeString@4
  0007e	85 db		 test	 ebx, ebx
  00080	74 0b		 je	 SHORT $LN4@vector
  00082	6a 0c		 push	 12			; 0000000cH
  00084	56		 push	 esi
  00085	e8 00 00 00 00	 call	 ??3@YAXPAXI@Z		; operator delete
  0008a	83 c4 08	 add	 esp, 8
$LN4@vector:
  0008d	8b c6		 mov	 eax, esi
  0008f	8b 4d f4	 mov	 ecx, DWORD PTR __$EHRec$[ebp]
  00092	64 89 0d 00 00
	00 00		 mov	 DWORD PTR fs:0, ecx
  00099	59		 pop	 ecx
  0009a	5f		 pop	 edi
  0009b	5e		 pop	 esi
  0009c	5b		 pop	 ebx
  0009d	8b e5		 mov	 esp, ebp
  0009f	5d		 pop	 ebp
  000a0	c2 04 00	 ret	 4
  000a3	cc		 int	 3
  000a4	cc		 int	 3
  000a5	cc		 int	 3
  000a6	cc		 int	 3
  000a7	cc		 int	 3
_TEXT	ENDS
;	COMDAT text$x
text$x	SEGMENT
__ehhandler$??_Estringdispid@CComTypeInfoHolder@ATL@@QAEPAXI@Z:
  00000	90		 npad	 1
  00001	90		 npad	 1
  00002	8b 54 24 08	 mov	 edx, DWORD PTR [esp+8]
  00006	8d 42 0c	 lea	 eax, DWORD PTR [edx+12]
  00009	8b 4a f0	 mov	 ecx, DWORD PTR [edx-16]
  0000c	33 c8		 xor	 ecx, eax
  0000e	e8 00 00 00 00	 call	 @__security_check_cookie@4
  00013	b8 00 00 00 00	 mov	 eax, OFFSET __ehfuncinfo$??_Estringdispid@CComTypeInfoHolder@ATL@@QAEPAXI@Z
  00018	e9 00 00 00 00	 jmp	 ___CxxFrameHandler3
text$x	ENDS
??_Estringdispid@CComTypeInfoHolder@ATL@@QAEPAXI@Z ENDP	; ATL::CComTypeInfoHolder::stringdispid::`vector deleting destructor'
; Function compile flags: /Ogtp
; File C:\Program Files (x86)\Microsoft Visual Studio\2019\Community\VC\Tools\MSVC\14.29.30133\atlmfc\include\atlcomcli.h
;	COMDAT ??1stringdispid@CComTypeInfoHolder@ATL@@QAE@XZ
_TEXT	SEGMENT
??1stringdispid@CComTypeInfoHolder@ATL@@QAE@XZ PROC	; ATL::CComTypeInfoHolder::stringdispid::~stringdispid, COMDAT
; _this$ = ecx

; 1680 :     ::SysFreeString(m_str);

  00000	ff 31		 push	 DWORD PTR [ecx]
  00002	ff 15 00 00 00
	00		 call	 DWORD PTR __imp__SysFreeString@4
  00008	c3		 ret	 0
??1stringdispid@CComTypeInfoHolder@ATL@@QAE@XZ ENDP	; ATL::CComTypeInfoHolder::stringdispid::~stringdispid
_TEXT	ENDS
; Function compile flags: /Ogtp
; File D:\git\src\IBK\IBK_DRFN\ProjSrc\SrcDrfn\Chart\chart_common\ReplayChartInfoDef.h
;	COMDAT ??__ERMSG_REPLAY_TOTAL_SEC@@YAXXZ
text$di	SEGMENT
??__ERMSG_REPLAY_TOTAL_SEC@@YAXXZ PROC			; `dynamic initializer for 'RMSG_REPLAY_TOTAL_SEC'', COMDAT

; 97   : 	const UINT RMSG_REPLAY_TOTAL_SEC = ::RegisterWindowMessage(_T("RMSG_REPLAY_TOTAL_SEC"));		//  () 

  00000	68 00 00 00 00	 push	 OFFSET ??_C@_0BG@GIAJEIJF@RMSG_REPLAY_TOTAL_SEC@
  00005	ff 15 00 00 00
	00		 call	 DWORD PTR __imp__RegisterWindowMessageA@4
  0000b	a3 00 00 00 00	 mov	 DWORD PTR ?RMSG_REPLAY_TOTAL_SEC@@3IB, eax
  00010	c3		 ret	 0
??__ERMSG_REPLAY_TOTAL_SEC@@YAXXZ ENDP			; `dynamic initializer for 'RMSG_REPLAY_TOTAL_SEC''
text$di	ENDS
; Function compile flags: /Ogtp
; File D:\git\src\IBK\IBK_DRFN\ProjSrc\SrcDrfn\Chart\chart_common\ReplayChartInfoDef.h
;	COMDAT ??__ERMSG_REPLAY_INC_SEC@@YAXXZ
text$di	SEGMENT
??__ERMSG_REPLAY_INC_SEC@@YAXXZ PROC			; `dynamic initializer for 'RMSG_REPLAY_INC_SEC'', COMDAT

; 96   : 	const UINT RMSG_REPLAY_INC_SEC = ::RegisterWindowMessage(_T("RMSG_REPLAY_INC_SEC"));			// 1   

  00000	68 00 00 00 00	 push	 OFFSET ??_C@_0BE@JFCIMCIP@RMSG_REPLAY_INC_SEC@
  00005	ff 15 00 00 00
	00		 call	 DWORD PTR __imp__RegisterWindowMessageA@4
  0000b	a3 00 00 00 00	 mov	 DWORD PTR ?RMSG_REPLAY_INC_SEC@@3IB, eax
  00010	c3		 ret	 0
??__ERMSG_REPLAY_INC_SEC@@YAXXZ ENDP			; `dynamic initializer for 'RMSG_REPLAY_INC_SEC''
text$di	ENDS
; Function compile flags: /Ogtp
; File D:\git\src\IBK\IBK_DRFN\ProjSrc\SrcDrfn\Chart\chart_common\ReplayChartInfoDef.h
;	COMDAT ??__ERMSG_REPLAY_END@@YAXXZ
text$di	SEGMENT
??__ERMSG_REPLAY_END@@YAXXZ PROC			; `dynamic initializer for 'RMSG_REPLAY_END'', COMDAT

; 95   : 	const UINT RMSG_REPLAY_END			= ::RegisterWindowMessage(_T("RMSG_REPLAY_END"));

  00000	68 00 00 00 00	 push	 OFFSET ??_C@_0BA@NKHHCPON@RMSG_REPLAY_END@
  00005	ff 15 00 00 00
	00		 call	 DWORD PTR __imp__RegisterWindowMessageA@4
  0000b	a3 00 00 00 00	 mov	 DWORD PTR ?RMSG_REPLAY_END@@3IB, eax
  00010	c3		 ret	 0
??__ERMSG_REPLAY_END@@YAXXZ ENDP			; `dynamic initializer for 'RMSG_REPLAY_END''
text$di	ENDS
; Function compile flags: /Ogtp
; File D:\git\src\IBK\IBK_DRFN\ProjSrc\SrcDrfn\Chart\chart_common\ReplayChartInfoDef.h
;	COMDAT ??__ERMSG_REPLAY_CHANGE_DATE@@YAXXZ
text$di	SEGMENT
??__ERMSG_REPLAY_CHANGE_DATE@@YAXXZ PROC		; `dynamic initializer for 'RMSG_REPLAY_CHANGE_DATE'', COMDAT

; 94   : 	const UINT RMSG_REPLAY_CHANGE_DATE	= ::RegisterWindowMessage(_T("RMSG_REPLAY_CHANGE_DATE"));

  00000	68 00 00 00 00	 push	 OFFSET ??_C@_0BI@KDGAIIMD@RMSG_REPLAY_CHANGE_DATE@
  00005	ff 15 00 00 00
	00		 call	 DWORD PTR __imp__RegisterWindowMessageA@4
  0000b	a3 00 00 00 00	 mov	 DWORD PTR ?RMSG_REPLAY_CHANGE_DATE@@3IB, eax
  00010	c3		 ret	 0
??__ERMSG_REPLAY_CHANGE_DATE@@YAXXZ ENDP		; `dynamic initializer for 'RMSG_REPLAY_CHANGE_DATE''
text$di	ENDS
; Function compile flags: /Ogtp
; File D:\git\src\IBK\IBK_DRFN\ProjSrc\SrcDrfn\Chart\chart_common\ReplayChartInfoDef.h
;	COMDAT ??__ERMSG_REPLAY_FAIL@@YAXXZ
text$di	SEGMENT
??__ERMSG_REPLAY_FAIL@@YAXXZ PROC			; `dynamic initializer for 'RMSG_REPLAY_FAIL'', COMDAT

; 93   : 	const UINT RMSG_REPLAY_FAIL			= ::RegisterWindowMessage(_T("RMSG_REPLAY_FAIL"));

  00000	68 00 00 00 00	 push	 OFFSET ??_C@_0BB@JFLGBADG@RMSG_REPLAY_FAIL@
  00005	ff 15 00 00 00
	00		 call	 DWORD PTR __imp__RegisterWindowMessageA@4
  0000b	a3 00 00 00 00	 mov	 DWORD PTR ?RMSG_REPLAY_FAIL@@3IB, eax
  00010	c3		 ret	 0
??__ERMSG_REPLAY_FAIL@@YAXXZ ENDP			; `dynamic initializer for 'RMSG_REPLAY_FAIL''
text$di	ENDS
; Function compile flags: /Ogtp
; File D:\git\src\IBK\IBK_DRFN\ProjSrc\SrcDrfn\Chart\chart_common\ReplayChartInfoDef.h
;	COMDAT ??__ERMSG_REPLAY_REAL@@YAXXZ
text$di	SEGMENT
??__ERMSG_REPLAY_REAL@@YAXXZ PROC			; `dynamic initializer for 'RMSG_REPLAY_REAL'', COMDAT

; 92   : 	const UINT RMSG_REPLAY_REAL			= ::RegisterWindowMessage(_T("RMSG_REPLAY_REAL"));

  00000	68 00 00 00 00	 push	 OFFSET ??_C@_0BB@IBKHOHJL@RMSG_REPLAY_REAL@
  00005	ff 15 00 00 00
	00		 call	 DWORD PTR __imp__RegisterWindowMessageA@4
  0000b	a3 00 00 00 00	 mov	 DWORD PTR ?RMSG_REPLAY_REAL@@3IB, eax
  00010	c3		 ret	 0
??__ERMSG_REPLAY_REAL@@YAXXZ ENDP			; `dynamic initializer for 'RMSG_REPLAY_REAL''
text$di	ENDS
; Function compile flags: /Ogtp
; File C:\Program Files (x86)\Microsoft Visual Studio\2019\Community\VC\Tools\MSVC\14.29.30133\atlmfc\include\afx.inl
;	COMDAT ??_GCTabSystemTradingEx@@UAEPAXI@Z
_TEXT	SEGMENT
___flags$ = 8						; size = 4
??_GCTabSystemTradingEx@@UAEPAXI@Z PROC			; CTabSystemTradingEx::`scalar deleting destructor', COMDAT
; _this$ = ecx
  00000	55		 push	 ebp
  00001	8b ec		 mov	 ebp, esp
  00003	56		 push	 esi
  00004	8b f1		 mov	 esi, ecx
  00006	e8 00 00 00 00	 call	 ??1CTabSystemTradingEx@@UAE@XZ ; CTabSystemTradingEx::~CTabSystemTradingEx
  0000b	8b 45 08	 mov	 eax, DWORD PTR ___flags$[ebp]
  0000e	a8 01		 test	 al, 1
  00010	74 22		 je	 SHORT $LN9@scalar
  00012	a8 04		 test	 al, 4
  00014	75 10		 jne	 SHORT $LN3@scalar

; 112  : 	{ ::operator delete(p); }

  00016	56		 push	 esi
  00017	e8 00 00 00 00	 call	 ??3@YAXPAX@Z		; operator delete
  0001c	83 c4 04	 add	 esp, 4
  0001f	8b c6		 mov	 eax, esi
  00021	5e		 pop	 esi
  00022	5d		 pop	 ebp
  00023	c2 04 00	 ret	 4
$LN3@scalar:
  00026	68 d8 09 00 00	 push	 2520			; 000009d8H
  0002b	56		 push	 esi
  0002c	e8 00 00 00 00	 call	 ?__global_delete@@YAXPAXI@Z ; __global_delete
  00031	83 c4 08	 add	 esp, 8
$LN9@scalar:
  00034	8b c6		 mov	 eax, esi
  00036	5e		 pop	 esi
  00037	5d		 pop	 ebp
  00038	c2 04 00	 ret	 4
??_GCTabSystemTradingEx@@UAEPAXI@Z ENDP			; CTabSystemTradingEx::`scalar deleting destructor'
_TEXT	ENDS
; Function compile flags: /Ogtp
; File D:\git\src\IBK\IBK_DRFN\ProjSrc\SrcDrfn\Chart\MULTICHART\TabSystemTradingEx.cpp
;	COMDAT ?GetHwndScreenView@CSTDlgConfirmSendJumun@CTabSystemTradingEx@@EAGPAUHWND__@@XZ
_TEXT	SEGMENT
_this$ = 8						; size = 4
?GetHwndScreenView@CSTDlgConfirmSendJumun@CTabSystemTradingEx@@EAGPAUHWND__@@XZ PROC ; CTabSystemTradingEx::CSTDlgConfirmSendJumun::GetHwndScreenView, COMDAT

; 2307 : {

  00000	55		 push	 ebp
  00001	8b ec		 mov	 ebp, esp

; 2308 : 	MYMETHOD_PROLOGUE(CTabSystemTradingEx, STDlgConfirmSendJumun)
; 2309 : 
; 2310 : 	AfxMessageBox("[GetHwndScreenView]Solomon"); //@Solomon-091015

  00003	6a 00		 push	 0
  00005	6a 00		 push	 0
  00007	68 00 00 00 00	 push	 OFFSET ??_C@_0CD@CEOFIHIE@?$FLGetHwndScreenView?$FNSolomon?$LM?v?A?$KE?G@
  0000c	e8 00 00 00 00	 call	 ?AfxMessageBox@@YGHPBDII@Z ; AfxMessageBox

; 2311 : 
; 2312 : 	return ((CStdDialog*)pThis->m_pMultiChartWnd)->m_hViewInMain;

  00011	8b 45 08	 mov	 eax, DWORD PTR _this$[ebp]
  00014	8b 80 f0 f6 ff
	ff		 mov	 eax, DWORD PTR [eax-2320]
  0001a	8b 80 08 08 00
	00		 mov	 eax, DWORD PTR [eax+2056]

; 2313 : }

  00020	5d		 pop	 ebp
  00021	c2 04 00	 ret	 4
?GetHwndScreenView@CSTDlgConfirmSendJumun@CTabSystemTradingEx@@EAGPAUHWND__@@XZ ENDP ; CTabSystemTradingEx::CSTDlgConfirmSendJumun::GetHwndScreenView
_TEXT	ENDS
; Function compile flags: /Ogtp
; File D:\git\src\IBK\IBK_DRFN\ProjSrc\SrcDrfn\Chart\MULTICHART\TabSystemTradingEx.cpp
;	COMDAT ?GetParent@CSTDlgConfirmSendJumun@CTabSystemTradingEx@@EAGPAVCWnd@@XZ
_TEXT	SEGMENT
_this$ = 8						; size = 4
?GetParent@CSTDlgConfirmSendJumun@CTabSystemTradingEx@@EAGPAVCWnd@@XZ PROC ; CTabSystemTradingEx::CSTDlgConfirmSendJumun::GetParent, COMDAT

; 2300 : {

  00000	55		 push	 ebp
  00001	8b ec		 mov	 ebp, esp

; 2301 : 	MYMETHOD_PROLOGUE(CTabSystemTradingEx, STDlgConfirmSendJumun)

  00003	8b 45 08	 mov	 eax, DWORD PTR _this$[ebp]
  00006	05 30 f6 ff ff	 add	 eax, -2512		; fffff630H

; 2302 : 
; 2303 : 	return (CWnd*)pThis;
; 2304 : }

  0000b	5d		 pop	 ebp
  0000c	c2 04 00	 ret	 4
?GetParent@CSTDlgConfirmSendJumun@CTabSystemTradingEx@@EAGPAVCWnd@@XZ ENDP ; CTabSystemTradingEx::CSTDlgConfirmSendJumun::GetParent
_TEXT	ENDS
; Function compile flags: /Ogtp
; File C:\Program Files (x86)\Microsoft Visual Studio\2019\Community\VC\Tools\MSVC\14.29.30133\atlmfc\include\afxtempl.h
; File C:\Program Files (x86)\Microsoft Visual Studio\2019\Community\VC\Tools\MSVC\14.29.30133\atlmfc\include\afx.inl
;	COMDAT ??_G?$CMap@PAVCConfirmWnd@@PAV1@JJ@@UAEPAXI@Z
_TEXT	SEGMENT
__$EHRec$ = -12						; size = 12
___flags$ = 8						; size = 4
??_G?$CMap@PAVCConfirmWnd@@PAV1@JJ@@UAEPAXI@Z PROC	; CMap<CConfirmWnd *,CConfirmWnd *,long,long>::`scalar deleting destructor', COMDAT
; _this$ = ecx
  00000	55		 push	 ebp
  00001	8b ec		 mov	 ebp, esp
  00003	6a ff		 push	 -1
  00005	68 00 00 00 00	 push	 __ehhandler$??_G?$CMap@PAVCConfirmWnd@@PAV1@JJ@@UAEPAXI@Z
  0000a	64 a1 00 00 00
	00		 mov	 eax, DWORD PTR fs:0
  00010	50		 push	 eax
  00011	56		 push	 esi
  00012	a1 00 00 00 00	 mov	 eax, DWORD PTR ___security_cookie
  00017	33 c5		 xor	 eax, ebp
  00019	50		 push	 eax
  0001a	8d 45 f4	 lea	 eax, DWORD PTR __$EHRec$[ebp]
  0001d	64 a3 00 00 00
	00		 mov	 DWORD PTR fs:0, eax
  00023	8b f1		 mov	 esi, ecx
; File C:\Program Files (x86)\Microsoft Visual Studio\2019\Community\VC\Tools\MSVC\14.29.30133\atlmfc\include\afxtempl.h

; 1446 : 	if (m_pHashTable != NULL)

  00025	8b 46 04	 mov	 eax, DWORD PTR [esi+4]

; 1472 : {

  00028	c7 45 fc 00 00
	00 00		 mov	 DWORD PTR __$EHRec$[ebp+8], 0
  0002f	c7 06 00 00 00
	00		 mov	 DWORD PTR [esi], OFFSET ??_7?$CMap@PAVCConfirmWnd@@PAV1@JJ@@6B@

; 1446 : 	if (m_pHashTable != NULL)

  00035	85 c0		 test	 eax, eax
  00037	74 10		 je	 SHORT $LN17@scalar

; 1447 : 	{
; 1448 : 		// destroy elements (values and keys)
; 1449 : 		for (UINT nHash = 0; nHash < m_nHashTableSize; nHash++)
; 1450 : 		{
; 1451 : 			CAssoc* pAssoc;
; 1452 : 			for (pAssoc = m_pHashTable[nHash]; pAssoc != NULL;
; 1453 : 			  pAssoc = pAssoc->pNext)
; 1454 : 			{
; 1455 : 				pAssoc->CAssoc::~CAssoc();
; 1456 : 			}
; 1457 : 		}
; 1458 : 
; 1459 : 		// free hash table
; 1460 : 		delete[] m_pHashTable;

  00039	50		 push	 eax
  0003a	e8 00 00 00 00	 call	 ??_V@YAXPAX@Z		; operator delete[]
  0003f	83 c4 04	 add	 esp, 4

; 1461 : 		m_pHashTable = NULL;

  00042	c7 46 04 00 00
	00 00		 mov	 DWORD PTR [esi+4], 0
$LN17@scalar:

; 1462 : 	}
; 1463 : 
; 1464 : 	m_nCount = 0;
; 1465 : 	m_pFreeList = NULL;
; 1466 : 	m_pBlocks->FreeDataChain();

  00049	8b 4e 14	 mov	 ecx, DWORD PTR [esi+20]
  0004c	c7 46 0c 00 00
	00 00		 mov	 DWORD PTR [esi+12], 0
  00053	c7 46 10 00 00
	00 00		 mov	 DWORD PTR [esi+16], 0
  0005a	e8 00 00 00 00	 call	 ?FreeDataChain@CPlex@@QAEXXZ ; CPlex::FreeDataChain

; 1467 : 	m_pBlocks = NULL;

  0005f	8b 45 08	 mov	 eax, DWORD PTR ___flags$[ebp]
  00062	c7 46 14 00 00
	00 00		 mov	 DWORD PTR [esi+20], 0
  00069	a8 01		 test	 al, 1
  0006b	74 2c		 je	 SHORT $LN31@scalar
  0006d	a8 04		 test	 al, 4
  0006f	75 1d		 jne	 SHORT $LN3@scalar
; File C:\Program Files (x86)\Microsoft Visual Studio\2019\Community\VC\Tools\MSVC\14.29.30133\atlmfc\include\afx.inl

; 112  : 	{ ::operator delete(p); }

  00071	56		 push	 esi
  00072	e8 00 00 00 00	 call	 ??3@YAXPAX@Z		; operator delete
  00077	83 c4 04	 add	 esp, 4
  0007a	8b c6		 mov	 eax, esi
  0007c	8b 4d f4	 mov	 ecx, DWORD PTR __$EHRec$[ebp]
  0007f	64 89 0d 00 00
	00 00		 mov	 DWORD PTR fs:0, ecx
  00086	59		 pop	 ecx
  00087	5e		 pop	 esi
  00088	8b e5		 mov	 esp, ebp
  0008a	5d		 pop	 ebp
  0008b	c2 04 00	 ret	 4
$LN3@scalar:
  0008e	6a 1c		 push	 28			; 0000001cH
  00090	56		 push	 esi
  00091	e8 00 00 00 00	 call	 ?__global_delete@@YAXPAXI@Z ; __global_delete
  00096	83 c4 08	 add	 esp, 8
$LN31@scalar:
  00099	8b c6		 mov	 eax, esi
  0009b	8b 4d f4	 mov	 ecx, DWORD PTR __$EHRec$[ebp]
  0009e	64 89 0d 00 00
	00 00		 mov	 DWORD PTR fs:0, ecx
  000a5	59		 pop	 ecx
  000a6	5e		 pop	 esi
  000a7	8b e5		 mov	 esp, ebp
  000a9	5d		 pop	 ebp
  000aa	c2 04 00	 ret	 4
  000ad	cc		 int	 3
  000ae	cc		 int	 3
  000af	cc		 int	 3
  000b0	cc		 int	 3
  000b1	cc		 int	 3
_TEXT	ENDS
;	COMDAT text$x
text$x	SEGMENT
__ehhandler$??_G?$CMap@PAVCConfirmWnd@@PAV1@JJ@@UAEPAXI@Z:
  00000	90		 npad	 1
  00001	90		 npad	 1
  00002	8b 54 24 08	 mov	 edx, DWORD PTR [esp+8]
  00006	8d 42 0c	 lea	 eax, DWORD PTR [edx+12]
  00009	8b 4a f8	 mov	 ecx, DWORD PTR [edx-8]
  0000c	33 c8		 xor	 ecx, eax
  0000e	e8 00 00 00 00	 call	 @__security_check_cookie@4
  00013	b8 00 00 00 00	 mov	 eax, OFFSET __ehfuncinfo$??_G?$CMap@PAVCConfirmWnd@@PAV1@JJ@@UAEPAXI@Z
  00018	e9 00 00 00 00	 jmp	 ___CxxFrameHandler3
text$x	ENDS
??_G?$CMap@PAVCConfirmWnd@@PAV1@JJ@@UAEPAXI@Z ENDP	; CMap<CConfirmWnd *,CConfirmWnd *,long,long>::`scalar deleting destructor'
; Function compile flags: /Ogtp
; File C:\Program Files (x86)\Microsoft Visual Studio\2019\Community\VC\Tools\MSVC\14.29.30133\atlmfc\include\afxtempl.h
; File C:\Program Files (x86)\Microsoft Visual Studio\2019\Community\VC\Tools\MSVC\14.29.30133\atlmfc\include\afx.inl
; File C:\Program Files (x86)\Microsoft Visual Studio\2019\Community\VC\Tools\MSVC\14.29.30133\atlmfc\include\afxtempl.h
; File C:\Program Files (x86)\Microsoft Visual Studio\2019\Community\VC\Tools\MSVC\14.29.30133\atlmfc\include\afx.inl
; File C:\Program Files (x86)\Microsoft Visual Studio\2019\Community\VC\Tools\MSVC\14.29.30133\atlmfc\include\afxtempl.h
; File C:\Program Files (x86)\Microsoft Visual Studio\2019\Community\VC\Tools\MSVC\14.29.30133\atlmfc\include\afx.inl
; File C:\Program Files (x86)\Microsoft Visual Studio\2019\Community\VC\Tools\MSVC\14.29.30133\atlmfc\include\afxtempl.h
; File C:\Program Files (x86)\Microsoft Visual Studio\2019\Community\VC\Tools\MSVC\14.29.30133\atlmfc\include\afx.inl
; File C:\Program Files (x86)\Microsoft Visual Studio\2019\Community\VC\Tools\MSVC\14.29.30133\atlmfc\include\afxtempl.h
; File C:\Program Files (x86)\Microsoft Visual Studio\2019\Community\VC\Tools\MSVC\14.29.30133\atlmfc\include\afx.inl
; File C:\Program Files (x86)\Microsoft Visual Studio\2019\Community\VC\Tools\MSVC\14.29.30133\atlmfc\include\afxtempl.h
; File C:\Program Files (x86)\Microsoft Visual Studio\2019\Community\VC\Tools\MSVC\14.29.30133\atlmfc\include\afx.inl
; File C:\Program Files (x86)\Microsoft Visual Studio\2019\Community\VC\Tools\MSVC\14.29.30133\atlmfc\include\afxtempl.h
; File C:\Program Files (x86)\Microsoft Visual Studio\2019\Community\VC\Tools\MSVC\14.29.30133\atlmfc\include\afx.inl
; File C:\Program Files (x86)\Microsoft Visual Studio\2019\Community\VC\Tools\MSVC\14.29.30133\atlmfc\include\afxtempl.h
; File C:\Program Files (x86)\Microsoft Visual Studio\2019\Community\VC\Tools\MSVC\14.29.30133\atlmfc\include\afx.inl
; File C:\Program Files (x86)\Microsoft Visual Studio\2019\Community\VC\Tools\MSVC\14.29.30133\atlmfc\include\afxtempl.h
; File C:\Program Files (x86)\Microsoft Visual Studio\2019\Community\VC\Tools\MSVC\14.29.30133\atlmfc\include\afx.inl
; File C:\Program Files (x86)\Microsoft Visual Studio\2019\Community\VC\Tools\MSVC\14.29.30133\atlmfc\include\afxtempl.h
; File C:\Program Files (x86)\Microsoft Visual Studio\2019\Community\VC\Tools\MSVC\14.29.30133\atlmfc\include\afx.inl
; File C:\Program Files (x86)\Microsoft Visual Studio\2019\Community\VC\Tools\MSVC\14.29.30133\atlmfc\include\afxtempl.h
; File C:\Program Files (x86)\Microsoft Visual Studio\2019\Community\VC\Tools\MSVC\14.29.30133\atlmfc\include\afx.inl
; File C:\Program Files (x86)\Microsoft Visual Studio\2019\Community\VC\Tools\MSVC\14.29.30133\atlmfc\include\afxtempl.h
; File C:\Program Files (x86)\Microsoft Visual Studio\2019\Community\VC\Tools\MSVC\14.29.30133\atlmfc\include\afx.inl
; File C:\Program Files (x86)\Microsoft Visual Studio\2019\Community\VC\Tools\MSVC\14.29.30133\atlmfc\include\afxtempl.h
; File C:\Program Files (x86)\Microsoft Visual Studio\2019\Community\VC\Tools\MSVC\14.29.30133\atlmfc\include\afx.inl
; File C:\Program Files (x86)\Microsoft Visual Studio\2019\Community\VC\Tools\MSVC\14.29.30133\atlmfc\include\afxtempl.h
; File C:\Program Files (x86)\Microsoft Visual Studio\2019\Community\VC\Tools\MSVC\14.29.30133\atlmfc\include\afx.inl
; File C:\Program Files (x86)\Microsoft Visual Studio\2019\Community\VC\Tools\MSVC\14.29.30133\atlmfc\include\afxtempl.h
; File C:\Program Files (x86)\Microsoft Visual Studio\2019\Community\VC\Tools\MSVC\14.29.30133\atlmfc\include\afx.inl
; File C:\Program Files (x86)\Microsoft Visual Studio\2019\Community\VC\Tools\MSVC\14.29.30133\atlmfc\include\afxtempl.h
; File C:\Program Files (x86)\Microsoft Visual Studio\2019\Community\VC\Tools\MSVC\14.29.30133\atlmfc\include\afx.inl
; File C:\Program Files (x86)\Microsoft Visual Studio\2019\Community\VC\Tools\MSVC\14.29.30133\atlmfc\include\afxtempl.h
; File C:\Program Files (x86)\Microsoft Visual Studio\2019\Community\VC\Tools\MSVC\14.29.30133\atlmfc\include\afx.inl
; File C:\Program Files (x86)\Microsoft Visual Studio\2019\Community\VC\Tools\MSVC\14.29.30133\atlmfc\include\afxtempl.h
; File C:\Program Files (x86)\Microsoft Visual Studio\2019\Community\VC\Tools\MSVC\14.29.30133\atlmfc\include\afx.inl
; File C:\Program Files (x86)\Microsoft Visual Studio\2019\Community\VC\Tools\MSVC\14.29.30133\atlmfc\include\afxtempl.h
; File C:\Program Files (x86)\Microsoft Visual Studio\2019\Community\VC\Tools\MSVC\14.29.30133\atlmfc\include\afx.inl
; File C:\Program Files (x86)\Microsoft Visual Studio\2019\Community\VC\Tools\MSVC\14.29.30133\atlmfc\include\afxtempl.h
;	COMDAT ?Serialize@?$CMap@PAVCConfirmWnd@@PAV1@JJ@@UAEXAAVCArchive@@@Z
_TEXT	SEGMENT
_nHashBucket$1$ = -32					; size = 4
_nCount$1$ = -32					; size = 4
_nElementsToRead$1$ = -32				; size = 4
_nElementsToRead$1$ = -28				; size = 4
_pData$1$ = -28						; size = 4
_nCount$1$ = -28					; size = 4
_newValue$1$ = -28					; size = 4
_this$1$ = -24						; size = 4
_newKey$3 = -20						; size = 4
_newValue$4 = -16					; size = 4
_pData$1$ = -12						; size = 4
_pData$1$ = -12						; size = 4
_key$1$ = -12						; size = 4
_nHash$1$ = -12						; size = 4
_nNewCount$1$ = -8					; size = 4
_pAssoc$1$ = -8						; size = 4
_nElementsLeft$1$ = -4					; size = 4
_pData$1$ = -4						; size = 4
_pData$1$ = -4						; size = 4
_nHashSize$1$ = 8					; size = 4
_pData$1$ = 8						; size = 4
_nElementsLeft$1$ = 8					; size = 4
_pData$1$ = 8						; size = 4
_nElementsLeft$1$ = 8					; size = 4
_ar$ = 8						; size = 4
?Serialize@?$CMap@PAVCConfirmWnd@@PAV1@JJ@@UAEXAAVCArchive@@@Z PROC ; CMap<CConfirmWnd *,CConfirmWnd *,long,long>::Serialize, COMDAT
; _this$ = ecx

; 1743 : {

  00000	55		 push	 ebp
  00001	8b ec		 mov	 ebp, esp
  00003	83 ec 20	 sub	 esp, 32			; 00000020H
  00006	53		 push	 ebx
; File C:\Program Files (x86)\Microsoft Visual Studio\2019\Community\VC\Tools\MSVC\14.29.30133\atlmfc\include\afx.inl

; 212  : 	{ return (m_nMode & CArchive::load) == 0; }

  00007	8b 5d 08	 mov	 ebx, DWORD PTR _ar$[ebp]
; File C:\Program Files (x86)\Microsoft Visual Studio\2019\Community\VC\Tools\MSVC\14.29.30133\atlmfc\include\afxtempl.h

; 1743 : {

  0000a	56		 push	 esi
  0000b	8b f1		 mov	 esi, ecx

; 1748 : 	if (ar.IsStoring())

  0000d	8b cb		 mov	 ecx, ebx
  0000f	57		 push	 edi
; File C:\Program Files (x86)\Microsoft Visual Studio\2019\Community\VC\Tools\MSVC\14.29.30133\atlmfc\include\afx.inl

; 212  : 	{ return (m_nMode & CArchive::load) == 0; }

  00010	8b 43 18	 mov	 eax, DWORD PTR [ebx+24]
  00013	f7 d0		 not	 eax
; File C:\Program Files (x86)\Microsoft Visual Studio\2019\Community\VC\Tools\MSVC\14.29.30133\atlmfc\include\afxtempl.h

; 1743 : {

  00015	89 75 e8	 mov	 DWORD PTR _this$1$[ebp], esi
; File C:\Program Files (x86)\Microsoft Visual Studio\2019\Community\VC\Tools\MSVC\14.29.30133\atlmfc\include\afx.inl

; 212  : 	{ return (m_nMode & CArchive::load) == 0; }

  00018	a8 01		 test	 al, 1
; File C:\Program Files (x86)\Microsoft Visual Studio\2019\Community\VC\Tools\MSVC\14.29.30133\atlmfc\include\afxtempl.h

; 1748 : 	if (ar.IsStoring())

  0001a	0f 84 71 01 00
	00		 je	 $LN10@Serialize

; 1749 : 	{
; 1750 : 		ar.WriteCount(m_nCount);

  00020	ff 76 0c	 push	 DWORD PTR [esi+12]
  00023	e8 00 00 00 00	 call	 ?WriteCount@CArchive@@QAEXK@Z ; CArchive::WriteCount

; 1751 : 		if (m_nCount == 0)

  00028	83 7e 0c 00	 cmp	 DWORD PTR [esi+12], 0
  0002c	0f 84 c9 03 00
	00		 je	 $LN189@Serialize

; 1752 : 			return;  // nothing more to do
; 1753 : 
; 1754 : 		ASSERT(m_pHashTable != NULL);
; 1755 : 		if (m_pHashTable != NULL)

  00032	83 7e 04 00	 cmp	 DWORD PTR [esi+4], 0
  00036	0f 84 bf 03 00
	00		 je	 $LN189@Serialize

; 1756 : 		{
; 1757 : 			for (UINT nHash = 0; nHash < m_nHashTableSize; nHash++)

  0003c	33 c9		 xor	 ecx, ecx
  0003e	89 4d f4	 mov	 DWORD PTR _nHash$1$[ebp], ecx
  00041	39 4e 08	 cmp	 DWORD PTR [esi+8], ecx
  00044	0f 86 b1 03 00
	00		 jbe	 $LN189@Serialize
  0004a	66 0f 1f 44 00
	00		 npad	 6
$LL4@Serialize:

; 1758 : 			{
; 1759 : 				CAssoc* pAssoc;
; 1760 : 				for (pAssoc = m_pHashTable[nHash]; pAssoc != NULL; pAssoc = pAssoc->pNext)

  00050	8b 46 04	 mov	 eax, DWORD PTR [esi+4]
  00053	8b 0c 88	 mov	 ecx, DWORD PTR [eax+ecx*4]
  00056	89 4d f8	 mov	 DWORD PTR _pAssoc$1$[ebp], ecx
  00059	85 c9		 test	 ecx, ecx
  0005b	0f 84 17 01 00
	00		 je	 $LN2@Serialize
$LL7@Serialize:
; File C:\Program Files (x86)\Microsoft Visual Studio\2019\Community\VC\Tools\MSVC\14.29.30133\atlmfc\include\afx.inl

; 212  : 	{ return (m_nMode & CArchive::load) == 0; }

  00061	8b 43 18	 mov	 eax, DWORD PTR [ebx+24]
; File C:\Program Files (x86)\Microsoft Visual Studio\2019\Community\VC\Tools\MSVC\14.29.30133\atlmfc\include\afxtempl.h

; 1770 : 					pValue = reinterpret_cast< VALUE* >( &reinterpret_cast< int& >( static_cast< VALUE& >( pAssoc->value ) ) );

  00064	8d 71 04	 lea	 esi, DWORD PTR [ecx+4]
; File C:\Program Files (x86)\Microsoft Visual Studio\2019\Community\VC\Tools\MSVC\14.29.30133\atlmfc\include\afx.inl

; 212  : 	{ return (m_nMode & CArchive::load) == 0; }

  00067	f7 d0		 not	 eax
; File C:\Program Files (x86)\Microsoft Visual Studio\2019\Community\VC\Tools\MSVC\14.29.30133\atlmfc\include\afxtempl.h

; 1770 : 					pValue = reinterpret_cast< VALUE* >( &reinterpret_cast< int& >( static_cast< VALUE& >( pAssoc->value ) ) );

  00069	89 75 e4	 mov	 DWORD PTR _pData$1$[ebp], esi

; 73   : 	if (ar.IsStoring())

  0006c	89 4d fc	 mov	 DWORD PTR _pData$1$[ebp], ecx
; File C:\Program Files (x86)\Microsoft Visual Studio\2019\Community\VC\Tools\MSVC\14.29.30133\atlmfc\include\afx.inl

; 212  : 	{ return (m_nMode & CArchive::load) == 0; }

  0006f	a8 01		 test	 al, 1
; File C:\Program Files (x86)\Microsoft Visual Studio\2019\Community\VC\Tools\MSVC\14.29.30133\atlmfc\include\afxtempl.h

; 73   : 	if (ar.IsStoring())

  00071	74 3c		 je	 SHORT $LN26@Serialize

; 74   : 	{
; 75   : 		TYPE* pData;
; 76   : 		UINT_PTR nElementsLeft;
; 77   : 
; 78   : 		nElementsLeft = nCount;

  00073	be 01 00 00 00	 mov	 esi, 1

; 79   : 		pData = pElements;

  00078	8b c1		 mov	 eax, ecx
  0007a	66 0f 1f 44 00
	00		 npad	 6
$LL21@Serialize:

; 85   : 			ar.Write(pData, nElementsToWrite*sizeof(TYPE));

  00080	8b 4d 08	 mov	 ecx, DWORD PTR _ar$[ebp]
  00083	bb ff ff ff 1f	 mov	 ebx, 536870911		; 1fffffffH
  00088	3b f3		 cmp	 esi, ebx
  0008a	0f 42 de	 cmovb	 ebx, esi
  0008d	8d 3c 9d 00 00
	00 00		 lea	 edi, DWORD PTR [ebx*4]
  00094	57		 push	 edi
  00095	50		 push	 eax
  00096	e8 00 00 00 00	 call	 ?Write@CArchive@@QAEXPBXI@Z ; CArchive::Write

; 87   : 			pData += nElementsToWrite;

  0009b	8b 45 fc	 mov	 eax, DWORD PTR _pData$1$[ebp]
  0009e	03 c7		 add	 eax, edi
  000a0	89 45 fc	 mov	 DWORD PTR _pData$1$[ebp], eax
  000a3	2b f3		 sub	 esi, ebx
  000a5	75 d9		 jne	 SHORT $LL21@Serialize
  000a7	8b 75 e4	 mov	 esi, DWORD PTR _pData$1$[ebp]

; 88   : 		}
; 89   : 	}

  000aa	8b 5d 08	 mov	 ebx, DWORD PTR _ar$[ebp]
  000ad	eb 3b		 jmp	 SHORT $LN41@Serialize
$LN26@Serialize:

; 90   : 	else
; 91   : 	{
; 92   : 		TYPE* pData;
; 93   : 		UINT_PTR nElementsLeft;
; 94   : 
; 95   : 		nElementsLeft = nCount;

  000af	bf 01 00 00 00	 mov	 edi, 1

; 96   : 		pData = pElements;

  000b4	8b d1		 mov	 edx, ecx
$LL23@Serialize:

; 101  : 			nElementsToRead = UINT(__min(nElementsLeft, INT_MAX/sizeof(TYPE)));

  000b6	b8 ff ff ff 1f	 mov	 eax, 536870911		; 1fffffffH
; File C:\Program Files (x86)\Microsoft Visual Studio\2019\Community\VC\Tools\MSVC\14.29.30133\atlmfc\include\afx.inl

; 399  : 	UINT nRead=Read(lpBuf, nCount);

  000bb	8b cb		 mov	 ecx, ebx
; File C:\Program Files (x86)\Microsoft Visual Studio\2019\Community\VC\Tools\MSVC\14.29.30133\atlmfc\include\afxtempl.h

; 101  : 			nElementsToRead = UINT(__min(nElementsLeft, INT_MAX/sizeof(TYPE)));

  000bd	3b f8		 cmp	 edi, eax
  000bf	0f 42 c7	 cmovb	 eax, edi
  000c2	89 45 e0	 mov	 DWORD PTR _nElementsToRead$1$[ebp], eax

; 102  : 			ar.EnsureRead(pData, nElementsToRead*sizeof(TYPE));

  000c5	c1 e0 02	 shl	 eax, 2
; File C:\Program Files (x86)\Microsoft Visual Studio\2019\Community\VC\Tools\MSVC\14.29.30133\atlmfc\include\afx.inl

; 399  : 	UINT nRead=Read(lpBuf, nCount);

  000c8	50		 push	 eax
  000c9	52		 push	 edx
; File C:\Program Files (x86)\Microsoft Visual Studio\2019\Community\VC\Tools\MSVC\14.29.30133\atlmfc\include\afxtempl.h

; 102  : 			ar.EnsureRead(pData, nElementsToRead*sizeof(TYPE));

  000ca	89 45 e4	 mov	 DWORD PTR _nCount$1$[ebp], eax
; File C:\Program Files (x86)\Microsoft Visual Studio\2019\Community\VC\Tools\MSVC\14.29.30133\atlmfc\include\afx.inl

; 399  : 	UINT nRead=Read(lpBuf, nCount);

  000cd	e8 00 00 00 00	 call	 ?Read@CArchive@@QAEIPAXI@Z ; CArchive::Read

; 400  : 	if(nRead!=nCount)

  000d2	8b 4d e4	 mov	 ecx, DWORD PTR _nCount$1$[ebp]
  000d5	3b c1		 cmp	 eax, ecx
  000d7	0f 85 2c 03 00
	00		 jne	 $LN165@Serialize
; File C:\Program Files (x86)\Microsoft Visual Studio\2019\Community\VC\Tools\MSVC\14.29.30133\atlmfc\include\afxtempl.h

; 104  : 			pData += nElementsToRead;

  000dd	8b 55 fc	 mov	 edx, DWORD PTR _pData$1$[ebp]
  000e0	03 d1		 add	 edx, ecx
  000e2	89 55 fc	 mov	 DWORD PTR _pData$1$[ebp], edx
  000e5	2b 7d e0	 sub	 edi, DWORD PTR _nElementsToRead$1$[ebp]
  000e8	75 cc		 jne	 SHORT $LL23@Serialize
$LN41@Serialize:

; 68   : 	ENSURE(nCount == 0 || pElements != NULL);

  000ea	85 f6		 test	 esi, esi
  000ec	0f 84 12 03 00
	00		 je	 $LN167@Serialize
; File C:\Program Files (x86)\Microsoft Visual Studio\2019\Community\VC\Tools\MSVC\14.29.30133\atlmfc\include\afx.inl

; 212  : 	{ return (m_nMode & CArchive::load) == 0; }

  000f2	8b 43 18	 mov	 eax, DWORD PTR [ebx+24]
  000f5	f7 d0		 not	 eax
  000f7	a8 01		 test	 al, 1
; File C:\Program Files (x86)\Microsoft Visual Studio\2019\Community\VC\Tools\MSVC\14.29.30133\atlmfc\include\afxtempl.h

; 73   : 	if (ar.IsStoring())

  000f9	74 36		 je	 SHORT $LN47@Serialize

; 74   : 	{
; 75   : 		TYPE* pData;
; 76   : 		UINT_PTR nElementsLeft;
; 77   : 
; 78   : 		nElementsLeft = nCount;

  000fb	b8 01 00 00 00	 mov	 eax, 1
  00100	89 45 fc	 mov	 DWORD PTR _nElementsLeft$1$[ebp], eax
$LL42@Serialize:

; 85   : 			ar.Write(pData, nElementsToWrite*sizeof(TYPE));

  00103	8b 4d 08	 mov	 ecx, DWORD PTR _ar$[ebp]
  00106	bb ff ff ff 1f	 mov	 ebx, 536870911		; 1fffffffH
  0010b	3b c3		 cmp	 eax, ebx
  0010d	0f 42 d8	 cmovb	 ebx, eax
  00110	8d 3c 9d 00 00
	00 00		 lea	 edi, DWORD PTR [ebx*4]
  00117	57		 push	 edi
  00118	56		 push	 esi
  00119	e8 00 00 00 00	 call	 ?Write@CArchive@@QAEXPBXI@Z ; CArchive::Write

; 86   : 			nElementsLeft -= nElementsToWrite;

  0011e	8b 45 fc	 mov	 eax, DWORD PTR _nElementsLeft$1$[ebp]

; 87   : 			pData += nElementsToWrite;

  00121	03 f7		 add	 esi, edi
  00123	2b c3		 sub	 eax, ebx
  00125	89 45 fc	 mov	 DWORD PTR _nElementsLeft$1$[ebp], eax
  00128	85 c0		 test	 eax, eax
  0012a	75 d7		 jne	 SHORT $LL42@Serialize

; 88   : 		}
; 89   : 	}

  0012c	8b 5d 08	 mov	 ebx, DWORD PTR _ar$[ebp]
  0012f	eb 33		 jmp	 SHORT $LN5@Serialize
$LN47@Serialize:

; 90   : 	else
; 91   : 	{
; 92   : 		TYPE* pData;
; 93   : 		UINT_PTR nElementsLeft;
; 94   : 
; 95   : 		nElementsLeft = nCount;

  00131	bf 01 00 00 00	 mov	 edi, 1
$LL44@Serialize:

; 101  : 			nElementsToRead = UINT(__min(nElementsLeft, INT_MAX/sizeof(TYPE)));

  00136	b8 ff ff ff 1f	 mov	 eax, 536870911		; 1fffffffH
; File C:\Program Files (x86)\Microsoft Visual Studio\2019\Community\VC\Tools\MSVC\14.29.30133\atlmfc\include\afx.inl

; 399  : 	UINT nRead=Read(lpBuf, nCount);

  0013b	8b cb		 mov	 ecx, ebx
; File C:\Program Files (x86)\Microsoft Visual Studio\2019\Community\VC\Tools\MSVC\14.29.30133\atlmfc\include\afxtempl.h

; 101  : 			nElementsToRead = UINT(__min(nElementsLeft, INT_MAX/sizeof(TYPE)));

  0013d	3b f8		 cmp	 edi, eax
  0013f	0f 42 c7	 cmovb	 eax, edi
  00142	89 45 e4	 mov	 DWORD PTR _nElementsToRead$1$[ebp], eax

; 102  : 			ar.EnsureRead(pData, nElementsToRead*sizeof(TYPE));

  00145	c1 e0 02	 shl	 eax, 2
; File C:\Program Files (x86)\Microsoft Visual Studio\2019\Community\VC\Tools\MSVC\14.29.30133\atlmfc\include\afx.inl

; 399  : 	UINT nRead=Read(lpBuf, nCount);

  00148	50		 push	 eax
  00149	56		 push	 esi
; File C:\Program Files (x86)\Microsoft Visual Studio\2019\Community\VC\Tools\MSVC\14.29.30133\atlmfc\include\afxtempl.h

; 102  : 			ar.EnsureRead(pData, nElementsToRead*sizeof(TYPE));

  0014a	89 45 e0	 mov	 DWORD PTR _nCount$1$[ebp], eax
; File C:\Program Files (x86)\Microsoft Visual Studio\2019\Community\VC\Tools\MSVC\14.29.30133\atlmfc\include\afx.inl

; 399  : 	UINT nRead=Read(lpBuf, nCount);

  0014d	e8 00 00 00 00	 call	 ?Read@CArchive@@QAEIPAXI@Z ; CArchive::Read

; 400  : 	if(nRead!=nCount)

  00152	8b 4d e0	 mov	 ecx, DWORD PTR _nCount$1$[ebp]
  00155	3b c1		 cmp	 eax, ecx
  00157	0f 85 ac 02 00
	00		 jne	 $LN165@Serialize
; File C:\Program Files (x86)\Microsoft Visual Studio\2019\Community\VC\Tools\MSVC\14.29.30133\atlmfc\include\afxtempl.h

; 103  : 			nElementsLeft -= nElementsToRead;

  0015d	03 f1		 add	 esi, ecx
  0015f	2b 7d e4	 sub	 edi, DWORD PTR _nElementsToRead$1$[ebp]
  00162	75 d2		 jne	 SHORT $LL44@Serialize
$LN5@Serialize:

; 1758 : 			{
; 1759 : 				CAssoc* pAssoc;
; 1760 : 				for (pAssoc = m_pHashTable[nHash]; pAssoc != NULL; pAssoc = pAssoc->pNext)

  00164	8b 4d f8	 mov	 ecx, DWORD PTR _pAssoc$1$[ebp]
  00167	8b 49 08	 mov	 ecx, DWORD PTR [ecx+8]
  0016a	89 4d f8	 mov	 DWORD PTR _pAssoc$1$[ebp], ecx
  0016d	85 c9		 test	 ecx, ecx
  0016f	0f 85 ec fe ff
	ff		 jne	 $LL7@Serialize
  00175	8b 75 e8	 mov	 esi, DWORD PTR _this$1$[ebp]
$LN2@Serialize:

; 1756 : 		{
; 1757 : 			for (UINT nHash = 0; nHash < m_nHashTableSize; nHash++)

  00178	8b 4d f4	 mov	 ecx, DWORD PTR _nHash$1$[ebp]
  0017b	41		 inc	 ecx
  0017c	89 4d f4	 mov	 DWORD PTR _nHash$1$[ebp], ecx
  0017f	3b 4e 08	 cmp	 ecx, DWORD PTR [esi+8]
  00182	0f 82 c8 fe ff
	ff		 jb	 $LL4@Serialize

; 1787 : 		}
; 1788 : 	}
; 1789 : }

  00188	5f		 pop	 edi
  00189	5e		 pop	 esi
  0018a	5b		 pop	 ebx
  0018b	8b e5		 mov	 esp, ebp
  0018d	5d		 pop	 ebp
  0018e	c2 04 00	 ret	 4
$LN10@Serialize:

; 1771 : 					SerializeElements<KEY>(ar, pKey, 1);
; 1772 : 					SerializeElements<VALUE>(ar, pValue, 1);
; 1773 : 				}
; 1774 : 			}
; 1775 : 		}
; 1776 : 	}
; 1777 : 	else
; 1778 : 	{
; 1779 : 		DWORD_PTR nNewCount = ar.ReadCount();

  00191	e8 00 00 00 00	 call	 ?ReadCount@CArchive@@QAEKXZ ; CArchive::ReadCount

; 1780 : 		while (nNewCount--)

  00196	85 c0		 test	 eax, eax
  00198	0f 84 5d 02 00
	00		 je	 $LN189@Serialize
  0019e	66 90		 npad	 2
$LL8@Serialize:
  001a0	48		 dec	 eax
  001a1	89 45 f8	 mov	 DWORD PTR _nNewCount$1$[ebp], eax
; File C:\Program Files (x86)\Microsoft Visual Studio\2019\Community\VC\Tools\MSVC\14.29.30133\atlmfc\include\afx.inl

; 212  : 	{ return (m_nMode & CArchive::load) == 0; }

  001a4	8b 43 18	 mov	 eax, DWORD PTR [ebx+24]
  001a7	f7 d0		 not	 eax
  001a9	a8 01		 test	 al, 1
; File C:\Program Files (x86)\Microsoft Visual Studio\2019\Community\VC\Tools\MSVC\14.29.30133\atlmfc\include\afxtempl.h

; 73   : 	if (ar.IsStoring())

  001ab	74 43		 je	 SHORT $LN67@Serialize

; 74   : 	{
; 75   : 		TYPE* pData;
; 76   : 		UINT_PTR nElementsLeft;
; 77   : 
; 78   : 		nElementsLeft = nCount;

  001ad	b8 01 00 00 00	 mov	 eax, 1

; 79   : 		pData = pElements;

  001b2	8d 4d ec	 lea	 ecx, DWORD PTR _newKey$3[ebp]
  001b5	89 45 08	 mov	 DWORD PTR _nElementsLeft$1$[ebp], eax
  001b8	89 4d f4	 mov	 DWORD PTR _pData$1$[ebp], ecx
  001bb	0f 1f 44 00 00	 npad	 5
$LL62@Serialize:

; 80   : 		while( nElementsLeft > 0 )
; 81   : 		{
; 82   : 			UINT nElementsToWrite;
; 83   : 
; 84   : 			nElementsToWrite = UINT(__min(nElementsLeft, INT_MAX/sizeof(TYPE)));

  001c0	bf ff ff ff 1f	 mov	 edi, 536870911		; 1fffffffH
  001c5	3b c7		 cmp	 eax, edi
  001c7	0f 42 f8	 cmovb	 edi, eax

; 85   : 			ar.Write(pData, nElementsToWrite*sizeof(TYPE));

  001ca	8d 34 bd 00 00
	00 00		 lea	 esi, DWORD PTR [edi*4]
  001d1	56		 push	 esi
  001d2	51		 push	 ecx
  001d3	8b cb		 mov	 ecx, ebx
  001d5	e8 00 00 00 00	 call	 ?Write@CArchive@@QAEXPBXI@Z ; CArchive::Write

; 86   : 			nElementsLeft -= nElementsToWrite;

  001da	8b 45 08	 mov	 eax, DWORD PTR _nElementsLeft$1$[ebp]

; 87   : 			pData += nElementsToWrite;

  001dd	8b 4d f4	 mov	 ecx, DWORD PTR _pData$1$[ebp]
  001e0	2b c7		 sub	 eax, edi
  001e2	03 ce		 add	 ecx, esi
  001e4	89 45 08	 mov	 DWORD PTR _nElementsLeft$1$[ebp], eax
  001e7	89 4d f4	 mov	 DWORD PTR _pData$1$[ebp], ecx
  001ea	85 c0		 test	 eax, eax
  001ec	75 d2		 jne	 SHORT $LL62@Serialize

; 88   : 		}
; 89   : 	}

  001ee	eb 45		 jmp	 SHORT $LN81@Serialize
$LN67@Serialize:

; 96   : 		pData = pElements;

  001f0	8d 55 ec	 lea	 edx, DWORD PTR _newKey$3[ebp]
  001f3	be 01 00 00 00	 mov	 esi, 1
  001f8	89 55 08	 mov	 DWORD PTR _pData$1$[ebp], edx
  001fb	0f 1f 44 00 00	 npad	 5
$LL64@Serialize:

; 101  : 			nElementsToRead = UINT(__min(nElementsLeft, INT_MAX/sizeof(TYPE)));

  00200	bf ff ff ff 1f	 mov	 edi, 536870911		; 1fffffffH
; File C:\Program Files (x86)\Microsoft Visual Studio\2019\Community\VC\Tools\MSVC\14.29.30133\atlmfc\include\afx.inl

; 399  : 	UINT nRead=Read(lpBuf, nCount);

  00205	8b cb		 mov	 ecx, ebx
; File C:\Program Files (x86)\Microsoft Visual Studio\2019\Community\VC\Tools\MSVC\14.29.30133\atlmfc\include\afxtempl.h

; 101  : 			nElementsToRead = UINT(__min(nElementsLeft, INT_MAX/sizeof(TYPE)));

  00207	3b f7		 cmp	 esi, edi
  00209	0f 42 fe	 cmovb	 edi, esi

; 102  : 			ar.EnsureRead(pData, nElementsToRead*sizeof(TYPE));

  0020c	8d 04 bd 00 00
	00 00		 lea	 eax, DWORD PTR [edi*4]
; File C:\Program Files (x86)\Microsoft Visual Studio\2019\Community\VC\Tools\MSVC\14.29.30133\atlmfc\include\afx.inl

; 399  : 	UINT nRead=Read(lpBuf, nCount);

  00213	50		 push	 eax
  00214	52		 push	 edx
  00215	e8 00 00 00 00	 call	 ?Read@CArchive@@QAEIPAXI@Z ; CArchive::Read

; 400  : 	if(nRead!=nCount)

  0021a	8d 0c bd 00 00
	00 00		 lea	 ecx, DWORD PTR [edi*4]
  00221	3b c1		 cmp	 eax, ecx
  00223	0f 85 e0 01 00
	00		 jne	 $LN165@Serialize
; File C:\Program Files (x86)\Microsoft Visual Studio\2019\Community\VC\Tools\MSVC\14.29.30133\atlmfc\include\afxtempl.h

; 104  : 			pData += nElementsToRead;

  00229	8b 55 08	 mov	 edx, DWORD PTR _pData$1$[ebp]
  0022c	03 d1		 add	 edx, ecx
  0022e	89 55 08	 mov	 DWORD PTR _pData$1$[ebp], edx
  00231	2b f7		 sub	 esi, edi
  00233	75 cb		 jne	 SHORT $LL64@Serialize
$LN81@Serialize:
; File C:\Program Files (x86)\Microsoft Visual Studio\2019\Community\VC\Tools\MSVC\14.29.30133\atlmfc\include\afx.inl

; 212  : 	{ return (m_nMode & CArchive::load) == 0; }

  00235	8b 43 18	 mov	 eax, DWORD PTR [ebx+24]
  00238	f7 d0		 not	 eax
  0023a	a8 01		 test	 al, 1
; File C:\Program Files (x86)\Microsoft Visual Studio\2019\Community\VC\Tools\MSVC\14.29.30133\atlmfc\include\afxtempl.h

; 73   : 	if (ar.IsStoring())

  0023c	74 42		 je	 SHORT $LN87@Serialize

; 74   : 	{
; 75   : 		TYPE* pData;
; 76   : 		UINT_PTR nElementsLeft;
; 77   : 
; 78   : 		nElementsLeft = nCount;

  0023e	b8 01 00 00 00	 mov	 eax, 1

; 79   : 		pData = pElements;

  00243	8d 4d f0	 lea	 ecx, DWORD PTR _newValue$4[ebp]
  00246	89 45 08	 mov	 DWORD PTR _nElementsLeft$1$[ebp], eax
  00249	89 4d f4	 mov	 DWORD PTR _pData$1$[ebp], ecx
  0024c	0f 1f 40 00	 npad	 4
$LL82@Serialize:

; 80   : 		while( nElementsLeft > 0 )
; 81   : 		{
; 82   : 			UINT nElementsToWrite;
; 83   : 
; 84   : 			nElementsToWrite = UINT(__min(nElementsLeft, INT_MAX/sizeof(TYPE)));

  00250	bf ff ff ff 1f	 mov	 edi, 536870911		; 1fffffffH
  00255	3b c7		 cmp	 eax, edi
  00257	0f 42 f8	 cmovb	 edi, eax

; 85   : 			ar.Write(pData, nElementsToWrite*sizeof(TYPE));

  0025a	8d 34 bd 00 00
	00 00		 lea	 esi, DWORD PTR [edi*4]
  00261	56		 push	 esi
  00262	51		 push	 ecx
  00263	8b cb		 mov	 ecx, ebx
  00265	e8 00 00 00 00	 call	 ?Write@CArchive@@QAEXPBXI@Z ; CArchive::Write

; 86   : 			nElementsLeft -= nElementsToWrite;

  0026a	8b 45 08	 mov	 eax, DWORD PTR _nElementsLeft$1$[ebp]

; 87   : 			pData += nElementsToWrite;

  0026d	8b 4d f4	 mov	 ecx, DWORD PTR _pData$1$[ebp]
  00270	2b c7		 sub	 eax, edi
  00272	03 ce		 add	 ecx, esi
  00274	89 45 08	 mov	 DWORD PTR _nElementsLeft$1$[ebp], eax
  00277	89 4d f4	 mov	 DWORD PTR _pData$1$[ebp], ecx
  0027a	85 c0		 test	 eax, eax
  0027c	75 d2		 jne	 SHORT $LL82@Serialize

; 88   : 		}
; 89   : 	}

  0027e	eb 45		 jmp	 SHORT $LN85@Serialize
$LN87@Serialize:

; 96   : 		pData = pElements;

  00280	8d 55 f0	 lea	 edx, DWORD PTR _newValue$4[ebp]
  00283	be 01 00 00 00	 mov	 esi, 1
  00288	89 55 08	 mov	 DWORD PTR _pData$1$[ebp], edx
  0028b	0f 1f 44 00 00	 npad	 5
$LL84@Serialize:

; 101  : 			nElementsToRead = UINT(__min(nElementsLeft, INT_MAX/sizeof(TYPE)));

  00290	bf ff ff ff 1f	 mov	 edi, 536870911		; 1fffffffH
; File C:\Program Files (x86)\Microsoft Visual Studio\2019\Community\VC\Tools\MSVC\14.29.30133\atlmfc\include\afx.inl

; 399  : 	UINT nRead=Read(lpBuf, nCount);

  00295	8b cb		 mov	 ecx, ebx
; File C:\Program Files (x86)\Microsoft Visual Studio\2019\Community\VC\Tools\MSVC\14.29.30133\atlmfc\include\afxtempl.h

; 101  : 			nElementsToRead = UINT(__min(nElementsLeft, INT_MAX/sizeof(TYPE)));

  00297	3b f7		 cmp	 esi, edi
  00299	0f 42 fe	 cmovb	 edi, esi

; 102  : 			ar.EnsureRead(pData, nElementsToRead*sizeof(TYPE));

  0029c	8d 04 bd 00 00
	00 00		 lea	 eax, DWORD PTR [edi*4]
; File C:\Program Files (x86)\Microsoft Visual Studio\2019\Community\VC\Tools\MSVC\14.29.30133\atlmfc\include\afx.inl

; 399  : 	UINT nRead=Read(lpBuf, nCount);

  002a3	50		 push	 eax
  002a4	52		 push	 edx
  002a5	e8 00 00 00 00	 call	 ?Read@CArchive@@QAEIPAXI@Z ; CArchive::Read

; 400  : 	if(nRead!=nCount)

  002aa	8d 0c bd 00 00
	00 00		 lea	 ecx, DWORD PTR [edi*4]
  002b1	3b c1		 cmp	 eax, ecx
  002b3	0f 85 50 01 00
	00		 jne	 $LN165@Serialize
; File C:\Program Files (x86)\Microsoft Visual Studio\2019\Community\VC\Tools\MSVC\14.29.30133\atlmfc\include\afxtempl.h

; 104  : 			pData += nElementsToRead;

  002b9	8b 55 08	 mov	 edx, DWORD PTR _pData$1$[ebp]
  002bc	03 d1		 add	 edx, ecx
  002be	89 55 08	 mov	 DWORD PTR _pData$1$[ebp], edx
  002c1	2b f7		 sub	 esi, edi
  002c3	75 cb		 jne	 SHORT $LL84@Serialize
$LN85@Serialize:

; 1781 : 		{
; 1782 : 			KEY newKey[1];
; 1783 : 			VALUE newValue[1];
; 1784 : 			SerializeElements<KEY>(ar, newKey, 1);
; 1785 : 			SerializeElements<VALUE>(ar, newValue, 1);
; 1786 : 			SetAt(newKey[0], newValue[0]);

  002c5	8b 45 f0	 mov	 eax, DWORD PTR _newValue$4[ebp]
  002c8	b9 1d f3 01 00	 mov	 ecx, 127773		; 0001f31dH
  002cd	89 45 e4	 mov	 DWORD PTR _newValue$1$[ebp], eax
  002d0	8b 45 ec	 mov	 eax, DWORD PTR _newKey$3[ebp]
  002d3	89 45 f4	 mov	 DWORD PTR _key$1$[ebp], eax
  002d6	99		 cdq
  002d7	f7 f9		 idiv	 ecx

; 1534 : 	nHashBucket = nHashValue % m_nHashTableSize;

  002d9	8b 75 e8	 mov	 esi, DWORD PTR _this$1$[ebp]

; 166  : 	HashVal.rem = 16807 * HashVal.rem - 2836 * HashVal.quot;

  002dc	69 c0 14 0b 00
	00		 imul	 eax, eax, 2836
  002e2	69 ca a7 41 00
	00		 imul	 ecx, edx, 16807
  002e8	2b c8		 sub	 ecx, eax

; 1534 : 	nHashBucket = nHashValue % m_nHashTableSize;

  002ea	8d b9 ff ff ff
	7f		 lea	 edi, DWORD PTR [ecx+2147483647]
  002f0	0f 49 f9	 cmovns	 edi, ecx
  002f3	8b 4e 08	 mov	 ecx, DWORD PTR [esi+8]
  002f6	33 d2		 xor	 edx, edx
  002f8	89 4d 08	 mov	 DWORD PTR _nHashSize$1$[ebp], ecx
  002fb	8b c7		 mov	 eax, edi
  002fd	f7 f1		 div	 ecx

; 1535 : 
; 1536 : 	if (m_pHashTable == NULL)

  002ff	8b 4e 04	 mov	 ecx, DWORD PTR [esi+4]
  00302	8b c2		 mov	 eax, edx
  00304	89 45 e0	 mov	 DWORD PTR _nHashBucket$1$[ebp], eax
  00307	85 c9		 test	 ecx, ecx
  00309	75 49		 jne	 SHORT $LN112@Serialize

; 1434 : 		m_pHashTable = new CAssoc* [nHashSize];

  0030b	8b 45 08	 mov	 eax, DWORD PTR _nHashSize$1$[ebp]
  0030e	ba 04 00 00 00	 mov	 edx, 4
  00313	f7 e2		 mul	 edx
  00315	0f 90 c1	 seto	 cl
  00318	f7 d9		 neg	 ecx
  0031a	0b c8		 or	 ecx, eax
  0031c	51		 push	 ecx
  0031d	e8 00 00 00 00	 call	 ??_U@YAPAXI@Z		; operator new[]
  00322	83 c4 04	 add	 esp, 4
  00325	89 46 04	 mov	 DWORD PTR [esi+4], eax

; 1435 : 		ENSURE(m_pHashTable != NULL);

  00328	85 c0		 test	 eax, eax
  0032a	0f 84 d4 00 00
	00		 je	 $LN167@Serialize

; 1436 : 		memset(m_pHashTable, 0, sizeof(CAssoc*) * nHashSize);

  00330	8b 4d 08	 mov	 ecx, DWORD PTR _nHashSize$1$[ebp]
  00333	c1 e1 02	 shl	 ecx, 2
  00336	51		 push	 ecx
  00337	6a 00		 push	 0
  00339	50		 push	 eax
  0033a	e8 00 00 00 00	 call	 _memset

; 1437 : 	}
; 1438 : 	m_nHashTableSize = nHashSize;

  0033f	8b 45 08	 mov	 eax, DWORD PTR _nHashSize$1$[ebp]
  00342	83 c4 0c	 add	 esp, 12			; 0000000cH

; 1595 : 		ENSURE(m_pHashTable);

  00345	83 7e 04 00	 cmp	 DWORD PTR [esi+4], 0

; 1438 : 	m_nHashTableSize = nHashSize;

  00349	89 46 08	 mov	 DWORD PTR [esi+8], eax

; 1595 : 		ENSURE(m_pHashTable);

  0034c	0f 84 b2 00 00
	00		 je	 $LN167@Serialize
  00352	eb 20		 jmp	 SHORT $LN225@Serialize
$LN112@Serialize:

; 1541 : 	for (pAssoc = m_pHashTable[nHashBucket]; pAssoc != NULL; pAssoc = pAssoc->pNext)

  00354	8b 0c 81	 mov	 ecx, DWORD PTR [ecx+eax*4]
  00357	85 c9		 test	 ecx, ecx
  00359	74 19		 je	 SHORT $LN225@Serialize
  0035b	8b 45 f4	 mov	 eax, DWORD PTR _key$1$[ebp]
  0035e	66 90		 npad	 2
$LL111@Serialize:

; 1542 : 	{
; 1543 : 		if (pAssoc->nHashValue == nHashValue && CompareElements(&pAssoc->key, &key))

  00360	39 79 0c	 cmp	 DWORD PTR [ecx+12], edi
  00363	75 08		 jne	 SHORT $LN109@Serialize

; 156  : 	return *pElement1 == *pElement2;

  00365	39 01		 cmp	 DWORD PTR [ecx], eax

; 1543 : 		if (pAssoc->nHashValue == nHashValue && CompareElements(&pAssoc->key, &key))

  00367	0f 84 7d 00 00
	00		 je	 $LN104@Serialize
$LN109@Serialize:

; 1537 : 		return NULL;
; 1538 : 
; 1539 : 	// see if it exists
; 1540 : 	CAssoc* pAssoc;
; 1541 : 	for (pAssoc = m_pHashTable[nHashBucket]; pAssoc != NULL; pAssoc = pAssoc->pNext)

  0036d	8b 49 08	 mov	 ecx, DWORD PTR [ecx+8]
  00370	85 c9		 test	 ecx, ecx
  00372	75 ec		 jne	 SHORT $LL111@Serialize
$LN225@Serialize:

; 1481 : 	if (m_pFreeList == NULL)

  00374	83 7e 10 00	 cmp	 DWORD PTR [esi+16], 0
  00378	75 37		 jne	 SHORT $LN142@Serialize

; 1482 : 	{
; 1483 : 		// add another block
; 1484 : 		CPlex* newBlock = CPlex::Create(m_pBlocks, m_nBlockSize, sizeof(CMap::CAssoc));

  0037a	6a 10		 push	 16			; 00000010H
  0037c	ff 76 18	 push	 DWORD PTR [esi+24]
  0037f	8d 46 14	 lea	 eax, DWORD PTR [esi+20]
  00382	50		 push	 eax
  00383	e8 00 00 00 00	 call	 ?Create@CPlex@@SGPAU1@AAPAU1@II@Z ; CPlex::Create

; 1485 : 		// chain them into free list
; 1486 : 		CMap::CAssoc* pAssoc = (CMap::CAssoc*) newBlock->data();
; 1487 : 		// free in reverse order to make it easier to debug
; 1488 : 		pAssoc += m_nBlockSize - 1;

  00388	8b 56 18	 mov	 edx, DWORD PTR [esi+24]
  0038b	83 c0 08	 add	 eax, 8
  0038e	8b ca		 mov	 ecx, edx
  00390	c1 e1 04	 shl	 ecx, 4
  00393	83 c1 f0	 add	 ecx, -16		; fffffff0H
  00396	03 c8		 add	 ecx, eax

; 1489 : 		for (INT_PTR i = m_nBlockSize-1; i >= 0; i--, pAssoc--)

  00398	83 c2 ff	 add	 edx, -1
  0039b	78 14		 js	 SHORT $LN142@Serialize
  0039d	0f 1f 00	 npad	 3
$LL139@Serialize:

; 1490 : 		{
; 1491 : 			pAssoc->pNext = m_pFreeList;

  003a0	8b 46 10	 mov	 eax, DWORD PTR [esi+16]
  003a3	89 41 08	 mov	 DWORD PTR [ecx+8], eax

; 1492 : 			m_pFreeList = pAssoc;

  003a6	89 4e 10	 mov	 DWORD PTR [esi+16], ecx
  003a9	83 e9 10	 sub	 ecx, 16			; 00000010H
  003ac	83 ea 01	 sub	 edx, 1
  003af	79 ef		 jns	 SHORT $LL139@Serialize
$LN142@Serialize:

; 1493 : 		}
; 1494 : 	}
; 1495 : 	ENSURE(m_pFreeList != NULL);  // we must have something

  003b1	8b 4e 10	 mov	 ecx, DWORD PTR [esi+16]
  003b4	85 c9		 test	 ecx, ecx
  003b6	74 4c		 je	 SHORT $LN167@Serialize

; 1496 : 
; 1497 : 	CMap::CAssoc* pAssoc = m_pFreeList;
; 1498 : 
; 1499 : 	// zero the memory
; 1500 : 	CMap::CAssoc* pTemp = pAssoc->pNext;

  003b8	8b 41 08	 mov	 eax, DWORD PTR [ecx+8]
  003bb	0f 57 c0	 xorps	 xmm0, xmm0

; 1602 : 		pAssoc->pNext = m_pHashTable[nHashBucket];

  003be	8b 55 e0	 mov	 edx, DWORD PTR _nHashBucket$1$[ebp]

; 1501 : 	memset( pAssoc, 0, sizeof(CMap::CAssoc) );

  003c1	0f 11 01	 movups	 XMMWORD PTR [ecx], xmm0

; 1502 : 	pAssoc->pNext = pTemp;

  003c4	89 41 08	 mov	 DWORD PTR [ecx+8], eax

; 1503 : 
; 1504 : 	m_pFreeList = m_pFreeList->pNext;

  003c7	8b 46 10	 mov	 eax, DWORD PTR [esi+16]
  003ca	8b 40 08	 mov	 eax, DWORD PTR [eax+8]

; 1505 : 	m_nCount++;

  003cd	ff 46 0c	 inc	 DWORD PTR [esi+12]
  003d0	89 46 10	 mov	 DWORD PTR [esi+16], eax

; 1256 : 		CPair( ARG_KEY keyval ) : key( keyval )	{}

  003d3	8b 45 f4	 mov	 eax, DWORD PTR _key$1$[ebp]
  003d6	89 01		 mov	 DWORD PTR [ecx], eax

; 1598 : 		pAssoc->nHashValue = nHashValue;

  003d8	89 79 0c	 mov	 DWORD PTR [ecx+12], edi

; 1599 : 		//'pAssoc->value' is a constructed object, nothing more
; 1600 : 
; 1601 : 		// put into hash table
; 1602 : 		pAssoc->pNext = m_pHashTable[nHashBucket];

  003db	8b 46 04	 mov	 eax, DWORD PTR [esi+4]
  003de	8b 04 90	 mov	 eax, DWORD PTR [eax+edx*4]
  003e1	89 41 08	 mov	 DWORD PTR [ecx+8], eax

; 1603 : 		m_pHashTable[nHashBucket] = pAssoc;

  003e4	8b 46 04	 mov	 eax, DWORD PTR [esi+4]
  003e7	89 0c 90	 mov	 DWORD PTR [eax+edx*4], ecx
$LN104@Serialize:

; 1350 : 	{ (*this)[key] = newValue; }

  003ea	8b 45 e4	 mov	 eax, DWORD PTR _newValue$1$[ebp]
  003ed	89 41 04	 mov	 DWORD PTR [ecx+4], eax

; 1780 : 		while (nNewCount--)

  003f0	8b 45 f8	 mov	 eax, DWORD PTR _nNewCount$1$[ebp]
  003f3	85 c0		 test	 eax, eax
  003f5	0f 85 a5 fd ff
	ff		 jne	 $LL8@Serialize
$LN189@Serialize:
  003fb	5f		 pop	 edi

; 1787 : 		}
; 1788 : 	}
; 1789 : }

  003fc	5e		 pop	 esi
  003fd	5b		 pop	 ebx
  003fe	8b e5		 mov	 esp, ebp
  00400	5d		 pop	 ebp
  00401	c2 04 00	 ret	 4
$LN167@Serialize:
  00404	e8 00 00 00 00	 call	 ?AfxThrowInvalidArgException@@YGXXZ ; AfxThrowInvalidArgException
$LN165@Serialize:
  00409	6a 00		 push	 0
  0040b	6a 03		 push	 3
  0040d	e8 00 00 00 00	 call	 ?AfxThrowArchiveException@@YGXHPBD@Z ; AfxThrowArchiveException
$LN226@Serialize:
  00412	cc		 int	 3
?Serialize@?$CMap@PAVCConfirmWnd@@PAV1@JJ@@UAEXAAVCArchive@@@Z ENDP ; CMap<CConfirmWnd *,CConfirmWnd *,long,long>::Serialize
_TEXT	ENDS
; Function compile flags: /Ogtp
; File C:\Program Files (x86)\Microsoft Visual Studio\2019\Community\VC\Tools\MSVC\14.29.30133\atlmfc\include\afxtempl.h
;	COMDAT ??1?$CMap@PAVCConfirmWnd@@PAV1@JJ@@UAE@XZ
_TEXT	SEGMENT
__$EHRec$ = -12						; size = 12
??1?$CMap@PAVCConfirmWnd@@PAV1@JJ@@UAE@XZ PROC		; CMap<CConfirmWnd *,CConfirmWnd *,long,long>::~CMap<CConfirmWnd *,CConfirmWnd *,long,long>, COMDAT
; _this$ = ecx

; 1472 : {

  00000	55		 push	 ebp
  00001	8b ec		 mov	 ebp, esp
  00003	6a ff		 push	 -1
  00005	68 00 00 00 00	 push	 __ehhandler$??1?$CMap@PAVCConfirmWnd@@PAV1@JJ@@UAE@XZ
  0000a	64 a1 00 00 00
	00		 mov	 eax, DWORD PTR fs:0
  00010	50		 push	 eax
  00011	56		 push	 esi
  00012	a1 00 00 00 00	 mov	 eax, DWORD PTR ___security_cookie
  00017	33 c5		 xor	 eax, ebp
  00019	50		 push	 eax
  0001a	8d 45 f4	 lea	 eax, DWORD PTR __$EHRec$[ebp]
  0001d	64 a3 00 00 00
	00		 mov	 DWORD PTR fs:0, eax
  00023	8b f1		 mov	 esi, ecx

; 1446 : 	if (m_pHashTable != NULL)

  00025	8b 46 04	 mov	 eax, DWORD PTR [esi+4]

; 1472 : {

  00028	c7 06 00 00 00
	00		 mov	 DWORD PTR [esi], OFFSET ??_7?$CMap@PAVCConfirmWnd@@PAV1@JJ@@6B@

; 1446 : 	if (m_pHashTable != NULL)

  0002e	85 c0		 test	 eax, eax
  00030	74 10		 je	 SHORT $LN10@CMap

; 1447 : 	{
; 1448 : 		// destroy elements (values and keys)
; 1449 : 		for (UINT nHash = 0; nHash < m_nHashTableSize; nHash++)
; 1450 : 		{
; 1451 : 			CAssoc* pAssoc;
; 1452 : 			for (pAssoc = m_pHashTable[nHash]; pAssoc != NULL;
; 1453 : 			  pAssoc = pAssoc->pNext)
; 1454 : 			{
; 1455 : 				pAssoc->CAssoc::~CAssoc();
; 1456 : 			}
; 1457 : 		}
; 1458 : 
; 1459 : 		// free hash table
; 1460 : 		delete[] m_pHashTable;

  00032	50		 push	 eax
  00033	e8 00 00 00 00	 call	 ??_V@YAXPAX@Z		; operator delete[]
  00038	83 c4 04	 add	 esp, 4

; 1461 : 		m_pHashTable = NULL;

  0003b	c7 46 04 00 00
	00 00		 mov	 DWORD PTR [esi+4], 0
$LN10@CMap:

; 1462 : 	}
; 1463 : 
; 1464 : 	m_nCount = 0;
; 1465 : 	m_pFreeList = NULL;
; 1466 : 	m_pBlocks->FreeDataChain();

  00042	8b 4e 14	 mov	 ecx, DWORD PTR [esi+20]
  00045	c7 46 0c 00 00
	00 00		 mov	 DWORD PTR [esi+12], 0
  0004c	c7 46 10 00 00
	00 00		 mov	 DWORD PTR [esi+16], 0
  00053	e8 00 00 00 00	 call	 ?FreeDataChain@CPlex@@QAEXXZ ; CPlex::FreeDataChain

; 1467 : 	m_pBlocks = NULL;

  00058	c7 46 14 00 00
	00 00		 mov	 DWORD PTR [esi+20], 0

; 1473 : 	RemoveAll();
; 1474 : 	ASSERT(m_nCount == 0);
; 1475 : }

  0005f	8b 4d f4	 mov	 ecx, DWORD PTR __$EHRec$[ebp]
  00062	64 89 0d 00 00
	00 00		 mov	 DWORD PTR fs:0, ecx
  00069	59		 pop	 ecx
  0006a	5e		 pop	 esi
  0006b	8b e5		 mov	 esp, ebp
  0006d	5d		 pop	 ebp
  0006e	c3		 ret	 0
  0006f	cc		 int	 3
  00070	cc		 int	 3
  00071	cc		 int	 3
  00072	cc		 int	 3
  00073	cc		 int	 3
_TEXT	ENDS
;	COMDAT text$x
text$x	SEGMENT
__ehhandler$??1?$CMap@PAVCConfirmWnd@@PAV1@JJ@@UAE@XZ:
  00000	90		 npad	 1
  00001	90		 npad	 1
  00002	8b 54 24 08	 mov	 edx, DWORD PTR [esp+8]
  00006	8d 42 0c	 lea	 eax, DWORD PTR [edx+12]
  00009	8b 4a f8	 mov	 ecx, DWORD PTR [edx-8]
  0000c	33 c8		 xor	 ecx, eax
  0000e	e8 00 00 00 00	 call	 @__security_check_cookie@4
  00013	b8 00 00 00 00	 mov	 eax, OFFSET __ehfuncinfo$??1?$CMap@PAVCConfirmWnd@@PAV1@JJ@@UAE@XZ
  00018	e9 00 00 00 00	 jmp	 ___CxxFrameHandler3
text$x	ENDS
??1?$CMap@PAVCConfirmWnd@@PAV1@JJ@@UAE@XZ ENDP		; CMap<CConfirmWnd *,CConfirmWnd *,long,long>::~CMap<CConfirmWnd *,CConfirmWnd *,long,long>
; Function compile flags: /Ogtp
; File C:\Program Files (x86)\Microsoft Visual Studio\2019\Community\VC\Tools\MSVC\14.29.30133\atlmfc\include\afxtempl.h
;	COMDAT ?GetAssocAt@?$CMap@PAVCConfirmWnd@@PAV1@JJ@@IBEPAVCAssoc@1@PAVCConfirmWnd@@AAI1@Z
_TEXT	SEGMENT
_key$ = 8						; size = 4
_nHashBucket$ = 12					; size = 4
_nHashValue$ = 16					; size = 4
?GetAssocAt@?$CMap@PAVCConfirmWnd@@PAV1@JJ@@IBEPAVCAssoc@1@PAVCConfirmWnd@@AAI1@Z PROC ; CMap<CConfirmWnd *,CConfirmWnd *,long,long>::GetAssocAt, COMDAT
; _this$ = ecx

; 1532 : {

  00000	55		 push	 ebp
  00001	8b ec		 mov	 ebp, esp
  00003	56		 push	 esi
  00004	8b f1		 mov	 esi, ecx

; 165  : 	ldiv_t HashVal = ldiv((long)(ARG_KEY)key, 127773);

  00006	b9 1d f3 01 00	 mov	 ecx, 127773		; 0001f31dH

; 1532 : {

  0000b	57		 push	 edi

; 165  : 	ldiv_t HashVal = ldiv((long)(ARG_KEY)key, 127773);

  0000c	8b 7d 08	 mov	 edi, DWORD PTR _key$[ebp]
  0000f	8b c7		 mov	 eax, edi
  00011	99		 cdq
  00012	f7 f9		 idiv	 ecx

; 166  : 	HashVal.rem = 16807 * HashVal.rem - 2836 * HashVal.quot;

  00014	69 c0 14 0b 00
	00		 imul	 eax, eax, 2836
  0001a	69 ca a7 41 00
	00		 imul	 ecx, edx, 16807
  00020	2b c8		 sub	 ecx, eax

; 1533 : 	nHashValue = HashKey<ARG_KEY>(key);

  00022	8d 81 ff ff ff
	7f		 lea	 eax, DWORD PTR [ecx+2147483647]
  00028	0f 49 c1	 cmovns	 eax, ecx
  0002b	8b 4d 10	 mov	 ecx, DWORD PTR _nHashValue$[ebp]

; 1534 : 	nHashBucket = nHashValue % m_nHashTableSize;

  0002e	33 d2		 xor	 edx, edx
  00030	89 01		 mov	 DWORD PTR [ecx], eax
  00032	f7 76 08	 div	 DWORD PTR [esi+8]
  00035	8b 45 0c	 mov	 eax, DWORD PTR _nHashBucket$[ebp]
  00038	89 10		 mov	 DWORD PTR [eax], edx

; 1535 : 
; 1536 : 	if (m_pHashTable == NULL)

  0003a	8b 46 04	 mov	 eax, DWORD PTR [esi+4]
  0003d	85 c0		 test	 eax, eax
  0003f	74 1f		 je	 SHORT $LN26@GetAssocAt

; 1537 : 		return NULL;
; 1538 : 
; 1539 : 	// see if it exists
; 1540 : 	CAssoc* pAssoc;
; 1541 : 	for (pAssoc = m_pHashTable[nHashBucket]; pAssoc != NULL; pAssoc = pAssoc->pNext)

  00041	8b 04 90	 mov	 eax, DWORD PTR [eax+edx*4]
  00044	85 c0		 test	 eax, eax
  00046	74 18		 je	 SHORT $LN26@GetAssocAt

; 1542 : 	{
; 1543 : 		if (pAssoc->nHashValue == nHashValue && CompareElements(&pAssoc->key, &key))

  00048	8b 09		 mov	 ecx, DWORD PTR [ecx]
  0004a	66 0f 1f 44 00
	00		 npad	 6
$LL4@GetAssocAt:
  00050	39 48 0c	 cmp	 DWORD PTR [eax+12], ecx
  00053	75 04		 jne	 SHORT $LN2@GetAssocAt

; 156  : 	return *pElement1 == *pElement2;

  00055	39 38		 cmp	 DWORD PTR [eax], edi

; 1542 : 	{
; 1543 : 		if (pAssoc->nHashValue == nHashValue && CompareElements(&pAssoc->key, &key))

  00057	74 09		 je	 SHORT $LN1@GetAssocAt
$LN2@GetAssocAt:

; 1537 : 		return NULL;
; 1538 : 
; 1539 : 	// see if it exists
; 1540 : 	CAssoc* pAssoc;
; 1541 : 	for (pAssoc = m_pHashTable[nHashBucket]; pAssoc != NULL; pAssoc = pAssoc->pNext)

  00059	8b 40 08	 mov	 eax, DWORD PTR [eax+8]
  0005c	85 c0		 test	 eax, eax
  0005e	75 f0		 jne	 SHORT $LL4@GetAssocAt
$LN26@GetAssocAt:

; 1544 : 			return pAssoc;
; 1545 : 	}
; 1546 : 	return NULL;

  00060	33 c0		 xor	 eax, eax
$LN1@GetAssocAt:
  00062	5f		 pop	 edi

; 1547 : }

  00063	5e		 pop	 esi
  00064	5d		 pop	 ebp
  00065	c2 0c 00	 ret	 12			; 0000000cH
?GetAssocAt@?$CMap@PAVCConfirmWnd@@PAV1@JJ@@IBEPAVCAssoc@1@PAVCConfirmWnd@@AAI1@Z ENDP ; CMap<CConfirmWnd *,CConfirmWnd *,long,long>::GetAssocAt
_TEXT	ENDS
; Function compile flags: /Ogtp
; File C:\Program Files (x86)\Microsoft Visual Studio\2019\Community\VC\Tools\MSVC\14.29.30133\atlmfc\include\afxtempl.h
;	COMDAT ?FreeAssoc@?$CMap@PAVCConfirmWnd@@PAV1@JJ@@IAEXPAVCAssoc@1@@Z
_TEXT	SEGMENT
_pAssoc$ = 8						; size = 4
?FreeAssoc@?$CMap@PAVCConfirmWnd@@PAV1@JJ@@IAEXPAVCAssoc@1@@Z PROC ; CMap<CConfirmWnd *,CConfirmWnd *,long,long>::FreeAssoc, COMDAT
; _this$ = ecx

; 1516 : {

  00000	55		 push	 ebp
  00001	8b ec		 mov	 ebp, esp

; 1517 : 	pAssoc->CAssoc::~CAssoc();
; 1518 : 	pAssoc->pNext = m_pFreeList;

  00003	8b 55 08	 mov	 edx, DWORD PTR _pAssoc$[ebp]
  00006	56		 push	 esi
  00007	8b f1		 mov	 esi, ecx
  00009	8b 46 10	 mov	 eax, DWORD PTR [esi+16]
  0000c	89 42 08	 mov	 DWORD PTR [edx+8], eax

; 1519 : 	m_pFreeList = pAssoc;
; 1520 : 	m_nCount--;

  0000f	83 46 0c ff	 add	 DWORD PTR [esi+12], -1
  00013	89 56 10	 mov	 DWORD PTR [esi+16], edx

; 1521 : 	ASSERT(m_nCount >= 0);  // make sure we don't underflow
; 1522 : 
; 1523 : 	// if no more elements, cleanup completely
; 1524 : 	if (m_nCount == 0)

  00016	75 34		 jne	 SHORT $LN2@FreeAssoc

; 1446 : 	if (m_pHashTable != NULL)

  00018	8b 46 04	 mov	 eax, DWORD PTR [esi+4]
  0001b	85 c0		 test	 eax, eax
  0001d	74 10		 je	 SHORT $LN11@FreeAssoc

; 1447 : 	{
; 1448 : 		// destroy elements (values and keys)
; 1449 : 		for (UINT nHash = 0; nHash < m_nHashTableSize; nHash++)
; 1450 : 		{
; 1451 : 			CAssoc* pAssoc;
; 1452 : 			for (pAssoc = m_pHashTable[nHash]; pAssoc != NULL;
; 1453 : 			  pAssoc = pAssoc->pNext)
; 1454 : 			{
; 1455 : 				pAssoc->CAssoc::~CAssoc();
; 1456 : 			}
; 1457 : 		}
; 1458 : 
; 1459 : 		// free hash table
; 1460 : 		delete[] m_pHashTable;

  0001f	50		 push	 eax
  00020	e8 00 00 00 00	 call	 ??_V@YAXPAX@Z		; operator delete[]
  00025	83 c4 04	 add	 esp, 4

; 1461 : 		m_pHashTable = NULL;

  00028	c7 46 04 00 00
	00 00		 mov	 DWORD PTR [esi+4], 0
$LN11@FreeAssoc:

; 1462 : 	}
; 1463 : 
; 1464 : 	m_nCount = 0;
; 1465 : 	m_pFreeList = NULL;
; 1466 : 	m_pBlocks->FreeDataChain();

  0002f	8b 4e 14	 mov	 ecx, DWORD PTR [esi+20]
  00032	c7 46 0c 00 00
	00 00		 mov	 DWORD PTR [esi+12], 0
  00039	c7 46 10 00 00
	00 00		 mov	 DWORD PTR [esi+16], 0
  00040	e8 00 00 00 00	 call	 ?FreeDataChain@CPlex@@QAEXXZ ; CPlex::FreeDataChain

; 1467 : 	m_pBlocks = NULL;

  00045	c7 46 14 00 00
	00 00		 mov	 DWORD PTR [esi+20], 0
$LN2@FreeAssoc:
  0004c	5e		 pop	 esi

; 1525 : 		RemoveAll();
; 1526 : }

  0004d	5d		 pop	 ebp
  0004e	c2 04 00	 ret	 4
?FreeAssoc@?$CMap@PAVCConfirmWnd@@PAV1@JJ@@IAEXPAVCAssoc@1@@Z ENDP ; CMap<CConfirmWnd *,CConfirmWnd *,long,long>::FreeAssoc
_TEXT	ENDS
; Function compile flags: /Ogtp
; File C:\Program Files (x86)\Microsoft Visual Studio\2019\Community\VC\Tools\MSVC\14.29.30133\atlmfc\include\afxtempl.h
;	COMDAT ?NewAssoc@?$CMap@PAVCConfirmWnd@@PAV1@JJ@@IAEPAVCAssoc@1@PAVCConfirmWnd@@@Z
_TEXT	SEGMENT
_key$ = 8						; size = 4
?NewAssoc@?$CMap@PAVCConfirmWnd@@PAV1@JJ@@IAEPAVCAssoc@1@PAVCConfirmWnd@@@Z PROC ; CMap<CConfirmWnd *,CConfirmWnd *,long,long>::NewAssoc, COMDAT
; _this$ = ecx

; 1480 : {

  00000	55		 push	 ebp
  00001	8b ec		 mov	 ebp, esp
  00003	56		 push	 esi
  00004	8b f1		 mov	 esi, ecx

; 1481 : 	if (m_pFreeList == NULL)

  00006	83 7e 10 00	 cmp	 DWORD PTR [esi+16], 0
  0000a	75 35		 jne	 SHORT $LN7@NewAssoc

; 1482 : 	{
; 1483 : 		// add another block
; 1484 : 		CPlex* newBlock = CPlex::Create(m_pBlocks, m_nBlockSize, sizeof(CMap::CAssoc));

  0000c	6a 10		 push	 16			; 00000010H
  0000e	ff 76 18	 push	 DWORD PTR [esi+24]
  00011	8d 46 14	 lea	 eax, DWORD PTR [esi+20]
  00014	50		 push	 eax
  00015	e8 00 00 00 00	 call	 ?Create@CPlex@@SGPAU1@AAPAU1@II@Z ; CPlex::Create

; 1485 : 		// chain them into free list
; 1486 : 		CMap::CAssoc* pAssoc = (CMap::CAssoc*) newBlock->data();
; 1487 : 		// free in reverse order to make it easier to debug
; 1488 : 		pAssoc += m_nBlockSize - 1;

  0001a	8b 56 18	 mov	 edx, DWORD PTR [esi+24]
  0001d	83 c0 08	 add	 eax, 8
  00020	8b ca		 mov	 ecx, edx
  00022	c1 e1 04	 shl	 ecx, 4
  00025	83 c1 f0	 add	 ecx, -16		; fffffff0H
  00028	03 c1		 add	 eax, ecx

; 1489 : 		for (INT_PTR i = m_nBlockSize-1; i >= 0; i--, pAssoc--)

  0002a	83 c2 ff	 add	 edx, -1
  0002d	78 12		 js	 SHORT $LN7@NewAssoc
  0002f	90		 npad	 1
$LL4@NewAssoc:

; 1490 : 		{
; 1491 : 			pAssoc->pNext = m_pFreeList;

  00030	8b 4e 10	 mov	 ecx, DWORD PTR [esi+16]
  00033	89 48 08	 mov	 DWORD PTR [eax+8], ecx

; 1492 : 			m_pFreeList = pAssoc;

  00036	89 46 10	 mov	 DWORD PTR [esi+16], eax
  00039	83 e8 10	 sub	 eax, 16			; 00000010H
  0003c	83 ea 01	 sub	 edx, 1
  0003f	79 ef		 jns	 SHORT $LL4@NewAssoc
$LN7@NewAssoc:

; 1493 : 		}
; 1494 : 	}
; 1495 : 	ENSURE(m_pFreeList != NULL);  // we must have something

  00041	8b 46 10	 mov	 eax, DWORD PTR [esi+16]
  00044	85 c0		 test	 eax, eax
  00046	74 22		 je	 SHORT $LN21@NewAssoc

; 1496 : 
; 1497 : 	CMap::CAssoc* pAssoc = m_pFreeList;
; 1498 : 
; 1499 : 	// zero the memory
; 1500 : 	CMap::CAssoc* pTemp = pAssoc->pNext;

  00048	8b 48 08	 mov	 ecx, DWORD PTR [eax+8]
  0004b	0f 57 c0	 xorps	 xmm0, xmm0

; 1501 : 	memset( pAssoc, 0, sizeof(CMap::CAssoc) );

  0004e	0f 11 00	 movups	 XMMWORD PTR [eax], xmm0

; 1502 : 	pAssoc->pNext = pTemp;

  00051	89 48 08	 mov	 DWORD PTR [eax+8], ecx

; 1503 : 
; 1504 : 	m_pFreeList = m_pFreeList->pNext;

  00054	8b 4e 10	 mov	 ecx, DWORD PTR [esi+16]
  00057	8b 49 08	 mov	 ecx, DWORD PTR [ecx+8]

; 1505 : 	m_nCount++;

  0005a	ff 46 0c	 inc	 DWORD PTR [esi+12]
  0005d	89 4e 10	 mov	 DWORD PTR [esi+16], ecx

; 1256 : 		CPair( ARG_KEY keyval ) : key( keyval )	{}

  00060	8b 4d 08	 mov	 ecx, DWORD PTR _key$[ebp]
  00063	89 08		 mov	 DWORD PTR [eax], ecx

; 1506 : 	ASSERT(m_nCount > 0);  // make sure we don't overflow
; 1507 : #pragma push_macro("new")
; 1508 : #undef new
; 1509 : 	::new(pAssoc) CMap::CAssoc(key);
; 1510 : #pragma pop_macro("new")
; 1511 : 	return pAssoc;

  00065	5e		 pop	 esi

; 1512 : }

  00066	5d		 pop	 ebp
  00067	c2 04 00	 ret	 4
$LN21@NewAssoc:

; 1493 : 		}
; 1494 : 	}
; 1495 : 	ENSURE(m_pFreeList != NULL);  // we must have something

  0006a	e8 00 00 00 00	 call	 ?AfxThrowInvalidArgException@@YGXXZ ; AfxThrowInvalidArgException
$LN19@NewAssoc:
  0006f	cc		 int	 3
?NewAssoc@?$CMap@PAVCConfirmWnd@@PAV1@JJ@@IAEPAVCAssoc@1@PAVCConfirmWnd@@@Z ENDP ; CMap<CConfirmWnd *,CConfirmWnd *,long,long>::NewAssoc
_TEXT	ENDS
; Function compile flags: /Ogtp
; File C:\Program Files (x86)\Microsoft Visual Studio\2019\Community\VC\Tools\MSVC\14.29.30133\atlmfc\include\afxtempl.h
;	COMDAT ?InitHashTable@?$CMap@PAVCConfirmWnd@@PAV1@JJ@@QAEXIH@Z
_TEXT	SEGMENT
_nHashSize$ = 8						; size = 4
_bAllocNow$ = 12					; size = 4
?InitHashTable@?$CMap@PAVCConfirmWnd@@PAV1@JJ@@QAEXIH@Z PROC ; CMap<CConfirmWnd *,CConfirmWnd *,long,long>::InitHashTable, COMDAT
; _this$ = ecx

; 1420 : {

  00000	55		 push	 ebp
  00001	8b ec		 mov	 ebp, esp
  00003	56		 push	 esi
  00004	8b f1		 mov	 esi, ecx
  00006	57		 push	 edi

; 1421 : 	ASSERT_VALID(this);
; 1422 : 	ASSERT(m_nCount == 0);
; 1423 : 	ASSERT(nHashSize > 0);
; 1424 : 
; 1425 : 	if (m_pHashTable != NULL)

  00007	8b 46 04	 mov	 eax, DWORD PTR [esi+4]
  0000a	85 c0		 test	 eax, eax
  0000c	74 10		 je	 SHORT $LN5@InitHashTa

; 1426 : 	{
; 1427 : 		// free hash table
; 1428 : 		delete[] m_pHashTable;

  0000e	50		 push	 eax
  0000f	e8 00 00 00 00	 call	 ??_V@YAXPAX@Z		; operator delete[]
  00014	83 c4 04	 add	 esp, 4

; 1429 : 		m_pHashTable = NULL;

  00017	c7 46 04 00 00
	00 00		 mov	 DWORD PTR [esi+4], 0
$LN5@InitHashTa:

; 1430 : 	}
; 1431 : 
; 1432 : 	if (bAllocNow)

  0001e	83 7d 0c 00	 cmp	 DWORD PTR _bAllocNow$[ebp], 0
  00022	8b 7d 08	 mov	 edi, DWORD PTR _nHashSize$[ebp]
  00025	74 37		 je	 SHORT $LN6@InitHashTa

; 1433 : 	{
; 1434 : 		m_pHashTable = new CAssoc* [nHashSize];

  00027	33 c9		 xor	 ecx, ecx
  00029	8b c7		 mov	 eax, edi
  0002b	ba 04 00 00 00	 mov	 edx, 4
  00030	f7 e2		 mul	 edx
  00032	0f 90 c1	 seto	 cl
  00035	f7 d9		 neg	 ecx
  00037	0b c8		 or	 ecx, eax
  00039	51		 push	 ecx
  0003a	e8 00 00 00 00	 call	 ??_U@YAPAXI@Z		; operator new[]
  0003f	8b c8		 mov	 ecx, eax
  00041	83 c4 04	 add	 esp, 4
  00044	89 4e 04	 mov	 DWORD PTR [esi+4], ecx

; 1435 : 		ENSURE(m_pHashTable != NULL);

  00047	85 c9		 test	 ecx, ecx
  00049	74 1c		 je	 SHORT $LN11@InitHashTa

; 1436 : 		memset(m_pHashTable, 0, sizeof(CAssoc*) * nHashSize);

  0004b	8d 04 bd 00 00
	00 00		 lea	 eax, DWORD PTR [edi*4]
  00052	50		 push	 eax
  00053	6a 00		 push	 0
  00055	51		 push	 ecx
  00056	e8 00 00 00 00	 call	 _memset
  0005b	83 c4 0c	 add	 esp, 12			; 0000000cH
$LN6@InitHashTa:

; 1437 : 	}
; 1438 : 	m_nHashTableSize = nHashSize;

  0005e	89 7e 08	 mov	 DWORD PTR [esi+8], edi
  00061	5f		 pop	 edi
  00062	5e		 pop	 esi

; 1439 : }

  00063	5d		 pop	 ebp
  00064	c2 08 00	 ret	 8
$LN11@InitHashTa:

; 1435 : 		ENSURE(m_pHashTable != NULL);

  00067	e8 00 00 00 00	 call	 ?AfxThrowInvalidArgException@@YGXXZ ; AfxThrowInvalidArgException
$LN9@InitHashTa:
  0006c	cc		 int	 3
?InitHashTable@?$CMap@PAVCConfirmWnd@@PAV1@JJ@@QAEXIH@Z ENDP ; CMap<CConfirmWnd *,CConfirmWnd *,long,long>::InitHashTable
_TEXT	ENDS
; Function compile flags: /Ogtp
; File C:\Program Files (x86)\Microsoft Visual Studio\2019\Community\VC\Tools\MSVC\14.29.30133\atlmfc\include\afxtempl.h
;	COMDAT ?GetNextAssoc@?$CMap@PAVCConfirmWnd@@PAV1@JJ@@QBEXAAPAU__POSITION@@AAPAVCConfirmWnd@@AAJ@Z
_TEXT	SEGMENT
_rNextPosition$ = 8					; size = 4
_rKey$ = 12						; size = 4
_rValue$ = 16						; size = 4
?GetNextAssoc@?$CMap@PAVCConfirmWnd@@PAV1@JJ@@QBEXAAPAU__POSITION@@AAPAVCConfirmWnd@@AAJ@Z PROC ; CMap<CConfirmWnd *,CConfirmWnd *,long,long>::GetNextAssoc, COMDAT
; _this$ = ecx

; 1640 : {

  00000	55		 push	 ebp
  00001	8b ec		 mov	 ebp, esp
  00003	53		 push	 ebx
  00004	56		 push	 esi
  00005	57		 push	 edi
  00006	8b f9		 mov	 edi, ecx

; 1641 : 	ASSERT_VALID(this);
; 1642 : 	ENSURE(m_pHashTable != NULL);  // never call on empty map

  00008	8b 5f 04	 mov	 ebx, DWORD PTR [edi+4]
  0000b	85 db		 test	 ebx, ebx
  0000d	74 6b		 je	 SHORT $LN37@GetNextAss

; 1643 : 
; 1644 : 	CAssoc* pAssocRet = (CAssoc*)rNextPosition;

  0000f	8b 75 08	 mov	 esi, DWORD PTR _rNextPosition$[ebp]
  00012	8b 36		 mov	 esi, DWORD PTR [esi]

; 1645 : 	ENSURE(pAssocRet != NULL);

  00014	85 f6		 test	 esi, esi
  00016	74 62		 je	 SHORT $LN37@GetNextAss

; 1646 : 
; 1647 : 	if (pAssocRet == (CAssoc*) BEFORE_START_POSITION)

  00018	83 fe ff	 cmp	 esi, -1
  0001b	75 1b		 jne	 SHORT $LN12@GetNextAss

; 1648 : 	{
; 1649 : 		// find the first association
; 1650 : 		for (UINT nBucket = 0; nBucket < m_nHashTableSize; nBucket++)

  0001d	8b 57 08	 mov	 edx, DWORD PTR [edi+8]
  00020	33 c9		 xor	 ecx, ecx
  00022	85 d2		 test	 edx, edx
  00024	74 12		 je	 SHORT $LN12@GetNextAss
  00026	8b c3		 mov	 eax, ebx
$LL10@GetNextAss:

; 1651 : 		{
; 1652 : 			if ((pAssocRet = m_pHashTable[nBucket]) != NULL)

  00028	8b 30		 mov	 esi, DWORD PTR [eax]
  0002a	85 f6		 test	 esi, esi
  0002c	75 0a		 jne	 SHORT $LN12@GetNextAss

; 1648 : 	{
; 1649 : 		// find the first association
; 1650 : 		for (UINT nBucket = 0; nBucket < m_nHashTableSize; nBucket++)

  0002e	41		 inc	 ecx
  0002f	83 c0 04	 add	 eax, 4
  00032	3b ca		 cmp	 ecx, edx
  00034	73 44		 jae	 SHORT $LN37@GetNextAss
  00036	eb f0		 jmp	 SHORT $LL10@GetNextAss
$LN12@GetNextAss:

; 1658 : 	}
; 1659 : 
; 1660 : 	// find next association
; 1661 : 	ASSERT(AfxIsValidAddress(pAssocRet, sizeof(CAssoc)));
; 1662 : 	CAssoc* pAssocNext;
; 1663 : 	if ((pAssocNext = pAssocRet->pNext) == NULL)

  00038	8b 4e 08	 mov	 ecx, DWORD PTR [esi+8]
  0003b	85 c9		 test	 ecx, ecx
  0003d	75 20		 jne	 SHORT $LN38@GetNextAss

; 1664 : 	{
; 1665 : 		// go to next bucket
; 1666 : 		for (UINT nBucket = (pAssocRet->nHashValue % m_nHashTableSize) + 1;

  0003f	8b 7f 08	 mov	 edi, DWORD PTR [edi+8]
  00042	33 d2		 xor	 edx, edx
  00044	8b 46 0c	 mov	 eax, DWORD PTR [esi+12]
  00047	f7 f7		 div	 edi
  00049	42		 inc	 edx

; 1667 : 		  nBucket < m_nHashTableSize; nBucket++)

  0004a	3b d7		 cmp	 edx, edi
  0004c	73 11		 jae	 SHORT $LN38@GetNextAss

; 1668 : 			if ((pAssocNext = m_pHashTable[nBucket]) != NULL)

  0004e	8d 04 93	 lea	 eax, DWORD PTR [ebx+edx*4]
$LL16@GetNextAss:
  00051	8b 08		 mov	 ecx, DWORD PTR [eax]
  00053	85 c9		 test	 ecx, ecx
  00055	75 08		 jne	 SHORT $LN38@GetNextAss

; 1667 : 		  nBucket < m_nHashTableSize; nBucket++)

  00057	42		 inc	 edx
  00058	83 c0 04	 add	 eax, 4
  0005b	3b d7		 cmp	 edx, edi
  0005d	72 f2		 jb	 SHORT $LL16@GetNextAss
$LN38@GetNextAss:

; 1669 : 				break;
; 1670 : 	}
; 1671 : 
; 1672 : 	rNextPosition = (POSITION) pAssocNext;

  0005f	8b 45 08	 mov	 eax, DWORD PTR _rNextPosition$[ebp]

; 1673 : 
; 1674 : 	// fill in return data
; 1675 : 	rKey = pAssocRet->key;
; 1676 : 	rValue = pAssocRet->value;
; 1677 : }

  00062	5f		 pop	 edi
  00063	89 08		 mov	 DWORD PTR [eax], ecx
  00065	8b 45 0c	 mov	 eax, DWORD PTR _rKey$[ebp]
  00068	8b 0e		 mov	 ecx, DWORD PTR [esi]
  0006a	89 08		 mov	 DWORD PTR [eax], ecx
  0006c	8b 45 10	 mov	 eax, DWORD PTR _rValue$[ebp]
  0006f	8b 4e 04	 mov	 ecx, DWORD PTR [esi+4]
  00072	5e		 pop	 esi
  00073	5b		 pop	 ebx
  00074	89 08		 mov	 DWORD PTR [eax], ecx
  00076	5d		 pop	 ebp
  00077	c2 0c 00	 ret	 12			; 0000000cH
$LN37@GetNextAss:

; 1653 : 			{
; 1654 : 				break;
; 1655 : 			}
; 1656 : 		}
; 1657 : 		ENSURE(pAssocRet != NULL);  // must find something

  0007a	e8 00 00 00 00	 call	 ?AfxThrowInvalidArgException@@YGXXZ ; AfxThrowInvalidArgException
$LN39@GetNextAss:
  0007f	cc		 int	 3
?GetNextAssoc@?$CMap@PAVCConfirmWnd@@PAV1@JJ@@QBEXAAPAU__POSITION@@AAPAVCConfirmWnd@@AAJ@Z ENDP ; CMap<CConfirmWnd *,CConfirmWnd *,long,long>::GetNextAssoc
_TEXT	ENDS
; Function compile flags: /Ogtp
; File C:\Program Files (x86)\Microsoft Visual Studio\2019\Community\VC\Tools\MSVC\14.29.30133\atlmfc\include\afxtempl.h
;	COMDAT ?RemoveAll@?$CMap@PAVCConfirmWnd@@PAV1@JJ@@QAEXXZ
_TEXT	SEGMENT
?RemoveAll@?$CMap@PAVCConfirmWnd@@PAV1@JJ@@QAEXXZ PROC	; CMap<CConfirmWnd *,CConfirmWnd *,long,long>::RemoveAll, COMDAT
; _this$ = ecx

; 1443 : {

  00000	56		 push	 esi
  00001	8b f1		 mov	 esi, ecx

; 1444 : 	ASSERT_VALID(this);
; 1445 : 
; 1446 : 	if (m_pHashTable != NULL)

  00003	8b 46 04	 mov	 eax, DWORD PTR [esi+4]
  00006	85 c0		 test	 eax, eax
  00008	74 10		 je	 SHORT $LN8@RemoveAll

; 1447 : 	{
; 1448 : 		// destroy elements (values and keys)
; 1449 : 		for (UINT nHash = 0; nHash < m_nHashTableSize; nHash++)
; 1450 : 		{
; 1451 : 			CAssoc* pAssoc;
; 1452 : 			for (pAssoc = m_pHashTable[nHash]; pAssoc != NULL;
; 1453 : 			  pAssoc = pAssoc->pNext)
; 1454 : 			{
; 1455 : 				pAssoc->CAssoc::~CAssoc();
; 1456 : 			}
; 1457 : 		}
; 1458 : 
; 1459 : 		// free hash table
; 1460 : 		delete[] m_pHashTable;

  0000a	50		 push	 eax
  0000b	e8 00 00 00 00	 call	 ??_V@YAXPAX@Z		; operator delete[]
  00010	83 c4 04	 add	 esp, 4

; 1461 : 		m_pHashTable = NULL;

  00013	c7 46 04 00 00
	00 00		 mov	 DWORD PTR [esi+4], 0
$LN8@RemoveAll:

; 1462 : 	}
; 1463 : 
; 1464 : 	m_nCount = 0;
; 1465 : 	m_pFreeList = NULL;
; 1466 : 	m_pBlocks->FreeDataChain();

  0001a	8b 4e 14	 mov	 ecx, DWORD PTR [esi+20]
  0001d	c7 46 0c 00 00
	00 00		 mov	 DWORD PTR [esi+12], 0
  00024	c7 46 10 00 00
	00 00		 mov	 DWORD PTR [esi+16], 0
  0002b	e8 00 00 00 00	 call	 ?FreeDataChain@CPlex@@QAEXXZ ; CPlex::FreeDataChain

; 1467 : 	m_pBlocks = NULL;

  00030	c7 46 14 00 00
	00 00		 mov	 DWORD PTR [esi+20], 0
  00037	5e		 pop	 esi

; 1468 : }

  00038	c3		 ret	 0
?RemoveAll@?$CMap@PAVCConfirmWnd@@PAV1@JJ@@QAEXXZ ENDP	; CMap<CConfirmWnd *,CConfirmWnd *,long,long>::RemoveAll
_TEXT	ENDS
; Function compile flags: /Ogtp
; File C:\Program Files (x86)\Microsoft Visual Studio\2019\Community\VC\Tools\MSVC\14.29.30133\atlmfc\include\afxtempl.h
;	COMDAT ?RemoveKey@?$CMap@PAVCConfirmWnd@@PAV1@JJ@@QAEHPAVCConfirmWnd@@@Z
_TEXT	SEGMENT
_key$ = 8						; size = 4
?RemoveKey@?$CMap@PAVCConfirmWnd@@PAV1@JJ@@QAEHPAVCConfirmWnd@@@Z PROC ; CMap<CConfirmWnd *,CConfirmWnd *,long,long>::RemoveKey, COMDAT
; _this$ = ecx

; 1611 : {

  00000	55		 push	 ebp
  00001	8b ec		 mov	 ebp, esp
  00003	53		 push	 ebx
  00004	56		 push	 esi
  00005	8b f1		 mov	 esi, ecx
  00007	57		 push	 edi

; 1612 : 	ASSERT_VALID(this);
; 1613 : 
; 1614 : 	if (m_pHashTable == NULL)

  00008	83 7e 04 00	 cmp	 DWORD PTR [esi+4], 0
  0000c	74 49		 je	 SHORT $LN48@RemoveKey

; 165  : 	ldiv_t HashVal = ldiv((long)(ARG_KEY)key, 127773);

  0000e	8b 5d 08	 mov	 ebx, DWORD PTR _key$[ebp]
  00011	b9 1d f3 01 00	 mov	 ecx, 127773		; 0001f31dH
  00016	8b c3		 mov	 eax, ebx
  00018	99		 cdq
  00019	f7 f9		 idiv	 ecx

; 166  : 	HashVal.rem = 16807 * HashVal.rem - 2836 * HashVal.quot;

  0001b	69 c0 14 0b 00
	00		 imul	 eax, eax, 2836
  00021	69 ca a7 41 00
	00		 imul	 ecx, edx, 16807
  00027	2b c8		 sub	 ecx, eax

; 1615 : 		return FALSE;  // nothing in the table
; 1616 : 
; 1617 : 	UINT nHashValue;
; 1618 : 	CAssoc** ppAssocPrev;
; 1619 : 	nHashValue = HashKey<ARG_KEY>(key);
; 1620 : 	ppAssocPrev = &m_pHashTable[nHashValue%m_nHashTableSize];

  00029	8d b9 ff ff ff
	7f		 lea	 edi, DWORD PTR [ecx+2147483647]
  0002f	0f 49 f9	 cmovns	 edi, ecx
  00032	33 d2		 xor	 edx, edx
  00034	8b c7		 mov	 eax, edi
  00036	f7 76 08	 div	 DWORD PTR [esi+8]
  00039	8b 46 04	 mov	 eax, DWORD PTR [esi+4]
  0003c	8d 14 90	 lea	 edx, DWORD PTR [eax+edx*4]

; 1621 : 
; 1622 : 	CAssoc* pAssoc;
; 1623 : 	for (pAssoc = *ppAssocPrev; pAssoc != NULL; pAssoc = pAssoc->pNext)

  0003f	8b 02		 mov	 eax, DWORD PTR [edx]
  00041	85 c0		 test	 eax, eax
  00043	74 12		 je	 SHORT $LN48@RemoveKey
$LL4@RemoveKey:

; 1624 : 	{
; 1625 : 		if ((pAssoc->nHashValue == nHashValue) && CompareElements(&pAssoc->key, &key))

  00045	39 78 0c	 cmp	 DWORD PTR [eax+12], edi
  00048	75 04		 jne	 SHORT $LN6@RemoveKey

; 156  : 	return *pElement1 == *pElement2;

  0004a	39 18		 cmp	 DWORD PTR [eax], ebx

; 1624 : 	{
; 1625 : 		if ((pAssoc->nHashValue == nHashValue) && CompareElements(&pAssoc->key, &key))

  0004c	74 12		 je	 SHORT $LN36@RemoveKey
$LN6@RemoveKey:

; 1629 : 			FreeAssoc(pAssoc);
; 1630 : 			return TRUE;
; 1631 : 		}
; 1632 : 		ppAssocPrev = &pAssoc->pNext;

  0004e	8d 50 08	 lea	 edx, DWORD PTR [eax+8]
  00051	8b 02		 mov	 eax, DWORD PTR [edx]
  00053	85 c0		 test	 eax, eax
  00055	75 ee		 jne	 SHORT $LL4@RemoveKey
$LN48@RemoveKey:
  00057	5f		 pop	 edi

; 1633 : 	}
; 1634 : 	return FALSE;  // not found
; 1635 : }

  00058	5e		 pop	 esi
  00059	33 c0		 xor	 eax, eax
  0005b	5b		 pop	 ebx
  0005c	5d		 pop	 ebp
  0005d	c2 04 00	 ret	 4
$LN36@RemoveKey:

; 1626 : 		{
; 1627 : 			// remove it
; 1628 : 			*ppAssocPrev = pAssoc->pNext;  // remove from list

  00060	8b 48 08	 mov	 ecx, DWORD PTR [eax+8]
  00063	89 0a		 mov	 DWORD PTR [edx], ecx

; 1518 : 	pAssoc->pNext = m_pFreeList;

  00065	8b 4e 10	 mov	 ecx, DWORD PTR [esi+16]
  00068	89 48 08	 mov	 DWORD PTR [eax+8], ecx

; 1519 : 	m_pFreeList = pAssoc;
; 1520 : 	m_nCount--;

  0006b	83 46 0c ff	 add	 DWORD PTR [esi+12], -1
  0006f	89 46 10	 mov	 DWORD PTR [esi+16], eax

; 1521 : 	ASSERT(m_nCount >= 0);  // make sure we don't underflow
; 1522 : 
; 1523 : 	// if no more elements, cleanup completely
; 1524 : 	if (m_nCount == 0)

  00072	75 34		 jne	 SHORT $LN21@RemoveKey

; 1446 : 	if (m_pHashTable != NULL)

  00074	8b 46 04	 mov	 eax, DWORD PTR [esi+4]
  00077	85 c0		 test	 eax, eax
  00079	74 10		 je	 SHORT $LN30@RemoveKey

; 1447 : 	{
; 1448 : 		// destroy elements (values and keys)
; 1449 : 		for (UINT nHash = 0; nHash < m_nHashTableSize; nHash++)
; 1450 : 		{
; 1451 : 			CAssoc* pAssoc;
; 1452 : 			for (pAssoc = m_pHashTable[nHash]; pAssoc != NULL;
; 1453 : 			  pAssoc = pAssoc->pNext)
; 1454 : 			{
; 1455 : 				pAssoc->CAssoc::~CAssoc();
; 1456 : 			}
; 1457 : 		}
; 1458 : 
; 1459 : 		// free hash table
; 1460 : 		delete[] m_pHashTable;

  0007b	50		 push	 eax
  0007c	e8 00 00 00 00	 call	 ??_V@YAXPAX@Z		; operator delete[]
  00081	83 c4 04	 add	 esp, 4

; 1461 : 		m_pHashTable = NULL;

  00084	c7 46 04 00 00
	00 00		 mov	 DWORD PTR [esi+4], 0
$LN30@RemoveKey:

; 1462 : 	}
; 1463 : 
; 1464 : 	m_nCount = 0;
; 1465 : 	m_pFreeList = NULL;
; 1466 : 	m_pBlocks->FreeDataChain();

  0008b	8b 4e 14	 mov	 ecx, DWORD PTR [esi+20]
  0008e	c7 46 0c 00 00
	00 00		 mov	 DWORD PTR [esi+12], 0
  00095	c7 46 10 00 00
	00 00		 mov	 DWORD PTR [esi+16], 0
  0009c	e8 00 00 00 00	 call	 ?FreeDataChain@CPlex@@QAEXXZ ; CPlex::FreeDataChain

; 1467 : 	m_pBlocks = NULL;

  000a1	c7 46 14 00 00
	00 00		 mov	 DWORD PTR [esi+20], 0
$LN21@RemoveKey:
  000a8	5f		 pop	 edi

; 1633 : 	}
; 1634 : 	return FALSE;  // not found
; 1635 : }

  000a9	5e		 pop	 esi
  000aa	b8 01 00 00 00	 mov	 eax, 1
  000af	5b		 pop	 ebx
  000b0	5d		 pop	 ebp
  000b1	c2 04 00	 ret	 4
?RemoveKey@?$CMap@PAVCConfirmWnd@@PAV1@JJ@@QAEHPAVCConfirmWnd@@@Z ENDP ; CMap<CConfirmWnd *,CConfirmWnd *,long,long>::RemoveKey
_TEXT	ENDS
; Function compile flags: /Ogtp
; File C:\Program Files (x86)\Microsoft Visual Studio\2019\Community\VC\Tools\MSVC\14.29.30133\atlmfc\include\afxtempl.h
;	COMDAT ?SetAt@?$CMap@PAVCConfirmWnd@@PAV1@JJ@@QAEXPAVCConfirmWnd@@J@Z
_TEXT	SEGMENT
_nHashBucket$1 = -8					; size = 4
_nHashValue$2 = -4					; size = 4
_key$ = 8						; size = 4
_newValue$ = 12						; size = 4
?SetAt@?$CMap@PAVCConfirmWnd@@PAV1@JJ@@QAEXPAVCConfirmWnd@@J@Z PROC ; CMap<CConfirmWnd *,CConfirmWnd *,long,long>::SetAt, COMDAT
; _this$ = ecx

; 1350 : 	{ (*this)[key] = newValue; }

  00000	55		 push	 ebp
  00001	8b ec		 mov	 ebp, esp
  00003	83 ec 08	 sub	 esp, 8

; 1590 : 	if ((pAssoc = GetAssocAt(key, nHashBucket, nHashValue)) == NULL)

  00006	8d 45 fc	 lea	 eax, DWORD PTR _nHashValue$2[ebp]

; 1350 : 	{ (*this)[key] = newValue; }

  00009	53		 push	 ebx

; 1590 : 	if ((pAssoc = GetAssocAt(key, nHashBucket, nHashValue)) == NULL)

  0000a	8b 5d 08	 mov	 ebx, DWORD PTR _key$[ebp]

; 1350 : 	{ (*this)[key] = newValue; }

  0000d	56		 push	 esi

; 1590 : 	if ((pAssoc = GetAssocAt(key, nHashBucket, nHashValue)) == NULL)

  0000e	50		 push	 eax
  0000f	8d 45 f8	 lea	 eax, DWORD PTR _nHashBucket$1[ebp]

; 1350 : 	{ (*this)[key] = newValue; }

  00012	8b f1		 mov	 esi, ecx

; 1590 : 	if ((pAssoc = GetAssocAt(key, nHashBucket, nHashValue)) == NULL)

  00014	50		 push	 eax
  00015	53		 push	 ebx
  00016	e8 00 00 00 00	 call	 ?GetAssocAt@?$CMap@PAVCConfirmWnd@@PAV1@JJ@@IBEPAVCAssoc@1@PAVCConfirmWnd@@AAI1@Z ; CMap<CConfirmWnd *,CConfirmWnd *,long,long>::GetAssocAt
  0001b	8b d0		 mov	 edx, eax
  0001d	85 d2		 test	 edx, edx
  0001f	0f 85 cd 00 00
	00		 jne	 $LN7@SetAt

; 1591 : 	{
; 1592 : 		if (m_pHashTable == NULL)

  00025	8b 46 04	 mov	 eax, DWORD PTR [esi+4]
  00028	85 c0		 test	 eax, eax
  0002a	75 4c		 jne	 SHORT $LN42@SetAt

; 1593 : 			InitHashTable(m_nHashTableSize);

  0002c	57		 push	 edi
  0002d	8b 7e 08	 mov	 edi, DWORD PTR [esi+8]

; 1434 : 		m_pHashTable = new CAssoc* [nHashSize];

  00030	33 c9		 xor	 ecx, ecx
  00032	8b c7		 mov	 eax, edi
  00034	ba 04 00 00 00	 mov	 edx, 4
  00039	f7 e2		 mul	 edx
  0003b	0f 90 c1	 seto	 cl
  0003e	f7 d9		 neg	 ecx
  00040	0b c8		 or	 ecx, eax
  00042	51		 push	 ecx
  00043	e8 00 00 00 00	 call	 ??_U@YAPAXI@Z		; operator new[]
  00048	83 c4 04	 add	 esp, 4
  0004b	89 46 04	 mov	 DWORD PTR [esi+4], eax

; 1435 : 		ENSURE(m_pHashTable != NULL);

  0004e	85 c0		 test	 eax, eax
  00050	0f 84 aa 00 00
	00		 je	 $LN39@SetAt

; 1436 : 		memset(m_pHashTable, 0, sizeof(CAssoc*) * nHashSize);

  00056	8d 0c bd 00 00
	00 00		 lea	 ecx, DWORD PTR [edi*4]
  0005d	51		 push	 ecx
  0005e	6a 00		 push	 0
  00060	50		 push	 eax
  00061	e8 00 00 00 00	 call	 _memset

; 1437 : 	}
; 1438 : 	m_nHashTableSize = nHashSize;

  00066	8b 46 04	 mov	 eax, DWORD PTR [esi+4]
  00069	83 c4 0c	 add	 esp, 12			; 0000000cH
  0006c	89 7e 08	 mov	 DWORD PTR [esi+8], edi
  0006f	5f		 pop	 edi

; 1595 : 		ENSURE(m_pHashTable);

  00070	85 c0		 test	 eax, eax
  00072	0f 84 88 00 00
	00		 je	 $LN39@SetAt
$LN42@SetAt:

; 1481 : 	if (m_pFreeList == NULL)

  00078	83 7e 10 00	 cmp	 DWORD PTR [esi+16], 0
  0007c	75 34		 jne	 SHORT $LN26@SetAt

; 1482 : 	{
; 1483 : 		// add another block
; 1484 : 		CPlex* newBlock = CPlex::Create(m_pBlocks, m_nBlockSize, sizeof(CMap::CAssoc));

  0007e	6a 10		 push	 16			; 00000010H
  00080	ff 76 18	 push	 DWORD PTR [esi+24]
  00083	8d 46 14	 lea	 eax, DWORD PTR [esi+20]
  00086	50		 push	 eax
  00087	e8 00 00 00 00	 call	 ?Create@CPlex@@SGPAU1@AAPAU1@II@Z ; CPlex::Create

; 1485 : 		// chain them into free list
; 1486 : 		CMap::CAssoc* pAssoc = (CMap::CAssoc*) newBlock->data();
; 1487 : 		// free in reverse order to make it easier to debug
; 1488 : 		pAssoc += m_nBlockSize - 1;

  0008c	8b 56 18	 mov	 edx, DWORD PTR [esi+24]
  0008f	83 c0 08	 add	 eax, 8
  00092	8b ca		 mov	 ecx, edx
  00094	c1 e1 04	 shl	 ecx, 4
  00097	83 c1 f0	 add	 ecx, -16		; fffffff0H
  0009a	03 c8		 add	 ecx, eax

; 1489 : 		for (INT_PTR i = m_nBlockSize-1; i >= 0; i--, pAssoc--)

  0009c	83 c2 ff	 add	 edx, -1
  0009f	78 11		 js	 SHORT $LN26@SetAt
$LL23@SetAt:

; 1490 : 		{
; 1491 : 			pAssoc->pNext = m_pFreeList;

  000a1	8b 46 10	 mov	 eax, DWORD PTR [esi+16]
  000a4	89 41 08	 mov	 DWORD PTR [ecx+8], eax

; 1492 : 			m_pFreeList = pAssoc;

  000a7	89 4e 10	 mov	 DWORD PTR [esi+16], ecx
  000aa	83 e9 10	 sub	 ecx, 16			; 00000010H
  000ad	83 ea 01	 sub	 edx, 1
  000b0	79 ef		 jns	 SHORT $LL23@SetAt
$LN26@SetAt:

; 1493 : 		}
; 1494 : 	}
; 1495 : 	ENSURE(m_pFreeList != NULL);  // we must have something

  000b2	8b 56 10	 mov	 edx, DWORD PTR [esi+16]
  000b5	85 d2		 test	 edx, edx
  000b7	74 47		 je	 SHORT $LN39@SetAt

; 1496 : 
; 1497 : 	CMap::CAssoc* pAssoc = m_pFreeList;
; 1498 : 
; 1499 : 	// zero the memory
; 1500 : 	CMap::CAssoc* pTemp = pAssoc->pNext;

  000b9	8b 42 08	 mov	 eax, DWORD PTR [edx+8]
  000bc	0f 57 c0	 xorps	 xmm0, xmm0

; 1501 : 	memset( pAssoc, 0, sizeof(CMap::CAssoc) );

  000bf	0f 11 02	 movups	 XMMWORD PTR [edx], xmm0

; 1502 : 	pAssoc->pNext = pTemp;

  000c2	89 42 08	 mov	 DWORD PTR [edx+8], eax

; 1503 : 
; 1504 : 	m_pFreeList = m_pFreeList->pNext;

  000c5	8b 46 10	 mov	 eax, DWORD PTR [esi+16]
  000c8	8b 40 08	 mov	 eax, DWORD PTR [eax+8]

; 1505 : 	m_nCount++;

  000cb	ff 46 0c	 inc	 DWORD PTR [esi+12]
  000ce	89 46 10	 mov	 DWORD PTR [esi+16], eax

; 1598 : 		pAssoc->nHashValue = nHashValue;

  000d1	8b 45 fc	 mov	 eax, DWORD PTR _nHashValue$2[ebp]
  000d4	89 42 0c	 mov	 DWORD PTR [edx+12], eax

; 1599 : 		//'pAssoc->value' is a constructed object, nothing more
; 1600 : 
; 1601 : 		// put into hash table
; 1602 : 		pAssoc->pNext = m_pHashTable[nHashBucket];

  000d7	8b 45 f8	 mov	 eax, DWORD PTR _nHashBucket$1[ebp]

; 1256 : 		CPair( ARG_KEY keyval ) : key( keyval )	{}

  000da	89 1a		 mov	 DWORD PTR [edx], ebx

; 1602 : 		pAssoc->pNext = m_pHashTable[nHashBucket];

  000dc	8d 0c 85 00 00
	00 00		 lea	 ecx, DWORD PTR [eax*4]
  000e3	8b 46 04	 mov	 eax, DWORD PTR [esi+4]
  000e6	8b 04 01	 mov	 eax, DWORD PTR [ecx+eax]
  000e9	89 42 08	 mov	 DWORD PTR [edx+8], eax

; 1603 : 		m_pHashTable[nHashBucket] = pAssoc;

  000ec	8b 46 04	 mov	 eax, DWORD PTR [esi+4]
  000ef	89 14 01	 mov	 DWORD PTR [ecx+eax], edx
$LN7@SetAt:

; 1350 : 	{ (*this)[key] = newValue; }

  000f2	8b 45 0c	 mov	 eax, DWORD PTR _newValue$[ebp]
  000f5	5e		 pop	 esi
  000f6	89 42 04	 mov	 DWORD PTR [edx+4], eax
  000f9	5b		 pop	 ebx
  000fa	8b e5		 mov	 esp, ebp
  000fc	5d		 pop	 ebp
  000fd	c2 08 00	 ret	 8
$LN39@SetAt:

; 1495 : 	ENSURE(m_pFreeList != NULL);  // we must have something

  00100	e8 00 00 00 00	 call	 ?AfxThrowInvalidArgException@@YGXXZ ; AfxThrowInvalidArgException
$LN40@SetAt:
  00105	cc		 int	 3
?SetAt@?$CMap@PAVCConfirmWnd@@PAV1@JJ@@QAEXPAVCConfirmWnd@@J@Z ENDP ; CMap<CConfirmWnd *,CConfirmWnd *,long,long>::SetAt
_TEXT	ENDS
; Function compile flags: /Ogtp
; File C:\Program Files (x86)\Microsoft Visual Studio\2019\Community\VC\Tools\MSVC\14.29.30133\atlmfc\include\afxtempl.h
;	COMDAT ??A?$CMap@PAVCConfirmWnd@@PAV1@JJ@@QAEAAJPAVCConfirmWnd@@@Z
_TEXT	SEGMENT
_nHashBucket$ = -8					; size = 4
_nHashValue$ = -4					; size = 4
_key$ = 8						; size = 4
??A?$CMap@PAVCConfirmWnd@@PAV1@JJ@@QAEAAJPAVCConfirmWnd@@@Z PROC ; CMap<CConfirmWnd *,CConfirmWnd *,long,long>::operator[], COMDAT
; _this$ = ecx

; 1585 : {

  00000	55		 push	 ebp
  00001	8b ec		 mov	 ebp, esp
  00003	83 ec 08	 sub	 esp, 8

; 1586 : 	ASSERT_VALID(this);
; 1587 : 
; 1588 : 	UINT nHashBucket, nHashValue;
; 1589 : 	CAssoc* pAssoc;
; 1590 : 	if ((pAssoc = GetAssocAt(key, nHashBucket, nHashValue)) == NULL)

  00006	8d 45 fc	 lea	 eax, DWORD PTR _nHashValue$[ebp]
  00009	53		 push	 ebx
  0000a	8b 5d 08	 mov	 ebx, DWORD PTR _key$[ebp]
  0000d	56		 push	 esi
  0000e	50		 push	 eax
  0000f	8d 45 f8	 lea	 eax, DWORD PTR _nHashBucket$[ebp]
  00012	8b f1		 mov	 esi, ecx
  00014	50		 push	 eax
  00015	53		 push	 ebx
  00016	e8 00 00 00 00	 call	 ?GetAssocAt@?$CMap@PAVCConfirmWnd@@PAV1@JJ@@IBEPAVCAssoc@1@PAVCConfirmWnd@@AAI1@Z ; CMap<CConfirmWnd *,CConfirmWnd *,long,long>::GetAssocAt
  0001b	8b d0		 mov	 edx, eax
  0001d	85 d2		 test	 edx, edx
  0001f	0f 85 cd 00 00
	00		 jne	 $LN5@operator

; 1591 : 	{
; 1592 : 		if (m_pHashTable == NULL)

  00025	8b 46 04	 mov	 eax, DWORD PTR [esi+4]
  00028	85 c0		 test	 eax, eax
  0002a	75 4c		 jne	 SHORT $LN39@operator

; 1593 : 			InitHashTable(m_nHashTableSize);

  0002c	57		 push	 edi
  0002d	8b 7e 08	 mov	 edi, DWORD PTR [esi+8]

; 1434 : 		m_pHashTable = new CAssoc* [nHashSize];

  00030	33 c9		 xor	 ecx, ecx
  00032	8b c7		 mov	 eax, edi
  00034	ba 04 00 00 00	 mov	 edx, 4
  00039	f7 e2		 mul	 edx
  0003b	0f 90 c1	 seto	 cl
  0003e	f7 d9		 neg	 ecx
  00040	0b c8		 or	 ecx, eax
  00042	51		 push	 ecx
  00043	e8 00 00 00 00	 call	 ??_U@YAPAXI@Z		; operator new[]
  00048	83 c4 04	 add	 esp, 4
  0004b	89 46 04	 mov	 DWORD PTR [esi+4], eax

; 1435 : 		ENSURE(m_pHashTable != NULL);

  0004e	85 c0		 test	 eax, eax
  00050	0f 84 a7 00 00
	00		 je	 $LN36@operator

; 1436 : 		memset(m_pHashTable, 0, sizeof(CAssoc*) * nHashSize);

  00056	8d 0c bd 00 00
	00 00		 lea	 ecx, DWORD PTR [edi*4]
  0005d	51		 push	 ecx
  0005e	6a 00		 push	 0
  00060	50		 push	 eax
  00061	e8 00 00 00 00	 call	 _memset

; 1437 : 	}
; 1438 : 	m_nHashTableSize = nHashSize;

  00066	8b 46 04	 mov	 eax, DWORD PTR [esi+4]
  00069	83 c4 0c	 add	 esp, 12			; 0000000cH
  0006c	89 7e 08	 mov	 DWORD PTR [esi+8], edi
  0006f	5f		 pop	 edi

; 1594 : 
; 1595 : 		ENSURE(m_pHashTable);

  00070	85 c0		 test	 eax, eax
  00072	0f 84 85 00 00
	00		 je	 $LN36@operator
$LN39@operator:

; 1481 : 	if (m_pFreeList == NULL)

  00078	83 7e 10 00	 cmp	 DWORD PTR [esi+16], 0
  0007c	75 34		 jne	 SHORT $LN24@operator

; 1482 : 	{
; 1483 : 		// add another block
; 1484 : 		CPlex* newBlock = CPlex::Create(m_pBlocks, m_nBlockSize, sizeof(CMap::CAssoc));

  0007e	6a 10		 push	 16			; 00000010H
  00080	ff 76 18	 push	 DWORD PTR [esi+24]
  00083	8d 46 14	 lea	 eax, DWORD PTR [esi+20]
  00086	50		 push	 eax
  00087	e8 00 00 00 00	 call	 ?Create@CPlex@@SGPAU1@AAPAU1@II@Z ; CPlex::Create

; 1485 : 		// chain them into free list
; 1486 : 		CMap::CAssoc* pAssoc = (CMap::CAssoc*) newBlock->data();
; 1487 : 		// free in reverse order to make it easier to debug
; 1488 : 		pAssoc += m_nBlockSize - 1;

  0008c	8b 56 18	 mov	 edx, DWORD PTR [esi+24]
  0008f	83 c0 08	 add	 eax, 8
  00092	8b ca		 mov	 ecx, edx
  00094	c1 e1 04	 shl	 ecx, 4
  00097	83 c1 f0	 add	 ecx, -16		; fffffff0H
  0009a	03 c8		 add	 ecx, eax

; 1489 : 		for (INT_PTR i = m_nBlockSize-1; i >= 0; i--, pAssoc--)

  0009c	83 c2 ff	 add	 edx, -1
  0009f	78 11		 js	 SHORT $LN24@operator
$LL21@operator:

; 1490 : 		{
; 1491 : 			pAssoc->pNext = m_pFreeList;

  000a1	8b 46 10	 mov	 eax, DWORD PTR [esi+16]
  000a4	89 41 08	 mov	 DWORD PTR [ecx+8], eax

; 1492 : 			m_pFreeList = pAssoc;

  000a7	89 4e 10	 mov	 DWORD PTR [esi+16], ecx
  000aa	83 e9 10	 sub	 ecx, 16			; 00000010H
  000ad	83 ea 01	 sub	 edx, 1
  000b0	79 ef		 jns	 SHORT $LL21@operator
$LN24@operator:

; 1493 : 		}
; 1494 : 	}
; 1495 : 	ENSURE(m_pFreeList != NULL);  // we must have something

  000b2	8b 56 10	 mov	 edx, DWORD PTR [esi+16]
  000b5	85 d2		 test	 edx, edx
  000b7	74 44		 je	 SHORT $LN36@operator

; 1496 : 
; 1497 : 	CMap::CAssoc* pAssoc = m_pFreeList;
; 1498 : 
; 1499 : 	// zero the memory
; 1500 : 	CMap::CAssoc* pTemp = pAssoc->pNext;

  000b9	8b 42 08	 mov	 eax, DWORD PTR [edx+8]
  000bc	0f 57 c0	 xorps	 xmm0, xmm0

; 1501 : 	memset( pAssoc, 0, sizeof(CMap::CAssoc) );

  000bf	0f 11 02	 movups	 XMMWORD PTR [edx], xmm0

; 1502 : 	pAssoc->pNext = pTemp;

  000c2	89 42 08	 mov	 DWORD PTR [edx+8], eax

; 1503 : 
; 1504 : 	m_pFreeList = m_pFreeList->pNext;

  000c5	8b 46 10	 mov	 eax, DWORD PTR [esi+16]
  000c8	8b 40 08	 mov	 eax, DWORD PTR [eax+8]

; 1505 : 	m_nCount++;

  000cb	ff 46 0c	 inc	 DWORD PTR [esi+12]
  000ce	89 46 10	 mov	 DWORD PTR [esi+16], eax

; 1596 : 		// it doesn't exist, add a new Association
; 1597 : 		pAssoc = NewAssoc(key);
; 1598 : 		pAssoc->nHashValue = nHashValue;

  000d1	8b 45 fc	 mov	 eax, DWORD PTR _nHashValue$[ebp]
  000d4	89 42 0c	 mov	 DWORD PTR [edx+12], eax

; 1599 : 		//'pAssoc->value' is a constructed object, nothing more
; 1600 : 
; 1601 : 		// put into hash table
; 1602 : 		pAssoc->pNext = m_pHashTable[nHashBucket];

  000d7	8b 45 f8	 mov	 eax, DWORD PTR _nHashBucket$[ebp]

; 1256 : 		CPair( ARG_KEY keyval ) : key( keyval )	{}

  000da	89 1a		 mov	 DWORD PTR [edx], ebx

; 1599 : 		//'pAssoc->value' is a constructed object, nothing more
; 1600 : 
; 1601 : 		// put into hash table
; 1602 : 		pAssoc->pNext = m_pHashTable[nHashBucket];

  000dc	8d 0c 85 00 00
	00 00		 lea	 ecx, DWORD PTR [eax*4]
  000e3	8b 46 04	 mov	 eax, DWORD PTR [esi+4]
  000e6	8b 04 01	 mov	 eax, DWORD PTR [ecx+eax]
  000e9	89 42 08	 mov	 DWORD PTR [edx+8], eax

; 1603 : 		m_pHashTable[nHashBucket] = pAssoc;

  000ec	8b 46 04	 mov	 eax, DWORD PTR [esi+4]
  000ef	89 14 01	 mov	 DWORD PTR [ecx+eax], edx
$LN5@operator:

; 1604 : 	}
; 1605 : 	return pAssoc->value;  // return new reference

  000f2	5e		 pop	 esi
  000f3	8d 42 04	 lea	 eax, DWORD PTR [edx+4]
  000f6	5b		 pop	 ebx

; 1606 : }

  000f7	8b e5		 mov	 esp, ebp
  000f9	5d		 pop	 ebp
  000fa	c2 04 00	 ret	 4
$LN36@operator:

; 1495 : 	ENSURE(m_pFreeList != NULL);  // we must have something

  000fd	e8 00 00 00 00	 call	 ?AfxThrowInvalidArgException@@YGXXZ ; AfxThrowInvalidArgException
$LN37@operator:
  00102	cc		 int	 3
??A?$CMap@PAVCConfirmWnd@@PAV1@JJ@@QAEAAJPAVCConfirmWnd@@@Z ENDP ; CMap<CConfirmWnd *,CConfirmWnd *,long,long>::operator[]
_TEXT	ENDS
; Function compile flags: /Ogtp
; File C:\Program Files (x86)\Microsoft Visual Studio\2019\Community\VC\Tools\MSVC\14.29.30133\atlmfc\include\afxtempl.h
;	COMDAT ?Lookup@?$CMap@PAVCConfirmWnd@@PAV1@JJ@@QBEHPAVCConfirmWnd@@AAJ@Z
_TEXT	SEGMENT
_nHashBucket$ = -8					; size = 4
_nHashValue$ = -4					; size = 4
_key$ = 8						; size = 4
_rValue$ = 12						; size = 4
?Lookup@?$CMap@PAVCConfirmWnd@@PAV1@JJ@@QBEHPAVCConfirmWnd@@AAJ@Z PROC ; CMap<CConfirmWnd *,CConfirmWnd *,long,long>::Lookup, COMDAT
; _this$ = ecx

; 1551 : {

  00000	55		 push	 ebp
  00001	8b ec		 mov	 ebp, esp
  00003	83 ec 08	 sub	 esp, 8

; 1552 : 	ASSERT_VALID(this);
; 1553 : 
; 1554 : 	UINT nHashBucket, nHashValue;
; 1555 : 	CAssoc* pAssoc = GetAssocAt(key, nHashBucket, nHashValue);

  00006	8d 45 fc	 lea	 eax, DWORD PTR _nHashValue$[ebp]
  00009	50		 push	 eax
  0000a	8d 45 f8	 lea	 eax, DWORD PTR _nHashBucket$[ebp]
  0000d	50		 push	 eax
  0000e	ff 75 08	 push	 DWORD PTR _key$[ebp]
  00011	e8 00 00 00 00	 call	 ?GetAssocAt@?$CMap@PAVCConfirmWnd@@PAV1@JJ@@IBEPAVCAssoc@1@PAVCConfirmWnd@@AAI1@Z ; CMap<CConfirmWnd *,CConfirmWnd *,long,long>::GetAssocAt

; 1556 : 	if (pAssoc == NULL)

  00016	85 c0		 test	 eax, eax
  00018	75 06		 jne	 SHORT $LN2@Lookup

; 1561 : }

  0001a	8b e5		 mov	 esp, ebp
  0001c	5d		 pop	 ebp
  0001d	c2 08 00	 ret	 8
$LN2@Lookup:

; 1557 : 		return FALSE;  // not in map
; 1558 : 
; 1559 : 	rValue = pAssoc->value;

  00020	8b 48 04	 mov	 ecx, DWORD PTR [eax+4]
  00023	8b 45 0c	 mov	 eax, DWORD PTR _rValue$[ebp]
  00026	89 08		 mov	 DWORD PTR [eax], ecx

; 1560 : 	return TRUE;

  00028	b8 01 00 00 00	 mov	 eax, 1

; 1561 : }

  0002d	8b e5		 mov	 esp, ebp
  0002f	5d		 pop	 ebp
  00030	c2 08 00	 ret	 8
?Lookup@?$CMap@PAVCConfirmWnd@@PAV1@JJ@@QBEHPAVCConfirmWnd@@AAJ@Z ENDP ; CMap<CConfirmWnd *,CConfirmWnd *,long,long>::Lookup
_TEXT	ENDS
; Function compile flags: /Ogtp
; File C:\Program Files (x86)\Microsoft Visual Studio\2019\Community\VC\Tools\MSVC\14.29.30133\atlmfc\include\afxtempl.h
;	COMDAT ??0?$CMap@PAVCConfirmWnd@@PAV1@JJ@@QAE@H@Z
_TEXT	SEGMENT
_nBlockSize$ = 8					; size = 4
??0?$CMap@PAVCConfirmWnd@@PAV1@JJ@@QAE@H@Z PROC		; CMap<CConfirmWnd *,CConfirmWnd *,long,long>::CMap<CConfirmWnd *,CConfirmWnd *,long,long>, COMDAT
; _this$ = ecx

; 1403 : {

  00000	55		 push	 ebp
  00001	8b ec		 mov	 ebp, esp

; 1404 : 	ASSERT(nBlockSize > 0);
; 1405 : 
; 1406 : 	m_pHashTable = NULL;
; 1407 : 	m_nHashTableSize = 17;  // default size
; 1408 : 	m_nCount = 0;
; 1409 : 	m_pFreeList = NULL;
; 1410 : 	m_pBlocks = NULL;
; 1411 : 	m_nBlockSize = nBlockSize;

  00003	8b 45 08	 mov	 eax, DWORD PTR _nBlockSize$[ebp]
  00006	89 41 18	 mov	 DWORD PTR [ecx+24], eax

; 1412 : }

  00009	8b c1		 mov	 eax, ecx
  0000b	c7 01 00 00 00
	00		 mov	 DWORD PTR [ecx], OFFSET ??_7?$CMap@PAVCConfirmWnd@@PAV1@JJ@@6B@
  00011	c7 41 04 00 00
	00 00		 mov	 DWORD PTR [ecx+4], 0
  00018	c7 41 08 11 00
	00 00		 mov	 DWORD PTR [ecx+8], 17	; 00000011H
  0001f	c7 41 0c 00 00
	00 00		 mov	 DWORD PTR [ecx+12], 0
  00026	c7 41 10 00 00
	00 00		 mov	 DWORD PTR [ecx+16], 0
  0002d	c7 41 14 00 00
	00 00		 mov	 DWORD PTR [ecx+20], 0
  00034	5d		 pop	 ebp
  00035	c2 04 00	 ret	 4
??0?$CMap@PAVCConfirmWnd@@PAV1@JJ@@QAE@H@Z ENDP		; CMap<CConfirmWnd *,CConfirmWnd *,long,long>::CMap<CConfirmWnd *,CConfirmWnd *,long,long>
_TEXT	ENDS
; Function compile flags: /Ogtp
; File D:\git\src\IBK\IBK_DRFN\ProjSrc\SrcDrfn\Chart\MULTICHART\TabSystemTradingEx.cpp
; File C:\Program Files (x86)\Microsoft Visual Studio\2019\Community\VC\Tools\MSVC\14.29.30133\atlmfc\include\afxwin1.inl
; File D:\git\src\IBK\IBK_DRFN\ProjSrc\SrcDrfn\Chart\MULTICHART\TabSystemTradingEx.cpp
; File C:\Program Files (x86)\Microsoft Visual Studio\2019\Community\VC\Tools\MSVC\14.29.30133\atlmfc\include\afxwin1.inl
; File D:\git\src\IBK\IBK_DRFN\ProjSrc\SrcDrfn\Chart\MULTICHART\TabSystemTradingEx.cpp
; File C:\Program Files (x86)\Microsoft Visual Studio\2019\Community\VC\Tools\MSVC\14.29.30133\atlmfc\include\afx.inl
; File D:\git\src\IBK\IBK_DRFN\ProjSrc\SrcDrfn\Chart\MULTICHART\TabSystemTradingEx.cpp
; File D:\git\src\IBK\IBK_DRFN\ProjSrc\SrcDrfn\Chart\CommonTR\SS_OrderDef.h
; File D:\git\src\IBK\IBK_DRFN\ProjSrc\SrcDrfn\Chart\MULTICHART\TabSystemTradingEx.cpp
; File D:\git\src\IBK\IBK_DRFN\ProjSrc\SrcDrfn\Chart\CommonTR\SS_OrderDef.h
; File D:\git\src\IBK\IBK_DRFN\ProjSrc\SrcDrfn\Chart\MULTICHART\TabSystemTradingEx.cpp
; File C:\Program Files (x86)\Microsoft Visual Studio\2019\Community\VC\Tools\MSVC\14.29.30133\atlmfc\include\afxwin2.inl
; File D:\git\src\IBK\IBK_DRFN\ProjSrc\SrcDrfn\Chart\MULTICHART\TabSystemTradingEx.cpp
;	COMDAT ?CallJunmunDlg@CTabSystemTradingEx@@QAEXPAVCSTOrderRData_EG@@@Z
_TEXT	SEGMENT
$T2 = -32						; size = 4
_strParam$ = -28					; size = 4
_strScrNo$ = -24					; size = 4
_nRealMarketType$ = -20					; size = 4
_strItemCode$ = -16					; size = 4
__$EHRec$ = -12						; size = 12
_hConfirmWnd$1$ = 8					; size = 4
_pInData$ = 8						; size = 4
?CallJunmunDlg@CTabSystemTradingEx@@QAEXPAVCSTOrderRData_EG@@@Z PROC ; CTabSystemTradingEx::CallJunmunDlg, COMDAT
; _this$ = ecx

; 2124 : {

  00000	55		 push	 ebp
  00001	8b ec		 mov	 ebp, esp
  00003	6a ff		 push	 -1
  00005	68 00 00 00 00	 push	 __ehhandler$?CallJunmunDlg@CTabSystemTradingEx@@QAEXPAVCSTOrderRData_EG@@@Z
  0000a	64 a1 00 00 00
	00		 mov	 eax, DWORD PTR fs:0
  00010	50		 push	 eax
  00011	83 ec 14	 sub	 esp, 20			; 00000014H
  00014	53		 push	 ebx
  00015	56		 push	 esi
  00016	57		 push	 edi
  00017	a1 00 00 00 00	 mov	 eax, DWORD PTR ___security_cookie
  0001c	33 c5		 xor	 eax, ebp
  0001e	50		 push	 eax
  0001f	8d 45 f4	 lea	 eax, DWORD PTR __$EHRec$[ebp]
  00022	64 a3 00 00 00
	00		 mov	 DWORD PTR fs:0, eax
  00028	8b d9		 mov	 ebx, ecx
; File C:\Program Files (x86)\Microsoft Visual Studio\2019\Community\VC\Tools\MSVC\14.29.30133\atlmfc\include\afxwin1.inl

; 19   : 	{ return afxCurrentWinApp; }

  0002a	e8 00 00 00 00	 call	 ?AfxGetModuleState@@YGPAVAFX_MODULE_STATE@@XZ ; AfxGetModuleState
; File D:\git\src\IBK\IBK_DRFN\ProjSrc\SrcDrfn\Chart\MULTICHART\TabSystemTradingEx.cpp

; 2231 : 	if(AfxGetApp()->GetProfileInt("STBAsic", "AllowJumun", 0)==1) 

  0002f	6a 00		 push	 0
  00031	68 00 00 00 00	 push	 OFFSET ??_C@_0L@CNMPMHDJ@AllowJumun@
  00036	68 00 00 00 00	 push	 OFFSET ??_C@_07MBLBAEDA@STBAsic@
; File C:\Program Files (x86)\Microsoft Visual Studio\2019\Community\VC\Tools\MSVC\14.29.30133\atlmfc\include\afxwin1.inl

; 19   : 	{ return afxCurrentWinApp; }

  0003b	8b 48 04	 mov	 ecx, DWORD PTR [eax+4]
; File D:\git\src\IBK\IBK_DRFN\ProjSrc\SrcDrfn\Chart\MULTICHART\TabSystemTradingEx.cpp

; 2231 : 	if(AfxGetApp()->GetProfileInt("STBAsic", "AllowJumun", 0)==1) 

  0003e	8b 01		 mov	 eax, DWORD PTR [ecx]
  00040	ff 90 84 00 00
	00		 call	 DWORD PTR [eax+132]
  00046	83 f8 01	 cmp	 eax, 1
  00049	75 09		 jne	 SHORT $LN36@CallJunmun

; 2125 : 	if (!IsAllowJumun(pInData, FALSE))
; 2126 : 		return;
; 2127 : 
; 2128 : 	if (m_nUserType)

  0004b	83 bb 28 08 00
	00 00		 cmp	 DWORD PTR [ebx+2088], 0
  00052	eb 26		 jmp	 SHORT $LN87@CallJunmun
$LN36@CallJunmun:

; 2237 : 	if (m_nUserType) 

  00054	83 bb 28 08 00
	00 00		 cmp	 DWORD PTR [ebx+2088], 0
  0005b	0f 85 15 03 00
	00		 jne	 $LN1@CallJunmun

; 2238 : 		return FALSE;
; 2239 : 
; 2240 : 	//2.  ,  ,   .
; 2241 : //	if(m_bSignCheckLogin==false) return FALSE;
; 2242 : 
; 2243 : 	//3.  
; 2244 : 	{
; 2245 : 		// InputBarDlg.h
; 2246 : 		// enum	{STOCK_CHART, UPJONG_CHART, FUTOPT_CHART, MS30_CHART, FOREIGN_CHART, ELW_CHART};
; 2247 : //		CStdDialog* pMainDlg = (CStdDialog*)m_pMultiChartWnd;
; 2248 : 		CInputBarDlg* pInputBarDlg = (CInputBarDlg*)((CChartMng*)m_pChartMng)->GetpInputBarDlg();

  00061	8b 83 c4 00 00
	00		 mov	 eax, DWORD PTR [ebx+196]
  00067	8b 80 10 01 00
	00		 mov	 eax, DWORD PTR [eax+272]

; 2249 : 
; 2250 : 		//       .
; 2251 : 		if(pInputBarDlg->m_nMarketType != CMasterTypeInfo::STOCK_CHART
; 2252 : 			&& pInputBarDlg->m_nMarketType != CMasterTypeInfo::FUTOPT_CHART)

  0006d	8b 80 20 01 00
	00		 mov	 eax, DWORD PTR [eax+288]
  00073	85 c0		 test	 eax, eax
  00075	74 09		 je	 SHORT $LN85@CallJunmun
  00077	83 f8 02	 cmp	 eax, 2
$LN87@CallJunmun:
; File C:\Program Files (x86)\Microsoft Visual Studio\2019\Community\VC\Tools\MSVC\14.29.30133\atlmfc\include\afx.inl

; 116  : 	{ return ::operator new(nSize); }

  0007a	0f 85 f6 02 00
	00		 jne	 $LN1@CallJunmun
$LN85@CallJunmun:
  00080	68 30 01 00 00	 push	 304			; 00000130H
  00085	e8 00 00 00 00	 call	 ??2@YAPAXI@Z		; operator new
  0008a	83 c4 04	 add	 esp, 4
; File D:\git\src\IBK\IBK_DRFN\ProjSrc\SrcDrfn\Chart\MULTICHART\TabSystemTradingEx.cpp

; 2134 : 	CConfirmWnd* pConfirmWnd = new CConfirmWnd;

  0008d	89 45 e0	 mov	 DWORD PTR $T2[ebp], eax
  00090	c7 45 fc 00 00
	00 00		 mov	 DWORD PTR __$EHRec$[ebp+8], 0
  00097	85 c0		 test	 eax, eax
  00099	74 0b		 je	 SHORT $LN15@CallJunmun
  0009b	8b c8		 mov	 ecx, eax
  0009d	e8 00 00 00 00	 call	 ??0CConfirmWnd@@QAE@XZ	; CConfirmWnd::CConfirmWnd
  000a2	8b f8		 mov	 edi, eax
  000a4	eb 02		 jmp	 SHORT $LN16@CallJunmun
$LN15@CallJunmun:
  000a6	33 ff		 xor	 edi, edi
$LN16@CallJunmun:
; File D:\git\src\IBK\IBK_DRFN\ProjSrc\SrcDrfn\Chart\CommonTR\SS_OrderDef.h

; 402  : 		m_nMarket		= pOrg->m_nMarket;

  000a8	8b 75 08	 mov	 esi, DWORD PTR _pInData$[ebp]

; 405  : 		m_szGeja		= pOrg->m_szGeja;			

  000ab	8d 8f 8c 00 00
	00		 lea	 ecx, DWORD PTR [edi+140]
; File D:\git\src\IBK\IBK_DRFN\ProjSrc\SrcDrfn\Chart\MULTICHART\TabSystemTradingEx.cpp

; 2134 : 	CConfirmWnd* pConfirmWnd = new CConfirmWnd;

  000b1	c7 45 fc ff ff
	ff ff		 mov	 DWORD PTR __$EHRec$[ebp+8], -1
; File D:\git\src\IBK\IBK_DRFN\ProjSrc\SrcDrfn\Chart\CommonTR\SS_OrderDef.h

; 402  : 		m_nMarket		= pOrg->m_nMarket;

  000b8	8b 06		 mov	 eax, DWORD PTR [esi]
  000ba	89 87 80 00 00
	00		 mov	 DWORD PTR [edi+128], eax

; 403  : 		m_nOrderType	= pOrg->m_nOrderType;

  000c0	8b 46 04	 mov	 eax, DWORD PTR [esi+4]
  000c3	89 87 84 00 00
	00		 mov	 DWORD PTR [edi+132], eax

; 404  : 		m_nRealOrderType= pOrg->m_nRealOrderType;

  000c9	8b 46 08	 mov	 eax, DWORD PTR [esi+8]
  000cc	89 87 88 00 00
	00		 mov	 DWORD PTR [edi+136], eax

; 405  : 		m_szGeja		= pOrg->m_szGeja;			

  000d2	8d 46 0c	 lea	 eax, DWORD PTR [esi+12]
  000d5	50		 push	 eax
  000d6	ff 15 00 00 00
	00		 call	 DWORD PTR __imp_??4?$CStringT@DV?$StrTraitMFC_DLL@DV?$ChTraitsCRT@D@ATL@@@@@ATL@@QAEAAV01@ABV01@@Z

; 406  : 		m_szGejaname	= pOrg->m_szGejaname;		

  000dc	8d 46 10	 lea	 eax, DWORD PTR [esi+16]
  000df	50		 push	 eax
  000e0	8d 8f 90 00 00
	00		 lea	 ecx, DWORD PTR [edi+144]
  000e6	ff 15 00 00 00
	00		 call	 DWORD PTR __imp_??4?$CStringT@DV?$StrTraitMFC_DLL@DV?$ChTraitsCRT@D@ATL@@@@@ATL@@QAEAAV01@ABV01@@Z

; 407  : 		m_szCode		= pOrg->m_szCode;			

  000ec	8d 46 14	 lea	 eax, DWORD PTR [esi+20]
  000ef	50		 push	 eax
  000f0	8d 8f 94 00 00
	00		 lea	 ecx, DWORD PTR [edi+148]
  000f6	ff 15 00 00 00
	00		 call	 DWORD PTR __imp_??4?$CStringT@DV?$StrTraitMFC_DLL@DV?$ChTraitsCRT@D@ATL@@@@@ATL@@QAEAAV01@ABV01@@Z

; 408  : 		m_szCodeName	= pOrg->m_szCodeName;		

  000fc	8d 46 18	 lea	 eax, DWORD PTR [esi+24]
  000ff	50		 push	 eax
  00100	8d 8f 98 00 00
	00		 lea	 ecx, DWORD PTR [edi+152]
  00106	ff 15 00 00 00
	00		 call	 DWORD PTR __imp_??4?$CStringT@DV?$StrTraitMFC_DLL@DV?$ChTraitsCRT@D@ATL@@@@@ATL@@QAEAAV01@ABV01@@Z

; 409  : 		memcpy(m_jutype,  pOrg->m_jutype, 2);

  0010c	66 8b 46 1c	 mov	 ax, WORD PTR [esi+28]

; 410  : 		m_fJuprc		= pOrg->m_fJuprc;			
; 411  : 		m_nQty			= pOrg->m_nQty;			
; 412  : 		m_gb			= pOrg->m_gb;				
; 413  : 		m_szPasswd		= pOrg->m_szPasswd;			

  00110	8d 8f ac 00 00
	00		 lea	 ecx, DWORD PTR [edi+172]
  00116	66 89 87 9c 00
	00 00		 mov	 WORD PTR [edi+156], ax
  0011d	8b 46 20	 mov	 eax, DWORD PTR [esi+32]
  00120	89 87 a0 00 00
	00		 mov	 DWORD PTR [edi+160], eax
  00126	8b 46 24	 mov	 eax, DWORD PTR [esi+36]
  00129	89 87 a4 00 00
	00		 mov	 DWORD PTR [edi+164], eax
  0012f	8a 46 28	 mov	 al, BYTE PTR [esi+40]
  00132	88 87 a8 00 00
	00		 mov	 BYTE PTR [edi+168], al
  00138	8d 46 2c	 lea	 eax, DWORD PTR [esi+44]
  0013b	50		 push	 eax
  0013c	ff 15 00 00 00
	00		 call	 DWORD PTR __imp_??4?$CStringT@DV?$StrTraitMFC_DLL@DV?$ChTraitsCRT@D@ATL@@@@@ATL@@QAEAAV01@ABV01@@Z

; 414  : 		m_nOrderPriceType= pOrg->m_nOrderPriceType;

  00142	8b 46 30	 mov	 eax, DWORD PTR [esi+48]

; 415  : 		m_nSTType		= pOrg->m_nSTType;		
; 416  : 		m_nAutoOrder	= pOrg->m_nAutoOrder;		
; 417  : 		m_szSTPath		= pOrg->m_szSTPath;	

  00145	8d 8f bc 00 00
	00		 lea	 ecx, DWORD PTR [edi+188]
  0014b	89 87 b0 00 00
	00		 mov	 DWORD PTR [edi+176], eax
  00151	8b 46 34	 mov	 eax, DWORD PTR [esi+52]
  00154	89 87 b4 00 00
	00		 mov	 DWORD PTR [edi+180], eax
  0015a	8b 46 38	 mov	 eax, DWORD PTR [esi+56]
  0015d	89 87 b8 00 00
	00		 mov	 DWORD PTR [edi+184], eax
  00163	8d 46 3c	 lea	 eax, DWORD PTR [esi+60]
  00166	50		 push	 eax
  00167	ff 15 00 00 00
	00		 call	 DWORD PTR __imp_??4?$CStringT@DV?$StrTraitMFC_DLL@DV?$ChTraitsCRT@D@ATL@@@@@ATL@@QAEAAV01@ABV01@@Z

; 418  : 
; 419  : 		m_lPtrCSTConfigEnv = pOrg->m_lPtrCSTConfigEnv;

  0016d	8b 46 40	 mov	 eax, DWORD PTR [esi+64]

; 451  : 		m_szSound_Buy_File = pOrg->m_szSound_Buy_File;

  00170	8d 8f d0 00 00
	00		 lea	 ecx, DWORD PTR [edi+208]

; 419  : 		m_lPtrCSTConfigEnv = pOrg->m_lPtrCSTConfigEnv;

  00176	89 87 c0 00 00
	00		 mov	 DWORD PTR [edi+192], eax

; 447  : 		m_nOrderMarketEntry = pOrg->m_nOrderMarketEntry;

  0017c	8b 46 44	 mov	 eax, DWORD PTR [esi+68]
  0017f	89 87 c4 00 00
	00		 mov	 DWORD PTR [edi+196], eax

; 448  : 		m_nOrderMarketClear = pOrg->m_nOrderMarketClear;

  00185	8b 46 48	 mov	 eax, DWORD PTR [esi+72]
  00188	89 87 c8 00 00
	00		 mov	 DWORD PTR [edi+200], eax

; 449  : 
; 450  : 		m_bSound_Buy_Use = pOrg->m_bSound_Buy_Use;

  0018e	8b 46 4c	 mov	 eax, DWORD PTR [esi+76]
  00191	89 87 cc 00 00
	00		 mov	 DWORD PTR [edi+204], eax

; 451  : 		m_szSound_Buy_File = pOrg->m_szSound_Buy_File;

  00197	8d 46 50	 lea	 eax, DWORD PTR [esi+80]
  0019a	50		 push	 eax
  0019b	ff 15 00 00 00
	00		 call	 DWORD PTR __imp_??4?$CStringT@DV?$StrTraitMFC_DLL@DV?$ChTraitsCRT@D@ATL@@@@@ATL@@QAEAAV01@ABV01@@Z

; 452  : 		m_bSound_Sell_Use = pOrg->m_bSound_Sell_Use;

  001a1	8b 46 54	 mov	 eax, DWORD PTR [esi+84]

; 453  : 		m_szSound_Sell_File = pOrg->m_szSound_Sell_File;

  001a4	8d 8f d8 00 00
	00		 lea	 ecx, DWORD PTR [edi+216]
  001aa	89 87 d4 00 00
	00		 mov	 DWORD PTR [edi+212], eax
  001b0	8d 46 58	 lea	 eax, DWORD PTR [esi+88]
  001b3	50		 push	 eax
  001b4	ff 15 00 00 00
	00		 call	 DWORD PTR __imp_??4?$CStringT@DV?$StrTraitMFC_DLL@DV?$ChTraitsCRT@D@ATL@@@@@ATL@@QAEAAV01@ABV01@@Z
; File D:\git\src\IBK\IBK_DRFN\ProjSrc\SrcDrfn\Chart\MULTICHART\TabSystemTradingEx.cpp

; 2137 : 	m_mapConfirmWnd.SetAt(pConfirmWnd, (long)pConfirmWnd);

  001ba	57		 push	 edi
  001bb	8d 83 d0 09 00
	00		 lea	 eax, DWORD PTR [ebx+2512]
  001c1	57		 push	 edi
  001c2	8d 8b b4 09 00
	00		 lea	 ecx, DWORD PTR [ebx+2484]
  001c8	89 87 04 01 00
	00		 mov	 DWORD PTR [edi+260], eax
  001ce	e8 00 00 00 00	 call	 ?SetAt@?$CMap@PAVCConfirmWnd@@PAV1@JJ@@QAEXPAVCConfirmWnd@@J@Z ; CMap<CConfirmWnd *,CConfirmWnd *,long,long>::SetAt

; 2138 : 	if (!pConfirmWnd->OpenWindow())

  001d3	8b cf		 mov	 ecx, edi
  001d5	e8 00 00 00 00	 call	 ?OpenWindow@CConfirmWnd@@QAEHXZ ; CConfirmWnd::OpenWindow
  001da	85 c0		 test	 eax, eax
  001dc	75 09		 jne	 SHORT $LN17@CallJunmun

; 2139 : 		delete pConfirmWnd;

  001de	8b 07		 mov	 eax, DWORD PTR [edi]
  001e0	8b cf		 mov	 ecx, edi
  001e2	6a 01		 push	 1
  001e4	ff 50 04	 call	 DWORD PTR [eax+4]
$LN17@CallJunmun:
; File C:\Program Files (x86)\Microsoft Visual Studio\2019\Community\VC\Tools\MSVC\14.29.30133\atlmfc\include\afxwin2.inl

; 25   : 	{ return this == NULL ? NULL : m_hWnd; }

  001e7	8b 47 20	 mov	 eax, DWORD PTR [edi+32]
  001ea	89 45 08	 mov	 DWORD PTR _hConfirmWnd$1$[ebp], eax
; File D:\git\src\IBK\IBK_DRFN\ProjSrc\SrcDrfn\Chart\MULTICHART\TabSystemTradingEx.cpp

; 2142 : 	if (hConfirmWnd == NULL)

  001ed	85 c0		 test	 eax, eax
  001ef	0f 84 81 01 00
	00		 je	 $LN1@CallJunmun

; 2143 : 		return;
; 2144 : 
; 2145 : 	CString strParam;

  001f5	8d 4d e4	 lea	 ecx, DWORD PTR _strParam$[ebp]
  001f8	ff 15 00 00 00
	00		 call	 DWORD PTR __imp_??0?$CStringT@DV?$StrTraitMFC_DLL@DV?$ChTraitsCRT@D@ATL@@@@@ATL@@QAE@XZ

; 2146 : 	CString strScrNo;

  001fe	8d 4d e8	 lea	 ecx, DWORD PTR _strScrNo$[ebp]
  00201	c7 45 fc 01 00
	00 00		 mov	 DWORD PTR __$EHRec$[ebp+8], 1
  00208	ff 15 00 00 00
	00		 call	 DWORD PTR __imp_??0?$CStringT@DV?$StrTraitMFC_DLL@DV?$ChTraitsCRT@D@ATL@@@@@ATL@@QAE@XZ

; 2147 : 	CString strItemCode = pConfirmWnd->m_InData.m_szCode;

  0020e	8d 87 94 00 00
	00		 lea	 eax, DWORD PTR [edi+148]
  00214	c6 45 fc 02	 mov	 BYTE PTR __$EHRec$[ebp+8], 2
  00218	50		 push	 eax
  00219	8d 4d f0	 lea	 ecx, DWORD PTR _strItemCode$[ebp]
  0021c	ff 15 00 00 00
	00		 call	 DWORD PTR __imp_??0?$CStringT@DV?$StrTraitMFC_DLL@DV?$ChTraitsCRT@D@ATL@@@@@ATL@@QAE@ABV01@@Z

; 2148 : 	int nRealMarketType;
; 2149 : 	int nEnumMarketType = ((CStdDialog*)m_pMultiChartWnd)->GetMarketTypeFromCode(strItemCode, nRealMarketType);

  00222	8d 45 ec	 lea	 eax, DWORD PTR _nRealMarketType$[ebp]
  00225	c6 45 fc 03	 mov	 BYTE PTR __$EHRec$[ebp+8], 3
  00229	50		 push	 eax
  0022a	51		 push	 ecx
  0022b	8d 45 f0	 lea	 eax, DWORD PTR _strItemCode$[ebp]
  0022e	8b cc		 mov	 ecx, esp
  00230	50		 push	 eax
  00231	ff 15 00 00 00
	00		 call	 DWORD PTR __imp_??0?$CStringT@DV?$StrTraitMFC_DLL@DV?$ChTraitsCRT@D@ATL@@@@@ATL@@QAE@ABV01@@Z
  00237	8b 8b c0 00 00
	00		 mov	 ecx, DWORD PTR [ebx+192]
  0023d	e8 00 00 00 00	 call	 ?GetMarketTypeFromCode@CStdDialog@@QAEHV?$CStringT@DV?$StrTraitMFC_DLL@DV?$ChTraitsCRT@D@ATL@@@@@ATL@@AAH@Z ; CStdDialog::GetMarketTypeFromCode

; 2150 : 
; 2151 : 	FID_SENDDATA *pstSendData = NULL;
; 2152 : 	//	, 
; 2153 : 	if ((nRealMarketType == CDRCodeTypeInfo::CODE_KOSPI_STOCK) ||

  00242	8b 45 ec	 mov	 eax, DWORD PTR _nRealMarketType$[ebp]
  00245	85 c0		 test	 eax, eax
  00247	74 71		 je	 SHORT $LN8@CallJunmun
  00249	83 f8 01	 cmp	 eax, 1
  0024c	74 6c		 je	 SHORT $LN8@CallJunmun

; 2166 : 	}
; 2167 : 	else if ((nRealMarketType == CDRCodeTypeInfo::CODE_KFUTURE) ||

  0024e	83 f8 05	 cmp	 eax, 5
  00251	74 09		 je	 SHORT $LN11@CallJunmun
  00253	83 f8 06	 cmp	 eax, 6
  00256	0f 85 ff 00 00
	00		 jne	 $LN79@CallJunmun
$LN11@CallJunmun:

; 2168 : 			(nRealMarketType == CDRCodeTypeInfo::CODE_KOPTION))
; 2169 : 	{
; 2170 : 		pstSendData = new FID_SENDDATA;

  0025c	6a 10		 push	 16			; 00000010H
  0025e	e8 00 00 00 00	 call	 ??2@YAPAXI@Z		; operator new
  00263	8b f8		 mov	 edi, eax
  00265	83 c4 04	 add	 esp, 4
  00268	85 ff		 test	 edi, edi
  0026a	74 0a		 je	 SHORT $LN23@CallJunmun
  0026c	8b cf		 mov	 ecx, edi
  0026e	ff 15 00 00 00
	00		 call	 DWORD PTR __imp_??0?$CStringT@DV?$StrTraitMFC_DLL@DV?$ChTraitsCRT@D@ATL@@@@@ATL@@QAE@XZ
  00274	eb 02		 jmp	 SHORT $LN24@CallJunmun
$LN23@CallJunmun:
  00276	33 ff		 xor	 edi, edi
$LN24@CallJunmun:

; 2171 : 
; 2172 : 		pstSendData->szTrCode = QUERY_FUTOPT_HOGA;

  00278	68 00 00 00 00	 push	 OFFSET ??_C@_05IJKFNIJF@f0201@
  0027d	8b cf		 mov	 ecx, edi
  0027f	ff 15 00 00 00
	00		 call	 DWORD PTR __imp_??4?$CStringT@DV?$StrTraitMFC_DLL@DV?$ChTraitsCRT@D@ATL@@@@@ATL@@QAEAAV01@PBD@Z

; 2173 : 		int nSize = sizeof(KB_f0201_InRec1);
; 2174 : 		char *pData = new char[nSize+1];

  00285	6a 09		 push	 9
  00287	e8 00 00 00 00	 call	 ??_U@YAPAXI@Z		; operator new[]
  0028c	8b f0		 mov	 esi, eax
  0028e	0f 57 c0	 xorps	 xmm0, xmm0

; 2175 : 		memset(pData, 0x00, nSize+1);
; 2176 : 		KB_f0201_InRec1 *pIn = (KB_f0201_InRec1 *)pData;
; 2177 : 		memcpy(pIn->futcode, (LPTSTR)(LPCTSTR)strItemCode, min(sizeof(pIn->futcode), strItemCode.GetLength()));

  00291	b8 08 00 00 00	 mov	 eax, 8
  00296	66 0f d6 06	 movq	 QWORD PTR [esi], xmm0
  0029a	c6 46 08 00	 mov	 BYTE PTR [esi+8], 0
  0029e	8b 4d f0	 mov	 ecx, DWORD PTR _strItemCode$[ebp]
  002a1	8b 51 f4	 mov	 edx, DWORD PTR [ecx-12]
  002a4	3b d0		 cmp	 edx, eax
  002a6	0f 47 d0	 cmova	 edx, eax
  002a9	52		 push	 edx
  002aa	51		 push	 ecx
  002ab	56		 push	 esi
  002ac	e8 00 00 00 00	 call	 _memcpy

; 2178 : 		pstSendData->pData = pData;
; 2179 : 		pstSendData->nLen = nSize;

  002b1	c7 47 08 08 00
	00 00		 mov	 DWORD PTR [edi+8], 8

; 2180 : 	}

  002b8	eb 58		 jmp	 SHORT $LN88@CallJunmun
$LN8@CallJunmun:

; 2154 : 		(nRealMarketType == CDRCodeTypeInfo::CODE_KOSDAQ_STOCK))
; 2155 : 	{
; 2156 : 		pstSendData = new FID_SENDDATA;

  002ba	6a 10		 push	 16			; 00000010H
  002bc	e8 00 00 00 00	 call	 ??2@YAPAXI@Z		; operator new
  002c1	8b f8		 mov	 edi, eax
  002c3	83 c4 04	 add	 esp, 4
  002c6	85 ff		 test	 edi, edi
  002c8	74 0a		 je	 SHORT $LN19@CallJunmun
  002ca	8b cf		 mov	 ecx, edi
  002cc	ff 15 00 00 00
	00		 call	 DWORD PTR __imp_??0?$CStringT@DV?$StrTraitMFC_DLL@DV?$ChTraitsCRT@D@ATL@@@@@ATL@@QAE@XZ
  002d2	eb 02		 jmp	 SHORT $LN20@CallJunmun
$LN19@CallJunmun:
  002d4	33 ff		 xor	 edi, edi
$LN20@CallJunmun:

; 2157 : 
; 2158 : 		pstSendData->szTrCode = QUERY_STOCK_HOGA;

  002d6	68 00 00 00 00	 push	 OFFSET ??_C@_05GFCMPLNO@c1002@
  002db	8b cf		 mov	 ecx, edi
  002dd	ff 15 00 00 00
	00		 call	 DWORD PTR __imp_??4?$CStringT@DV?$StrTraitMFC_DLL@DV?$ChTraitsCRT@D@ATL@@@@@ATL@@QAEAAV01@PBD@Z

; 2159 : 		int nSize = sizeof(k01230In1);
; 2160 : 		char *pData = new char[nSize+1];

  002e3	6a 08		 push	 8
  002e5	e8 00 00 00 00	 call	 ??_U@YAPAXI@Z		; operator new[]
  002ea	8b f0		 mov	 esi, eax
  002ec	0f 57 c0	 xorps	 xmm0, xmm0

; 2161 : 		memset(pData, 0x00, nSize+1);
; 2162 : 		k01230In1 *pIn = (k01230In1 *)pData;
; 2163 : 		memcpy(pIn->shcode, (LPTSTR)(LPCTSTR)strItemCode, min(sizeof(pIn->shcode), strItemCode.GetLength()));

  002ef	b8 06 00 00 00	 mov	 eax, 6
  002f4	66 0f d6 06	 movq	 QWORD PTR [esi], xmm0
  002f8	8b 4d f0	 mov	 ecx, DWORD PTR _strItemCode$[ebp]
  002fb	8b 51 f4	 mov	 edx, DWORD PTR [ecx-12]
  002fe	3b d0		 cmp	 edx, eax
  00300	0f 47 d0	 cmova	 edx, eax
  00303	52		 push	 edx
  00304	51		 push	 ecx
  00305	56		 push	 esi
  00306	e8 00 00 00 00	 call	 _memcpy

; 2164 : 		pstSendData->pData = pData;
; 2165 : 		pstSendData->nLen = nSize;

  0030b	c7 47 08 07 00
	00 00		 mov	 DWORD PTR [edi+8], 7
$LN88@CallJunmun:

; 2181 : 	else
; 2182 : 		return;
; 2183 : 
; 2184 : 	pstSendData->hWnd = hConfirmWnd;

  00312	8b 45 08	 mov	 eax, DWORD PTR _hConfirmWnd$1$[ebp]
  00315	83 c4 10	 add	 esp, 16			; 00000010H
  00318	89 77 04	 mov	 DWORD PTR [edi+4], esi
  0031b	89 47 0c	 mov	 DWORD PTR [edi+12], eax

; 2185 : 
; 2186 : 	IPartnerManager* pPTManager = ((CStdDialog*)m_pMultiChartWnd)->m_pPTManager;

  0031e	8b 83 c0 00 00
	00		 mov	 eax, DWORD PTR [ebx+192]

; 2187 : 	pPTManager->directSendFID((long)pstSendData);

  00324	57		 push	 edi
  00325	8b 80 08 14 00
	00		 mov	 eax, DWORD PTR [eax+5128]
  0032b	50		 push	 eax
  0032c	8b 08		 mov	 ecx, DWORD PTR [eax]
  0032e	ff 51 24	 call	 DWORD PTR [ecx+36]

; 2188 : 
; 2189 : 	if (pstSendData)
; 2190 : 	{
; 2191 : 		if (pstSendData->pData)

  00331	8b 47 04	 mov	 eax, DWORD PTR [edi+4]
  00334	85 c0		 test	 eax, eax
  00336	74 10		 je	 SHORT $LN13@CallJunmun

; 2192 : 		{
; 2193 : 			delete []pstSendData->pData;

  00338	50		 push	 eax
  00339	e8 00 00 00 00	 call	 ??_V@YAXPAX@Z		; operator delete[]
  0033e	83 c4 04	 add	 esp, 4

; 2194 : 			pstSendData->pData = NULL;

  00341	c7 47 04 00 00
	00 00		 mov	 DWORD PTR [edi+4], 0
$LN13@CallJunmun:
  00348	8b cf		 mov	 ecx, edi
  0034a	ff 15 00 00 00
	00		 call	 DWORD PTR __imp_??1?$CStringT@DV?$StrTraitMFC_DLL@DV?$ChTraitsCRT@D@ATL@@@@@ATL@@QAE@XZ
  00350	6a 10		 push	 16			; 00000010H
  00352	57		 push	 edi
  00353	e8 00 00 00 00	 call	 ??3@YAXPAXI@Z		; operator delete
  00358	83 c4 08	 add	 esp, 8
$LN79@CallJunmun:

; 2195 : 		}
; 2196 : 
; 2197 : 		delete pstSendData;
; 2198 : 		pstSendData = NULL;
; 2199 : 	}
; 2200 : }

  0035b	8d 4d f0	 lea	 ecx, DWORD PTR _strItemCode$[ebp]
  0035e	ff 15 00 00 00
	00		 call	 DWORD PTR __imp_??1?$CStringT@DV?$StrTraitMFC_DLL@DV?$ChTraitsCRT@D@ATL@@@@@ATL@@QAE@XZ
  00364	8d 4d e8	 lea	 ecx, DWORD PTR _strScrNo$[ebp]
  00367	ff 15 00 00 00
	00		 call	 DWORD PTR __imp_??1?$CStringT@DV?$StrTraitMFC_DLL@DV?$ChTraitsCRT@D@ATL@@@@@ATL@@QAE@XZ
  0036d	8d 4d e4	 lea	 ecx, DWORD PTR _strParam$[ebp]
  00370	ff 15 00 00 00
	00		 call	 DWORD PTR __imp_??1?$CStringT@DV?$StrTraitMFC_DLL@DV?$ChTraitsCRT@D@ATL@@@@@ATL@@QAE@XZ
$LN1@CallJunmun:
  00376	8b 4d f4	 mov	 ecx, DWORD PTR __$EHRec$[ebp]
  00379	64 89 0d 00 00
	00 00		 mov	 DWORD PTR fs:0, ecx
  00380	59		 pop	 ecx
  00381	5f		 pop	 edi
  00382	5e		 pop	 esi
  00383	5b		 pop	 ebx
  00384	8b e5		 mov	 esp, ebp
  00386	5d		 pop	 ebp
  00387	c2 04 00	 ret	 4
_TEXT	ENDS
;	COMDAT text$x
text$x	SEGMENT
__unwindfunclet$?CallJunmunDlg@CTabSystemTradingEx@@QAEXPAVCSTOrderRData_EG@@@Z$0:
  00000	8b 45 e0	 mov	 eax, DWORD PTR $T2[ebp]
  00003	50		 push	 eax
  00004	e8 00 00 00 00	 call	 ??3CObject@@SGXPAX@Z	; CObject::operator delete
  00009	c3		 ret	 0
__unwindfunclet$?CallJunmunDlg@CTabSystemTradingEx@@QAEXPAVCSTOrderRData_EG@@@Z$1:
  0000a	8d 4d e4	 lea	 ecx, DWORD PTR _strParam$[ebp]
  0000d	ff 25 00 00 00
	00		 jmp	 DWORD PTR __imp_??1?$CStringT@DV?$StrTraitMFC_DLL@DV?$ChTraitsCRT@D@ATL@@@@@ATL@@QAE@XZ
__unwindfunclet$?CallJunmunDlg@CTabSystemTradingEx@@QAEXPAVCSTOrderRData_EG@@@Z$2:
  00013	8d 4d e8	 lea	 ecx, DWORD PTR _strScrNo$[ebp]
  00016	ff 25 00 00 00
	00		 jmp	 DWORD PTR __imp_??1?$CStringT@DV?$StrTraitMFC_DLL@DV?$ChTraitsCRT@D@ATL@@@@@ATL@@QAE@XZ
__unwindfunclet$?CallJunmunDlg@CTabSystemTradingEx@@QAEXPAVCSTOrderRData_EG@@@Z$3:
  0001c	8d 4d f0	 lea	 ecx, DWORD PTR _strItemCode$[ebp]
  0001f	ff 25 00 00 00
	00		 jmp	 DWORD PTR __imp_??1?$CStringT@DV?$StrTraitMFC_DLL@DV?$ChTraitsCRT@D@ATL@@@@@ATL@@QAE@XZ
  00025	cc		 int	 3
  00026	cc		 int	 3
  00027	cc		 int	 3
  00028	cc		 int	 3
  00029	cc		 int	 3
__ehhandler$?CallJunmunDlg@CTabSystemTradingEx@@QAEXPAVCSTOrderRData_EG@@@Z:
  0002a	90		 npad	 1
  0002b	90		 npad	 1
  0002c	8b 54 24 08	 mov	 edx, DWORD PTR [esp+8]
  00030	8d 42 0c	 lea	 eax, DWORD PTR [edx+12]
  00033	8b 4a dc	 mov	 ecx, DWORD PTR [edx-36]
  00036	33 c8		 xor	 ecx, eax
  00038	e8 00 00 00 00	 call	 @__security_check_cookie@4
  0003d	b8 00 00 00 00	 mov	 eax, OFFSET __ehfuncinfo$?CallJunmunDlg@CTabSystemTradingEx@@QAEXPAVCSTOrderRData_EG@@@Z
  00042	e9 00 00 00 00	 jmp	 ___CxxFrameHandler3
text$x	ENDS
?CallJunmunDlg@CTabSystemTradingEx@@QAEXPAVCSTOrderRData_EG@@@Z ENDP ; CTabSystemTradingEx::CallJunmunDlg
; Function compile flags: /Ogtp
; File D:\git\src\IBK\IBK_DRFN\ProjSrc\SrcDrfn\Chart\MULTICHART\TabSystemTradingEx.cpp
;	COMDAT ?IsAllowJumunBefore@CTabSystemTradingEx@@QAEHPBDAAV?$CStringT@DV?$StrTraitMFC_DLL@DV?$ChTraitsCRT@D@ATL@@@@@ATL@@@Z
_TEXT	SEGMENT
_szSTFile$ = 8						; size = 4
_szMsg$ = 12						; size = 4
?IsAllowJumunBefore@CTabSystemTradingEx@@QAEHPBDAAV?$CStringT@DV?$StrTraitMFC_DLL@DV?$ChTraitsCRT@D@ATL@@@@@ATL@@@Z PROC ; CTabSystemTradingEx::IsAllowJumunBefore, COMDAT
; _this$ = ecx

; 2267 : {

  00000	55		 push	 ebp
  00001	8b ec		 mov	 ebp, esp

; 2268 : 	int nCodeType = m_xSTAnalysisInput.GetCodeType();

  00003	8b 81 74 09 00
	00		 mov	 eax, DWORD PTR [ecx+2420]
  00009	81 c1 74 09 00
	00		 add	 ecx, 2420		; 00000974H
  0000f	56		 push	 esi
  00010	51		 push	 ecx
  00011	ff 50 18	 call	 DWORD PTR [eax+24]
  00014	8b f0		 mov	 esi, eax

; 2269 : 	if(nCodeType<0 || nCodeType==2)

  00016	85 f6		 test	 esi, esi
  00018	78 09		 js	 SHORT $LN5@IsAllowJum
  0001a	83 fe 02	 cmp	 esi, 2
  0001d	0f 85 92 00 00
	00		 jne	 $LN6@IsAllowJum
$LN5@IsAllowJum:

; 2270 : 	{
; 2271 : 		int nJMethod = ::GetPrivateProfileInt("RunJumun", "JMethod", 0, szSTFile);

  00023	ff 75 08	 push	 DWORD PTR _szSTFile$[ebp]
  00026	6a 00		 push	 0
  00028	68 00 00 00 00	 push	 OFFSET ??_C@_07OPLPMPLO@JMethod@
  0002d	68 00 00 00 00	 push	 OFFSET ??_C@_08IFJCKPBE@RunJumun@
  00032	ff 15 00 00 00
	00		 call	 DWORD PTR __imp__GetPrivateProfileIntA@16

; 2272 : 		if(nJMethod==1)

  00038	83 f8 01	 cmp	 eax, 1
  0003b	75 78		 jne	 SHORT $LN6@IsAllowJum

; 2273 : 		{
; 2274 : 			switch(nCodeType)

  0003d	8d 46 03	 lea	 eax, DWORD PTR [esi+3]
  00040	83 f8 05	 cmp	 eax, 5
  00043	77 5b		 ja	 SHORT $LN11@IsAllowJum
  00045	ff 24 85 00 00
	00 00		 jmp	 DWORD PTR $LN13@IsAllowJum[eax*4]
$LN7@IsAllowJum:

; 2275 : 			{
; 2276 : 			case 2:
; 2277 : 				szMsg = "  .";
; 2278 : 				break;
; 2279 : 			case -1:
; 2280 : 				szMsg = "MS30  .";
; 2281 : 				break;
; 2282 : 			case -2:
; 2283 : 				szMsg = "  .";
; 2284 : 				break;
; 2285 : 			case -3:
; 2286 : 				szMsg = "ELW  .";
; 2287 : 				break;
; 2288 : 			default:
; 2289 : 				szMsg = "    .";
; 2290 : 				break;
; 2291 : 			}
; 2292 : 			return FALSE;

  0004c	8b 4d 0c	 mov	 ecx, DWORD PTR _szMsg$[ebp]
  0004f	68 00 00 00 00	 push	 OFFSET ??_C@_0CC@IAIDCHCN@?$LO?w?A?$LO?A?v?$LM?v?$LP?$KB?$LM?$KN?$LE?B?5?A?V?$LJ?$KO?$MA?L?5?$LK?R?$LA?$KB?G?U?$LE?O?$LE@
  00054	ff 15 00 00 00
	00		 call	 DWORD PTR __imp_??4?$CStringT@DV?$StrTraitMFC_DLL@DV?$ChTraitsCRT@D@ATL@@@@@ATL@@QAEAAV01@PBD@Z
  0005a	33 c0		 xor	 eax, eax
  0005c	5e		 pop	 esi

; 2297 : }

  0005d	5d		 pop	 ebp
  0005e	c2 08 00	 ret	 8
$LN8@IsAllowJum:

; 2275 : 			{
; 2276 : 			case 2:
; 2277 : 				szMsg = "  .";
; 2278 : 				break;
; 2279 : 			case -1:
; 2280 : 				szMsg = "MS30  .";
; 2281 : 				break;
; 2282 : 			case -2:
; 2283 : 				szMsg = "  .";
; 2284 : 				break;
; 2285 : 			case -3:
; 2286 : 				szMsg = "ELW  .";
; 2287 : 				break;
; 2288 : 			default:
; 2289 : 				szMsg = "    .";
; 2290 : 				break;
; 2291 : 			}
; 2292 : 			return FALSE;

  00061	8b 4d 0c	 mov	 ecx, DWORD PTR _szMsg$[ebp]
  00064	68 00 00 00 00	 push	 OFFSET ??_C@_0BO@IJIBIHGG@MS30?$LP?$KB?$LM?$KN?$LE?B?5?A?V?$LJ?$KO?$MA?L?5?$LK?R?$LA?$KB?G?U?$LE?O?$LE?Y?4@
  00069	ff 15 00 00 00
	00		 call	 DWORD PTR __imp_??4?$CStringT@DV?$StrTraitMFC_DLL@DV?$ChTraitsCRT@D@ATL@@@@@ATL@@QAEAAV01@PBD@Z
  0006f	33 c0		 xor	 eax, eax
  00071	5e		 pop	 esi

; 2297 : }

  00072	5d		 pop	 ebp
  00073	c2 08 00	 ret	 8
$LN9@IsAllowJum:

; 2275 : 			{
; 2276 : 			case 2:
; 2277 : 				szMsg = "  .";
; 2278 : 				break;
; 2279 : 			case -1:
; 2280 : 				szMsg = "MS30  .";
; 2281 : 				break;
; 2282 : 			case -2:
; 2283 : 				szMsg = "  .";
; 2284 : 				break;
; 2285 : 			case -3:
; 2286 : 				szMsg = "ELW  .";
; 2287 : 				break;
; 2288 : 			default:
; 2289 : 				szMsg = "    .";
; 2290 : 				break;
; 2291 : 			}
; 2292 : 			return FALSE;

  00076	8b 4d 0c	 mov	 ecx, DWORD PTR _szMsg$[ebp]
  00079	68 00 00 00 00	 push	 OFFSET ??_C@_0CC@MKDBBJFD@?G?X?$LP?$NM?A?v?$LM?v?$LP?$KB?$LM?$KN?$LE?B?5?A?V?$LJ?$KO?$MA?L?5?$LK?R?$LA?$KB?G?U?$LE?O?$LE@
  0007e	ff 15 00 00 00
	00		 call	 DWORD PTR __imp_??4?$CStringT@DV?$StrTraitMFC_DLL@DV?$ChTraitsCRT@D@ATL@@@@@ATL@@QAEAAV01@PBD@Z
  00084	33 c0		 xor	 eax, eax
  00086	5e		 pop	 esi

; 2297 : }

  00087	5d		 pop	 ebp
  00088	c2 08 00	 ret	 8
$LN10@IsAllowJum:

; 2275 : 			{
; 2276 : 			case 2:
; 2277 : 				szMsg = "  .";
; 2278 : 				break;
; 2279 : 			case -1:
; 2280 : 				szMsg = "MS30  .";
; 2281 : 				break;
; 2282 : 			case -2:
; 2283 : 				szMsg = "  .";
; 2284 : 				break;
; 2285 : 			case -3:
; 2286 : 				szMsg = "ELW  .";
; 2287 : 				break;
; 2288 : 			default:
; 2289 : 				szMsg = "    .";
; 2290 : 				break;
; 2291 : 			}
; 2292 : 			return FALSE;

  0008b	8b 4d 0c	 mov	 ecx, DWORD PTR _szMsg$[ebp]
  0008e	68 00 00 00 00	 push	 OFFSET ??_C@_0BN@PNIKDDLL@ELW?$LP?$KB?$LM?$KN?$LE?B?5?A?V?$LJ?$KO?$MA?L?5?$LK?R?$LA?$KB?G?U?$LE?O?$LE?Y?4@
  00093	ff 15 00 00 00
	00		 call	 DWORD PTR __imp_??4?$CStringT@DV?$StrTraitMFC_DLL@DV?$ChTraitsCRT@D@ATL@@@@@ATL@@QAEAAV01@PBD@Z
  00099	33 c0		 xor	 eax, eax
  0009b	5e		 pop	 esi

; 2297 : }

  0009c	5d		 pop	 ebp
  0009d	c2 08 00	 ret	 8
$LN11@IsAllowJum:

; 2275 : 			{
; 2276 : 			case 2:
; 2277 : 				szMsg = "  .";
; 2278 : 				break;
; 2279 : 			case -1:
; 2280 : 				szMsg = "MS30  .";
; 2281 : 				break;
; 2282 : 			case -2:
; 2283 : 				szMsg = "  .";
; 2284 : 				break;
; 2285 : 			case -3:
; 2286 : 				szMsg = "ELW  .";
; 2287 : 				break;
; 2288 : 			default:
; 2289 : 				szMsg = "    .";
; 2290 : 				break;
; 2291 : 			}
; 2292 : 			return FALSE;

  000a0	8b 4d 0c	 mov	 ecx, DWORD PTR _szMsg$[ebp]
  000a3	68 00 00 00 00	 push	 OFFSET ??_C@_0CK@KDHMJHOM@?G?v?$MA?g?5?$LM?$LB?E?C?G?Q?5?A?$LO?$LI?q?$LP?$KB?$LM?$KN?$LE?B?5?A?V?$LJ?$KO?$MA?L?5?$LK@
  000a8	ff 15 00 00 00
	00		 call	 DWORD PTR __imp_??4?$CStringT@DV?$StrTraitMFC_DLL@DV?$ChTraitsCRT@D@ATL@@@@@ATL@@QAEAAV01@PBD@Z
  000ae	33 c0		 xor	 eax, eax
  000b0	5e		 pop	 esi

; 2297 : }

  000b1	5d		 pop	 ebp
  000b2	c2 08 00	 ret	 8
$LN6@IsAllowJum:

; 2293 : 		}
; 2294 : 	}
; 2295 : 
; 2296 : 	return TRUE;

  000b5	b8 01 00 00 00	 mov	 eax, 1
  000ba	5e		 pop	 esi

; 2297 : }

  000bb	5d		 pop	 ebp
  000bc	c2 08 00	 ret	 8
  000bf	90		 npad	 1
$LN13@IsAllowJum:
  000c0	00 00 00 00	 DD	 $LN10@IsAllowJum
  000c4	00 00 00 00	 DD	 $LN9@IsAllowJum
  000c8	00 00 00 00	 DD	 $LN8@IsAllowJum
  000cc	00 00 00 00	 DD	 $LN11@IsAllowJum
  000d0	00 00 00 00	 DD	 $LN11@IsAllowJum
  000d4	00 00 00 00	 DD	 $LN7@IsAllowJum
?IsAllowJumunBefore@CTabSystemTradingEx@@QAEHPBDAAV?$CStringT@DV?$StrTraitMFC_DLL@DV?$ChTraitsCRT@D@ATL@@@@@ATL@@@Z ENDP ; CTabSystemTradingEx::IsAllowJumunBefore
_TEXT	ENDS
; Function compile flags: /Ogtp
; File D:\git\src\IBK\IBK_DRFN\ProjSrc\SrcDrfn\Chart\MULTICHART\TabSystemTradingEx.cpp
; File C:\Program Files (x86)\Microsoft Visual Studio\2019\Community\VC\Tools\MSVC\14.29.30133\atlmfc\include\afxwin1.inl
; File D:\git\src\IBK\IBK_DRFN\ProjSrc\SrcDrfn\Chart\MULTICHART\TabSystemTradingEx.cpp
; File C:\Program Files (x86)\Microsoft Visual Studio\2019\Community\VC\Tools\MSVC\14.29.30133\atlmfc\include\afxwin1.inl
; File D:\git\src\IBK\IBK_DRFN\ProjSrc\SrcDrfn\Chart\MULTICHART\TabSystemTradingEx.cpp
;	COMDAT ?IsAllowJumun@CTabSystemTradingEx@@QAEHPAVCSTOrderRData_EG@@H@Z
_TEXT	SEGMENT
_pInData$ = 8						; size = 4
_bShowMsg$ = 12						; size = 4
?IsAllowJumun@CTabSystemTradingEx@@QAEHPAVCSTOrderRData_EG@@H@Z PROC ; CTabSystemTradingEx::IsAllowJumun, COMDAT
; _this$ = ecx

; 2230 : {

  00000	56		 push	 esi
  00001	8b f1		 mov	 esi, ecx
; File C:\Program Files (x86)\Microsoft Visual Studio\2019\Community\VC\Tools\MSVC\14.29.30133\atlmfc\include\afxwin1.inl

; 19   : 	{ return afxCurrentWinApp; }

  00003	e8 00 00 00 00	 call	 ?AfxGetModuleState@@YGPAVAFX_MODULE_STATE@@XZ ; AfxGetModuleState
; File D:\git\src\IBK\IBK_DRFN\ProjSrc\SrcDrfn\Chart\MULTICHART\TabSystemTradingEx.cpp

; 2231 : 	if(AfxGetApp()->GetProfileInt("STBAsic", "AllowJumun", 0)==1) 

  00008	6a 00		 push	 0
  0000a	68 00 00 00 00	 push	 OFFSET ??_C@_0L@CNMPMHDJ@AllowJumun@
  0000f	68 00 00 00 00	 push	 OFFSET ??_C@_07MBLBAEDA@STBAsic@
; File C:\Program Files (x86)\Microsoft Visual Studio\2019\Community\VC\Tools\MSVC\14.29.30133\atlmfc\include\afxwin1.inl

; 19   : 	{ return afxCurrentWinApp; }

  00014	8b 48 04	 mov	 ecx, DWORD PTR [eax+4]
; File D:\git\src\IBK\IBK_DRFN\ProjSrc\SrcDrfn\Chart\MULTICHART\TabSystemTradingEx.cpp

; 2231 : 	if(AfxGetApp()->GetProfileInt("STBAsic", "AllowJumun", 0)==1) 

  00017	8b 01		 mov	 eax, DWORD PTR [ecx]
  00019	ff 90 84 00 00
	00		 call	 DWORD PTR [eax+132]
  0001f	83 f8 01	 cmp	 eax, 1
  00022	74 2a		 je	 SHORT $LN4@IsAllowJum

; 2232 : 	{
; 2233 : 		return TRUE;
; 2234 : 	}
; 2235 : 
; 2236 : 	// HTS  0(HTS), 1(FO)
; 2237 : 	if (m_nUserType) 

  00024	83 be 28 08 00
	00 00		 cmp	 DWORD PTR [esi+2088], 0
  0002b	75 1b		 jne	 SHORT $LN8@IsAllowJum

; 2238 : 		return FALSE;
; 2239 : 
; 2240 : 	//2.  ,  ,   .
; 2241 : //	if(m_bSignCheckLogin==false) return FALSE;
; 2242 : 
; 2243 : 	//3.  
; 2244 : 	{
; 2245 : 		// InputBarDlg.h
; 2246 : 		// enum	{STOCK_CHART, UPJONG_CHART, FUTOPT_CHART, MS30_CHART, FOREIGN_CHART, ELW_CHART};
; 2247 : //		CStdDialog* pMainDlg = (CStdDialog*)m_pMultiChartWnd;
; 2248 : 		CInputBarDlg* pInputBarDlg = (CInputBarDlg*)((CChartMng*)m_pChartMng)->GetpInputBarDlg();
; 2249 : 
; 2250 : 		//       .
; 2251 : 		if(pInputBarDlg->m_nMarketType != CMasterTypeInfo::STOCK_CHART
; 2252 : 			&& pInputBarDlg->m_nMarketType != CMasterTypeInfo::FUTOPT_CHART)

  0002d	8b 86 c4 00 00
	00		 mov	 eax, DWORD PTR [esi+196]
  00033	8b 80 10 01 00
	00		 mov	 eax, DWORD PTR [eax+272]
  00039	8b 80 20 01 00
	00		 mov	 eax, DWORD PTR [eax+288]
  0003f	85 c0		 test	 eax, eax
  00041	74 0b		 je	 SHORT $LN4@IsAllowJum
  00043	83 f8 02	 cmp	 eax, 2
  00046	74 06		 je	 SHORT $LN4@IsAllowJum
$LN8@IsAllowJum:

; 2253 : 		{
; 2254 : 			return FALSE;

  00048	33 c0		 xor	 eax, eax
  0004a	5e		 pop	 esi

; 2262 : }

  0004b	c2 08 00	 ret	 8
$LN4@IsAllowJum:

; 2255 : 		}
; 2256 : 
; 2257 : 		//int		m_nDataAddMode; //2 :  
; 2258 : //		if(pInputBarDlg->m_nDataAddMode==2) return FALSE;
; 2259 : 	}
; 2260 : 
; 2261 : 	return TRUE;

  0004e	b8 01 00 00 00	 mov	 eax, 1
  00053	5e		 pop	 esi

; 2262 : }

  00054	c2 08 00	 ret	 8
?IsAllowJumun@CTabSystemTradingEx@@QAEHPAVCSTOrderRData_EG@@H@Z ENDP ; CTabSystemTradingEx::IsAllowJumun
_TEXT	ENDS
; Function compile flags: /Ogtp
; File D:\git\src\IBK\IBK_DRFN\ProjSrc\SrcDrfn\Chart\MULTICHART\TabSystemTradingEx.cpp
;	COMDAT ?PlayOrderSound@CTabSystemTradingEx@@QAEXHHPBDH0@Z
_TEXT	SEGMENT
_nOrderType$ = 8					; size = 4
_bBuySound$ = 12					; size = 4
_szBuyFile$ = 16					; size = 4
_bSellSound$ = 20					; size = 4
_szSellFile$ = 24					; size = 4
?PlayOrderSound@CTabSystemTradingEx@@QAEXHHPBDH0@Z PROC	; CTabSystemTradingEx::PlayOrderSound, COMDAT
; _this$ = ecx

; 2207 : {

  00000	55		 push	 ebp
  00001	8b ec		 mov	 ebp, esp
  00003	8b 45 08	 mov	 eax, DWORD PTR _nOrderType$[ebp]
  00006	a8 23		 test	 al, 35			; 00000023H

; 2208 : 	if( (nOrderType&FORCEDEXIT) || (nOrderType&VALEXITLONG) || (nOrderType&VALEXITSHORT) )

  00008	75 19		 jne	 SHORT $LN4@PlayOrderS

; 2211 : 	}
; 2212 : 	else if( (nOrderType & VALENTRYBUY) || (nOrderType & VALENTRYSELL) )

  0000a	a8 0c		 test	 al, 12			; 0000000cH
  0000c	74 26		 je	 SHORT $LN5@PlayOrderS

; 2213 : 	{
; 2214 : 		if(bBuySound) sndPlaySound (szBuyFile, SND_ASYNC);

  0000e	83 7d 0c 00	 cmp	 DWORD PTR _bBuySound$[ebp], 0
  00012	74 20		 je	 SHORT $LN5@PlayOrderS
  00014	6a 01		 push	 1
  00016	ff 75 10	 push	 DWORD PTR _szBuyFile$[ebp]

; 2215 : 	}
; 2216 : }

  00019	ff 15 00 00 00
	00		 call	 DWORD PTR __imp__sndPlaySoundA@8
  0001f	5d		 pop	 ebp
  00020	c2 14 00	 ret	 20			; 00000014H
$LN4@PlayOrderS:

; 2209 : 	{
; 2210 : 		if(bSellSound) sndPlaySound (szSellFile, SND_ASYNC);

  00023	83 7d 14 00	 cmp	 DWORD PTR _bSellSound$[ebp], 0
  00027	74 0b		 je	 SHORT $LN5@PlayOrderS
  00029	6a 01		 push	 1
  0002b	ff 75 18	 push	 DWORD PTR _szSellFile$[ebp]

; 2215 : 	}
; 2216 : }

  0002e	ff 15 00 00 00
	00		 call	 DWORD PTR __imp__sndPlaySoundA@8
$LN5@PlayOrderS:
  00034	5d		 pop	 ebp
  00035	c2 14 00	 ret	 20			; 00000014H
?PlayOrderSound@CTabSystemTradingEx@@QAEXHHPBDH0@Z ENDP	; CTabSystemTradingEx::PlayOrderSound
_TEXT	ENDS
; Function compile flags: /Ogtp
; File D:\git\src\IBK\IBK_DRFN\ProjSrc\SrcDrfn\Chart\MULTICHART\TabSystemTradingEx.cpp
; File C:\Program Files (x86)\Microsoft Visual Studio\2019\Community\VC\Tools\MSVC\14.29.30133\atlmfc\include\afxwin2.inl
; File D:\git\src\IBK\IBK_DRFN\ProjSrc\SrcDrfn\Chart\MULTICHART\TabSystemTradingEx.cpp
;	COMDAT ?OnStshowoption@CTabSystemTradingEx@@QAEXXZ
_TEXT	SEGMENT
?OnStshowoption@CTabSystemTradingEx@@QAEXXZ PROC	; CTabSystemTradingEx::OnStshowoption, COMDAT
; _this$ = ecx

; 1853 : {

  00000	55		 push	 ebp
  00001	8b ec		 mov	 ebp, esp
  00003	51		 push	 ecx
  00004	56		 push	 esi

; 1854 : 	// TODO:      .
; 1855 : 	if(m_bSTBtn_Click)//FALSE : Hide , TRUE:Show

  00005	6a ff		 push	 -1
  00007	6a ff		 push	 -1
  00009	8b f1		 mov	 esi, ecx
  0000b	6a 00		 push	 0
  0000d	51		 push	 ecx
  0000e	8b cc		 mov	 ecx, esp
  00010	83 be 14 08 00
	00 00		 cmp	 DWORD PTR [esi+2068], 0
  00017	68 00 00 00 00	 push	 OFFSET ??_C@_00CNPNBAHC@@
  0001c	74 2e		 je	 SHORT $LN2@OnStshowop

; 1856 : 	{
; 1857 : 		m_bSTBtn_Click = !m_bSTBtn_Click;

  0001e	c7 86 14 08 00
	00 00 00 00 00	 mov	 DWORD PTR [esi+2068], 0

; 1858 : 		m_BtnOption.FP_vSetImage(m_pIL_W20H20, 44, 46,TRUE,"",FALSE);//KHD

  00028	ff 15 00 00 00
	00		 call	 DWORD PTR __imp_??0?$CStringT@DV?$StrTraitMFC_DLL@DV?$ChTraitsCRT@D@ATL@@@@@ATL@@QAE@PBD@Z
  0002e	6a 01		 push	 1
  00030	6a 2e		 push	 46			; 0000002eH
  00032	6a 2c		 push	 44			; 0000002cH
  00034	ff b6 a8 00 00
	00		 push	 DWORD PTR [esi+168]
  0003a	8d 8e 58 06 00
	00		 lea	 ecx, DWORD PTR [esi+1624]
  00040	e8 00 00 00 00	 call	 ?FP_vSetImage@CILButton@@QAEXPAVCImageList@@HHHV?$CStringT@DV?$StrTraitMFC_DLL@DV?$ChTraitsCRT@D@ATL@@@@@ATL@@HHH@Z ; CILButton::FP_vSetImage

; 1859 : 		ShowHideStOptimaA(TRUE, TRUE);

  00045	b8 01 00 00 00	 mov	 eax, 1

; 1860 : 	}

  0004a	eb 29		 jmp	 SHORT $LN3@OnStshowop
$LN2@OnStshowop:

; 1861 : 	else
; 1862 : 	{
; 1863 : 		m_bSTBtn_Click = !m_bSTBtn_Click;

  0004c	c7 86 14 08 00
	00 01 00 00 00	 mov	 DWORD PTR [esi+2068], 1

; 1864 : 		m_BtnOption.FP_vSetImage(m_pIL_W20H20, 48, 50,TRUE,"",FALSE);//KHD  

  00056	ff 15 00 00 00
	00		 call	 DWORD PTR __imp_??0?$CStringT@DV?$StrTraitMFC_DLL@DV?$ChTraitsCRT@D@ATL@@@@@ATL@@QAE@PBD@Z
  0005c	6a 01		 push	 1
  0005e	6a 32		 push	 50			; 00000032H
  00060	6a 30		 push	 48			; 00000030H
  00062	ff b6 a8 00 00
	00		 push	 DWORD PTR [esi+168]
  00068	8d 8e 58 06 00
	00		 lea	 ecx, DWORD PTR [esi+1624]
  0006e	e8 00 00 00 00	 call	 ?FP_vSetImage@CILButton@@QAEXPAVCImageList@@HHHV?$CStringT@DV?$StrTraitMFC_DLL@DV?$ChTraitsCRT@D@ATL@@@@@ATL@@HHH@Z ; CILButton::FP_vSetImage

; 513  : 	ShowHideStOptimaA(TRUE, FALSE);		// bChange=TRUE, bShowOption=FALSE

  00073	33 c0		 xor	 eax, eax
$LN3@OnStshowop:
; File C:\Program Files (x86)\Microsoft Visual Studio\2019\Community\VC\Tools\MSVC\14.29.30133\atlmfc\include\afxwin2.inl

; 114  : 	{ ASSERT(::IsWindow(m_hWnd)); ::InvalidateRect(m_hWnd, NULL, bErase); }

  00075	6a 00		 push	 0
  00077	50		 push	 eax
  00078	6a 01		 push	 1
  0007a	8b ce		 mov	 ecx, esi
  0007c	e8 00 00 00 00	 call	 ?ShowHideStOptimaA@CTabSystemTradingEx@@QAEXHHH@Z ; CTabSystemTradingEx::ShowHideStOptimaA
  00081	6a 01		 push	 1
  00083	6a 00		 push	 0
  00085	ff b6 78 06 00
	00		 push	 DWORD PTR [esi+1656]
  0008b	ff 15 00 00 00
	00		 call	 DWORD PTR __imp__InvalidateRect@12
; File D:\git\src\IBK\IBK_DRFN\ProjSrc\SrcDrfn\Chart\MULTICHART\TabSystemTradingEx.cpp

; 1869 : }

  00091	5e		 pop	 esi
  00092	8b e5		 mov	 esp, ebp
  00094	5d		 pop	 ebp
  00095	c3		 ret	 0
?OnStshowoption@CTabSystemTradingEx@@QAEXXZ ENDP	; CTabSystemTradingEx::OnStshowoption
_TEXT	ENDS
; Function compile flags: /Ogtp
; File D:\git\src\IBK\IBK_DRFN\ProjSrc\SrcDrfn\Chart\MULTICHART\TabSystemTradingEx.cpp
; File C:\Program Files (x86)\Microsoft Visual Studio\2019\Community\VC\Tools\MSVC\14.29.30133\atlmfc\include\afxwin2.inl
; File D:\git\src\IBK\IBK_DRFN\ProjSrc\SrcDrfn\Chart\MULTICHART\TabSystemTradingEx.cpp
;	COMDAT ?OnBnClickedStchkdiv@CTabSystemTradingEx@@QAEXXZ
_TEXT	SEGMENT
?OnBnClickedStchkdiv@CTabSystemTradingEx@@QAEXXZ PROC	; CTabSystemTradingEx::OnBnClickedStchkdiv, COMDAT
; _this$ = ecx

; 1210 : {

  00000	55		 push	 ebp
  00001	8b ec		 mov	 ebp, esp
  00003	51		 push	 ecx
  00004	56		 push	 esi
  00005	57		 push	 edi
  00006	8b f9		 mov	 edi, ecx

; 1211 : 	if(!m_pDlgOption) return;

  00008	83 bf c0 07 00
	00 00		 cmp	 DWORD PTR [edi+1984], 0
  0000f	0f 84 de 00 00
	00		 je	 $LN3@OnBnClicke

; 1212 : 
; 1213 : 	UINT nChk = IsDlgButtonChecked(IDC_STCHKDIV);

  00015	68 7f 18 00 00	 push	 6271			; 0000187fH
  0001a	e8 00 00 00 00	 call	 ?IsDlgButtonChecked@CWnd@@QBEIH@Z ; CWnd::IsDlgButtonChecked

; 1214 : 	if(m_pDlgOption)

  0001f	8b 8f c0 07 00
	00		 mov	 ecx, DWORD PTR [edi+1984]
  00025	8b f0		 mov	 esi, eax
  00027	85 c9		 test	 ecx, ecx
  00029	0f 84 c4 00 00
	00		 je	 $LN3@OnBnClicke

; 1215 : 	{
; 1216 : 		m_pDlgOption->m_BtnSTApply.EnableWindow((BOOL)nChk);

  0002f	56		 push	 esi
  00030	81 c1 d0 03 00
	00		 add	 ecx, 976		; 000003d0H
  00036	e8 00 00 00 00	 call	 ?EnableWindow@CWnd@@QAEHH@Z ; CWnd::EnableWindow
  0003b	8b 87 bc 07 00
	00		 mov	 eax, DWORD PTR [edi+1980]

; 1217 : 		if(nChk)

  00041	85 f6		 test	 esi, esi
  00043	74 43		 je	 SHORT $LN4@OnBnClicke

; 1218 : 		{	
; 1219 : 			m_bSTBtn_Click = FALSE;

  00045	c7 87 14 08 00
	00 00 00 00 00	 mov	 DWORD PTR [edi+2068], 0

; 1220 : 			if(m_bShowOption) return;//KHD

  0004f	85 c0		 test	 eax, eax
  00051	0f 85 9c 00 00
	00		 jne	 $LN3@OnBnClicke

; 1221 : 			m_BtnOption.FP_vSetImage(m_pIL_W20H20, 44, 46,TRUE,"",FALSE);//KHD

  00057	6a ff		 push	 -1
  00059	6a ff		 push	 -1
  0005b	50		 push	 eax
  0005c	51		 push	 ecx
  0005d	8b cc		 mov	 ecx, esp
  0005f	68 00 00 00 00	 push	 OFFSET ??_C@_00CNPNBAHC@@
  00064	ff 15 00 00 00
	00		 call	 DWORD PTR __imp_??0?$CStringT@DV?$StrTraitMFC_DLL@DV?$ChTraitsCRT@D@ATL@@@@@ATL@@QAE@PBD@Z
  0006a	6a 01		 push	 1
  0006c	6a 2e		 push	 46			; 0000002eH
  0006e	6a 2c		 push	 44			; 0000002cH
  00070	ff b7 a8 00 00
	00		 push	 DWORD PTR [edi+168]
  00076	8d 8f 58 06 00
	00		 lea	 ecx, DWORD PTR [edi+1624]
  0007c	e8 00 00 00 00	 call	 ?FP_vSetImage@CILButton@@QAEXPAVCImageList@@HHHV?$CStringT@DV?$StrTraitMFC_DLL@DV?$ChTraitsCRT@D@ATL@@@@@ATL@@HHH@Z ; CILButton::FP_vSetImage

; 1222 : 			ShowHideStOptimaA(TRUE, TRUE);		// bChange=TRUE, bShowOption=TRUE

  00081	b8 01 00 00 00	 mov	 eax, 1

; 1223 : 		}

  00086	eb 3b		 jmp	 SHORT $LN5@OnBnClicke
$LN4@OnBnClicke:

; 1224 : 		else
; 1225 : 		{
; 1226 : 			m_bSTBtn_Click = TRUE;

  00088	c7 87 14 08 00
	00 01 00 00 00	 mov	 DWORD PTR [edi+2068], 1

; 1227 : 			if(!m_bShowOption) return;//KHD

  00092	85 c0		 test	 eax, eax
  00094	74 5d		 je	 SHORT $LN3@OnBnClicke

; 1228 : 			m_BtnOption.FP_vSetImage(m_pIL_W20H20, 48, 50,TRUE,"",FALSE);//KHD

  00096	6a ff		 push	 -1
  00098	6a ff		 push	 -1
  0009a	6a 00		 push	 0
  0009c	51		 push	 ecx
  0009d	8b cc		 mov	 ecx, esp
  0009f	68 00 00 00 00	 push	 OFFSET ??_C@_00CNPNBAHC@@
  000a4	ff 15 00 00 00
	00		 call	 DWORD PTR __imp_??0?$CStringT@DV?$StrTraitMFC_DLL@DV?$ChTraitsCRT@D@ATL@@@@@ATL@@QAE@PBD@Z
  000aa	6a 01		 push	 1
  000ac	6a 32		 push	 50			; 00000032H
  000ae	6a 30		 push	 48			; 00000030H
  000b0	ff b7 a8 00 00
	00		 push	 DWORD PTR [edi+168]
  000b6	8d 8f 58 06 00
	00		 lea	 ecx, DWORD PTR [edi+1624]
  000bc	e8 00 00 00 00	 call	 ?FP_vSetImage@CILButton@@QAEXPAVCImageList@@HHHV?$CStringT@DV?$StrTraitMFC_DLL@DV?$ChTraitsCRT@D@ATL@@@@@ATL@@HHH@Z ; CILButton::FP_vSetImage

; 1229 : 			ShowHideStOptimaA(TRUE, FALSE);		// bChange=TRUE, bShowOption=TRUE

  000c1	33 c0		 xor	 eax, eax
$LN5@OnBnClicke:
; File C:\Program Files (x86)\Microsoft Visual Studio\2019\Community\VC\Tools\MSVC\14.29.30133\atlmfc\include\afxwin2.inl

; 114  : 	{ ASSERT(::IsWindow(m_hWnd)); ::InvalidateRect(m_hWnd, NULL, bErase); }

  000c3	6a 00		 push	 0
  000c5	50		 push	 eax
  000c6	6a 01		 push	 1
  000c8	8b cf		 mov	 ecx, edi
  000ca	e8 00 00 00 00	 call	 ?ShowHideStOptimaA@CTabSystemTradingEx@@QAEXHHH@Z ; CTabSystemTradingEx::ShowHideStOptimaA
  000cf	8b 87 c0 07 00
	00		 mov	 eax, DWORD PTR [edi+1984]
  000d5	8b 35 00 00 00
	00		 mov	 esi, DWORD PTR __imp__InvalidateRect@12
  000db	6a 01		 push	 1
  000dd	6a 00		 push	 0
  000df	ff b0 f0 03 00
	00		 push	 DWORD PTR [eax+1008]
  000e5	ff d6		 call	 esi
  000e7	6a 01		 push	 1
  000e9	6a 00		 push	 0
  000eb	ff b7 78 06 00
	00		 push	 DWORD PTR [edi+1656]
  000f1	ff d6		 call	 esi
$LN3@OnBnClicke:
; File D:\git\src\IBK\IBK_DRFN\ProjSrc\SrcDrfn\Chart\MULTICHART\TabSystemTradingEx.cpp

; 1234 : }

  000f3	5f		 pop	 edi
  000f4	5e		 pop	 esi
  000f5	8b e5		 mov	 esp, ebp
  000f7	5d		 pop	 ebp
  000f8	c3		 ret	 0
?OnBnClickedStchkdiv@CTabSystemTradingEx@@QAEXXZ ENDP	; CTabSystemTradingEx::OnBnClickedStchkdiv
_TEXT	ENDS
; Function compile flags: /Ogtp
; File D:\git\src\IBK\IBK_DRFN\ProjSrc\SrcDrfn\Chart\MULTICHART\TabSystemTradingEx.cpp
;	COMDAT ?GetOutBarColor@CSTRunManager@CTabSystemTradingEx@@UAGJAAK0@Z
_TEXT	SEGMENT
_this$ = 8						; size = 4
_clrOLBkgrnd$ = 12					; size = 4
_clrOLOutLine$ = 16					; size = 4
?GetOutBarColor@CSTRunManager@CTabSystemTradingEx@@UAGJAAK0@Z PROC ; CTabSystemTradingEx::CSTRunManager::GetOutBarColor, COMDAT

; 986  : {

  00000	55		 push	 ebp
  00001	8b ec		 mov	 ebp, esp

; 987  : 	MYMETHOD_PROLOGUE(CTabSystemTradingEx, STRunManager)
; 988  : 
; 989  : 	clrOLBkgrnd = ((CStdDialog*)pThis->m_pMultiChartWnd)->m_clrOLBkgrnd;

  00003	8b 55 08	 mov	 edx, DWORD PTR _this$[ebp]
  00006	8b 82 10 f7 ff
	ff		 mov	 eax, DWORD PTR [edx-2288]
  0000c	8b 88 90 13 00
	00		 mov	 ecx, DWORD PTR [eax+5008]
  00012	8b 45 0c	 mov	 eax, DWORD PTR _clrOLBkgrnd$[ebp]
  00015	89 08		 mov	 DWORD PTR [eax], ecx

; 990  : 	clrOLOutLine = ((CStdDialog*)pThis->m_pMultiChartWnd)->m_clrOLOutLine;

  00017	8b 82 10 f7 ff
	ff		 mov	 eax, DWORD PTR [edx-2288]
  0001d	8b 88 94 13 00
	00		 mov	 ecx, DWORD PTR [eax+5012]
  00023	8b 45 10	 mov	 eax, DWORD PTR _clrOLOutLine$[ebp]
  00026	89 08		 mov	 DWORD PTR [eax], ecx

; 991  : 	return (LONG)1L;

  00028	b8 01 00 00 00	 mov	 eax, 1

; 992  : }

  0002d	5d		 pop	 ebp
  0002e	c2 0c 00	 ret	 12			; 0000000cH
?GetOutBarColor@CSTRunManager@CTabSystemTradingEx@@UAGJAAK0@Z ENDP ; CTabSystemTradingEx::CSTRunManager::GetOutBarColor
_TEXT	ENDS
; Function compile flags: /Ogtp
; File D:\git\src\IBK\IBK_DRFN\ProjSrc\SrcDrfn\Chart\MULTICHART\TabSystemTradingEx.cpp
; File C:\Program Files (x86)\Microsoft Visual Studio\2019\Community\VC\Tools\MSVC\14.29.30133\atlmfc\include\afxwin2.inl
; File D:\git\src\IBK\IBK_DRFN\ProjSrc\SrcDrfn\Chart\MULTICHART\TabSystemTradingEx.cpp
;	COMDAT ?GetViewHandle@CSTRunManager@CTabSystemTradingEx@@UAGJXZ
_TEXT	SEGMENT
_this$ = 8						; size = 4
?GetViewHandle@CSTRunManager@CTabSystemTradingEx@@UAGJXZ PROC ; CTabSystemTradingEx::CSTRunManager::GetViewHandle, COMDAT

; 977  : {

  00000	55		 push	 ebp
  00001	8b ec		 mov	 ebp, esp

; 978  : 	MYMETHOD_PROLOGUE(CTabSystemTradingEx, STRunManager)
; 979  : 
; 980  : 	//@Solomon
; 981  : 	//return (LONG)((CStdDialog*)pThis->m_pMultiChartWnd)->m_hViewInMain;
; 982  : 	return (LONG)((CStdDialog*)pThis->m_pMultiChartWnd)->GetSafeHwnd();

  00003	8b 45 08	 mov	 eax, DWORD PTR _this$[ebp]
  00006	8b 80 10 f7 ff
	ff		 mov	 eax, DWORD PTR [eax-2288]
; File C:\Program Files (x86)\Microsoft Visual Studio\2019\Community\VC\Tools\MSVC\14.29.30133\atlmfc\include\afxwin2.inl

; 25   : 	{ return this == NULL ? NULL : m_hWnd; }

  0000c	85 c0		 test	 eax, eax
  0000e	75 04		 jne	 SHORT $LN5@GetViewHan
; File D:\git\src\IBK\IBK_DRFN\ProjSrc\SrcDrfn\Chart\MULTICHART\TabSystemTradingEx.cpp

; 983  : }

  00010	5d		 pop	 ebp
  00011	c2 04 00	 ret	 4
$LN5@GetViewHan:

; 978  : 	MYMETHOD_PROLOGUE(CTabSystemTradingEx, STRunManager)
; 979  : 
; 980  : 	//@Solomon
; 981  : 	//return (LONG)((CStdDialog*)pThis->m_pMultiChartWnd)->m_hViewInMain;
; 982  : 	return (LONG)((CStdDialog*)pThis->m_pMultiChartWnd)->GetSafeHwnd();

  00014	8b 40 20	 mov	 eax, DWORD PTR [eax+32]

; 983  : }

  00017	5d		 pop	 ebp
  00018	c2 04 00	 ret	 4
?GetViewHandle@CSTRunManager@CTabSystemTradingEx@@UAGJXZ ENDP ; CTabSystemTradingEx::CSTRunManager::GetViewHandle
_TEXT	ENDS
; Function compile flags: /Ogtp
; File D:\git\src\IBK\IBK_DRFN\ProjSrc\SrcDrfn\Chart\MULTICHART\TabSystemTradingEx.cpp
;	COMDAT ?GetSelectedSTInfo@CSTRunManager@CTabSystemTradingEx@@UAGJXZ
_TEXT	SEGMENT
_this$ = 8						; size = 4
?GetSelectedSTInfo@CSTRunManager@CTabSystemTradingEx@@UAGJXZ PROC ; CTabSystemTradingEx::CSTRunManager::GetSelectedSTInfo, COMDAT

; 968  : {

  00000	55		 push	 ebp
  00001	8b ec		 mov	 ebp, esp

; 969  : 	MYMETHOD_PROLOGUE(CTabSystemTradingEx, STRunManager)
; 970  : 
; 971  : 	if(pThis->m_bEmptyWizard) return NULL;

  00003	8b 45 08	 mov	 eax, DWORD PTR _this$[ebp]
  00006	83 b8 48 fe ff
	ff 00		 cmp	 DWORD PTR [eax-440], 0
  0000d	74 06		 je	 SHORT $LN2@GetSelecte
  0000f	33 c0		 xor	 eax, eax

; 974  : }

  00011	5d		 pop	 ebp
  00012	c2 04 00	 ret	 4
$LN2@GetSelecte:

; 972  : 
; 973  : 	return (LONG)&pThis->m_xSTAnalysisInput.m_Info;

  00015	83 c0 c8	 add	 eax, -56		; ffffffc8H

; 974  : }

  00018	5d		 pop	 ebp
  00019	c2 04 00	 ret	 4
?GetSelectedSTInfo@CSTRunManager@CTabSystemTradingEx@@UAGJXZ ENDP ; CTabSystemTradingEx::CSTRunManager::GetSelectedSTInfo
_TEXT	ENDS
; Function compile flags: /Ogtp
; File D:\git\src\IBK\IBK_DRFN\ProjSrc\SrcDrfn\Chart\MULTICHART\TabSystemTradingEx.cpp
; File C:\Program Files (x86)\Microsoft Visual Studio\2019\Community\VC\Tools\MSVC\14.29.30133\atlmfc\include\atlsimpstr.h
; File D:\git\src\IBK\IBK_DRFN\ProjSrc\SrcDrfn\Chart\MULTICHART\TabSystemTradingEx.cpp
; File C:\Program Files (x86)\Microsoft Visual Studio\2019\Community\VC\Tools\MSVC\14.29.30133\atlmfc\include\atlsimpstr.h
; File D:\git\src\IBK\IBK_DRFN\ProjSrc\SrcDrfn\Chart\MULTICHART\TabSystemTradingEx.cpp
; File C:\Program Files (x86)\Microsoft Visual Studio\2019\Community\VC\Tools\MSVC\14.29.30133\atlmfc\include\afxwin2.inl
; File D:\git\src\IBK\IBK_DRFN\ProjSrc\SrcDrfn\Chart\MULTICHART\TabSystemTradingEx.cpp
;	COMDAT ?RunST@CSTRunManager@CTabSystemTradingEx@@UAGHHAAV?$CStringT@DV?$StrTraitMFC_DLL@DV?$ChTraitsCRT@D@ATL@@@@@ATL@@J@Z
_TEXT	SEGMENT
_szSTName$ = -4						; size = 4
_szMsg$1 = 8						; size = 4
_this$ = 8						; size = 4
_bImsiRun$ = 12						; size = 4
_szRunFile$ = 16					; size = 4
__pInData$ = 20						; size = 4
?RunST@CSTRunManager@CTabSystemTradingEx@@UAGHHAAV?$CStringT@DV?$StrTraitMFC_DLL@DV?$ChTraitsCRT@D@ATL@@@@@ATL@@J@Z PROC ; CTabSystemTradingEx::CSTRunManager::RunST, COMDAT

; 916  : {

  00000	55		 push	 ebp
  00001	8b ec		 mov	 ebp, esp
  00003	51		 push	 ecx
  00004	56		 push	 esi

; 917  : 	STMNG_ITEMINFO* pInData = (STMNG_ITEMINFO*)_pInData;
; 918  : 	int nRet = 0;
; 919  : 	MYMETHOD_PROLOGUE(CTabSystemTradingEx, STRunManager)
; 920  : 
; 921  : 	if (pThis->m_pDlgOption == NULL)

  00005	8b 75 08	 mov	 esi, DWORD PTR _this$[ebp]
  00008	83 be 10 fe ff
	ff 00		 cmp	 DWORD PTR [esi-496], 0
  0000f	0f 84 e7 00 00
	00		 je	 $LN27@RunST

; 922  : 		return nRet;
; 923  : 
; 924  : 	CString szSTName;

  00015	53		 push	 ebx
  00016	57		 push	 edi
  00017	8d 4d fc	 lea	 ecx, DWORD PTR _szSTName$[ebp]
  0001a	ff 15 00 00 00
	00		 call	 DWORD PTR __imp_??0?$CStringT@DV?$StrTraitMFC_DLL@DV?$ChTraitsCRT@D@ATL@@@@@ATL@@QAE@XZ

; 925  : 	{
; 926  : //		//     
; 927  : //		pThis->m_xSTAnalysisInput.m_Info.nSTType		= pInData->nSTType;
; 928  : //		pThis->m_xSTAnalysisInput.m_Info.szSTName		= pInData->szSTName;
; 929  : //		pThis->m_xSTAnalysisInput.m_Info.szSTPath		= pInData->szSTPath;
; 930  : //		pThis->m_xSTAnalysisInput.m_Info.szSTRData		= pInData->szSTRData;	
; 931  : //		pThis->m_xSTAnalysisInput.m_Info.nFolderIndx	= pInData->nFolderIndx;
; 932  : //		pThis->m_xSTAnalysisInput.m_Info.nItemIndx		= pInData->nItemIndx;
; 933  : 
; 934  : 		{
; 935  : 			CString szMsg;

  00020	8d 4d 08	 lea	 ecx, DWORD PTR _szMsg$1[ebp]
  00023	ff 15 00 00 00
	00		 call	 DWORD PTR __imp_??0?$CStringT@DV?$StrTraitMFC_DLL@DV?$ChTraitsCRT@D@ATL@@@@@ATL@@QAE@XZ
; File C:\Program Files (x86)\Microsoft Visual Studio\2019\Community\VC\Tools\MSVC\14.29.30133\atlmfc\include\atlsimpstr.h

; 377  : 		return( m_pszData );

  00029	8b 5d 10	 mov	 ebx, DWORD PTR _szRunFile$[ebp]
; File D:\git\src\IBK\IBK_DRFN\ProjSrc\SrcDrfn\Chart\MULTICHART\TabSystemTradingEx.cpp

; 2268 : 	int nCodeType = m_xSTAnalysisInput.GetCodeType();

  0002c	8d 46 c4	 lea	 eax, DWORD PTR [esi-60]
  0002f	8b 08		 mov	 ecx, DWORD PTR [eax]
  00031	50		 push	 eax
; File C:\Program Files (x86)\Microsoft Visual Studio\2019\Community\VC\Tools\MSVC\14.29.30133\atlmfc\include\atlsimpstr.h

; 377  : 		return( m_pszData );

  00032	8b 1b		 mov	 ebx, DWORD PTR [ebx]
; File D:\git\src\IBK\IBK_DRFN\ProjSrc\SrcDrfn\Chart\MULTICHART\TabSystemTradingEx.cpp

; 2268 : 	int nCodeType = m_xSTAnalysisInput.GetCodeType();

  00034	ff 51 18	 call	 DWORD PTR [ecx+24]
  00037	8b f8		 mov	 edi, eax

; 2269 : 	if(nCodeType<0 || nCodeType==2)

  00039	85 ff		 test	 edi, edi
  0003b	78 05		 js	 SHORT $LN13@RunST
  0003d	83 ff 02	 cmp	 edi, 2
  00040	75 5d		 jne	 SHORT $LN3@RunST
$LN13@RunST:

; 2270 : 	{
; 2271 : 		int nJMethod = ::GetPrivateProfileInt("RunJumun", "JMethod", 0, szSTFile);

  00042	53		 push	 ebx
  00043	6a 00		 push	 0
  00045	68 00 00 00 00	 push	 OFFSET ??_C@_07OPLPMPLO@JMethod@
  0004a	68 00 00 00 00	 push	 OFFSET ??_C@_08IFJCKPBE@RunJumun@
  0004f	ff 15 00 00 00
	00		 call	 DWORD PTR __imp__GetPrivateProfileIntA@16

; 2272 : 		if(nJMethod==1)

  00055	83 f8 01	 cmp	 eax, 1
  00058	75 45		 jne	 SHORT $LN3@RunST

; 2273 : 		{
; 2274 : 			switch(nCodeType)

  0005a	8d 47 03	 lea	 eax, DWORD PTR [edi+3]
  0005d	83 f8 05	 cmp	 eax, 5
  00060	77 23		 ja	 SHORT $LN19@RunST
  00062	ff 24 85 00 00
	00 00		 jmp	 DWORD PTR $LN26@RunST[eax*4]
$LN15@RunST:

; 2275 : 			{
; 2276 : 			case 2:
; 2277 : 				szMsg = "  .";

  00069	68 00 00 00 00	 push	 OFFSET ??_C@_0CC@IAIDCHCN@?$LO?w?A?$LO?A?v?$LM?v?$LP?$KB?$LM?$KN?$LE?B?5?A?V?$LJ?$KO?$MA?L?5?$LK?R?$LA?$KB?G?U?$LE?O?$LE@

; 2278 : 				break;

  0006e	eb 1a		 jmp	 SHORT $LN28@RunST
$LN16@RunST:

; 2279 : 			case -1:
; 2280 : 				szMsg = "MS30  .";

  00070	68 00 00 00 00	 push	 OFFSET ??_C@_0BO@IJIBIHGG@MS30?$LP?$KB?$LM?$KN?$LE?B?5?A?V?$LJ?$KO?$MA?L?5?$LK?R?$LA?$KB?G?U?$LE?O?$LE?Y?4@

; 2281 : 				break;

  00075	eb 13		 jmp	 SHORT $LN28@RunST
$LN17@RunST:

; 2282 : 			case -2:
; 2283 : 				szMsg = "  .";

  00077	68 00 00 00 00	 push	 OFFSET ??_C@_0CC@MKDBBJFD@?G?X?$LP?$NM?A?v?$LM?v?$LP?$KB?$LM?$KN?$LE?B?5?A?V?$LJ?$KO?$MA?L?5?$LK?R?$LA?$KB?G?U?$LE?O?$LE@

; 2284 : 				break;

  0007c	eb 0c		 jmp	 SHORT $LN28@RunST
$LN18@RunST:

; 2285 : 			case -3:
; 2286 : 				szMsg = "ELW  .";

  0007e	68 00 00 00 00	 push	 OFFSET ??_C@_0BN@PNIKDDLL@ELW?$LP?$KB?$LM?$KN?$LE?B?5?A?V?$LJ?$KO?$MA?L?5?$LK?R?$LA?$KB?G?U?$LE?O?$LE?Y?4@

; 2287 : 				break;

  00083	eb 05		 jmp	 SHORT $LN28@RunST
$LN19@RunST:

; 2288 : 			default:
; 2289 : 				szMsg = "    .";

  00085	68 00 00 00 00	 push	 OFFSET ??_C@_0CK@KDHMJHOM@?G?v?$MA?g?5?$LM?$LB?E?C?G?Q?5?A?$LO?$LI?q?$LP?$KB?$LM?$KN?$LE?B?5?A?V?$LJ?$KO?$MA?L?5?$LK@
$LN28@RunST:

; 936  : 			if(pThis->IsAllowJumunBefore(szRunFile, szMsg)==FALSE)
; 937  : 				AfxMessageBox(szMsg);

  0008a	8d 4d 08	 lea	 ecx, DWORD PTR _szMsg$1[ebp]
  0008d	ff 15 00 00 00
	00		 call	 DWORD PTR __imp_??4?$CStringT@DV?$StrTraitMFC_DLL@DV?$ChTraitsCRT@D@ATL@@@@@ATL@@QAEAAV01@PBD@Z
  00093	6a 00		 push	 0
  00095	6a 00		 push	 0
  00097	ff 75 08	 push	 DWORD PTR _szMsg$1[ebp]
  0009a	e8 00 00 00 00	 call	 ?AfxMessageBox@@YGHPBDII@Z ; AfxMessageBox
$LN3@RunST:

; 938  : 		}

  0009f	8d 4d 08	 lea	 ecx, DWORD PTR _szMsg$1[ebp]
  000a2	ff 15 00 00 00
	00		 call	 DWORD PTR __imp_??1?$CStringT@DV?$StrTraitMFC_DLL@DV?$ChTraitsCRT@D@ATL@@@@@ATL@@QAE@XZ

; 939  : 
; 940  : 		//       .
; 941  : 		if(pThis->m_pSTLoadMnger)

  000a8	8b 8e 38 fe ff
	ff		 mov	 ecx, DWORD PTR [esi-456]
  000ae	85 c9		 test	 ecx, ecx
  000b0	74 09		 je	 SHORT $LN4@RunST

; 942  : 			pThis->m_pSTLoadMnger->SetSelectedItem(pInData);

  000b2	ff 75 14	 push	 DWORD PTR __pInData$[ebp]
  000b5	8b 01		 mov	 eax, DWORD PTR [ecx]
  000b7	51		 push	 ecx
  000b8	ff 50 28	 call	 DWORD PTR [eax+40]
$LN4@RunST:

; 943  : 	}
; 944  : /*
; 945  : 	CSTConfigEnv envHelper;
; 946  : 	envHelper.LoadInfo(szRunFile, szRunFile, STConfigEnv_Jumun);
; 947  : 	if (envHelper.m_InfoJumun.m_nJMethod > 0)
; 948  : 	{
; 949  : 		// Send2Server .
; 950  : 		// Send2SErver .
; 951  : 	}
; 952  : */
; 953  : 	// CDlgSTExOption      
; 954  : 	// RunMultiST(); .
; 955  : 	// 1 , 2 .
; 956  : 	//1.
; 957  : 	// pThis->m_pDlgOption->PostMessage(WM_COMMAND, IDC_STAPPLY, 0);
; 958  : 	// 2.
; 959  : 	pThis->m_szImsiRunSTFile = "";

  000bb	68 00 00 00 00	 push	 OFFSET ??_C@_00CNPNBAHC@@
  000c0	8d 4e bc	 lea	 ecx, DWORD PTR [esi-68]
  000c3	ff 15 00 00 00
	00		 call	 DWORD PTR __imp_??4?$CStringT@DV?$StrTraitMFC_DLL@DV?$ChTraitsCRT@D@ATL@@@@@ATL@@QAEAAV01@PBD@Z

; 960  : 	if(bImsiRun) pThis->m_szImsiRunSTFile = szRunFile;

  000c9	83 7d 0c 00	 cmp	 DWORD PTR _bImsiRun$[ebp], 0
  000cd	74 0c		 je	 SHORT $LN5@RunST
  000cf	ff 75 10	 push	 DWORD PTR _szRunFile$[ebp]
  000d2	8d 4e bc	 lea	 ecx, DWORD PTR [esi-68]
  000d5	ff 15 00 00 00
	00		 call	 DWORD PTR __imp_??4?$CStringT@DV?$StrTraitMFC_DLL@DV?$ChTraitsCRT@D@ATL@@@@@ATL@@QAEAAV01@ABV01@@Z
$LN5@RunST:
; File C:\Program Files (x86)\Microsoft Visual Studio\2019\Community\VC\Tools\MSVC\14.29.30133\atlmfc\include\afxwin2.inl

; 39   : 	{ ASSERT(::IsWindow(m_hWnd)); return ::PostMessage(m_hWnd, message, wParam, lParam); }

  000db	6a 00		 push	 0
  000dd	6a 00		 push	 0
  000df	ff 35 00 00 00
	00		 push	 DWORD PTR ?RMSG_RUN_MULTIST@@3IB
  000e5	ff b6 70 f6 ff
	ff		 push	 DWORD PTR [esi-2448]
  000eb	ff 15 00 00 00
	00		 call	 DWORD PTR __imp__PostMessageA@16
; File D:\git\src\IBK\IBK_DRFN\ProjSrc\SrcDrfn\Chart\MULTICHART\TabSystemTradingEx.cpp

; 964  : 	return nRet;

  000f1	8d 4d fc	 lea	 ecx, DWORD PTR _szSTName$[ebp]
  000f4	ff 15 00 00 00
	00		 call	 DWORD PTR __imp_??1?$CStringT@DV?$StrTraitMFC_DLL@DV?$ChTraitsCRT@D@ATL@@@@@ATL@@QAE@XZ
  000fa	5f		 pop	 edi
  000fb	5b		 pop	 ebx
$LN27@RunST:

; 965  : }

  000fc	33 c0		 xor	 eax, eax
  000fe	5e		 pop	 esi
  000ff	8b e5		 mov	 esp, ebp
  00101	5d		 pop	 ebp
  00102	c2 10 00	 ret	 16			; 00000010H
  00105	0f 1f 00	 npad	 3
$LN26@RunST:
  00108	00 00 00 00	 DD	 $LN18@RunST
  0010c	00 00 00 00	 DD	 $LN17@RunST
  00110	00 00 00 00	 DD	 $LN16@RunST
  00114	00 00 00 00	 DD	 $LN19@RunST
  00118	00 00 00 00	 DD	 $LN19@RunST
  0011c	00 00 00 00	 DD	 $LN15@RunST
?RunST@CSTRunManager@CTabSystemTradingEx@@UAGHHAAV?$CStringT@DV?$StrTraitMFC_DLL@DV?$ChTraitsCRT@D@ATL@@@@@ATL@@J@Z ENDP ; CTabSystemTradingEx::CSTRunManager::RunST
_TEXT	ENDS
; Function compile flags: /Ogtp
;	COMDAT ??1CSTAnalysisInput@CTabSystemTradingEx@@QAE@XZ
_TEXT	SEGMENT
??1CSTAnalysisInput@CTabSystemTradingEx@@QAE@XZ PROC	; CTabSystemTradingEx::CSTAnalysisInput::~CSTAnalysisInput, COMDAT
; _this$ = ecx
  00000	56		 push	 esi
  00001	57		 push	 edi
  00002	8b f9		 mov	 edi, ecx
  00004	8d 4f 24	 lea	 ecx, DWORD PTR [edi+36]
  00007	ff 15 00 00 00
	00		 call	 DWORD PTR __imp_??1?$CStringT@DV?$StrTraitMFC_DLL@DV?$ChTraitsCRT@D@ATL@@@@@ATL@@QAE@XZ
  0000d	8d 4f 20	 lea	 ecx, DWORD PTR [edi+32]
  00010	ff 15 00 00 00
	00		 call	 DWORD PTR __imp_??1?$CStringT@DV?$StrTraitMFC_DLL@DV?$ChTraitsCRT@D@ATL@@@@@ATL@@QAE@XZ
  00016	8d 4f 1c	 lea	 ecx, DWORD PTR [edi+28]
  00019	ff 15 00 00 00
	00		 call	 DWORD PTR __imp_??1?$CStringT@DV?$StrTraitMFC_DLL@DV?$ChTraitsCRT@D@ATL@@@@@ATL@@QAE@XZ
  0001f	8d 4f 0c	 lea	 ecx, DWORD PTR [edi+12]
  00022	ff 15 00 00 00
	00		 call	 DWORD PTR __imp_??1?$CStringT@DV?$StrTraitMFC_DLL@DV?$ChTraitsCRT@D@ATL@@@@@ATL@@QAE@XZ
  00028	8d 4f 08	 lea	 ecx, DWORD PTR [edi+8]
  0002b	ff 15 00 00 00
	00		 call	 DWORD PTR __imp_??1?$CStringT@DV?$StrTraitMFC_DLL@DV?$ChTraitsCRT@D@ATL@@@@@ATL@@QAE@XZ
  00031	8d 4f 04	 lea	 ecx, DWORD PTR [edi+4]
  00034	5f		 pop	 edi
  00035	5e		 pop	 esi
  00036	ff 25 00 00 00
	00		 jmp	 DWORD PTR __imp_??1?$CStringT@DV?$StrTraitMFC_DLL@DV?$ChTraitsCRT@D@ATL@@@@@ATL@@QAE@XZ
??1CSTAnalysisInput@CTabSystemTradingEx@@QAE@XZ ENDP	; CTabSystemTradingEx::CSTAnalysisInput::~CSTAnalysisInput
_TEXT	ENDS
; Function compile flags: /Ogtp
; File D:\git\src\IBK\IBK_DRFN\ProjSrc\SrcDrfn\Chart\MULTICHART\TabSystemTradingEx.cpp
;	COMDAT ??0CSTAnalysisInput@CTabSystemTradingEx@@QAE@XZ
_TEXT	SEGMENT
_this$ = -4						; size = 4
??0CSTAnalysisInput@CTabSystemTradingEx@@QAE@XZ PROC	; CTabSystemTradingEx::CSTAnalysisInput::CSTAnalysisInput, COMDAT
; _this$ = ecx

; 670  : {

  00000	55		 push	 ebp
  00001	8b ec		 mov	 ebp, esp
  00003	51		 push	 ecx
  00004	56		 push	 esi
  00005	57		 push	 edi
  00006	8b f9		 mov	 edi, ecx
  00008	89 7d fc	 mov	 DWORD PTR _this$[ebp], edi
  0000b	8d 4f 04	 lea	 ecx, DWORD PTR [edi+4]
  0000e	c7 07 00 00 00
	00		 mov	 DWORD PTR [edi], OFFSET ??_7CSTAnalysisInput@CTabSystemTradingEx@@6B@
  00014	ff 15 00 00 00
	00		 call	 DWORD PTR __imp_??0?$CStringT@DV?$StrTraitMFC_DLL@DV?$ChTraitsCRT@D@ATL@@@@@ATL@@QAE@XZ
  0001a	8d 4f 08	 lea	 ecx, DWORD PTR [edi+8]
  0001d	ff 15 00 00 00
	00		 call	 DWORD PTR __imp_??0?$CStringT@DV?$StrTraitMFC_DLL@DV?$ChTraitsCRT@D@ATL@@@@@ATL@@QAE@XZ
  00023	8d 4f 0c	 lea	 ecx, DWORD PTR [edi+12]
  00026	ff 15 00 00 00
	00		 call	 DWORD PTR __imp_??0?$CStringT@DV?$StrTraitMFC_DLL@DV?$ChTraitsCRT@D@ATL@@@@@ATL@@QAE@XZ
  0002c	8d 4f 1c	 lea	 ecx, DWORD PTR [edi+28]
  0002f	ff 15 00 00 00
	00		 call	 DWORD PTR __imp_??0?$CStringT@DV?$StrTraitMFC_DLL@DV?$ChTraitsCRT@D@ATL@@@@@ATL@@QAE@XZ
  00035	8d 4f 20	 lea	 ecx, DWORD PTR [edi+32]
  00038	ff 15 00 00 00
	00		 call	 DWORD PTR __imp_??0?$CStringT@DV?$StrTraitMFC_DLL@DV?$ChTraitsCRT@D@ATL@@@@@ATL@@QAE@XZ
  0003e	8d 4f 24	 lea	 ecx, DWORD PTR [edi+36]
  00041	ff 15 00 00 00
	00		 call	 DWORD PTR __imp_??0?$CStringT@DV?$StrTraitMFC_DLL@DV?$ChTraitsCRT@D@ATL@@@@@ATL@@QAE@XZ

; 671  : 	m_bUseUserData = FALSE;

  00047	c7 47 34 00 00
	00 00		 mov	 DWORD PTR [edi+52], 0

; 672  : 	m_pInterfaceUserData = NULL;
; 673  : }

  0004e	8b c7		 mov	 eax, edi
  00050	c7 47 38 00 00
	00 00		 mov	 DWORD PTR [edi+56], 0
  00057	5f		 pop	 edi
  00058	5e		 pop	 esi
  00059	8b e5		 mov	 esp, ebp
  0005b	5d		 pop	 ebp
  0005c	c3		 ret	 0
??0CSTAnalysisInput@CTabSystemTradingEx@@QAE@XZ ENDP	; CTabSystemTradingEx::CSTAnalysisInput::CSTAnalysisInput
_TEXT	ENDS
; Function compile flags: /Ogtp
; File D:\git\src\IBK\IBK_DRFN\ProjSrc\SrcDrfn\Chart\MULTICHART\TabSystemTradingEx.cpp
; File C:\Program Files (x86)\Microsoft Visual Studio\2019\Community\VC\Tools\MSVC\14.29.30133\atlmfc\include\afxwin2.inl
; File D:\git\src\IBK\IBK_DRFN\ProjSrc\SrcDrfn\Chart\MULTICHART\TabSystemTradingEx.cpp
;	COMDAT ?GetControl@CSTAnalysisInput@CTabSystemTradingEx@@UAGJH@Z
_TEXT	SEGMENT
_this$ = 8						; size = 4
_nID$ = 12						; size = 4
?GetControl@CSTAnalysisInput@CTabSystemTradingEx@@UAGJH@Z PROC ; CTabSystemTradingEx::CSTAnalysisInput::GetControl, COMDAT

; 860  : {

  00000	55		 push	 ebp
  00001	8b ec		 mov	 ebp, esp

; 861  : 	MYMETHOD_PROLOGUE(CTabSystemTradingEx, STAnalysisInput)
; 862  : 
; 863  : 	if(nID==0)

  00003	8b 45 0c	 mov	 eax, DWORD PTR _nID$[ebp]
  00006	56		 push	 esi
  00007	8b 75 08	 mov	 esi, DWORD PTR _this$[ebp]
  0000a	81 c6 8c f6 ff
	ff		 add	 esi, -2420		; fffff68cH
  00010	85 c0		 test	 eax, eax
  00012	75 1c		 jne	 SHORT $LN2@GetControl

; 864  : 	{
; 865  : 		CChartItem* pCItem = ((CChartMng*)pThis->m_pChartMng)->GetpChartItemSelected();

  00014	8b 8e c4 00 00
	00		 mov	 ecx, DWORD PTR [esi+196]
  0001a	e8 00 00 00 00	 call	 ?GetpChartItemSelected@CChartMng@@QAEPAVCChartItem@@XZ ; CChartMng::GetpChartItemSelected

; 866  : 		pThis->m_STExChartItem.m_pChartItem = pCItem;

  0001f	89 86 f4 07 00
	00		 mov	 DWORD PTR [esi+2036], eax

; 867  : 		//return (LONG)pCItem;
; 868  : 		return (long)&pThis->m_STExChartItem;

  00025	8d 86 f0 07 00
	00		 lea	 eax, DWORD PTR [esi+2032]
  0002b	5e		 pop	 esi

; 883  : }

  0002c	5d		 pop	 ebp
  0002d	c2 08 00	 ret	 8
$LN2@GetControl:

; 869  : 	}
; 870  : 	else if(nID==1)

  00030	83 f8 01	 cmp	 eax, 1
  00033	75 14		 jne	 SHORT $LN4@GetControl

; 871  : 	{
; 872  : 		if(pThis->m_pDlgOption==0) return NULL;

  00035	8b 86 c0 07 00
	00		 mov	 eax, DWORD PTR [esi+1984]
  0003b	85 c0		 test	 eax, eax
  0003d	74 1b		 je	 SHORT $LN7@GetControl

; 873  : 
; 874  : 		return (LONG)(&pThis->m_pDlgOption->m_CtlList);

  0003f	05 c0 01 00 00	 add	 eax, 448		; 000001c0H
  00044	5e		 pop	 esi

; 883  : }

  00045	5d		 pop	 ebp
  00046	c2 08 00	 ret	 8
$LN4@GetControl:

; 875  : 	}
; 876  : 	else if(nID==2)//CTabSystemTradingEx .:  :KHD

  00049	83 f8 02	 cmp	 eax, 2
  0004c	75 0c		 jne	 SHORT $LN7@GetControl
; File C:\Program Files (x86)\Microsoft Visual Studio\2019\Community\VC\Tools\MSVC\14.29.30133\atlmfc\include\afxwin2.inl

; 25   : 	{ return this == NULL ? NULL : m_hWnd; }

  0004e	85 f6		 test	 esi, esi
  00050	74 08		 je	 SHORT $LN7@GetControl
  00052	8b 46 20	 mov	 eax, DWORD PTR [esi+32]
  00055	5e		 pop	 esi
; File D:\git\src\IBK\IBK_DRFN\ProjSrc\SrcDrfn\Chart\MULTICHART\TabSystemTradingEx.cpp

; 883  : }

  00056	5d		 pop	 ebp
  00057	c2 08 00	 ret	 8
$LN7@GetControl:
  0005a	33 c0		 xor	 eax, eax
  0005c	5e		 pop	 esi
  0005d	5d		 pop	 ebp
  0005e	c2 08 00	 ret	 8
?GetControl@CSTAnalysisInput@CTabSystemTradingEx@@UAGJH@Z ENDP ; CTabSystemTradingEx::CSTAnalysisInput::GetControl
_TEXT	ENDS
; Function compile flags: /Ogtp
; File D:\git\src\IBK\IBK_DRFN\ProjSrc\SrcDrfn\Chart\MULTICHART\TabSystemTradingEx.cpp
;	COMDAT ?IsDivide@CSTAnalysisInput@CTabSystemTradingEx@@UAGHXZ
_TEXT	SEGMENT
_this$ = 8						; size = 4
?IsDivide@CSTAnalysisInput@CTabSystemTradingEx@@UAGHXZ PROC ; CTabSystemTradingEx::CSTAnalysisInput::IsDivide, COMDAT

; 816  : {

  00000	55		 push	 ebp
  00001	8b ec		 mov	 ebp, esp

; 817  : 	MYMETHOD_PROLOGUE(CTabSystemTradingEx, STAnalysisInput)

  00003	8b 4d 08	 mov	 ecx, DWORD PTR _this$[ebp]

; 818  : 	return pThis->IsDlgButtonChecked(IDC_STCHKDIV);

  00006	68 7f 18 00 00	 push	 6271			; 0000187fH
  0000b	8d 89 8c f6 ff
	ff		 lea	 ecx, DWORD PTR [ecx-2420]
  00011	e8 00 00 00 00	 call	 ?IsDlgButtonChecked@CWnd@@QBEIH@Z ; CWnd::IsDlgButtonChecked

; 819  : }

  00016	5d		 pop	 ebp
  00017	c2 04 00	 ret	 4
?IsDivide@CSTAnalysisInput@CTabSystemTradingEx@@UAGHXZ ENDP ; CTabSystemTradingEx::CSTAnalysisInput::IsDivide
_TEXT	ENDS
; Function compile flags: /Ogtp
; File D:\git\src\IBK\IBK_DRFN\ProjSrc\SrcDrfn\Chart\MULTICHART\TabSystemTradingEx.cpp
;	COMDAT ?GetChartData@CSTAnalysisInput@CTabSystemTradingEx@@UAGHAAJ000000@Z
_TEXT	SEGMENT
_this$ = 8						; size = 4
_dwDataTime$ = 12					; size = 4
_dwDataOpen$ = 16					; size = 4
_dwDataHigh$ = 20					; size = 4
_dwDataLow$ = 24					; size = 4
_dwDataClose$ = 28					; size = 4
_dwDataVolume$ = 32					; size = 4
_dwDataExt$ = 36					; size = 4
?GetChartData@CSTAnalysisInput@CTabSystemTradingEx@@UAGHAAJ000000@Z PROC ; CTabSystemTradingEx::CSTAnalysisInput::GetChartData, COMDAT

; 893  : {

  00000	55		 push	 ebp
  00001	8b ec		 mov	 ebp, esp

; 894  : 	MYMETHOD_PROLOGUE(CTabSystemTradingEx, STAnalysisInput)
; 895  : 
; 896  : 	CChartItem* pCItem = ((CChartMng*)pThis->m_pChartMng)->GetpChartItemSelected();

  00003	8b 4d 08	 mov	 ecx, DWORD PTR _this$[ebp]
  00006	56		 push	 esi
  00007	8b 89 50 f7 ff
	ff		 mov	 ecx, DWORD PTR [ecx-2224]
  0000d	e8 00 00 00 00	 call	 ?GetpChartItemSelected@CChartMng@@QAEPAVCChartItem@@XZ ; CChartMng::GetpChartItemSelected

; 897  : 	IMainExInfoManager2* pMng = (IMainExInfoManager2*)AfxGetPctrInterface(UUID_IMainExInfoManager2);

  00012	6a 16		 push	 22			; 00000016H
  00014	8b f0		 mov	 esi, eax
  00016	e8 00 00 00 00	 call	 ?AfxGetPctrInterface@@YGJH@Z ; AfxGetPctrInterface

; 898  : 	if(!pMng) return 0;

  0001b	85 c0		 test	 eax, eax
  0001d	74 14		 je	 SHORT $LN3@GetChartDa

; 899  : 
; 900  : 	LONG rValue = pMng->GetUserExData((LONG)pCItem);

  0001f	8b 08		 mov	 ecx, DWORD PTR [eax]
  00021	56		 push	 esi
  00022	50		 push	 eax
  00023	ff 51 18	 call	 DWORD PTR [ecx+24]

; 901  : 	TRACE("key=%ld, rValue=%ld\n", pCItem, rValue);
; 902  : 
; 903  : 	ISTAddinData* pAddinDataMng = (ISTAddinData*)rValue;
; 904  : 	if(pAddinDataMng)

  00026	85 c0		 test	 eax, eax
  00028	74 09		 je	 SHORT $LN3@GetChartDa

; 905  : 	{
; 906  : 		// ST         - ojtaso (20080609)
; 907  : 		return pAddinDataMng->GetChartData(dwDataTime, dwDataOpen, dwDataHigh, dwDataLow, dwDataClose, dwDataVolume, dwDataExt);

  0002a	8b 08		 mov	 ecx, DWORD PTR [eax]
  0002c	5e		 pop	 esi
  0002d	89 45 08	 mov	 DWORD PTR _this$[ebp], eax

; 910  : }

  00030	5d		 pop	 ebp

; 905  : 	{
; 906  : 		// ST         - ojtaso (20080609)
; 907  : 		return pAddinDataMng->GetChartData(dwDataTime, dwDataOpen, dwDataHigh, dwDataLow, dwDataClose, dwDataVolume, dwDataExt);

  00031	ff 21		 jmp	 DWORD PTR [ecx]
$LN3@GetChartDa:

; 908  : 	}
; 909  : 	return 0;	//    .

  00033	33 c0		 xor	 eax, eax
  00035	5e		 pop	 esi

; 910  : }

  00036	5d		 pop	 ebp
  00037	c2 20 00	 ret	 32			; 00000020H
?GetChartData@CSTAnalysisInput@CTabSystemTradingEx@@UAGHAAJ000000@Z ENDP ; CTabSystemTradingEx::CSTAnalysisInput::GetChartData
_TEXT	ENDS
; Function compile flags: /Ogtp
; File D:\git\src\IBK\IBK_DRFN\ProjSrc\SrcDrfn\Chart\MULTICHART\TabSystemTradingEx.cpp
;	COMDAT ?GetDeivideRate@CSTAnalysisInput@CTabSystemTradingEx@@UAGNXZ
_TEXT	SEGMENT
_this$ = 8						; size = 4
?GetDeivideRate@CSTAnalysisInput@CTabSystemTradingEx@@UAGNXZ PROC ; CTabSystemTradingEx::CSTAnalysisInput::GetDeivideRate, COMDAT

; 850  : {

  00000	55		 push	 ebp
  00001	8b ec		 mov	 ebp, esp

; 851  : 	MYMETHOD_PROLOGUE(CTabSystemTradingEx, STAnalysisInput)
; 852  : 	if(pThis->m_pDlgOption) return pThis->m_pDlgOption->GetRepRate();

  00003	8b 45 08	 mov	 eax, DWORD PTR _this$[ebp]
  00006	8b 88 4c fe ff
	ff		 mov	 ecx, DWORD PTR [eax-436]
  0000c	85 c9		 test	 ecx, ecx
  0000e	74 09		 je	 SHORT $LN2@GetDeivide
  00010	e8 00 00 00 00	 call	 ?GetRepRate@CDlgSTExOption@@QAENXZ ; CDlgSTExOption::GetRepRate

; 855  : }

  00015	5d		 pop	 ebp
  00016	c2 04 00	 ret	 4
$LN2@GetDeivide:

; 853  : 
; 854  : 	return 0;

  00019	d9 ee		 fldz

; 855  : }

  0001b	5d		 pop	 ebp
  0001c	c2 04 00	 ret	 4
?GetDeivideRate@CSTAnalysisInput@CTabSystemTradingEx@@UAGNXZ ENDP ; CTabSystemTradingEx::CSTAnalysisInput::GetDeivideRate
_TEXT	ENDS
; Function compile flags: /Ogtp
; File D:\git\src\IBK\IBK_DRFN\ProjSrc\SrcDrfn\Chart\MULTICHART\TabSystemTradingEx.cpp
;	COMDAT ?GetUnitPos@CSTAnalysisInput@CTabSystemTradingEx@@UAGHXZ
_TEXT	SEGMENT
_this$ = 8						; size = 4
?GetUnitPos@CSTAnalysisInput@CTabSystemTradingEx@@UAGHXZ PROC ; CTabSystemTradingEx::CSTAnalysisInput::GetUnitPos, COMDAT

; 755  : {

  00000	55		 push	 ebp
  00001	8b ec		 mov	 ebp, esp

; 756  : 	MYMETHOD_PROLOGUE(CTabSystemTradingEx, STAnalysisInput)
; 757  : 
; 758  : 	USE_INPUTBARDLG();
; 759  : 	int nType = pInputBarDlg->GetUnitPos();
; 760  : 	return nType;

  00003	8b 45 08	 mov	 eax, DWORD PTR _this$[ebp]
  00006	8b 80 50 f7 ff
	ff		 mov	 eax, DWORD PTR [eax-2224]
  0000c	8b 80 10 01 00
	00		 mov	 eax, DWORD PTR [eax+272]
  00012	8b 80 b4 2b 00
	00		 mov	 eax, DWORD PTR [eax+11188]

; 761  : }

  00018	5d		 pop	 ebp
  00019	c2 04 00	 ret	 4
?GetUnitPos@CSTAnalysisInput@CTabSystemTradingEx@@UAGHXZ ENDP ; CTabSystemTradingEx::CSTAnalysisInput::GetUnitPos
_TEXT	ENDS
; Function compile flags: /Ogtp
; File D:\git\src\IBK\IBK_DRFN\ProjSrc\SrcDrfn\Chart\MULTICHART\TabSystemTradingEx.cpp
;	COMDAT ?GetDivideState@CSTAnalysisInput@CTabSystemTradingEx@@UAGHXZ
_TEXT	SEGMENT
_this$ = 8						; size = 4
?GetDivideState@CSTAnalysisInput@CTabSystemTradingEx@@UAGHXZ PROC ; CTabSystemTradingEx::CSTAnalysisInput::GetDivideState, COMDAT

; 838  : {

  00000	55		 push	 ebp
  00001	8b ec		 mov	 ebp, esp

; 839  : 	MYMETHOD_PROLOGUE(CTabSystemTradingEx, STAnalysisInput)
; 840  : 
; 841  : 	USE_INPUTBARDLG();
; 842  : 	int nType = pInputBarDlg->GetType() - '0';

  00003	8b 45 08	 mov	 eax, DWORD PTR _this$[ebp]
  00006	8b 80 50 f7 ff
	ff		 mov	 eax, DWORD PTR [eax-2224]
  0000c	8b 80 10 01 00
	00		 mov	 eax, DWORD PTR [eax+272]
  00012	0f be 80 b0 2b
	00 00		 movsx	 eax, BYTE PTR [eax+11184]
  00019	83 e8 30	 sub	 eax, 48			; 00000030H

; 843  : 
; 844  : 	return nType;
; 845  : }

  0001c	5d		 pop	 ebp
  0001d	c2 04 00	 ret	 4
?GetDivideState@CSTAnalysisInput@CTabSystemTradingEx@@UAGHXZ ENDP ; CTabSystemTradingEx::CSTAnalysisInput::GetDivideState
_TEXT	ENDS
; Function compile flags: /Ogtp
; File D:\git\src\IBK\IBK_DRFN\ProjSrc\SrcDrfn\Chart\MULTICHART\TabSystemTradingEx.cpp
;	COMDAT ?GetDivideCnt@CSTAnalysisInput@CTabSystemTradingEx@@UAGHXZ
_TEXT	SEGMENT
_this$ = 8						; size = 4
?GetDivideCnt@CSTAnalysisInput@CTabSystemTradingEx@@UAGHXZ PROC ; CTabSystemTradingEx::CSTAnalysisInput::GetDivideCnt, COMDAT

; 823  : {

  00000	55		 push	 ebp
  00001	8b ec		 mov	 ebp, esp
  00003	56		 push	 esi

; 824  : 	MYMETHOD_PROLOGUE(CTabSystemTradingEx, STAnalysisInput)
; 825  : 	BOOL bIsDive = IsDivide();

  00004	8b 75 08	 mov	 esi, DWORD PTR _this$[ebp]
  00007	56		 push	 esi
  00008	8b 06		 mov	 eax, DWORD PTR [esi]
  0000a	ff 50 3c	 call	 DWORD PTR [eax+60]

; 826  : 	if(!bIsDive)

  0000d	85 c0		 test	 eax, eax
  0000f	75 0a		 jne	 SHORT $LN2@GetDivideC

; 827  : 		return 1; 

  00011	b8 01 00 00 00	 mov	 eax, 1
  00016	5e		 pop	 esi

; 832  : }

  00017	5d		 pop	 ebp
  00018	c2 04 00	 ret	 4
$LN2@GetDivideC:

; 828  : 		
; 829  : 	if(pThis->m_pDlgOption) return pThis->m_pDlgOption->GetDivCount();

  0001b	8b 8e 4c fe ff
	ff		 mov	 ecx, DWORD PTR [esi-436]
  00021	85 c9		 test	 ecx, ecx
  00023	74 0a		 je	 SHORT $LN3@GetDivideC
  00025	e8 00 00 00 00	 call	 ?GetDivCount@CDlgSTExOption@@QAEHXZ ; CDlgSTExOption::GetDivCount
  0002a	5e		 pop	 esi

; 832  : }

  0002b	5d		 pop	 ebp
  0002c	c2 04 00	 ret	 4
$LN3@GetDivideC:

; 830  : 
; 831  : 	return 0;

  0002f	33 c0		 xor	 eax, eax
  00031	5e		 pop	 esi

; 832  : }

  00032	5d		 pop	 ebp
  00033	c2 04 00	 ret	 4
?GetDivideCnt@CSTAnalysisInput@CTabSystemTradingEx@@UAGHXZ ENDP ; CTabSystemTradingEx::CSTAnalysisInput::GetDivideCnt
_TEXT	ENDS
; Function compile flags: /Ogtp
; File D:\git\src\IBK\IBK_DRFN\ProjSrc\SrcDrfn\Chart\MULTICHART\TabSystemTradingEx.cpp
;	COMDAT ?GetEndDay@CSTAnalysisInput@CTabSystemTradingEx@@UAG?AV?$CStringT@DV?$StrTraitMFC_DLL@DV?$ChTraitsCRT@D@ATL@@@@@ATL@@XZ
_TEXT	SEGMENT
_this$ = 8						; size = 4
___$ReturnUdt$ = 12					; size = 4
?GetEndDay@CSTAnalysisInput@CTabSystemTradingEx@@UAG?AV?$CStringT@DV?$StrTraitMFC_DLL@DV?$ChTraitsCRT@D@ATL@@@@@ATL@@XZ PROC ; CTabSystemTradingEx::CSTAnalysisInput::GetEndDay, COMDAT

; 806  : {

  00000	55		 push	 ebp
  00001	8b ec		 mov	 ebp, esp

; 807  : 	MYMETHOD_PROLOGUE(CTabSystemTradingEx, STAnalysisInput)
; 808  : 
; 809  : 	CStdDialog* pMainDlg = (CStdDialog*)pThis->m_pMultiChartWnd;
; 810  : 	CString szTmp = ((CChartMng*)pThis->m_pChartMng)->GetpChartItemSelected()->GetEndDate();

  00003	8b 4d 08	 mov	 ecx, DWORD PTR _this$[ebp]
  00006	ff 75 0c	 push	 DWORD PTR ___$ReturnUdt$[ebp]
  00009	8b 89 50 f7 ff
	ff		 mov	 ecx, DWORD PTR [ecx-2224]
  0000f	e8 00 00 00 00	 call	 ?GetpChartItemSelected@CChartMng@@QAEPAVCChartItem@@XZ ; CChartMng::GetpChartItemSelected
  00014	8b c8		 mov	 ecx, eax
  00016	e8 00 00 00 00	 call	 ?GetEndDate@CChartItem@@QAE?AV?$CStringT@DV?$StrTraitMFC_DLL@DV?$ChTraitsCRT@D@ATL@@@@@ATL@@XZ ; CChartItem::GetEndDate

; 811  : 	return szTmp;

  0001b	8b 45 0c	 mov	 eax, DWORD PTR ___$ReturnUdt$[ebp]

; 812  : }

  0001e	5d		 pop	 ebp
  0001f	c2 08 00	 ret	 8
?GetEndDay@CSTAnalysisInput@CTabSystemTradingEx@@UAG?AV?$CStringT@DV?$StrTraitMFC_DLL@DV?$ChTraitsCRT@D@ATL@@@@@ATL@@XZ ENDP ; CTabSystemTradingEx::CSTAnalysisInput::GetEndDay
_TEXT	ENDS
; Function compile flags: /Ogtp
; File D:\git\src\IBK\IBK_DRFN\ProjSrc\SrcDrfn\Chart\MULTICHART\TabSystemTradingEx.cpp
;	COMDAT ?GetCount@CSTAnalysisInput@CTabSystemTradingEx@@UAGHXZ
_TEXT	SEGMENT
_this$ = 8						; size = 4
?GetCount@CSTAnalysisInput@CTabSystemTradingEx@@UAGHXZ PROC ; CTabSystemTradingEx::CSTAnalysisInput::GetCount, COMDAT

; 792  : {

  00000	55		 push	 ebp
  00001	8b ec		 mov	 ebp, esp

; 793  : 	MYMETHOD_PROLOGUE(CTabSystemTradingEx, STAnalysisInput)
; 794  : 
; 795  : 	CStdDialog* pMainDlg = (CStdDialog*)pThis->m_pMultiChartWnd;
; 796  : 	//int nTmp = ((CChartMng*)pThis->m_pChartMng)->GetpChartItemSelected()->m_nSaveAllCount;
; 797  : 	int nTmp = ((CChartMng*)pThis->m_pChartMng)->GetpInputBarDlg()->GetDlgItemInt(IDC_EDITZOOMVALUE);

  00003	8b 45 08	 mov	 eax, DWORD PTR _this$[ebp]
  00006	6a 01		 push	 1
  00008	6a 00		 push	 0
  0000a	68 fd 17 00 00	 push	 6141			; 000017fdH
  0000f	8b 88 50 f7 ff
	ff		 mov	 ecx, DWORD PTR [eax-2224]
  00015	8b 89 10 01 00
	00		 mov	 ecx, DWORD PTR [ecx+272]
  0001b	e8 00 00 00 00	 call	 ?GetDlgItemInt@CWnd@@QBEIHPAHH@Z ; CWnd::GetDlgItemInt

; 798  : 
; 799  : 	return nTmp;
; 800  : 
; 801  : }

  00020	5d		 pop	 ebp
  00021	c2 04 00	 ret	 4
?GetCount@CSTAnalysisInput@CTabSystemTradingEx@@UAGHXZ ENDP ; CTabSystemTradingEx::CSTAnalysisInput::GetCount
_TEXT	ENDS
; Function compile flags: /Ogtp
; File D:\git\src\IBK\IBK_DRFN\ProjSrc\SrcDrfn\Chart\MULTICHART\TabSystemTradingEx.cpp
;	COMDAT ?GetSTInfo@CSTAnalysisInput@CTabSystemTradingEx@@UAGHPAUSTMNG_ITEMINFO@@@Z
_TEXT	SEGMENT
_this$ = 8						; size = 4
_pArg$ = 12						; size = 4
?GetSTInfo@CSTAnalysisInput@CTabSystemTradingEx@@UAGHPAUSTMNG_ITEMINFO@@@Z PROC ; CTabSystemTradingEx::CSTAnalysisInput::GetSTInfo, COMDAT

; 765  : {

  00000	55		 push	 ebp
  00001	8b ec		 mov	 ebp, esp
  00003	56		 push	 esi

; 766  : 	MYMETHOD_PROLOGUE(CTabSystemTradingEx, STAnalysisInput)
; 767  : 
; 768  : 	////   (  & STType )
; 769  : 	//CString szFolderPath;
; 770  : 	//szFolderPath = m_xSTAnalysisInput.m_Info.szSTPath;
; 771  : 	//szFolderPath += "\\";
; 772  : 	//szFolderPath += m_xSTAnalysisInput.m_Info.szSTName;
; 773  : 
; 774  : 	////    (".ST" )
; 775  : 	//STLISTITEMDATA	dataItem;
; 776  : 	//dataItem.szSTPath = szFolderPath;
; 777  : 	//dataItem.bUserFolder = m_xSTAnalysisInput.m_Info.nSTType;
; 778  : 
; 779  : 	pArg->nSTType	= m_InfoForAnalysis.nSTType	;

  00004	8b 75 08	 mov	 esi, DWORD PTR _this$[ebp]
  00007	57		 push	 edi
  00008	8b 7d 0c	 mov	 edi, DWORD PTR _pArg$[ebp]
  0000b	8b 46 28	 mov	 eax, DWORD PTR [esi+40]
  0000e	89 47 0c	 mov	 DWORD PTR [edi+12], eax

; 780  : 	pArg->szSTName	= m_InfoForAnalysis.szSTName;

  00011	8d 4f 04	 lea	 ecx, DWORD PTR [edi+4]
  00014	8d 46 20	 lea	 eax, DWORD PTR [esi+32]
  00017	50		 push	 eax
  00018	ff 15 00 00 00
	00		 call	 DWORD PTR __imp_??4?$CStringT@DV?$StrTraitMFC_DLL@DV?$ChTraitsCRT@D@ATL@@@@@ATL@@QAEAAV01@ABV01@@Z

; 781  : 	pArg->szSTPath	= m_InfoForAnalysis.szSTPath;

  0001e	8d 46 24	 lea	 eax, DWORD PTR [esi+36]
  00021	50		 push	 eax
  00022	8d 4f 08	 lea	 ecx, DWORD PTR [edi+8]
  00025	ff 15 00 00 00
	00		 call	 DWORD PTR __imp_??4?$CStringT@DV?$StrTraitMFC_DLL@DV?$ChTraitsCRT@D@ATL@@@@@ATL@@QAEAAV01@ABV01@@Z

; 782  : 	pArg->szSTRData = m_InfoForAnalysis.szSTRData;

  0002b	8d 46 1c	 lea	 eax, DWORD PTR [esi+28]
  0002e	8b cf		 mov	 ecx, edi
  00030	50		 push	 eax
  00031	ff 15 00 00 00
	00		 call	 DWORD PTR __imp_??4?$CStringT@DV?$StrTraitMFC_DLL@DV?$ChTraitsCRT@D@ATL@@@@@ATL@@QAEAAV01@ABV01@@Z

; 783  : 
; 784  : 	// 06.07.24   MACD_  .
; 785  : 	return TRUE;

  00037	5f		 pop	 edi
  00038	b8 01 00 00 00	 mov	 eax, 1
  0003d	5e		 pop	 esi

; 786  : }

  0003e	5d		 pop	 ebp
  0003f	c2 08 00	 ret	 8
?GetSTInfo@CSTAnalysisInput@CTabSystemTradingEx@@UAGHPAUSTMNG_ITEMINFO@@@Z ENDP ; CTabSystemTradingEx::CSTAnalysisInput::GetSTInfo
_TEXT	ENDS
; Function compile flags: /Ogtp
; File D:\git\src\IBK\IBK_DRFN\ProjSrc\SrcDrfn\Chart\MULTICHART\TabSystemTradingEx.cpp
;	COMDAT ?GetCodeType@CSTAnalysisInput@CTabSystemTradingEx@@UAGHXZ
_TEXT	SEGMENT
_nCodeTypeID$ = -16					; size = 12
__$ArrayPad$ = -4					; size = 4
_this$ = 8						; size = 4
?GetCodeType@CSTAnalysisInput@CTabSystemTradingEx@@UAGHXZ PROC ; CTabSystemTradingEx::CSTAnalysisInput::GetCodeType, COMDAT

; 741  : {

  00000	55		 push	 ebp
  00001	8b ec		 mov	 ebp, esp
  00003	83 ec 10	 sub	 esp, 16			; 00000010H
  00006	a1 00 00 00 00	 mov	 eax, DWORD PTR ___security_cookie
  0000b	33 c5		 xor	 eax, ebp
  0000d	89 45 fc	 mov	 DWORD PTR __$ArrayPad$[ebp], eax

; 742  : 	MYMETHOD_PROLOGUE(CTabSystemTradingEx, STAnalysisInput)
; 743  : 
; 744  : 	//CStdDialog* pMainDlg = (CStdDialog*)pThis->m_pStdDialog;
; 745  : 	//CInputBarDlg* pInputBarDlg = (CInputBarDlg*)((CChartMng*)pThis->m_pChartMng)->GetpInputBarDlg();
; 746  : 	USE_INPUTBARDLG();
; 747  : 
; 748  : 	int nCodeTypeID[] = {0,2,1};
; 749  : 	int nType = nCodeTypeID[pInputBarDlg->m_nMarketType];

  00010	8b 45 08	 mov	 eax, DWORD PTR _this$[ebp]

; 750  : 
; 751  : 	return nType;
; 752  : }

  00013	8b 4d fc	 mov	 ecx, DWORD PTR __$ArrayPad$[ebp]
  00016	c7 45 f0 00 00
	00 00		 mov	 DWORD PTR _nCodeTypeID$[ebp], 0
  0001d	33 cd		 xor	 ecx, ebp
  0001f	c7 45 f4 02 00
	00 00		 mov	 DWORD PTR _nCodeTypeID$[ebp+4], 2
  00026	8b 80 50 f7 ff
	ff		 mov	 eax, DWORD PTR [eax-2224]
  0002c	c7 45 f8 01 00
	00 00		 mov	 DWORD PTR _nCodeTypeID$[ebp+8], 1
  00033	8b 80 10 01 00
	00		 mov	 eax, DWORD PTR [eax+272]
  00039	8b 80 20 01 00
	00		 mov	 eax, DWORD PTR [eax+288]
  0003f	8b 44 85 f0	 mov	 eax, DWORD PTR _nCodeTypeID$[ebp+eax*4]
  00043	e8 00 00 00 00	 call	 @__security_check_cookie@4
  00048	8b e5		 mov	 esp, ebp
  0004a	5d		 pop	 ebp
  0004b	c2 04 00	 ret	 4
?GetCodeType@CSTAnalysisInput@CTabSystemTradingEx@@UAGHXZ ENDP ; CTabSystemTradingEx::CSTAnalysisInput::GetCodeType
_TEXT	ENDS
; Function compile flags: /Ogtp
; File D:\git\src\IBK\IBK_DRFN\ProjSrc\SrcDrfn\Chart\MULTICHART\TabSystemTradingEx.cpp
;	COMDAT ?GetCodeName@CSTAnalysisInput@CTabSystemTradingEx@@UAG?AV?$CStringT@DV?$StrTraitMFC_DLL@DV?$ChTraitsCRT@D@ATL@@@@@ATL@@XZ
_TEXT	SEGMENT
_szCode$ = 8						; size = 4
_this$ = 8						; size = 4
$T1 = 12						; size = 4
___$ReturnUdt$ = 12					; size = 4
?GetCodeName@CSTAnalysisInput@CTabSystemTradingEx@@UAG?AV?$CStringT@DV?$StrTraitMFC_DLL@DV?$ChTraitsCRT@D@ATL@@@@@ATL@@XZ PROC ; CTabSystemTradingEx::CSTAnalysisInput::GetCodeName, COMDAT

; 721  : {

  00000	55		 push	 ebp
  00001	8b ec		 mov	 ebp, esp
  00003	56		 push	 esi

; 722  : 	MYMETHOD_PROLOGUE(CTabSystemTradingEx, STAnalysisInput)
; 723  : 	CString szCode = GetCode();

  00004	8b 75 08	 mov	 esi, DWORD PTR _this$[ebp]
  00007	8d 4d 08	 lea	 ecx, DWORD PTR _szCode$[ebp]
  0000a	57		 push	 edi
  0000b	51		 push	 ecx
  0000c	56		 push	 esi
  0000d	8b 06		 mov	 eax, DWORD PTR [esi]
  0000f	ff 50 10	 call	 DWORD PTR [eax+16]

; 724  : 	IMasterDataManager* pMasterMng = (IMasterDataManager*)AfxGetPctrInterface(UUID_IMasterDataManager);

  00012	6a 05		 push	 5
  00014	e8 00 00 00 00	 call	 ?AfxGetPctrInterface@@YGJH@Z ; AfxGetPctrInterface

; 725  : 	CString szCodeName;

  00019	8b 7d 0c	 mov	 edi, DWORD PTR ___$ReturnUdt$[ebp]
  0001c	8b cf		 mov	 ecx, edi
  0001e	ff 15 00 00 00
	00		 call	 DWORD PTR __imp_??0?$CStringT@DV?$StrTraitMFC_DLL@DV?$ChTraitsCRT@D@ATL@@@@@ATL@@QAE@XZ

; 726  : 
; 727  : //	if(szCode.GetLength() && pMasterMng) szCodeName = pMasterMng->GetCodeInfo("JMASTER", 0, szCode);
; 728  : 	CStdDialog* pStdDialog = (CStdDialog*)pThis->m_pMultiChartWnd;
; 729  : 	if(szCode.GetLength())

  00024	8b 45 08	 mov	 eax, DWORD PTR _szCode$[ebp]
  00027	8b b6 4c f7 ff
	ff		 mov	 esi, DWORD PTR [esi-2228]
  0002d	83 78 f4 00	 cmp	 DWORD PTR [eax-12], 0
  00031	74 2c		 je	 SHORT $LN2@GetCodeNam

; 730  : 		szCodeName = pStdDialog->GetItemNameFromItemCode(szCode);

  00033	6a 01		 push	 1
  00035	51		 push	 ecx
  00036	8d 45 08	 lea	 eax, DWORD PTR _szCode$[ebp]
  00039	8b cc		 mov	 ecx, esp
  0003b	50		 push	 eax
  0003c	ff 15 00 00 00
	00		 call	 DWORD PTR __imp_??0?$CStringT@DV?$StrTraitMFC_DLL@DV?$ChTraitsCRT@D@ATL@@@@@ATL@@QAE@ABV01@@Z
  00042	8d 45 0c	 lea	 eax, DWORD PTR $T1[ebp]
  00045	8b ce		 mov	 ecx, esi
  00047	50		 push	 eax
  00048	e8 00 00 00 00	 call	 ?GetItemNameFromItemCode@CStdDialog@@QAE?AV?$CStringT@DV?$StrTraitMFC_DLL@DV?$ChTraitsCRT@D@ATL@@@@@ATL@@V23@H@Z ; CStdDialog::GetItemNameFromItemCode
  0004d	50		 push	 eax
  0004e	8b cf		 mov	 ecx, edi
  00050	ff 15 00 00 00
	00		 call	 DWORD PTR __imp_??4?$CStringT@DV?$StrTraitMFC_DLL@DV?$ChTraitsCRT@D@ATL@@@@@ATL@@QAEAAV01@ABV01@@Z
  00056	8d 4d 0c	 lea	 ecx, DWORD PTR $T1[ebp]
  00059	ff 15 00 00 00
	00		 call	 DWORD PTR __imp_??1?$CStringT@DV?$StrTraitMFC_DLL@DV?$ChTraitsCRT@D@ATL@@@@@ATL@@QAE@XZ
$LN2@GetCodeNam:

; 731  : 
; 732  : 	return szCodeName;

  0005f	8d 4d 08	 lea	 ecx, DWORD PTR _szCode$[ebp]
  00062	ff 15 00 00 00
	00		 call	 DWORD PTR __imp_??1?$CStringT@DV?$StrTraitMFC_DLL@DV?$ChTraitsCRT@D@ATL@@@@@ATL@@QAE@XZ
  00068	8b c7		 mov	 eax, edi

; 733  : }

  0006a	5f		 pop	 edi
  0006b	5e		 pop	 esi
  0006c	5d		 pop	 ebp
  0006d	c2 08 00	 ret	 8
?GetCodeName@CSTAnalysisInput@CTabSystemTradingEx@@UAG?AV?$CStringT@DV?$StrTraitMFC_DLL@DV?$ChTraitsCRT@D@ATL@@@@@ATL@@XZ ENDP ; CTabSystemTradingEx::CSTAnalysisInput::GetCodeName
_TEXT	ENDS
; Function compile flags: /Ogtp
; File D:\git\src\IBK\IBK_DRFN\ProjSrc\SrcDrfn\Chart\MULTICHART\TabSystemTradingEx.cpp
;	COMDAT ?GetCode@CSTAnalysisInput@CTabSystemTradingEx@@UAG?AV?$CStringT@DV?$StrTraitMFC_DLL@DV?$ChTraitsCRT@D@ATL@@@@@ATL@@XZ
_TEXT	SEGMENT
_this$ = 8						; size = 4
___$ReturnUdt$ = 12					; size = 4
?GetCode@CSTAnalysisInput@CTabSystemTradingEx@@UAG?AV?$CStringT@DV?$StrTraitMFC_DLL@DV?$ChTraitsCRT@D@ATL@@@@@ATL@@XZ PROC ; CTabSystemTradingEx::CSTAnalysisInput::GetCode, COMDAT

; 704  : {

  00000	55		 push	 ebp
  00001	8b ec		 mov	 ebp, esp

; 705  : //	return "000660";
; 706  : 
; 707  : 	MYMETHOD_PROLOGUE(CTabSystemTradingEx, STAnalysisInput)
; 708  : 
; 709  : //	CStdDialog* pMainDlg = (CStdDialog*)pThis->m_pStdDialog;
; 710  : 	//return pMainDlg->m_strInputCode;
; 711  : 
; 712  : 	CString szCode = ((CChartMng*)pThis->m_pChartMng)->GetpChartItemSelected()->GetDataCode();

  00003	8b 4d 08	 mov	 ecx, DWORD PTR _this$[ebp]
  00006	6a 00		 push	 0
  00008	ff 75 0c	 push	 DWORD PTR ___$ReturnUdt$[ebp]
  0000b	8b 89 50 f7 ff
	ff		 mov	 ecx, DWORD PTR [ecx-2224]
  00011	e8 00 00 00 00	 call	 ?GetpChartItemSelected@CChartMng@@QAEPAVCChartItem@@XZ ; CChartMng::GetpChartItemSelected
  00016	8b c8		 mov	 ecx, eax
  00018	e8 00 00 00 00	 call	 ?GetDataCode@CChartItem@@QAE?AV?$CStringT@DV?$StrTraitMFC_DLL@DV?$ChTraitsCRT@D@ATL@@@@@ATL@@H@Z ; CChartItem::GetDataCode

; 713  : 	return szCode;

  0001d	8b 45 0c	 mov	 eax, DWORD PTR ___$ReturnUdt$[ebp]

; 714  : }

  00020	5d		 pop	 ebp
  00021	c2 08 00	 ret	 8
?GetCode@CSTAnalysisInput@CTabSystemTradingEx@@UAG?AV?$CStringT@DV?$StrTraitMFC_DLL@DV?$ChTraitsCRT@D@ATL@@@@@ATL@@XZ ENDP ; CTabSystemTradingEx::CSTAnalysisInput::GetCode
_TEXT	ENDS
; Function compile flags: /Ogtp
; File D:\git\src\IBK\IBK_DRFN\ProjSrc\SrcDrfn\Chart\MULTICHART\TabSystemTradingEx.cpp
; File C:\Program Files (x86)\Microsoft Visual Studio\2019\Community\VC\Tools\MSVC\14.29.30133\atlmfc\include\afxole.inl
; File D:\git\src\IBK\IBK_DRFN\ProjSrc\SrcDrfn\Chart\MULTICHART\TabSystemTradingEx.cpp
;	COMDAT ?GetData@CSTAnalysisInput@CTabSystemTradingEx@@UAG?AVCOleVariant@@H@Z
_TEXT	SEGMENT
_this$ = 8						; size = 4
___$ReturnUdt$ = 12					; size = 4
_nID$ = 16						; size = 4
?GetData@CSTAnalysisInput@CTabSystemTradingEx@@UAG?AVCOleVariant@@H@Z PROC ; CTabSystemTradingEx::CSTAnalysisInput::GetData, COMDAT

; 696  : {

  00000	55		 push	 ebp
  00001	8b ec		 mov	 ebp, esp
; File C:\Program Files (x86)\Microsoft Visual Studio\2019\Community\VC\Tools\MSVC\14.29.30133\atlmfc\include\afxole.inl

; 137  : 	{ AfxVariantInit(this); }

  00003	ff 75 0c	 push	 DWORD PTR ___$ReturnUdt$[ebp]
  00006	e8 00 00 00 00	 call	 ?AfxVariantInit@@YGXPAUtagVARIANT@@@Z ; AfxVariantInit
; File D:\git\src\IBK\IBK_DRFN\ProjSrc\SrcDrfn\Chart\MULTICHART\TabSystemTradingEx.cpp

; 698  : 	return a;

  0000b	8b 45 0c	 mov	 eax, DWORD PTR ___$ReturnUdt$[ebp]

; 699  : }

  0000e	5d		 pop	 ebp
  0000f	c2 0c 00	 ret	 12			; 0000000cH
?GetData@CSTAnalysisInput@CTabSystemTradingEx@@UAG?AVCOleVariant@@H@Z ENDP ; CTabSystemTradingEx::CSTAnalysisInput::GetData
_TEXT	ENDS
; Function compile flags: /Ogtp
; File D:\git\src\IBK\IBK_DRFN\ProjSrc\SrcDrfn\Chart\MULTICHART\TabSystemTradingEx.cpp
;	COMDAT ?GetUserDataInterface@CSTAnalysisInput@CTabSystemTradingEx@@UAGPAUISTUserData@@XZ
_TEXT	SEGMENT
_this$ = 8						; size = 4
?GetUserDataInterface@CSTAnalysisInput@CTabSystemTradingEx@@UAGPAUISTUserData@@XZ PROC ; CTabSystemTradingEx::CSTAnalysisInput::GetUserDataInterface, COMDAT

; 688  : {

  00000	55		 push	 ebp
  00001	8b ec		 mov	 ebp, esp

; 689  : 	return m_pInterfaceUserData;

  00003	8b 45 08	 mov	 eax, DWORD PTR _this$[ebp]
  00006	8b 40 38	 mov	 eax, DWORD PTR [eax+56]

; 690  : }

  00009	5d		 pop	 ebp
  0000a	c2 04 00	 ret	 4
?GetUserDataInterface@CSTAnalysisInput@CTabSystemTradingEx@@UAGPAUISTUserData@@XZ ENDP ; CTabSystemTradingEx::CSTAnalysisInput::GetUserDataInterface
_TEXT	ENDS
; Function compile flags: /Ogtp
; File D:\git\src\IBK\IBK_DRFN\ProjSrc\SrcDrfn\Chart\MULTICHART\TabSystemTradingEx.cpp
;	COMDAT ?IsUseUserData@CSTAnalysisInput@CTabSystemTradingEx@@UAGHXZ
_TEXT	SEGMENT
_this$ = 8						; size = 4
?IsUseUserData@CSTAnalysisInput@CTabSystemTradingEx@@UAGHXZ PROC ; CTabSystemTradingEx::CSTAnalysisInput::IsUseUserData, COMDAT

; 676  : {

  00000	55		 push	 ebp
  00001	8b ec		 mov	 ebp, esp

; 677  : 	return m_bUseUserData;

  00003	8b 45 08	 mov	 eax, DWORD PTR _this$[ebp]
  00006	8b 40 34	 mov	 eax, DWORD PTR [eax+52]

; 678  : }

  00009	5d		 pop	 ebp
  0000a	c2 04 00	 ret	 4
?IsUseUserData@CSTAnalysisInput@CTabSystemTradingEx@@UAGHXZ ENDP ; CTabSystemTradingEx::CSTAnalysisInput::IsUseUserData
_TEXT	ENDS
; Function compile flags: /Ogtp
; File D:\git\src\IBK\IBK_DRFN\ProjSrc\SrcDrfn\Chart\MULTICHART\TabSystemTradingEx.cpp
;	COMDAT ?SetUserData@CSTAnalysisInput@CTabSystemTradingEx@@UAGXHPAUISTUserData@@@Z
_TEXT	SEGMENT
_this$ = 8						; size = 4
_bUse$ = 12						; size = 4
_pInterfaceUserData$ = 16				; size = 4
?SetUserData@CSTAnalysisInput@CTabSystemTradingEx@@UAGXHPAUISTUserData@@@Z PROC ; CTabSystemTradingEx::CSTAnalysisInput::SetUserData, COMDAT

; 681  : {

  00000	55		 push	 ebp
  00001	8b ec		 mov	 ebp, esp

; 682  : 	m_pInterfaceUserData = NULL;
; 683  : 	m_bUseUserData = bUse;

  00003	8b 45 0c	 mov	 eax, DWORD PTR _bUse$[ebp]
  00006	33 c9		 xor	 ecx, ecx
  00008	8b 55 08	 mov	 edx, DWORD PTR _this$[ebp]

; 684  : 	if(bUse) 	m_pInterfaceUserData = pInterfaceUserData;

  0000b	85 c0		 test	 eax, eax
  0000d	0f 45 4d 10	 cmovne	 ecx, DWORD PTR _pInterfaceUserData$[ebp]
  00011	89 42 34	 mov	 DWORD PTR [edx+52], eax
  00014	89 4a 38	 mov	 DWORD PTR [edx+56], ecx

; 685  : }

  00017	5d		 pop	 ebp
  00018	c2 0c 00	 ret	 12			; 0000000cH
?SetUserData@CSTAnalysisInput@CTabSystemTradingEx@@UAGXHPAUISTUserData@@@Z ENDP ; CTabSystemTradingEx::CSTAnalysisInput::SetUserData
_TEXT	ENDS
; Function compile flags: /Ogtp
; File D:\git\src\IBK\IBK_DRFN\ProjSrc\SrcDrfn\Chart\MULTICHART\TabSystemTradingEx.cpp
;	COMDAT ?GetOutBarColor@CSTInterface@CTabSystemTradingEx@@UAGJAAK0@Z
_TEXT	SEGMENT
_this$ = 8						; size = 4
_clrOLBkgrnd$ = 12					; size = 4
_clrOLOutLine$ = 16					; size = 4
?GetOutBarColor@CSTInterface@CTabSystemTradingEx@@UAGJAAK0@Z PROC ; CTabSystemTradingEx::CSTInterface::GetOutBarColor, COMDAT

; 657  : {

  00000	55		 push	 ebp
  00001	8b ec		 mov	 ebp, esp

; 658  : 	MYMETHOD_PROLOGUE(CTabSystemTradingEx, STInterface)
; 659  : 
; 660  : 	clrOLBkgrnd = ((CStdDialog*)pThis->m_pMultiChartWnd)->m_clrOLBkgrnd;

  00003	8b 55 08	 mov	 edx, DWORD PTR _this$[ebp]
  00006	8b 82 50 f7 ff
	ff		 mov	 eax, DWORD PTR [edx-2224]
  0000c	8b 88 90 13 00
	00		 mov	 ecx, DWORD PTR [eax+5008]
  00012	8b 45 0c	 mov	 eax, DWORD PTR _clrOLBkgrnd$[ebp]
  00015	89 08		 mov	 DWORD PTR [eax], ecx

; 661  : 	clrOLOutLine = ((CStdDialog*)pThis->m_pMultiChartWnd)->m_clrOLOutLine;

  00017	8b 82 50 f7 ff
	ff		 mov	 eax, DWORD PTR [edx-2224]
  0001d	8b 88 94 13 00
	00		 mov	 ecx, DWORD PTR [eax+5012]
  00023	8b 45 10	 mov	 eax, DWORD PTR _clrOLOutLine$[ebp]
  00026	89 08		 mov	 DWORD PTR [eax], ecx

; 662  : 	return (LONG)1L;

  00028	b8 01 00 00 00	 mov	 eax, 1

; 663  : }

  0002d	5d		 pop	 ebp
  0002e	c2 0c 00	 ret	 12			; 0000000cH
?GetOutBarColor@CSTInterface@CTabSystemTradingEx@@UAGJAAK0@Z ENDP ; CTabSystemTradingEx::CSTInterface::GetOutBarColor
_TEXT	ENDS
; Function compile flags: /Ogtp
; File D:\git\src\IBK\IBK_DRFN\ProjSrc\SrcDrfn\Chart\MULTICHART\TabSystemTradingEx.cpp
;	COMDAT ?GetInterface@CSTInterface@CTabSystemTradingEx@@UAGPAXH@Z
_TEXT	SEGMENT
_this$ = 8						; size = 4
_nID$ = 12						; size = 4
?GetInterface@CSTInterface@CTabSystemTradingEx@@UAGPAXH@Z PROC ; CTabSystemTradingEx::CSTInterface::GetInterface, COMDAT

; 646  : {

  00000	55		 push	 ebp
  00001	8b ec		 mov	 ebp, esp

; 647  : 	MYMETHOD_PROLOGUE(CTabSystemTradingEx, STInterface)
; 648  : 
; 649  : 	void* pInterface = NULL;
; 650  : 	if(nID==UUSTID_ISTAnalysisInput)

  00003	83 7d 0c 00	 cmp	 DWORD PTR _nID$[ebp], 0
  00007	75 0a		 jne	 SHORT $LN2@GetInterfa

; 651  : 		return &pThis->m_xSTAnalysisInput;

  00009	8b 45 08	 mov	 eax, DWORD PTR _this$[ebp]
  0000c	83 c0 04	 add	 eax, 4

; 654  : }

  0000f	5d		 pop	 ebp
  00010	c2 08 00	 ret	 8
$LN2@GetInterfa:

; 652  : 
; 653  : 	return pInterface;

  00013	33 c0		 xor	 eax, eax

; 654  : }

  00015	5d		 pop	 ebp
  00016	c2 08 00	 ret	 8
?GetInterface@CSTInterface@CTabSystemTradingEx@@UAGPAXH@Z ENDP ; CTabSystemTradingEx::CSTInterface::GetInterface
_TEXT	ENDS
; Function compile flags: /Ogtp
; File D:\git\src\IBK\IBK_DRFN\ProjSrc\SrcDrfn\Chart\MULTICHART\TabSystemTradingEx.cpp
;	COMDAT ?DoDlgSysVarOption@CTabSystemTradingEx@@QAEHPAVCStringList@@J@Z
_TEXT	SEGMENT
_szDllName$ = -16					; size = 4
__$EHRec$ = -12						; size = 12
_p_dwInput$ = 8						; size = 4
_dwOutput$ = 12						; size = 4
?DoDlgSysVarOption@CTabSystemTradingEx@@QAEHPAVCStringList@@J@Z PROC ; CTabSystemTradingEx::DoDlgSysVarOption, COMDAT
; _this$ = ecx

; 1963 : {

  00000	55		 push	 ebp
  00001	8b ec		 mov	 ebp, esp
  00003	6a ff		 push	 -1
  00005	68 00 00 00 00	 push	 __ehhandler$?DoDlgSysVarOption@CTabSystemTradingEx@@QAEHPAVCStringList@@J@Z
  0000a	64 a1 00 00 00
	00		 mov	 eax, DWORD PTR fs:0
  00010	50		 push	 eax
  00011	51		 push	 ecx
  00012	56		 push	 esi
  00013	57		 push	 edi
  00014	a1 00 00 00 00	 mov	 eax, DWORD PTR ___security_cookie
  00019	33 c5		 xor	 eax, ebp
  0001b	50		 push	 eax
  0001c	8d 45 f4	 lea	 eax, DWORD PTR __$EHRec$[ebp]
  0001f	64 a3 00 00 00
	00		 mov	 DWORD PTR fs:0, eax

; 1964 : 	int nRet = IDCANCEL;
; 1965 : 	CString szDllName = "HWStrategyConfigureWizard.dll";	// DLL .

  00025	68 00 00 00 00	 push	 OFFSET ??_C@_0BO@DLDLABLN@HWStrategyConfigureWizard?4dll@
  0002a	8d 4d f0	 lea	 ecx, DWORD PTR _szDllName$[ebp]
  0002d	bf 02 00 00 00	 mov	 edi, 2
  00032	ff 15 00 00 00
	00		 call	 DWORD PTR __imp_??0?$CStringT@DV?$StrTraitMFC_DLL@DV?$ChTraitsCRT@D@ATL@@@@@ATL@@QAE@PBD@Z

; 1966 : 	HINSTANCE hLib = ::LoadLibrary(szDllName);

  00038	ff 75 f0	 push	 DWORD PTR _szDllName$[ebp]
  0003b	c7 45 fc 00 00
	00 00		 mov	 DWORD PTR __$EHRec$[ebp+8], 0
  00042	ff 15 00 00 00
	00		 call	 DWORD PTR __imp__LoadLibraryA@4
  00048	8b f0		 mov	 esi, eax

; 1967 : 	if(hLib)

  0004a	85 f6		 test	 esi, esi
  0004c	74 24		 je	 SHORT $LN2@DoDlgSysVa

; 1968 : 	{
; 1969 : 		typedef	int (LIB_DoModal_DlgSysVarOption)(CStringList* p_dwInput, LONG dwOutput);
; 1970 : 		LIB_DoModal_DlgSysVarOption* pFunc = (LIB_DoModal_DlgSysVarOption*)GetProcAddress(hLib,_T("DoModal_DlgSysVarOption"));

  0004e	68 00 00 00 00	 push	 OFFSET ??_C@_0BI@PLCLJLGO@DoModal_DlgSysVarOption@
  00053	56		 push	 esi
  00054	ff 15 00 00 00
	00		 call	 DWORD PTR __imp__GetProcAddress@8

; 1971 : 		if(pFunc)

  0005a	85 c0		 test	 eax, eax
  0005c	74 0d		 je	 SHORT $LN3@DoDlgSysVa

; 1972 : 		{
; 1973 : 			nRet = pFunc(p_dwInput, dwOutput);

  0005e	ff 75 0c	 push	 DWORD PTR _dwOutput$[ebp]
  00061	ff 75 08	 push	 DWORD PTR _p_dwInput$[ebp]
  00064	ff d0		 call	 eax
  00066	83 c4 08	 add	 esp, 8
  00069	8b f8		 mov	 edi, eax
$LN3@DoDlgSysVa:

; 1974 : 		}
; 1975 : 		::FreeLibrary(hLib);

  0006b	56		 push	 esi
  0006c	ff 15 00 00 00
	00		 call	 DWORD PTR __imp__FreeLibrary@4
$LN2@DoDlgSysVa:

; 1976 : 	}
; 1977 : 	return nRet;

  00072	8d 4d f0	 lea	 ecx, DWORD PTR _szDllName$[ebp]
  00075	ff 15 00 00 00
	00		 call	 DWORD PTR __imp_??1?$CStringT@DV?$StrTraitMFC_DLL@DV?$ChTraitsCRT@D@ATL@@@@@ATL@@QAE@XZ
  0007b	8b c7		 mov	 eax, edi

; 1978 : }

  0007d	8b 4d f4	 mov	 ecx, DWORD PTR __$EHRec$[ebp]
  00080	64 89 0d 00 00
	00 00		 mov	 DWORD PTR fs:0, ecx
  00087	59		 pop	 ecx
  00088	5f		 pop	 edi
  00089	5e		 pop	 esi
  0008a	8b e5		 mov	 esp, ebp
  0008c	5d		 pop	 ebp
  0008d	c2 08 00	 ret	 8
_TEXT	ENDS
;	COMDAT text$x
text$x	SEGMENT
__unwindfunclet$?DoDlgSysVarOption@CTabSystemTradingEx@@QAEHPAVCStringList@@J@Z$0:
  00000	8d 4d f0	 lea	 ecx, DWORD PTR _szDllName$[ebp]
  00003	ff 25 00 00 00
	00		 jmp	 DWORD PTR __imp_??1?$CStringT@DV?$StrTraitMFC_DLL@DV?$ChTraitsCRT@D@ATL@@@@@ATL@@QAE@XZ
  00009	cc		 int	 3
  0000a	cc		 int	 3
  0000b	cc		 int	 3
  0000c	cc		 int	 3
  0000d	cc		 int	 3
__ehhandler$?DoDlgSysVarOption@CTabSystemTradingEx@@QAEHPAVCStringList@@J@Z:
  0000e	90		 npad	 1
  0000f	90		 npad	 1
  00010	8b 54 24 08	 mov	 edx, DWORD PTR [esp+8]
  00014	8d 42 0c	 lea	 eax, DWORD PTR [edx+12]
  00017	8b 4a f0	 mov	 ecx, DWORD PTR [edx-16]
  0001a	33 c8		 xor	 ecx, eax
  0001c	e8 00 00 00 00	 call	 @__security_check_cookie@4
  00021	b8 00 00 00 00	 mov	 eax, OFFSET __ehfuncinfo$?DoDlgSysVarOption@CTabSystemTradingEx@@QAEHPAVCStringList@@J@Z
  00026	e9 00 00 00 00	 jmp	 ___CxxFrameHandler3
text$x	ENDS
?DoDlgSysVarOption@CTabSystemTradingEx@@QAEHPAVCStringList@@J@Z ENDP ; CTabSystemTradingEx::DoDlgSysVarOption
; Function compile flags: /Ogtp
; File D:\git\src\IBK\IBK_DRFN\ProjSrc\SrcDrfn\Chart\MULTICHART\TabSystemTradingEx.cpp
; File C:\Program Files (x86)\Microsoft Visual Studio\2019\Community\VC\Tools\MSVC\14.29.30133\atlmfc\include\cstringt.h
; File D:\git\src\IBK\IBK_DRFN\ProjSrc\SrcDrfn\Chart\MULTICHART\TabSystemTradingEx.cpp
; File C:\Program Files (x86)\Microsoft Visual Studio\2019\Community\VC\Tools\MSVC\14.29.30133\atlmfc\include\cstringt.h
; File C:\Program Files (x86)\Microsoft Visual Studio\2019\Community\VC\Tools\MSVC\14.29.30133\atlmfc\include\atlsimpstr.h
; File C:\Program Files (x86)\Microsoft Visual Studio\2019\Community\VC\Tools\MSVC\14.29.30133\atlmfc\include\cstringt.h
; File D:\git\src\IBK\IBK_DRFN\ProjSrc\SrcDrfn\Chart\MULTICHART\TabSystemTradingEx.cpp
; File C:\Program Files (x86)\Microsoft Visual Studio\2019\Community\VC\Tools\MSVC\14.29.30133\atlmfc\include\cstringt.h
; File D:\git\src\IBK\IBK_DRFN\ProjSrc\SrcDrfn\Chart\MULTICHART\TabSystemTradingEx.cpp
; File C:\Program Files (x86)\Microsoft Visual Studio\2019\Community\VC\Tools\MSVC\14.29.30133\atlmfc\include\cstringt.h
; File C:\Program Files (x86)\Microsoft Visual Studio\2019\Community\VC\Tools\MSVC\14.29.30133\atlmfc\include\atlsimpstr.h
; File C:\Program Files (x86)\Microsoft Visual Studio\2019\Community\VC\Tools\MSVC\14.29.30133\atlmfc\include\cstringt.h
; File D:\git\src\IBK\IBK_DRFN\ProjSrc\SrcDrfn\Chart\MULTICHART\TabSystemTradingEx.cpp
; File C:\Program Files (x86)\Microsoft Visual Studio\2019\Community\VC\Tools\MSVC\14.29.30133\atlmfc\include\cstringt.h
; File D:\git\src\IBK\IBK_DRFN\ProjSrc\SrcDrfn\Chart\MULTICHART\TabSystemTradingEx.cpp
; File C:\Program Files (x86)\Microsoft Visual Studio\2019\Community\VC\Tools\MSVC\14.29.30133\atlmfc\include\cstringt.h
; File C:\Program Files (x86)\Microsoft Visual Studio\2019\Community\VC\Tools\MSVC\14.29.30133\atlmfc\include\atlsimpstr.h
; File C:\Program Files (x86)\Microsoft Visual Studio\2019\Community\VC\Tools\MSVC\14.29.30133\atlmfc\include\cstringt.h
; File D:\git\src\IBK\IBK_DRFN\ProjSrc\SrcDrfn\Chart\MULTICHART\TabSystemTradingEx.cpp
; File C:\Program Files (x86)\Microsoft Visual Studio\2019\Community\VC\Tools\MSVC\14.29.30133\atlmfc\include\cstringt.h
; File C:\Program Files (x86)\Microsoft Visual Studio\2019\Community\VC\Tools\MSVC\14.29.30133\atlmfc\include\atlsimpstr.h
; File C:\Program Files (x86)\Microsoft Visual Studio\2019\Community\VC\Tools\MSVC\14.29.30133\atlmfc\include\cstringt.h
; File D:\git\src\IBK\IBK_DRFN\ProjSrc\SrcDrfn\Chart\MULTICHART\TabSystemTradingEx.cpp
; File C:\Program Files (x86)\Microsoft Visual Studio\2019\Community\VC\Tools\MSVC\14.29.30133\atlmfc\include\cstringt.h
; File D:\git\src\IBK\IBK_DRFN\ProjSrc\SrcDrfn\Chart\MULTICHART\TabSystemTradingEx.cpp
; File C:\Program Files (x86)\Microsoft Visual Studio\2019\Community\VC\Tools\MSVC\14.29.30133\atlmfc\include\cstringt.h
; File C:\Program Files (x86)\Microsoft Visual Studio\2019\Community\VC\Tools\MSVC\14.29.30133\atlmfc\include\atlsimpstr.h
; File C:\Program Files (x86)\Microsoft Visual Studio\2019\Community\VC\Tools\MSVC\14.29.30133\atlmfc\include\cstringt.h
; File D:\git\src\IBK\IBK_DRFN\ProjSrc\SrcDrfn\Chart\MULTICHART\TabSystemTradingEx.cpp
; File C:\Program Files (x86)\Microsoft Visual Studio\2019\Community\VC\Tools\MSVC\14.29.30133\atlmfc\include\cstringt.h
; File D:\git\src\IBK\IBK_DRFN\ProjSrc\SrcDrfn\Chart\MULTICHART\TabSystemTradingEx.cpp
; File C:\Program Files (x86)\Microsoft Visual Studio\2019\Community\VC\Tools\MSVC\14.29.30133\atlmfc\include\cstringt.h
; File C:\Program Files (x86)\Microsoft Visual Studio\2019\Community\VC\Tools\MSVC\14.29.30133\atlmfc\include\atlsimpstr.h
; File C:\Program Files (x86)\Microsoft Visual Studio\2019\Community\VC\Tools\MSVC\14.29.30133\atlmfc\include\cstringt.h
; File D:\git\src\IBK\IBK_DRFN\ProjSrc\SrcDrfn\Chart\MULTICHART\TabSystemTradingEx.cpp
; File C:\Program Files (x86)\Microsoft Visual Studio\2019\Community\VC\Tools\MSVC\14.29.30133\atlmfc\include\cstringt.h
; File C:\Program Files (x86)\Microsoft Visual Studio\2019\Community\VC\Tools\MSVC\14.29.30133\atlmfc\include\atlsimpstr.h
; File C:\Program Files (x86)\Microsoft Visual Studio\2019\Community\VC\Tools\MSVC\14.29.30133\atlmfc\include\cstringt.h
; File D:\git\src\IBK\IBK_DRFN\ProjSrc\SrcDrfn\Chart\MULTICHART\TabSystemTradingEx.cpp
; File C:\Program Files (x86)\Microsoft Visual Studio\2019\Community\VC\Tools\MSVC\14.29.30133\atlmfc\include\cstringt.h
; File D:\git\src\IBK\IBK_DRFN\ProjSrc\SrcDrfn\Chart\MULTICHART\TabSystemTradingEx.cpp
; File C:\Program Files (x86)\Microsoft Visual Studio\2019\Community\VC\Tools\MSVC\14.29.30133\atlmfc\include\cstringt.h
; File C:\Program Files (x86)\Microsoft Visual Studio\2019\Community\VC\Tools\MSVC\14.29.30133\atlmfc\include\atlsimpstr.h
; File C:\Program Files (x86)\Microsoft Visual Studio\2019\Community\VC\Tools\MSVC\14.29.30133\atlmfc\include\cstringt.h
; File D:\git\src\IBK\IBK_DRFN\ProjSrc\SrcDrfn\Chart\MULTICHART\TabSystemTradingEx.cpp
; File C:\Program Files (x86)\Microsoft Visual Studio\2019\Community\VC\Tools\MSVC\14.29.30133\atlmfc\include\cstringt.h
; File C:\Program Files (x86)\Microsoft Visual Studio\2019\Community\VC\Tools\MSVC\14.29.30133\atlmfc\include\atlsimpstr.h
; File C:\Program Files (x86)\Microsoft Visual Studio\2019\Community\VC\Tools\MSVC\14.29.30133\atlmfc\include\cstringt.h
; File D:\git\src\IBK\IBK_DRFN\ProjSrc\SrcDrfn\Chart\MULTICHART\TabSystemTradingEx.cpp
; File C:\Program Files (x86)\Microsoft Visual Studio\2019\Community\VC\Tools\MSVC\14.29.30133\atlmfc\include\afxcoll.inl
; File D:\git\src\IBK\IBK_DRFN\ProjSrc\SrcDrfn\Chart\MULTICHART\TabSystemTradingEx.cpp
; File C:\Program Files (x86)\Microsoft Visual Studio\2019\Community\VC\Tools\MSVC\14.29.30133\atlmfc\include\afxcoll.inl
; File D:\git\src\IBK\IBK_DRFN\ProjSrc\SrcDrfn\Chart\MULTICHART\TabSystemTradingEx.cpp
;	COMDAT ?RunIndexSD@CTabSystemTradingEx@@QAEJHPAUSTMNG_ITEMINFO@@@Z
_TEXT	SEGMENT
_szInputList$2 = -368					; size = 28
_strArrayName$ = -340					; size = 20
_strSystemPath$ = -320					; size = 4
_strUserPath$ = -316					; size = 4
_szSTPath$ = -312					; size = 4
_strFileName$ = -308					; size = 4
_strFilePathName$ = -304				; size = 4
_strText$ = -300					; size = 4
_strSDPath$ = -296					; size = 4
_szTmp$ = -292						; size = 4
$T3 = -288						; size = 4
_szDllName$4 = -284					; size = 4
$T5 = -284						; size = 4
$T6 = -284						; size = 4
$T7 = -284						; size = 4
$T8 = -284						; size = 4
$T9 = -280						; size = 4
$T10 = -280						; size = 4
$T11 = -280						; size = 4
$T12 = -280						; size = 4
$T13 = -280						; size = 4
_aSDName$ = -276					; size = 260
__$ArrayPad$ = -16					; size = 4
__$EHRec$ = -12						; size = 12
_p_nSTRunType$ = 8					; size = 4
_p_pArg$ = 12						; size = 4
?RunIndexSD@CTabSystemTradingEx@@QAEJHPAUSTMNG_ITEMINFO@@@Z PROC ; CTabSystemTradingEx::RunIndexSD, COMDAT
; _this$ = ecx

; 1882 : {

  00000	55		 push	 ebp
  00001	8b ec		 mov	 ebp, esp
  00003	6a ff		 push	 -1
  00005	68 00 00 00 00	 push	 __ehhandler$?RunIndexSD@CTabSystemTradingEx@@QAEJHPAUSTMNG_ITEMINFO@@@Z
  0000a	64 a1 00 00 00
	00		 mov	 eax, DWORD PTR fs:0
  00010	50		 push	 eax
  00011	81 ec 64 01 00
	00		 sub	 esp, 356		; 00000164H
  00017	a1 00 00 00 00	 mov	 eax, DWORD PTR ___security_cookie
  0001c	33 c5		 xor	 eax, ebp
  0001e	89 45 f0	 mov	 DWORD PTR __$ArrayPad$[ebp], eax
  00021	53		 push	 ebx
  00022	56		 push	 esi
  00023	57		 push	 edi
  00024	50		 push	 eax
  00025	8d 45 f4	 lea	 eax, DWORD PTR __$EHRec$[ebp]
  00028	64 a3 00 00 00
	00		 mov	 DWORD PTR fs:0, eax
  0002e	8b f9		 mov	 edi, ecx
  00030	8b 5d 0c	 mov	 ebx, DWORD PTR _p_pArg$[ebp]

; 1883 : 	//  (ST)    
; 1884 : 	//	CString szTmp;
; 1885 : 	//	m_xSTRunManager.RunST(FALSE, szTmp, (LONG)pArg);
; 1886 : 	//	return 0L;
; 1887 : 
; 1888 : 	CString szTmp;

  00033	8d 8d dc fe ff
	ff		 lea	 ecx, DWORD PTR _szTmp$[ebp]
  00039	c7 85 e0 fe ff
	ff 00 00 00 00	 mov	 DWORD PTR $T3[ebp], 0
  00043	ff 15 00 00 00
	00		 call	 DWORD PTR __imp_??0?$CStringT@DV?$StrTraitMFC_DLL@DV?$ChTraitsCRT@D@ATL@@@@@ATL@@QAE@XZ

; 1890 : 	CString strSystemPath = m_pParentDlg->m_strRootPath + "\\" + PATH_DATA_STDATA_SD;

  00049	8b b7 bc 00 00
	00		 mov	 esi, DWORD PTR [edi+188]
  0004f	c7 45 fc 00 00
	00 00		 mov	 DWORD PTR __$EHRec$[ebp+8], 0
; File C:\Program Files (x86)\Microsoft Visual Studio\2019\Community\VC\Tools\MSVC\14.29.30133\atlmfc\include\cstringt.h

; 2401 : 		CStringT strResult( str1.GetManager() );

  00056	8d 8e a8 01 00
	00		 lea	 ecx, DWORD PTR [esi+424]
; File D:\git\src\IBK\IBK_DRFN\ProjSrc\SrcDrfn\Chart\MULTICHART\TabSystemTradingEx.cpp

; 1890 : 	CString strSystemPath = m_pParentDlg->m_strRootPath + "\\" + PATH_DATA_STDATA_SD;

  0005c	c6 45 fc 01	 mov	 BYTE PTR __$EHRec$[ebp+8], 1
; File C:\Program Files (x86)\Microsoft Visual Studio\2019\Community\VC\Tools\MSVC\14.29.30133\atlmfc\include\cstringt.h

; 2401 : 		CStringT strResult( str1.GetManager() );

  00060	ff 15 00 00 00
	00		 call	 DWORD PTR __imp_?GetManager@?$CStringT@DV?$StrTraitMFC_DLL@DV?$ChTraitsCRT@D@ATL@@@@@ATL@@QBEPAUIAtlStringMgr@2@XZ
  00066	50		 push	 eax
  00067	8d 8d e8 fe ff
	ff		 lea	 ecx, DWORD PTR $T13[ebp]
  0006d	ff 15 00 00 00
	00		 call	 DWORD PTR __imp_??0?$CStringT@DV?$StrTraitMFC_DLL@DV?$ChTraitsCRT@D@ATL@@@@@ATL@@QAE@PAUIAtlStringMgr@1@@Z
; File C:\Program Files (x86)\Microsoft Visual Studio\2019\Community\VC\Tools\MSVC\14.29.30133\atlmfc\include\atlsimpstr.h

; 519  : 		return( GetData()->nDataLength );

  00073	8b 86 a8 01 00
	00		 mov	 eax, DWORD PTR [esi+424]
; File C:\Program Files (x86)\Microsoft Visual Studio\2019\Community\VC\Tools\MSVC\14.29.30133\atlmfc\include\cstringt.h

; 2403 : 		CThisSimpleString::Concatenate( strResult, str1, str1.GetLength(), psz2, CThisSimpleString::StringLength( psz2 ) );

  00079	6a 01		 push	 1
  0007b	68 00 00 00 00	 push	 OFFSET ??_C@_01KICIPPFI@?2@

; 2404 : 
; 2405 : 		return( strResult );

  00080	c7 85 e0 fe ff
	ff 01 00 00 00	 mov	 DWORD PTR $T3[ebp], 1
  0008a	ff 70 f4	 push	 DWORD PTR [eax-12]
  0008d	50		 push	 eax
  0008e	8d 85 e8 fe ff
	ff		 lea	 eax, DWORD PTR $T13[ebp]
  00094	50		 push	 eax
  00095	ff 15 00 00 00
	00		 call	 DWORD PTR __imp_?Concatenate@?$CSimpleStringT@D$00@ATL@@KAXAAV12@PBDH1H@Z
; File D:\git\src\IBK\IBK_DRFN\ProjSrc\SrcDrfn\Chart\MULTICHART\TabSystemTradingEx.cpp

; 1890 : 	CString strSystemPath = m_pParentDlg->m_strRootPath + "\\" + PATH_DATA_STDATA_SD;

  0009b	68 00 00 00 00	 push	 OFFSET ??_C@_0P@GJBKKKJN@Icss?2stdata?2sd@
  000a0	8d 85 e8 fe ff
	ff		 lea	 eax, DWORD PTR $T13[ebp]
  000a6	50		 push	 eax
  000a7	8d 85 c0 fe ff
	ff		 lea	 eax, DWORD PTR _strSystemPath$[ebp]
  000ad	50		 push	 eax
  000ae	e8 00 00 00 00	 call	 ??HATL@@YA?AV?$CStringT@DV?$StrTraitMFC_DLL@DV?$ChTraitsCRT@D@ATL@@@@@0@ABV10@PBD@Z ; ATL::operator+
  000b3	83 c4 20	 add	 esp, 32			; 00000020H
  000b6	8d 8d e8 fe ff
	ff		 lea	 ecx, DWORD PTR $T13[ebp]
  000bc	ff 15 00 00 00
	00		 call	 DWORD PTR __imp_??1?$CStringT@DV?$StrTraitMFC_DLL@DV?$ChTraitsCRT@D@ATL@@@@@ATL@@QAE@XZ

; 1891 : 	CString strUserPath = m_pParentDlg->m_strRootPath + "\\" + PATH_USER_STDATA_SD;

  000c2	8b b7 bc 00 00
	00		 mov	 esi, DWORD PTR [edi+188]
; File C:\Program Files (x86)\Microsoft Visual Studio\2019\Community\VC\Tools\MSVC\14.29.30133\atlmfc\include\cstringt.h

; 2401 : 		CStringT strResult( str1.GetManager() );

  000c8	8d 8e a8 01 00
	00		 lea	 ecx, DWORD PTR [esi+424]
; File D:\git\src\IBK\IBK_DRFN\ProjSrc\SrcDrfn\Chart\MULTICHART\TabSystemTradingEx.cpp

; 1891 : 	CString strUserPath = m_pParentDlg->m_strRootPath + "\\" + PATH_USER_STDATA_SD;

  000ce	c6 45 fc 04	 mov	 BYTE PTR __$EHRec$[ebp+8], 4
; File C:\Program Files (x86)\Microsoft Visual Studio\2019\Community\VC\Tools\MSVC\14.29.30133\atlmfc\include\cstringt.h

; 2401 : 		CStringT strResult( str1.GetManager() );

  000d2	ff 15 00 00 00
	00		 call	 DWORD PTR __imp_?GetManager@?$CStringT@DV?$StrTraitMFC_DLL@DV?$ChTraitsCRT@D@ATL@@@@@ATL@@QBEPAUIAtlStringMgr@2@XZ
  000d8	50		 push	 eax
  000d9	8d 8d e8 fe ff
	ff		 lea	 ecx, DWORD PTR $T12[ebp]
  000df	ff 15 00 00 00
	00		 call	 DWORD PTR __imp_??0?$CStringT@DV?$StrTraitMFC_DLL@DV?$ChTraitsCRT@D@ATL@@@@@ATL@@QAE@PAUIAtlStringMgr@1@@Z
; File C:\Program Files (x86)\Microsoft Visual Studio\2019\Community\VC\Tools\MSVC\14.29.30133\atlmfc\include\atlsimpstr.h

; 519  : 		return( GetData()->nDataLength );

  000e5	8b 86 a8 01 00
	00		 mov	 eax, DWORD PTR [esi+424]
; File C:\Program Files (x86)\Microsoft Visual Studio\2019\Community\VC\Tools\MSVC\14.29.30133\atlmfc\include\cstringt.h

; 2403 : 		CThisSimpleString::Concatenate( strResult, str1, str1.GetLength(), psz2, CThisSimpleString::StringLength( psz2 ) );

  000eb	6a 01		 push	 1
  000ed	68 00 00 00 00	 push	 OFFSET ??_C@_01KICIPPFI@?2@

; 2404 : 
; 2405 : 		return( strResult );

  000f2	c7 85 e0 fe ff
	ff 04 00 00 00	 mov	 DWORD PTR $T3[ebp], 4
  000fc	ff 70 f4	 push	 DWORD PTR [eax-12]
  000ff	50		 push	 eax
  00100	8d 85 e8 fe ff
	ff		 lea	 eax, DWORD PTR $T12[ebp]
  00106	50		 push	 eax
  00107	ff 15 00 00 00
	00		 call	 DWORD PTR __imp_?Concatenate@?$CSimpleStringT@D$00@ATL@@KAXAAV12@PBDH1H@Z
; File D:\git\src\IBK\IBK_DRFN\ProjSrc\SrcDrfn\Chart\MULTICHART\TabSystemTradingEx.cpp

; 1891 : 	CString strUserPath = m_pParentDlg->m_strRootPath + "\\" + PATH_USER_STDATA_SD;

  0010d	68 00 00 00 00	 push	 OFFSET ??_C@_0O@NGCOIHBK@usr?2stdata?2sd@
  00112	8d 85 e8 fe ff
	ff		 lea	 eax, DWORD PTR $T12[ebp]
  00118	50		 push	 eax
  00119	8d 85 c4 fe ff
	ff		 lea	 eax, DWORD PTR _strUserPath$[ebp]
  0011f	50		 push	 eax
  00120	e8 00 00 00 00	 call	 ??HATL@@YA?AV?$CStringT@DV?$StrTraitMFC_DLL@DV?$ChTraitsCRT@D@ATL@@@@@0@ABV10@PBD@Z ; ATL::operator+
  00125	83 c4 20	 add	 esp, 32			; 00000020H
  00128	8d 8d e8 fe ff
	ff		 lea	 ecx, DWORD PTR $T12[ebp]
  0012e	ff 15 00 00 00
	00		 call	 DWORD PTR __imp_??1?$CStringT@DV?$StrTraitMFC_DLL@DV?$ChTraitsCRT@D@ATL@@@@@ATL@@QAE@XZ

; 1892 : 
; 1893 : 
; 1894 : 	CString strSDPath;

  00134	8d 8d d8 fe ff
	ff		 lea	 ecx, DWORD PTR _strSDPath$[ebp]
  0013a	ff 15 00 00 00
	00		 call	 DWORD PTR __imp_??0?$CStringT@DV?$StrTraitMFC_DLL@DV?$ChTraitsCRT@D@ATL@@@@@ATL@@QAE@XZ

; 1895 : 	if(p_pArg->nSTType==0)	// (0),  (1)

  00140	83 7b 0c 00	 cmp	 DWORD PTR [ebx+12], 0
  00144	0f 85 bd 00 00
	00		 jne	 $LN2@RunIndexSD

; 1896 : 		strSDPath = m_pParentDlg->m_strRootPath + "\\" + PATH_DATA_STDATA_SD;

  0014a	8b b7 bc 00 00
	00		 mov	 esi, DWORD PTR [edi+188]
; File C:\Program Files (x86)\Microsoft Visual Studio\2019\Community\VC\Tools\MSVC\14.29.30133\atlmfc\include\cstringt.h

; 2401 : 		CStringT strResult( str1.GetManager() );

  00150	8d 8e a8 01 00
	00		 lea	 ecx, DWORD PTR [esi+424]
; File D:\git\src\IBK\IBK_DRFN\ProjSrc\SrcDrfn\Chart\MULTICHART\TabSystemTradingEx.cpp

; 1896 : 		strSDPath = m_pParentDlg->m_strRootPath + "\\" + PATH_DATA_STDATA_SD;

  00156	c6 45 fc 08	 mov	 BYTE PTR __$EHRec$[ebp+8], 8
; File C:\Program Files (x86)\Microsoft Visual Studio\2019\Community\VC\Tools\MSVC\14.29.30133\atlmfc\include\cstringt.h

; 2401 : 		CStringT strResult( str1.GetManager() );

  0015a	ff 15 00 00 00
	00		 call	 DWORD PTR __imp_?GetManager@?$CStringT@DV?$StrTraitMFC_DLL@DV?$ChTraitsCRT@D@ATL@@@@@ATL@@QBEPAUIAtlStringMgr@2@XZ
  00160	50		 push	 eax
  00161	8d 8d e8 fe ff
	ff		 lea	 ecx, DWORD PTR $T11[ebp]
  00167	ff 15 00 00 00
	00		 call	 DWORD PTR __imp_??0?$CStringT@DV?$StrTraitMFC_DLL@DV?$ChTraitsCRT@D@ATL@@@@@ATL@@QAE@PAUIAtlStringMgr@1@@Z
; File C:\Program Files (x86)\Microsoft Visual Studio\2019\Community\VC\Tools\MSVC\14.29.30133\atlmfc\include\atlsimpstr.h

; 519  : 		return( GetData()->nDataLength );

  0016d	8b 86 a8 01 00
	00		 mov	 eax, DWORD PTR [esi+424]
; File C:\Program Files (x86)\Microsoft Visual Studio\2019\Community\VC\Tools\MSVC\14.29.30133\atlmfc\include\cstringt.h

; 2403 : 		CThisSimpleString::Concatenate( strResult, str1, str1.GetLength(), psz2, CThisSimpleString::StringLength( psz2 ) );

  00173	6a 01		 push	 1
  00175	68 00 00 00 00	 push	 OFFSET ??_C@_01KICIPPFI@?2@

; 2404 : 
; 2405 : 		return( strResult );

  0017a	c7 85 e0 fe ff
	ff 10 00 00 00	 mov	 DWORD PTR $T3[ebp], 16	; 00000010H
  00184	ff 70 f4	 push	 DWORD PTR [eax-12]
  00187	50		 push	 eax
  00188	8d 85 e8 fe ff
	ff		 lea	 eax, DWORD PTR $T11[ebp]
  0018e	50		 push	 eax
  0018f	ff 15 00 00 00
	00		 call	 DWORD PTR __imp_?Concatenate@?$CSimpleStringT@D$00@ATL@@KAXAAV12@PBDH1H@Z
  00195	83 c4 14	 add	 esp, 20			; 00000014H

; 2401 : 		CStringT strResult( str1.GetManager() );

  00198	8d 8d e8 fe ff
	ff		 lea	 ecx, DWORD PTR $T11[ebp]
; File D:\git\src\IBK\IBK_DRFN\ProjSrc\SrcDrfn\Chart\MULTICHART\TabSystemTradingEx.cpp

; 1896 : 		strSDPath = m_pParentDlg->m_strRootPath + "\\" + PATH_DATA_STDATA_SD;

  0019e	c6 45 fc 09	 mov	 BYTE PTR __$EHRec$[ebp+8], 9
; File C:\Program Files (x86)\Microsoft Visual Studio\2019\Community\VC\Tools\MSVC\14.29.30133\atlmfc\include\cstringt.h

; 2401 : 		CStringT strResult( str1.GetManager() );

  001a2	ff 15 00 00 00
	00		 call	 DWORD PTR __imp_?GetManager@?$CStringT@DV?$StrTraitMFC_DLL@DV?$ChTraitsCRT@D@ATL@@@@@ATL@@QBEPAUIAtlStringMgr@2@XZ
  001a8	50		 push	 eax
  001a9	8d 8d e4 fe ff
	ff		 lea	 ecx, DWORD PTR $T8[ebp]
  001af	ff 15 00 00 00
	00		 call	 DWORD PTR __imp_??0?$CStringT@DV?$StrTraitMFC_DLL@DV?$ChTraitsCRT@D@ATL@@@@@ATL@@QAE@PAUIAtlStringMgr@1@@Z
; File C:\Program Files (x86)\Microsoft Visual Studio\2019\Community\VC\Tools\MSVC\14.29.30133\atlmfc\include\atlsimpstr.h

; 519  : 		return( GetData()->nDataLength );

  001b5	8b 85 e8 fe ff
	ff		 mov	 eax, DWORD PTR $T11[ebp]
; File C:\Program Files (x86)\Microsoft Visual Studio\2019\Community\VC\Tools\MSVC\14.29.30133\atlmfc\include\cstringt.h

; 2403 : 		CThisSimpleString::Concatenate( strResult, str1, str1.GetLength(), psz2, CThisSimpleString::StringLength( psz2 ) );

  001bb	6a 0e		 push	 14			; 0000000eH
  001bd	68 00 00 00 00	 push	 OFFSET ??_C@_0P@GJBKKKJN@Icss?2stdata?2sd@

; 2404 : 
; 2405 : 		return( strResult );

  001c2	c7 85 e0 fe ff
	ff 30 00 00 00	 mov	 DWORD PTR $T3[ebp], 48	; 00000030H
  001cc	ff 70 f4	 push	 DWORD PTR [eax-12]
  001cf	50		 push	 eax
  001d0	8d 85 e4 fe ff
	ff		 lea	 eax, DWORD PTR $T8[ebp]
  001d6	50		 push	 eax
  001d7	ff 15 00 00 00
	00		 call	 DWORD PTR __imp_?Concatenate@?$CSimpleStringT@D$00@ATL@@KAXAAV12@PBDH1H@Z
  001dd	83 c4 14	 add	 esp, 20			; 00000014H
; File D:\git\src\IBK\IBK_DRFN\ProjSrc\SrcDrfn\Chart\MULTICHART\TabSystemTradingEx.cpp

; 1896 : 		strSDPath = m_pParentDlg->m_strRootPath + "\\" + PATH_DATA_STDATA_SD;

  001e0	8d 85 e4 fe ff
	ff		 lea	 eax, DWORD PTR $T8[ebp]
  001e6	8d 8d d8 fe ff
	ff		 lea	 ecx, DWORD PTR _strSDPath$[ebp]
  001ec	50		 push	 eax
  001ed	ff 15 00 00 00
	00		 call	 DWORD PTR __imp_??4?$CStringT@DV?$StrTraitMFC_DLL@DV?$ChTraitsCRT@D@ATL@@@@@ATL@@QAEAAV01@ABV01@@Z
  001f3	8d 8d e4 fe ff
	ff		 lea	 ecx, DWORD PTR $T8[ebp]
  001f9	ff 15 00 00 00
	00		 call	 DWORD PTR __imp_??1?$CStringT@DV?$StrTraitMFC_DLL@DV?$ChTraitsCRT@D@ATL@@@@@ATL@@QAE@XZ
  001ff	8d 8d e8 fe ff
	ff		 lea	 ecx, DWORD PTR $T11[ebp]
  00205	eb 61		 jmp	 SHORT $LN242@RunIndexSD
$LN2@RunIndexSD:
; File C:\Program Files (x86)\Microsoft Visual Studio\2019\Community\VC\Tools\MSVC\14.29.30133\atlmfc\include\cstringt.h

; 2401 : 		CStringT strResult( str1.GetManager() );

  00207	8d 8f 24 08 00
	00		 lea	 ecx, DWORD PTR [edi+2084]
; File D:\git\src\IBK\IBK_DRFN\ProjSrc\SrcDrfn\Chart\MULTICHART\TabSystemTradingEx.cpp

; 1898 : 		strSDPath = m_szEncUserDir + "\\STData\\SD";

  0020d	c6 45 fc 0a	 mov	 BYTE PTR __$EHRec$[ebp+8], 10 ; 0000000aH
; File C:\Program Files (x86)\Microsoft Visual Studio\2019\Community\VC\Tools\MSVC\14.29.30133\atlmfc\include\cstringt.h

; 2401 : 		CStringT strResult( str1.GetManager() );

  00211	ff 15 00 00 00
	00		 call	 DWORD PTR __imp_?GetManager@?$CStringT@DV?$StrTraitMFC_DLL@DV?$ChTraitsCRT@D@ATL@@@@@ATL@@QBEPAUIAtlStringMgr@2@XZ
  00217	50		 push	 eax
  00218	8d 8d e4 fe ff
	ff		 lea	 ecx, DWORD PTR $T7[ebp]
  0021e	ff 15 00 00 00
	00		 call	 DWORD PTR __imp_??0?$CStringT@DV?$StrTraitMFC_DLL@DV?$ChTraitsCRT@D@ATL@@@@@ATL@@QAE@PAUIAtlStringMgr@1@@Z
; File C:\Program Files (x86)\Microsoft Visual Studio\2019\Community\VC\Tools\MSVC\14.29.30133\atlmfc\include\atlsimpstr.h

; 519  : 		return( GetData()->nDataLength );

  00224	8b 87 24 08 00
	00		 mov	 eax, DWORD PTR [edi+2084]
; File C:\Program Files (x86)\Microsoft Visual Studio\2019\Community\VC\Tools\MSVC\14.29.30133\atlmfc\include\cstringt.h

; 2403 : 		CThisSimpleString::Concatenate( strResult, str1, str1.GetLength(), psz2, CThisSimpleString::StringLength( psz2 ) );

  0022a	6a 0a		 push	 10			; 0000000aH
  0022c	68 00 00 00 00	 push	 OFFSET ??_C@_0L@FEICBMFP@?2STData?2SD@

; 2404 : 
; 2405 : 		return( strResult );

  00231	c7 85 e0 fe ff
	ff 40 00 00 00	 mov	 DWORD PTR $T3[ebp], 64	; 00000040H
  0023b	ff 70 f4	 push	 DWORD PTR [eax-12]
  0023e	50		 push	 eax
  0023f	8d 85 e4 fe ff
	ff		 lea	 eax, DWORD PTR $T7[ebp]
  00245	50		 push	 eax
  00246	ff 15 00 00 00
	00		 call	 DWORD PTR __imp_?Concatenate@?$CSimpleStringT@D$00@ATL@@KAXAAV12@PBDH1H@Z
  0024c	83 c4 14	 add	 esp, 20			; 00000014H
; File D:\git\src\IBK\IBK_DRFN\ProjSrc\SrcDrfn\Chart\MULTICHART\TabSystemTradingEx.cpp

; 1898 : 		strSDPath = m_szEncUserDir + "\\STData\\SD";

  0024f	8d 85 e4 fe ff
	ff		 lea	 eax, DWORD PTR $T7[ebp]
  00255	8d 8d d8 fe ff
	ff		 lea	 ecx, DWORD PTR _strSDPath$[ebp]
  0025b	50		 push	 eax
  0025c	ff 15 00 00 00
	00		 call	 DWORD PTR __imp_??4?$CStringT@DV?$StrTraitMFC_DLL@DV?$ChTraitsCRT@D@ATL@@@@@ATL@@QAEAAV01@ABV01@@Z
  00262	8d 8d e4 fe ff
	ff		 lea	 ecx, DWORD PTR $T7[ebp]
$LN242@RunIndexSD:

; 1900 : 	CString szSTPath = p_pArg->szSTPath + "\\" + p_pArg->szSTName + ".ST"; 

  00268	ff 15 00 00 00
	00		 call	 DWORD PTR __imp_??1?$CStringT@DV?$StrTraitMFC_DLL@DV?$ChTraitsCRT@D@ATL@@@@@ATL@@QAE@XZ
; File C:\Program Files (x86)\Microsoft Visual Studio\2019\Community\VC\Tools\MSVC\14.29.30133\atlmfc\include\cstringt.h

; 2401 : 		CStringT strResult( str1.GetManager() );

  0026e	8d 4b 08	 lea	 ecx, DWORD PTR [ebx+8]
; File D:\git\src\IBK\IBK_DRFN\ProjSrc\SrcDrfn\Chart\MULTICHART\TabSystemTradingEx.cpp

; 1900 : 	CString szSTPath = p_pArg->szSTPath + "\\" + p_pArg->szSTName + ".ST"; 

  00271	c6 45 fc 0b	 mov	 BYTE PTR __$EHRec$[ebp+8], 11 ; 0000000bH
; File C:\Program Files (x86)\Microsoft Visual Studio\2019\Community\VC\Tools\MSVC\14.29.30133\atlmfc\include\cstringt.h

; 2401 : 		CStringT strResult( str1.GetManager() );

  00275	ff 15 00 00 00
	00		 call	 DWORD PTR __imp_?GetManager@?$CStringT@DV?$StrTraitMFC_DLL@DV?$ChTraitsCRT@D@ATL@@@@@ATL@@QBEPAUIAtlStringMgr@2@XZ
  0027b	50		 push	 eax
  0027c	8d 8d e8 fe ff
	ff		 lea	 ecx, DWORD PTR $T10[ebp]
  00282	ff 15 00 00 00
	00		 call	 DWORD PTR __imp_??0?$CStringT@DV?$StrTraitMFC_DLL@DV?$ChTraitsCRT@D@ATL@@@@@ATL@@QAE@PAUIAtlStringMgr@1@@Z
; File C:\Program Files (x86)\Microsoft Visual Studio\2019\Community\VC\Tools\MSVC\14.29.30133\atlmfc\include\atlsimpstr.h

; 519  : 		return( GetData()->nDataLength );

  00288	8b 43 08	 mov	 eax, DWORD PTR [ebx+8]
; File C:\Program Files (x86)\Microsoft Visual Studio\2019\Community\VC\Tools\MSVC\14.29.30133\atlmfc\include\cstringt.h

; 2403 : 		CThisSimpleString::Concatenate( strResult, str1, str1.GetLength(), psz2, CThisSimpleString::StringLength( psz2 ) );

  0028b	6a 01		 push	 1
  0028d	68 00 00 00 00	 push	 OFFSET ??_C@_01KICIPPFI@?2@

; 2404 : 
; 2405 : 		return( strResult );

  00292	c7 85 e0 fe ff
	ff 80 00 00 00	 mov	 DWORD PTR $T3[ebp], 128	; 00000080H
  0029c	ff 70 f4	 push	 DWORD PTR [eax-12]
  0029f	50		 push	 eax
  002a0	8d 85 e8 fe ff
	ff		 lea	 eax, DWORD PTR $T10[ebp]
  002a6	50		 push	 eax
  002a7	ff 15 00 00 00
	00		 call	 DWORD PTR __imp_?Concatenate@?$CSimpleStringT@D$00@ATL@@KAXAAV12@PBDH1H@Z
  002ad	83 c4 14	 add	 esp, 20			; 00000014H

; 2390 : 		CStringT strResult( str1.GetManager() );

  002b0	8d 8d e8 fe ff
	ff		 lea	 ecx, DWORD PTR $T10[ebp]
; File D:\git\src\IBK\IBK_DRFN\ProjSrc\SrcDrfn\Chart\MULTICHART\TabSystemTradingEx.cpp

; 1900 : 	CString szSTPath = p_pArg->szSTPath + "\\" + p_pArg->szSTName + ".ST"; 

  002b6	c6 45 fc 0c	 mov	 BYTE PTR __$EHRec$[ebp+8], 12 ; 0000000cH
; File C:\Program Files (x86)\Microsoft Visual Studio\2019\Community\VC\Tools\MSVC\14.29.30133\atlmfc\include\cstringt.h

; 2390 : 		CStringT strResult( str1.GetManager() );

  002ba	ff 15 00 00 00
	00		 call	 DWORD PTR __imp_?GetManager@?$CStringT@DV?$StrTraitMFC_DLL@DV?$ChTraitsCRT@D@ATL@@@@@ATL@@QBEPAUIAtlStringMgr@2@XZ
  002c0	50		 push	 eax
  002c1	8d 8d e4 fe ff
	ff		 lea	 ecx, DWORD PTR $T6[ebp]
  002c7	ff 15 00 00 00
	00		 call	 DWORD PTR __imp_??0?$CStringT@DV?$StrTraitMFC_DLL@DV?$ChTraitsCRT@D@ATL@@@@@ATL@@QAE@PAUIAtlStringMgr@1@@Z
; File C:\Program Files (x86)\Microsoft Visual Studio\2019\Community\VC\Tools\MSVC\14.29.30133\atlmfc\include\atlsimpstr.h

; 519  : 		return( GetData()->nDataLength );

  002cd	8b 4b 04	 mov	 ecx, DWORD PTR [ebx+4]
  002d0	8b 85 e8 fe ff
	ff		 mov	 eax, DWORD PTR $T10[ebp]
; File C:\Program Files (x86)\Microsoft Visual Studio\2019\Community\VC\Tools\MSVC\14.29.30133\atlmfc\include\cstringt.h

; 2394 : 		return( strResult );

  002d6	c7 85 e0 fe ff
	ff 80 01 00 00	 mov	 DWORD PTR $T3[ebp], 384	; 00000180H
  002e0	ff 71 f4	 push	 DWORD PTR [ecx-12]
  002e3	51		 push	 ecx
  002e4	ff 70 f4	 push	 DWORD PTR [eax-12]
  002e7	50		 push	 eax
  002e8	8d 85 e4 fe ff
	ff		 lea	 eax, DWORD PTR $T6[ebp]
  002ee	50		 push	 eax
  002ef	ff 15 00 00 00
	00		 call	 DWORD PTR __imp_?Concatenate@?$CSimpleStringT@D$00@ATL@@KAXAAV12@PBDH1H@Z
; File D:\git\src\IBK\IBK_DRFN\ProjSrc\SrcDrfn\Chart\MULTICHART\TabSystemTradingEx.cpp

; 1900 : 	CString szSTPath = p_pArg->szSTPath + "\\" + p_pArg->szSTName + ".ST"; 

  002f5	68 00 00 00 00	 push	 OFFSET ??_C@_03COHLPAFH@?4ST@
  002fa	8d 85 e4 fe ff
	ff		 lea	 eax, DWORD PTR $T6[ebp]
  00300	50		 push	 eax
  00301	8d 85 c8 fe ff
	ff		 lea	 eax, DWORD PTR _szSTPath$[ebp]
  00307	50		 push	 eax
  00308	e8 00 00 00 00	 call	 ??HATL@@YA?AV?$CStringT@DV?$StrTraitMFC_DLL@DV?$ChTraitsCRT@D@ATL@@@@@0@ABV10@PBD@Z ; ATL::operator+
  0030d	83 c4 20	 add	 esp, 32			; 00000020H
  00310	8d 8d e4 fe ff
	ff		 lea	 ecx, DWORD PTR $T6[ebp]
  00316	ff 15 00 00 00
	00		 call	 DWORD PTR __imp_??1?$CStringT@DV?$StrTraitMFC_DLL@DV?$ChTraitsCRT@D@ATL@@@@@ATL@@QAE@XZ
  0031c	8d 8d e8 fe ff
	ff		 lea	 ecx, DWORD PTR $T10[ebp]
  00322	c6 45 fc 0f	 mov	 BYTE PTR __$EHRec$[ebp+8], 15 ; 0000000fH
  00326	ff 15 00 00 00
	00		 call	 DWORD PTR __imp_??1?$CStringT@DV?$StrTraitMFC_DLL@DV?$ChTraitsCRT@D@ATL@@@@@ATL@@QAE@XZ

; 1901 : 	char aSDName[MAX_PATH]={0,};

  0032c	68 04 01 00 00	 push	 260			; 00000104H
  00331	8d 85 ec fe ff
	ff		 lea	 eax, DWORD PTR _aSDName$[ebp]
  00337	6a 00		 push	 0
  00339	50		 push	 eax
  0033a	e8 00 00 00 00	 call	 _memset
  0033f	83 c4 0c	 add	 esp, 12			; 0000000cH

; 1902 : 	if(::GetPrivateProfileString("StrategyList", "PosName0", "", aSDName, MAX_PATH, szSTPath)==0)

  00342	8d 85 ec fe ff
	ff		 lea	 eax, DWORD PTR _aSDName$[ebp]
  00348	ff b5 c8 fe ff
	ff		 push	 DWORD PTR _szSTPath$[ebp]
  0034e	68 04 01 00 00	 push	 260			; 00000104H
  00353	50		 push	 eax
  00354	68 00 00 00 00	 push	 OFFSET ??_C@_00CNPNBAHC@@
  00359	68 00 00 00 00	 push	 OFFSET ??_C@_08HGPJPHIB@PosName0@
  0035e	68 00 00 00 00	 push	 OFFSET ??_C@_0N@GKFNKJGL@StrategyList@
  00363	ff 15 00 00 00
	00		 call	 DWORD PTR __imp__GetPrivateProfileStringA@24
  00369	85 c0		 test	 eax, eax
  0036b	0f 84 bc 02 00
	00		 je	 $LN33@RunIndexSD

; 1903 : 		return 1L;
; 1904 : 
; 1905 : 	CString strText = aSDName;

  00371	8d 85 ec fe ff
	ff		 lea	 eax, DWORD PTR _aSDName$[ebp]
  00377	50		 push	 eax
  00378	8d 8d d4 fe ff
	ff		 lea	 ecx, DWORD PTR _strText$[ebp]
  0037e	ff 15 00 00 00
	00		 call	 DWORD PTR __imp_??0?$CStringT@DV?$StrTraitMFC_DLL@DV?$ChTraitsCRT@D@ATL@@@@@ATL@@QAE@PBD@Z

; 1906 : 	CString strFileName = strText;

  00384	8d 85 d4 fe ff
	ff		 lea	 eax, DWORD PTR _strText$[ebp]
  0038a	c6 45 fc 10	 mov	 BYTE PTR __$EHRec$[ebp+8], 16 ; 00000010H
  0038e	50		 push	 eax
  0038f	8d 8d cc fe ff
	ff		 lea	 ecx, DWORD PTR _strFileName$[ebp]
  00395	ff 15 00 00 00
	00		 call	 DWORD PTR __imp_??0?$CStringT@DV?$StrTraitMFC_DLL@DV?$ChTraitsCRT@D@ATL@@@@@ATL@@QAE@ABV01@@Z
; File C:\Program Files (x86)\Microsoft Visual Studio\2019\Community\VC\Tools\MSVC\14.29.30133\atlmfc\include\cstringt.h

; 2401 : 		CStringT strResult( str1.GetManager() );

  0039b	8d 8d d8 fe ff
	ff		 lea	 ecx, DWORD PTR _strSDPath$[ebp]
; File D:\git\src\IBK\IBK_DRFN\ProjSrc\SrcDrfn\Chart\MULTICHART\TabSystemTradingEx.cpp

; 1907 : 	CString strFilePathName = strSDPath + "\\" + strText + ".SD";

  003a1	c6 45 fc 12	 mov	 BYTE PTR __$EHRec$[ebp+8], 18 ; 00000012H
; File C:\Program Files (x86)\Microsoft Visual Studio\2019\Community\VC\Tools\MSVC\14.29.30133\atlmfc\include\cstringt.h

; 2401 : 		CStringT strResult( str1.GetManager() );

  003a5	ff 15 00 00 00
	00		 call	 DWORD PTR __imp_?GetManager@?$CStringT@DV?$StrTraitMFC_DLL@DV?$ChTraitsCRT@D@ATL@@@@@ATL@@QBEPAUIAtlStringMgr@2@XZ
  003ab	50		 push	 eax
  003ac	8d 8d e8 fe ff
	ff		 lea	 ecx, DWORD PTR $T9[ebp]
  003b2	ff 15 00 00 00
	00		 call	 DWORD PTR __imp_??0?$CStringT@DV?$StrTraitMFC_DLL@DV?$ChTraitsCRT@D@ATL@@@@@ATL@@QAE@PAUIAtlStringMgr@1@@Z
; File C:\Program Files (x86)\Microsoft Visual Studio\2019\Community\VC\Tools\MSVC\14.29.30133\atlmfc\include\atlsimpstr.h

; 519  : 		return( GetData()->nDataLength );

  003b8	8b 85 d8 fe ff
	ff		 mov	 eax, DWORD PTR _strSDPath$[ebp]
; File C:\Program Files (x86)\Microsoft Visual Studio\2019\Community\VC\Tools\MSVC\14.29.30133\atlmfc\include\cstringt.h

; 2403 : 		CThisSimpleString::Concatenate( strResult, str1, str1.GetLength(), psz2, CThisSimpleString::StringLength( psz2 ) );

  003be	6a 01		 push	 1
  003c0	68 00 00 00 00	 push	 OFFSET ??_C@_01KICIPPFI@?2@

; 2404 : 
; 2405 : 		return( strResult );

  003c5	c7 85 e0 fe ff
	ff 00 04 00 00	 mov	 DWORD PTR $T3[ebp], 1024 ; 00000400H
  003cf	ff 70 f4	 push	 DWORD PTR [eax-12]
  003d2	50		 push	 eax
  003d3	8d 85 e8 fe ff
	ff		 lea	 eax, DWORD PTR $T9[ebp]
  003d9	50		 push	 eax
  003da	ff 15 00 00 00
	00		 call	 DWORD PTR __imp_?Concatenate@?$CSimpleStringT@D$00@ATL@@KAXAAV12@PBDH1H@Z
  003e0	83 c4 14	 add	 esp, 20			; 00000014H

; 2390 : 		CStringT strResult( str1.GetManager() );

  003e3	8d 8d e8 fe ff
	ff		 lea	 ecx, DWORD PTR $T9[ebp]
; File D:\git\src\IBK\IBK_DRFN\ProjSrc\SrcDrfn\Chart\MULTICHART\TabSystemTradingEx.cpp

; 1907 : 	CString strFilePathName = strSDPath + "\\" + strText + ".SD";

  003e9	c6 45 fc 13	 mov	 BYTE PTR __$EHRec$[ebp+8], 19 ; 00000013H
; File C:\Program Files (x86)\Microsoft Visual Studio\2019\Community\VC\Tools\MSVC\14.29.30133\atlmfc\include\cstringt.h

; 2390 : 		CStringT strResult( str1.GetManager() );

  003ed	ff 15 00 00 00
	00		 call	 DWORD PTR __imp_?GetManager@?$CStringT@DV?$StrTraitMFC_DLL@DV?$ChTraitsCRT@D@ATL@@@@@ATL@@QBEPAUIAtlStringMgr@2@XZ
  003f3	50		 push	 eax
  003f4	8d 8d e4 fe ff
	ff		 lea	 ecx, DWORD PTR $T5[ebp]
  003fa	ff 15 00 00 00
	00		 call	 DWORD PTR __imp_??0?$CStringT@DV?$StrTraitMFC_DLL@DV?$ChTraitsCRT@D@ATL@@@@@ATL@@QAE@PAUIAtlStringMgr@1@@Z
; File C:\Program Files (x86)\Microsoft Visual Studio\2019\Community\VC\Tools\MSVC\14.29.30133\atlmfc\include\atlsimpstr.h

; 519  : 		return( GetData()->nDataLength );

  00400	8b 85 d4 fe ff
	ff		 mov	 eax, DWORD PTR _strText$[ebp]
  00406	8b 8d e8 fe ff
	ff		 mov	 ecx, DWORD PTR $T9[ebp]
; File C:\Program Files (x86)\Microsoft Visual Studio\2019\Community\VC\Tools\MSVC\14.29.30133\atlmfc\include\cstringt.h

; 2394 : 		return( strResult );

  0040c	c7 85 e0 fe ff
	ff 00 0c 00 00	 mov	 DWORD PTR $T3[ebp], 3072 ; 00000c00H
  00416	ff 70 f4	 push	 DWORD PTR [eax-12]
  00419	50		 push	 eax
  0041a	ff 71 f4	 push	 DWORD PTR [ecx-12]
  0041d	8d 85 e4 fe ff
	ff		 lea	 eax, DWORD PTR $T5[ebp]
  00423	51		 push	 ecx
  00424	50		 push	 eax
  00425	ff 15 00 00 00
	00		 call	 DWORD PTR __imp_?Concatenate@?$CSimpleStringT@D$00@ATL@@KAXAAV12@PBDH1H@Z
; File D:\git\src\IBK\IBK_DRFN\ProjSrc\SrcDrfn\Chart\MULTICHART\TabSystemTradingEx.cpp

; 1907 : 	CString strFilePathName = strSDPath + "\\" + strText + ".SD";

  0042b	68 00 00 00 00	 push	 OFFSET ??_C@_03GELJOCAG@?4SD@
  00430	8d 85 e4 fe ff
	ff		 lea	 eax, DWORD PTR $T5[ebp]
  00436	50		 push	 eax
  00437	8d 85 d0 fe ff
	ff		 lea	 eax, DWORD PTR _strFilePathName$[ebp]
  0043d	50		 push	 eax
  0043e	e8 00 00 00 00	 call	 ??HATL@@YA?AV?$CStringT@DV?$StrTraitMFC_DLL@DV?$ChTraitsCRT@D@ATL@@@@@0@ABV10@PBD@Z ; ATL::operator+
  00443	83 c4 20	 add	 esp, 32			; 00000020H
  00446	8d 8d e4 fe ff
	ff		 lea	 ecx, DWORD PTR $T5[ebp]
  0044c	ff 15 00 00 00
	00		 call	 DWORD PTR __imp_??1?$CStringT@DV?$StrTraitMFC_DLL@DV?$ChTraitsCRT@D@ATL@@@@@ATL@@QAE@XZ
  00452	8d 8d e8 fe ff
	ff		 lea	 ecx, DWORD PTR $T9[ebp]
  00458	c6 45 fc 16	 mov	 BYTE PTR __$EHRec$[ebp+8], 22 ; 00000016H
  0045c	ff 15 00 00 00
	00		 call	 DWORD PTR __imp_??1?$CStringT@DV?$StrTraitMFC_DLL@DV?$ChTraitsCRT@D@ATL@@@@@ATL@@QAE@XZ

; 1910 : 	CStringArray strArrayName;

  00462	8d 8d ac fe ff
	ff		 lea	 ecx, DWORD PTR _strArrayName$[ebp]
  00468	e8 00 00 00 00	 call	 ??0CStringArray@@QAE@XZ	; CStringArray::CStringArray
; File C:\Program Files (x86)\Microsoft Visual Studio\2019\Community\VC\Tools\MSVC\14.29.30133\atlmfc\include\afxcoll.inl

; 321  : 		SetAtGrow(nIndex, newElement);

  0046d	8d 85 cc fe ff
	ff		 lea	 eax, DWORD PTR _strFileName$[ebp]
; File D:\git\src\IBK\IBK_DRFN\ProjSrc\SrcDrfn\Chart\MULTICHART\TabSystemTradingEx.cpp

; 1910 : 	CStringArray strArrayName;

  00473	c6 45 fc 17	 mov	 BYTE PTR __$EHRec$[ebp+8], 23 ; 00000017H
; File C:\Program Files (x86)\Microsoft Visual Studio\2019\Community\VC\Tools\MSVC\14.29.30133\atlmfc\include\afxcoll.inl

; 321  : 		SetAtGrow(nIndex, newElement);

  00477	50		 push	 eax
  00478	ff b5 b4 fe ff
	ff		 push	 DWORD PTR _strArrayName$[ebp+8]
  0047e	8d 8d ac fe ff
	ff		 lea	 ecx, DWORD PTR _strArrayName$[ebp]
  00484	e8 00 00 00 00	 call	 ?SetAtGrow@CStringArray@@QAEXHABV?$CStringT@DV?$StrTraitMFC_DLL@DV?$ChTraitsCRT@D@ATL@@@@@ATL@@@Z ; CStringArray::SetAtGrow
  00489	8d 85 d0 fe ff
	ff		 lea	 eax, DWORD PTR _strFilePathName$[ebp]
  0048f	50		 push	 eax
  00490	ff b5 b4 fe ff
	ff		 push	 DWORD PTR _strArrayName$[ebp+8]
  00496	8d 8d ac fe ff
	ff		 lea	 ecx, DWORD PTR _strArrayName$[ebp]
  0049c	e8 00 00 00 00	 call	 ?SetAtGrow@CStringArray@@QAEXHABV?$CStringT@DV?$StrTraitMFC_DLL@DV?$ChTraitsCRT@D@ATL@@@@@ATL@@@Z ; CStringArray::SetAtGrow
; File D:\git\src\IBK\IBK_DRFN\ProjSrc\SrcDrfn\Chart\MULTICHART\TabSystemTradingEx.cpp

; 1915 : 	if(p_nSTRunType==STRun_Type_Index)

  004a1	8b 45 08	 mov	 eax, DWORD PTR _p_nSTRunType$[ebp]
  004a4	83 f8 01	 cmp	 eax, 1
  004a7	0f 84 2b 01 00
	00		 je	 $LN10@RunIndexSD

; 1916 : 	{
; 1917 : 		if(m_pChartMng->GetSafeHwnd())
; 1918 : 			m_pChartMng->SendMessage(UMSG_ADDSYSTEMTRADINGINDEX,(WPARAM)&strArrayName);
; 1919 : 
; 1920 : 		return 1L;
; 1921 : 	}
; 1922 : 	// 200 : 
; 1923 : 	else if(p_nSTRunType==STRun_Type_BullBear)

  004ad	83 f8 04	 cmp	 eax, 4
  004b0	0f 85 48 01 00
	00		 jne	 $LN12@RunIndexSD

; 1924 : 	{
; 1925 : 		BOOL bIsRun = FALSE;
; 1926 : 		if(IsSTRun(strFilePathName, strText, p_nSTRunType))

  004b6	50		 push	 eax
  004b7	ff b5 d4 fe ff
	ff		 push	 DWORD PTR _strText$[ebp]
  004bd	8b cf		 mov	 ecx, edi
  004bf	ff b5 d0 fe ff
	ff		 push	 DWORD PTR _strFilePathName$[ebp]
  004c5	e8 00 00 00 00	 call	 ?IsSTRun@CTabSystemTradingEx@@QAEHPBD0H@Z ; CTabSystemTradingEx::IsSTRun
  004ca	85 c0		 test	 eax, eax
  004cc	0f 85 06 01 00
	00		 jne	 $LN10@RunIndexSD

; 1927 : 		{
; 1928 : 			bIsRun = TRUE;
; 1929 : 		}
; 1930 : 		else
; 1931 : 		{
; 1932 : 			LONG dwOutput=0;
; 1933 : 			CStringList szInputList;

  004d2	6a 0a		 push	 10			; 0000000aH
  004d4	8d 8d 90 fe ff
	ff		 lea	 ecx, DWORD PTR _szInputList$2[ebp]
  004da	e8 00 00 00 00	 call	 ??0CStringList@@QAE@H@Z	; CStringList::CStringList

; 1934 : 
; 1935 : 			// MakeInput
; 1936 : 			{
; 1937 : 				szTmp.Format("STNAME=%s", p_pArg->szSTName);	// 

  004df	ff 73 04	 push	 DWORD PTR [ebx+4]
  004e2	8b 35 00 00 00
	00		 mov	 esi, DWORD PTR __imp_?Format@?$CStringT@DV?$StrTraitMFC_DLL@DV?$ChTraitsCRT@D@ATL@@@@@ATL@@QAAXPBDZZ
  004e8	8d 85 dc fe ff
	ff		 lea	 eax, DWORD PTR _szTmp$[ebp]
  004ee	68 00 00 00 00	 push	 OFFSET ??_C@_09KEIDFEGD@STNAME?$DN?$CFs@
  004f3	50		 push	 eax
  004f4	c6 45 fc 18	 mov	 BYTE PTR __$EHRec$[ebp+8], 24 ; 00000018H
  004f8	ff d6		 call	 esi
  004fa	83 c4 0c	 add	 esp, 12			; 0000000cH

; 1938 : 				szInputList.AddTail(szTmp);

  004fd	8d 85 dc fe ff
	ff		 lea	 eax, DWORD PTR _szTmp$[ebp]
  00503	8d 8d 90 fe ff
	ff		 lea	 ecx, DWORD PTR _szInputList$2[ebp]
  00509	50		 push	 eax
  0050a	e8 00 00 00 00	 call	 ?AddTail@CStringList@@QAEPAU__POSITION@@ABV?$CStringT@DV?$StrTraitMFC_DLL@DV?$ChTraitsCRT@D@ATL@@@@@ATL@@@Z ; CStringList::AddTail

; 1939 : 
; 1940 : 				//szTmp.Format("SFGPATH=%s\\%s", strSDPath, p_pArg->szSTName);	// SFG,  @  .				
; 1941 : 				// SFG,  ^  .
; 1942 : 				szTmp.Format("SFGPATH=%s\\%s", strSDPath, p_pArg->szSTName);	//090902-solomon @->^

  0050f	ff 73 04	 push	 DWORD PTR [ebx+4]
  00512	8d 85 dc fe ff
	ff		 lea	 eax, DWORD PTR _szTmp$[ebp]
  00518	ff b5 d8 fe ff
	ff		 push	 DWORD PTR _strSDPath$[ebp]
  0051e	68 00 00 00 00	 push	 OFFSET ??_C@_0O@GLFFNEMD@SFGPATH?$DN?$CFs?2?$CFs@
  00523	50		 push	 eax
  00524	ff d6		 call	 esi
  00526	83 c4 10	 add	 esp, 16			; 00000010H

; 1943 : 
; 1944 : 				szInputList.AddTail(szTmp);

  00529	8d 85 dc fe ff
	ff		 lea	 eax, DWORD PTR _szTmp$[ebp]
  0052f	8d 8d 90 fe ff
	ff		 lea	 ecx, DWORD PTR _szInputList$2[ebp]
  00535	50		 push	 eax
  00536	e8 00 00 00 00	 call	 ?AddTail@CStringList@@QAEPAU__POSITION@@ABV?$CStringT@DV?$StrTraitMFC_DLL@DV?$ChTraitsCRT@D@ATL@@@@@ATL@@@Z ; CStringList::AddTail

; 1945 : 
; 1946 : 				szTmp.Format("STPATH=%s\\%s%s", p_pArg->szSTPath, p_pArg->szSTName, ".ST");	// (ST)

  0053b	68 00 00 00 00	 push	 OFFSET ??_C@_03COHLPAFH@?4ST@
  00540	ff 73 04	 push	 DWORD PTR [ebx+4]
  00543	8d 85 dc fe ff
	ff		 lea	 eax, DWORD PTR _szTmp$[ebp]
  00549	ff 73 08	 push	 DWORD PTR [ebx+8]
  0054c	68 00 00 00 00	 push	 OFFSET ??_C@_0P@OMDCFLHM@STPATH?$DN?$CFs?2?$CFs?$CFs@
  00551	50		 push	 eax
  00552	ff d6		 call	 esi
  00554	83 c4 14	 add	 esp, 20			; 00000014H

; 1947 : 				szInputList.AddTail(szTmp);

  00557	8d 85 dc fe ff
	ff		 lea	 eax, DWORD PTR _szTmp$[ebp]
  0055d	8d 8d 90 fe ff
	ff		 lea	 ecx, DWORD PTR _szInputList$2[ebp]
  00563	50		 push	 eax
  00564	e8 00 00 00 00	 call	 ?AddTail@CStringList@@QAEPAU__POSITION@@ABV?$CStringT@DV?$StrTraitMFC_DLL@DV?$ChTraitsCRT@D@ATL@@@@@ATL@@@Z ; CStringList::AddTail

; 1965 : 	CString szDllName = "HWStrategyConfigureWizard.dll";	// DLL .

  00569	68 00 00 00 00	 push	 OFFSET ??_C@_0BO@DLDLABLN@HWStrategyConfigureWizard?4dll@
  0056e	8d 8d e4 fe ff
	ff		 lea	 ecx, DWORD PTR _szDllName$4[ebp]
  00574	bb 02 00 00 00	 mov	 ebx, 2
  00579	ff 15 00 00 00
	00		 call	 DWORD PTR __imp_??0?$CStringT@DV?$StrTraitMFC_DLL@DV?$ChTraitsCRT@D@ATL@@@@@ATL@@QAE@PBD@Z

; 1966 : 	HINSTANCE hLib = ::LoadLibrary(szDllName);

  0057f	ff b5 e4 fe ff
	ff		 push	 DWORD PTR _szDllName$4[ebp]
  00585	c6 45 fc 19	 mov	 BYTE PTR __$EHRec$[ebp+8], 25 ; 00000019H
  00589	ff 15 00 00 00
	00		 call	 DWORD PTR __imp__LoadLibraryA@4
  0058f	8b f0		 mov	 esi, eax

; 1967 : 	if(hLib)

  00591	85 f6		 test	 esi, esi
  00593	74 27		 je	 SHORT $LN229@RunIndexSD

; 1968 : 	{
; 1969 : 		typedef	int (LIB_DoModal_DlgSysVarOption)(CStringList* p_dwInput, LONG dwOutput);
; 1970 : 		LIB_DoModal_DlgSysVarOption* pFunc = (LIB_DoModal_DlgSysVarOption*)GetProcAddress(hLib,_T("DoModal_DlgSysVarOption"));

  00595	68 00 00 00 00	 push	 OFFSET ??_C@_0BI@PLCLJLGO@DoModal_DlgSysVarOption@
  0059a	56		 push	 esi
  0059b	ff 15 00 00 00
	00		 call	 DWORD PTR __imp__GetProcAddress@8

; 1971 : 		if(pFunc)

  005a1	85 c0		 test	 eax, eax
  005a3	74 10		 je	 SHORT $LN230@RunIndexSD

; 1972 : 		{
; 1973 : 			nRet = pFunc(p_dwInput, dwOutput);

  005a5	8d 8d 90 fe ff
	ff		 lea	 ecx, DWORD PTR _szInputList$2[ebp]
  005ab	6a 00		 push	 0
  005ad	51		 push	 ecx
  005ae	ff d0		 call	 eax
  005b0	83 c4 08	 add	 esp, 8
  005b3	8b d8		 mov	 ebx, eax
$LN230@RunIndexSD:

; 1974 : 		}
; 1975 : 		::FreeLibrary(hLib);

  005b5	56		 push	 esi
  005b6	ff 15 00 00 00
	00		 call	 DWORD PTR __imp__FreeLibrary@4
$LN229@RunIndexSD:

; 1976 : 	}
; 1977 : 	return nRet;

  005bc	8d 8d e4 fe ff
	ff		 lea	 ecx, DWORD PTR _szDllName$4[ebp]
  005c2	ff 15 00 00 00
	00		 call	 DWORD PTR __imp_??1?$CStringT@DV?$StrTraitMFC_DLL@DV?$ChTraitsCRT@D@ATL@@@@@ATL@@QAE@XZ

; 1948 : 			}
; 1949 : 			int nRet = DoDlgSysVarOption(&szInputList, dwOutput);
; 1950 : 			if(nRet==IDCANCEL) return 1L;

  005c8	8d 8d 90 fe ff
	ff		 lea	 ecx, DWORD PTR _szInputList$2[ebp]
  005ce	e8 00 00 00 00	 call	 ??1CStringList@@UAE@XZ	; CStringList::~CStringList
  005d3	83 fb 02	 cmp	 ebx, 2
  005d6	74 26		 je	 SHORT $LN12@RunIndexSD
$LN10@RunIndexSD:

; 1951 : 		}
; 1952 : 
; 1953 : 		if(m_pChartMng->GetSafeHwnd())
; 1954 : 			m_pChartMng->SendMessage(UMSG_ADDSYSTEMTRADINGINDEX,(WPARAM)&strArrayName);
; 1955 : 
; 1956 : 		return 1L;
; 1957 : 	}
; 1958 : 
; 1959 : 	return 1L;

  005d8	8b 87 c4 00 00
	00		 mov	 eax, DWORD PTR [edi+196]
  005de	85 c0		 test	 eax, eax
  005e0	74 1c		 je	 SHORT $LN12@RunIndexSD
  005e2	8b 40 20	 mov	 eax, DWORD PTR [eax+32]
  005e5	85 c0		 test	 eax, eax
  005e7	74 15		 je	 SHORT $LN12@RunIndexSD
  005e9	6a 00		 push	 0
  005eb	8d 8d ac fe ff
	ff		 lea	 ecx, DWORD PTR _strArrayName$[ebp]
  005f1	51		 push	 ecx
  005f2	68 be 04 00 00	 push	 1214			; 000004beH
  005f7	50		 push	 eax
  005f8	ff 15 00 00 00
	00		 call	 DWORD PTR __imp__SendMessageA@16
$LN12@RunIndexSD:
  005fe	8d 8d ac fe ff
	ff		 lea	 ecx, DWORD PTR _strArrayName$[ebp]
  00604	e8 00 00 00 00	 call	 ??1CStringArray@@UAE@XZ	; CStringArray::~CStringArray
  00609	8d 8d d0 fe ff
	ff		 lea	 ecx, DWORD PTR _strFilePathName$[ebp]
  0060f	ff 15 00 00 00
	00		 call	 DWORD PTR __imp_??1?$CStringT@DV?$StrTraitMFC_DLL@DV?$ChTraitsCRT@D@ATL@@@@@ATL@@QAE@XZ
  00615	8d 8d cc fe ff
	ff		 lea	 ecx, DWORD PTR _strFileName$[ebp]
  0061b	ff 15 00 00 00
	00		 call	 DWORD PTR __imp_??1?$CStringT@DV?$StrTraitMFC_DLL@DV?$ChTraitsCRT@D@ATL@@@@@ATL@@QAE@XZ
  00621	8d 8d d4 fe ff
	ff		 lea	 ecx, DWORD PTR _strText$[ebp]
  00627	ff 15 00 00 00
	00		 call	 DWORD PTR __imp_??1?$CStringT@DV?$StrTraitMFC_DLL@DV?$ChTraitsCRT@D@ATL@@@@@ATL@@QAE@XZ
$LN33@RunIndexSD:
  0062d	8d 8d c8 fe ff
	ff		 lea	 ecx, DWORD PTR _szSTPath$[ebp]
  00633	ff 15 00 00 00
	00		 call	 DWORD PTR __imp_??1?$CStringT@DV?$StrTraitMFC_DLL@DV?$ChTraitsCRT@D@ATL@@@@@ATL@@QAE@XZ
  00639	8d 8d d8 fe ff
	ff		 lea	 ecx, DWORD PTR _strSDPath$[ebp]
  0063f	ff 15 00 00 00
	00		 call	 DWORD PTR __imp_??1?$CStringT@DV?$StrTraitMFC_DLL@DV?$ChTraitsCRT@D@ATL@@@@@ATL@@QAE@XZ
  00645	8d 8d c4 fe ff
	ff		 lea	 ecx, DWORD PTR _strUserPath$[ebp]
  0064b	ff 15 00 00 00
	00		 call	 DWORD PTR __imp_??1?$CStringT@DV?$StrTraitMFC_DLL@DV?$ChTraitsCRT@D@ATL@@@@@ATL@@QAE@XZ
  00651	8d 8d c0 fe ff
	ff		 lea	 ecx, DWORD PTR _strSystemPath$[ebp]
  00657	ff 15 00 00 00
	00		 call	 DWORD PTR __imp_??1?$CStringT@DV?$StrTraitMFC_DLL@DV?$ChTraitsCRT@D@ATL@@@@@ATL@@QAE@XZ
  0065d	8d 8d dc fe ff
	ff		 lea	 ecx, DWORD PTR _szTmp$[ebp]
  00663	ff 15 00 00 00
	00		 call	 DWORD PTR __imp_??1?$CStringT@DV?$StrTraitMFC_DLL@DV?$ChTraitsCRT@D@ATL@@@@@ATL@@QAE@XZ
  00669	b8 01 00 00 00	 mov	 eax, 1

; 1960 : }

  0066e	8b 4d f4	 mov	 ecx, DWORD PTR __$EHRec$[ebp]
  00671	64 89 0d 00 00
	00 00		 mov	 DWORD PTR fs:0, ecx
  00678	59		 pop	 ecx
  00679	5f		 pop	 edi
  0067a	5e		 pop	 esi
  0067b	5b		 pop	 ebx
  0067c	8b 4d f0	 mov	 ecx, DWORD PTR __$ArrayPad$[ebp]
  0067f	33 cd		 xor	 ecx, ebp
  00681	e8 00 00 00 00	 call	 @__security_check_cookie@4
  00686	8b e5		 mov	 esp, ebp
  00688	5d		 pop	 ebp
  00689	c2 08 00	 ret	 8
_TEXT	ENDS
;	COMDAT text$x
text$x	SEGMENT
__unwindfunclet$?RunIndexSD@CTabSystemTradingEx@@QAEJHPAUSTMNG_ITEMINFO@@@Z$0:
  00000	8d 8d dc fe ff
	ff		 lea	 ecx, DWORD PTR _szTmp$[ebp]
  00006	ff 25 00 00 00
	00		 jmp	 DWORD PTR __imp_??1?$CStringT@DV?$StrTraitMFC_DLL@DV?$ChTraitsCRT@D@ATL@@@@@ATL@@QAE@XZ
__unwindfunclet$?RunIndexSD@CTabSystemTradingEx@@QAEJHPAUSTMNG_ITEMINFO@@@Z$19:
  0000c	8b 85 e0 fe ff
	ff		 mov	 eax, DWORD PTR $T3[ebp]
  00012	83 e0 01	 and	 eax, 1
  00015	0f 84 13 00 00
	00		 je	 $LN40@RunIndexSD
  0001b	83 a5 e0 fe ff
	ff fe		 and	 DWORD PTR $T3[ebp], -2	; fffffffeH
  00022	8d 8d e8 fe ff
	ff		 lea	 ecx, DWORD PTR $T13[ebp]
  00028	ff 25 00 00 00
	00		 jmp	 DWORD PTR __imp_??1?$CStringT@DV?$StrTraitMFC_DLL@DV?$ChTraitsCRT@D@ATL@@@@@ATL@@QAE@XZ
$LN40@RunIndexSD:
  0002e	c3		 ret	 0
__unwindfunclet$?RunIndexSD@CTabSystemTradingEx@@QAEJHPAUSTMNG_ITEMINFO@@@Z$2:
  0002f	8d 8d c0 fe ff
	ff		 lea	 ecx, DWORD PTR _strSystemPath$[ebp]
  00035	ff 25 00 00 00
	00		 jmp	 DWORD PTR __imp_??1?$CStringT@DV?$StrTraitMFC_DLL@DV?$ChTraitsCRT@D@ATL@@@@@ATL@@QAE@XZ
__unwindfunclet$?RunIndexSD@CTabSystemTradingEx@@QAEJHPAUSTMNG_ITEMINFO@@@Z$21:
  0003b	8b 85 e0 fe ff
	ff		 mov	 eax, DWORD PTR $T3[ebp]
  00041	83 e0 04	 and	 eax, 4
  00044	0f 84 13 00 00
	00		 je	 $LN66@RunIndexSD
  0004a	83 a5 e0 fe ff
	ff fb		 and	 DWORD PTR $T3[ebp], -5	; fffffffbH
  00051	8d 8d e8 fe ff
	ff		 lea	 ecx, DWORD PTR $T12[ebp]
  00057	ff 25 00 00 00
	00		 jmp	 DWORD PTR __imp_??1?$CStringT@DV?$StrTraitMFC_DLL@DV?$ChTraitsCRT@D@ATL@@@@@ATL@@QAE@XZ
$LN66@RunIndexSD:
  0005d	c3		 ret	 0
__unwindfunclet$?RunIndexSD@CTabSystemTradingEx@@QAEJHPAUSTMNG_ITEMINFO@@@Z$4:
  0005e	8d 8d c4 fe ff
	ff		 lea	 ecx, DWORD PTR _strUserPath$[ebp]
  00064	ff 25 00 00 00
	00		 jmp	 DWORD PTR __imp_??1?$CStringT@DV?$StrTraitMFC_DLL@DV?$ChTraitsCRT@D@ATL@@@@@ATL@@QAE@XZ
__unwindfunclet$?RunIndexSD@CTabSystemTradingEx@@QAEJHPAUSTMNG_ITEMINFO@@@Z$5:
  0006a	8d 8d d8 fe ff
	ff		 lea	 ecx, DWORD PTR _strSDPath$[ebp]
  00070	ff 25 00 00 00
	00		 jmp	 DWORD PTR __imp_??1?$CStringT@DV?$StrTraitMFC_DLL@DV?$ChTraitsCRT@D@ATL@@@@@ATL@@QAE@XZ
__unwindfunclet$?RunIndexSD@CTabSystemTradingEx@@QAEJHPAUSTMNG_ITEMINFO@@@Z$23:
  00076	8b 85 e0 fe ff
	ff		 mov	 eax, DWORD PTR $T3[ebp]
  0007c	83 e0 10	 and	 eax, 16			; 00000010H
  0007f	0f 84 13 00 00
	00		 je	 $LN92@RunIndexSD
  00085	83 a5 e0 fe ff
	ff ef		 and	 DWORD PTR $T3[ebp], -17	; ffffffefH
  0008c	8d 8d e8 fe ff
	ff		 lea	 ecx, DWORD PTR $T11[ebp]
  00092	ff 25 00 00 00
	00		 jmp	 DWORD PTR __imp_??1?$CStringT@DV?$StrTraitMFC_DLL@DV?$ChTraitsCRT@D@ATL@@@@@ATL@@QAE@XZ
$LN92@RunIndexSD:
  00098	c3		 ret	 0
__unwindfunclet$?RunIndexSD@CTabSystemTradingEx@@QAEJHPAUSTMNG_ITEMINFO@@@Z$24:
  00099	8b 85 e0 fe ff
	ff		 mov	 eax, DWORD PTR $T3[ebp]
  0009f	83 e0 20	 and	 eax, 32			; 00000020H
  000a2	0f 84 13 00 00
	00		 je	 $LN105@RunIndexSD
  000a8	83 a5 e0 fe ff
	ff df		 and	 DWORD PTR $T3[ebp], -33	; ffffffdfH
  000af	8d 8d e4 fe ff
	ff		 lea	 ecx, DWORD PTR $T8[ebp]
  000b5	ff 25 00 00 00
	00		 jmp	 DWORD PTR __imp_??1?$CStringT@DV?$StrTraitMFC_DLL@DV?$ChTraitsCRT@D@ATL@@@@@ATL@@QAE@XZ
$LN105@RunIndexSD:
  000bb	c3		 ret	 0
__unwindfunclet$?RunIndexSD@CTabSystemTradingEx@@QAEJHPAUSTMNG_ITEMINFO@@@Z$25:
  000bc	8b 85 e0 fe ff
	ff		 mov	 eax, DWORD PTR $T3[ebp]
  000c2	83 e0 40	 and	 eax, 64			; 00000040H
  000c5	0f 84 13 00 00
	00		 je	 $LN118@RunIndexSD
  000cb	83 a5 e0 fe ff
	ff bf		 and	 DWORD PTR $T3[ebp], -65	; ffffffbfH
  000d2	8d 8d e4 fe ff
	ff		 lea	 ecx, DWORD PTR $T7[ebp]
  000d8	ff 25 00 00 00
	00		 jmp	 DWORD PTR __imp_??1?$CStringT@DV?$StrTraitMFC_DLL@DV?$ChTraitsCRT@D@ATL@@@@@ATL@@QAE@XZ
$LN118@RunIndexSD:
  000de	c3		 ret	 0
__unwindfunclet$?RunIndexSD@CTabSystemTradingEx@@QAEJHPAUSTMNG_ITEMINFO@@@Z$26:
  000df	8b 85 e0 fe ff
	ff		 mov	 eax, DWORD PTR $T3[ebp]
  000e5	25 80 00 00 00	 and	 eax, 128		; 00000080H
  000ea	0f 84 16 00 00
	00		 je	 $LN131@RunIndexSD
  000f0	81 a5 e0 fe ff
	ff 7f ff ff ff	 and	 DWORD PTR $T3[ebp], -129 ; ffffff7fH
  000fa	8d 8d e8 fe ff
	ff		 lea	 ecx, DWORD PTR $T10[ebp]
  00100	ff 25 00 00 00
	00		 jmp	 DWORD PTR __imp_??1?$CStringT@DV?$StrTraitMFC_DLL@DV?$ChTraitsCRT@D@ATL@@@@@ATL@@QAE@XZ
$LN131@RunIndexSD:
  00106	c3		 ret	 0
__unwindfunclet$?RunIndexSD@CTabSystemTradingEx@@QAEJHPAUSTMNG_ITEMINFO@@@Z$27:
  00107	8b 85 e0 fe ff
	ff		 mov	 eax, DWORD PTR $T3[ebp]
  0010d	25 00 01 00 00	 and	 eax, 256		; 00000100H
  00112	0f 84 16 00 00
	00		 je	 $LN144@RunIndexSD
  00118	81 a5 e0 fe ff
	ff ff fe ff ff	 and	 DWORD PTR $T3[ebp], -257 ; fffffeffH
  00122	8d 8d e4 fe ff
	ff		 lea	 ecx, DWORD PTR $T6[ebp]
  00128	ff 25 00 00 00
	00		 jmp	 DWORD PTR __imp_??1?$CStringT@DV?$StrTraitMFC_DLL@DV?$ChTraitsCRT@D@ATL@@@@@ATL@@QAE@XZ
$LN144@RunIndexSD:
  0012e	c3		 ret	 0
__unwindfunclet$?RunIndexSD@CTabSystemTradingEx@@QAEJHPAUSTMNG_ITEMINFO@@@Z$11:
  0012f	8d 8d c8 fe ff
	ff		 lea	 ecx, DWORD PTR _szSTPath$[ebp]
  00135	ff 25 00 00 00
	00		 jmp	 DWORD PTR __imp_??1?$CStringT@DV?$StrTraitMFC_DLL@DV?$ChTraitsCRT@D@ATL@@@@@ATL@@QAE@XZ
__unwindfunclet$?RunIndexSD@CTabSystemTradingEx@@QAEJHPAUSTMNG_ITEMINFO@@@Z$12:
  0013b	8d 8d d4 fe ff
	ff		 lea	 ecx, DWORD PTR _strText$[ebp]
  00141	ff 25 00 00 00
	00		 jmp	 DWORD PTR __imp_??1?$CStringT@DV?$StrTraitMFC_DLL@DV?$ChTraitsCRT@D@ATL@@@@@ATL@@QAE@XZ
__unwindfunclet$?RunIndexSD@CTabSystemTradingEx@@QAEJHPAUSTMNG_ITEMINFO@@@Z$13:
  00147	8d 8d cc fe ff
	ff		 lea	 ecx, DWORD PTR _strFileName$[ebp]
  0014d	ff 25 00 00 00
	00		 jmp	 DWORD PTR __imp_??1?$CStringT@DV?$StrTraitMFC_DLL@DV?$ChTraitsCRT@D@ATL@@@@@ATL@@QAE@XZ
__unwindfunclet$?RunIndexSD@CTabSystemTradingEx@@QAEJHPAUSTMNG_ITEMINFO@@@Z$29:
  00153	8b 85 e0 fe ff
	ff		 mov	 eax, DWORD PTR $T3[ebp]
  00159	25 00 04 00 00	 and	 eax, 1024		; 00000400H
  0015e	0f 84 16 00 00
	00		 je	 $LN175@RunIndexSD
  00164	81 a5 e0 fe ff
	ff ff fb ff ff	 and	 DWORD PTR $T3[ebp], -1025 ; fffffbffH
  0016e	8d 8d e8 fe ff
	ff		 lea	 ecx, DWORD PTR $T9[ebp]
  00174	ff 25 00 00 00
	00		 jmp	 DWORD PTR __imp_??1?$CStringT@DV?$StrTraitMFC_DLL@DV?$ChTraitsCRT@D@ATL@@@@@ATL@@QAE@XZ
$LN175@RunIndexSD:
  0017a	c3		 ret	 0
__unwindfunclet$?RunIndexSD@CTabSystemTradingEx@@QAEJHPAUSTMNG_ITEMINFO@@@Z$30:
  0017b	8b 85 e0 fe ff
	ff		 mov	 eax, DWORD PTR $T3[ebp]
  00181	25 00 08 00 00	 and	 eax, 2048		; 00000800H
  00186	0f 84 16 00 00
	00		 je	 $LN188@RunIndexSD
  0018c	81 a5 e0 fe ff
	ff ff f7 ff ff	 and	 DWORD PTR $T3[ebp], -2049 ; fffff7ffH
  00196	8d 8d e4 fe ff
	ff		 lea	 ecx, DWORD PTR $T5[ebp]
  0019c	ff 25 00 00 00
	00		 jmp	 DWORD PTR __imp_??1?$CStringT@DV?$StrTraitMFC_DLL@DV?$ChTraitsCRT@D@ATL@@@@@ATL@@QAE@XZ
$LN188@RunIndexSD:
  001a2	c3		 ret	 0
__unwindfunclet$?RunIndexSD@CTabSystemTradingEx@@QAEJHPAUSTMNG_ITEMINFO@@@Z$16:
  001a3	8d 8d d0 fe ff
	ff		 lea	 ecx, DWORD PTR _strFilePathName$[ebp]
  001a9	ff 25 00 00 00
	00		 jmp	 DWORD PTR __imp_??1?$CStringT@DV?$StrTraitMFC_DLL@DV?$ChTraitsCRT@D@ATL@@@@@ATL@@QAE@XZ
__unwindfunclet$?RunIndexSD@CTabSystemTradingEx@@QAEJHPAUSTMNG_ITEMINFO@@@Z$17:
  001af	8d 8d ac fe ff
	ff		 lea	 ecx, DWORD PTR _strArrayName$[ebp]
  001b5	e9 00 00 00 00	 jmp	 ??1CStringArray@@UAE@XZ	; CStringArray::~CStringArray
__unwindfunclet$?RunIndexSD@CTabSystemTradingEx@@QAEJHPAUSTMNG_ITEMINFO@@@Z$18:
  001ba	8d 8d 90 fe ff
	ff		 lea	 ecx, DWORD PTR _szInputList$2[ebp]
  001c0	e9 00 00 00 00	 jmp	 ??1CStringList@@UAE@XZ	; CStringList::~CStringList
__unwindfunclet$?RunIndexSD@CTabSystemTradingEx@@QAEJHPAUSTMNG_ITEMINFO@@@Z$32:
  001c5	8d 8d e4 fe ff
	ff		 lea	 ecx, DWORD PTR _szDllName$4[ebp]
  001cb	ff 25 00 00 00
	00		 jmp	 DWORD PTR __imp_??1?$CStringT@DV?$StrTraitMFC_DLL@DV?$ChTraitsCRT@D@ATL@@@@@ATL@@QAE@XZ
  001d1	cc		 int	 3
  001d2	cc		 int	 3
  001d3	cc		 int	 3
  001d4	cc		 int	 3
  001d5	cc		 int	 3
__ehhandler$?RunIndexSD@CTabSystemTradingEx@@QAEJHPAUSTMNG_ITEMINFO@@@Z:
  001d6	90		 npad	 1
  001d7	90		 npad	 1
  001d8	8b 54 24 08	 mov	 edx, DWORD PTR [esp+8]
  001dc	8d 42 0c	 lea	 eax, DWORD PTR [edx+12]
  001df	8b 8a 8c fe ff
	ff		 mov	 ecx, DWORD PTR [edx-372]
  001e5	33 c8		 xor	 ecx, eax
  001e7	e8 00 00 00 00	 call	 @__security_check_cookie@4
  001ec	8b 4a fc	 mov	 ecx, DWORD PTR [edx-4]
  001ef	33 c8		 xor	 ecx, eax
  001f1	e8 00 00 00 00	 call	 @__security_check_cookie@4
  001f6	b8 00 00 00 00	 mov	 eax, OFFSET __ehfuncinfo$?RunIndexSD@CTabSystemTradingEx@@QAEJHPAUSTMNG_ITEMINFO@@@Z
  001fb	e9 00 00 00 00	 jmp	 ___CxxFrameHandler3
text$x	ENDS
?RunIndexSD@CTabSystemTradingEx@@QAEJHPAUSTMNG_ITEMINFO@@@Z ENDP ; CTabSystemTradingEx::RunIndexSD
; Function compile flags: /Ogtp
; File D:\git\src\IBK\IBK_DRFN\ProjSrc\SrcDrfn\Chart\MULTICHART\TabSystemTradingEx.cpp
; File C:\Program Files (x86)\Microsoft Visual Studio\2019\Community\VC\Tools\MSVC\14.29.30133\atlmfc\include\atlsimpstr.h
; File D:\git\src\IBK\IBK_DRFN\ProjSrc\SrcDrfn\Chart\MULTICHART\TabSystemTradingEx.cpp
; File C:\Program Files (x86)\Microsoft Visual Studio\2019\Community\VC\Tools\MSVC\14.29.30133\atlmfc\include\cstringt.h
; File D:\git\src\IBK\IBK_DRFN\ProjSrc\SrcDrfn\Chart\MULTICHART\TabSystemTradingEx.cpp
; File C:\Program Files (x86)\Microsoft Visual Studio\2019\Community\VC\Tools\MSVC\14.29.30133\atlmfc\include\cstringt.h
; File C:\Program Files (x86)\Microsoft Visual Studio\2019\Community\VC\Tools\MSVC\14.29.30133\atlmfc\include\atlsimpstr.h
; File C:\Program Files (x86)\Microsoft Visual Studio\2019\Community\VC\Tools\MSVC\14.29.30133\atlmfc\include\cstringt.h
; File D:\git\src\IBK\IBK_DRFN\ProjSrc\SrcDrfn\Chart\MULTICHART\TabSystemTradingEx.cpp
; File C:\Program Files (x86)\Microsoft Visual Studio\2019\Community\VC\Tools\MSVC\14.29.30133\atlmfc\include\cstringt.h
; File C:\Program Files (x86)\Microsoft Visual Studio\2019\Community\VC\Tools\MSVC\14.29.30133\atlmfc\include\atlsimpstr.h
; File C:\Program Files (x86)\Microsoft Visual Studio\2019\Community\VC\Tools\MSVC\14.29.30133\atlmfc\include\cstringt.h
; File D:\git\src\IBK\IBK_DRFN\ProjSrc\SrcDrfn\Chart\MULTICHART\TabSystemTradingEx.cpp
; File C:\Program Files (x86)\Microsoft Visual Studio\2019\Community\VC\Tools\MSVC\14.29.30133\atlmfc\include\cstringt.h
; File C:\Program Files (x86)\Microsoft Visual Studio\2019\Community\VC\Tools\MSVC\14.29.30133\atlmfc\include\atlsimpstr.h
; File C:\Program Files (x86)\Microsoft Visual Studio\2019\Community\VC\Tools\MSVC\14.29.30133\atlmfc\include\cstringt.h
; File D:\git\src\IBK\IBK_DRFN\ProjSrc\SrcDrfn\Chart\MULTICHART\TabSystemTradingEx.cpp
; File C:\Program Files (x86)\Microsoft Visual Studio\2019\Community\VC\Tools\MSVC\14.29.30133\atlmfc\include\afxcoll.inl
; File D:\git\src\IBK\IBK_DRFN\ProjSrc\SrcDrfn\Chart\MULTICHART\TabSystemTradingEx.cpp
; File C:\Program Files (x86)\Microsoft Visual Studio\2019\Community\VC\Tools\MSVC\14.29.30133\atlmfc\include\afxcoll.inl
; File C:\Program Files (x86)\Microsoft Visual Studio\2019\Community\VC\Tools\MSVC\14.29.30133\atlmfc\include\afxwin2.inl
; File D:\git\src\IBK\IBK_DRFN\ProjSrc\SrcDrfn\Chart\MULTICHART\TabSystemTradingEx.cpp
; File C:\Program Files (x86)\Microsoft Visual Studio\2019\Community\VC\Tools\MSVC\14.29.30133\atlmfc\include\afxwin2.inl
; File D:\git\src\IBK\IBK_DRFN\ProjSrc\SrcDrfn\Chart\MULTICHART\TabSystemTradingEx.cpp
;	COMDAT ?RunMultiST@CTabSystemTradingEx@@QAEXXZ
_TEXT	SEGMENT
_strSystemPath$ = -132					; size = 4
_strUserPath$ = -128					; size = 4
$T2 = -124						; size = 4
$T3 = -120						; size = 4
$T4 = -116						; size = 4
_strSTName$ = -112					; size = 4
$T5 = -108						; size = 4
$T6 = -108						; size = 4
$T7 = -108						; size = 4
$T8 = -108						; size = 4
$T9 = -108						; size = 4
$T10 = -108						; size = 4
$T11 = -108						; size = 4
_InData$ = -104						; size = 88
__$ArrayPad$ = -16					; size = 4
__$EHRec$ = -12						; size = 12
?RunMultiST@CTabSystemTradingEx@@QAEXXZ PROC		; CTabSystemTradingEx::RunMultiST, COMDAT
; _this$ = ecx

; 1736 : {

  00000	55		 push	 ebp
  00001	8b ec		 mov	 ebp, esp
  00003	6a ff		 push	 -1
  00005	68 00 00 00 00	 push	 __ehhandler$?RunMultiST@CTabSystemTradingEx@@QAEXXZ
  0000a	64 a1 00 00 00
	00		 mov	 eax, DWORD PTR fs:0
  00010	50		 push	 eax
  00011	83 ec 78	 sub	 esp, 120		; 00000078H
  00014	a1 00 00 00 00	 mov	 eax, DWORD PTR ___security_cookie
  00019	33 c5		 xor	 eax, ebp
  0001b	89 45 f0	 mov	 DWORD PTR __$ArrayPad$[ebp], eax
  0001e	53		 push	 ebx
  0001f	56		 push	 esi
  00020	57		 push	 edi
  00021	50		 push	 eax
  00022	8d 45 f4	 lea	 eax, DWORD PTR __$EHRec$[ebp]
  00025	64 a3 00 00 00
	00		 mov	 DWORD PTR fs:0, eax
  0002b	8b d9		 mov	 ebx, ecx
  0002d	8d 4d 98	 lea	 ecx, DWORD PTR _InData$[ebp]
  00030	c7 45 84 00 00
	00 00		 mov	 DWORD PTR $T2[ebp], 0
  00037	ff 15 00 00 00
	00		 call	 DWORD PTR __imp_??0?$CStringT@DV?$StrTraitMFC_DLL@DV?$ChTraitsCRT@D@ATL@@@@@ATL@@QAE@XZ
  0003d	8d 4d a0	 lea	 ecx, DWORD PTR _InData$[ebp+8]
  00040	c7 45 fc 00 00
	00 00		 mov	 DWORD PTR __$EHRec$[ebp+8], 0
  00047	ff 15 00 00 00
	00		 call	 DWORD PTR __imp_??0?$CStringT@DV?$StrTraitMFC_DLL@DV?$ChTraitsCRT@D@ATL@@@@@ATL@@QAE@XZ
  0004d	8d 4d a8	 lea	 ecx, DWORD PTR _InData$[ebp+16]
  00050	ff 15 00 00 00
	00		 call	 DWORD PTR __imp_??0?$CStringT@DV?$StrTraitMFC_DLL@DV?$ChTraitsCRT@D@ATL@@@@@ATL@@QAE@XZ
  00056	8d 4d ac	 lea	 ecx, DWORD PTR _InData$[ebp+20]
  00059	c6 45 fc 02	 mov	 BYTE PTR __$EHRec$[ebp+8], 2
  0005d	e8 00 00 00 00	 call	 ??0CStringArray@@QAE@XZ	; CStringArray::CStringArray
  00062	8d 4d c0	 lea	 ecx, DWORD PTR _InData$[ebp+40]
  00065	ff 15 00 00 00
	00		 call	 DWORD PTR __imp_??0?$CStringT@DV?$StrTraitMFC_DLL@DV?$ChTraitsCRT@D@ATL@@@@@ATL@@QAE@XZ
; File C:\Program Files (x86)\Microsoft Visual Studio\2019\Community\VC\Tools\MSVC\14.29.30133\atlmfc\include\atlsimpstr.h

; 519  : 		return( GetData()->nDataLength );

  0006b	8b 83 6c 09 00
	00		 mov	 eax, DWORD PTR [ebx+2412]

; 800  : 		return( reinterpret_cast< CStringData* >( m_pszData )-1 );

  00071	8d b3 6c 09 00
	00		 lea	 esi, DWORD PTR [ebx+2412]
; File D:\git\src\IBK\IBK_DRFN\ProjSrc\SrcDrfn\Chart\MULTICHART\TabSystemTradingEx.cpp

; 1737 : 	stAddinSTRun InData;

  00077	c7 45 fc 03 00
	00 00		 mov	 DWORD PTR __$EHRec$[ebp+8], 3

; 1738 : 	if(m_szImsiRunSTFile.GetLength())

  0007e	83 78 f4 00	 cmp	 DWORD PTR [eax-12], 0
  00082	74 1c		 je	 SHORT $LN2@RunMultiST

; 1739 : 	{
; 1740 : 		InData.szSTFile = m_szImsiRunSTFile;

  00084	56		 push	 esi
  00085	8d 4d 98	 lea	 ecx, DWORD PTR _InData$[ebp]
  00088	ff 15 00 00 00
	00		 call	 DWORD PTR __imp_??4?$CStringT@DV?$StrTraitMFC_DLL@DV?$ChTraitsCRT@D@ATL@@@@@ATL@@QAEAAV01@ABV01@@Z

; 1741 : 		m_szImsiRunSTFile = "";

  0008e	68 00 00 00 00	 push	 OFFSET ??_C@_00CNPNBAHC@@
  00093	8b ce		 mov	 ecx, esi
  00095	ff 15 00 00 00
	00		 call	 DWORD PTR __imp_??4?$CStringT@DV?$StrTraitMFC_DLL@DV?$ChTraitsCRT@D@ATL@@@@@ATL@@QAEAAV01@PBD@Z

; 1742 : 	}

  0009b	e9 e0 00 00 00	 jmp	 $LN3@RunMultiST
$LN2@RunMultiST:
; File C:\Program Files (x86)\Microsoft Visual Studio\2019\Community\VC\Tools\MSVC\14.29.30133\atlmfc\include\cstringt.h

; 2401 : 		CStringT strResult( str1.GetManager() );

  000a0	8d 8b 80 09 00
	00		 lea	 ecx, DWORD PTR [ebx+2432]
; File D:\git\src\IBK\IBK_DRFN\ProjSrc\SrcDrfn\Chart\MULTICHART\TabSystemTradingEx.cpp

; 1745 : 		InData.szSTFile = m_xSTAnalysisInput.m_Info.szSTPath + "\\" + m_xSTAnalysisInput.m_Info.szSTName + ".ST";

  000a6	c6 45 fc 04	 mov	 BYTE PTR __$EHRec$[ebp+8], 4
; File C:\Program Files (x86)\Microsoft Visual Studio\2019\Community\VC\Tools\MSVC\14.29.30133\atlmfc\include\cstringt.h

; 2401 : 		CStringT strResult( str1.GetManager() );

  000aa	ff 15 00 00 00
	00		 call	 DWORD PTR __imp_?GetManager@?$CStringT@DV?$StrTraitMFC_DLL@DV?$ChTraitsCRT@D@ATL@@@@@ATL@@QBEPAUIAtlStringMgr@2@XZ
  000b0	50		 push	 eax
  000b1	8d 4d 88	 lea	 ecx, DWORD PTR $T3[ebp]
  000b4	ff 15 00 00 00
	00		 call	 DWORD PTR __imp_??0?$CStringT@DV?$StrTraitMFC_DLL@DV?$ChTraitsCRT@D@ATL@@@@@ATL@@QAE@PAUIAtlStringMgr@1@@Z
; File C:\Program Files (x86)\Microsoft Visual Studio\2019\Community\VC\Tools\MSVC\14.29.30133\atlmfc\include\atlsimpstr.h

; 519  : 		return( GetData()->nDataLength );

  000ba	8b 83 80 09 00
	00		 mov	 eax, DWORD PTR [ebx+2432]
; File C:\Program Files (x86)\Microsoft Visual Studio\2019\Community\VC\Tools\MSVC\14.29.30133\atlmfc\include\cstringt.h

; 2403 : 		CThisSimpleString::Concatenate( strResult, str1, str1.GetLength(), psz2, CThisSimpleString::StringLength( psz2 ) );

  000c0	6a 01		 push	 1
  000c2	68 00 00 00 00	 push	 OFFSET ??_C@_01KICIPPFI@?2@

; 2404 : 
; 2405 : 		return( strResult );

  000c7	c7 45 84 01 00
	00 00		 mov	 DWORD PTR $T2[ebp], 1
  000ce	ff 70 f4	 push	 DWORD PTR [eax-12]
  000d1	50		 push	 eax
  000d2	8d 45 88	 lea	 eax, DWORD PTR $T3[ebp]
  000d5	50		 push	 eax
  000d6	ff 15 00 00 00
	00		 call	 DWORD PTR __imp_?Concatenate@?$CSimpleStringT@D$00@ATL@@KAXAAV12@PBDH1H@Z
  000dc	83 c4 14	 add	 esp, 20			; 00000014H

; 2390 : 		CStringT strResult( str1.GetManager() );

  000df	8d 4d 88	 lea	 ecx, DWORD PTR $T3[ebp]
; File D:\git\src\IBK\IBK_DRFN\ProjSrc\SrcDrfn\Chart\MULTICHART\TabSystemTradingEx.cpp

; 1745 : 		InData.szSTFile = m_xSTAnalysisInput.m_Info.szSTPath + "\\" + m_xSTAnalysisInput.m_Info.szSTName + ".ST";

  000e2	c6 45 fc 05	 mov	 BYTE PTR __$EHRec$[ebp+8], 5
; File C:\Program Files (x86)\Microsoft Visual Studio\2019\Community\VC\Tools\MSVC\14.29.30133\atlmfc\include\cstringt.h

; 2390 : 		CStringT strResult( str1.GetManager() );

  000e6	ff 15 00 00 00
	00		 call	 DWORD PTR __imp_?GetManager@?$CStringT@DV?$StrTraitMFC_DLL@DV?$ChTraitsCRT@D@ATL@@@@@ATL@@QBEPAUIAtlStringMgr@2@XZ
  000ec	50		 push	 eax
  000ed	8d 4d 8c	 lea	 ecx, DWORD PTR $T4[ebp]
  000f0	ff 15 00 00 00
	00		 call	 DWORD PTR __imp_??0?$CStringT@DV?$StrTraitMFC_DLL@DV?$ChTraitsCRT@D@ATL@@@@@ATL@@QAE@PAUIAtlStringMgr@1@@Z
; File C:\Program Files (x86)\Microsoft Visual Studio\2019\Community\VC\Tools\MSVC\14.29.30133\atlmfc\include\atlsimpstr.h

; 519  : 		return( GetData()->nDataLength );

  000f6	8b 8b 7c 09 00
	00		 mov	 ecx, DWORD PTR [ebx+2428]
  000fc	8b 45 88	 mov	 eax, DWORD PTR $T3[ebp]
; File C:\Program Files (x86)\Microsoft Visual Studio\2019\Community\VC\Tools\MSVC\14.29.30133\atlmfc\include\cstringt.h

; 2394 : 		return( strResult );

  000ff	c7 45 84 03 00
	00 00		 mov	 DWORD PTR $T2[ebp], 3
  00106	ff 71 f4	 push	 DWORD PTR [ecx-12]
  00109	51		 push	 ecx
  0010a	ff 70 f4	 push	 DWORD PTR [eax-12]
  0010d	50		 push	 eax
  0010e	8d 45 8c	 lea	 eax, DWORD PTR $T4[ebp]
  00111	50		 push	 eax
  00112	ff 15 00 00 00
	00		 call	 DWORD PTR __imp_?Concatenate@?$CSimpleStringT@D$00@ATL@@KAXAAV12@PBDH1H@Z
  00118	83 c4 14	 add	 esp, 20			; 00000014H

; 2401 : 		CStringT strResult( str1.GetManager() );

  0011b	8d 4d 8c	 lea	 ecx, DWORD PTR $T4[ebp]
; File D:\git\src\IBK\IBK_DRFN\ProjSrc\SrcDrfn\Chart\MULTICHART\TabSystemTradingEx.cpp

; 1745 : 		InData.szSTFile = m_xSTAnalysisInput.m_Info.szSTPath + "\\" + m_xSTAnalysisInput.m_Info.szSTName + ".ST";

  0011e	c6 45 fc 06	 mov	 BYTE PTR __$EHRec$[ebp+8], 6
; File C:\Program Files (x86)\Microsoft Visual Studio\2019\Community\VC\Tools\MSVC\14.29.30133\atlmfc\include\cstringt.h

; 2401 : 		CStringT strResult( str1.GetManager() );

  00122	ff 15 00 00 00
	00		 call	 DWORD PTR __imp_?GetManager@?$CStringT@DV?$StrTraitMFC_DLL@DV?$ChTraitsCRT@D@ATL@@@@@ATL@@QBEPAUIAtlStringMgr@2@XZ
  00128	50		 push	 eax
  00129	8d 4d 94	 lea	 ecx, DWORD PTR $T11[ebp]
  0012c	ff 15 00 00 00
	00		 call	 DWORD PTR __imp_??0?$CStringT@DV?$StrTraitMFC_DLL@DV?$ChTraitsCRT@D@ATL@@@@@ATL@@QAE@PAUIAtlStringMgr@1@@Z
; File C:\Program Files (x86)\Microsoft Visual Studio\2019\Community\VC\Tools\MSVC\14.29.30133\atlmfc\include\atlsimpstr.h

; 519  : 		return( GetData()->nDataLength );

  00132	8b 45 8c	 mov	 eax, DWORD PTR $T4[ebp]
; File C:\Program Files (x86)\Microsoft Visual Studio\2019\Community\VC\Tools\MSVC\14.29.30133\atlmfc\include\cstringt.h

; 2403 : 		CThisSimpleString::Concatenate( strResult, str1, str1.GetLength(), psz2, CThisSimpleString::StringLength( psz2 ) );

  00135	6a 03		 push	 3
  00137	68 00 00 00 00	 push	 OFFSET ??_C@_03COHLPAFH@?4ST@

; 2404 : 
; 2405 : 		return( strResult );

  0013c	c7 45 84 07 00
	00 00		 mov	 DWORD PTR $T2[ebp], 7
  00143	ff 70 f4	 push	 DWORD PTR [eax-12]
  00146	50		 push	 eax
  00147	8d 45 94	 lea	 eax, DWORD PTR $T11[ebp]
  0014a	50		 push	 eax
  0014b	ff 15 00 00 00
	00		 call	 DWORD PTR __imp_?Concatenate@?$CSimpleStringT@D$00@ATL@@KAXAAV12@PBDH1H@Z
  00151	83 c4 14	 add	 esp, 20			; 00000014H
; File D:\git\src\IBK\IBK_DRFN\ProjSrc\SrcDrfn\Chart\MULTICHART\TabSystemTradingEx.cpp

; 1745 : 		InData.szSTFile = m_xSTAnalysisInput.m_Info.szSTPath + "\\" + m_xSTAnalysisInput.m_Info.szSTName + ".ST";

  00154	8d 45 94	 lea	 eax, DWORD PTR $T11[ebp]
  00157	8d 4d 98	 lea	 ecx, DWORD PTR _InData$[ebp]
  0015a	50		 push	 eax
  0015b	ff 15 00 00 00
	00		 call	 DWORD PTR __imp_??4?$CStringT@DV?$StrTraitMFC_DLL@DV?$ChTraitsCRT@D@ATL@@@@@ATL@@QAEAAV01@ABV01@@Z
  00161	8d 4d 94	 lea	 ecx, DWORD PTR $T11[ebp]
  00164	ff 15 00 00 00
	00		 call	 DWORD PTR __imp_??1?$CStringT@DV?$StrTraitMFC_DLL@DV?$ChTraitsCRT@D@ATL@@@@@ATL@@QAE@XZ
  0016a	8d 4d 8c	 lea	 ecx, DWORD PTR $T4[ebp]
  0016d	ff 15 00 00 00
	00		 call	 DWORD PTR __imp_??1?$CStringT@DV?$StrTraitMFC_DLL@DV?$ChTraitsCRT@D@ATL@@@@@ATL@@QAE@XZ
  00173	8d 4d 88	 lea	 ecx, DWORD PTR $T3[ebp]
  00176	c6 45 fc 03	 mov	 BYTE PTR __$EHRec$[ebp+8], 3
  0017a	ff 15 00 00 00
	00		 call	 DWORD PTR __imp_??1?$CStringT@DV?$StrTraitMFC_DLL@DV?$ChTraitsCRT@D@ATL@@@@@ATL@@QAE@XZ
$LN3@RunMultiST:

; 1746 : 	}
; 1747 : 
; 1748 : 	InData.pChartInterface = (long)&m_xSTInterface;

  00180	8d 83 70 09 00
	00		 lea	 eax, DWORD PTR [ebx+2416]

; 1749 : 	InData.szCode = m_xSTAnalysisInput.GetCode();

  00186	8d b3 74 09 00
	00		 lea	 esi, DWORD PTR [ebx+2420]
  0018c	89 45 9c	 mov	 DWORD PTR _InData$[ebp+4], eax
  0018f	8b 06		 mov	 eax, DWORD PTR [esi]
  00191	8d 4d 94	 lea	 ecx, DWORD PTR $T10[ebp]
  00194	51		 push	 ecx
  00195	56		 push	 esi
  00196	ff 50 10	 call	 DWORD PTR [eax+16]
  00199	50		 push	 eax
  0019a	8d 4d a0	 lea	 ecx, DWORD PTR _InData$[ebp+8]
  0019d	c6 45 fc 07	 mov	 BYTE PTR __$EHRec$[ebp+8], 7
  001a1	ff 15 00 00 00
	00		 call	 DWORD PTR __imp_??4?$CStringT@DV?$StrTraitMFC_DLL@DV?$ChTraitsCRT@D@ATL@@@@@ATL@@QAEAAV01@ABV01@@Z
  001a7	8d 4d 94	 lea	 ecx, DWORD PTR $T10[ebp]
  001aa	c6 45 fc 03	 mov	 BYTE PTR __$EHRec$[ebp+8], 3
  001ae	ff 15 00 00 00
	00		 call	 DWORD PTR __imp_??1?$CStringT@DV?$StrTraitMFC_DLL@DV?$ChTraitsCRT@D@ATL@@@@@ATL@@QAE@XZ

; 1750 : 	InData.nCount = m_xSTAnalysisInput.GetCount();

  001b4	8b 06		 mov	 eax, DWORD PTR [esi]
  001b6	56		 push	 esi
  001b7	ff 50 20	 call	 DWORD PTR [eax+32]
  001ba	89 45 a4	 mov	 DWORD PTR _InData$[ebp+12], eax

; 1751 : 	InData.szEndData = m_xSTAnalysisInput.GetEndDay();

  001bd	8d 4d 94	 lea	 ecx, DWORD PTR $T9[ebp]
  001c0	8b 06		 mov	 eax, DWORD PTR [esi]
  001c2	51		 push	 ecx
  001c3	56		 push	 esi
  001c4	ff 50 24	 call	 DWORD PTR [eax+36]
  001c7	50		 push	 eax
  001c8	8d 4d a8	 lea	 ecx, DWORD PTR _InData$[ebp+16]
  001cb	c6 45 fc 08	 mov	 BYTE PTR __$EHRec$[ebp+8], 8
  001cf	ff 15 00 00 00
	00		 call	 DWORD PTR __imp_??4?$CStringT@DV?$StrTraitMFC_DLL@DV?$ChTraitsCRT@D@ATL@@@@@ATL@@QAEAAV01@ABV01@@Z
  001d5	8d 4d 94	 lea	 ecx, DWORD PTR $T9[ebp]
  001d8	c6 45 fc 03	 mov	 BYTE PTR __$EHRec$[ebp+8], 3
  001dc	ff 15 00 00 00
	00		 call	 DWORD PTR __imp_??1?$CStringT@DV?$StrTraitMFC_DLL@DV?$ChTraitsCRT@D@ATL@@@@@ATL@@QAE@XZ

; 1752 : //	InData.szSTName  = m_xSTAnalysisInput.m_Info.szSTName;//KHD :2006.11.16
; 1753 : 
; 1754 : 	CString strSTName = InData.szSTFile;

  001e2	8d 45 98	 lea	 eax, DWORD PTR _InData$[ebp]
  001e5	50		 push	 eax
  001e6	8d 4d 90	 lea	 ecx, DWORD PTR _strSTName$[ebp]
  001e9	ff 15 00 00 00
	00		 call	 DWORD PTR __imp_??0?$CStringT@DV?$StrTraitMFC_DLL@DV?$ChTraitsCRT@D@ATL@@@@@ATL@@QAE@ABV01@@Z

; 1755 : 	int nPosExt = strSTName.ReverseFind('.');

  001ef	6a 2e		 push	 46			; 0000002eH
  001f1	8d 4d 90	 lea	 ecx, DWORD PTR _strSTName$[ebp]
  001f4	c6 45 fc 09	 mov	 BYTE PTR __$EHRec$[ebp+8], 9
  001f8	ff 15 00 00 00
	00		 call	 DWORD PTR __imp_?ReverseFind@?$CStringT@DV?$StrTraitMFC_DLL@DV?$ChTraitsCRT@D@ATL@@@@@ATL@@QBEHD@Z

; 1756 : 	int nPosFileTitle = strSTName.ReverseFind(('\\'));

  001fe	6a 5c		 push	 92			; 0000005cH
  00200	8d 4d 90	 lea	 ecx, DWORD PTR _strSTName$[ebp]
  00203	8b f0		 mov	 esi, eax
  00205	ff 15 00 00 00
	00		 call	 DWORD PTR __imp_?ReverseFind@?$CStringT@DV?$StrTraitMFC_DLL@DV?$ChTraitsCRT@D@ATL@@@@@ATL@@QBEHD@Z
  0020b	8b f8		 mov	 edi, eax

; 1757 : 	strSTName = strSTName.Left(nPosExt);

  0020d	8d 4d 90	 lea	 ecx, DWORD PTR _strSTName$[ebp]
  00210	56		 push	 esi
  00211	8d 45 94	 lea	 eax, DWORD PTR $T8[ebp]
  00214	50		 push	 eax
  00215	ff 15 00 00 00
	00		 call	 DWORD PTR __imp_?Left@?$CStringT@DV?$StrTraitMFC_DLL@DV?$ChTraitsCRT@D@ATL@@@@@ATL@@QBE?AV12@H@Z
  0021b	50		 push	 eax
  0021c	8d 4d 90	 lea	 ecx, DWORD PTR _strSTName$[ebp]
  0021f	c6 45 fc 0a	 mov	 BYTE PTR __$EHRec$[ebp+8], 10 ; 0000000aH
  00223	ff 15 00 00 00
	00		 call	 DWORD PTR __imp_??4?$CStringT@DV?$StrTraitMFC_DLL@DV?$ChTraitsCRT@D@ATL@@@@@ATL@@QAEAAV01@ABV01@@Z
  00229	8d 4d 94	 lea	 ecx, DWORD PTR $T8[ebp]
  0022c	c6 45 fc 09	 mov	 BYTE PTR __$EHRec$[ebp+8], 9
  00230	ff 15 00 00 00
	00		 call	 DWORD PTR __imp_??1?$CStringT@DV?$StrTraitMFC_DLL@DV?$ChTraitsCRT@D@ATL@@@@@ATL@@QAE@XZ

; 1758 : 	strSTName = strSTName.Mid(nPosFileTitle+1);

  00236	8d 47 01	 lea	 eax, DWORD PTR [edi+1]
  00239	50		 push	 eax
  0023a	8d 45 94	 lea	 eax, DWORD PTR $T7[ebp]
  0023d	50		 push	 eax
  0023e	8d 4d 90	 lea	 ecx, DWORD PTR _strSTName$[ebp]
  00241	ff 15 00 00 00
	00		 call	 DWORD PTR __imp_?Mid@?$CStringT@DV?$StrTraitMFC_DLL@DV?$ChTraitsCRT@D@ATL@@@@@ATL@@QBE?AV12@H@Z
  00247	50		 push	 eax
  00248	8d 4d 90	 lea	 ecx, DWORD PTR _strSTName$[ebp]
  0024b	c6 45 fc 0b	 mov	 BYTE PTR __$EHRec$[ebp+8], 11 ; 0000000bH
  0024f	ff 15 00 00 00
	00		 call	 DWORD PTR __imp_??4?$CStringT@DV?$StrTraitMFC_DLL@DV?$ChTraitsCRT@D@ATL@@@@@ATL@@QAEAAV01@ABV01@@Z
  00255	8d 4d 94	 lea	 ecx, DWORD PTR $T7[ebp]
  00258	c6 45 fc 09	 mov	 BYTE PTR __$EHRec$[ebp+8], 9
  0025c	ff 15 00 00 00
	00		 call	 DWORD PTR __imp_??1?$CStringT@DV?$StrTraitMFC_DLL@DV?$ChTraitsCRT@D@ATL@@@@@ATL@@QAE@XZ

; 1759 : 	InData.szSTName = strSTName;

  00262	8d 45 90	 lea	 eax, DWORD PTR _strSTName$[ebp]
  00265	50		 push	 eax
  00266	8d 4d c0	 lea	 ecx, DWORD PTR _InData$[ebp+40]
  00269	ff 15 00 00 00
	00		 call	 DWORD PTR __imp_??4?$CStringT@DV?$StrTraitMFC_DLL@DV?$ChTraitsCRT@D@ATL@@@@@ATL@@QAEAAV01@ABV01@@Z

; 1760 : 	{
; 1761 : 		//int nFind = InData.szSTName.Find("@");
; 1762 : 		int nFind = InData.szSTName.Find(gSTGubunKeys);	//090902-solomon @->^

  0026f	6a 00		 push	 0
  00271	68 00 00 00 00	 push	 OFFSET ??_C@_01JKBOJNNK@?$FO@
  00276	8d 4d c0	 lea	 ecx, DWORD PTR _InData$[ebp+40]
  00279	ff 15 00 00 00
	00		 call	 DWORD PTR __imp_?Find@?$CStringT@DV?$StrTraitMFC_DLL@DV?$ChTraitsCRT@D@ATL@@@@@ATL@@QBEHPBDH@Z

; 1763 : 		if(nFind>0) InData.szSTName = InData.szSTName.Left(nFind);

  0027f	85 c0		 test	 eax, eax
  00281	7e 29		 jle	 SHORT $LN4@RunMultiST
  00283	50		 push	 eax
  00284	8d 45 94	 lea	 eax, DWORD PTR $T6[ebp]
  00287	50		 push	 eax
  00288	8d 4d c0	 lea	 ecx, DWORD PTR _InData$[ebp+40]
  0028b	ff 15 00 00 00
	00		 call	 DWORD PTR __imp_?Left@?$CStringT@DV?$StrTraitMFC_DLL@DV?$ChTraitsCRT@D@ATL@@@@@ATL@@QBE?AV12@H@Z
  00291	50		 push	 eax
  00292	8d 4d c0	 lea	 ecx, DWORD PTR _InData$[ebp+40]
  00295	c6 45 fc 0c	 mov	 BYTE PTR __$EHRec$[ebp+8], 12 ; 0000000cH
  00299	ff 15 00 00 00
	00		 call	 DWORD PTR __imp_??4?$CStringT@DV?$StrTraitMFC_DLL@DV?$ChTraitsCRT@D@ATL@@@@@ATL@@QAEAAV01@ABV01@@Z
  0029f	8d 4d 94	 lea	 ecx, DWORD PTR $T6[ebp]
  002a2	c6 45 fc 09	 mov	 BYTE PTR __$EHRec$[ebp+8], 9
  002a6	ff 15 00 00 00
	00		 call	 DWORD PTR __imp_??1?$CStringT@DV?$StrTraitMFC_DLL@DV?$ChTraitsCRT@D@ATL@@@@@ATL@@QAE@XZ
$LN4@RunMultiST:

; 1764 : 	}
; 1765 : //@
; 1766 : //#ifdef _DEBUG
; 1767 : //	CString strSystemPath = m_pParentDlg->m_strRootPath +  "\\" + STSD_D;
; 1768 : //	CString strUserPath = m_pParentDlg->m_strRootPath + "\\" + STUSER_D;
; 1769 : //#else
; 1770 : //	CString strSystemPath = m_pParentDlg->m_strRootPath + "\\" + STSD;
; 1771 : //	CString strUserPath = m_pParentDlg->m_strRootPath + "\\" + STUSER;
; 1772 : //#endif
; 1773 : //@
; 1774 : //@
; 1775 : //	CString strSystemPath = m_pParentDlg->m_strRootPath + "\\" + PATH_DATA_STDATA_SD;
; 1776 : //	CString strUserPath = m_pParentDlg->m_strRootPath + "\\" + PATH_USER_STDATA_SD;
; 1777 : 	CString strSystemPath = m_szDataDir + "\\STData\\SD";

  002ac	68 00 00 00 00	 push	 OFFSET ??_C@_0L@FEICBMFP@?2STData?2SD@
  002b1	8d 83 20 08 00
	00		 lea	 eax, DWORD PTR [ebx+2080]
  002b7	50		 push	 eax
  002b8	8d 85 7c ff ff
	ff		 lea	 eax, DWORD PTR _strSystemPath$[ebp]
  002be	50		 push	 eax
  002bf	e8 00 00 00 00	 call	 ??HATL@@YA?AV?$CStringT@DV?$StrTraitMFC_DLL@DV?$ChTraitsCRT@D@ATL@@@@@0@ABV10@PBD@Z ; ATL::operator+

; 1778 : 	CString strUserPath = m_szEncUserDir + "\\STData\\SD";

  002c4	68 00 00 00 00	 push	 OFFSET ??_C@_0L@FEICBMFP@?2STData?2SD@
  002c9	8d 83 24 08 00
	00		 lea	 eax, DWORD PTR [ebx+2084]
  002cf	c6 45 fc 0d	 mov	 BYTE PTR __$EHRec$[ebp+8], 13 ; 0000000dH
  002d3	50		 push	 eax
  002d4	8d 45 80	 lea	 eax, DWORD PTR _strUserPath$[ebp]
  002d7	50		 push	 eax
  002d8	e8 00 00 00 00	 call	 ??HATL@@YA?AV?$CStringT@DV?$StrTraitMFC_DLL@DV?$ChTraitsCRT@D@ATL@@@@@0@ABV10@PBD@Z ; ATL::operator+
  002dd	83 c4 18	 add	 esp, 24			; 00000018H
; File C:\Program Files (x86)\Microsoft Visual Studio\2019\Community\VC\Tools\MSVC\14.29.30133\atlmfc\include\afxcoll.inl

; 321  : 		SetAtGrow(nIndex, newElement);

  002e0	8d 85 7c ff ff
	ff		 lea	 eax, DWORD PTR _strSystemPath$[ebp]
; File D:\git\src\IBK\IBK_DRFN\ProjSrc\SrcDrfn\Chart\MULTICHART\TabSystemTradingEx.cpp

; 1778 : 	CString strUserPath = m_szEncUserDir + "\\STData\\SD";

  002e6	c6 45 fc 0e	 mov	 BYTE PTR __$EHRec$[ebp+8], 14 ; 0000000eH
; File C:\Program Files (x86)\Microsoft Visual Studio\2019\Community\VC\Tools\MSVC\14.29.30133\atlmfc\include\afxcoll.inl

; 321  : 		SetAtGrow(nIndex, newElement);

  002ea	50		 push	 eax
  002eb	ff 75 b4	 push	 DWORD PTR _InData$[ebp+28]
  002ee	8d 4d ac	 lea	 ecx, DWORD PTR _InData$[ebp+20]
  002f1	e8 00 00 00 00	 call	 ?SetAtGrow@CStringArray@@QAEXHABV?$CStringT@DV?$StrTraitMFC_DLL@DV?$ChTraitsCRT@D@ATL@@@@@ATL@@@Z ; CStringArray::SetAtGrow
  002f6	8d 45 80	 lea	 eax, DWORD PTR _strUserPath$[ebp]
  002f9	50		 push	 eax
  002fa	ff 75 b4	 push	 DWORD PTR _InData$[ebp+28]
  002fd	8d 4d ac	 lea	 ecx, DWORD PTR _InData$[ebp+20]
  00300	e8 00 00 00 00	 call	 ?SetAtGrow@CStringArray@@QAEXHABV?$CStringT@DV?$StrTraitMFC_DLL@DV?$ChTraitsCRT@D@ATL@@@@@ATL@@@Z ; CStringArray::SetAtGrow
; File C:\Program Files (x86)\Microsoft Visual Studio\2019\Community\VC\Tools\MSVC\14.29.30133\atlmfc\include\afxwin2.inl

; 25   : 	{ return this == NULL ? NULL : m_hWnd; }

  00305	8b 43 20	 mov	 eax, DWORD PTR [ebx+32]
; File D:\git\src\IBK\IBK_DRFN\ProjSrc\SrcDrfn\Chart\MULTICHART\TabSystemTradingEx.cpp

; 1784 : 	sprintf(InData.szCodeName, "%s", m_xSTAnalysisInput.GetCodeName());

  00308	8d b3 74 09 00
	00		 lea	 esi, DWORD PTR [ebx+2420]
; File C:\Program Files (x86)\Microsoft Visual Studio\2019\Community\VC\Tools\MSVC\14.29.30133\atlmfc\include\afxwin2.inl

; 25   : 	{ return this == NULL ? NULL : m_hWnd; }

  0030e	89 45 c4	 mov	 DWORD PTR _InData$[ebp+44], eax
; File D:\git\src\IBK\IBK_DRFN\ProjSrc\SrcDrfn\Chart\MULTICHART\TabSystemTradingEx.cpp

; 1784 : 	sprintf(InData.szCodeName, "%s", m_xSTAnalysisInput.GetCodeName());

  00311	8d 4d 94	 lea	 ecx, DWORD PTR $T5[ebp]
  00314	8b 06		 mov	 eax, DWORD PTR [esi]
  00316	51		 push	 ecx
  00317	56		 push	 esi
  00318	ff 50 14	 call	 DWORD PTR [eax+20]
  0031b	ff 30		 push	 DWORD PTR [eax]
  0031d	8d 45 cc	 lea	 eax, DWORD PTR _InData$[ebp+52]
  00320	68 00 00 00 00	 push	 OFFSET ??_C@_02DKCKIIND@?$CFs@
  00325	50		 push	 eax
  00326	e8 00 00 00 00	 call	 _sprintf
  0032b	83 c4 0c	 add	 esp, 12			; 0000000cH
  0032e	8d 4d 94	 lea	 ecx, DWORD PTR $T5[ebp]
  00331	ff 15 00 00 00
	00		 call	 DWORD PTR __imp_??1?$CStringT@DV?$StrTraitMFC_DLL@DV?$ChTraitsCRT@D@ATL@@@@@ATL@@QAE@XZ

; 1785 : 	InData.nCodeType = m_xSTAnalysisInput.GetCodeType();

  00337	8b 06		 mov	 eax, DWORD PTR [esi]
  00339	56		 push	 esi
  0033a	ff 50 18	 call	 DWORD PTR [eax+24]

; 1786 : 	CChartItem* pCItem = ((CChartMng*)m_pChartMng)->GetpChartItemSelected();

  0033d	8b 8b c4 00 00
	00		 mov	 ecx, DWORD PTR [ebx+196]
  00343	89 45 ec	 mov	 DWORD PTR _InData$[ebp+84], eax
  00346	e8 00 00 00 00	 call	 ?GetpChartItemSelected@CChartMng@@QAEPAVCChartItem@@XZ ; CChartMng::GetpChartItemSelected
  0034b	8b f0		 mov	 esi, eax

; 1787 : 	if(pCItem)

  0034d	85 f6		 test	 esi, esi
  0034f	74 3e		 je	 SHORT $LN6@RunMultiST

; 1788 : 	{
; 1789 : 		pCItem->SetSTRunSTPath(InData.szSTFile);

  00351	51		 push	 ecx
  00352	8d 45 98	 lea	 eax, DWORD PTR _InData$[ebp]
  00355	8b cc		 mov	 ecx, esp
  00357	50		 push	 eax
  00358	ff 15 00 00 00
	00		 call	 DWORD PTR __imp_??0?$CStringT@DV?$StrTraitMFC_DLL@DV?$ChTraitsCRT@D@ATL@@@@@ATL@@QAE@ABV01@@Z
  0035e	8b ce		 mov	 ecx, esi
  00360	e8 00 00 00 00	 call	 ?SetSTRunSTPath@CChartItem@@QAEXV?$CStringT@DV?$StrTraitMFC_DLL@DV?$ChTraitsCRT@D@ATL@@@@@ATL@@@Z ; CChartItem::SetSTRunSTPath

; 1790 : 		pCItem->InvokeAddInSTIndex("ChartSTIndexAddIn.dll", 10, (long)&InData);

  00365	8d 45 98	 lea	 eax, DWORD PTR _InData$[ebp]
  00368	8b ce		 mov	 ecx, esi
  0036a	50		 push	 eax
  0036b	6a 0a		 push	 10			; 0000000aH
  0036d	68 00 00 00 00	 push	 OFFSET ??_C@_0BG@CHJJKIAP@ChartSTIndexAddIn?4dll@
  00372	e8 00 00 00 00	 call	 ?InvokeAddInSTIndex@CChartItem@@QAEHPBDFJ@Z ; CChartItem::InvokeAddInSTIndex

; 1791 : 		if(m_pDlgOption && m_pDlgOption->m_bIsApplyBtn) 

  00377	8b 8b c0 07 00
	00		 mov	 ecx, DWORD PTR [ebx+1984]
  0037d	85 c9		 test	 ecx, ecx
  0037f	74 0e		 je	 SHORT $LN6@RunMultiST
  00381	83 b9 04 08 00
	00 00		 cmp	 DWORD PTR [ecx+2052], 0
  00388	74 05		 je	 SHORT $LN6@RunMultiST

; 1792 : 			m_pDlgOption->OnBnClickedStapply();

  0038a	e8 00 00 00 00	 call	 ?OnBnClickedStapply@CDlgSTExOption@@QAEXXZ ; CDlgSTExOption::OnBnClickedStapply
$LN6@RunMultiST:

; 1793 : 	}
; 1794 : 
; 1795 : //	COPY_STMNG_ITEMINFO(m_LastRunInfo, m_xSTAnalysisInput.m_Info);
; 1796 : }

  0038f	8d 4d 80	 lea	 ecx, DWORD PTR _strUserPath$[ebp]
  00392	ff 15 00 00 00
	00		 call	 DWORD PTR __imp_??1?$CStringT@DV?$StrTraitMFC_DLL@DV?$ChTraitsCRT@D@ATL@@@@@ATL@@QAE@XZ
  00398	8d 8d 7c ff ff
	ff		 lea	 ecx, DWORD PTR _strSystemPath$[ebp]
  0039e	ff 15 00 00 00
	00		 call	 DWORD PTR __imp_??1?$CStringT@DV?$StrTraitMFC_DLL@DV?$ChTraitsCRT@D@ATL@@@@@ATL@@QAE@XZ
  003a4	8d 4d 90	 lea	 ecx, DWORD PTR _strSTName$[ebp]
  003a7	ff 15 00 00 00
	00		 call	 DWORD PTR __imp_??1?$CStringT@DV?$StrTraitMFC_DLL@DV?$ChTraitsCRT@D@ATL@@@@@ATL@@QAE@XZ
  003ad	8d 4d c0	 lea	 ecx, DWORD PTR _InData$[ebp+40]
  003b0	ff 15 00 00 00
	00		 call	 DWORD PTR __imp_??1?$CStringT@DV?$StrTraitMFC_DLL@DV?$ChTraitsCRT@D@ATL@@@@@ATL@@QAE@XZ
  003b6	8d 4d ac	 lea	 ecx, DWORD PTR _InData$[ebp+20]
  003b9	e8 00 00 00 00	 call	 ??1CStringArray@@UAE@XZ	; CStringArray::~CStringArray
  003be	8d 4d a8	 lea	 ecx, DWORD PTR _InData$[ebp+16]
  003c1	ff 15 00 00 00
	00		 call	 DWORD PTR __imp_??1?$CStringT@DV?$StrTraitMFC_DLL@DV?$ChTraitsCRT@D@ATL@@@@@ATL@@QAE@XZ
  003c7	8d 4d a0	 lea	 ecx, DWORD PTR _InData$[ebp+8]
  003ca	ff 15 00 00 00
	00		 call	 DWORD PTR __imp_??1?$CStringT@DV?$StrTraitMFC_DLL@DV?$ChTraitsCRT@D@ATL@@@@@ATL@@QAE@XZ
  003d0	8d 4d 98	 lea	 ecx, DWORD PTR _InData$[ebp]
  003d3	ff 15 00 00 00
	00		 call	 DWORD PTR __imp_??1?$CStringT@DV?$StrTraitMFC_DLL@DV?$ChTraitsCRT@D@ATL@@@@@ATL@@QAE@XZ
  003d9	8b 4d f4	 mov	 ecx, DWORD PTR __$EHRec$[ebp]
  003dc	64 89 0d 00 00
	00 00		 mov	 DWORD PTR fs:0, ecx
  003e3	59		 pop	 ecx
  003e4	5f		 pop	 edi
  003e5	5e		 pop	 esi
  003e6	5b		 pop	 ebx
  003e7	8b 4d f0	 mov	 ecx, DWORD PTR __$ArrayPad$[ebp]
  003ea	33 cd		 xor	 ecx, ebp
  003ec	e8 00 00 00 00	 call	 @__security_check_cookie@4
  003f1	8b e5		 mov	 esp, ebp
  003f3	5d		 pop	 ebp
  003f4	c3		 ret	 0
_TEXT	ENDS
;	COMDAT text$x
text$x	SEGMENT
__unwindfunclet$?RunMultiST@CTabSystemTradingEx@@QAEXXZ$14:
  00000	8d 4d 98	 lea	 ecx, DWORD PTR _InData$[ebp]
  00003	ff 25 00 00 00
	00		 jmp	 DWORD PTR __imp_??1?$CStringT@DV?$StrTraitMFC_DLL@DV?$ChTraitsCRT@D@ATL@@@@@ATL@@QAE@XZ
__unwindfunclet$?RunMultiST@CTabSystemTradingEx@@QAEXXZ$15:
  00009	8d 4d a0	 lea	 ecx, DWORD PTR _InData$[ebp+8]
  0000c	ff 25 00 00 00
	00		 jmp	 DWORD PTR __imp_??1?$CStringT@DV?$StrTraitMFC_DLL@DV?$ChTraitsCRT@D@ATL@@@@@ATL@@QAE@XZ
__unwindfunclet$?RunMultiST@CTabSystemTradingEx@@QAEXXZ$16:
  00012	8d 4d a8	 lea	 ecx, DWORD PTR _InData$[ebp+16]
  00015	ff 25 00 00 00
	00		 jmp	 DWORD PTR __imp_??1?$CStringT@DV?$StrTraitMFC_DLL@DV?$ChTraitsCRT@D@ATL@@@@@ATL@@QAE@XZ
__unwindfunclet$?RunMultiST@CTabSystemTradingEx@@QAEXXZ$0:
  0001b	8d 4d 98	 lea	 ecx, DWORD PTR _InData$[ebp]
  0001e	e9 00 00 00 00	 jmp	 ??1stAddinSTRun@@QAE@XZ
__unwindfunclet$?RunMultiST@CTabSystemTradingEx@@QAEXXZ$19:
  00023	8b 45 84	 mov	 eax, DWORD PTR $T2[ebp]
  00026	83 e0 01	 and	 eax, 1
  00029	0f 84 0d 00 00
	00		 je	 $LN36@RunMultiST
  0002f	83 65 84 fe	 and	 DWORD PTR $T2[ebp], -2	; fffffffeH
  00033	8d 4d 88	 lea	 ecx, DWORD PTR $T3[ebp]
  00036	ff 25 00 00 00
	00		 jmp	 DWORD PTR __imp_??1?$CStringT@DV?$StrTraitMFC_DLL@DV?$ChTraitsCRT@D@ATL@@@@@ATL@@QAE@XZ
$LN36@RunMultiST:
  0003c	c3		 ret	 0
__unwindfunclet$?RunMultiST@CTabSystemTradingEx@@QAEXXZ$20:
  0003d	8b 45 84	 mov	 eax, DWORD PTR $T2[ebp]
  00040	83 e0 02	 and	 eax, 2
  00043	0f 84 0d 00 00
	00		 je	 $LN49@RunMultiST
  00049	83 65 84 fd	 and	 DWORD PTR $T2[ebp], -3	; fffffffdH
  0004d	8d 4d 8c	 lea	 ecx, DWORD PTR $T4[ebp]
  00050	ff 25 00 00 00
	00		 jmp	 DWORD PTR __imp_??1?$CStringT@DV?$StrTraitMFC_DLL@DV?$ChTraitsCRT@D@ATL@@@@@ATL@@QAE@XZ
$LN49@RunMultiST:
  00056	c3		 ret	 0
__unwindfunclet$?RunMultiST@CTabSystemTradingEx@@QAEXXZ$21:
  00057	8b 45 84	 mov	 eax, DWORD PTR $T2[ebp]
  0005a	83 e0 04	 and	 eax, 4
  0005d	0f 84 0d 00 00
	00		 je	 $LN65@RunMultiST
  00063	83 65 84 fb	 and	 DWORD PTR $T2[ebp], -5	; fffffffbH
  00067	8d 4d 94	 lea	 ecx, DWORD PTR $T11[ebp]
  0006a	ff 25 00 00 00
	00		 jmp	 DWORD PTR __imp_??1?$CStringT@DV?$StrTraitMFC_DLL@DV?$ChTraitsCRT@D@ATL@@@@@ATL@@QAE@XZ
$LN65@RunMultiST:
  00070	c3		 ret	 0
__unwindfunclet$?RunMultiST@CTabSystemTradingEx@@QAEXXZ$4:
  00071	8d 4d 94	 lea	 ecx, DWORD PTR $T10[ebp]
  00074	ff 25 00 00 00
	00		 jmp	 DWORD PTR __imp_??1?$CStringT@DV?$StrTraitMFC_DLL@DV?$ChTraitsCRT@D@ATL@@@@@ATL@@QAE@XZ
__unwindfunclet$?RunMultiST@CTabSystemTradingEx@@QAEXXZ$5:
  0007a	8d 4d 94	 lea	 ecx, DWORD PTR $T9[ebp]
  0007d	ff 25 00 00 00
	00		 jmp	 DWORD PTR __imp_??1?$CStringT@DV?$StrTraitMFC_DLL@DV?$ChTraitsCRT@D@ATL@@@@@ATL@@QAE@XZ
__unwindfunclet$?RunMultiST@CTabSystemTradingEx@@QAEXXZ$6:
  00083	8d 4d 90	 lea	 ecx, DWORD PTR _strSTName$[ebp]
  00086	ff 25 00 00 00
	00		 jmp	 DWORD PTR __imp_??1?$CStringT@DV?$StrTraitMFC_DLL@DV?$ChTraitsCRT@D@ATL@@@@@ATL@@QAE@XZ
__unwindfunclet$?RunMultiST@CTabSystemTradingEx@@QAEXXZ$7:
  0008c	8d 4d 94	 lea	 ecx, DWORD PTR $T8[ebp]
  0008f	ff 25 00 00 00
	00		 jmp	 DWORD PTR __imp_??1?$CStringT@DV?$StrTraitMFC_DLL@DV?$ChTraitsCRT@D@ATL@@@@@ATL@@QAE@XZ
__unwindfunclet$?RunMultiST@CTabSystemTradingEx@@QAEXXZ$8:
  00095	8d 4d 94	 lea	 ecx, DWORD PTR $T7[ebp]
  00098	ff 25 00 00 00
	00		 jmp	 DWORD PTR __imp_??1?$CStringT@DV?$StrTraitMFC_DLL@DV?$ChTraitsCRT@D@ATL@@@@@ATL@@QAE@XZ
__unwindfunclet$?RunMultiST@CTabSystemTradingEx@@QAEXXZ$9:
  0009e	8d 4d 94	 lea	 ecx, DWORD PTR $T6[ebp]
  000a1	ff 25 00 00 00
	00		 jmp	 DWORD PTR __imp_??1?$CStringT@DV?$StrTraitMFC_DLL@DV?$ChTraitsCRT@D@ATL@@@@@ATL@@QAE@XZ
__unwindfunclet$?RunMultiST@CTabSystemTradingEx@@QAEXXZ$10:
  000a7	8d 8d 7c ff ff
	ff		 lea	 ecx, DWORD PTR _strSystemPath$[ebp]
  000ad	ff 25 00 00 00
	00		 jmp	 DWORD PTR __imp_??1?$CStringT@DV?$StrTraitMFC_DLL@DV?$ChTraitsCRT@D@ATL@@@@@ATL@@QAE@XZ
__unwindfunclet$?RunMultiST@CTabSystemTradingEx@@QAEXXZ$11:
  000b3	8d 4d 80	 lea	 ecx, DWORD PTR _strUserPath$[ebp]
  000b6	ff 25 00 00 00
	00		 jmp	 DWORD PTR __imp_??1?$CStringT@DV?$StrTraitMFC_DLL@DV?$ChTraitsCRT@D@ATL@@@@@ATL@@QAE@XZ
  000bc	cc		 int	 3
  000bd	cc		 int	 3
  000be	cc		 int	 3
  000bf	cc		 int	 3
  000c0	cc		 int	 3
__ehhandler$?RunMultiST@CTabSystemTradingEx@@QAEXXZ:
  000c1	90		 npad	 1
  000c2	90		 npad	 1
  000c3	8b 54 24 08	 mov	 edx, DWORD PTR [esp+8]
  000c7	8d 42 0c	 lea	 eax, DWORD PTR [edx+12]
  000ca	8b 8a 78 ff ff
	ff		 mov	 ecx, DWORD PTR [edx-136]
  000d0	33 c8		 xor	 ecx, eax
  000d2	e8 00 00 00 00	 call	 @__security_check_cookie@4
  000d7	8b 4a fc	 mov	 ecx, DWORD PTR [edx-4]
  000da	33 c8		 xor	 ecx, eax
  000dc	e8 00 00 00 00	 call	 @__security_check_cookie@4
  000e1	b8 00 00 00 00	 mov	 eax, OFFSET __ehfuncinfo$?RunMultiST@CTabSystemTradingEx@@QAEXXZ
  000e6	e9 00 00 00 00	 jmp	 ___CxxFrameHandler3
text$x	ENDS
?RunMultiST@CTabSystemTradingEx@@QAEXXZ ENDP		; CTabSystemTradingEx::RunMultiST
; Function compile flags: /Ogtp
; File D:\git\src\IBK\IBK_DRFN\ProjSrc\SrcDrfn\Chart\MULTICHART\TabSystemTradingEx.cpp
; File C:\Program Files (x86)\Microsoft Visual Studio\2019\Community\VC\Tools\MSVC\14.29.30133\atlmfc\include\atlsimpstr.h
; File D:\git\src\IBK\IBK_DRFN\ProjSrc\SrcDrfn\Chart\MULTICHART\TabSystemTradingEx.cpp
; File C:\Program Files (x86)\Microsoft Visual Studio\2019\Community\VC\Tools\MSVC\14.29.30133\atlmfc\include\afxwin2.inl
; File D:\git\src\IBK\IBK_DRFN\ProjSrc\SrcDrfn\Chart\MULTICHART\TabSystemTradingEx.cpp
; File C:\Program Files (x86)\Microsoft Visual Studio\2019\Community\VC\Tools\MSVC\14.29.30133\atlmfc\include\afxcoll.inl
; File D:\git\src\IBK\IBK_DRFN\ProjSrc\SrcDrfn\Chart\MULTICHART\TabSystemTradingEx.cpp
; File C:\Program Files (x86)\Microsoft Visual Studio\2019\Community\VC\Tools\MSVC\14.29.30133\atlmfc\include\afxcoll.inl
; File D:\git\src\IBK\IBK_DRFN\ProjSrc\SrcDrfn\Chart\MULTICHART\TabSystemTradingEx.cpp
;	COMDAT ?DirectRunST@CTabSystemTradingEx@@QAEXPBD@Z
_TEXT	SEGMENT
_strSystemPath$ = -124					; size = 4
_strUserPath$ = -120					; size = 4
_szSTPath$ = -116					; size = 4
$T2 = -112						; size = 4
$T3 = -112						; size = 4
$T4 = -112						; size = 4
$T5 = -112						; size = 4
_szSTName$ = -108					; size = 4
_InData$ = -104						; size = 88
__$ArrayPad$ = -16					; size = 4
__$EHRec$ = -12						; size = 12
_szSTFile$ = 8						; size = 4
?DirectRunST@CTabSystemTradingEx@@QAEXPBD@Z PROC	; CTabSystemTradingEx::DirectRunST, COMDAT
; _this$ = ecx

; 1672 : {

  00000	55		 push	 ebp
  00001	8b ec		 mov	 ebp, esp
  00003	6a ff		 push	 -1
  00005	68 00 00 00 00	 push	 __ehhandler$?DirectRunST@CTabSystemTradingEx@@QAEXPBD@Z
  0000a	64 a1 00 00 00
	00		 mov	 eax, DWORD PTR fs:0
  00010	50		 push	 eax
  00011	83 ec 70	 sub	 esp, 112		; 00000070H
  00014	a1 00 00 00 00	 mov	 eax, DWORD PTR ___security_cookie
  00019	33 c5		 xor	 eax, ebp
  0001b	89 45 f0	 mov	 DWORD PTR __$ArrayPad$[ebp], eax
  0001e	53		 push	 ebx
  0001f	56		 push	 esi
  00020	57		 push	 edi
  00021	50		 push	 eax
  00022	8d 45 f4	 lea	 eax, DWORD PTR __$EHRec$[ebp]
  00025	64 a3 00 00 00
	00		 mov	 DWORD PTR fs:0, eax
  0002b	8b d9		 mov	 ebx, ecx
  0002d	8b 7d 08	 mov	 edi, DWORD PTR _szSTFile$[ebp]

; 1673 : 	STClear();	//    .

  00030	e8 00 00 00 00	 call	 ?STClear@CTabSystemTradingEx@@QAEXXZ ; CTabSystemTradingEx::STClear

; 1674 : 	
; 1675 : 	CString szSTName(szSTFile);

  00035	57		 push	 edi
  00036	8d 4d 94	 lea	 ecx, DWORD PTR _szSTName$[ebp]
  00039	ff 15 00 00 00
	00		 call	 DWORD PTR __imp_??0?$CStringT@DV?$StrTraitMFC_DLL@DV?$ChTraitsCRT@D@ATL@@@@@ATL@@QAE@PBD@Z

; 1676 : 	int nPos = szSTName.Find('.');

  0003f	6a 00		 push	 0
  00041	6a 2e		 push	 46			; 0000002eH
  00043	8d 4d 94	 lea	 ecx, DWORD PTR _szSTName$[ebp]
  00046	c7 45 fc 00 00
	00 00		 mov	 DWORD PTR __$EHRec$[ebp+8], 0
  0004d	ff 15 00 00 00
	00		 call	 DWORD PTR __imp_?Find@?$CStringT@DV?$StrTraitMFC_DLL@DV?$ChTraitsCRT@D@ATL@@@@@ATL@@QBEHDH@Z
; File C:\Program Files (x86)\Microsoft Visual Studio\2019\Community\VC\Tools\MSVC\14.29.30133\atlmfc\include\atlsimpstr.h

; 519  : 		return( GetData()->nDataLength );

  00053	8b 4d 94	 mov	 ecx, DWORD PTR _szSTName$[ebp]
  00056	8b 49 f4	 mov	 ecx, DWORD PTR [ecx-12]
; File D:\git\src\IBK\IBK_DRFN\ProjSrc\SrcDrfn\Chart\MULTICHART\TabSystemTradingEx.cpp

; 1677 : 	szSTName.Delete(nPos,szSTName.GetLength()-nPos);

  00059	2b c8		 sub	 ecx, eax
  0005b	51		 push	 ecx
  0005c	50		 push	 eax
  0005d	8d 4d 94	 lea	 ecx, DWORD PTR _szSTName$[ebp]
  00060	ff 15 00 00 00
	00		 call	 DWORD PTR __imp_?Delete@?$CStringT@DV?$StrTraitMFC_DLL@DV?$ChTraitsCRT@D@ATL@@@@@ATL@@QAEHHH@Z

; 1678 : 	while(1)
; 1679 : 	{
; 1680 : 		nPos = szSTName.Find('\\');

  00066	6a 00		 push	 0
  00068	6a 5c		 push	 92			; 0000005cH
  0006a	8d 4d 94	 lea	 ecx, DWORD PTR _szSTName$[ebp]
  0006d	ff 15 00 00 00
	00		 call	 DWORD PTR __imp_?Find@?$CStringT@DV?$StrTraitMFC_DLL@DV?$ChTraitsCRT@D@ATL@@@@@ATL@@QBEHDH@Z

; 1681 : 		if(nPos!=-1)

  00073	83 f8 ff	 cmp	 eax, -1
  00076	74 1f		 je	 SHORT $LN4@DirectRunS
$LL2@DirectRunS:

; 1682 : 		{
; 1683 : 			szSTName.Delete(0,nPos+1);

  00078	40		 inc	 eax
  00079	8d 4d 94	 lea	 ecx, DWORD PTR _szSTName$[ebp]
  0007c	50		 push	 eax
  0007d	6a 00		 push	 0
  0007f	ff 15 00 00 00
	00		 call	 DWORD PTR __imp_?Delete@?$CStringT@DV?$StrTraitMFC_DLL@DV?$ChTraitsCRT@D@ATL@@@@@ATL@@QAEHHH@Z
  00085	6a 00		 push	 0
  00087	6a 5c		 push	 92			; 0000005cH
  00089	8d 4d 94	 lea	 ecx, DWORD PTR _szSTName$[ebp]
  0008c	ff 15 00 00 00
	00		 call	 DWORD PTR __imp_?Find@?$CStringT@DV?$StrTraitMFC_DLL@DV?$ChTraitsCRT@D@ATL@@@@@ATL@@QBEHDH@Z
  00092	83 f8 ff	 cmp	 eax, -1
  00095	75 e1		 jne	 SHORT $LL2@DirectRunS
$LN4@DirectRunS:

; 1684 : 		}
; 1685 : 		else
; 1686 : 		{
; 1687 : 			break;
; 1688 : 		}	
; 1689 : 	}
; 1690 : 	
; 1691 : 	CString szSTPath(szSTFile);

  00097	57		 push	 edi
  00098	8d 4d 8c	 lea	 ecx, DWORD PTR _szSTPath$[ebp]
  0009b	ff 15 00 00 00
	00		 call	 DWORD PTR __imp_??0?$CStringT@DV?$StrTraitMFC_DLL@DV?$ChTraitsCRT@D@ATL@@@@@ATL@@QAE@PBD@Z

; 1692 : 	nPos = szSTPath.ReverseFind('\\');

  000a1	6a 5c		 push	 92			; 0000005cH
  000a3	8d 4d 8c	 lea	 ecx, DWORD PTR _szSTPath$[ebp]
  000a6	c6 45 fc 01	 mov	 BYTE PTR __$EHRec$[ebp+8], 1
  000aa	ff 15 00 00 00
	00		 call	 DWORD PTR __imp_?ReverseFind@?$CStringT@DV?$StrTraitMFC_DLL@DV?$ChTraitsCRT@D@ATL@@@@@ATL@@QBEHD@Z

; 1693 : 	if(nPos!=-1)

  000b0	83 f8 ff	 cmp	 eax, -1
  000b3	74 29		 je	 SHORT $LN6@DirectRunS

; 1694 : 	{
; 1695 : 		szSTPath = szSTPath.Left(nPos);

  000b5	50		 push	 eax
  000b6	8d 45 90	 lea	 eax, DWORD PTR $T5[ebp]
  000b9	50		 push	 eax
  000ba	8d 4d 8c	 lea	 ecx, DWORD PTR _szSTPath$[ebp]
  000bd	ff 15 00 00 00
	00		 call	 DWORD PTR __imp_?Left@?$CStringT@DV?$StrTraitMFC_DLL@DV?$ChTraitsCRT@D@ATL@@@@@ATL@@QBE?AV12@H@Z
  000c3	50		 push	 eax
  000c4	8d 4d 8c	 lea	 ecx, DWORD PTR _szSTPath$[ebp]
  000c7	c6 45 fc 02	 mov	 BYTE PTR __$EHRec$[ebp+8], 2
  000cb	ff 15 00 00 00
	00		 call	 DWORD PTR __imp_??4?$CStringT@DV?$StrTraitMFC_DLL@DV?$ChTraitsCRT@D@ATL@@@@@ATL@@QAEAAV01@ABV01@@Z
  000d1	8d 4d 90	 lea	 ecx, DWORD PTR $T5[ebp]
  000d4	c6 45 fc 01	 mov	 BYTE PTR __$EHRec$[ebp+8], 1
  000d8	ff 15 00 00 00
	00		 call	 DWORD PTR __imp_??1?$CStringT@DV?$StrTraitMFC_DLL@DV?$ChTraitsCRT@D@ATL@@@@@ATL@@QAE@XZ
$LN6@DirectRunS:

; 1696 : 	}
; 1697 : 	
; 1698 : 	m_xSTAnalysisInput.m_Info.szSTPath = szSTPath;

  000de	8d 45 8c	 lea	 eax, DWORD PTR _szSTPath$[ebp]
  000e1	50		 push	 eax
  000e2	8d 8b 80 09 00
	00		 lea	 ecx, DWORD PTR [ebx+2432]
  000e8	ff 15 00 00 00
	00		 call	 DWORD PTR __imp_??4?$CStringT@DV?$StrTraitMFC_DLL@DV?$ChTraitsCRT@D@ATL@@@@@ATL@@QAEAAV01@ABV01@@Z

; 1699 : 	m_xSTAnalysisInput.m_Info.szSTName = szSTName;

  000ee	8d 45 94	 lea	 eax, DWORD PTR _szSTName$[ebp]
  000f1	8d b3 7c 09 00
	00		 lea	 esi, DWORD PTR [ebx+2428]
  000f7	50		 push	 eax
  000f8	8b ce		 mov	 ecx, esi
  000fa	ff 15 00 00 00
	00		 call	 DWORD PTR __imp_??4?$CStringT@DV?$StrTraitMFC_DLL@DV?$ChTraitsCRT@D@ATL@@@@@ATL@@QAEAAV01@ABV01@@Z
  00100	8d 4d 98	 lea	 ecx, DWORD PTR _InData$[ebp]
  00103	ff 15 00 00 00
	00		 call	 DWORD PTR __imp_??0?$CStringT@DV?$StrTraitMFC_DLL@DV?$ChTraitsCRT@D@ATL@@@@@ATL@@QAE@XZ
  00109	8d 4d a0	 lea	 ecx, DWORD PTR _InData$[ebp+8]
  0010c	ff 15 00 00 00
	00		 call	 DWORD PTR __imp_??0?$CStringT@DV?$StrTraitMFC_DLL@DV?$ChTraitsCRT@D@ATL@@@@@ATL@@QAE@XZ
  00112	8d 4d a8	 lea	 ecx, DWORD PTR _InData$[ebp+16]
  00115	ff 15 00 00 00
	00		 call	 DWORD PTR __imp_??0?$CStringT@DV?$StrTraitMFC_DLL@DV?$ChTraitsCRT@D@ATL@@@@@ATL@@QAE@XZ
  0011b	8d 4d ac	 lea	 ecx, DWORD PTR _InData$[ebp+20]
  0011e	c6 45 fc 05	 mov	 BYTE PTR __$EHRec$[ebp+8], 5
  00122	e8 00 00 00 00	 call	 ??0CStringArray@@QAE@XZ	; CStringArray::CStringArray
  00127	8d 4d c0	 lea	 ecx, DWORD PTR _InData$[ebp+40]
  0012a	ff 15 00 00 00
	00		 call	 DWORD PTR __imp_??0?$CStringT@DV?$StrTraitMFC_DLL@DV?$ChTraitsCRT@D@ATL@@@@@ATL@@QAE@XZ

; 1700 : 	
; 1701 : 	stAddinSTRun InData;
; 1702 : 	
; 1703 : 	m_szImsiRunSTFile = "";

  00130	68 00 00 00 00	 push	 OFFSET ??_C@_00CNPNBAHC@@
  00135	8d 8b 6c 09 00
	00		 lea	 ecx, DWORD PTR [ebx+2412]
  0013b	c6 45 fc 06	 mov	 BYTE PTR __$EHRec$[ebp+8], 6
  0013f	ff 15 00 00 00
	00		 call	 DWORD PTR __imp_??4?$CStringT@DV?$StrTraitMFC_DLL@DV?$ChTraitsCRT@D@ATL@@@@@ATL@@QAEAAV01@PBD@Z

; 1704 : 	InData.szSTFile = szSTFile;

  00145	57		 push	 edi
  00146	8d 4d 98	 lea	 ecx, DWORD PTR _InData$[ebp]
  00149	ff 15 00 00 00
	00		 call	 DWORD PTR __imp_??4?$CStringT@DV?$StrTraitMFC_DLL@DV?$ChTraitsCRT@D@ATL@@@@@ATL@@QAEAAV01@PBD@Z

; 1705 : 	InData.pChartInterface = (long)&m_xSTInterface;

  0014f	8d 83 70 09 00
	00		 lea	 eax, DWORD PTR [ebx+2416]

; 1706 : 	InData.szCode = m_xSTAnalysisInput.GetCode();

  00155	8d bb 74 09 00
	00		 lea	 edi, DWORD PTR [ebx+2420]
  0015b	89 45 9c	 mov	 DWORD PTR _InData$[ebp+4], eax
  0015e	8b 07		 mov	 eax, DWORD PTR [edi]
  00160	8d 4d 90	 lea	 ecx, DWORD PTR $T4[ebp]
  00163	51		 push	 ecx
  00164	57		 push	 edi
  00165	ff 50 10	 call	 DWORD PTR [eax+16]
  00168	50		 push	 eax
  00169	8d 4d a0	 lea	 ecx, DWORD PTR _InData$[ebp+8]
  0016c	c6 45 fc 07	 mov	 BYTE PTR __$EHRec$[ebp+8], 7
  00170	ff 15 00 00 00
	00		 call	 DWORD PTR __imp_??4?$CStringT@DV?$StrTraitMFC_DLL@DV?$ChTraitsCRT@D@ATL@@@@@ATL@@QAEAAV01@ABV01@@Z
  00176	8d 4d 90	 lea	 ecx, DWORD PTR $T4[ebp]
  00179	c6 45 fc 06	 mov	 BYTE PTR __$EHRec$[ebp+8], 6
  0017d	ff 15 00 00 00
	00		 call	 DWORD PTR __imp_??1?$CStringT@DV?$StrTraitMFC_DLL@DV?$ChTraitsCRT@D@ATL@@@@@ATL@@QAE@XZ

; 1707 : 	InData.nCount = m_xSTAnalysisInput.GetCount();

  00183	8b 07		 mov	 eax, DWORD PTR [edi]
  00185	57		 push	 edi
  00186	ff 50 20	 call	 DWORD PTR [eax+32]
  00189	89 45 a4	 mov	 DWORD PTR _InData$[ebp+12], eax

; 1708 : 	InData.szEndData = m_xSTAnalysisInput.GetEndDay();

  0018c	8d 4d 90	 lea	 ecx, DWORD PTR $T3[ebp]
  0018f	8b 07		 mov	 eax, DWORD PTR [edi]
  00191	51		 push	 ecx
  00192	57		 push	 edi
  00193	ff 50 24	 call	 DWORD PTR [eax+36]
  00196	50		 push	 eax
  00197	8d 4d a8	 lea	 ecx, DWORD PTR _InData$[ebp+16]
  0019a	c6 45 fc 08	 mov	 BYTE PTR __$EHRec$[ebp+8], 8
  0019e	ff 15 00 00 00
	00		 call	 DWORD PTR __imp_??4?$CStringT@DV?$StrTraitMFC_DLL@DV?$ChTraitsCRT@D@ATL@@@@@ATL@@QAEAAV01@ABV01@@Z
  001a4	8d 4d 90	 lea	 ecx, DWORD PTR $T3[ebp]
  001a7	c6 45 fc 06	 mov	 BYTE PTR __$EHRec$[ebp+8], 6
  001ab	ff 15 00 00 00
	00		 call	 DWORD PTR __imp_??1?$CStringT@DV?$StrTraitMFC_DLL@DV?$ChTraitsCRT@D@ATL@@@@@ATL@@QAE@XZ

; 1709 : 	InData.szSTName = m_xSTAnalysisInput.m_Info.szSTName;

  001b1	56		 push	 esi
  001b2	8d 4d c0	 lea	 ecx, DWORD PTR _InData$[ebp+40]
  001b5	ff 15 00 00 00
	00		 call	 DWORD PTR __imp_??4?$CStringT@DV?$StrTraitMFC_DLL@DV?$ChTraitsCRT@D@ATL@@@@@ATL@@QAEAAV01@ABV01@@Z
; File C:\Program Files (x86)\Microsoft Visual Studio\2019\Community\VC\Tools\MSVC\14.29.30133\atlmfc\include\afxwin2.inl

; 25   : 	{ return this == NULL ? NULL : m_hWnd; }

  001bb	8b 43 20	 mov	 eax, DWORD PTR [ebx+32]
  001be	89 45 c4	 mov	 DWORD PTR _InData$[ebp+44], eax
; File D:\git\src\IBK\IBK_DRFN\ProjSrc\SrcDrfn\Chart\MULTICHART\TabSystemTradingEx.cpp

; 1716 : 	CString strSystemPath = m_szDataDir + "\\STData\\SD";

  001c1	8d 83 20 08 00
	00		 lea	 eax, DWORD PTR [ebx+2080]
  001c7	68 00 00 00 00	 push	 OFFSET ??_C@_0L@FEICBMFP@?2STData?2SD@
  001cc	50		 push	 eax
  001cd	8d 45 84	 lea	 eax, DWORD PTR _strSystemPath$[ebp]
  001d0	50		 push	 eax
  001d1	e8 00 00 00 00	 call	 ??HATL@@YA?AV?$CStringT@DV?$StrTraitMFC_DLL@DV?$ChTraitsCRT@D@ATL@@@@@0@ABV10@PBD@Z ; ATL::operator+

; 1717 : 	CString strUserPath = m_szEncUserDir + "\\STData\\SD";

  001d6	8d 83 24 08 00
	00		 lea	 eax, DWORD PTR [ebx+2084]
  001dc	c6 45 fc 09	 mov	 BYTE PTR __$EHRec$[ebp+8], 9
  001e0	68 00 00 00 00	 push	 OFFSET ??_C@_0L@FEICBMFP@?2STData?2SD@
  001e5	50		 push	 eax
  001e6	8d 45 88	 lea	 eax, DWORD PTR _strUserPath$[ebp]
  001e9	50		 push	 eax
  001ea	e8 00 00 00 00	 call	 ??HATL@@YA?AV?$CStringT@DV?$StrTraitMFC_DLL@DV?$ChTraitsCRT@D@ATL@@@@@0@ABV10@PBD@Z ; ATL::operator+
  001ef	83 c4 18	 add	 esp, 24			; 00000018H
; File C:\Program Files (x86)\Microsoft Visual Studio\2019\Community\VC\Tools\MSVC\14.29.30133\atlmfc\include\afxcoll.inl

; 321  : 		SetAtGrow(nIndex, newElement);

  001f2	8d 45 84	 lea	 eax, DWORD PTR _strSystemPath$[ebp]
; File D:\git\src\IBK\IBK_DRFN\ProjSrc\SrcDrfn\Chart\MULTICHART\TabSystemTradingEx.cpp

; 1717 : 	CString strUserPath = m_szEncUserDir + "\\STData\\SD";

  001f5	c6 45 fc 0a	 mov	 BYTE PTR __$EHRec$[ebp+8], 10 ; 0000000aH
; File C:\Program Files (x86)\Microsoft Visual Studio\2019\Community\VC\Tools\MSVC\14.29.30133\atlmfc\include\afxcoll.inl

; 321  : 		SetAtGrow(nIndex, newElement);

  001f9	50		 push	 eax
  001fa	ff 75 b4	 push	 DWORD PTR _InData$[ebp+28]
  001fd	8d 4d ac	 lea	 ecx, DWORD PTR _InData$[ebp+20]
  00200	e8 00 00 00 00	 call	 ?SetAtGrow@CStringArray@@QAEXHABV?$CStringT@DV?$StrTraitMFC_DLL@DV?$ChTraitsCRT@D@ATL@@@@@ATL@@@Z ; CStringArray::SetAtGrow
  00205	8d 45 88	 lea	 eax, DWORD PTR _strUserPath$[ebp]
  00208	50		 push	 eax
  00209	ff 75 b4	 push	 DWORD PTR _InData$[ebp+28]
  0020c	8d 4d ac	 lea	 ecx, DWORD PTR _InData$[ebp+20]
  0020f	e8 00 00 00 00	 call	 ?SetAtGrow@CStringArray@@QAEXHABV?$CStringT@DV?$StrTraitMFC_DLL@DV?$ChTraitsCRT@D@ATL@@@@@ATL@@@Z ; CStringArray::SetAtGrow
; File D:\git\src\IBK\IBK_DRFN\ProjSrc\SrcDrfn\Chart\MULTICHART\TabSystemTradingEx.cpp

; 1723 : 	sprintf(InData.szCodeName, "%s", m_xSTAnalysisInput.GetCodeName());

  00214	8b 07		 mov	 eax, DWORD PTR [edi]
  00216	8d 4d 90	 lea	 ecx, DWORD PTR $T2[ebp]
  00219	51		 push	 ecx
  0021a	57		 push	 edi
  0021b	ff 50 14	 call	 DWORD PTR [eax+20]
  0021e	ff 30		 push	 DWORD PTR [eax]
  00220	8d 45 cc	 lea	 eax, DWORD PTR _InData$[ebp+52]
  00223	68 00 00 00 00	 push	 OFFSET ??_C@_02DKCKIIND@?$CFs@
  00228	50		 push	 eax
  00229	e8 00 00 00 00	 call	 _sprintf
  0022e	83 c4 0c	 add	 esp, 12			; 0000000cH
  00231	8d 4d 90	 lea	 ecx, DWORD PTR $T2[ebp]
  00234	ff 15 00 00 00
	00		 call	 DWORD PTR __imp_??1?$CStringT@DV?$StrTraitMFC_DLL@DV?$ChTraitsCRT@D@ATL@@@@@ATL@@QAE@XZ

; 1724 : 	InData.nCodeType = m_xSTAnalysisInput.GetCodeType();

  0023a	8b 07		 mov	 eax, DWORD PTR [edi]
  0023c	57		 push	 edi
  0023d	ff 50 18	 call	 DWORD PTR [eax+24]

; 1725 : 	
; 1726 : 	CChartItem* pCItem = ((CChartMng*)m_pChartMng)->GetpChartItemSelected();

  00240	8b 8b c4 00 00
	00		 mov	 ecx, DWORD PTR [ebx+196]
  00246	89 45 ec	 mov	 DWORD PTR _InData$[ebp+84], eax
  00249	e8 00 00 00 00	 call	 ?GetpChartItemSelected@CChartMng@@QAEPAVCChartItem@@XZ ; CChartMng::GetpChartItemSelected
  0024e	8b f0		 mov	 esi, eax

; 1727 : 	if(pCItem)

  00250	85 f6		 test	 esi, esi
  00252	74 26		 je	 SHORT $LN7@DirectRunS

; 1728 : 	{
; 1729 : 		pCItem->SetSTRunSTPath(InData.szSTFile);

  00254	51		 push	 ecx
  00255	8d 45 98	 lea	 eax, DWORD PTR _InData$[ebp]
  00258	8b cc		 mov	 ecx, esp
  0025a	50		 push	 eax
  0025b	ff 15 00 00 00
	00		 call	 DWORD PTR __imp_??0?$CStringT@DV?$StrTraitMFC_DLL@DV?$ChTraitsCRT@D@ATL@@@@@ATL@@QAE@ABV01@@Z
  00261	8b ce		 mov	 ecx, esi
  00263	e8 00 00 00 00	 call	 ?SetSTRunSTPath@CChartItem@@QAEXV?$CStringT@DV?$StrTraitMFC_DLL@DV?$ChTraitsCRT@D@ATL@@@@@ATL@@@Z ; CChartItem::SetSTRunSTPath

; 1730 : 		pCItem->InvokeAddInSTIndex("ChartSTIndexAddIn.dll", 10, (long)&InData);

  00268	8d 45 98	 lea	 eax, DWORD PTR _InData$[ebp]
  0026b	8b ce		 mov	 ecx, esi
  0026d	50		 push	 eax
  0026e	6a 0a		 push	 10			; 0000000aH
  00270	68 00 00 00 00	 push	 OFFSET ??_C@_0BG@CHJJKIAP@ChartSTIndexAddIn?4dll@
  00275	e8 00 00 00 00	 call	 ?InvokeAddInSTIndex@CChartItem@@QAEHPBDFJ@Z ; CChartItem::InvokeAddInSTIndex
$LN7@DirectRunS:

; 1731 : 	}
; 1732 : }

  0027a	8d 4d 88	 lea	 ecx, DWORD PTR _strUserPath$[ebp]
  0027d	ff 15 00 00 00
	00		 call	 DWORD PTR __imp_??1?$CStringT@DV?$StrTraitMFC_DLL@DV?$ChTraitsCRT@D@ATL@@@@@ATL@@QAE@XZ
  00283	8d 4d 84	 lea	 ecx, DWORD PTR _strSystemPath$[ebp]
  00286	ff 15 00 00 00
	00		 call	 DWORD PTR __imp_??1?$CStringT@DV?$StrTraitMFC_DLL@DV?$ChTraitsCRT@D@ATL@@@@@ATL@@QAE@XZ
  0028c	8d 4d c0	 lea	 ecx, DWORD PTR _InData$[ebp+40]
  0028f	ff 15 00 00 00
	00		 call	 DWORD PTR __imp_??1?$CStringT@DV?$StrTraitMFC_DLL@DV?$ChTraitsCRT@D@ATL@@@@@ATL@@QAE@XZ
  00295	8d 4d ac	 lea	 ecx, DWORD PTR _InData$[ebp+20]
  00298	e8 00 00 00 00	 call	 ??1CStringArray@@UAE@XZ	; CStringArray::~CStringArray
  0029d	8d 4d a8	 lea	 ecx, DWORD PTR _InData$[ebp+16]
  002a0	ff 15 00 00 00
	00		 call	 DWORD PTR __imp_??1?$CStringT@DV?$StrTraitMFC_DLL@DV?$ChTraitsCRT@D@ATL@@@@@ATL@@QAE@XZ
  002a6	8d 4d a0	 lea	 ecx, DWORD PTR _InData$[ebp+8]
  002a9	ff 15 00 00 00
	00		 call	 DWORD PTR __imp_??1?$CStringT@DV?$StrTraitMFC_DLL@DV?$ChTraitsCRT@D@ATL@@@@@ATL@@QAE@XZ
  002af	8d 4d 98	 lea	 ecx, DWORD PTR _InData$[ebp]
  002b2	ff 15 00 00 00
	00		 call	 DWORD PTR __imp_??1?$CStringT@DV?$StrTraitMFC_DLL@DV?$ChTraitsCRT@D@ATL@@@@@ATL@@QAE@XZ
  002b8	8d 4d 8c	 lea	 ecx, DWORD PTR _szSTPath$[ebp]
  002bb	ff 15 00 00 00
	00		 call	 DWORD PTR __imp_??1?$CStringT@DV?$StrTraitMFC_DLL@DV?$ChTraitsCRT@D@ATL@@@@@ATL@@QAE@XZ
  002c1	8d 4d 94	 lea	 ecx, DWORD PTR _szSTName$[ebp]
  002c4	ff 15 00 00 00
	00		 call	 DWORD PTR __imp_??1?$CStringT@DV?$StrTraitMFC_DLL@DV?$ChTraitsCRT@D@ATL@@@@@ATL@@QAE@XZ
  002ca	8b 4d f4	 mov	 ecx, DWORD PTR __$EHRec$[ebp]
  002cd	64 89 0d 00 00
	00 00		 mov	 DWORD PTR fs:0, ecx
  002d4	59		 pop	 ecx
  002d5	5f		 pop	 edi
  002d6	5e		 pop	 esi
  002d7	5b		 pop	 ebx
  002d8	8b 4d f0	 mov	 ecx, DWORD PTR __$ArrayPad$[ebp]
  002db	33 cd		 xor	 ecx, ebp
  002dd	e8 00 00 00 00	 call	 @__security_check_cookie@4
  002e2	8b e5		 mov	 esp, ebp
  002e4	5d		 pop	 ebp
  002e5	c2 04 00	 ret	 4
_TEXT	ENDS
;	COMDAT text$x
text$x	SEGMENT
__unwindfunclet$?DirectRunST@CTabSystemTradingEx@@QAEXPBD@Z$0:
  00000	8d 4d 94	 lea	 ecx, DWORD PTR _szSTName$[ebp]
  00003	ff 25 00 00 00
	00		 jmp	 DWORD PTR __imp_??1?$CStringT@DV?$StrTraitMFC_DLL@DV?$ChTraitsCRT@D@ATL@@@@@ATL@@QAE@XZ
__unwindfunclet$?DirectRunST@CTabSystemTradingEx@@QAEXPBD@Z$1:
  00009	8d 4d 8c	 lea	 ecx, DWORD PTR _szSTPath$[ebp]
  0000c	ff 25 00 00 00
	00		 jmp	 DWORD PTR __imp_??1?$CStringT@DV?$StrTraitMFC_DLL@DV?$ChTraitsCRT@D@ATL@@@@@ATL@@QAE@XZ
__unwindfunclet$?DirectRunST@CTabSystemTradingEx@@QAEXPBD@Z$2:
  00012	8d 4d 90	 lea	 ecx, DWORD PTR $T5[ebp]
  00015	ff 25 00 00 00
	00		 jmp	 DWORD PTR __imp_??1?$CStringT@DV?$StrTraitMFC_DLL@DV?$ChTraitsCRT@D@ATL@@@@@ATL@@QAE@XZ
__unwindfunclet$?DirectRunST@CTabSystemTradingEx@@QAEXPBD@Z$10:
  0001b	8d 4d 98	 lea	 ecx, DWORD PTR _InData$[ebp]
  0001e	ff 25 00 00 00
	00		 jmp	 DWORD PTR __imp_??1?$CStringT@DV?$StrTraitMFC_DLL@DV?$ChTraitsCRT@D@ATL@@@@@ATL@@QAE@XZ
__unwindfunclet$?DirectRunST@CTabSystemTradingEx@@QAEXPBD@Z$11:
  00024	8d 4d a0	 lea	 ecx, DWORD PTR _InData$[ebp+8]
  00027	ff 25 00 00 00
	00		 jmp	 DWORD PTR __imp_??1?$CStringT@DV?$StrTraitMFC_DLL@DV?$ChTraitsCRT@D@ATL@@@@@ATL@@QAE@XZ
__unwindfunclet$?DirectRunST@CTabSystemTradingEx@@QAEXPBD@Z$12:
  0002d	8d 4d a8	 lea	 ecx, DWORD PTR _InData$[ebp+16]
  00030	ff 25 00 00 00
	00		 jmp	 DWORD PTR __imp_??1?$CStringT@DV?$StrTraitMFC_DLL@DV?$ChTraitsCRT@D@ATL@@@@@ATL@@QAE@XZ
__unwindfunclet$?DirectRunST@CTabSystemTradingEx@@QAEXPBD@Z$3:
  00036	8d 4d 98	 lea	 ecx, DWORD PTR _InData$[ebp]
  00039	e9 00 00 00 00	 jmp	 ??1stAddinSTRun@@QAE@XZ
__unwindfunclet$?DirectRunST@CTabSystemTradingEx@@QAEXPBD@Z$4:
  0003e	8d 4d 90	 lea	 ecx, DWORD PTR $T4[ebp]
  00041	ff 25 00 00 00
	00		 jmp	 DWORD PTR __imp_??1?$CStringT@DV?$StrTraitMFC_DLL@DV?$ChTraitsCRT@D@ATL@@@@@ATL@@QAE@XZ
__unwindfunclet$?DirectRunST@CTabSystemTradingEx@@QAEXPBD@Z$5:
  00047	8d 4d 90	 lea	 ecx, DWORD PTR $T3[ebp]
  0004a	ff 25 00 00 00
	00		 jmp	 DWORD PTR __imp_??1?$CStringT@DV?$StrTraitMFC_DLL@DV?$ChTraitsCRT@D@ATL@@@@@ATL@@QAE@XZ
__unwindfunclet$?DirectRunST@CTabSystemTradingEx@@QAEXPBD@Z$6:
  00050	8d 4d 84	 lea	 ecx, DWORD PTR _strSystemPath$[ebp]
  00053	ff 25 00 00 00
	00		 jmp	 DWORD PTR __imp_??1?$CStringT@DV?$StrTraitMFC_DLL@DV?$ChTraitsCRT@D@ATL@@@@@ATL@@QAE@XZ
__unwindfunclet$?DirectRunST@CTabSystemTradingEx@@QAEXPBD@Z$7:
  00059	8d 4d 88	 lea	 ecx, DWORD PTR _strUserPath$[ebp]
  0005c	ff 25 00 00 00
	00		 jmp	 DWORD PTR __imp_??1?$CStringT@DV?$StrTraitMFC_DLL@DV?$ChTraitsCRT@D@ATL@@@@@ATL@@QAE@XZ
  00062	cc		 int	 3
  00063	cc		 int	 3
  00064	cc		 int	 3
  00065	cc		 int	 3
  00066	cc		 int	 3
__ehhandler$?DirectRunST@CTabSystemTradingEx@@QAEXPBD@Z:
  00067	90		 npad	 1
  00068	90		 npad	 1
  00069	8b 54 24 08	 mov	 edx, DWORD PTR [esp+8]
  0006d	8d 42 0c	 lea	 eax, DWORD PTR [edx+12]
  00070	8b 4a 80	 mov	 ecx, DWORD PTR [edx-128]
  00073	33 c8		 xor	 ecx, eax
  00075	e8 00 00 00 00	 call	 @__security_check_cookie@4
  0007a	8b 4a fc	 mov	 ecx, DWORD PTR [edx-4]
  0007d	33 c8		 xor	 ecx, eax
  0007f	e8 00 00 00 00	 call	 @__security_check_cookie@4
  00084	b8 00 00 00 00	 mov	 eax, OFFSET __ehfuncinfo$?DirectRunST@CTabSystemTradingEx@@QAEXPBD@Z
  00089	e9 00 00 00 00	 jmp	 ___CxxFrameHandler3
text$x	ENDS
?DirectRunST@CTabSystemTradingEx@@QAEXPBD@Z ENDP	; CTabSystemTradingEx::DirectRunST
; Function compile flags: /Ogtp
; File D:\git\src\IBK\IBK_DRFN\ProjSrc\SrcDrfn\Chart\MULTICHART\TabSystemTradingEx.cpp
; File C:\Program Files (x86)\Microsoft Visual Studio\2019\Community\VC\Tools\MSVC\14.29.30133\atlmfc\include\cstringt.h
; File D:\git\src\IBK\IBK_DRFN\ProjSrc\SrcDrfn\Chart\MULTICHART\TabSystemTradingEx.cpp
; File C:\Program Files (x86)\Microsoft Visual Studio\2019\Community\VC\Tools\MSVC\14.29.30133\atlmfc\include\cstringt.h
; File C:\Program Files (x86)\Microsoft Visual Studio\2019\Community\VC\Tools\MSVC\14.29.30133\atlmfc\include\atlsimpstr.h
; File C:\Program Files (x86)\Microsoft Visual Studio\2019\Community\VC\Tools\MSVC\14.29.30133\atlmfc\include\cstringt.h
; File D:\git\src\IBK\IBK_DRFN\ProjSrc\SrcDrfn\Chart\MULTICHART\TabSystemTradingEx.cpp
; File C:\Program Files (x86)\Microsoft Visual Studio\2019\Community\VC\Tools\MSVC\14.29.30133\atlmfc\include\cstringt.h
; File D:\git\src\IBK\IBK_DRFN\ProjSrc\SrcDrfn\Chart\MULTICHART\TabSystemTradingEx.cpp
; File C:\Program Files (x86)\Microsoft Visual Studio\2019\Community\VC\Tools\MSVC\14.29.30133\atlmfc\include\cstringt.h
; File C:\Program Files (x86)\Microsoft Visual Studio\2019\Community\VC\Tools\MSVC\14.29.30133\atlmfc\include\atlsimpstr.h
; File C:\Program Files (x86)\Microsoft Visual Studio\2019\Community\VC\Tools\MSVC\14.29.30133\atlmfc\include\cstringt.h
; File D:\git\src\IBK\IBK_DRFN\ProjSrc\SrcDrfn\Chart\MULTICHART\TabSystemTradingEx.cpp
; File C:\Program Files (x86)\Microsoft Visual Studio\2019\Community\VC\Tools\MSVC\14.29.30133\atlmfc\include\cstringt.h
; File C:\Program Files (x86)\Microsoft Visual Studio\2019\Community\VC\Tools\MSVC\14.29.30133\atlmfc\include\atlsimpstr.h
; File C:\Program Files (x86)\Microsoft Visual Studio\2019\Community\VC\Tools\MSVC\14.29.30133\atlmfc\include\cstringt.h
; File D:\git\src\IBK\IBK_DRFN\ProjSrc\SrcDrfn\Chart\MULTICHART\TabSystemTradingEx.cpp
; File C:\Program Files (x86)\Microsoft Visual Studio\2019\Community\VC\Tools\MSVC\14.29.30133\atlmfc\include\afxcoll.inl
; File D:\git\src\IBK\IBK_DRFN\ProjSrc\SrcDrfn\Chart\MULTICHART\TabSystemTradingEx.cpp
; File C:\Program Files (x86)\Microsoft Visual Studio\2019\Community\VC\Tools\MSVC\14.29.30133\atlmfc\include\afxcoll.inl
; File D:\git\src\IBK\IBK_DRFN\ProjSrc\SrcDrfn\Chart\MULTICHART\TabSystemTradingEx.cpp
; File C:\Program Files (x86)\Microsoft Visual Studio\2019\Community\VC\Tools\MSVC\14.29.30133\atlmfc\include\afxwin2.inl
; File D:\git\src\IBK\IBK_DRFN\ProjSrc\SrcDrfn\Chart\MULTICHART\TabSystemTradingEx.cpp
; File C:\Program Files (x86)\Microsoft Visual Studio\2019\Community\VC\Tools\MSVC\14.29.30133\atlmfc\include\afxwin2.inl
; File D:\git\src\IBK\IBK_DRFN\ProjSrc\SrcDrfn\Chart\MULTICHART\TabSystemTradingEx.cpp
;	COMDAT ?Run_STDLL@CTabSystemTradingEx@@QAEHPBD@Z
_TEXT	SEGMENT
_strArrayName$ = -56					; size = 20
_strFilePathName$ = -36					; size = 4
_strFileName$ = -32					; size = 4
_strText$ = -28						; size = 4
_strUserPath$ = -24					; size = 4
$T2 = -20						; size = 4
$T3 = -16						; size = 4
__$EHRec$ = -12						; size = 12
$T4 = 8							; size = 4
$T5 = 8							; size = 4
_szDll$ = 8						; size = 4
?Run_STDLL@CTabSystemTradingEx@@QAEHPBD@Z PROC		; CTabSystemTradingEx::Run_STDLL, COMDAT
; _this$ = ecx

; 1481 : {

  00000	55		 push	 ebp
  00001	8b ec		 mov	 ebp, esp
  00003	6a ff		 push	 -1
  00005	68 00 00 00 00	 push	 __ehhandler$?Run_STDLL@CTabSystemTradingEx@@QAEHPBD@Z
  0000a	64 a1 00 00 00
	00		 mov	 eax, DWORD PTR fs:0
  00010	50		 push	 eax
  00011	83 ec 2c	 sub	 esp, 44			; 0000002cH
  00014	56		 push	 esi
  00015	57		 push	 edi
  00016	a1 00 00 00 00	 mov	 eax, DWORD PTR ___security_cookie
  0001b	33 c5		 xor	 eax, ebp
  0001d	50		 push	 eax
  0001e	8d 45 f4	 lea	 eax, DWORD PTR __$EHRec$[ebp]
  00021	64 a3 00 00 00
	00		 mov	 DWORD PTR fs:0, eax
  00027	8b f9		 mov	 edi, ecx
  00029	c7 45 f0 00 00
	00 00		 mov	 DWORD PTR $T3[ebp], 0

; 1482 : 	CString strText = szDll;

  00030	8d 4d e4	 lea	 ecx, DWORD PTR _strText$[ebp]
  00033	ff 75 08	 push	 DWORD PTR _szDll$[ebp]
  00036	ff 15 00 00 00
	00		 call	 DWORD PTR __imp_??0?$CStringT@DV?$StrTraitMFC_DLL@DV?$ChTraitsCRT@D@ATL@@@@@ATL@@QAE@PBD@Z

; 1491 : 	CString strUserPath = m_pParentDlg->m_strRootPath +"\\" + PATH_DATA_STDATA_STSYSTEM;

  0003c	8b b7 bc 00 00
	00		 mov	 esi, DWORD PTR [edi+188]
  00042	c7 45 fc 00 00
	00 00		 mov	 DWORD PTR __$EHRec$[ebp+8], 0
; File C:\Program Files (x86)\Microsoft Visual Studio\2019\Community\VC\Tools\MSVC\14.29.30133\atlmfc\include\cstringt.h

; 2401 : 		CStringT strResult( str1.GetManager() );

  00049	8d 8e a8 01 00
	00		 lea	 ecx, DWORD PTR [esi+424]
; File D:\git\src\IBK\IBK_DRFN\ProjSrc\SrcDrfn\Chart\MULTICHART\TabSystemTradingEx.cpp

; 1491 : 	CString strUserPath = m_pParentDlg->m_strRootPath +"\\" + PATH_DATA_STDATA_STSYSTEM;

  0004f	c6 45 fc 01	 mov	 BYTE PTR __$EHRec$[ebp+8], 1
; File C:\Program Files (x86)\Microsoft Visual Studio\2019\Community\VC\Tools\MSVC\14.29.30133\atlmfc\include\cstringt.h

; 2401 : 		CStringT strResult( str1.GetManager() );

  00053	ff 15 00 00 00
	00		 call	 DWORD PTR __imp_?GetManager@?$CStringT@DV?$StrTraitMFC_DLL@DV?$ChTraitsCRT@D@ATL@@@@@ATL@@QBEPAUIAtlStringMgr@2@XZ
  00059	50		 push	 eax
  0005a	8d 4d 08	 lea	 ecx, DWORD PTR $T5[ebp]
  0005d	ff 15 00 00 00
	00		 call	 DWORD PTR __imp_??0?$CStringT@DV?$StrTraitMFC_DLL@DV?$ChTraitsCRT@D@ATL@@@@@ATL@@QAE@PAUIAtlStringMgr@1@@Z
; File C:\Program Files (x86)\Microsoft Visual Studio\2019\Community\VC\Tools\MSVC\14.29.30133\atlmfc\include\atlsimpstr.h

; 519  : 		return( GetData()->nDataLength );

  00063	8b 86 a8 01 00
	00		 mov	 eax, DWORD PTR [esi+424]
; File C:\Program Files (x86)\Microsoft Visual Studio\2019\Community\VC\Tools\MSVC\14.29.30133\atlmfc\include\cstringt.h

; 2403 : 		CThisSimpleString::Concatenate( strResult, str1, str1.GetLength(), psz2, CThisSimpleString::StringLength( psz2 ) );

  00069	6a 01		 push	 1
  0006b	68 00 00 00 00	 push	 OFFSET ??_C@_01KICIPPFI@?2@

; 2404 : 
; 2405 : 		return( strResult );

  00070	c7 45 f0 01 00
	00 00		 mov	 DWORD PTR $T3[ebp], 1
  00077	ff 70 f4	 push	 DWORD PTR [eax-12]
  0007a	50		 push	 eax
  0007b	8d 45 08	 lea	 eax, DWORD PTR $T5[ebp]
  0007e	50		 push	 eax
  0007f	ff 15 00 00 00
	00		 call	 DWORD PTR __imp_?Concatenate@?$CSimpleStringT@D$00@ATL@@KAXAAV12@PBDH1H@Z
; File D:\git\src\IBK\IBK_DRFN\ProjSrc\SrcDrfn\Chart\MULTICHART\TabSystemTradingEx.cpp

; 1491 : 	CString strUserPath = m_pParentDlg->m_strRootPath +"\\" + PATH_DATA_STDATA_STSYSTEM;

  00085	68 00 00 00 00	 push	 OFFSET ??_C@_0BF@KKLLNDJP@Icss?2stdata?2stsystem@
  0008a	8d 45 08	 lea	 eax, DWORD PTR $T5[ebp]
  0008d	50		 push	 eax
  0008e	8d 45 e8	 lea	 eax, DWORD PTR _strUserPath$[ebp]
  00091	50		 push	 eax
  00092	e8 00 00 00 00	 call	 ??HATL@@YA?AV?$CStringT@DV?$StrTraitMFC_DLL@DV?$ChTraitsCRT@D@ATL@@@@@0@ABV10@PBD@Z ; ATL::operator+
  00097	83 c4 20	 add	 esp, 32			; 00000020H
  0009a	8d 4d 08	 lea	 ecx, DWORD PTR $T5[ebp]
  0009d	c6 45 fc 03	 mov	 BYTE PTR __$EHRec$[ebp+8], 3
  000a1	ff 15 00 00 00
	00		 call	 DWORD PTR __imp_??1?$CStringT@DV?$StrTraitMFC_DLL@DV?$ChTraitsCRT@D@ATL@@@@@ATL@@QAE@XZ

; 1492 : //@
; 1493 : 
; 1494 : 	CStringArray strArrayName;

  000a7	8d 4d c8	 lea	 ecx, DWORD PTR _strArrayName$[ebp]
  000aa	e8 00 00 00 00	 call	 ??0CStringArray@@QAE@XZ	; CStringArray::CStringArray
; File C:\Program Files (x86)\Microsoft Visual Studio\2019\Community\VC\Tools\MSVC\14.29.30133\atlmfc\include\cstringt.h

; 2401 : 		CStringT strResult( str1.GetManager() );

  000af	8d 4d e8	 lea	 ecx, DWORD PTR _strUserPath$[ebp]
; File D:\git\src\IBK\IBK_DRFN\ProjSrc\SrcDrfn\Chart\MULTICHART\TabSystemTradingEx.cpp

; 1495 : 	CString strFilePathName = strUserPath + "\\" + strText + ".SD";

  000b2	c6 45 fc 05	 mov	 BYTE PTR __$EHRec$[ebp+8], 5
; File C:\Program Files (x86)\Microsoft Visual Studio\2019\Community\VC\Tools\MSVC\14.29.30133\atlmfc\include\cstringt.h

; 2401 : 		CStringT strResult( str1.GetManager() );

  000b6	ff 15 00 00 00
	00		 call	 DWORD PTR __imp_?GetManager@?$CStringT@DV?$StrTraitMFC_DLL@DV?$ChTraitsCRT@D@ATL@@@@@ATL@@QBEPAUIAtlStringMgr@2@XZ
  000bc	50		 push	 eax
  000bd	8d 4d 08	 lea	 ecx, DWORD PTR $T4[ebp]
  000c0	ff 15 00 00 00
	00		 call	 DWORD PTR __imp_??0?$CStringT@DV?$StrTraitMFC_DLL@DV?$ChTraitsCRT@D@ATL@@@@@ATL@@QAE@PAUIAtlStringMgr@1@@Z
; File C:\Program Files (x86)\Microsoft Visual Studio\2019\Community\VC\Tools\MSVC\14.29.30133\atlmfc\include\atlsimpstr.h

; 519  : 		return( GetData()->nDataLength );

  000c6	8b 45 e8	 mov	 eax, DWORD PTR _strUserPath$[ebp]
; File C:\Program Files (x86)\Microsoft Visual Studio\2019\Community\VC\Tools\MSVC\14.29.30133\atlmfc\include\cstringt.h

; 2403 : 		CThisSimpleString::Concatenate( strResult, str1, str1.GetLength(), psz2, CThisSimpleString::StringLength( psz2 ) );

  000c9	6a 01		 push	 1
  000cb	68 00 00 00 00	 push	 OFFSET ??_C@_01KICIPPFI@?2@

; 2404 : 
; 2405 : 		return( strResult );

  000d0	c7 45 f0 04 00
	00 00		 mov	 DWORD PTR $T3[ebp], 4
  000d7	ff 70 f4	 push	 DWORD PTR [eax-12]
  000da	50		 push	 eax
  000db	8d 45 08	 lea	 eax, DWORD PTR $T4[ebp]
  000de	50		 push	 eax
  000df	ff 15 00 00 00
	00		 call	 DWORD PTR __imp_?Concatenate@?$CSimpleStringT@D$00@ATL@@KAXAAV12@PBDH1H@Z
  000e5	83 c4 14	 add	 esp, 20			; 00000014H

; 2390 : 		CStringT strResult( str1.GetManager() );

  000e8	8d 4d 08	 lea	 ecx, DWORD PTR $T4[ebp]
; File D:\git\src\IBK\IBK_DRFN\ProjSrc\SrcDrfn\Chart\MULTICHART\TabSystemTradingEx.cpp

; 1495 : 	CString strFilePathName = strUserPath + "\\" + strText + ".SD";

  000eb	c6 45 fc 06	 mov	 BYTE PTR __$EHRec$[ebp+8], 6
; File C:\Program Files (x86)\Microsoft Visual Studio\2019\Community\VC\Tools\MSVC\14.29.30133\atlmfc\include\cstringt.h

; 2390 : 		CStringT strResult( str1.GetManager() );

  000ef	ff 15 00 00 00
	00		 call	 DWORD PTR __imp_?GetManager@?$CStringT@DV?$StrTraitMFC_DLL@DV?$ChTraitsCRT@D@ATL@@@@@ATL@@QBEPAUIAtlStringMgr@2@XZ
  000f5	50		 push	 eax
  000f6	8d 4d ec	 lea	 ecx, DWORD PTR $T2[ebp]
  000f9	ff 15 00 00 00
	00		 call	 DWORD PTR __imp_??0?$CStringT@DV?$StrTraitMFC_DLL@DV?$ChTraitsCRT@D@ATL@@@@@ATL@@QAE@PAUIAtlStringMgr@1@@Z
; File C:\Program Files (x86)\Microsoft Visual Studio\2019\Community\VC\Tools\MSVC\14.29.30133\atlmfc\include\atlsimpstr.h

; 519  : 		return( GetData()->nDataLength );

  000ff	8b 45 e4	 mov	 eax, DWORD PTR _strText$[ebp]
  00102	8b 4d 08	 mov	 ecx, DWORD PTR $T4[ebp]
; File C:\Program Files (x86)\Microsoft Visual Studio\2019\Community\VC\Tools\MSVC\14.29.30133\atlmfc\include\cstringt.h

; 2394 : 		return( strResult );

  00105	c7 45 f0 0c 00
	00 00		 mov	 DWORD PTR $T3[ebp], 12	; 0000000cH
  0010c	ff 70 f4	 push	 DWORD PTR [eax-12]
  0010f	50		 push	 eax
  00110	ff 71 f4	 push	 DWORD PTR [ecx-12]
  00113	8d 45 ec	 lea	 eax, DWORD PTR $T2[ebp]
  00116	51		 push	 ecx
  00117	50		 push	 eax
  00118	ff 15 00 00 00
	00		 call	 DWORD PTR __imp_?Concatenate@?$CSimpleStringT@D$00@ATL@@KAXAAV12@PBDH1H@Z
; File D:\git\src\IBK\IBK_DRFN\ProjSrc\SrcDrfn\Chart\MULTICHART\TabSystemTradingEx.cpp

; 1495 : 	CString strFilePathName = strUserPath + "\\" + strText + ".SD";

  0011e	68 00 00 00 00	 push	 OFFSET ??_C@_03GELJOCAG@?4SD@
  00123	8d 45 ec	 lea	 eax, DWORD PTR $T2[ebp]
  00126	50		 push	 eax
  00127	8d 45 dc	 lea	 eax, DWORD PTR _strFilePathName$[ebp]
  0012a	50		 push	 eax
  0012b	e8 00 00 00 00	 call	 ??HATL@@YA?AV?$CStringT@DV?$StrTraitMFC_DLL@DV?$ChTraitsCRT@D@ATL@@@@@0@ABV10@PBD@Z ; ATL::operator+
  00130	83 c4 20	 add	 esp, 32			; 00000020H
  00133	8d 4d ec	 lea	 ecx, DWORD PTR $T2[ebp]
  00136	ff 15 00 00 00
	00		 call	 DWORD PTR __imp_??1?$CStringT@DV?$StrTraitMFC_DLL@DV?$ChTraitsCRT@D@ATL@@@@@ATL@@QAE@XZ
  0013c	8d 4d 08	 lea	 ecx, DWORD PTR $T4[ebp]
  0013f	c6 45 fc 09	 mov	 BYTE PTR __$EHRec$[ebp+8], 9
  00143	ff 15 00 00 00
	00		 call	 DWORD PTR __imp_??1?$CStringT@DV?$StrTraitMFC_DLL@DV?$ChTraitsCRT@D@ATL@@@@@ATL@@QAE@XZ

; 1496 : 	CString strFileName = strText;	

  00149	8d 45 e4	 lea	 eax, DWORD PTR _strText$[ebp]
  0014c	50		 push	 eax
  0014d	8d 4d e0	 lea	 ecx, DWORD PTR _strFileName$[ebp]
  00150	ff 15 00 00 00
	00		 call	 DWORD PTR __imp_??0?$CStringT@DV?$StrTraitMFC_DLL@DV?$ChTraitsCRT@D@ATL@@@@@ATL@@QAE@ABV01@@Z
; File C:\Program Files (x86)\Microsoft Visual Studio\2019\Community\VC\Tools\MSVC\14.29.30133\atlmfc\include\afxcoll.inl

; 321  : 		SetAtGrow(nIndex, newElement);

  00156	8d 45 e0	 lea	 eax, DWORD PTR _strFileName$[ebp]
; File D:\git\src\IBK\IBK_DRFN\ProjSrc\SrcDrfn\Chart\MULTICHART\TabSystemTradingEx.cpp

; 1496 : 	CString strFileName = strText;	

  00159	c6 45 fc 0a	 mov	 BYTE PTR __$EHRec$[ebp+8], 10 ; 0000000aH
; File C:\Program Files (x86)\Microsoft Visual Studio\2019\Community\VC\Tools\MSVC\14.29.30133\atlmfc\include\afxcoll.inl

; 321  : 		SetAtGrow(nIndex, newElement);

  0015d	50		 push	 eax
  0015e	ff 75 d0	 push	 DWORD PTR _strArrayName$[ebp+8]
  00161	8d 4d c8	 lea	 ecx, DWORD PTR _strArrayName$[ebp]
  00164	e8 00 00 00 00	 call	 ?SetAtGrow@CStringArray@@QAEXHABV?$CStringT@DV?$StrTraitMFC_DLL@DV?$ChTraitsCRT@D@ATL@@@@@ATL@@@Z ; CStringArray::SetAtGrow
  00169	8d 45 dc	 lea	 eax, DWORD PTR _strFilePathName$[ebp]
  0016c	50		 push	 eax
  0016d	ff 75 d0	 push	 DWORD PTR _strArrayName$[ebp+8]
  00170	8d 4d c8	 lea	 ecx, DWORD PTR _strArrayName$[ebp]
  00173	e8 00 00 00 00	 call	 ?SetAtGrow@CStringArray@@QAEXHABV?$CStringT@DV?$StrTraitMFC_DLL@DV?$ChTraitsCRT@D@ATL@@@@@ATL@@@Z ; CStringArray::SetAtGrow
; File D:\git\src\IBK\IBK_DRFN\ProjSrc\SrcDrfn\Chart\MULTICHART\TabSystemTradingEx.cpp

; 1500 : 	if(m_pChartMng->GetSafeHwnd())

  00178	8b 87 c4 00 00
	00		 mov	 eax, DWORD PTR [edi+196]
; File C:\Program Files (x86)\Microsoft Visual Studio\2019\Community\VC\Tools\MSVC\14.29.30133\atlmfc\include\afxwin2.inl

; 25   : 	{ return this == NULL ? NULL : m_hWnd; }

  0017e	85 c0		 test	 eax, eax
  00180	74 19		 je	 SHORT $LN2@Run_STDLL
  00182	8b 40 20	 mov	 eax, DWORD PTR [eax+32]
; File D:\git\src\IBK\IBK_DRFN\ProjSrc\SrcDrfn\Chart\MULTICHART\TabSystemTradingEx.cpp

; 1500 : 	if(m_pChartMng->GetSafeHwnd())

  00185	85 c0		 test	 eax, eax
  00187	74 12		 je	 SHORT $LN2@Run_STDLL
; File C:\Program Files (x86)\Microsoft Visual Studio\2019\Community\VC\Tools\MSVC\14.29.30133\atlmfc\include\afxwin2.inl

; 32   : 	{ ASSERT(::IsWindow(m_hWnd)); return ::SendMessage(m_hWnd, message, wParam, lParam); }

  00189	6a 00		 push	 0
  0018b	8d 4d c8	 lea	 ecx, DWORD PTR _strArrayName$[ebp]
  0018e	51		 push	 ecx
  0018f	68 be 04 00 00	 push	 1214			; 000004beH
  00194	50		 push	 eax
  00195	ff 15 00 00 00
	00		 call	 DWORD PTR __imp__SendMessageA@16
$LN2@Run_STDLL:
; File D:\git\src\IBK\IBK_DRFN\ProjSrc\SrcDrfn\Chart\MULTICHART\TabSystemTradingEx.cpp

; 1503 : 	return TRUE;

  0019b	8d 4d e0	 lea	 ecx, DWORD PTR _strFileName$[ebp]
  0019e	ff 15 00 00 00
	00		 call	 DWORD PTR __imp_??1?$CStringT@DV?$StrTraitMFC_DLL@DV?$ChTraitsCRT@D@ATL@@@@@ATL@@QAE@XZ
  001a4	8d 4d dc	 lea	 ecx, DWORD PTR _strFilePathName$[ebp]
  001a7	ff 15 00 00 00
	00		 call	 DWORD PTR __imp_??1?$CStringT@DV?$StrTraitMFC_DLL@DV?$ChTraitsCRT@D@ATL@@@@@ATL@@QAE@XZ
  001ad	8d 4d c8	 lea	 ecx, DWORD PTR _strArrayName$[ebp]
  001b0	e8 00 00 00 00	 call	 ??1CStringArray@@UAE@XZ	; CStringArray::~CStringArray
  001b5	8d 4d e8	 lea	 ecx, DWORD PTR _strUserPath$[ebp]
  001b8	ff 15 00 00 00
	00		 call	 DWORD PTR __imp_??1?$CStringT@DV?$StrTraitMFC_DLL@DV?$ChTraitsCRT@D@ATL@@@@@ATL@@QAE@XZ
  001be	8d 4d e4	 lea	 ecx, DWORD PTR _strText$[ebp]
  001c1	ff 15 00 00 00
	00		 call	 DWORD PTR __imp_??1?$CStringT@DV?$StrTraitMFC_DLL@DV?$ChTraitsCRT@D@ATL@@@@@ATL@@QAE@XZ
  001c7	b8 01 00 00 00	 mov	 eax, 1

; 1504 : }

  001cc	8b 4d f4	 mov	 ecx, DWORD PTR __$EHRec$[ebp]
  001cf	64 89 0d 00 00
	00 00		 mov	 DWORD PTR fs:0, ecx
  001d6	59		 pop	 ecx
  001d7	5f		 pop	 edi
  001d8	5e		 pop	 esi
  001d9	8b e5		 mov	 esp, ebp
  001db	5d		 pop	 ebp
  001dc	c2 04 00	 ret	 4
_TEXT	ENDS
;	COMDAT text$x
text$x	SEGMENT
__unwindfunclet$?Run_STDLL@CTabSystemTradingEx@@QAEHPBD@Z$0:
  00000	8d 4d e4	 lea	 ecx, DWORD PTR _strText$[ebp]
  00003	ff 25 00 00 00
	00		 jmp	 DWORD PTR __imp_??1?$CStringT@DV?$StrTraitMFC_DLL@DV?$ChTraitsCRT@D@ATL@@@@@ATL@@QAE@XZ
__unwindfunclet$?Run_STDLL@CTabSystemTradingEx@@QAEHPBD@Z$8:
  00009	8b 45 f0	 mov	 eax, DWORD PTR $T3[ebp]
  0000c	83 e0 01	 and	 eax, 1
  0000f	0f 84 0d 00 00
	00		 je	 $LN15@Run_STDLL
  00015	83 65 f0 fe	 and	 DWORD PTR $T3[ebp], -2	; fffffffeH
  00019	8d 4d 08	 lea	 ecx, DWORD PTR $T5[ebp]
  0001c	ff 25 00 00 00
	00		 jmp	 DWORD PTR __imp_??1?$CStringT@DV?$StrTraitMFC_DLL@DV?$ChTraitsCRT@D@ATL@@@@@ATL@@QAE@XZ
$LN15@Run_STDLL:
  00022	c3		 ret	 0
__unwindfunclet$?Run_STDLL@CTabSystemTradingEx@@QAEHPBD@Z$2:
  00023	8d 4d e8	 lea	 ecx, DWORD PTR _strUserPath$[ebp]
  00026	ff 25 00 00 00
	00		 jmp	 DWORD PTR __imp_??1?$CStringT@DV?$StrTraitMFC_DLL@DV?$ChTraitsCRT@D@ATL@@@@@ATL@@QAE@XZ
__unwindfunclet$?Run_STDLL@CTabSystemTradingEx@@QAEHPBD@Z$3:
  0002c	8d 4d c8	 lea	 ecx, DWORD PTR _strArrayName$[ebp]
  0002f	e9 00 00 00 00	 jmp	 ??1CStringArray@@UAE@XZ	; CStringArray::~CStringArray
__unwindfunclet$?Run_STDLL@CTabSystemTradingEx@@QAEHPBD@Z$10:
  00034	8b 45 f0	 mov	 eax, DWORD PTR $T3[ebp]
  00037	83 e0 04	 and	 eax, 4
  0003a	0f 84 0d 00 00
	00		 je	 $LN41@Run_STDLL
  00040	83 65 f0 fb	 and	 DWORD PTR $T3[ebp], -5	; fffffffbH
  00044	8d 4d 08	 lea	 ecx, DWORD PTR $T4[ebp]
  00047	ff 25 00 00 00
	00		 jmp	 DWORD PTR __imp_??1?$CStringT@DV?$StrTraitMFC_DLL@DV?$ChTraitsCRT@D@ATL@@@@@ATL@@QAE@XZ
$LN41@Run_STDLL:
  0004d	c3		 ret	 0
__unwindfunclet$?Run_STDLL@CTabSystemTradingEx@@QAEHPBD@Z$11:
  0004e	8b 45 f0	 mov	 eax, DWORD PTR $T3[ebp]
  00051	83 e0 08	 and	 eax, 8
  00054	0f 84 0d 00 00
	00		 je	 $LN54@Run_STDLL
  0005a	83 65 f0 f7	 and	 DWORD PTR $T3[ebp], -9	; fffffff7H
  0005e	8d 4d ec	 lea	 ecx, DWORD PTR $T2[ebp]
  00061	ff 25 00 00 00
	00		 jmp	 DWORD PTR __imp_??1?$CStringT@DV?$StrTraitMFC_DLL@DV?$ChTraitsCRT@D@ATL@@@@@ATL@@QAE@XZ
$LN54@Run_STDLL:
  00067	c3		 ret	 0
__unwindfunclet$?Run_STDLL@CTabSystemTradingEx@@QAEHPBD@Z$6:
  00068	8d 4d dc	 lea	 ecx, DWORD PTR _strFilePathName$[ebp]
  0006b	ff 25 00 00 00
	00		 jmp	 DWORD PTR __imp_??1?$CStringT@DV?$StrTraitMFC_DLL@DV?$ChTraitsCRT@D@ATL@@@@@ATL@@QAE@XZ
__unwindfunclet$?Run_STDLL@CTabSystemTradingEx@@QAEHPBD@Z$7:
  00071	8d 4d e0	 lea	 ecx, DWORD PTR _strFileName$[ebp]
  00074	ff 25 00 00 00
	00		 jmp	 DWORD PTR __imp_??1?$CStringT@DV?$StrTraitMFC_DLL@DV?$ChTraitsCRT@D@ATL@@@@@ATL@@QAE@XZ
  0007a	cc		 int	 3
  0007b	cc		 int	 3
  0007c	cc		 int	 3
  0007d	cc		 int	 3
  0007e	cc		 int	 3
__ehhandler$?Run_STDLL@CTabSystemTradingEx@@QAEHPBD@Z:
  0007f	90		 npad	 1
  00080	90		 npad	 1
  00081	8b 54 24 08	 mov	 edx, DWORD PTR [esp+8]
  00085	8d 42 0c	 lea	 eax, DWORD PTR [edx+12]
  00088	8b 4a c8	 mov	 ecx, DWORD PTR [edx-56]
  0008b	33 c8		 xor	 ecx, eax
  0008d	e8 00 00 00 00	 call	 @__security_check_cookie@4
  00092	b8 00 00 00 00	 mov	 eax, OFFSET __ehfuncinfo$?Run_STDLL@CTabSystemTradingEx@@QAEHPBD@Z
  00097	e9 00 00 00 00	 jmp	 ___CxxFrameHandler3
text$x	ENDS
?Run_STDLL@CTabSystemTradingEx@@QAEHPBD@Z ENDP		; CTabSystemTradingEx::Run_STDLL
; Function compile flags: /Ogtp
; File D:\git\src\IBK\IBK_DRFN\ProjSrc\SrcDrfn\Chart\MULTICHART\TabSystemTradingEx.cpp
;	COMDAT ?STClear@CTabSystemTradingEx@@QAEXXZ
_TEXT	SEGMENT
?STClear@CTabSystemTradingEx@@QAEXXZ PROC		; CTabSystemTradingEx::STClear, COMDAT
; _this$ = ecx

; 1508 : {

  00000	55		 push	 ebp
  00001	8b ec		 mov	 ebp, esp
  00003	51		 push	 ecx
  00004	56		 push	 esi
  00005	8b f1		 mov	 esi, ecx
  00007	57		 push	 edi

; 1509 : 	m_xSTAnalysisInput.m_Info.nSTType		= -1;
; 1510 : 	m_xSTAnalysisInput.m_Info.szSTName		= "";

  00008	68 00 00 00 00	 push	 OFFSET ??_C@_00CNPNBAHC@@
  0000d	8d 8e 7c 09 00
	00		 lea	 ecx, DWORD PTR [esi+2428]
  00013	c7 86 84 09 00
	00 ff ff ff ff	 mov	 DWORD PTR [esi+2436], -1
  0001d	ff 15 00 00 00
	00		 call	 DWORD PTR __imp_??4?$CStringT@DV?$StrTraitMFC_DLL@DV?$ChTraitsCRT@D@ATL@@@@@ATL@@QAEAAV01@PBD@Z

; 1511 : 	m_xSTAnalysisInput.m_Info.szSTPath		= "";

  00023	68 00 00 00 00	 push	 OFFSET ??_C@_00CNPNBAHC@@
  00028	8d 8e 80 09 00
	00		 lea	 ecx, DWORD PTR [esi+2432]
  0002e	ff 15 00 00 00
	00		 call	 DWORD PTR __imp_??4?$CStringT@DV?$StrTraitMFC_DLL@DV?$ChTraitsCRT@D@ATL@@@@@ATL@@QAEAAV01@PBD@Z

; 1512 : 	m_xSTAnalysisInput.m_Info.szSTRData		= "";	

  00034	68 00 00 00 00	 push	 OFFSET ??_C@_00CNPNBAHC@@
  00039	8d 8e 78 09 00
	00		 lea	 ecx, DWORD PTR [esi+2424]
  0003f	ff 15 00 00 00
	00		 call	 DWORD PTR __imp_??4?$CStringT@DV?$StrTraitMFC_DLL@DV?$ChTraitsCRT@D@ATL@@@@@ATL@@QAEAAV01@PBD@Z

; 1513 : 	m_xSTAnalysisInput.m_Info.nFolderIndx	= -1;
; 1514 : 	m_xSTAnalysisInput.m_Info.nItemIndx		= -1;	
; 1515 : 
; 1516 : 	CChartItem* pCItem = ((CChartMng*)m_pChartMng)->GetpChartItemSelected();

  00045	8b 8e c4 00 00
	00		 mov	 ecx, DWORD PTR [esi+196]
  0004b	c7 86 88 09 00
	00 ff ff ff ff	 mov	 DWORD PTR [esi+2440], -1
  00055	c7 86 8c 09 00
	00 ff ff ff ff	 mov	 DWORD PTR [esi+2444], -1
  0005f	e8 00 00 00 00	 call	 ?GetpChartItemSelected@CChartMng@@QAEPAVCChartItem@@XZ ; CChartMng::GetpChartItemSelected
  00064	8b f8		 mov	 edi, eax

; 1517 : 	if(pCItem)

  00066	85 ff		 test	 edi, edi
  00068	74 24		 je	 SHORT $LN2@STClear

; 1518 : 	{
; 1519 : 		pCItem->SetSTRunSTPath("");

  0006a	51		 push	 ecx
  0006b	8b cc		 mov	 ecx, esp
  0006d	68 00 00 00 00	 push	 OFFSET ??_C@_00CNPNBAHC@@
  00072	ff 15 00 00 00
	00		 call	 DWORD PTR __imp_??0?$CStringT@DV?$StrTraitMFC_DLL@DV?$ChTraitsCRT@D@ATL@@@@@ATL@@QAE@PBD@Z
  00078	8b cf		 mov	 ecx, edi
  0007a	e8 00 00 00 00	 call	 ?SetSTRunSTPath@CChartItem@@QAEXV?$CStringT@DV?$StrTraitMFC_DLL@DV?$ChTraitsCRT@D@ATL@@@@@ATL@@@Z ; CChartItem::SetSTRunSTPath

; 1520 : 		pCItem->InvokeAddInSTIndex("ChartSTIndexAddIn.dll", 7, (long)this);

  0007f	56		 push	 esi
  00080	6a 07		 push	 7
  00082	68 00 00 00 00	 push	 OFFSET ??_C@_0BG@CHJJKIAP@ChartSTIndexAddIn?4dll@
  00087	8b cf		 mov	 ecx, edi
  00089	e8 00 00 00 00	 call	 ?InvokeAddInSTIndex@CChartItem@@QAEHPBDFJ@Z ; CChartItem::InvokeAddInSTIndex
$LN2@STClear:

; 1521 : 	}
; 1522 : }

  0008e	5f		 pop	 edi
  0008f	5e		 pop	 esi
  00090	8b e5		 mov	 esp, ebp
  00092	5d		 pop	 ebp
  00093	c3		 ret	 0
?STClear@CTabSystemTradingEx@@QAEXXZ ENDP		; CTabSystemTradingEx::STClear
_TEXT	ENDS
; Function compile flags: /Ogtp
; File D:\git\src\IBK\IBK_DRFN\ProjSrc\SrcDrfn\Chart\MULTICHART\TabSystemTradingEx.cpp
;	COMDAT ?HideStOptimaA@CTabSystemTradingEx@@QAEXXZ
_TEXT	SEGMENT
?HideStOptimaA@CTabSystemTradingEx@@QAEXXZ PROC		; CTabSystemTradingEx::HideStOptimaA, COMDAT
; _this$ = ecx

; 513  : 	ShowHideStOptimaA(TRUE, FALSE);		// bChange=TRUE, bShowOption=FALSE

  00000	6a 00		 push	 0
  00002	6a 00		 push	 0
  00004	6a 01		 push	 1
  00006	e8 00 00 00 00	 call	 ?ShowHideStOptimaA@CTabSystemTradingEx@@QAEXHHH@Z ; CTabSystemTradingEx::ShowHideStOptimaA

; 514  : }

  0000b	c3		 ret	 0
?HideStOptimaA@CTabSystemTradingEx@@QAEXXZ ENDP		; CTabSystemTradingEx::HideStOptimaA
_TEXT	ENDS
; Function compile flags: /Ogtp
; File D:\git\src\IBK\IBK_DRFN\ProjSrc\SrcDrfn\Chart\MULTICHART\TabSystemTradingEx.cpp
; File C:\Program Files (x86)\Microsoft Visual Studio\2019\Community\VC\Tools\MSVC\14.29.30133\atlmfc\include\atltypes.h
; File D:\git\src\IBK\IBK_DRFN\ProjSrc\SrcDrfn\Chart\MULTICHART\TabSystemTradingEx.cpp
; File C:\Program Files (x86)\Microsoft Visual Studio\2019\Community\VC\Tools\MSVC\14.29.30133\atlmfc\include\atltypes.h
; File D:\git\src\IBK\IBK_DRFN\ProjSrc\SrcDrfn\Chart\MULTICHART\TabSystemTradingEx.cpp
; File C:\Program Files (x86)\Microsoft Visual Studio\2019\Community\VC\Tools\MSVC\14.29.30133\atlmfc\include\afxwin2.inl
; File D:\git\src\IBK\IBK_DRFN\ProjSrc\SrcDrfn\Chart\MULTICHART\TabSystemTradingEx.cpp
; File C:\Program Files (x86)\Microsoft Visual Studio\2019\Community\VC\Tools\MSVC\14.29.30133\atlmfc\include\afxwin2.inl
; File D:\git\src\IBK\IBK_DRFN\ProjSrc\SrcDrfn\Chart\MULTICHART\TabSystemTradingEx.cpp
; File C:\Program Files (x86)\Microsoft Visual Studio\2019\Community\VC\Tools\MSVC\14.29.30133\atlmfc\include\afxwin2.inl
; File D:\git\src\IBK\IBK_DRFN\ProjSrc\SrcDrfn\Chart\MULTICHART\TabSystemTradingEx.cpp
; File C:\Program Files (x86)\Microsoft Visual Studio\2019\Community\VC\Tools\MSVC\14.29.30133\atlmfc\include\afxwin2.inl
; File D:\git\src\IBK\IBK_DRFN\ProjSrc\SrcDrfn\Chart\MULTICHART\TabSystemTradingEx.cpp
; File C:\Program Files (x86)\Microsoft Visual Studio\2019\Community\VC\Tools\MSVC\14.29.30133\atlmfc\include\afx.inl
; File D:\git\src\IBK\IBK_DRFN\ProjSrc\SrcDrfn\Chart\MULTICHART\TabSystemTradingEx.cpp
; File C:\Program Files (x86)\Microsoft Visual Studio\2019\Community\VC\Tools\MSVC\14.29.30133\atlmfc\include\afxwin2.inl
; File D:\git\src\IBK\IBK_DRFN\ProjSrc\SrcDrfn\Chart\MULTICHART\TabSystemTradingEx.cpp
;	COMDAT ?ShowHideStOptimaA@CTabSystemTradingEx@@QAEXHHH@Z
_TEXT	SEGMENT
__ctlState$2 = -60					; size = 8
$T3 = -52						; size = 4
_rc1$ = -48						; size = 16
_rc2$ = -32						; size = 16
__$ArrayPad$ = -16					; size = 4
__$EHRec$ = -12						; size = 12
_bChange$ = 8						; size = 4
_bShopOption$ = 12					; size = 4
_nOffset$ = 16						; size = 4
?ShowHideStOptimaA@CTabSystemTradingEx@@QAEXHHH@Z PROC	; CTabSystemTradingEx::ShowHideStOptimaA, COMDAT
; _this$ = ecx

; 427  : {

  00000	55		 push	 ebp
  00001	8b ec		 mov	 ebp, esp
  00003	6a ff		 push	 -1
  00005	68 00 00 00 00	 push	 __ehhandler$?ShowHideStOptimaA@CTabSystemTradingEx@@QAEXHHH@Z
  0000a	64 a1 00 00 00
	00		 mov	 eax, DWORD PTR fs:0
  00010	50		 push	 eax
  00011	83 ec 30	 sub	 esp, 48			; 00000030H
  00014	a1 00 00 00 00	 mov	 eax, DWORD PTR ___security_cookie
  00019	33 c5		 xor	 eax, ebp
  0001b	89 45 f0	 mov	 DWORD PTR __$ArrayPad$[ebp], eax
  0001e	56		 push	 esi
  0001f	57		 push	 edi
  00020	50		 push	 eax
  00021	8d 45 f4	 lea	 eax, DWORD PTR __$EHRec$[ebp]
  00024	64 a3 00 00 00
	00		 mov	 DWORD PTR fs:0, eax
  0002a	8b f9		 mov	 edi, ecx

; 428  : 	if(bChange)	m_bShowOption = bShopOption;

  0002c	83 7d 08 00	 cmp	 DWORD PTR _bChange$[ebp], 0
  00030	74 05		 je	 SHORT $LN2@ShowHideSt
  00032	8b 45 0c	 mov	 eax, DWORD PTR _bShopOption$[ebp]
  00035	eb 0b		 jmp	 SHORT $LN3@ShowHideSt
$LN2@ShowHideSt:

; 429  : 	else m_bShowOption = !m_bShowOption;

  00037	33 c0		 xor	 eax, eax
  00039	39 87 bc 07 00
	00		 cmp	 DWORD PTR [edi+1980], eax
  0003f	0f 94 c0	 sete	 al
$LN3@ShowHideSt:
  00042	0f 57 c0	 xorps	 xmm0, xmm0
; File C:\Program Files (x86)\Microsoft Visual Studio\2019\Community\VC\Tools\MSVC\14.29.30133\atlmfc\include\atltypes.h

; 528  : 	left = 0;

  00045	89 87 bc 07 00
	00		 mov	 DWORD PTR [edi+1980], eax
; File D:\git\src\IBK\IBK_DRFN\ProjSrc\SrcDrfn\Chart\MULTICHART\TabSystemTradingEx.cpp

; 432  : 	GetDlgItem(IDC_STFRAME1)->GetWindowRect(rc1);

  0004b	68 78 18 00 00	 push	 6264			; 00001878H
; File C:\Program Files (x86)\Microsoft Visual Studio\2019\Community\VC\Tools\MSVC\14.29.30133\atlmfc\include\atltypes.h

; 528  : 	left = 0;

  00050	0f 11 45 d0	 movups	 XMMWORD PTR _rc1$[ebp], xmm0
  00054	0f 11 45 e0	 movups	 XMMWORD PTR _rc2$[ebp], xmm0
; File D:\git\src\IBK\IBK_DRFN\ProjSrc\SrcDrfn\Chart\MULTICHART\TabSystemTradingEx.cpp

; 432  : 	GetDlgItem(IDC_STFRAME1)->GetWindowRect(rc1);

  00058	e8 00 00 00 00	 call	 ?GetDlgItem@CWnd@@QBEPAV1@H@Z ; CWnd::GetDlgItem
; File C:\Program Files (x86)\Microsoft Visual Studio\2019\Community\VC\Tools\MSVC\14.29.30133\atlmfc\include\afxwin2.inl

; 84   : 	{ ASSERT(::IsWindow(m_hWnd)); ::GetWindowRect(m_hWnd, lpRect); }

  0005d	8b 35 00 00 00
	00		 mov	 esi, DWORD PTR __imp__GetWindowRect@8
  00063	8d 4d d0	 lea	 ecx, DWORD PTR _rc1$[ebp]
  00066	51		 push	 ecx
  00067	ff 70 20	 push	 DWORD PTR [eax+32]
  0006a	ff d6		 call	 esi
; File D:\git\src\IBK\IBK_DRFN\ProjSrc\SrcDrfn\Chart\MULTICHART\TabSystemTradingEx.cpp

; 433  : 	GetDlgItem(IDC_STFRAME2)->GetWindowRect(rc2);

  0006c	68 b1 17 00 00	 push	 6065			; 000017b1H
  00071	8b cf		 mov	 ecx, edi
  00073	e8 00 00 00 00	 call	 ?GetDlgItem@CWnd@@QBEPAV1@H@Z ; CWnd::GetDlgItem
; File C:\Program Files (x86)\Microsoft Visual Studio\2019\Community\VC\Tools\MSVC\14.29.30133\atlmfc\include\afxwin2.inl

; 84   : 	{ ASSERT(::IsWindow(m_hWnd)); ::GetWindowRect(m_hWnd, lpRect); }

  00078	8d 4d e0	 lea	 ecx, DWORD PTR _rc2$[ebp]
  0007b	51		 push	 ecx
  0007c	ff 70 20	 push	 DWORD PTR [eax+32]
  0007f	ff d6		 call	 esi
; File D:\git\src\IBK\IBK_DRFN\ProjSrc\SrcDrfn\Chart\MULTICHART\TabSystemTradingEx.cpp

; 434  : 	rc2.left+=nOffset; rc2.right+=nOffset;

  00081	8b 4d e8	 mov	 ecx, DWORD PTR _rc2$[ebp+8]
  00084	8b 45 10	 mov	 eax, DWORD PTR _nOffset$[ebp]
  00087	03 c8		 add	 ecx, eax
  00089	01 45 e0	 add	 DWORD PTR _rc2$[ebp], eax

; 435  : 
; 436  : 	rc1.right = rc2.right;
; 437  : 	if(m_bShowOption)

  0008c	83 bf bc 07 00
	00 00		 cmp	 DWORD PTR [edi+1980], 0
  00093	89 4d e8	 mov	 DWORD PTR _rc2$[ebp+8], ecx
  00096	89 4d d8	 mov	 DWORD PTR _rc1$[ebp+8], ecx
  00099	8b 8f c0 07 00
	00		 mov	 ecx, DWORD PTR [edi+1984]
  0009f	74 0e		 je	 SHORT $LN4@ShowHideSt

; 438  : 	{
; 439  : 		rc2.top = rc1.bottom;

  000a1	8b 45 dc	 mov	 eax, DWORD PTR _rc1$[ebp+12]
  000a4	89 45 e4	 mov	 DWORD PTR _rc2$[ebp+4], eax

; 440  : 		if(m_pDlgOption) m_pDlgOption->ShowWindow(SW_SHOW);

  000a7	85 c9		 test	 ecx, ecx
  000a9	74 15		 je	 SHORT $LN7@ShowHideSt
  000ab	6a 05		 push	 5

; 441  : 	}

  000ad	eb 0c		 jmp	 SHORT $LN43@ShowHideSt
$LN4@ShowHideSt:

; 442  : 	else 
; 443  : 	{
; 444  : 		rc2.top = rc1.top;

  000af	8b 45 d4	 mov	 eax, DWORD PTR _rc1$[ebp+4]
  000b2	89 45 e4	 mov	 DWORD PTR _rc2$[ebp+4], eax

; 445  : 		if(m_pDlgOption)

  000b5	85 c9		 test	 ecx, ecx
  000b7	74 07		 je	 SHORT $LN7@ShowHideSt

; 446  : 		{
; 447  : 			m_pDlgOption->ShowWindow(SW_HIDE);

  000b9	6a 00		 push	 0
$LN43@ShowHideSt:

; 448  : 		}
; 449  : 	}
; 450  : 	ScreenToClient(rc1);

  000bb	e8 00 00 00 00	 call	 ?ShowWindow@CWnd@@QAEHH@Z ; CWnd::ShowWindow
$LN7@ShowHideSt:
  000c0	8d 45 d0	 lea	 eax, DWORD PTR _rc1$[ebp]
  000c3	8b cf		 mov	 ecx, edi
  000c5	50		 push	 eax
  000c6	e8 00 00 00 00	 call	 ?ScreenToClient@CWnd@@QBEXPAUtagRECT@@@Z ; CWnd::ScreenToClient

; 451  : 	ScreenToClient(rc2);

  000cb	8d 45 e0	 lea	 eax, DWORD PTR _rc2$[ebp]
  000ce	8b cf		 mov	 ecx, edi
  000d0	50		 push	 eax
  000d1	e8 00 00 00 00	 call	 ?ScreenToClient@CWnd@@QBEXPAUtagRECT@@@Z ; CWnd::ScreenToClient

; 452  : 	GetDlgItem(IDC_STFRAME2)->MoveWindow(rc2);

  000d6	68 b1 17 00 00	 push	 6065			; 000017b1H
  000db	8b cf		 mov	 ecx, edi
  000dd	e8 00 00 00 00	 call	 ?GetDlgItem@CWnd@@QBEPAV1@H@Z ; CWnd::GetDlgItem
; File C:\Program Files (x86)\Microsoft Visual Studio\2019\Community\VC\Tools\MSVC\14.29.30133\atlmfc\include\afxwin2.inl

; 73   : 	{ MoveWindow(lpRect->left, lpRect->top, lpRect->right - lpRect->left,

  000e2	8b 4d ec	 mov	 ecx, DWORD PTR _rc2$[ebp+12]
  000e5	8b 75 e4	 mov	 esi, DWORD PTR _rc2$[ebp+4]
  000e8	2b ce		 sub	 ecx, esi
  000ea	8b 55 e0	 mov	 edx, DWORD PTR _rc2$[ebp]
  000ed	6a 01		 push	 1
  000ef	51		 push	 ecx
  000f0	8b 4d e8	 mov	 ecx, DWORD PTR _rc2$[ebp+8]
  000f3	2b ca		 sub	 ecx, edx
  000f5	51		 push	 ecx
  000f6	56		 push	 esi
  000f7	52		 push	 edx
  000f8	8b c8		 mov	 ecx, eax
  000fa	e8 00 00 00 00	 call	 ?MoveWindow@CWnd@@QAEXHHHHH@Z ; CWnd::MoveWindow
; File D:\git\src\IBK\IBK_DRFN\ProjSrc\SrcDrfn\Chart\MULTICHART\TabSystemTradingEx.cpp

; 453  : 	CWnd* pWndOutBar = m_pWndOutBar ? m_pWndOutBar->GetCoutBarCtrl() : NULL;

  000ff	8b 8f 18 08 00
	00		 mov	 ecx, DWORD PTR [edi+2072]
  00105	85 c9		 test	 ecx, ecx
  00107	74 2e		 je	 SHORT $LN8@ShowHideSt
  00109	8b 01		 mov	 eax, DWORD PTR [ecx]
  0010b	51		 push	 ecx
  0010c	ff 10		 call	 DWORD PTR [eax]
  0010e	8b f0		 mov	 esi, eax

; 454  : 	if(pWndOutBar && pWndOutBar->GetSafeHwnd())

  00110	85 f6		 test	 esi, esi
  00112	74 23		 je	 SHORT $LN8@ShowHideSt
  00114	83 7e 20 00	 cmp	 DWORD PTR [esi+32], 0
  00118	74 1d		 je	 SHORT $LN8@ShowHideSt
; File C:\Program Files (x86)\Microsoft Visual Studio\2019\Community\VC\Tools\MSVC\14.29.30133\atlmfc\include\afxwin2.inl

; 73   : 	{ MoveWindow(lpRect->left, lpRect->top, lpRect->right - lpRect->left,

  0011a	8b 4d ec	 mov	 ecx, DWORD PTR _rc2$[ebp+12]
  0011d	8b 55 e4	 mov	 edx, DWORD PTR _rc2$[ebp+4]
  00120	2b ca		 sub	 ecx, edx
  00122	8b 45 e8	 mov	 eax, DWORD PTR _rc2$[ebp+8]
  00125	6a 01		 push	 1
  00127	51		 push	 ecx
  00128	8b 4d e0	 mov	 ecx, DWORD PTR _rc2$[ebp]
  0012b	2b c1		 sub	 eax, ecx
  0012d	50		 push	 eax
  0012e	52		 push	 edx
  0012f	51		 push	 ecx
  00130	8b ce		 mov	 ecx, esi
  00132	e8 00 00 00 00	 call	 ?MoveWindow@CWnd@@QAEXHHHHH@Z ; CWnd::MoveWindow
$LN8@ShowHideSt:
; File D:\git\src\IBK\IBK_DRFN\ProjSrc\SrcDrfn\Chart\MULTICHART\TabSystemTradingEx.cpp

; 456  : 	if(m_pDlgOption==NULL)

  00137	83 bf c0 07 00
	00 00		 cmp	 DWORD PTR [edi+1984], 0
  0013e	0f 85 d3 00 00
	00		 jne	 $LN9@ShowHideSt
; File C:\Program Files (x86)\Microsoft Visual Studio\2019\Community\VC\Tools\MSVC\14.29.30133\atlmfc\include\afx.inl

; 116  : 	{ return ::operator new(nSize); }

  00144	68 10 08 00 00	 push	 2064			; 00000810H
  00149	e8 00 00 00 00	 call	 ??2@YAPAXI@Z		; operator new
  0014e	83 c4 04	 add	 esp, 4
; File D:\git\src\IBK\IBK_DRFN\ProjSrc\SrcDrfn\Chart\MULTICHART\TabSystemTradingEx.cpp

; 458  : 		m_pDlgOption = new CDlgSTExOption;

  00151	89 45 cc	 mov	 DWORD PTR $T3[ebp], eax
  00154	c7 45 fc 00 00
	00 00		 mov	 DWORD PTR __$EHRec$[ebp+8], 0
  0015b	85 c0		 test	 eax, eax
  0015d	74 0b		 je	 SHORT $LN16@ShowHideSt
  0015f	6a 00		 push	 0
  00161	8b c8		 mov	 ecx, eax
  00163	e8 00 00 00 00	 call	 ??0CDlgSTExOption@@QAE@PAVCWnd@@@Z ; CDlgSTExOption::CDlgSTExOption
  00168	eb 02		 jmp	 SHORT $LN17@ShowHideSt
$LN16@ShowHideSt:
  0016a	33 c0		 xor	 eax, eax
$LN17@ShowHideSt:
  0016c	c7 45 fc ff ff
	ff ff		 mov	 DWORD PTR __$EHRec$[ebp+8], -1
  00173	89 87 c0 07 00
	00		 mov	 DWORD PTR [edi+1984], eax

; 459  : 		AFX_MANAGE_STATE(AfxGetStaticModuleState());

  00179	e8 00 00 00 00	 call	 ?AfxGetStaticModuleState@@YGPAVAFX_MODULE_STATE@@XZ ; AfxGetStaticModuleState
  0017e	50		 push	 eax
  0017f	8d 4d c4	 lea	 ecx, DWORD PTR __ctlState$2[ebp]
  00182	e8 00 00 00 00	 call	 ??0AFX_MAINTAIN_STATE2@@QAE@PAVAFX_MODULE_STATE@@@Z ; AFX_MAINTAIN_STATE2::AFX_MAINTAIN_STATE2

; 460  : 		//HINSTANCE hOld = AfxGetResourceHandle();
; 461  : 		//AfxSetResourceHandle(g_hInstance);
; 462  : 		if(m_pDlgOption->Create(CDlgSTExOption::IDD, this)==FALSE)

  00187	8b 8f c0 07 00
	00		 mov	 ecx, DWORD PTR [edi+1984]
  0018d	57		 push	 edi
  0018e	68 af 17 00 00	 push	 6063			; 000017afH
  00193	c7 45 fc 01 00
	00 00		 mov	 DWORD PTR __$EHRec$[ebp+8], 1
  0019a	8b 01		 mov	 eax, DWORD PTR [ecx]
  0019c	ff 90 6c 01 00
	00		 call	 DWORD PTR [eax+364]
  001a2	85 c0		 test	 eax, eax
  001a4	75 1f		 jne	 SHORT $LN10@ShowHideSt

; 463  : 		{
; 464  : 			SafeDelete(m_pDlgOption);

  001a6	8b 8f c0 07 00
	00		 mov	 ecx, DWORD PTR [edi+1984]
  001ac	85 c9		 test	 ecx, ecx
  001ae	74 07		 je	 SHORT $LN18@ShowHideSt
  001b0	8b 01		 mov	 eax, DWORD PTR [ecx]
  001b2	6a 01		 push	 1
  001b4	ff 50 04	 call	 DWORD PTR [eax+4]
$LN18@ShowHideSt:
  001b7	c7 87 c0 07 00
	00 00 00 00 00	 mov	 DWORD PTR [edi+1984], 0
  001c1	33 c9		 xor	 ecx, ecx

; 465  : 		}

  001c3	eb 27		 jmp	 SHORT $LN11@ShowHideSt
$LN10@ShowHideSt:
; File C:\Program Files (x86)\Microsoft Visual Studio\2019\Community\VC\Tools\MSVC\14.29.30133\atlmfc\include\afxwin2.inl

; 73   : 	{ MoveWindow(lpRect->left, lpRect->top, lpRect->right - lpRect->left,

  001c5	8b 45 dc	 mov	 eax, DWORD PTR _rc1$[ebp+12]
  001c8	8b 55 d4	 mov	 edx, DWORD PTR _rc1$[ebp+4]
  001cb	2b c2		 sub	 eax, edx
  001cd	8b 4d d0	 mov	 ecx, DWORD PTR _rc1$[ebp]
  001d0	6a 01		 push	 1
  001d2	50		 push	 eax
  001d3	8b 45 d8	 mov	 eax, DWORD PTR _rc1$[ebp+8]
  001d6	2b c1		 sub	 eax, ecx
  001d8	50		 push	 eax
  001d9	52		 push	 edx
  001da	51		 push	 ecx
  001db	8b 8f c0 07 00
	00		 mov	 ecx, DWORD PTR [edi+1984]
  001e1	e8 00 00 00 00	 call	 ?MoveWindow@CWnd@@QAEXHHHHH@Z ; CWnd::MoveWindow
  001e6	8b 8f c0 07 00
	00		 mov	 ecx, DWORD PTR [edi+1984]
$LN11@ShowHideSt:
; File D:\git\src\IBK\IBK_DRFN\ProjSrc\SrcDrfn\Chart\MULTICHART\TabSystemTradingEx.cpp

; 471  : 		m_pDlgOption->ShowWindow(SW_HIDE);

  001ec	6a 00		 push	 0
  001ee	e8 00 00 00 00	 call	 ?ShowWindow@CWnd@@QAEHH@Z ; CWnd::ShowWindow

; 472  : 		GetDlgItem(IDC_STFRAME1)->ShowWindow(SW_HIDE);

  001f3	6a 00		 push	 0
  001f5	68 78 18 00 00	 push	 6264			; 00001878H
  001fa	8b cf		 mov	 ecx, edi
  001fc	e8 00 00 00 00	 call	 ?GetDlgItem@CWnd@@QBEPAV1@H@Z ; CWnd::GetDlgItem
  00201	8b c8		 mov	 ecx, eax
  00203	e8 00 00 00 00	 call	 ?ShowWindow@CWnd@@QAEHH@Z ; CWnd::ShowWindow

; 473  : 		//AfxSetResourceHandle(hOld);
; 474  : 		
; 475  : 	}

  00208	8d 4d c4	 lea	 ecx, DWORD PTR __ctlState$2[ebp]
  0020b	c7 45 fc ff ff
	ff ff		 mov	 DWORD PTR __$EHRec$[ebp+8], -1
  00212	e8 00 00 00 00	 call	 ??1AFX_MAINTAIN_STATE2@@QAE@XZ ; AFX_MAINTAIN_STATE2::~AFX_MAINTAIN_STATE2
$LN9@ShowHideSt:

; 476  : 
; 477  : 	RecalcLayout();

  00217	8b cf		 mov	 ecx, edi
  00219	e8 00 00 00 00	 call	 ?RecalcLayout@CTabSystemTradingEx@@QAEXXZ ; CTabSystemTradingEx::RecalcLayout

; 478  : }

  0021e	8b 4d f4	 mov	 ecx, DWORD PTR __$EHRec$[ebp]
  00221	64 89 0d 00 00
	00 00		 mov	 DWORD PTR fs:0, ecx
  00228	59		 pop	 ecx
  00229	5f		 pop	 edi
  0022a	5e		 pop	 esi
  0022b	8b 4d f0	 mov	 ecx, DWORD PTR __$ArrayPad$[ebp]
  0022e	33 cd		 xor	 ecx, ebp
  00230	e8 00 00 00 00	 call	 @__security_check_cookie@4
  00235	8b e5		 mov	 esp, ebp
  00237	5d		 pop	 ebp
  00238	c2 0c 00	 ret	 12			; 0000000cH
_TEXT	ENDS
;	COMDAT text$x
text$x	SEGMENT
__unwindfunclet$?ShowHideStOptimaA@CTabSystemTradingEx@@QAEXHHH@Z$0:
  00000	8b 45 cc	 mov	 eax, DWORD PTR $T3[ebp]
  00003	50		 push	 eax
  00004	e8 00 00 00 00	 call	 ??3CObject@@SGXPAX@Z	; CObject::operator delete
  00009	c3		 ret	 0
__unwindfunclet$?ShowHideStOptimaA@CTabSystemTradingEx@@QAEXHHH@Z$1:
  0000a	8d 4d c4	 lea	 ecx, DWORD PTR __ctlState$2[ebp]
  0000d	e9 00 00 00 00	 jmp	 ??1AFX_MAINTAIN_STATE2@@QAE@XZ ; AFX_MAINTAIN_STATE2::~AFX_MAINTAIN_STATE2
  00012	cc		 int	 3
  00013	cc		 int	 3
  00014	cc		 int	 3
  00015	cc		 int	 3
  00016	cc		 int	 3
__ehhandler$?ShowHideStOptimaA@CTabSystemTradingEx@@QAEXHHH@Z:
  00017	90		 npad	 1
  00018	90		 npad	 1
  00019	8b 54 24 08	 mov	 edx, DWORD PTR [esp+8]
  0001d	8d 42 0c	 lea	 eax, DWORD PTR [edx+12]
  00020	8b 4a c4	 mov	 ecx, DWORD PTR [edx-60]
  00023	33 c8		 xor	 ecx, eax
  00025	e8 00 00 00 00	 call	 @__security_check_cookie@4
  0002a	8b 4a fc	 mov	 ecx, DWORD PTR [edx-4]
  0002d	33 c8		 xor	 ecx, eax
  0002f	e8 00 00 00 00	 call	 @__security_check_cookie@4
  00034	b8 00 00 00 00	 mov	 eax, OFFSET __ehfuncinfo$?ShowHideStOptimaA@CTabSystemTradingEx@@QAEXHHH@Z
  00039	e9 00 00 00 00	 jmp	 ___CxxFrameHandler3
text$x	ENDS
?ShowHideStOptimaA@CTabSystemTradingEx@@QAEXHHH@Z ENDP	; CTabSystemTradingEx::ShowHideStOptimaA
; Function compile flags: /Ogtp
; File D:\git\src\IBK\IBK_DRFN\ProjSrc\SrcDrfn\Chart\MULTICHART\TabSystemTradingEx.cpp
;	COMDAT ?OnRmsgIsSTRunState@CTabSystemTradingEx@@IAEJIJ@Z
_TEXT	SEGMENT
_wp$ = 8						; size = 4
_lp$ = 12						; size = 4
?OnRmsgIsSTRunState@CTabSystemTradingEx@@IAEJIJ@Z PROC	; CTabSystemTradingEx::OnRmsgIsSTRunState, COMDAT
; _this$ = ecx

; 2338 : {

  00000	55		 push	 ebp
  00001	8b ec		 mov	 ebp, esp

; 2339 : 	LPCTSTR lpszSTPath = (LPCTSTR)wp;
; 2340 : 	LPCTSTR lpszSTName = (LPCTSTR)lp;
; 2341 : 	return (LONG)IsSTRun(lpszSTPath, lpszSTName, STRun_Type_ST);

  00003	6a 02		 push	 2
  00005	ff 75 0c	 push	 DWORD PTR _lp$[ebp]
  00008	ff 75 08	 push	 DWORD PTR _wp$[ebp]
  0000b	e8 00 00 00 00	 call	 ?IsSTRun@CTabSystemTradingEx@@QAEHPBD0H@Z ; CTabSystemTradingEx::IsSTRun

; 2342 : }

  00010	5d		 pop	 ebp
  00011	c2 08 00	 ret	 8
?OnRmsgIsSTRunState@CTabSystemTradingEx@@IAEJIJ@Z ENDP	; CTabSystemTradingEx::OnRmsgIsSTRunState
_TEXT	ENDS
; Function compile flags: /Ogtp
; File D:\git\src\IBK\IBK_DRFN\ProjSrc\SrcDrfn\Chart\MULTICHART\TabSystemTradingEx.cpp
; File C:\Program Files (x86)\Microsoft Visual Studio\2019\Community\VC\Tools\MSVC\14.29.30133\atlmfc\include\afxtempl.h
; File D:\git\src\IBK\IBK_DRFN\ProjSrc\SrcDrfn\Chart\MULTICHART\TabSystemTradingEx.cpp
; File C:\Program Files (x86)\Microsoft Visual Studio\2019\Community\VC\Tools\MSVC\14.29.30133\atlmfc\include\afxtempl.h
; File D:\git\src\IBK\IBK_DRFN\ProjSrc\SrcDrfn\Chart\MULTICHART\TabSystemTradingEx.cpp
; File C:\Program Files (x86)\Microsoft Visual Studio\2019\Community\VC\Tools\MSVC\14.29.30133\atlmfc\include\afxtempl.h
; File D:\git\src\IBK\IBK_DRFN\ProjSrc\SrcDrfn\Chart\MULTICHART\TabSystemTradingEx.cpp
;	COMDAT ?OnRmsgDestroyConfirmWnd@CTabSystemTradingEx@@IAEJIJ@Z
_TEXT	SEGMENT
_nHashBucket$3 = -4					; size = 4
_nHashValue$4 = 8					; size = 4
_wp$ = 8						; size = 4
_lp$ = 12						; size = 4
?OnRmsgDestroyConfirmWnd@CTabSystemTradingEx@@IAEJIJ@Z PROC ; CTabSystemTradingEx::OnRmsgDestroyConfirmWnd, COMDAT
; _this$ = ecx

; 2316 : {

  00000	55		 push	 ebp
  00001	8b ec		 mov	 ebp, esp
  00003	51		 push	 ecx
  00004	56		 push	 esi
  00005	57		 push	 edi

; 2317 : 	CConfirmWnd* pConfirmWnd = (CConfirmWnd*)wp;
; 2318 : 	if(pConfirmWnd)

  00006	8b 7d 08	 mov	 edi, DWORD PTR _wp$[ebp]
  00009	8b f1		 mov	 esi, ecx
  0000b	85 ff		 test	 edi, edi
  0000d	0f 84 08 01 00
	00		 je	 $LN65@OnRmsgDest
; File C:\Program Files (x86)\Microsoft Visual Studio\2019\Community\VC\Tools\MSVC\14.29.30133\atlmfc\include\afxtempl.h

; 1555 : 	CAssoc* pAssoc = GetAssocAt(key, nHashBucket, nHashValue);

  00013	8d 4d 08	 lea	 ecx, DWORD PTR _nHashValue$4[ebp]
  00016	51		 push	 ecx
  00017	8d 4d fc	 lea	 ecx, DWORD PTR _nHashBucket$3[ebp]
  0001a	51		 push	 ecx
  0001b	57		 push	 edi
  0001c	8d 8e b4 09 00
	00		 lea	 ecx, DWORD PTR [esi+2484]
  00022	e8 00 00 00 00	 call	 ?GetAssocAt@?$CMap@PAVCConfirmWnd@@PAV1@JJ@@IBEPAVCAssoc@1@PAVCConfirmWnd@@AAI1@Z ; CMap<CConfirmWnd *,CConfirmWnd *,long,long>::GetAssocAt

; 1556 : 	if (pAssoc == NULL)

  00027	85 c0		 test	 eax, eax
  00029	0f 84 ec 00 00
	00		 je	 $LN65@OnRmsgDest
; File D:\git\src\IBK\IBK_DRFN\ProjSrc\SrcDrfn\Chart\MULTICHART\TabSystemTradingEx.cpp

; 2323 : 			if(pConfirmWnd->GetSafeHwnd())

  0002f	83 7f 20 00	 cmp	 DWORD PTR [edi+32], 0
  00033	74 07		 je	 SHORT $LN4@OnRmsgDest

; 2324 : 				pConfirmWnd->DestroyWindow();

  00035	8b 07		 mov	 eax, DWORD PTR [edi]
  00037	8b cf		 mov	 ecx, edi
  00039	ff 50 68	 call	 DWORD PTR [eax+104]
$LN4@OnRmsgDest:
; File C:\Program Files (x86)\Microsoft Visual Studio\2019\Community\VC\Tools\MSVC\14.29.30133\atlmfc\include\afxtempl.h

; 1614 : 	if (m_pHashTable == NULL)

  0003c	83 be b8 09 00
	00 00		 cmp	 DWORD PTR [esi+2488], 0
  00043	0f 84 c9 00 00
	00		 je	 $LN64@OnRmsgDest

; 165  : 	ldiv_t HashVal = ldiv((long)(ARG_KEY)key, 127773);

  00049	8b c7		 mov	 eax, edi
  0004b	b9 1d f3 01 00	 mov	 ecx, 127773		; 0001f31dH
  00050	99		 cdq
  00051	f7 f9		 idiv	 ecx
  00053	53		 push	 ebx

; 166  : 	HashVal.rem = 16807 * HashVal.rem - 2836 * HashVal.quot;

  00054	69 c0 14 0b 00
	00		 imul	 eax, eax, 2836
  0005a	69 ca a7 41 00
	00		 imul	 ecx, edx, 16807
  00060	2b c8		 sub	 ecx, eax

; 1620 : 	ppAssocPrev = &m_pHashTable[nHashValue%m_nHashTableSize];

  00062	8d 99 ff ff ff
	7f		 lea	 ebx, DWORD PTR [ecx+2147483647]
  00068	0f 49 d9	 cmovns	 ebx, ecx
  0006b	33 d2		 xor	 edx, edx
  0006d	8b c3		 mov	 eax, ebx
  0006f	f7 b6 bc 09 00
	00		 div	 DWORD PTR [esi+2492]
  00075	8b 86 b8 09 00
	00		 mov	 eax, DWORD PTR [esi+2488]
  0007b	8d 14 90	 lea	 edx, DWORD PTR [eax+edx*4]

; 1621 : 
; 1622 : 	CAssoc* pAssoc;
; 1623 : 	for (pAssoc = *ppAssocPrev; pAssoc != NULL; pAssoc = pAssoc->pNext)

  0007e	8b 02		 mov	 eax, DWORD PTR [edx]
  00080	85 c0		 test	 eax, eax
  00082	0f 84 89 00 00
	00		 je	 $LN67@OnRmsgDest
$LL18@OnRmsgDest:

; 1624 : 	{
; 1625 : 		if ((pAssoc->nHashValue == nHashValue) && CompareElements(&pAssoc->key, &key))

  00088	39 58 0c	 cmp	 DWORD PTR [eax+12], ebx
  0008b	75 04		 jne	 SHORT $LN20@OnRmsgDest

; 156  : 	return *pElement1 == *pElement2;

  0008d	39 38		 cmp	 DWORD PTR [eax], edi

; 1625 : 		if ((pAssoc->nHashValue == nHashValue) && CompareElements(&pAssoc->key, &key))

  0008f	74 1d		 je	 SHORT $LN51@OnRmsgDest
$LN20@OnRmsgDest:

; 1629 : 			FreeAssoc(pAssoc);
; 1630 : 			return TRUE;
; 1631 : 		}
; 1632 : 		ppAssocPrev = &pAssoc->pNext;

  00091	8d 50 08	 lea	 edx, DWORD PTR [eax+8]
  00094	8b 02		 mov	 eax, DWORD PTR [edx]
  00096	85 c0		 test	 eax, eax
  00098	75 ee		 jne	 SHORT $LL18@OnRmsgDest
; File D:\git\src\IBK\IBK_DRFN\ProjSrc\SrcDrfn\Chart\MULTICHART\TabSystemTradingEx.cpp

; 2328 : 			delete pConfirmWnd;

  0009a	8b 07		 mov	 eax, DWORD PTR [edi]
  0009c	8b cf		 mov	 ecx, edi
  0009e	5b		 pop	 ebx
  0009f	6a 01		 push	 1
  000a1	ff 50 04	 call	 DWORD PTR [eax+4]
  000a4	5f		 pop	 edi

; 2329 : 			pConfirmWnd = NULL;
; 2330 : 
; 2331 : 		}
; 2332 : 	}
; 2333 : 
; 2334 : 	return S_OK;
; 2335 : }

  000a5	33 c0		 xor	 eax, eax
  000a7	5e		 pop	 esi
  000a8	8b e5		 mov	 esp, ebp
  000aa	5d		 pop	 ebp
  000ab	c2 08 00	 ret	 8
$LN51@OnRmsgDest:
; File C:\Program Files (x86)\Microsoft Visual Studio\2019\Community\VC\Tools\MSVC\14.29.30133\atlmfc\include\afxtempl.h

; 1628 : 			*ppAssocPrev = pAssoc->pNext;  // remove from list

  000ae	8b 48 08	 mov	 ecx, DWORD PTR [eax+8]
  000b1	89 0a		 mov	 DWORD PTR [edx], ecx

; 1518 : 	pAssoc->pNext = m_pFreeList;

  000b3	8b 8e c4 09 00
	00		 mov	 ecx, DWORD PTR [esi+2500]
  000b9	89 48 08	 mov	 DWORD PTR [eax+8], ecx

; 1519 : 	m_pFreeList = pAssoc;
; 1520 : 	m_nCount--;

  000bc	83 86 c0 09 00
	00 ff		 add	 DWORD PTR [esi+2496], -1
  000c3	89 86 c4 09 00
	00		 mov	 DWORD PTR [esi+2500], eax

; 1521 : 	ASSERT(m_nCount >= 0);  // make sure we don't underflow
; 1522 : 
; 1523 : 	// if no more elements, cleanup completely
; 1524 : 	if (m_nCount == 0)

  000c9	75 46		 jne	 SHORT $LN67@OnRmsgDest

; 1446 : 	if (m_pHashTable != NULL)

  000cb	8b 86 b8 09 00
	00		 mov	 eax, DWORD PTR [esi+2488]
  000d1	85 c0		 test	 eax, eax
  000d3	74 13		 je	 SHORT $LN44@OnRmsgDest

; 1447 : 	{
; 1448 : 		// destroy elements (values and keys)
; 1449 : 		for (UINT nHash = 0; nHash < m_nHashTableSize; nHash++)
; 1450 : 		{
; 1451 : 			CAssoc* pAssoc;
; 1452 : 			for (pAssoc = m_pHashTable[nHash]; pAssoc != NULL;
; 1453 : 			  pAssoc = pAssoc->pNext)
; 1454 : 			{
; 1455 : 				pAssoc->CAssoc::~CAssoc();
; 1456 : 			}
; 1457 : 		}
; 1458 : 
; 1459 : 		// free hash table
; 1460 : 		delete[] m_pHashTable;

  000d5	50		 push	 eax
  000d6	e8 00 00 00 00	 call	 ??_V@YAXPAX@Z		; operator delete[]
  000db	83 c4 04	 add	 esp, 4

; 1461 : 		m_pHashTable = NULL;

  000de	c7 86 b8 09 00
	00 00 00 00 00	 mov	 DWORD PTR [esi+2488], 0
$LN44@OnRmsgDest:

; 1462 : 	}
; 1463 : 
; 1464 : 	m_nCount = 0;
; 1465 : 	m_pFreeList = NULL;
; 1466 : 	m_pBlocks->FreeDataChain();

  000e8	8b 8e c8 09 00
	00		 mov	 ecx, DWORD PTR [esi+2504]
  000ee	c7 86 c0 09 00
	00 00 00 00 00	 mov	 DWORD PTR [esi+2496], 0
  000f8	c7 86 c4 09 00
	00 00 00 00 00	 mov	 DWORD PTR [esi+2500], 0
  00102	e8 00 00 00 00	 call	 ?FreeDataChain@CPlex@@QAEXXZ ; CPlex::FreeDataChain

; 1467 : 	m_pBlocks = NULL;

  00107	c7 86 c8 09 00
	00 00 00 00 00	 mov	 DWORD PTR [esi+2504], 0
$LN67@OnRmsgDest:
  00111	5b		 pop	 ebx
$LN64@OnRmsgDest:
; File D:\git\src\IBK\IBK_DRFN\ProjSrc\SrcDrfn\Chart\MULTICHART\TabSystemTradingEx.cpp

; 2328 : 			delete pConfirmWnd;

  00112	8b 07		 mov	 eax, DWORD PTR [edi]
  00114	8b cf		 mov	 ecx, edi
  00116	6a 01		 push	 1
  00118	ff 50 04	 call	 DWORD PTR [eax+4]
$LN65@OnRmsgDest:

; 2329 : 			pConfirmWnd = NULL;
; 2330 : 
; 2331 : 		}
; 2332 : 	}
; 2333 : 
; 2334 : 	return S_OK;
; 2335 : }

  0011b	5f		 pop	 edi
  0011c	33 c0		 xor	 eax, eax
  0011e	5e		 pop	 esi
  0011f	8b e5		 mov	 esp, ebp
  00121	5d		 pop	 ebp
  00122	c2 08 00	 ret	 8
?OnRmsgDestroyConfirmWnd@CTabSystemTradingEx@@IAEJIJ@Z ENDP ; CTabSystemTradingEx::OnRmsgDestroyConfirmWnd
_TEXT	ENDS
; Function compile flags: /Ogtp
; File D:\git\src\IBK\IBK_DRFN\ProjSrc\SrcDrfn\Chart\MULTICHART\TabSystemTradingEx.cpp
; File C:\Program Files (x86)\Microsoft Visual Studio\2019\Community\VC\Tools\MSVC\14.29.30133\atlmfc\include\atlsimpstr.h
; File D:\git\src\IBK\IBK_DRFN\ProjSrc\SrcDrfn\Chart\MULTICHART\TabSystemTradingEx.cpp
; File C:\Program Files (x86)\Microsoft Visual Studio\2019\Community\VC\Tools\MSVC\14.29.30133\atlmfc\include\atlsimpstr.h
; File D:\git\src\IBK\IBK_DRFN\ProjSrc\SrcDrfn\Chart\MULTICHART\TabSystemTradingEx.cpp
;	COMDAT ?OnRmsgIndexAddinNotifySignal@CTabSystemTradingEx@@IAEJIJ@Z
_TEXT	SEGMENT
_wp$ = 8						; size = 4
_lp$ = 12						; size = 4
?OnRmsgIndexAddinNotifySignal@CTabSystemTradingEx@@IAEJIJ@Z PROC ; CTabSystemTradingEx::OnRmsgIndexAddinNotifySignal, COMDAT
; _this$ = ecx

; 2098 : {

  00000	55		 push	 ebp
  00001	8b ec		 mov	 ebp, esp
; File C:\Program Files (x86)\Microsoft Visual Studio\2019\Community\VC\Tools\MSVC\14.29.30133\atlmfc\include\atlsimpstr.h

; 377  : 		return( m_pszData );

  00003	8b 45 0c	 mov	 eax, DWORD PTR _lp$[ebp]
; File D:\git\src\IBK\IBK_DRFN\ProjSrc\SrcDrfn\Chart\MULTICHART\TabSystemTradingEx.cpp

; 2098 : {

  00006	56		 push	 esi

; 2103 : 		PlayOrderSound(	pEnv->m_nOrderType,

  00007	8b 88 64 01 00
	00		 mov	 ecx, DWORD PTR [eax+356]
; File C:\Program Files (x86)\Microsoft Visual Studio\2019\Community\VC\Tools\MSVC\14.29.30133\atlmfc\include\atlsimpstr.h

; 377  : 		return( m_pszData );

  0000d	8b 70 58	 mov	 esi, DWORD PTR [eax+88]
; File D:\git\src\IBK\IBK_DRFN\ProjSrc\SrcDrfn\Chart\MULTICHART\TabSystemTradingEx.cpp

; 2103 : 		PlayOrderSound(	pEnv->m_nOrderType,

  00010	8b 50 54	 mov	 edx, DWORD PTR [eax+84]
  00013	f6 c1 23	 test	 cl, 35			; 00000023H

; 2208 : 	if( (nOrderType&FORCEDEXIT) || (nOrderType&VALEXITLONG) || (nOrderType&VALEXITSHORT) )

  00016	75 1d		 jne	 SHORT $LN13@OnRmsgInde
  00018	f6 c1 0c	 test	 cl, 12			; 0000000cH

; 2211 : 	}
; 2212 : 	else if( (nOrderType & VALENTRYBUY) || (nOrderType & VALENTRYSELL) )

  0001b	74 25		 je	 SHORT $LN32@OnRmsgInde

; 2213 : 	{
; 2214 : 		if(bBuySound) sndPlaySound (szBuyFile, SND_ASYNC);

  0001d	83 78 4c 00	 cmp	 DWORD PTR [eax+76], 0
  00021	74 1f		 je	 SHORT $LN32@OnRmsgInde
  00023	6a 01		 push	 1
  00025	ff 70 50	 push	 DWORD PTR [eax+80]

; 2104 : 						pEnv->m_InfoJumun.m_bSound_Buy_Use,
; 2105 : 						pEnv->m_InfoJumun.m_szSound_Buy_File,
; 2106 : 						pEnv->m_InfoJumun.m_bSound_Sell_Use,
; 2107 : 						pEnv->m_InfoJumun.m_szSound_Sell_File );
; 2108 : 	}
; 2109 : 	else if(gCURRENT_COMPANY_ID==nPCTRComID_KB)
; 2110 : 	{
; 2111 : 		PlayOrderSound(	pEnv->m_nOrderType,
; 2112 : 						pEnv->m_InfoJumun.m_bSound_Buy_Use,
; 2113 : 						pEnv->m_InfoJumun.m_szSound_Buy_File,
; 2114 : 						pEnv->m_InfoJumun.m_bSound_Sell_Use,
; 2115 : 						pEnv->m_InfoJumun.m_szSound_Sell_File );
; 2116 : 	}
; 2117 : 	return 0L;
; 2118 : }

  00028	ff 15 00 00 00
	00		 call	 DWORD PTR __imp__sndPlaySoundA@8
  0002e	33 c0		 xor	 eax, eax
  00030	5e		 pop	 esi
  00031	5d		 pop	 ebp
  00032	c2 08 00	 ret	 8
$LN13@OnRmsgInde:

; 2210 : 		if(bSellSound) sndPlaySound (szSellFile, SND_ASYNC);

  00035	85 d2		 test	 edx, edx
  00037	74 09		 je	 SHORT $LN32@OnRmsgInde
  00039	6a 01		 push	 1
  0003b	56		 push	 esi

; 2104 : 						pEnv->m_InfoJumun.m_bSound_Buy_Use,
; 2105 : 						pEnv->m_InfoJumun.m_szSound_Buy_File,
; 2106 : 						pEnv->m_InfoJumun.m_bSound_Sell_Use,
; 2107 : 						pEnv->m_InfoJumun.m_szSound_Sell_File );
; 2108 : 	}
; 2109 : 	else if(gCURRENT_COMPANY_ID==nPCTRComID_KB)
; 2110 : 	{
; 2111 : 		PlayOrderSound(	pEnv->m_nOrderType,
; 2112 : 						pEnv->m_InfoJumun.m_bSound_Buy_Use,
; 2113 : 						pEnv->m_InfoJumun.m_szSound_Buy_File,
; 2114 : 						pEnv->m_InfoJumun.m_bSound_Sell_Use,
; 2115 : 						pEnv->m_InfoJumun.m_szSound_Sell_File );
; 2116 : 	}
; 2117 : 	return 0L;
; 2118 : }

  0003c	ff 15 00 00 00
	00		 call	 DWORD PTR __imp__sndPlaySoundA@8
$LN32@OnRmsgInde:
  00042	33 c0		 xor	 eax, eax
  00044	5e		 pop	 esi
  00045	5d		 pop	 ebp
  00046	c2 08 00	 ret	 8
?OnRmsgIndexAddinNotifySignal@CTabSystemTradingEx@@IAEJIJ@Z ENDP ; CTabSystemTradingEx::OnRmsgIndexAddinNotifySignal
_TEXT	ENDS
; Function compile flags: /Ogtp
; File D:\git\src\IBK\IBK_DRFN\ProjSrc\SrcDrfn\Chart\MULTICHART\TabSystemTradingEx.cpp
; File C:\Program Files (x86)\Microsoft Visual Studio\2019\Community\VC\Tools\MSVC\14.29.30133\atlmfc\include\atlsimpstr.h
; File D:\git\src\IBK\IBK_DRFN\ProjSrc\SrcDrfn\Chart\MULTICHART\TabSystemTradingEx.cpp
; File D:\git\src\IBK\IBK_DRFN\ProjSrc\SrcDrfn\Chart\CommonTR\SS_OrderDef.h
; File D:\git\src\IBK\IBK_DRFN\ProjSrc\SrcDrfn\Chart\MULTICHART\TabSystemTradingEx.cpp
;	COMDAT ?OnRmsgIndexAddinNotifyBuySell@CTabSystemTradingEx@@IAEJIJ@Z
_TEXT	SEGMENT
_wp$GSCopy$1$ = -112					; size = 4
_inData$ = -108						; size = 92
__$ArrayPad$ = -16					; size = 4
__$EHRec$ = -12						; size = 12
_wp$ = 8						; size = 4
_lp$ = 12						; size = 4
?OnRmsgIndexAddinNotifyBuySell@CTabSystemTradingEx@@IAEJIJ@Z PROC ; CTabSystemTradingEx::OnRmsgIndexAddinNotifyBuySell, COMDAT
; _this$ = ecx

; 2001 : {

  00000	55		 push	 ebp
  00001	8b ec		 mov	 ebp, esp
  00003	6a ff		 push	 -1
  00005	68 00 00 00 00	 push	 __ehhandler$?OnRmsgIndexAddinNotifyBuySell@CTabSystemTradingEx@@IAEJIJ@Z
  0000a	64 a1 00 00 00
	00		 mov	 eax, DWORD PTR fs:0
  00010	50		 push	 eax
  00011	83 ec 64	 sub	 esp, 100		; 00000064H
  00014	a1 00 00 00 00	 mov	 eax, DWORD PTR ___security_cookie
  00019	33 c5		 xor	 eax, ebp
  0001b	89 45 f0	 mov	 DWORD PTR __$ArrayPad$[ebp], eax
  0001e	53		 push	 ebx
  0001f	56		 push	 esi
  00020	57		 push	 edi
  00021	50		 push	 eax
  00022	8d 45 f4	 lea	 eax, DWORD PTR __$EHRec$[ebp]
  00025	64 a3 00 00 00
	00		 mov	 DWORD PTR fs:0, eax
  0002b	8b f9		 mov	 edi, ecx
  0002d	8b 75 0c	 mov	 esi, DWORD PTR _lp$[ebp]
  00030	8b 45 08	 mov	 eax, DWORD PTR _wp$[ebp]
  00033	89 45 90	 mov	 DWORD PTR _wp$GSCopy$1$[ebp], eax

; 2002 : 	STORDER_INDATA* lpOrderData = (STORDER_INDATA*)wp;
; 2003 : 	CSTConfigEnv* lpConfigEnv = (CSTConfigEnv*)lp;
; 2004 : 
; 2005 : 	PlayOrderSound(	lpConfigEnv->m_nOrderType,

  00036	8b 86 64 01 00
	00		 mov	 eax, DWORD PTR [esi+356]
; File C:\Program Files (x86)\Microsoft Visual Studio\2019\Community\VC\Tools\MSVC\14.29.30133\atlmfc\include\atlsimpstr.h

; 377  : 		return( m_pszData );

  0003c	8d 5e 58	 lea	 ebx, DWORD PTR [esi+88]
  0003f	a8 23		 test	 al, 35			; 00000023H
; File D:\git\src\IBK\IBK_DRFN\ProjSrc\SrcDrfn\Chart\MULTICHART\TabSystemTradingEx.cpp

; 2208 : 	if( (nOrderType&FORCEDEXIT) || (nOrderType&VALEXITLONG) || (nOrderType&VALEXITSHORT) )

  00041	75 11		 jne	 SHORT $LN17@OnRmsgInde
  00043	a8 0c		 test	 al, 12			; 0000000cH

; 2211 : 	}
; 2212 : 	else if( (nOrderType & VALENTRYBUY) || (nOrderType & VALENTRYSELL) )

  00045	74 1d		 je	 SHORT $LN18@OnRmsgInde

; 2213 : 	{
; 2214 : 		if(bBuySound) sndPlaySound (szBuyFile, SND_ASYNC);

  00047	83 7e 4c 00	 cmp	 DWORD PTR [esi+76], 0
  0004b	74 17		 je	 SHORT $LN18@OnRmsgInde
  0004d	6a 01		 push	 1
  0004f	ff 76 50	 push	 DWORD PTR [esi+80]
  00052	eb 0a		 jmp	 SHORT $LN34@OnRmsgInde
$LN17@OnRmsgInde:

; 2209 : 	{
; 2210 : 		if(bSellSound) sndPlaySound (szSellFile, SND_ASYNC);

  00054	83 7e 54 00	 cmp	 DWORD PTR [esi+84], 0
  00058	74 0a		 je	 SHORT $LN18@OnRmsgInde
  0005a	6a 01		 push	 1
  0005c	ff 33		 push	 DWORD PTR [ebx]
$LN34@OnRmsgInde:

; 2006 : 					lpConfigEnv->m_InfoJumun.m_bSound_Buy_Use,
; 2007 : 					lpConfigEnv->m_InfoJumun.m_szSound_Buy_File,
; 2008 : 					lpConfigEnv->m_InfoJumun.m_bSound_Sell_Use,
; 2009 : 					lpConfigEnv->m_InfoJumun.m_szSound_Sell_File );
; 2010 : 
; 2011 : 
; 2012 : 	// HTS  0(HTS), 1(FO)
; 2013 : 	if (m_nUserType)

  0005e	ff 15 00 00 00
	00		 call	 DWORD PTR __imp__sndPlaySoundA@8
$LN18@OnRmsgInde:
  00064	83 bf 28 08 00
	00 00		 cmp	 DWORD PTR [edi+2088], 0
  0006b	74 0a		 je	 SHORT $LN2@OnRmsgInde

; 2014 : 		return 1L;

  0006d	b8 01 00 00 00	 mov	 eax, 1
  00072	e9 e6 01 00 00	 jmp	 $LN1@OnRmsgInde
$LN2@OnRmsgInde:
; File D:\git\src\IBK\IBK_DRFN\ProjSrc\SrcDrfn\Chart\CommonTR\SS_OrderDef.h

; 422  : 	CSTOrderRData_SS()

  00077	8d 4d a0	 lea	 ecx, DWORD PTR _inData$[ebp+12]
  0007a	ff 15 00 00 00
	00		 call	 DWORD PTR __imp_??0?$CStringT@DV?$StrTraitMFC_DLL@DV?$ChTraitsCRT@D@ATL@@@@@ATL@@QAE@XZ
  00080	8d 4d a4	 lea	 ecx, DWORD PTR _inData$[ebp+16]
  00083	ff 15 00 00 00
	00		 call	 DWORD PTR __imp_??0?$CStringT@DV?$StrTraitMFC_DLL@DV?$ChTraitsCRT@D@ATL@@@@@ATL@@QAE@XZ
  00089	8d 4d a8	 lea	 ecx, DWORD PTR _inData$[ebp+20]
  0008c	ff 15 00 00 00
	00		 call	 DWORD PTR __imp_??0?$CStringT@DV?$StrTraitMFC_DLL@DV?$ChTraitsCRT@D@ATL@@@@@ATL@@QAE@XZ
  00092	8d 4d ac	 lea	 ecx, DWORD PTR _inData$[ebp+24]
  00095	ff 15 00 00 00
	00		 call	 DWORD PTR __imp_??0?$CStringT@DV?$StrTraitMFC_DLL@DV?$ChTraitsCRT@D@ATL@@@@@ATL@@QAE@XZ
  0009b	8d 4d c0	 lea	 ecx, DWORD PTR _inData$[ebp+44]
  0009e	ff 15 00 00 00
	00		 call	 DWORD PTR __imp_??0?$CStringT@DV?$StrTraitMFC_DLL@DV?$ChTraitsCRT@D@ATL@@@@@ATL@@QAE@XZ
  000a4	8d 4d d0	 lea	 ecx, DWORD PTR _inData$[ebp+60]
  000a7	ff 15 00 00 00
	00		 call	 DWORD PTR __imp_??0?$CStringT@DV?$StrTraitMFC_DLL@DV?$ChTraitsCRT@D@ATL@@@@@ATL@@QAE@XZ

; 439  : 	CSTOrderRData_EG()

  000ad	8d 4d e4	 lea	 ecx, DWORD PTR _inData$[ebp+80]

; 424  : 		m_lPtrCSTConfigEnv = NULL;

  000b0	c7 45 d4 00 00
	00 00		 mov	 DWORD PTR _inData$[ebp+64], 0

; 439  : 	CSTOrderRData_EG()

  000b7	ff 15 00 00 00
	00		 call	 DWORD PTR __imp_??0?$CStringT@DV?$StrTraitMFC_DLL@DV?$ChTraitsCRT@D@ATL@@@@@ATL@@QAE@XZ
  000bd	8d 4d ec	 lea	 ecx, DWORD PTR _inData$[ebp+88]
  000c0	ff 15 00 00 00
	00		 call	 DWORD PTR __imp_??0?$CStringT@DV?$StrTraitMFC_DLL@DV?$ChTraitsCRT@D@ATL@@@@@ATL@@QAE@XZ
; File D:\git\src\IBK\IBK_DRFN\ProjSrc\SrcDrfn\Chart\MULTICHART\TabSystemTradingEx.cpp

; 2041 : 	inData.m_nMarket = lpOrderData->nMarket;				// 0:, 1:/, 2:

  000c6	8b 4d 90	 mov	 ecx, DWORD PTR _wp$GSCopy$1$[ebp]
  000c9	c7 45 fc 00 00
	00 00		 mov	 DWORD PTR __$EHRec$[ebp+8], 0
  000d0	8b 01		 mov	 eax, DWORD PTR [ecx]
  000d2	89 45 94	 mov	 DWORD PTR _inData$[ebp], eax

; 2042 : 	inData.m_nOrderType = lpConfigEnv->m_nOrderType;		// 0: , 1:, 2:, 3:

  000d5	8b 86 64 01 00
	00		 mov	 eax, DWORD PTR [esi+356]
  000db	89 45 98	 mov	 DWORD PTR _inData$[ebp+4], eax

; 2043 : 	inData.m_szGeja = lpOrderData->aAcctNo;

  000de	8d 41 08	 lea	 eax, DWORD PTR [ecx+8]
  000e1	50		 push	 eax
  000e2	8d 4d a0	 lea	 ecx, DWORD PTR _inData$[ebp+12]
  000e5	ff 15 00 00 00
	00		 call	 DWORD PTR __imp_??4?$CStringT@DV?$StrTraitMFC_DLL@DV?$ChTraitsCRT@D@ATL@@@@@ATL@@QAEAAV01@PBD@Z

; 2044 : 	inData.m_szGejaname = lpOrderData->aAcctName;

  000eb	8b 45 90	 mov	 eax, DWORD PTR _wp$GSCopy$1$[ebp]
  000ee	8d 4d a4	 lea	 ecx, DWORD PTR _inData$[ebp+16]
  000f1	83 c0 1d	 add	 eax, 29			; 0000001dH
  000f4	50		 push	 eax
  000f5	ff 15 00 00 00
	00		 call	 DWORD PTR __imp_??4?$CStringT@DV?$StrTraitMFC_DLL@DV?$ChTraitsCRT@D@ATL@@@@@ATL@@QAEAAV01@PBD@Z

; 2045 : 	inData.m_szCode = lpConfigEnv->m_szCode;				// 

  000fb	8d 86 58 01 00
	00		 lea	 eax, DWORD PTR [esi+344]
  00101	50		 push	 eax
  00102	8d 4d a8	 lea	 ecx, DWORD PTR _inData$[ebp+20]
  00105	ff 15 00 00 00
	00		 call	 DWORD PTR __imp_??4?$CStringT@DV?$StrTraitMFC_DLL@DV?$ChTraitsCRT@D@ATL@@@@@ATL@@QAEAAV01@ABV01@@Z

; 2046 : 	inData.m_szCodeName = lpConfigEnv->m_szCodeName;		// 

  0010b	8d 86 5c 01 00
	00		 lea	 eax, DWORD PTR [esi+348]
  00111	50		 push	 eax
  00112	8d 4d ac	 lea	 ecx, DWORD PTR _inData$[ebp+24]
  00115	ff 15 00 00 00
	00		 call	 DWORD PTR __imp_??4?$CStringT@DV?$StrTraitMFC_DLL@DV?$ChTraitsCRT@D@ATL@@@@@ATL@@QAEAAV01@ABV01@@Z

; 2047 : 	inData.m_szSTPath = lpConfigEnv->m_szSTFileName;		//  

  0011b	8d 86 50 01 00
	00		 lea	 eax, DWORD PTR [esi+336]
  00121	50		 push	 eax
  00122	8d 4d d0	 lea	 ecx, DWORD PTR _inData$[ebp+60]
  00125	ff 15 00 00 00
	00		 call	 DWORD PTR __imp_??4?$CStringT@DV?$StrTraitMFC_DLL@DV?$ChTraitsCRT@D@ATL@@@@@ATL@@QAEAAV01@ABV01@@Z

; 2048 : 															//     .   .
; 2049 : 															//     .
; 2050 : 	inData.m_nQty = lpConfigEnv->m_InfoJumun.m_nJAmount;

  0012b	8b 46 34	 mov	 eax, DWORD PTR [esi+52]

; 2051 : 	inData.m_nAutoOrder = lpConfigEnv->m_InfoJumun.m_nJMethod;		// .
; 2052 : 
; 2053 : 	inData.m_bSound_Buy_Use = lpConfigEnv->m_InfoJumun.m_bSound_Buy_Use;
; 2054 : 	inData.m_szSound_Buy_File = lpConfigEnv->m_InfoJumun.m_szSound_Buy_File;

  0012e	8d 4d e4	 lea	 ecx, DWORD PTR _inData$[ebp+80]
  00131	89 45 b8	 mov	 DWORD PTR _inData$[ebp+36], eax
  00134	8b 46 40	 mov	 eax, DWORD PTR [esi+64]
  00137	89 45 cc	 mov	 DWORD PTR _inData$[ebp+56], eax
  0013a	8b 46 4c	 mov	 eax, DWORD PTR [esi+76]
  0013d	89 45 e0	 mov	 DWORD PTR _inData$[ebp+76], eax
  00140	8d 46 50	 lea	 eax, DWORD PTR [esi+80]
  00143	50		 push	 eax
  00144	ff 15 00 00 00
	00		 call	 DWORD PTR __imp_??4?$CStringT@DV?$StrTraitMFC_DLL@DV?$ChTraitsCRT@D@ATL@@@@@ATL@@QAEAAV01@ABV01@@Z

; 2055 : 	inData.m_bSound_Sell_Use = lpConfigEnv->m_InfoJumun.m_bSound_Sell_Use;

  0014a	8b 46 54	 mov	 eax, DWORD PTR [esi+84]

; 2056 : 	inData.m_szSound_Sell_File = lpConfigEnv->m_InfoJumun.m_szSound_Sell_File;

  0014d	8d 4d ec	 lea	 ecx, DWORD PTR _inData$[ebp+88]
  00150	53		 push	 ebx
  00151	89 45 e8	 mov	 DWORD PTR _inData$[ebp+84], eax
  00154	ff 15 00 00 00
	00		 call	 DWORD PTR __imp_??4?$CStringT@DV?$StrTraitMFC_DLL@DV?$ChTraitsCRT@D@ATL@@@@@ATL@@QAEAAV01@ABV01@@Z

; 2057 : 
; 2058 : 	if(inData.m_nOrderType & FORCEDEXIT)

  0015a	8b 45 98	 mov	 eax, DWORD PTR _inData$[ebp+4]
  0015d	a8 20		 test	 al, 32			; 00000020H
  0015f	74 21		 je	 SHORT $LN3@OnRmsgInde

; 2059 : 	{
; 2060 : 		inData.m_nRealOrderType = FORCEDEXIT;
; 2061 : 		inData.m_nOrderMarketClear = lpConfigEnv->m_InfoJumun.m_nMkprc_Clr;

  00161	8b 46 60	 mov	 eax, DWORD PTR [esi+96]

; 2062 : 		inData.m_nOrderPriceType = lpConfigEnv->m_InfoJumun.m_nSellPrice;
; 2063 : 		CallJunmunDlg(&inData);

  00164	8b cf		 mov	 ecx, edi
  00166	89 45 dc	 mov	 DWORD PTR _inData$[ebp+72], eax
  00169	8b 46 3c	 mov	 eax, DWORD PTR [esi+60]
  0016c	89 45 c4	 mov	 DWORD PTR _inData$[ebp+48], eax
  0016f	8d 45 94	 lea	 eax, DWORD PTR _inData$[ebp]
  00172	50		 push	 eax
  00173	c7 45 9c 20 00
	00 00		 mov	 DWORD PTR _inData$[ebp+8], 32 ; 00000020H
  0017a	e8 00 00 00 00	 call	 ?CallJunmunDlg@CTabSystemTradingEx@@QAEXPAVCSTOrderRData_EG@@@Z ; CTabSystemTradingEx::CallJunmunDlg
  0017f	8b 45 98	 mov	 eax, DWORD PTR _inData$[ebp+4]
$LN3@OnRmsgInde:

; 2064 : 	}
; 2065 : 	if(inData.m_nOrderType & VALENTRYBUY)

  00182	a8 04		 test	 al, 4
  00184	74 21		 je	 SHORT $LN4@OnRmsgInde

; 2066 : 	{
; 2067 : 		inData.m_nRealOrderType = VALENTRYBUY;
; 2068 : 		inData.m_nOrderMarketEntry = lpConfigEnv->m_InfoJumun.m_nMkprc_Ent;

  00186	8b 46 5c	 mov	 eax, DWORD PTR [esi+92]

; 2069 : 		inData.m_nOrderPriceType = lpConfigEnv->m_InfoJumun.m_nBuyPrice;
; 2070 : 		CallJunmunDlg(&inData);

  00189	8b cf		 mov	 ecx, edi
  0018b	89 45 d8	 mov	 DWORD PTR _inData$[ebp+68], eax
  0018e	8b 46 38	 mov	 eax, DWORD PTR [esi+56]
  00191	89 45 c4	 mov	 DWORD PTR _inData$[ebp+48], eax
  00194	8d 45 94	 lea	 eax, DWORD PTR _inData$[ebp]
  00197	50		 push	 eax
  00198	c7 45 9c 04 00
	00 00		 mov	 DWORD PTR _inData$[ebp+8], 4
  0019f	e8 00 00 00 00	 call	 ?CallJunmunDlg@CTabSystemTradingEx@@QAEXPAVCSTOrderRData_EG@@@Z ; CTabSystemTradingEx::CallJunmunDlg
  001a4	8b 45 98	 mov	 eax, DWORD PTR _inData$[ebp+4]
$LN4@OnRmsgInde:

; 2071 : 	}
; 2072 : 	if(inData.m_nOrderType & VALEXITSHORT)

  001a7	a8 02		 test	 al, 2
  001a9	74 21		 je	 SHORT $LN5@OnRmsgInde

; 2073 : 	{
; 2074 : 		inData.m_nRealOrderType = VALEXITSHORT;
; 2075 : 		inData.m_nOrderMarketClear = lpConfigEnv->m_InfoJumun.m_nMkprc_Clr;

  001ab	8b 46 60	 mov	 eax, DWORD PTR [esi+96]

; 2076 : 		inData.m_nOrderPriceType = lpConfigEnv->m_InfoJumun.m_nBuyPrice;
; 2077 : 		CallJunmunDlg(&inData);

  001ae	8b cf		 mov	 ecx, edi
  001b0	89 45 dc	 mov	 DWORD PTR _inData$[ebp+72], eax
  001b3	8b 46 38	 mov	 eax, DWORD PTR [esi+56]
  001b6	89 45 c4	 mov	 DWORD PTR _inData$[ebp+48], eax
  001b9	8d 45 94	 lea	 eax, DWORD PTR _inData$[ebp]
  001bc	50		 push	 eax
  001bd	c7 45 9c 02 00
	00 00		 mov	 DWORD PTR _inData$[ebp+8], 2
  001c4	e8 00 00 00 00	 call	 ?CallJunmunDlg@CTabSystemTradingEx@@QAEXPAVCSTOrderRData_EG@@@Z ; CTabSystemTradingEx::CallJunmunDlg
  001c9	8b 45 98	 mov	 eax, DWORD PTR _inData$[ebp+4]
$LN5@OnRmsgInde:

; 2078 : 	}
; 2079 : 	if(inData.m_nOrderType & VALENTRYSELL)

  001cc	a8 08		 test	 al, 8
  001ce	74 21		 je	 SHORT $LN6@OnRmsgInde

; 2080 : 	{
; 2081 : 		inData.m_nRealOrderType = VALENTRYSELL;
; 2082 : 		inData.m_nOrderMarketEntry = lpConfigEnv->m_InfoJumun.m_nMkprc_Ent;

  001d0	8b 46 5c	 mov	 eax, DWORD PTR [esi+92]

; 2083 : 		inData.m_nOrderPriceType = lpConfigEnv->m_InfoJumun.m_nSellPrice;
; 2084 : 		CallJunmunDlg(&inData);

  001d3	8b cf		 mov	 ecx, edi
  001d5	89 45 d8	 mov	 DWORD PTR _inData$[ebp+68], eax
  001d8	8b 46 3c	 mov	 eax, DWORD PTR [esi+60]
  001db	89 45 c4	 mov	 DWORD PTR _inData$[ebp+48], eax
  001de	8d 45 94	 lea	 eax, DWORD PTR _inData$[ebp]
  001e1	50		 push	 eax
  001e2	c7 45 9c 08 00
	00 00		 mov	 DWORD PTR _inData$[ebp+8], 8
  001e9	e8 00 00 00 00	 call	 ?CallJunmunDlg@CTabSystemTradingEx@@QAEXPAVCSTOrderRData_EG@@@Z ; CTabSystemTradingEx::CallJunmunDlg
  001ee	8b 45 98	 mov	 eax, DWORD PTR _inData$[ebp+4]
$LN6@OnRmsgInde:

; 2085 : 	}
; 2086 : 	if(inData.m_nOrderType & VALEXITLONG)

  001f1	a8 01		 test	 al, 1
  001f3	74 1e		 je	 SHORT $LN7@OnRmsgInde

; 2087 : 	{
; 2088 : 		inData.m_nRealOrderType = VALEXITLONG;
; 2089 : 		inData.m_nOrderMarketClear = lpConfigEnv->m_InfoJumun.m_nMkprc_Clr;

  001f5	8b 46 60	 mov	 eax, DWORD PTR [esi+96]

; 2090 : 		inData.m_nOrderPriceType = lpConfigEnv->m_InfoJumun.m_nSellPrice;
; 2091 : 		CallJunmunDlg(&inData);

  001f8	8b cf		 mov	 ecx, edi
  001fa	89 45 dc	 mov	 DWORD PTR _inData$[ebp+72], eax
  001fd	8b 46 3c	 mov	 eax, DWORD PTR [esi+60]
  00200	89 45 c4	 mov	 DWORD PTR _inData$[ebp+48], eax
  00203	8d 45 94	 lea	 eax, DWORD PTR _inData$[ebp]
  00206	50		 push	 eax
  00207	c7 45 9c 01 00
	00 00		 mov	 DWORD PTR _inData$[ebp+8], 1
  0020e	e8 00 00 00 00	 call	 ?CallJunmunDlg@CTabSystemTradingEx@@QAEXPAVCSTOrderRData_EG@@@Z ; CTabSystemTradingEx::CallJunmunDlg
$LN7@OnRmsgInde:

; 2092 : 	}
; 2093 : 
; 2094 : 	return 0L;

  00213	8d 4d ec	 lea	 ecx, DWORD PTR _inData$[ebp+88]
  00216	ff 15 00 00 00
	00		 call	 DWORD PTR __imp_??1?$CStringT@DV?$StrTraitMFC_DLL@DV?$ChTraitsCRT@D@ATL@@@@@ATL@@QAE@XZ
  0021c	8d 4d e4	 lea	 ecx, DWORD PTR _inData$[ebp+80]
  0021f	ff 15 00 00 00
	00		 call	 DWORD PTR __imp_??1?$CStringT@DV?$StrTraitMFC_DLL@DV?$ChTraitsCRT@D@ATL@@@@@ATL@@QAE@XZ
  00225	8d 4d d0	 lea	 ecx, DWORD PTR _inData$[ebp+60]
  00228	ff 15 00 00 00
	00		 call	 DWORD PTR __imp_??1?$CStringT@DV?$StrTraitMFC_DLL@DV?$ChTraitsCRT@D@ATL@@@@@ATL@@QAE@XZ
  0022e	8d 4d c0	 lea	 ecx, DWORD PTR _inData$[ebp+44]
  00231	ff 15 00 00 00
	00		 call	 DWORD PTR __imp_??1?$CStringT@DV?$StrTraitMFC_DLL@DV?$ChTraitsCRT@D@ATL@@@@@ATL@@QAE@XZ
  00237	8d 4d ac	 lea	 ecx, DWORD PTR _inData$[ebp+24]
  0023a	ff 15 00 00 00
	00		 call	 DWORD PTR __imp_??1?$CStringT@DV?$StrTraitMFC_DLL@DV?$ChTraitsCRT@D@ATL@@@@@ATL@@QAE@XZ
  00240	8d 4d a8	 lea	 ecx, DWORD PTR _inData$[ebp+20]
  00243	ff 15 00 00 00
	00		 call	 DWORD PTR __imp_??1?$CStringT@DV?$StrTraitMFC_DLL@DV?$ChTraitsCRT@D@ATL@@@@@ATL@@QAE@XZ
  00249	8d 4d a4	 lea	 ecx, DWORD PTR _inData$[ebp+16]
  0024c	ff 15 00 00 00
	00		 call	 DWORD PTR __imp_??1?$CStringT@DV?$StrTraitMFC_DLL@DV?$ChTraitsCRT@D@ATL@@@@@ATL@@QAE@XZ
  00252	8d 4d a0	 lea	 ecx, DWORD PTR _inData$[ebp+12]
  00255	ff 15 00 00 00
	00		 call	 DWORD PTR __imp_??1?$CStringT@DV?$StrTraitMFC_DLL@DV?$ChTraitsCRT@D@ATL@@@@@ATL@@QAE@XZ
  0025b	33 c0		 xor	 eax, eax
$LN1@OnRmsgInde:

; 2095 : }

  0025d	8b 4d f4	 mov	 ecx, DWORD PTR __$EHRec$[ebp]
  00260	64 89 0d 00 00
	00 00		 mov	 DWORD PTR fs:0, ecx
  00267	59		 pop	 ecx
  00268	5f		 pop	 edi
  00269	5e		 pop	 esi
  0026a	5b		 pop	 ebx
  0026b	8b 4d f0	 mov	 ecx, DWORD PTR __$ArrayPad$[ebp]
  0026e	33 cd		 xor	 ecx, ebp
  00270	e8 00 00 00 00	 call	 @__security_check_cookie@4
  00275	8b e5		 mov	 esp, ebp
  00277	5d		 pop	 ebp
  00278	c2 08 00	 ret	 8
_TEXT	ENDS
;	COMDAT text$x
text$x	SEGMENT
__unwindfunclet$?OnRmsgIndexAddinNotifyBuySell@CTabSystemTradingEx@@IAEJIJ@Z$0:
  00000	8d 4d 94	 lea	 ecx, DWORD PTR _inData$[ebp]
  00003	e9 00 00 00 00	 jmp	 ??1CSTOrderRData_EG@@QAE@XZ
  00008	cc		 int	 3
  00009	cc		 int	 3
  0000a	cc		 int	 3
  0000b	cc		 int	 3
  0000c	cc		 int	 3
__ehhandler$?OnRmsgIndexAddinNotifyBuySell@CTabSystemTradingEx@@IAEJIJ@Z:
  0000d	90		 npad	 1
  0000e	90		 npad	 1
  0000f	8b 54 24 08	 mov	 edx, DWORD PTR [esp+8]
  00013	8d 42 0c	 lea	 eax, DWORD PTR [edx+12]
  00016	8b 4a 8c	 mov	 ecx, DWORD PTR [edx-116]
  00019	33 c8		 xor	 ecx, eax
  0001b	e8 00 00 00 00	 call	 @__security_check_cookie@4
  00020	8b 4a fc	 mov	 ecx, DWORD PTR [edx-4]
  00023	33 c8		 xor	 ecx, eax
  00025	e8 00 00 00 00	 call	 @__security_check_cookie@4
  0002a	b8 00 00 00 00	 mov	 eax, OFFSET __ehfuncinfo$?OnRmsgIndexAddinNotifyBuySell@CTabSystemTradingEx@@IAEJIJ@Z
  0002f	e9 00 00 00 00	 jmp	 ___CxxFrameHandler3
text$x	ENDS
?OnRmsgIndexAddinNotifyBuySell@CTabSystemTradingEx@@IAEJIJ@Z ENDP ; CTabSystemTradingEx::OnRmsgIndexAddinNotifyBuySell
; Function compile flags: /Ogtp
; File D:\git\src\IBK\IBK_DRFN\ProjSrc\SrcDrfn\Chart\MULTICHART\TabSystemTradingEx.cpp
;	COMDAT ?OnRmsgIndexAddinNotifyRawData@CTabSystemTradingEx@@IAEJIJ@Z
_TEXT	SEGMENT
_wp$ = 8						; size = 4
_lp$ = 12						; size = 4
?OnRmsgIndexAddinNotifyRawData@CTabSystemTradingEx@@IAEJIJ@Z PROC ; CTabSystemTradingEx::OnRmsgIndexAddinNotifyRawData, COMDAT
; _this$ = ecx

; 1591 : {

  00000	55		 push	 ebp
  00001	8b ec		 mov	 ebp, esp

; 1592 : 	int nType = (int)lp;
; 1593 : 	STMNG_ITEMINFO* pInData = (STMNG_ITEMINFO*)wp;
; 1594 : 
; 1595 : 	switch(nType) {

  00003	8b 45 0c	 mov	 eax, DWORD PTR _lp$[ebp]
  00006	53		 push	 ebx
  00007	8b d9		 mov	 ebx, ecx
  00009	83 e8 00	 sub	 eax, 0
  0000c	74 1b		 je	 SHORT $LN4@OnRmsgInde
  0000e	83 e8 01	 sub	 eax, 1
  00011	0f 85 f1 00 00
	00		 jne	 $LN20@OnRmsgInde

; 1618 : 			}
; 1619 : 			OnRmsgMultiST(wp, lp);
; 1620 : 		}
; 1621 : 		break;
; 1622 : 	case 1:
; 1623 : 			m_pDlgOption->SetInitDlg();//Clear..

  00017	8b 8b c0 07 00
	00		 mov	 ecx, DWORD PTR [ebx+1984]
  0001d	e8 00 00 00 00	 call	 ?SetInitDlg@CDlgSTExOption@@QAEXXZ ; CDlgSTExOption::SetInitDlg

; 1627 : }

  00022	33 c0		 xor	 eax, eax
  00024	5b		 pop	 ebx
  00025	5d		 pop	 ebp
  00026	c2 08 00	 ret	 8
$LN4@OnRmsgInde:
  00029	56		 push	 esi

; 1596 : 	case 0:
; 1597 : 		{
; 1598 : 			if(pInData)

  0002a	8b 75 08	 mov	 esi, DWORD PTR _wp$[ebp]
  0002d	8d 8b 7c 09 00
	00		 lea	 ecx, DWORD PTR [ebx+2428]
  00033	57		 push	 edi
  00034	85 f6		 test	 esi, esi
  00036	74 7c		 je	 SHORT $LN5@OnRmsgInde

; 1599 : 			{
; 1600 : 				m_xSTAnalysisInput.m_Info.nSTType		= pInData->nSTType;

  00038	8b 46 0c	 mov	 eax, DWORD PTR [esi+12]

; 1601 : 				m_xSTAnalysisInput.m_Info.szSTName		= pInData->szSTName;

  0003b	8d 7e 04	 lea	 edi, DWORD PTR [esi+4]
  0003e	57		 push	 edi
  0003f	89 83 84 09 00
	00		 mov	 DWORD PTR [ebx+2436], eax
  00045	ff 15 00 00 00
	00		 call	 DWORD PTR __imp_??4?$CStringT@DV?$StrTraitMFC_DLL@DV?$ChTraitsCRT@D@ATL@@@@@ATL@@QAEAAV01@ABV01@@Z

; 1602 : 				m_xSTAnalysisInput.m_Info.szSTPath		= pInData->szSTPath;

  0004b	83 c6 08	 add	 esi, 8
  0004e	8d 8b 80 09 00
	00		 lea	 ecx, DWORD PTR [ebx+2432]
  00054	56		 push	 esi
  00055	ff 15 00 00 00
	00		 call	 DWORD PTR __imp_??4?$CStringT@DV?$StrTraitMFC_DLL@DV?$ChTraitsCRT@D@ATL@@@@@ATL@@QAEAAV01@ABV01@@Z

; 1603 : 				m_xSTAnalysisInput.m_Info.szSTRData		= pInData->szSTRData;	

  0005b	ff 75 08	 push	 DWORD PTR _wp$[ebp]
  0005e	8d 8b 78 09 00
	00		 lea	 ecx, DWORD PTR [ebx+2424]
  00064	ff 15 00 00 00
	00		 call	 DWORD PTR __imp_??4?$CStringT@DV?$StrTraitMFC_DLL@DV?$ChTraitsCRT@D@ATL@@@@@ATL@@QAEAAV01@ABV01@@Z
  0006a	8b ce		 mov	 ecx, esi

; 1604 : 				m_xSTAnalysisInput.m_Info.nFolderIndx	= 0;

  0006c	c7 83 88 09 00
	00 00 00 00 00	 mov	 DWORD PTR [ebx+2440], 0

; 1605 : 				m_xSTAnalysisInput.m_Info.nItemIndx		= 0;

  00076	c7 83 8c 09 00
	00 00 00 00 00	 mov	 DWORD PTR [ebx+2444], 0
  00080	ff 15 00 00 00
	00		 call	 DWORD PTR __imp_??1?$CStringT@DV?$StrTraitMFC_DLL@DV?$ChTraitsCRT@D@ATL@@@@@ATL@@QAE@XZ
  00086	8b cf		 mov	 ecx, edi
  00088	ff 15 00 00 00
	00		 call	 DWORD PTR __imp_??1?$CStringT@DV?$StrTraitMFC_DLL@DV?$ChTraitsCRT@D@ATL@@@@@ATL@@QAE@XZ
  0008e	8b 75 08	 mov	 esi, DWORD PTR _wp$[ebp]
  00091	8b ce		 mov	 ecx, esi
  00093	ff 15 00 00 00
	00		 call	 DWORD PTR __imp_??1?$CStringT@DV?$StrTraitMFC_DLL@DV?$ChTraitsCRT@D@ATL@@@@@ATL@@QAE@XZ
  00099	6a 18		 push	 24			; 00000018H
  0009b	56		 push	 esi
  0009c	e8 00 00 00 00	 call	 ??3@YAXPAXI@Z		; operator delete
  000a1	83 c4 08	 add	 esp, 8

; 1586 : 	RunMultiST();

  000a4	8b cb		 mov	 ecx, ebx
  000a6	e8 00 00 00 00	 call	 ?RunMultiST@CTabSystemTradingEx@@QAEXXZ ; CTabSystemTradingEx::RunMultiST

; 1624 : 		break;
; 1625 : 	}
; 1626 : 	return 0L;

  000ab	5f		 pop	 edi
  000ac	5e		 pop	 esi

; 1627 : }

  000ad	33 c0		 xor	 eax, eax
  000af	5b		 pop	 ebx
  000b0	5d		 pop	 ebp
  000b1	c2 08 00	 ret	 8
$LN5@OnRmsgInde:

; 1606 : 
; 1607 : 				delete pInData;
; 1608 : 				pInData = NULL;
; 1609 : 			}
; 1610 : 			else
; 1611 : 			{
; 1612 : 				m_xSTAnalysisInput.m_Info.nSTType		= -1;
; 1613 : 				m_xSTAnalysisInput.m_Info.szSTName		= "";

  000b4	68 00 00 00 00	 push	 OFFSET ??_C@_00CNPNBAHC@@
  000b9	c7 83 84 09 00
	00 ff ff ff ff	 mov	 DWORD PTR [ebx+2436], -1
  000c3	ff 15 00 00 00
	00		 call	 DWORD PTR __imp_??4?$CStringT@DV?$StrTraitMFC_DLL@DV?$ChTraitsCRT@D@ATL@@@@@ATL@@QAEAAV01@PBD@Z

; 1614 : 				m_xSTAnalysisInput.m_Info.szSTPath		= "";

  000c9	68 00 00 00 00	 push	 OFFSET ??_C@_00CNPNBAHC@@
  000ce	8d 8b 80 09 00
	00		 lea	 ecx, DWORD PTR [ebx+2432]
  000d4	ff 15 00 00 00
	00		 call	 DWORD PTR __imp_??4?$CStringT@DV?$StrTraitMFC_DLL@DV?$ChTraitsCRT@D@ATL@@@@@ATL@@QAEAAV01@PBD@Z

; 1615 : 				m_xSTAnalysisInput.m_Info.szSTRData		= "";	

  000da	68 00 00 00 00	 push	 OFFSET ??_C@_00CNPNBAHC@@
  000df	8d 8b 78 09 00
	00		 lea	 ecx, DWORD PTR [ebx+2424]
  000e5	ff 15 00 00 00
	00		 call	 DWORD PTR __imp_??4?$CStringT@DV?$StrTraitMFC_DLL@DV?$ChTraitsCRT@D@ATL@@@@@ATL@@QAEAAV01@PBD@Z

; 1586 : 	RunMultiST();

  000eb	8b cb		 mov	 ecx, ebx

; 1616 : 				m_xSTAnalysisInput.m_Info.nFolderIndx	= -1;

  000ed	c7 83 88 09 00
	00 ff ff ff ff	 mov	 DWORD PTR [ebx+2440], -1

; 1617 : 				m_xSTAnalysisInput.m_Info.nItemIndx		= -1;	

  000f7	c7 83 8c 09 00
	00 ff ff ff ff	 mov	 DWORD PTR [ebx+2444], -1

; 1586 : 	RunMultiST();

  00101	e8 00 00 00 00	 call	 ?RunMultiST@CTabSystemTradingEx@@QAEXXZ ; CTabSystemTradingEx::RunMultiST

; 1624 : 		break;
; 1625 : 	}
; 1626 : 	return 0L;

  00106	5f		 pop	 edi
  00107	5e		 pop	 esi
$LN20@OnRmsgInde:

; 1627 : }

  00108	33 c0		 xor	 eax, eax
  0010a	5b		 pop	 ebx
  0010b	5d		 pop	 ebp
  0010c	c2 08 00	 ret	 8
?OnRmsgIndexAddinNotifyRawData@CTabSystemTradingEx@@IAEJIJ@Z ENDP ; CTabSystemTradingEx::OnRmsgIndexAddinNotifyRawData
_TEXT	ENDS
; Function compile flags: /Ogtp
; File D:\git\src\IBK\IBK_DRFN\ProjSrc\SrcDrfn\Chart\MULTICHART\TabSystemTradingEx.cpp
;	COMDAT ?OnRmsgMultiST@CTabSystemTradingEx@@IAEJIJ@Z
_TEXT	SEGMENT
_wp$ = 8						; size = 4
_lp$ = 12						; size = 4
?OnRmsgMultiST@CTabSystemTradingEx@@IAEJIJ@Z PROC	; CTabSystemTradingEx::OnRmsgMultiST, COMDAT
; _this$ = ecx

; 1586 : 	RunMultiST();

  00000	e8 00 00 00 00	 call	 ?RunMultiST@CTabSystemTradingEx@@QAEXXZ ; CTabSystemTradingEx::RunMultiST

; 1587 : 	return 0L;

  00005	33 c0		 xor	 eax, eax

; 1588 : }

  00007	c2 08 00	 ret	 8
?OnRmsgMultiST@CTabSystemTradingEx@@IAEJIJ@Z ENDP	; CTabSystemTradingEx::OnRmsgMultiST
_TEXT	ENDS
; Function compile flags: /Ogtp
; File D:\git\src\IBK\IBK_DRFN\ProjSrc\SrcDrfn\Chart\MULTICHART\TabSystemTradingEx.cpp
; File C:\Program Files (x86)\Microsoft Visual Studio\2019\Community\VC\Tools\MSVC\14.29.30133\atlmfc\include\cstringt.h
; File D:\git\src\IBK\IBK_DRFN\ProjSrc\SrcDrfn\Chart\MULTICHART\TabSystemTradingEx.cpp
; File C:\Program Files (x86)\Microsoft Visual Studio\2019\Community\VC\Tools\MSVC\14.29.30133\atlmfc\include\cstringt.h
; File C:\Program Files (x86)\Microsoft Visual Studio\2019\Community\VC\Tools\MSVC\14.29.30133\atlmfc\include\atlsimpstr.h
; File C:\Program Files (x86)\Microsoft Visual Studio\2019\Community\VC\Tools\MSVC\14.29.30133\atlmfc\include\cstringt.h
; File D:\git\src\IBK\IBK_DRFN\ProjSrc\SrcDrfn\Chart\MULTICHART\TabSystemTradingEx.cpp
;	COMDAT ?OnRmsgObItemDBClk@CTabSystemTradingEx@@IAEJIJ@Z
_TEXT	SEGMENT
$T2 = -296						; size = 4
$T3 = -292						; size = 4
_szSTPath$ = -288					; size = 4
_szPath$ = -284						; size = 4
_szTmp$4 = -280						; size = 4
$T5 = -280						; size = 4
_aSDName$ = -276					; size = 260
__$ArrayPad$ = -16					; size = 4
__$EHRec$ = -12						; size = 12
_wParam$ = 8						; size = 4
_lParam$ = 12						; size = 4
?OnRmsgObItemDBClk@CTabSystemTradingEx@@IAEJIJ@Z PROC	; CTabSystemTradingEx::OnRmsgObItemDBClk, COMDAT
; _this$ = ecx

; 1357 : {

  00000	55		 push	 ebp
  00001	8b ec		 mov	 ebp, esp
  00003	6a ff		 push	 -1
  00005	68 00 00 00 00	 push	 __ehhandler$?OnRmsgObItemDBClk@CTabSystemTradingEx@@IAEJIJ@Z
  0000a	64 a1 00 00 00
	00		 mov	 eax, DWORD PTR fs:0
  00010	50		 push	 eax
  00011	81 ec 1c 01 00
	00		 sub	 esp, 284		; 0000011cH
  00017	a1 00 00 00 00	 mov	 eax, DWORD PTR ___security_cookie
  0001c	33 c5		 xor	 eax, ebp
  0001e	89 45 f0	 mov	 DWORD PTR __$ArrayPad$[ebp], eax
  00021	53		 push	 ebx
  00022	56		 push	 esi
  00023	57		 push	 edi
  00024	50		 push	 eax
  00025	8d 45 f4	 lea	 eax, DWORD PTR __$EHRec$[ebp]
  00028	64 a3 00 00 00
	00		 mov	 DWORD PTR fs:0, eax
  0002e	8b f9		 mov	 edi, ecx
  00030	8b 5d 0c	 mov	 ebx, DWORD PTR _lParam$[ebp]

; 1358 : 	STMNG_ITEMINFO* pArg = (STMNG_ITEMINFO*)lParam;
; 1359 : 
; 1360 : 	m_xSTAnalysisInput.m_Info.nSTType		= pArg->nSTType;
; 1361 : 	m_xSTAnalysisInput.m_Info.szSTName		= pArg->szSTName;

  00033	8d 8f 7c 09 00
	00		 lea	 ecx, DWORD PTR [edi+2428]
  00039	c7 85 dc fe ff
	ff 00 00 00 00	 mov	 DWORD PTR $T3[ebp], 0
  00043	8b 43 0c	 mov	 eax, DWORD PTR [ebx+12]
  00046	8d 73 04	 lea	 esi, DWORD PTR [ebx+4]
  00049	56		 push	 esi
  0004a	89 87 84 09 00
	00		 mov	 DWORD PTR [edi+2436], eax
  00050	ff 15 00 00 00
	00		 call	 DWORD PTR __imp_??4?$CStringT@DV?$StrTraitMFC_DLL@DV?$ChTraitsCRT@D@ATL@@@@@ATL@@QAEAAV01@ABV01@@Z

; 1362 : 	m_xSTAnalysisInput.m_Info.szSTPath		= pArg->szSTPath;

  00056	8d 43 08	 lea	 eax, DWORD PTR [ebx+8]
  00059	50		 push	 eax
  0005a	8d 8f 80 09 00
	00		 lea	 ecx, DWORD PTR [edi+2432]
  00060	ff 15 00 00 00
	00		 call	 DWORD PTR __imp_??4?$CStringT@DV?$StrTraitMFC_DLL@DV?$ChTraitsCRT@D@ATL@@@@@ATL@@QAEAAV01@ABV01@@Z

; 1363 : 	m_xSTAnalysisInput.m_Info.szSTRData		= pArg->szSTRData;	

  00066	53		 push	 ebx
  00067	8d 8f 78 09 00
	00		 lea	 ecx, DWORD PTR [edi+2424]
  0006d	ff 15 00 00 00
	00		 call	 DWORD PTR __imp_??4?$CStringT@DV?$StrTraitMFC_DLL@DV?$ChTraitsCRT@D@ATL@@@@@ATL@@QAEAAV01@ABV01@@Z

; 1364 : 	m_xSTAnalysisInput.m_Info.nFolderIndx	= pArg->nFolderIndx;

  00073	8b 43 10	 mov	 eax, DWORD PTR [ebx+16]

; 1365 : 	m_xSTAnalysisInput.m_Info.nItemIndx		= pArg->nItemIndx;	
; 1366 : 
; 1367 : 	m_xSTAnalysisInput.m_InfoForAnalysis.nSTType		= pArg->nSTType;
; 1368 : 	m_xSTAnalysisInput.m_InfoForAnalysis.szSTName		= pArg->szSTName;

  00076	8d 8f 94 09 00
	00		 lea	 ecx, DWORD PTR [edi+2452]
  0007c	89 87 88 09 00
	00		 mov	 DWORD PTR [edi+2440], eax
  00082	8b 43 14	 mov	 eax, DWORD PTR [ebx+20]
  00085	89 87 8c 09 00
	00		 mov	 DWORD PTR [edi+2444], eax
  0008b	8b 43 0c	 mov	 eax, DWORD PTR [ebx+12]
  0008e	56		 push	 esi
  0008f	89 87 9c 09 00
	00		 mov	 DWORD PTR [edi+2460], eax
  00095	ff 15 00 00 00
	00		 call	 DWORD PTR __imp_??4?$CStringT@DV?$StrTraitMFC_DLL@DV?$ChTraitsCRT@D@ATL@@@@@ATL@@QAEAAV01@ABV01@@Z

; 1369 : 	m_xSTAnalysisInput.m_InfoForAnalysis.szSTPath		= pArg->szSTPath;

  0009b	8d 43 08	 lea	 eax, DWORD PTR [ebx+8]
  0009e	50		 push	 eax
  0009f	8d 8f 98 09 00
	00		 lea	 ecx, DWORD PTR [edi+2456]
  000a5	ff 15 00 00 00
	00		 call	 DWORD PTR __imp_??4?$CStringT@DV?$StrTraitMFC_DLL@DV?$ChTraitsCRT@D@ATL@@@@@ATL@@QAEAAV01@ABV01@@Z

; 1370 : 	m_xSTAnalysisInput.m_InfoForAnalysis.szSTRData		= pArg->szSTRData;	

  000ab	53		 push	 ebx
  000ac	8d 8f 90 09 00
	00		 lea	 ecx, DWORD PTR [edi+2448]
  000b2	ff 15 00 00 00
	00		 call	 DWORD PTR __imp_??4?$CStringT@DV?$StrTraitMFC_DLL@DV?$ChTraitsCRT@D@ATL@@@@@ATL@@QAEAAV01@ABV01@@Z

; 1371 : 	m_xSTAnalysisInput.m_InfoForAnalysis.nFolderIndx	= pArg->nFolderIndx;

  000b8	8b 43 10	 mov	 eax, DWORD PTR [ebx+16]

; 1372 : 	m_xSTAnalysisInput.m_InfoForAnalysis.nItemIndx		= pArg->nItemIndx;	
; 1373 : 
; 1374 : #ifndef _DEBUG
; 1375 : 	if(m_xSTAnalysisInput.GetCount()==0) return 0L;	//      .

  000bb	8b 8f 74 09 00
	00		 mov	 ecx, DWORD PTR [edi+2420]
  000c1	89 87 a0 09 00
	00		 mov	 DWORD PTR [edi+2464], eax
  000c7	8b 43 14	 mov	 eax, DWORD PTR [ebx+20]
  000ca	89 87 a4 09 00
	00		 mov	 DWORD PTR [edi+2468], eax
  000d0	8d 87 74 09 00
	00		 lea	 eax, DWORD PTR [edi+2420]
  000d6	50		 push	 eax
  000d7	ff 51 20	 call	 DWORD PTR [ecx+32]
  000da	85 c0		 test	 eax, eax
  000dc	0f 84 02 02 00
	00		 je	 $LN1@OnRmsgObIt
$LN2@OnRmsgObIt:

; 1376 : #endif
; 1377 : 
; 1378 : 	 //m_xSTRunManager.RunST(pArg->szSTName);
; 1379 : 	 //PostMessage(WM_COMMAND, IDC_STWIZARDA, 0);
; 1380 : 	CString szPath;

  000e2	8d 8d e4 fe ff
	ff		 lea	 ecx, DWORD PTR _szPath$[ebp]
  000e8	ff 15 00 00 00
	00		 call	 DWORD PTR __imp_??0?$CStringT@DV?$StrTraitMFC_DLL@DV?$ChTraitsCRT@D@ATL@@@@@ATL@@QAE@XZ

; 1381 : 	szPath.Format("%s\\%s.ST", pArg->szSTPath, pArg->szSTName);

  000ee	ff 36		 push	 DWORD PTR [esi]
  000f0	8d 85 e4 fe ff
	ff		 lea	 eax, DWORD PTR _szPath$[ebp]
  000f6	c7 45 fc 00 00
	00 00		 mov	 DWORD PTR __$EHRec$[ebp+8], 0
  000fd	ff 73 08	 push	 DWORD PTR [ebx+8]
  00100	68 00 00 00 00	 push	 OFFSET ??_C@_08OOJOHCD@?$CFs?2?$CFs?4ST@
  00105	50		 push	 eax
  00106	ff 15 00 00 00
	00		 call	 DWORD PTR __imp_?Format@?$CStringT@DV?$StrTraitMFC_DLL@DV?$ChTraitsCRT@D@ATL@@@@@ATL@@QAAXPBDZZ
  0010c	83 c4 10	 add	 esp, 16			; 00000010H

; 1382 : 
; 1383 : 	int nRunSTType = STRun_Type_ST;
; 1384 : 
; 1385 : 	//         .
; 1386 : 	// @1 : , @2,@3,@7 : , @4, @5 : , @8 : 
; 1387 : 	//if(pArg->szSTName.Find("@1")>0)
; 1388 : 	if(pArg->szSTName.Find("^1")>0)	//090902-solomon @->^

  0010f	8b ce		 mov	 ecx, esi
  00111	6a 00		 push	 0
  00113	68 00 00 00 00	 push	 OFFSET ??_C@_02KAMBCCOF@?$FO1@
  00118	ff 15 00 00 00
	00		 call	 DWORD PTR __imp_?Find@?$CStringT@DV?$StrTraitMFC_DLL@DV?$ChTraitsCRT@D@ATL@@@@@ATL@@QBEHPBDH@Z
  0011e	85 c0		 test	 eax, eax
  00120	7e 0a		 jle	 SHORT $LN3@OnRmsgObIt

; 1389 : 	{
; 1390 : 		nRunSTType = STRun_Type_Index;
; 1391 : 		return RunIndexSD(nRunSTType, pArg);

  00122	b8 01 00 00 00	 mov	 eax, 1
  00127	e9 9f 01 00 00	 jmp	 $LN17@OnRmsgObIt
$LN3@OnRmsgObIt:

; 1392 : 	}
; 1393 : 	//else if(m_xSTAnalysisInput.m_Info.szSTRData.CompareNoCase("")==0)
; 1394 : 	//else if(pArg->szSTName.Find("@4")>0	|| pArg->szSTName.Find("@5")>0)
; 1395 : 	else if(pArg->szSTName.Find("^4")>0	|| pArg->szSTName.Find("^5")>0)	//090902-solomon @->^

  0012c	6a 00		 push	 0
  0012e	68 00 00 00 00	 push	 OFFSET ??_C@_02NNLGNGKA@?$FO4@
  00133	8b ce		 mov	 ecx, esi
  00135	ff 15 00 00 00
	00		 call	 DWORD PTR __imp_?Find@?$CStringT@DV?$StrTraitMFC_DLL@DV?$ChTraitsCRT@D@ATL@@@@@ATL@@QBEHPBDH@Z
  0013b	85 c0		 test	 eax, eax
  0013d	0f 8f 83 01 00
	00		 jg	 $LN7@OnRmsgObIt
  00143	6a 00		 push	 0
  00145	68 00 00 00 00	 push	 OFFSET ??_C@_02MEKNOHOB@?$FO5@
  0014a	8b ce		 mov	 ecx, esi
  0014c	ff 15 00 00 00
	00		 call	 DWORD PTR __imp_?Find@?$CStringT@DV?$StrTraitMFC_DLL@DV?$ChTraitsCRT@D@ATL@@@@@ATL@@QBEHPBDH@Z
  00152	85 c0		 test	 eax, eax
  00154	0f 8f 6c 01 00
	00		 jg	 $LN7@OnRmsgObIt

; 1400 : 	}
; 1401 : 	//else if(pArg->szSTName.Find("@0")==0) return 0L;	//   .
; 1402 : 	else if(pArg->szSTName.Find("^0")==0) return 0L;	//090902-solomon @->^

  0015a	6a 00		 push	 0
  0015c	68 00 00 00 00	 push	 OFFSET ??_C@_02LJNKBDKE@?$FO0@
  00161	8b ce		 mov	 ecx, esi
  00163	ff 15 00 00 00
	00		 call	 DWORD PTR __imp_?Find@?$CStringT@DV?$StrTraitMFC_DLL@DV?$ChTraitsCRT@D@ATL@@@@@ATL@@QBEHPBDH@Z
  00169	85 c0		 test	 eax, eax
  0016b	75 07		 jne	 SHORT $LN8@OnRmsgObIt
  0016d	33 f6		 xor	 esi, esi
  0016f	e9 62 01 00 00	 jmp	 $LN19@OnRmsgObIt
$LN8@OnRmsgObIt:
; File C:\Program Files (x86)\Microsoft Visual Studio\2019\Community\VC\Tools\MSVC\14.29.30133\atlmfc\include\cstringt.h

; 2401 : 		CStringT strResult( str1.GetManager() );

  00174	8d 4b 08	 lea	 ecx, DWORD PTR [ebx+8]
; File D:\git\src\IBK\IBK_DRFN\ProjSrc\SrcDrfn\Chart\MULTICHART\TabSystemTradingEx.cpp

; 1404 : 	CString szSTPath = pArg->szSTPath + "\\" + pArg->szSTName + ".ST";

  00177	c6 45 fc 01	 mov	 BYTE PTR __$EHRec$[ebp+8], 1
; File C:\Program Files (x86)\Microsoft Visual Studio\2019\Community\VC\Tools\MSVC\14.29.30133\atlmfc\include\cstringt.h

; 2401 : 		CStringT strResult( str1.GetManager() );

  0017b	ff 15 00 00 00
	00		 call	 DWORD PTR __imp_?GetManager@?$CStringT@DV?$StrTraitMFC_DLL@DV?$ChTraitsCRT@D@ATL@@@@@ATL@@QBEPAUIAtlStringMgr@2@XZ
  00181	50		 push	 eax
  00182	8d 8d e8 fe ff
	ff		 lea	 ecx, DWORD PTR $T5[ebp]
  00188	ff 15 00 00 00
	00		 call	 DWORD PTR __imp_??0?$CStringT@DV?$StrTraitMFC_DLL@DV?$ChTraitsCRT@D@ATL@@@@@ATL@@QAE@PAUIAtlStringMgr@1@@Z
; File C:\Program Files (x86)\Microsoft Visual Studio\2019\Community\VC\Tools\MSVC\14.29.30133\atlmfc\include\atlsimpstr.h

; 519  : 		return( GetData()->nDataLength );

  0018e	8b 43 08	 mov	 eax, DWORD PTR [ebx+8]
; File C:\Program Files (x86)\Microsoft Visual Studio\2019\Community\VC\Tools\MSVC\14.29.30133\atlmfc\include\cstringt.h

; 2403 : 		CThisSimpleString::Concatenate( strResult, str1, str1.GetLength(), psz2, CThisSimpleString::StringLength( psz2 ) );

  00191	6a 01		 push	 1
  00193	68 00 00 00 00	 push	 OFFSET ??_C@_01KICIPPFI@?2@

; 2404 : 
; 2405 : 		return( strResult );

  00198	c7 85 dc fe ff
	ff 01 00 00 00	 mov	 DWORD PTR $T3[ebp], 1
  001a2	ff 70 f4	 push	 DWORD PTR [eax-12]
  001a5	50		 push	 eax
  001a6	8d 85 e8 fe ff
	ff		 lea	 eax, DWORD PTR $T5[ebp]
  001ac	50		 push	 eax
  001ad	ff 15 00 00 00
	00		 call	 DWORD PTR __imp_?Concatenate@?$CSimpleStringT@D$00@ATL@@KAXAAV12@PBDH1H@Z
; File D:\git\src\IBK\IBK_DRFN\ProjSrc\SrcDrfn\Chart\MULTICHART\TabSystemTradingEx.cpp

; 1404 : 	CString szSTPath = pArg->szSTPath + "\\" + pArg->szSTName + ".ST";

  001b3	56		 push	 esi
  001b4	8d 85 e8 fe ff
	ff		 lea	 eax, DWORD PTR $T5[ebp]
  001ba	50		 push	 eax
  001bb	8d 85 d8 fe ff
	ff		 lea	 eax, DWORD PTR $T2[ebp]
  001c1	50		 push	 eax
  001c2	e8 00 00 00 00	 call	 ??HATL@@YA?AV?$CStringT@DV?$StrTraitMFC_DLL@DV?$ChTraitsCRT@D@ATL@@@@@0@ABV10@0@Z ; ATL::operator+
  001c7	68 00 00 00 00	 push	 OFFSET ??_C@_03COHLPAFH@?4ST@
  001cc	50		 push	 eax
  001cd	8d 85 e0 fe ff
	ff		 lea	 eax, DWORD PTR _szSTPath$[ebp]
  001d3	c6 45 fc 02	 mov	 BYTE PTR __$EHRec$[ebp+8], 2
  001d7	50		 push	 eax
  001d8	e8 00 00 00 00	 call	 ??HATL@@YA?AV?$CStringT@DV?$StrTraitMFC_DLL@DV?$ChTraitsCRT@D@ATL@@@@@0@ABV10@PBD@Z ; ATL::operator+
  001dd	83 c4 2c	 add	 esp, 44			; 0000002cH
  001e0	8d 8d d8 fe ff
	ff		 lea	 ecx, DWORD PTR $T2[ebp]
  001e6	ff 15 00 00 00
	00		 call	 DWORD PTR __imp_??1?$CStringT@DV?$StrTraitMFC_DLL@DV?$ChTraitsCRT@D@ATL@@@@@ATL@@QAE@XZ
  001ec	8d 8d e8 fe ff
	ff		 lea	 ecx, DWORD PTR $T5[ebp]
  001f2	c6 45 fc 05	 mov	 BYTE PTR __$EHRec$[ebp+8], 5
  001f6	ff 15 00 00 00
	00		 call	 DWORD PTR __imp_??1?$CStringT@DV?$StrTraitMFC_DLL@DV?$ChTraitsCRT@D@ATL@@@@@ATL@@QAE@XZ

; 1405 : 	char aSDName[MAX_PATH]={0,};

  001fc	68 04 01 00 00	 push	 260			; 00000104H
  00201	8d 85 ec fe ff
	ff		 lea	 eax, DWORD PTR _aSDName$[ebp]
  00207	6a 00		 push	 0
  00209	50		 push	 eax
  0020a	e8 00 00 00 00	 call	 _memset
  0020f	83 c4 0c	 add	 esp, 12			; 0000000cH

; 1406 : 	if(::GetPrivateProfileString("StrategyList", "PosName0", pArg->szSTName, aSDName, MAX_PATH, szSTPath)==0)

  00212	8d 85 ec fe ff
	ff		 lea	 eax, DWORD PTR _aSDName$[ebp]
  00218	ff b5 e0 fe ff
	ff		 push	 DWORD PTR _szSTPath$[ebp]
  0021e	68 04 01 00 00	 push	 260			; 00000104H
  00223	50		 push	 eax
  00224	ff 36		 push	 DWORD PTR [esi]
  00226	68 00 00 00 00	 push	 OFFSET ??_C@_08HGPJPHIB@PosName0@
  0022b	68 00 00 00 00	 push	 OFFSET ??_C@_0N@GKFNKJGL@StrategyList@
  00230	ff 15 00 00 00
	00		 call	 DWORD PTR __imp__GetPrivateProfileStringA@24
  00236	85 c0		 test	 eax, eax
  00238	75 14		 jne	 SHORT $LN9@OnRmsgObIt

; 1423 : 
; 1424 : 
; 1425 : 
; 1426 : /*------------------------------------------------------------------------------- 
; 1427 :   ^^
; 1428 : ------------------------------------------------------------------------------- 
; 1429 : {
; 1430 : 		typedef struct 
; 1431 : 		{
; 1432 : 			CString szSTFile;
; 1433 : 			long	pChartInterface;
; 1434 : 			CString szCode;
; 1435 : 			int		nCount;
; 1436 : 			CString szEndData;
; 1437 : 			CStringArray stArrayPath;
; 1438 : 		} stAddinSTRun;
; 1439 : 
; 1440 : 		stAddinSTRun InData;
; 1441 : 		InData.szSTFile = pArg->szSTPath + "\\" + pArg->szSTName + ".st";
; 1442 : 		InData.pChartInterface = (long)&m_xSTInterface;
; 1443 : 		InData.szCode = m_xSTAnalysisInput.GetCode();
; 1444 : 		InData.nCount = m_xSTAnalysisInput.GetCount();
; 1445 : 		InData.szEndData = m_xSTAnalysisInput.GetEndDay();
; 1446 : 
; 1447 : #ifdef _DEBUG
; 1448 : 		CString strSystemPath = m_pParentDlg->m_strRootPath +  "\\" + STSD_D;
; 1449 : 		CString strUserPath = m_pParentDlg->m_strRootPath + "\\" + STUSER_D;
; 1450 : #else
; 1451 : 		CString strSystemPath = m_pParentDlg->m_strRootPath + "\\" + STSD;
; 1452 : 		CString strUserPath = m_pParentDlg->m_strRootPath + "\\" + STUSER;
; 1453 : #endif
; 1454 : 		InData.stArrayPath.Add(strSystemPath);//Data
; 1455 : 		InData.stArrayPath.Add(strUserPath);//User
; 1456 : 
; 1457 : 		CChartItem* pCItem = ((CChartMng*)m_pChartMng)->GetpChartItemSelected();
; 1458 : 		if(pCItem)
; 1459 : 			pCItem->InvokeAddInSTIndex("ChartSTIndexAddIn.dll", 10, (long)&InData);
; 1460 : 
; 1461 : 	}
; 1462 : ------------------------------------------------------------------------------- */
; 1463 : 	return 0L;

  0023a	8d 8d e0 fe ff
	ff		 lea	 ecx, DWORD PTR _szSTPath$[ebp]
  00240	8d 70 01	 lea	 esi, DWORD PTR [eax+1]
  00243	ff 15 00 00 00
	00		 call	 DWORD PTR __imp_??1?$CStringT@DV?$StrTraitMFC_DLL@DV?$ChTraitsCRT@D@ATL@@@@@ATL@@QAE@XZ
  00249	e9 88 00 00 00	 jmp	 $LN19@OnRmsgObIt
$LN9@OnRmsgObIt:

; 1407 : 		return 1L;
; 1408 : 
; 1409 : 	if(IsSTRun(szPath, aSDName, nRunSTType))

  0024e	6a 02		 push	 2
  00250	8d 85 ec fe ff
	ff		 lea	 eax, DWORD PTR _aSDName$[ebp]
  00256	8b cf		 mov	 ecx, edi
  00258	50		 push	 eax
  00259	ff b5 e4 fe ff
	ff		 push	 DWORD PTR _szPath$[ebp]
  0025f	e8 00 00 00 00	 call	 ?IsSTRun@CTabSystemTradingEx@@QAEHPBD0H@Z ; CTabSystemTradingEx::IsSTRun
  00264	85 c0		 test	 eax, eax
  00266	74 45		 je	 SHORT $LN10@OnRmsgObIt

; 1410 : 	{
; 1411 : 		//   .
; 1412 : 		//CChartItem* pCItem = ((CChartMng*)m_pChartMng)->GetpChartItemSelected();
; 1413 : 		//if(pCItem)
; 1414 : 		//	pCItem->InvokeAddInSTIndex("ChartSTIndexAddIn.dll", 7, NULL);
; 1415 : 		CString szTmp;

  00268	8d 8d e8 fe ff
	ff		 lea	 ecx, DWORD PTR _szTmp$4[ebp]
  0026e	ff 15 00 00 00
	00		 call	 DWORD PTR __imp_??0?$CStringT@DV?$StrTraitMFC_DLL@DV?$ChTraitsCRT@D@ATL@@@@@ATL@@QAE@XZ

; 1416 : 		m_xSTRunManager.RunST(FALSE, szTmp, (LONG)pArg);

  00274	8b 8f b0 09 00
	00		 mov	 ecx, DWORD PTR [edi+2480]
  0027a	8d 87 b0 09 00
	00		 lea	 eax, DWORD PTR [edi+2480]
  00280	53		 push	 ebx
  00281	8d 95 e8 fe ff
	ff		 lea	 edx, DWORD PTR _szTmp$4[ebp]
  00287	c6 45 fc 06	 mov	 BYTE PTR __$EHRec$[ebp+8], 6
  0028b	52		 push	 edx
  0028c	6a 00		 push	 0
  0028e	50		 push	 eax
  0028f	ff 11		 call	 DWORD PTR [ecx]

; 1417 : 		//m_szRunSTPath = _T("");
; 1418 : 		return 0L;

  00291	8d 8d e8 fe ff
	ff		 lea	 ecx, DWORD PTR _szTmp$4[ebp]
  00297	ff 15 00 00 00
	00		 call	 DWORD PTR __imp_??1?$CStringT@DV?$StrTraitMFC_DLL@DV?$ChTraitsCRT@D@ATL@@@@@ATL@@QAE@XZ

; 1423 : 
; 1424 : 
; 1425 : 
; 1426 : /*------------------------------------------------------------------------------- 
; 1427 :   ^^
; 1428 : ------------------------------------------------------------------------------- 
; 1429 : {
; 1430 : 		typedef struct 
; 1431 : 		{
; 1432 : 			CString szSTFile;
; 1433 : 			long	pChartInterface;
; 1434 : 			CString szCode;
; 1435 : 			int		nCount;
; 1436 : 			CString szEndData;
; 1437 : 			CStringArray stArrayPath;
; 1438 : 		} stAddinSTRun;
; 1439 : 
; 1440 : 		stAddinSTRun InData;
; 1441 : 		InData.szSTFile = pArg->szSTPath + "\\" + pArg->szSTName + ".st";
; 1442 : 		InData.pChartInterface = (long)&m_xSTInterface;
; 1443 : 		InData.szCode = m_xSTAnalysisInput.GetCode();
; 1444 : 		InData.nCount = m_xSTAnalysisInput.GetCount();
; 1445 : 		InData.szEndData = m_xSTAnalysisInput.GetEndDay();
; 1446 : 
; 1447 : #ifdef _DEBUG
; 1448 : 		CString strSystemPath = m_pParentDlg->m_strRootPath +  "\\" + STSD_D;
; 1449 : 		CString strUserPath = m_pParentDlg->m_strRootPath + "\\" + STUSER_D;
; 1450 : #else
; 1451 : 		CString strSystemPath = m_pParentDlg->m_strRootPath + "\\" + STSD;
; 1452 : 		CString strUserPath = m_pParentDlg->m_strRootPath + "\\" + STUSER;
; 1453 : #endif
; 1454 : 		InData.stArrayPath.Add(strSystemPath);//Data
; 1455 : 		InData.stArrayPath.Add(strUserPath);//User
; 1456 : 
; 1457 : 		CChartItem* pCItem = ((CChartMng*)m_pChartMng)->GetpChartItemSelected();
; 1458 : 		if(pCItem)
; 1459 : 			pCItem->InvokeAddInSTIndex("ChartSTIndexAddIn.dll", 10, (long)&InData);
; 1460 : 
; 1461 : 	}
; 1462 : ------------------------------------------------------------------------------- */
; 1463 : 	return 0L;

  0029d	8d 8d e0 fe ff
	ff		 lea	 ecx, DWORD PTR _szSTPath$[ebp]
  002a3	33 f6		 xor	 esi, esi
  002a5	ff 15 00 00 00
	00		 call	 DWORD PTR __imp_??1?$CStringT@DV?$StrTraitMFC_DLL@DV?$ChTraitsCRT@D@ATL@@@@@ATL@@QAE@XZ
  002ab	eb 29		 jmp	 SHORT $LN19@OnRmsgObIt
$LN10@OnRmsgObIt:

; 1419 : 	}
; 1420 : 
; 1421 : 	//   .
; 1422 : 	RunWizard(FALSE);

  002ad	6a 00		 push	 0
  002af	8b cf		 mov	 ecx, edi
  002b1	e8 00 00 00 00	 call	 ?RunWizard@CTabSystemTradingEx@@QAEXH@Z ; CTabSystemTradingEx::RunWizard

; 1423 : 
; 1424 : 
; 1425 : 
; 1426 : /*------------------------------------------------------------------------------- 
; 1427 :   ^^
; 1428 : ------------------------------------------------------------------------------- 
; 1429 : {
; 1430 : 		typedef struct 
; 1431 : 		{
; 1432 : 			CString szSTFile;
; 1433 : 			long	pChartInterface;
; 1434 : 			CString szCode;
; 1435 : 			int		nCount;
; 1436 : 			CString szEndData;
; 1437 : 			CStringArray stArrayPath;
; 1438 : 		} stAddinSTRun;
; 1439 : 
; 1440 : 		stAddinSTRun InData;
; 1441 : 		InData.szSTFile = pArg->szSTPath + "\\" + pArg->szSTName + ".st";
; 1442 : 		InData.pChartInterface = (long)&m_xSTInterface;
; 1443 : 		InData.szCode = m_xSTAnalysisInput.GetCode();
; 1444 : 		InData.nCount = m_xSTAnalysisInput.GetCount();
; 1445 : 		InData.szEndData = m_xSTAnalysisInput.GetEndDay();
; 1446 : 
; 1447 : #ifdef _DEBUG
; 1448 : 		CString strSystemPath = m_pParentDlg->m_strRootPath +  "\\" + STSD_D;
; 1449 : 		CString strUserPath = m_pParentDlg->m_strRootPath + "\\" + STUSER_D;
; 1450 : #else
; 1451 : 		CString strSystemPath = m_pParentDlg->m_strRootPath + "\\" + STSD;
; 1452 : 		CString strUserPath = m_pParentDlg->m_strRootPath + "\\" + STUSER;
; 1453 : #endif
; 1454 : 		InData.stArrayPath.Add(strSystemPath);//Data
; 1455 : 		InData.stArrayPath.Add(strUserPath);//User
; 1456 : 
; 1457 : 		CChartItem* pCItem = ((CChartMng*)m_pChartMng)->GetpChartItemSelected();
; 1458 : 		if(pCItem)
; 1459 : 			pCItem->InvokeAddInSTIndex("ChartSTIndexAddIn.dll", 10, (long)&InData);
; 1460 : 
; 1461 : 	}
; 1462 : ------------------------------------------------------------------------------- */
; 1463 : 	return 0L;

  002b6	8d 8d e0 fe ff
	ff		 lea	 ecx, DWORD PTR _szSTPath$[ebp]
  002bc	33 f6		 xor	 esi, esi
  002be	ff 15 00 00 00
	00		 call	 DWORD PTR __imp_??1?$CStringT@DV?$StrTraitMFC_DLL@DV?$ChTraitsCRT@D@ATL@@@@@ATL@@QAE@XZ
  002c4	eb 10		 jmp	 SHORT $LN19@OnRmsgObIt
$LN7@OnRmsgObIt:

; 1396 : 		//		|| pArg->szSTRData.Compare(SZSTKEY_USERINDEXN)==0)
; 1397 : 	{
; 1398 : 		nRunSTType = STRun_Type_BullBear;
; 1399 : 		return RunIndexSD(nRunSTType, pArg);

  002c6	b8 04 00 00 00	 mov	 eax, 4
$LN17@OnRmsgObIt:
  002cb	53		 push	 ebx
  002cc	50		 push	 eax
  002cd	8b cf		 mov	 ecx, edi
  002cf	e8 00 00 00 00	 call	 ?RunIndexSD@CTabSystemTradingEx@@QAEJHPAUSTMNG_ITEMINFO@@@Z ; CTabSystemTradingEx::RunIndexSD
  002d4	8b f0		 mov	 esi, eax
$LN19@OnRmsgObIt:

; 1423 : 
; 1424 : 
; 1425 : 
; 1426 : /*------------------------------------------------------------------------------- 
; 1427 :   ^^
; 1428 : ------------------------------------------------------------------------------- 
; 1429 : {
; 1430 : 		typedef struct 
; 1431 : 		{
; 1432 : 			CString szSTFile;
; 1433 : 			long	pChartInterface;
; 1434 : 			CString szCode;
; 1435 : 			int		nCount;
; 1436 : 			CString szEndData;
; 1437 : 			CStringArray stArrayPath;
; 1438 : 		} stAddinSTRun;
; 1439 : 
; 1440 : 		stAddinSTRun InData;
; 1441 : 		InData.szSTFile = pArg->szSTPath + "\\" + pArg->szSTName + ".st";
; 1442 : 		InData.pChartInterface = (long)&m_xSTInterface;
; 1443 : 		InData.szCode = m_xSTAnalysisInput.GetCode();
; 1444 : 		InData.nCount = m_xSTAnalysisInput.GetCount();
; 1445 : 		InData.szEndData = m_xSTAnalysisInput.GetEndDay();
; 1446 : 
; 1447 : #ifdef _DEBUG
; 1448 : 		CString strSystemPath = m_pParentDlg->m_strRootPath +  "\\" + STSD_D;
; 1449 : 		CString strUserPath = m_pParentDlg->m_strRootPath + "\\" + STUSER_D;
; 1450 : #else
; 1451 : 		CString strSystemPath = m_pParentDlg->m_strRootPath + "\\" + STSD;
; 1452 : 		CString strUserPath = m_pParentDlg->m_strRootPath + "\\" + STUSER;
; 1453 : #endif
; 1454 : 		InData.stArrayPath.Add(strSystemPath);//Data
; 1455 : 		InData.stArrayPath.Add(strUserPath);//User
; 1456 : 
; 1457 : 		CChartItem* pCItem = ((CChartMng*)m_pChartMng)->GetpChartItemSelected();
; 1458 : 		if(pCItem)
; 1459 : 			pCItem->InvokeAddInSTIndex("ChartSTIndexAddIn.dll", 10, (long)&InData);
; 1460 : 
; 1461 : 	}
; 1462 : ------------------------------------------------------------------------------- */
; 1463 : 	return 0L;

  002d6	8d 8d e4 fe ff
	ff		 lea	 ecx, DWORD PTR _szPath$[ebp]
  002dc	ff 15 00 00 00
	00		 call	 DWORD PTR __imp_??1?$CStringT@DV?$StrTraitMFC_DLL@DV?$ChTraitsCRT@D@ATL@@@@@ATL@@QAE@XZ
  002e2	8b c6		 mov	 eax, esi
$LN1@OnRmsgObIt:

; 1464 : }

  002e4	8b 4d f4	 mov	 ecx, DWORD PTR __$EHRec$[ebp]
  002e7	64 89 0d 00 00
	00 00		 mov	 DWORD PTR fs:0, ecx
  002ee	59		 pop	 ecx
  002ef	5f		 pop	 edi
  002f0	5e		 pop	 esi
  002f1	5b		 pop	 ebx
  002f2	8b 4d f0	 mov	 ecx, DWORD PTR __$ArrayPad$[ebp]
  002f5	33 cd		 xor	 ecx, ebp
  002f7	e8 00 00 00 00	 call	 @__security_check_cookie@4
  002fc	8b e5		 mov	 esp, ebp
  002fe	5d		 pop	 ebp
  002ff	c2 08 00	 ret	 8
_TEXT	ENDS
;	COMDAT text$x
text$x	SEGMENT
__unwindfunclet$?OnRmsgObItemDBClk@CTabSystemTradingEx@@IAEJIJ@Z$0:
  00000	8d 8d e4 fe ff
	ff		 lea	 ecx, DWORD PTR _szPath$[ebp]
  00006	ff 25 00 00 00
	00		 jmp	 DWORD PTR __imp_??1?$CStringT@DV?$StrTraitMFC_DLL@DV?$ChTraitsCRT@D@ATL@@@@@ATL@@QAE@XZ
__unwindfunclet$?OnRmsgObItemDBClk@CTabSystemTradingEx@@IAEJIJ@Z$5:
  0000c	8b 85 dc fe ff
	ff		 mov	 eax, DWORD PTR $T3[ebp]
  00012	83 e0 01	 and	 eax, 1
  00015	0f 84 13 00 00
	00		 je	 $LN25@OnRmsgObIt
  0001b	83 a5 dc fe ff
	ff fe		 and	 DWORD PTR $T3[ebp], -2	; fffffffeH
  00022	8d 8d e8 fe ff
	ff		 lea	 ecx, DWORD PTR $T5[ebp]
  00028	ff 25 00 00 00
	00		 jmp	 DWORD PTR __imp_??1?$CStringT@DV?$StrTraitMFC_DLL@DV?$ChTraitsCRT@D@ATL@@@@@ATL@@QAE@XZ
$LN25@OnRmsgObIt:
  0002e	c3		 ret	 0
__unwindfunclet$?OnRmsgObItemDBClk@CTabSystemTradingEx@@IAEJIJ@Z$2:
  0002f	8d 8d d8 fe ff
	ff		 lea	 ecx, DWORD PTR $T2[ebp]
  00035	ff 25 00 00 00
	00		 jmp	 DWORD PTR __imp_??1?$CStringT@DV?$StrTraitMFC_DLL@DV?$ChTraitsCRT@D@ATL@@@@@ATL@@QAE@XZ
__unwindfunclet$?OnRmsgObItemDBClk@CTabSystemTradingEx@@IAEJIJ@Z$3:
  0003b	8d 8d e0 fe ff
	ff		 lea	 ecx, DWORD PTR _szSTPath$[ebp]
  00041	ff 25 00 00 00
	00		 jmp	 DWORD PTR __imp_??1?$CStringT@DV?$StrTraitMFC_DLL@DV?$ChTraitsCRT@D@ATL@@@@@ATL@@QAE@XZ
__unwindfunclet$?OnRmsgObItemDBClk@CTabSystemTradingEx@@IAEJIJ@Z$4:
  00047	8d 8d e8 fe ff
	ff		 lea	 ecx, DWORD PTR _szTmp$4[ebp]
  0004d	ff 25 00 00 00
	00		 jmp	 DWORD PTR __imp_??1?$CStringT@DV?$StrTraitMFC_DLL@DV?$ChTraitsCRT@D@ATL@@@@@ATL@@QAE@XZ
  00053	cc		 int	 3
  00054	cc		 int	 3
  00055	cc		 int	 3
  00056	cc		 int	 3
  00057	cc		 int	 3
__ehhandler$?OnRmsgObItemDBClk@CTabSystemTradingEx@@IAEJIJ@Z:
  00058	90		 npad	 1
  00059	90		 npad	 1
  0005a	8b 54 24 08	 mov	 edx, DWORD PTR [esp+8]
  0005e	8d 42 0c	 lea	 eax, DWORD PTR [edx+12]
  00061	8b 8a d4 fe ff
	ff		 mov	 ecx, DWORD PTR [edx-300]
  00067	33 c8		 xor	 ecx, eax
  00069	e8 00 00 00 00	 call	 @__security_check_cookie@4
  0006e	8b 4a fc	 mov	 ecx, DWORD PTR [edx-4]
  00071	33 c8		 xor	 ecx, eax
  00073	e8 00 00 00 00	 call	 @__security_check_cookie@4
  00078	b8 00 00 00 00	 mov	 eax, OFFSET __ehfuncinfo$?OnRmsgObItemDBClk@CTabSystemTradingEx@@IAEJIJ@Z
  0007d	e9 00 00 00 00	 jmp	 ___CxxFrameHandler3
text$x	ENDS
?OnRmsgObItemDBClk@CTabSystemTradingEx@@IAEJIJ@Z ENDP	; CTabSystemTradingEx::OnRmsgObItemDBClk
; Function compile flags: /Ogtp
; File D:\git\src\IBK\IBK_DRFN\ProjSrc\SrcDrfn\Chart\MULTICHART\TabSystemTradingEx.cpp
;	COMDAT ?OnRmsgObItemClk@CTabSystemTradingEx@@IAEJIJ@Z
_TEXT	SEGMENT
_wParam$ = 8						; size = 4
_lParam$ = 12						; size = 4
?OnRmsgObItemClk@CTabSystemTradingEx@@IAEJIJ@Z PROC	; CTabSystemTradingEx::OnRmsgObItemClk, COMDAT
; _this$ = ecx

; 1320 : {

  00000	55		 push	 ebp
  00001	8b ec		 mov	 ebp, esp
  00003	56		 push	 esi

; 1321 : 	STMNG_ITEMINFO* pArg = (STMNG_ITEMINFO*)lParam;
; 1322 : 
; 1323 : 	m_xSTAnalysisInput.m_InfoForAnalysis.nSTType		= pArg->nSTType;

  00004	8b 75 0c	 mov	 esi, DWORD PTR _lParam$[ebp]
  00007	57		 push	 edi
  00008	8b f9		 mov	 edi, ecx
  0000a	8b 46 0c	 mov	 eax, DWORD PTR [esi+12]
  0000d	89 87 9c 09 00
	00		 mov	 DWORD PTR [edi+2460], eax

; 1324 : 	m_xSTAnalysisInput.m_InfoForAnalysis.szSTName		= pArg->szSTName;

  00013	8d 8f 94 09 00
	00		 lea	 ecx, DWORD PTR [edi+2452]
  00019	8d 46 04	 lea	 eax, DWORD PTR [esi+4]
  0001c	50		 push	 eax
  0001d	ff 15 00 00 00
	00		 call	 DWORD PTR __imp_??4?$CStringT@DV?$StrTraitMFC_DLL@DV?$ChTraitsCRT@D@ATL@@@@@ATL@@QAEAAV01@ABV01@@Z

; 1325 : 	m_xSTAnalysisInput.m_InfoForAnalysis.szSTPath		= pArg->szSTPath;

  00023	8d 46 08	 lea	 eax, DWORD PTR [esi+8]
  00026	50		 push	 eax
  00027	8d 8f 98 09 00
	00		 lea	 ecx, DWORD PTR [edi+2456]
  0002d	ff 15 00 00 00
	00		 call	 DWORD PTR __imp_??4?$CStringT@DV?$StrTraitMFC_DLL@DV?$ChTraitsCRT@D@ATL@@@@@ATL@@QAEAAV01@ABV01@@Z

; 1326 : 	m_xSTAnalysisInput.m_InfoForAnalysis.szSTRData		= pArg->szSTRData;	

  00033	56		 push	 esi
  00034	8d 8f 90 09 00
	00		 lea	 ecx, DWORD PTR [edi+2448]
  0003a	ff 15 00 00 00
	00		 call	 DWORD PTR __imp_??4?$CStringT@DV?$StrTraitMFC_DLL@DV?$ChTraitsCRT@D@ATL@@@@@ATL@@QAEAAV01@ABV01@@Z

; 1327 : 	m_xSTAnalysisInput.m_InfoForAnalysis.nFolderIndx	= pArg->nFolderIndx;

  00040	8b 46 10	 mov	 eax, DWORD PTR [esi+16]
  00043	89 87 a0 09 00
	00		 mov	 DWORD PTR [edi+2464], eax

; 1328 : 	m_xSTAnalysisInput.m_InfoForAnalysis.nItemIndx		= pArg->nItemIndx;	

  00049	8b 46 14	 mov	 eax, DWORD PTR [esi+20]
  0004c	89 87 a4 09 00
	00		 mov	 DWORD PTR [edi+2468], eax

; 1329 : 
; 1330 : 
; 1331 : 	return 0;

  00052	33 c0		 xor	 eax, eax
  00054	5f		 pop	 edi
  00055	5e		 pop	 esi

; 1332 : }

  00056	5d		 pop	 ebp
  00057	c2 08 00	 ret	 8
?OnRmsgObItemClk@CTabSystemTradingEx@@IAEJIJ@Z ENDP	; CTabSystemTradingEx::OnRmsgObItemClk
_TEXT	ENDS
; Function compile flags: /Ogtp
; File D:\git\src\IBK\IBK_DRFN\ProjSrc\SrcDrfn\Chart\MULTICHART\TabSystemTradingEx.cpp
;	COMDAT ?GetMessageMap@CTabSystemTradingEx@@MBEPBUAFX_MSGMAP@@XZ
_TEXT	SEGMENT
?GetMessageMap@CTabSystemTradingEx@@MBEPBUAFX_MSGMAP@@XZ PROC ; CTabSystemTradingEx::GetMessageMap, COMDAT
; _this$ = ecx

; 101  : BEGIN_MESSAGE_MAP(CTabSystemTradingEx, CTabDlg)

  00000	b8 00 00 00 00	 mov	 eax, OFFSET ?messageMap@?1??GetThisMessageMap@CTabSystemTradingEx@@KGPBUAFX_MSGMAP@@XZ@4U3@B
  00005	c3		 ret	 0
?GetMessageMap@CTabSystemTradingEx@@MBEPBUAFX_MSGMAP@@XZ ENDP ; CTabSystemTradingEx::GetMessageMap
_TEXT	ENDS
; Function compile flags: /Ogtp
; File D:\git\src\IBK\IBK_DRFN\ProjSrc\SrcDrfn\Chart\MULTICHART\TabSystemTradingEx.cpp
;	COMDAT ?GetThisMessageMap@CTabSystemTradingEx@@KGPBUAFX_MSGMAP@@XZ
_TEXT	SEGMENT
?GetThisMessageMap@CTabSystemTradingEx@@KGPBUAFX_MSGMAP@@XZ PROC ; CTabSystemTradingEx::GetThisMessageMap, COMDAT

; 102  : 	//{{AFX_MSG_MAP(CTabSystemTradingEx)
; 103  : 	ON_WM_SIZE()
; 104  : 	ON_WM_CTLCOLOR()
; 105  : 	ON_WM_DESTROY()
; 106  : 	ON_BN_CLICKED(IDC_STWIZARDA, OnBtnStwizardA)
; 107  : 	ON_BN_CLICKED(IDC_STOPTIMA, OnBtnStoptimaA)
; 108  : 	ON_BN_CLICKED(IDC_STDELETE, OnBtnStDelete)
; 109  : 	ON_BN_CLICKED(IDC_STANAL, OnBtnStanal)
; 110  : 	//}}AFX_MSG_MAP
; 111  : //	ON_WM_CONTEXTMENU()
; 112  : 	ON_BN_CLICKED(IDC_STCHKDIV, OnBnClickedStchkdiv)
; 113  : 	ON_REGISTERED_MESSAGE(RMSG_OB_ITEMCLICK		,OnRmsgObItemClk)
; 114  : 	ON_REGISTERED_MESSAGE(RMSG_OB_ITEMDBLCLK	,OnRmsgObItemDBClk)
; 115  : 	ON_REGISTERED_MESSAGE(RMSG_RUN_MULTIST		,OnRmsgMultiST)
; 116  : 	ON_REGISTERED_MESSAGE(RMSG_INDEXADDIN_NOTIFY_RAWDATA,OnRmsgIndexAddinNotifyRawData)
; 117  : 	ON_REGISTERED_MESSAGE(RMSG_INDEXADDIN_NOTIFY_BUYSELL, OnRmsgIndexAddinNotifyBuySell)
; 118  : 	ON_REGISTERED_MESSAGE(RMSG_INDEXADDIN_NOTIFY_SIGNAL , OnRmsgIndexAddinNotifySignal)
; 119  : 	ON_REGISTERED_MESSAGE(RMSG_DESTROY_CONFIRMWND, OnRmsgDestroyConfirmWnd)
; 120  : 	ON_REGISTERED_MESSAGE(RMSG_ISSTRUNSTATE, OnRmsgIsSTRunState)
; 121  : 	ON_BN_CLICKED(IDC_STSHOWOPTION, OnStshowoption)
; 122  : END_MESSAGE_MAP()

  00000	b8 00 00 00 00	 mov	 eax, OFFSET ?messageMap@?1??GetThisMessageMap@CTabSystemTradingEx@@KGPBUAFX_MSGMAP@@XZ@4U3@B
  00005	c3		 ret	 0
?GetThisMessageMap@CTabSystemTradingEx@@KGPBUAFX_MSGMAP@@XZ ENDP ; CTabSystemTradingEx::GetThisMessageMap
_TEXT	ENDS
; Function compile flags: /Ogtp
; File D:\git\src\IBK\IBK_DRFN\ProjSrc\SrcDrfn\Chart\MULTICHART\TabSystemTradingEx.cpp
;	COMDAT ?OnBtnStDelete@CTabSystemTradingEx@@IAEXXZ
_TEXT	SEGMENT
?OnBtnStDelete@CTabSystemTradingEx@@IAEXXZ PROC		; CTabSystemTradingEx::OnBtnStDelete, COMDAT
; _this$ = ecx

; 2346 : 	STClear();

  00000	e9 00 00 00 00	 jmp	 ?STClear@CTabSystemTradingEx@@QAEXXZ ; CTabSystemTradingEx::STClear
?OnBtnStDelete@CTabSystemTradingEx@@IAEXXZ ENDP		; CTabSystemTradingEx::OnBtnStDelete
_TEXT	ENDS
; Function compile flags: /Ogtp
; File D:\git\src\IBK\IBK_DRFN\ProjSrc\SrcDrfn\Chart\MULTICHART\TabSystemTradingEx.cpp
;	COMDAT ?OnBtnStanal@CTabSystemTradingEx@@IAEXXZ
_TEXT	SEGMENT
_pCItem$ = -4						; size = 4
?OnBtnStanal@CTabSystemTradingEx@@IAEXXZ PROC		; CTabSystemTradingEx::OnBtnStanal, COMDAT
; _this$ = ecx

; 483  : {

  00000	55		 push	 ebp
  00001	8b ec		 mov	 ebp, esp
  00003	51		 push	 ecx
  00004	56		 push	 esi
  00005	8b f1		 mov	 esi, ecx

; 484  : 	CChartItem* pCItem = ((CChartMng*)m_pChartMng)->GetpChartItemSelected();

  00007	8b 8e c4 00 00
	00		 mov	 ecx, DWORD PTR [esi+196]
  0000d	e8 00 00 00 00	 call	 ?GetpChartItemSelected@CChartMng@@QAEPAVCChartItem@@XZ ; CChartMng::GetpChartItemSelected
  00012	89 45 fc	 mov	 DWORD PTR _pCItem$[ebp], eax

; 485  : 	if(pCItem) 

  00015	85 c0		 test	 eax, eax
  00017	74 12		 je	 SHORT $LN2@OnBtnStana

; 486  : 	{
; 487  : 		pCItem->InvokeAddInSTIndex("ChartSTIndexAddIn.dll", 3, (long)&pCItem);

  00019	8d 4d fc	 lea	 ecx, DWORD PTR _pCItem$[ebp]
  0001c	51		 push	 ecx
  0001d	6a 03		 push	 3
  0001f	68 00 00 00 00	 push	 OFFSET ??_C@_0BG@CHJJKIAP@ChartSTIndexAddIn?4dll@
  00024	8b c8		 mov	 ecx, eax
  00026	e8 00 00 00 00	 call	 ?InvokeAddInSTIndex@CChartItem@@QAEHPBDFJ@Z ; CChartItem::InvokeAddInSTIndex
$LN2@OnBtnStana:

; 488  : 	}
; 489  : 	UINT nChk = IsDlgButtonChecked(IDC_STCHKDIV);

  0002b	68 7f 18 00 00	 push	 6271			; 0000187fH
  00030	8b ce		 mov	 ecx, esi
  00032	e8 00 00 00 00	 call	 ?IsDlgButtonChecked@CWnd@@QBEIH@Z ; CWnd::IsDlgButtonChecked

; 490  : 	if(nChk==0)

  00037	85 c0		 test	 eax, eax
  00039	75 37		 jne	 SHORT $LN3@OnBtnStana

; 1475 : 	if(nFolderIndx>=0 && nItemIndx>=0)	return TRUE;

  0003b	39 86 a0 09 00
	00		 cmp	 DWORD PTR [esi+2464], eax
  00041	7c 1c		 jl	 SHORT $LN9@OnBtnStana
  00043	39 86 a4 09 00
	00		 cmp	 DWORD PTR [esi+2468], eax
  00049	7c 14		 jl	 SHORT $LN9@OnBtnStana

; 496  : 			return;
; 497  : 		}
; 498  : 
; 499  : 		if(m_pDlgOption) m_pDlgOption->OpenRefort();//PostMessage(WM_COMMAND, IDC_STREPORT, 0);

  0004b	8b 8e c0 07 00
	00		 mov	 ecx, DWORD PTR [esi+1984]
  00051	85 c9		 test	 ecx, ecx
  00053	74 38		 je	 SHORT $LN4@OnBtnStana
  00055	e8 00 00 00 00	 call	 ?OpenRefort@CDlgSTExOption@@QAEXXZ ; CDlgSTExOption::OpenRefort
  0005a	5e		 pop	 esi

; 507  : 		// m_BtnStanal.ShowWindow(SW_HIDE);
; 508  : 	}
; 509  : }

  0005b	8b e5		 mov	 esp, ebp
  0005d	5d		 pop	 ebp
  0005e	c3		 ret	 0
$LN9@OnBtnStana:

; 491  : 	{
; 492  : 		BOOL bSel = IsSTSelected();
; 493  : 		if(!bSel)
; 494  : 		{
; 495  : 			AfxMessageBox("   ");

  0005f	6a 00		 push	 0
  00061	6a 00		 push	 0
  00063	68 00 00 00 00	 push	 OFFSET ??_C@_0CE@LIBOKAIK@?$MA?$PL?$LP?k?G?R?5?$MA?$PM?$LH?$KL?$MA?$LL?5?$LM?$LB?E?C?G?X?A?V?$LN?C?$LB?b?5?$LJ?Y?$LG?x@
  00068	e8 00 00 00 00	 call	 ?AfxMessageBox@@YGHPBDII@Z ; AfxMessageBox
  0006d	5e		 pop	 esi

; 507  : 		// m_BtnStanal.ShowWindow(SW_HIDE);
; 508  : 	}
; 509  : }

  0006e	8b e5		 mov	 esp, ebp
  00070	5d		 pop	 ebp
  00071	c3		 ret	 0
$LN3@OnBtnStana:

; 500  : 		//if(m_pDlgOption) m_pDlgOption->OnBnClickedStapply();
; 501  : 	}
; 502  : 	else
; 503  : 	{
; 504  : 		AfxMessageBox("/    .");

  00072	6a 00		 push	 0
  00074	6a 00		 push	 0
  00076	68 00 00 00 00	 push	 OFFSET ??_C@_0DB@EIJFPBEL@?$LK?P?G?R?1?A?$NP?C?$LI?$MA?O?5?$LA?f?$LP?l?$LP?$KB?$LE?B?5?$LK?$LI?$LA?m?$LM?$KN?5?$LJ?v?F@
  0007b	e8 00 00 00 00	 call	 ?AfxMessageBox@@YGHPBDII@Z ; AfxMessageBox

; 505  : 
; 506  : 		ShowHideStOptimaA(TRUE, TRUE);		// bChange=TRUE, bShowOption=TRUE

  00080	6a 00		 push	 0
  00082	6a 01		 push	 1
  00084	6a 01		 push	 1
  00086	8b ce		 mov	 ecx, esi
  00088	e8 00 00 00 00	 call	 ?ShowHideStOptimaA@CTabSystemTradingEx@@QAEXHHH@Z ; CTabSystemTradingEx::ShowHideStOptimaA
$LN4@OnBtnStana:
  0008d	5e		 pop	 esi

; 507  : 		// m_BtnStanal.ShowWindow(SW_HIDE);
; 508  : 	}
; 509  : }

  0008e	8b e5		 mov	 esp, ebp
  00090	5d		 pop	 ebp
  00091	c3		 ret	 0
?OnBtnStanal@CTabSystemTradingEx@@IAEXXZ ENDP		; CTabSystemTradingEx::OnBtnStanal
_TEXT	ENDS
; Function compile flags: /Ogtp
; File D:\git\src\IBK\IBK_DRFN\ProjSrc\SrcDrfn\Chart\MULTICHART\TabSystemTradingEx.cpp
; File C:\Program Files (x86)\Microsoft Visual Studio\2019\Community\VC\Tools\MSVC\14.29.30133\atlmfc\include\afxwin1.inl
; File D:\git\src\IBK\IBK_DRFN\ProjSrc\SrcDrfn\Chart\MULTICHART\TabSystemTradingEx.cpp
; File C:\Program Files (x86)\Microsoft Visual Studio\2019\Community\VC\Tools\MSVC\14.29.30133\atlmfc\include\afxwin1.inl
; File D:\git\src\IBK\IBK_DRFN\ProjSrc\SrcDrfn\Chart\MULTICHART\TabSystemTradingEx.cpp
; File C:\Program Files (x86)\Microsoft Visual Studio\2019\Community\VC\Tools\MSVC\14.29.30133\atlmfc\include\atltypes.h
; File D:\git\src\IBK\IBK_DRFN\ProjSrc\SrcDrfn\Chart\MULTICHART\TabSystemTradingEx.cpp
; File C:\Program Files (x86)\Microsoft Visual Studio\2019\Community\VC\Tools\MSVC\14.29.30133\atlmfc\include\afxwin2.inl
; File D:\git\src\IBK\IBK_DRFN\ProjSrc\SrcDrfn\Chart\MULTICHART\TabSystemTradingEx.cpp
; File C:\Program Files (x86)\Microsoft Visual Studio\2019\Community\VC\Tools\MSVC\14.29.30133\atlmfc\include\afxwin1.inl
; File D:\git\src\IBK\IBK_DRFN\ProjSrc\SrcDrfn\Chart\MULTICHART\TabSystemTradingEx.cpp
;	COMDAT ?OnBtnStoptimaA@CTabSystemTradingEx@@IAEXXZ
_TEXT	SEGMENT
__ctlState$ = -308					; size = 8
_szDllName$ = -300					; size = 4
_menu$ = -296						; size = 8
_stTitle$ = -288					; size = 4
_szProgID$2 = -284					; size = 4
_dlg$ = -280						; size = 248
_rect$ = -32						; size = 16
__$ArrayPad$ = -16					; size = 4
__$EHRec$ = -12						; size = 12
?OnBtnStoptimaA@CTabSystemTradingEx@@IAEXXZ PROC	; CTabSystemTradingEx::OnBtnStoptimaA, COMDAT
; _this$ = ecx

; 340  : {

  00000	55		 push	 ebp
  00001	8b ec		 mov	 ebp, esp
  00003	6a ff		 push	 -1
  00005	68 00 00 00 00	 push	 __ehhandler$?OnBtnStoptimaA@CTabSystemTradingEx@@IAEXXZ
  0000a	64 a1 00 00 00
	00		 mov	 eax, DWORD PTR fs:0
  00010	50		 push	 eax
  00011	81 ec 28 01 00
	00		 sub	 esp, 296		; 00000128H
  00017	a1 00 00 00 00	 mov	 eax, DWORD PTR ___security_cookie
  0001c	33 c5		 xor	 eax, ebp
  0001e	89 45 f0	 mov	 DWORD PTR __$ArrayPad$[ebp], eax
  00021	53		 push	 ebx
  00022	56		 push	 esi
  00023	57		 push	 edi
  00024	50		 push	 eax
  00025	8d 45 f4	 lea	 eax, DWORD PTR __$EHRec$[ebp]
  00028	64 a3 00 00 00
	00		 mov	 DWORD PTR fs:0, eax
  0002e	8b d9		 mov	 ebx, ecx
; File C:\Program Files (x86)\Microsoft Visual Studio\2019\Community\VC\Tools\MSVC\14.29.30133\atlmfc\include\afxwin1.inl

; 903  : 	{ m_hMenu = NULL; }

  00030	c7 85 d8 fe ff
	ff 00 00 00 00	 mov	 DWORD PTR _menu$[ebp], OFFSET ??_7CMenu@@6B@
  0003a	c7 85 dc fe ff
	ff 00 00 00 00	 mov	 DWORD PTR _menu$[ebp+4], 0
; File D:\git\src\IBK\IBK_DRFN\ProjSrc\SrcDrfn\Chart\MULTICHART\TabSystemTradingEx.cpp

; 341  : 	CMenu menu;

  00044	c7 45 fc 00 00
	00 00		 mov	 DWORD PTR __$EHRec$[ebp+8], 0
; File C:\Program Files (x86)\Microsoft Visual Studio\2019\Community\VC\Tools\MSVC\14.29.30133\atlmfc\include\afxwin1.inl

; 909  : 	{ return Attach(::CreatePopupMenu()); }

  0004b	ff 15 00 00 00
	00		 call	 DWORD PTR __imp__CreatePopupMenu@0
  00051	50		 push	 eax
  00052	8d 8d d8 fe ff
	ff		 lea	 ecx, DWORD PTR _menu$[ebp]
  00058	e8 00 00 00 00	 call	 ?Attach@CMenu@@QAEHPAUHMENU__@@@Z ; CMenu::Attach

; 924  : 	{ ASSERT(::IsMenu(m_hMenu)); return ::AppendMenu(m_hMenu, nFlags, nIDNewItem, lpszNewItem); }

  0005d	8b 35 00 00 00
	00		 mov	 esi, DWORD PTR __imp__AppendMenuA@16
  00063	68 00 00 00 00	 push	 OFFSET ??_C@_0L@OBHGFOPP@?$MA?$PM?$LH?$KL?C?V?$MA?$PL?H?$KN@
  00068	68 11 27 00 00	 push	 10001			; 00002711H
  0006d	6a 00		 push	 0
  0006f	ff b5 dc fe ff
	ff		 push	 DWORD PTR _menu$[ebp+4]
  00075	ff d6		 call	 esi
  00077	68 00 00 00 00	 push	 OFFSET ??_C@_0L@ODKOBBAJ@?$LK?$KP?$LM?v?C?V?$MA?$PL?H?$KN@
  0007c	68 12 27 00 00	 push	 10002			; 00002712H
  00081	6a 00		 push	 0
  00083	ff b5 dc fe ff
	ff		 push	 DWORD PTR _menu$[ebp+4]
  00089	ff d6		 call	 esi
  0008b	68 00 00 00 00	 push	 OFFSET ??_C@_0L@PKLMOOMC@?$LN?C?$LA?$KD?C?V?$MA?$PL?H?$KN@
  00090	68 13 27 00 00	 push	 10003			; 00002713H
  00095	6a 00		 push	 0
  00097	ff b5 dc fe ff
	ff		 push	 DWORD PTR _menu$[ebp+4]
  0009d	ff d6		 call	 esi
  0009f	0f 57 c0	 xorps	 xmm0, xmm0
; File D:\git\src\IBK\IBK_DRFN\ProjSrc\SrcDrfn\Chart\MULTICHART\TabSystemTradingEx.cpp

; 360  : 	GetDlgItem(IDC_STOPTIMA)->GetWindowRect(rect);

  000a2	8b cb		 mov	 ecx, ebx
  000a4	68 66 18 00 00	 push	 6246			; 00001866H
; File C:\Program Files (x86)\Microsoft Visual Studio\2019\Community\VC\Tools\MSVC\14.29.30133\atlmfc\include\atltypes.h

; 528  : 	left = 0;

  000a9	0f 11 45 e0	 movups	 XMMWORD PTR _rect$[ebp], xmm0
; File D:\git\src\IBK\IBK_DRFN\ProjSrc\SrcDrfn\Chart\MULTICHART\TabSystemTradingEx.cpp

; 360  : 	GetDlgItem(IDC_STOPTIMA)->GetWindowRect(rect);

  000ad	e8 00 00 00 00	 call	 ?GetDlgItem@CWnd@@QBEPAV1@H@Z ; CWnd::GetDlgItem
; File C:\Program Files (x86)\Microsoft Visual Studio\2019\Community\VC\Tools\MSVC\14.29.30133\atlmfc\include\afxwin2.inl

; 84   : 	{ ASSERT(::IsWindow(m_hWnd)); ::GetWindowRect(m_hWnd, lpRect); }

  000b2	8d 4d e0	 lea	 ecx, DWORD PTR _rect$[ebp]
  000b5	51		 push	 ecx
  000b6	ff 70 20	 push	 DWORD PTR [eax+32]
  000b9	ff 15 00 00 00
	00		 call	 DWORD PTR __imp__GetWindowRect@8
; File D:\git\src\IBK\IBK_DRFN\ProjSrc\SrcDrfn\Chart\MULTICHART\TabSystemTradingEx.cpp

; 361  : 	int nRetValue = menu.TrackPopupMenu(nFlagsForMenu, rect.left, rect.bottom, this);

  000bf	6a 00		 push	 0
  000c1	53		 push	 ebx
  000c2	ff 75 ec	 push	 DWORD PTR _rect$[ebp+12]
  000c5	8d 8d d8 fe ff
	ff		 lea	 ecx, DWORD PTR _menu$[ebp]
  000cb	ff 75 e0	 push	 DWORD PTR _rect$[ebp]
  000ce	68 82 01 00 00	 push	 386			; 00000182H
  000d3	e8 00 00 00 00	 call	 ?TrackPopupMenu@CMenu@@QAEHIHHPAVCWnd@@PBUtagRECT@@@Z ; CMenu::TrackPopupMenu
  000d8	8b f0		 mov	 esi, eax

; 362  : 	if(!nRetValue) return;

  000da	85 f6		 test	 esi, esi
  000dc	0f 84 e2 01 00
	00		 je	 $LN16@OnBtnStopt

; 363  : 	menu.DestroyMenu();

  000e2	8d 8d d8 fe ff
	ff		 lea	 ecx, DWORD PTR _menu$[ebp]
  000e8	e8 00 00 00 00	 call	 ?DestroyMenu@CMenu@@QAEHXZ ; CMenu::DestroyMenu

; 364  : 
; 365  : 	int nOptimizer = 0; // , ,  Flag 
; 366  : 	CString stTitle;

  000ed	8d 8d e0 fe ff
	ff		 lea	 ecx, DWORD PTR _stTitle$[ebp]
  000f3	33 ff		 xor	 edi, edi
  000f5	ff 15 00 00 00
	00		 call	 DWORD PTR __imp_??0?$CStringT@DV?$StrTraitMFC_DLL@DV?$ChTraitsCRT@D@ATL@@@@@ATL@@QAE@XZ
  000fb	c6 45 fc 02	 mov	 BYTE PTR __$EHRec$[ebp+8], 2

; 367  : 	//1001:,1002:,1003:
; 368  : 	switch(nRetValue) {

  000ff	81 ee 11 27 00
	00		 sub	 esi, 10001		; 00002711H
  00105	74 3a		 je	 SHORT $LN5@OnBtnStopt
  00107	83 ee 01	 sub	 esi, 1
  0010a	74 1d		 je	 SHORT $LN6@OnBtnStopt
  0010c	83 ee 01	 sub	 esi, 1
  0010f	75 46		 jne	 SHORT $LN2@OnBtnStopt

; 377  : 		case 10003:
; 378  : 			stTitle = "";

  00111	68 00 00 00 00	 push	 OFFSET ??_C@_0L@PKLMOOMC@?$LN?C?$LA?$KD?C?V?$MA?$PL?H?$KN@
  00116	8d 8d e0 fe ff
	ff		 lea	 ecx, DWORD PTR _stTitle$[ebp]
  0011c	ff 15 00 00 00
	00		 call	 DWORD PTR __imp_??4?$CStringT@DV?$StrTraitMFC_DLL@DV?$ChTraitsCRT@D@ATL@@@@@ATL@@QAEAAV01@PBD@Z

; 379  : 			nOptimizer = 1003;

  00122	bf eb 03 00 00	 mov	 edi, 1003		; 000003ebH

; 380  : 			break;

  00127	eb 2e		 jmp	 SHORT $LN2@OnBtnStopt
$LN6@OnBtnStopt:

; 372  : 			break;
; 373  : 		case 10002:
; 374  : 			stTitle = "";

  00129	68 00 00 00 00	 push	 OFFSET ??_C@_0L@ODKOBBAJ@?$LK?$KP?$LM?v?C?V?$MA?$PL?H?$KN@
  0012e	8d 8d e0 fe ff
	ff		 lea	 ecx, DWORD PTR _stTitle$[ebp]
  00134	ff 15 00 00 00
	00		 call	 DWORD PTR __imp_??4?$CStringT@DV?$StrTraitMFC_DLL@DV?$ChTraitsCRT@D@ATL@@@@@ATL@@QAEAAV01@PBD@Z

; 375  : 			nOptimizer = 1002;

  0013a	bf ea 03 00 00	 mov	 edi, 1002		; 000003eaH

; 376  : 			break;

  0013f	eb 16		 jmp	 SHORT $LN2@OnBtnStopt
$LN5@OnBtnStopt:

; 369  : 		case 10001:
; 370  : 			stTitle = "";

  00141	68 00 00 00 00	 push	 OFFSET ??_C@_0L@OBHGFOPP@?$MA?$PM?$LH?$KL?C?V?$MA?$PL?H?$KN@
  00146	8d 8d e0 fe ff
	ff		 lea	 ecx, DWORD PTR _stTitle$[ebp]
  0014c	ff 15 00 00 00
	00		 call	 DWORD PTR __imp_??4?$CStringT@DV?$StrTraitMFC_DLL@DV?$ChTraitsCRT@D@ATL@@@@@ATL@@QAEAAV01@PBD@Z

; 371  : 			nOptimizer = 1001;

  00152	bf e9 03 00 00	 mov	 edi, 1001		; 000003e9H
$LN2@OnBtnStopt:

; 381  : 	/*	case 10004:
; 382  : 			stTitle = "#AROONSTRATEGY";
; 383  : 			Run_STDLL((LPCSTR)stTitle);
; 384  : 			return;
; 385  : 		case 10005:
; 386  : 			stTitle = "#";
; 387  : 			Run_STDLL((LPCSTR)stTitle);
; 388  : 			return;
; 389  : 		case 10006:
; 390  : 			STClear();
; 391  : 			return;
; 392  : 		case 10007:
; 393  : 			TestJumun();*/
; 394  : 			return;
; 395  : 	}
; 396  : 
; 397  : 	if(m_xSTAnalysisInput.GetCount()==0)

  00157	8b 8b 74 09 00
	00		 mov	 ecx, DWORD PTR [ebx+2420]
  0015d	8d 83 74 09 00
	00		 lea	 eax, DWORD PTR [ebx+2420]
  00163	50		 push	 eax
  00164	ff 51 20	 call	 DWORD PTR [ecx+32]
  00167	85 c0		 test	 eax, eax
  00169	75 0a		 jne	 SHORT $LN8@OnBtnStopt

; 398  : 	{
; 399  : 		AfxMessageBox("  .");

  0016b	b8 00 00 00 00	 mov	 eax, OFFSET ??_C@_0BI@PFKPIPEB@?A?$LO?$LI?q?A?$LG?H?$LI?5?H?D?5?$LA?$KB?$LE?I?G?U?$LE?O?$LE?Y?4@
  00170	e9 39 01 00 00	 jmp	 $LN18@OnBtnStopt
$LN8@OnBtnStopt:

; 1845 : 	CString szProgID; 

  00175	8d 8d e4 fe ff
	ff		 lea	 ecx, DWORD PTR _szProgID$2[ebp]
  0017b	ff 15 00 00 00
	00		 call	 DWORD PTR __imp_??0?$CStringT@DV?$StrTraitMFC_DLL@DV?$ChTraitsCRT@D@ATL@@@@@ATL@@QAE@XZ

; 1846 : 	szProgID = "MSChart20Lib.MSChart.2";			if(!CheckRegister(szProgID, "Mschrt20.ocx")) return FALSE;

  00181	68 00 00 00 00	 push	 OFFSET ??_C@_0BH@BPKOJLNA@MSChart20Lib?4MSChart?42@
  00186	8d 8d e4 fe ff
	ff		 lea	 ecx, DWORD PTR _szProgID$2[ebp]
  0018c	c6 45 fc 05	 mov	 BYTE PTR __$EHRec$[ebp+8], 5
  00190	ff 15 00 00 00
	00		 call	 DWORD PTR __imp_??4?$CStringT@DV?$StrTraitMFC_DLL@DV?$ChTraitsCRT@D@ATL@@@@@ATL@@QAEAAV01@PBD@Z
  00196	68 00 00 00 00	 push	 OFFSET ??_C@_0N@CPPCJIEJ@Mschrt20?4ocx@
  0019b	ff b5 e4 fe ff
	ff		 push	 DWORD PTR _szProgID$2[ebp]
  001a1	8b cb		 mov	 ecx, ebx
  001a3	e8 00 00 00 00	 call	 ?CheckRegister@CTabSystemTradingEx@@QAEHPBD0@Z ; CTabSystemTradingEx::CheckRegister
  001a8	85 c0		 test	 eax, eax
  001aa	0f 84 e9 00 00
	00		 je	 $LN63@OnBtnStopt

; 1847 : 	szProgID = "TeeChart.ChartPageNavigator.7";		if(!CheckRegister(szProgID, "TeeChart7.ocx")) return FALSE;

  001b0	68 00 00 00 00	 push	 OFFSET ??_C@_0BO@PLHNFDPJ@TeeChart?4ChartPageNavigator?47@
  001b5	8d 8d e4 fe ff
	ff		 lea	 ecx, DWORD PTR _szProgID$2[ebp]
  001bb	ff 15 00 00 00
	00		 call	 DWORD PTR __imp_??4?$CStringT@DV?$StrTraitMFC_DLL@DV?$ChTraitsCRT@D@ATL@@@@@ATL@@QAEAAV01@PBD@Z
  001c1	68 00 00 00 00	 push	 OFFSET ??_C@_0O@CKKCLLBB@TeeChart7?4ocx@
  001c6	ff b5 e4 fe ff
	ff		 push	 DWORD PTR _szProgID$2[ebp]
  001cc	8b cb		 mov	 ecx, ebx
  001ce	e8 00 00 00 00	 call	 ?CheckRegister@CTabSystemTradingEx@@QAEHPBD0@Z ; CTabSystemTradingEx::CheckRegister
  001d3	85 c0		 test	 eax, eax
  001d5	0f 84 be 00 00
	00		 je	 $LN63@OnBtnStopt

; 1848 : 	return TRUE;

  001db	8d 8d e4 fe ff
	ff		 lea	 ecx, DWORD PTR _szProgID$2[ebp]
  001e1	c6 45 fc 02	 mov	 BYTE PTR __$EHRec$[ebp+8], 2
  001e5	ff 15 00 00 00
	00		 call	 DWORD PTR __imp_??1?$CStringT@DV?$StrTraitMFC_DLL@DV?$ChTraitsCRT@D@ATL@@@@@ATL@@QAE@XZ

; 406  : 		return;
; 407  : 	}
; 408  : 
; 409  : 	AFX_MANAGE_STATE(AfxGetStaticModuleState());

  001eb	e8 00 00 00 00	 call	 ?AfxGetStaticModuleState@@YGPAVAFX_MODULE_STATE@@XZ ; AfxGetStaticModuleState
  001f0	50		 push	 eax
  001f1	8d 8d cc fe ff
	ff		 lea	 ecx, DWORD PTR __ctlState$[ebp]
  001f7	e8 00 00 00 00	 call	 ??0AFX_MAINTAIN_STATE2@@QAE@PAVAFX_MODULE_STATE@@@Z ; AFX_MAINTAIN_STATE2::AFX_MAINTAIN_STATE2

; 410  : 	//HINSTANCE hOld = AfxGetResourceHandle();
; 411  : 	//AfxSetResourceHandle(g_hInstance);
; 412  : 
; 413  : 	CString szDllName;

  001fc	8d 8d d4 fe ff
	ff		 lea	 ecx, DWORD PTR _szDllName$[ebp]
  00202	ff 15 00 00 00
	00		 call	 DWORD PTR __imp_??0?$CStringT@DV?$StrTraitMFC_DLL@DV?$ChTraitsCRT@D@ATL@@@@@ATL@@QAE@XZ

; 414  : 	szDllName.Format("%s%s", m_szRootDir, "\\dev\\IndexOptimizer");	// DLL .

  00208	68 00 00 00 00	 push	 OFFSET ??_C@_0BE@MEGAPCJC@?2dev?2IndexOptimizer@
  0020d	ff b3 1c 08 00
	00		 push	 DWORD PTR [ebx+2076]
  00213	8d 85 d4 fe ff
	ff		 lea	 eax, DWORD PTR _szDllName$[ebp]
  00219	c6 45 fc 08	 mov	 BYTE PTR __$EHRec$[ebp+8], 8
  0021d	68 00 00 00 00	 push	 OFFSET ??_C@_04HDOCAJNK@?$CFs?$CFs@
  00222	50		 push	 eax
  00223	ff 15 00 00 00
	00		 call	 DWORD PTR __imp_?Format@?$CStringT@DV?$StrTraitMFC_DLL@DV?$ChTraitsCRT@D@ATL@@@@@ATL@@QAAXPBDZZ
  00229	83 c4 10	 add	 esp, 16			; 00000010H

; 415  : 	CDllDlg dlg(szDllName, stTitle, &m_xSTInterface, NULL);

  0022c	8d 83 70 09 00
	00		 lea	 eax, DWORD PTR [ebx+2416]
  00232	8d 8d e8 fe ff
	ff		 lea	 ecx, DWORD PTR _dlg$[ebp]
  00238	6a 00		 push	 0
  0023a	6a 00		 push	 0
  0023c	50		 push	 eax
  0023d	ff b5 e0 fe ff
	ff		 push	 DWORD PTR _stTitle$[ebp]
  00243	ff b5 d4 fe ff
	ff		 push	 DWORD PTR _szDllName$[ebp]
  00249	e8 00 00 00 00	 call	 ??0CDllDlg@@QAE@PBD0PAXPAUHINSTANCE__@@PAVCWnd@@@Z ; CDllDlg::CDllDlg

; 416  : 	dlg.m_strImageDir = m_pParentDlg->m_szImageDir;

  0024e	8b 83 bc 00 00
	00		 mov	 eax, DWORD PTR [ebx+188]
  00254	8d 4d b0	 lea	 ecx, DWORD PTR _dlg$[ebp+200]
  00257	05 ac 01 00 00	 add	 eax, 428		; 000001acH
  0025c	c6 45 fc 09	 mov	 BYTE PTR __$EHRec$[ebp+8], 9
  00260	50		 push	 eax
  00261	ff 15 00 00 00
	00		 call	 DWORD PTR __imp_??4?$CStringT@DV?$StrTraitMFC_DLL@DV?$ChTraitsCRT@D@ATL@@@@@ATL@@QAEAAV01@ABV01@@Z

; 417  : 	dlg.m_nOptimizerDiv = nOptimizer;
; 418  : 	dlg.DoModal();

  00267	8d 8d e8 fe ff
	ff		 lea	 ecx, DWORD PTR _dlg$[ebp]
  0026d	89 7d a8	 mov	 DWORD PTR _dlg$[ebp+192], edi
  00270	e8 00 00 00 00	 call	 ?DoModal@CDialog@@UAEHXZ ; CDialog::DoModal

; 423  : }

  00275	8d 8d e8 fe ff
	ff		 lea	 ecx, DWORD PTR _dlg$[ebp]
  0027b	e8 00 00 00 00	 call	 ??1CDllDlg@@UAE@XZ	; CDllDlg::~CDllDlg
  00280	8d 8d d4 fe ff
	ff		 lea	 ecx, DWORD PTR _szDllName$[ebp]
  00286	ff 15 00 00 00
	00		 call	 DWORD PTR __imp_??1?$CStringT@DV?$StrTraitMFC_DLL@DV?$ChTraitsCRT@D@ATL@@@@@ATL@@QAE@XZ
  0028c	8d 8d cc fe ff
	ff		 lea	 ecx, DWORD PTR __ctlState$[ebp]
  00292	e8 00 00 00 00	 call	 ??1AFX_MAINTAIN_STATE2@@QAE@XZ ; AFX_MAINTAIN_STATE2::~AFX_MAINTAIN_STATE2
  00297	eb 1f		 jmp	 SHORT $LN19@OnBtnStopt
$LN63@OnBtnStopt:

; 1847 : 	szProgID = "TeeChart.ChartPageNavigator.7";		if(!CheckRegister(szProgID, "TeeChart7.ocx")) return FALSE;

  00299	8d 8d e4 fe ff
	ff		 lea	 ecx, DWORD PTR _szProgID$2[ebp]
  0029f	c6 45 fc 02	 mov	 BYTE PTR __$EHRec$[ebp+8], 2
  002a3	ff 15 00 00 00
	00		 call	 DWORD PTR __imp_??1?$CStringT@DV?$StrTraitMFC_DLL@DV?$ChTraitsCRT@D@ATL@@@@@ATL@@QAE@XZ

; 400  : 		return;
; 401  : 	}
; 402  : 
; 403  : 	if(!CheckOcx())
; 404  : 	{
; 405  : 		AfxMessageBox("  OCX(TeeChart7.ocx, MSChrt20.ocx) .");

  002a9	b8 00 00 00 00	 mov	 eax, OFFSET ??_C@_0EJ@JEOKELGF@?C?V?$MA?$PL?H?$KN?$LP?$KB?$LM?$KN?5?G?J?$LP?d?G?Q?5OCX?$CITeeChart7@
$LN18@OnBtnStopt:
  002ae	6a 00		 push	 0
  002b0	6a 00		 push	 0
  002b2	50		 push	 eax
  002b3	e8 00 00 00 00	 call	 ?AfxMessageBox@@YGHPBDII@Z ; AfxMessageBox
$LN19@OnBtnStopt:

; 423  : }

  002b8	8d 8d e0 fe ff
	ff		 lea	 ecx, DWORD PTR _stTitle$[ebp]
  002be	ff 15 00 00 00
	00		 call	 DWORD PTR __imp_??1?$CStringT@DV?$StrTraitMFC_DLL@DV?$ChTraitsCRT@D@ATL@@@@@ATL@@QAE@XZ
$LN16@OnBtnStopt:
; File C:\Program Files (x86)\Microsoft Visual Studio\2019\Community\VC\Tools\MSVC\14.29.30133\atlmfc\include\afxwin1.inl

; 905  : 	{ DestroyMenu(); }

  002c4	8d 8d d8 fe ff
	ff		 lea	 ecx, DWORD PTR _menu$[ebp]
  002ca	c7 45 fc 0a 00
	00 00		 mov	 DWORD PTR __$EHRec$[ebp+8], 10 ; 0000000aH
  002d1	c7 85 d8 fe ff
	ff 00 00 00 00	 mov	 DWORD PTR _menu$[ebp], OFFSET ??_7CMenu@@6B@
  002db	e8 00 00 00 00	 call	 ?DestroyMenu@CMenu@@QAEHXZ ; CMenu::DestroyMenu
; File D:\git\src\IBK\IBK_DRFN\ProjSrc\SrcDrfn\Chart\MULTICHART\TabSystemTradingEx.cpp

; 423  : }

  002e0	8b 4d f4	 mov	 ecx, DWORD PTR __$EHRec$[ebp]
  002e3	64 89 0d 00 00
	00 00		 mov	 DWORD PTR fs:0, ecx
  002ea	59		 pop	 ecx
  002eb	5f		 pop	 edi
  002ec	5e		 pop	 esi
  002ed	5b		 pop	 ebx
  002ee	8b 4d f0	 mov	 ecx, DWORD PTR __$ArrayPad$[ebp]
  002f1	33 cd		 xor	 ecx, ebp
  002f3	e8 00 00 00 00	 call	 @__security_check_cookie@4
  002f8	8b e5		 mov	 esp, ebp
  002fa	5d		 pop	 ebp
  002fb	c3		 ret	 0
_TEXT	ENDS
;	COMDAT text$x
text$x	SEGMENT
__unwindfunclet$?OnBtnStoptimaA@CTabSystemTradingEx@@IAEXXZ$0:
  00000	8d 8d d8 fe ff
	ff		 lea	 ecx, DWORD PTR _menu$[ebp]
  00006	e9 00 00 00 00	 jmp	 ??1CMenu@@UAE@XZ	; CMenu::~CMenu
__unwindfunclet$?OnBtnStoptimaA@CTabSystemTradingEx@@IAEXXZ$1:
  0000b	8d 8d e0 fe ff
	ff		 lea	 ecx, DWORD PTR _stTitle$[ebp]
  00011	ff 25 00 00 00
	00		 jmp	 DWORD PTR __imp_??1?$CStringT@DV?$StrTraitMFC_DLL@DV?$ChTraitsCRT@D@ATL@@@@@ATL@@QAE@XZ
__unwindfunclet$?OnBtnStoptimaA@CTabSystemTradingEx@@IAEXXZ$8:
  00017	8d 8d e4 fe ff
	ff		 lea	 ecx, DWORD PTR _szProgID$2[ebp]
  0001d	ff 25 00 00 00
	00		 jmp	 DWORD PTR __imp_??1?$CStringT@DV?$StrTraitMFC_DLL@DV?$ChTraitsCRT@D@ATL@@@@@ATL@@QAE@XZ
__unwindfunclet$?OnBtnStoptimaA@CTabSystemTradingEx@@IAEXXZ$2:
  00023	8d 8d cc fe ff
	ff		 lea	 ecx, DWORD PTR __ctlState$[ebp]
  00029	e9 00 00 00 00	 jmp	 ??1AFX_MAINTAIN_STATE2@@QAE@XZ ; AFX_MAINTAIN_STATE2::~AFX_MAINTAIN_STATE2
__unwindfunclet$?OnBtnStoptimaA@CTabSystemTradingEx@@IAEXXZ$3:
  0002e	8d 8d d4 fe ff
	ff		 lea	 ecx, DWORD PTR _szDllName$[ebp]
  00034	ff 25 00 00 00
	00		 jmp	 DWORD PTR __imp_??1?$CStringT@DV?$StrTraitMFC_DLL@DV?$ChTraitsCRT@D@ATL@@@@@ATL@@QAE@XZ
__unwindfunclet$?OnBtnStoptimaA@CTabSystemTradingEx@@IAEXXZ$4:
  0003a	8d 8d e8 fe ff
	ff		 lea	 ecx, DWORD PTR _dlg$[ebp]
  00040	e9 00 00 00 00	 jmp	 ??1CDllDlg@@UAE@XZ	; CDllDlg::~CDllDlg
  00045	cc		 int	 3
  00046	cc		 int	 3
  00047	cc		 int	 3
  00048	cc		 int	 3
  00049	cc		 int	 3
__ehhandler$?OnBtnStoptimaA@CTabSystemTradingEx@@IAEXXZ:
  0004a	90		 npad	 1
  0004b	90		 npad	 1
  0004c	8b 54 24 08	 mov	 edx, DWORD PTR [esp+8]
  00050	8d 42 0c	 lea	 eax, DWORD PTR [edx+12]
  00053	8b 8a c8 fe ff
	ff		 mov	 ecx, DWORD PTR [edx-312]
  00059	33 c8		 xor	 ecx, eax
  0005b	e8 00 00 00 00	 call	 @__security_check_cookie@4
  00060	8b 4a fc	 mov	 ecx, DWORD PTR [edx-4]
  00063	33 c8		 xor	 ecx, eax
  00065	e8 00 00 00 00	 call	 @__security_check_cookie@4
  0006a	b8 00 00 00 00	 mov	 eax, OFFSET __ehfuncinfo$?OnBtnStoptimaA@CTabSystemTradingEx@@IAEXXZ
  0006f	e9 00 00 00 00	 jmp	 ___CxxFrameHandler3
text$x	ENDS
?OnBtnStoptimaA@CTabSystemTradingEx@@IAEXXZ ENDP	; CTabSystemTradingEx::OnBtnStoptimaA
; Function compile flags: /Ogtp
; File D:\git\src\IBK\IBK_DRFN\ProjSrc\SrcDrfn\Chart\MULTICHART\TabSystemTradingEx.cpp
;	COMDAT ?OnBtnStwizardA@CTabSystemTradingEx@@IAEXXZ
_TEXT	SEGMENT
?OnBtnStwizardA@CTabSystemTradingEx@@IAEXXZ PROC	; CTabSystemTradingEx::OnBtnStwizardA, COMDAT
; _this$ = ecx

; 335  : 	RunWizard(TRUE);

  00000	6a 01		 push	 1
  00002	e8 00 00 00 00	 call	 ?RunWizard@CTabSystemTradingEx@@QAEXH@Z ; CTabSystemTradingEx::RunWizard

; 336  : }

  00007	c3		 ret	 0
?OnBtnStwizardA@CTabSystemTradingEx@@IAEXXZ ENDP	; CTabSystemTradingEx::OnBtnStwizardA
_TEXT	ENDS
; Function compile flags: /Ogtp
; File D:\git\src\IBK\IBK_DRFN\ProjSrc\SrcDrfn\Chart\MULTICHART\TabSystemTradingEx.cpp
; File C:\Program Files (x86)\Microsoft Visual Studio\2019\Community\VC\Tools\MSVC\14.29.30133\atlmfc\include\afxwin1.inl
; File D:\git\src\IBK\IBK_DRFN\ProjSrc\SrcDrfn\Chart\MULTICHART\TabSystemTradingEx.cpp
; File C:\Program Files (x86)\Microsoft Visual Studio\2019\Community\VC\Tools\MSVC\14.29.30133\atlmfc\include\afxwin1.inl
; File D:\git\src\IBK\IBK_DRFN\ProjSrc\SrcDrfn\Chart\MULTICHART\TabSystemTradingEx.cpp
;	COMDAT ?OnCtlColor@CTabSystemTradingEx@@IAEPAUHBRUSH__@@PAVCDC@@PAVCWnd@@I@Z
_TEXT	SEGMENT
_pDC$ = 8						; size = 4
_pWnd$ = 12						; size = 4
_nCtlColor$ = 16					; size = 4
?OnCtlColor@CTabSystemTradingEx@@IAEPAUHBRUSH__@@PAVCDC@@PAVCWnd@@I@Z PROC ; CTabSystemTradingEx::OnCtlColor, COMDAT
; _this$ = ecx

; 1182 : {

  00000	55		 push	 ebp
  00001	8b ec		 mov	 ebp, esp
  00003	53		 push	 ebx

; 1183 : 	HBRUSH hbr = CTabDlg::OnCtlColor(pDC, pWnd, nCtlColor);

  00004	8b 5d 08	 mov	 ebx, DWORD PTR _pDC$[ebp]
  00007	56		 push	 esi
  00008	8b 75 10	 mov	 esi, DWORD PTR _nCtlColor$[ebp]
  0000b	57		 push	 edi
  0000c	56		 push	 esi
  0000d	ff 75 0c	 push	 DWORD PTR _pWnd$[ebp]
  00010	8b f9		 mov	 edi, ecx
  00012	53		 push	 ebx
  00013	e8 00 00 00 00	 call	 ?OnCtlColor@CTabDlg@@IAEPAUHBRUSH__@@PAVCDC@@PAVCWnd@@I@Z ; CTabDlg::OnCtlColor

; 1184 : 
; 1185 : 	// TODO: Change any attributes of the DC here
; 1186 : 	switch(nCtlColor) 

  00018	83 ee 01	 sub	 esi, 1
  0001b	74 26		 je	 SHORT $LN1@OnCtlColor
  0001d	83 ee 01	 sub	 esi, 1
  00020	74 21		 je	 SHORT $LN1@OnCtlColor

; 1187 : 	{
; 1188 : 	case CTLCOLOR_EDIT:
; 1189 : 	case CTLCOLOR_LISTBOX:
; 1190 : 		return hbr;
; 1191 : 	default:
; 1192 : 		{
; 1193 : 			pDC->SetBkColor(m_crBk);

  00022	8b 03		 mov	 eax, DWORD PTR [ebx]
  00024	8b cb		 mov	 ecx, ebx
  00026	ff b7 d0 00 00
	00		 push	 DWORD PTR [edi+208]
  0002c	ff 50 34	 call	 DWORD PTR [eax+52]

; 1194 : 			return m_brBkColor;

  0002f	8d 87 c8 00 00
	00		 lea	 eax, DWORD PTR [edi+200]
; File C:\Program Files (x86)\Microsoft Visual Studio\2019\Community\VC\Tools\MSVC\14.29.30133\atlmfc\include\afxwin1.inl

; 124  : 	{ return (HBRUSH)(this == NULL ? NULL : m_hObject); }

  00035	85 c0		 test	 eax, eax
  00037	75 07		 jne	 SHORT $LN10@OnCtlColor
; File D:\git\src\IBK\IBK_DRFN\ProjSrc\SrcDrfn\Chart\MULTICHART\TabSystemTradingEx.cpp

; 1201 : }

  00039	5f		 pop	 edi
  0003a	5e		 pop	 esi
  0003b	5b		 pop	 ebx
  0003c	5d		 pop	 ebp
  0003d	c2 0c 00	 ret	 12			; 0000000cH
$LN10@OnCtlColor:
; File C:\Program Files (x86)\Microsoft Visual Studio\2019\Community\VC\Tools\MSVC\14.29.30133\atlmfc\include\afxwin1.inl

; 124  : 	{ return (HBRUSH)(this == NULL ? NULL : m_hObject); }

  00040	8b 40 04	 mov	 eax, DWORD PTR [eax+4]
$LN1@OnCtlColor:
  00043	5f		 pop	 edi
; File D:\git\src\IBK\IBK_DRFN\ProjSrc\SrcDrfn\Chart\MULTICHART\TabSystemTradingEx.cpp

; 1201 : }

  00044	5e		 pop	 esi
  00045	5b		 pop	 ebx
  00046	5d		 pop	 ebp
  00047	c2 0c 00	 ret	 12			; 0000000cH
?OnCtlColor@CTabSystemTradingEx@@IAEPAUHBRUSH__@@PAVCDC@@PAVCWnd@@I@Z ENDP ; CTabSystemTradingEx::OnCtlColor
_TEXT	ENDS
; Function compile flags: /Ogtp
; File D:\git\src\IBK\IBK_DRFN\ProjSrc\SrcDrfn\Chart\MULTICHART\TabSystemTradingEx.cpp
; File C:\Program Files (x86)\Microsoft Visual Studio\2019\Community\VC\Tools\MSVC\14.29.30133\atlmfc\include\afxwin2.inl
; File D:\git\src\IBK\IBK_DRFN\ProjSrc\SrcDrfn\Chart\MULTICHART\TabSystemTradingEx.cpp
;	COMDAT ?OnSize@CTabSystemTradingEx@@IAEXIHH@Z
_TEXT	SEGMENT
_nType$ = 8						; size = 4
_cx$ = 12						; size = 4
_cy$ = 16						; size = 4
?OnSize@CTabSystemTradingEx@@IAEXIHH@Z PROC		; CTabSystemTradingEx::OnSize, COMDAT
; _this$ = ecx

; 127  : {

  00000	56		 push	 esi
  00001	8b f1		 mov	 esi, ecx
; File C:\Program Files (x86)\Microsoft Visual Studio\2019\Community\VC\Tools\MSVC\14.29.30133\atlmfc\include\afxwin2.inl

; 330  : 	{ Default(); }

  00003	e8 00 00 00 00	 call	 ?Default@CWnd@@IAEJXZ	; CWnd::Default
; File D:\git\src\IBK\IBK_DRFN\ProjSrc\SrcDrfn\Chart\MULTICHART\TabSystemTradingEx.cpp

; 139  : 	RecalcLayout();

  00008	8b ce		 mov	 ecx, esi
  0000a	e8 00 00 00 00	 call	 ?RecalcLayout@CTabSystemTradingEx@@QAEXXZ ; CTabSystemTradingEx::RecalcLayout
  0000f	5e		 pop	 esi

; 140  : }

  00010	c2 0c 00	 ret	 12			; 0000000cH
?OnSize@CTabSystemTradingEx@@IAEXIHH@Z ENDP		; CTabSystemTradingEx::OnSize
_TEXT	ENDS
; Function compile flags: /Ogtp
; File D:\git\src\IBK\IBK_DRFN\ProjSrc\SrcDrfn\Chart\MULTICHART\TabSystemTradingEx.cpp
; File C:\Program Files (x86)\Microsoft Visual Studio\2019\Community\VC\Tools\MSVC\14.29.30133\atlmfc\include\afxtempl.h
; File D:\git\src\IBK\IBK_DRFN\ProjSrc\SrcDrfn\Chart\MULTICHART\TabSystemTradingEx.cpp
; File C:\Program Files (x86)\Microsoft Visual Studio\2019\Community\VC\Tools\MSVC\14.29.30133\atlmfc\include\afxtempl.h
; File D:\git\src\IBK\IBK_DRFN\ProjSrc\SrcDrfn\Chart\MULTICHART\TabSystemTradingEx.cpp
; File C:\Program Files (x86)\Microsoft Visual Studio\2019\Community\VC\Tools\MSVC\14.29.30133\atlmfc\include\afxtempl.h
; File D:\git\src\IBK\IBK_DRFN\ProjSrc\SrcDrfn\Chart\MULTICHART\TabSystemTradingEx.cpp
; File C:\Program Files (x86)\Microsoft Visual Studio\2019\Community\VC\Tools\MSVC\14.29.30133\atlmfc\include\afxtempl.h
; File D:\git\src\IBK\IBK_DRFN\ProjSrc\SrcDrfn\Chart\MULTICHART\TabSystemTradingEx.cpp
; File C:\Program Files (x86)\Microsoft Visual Studio\2019\Community\VC\Tools\MSVC\14.29.30133\atlmfc\include\afxtempl.h
; File D:\git\src\IBK\IBK_DRFN\ProjSrc\SrcDrfn\Chart\MULTICHART\TabSystemTradingEx.cpp
;	COMDAT ?OnDestroy@CTabSystemTradingEx@@IAEXXZ
_TEXT	SEGMENT
?OnDestroy@CTabSystemTradingEx@@IAEXXZ PROC		; CTabSystemTradingEx::OnDestroy, COMDAT
; _this$ = ecx

; 242  : {

  00000	53		 push	 ebx
  00001	8b d9		 mov	 ebx, ecx
  00003	56		 push	 esi

; 1152 : 	if(!m_pSTLoadMnger) return;

  00004	8b 35 00 00 00
	00		 mov	 esi, DWORD PTR __imp__GetProcAddress@8

; 242  : {

  0000a	57		 push	 edi

; 1152 : 	if(!m_pSTLoadMnger) return;

  0000b	83 bb e8 07 00
	00 00		 cmp	 DWORD PTR [ebx+2024], 0
  00012	74 35		 je	 SHORT $LN15@OnDestroy

; 1153 : 
; 1154 : 	typedef	void (FPSCW_DeleteInterfaceOfStrategy)(LONG dwKey, LONG dwType);
; 1155 : 	if(m_hSTConfigureWizardInst == NULL) return;

  00014	8b 83 ec 07 00
	00		 mov	 eax, DWORD PTR [ebx+2028]
  0001a	85 c0		 test	 eax, eax
  0001c	74 2b		 je	 SHORT $LN15@OnDestroy

; 1156 : 
; 1157 : 	FPSCW_DeleteInterfaceOfStrategy* pFunc = (FPSCW_DeleteInterfaceOfStrategy*)GetProcAddress(m_hSTConfigureWizardInst,_T("SCW_DeleteInterfaceOfStrategy"));

  0001e	68 00 00 00 00	 push	 OFFSET ??_C@_0BO@CPKKMKKO@SCW_DeleteInterfaceOfStrategy@
  00023	50		 push	 eax
  00024	ff d6		 call	 esi
  00026	8b f8		 mov	 edi, eax

; 1158 : 	if(pFunc == NULL) return ;

  00028	85 ff		 test	 edi, edi
  0002a	74 1d		 je	 SHORT $LN15@OnDestroy

; 1159 : 
; 1160 : 	LONG dwType = 0;	//CSTLoadManager*
; 1161 : 	if(m_pSTLoadMnger)

  0002c	8b 93 e8 07 00
	00		 mov	 edx, DWORD PTR [ebx+2024]
  00032	85 d2		 test	 edx, edx
  00034	74 13		 je	 SHORT $LN15@OnDestroy

; 1162 : 	{
; 1163 : 		m_pSTLoadMnger->UnloadST();

  00036	8b 0a		 mov	 ecx, DWORD PTR [edx]
  00038	52		 push	 edx
  00039	ff 51 08	 call	 DWORD PTR [ecx+8]

; 1164 : 		pFunc((LONG)m_pSTLoadMnger, dwType);

  0003c	6a 00		 push	 0
  0003e	ff b3 e8 07 00
	00		 push	 DWORD PTR [ebx+2024]
  00044	ff d7		 call	 edi
  00046	83 c4 08	 add	 esp, 8
$LN15@OnDestroy:

; 243  : 	UnLoadSTList();
; 244  : 
; 245  : 	if(m_hSTConfigureWizardInst == NULL) return;

  00049	8b 83 ec 07 00
	00		 mov	 eax, DWORD PTR [ebx+2028]
  0004f	85 c0		 test	 eax, eax
  00051	0f 84 47 01 00
	00		 je	 $LN1@OnDestroy

; 246  : 	typedef	LONG (FnSCW_IGfxOutBarCtrl)(int nType, long dwValue, long dwReserved1);
; 247  : 
; 248  : 	FnSCW_IGfxOutBarCtrl* pFunc = (FnSCW_IGfxOutBarCtrl*)GetProcAddress(m_hSTConfigureWizardInst ,_T("SCW_IGfxOutBarCtrl"));

  00057	68 00 00 00 00	 push	 OFFSET ??_C@_0BD@CNEELEMP@SCW_IGfxOutBarCtrl@
  0005c	50		 push	 eax
  0005d	ff d6		 call	 esi
  0005f	8b f0		 mov	 esi, eax

; 249  : 	if(pFunc == NULL) return ;

  00061	85 f6		 test	 esi, esi
  00063	0f 84 35 01 00
	00		 je	 $LN1@OnDestroy

; 250  : 
; 251  : 	if(m_pWndOutBar) {

  00069	8b 93 18 08 00
	00		 mov	 edx, DWORD PTR [ebx+2072]
  0006f	85 d2		 test	 edx, edx
  00071	74 25		 je	 SHORT $LN6@OnDestroy

; 252  : 		m_pWndOutBar->GetCoutBarCtrl()->DestroyWindow();

  00073	8b 0a		 mov	 ecx, DWORD PTR [edx]
  00075	52		 push	 edx
  00076	ff 11		 call	 DWORD PTR [ecx]
  00078	8b c8		 mov	 ecx, eax
  0007a	8b 10		 mov	 edx, DWORD PTR [eax]
  0007c	ff 52 68	 call	 DWORD PTR [edx+104]

; 253  : 		pFunc(1, (long)m_pWndOutBar, 0);

  0007f	6a 00		 push	 0
  00081	ff b3 18 08 00
	00		 push	 DWORD PTR [ebx+2072]
  00087	6a 01		 push	 1
  00089	ff d6		 call	 esi
  0008b	83 c4 0c	 add	 esp, 12			; 0000000cH

; 254  : 		m_pWndOutBar = NULL;

  0008e	c7 83 18 08 00
	00 00 00 00 00	 mov	 DWORD PTR [ebx+2072], 0
$LN6@OnDestroy:

; 255  : 	}
; 256  : 
; 257  : 	FreeLibrary(m_hSTConfigureWizardInst);

  00098	ff b3 ec 07 00
	00		 push	 DWORD PTR [ebx+2028]
  0009e	ff 15 00 00 00
	00		 call	 DWORD PTR __imp__FreeLibrary@4
; File C:\Program Files (x86)\Microsoft Visual Studio\2019\Community\VC\Tools\MSVC\14.29.30133\atlmfc\include\afxtempl.h

; 1354 : 	{ return (m_nCount == 0) ? NULL : BEFORE_START_POSITION; }

  000a4	8b 83 c0 09 00
	00		 mov	 eax, DWORD PTR [ebx+2496]
  000aa	8b f0		 mov	 esi, eax
  000ac	f7 de		 neg	 esi
; File D:\git\src\IBK\IBK_DRFN\ProjSrc\SrcDrfn\Chart\MULTICHART\TabSystemTradingEx.cpp

; 258  : 	m_hSTConfigureWizardInst = NULL;

  000ae	c7 83 ec 07 00
	00 00 00 00 00	 mov	 DWORD PTR [ebx+2028], 0
; File C:\Program Files (x86)\Microsoft Visual Studio\2019\Community\VC\Tools\MSVC\14.29.30133\atlmfc\include\afxtempl.h

; 1354 : 	{ return (m_nCount == 0) ? NULL : BEFORE_START_POSITION; }

  000b8	1b f6		 sbb	 esi, esi
; File D:\git\src\IBK\IBK_DRFN\ProjSrc\SrcDrfn\Chart\MULTICHART\TabSystemTradingEx.cpp

; 263  : 	while(pos)

  000ba	85 c0		 test	 eax, eax
  000bc	0f 84 96 00 00
	00		 je	 $LN3@OnDestroy
$LL2@OnDestroy:
; File C:\Program Files (x86)\Microsoft Visual Studio\2019\Community\VC\Tools\MSVC\14.29.30133\atlmfc\include\afxtempl.h

; 1642 : 	ENSURE(m_pHashTable != NULL);  // never call on empty map

  000c2	8b 83 b8 09 00
	00		 mov	 eax, DWORD PTR [ebx+2488]
  000c8	85 c0		 test	 eax, eax
  000ca	0f 84 d2 00 00
	00		 je	 $LN66@OnDestroy

; 1643 : 
; 1644 : 	CAssoc* pAssocRet = (CAssoc*)rNextPosition;

  000d0	8b fe		 mov	 edi, esi

; 1645 : 	ENSURE(pAssocRet != NULL);

  000d2	85 f6		 test	 esi, esi
  000d4	0f 84 c8 00 00
	00		 je	 $LN66@OnDestroy

; 1646 : 
; 1647 : 	if (pAssocRet == (CAssoc*) BEFORE_START_POSITION)

  000da	83 fe ff	 cmp	 esi, -1
  000dd	75 25		 jne	 SHORT $LN30@OnDestroy

; 1648 : 	{
; 1649 : 		// find the first association
; 1650 : 		for (UINT nBucket = 0; nBucket < m_nHashTableSize; nBucket++)

  000df	8b 93 bc 09 00
	00		 mov	 edx, DWORD PTR [ebx+2492]
  000e5	33 c9		 xor	 ecx, ecx
  000e7	85 d2		 test	 edx, edx
  000e9	74 19		 je	 SHORT $LN30@OnDestroy
  000eb	0f 1f 44 00 00	 npad	 5
$LL28@OnDestroy:

; 1651 : 		{
; 1652 : 			if ((pAssocRet = m_pHashTable[nBucket]) != NULL)

  000f0	8b 38		 mov	 edi, DWORD PTR [eax]
  000f2	85 ff		 test	 edi, edi
  000f4	75 0e		 jne	 SHORT $LN30@OnDestroy

; 1648 : 	{
; 1649 : 		// find the first association
; 1650 : 		for (UINT nBucket = 0; nBucket < m_nHashTableSize; nBucket++)

  000f6	41		 inc	 ecx
  000f7	83 c0 04	 add	 eax, 4
  000fa	3b ca		 cmp	 ecx, edx
  000fc	0f 83 a0 00 00
	00		 jae	 $LN66@OnDestroy
  00102	eb ec		 jmp	 SHORT $LL28@OnDestroy
$LN30@OnDestroy:

; 1658 : 	}
; 1659 : 
; 1660 : 	// find next association
; 1661 : 	ASSERT(AfxIsValidAddress(pAssocRet, sizeof(CAssoc)));
; 1662 : 	CAssoc* pAssocNext;
; 1663 : 	if ((pAssocNext = pAssocRet->pNext) == NULL)

  00104	8b 77 08	 mov	 esi, DWORD PTR [edi+8]
  00107	85 f6		 test	 esi, esi
  00109	75 29		 jne	 SHORT $LN86@OnDestroy

; 1664 : 	{
; 1665 : 		// go to next bucket
; 1666 : 		for (UINT nBucket = (pAssocRet->nHashValue % m_nHashTableSize) + 1;

  0010b	8b 8b bc 09 00
	00		 mov	 ecx, DWORD PTR [ebx+2492]
  00111	33 d2		 xor	 edx, edx
  00113	8b 47 0c	 mov	 eax, DWORD PTR [edi+12]
  00116	f7 f1		 div	 ecx
  00118	42		 inc	 edx

; 1667 : 		  nBucket < m_nHashTableSize; nBucket++)

  00119	3b d1		 cmp	 edx, ecx
  0011b	73 17		 jae	 SHORT $LN86@OnDestroy

; 1668 : 			if ((pAssocNext = m_pHashTable[nBucket]) != NULL)

  0011d	8b 83 b8 09 00
	00		 mov	 eax, DWORD PTR [ebx+2488]
  00123	8d 04 90	 lea	 eax, DWORD PTR [eax+edx*4]
$LL34@OnDestroy:
  00126	8b 30		 mov	 esi, DWORD PTR [eax]
  00128	85 f6		 test	 esi, esi
  0012a	75 08		 jne	 SHORT $LN86@OnDestroy

; 1667 : 		  nBucket < m_nHashTableSize; nBucket++)

  0012c	42		 inc	 edx
  0012d	83 c0 04	 add	 eax, 4
  00130	3b d1		 cmp	 edx, ecx
  00132	72 f2		 jb	 SHORT $LL34@OnDestroy
$LN86@OnDestroy:

; 1669 : 				break;
; 1670 : 	}
; 1671 : 
; 1672 : 	rNextPosition = (POSITION) pAssocNext;
; 1673 : 
; 1674 : 	// fill in return data
; 1675 : 	rKey = pAssocRet->key;

  00134	8b 3f		 mov	 edi, DWORD PTR [edi]
; File D:\git\src\IBK\IBK_DRFN\ProjSrc\SrcDrfn\Chart\MULTICHART\TabSystemTradingEx.cpp

; 266  : 		if(pConfirmWnd && pConfirmWnd->GetSafeHwnd())

  00136	85 ff		 test	 edi, edi
  00138	74 16		 je	 SHORT $LN9@OnDestroy
  0013a	83 7f 20 00	 cmp	 DWORD PTR [edi+32], 0
  0013e	74 07		 je	 SHORT $LN7@OnDestroy

; 267  : 			pConfirmWnd->DestroyWindow();

  00140	8b 07		 mov	 eax, DWORD PTR [edi]
  00142	8b cf		 mov	 ecx, edi
  00144	ff 50 68	 call	 DWORD PTR [eax+104]
$LN7@OnDestroy:

; 268  : 
; 269  : 		delete pConfirmWnd;

  00147	8b 07		 mov	 eax, DWORD PTR [edi]
  00149	8b cf		 mov	 ecx, edi
  0014b	6a 01		 push	 1
  0014d	ff 50 04	 call	 DWORD PTR [eax+4]
$LN9@OnDestroy:

; 263  : 	while(pos)

  00150	85 f6		 test	 esi, esi
  00152	0f 85 6a ff ff
	ff		 jne	 $LL2@OnDestroy
$LN3@OnDestroy:
; File C:\Program Files (x86)\Microsoft Visual Studio\2019\Community\VC\Tools\MSVC\14.29.30133\atlmfc\include\afxtempl.h

; 1446 : 	if (m_pHashTable != NULL)

  00158	8b 83 b8 09 00
	00		 mov	 eax, DWORD PTR [ebx+2488]
  0015e	85 c0		 test	 eax, eax
  00160	74 13		 je	 SHORT $LN55@OnDestroy

; 1447 : 	{
; 1448 : 		// destroy elements (values and keys)
; 1449 : 		for (UINT nHash = 0; nHash < m_nHashTableSize; nHash++)
; 1450 : 		{
; 1451 : 			CAssoc* pAssoc;
; 1452 : 			for (pAssoc = m_pHashTable[nHash]; pAssoc != NULL;
; 1453 : 			  pAssoc = pAssoc->pNext)
; 1454 : 			{
; 1455 : 				pAssoc->CAssoc::~CAssoc();
; 1456 : 			}
; 1457 : 		}
; 1458 : 
; 1459 : 		// free hash table
; 1460 : 		delete[] m_pHashTable;

  00162	50		 push	 eax
  00163	e8 00 00 00 00	 call	 ??_V@YAXPAX@Z		; operator delete[]
  00168	83 c4 04	 add	 esp, 4

; 1461 : 		m_pHashTable = NULL;

  0016b	c7 83 b8 09 00
	00 00 00 00 00	 mov	 DWORD PTR [ebx+2488], 0
$LN55@OnDestroy:

; 1462 : 	}
; 1463 : 
; 1464 : 	m_nCount = 0;
; 1465 : 	m_pFreeList = NULL;
; 1466 : 	m_pBlocks->FreeDataChain();

  00175	8b 8b c8 09 00
	00		 mov	 ecx, DWORD PTR [ebx+2504]
  0017b	c7 83 c0 09 00
	00 00 00 00 00	 mov	 DWORD PTR [ebx+2496], 0
  00185	c7 83 c4 09 00
	00 00 00 00 00	 mov	 DWORD PTR [ebx+2500], 0
  0018f	e8 00 00 00 00	 call	 ?FreeDataChain@CPlex@@QAEXXZ ; CPlex::FreeDataChain

; 1467 : 	m_pBlocks = NULL;

  00194	c7 83 c8 09 00
	00 00 00 00 00	 mov	 DWORD PTR [ebx+2504], 0
$LN1@OnDestroy:
  0019e	5f		 pop	 edi
; File D:\git\src\IBK\IBK_DRFN\ProjSrc\SrcDrfn\Chart\MULTICHART\TabSystemTradingEx.cpp

; 273  : }

  0019f	5e		 pop	 esi
  001a0	5b		 pop	 ebx
  001a1	c3		 ret	 0
$LN66@OnDestroy:
; File C:\Program Files (x86)\Microsoft Visual Studio\2019\Community\VC\Tools\MSVC\14.29.30133\atlmfc\include\afxtempl.h

; 1657 : 		ENSURE(pAssocRet != NULL);  // must find something

  001a2	e8 00 00 00 00	 call	 ?AfxThrowInvalidArgException@@YGXXZ ; AfxThrowInvalidArgException
$LN87@OnDestroy:
  001a7	cc		 int	 3
?OnDestroy@CTabSystemTradingEx@@IAEXXZ ENDP		; CTabSystemTradingEx::OnDestroy
_TEXT	ENDS
; Function compile flags: /Ogtp
; File D:\git\src\IBK\IBK_DRFN\ProjSrc\SrcDrfn\Chart\MULTICHART\TabSystemTradingEx.cpp
; File C:\Program Files (x86)\Microsoft Visual Studio\2019\Community\VC\Tools\MSVC\14.29.30133\atlmfc\include\cstringt.h
; File D:\git\src\IBK\IBK_DRFN\ProjSrc\SrcDrfn\Chart\MULTICHART\TabSystemTradingEx.cpp
; File C:\Program Files (x86)\Microsoft Visual Studio\2019\Community\VC\Tools\MSVC\14.29.30133\atlmfc\include\cstringt.h
; File C:\Program Files (x86)\Microsoft Visual Studio\2019\Community\VC\Tools\MSVC\14.29.30133\atlmfc\include\atlsimpstr.h
; File C:\Program Files (x86)\Microsoft Visual Studio\2019\Community\VC\Tools\MSVC\14.29.30133\atlmfc\include\cstringt.h
; File D:\git\src\IBK\IBK_DRFN\ProjSrc\SrcDrfn\Chart\MULTICHART\TabSystemTradingEx.cpp
; File C:\Program Files (x86)\Microsoft Visual Studio\2019\Community\VC\Tools\MSVC\14.29.30133\atlmfc\include\cstringt.h
; File D:\git\src\IBK\IBK_DRFN\ProjSrc\SrcDrfn\Chart\MULTICHART\TabSystemTradingEx.cpp
; File C:\Program Files (x86)\Microsoft Visual Studio\2019\Community\VC\Tools\MSVC\14.29.30133\atlmfc\include\cstringt.h
; File C:\Program Files (x86)\Microsoft Visual Studio\2019\Community\VC\Tools\MSVC\14.29.30133\atlmfc\include\atlsimpstr.h
; File C:\Program Files (x86)\Microsoft Visual Studio\2019\Community\VC\Tools\MSVC\14.29.30133\atlmfc\include\cstringt.h
; File D:\git\src\IBK\IBK_DRFN\ProjSrc\SrcDrfn\Chart\MULTICHART\TabSystemTradingEx.cpp
; File C:\Program Files (x86)\Microsoft Visual Studio\2019\Community\VC\Tools\MSVC\14.29.30133\atlmfc\include\cstringt.h
; File D:\git\src\IBK\IBK_DRFN\ProjSrc\SrcDrfn\Chart\MULTICHART\TabSystemTradingEx.cpp
; File C:\Program Files (x86)\Microsoft Visual Studio\2019\Community\VC\Tools\MSVC\14.29.30133\atlmfc\include\cstringt.h
; File C:\Program Files (x86)\Microsoft Visual Studio\2019\Community\VC\Tools\MSVC\14.29.30133\atlmfc\include\atlsimpstr.h
; File C:\Program Files (x86)\Microsoft Visual Studio\2019\Community\VC\Tools\MSVC\14.29.30133\atlmfc\include\cstringt.h
; File D:\git\src\IBK\IBK_DRFN\ProjSrc\SrcDrfn\Chart\MULTICHART\TabSystemTradingEx.cpp
; File C:\Program Files (x86)\Microsoft Visual Studio\2019\Community\VC\Tools\MSVC\14.29.30133\atlmfc\include\afxwin2.inl
; File D:\git\src\IBK\IBK_DRFN\ProjSrc\SrcDrfn\Chart\MULTICHART\TabSystemTradingEx.cpp
; File C:\Program Files (x86)\Microsoft Visual Studio\2019\Community\VC\Tools\MSVC\14.29.30133\atlmfc\include\afxwin2.inl
; File D:\git\src\IBK\IBK_DRFN\ProjSrc\SrcDrfn\Chart\MULTICHART\TabSystemTradingEx.cpp
; File D:\git\src\IBK\IBK_DRFN\ProjSrc\SrcDrfn\inc\IBaseDefine.h
; File D:\git\src\IBK\IBK_DRFN\ProjSrc\SrcDrfn\Chart\MULTICHART\TabSystemTradingEx.cpp
; File C:\Program Files (x86)\Microsoft Visual Studio\2019\Community\VC\Tools\MSVC\14.29.30133\atlmfc\include\afxwin2.inl
; File D:\git\src\IBK\IBK_DRFN\ProjSrc\SrcDrfn\Chart\MULTICHART\TabSystemTradingEx.cpp
;	COMDAT ?OnInitDialog@CTabSystemTradingEx@@MAEHXZ
_TEXT	SEGMENT
_copyData$2 = -112					; size = 12
_this$GSCopy$1$ = -100					; size = 4
_hMain$3 = -96						; size = 4
_szClipFormat$4 = -92					; size = 4
_szPath$5 = -88						; size = 4
$T6 = -84						; size = 4
_szKey$7 = -80						; size = 4
$T8 = -76						; size = 4
_szDir$9 = -76						; size = 4
$T10 = -72						; size = 4
_szDLLPath$11 = -72					; size = 4
_szPctr$12 = -68					; size = 4
$T13 = -68						; size = 4
_aSubDir$14 = -64					; size = 36
_aBufWnd$15 = -28					; size = 9
__$ArrayPad$ = -16					; size = 4
__$EHRec$ = -12						; size = 12
?OnInitDialog@CTabSystemTradingEx@@MAEHXZ PROC		; CTabSystemTradingEx::OnInitDialog, COMDAT
; _this$ = ecx

; 276  : {

  00000	55		 push	 ebp
  00001	8b ec		 mov	 ebp, esp
  00003	6a ff		 push	 -1
  00005	68 00 00 00 00	 push	 __ehhandler$?OnInitDialog@CTabSystemTradingEx@@MAEHXZ
  0000a	64 a1 00 00 00
	00		 mov	 eax, DWORD PTR fs:0
  00010	50		 push	 eax
  00011	83 ec 64	 sub	 esp, 100		; 00000064H
  00014	a1 00 00 00 00	 mov	 eax, DWORD PTR ___security_cookie
  00019	33 c5		 xor	 eax, ebp
  0001b	89 45 f0	 mov	 DWORD PTR __$ArrayPad$[ebp], eax
  0001e	53		 push	 ebx
  0001f	56		 push	 esi
  00020	57		 push	 edi
  00021	50		 push	 eax
  00022	8d 45 f4	 lea	 eax, DWORD PTR __$EHRec$[ebp]
  00025	64 a3 00 00 00
	00		 mov	 DWORD PTR fs:0, eax
  0002b	8b f9		 mov	 edi, ecx
  0002d	89 7d 9c	 mov	 DWORD PTR _this$GSCopy$1$[ebp], edi
  00030	33 f6		 xor	 esi, esi
  00032	89 75 ac	 mov	 DWORD PTR $T6[ebp], esi

; 277  : 	CTabDlg::OnInitDialog();	

  00035	e8 00 00 00 00	 call	 ?OnInitDialog@CTabDlg@@MAEHXZ ; CTabDlg::OnInitDialog

; 278  : 
; 279  : 	IMainInfoManager0002* pMng = (IMainInfoManager0002*)AfxGetPctrInterface(UUID_IMainInfoManager);

  0003a	6a 15		 push	 21			; 00000015H
  0003c	e8 00 00 00 00	 call	 ?AfxGetPctrInterface@@YGJH@Z ; AfxGetPctrInterface
  00041	8b d8		 mov	 ebx, eax

; 280  : 	if (pMng)

  00043	85 db		 test	 ebx, ebx
  00045	0f 84 ae 00 00
	00		 je	 $LN84@OnInitDial

; 281  : 	{
; 282  : 		m_szRootDir = pMng->GetRootDir();

  0004b	8b 0b		 mov	 ecx, DWORD PTR [ebx]
  0004d	53		 push	 ebx
  0004e	ff 51 10	 call	 DWORD PTR [ecx+16]
  00051	50		 push	 eax
  00052	8d 8f 1c 08 00
	00		 lea	 ecx, DWORD PTR [edi+2076]
  00058	ff 15 00 00 00
	00		 call	 DWORD PTR __imp_??4?$CStringT@DV?$StrTraitMFC_DLL@DV?$ChTraitsCRT@D@ATL@@@@@ATL@@QAEAAV01@PBD@Z

; 283  : 		m_szDataDir = pMng->GetDataDir();

  0005e	8b 03		 mov	 eax, DWORD PTR [ebx]
  00060	53		 push	 ebx
  00061	ff 50 14	 call	 DWORD PTR [eax+20]
  00064	50		 push	 eax
  00065	8d 8f 20 08 00
	00		 lea	 ecx, DWORD PTR [edi+2080]
  0006b	ff 15 00 00 00
	00		 call	 DWORD PTR __imp_??4?$CStringT@DV?$StrTraitMFC_DLL@DV?$ChTraitsCRT@D@ATL@@@@@ATL@@QAEAAV01@PBD@Z

; 284  : 		m_szEncUserDir = ((CStdDialog*)m_pMultiChartWnd)->m_strUserDir;

  00071	8b 87 c0 00 00
	00		 mov	 eax, DWORD PTR [edi+192]
  00077	8d 8f 24 08 00
	00		 lea	 ecx, DWORD PTR [edi+2084]
  0007d	05 b4 07 00 00	 add	 eax, 1972		; 000007b4H
  00082	89 4d b4	 mov	 DWORD PTR $T8[ebp], ecx
  00085	50		 push	 eax
  00086	ff 15 00 00 00
	00		 call	 DWORD PTR __imp_??4?$CStringT@DV?$StrTraitMFC_DLL@DV?$ChTraitsCRT@D@ATL@@@@@ATL@@QAEAAV01@ABV01@@Z

; 285  : 		m_nUserType = pMng->GetHtsMode();	//"0":HTS  "1":FO

  0008c	8b 03		 mov	 eax, DWORD PTR [ebx]
  0008e	53		 push	 ebx
  0008f	ff 50 44	 call	 DWORD PTR [eax+68]
  00092	89 87 28 08 00
	00		 mov	 DWORD PTR [edi+2088], eax
; File C:\Program Files (x86)\Microsoft Visual Studio\2019\Community\VC\Tools\MSVC\14.29.30133\atlmfc\include\cstringt.h

; 2401 : 		CStringT strResult( str1.GetManager() );

  00098	8d 8f 1c 08 00
	00		 lea	 ecx, DWORD PTR [edi+2076]
; File D:\git\src\IBK\IBK_DRFN\ProjSrc\SrcDrfn\Chart\MULTICHART\TabSystemTradingEx.cpp

; 287  : 		CString szDLLPath = m_szRootDir + "\\dev";

  0009e	89 75 fc	 mov	 DWORD PTR __$EHRec$[ebp+8], esi
; File C:\Program Files (x86)\Microsoft Visual Studio\2019\Community\VC\Tools\MSVC\14.29.30133\atlmfc\include\cstringt.h

; 2401 : 		CStringT strResult( str1.GetManager() );

  000a1	ff 15 00 00 00
	00		 call	 DWORD PTR __imp_?GetManager@?$CStringT@DV?$StrTraitMFC_DLL@DV?$ChTraitsCRT@D@ATL@@@@@ATL@@QBEPAUIAtlStringMgr@2@XZ
  000a7	50		 push	 eax
  000a8	8d 4d b8	 lea	 ecx, DWORD PTR _szDLLPath$11[ebp]
  000ab	ff 15 00 00 00
	00		 call	 DWORD PTR __imp_??0?$CStringT@DV?$StrTraitMFC_DLL@DV?$ChTraitsCRT@D@ATL@@@@@ATL@@QAE@PAUIAtlStringMgr@1@@Z
; File C:\Program Files (x86)\Microsoft Visual Studio\2019\Community\VC\Tools\MSVC\14.29.30133\atlmfc\include\atlsimpstr.h

; 519  : 		return( GetData()->nDataLength );

  000b1	8b 87 1c 08 00
	00		 mov	 eax, DWORD PTR [edi+2076]
; File C:\Program Files (x86)\Microsoft Visual Studio\2019\Community\VC\Tools\MSVC\14.29.30133\atlmfc\include\cstringt.h

; 2403 : 		CThisSimpleString::Concatenate( strResult, str1, str1.GetLength(), psz2, CThisSimpleString::StringLength( psz2 ) );

  000b7	6a 04		 push	 4
  000b9	68 00 00 00 00	 push	 OFFSET ??_C@_04EHADJNMH@?2dev@

; 2405 : 		return( strResult );

  000be	c7 45 ac 01 00
	00 00		 mov	 DWORD PTR $T6[ebp], 1
  000c5	ff 70 f4	 push	 DWORD PTR [eax-12]
  000c8	50		 push	 eax
  000c9	8d 45 b8	 lea	 eax, DWORD PTR _szDLLPath$11[ebp]
  000cc	50		 push	 eax
  000cd	ff 15 00 00 00
	00		 call	 DWORD PTR __imp_?Concatenate@?$CSimpleStringT@D$00@ATL@@KAXAAV12@PBDH1H@Z
  000d3	83 c4 14	 add	 esp, 20			; 00000014H
; File D:\git\src\IBK\IBK_DRFN\ProjSrc\SrcDrfn\Chart\MULTICHART\TabSystemTradingEx.cpp

; 288  : 		::SetEnvironmentVariable("SYSTEMDLLPATH", szDLLPath);

  000d6	ff 75 b8	 push	 DWORD PTR _szDLLPath$11[ebp]
  000d9	68 00 00 00 00	 push	 OFFSET ??_C@_0O@DBLFPBPG@SYSTEMDLLPATH@
  000de	ff 15 00 00 00
	00		 call	 DWORD PTR __imp__SetEnvironmentVariableA@8

; 289  : 	}

  000e4	8d 4d b8	 lea	 ecx, DWORD PTR _szDLLPath$11[ebp]
  000e7	c7 45 fc ff ff
	ff ff		 mov	 DWORD PTR __$EHRec$[ebp+8], -1
  000ee	ff 15 00 00 00
	00		 call	 DWORD PTR __imp_??1?$CStringT@DV?$StrTraitMFC_DLL@DV?$ChTraitsCRT@D@ATL@@@@@ATL@@QAE@XZ
  000f4	8b 7d b4	 mov	 edi, DWORD PTR $T8[ebp]
  000f7	eb 06		 jmp	 SHORT $LN2@OnInitDial
$LN84@OnInitDial:
  000f9	81 c7 24 08 00
	00		 add	 edi, 2084		; 00000824H
$LN2@OnInitDial:

; 1294 : 	CString szDir = m_szEncUserDir;

  000ff	57		 push	 edi
  00100	8d 4d b4	 lea	 ecx, DWORD PTR _szDir$9[ebp]
  00103	ff 15 00 00 00
	00		 call	 DWORD PTR __imp_??0?$CStringT@DV?$StrTraitMFC_DLL@DV?$ChTraitsCRT@D@ATL@@@@@ATL@@QAE@ABV01@@Z

; 1295 : 	CString szPath;

  00109	8d 4d a8	 lea	 ecx, DWORD PTR _szPath$5[ebp]
  0010c	c7 45 fc 01 00
	00 00		 mov	 DWORD PTR __$EHRec$[ebp+8], 1
  00113	ff 15 00 00 00
	00		 call	 DWORD PTR __imp_??0?$CStringT@DV?$StrTraitMFC_DLL@DV?$ChTraitsCRT@D@ATL@@@@@ATL@@QAE@XZ

; 1296 : //@
; 1297 : 
; 1298 : 	// :  SD, SDD    .
; 1299 : 	const int nFolderCnt=9;
; 1300 : 	char *aSubDir[nFolderCnt] = {"STData", "STData\\ST", "STData\\ST\\", "STData\\ST\\"

  00119	c7 45 c0 00 00
	00 00		 mov	 DWORD PTR _aSubDir$14[ebp], OFFSET ??_C@_06OGEGGNMP@STData@

; 1301 : 		,"STData\\Temp", "STData\\STBasic", "STData\\STBasic\\"
; 1302 : 		, "STData\\SD", "STData\\SDD"};
; 1303 : /*
; 1304 : 	const int nFolderCnt=5;
; 1305 : 	char *aSubDir[nFolderCnt] = {"STData", "STData\\SD", "STData\\ST", "STData\\ST\\","STData\\Temp"};
; 1306 : */
; 1307 : 	for(int i=0; i<nFolderCnt; i++) 

  00120	33 ff		 xor	 edi, edi
  00122	c7 45 c4 00 00
	00 00		 mov	 DWORD PTR _aSubDir$14[ebp+4], OFFSET ??_C@_09OEOJJIHH@STData?2ST@
  00129	c7 45 c8 00 00
	00 00		 mov	 DWORD PTR _aSubDir$14[ebp+8], OFFSET ??_C@_0BJ@EBBPKHM@STData?2ST?2?$LL?g?$LP?k?$MA?Z?$LE?$NM?$MA?$KH?$MA?$PM?$LH?$KL@
  00130	c7 45 cc 00 00
	00 00		 mov	 DWORD PTR _aSubDir$14[ebp+12], OFFSET ??_C@_0BJ@HMEDFCNB@STData?2ST?2?$LL?g?$LP?k?$MA?Z?A?$LG?G?U?$MA?$PM?$LH?$KL@
  00137	c7 45 d0 00 00
	00 00		 mov	 DWORD PTR _aSubDir$14[ebp+16], OFFSET ??_C@_0M@LCNHCPP@STData?2Temp@
  0013e	c7 45 d4 00 00
	00 00		 mov	 DWORD PTR _aSubDir$14[ebp+20], OFFSET ??_C@_0P@DJLJBKHA@STData?2STBasic@
  00145	c7 45 d8 00 00
	00 00		 mov	 DWORD PTR _aSubDir$14[ebp+24], OFFSET ??_C@_0BK@LOJGNPMK@STData?2STBasic?2?$LL?g?$LP?k?$MA?Z?$MA?$PM?$LH?$KL@
  0014c	c7 45 dc 00 00
	00 00		 mov	 DWORD PTR _aSubDir$14[ebp+28], OFFSET ??_C@_09KOCLIKCG@STData?2SD@
  00153	c7 45 e0 00 00
	00 00		 mov	 DWORD PTR _aSubDir$14[ebp+32], OFFSET ??_C@_0L@EGLGCEHG@STData?2SDD@
  0015a	66 0f 1f 44 00
	00		 npad	 6
$LL23@OnInitDial:
; File C:\Program Files (x86)\Microsoft Visual Studio\2019\Community\VC\Tools\MSVC\14.29.30133\atlmfc\include\cstringt.h

; 2401 : 		CStringT strResult( str1.GetManager() );

  00160	8d 4d b4	 lea	 ecx, DWORD PTR _szDir$9[ebp]
; File D:\git\src\IBK\IBK_DRFN\ProjSrc\SrcDrfn\Chart\MULTICHART\TabSystemTradingEx.cpp

; 1309 : 		szPath = szDir + "\\" + aSubDir[i];

  00163	c6 45 fc 03	 mov	 BYTE PTR __$EHRec$[ebp+8], 3
; File C:\Program Files (x86)\Microsoft Visual Studio\2019\Community\VC\Tools\MSVC\14.29.30133\atlmfc\include\cstringt.h

; 2401 : 		CStringT strResult( str1.GetManager() );

  00167	ff 15 00 00 00
	00		 call	 DWORD PTR __imp_?GetManager@?$CStringT@DV?$StrTraitMFC_DLL@DV?$ChTraitsCRT@D@ATL@@@@@ATL@@QBEPAUIAtlStringMgr@2@XZ
  0016d	50		 push	 eax
  0016e	8d 4d bc	 lea	 ecx, DWORD PTR $T13[ebp]
  00171	ff 15 00 00 00
	00		 call	 DWORD PTR __imp_??0?$CStringT@DV?$StrTraitMFC_DLL@DV?$ChTraitsCRT@D@ATL@@@@@ATL@@QAE@PAUIAtlStringMgr@1@@Z
; File C:\Program Files (x86)\Microsoft Visual Studio\2019\Community\VC\Tools\MSVC\14.29.30133\atlmfc\include\atlsimpstr.h

; 519  : 		return( GetData()->nDataLength );

  00177	8b 45 b4	 mov	 eax, DWORD PTR _szDir$9[ebp]
; File C:\Program Files (x86)\Microsoft Visual Studio\2019\Community\VC\Tools\MSVC\14.29.30133\atlmfc\include\cstringt.h

; 2405 : 		return( strResult );

  0017a	83 ce 02	 or	 esi, 2
  0017d	6a 01		 push	 1
  0017f	68 00 00 00 00	 push	 OFFSET ??_C@_01KICIPPFI@?2@
  00184	89 75 ac	 mov	 DWORD PTR $T6[ebp], esi
  00187	ff 70 f4	 push	 DWORD PTR [eax-12]
  0018a	50		 push	 eax
  0018b	8d 45 bc	 lea	 eax, DWORD PTR $T13[ebp]
  0018e	50		 push	 eax
  0018f	ff 15 00 00 00
	00		 call	 DWORD PTR __imp_?Concatenate@?$CSimpleStringT@D$00@ATL@@KAXAAV12@PBDH1H@Z
; File D:\git\src\IBK\IBK_DRFN\ProjSrc\SrcDrfn\Chart\MULTICHART\TabSystemTradingEx.cpp

; 1309 : 		szPath = szDir + "\\" + aSubDir[i];

  00195	8b 5c bd c0	 mov	 ebx, DWORD PTR _aSubDir$14[ebp+edi*4]
; File C:\Program Files (x86)\Microsoft Visual Studio\2019\Community\VC\Tools\MSVC\14.29.30133\atlmfc\include\cstringt.h

; 2403 : 		CThisSimpleString::Concatenate( strResult, str1, str1.GetLength(), psz2, CThisSimpleString::StringLength( psz2 ) );

  00199	83 c4 14	 add	 esp, 20			; 00000014H

; 2401 : 		CStringT strResult( str1.GetManager() );

  0019c	8d 4d bc	 lea	 ecx, DWORD PTR $T13[ebp]
; File D:\git\src\IBK\IBK_DRFN\ProjSrc\SrcDrfn\Chart\MULTICHART\TabSystemTradingEx.cpp

; 1309 : 		szPath = szDir + "\\" + aSubDir[i];

  0019f	c6 45 fc 04	 mov	 BYTE PTR __$EHRec$[ebp+8], 4
; File C:\Program Files (x86)\Microsoft Visual Studio\2019\Community\VC\Tools\MSVC\14.29.30133\atlmfc\include\cstringt.h

; 2401 : 		CStringT strResult( str1.GetManager() );

  001a3	ff 15 00 00 00
	00		 call	 DWORD PTR __imp_?GetManager@?$CStringT@DV?$StrTraitMFC_DLL@DV?$ChTraitsCRT@D@ATL@@@@@ATL@@QBEPAUIAtlStringMgr@2@XZ
  001a9	50		 push	 eax
  001aa	8d 4d b8	 lea	 ecx, DWORD PTR $T10[ebp]
  001ad	ff 15 00 00 00
	00		 call	 DWORD PTR __imp_??0?$CStringT@DV?$StrTraitMFC_DLL@DV?$ChTraitsCRT@D@ATL@@@@@ATL@@QAE@PAUIAtlStringMgr@1@@Z

; 2405 : 		return( strResult );

  001b3	83 ce 04	 or	 esi, 4
  001b6	89 75 ac	 mov	 DWORD PTR $T6[ebp], esi
; File C:\Program Files (x86)\Microsoft Visual Studio\2019\Community\VC\Tools\MSVC\14.29.30133\atlmfc\include\atlsimpstr.h

; 722  : 		if( psz == NULL )

  001b9	85 db		 test	 ebx, ebx
  001bb	75 04		 jne	 SHORT $LN47@OnInitDial

; 723  : 		{
; 724  : 			return( 0 );

  001bd	33 c9		 xor	 ecx, ecx
  001bf	eb 0e		 jmp	 SHORT $LN46@OnInitDial
$LN47@OnInitDial:

; 725  : 		}
; 726  : 		return( int( strlen( psz ) ) );

  001c1	8b cb		 mov	 ecx, ebx
  001c3	8d 51 01	 lea	 edx, DWORD PTR [ecx+1]
$LL86@OnInitDial:
  001c6	8a 01		 mov	 al, BYTE PTR [ecx]
  001c8	41		 inc	 ecx
  001c9	84 c0		 test	 al, al
  001cb	75 f9		 jne	 SHORT $LL86@OnInitDial
  001cd	2b ca		 sub	 ecx, edx
$LN46@OnInitDial:

; 519  : 		return( GetData()->nDataLength );

  001cf	8b 45 bc	 mov	 eax, DWORD PTR $T13[ebp]
; File C:\Program Files (x86)\Microsoft Visual Studio\2019\Community\VC\Tools\MSVC\14.29.30133\atlmfc\include\cstringt.h

; 2403 : 		CThisSimpleString::Concatenate( strResult, str1, str1.GetLength(), psz2, CThisSimpleString::StringLength( psz2 ) );

  001d2	51		 push	 ecx
  001d3	53		 push	 ebx
  001d4	ff 70 f4	 push	 DWORD PTR [eax-12]
  001d7	50		 push	 eax
  001d8	8d 45 b8	 lea	 eax, DWORD PTR $T10[ebp]
  001db	50		 push	 eax
  001dc	ff 15 00 00 00
	00		 call	 DWORD PTR __imp_?Concatenate@?$CSimpleStringT@D$00@ATL@@KAXAAV12@PBDH1H@Z
  001e2	83 c4 14	 add	 esp, 20			; 00000014H
; File D:\git\src\IBK\IBK_DRFN\ProjSrc\SrcDrfn\Chart\MULTICHART\TabSystemTradingEx.cpp

; 1309 : 		szPath = szDir + "\\" + aSubDir[i];

  001e5	8d 45 b8	 lea	 eax, DWORD PTR $T10[ebp]
  001e8	8d 4d a8	 lea	 ecx, DWORD PTR _szPath$5[ebp]
  001eb	50		 push	 eax
  001ec	ff 15 00 00 00
	00		 call	 DWORD PTR __imp_??4?$CStringT@DV?$StrTraitMFC_DLL@DV?$ChTraitsCRT@D@ATL@@@@@ATL@@QAEAAV01@ABV01@@Z
  001f2	8d 4d b8	 lea	 ecx, DWORD PTR $T10[ebp]
  001f5	83 e6 fb	 and	 esi, -5			; fffffffbH
  001f8	ff 15 00 00 00
	00		 call	 DWORD PTR __imp_??1?$CStringT@DV?$StrTraitMFC_DLL@DV?$ChTraitsCRT@D@ATL@@@@@ATL@@QAE@XZ
  001fe	8d 4d bc	 lea	 ecx, DWORD PTR $T13[ebp]
  00201	83 e6 fd	 and	 esi, -3			; fffffffdH
  00204	ff 15 00 00 00
	00		 call	 DWORD PTR __imp_??1?$CStringT@DV?$StrTraitMFC_DLL@DV?$ChTraitsCRT@D@ATL@@@@@ATL@@QAE@XZ

; 1310 : 		::CreateDirectory(szPath, NULL);

  0020a	6a 00		 push	 0
  0020c	ff 75 a8	 push	 DWORD PTR _szPath$5[ebp]
  0020f	ff 15 00 00 00
	00		 call	 DWORD PTR __imp__CreateDirectoryA@8
  00215	47		 inc	 edi
  00216	83 ff 09	 cmp	 edi, 9
  00219	0f 8c 41 ff ff
	ff		 jl	 $LL23@OnInitDial

; 1311 : 	}
; 1312 : }

  0021f	8d 4d a8	 lea	 ecx, DWORD PTR _szPath$5[ebp]
  00222	ff 15 00 00 00
	00		 call	 DWORD PTR __imp_??1?$CStringT@DV?$StrTraitMFC_DLL@DV?$ChTraitsCRT@D@ATL@@@@@ATL@@QAE@XZ
  00228	8d 4d b4	 lea	 ecx, DWORD PTR _szDir$9[ebp]
  0022b	c7 45 fc ff ff
	ff ff		 mov	 DWORD PTR __$EHRec$[ebp+8], -1
  00232	ff 15 00 00 00
	00		 call	 DWORD PTR __imp_??1?$CStringT@DV?$StrTraitMFC_DLL@DV?$ChTraitsCRT@D@ATL@@@@@ATL@@QAE@XZ

; 290  : 
; 291  : 	MakeSTDefaultDirectory();
; 292  : 	//m_ilSTIcon.Create(IDB_IL_STICON, 16, 0, RGB(0,128,128));
; 293  : 
; 294  : 	GetDlgItem(IDC_STFRAME1)->ShowWindow(SW_HIDE);

  00238	8b 5d 9c	 mov	 ebx, DWORD PTR _this$GSCopy$1$[ebp]
  0023b	8b cb		 mov	 ecx, ebx
  0023d	6a 00		 push	 0
  0023f	68 78 18 00 00	 push	 6264			; 00001878H
  00244	e8 00 00 00 00	 call	 ?GetDlgItem@CWnd@@QBEPAV1@H@Z ; CWnd::GetDlgItem
  00249	8b c8		 mov	 ecx, eax
  0024b	e8 00 00 00 00	 call	 ?ShowWindow@CWnd@@QAEHH@Z ; CWnd::ShowWindow

; 295  : 	GetDlgItem(IDC_STFRAME2)->ShowWindow(SW_HIDE);

  00250	6a 00		 push	 0
  00252	68 b1 17 00 00	 push	 6065			; 000017b1H
  00257	8b cb		 mov	 ecx, ebx
  00259	e8 00 00 00 00	 call	 ?GetDlgItem@CWnd@@QBEPAV1@H@Z ; CWnd::GetDlgItem
  0025e	8b c8		 mov	 ecx, eax
  00260	e8 00 00 00 00	 call	 ?ShowWindow@CWnd@@QAEHH@Z ; CWnd::ShowWindow

; 296  : 
; 297  : 	InitControl();

  00265	8b cb		 mov	 ecx, ebx
  00267	e8 00 00 00 00	 call	 ?InitControl@CTabSystemTradingEx@@QAEXXZ ; CTabSystemTradingEx::InitControl

; 298  : 	LoadOutlookBar();

  0026c	8b cb		 mov	 ecx, ebx
  0026e	e8 00 00 00 00	 call	 ?LoadOutlookBar@CTabSystemTradingEx@@QAEXXZ ; CTabSystemTradingEx::LoadOutlookBar

; 520  : 	m_pIAUDataMonitorManager = (IAUDataMonitorManager*)AfxGetPctrInterface(nID);

  00273	6a 1c		 push	 28			; 0000001cH
  00275	e8 00 00 00 00	 call	 ?AfxGetPctrInterface@@YGJH@Z ; AfxGetPctrInterface

; 521  : 	CString szKey = "STLIST_MODIFIED"; 

  0027a	68 00 00 00 00	 push	 OFFSET ??_C@_0BA@PIGBAOMG@STLIST_MODIFIED@
  0027f	8d 4d b0	 lea	 ecx, DWORD PTR _szKey$7[ebp]
  00282	89 83 60 09 00
	00		 mov	 DWORD PTR [ebx+2400], eax
  00288	ff 15 00 00 00
	00		 call	 DWORD PTR __imp_??0?$CStringT@DV?$StrTraitMFC_DLL@DV?$ChTraitsCRT@D@ATL@@@@@ATL@@QAE@PBD@Z

; 522  : 	m_dwIAUDataMonitorManager[0] = m_pIAUDataMonitorManager->Advise(szKey, (long)this, (long)NULL, DataMonitorCallbackProc);

  0028e	8b 83 60 09 00
	00		 mov	 eax, DWORD PTR [ebx+2400]
  00294	68 00 00 00 00	 push	 OFFSET ?DataMonitorCallbackProc@CTabSystemTradingEx@@SGXPBDJJJJ@Z ; CTabSystemTradingEx::DataMonitorCallbackProc
  00299	6a 00		 push	 0
  0029b	53		 push	 ebx
  0029c	ff 75 b0	 push	 DWORD PTR _szKey$7[ebp]
  0029f	8b 08		 mov	 ecx, DWORD PTR [eax]
  002a1	50		 push	 eax
  002a2	c7 45 fc 05 00
	00 00		 mov	 DWORD PTR __$EHRec$[ebp+8], 5
  002a9	ff 11		 call	 DWORD PTR [ecx]

; 523  : 
; 524  : 	szKey = "MultiChart_ReceiveData"; 

  002ab	68 00 00 00 00	 push	 OFFSET ??_C@_0BH@DGGPLJDE@MultiChart_ReceiveData@
  002b0	8d 4d b0	 lea	 ecx, DWORD PTR _szKey$7[ebp]
  002b3	89 83 64 09 00
	00		 mov	 DWORD PTR [ebx+2404], eax
  002b9	ff 15 00 00 00
	00		 call	 DWORD PTR __imp_??4?$CStringT@DV?$StrTraitMFC_DLL@DV?$ChTraitsCRT@D@ATL@@@@@ATL@@QAEAAV01@PBD@Z

; 525  : 	m_dwIAUDataMonitorManager[1] = m_pIAUDataMonitorManager->Advise(szKey, (long)this, (long)NULL, DataMonitorCallbackProc);

  002bf	8b 83 60 09 00
	00		 mov	 eax, DWORD PTR [ebx+2400]
  002c5	68 00 00 00 00	 push	 OFFSET ?DataMonitorCallbackProc@CTabSystemTradingEx@@SGXPBDJJJJ@Z ; CTabSystemTradingEx::DataMonitorCallbackProc
  002ca	6a 00		 push	 0
  002cc	53		 push	 ebx
  002cd	ff 75 b0	 push	 DWORD PTR _szKey$7[ebp]
  002d0	8b 08		 mov	 ecx, DWORD PTR [eax]
  002d2	50		 push	 eax
  002d3	ff 11		 call	 DWORD PTR [ecx]
; File C:\Program Files (x86)\Microsoft Visual Studio\2019\Community\VC\Tools\MSVC\14.29.30133\atlmfc\include\afxwin2.inl

; 198  : 	{ return CWnd::FromHandle(::FindWindow(lpszClassName, lpszWindowName)); }

  002d5	68 00 00 00 00	 push	 OFFSET ??_C@_0O@OENIFHCP@SystemTrading@
  002da	6a 00		 push	 0
; File D:\git\src\IBK\IBK_DRFN\ProjSrc\SrcDrfn\Chart\MULTICHART\TabSystemTradingEx.cpp

; 525  : 	m_dwIAUDataMonitorManager[1] = m_pIAUDataMonitorManager->Advise(szKey, (long)this, (long)NULL, DataMonitorCallbackProc);

  002dc	89 83 68 09 00
	00		 mov	 DWORD PTR [ebx+2408], eax
; File C:\Program Files (x86)\Microsoft Visual Studio\2019\Community\VC\Tools\MSVC\14.29.30133\atlmfc\include\afxwin2.inl

; 198  : 	{ return CWnd::FromHandle(::FindWindow(lpszClassName, lpszWindowName)); }

  002e2	ff 15 00 00 00
	00		 call	 DWORD PTR __imp__FindWindowA@8
  002e8	50		 push	 eax
  002e9	e8 00 00 00 00	 call	 ?FromHandle@CWnd@@SGPAV1@PAUHWND__@@@Z ; CWnd::FromHandle
; File D:\git\src\IBK\IBK_DRFN\ProjSrc\SrcDrfn\Chart\MULTICHART\TabSystemTradingEx.cpp

; 528  : 	CWnd* pWndCompiler = FindWindow(NULL, _T("SystemTrading"));

  002ee	8b f8		 mov	 edi, eax

; 529  : 	if(pWndCompiler)

  002f0	85 ff		 test	 edi, edi
  002f2	0f 84 c6 00 00
	00		 je	 $LN58@OnInitDial
  002f8	0f 57 c0	 xorps	 xmm0, xmm0
; File D:\git\src\IBK\IBK_DRFN\ProjSrc\SrcDrfn\inc\IBaseDefine.h

; 245  : 	AfxGetHanaroMainWnd(hMain);

  002fb	c7 45 a0 00 00
	00 00		 mov	 DWORD PTR _hMain$3[ebp], 0
  00302	8d 4d a4	 lea	 ecx, DWORD PTR _szClipFormat$4[ebp]
  00305	66 0f d6 45 e4	 movq	 QWORD PTR _aBufWnd$15[ebp], xmm0
  0030a	c6 45 ec 00	 mov	 BYTE PTR _aBufWnd$15[ebp+8], 0
  0030e	ff 15 00 00 00
	00		 call	 DWORD PTR __imp_??0?$CStringT@DV?$StrTraitMFC_DLL@DV?$ChTraitsCRT@D@ATL@@@@@ATL@@QAE@XZ
  00314	68 00 00 00 00	 push	 OFFSET ??_C@_0M@CBBNGGHM@PcTrMng?4dll@
  00319	c6 45 fc 06	 mov	 BYTE PTR __$EHRec$[ebp+8], 6
  0031d	ff 15 00 00 00
	00		 call	 DWORD PTR __imp__GetModuleHandleA@4
  00323	8b 35 00 00 00
	00		 mov	 esi, DWORD PTR __imp_?Format@?$CStringT@DV?$StrTraitMFC_DLL@DV?$ChTraitsCRT@D@ATL@@@@@ATL@@QAAXPBDZZ
  00329	50		 push	 eax
  0032a	68 00 00 00 00	 push	 OFFSET ??_C@_0P@IDMAJEGN@HANAROPCTRMAIN@
  0032f	8d 45 a4	 lea	 eax, DWORD PTR _szClipFormat$4[ebp]
  00332	68 00 00 00 00	 push	 OFFSET ??_C@_06NDLAHCHE@?$CFs?$CF08X@
  00337	50		 push	 eax
  00338	ff d6		 call	 esi
  0033a	83 c4 10	 add	 esp, 16			; 00000010H
  0033d	8d 45 e4	 lea	 eax, DWORD PTR _aBufWnd$15[ebp]
  00340	6a 09		 push	 9
  00342	50		 push	 eax
  00343	ff 75 a4	 push	 DWORD PTR _szClipFormat$4[ebp]
  00346	ff 15 00 00 00
	00		 call	 DWORD PTR __imp__GetEnvironmentVariableA@12
  0034c	8d 45 a0	 lea	 eax, DWORD PTR _hMain$3[ebp]
  0034f	50		 push	 eax
  00350	8d 45 e4	 lea	 eax, DWORD PTR _aBufWnd$15[ebp]
  00353	68 00 00 00 00	 push	 OFFSET ??_C@_02EMFKHFLK@?$CFX@
  00358	50		 push	 eax
  00359	e8 00 00 00 00	 call	 _sscanf
  0035e	83 c4 0c	 add	 esp, 12			; 0000000cH
  00361	8d 4d a4	 lea	 ecx, DWORD PTR _szClipFormat$4[ebp]
  00364	ff 15 00 00 00
	00		 call	 DWORD PTR __imp_??1?$CStringT@DV?$StrTraitMFC_DLL@DV?$ChTraitsCRT@D@ATL@@@@@ATL@@QAE@XZ
; File D:\git\src\IBK\IBK_DRFN\ProjSrc\SrcDrfn\Chart\MULTICHART\TabSystemTradingEx.cpp

; 533  : 		CString szPctr;

  0036a	8d 4d bc	 lea	 ecx, DWORD PTR _szPctr$12[ebp]
  0036d	ff 15 00 00 00
	00		 call	 DWORD PTR __imp_??0?$CStringT@DV?$StrTraitMFC_DLL@DV?$ChTraitsCRT@D@ATL@@@@@ATL@@QAE@XZ

; 534  : 		szPctr.Format("%08X",h_pctr);

  00373	ff 75 a0	 push	 DWORD PTR _hMain$3[ebp]
  00376	8d 45 bc	 lea	 eax, DWORD PTR _szPctr$12[ebp]
  00379	c6 45 fc 07	 mov	 BYTE PTR __$EHRec$[ebp+8], 7
  0037d	68 00 00 00 00	 push	 OFFSET ??_C@_04JIMNDDED@?$CF08X@
  00382	50		 push	 eax
  00383	ff d6		 call	 esi
  00385	83 c4 0c	 add	 esp, 12			; 0000000cH

; 535  : 		COPYDATASTRUCT copyData;
; 536  : 		copyData.dwData = 2000;

  00388	c7 45 90 d0 07
	00 00		 mov	 DWORD PTR _copyData$2[ebp], 2000 ; 000007d0H

; 537  : 		copyData.cbData = ::lstrlen(szPctr) + sizeof(DWORD);

  0038f	ff 75 bc	 push	 DWORD PTR _szPctr$12[ebp]
  00392	ff 15 00 00 00
	00		 call	 DWORD PTR __imp__lstrlenA@4
  00398	83 c0 04	 add	 eax, 4
  0039b	89 45 94	 mov	 DWORD PTR _copyData$2[ebp+4], eax

; 538  : 		copyData.lpData = (void*)(LPCSTR)szPctr;

  0039e	8b 45 bc	 mov	 eax, DWORD PTR _szPctr$12[ebp]
  003a1	89 45 98	 mov	 DWORD PTR _copyData$2[ebp+8], eax
; File C:\Program Files (x86)\Microsoft Visual Studio\2019\Community\VC\Tools\MSVC\14.29.30133\atlmfc\include\afxwin2.inl

; 32   : 	{ ASSERT(::IsWindow(m_hWnd)); return ::SendMessage(m_hWnd, message, wParam, lParam); }

  003a4	8d 45 90	 lea	 eax, DWORD PTR _copyData$2[ebp]
  003a7	50		 push	 eax
  003a8	6a 00		 push	 0
  003aa	6a 4a		 push	 74			; 0000004aH
  003ac	ff 77 20	 push	 DWORD PTR [edi+32]
  003af	ff 15 00 00 00
	00		 call	 DWORD PTR __imp__SendMessageA@16
; File D:\git\src\IBK\IBK_DRFN\ProjSrc\SrcDrfn\Chart\MULTICHART\TabSystemTradingEx.cpp

; 541  : 	}

  003b5	8d 4d bc	 lea	 ecx, DWORD PTR _szPctr$12[ebp]
  003b8	ff 15 00 00 00
	00		 call	 DWORD PTR __imp_??1?$CStringT@DV?$StrTraitMFC_DLL@DV?$ChTraitsCRT@D@ATL@@@@@ATL@@QAE@XZ
$LN58@OnInitDial:

; 542  : 	
; 543  : }

  003be	8d 4d b0	 lea	 ecx, DWORD PTR _szKey$7[ebp]
  003c1	c7 45 fc ff ff
	ff ff		 mov	 DWORD PTR __$EHRec$[ebp+8], -1
  003c8	ff 15 00 00 00
	00		 call	 DWORD PTR __imp_??1?$CStringT@DV?$StrTraitMFC_DLL@DV?$ChTraitsCRT@D@ATL@@@@@ATL@@QAE@XZ

; 513  : 	ShowHideStOptimaA(TRUE, FALSE);		// bChange=TRUE, bShowOption=FALSE

  003ce	6a 00		 push	 0
  003d0	6a 00		 push	 0
  003d2	6a 01		 push	 1
  003d4	8b cb		 mov	 ecx, ebx
  003d6	e8 00 00 00 00	 call	 ?ShowHideStOptimaA@CTabSystemTradingEx@@QAEXHHH@Z ; CTabSystemTradingEx::ShowHideStOptimaA

; 299  : 	LoadInfo();	
; 300  : 	HideStOptimaA();
; 301  : 	RecalcLayout();

  003db	8b cb		 mov	 ecx, ebx
  003dd	e8 00 00 00 00	 call	 ?RecalcLayout@CTabSystemTradingEx@@QAEXXZ ; CTabSystemTradingEx::RecalcLayout

; 302  : 
; 303  : 
; 304  : 	return TRUE;  // return TRUE unless you set the focus to a control

  003e2	b8 01 00 00 00	 mov	 eax, 1

; 305  : 	// EXCEPTION: OCX Property Pages should return FALSE
; 306  : }

  003e7	8b 4d f4	 mov	 ecx, DWORD PTR __$EHRec$[ebp]
  003ea	64 89 0d 00 00
	00 00		 mov	 DWORD PTR fs:0, ecx
  003f1	59		 pop	 ecx
  003f2	5f		 pop	 edi
  003f3	5e		 pop	 esi
  003f4	5b		 pop	 ebx
  003f5	8b 4d f0	 mov	 ecx, DWORD PTR __$ArrayPad$[ebp]
  003f8	33 cd		 xor	 ecx, ebp
  003fa	e8 00 00 00 00	 call	 @__security_check_cookie@4
  003ff	8b e5		 mov	 esp, ebp
  00401	5d		 pop	 ebp
  00402	c3		 ret	 0
_TEXT	ENDS
;	COMDAT text$x
text$x	SEGMENT
__unwindfunclet$?OnInitDialog@CTabSystemTradingEx@@MAEHXZ$1:
  00000	8b 45 ac	 mov	 eax, DWORD PTR $T6[ebp]
  00003	83 e0 01	 and	 eax, 1
  00006	0f 84 0d 00 00
	00		 je	 $LN8@OnInitDial
  0000c	83 65 ac fe	 and	 DWORD PTR $T6[ebp], -2	; fffffffeH
  00010	8d 4d b8	 lea	 ecx, DWORD PTR _szDLLPath$11[ebp]
  00013	ff 25 00 00 00
	00		 jmp	 DWORD PTR __imp_??1?$CStringT@DV?$StrTraitMFC_DLL@DV?$ChTraitsCRT@D@ATL@@@@@ATL@@QAE@XZ
$LN8@OnInitDial:
  00019	c3		 ret	 0
__unwindfunclet$?OnInitDialog@CTabSystemTradingEx@@MAEHXZ$2:
  0001a	8d 4d b4	 lea	 ecx, DWORD PTR _szDir$9[ebp]
  0001d	ff 25 00 00 00
	00		 jmp	 DWORD PTR __imp_??1?$CStringT@DV?$StrTraitMFC_DLL@DV?$ChTraitsCRT@D@ATL@@@@@ATL@@QAE@XZ
__unwindfunclet$?OnInitDialog@CTabSystemTradingEx@@MAEHXZ$3:
  00023	8d 4d a8	 lea	 ecx, DWORD PTR _szPath$5[ebp]
  00026	ff 25 00 00 00
	00		 jmp	 DWORD PTR __imp_??1?$CStringT@DV?$StrTraitMFC_DLL@DV?$ChTraitsCRT@D@ATL@@@@@ATL@@QAE@XZ
__unwindfunclet$?OnInitDialog@CTabSystemTradingEx@@MAEHXZ$6:
  0002c	8b 45 ac	 mov	 eax, DWORD PTR $T6[ebp]
  0002f	83 e0 02	 and	 eax, 2
  00032	0f 84 0d 00 00
	00		 je	 $LN32@OnInitDial
  00038	83 65 ac fd	 and	 DWORD PTR $T6[ebp], -3	; fffffffdH
  0003c	8d 4d bc	 lea	 ecx, DWORD PTR $T13[ebp]
  0003f	ff 25 00 00 00
	00		 jmp	 DWORD PTR __imp_??1?$CStringT@DV?$StrTraitMFC_DLL@DV?$ChTraitsCRT@D@ATL@@@@@ATL@@QAE@XZ
$LN32@OnInitDial:
  00045	c3		 ret	 0
__unwindfunclet$?OnInitDialog@CTabSystemTradingEx@@MAEHXZ$7:
  00046	8b 45 ac	 mov	 eax, DWORD PTR $T6[ebp]
  00049	83 e0 04	 and	 eax, 4
  0004c	0f 84 0d 00 00
	00		 je	 $LN45@OnInitDial
  00052	83 65 ac fb	 and	 DWORD PTR $T6[ebp], -5	; fffffffbH
  00056	8d 4d b8	 lea	 ecx, DWORD PTR $T10[ebp]
  00059	ff 25 00 00 00
	00		 jmp	 DWORD PTR __imp_??1?$CStringT@DV?$StrTraitMFC_DLL@DV?$ChTraitsCRT@D@ATL@@@@@ATL@@QAE@XZ
$LN45@OnInitDial:
  0005f	c3		 ret	 0
__unwindfunclet$?OnInitDialog@CTabSystemTradingEx@@MAEHXZ$8:
  00060	8d 4d b0	 lea	 ecx, DWORD PTR _szKey$7[ebp]
  00063	ff 25 00 00 00
	00		 jmp	 DWORD PTR __imp_??1?$CStringT@DV?$StrTraitMFC_DLL@DV?$ChTraitsCRT@D@ATL@@@@@ATL@@QAE@XZ
__unwindfunclet$?OnInitDialog@CTabSystemTradingEx@@MAEHXZ$10:
  00069	8d 4d a4	 lea	 ecx, DWORD PTR _szClipFormat$4[ebp]
  0006c	ff 25 00 00 00
	00		 jmp	 DWORD PTR __imp_??1?$CStringT@DV?$StrTraitMFC_DLL@DV?$ChTraitsCRT@D@ATL@@@@@ATL@@QAE@XZ
__unwindfunclet$?OnInitDialog@CTabSystemTradingEx@@MAEHXZ$9:
  00072	8d 4d bc	 lea	 ecx, DWORD PTR _szPctr$12[ebp]
  00075	ff 25 00 00 00
	00		 jmp	 DWORD PTR __imp_??1?$CStringT@DV?$StrTraitMFC_DLL@DV?$ChTraitsCRT@D@ATL@@@@@ATL@@QAE@XZ
  0007b	cc		 int	 3
  0007c	cc		 int	 3
  0007d	cc		 int	 3
  0007e	cc		 int	 3
  0007f	cc		 int	 3
__ehhandler$?OnInitDialog@CTabSystemTradingEx@@MAEHXZ:
  00080	90		 npad	 1
  00081	90		 npad	 1
  00082	8b 54 24 08	 mov	 edx, DWORD PTR [esp+8]
  00086	8d 42 0c	 lea	 eax, DWORD PTR [edx+12]
  00089	8b 4a 8c	 mov	 ecx, DWORD PTR [edx-116]
  0008c	33 c8		 xor	 ecx, eax
  0008e	e8 00 00 00 00	 call	 @__security_check_cookie@4
  00093	8b 4a fc	 mov	 ecx, DWORD PTR [edx-4]
  00096	33 c8		 xor	 ecx, eax
  00098	e8 00 00 00 00	 call	 @__security_check_cookie@4
  0009d	b8 00 00 00 00	 mov	 eax, OFFSET __ehfuncinfo$?OnInitDialog@CTabSystemTradingEx@@MAEHXZ
  000a2	e9 00 00 00 00	 jmp	 ___CxxFrameHandler3
text$x	ENDS
?OnInitDialog@CTabSystemTradingEx@@MAEHXZ ENDP		; CTabSystemTradingEx::OnInitDialog
; Function compile flags: /Ogtp
; File D:\git\src\IBK\IBK_DRFN\ProjSrc\SrcDrfn\Chart\MULTICHART\TabSystemTradingEx.cpp
;	COMDAT ?DoDataExchange@CTabSystemTradingEx@@MAEXPAVCDataExchange@@@Z
_TEXT	SEGMENT
_pDX$ = 8						; size = 4
?DoDataExchange@CTabSystemTradingEx@@MAEXPAVCDataExchange@@@Z PROC ; CTabSystemTradingEx::DoDataExchange, COMDAT
; _this$ = ecx

; 90   : {

  00000	55		 push	 ebp
  00001	8b ec		 mov	 ebp, esp
  00003	56		 push	 esi
  00004	57		 push	 edi

; 91   : 	CTabDlg::DoDataExchange(pDX);

  00005	8b 7d 08	 mov	 edi, DWORD PTR _pDX$[ebp]
  00008	8b f1		 mov	 esi, ecx
  0000a	57		 push	 edi
  0000b	e8 00 00 00 00	 call	 ?DoDataExchange@CTabDlg@@MAEXPAVCDataExchange@@@Z ; CTabDlg::DoDataExchange

; 92   : 
; 93   : 	DDX_Control(pDX, IDC_STWIZARDA, m_BtnStwizardA);

  00010	8d 86 d8 00 00
	00		 lea	 eax, DWORD PTR [esi+216]
  00016	50		 push	 eax
  00017	68 77 18 00 00	 push	 6263			; 00001877H
  0001c	57		 push	 edi
  0001d	e8 00 00 00 00	 call	 ?DDX_Control@@YGXPAVCDataExchange@@HAAVCWnd@@@Z ; DDX_Control

; 94   : 	DDX_Control(pDX, IDC_STOPTIMA, m_BtnStoptimaA);

  00022	8d 86 38 02 00
	00		 lea	 eax, DWORD PTR [esi+568]
  00028	50		 push	 eax
  00029	68 66 18 00 00	 push	 6246			; 00001866H
  0002e	57		 push	 edi
  0002f	e8 00 00 00 00	 call	 ?DDX_Control@@YGXPAVCDataExchange@@HAAVCWnd@@@Z ; DDX_Control

; 95   : 	DDX_Control(pDX, IDC_STDELETE, m_BtnStDelete);

  00034	8d 86 98 03 00
	00		 lea	 eax, DWORD PTR [esi+920]
  0003a	50		 push	 eax
  0003b	68 92 18 00 00	 push	 6290			; 00001892H
  00040	57		 push	 edi
  00041	e8 00 00 00 00	 call	 ?DDX_Control@@YGXPAVCDataExchange@@HAAVCWnd@@@Z ; DDX_Control

; 96   : 	DDX_Control(pDX, IDC_STANAL, m_BtnStanal);

  00046	8d 86 f8 04 00
	00		 lea	 eax, DWORD PTR [esi+1272]
  0004c	50		 push	 eax
  0004d	68 67 18 00 00	 push	 6247			; 00001867H
  00052	57		 push	 edi
  00053	e8 00 00 00 00	 call	 ?DDX_Control@@YGXPAVCDataExchange@@HAAVCWnd@@@Z ; DDX_Control

; 97   : 	DDX_Control(pDX, IDC_STSHOWOPTION, m_BtnOption);

  00058	8d 86 58 06 00
	00		 lea	 eax, DWORD PTR [esi+1624]
  0005e	50		 push	 eax
  0005f	68 63 18 00 00	 push	 6243			; 00001863H
  00064	57		 push	 edi
  00065	e8 00 00 00 00	 call	 ?DDX_Control@@YGXPAVCDataExchange@@HAAVCWnd@@@Z ; DDX_Control
  0006a	5f		 pop	 edi
  0006b	5e		 pop	 esi

; 98   : }

  0006c	5d		 pop	 ebp
  0006d	c2 04 00	 ret	 4
?DoDataExchange@CTabSystemTradingEx@@MAEXPAVCDataExchange@@@Z ENDP ; CTabSystemTradingEx::DoDataExchange
_TEXT	ENDS
; Function compile flags: /Ogtp
; File D:\git\src\IBK\IBK_DRFN\ProjSrc\SrcDrfn\Chart\MULTICHART\TabSystemTradingEx.cpp
; File C:\Program Files (x86)\Microsoft Visual Studio\2019\Community\VC\Tools\MSVC\14.29.30133\atlmfc\include\cstringt.h
; File D:\git\src\IBK\IBK_DRFN\ProjSrc\SrcDrfn\Chart\MULTICHART\TabSystemTradingEx.cpp
; File C:\Program Files (x86)\Microsoft Visual Studio\2019\Community\VC\Tools\MSVC\14.29.30133\atlmfc\include\cstringt.h
; File C:\Program Files (x86)\Microsoft Visual Studio\2019\Community\VC\Tools\MSVC\14.29.30133\atlmfc\include\atlsimpstr.h
; File C:\Program Files (x86)\Microsoft Visual Studio\2019\Community\VC\Tools\MSVC\14.29.30133\atlmfc\include\cstringt.h
; File D:\git\src\IBK\IBK_DRFN\ProjSrc\SrcDrfn\Chart\MULTICHART\TabSystemTradingEx.cpp
; File C:\Program Files (x86)\Microsoft Visual Studio\2019\Community\VC\Tools\MSVC\14.29.30133\atlmfc\include\cstringt.h
; File D:\git\src\IBK\IBK_DRFN\ProjSrc\SrcDrfn\Chart\MULTICHART\TabSystemTradingEx.cpp
; File C:\Program Files (x86)\Microsoft Visual Studio\2019\Community\VC\Tools\MSVC\14.29.30133\atlmfc\include\cstringt.h
; File C:\Program Files (x86)\Microsoft Visual Studio\2019\Community\VC\Tools\MSVC\14.29.30133\atlmfc\include\atlsimpstr.h
; File C:\Program Files (x86)\Microsoft Visual Studio\2019\Community\VC\Tools\MSVC\14.29.30133\atlmfc\include\cstringt.h
; File D:\git\src\IBK\IBK_DRFN\ProjSrc\SrcDrfn\Chart\MULTICHART\TabSystemTradingEx.cpp
;	COMDAT ?MakeSTDefaultDirectory@CTabSystemTradingEx@@AAEXXZ
_TEXT	SEGMENT
$T2 = -72						; size = 4
_szDir$ = -68						; size = 4
_szPath$ = -64						; size = 4
$T3 = -60						; size = 4
$T4 = -56						; size = 4
_aSubDir$ = -52						; size = 36
__$ArrayPad$ = -16					; size = 4
__$EHRec$ = -12						; size = 12
?MakeSTDefaultDirectory@CTabSystemTradingEx@@AAEXXZ PROC ; CTabSystemTradingEx::MakeSTDefaultDirectory, COMDAT
; _this$ = ecx

; 1287 : {

  00000	55		 push	 ebp
  00001	8b ec		 mov	 ebp, esp
  00003	6a ff		 push	 -1
  00005	68 00 00 00 00	 push	 __ehhandler$?MakeSTDefaultDirectory@CTabSystemTradingEx@@AAEXXZ
  0000a	64 a1 00 00 00
	00		 mov	 eax, DWORD PTR fs:0
  00010	50		 push	 eax
  00011	83 ec 3c	 sub	 esp, 60			; 0000003cH
  00014	a1 00 00 00 00	 mov	 eax, DWORD PTR ___security_cookie
  00019	33 c5		 xor	 eax, ebp
  0001b	89 45 f0	 mov	 DWORD PTR __$ArrayPad$[ebp], eax
  0001e	53		 push	 ebx
  0001f	56		 push	 esi
  00020	57		 push	 edi
  00021	50		 push	 eax
  00022	8d 45 f4	 lea	 eax, DWORD PTR __$EHRec$[ebp]
  00025	64 a3 00 00 00
	00		 mov	 DWORD PTR fs:0, eax

; 1288 : 	//CString szDir = (LPCSTR)AfxGetPctrData(17);	// 17 : User
; 1289 : //@
; 1290 : //	CString szDir = m_pParentDlg->m_strRootPath + "\\User\\";
; 1291 : //	CString szPath;
; 1292 : //@
; 1293 : //@
; 1294 : 	CString szDir = m_szEncUserDir;

  0002b	8d 81 24 08 00
	00		 lea	 eax, DWORD PTR [ecx+2084]
  00031	33 f6		 xor	 esi, esi
  00033	50		 push	 eax
  00034	8d 4d bc	 lea	 ecx, DWORD PTR _szDir$[ebp]
  00037	89 75 b8	 mov	 DWORD PTR $T2[ebp], esi
  0003a	ff 15 00 00 00
	00		 call	 DWORD PTR __imp_??0?$CStringT@DV?$StrTraitMFC_DLL@DV?$ChTraitsCRT@D@ATL@@@@@ATL@@QAE@ABV01@@Z

; 1295 : 	CString szPath;

  00040	8d 4d c0	 lea	 ecx, DWORD PTR _szPath$[ebp]
  00043	89 75 fc	 mov	 DWORD PTR __$EHRec$[ebp+8], esi
  00046	ff 15 00 00 00
	00		 call	 DWORD PTR __imp_??0?$CStringT@DV?$StrTraitMFC_DLL@DV?$ChTraitsCRT@D@ATL@@@@@ATL@@QAE@XZ

; 1296 : //@
; 1297 : 
; 1298 : 	// :  SD, SDD    .
; 1299 : 	const int nFolderCnt=9;
; 1300 : 	char *aSubDir[nFolderCnt] = {"STData", "STData\\ST", "STData\\ST\\", "STData\\ST\\"

  0004c	c7 45 cc 00 00
	00 00		 mov	 DWORD PTR _aSubDir$[ebp], OFFSET ??_C@_06OGEGGNMP@STData@

; 1301 : 		,"STData\\Temp", "STData\\STBasic", "STData\\STBasic\\"
; 1302 : 		, "STData\\SD", "STData\\SDD"};
; 1303 : /*
; 1304 : 	const int nFolderCnt=5;
; 1305 : 	char *aSubDir[nFolderCnt] = {"STData", "STData\\SD", "STData\\ST", "STData\\ST\\","STData\\Temp"};
; 1306 : */
; 1307 : 	for(int i=0; i<nFolderCnt; i++) 

  00053	33 db		 xor	 ebx, ebx
  00055	c7 45 d0 00 00
	00 00		 mov	 DWORD PTR _aSubDir$[ebp+4], OFFSET ??_C@_09OEOJJIHH@STData?2ST@
  0005c	c7 45 d4 00 00
	00 00		 mov	 DWORD PTR _aSubDir$[ebp+8], OFFSET ??_C@_0BJ@EBBPKHM@STData?2ST?2?$LL?g?$LP?k?$MA?Z?$LE?$NM?$MA?$KH?$MA?$PM?$LH?$KL@
  00063	c7 45 d8 00 00
	00 00		 mov	 DWORD PTR _aSubDir$[ebp+12], OFFSET ??_C@_0BJ@HMEDFCNB@STData?2ST?2?$LL?g?$LP?k?$MA?Z?A?$LG?G?U?$MA?$PM?$LH?$KL@
  0006a	c7 45 dc 00 00
	00 00		 mov	 DWORD PTR _aSubDir$[ebp+16], OFFSET ??_C@_0M@LCNHCPP@STData?2Temp@
  00071	c7 45 e0 00 00
	00 00		 mov	 DWORD PTR _aSubDir$[ebp+20], OFFSET ??_C@_0P@DJLJBKHA@STData?2STBasic@
  00078	c7 45 e4 00 00
	00 00		 mov	 DWORD PTR _aSubDir$[ebp+24], OFFSET ??_C@_0BK@LOJGNPMK@STData?2STBasic?2?$LL?g?$LP?k?$MA?Z?$MA?$PM?$LH?$KL@
  0007f	c7 45 e8 00 00
	00 00		 mov	 DWORD PTR _aSubDir$[ebp+28], OFFSET ??_C@_09KOCLIKCG@STData?2SD@
  00086	c7 45 ec 00 00
	00 00		 mov	 DWORD PTR _aSubDir$[ebp+32], OFFSET ??_C@_0L@EGLGCEHG@STData?2SDD@
  0008d	0f 1f 00	 npad	 3
$LL4@MakeSTDefa:
; File C:\Program Files (x86)\Microsoft Visual Studio\2019\Community\VC\Tools\MSVC\14.29.30133\atlmfc\include\cstringt.h

; 2401 : 		CStringT strResult( str1.GetManager() );

  00090	8d 4d bc	 lea	 ecx, DWORD PTR _szDir$[ebp]
; File D:\git\src\IBK\IBK_DRFN\ProjSrc\SrcDrfn\Chart\MULTICHART\TabSystemTradingEx.cpp

; 1309 : 		szPath = szDir + "\\" + aSubDir[i];

  00093	c6 45 fc 02	 mov	 BYTE PTR __$EHRec$[ebp+8], 2
; File C:\Program Files (x86)\Microsoft Visual Studio\2019\Community\VC\Tools\MSVC\14.29.30133\atlmfc\include\cstringt.h

; 2401 : 		CStringT strResult( str1.GetManager() );

  00097	ff 15 00 00 00
	00		 call	 DWORD PTR __imp_?GetManager@?$CStringT@DV?$StrTraitMFC_DLL@DV?$ChTraitsCRT@D@ATL@@@@@ATL@@QBEPAUIAtlStringMgr@2@XZ
  0009d	50		 push	 eax
  0009e	8d 4d c8	 lea	 ecx, DWORD PTR $T4[ebp]
  000a1	ff 15 00 00 00
	00		 call	 DWORD PTR __imp_??0?$CStringT@DV?$StrTraitMFC_DLL@DV?$ChTraitsCRT@D@ATL@@@@@ATL@@QAE@PAUIAtlStringMgr@1@@Z
; File C:\Program Files (x86)\Microsoft Visual Studio\2019\Community\VC\Tools\MSVC\14.29.30133\atlmfc\include\atlsimpstr.h

; 519  : 		return( GetData()->nDataLength );

  000a7	8b 45 bc	 mov	 eax, DWORD PTR _szDir$[ebp]
; File C:\Program Files (x86)\Microsoft Visual Studio\2019\Community\VC\Tools\MSVC\14.29.30133\atlmfc\include\cstringt.h

; 2405 : 		return( strResult );

  000aa	83 ce 01	 or	 esi, 1
  000ad	6a 01		 push	 1
  000af	68 00 00 00 00	 push	 OFFSET ??_C@_01KICIPPFI@?2@
  000b4	89 75 b8	 mov	 DWORD PTR $T2[ebp], esi
  000b7	ff 70 f4	 push	 DWORD PTR [eax-12]
  000ba	50		 push	 eax
  000bb	8d 45 c8	 lea	 eax, DWORD PTR $T4[ebp]
  000be	50		 push	 eax
  000bf	ff 15 00 00 00
	00		 call	 DWORD PTR __imp_?Concatenate@?$CSimpleStringT@D$00@ATL@@KAXAAV12@PBDH1H@Z
; File D:\git\src\IBK\IBK_DRFN\ProjSrc\SrcDrfn\Chart\MULTICHART\TabSystemTradingEx.cpp

; 1309 : 		szPath = szDir + "\\" + aSubDir[i];

  000c5	8b 7c 9d cc	 mov	 edi, DWORD PTR _aSubDir$[ebp+ebx*4]
; File C:\Program Files (x86)\Microsoft Visual Studio\2019\Community\VC\Tools\MSVC\14.29.30133\atlmfc\include\cstringt.h

; 2403 : 		CThisSimpleString::Concatenate( strResult, str1, str1.GetLength(), psz2, CThisSimpleString::StringLength( psz2 ) );

  000c9	83 c4 14	 add	 esp, 20			; 00000014H

; 2401 : 		CStringT strResult( str1.GetManager() );

  000cc	8d 4d c8	 lea	 ecx, DWORD PTR $T4[ebp]
; File D:\git\src\IBK\IBK_DRFN\ProjSrc\SrcDrfn\Chart\MULTICHART\TabSystemTradingEx.cpp

; 1309 : 		szPath = szDir + "\\" + aSubDir[i];

  000cf	c6 45 fc 03	 mov	 BYTE PTR __$EHRec$[ebp+8], 3
; File C:\Program Files (x86)\Microsoft Visual Studio\2019\Community\VC\Tools\MSVC\14.29.30133\atlmfc\include\cstringt.h

; 2401 : 		CStringT strResult( str1.GetManager() );

  000d3	ff 15 00 00 00
	00		 call	 DWORD PTR __imp_?GetManager@?$CStringT@DV?$StrTraitMFC_DLL@DV?$ChTraitsCRT@D@ATL@@@@@ATL@@QBEPAUIAtlStringMgr@2@XZ
  000d9	50		 push	 eax
  000da	8d 4d c4	 lea	 ecx, DWORD PTR $T3[ebp]
  000dd	ff 15 00 00 00
	00		 call	 DWORD PTR __imp_??0?$CStringT@DV?$StrTraitMFC_DLL@DV?$ChTraitsCRT@D@ATL@@@@@ATL@@QAE@PAUIAtlStringMgr@1@@Z

; 2405 : 		return( strResult );

  000e3	83 ce 02	 or	 esi, 2
  000e6	89 75 b8	 mov	 DWORD PTR $T2[ebp], esi
; File C:\Program Files (x86)\Microsoft Visual Studio\2019\Community\VC\Tools\MSVC\14.29.30133\atlmfc\include\atlsimpstr.h

; 722  : 		if( psz == NULL )

  000e9	85 ff		 test	 edi, edi
  000eb	75 04		 jne	 SHORT $LN28@MakeSTDefa

; 723  : 		{
; 724  : 			return( 0 );

  000ed	33 c9		 xor	 ecx, ecx
  000ef	eb 0e		 jmp	 SHORT $LN27@MakeSTDefa
$LN28@MakeSTDefa:

; 725  : 		}
; 726  : 		return( int( strlen( psz ) ) );

  000f1	8b cf		 mov	 ecx, edi
  000f3	8d 51 01	 lea	 edx, DWORD PTR [ecx+1]
$LL42@MakeSTDefa:
  000f6	8a 01		 mov	 al, BYTE PTR [ecx]
  000f8	41		 inc	 ecx
  000f9	84 c0		 test	 al, al
  000fb	75 f9		 jne	 SHORT $LL42@MakeSTDefa
  000fd	2b ca		 sub	 ecx, edx
$LN27@MakeSTDefa:

; 519  : 		return( GetData()->nDataLength );

  000ff	8b 45 c8	 mov	 eax, DWORD PTR $T4[ebp]
; File C:\Program Files (x86)\Microsoft Visual Studio\2019\Community\VC\Tools\MSVC\14.29.30133\atlmfc\include\cstringt.h

; 2403 : 		CThisSimpleString::Concatenate( strResult, str1, str1.GetLength(), psz2, CThisSimpleString::StringLength( psz2 ) );

  00102	51		 push	 ecx
  00103	57		 push	 edi
  00104	ff 70 f4	 push	 DWORD PTR [eax-12]
  00107	50		 push	 eax
  00108	8d 45 c4	 lea	 eax, DWORD PTR $T3[ebp]
  0010b	50		 push	 eax
  0010c	ff 15 00 00 00
	00		 call	 DWORD PTR __imp_?Concatenate@?$CSimpleStringT@D$00@ATL@@KAXAAV12@PBDH1H@Z
  00112	83 c4 14	 add	 esp, 20			; 00000014H
; File D:\git\src\IBK\IBK_DRFN\ProjSrc\SrcDrfn\Chart\MULTICHART\TabSystemTradingEx.cpp

; 1309 : 		szPath = szDir + "\\" + aSubDir[i];

  00115	8d 45 c4	 lea	 eax, DWORD PTR $T3[ebp]
  00118	8d 4d c0	 lea	 ecx, DWORD PTR _szPath$[ebp]
  0011b	50		 push	 eax
  0011c	ff 15 00 00 00
	00		 call	 DWORD PTR __imp_??4?$CStringT@DV?$StrTraitMFC_DLL@DV?$ChTraitsCRT@D@ATL@@@@@ATL@@QAEAAV01@ABV01@@Z
  00122	8d 4d c4	 lea	 ecx, DWORD PTR $T3[ebp]
  00125	83 e6 fd	 and	 esi, -3			; fffffffdH
  00128	ff 15 00 00 00
	00		 call	 DWORD PTR __imp_??1?$CStringT@DV?$StrTraitMFC_DLL@DV?$ChTraitsCRT@D@ATL@@@@@ATL@@QAE@XZ
  0012e	8d 4d c8	 lea	 ecx, DWORD PTR $T4[ebp]
  00131	c6 45 fc 01	 mov	 BYTE PTR __$EHRec$[ebp+8], 1
  00135	83 e6 fe	 and	 esi, -2			; fffffffeH
  00138	ff 15 00 00 00
	00		 call	 DWORD PTR __imp_??1?$CStringT@DV?$StrTraitMFC_DLL@DV?$ChTraitsCRT@D@ATL@@@@@ATL@@QAE@XZ

; 1310 : 		::CreateDirectory(szPath, NULL);

  0013e	6a 00		 push	 0
  00140	ff 75 c0	 push	 DWORD PTR _szPath$[ebp]
  00143	ff 15 00 00 00
	00		 call	 DWORD PTR __imp__CreateDirectoryA@8
  00149	43		 inc	 ebx
  0014a	83 fb 09	 cmp	 ebx, 9
  0014d	0f 8c 3d ff ff
	ff		 jl	 $LL4@MakeSTDefa

; 1311 : 	}
; 1312 : }

  00153	8d 4d c0	 lea	 ecx, DWORD PTR _szPath$[ebp]
  00156	ff 15 00 00 00
	00		 call	 DWORD PTR __imp_??1?$CStringT@DV?$StrTraitMFC_DLL@DV?$ChTraitsCRT@D@ATL@@@@@ATL@@QAE@XZ
  0015c	8d 4d bc	 lea	 ecx, DWORD PTR _szDir$[ebp]
  0015f	ff 15 00 00 00
	00		 call	 DWORD PTR __imp_??1?$CStringT@DV?$StrTraitMFC_DLL@DV?$ChTraitsCRT@D@ATL@@@@@ATL@@QAE@XZ
  00165	8b 4d f4	 mov	 ecx, DWORD PTR __$EHRec$[ebp]
  00168	64 89 0d 00 00
	00 00		 mov	 DWORD PTR fs:0, ecx
  0016f	59		 pop	 ecx
  00170	5f		 pop	 edi
  00171	5e		 pop	 esi
  00172	5b		 pop	 ebx
  00173	8b 4d f0	 mov	 ecx, DWORD PTR __$ArrayPad$[ebp]
  00176	33 cd		 xor	 ecx, ebp
  00178	e8 00 00 00 00	 call	 @__security_check_cookie@4
  0017d	8b e5		 mov	 esp, ebp
  0017f	5d		 pop	 ebp
  00180	c3		 ret	 0
_TEXT	ENDS
;	COMDAT text$x
text$x	SEGMENT
__unwindfunclet$?MakeSTDefaultDirectory@CTabSystemTradingEx@@AAEXXZ$0:
  00000	8d 4d bc	 lea	 ecx, DWORD PTR _szDir$[ebp]
  00003	ff 25 00 00 00
	00		 jmp	 DWORD PTR __imp_??1?$CStringT@DV?$StrTraitMFC_DLL@DV?$ChTraitsCRT@D@ATL@@@@@ATL@@QAE@XZ
__unwindfunclet$?MakeSTDefaultDirectory@CTabSystemTradingEx@@AAEXXZ$1:
  00009	8d 4d c0	 lea	 ecx, DWORD PTR _szPath$[ebp]
  0000c	ff 25 00 00 00
	00		 jmp	 DWORD PTR __imp_??1?$CStringT@DV?$StrTraitMFC_DLL@DV?$ChTraitsCRT@D@ATL@@@@@ATL@@QAE@XZ
__unwindfunclet$?MakeSTDefaultDirectory@CTabSystemTradingEx@@AAEXXZ$4:
  00012	8b 45 b8	 mov	 eax, DWORD PTR $T2[ebp]
  00015	83 e0 01	 and	 eax, 1
  00018	0f 84 0d 00 00
	00		 je	 $LN13@MakeSTDefa
  0001e	83 65 b8 fe	 and	 DWORD PTR $T2[ebp], -2	; fffffffeH
  00022	8d 4d c8	 lea	 ecx, DWORD PTR $T4[ebp]
  00025	ff 25 00 00 00
	00		 jmp	 DWORD PTR __imp_??1?$CStringT@DV?$StrTraitMFC_DLL@DV?$ChTraitsCRT@D@ATL@@@@@ATL@@QAE@XZ
$LN13@MakeSTDefa:
  0002b	c3		 ret	 0
__unwindfunclet$?MakeSTDefaultDirectory@CTabSystemTradingEx@@AAEXXZ$5:
  0002c	8b 45 b8	 mov	 eax, DWORD PTR $T2[ebp]
  0002f	83 e0 02	 and	 eax, 2
  00032	0f 84 0d 00 00
	00		 je	 $LN26@MakeSTDefa
  00038	83 65 b8 fd	 and	 DWORD PTR $T2[ebp], -3	; fffffffdH
  0003c	8d 4d c4	 lea	 ecx, DWORD PTR $T3[ebp]
  0003f	ff 25 00 00 00
	00		 jmp	 DWORD PTR __imp_??1?$CStringT@DV?$StrTraitMFC_DLL@DV?$ChTraitsCRT@D@ATL@@@@@ATL@@QAE@XZ
$LN26@MakeSTDefa:
  00045	c3		 ret	 0
  00046	cc		 int	 3
  00047	cc		 int	 3
  00048	cc		 int	 3
  00049	cc		 int	 3
  0004a	cc		 int	 3
__ehhandler$?MakeSTDefaultDirectory@CTabSystemTradingEx@@AAEXXZ:
  0004b	90		 npad	 1
  0004c	90		 npad	 1
  0004d	8b 54 24 08	 mov	 edx, DWORD PTR [esp+8]
  00051	8d 42 0c	 lea	 eax, DWORD PTR [edx+12]
  00054	8b 4a b4	 mov	 ecx, DWORD PTR [edx-76]
  00057	33 c8		 xor	 ecx, eax
  00059	e8 00 00 00 00	 call	 @__security_check_cookie@4
  0005e	8b 4a fc	 mov	 ecx, DWORD PTR [edx-4]
  00061	33 c8		 xor	 ecx, eax
  00063	e8 00 00 00 00	 call	 @__security_check_cookie@4
  00068	b8 00 00 00 00	 mov	 eax, OFFSET __ehfuncinfo$?MakeSTDefaultDirectory@CTabSystemTradingEx@@AAEXXZ
  0006d	e9 00 00 00 00	 jmp	 ___CxxFrameHandler3
text$x	ENDS
?MakeSTDefaultDirectory@CTabSystemTradingEx@@AAEXXZ ENDP ; CTabSystemTradingEx::MakeSTDefaultDirectory
; Function compile flags: /Ogtp
; File D:\git\src\IBK\IBK_DRFN\ProjSrc\SrcDrfn\Chart\MULTICHART\TabSystemTradingEx.cpp
; File C:\Program Files (x86)\Microsoft Visual Studio\2019\Community\VC\Tools\MSVC\14.29.30133\atlmfc\include\cstringt.h
; File D:\git\src\IBK\IBK_DRFN\ProjSrc\SrcDrfn\Chart\MULTICHART\TabSystemTradingEx.cpp
; File C:\Program Files (x86)\Microsoft Visual Studio\2019\Community\VC\Tools\MSVC\14.29.30133\atlmfc\include\cstringt.h
; File D:\git\src\IBK\IBK_DRFN\ProjSrc\SrcDrfn\Chart\MULTICHART\TabSystemTradingEx.cpp
;	COMDAT ?DataMonitorCallbackProc@CTabSystemTradingEx@@SGXPBDJJJJ@Z
_TEXT	SEGMENT
__$EHRec$ = -12						; size = 12
_strKey$ = 8						; size = 4
_szKey$ = 8						; size = 4
_pThisPoint$ = 12					; size = 4
_dwKey$ = 16						; size = 4
_dwSubKey$ = 20						; size = 4
_dwNotifyData$ = 24					; size = 4
?DataMonitorCallbackProc@CTabSystemTradingEx@@SGXPBDJJJJ@Z PROC ; CTabSystemTradingEx::DataMonitorCallbackProc, COMDAT

; 1238 : {

  00000	55		 push	 ebp
  00001	8b ec		 mov	 ebp, esp
  00003	6a ff		 push	 -1
  00005	68 00 00 00 00	 push	 __ehhandler$?DataMonitorCallbackProc@CTabSystemTradingEx@@SGXPBDJJJJ@Z
  0000a	64 a1 00 00 00
	00		 mov	 eax, DWORD PTR fs:0
  00010	50		 push	 eax
  00011	51		 push	 ecx
  00012	a1 00 00 00 00	 mov	 eax, DWORD PTR ___security_cookie
  00017	33 c5		 xor	 eax, ebp
  00019	50		 push	 eax
  0001a	8d 45 f4	 lea	 eax, DWORD PTR __$EHRec$[ebp]
  0001d	64 a3 00 00 00
	00		 mov	 DWORD PTR fs:0, eax

; 1240 : 	CString strKey = szKey;

  00023	ff 75 08	 push	 DWORD PTR _szKey$[ebp]
  00026	8d 4d 08	 lea	 ecx, DWORD PTR _strKey$[ebp]
  00029	ff 15 00 00 00
	00		 call	 DWORD PTR __imp_??0?$CStringT@DV?$StrTraitMFC_DLL@DV?$ChTraitsCRT@D@ATL@@@@@ATL@@QAE@PBD@Z
; File C:\Program Files (x86)\Microsoft Visual Studio\2019\Community\VC\Tools\MSVC\14.29.30133\atlmfc\include\cstringt.h

; 2486 : 		return(str1.Compare(psz2) == 0);

  0002f	68 00 00 00 00	 push	 OFFSET ??_C@_0BA@PIGBAOMG@STLIST_MODIFIED@
  00034	8d 4d 08	 lea	 ecx, DWORD PTR _strKey$[ebp]
; File D:\git\src\IBK\IBK_DRFN\ProjSrc\SrcDrfn\Chart\MULTICHART\TabSystemTradingEx.cpp

; 1240 : 	CString strKey = szKey;

  00037	c7 45 fc 00 00
	00 00		 mov	 DWORD PTR __$EHRec$[ebp+8], 0
; File C:\Program Files (x86)\Microsoft Visual Studio\2019\Community\VC\Tools\MSVC\14.29.30133\atlmfc\include\cstringt.h

; 2486 : 		return(str1.Compare(psz2) == 0);

  0003e	ff 15 00 00 00
	00		 call	 DWORD PTR __imp_?Compare@?$CStringT@DV?$StrTraitMFC_DLL@DV?$ChTraitsCRT@D@ATL@@@@@ATL@@QBEHPBD@Z
  00044	85 c0		 test	 eax, eax
; File D:\git\src\IBK\IBK_DRFN\ProjSrc\SrcDrfn\Chart\MULTICHART\TabSystemTradingEx.cpp

; 1242 : 	if(strKey == "STLIST_MODIFIED") 

  00046	75 1e		 jne	 SHORT $LN6@DataMonito

; 1243 : 	{
; 1244 : 		// [NOTE] :      .
; 1245 : 		if(gCURRENT_COMPANY_ID==nPCTRComID_SAMSUNG)
; 1246 : 		{
; 1247 : 			LPCSTR szSTName = (LPCSTR)dwNotifyData;
; 1248 : 			switch(dwSubKey)
; 1249 : 			{
; 1250 : 			case Basic_STChange_Delete:
; 1251 : 				pThis->m_STBasicTree.DeleteSTItem("", szSTName);	break;
; 1252 : 			case Basic_STChange_Add:
; 1253 : 				pThis->m_STBasicTree.AddSTItem("", szSTName);		break;
; 1254 : 			case Ext_STChange_SDDelete:
; 1255 : 				pThis->m_STTree.DeleteSTItem("", szSTName);	break;
; 1256 : 			case Ext_STChange_SDAdd:
; 1257 : 				pThis->m_STTree.AddSTItem("", szSTName);		break;
; 1258 : 			case Ext_STChange_Delete:
; 1259 : 				pThis->m_STTree.DeleteSTItem("", szSTName);	break;
; 1260 : 			case Ext_STChange_Add:
; 1261 : 				pThis->m_STTree.AddSTItem("", szSTName);		break;
; 1262 : 			}
; 1263 : 		}
; 1264 : 		else	//   
; 1265 : 		{
; 1266 : 			LPCSTR szSTName = (LPCSTR)dwNotifyData;
; 1267 : 			pThis->m_pSTLoadMnger->UpdateST(dwSubKey, szSTName);

  00048	51		 push	 ecx
  00049	8b cc		 mov	 ecx, esp
  0004b	ff 75 18	 push	 DWORD PTR _dwNotifyData$[ebp]
  0004e	ff 15 00 00 00
	00		 call	 DWORD PTR __imp_??0?$CStringT@DV?$StrTraitMFC_DLL@DV?$ChTraitsCRT@D@ATL@@@@@ATL@@QAE@PBD@Z
  00054	8b 45 0c	 mov	 eax, DWORD PTR _pThisPoint$[ebp]
  00057	ff 75 14	 push	 DWORD PTR _dwSubKey$[ebp]
  0005a	8b 80 e8 07 00
	00		 mov	 eax, DWORD PTR [eax+2024]
  00060	50		 push	 eax
  00061	8b 08		 mov	 ecx, DWORD PTR [eax]
  00063	ff 51 10	 call	 DWORD PTR [ecx+16]
$LN6@DataMonito:

; 1268 : 
; 1269 : 		}
; 1270 : 
; 1271 : 	}
; 1272 : 	//	else if(strKey == "MultiChart_ReceiveData")
; 1273 : 	//	{
; 1274 : 	//		// dwSubKey  .
; 1275 : 	//		//    .
; 1276 : 	//		long pMainDlg = (long)pThis->m_pStdDialog;
; 1277 : 	//		if(pMainDlg==dwSubKey)
; 1278 : 	//		{
; 1279 : 	//			pThis->STClear();
; 1280 : 	//			pThis->SetTimer(ID_RUNST, 300, NULL);
; 1281 : 	//			//pThis->PostMessage(RMSG_RUN_MULTIST, 0, 0 ); // RunMultiST();
; 1282 : 	//		}
; 1283 : 	//	}
; 1284 : }

  00066	8d 4d 08	 lea	 ecx, DWORD PTR _strKey$[ebp]
  00069	ff 15 00 00 00
	00		 call	 DWORD PTR __imp_??1?$CStringT@DV?$StrTraitMFC_DLL@DV?$ChTraitsCRT@D@ATL@@@@@ATL@@QAE@XZ
  0006f	8b 4d f4	 mov	 ecx, DWORD PTR __$EHRec$[ebp]
  00072	64 89 0d 00 00
	00 00		 mov	 DWORD PTR fs:0, ecx
  00079	59		 pop	 ecx
  0007a	8b e5		 mov	 esp, ebp
  0007c	5d		 pop	 ebp
  0007d	c2 14 00	 ret	 20			; 00000014H
_TEXT	ENDS
;	COMDAT text$x
text$x	SEGMENT
__unwindfunclet$?DataMonitorCallbackProc@CTabSystemTradingEx@@SGXPBDJJJJ@Z$0:
  00000	8d 4d 08	 lea	 ecx, DWORD PTR _strKey$[ebp]
  00003	ff 25 00 00 00
	00		 jmp	 DWORD PTR __imp_??1?$CStringT@DV?$StrTraitMFC_DLL@DV?$ChTraitsCRT@D@ATL@@@@@ATL@@QAE@XZ
  00009	cc		 int	 3
  0000a	cc		 int	 3
  0000b	cc		 int	 3
  0000c	cc		 int	 3
  0000d	cc		 int	 3
__ehhandler$?DataMonitorCallbackProc@CTabSystemTradingEx@@SGXPBDJJJJ@Z:
  0000e	90		 npad	 1
  0000f	90		 npad	 1
  00010	8b 54 24 08	 mov	 edx, DWORD PTR [esp+8]
  00014	8d 42 0c	 lea	 eax, DWORD PTR [edx+12]
  00017	8b 4a f8	 mov	 ecx, DWORD PTR [edx-8]
  0001a	33 c8		 xor	 ecx, eax
  0001c	e8 00 00 00 00	 call	 @__security_check_cookie@4
  00021	b8 00 00 00 00	 mov	 eax, OFFSET __ehfuncinfo$?DataMonitorCallbackProc@CTabSystemTradingEx@@SGXPBDJJJJ@Z
  00026	e9 00 00 00 00	 jmp	 ___CxxFrameHandler3
text$x	ENDS
?DataMonitorCallbackProc@CTabSystemTradingEx@@SGXPBDJJJJ@Z ENDP ; CTabSystemTradingEx::DataMonitorCallbackProc
; Function compile flags: /Ogtp
; File D:\git\src\IBK\IBK_DRFN\ProjSrc\SrcDrfn\Chart\MULTICHART\TabSystemTradingEx.cpp
;	COMDAT ?TestJumun@CTabSystemTradingEx@@QAEXXZ
_TEXT	SEGMENT
?TestJumun@CTabSystemTradingEx@@QAEXXZ PROC		; CTabSystemTradingEx::TestJumun, COMDAT
; _this$ = ecx

; 1543 : /*
; 1544 : 	ICumstomManager* pCMng = (ICumstomManager*)AfxGetPctrInterface(UUID_ICumstomManager);
; 1545 : 	if(!pCMng) return;
; 1546 : 
; 1547 : 	ICumstomSite_Info* pCSInfo = (ICumstomSite_Info*)pCMng->GetInterface(UUID_ICumstomSite_Info, NULL);
; 1548 : 	if(!pCSInfo) return;
; 1549 : 
; 1550 : 	pCSInfo->Initialize(this);
; 1551 : 
; 1552 : 	LPCSTR szCode = m_xSTAnalysisInput.GetCode();
; 1553 : 	pCSInfo->GetHoga(szCode);
; 1554 : */
; 1555 : 
; 1556 : 
; 1557 : /*------------------------------------------------------------------------------- 
; 1558 :   ^^
; 1559 : ------------------------------------------------------------------------------- 
; 1560 : 
; 1561 : 	{
; 1562 : 	STORDER_INDATA inData;
; 1563 : 	memset(&inData, 0, SZSTORDER_INDATA);
; 1564 : 
; 1565 : 	inData.nMarket = m_xSTAnalysisInput.GetCodeType();			// 0:, 1:/, 2:
; 1566 : 	inData.nOrderType = 0;										// 0: , 1:, 2:, 3:
; 1567 : 	sprintf(inData.aAcctNo, "123-12-123456");
; 1568 : 	sprintf(inData.aAcctName, "");
; 1569 : 	sprintf(inData.aCode, m_xSTAnalysisInput.GetCode());			// 
; 1570 : 	sprintf(inData.aCodeName, m_xSTAnalysisInput.GetCodeName());	// 
; 1571 : 	inData.nOrderGubun = 1;						// 
; 1572 : 	sprintf(inData.aOrderAmt, "10000");			// 
; 1573 : 	//sprintf(inData.aOrderPrice, "100000");		// 
; 1574 : 	inData.nOrderPriceType = 0;
; 1575 : 
; 1576 : 	CStrategyOrderLoader orderLoader;
; 1577 : 	int nRet = orderLoader.STOrder_DoModal((long)&inData);
; 1578 : 	TRACE("STOder Result = %d\n", nRet);
; 1579 : 	}
; 1580 : 
; 1581 : ------------------------------------------------------------------------------- */
; 1582 : }

  00000	c2 00 00	 ret	 0
?TestJumun@CTabSystemTradingEx@@QAEXXZ ENDP		; CTabSystemTradingEx::TestJumun
_TEXT	ENDS
; Function compile flags: /Ogtp
; File D:\git\src\IBK\IBK_DRFN\ProjSrc\SrcDrfn\Chart\MULTICHART\TabSystemTradingEx.cpp
;	COMDAT ?CheckRegister@CTabSystemTradingEx@@QAEHPBD0@Z
_TEXT	SEGMENT
_this$1$ = -40						; size = 4
_szOcxName$2 = -36					; size = 4
_clsid$ = -32						; size = 16
__$ArrayPad$ = -16					; size = 4
__$EHRec$ = -12						; size = 12
_p_szProgID$ = 8					; size = 4
_p_szFileName$ = 12					; size = 4
?CheckRegister@CTabSystemTradingEx@@QAEHPBD0@Z PROC	; CTabSystemTradingEx::CheckRegister, COMDAT
; _this$ = ecx

; 1820 : {

  00000	55		 push	 ebp
  00001	8b ec		 mov	 ebp, esp
  00003	6a ff		 push	 -1
  00005	68 00 00 00 00	 push	 __ehhandler$?CheckRegister@CTabSystemTradingEx@@QAEHPBD0@Z
  0000a	64 a1 00 00 00
	00		 mov	 eax, DWORD PTR fs:0
  00010	50		 push	 eax
  00011	83 ec 1c	 sub	 esp, 28			; 0000001cH
  00014	a1 00 00 00 00	 mov	 eax, DWORD PTR ___security_cookie
  00019	33 c5		 xor	 eax, ebp
  0001b	89 45 f0	 mov	 DWORD PTR __$ArrayPad$[ebp], eax
  0001e	53		 push	 ebx
  0001f	56		 push	 esi
  00020	57		 push	 edi
  00021	50		 push	 eax
  00022	8d 45 f4	 lea	 eax, DWORD PTR __$EHRec$[ebp]
  00025	64 a3 00 00 00
	00		 mov	 DWORD PTR fs:0, eax
  0002b	89 4d d8	 mov	 DWORD PTR _this$1$[ebp], ecx
  0002e	8b 5d 08	 mov	 ebx, DWORD PTR _p_szProgID$[ebp]
  00031	8b 7d 0c	 mov	 edi, DWORD PTR _p_szFileName$[ebp]

; 1821 : 	CLSID clsid;
; 1822 : 	ISystemUtilManager2* pMng = (ISystemUtilManager2*)AfxGetPctrInterface(UUID_ISystemUtilManager);

  00034	6a 2a		 push	 42			; 0000002aH
  00036	e8 00 00 00 00	 call	 ?AfxGetPctrInterface@@YGJH@Z ; AfxGetPctrInterface
  0003b	8b f0		 mov	 esi, eax

; 1823 : 	if(pMng)

  0003d	85 f6		 test	 esi, esi
  0003f	0f 84 a1 00 00
	00		 je	 $LN2@CheckRegis

; 1824 : 	{
; 1825 : 
; 1826 : 		CString szOcxName;

  00045	8d 4d dc	 lea	 ecx, DWORD PTR _szOcxName$2[ebp]
  00048	ff 15 00 00 00
	00		 call	 DWORD PTR __imp_??0?$CStringT@DV?$StrTraitMFC_DLL@DV?$ChTraitsCRT@D@ATL@@@@@ATL@@QAE@XZ
  0004e	c7 45 fc 00 00
	00 00		 mov	 DWORD PTR __$EHRec$[ebp+8], 0

; 1827 : 		if(strcmp(p_szFileName, "TeeChart7.ocx")==0)

  00055	ba 00 00 00 00	 mov	 edx, OFFSET ??_C@_0O@CKKCLLBB@TeeChart7?4ocx@
  0005a	8b cf		 mov	 ecx, edi
  0005c	0f 1f 40 00	 npad	 4
$LL10@CheckRegis:
  00060	8a 01		 mov	 al, BYTE PTR [ecx]
  00062	3a 02		 cmp	 al, BYTE PTR [edx]
  00064	75 1a		 jne	 SHORT $LN11@CheckRegis
  00066	84 c0		 test	 al, al
  00068	74 12		 je	 SHORT $LN12@CheckRegis
  0006a	8a 41 01	 mov	 al, BYTE PTR [ecx+1]
  0006d	3a 42 01	 cmp	 al, BYTE PTR [edx+1]
  00070	75 0e		 jne	 SHORT $LN11@CheckRegis
  00072	83 c1 02	 add	 ecx, 2
  00075	83 c2 02	 add	 edx, 2
  00078	84 c0		 test	 al, al
  0007a	75 e4		 jne	 SHORT $LL10@CheckRegis
$LN12@CheckRegis:
  0007c	33 c0		 xor	 eax, eax
  0007e	eb 05		 jmp	 SHORT $LN13@CheckRegis
$LN11@CheckRegis:
  00080	1b c0		 sbb	 eax, eax
  00082	83 c8 01	 or	 eax, 1
$LN13@CheckRegis:
  00085	8b 4d d8	 mov	 ecx, DWORD PTR _this$1$[ebp]
  00088	85 c0		 test	 eax, eax
  0008a	57		 push	 edi
  0008b	8d 45 dc	 lea	 eax, DWORD PTR _szOcxName$2[ebp]
  0008e	8b 89 bc 00 00
	00		 mov	 ecx, DWORD PTR [ecx+188]
  00094	ff b1 a8 01 00
	00		 push	 DWORD PTR [ecx+424]
  0009a	75 07		 jne	 SHORT $LN3@CheckRegis

; 1828 : 			szOcxName.Format("%s\\exe\\%s", m_pParentDlg->m_strRootPath, p_szFileName);

  0009c	68 00 00 00 00	 push	 OFFSET ??_C@_09KKMEEMHD@?$CFs?2exe?2?$CFs@
  000a1	eb 05		 jmp	 SHORT $LN15@CheckRegis
$LN3@CheckRegis:

; 1829 : 		else
; 1830 : 			szOcxName.Format("%s\\dev\\%s", m_pParentDlg->m_strRootPath, p_szFileName);

  000a3	68 00 00 00 00	 push	 OFFSET ??_C@_09JELLLLNA@?$CFs?2dev?2?$CFs@
$LN15@CheckRegis:

; 1831 : 
; 1832 : 		if(pMng->IsRegisteredEx(p_szProgID, clsid, p_szFileName)==FALSE)

  000a8	50		 push	 eax
  000a9	ff 15 00 00 00
	00		 call	 DWORD PTR __imp_?Format@?$CStringT@DV?$StrTraitMFC_DLL@DV?$ChTraitsCRT@D@ATL@@@@@ATL@@QAAXPBDZZ
  000af	8b 06		 mov	 eax, DWORD PTR [esi]
  000b1	8d 4d e0	 lea	 ecx, DWORD PTR _clsid$[ebp]
  000b4	83 c4 10	 add	 esp, 16			; 00000010H
  000b7	6a 00		 push	 0
  000b9	57		 push	 edi
  000ba	51		 push	 ecx
  000bb	53		 push	 ebx
  000bc	56		 push	 esi
  000bd	ff 50 08	 call	 DWORD PTR [eax+8]
  000c0	85 c0		 test	 eax, eax
  000c2	75 09		 jne	 SHORT $LN5@CheckRegis

; 1833 : 		{
; 1834 : 
; 1835 : 			pMng->DLLRegister(szOcxName);

  000c4	ff 75 dc	 push	 DWORD PTR _szOcxName$2[ebp]
  000c7	8b 06		 mov	 eax, DWORD PTR [esi]
  000c9	56		 push	 esi
  000ca	ff 50 04	 call	 DWORD PTR [eax+4]
$LN5@CheckRegis:

; 1836 : 		}
; 1837 : 		return pMng->IsRegistered(p_szProgID, clsid);

  000cd	8b 06		 mov	 eax, DWORD PTR [esi]
  000cf	8d 4d e0	 lea	 ecx, DWORD PTR _clsid$[ebp]
  000d2	51		 push	 ecx
  000d3	53		 push	 ebx
  000d4	56		 push	 esi
  000d5	ff 10		 call	 DWORD PTR [eax]
  000d7	8d 4d dc	 lea	 ecx, DWORD PTR _szOcxName$2[ebp]
  000da	8b f0		 mov	 esi, eax
  000dc	ff 15 00 00 00
	00		 call	 DWORD PTR __imp_??1?$CStringT@DV?$StrTraitMFC_DLL@DV?$ChTraitsCRT@D@ATL@@@@@ATL@@QAE@XZ
  000e2	8b c6		 mov	 eax, esi
  000e4	eb 05		 jmp	 SHORT $LN1@CheckRegis
$LN2@CheckRegis:

; 1838 : 	}
; 1839 : 	return TRUE;

  000e6	b8 01 00 00 00	 mov	 eax, 1
$LN1@CheckRegis:

; 1840 : }

  000eb	8b 4d f4	 mov	 ecx, DWORD PTR __$EHRec$[ebp]
  000ee	64 89 0d 00 00
	00 00		 mov	 DWORD PTR fs:0, ecx
  000f5	59		 pop	 ecx
  000f6	5f		 pop	 edi
  000f7	5e		 pop	 esi
  000f8	5b		 pop	 ebx
  000f9	8b 4d f0	 mov	 ecx, DWORD PTR __$ArrayPad$[ebp]
  000fc	33 cd		 xor	 ecx, ebp
  000fe	e8 00 00 00 00	 call	 @__security_check_cookie@4
  00103	8b e5		 mov	 esp, ebp
  00105	5d		 pop	 ebp
  00106	c2 08 00	 ret	 8
_TEXT	ENDS
;	COMDAT text$x
text$x	SEGMENT
__unwindfunclet$?CheckRegister@CTabSystemTradingEx@@QAEHPBD0@Z$0:
  00000	8d 4d dc	 lea	 ecx, DWORD PTR _szOcxName$2[ebp]
  00003	ff 25 00 00 00
	00		 jmp	 DWORD PTR __imp_??1?$CStringT@DV?$StrTraitMFC_DLL@DV?$ChTraitsCRT@D@ATL@@@@@ATL@@QAE@XZ
  00009	cc		 int	 3
  0000a	cc		 int	 3
  0000b	cc		 int	 3
  0000c	cc		 int	 3
  0000d	cc		 int	 3
__ehhandler$?CheckRegister@CTabSystemTradingEx@@QAEHPBD0@Z:
  0000e	90		 npad	 1
  0000f	90		 npad	 1
  00010	8b 54 24 08	 mov	 edx, DWORD PTR [esp+8]
  00014	8d 42 0c	 lea	 eax, DWORD PTR [edx+12]
  00017	8b 4a d4	 mov	 ecx, DWORD PTR [edx-44]
  0001a	33 c8		 xor	 ecx, eax
  0001c	e8 00 00 00 00	 call	 @__security_check_cookie@4
  00021	8b 4a fc	 mov	 ecx, DWORD PTR [edx-4]
  00024	33 c8		 xor	 ecx, eax
  00026	e8 00 00 00 00	 call	 @__security_check_cookie@4
  0002b	b8 00 00 00 00	 mov	 eax, OFFSET __ehfuncinfo$?CheckRegister@CTabSystemTradingEx@@QAEHPBD0@Z
  00030	e9 00 00 00 00	 jmp	 ___CxxFrameHandler3
text$x	ENDS
?CheckRegister@CTabSystemTradingEx@@QAEHPBD0@Z ENDP	; CTabSystemTradingEx::CheckRegister
; Function compile flags: /Ogtp
; File D:\git\src\IBK\IBK_DRFN\ProjSrc\SrcDrfn\Chart\MULTICHART\TabSystemTradingEx.cpp
;	COMDAT ?CheckOcx@CTabSystemTradingEx@@QAEHXZ
_TEXT	SEGMENT
_szProgID$ = -16					; size = 4
__$EHRec$ = -12						; size = 12
?CheckOcx@CTabSystemTradingEx@@QAEHXZ PROC		; CTabSystemTradingEx::CheckOcx, COMDAT
; _this$ = ecx

; 1843 : {

  00000	55		 push	 ebp
  00001	8b ec		 mov	 ebp, esp
  00003	6a ff		 push	 -1
  00005	68 00 00 00 00	 push	 __ehhandler$?CheckOcx@CTabSystemTradingEx@@QAEHXZ
  0000a	64 a1 00 00 00
	00		 mov	 eax, DWORD PTR fs:0
  00010	50		 push	 eax
  00011	51		 push	 ecx
  00012	56		 push	 esi
  00013	a1 00 00 00 00	 mov	 eax, DWORD PTR ___security_cookie
  00018	33 c5		 xor	 eax, ebp
  0001a	50		 push	 eax
  0001b	8d 45 f4	 lea	 eax, DWORD PTR __$EHRec$[ebp]
  0001e	64 a3 00 00 00
	00		 mov	 DWORD PTR fs:0, eax
  00024	8b f1		 mov	 esi, ecx

; 1844 : 	// MSChart TeeChart OCX .    .
; 1845 : 	CString szProgID; 

  00026	8d 4d f0	 lea	 ecx, DWORD PTR _szProgID$[ebp]
  00029	ff 15 00 00 00
	00		 call	 DWORD PTR __imp_??0?$CStringT@DV?$StrTraitMFC_DLL@DV?$ChTraitsCRT@D@ATL@@@@@ATL@@QAE@XZ

; 1846 : 	szProgID = "MSChart20Lib.MSChart.2";			if(!CheckRegister(szProgID, "Mschrt20.ocx")) return FALSE;

  0002f	68 00 00 00 00	 push	 OFFSET ??_C@_0BH@BPKOJLNA@MSChart20Lib?4MSChart?42@
  00034	8d 4d f0	 lea	 ecx, DWORD PTR _szProgID$[ebp]
  00037	c7 45 fc 00 00
	00 00		 mov	 DWORD PTR __$EHRec$[ebp+8], 0
  0003e	ff 15 00 00 00
	00		 call	 DWORD PTR __imp_??4?$CStringT@DV?$StrTraitMFC_DLL@DV?$ChTraitsCRT@D@ATL@@@@@ATL@@QAEAAV01@PBD@Z
  00044	68 00 00 00 00	 push	 OFFSET ??_C@_0N@CPPCJIEJ@Mschrt20?4ocx@
  00049	ff 75 f0	 push	 DWORD PTR _szProgID$[ebp]
  0004c	8b ce		 mov	 ecx, esi
  0004e	e8 00 00 00 00	 call	 ?CheckRegister@CTabSystemTradingEx@@QAEHPBD0@Z ; CTabSystemTradingEx::CheckRegister
  00053	85 c0		 test	 eax, eax
  00055	74 28		 je	 SHORT $LN6@CheckOcx

; 1847 : 	szProgID = "TeeChart.ChartPageNavigator.7";		if(!CheckRegister(szProgID, "TeeChart7.ocx")) return FALSE;

  00057	68 00 00 00 00	 push	 OFFSET ??_C@_0BO@PLHNFDPJ@TeeChart?4ChartPageNavigator?47@
  0005c	8d 4d f0	 lea	 ecx, DWORD PTR _szProgID$[ebp]
  0005f	ff 15 00 00 00
	00		 call	 DWORD PTR __imp_??4?$CStringT@DV?$StrTraitMFC_DLL@DV?$ChTraitsCRT@D@ATL@@@@@ATL@@QAEAAV01@PBD@Z
  00065	68 00 00 00 00	 push	 OFFSET ??_C@_0O@CKKCLLBB@TeeChart7?4ocx@
  0006a	ff 75 f0	 push	 DWORD PTR _szProgID$[ebp]
  0006d	8b ce		 mov	 ecx, esi
  0006f	e8 00 00 00 00	 call	 ?CheckRegister@CTabSystemTradingEx@@QAEHPBD0@Z ; CTabSystemTradingEx::CheckRegister
  00074	85 c0		 test	 eax, eax
  00076	74 07		 je	 SHORT $LN6@CheckOcx

; 1848 : 	return TRUE;

  00078	be 01 00 00 00	 mov	 esi, 1
  0007d	eb 02		 jmp	 SHORT $LN7@CheckOcx
$LN6@CheckOcx:
  0007f	33 f6		 xor	 esi, esi
$LN7@CheckOcx:
  00081	8d 4d f0	 lea	 ecx, DWORD PTR _szProgID$[ebp]
  00084	ff 15 00 00 00
	00		 call	 DWORD PTR __imp_??1?$CStringT@DV?$StrTraitMFC_DLL@DV?$ChTraitsCRT@D@ATL@@@@@ATL@@QAE@XZ
  0008a	8b c6		 mov	 eax, esi

; 1849 : }

  0008c	8b 4d f4	 mov	 ecx, DWORD PTR __$EHRec$[ebp]
  0008f	64 89 0d 00 00
	00 00		 mov	 DWORD PTR fs:0, ecx
  00096	59		 pop	 ecx
  00097	5e		 pop	 esi
  00098	8b e5		 mov	 esp, ebp
  0009a	5d		 pop	 ebp
  0009b	c3		 ret	 0
_TEXT	ENDS
;	COMDAT text$x
text$x	SEGMENT
__unwindfunclet$?CheckOcx@CTabSystemTradingEx@@QAEHXZ$0:
  00000	8d 4d f0	 lea	 ecx, DWORD PTR _szProgID$[ebp]
  00003	ff 25 00 00 00
	00		 jmp	 DWORD PTR __imp_??1?$CStringT@DV?$StrTraitMFC_DLL@DV?$ChTraitsCRT@D@ATL@@@@@ATL@@QAE@XZ
  00009	cc		 int	 3
  0000a	cc		 int	 3
  0000b	cc		 int	 3
  0000c	cc		 int	 3
  0000d	cc		 int	 3
__ehhandler$?CheckOcx@CTabSystemTradingEx@@QAEHXZ:
  0000e	90		 npad	 1
  0000f	90		 npad	 1
  00010	8b 54 24 08	 mov	 edx, DWORD PTR [esp+8]
  00014	8d 42 0c	 lea	 eax, DWORD PTR [edx+12]
  00017	8b 4a f4	 mov	 ecx, DWORD PTR [edx-12]
  0001a	33 c8		 xor	 ecx, eax
  0001c	e8 00 00 00 00	 call	 @__security_check_cookie@4
  00021	b8 00 00 00 00	 mov	 eax, OFFSET __ehfuncinfo$?CheckOcx@CTabSystemTradingEx@@QAEHXZ
  00026	e9 00 00 00 00	 jmp	 ___CxxFrameHandler3
text$x	ENDS
?CheckOcx@CTabSystemTradingEx@@QAEHXZ ENDP		; CTabSystemTradingEx::CheckOcx
; Function compile flags: /Ogtp
; File D:\git\src\IBK\IBK_DRFN\ProjSrc\SrcDrfn\Chart\MULTICHART\TabSystemTradingEx.cpp
;	COMDAT ?IsSTRun@CTabSystemTradingEx@@QAEHPBD0H@Z
_TEXT	SEGMENT
_InData$ = -36						; size = 24
__$EHRec$ = -12						; size = 12
_p_szSTPath$ = 8					; size = 4
_p_szSTName$ = 12					; size = 4
_p_nSTType$ = 16					; size = 4
?IsSTRun@CTabSystemTradingEx@@QAEHPBD0H@Z PROC		; CTabSystemTradingEx::IsSTRun, COMDAT
; _this$ = ecx

; 1335 : {

  00000	55		 push	 ebp
  00001	8b ec		 mov	 ebp, esp
  00003	6a ff		 push	 -1
  00005	68 00 00 00 00	 push	 __ehhandler$?IsSTRun@CTabSystemTradingEx@@QAEHPBD0H@Z
  0000a	64 a1 00 00 00
	00		 mov	 eax, DWORD PTR fs:0
  00010	50		 push	 eax
  00011	83 ec 18	 sub	 esp, 24			; 00000018H
  00014	56		 push	 esi
  00015	57		 push	 edi
  00016	a1 00 00 00 00	 mov	 eax, DWORD PTR ___security_cookie
  0001b	33 c5		 xor	 eax, ebp
  0001d	50		 push	 eax
  0001e	8d 45 f4	 lea	 eax, DWORD PTR __$EHRec$[ebp]
  00021	64 a3 00 00 00
	00		 mov	 DWORD PTR fs:0, eax
  00027	8b f9		 mov	 edi, ecx
  00029	8d 4d e4	 lea	 ecx, DWORD PTR _InData$[ebp+8]
  0002c	ff 15 00 00 00
	00		 call	 DWORD PTR __imp_??0?$CStringT@DV?$StrTraitMFC_DLL@DV?$ChTraitsCRT@D@ATL@@@@@ATL@@QAE@XZ
  00032	8d 4d ec	 lea	 ecx, DWORD PTR _InData$[ebp+16]
  00035	ff 15 00 00 00
	00		 call	 DWORD PTR __imp_??0?$CStringT@DV?$StrTraitMFC_DLL@DV?$ChTraitsCRT@D@ATL@@@@@ATL@@QAE@XZ

; 1336 : 	stAddinSTRunInfo InData;
; 1337 : 	InData.bIsRun = FALSE;
; 1338 : 	InData.szRunSTFile = p_szSTPath;

  0003b	8b 75 08	 mov	 esi, DWORD PTR _p_szSTPath$[ebp]
  0003e	8d 4d e4	 lea	 ecx, DWORD PTR _InData$[ebp+8]
  00041	56		 push	 esi
  00042	c7 45 fc 00 00
	00 00		 mov	 DWORD PTR __$EHRec$[ebp+8], 0
  00049	c7 45 e0 00 00
	00 00		 mov	 DWORD PTR _InData$[ebp+4], 0
  00050	ff 15 00 00 00
	00		 call	 DWORD PTR __imp_??4?$CStringT@DV?$StrTraitMFC_DLL@DV?$ChTraitsCRT@D@ATL@@@@@ATL@@QAEAAV01@PBD@Z

; 1339 : 	InData.szSTFile = p_szSTPath;
; 1340 : 	InData.szSTName = p_szSTName;

  00056	ff 75 0c	 push	 DWORD PTR _p_szSTName$[ebp]
  00059	8d 4d ec	 lea	 ecx, DWORD PTR _InData$[ebp+16]
  0005c	89 75 dc	 mov	 DWORD PTR _InData$[ebp], esi
  0005f	ff 15 00 00 00
	00		 call	 DWORD PTR __imp_??4?$CStringT@DV?$StrTraitMFC_DLL@DV?$ChTraitsCRT@D@ATL@@@@@ATL@@QAEAAV01@PBD@Z

; 1341 : 
; 1342 : 	if(Version_stAddinSTRunInfo==070213)
; 1343 : 	{
; 1344 : 		InData.nSTType = p_nSTType;

  00065	8b 45 10	 mov	 eax, DWORD PTR _p_nSTType$[ebp]

; 1345 : 	}
; 1346 : 
; 1347 : 	CChartItem* pCItem = ((CChartMng*)m_pChartMng)->GetpChartItemSelected();

  00068	8b 8f c4 00 00
	00		 mov	 ecx, DWORD PTR [edi+196]
  0006e	89 45 e8	 mov	 DWORD PTR _InData$[ebp+12], eax
  00071	e8 00 00 00 00	 call	 ?GetpChartItemSelected@CChartMng@@QAEPAVCChartItem@@XZ ; CChartMng::GetpChartItemSelected

; 1348 : 	if(pCItem) {

  00076	85 c0		 test	 eax, eax
  00078	74 12		 je	 SHORT $LN3@IsSTRun

; 1349 : 		pCItem->InvokeAddInSTIndex("ChartSTIndexAddIn.dll", 11, (long)&InData);

  0007a	8d 4d dc	 lea	 ecx, DWORD PTR _InData$[ebp]
  0007d	51		 push	 ecx
  0007e	6a 0b		 push	 11			; 0000000bH
  00080	68 00 00 00 00	 push	 OFFSET ??_C@_0BG@CHJJKIAP@ChartSTIndexAddIn?4dll@
  00085	8b c8		 mov	 ecx, eax
  00087	e8 00 00 00 00	 call	 ?InvokeAddInSTIndex@CChartItem@@QAEHPBDFJ@Z ; CChartItem::InvokeAddInSTIndex
$LN3@IsSTRun:

; 1350 : 	}
; 1351 : 
; 1352 : 	return InData.bIsRun;

  0008c	8b 75 e0	 mov	 esi, DWORD PTR _InData$[ebp+4]
  0008f	8d 4d ec	 lea	 ecx, DWORD PTR _InData$[ebp+16]
  00092	ff 15 00 00 00
	00		 call	 DWORD PTR __imp_??1?$CStringT@DV?$StrTraitMFC_DLL@DV?$ChTraitsCRT@D@ATL@@@@@ATL@@QAE@XZ
  00098	8d 4d e4	 lea	 ecx, DWORD PTR _InData$[ebp+8]
  0009b	ff 15 00 00 00
	00		 call	 DWORD PTR __imp_??1?$CStringT@DV?$StrTraitMFC_DLL@DV?$ChTraitsCRT@D@ATL@@@@@ATL@@QAE@XZ
  000a1	8b c6		 mov	 eax, esi

; 1353 : }

  000a3	8b 4d f4	 mov	 ecx, DWORD PTR __$EHRec$[ebp]
  000a6	64 89 0d 00 00
	00 00		 mov	 DWORD PTR fs:0, ecx
  000ad	59		 pop	 ecx
  000ae	5f		 pop	 edi
  000af	5e		 pop	 esi
  000b0	8b e5		 mov	 esp, ebp
  000b2	5d		 pop	 ebp
  000b3	c2 0c 00	 ret	 12			; 0000000cH
_TEXT	ENDS
;	COMDAT text$x
text$x	SEGMENT
__unwindfunclet$?IsSTRun@CTabSystemTradingEx@@QAEHPBD0H@Z$0:
  00000	8d 4d dc	 lea	 ecx, DWORD PTR _InData$[ebp]
  00003	e9 00 00 00 00	 jmp	 ??1stAddinSTRunInfo@@QAE@XZ
  00008	cc		 int	 3
  00009	cc		 int	 3
  0000a	cc		 int	 3
  0000b	cc		 int	 3
  0000c	cc		 int	 3
__ehhandler$?IsSTRun@CTabSystemTradingEx@@QAEHPBD0H@Z:
  0000d	90		 npad	 1
  0000e	90		 npad	 1
  0000f	8b 54 24 08	 mov	 edx, DWORD PTR [esp+8]
  00013	8d 42 0c	 lea	 eax, DWORD PTR [edx+12]
  00016	8b 4a dc	 mov	 ecx, DWORD PTR [edx-36]
  00019	33 c8		 xor	 ecx, eax
  0001b	e8 00 00 00 00	 call	 @__security_check_cookie@4
  00020	b8 00 00 00 00	 mov	 eax, OFFSET __ehfuncinfo$?IsSTRun@CTabSystemTradingEx@@QAEHPBD0H@Z
  00025	e9 00 00 00 00	 jmp	 ___CxxFrameHandler3
text$x	ENDS
?IsSTRun@CTabSystemTradingEx@@QAEHPBD0H@Z ENDP		; CTabSystemTradingEx::IsSTRun
; Function compile flags: /Ogtp
; File D:\git\src\IBK\IBK_DRFN\ProjSrc\SrcDrfn\Chart\MULTICHART\TabSystemTradingEx.cpp
;	COMDAT ?CanSTModule@CTabSystemTradingEx@@QAEHXZ
_TEXT	SEGMENT
?CanSTModule@CTabSystemTradingEx@@QAEHXZ PROC		; CTabSystemTradingEx::CanSTModule, COMDAT
; _this$ = ecx

; 1526 : 	return TRUE;

  00000	b8 01 00 00 00	 mov	 eax, 1

; 1527 : 
; 1528 : 	if(m_xSTAnalysisInput.GetCodeType()==2)
; 1529 : 	{
; 1530 : 		AfxMessageBox("  ");
; 1531 : 		return FALSE;		// 0(), 1(/), 2(),    .
; 1532 : 	}
; 1533 : 
; 1534 : 	return TRUE;
; 1535 : }

  00005	c3		 ret	 0
?CanSTModule@CTabSystemTradingEx@@QAEHXZ ENDP		; CTabSystemTradingEx::CanSTModule
_TEXT	ENDS
; Function compile flags: /Ogtp
; File D:\git\src\IBK\IBK_DRFN\ProjSrc\SrcDrfn\Chart\MULTICHART\TabSystemTradingEx.cpp
; File C:\Program Files (x86)\Microsoft Visual Studio\2019\Community\VC\Tools\MSVC\14.29.30133\atlmfc\include\afxwin2.inl
; File D:\git\src\IBK\IBK_DRFN\ProjSrc\SrcDrfn\Chart\MULTICHART\TabSystemTradingEx.cpp
;	COMDAT ?RunWizard@CTabSystemTradingEx@@QAEXH@Z
_TEXT	SEGMENT
__ctlState$ = -276					; size = 8
_szDllName$ = -268					; size = 4
_dlg$ = -264						; size = 248
__$ArrayPad$ = -16					; size = 4
__$EHRec$ = -12						; size = 12
_bSelectedDefault$ = 8					; size = 4
?RunWizard@CTabSystemTradingEx@@QAEXH@Z PROC		; CTabSystemTradingEx::RunWizard, COMDAT
; _this$ = ecx

; 312  : {

  00000	55		 push	 ebp
  00001	8b ec		 mov	 ebp, esp
  00003	6a ff		 push	 -1
  00005	68 00 00 00 00	 push	 __ehhandler$?RunWizard@CTabSystemTradingEx@@QAEXH@Z
  0000a	64 a1 00 00 00
	00		 mov	 eax, DWORD PTR fs:0
  00010	50		 push	 eax
  00011	81 ec 08 01 00
	00		 sub	 esp, 264		; 00000108H
  00017	a1 00 00 00 00	 mov	 eax, DWORD PTR ___security_cookie
  0001c	33 c5		 xor	 eax, ebp
  0001e	89 45 f0	 mov	 DWORD PTR __$ArrayPad$[ebp], eax
  00021	56		 push	 esi
  00022	50		 push	 eax
  00023	8d 45 f4	 lea	 eax, DWORD PTR __$EHRec$[ebp]
  00026	64 a3 00 00 00
	00		 mov	 DWORD PTR fs:0, eax
  0002c	8b f1		 mov	 esi, ecx

; 313  : 	if(CanSTModule()==FALSE) return;
; 314  : 
; 315  : 	AFX_MANAGE_STATE(AfxGetStaticModuleState());

  0002e	e8 00 00 00 00	 call	 ?AfxGetStaticModuleState@@YGPAVAFX_MODULE_STATE@@XZ ; AfxGetStaticModuleState
  00033	50		 push	 eax
  00034	8d 8d ec fe ff
	ff		 lea	 ecx, DWORD PTR __ctlState$[ebp]
  0003a	e8 00 00 00 00	 call	 ??0AFX_MAINTAIN_STATE2@@QAE@PAVAFX_MODULE_STATE@@@Z ; AFX_MAINTAIN_STATE2::AFX_MAINTAIN_STATE2

; 316  : 	//HINSTANCE hOld = AfxGetResourceHandle();
; 317  : 	//AfxSetResourceHandle(g_hInstance);
; 318  : 
; 319  : 	CString szDllName;

  0003f	8d 8d f4 fe ff
	ff		 lea	 ecx, DWORD PTR _szDllName$[ebp]
  00045	c7 45 fc 00 00
	00 00		 mov	 DWORD PTR __$EHRec$[ebp+8], 0
  0004c	ff 15 00 00 00
	00		 call	 DWORD PTR __imp_??0?$CStringT@DV?$StrTraitMFC_DLL@DV?$ChTraitsCRT@D@ATL@@@@@ATL@@QAE@XZ

; 320  : 	szDllName.Format("%s%s", m_szRootDir, "\\dev\\HWStrategyConfigureWizard");	// DLL .

  00052	68 00 00 00 00	 push	 OFFSET ??_C@_0BP@CFDAMKMM@?2dev?2HWStrategyConfigureWizard@
  00057	ff b6 1c 08 00
	00		 push	 DWORD PTR [esi+2076]
  0005d	8d 85 f4 fe ff
	ff		 lea	 eax, DWORD PTR _szDllName$[ebp]
  00063	c6 45 fc 01	 mov	 BYTE PTR __$EHRec$[ebp+8], 1
  00067	68 00 00 00 00	 push	 OFFSET ??_C@_04HDOCAJNK@?$CFs?$CFs@
  0006c	50		 push	 eax
  0006d	ff 15 00 00 00
	00		 call	 DWORD PTR __imp_?Format@?$CStringT@DV?$StrTraitMFC_DLL@DV?$ChTraitsCRT@D@ATL@@@@@ATL@@QAAXPBDZZ
  00073	83 c4 10	 add	 esp, 16			; 00000010H
; File C:\Program Files (x86)\Microsoft Visual Studio\2019\Community\VC\Tools\MSVC\14.29.30133\atlmfc\include\afxwin2.inl

; 213  : 	{ ASSERT(::IsWindow(m_hWnd)); return CWnd::FromHandle(::GetParent(m_hWnd)); }

  00076	ff 76 20	 push	 DWORD PTR [esi+32]
  00079	ff 15 00 00 00
	00		 call	 DWORD PTR __imp__GetParent@4
  0007f	50		 push	 eax
  00080	e8 00 00 00 00	 call	 ?FromHandle@CWnd@@SGPAV1@PAUHWND__@@@Z ; CWnd::FromHandle
; File D:\git\src\IBK\IBK_DRFN\ProjSrc\SrcDrfn\Chart\MULTICHART\TabSystemTradingEx.cpp

; 323  : 	m_bEmptyWizard = bSelectedDefault;

  00085	8b 45 08	 mov	 eax, DWORD PTR _bSelectedDefault$[ebp]

; 324  : 	CDllDlg dlg(szDllName, "(Wizard)", &m_xSTRunManager, NULL);

  00088	8d 8d f8 fe ff
	ff		 lea	 ecx, DWORD PTR _dlg$[ebp]
  0008e	6a 00		 push	 0
  00090	6a 00		 push	 0
  00092	89 86 f8 07 00
	00		 mov	 DWORD PTR [esi+2040], eax
  00098	8d 86 b0 09 00
	00		 lea	 eax, DWORD PTR [esi+2480]
  0009e	50		 push	 eax
  0009f	68 00 00 00 00	 push	 OFFSET ??_C@_0BB@KNEADKDO@?$MA?$PM?$LH?$KL?$MA?$NL?$LM?$LK?$CIWizard?$CJ@
  000a4	ff b5 f4 fe ff
	ff		 push	 DWORD PTR _szDllName$[ebp]
  000aa	e8 00 00 00 00	 call	 ??0CDllDlg@@QAE@PBD0PAXPAUHINSTANCE__@@PAVCWnd@@@Z ; CDllDlg::CDllDlg

; 325  : 	dlg.m_strImageDir = m_pParentDlg->m_szImageDir;

  000af	8b 86 bc 00 00
	00		 mov	 eax, DWORD PTR [esi+188]
  000b5	8d 4d c0	 lea	 ecx, DWORD PTR _dlg$[ebp+200]
  000b8	05 ac 01 00 00	 add	 eax, 428		; 000001acH
  000bd	c6 45 fc 02	 mov	 BYTE PTR __$EHRec$[ebp+8], 2
  000c1	50		 push	 eax
  000c2	ff 15 00 00 00
	00		 call	 DWORD PTR __imp_??4?$CStringT@DV?$StrTraitMFC_DLL@DV?$ChTraitsCRT@D@ATL@@@@@ATL@@QAEAAV01@ABV01@@Z

; 326  : 	// m_xSTAnalysisInput.m_Info;
; 327  : 	dlg.DoModal();

  000c8	8d 8d f8 fe ff
	ff		 lea	 ecx, DWORD PTR _dlg$[ebp]
  000ce	e8 00 00 00 00	 call	 ?DoModal@CDialog@@UAEHXZ ; CDialog::DoModal

; 328  : 	m_bEmptyWizard = FALSE;
; 329  : 
; 330  : 	if(dlg.m_hTradeInst) FreeLibrary(dlg.m_hTradeInst);

  000d3	8b 45 b0	 mov	 eax, DWORD PTR _dlg$[ebp+184]
  000d6	c7 86 f8 07 00
	00 00 00 00 00	 mov	 DWORD PTR [esi+2040], 0
  000e0	85 c0		 test	 eax, eax
  000e2	74 07		 je	 SHORT $LN3@RunWizard
  000e4	50		 push	 eax
  000e5	ff 15 00 00 00
	00		 call	 DWORD PTR __imp__FreeLibrary@4
$LN3@RunWizard:

; 331  : }

  000eb	8d 8d f8 fe ff
	ff		 lea	 ecx, DWORD PTR _dlg$[ebp]
  000f1	e8 00 00 00 00	 call	 ??1CDllDlg@@UAE@XZ	; CDllDlg::~CDllDlg
  000f6	8d 8d f4 fe ff
	ff		 lea	 ecx, DWORD PTR _szDllName$[ebp]
  000fc	ff 15 00 00 00
	00		 call	 DWORD PTR __imp_??1?$CStringT@DV?$StrTraitMFC_DLL@DV?$ChTraitsCRT@D@ATL@@@@@ATL@@QAE@XZ
  00102	8d 8d ec fe ff
	ff		 lea	 ecx, DWORD PTR __ctlState$[ebp]
  00108	e8 00 00 00 00	 call	 ??1AFX_MAINTAIN_STATE2@@QAE@XZ ; AFX_MAINTAIN_STATE2::~AFX_MAINTAIN_STATE2
  0010d	8b 4d f4	 mov	 ecx, DWORD PTR __$EHRec$[ebp]
  00110	64 89 0d 00 00
	00 00		 mov	 DWORD PTR fs:0, ecx
  00117	59		 pop	 ecx
  00118	5e		 pop	 esi
  00119	8b 4d f0	 mov	 ecx, DWORD PTR __$ArrayPad$[ebp]
  0011c	33 cd		 xor	 ecx, ebp
  0011e	e8 00 00 00 00	 call	 @__security_check_cookie@4
  00123	8b e5		 mov	 esp, ebp
  00125	5d		 pop	 ebp
  00126	c2 04 00	 ret	 4
_TEXT	ENDS
;	COMDAT text$x
text$x	SEGMENT
__unwindfunclet$?RunWizard@CTabSystemTradingEx@@QAEXH@Z$0:
  00000	8d 8d ec fe ff
	ff		 lea	 ecx, DWORD PTR __ctlState$[ebp]
  00006	e9 00 00 00 00	 jmp	 ??1AFX_MAINTAIN_STATE2@@QAE@XZ ; AFX_MAINTAIN_STATE2::~AFX_MAINTAIN_STATE2
__unwindfunclet$?RunWizard@CTabSystemTradingEx@@QAEXH@Z$1:
  0000b	8d 8d f4 fe ff
	ff		 lea	 ecx, DWORD PTR _szDllName$[ebp]
  00011	ff 25 00 00 00
	00		 jmp	 DWORD PTR __imp_??1?$CStringT@DV?$StrTraitMFC_DLL@DV?$ChTraitsCRT@D@ATL@@@@@ATL@@QAE@XZ
__unwindfunclet$?RunWizard@CTabSystemTradingEx@@QAEXH@Z$2:
  00017	8d 8d f8 fe ff
	ff		 lea	 ecx, DWORD PTR _dlg$[ebp]
  0001d	e9 00 00 00 00	 jmp	 ??1CDllDlg@@UAE@XZ	; CDllDlg::~CDllDlg
  00022	cc		 int	 3
  00023	cc		 int	 3
  00024	cc		 int	 3
  00025	cc		 int	 3
  00026	cc		 int	 3
__ehhandler$?RunWizard@CTabSystemTradingEx@@QAEXH@Z:
  00027	90		 npad	 1
  00028	90		 npad	 1
  00029	8b 54 24 08	 mov	 edx, DWORD PTR [esp+8]
  0002d	8d 42 0c	 lea	 eax, DWORD PTR [edx+12]
  00030	8b 8a f0 fe ff
	ff		 mov	 ecx, DWORD PTR [edx-272]
  00036	33 c8		 xor	 ecx, eax
  00038	e8 00 00 00 00	 call	 @__security_check_cookie@4
  0003d	8b 4a fc	 mov	 ecx, DWORD PTR [edx-4]
  00040	33 c8		 xor	 ecx, eax
  00042	e8 00 00 00 00	 call	 @__security_check_cookie@4
  00047	b8 00 00 00 00	 mov	 eax, OFFSET __ehfuncinfo$?RunWizard@CTabSystemTradingEx@@QAEXH@Z
  0004c	e9 00 00 00 00	 jmp	 ___CxxFrameHandler3
text$x	ENDS
?RunWizard@CTabSystemTradingEx@@QAEXH@Z ENDP		; CTabSystemTradingEx::RunWizard
; Function compile flags: /Ogtp
; File D:\git\src\IBK\IBK_DRFN\ProjSrc\SrcDrfn\Chart\MULTICHART\TabSystemTradingEx.cpp
;	COMDAT ?IsSTSelected@CTabSystemTradingEx@@QAEHXZ
_TEXT	SEGMENT
?IsSTSelected@CTabSystemTradingEx@@QAEHXZ PROC		; CTabSystemTradingEx::IsSTSelected, COMDAT
; _this$ = ecx

; 1468 : 	//    .
; 1469 : 	// -1    .
; 1470 : //	int nFolderIndx	= m_xSTAnalysisInput.m_Info.nFolderIndx;
; 1471 : //	int nItemIndx	= m_xSTAnalysisInput.m_Info.nItemIndx;	
; 1472 : 	int nFolderIndx	= m_xSTAnalysisInput.m_InfoForAnalysis.nFolderIndx;
; 1473 : 	int nItemIndx	= m_xSTAnalysisInput.m_InfoForAnalysis.nItemIndx;	
; 1474 : 
; 1475 : 	if(nFolderIndx>=0 && nItemIndx>=0)	return TRUE;

  00000	83 b9 a0 09 00
	00 00		 cmp	 DWORD PTR [ecx+2464], 0
  00007	7c 0f		 jl	 SHORT $LN2@IsSTSelect
  00009	83 b9 a4 09 00
	00 00		 cmp	 DWORD PTR [ecx+2468], 0
  00010	7c 06		 jl	 SHORT $LN2@IsSTSelect
  00012	b8 01 00 00 00	 mov	 eax, 1

; 1478 : }

  00017	c3		 ret	 0
$LN2@IsSTSelect:

; 1476 : 
; 1477 : 	return FALSE;

  00018	33 c0		 xor	 eax, eax

; 1478 : }

  0001a	c3		 ret	 0
?IsSTSelected@CTabSystemTradingEx@@QAEHXZ ENDP		; CTabSystemTradingEx::IsSTSelected
_TEXT	ENDS
; Function compile flags: /Ogtp
; File D:\git\src\IBK\IBK_DRFN\ProjSrc\SrcDrfn\Chart\MULTICHART\TabSystemTradingEx.cpp
; File C:\Program Files (x86)\Microsoft Visual Studio\2019\Community\VC\Tools\MSVC\14.29.30133\atlmfc\include\afxwin2.inl
; File D:\git\src\IBK\IBK_DRFN\ProjSrc\SrcDrfn\Chart\MULTICHART\TabSystemTradingEx.cpp
;	COMDAT ?AddSTFile@CTabSystemTradingEx@@QAEXAAVCListBox@@V?$CStringT@DV?$StrTraitMFC_DLL@DV?$ChTraitsCRT@D@ATL@@@@@ATL@@@Z
_TEXT	SEGMENT
_finder$ = -40						; size = 28
__$EHRec$ = -12						; size = 12
$T2 = 8							; size = 4
_rSTList$ = 8						; size = 4
_szPath$ = 12						; size = 4
?AddSTFile@CTabSystemTradingEx@@QAEXAAVCListBox@@V?$CStringT@DV?$StrTraitMFC_DLL@DV?$ChTraitsCRT@D@ATL@@@@@ATL@@@Z PROC ; CTabSystemTradingEx::AddSTFile, COMDAT
; _this$ = ecx

; 1169 : {

  00000	55		 push	 ebp
  00001	8b ec		 mov	 ebp, esp
  00003	6a ff		 push	 -1
  00005	68 00 00 00 00	 push	 __ehhandler$?AddSTFile@CTabSystemTradingEx@@QAEXAAVCListBox@@V?$CStringT@DV?$StrTraitMFC_DLL@DV?$ChTraitsCRT@D@ATL@@@@@ATL@@@Z
  0000a	64 a1 00 00 00
	00		 mov	 eax, DWORD PTR fs:0
  00010	50		 push	 eax
  00011	83 ec 1c	 sub	 esp, 28			; 0000001cH
  00014	53		 push	 ebx
  00015	56		 push	 esi
  00016	57		 push	 edi
  00017	a1 00 00 00 00	 mov	 eax, DWORD PTR ___security_cookie
  0001c	33 c5		 xor	 eax, ebp
  0001e	50		 push	 eax
  0001f	8d 45 f4	 lea	 eax, DWORD PTR __$EHRec$[ebp]
  00022	64 a3 00 00 00
	00		 mov	 DWORD PTR fs:0, eax

; 1170 : 	CFileFind finder;

  00028	8d 4d d8	 lea	 ecx, DWORD PTR _finder$[ebp]
  0002b	c7 45 fc 00 00
	00 00		 mov	 DWORD PTR __$EHRec$[ebp+8], 0
  00032	e8 00 00 00 00	 call	 ??0CFileFind@@QAE@XZ	; CFileFind::CFileFind

; 1171 : 	BOOL bWorking = finder.FindFile(szPath);

  00037	6a 00		 push	 0
  00039	ff 75 0c	 push	 DWORD PTR _szPath$[ebp]
  0003c	8d 4d d8	 lea	 ecx, DWORD PTR _finder$[ebp]
  0003f	c6 45 fc 01	 mov	 BYTE PTR __$EHRec$[ebp+8], 1
  00043	e8 00 00 00 00	 call	 ?FindFile@CFileFind@@UAEHPBDK@Z ; CFileFind::FindFile

; 1172 : 	while (bWorking)

  00048	85 c0		 test	 eax, eax
  0004a	74 3a		 je	 SHORT $LN3@AddSTFile
  0004c	8b 7d 08	 mov	 edi, DWORD PTR _rSTList$[ebp]
  0004f	8b 1d 00 00 00
	00		 mov	 ebx, DWORD PTR __imp__SendMessageA@16
$LL2@AddSTFile:

; 1173 : 	{
; 1174 : 		bWorking = finder.FindNextFile();

  00055	8d 4d d8	 lea	 ecx, DWORD PTR _finder$[ebp]
  00058	e8 00 00 00 00	 call	 ?FindNextFileA@CFileFind@@UAEHXZ ; CFileFind::FindNextFileA
  0005d	8b f0		 mov	 esi, eax

; 1175 : 		rSTList.AddString(finder.GetFileTitle());

  0005f	8d 4d d8	 lea	 ecx, DWORD PTR _finder$[ebp]
  00062	8d 45 08	 lea	 eax, DWORD PTR $T2[ebp]
  00065	50		 push	 eax
  00066	e8 00 00 00 00	 call	 ?GetFileTitle@CFileFind@@UBE?AV?$CStringT@DV?$StrTraitMFC_DLL@DV?$ChTraitsCRT@D@ATL@@@@@ATL@@XZ ; CFileFind::GetFileTitle
; File C:\Program Files (x86)\Microsoft Visual Studio\2019\Community\VC\Tools\MSVC\14.29.30133\atlmfc\include\afxwin2.inl

; 725  : 	{ ASSERT(::IsWindow(m_hWnd)); return (int)::SendMessage(m_hWnd, LB_ADDSTRING, 0, (LPARAM)lpszItem); }

  0006b	ff 30		 push	 DWORD PTR [eax]
  0006d	6a 00		 push	 0
  0006f	68 80 01 00 00	 push	 384			; 00000180H
  00074	ff 77 20	 push	 DWORD PTR [edi+32]
  00077	ff d3		 call	 ebx
; File D:\git\src\IBK\IBK_DRFN\ProjSrc\SrcDrfn\Chart\MULTICHART\TabSystemTradingEx.cpp

; 1175 : 		rSTList.AddString(finder.GetFileTitle());

  00079	8d 4d 08	 lea	 ecx, DWORD PTR $T2[ebp]
  0007c	ff 15 00 00 00
	00		 call	 DWORD PTR __imp_??1?$CStringT@DV?$StrTraitMFC_DLL@DV?$ChTraitsCRT@D@ATL@@@@@ATL@@QAE@XZ
  00082	85 f6		 test	 esi, esi
  00084	75 cf		 jne	 SHORT $LL2@AddSTFile
$LN3@AddSTFile:

; 1176 : 	}
; 1177 : }

  00086	8d 4d d8	 lea	 ecx, DWORD PTR _finder$[ebp]
  00089	e8 00 00 00 00	 call	 ??1CFileFind@@UAE@XZ	; CFileFind::~CFileFind
  0008e	8d 4d 0c	 lea	 ecx, DWORD PTR _szPath$[ebp]
  00091	ff 15 00 00 00
	00		 call	 DWORD PTR __imp_??1?$CStringT@DV?$StrTraitMFC_DLL@DV?$ChTraitsCRT@D@ATL@@@@@ATL@@QAE@XZ
  00097	8b 4d f4	 mov	 ecx, DWORD PTR __$EHRec$[ebp]
  0009a	64 89 0d 00 00
	00 00		 mov	 DWORD PTR fs:0, ecx
  000a1	59		 pop	 ecx
  000a2	5f		 pop	 edi
  000a3	5e		 pop	 esi
  000a4	5b		 pop	 ebx
  000a5	8b e5		 mov	 esp, ebp
  000a7	5d		 pop	 ebp
  000a8	c2 08 00	 ret	 8
_TEXT	ENDS
;	COMDAT text$x
text$x	SEGMENT
__unwindfunclet$?AddSTFile@CTabSystemTradingEx@@QAEXAAVCListBox@@V?$CStringT@DV?$StrTraitMFC_DLL@DV?$ChTraitsCRT@D@ATL@@@@@ATL@@@Z$0:
  00000	8d 4d 0c	 lea	 ecx, DWORD PTR _szPath$[ebp]
  00003	ff 25 00 00 00
	00		 jmp	 DWORD PTR __imp_??1?$CStringT@DV?$StrTraitMFC_DLL@DV?$ChTraitsCRT@D@ATL@@@@@ATL@@QAE@XZ
__unwindfunclet$?AddSTFile@CTabSystemTradingEx@@QAEXAAVCListBox@@V?$CStringT@DV?$StrTraitMFC_DLL@DV?$ChTraitsCRT@D@ATL@@@@@ATL@@@Z$1:
  00009	8d 4d d8	 lea	 ecx, DWORD PTR _finder$[ebp]
  0000c	e9 00 00 00 00	 jmp	 ??1CFileFind@@UAE@XZ	; CFileFind::~CFileFind
  00011	cc		 int	 3
  00012	cc		 int	 3
  00013	cc		 int	 3
  00014	cc		 int	 3
  00015	cc		 int	 3
__ehhandler$?AddSTFile@CTabSystemTradingEx@@QAEXAAVCListBox@@V?$CStringT@DV?$StrTraitMFC_DLL@DV?$ChTraitsCRT@D@ATL@@@@@ATL@@@Z:
  00016	90		 npad	 1
  00017	90		 npad	 1
  00018	8b 54 24 08	 mov	 edx, DWORD PTR [esp+8]
  0001c	8d 42 0c	 lea	 eax, DWORD PTR [edx+12]
  0001f	8b 4a d4	 mov	 ecx, DWORD PTR [edx-44]
  00022	33 c8		 xor	 ecx, eax
  00024	e8 00 00 00 00	 call	 @__security_check_cookie@4
  00029	b8 00 00 00 00	 mov	 eax, OFFSET __ehfuncinfo$?AddSTFile@CTabSystemTradingEx@@QAEXAAVCListBox@@V?$CStringT@DV?$StrTraitMFC_DLL@DV?$ChTraitsCRT@D@ATL@@@@@ATL@@@Z
  0002e	e9 00 00 00 00	 jmp	 ___CxxFrameHandler3
text$x	ENDS
?AddSTFile@CTabSystemTradingEx@@QAEXAAVCListBox@@V?$CStringT@DV?$StrTraitMFC_DLL@DV?$ChTraitsCRT@D@ATL@@@@@ATL@@@Z ENDP ; CTabSystemTradingEx::AddSTFile
; Function compile flags: /Ogtp
; File D:\git\src\IBK\IBK_DRFN\ProjSrc\SrcDrfn\Chart\MULTICHART\TabSystemTradingEx.cpp
; File C:\Program Files (x86)\Microsoft Visual Studio\2019\Community\VC\Tools\MSVC\14.29.30133\atlmfc\include\cstringt.h
; File D:\git\src\IBK\IBK_DRFN\ProjSrc\SrcDrfn\Chart\MULTICHART\TabSystemTradingEx.cpp
; File C:\Program Files (x86)\Microsoft Visual Studio\2019\Community\VC\Tools\MSVC\14.29.30133\atlmfc\include\cstringt.h
; File C:\Program Files (x86)\Microsoft Visual Studio\2019\Community\VC\Tools\MSVC\14.29.30133\atlmfc\include\atlsimpstr.h
; File C:\Program Files (x86)\Microsoft Visual Studio\2019\Community\VC\Tools\MSVC\14.29.30133\atlmfc\include\cstringt.h
; File D:\git\src\IBK\IBK_DRFN\ProjSrc\SrcDrfn\Chart\MULTICHART\TabSystemTradingEx.cpp
; File C:\Program Files (x86)\Microsoft Visual Studio\2019\Community\VC\Tools\MSVC\14.29.30133\atlmfc\include\cstringt.h
; File D:\git\src\IBK\IBK_DRFN\ProjSrc\SrcDrfn\Chart\MULTICHART\TabSystemTradingEx.cpp
; File C:\Program Files (x86)\Microsoft Visual Studio\2019\Community\VC\Tools\MSVC\14.29.30133\atlmfc\include\cstringt.h
; File C:\Program Files (x86)\Microsoft Visual Studio\2019\Community\VC\Tools\MSVC\14.29.30133\atlmfc\include\atlsimpstr.h
; File C:\Program Files (x86)\Microsoft Visual Studio\2019\Community\VC\Tools\MSVC\14.29.30133\atlmfc\include\cstringt.h
; File D:\git\src\IBK\IBK_DRFN\ProjSrc\SrcDrfn\Chart\MULTICHART\TabSystemTradingEx.cpp
; File C:\Program Files (x86)\Microsoft Visual Studio\2019\Community\VC\Tools\MSVC\14.29.30133\atlmfc\include\afxcoll.inl
; File D:\git\src\IBK\IBK_DRFN\ProjSrc\SrcDrfn\Chart\MULTICHART\TabSystemTradingEx.cpp
; File C:\Program Files (x86)\Microsoft Visual Studio\2019\Community\VC\Tools\MSVC\14.29.30133\atlmfc\include\afxcoll.inl
; File D:\git\src\IBK\IBK_DRFN\ProjSrc\SrcDrfn\Chart\MULTICHART\TabSystemTradingEx.cpp
;	COMDAT ?LoadSTList@CTabSystemTradingEx@@QAEXXZ
_TEXT	SEGMENT
_szSTData_STPath$ = -28					; size = 4
_szSTUser_STPath$ = -24					; size = 4
$T2 = -20						; size = 4
_szDllName$3 = -20					; size = 4
$T4 = -16						; size = 4
$T5 = -16						; size = 4
__$EHRec$ = -12						; size = 12
?LoadSTList@CTabSystemTradingEx@@QAEXXZ PROC		; CTabSystemTradingEx::LoadSTList, COMDAT
; _this$ = ecx

; 1111 : {

  00000	55		 push	 ebp
  00001	8b ec		 mov	 ebp, esp
  00003	6a ff		 push	 -1
  00005	68 00 00 00 00	 push	 __ehhandler$?LoadSTList@CTabSystemTradingEx@@QAEXXZ
  0000a	64 a1 00 00 00
	00		 mov	 eax, DWORD PTR fs:0
  00010	50		 push	 eax
  00011	83 ec 10	 sub	 esp, 16			; 00000010H
  00014	53		 push	 ebx
  00015	56		 push	 esi
  00016	57		 push	 edi
  00017	a1 00 00 00 00	 mov	 eax, DWORD PTR ___security_cookie
  0001c	33 c5		 xor	 eax, ebp
  0001e	50		 push	 eax
  0001f	8d 45 f4	 lea	 eax, DWORD PTR __$EHRec$[ebp]
  00022	64 a3 00 00 00
	00		 mov	 DWORD PTR fs:0, eax
  00028	8b d9		 mov	 ebx, ecx
  0002a	c7 45 ec 00 00
	00 00		 mov	 DWORD PTR $T2[ebp], 0
; File C:\Program Files (x86)\Microsoft Visual Studio\2019\Community\VC\Tools\MSVC\14.29.30133\atlmfc\include\cstringt.h

; 2401 : 		CStringT strResult( str1.GetManager() );

  00031	8d 8b 20 08 00
	00		 lea	 ecx, DWORD PTR [ebx+2080]
; File D:\git\src\IBK\IBK_DRFN\ProjSrc\SrcDrfn\Chart\MULTICHART\TabSystemTradingEx.cpp

; 1115 : 	CString szSTData_STPath = m_szDataDir + "\\" + PATH_STDATA_ST;

  00037	c7 45 fc 00 00
	00 00		 mov	 DWORD PTR __$EHRec$[ebp+8], 0
; File C:\Program Files (x86)\Microsoft Visual Studio\2019\Community\VC\Tools\MSVC\14.29.30133\atlmfc\include\cstringt.h

; 2401 : 		CStringT strResult( str1.GetManager() );

  0003e	ff 15 00 00 00
	00		 call	 DWORD PTR __imp_?GetManager@?$CStringT@DV?$StrTraitMFC_DLL@DV?$ChTraitsCRT@D@ATL@@@@@ATL@@QBEPAUIAtlStringMgr@2@XZ
  00044	50		 push	 eax
  00045	8d 4d f0	 lea	 ecx, DWORD PTR $T5[ebp]
  00048	ff 15 00 00 00
	00		 call	 DWORD PTR __imp_??0?$CStringT@DV?$StrTraitMFC_DLL@DV?$ChTraitsCRT@D@ATL@@@@@ATL@@QAE@PAUIAtlStringMgr@1@@Z
; File C:\Program Files (x86)\Microsoft Visual Studio\2019\Community\VC\Tools\MSVC\14.29.30133\atlmfc\include\atlsimpstr.h

; 519  : 		return( GetData()->nDataLength );

  0004e	8b 83 20 08 00
	00		 mov	 eax, DWORD PTR [ebx+2080]
; File C:\Program Files (x86)\Microsoft Visual Studio\2019\Community\VC\Tools\MSVC\14.29.30133\atlmfc\include\cstringt.h

; 2403 : 		CThisSimpleString::Concatenate( strResult, str1, str1.GetLength(), psz2, CThisSimpleString::StringLength( psz2 ) );

  00054	6a 01		 push	 1
  00056	68 00 00 00 00	 push	 OFFSET ??_C@_01KICIPPFI@?2@

; 2404 : 
; 2405 : 		return( strResult );

  0005b	c7 45 ec 01 00
	00 00		 mov	 DWORD PTR $T2[ebp], 1
  00062	ff 70 f4	 push	 DWORD PTR [eax-12]
  00065	50		 push	 eax
  00066	8d 45 f0	 lea	 eax, DWORD PTR $T5[ebp]
  00069	50		 push	 eax
  0006a	ff 15 00 00 00
	00		 call	 DWORD PTR __imp_?Concatenate@?$CSimpleStringT@D$00@ATL@@KAXAAV12@PBDH1H@Z
; File D:\git\src\IBK\IBK_DRFN\ProjSrc\SrcDrfn\Chart\MULTICHART\TabSystemTradingEx.cpp

; 1115 : 	CString szSTData_STPath = m_szDataDir + "\\" + PATH_STDATA_ST;

  00070	68 00 00 00 00	 push	 OFFSET ??_C@_09HNPKBJBA@stdata?2st@
  00075	8d 45 f0	 lea	 eax, DWORD PTR $T5[ebp]
  00078	50		 push	 eax
  00079	8d 45 e4	 lea	 eax, DWORD PTR _szSTData_STPath$[ebp]
  0007c	50		 push	 eax
  0007d	e8 00 00 00 00	 call	 ??HATL@@YA?AV?$CStringT@DV?$StrTraitMFC_DLL@DV?$ChTraitsCRT@D@ATL@@@@@0@ABV10@PBD@Z ; ATL::operator+
  00082	83 c4 20	 add	 esp, 32			; 00000020H
  00085	8d 4d f0	 lea	 ecx, DWORD PTR $T5[ebp]
  00088	ff 15 00 00 00
	00		 call	 DWORD PTR __imp_??1?$CStringT@DV?$StrTraitMFC_DLL@DV?$ChTraitsCRT@D@ATL@@@@@ATL@@QAE@XZ
; File C:\Program Files (x86)\Microsoft Visual Studio\2019\Community\VC\Tools\MSVC\14.29.30133\atlmfc\include\cstringt.h

; 2401 : 		CStringT strResult( str1.GetManager() );

  0008e	8d 8b 24 08 00
	00		 lea	 ecx, DWORD PTR [ebx+2084]
; File D:\git\src\IBK\IBK_DRFN\ProjSrc\SrcDrfn\Chart\MULTICHART\TabSystemTradingEx.cpp

; 1116 : 	CString szSTUser_STPath = m_szEncUserDir + "\\" + PATH_STDATA_ST;

  00094	c6 45 fc 03	 mov	 BYTE PTR __$EHRec$[ebp+8], 3
; File C:\Program Files (x86)\Microsoft Visual Studio\2019\Community\VC\Tools\MSVC\14.29.30133\atlmfc\include\cstringt.h

; 2401 : 		CStringT strResult( str1.GetManager() );

  00098	ff 15 00 00 00
	00		 call	 DWORD PTR __imp_?GetManager@?$CStringT@DV?$StrTraitMFC_DLL@DV?$ChTraitsCRT@D@ATL@@@@@ATL@@QBEPAUIAtlStringMgr@2@XZ
  0009e	50		 push	 eax
  0009f	8d 4d f0	 lea	 ecx, DWORD PTR $T4[ebp]
  000a2	ff 15 00 00 00
	00		 call	 DWORD PTR __imp_??0?$CStringT@DV?$StrTraitMFC_DLL@DV?$ChTraitsCRT@D@ATL@@@@@ATL@@QAE@PAUIAtlStringMgr@1@@Z
; File C:\Program Files (x86)\Microsoft Visual Studio\2019\Community\VC\Tools\MSVC\14.29.30133\atlmfc\include\atlsimpstr.h

; 519  : 		return( GetData()->nDataLength );

  000a8	8b 83 24 08 00
	00		 mov	 eax, DWORD PTR [ebx+2084]
; File C:\Program Files (x86)\Microsoft Visual Studio\2019\Community\VC\Tools\MSVC\14.29.30133\atlmfc\include\cstringt.h

; 2403 : 		CThisSimpleString::Concatenate( strResult, str1, str1.GetLength(), psz2, CThisSimpleString::StringLength( psz2 ) );

  000ae	6a 01		 push	 1
  000b0	68 00 00 00 00	 push	 OFFSET ??_C@_01KICIPPFI@?2@

; 2404 : 
; 2405 : 		return( strResult );

  000b5	c7 45 ec 04 00
	00 00		 mov	 DWORD PTR $T2[ebp], 4
  000bc	ff 70 f4	 push	 DWORD PTR [eax-12]
  000bf	50		 push	 eax
  000c0	8d 45 f0	 lea	 eax, DWORD PTR $T4[ebp]
  000c3	50		 push	 eax
  000c4	ff 15 00 00 00
	00		 call	 DWORD PTR __imp_?Concatenate@?$CSimpleStringT@D$00@ATL@@KAXAAV12@PBDH1H@Z
; File D:\git\src\IBK\IBK_DRFN\ProjSrc\SrcDrfn\Chart\MULTICHART\TabSystemTradingEx.cpp

; 1116 : 	CString szSTUser_STPath = m_szEncUserDir + "\\" + PATH_STDATA_ST;

  000ca	68 00 00 00 00	 push	 OFFSET ??_C@_09HNPKBJBA@stdata?2st@
  000cf	8d 45 f0	 lea	 eax, DWORD PTR $T4[ebp]
  000d2	50		 push	 eax
  000d3	8d 45 e8	 lea	 eax, DWORD PTR _szSTUser_STPath$[ebp]
  000d6	50		 push	 eax
  000d7	e8 00 00 00 00	 call	 ??HATL@@YA?AV?$CStringT@DV?$StrTraitMFC_DLL@DV?$ChTraitsCRT@D@ATL@@@@@0@ABV10@PBD@Z ; ATL::operator+
  000dc	83 c4 20	 add	 esp, 32			; 00000020H
  000df	8d 4d f0	 lea	 ecx, DWORD PTR $T4[ebp]
  000e2	c6 45 fc 05	 mov	 BYTE PTR __$EHRec$[ebp+8], 5
  000e6	ff 15 00 00 00
	00		 call	 DWORD PTR __imp_??1?$CStringT@DV?$StrTraitMFC_DLL@DV?$ChTraitsCRT@D@ATL@@@@@ATL@@QAE@XZ

; 1117 : 
; 1118 : 
; 1119 : 	{
; 1120 : 		typedef	LONG (FPSCW_GetInterfaceOfStrategy)(LONG dwType/*=0*/);
; 1121 : 		if(!m_hSTConfigureWizardInst)

  000ec	8b 83 ec 07 00
	00		 mov	 eax, DWORD PTR [ebx+2028]
  000f2	85 c0		 test	 eax, eax
  000f4	75 54		 jne	 SHORT $LN75@LoadSTList

; 1122 : 		{
; 1123 : 			CString szDllName;

  000f6	8d 4d ec	 lea	 ecx, DWORD PTR _szDllName$3[ebp]
  000f9	ff 15 00 00 00
	00		 call	 DWORD PTR __imp_??0?$CStringT@DV?$StrTraitMFC_DLL@DV?$ChTraitsCRT@D@ATL@@@@@ATL@@QAE@XZ

; 1124 : 			szDllName.Format("%s%s", m_szRootDir, "\\dev\\HWStrategyConfigureWizard.dll");

  000ff	68 00 00 00 00	 push	 OFFSET ??_C@_0CD@HGNBEHEC@?2dev?2HWStrategyConfigureWizard?4@
  00104	ff b3 1c 08 00
	00		 push	 DWORD PTR [ebx+2076]
  0010a	8d 45 ec	 lea	 eax, DWORD PTR _szDllName$3[ebp]
  0010d	c6 45 fc 06	 mov	 BYTE PTR __$EHRec$[ebp+8], 6
  00111	68 00 00 00 00	 push	 OFFSET ??_C@_04HDOCAJNK@?$CFs?$CFs@
  00116	50		 push	 eax
  00117	ff 15 00 00 00
	00		 call	 DWORD PTR __imp_?Format@?$CStringT@DV?$StrTraitMFC_DLL@DV?$ChTraitsCRT@D@ATL@@@@@ATL@@QAAXPBDZZ
  0011d	83 c4 10	 add	 esp, 16			; 00000010H

; 1125 : 			m_hSTConfigureWizardInst  = LoadLibrary(szDllName);

  00120	ff 75 ec	 push	 DWORD PTR _szDllName$3[ebp]
  00123	ff 15 00 00 00
	00		 call	 DWORD PTR __imp__LoadLibraryA@4

; 1126 : 		}

  00129	8d 4d ec	 lea	 ecx, DWORD PTR _szDllName$3[ebp]
  0012c	89 83 ec 07 00
	00		 mov	 DWORD PTR [ebx+2028], eax
  00132	c6 45 fc 05	 mov	 BYTE PTR __$EHRec$[ebp+8], 5
  00136	ff 15 00 00 00
	00		 call	 DWORD PTR __imp_??1?$CStringT@DV?$StrTraitMFC_DLL@DV?$ChTraitsCRT@D@ATL@@@@@ATL@@QAE@XZ
  0013c	8b 83 ec 07 00
	00		 mov	 eax, DWORD PTR [ebx+2028]

; 1127 : 		if(!m_hSTConfigureWizardInst) return;

  00142	85 c0		 test	 eax, eax
  00144	0f 84 9b 00 00
	00		 je	 $LN5@LoadSTList
$LN75@LoadSTList:

; 1128 : 
; 1129 : 		FPSCW_GetInterfaceOfStrategy* pFunc = (FPSCW_GetInterfaceOfStrategy*)GetProcAddress(m_hSTConfigureWizardInst,_T("SCW_GetInterfaceOfStrategy"));

  0014a	68 00 00 00 00	 push	 OFFSET ??_C@_0BL@OHKGLIGI@SCW_GetInterfaceOfStrategy@
  0014f	50		 push	 eax
  00150	ff 15 00 00 00
	00		 call	 DWORD PTR __imp__GetProcAddress@8

; 1130 : 		if(pFunc == NULL) return ;

  00156	85 c0		 test	 eax, eax
  00158	0f 84 87 00 00
	00		 je	 $LN5@LoadSTList

; 1131 : 
; 1132 : 
; 1133 : 		LONG dwType = 0;	//CSTLoadManager*
; 1134 : 		m_pSTLoadMnger = (ISTLoadManager2*)pFunc(dwType);

  0015e	6a 00		 push	 0
  00160	ff d0		 call	 eax
  00162	83 c4 04	 add	 esp, 4
  00165	89 83 e8 07 00
	00		 mov	 DWORD PTR [ebx+2024], eax

; 1135 : 		if(m_pSTLoadMnger)

  0016b	85 c0		 test	 eax, eax
  0016d	74 76		 je	 SHORT $LN5@LoadSTList
; File C:\Program Files (x86)\Microsoft Visual Studio\2019\Community\VC\Tools\MSVC\14.29.30133\atlmfc\include\afxcoll.inl

; 321  : 		SetAtGrow(nIndex, newElement);

  0016f	8d 45 e4	 lea	 eax, DWORD PTR _szSTData_STPath$[ebp]
; File D:\git\src\IBK\IBK_DRFN\ProjSrc\SrcDrfn\Chart\MULTICHART\TabSystemTradingEx.cpp

; 1137 : 			m_arSTPath.Add(szSTData_STPath);

  00172	8d bb d4 07 00
	00		 lea	 edi, DWORD PTR [ebx+2004]
; File C:\Program Files (x86)\Microsoft Visual Studio\2019\Community\VC\Tools\MSVC\14.29.30133\atlmfc\include\afxcoll.inl

; 321  : 		SetAtGrow(nIndex, newElement);

  00178	50		 push	 eax
  00179	ff 77 08	 push	 DWORD PTR [edi+8]
  0017c	8b cf		 mov	 ecx, edi
  0017e	e8 00 00 00 00	 call	 ?SetAtGrow@CStringArray@@QAEXHABV?$CStringT@DV?$StrTraitMFC_DLL@DV?$ChTraitsCRT@D@ATL@@@@@ATL@@@Z ; CStringArray::SetAtGrow
  00183	8d 45 e8	 lea	 eax, DWORD PTR _szSTUser_STPath$[ebp]
  00186	8b cf		 mov	 ecx, edi
  00188	50		 push	 eax
  00189	ff 77 08	 push	 DWORD PTR [edi+8]
  0018c	e8 00 00 00 00	 call	 ?SetAtGrow@CStringArray@@QAEXHABV?$CStringT@DV?$StrTraitMFC_DLL@DV?$ChTraitsCRT@D@ATL@@@@@ATL@@@Z ; CStringArray::SetAtGrow
; File D:\git\src\IBK\IBK_DRFN\ProjSrc\SrcDrfn\Chart\MULTICHART\TabSystemTradingEx.cpp

; 1141 : 			m_pSTLoadMnger->Init(TRUE, "*.ST", &m_ImageListIcon);

  00191	8d 83 c4 07 00
	00		 lea	 eax, DWORD PTR [ebx+1988]
  00197	50		 push	 eax
  00198	51		 push	 ecx
  00199	8b cc		 mov	 ecx, esp
  0019b	68 00 00 00 00	 push	 OFFSET ??_C@_04ECGMOPPD@?$CK?4ST@
  001a0	ff 15 00 00 00
	00		 call	 DWORD PTR __imp_??0?$CStringT@DV?$StrTraitMFC_DLL@DV?$ChTraitsCRT@D@ATL@@@@@ATL@@QAE@PBD@Z
  001a6	8b 83 e8 07 00
	00		 mov	 eax, DWORD PTR [ebx+2024]
  001ac	6a 01		 push	 1
  001ae	50		 push	 eax
  001af	8b 08		 mov	 ecx, DWORD PTR [eax]
  001b1	ff 11		 call	 DWORD PTR [ecx]

; 1142 : 			m_pSTLoadMnger->SetUseBoldFont(FALSE);

  001b3	8b 83 e8 07 00
	00		 mov	 eax, DWORD PTR [ebx+2024]
  001b9	6a 00		 push	 0
  001bb	50		 push	 eax
  001bc	8b 08		 mov	 ecx, DWORD PTR [eax]
  001be	ff 51 20	 call	 DWORD PTR [ecx+32]

; 1143 : 			int p_LoadOption = 0;
; 1144 : 			m_pSTLoadMnger->LoadST2(m_pWndOutBar->GetCoutBarCtrl(), &m_arSTPath, 0, 0, p_LoadOption);

  001c1	8b 83 e8 07 00
	00		 mov	 eax, DWORD PTR [ebx+2024]
  001c7	8b 8b 18 08 00
	00		 mov	 ecx, DWORD PTR [ebx+2072]
  001cd	6a 00		 push	 0
  001cf	6a 00		 push	 0
  001d1	8b 30		 mov	 esi, DWORD PTR [eax]
  001d3	8b 01		 mov	 eax, DWORD PTR [ecx]
  001d5	6a 00		 push	 0
  001d7	57		 push	 edi
  001d8	51		 push	 ecx
  001d9	ff 10		 call	 DWORD PTR [eax]
  001db	50		 push	 eax
  001dc	ff b3 e8 07 00
	00		 push	 DWORD PTR [ebx+2024]
  001e2	ff 56 24	 call	 DWORD PTR [esi+36]
$LN5@LoadSTList:

; 1145 : 			// m_wndOutBar.MoveWindow(GetRect(IDC_OUTLOOKBAR));
; 1146 : 		}
; 1147 : 	}
; 1148 : }

  001e5	8d 4d e8	 lea	 ecx, DWORD PTR _szSTUser_STPath$[ebp]
  001e8	ff 15 00 00 00
	00		 call	 DWORD PTR __imp_??1?$CStringT@DV?$StrTraitMFC_DLL@DV?$ChTraitsCRT@D@ATL@@@@@ATL@@QAE@XZ
  001ee	8d 4d e4	 lea	 ecx, DWORD PTR _szSTData_STPath$[ebp]
  001f1	ff 15 00 00 00
	00		 call	 DWORD PTR __imp_??1?$CStringT@DV?$StrTraitMFC_DLL@DV?$ChTraitsCRT@D@ATL@@@@@ATL@@QAE@XZ
  001f7	8b 4d f4	 mov	 ecx, DWORD PTR __$EHRec$[ebp]
  001fa	64 89 0d 00 00
	00 00		 mov	 DWORD PTR fs:0, ecx
  00201	59		 pop	 ecx
  00202	5f		 pop	 edi
  00203	5e		 pop	 esi
  00204	5b		 pop	 ebx
  00205	8b e5		 mov	 esp, ebp
  00207	5d		 pop	 ebp
  00208	c3		 ret	 0
_TEXT	ENDS
;	COMDAT text$x
text$x	SEGMENT
__unwindfunclet$?LoadSTList@CTabSystemTradingEx@@QAEXXZ$6:
  00000	8b 45 ec	 mov	 eax, DWORD PTR $T2[ebp]
  00003	83 e0 01	 and	 eax, 1
  00006	0f 84 0d 00 00
	00		 je	 $LN18@LoadSTList
  0000c	83 65 ec fe	 and	 DWORD PTR $T2[ebp], -2	; fffffffeH
  00010	8d 4d f0	 lea	 ecx, DWORD PTR $T5[ebp]
  00013	ff 25 00 00 00
	00		 jmp	 DWORD PTR __imp_??1?$CStringT@DV?$StrTraitMFC_DLL@DV?$ChTraitsCRT@D@ATL@@@@@ATL@@QAE@XZ
$LN18@LoadSTList:
  00019	c3		 ret	 0
__unwindfunclet$?LoadSTList@CTabSystemTradingEx@@QAEXXZ$1:
  0001a	8d 4d e4	 lea	 ecx, DWORD PTR _szSTData_STPath$[ebp]
  0001d	ff 25 00 00 00
	00		 jmp	 DWORD PTR __imp_??1?$CStringT@DV?$StrTraitMFC_DLL@DV?$ChTraitsCRT@D@ATL@@@@@ATL@@QAE@XZ
__unwindfunclet$?LoadSTList@CTabSystemTradingEx@@QAEXXZ$8:
  00023	8b 45 ec	 mov	 eax, DWORD PTR $T2[ebp]
  00026	83 e0 04	 and	 eax, 4
  00029	0f 84 0d 00 00
	00		 je	 $LN44@LoadSTList
  0002f	83 65 ec fb	 and	 DWORD PTR $T2[ebp], -5	; fffffffbH
  00033	8d 4d f0	 lea	 ecx, DWORD PTR $T4[ebp]
  00036	ff 25 00 00 00
	00		 jmp	 DWORD PTR __imp_??1?$CStringT@DV?$StrTraitMFC_DLL@DV?$ChTraitsCRT@D@ATL@@@@@ATL@@QAE@XZ
$LN44@LoadSTList:
  0003c	c3		 ret	 0
__unwindfunclet$?LoadSTList@CTabSystemTradingEx@@QAEXXZ$3:
  0003d	8d 4d e8	 lea	 ecx, DWORD PTR _szSTUser_STPath$[ebp]
  00040	ff 25 00 00 00
	00		 jmp	 DWORD PTR __imp_??1?$CStringT@DV?$StrTraitMFC_DLL@DV?$ChTraitsCRT@D@ATL@@@@@ATL@@QAE@XZ
__unwindfunclet$?LoadSTList@CTabSystemTradingEx@@QAEXXZ$4:
  00046	8d 4d ec	 lea	 ecx, DWORD PTR _szDllName$3[ebp]
  00049	ff 25 00 00 00
	00		 jmp	 DWORD PTR __imp_??1?$CStringT@DV?$StrTraitMFC_DLL@DV?$ChTraitsCRT@D@ATL@@@@@ATL@@QAE@XZ
  0004f	cc		 int	 3
  00050	cc		 int	 3
  00051	cc		 int	 3
  00052	cc		 int	 3
  00053	cc		 int	 3
__ehhandler$?LoadSTList@CTabSystemTradingEx@@QAEXXZ:
  00054	90		 npad	 1
  00055	90		 npad	 1
  00056	8b 54 24 08	 mov	 edx, DWORD PTR [esp+8]
  0005a	8d 42 0c	 lea	 eax, DWORD PTR [edx+12]
  0005d	8b 4a e0	 mov	 ecx, DWORD PTR [edx-32]
  00060	33 c8		 xor	 ecx, eax
  00062	e8 00 00 00 00	 call	 @__security_check_cookie@4
  00067	b8 00 00 00 00	 mov	 eax, OFFSET __ehfuncinfo$?LoadSTList@CTabSystemTradingEx@@QAEXXZ
  0006c	e9 00 00 00 00	 jmp	 ___CxxFrameHandler3
text$x	ENDS
?LoadSTList@CTabSystemTradingEx@@QAEXXZ ENDP		; CTabSystemTradingEx::LoadSTList
; Function compile flags: /Ogtp
; File D:\git\src\IBK\IBK_DRFN\ProjSrc\SrcDrfn\Chart\MULTICHART\TabSystemTradingEx.cpp
; File C:\Program Files (x86)\Microsoft Visual Studio\2019\Community\VC\Tools\MSVC\14.29.30133\atlmfc\include\atltypes.h
; File D:\git\src\IBK\IBK_DRFN\ProjSrc\SrcDrfn\Chart\MULTICHART\TabSystemTradingEx.cpp
; File C:\Program Files (x86)\Microsoft Visual Studio\2019\Community\VC\Tools\MSVC\14.29.30133\atlmfc\include\afxwin2.inl
; File D:\git\src\IBK\IBK_DRFN\ProjSrc\SrcDrfn\Chart\MULTICHART\TabSystemTradingEx.cpp
; File C:\Program Files (x86)\Microsoft Visual Studio\2019\Community\VC\Tools\MSVC\14.29.30133\atlmfc\include\afxwin1.inl
; File D:\git\src\IBK\IBK_DRFN\ProjSrc\SrcDrfn\Chart\MULTICHART\TabSystemTradingEx.cpp
; File C:\Program Files (x86)\Microsoft Visual Studio\2019\Community\VC\Tools\MSVC\14.29.30133\atlmfc\include\afxwin1.inl
; File D:\git\src\IBK\IBK_DRFN\ProjSrc\SrcDrfn\Chart\MULTICHART\TabSystemTradingEx.cpp
; File C:\Program Files (x86)\Microsoft Visual Studio\2019\Community\VC\Tools\MSVC\14.29.30133\atlmfc\include\afxwin1.inl
; File D:\git\src\IBK\IBK_DRFN\ProjSrc\SrcDrfn\Chart\MULTICHART\TabSystemTradingEx.cpp
; File C:\Program Files (x86)\Microsoft Visual Studio\2019\Community\VC\Tools\MSVC\14.29.30133\atlmfc\include\afxwin2.inl
; File D:\git\src\IBK\IBK_DRFN\ProjSrc\SrcDrfn\Chart\MULTICHART\TabSystemTradingEx.cpp
; File C:\Program Files (x86)\Microsoft Visual Studio\2019\Community\VC\Tools\MSVC\14.29.30133\atlmfc\include\afxwin2.inl
; File D:\git\src\IBK\IBK_DRFN\ProjSrc\SrcDrfn\Chart\MULTICHART\TabSystemTradingEx.cpp
; File C:\Program Files (x86)\Microsoft Visual Studio\2019\Community\VC\Tools\MSVC\14.29.30133\atlmfc\include\afxwin2.inl
; File D:\git\src\IBK\IBK_DRFN\ProjSrc\SrcDrfn\Chart\MULTICHART\TabSystemTradingEx.cpp
; File C:\Program Files (x86)\Microsoft Visual Studio\2019\Community\VC\Tools\MSVC\14.29.30133\atlmfc\include\afxcoll.inl
; File D:\git\src\IBK\IBK_DRFN\ProjSrc\SrcDrfn\Chart\MULTICHART\TabSystemTradingEx.cpp
; File C:\Program Files (x86)\Microsoft Visual Studio\2019\Community\VC\Tools\MSVC\14.29.30133\atlmfc\include\afxcoll.inl
; File D:\git\src\IBK\IBK_DRFN\ProjSrc\SrcDrfn\Chart\MULTICHART\TabSystemTradingEx.cpp
; File C:\Program Files (x86)\Microsoft Visual Studio\2019\Community\VC\Tools\MSVC\14.29.30133\atlmfc\include\afxwin1.inl
; File D:\git\src\IBK\IBK_DRFN\ProjSrc\SrcDrfn\Chart\MULTICHART\TabSystemTradingEx.cpp
;	COMDAT ?LoadOutlookBar@CTabSystemTradingEx@@QAEXXZ
_TEXT	SEGMENT
_szDllName$2 = -48					; size = 4
_bitmap$ = -44						; size = 8
_strImageDir$ = -36					; size = 4
_rc2$ = -32						; size = 16
__$ArrayPad$ = -16					; size = 4
__$EHRec$ = -12						; size = 12
?LoadOutlookBar@CTabSystemTradingEx@@QAEXXZ PROC	; CTabSystemTradingEx::LoadOutlookBar, COMDAT
; _this$ = ecx

; 1020 : {

  00000	55		 push	 ebp
  00001	8b ec		 mov	 ebp, esp
  00003	6a ff		 push	 -1
  00005	68 00 00 00 00	 push	 __ehhandler$?LoadOutlookBar@CTabSystemTradingEx@@QAEXXZ
  0000a	64 a1 00 00 00
	00		 mov	 eax, DWORD PTR fs:0
  00010	50		 push	 eax
  00011	83 ec 24	 sub	 esp, 36			; 00000024H
  00014	a1 00 00 00 00	 mov	 eax, DWORD PTR ___security_cookie
  00019	33 c5		 xor	 eax, ebp
  0001b	89 45 f0	 mov	 DWORD PTR __$ArrayPad$[ebp], eax
  0001e	53		 push	 ebx
  0001f	56		 push	 esi
  00020	57		 push	 edi
  00021	50		 push	 eax
  00022	8d 45 f4	 lea	 eax, DWORD PTR __$EHRec$[ebp]
  00025	64 a3 00 00 00
	00		 mov	 DWORD PTR fs:0, eax
  0002b	8b d9		 mov	 ebx, ecx
  0002d	0f 57 c0	 xorps	 xmm0, xmm0

; 1022 : 	GetDlgItem(IDC_STFRAME2)->GetWindowRect(rc2);

  00030	68 b1 17 00 00	 push	 6065			; 000017b1H
; File C:\Program Files (x86)\Microsoft Visual Studio\2019\Community\VC\Tools\MSVC\14.29.30133\atlmfc\include\atltypes.h

; 528  : 	left = 0;

  00035	0f 11 45 e0	 movups	 XMMWORD PTR _rc2$[ebp], xmm0
; File D:\git\src\IBK\IBK_DRFN\ProjSrc\SrcDrfn\Chart\MULTICHART\TabSystemTradingEx.cpp

; 1022 : 	GetDlgItem(IDC_STFRAME2)->GetWindowRect(rc2);

  00039	e8 00 00 00 00	 call	 ?GetDlgItem@CWnd@@QBEPAV1@H@Z ; CWnd::GetDlgItem
; File C:\Program Files (x86)\Microsoft Visual Studio\2019\Community\VC\Tools\MSVC\14.29.30133\atlmfc\include\afxwin2.inl

; 84   : 	{ ASSERT(::IsWindow(m_hWnd)); ::GetWindowRect(m_hWnd, lpRect); }

  0003e	8d 4d e0	 lea	 ecx, DWORD PTR _rc2$[ebp]
  00041	51		 push	 ecx
  00042	ff 70 20	 push	 DWORD PTR [eax+32]
  00045	ff 15 00 00 00
	00		 call	 DWORD PTR __imp__GetWindowRect@8
; File D:\git\src\IBK\IBK_DRFN\ProjSrc\SrcDrfn\Chart\MULTICHART\TabSystemTradingEx.cpp

; 1023 : 	ScreenToClient(rc2);

  0004b	8d 45 e0	 lea	 eax, DWORD PTR _rc2$[ebp]
  0004e	8b cb		 mov	 ecx, ebx
  00050	50		 push	 eax
  00051	e8 00 00 00 00	 call	 ?ScreenToClient@CWnd@@QBEXPAUtagRECT@@@Z ; CWnd::ScreenToClient
; File C:\Program Files (x86)\Microsoft Visual Studio\2019\Community\VC\Tools\MSVC\14.29.30133\atlmfc\include\afxwin1.inl

; 70   : 	{ m_hObject = NULL; }

  00056	c7 45 d8 00 00
	00 00		 mov	 DWORD PTR _bitmap$[ebp+4], 0

; 177  : 	{ }

  0005d	c7 45 d4 00 00
	00 00		 mov	 DWORD PTR _bitmap$[ebp], OFFSET ??_7CBitmap@@6B@
; File D:\git\src\IBK\IBK_DRFN\ProjSrc\SrcDrfn\Chart\MULTICHART\TabSystemTradingEx.cpp

; 1056 : 	CString strImageDir;

  00064	8d 4d dc	 lea	 ecx, DWORD PTR _strImageDir$[ebp]
  00067	c7 45 fc 00 00
	00 00		 mov	 DWORD PTR __$EHRec$[ebp+8], 0
  0006e	ff 15 00 00 00
	00		 call	 DWORD PTR __imp_??0?$CStringT@DV?$StrTraitMFC_DLL@DV?$ChTraitsCRT@D@ATL@@@@@ATL@@QAE@XZ

; 1057 : 	strImageDir.Format("%s\\folder.bmp", m_pParentDlg->m_szImageDir);

  00074	8b 83 bc 00 00
	00		 mov	 eax, DWORD PTR [ebx+188]
  0007a	c6 45 fc 01	 mov	 BYTE PTR __$EHRec$[ebp+8], 1
  0007e	ff b0 ac 01 00
	00		 push	 DWORD PTR [eax+428]
  00084	8d 45 dc	 lea	 eax, DWORD PTR _strImageDir$[ebp]
  00087	68 00 00 00 00	 push	 OFFSET ??_C@_0O@DADNAINN@?$CFs?2folder?4bmp@
  0008c	50		 push	 eax
  0008d	ff 15 00 00 00
	00		 call	 DWORD PTR __imp_?Format@?$CStringT@DV?$StrTraitMFC_DLL@DV?$ChTraitsCRT@D@ATL@@@@@ATL@@QAAXPBDZZ

; 1058 : 	bitmap.Attach((HBITMAP)LoadImage(NULL, (LPSTR)(LPCTSTR)strImageDir, IMAGE_BITMAP, 0, 0, LR_LOADFROMFILE|LR_CREATEDIBSECTION|LR_DEFAULTSIZE));

  00093	8b 3d 00 00 00
	00		 mov	 edi, DWORD PTR __imp__LoadImageA@24
  00099	83 c4 0c	 add	 esp, 12			; 0000000cH
  0009c	68 50 20 00 00	 push	 8272			; 00002050H
  000a1	6a 00		 push	 0
  000a3	6a 00		 push	 0
  000a5	6a 00		 push	 0
  000a7	ff 75 dc	 push	 DWORD PTR _strImageDir$[ebp]
  000aa	6a 00		 push	 0
  000ac	ff d7		 call	 edi
  000ae	50		 push	 eax
  000af	8d 4d d4	 lea	 ecx, DWORD PTR _bitmap$[ebp]
  000b2	e8 00 00 00 00	 call	 ?Attach@CGdiObject@@QAEHPAX@Z ; CGdiObject::Attach

; 1059 : 	m_ImageListIcon.Create(18, 18, ILC_MASK | ILC_COLORDDB, 1, 1);

  000b7	6a 01		 push	 1
  000b9	6a 01		 push	 1
  000bb	68 ff 00 00 00	 push	 255			; 000000ffH
  000c0	6a 12		 push	 18			; 00000012H
  000c2	8d 8b c4 07 00
	00		 lea	 ecx, DWORD PTR [ebx+1988]
  000c8	6a 12		 push	 18			; 00000012H
  000ca	e8 00 00 00 00	 call	 ?Create@CImageList@@QAEHHHIHH@Z ; CImageList::Create
; File C:\Program Files (x86)\Microsoft Visual Studio\2019\Community\VC\Tools\MSVC\14.29.30133\atlmfc\include\afxwin1.inl

; 859  : 	{ ASSERT(m_hImageList != NULL); return ImageList_AddMasked(m_hImageList, (HBITMAP)pbmImage->GetSafeHandle(), crMask); }

  000cf	8b 35 00 00 00
	00		 mov	 esi, DWORD PTR __imp__ImageList_AddMasked@12
  000d5	68 ff 00 ff 00	 push	 16711935		; 00ff00ffH
  000da	ff 75 d8	 push	 DWORD PTR _bitmap$[ebp+4]
  000dd	ff b3 c8 07 00
	00		 push	 DWORD PTR [ebx+1992]
  000e3	ff d6		 call	 esi
; File D:\git\src\IBK\IBK_DRFN\ProjSrc\SrcDrfn\Chart\MULTICHART\TabSystemTradingEx.cpp

; 1061 : 	bitmap.DeleteObject();

  000e5	8d 4d d4	 lea	 ecx, DWORD PTR _bitmap$[ebp]
  000e8	e8 00 00 00 00	 call	 ?DeleteObject@CGdiObject@@QAEHXZ ; CGdiObject::DeleteObject

; 1062 : 
; 1063 : 	//20061213   
; 1064 : 	//LeftBar   
; 1065 : //@ 
; 1066 : 	strImageDir = "";

  000ed	68 00 00 00 00	 push	 OFFSET ??_C@_00CNPNBAHC@@
  000f2	8d 4d dc	 lea	 ecx, DWORD PTR _strImageDir$[ebp]
  000f5	ff 15 00 00 00
	00		 call	 DWORD PTR __imp_??4?$CStringT@DV?$StrTraitMFC_DLL@DV?$ChTraitsCRT@D@ATL@@@@@ATL@@QAEAAV01@PBD@Z

; 1067 : 	strImageDir.Format("%s\\outbar_icon.bmp", m_pParentDlg->m_szImageDir);

  000fb	8b 83 bc 00 00
	00		 mov	 eax, DWORD PTR [ebx+188]
  00101	ff b0 ac 01 00
	00		 push	 DWORD PTR [eax+428]
  00107	8d 45 dc	 lea	 eax, DWORD PTR _strImageDir$[ebp]
  0010a	68 00 00 00 00	 push	 OFFSET ??_C@_0BD@OCOIJGGE@?$CFs?2outbar_icon?4bmp@
  0010f	50		 push	 eax
  00110	ff 15 00 00 00
	00		 call	 DWORD PTR __imp_?Format@?$CStringT@DV?$StrTraitMFC_DLL@DV?$ChTraitsCRT@D@ATL@@@@@ATL@@QAAXPBDZZ
  00116	83 c4 0c	 add	 esp, 12			; 0000000cH

; 1068 : 	bitmap.Attach((HBITMAP)LoadImage(NULL, (LPSTR)(LPCTSTR)strImageDir, IMAGE_BITMAP, 0, 0, LR_LOADFROMFILE|LR_CREATEDIBSECTION|LR_DEFAULTSIZE));

  00119	68 50 20 00 00	 push	 8272			; 00002050H
  0011e	6a 00		 push	 0
  00120	6a 00		 push	 0
  00122	6a 00		 push	 0
  00124	ff 75 dc	 push	 DWORD PTR _strImageDir$[ebp]
  00127	6a 00		 push	 0
  00129	ff d7		 call	 edi
  0012b	50		 push	 eax
  0012c	8d 4d d4	 lea	 ecx, DWORD PTR _bitmap$[ebp]
  0012f	e8 00 00 00 00	 call	 ?Attach@CGdiObject@@QAEHPAX@Z ; CGdiObject::Attach

; 1069 : 	m_ImageOutbarIcon.Create(20, 20, ILC_MASK | ILC_COLORDDB, 1, 1);

  00134	6a 01		 push	 1
  00136	6a 01		 push	 1
  00138	68 ff 00 00 00	 push	 255			; 000000ffH
  0013d	6a 14		 push	 20			; 00000014H
  0013f	8d bb cc 07 00
	00		 lea	 edi, DWORD PTR [ebx+1996]
  00145	6a 14		 push	 20			; 00000014H
  00147	8b cf		 mov	 ecx, edi
  00149	e8 00 00 00 00	 call	 ?Create@CImageList@@QAEHHHIHH@Z ; CImageList::Create
; File C:\Program Files (x86)\Microsoft Visual Studio\2019\Community\VC\Tools\MSVC\14.29.30133\atlmfc\include\afxwin1.inl

; 859  : 	{ ASSERT(m_hImageList != NULL); return ImageList_AddMasked(m_hImageList, (HBITMAP)pbmImage->GetSafeHandle(), crMask); }

  0014e	68 ff 00 ff 00	 push	 16711935		; 00ff00ffH
  00153	ff 75 d8	 push	 DWORD PTR _bitmap$[ebp+4]
  00156	ff b3 d0 07 00
	00		 push	 DWORD PTR [ebx+2000]
  0015c	ff d6		 call	 esi
; File D:\git\src\IBK\IBK_DRFN\ProjSrc\SrcDrfn\Chart\MULTICHART\TabSystemTradingEx.cpp

; 1071 : 	bitmap.DeleteObject();

  0015e	8d 4d d4	 lea	 ecx, DWORD PTR _bitmap$[ebp]
  00161	e8 00 00 00 00	 call	 ?DeleteObject@CGdiObject@@QAEHXZ ; CGdiObject::DeleteObject

; 1072 : 
; 1073 : 	typedef	LONG (FnSCW_IGfxOutBarCtrl)(int nType, long dwValue, long dwReserved1);
; 1074 : 	if(!m_hSTConfigureWizardInst)

  00166	8b 83 ec 07 00
	00		 mov	 eax, DWORD PTR [ebx+2028]
  0016c	85 c0		 test	 eax, eax
  0016e	75 54		 jne	 SHORT $LN67@LoadOutloo

; 1075 : 	{
; 1076 : 		CString szDllName;

  00170	8d 4d d0	 lea	 ecx, DWORD PTR _szDllName$2[ebp]
  00173	ff 15 00 00 00
	00		 call	 DWORD PTR __imp_??0?$CStringT@DV?$StrTraitMFC_DLL@DV?$ChTraitsCRT@D@ATL@@@@@ATL@@QAE@XZ

; 1077 : 		szDllName.Format("%s%s", m_szRootDir, "\\dev\\HWStrategyConfigureWizard.dll");

  00179	68 00 00 00 00	 push	 OFFSET ??_C@_0CD@HGNBEHEC@?2dev?2HWStrategyConfigureWizard?4@
  0017e	ff b3 1c 08 00
	00		 push	 DWORD PTR [ebx+2076]
  00184	8d 45 d0	 lea	 eax, DWORD PTR _szDllName$2[ebp]
  00187	c6 45 fc 02	 mov	 BYTE PTR __$EHRec$[ebp+8], 2
  0018b	68 00 00 00 00	 push	 OFFSET ??_C@_04HDOCAJNK@?$CFs?$CFs@
  00190	50		 push	 eax
  00191	ff 15 00 00 00
	00		 call	 DWORD PTR __imp_?Format@?$CStringT@DV?$StrTraitMFC_DLL@DV?$ChTraitsCRT@D@ATL@@@@@ATL@@QAAXPBDZZ
  00197	83 c4 10	 add	 esp, 16			; 00000010H

; 1078 : 		m_hSTConfigureWizardInst  = LoadLibrary(szDllName);

  0019a	ff 75 d0	 push	 DWORD PTR _szDllName$2[ebp]
  0019d	ff 15 00 00 00
	00		 call	 DWORD PTR __imp__LoadLibraryA@4

; 1079 : 	}

  001a3	8d 4d d0	 lea	 ecx, DWORD PTR _szDllName$2[ebp]
  001a6	89 83 ec 07 00
	00		 mov	 DWORD PTR [ebx+2028], eax
  001ac	c6 45 fc 01	 mov	 BYTE PTR __$EHRec$[ebp+8], 1
  001b0	ff 15 00 00 00
	00		 call	 DWORD PTR __imp_??1?$CStringT@DV?$StrTraitMFC_DLL@DV?$ChTraitsCRT@D@ATL@@@@@ATL@@QAE@XZ
  001b6	8b 83 ec 07 00
	00		 mov	 eax, DWORD PTR [ebx+2028]

; 1080 : 	if(!m_hSTConfigureWizardInst) return;

  001bc	85 c0		 test	 eax, eax
  001be	0f 84 c5 00 00
	00		 je	 $LN10@LoadOutloo
$LN67@LoadOutloo:

; 1081 : 
; 1082 : 
; 1083 : 	FnSCW_IGfxOutBarCtrl* pFunc = (FnSCW_IGfxOutBarCtrl*)GetProcAddress(m_hSTConfigureWizardInst,_T("SCW_IGfxOutBarCtrl"));

  001c4	68 00 00 00 00	 push	 OFFSET ??_C@_0BD@CNEELEMP@SCW_IGfxOutBarCtrl@
  001c9	50		 push	 eax
  001ca	ff 15 00 00 00
	00		 call	 DWORD PTR __imp__GetProcAddress@8

; 1084 : 	if(pFunc == NULL) return ;

  001d0	85 c0		 test	 eax, eax
  001d2	0f 84 b1 00 00
	00		 je	 $LN10@LoadOutloo

; 1085 : 
; 1086 : 	m_pWndOutBar = (IGfxOutBarCtrl*)pFunc(0, 0, 0);

  001d8	6a 00		 push	 0
  001da	6a 00		 push	 0
  001dc	6a 00		 push	 0
  001de	ff d0		 call	 eax
  001e0	83 c4 0c	 add	 esp, 12			; 0000000cH
  001e3	89 83 18 08 00
	00		 mov	 DWORD PTR [ebx+2072], eax

; 1087 : 
; 1088 : 	m_pWndOutBar->CreateOutBar(WS_CHILD|WS_VISIBLE, rc2, this, IDC_OUTLOOKBAR, dwf);

  001e9	8d 55 e0	 lea	 edx, DWORD PTR _rc2$[ebp]
  001ec	8b 08		 mov	 ecx, DWORD PTR [eax]
  001ee	68 fc 03 00 00	 push	 1020			; 000003fcH
  001f3	68 e8 03 00 00	 push	 1000			; 000003e8H
  001f8	53		 push	 ebx
  001f9	52		 push	 edx
  001fa	68 00 00 00 50	 push	 1342177280		; 50000000H
  001ff	50		 push	 eax
  00200	ff 51 04	 call	 DWORD PTR [ecx+4]

; 1089 : 	m_pWndOutBar->Setcr3dFace(RGB(191,211,233));

  00203	8b 83 18 08 00
	00		 mov	 eax, DWORD PTR [ebx+2072]
  00209	68 bf d3 e9 00	 push	 15324095		; 00e9d3bfH
  0020e	50		 push	 eax
  0020f	8b 08		 mov	 ecx, DWORD PTR [eax]
  00211	ff 51 08	 call	 DWORD PTR [ecx+8]

; 1090 : 	m_pWndOutBar->Setcr3dUnFace((COLORREF)m_pMultiChartWnd->SendMessage(RMSG_GET_SKINCOLOR, (WPARAM)0));

  00214	8b 83 c0 00 00
	00		 mov	 eax, DWORD PTR [ebx+192]
; File C:\Program Files (x86)\Microsoft Visual Studio\2019\Community\VC\Tools\MSVC\14.29.30133\atlmfc\include\afxwin2.inl

; 32   : 	{ ASSERT(::IsWindow(m_hWnd)); return ::SendMessage(m_hWnd, message, wParam, lParam); }

  0021a	6a 00		 push	 0
  0021c	6a 00		 push	 0
  0021e	ff 35 00 00 00
	00		 push	 DWORD PTR ?RMSG_GET_SKINCOLOR@@3IB
  00224	ff 70 20	 push	 DWORD PTR [eax+32]
  00227	ff 15 00 00 00
	00		 call	 DWORD PTR __imp__SendMessageA@16
; File D:\git\src\IBK\IBK_DRFN\ProjSrc\SrcDrfn\Chart\MULTICHART\TabSystemTradingEx.cpp

; 1090 : 	m_pWndOutBar->Setcr3dUnFace((COLORREF)m_pMultiChartWnd->SendMessage(RMSG_GET_SKINCOLOR, (WPARAM)0));

  0022d	8b 8b 18 08 00
	00		 mov	 ecx, DWORD PTR [ebx+2072]
  00233	50		 push	 eax
  00234	51		 push	 ecx
  00235	8b 11		 mov	 edx, DWORD PTR [ecx]
  00237	ff 52 0c	 call	 DWORD PTR [edx+12]

; 1091 : 	//m_wndOutBar.cr3dUnFace = RGB(239,242,247);
; 1092 : 	m_pWndOutBar->GetCoutBarCtrl()->SetOwner(this);

  0023a	8b 83 18 08 00
	00		 mov	 eax, DWORD PTR [ebx+2072]
  00240	50		 push	 eax
  00241	8b 08		 mov	 ecx, DWORD PTR [eax]
  00243	ff 11		 call	 DWORD PTR [ecx]
; File C:\Program Files (x86)\Microsoft Visual Studio\2019\Community\VC\Tools\MSVC\14.29.30133\atlmfc\include\afxwin2.inl

; 29   : 	{ m_hWndOwner = pOwnerWnd != NULL ? pOwnerWnd->m_hWnd : NULL; }

  00245	8b 4b 20	 mov	 ecx, DWORD PTR [ebx+32]
; File D:\git\src\IBK\IBK_DRFN\ProjSrc\SrcDrfn\Chart\MULTICHART\TabSystemTradingEx.cpp

; 1098 : 	m_pWndOutBar->SetFolderImageList(&m_ImageOutbarIcon, 0, 1, 3);

  00248	6a 03		 push	 3
  0024a	6a 01		 push	 1
; File C:\Program Files (x86)\Microsoft Visual Studio\2019\Community\VC\Tools\MSVC\14.29.30133\atlmfc\include\afxwin2.inl

; 29   : 	{ m_hWndOwner = pOwnerWnd != NULL ? pOwnerWnd->m_hWnd : NULL; }

  0024c	89 48 5c	 mov	 DWORD PTR [eax+92], ecx
; File D:\git\src\IBK\IBK_DRFN\ProjSrc\SrcDrfn\Chart\MULTICHART\TabSystemTradingEx.cpp

; 1098 : 	m_pWndOutBar->SetFolderImageList(&m_ImageOutbarIcon, 0, 1, 3);

  0024f	8b 83 18 08 00
	00		 mov	 eax, DWORD PTR [ebx+2072]
  00255	6a 00		 push	 0
  00257	57		 push	 edi
  00258	50		 push	 eax
  00259	8b 08		 mov	 ecx, DWORD PTR [eax]
  0025b	ff 51 14	 call	 DWORD PTR [ecx+20]

; 1099 : 	m_pWndOutBar->SetImageList(&m_ImageListIcon, nfSmallIcon);

  0025e	8b 83 18 08 00
	00		 mov	 eax, DWORD PTR [ebx+2072]
  00264	8d 8b c4 07 00
	00		 lea	 ecx, DWORD PTR [ebx+1988]
  0026a	6a 01		 push	 1
  0026c	51		 push	 ecx
  0026d	50		 push	 eax
  0026e	8b 10		 mov	 edx, DWORD PTR [eax]
  00270	ff 52 10	 call	 DWORD PTR [edx+16]
; File C:\Program Files (x86)\Microsoft Visual Studio\2019\Community\VC\Tools\MSVC\14.29.30133\atlmfc\include\afxcoll.inl

; 286  : 	{ SetSize(0); }

  00273	6a ff		 push	 -1
  00275	6a 00		 push	 0
; File D:\git\src\IBK\IBK_DRFN\ProjSrc\SrcDrfn\Chart\MULTICHART\TabSystemTradingEx.cpp

; 1103 : 	m_arSTPath.RemoveAll();

  00277	8d 8b d4 07 00
	00		 lea	 ecx, DWORD PTR [ebx+2004]
; File C:\Program Files (x86)\Microsoft Visual Studio\2019\Community\VC\Tools\MSVC\14.29.30133\atlmfc\include\afxcoll.inl

; 286  : 	{ SetSize(0); }

  0027d	e8 00 00 00 00	 call	 ?SetSize@CStringArray@@QAEXHH@Z ; CStringArray::SetSize
; File D:\git\src\IBK\IBK_DRFN\ProjSrc\SrcDrfn\Chart\MULTICHART\TabSystemTradingEx.cpp

; 1104 : 	LoadSTList();

  00282	8b cb		 mov	 ecx, ebx
  00284	e8 00 00 00 00	 call	 ?LoadSTList@CTabSystemTradingEx@@QAEXXZ ; CTabSystemTradingEx::LoadSTList
$LN10@LoadOutloo:

; 1105 : }

  00289	8d 4d dc	 lea	 ecx, DWORD PTR _strImageDir$[ebp]
  0028c	ff 15 00 00 00
	00		 call	 DWORD PTR __imp_??1?$CStringT@DV?$StrTraitMFC_DLL@DV?$ChTraitsCRT@D@ATL@@@@@ATL@@QAE@XZ
; File C:\Program Files (x86)\Microsoft Visual Studio\2019\Community\VC\Tools\MSVC\14.29.30133\atlmfc\include\afxwin1.inl

; 179  : 	{ }

  00292	8d 4d d4	 lea	 ecx, DWORD PTR _bitmap$[ebp]
  00295	c7 45 d4 00 00
	00 00		 mov	 DWORD PTR _bitmap$[ebp], OFFSET ??_7CBitmap@@6B@
  0029c	e8 00 00 00 00	 call	 ??1CGdiObject@@UAE@XZ	; CGdiObject::~CGdiObject
; File D:\git\src\IBK\IBK_DRFN\ProjSrc\SrcDrfn\Chart\MULTICHART\TabSystemTradingEx.cpp

; 1105 : }

  002a1	8b 4d f4	 mov	 ecx, DWORD PTR __$EHRec$[ebp]
  002a4	64 89 0d 00 00
	00 00		 mov	 DWORD PTR fs:0, ecx
  002ab	59		 pop	 ecx
  002ac	5f		 pop	 edi
  002ad	5e		 pop	 esi
  002ae	5b		 pop	 ebx
  002af	8b 4d f0	 mov	 ecx, DWORD PTR __$ArrayPad$[ebp]
  002b2	33 cd		 xor	 ecx, ebp
  002b4	e8 00 00 00 00	 call	 @__security_check_cookie@4
  002b9	8b e5		 mov	 esp, ebp
  002bb	5d		 pop	 ebp
  002bc	c3		 ret	 0
_TEXT	ENDS
;	COMDAT text$x
text$x	SEGMENT
__unwindfunclet$?LoadOutlookBar@CTabSystemTradingEx@@QAEXXZ$0:
  00000	8d 4d d4	 lea	 ecx, DWORD PTR _bitmap$[ebp]
  00003	e9 00 00 00 00	 jmp	 ??1CBitmap@@UAE@XZ	; CBitmap::~CBitmap
__unwindfunclet$?LoadOutlookBar@CTabSystemTradingEx@@QAEXXZ$1:
  00008	8d 4d dc	 lea	 ecx, DWORD PTR _strImageDir$[ebp]
  0000b	ff 25 00 00 00
	00		 jmp	 DWORD PTR __imp_??1?$CStringT@DV?$StrTraitMFC_DLL@DV?$ChTraitsCRT@D@ATL@@@@@ATL@@QAE@XZ
__unwindfunclet$?LoadOutlookBar@CTabSystemTradingEx@@QAEXXZ$2:
  00011	8d 4d d0	 lea	 ecx, DWORD PTR _szDllName$2[ebp]
  00014	ff 25 00 00 00
	00		 jmp	 DWORD PTR __imp_??1?$CStringT@DV?$StrTraitMFC_DLL@DV?$ChTraitsCRT@D@ATL@@@@@ATL@@QAE@XZ
  0001a	cc		 int	 3
  0001b	cc		 int	 3
  0001c	cc		 int	 3
  0001d	cc		 int	 3
  0001e	cc		 int	 3
__ehhandler$?LoadOutlookBar@CTabSystemTradingEx@@QAEXXZ:
  0001f	90		 npad	 1
  00020	90		 npad	 1
  00021	8b 54 24 08	 mov	 edx, DWORD PTR [esp+8]
  00025	8d 42 0c	 lea	 eax, DWORD PTR [edx+12]
  00028	8b 4a cc	 mov	 ecx, DWORD PTR [edx-52]
  0002b	33 c8		 xor	 ecx, eax
  0002d	e8 00 00 00 00	 call	 @__security_check_cookie@4
  00032	8b 4a fc	 mov	 ecx, DWORD PTR [edx-4]
  00035	33 c8		 xor	 ecx, eax
  00037	e8 00 00 00 00	 call	 @__security_check_cookie@4
  0003c	b8 00 00 00 00	 mov	 eax, OFFSET __ehfuncinfo$?LoadOutlookBar@CTabSystemTradingEx@@QAEXXZ
  00041	e9 00 00 00 00	 jmp	 ___CxxFrameHandler3
text$x	ENDS
?LoadOutlookBar@CTabSystemTradingEx@@QAEXXZ ENDP	; CTabSystemTradingEx::LoadOutlookBar
; Function compile flags: /Ogtp
; File D:\git\src\IBK\IBK_DRFN\ProjSrc\SrcDrfn\Chart\MULTICHART\TabSystemTradingEx.cpp
; File C:\Program Files (x86)\Microsoft Visual Studio\2019\Community\VC\Tools\MSVC\14.29.30133\atlmfc\include\afxwin2.inl
; File D:\git\src\IBK\IBK_DRFN\ProjSrc\SrcDrfn\Chart\MULTICHART\TabSystemTradingEx.cpp
; File C:\Program Files (x86)\Microsoft Visual Studio\2019\Community\VC\Tools\MSVC\14.29.30133\atlmfc\include\afxwin2.inl
; File D:\git\src\IBK\IBK_DRFN\ProjSrc\SrcDrfn\Chart\MULTICHART\TabSystemTradingEx.cpp
; File C:\Program Files (x86)\Microsoft Visual Studio\2019\Community\VC\Tools\MSVC\14.29.30133\atlmfc\include\afxwin1.inl
; File D:\git\src\IBK\IBK_DRFN\ProjSrc\SrcDrfn\Chart\MULTICHART\TabSystemTradingEx.cpp
; File C:\Program Files (x86)\Microsoft Visual Studio\2019\Community\VC\Tools\MSVC\14.29.30133\atlmfc\include\afxwin2.inl
; File D:\git\src\IBK\IBK_DRFN\ProjSrc\SrcDrfn\Chart\MULTICHART\TabSystemTradingEx.cpp
; File C:\Program Files (x86)\Microsoft Visual Studio\2019\Community\VC\Tools\MSVC\14.29.30133\atlmfc\include\afxwin2.inl
; File D:\git\src\IBK\IBK_DRFN\ProjSrc\SrcDrfn\Chart\MULTICHART\TabSystemTradingEx.cpp
; File C:\Program Files (x86)\Microsoft Visual Studio\2019\Community\VC\Tools\MSVC\14.29.30133\atlmfc\include\afxwin2.inl
; File D:\git\src\IBK\IBK_DRFN\ProjSrc\SrcDrfn\Chart\MULTICHART\TabSystemTradingEx.cpp
; File C:\Program Files (x86)\Microsoft Visual Studio\2019\Community\VC\Tools\MSVC\14.29.30133\atlmfc\include\afxwin2.inl
; File D:\git\src\IBK\IBK_DRFN\ProjSrc\SrcDrfn\Chart\MULTICHART\TabSystemTradingEx.cpp
;	COMDAT ?ChangeSkinColor@CTabSystemTradingEx@@UAEXK@Z
_TEXT	SEGMENT
_OLColor$ = -16						; size = 12
__$ArrayPad$ = -4					; size = 4
_clrBkgrnd$ = 8						; size = 4
?ChangeSkinColor@CTabSystemTradingEx@@UAEXK@Z PROC	; CTabSystemTradingEx::ChangeSkinColor, COMDAT
; _this$ = ecx

; 1981 : {

  00000	55		 push	 ebp
  00001	8b ec		 mov	 ebp, esp
  00003	83 ec 10	 sub	 esp, 16			; 00000010H
  00006	a1 00 00 00 00	 mov	 eax, DWORD PTR ___security_cookie
  0000b	33 c5		 xor	 eax, ebp
  0000d	89 45 fc	 mov	 DWORD PTR __$ArrayPad$[ebp], eax
  00010	53		 push	 ebx
  00011	56		 push	 esi
  00012	8b d9		 mov	 ebx, ecx
; File C:\Program Files (x86)\Microsoft Visual Studio\2019\Community\VC\Tools\MSVC\14.29.30133\atlmfc\include\afxwin2.inl

; 32   : 	{ ASSERT(::IsWindow(m_hWnd)); return ::SendMessage(m_hWnd, message, wParam, lParam); }

  00014	6a 00		 push	 0
  00016	6a 00		 push	 0
  00018	ff 35 00 00 00
	00		 push	 DWORD PTR ?RMSG_GET_SKINCOLOR@@3IB
; File D:\git\src\IBK\IBK_DRFN\ProjSrc\SrcDrfn\Chart\MULTICHART\TabSystemTradingEx.cpp

; 1982 : 	m_crBk = (COLORREF)m_pMultiChartWnd->SendMessage(RMSG_GET_SKINCOLOR, (WPARAM)0);

  0001e	8b 83 c0 00 00
	00		 mov	 eax, DWORD PTR [ebx+192]
; File C:\Program Files (x86)\Microsoft Visual Studio\2019\Community\VC\Tools\MSVC\14.29.30133\atlmfc\include\afxwin2.inl

; 32   : 	{ ASSERT(::IsWindow(m_hWnd)); return ::SendMessage(m_hWnd, message, wParam, lParam); }

  00024	ff 70 20	 push	 DWORD PTR [eax+32]
  00027	ff 15 00 00 00
	00		 call	 DWORD PTR __imp__SendMessageA@16
; File D:\git\src\IBK\IBK_DRFN\ProjSrc\SrcDrfn\Chart\MULTICHART\TabSystemTradingEx.cpp

; 1983 : 	m_brBkColor.DeleteObject();

  0002d	8d 8b c8 00 00
	00		 lea	 ecx, DWORD PTR [ebx+200]
  00033	89 83 d0 00 00
	00		 mov	 DWORD PTR [ebx+208], eax
  00039	e8 00 00 00 00	 call	 ?DeleteObject@CGdiObject@@QAEHXZ ; CGdiObject::DeleteObject
; File C:\Program Files (x86)\Microsoft Visual Studio\2019\Community\VC\Tools\MSVC\14.29.30133\atlmfc\include\afxwin1.inl

; 132  : 	{ return Attach(::CreateSolidBrush(crColor)); }

  0003e	ff b3 d0 00 00
	00		 push	 DWORD PTR [ebx+208]
  00044	ff 15 00 00 00
	00		 call	 DWORD PTR __imp__CreateSolidBrush@4
  0004a	50		 push	 eax
  0004b	8d 8b c8 00 00
	00		 lea	 ecx, DWORD PTR [ebx+200]
  00051	e8 00 00 00 00	 call	 ?Attach@CGdiObject@@QAEHPAX@Z ; CGdiObject::Attach
; File D:\git\src\IBK\IBK_DRFN\ProjSrc\SrcDrfn\Chart\MULTICHART\TabSystemTradingEx.cpp

; 1987 : 	if(m_pMultiChartWnd->SendMessage(RMSG_GET_SKINCOLOR, (WPARAM)2, (LPARAM)&OLColor))

  00056	8b 83 c0 00 00
	00		 mov	 eax, DWORD PTR [ebx+192]
; File C:\Program Files (x86)\Microsoft Visual Studio\2019\Community\VC\Tools\MSVC\14.29.30133\atlmfc\include\afxwin2.inl

; 32   : 	{ ASSERT(::IsWindow(m_hWnd)); return ::SendMessage(m_hWnd, message, wParam, lParam); }

  0005c	8d 4d f0	 lea	 ecx, DWORD PTR _OLColor$[ebp]
  0005f	51		 push	 ecx
  00060	6a 02		 push	 2
  00062	ff 35 00 00 00
	00		 push	 DWORD PTR ?RMSG_GET_SKINCOLOR@@3IB
  00068	ff 70 20	 push	 DWORD PTR [eax+32]
  0006b	ff 15 00 00 00
	00		 call	 DWORD PTR __imp__SendMessageA@16
; File D:\git\src\IBK\IBK_DRFN\ProjSrc\SrcDrfn\Chart\MULTICHART\TabSystemTradingEx.cpp

; 1987 : 	if(m_pMultiChartWnd->SendMessage(RMSG_GET_SKINCOLOR, (WPARAM)2, (LPARAM)&OLColor))

  00071	85 c0		 test	 eax, eax
  00073	74 22		 je	 SHORT $LN3@ChangeSkin

; 1988 : 	{
; 1989 : 		if(m_pWndOutBar)

  00075	8b 8b 18 08 00
	00		 mov	 ecx, DWORD PTR [ebx+2072]
  0007b	85 c9		 test	 ecx, ecx
  0007d	74 18		 je	 SHORT $LN3@ChangeSkin

; 1990 : 		{
; 1991 : 			m_pWndOutBar->Setcr3dFace(OLColor.clrOLOutLine);

  0007f	ff 75 f4	 push	 DWORD PTR _OLColor$[ebp+4]
  00082	8b 01		 mov	 eax, DWORD PTR [ecx]
  00084	51		 push	 ecx
  00085	ff 50 08	 call	 DWORD PTR [eax+8]

; 1992 : 			m_pWndOutBar->Setcr3dUnFace(OLColor.clrOLBkgrnd);

  00088	8b 83 18 08 00
	00		 mov	 eax, DWORD PTR [ebx+2072]
  0008e	ff 75 f0	 push	 DWORD PTR _OLColor$[ebp]
  00091	50		 push	 eax
  00092	8b 08		 mov	 ecx, DWORD PTR [eax]
  00094	ff 51 0c	 call	 DWORD PTR [ecx+12]
$LN3@ChangeSkin:
; File C:\Program Files (x86)\Microsoft Visual Studio\2019\Community\VC\Tools\MSVC\14.29.30133\atlmfc\include\afxwin2.inl

; 114  : 	{ ASSERT(::IsWindow(m_hWnd)); ::InvalidateRect(m_hWnd, NULL, bErase); }

  00097	6a 01		 push	 1
  00099	6a 00		 push	 0
  0009b	ff 73 20	 push	 DWORD PTR [ebx+32]
  0009e	ff 15 00 00 00
	00		 call	 DWORD PTR __imp__InvalidateRect@12
; File D:\git\src\IBK\IBK_DRFN\ProjSrc\SrcDrfn\Chart\MULTICHART\TabSystemTradingEx.cpp

; 1998 : }

  000a4	8b 4d fc	 mov	 ecx, DWORD PTR __$ArrayPad$[ebp]
; File C:\Program Files (x86)\Microsoft Visual Studio\2019\Community\VC\Tools\MSVC\14.29.30133\atlmfc\include\afxwin2.inl

; 114  : 	{ ASSERT(::IsWindow(m_hWnd)); ::InvalidateRect(m_hWnd, NULL, bErase); }

  000a7	5e		 pop	 esi
; File D:\git\src\IBK\IBK_DRFN\ProjSrc\SrcDrfn\Chart\MULTICHART\TabSystemTradingEx.cpp

; 1998 : }

  000a8	33 cd		 xor	 ecx, ebp
; File C:\Program Files (x86)\Microsoft Visual Studio\2019\Community\VC\Tools\MSVC\14.29.30133\atlmfc\include\afxwin2.inl

; 114  : 	{ ASSERT(::IsWindow(m_hWnd)); ::InvalidateRect(m_hWnd, NULL, bErase); }

  000aa	5b		 pop	 ebx
; File D:\git\src\IBK\IBK_DRFN\ProjSrc\SrcDrfn\Chart\MULTICHART\TabSystemTradingEx.cpp

; 1998 : }

  000ab	e8 00 00 00 00	 call	 @__security_check_cookie@4
  000b0	8b e5		 mov	 esp, ebp
  000b2	5d		 pop	 ebp
  000b3	c2 04 00	 ret	 4
?ChangeSkinColor@CTabSystemTradingEx@@UAEXK@Z ENDP	; CTabSystemTradingEx::ChangeSkinColor
_TEXT	ENDS
; Function compile flags: /Ogtp
; File D:\git\src\IBK\IBK_DRFN\ProjSrc\SrcDrfn\Chart\MULTICHART\TabSystemTradingEx.cpp
;	COMDAT ?UnLoadSTList@CTabSystemTradingEx@@QAEXXZ
_TEXT	SEGMENT
?UnLoadSTList@CTabSystemTradingEx@@QAEXXZ PROC		; CTabSystemTradingEx::UnLoadSTList, COMDAT
; _this$ = ecx

; 1151 : {

  00000	56		 push	 esi
  00001	8b f1		 mov	 esi, ecx

; 1152 : 	if(!m_pSTLoadMnger) return;

  00003	83 be e8 07 00
	00 00		 cmp	 DWORD PTR [esi+2024], 0
  0000a	74 3b		 je	 SHORT $LN5@UnLoadSTLi

; 1153 : 
; 1154 : 	typedef	void (FPSCW_DeleteInterfaceOfStrategy)(LONG dwKey, LONG dwType);
; 1155 : 	if(m_hSTConfigureWizardInst == NULL) return;

  0000c	8b 86 ec 07 00
	00		 mov	 eax, DWORD PTR [esi+2028]
  00012	85 c0		 test	 eax, eax
  00014	74 31		 je	 SHORT $LN5@UnLoadSTLi

; 1156 : 
; 1157 : 	FPSCW_DeleteInterfaceOfStrategy* pFunc = (FPSCW_DeleteInterfaceOfStrategy*)GetProcAddress(m_hSTConfigureWizardInst,_T("SCW_DeleteInterfaceOfStrategy"));

  00016	57		 push	 edi
  00017	68 00 00 00 00	 push	 OFFSET ??_C@_0BO@CPKKMKKO@SCW_DeleteInterfaceOfStrategy@
  0001c	50		 push	 eax
  0001d	ff 15 00 00 00
	00		 call	 DWORD PTR __imp__GetProcAddress@8
  00023	8b f8		 mov	 edi, eax

; 1158 : 	if(pFunc == NULL) return ;

  00025	85 ff		 test	 edi, edi
  00027	74 1d		 je	 SHORT $LN7@UnLoadSTLi

; 1159 : 
; 1160 : 	LONG dwType = 0;	//CSTLoadManager*
; 1161 : 	if(m_pSTLoadMnger)

  00029	8b 96 e8 07 00
	00		 mov	 edx, DWORD PTR [esi+2024]
  0002f	85 d2		 test	 edx, edx
  00031	74 13		 je	 SHORT $LN7@UnLoadSTLi

; 1162 : 	{
; 1163 : 		m_pSTLoadMnger->UnloadST();

  00033	8b 0a		 mov	 ecx, DWORD PTR [edx]
  00035	52		 push	 edx
  00036	ff 51 08	 call	 DWORD PTR [ecx+8]

; 1164 : 		pFunc((LONG)m_pSTLoadMnger, dwType);

  00039	6a 00		 push	 0
  0003b	ff b6 e8 07 00
	00		 push	 DWORD PTR [esi+2024]
  00041	ff d7		 call	 edi
  00043	83 c4 08	 add	 esp, 8
$LN7@UnLoadSTLi:
  00046	5f		 pop	 edi
$LN5@UnLoadSTLi:
  00047	5e		 pop	 esi

; 1165 : 	}	
; 1166 : }

  00048	c3		 ret	 0
?UnLoadSTList@CTabSystemTradingEx@@QAEXXZ ENDP		; CTabSystemTradingEx::UnLoadSTList
_TEXT	ENDS
; Function compile flags: /Ogtp
; File D:\git\src\IBK\IBK_DRFN\ProjSrc\SrcDrfn\Chart\MULTICHART\TabSystemTradingEx.cpp
; File C:\Program Files (x86)\Microsoft Visual Studio\2019\Community\VC\Tools\MSVC\14.29.30133\atlmfc\include\afxwin2.inl
; File D:\git\src\IBK\IBK_DRFN\ProjSrc\SrcDrfn\Chart\MULTICHART\TabSystemTradingEx.cpp
;	COMDAT ?LoadTradeAup@CTabSystemTradingEx@@QAEPAVCWnd@@V?$CStringT@DV?$StrTraitMFC_DLL@DV?$ChTraitsCRT@D@ATL@@@@@ATL@@PAV2@@Z
_TEXT	SEGMENT
_strTradingName$ = -16					; size = 4
__$EHRec$ = -12						; size = 12
_strFile$ = 8						; size = 4
_strError$2 = 12					; size = 4
_pParent$ = 12						; size = 4
?LoadTradeAup@CTabSystemTradingEx@@QAEPAVCWnd@@V?$CStringT@DV?$StrTraitMFC_DLL@DV?$ChTraitsCRT@D@ATL@@@@@ATL@@PAV2@@Z PROC ; CTabSystemTradingEx::LoadTradeAup, COMDAT
; _this$ = ecx

; 600  : {

  00000	55		 push	 ebp
  00001	8b ec		 mov	 ebp, esp
  00003	6a ff		 push	 -1
  00005	68 00 00 00 00	 push	 __ehhandler$?LoadTradeAup@CTabSystemTradingEx@@QAEPAVCWnd@@V?$CStringT@DV?$StrTraitMFC_DLL@DV?$ChTraitsCRT@D@ATL@@@@@ATL@@PAV2@@Z
  0000a	64 a1 00 00 00
	00		 mov	 eax, DWORD PTR fs:0
  00010	50		 push	 eax
  00011	51		 push	 ecx
  00012	53		 push	 ebx
  00013	56		 push	 esi
  00014	57		 push	 edi
  00015	a1 00 00 00 00	 mov	 eax, DWORD PTR ___security_cookie
  0001a	33 c5		 xor	 eax, ebp
  0001c	50		 push	 eax
  0001d	8d 45 f4	 lea	 eax, DWORD PTR __$EHRec$[ebp]
  00020	64 a3 00 00 00
	00		 mov	 DWORD PTR fs:0, eax
  00026	8b f9		 mov	 edi, ecx

; 601  : 	CString strTradingName = strFile + ".dll";

  00028	68 00 00 00 00	 push	 OFFSET ??_C@_04HLONOPDM@?4dll@
  0002d	8d 45 08	 lea	 eax, DWORD PTR _strFile$[ebp]
  00030	c7 45 fc 00 00
	00 00		 mov	 DWORD PTR __$EHRec$[ebp+8], 0
  00037	50		 push	 eax
  00038	8d 45 f0	 lea	 eax, DWORD PTR _strTradingName$[ebp]
  0003b	50		 push	 eax
  0003c	e8 00 00 00 00	 call	 ??HATL@@YA?AV?$CStringT@DV?$StrTraitMFC_DLL@DV?$ChTraitsCRT@D@ATL@@@@@0@ABV10@PBD@Z ; ATL::operator+
  00041	83 c4 0c	 add	 esp, 12			; 0000000cH

; 602  : 
; 603  : 	HINSTANCE hTradeInst = LoadLibrary(strTradingName);

  00044	ff 75 f0	 push	 DWORD PTR _strTradingName$[ebp]
  00047	c6 45 fc 01	 mov	 BYTE PTR __$EHRec$[ebp+8], 1
  0004b	ff 15 00 00 00
	00		 call	 DWORD PTR __imp__LoadLibraryA@4
  00051	8b f0		 mov	 esi, eax

; 604  : 	if(hTradeInst == NULL)

  00053	85 f6		 test	 esi, esi
  00055	75 3b		 jne	 SHORT $LN2@LoadTradeA

; 605  : 	{
; 606  : 		CString strError;

  00057	8d 4d 0c	 lea	 ecx, DWORD PTR _strError$2[ebp]
  0005a	ff 15 00 00 00
	00		 call	 DWORD PTR __imp_??0?$CStringT@DV?$StrTraitMFC_DLL@DV?$ChTraitsCRT@D@ATL@@@@@ATL@@QAE@XZ

; 607  : 		strError.Format(_T("%s File Load Faile"),strTradingName);

  00060	ff 75 f0	 push	 DWORD PTR _strTradingName$[ebp]
  00063	8d 45 0c	 lea	 eax, DWORD PTR _strError$2[ebp]
  00066	c6 45 fc 02	 mov	 BYTE PTR __$EHRec$[ebp+8], 2
  0006a	68 00 00 00 00	 push	 OFFSET ??_C@_0BD@JKFCKDIB@?$CFs?5File?5Load?5Faile@
  0006f	50		 push	 eax
  00070	ff 15 00 00 00
	00		 call	 DWORD PTR __imp_?Format@?$CStringT@DV?$StrTraitMFC_DLL@DV?$ChTraitsCRT@D@ATL@@@@@ATL@@QAAXPBDZZ
  00076	83 c4 0c	 add	 esp, 12			; 0000000cH

; 608  : 		MessageBox(strError);

  00079	8b cf		 mov	 ecx, edi
  0007b	56		 push	 esi
  0007c	56		 push	 esi
  0007d	ff 75 0c	 push	 DWORD PTR _strError$2[ebp]
  00080	e8 00 00 00 00	 call	 ?MessageBoxA@CWnd@@QAEHPBD0I@Z ; CWnd::MessageBoxA

; 609  : 		return NULL;

  00085	8d 4d 0c	 lea	 ecx, DWORD PTR _strError$2[ebp]
  00088	ff 15 00 00 00
	00		 call	 DWORD PTR __imp_??1?$CStringT@DV?$StrTraitMFC_DLL@DV?$ChTraitsCRT@D@ATL@@@@@ATL@@QAE@XZ
  0008e	33 ff		 xor	 edi, edi
  00090	eb 5d		 jmp	 SHORT $LN11@LoadTradeA
$LN2@LoadTradeA:

; 610  : 	}
; 611  : 
; 612  : 	CreateTradingAupEx *pCreateTrading = (CreateTradingAupEx *)GetProcAddress(hTradeInst,_T("CREATE_TRADING_EX"));

  00092	68 00 00 00 00	 push	 OFFSET ??_C@_0BC@CJPOKCCI@CREATE_TRADING_EX@
  00097	56		 push	 esi
  00098	ff 15 00 00 00
	00		 call	 DWORD PTR __imp__GetProcAddress@8
  0009e	8b c8		 mov	 ecx, eax

; 613  : 	if(pCreateTrading == NULL)

  000a0	85 c9		 test	 ecx, ecx
  000a2	75 19		 jne	 SHORT $LN3@LoadTradeA

; 614  : 	{
; 615  : 		MessageBox("  ");

  000a4	50		 push	 eax
  000a5	50		 push	 eax
  000a6	68 00 00 00 00	 push	 OFFSET ??_C@_0BD@GPFJHOGC@?F?$KP?H?$KN?H?$KN?$LI?i?5?$LH?N?$LF?e?5?$LP?$KB?$LH?$KP@
  000ab	8b cf		 mov	 ecx, edi
  000ad	e8 00 00 00 00	 call	 ?MessageBoxA@CWnd@@QAEHPBD0I@Z ; CWnd::MessageBoxA

; 616  : 		FreeLibrary(hTradeInst);

  000b2	56		 push	 esi
  000b3	ff 15 00 00 00
	00		 call	 DWORD PTR __imp__FreeLibrary@4
  000b9	33 ff		 xor	 edi, edi
  000bb	eb 32		 jmp	 SHORT $LN11@LoadTradeA
$LN3@LoadTradeA:

; 617  : 		return NULL;
; 618  : 	}
; 619  : 
; 620  : 	CWnd *pTrade = pCreateTrading(0,pParent, &m_xSTInterface);

  000bd	8b 5d 0c	 mov	 ebx, DWORD PTR _pParent$[ebp]
  000c0	8d 87 70 09 00
	00		 lea	 eax, DWORD PTR [edi+2416]
  000c6	50		 push	 eax
  000c7	53		 push	 ebx
  000c8	6a 00		 push	 0
  000ca	ff d1		 call	 ecx
  000cc	8b f8		 mov	 edi, eax
  000ce	83 c4 0c	 add	 esp, 12			; 0000000cH

; 621  : 	
; 622  : 
; 623  : 	//////////////////////////////////////////////////////////////////////////
; 624  : 		
; 625  : 	if(pTrade != NULL)

  000d1	85 ff		 test	 edi, edi
  000d3	74 13		 je	 SHORT $LN4@LoadTradeA
; File C:\Program Files (x86)\Microsoft Visual Studio\2019\Community\VC\Tools\MSVC\14.29.30133\atlmfc\include\afxwin2.inl

; 32   : 	{ ASSERT(::IsWindow(m_hWnd)); return ::SendMessage(m_hWnd, message, wParam, lParam); }

  000d5	6a 00		 push	 0
  000d7	56		 push	 esi
  000d8	68 c8 0c 00 00	 push	 3272			; 00000cc8H
  000dd	ff 73 20	 push	 DWORD PTR [ebx+32]
  000e0	ff 15 00 00 00
	00		 call	 DWORD PTR __imp__SendMessageA@16
; File D:\git\src\IBK\IBK_DRFN\ProjSrc\SrcDrfn\Chart\MULTICHART\TabSystemTradingEx.cpp

; 628  : 	}

  000e6	eb 07		 jmp	 SHORT $LN11@LoadTradeA
$LN4@LoadTradeA:

; 629  : 	else
; 630  : 	{
; 631  : 		FreeLibrary(hTradeInst);

  000e8	56		 push	 esi
  000e9	ff 15 00 00 00
	00		 call	 DWORD PTR __imp__FreeLibrary@4
$LN11@LoadTradeA:

; 632  : 	}
; 633  : 	return pTrade;						

  000ef	8d 4d f0	 lea	 ecx, DWORD PTR _strTradingName$[ebp]
  000f2	ff 15 00 00 00
	00		 call	 DWORD PTR __imp_??1?$CStringT@DV?$StrTraitMFC_DLL@DV?$ChTraitsCRT@D@ATL@@@@@ATL@@QAE@XZ
  000f8	8d 4d 08	 lea	 ecx, DWORD PTR _strFile$[ebp]
  000fb	ff 15 00 00 00
	00		 call	 DWORD PTR __imp_??1?$CStringT@DV?$StrTraitMFC_DLL@DV?$ChTraitsCRT@D@ATL@@@@@ATL@@QAE@XZ
  00101	8b c7		 mov	 eax, edi

; 634  : }

  00103	8b 4d f4	 mov	 ecx, DWORD PTR __$EHRec$[ebp]
  00106	64 89 0d 00 00
	00 00		 mov	 DWORD PTR fs:0, ecx
  0010d	59		 pop	 ecx
  0010e	5f		 pop	 edi
  0010f	5e		 pop	 esi
  00110	5b		 pop	 ebx
  00111	8b e5		 mov	 esp, ebp
  00113	5d		 pop	 ebp
  00114	c2 08 00	 ret	 8
_TEXT	ENDS
;	COMDAT text$x
text$x	SEGMENT
__unwindfunclet$?LoadTradeAup@CTabSystemTradingEx@@QAEPAVCWnd@@V?$CStringT@DV?$StrTraitMFC_DLL@DV?$ChTraitsCRT@D@ATL@@@@@ATL@@PAV2@@Z$0:
  00000	8d 4d 08	 lea	 ecx, DWORD PTR _strFile$[ebp]
  00003	ff 25 00 00 00
	00		 jmp	 DWORD PTR __imp_??1?$CStringT@DV?$StrTraitMFC_DLL@DV?$ChTraitsCRT@D@ATL@@@@@ATL@@QAE@XZ
__unwindfunclet$?LoadTradeAup@CTabSystemTradingEx@@QAEPAVCWnd@@V?$CStringT@DV?$StrTraitMFC_DLL@DV?$ChTraitsCRT@D@ATL@@@@@ATL@@PAV2@@Z$1:
  00009	8d 4d f0	 lea	 ecx, DWORD PTR _strTradingName$[ebp]
  0000c	ff 25 00 00 00
	00		 jmp	 DWORD PTR __imp_??1?$CStringT@DV?$StrTraitMFC_DLL@DV?$ChTraitsCRT@D@ATL@@@@@ATL@@QAE@XZ
__unwindfunclet$?LoadTradeAup@CTabSystemTradingEx@@QAEPAVCWnd@@V?$CStringT@DV?$StrTraitMFC_DLL@DV?$ChTraitsCRT@D@ATL@@@@@ATL@@PAV2@@Z$2:
  00012	8d 4d 0c	 lea	 ecx, DWORD PTR _strError$2[ebp]
  00015	ff 25 00 00 00
	00		 jmp	 DWORD PTR __imp_??1?$CStringT@DV?$StrTraitMFC_DLL@DV?$ChTraitsCRT@D@ATL@@@@@ATL@@QAE@XZ
  0001b	cc		 int	 3
  0001c	cc		 int	 3
  0001d	cc		 int	 3
  0001e	cc		 int	 3
  0001f	cc		 int	 3
__ehhandler$?LoadTradeAup@CTabSystemTradingEx@@QAEPAVCWnd@@V?$CStringT@DV?$StrTraitMFC_DLL@DV?$ChTraitsCRT@D@ATL@@@@@ATL@@PAV2@@Z:
  00020	90		 npad	 1
  00021	90		 npad	 1
  00022	8b 54 24 08	 mov	 edx, DWORD PTR [esp+8]
  00026	8d 42 0c	 lea	 eax, DWORD PTR [edx+12]
  00029	8b 4a ec	 mov	 ecx, DWORD PTR [edx-20]
  0002c	33 c8		 xor	 ecx, eax
  0002e	e8 00 00 00 00	 call	 @__security_check_cookie@4
  00033	b8 00 00 00 00	 mov	 eax, OFFSET __ehfuncinfo$?LoadTradeAup@CTabSystemTradingEx@@QAEPAVCWnd@@V?$CStringT@DV?$StrTraitMFC_DLL@DV?$ChTraitsCRT@D@ATL@@@@@ATL@@PAV2@@Z
  00038	e9 00 00 00 00	 jmp	 ___CxxFrameHandler3
text$x	ENDS
?LoadTradeAup@CTabSystemTradingEx@@QAEPAVCWnd@@V?$CStringT@DV?$StrTraitMFC_DLL@DV?$ChTraitsCRT@D@ATL@@@@@ATL@@PAV2@@Z ENDP ; CTabSystemTradingEx::LoadTradeAup
; Function compile flags: /Ogtp
; File D:\git\src\IBK\IBK_DRFN\ProjSrc\SrcDrfn\Chart\MULTICHART\TabSystemTradingEx.cpp
; File C:\Program Files (x86)\Microsoft Visual Studio\2019\Community\VC\Tools\MSVC\14.29.30133\atlmfc\include\afxwin2.inl
; File D:\git\src\IBK\IBK_DRFN\ProjSrc\SrcDrfn\Chart\MULTICHART\TabSystemTradingEx.cpp
; File C:\Program Files (x86)\Microsoft Visual Studio\2019\Community\VC\Tools\MSVC\14.29.30133\atlmfc\include\afxwin2.inl
; File C:\Program Files (x86)\Microsoft Visual Studio\2019\Community\VC\Tools\MSVC\14.29.30133\atlmfc\include\atltypes.h
; File C:\Program Files (x86)\Microsoft Visual Studio\2019\Community\VC\Tools\MSVC\14.29.30133\atlmfc\include\afxwin2.inl
; File C:\Program Files (x86)\Microsoft Visual Studio\2019\Community\VC\Tools\MSVC\14.29.30133\atlmfc\include\atltypes.h
; File C:\Program Files (x86)\Microsoft Visual Studio\2019\Community\VC\Tools\MSVC\14.29.30133\atlmfc\include\afxwin2.inl
; File C:\Program Files (x86)\Microsoft Visual Studio\2019\Community\VC\Tools\MSVC\14.29.30133\atlmfc\include\atltypes.h
; File C:\Program Files (x86)\Microsoft Visual Studio\2019\Community\VC\Tools\MSVC\14.29.30133\atlmfc\include\afxwin2.inl
; File D:\git\src\IBK\IBK_DRFN\ProjSrc\SrcDrfn\Chart\MULTICHART\TabSystemTradingEx.cpp
;	COMDAT ?OpenAUP@CTabSystemTradingEx@@QAEHXZ
_TEXT	SEGMENT
_size$2 = -72						; size = 8
_szDllName$ = -64					; size = 4
$T3 = -60						; size = 4
_this$GSCopy$1$ = -56					; size = 4
_strError$4 = -56					; size = 4
_strTradingName$5 = -52					; size = 4
_viewRect$6 = -48					; size = 16
_frameRect$7 = -32					; size = 16
__$ArrayPad$ = -16					; size = 4
__$EHRec$ = -12						; size = 12
?OpenAUP@CTabSystemTradingEx@@QAEHXZ PROC		; CTabSystemTradingEx::OpenAUP, COMDAT
; _this$ = ecx

; 555  : {

  00000	55		 push	 ebp
  00001	8b ec		 mov	 ebp, esp
  00003	6a ff		 push	 -1
  00005	68 00 00 00 00	 push	 __ehhandler$?OpenAUP@CTabSystemTradingEx@@QAEHXZ
  0000a	64 a1 00 00 00
	00		 mov	 eax, DWORD PTR fs:0
  00010	50		 push	 eax
  00011	83 ec 3c	 sub	 esp, 60			; 0000003cH
  00014	a1 00 00 00 00	 mov	 eax, DWORD PTR ___security_cookie
  00019	33 c5		 xor	 eax, ebp
  0001b	89 45 f0	 mov	 DWORD PTR __$ArrayPad$[ebp], eax
  0001e	53		 push	 ebx
  0001f	56		 push	 esi
  00020	57		 push	 edi
  00021	50		 push	 eax
  00022	8d 45 f4	 lea	 eax, DWORD PTR __$EHRec$[ebp]
  00025	64 a3 00 00 00
	00		 mov	 DWORD PTR fs:0, eax
  0002b	8b d9		 mov	 ebx, ecx
  0002d	89 5d c8	 mov	 DWORD PTR _this$GSCopy$1$[ebp], ebx

; 556  : 	CString szDllName = "HWStrategyAnalysis";

  00030	68 00 00 00 00	 push	 OFFSET ??_C@_0BD@JAKAOGNI@HWStrategyAnalysis@
  00035	8d 4d c0	 lea	 ecx, DWORD PTR _szDllName$[ebp]
  00038	ff 15 00 00 00
	00		 call	 DWORD PTR __imp_??0?$CStringT@DV?$StrTraitMFC_DLL@DV?$ChTraitsCRT@D@ATL@@@@@ATL@@QAE@PBD@Z

; 557  : 	CWnd *pTrade = LoadTradeAup(szDllName, this);

  0003e	8d 45 c0	 lea	 eax, DWORD PTR _szDllName$[ebp]
  00041	c7 45 fc 00 00
	00 00		 mov	 DWORD PTR __$EHRec$[ebp+8], 0
  00048	50		 push	 eax
  00049	8d 4d c4	 lea	 ecx, DWORD PTR $T3[ebp]
  0004c	ff 15 00 00 00
	00		 call	 DWORD PTR __imp_??0?$CStringT@DV?$StrTraitMFC_DLL@DV?$ChTraitsCRT@D@ATL@@@@@ATL@@QAE@ABV01@@Z

; 601  : 	CString strTradingName = strFile + ".dll";

  00052	68 00 00 00 00	 push	 OFFSET ??_C@_04HLONOPDM@?4dll@
  00057	8d 45 c4	 lea	 eax, DWORD PTR $T3[ebp]
  0005a	c6 45 fc 01	 mov	 BYTE PTR __$EHRec$[ebp+8], 1
  0005e	50		 push	 eax
  0005f	8d 45 cc	 lea	 eax, DWORD PTR _strTradingName$5[ebp]
  00062	50		 push	 eax
  00063	e8 00 00 00 00	 call	 ??HATL@@YA?AV?$CStringT@DV?$StrTraitMFC_DLL@DV?$ChTraitsCRT@D@ATL@@@@@0@ABV10@PBD@Z ; ATL::operator+
  00068	83 c4 0c	 add	 esp, 12			; 0000000cH

; 602  : 
; 603  : 	HINSTANCE hTradeInst = LoadLibrary(strTradingName);

  0006b	ff 75 cc	 push	 DWORD PTR _strTradingName$5[ebp]
  0006e	c6 45 fc 02	 mov	 BYTE PTR __$EHRec$[ebp+8], 2
  00072	ff 15 00 00 00
	00		 call	 DWORD PTR __imp__LoadLibraryA@4
  00078	8b f0		 mov	 esi, eax

; 604  : 	if(hTradeInst == NULL)

  0007a	85 f6		 test	 esi, esi
  0007c	75 50		 jne	 SHORT $LN9@OpenAUP

; 605  : 	{
; 606  : 		CString strError;

  0007e	8d 4d c8	 lea	 ecx, DWORD PTR _strError$4[ebp]
  00081	ff 15 00 00 00
	00		 call	 DWORD PTR __imp_??0?$CStringT@DV?$StrTraitMFC_DLL@DV?$ChTraitsCRT@D@ATL@@@@@ATL@@QAE@XZ

; 607  : 		strError.Format(_T("%s File Load Faile"),strTradingName);

  00087	ff 75 cc	 push	 DWORD PTR _strTradingName$5[ebp]
  0008a	8d 45 c8	 lea	 eax, DWORD PTR _strError$4[ebp]
  0008d	c6 45 fc 03	 mov	 BYTE PTR __$EHRec$[ebp+8], 3
  00091	68 00 00 00 00	 push	 OFFSET ??_C@_0BD@JKFCKDIB@?$CFs?5File?5Load?5Faile@
  00096	50		 push	 eax
  00097	ff 15 00 00 00
	00		 call	 DWORD PTR __imp_?Format@?$CStringT@DV?$StrTraitMFC_DLL@DV?$ChTraitsCRT@D@ATL@@@@@ATL@@QAAXPBDZZ
  0009d	83 c4 0c	 add	 esp, 12			; 0000000cH

; 608  : 		MessageBox(strError);

  000a0	8b cb		 mov	 ecx, ebx
  000a2	56		 push	 esi
  000a3	56		 push	 esi
  000a4	ff 75 c8	 push	 DWORD PTR _strError$4[ebp]
  000a7	e8 00 00 00 00	 call	 ?MessageBoxA@CWnd@@QAEHPBD0I@Z ; CWnd::MessageBoxA

; 609  : 		return NULL;

  000ac	8d 4d c8	 lea	 ecx, DWORD PTR _strError$4[ebp]
  000af	ff 15 00 00 00
	00		 call	 DWORD PTR __imp_??1?$CStringT@DV?$StrTraitMFC_DLL@DV?$ChTraitsCRT@D@ATL@@@@@ATL@@QAE@XZ
$LN58@OpenAUP:
  000b5	8d 4d cc	 lea	 ecx, DWORD PTR _strTradingName$5[ebp]
  000b8	ff 15 00 00 00
	00		 call	 DWORD PTR __imp_??1?$CStringT@DV?$StrTraitMFC_DLL@DV?$ChTraitsCRT@D@ATL@@@@@ATL@@QAE@XZ
  000be	8d 4d c4	 lea	 ecx, DWORD PTR $T3[ebp]
  000c1	ff 15 00 00 00
	00		 call	 DWORD PTR __imp_??1?$CStringT@DV?$StrTraitMFC_DLL@DV?$ChTraitsCRT@D@ATL@@@@@ATL@@QAE@XZ
  000c7	33 f6		 xor	 esi, esi
  000c9	e9 38 01 00 00	 jmp	 $LN7@OpenAUP
$LN9@OpenAUP:

; 610  : 	}
; 611  : 
; 612  : 	CreateTradingAupEx *pCreateTrading = (CreateTradingAupEx *)GetProcAddress(hTradeInst,_T("CREATE_TRADING_EX"));

  000ce	68 00 00 00 00	 push	 OFFSET ??_C@_0BC@CJPOKCCI@CREATE_TRADING_EX@
  000d3	56		 push	 esi
  000d4	ff 15 00 00 00
	00		 call	 DWORD PTR __imp__GetProcAddress@8
  000da	8b c8		 mov	 ecx, eax

; 613  : 	if(pCreateTrading == NULL)

  000dc	85 c9		 test	 ecx, ecx
  000de	75 17		 jne	 SHORT $LN10@OpenAUP

; 614  : 	{
; 615  : 		MessageBox("  ");

  000e0	50		 push	 eax
  000e1	50		 push	 eax
  000e2	68 00 00 00 00	 push	 OFFSET ??_C@_0BD@GPFJHOGC@?F?$KP?H?$KN?H?$KN?$LI?i?5?$LH?N?$LF?e?5?$LP?$KB?$LH?$KP@
  000e7	8b cb		 mov	 ecx, ebx
  000e9	e8 00 00 00 00	 call	 ?MessageBoxA@CWnd@@QAEHPBD0I@Z ; CWnd::MessageBoxA

; 616  : 		FreeLibrary(hTradeInst);

  000ee	56		 push	 esi
  000ef	ff 15 00 00 00
	00		 call	 DWORD PTR __imp__FreeLibrary@4

; 617  : 		return NULL;

  000f5	eb be		 jmp	 SHORT $LN58@OpenAUP
$LN10@OpenAUP:

; 618  : 	}
; 619  : 
; 620  : 	CWnd *pTrade = pCreateTrading(0,pParent, &m_xSTInterface);

  000f7	8d 83 70 09 00
	00		 lea	 eax, DWORD PTR [ebx+2416]
  000fd	50		 push	 eax
  000fe	53		 push	 ebx
  000ff	6a 00		 push	 0
  00101	ff d1		 call	 ecx
  00103	8b f8		 mov	 edi, eax
  00105	83 c4 0c	 add	 esp, 12			; 0000000cH

; 621  : 	
; 622  : 
; 623  : 	//////////////////////////////////////////////////////////////////////////
; 624  : 		
; 625  : 	if(pTrade != NULL)

  00108	85 ff		 test	 edi, edi
  0010a	74 13		 je	 SHORT $LN11@OpenAUP
; File C:\Program Files (x86)\Microsoft Visual Studio\2019\Community\VC\Tools\MSVC\14.29.30133\atlmfc\include\afxwin2.inl

; 32   : 	{ ASSERT(::IsWindow(m_hWnd)); return ::SendMessage(m_hWnd, message, wParam, lParam); }

  0010c	6a 00		 push	 0
  0010e	56		 push	 esi
  0010f	68 c8 0c 00 00	 push	 3272			; 00000cc8H
  00114	ff 73 20	 push	 DWORD PTR [ebx+32]
  00117	ff 15 00 00 00
	00		 call	 DWORD PTR __imp__SendMessageA@16
; File D:\git\src\IBK\IBK_DRFN\ProjSrc\SrcDrfn\Chart\MULTICHART\TabSystemTradingEx.cpp

; 628  : 	}

  0011d	eb 07		 jmp	 SHORT $LN12@OpenAUP
$LN11@OpenAUP:

; 629  : 	else
; 630  : 	{
; 631  : 		FreeLibrary(hTradeInst);

  0011f	56		 push	 esi
  00120	ff 15 00 00 00
	00		 call	 DWORD PTR __imp__FreeLibrary@4
$LN12@OpenAUP:

; 632  : 	}
; 633  : 	return pTrade;						

  00126	8d 4d cc	 lea	 ecx, DWORD PTR _strTradingName$5[ebp]
  00129	ff 15 00 00 00
	00		 call	 DWORD PTR __imp_??1?$CStringT@DV?$StrTraitMFC_DLL@DV?$ChTraitsCRT@D@ATL@@@@@ATL@@QAE@XZ
  0012f	8d 4d c4	 lea	 ecx, DWORD PTR $T3[ebp]
  00132	c6 45 fc 00	 mov	 BYTE PTR __$EHRec$[ebp+8], 0
  00136	ff 15 00 00 00
	00		 call	 DWORD PTR __imp_??1?$CStringT@DV?$StrTraitMFC_DLL@DV?$ChTraitsCRT@D@ATL@@@@@ATL@@QAE@XZ

; 558  : 	if(pTrade == NULL)

  0013c	85 ff		 test	 edi, edi
  0013e	75 07		 jne	 SHORT $LN2@OpenAUP
  00140	33 f6		 xor	 esi, esi
  00142	e9 bf 00 00 00	 jmp	 $LN7@OpenAUP
$LN2@OpenAUP:
; File C:\Program Files (x86)\Microsoft Visual Studio\2019\Community\VC\Tools\MSVC\14.29.30133\atlmfc\include\afxwin2.inl

; 32   : 	{ ASSERT(::IsWindow(m_hWnd)); return ::SendMessage(m_hWnd, message, wParam, lParam); }

  00147	6a 00		 push	 0
  00149	8d 45 b8	 lea	 eax, DWORD PTR _size$2[ebp]
; File C:\Program Files (x86)\Microsoft Visual Studio\2019\Community\VC\Tools\MSVC\14.29.30133\atlmfc\include\atltypes.h

; 408  : 	x = initX;

  0014c	c7 45 b8 20 03
	00 00		 mov	 DWORD PTR _size$2[ebp], 800 ; 00000320H
; File C:\Program Files (x86)\Microsoft Visual Studio\2019\Community\VC\Tools\MSVC\14.29.30133\atlmfc\include\afxwin2.inl

; 32   : 	{ ASSERT(::IsWindow(m_hWnd)); return ::SendMessage(m_hWnd, message, wParam, lParam); }

  00153	50		 push	 eax
  00154	68 c3 0c 00 00	 push	 3267			; 00000cc3H
  00159	ff 77 20	 push	 DWORD PTR [edi+32]
; File C:\Program Files (x86)\Microsoft Visual Studio\2019\Community\VC\Tools\MSVC\14.29.30133\atlmfc\include\atltypes.h

; 409  : 	y = initY;

  0015c	c7 45 bc 58 02
	00 00		 mov	 DWORD PTR _size$2[ebp+4], 600 ; 00000258H
; File C:\Program Files (x86)\Microsoft Visual Studio\2019\Community\VC\Tools\MSVC\14.29.30133\atlmfc\include\afxwin2.inl

; 32   : 	{ ASSERT(::IsWindow(m_hWnd)); return ::SendMessage(m_hWnd, message, wParam, lParam); }

  00163	ff 15 00 00 00
	00		 call	 DWORD PTR __imp__SendMessageA@16

; 84   : 	{ ASSERT(::IsWindow(m_hWnd)); ::GetWindowRect(m_hWnd, lpRect); }

  00169	8d 45 e0	 lea	 eax, DWORD PTR _frameRect$7[ebp]
  0016c	0f 57 c0	 xorps	 xmm0, xmm0
  0016f	50		 push	 eax
  00170	ff 73 20	 push	 DWORD PTR [ebx+32]
; File C:\Program Files (x86)\Microsoft Visual Studio\2019\Community\VC\Tools\MSVC\14.29.30133\atlmfc\include\atltypes.h

; 528  : 	left = 0;

  00173	0f 11 45 e0	 movups	 XMMWORD PTR _frameRect$7[ebp], xmm0
  00177	0f 11 45 d0	 movups	 XMMWORD PTR _viewRect$6[ebp], xmm0
; File C:\Program Files (x86)\Microsoft Visual Studio\2019\Community\VC\Tools\MSVC\14.29.30133\atlmfc\include\afxwin2.inl

; 84   : 	{ ASSERT(::IsWindow(m_hWnd)); ::GetWindowRect(m_hWnd, lpRect); }

  0017b	ff 15 00 00 00
	00		 call	 DWORD PTR __imp__GetWindowRect@8

; 86   : 	{ ASSERT(::IsWindow(m_hWnd)); ::GetClientRect(m_hWnd, lpRect); }

  00181	8d 45 d0	 lea	 eax, DWORD PTR _viewRect$6[ebp]
  00184	50		 push	 eax
  00185	ff 73 20	 push	 DWORD PTR [ebx+32]
  00188	ff 15 00 00 00
	00		 call	 DWORD PTR __imp__GetClientRect@8
; File D:\git\src\IBK\IBK_DRFN\ProjSrc\SrcDrfn\Chart\MULTICHART\TabSystemTradingEx.cpp

; 574  : 		int nTheme = nTheme = GetSystemMetrics(SM_CYCAPTION);

  0018e	8b 1d 00 00 00
	00		 mov	 ebx, DWORD PTR __imp__GetSystemMetrics@4
  00194	6a 04		 push	 4
  00196	ff d3		 call	 ebx

; 575  : 
; 576  : 		frameRect.right = frameRect.right - 

  00198	6a 2d		 push	 45			; 0000002dH
  0019a	8b f8		 mov	 edi, eax
  0019c	ff d3		 call	 ebx
  0019e	8b 75 e8	 mov	 esi, DWORD PTR _frameRect$7[ebp+8]
  001a1	6a 07		 push	 7
  001a3	2b f0		 sub	 esi, eax
  001a5	ff d3		 call	 ebx
  001a7	6a 06		 push	 6
  001a9	2b f0		 sub	 esi, eax
  001ab	ff d3		 call	 ebx
  001ad	2b f0		 sub	 esi, eax

; 577  : 			GetSystemMetrics(SM_CXEDGE) - 
; 578  : 			GetSystemMetrics(SM_CXDLGFRAME) -
; 579  : 			GetSystemMetrics(SM_CYBORDER);
; 580  : 
; 581  : 		frameRect.bottom = frameRect.bottom - GetSystemMetrics(SM_CYEDGE) -

  001af	6a 2e		 push	 46			; 0000002eH
  001b1	89 75 e8	 mov	 DWORD PTR _frameRect$7[ebp+8], esi
  001b4	ff d3		 call	 ebx
  001b6	8b 75 ec	 mov	 esi, DWORD PTR _frameRect$7[ebp+12]
  001b9	2b f7		 sub	 esi, edi
  001bb	6a 08		 push	 8
  001bd	2b f0		 sub	 esi, eax
  001bf	ff d3		 call	 ebx
  001c1	6a 06		 push	 6
  001c3	2b f0		 sub	 esi, eax
  001c5	ff d3		 call	 ebx
  001c7	2b f0		 sub	 esi, eax

; 582  : 			GetSystemMetrics(SM_CYDLGFRAME) - nTheme -		
; 583  : 			GetSystemMetrics(SM_CYBORDER) + SIZE_TITLE_BAR;
; 584  : 
; 585  : 		int iNewWidth = frameRect.Width() - viewRect.Width() + size.x;
; 586  : 		int iNewHeight = frameRect.Height() - viewRect.Height() + size.y;
; 587  : 
; 588  : 		SetWindowPos(NULL,0,0,iNewWidth,iNewHeight,SWP_NOMOVE);	

  001c9	8b 4d c8	 mov	 ecx, DWORD PTR _this$GSCopy$1$[ebp]
  001cc	6a 02		 push	 2
  001ce	8d 46 17	 lea	 eax, DWORD PTR [esi+23]
  001d1	2b 75 dc	 sub	 esi, DWORD PTR _viewRect$6[ebp+12]
  001d4	2b 75 e4	 sub	 esi, DWORD PTR _frameRect$7[ebp+4]
  001d7	03 75 d4	 add	 esi, DWORD PTR _viewRect$6[ebp+4]
  001da	89 45 ec	 mov	 DWORD PTR _frameRect$7[ebp+12], eax
  001dd	8b 45 bc	 mov	 eax, DWORD PTR _size$2[ebp+4]
  001e0	83 c0 17	 add	 eax, 23			; 00000017H
  001e3	03 c6		 add	 eax, esi
  001e5	50		 push	 eax
  001e6	8b 45 d0	 mov	 eax, DWORD PTR _viewRect$6[ebp]
  001e9	2b 45 d8	 sub	 eax, DWORD PTR _viewRect$6[ebp+8]
  001ec	2b 45 e0	 sub	 eax, DWORD PTR _frameRect$7[ebp]
  001ef	03 45 b8	 add	 eax, DWORD PTR _size$2[ebp]
  001f2	03 45 e8	 add	 eax, DWORD PTR _frameRect$7[ebp+8]
  001f5	50		 push	 eax
  001f6	6a 00		 push	 0
  001f8	6a 00		 push	 0
  001fa	6a 00		 push	 0
  001fc	e8 00 00 00 00	 call	 ?SetWindowPos@CWnd@@QAEHPBV1@HHHHI@Z ; CWnd::SetWindowPos

; 589  : 	}
; 590  : 	return TRUE;

  00201	be 01 00 00 00	 mov	 esi, 1
$LN7@OpenAUP:
  00206	8d 4d c0	 lea	 ecx, DWORD PTR _szDllName$[ebp]
  00209	ff 15 00 00 00
	00		 call	 DWORD PTR __imp_??1?$CStringT@DV?$StrTraitMFC_DLL@DV?$ChTraitsCRT@D@ATL@@@@@ATL@@QAE@XZ
  0020f	8b c6		 mov	 eax, esi

; 591  : }

  00211	8b 4d f4	 mov	 ecx, DWORD PTR __$EHRec$[ebp]
  00214	64 89 0d 00 00
	00 00		 mov	 DWORD PTR fs:0, ecx
  0021b	59		 pop	 ecx
  0021c	5f		 pop	 edi
  0021d	5e		 pop	 esi
  0021e	5b		 pop	 ebx
  0021f	8b 4d f0	 mov	 ecx, DWORD PTR __$ArrayPad$[ebp]
  00222	33 cd		 xor	 ecx, ebp
  00224	e8 00 00 00 00	 call	 @__security_check_cookie@4
  00229	8b e5		 mov	 esp, ebp
  0022b	5d		 pop	 ebp
  0022c	c3		 ret	 0
_TEXT	ENDS
;	COMDAT text$x
text$x	SEGMENT
__unwindfunclet$?OpenAUP@CTabSystemTradingEx@@QAEHXZ$0:
  00000	8d 4d c0	 lea	 ecx, DWORD PTR _szDllName$[ebp]
  00003	ff 25 00 00 00
	00		 jmp	 DWORD PTR __imp_??1?$CStringT@DV?$StrTraitMFC_DLL@DV?$ChTraitsCRT@D@ATL@@@@@ATL@@QAE@XZ
__unwindfunclet$?OpenAUP@CTabSystemTradingEx@@QAEHXZ$2:
  00009	8d 4d c4	 lea	 ecx, DWORD PTR $T3[ebp]
  0000c	ff 25 00 00 00
	00		 jmp	 DWORD PTR __imp_??1?$CStringT@DV?$StrTraitMFC_DLL@DV?$ChTraitsCRT@D@ATL@@@@@ATL@@QAE@XZ
__unwindfunclet$?OpenAUP@CTabSystemTradingEx@@QAEHXZ$3:
  00012	8d 4d cc	 lea	 ecx, DWORD PTR _strTradingName$5[ebp]
  00015	ff 25 00 00 00
	00		 jmp	 DWORD PTR __imp_??1?$CStringT@DV?$StrTraitMFC_DLL@DV?$ChTraitsCRT@D@ATL@@@@@ATL@@QAE@XZ
__unwindfunclet$?OpenAUP@CTabSystemTradingEx@@QAEHXZ$4:
  0001b	8d 4d c8	 lea	 ecx, DWORD PTR _strError$4[ebp]
  0001e	ff 25 00 00 00
	00		 jmp	 DWORD PTR __imp_??1?$CStringT@DV?$StrTraitMFC_DLL@DV?$ChTraitsCRT@D@ATL@@@@@ATL@@QAE@XZ
  00024	cc		 int	 3
  00025	cc		 int	 3
  00026	cc		 int	 3
  00027	cc		 int	 3
  00028	cc		 int	 3
__ehhandler$?OpenAUP@CTabSystemTradingEx@@QAEHXZ:
  00029	90		 npad	 1
  0002a	90		 npad	 1
  0002b	8b 54 24 08	 mov	 edx, DWORD PTR [esp+8]
  0002f	8d 42 0c	 lea	 eax, DWORD PTR [edx+12]
  00032	8b 4a b4	 mov	 ecx, DWORD PTR [edx-76]
  00035	33 c8		 xor	 ecx, eax
  00037	e8 00 00 00 00	 call	 @__security_check_cookie@4
  0003c	8b 4a fc	 mov	 ecx, DWORD PTR [edx-4]
  0003f	33 c8		 xor	 ecx, eax
  00041	e8 00 00 00 00	 call	 @__security_check_cookie@4
  00046	b8 00 00 00 00	 mov	 eax, OFFSET __ehfuncinfo$?OpenAUP@CTabSystemTradingEx@@QAEHXZ
  0004b	e9 00 00 00 00	 jmp	 ___CxxFrameHandler3
text$x	ENDS
?OpenAUP@CTabSystemTradingEx@@QAEHXZ ENDP		; CTabSystemTradingEx::OpenAUP
; Function compile flags: /Ogtp
; File D:\git\src\IBK\IBK_DRFN\ProjSrc\SrcDrfn\Chart\MULTICHART\TabSystemTradingEx.cpp
; File C:\Program Files (x86)\Microsoft Visual Studio\2019\Community\VC\Tools\MSVC\14.29.30133\atlmfc\include\afxwin2.inl
; File D:\git\src\IBK\IBK_DRFN\ProjSrc\SrcDrfn\Chart\MULTICHART\TabSystemTradingEx.cpp
; File C:\Program Files (x86)\Microsoft Visual Studio\2019\Community\VC\Tools\MSVC\14.29.30133\atlmfc\include\afxwin2.inl
; File D:\git\src\IBK\IBK_DRFN\ProjSrc\SrcDrfn\Chart\MULTICHART\TabSystemTradingEx.cpp
; File D:\git\src\IBK\IBK_DRFN\ProjSrc\SrcDrfn\inc\IBaseDefine.h
; File D:\git\src\IBK\IBK_DRFN\ProjSrc\SrcDrfn\Chart\MULTICHART\TabSystemTradingEx.cpp
; File C:\Program Files (x86)\Microsoft Visual Studio\2019\Community\VC\Tools\MSVC\14.29.30133\atlmfc\include\afxwin2.inl
; File D:\git\src\IBK\IBK_DRFN\ProjSrc\SrcDrfn\Chart\MULTICHART\TabSystemTradingEx.cpp
;	COMDAT ?LoadInfo@CTabSystemTradingEx@@QAEXXZ
_TEXT	SEGMENT
_copyData$2 = -56					; size = 12
_hMain$3 = -44						; size = 4
_szClipFormat$4 = -40					; size = 4
_szKey$ = -36						; size = 4
_szPctr$5 = -32						; size = 4
_aBufWnd$6 = -28					; size = 9
__$ArrayPad$ = -16					; size = 4
__$EHRec$ = -12						; size = 12
?LoadInfo@CTabSystemTradingEx@@QAEXXZ PROC		; CTabSystemTradingEx::LoadInfo, COMDAT
; _this$ = ecx

; 518  : {

  00000	55		 push	 ebp
  00001	8b ec		 mov	 ebp, esp
  00003	6a ff		 push	 -1
  00005	68 00 00 00 00	 push	 __ehhandler$?LoadInfo@CTabSystemTradingEx@@QAEXXZ
  0000a	64 a1 00 00 00
	00		 mov	 eax, DWORD PTR fs:0
  00010	50		 push	 eax
  00011	83 ec 2c	 sub	 esp, 44			; 0000002cH
  00014	a1 00 00 00 00	 mov	 eax, DWORD PTR ___security_cookie
  00019	33 c5		 xor	 eax, ebp
  0001b	89 45 f0	 mov	 DWORD PTR __$ArrayPad$[ebp], eax
  0001e	56		 push	 esi
  0001f	57		 push	 edi
  00020	50		 push	 eax
  00021	8d 45 f4	 lea	 eax, DWORD PTR __$EHRec$[ebp]
  00024	64 a3 00 00 00
	00		 mov	 DWORD PTR fs:0, eax
  0002a	8b f1		 mov	 esi, ecx

; 519  : 	int nID = UUID_IAUDataMonitorManager; 
; 520  : 	m_pIAUDataMonitorManager = (IAUDataMonitorManager*)AfxGetPctrInterface(nID);

  0002c	6a 1c		 push	 28			; 0000001cH
  0002e	e8 00 00 00 00	 call	 ?AfxGetPctrInterface@@YGJH@Z ; AfxGetPctrInterface

; 521  : 	CString szKey = "STLIST_MODIFIED"; 

  00033	68 00 00 00 00	 push	 OFFSET ??_C@_0BA@PIGBAOMG@STLIST_MODIFIED@
  00038	8d 4d dc	 lea	 ecx, DWORD PTR _szKey$[ebp]
  0003b	89 86 60 09 00
	00		 mov	 DWORD PTR [esi+2400], eax
  00041	ff 15 00 00 00
	00		 call	 DWORD PTR __imp_??0?$CStringT@DV?$StrTraitMFC_DLL@DV?$ChTraitsCRT@D@ATL@@@@@ATL@@QAE@PBD@Z

; 522  : 	m_dwIAUDataMonitorManager[0] = m_pIAUDataMonitorManager->Advise(szKey, (long)this, (long)NULL, DataMonitorCallbackProc);

  00047	8b 86 60 09 00
	00		 mov	 eax, DWORD PTR [esi+2400]
  0004d	68 00 00 00 00	 push	 OFFSET ?DataMonitorCallbackProc@CTabSystemTradingEx@@SGXPBDJJJJ@Z ; CTabSystemTradingEx::DataMonitorCallbackProc
  00052	6a 00		 push	 0
  00054	56		 push	 esi
  00055	ff 75 dc	 push	 DWORD PTR _szKey$[ebp]
  00058	8b 08		 mov	 ecx, DWORD PTR [eax]
  0005a	50		 push	 eax
  0005b	c7 45 fc 00 00
	00 00		 mov	 DWORD PTR __$EHRec$[ebp+8], 0
  00062	ff 11		 call	 DWORD PTR [ecx]

; 523  : 
; 524  : 	szKey = "MultiChart_ReceiveData"; 

  00064	68 00 00 00 00	 push	 OFFSET ??_C@_0BH@DGGPLJDE@MultiChart_ReceiveData@
  00069	8d 4d dc	 lea	 ecx, DWORD PTR _szKey$[ebp]
  0006c	89 86 64 09 00
	00		 mov	 DWORD PTR [esi+2404], eax
  00072	ff 15 00 00 00
	00		 call	 DWORD PTR __imp_??4?$CStringT@DV?$StrTraitMFC_DLL@DV?$ChTraitsCRT@D@ATL@@@@@ATL@@QAEAAV01@PBD@Z

; 525  : 	m_dwIAUDataMonitorManager[1] = m_pIAUDataMonitorManager->Advise(szKey, (long)this, (long)NULL, DataMonitorCallbackProc);

  00078	8b 86 60 09 00
	00		 mov	 eax, DWORD PTR [esi+2400]
  0007e	68 00 00 00 00	 push	 OFFSET ?DataMonitorCallbackProc@CTabSystemTradingEx@@SGXPBDJJJJ@Z ; CTabSystemTradingEx::DataMonitorCallbackProc
  00083	6a 00		 push	 0
  00085	56		 push	 esi
  00086	ff 75 dc	 push	 DWORD PTR _szKey$[ebp]
  00089	8b 08		 mov	 ecx, DWORD PTR [eax]
  0008b	50		 push	 eax
  0008c	ff 11		 call	 DWORD PTR [ecx]
; File C:\Program Files (x86)\Microsoft Visual Studio\2019\Community\VC\Tools\MSVC\14.29.30133\atlmfc\include\afxwin2.inl

; 198  : 	{ return CWnd::FromHandle(::FindWindow(lpszClassName, lpszWindowName)); }

  0008e	68 00 00 00 00	 push	 OFFSET ??_C@_0O@OENIFHCP@SystemTrading@
  00093	6a 00		 push	 0
; File D:\git\src\IBK\IBK_DRFN\ProjSrc\SrcDrfn\Chart\MULTICHART\TabSystemTradingEx.cpp

; 525  : 	m_dwIAUDataMonitorManager[1] = m_pIAUDataMonitorManager->Advise(szKey, (long)this, (long)NULL, DataMonitorCallbackProc);

  00095	89 86 68 09 00
	00		 mov	 DWORD PTR [esi+2408], eax
; File C:\Program Files (x86)\Microsoft Visual Studio\2019\Community\VC\Tools\MSVC\14.29.30133\atlmfc\include\afxwin2.inl

; 198  : 	{ return CWnd::FromHandle(::FindWindow(lpszClassName, lpszWindowName)); }

  0009b	ff 15 00 00 00
	00		 call	 DWORD PTR __imp__FindWindowA@8
  000a1	50		 push	 eax
  000a2	e8 00 00 00 00	 call	 ?FromHandle@CWnd@@SGPAV1@PAUHWND__@@@Z ; CWnd::FromHandle
; File D:\git\src\IBK\IBK_DRFN\ProjSrc\SrcDrfn\Chart\MULTICHART\TabSystemTradingEx.cpp

; 528  : 	CWnd* pWndCompiler = FindWindow(NULL, _T("SystemTrading"));

  000a7	8b f8		 mov	 edi, eax

; 529  : 	if(pWndCompiler)

  000a9	85 ff		 test	 edi, edi
  000ab	0f 84 c6 00 00
	00		 je	 $LN2@LoadInfo
  000b1	0f 57 c0	 xorps	 xmm0, xmm0
; File D:\git\src\IBK\IBK_DRFN\ProjSrc\SrcDrfn\inc\IBaseDefine.h

; 245  : 	AfxGetHanaroMainWnd(hMain);

  000b4	c7 45 d4 00 00
	00 00		 mov	 DWORD PTR _hMain$3[ebp], 0
  000bb	8d 4d d8	 lea	 ecx, DWORD PTR _szClipFormat$4[ebp]
  000be	66 0f d6 45 e4	 movq	 QWORD PTR _aBufWnd$6[ebp], xmm0
  000c3	c6 45 ec 00	 mov	 BYTE PTR _aBufWnd$6[ebp+8], 0
  000c7	ff 15 00 00 00
	00		 call	 DWORD PTR __imp_??0?$CStringT@DV?$StrTraitMFC_DLL@DV?$ChTraitsCRT@D@ATL@@@@@ATL@@QAE@XZ
  000cd	68 00 00 00 00	 push	 OFFSET ??_C@_0M@CBBNGGHM@PcTrMng?4dll@
  000d2	c6 45 fc 01	 mov	 BYTE PTR __$EHRec$[ebp+8], 1
  000d6	ff 15 00 00 00
	00		 call	 DWORD PTR __imp__GetModuleHandleA@4
  000dc	8b 35 00 00 00
	00		 mov	 esi, DWORD PTR __imp_?Format@?$CStringT@DV?$StrTraitMFC_DLL@DV?$ChTraitsCRT@D@ATL@@@@@ATL@@QAAXPBDZZ
  000e2	50		 push	 eax
  000e3	68 00 00 00 00	 push	 OFFSET ??_C@_0P@IDMAJEGN@HANAROPCTRMAIN@
  000e8	8d 45 d8	 lea	 eax, DWORD PTR _szClipFormat$4[ebp]
  000eb	68 00 00 00 00	 push	 OFFSET ??_C@_06NDLAHCHE@?$CFs?$CF08X@
  000f0	50		 push	 eax
  000f1	ff d6		 call	 esi
  000f3	83 c4 10	 add	 esp, 16			; 00000010H
  000f6	8d 45 e4	 lea	 eax, DWORD PTR _aBufWnd$6[ebp]
  000f9	6a 09		 push	 9
  000fb	50		 push	 eax
  000fc	ff 75 d8	 push	 DWORD PTR _szClipFormat$4[ebp]
  000ff	ff 15 00 00 00
	00		 call	 DWORD PTR __imp__GetEnvironmentVariableA@12
  00105	8d 45 d4	 lea	 eax, DWORD PTR _hMain$3[ebp]
  00108	50		 push	 eax
  00109	8d 45 e4	 lea	 eax, DWORD PTR _aBufWnd$6[ebp]
  0010c	68 00 00 00 00	 push	 OFFSET ??_C@_02EMFKHFLK@?$CFX@
  00111	50		 push	 eax
  00112	e8 00 00 00 00	 call	 _sscanf
  00117	83 c4 0c	 add	 esp, 12			; 0000000cH
  0011a	8d 4d d8	 lea	 ecx, DWORD PTR _szClipFormat$4[ebp]
  0011d	ff 15 00 00 00
	00		 call	 DWORD PTR __imp_??1?$CStringT@DV?$StrTraitMFC_DLL@DV?$ChTraitsCRT@D@ATL@@@@@ATL@@QAE@XZ
; File D:\git\src\IBK\IBK_DRFN\ProjSrc\SrcDrfn\Chart\MULTICHART\TabSystemTradingEx.cpp

; 533  : 		CString szPctr;

  00123	8d 4d e0	 lea	 ecx, DWORD PTR _szPctr$5[ebp]
  00126	ff 15 00 00 00
	00		 call	 DWORD PTR __imp_??0?$CStringT@DV?$StrTraitMFC_DLL@DV?$ChTraitsCRT@D@ATL@@@@@ATL@@QAE@XZ

; 534  : 		szPctr.Format("%08X",h_pctr);

  0012c	ff 75 d4	 push	 DWORD PTR _hMain$3[ebp]
  0012f	8d 45 e0	 lea	 eax, DWORD PTR _szPctr$5[ebp]
  00132	c6 45 fc 02	 mov	 BYTE PTR __$EHRec$[ebp+8], 2
  00136	68 00 00 00 00	 push	 OFFSET ??_C@_04JIMNDDED@?$CF08X@
  0013b	50		 push	 eax
  0013c	ff d6		 call	 esi
  0013e	83 c4 0c	 add	 esp, 12			; 0000000cH

; 535  : 		COPYDATASTRUCT copyData;
; 536  : 		copyData.dwData = 2000;

  00141	c7 45 c8 d0 07
	00 00		 mov	 DWORD PTR _copyData$2[ebp], 2000 ; 000007d0H

; 537  : 		copyData.cbData = ::lstrlen(szPctr) + sizeof(DWORD);

  00148	ff 75 e0	 push	 DWORD PTR _szPctr$5[ebp]
  0014b	ff 15 00 00 00
	00		 call	 DWORD PTR __imp__lstrlenA@4
  00151	83 c0 04	 add	 eax, 4
  00154	89 45 cc	 mov	 DWORD PTR _copyData$2[ebp+4], eax

; 538  : 		copyData.lpData = (void*)(LPCSTR)szPctr;

  00157	8b 45 e0	 mov	 eax, DWORD PTR _szPctr$5[ebp]
  0015a	89 45 d0	 mov	 DWORD PTR _copyData$2[ebp+8], eax
; File C:\Program Files (x86)\Microsoft Visual Studio\2019\Community\VC\Tools\MSVC\14.29.30133\atlmfc\include\afxwin2.inl

; 32   : 	{ ASSERT(::IsWindow(m_hWnd)); return ::SendMessage(m_hWnd, message, wParam, lParam); }

  0015d	8d 45 c8	 lea	 eax, DWORD PTR _copyData$2[ebp]
  00160	50		 push	 eax
  00161	6a 00		 push	 0
  00163	6a 4a		 push	 74			; 0000004aH
  00165	ff 77 20	 push	 DWORD PTR [edi+32]
  00168	ff 15 00 00 00
	00		 call	 DWORD PTR __imp__SendMessageA@16
; File D:\git\src\IBK\IBK_DRFN\ProjSrc\SrcDrfn\Chart\MULTICHART\TabSystemTradingEx.cpp

; 541  : 	}

  0016e	8d 4d e0	 lea	 ecx, DWORD PTR _szPctr$5[ebp]
  00171	ff 15 00 00 00
	00		 call	 DWORD PTR __imp_??1?$CStringT@DV?$StrTraitMFC_DLL@DV?$ChTraitsCRT@D@ATL@@@@@ATL@@QAE@XZ
$LN2@LoadInfo:

; 542  : 	
; 543  : }

  00177	8d 4d dc	 lea	 ecx, DWORD PTR _szKey$[ebp]
  0017a	ff 15 00 00 00
	00		 call	 DWORD PTR __imp_??1?$CStringT@DV?$StrTraitMFC_DLL@DV?$ChTraitsCRT@D@ATL@@@@@ATL@@QAE@XZ
  00180	8b 4d f4	 mov	 ecx, DWORD PTR __$EHRec$[ebp]
  00183	64 89 0d 00 00
	00 00		 mov	 DWORD PTR fs:0, ecx
  0018a	59		 pop	 ecx
  0018b	5f		 pop	 edi
  0018c	5e		 pop	 esi
  0018d	8b 4d f0	 mov	 ecx, DWORD PTR __$ArrayPad$[ebp]
  00190	33 cd		 xor	 ecx, ebp
  00192	e8 00 00 00 00	 call	 @__security_check_cookie@4
  00197	8b e5		 mov	 esp, ebp
  00199	5d		 pop	 ebp
  0019a	c3		 ret	 0
_TEXT	ENDS
;	COMDAT text$x
text$x	SEGMENT
__unwindfunclet$?LoadInfo@CTabSystemTradingEx@@QAEXXZ$0:
  00000	8d 4d dc	 lea	 ecx, DWORD PTR _szKey$[ebp]
  00003	ff 25 00 00 00
	00		 jmp	 DWORD PTR __imp_??1?$CStringT@DV?$StrTraitMFC_DLL@DV?$ChTraitsCRT@D@ATL@@@@@ATL@@QAE@XZ
__unwindfunclet$?LoadInfo@CTabSystemTradingEx@@QAEXXZ$2:
  00009	8d 4d d8	 lea	 ecx, DWORD PTR _szClipFormat$4[ebp]
  0000c	ff 25 00 00 00
	00		 jmp	 DWORD PTR __imp_??1?$CStringT@DV?$StrTraitMFC_DLL@DV?$ChTraitsCRT@D@ATL@@@@@ATL@@QAE@XZ
__unwindfunclet$?LoadInfo@CTabSystemTradingEx@@QAEXXZ$1:
  00012	8d 4d e0	 lea	 ecx, DWORD PTR _szPctr$5[ebp]
  00015	ff 25 00 00 00
	00		 jmp	 DWORD PTR __imp_??1?$CStringT@DV?$StrTraitMFC_DLL@DV?$ChTraitsCRT@D@ATL@@@@@ATL@@QAE@XZ
  0001b	cc		 int	 3
  0001c	cc		 int	 3
  0001d	cc		 int	 3
  0001e	cc		 int	 3
  0001f	cc		 int	 3
__ehhandler$?LoadInfo@CTabSystemTradingEx@@QAEXXZ:
  00020	90		 npad	 1
  00021	90		 npad	 1
  00022	8b 54 24 08	 mov	 edx, DWORD PTR [esp+8]
  00026	8d 42 0c	 lea	 eax, DWORD PTR [edx+12]
  00029	8b 4a c8	 mov	 ecx, DWORD PTR [edx-56]
  0002c	33 c8		 xor	 ecx, eax
  0002e	e8 00 00 00 00	 call	 @__security_check_cookie@4
  00033	8b 4a fc	 mov	 ecx, DWORD PTR [edx-4]
  00036	33 c8		 xor	 ecx, eax
  00038	e8 00 00 00 00	 call	 @__security_check_cookie@4
  0003d	b8 00 00 00 00	 mov	 eax, OFFSET __ehfuncinfo$?LoadInfo@CTabSystemTradingEx@@QAEXXZ
  00042	e9 00 00 00 00	 jmp	 ___CxxFrameHandler3
text$x	ENDS
?LoadInfo@CTabSystemTradingEx@@QAEXXZ ENDP		; CTabSystemTradingEx::LoadInfo
; Function compile flags: /Ogtp
; File D:\git\src\IBK\IBK_DRFN\ProjSrc\SrcDrfn\Chart\MULTICHART\TabSystemTradingEx.cpp
; File C:\Program Files (x86)\Microsoft Visual Studio\2019\Community\VC\Tools\MSVC\14.29.30133\atlmfc\include\afxwin2.inl
; File C:\Program Files (x86)\Microsoft Visual Studio\2019\Community\VC\Tools\MSVC\14.29.30133\atlmfc\include\atltypes.h
; File C:\Program Files (x86)\Microsoft Visual Studio\2019\Community\VC\Tools\MSVC\14.29.30133\atlmfc\include\afxwin2.inl
; File D:\git\src\IBK\IBK_DRFN\ProjSrc\SrcDrfn\Chart\MULTICHART\TabSystemTradingEx.cpp
; File C:\Program Files (x86)\Microsoft Visual Studio\2019\Community\VC\Tools\MSVC\14.29.30133\atlmfc\include\atltypes.h
; File C:\Program Files (x86)\Microsoft Visual Studio\2019\Community\VC\Tools\MSVC\14.29.30133\atlmfc\include\afxwin2.inl
; File C:\Program Files (x86)\Microsoft Visual Studio\2019\Community\VC\Tools\MSVC\14.29.30133\atlmfc\include\atltypes.h
; File D:\git\src\IBK\IBK_DRFN\ProjSrc\SrcDrfn\Chart\MULTICHART\TabSystemTradingEx.cpp
; File C:\Program Files (x86)\Microsoft Visual Studio\2019\Community\VC\Tools\MSVC\14.29.30133\atlmfc\include\atltypes.h
; File D:\git\src\IBK\IBK_DRFN\ProjSrc\SrcDrfn\Chart\MULTICHART\TabSystemTradingEx.cpp
; File C:\Program Files (x86)\Microsoft Visual Studio\2019\Community\VC\Tools\MSVC\14.29.30133\atlmfc\include\atltypes.h
; File D:\git\src\IBK\IBK_DRFN\ProjSrc\SrcDrfn\Chart\MULTICHART\TabSystemTradingEx.cpp
; File C:\Program Files (x86)\Microsoft Visual Studio\2019\Community\VC\Tools\MSVC\14.29.30133\atlmfc\include\afxwin2.inl
; File D:\git\src\IBK\IBK_DRFN\ProjSrc\SrcDrfn\Chart\MULTICHART\TabSystemTradingEx.cpp
; File C:\Program Files (x86)\Microsoft Visual Studio\2019\Community\VC\Tools\MSVC\14.29.30133\atlmfc\include\afxwin2.inl
; File D:\git\src\IBK\IBK_DRFN\ProjSrc\SrcDrfn\Chart\MULTICHART\TabSystemTradingEx.cpp
; File C:\Program Files (x86)\Microsoft Visual Studio\2019\Community\VC\Tools\MSVC\14.29.30133\atlmfc\include\afxwin2.inl
; File D:\git\src\IBK\IBK_DRFN\ProjSrc\SrcDrfn\Chart\MULTICHART\TabSystemTradingEx.cpp
; File C:\Program Files (x86)\Microsoft Visual Studio\2019\Community\VC\Tools\MSVC\14.29.30133\atlmfc\include\atltypes.h
; File D:\git\src\IBK\IBK_DRFN\ProjSrc\SrcDrfn\Chart\MULTICHART\TabSystemTradingEx.cpp
;	COMDAT ?GetRectOfCtrl@CTabSystemTradingEx@@UAE?AVCRect@@HH@Z
_TEXT	SEGMENT
_this$GSCopy$1$ = -44					; size = 4
tv788 = -40						; size = 4
_rc1$ = -36						; size = 16
_rc2$1 = -20						; size = 16
__$ArrayPad$ = -4					; size = 4
___$ReturnUdt$ = 8					; size = 4
_nID$ = 12						; size = 4
_bInit$ = 16						; size = 4
?GetRectOfCtrl@CTabSystemTradingEx@@UAE?AVCRect@@HH@Z PROC ; CTabSystemTradingEx::GetRectOfCtrl, COMDAT
; _this$ = ecx

; 159  : {

  00000	55		 push	 ebp
  00001	8b ec		 mov	 ebp, esp
  00003	83 ec 2c	 sub	 esp, 44			; 0000002cH
  00006	a1 00 00 00 00	 mov	 eax, DWORD PTR ___security_cookie
  0000b	33 c5		 xor	 eax, ebp
  0000d	89 45 fc	 mov	 DWORD PTR __$ArrayPad$[ebp], eax
  00010	53		 push	 ebx
  00011	8b 5d 08	 mov	 ebx, DWORD PTR ___$ReturnUdt$[ebp]
  00014	0f 57 c0	 xorps	 xmm0, xmm0
  00017	56		 push	 esi
  00018	8b f1		 mov	 esi, ecx
  0001a	57		 push	 edi
; File C:\Program Files (x86)\Microsoft Visual Studio\2019\Community\VC\Tools\MSVC\14.29.30133\atlmfc\include\afxwin2.inl

; 86   : 	{ ASSERT(::IsWindow(m_hWnd)); ::GetClientRect(m_hWnd, lpRect); }

  0001b	53		 push	 ebx
; File C:\Program Files (x86)\Microsoft Visual Studio\2019\Community\VC\Tools\MSVC\14.29.30133\atlmfc\include\atltypes.h

; 528  : 	left = 0;

  0001c	c7 03 00 00 00
	00		 mov	 DWORD PTR [ebx], 0

; 529  : 	top = 0;

  00022	c7 43 04 00 00
	00 00		 mov	 DWORD PTR [ebx+4], 0

; 530  : 	right = 0;

  00029	c7 43 08 00 00
	00 00		 mov	 DWORD PTR [ebx+8], 0

; 531  : 	bottom = 0;

  00030	c7 43 0c 00 00
	00 00		 mov	 DWORD PTR [ebx+12], 0
; File C:\Program Files (x86)\Microsoft Visual Studio\2019\Community\VC\Tools\MSVC\14.29.30133\atlmfc\include\afxwin2.inl

; 86   : 	{ ASSERT(::IsWindow(m_hWnd)); ::GetClientRect(m_hWnd, lpRect); }

  00037	ff 76 20	 push	 DWORD PTR [esi+32]
; File D:\git\src\IBK\IBK_DRFN\ProjSrc\SrcDrfn\Chart\MULTICHART\TabSystemTradingEx.cpp

; 159  : {

  0003a	89 75 d4	 mov	 DWORD PTR _this$GSCopy$1$[ebp], esi
; File C:\Program Files (x86)\Microsoft Visual Studio\2019\Community\VC\Tools\MSVC\14.29.30133\atlmfc\include\atltypes.h

; 528  : 	left = 0;

  0003d	0f 11 45 dc	 movups	 XMMWORD PTR _rc1$[ebp], xmm0
; File C:\Program Files (x86)\Microsoft Visual Studio\2019\Community\VC\Tools\MSVC\14.29.30133\atlmfc\include\afxwin2.inl

; 86   : 	{ ASSERT(::IsWindow(m_hWnd)); ::GetClientRect(m_hWnd, lpRect); }

  00041	ff 15 00 00 00
	00		 call	 DWORD PTR __imp__GetClientRect@8
; File C:\Program Files (x86)\Microsoft Visual Studio\2019\Community\VC\Tools\MSVC\14.29.30133\atlmfc\include\atltypes.h

; 933  : 	top += t;

  00047	8b 4b 04	 mov	 ecx, DWORD PTR [ebx+4]
  0004a	8b 13		 mov	 edx, DWORD PTR [ebx]
  0004c	8d 41 04	 lea	 eax, DWORD PTR [ecx+4]
  0004f	89 45 d8	 mov	 DWORD PTR tv788[ebp], eax
  00052	8d 7a 02	 lea	 edi, DWORD PTR [edx+2]
  00055	89 43 04	 mov	 DWORD PTR [ebx+4], eax
; File D:\git\src\IBK\IBK_DRFN\ProjSrc\SrcDrfn\Chart\MULTICHART\TabSystemTradingEx.cpp

; 165  : 	switch(nID)

  00058	8b 45 0c	 mov	 eax, DWORD PTR _nID$[ebp]
; File C:\Program Files (x86)\Microsoft Visual Studio\2019\Community\VC\Tools\MSVC\14.29.30133\atlmfc\include\atltypes.h

; 932  : 	left += l;

  0005b	89 3b		 mov	 DWORD PTR [ebx], edi
; File D:\git\src\IBK\IBK_DRFN\ProjSrc\SrcDrfn\Chart\MULTICHART\TabSystemTradingEx.cpp

; 165  : 	switch(nID)

  0005d	3d 67 18 00 00	 cmp	 eax, 6247		; 00001867H
  00062	0f 8f 25 01 00
	00		 jg	 $LN14@GetRectOfC
  00068	0f 84 06 01 00
	00		 je	 $LN10@GetRectOfC
  0006e	2d e8 03 00 00	 sub	 eax, 1000		; 000003e8H
  00073	74 48		 je	 SHORT $LN4@GetRectOfC
  00075	2d 7b 14 00 00	 sub	 eax, 5243		; 0000147bH
  0007a	74 22		 je	 SHORT $LN11@GetRectOfC
  0007c	83 e8 03	 sub	 eax, 3
  0007f	0f 85 33 01 00
	00		 jne	 $LN12@GetRectOfC

; 211  : 			break;
; 212  : 		case IDC_STOPTIMA:
; 213  : 			rect.bottom = rect.top + HEIGHTOFBUTTON;

  00085	8b 45 d8	 mov	 eax, DWORD PTR tv788[ebp]
  00088	83 c0 14	 add	 eax, 20			; 00000014H
  0008b	89 43 0c	 mov	 DWORD PTR [ebx+12], eax

; 214  : 			rect.left = rect.left + 58 + 2;

  0008e	8d 47 3c	 lea	 eax, DWORD PTR [edi+60]
  00091	89 03		 mov	 DWORD PTR [ebx], eax

; 215  : 			rect.right = rect.left + 58;

  00093	83 c0 3a	 add	 eax, 58			; 0000003aH
  00096	89 43 08	 mov	 DWORD PTR [ebx+8], eax

; 216  : 			break;

  00099	e9 1a 01 00 00	 jmp	 $LN12@GetRectOfC
$LN11@GetRectOfC:

; 228  : 		case IDC_STSHOWOPTION:
; 229  : 			rect.top = rect.top + HEIGHTOFBUTTON * 1 + Y_GAP * 1;

  0009e	8d 41 1a	 lea	 eax, DWORD PTR [ecx+26]
  000a1	89 43 04	 mov	 DWORD PTR [ebx+4], eax

; 230  : 			rect.bottom = rect.top + HEIGHTOFBUTTON;

  000a4	83 c0 14	 add	 eax, 20			; 00000014H
  000a7	89 43 0c	 mov	 DWORD PTR [ebx+12], eax

; 231  : 			rect.left = rect.left + 58 + 2 + 23 + 58 + 2;

  000aa	8d 82 91 00 00
	00		 lea	 eax, DWORD PTR [edx+145]
  000b0	89 03		 mov	 DWORD PTR [ebx], eax

; 232  : 			rect.right = rect.left + 20;

  000b2	83 c0 14	 add	 eax, 20			; 00000014H
  000b5	89 43 08	 mov	 DWORD PTR [ebx+8], eax

; 233  : 			break;

  000b8	e9 fb 00 00 00	 jmp	 $LN12@GetRectOfC
$LN4@GetRectOfC:
  000bd	0f 57 c0	 xorps	 xmm0, xmm0

; 169  : 				GetDlgItem(IDC_STFRAME2)->GetWindowRect(rc2);

  000c0	8b ce		 mov	 ecx, esi
  000c2	68 b1 17 00 00	 push	 6065			; 000017b1H
; File C:\Program Files (x86)\Microsoft Visual Studio\2019\Community\VC\Tools\MSVC\14.29.30133\atlmfc\include\atltypes.h

; 528  : 	left = 0;

  000c7	0f 11 45 ec	 movups	 XMMWORD PTR _rc2$1[ebp], xmm0
; File D:\git\src\IBK\IBK_DRFN\ProjSrc\SrcDrfn\Chart\MULTICHART\TabSystemTradingEx.cpp

; 169  : 				GetDlgItem(IDC_STFRAME2)->GetWindowRect(rc2);

  000cb	e8 00 00 00 00	 call	 ?GetDlgItem@CWnd@@QBEPAV1@H@Z ; CWnd::GetDlgItem
; File C:\Program Files (x86)\Microsoft Visual Studio\2019\Community\VC\Tools\MSVC\14.29.30133\atlmfc\include\afxwin2.inl

; 84   : 	{ ASSERT(::IsWindow(m_hWnd)); ::GetWindowRect(m_hWnd, lpRect); }

  000d0	8b 3d 00 00 00
	00		 mov	 edi, DWORD PTR __imp__GetWindowRect@8
  000d6	8d 4d ec	 lea	 ecx, DWORD PTR _rc2$1[ebp]
  000d9	51		 push	 ecx
  000da	ff 70 20	 push	 DWORD PTR [eax+32]
  000dd	ff d7		 call	 edi
; File D:\git\src\IBK\IBK_DRFN\ProjSrc\SrcDrfn\Chart\MULTICHART\TabSystemTradingEx.cpp

; 170  : 				ScreenToClient(rc2);

  000df	8d 45 ec	 lea	 eax, DWORD PTR _rc2$1[ebp]
  000e2	8b ce		 mov	 ecx, esi
  000e4	50		 push	 eax
  000e5	e8 00 00 00 00	 call	 ?ScreenToClient@CWnd@@QBEXPAUtagRECT@@@Z ; CWnd::ScreenToClient

; 171  : 				rc2.bottom = rect.bottom-Y_GAP;

  000ea	8b 43 0c	 mov	 eax, DWORD PTR [ebx+12]

; 172  : 				GetDlgItem(IDC_STFRAME2)->MoveWindow(rc2);

  000ed	8b ce		 mov	 ecx, esi
  000ef	83 e8 02	 sub	 eax, 2
  000f2	68 b1 17 00 00	 push	 6065			; 000017b1H
  000f7	89 45 f8	 mov	 DWORD PTR _rc2$1[ebp+12], eax
  000fa	e8 00 00 00 00	 call	 ?GetDlgItem@CWnd@@QBEPAV1@H@Z ; CWnd::GetDlgItem
; File C:\Program Files (x86)\Microsoft Visual Studio\2019\Community\VC\Tools\MSVC\14.29.30133\atlmfc\include\afxwin2.inl

; 73   : 	{ MoveWindow(lpRect->left, lpRect->top, lpRect->right - lpRect->left,

  000ff	8b 4d f8	 mov	 ecx, DWORD PTR _rc2$1[ebp+12]
  00102	8b 75 f0	 mov	 esi, DWORD PTR _rc2$1[ebp+4]
  00105	2b ce		 sub	 ecx, esi
  00107	8b 55 ec	 mov	 edx, DWORD PTR _rc2$1[ebp]
  0010a	6a 01		 push	 1
  0010c	51		 push	 ecx
  0010d	8b 4d f4	 mov	 ecx, DWORD PTR _rc2$1[ebp+8]
  00110	2b ca		 sub	 ecx, edx
  00112	51		 push	 ecx
  00113	56		 push	 esi
  00114	52		 push	 edx
  00115	8b c8		 mov	 ecx, eax
  00117	e8 00 00 00 00	 call	 ?MoveWindow@CWnd@@QAEXHHHHH@Z ; CWnd::MoveWindow
; File D:\git\src\IBK\IBK_DRFN\ProjSrc\SrcDrfn\Chart\MULTICHART\TabSystemTradingEx.cpp

; 178  : 			GetDlgItem(IDC_STFRAME1)->GetWindowRect(rc1);

  0011c	8b 75 d4	 mov	 esi, DWORD PTR _this$GSCopy$1$[ebp]
  0011f	8b ce		 mov	 ecx, esi
  00121	83 43 04 2e	 add	 DWORD PTR [ebx+4], 46	; 0000002eH
  00125	83 43 0c fe	 add	 DWORD PTR [ebx+12], -2	; fffffffeH
  00129	68 78 18 00 00	 push	 6264			; 00001878H
  0012e	e8 00 00 00 00	 call	 ?GetDlgItem@CWnd@@QBEPAV1@H@Z ; CWnd::GetDlgItem
; File C:\Program Files (x86)\Microsoft Visual Studio\2019\Community\VC\Tools\MSVC\14.29.30133\atlmfc\include\afxwin2.inl

; 84   : 	{ ASSERT(::IsWindow(m_hWnd)); ::GetWindowRect(m_hWnd, lpRect); }

  00133	8d 4d dc	 lea	 ecx, DWORD PTR _rc1$[ebp]
  00136	51		 push	 ecx
  00137	ff 70 20	 push	 DWORD PTR [eax+32]
  0013a	ff d7		 call	 edi
; File D:\git\src\IBK\IBK_DRFN\ProjSrc\SrcDrfn\Chart\MULTICHART\TabSystemTradingEx.cpp

; 180  : 			if(m_bShowOption)

  0013c	83 be bc 07 00
	00 00		 cmp	 DWORD PTR [esi+1980], 0
  00143	8b 55 e8	 mov	 edx, DWORD PTR _rc1$[ebp+12]
  00146	8b 7d e0	 mov	 edi, DWORD PTR _rc1$[ebp+4]
  00149	74 07		 je	 SHORT $LN5@GetRectOfC

; 181  : 			{
; 182  : 				rect.top = rect.top + rc1.Height();

  0014b	8b c2		 mov	 eax, edx
  0014d	2b c7		 sub	 eax, edi
  0014f	01 43 04	 add	 DWORD PTR [ebx+4], eax
$LN5@GetRectOfC:

; 183  : 			}
; 184  : //			rect.left += 1;	// KHD :   
; 185  : 
; 186  : 			if(m_pDlgOption)

  00152	8b 8e c0 07 00
	00		 mov	 ecx, DWORD PTR [esi+1984]
  00158	85 c9		 test	 ecx, ecx
  0015a	74 5c		 je	 SHORT $LN12@GetRectOfC
; File C:\Program Files (x86)\Microsoft Visual Studio\2019\Community\VC\Tools\MSVC\14.29.30133\atlmfc\include\atltypes.h

; 576  : 	return right - left;

  0015c	8b 43 08	 mov	 eax, DWORD PTR [ebx+8]

; 581  : 	return bottom - top;

  0015f	2b d7		 sub	 edx, edi

; 576  : 	return right - left;

  00161	2b 03		 sub	 eax, DWORD PTR [ebx]
; File D:\git\src\IBK\IBK_DRFN\ProjSrc\SrcDrfn\Chart\MULTICHART\TabSystemTradingEx.cpp

; 189  : 				m_pDlgOption->SetWindowPos(NULL, 0, 0, cx, cy, SWP_NOACTIVATE|SWP_NOMOVE);

  00163	6a 12		 push	 18			; 00000012H
  00165	52		 push	 edx
  00166	50		 push	 eax
  00167	6a 00		 push	 0
  00169	6a 00		 push	 0
  0016b	6a 00		 push	 0
  0016d	e8 00 00 00 00	 call	 ?SetWindowPos@CWnd@@QAEHPBV1@HHHHI@Z ; CWnd::SetWindowPos

; 190  : 			}
; 191  : 			break;

  00172	eb 44		 jmp	 SHORT $LN12@GetRectOfC
$LN10@GetRectOfC:

; 222  : 		case IDC_STANAL:
; 223  : 			rect.top = rect.top + HEIGHTOFBUTTON * 1 + Y_GAP * 1;

  00174	8d 41 1a	 lea	 eax, DWORD PTR [ecx+26]
  00177	89 43 04	 mov	 DWORD PTR [ebx+4], eax

; 224  : 			rect.bottom = rect.top + HEIGHTOFBUTTON;

  0017a	83 c0 14	 add	 eax, 20			; 00000014H
  0017d	89 43 0c	 mov	 DWORD PTR [ebx+12], eax

; 225  : 			rect.left = rect.left + 58 + 2 + 23;

  00180	8d 42 55	 lea	 eax, DWORD PTR [edx+85]
  00183	89 03		 mov	 DWORD PTR [ebx], eax

; 226  : 			rect.right = rect.left + 58;

  00185	83 c0 3a	 add	 eax, 58			; 0000003aH
  00188	89 43 08	 mov	 DWORD PTR [ebx+8], eax

; 227  : 			break;

  0018b	eb 2b		 jmp	 SHORT $LN12@GetRectOfC
$LN14@GetRectOfC:

; 165  : 	switch(nID)

  0018d	2d 77 18 00 00	 sub	 eax, 6263		; 00001877H
  00192	74 18		 je	 SHORT $LN7@GetRectOfC
  00194	83 e8 1b	 sub	 eax, 27			; 0000001bH
  00197	75 1f		 jne	 SHORT $LN12@GetRectOfC

; 217  : 		case IDC_STDELETE:
; 218  : 			rect.bottom = rect.top + HEIGHTOFBUTTON;

  00199	8d 41 18	 lea	 eax, DWORD PTR [ecx+24]
  0019c	89 43 0c	 mov	 DWORD PTR [ebx+12], eax

; 219  : 			rect.left = rect.left + 58 + 2 + 58 + 2;

  0019f	8d 42 7a	 lea	 eax, DWORD PTR [edx+122]
  001a2	89 03		 mov	 DWORD PTR [ebx], eax

; 220  : 			rect.right = rect.left + 43;

  001a4	83 c0 2b	 add	 eax, 43			; 0000002bH
  001a7	89 43 08	 mov	 DWORD PTR [ebx+8], eax

; 221  : 			break;

  001aa	eb 0c		 jmp	 SHORT $LN12@GetRectOfC
$LN7@GetRectOfC:

; 192  : 
; 193  : //		case IDC_STWIZARDA:
; 194  : //			rect.bottom = rect.top + HEIGHTOFBUTTON;
; 195  : //			rect.right = rect.left + 58 +15;
; 196  : //			break;
; 197  : //		case IDC_STOPTIMA:
; 198  : //			rect.bottom = rect.top + HEIGHTOFBUTTON;
; 199  : //			rect.left = rect.left + 58 + GAP_TABDLG +15;
; 200  : //			rect.right = rect.left + 58 +15;
; 201  : //			break;
; 202  : //		case IDC_STANAL:
; 203  : //			rect.top = rect.top + HEIGHTOFBUTTON * 1 + Y_GAP * 1;
; 204  : //			rect.bottom = rect.top + HEIGHTOFBUTTON;
; 205  : //			rect.left = rect.left + 58 + GAP_TABDLG -15;
; 206  : //			rect.right = rect.left + 58 +15;
; 207  : //			break;
; 208  : 		case IDC_STWIZARDA:
; 209  : 			rect.bottom = rect.top + HEIGHTOFBUTTON;

  001ac	83 c1 18	 add	 ecx, 24			; 00000018H
  001af	89 4b 0c	 mov	 DWORD PTR [ebx+12], ecx

; 210  : 			rect.right = rect.left + 58;

  001b2	8d 4a 3c	 lea	 ecx, DWORD PTR [edx+60]
  001b5	89 4b 08	 mov	 DWORD PTR [ebx+8], ecx
$LN12@GetRectOfC:

; 234  : 
; 235  : 		default:
; 236  : 			break;
; 237  : 	}
; 238  : 	return rect;
; 239  : }

  001b8	8b 4d fc	 mov	 ecx, DWORD PTR __$ArrayPad$[ebp]
  001bb	8b c3		 mov	 eax, ebx
  001bd	5f		 pop	 edi
  001be	5e		 pop	 esi
  001bf	33 cd		 xor	 ecx, ebp
  001c1	5b		 pop	 ebx
  001c2	e8 00 00 00 00	 call	 @__security_check_cookie@4
  001c7	8b e5		 mov	 esp, ebp
  001c9	5d		 pop	 ebp
  001ca	c2 0c 00	 ret	 12			; 0000000cH
?GetRectOfCtrl@CTabSystemTradingEx@@UAE?AVCRect@@HH@Z ENDP ; CTabSystemTradingEx::GetRectOfCtrl
_TEXT	ENDS
; Function compile flags: /Ogtp
; File D:\git\src\IBK\IBK_DRFN\ProjSrc\SrcDrfn\Chart\MULTICHART\TabSystemTradingEx.cpp
;	COMDAT ?RecalcLayout@CTabSystemTradingEx@@QAEXXZ
_TEXT	SEGMENT
?RecalcLayout@CTabSystemTradingEx@@QAEXXZ PROC		; CTabSystemTradingEx::RecalcLayout, COMDAT
; _this$ = ecx

; 143  : {

  00000	56		 push	 esi
  00001	8b f1		 mov	 esi, ecx

; 144  : 	if(!m_pWndOutBar) return;

  00003	8b 8e 18 08 00
	00		 mov	 ecx, DWORD PTR [esi+2072]
  00009	85 c9		 test	 ecx, ecx
  0000b	74 63		 je	 SHORT $LN1@RecalcLayo

; 145  : 
; 146  : 	//RecalcLayoutCtrl(m_wndOutBar);
; 147  : 	CWnd* pWndOutBar = m_pWndOutBar->GetCoutBarCtrl();

  0000d	8b 01		 mov	 eax, DWORD PTR [ecx]
  0000f	51		 push	 ecx
  00010	ff 10		 call	 DWORD PTR [eax]

; 148  : 	if(!pWndOutBar)return;

  00012	85 c0		 test	 eax, eax
  00014	74 5a		 je	 SHORT $LN1@RecalcLayo

; 149  : 
; 150  : 	RecalcLayoutCtrl(*pWndOutBar);

  00016	6a 00		 push	 0
  00018	50		 push	 eax
  00019	8b ce		 mov	 ecx, esi
  0001b	e8 00 00 00 00	 call	 ?RecalcLayoutCtrl@CTabDlg@@IAEXAAVCWnd@@H@Z ; CTabDlg::RecalcLayoutCtrl

; 151  : 	RecalcLayoutCtrl(m_BtnStwizardA);

  00020	6a 00		 push	 0
  00022	8d 86 d8 00 00
	00		 lea	 eax, DWORD PTR [esi+216]
  00028	8b ce		 mov	 ecx, esi
  0002a	50		 push	 eax
  0002b	e8 00 00 00 00	 call	 ?RecalcLayoutCtrl@CTabDlg@@IAEXAAVCWnd@@H@Z ; CTabDlg::RecalcLayoutCtrl

; 152  : 	RecalcLayoutCtrl(m_BtnStoptimaA);

  00030	6a 00		 push	 0
  00032	8d 86 38 02 00
	00		 lea	 eax, DWORD PTR [esi+568]
  00038	8b ce		 mov	 ecx, esi
  0003a	50		 push	 eax
  0003b	e8 00 00 00 00	 call	 ?RecalcLayoutCtrl@CTabDlg@@IAEXAAVCWnd@@H@Z ; CTabDlg::RecalcLayoutCtrl

; 153  : 	RecalcLayoutCtrl(m_BtnStDelete);

  00040	6a 00		 push	 0
  00042	8d 86 98 03 00
	00		 lea	 eax, DWORD PTR [esi+920]
  00048	8b ce		 mov	 ecx, esi
  0004a	50		 push	 eax
  0004b	e8 00 00 00 00	 call	 ?RecalcLayoutCtrl@CTabDlg@@IAEXAAVCWnd@@H@Z ; CTabDlg::RecalcLayoutCtrl

; 154  : 	RecalcLayoutCtrl(m_BtnStanal);

  00050	6a 00		 push	 0
  00052	8d 86 f8 04 00
	00		 lea	 eax, DWORD PTR [esi+1272]
  00058	8b ce		 mov	 ecx, esi
  0005a	50		 push	 eax
  0005b	e8 00 00 00 00	 call	 ?RecalcLayoutCtrl@CTabDlg@@IAEXAAVCWnd@@H@Z ; CTabDlg::RecalcLayoutCtrl

; 155  : 	RecalcLayoutCtrl(m_BtnOption);

  00060	6a 00		 push	 0
  00062	8d 86 58 06 00
	00		 lea	 eax, DWORD PTR [esi+1624]
  00068	8b ce		 mov	 ecx, esi
  0006a	50		 push	 eax
  0006b	e8 00 00 00 00	 call	 ?RecalcLayoutCtrl@CTabDlg@@IAEXAAVCWnd@@H@Z ; CTabDlg::RecalcLayoutCtrl
$LN1@RecalcLayo:

; 156  : }

  00070	5e		 pop	 esi
  00071	c3		 ret	 0
?RecalcLayout@CTabSystemTradingEx@@QAEXXZ ENDP		; CTabSystemTradingEx::RecalcLayout
_TEXT	ENDS
; Function compile flags: /Ogtp
; File D:\git\src\IBK\IBK_DRFN\ProjSrc\SrcDrfn\Chart\MULTICHART\TabSystemTradingEx.cpp
;	COMDAT ?InitControl@CTabSystemTradingEx@@QAEXXZ
_TEXT	SEGMENT
?InitControl@CTabSystemTradingEx@@QAEXXZ PROC		; CTabSystemTradingEx::InitControl, COMDAT
; _this$ = ecx

; 995  : {

  00000	55		 push	 ebp
  00001	8b ec		 mov	 ebp, esp
  00003	51		 push	 ecx
  00004	56		 push	 esi
  00005	57		 push	 edi

; 996  : //	m_BtnStwizardA.FP_vSetImage(m_pIL_W72H20, 0, 2, TRUE, "", FALSE);
; 997  : //	m_BtnStwizardA.FP_vSetToolTipText("");
; 998  : //
; 999  : //	m_BtnStoptimaA.FP_vSetImage(m_pIL_W72H20, 0, 2, TRUE, "", FALSE);
; 1000 : //	m_BtnStoptimaA.FP_vSetToolTipText("");
; 1001 : //
; 1002 : //	m_BtnStanal.FP_vSetImage(m_pIL_W72H20, 0, 2, TRUE, "", FALSE);
; 1003 : //	m_BtnStanal.FP_vSetToolTipText("");
; 1004 : 	m_BtnStwizardA.FP_vSetImage(m_pIL_W58H20, 0, 2, TRUE, "", FALSE);

  00006	6a ff		 push	 -1
  00008	6a ff		 push	 -1
  0000a	6a 00		 push	 0
  0000c	51		 push	 ecx
  0000d	8b f9		 mov	 edi, ecx
  0000f	8b cc		 mov	 ecx, esp
  00011	68 00 00 00 00	 push	 OFFSET ??_C@_08FFNCOOBK@?$MA?$PM?$LH?$KL?$MA?$NL?$LM?$LK@
  00016	ff 15 00 00 00
	00		 call	 DWORD PTR __imp_??0?$CStringT@DV?$StrTraitMFC_DLL@DV?$ChTraitsCRT@D@ATL@@@@@ATL@@QAE@PBD@Z
  0001c	6a 01		 push	 1
  0001e	6a 02		 push	 2
  00020	6a 00		 push	 0
  00022	ff b7 b4 00 00
	00		 push	 DWORD PTR [edi+180]
  00028	8d 8f d8 00 00
	00		 lea	 ecx, DWORD PTR [edi+216]
  0002e	e8 00 00 00 00	 call	 ?FP_vSetImage@CILButton@@QAEXPAVCImageList@@HHHV?$CStringT@DV?$StrTraitMFC_DLL@DV?$ChTraitsCRT@D@ATL@@@@@ATL@@HHH@Z ; CILButton::FP_vSetImage

; 1005 : 	m_BtnStwizardA.FP_vSetToolTipText("");

  00033	51		 push	 ecx
  00034	8b cc		 mov	 ecx, esp
  00036	68 00 00 00 00	 push	 OFFSET ??_C@_08FFNCOOBK@?$MA?$PM?$LH?$KL?$MA?$NL?$LM?$LK@
  0003b	ff 15 00 00 00
	00		 call	 DWORD PTR __imp_??0?$CStringT@DV?$StrTraitMFC_DLL@DV?$ChTraitsCRT@D@ATL@@@@@ATL@@QAE@PBD@Z
  00041	8d 8f d8 00 00
	00		 lea	 ecx, DWORD PTR [edi+216]
  00047	e8 00 00 00 00	 call	 ?FP_vSetToolTipText@CILButton@@QAEXV?$CStringT@DV?$StrTraitMFC_DLL@DV?$ChTraitsCRT@D@ATL@@@@@ATL@@@Z ; CILButton::FP_vSetToolTipText

; 1006 : 
; 1007 : 	m_BtnStoptimaA.FP_vSetImage(m_pIL_W58H20, 0, 2, TRUE, "", FALSE);

  0004c	6a ff		 push	 -1
  0004e	6a ff		 push	 -1
  00050	6a 00		 push	 0
  00052	51		 push	 ecx
  00053	8b cc		 mov	 ecx, esp
  00055	68 00 00 00 00	 push	 OFFSET ??_C@_06GHGGCGIE@?C?V?$MA?$PL?H?$KN@
  0005a	ff 15 00 00 00
	00		 call	 DWORD PTR __imp_??0?$CStringT@DV?$StrTraitMFC_DLL@DV?$ChTraitsCRT@D@ATL@@@@@ATL@@QAE@PBD@Z
  00060	6a 01		 push	 1
  00062	6a 02		 push	 2
  00064	6a 00		 push	 0
  00066	ff b7 b4 00 00
	00		 push	 DWORD PTR [edi+180]
  0006c	8d 8f 38 02 00
	00		 lea	 ecx, DWORD PTR [edi+568]
  00072	e8 00 00 00 00	 call	 ?FP_vSetImage@CILButton@@QAEXPAVCImageList@@HHHV?$CStringT@DV?$StrTraitMFC_DLL@DV?$ChTraitsCRT@D@ATL@@@@@ATL@@HHH@Z ; CILButton::FP_vSetImage

; 1008 : 	m_BtnStoptimaA.FP_vSetToolTipText("");

  00077	51		 push	 ecx
  00078	8b cc		 mov	 ecx, esp
  0007a	68 00 00 00 00	 push	 OFFSET ??_C@_06GHGGCGIE@?C?V?$MA?$PL?H?$KN@
  0007f	ff 15 00 00 00
	00		 call	 DWORD PTR __imp_??0?$CStringT@DV?$StrTraitMFC_DLL@DV?$ChTraitsCRT@D@ATL@@@@@ATL@@QAE@PBD@Z
  00085	8d 8f 38 02 00
	00		 lea	 ecx, DWORD PTR [edi+568]
  0008b	e8 00 00 00 00	 call	 ?FP_vSetToolTipText@CILButton@@QAEXV?$CStringT@DV?$StrTraitMFC_DLL@DV?$ChTraitsCRT@D@ATL@@@@@ATL@@@Z ; CILButton::FP_vSetToolTipText

; 1009 : 
; 1010 : 	m_BtnStDelete.FP_vSetImage(m_pIL_W43H20, 0, 2, TRUE, "", FALSE);

  00090	6a ff		 push	 -1
  00092	6a ff		 push	 -1
  00094	6a 00		 push	 0
  00096	51		 push	 ecx
  00097	8b cc		 mov	 ecx, esp
  00099	68 00 00 00 00	 push	 OFFSET ??_C@_04OJDIEKEH@?G?X?A?$KG@
  0009e	ff 15 00 00 00
	00		 call	 DWORD PTR __imp_??0?$CStringT@DV?$StrTraitMFC_DLL@DV?$ChTraitsCRT@D@ATL@@@@@ATL@@QAE@PBD@Z
  000a4	6a 01		 push	 1
  000a6	6a 02		 push	 2
  000a8	6a 00		 push	 0
  000aa	ff b7 b0 00 00
	00		 push	 DWORD PTR [edi+176]
  000b0	8d 8f 98 03 00
	00		 lea	 ecx, DWORD PTR [edi+920]
  000b6	e8 00 00 00 00	 call	 ?FP_vSetImage@CILButton@@QAEXPAVCImageList@@HHHV?$CStringT@DV?$StrTraitMFC_DLL@DV?$ChTraitsCRT@D@ATL@@@@@ATL@@HHH@Z ; CILButton::FP_vSetImage

; 1011 : 	m_BtnStDelete.FP_vSetToolTipText("");

  000bb	51		 push	 ecx
  000bc	8b cc		 mov	 ecx, esp
  000be	68 00 00 00 00	 push	 OFFSET ??_C@_04OJDIEKEH@?G?X?A?$KG@
  000c3	ff 15 00 00 00
	00		 call	 DWORD PTR __imp_??0?$CStringT@DV?$StrTraitMFC_DLL@DV?$ChTraitsCRT@D@ATL@@@@@ATL@@QAE@PBD@Z
  000c9	8d 8f 98 03 00
	00		 lea	 ecx, DWORD PTR [edi+920]
  000cf	e8 00 00 00 00	 call	 ?FP_vSetToolTipText@CILButton@@QAEXV?$CStringT@DV?$StrTraitMFC_DLL@DV?$ChTraitsCRT@D@ATL@@@@@ATL@@@Z ; CILButton::FP_vSetToolTipText

; 1012 : 
; 1013 : 	m_BtnStanal.FP_vSetImage(m_pIL_W58H20, 0, 2, TRUE, "", FALSE);

  000d4	6a ff		 push	 -1
  000d6	6a ff		 push	 -1
  000d8	6a 00		 push	 0
  000da	51		 push	 ecx
  000db	8b cc		 mov	 ecx, esp
  000dd	68 00 00 00 00	 push	 OFFSET ??_C@_08OEAPFIFH@?$LM?$LK?$LA?z?$LK?P?$LM?$KO@
  000e2	ff 15 00 00 00
	00		 call	 DWORD PTR __imp_??0?$CStringT@DV?$StrTraitMFC_DLL@DV?$ChTraitsCRT@D@ATL@@@@@ATL@@QAE@PBD@Z
  000e8	6a 01		 push	 1
  000ea	6a 02		 push	 2
  000ec	6a 00		 push	 0
  000ee	ff b7 b4 00 00
	00		 push	 DWORD PTR [edi+180]
  000f4	8d 8f f8 04 00
	00		 lea	 ecx, DWORD PTR [edi+1272]
  000fa	e8 00 00 00 00	 call	 ?FP_vSetImage@CILButton@@QAEXPAVCImageList@@HHHV?$CStringT@DV?$StrTraitMFC_DLL@DV?$ChTraitsCRT@D@ATL@@@@@ATL@@HHH@Z ; CILButton::FP_vSetImage

; 1014 : 	m_BtnStanal.FP_vSetToolTipText("");

  000ff	51		 push	 ecx
  00100	8b cc		 mov	 ecx, esp
  00102	68 00 00 00 00	 push	 OFFSET ??_C@_06PKADKHFF@?$MA?g?A?$LG?H?$LI@
  00107	ff 15 00 00 00
	00		 call	 DWORD PTR __imp_??0?$CStringT@DV?$StrTraitMFC_DLL@DV?$ChTraitsCRT@D@ATL@@@@@ATL@@QAE@PBD@Z
  0010d	8d 8f f8 04 00
	00		 lea	 ecx, DWORD PTR [edi+1272]
  00113	e8 00 00 00 00	 call	 ?FP_vSetToolTipText@CILButton@@QAEXV?$CStringT@DV?$StrTraitMFC_DLL@DV?$ChTraitsCRT@D@ATL@@@@@ATL@@@Z ; CILButton::FP_vSetToolTipText

; 1015 : 	//KHD 
; 1016 : 	m_BtnOption.FP_vSetImage(m_pIL_W20H20, 48, 50,TRUE,"",FALSE);

  00118	6a ff		 push	 -1
  0011a	6a ff		 push	 -1
  0011c	6a 00		 push	 0
  0011e	51		 push	 ecx
  0011f	8b cc		 mov	 ecx, esp
  00121	68 00 00 00 00	 push	 OFFSET ??_C@_00CNPNBAHC@@
  00126	ff 15 00 00 00
	00		 call	 DWORD PTR __imp_??0?$CStringT@DV?$StrTraitMFC_DLL@DV?$ChTraitsCRT@D@ATL@@@@@ATL@@QAE@PBD@Z
  0012c	6a 01		 push	 1
  0012e	6a 32		 push	 50			; 00000032H
  00130	6a 30		 push	 48			; 00000030H
  00132	ff b7 a8 00 00
	00		 push	 DWORD PTR [edi+168]
  00138	8d 8f 58 06 00
	00		 lea	 ecx, DWORD PTR [edi+1624]
  0013e	e8 00 00 00 00	 call	 ?FP_vSetImage@CILButton@@QAEXPAVCImageList@@HHHV?$CStringT@DV?$StrTraitMFC_DLL@DV?$ChTraitsCRT@D@ATL@@@@@ATL@@HHH@Z ; CILButton::FP_vSetImage

; 1017 : }

  00143	5f		 pop	 edi
  00144	5e		 pop	 esi
  00145	8b e5		 mov	 esp, ebp
  00147	5d		 pop	 ebp
  00148	c3		 ret	 0
?InitControl@CTabSystemTradingEx@@QAEXXZ ENDP		; CTabSystemTradingEx::InitControl
_TEXT	ENDS
; Function compile flags: /Ogtp
; File D:\git\src\IBK\IBK_DRFN\ProjSrc\SrcDrfn\Chart\MULTICHART\TabSystemTradingEx.cpp
; File C:\Program Files (x86)\Microsoft Visual Studio\2019\Community\VC\Tools\MSVC\14.29.30133\atlmfc\include\afxtempl.h
; File D:\git\src\IBK\IBK_DRFN\ProjSrc\SrcDrfn\Chart\MULTICHART\TabSystemTradingEx.cpp
;	COMDAT ??1CTabSystemTradingEx@@UAE@XZ
_TEXT	SEGMENT
__$EHRec$ = -12						; size = 12
??1CTabSystemTradingEx@@UAE@XZ PROC			; CTabSystemTradingEx::~CTabSystemTradingEx, COMDAT
; _this$ = ecx

; 76   : {

  00000	55		 push	 ebp
  00001	8b ec		 mov	 ebp, esp
  00003	6a ff		 push	 -1
  00005	68 00 00 00 00	 push	 __ehhandler$??1CTabSystemTradingEx@@UAE@XZ
  0000a	64 a1 00 00 00
	00		 mov	 eax, DWORD PTR fs:0
  00010	50		 push	 eax
  00011	53		 push	 ebx
  00012	56		 push	 esi
  00013	57		 push	 edi
  00014	a1 00 00 00 00	 mov	 eax, DWORD PTR ___security_cookie
  00019	33 c5		 xor	 eax, ebp
  0001b	50		 push	 eax
  0001c	8d 45 f4	 lea	 eax, DWORD PTR __$EHRec$[ebp]
  0001f	64 a3 00 00 00
	00		 mov	 DWORD PTR fs:0, eax
  00025	8b f1		 mov	 esi, ecx
  00027	c7 06 00 00 00
	00		 mov	 DWORD PTR [esi], OFFSET ??_7CTabSystemTradingEx@@6B@
  0002d	8d be 64 09 00
	00		 lea	 edi, DWORD PTR [esi+2404]
  00033	bb 02 00 00 00	 mov	 ebx, 2
$LL4@CTabSystem:

; 78   : 		if(m_dwIAUDataMonitorManager[i])	m_pIAUDataMonitorManager->UnAdvise(m_dwIAUDataMonitorManager[i]);

  00038	8b 17		 mov	 edx, DWORD PTR [edi]
  0003a	85 d2		 test	 edx, edx
  0003c	74 0d		 je	 SHORT $LN2@CTabSystem
  0003e	8b 86 60 09 00
	00		 mov	 eax, DWORD PTR [esi+2400]
  00044	52		 push	 edx
  00045	50		 push	 eax
  00046	8b 08		 mov	 ecx, DWORD PTR [eax]
  00048	ff 51 04	 call	 DWORD PTR [ecx+4]
$LN2@CTabSystem:

; 77   : 	for(int i=0; i<2; i++)

  0004b	83 c7 04	 add	 edi, 4
  0004e	83 eb 01	 sub	 ebx, 1
  00051	75 e5		 jne	 SHORT $LL4@CTabSystem

; 79   : 
; 80   : 	if(m_pDlgOption && m_pDlgOption->GetSafeHwnd())

  00053	8b 8e c0 07 00
	00		 mov	 ecx, DWORD PTR [esi+1984]
  00059	8b d1		 mov	 edx, ecx
  0005b	85 c9		 test	 ecx, ecx
  0005d	74 10		 je	 SHORT $LN6@CTabSystem
  0005f	39 59 20	 cmp	 DWORD PTR [ecx+32], ebx
  00062	74 0f		 je	 SHORT $LN51@CTabSystem

; 81   : 		m_pDlgOption->DestroyWindow();

  00064	8b 01		 mov	 eax, DWORD PTR [ecx]
  00066	ff 50 68	 call	 DWORD PTR [eax+104]
  00069	8b 96 c0 07 00
	00		 mov	 edx, DWORD PTR [esi+1984]
$LN6@CTabSystem:

; 82   : 	SafeDelete(m_pDlgOption);

  0006f	85 d2		 test	 edx, edx
  00071	74 09		 je	 SHORT $LN9@CTabSystem
$LN51@CTabSystem:
  00073	8b 02		 mov	 eax, DWORD PTR [edx]
  00075	8b ca		 mov	 ecx, edx
  00077	6a 01		 push	 1
  00079	ff 50 04	 call	 DWORD PTR [eax+4]
$LN9@CTabSystem:

; 83   : //	m_ilSTIcon.DeleteImageList();
; 84   : //	m_ilW151H21.DeleteImageList();
; 85   : 	m_ImageListIcon.DeleteImageList();

  0007c	8d 8e c4 07 00
	00		 lea	 ecx, DWORD PTR [esi+1988]
  00082	c7 86 c0 07 00
	00 00 00 00 00	 mov	 DWORD PTR [esi+1984], 0
  0008c	e8 00 00 00 00	 call	 ?DeleteImageList@CImageList@@QAEHXZ ; CImageList::DeleteImageList

; 86   : 	m_ImageOutbarIcon.DeleteImageList();

  00091	8d 8e cc 07 00
	00		 lea	 ecx, DWORD PTR [esi+1996]
  00097	e8 00 00 00 00	 call	 ?DeleteImageList@CImageList@@QAEHXZ ; CImageList::DeleteImageList
; File C:\Program Files (x86)\Microsoft Visual Studio\2019\Community\VC\Tools\MSVC\14.29.30133\atlmfc\include\afxtempl.h

; 1446 : 	if (m_pHashTable != NULL)

  0009c	8b 86 b8 09 00
	00		 mov	 eax, DWORD PTR [esi+2488]

; 1472 : {

  000a2	c7 45 fc 00 00
	00 00		 mov	 DWORD PTR __$EHRec$[ebp+8], 0
  000a9	c7 86 b4 09 00
	00 00 00 00 00	 mov	 DWORD PTR [esi+2484], OFFSET ??_7?$CMap@PAVCConfirmWnd@@PAV1@JJ@@6B@

; 1446 : 	if (m_pHashTable != NULL)

  000b3	85 c0		 test	 eax, eax
  000b5	74 13		 je	 SHORT $LN25@CTabSystem

; 1447 : 	{
; 1448 : 		// destroy elements (values and keys)
; 1449 : 		for (UINT nHash = 0; nHash < m_nHashTableSize; nHash++)
; 1450 : 		{
; 1451 : 			CAssoc* pAssoc;
; 1452 : 			for (pAssoc = m_pHashTable[nHash]; pAssoc != NULL;
; 1453 : 			  pAssoc = pAssoc->pNext)
; 1454 : 			{
; 1455 : 				pAssoc->CAssoc::~CAssoc();
; 1456 : 			}
; 1457 : 		}
; 1458 : 
; 1459 : 		// free hash table
; 1460 : 		delete[] m_pHashTable;

  000b7	50		 push	 eax
  000b8	e8 00 00 00 00	 call	 ??_V@YAXPAX@Z		; operator delete[]
  000bd	83 c4 04	 add	 esp, 4

; 1461 : 		m_pHashTable = NULL;

  000c0	c7 86 b8 09 00
	00 00 00 00 00	 mov	 DWORD PTR [esi+2488], 0
$LN25@CTabSystem:

; 1462 : 	}
; 1463 : 
; 1464 : 	m_nCount = 0;
; 1465 : 	m_pFreeList = NULL;
; 1466 : 	m_pBlocks->FreeDataChain();

  000ca	8b 8e c8 09 00
	00		 mov	 ecx, DWORD PTR [esi+2504]
  000d0	c7 86 c0 09 00
	00 00 00 00 00	 mov	 DWORD PTR [esi+2496], 0
  000da	c7 86 c4 09 00
	00 00 00 00 00	 mov	 DWORD PTR [esi+2500], 0
  000e4	e8 00 00 00 00	 call	 ?FreeDataChain@CPlex@@QAEXXZ ; CPlex::FreeDataChain
  000e9	8d 8e 98 09 00
	00		 lea	 ecx, DWORD PTR [esi+2456]

; 1467 : 	m_pBlocks = NULL;

  000ef	c7 86 c8 09 00
	00 00 00 00 00	 mov	 DWORD PTR [esi+2504], 0
  000f9	ff 15 00 00 00
	00		 call	 DWORD PTR __imp_??1?$CStringT@DV?$StrTraitMFC_DLL@DV?$ChTraitsCRT@D@ATL@@@@@ATL@@QAE@XZ
  000ff	8d 8e 94 09 00
	00		 lea	 ecx, DWORD PTR [esi+2452]
  00105	ff 15 00 00 00
	00		 call	 DWORD PTR __imp_??1?$CStringT@DV?$StrTraitMFC_DLL@DV?$ChTraitsCRT@D@ATL@@@@@ATL@@QAE@XZ
  0010b	8d 8e 90 09 00
	00		 lea	 ecx, DWORD PTR [esi+2448]
  00111	ff 15 00 00 00
	00		 call	 DWORD PTR __imp_??1?$CStringT@DV?$StrTraitMFC_DLL@DV?$ChTraitsCRT@D@ATL@@@@@ATL@@QAE@XZ
  00117	8d 8e 80 09 00
	00		 lea	 ecx, DWORD PTR [esi+2432]
  0011d	ff 15 00 00 00
	00		 call	 DWORD PTR __imp_??1?$CStringT@DV?$StrTraitMFC_DLL@DV?$ChTraitsCRT@D@ATL@@@@@ATL@@QAE@XZ
  00123	8d 8e 7c 09 00
	00		 lea	 ecx, DWORD PTR [esi+2428]
  00129	ff 15 00 00 00
	00		 call	 DWORD PTR __imp_??1?$CStringT@DV?$StrTraitMFC_DLL@DV?$ChTraitsCRT@D@ATL@@@@@ATL@@QAE@XZ
  0012f	8d 8e 78 09 00
	00		 lea	 ecx, DWORD PTR [esi+2424]
  00135	ff 15 00 00 00
	00		 call	 DWORD PTR __imp_??1?$CStringT@DV?$StrTraitMFC_DLL@DV?$ChTraitsCRT@D@ATL@@@@@ATL@@QAE@XZ
; File D:\git\src\IBK\IBK_DRFN\ProjSrc\SrcDrfn\Chart\MULTICHART\TabSystemTradingEx.cpp

; 87   : }

  0013b	8d 8e 6c 09 00
	00		 lea	 ecx, DWORD PTR [esi+2412]
  00141	ff 15 00 00 00
	00		 call	 DWORD PTR __imp_??1?$CStringT@DV?$StrTraitMFC_DLL@DV?$ChTraitsCRT@D@ATL@@@@@ATL@@QAE@XZ
  00147	8d 8e c8 08 00
	00		 lea	 ecx, DWORD PTR [esi+2248]
  0014d	e8 00 00 00 00	 call	 ??1CSTExtTree@@UAE@XZ	; CSTExtTree::~CSTExtTree
  00152	8d 8e 30 08 00
	00		 lea	 ecx, DWORD PTR [esi+2096]
  00158	e8 00 00 00 00	 call	 ??1CSTBasicTree@@UAE@XZ	; CSTBasicTree::~CSTBasicTree
  0015d	8d 8e 24 08 00
	00		 lea	 ecx, DWORD PTR [esi+2084]
  00163	ff 15 00 00 00
	00		 call	 DWORD PTR __imp_??1?$CStringT@DV?$StrTraitMFC_DLL@DV?$ChTraitsCRT@D@ATL@@@@@ATL@@QAE@XZ
  00169	8d 8e 20 08 00
	00		 lea	 ecx, DWORD PTR [esi+2080]
  0016f	ff 15 00 00 00
	00		 call	 DWORD PTR __imp_??1?$CStringT@DV?$StrTraitMFC_DLL@DV?$ChTraitsCRT@D@ATL@@@@@ATL@@QAE@XZ
  00175	8d 8e 1c 08 00
	00		 lea	 ecx, DWORD PTR [esi+2076]
  0017b	ff 15 00 00 00
	00		 call	 DWORD PTR __imp_??1?$CStringT@DV?$StrTraitMFC_DLL@DV?$ChTraitsCRT@D@ATL@@@@@ATL@@QAE@XZ
  00181	8d 8e 04 08 00
	00		 lea	 ecx, DWORD PTR [esi+2052]
  00187	ff 15 00 00 00
	00		 call	 DWORD PTR __imp_??1?$CStringT@DV?$StrTraitMFC_DLL@DV?$ChTraitsCRT@D@ATL@@@@@ATL@@QAE@XZ
  0018d	8d 8e 00 08 00
	00		 lea	 ecx, DWORD PTR [esi+2048]
  00193	ff 15 00 00 00
	00		 call	 DWORD PTR __imp_??1?$CStringT@DV?$StrTraitMFC_DLL@DV?$ChTraitsCRT@D@ATL@@@@@ATL@@QAE@XZ
  00199	8d 8e fc 07 00
	00		 lea	 ecx, DWORD PTR [esi+2044]
  0019f	ff 15 00 00 00
	00		 call	 DWORD PTR __imp_??1?$CStringT@DV?$StrTraitMFC_DLL@DV?$ChTraitsCRT@D@ATL@@@@@ATL@@QAE@XZ
  001a5	8d 8e d4 07 00
	00		 lea	 ecx, DWORD PTR [esi+2004]
  001ab	e8 00 00 00 00	 call	 ??1CStringArray@@UAE@XZ	; CStringArray::~CStringArray
  001b0	8d 8e cc 07 00
	00		 lea	 ecx, DWORD PTR [esi+1996]
  001b6	e8 00 00 00 00	 call	 ??1CImageList@@UAE@XZ	; CImageList::~CImageList
  001bb	8d 8e c4 07 00
	00		 lea	 ecx, DWORD PTR [esi+1988]
  001c1	e8 00 00 00 00	 call	 ??1CImageList@@UAE@XZ	; CImageList::~CImageList
  001c6	8d 8e 58 06 00
	00		 lea	 ecx, DWORD PTR [esi+1624]
  001cc	e8 00 00 00 00	 call	 ??1CILButton@@UAE@XZ	; CILButton::~CILButton
  001d1	8d 8e f8 04 00
	00		 lea	 ecx, DWORD PTR [esi+1272]
  001d7	e8 00 00 00 00	 call	 ??1CILButton@@UAE@XZ	; CILButton::~CILButton
  001dc	8d 8e 98 03 00
	00		 lea	 ecx, DWORD PTR [esi+920]
  001e2	e8 00 00 00 00	 call	 ??1CILButton@@UAE@XZ	; CILButton::~CILButton
  001e7	8d 8e 38 02 00
	00		 lea	 ecx, DWORD PTR [esi+568]
  001ed	e8 00 00 00 00	 call	 ??1CILButton@@UAE@XZ	; CILButton::~CILButton
  001f2	8d 8e d8 00 00
	00		 lea	 ecx, DWORD PTR [esi+216]
  001f8	e8 00 00 00 00	 call	 ??1CILButton@@UAE@XZ	; CILButton::~CILButton
  001fd	8b ce		 mov	 ecx, esi
  001ff	e8 00 00 00 00	 call	 ??1CTabDlg@@UAE@XZ	; CTabDlg::~CTabDlg
  00204	8b 4d f4	 mov	 ecx, DWORD PTR __$EHRec$[ebp]
  00207	64 89 0d 00 00
	00 00		 mov	 DWORD PTR fs:0, ecx
  0020e	59		 pop	 ecx
  0020f	5f		 pop	 edi
  00210	5e		 pop	 esi
  00211	5b		 pop	 ebx
  00212	8b e5		 mov	 esp, ebp
  00214	5d		 pop	 ebp
  00215	c3		 ret	 0
  00216	cc		 int	 3
  00217	cc		 int	 3
  00218	cc		 int	 3
  00219	cc		 int	 3
  0021a	cc		 int	 3
_TEXT	ENDS
;	COMDAT text$x
text$x	SEGMENT
__ehhandler$??1CTabSystemTradingEx@@UAE@XZ:
  00000	90		 npad	 1
  00001	90		 npad	 1
  00002	8b 54 24 08	 mov	 edx, DWORD PTR [esp+8]
  00006	8d 42 0c	 lea	 eax, DWORD PTR [edx+12]
  00009	8b 4a f0	 mov	 ecx, DWORD PTR [edx-16]
  0000c	33 c8		 xor	 ecx, eax
  0000e	e8 00 00 00 00	 call	 @__security_check_cookie@4
  00013	b8 00 00 00 00	 mov	 eax, OFFSET __ehfuncinfo$??1CTabSystemTradingEx@@UAE@XZ
  00018	e9 00 00 00 00	 jmp	 ___CxxFrameHandler3
text$x	ENDS
??1CTabSystemTradingEx@@UAE@XZ ENDP			; CTabSystemTradingEx::~CTabSystemTradingEx
; Function compile flags: /Ogtp
; File D:\git\src\IBK\IBK_DRFN\ProjSrc\SrcDrfn\Chart\MULTICHART\TabSystemTradingEx.cpp
; File C:\Program Files (x86)\Microsoft Visual Studio\2019\Community\VC\Tools\MSVC\14.29.30133\atlmfc\include\afxtempl.h
; File D:\git\src\IBK\IBK_DRFN\ProjSrc\SrcDrfn\Chart\MULTICHART\TabSystemTradingEx.cpp
; File C:\Program Files (x86)\Microsoft Visual Studio\2019\Community\VC\Tools\MSVC\14.29.30133\atlmfc\include\afxtempl.h
; File D:\git\src\IBK\IBK_DRFN\ProjSrc\SrcDrfn\Chart\MULTICHART\TabSystemTradingEx.cpp
; File C:\Program Files (x86)\Microsoft Visual Studio\2019\Community\VC\Tools\MSVC\14.29.30133\atlmfc\include\afxtempl.h
; File D:\git\src\IBK\IBK_DRFN\ProjSrc\SrcDrfn\Chart\MULTICHART\TabSystemTradingEx.cpp
;	COMDAT ??0CTabSystemTradingEx@@QAE@PAVCWnd@@@Z
_TEXT	SEGMENT
_this$ = -16						; size = 4
__$EHRec$ = -12						; size = 12
_pParent$ = 8						; size = 4
??0CTabSystemTradingEx@@QAE@PAVCWnd@@@Z PROC		; CTabSystemTradingEx::CTabSystemTradingEx, COMDAT
; _this$ = ecx

; 53   : {

  00000	55		 push	 ebp
  00001	8b ec		 mov	 ebp, esp
  00003	6a ff		 push	 -1
  00005	68 00 00 00 00	 push	 __ehhandler$??0CTabSystemTradingEx@@QAE@PAVCWnd@@@Z
  0000a	64 a1 00 00 00
	00		 mov	 eax, DWORD PTR fs:0
  00010	50		 push	 eax
  00011	51		 push	 ecx
  00012	56		 push	 esi
  00013	57		 push	 edi
  00014	a1 00 00 00 00	 mov	 eax, DWORD PTR ___security_cookie
  00019	33 c5		 xor	 eax, ebp
  0001b	50		 push	 eax
  0001c	8d 45 f4	 lea	 eax, DWORD PTR __$EHRec$[ebp]
  0001f	64 a3 00 00 00
	00		 mov	 DWORD PTR fs:0, eax
  00025	8b f9		 mov	 edi, ecx
  00027	89 7d f0	 mov	 DWORD PTR _this$[ebp], edi

; 52   : 	: CTabDlg(CTabSystemTradingEx::IDD, pParent)

  0002a	ff 75 08	 push	 DWORD PTR _pParent$[ebp]
  0002d	68 ad 17 00 00	 push	 6061			; 000017adH
  00032	e8 00 00 00 00	 call	 ??0CTabDlg@@QAE@IPAVCWnd@@@Z ; CTabDlg::CTabDlg

; 53   : {

  00037	8d 8f d8 00 00
	00		 lea	 ecx, DWORD PTR [edi+216]
  0003d	c7 45 fc 00 00
	00 00		 mov	 DWORD PTR __$EHRec$[ebp+8], 0
  00044	c7 07 00 00 00
	00		 mov	 DWORD PTR [edi], OFFSET ??_7CTabSystemTradingEx@@6B@
  0004a	e8 00 00 00 00	 call	 ??0CILButton@@QAE@XZ	; CILButton::CILButton
  0004f	8d 8f 38 02 00
	00		 lea	 ecx, DWORD PTR [edi+568]
  00055	c6 45 fc 01	 mov	 BYTE PTR __$EHRec$[ebp+8], 1
  00059	e8 00 00 00 00	 call	 ??0CILButton@@QAE@XZ	; CILButton::CILButton
  0005e	8d 8f 98 03 00
	00		 lea	 ecx, DWORD PTR [edi+920]
  00064	c6 45 fc 02	 mov	 BYTE PTR __$EHRec$[ebp+8], 2
  00068	e8 00 00 00 00	 call	 ??0CILButton@@QAE@XZ	; CILButton::CILButton
  0006d	8d 8f f8 04 00
	00		 lea	 ecx, DWORD PTR [edi+1272]
  00073	c6 45 fc 03	 mov	 BYTE PTR __$EHRec$[ebp+8], 3
  00077	e8 00 00 00 00	 call	 ??0CILButton@@QAE@XZ	; CILButton::CILButton
  0007c	8d 8f 58 06 00
	00		 lea	 ecx, DWORD PTR [edi+1624]
  00082	c6 45 fc 04	 mov	 BYTE PTR __$EHRec$[ebp+8], 4
  00086	e8 00 00 00 00	 call	 ??0CILButton@@QAE@XZ	; CILButton::CILButton
  0008b	8d 8f c4 07 00
	00		 lea	 ecx, DWORD PTR [edi+1988]
  00091	c6 45 fc 05	 mov	 BYTE PTR __$EHRec$[ebp+8], 5
  00095	e8 00 00 00 00	 call	 ??0CImageList@@QAE@XZ	; CImageList::CImageList
  0009a	8d 8f cc 07 00
	00		 lea	 ecx, DWORD PTR [edi+1996]
  000a0	c6 45 fc 06	 mov	 BYTE PTR __$EHRec$[ebp+8], 6
  000a4	e8 00 00 00 00	 call	 ??0CImageList@@QAE@XZ	; CImageList::CImageList
  000a9	8d 8f d4 07 00
	00		 lea	 ecx, DWORD PTR [edi+2004]
  000af	c6 45 fc 07	 mov	 BYTE PTR __$EHRec$[ebp+8], 7
  000b3	e8 00 00 00 00	 call	 ??0CStringArray@@QAE@XZ	; CStringArray::CStringArray
  000b8	8d 8f f0 07 00
	00		 lea	 ecx, DWORD PTR [edi+2032]
  000be	c6 45 fc 08	 mov	 BYTE PTR __$EHRec$[ebp+8], 8
  000c2	e8 00 00 00 00	 call	 ??0CSysTabExChartItem@@QAE@XZ ; CSysTabExChartItem::CSysTabExChartItem
  000c7	8d 8f fc 07 00
	00		 lea	 ecx, DWORD PTR [edi+2044]
  000cd	ff 15 00 00 00
	00		 call	 DWORD PTR __imp_??0?$CStringT@DV?$StrTraitMFC_DLL@DV?$ChTraitsCRT@D@ATL@@@@@ATL@@QAE@XZ
  000d3	8d 8f 00 08 00
	00		 lea	 ecx, DWORD PTR [edi+2048]
  000d9	ff 15 00 00 00
	00		 call	 DWORD PTR __imp_??0?$CStringT@DV?$StrTraitMFC_DLL@DV?$ChTraitsCRT@D@ATL@@@@@ATL@@QAE@XZ
  000df	8d 8f 04 08 00
	00		 lea	 ecx, DWORD PTR [edi+2052]
  000e5	ff 15 00 00 00
	00		 call	 DWORD PTR __imp_??0?$CStringT@DV?$StrTraitMFC_DLL@DV?$ChTraitsCRT@D@ATL@@@@@ATL@@QAE@XZ
  000eb	8d 8f 1c 08 00
	00		 lea	 ecx, DWORD PTR [edi+2076]
  000f1	ff 15 00 00 00
	00		 call	 DWORD PTR __imp_??0?$CStringT@DV?$StrTraitMFC_DLL@DV?$ChTraitsCRT@D@ATL@@@@@ATL@@QAE@XZ
  000f7	8d 8f 20 08 00
	00		 lea	 ecx, DWORD PTR [edi+2080]
  000fd	ff 15 00 00 00
	00		 call	 DWORD PTR __imp_??0?$CStringT@DV?$StrTraitMFC_DLL@DV?$ChTraitsCRT@D@ATL@@@@@ATL@@QAE@XZ
  00103	8d 8f 24 08 00
	00		 lea	 ecx, DWORD PTR [edi+2084]
  00109	ff 15 00 00 00
	00		 call	 DWORD PTR __imp_??0?$CStringT@DV?$StrTraitMFC_DLL@DV?$ChTraitsCRT@D@ATL@@@@@ATL@@QAE@XZ
  0010f	8d 8f 30 08 00
	00		 lea	 ecx, DWORD PTR [edi+2096]
  00115	c6 45 fc 0c	 mov	 BYTE PTR __$EHRec$[ebp+8], 12 ; 0000000cH
  00119	e8 00 00 00 00	 call	 ??0CSTBasicTree@@QAE@XZ	; CSTBasicTree::CSTBasicTree
  0011e	8d 8f c8 08 00
	00		 lea	 ecx, DWORD PTR [edi+2248]
  00124	c6 45 fc 0d	 mov	 BYTE PTR __$EHRec$[ebp+8], 13 ; 0000000dH
  00128	e8 00 00 00 00	 call	 ??0CSTExtTree@@QAE@XZ	; CSTExtTree::CSTExtTree
  0012d	8d 8f 6c 09 00
	00		 lea	 ecx, DWORD PTR [edi+2412]
  00133	ff 15 00 00 00
	00		 call	 DWORD PTR __imp_??0?$CStringT@DV?$StrTraitMFC_DLL@DV?$ChTraitsCRT@D@ATL@@@@@ATL@@QAE@XZ
  00139	c7 87 70 09 00
	00 00 00 00 00	 mov	 DWORD PTR [edi+2416], OFFSET ??_7CSTInterface@CTabSystemTradingEx@@6B@
  00143	8d 8f 78 09 00
	00		 lea	 ecx, DWORD PTR [edi+2424]

; 670  : {

  00149	c7 87 74 09 00
	00 00 00 00 00	 mov	 DWORD PTR [edi+2420], OFFSET ??_7CSTAnalysisInput@CTabSystemTradingEx@@6B@
  00153	ff 15 00 00 00
	00		 call	 DWORD PTR __imp_??0?$CStringT@DV?$StrTraitMFC_DLL@DV?$ChTraitsCRT@D@ATL@@@@@ATL@@QAE@XZ
  00159	8d 8f 7c 09 00
	00		 lea	 ecx, DWORD PTR [edi+2428]
  0015f	ff 15 00 00 00
	00		 call	 DWORD PTR __imp_??0?$CStringT@DV?$StrTraitMFC_DLL@DV?$ChTraitsCRT@D@ATL@@@@@ATL@@QAE@XZ
  00165	8d 8f 80 09 00
	00		 lea	 ecx, DWORD PTR [edi+2432]
  0016b	ff 15 00 00 00
	00		 call	 DWORD PTR __imp_??0?$CStringT@DV?$StrTraitMFC_DLL@DV?$ChTraitsCRT@D@ATL@@@@@ATL@@QAE@XZ
  00171	8d 8f 90 09 00
	00		 lea	 ecx, DWORD PTR [edi+2448]
  00177	ff 15 00 00 00
	00		 call	 DWORD PTR __imp_??0?$CStringT@DV?$StrTraitMFC_DLL@DV?$ChTraitsCRT@D@ATL@@@@@ATL@@QAE@XZ
  0017d	8d 8f 94 09 00
	00		 lea	 ecx, DWORD PTR [edi+2452]
  00183	ff 15 00 00 00
	00		 call	 DWORD PTR __imp_??0?$CStringT@DV?$StrTraitMFC_DLL@DV?$ChTraitsCRT@D@ATL@@@@@ATL@@QAE@XZ
  00189	8d 8f 98 09 00
	00		 lea	 ecx, DWORD PTR [edi+2456]
  0018f	ff 15 00 00 00
	00		 call	 DWORD PTR __imp_??0?$CStringT@DV?$StrTraitMFC_DLL@DV?$ChTraitsCRT@D@ATL@@@@@ATL@@QAE@XZ

; 671  : 	m_bUseUserData = FALSE;

  00195	c7 87 a8 09 00
	00 00 00 00 00	 mov	 DWORD PTR [edi+2472], 0

; 672  : 	m_pInterfaceUserData = NULL;

  0019f	c7 87 ac 09 00
	00 00 00 00 00	 mov	 DWORD PTR [edi+2476], 0

; 53   : {

  001a9	c7 87 b0 09 00
	00 00 00 00 00	 mov	 DWORD PTR [edi+2480], OFFSET ??_7CSTRunManager@CTabSystemTradingEx@@6B@
; File C:\Program Files (x86)\Microsoft Visual Studio\2019\Community\VC\Tools\MSVC\14.29.30133\atlmfc\include\afxtempl.h

; 1403 : {

  001b3	c7 87 b4 09 00
	00 00 00 00 00	 mov	 DWORD PTR [edi+2484], OFFSET ??_7?$CMap@PAVCConfirmWnd@@PAV1@JJ@@6B@

; 1404 : 	ASSERT(nBlockSize > 0);
; 1405 : 
; 1406 : 	m_pHashTable = NULL;

  001bd	c7 87 b8 09 00
	00 00 00 00 00	 mov	 DWORD PTR [edi+2488], 0

; 1407 : 	m_nHashTableSize = 17;  // default size

  001c7	c7 87 bc 09 00
	00 11 00 00 00	 mov	 DWORD PTR [edi+2492], 17 ; 00000011H

; 1408 : 	m_nCount = 0;

  001d1	c7 87 c0 09 00
	00 00 00 00 00	 mov	 DWORD PTR [edi+2496], 0

; 1409 : 	m_pFreeList = NULL;

  001db	c7 87 c4 09 00
	00 00 00 00 00	 mov	 DWORD PTR [edi+2500], 0

; 1410 : 	m_pBlocks = NULL;

  001e5	c7 87 c8 09 00
	00 00 00 00 00	 mov	 DWORD PTR [edi+2504], 0

; 1411 : 	m_nBlockSize = nBlockSize;

  001ef	c7 87 cc 09 00
	00 0a 00 00 00	 mov	 DWORD PTR [edi+2508], 10 ; 0000000aH
; File D:\git\src\IBK\IBK_DRFN\ProjSrc\SrcDrfn\Chart\MULTICHART\TabSystemTradingEx.cpp

; 53   : {

  001f9	c7 87 d0 09 00
	00 00 00 00 00	 mov	 DWORD PTR [edi+2512], OFFSET ??_7CSTDlgConfirmSendJumun@CTabSystemTradingEx@@6B@

; 54   : 	m_bShowOption = FALSE;

  00203	c7 87 bc 07 00
	00 00 00 00 00	 mov	 DWORD PTR [edi+1980], 0

; 55   : 	m_pDlgOption = NULL;

  0020d	c7 87 c0 07 00
	00 00 00 00 00	 mov	 DWORD PTR [edi+1984], 0

; 56   : 	m_nHeightOfSearch=80;

  00217	c7 87 b8 07 00
	00 50 00 00 00	 mov	 DWORD PTR [edi+1976], 80 ; 00000050H

; 57   : 	m_pSTLoadMnger = NULL;

  00221	c7 87 e8 07 00
	00 00 00 00 00	 mov	 DWORD PTR [edi+2024], 0

; 58   : 
; 59   : 	m_pIAUDataMonitorManager = NULL;

  0022b	c7 87 60 09 00
	00 00 00 00 00	 mov	 DWORD PTR [edi+2400], 0

; 60   : 	for(int i=0; i<2; i++)	m_dwIAUDataMonitorManager[i] = NULL;

  00235	c7 87 64 09 00
	00 00 00 00 00	 mov	 DWORD PTR [edi+2404], 0
  0023f	c7 87 68 09 00
	00 00 00 00 00	 mov	 DWORD PTR [edi+2408], 0

; 61   : 	m_pWndOutBar = NULL;

  00249	c7 87 18 08 00
	00 00 00 00 00	 mov	 DWORD PTR [edi+2072], 0

; 62   : 
; 63   : 	m_hSTConfigureWizardInst = NULL;

  00253	c7 87 ec 07 00
	00 00 00 00 00	 mov	 DWORD PTR [edi+2028], 0

; 64   : 
; 65   : 	m_xSTAnalysisInput.m_Info.nFolderIndx = -1;		//     (-1)

  0025d	c7 87 88 09 00
	00 ff ff ff ff	 mov	 DWORD PTR [edi+2440], -1

; 66   : 	m_xSTAnalysisInput.m_Info.nItemIndx = -1;	//     (-1)

  00267	c7 87 8c 09 00
	00 ff ff ff ff	 mov	 DWORD PTR [edi+2444], -1

; 67   : 	m_xSTAnalysisInput.m_InfoForAnalysis.nFolderIndx = -1;		//     (-1)

  00271	c7 87 a0 09 00
	00 ff ff ff ff	 mov	 DWORD PTR [edi+2464], -1

; 68   : 	m_xSTAnalysisInput.m_InfoForAnalysis.nItemIndx = -1;	//     (-1)

  0027b	c7 87 a4 09 00
	00 ff ff ff ff	 mov	 DWORD PTR [edi+2468], -1

; 69   : 	m_bEmptyWizard = FALSE;

  00285	c7 87 f8 07 00
	00 00 00 00 00	 mov	 DWORD PTR [edi+2040], 0

; 70   : 	m_bSTBtn_Click = FALSE;

  0028f	c7 87 14 08 00
	00 00 00 00 00	 mov	 DWORD PTR [edi+2068], 0
; File C:\Program Files (x86)\Microsoft Visual Studio\2019\Community\VC\Tools\MSVC\14.29.30133\atlmfc\include\afxtempl.h

; 1446 : 	if (m_pHashTable != NULL)

  00299	8b 87 b8 09 00
	00		 mov	 eax, DWORD PTR [edi+2488]
; File D:\git\src\IBK\IBK_DRFN\ProjSrc\SrcDrfn\Chart\MULTICHART\TabSystemTradingEx.cpp

; 53   : {

  0029f	c6 45 fc 11	 mov	 BYTE PTR __$EHRec$[ebp+8], 17 ; 00000011H
; File C:\Program Files (x86)\Microsoft Visual Studio\2019\Community\VC\Tools\MSVC\14.29.30133\atlmfc\include\afxtempl.h

; 1446 : 	if (m_pHashTable != NULL)

  002a3	85 c0		 test	 eax, eax
  002a5	74 13		 je	 SHORT $LN56@CTabSystem

; 1447 : 	{
; 1448 : 		// destroy elements (values and keys)
; 1449 : 		for (UINT nHash = 0; nHash < m_nHashTableSize; nHash++)
; 1450 : 		{
; 1451 : 			CAssoc* pAssoc;
; 1452 : 			for (pAssoc = m_pHashTable[nHash]; pAssoc != NULL;
; 1453 : 			  pAssoc = pAssoc->pNext)
; 1454 : 			{
; 1455 : 				pAssoc->CAssoc::~CAssoc();
; 1456 : 			}
; 1457 : 		}
; 1458 : 
; 1459 : 		// free hash table
; 1460 : 		delete[] m_pHashTable;

  002a7	50		 push	 eax
  002a8	e8 00 00 00 00	 call	 ??_V@YAXPAX@Z		; operator delete[]
  002ad	83 c4 04	 add	 esp, 4

; 1461 : 		m_pHashTable = NULL;

  002b0	c7 87 b8 09 00
	00 00 00 00 00	 mov	 DWORD PTR [edi+2488], 0
$LN56@CTabSystem:

; 1462 : 	}
; 1463 : 
; 1464 : 	m_nCount = 0;
; 1465 : 	m_pFreeList = NULL;
; 1466 : 	m_pBlocks->FreeDataChain();

  002ba	8b 8f c8 09 00
	00		 mov	 ecx, DWORD PTR [edi+2504]
  002c0	c7 87 c0 09 00
	00 00 00 00 00	 mov	 DWORD PTR [edi+2496], 0
  002ca	c7 87 c4 09 00
	00 00 00 00 00	 mov	 DWORD PTR [edi+2500], 0
  002d4	e8 00 00 00 00	 call	 ?FreeDataChain@CPlex@@QAEXXZ ; CPlex::FreeDataChain

; 1467 : 	m_pBlocks = NULL;

  002d9	c7 87 c8 09 00
	00 00 00 00 00	 mov	 DWORD PTR [edi+2504], 0
; File D:\git\src\IBK\IBK_DRFN\ProjSrc\SrcDrfn\Chart\MULTICHART\TabSystemTradingEx.cpp

; 73   : }

  002e3	8b c7		 mov	 eax, edi
  002e5	8b 4d f4	 mov	 ecx, DWORD PTR __$EHRec$[ebp]
  002e8	64 89 0d 00 00
	00 00		 mov	 DWORD PTR fs:0, ecx
  002ef	59		 pop	 ecx
  002f0	5f		 pop	 edi
  002f1	5e		 pop	 esi
  002f2	8b e5		 mov	 esp, ebp
  002f4	5d		 pop	 ebp
  002f5	c2 04 00	 ret	 4
_TEXT	ENDS
;	COMDAT text$x
text$x	SEGMENT
__unwindfunclet$??0CTabSystemTradingEx@@QAE@PAVCWnd@@@Z$0:
  00000	8b 4d f0	 mov	 ecx, DWORD PTR _this$[ebp]
  00003	e9 00 00 00 00	 jmp	 ??1CTabDlg@@UAE@XZ	; CTabDlg::~CTabDlg
__unwindfunclet$??0CTabSystemTradingEx@@QAE@PAVCWnd@@@Z$1:
  00008	8b 4d f0	 mov	 ecx, DWORD PTR _this$[ebp]
  0000b	81 c1 d8 00 00
	00		 add	 ecx, 216		; 000000d8H
  00011	e9 00 00 00 00	 jmp	 ??1CILButton@@UAE@XZ	; CILButton::~CILButton
__unwindfunclet$??0CTabSystemTradingEx@@QAE@PAVCWnd@@@Z$2:
  00016	8b 4d f0	 mov	 ecx, DWORD PTR _this$[ebp]
  00019	81 c1 38 02 00
	00		 add	 ecx, 568		; 00000238H
  0001f	e9 00 00 00 00	 jmp	 ??1CILButton@@UAE@XZ	; CILButton::~CILButton
__unwindfunclet$??0CTabSystemTradingEx@@QAE@PAVCWnd@@@Z$3:
  00024	8b 4d f0	 mov	 ecx, DWORD PTR _this$[ebp]
  00027	81 c1 98 03 00
	00		 add	 ecx, 920		; 00000398H
  0002d	e9 00 00 00 00	 jmp	 ??1CILButton@@UAE@XZ	; CILButton::~CILButton
__unwindfunclet$??0CTabSystemTradingEx@@QAE@PAVCWnd@@@Z$4:
  00032	8b 4d f0	 mov	 ecx, DWORD PTR _this$[ebp]
  00035	81 c1 f8 04 00
	00		 add	 ecx, 1272		; 000004f8H
  0003b	e9 00 00 00 00	 jmp	 ??1CILButton@@UAE@XZ	; CILButton::~CILButton
__unwindfunclet$??0CTabSystemTradingEx@@QAE@PAVCWnd@@@Z$5:
  00040	8b 4d f0	 mov	 ecx, DWORD PTR _this$[ebp]
  00043	81 c1 58 06 00
	00		 add	 ecx, 1624		; 00000658H
  00049	e9 00 00 00 00	 jmp	 ??1CILButton@@UAE@XZ	; CILButton::~CILButton
__unwindfunclet$??0CTabSystemTradingEx@@QAE@PAVCWnd@@@Z$6:
  0004e	8b 4d f0	 mov	 ecx, DWORD PTR _this$[ebp]
  00051	81 c1 c4 07 00
	00		 add	 ecx, 1988		; 000007c4H
  00057	e9 00 00 00 00	 jmp	 ??1CImageList@@UAE@XZ	; CImageList::~CImageList
__unwindfunclet$??0CTabSystemTradingEx@@QAE@PAVCWnd@@@Z$7:
  0005c	8b 4d f0	 mov	 ecx, DWORD PTR _this$[ebp]
  0005f	81 c1 cc 07 00
	00		 add	 ecx, 1996		; 000007ccH
  00065	e9 00 00 00 00	 jmp	 ??1CImageList@@UAE@XZ	; CImageList::~CImageList
__unwindfunclet$??0CTabSystemTradingEx@@QAE@PAVCWnd@@@Z$8:
  0006a	8b 4d f0	 mov	 ecx, DWORD PTR _this$[ebp]
  0006d	81 c1 d4 07 00
	00		 add	 ecx, 2004		; 000007d4H
  00073	e9 00 00 00 00	 jmp	 ??1CStringArray@@UAE@XZ	; CStringArray::~CStringArray
__unwindfunclet$??0CTabSystemTradingEx@@QAE@PAVCWnd@@@Z$9:
  00078	8b 4d f0	 mov	 ecx, DWORD PTR _this$[ebp]
  0007b	81 c1 fc 07 00
	00		 add	 ecx, 2044		; 000007fcH
  00081	e9 00 00 00 00	 jmp	 ??1STMNG_ITEMINFO@@QAE@XZ
__unwindfunclet$??0CTabSystemTradingEx@@QAE@PAVCWnd@@@Z$10:
  00086	8b 4d f0	 mov	 ecx, DWORD PTR _this$[ebp]
  00089	81 c1 1c 08 00
	00		 add	 ecx, 2076		; 0000081cH
  0008f	ff 25 00 00 00
	00		 jmp	 DWORD PTR __imp_??1?$CStringT@DV?$StrTraitMFC_DLL@DV?$ChTraitsCRT@D@ATL@@@@@ATL@@QAE@XZ
__unwindfunclet$??0CTabSystemTradingEx@@QAE@PAVCWnd@@@Z$11:
  00095	8b 4d f0	 mov	 ecx, DWORD PTR _this$[ebp]
  00098	81 c1 20 08 00
	00		 add	 ecx, 2080		; 00000820H
  0009e	ff 25 00 00 00
	00		 jmp	 DWORD PTR __imp_??1?$CStringT@DV?$StrTraitMFC_DLL@DV?$ChTraitsCRT@D@ATL@@@@@ATL@@QAE@XZ
__unwindfunclet$??0CTabSystemTradingEx@@QAE@PAVCWnd@@@Z$12:
  000a4	8b 4d f0	 mov	 ecx, DWORD PTR _this$[ebp]
  000a7	81 c1 24 08 00
	00		 add	 ecx, 2084		; 00000824H
  000ad	ff 25 00 00 00
	00		 jmp	 DWORD PTR __imp_??1?$CStringT@DV?$StrTraitMFC_DLL@DV?$ChTraitsCRT@D@ATL@@@@@ATL@@QAE@XZ
__unwindfunclet$??0CTabSystemTradingEx@@QAE@PAVCWnd@@@Z$13:
  000b3	8b 4d f0	 mov	 ecx, DWORD PTR _this$[ebp]
  000b6	81 c1 30 08 00
	00		 add	 ecx, 2096		; 00000830H
  000bc	e9 00 00 00 00	 jmp	 ??1CSTBasicTree@@UAE@XZ	; CSTBasicTree::~CSTBasicTree
__unwindfunclet$??0CTabSystemTradingEx@@QAE@PAVCWnd@@@Z$14:
  000c1	8b 4d f0	 mov	 ecx, DWORD PTR _this$[ebp]
  000c4	81 c1 c8 08 00
	00		 add	 ecx, 2248		; 000008c8H
  000ca	e9 00 00 00 00	 jmp	 ??1CSTExtTree@@UAE@XZ	; CSTExtTree::~CSTExtTree
__unwindfunclet$??0CTabSystemTradingEx@@QAE@PAVCWnd@@@Z$15:
  000cf	8b 4d f0	 mov	 ecx, DWORD PTR _this$[ebp]
  000d2	81 c1 6c 09 00
	00		 add	 ecx, 2412		; 0000096cH
  000d8	ff 25 00 00 00
	00		 jmp	 DWORD PTR __imp_??1?$CStringT@DV?$StrTraitMFC_DLL@DV?$ChTraitsCRT@D@ATL@@@@@ATL@@QAE@XZ
__unwindfunclet$??0CTabSystemTradingEx@@QAE@PAVCWnd@@@Z$16:
  000de	8b 4d f0	 mov	 ecx, DWORD PTR _this$[ebp]
  000e1	81 c1 74 09 00
	00		 add	 ecx, 2420		; 00000974H
  000e7	e9 00 00 00 00	 jmp	 ??1CSTAnalysisInput@CTabSystemTradingEx@@QAE@XZ
__unwindfunclet$??0CTabSystemTradingEx@@QAE@PAVCWnd@@@Z$17:
  000ec	8b 4d f0	 mov	 ecx, DWORD PTR _this$[ebp]
  000ef	81 c1 b4 09 00
	00		 add	 ecx, 2484		; 000009b4H
  000f5	e9 00 00 00 00	 jmp	 ??1?$CMap@PAVCConfirmWnd@@PAV1@JJ@@UAE@XZ ; CMap<CConfirmWnd *,CConfirmWnd *,long,long>::~CMap<CConfirmWnd *,CConfirmWnd *,long,long>
  000fa	cc		 int	 3
  000fb	cc		 int	 3
  000fc	cc		 int	 3
  000fd	cc		 int	 3
  000fe	cc		 int	 3
__ehhandler$??0CTabSystemTradingEx@@QAE@PAVCWnd@@@Z:
  000ff	90		 npad	 1
  00100	90		 npad	 1
  00101	8b 54 24 08	 mov	 edx, DWORD PTR [esp+8]
  00105	8d 42 0c	 lea	 eax, DWORD PTR [edx+12]
  00108	8b 4a f0	 mov	 ecx, DWORD PTR [edx-16]
  0010b	33 c8		 xor	 ecx, eax
  0010d	e8 00 00 00 00	 call	 @__security_check_cookie@4
  00112	b8 00 00 00 00	 mov	 eax, OFFSET __ehfuncinfo$??0CTabSystemTradingEx@@QAE@PAVCWnd@@@Z
  00117	e9 00 00 00 00	 jmp	 ___CxxFrameHandler3
text$x	ENDS
??0CTabSystemTradingEx@@QAE@PAVCWnd@@@Z ENDP		; CTabSystemTradingEx::CTabSystemTradingEx
; Function compile flags: /Ogtp
;	COMDAT ??1CSTOrderRData_EG@@QAE@XZ
_TEXT	SEGMENT
??1CSTOrderRData_EG@@QAE@XZ PROC			; CSTOrderRData_EG::~CSTOrderRData_EG, COMDAT
; _this$ = ecx
  00000	56		 push	 esi
  00001	8b f1		 mov	 esi, ecx
  00003	8d 4e 58	 lea	 ecx, DWORD PTR [esi+88]
  00006	ff 15 00 00 00
	00		 call	 DWORD PTR __imp_??1?$CStringT@DV?$StrTraitMFC_DLL@DV?$ChTraitsCRT@D@ATL@@@@@ATL@@QAE@XZ
  0000c	8d 4e 50	 lea	 ecx, DWORD PTR [esi+80]
  0000f	ff 15 00 00 00
	00		 call	 DWORD PTR __imp_??1?$CStringT@DV?$StrTraitMFC_DLL@DV?$ChTraitsCRT@D@ATL@@@@@ATL@@QAE@XZ
  00015	8d 4e 3c	 lea	 ecx, DWORD PTR [esi+60]
  00018	ff 15 00 00 00
	00		 call	 DWORD PTR __imp_??1?$CStringT@DV?$StrTraitMFC_DLL@DV?$ChTraitsCRT@D@ATL@@@@@ATL@@QAE@XZ
  0001e	8d 4e 2c	 lea	 ecx, DWORD PTR [esi+44]
  00021	ff 15 00 00 00
	00		 call	 DWORD PTR __imp_??1?$CStringT@DV?$StrTraitMFC_DLL@DV?$ChTraitsCRT@D@ATL@@@@@ATL@@QAE@XZ
  00027	8d 4e 18	 lea	 ecx, DWORD PTR [esi+24]
  0002a	ff 15 00 00 00
	00		 call	 DWORD PTR __imp_??1?$CStringT@DV?$StrTraitMFC_DLL@DV?$ChTraitsCRT@D@ATL@@@@@ATL@@QAE@XZ
  00030	8d 4e 14	 lea	 ecx, DWORD PTR [esi+20]
  00033	ff 15 00 00 00
	00		 call	 DWORD PTR __imp_??1?$CStringT@DV?$StrTraitMFC_DLL@DV?$ChTraitsCRT@D@ATL@@@@@ATL@@QAE@XZ
  00039	8d 4e 10	 lea	 ecx, DWORD PTR [esi+16]
  0003c	ff 15 00 00 00
	00		 call	 DWORD PTR __imp_??1?$CStringT@DV?$StrTraitMFC_DLL@DV?$ChTraitsCRT@D@ATL@@@@@ATL@@QAE@XZ
  00042	8d 4e 0c	 lea	 ecx, DWORD PTR [esi+12]
  00045	5e		 pop	 esi
  00046	ff 25 00 00 00
	00		 jmp	 DWORD PTR __imp_??1?$CStringT@DV?$StrTraitMFC_DLL@DV?$ChTraitsCRT@D@ATL@@@@@ATL@@QAE@XZ
??1CSTOrderRData_EG@@QAE@XZ ENDP			; CSTOrderRData_EG::~CSTOrderRData_EG
_TEXT	ENDS
; Function compile flags: /Ogtp
; File D:\git\src\IBK\IBK_DRFN\ProjSrc\SrcDrfn\Chart\Common_ST\STTreeCtrl.h
;	COMDAT ??__ERMSG_STTREE_ITEMDBLCLK@@YAXXZ
text$di	SEGMENT
??__ERMSG_STTREE_ITEMDBLCLK@@YAXXZ PROC			; `dynamic initializer for 'RMSG_STTREE_ITEMDBLCLK'', COMDAT

; 12   : const UINT RMSG_STTREE_ITEMDBLCLK	= ::RegisterWindowMessage("RMSG_STTREE_ITEMDBLCLK");

  00000	68 00 00 00 00	 push	 OFFSET ??_C@_0BH@LAAMLACL@RMSG_STTREE_ITEMDBLCLK@
  00005	ff 15 00 00 00
	00		 call	 DWORD PTR __imp__RegisterWindowMessageA@4
  0000b	a3 00 00 00 00	 mov	 DWORD PTR ?RMSG_STTREE_ITEMDBLCLK@@3IB, eax
  00010	c3		 ret	 0
??__ERMSG_STTREE_ITEMDBLCLK@@YAXXZ ENDP			; `dynamic initializer for 'RMSG_STTREE_ITEMDBLCLK''
text$di	ENDS
; Function compile flags: /Ogtp
; File D:\git\src\IBK\IBK_DRFN\ProjSrc\SrcDrfn\Chart\Common_ST\STTreeCtrl.h
;	COMDAT ??__ERMSG_STTREE_ITEMCLICK@@YAXXZ
text$di	SEGMENT
??__ERMSG_STTREE_ITEMCLICK@@YAXXZ PROC			; `dynamic initializer for 'RMSG_STTREE_ITEMCLICK'', COMDAT

; 11   : const UINT RMSG_STTREE_ITEMCLICK	= ::RegisterWindowMessage("RMSG_STTREE_ITEMCLICK");

  00000	68 00 00 00 00	 push	 OFFSET ??_C@_0BG@OHIMHJEO@RMSG_STTREE_ITEMCLICK@
  00005	ff 15 00 00 00
	00		 call	 DWORD PTR __imp__RegisterWindowMessageA@4
  0000b	a3 00 00 00 00	 mov	 DWORD PTR ?RMSG_STTREE_ITEMCLICK@@3IB, eax
  00010	c3		 ret	 0
??__ERMSG_STTREE_ITEMCLICK@@YAXXZ ENDP			; `dynamic initializer for 'RMSG_STTREE_ITEMCLICK''
text$di	ENDS
; Function compile flags: /Ogtp
;	COMDAT ??1STMNG_ITEMINFO@@QAE@XZ
_TEXT	SEGMENT
??1STMNG_ITEMINFO@@QAE@XZ PROC				; STMNG_ITEMINFO::~STMNG_ITEMINFO, COMDAT
; _this$ = ecx
  00000	56		 push	 esi
  00001	8b f1		 mov	 esi, ecx
  00003	8d 4e 08	 lea	 ecx, DWORD PTR [esi+8]
  00006	ff 15 00 00 00
	00		 call	 DWORD PTR __imp_??1?$CStringT@DV?$StrTraitMFC_DLL@DV?$ChTraitsCRT@D@ATL@@@@@ATL@@QAE@XZ
  0000c	8d 4e 04	 lea	 ecx, DWORD PTR [esi+4]
  0000f	ff 15 00 00 00
	00		 call	 DWORD PTR __imp_??1?$CStringT@DV?$StrTraitMFC_DLL@DV?$ChTraitsCRT@D@ATL@@@@@ATL@@QAE@XZ
  00015	8b ce		 mov	 ecx, esi
  00017	5e		 pop	 esi
  00018	ff 25 00 00 00
	00		 jmp	 DWORD PTR __imp_??1?$CStringT@DV?$StrTraitMFC_DLL@DV?$ChTraitsCRT@D@ATL@@@@@ATL@@QAE@XZ
??1STMNG_ITEMINFO@@QAE@XZ ENDP				; STMNG_ITEMINFO::~STMNG_ITEMINFO
_TEXT	ENDS
; Function compile flags: /Ogtp
; File D:\git\src\IBK\IBK_DRFN\ProjSrc\SrcDrfn\Chart\MULTICHART\TabDlg.h
;	COMDAT ?ReceiveDataFromOutSide@CTabDlg@@UAEXXZ
_TEXT	SEGMENT
?ReceiveDataFromOutSide@CTabDlg@@UAEXXZ PROC		; CTabDlg::ReceiveDataFromOutSide, COMDAT
; _this$ = ecx

; 113  : 	virtual void ReceiveDataFromOutSide() {}

  00000	c2 00 00	 ret	 0
?ReceiveDataFromOutSide@CTabDlg@@UAEXXZ ENDP		; CTabDlg::ReceiveDataFromOutSide
_TEXT	ENDS
; Function compile flags: /Ogtp
; File D:\git\src\IBK\IBK_DRFN\ProjSrc\SrcDrfn\Chart\MULTICHART\TabDlg.h
;	COMDAT ?SetRealPriceData@CTabDlg@@UAEXPAX@Z
_TEXT	SEGMENT
_pData$ = 8						; size = 4
?SetRealPriceData@CTabDlg@@UAEXPAX@Z PROC		; CTabDlg::SetRealPriceData, COMDAT
; _this$ = ecx

; 112  : 	virtual void SetRealPriceData(void *pData) {}

  00000	c2 04 00	 ret	 4
?SetRealPriceData@CTabDlg@@UAEXPAX@Z ENDP		; CTabDlg::SetRealPriceData
_TEXT	ENDS
; Function compile flags: /Ogtp
; File D:\git\src\IBK\IBK_DRFN\ProjSrc\SrcDrfn\Chart\MULTICHART\TabDlg.h
;	COMDAT ?ReceiveData@CTabDlg@@UAEXPAUHWND__@@PBD11PAXJ@Z
_TEXT	SEGMENT
_hTrComm$ = 8						; size = 4
_szTR$ = 12						; size = 4
_szMsgCode$ = 16					; size = 4
_szMessage$ = 20					; size = 4
_aTRData$ = 24						; size = 4
_dwTRDateLen$ = 28					; size = 4
?ReceiveData@CTabDlg@@UAEXPAUHWND__@@PBD11PAXJ@Z PROC	; CTabDlg::ReceiveData, COMDAT
; _this$ = ecx

; 111  : 	virtual void ReceiveData(HWND hTrComm, LPCSTR szTR, LPCSTR szMsgCode, LPCSTR szMessage, LPVOID aTRData, long dwTRDateLen) {}

  00000	c2 18 00	 ret	 24			; 00000018H
?ReceiveData@CTabDlg@@UAEXPAUHWND__@@PBD11PAXJ@Z ENDP	; CTabDlg::ReceiveData
_TEXT	ENDS
; Function compile flags: /Ogtp
; File D:\git\src\IBK\IBK_DRFN\ProjSrc\SrcDrfn\Chart\MULTICHART\define\ChartMsgDef.h
;	COMDAT ??__ERMSG_SETINFO@@YAXXZ
text$di	SEGMENT
??__ERMSG_SETINFO@@YAXXZ PROC				; `dynamic initializer for 'RMSG_SETINFO'', COMDAT

; 238  : const UINT RMSG_SETINFO = ::RegisterWindowMessage(_T("RMSG_SETINFO"));

  00000	68 00 00 00 00	 push	 OFFSET ??_C@_0N@HABLPHJG@RMSG_SETINFO@
  00005	ff 15 00 00 00
	00		 call	 DWORD PTR __imp__RegisterWindowMessageA@4
  0000b	a3 00 00 00 00	 mov	 DWORD PTR ?RMSG_SETINFO@@3IB, eax
  00010	c3		 ret	 0
??__ERMSG_SETINFO@@YAXXZ ENDP				; `dynamic initializer for 'RMSG_SETINFO''
text$di	ENDS
; Function compile flags: /Ogtp
; File D:\git\src\IBK\IBK_DRFN\ProjSrc\SrcDrfn\Chart\MULTICHART\define\ChartMsgDef.h
;	COMDAT ??__ERMSG_GETINFO@@YAXXZ
text$di	SEGMENT
??__ERMSG_GETINFO@@YAXXZ PROC				; `dynamic initializer for 'RMSG_GETINFO'', COMDAT

; 237  : const UINT RMSG_GETINFO = ::RegisterWindowMessage(_T("RMSG_GETINFO"));

  00000	68 00 00 00 00	 push	 OFFSET ??_C@_0N@IIOKMIEH@RMSG_GETINFO@
  00005	ff 15 00 00 00
	00		 call	 DWORD PTR __imp__RegisterWindowMessageA@4
  0000b	a3 00 00 00 00	 mov	 DWORD PTR ?RMSG_GETINFO@@3IB, eax
  00010	c3		 ret	 0
??__ERMSG_GETINFO@@YAXXZ ENDP				; `dynamic initializer for 'RMSG_GETINFO''
text$di	ENDS
; Function compile flags: /Ogtp
; File D:\git\src\IBK\IBK_DRFN\ProjSrc\SrcDrfn\Chart\MULTICHART\define\ChartMsgDef.h
;	COMDAT ??__ERMSG_SETINITIALCHARTDATA@@YAXXZ
text$di	SEGMENT
??__ERMSG_SETINITIALCHARTDATA@@YAXXZ PROC		; `dynamic initializer for 'RMSG_SETINITIALCHARTDATA'', COMDAT

; 235  : const UINT RMSG_SETINITIALCHARTDATA = ::RegisterWindowMessage(_T("RMSG_SETINITIALCHARTDATA"));

  00000	68 00 00 00 00	 push	 OFFSET ??_C@_0BJ@OGNAJHHI@RMSG_SETINITIALCHARTDATA@
  00005	ff 15 00 00 00
	00		 call	 DWORD PTR __imp__RegisterWindowMessageA@4
  0000b	a3 00 00 00 00	 mov	 DWORD PTR ?RMSG_SETINITIALCHARTDATA@@3IB, eax
  00010	c3		 ret	 0
??__ERMSG_SETINITIALCHARTDATA@@YAXXZ ENDP		; `dynamic initializer for 'RMSG_SETINITIALCHARTDATA''
text$di	ENDS
; Function compile flags: /Ogtp
; File D:\git\src\IBK\IBK_DRFN\ProjSrc\SrcDrfn\Chart\MULTICHART\define\ChartMsgDef.h
;	COMDAT ??__ERMSG_ADD_PLATFORM_MENU@@YAXXZ
text$di	SEGMENT
??__ERMSG_ADD_PLATFORM_MENU@@YAXXZ PROC			; `dynamic initializer for 'RMSG_ADD_PLATFORM_MENU'', COMDAT

; 233  : const UINT RMSG_ADD_PLATFORM_MENU = ::RegisterWindowMessage(_T("RMSG_ADD_PLATFORM_MENU"));

  00000	68 00 00 00 00	 push	 OFFSET ??_C@_0BH@IFDMIMBP@RMSG_ADD_PLATFORM_MENU@
  00005	ff 15 00 00 00
	00		 call	 DWORD PTR __imp__RegisterWindowMessageA@4
  0000b	a3 00 00 00 00	 mov	 DWORD PTR ?RMSG_ADD_PLATFORM_MENU@@3IB, eax
  00010	c3		 ret	 0
??__ERMSG_ADD_PLATFORM_MENU@@YAXXZ ENDP			; `dynamic initializer for 'RMSG_ADD_PLATFORM_MENU''
text$di	ENDS
; Function compile flags: /Ogtp
; File D:\git\src\IBK\IBK_DRFN\ProjSrc\SrcDrfn\Chart\MULTICHART\define\ChartMsgDef.h
;	COMDAT ??__ERMSG_CHANGE_CROSSLINE@@YAXXZ
text$di	SEGMENT
??__ERMSG_CHANGE_CROSSLINE@@YAXXZ PROC			; `dynamic initializer for 'RMSG_CHANGE_CROSSLINE'', COMDAT

; 231  : const UINT RMSG_CHANGE_CROSSLINE = ::RegisterWindowMessage(_T("RMSG_CHANGE_CROSSLINE"));

  00000	68 00 00 00 00	 push	 OFFSET ??_C@_0BG@LNLCJKPF@RMSG_CHANGE_CROSSLINE@
  00005	ff 15 00 00 00
	00		 call	 DWORD PTR __imp__RegisterWindowMessageA@4
  0000b	a3 00 00 00 00	 mov	 DWORD PTR ?RMSG_CHANGE_CROSSLINE@@3IB, eax
  00010	c3		 ret	 0
??__ERMSG_CHANGE_CROSSLINE@@YAXXZ ENDP			; `dynamic initializer for 'RMSG_CHANGE_CROSSLINE''
text$di	ENDS
; Function compile flags: /Ogtp
; File D:\git\src\IBK\IBK_DRFN\ProjSrc\SrcDrfn\Chart\MULTICHART\define\ChartMsgDef.h
;	COMDAT ??__ERMSG_CHANGEVERTSCALETYPE@@YAXXZ
text$di	SEGMENT
??__ERMSG_CHANGEVERTSCALETYPE@@YAXXZ PROC		; `dynamic initializer for 'RMSG_CHANGEVERTSCALETYPE'', COMDAT

; 229  : const UINT RMSG_CHANGEVERTSCALETYPE = ::RegisterWindowMessage(_T("RMSG_CHANGEVERTSCALETYPE"));

  00000	68 00 00 00 00	 push	 OFFSET ??_C@_0BJ@JLKHIBIK@RMSG_CHANGEVERTSCALETYPE@
  00005	ff 15 00 00 00
	00		 call	 DWORD PTR __imp__RegisterWindowMessageA@4
  0000b	a3 00 00 00 00	 mov	 DWORD PTR ?RMSG_CHANGEVERTSCALETYPE@@3IB, eax
  00010	c3		 ret	 0
??__ERMSG_CHANGEVERTSCALETYPE@@YAXXZ ENDP		; `dynamic initializer for 'RMSG_CHANGEVERTSCALETYPE''
text$di	ENDS
; Function compile flags: /Ogtp
; File D:\git\src\IBK\IBK_DRFN\ProjSrc\SrcDrfn\Chart\MULTICHART\define\ChartMsgDef.h
;	COMDAT ??__ERMSG_GET_SKINCOLOR@@YAXXZ
text$di	SEGMENT
??__ERMSG_GET_SKINCOLOR@@YAXXZ PROC			; `dynamic initializer for 'RMSG_GET_SKINCOLOR'', COMDAT

; 226  : const UINT RMSG_GET_SKINCOLOR = ::RegisterWindowMessage(_T("RMSG_GET_SKINCOLOR"));

  00000	68 00 00 00 00	 push	 OFFSET ??_C@_0BD@FLDNDDHK@RMSG_GET_SKINCOLOR@
  00005	ff 15 00 00 00
	00		 call	 DWORD PTR __imp__RegisterWindowMessageA@4
  0000b	a3 00 00 00 00	 mov	 DWORD PTR ?RMSG_GET_SKINCOLOR@@3IB, eax
  00010	c3		 ret	 0
??__ERMSG_GET_SKINCOLOR@@YAXXZ ENDP			; `dynamic initializer for 'RMSG_GET_SKINCOLOR''
text$di	ENDS
; Function compile flags: /Ogtp
; File D:\git\src\IBK\IBK_DRFN\ProjSrc\SrcDrfn\Chart\MULTICHART\define\ChartMsgDef.h
;	COMDAT ??__ERMSG_CHANGE_SKINCOLOR@@YAXXZ
text$di	SEGMENT
??__ERMSG_CHANGE_SKINCOLOR@@YAXXZ PROC			; `dynamic initializer for 'RMSG_CHANGE_SKINCOLOR'', COMDAT

; 225  : const UINT RMSG_CHANGE_SKINCOLOR = ::RegisterWindowMessage(_T("RMSG_CHANGE_SKINCOLOR"));

  00000	68 00 00 00 00	 push	 OFFSET ??_C@_0BG@CNPAHNGG@RMSG_CHANGE_SKINCOLOR@
  00005	ff 15 00 00 00
	00		 call	 DWORD PTR __imp__RegisterWindowMessageA@4
  0000b	a3 00 00 00 00	 mov	 DWORD PTR ?RMSG_CHANGE_SKINCOLOR@@3IB, eax
  00010	c3		 ret	 0
??__ERMSG_CHANGE_SKINCOLOR@@YAXXZ ENDP			; `dynamic initializer for 'RMSG_CHANGE_SKINCOLOR''
text$di	ENDS
; Function compile flags: /Ogtp
; File D:\git\src\IBK\IBK_DRFN\ProjSrc\SrcDrfn\Chart\MULTICHART\define\ChartMsgDef.h
;	COMDAT ??__ERMSG_GET_USERID@@YAXXZ
text$di	SEGMENT
??__ERMSG_GET_USERID@@YAXXZ PROC			; `dynamic initializer for 'RMSG_GET_USERID'', COMDAT

; 215  : const UINT RMSG_GET_USERID = ::RegisterWindowMessage(_T("RMSG_GET_USERID"));	// User ID 

  00000	68 00 00 00 00	 push	 OFFSET ??_C@_0BA@HKNFENJL@RMSG_GET_USERID@
  00005	ff 15 00 00 00
	00		 call	 DWORD PTR __imp__RegisterWindowMessageA@4
  0000b	a3 00 00 00 00	 mov	 DWORD PTR ?RMSG_GET_USERID@@3IB, eax
  00010	c3		 ret	 0
??__ERMSG_GET_USERID@@YAXXZ ENDP			; `dynamic initializer for 'RMSG_GET_USERID''
text$di	ENDS
; Function compile flags: /Ogtp
; File D:\git\src\IBK\IBK_DRFN\ProjSrc\SrcDrfn\Chart\MULTICHART\define\ChartMsgDef.h
;	COMDAT ??__ERMS_ANALYSIS_FUNC@@YAXXZ
text$di	SEGMENT
??__ERMS_ANALYSIS_FUNC@@YAXXZ PROC			; `dynamic initializer for 'RMS_ANALYSIS_FUNC'', COMDAT

; 211  : const UINT RMS_ANALYSIS_FUNC	= ::RegisterWindowMessage(_T("RMS_ANALYSIS_FUNC"));

  00000	68 00 00 00 00	 push	 OFFSET ??_C@_0BC@MMPGLPDH@RMS_ANALYSIS_FUNC@
  00005	ff 15 00 00 00
	00		 call	 DWORD PTR __imp__RegisterWindowMessageA@4
  0000b	a3 00 00 00 00	 mov	 DWORD PTR ?RMS_ANALYSIS_FUNC@@3IB, eax
  00010	c3		 ret	 0
??__ERMS_ANALYSIS_FUNC@@YAXXZ ENDP			; `dynamic initializer for 'RMS_ANALYSIS_FUNC''
text$di	ENDS
; Function compile flags: /Ogtp
; File D:\git\src\IBK\IBK_DRFN\ProjSrc\SrcDrfn\Chart\MULTICHART\define\ChartMsgDef.h
;	COMDAT ??__ERMSG_CHARTMAIN@@YAXXZ
text$di	SEGMENT
??__ERMSG_CHARTMAIN@@YAXXZ PROC				; `dynamic initializer for 'RMSG_CHARTMAIN'', COMDAT

; 208  : const UINT RMSG_CHARTMAIN		= ::RegisterWindowMessage(_T("RMSG_CHARTMAIN"));

  00000	68 00 00 00 00	 push	 OFFSET ??_C@_0P@KHFCBIOH@RMSG_CHARTMAIN@
  00005	ff 15 00 00 00
	00		 call	 DWORD PTR __imp__RegisterWindowMessageA@4
  0000b	a3 00 00 00 00	 mov	 DWORD PTR ?RMSG_CHARTMAIN@@3IB, eax
  00010	c3		 ret	 0
??__ERMSG_CHARTMAIN@@YAXXZ ENDP				; `dynamic initializer for 'RMSG_CHARTMAIN''
text$di	ENDS
; Function compile flags: /Ogtp
; File D:\git\src\IBK\IBK_DRFN\ProjSrc\SrcDrfn\Chart\MULTICHART\define\ChartMsgDef.h
;	COMDAT ??__ERMSG_SETQUERYOPT@@YAXXZ
text$di	SEGMENT
??__ERMSG_SETQUERYOPT@@YAXXZ PROC			; `dynamic initializer for 'RMSG_SETQUERYOPT'', COMDAT

; 183  : const UINT RMSG_SETQUERYOPT = ::RegisterWindowMessage(_T("RMSG_SETQUERYOPT"));

  00000	68 00 00 00 00	 push	 OFFSET ??_C@_0BB@CNOFPEHG@RMSG_SETQUERYOPT@
  00005	ff 15 00 00 00
	00		 call	 DWORD PTR __imp__RegisterWindowMessageA@4
  0000b	a3 00 00 00 00	 mov	 DWORD PTR ?RMSG_SETQUERYOPT@@3IB, eax
  00010	c3		 ret	 0
??__ERMSG_SETQUERYOPT@@YAXXZ ENDP			; `dynamic initializer for 'RMSG_SETQUERYOPT''
text$di	ENDS
; Function compile flags: /Ogtp
; File D:\git\src\IBK\IBK_DRFN\ProjSrc\SrcDrfn\Chart\commontr\TRDefine.h
;	COMDAT ??__ERMSG_GETSIGNAL_REAL@@YAXXZ
text$di	SEGMENT
??__ERMSG_GETSIGNAL_REAL@@YAXXZ PROC			; `dynamic initializer for 'RMSG_GETSIGNAL_REAL'', COMDAT

; 213  : const UINT RMSG_GETSIGNAL_REAL = ::RegisterWindowMessage(_T("RMSG_GETSIGNAL_REAL"));

  00000	68 00 00 00 00	 push	 OFFSET ??_C@_0BE@FJPKENOB@RMSG_GETSIGNAL_REAL@
  00005	ff 15 00 00 00
	00		 call	 DWORD PTR __imp__RegisterWindowMessageA@4
  0000b	a3 00 00 00 00	 mov	 DWORD PTR ?RMSG_GETSIGNAL_REAL@@3IB, eax
  00010	c3		 ret	 0
??__ERMSG_GETSIGNAL_REAL@@YAXXZ ENDP			; `dynamic initializer for 'RMSG_GETSIGNAL_REAL''
text$di	ENDS
; Function compile flags: /Ogtp
; File D:\git\src\IBK\IBK_DRFN\ProjSrc\SrcDrfn\inc\IBaseDefine.h
;	COMDAT ?AfxGetPctrInterface@@YGJH@Z
_TEXT	SEGMENT
_hMainWnd$ = -36					; size = 4
_szClipFormat$2 = -32					; size = 4
_aBufWnd$3 = -28					; size = 9
__$ArrayPad$ = -16					; size = 4
__$EHRec$ = -12						; size = 12
_nID$ = 8						; size = 4
?AfxGetPctrInterface@@YGJH@Z PROC			; AfxGetPctrInterface, COMDAT

; 260  : {

  00000	55		 push	 ebp
  00001	8b ec		 mov	 ebp, esp
  00003	6a ff		 push	 -1
  00005	68 00 00 00 00	 push	 __ehhandler$?AfxGetPctrInterface@@YGJH@Z
  0000a	64 a1 00 00 00
	00		 mov	 eax, DWORD PTR fs:0
  00010	50		 push	 eax
  00011	83 ec 18	 sub	 esp, 24			; 00000018H
  00014	a1 00 00 00 00	 mov	 eax, DWORD PTR ___security_cookie
  00019	33 c5		 xor	 eax, ebp
  0001b	89 45 f0	 mov	 DWORD PTR __$ArrayPad$[ebp], eax
  0001e	50		 push	 eax
  0001f	8d 45 f4	 lea	 eax, DWORD PTR __$EHRec$[ebp]
  00022	64 a3 00 00 00
	00		 mov	 DWORD PTR fs:0, eax
  00028	0f 57 c0	 xorps	 xmm0, xmm0

; 261  : 	HWND hMainWnd;
; 262  : 	AfxGetHanaroMainWnd(hMainWnd);

  0002b	c7 45 dc 00 00
	00 00		 mov	 DWORD PTR _hMainWnd$[ebp], 0
  00032	8d 4d e0	 lea	 ecx, DWORD PTR _szClipFormat$2[ebp]
  00035	66 0f d6 45 e4	 movq	 QWORD PTR _aBufWnd$3[ebp], xmm0
  0003a	c6 45 ec 00	 mov	 BYTE PTR _aBufWnd$3[ebp+8], 0
  0003e	ff 15 00 00 00
	00		 call	 DWORD PTR __imp_??0?$CStringT@DV?$StrTraitMFC_DLL@DV?$ChTraitsCRT@D@ATL@@@@@ATL@@QAE@XZ
  00044	68 00 00 00 00	 push	 OFFSET ??_C@_0M@CBBNGGHM@PcTrMng?4dll@
  00049	c7 45 fc 00 00
	00 00		 mov	 DWORD PTR __$EHRec$[ebp+8], 0
  00050	ff 15 00 00 00
	00		 call	 DWORD PTR __imp__GetModuleHandleA@4
  00056	50		 push	 eax
  00057	68 00 00 00 00	 push	 OFFSET ??_C@_0P@IDMAJEGN@HANAROPCTRMAIN@
  0005c	8d 45 e0	 lea	 eax, DWORD PTR _szClipFormat$2[ebp]
  0005f	68 00 00 00 00	 push	 OFFSET ??_C@_06NDLAHCHE@?$CFs?$CF08X@
  00064	50		 push	 eax
  00065	ff 15 00 00 00
	00		 call	 DWORD PTR __imp_?Format@?$CStringT@DV?$StrTraitMFC_DLL@DV?$ChTraitsCRT@D@ATL@@@@@ATL@@QAAXPBDZZ
  0006b	83 c4 10	 add	 esp, 16			; 00000010H
  0006e	8d 45 e4	 lea	 eax, DWORD PTR _aBufWnd$3[ebp]
  00071	6a 09		 push	 9
  00073	50		 push	 eax
  00074	ff 75 e0	 push	 DWORD PTR _szClipFormat$2[ebp]
  00077	ff 15 00 00 00
	00		 call	 DWORD PTR __imp__GetEnvironmentVariableA@12
  0007d	8d 45 dc	 lea	 eax, DWORD PTR _hMainWnd$[ebp]
  00080	50		 push	 eax
  00081	8d 45 e4	 lea	 eax, DWORD PTR _aBufWnd$3[ebp]
  00084	68 00 00 00 00	 push	 OFFSET ??_C@_02EMFKHFLK@?$CFX@
  00089	50		 push	 eax
  0008a	e8 00 00 00 00	 call	 _sscanf
  0008f	83 c4 0c	 add	 esp, 12			; 0000000cH
  00092	8d 4d e0	 lea	 ecx, DWORD PTR _szClipFormat$2[ebp]
  00095	ff 15 00 00 00
	00		 call	 DWORD PTR __imp_??1?$CStringT@DV?$StrTraitMFC_DLL@DV?$ChTraitsCRT@D@ATL@@@@@ATL@@QAE@XZ

; 263  : 
; 264  : 	return ::SendMessage(hMainWnd, RMSG_INTERFACE, (WPARAM)nID, 0);

  0009b	6a 00		 push	 0
  0009d	ff 75 08	 push	 DWORD PTR _nID$[ebp]
  000a0	ff 35 00 00 00
	00		 push	 DWORD PTR ?RMSG_INTERFACE@@3IB
  000a6	ff 75 dc	 push	 DWORD PTR _hMainWnd$[ebp]
  000a9	ff 15 00 00 00
	00		 call	 DWORD PTR __imp__SendMessageA@16

; 265  : }

  000af	8b 4d f4	 mov	 ecx, DWORD PTR __$EHRec$[ebp]
  000b2	64 89 0d 00 00
	00 00		 mov	 DWORD PTR fs:0, ecx
  000b9	59		 pop	 ecx
  000ba	8b 4d f0	 mov	 ecx, DWORD PTR __$ArrayPad$[ebp]
  000bd	33 cd		 xor	 ecx, ebp
  000bf	e8 00 00 00 00	 call	 @__security_check_cookie@4
  000c4	8b e5		 mov	 esp, ebp
  000c6	5d		 pop	 ebp
  000c7	c2 04 00	 ret	 4
_TEXT	ENDS
;	COMDAT text$x
text$x	SEGMENT
__unwindfunclet$?AfxGetPctrInterface@@YGJH@Z$0:
  00000	8d 4d e0	 lea	 ecx, DWORD PTR _szClipFormat$2[ebp]
  00003	ff 25 00 00 00
	00		 jmp	 DWORD PTR __imp_??1?$CStringT@DV?$StrTraitMFC_DLL@DV?$ChTraitsCRT@D@ATL@@@@@ATL@@QAE@XZ
  00009	cc		 int	 3
  0000a	cc		 int	 3
  0000b	cc		 int	 3
  0000c	cc		 int	 3
  0000d	cc		 int	 3
__ehhandler$?AfxGetPctrInterface@@YGJH@Z:
  0000e	90		 npad	 1
  0000f	90		 npad	 1
  00010	8b 54 24 08	 mov	 edx, DWORD PTR [esp+8]
  00014	8d 42 0c	 lea	 eax, DWORD PTR [edx+12]
  00017	8b 4a e4	 mov	 ecx, DWORD PTR [edx-28]
  0001a	33 c8		 xor	 ecx, eax
  0001c	e8 00 00 00 00	 call	 @__security_check_cookie@4
  00021	8b 4a fc	 mov	 ecx, DWORD PTR [edx-4]
  00024	33 c8		 xor	 ecx, eax
  00026	e8 00 00 00 00	 call	 @__security_check_cookie@4
  0002b	b8 00 00 00 00	 mov	 eax, OFFSET __ehfuncinfo$?AfxGetPctrInterface@@YGJH@Z
  00030	e9 00 00 00 00	 jmp	 ___CxxFrameHandler3
text$x	ENDS
?AfxGetPctrInterface@@YGJH@Z ENDP			; AfxGetPctrInterface
; Function compile flags: /Ogtp
; File D:\git\src\IBK\IBK_DRFN\ProjSrc\SrcDrfn\inc\IBaseDefine.h
;	COMDAT ??__ERMSG_INTERFACE@@YAXXZ
text$di	SEGMENT
??__ERMSG_INTERFACE@@YAXXZ PROC				; `dynamic initializer for 'RMSG_INTERFACE'', COMDAT

; 170  : const UINT RMSG_INTERFACE = ::RegisterWindowMessage("RMSG_INTERFACE");

  00000	68 00 00 00 00	 push	 OFFSET ??_C@_0P@BKKCOCLK@RMSG_INTERFACE@
  00005	ff 15 00 00 00
	00		 call	 DWORD PTR __imp__RegisterWindowMessageA@4
  0000b	a3 00 00 00 00	 mov	 DWORD PTR ?RMSG_INTERFACE@@3IB, eax
  00010	c3		 ret	 0
??__ERMSG_INTERFACE@@YAXXZ ENDP				; `dynamic initializer for 'RMSG_INTERFACE''
text$di	ENDS
; Function compile flags: /Ogtp
; File C:\Program Files (x86)\Microsoft Visual Studio\2019\Community\VC\Tools\MSVC\14.29.30133\atlmfc\include\afxwin2.inl
;	COMDAT ?EndModalState@CWnd@@UAEXXZ
_TEXT	SEGMENT
?EndModalState@CWnd@@UAEXXZ PROC			; CWnd::EndModalState, COMDAT
; _this$ = ecx

; 567  : 	{ ::EnableWindow(m_hWnd, TRUE); }

  00000	6a 01		 push	 1
  00002	ff 71 20	 push	 DWORD PTR [ecx+32]
  00005	ff 15 00 00 00
	00		 call	 DWORD PTR __imp__EnableWindow@8
  0000b	c3		 ret	 0
?EndModalState@CWnd@@UAEXXZ ENDP			; CWnd::EndModalState
_TEXT	ENDS
; Function compile flags: /Ogtp
; File C:\Program Files (x86)\Microsoft Visual Studio\2019\Community\VC\Tools\MSVC\14.29.30133\atlmfc\include\afxwin2.inl
;	COMDAT ?BeginModalState@CWnd@@UAEXXZ
_TEXT	SEGMENT
?BeginModalState@CWnd@@UAEXXZ PROC			; CWnd::BeginModalState, COMDAT
; _this$ = ecx

; 565  : 	{ ::EnableWindow(m_hWnd, FALSE); }

  00000	6a 00		 push	 0
  00002	ff 71 20	 push	 DWORD PTR [ecx+32]
  00005	ff 15 00 00 00
	00		 call	 DWORD PTR __imp__EnableWindow@8
  0000b	c3		 ret	 0
?BeginModalState@CWnd@@UAEXXZ ENDP			; CWnd::BeginModalState
_TEXT	ENDS
; Function compile flags: /Ogtp
; File C:\Program Files (x86)\Microsoft Visual Studio\2019\Community\VC\Tools\MSVC\14.29.30133\atlmfc\include\afxwin1.inl
; File C:\Program Files (x86)\Microsoft Visual Studio\2019\Community\VC\Tools\MSVC\14.29.30133\atlmfc\include\afx.inl
;	COMDAT ??_GCMenu@@UAEPAXI@Z
_TEXT	SEGMENT
__$EHRec$ = -12						; size = 12
___flags$ = 8						; size = 4
??_GCMenu@@UAEPAXI@Z PROC				; CMenu::`scalar deleting destructor', COMDAT
; _this$ = ecx
  00000	55		 push	 ebp
  00001	8b ec		 mov	 ebp, esp
  00003	6a ff		 push	 -1
  00005	68 00 00 00 00	 push	 __ehhandler$??_GCMenu@@UAEPAXI@Z
  0000a	64 a1 00 00 00
	00		 mov	 eax, DWORD PTR fs:0
  00010	50		 push	 eax
  00011	56		 push	 esi
  00012	a1 00 00 00 00	 mov	 eax, DWORD PTR ___security_cookie
  00017	33 c5		 xor	 eax, ebp
  00019	50		 push	 eax
  0001a	8d 45 f4	 lea	 eax, DWORD PTR __$EHRec$[ebp]
  0001d	64 a3 00 00 00
	00		 mov	 DWORD PTR fs:0, eax
  00023	8b f1		 mov	 esi, ecx
; File C:\Program Files (x86)\Microsoft Visual Studio\2019\Community\VC\Tools\MSVC\14.29.30133\atlmfc\include\afxwin1.inl

; 905  : 	{ DestroyMenu(); }

  00025	c7 45 fc 00 00
	00 00		 mov	 DWORD PTR __$EHRec$[ebp+8], 0
  0002c	c7 06 00 00 00
	00		 mov	 DWORD PTR [esi], OFFSET ??_7CMenu@@6B@
  00032	e8 00 00 00 00	 call	 ?DestroyMenu@CMenu@@QAEHXZ ; CMenu::DestroyMenu
  00037	8b 45 08	 mov	 eax, DWORD PTR ___flags$[ebp]
  0003a	a8 01		 test	 al, 1
  0003c	74 2c		 je	 SHORT $LN12@scalar
  0003e	a8 04		 test	 al, 4
  00040	75 1d		 jne	 SHORT $LN3@scalar
; File C:\Program Files (x86)\Microsoft Visual Studio\2019\Community\VC\Tools\MSVC\14.29.30133\atlmfc\include\afx.inl

; 112  : 	{ ::operator delete(p); }

  00042	56		 push	 esi
  00043	e8 00 00 00 00	 call	 ??3@YAXPAX@Z		; operator delete
  00048	83 c4 04	 add	 esp, 4
  0004b	8b c6		 mov	 eax, esi
  0004d	8b 4d f4	 mov	 ecx, DWORD PTR __$EHRec$[ebp]
  00050	64 89 0d 00 00
	00 00		 mov	 DWORD PTR fs:0, ecx
  00057	59		 pop	 ecx
  00058	5e		 pop	 esi
  00059	8b e5		 mov	 esp, ebp
  0005b	5d		 pop	 ebp
  0005c	c2 04 00	 ret	 4
$LN3@scalar:
  0005f	6a 08		 push	 8
  00061	56		 push	 esi
  00062	e8 00 00 00 00	 call	 ?__global_delete@@YAXPAXI@Z ; __global_delete
  00067	83 c4 08	 add	 esp, 8
$LN12@scalar:
  0006a	8b c6		 mov	 eax, esi
  0006c	8b 4d f4	 mov	 ecx, DWORD PTR __$EHRec$[ebp]
  0006f	64 89 0d 00 00
	00 00		 mov	 DWORD PTR fs:0, ecx
  00076	59		 pop	 ecx
  00077	5e		 pop	 esi
  00078	8b e5		 mov	 esp, ebp
  0007a	5d		 pop	 ebp
  0007b	c2 04 00	 ret	 4
  0007e	cc		 int	 3
  0007f	cc		 int	 3
  00080	cc		 int	 3
  00081	cc		 int	 3
  00082	cc		 int	 3
_TEXT	ENDS
;	COMDAT text$x
text$x	SEGMENT
__ehhandler$??_GCMenu@@UAEPAXI@Z:
  00000	90		 npad	 1
  00001	90		 npad	 1
  00002	8b 54 24 08	 mov	 edx, DWORD PTR [esp+8]
  00006	8d 42 0c	 lea	 eax, DWORD PTR [edx+12]
  00009	8b 4a f8	 mov	 ecx, DWORD PTR [edx-8]
  0000c	33 c8		 xor	 ecx, eax
  0000e	e8 00 00 00 00	 call	 @__security_check_cookie@4
  00013	b8 00 00 00 00	 mov	 eax, OFFSET __ehfuncinfo$??_GCMenu@@UAEPAXI@Z
  00018	e9 00 00 00 00	 jmp	 ___CxxFrameHandler3
text$x	ENDS
??_GCMenu@@UAEPAXI@Z ENDP				; CMenu::`scalar deleting destructor'
; Function compile flags: /Ogtp
; File C:\Program Files (x86)\Microsoft Visual Studio\2019\Community\VC\Tools\MSVC\14.29.30133\atlmfc\include\afxwin1.inl
;	COMDAT ??1CMenu@@UAE@XZ
_TEXT	SEGMENT
__$EHRec$ = -12						; size = 12
??1CMenu@@UAE@XZ PROC					; CMenu::~CMenu, COMDAT
; _this$ = ecx

; 905  : 	{ DestroyMenu(); }

  00000	55		 push	 ebp
  00001	8b ec		 mov	 ebp, esp
  00003	6a ff		 push	 -1
  00005	68 00 00 00 00	 push	 __ehhandler$??1CMenu@@UAE@XZ
  0000a	64 a1 00 00 00
	00		 mov	 eax, DWORD PTR fs:0
  00010	50		 push	 eax
  00011	a1 00 00 00 00	 mov	 eax, DWORD PTR ___security_cookie
  00016	33 c5		 xor	 eax, ebp
  00018	50		 push	 eax
  00019	8d 45 f4	 lea	 eax, DWORD PTR __$EHRec$[ebp]
  0001c	64 a3 00 00 00
	00		 mov	 DWORD PTR fs:0, eax
  00022	c7 01 00 00 00
	00		 mov	 DWORD PTR [ecx], OFFSET ??_7CMenu@@6B@
  00028	e8 00 00 00 00	 call	 ?DestroyMenu@CMenu@@QAEHXZ ; CMenu::DestroyMenu
  0002d	8b 4d f4	 mov	 ecx, DWORD PTR __$EHRec$[ebp]
  00030	64 89 0d 00 00
	00 00		 mov	 DWORD PTR fs:0, ecx
  00037	59		 pop	 ecx
  00038	8b e5		 mov	 esp, ebp
  0003a	5d		 pop	 ebp
  0003b	c3		 ret	 0
  0003c	cc		 int	 3
  0003d	cc		 int	 3
  0003e	cc		 int	 3
  0003f	cc		 int	 3
  00040	cc		 int	 3
_TEXT	ENDS
;	COMDAT text$x
text$x	SEGMENT
__ehhandler$??1CMenu@@UAE@XZ:
  00000	90		 npad	 1
  00001	90		 npad	 1
  00002	8b 54 24 08	 mov	 edx, DWORD PTR [esp+8]
  00006	8d 42 0c	 lea	 eax, DWORD PTR [edx+12]
  00009	8b 4a fc	 mov	 ecx, DWORD PTR [edx-4]
  0000c	33 c8		 xor	 ecx, eax
  0000e	e8 00 00 00 00	 call	 @__security_check_cookie@4
  00013	b8 00 00 00 00	 mov	 eax, OFFSET __ehfuncinfo$??1CMenu@@UAE@XZ
  00018	e9 00 00 00 00	 jmp	 ___CxxFrameHandler3
text$x	ENDS
??1CMenu@@UAE@XZ ENDP					; CMenu::~CMenu
; Function compile flags: /Ogtp
; File C:\Program Files (x86)\Microsoft Visual Studio\2019\Community\VC\Tools\MSVC\14.29.30133\atlmfc\include\afxwin1.inl
; File C:\Program Files (x86)\Microsoft Visual Studio\2019\Community\VC\Tools\MSVC\14.29.30133\atlmfc\include\afx.inl
;	COMDAT ??_GCBitmap@@UAEPAXI@Z
_TEXT	SEGMENT
___flags$ = 8						; size = 4
??_GCBitmap@@UAEPAXI@Z PROC				; CBitmap::`scalar deleting destructor', COMDAT
; _this$ = ecx
  00000	55		 push	 ebp
  00001	8b ec		 mov	 ebp, esp
; File C:\Program Files (x86)\Microsoft Visual Studio\2019\Community\VC\Tools\MSVC\14.29.30133\atlmfc\include\afxwin1.inl

; 179  : 	{ }

  00003	56		 push	 esi
  00004	8b f1		 mov	 esi, ecx
  00006	c7 06 00 00 00
	00		 mov	 DWORD PTR [esi], OFFSET ??_7CBitmap@@6B@
  0000c	e8 00 00 00 00	 call	 ??1CGdiObject@@UAE@XZ	; CGdiObject::~CGdiObject
  00011	8b 45 08	 mov	 eax, DWORD PTR ___flags$[ebp]
  00014	a8 01		 test	 al, 1
  00016	74 1f		 je	 SHORT $LN12@scalar
  00018	a8 04		 test	 al, 4
  0001a	75 10		 jne	 SHORT $LN3@scalar
; File C:\Program Files (x86)\Microsoft Visual Studio\2019\Community\VC\Tools\MSVC\14.29.30133\atlmfc\include\afx.inl

; 112  : 	{ ::operator delete(p); }

  0001c	56		 push	 esi
  0001d	e8 00 00 00 00	 call	 ??3@YAXPAX@Z		; operator delete
  00022	83 c4 04	 add	 esp, 4
  00025	8b c6		 mov	 eax, esi
  00027	5e		 pop	 esi
  00028	5d		 pop	 ebp
  00029	c2 04 00	 ret	 4
$LN3@scalar:
  0002c	6a 08		 push	 8
  0002e	56		 push	 esi
  0002f	e8 00 00 00 00	 call	 ?__global_delete@@YAXPAXI@Z ; __global_delete
  00034	83 c4 08	 add	 esp, 8
$LN12@scalar:
  00037	8b c6		 mov	 eax, esi
  00039	5e		 pop	 esi
  0003a	5d		 pop	 ebp
  0003b	c2 04 00	 ret	 4
??_GCBitmap@@UAEPAXI@Z ENDP				; CBitmap::`scalar deleting destructor'
_TEXT	ENDS
; Function compile flags: /Ogtp
; File C:\Program Files (x86)\Microsoft Visual Studio\2019\Community\VC\Tools\MSVC\14.29.30133\atlmfc\include\afxwin1.inl
;	COMDAT ??1CBitmap@@UAE@XZ
_TEXT	SEGMENT
??1CBitmap@@UAE@XZ PROC					; CBitmap::~CBitmap, COMDAT
; _this$ = ecx

; 179  : 	{ }

  00000	c7 01 00 00 00
	00		 mov	 DWORD PTR [ecx], OFFSET ??_7CBitmap@@6B@
  00006	e9 00 00 00 00	 jmp	 ??1CGdiObject@@UAE@XZ	; CGdiObject::~CGdiObject
??1CBitmap@@UAE@XZ ENDP					; CBitmap::~CBitmap
_TEXT	ENDS
; Function compile flags: /Ogtp
; File C:\Program Files (x86)\Microsoft Visual Studio\2019\Community\VC\Tools\MSVC\14.29.30133\atlmfc\include\afx.inl
;	COMDAT ??_GCGdiObject@@UAEPAXI@Z
_TEXT	SEGMENT
___flags$ = 8						; size = 4
??_GCGdiObject@@UAEPAXI@Z PROC				; CGdiObject::`scalar deleting destructor', COMDAT
; _this$ = ecx
  00000	55		 push	 ebp
  00001	8b ec		 mov	 ebp, esp
  00003	56		 push	 esi
  00004	8b f1		 mov	 esi, ecx
  00006	e8 00 00 00 00	 call	 ??1CGdiObject@@UAE@XZ	; CGdiObject::~CGdiObject
  0000b	8b 45 08	 mov	 eax, DWORD PTR ___flags$[ebp]
  0000e	a8 01		 test	 al, 1
  00010	74 1f		 je	 SHORT $LN9@scalar
  00012	a8 04		 test	 al, 4
  00014	75 10		 jne	 SHORT $LN3@scalar

; 112  : 	{ ::operator delete(p); }

  00016	56		 push	 esi
  00017	e8 00 00 00 00	 call	 ??3@YAXPAX@Z		; operator delete
  0001c	83 c4 04	 add	 esp, 4
  0001f	8b c6		 mov	 eax, esi
  00021	5e		 pop	 esi
  00022	5d		 pop	 ebp
  00023	c2 04 00	 ret	 4
$LN3@scalar:
  00026	6a 08		 push	 8
  00028	56		 push	 esi
  00029	e8 00 00 00 00	 call	 ?__global_delete@@YAXPAXI@Z ; __global_delete
  0002e	83 c4 08	 add	 esp, 8
$LN9@scalar:
  00031	8b c6		 mov	 eax, esi
  00033	5e		 pop	 esi
  00034	5d		 pop	 ebp
  00035	c2 04 00	 ret	 4
??_GCGdiObject@@UAEPAXI@Z ENDP				; CGdiObject::`scalar deleting destructor'
_TEXT	ENDS
; Function compile flags: /Ogtp
; File C:\Program Files (x86)\Microsoft Visual Studio\2019\Community\VC\Tools\MSVC\14.29.30133\atlmfc\include\afxwin1.inl
;	COMDAT ??1CGdiObject@@UAE@XZ
_TEXT	SEGMENT
_pException$2 = -540					; size = 4
_strMsg$3 = -536					; size = 4
_szErrorMessage$4 = -532				; size = 512
__$ArrayPad$ = -20					; size = 4
__$EHRec$ = -16						; size = 16
??1CGdiObject@@UAE@XZ PROC				; CGdiObject::~CGdiObject, COMDAT
; _this$ = ecx

; 74   : {

  00000	55		 push	 ebp
  00001	8b ec		 mov	 ebp, esp
  00003	6a ff		 push	 -1
  00005	68 00 00 00 00	 push	 __ehhandler$??1CGdiObject@@UAE@XZ
  0000a	64 a1 00 00 00
	00		 mov	 eax, DWORD PTR fs:0
  00010	50		 push	 eax
  00011	81 ec 10 02 00
	00		 sub	 esp, 528		; 00000210H
  00017	a1 00 00 00 00	 mov	 eax, DWORD PTR ___security_cookie
  0001c	33 c5		 xor	 eax, ebp
  0001e	89 45 ec	 mov	 DWORD PTR __$ArrayPad$[ebp], eax
  00021	53		 push	 ebx
  00022	56		 push	 esi
  00023	57		 push	 edi
  00024	50		 push	 eax
  00025	8d 45 f4	 lea	 eax, DWORD PTR __$EHRec$[ebp+4]
  00028	64 a3 00 00 00
	00		 mov	 DWORD PTR fs:0, eax
  0002e	89 65 f0	 mov	 DWORD PTR __$EHRec$[ebp], esp
  00031	c7 01 00 00 00
	00		 mov	 DWORD PTR [ecx], OFFSET ??_7CGdiObject@@6B@

; 75   : 	AFX_BEGIN_DESTRUCTOR

  00037	c7 45 fc 00 00
	00 00		 mov	 DWORD PTR __$EHRec$[ebp+12], 0

; 76   : 	DeleteObject();

  0003e	e8 00 00 00 00	 call	 ?DeleteObject@CGdiObject@@QAEHXZ ; CGdiObject::DeleteObject
$LN18@CGdiObject:

; 78   : }

  00043	8b 4d f4	 mov	 ecx, DWORD PTR __$EHRec$[ebp+4]
  00046	64 89 0d 00 00
	00 00		 mov	 DWORD PTR fs:0, ecx
  0004d	59		 pop	 ecx
  0004e	5f		 pop	 edi
  0004f	5e		 pop	 esi
  00050	5b		 pop	 ebx
  00051	8b 4d ec	 mov	 ecx, DWORD PTR __$ArrayPad$[ebp]
  00054	33 cd		 xor	 ecx, ebp
  00056	e8 00 00 00 00	 call	 @__security_check_cookie@4
  0005b	8b e5		 mov	 esp, ebp
  0005d	5d		 pop	 ebp
  0005e	c3		 ret	 0
__catch$??1CGdiObject@@UAE@XZ$0:

; 77   : 	AFX_END_DESTRUCTOR

  0005f	8d 8d e8 fd ff
	ff		 lea	 ecx, DWORD PTR _strMsg$3[ebp]
  00065	ff 15 00 00 00
	00		 call	 DWORD PTR __imp_??0?$CStringT@DV?$StrTraitMFC_DLL@DV?$ChTraitsCRT@D@ATL@@@@@ATL@@QAE@XZ
  0006b	8b b5 e4 fd ff
	ff		 mov	 esi, DWORD PTR _pException$2[ebp]
  00071	8d 8d ec fd ff
	ff		 lea	 ecx, DWORD PTR _szErrorMessage$4[ebp]
  00077	6a 00		 push	 0
  00079	68 00 02 00 00	 push	 512			; 00000200H
  0007e	51		 push	 ecx
  0007f	8b 06		 mov	 eax, DWORD PTR [esi]
  00081	8b ce		 mov	 ecx, esi
  00083	c6 45 fc 02	 mov	 BYTE PTR __$EHRec$[ebp+12], 2
  00087	ff 50 14	 call	 DWORD PTR [eax+20]
  0008a	85 c0		 test	 eax, eax
  0008c	74 2a		 je	 SHORT $LN9@CGdiObject
  0008e	8d 85 ec fd ff
	ff		 lea	 eax, DWORD PTR _szErrorMessage$4[ebp]
  00094	50		 push	 eax
  00095	6a 4d		 push	 77			; 0000004dH
  00097	68 00 00 00 00	 push	 OFFSET ??_C@_0HD@JJCHHHNK@C?3?2Program?5Files?5?$CIx86?$CJ?2Microsof@
  0009c	68 00 00 00 00	 push	 OFFSET ??_C@_0BP@OIEOKIDM@Exception?5thrown?5in?5destructor@
  000a1	8d 85 e8 fd ff
	ff		 lea	 eax, DWORD PTR _strMsg$3[ebp]
  000a7	68 00 00 00 00	 push	 OFFSET ??_C@_0BB@HBOOMJBF@?$CFTs?5?$CI?$CFTs?3?$CFd?$CJ?6?$CFTs@
  000ac	50		 push	 eax
  000ad	ff 15 00 00 00
	00		 call	 DWORD PTR __imp_?Format@?$CStringT@DV?$StrTraitMFC_DLL@DV?$ChTraitsCRT@D@ATL@@@@@ATL@@QAAXPBDZZ
  000b3	83 c4 18	 add	 esp, 24			; 00000018H
  000b6	eb 21		 jmp	 SHORT $LN10@CGdiObject
$LN9@CGdiObject:
  000b8	6a 4d		 push	 77			; 0000004dH
  000ba	68 00 00 00 00	 push	 OFFSET ??_C@_0HD@JJCHHHNK@C?3?2Program?5Files?5?$CIx86?$CJ?2Microsof@
  000bf	68 00 00 00 00	 push	 OFFSET ??_C@_0BP@OIEOKIDM@Exception?5thrown?5in?5destructor@
  000c4	8d 85 e8 fd ff
	ff		 lea	 eax, DWORD PTR _strMsg$3[ebp]
  000ca	68 00 00 00 00	 push	 OFFSET ??_C@_0N@OMEMOKLE@?$CFTs?5?$CI?$CFTs?3?$CFd?$CJ@
  000cf	50		 push	 eax
  000d0	ff 15 00 00 00
	00		 call	 DWORD PTR __imp_?Format@?$CStringT@DV?$StrTraitMFC_DLL@DV?$ChTraitsCRT@D@ATL@@@@@ATL@@QAAXPBDZZ
  000d6	83 c4 14	 add	 esp, 20			; 00000014H
$LN10@CGdiObject:
  000d9	6a 00		 push	 0
  000db	6a 00		 push	 0
  000dd	ff b5 e8 fd ff
	ff		 push	 DWORD PTR _strMsg$3[ebp]
  000e3	e8 00 00 00 00	 call	 ?AfxMessageBox@@YGHPBDII@Z ; AfxMessageBox
  000e8	8d 8d e8 fd ff
	ff		 lea	 ecx, DWORD PTR _strMsg$3[ebp]
  000ee	ff 15 00 00 00
	00		 call	 DWORD PTR __imp_??1?$CStringT@DV?$StrTraitMFC_DLL@DV?$ChTraitsCRT@D@ATL@@@@@ATL@@QAE@XZ
  000f4	8b 06		 mov	 eax, DWORD PTR [esi]
  000f6	8b ce		 mov	 ecx, esi
  000f8	6a 01		 push	 1
  000fa	ff 50 04	 call	 DWORD PTR [eax+4]
  000fd	b8 00 00 00 00	 mov	 eax, $LN18@CGdiObject
  00102	c3		 ret	 0
_TEXT	ENDS
;	COMDAT text$x
text$x	SEGMENT
__unwindfunclet$??1CGdiObject@@UAE@XZ$2:
  00000	8d 8d e8 fd ff
	ff		 lea	 ecx, DWORD PTR _strMsg$3[ebp]
  00006	ff 25 00 00 00
	00		 jmp	 DWORD PTR __imp_??1?$CStringT@DV?$StrTraitMFC_DLL@DV?$ChTraitsCRT@D@ATL@@@@@ATL@@QAE@XZ
  0000c	cc		 int	 3
  0000d	cc		 int	 3
  0000e	cc		 int	 3
  0000f	cc		 int	 3
  00010	cc		 int	 3
__ehhandler$??1CGdiObject@@UAE@XZ:
  00011	90		 npad	 1
  00012	90		 npad	 1
  00013	8b 54 24 08	 mov	 edx, DWORD PTR [esp+8]
  00017	8d 42 0c	 lea	 eax, DWORD PTR [edx+12]
  0001a	8b 8a e0 fd ff
	ff		 mov	 ecx, DWORD PTR [edx-544]
  00020	33 c8		 xor	 ecx, eax
  00022	e8 00 00 00 00	 call	 @__security_check_cookie@4
  00027	8b 4a f8	 mov	 ecx, DWORD PTR [edx-8]
  0002a	33 c8		 xor	 ecx, eax
  0002c	e8 00 00 00 00	 call	 @__security_check_cookie@4
  00031	b8 00 00 00 00	 mov	 eax, OFFSET __ehfuncinfo$??1CGdiObject@@UAE@XZ
  00036	e9 00 00 00 00	 jmp	 ___CxxFrameHandler3
text$x	ENDS
??1CGdiObject@@UAE@XZ ENDP				; CGdiObject::~CGdiObject
; Function compile flags: /Ogtp
; File C:\Program Files (x86)\Microsoft Visual Studio\2019\Community\VC\Tools\MSVC\14.29.30133\atlmfc\include\atlbase.h
; File C:\Program Files (x86)\Microsoft Visual Studio\2019\Community\VC\Tools\MSVC\14.29.30133\atlmfc\include\atlsimpcoll.h
; File C:\Program Files (x86)\Microsoft Visual Studio\2019\Community\VC\Tools\MSVC\14.29.30133\atlmfc\include\atlbase.h
; File C:\Program Files (x86)\Microsoft Visual Studio\2019\Community\VC\Tools\MSVC\14.29.30133\atlmfc\include\atlsimpcoll.h
; File C:\Program Files (x86)\Microsoft Visual Studio\2019\Community\VC\Tools\MSVC\14.29.30133\atlmfc\include\atlcore.h
; File C:\Program Files (x86)\Microsoft Visual Studio\2019\Community\VC\Tools\MSVC\14.29.30133\atlmfc\include\atlsimpcoll.h
; File C:\Program Files (x86)\Microsoft Visual Studio\2019\Community\VC\Tools\MSVC\14.29.30133\atlmfc\include\atlcore.h
; File C:\Program Files (x86)\Microsoft Visual Studio\2019\Community\VC\Tools\MSVC\14.29.30133\atlmfc\include\atlbase.h
; File C:\Program Files (x86)\Microsoft Visual Studio\2019\Community\VC\Tools\MSVC\14.29.30133\atlmfc\include\atlsimpcoll.h
;	COMDAT ??__F_AtlWinModule@ATL@@YAXXZ
text$yd	SEGMENT
??__F_AtlWinModule@ATL@@YAXXZ PROC			; ATL::`dynamic atexit destructor for '_AtlWinModule'', COMDAT
; File C:\Program Files (x86)\Microsoft Visual Studio\2019\Community\VC\Tools\MSVC\14.29.30133\atlmfc\include\atlbase.h

; 7655 : 	if (pWinModule->cbSize == 0)

  00000	a1 00 00 00 00	 mov	 eax, DWORD PTR ?_AtlWinModule@ATL@@3VCAtlWinModule@1@A
  00005	8b 0d 00 00 00
	00		 mov	 ecx, DWORD PTR __imp__free

; 2957 : 		AtlWinModuleTerm(this, _AtlBaseModule.GetModuleInstance());

  0000b	57		 push	 edi
  0000c	8b 3d 04 00 00
	00		 mov	 edi, DWORD PTR ?_AtlBaseModule@ATL@@3VCAtlBaseModule@1@A+4

; 7655 : 	if (pWinModule->cbSize == 0)

  00012	85 c0		 test	 eax, eax
  00014	0f 84 93 00 00
	00		 je	 $LN8@dynamic

; 7656 : 		return S_OK;
; 7657 : 	if (pWinModule->cbSize != sizeof(_ATL_WIN_MODULE))

  0001a	83 f8 2c	 cmp	 eax, 44			; 0000002cH
  0001d	0f 85 8a 00 00
	00		 jne	 $LN8@dynamic

; 7658 : 		return E_INVALIDARG;
; 7659 : 
; 7660 : 	for (int i = 0; i < pWinModule->m_rgWindowClassAtoms.GetSize(); i++)

  00023	a1 24 00 00 00	 mov	 eax, DWORD PTR ?_AtlWinModule@ATL@@3VCAtlWinModule@1@A+36
  00028	56		 push	 esi
  00029	33 f6		 xor	 esi, esi
  0002b	85 c0		 test	 eax, eax
  0002d	7e 35		 jle	 SHORT $LN10@dynamic
  0002f	53		 push	 ebx
  00030	8b 1d 00 00 00
	00		 mov	 ebx, DWORD PTR __imp__UnregisterClassA@8
$LL11@dynamic:
; File C:\Program Files (x86)\Microsoft Visual Studio\2019\Community\VC\Tools\MSVC\14.29.30133\atlmfc\include\atlsimpcoll.h

; 238  : 		if(nIndex < 0 || nIndex >= m_nSize)

  00036	85 f6		 test	 esi, esi
  00038	0f 88 9e 00 00
	00		 js	 $LN46@dynamic
  0003e	3b f0		 cmp	 esi, eax
  00040	0f 8d 96 00 00
	00		 jge	 $LN46@dynamic
; File C:\Program Files (x86)\Microsoft Visual Studio\2019\Community\VC\Tools\MSVC\14.29.30133\atlmfc\include\atlbase.h

; 7661 : 		UnregisterClass((LPCTSTR)pWinModule->m_rgWindowClassAtoms[i], hInst);

  00046	a1 20 00 00 00	 mov	 eax, DWORD PTR ?_AtlWinModule@ATL@@3VCAtlWinModule@1@A+32
  0004b	57		 push	 edi
  0004c	0f b7 04 70	 movzx	 eax, WORD PTR [eax+esi*2]
  00050	50		 push	 eax
  00051	ff d3		 call	 ebx
  00053	a1 24 00 00 00	 mov	 eax, DWORD PTR ?_AtlWinModule@ATL@@3VCAtlWinModule@1@A+36
  00058	46		 inc	 esi
  00059	3b f0		 cmp	 esi, eax
  0005b	7c d9		 jl	 SHORT $LL11@dynamic
; File C:\Program Files (x86)\Microsoft Visual Studio\2019\Community\VC\Tools\MSVC\14.29.30133\atlmfc\include\atlsimpcoll.h

; 238  : 		if(nIndex < 0 || nIndex >= m_nSize)

  0005d	8b 0d 00 00 00
	00		 mov	 ecx, DWORD PTR __imp__free
  00063	5b		 pop	 ebx
$LN10@dynamic:

; 216  : 		if(m_aT != NULL)

  00064	a1 20 00 00 00	 mov	 eax, DWORD PTR ?_AtlWinModule@ATL@@3VCAtlWinModule@1@A+32
  00069	5e		 pop	 esi
  0006a	85 c0		 test	 eax, eax
  0006c	74 10		 je	 SHORT $LN25@dynamic

; 217  : 		{
; 218  : 			for(int i = 0; i < m_nSize; i++)
; 219  : 				m_aT[i].~T();
; 220  : 			free(m_aT);

  0006e	50		 push	 eax
  0006f	ff d1		 call	 ecx
  00071	83 c4 04	 add	 esp, 4

; 221  : 			m_aT = NULL;

  00074	c7 05 20 00 00
	00 00 00 00 00	 mov	 DWORD PTR ?_AtlWinModule@ATL@@3VCAtlWinModule@1@A+32, 0
$LN25@dynamic:
; File C:\Program Files (x86)\Microsoft Visual Studio\2019\Community\VC\Tools\MSVC\14.29.30133\atlmfc\include\atlcore.h

; 155  : 		DeleteCriticalSection(&m_sec);

  0007e	68 04 00 00 00	 push	 OFFSET ?_AtlWinModule@ATL@@3VCAtlWinModule@1@A+4
; File C:\Program Files (x86)\Microsoft Visual Studio\2019\Community\VC\Tools\MSVC\14.29.30133\atlmfc\include\atlsimpcoll.h

; 223  : 		m_nSize = 0;

  00083	c7 05 24 00 00
	00 00 00 00 00	 mov	 DWORD PTR ?_AtlWinModule@ATL@@3VCAtlWinModule@1@A+36, 0

; 224  : 		m_nAllocSize = 0;

  0008d	c7 05 28 00 00
	00 00 00 00 00	 mov	 DWORD PTR ?_AtlWinModule@ATL@@3VCAtlWinModule@1@A+40, 0
; File C:\Program Files (x86)\Microsoft Visual Studio\2019\Community\VC\Tools\MSVC\14.29.30133\atlmfc\include\atlcore.h

; 155  : 		DeleteCriticalSection(&m_sec);

  00097	ff 15 00 00 00
	00		 call	 DWORD PTR __imp__DeleteCriticalSection@4
; File C:\Program Files (x86)\Microsoft Visual Studio\2019\Community\VC\Tools\MSVC\14.29.30133\atlmfc\include\atlbase.h

; 7664 : 	pWinModule->cbSize = 0;

  0009d	8b 0d 00 00 00
	00		 mov	 ecx, DWORD PTR __imp__free
  000a3	c7 05 00 00 00
	00 00 00 00 00	 mov	 DWORD PTR ?_AtlWinModule@ATL@@3VCAtlWinModule@1@A, 0
$LN8@dynamic:
; File C:\Program Files (x86)\Microsoft Visual Studio\2019\Community\VC\Tools\MSVC\14.29.30133\atlmfc\include\atlsimpcoll.h

; 216  : 		if(m_aT != NULL)

  000ad	a1 20 00 00 00	 mov	 eax, DWORD PTR ?_AtlWinModule@ATL@@3VCAtlWinModule@1@A+32
  000b2	5f		 pop	 edi
  000b3	85 c0		 test	 eax, eax
  000b5	74 10		 je	 SHORT $LN40@dynamic

; 217  : 		{
; 218  : 			for(int i = 0; i < m_nSize; i++)
; 219  : 				m_aT[i].~T();
; 220  : 			free(m_aT);

  000b7	50		 push	 eax
  000b8	ff d1		 call	 ecx
  000ba	83 c4 04	 add	 esp, 4

; 221  : 			m_aT = NULL;

  000bd	c7 05 20 00 00
	00 00 00 00 00	 mov	 DWORD PTR ?_AtlWinModule@ATL@@3VCAtlWinModule@1@A+32, 0
$LN40@dynamic:

; 223  : 		m_nSize = 0;

  000c7	c7 05 24 00 00
	00 00 00 00 00	 mov	 DWORD PTR ?_AtlWinModule@ATL@@3VCAtlWinModule@1@A+36, 0

; 224  : 		m_nAllocSize = 0;

  000d1	c7 05 28 00 00
	00 00 00 00 00	 mov	 DWORD PTR ?_AtlWinModule@ATL@@3VCAtlWinModule@1@A+40, 0
  000db	c3		 ret	 0
$LN46@dynamic:

; 240  : 			_AtlRaiseException((DWORD)EXCEPTION_ARRAY_BOUNDS_EXCEEDED);

  000dc	6a 01		 push	 1
  000de	68 8c 00 00 c0	 push	 -1073741684		; c000008cH
  000e3	e8 00 00 00 00	 call	 ?_AtlRaiseException@ATL@@YAXKK@Z ; ATL::_AtlRaiseException
$LN56@dynamic:
  000e8	cc		 int	 3
??__F_AtlWinModule@ATL@@YAXXZ ENDP			; ATL::`dynamic atexit destructor for '_AtlWinModule''
text$yd	ENDS
; Function compile flags: /Ogtp
; File C:\Program Files (x86)\Microsoft Visual Studio\2019\Community\VC\Tools\MSVC\14.29.30133\atlmfc\include\atlbase.h
; File C:\Program Files (x86)\Microsoft Visual Studio\2019\Community\VC\Tools\MSVC\14.29.30133\atlmfc\include\atlwinverapi.h
; File C:\Program Files (x86)\Microsoft Visual Studio\2019\Community\VC\Tools\MSVC\14.29.30133\atlmfc\include\atlcore.h
; File C:\Program Files (x86)\Windows Kits\10\Include\10.0.22000.0\shared\winerror.h
; File C:\Program Files (x86)\Microsoft Visual Studio\2019\Community\VC\Tools\MSVC\14.29.30133\atlmfc\include\atlbase.h
;	COMDAT ??__E_AtlWinModule@ATL@@YAXXZ
text$di	SEGMENT
??__E_AtlWinModule@ATL@@YAXXZ PROC			; ATL::`dynamic initializer for '_AtlWinModule'', COMDAT
; File C:\Program Files (x86)\Microsoft Visual Studio\2019\Community\VC\Tools\MSVC\14.29.30133\atlmfc\include\atlwinverapi.h

; 730  : 	return ::InitializeCriticalSectionEx(lpCriticalSection, dwSpinCount, Flags);

  00000	6a 00		 push	 0
  00002	6a 00		 push	 0
  00004	68 04 00 00 00	 push	 OFFSET ?_AtlWinModule@ATL@@3VCAtlWinModule@1@A+4
  00009	ff 15 00 00 00
	00		 call	 DWORD PTR __imp__InitializeCriticalSectionEx@12
; File C:\Program Files (x86)\Microsoft Visual Studio\2019\Community\VC\Tools\MSVC\14.29.30133\atlmfc\include\atlcore.h

; 145  : 		if (!_AtlInitializeCriticalSectionEx(&m_sec, 0, 0))

  0000f	85 c0		 test	 eax, eax
  00011	75 27		 jne	 SHORT $LN4@dynamic

; 146  : 		{
; 147  : 			hRes = HRESULT_FROM_WIN32(GetLastError());

  00013	ff 15 00 00 00
	00		 call	 DWORD PTR __imp__GetLastError@0
; File C:\Program Files (x86)\Windows Kits\10\Include\10.0.22000.0\shared\winerror.h

; 29673: FORCEINLINE _Translates_Win32_to_HRESULT_(x) HRESULT HRESULT_FROM_WIN32(unsigned long x) { return (HRESULT)(x) <= 0 ? (HRESULT)(x) : (HRESULT) (((x) & 0x0000FFFF) | (FACILITY_WIN32 << 16) | 0x80000000);}

  00019	85 c0		 test	 eax, eax
  0001b	7e 0a		 jle	 SHORT $LN26@dynamic
  0001d	0f b7 c0	 movzx	 eax, ax
  00020	0d 00 00 07 80	 or	 eax, -2147024896	; 80070000H
; File C:\Program Files (x86)\Microsoft Visual Studio\2019\Community\VC\Tools\MSVC\14.29.30133\atlmfc\include\atlbase.h

; 2941 : 		if (FAILED(hr))

  00025	85 c0		 test	 eax, eax
$LN26@dynamic:
  00027	79 11		 jns	 SHORT $LN4@dynamic

; 2942 : 		{
; 2943 : 			ATLASSERT(0);
; 2944 : 			CAtlBaseModule::m_bInitFailed = true;

  00029	c6 05 00 00 00
	00 01		 mov	 BYTE PTR ?m_bInitFailed@CAtlBaseModule@ATL@@2_NA, 1 ; ATL::CAtlBaseModule::m_bInitFailed

; 2945 : 			cbSize = 0;

  00030	c7 05 00 00 00
	00 00 00 00 00	 mov	 DWORD PTR ?_AtlWinModule@ATL@@3VCAtlWinModule@1@A, 0
$LN4@dynamic:

; 2972 : __declspec(selectany) CAtlWinModule _AtlWinModule;

  0003a	68 00 00 00 00	 push	 OFFSET ??__F_AtlWinModule@ATL@@YAXXZ ; ATL::`dynamic atexit destructor for '_AtlWinModule''
  0003f	e8 00 00 00 00	 call	 _atexit
  00044	59		 pop	 ecx
  00045	c3		 ret	 0
??__E_AtlWinModule@ATL@@YAXXZ ENDP			; ATL::`dynamic initializer for '_AtlWinModule''
text$di	ENDS
; Function compile flags: /Ogtp
; File C:\Program Files (x86)\Microsoft Visual Studio\2019\Community\VC\Tools\MSVC\14.29.30133\atlmfc\include\afx.inl
;	COMDAT ?_AfxInitManaged@@YAHXZ
_TEXT	SEGMENT
?_AfxInitManaged@@YAHXZ PROC				; _AfxInitManaged, COMDAT

; 87   : 	return 0;

  00000	33 c0		 xor	 eax, eax

; 88   : }

  00002	c3		 ret	 0
?_AfxInitManaged@@YAHXZ ENDP				; _AfxInitManaged
_TEXT	ENDS
; Function compile flags: /Ogtp
; File C:\Program Files (x86)\Microsoft Visual Studio\2019\Community\VC\Tools\MSVC\14.29.30133\atlmfc\include\cstringt.h
; File C:\Program Files (x86)\Microsoft Visual Studio\2019\Community\VC\Tools\MSVC\14.29.30133\atlmfc\include\atlsimpstr.h
; File C:\Program Files (x86)\Microsoft Visual Studio\2019\Community\VC\Tools\MSVC\14.29.30133\atlmfc\include\cstringt.h
; File C:\Program Files (x86)\Microsoft Visual Studio\2019\Community\VC\Tools\MSVC\14.29.30133\atlmfc\include\atlsimpstr.h
; File C:\Program Files (x86)\Microsoft Visual Studio\2019\Community\VC\Tools\MSVC\14.29.30133\atlmfc\include\cstringt.h
;	COMDAT ??HATL@@YA?AV?$CStringT@DV?$StrTraitMFC_DLL@DV?$ChTraitsCRT@D@ATL@@@@@0@ABV10@PBD@Z
_TEXT	SEGMENT
$T2 = -16						; size = 4
__$EHRec$ = -12						; size = 12
___$ReturnUdt$ = 8					; size = 4
_str1$ = 12						; size = 4
_psz2$ = 16						; size = 4
??HATL@@YA?AV?$CStringT@DV?$StrTraitMFC_DLL@DV?$ChTraitsCRT@D@ATL@@@@@0@ABV10@PBD@Z PROC ; ATL::operator+, COMDAT

; 2400 : 	{

  00000	55		 push	 ebp
  00001	8b ec		 mov	 ebp, esp
  00003	6a ff		 push	 -1
  00005	68 00 00 00 00	 push	 __ehhandler$??HATL@@YA?AV?$CStringT@DV?$StrTraitMFC_DLL@DV?$ChTraitsCRT@D@ATL@@@@@0@ABV10@PBD@Z
  0000a	64 a1 00 00 00
	00		 mov	 eax, DWORD PTR fs:0
  00010	50		 push	 eax
  00011	51		 push	 ecx
  00012	53		 push	 ebx
  00013	56		 push	 esi
  00014	57		 push	 edi
  00015	a1 00 00 00 00	 mov	 eax, DWORD PTR ___security_cookie
  0001a	33 c5		 xor	 eax, ebp
  0001c	50		 push	 eax
  0001d	8d 45 f4	 lea	 eax, DWORD PTR __$EHRec$[ebp]
  00020	64 a3 00 00 00
	00		 mov	 DWORD PTR fs:0, eax

; 2401 : 		CStringT strResult( str1.GetManager() );

  00026	8b 5d 0c	 mov	 ebx, DWORD PTR _str1$[ebp]
  00029	8b cb		 mov	 ecx, ebx
  0002b	c7 45 f0 00 00
	00 00		 mov	 DWORD PTR $T2[ebp], 0
  00032	ff 15 00 00 00
	00		 call	 DWORD PTR __imp_?GetManager@?$CStringT@DV?$StrTraitMFC_DLL@DV?$ChTraitsCRT@D@ATL@@@@@ATL@@QBEPAUIAtlStringMgr@2@XZ
  00038	8b 7d 08	 mov	 edi, DWORD PTR ___$ReturnUdt$[ebp]
  0003b	8b cf		 mov	 ecx, edi
  0003d	50		 push	 eax
  0003e	ff 15 00 00 00
	00		 call	 DWORD PTR __imp_??0?$CStringT@DV?$StrTraitMFC_DLL@DV?$ChTraitsCRT@D@ATL@@@@@ATL@@QAE@PAUIAtlStringMgr@1@@Z
; File C:\Program Files (x86)\Microsoft Visual Studio\2019\Community\VC\Tools\MSVC\14.29.30133\atlmfc\include\atlsimpstr.h

; 722  : 		if( psz == NULL )

  00044	8b 75 10	 mov	 esi, DWORD PTR _psz2$[ebp]
; File C:\Program Files (x86)\Microsoft Visual Studio\2019\Community\VC\Tools\MSVC\14.29.30133\atlmfc\include\cstringt.h

; 2405 : 		return( strResult );

  00047	c7 45 fc 00 00
	00 00		 mov	 DWORD PTR __$EHRec$[ebp+8], 0
  0004e	c7 45 f0 01 00
	00 00		 mov	 DWORD PTR $T2[ebp], 1
; File C:\Program Files (x86)\Microsoft Visual Studio\2019\Community\VC\Tools\MSVC\14.29.30133\atlmfc\include\atlsimpstr.h

; 722  : 		if( psz == NULL )

  00055	85 f6		 test	 esi, esi
  00057	75 04		 jne	 SHORT $LN6@operator

; 723  : 		{
; 724  : 			return( 0 );

  00059	33 d2		 xor	 edx, edx
  0005b	eb 0e		 jmp	 SHORT $LN5@operator
$LN6@operator:

; 725  : 		}
; 726  : 		return( int( strlen( psz ) ) );

  0005d	8b d6		 mov	 edx, esi
  0005f	8d 4a 01	 lea	 ecx, DWORD PTR [edx+1]
$LL14@operator:
  00062	8a 02		 mov	 al, BYTE PTR [edx]
  00064	42		 inc	 edx
  00065	84 c0		 test	 al, al
  00067	75 f9		 jne	 SHORT $LL14@operator
  00069	2b d1		 sub	 edx, ecx
$LN5@operator:

; 519  : 		return( GetData()->nDataLength );

  0006b	8b 0b		 mov	 ecx, DWORD PTR [ebx]
; File C:\Program Files (x86)\Microsoft Visual Studio\2019\Community\VC\Tools\MSVC\14.29.30133\atlmfc\include\cstringt.h

; 2403 : 		CThisSimpleString::Concatenate( strResult, str1, str1.GetLength(), psz2, CThisSimpleString::StringLength( psz2 ) );

  0006d	52		 push	 edx
  0006e	56		 push	 esi
  0006f	ff 71 f4	 push	 DWORD PTR [ecx-12]
  00072	51		 push	 ecx
  00073	57		 push	 edi
  00074	ff 15 00 00 00
	00		 call	 DWORD PTR __imp_?Concatenate@?$CSimpleStringT@D$00@ATL@@KAXAAV12@PBDH1H@Z
  0007a	83 c4 14	 add	 esp, 20			; 00000014H

; 2405 : 		return( strResult );

  0007d	8b c7		 mov	 eax, edi

; 2406 : 	}

  0007f	8b 4d f4	 mov	 ecx, DWORD PTR __$EHRec$[ebp]
  00082	64 89 0d 00 00
	00 00		 mov	 DWORD PTR fs:0, ecx
  00089	59		 pop	 ecx
  0008a	5f		 pop	 edi
  0008b	5e		 pop	 esi
  0008c	5b		 pop	 ebx
  0008d	8b e5		 mov	 esp, ebp
  0008f	5d		 pop	 ebp
  00090	c3		 ret	 0
_TEXT	ENDS
;	COMDAT text$x
text$x	SEGMENT
__unwindfunclet$??HATL@@YA?AV?$CStringT@DV?$StrTraitMFC_DLL@DV?$ChTraitsCRT@D@ATL@@@@@0@ABV10@PBD@Z$0:
  00000	8b 45 f0	 mov	 eax, DWORD PTR $T2[ebp]
  00003	83 e0 01	 and	 eax, 1
  00006	0f 84 0d 00 00
	00		 je	 $LN4@operator
  0000c	83 65 f0 fe	 and	 DWORD PTR $T2[ebp], -2	; fffffffeH
  00010	8b 4d 08	 mov	 ecx, DWORD PTR ___$ReturnUdt$[ebp]
  00013	ff 25 00 00 00
	00		 jmp	 DWORD PTR __imp_??1?$CStringT@DV?$StrTraitMFC_DLL@DV?$ChTraitsCRT@D@ATL@@@@@ATL@@QAE@XZ
$LN4@operator:
  00019	c3		 ret	 0
  0001a	cc		 int	 3
  0001b	cc		 int	 3
  0001c	cc		 int	 3
  0001d	cc		 int	 3
  0001e	cc		 int	 3
__ehhandler$??HATL@@YA?AV?$CStringT@DV?$StrTraitMFC_DLL@DV?$ChTraitsCRT@D@ATL@@@@@0@ABV10@PBD@Z:
  0001f	90		 npad	 1
  00020	90		 npad	 1
  00021	8b 54 24 08	 mov	 edx, DWORD PTR [esp+8]
  00025	8d 42 0c	 lea	 eax, DWORD PTR [edx+12]
  00028	8b 4a ec	 mov	 ecx, DWORD PTR [edx-20]
  0002b	33 c8		 xor	 ecx, eax
  0002d	e8 00 00 00 00	 call	 @__security_check_cookie@4
  00032	b8 00 00 00 00	 mov	 eax, OFFSET __ehfuncinfo$??HATL@@YA?AV?$CStringT@DV?$StrTraitMFC_DLL@DV?$ChTraitsCRT@D@ATL@@@@@0@ABV10@PBD@Z
  00037	e9 00 00 00 00	 jmp	 ___CxxFrameHandler3
text$x	ENDS
??HATL@@YA?AV?$CStringT@DV?$StrTraitMFC_DLL@DV?$ChTraitsCRT@D@ATL@@@@@0@ABV10@PBD@Z ENDP ; ATL::operator+
; Function compile flags: /Ogtp
; File C:\Program Files (x86)\Microsoft Visual Studio\2019\Community\VC\Tools\MSVC\14.29.30133\atlmfc\include\cstringt.h
; File C:\Program Files (x86)\Microsoft Visual Studio\2019\Community\VC\Tools\MSVC\14.29.30133\atlmfc\include\atlsimpstr.h
; File C:\Program Files (x86)\Microsoft Visual Studio\2019\Community\VC\Tools\MSVC\14.29.30133\atlmfc\include\cstringt.h
; File C:\Program Files (x86)\Microsoft Visual Studio\2019\Community\VC\Tools\MSVC\14.29.30133\atlmfc\include\atlsimpstr.h
; File C:\Program Files (x86)\Microsoft Visual Studio\2019\Community\VC\Tools\MSVC\14.29.30133\atlmfc\include\cstringt.h
;	COMDAT ??HATL@@YA?AV?$CStringT@DV?$StrTraitMFC_DLL@DV?$ChTraitsCRT@D@ATL@@@@@0@ABV10@0@Z
_TEXT	SEGMENT
$T2 = -16						; size = 4
__$EHRec$ = -12						; size = 12
___$ReturnUdt$ = 8					; size = 4
_str1$ = 12						; size = 4
_str2$ = 16						; size = 4
??HATL@@YA?AV?$CStringT@DV?$StrTraitMFC_DLL@DV?$ChTraitsCRT@D@ATL@@@@@0@ABV10@0@Z PROC ; ATL::operator+, COMDAT

; 2389 : 	{

  00000	55		 push	 ebp
  00001	8b ec		 mov	 ebp, esp
  00003	6a ff		 push	 -1
  00005	68 00 00 00 00	 push	 __ehhandler$??HATL@@YA?AV?$CStringT@DV?$StrTraitMFC_DLL@DV?$ChTraitsCRT@D@ATL@@@@@0@ABV10@0@Z
  0000a	64 a1 00 00 00
	00		 mov	 eax, DWORD PTR fs:0
  00010	50		 push	 eax
  00011	51		 push	 ecx
  00012	56		 push	 esi
  00013	57		 push	 edi
  00014	a1 00 00 00 00	 mov	 eax, DWORD PTR ___security_cookie
  00019	33 c5		 xor	 eax, ebp
  0001b	50		 push	 eax
  0001c	8d 45 f4	 lea	 eax, DWORD PTR __$EHRec$[ebp]
  0001f	64 a3 00 00 00
	00		 mov	 DWORD PTR fs:0, eax

; 2390 : 		CStringT strResult( str1.GetManager() );

  00025	8b 75 0c	 mov	 esi, DWORD PTR _str1$[ebp]
  00028	8b ce		 mov	 ecx, esi
  0002a	c7 45 f0 00 00
	00 00		 mov	 DWORD PTR $T2[ebp], 0
  00031	ff 15 00 00 00
	00		 call	 DWORD PTR __imp_?GetManager@?$CStringT@DV?$StrTraitMFC_DLL@DV?$ChTraitsCRT@D@ATL@@@@@ATL@@QBEPAUIAtlStringMgr@2@XZ
  00037	8b 7d 08	 mov	 edi, DWORD PTR ___$ReturnUdt$[ebp]
  0003a	8b cf		 mov	 ecx, edi
  0003c	50		 push	 eax
  0003d	ff 15 00 00 00
	00		 call	 DWORD PTR __imp_??0?$CStringT@DV?$StrTraitMFC_DLL@DV?$ChTraitsCRT@D@ATL@@@@@ATL@@QAE@PAUIAtlStringMgr@1@@Z
; File C:\Program Files (x86)\Microsoft Visual Studio\2019\Community\VC\Tools\MSVC\14.29.30133\atlmfc\include\atlsimpstr.h

; 519  : 		return( GetData()->nDataLength );

  00043	8b 45 10	 mov	 eax, DWORD PTR _str2$[ebp]
  00046	8b 16		 mov	 edx, DWORD PTR [esi]
; File C:\Program Files (x86)\Microsoft Visual Studio\2019\Community\VC\Tools\MSVC\14.29.30133\atlmfc\include\cstringt.h

; 2394 : 		return( strResult );

  00048	c7 45 fc 00 00
	00 00		 mov	 DWORD PTR __$EHRec$[ebp+8], 0
  0004f	c7 45 f0 01 00
	00 00		 mov	 DWORD PTR $T2[ebp], 1
; File C:\Program Files (x86)\Microsoft Visual Studio\2019\Community\VC\Tools\MSVC\14.29.30133\atlmfc\include\atlsimpstr.h

; 519  : 		return( GetData()->nDataLength );

  00056	8b 08		 mov	 ecx, DWORD PTR [eax]
; File C:\Program Files (x86)\Microsoft Visual Studio\2019\Community\VC\Tools\MSVC\14.29.30133\atlmfc\include\cstringt.h

; 2392 : 		CThisSimpleString::Concatenate( strResult, str1, str1.GetLength(), str2, str2.GetLength() );

  00058	ff 71 f4	 push	 DWORD PTR [ecx-12]
  0005b	51		 push	 ecx
  0005c	ff 72 f4	 push	 DWORD PTR [edx-12]
  0005f	52		 push	 edx
  00060	57		 push	 edi
  00061	ff 15 00 00 00
	00		 call	 DWORD PTR __imp_?Concatenate@?$CSimpleStringT@D$00@ATL@@KAXAAV12@PBDH1H@Z
  00067	83 c4 14	 add	 esp, 20			; 00000014H

; 2394 : 		return( strResult );

  0006a	8b c7		 mov	 eax, edi

; 2395 : 	}

  0006c	8b 4d f4	 mov	 ecx, DWORD PTR __$EHRec$[ebp]
  0006f	64 89 0d 00 00
	00 00		 mov	 DWORD PTR fs:0, ecx
  00076	59		 pop	 ecx
  00077	5f		 pop	 edi
  00078	5e		 pop	 esi
  00079	8b e5		 mov	 esp, ebp
  0007b	5d		 pop	 ebp
  0007c	c3		 ret	 0
_TEXT	ENDS
;	COMDAT text$x
text$x	SEGMENT
__unwindfunclet$??HATL@@YA?AV?$CStringT@DV?$StrTraitMFC_DLL@DV?$ChTraitsCRT@D@ATL@@@@@0@ABV10@0@Z$0:
  00000	8b 45 f0	 mov	 eax, DWORD PTR $T2[ebp]
  00003	83 e0 01	 and	 eax, 1
  00006	0f 84 0d 00 00
	00		 je	 $LN4@operator
  0000c	83 65 f0 fe	 and	 DWORD PTR $T2[ebp], -2	; fffffffeH
  00010	8b 4d 08	 mov	 ecx, DWORD PTR ___$ReturnUdt$[ebp]
  00013	ff 25 00 00 00
	00		 jmp	 DWORD PTR __imp_??1?$CStringT@DV?$StrTraitMFC_DLL@DV?$ChTraitsCRT@D@ATL@@@@@ATL@@QAE@XZ
$LN4@operator:
  00019	c3		 ret	 0
  0001a	cc		 int	 3
  0001b	cc		 int	 3
  0001c	cc		 int	 3
  0001d	cc		 int	 3
  0001e	cc		 int	 3
__ehhandler$??HATL@@YA?AV?$CStringT@DV?$StrTraitMFC_DLL@DV?$ChTraitsCRT@D@ATL@@@@@0@ABV10@0@Z:
  0001f	90		 npad	 1
  00020	90		 npad	 1
  00021	8b 54 24 08	 mov	 edx, DWORD PTR [esp+8]
  00025	8d 42 0c	 lea	 eax, DWORD PTR [edx+12]
  00028	8b 4a f0	 mov	 ecx, DWORD PTR [edx-16]
  0002b	33 c8		 xor	 ecx, eax
  0002d	e8 00 00 00 00	 call	 @__security_check_cookie@4
  00032	b8 00 00 00 00	 mov	 eax, OFFSET __ehfuncinfo$??HATL@@YA?AV?$CStringT@DV?$StrTraitMFC_DLL@DV?$ChTraitsCRT@D@ATL@@@@@0@ABV10@0@Z
  00037	e9 00 00 00 00	 jmp	 ___CxxFrameHandler3
text$x	ENDS
??HATL@@YA?AV?$CStringT@DV?$StrTraitMFC_DLL@DV?$ChTraitsCRT@D@ATL@@@@@0@ABV10@0@Z ENDP ; ATL::operator+
; Function compile flags: /Ogtp
; File C:\Program Files (x86)\Microsoft Visual Studio\2019\Community\VC\Tools\MSVC\14.29.30133\atlmfc\include\atlwinverapi.h
;	COMDAT ?_AtlInitializeCriticalSectionEx@ATL@@YAHPAU_RTL_CRITICAL_SECTION@@KK@Z
_TEXT	SEGMENT
_lpCriticalSection$ = 8					; size = 4
_dwSpinCount$ = 12					; size = 4
_Flags$ = 16						; size = 4
?_AtlInitializeCriticalSectionEx@ATL@@YAHPAU_RTL_CRITICAL_SECTION@@KK@Z PROC ; ATL::_AtlInitializeCriticalSectionEx, COMDAT

; 727  : {

  00000	55		 push	 ebp
  00001	8b ec		 mov	 ebp, esp

; 728  : #if (NTDDI_VERSION >= NTDDI_VISTA) && !defined(_USING_V110_SDK71_) && !defined(_ATL_XP_TARGETING)
; 729  : 	// InitializeCriticalSectionEx is available in Vista or later, desktop or store apps
; 730  : 	return ::InitializeCriticalSectionEx(lpCriticalSection, dwSpinCount, Flags);

  00003	ff 75 10	 push	 DWORD PTR _Flags$[ebp]
  00006	ff 75 0c	 push	 DWORD PTR _dwSpinCount$[ebp]
  00009	ff 75 08	 push	 DWORD PTR _lpCriticalSection$[ebp]
  0000c	ff 15 00 00 00
	00		 call	 DWORD PTR __imp__InitializeCriticalSectionEx@12

; 731  : #else
; 732  : 	UNREFERENCED_PARAMETER(Flags);
; 733  : 
; 734  : 	// ...otherwise fall back to using InitializeCriticalSectionAndSpinCount.
; 735  : 	return ::InitializeCriticalSectionAndSpinCount(lpCriticalSection, dwSpinCount);
; 736  : #endif
; 737  : }

  00012	5d		 pop	 ebp
  00013	c3		 ret	 0
?_AtlInitializeCriticalSectionEx@ATL@@YAHPAU_RTL_CRITICAL_SECTION@@KK@Z ENDP ; ATL::_AtlInitializeCriticalSectionEx
_TEXT	ENDS
; Function compile flags: /Ogtp
; File C:\Program Files (x86)\Microsoft Visual Studio\2019\Community\VC\Tools\MSVC\14.29.30133\atlmfc\include\atlexcept.h
;	COMDAT ?_AtlRaiseException@ATL@@YAXKK@Z
_TEXT	SEGMENT
_dwExceptionCode$ = 8					; size = 4
_dwExceptionFlags$ = 12					; size = 4
?_AtlRaiseException@ATL@@YAXKK@Z PROC			; ATL::_AtlRaiseException, COMDAT

; 30   : {

  00000	55		 push	 ebp
  00001	8b ec		 mov	 ebp, esp

; 31   : 	RaiseException( dwExceptionCode, dwExceptionFlags, 0, NULL );

  00003	6a 00		 push	 0
  00005	6a 00		 push	 0
  00007	ff 75 0c	 push	 DWORD PTR _dwExceptionFlags$[ebp]
  0000a	ff 75 08	 push	 DWORD PTR _dwExceptionCode$[ebp]
  0000d	ff 15 00 00 00
	00		 call	 DWORD PTR __imp__RaiseException@16

; 32   : }

  00013	5d		 pop	 ebp
  00014	c3		 ret	 0
?_AtlRaiseException@ATL@@YAXKK@Z ENDP			; ATL::_AtlRaiseException
_TEXT	ENDS
; Function compile flags: /Ogtp
; File C:\Program Files (x86)\Microsoft Visual Studio\2019\Community\VC\Tools\MSVC\14.29.30133\atlmfc\include\afx.inl
;	COMDAT ?Dump@CObject@@UBEXAAVCDumpContext@@@Z
_TEXT	SEGMENT
___formal$ = 8						; size = 4
?Dump@CObject@@UBEXAAVCDumpContext@@@Z PROC		; CObject::Dump, COMDAT
; _this$ = ecx

; 122  : 	{ /* no dumping in release builds */ }

  00000	c2 04 00	 ret	 4
?Dump@CObject@@UBEXAAVCDumpContext@@@Z ENDP		; CObject::Dump
_TEXT	ENDS
; Function compile flags: /Ogtp
; File C:\Program Files (x86)\Microsoft Visual Studio\2019\Community\VC\Tools\MSVC\14.29.30133\atlmfc\include\afx.inl
;	COMDAT ?AssertValid@CObject@@UBEXXZ
_TEXT	SEGMENT
?AssertValid@CObject@@UBEXXZ PROC			; CObject::AssertValid, COMDAT
; _this$ = ecx

; 120  : 	{ /* no asserts in release builds */ }

  00000	c2 00 00	 ret	 0
?AssertValid@CObject@@UBEXXZ ENDP			; CObject::AssertValid
_TEXT	ENDS
; Function compile flags: /Ogtp
; File C:\Program Files (x86)\Microsoft Visual Studio\2019\Community\VC\Tools\MSVC\14.29.30133\atlmfc\include\afx.inl
;	COMDAT ?Serialize@CObject@@UAEXAAVCArchive@@@Z
_TEXT	SEGMENT
___formal$ = 8						; size = 4
?Serialize@CObject@@UAEXAAVCArchive@@@Z PROC		; CObject::Serialize, COMDAT
; _this$ = ecx

; 106  : 	{ /* CObject does not serialize anything by default */ }

  00000	c2 04 00	 ret	 4
?Serialize@CObject@@UAEXAAVCArchive@@@Z ENDP		; CObject::Serialize
_TEXT	ENDS
; Function compile flags: /Ogtp
; File C:\Program Files (x86)\Microsoft Visual Studio\2019\Community\VC\Tools\MSVC\14.29.30133\atlmfc\include\afx.inl
;	COMDAT ??3CObject@@SGXPAX@Z
_TEXT	SEGMENT
_p$ = 8							; size = 4
??3CObject@@SGXPAX@Z PROC				; CObject::operator delete, COMDAT

; 112  : 	{ ::operator delete(p); }

  00000	55		 push	 ebp
  00001	8b ec		 mov	 ebp, esp
  00003	ff 75 08	 push	 DWORD PTR _p$[ebp]
  00006	e8 00 00 00 00	 call	 ??3@YAXPAX@Z		; operator delete
  0000b	83 c4 04	 add	 esp, 4
  0000e	5d		 pop	 ebp
  0000f	c2 04 00	 ret	 4
??3CObject@@SGXPAX@Z ENDP				; CObject::operator delete
_TEXT	ENDS
; Function compile flags: /Ogtp
; File C:\Program Files (x86)\Microsoft Visual Studio\2019\Community\VC\Tools\MSVC\14.29.30133\atlmfc\include\afx.inl
;	COMDAT ??1CObject@@UAE@XZ
_TEXT	SEGMENT
??1CObject@@UAE@XZ PROC					; CObject::~CObject, COMDAT
; _this$ = ecx

; 104  : 	{ }

  00000	c2 00 00	 ret	 0
??1CObject@@UAE@XZ ENDP					; CObject::~CObject
_TEXT	ENDS
; Function compile flags: /Ogtp
; File C:\Program Files (x86)\Windows Kits\10\Include\10.0.22000.0\ucrt\stdio.h
;	COMDAT _sscanf
_TEXT	SEGMENT
__Buffer$ = 8						; size = 4
__Format$ = 12						; size = 4
_sscanf	PROC						; COMDAT

; 2247 :     {

  00000	55		 push	 ebp
  00001	8b ec		 mov	 ebp, esp

; 2153 :         return __stdio_common_vsscanf(

  00003	8d 45 10	 lea	 eax, DWORD PTR __Format$[ebp+4]
  00006	50		 push	 eax
  00007	6a 00		 push	 0
  00009	ff 75 0c	 push	 DWORD PTR __Format$[ebp]
  0000c	6a ff		 push	 -1
  0000e	ff 75 08	 push	 DWORD PTR __Buffer$[ebp]
  00011	e8 00 00 00 00	 call	 ___local_stdio_scanf_options
  00016	ff 70 04	 push	 DWORD PTR [eax+4]
  00019	ff 30		 push	 DWORD PTR [eax]
  0001b	ff 15 00 00 00
	00		 call	 DWORD PTR __imp____stdio_common_vsscanf
  00021	83 c4 1c	 add	 esp, 28			; 0000001cH

; 2248 :         int _Result;
; 2249 :         va_list _ArgList;
; 2250 :         __crt_va_start(_ArgList, _Format);
; 2251 :         _Result = _vsscanf_l(_Buffer, _Format, NULL, _ArgList);
; 2252 :         __crt_va_end(_ArgList);
; 2253 :         return _Result;
; 2254 :     }

  00024	5d		 pop	 ebp
  00025	c3		 ret	 0
_sscanf	ENDP
_TEXT	ENDS
; Function compile flags: /Ogtp
; File C:\Program Files (x86)\Windows Kits\10\Include\10.0.22000.0\ucrt\stdio.h
;	COMDAT _sprintf
_TEXT	SEGMENT
__Buffer$ = 8						; size = 4
__Format$ = 12						; size = 4
_sprintf PROC						; COMDAT

; 1771 :     {

  00000	55		 push	 ebp
  00001	8b ec		 mov	 ebp, esp

; 1392 :         int const _Result = __stdio_common_vsprintf(

  00003	8d 45 10	 lea	 eax, DWORD PTR __Format$[ebp+4]
  00006	50		 push	 eax
  00007	6a 00		 push	 0
  00009	ff 75 0c	 push	 DWORD PTR __Format$[ebp]
  0000c	6a ff		 push	 -1
  0000e	ff 75 08	 push	 DWORD PTR __Buffer$[ebp]
  00011	e8 00 00 00 00	 call	 ___local_stdio_printf_options
  00016	8b 08		 mov	 ecx, DWORD PTR [eax]
  00018	ff 70 04	 push	 DWORD PTR [eax+4]
  0001b	83 c9 01	 or	 ecx, 1
  0001e	51		 push	 ecx
  0001f	ff 15 00 00 00
	00		 call	 DWORD PTR __imp____stdio_common_vsprintf

; 1393 :             _CRT_INTERNAL_LOCAL_PRINTF_OPTIONS | _CRT_INTERNAL_PRINTF_LEGACY_VSPRINTF_NULL_TERMINATION,
; 1394 :             _Buffer, _BufferCount, _Format, _Locale, _ArgList);
; 1395 : 
; 1396 :         return _Result < 0 ? -1 : _Result;

  00025	83 c9 ff	 or	 ecx, -1
  00028	83 c4 1c	 add	 esp, 28			; 0000001cH
  0002b	85 c0		 test	 eax, eax
  0002d	0f 48 c1	 cmovs	 eax, ecx

; 1772 :         int _Result;
; 1773 :         va_list _ArgList;
; 1774 :         __crt_va_start(_ArgList, _Format);
; 1775 : 
; 1776 :         _Result = _vsprintf_l(_Buffer, _Format, NULL, _ArgList);
; 1777 : 
; 1778 :         __crt_va_end(_ArgList);
; 1779 :         return _Result;
; 1780 :     }

  00030	5d		 pop	 ebp
  00031	c3		 ret	 0
_sprintf ENDP
_TEXT	ENDS
; Function compile flags: /Ogtp
; File C:\Program Files (x86)\Windows Kits\10\Include\10.0.22000.0\ucrt\corecrt_stdio_config.h
;	COMDAT ___local_stdio_scanf_options
_TEXT	SEGMENT
___local_stdio_scanf_options PROC			; COMDAT

; 101  :         static unsigned __int64 _OptionsStorage;
; 102  :         return &_OptionsStorage;

  00000	b8 00 00 00 00	 mov	 eax, OFFSET ?_OptionsStorage@?1??__local_stdio_scanf_options@@9@4_KA ; `__local_stdio_scanf_options'::`2'::_OptionsStorage

; 103  :     }

  00005	c3		 ret	 0
___local_stdio_scanf_options ENDP
_TEXT	ENDS
; Function compile flags: /Ogtp
; File C:\Program Files (x86)\Windows Kits\10\Include\10.0.22000.0\ucrt\corecrt_stdio_config.h
;	COMDAT ___local_stdio_printf_options
_TEXT	SEGMENT
___local_stdio_printf_options PROC			; COMDAT

; 91   :         static unsigned __int64 _OptionsStorage;
; 92   :         return &_OptionsStorage;

  00000	b8 00 00 00 00	 mov	 eax, OFFSET ?_OptionsStorage@?1??__local_stdio_printf_options@@9@4_KA ; `__local_stdio_printf_options'::`2'::_OptionsStorage

; 93   :     }

  00005	c3		 ret	 0
___local_stdio_printf_options ENDP
_TEXT	ENDS
; Function compile flags: /Ogtp
; File D:\git\src\IBK\IBK_DRFN\ProjSrc\SrcDrfn\Chart\MULTICHART\TabSystemTradingEx.cpp
;	COMDAT ?__empty_global_delete@@YAXPAXI@Z
_TEXT	SEGMENT
___formal$ = 8						; size = 4
___formal$ = 12						; size = 4
?__empty_global_delete@@YAXPAXI@Z PROC			; __empty_global_delete, COMDAT

  00000	c2 00 00	 ret	 0
?__empty_global_delete@@YAXPAXI@Z ENDP			; __empty_global_delete
_TEXT	ENDS
; Function compile flags: /Ogtp
; File D:\git\src\IBK\IBK_DRFN\ProjSrc\SrcDrfn\Chart\MULTICHART\TabSystemTradingEx.cpp
;	COMDAT ?__empty_global_delete@@YAXPAX@Z
_TEXT	SEGMENT
___formal$ = 8						; size = 4
?__empty_global_delete@@YAXPAX@Z PROC			; __empty_global_delete, COMDAT

  00000	c2 00 00	 ret	 0
?__empty_global_delete@@YAXPAX@Z ENDP			; __empty_global_delete
_TEXT	ENDS
END
