; Listing generated by Microsoft (R) Optimizing Compiler Version 19.29.30148.0 

	TITLE	D:\git\src\IBK\IBK_DRFN\#DRfn-CS\_Obj\MultiChart\XTabCtrl.obj
	.686P
	.XMM
	include listing.inc
	.model	flat

INCLUDELIB MSVCRT
INCLUDELIB OLDNAMES

PUBLIC	?WM_ATLGETHOST@ATL@@3IA				; ATL::WM_ATLGETHOST
PUBLIC	?WM_ATLGETCONTROL@ATL@@3IA			; ATL::WM_ATLGETCONTROL
PUBLIC	??_C@_0BA@IGMGIDAO@RMSG_OPENSCREEN@		; `string'
PUBLIC	??_C@_0BE@FJPKENOB@RMSG_GETSIGNAL_REAL@		; `string'
PUBLIC	??_C@_0BB@CNOFPEHG@RMSG_SETQUERYOPT@		; `string'
PUBLIC	??_C@_0P@KHFCBIOH@RMSG_CHARTMAIN@		; `string'
PUBLIC	??_C@_0BC@MMPGLPDH@RMS_ANALYSIS_FUNC@		; `string'
PUBLIC	??_C@_0BA@HKNFENJL@RMSG_GET_USERID@		; `string'
PUBLIC	??_C@_0BG@CNPAHNGG@RMSG_CHANGE_SKINCOLOR@	; `string'
PUBLIC	??_C@_0BD@FLDNDDHK@RMSG_GET_SKINCOLOR@		; `string'
PUBLIC	??_C@_0BJ@JLKHIBIK@RMSG_CHANGEVERTSCALETYPE@	; `string'
PUBLIC	??_C@_0BG@LNLCJKPF@RMSG_CHANGE_CROSSLINE@	; `string'
PUBLIC	??_C@_0BH@IFDMIMBP@RMSG_ADD_PLATFORM_MENU@	; `string'
PUBLIC	??_C@_0BJ@OGNAJHHI@RMSG_SETINITIALCHARTDATA@	; `string'
PUBLIC	??_C@_0N@IIOKMIEH@RMSG_GETINFO@			; `string'
PUBLIC	??_C@_0N@HABLPHJG@RMSG_SETINFO@			; `string'
PUBLIC	??_C@_0P@BKKCOCLK@RMSG_INTERFACE@		; `string'
PUBLIC	??_C@_0BB@IBKHOHJL@RMSG_REPLAY_REAL@		; `string'
PUBLIC	??_C@_0BB@JFLGBADG@RMSG_REPLAY_FAIL@		; `string'
PUBLIC	??_C@_0BI@KDGAIIMD@RMSG_REPLAY_CHANGE_DATE@	; `string'
PUBLIC	??_C@_0BA@NKHHCPON@RMSG_REPLAY_END@		; `string'
PUBLIC	??_C@_0BE@JFCIMCIP@RMSG_REPLAY_INC_SEC@		; `string'
PUBLIC	??_C@_0BG@GIAJEIJF@RMSG_REPLAY_TOTAL_SEC@	; `string'
PUBLIC	?m_bInitFailed@CAtlBaseModule@ATL@@2_NA		; ATL::CAtlBaseModule::m_bInitFailed
PUBLIC	?_pAtlModule@ATL@@3PAVCAtlModule@1@A		; ATL::_pAtlModule
PUBLIC	?_pAtlAutoThreadModule@ATL@@3PAUIAtlAutoThreadModule@1@A ; ATL::_pAtlAutoThreadModule
EXTRN	?_AtlBaseModule@ATL@@3VCAtlBaseModule@1@A:BYTE	; ATL::_AtlBaseModule
;	COMDAT ?WM_ATLGETHOST@ATL@@3IA
_BSS	SEGMENT
?WM_ATLGETHOST@ATL@@3IA DD 01H DUP (?)			; ATL::WM_ATLGETHOST
_BSS	ENDS
;	COMDAT ?WM_ATLGETCONTROL@ATL@@3IA
_BSS	SEGMENT
?WM_ATLGETCONTROL@ATL@@3IA DD 01H DUP (?)		; ATL::WM_ATLGETCONTROL
_BSS	ENDS
;	COMDAT ?m_bInitFailed@CAtlBaseModule@ATL@@2_NA
_BSS	SEGMENT
?m_bInitFailed@CAtlBaseModule@ATL@@2_NA DB 01H DUP (?)	; ATL::CAtlBaseModule::m_bInitFailed
_BSS	ENDS
;	COMDAT ?_pAtlModule@ATL@@3PAVCAtlModule@1@A
_BSS	SEGMENT
?_pAtlModule@ATL@@3PAVCAtlModule@1@A DD 01H DUP (?)	; ATL::_pAtlModule
_BSS	ENDS
;	COMDAT ?_pAtlAutoThreadModule@ATL@@3PAUIAtlAutoThreadModule@1@A
_BSS	SEGMENT
?_pAtlAutoThreadModule@ATL@@3PAUIAtlAutoThreadModule@1@A DD 01H DUP (?) ; ATL::_pAtlAutoThreadModule
_BSS	ENDS
;	COMDAT ??_C@_0BG@GIAJEIJF@RMSG_REPLAY_TOTAL_SEC@
CONST	SEGMENT
??_C@_0BG@GIAJEIJF@RMSG_REPLAY_TOTAL_SEC@ DB 'RMSG_REPLAY_TOTAL_SEC', 00H ; `string'
CONST	ENDS
;	COMDAT ??_C@_0BE@JFCIMCIP@RMSG_REPLAY_INC_SEC@
CONST	SEGMENT
??_C@_0BE@JFCIMCIP@RMSG_REPLAY_INC_SEC@ DB 'RMSG_REPLAY_INC_SEC', 00H ; `string'
CONST	ENDS
;	COMDAT ??_C@_0BA@NKHHCPON@RMSG_REPLAY_END@
CONST	SEGMENT
??_C@_0BA@NKHHCPON@RMSG_REPLAY_END@ DB 'RMSG_REPLAY_END', 00H ; `string'
CONST	ENDS
;	COMDAT ??_C@_0BI@KDGAIIMD@RMSG_REPLAY_CHANGE_DATE@
CONST	SEGMENT
??_C@_0BI@KDGAIIMD@RMSG_REPLAY_CHANGE_DATE@ DB 'RMSG_REPLAY_CHANGE_DATE', 00H ; `string'
CONST	ENDS
;	COMDAT ??_C@_0BB@JFLGBADG@RMSG_REPLAY_FAIL@
CONST	SEGMENT
??_C@_0BB@JFLGBADG@RMSG_REPLAY_FAIL@ DB 'RMSG_REPLAY_FAIL', 00H ; `string'
CONST	ENDS
;	COMDAT ??_C@_0BB@IBKHOHJL@RMSG_REPLAY_REAL@
CONST	SEGMENT
??_C@_0BB@IBKHOHJL@RMSG_REPLAY_REAL@ DB 'RMSG_REPLAY_REAL', 00H ; `string'
CONST	ENDS
;	COMDAT ??_C@_0P@BKKCOCLK@RMSG_INTERFACE@
CONST	SEGMENT
??_C@_0P@BKKCOCLK@RMSG_INTERFACE@ DB 'RMSG_INTERFACE', 00H ; `string'
CONST	ENDS
;	COMDAT ??_C@_0N@HABLPHJG@RMSG_SETINFO@
CONST	SEGMENT
??_C@_0N@HABLPHJG@RMSG_SETINFO@ DB 'RMSG_SETINFO', 00H	; `string'
CONST	ENDS
;	COMDAT ??_C@_0N@IIOKMIEH@RMSG_GETINFO@
CONST	SEGMENT
??_C@_0N@IIOKMIEH@RMSG_GETINFO@ DB 'RMSG_GETINFO', 00H	; `string'
CONST	ENDS
;	COMDAT ??_C@_0BJ@OGNAJHHI@RMSG_SETINITIALCHARTDATA@
CONST	SEGMENT
??_C@_0BJ@OGNAJHHI@RMSG_SETINITIALCHARTDATA@ DB 'RMSG_SETINITIALCHARTDATA'
	DB	00H						; `string'
CONST	ENDS
;	COMDAT ??_C@_0BH@IFDMIMBP@RMSG_ADD_PLATFORM_MENU@
CONST	SEGMENT
??_C@_0BH@IFDMIMBP@RMSG_ADD_PLATFORM_MENU@ DB 'RMSG_ADD_PLATFORM_MENU', 00H ; `string'
CONST	ENDS
;	COMDAT ??_C@_0BG@LNLCJKPF@RMSG_CHANGE_CROSSLINE@
CONST	SEGMENT
??_C@_0BG@LNLCJKPF@RMSG_CHANGE_CROSSLINE@ DB 'RMSG_CHANGE_CROSSLINE', 00H ; `string'
CONST	ENDS
;	COMDAT ??_C@_0BJ@JLKHIBIK@RMSG_CHANGEVERTSCALETYPE@
CONST	SEGMENT
??_C@_0BJ@JLKHIBIK@RMSG_CHANGEVERTSCALETYPE@ DB 'RMSG_CHANGEVERTSCALETYPE'
	DB	00H						; `string'
CONST	ENDS
;	COMDAT ??_C@_0BD@FLDNDDHK@RMSG_GET_SKINCOLOR@
CONST	SEGMENT
??_C@_0BD@FLDNDDHK@RMSG_GET_SKINCOLOR@ DB 'RMSG_GET_SKINCOLOR', 00H ; `string'
CONST	ENDS
;	COMDAT ??_C@_0BG@CNPAHNGG@RMSG_CHANGE_SKINCOLOR@
CONST	SEGMENT
??_C@_0BG@CNPAHNGG@RMSG_CHANGE_SKINCOLOR@ DB 'RMSG_CHANGE_SKINCOLOR', 00H ; `string'
CONST	ENDS
;	COMDAT ??_C@_0BA@HKNFENJL@RMSG_GET_USERID@
CONST	SEGMENT
??_C@_0BA@HKNFENJL@RMSG_GET_USERID@ DB 'RMSG_GET_USERID', 00H ; `string'
CONST	ENDS
;	COMDAT ??_C@_0BC@MMPGLPDH@RMS_ANALYSIS_FUNC@
CONST	SEGMENT
??_C@_0BC@MMPGLPDH@RMS_ANALYSIS_FUNC@ DB 'RMS_ANALYSIS_FUNC', 00H ; `string'
CONST	ENDS
;	COMDAT ??_C@_0P@KHFCBIOH@RMSG_CHARTMAIN@
CONST	SEGMENT
??_C@_0P@KHFCBIOH@RMSG_CHARTMAIN@ DB 'RMSG_CHARTMAIN', 00H ; `string'
CONST	ENDS
;	COMDAT ??_C@_0BB@CNOFPEHG@RMSG_SETQUERYOPT@
CONST	SEGMENT
??_C@_0BB@CNOFPEHG@RMSG_SETQUERYOPT@ DB 'RMSG_SETQUERYOPT', 00H ; `string'
CONST	ENDS
;	COMDAT ??_C@_0BE@FJPKENOB@RMSG_GETSIGNAL_REAL@
CONST	SEGMENT
??_C@_0BE@FJPKENOB@RMSG_GETSIGNAL_REAL@ DB 'RMSG_GETSIGNAL_REAL', 00H ; `string'
CONST	ENDS
;	COMDAT ??_C@_0BA@IGMGIDAO@RMSG_OPENSCREEN@
CONST	SEGMENT
??_C@_0BA@IGMGIDAO@RMSG_OPENSCREEN@ DB 'RMSG_OPENSCREEN', 00H ; `string'
CONST	ENDS
PUBLIC	?__empty_global_delete@@YAXPAX@Z		; __empty_global_delete
PUBLIC	?__empty_global_delete@@YAXPAXI@Z		; __empty_global_delete
PUBLIC	___local_stdio_scanf_options
PUBLIC	_sscanf
PUBLIC	?Serialize@CObject@@UAEXAAVCArchive@@@Z		; CObject::Serialize
PUBLIC	?AssertValid@CObject@@UBEXXZ			; CObject::AssertValid
PUBLIC	?Dump@CObject@@UBEXAAVCDumpContext@@@Z		; CObject::Dump
PUBLIC	?_AtlRaiseException@ATL@@YAXKK@Z		; ATL::_AtlRaiseException
PUBLIC	?_AtlInitializeCriticalSectionEx@ATL@@YAHPAU_RTL_CRITICAL_SECTION@@KK@Z ; ATL::_AtlInitializeCriticalSectionEx
PUBLIC	?DoDataExchange@CWnd@@MAEXPAVCDataExchange@@@Z	; CWnd::DoDataExchange
PUBLIC	?BeginModalState@CWnd@@UAEXXZ			; CWnd::BeginModalState
PUBLIC	?EndModalState@CWnd@@UAEXXZ			; CWnd::EndModalState
PUBLIC	??0CXTabCtrl@@QAE@XZ				; CXTabCtrl::CXTabCtrl
PUBLIC	?ChangeTabIndexByMarketType@CXTabCtrl@@QAEHH@Z	; CXTabCtrl::ChangeTabIndexByMarketType
PUBLIC	?Init@CXTabCtrl@@QAEXPAVCWnd@@0H@Z		; CXTabCtrl::Init
PUBLIC	?ShowTab@CXTabCtrl@@QAEXH@Z			; CXTabCtrl::ShowTab
PUBLIC	?SetTopLeftCorner@CXTabCtrl@@QAEXVCPoint@@@Z	; CXTabCtrl::SetTopLeftCorner
PUBLIC	?GetTabHeight@CXTabCtrl@@QAEJXZ			; CXTabCtrl::GetTabHeight
PUBLIC	??1CXTabCtrl@@UAE@XZ				; CXTabCtrl::~CXTabCtrl
PUBLIC	?ChangeSkinColor@CXTabCtrl@@QAEXPAVCWnd@@@Z	; CXTabCtrl::ChangeSkinColor
PUBLIC	?SetWndSystemTabEx@CXTabCtrl@@QAEXXZ		; CXTabCtrl::SetWndSystemTabEx
PUBLIC	?DeleteCurrentDlg@CXTabCtrl@@AAEXXZ		; CXTabCtrl::DeleteCurrentDlg
PUBLIC	?OnSelchange@CXTabCtrl@@IAEXPAUtagNMHDR@@PAJ@Z	; CXTabCtrl::OnSelchange
PUBLIC	?OnSelchanging@CXTabCtrl@@IAEXPAUtagNMHDR@@PAJ@Z ; CXTabCtrl::OnSelchanging
PUBLIC	?OnSize@CXTabCtrl@@IAEXIHH@Z			; CXTabCtrl::OnSize
PUBLIC	?OnDestroy@CXTabCtrl@@IAEXXZ			; CXTabCtrl::OnDestroy
PUBLIC	?GetThisMessageMap@CXTabCtrl@@KGPBUAFX_MSGMAP@@XZ ; CXTabCtrl::GetThisMessageMap
PUBLIC	?GetMessageMap@CXTabCtrl@@MBEPBUAFX_MSGMAP@@XZ	; CXTabCtrl::GetMessageMap
PUBLIC	??_GCXTabCtrl@@UAEPAXI@Z			; CXTabCtrl::`scalar deleting destructor'
PUBLIC	??1stringdispid@CComTypeInfoHolder@ATL@@QAE@XZ	; ATL::CComTypeInfoHolder::stringdispid::~stringdispid
PUBLIC	??_Estringdispid@CComTypeInfoHolder@ATL@@QAEPAXI@Z ; ATL::CComTypeInfoHolder::stringdispid::`vector deleting destructor'
PUBLIC	?_OptionsStorage@?1??__local_stdio_scanf_options@@9@4_KA ; `__local_stdio_scanf_options'::`2'::_OptionsStorage
PUBLIC	?_AtlWinModule@ATL@@3VCAtlWinModule@1@A		; ATL::_AtlWinModule
PUBLIC	??_C@_0M@CBBNGGHM@PcTrMng?4dll@			; `string'
PUBLIC	??_C@_0P@IDMAJEGN@HANAROPCTRMAIN@		; `string'
PUBLIC	??_C@_06NDLAHCHE@?$CFs?$CF08X@			; `string'
PUBLIC	??_C@_02EMFKHFLK@?$CFX@				; `string'
PUBLIC	??_R0?AVCObject@@@8				; CObject `RTTI Type Descriptor'
PUBLIC	??_R3CObject@@8					; CObject::`RTTI Class Hierarchy Descriptor'
PUBLIC	??_R2CObject@@8					; CObject::`RTTI Base Class Array'
PUBLIC	??_R1A@?0A@EA@CObject@@8			; CObject::`RTTI Base Class Descriptor at (0,-1,0,64)'
PUBLIC	??_R1A@?0A@EA@CWnd@@8				; CWnd::`RTTI Base Class Descriptor at (0,-1,0,64)'
PUBLIC	??_R0?AVCWnd@@@8				; CWnd `RTTI Type Descriptor'
PUBLIC	??_R3CWnd@@8					; CWnd::`RTTI Class Hierarchy Descriptor'
PUBLIC	??_R2CWnd@@8					; CWnd::`RTTI Base Class Array'
PUBLIC	??_R1A@?0A@EA@CCmdTarget@@8			; CCmdTarget::`RTTI Base Class Descriptor at (0,-1,0,64)'
PUBLIC	??_R0?AVCCmdTarget@@@8				; CCmdTarget `RTTI Type Descriptor'
PUBLIC	??_R3CCmdTarget@@8				; CCmdTarget::`RTTI Class Hierarchy Descriptor'
PUBLIC	??_R2CCmdTarget@@8				; CCmdTarget::`RTTI Base Class Array'
PUBLIC	??_R0?AVCTabCtrl@@@8				; CTabCtrl `RTTI Type Descriptor'
PUBLIC	??_R3CTabCtrl@@8				; CTabCtrl::`RTTI Class Hierarchy Descriptor'
PUBLIC	??_R2CTabCtrl@@8				; CTabCtrl::`RTTI Base Class Array'
PUBLIC	??_R1A@?0A@EA@CTabCtrl@@8			; CTabCtrl::`RTTI Base Class Descriptor at (0,-1,0,64)'
PUBLIC	??_7CXTabCtrl@@6B@				; CXTabCtrl::`vftable'
PUBLIC	??_C@_07BODPENMG@SYSEDUE@			; `string'
PUBLIC	??_C@_09POEKPOBJ@OldFuture@			; `string'
PUBLIC	??_R4CXTabCtrl@@6B@				; CXTabCtrl::`RTTI Complete Object Locator'
PUBLIC	??_R0?AVCXTabCtrl@@@8				; CXTabCtrl `RTTI Type Descriptor'
PUBLIC	??_R3CXTabCtrl@@8				; CXTabCtrl::`RTTI Class Hierarchy Descriptor'
PUBLIC	??_R2CXTabCtrl@@8				; CXTabCtrl::`RTTI Base Class Array'
PUBLIC	??_R1A@?0A@EA@CXTabCtrl@@8			; CXTabCtrl::`RTTI Base Class Descriptor at (0,-1,0,64)'
PUBLIC	??_R1A@?0A@EA@CExTabCtrl@@8			; CExTabCtrl::`RTTI Base Class Descriptor at (0,-1,0,64)'
PUBLIC	??_R0?AVCExTabCtrl@@@8				; CExTabCtrl `RTTI Type Descriptor'
PUBLIC	??_R3CExTabCtrl@@8				; CExTabCtrl::`RTTI Class Hierarchy Descriptor'
PUBLIC	??_R2CExTabCtrl@@8				; CExTabCtrl::`RTTI Base Class Array'
EXTRN	??_M@YGXPAXIIP6EX0@Z@Z:PROC			; `eh vector destructor iterator'
EXTRN	??3@YAXPAX@Z:PROC				; operator delete
EXTRN	??3@YAXPAXI@Z:PROC				; operator delete
EXTRN	?__global_delete@@YAXPAXI@Z:PROC		; __global_delete
EXTRN	??_V@YAXPAXI@Z:PROC				; operator delete[]
EXTRN	_atexit:PROC
EXTRN	__imp__GetEnvironmentVariableA@12:PROC
EXTRN	__imp__RaiseException@16:PROC
EXTRN	__imp__GetLastError@0:PROC
EXTRN	__imp__InitializeCriticalSectionEx@12:PROC
EXTRN	__imp__DeleteCriticalSection@4:PROC
EXTRN	__imp__GetModuleHandleA@4:PROC
EXTRN	__imp__RegisterWindowMessageA@4:PROC
EXTRN	__imp__SendMessageA@16:PROC
EXTRN	__imp__UnregisterClassA@8:PROC
EXTRN	__imp__IsWindowVisible@4:PROC
EXTRN	__imp__EnableWindow@8:PROC
EXTRN	__imp__InvalidateRect@12:PROC
EXTRN	__imp__GetClientRect@8:PROC
EXTRN	__imp__GetParent@4:PROC
EXTRN	__imp____stdio_common_vsscanf:PROC
EXTRN	__imp__free:PROC
EXTRN	__imp__SysFreeString@4:PROC
EXTRN	__imp_??0?$CStringT@DV?$StrTraitMFC_DLL@DV?$ChTraitsCRT@D@ATL@@@@@ATL@@QAE@XZ:PROC
EXTRN	__imp_??1?$CStringT@DV?$StrTraitMFC_DLL@DV?$ChTraitsCRT@D@ATL@@@@@ATL@@QAE@XZ:PROC
EXTRN	__imp_?Format@?$CStringT@DV?$StrTraitMFC_DLL@DV?$ChTraitsCRT@D@ATL@@@@@ATL@@QAAXPBDZZ:PROC
EXTRN	?OnCmdMsg@CCmdTarget@@UAEHIHPAXPAUAFX_CMDHANDLERINFO@@@Z:PROC ; CCmdTarget::OnCmdMsg
EXTRN	?IsInvokeAllowed@CCmdTarget@@UAEHJ@Z:PROC	; CCmdTarget::IsInvokeAllowed
EXTRN	?GetDispatchIID@CCmdTarget@@UAEHPAU_GUID@@@Z:PROC ; CCmdTarget::GetDispatchIID
EXTRN	?GetTypeInfoCount@CCmdTarget@@UAEIXZ:PROC	; CCmdTarget::GetTypeInfoCount
EXTRN	?GetTypeLibCache@CCmdTarget@@UAEPAVCTypeLibCache@@XZ:PROC ; CCmdTarget::GetTypeLibCache
EXTRN	?GetTypeLib@CCmdTarget@@UAEJKPAPAUITypeLib@@@Z:PROC ; CCmdTarget::GetTypeLib
EXTRN	?GetCommandMap@CCmdTarget@@MBEPBUAFX_OLECMDMAP@@XZ:PROC ; CCmdTarget::GetCommandMap
EXTRN	?GetDispatchMap@CCmdTarget@@MBEPBUAFX_DISPMAP@@XZ:PROC ; CCmdTarget::GetDispatchMap
EXTRN	?GetConnectionMap@CCmdTarget@@MBEPBUAFX_CONNECTIONMAP@@XZ:PROC ; CCmdTarget::GetConnectionMap
EXTRN	?GetEventSinkMap@CCmdTarget@@MBEPBUAFX_EVENTSINKMAP@@XZ:PROC ; CCmdTarget::GetEventSinkMap
EXTRN	?OnCreateAggregates@CCmdTarget@@UAEHXZ:PROC	; CCmdTarget::OnCreateAggregates
EXTRN	?GetInterfaceHook@CCmdTarget@@UAEPAUIUnknown@@PBX@Z:PROC ; CCmdTarget::GetInterfaceHook
EXTRN	?GetExtraConnectionPoints@CCmdTarget@@MAEHPAVCPtrArray@@@Z:PROC ; CCmdTarget::GetExtraConnectionPoints
EXTRN	?GetConnectionHook@CCmdTarget@@MAEPAUIConnectionPoint@@ABU_GUID@@@Z:PROC ; CCmdTarget::GetConnectionHook
EXTRN	?FromHandle@CWnd@@SGPAV1@PAUHWND__@@@Z:PROC	; CWnd::FromHandle
EXTRN	?Create@CWnd@@UAEHPBD0KABUtagRECT@@PAV1@IPAUCCreateContext@@@Z:PROC ; CWnd::Create
EXTRN	?CreateEx@CWnd@@UAEHKPBD0KHHHHPAUHWND__@@PAUHMENU__@@PAX@Z:PROC ; CWnd::CreateEx
EXTRN	?CreateEx@CWnd@@UAEHKPBD0KABUtagRECT@@PAV1@IPAX@Z:PROC ; CWnd::CreateEx
EXTRN	?DestroyWindow@CWnd@@UAEHXZ:PROC		; CWnd::DestroyWindow
EXTRN	?PreCreateWindow@CWnd@@UAEHAAUtagCREATESTRUCTA@@@Z:PROC ; CWnd::PreCreateWindow
EXTRN	?CalcWindowRect@CWnd@@UAEXPAUtagRECT@@I@Z:PROC	; CWnd::CalcWindowRect
EXTRN	?GetMenu@CWnd@@UBEPAVCMenu@@XZ:PROC		; CWnd::GetMenu
EXTRN	?SetMenu@CWnd@@UAEHPAVCMenu@@@Z:PROC		; CWnd::SetMenu
EXTRN	?SetWindowPos@CWnd@@QAEHPBV1@HHHHI@Z:PROC	; CWnd::SetWindowPos
EXTRN	?ShowWindow@CWnd@@QAEHH@Z:PROC			; CWnd::ShowWindow
EXTRN	?OnToolHitTest@CWnd@@UBEHVCPoint@@PAUtagTOOLINFOA@@@Z:PROC ; CWnd::OnToolHitTest
EXTRN	?GetScrollBarCtrl@CWnd@@UBEPAVCScrollBar@@H@Z:PROC ; CWnd::GetScrollBarCtrl
EXTRN	?WinHelpA@CWnd@@UAEXKI@Z:PROC			; CWnd::WinHelpA
EXTRN	?HtmlHelpA@CWnd@@UAEXKI@Z:PROC			; CWnd::HtmlHelpA
EXTRN	?WinHelpInternal@CWnd@@UAEXKI@Z:PROC		; CWnd::WinHelpInternal
EXTRN	?ContinueModal@CWnd@@UAEHXZ:PROC		; CWnd::ContinueModal
EXTRN	?EndModalLoop@CWnd@@UAEXH@Z:PROC		; CWnd::EndModalLoop
EXTRN	?OnDrawIconicThumbnailOrLivePreview@CWnd@@UAEXAAVCDC@@VCRect@@VCSize@@HAAH@Z:PROC ; CWnd::OnDrawIconicThumbnailOrLivePreview
EXTRN	?GetInterfaceMap@CWnd@@MBEPBUAFX_INTERFACEMAP@@XZ:PROC ; CWnd::GetInterfaceMap
EXTRN	?EnsureStdObj@CWnd@@UAEJXZ:PROC			; CWnd::EnsureStdObj
EXTRN	?get_accParent@CWnd@@UAEJPAPAUIDispatch@@@Z:PROC ; CWnd::get_accParent
EXTRN	?get_accChildCount@CWnd@@UAEJPAJ@Z:PROC		; CWnd::get_accChildCount
EXTRN	?get_accChild@CWnd@@UAEJUtagVARIANT@@PAPAUIDispatch@@@Z:PROC ; CWnd::get_accChild
EXTRN	?get_accName@CWnd@@UAEJUtagVARIANT@@PAPA_W@Z:PROC ; CWnd::get_accName
EXTRN	?get_accValue@CWnd@@UAEJUtagVARIANT@@PAPA_W@Z:PROC ; CWnd::get_accValue
EXTRN	?get_accDescription@CWnd@@UAEJUtagVARIANT@@PAPA_W@Z:PROC ; CWnd::get_accDescription
EXTRN	?get_accRole@CWnd@@UAEJUtagVARIANT@@PAU2@@Z:PROC ; CWnd::get_accRole
EXTRN	?get_accState@CWnd@@UAEJUtagVARIANT@@PAU2@@Z:PROC ; CWnd::get_accState
EXTRN	?get_accHelp@CWnd@@UAEJUtagVARIANT@@PAPA_W@Z:PROC ; CWnd::get_accHelp
EXTRN	?get_accHelpTopic@CWnd@@UAEJPAPA_WUtagVARIANT@@PAJ@Z:PROC ; CWnd::get_accHelpTopic
EXTRN	?get_accKeyboardShortcut@CWnd@@UAEJUtagVARIANT@@PAPA_W@Z:PROC ; CWnd::get_accKeyboardShortcut
EXTRN	?get_accFocus@CWnd@@UAEJPAUtagVARIANT@@@Z:PROC	; CWnd::get_accFocus
EXTRN	?get_accSelection@CWnd@@UAEJPAUtagVARIANT@@@Z:PROC ; CWnd::get_accSelection
EXTRN	?get_accDefaultAction@CWnd@@UAEJUtagVARIANT@@PAPA_W@Z:PROC ; CWnd::get_accDefaultAction
EXTRN	?accSelect@CWnd@@UAEJJUtagVARIANT@@@Z:PROC	; CWnd::accSelect
EXTRN	?accLocation@CWnd@@UAEJPAJ000UtagVARIANT@@@Z:PROC ; CWnd::accLocation
EXTRN	?accNavigate@CWnd@@UAEJJUtagVARIANT@@PAU2@@Z:PROC ; CWnd::accNavigate
EXTRN	?accHitTest@CWnd@@UAEJJJPAUtagVARIANT@@@Z:PROC	; CWnd::accHitTest
EXTRN	?accDoDefaultAction@CWnd@@UAEJUtagVARIANT@@@Z:PROC ; CWnd::accDoDefaultAction
EXTRN	?put_accName@CWnd@@UAEJUtagVARIANT@@PA_W@Z:PROC	; CWnd::put_accName
EXTRN	?put_accValue@CWnd@@UAEJUtagVARIANT@@PA_W@Z:PROC ; CWnd::put_accValue
EXTRN	?SetProxy@CWnd@@UAEJPAUIAccessibleProxy@@@Z:PROC ; CWnd::SetProxy
EXTRN	?CreateAccessibleProxy@CWnd@@UAEJIJPAJ@Z:PROC	; CWnd::CreateAccessibleProxy
EXTRN	?OnCommand@CWnd@@MAEHIJ@Z:PROC			; CWnd::OnCommand
EXTRN	?OnNotify@CWnd@@MAEHIJPAJ@Z:PROC		; CWnd::OnNotify
EXTRN	?GetSuperWndProcAddr@CWnd@@MAEPAP6GJPAUHWND__@@IIJ@ZXZ:PROC ; CWnd::GetSuperWndProcAddr
EXTRN	?PreTranslateMessage@CWnd@@UAEHPAUtagMSG@@@Z:PROC ; CWnd::PreTranslateMessage
EXTRN	?OnAmbientProperty@CWnd@@UAEHPAVCOleControlSite@@JPAUtagVARIANT@@@Z:PROC ; CWnd::OnAmbientProperty
EXTRN	?OnWndMsg@CWnd@@MAEHIIJPAJ@Z:PROC		; CWnd::OnWndMsg
EXTRN	?DefWindowProcA@CWnd@@MAEJIIJ@Z:PROC		; CWnd::DefWindowProcA
EXTRN	?PostNcDestroy@CWnd@@MAEXXZ:PROC		; CWnd::PostNcDestroy
EXTRN	?OnTouchInputs@CWnd@@MAEHIPAUtagTOUCHINPUT@@@Z:PROC ; CWnd::OnTouchInputs
EXTRN	?OnTouchInput@CWnd@@MAEHVCPoint@@HHPAUtagTOUCHINPUT@@@Z:PROC ; CWnd::OnTouchInput
EXTRN	?GetGestureStatus@CWnd@@MAEKVCPoint@@@Z:PROC	; CWnd::GetGestureStatus
EXTRN	?OnGestureZoom@CWnd@@MAEHVCPoint@@J@Z:PROC	; CWnd::OnGestureZoom
EXTRN	?OnGesturePan@CWnd@@MAEHVCPoint@@0@Z:PROC	; CWnd::OnGesturePan
EXTRN	?OnGestureRotate@CWnd@@MAEHVCPoint@@N@Z:PROC	; CWnd::OnGestureRotate
EXTRN	?OnGestureTwoFingerTap@CWnd@@MAEHVCPoint@@@Z:PROC ; CWnd::OnGestureTwoFingerTap
EXTRN	?OnGesturePressAndTap@CWnd@@MAEHVCPoint@@J@Z:PROC ; CWnd::OnGesturePressAndTap
EXTRN	?ResizeDynamicLayout@CWnd@@MAEXXZ:PROC		; CWnd::ResizeDynamicLayout
EXTRN	?CheckAutoCenter@CWnd@@UAEHXZ:PROC		; CWnd::CheckAutoCenter
EXTRN	?IsFrameWnd@CWnd@@UBEHXZ:PROC			; CWnd::IsFrameWnd
EXTRN	?OnFinalRelease@CWnd@@UAEXXZ:PROC		; CWnd::OnFinalRelease
EXTRN	?CreateControlContainer@CWnd@@MAEHPAPAVCOleControlContainer@@@Z:PROC ; CWnd::CreateControlContainer
EXTRN	?CreateControlSite@CWnd@@MAEHPAVCOleControlContainer@@PAPAVCOleControlSite@@IABU_GUID@@@Z:PROC ; CWnd::CreateControlSite
EXTRN	?SetOccDialogInfo@CWnd@@MAEHPAU_AFX_OCC_DIALOG_INFO@@@Z:PROC ; CWnd::SetOccDialogInfo
EXTRN	?GetOccDialogInfo@CWnd@@MAEPAU_AFX_OCC_DIALOG_INFO@@XZ:PROC ; CWnd::GetOccDialogInfo
EXTRN	?GetRuntimeClass@CTabCtrl@@UBEPAUCRuntimeClass@@XZ:PROC ; CTabCtrl::GetRuntimeClass
EXTRN	?Create@CTabCtrl@@UAEHKABUtagRECT@@PAVCWnd@@I@Z:PROC ; CTabCtrl::Create
EXTRN	?CreateEx@CTabCtrl@@UAEHKKABUtagRECT@@PAVCWnd@@I@Z:PROC ; CTabCtrl::CreateEx
EXTRN	?OnChildNotify@CTabCtrl@@MAEHIIJPAJ@Z:PROC	; CTabCtrl::OnChildNotify
EXTRN	?OnDestroy@CTabCtrl@@IAEXXZ:PROC		; CTabCtrl::OnDestroy
EXTRN	??0CTabDlgCreator@@QAE@XZ:PROC			; CTabDlgCreator::CTabDlgCreator
EXTRN	??1CTabDlgCreator@@UAE@XZ:PROC			; CTabDlgCreator::~CTabDlgCreator
EXTRN	?Init@CTabDlgCreator@@QAEXPAVCWnd@@PAVCLeftBarDlg@@PAVCTabCtrl@@0@Z:PROC ; CTabDlgCreator::Init
EXTRN	?GetCaptionOfTabDlg@CTabDlgCreator@@QAEXIPAD@Z:PROC ; CTabDlgCreator::GetCaptionOfTabDlg
EXTRN	?CreateTabDlg@CTabDlgCreator@@QAEPAVCTabDlg@@I@Z:PROC ; CTabDlgCreator::CreateTabDlg
EXTRN	??0CExTabCtrl@@QAE@H@Z:PROC			; CExTabCtrl::CExTabCtrl
EXTRN	?InsertItem@CExTabCtrl@@QAEXHPAUtagTCITEMA@@I@Z:PROC ; CExTabCtrl::InsertItem
EXTRN	?SetSTTabColor@CExTabCtrl@@QAEXJ@Z:PROC		; CExTabCtrl::SetSTTabColor
EXTRN	?DrawItem@CExTabCtrl@@MAEXPAUtagDRAWITEMSTRUCT@@@Z:PROC ; CExTabCtrl::DrawItem
EXTRN	?PreSubclassWindow@CExTabCtrl@@MAEXXZ:PROC	; CExTabCtrl::PreSubclassWindow
EXTRN	?WindowProc@CExTabCtrl@@MAEJIIJ@Z:PROC		; CExTabCtrl::WindowProc
EXTRN	??1CExTabCtrl@@UAE@XZ:PROC			; CExTabCtrl::~CExTabCtrl
EXTRN	?OnSelchange@CExTabCtrl@@IAEHPAUtagNMHDR@@PAJ@Z:PROC ; CExTabCtrl::OnSelchange
EXTRN	?OnSize@CExTabCtrl@@IAEXIHH@Z:PROC		; CExTabCtrl::OnSize
EXTRN	?GetThisMessageMap@CExTabCtrl@@KGPBUAFX_MSGMAP@@XZ:PROC ; CExTabCtrl::GetThisMessageMap
EXTRN	?SetPermanentHandle@CExOCXDLL@@QAEXPAVCWnd@@@Z:PROC ; CExOCXDLL::SetPermanentHandle
EXTRN	??_ECXTabCtrl@@UAEPAXI@Z:PROC			; CXTabCtrl::`vector deleting destructor'
EXTRN	?IsSystemChart@CStdDialog@@QAEHXZ:PROC		; CStdDialog::IsSystemChart
EXTRN	?IsChartScreen@CStdDialog@@QAEHPBD@Z:PROC	; CStdDialog::IsChartScreen
EXTRN	@__security_check_cookie@4:PROC
EXTRN	___CxxFrameHandler3:PROC
EXTRN	??_7type_info@@6B@:QWORD			; type_info::`vftable'
EXTRN	___security_cookie:DWORD
;	COMDAT ?_OptionsStorage@?1??__local_stdio_scanf_options@@9@4_KA
_BSS	SEGMENT
?_OptionsStorage@?1??__local_stdio_scanf_options@@9@4_KA DQ 01H DUP (?) ; `__local_stdio_scanf_options'::`2'::_OptionsStorage
_BSS	ENDS
_BSS	SEGMENT
?RMSG_INTERFACE@@3IB DD 01H DUP (?)			; RMSG_INTERFACE
?RMSG_GETSIGNAL_REAL@@3IB DD 01H DUP (?)		; RMSG_GETSIGNAL_REAL
?RMSG_SETQUERYOPT@@3IB DD 01H DUP (?)			; RMSG_SETQUERYOPT
?RMSG_CHARTMAIN@@3IB DD 01H DUP (?)			; RMSG_CHARTMAIN
?RMS_ANALYSIS_FUNC@@3IB DD 01H DUP (?)			; RMS_ANALYSIS_FUNC
?RMSG_GET_USERID@@3IB DD 01H DUP (?)			; RMSG_GET_USERID
?RMSG_CHANGE_SKINCOLOR@@3IB DD 01H DUP (?)		; RMSG_CHANGE_SKINCOLOR
?RMSG_GET_SKINCOLOR@@3IB DD 01H DUP (?)			; RMSG_GET_SKINCOLOR
?RMSG_CHANGEVERTSCALETYPE@@3IB DD 01H DUP (?)		; RMSG_CHANGEVERTSCALETYPE
?RMSG_CHANGE_CROSSLINE@@3IB DD 01H DUP (?)		; RMSG_CHANGE_CROSSLINE
?RMSG_ADD_PLATFORM_MENU@@3IB DD 01H DUP (?)		; RMSG_ADD_PLATFORM_MENU
?RMSG_SETINITIALCHARTDATA@@3IB DD 01H DUP (?)		; RMSG_SETINITIALCHARTDATA
?RMSG_GETINFO@@3IB DD 01H DUP (?)			; RMSG_GETINFO
?RMSG_SETINFO@@3IB DD 01H DUP (?)			; RMSG_SETINFO
?RMSG_REPLAY_REAL@@3IB DD 01H DUP (?)			; RMSG_REPLAY_REAL
?RMSG_REPLAY_FAIL@@3IB DD 01H DUP (?)			; RMSG_REPLAY_FAIL
?RMSG_REPLAY_CHANGE_DATE@@3IB DD 01H DUP (?)		; RMSG_REPLAY_CHANGE_DATE
?RMSG_REPLAY_END@@3IB DD 01H DUP (?)			; RMSG_REPLAY_END
?RMSG_REPLAY_INC_SEC@@3IB DD 01H DUP (?)		; RMSG_REPLAY_INC_SEC
?RMSG_REPLAY_TOTAL_SEC@@3IB DD 01H DUP (?)		; RMSG_REPLAY_TOTAL_SEC
?RMSG_OPENSCREEN@@3IB DD 01H DUP (?)			; RMSG_OPENSCREEN
_BSS	ENDS
;	COMDAT CRT$XCU
CRT$XCU	SEGMENT
?_AtlWinModule$initializer$@ATL@@3P6AXXZA DD FLAT:??__E_AtlWinModule@ATL@@YAXXZ ; ATL::_AtlWinModule$initializer$
CRT$XCU	ENDS
;	COMDAT ??_R2CExTabCtrl@@8
rdata$r	SEGMENT
??_R2CExTabCtrl@@8 DD FLAT:??_R1A@?0A@EA@CExTabCtrl@@8	; CExTabCtrl::`RTTI Base Class Array'
	DD	FLAT:??_R1A@?0A@EA@CTabCtrl@@8
	DD	FLAT:??_R1A@?0A@EA@CWnd@@8
	DD	FLAT:??_R1A@?0A@EA@CCmdTarget@@8
	DD	FLAT:??_R1A@?0A@EA@CObject@@8
rdata$r	ENDS
;	COMDAT ??_R3CExTabCtrl@@8
rdata$r	SEGMENT
??_R3CExTabCtrl@@8 DD 00H				; CExTabCtrl::`RTTI Class Hierarchy Descriptor'
	DD	00H
	DD	05H
	DD	FLAT:??_R2CExTabCtrl@@8
rdata$r	ENDS
;	COMDAT ??_R0?AVCExTabCtrl@@@8
data$rs	SEGMENT
??_R0?AVCExTabCtrl@@@8 DD FLAT:??_7type_info@@6B@	; CExTabCtrl `RTTI Type Descriptor'
	DD	00H
	DB	'.?AVCExTabCtrl@@', 00H
data$rs	ENDS
;	COMDAT ??_R1A@?0A@EA@CExTabCtrl@@8
rdata$r	SEGMENT
??_R1A@?0A@EA@CExTabCtrl@@8 DD FLAT:??_R0?AVCExTabCtrl@@@8 ; CExTabCtrl::`RTTI Base Class Descriptor at (0,-1,0,64)'
	DD	04H
	DD	00H
	DD	0ffffffffH
	DD	00H
	DD	040H
	DD	FLAT:??_R3CExTabCtrl@@8
rdata$r	ENDS
;	COMDAT ??_R1A@?0A@EA@CXTabCtrl@@8
rdata$r	SEGMENT
??_R1A@?0A@EA@CXTabCtrl@@8 DD FLAT:??_R0?AVCXTabCtrl@@@8 ; CXTabCtrl::`RTTI Base Class Descriptor at (0,-1,0,64)'
	DD	05H
	DD	00H
	DD	0ffffffffH
	DD	00H
	DD	040H
	DD	FLAT:??_R3CXTabCtrl@@8
rdata$r	ENDS
;	COMDAT ??_R2CXTabCtrl@@8
rdata$r	SEGMENT
??_R2CXTabCtrl@@8 DD FLAT:??_R1A@?0A@EA@CXTabCtrl@@8	; CXTabCtrl::`RTTI Base Class Array'
	DD	FLAT:??_R1A@?0A@EA@CExTabCtrl@@8
	DD	FLAT:??_R1A@?0A@EA@CTabCtrl@@8
	DD	FLAT:??_R1A@?0A@EA@CWnd@@8
	DD	FLAT:??_R1A@?0A@EA@CCmdTarget@@8
	DD	FLAT:??_R1A@?0A@EA@CObject@@8
rdata$r	ENDS
;	COMDAT ??_R3CXTabCtrl@@8
rdata$r	SEGMENT
??_R3CXTabCtrl@@8 DD 00H				; CXTabCtrl::`RTTI Class Hierarchy Descriptor'
	DD	00H
	DD	06H
	DD	FLAT:??_R2CXTabCtrl@@8
rdata$r	ENDS
;	COMDAT ??_R0?AVCXTabCtrl@@@8
data$rs	SEGMENT
??_R0?AVCXTabCtrl@@@8 DD FLAT:??_7type_info@@6B@	; CXTabCtrl `RTTI Type Descriptor'
	DD	00H
	DB	'.?AVCXTabCtrl@@', 00H
data$rs	ENDS
;	COMDAT ??_R4CXTabCtrl@@6B@
rdata$r	SEGMENT
??_R4CXTabCtrl@@6B@ DD 00H				; CXTabCtrl::`RTTI Complete Object Locator'
	DD	00H
	DD	00H
	DD	FLAT:??_R0?AVCXTabCtrl@@@8
	DD	FLAT:??_R3CXTabCtrl@@8
rdata$r	ENDS
;	COMDAT ??_C@_09POEKPOBJ@OldFuture@
CONST	SEGMENT
??_C@_09POEKPOBJ@OldFuture@ DB 'OldFuture', 00H		; `string'
CONST	ENDS
;	COMDAT ??_C@_07BODPENMG@SYSEDUE@
CONST	SEGMENT
??_C@_07BODPENMG@SYSEDUE@ DB 'SYSEDUE', 00H		; `string'
CONST	ENDS
;	COMDAT ?messageMap@?1??GetThisMessageMap@CXTabCtrl@@KGPBUAFX_MSGMAP@@XZ@4U3@B
CONST	SEGMENT
?messageMap@?1??GetThisMessageMap@CXTabCtrl@@KGPBUAFX_MSGMAP@@XZ@4U3@B DD FLAT:?GetThisMessageMap@CExTabCtrl@@KGPBUAFX_MSGMAP@@XZ ; `CXTabCtrl::GetThisMessageMap'::`2'::messageMap
	DD	FLAT:?_messageEntries@?1??GetThisMessageMap@CXTabCtrl@@KGPBUAFX_MSGMAP@@XZ@4QBUAFX_MSGMAP_ENTRY@@B
CONST	ENDS
;	COMDAT ?_messageEntries@?1??GetThisMessageMap@CXTabCtrl@@KGPBUAFX_MSGMAP@@XZ@4QBUAFX_MSGMAP_ENTRY@@B
CONST	SEGMENT
?_messageEntries@?1??GetThisMessageMap@CXTabCtrl@@KGPBUAFX_MSGMAP@@XZ@4QBUAFX_MSGMAP_ENTRY@@B DD 0bc4eH ; `CXTabCtrl::GetThisMessageMap'::`2'::_messageEntries
	DD	0fdd9H
	DD	00H
	DD	00H
	DD	03eH
	DD	FLAT:?OnSelchange@CXTabCtrl@@IAEXPAUtagNMHDR@@PAJ@Z
	DD	0bc4eH
	DD	0fdd8H
	DD	00H
	DD	00H
	DD	03eH
	DD	FLAT:?OnSelchanging@CXTabCtrl@@IAEXPAUtagNMHDR@@PAJ@Z
	DD	05H
	DD	00H
	DD	00H
	DD	00H
	DD	01aH
	DD	FLAT:?OnSize@CXTabCtrl@@IAEXIHH@Z
	DD	02H
	DD	00H
	DD	00H
	DD	00H
	DD	013H
	DD	FLAT:?OnDestroy@CXTabCtrl@@IAEXXZ
	DD	00H
	DD	00H
	DD	00H
	DD	00H
	DD	00H
	DD	00H
CONST	ENDS
;	COMDAT ??_7CXTabCtrl@@6B@
CONST	SEGMENT
??_7CXTabCtrl@@6B@ DD FLAT:??_R4CXTabCtrl@@6B@		; CXTabCtrl::`vftable'
	DD	FLAT:?GetRuntimeClass@CTabCtrl@@UBEPAUCRuntimeClass@@XZ
	DD	FLAT:??_ECXTabCtrl@@UAEPAXI@Z
	DD	FLAT:?Serialize@CObject@@UAEXAAVCArchive@@@Z
	DD	FLAT:?AssertValid@CObject@@UBEXXZ
	DD	FLAT:?Dump@CObject@@UBEXAAVCDumpContext@@@Z
	DD	FLAT:?OnCmdMsg@CCmdTarget@@UAEHIHPAXPAUAFX_CMDHANDLERINFO@@@Z
	DD	FLAT:?OnFinalRelease@CWnd@@UAEXXZ
	DD	FLAT:?IsInvokeAllowed@CCmdTarget@@UAEHJ@Z
	DD	FLAT:?GetDispatchIID@CCmdTarget@@UAEHPAU_GUID@@@Z
	DD	FLAT:?GetTypeInfoCount@CCmdTarget@@UAEIXZ
	DD	FLAT:?GetTypeLibCache@CCmdTarget@@UAEPAVCTypeLibCache@@XZ
	DD	FLAT:?GetTypeLib@CCmdTarget@@UAEJKPAPAUITypeLib@@@Z
	DD	FLAT:?GetMessageMap@CXTabCtrl@@MBEPBUAFX_MSGMAP@@XZ
	DD	FLAT:?GetCommandMap@CCmdTarget@@MBEPBUAFX_OLECMDMAP@@XZ
	DD	FLAT:?GetDispatchMap@CCmdTarget@@MBEPBUAFX_DISPMAP@@XZ
	DD	FLAT:?GetConnectionMap@CCmdTarget@@MBEPBUAFX_CONNECTIONMAP@@XZ
	DD	FLAT:?GetInterfaceMap@CWnd@@MBEPBUAFX_INTERFACEMAP@@XZ
	DD	FLAT:?GetEventSinkMap@CCmdTarget@@MBEPBUAFX_EVENTSINKMAP@@XZ
	DD	FLAT:?OnCreateAggregates@CCmdTarget@@UAEHXZ
	DD	FLAT:?GetInterfaceHook@CCmdTarget@@UAEPAUIUnknown@@PBX@Z
	DD	FLAT:?GetExtraConnectionPoints@CCmdTarget@@MAEHPAVCPtrArray@@@Z
	DD	FLAT:?GetConnectionHook@CCmdTarget@@MAEPAUIConnectionPoint@@ABU_GUID@@@Z
	DD	FLAT:?PreSubclassWindow@CExTabCtrl@@MAEXXZ
	DD	FLAT:?Create@CWnd@@UAEHPBD0KABUtagRECT@@PAV1@IPAUCCreateContext@@@Z
	DD	FLAT:?CreateEx@CWnd@@UAEHKPBD0KABUtagRECT@@PAV1@IPAX@Z
	DD	FLAT:?CreateEx@CWnd@@UAEHKPBD0KHHHHPAUHWND__@@PAUHMENU__@@PAX@Z
	DD	FLAT:?DestroyWindow@CWnd@@UAEHXZ
	DD	FLAT:?PreCreateWindow@CWnd@@UAEHAAUtagCREATESTRUCTA@@@Z
	DD	FLAT:?CalcWindowRect@CWnd@@UAEXPAUtagRECT@@I@Z
	DD	FLAT:?GetMenu@CWnd@@UBEPAVCMenu@@XZ
	DD	FLAT:?SetMenu@CWnd@@UAEHPAVCMenu@@@Z
	DD	FLAT:?OnToolHitTest@CWnd@@UBEHVCPoint@@PAUtagTOOLINFOA@@@Z
	DD	FLAT:?GetScrollBarCtrl@CWnd@@UBEPAVCScrollBar@@H@Z
	DD	FLAT:?WinHelpA@CWnd@@UAEXKI@Z
	DD	FLAT:?HtmlHelpA@CWnd@@UAEXKI@Z
	DD	FLAT:?WinHelpInternal@CWnd@@UAEXKI@Z
	DD	FLAT:?ContinueModal@CWnd@@UAEHXZ
	DD	FLAT:?EndModalLoop@CWnd@@UAEXH@Z
	DD	FLAT:?OnDrawIconicThumbnailOrLivePreview@CWnd@@UAEXAAVCDC@@VCRect@@VCSize@@HAAH@Z
	DD	FLAT:?EnsureStdObj@CWnd@@UAEJXZ
	DD	FLAT:?get_accParent@CWnd@@UAEJPAPAUIDispatch@@@Z
	DD	FLAT:?get_accChildCount@CWnd@@UAEJPAJ@Z
	DD	FLAT:?get_accChild@CWnd@@UAEJUtagVARIANT@@PAPAUIDispatch@@@Z
	DD	FLAT:?get_accName@CWnd@@UAEJUtagVARIANT@@PAPA_W@Z
	DD	FLAT:?get_accValue@CWnd@@UAEJUtagVARIANT@@PAPA_W@Z
	DD	FLAT:?get_accDescription@CWnd@@UAEJUtagVARIANT@@PAPA_W@Z
	DD	FLAT:?get_accRole@CWnd@@UAEJUtagVARIANT@@PAU2@@Z
	DD	FLAT:?get_accState@CWnd@@UAEJUtagVARIANT@@PAU2@@Z
	DD	FLAT:?get_accHelp@CWnd@@UAEJUtagVARIANT@@PAPA_W@Z
	DD	FLAT:?get_accHelpTopic@CWnd@@UAEJPAPA_WUtagVARIANT@@PAJ@Z
	DD	FLAT:?get_accKeyboardShortcut@CWnd@@UAEJUtagVARIANT@@PAPA_W@Z
	DD	FLAT:?get_accFocus@CWnd@@UAEJPAUtagVARIANT@@@Z
	DD	FLAT:?get_accSelection@CWnd@@UAEJPAUtagVARIANT@@@Z
	DD	FLAT:?get_accDefaultAction@CWnd@@UAEJUtagVARIANT@@PAPA_W@Z
	DD	FLAT:?accSelect@CWnd@@UAEJJUtagVARIANT@@@Z
	DD	FLAT:?accLocation@CWnd@@UAEJPAJ000UtagVARIANT@@@Z
	DD	FLAT:?accNavigate@CWnd@@UAEJJUtagVARIANT@@PAU2@@Z
	DD	FLAT:?accHitTest@CWnd@@UAEJJJPAUtagVARIANT@@@Z
	DD	FLAT:?accDoDefaultAction@CWnd@@UAEJUtagVARIANT@@@Z
	DD	FLAT:?put_accName@CWnd@@UAEJUtagVARIANT@@PA_W@Z
	DD	FLAT:?put_accValue@CWnd@@UAEJUtagVARIANT@@PA_W@Z
	DD	FLAT:?SetProxy@CWnd@@UAEJPAUIAccessibleProxy@@@Z
	DD	FLAT:?CreateAccessibleProxy@CWnd@@UAEJIJPAJ@Z
	DD	FLAT:?OnCommand@CWnd@@MAEHIJ@Z
	DD	FLAT:?OnNotify@CWnd@@MAEHIJPAJ@Z
	DD	FLAT:?GetSuperWndProcAddr@CWnd@@MAEPAP6GJPAUHWND__@@IIJ@ZXZ
	DD	FLAT:?DoDataExchange@CWnd@@MAEXPAVCDataExchange@@@Z
	DD	FLAT:?BeginModalState@CWnd@@UAEXXZ
	DD	FLAT:?EndModalState@CWnd@@UAEXXZ
	DD	FLAT:?PreTranslateMessage@CWnd@@UAEHPAUtagMSG@@@Z
	DD	FLAT:?OnAmbientProperty@CWnd@@UAEHPAVCOleControlSite@@JPAUtagVARIANT@@@Z
	DD	FLAT:?WindowProc@CExTabCtrl@@MAEJIIJ@Z
	DD	FLAT:?OnWndMsg@CWnd@@MAEHIIJPAJ@Z
	DD	FLAT:?DefWindowProcA@CWnd@@MAEJIIJ@Z
	DD	FLAT:?PostNcDestroy@CWnd@@MAEXXZ
	DD	FLAT:?OnChildNotify@CTabCtrl@@MAEHIIJPAJ@Z
	DD	FLAT:?OnTouchInputs@CWnd@@MAEHIPAUtagTOUCHINPUT@@@Z
	DD	FLAT:?OnTouchInput@CWnd@@MAEHVCPoint@@HHPAUtagTOUCHINPUT@@@Z
	DD	FLAT:?GetGestureStatus@CWnd@@MAEKVCPoint@@@Z
	DD	FLAT:?OnGestureZoom@CWnd@@MAEHVCPoint@@J@Z
	DD	FLAT:?OnGesturePan@CWnd@@MAEHVCPoint@@0@Z
	DD	FLAT:?OnGestureRotate@CWnd@@MAEHVCPoint@@N@Z
	DD	FLAT:?OnGestureTwoFingerTap@CWnd@@MAEHVCPoint@@@Z
	DD	FLAT:?OnGesturePressAndTap@CWnd@@MAEHVCPoint@@J@Z
	DD	FLAT:?ResizeDynamicLayout@CWnd@@MAEXXZ
	DD	FLAT:?CheckAutoCenter@CWnd@@UAEHXZ
	DD	FLAT:?IsFrameWnd@CWnd@@UBEHXZ
	DD	FLAT:?CreateControlContainer@CWnd@@MAEHPAPAVCOleControlContainer@@@Z
	DD	FLAT:?CreateControlSite@CWnd@@MAEHPAVCOleControlContainer@@PAPAVCOleControlSite@@IABU_GUID@@@Z
	DD	FLAT:?SetOccDialogInfo@CWnd@@MAEHPAU_AFX_OCC_DIALOG_INFO@@@Z
	DD	FLAT:?GetOccDialogInfo@CWnd@@MAEPAU_AFX_OCC_DIALOG_INFO@@XZ
	DD	FLAT:?Create@CTabCtrl@@UAEHKABUtagRECT@@PAVCWnd@@I@Z
	DD	FLAT:?CreateEx@CTabCtrl@@UAEHKKABUtagRECT@@PAVCWnd@@I@Z
	DD	FLAT:?DrawItem@CExTabCtrl@@MAEXPAUtagDRAWITEMSTRUCT@@@Z
CONST	ENDS
;	COMDAT ??_R1A@?0A@EA@CTabCtrl@@8
rdata$r	SEGMENT
??_R1A@?0A@EA@CTabCtrl@@8 DD FLAT:??_R0?AVCTabCtrl@@@8	; CTabCtrl::`RTTI Base Class Descriptor at (0,-1,0,64)'
	DD	03H
	DD	00H
	DD	0ffffffffH
	DD	00H
	DD	040H
	DD	FLAT:??_R3CTabCtrl@@8
rdata$r	ENDS
;	COMDAT ??_R2CTabCtrl@@8
rdata$r	SEGMENT
??_R2CTabCtrl@@8 DD FLAT:??_R1A@?0A@EA@CTabCtrl@@8	; CTabCtrl::`RTTI Base Class Array'
	DD	FLAT:??_R1A@?0A@EA@CWnd@@8
	DD	FLAT:??_R1A@?0A@EA@CCmdTarget@@8
	DD	FLAT:??_R1A@?0A@EA@CObject@@8
rdata$r	ENDS
;	COMDAT ??_R3CTabCtrl@@8
rdata$r	SEGMENT
??_R3CTabCtrl@@8 DD 00H					; CTabCtrl::`RTTI Class Hierarchy Descriptor'
	DD	00H
	DD	04H
	DD	FLAT:??_R2CTabCtrl@@8
rdata$r	ENDS
;	COMDAT ??_R0?AVCTabCtrl@@@8
data$rs	SEGMENT
??_R0?AVCTabCtrl@@@8 DD FLAT:??_7type_info@@6B@		; CTabCtrl `RTTI Type Descriptor'
	DD	00H
	DB	'.?AVCTabCtrl@@', 00H
data$rs	ENDS
;	COMDAT ??_R2CCmdTarget@@8
rdata$r	SEGMENT
??_R2CCmdTarget@@8 DD FLAT:??_R1A@?0A@EA@CCmdTarget@@8	; CCmdTarget::`RTTI Base Class Array'
	DD	FLAT:??_R1A@?0A@EA@CObject@@8
rdata$r	ENDS
;	COMDAT ??_R3CCmdTarget@@8
rdata$r	SEGMENT
??_R3CCmdTarget@@8 DD 00H				; CCmdTarget::`RTTI Class Hierarchy Descriptor'
	DD	00H
	DD	02H
	DD	FLAT:??_R2CCmdTarget@@8
rdata$r	ENDS
;	COMDAT ??_R0?AVCCmdTarget@@@8
data$rs	SEGMENT
??_R0?AVCCmdTarget@@@8 DD FLAT:??_7type_info@@6B@	; CCmdTarget `RTTI Type Descriptor'
	DD	00H
	DB	'.?AVCCmdTarget@@', 00H
data$rs	ENDS
;	COMDAT ??_R1A@?0A@EA@CCmdTarget@@8
rdata$r	SEGMENT
??_R1A@?0A@EA@CCmdTarget@@8 DD FLAT:??_R0?AVCCmdTarget@@@8 ; CCmdTarget::`RTTI Base Class Descriptor at (0,-1,0,64)'
	DD	01H
	DD	00H
	DD	0ffffffffH
	DD	00H
	DD	040H
	DD	FLAT:??_R3CCmdTarget@@8
rdata$r	ENDS
;	COMDAT ??_R2CWnd@@8
rdata$r	SEGMENT
??_R2CWnd@@8 DD	FLAT:??_R1A@?0A@EA@CWnd@@8		; CWnd::`RTTI Base Class Array'
	DD	FLAT:??_R1A@?0A@EA@CCmdTarget@@8
	DD	FLAT:??_R1A@?0A@EA@CObject@@8
rdata$r	ENDS
;	COMDAT ??_R3CWnd@@8
rdata$r	SEGMENT
??_R3CWnd@@8 DD	00H					; CWnd::`RTTI Class Hierarchy Descriptor'
	DD	00H
	DD	03H
	DD	FLAT:??_R2CWnd@@8
rdata$r	ENDS
;	COMDAT ??_R0?AVCWnd@@@8
data$rs	SEGMENT
??_R0?AVCWnd@@@8 DD FLAT:??_7type_info@@6B@		; CWnd `RTTI Type Descriptor'
	DD	00H
	DB	'.?AVCWnd@@', 00H
data$rs	ENDS
;	COMDAT ??_R1A@?0A@EA@CWnd@@8
rdata$r	SEGMENT
??_R1A@?0A@EA@CWnd@@8 DD FLAT:??_R0?AVCWnd@@@8		; CWnd::`RTTI Base Class Descriptor at (0,-1,0,64)'
	DD	02H
	DD	00H
	DD	0ffffffffH
	DD	00H
	DD	040H
	DD	FLAT:??_R3CWnd@@8
rdata$r	ENDS
;	COMDAT ??_R1A@?0A@EA@CObject@@8
rdata$r	SEGMENT
??_R1A@?0A@EA@CObject@@8 DD FLAT:??_R0?AVCObject@@@8	; CObject::`RTTI Base Class Descriptor at (0,-1,0,64)'
	DD	00H
	DD	00H
	DD	0ffffffffH
	DD	00H
	DD	040H
	DD	FLAT:??_R3CObject@@8
rdata$r	ENDS
;	COMDAT ??_R2CObject@@8
rdata$r	SEGMENT
??_R2CObject@@8 DD FLAT:??_R1A@?0A@EA@CObject@@8	; CObject::`RTTI Base Class Array'
rdata$r	ENDS
;	COMDAT ??_R3CObject@@8
rdata$r	SEGMENT
??_R3CObject@@8 DD 00H					; CObject::`RTTI Class Hierarchy Descriptor'
	DD	00H
	DD	01H
	DD	FLAT:??_R2CObject@@8
rdata$r	ENDS
;	COMDAT ??_R0?AVCObject@@@8
data$rs	SEGMENT
??_R0?AVCObject@@@8 DD FLAT:??_7type_info@@6B@		; CObject `RTTI Type Descriptor'
	DD	00H
	DB	'.?AVCObject@@', 00H
data$rs	ENDS
;	COMDAT ??_C@_02EMFKHFLK@?$CFX@
CONST	SEGMENT
??_C@_02EMFKHFLK@?$CFX@ DB '%X', 00H			; `string'
CONST	ENDS
;	COMDAT ??_C@_06NDLAHCHE@?$CFs?$CF08X@
CONST	SEGMENT
??_C@_06NDLAHCHE@?$CFs?$CF08X@ DB '%s%08X', 00H		; `string'
CONST	ENDS
;	COMDAT ??_C@_0P@IDMAJEGN@HANAROPCTRMAIN@
CONST	SEGMENT
??_C@_0P@IDMAJEGN@HANAROPCTRMAIN@ DB 'HANAROPCTRMAIN', 00H ; `string'
CONST	ENDS
;	COMDAT ??_C@_0M@CBBNGGHM@PcTrMng?4dll@
CONST	SEGMENT
??_C@_0M@CBBNGGHM@PcTrMng?4dll@ DB 'PcTrMng.dll', 00H	; `string'
CONST	ENDS
;	COMDAT ?_AtlWinModule@ATL@@3VCAtlWinModule@1@A
_DATA	SEGMENT
?_AtlWinModule@ATL@@3VCAtlWinModule@1@A DD 02cH		; ATL::_AtlWinModule
	DB	24 DUP(00H)
	DD	00H
_DATA	ENDS
;	COMDAT xdata$x
xdata$x	SEGMENT
__ehfuncinfo$??_Estringdispid@CComTypeInfoHolder@ATL@@QAEPAXI@Z DD 019930522H
	DD	00H
	DD	00H
	DD	2 DUP(00H)
	DD	2 DUP(00H)
	DD	00H
	DD	05H
xdata$x	ENDS
;	COMDAT xdata$x
xdata$x	SEGMENT
__unwindtable$?Init@CXTabCtrl@@QAEXPAVCWnd@@0H@Z DD 0ffffffffH
	DD	FLAT:__unwindfunclet$?Init@CXTabCtrl@@QAEXPAVCWnd@@0H@Z$0
__ehfuncinfo$?Init@CXTabCtrl@@QAEXPAVCWnd@@0H@Z DD 019930522H
	DD	01H
	DD	FLAT:__unwindtable$?Init@CXTabCtrl@@QAEXPAVCWnd@@0H@Z
	DD	2 DUP(00H)
	DD	2 DUP(00H)
	DD	00H
	DD	01H
xdata$x	ENDS
;	COMDAT xdata$x
xdata$x	SEGMENT
__unwindtable$??0CXTabCtrl@@QAE@XZ DD 0ffffffffH
	DD	FLAT:__unwindfunclet$??0CXTabCtrl@@QAE@XZ$0
__ehfuncinfo$??0CXTabCtrl@@QAE@XZ DD 019930522H
	DD	01H
	DD	FLAT:__unwindtable$??0CXTabCtrl@@QAE@XZ
	DD	2 DUP(00H)
	DD	2 DUP(00H)
	DD	00H
	DD	01H
xdata$x	ENDS
;	COMDAT xdata$x
xdata$x	SEGMENT
__unwindtable$?AfxGetPctrInterface@@YGJH@Z DD 0ffffffffH
	DD	FLAT:__unwindfunclet$?AfxGetPctrInterface@@YGJH@Z$0
__ehfuncinfo$?AfxGetPctrInterface@@YGJH@Z DD 019930522H
	DD	01H
	DD	FLAT:__unwindtable$?AfxGetPctrInterface@@YGJH@Z
	DD	2 DUP(00H)
	DD	2 DUP(00H)
	DD	00H
	DD	01H
xdata$x	ENDS
CRT$XCU	SEGMENT
?RMSG_INTERFACE$initializer$@@3P6AXXZA DD FLAT:??__ERMSG_INTERFACE@@YAXXZ ; RMSG_INTERFACE$initializer$
CRT$XCU	ENDS
CRT$XCU	SEGMENT
?RMSG_GETSIGNAL_REAL$initializer$@@3P6AXXZA DD FLAT:??__ERMSG_GETSIGNAL_REAL@@YAXXZ ; RMSG_GETSIGNAL_REAL$initializer$
CRT$XCU	ENDS
CRT$XCU	SEGMENT
?RMSG_SETQUERYOPT$initializer$@@3P6AXXZA DD FLAT:??__ERMSG_SETQUERYOPT@@YAXXZ ; RMSG_SETQUERYOPT$initializer$
CRT$XCU	ENDS
CRT$XCU	SEGMENT
?RMSG_CHARTMAIN$initializer$@@3P6AXXZA DD FLAT:??__ERMSG_CHARTMAIN@@YAXXZ ; RMSG_CHARTMAIN$initializer$
CRT$XCU	ENDS
CRT$XCU	SEGMENT
?RMS_ANALYSIS_FUNC$initializer$@@3P6AXXZA DD FLAT:??__ERMS_ANALYSIS_FUNC@@YAXXZ ; RMS_ANALYSIS_FUNC$initializer$
CRT$XCU	ENDS
CRT$XCU	SEGMENT
?RMSG_GET_USERID$initializer$@@3P6AXXZA DD FLAT:??__ERMSG_GET_USERID@@YAXXZ ; RMSG_GET_USERID$initializer$
CRT$XCU	ENDS
CRT$XCU	SEGMENT
?RMSG_CHANGE_SKINCOLOR$initializer$@@3P6AXXZA DD FLAT:??__ERMSG_CHANGE_SKINCOLOR@@YAXXZ ; RMSG_CHANGE_SKINCOLOR$initializer$
CRT$XCU	ENDS
CRT$XCU	SEGMENT
?RMSG_GET_SKINCOLOR$initializer$@@3P6AXXZA DD FLAT:??__ERMSG_GET_SKINCOLOR@@YAXXZ ; RMSG_GET_SKINCOLOR$initializer$
CRT$XCU	ENDS
CRT$XCU	SEGMENT
?RMSG_CHANGEVERTSCALETYPE$initializer$@@3P6AXXZA DD FLAT:??__ERMSG_CHANGEVERTSCALETYPE@@YAXXZ ; RMSG_CHANGEVERTSCALETYPE$initializer$
CRT$XCU	ENDS
CRT$XCU	SEGMENT
?RMSG_CHANGE_CROSSLINE$initializer$@@3P6AXXZA DD FLAT:??__ERMSG_CHANGE_CROSSLINE@@YAXXZ ; RMSG_CHANGE_CROSSLINE$initializer$
CRT$XCU	ENDS
CRT$XCU	SEGMENT
?RMSG_ADD_PLATFORM_MENU$initializer$@@3P6AXXZA DD FLAT:??__ERMSG_ADD_PLATFORM_MENU@@YAXXZ ; RMSG_ADD_PLATFORM_MENU$initializer$
CRT$XCU	ENDS
CRT$XCU	SEGMENT
?RMSG_SETINITIALCHARTDATA$initializer$@@3P6AXXZA DD FLAT:??__ERMSG_SETINITIALCHARTDATA@@YAXXZ ; RMSG_SETINITIALCHARTDATA$initializer$
CRT$XCU	ENDS
CRT$XCU	SEGMENT
?RMSG_GETINFO$initializer$@@3P6AXXZA DD FLAT:??__ERMSG_GETINFO@@YAXXZ ; RMSG_GETINFO$initializer$
CRT$XCU	ENDS
CRT$XCU	SEGMENT
?RMSG_SETINFO$initializer$@@3P6AXXZA DD FLAT:??__ERMSG_SETINFO@@YAXXZ ; RMSG_SETINFO$initializer$
CRT$XCU	ENDS
CRT$XCU	SEGMENT
?RMSG_REPLAY_REAL$initializer$@@3P6AXXZA DD FLAT:??__ERMSG_REPLAY_REAL@@YAXXZ ; RMSG_REPLAY_REAL$initializer$
CRT$XCU	ENDS
CRT$XCU	SEGMENT
?RMSG_REPLAY_FAIL$initializer$@@3P6AXXZA DD FLAT:??__ERMSG_REPLAY_FAIL@@YAXXZ ; RMSG_REPLAY_FAIL$initializer$
CRT$XCU	ENDS
CRT$XCU	SEGMENT
?RMSG_REPLAY_CHANGE_DATE$initializer$@@3P6AXXZA DD FLAT:??__ERMSG_REPLAY_CHANGE_DATE@@YAXXZ ; RMSG_REPLAY_CHANGE_DATE$initializer$
CRT$XCU	ENDS
CRT$XCU	SEGMENT
?RMSG_REPLAY_END$initializer$@@3P6AXXZA DD FLAT:??__ERMSG_REPLAY_END@@YAXXZ ; RMSG_REPLAY_END$initializer$
CRT$XCU	ENDS
CRT$XCU	SEGMENT
?RMSG_REPLAY_INC_SEC$initializer$@@3P6AXXZA DD FLAT:??__ERMSG_REPLAY_INC_SEC@@YAXXZ ; RMSG_REPLAY_INC_SEC$initializer$
CRT$XCU	ENDS
CRT$XCU	SEGMENT
?RMSG_REPLAY_TOTAL_SEC$initializer$@@3P6AXXZA DD FLAT:??__ERMSG_REPLAY_TOTAL_SEC@@YAXXZ ; RMSG_REPLAY_TOTAL_SEC$initializer$
CRT$XCU	ENDS
CRT$XCU	SEGMENT
?RMSG_OPENSCREEN$initializer$@@3P6AXXZA DD FLAT:??__ERMSG_OPENSCREEN@@YAXXZ ; RMSG_OPENSCREEN$initializer$
CRT$XCU	ENDS
; Function compile flags: /Ogtp
; File D:\git\src\IBK\IBK_DRFN\ProjSrc\SrcDrfn\Chart\MULTICHART\XTabCtrl.cpp
;	COMDAT ??__ERMSG_OPENSCREEN@@YAXXZ
text$di	SEGMENT
??__ERMSG_OPENSCREEN@@YAXXZ PROC			; `dynamic initializer for 'RMSG_OPENSCREEN'', COMDAT

; 20   : const UINT RMSG_OPENSCREEN = ::RegisterWindowMessage(_T("RMSG_OPENSCREEN"));

  00000	68 00 00 00 00	 push	 OFFSET ??_C@_0BA@IGMGIDAO@RMSG_OPENSCREEN@
  00005	ff 15 00 00 00
	00		 call	 DWORD PTR __imp__RegisterWindowMessageA@4
  0000b	a3 00 00 00 00	 mov	 DWORD PTR ?RMSG_OPENSCREEN@@3IB, eax
  00010	c3		 ret	 0
??__ERMSG_OPENSCREEN@@YAXXZ ENDP			; `dynamic initializer for 'RMSG_OPENSCREEN''
text$di	ENDS
; Function compile flags: /Ogtp
; File C:\Program Files (x86)\Microsoft Visual Studio\2019\Community\VC\Tools\MSVC\14.29.30133\atlmfc\include\atlcomcli.h
;	COMDAT ??_Estringdispid@CComTypeInfoHolder@ATL@@QAEPAXI@Z
_TEXT	SEGMENT
__$EHRec$ = -12						; size = 12
___flags$ = 8						; size = 4
??_Estringdispid@CComTypeInfoHolder@ATL@@QAEPAXI@Z PROC	; ATL::CComTypeInfoHolder::stringdispid::`vector deleting destructor', COMDAT
; _this$ = ecx
  00000	55		 push	 ebp
  00001	8b ec		 mov	 ebp, esp
  00003	6a ff		 push	 -1
  00005	68 00 00 00 00	 push	 __ehhandler$??_Estringdispid@CComTypeInfoHolder@ATL@@QAEPAXI@Z
  0000a	64 a1 00 00 00
	00		 mov	 eax, DWORD PTR fs:0
  00010	50		 push	 eax
  00011	53		 push	 ebx
  00012	56		 push	 esi
  00013	57		 push	 edi
  00014	a1 00 00 00 00	 mov	 eax, DWORD PTR ___security_cookie
  00019	33 c5		 xor	 eax, ebp
  0001b	50		 push	 eax
  0001c	8d 45 f4	 lea	 eax, DWORD PTR __$EHRec$[ebp]
  0001f	64 a3 00 00 00
	00		 mov	 DWORD PTR fs:0, eax
  00025	8b f1		 mov	 esi, ecx
  00027	8b 45 08	 mov	 eax, DWORD PTR ___flags$[ebp]
  0002a	8b d8		 mov	 ebx, eax
  0002c	83 e3 01	 and	 ebx, 1
  0002f	a8 02		 test	 al, 2
  00031	74 43		 je	 SHORT $LN2@vector
  00033	68 00 00 00 00	 push	 OFFSET ??1stringdispid@CComTypeInfoHolder@ATL@@QAE@XZ
  00038	ff 76 fc	 push	 DWORD PTR [esi-4]
  0003b	8d 7e fc	 lea	 edi, DWORD PTR [esi-4]
  0003e	6a 0c		 push	 12			; 0000000cH
  00040	56		 push	 esi
  00041	e8 00 00 00 00	 call	 ??_M@YGXPAXIIP6EX0@Z@Z
  00046	85 db		 test	 ebx, ebx
  00048	74 16		 je	 SHORT $LN3@vector
  0004a	8b 0f		 mov	 ecx, DWORD PTR [edi]
  0004c	8d 0c 49	 lea	 ecx, DWORD PTR [ecx+ecx*2]
  0004f	8d 0c 8d 04 00
	00 00		 lea	 ecx, DWORD PTR [ecx*4+4]
  00056	51		 push	 ecx
  00057	57		 push	 edi
  00058	e8 00 00 00 00	 call	 ??_V@YAXPAXI@Z		; operator delete[]
  0005d	83 c4 08	 add	 esp, 8
$LN3@vector:
  00060	8b c7		 mov	 eax, edi
  00062	8b 4d f4	 mov	 ecx, DWORD PTR __$EHRec$[ebp]
  00065	64 89 0d 00 00
	00 00		 mov	 DWORD PTR fs:0, ecx
  0006c	59		 pop	 ecx
  0006d	5f		 pop	 edi
  0006e	5e		 pop	 esi
  0006f	5b		 pop	 ebx
  00070	8b e5		 mov	 esp, ebp
  00072	5d		 pop	 ebp
  00073	c2 04 00	 ret	 4
$LN2@vector:

; 1680 :     ::SysFreeString(m_str);

  00076	ff 36		 push	 DWORD PTR [esi]
  00078	ff 15 00 00 00
	00		 call	 DWORD PTR __imp__SysFreeString@4
  0007e	85 db		 test	 ebx, ebx
  00080	74 0b		 je	 SHORT $LN4@vector
  00082	6a 0c		 push	 12			; 0000000cH
  00084	56		 push	 esi
  00085	e8 00 00 00 00	 call	 ??3@YAXPAXI@Z		; operator delete
  0008a	83 c4 08	 add	 esp, 8
$LN4@vector:
  0008d	8b c6		 mov	 eax, esi
  0008f	8b 4d f4	 mov	 ecx, DWORD PTR __$EHRec$[ebp]
  00092	64 89 0d 00 00
	00 00		 mov	 DWORD PTR fs:0, ecx
  00099	59		 pop	 ecx
  0009a	5f		 pop	 edi
  0009b	5e		 pop	 esi
  0009c	5b		 pop	 ebx
  0009d	8b e5		 mov	 esp, ebp
  0009f	5d		 pop	 ebp
  000a0	c2 04 00	 ret	 4
  000a3	cc		 int	 3
  000a4	cc		 int	 3
  000a5	cc		 int	 3
  000a6	cc		 int	 3
  000a7	cc		 int	 3
_TEXT	ENDS
;	COMDAT text$x
text$x	SEGMENT
__ehhandler$??_Estringdispid@CComTypeInfoHolder@ATL@@QAEPAXI@Z:
  00000	90		 npad	 1
  00001	90		 npad	 1
  00002	8b 54 24 08	 mov	 edx, DWORD PTR [esp+8]
  00006	8d 42 0c	 lea	 eax, DWORD PTR [edx+12]
  00009	8b 4a f0	 mov	 ecx, DWORD PTR [edx-16]
  0000c	33 c8		 xor	 ecx, eax
  0000e	e8 00 00 00 00	 call	 @__security_check_cookie@4
  00013	b8 00 00 00 00	 mov	 eax, OFFSET __ehfuncinfo$??_Estringdispid@CComTypeInfoHolder@ATL@@QAEPAXI@Z
  00018	e9 00 00 00 00	 jmp	 ___CxxFrameHandler3
text$x	ENDS
??_Estringdispid@CComTypeInfoHolder@ATL@@QAEPAXI@Z ENDP	; ATL::CComTypeInfoHolder::stringdispid::`vector deleting destructor'
; Function compile flags: /Ogtp
; File C:\Program Files (x86)\Microsoft Visual Studio\2019\Community\VC\Tools\MSVC\14.29.30133\atlmfc\include\atlcomcli.h
;	COMDAT ??1stringdispid@CComTypeInfoHolder@ATL@@QAE@XZ
_TEXT	SEGMENT
??1stringdispid@CComTypeInfoHolder@ATL@@QAE@XZ PROC	; ATL::CComTypeInfoHolder::stringdispid::~stringdispid, COMDAT
; _this$ = ecx

; 1680 :     ::SysFreeString(m_str);

  00000	ff 31		 push	 DWORD PTR [ecx]
  00002	ff 15 00 00 00
	00		 call	 DWORD PTR __imp__SysFreeString@4
  00008	c3		 ret	 0
??1stringdispid@CComTypeInfoHolder@ATL@@QAE@XZ ENDP	; ATL::CComTypeInfoHolder::stringdispid::~stringdispid
_TEXT	ENDS
; Function compile flags: /Ogtp
; File D:\git\src\IBK\IBK_DRFN\ProjSrc\SrcDrfn\Chart\chart_common\ReplayChartInfoDef.h
;	COMDAT ??__ERMSG_REPLAY_TOTAL_SEC@@YAXXZ
text$di	SEGMENT
??__ERMSG_REPLAY_TOTAL_SEC@@YAXXZ PROC			; `dynamic initializer for 'RMSG_REPLAY_TOTAL_SEC'', COMDAT

; 97   : 	const UINT RMSG_REPLAY_TOTAL_SEC = ::RegisterWindowMessage(_T("RMSG_REPLAY_TOTAL_SEC"));		// 전체 시간(초단위)를 전송

  00000	68 00 00 00 00	 push	 OFFSET ??_C@_0BG@GIAJEIJF@RMSG_REPLAY_TOTAL_SEC@
  00005	ff 15 00 00 00
	00		 call	 DWORD PTR __imp__RegisterWindowMessageA@4
  0000b	a3 00 00 00 00	 mov	 DWORD PTR ?RMSG_REPLAY_TOTAL_SEC@@3IB, eax
  00010	c3		 ret	 0
??__ERMSG_REPLAY_TOTAL_SEC@@YAXXZ ENDP			; `dynamic initializer for 'RMSG_REPLAY_TOTAL_SEC''
text$di	ENDS
; Function compile flags: /Ogtp
; File D:\git\src\IBK\IBK_DRFN\ProjSrc\SrcDrfn\Chart\chart_common\ReplayChartInfoDef.h
;	COMDAT ??__ERMSG_REPLAY_INC_SEC@@YAXXZ
text$di	SEGMENT
??__ERMSG_REPLAY_INC_SEC@@YAXXZ PROC			; `dynamic initializer for 'RMSG_REPLAY_INC_SEC'', COMDAT

; 96   : 	const UINT RMSG_REPLAY_INC_SEC = ::RegisterWindowMessage(_T("RMSG_REPLAY_INC_SEC"));			// 1초가 증가 될때마다 전송

  00000	68 00 00 00 00	 push	 OFFSET ??_C@_0BE@JFCIMCIP@RMSG_REPLAY_INC_SEC@
  00005	ff 15 00 00 00
	00		 call	 DWORD PTR __imp__RegisterWindowMessageA@4
  0000b	a3 00 00 00 00	 mov	 DWORD PTR ?RMSG_REPLAY_INC_SEC@@3IB, eax
  00010	c3		 ret	 0
??__ERMSG_REPLAY_INC_SEC@@YAXXZ ENDP			; `dynamic initializer for 'RMSG_REPLAY_INC_SEC''
text$di	ENDS
; Function compile flags: /Ogtp
; File D:\git\src\IBK\IBK_DRFN\ProjSrc\SrcDrfn\Chart\chart_common\ReplayChartInfoDef.h
;	COMDAT ??__ERMSG_REPLAY_END@@YAXXZ
text$di	SEGMENT
??__ERMSG_REPLAY_END@@YAXXZ PROC			; `dynamic initializer for 'RMSG_REPLAY_END'', COMDAT

; 95   : 	const UINT RMSG_REPLAY_END			= ::RegisterWindowMessage(_T("RMSG_REPLAY_END"));

  00000	68 00 00 00 00	 push	 OFFSET ??_C@_0BA@NKHHCPON@RMSG_REPLAY_END@
  00005	ff 15 00 00 00
	00		 call	 DWORD PTR __imp__RegisterWindowMessageA@4
  0000b	a3 00 00 00 00	 mov	 DWORD PTR ?RMSG_REPLAY_END@@3IB, eax
  00010	c3		 ret	 0
??__ERMSG_REPLAY_END@@YAXXZ ENDP			; `dynamic initializer for 'RMSG_REPLAY_END''
text$di	ENDS
; Function compile flags: /Ogtp
; File D:\git\src\IBK\IBK_DRFN\ProjSrc\SrcDrfn\Chart\chart_common\ReplayChartInfoDef.h
;	COMDAT ??__ERMSG_REPLAY_CHANGE_DATE@@YAXXZ
text$di	SEGMENT
??__ERMSG_REPLAY_CHANGE_DATE@@YAXXZ PROC		; `dynamic initializer for 'RMSG_REPLAY_CHANGE_DATE'', COMDAT

; 94   : 	const UINT RMSG_REPLAY_CHANGE_DATE	= ::RegisterWindowMessage(_T("RMSG_REPLAY_CHANGE_DATE"));

  00000	68 00 00 00 00	 push	 OFFSET ??_C@_0BI@KDGAIIMD@RMSG_REPLAY_CHANGE_DATE@
  00005	ff 15 00 00 00
	00		 call	 DWORD PTR __imp__RegisterWindowMessageA@4
  0000b	a3 00 00 00 00	 mov	 DWORD PTR ?RMSG_REPLAY_CHANGE_DATE@@3IB, eax
  00010	c3		 ret	 0
??__ERMSG_REPLAY_CHANGE_DATE@@YAXXZ ENDP		; `dynamic initializer for 'RMSG_REPLAY_CHANGE_DATE''
text$di	ENDS
; Function compile flags: /Ogtp
; File D:\git\src\IBK\IBK_DRFN\ProjSrc\SrcDrfn\Chart\chart_common\ReplayChartInfoDef.h
;	COMDAT ??__ERMSG_REPLAY_FAIL@@YAXXZ
text$di	SEGMENT
??__ERMSG_REPLAY_FAIL@@YAXXZ PROC			; `dynamic initializer for 'RMSG_REPLAY_FAIL'', COMDAT

; 93   : 	const UINT RMSG_REPLAY_FAIL			= ::RegisterWindowMessage(_T("RMSG_REPLAY_FAIL"));

  00000	68 00 00 00 00	 push	 OFFSET ??_C@_0BB@JFLGBADG@RMSG_REPLAY_FAIL@
  00005	ff 15 00 00 00
	00		 call	 DWORD PTR __imp__RegisterWindowMessageA@4
  0000b	a3 00 00 00 00	 mov	 DWORD PTR ?RMSG_REPLAY_FAIL@@3IB, eax
  00010	c3		 ret	 0
??__ERMSG_REPLAY_FAIL@@YAXXZ ENDP			; `dynamic initializer for 'RMSG_REPLAY_FAIL''
text$di	ENDS
; Function compile flags: /Ogtp
; File D:\git\src\IBK\IBK_DRFN\ProjSrc\SrcDrfn\Chart\chart_common\ReplayChartInfoDef.h
;	COMDAT ??__ERMSG_REPLAY_REAL@@YAXXZ
text$di	SEGMENT
??__ERMSG_REPLAY_REAL@@YAXXZ PROC			; `dynamic initializer for 'RMSG_REPLAY_REAL'', COMDAT

; 92   : 	const UINT RMSG_REPLAY_REAL			= ::RegisterWindowMessage(_T("RMSG_REPLAY_REAL"));

  00000	68 00 00 00 00	 push	 OFFSET ??_C@_0BB@IBKHOHJL@RMSG_REPLAY_REAL@
  00005	ff 15 00 00 00
	00		 call	 DWORD PTR __imp__RegisterWindowMessageA@4
  0000b	a3 00 00 00 00	 mov	 DWORD PTR ?RMSG_REPLAY_REAL@@3IB, eax
  00010	c3		 ret	 0
??__ERMSG_REPLAY_REAL@@YAXXZ ENDP			; `dynamic initializer for 'RMSG_REPLAY_REAL''
text$di	ENDS
; Function compile flags: /Ogtp
; File D:\git\src\IBK\IBK_DRFN\ProjSrc\SrcDrfn\Chart\MULTICHART\define\ChartMsgDef.h
;	COMDAT ??__ERMSG_SETINFO@@YAXXZ
text$di	SEGMENT
??__ERMSG_SETINFO@@YAXXZ PROC				; `dynamic initializer for 'RMSG_SETINFO'', COMDAT

; 238  : const UINT RMSG_SETINFO = ::RegisterWindowMessage(_T("RMSG_SETINFO"));

  00000	68 00 00 00 00	 push	 OFFSET ??_C@_0N@HABLPHJG@RMSG_SETINFO@
  00005	ff 15 00 00 00
	00		 call	 DWORD PTR __imp__RegisterWindowMessageA@4
  0000b	a3 00 00 00 00	 mov	 DWORD PTR ?RMSG_SETINFO@@3IB, eax
  00010	c3		 ret	 0
??__ERMSG_SETINFO@@YAXXZ ENDP				; `dynamic initializer for 'RMSG_SETINFO''
text$di	ENDS
; Function compile flags: /Ogtp
; File D:\git\src\IBK\IBK_DRFN\ProjSrc\SrcDrfn\Chart\MULTICHART\define\ChartMsgDef.h
;	COMDAT ??__ERMSG_GETINFO@@YAXXZ
text$di	SEGMENT
??__ERMSG_GETINFO@@YAXXZ PROC				; `dynamic initializer for 'RMSG_GETINFO'', COMDAT

; 237  : const UINT RMSG_GETINFO = ::RegisterWindowMessage(_T("RMSG_GETINFO"));

  00000	68 00 00 00 00	 push	 OFFSET ??_C@_0N@IIOKMIEH@RMSG_GETINFO@
  00005	ff 15 00 00 00
	00		 call	 DWORD PTR __imp__RegisterWindowMessageA@4
  0000b	a3 00 00 00 00	 mov	 DWORD PTR ?RMSG_GETINFO@@3IB, eax
  00010	c3		 ret	 0
??__ERMSG_GETINFO@@YAXXZ ENDP				; `dynamic initializer for 'RMSG_GETINFO''
text$di	ENDS
; Function compile flags: /Ogtp
; File D:\git\src\IBK\IBK_DRFN\ProjSrc\SrcDrfn\Chart\MULTICHART\define\ChartMsgDef.h
;	COMDAT ??__ERMSG_SETINITIALCHARTDATA@@YAXXZ
text$di	SEGMENT
??__ERMSG_SETINITIALCHARTDATA@@YAXXZ PROC		; `dynamic initializer for 'RMSG_SETINITIALCHARTDATA'', COMDAT

; 235  : const UINT RMSG_SETINITIALCHARTDATA = ::RegisterWindowMessage(_T("RMSG_SETINITIALCHARTDATA"));

  00000	68 00 00 00 00	 push	 OFFSET ??_C@_0BJ@OGNAJHHI@RMSG_SETINITIALCHARTDATA@
  00005	ff 15 00 00 00
	00		 call	 DWORD PTR __imp__RegisterWindowMessageA@4
  0000b	a3 00 00 00 00	 mov	 DWORD PTR ?RMSG_SETINITIALCHARTDATA@@3IB, eax
  00010	c3		 ret	 0
??__ERMSG_SETINITIALCHARTDATA@@YAXXZ ENDP		; `dynamic initializer for 'RMSG_SETINITIALCHARTDATA''
text$di	ENDS
; Function compile flags: /Ogtp
; File D:\git\src\IBK\IBK_DRFN\ProjSrc\SrcDrfn\Chart\MULTICHART\define\ChartMsgDef.h
;	COMDAT ??__ERMSG_ADD_PLATFORM_MENU@@YAXXZ
text$di	SEGMENT
??__ERMSG_ADD_PLATFORM_MENU@@YAXXZ PROC			; `dynamic initializer for 'RMSG_ADD_PLATFORM_MENU'', COMDAT

; 233  : const UINT RMSG_ADD_PLATFORM_MENU = ::RegisterWindowMessage(_T("RMSG_ADD_PLATFORM_MENU"));

  00000	68 00 00 00 00	 push	 OFFSET ??_C@_0BH@IFDMIMBP@RMSG_ADD_PLATFORM_MENU@
  00005	ff 15 00 00 00
	00		 call	 DWORD PTR __imp__RegisterWindowMessageA@4
  0000b	a3 00 00 00 00	 mov	 DWORD PTR ?RMSG_ADD_PLATFORM_MENU@@3IB, eax
  00010	c3		 ret	 0
??__ERMSG_ADD_PLATFORM_MENU@@YAXXZ ENDP			; `dynamic initializer for 'RMSG_ADD_PLATFORM_MENU''
text$di	ENDS
; Function compile flags: /Ogtp
; File D:\git\src\IBK\IBK_DRFN\ProjSrc\SrcDrfn\Chart\MULTICHART\define\ChartMsgDef.h
;	COMDAT ??__ERMSG_CHANGE_CROSSLINE@@YAXXZ
text$di	SEGMENT
??__ERMSG_CHANGE_CROSSLINE@@YAXXZ PROC			; `dynamic initializer for 'RMSG_CHANGE_CROSSLINE'', COMDAT

; 231  : const UINT RMSG_CHANGE_CROSSLINE = ::RegisterWindowMessage(_T("RMSG_CHANGE_CROSSLINE"));

  00000	68 00 00 00 00	 push	 OFFSET ??_C@_0BG@LNLCJKPF@RMSG_CHANGE_CROSSLINE@
  00005	ff 15 00 00 00
	00		 call	 DWORD PTR __imp__RegisterWindowMessageA@4
  0000b	a3 00 00 00 00	 mov	 DWORD PTR ?RMSG_CHANGE_CROSSLINE@@3IB, eax
  00010	c3		 ret	 0
??__ERMSG_CHANGE_CROSSLINE@@YAXXZ ENDP			; `dynamic initializer for 'RMSG_CHANGE_CROSSLINE''
text$di	ENDS
; Function compile flags: /Ogtp
; File D:\git\src\IBK\IBK_DRFN\ProjSrc\SrcDrfn\Chart\MULTICHART\define\ChartMsgDef.h
;	COMDAT ??__ERMSG_CHANGEVERTSCALETYPE@@YAXXZ
text$di	SEGMENT
??__ERMSG_CHANGEVERTSCALETYPE@@YAXXZ PROC		; `dynamic initializer for 'RMSG_CHANGEVERTSCALETYPE'', COMDAT

; 229  : const UINT RMSG_CHANGEVERTSCALETYPE = ::RegisterWindowMessage(_T("RMSG_CHANGEVERTSCALETYPE"));

  00000	68 00 00 00 00	 push	 OFFSET ??_C@_0BJ@JLKHIBIK@RMSG_CHANGEVERTSCALETYPE@
  00005	ff 15 00 00 00
	00		 call	 DWORD PTR __imp__RegisterWindowMessageA@4
  0000b	a3 00 00 00 00	 mov	 DWORD PTR ?RMSG_CHANGEVERTSCALETYPE@@3IB, eax
  00010	c3		 ret	 0
??__ERMSG_CHANGEVERTSCALETYPE@@YAXXZ ENDP		; `dynamic initializer for 'RMSG_CHANGEVERTSCALETYPE''
text$di	ENDS
; Function compile flags: /Ogtp
; File D:\git\src\IBK\IBK_DRFN\ProjSrc\SrcDrfn\Chart\MULTICHART\define\ChartMsgDef.h
;	COMDAT ??__ERMSG_GET_SKINCOLOR@@YAXXZ
text$di	SEGMENT
??__ERMSG_GET_SKINCOLOR@@YAXXZ PROC			; `dynamic initializer for 'RMSG_GET_SKINCOLOR'', COMDAT

; 226  : const UINT RMSG_GET_SKINCOLOR = ::RegisterWindowMessage(_T("RMSG_GET_SKINCOLOR"));

  00000	68 00 00 00 00	 push	 OFFSET ??_C@_0BD@FLDNDDHK@RMSG_GET_SKINCOLOR@
  00005	ff 15 00 00 00
	00		 call	 DWORD PTR __imp__RegisterWindowMessageA@4
  0000b	a3 00 00 00 00	 mov	 DWORD PTR ?RMSG_GET_SKINCOLOR@@3IB, eax
  00010	c3		 ret	 0
??__ERMSG_GET_SKINCOLOR@@YAXXZ ENDP			; `dynamic initializer for 'RMSG_GET_SKINCOLOR''
text$di	ENDS
; Function compile flags: /Ogtp
; File D:\git\src\IBK\IBK_DRFN\ProjSrc\SrcDrfn\Chart\MULTICHART\define\ChartMsgDef.h
;	COMDAT ??__ERMSG_CHANGE_SKINCOLOR@@YAXXZ
text$di	SEGMENT
??__ERMSG_CHANGE_SKINCOLOR@@YAXXZ PROC			; `dynamic initializer for 'RMSG_CHANGE_SKINCOLOR'', COMDAT

; 225  : const UINT RMSG_CHANGE_SKINCOLOR = ::RegisterWindowMessage(_T("RMSG_CHANGE_SKINCOLOR"));

  00000	68 00 00 00 00	 push	 OFFSET ??_C@_0BG@CNPAHNGG@RMSG_CHANGE_SKINCOLOR@
  00005	ff 15 00 00 00
	00		 call	 DWORD PTR __imp__RegisterWindowMessageA@4
  0000b	a3 00 00 00 00	 mov	 DWORD PTR ?RMSG_CHANGE_SKINCOLOR@@3IB, eax
  00010	c3		 ret	 0
??__ERMSG_CHANGE_SKINCOLOR@@YAXXZ ENDP			; `dynamic initializer for 'RMSG_CHANGE_SKINCOLOR''
text$di	ENDS
; Function compile flags: /Ogtp
; File D:\git\src\IBK\IBK_DRFN\ProjSrc\SrcDrfn\Chart\MULTICHART\define\ChartMsgDef.h
;	COMDAT ??__ERMSG_GET_USERID@@YAXXZ
text$di	SEGMENT
??__ERMSG_GET_USERID@@YAXXZ PROC			; `dynamic initializer for 'RMSG_GET_USERID'', COMDAT

; 215  : const UINT RMSG_GET_USERID = ::RegisterWindowMessage(_T("RMSG_GET_USERID"));	// User ID 얻기

  00000	68 00 00 00 00	 push	 OFFSET ??_C@_0BA@HKNFENJL@RMSG_GET_USERID@
  00005	ff 15 00 00 00
	00		 call	 DWORD PTR __imp__RegisterWindowMessageA@4
  0000b	a3 00 00 00 00	 mov	 DWORD PTR ?RMSG_GET_USERID@@3IB, eax
  00010	c3		 ret	 0
??__ERMSG_GET_USERID@@YAXXZ ENDP			; `dynamic initializer for 'RMSG_GET_USERID''
text$di	ENDS
; Function compile flags: /Ogtp
; File D:\git\src\IBK\IBK_DRFN\ProjSrc\SrcDrfn\Chart\MULTICHART\define\ChartMsgDef.h
;	COMDAT ??__ERMS_ANALYSIS_FUNC@@YAXXZ
text$di	SEGMENT
??__ERMS_ANALYSIS_FUNC@@YAXXZ PROC			; `dynamic initializer for 'RMS_ANALYSIS_FUNC'', COMDAT

; 211  : const UINT RMS_ANALYSIS_FUNC	= ::RegisterWindowMessage(_T("RMS_ANALYSIS_FUNC"));

  00000	68 00 00 00 00	 push	 OFFSET ??_C@_0BC@MMPGLPDH@RMS_ANALYSIS_FUNC@
  00005	ff 15 00 00 00
	00		 call	 DWORD PTR __imp__RegisterWindowMessageA@4
  0000b	a3 00 00 00 00	 mov	 DWORD PTR ?RMS_ANALYSIS_FUNC@@3IB, eax
  00010	c3		 ret	 0
??__ERMS_ANALYSIS_FUNC@@YAXXZ ENDP			; `dynamic initializer for 'RMS_ANALYSIS_FUNC''
text$di	ENDS
; Function compile flags: /Ogtp
; File D:\git\src\IBK\IBK_DRFN\ProjSrc\SrcDrfn\Chart\MULTICHART\define\ChartMsgDef.h
;	COMDAT ??__ERMSG_CHARTMAIN@@YAXXZ
text$di	SEGMENT
??__ERMSG_CHARTMAIN@@YAXXZ PROC				; `dynamic initializer for 'RMSG_CHARTMAIN'', COMDAT

; 208  : const UINT RMSG_CHARTMAIN		= ::RegisterWindowMessage(_T("RMSG_CHARTMAIN"));

  00000	68 00 00 00 00	 push	 OFFSET ??_C@_0P@KHFCBIOH@RMSG_CHARTMAIN@
  00005	ff 15 00 00 00
	00		 call	 DWORD PTR __imp__RegisterWindowMessageA@4
  0000b	a3 00 00 00 00	 mov	 DWORD PTR ?RMSG_CHARTMAIN@@3IB, eax
  00010	c3		 ret	 0
??__ERMSG_CHARTMAIN@@YAXXZ ENDP				; `dynamic initializer for 'RMSG_CHARTMAIN''
text$di	ENDS
; Function compile flags: /Ogtp
; File D:\git\src\IBK\IBK_DRFN\ProjSrc\SrcDrfn\Chart\MULTICHART\define\ChartMsgDef.h
;	COMDAT ??__ERMSG_SETQUERYOPT@@YAXXZ
text$di	SEGMENT
??__ERMSG_SETQUERYOPT@@YAXXZ PROC			; `dynamic initializer for 'RMSG_SETQUERYOPT'', COMDAT

; 183  : const UINT RMSG_SETQUERYOPT = ::RegisterWindowMessage(_T("RMSG_SETQUERYOPT"));

  00000	68 00 00 00 00	 push	 OFFSET ??_C@_0BB@CNOFPEHG@RMSG_SETQUERYOPT@
  00005	ff 15 00 00 00
	00		 call	 DWORD PTR __imp__RegisterWindowMessageA@4
  0000b	a3 00 00 00 00	 mov	 DWORD PTR ?RMSG_SETQUERYOPT@@3IB, eax
  00010	c3		 ret	 0
??__ERMSG_SETQUERYOPT@@YAXXZ ENDP			; `dynamic initializer for 'RMSG_SETQUERYOPT''
text$di	ENDS
; Function compile flags: /Ogtp
; File D:\git\src\IBK\IBK_DRFN\ProjSrc\SrcDrfn\Chart\commontr\TRDefine.h
;	COMDAT ??__ERMSG_GETSIGNAL_REAL@@YAXXZ
text$di	SEGMENT
??__ERMSG_GETSIGNAL_REAL@@YAXXZ PROC			; `dynamic initializer for 'RMSG_GETSIGNAL_REAL'', COMDAT

; 213  : const UINT RMSG_GETSIGNAL_REAL = ::RegisterWindowMessage(_T("RMSG_GETSIGNAL_REAL"));

  00000	68 00 00 00 00	 push	 OFFSET ??_C@_0BE@FJPKENOB@RMSG_GETSIGNAL_REAL@
  00005	ff 15 00 00 00
	00		 call	 DWORD PTR __imp__RegisterWindowMessageA@4
  0000b	a3 00 00 00 00	 mov	 DWORD PTR ?RMSG_GETSIGNAL_REAL@@3IB, eax
  00010	c3		 ret	 0
??__ERMSG_GETSIGNAL_REAL@@YAXXZ ENDP			; `dynamic initializer for 'RMSG_GETSIGNAL_REAL''
text$di	ENDS
; Function compile flags: /Ogtp
; File D:\git\src\IBK\IBK_DRFN\ProjSrc\SrcDrfn\Chart\MULTICHART\XTabCtrl.cpp
; File C:\Program Files (x86)\Microsoft Visual Studio\2019\Community\VC\Tools\MSVC\14.29.30133\atlmfc\include\afx.inl
;	COMDAT ??_GCXTabCtrl@@UAEPAXI@Z
_TEXT	SEGMENT
___flags$ = 8						; size = 4
??_GCXTabCtrl@@UAEPAXI@Z PROC				; CXTabCtrl::`scalar deleting destructor', COMDAT
; _this$ = ecx
  00000	55		 push	 ebp
  00001	8b ec		 mov	 ebp, esp
; File D:\git\src\IBK\IBK_DRFN\ProjSrc\SrcDrfn\Chart\MULTICHART\XTabCtrl.cpp

; 43   : {

  00003	56		 push	 esi
  00004	8b f1		 mov	 esi, ecx

; 44   : 	
; 45   : }

  00006	8d 8e 8c 00 00
	00		 lea	 ecx, DWORD PTR [esi+140]
  0000c	c7 06 00 00 00
	00		 mov	 DWORD PTR [esi], OFFSET ??_7CXTabCtrl@@6B@
  00012	e8 00 00 00 00	 call	 ??1CTabDlgCreator@@UAE@XZ ; CTabDlgCreator::~CTabDlgCreator
  00017	8b ce		 mov	 ecx, esi
  00019	e8 00 00 00 00	 call	 ??1CExTabCtrl@@UAE@XZ	; CExTabCtrl::~CExTabCtrl
  0001e	8b 45 08	 mov	 eax, DWORD PTR ___flags$[ebp]
  00021	a8 01		 test	 al, 1
  00023	74 22		 je	 SHORT $LN12@scalar
  00025	a8 04		 test	 al, 4
  00027	75 10		 jne	 SHORT $LN3@scalar
; File C:\Program Files (x86)\Microsoft Visual Studio\2019\Community\VC\Tools\MSVC\14.29.30133\atlmfc\include\afx.inl

; 112  : 	{ ::operator delete(p); }

  00029	56		 push	 esi
  0002a	e8 00 00 00 00	 call	 ??3@YAXPAX@Z		; operator delete
  0002f	83 c4 04	 add	 esp, 4
  00032	8b c6		 mov	 eax, esi
  00034	5e		 pop	 esi
  00035	5d		 pop	 ebp
  00036	c2 04 00	 ret	 4
$LN3@scalar:
  00039	68 e8 00 00 00	 push	 232			; 000000e8H
  0003e	56		 push	 esi
  0003f	e8 00 00 00 00	 call	 ?__global_delete@@YAXPAXI@Z ; __global_delete
  00044	83 c4 08	 add	 esp, 8
$LN12@scalar:
  00047	8b c6		 mov	 eax, esi
  00049	5e		 pop	 esi
  0004a	5d		 pop	 ebp
  0004b	c2 04 00	 ret	 4
??_GCXTabCtrl@@UAEPAXI@Z ENDP				; CXTabCtrl::`scalar deleting destructor'
_TEXT	ENDS
; Function compile flags: /Ogtp
; File D:\git\src\IBK\IBK_DRFN\ProjSrc\SrcDrfn\Chart\MULTICHART\XTabCtrl.cpp
;	COMDAT ?GetMessageMap@CXTabCtrl@@MBEPBUAFX_MSGMAP@@XZ
_TEXT	SEGMENT
?GetMessageMap@CXTabCtrl@@MBEPBUAFX_MSGMAP@@XZ PROC	; CXTabCtrl::GetMessageMap, COMDAT
; _this$ = ecx

; 48   : BEGIN_MESSAGE_MAP(CXTabCtrl, CExTabCtrl)

  00000	b8 00 00 00 00	 mov	 eax, OFFSET ?messageMap@?1??GetThisMessageMap@CXTabCtrl@@KGPBUAFX_MSGMAP@@XZ@4U3@B
  00005	c3		 ret	 0
?GetMessageMap@CXTabCtrl@@MBEPBUAFX_MSGMAP@@XZ ENDP	; CXTabCtrl::GetMessageMap
_TEXT	ENDS
; Function compile flags: /Ogtp
; File D:\git\src\IBK\IBK_DRFN\ProjSrc\SrcDrfn\Chart\MULTICHART\XTabCtrl.cpp
;	COMDAT ?GetThisMessageMap@CXTabCtrl@@KGPBUAFX_MSGMAP@@XZ
_TEXT	SEGMENT
?GetThisMessageMap@CXTabCtrl@@KGPBUAFX_MSGMAP@@XZ PROC	; CXTabCtrl::GetThisMessageMap, COMDAT

; 49   : 	//{{AFX_MSG_MAP(CXTabCtrl)
; 50   : 	ON_NOTIFY_REFLECT(TCN_SELCHANGE, OnSelchange)
; 51   : 	ON_NOTIFY_REFLECT(TCN_SELCHANGING, OnSelchanging)
; 52   : 	ON_WM_SIZE()
; 53   : 	ON_WM_DESTROY()
; 54   : 	//}}AFX_MSG_MAP
; 55   : END_MESSAGE_MAP()

  00000	b8 00 00 00 00	 mov	 eax, OFFSET ?messageMap@?1??GetThisMessageMap@CXTabCtrl@@KGPBUAFX_MSGMAP@@XZ@4U3@B
  00005	c3		 ret	 0
?GetThisMessageMap@CXTabCtrl@@KGPBUAFX_MSGMAP@@XZ ENDP	; CXTabCtrl::GetThisMessageMap
_TEXT	ENDS
; Function compile flags: /Ogtp
; File D:\git\src\IBK\IBK_DRFN\ProjSrc\SrcDrfn\Chart\MULTICHART\XTabCtrl.cpp
;	COMDAT ?OnDestroy@CXTabCtrl@@IAEXXZ
_TEXT	SEGMENT
?OnDestroy@CXTabCtrl@@IAEXXZ PROC			; CXTabCtrl::OnDestroy, COMDAT
; _this$ = ecx

; 496  : {

  00000	56		 push	 esi
  00001	8b f1		 mov	 esi, ecx

; 203  : 	if(m_pTabDlgFocused)

  00003	8b 8e d8 00 00
	00		 mov	 ecx, DWORD PTR [esi+216]
  00009	85 c9		 test	 ecx, ecx
  0000b	74 26		 je	 SHORT $LN14@OnDestroy

; 204  : 	{
; 205  : 		if( m_pTabDlgFocused->GetSafeHwnd() )

  0000d	83 79 20 00	 cmp	 DWORD PTR [ecx+32], 0
  00011	74 0f		 je	 SHORT $LN28@OnDestroy

; 206  : 			m_pTabDlgFocused->DestroyWindow();		

  00013	8b 01		 mov	 eax, DWORD PTR [ecx]
  00015	ff 50 68	 call	 DWORD PTR [eax+104]
  00018	8b 8e d8 00 00
	00		 mov	 ecx, DWORD PTR [esi+216]

; 207  : 		delete m_pTabDlgFocused;

  0001e	85 c9		 test	 ecx, ecx
  00020	74 07		 je	 SHORT $LN17@OnDestroy
$LN28@OnDestroy:
  00022	8b 01		 mov	 eax, DWORD PTR [ecx]
  00024	6a 01		 push	 1
  00026	ff 50 04	 call	 DWORD PTR [eax+4]
$LN17@OnDestroy:

; 208  : 		m_pTabDlgFocused = NULL;	

  00029	c7 86 d8 00 00
	00 00 00 00 00	 mov	 DWORD PTR [esi+216], 0
$LN14@OnDestroy:

; 497  : 	DeleteCurrentDlg();
; 498  : 	if(m_pTabDlgCodeSearch)

  00033	8b 8e dc 00 00
	00		 mov	 ecx, DWORD PTR [esi+220]
  00039	85 c9		 test	 ecx, ecx
  0003b	74 26		 je	 SHORT $LN2@OnDestroy

; 499  : 	{
; 500  : 		if( m_pTabDlgCodeSearch->GetSafeHwnd() )

  0003d	83 79 20 00	 cmp	 DWORD PTR [ecx+32], 0
  00041	74 0f		 je	 SHORT $LN27@OnDestroy

; 501  : 			m_pTabDlgCodeSearch->DestroyWindow();

  00043	8b 01		 mov	 eax, DWORD PTR [ecx]
  00045	ff 50 68	 call	 DWORD PTR [eax+104]
  00048	8b 8e dc 00 00
	00		 mov	 ecx, DWORD PTR [esi+220]

; 502  : 		delete m_pTabDlgCodeSearch;

  0004e	85 c9		 test	 ecx, ecx
  00050	74 07		 je	 SHORT $LN7@OnDestroy
$LN27@OnDestroy:
  00052	8b 01		 mov	 eax, DWORD PTR [ecx]
  00054	6a 01		 push	 1
  00056	ff 50 04	 call	 DWORD PTR [eax+4]
$LN7@OnDestroy:

; 503  : 		m_pTabDlgCodeSearch = NULL;

  00059	c7 86 dc 00 00
	00 00 00 00 00	 mov	 DWORD PTR [esi+220], 0
$LN2@OnDestroy:

; 504  : 	}
; 505  : 
; 506  : 	//@@@@@06.11.20[[
; 507  : 	if(m_pTabDlgSystemTabEx)

  00063	8b 8e e0 00 00
	00		 mov	 ecx, DWORD PTR [esi+224]
  00069	85 c9		 test	 ecx, ecx
  0006b	74 20		 je	 SHORT $LN4@OnDestroy

; 508  : 	{
; 509  : 		m_pTabDlgSystemTabEx->DestroyWindow();

  0006d	8b 01		 mov	 eax, DWORD PTR [ecx]
  0006f	ff 50 68	 call	 DWORD PTR [eax+104]

; 510  : 		delete m_pTabDlgSystemTabEx;

  00072	8b 8e e0 00 00
	00		 mov	 ecx, DWORD PTR [esi+224]
  00078	85 c9		 test	 ecx, ecx
  0007a	74 07		 je	 SHORT $LN9@OnDestroy
  0007c	8b 01		 mov	 eax, DWORD PTR [ecx]
  0007e	6a 01		 push	 1
  00080	ff 50 04	 call	 DWORD PTR [eax+4]
$LN9@OnDestroy:

; 511  : 		m_pTabDlgSystemTabEx = NULL;

  00083	c7 86 e0 00 00
	00 00 00 00 00	 mov	 DWORD PTR [esi+224], 0
$LN4@OnDestroy:

; 512  : 	}
; 513  : 	//@@@@@06.11.20]]
; 514  : 
; 515  : 	//@@@@@06.12.07[[
; 516  : 	if(m_pTabIndices)

  0008d	8b 8e e4 00 00
	00		 mov	 ecx, DWORD PTR [esi+228]
  00093	85 c9		 test	 ecx, ecx
  00095	74 20		 je	 SHORT $LN5@OnDestroy

; 517  : 	{
; 518  : 		m_pTabIndices->DestroyWindow();

  00097	8b 01		 mov	 eax, DWORD PTR [ecx]
  00099	ff 50 68	 call	 DWORD PTR [eax+104]

; 519  : 		delete m_pTabIndices;

  0009c	8b 8e e4 00 00
	00		 mov	 ecx, DWORD PTR [esi+228]
  000a2	85 c9		 test	 ecx, ecx
  000a4	74 07		 je	 SHORT $LN11@OnDestroy
  000a6	8b 01		 mov	 eax, DWORD PTR [ecx]
  000a8	6a 01		 push	 1
  000aa	ff 50 04	 call	 DWORD PTR [eax+4]
$LN11@OnDestroy:

; 520  : 		m_pTabIndices = NULL;

  000ad	c7 86 e4 00 00
	00 00 00 00 00	 mov	 DWORD PTR [esi+228], 0
$LN5@OnDestroy:

; 521  : 	}
; 522  : 	//@@@@@06.12.07]]
; 523  : 	CExTabCtrl::OnDestroy();

  000b7	8b ce		 mov	 ecx, esi
  000b9	5e		 pop	 esi
  000ba	e9 00 00 00 00	 jmp	 ?OnDestroy@CTabCtrl@@IAEXXZ ; CTabCtrl::OnDestroy
?OnDestroy@CXTabCtrl@@IAEXXZ ENDP			; CXTabCtrl::OnDestroy
_TEXT	ENDS
; Function compile flags: /Ogtp
; File D:\git\src\IBK\IBK_DRFN\ProjSrc\SrcDrfn\Chart\MULTICHART\XTabCtrl.cpp
; File C:\Program Files (x86)\Microsoft Visual Studio\2019\Community\VC\Tools\MSVC\14.29.30133\atlmfc\include\afxcmn.inl
; File D:\git\src\IBK\IBK_DRFN\ProjSrc\SrcDrfn\Chart\MULTICHART\XTabCtrl.cpp
; File C:\Program Files (x86)\Microsoft Visual Studio\2019\Community\VC\Tools\MSVC\14.29.30133\atlmfc\include\afxcmn.inl
; File D:\git\src\IBK\IBK_DRFN\ProjSrc\SrcDrfn\Chart\MULTICHART\XTabCtrl.cpp
; File D:\git\src\IBK\IBK_DRFN\ProjSrc\SrcDrfn\Chart\MULTICHART\XTabCtrl.h
; File D:\git\src\IBK\IBK_DRFN\ProjSrc\SrcDrfn\Chart\MULTICHART\XTabCtrl.cpp
;	COMDAT ?OnSize@CXTabCtrl@@IAEXIHH@Z
_TEXT	SEGMENT
_x$1$ = -28						; size = 4
_this$GSCopy$1$ = -24					; size = 4
_rect$1 = -20						; size = 16
__$ArrayPad$ = -4					; size = 4
_nType$ = 8						; size = 4
_cx$ = 12						; size = 4
_cy$ = 16						; size = 4
?OnSize@CXTabCtrl@@IAEXIHH@Z PROC			; CXTabCtrl::OnSize, COMDAT
; _this$ = ecx

; 443  : {

  00000	55		 push	 ebp
  00001	8b ec		 mov	 ebp, esp
  00003	83 ec 1c	 sub	 esp, 28			; 0000001cH
  00006	a1 00 00 00 00	 mov	 eax, DWORD PTR ___security_cookie
  0000b	33 c5		 xor	 eax, ebp
  0000d	89 45 fc	 mov	 DWORD PTR __$ArrayPad$[ebp], eax
  00010	53		 push	 ebx

; 444  : 	CExTabCtrl::OnSize(nType, cx, cy);

  00011	8b 5d 0c	 mov	 ebx, DWORD PTR _cx$[ebp]
  00014	56		 push	 esi
  00015	57		 push	 edi
  00016	8b 7d 10	 mov	 edi, DWORD PTR _cy$[ebp]
  00019	8b f1		 mov	 esi, ecx
  0001b	57		 push	 edi
  0001c	53		 push	 ebx
  0001d	ff 75 08	 push	 DWORD PTR _nType$[ebp]
  00020	89 75 e8	 mov	 DWORD PTR _this$GSCopy$1$[ebp], esi
  00023	e8 00 00 00 00	 call	 ?OnSize@CExTabCtrl@@IAEXIHH@Z ; CExTabCtrl::OnSize
; File C:\Program Files (x86)\Microsoft Visual Studio\2019\Community\VC\Tools\MSVC\14.29.30133\atlmfc\include\afxcmn.inl

; 600  : 	{ ASSERT(::IsWindow(m_hWnd)); return (int)::SendMessage(m_hWnd, TCM_GETROWCOUNT, 0, 0L); }

  00028	6a 00		 push	 0
  0002a	6a 00		 push	 0
  0002c	68 2c 13 00 00	 push	 4908			; 0000132cH
  00031	ff 76 20	 push	 DWORD PTR [esi+32]
  00034	8b 35 00 00 00
	00		 mov	 esi, DWORD PTR __imp__SendMessageA@16
  0003a	ff d6		 call	 esi
; File D:\git\src\IBK\IBK_DRFN\ProjSrc\SrcDrfn\Chart\MULTICHART\XTabCtrl.cpp

; 446  : 	m_nRowCnt = GetRowCount();

  0003c	8b 4d e8	 mov	 ecx, DWORD PTR _this$GSCopy$1$[ebp]
  0003f	89 81 d4 00 00
	00		 mov	 DWORD PTR [ecx+212], eax

; 447  : 
; 448  : 	int x = m_ptTabs.x;

  00045	8b 81 a8 00 00
	00		 mov	 eax, DWORD PTR [ecx+168]
  0004b	89 45 e4	 mov	 DWORD PTR _x$1$[ebp], eax
; File C:\Program Files (x86)\Microsoft Visual Studio\2019\Community\VC\Tools\MSVC\14.29.30133\atlmfc\include\afxcmn.inl

; 584  : 	{ ASSERT(::IsWindow(m_hWnd)); return (BOOL)::SendMessage(m_hWnd, TCM_GETITEMRECT, nItem, (LPARAM)lpRect); }

  0004e	8d 45 ec	 lea	 eax, DWORD PTR _rect$1[ebp]
  00051	50		 push	 eax
  00052	6a 00		 push	 0
  00054	68 0a 13 00 00	 push	 4874			; 0000130aH
  00059	ff 71 20	 push	 DWORD PTR [ecx+32]
  0005c	ff d6		 call	 esi
; File D:\git\src\IBK\IBK_DRFN\ProjSrc\SrcDrfn\Chart\MULTICHART\XTabCtrl.cpp

; 450  : 	int y = m_ptTabs.y+(m_nRowCnt-1)*GetTabHeight();

  0005e	8b 4d e8	 mov	 ecx, DWORD PTR _this$GSCopy$1$[ebp]
; File D:\git\src\IBK\IBK_DRFN\ProjSrc\SrcDrfn\Chart\MULTICHART\XTabCtrl.h

; 51   : 	long GetTabHeight() { RECT rect; GetItemRect(0,&rect); return(rect.bottom-rect.top);}

  00061	8b 75 f8	 mov	 esi, DWORD PTR _rect$1[ebp+12]
  00064	2b 75 f0	 sub	 esi, DWORD PTR _rect$1[ebp+4]
; File D:\git\src\IBK\IBK_DRFN\ProjSrc\SrcDrfn\Chart\MULTICHART\XTabCtrl.cpp

; 450  : 	int y = m_ptTabs.y+(m_nRowCnt-1)*GetTabHeight();

  00067	8b 91 d4 00 00
	00		 mov	 edx, DWORD PTR [ecx+212]
  0006d	8d 42 ff	 lea	 eax, DWORD PTR [edx-1]
  00070	0f af f0	 imul	 esi, eax
  00073	03 b1 ac 00 00
	00		 add	 esi, DWORD PTR [ecx+172]

; 451  : 	//2005. 05. 17 -------------------------------------------------------
; 452  : 	//전체 Row수가 2개 이상이 되면 화면이 보이는 위치를 조절한다.
; 453  : 	//--------------------------------------------------------------------
; 454  : 	if(m_nRowCnt == 3)

  00079	83 fa 03	 cmp	 edx, 3
  0007c	75 05		 jne	 SHORT $LN2@OnSize

; 455  : 		y += 8;

  0007e	83 c6 08	 add	 esi, 8
  00081	eb 05		 jmp	 SHORT $LN4@OnSize
$LN2@OnSize:

; 456  : 	else if(m_nRowCnt > 3)

  00083	7e 03		 jle	 SHORT $LN4@OnSize

; 457  : 		y += 10;

  00085	83 c6 0a	 add	 esi, 10			; 0000000aH
$LN4@OnSize:

; 458  : 	//--------------------------------------------------------------------
; 459  : 		
; 460  : 	cx = cx - x;

  00088	8b 45 e4	 mov	 eax, DWORD PTR _x$1$[ebp]

; 461  : 	cy = cy - y;

  0008b	2b fe		 sub	 edi, esi

; 462  : 	if(m_pTabDlgFocused && m_pTabDlgFocused->GetSafeHwnd())

  0008d	8b 91 d8 00 00
	00		 mov	 edx, DWORD PTR [ecx+216]
  00093	2b d8		 sub	 ebx, eax
  00095	85 d2		 test	 edx, edx
  00097	74 1b		 je	 SHORT $LN5@OnSize
  00099	83 7a 20 00	 cmp	 DWORD PTR [edx+32], 0
  0009d	74 15		 je	 SHORT $LN5@OnSize

; 463  : 	{
; 464  : 		m_pTabDlgFocused->SetWindowPos(NULL,x, y,cx,cy,SWP_FRAMECHANGED | SWP_NOZORDER);

  0009f	6a 24		 push	 36			; 00000024H
  000a1	57		 push	 edi
  000a2	53		 push	 ebx
  000a3	56		 push	 esi
  000a4	50		 push	 eax
  000a5	6a 00		 push	 0
  000a7	8b ca		 mov	 ecx, edx
  000a9	e8 00 00 00 00	 call	 ?SetWindowPos@CWnd@@QAEHPBV1@HHHHI@Z ; CWnd::SetWindowPos
  000ae	8b 4d e8	 mov	 ecx, DWORD PTR _this$GSCopy$1$[ebp]
  000b1	8b 45 e4	 mov	 eax, DWORD PTR _x$1$[ebp]
$LN5@OnSize:

; 465  : 	}		
; 466  : 	if(m_pTabDlgCodeSearch)

  000b4	8b 91 dc 00 00
	00		 mov	 edx, DWORD PTR [ecx+220]
  000ba	85 d2		 test	 edx, edx
  000bc	74 18		 je	 SHORT $LN7@OnSize

; 467  : 	{
; 468  : 		if(m_pTabDlgCodeSearch->GetSafeHwnd())

  000be	83 7a 20 00	 cmp	 DWORD PTR [edx+32], 0
  000c2	74 12		 je	 SHORT $LN7@OnSize

; 469  : 		{
; 470  : 			m_pTabDlgCodeSearch->SetWindowPos(NULL,x, y,cx,cy,SWP_FRAMECHANGED | SWP_NOZORDER);

  000c4	6a 24		 push	 36			; 00000024H
  000c6	57		 push	 edi
  000c7	53		 push	 ebx
  000c8	56		 push	 esi
  000c9	50		 push	 eax
  000ca	6a 00		 push	 0
  000cc	8b ca		 mov	 ecx, edx
  000ce	e8 00 00 00 00	 call	 ?SetWindowPos@CWnd@@QAEHPBV1@HHHHI@Z ; CWnd::SetWindowPos
  000d3	8b 4d e8	 mov	 ecx, DWORD PTR _this$GSCopy$1$[ebp]
$LN7@OnSize:

; 471  : 		}		
; 472  : 	}
; 473  : 
; 474  : 	//@@@@@06.11.20[[
; 475  : 	if(m_pTabDlgSystemTabEx)

  000d6	8b 81 e0 00 00
	00		 mov	 eax, DWORD PTR [ecx+224]
  000dc	85 c0		 test	 eax, eax
  000de	74 1a		 je	 SHORT $LN9@OnSize

; 476  : 	{
; 477  : 		if(m_pTabDlgSystemTabEx->GetSafeHwnd())

  000e0	83 78 20 00	 cmp	 DWORD PTR [eax+32], 0
  000e4	74 14		 je	 SHORT $LN9@OnSize

; 478  : 		{
; 479  : 			m_pTabDlgSystemTabEx->SetWindowPos(NULL,x, y,cx,cy,SWP_FRAMECHANGED | SWP_NOZORDER);

  000e6	6a 24		 push	 36			; 00000024H
  000e8	57		 push	 edi
  000e9	53		 push	 ebx
  000ea	56		 push	 esi
  000eb	ff 75 e4	 push	 DWORD PTR _x$1$[ebp]
  000ee	8b c8		 mov	 ecx, eax
  000f0	6a 00		 push	 0
  000f2	e8 00 00 00 00	 call	 ?SetWindowPos@CWnd@@QAEHPBV1@HHHHI@Z ; CWnd::SetWindowPos
  000f7	8b 4d e8	 mov	 ecx, DWORD PTR _this$GSCopy$1$[ebp]
$LN9@OnSize:

; 480  : 		}		
; 481  : 	}
; 482  : 	//@@@@@06.11.20]]
; 483  : 
; 484  : 	//@@@@@06.12.07[[
; 485  : 	if(m_pTabIndices)

  000fa	8b 89 e4 00 00
	00		 mov	 ecx, DWORD PTR [ecx+228]
  00100	85 c9		 test	 ecx, ecx
  00102	74 15		 je	 SHORT $LN11@OnSize

; 486  : 	{
; 487  : 		if(m_pTabIndices->GetSafeHwnd())

  00104	83 79 20 00	 cmp	 DWORD PTR [ecx+32], 0
  00108	74 0f		 je	 SHORT $LN11@OnSize

; 488  : 		{
; 489  : 			m_pTabIndices->SetWindowPos(NULL,x, y,cx,cy,SWP_FRAMECHANGED | SWP_NOZORDER);

  0010a	6a 24		 push	 36			; 00000024H
  0010c	57		 push	 edi
  0010d	53		 push	 ebx
  0010e	56		 push	 esi
  0010f	ff 75 e4	 push	 DWORD PTR _x$1$[ebp]
  00112	6a 00		 push	 0
  00114	e8 00 00 00 00	 call	 ?SetWindowPos@CWnd@@QAEHPBV1@HHHHI@Z ; CWnd::SetWindowPos
$LN11@OnSize:

; 490  : 		}		
; 491  : 	}
; 492  : 	//@@@@@06.12.07]]
; 493  : }

  00119	8b 4d fc	 mov	 ecx, DWORD PTR __$ArrayPad$[ebp]
  0011c	5f		 pop	 edi
  0011d	5e		 pop	 esi
  0011e	33 cd		 xor	 ecx, ebp
  00120	5b		 pop	 ebx
  00121	e8 00 00 00 00	 call	 @__security_check_cookie@4
  00126	8b e5		 mov	 esp, ebp
  00128	5d		 pop	 ebp
  00129	c2 0c 00	 ret	 12			; 0000000cH
?OnSize@CXTabCtrl@@IAEXIHH@Z ENDP			; CXTabCtrl::OnSize
_TEXT	ENDS
; Function compile flags: /Ogtp
; File D:\git\src\IBK\IBK_DRFN\ProjSrc\SrcDrfn\Chart\MULTICHART\XTabCtrl.cpp
; File C:\Program Files (x86)\Microsoft Visual Studio\2019\Community\VC\Tools\MSVC\14.29.30133\atlmfc\include\afxcmn.inl
; File D:\git\src\IBK\IBK_DRFN\ProjSrc\SrcDrfn\Chart\MULTICHART\XTabCtrl.cpp
; File C:\Program Files (x86)\Microsoft Visual Studio\2019\Community\VC\Tools\MSVC\14.29.30133\atlmfc\include\afxcmn.inl
; File D:\git\src\IBK\IBK_DRFN\ProjSrc\SrcDrfn\Chart\MULTICHART\XTabCtrl.cpp
;	COMDAT ?OnSelchanging@CXTabCtrl@@IAEXPAUtagNMHDR@@PAJ@Z
_TEXT	SEGMENT
_pNMHDR$ = 8						; size = 4
_pResult$ = 12						; size = 4
?OnSelchanging@CXTabCtrl@@IAEXPAUtagNMHDR@@PAJ@Z PROC	; CXTabCtrl::OnSelchanging, COMDAT
; _this$ = ecx

; 434  : {	

  00000	55		 push	 ebp
  00001	8b ec		 mov	 ebp, esp
  00003	56		 push	 esi

; 435  : 	// TODO: Add your control notification handler code here
; 436  : 	CExTabCtrl::OnSelchange(pNMHDR, pResult);

  00004	8b 75 0c	 mov	 esi, DWORD PTR _pResult$[ebp]
  00007	57		 push	 edi
  00008	56		 push	 esi
  00009	ff 75 08	 push	 DWORD PTR _pNMHDR$[ebp]
  0000c	8b f9		 mov	 edi, ecx
  0000e	e8 00 00 00 00	 call	 ?OnSelchange@CExTabCtrl@@IAEHPAUtagNMHDR@@PAJ@Z ; CExTabCtrl::OnSelchange

; 437  : 	m_nPrevIndex = m_iSelectedTab;

  00013	8b 87 a4 00 00
	00		 mov	 eax, DWORD PTR [edi+164]
; File C:\Program Files (x86)\Microsoft Visual Studio\2019\Community\VC\Tools\MSVC\14.29.30133\atlmfc\include\afxcmn.inl

; 586  : 	{ ASSERT(::IsWindow(m_hWnd)); return (int)::SendMessage(m_hWnd, TCM_GETCURSEL, 0, 0L); }

  00019	6a 00		 push	 0
  0001b	6a 00		 push	 0
  0001d	68 0b 13 00 00	 push	 4875			; 0000130bH
  00022	ff 77 20	 push	 DWORD PTR [edi+32]
; File D:\git\src\IBK\IBK_DRFN\ProjSrc\SrcDrfn\Chart\MULTICHART\XTabCtrl.cpp

; 437  : 	m_nPrevIndex = m_iSelectedTab;

  00025	89 87 cc 00 00
	00		 mov	 DWORD PTR [edi+204], eax
; File C:\Program Files (x86)\Microsoft Visual Studio\2019\Community\VC\Tools\MSVC\14.29.30133\atlmfc\include\afxcmn.inl

; 586  : 	{ ASSERT(::IsWindow(m_hWnd)); return (int)::SendMessage(m_hWnd, TCM_GETCURSEL, 0, 0L); }

  0002b	ff 15 00 00 00
	00		 call	 DWORD PTR __imp__SendMessageA@16
; File D:\git\src\IBK\IBK_DRFN\ProjSrc\SrcDrfn\Chart\MULTICHART\XTabCtrl.cpp

; 438  : 	m_iSelectedTab = GetCurSel();

  00031	89 87 a4 00 00
	00		 mov	 DWORD PTR [edi+164], eax

; 439  : 	*pResult = 0;

  00037	5f		 pop	 edi
  00038	c7 06 00 00 00
	00		 mov	 DWORD PTR [esi], 0
  0003e	5e		 pop	 esi

; 440  : }

  0003f	5d		 pop	 ebp
  00040	c2 08 00	 ret	 8
?OnSelchanging@CXTabCtrl@@IAEXPAUtagNMHDR@@PAJ@Z ENDP	; CXTabCtrl::OnSelchanging
_TEXT	ENDS
; Function compile flags: /Ogtp
; File D:\git\src\IBK\IBK_DRFN\ProjSrc\SrcDrfn\Chart\MULTICHART\XTabCtrl.cpp
; File C:\Program Files (x86)\Microsoft Visual Studio\2019\Community\VC\Tools\MSVC\14.29.30133\atlmfc\include\afxcmn.inl
; File D:\git\src\IBK\IBK_DRFN\ProjSrc\SrcDrfn\Chart\MULTICHART\XTabCtrl.cpp
;	COMDAT ?OnSelchange@CXTabCtrl@@IAEXPAUtagNMHDR@@PAJ@Z
_TEXT	SEGMENT
_pNMHDR$ = 8						; size = 4
_pResult$ = 12						; size = 4
?OnSelchange@CXTabCtrl@@IAEXPAUtagNMHDR@@PAJ@Z PROC	; CXTabCtrl::OnSelchange, COMDAT
; _this$ = ecx

; 424  : {

  00000	55		 push	 ebp
  00001	8b ec		 mov	 ebp, esp
  00003	56		 push	 esi
  00004	57		 push	 edi

; 425  : 	// TODO: Add your control notification handler code here
; 426  : 	CExTabCtrl::OnSelchange(pNMHDR, pResult);

  00005	8b 7d 0c	 mov	 edi, DWORD PTR _pResult$[ebp]
  00008	8b f1		 mov	 esi, ecx
  0000a	57		 push	 edi
  0000b	ff 75 08	 push	 DWORD PTR _pNMHDR$[ebp]
  0000e	e8 00 00 00 00	 call	 ?OnSelchange@CExTabCtrl@@IAEHPAUtagNMHDR@@PAJ@Z ; CExTabCtrl::OnSelchange
; File C:\Program Files (x86)\Microsoft Visual Studio\2019\Community\VC\Tools\MSVC\14.29.30133\atlmfc\include\afxcmn.inl

; 586  : 	{ ASSERT(::IsWindow(m_hWnd)); return (int)::SendMessage(m_hWnd, TCM_GETCURSEL, 0, 0L); }

  00013	6a 00		 push	 0
  00015	6a 00		 push	 0
  00017	68 0b 13 00 00	 push	 4875			; 0000130bH
  0001c	ff 76 20	 push	 DWORD PTR [esi+32]
  0001f	ff 15 00 00 00
	00		 call	 DWORD PTR __imp__SendMessageA@16
; File D:\git\src\IBK\IBK_DRFN\ProjSrc\SrcDrfn\Chart\MULTICHART\XTabCtrl.cpp

; 428  : 	if(iNewTab<0) iNewTab=0;

  00025	33 c9		 xor	 ecx, ecx
  00027	85 c0		 test	 eax, eax
  00029	0f 48 c1	 cmovs	 eax, ecx

; 429  : 	ShowTab(iNewTab);

  0002c	8b ce		 mov	 ecx, esi
  0002e	50		 push	 eax
  0002f	e8 00 00 00 00	 call	 ?ShowTab@CXTabCtrl@@QAEXH@Z ; CXTabCtrl::ShowTab

; 430  : 	*pResult = 0;

  00034	c7 07 00 00 00
	00		 mov	 DWORD PTR [edi], 0
  0003a	5f		 pop	 edi
  0003b	5e		 pop	 esi

; 431  : }

  0003c	5d		 pop	 ebp
  0003d	c2 08 00	 ret	 8
?OnSelchange@CXTabCtrl@@IAEXPAUtagNMHDR@@PAJ@Z ENDP	; CXTabCtrl::OnSelchange
_TEXT	ENDS
; Function compile flags: /Ogtp
; File D:\git\src\IBK\IBK_DRFN\ProjSrc\SrcDrfn\Chart\MULTICHART\XTabCtrl.cpp
;	COMDAT ?DeleteCurrentDlg@CXTabCtrl@@AAEXXZ
_TEXT	SEGMENT
?DeleteCurrentDlg@CXTabCtrl@@AAEXXZ PROC		; CXTabCtrl::DeleteCurrentDlg, COMDAT
; _this$ = ecx

; 202  : {

  00000	56		 push	 esi
  00001	8b f1		 mov	 esi, ecx

; 203  : 	if(m_pTabDlgFocused)

  00003	8b 8e d8 00 00
	00		 mov	 ecx, DWORD PTR [esi+216]
  00009	85 c9		 test	 ecx, ecx
  0000b	74 26		 je	 SHORT $LN2@DeleteCurr

; 204  : 	{
; 205  : 		if( m_pTabDlgFocused->GetSafeHwnd() )

  0000d	83 79 20 00	 cmp	 DWORD PTR [ecx+32], 0
  00011	74 0f		 je	 SHORT $LN11@DeleteCurr

; 206  : 			m_pTabDlgFocused->DestroyWindow();		

  00013	8b 01		 mov	 eax, DWORD PTR [ecx]
  00015	ff 50 68	 call	 DWORD PTR [eax+104]
  00018	8b 8e d8 00 00
	00		 mov	 ecx, DWORD PTR [esi+216]

; 207  : 		delete m_pTabDlgFocused;

  0001e	85 c9		 test	 ecx, ecx
  00020	74 07		 je	 SHORT $LN5@DeleteCurr
$LN11@DeleteCurr:
  00022	8b 01		 mov	 eax, DWORD PTR [ecx]
  00024	6a 01		 push	 1
  00026	ff 50 04	 call	 DWORD PTR [eax+4]
$LN5@DeleteCurr:

; 208  : 		m_pTabDlgFocused = NULL;	

  00029	c7 86 d8 00 00
	00 00 00 00 00	 mov	 DWORD PTR [esi+216], 0
$LN2@DeleteCurr:
  00033	5e		 pop	 esi

; 209  : 	}
; 210  : }

  00034	c3		 ret	 0
?DeleteCurrentDlg@CXTabCtrl@@AAEXXZ ENDP		; CXTabCtrl::DeleteCurrentDlg
_TEXT	ENDS
; Function compile flags: /Ogtp
; File D:\git\src\IBK\IBK_DRFN\ProjSrc\SrcDrfn\Chart\MULTICHART\XTabCtrl.cpp
;	COMDAT ?SetWndSystemTabEx@CXTabCtrl@@QAEXXZ
_TEXT	SEGMENT
?SetWndSystemTabEx@CXTabCtrl@@QAEXXZ PROC		; CXTabCtrl::SetWndSystemTabEx, COMDAT
; _this$ = ecx

; 591  : {

  00000	56		 push	 esi
  00001	8b f1		 mov	 esi, ecx

; 592  : 	if(m_pTabDlgSystemTabEx == NULL)

  00003	83 be e0 00 00
	00 00		 cmp	 DWORD PTR [esi+224], 0
  0000a	75 13		 jne	 SHORT $LN2@SetWndSyst

; 593  : 	{
; 594  : 		m_pTabDlgSystemTabEx = m_tabDlgCreator.CreateTabDlg(TABNO_SYSTEMTRADING);

  0000c	6a 02		 push	 2
  0000e	8d 8e 8c 00 00
	00		 lea	 ecx, DWORD PTR [esi+140]
  00014	e8 00 00 00 00	 call	 ?CreateTabDlg@CTabDlgCreator@@QAEPAVCTabDlg@@I@Z ; CTabDlgCreator::CreateTabDlg
  00019	89 86 e0 00 00
	00		 mov	 DWORD PTR [esi+224], eax
$LN2@SetWndSyst:

; 595  : 	}
; 596  : }

  0001f	5e		 pop	 esi
  00020	c3		 ret	 0
?SetWndSystemTabEx@CXTabCtrl@@QAEXXZ ENDP		; CXTabCtrl::SetWndSystemTabEx
_TEXT	ENDS
; Function compile flags: /Ogtp
; File D:\git\src\IBK\IBK_DRFN\ProjSrc\SrcDrfn\Chart\MULTICHART\XTabCtrl.cpp
; File C:\Program Files (x86)\Microsoft Visual Studio\2019\Community\VC\Tools\MSVC\14.29.30133\atlmfc\include\afxwin2.inl
; File D:\git\src\IBK\IBK_DRFN\ProjSrc\SrcDrfn\Chart\MULTICHART\XTabCtrl.cpp
; File C:\Program Files (x86)\Microsoft Visual Studio\2019\Community\VC\Tools\MSVC\14.29.30133\atlmfc\include\afxwin2.inl
; File D:\git\src\IBK\IBK_DRFN\ProjSrc\SrcDrfn\Chart\MULTICHART\XTabCtrl.cpp
;	COMDAT ?ChangeSkinColor@CXTabCtrl@@QAEXPAVCWnd@@@Z
_TEXT	SEGMENT
_tabColor$ = -32					; size = 28
__$ArrayPad$ = -4					; size = 4
_pStdDialog$ = 8					; size = 4
?ChangeSkinColor@CXTabCtrl@@QAEXPAVCWnd@@@Z PROC	; CXTabCtrl::ChangeSkinColor, COMDAT
; _this$ = ecx

; 560  : {

  00000	55		 push	 ebp
  00001	8b ec		 mov	 ebp, esp
  00003	83 ec 20	 sub	 esp, 32			; 00000020H
  00006	a1 00 00 00 00	 mov	 eax, DWORD PTR ___security_cookie
  0000b	33 c5		 xor	 eax, ebp
  0000d	89 45 fc	 mov	 DWORD PTR __$ArrayPad$[ebp], eax
  00010	8b 45 08	 mov	 eax, DWORD PTR _pStdDialog$[ebp]
  00013	56		 push	 esi
  00014	8b f1		 mov	 esi, ecx

; 561  : 	if(pStdDialog == NULL)

  00016	85 c0		 test	 eax, eax
  00018	74 70		 je	 SHORT $LN1@ChangeSkin
; File C:\Program Files (x86)\Microsoft Visual Studio\2019\Community\VC\Tools\MSVC\14.29.30133\atlmfc\include\afxwin2.inl

; 32   : 	{ ASSERT(::IsWindow(m_hWnd)); return ::SendMessage(m_hWnd, message, wParam, lParam); }

  0001a	8d 4d e0	 lea	 ecx, DWORD PTR _tabColor$[ebp]
  0001d	51		 push	 ecx
  0001e	6a 01		 push	 1
  00020	ff 35 00 00 00
	00		 push	 DWORD PTR ?RMSG_GET_SKINCOLOR@@3IB
  00026	ff 70 20	 push	 DWORD PTR [eax+32]
  00029	ff 15 00 00 00
	00		 call	 DWORD PTR __imp__SendMessageA@16
; File D:\git\src\IBK\IBK_DRFN\ProjSrc\SrcDrfn\Chart\MULTICHART\XTabCtrl.cpp

; 566  : 	if((COLORREF)pStdDialog->SendMessage(RMSG_GET_SKINCOLOR, (WPARAM)1, (LPARAM)&tabColor))

  0002f	85 c0		 test	 eax, eax
  00031	74 4a		 je	 SHORT $LN3@ChangeSkin

; 567  : 	{
; 568  : 		if(m_pTabDlgCodeSearch)		m_pTabDlgCodeSearch->ChangeSkinColor(tabColor.clrTabBkgrnd);

  00033	8b 8e dc 00 00
	00		 mov	 ecx, DWORD PTR [esi+220]
  00039	85 c9		 test	 ecx, ecx
  0003b	74 0b		 je	 SHORT $LN4@ChangeSkin
  0003d	8b 01		 mov	 eax, DWORD PTR [ecx]
  0003f	ff 75 e8	 push	 DWORD PTR _tabColor$[ebp+8]
  00042	ff 90 a0 01 00
	00		 call	 DWORD PTR [eax+416]
$LN4@ChangeSkin:

; 569  : 		if(m_pTabIndices)			m_pTabIndices->ChangeSkinColor(tabColor.clrTabBkgrnd);

  00048	8b 8e e4 00 00
	00		 mov	 ecx, DWORD PTR [esi+228]
  0004e	85 c9		 test	 ecx, ecx
  00050	74 0b		 je	 SHORT $LN5@ChangeSkin
  00052	8b 01		 mov	 eax, DWORD PTR [ecx]
  00054	ff 75 e8	 push	 DWORD PTR _tabColor$[ebp+8]
  00057	ff 90 a0 01 00
	00		 call	 DWORD PTR [eax+416]
$LN5@ChangeSkin:

; 570  : 		if(m_pTabDlgSystemTabEx)	m_pTabDlgSystemTabEx->ChangeSkinColor(tabColor.clrTabBkgrnd);

  0005d	8b 8e e0 00 00
	00		 mov	 ecx, DWORD PTR [esi+224]
  00063	85 c9		 test	 ecx, ecx
  00065	74 0b		 je	 SHORT $LN6@ChangeSkin
  00067	8b 01		 mov	 eax, DWORD PTR [ecx]
  00069	ff 75 e8	 push	 DWORD PTR _tabColor$[ebp+8]
  0006c	ff 90 a0 01 00
	00		 call	 DWORD PTR [eax+416]
$LN6@ChangeSkin:

; 571  : //
; 572  : //	COLORREF clrTabActive = RGB(193,180,130);
; 573  : //	COLORREF clrTabInactive = RGB(189,189,189);
; 574  : //@신영삭제
; 575  : //	IKSLibManager* pKSLibMng = (IKSLibManager*)AfxGetPctrInterface(UUID_IKSLibManager);
; 576  : //	if(pKSLibMng)
; 577  : //	{
; 578  : //		clrTabActive = pKSLibMng->Lib_KSLink_GetColor(135);		// 탭 색상 Active
; 579  : //		clrTabInactive = pKSLibMng->Lib_KSLink_GetColor(98);	// 탭 색상 Inactive
; 580  : //	}
; 581  : 
; 582  : 		SetSTTabColor((long)&tabColor);

  00072	8d 45 e0	 lea	 eax, DWORD PTR _tabColor$[ebp]
  00075	8b ce		 mov	 ecx, esi
  00077	50		 push	 eax
  00078	e8 00 00 00 00	 call	 ?SetSTTabColor@CExTabCtrl@@QAEXJ@Z ; CExTabCtrl::SetSTTabColor
$LN3@ChangeSkin:
; File C:\Program Files (x86)\Microsoft Visual Studio\2019\Community\VC\Tools\MSVC\14.29.30133\atlmfc\include\afxwin2.inl

; 114  : 	{ ASSERT(::IsWindow(m_hWnd)); ::InvalidateRect(m_hWnd, NULL, bErase); }

  0007d	6a 01		 push	 1
  0007f	6a 00		 push	 0
  00081	ff 76 20	 push	 DWORD PTR [esi+32]
  00084	ff 15 00 00 00
	00		 call	 DWORD PTR __imp__InvalidateRect@12
$LN1@ChangeSkin:
; File D:\git\src\IBK\IBK_DRFN\ProjSrc\SrcDrfn\Chart\MULTICHART\XTabCtrl.cpp

; 588  : }

  0008a	8b 4d fc	 mov	 ecx, DWORD PTR __$ArrayPad$[ebp]
  0008d	33 cd		 xor	 ecx, ebp
  0008f	5e		 pop	 esi
  00090	e8 00 00 00 00	 call	 @__security_check_cookie@4
  00095	8b e5		 mov	 esp, ebp
  00097	5d		 pop	 ebp
  00098	c2 04 00	 ret	 4
?ChangeSkinColor@CXTabCtrl@@QAEXPAVCWnd@@@Z ENDP	; CXTabCtrl::ChangeSkinColor
_TEXT	ENDS
; Function compile flags: /Ogtp
; File D:\git\src\IBK\IBK_DRFN\ProjSrc\SrcDrfn\Chart\MULTICHART\XTabCtrl.cpp
;	COMDAT ??1CXTabCtrl@@UAE@XZ
_TEXT	SEGMENT
??1CXTabCtrl@@UAE@XZ PROC				; CXTabCtrl::~CXTabCtrl, COMDAT
; _this$ = ecx

; 43   : {

  00000	56		 push	 esi
  00001	8b f1		 mov	 esi, ecx

; 44   : 	
; 45   : }

  00003	8d 8e 8c 00 00
	00		 lea	 ecx, DWORD PTR [esi+140]
  00009	c7 06 00 00 00
	00		 mov	 DWORD PTR [esi], OFFSET ??_7CXTabCtrl@@6B@
  0000f	e8 00 00 00 00	 call	 ??1CTabDlgCreator@@UAE@XZ ; CTabDlgCreator::~CTabDlgCreator
  00014	8b ce		 mov	 ecx, esi
  00016	5e		 pop	 esi
  00017	e9 00 00 00 00	 jmp	 ??1CExTabCtrl@@UAE@XZ	; CExTabCtrl::~CExTabCtrl
??1CXTabCtrl@@UAE@XZ ENDP				; CXTabCtrl::~CXTabCtrl
_TEXT	ENDS
; Function compile flags: /Ogtp
; File D:\git\src\IBK\IBK_DRFN\ProjSrc\SrcDrfn\Chart\MULTICHART\XTabCtrl.h
; File C:\Program Files (x86)\Microsoft Visual Studio\2019\Community\VC\Tools\MSVC\14.29.30133\atlmfc\include\afxcmn.inl
; File D:\git\src\IBK\IBK_DRFN\ProjSrc\SrcDrfn\Chart\MULTICHART\XTabCtrl.h
;	COMDAT ?GetTabHeight@CXTabCtrl@@QAEJXZ
_TEXT	SEGMENT
_rect$ = -20						; size = 16
__$ArrayPad$ = -4					; size = 4
?GetTabHeight@CXTabCtrl@@QAEJXZ PROC			; CXTabCtrl::GetTabHeight, COMDAT
; _this$ = ecx

; 51   : 	long GetTabHeight() { RECT rect; GetItemRect(0,&rect); return(rect.bottom-rect.top);}

  00000	55		 push	 ebp
  00001	8b ec		 mov	 ebp, esp
  00003	83 ec 14	 sub	 esp, 20			; 00000014H
  00006	a1 00 00 00 00	 mov	 eax, DWORD PTR ___security_cookie
  0000b	33 c5		 xor	 eax, ebp
  0000d	89 45 fc	 mov	 DWORD PTR __$ArrayPad$[ebp], eax
; File C:\Program Files (x86)\Microsoft Visual Studio\2019\Community\VC\Tools\MSVC\14.29.30133\atlmfc\include\afxcmn.inl

; 584  : 	{ ASSERT(::IsWindow(m_hWnd)); return (BOOL)::SendMessage(m_hWnd, TCM_GETITEMRECT, nItem, (LPARAM)lpRect); }

  00010	8d 45 ec	 lea	 eax, DWORD PTR _rect$[ebp]
  00013	50		 push	 eax
  00014	6a 00		 push	 0
  00016	68 0a 13 00 00	 push	 4874			; 0000130aH
  0001b	ff 71 20	 push	 DWORD PTR [ecx+32]
  0001e	ff 15 00 00 00
	00		 call	 DWORD PTR __imp__SendMessageA@16
; File D:\git\src\IBK\IBK_DRFN\ProjSrc\SrcDrfn\Chart\MULTICHART\XTabCtrl.h

; 51   : 	long GetTabHeight() { RECT rect; GetItemRect(0,&rect); return(rect.bottom-rect.top);}

  00024	8b 4d fc	 mov	 ecx, DWORD PTR __$ArrayPad$[ebp]
  00027	8b 45 f8	 mov	 eax, DWORD PTR _rect$[ebp+12]
  0002a	33 cd		 xor	 ecx, ebp
  0002c	2b 45 f0	 sub	 eax, DWORD PTR _rect$[ebp+4]
  0002f	e8 00 00 00 00	 call	 @__security_check_cookie@4
  00034	8b e5		 mov	 esp, ebp
  00036	5d		 pop	 ebp
  00037	c3		 ret	 0
?GetTabHeight@CXTabCtrl@@QAEJXZ ENDP			; CXTabCtrl::GetTabHeight
_TEXT	ENDS
; Function compile flags: /Ogtp
; File D:\git\src\IBK\IBK_DRFN\ProjSrc\SrcDrfn\Chart\MULTICHART\XTabCtrl.cpp
;	COMDAT ?SetTopLeftCorner@CXTabCtrl@@QAEXVCPoint@@@Z
_TEXT	SEGMENT
_pt$ = 8						; size = 8
?SetTopLeftCorner@CXTabCtrl@@QAEXVCPoint@@@Z PROC	; CXTabCtrl::SetTopLeftCorner, COMDAT
; _this$ = ecx

; 61   : {

  00000	55		 push	 ebp
  00001	8b ec		 mov	 ebp, esp

; 62   : 	m_ptTabs.x = pt.x;

  00003	8b 45 08	 mov	 eax, DWORD PTR _pt$[ebp]
  00006	89 81 a8 00 00
	00		 mov	 DWORD PTR [ecx+168], eax

; 63   : 	m_ptTabs.y = pt.y;

  0000c	8b 45 0c	 mov	 eax, DWORD PTR _pt$[ebp+4]
  0000f	89 81 ac 00 00
	00		 mov	 DWORD PTR [ecx+172], eax

; 64   : }

  00015	5d		 pop	 ebp
  00016	c2 08 00	 ret	 8
?SetTopLeftCorner@CXTabCtrl@@QAEXVCPoint@@@Z ENDP	; CXTabCtrl::SetTopLeftCorner
_TEXT	ENDS
; Function compile flags: /Ogtp
; File D:\git\src\IBK\IBK_DRFN\ProjSrc\SrcDrfn\Chart\MULTICHART\XTabCtrl.cpp
; File C:\Program Files (x86)\Microsoft Visual Studio\2019\Community\VC\Tools\MSVC\14.29.30133\atlmfc\include\afxwin2.inl
; File D:\git\src\IBK\IBK_DRFN\ProjSrc\SrcDrfn\Chart\MULTICHART\XTabCtrl.cpp
; File C:\Program Files (x86)\Microsoft Visual Studio\2019\Community\VC\Tools\MSVC\14.29.30133\atlmfc\include\afxwin2.inl
; File D:\git\src\IBK\IBK_DRFN\ProjSrc\SrcDrfn\Chart\MULTICHART\XTabCtrl.cpp
; File C:\Program Files (x86)\Microsoft Visual Studio\2019\Community\VC\Tools\MSVC\14.29.30133\atlmfc\include\afxwin2.inl
; File D:\git\src\IBK\IBK_DRFN\ProjSrc\SrcDrfn\Chart\MULTICHART\XTabCtrl.cpp
; File C:\Program Files (x86)\Microsoft Visual Studio\2019\Community\VC\Tools\MSVC\14.29.30133\atlmfc\include\afxwin2.inl
; File D:\git\src\IBK\IBK_DRFN\ProjSrc\SrcDrfn\Chart\MULTICHART\XTabCtrl.cpp
; File C:\Program Files (x86)\Microsoft Visual Studio\2019\Community\VC\Tools\MSVC\14.29.30133\atlmfc\include\afxwin2.inl
; File D:\git\src\IBK\IBK_DRFN\ProjSrc\SrcDrfn\Chart\MULTICHART\XTabCtrl.cpp
; File C:\Program Files (x86)\Microsoft Visual Studio\2019\Community\VC\Tools\MSVC\14.29.30133\atlmfc\include\afxwin2.inl
; File C:\Program Files (x86)\Microsoft Visual Studio\2019\Community\VC\Tools\MSVC\14.29.30133\atlmfc\include\atltypes.h
; File C:\Program Files (x86)\Microsoft Visual Studio\2019\Community\VC\Tools\MSVC\14.29.30133\atlmfc\include\afxwin2.inl
; File D:\git\src\IBK\IBK_DRFN\ProjSrc\SrcDrfn\Chart\MULTICHART\XTabCtrl.cpp
; File C:\Program Files (x86)\Microsoft Visual Studio\2019\Community\VC\Tools\MSVC\14.29.30133\atlmfc\include\afxcmn.inl
; File D:\git\src\IBK\IBK_DRFN\ProjSrc\SrcDrfn\Chart\MULTICHART\XTabCtrl.cpp
; File D:\git\src\IBK\IBK_DRFN\ProjSrc\SrcDrfn\Chart\MULTICHART\XTabCtrl.h
; File D:\git\src\IBK\IBK_DRFN\ProjSrc\SrcDrfn\Chart\MULTICHART\XTabCtrl.cpp
; File C:\Program Files (x86)\Microsoft Visual Studio\2019\Community\VC\Tools\MSVC\14.29.30133\atlmfc\include\afxwin2.inl
; File D:\git\src\IBK\IBK_DRFN\ProjSrc\SrcDrfn\Chart\MULTICHART\XTabCtrl.cpp
; File C:\Program Files (x86)\Microsoft Visual Studio\2019\Community\VC\Tools\MSVC\14.29.30133\atlmfc\include\afxwin2.inl
; File D:\git\src\IBK\IBK_DRFN\ProjSrc\SrcDrfn\Chart\MULTICHART\XTabCtrl.cpp
; File C:\Program Files (x86)\Microsoft Visual Studio\2019\Community\VC\Tools\MSVC\14.29.30133\atlmfc\include\afxwin2.inl
; File C:\Program Files (x86)\Microsoft Visual Studio\2019\Community\VC\Tools\MSVC\14.29.30133\atlmfc\include\atltypes.h
; File C:\Program Files (x86)\Microsoft Visual Studio\2019\Community\VC\Tools\MSVC\14.29.30133\atlmfc\include\afxwin2.inl
; File D:\git\src\IBK\IBK_DRFN\ProjSrc\SrcDrfn\Chart\MULTICHART\XTabCtrl.cpp
; File C:\Program Files (x86)\Microsoft Visual Studio\2019\Community\VC\Tools\MSVC\14.29.30133\atlmfc\include\afxcmn.inl
; File D:\git\src\IBK\IBK_DRFN\ProjSrc\SrcDrfn\Chart\MULTICHART\XTabCtrl.cpp
; File C:\Program Files (x86)\Microsoft Visual Studio\2019\Community\VC\Tools\MSVC\14.29.30133\atlmfc\include\afxcmn.inl
; File D:\git\src\IBK\IBK_DRFN\ProjSrc\SrcDrfn\Chart\MULTICHART\XTabCtrl.cpp
; File D:\git\src\IBK\IBK_DRFN\ProjSrc\SrcDrfn\Chart\MULTICHART\XTabCtrl.h
; File D:\git\src\IBK\IBK_DRFN\ProjSrc\SrcDrfn\Chart\MULTICHART\XTabCtrl.cpp
; File C:\Program Files (x86)\Microsoft Visual Studio\2019\Community\VC\Tools\MSVC\14.29.30133\atlmfc\include\afxwin2.inl
; File D:\git\src\IBK\IBK_DRFN\ProjSrc\SrcDrfn\Chart\MULTICHART\XTabCtrl.cpp
; File C:\Program Files (x86)\Microsoft Visual Studio\2019\Community\VC\Tools\MSVC\14.29.30133\atlmfc\include\afxwin2.inl
; File D:\git\src\IBK\IBK_DRFN\ProjSrc\SrcDrfn\Chart\MULTICHART\XTabCtrl.cpp
; File C:\Program Files (x86)\Microsoft Visual Studio\2019\Community\VC\Tools\MSVC\14.29.30133\atlmfc\include\afxwin2.inl
; File C:\Program Files (x86)\Microsoft Visual Studio\2019\Community\VC\Tools\MSVC\14.29.30133\atlmfc\include\atltypes.h
; File C:\Program Files (x86)\Microsoft Visual Studio\2019\Community\VC\Tools\MSVC\14.29.30133\atlmfc\include\afxwin2.inl
; File D:\git\src\IBK\IBK_DRFN\ProjSrc\SrcDrfn\Chart\MULTICHART\XTabCtrl.cpp
; File C:\Program Files (x86)\Microsoft Visual Studio\2019\Community\VC\Tools\MSVC\14.29.30133\atlmfc\include\afxcmn.inl
; File D:\git\src\IBK\IBK_DRFN\ProjSrc\SrcDrfn\Chart\MULTICHART\XTabCtrl.cpp
; File C:\Program Files (x86)\Microsoft Visual Studio\2019\Community\VC\Tools\MSVC\14.29.30133\atlmfc\include\afxcmn.inl
; File D:\git\src\IBK\IBK_DRFN\ProjSrc\SrcDrfn\Chart\MULTICHART\XTabCtrl.cpp
; File D:\git\src\IBK\IBK_DRFN\ProjSrc\SrcDrfn\Chart\MULTICHART\XTabCtrl.h
; File D:\git\src\IBK\IBK_DRFN\ProjSrc\SrcDrfn\Chart\MULTICHART\XTabCtrl.cpp
; File C:\Program Files (x86)\Microsoft Visual Studio\2019\Community\VC\Tools\MSVC\14.29.30133\atlmfc\include\afxwin2.inl
; File C:\Program Files (x86)\Microsoft Visual Studio\2019\Community\VC\Tools\MSVC\14.29.30133\atlmfc\include\atltypes.h
; File C:\Program Files (x86)\Microsoft Visual Studio\2019\Community\VC\Tools\MSVC\14.29.30133\atlmfc\include\afxwin2.inl
; File D:\git\src\IBK\IBK_DRFN\ProjSrc\SrcDrfn\Chart\MULTICHART\XTabCtrl.cpp
; File C:\Program Files (x86)\Microsoft Visual Studio\2019\Community\VC\Tools\MSVC\14.29.30133\atlmfc\include\afxwin2.inl
; File D:\git\src\IBK\IBK_DRFN\ProjSrc\SrcDrfn\Chart\MULTICHART\XTabCtrl.cpp
;	COMDAT ?ShowTab@CXTabCtrl@@QAEXH@Z
_TEXT	SEGMENT
_x$1$ = -52						; size = 4
tv1689 = -52						; size = 4
_tabColor$1 = -48					; size = 28
_tabColor$2 = -48					; size = 28
_tabColor$3 = -48					; size = 28
_rect$4 = -36						; size = 16
_rect$5 = -36						; size = 16
_rect$6 = -36						; size = 16
_rect$7 = -20						; size = 16
_rect$8 = -20						; size = 16
_rect$9 = -20						; size = 16
_rect$10 = -20						; size = 16
__$ArrayPad$ = -4					; size = 4
_nIndex$ = 8						; size = 4
?ShowTab@CXTabCtrl@@QAEXH@Z PROC			; CXTabCtrl::ShowTab, COMDAT
; _this$ = ecx

; 213  : {

  00000	55		 push	 ebp
  00001	8b ec		 mov	 ebp, esp
  00003	83 ec 34	 sub	 esp, 52			; 00000034H
  00006	a1 00 00 00 00	 mov	 eax, DWORD PTR ___security_cookie
  0000b	33 c5		 xor	 eax, ebp
  0000d	89 45 fc	 mov	 DWORD PTR __$ArrayPad$[ebp], eax
  00010	53		 push	 ebx
; File C:\Program Files (x86)\Microsoft Visual Studio\2019\Community\VC\Tools\MSVC\14.29.30133\atlmfc\include\afxwin2.inl

; 213  : 	{ ASSERT(::IsWindow(m_hWnd)); return CWnd::FromHandle(::GetParent(m_hWnd)); }

  00011	8b 1d 00 00 00
	00		 mov	 ebx, DWORD PTR __imp__GetParent@4
; File D:\git\src\IBK\IBK_DRFN\ProjSrc\SrcDrfn\Chart\MULTICHART\XTabCtrl.cpp

; 213  : {

  00017	56		 push	 esi
  00018	8b f1		 mov	 esi, ecx
  0001a	57		 push	 edi
  0001b	8b 7d 08	 mov	 edi, DWORD PTR _nIndex$[ebp]
; File C:\Program Files (x86)\Microsoft Visual Studio\2019\Community\VC\Tools\MSVC\14.29.30133\atlmfc\include\afxwin2.inl

; 213  : 	{ ASSERT(::IsWindow(m_hWnd)); return CWnd::FromHandle(::GetParent(m_hWnd)); }

  0001e	ff 76 20	 push	 DWORD PTR [esi+32]
  00021	ff d3		 call	 ebx
  00023	50		 push	 eax
  00024	e8 00 00 00 00	 call	 ?FromHandle@CWnd@@SGPAV1@PAUHWND__@@@Z ; CWnd::FromHandle
  00029	ff 70 20	 push	 DWORD PTR [eax+32]
  0002c	ff d3		 call	 ebx
  0002e	50		 push	 eax
  0002f	e8 00 00 00 00	 call	 ?FromHandle@CWnd@@SGPAV1@PAUHWND__@@@Z ; CWnd::FromHandle
; File D:\git\src\IBK\IBK_DRFN\ProjSrc\SrcDrfn\Chart\MULTICHART\XTabCtrl.cpp

; 217  : 		BOOL bExtraChart = pParent->IsChartScreen("OldFuture");

  00034	68 00 00 00 00	 push	 OFFSET ??_C@_09POEKPOBJ@OldFuture@
  00039	8b c8		 mov	 ecx, eax
  0003b	e8 00 00 00 00	 call	 ?IsChartScreen@CStdDialog@@QAEHPBD@Z ; CStdDialog::IsChartScreen

; 218  : 		if(bExtraChart)

  00040	85 c0		 test	 eax, eax
  00042	b9 01 00 00 00	 mov	 ecx, 1
  00047	0f 45 f9	 cmovne	 edi, ecx

; 203  : 	if(m_pTabDlgFocused)

  0004a	8b 8e d8 00 00
	00		 mov	 ecx, DWORD PTR [esi+216]
  00050	85 c9		 test	 ecx, ecx
  00052	74 26		 je	 SHORT $LN59@ShowTab

; 204  : 	{
; 205  : 		if( m_pTabDlgFocused->GetSafeHwnd() )

  00054	83 79 20 00	 cmp	 DWORD PTR [ecx+32], 0
  00058	74 0f		 je	 SHORT $LN180@ShowTab

; 206  : 			m_pTabDlgFocused->DestroyWindow();		

  0005a	8b 01		 mov	 eax, DWORD PTR [ecx]
  0005c	ff 50 68	 call	 DWORD PTR [eax+104]
  0005f	8b 8e d8 00 00
	00		 mov	 ecx, DWORD PTR [esi+216]

; 207  : 		delete m_pTabDlgFocused;

  00065	85 c9		 test	 ecx, ecx
  00067	74 07		 je	 SHORT $LN62@ShowTab
$LN180@ShowTab:
  00069	8b 01		 mov	 eax, DWORD PTR [ecx]
  0006b	6a 01		 push	 1
  0006d	ff 50 04	 call	 DWORD PTR [eax+4]
$LN62@ShowTab:

; 208  : 		m_pTabDlgFocused = NULL;	

  00070	c7 86 d8 00 00
	00 00 00 00 00	 mov	 DWORD PTR [esi+216], 0
$LN59@ShowTab:

; 219  : 			nIndex = TABNO_ASSISTINDEX;
; 220  : 	}
; 221  : 
; 222  : 	if(nIndex==TABNO_SYSTEMTRADING)
; 223  : 	{
; 224  : //		CStdDialog* pParent = (CStdDialog*)GetParent()->GetParent();
; 225  : //		if(!pParent->IsSystemTradingUser())
; 226  : //		{
; 227  : //			CString strMessage = _T("시스템트레이딩 사용신청을 하지 않았습니다. 신청하시겠습니까?");
; 228  : //			int nID = MessageBox(strMessage, _T("시스템트레이딩"), MB_YESNO);
; 229  : //			if(nID == IDYES)
; 230  : //				pParent->OpenScreen(_T("6702"));
; 231  : //		
; 232  : //			SetCurSel(0);
; 233  : //			return;
; 234  : //		}
; 235  : 	}
; 236  : 
; 237  : 	DeleteCurrentDlg();
; 238  : 	//SetCurSel(nIndex);
; 239  : 
; 240  : 	if(/*m_nMarketType == STOCK_CHART&&*/nIndex==TABNO_CODESEARCH)// gm0604 modified 2005.11.13

  0007a	8b 8e dc 00 00
	00		 mov	 ecx, DWORD PTR [esi+220]
  00080	85 ff		 test	 edi, edi
  00082	0f 85 54 01 00
	00		 jne	 $LN4@ShowTab

; 242  : 		if(m_pTabDlgCodeSearch && m_pTabDlgCodeSearch->IsWindowVisible())

  00088	85 c9		 test	 ecx, ecx
  0008a	74 11		 je	 SHORT $LN6@ShowTab
; File C:\Program Files (x86)\Microsoft Visual Studio\2019\Community\VC\Tools\MSVC\14.29.30133\atlmfc\include\afxwin2.inl

; 124  : 	{ ASSERT(::IsWindow(m_hWnd)); return ::IsWindowVisible(m_hWnd); }

  0008c	ff 71 20	 push	 DWORD PTR [ecx+32]
  0008f	ff 15 00 00 00
	00		 call	 DWORD PTR __imp__IsWindowVisible@4
; File D:\git\src\IBK\IBK_DRFN\ProjSrc\SrcDrfn\Chart\MULTICHART\XTabCtrl.cpp

; 242  : 		if(m_pTabDlgCodeSearch && m_pTabDlgCodeSearch->IsWindowVisible())

  00095	85 c0		 test	 eax, eax
  00097	0f 85 af 04 00
	00		 jne	 $LN49@ShowTab
$LN6@ShowTab:

; 243  : 			return;
; 244  : 		
; 245  : 		if(m_pTabDlgSystemTabEx && m_pTabDlgSystemTabEx->GetSafeHwnd()) m_pTabDlgSystemTabEx->ShowWindow(SW_HIDE);

  0009d	8b 8e e0 00 00
	00		 mov	 ecx, DWORD PTR [esi+224]
  000a3	85 c9		 test	 ecx, ecx
  000a5	74 0d		 je	 SHORT $LN7@ShowTab
  000a7	83 79 20 00	 cmp	 DWORD PTR [ecx+32], 0
  000ab	74 07		 je	 SHORT $LN7@ShowTab
  000ad	6a 00		 push	 0
  000af	e8 00 00 00 00	 call	 ?ShowWindow@CWnd@@QAEHH@Z ; CWnd::ShowWindow
$LN7@ShowTab:

; 246  : 		if(m_pTabIndices && m_pTabIndices->GetSafeHwnd()) m_pTabIndices->ShowWindow(SW_HIDE);

  000b4	8b 8e e4 00 00
	00		 mov	 ecx, DWORD PTR [esi+228]
  000ba	85 c9		 test	 ecx, ecx
  000bc	74 0d		 je	 SHORT $LN8@ShowTab
  000be	83 79 20 00	 cmp	 DWORD PTR [ecx+32], 0
  000c2	74 07		 je	 SHORT $LN8@ShowTab
  000c4	6a 00		 push	 0
  000c6	e8 00 00 00 00	 call	 ?ShowWindow@CWnd@@QAEHH@Z ; CWnd::ShowWindow
$LN8@ShowTab:

; 247  : 		if( (m_pTabDlgCodeSearch == NULL) ||

  000cb	8b 86 dc 00 00
	00		 mov	 eax, DWORD PTR [esi+220]
  000d1	8b 1d 00 00 00
	00		 mov	 ebx, DWORD PTR __imp__SendMessageA@16
  000d7	85 c0		 test	 eax, eax
  000d9	74 06		 je	 SHORT $LN10@ShowTab
  000db	83 78 20 00	 cmp	 DWORD PTR [eax+32], 0
  000df	75 59		 jne	 SHORT $LN12@ShowTab
$LN10@ShowTab:

; 251  : 			m_pTabDlgCodeSearch = m_tabDlgCreator.CreateTabDlg(TABNO_CODESEARCH);

  000e1	6a 00		 push	 0
  000e3	8d 8e 8c 00 00
	00		 lea	 ecx, DWORD PTR [esi+140]
  000e9	e8 00 00 00 00	 call	 ?CreateTabDlg@CTabDlgCreator@@QAEPAVCTabDlg@@I@Z ; CTabDlgCreator::CreateTabDlg
; File C:\Program Files (x86)\Microsoft Visual Studio\2019\Community\VC\Tools\MSVC\14.29.30133\atlmfc\include\afxwin2.inl

; 213  : 	{ ASSERT(::IsWindow(m_hWnd)); return CWnd::FromHandle(::GetParent(m_hWnd)); }

  000ee	ff 76 20	 push	 DWORD PTR [esi+32]
  000f1	8b 3d 00 00 00
	00		 mov	 edi, DWORD PTR __imp__GetParent@4
; File D:\git\src\IBK\IBK_DRFN\ProjSrc\SrcDrfn\Chart\MULTICHART\XTabCtrl.cpp

; 251  : 			m_pTabDlgCodeSearch = m_tabDlgCreator.CreateTabDlg(TABNO_CODESEARCH);

  000f7	89 86 dc 00 00
	00		 mov	 DWORD PTR [esi+220], eax
; File C:\Program Files (x86)\Microsoft Visual Studio\2019\Community\VC\Tools\MSVC\14.29.30133\atlmfc\include\afxwin2.inl

; 213  : 	{ ASSERT(::IsWindow(m_hWnd)); return CWnd::FromHandle(::GetParent(m_hWnd)); }

  000fd	ff d7		 call	 edi
  000ff	50		 push	 eax
  00100	e8 00 00 00 00	 call	 ?FromHandle@CWnd@@SGPAV1@PAUHWND__@@@Z ; CWnd::FromHandle
  00105	ff 70 20	 push	 DWORD PTR [eax+32]
  00108	ff d7		 call	 edi
  0010a	50		 push	 eax
  0010b	e8 00 00 00 00	 call	 ?FromHandle@CWnd@@SGPAV1@PAUHWND__@@@Z ; CWnd::FromHandle

; 32   : 	{ ASSERT(::IsWindow(m_hWnd)); return ::SendMessage(m_hWnd, message, wParam, lParam); }

  00110	8d 4d d0	 lea	 ecx, DWORD PTR _tabColor$3[ebp]
  00113	51		 push	 ecx
  00114	6a 01		 push	 1
  00116	ff 35 00 00 00
	00		 push	 DWORD PTR ?RMSG_GET_SKINCOLOR@@3IB
  0011c	ff 70 20	 push	 DWORD PTR [eax+32]
  0011f	ff d3		 call	 ebx
; File D:\git\src\IBK\IBK_DRFN\ProjSrc\SrcDrfn\Chart\MULTICHART\XTabCtrl.cpp

; 255  : 			if((COLORREF)pStdDialog->SendMessage(RMSG_GET_SKINCOLOR, (WPARAM)1, (LPARAM)&tabColor))

  00121	85 c0		 test	 eax, eax
  00123	74 15		 je	 SHORT $LN12@ShowTab

; 256  : 			{
; 257  : 				if(m_pTabDlgCodeSearch)		m_pTabDlgCodeSearch->ChangeSkinColor(tabColor.clrTabBkgrnd);

  00125	8b 8e dc 00 00
	00		 mov	 ecx, DWORD PTR [esi+220]
  0012b	85 c9		 test	 ecx, ecx
  0012d	74 0b		 je	 SHORT $LN12@ShowTab
  0012f	8b 01		 mov	 eax, DWORD PTR [ecx]
  00131	ff 75 d8	 push	 DWORD PTR _tabColor$3[ebp+8]
  00134	ff 90 a0 01 00
	00		 call	 DWORD PTR [eax+416]
$LN12@ShowTab:
; File C:\Program Files (x86)\Microsoft Visual Studio\2019\Community\VC\Tools\MSVC\14.29.30133\atlmfc\include\afxwin2.inl

; 86   : 	{ ASSERT(::IsWindow(m_hWnd)); ::GetClientRect(m_hWnd, lpRect); }

  0013a	8d 45 ec	 lea	 eax, DWORD PTR _rect$10[ebp]
  0013d	0f 57 c0	 xorps	 xmm0, xmm0
  00140	50		 push	 eax
  00141	ff 76 20	 push	 DWORD PTR [esi+32]
; File C:\Program Files (x86)\Microsoft Visual Studio\2019\Community\VC\Tools\MSVC\14.29.30133\atlmfc\include\atltypes.h

; 528  : 	left = 0;

  00144	0f 11 45 ec	 movups	 XMMWORD PTR _rect$10[ebp], xmm0
; File C:\Program Files (x86)\Microsoft Visual Studio\2019\Community\VC\Tools\MSVC\14.29.30133\atlmfc\include\afxwin2.inl

; 86   : 	{ ASSERT(::IsWindow(m_hWnd)); ::GetClientRect(m_hWnd, lpRect); }

  00148	ff 15 00 00 00
	00		 call	 DWORD PTR __imp__GetClientRect@8
; File D:\git\src\IBK\IBK_DRFN\ProjSrc\SrcDrfn\Chart\MULTICHART\XTabCtrl.cpp

; 264  : 		int x = m_ptTabs.x;

  0014e	8b be a8 00 00
	00		 mov	 edi, DWORD PTR [esi+168]
; File C:\Program Files (x86)\Microsoft Visual Studio\2019\Community\VC\Tools\MSVC\14.29.30133\atlmfc\include\afxcmn.inl

; 584  : 	{ ASSERT(::IsWindow(m_hWnd)); return (BOOL)::SendMessage(m_hWnd, TCM_GETITEMRECT, nItem, (LPARAM)lpRect); }

  00154	8d 45 dc	 lea	 eax, DWORD PTR _rect$6[ebp]
  00157	50		 push	 eax
  00158	6a 00		 push	 0
  0015a	68 0a 13 00 00	 push	 4874			; 0000130aH
  0015f	ff 76 20	 push	 DWORD PTR [esi+32]
  00162	ff d3		 call	 ebx
; File D:\git\src\IBK\IBK_DRFN\ProjSrc\SrcDrfn\Chart\MULTICHART\XTabCtrl.cpp

; 265  : 		int y = m_ptTabs.y+(m_nRowCnt-1)*GetTabHeight();

  00164	8b 96 d4 00 00
	00		 mov	 edx, DWORD PTR [esi+212]
; File D:\git\src\IBK\IBK_DRFN\ProjSrc\SrcDrfn\Chart\MULTICHART\XTabCtrl.h

; 51   : 	long GetTabHeight() { RECT rect; GetItemRect(0,&rect); return(rect.bottom-rect.top);}

  0016a	8b 4d e8	 mov	 ecx, DWORD PTR _rect$6[ebp+12]
  0016d	2b 4d e0	 sub	 ecx, DWORD PTR _rect$6[ebp+4]
; File D:\git\src\IBK\IBK_DRFN\ProjSrc\SrcDrfn\Chart\MULTICHART\XTabCtrl.cpp

; 265  : 		int y = m_ptTabs.y+(m_nRowCnt-1)*GetTabHeight();

  00170	8d 42 ff	 lea	 eax, DWORD PTR [edx-1]
  00173	0f af c8	 imul	 ecx, eax
  00176	03 8e ac 00 00
	00		 add	 ecx, DWORD PTR [esi+172]

; 266  : 		//2005. 05. 17 -------------------------------------------------------
; 267  : 		//전체 Row수가 2개 이상이 되면 화면이 보이는 위치를 조절한다.
; 268  : 		//--------------------------------------------------------------------
; 269  : 		if(m_nRowCnt == 3)

  0017c	83 fa 03	 cmp	 edx, 3
  0017f	75 05		 jne	 SHORT $LN13@ShowTab

; 270  : 			y += 8;

  00181	83 c1 08	 add	 ecx, 8
  00184	eb 05		 jmp	 SHORT $LN15@ShowTab
$LN13@ShowTab:

; 271  : 		else if(m_nRowCnt > 3)

  00186	7e 03		 jle	 SHORT $LN15@ShowTab

; 272  : 			y += 10;

  00188	83 c1 0a	 add	 ecx, 10			; 0000000aH
$LN15@ShowTab:

; 273  : 		//--------------------------------------------------------------------
; 274  : 		if(m_pTabDlgCodeSearch && m_pTabDlgCodeSearch->GetSafeHwnd())

  0018b	8b 96 dc 00 00
	00		 mov	 edx, DWORD PTR [esi+220]
  00191	85 d2		 test	 edx, edx
  00193	0f 84 b3 03 00
	00		 je	 $LN49@ShowTab
  00199	83 7a 20 00	 cmp	 DWORD PTR [edx+32], 0
  0019d	0f 84 a9 03 00
	00		 je	 $LN49@ShowTab

; 275  : 		{
; 276  : 			m_pTabDlgCodeSearch->SetWindowPos(NULL, x, y , rect.right - x, rect.bottom - y,

  001a3	8b 45 f8	 mov	 eax, DWORD PTR _rect$10[ebp+12]
  001a6	6a 24		 push	 36			; 00000024H
  001a8	2b c1		 sub	 eax, ecx
  001aa	50		 push	 eax
  001ab	8b 45 f4	 mov	 eax, DWORD PTR _rect$10[ebp+8]
  001ae	2b c7		 sub	 eax, edi
  001b0	50		 push	 eax
  001b1	51		 push	 ecx
  001b2	57		 push	 edi
  001b3	6a 00		 push	 0
  001b5	8b ca		 mov	 ecx, edx
  001b7	e8 00 00 00 00	 call	 ?SetWindowPos@CWnd@@QAEHPBV1@HHHHI@Z ; CWnd::SetWindowPos

; 277  : 								SWP_FRAMECHANGED| SWP_NOZORDER);
; 278  : 			m_pTabDlgCodeSearch->ShowWindow(SW_SHOW);

  001bc	8b 8e dc 00 00
	00		 mov	 ecx, DWORD PTR [esi+220]
  001c2	6a 05		 push	 5
  001c4	e8 00 00 00 00	 call	 ?ShowWindow@CWnd@@QAEHH@Z ; CWnd::ShowWindow
  001c9	5f		 pop	 edi

; 418  : 		}
; 419  : 	}
; 420  : 
; 421  : }

  001ca	5e		 pop	 esi
  001cb	5b		 pop	 ebx
  001cc	8b 4d fc	 mov	 ecx, DWORD PTR __$ArrayPad$[ebp]
  001cf	33 cd		 xor	 ecx, ebp
  001d1	e8 00 00 00 00	 call	 @__security_check_cookie@4
  001d6	8b e5		 mov	 esp, ebp
  001d8	5d		 pop	 ebp
  001d9	c2 04 00	 ret	 4
$LN4@ShowTab:

; 279  : 		}
; 280  : 	}//@@@@@06.11.20 [[
; 281  : 	else if(nIndex==TABNO_SYSTEMTRADING)

  001dc	83 ff 02	 cmp	 edi, 2
  001df	0f 85 28 01 00
	00		 jne	 $LN17@ShowTab

; 282  : 	{
; 283  : 		if(m_pTabDlgCodeSearch && m_pTabDlgCodeSearch->GetSafeHwnd()) m_pTabDlgCodeSearch->ShowWindow(SW_HIDE);

  001e5	85 c9		 test	 ecx, ecx
  001e7	74 0d		 je	 SHORT $LN19@ShowTab
  001e9	83 79 20 00	 cmp	 DWORD PTR [ecx+32], 0
  001ed	74 07		 je	 SHORT $LN19@ShowTab
  001ef	6a 00		 push	 0
  001f1	e8 00 00 00 00	 call	 ?ShowWindow@CWnd@@QAEHH@Z ; CWnd::ShowWindow
$LN19@ShowTab:

; 284  : 		if(m_pTabIndices && m_pTabIndices->GetSafeHwnd()) m_pTabIndices->ShowWindow(SW_HIDE);

  001f6	8b 8e e4 00 00
	00		 mov	 ecx, DWORD PTR [esi+228]
  001fc	85 c9		 test	 ecx, ecx
  001fe	74 0d		 je	 SHORT $LN20@ShowTab
  00200	83 79 20 00	 cmp	 DWORD PTR [ecx+32], 0
  00204	74 07		 je	 SHORT $LN20@ShowTab
  00206	6a 00		 push	 0
  00208	e8 00 00 00 00	 call	 ?ShowWindow@CWnd@@QAEHH@Z ; CWnd::ShowWindow
$LN20@ShowTab:

; 285  : 
; 286  : 		if( (m_pTabDlgSystemTabEx == NULL) ||

  0020d	8b 86 e0 00 00
	00		 mov	 eax, DWORD PTR [esi+224]
  00213	8b 1d 00 00 00
	00		 mov	 ebx, DWORD PTR __imp__SendMessageA@16
  00219	85 c0		 test	 eax, eax
  0021b	74 06		 je	 SHORT $LN22@ShowTab
  0021d	83 78 20 00	 cmp	 DWORD PTR [eax+32], 0
  00221	75 59		 jne	 SHORT $LN24@ShowTab
$LN22@ShowTab:

; 289  : 			m_pTabDlgSystemTabEx = m_tabDlgCreator.CreateTabDlg(TABNO_SYSTEMTRADING);

  00223	6a 02		 push	 2
  00225	8d 8e 8c 00 00
	00		 lea	 ecx, DWORD PTR [esi+140]
  0022b	e8 00 00 00 00	 call	 ?CreateTabDlg@CTabDlgCreator@@QAEPAVCTabDlg@@I@Z ; CTabDlgCreator::CreateTabDlg
; File C:\Program Files (x86)\Microsoft Visual Studio\2019\Community\VC\Tools\MSVC\14.29.30133\atlmfc\include\afxwin2.inl

; 213  : 	{ ASSERT(::IsWindow(m_hWnd)); return CWnd::FromHandle(::GetParent(m_hWnd)); }

  00230	ff 76 20	 push	 DWORD PTR [esi+32]
  00233	8b 3d 00 00 00
	00		 mov	 edi, DWORD PTR __imp__GetParent@4
; File D:\git\src\IBK\IBK_DRFN\ProjSrc\SrcDrfn\Chart\MULTICHART\XTabCtrl.cpp

; 289  : 			m_pTabDlgSystemTabEx = m_tabDlgCreator.CreateTabDlg(TABNO_SYSTEMTRADING);

  00239	89 86 e0 00 00
	00		 mov	 DWORD PTR [esi+224], eax
; File C:\Program Files (x86)\Microsoft Visual Studio\2019\Community\VC\Tools\MSVC\14.29.30133\atlmfc\include\afxwin2.inl

; 213  : 	{ ASSERT(::IsWindow(m_hWnd)); return CWnd::FromHandle(::GetParent(m_hWnd)); }

  0023f	ff d7		 call	 edi
  00241	50		 push	 eax
  00242	e8 00 00 00 00	 call	 ?FromHandle@CWnd@@SGPAV1@PAUHWND__@@@Z ; CWnd::FromHandle
  00247	ff 70 20	 push	 DWORD PTR [eax+32]
  0024a	ff d7		 call	 edi
  0024c	50		 push	 eax
  0024d	e8 00 00 00 00	 call	 ?FromHandle@CWnd@@SGPAV1@PAUHWND__@@@Z ; CWnd::FromHandle

; 32   : 	{ ASSERT(::IsWindow(m_hWnd)); return ::SendMessage(m_hWnd, message, wParam, lParam); }

  00252	8d 4d d0	 lea	 ecx, DWORD PTR _tabColor$2[ebp]
  00255	51		 push	 ecx
  00256	6a 01		 push	 1
  00258	ff 35 00 00 00
	00		 push	 DWORD PTR ?RMSG_GET_SKINCOLOR@@3IB
  0025e	ff 70 20	 push	 DWORD PTR [eax+32]
  00261	ff d3		 call	 ebx
; File D:\git\src\IBK\IBK_DRFN\ProjSrc\SrcDrfn\Chart\MULTICHART\XTabCtrl.cpp

; 293  : 			if((COLORREF)pStdDialog->SendMessage(RMSG_GET_SKINCOLOR, (WPARAM)1, (LPARAM)&tabColor))

  00263	85 c0		 test	 eax, eax
  00265	74 15		 je	 SHORT $LN24@ShowTab

; 294  : 			{
; 295  : 				if(m_pTabDlgSystemTabEx)		m_pTabDlgSystemTabEx->ChangeSkinColor(tabColor.clrTabBkgrnd);

  00267	8b 8e e0 00 00
	00		 mov	 ecx, DWORD PTR [esi+224]
  0026d	85 c9		 test	 ecx, ecx
  0026f	74 0b		 je	 SHORT $LN24@ShowTab
  00271	8b 01		 mov	 eax, DWORD PTR [ecx]
  00273	ff 75 d8	 push	 DWORD PTR _tabColor$2[ebp+8]
  00276	ff 90 a0 01 00
	00		 call	 DWORD PTR [eax+416]
$LN24@ShowTab:
; File C:\Program Files (x86)\Microsoft Visual Studio\2019\Community\VC\Tools\MSVC\14.29.30133\atlmfc\include\afxwin2.inl

; 86   : 	{ ASSERT(::IsWindow(m_hWnd)); ::GetClientRect(m_hWnd, lpRect); }

  0027c	8d 45 ec	 lea	 eax, DWORD PTR _rect$9[ebp]
  0027f	0f 57 c0	 xorps	 xmm0, xmm0
  00282	50		 push	 eax
  00283	ff 76 20	 push	 DWORD PTR [esi+32]
; File C:\Program Files (x86)\Microsoft Visual Studio\2019\Community\VC\Tools\MSVC\14.29.30133\atlmfc\include\atltypes.h

; 528  : 	left = 0;

  00286	0f 11 45 ec	 movups	 XMMWORD PTR _rect$9[ebp], xmm0
; File C:\Program Files (x86)\Microsoft Visual Studio\2019\Community\VC\Tools\MSVC\14.29.30133\atlmfc\include\afxwin2.inl

; 86   : 	{ ASSERT(::IsWindow(m_hWnd)); ::GetClientRect(m_hWnd, lpRect); }

  0028a	ff 15 00 00 00
	00		 call	 DWORD PTR __imp__GetClientRect@8
; File D:\git\src\IBK\IBK_DRFN\ProjSrc\SrcDrfn\Chart\MULTICHART\XTabCtrl.cpp

; 300  : 		int x = m_ptTabs.x - 2;

  00290	8b be a8 00 00
	00		 mov	 edi, DWORD PTR [esi+168]
; File C:\Program Files (x86)\Microsoft Visual Studio\2019\Community\VC\Tools\MSVC\14.29.30133\atlmfc\include\afxcmn.inl

; 584  : 	{ ASSERT(::IsWindow(m_hWnd)); return (BOOL)::SendMessage(m_hWnd, TCM_GETITEMRECT, nItem, (LPARAM)lpRect); }

  00296	8d 45 dc	 lea	 eax, DWORD PTR _rect$5[ebp]
  00299	50		 push	 eax
  0029a	6a 00		 push	 0
  0029c	68 0a 13 00 00	 push	 4874			; 0000130aH
  002a1	ff 76 20	 push	 DWORD PTR [esi+32]
; File D:\git\src\IBK\IBK_DRFN\ProjSrc\SrcDrfn\Chart\MULTICHART\XTabCtrl.cpp

; 300  : 		int x = m_ptTabs.x - 2;

  002a4	83 ef 02	 sub	 edi, 2
; File C:\Program Files (x86)\Microsoft Visual Studio\2019\Community\VC\Tools\MSVC\14.29.30133\atlmfc\include\afxcmn.inl

; 584  : 	{ ASSERT(::IsWindow(m_hWnd)); return (BOOL)::SendMessage(m_hWnd, TCM_GETITEMRECT, nItem, (LPARAM)lpRect); }

  002a7	ff d3		 call	 ebx
; File D:\git\src\IBK\IBK_DRFN\ProjSrc\SrcDrfn\Chart\MULTICHART\XTabCtrl.cpp

; 301  : 		int y = m_ptTabs.y+(m_nRowCnt-1)*GetTabHeight();

  002a9	8b 96 d4 00 00
	00		 mov	 edx, DWORD PTR [esi+212]
; File D:\git\src\IBK\IBK_DRFN\ProjSrc\SrcDrfn\Chart\MULTICHART\XTabCtrl.h

; 51   : 	long GetTabHeight() { RECT rect; GetItemRect(0,&rect); return(rect.bottom-rect.top);}

  002af	8b 4d e8	 mov	 ecx, DWORD PTR _rect$5[ebp+12]
  002b2	2b 4d e0	 sub	 ecx, DWORD PTR _rect$5[ebp+4]
; File D:\git\src\IBK\IBK_DRFN\ProjSrc\SrcDrfn\Chart\MULTICHART\XTabCtrl.cpp

; 301  : 		int y = m_ptTabs.y+(m_nRowCnt-1)*GetTabHeight();

  002b5	8d 42 ff	 lea	 eax, DWORD PTR [edx-1]
  002b8	0f af c8	 imul	 ecx, eax
  002bb	03 8e ac 00 00
	00		 add	 ecx, DWORD PTR [esi+172]

; 302  : 		//2005. 05. 17 -------------------------------------------------------
; 303  : 		//전체 Row수가 2개 이상이 되면 화면이 보이는 위치를 조절한다.
; 304  : 		//--------------------------------------------------------------------
; 305  : 		if(m_nRowCnt == 3)

  002c1	83 fa 03	 cmp	 edx, 3
  002c4	75 05		 jne	 SHORT $LN25@ShowTab

; 306  : 			y += 8;

  002c6	83 c1 08	 add	 ecx, 8
  002c9	eb 05		 jmp	 SHORT $LN27@ShowTab
$LN25@ShowTab:

; 307  : 		else if(m_nRowCnt > 3)

  002cb	7e 03		 jle	 SHORT $LN27@ShowTab

; 308  : 			y += 10;

  002cd	83 c1 0a	 add	 ecx, 10			; 0000000aH
$LN27@ShowTab:

; 309  : 		//--------------------------------------------------------------------
; 310  : 		m_pTabDlgSystemTabEx->SetWindowPos(NULL, x, y , rect.right - x, rect.bottom - y,

  002d0	8b 45 f8	 mov	 eax, DWORD PTR _rect$9[ebp+12]
  002d3	6a 24		 push	 36			; 00000024H
  002d5	2b c1		 sub	 eax, ecx
  002d7	50		 push	 eax
  002d8	8b 45 f4	 mov	 eax, DWORD PTR _rect$9[ebp+8]
  002db	2b c7		 sub	 eax, edi
  002dd	50		 push	 eax
  002de	51		 push	 ecx
  002df	8b 8e e0 00 00
	00		 mov	 ecx, DWORD PTR [esi+224]
  002e5	57		 push	 edi
  002e6	6a 00		 push	 0
  002e8	e8 00 00 00 00	 call	 ?SetWindowPos@CWnd@@QAEHPBV1@HHHHI@Z ; CWnd::SetWindowPos

; 311  : 			SWP_FRAMECHANGED| SWP_NOZORDER);
; 312  : 		m_pTabDlgSystemTabEx->ShowWindow(SW_SHOW);

  002ed	8b 8e e0 00 00
	00		 mov	 ecx, DWORD PTR [esi+224]
  002f3	6a 05		 push	 5
  002f5	e8 00 00 00 00	 call	 ?ShowWindow@CWnd@@QAEHH@Z ; CWnd::ShowWindow
  002fa	5f		 pop	 edi

; 418  : 		}
; 419  : 	}
; 420  : 
; 421  : }

  002fb	5e		 pop	 esi
  002fc	5b		 pop	 ebx
  002fd	8b 4d fc	 mov	 ecx, DWORD PTR __$ArrayPad$[ebp]
  00300	33 cd		 xor	 ecx, ebp
  00302	e8 00 00 00 00	 call	 @__security_check_cookie@4
  00307	8b e5		 mov	 esp, ebp
  00309	5d		 pop	 ebp
  0030a	c2 04 00	 ret	 4
$LN17@ShowTab:

; 313  : 	}
; 314  : 	//@@@@@06.11.20 ]]
; 315  : 	//@@@@@06.12.07 [[
; 316  : 	else if(nIndex==TABNO_ASSISTINDEX)

  0030d	83 ff 01	 cmp	 edi, 1
  00310	0f 85 3c 01 00
	00		 jne	 $LN28@ShowTab

; 317  : 	{
; 318  : 		if(m_pTabDlgCodeSearch && m_pTabDlgCodeSearch->GetSafeHwnd()) m_pTabDlgCodeSearch->ShowWindow(SW_HIDE);

  00316	85 c9		 test	 ecx, ecx
  00318	74 0d		 je	 SHORT $LN30@ShowTab
  0031a	83 79 20 00	 cmp	 DWORD PTR [ecx+32], 0
  0031e	74 07		 je	 SHORT $LN30@ShowTab
  00320	6a 00		 push	 0
  00322	e8 00 00 00 00	 call	 ?ShowWindow@CWnd@@QAEHH@Z ; CWnd::ShowWindow
$LN30@ShowTab:

; 319  : 		if(m_pTabDlgSystemTabEx && m_pTabDlgSystemTabEx->GetSafeHwnd()) m_pTabDlgSystemTabEx->ShowWindow(SW_HIDE);

  00327	8b 8e e0 00 00
	00		 mov	 ecx, DWORD PTR [esi+224]
  0032d	85 c9		 test	 ecx, ecx
  0032f	74 0d		 je	 SHORT $LN31@ShowTab
  00331	83 79 20 00	 cmp	 DWORD PTR [ecx+32], 0
  00335	74 07		 je	 SHORT $LN31@ShowTab
  00337	6a 00		 push	 0
  00339	e8 00 00 00 00	 call	 ?ShowWindow@CWnd@@QAEHH@Z ; CWnd::ShowWindow
$LN31@ShowTab:

; 320  : 
; 321  : 		if( (m_pTabIndices == NULL) ||

  0033e	8b 86 e4 00 00
	00		 mov	 eax, DWORD PTR [esi+228]
  00344	8b 1d 00 00 00
	00		 mov	 ebx, DWORD PTR __imp__SendMessageA@16
  0034a	85 c0		 test	 eax, eax
  0034c	74 06		 je	 SHORT $LN33@ShowTab
  0034e	83 78 20 00	 cmp	 DWORD PTR [eax+32], 0
  00352	75 59		 jne	 SHORT $LN35@ShowTab
$LN33@ShowTab:

; 324  : 			m_pTabIndices = m_tabDlgCreator.CreateTabDlg(TABNO_ASSISTINDEX);

  00354	6a 01		 push	 1
  00356	8d 8e 8c 00 00
	00		 lea	 ecx, DWORD PTR [esi+140]
  0035c	e8 00 00 00 00	 call	 ?CreateTabDlg@CTabDlgCreator@@QAEPAVCTabDlg@@I@Z ; CTabDlgCreator::CreateTabDlg
; File C:\Program Files (x86)\Microsoft Visual Studio\2019\Community\VC\Tools\MSVC\14.29.30133\atlmfc\include\afxwin2.inl

; 213  : 	{ ASSERT(::IsWindow(m_hWnd)); return CWnd::FromHandle(::GetParent(m_hWnd)); }

  00361	ff 76 20	 push	 DWORD PTR [esi+32]
  00364	8b 3d 00 00 00
	00		 mov	 edi, DWORD PTR __imp__GetParent@4
; File D:\git\src\IBK\IBK_DRFN\ProjSrc\SrcDrfn\Chart\MULTICHART\XTabCtrl.cpp

; 324  : 			m_pTabIndices = m_tabDlgCreator.CreateTabDlg(TABNO_ASSISTINDEX);

  0036a	89 86 e4 00 00
	00		 mov	 DWORD PTR [esi+228], eax
; File C:\Program Files (x86)\Microsoft Visual Studio\2019\Community\VC\Tools\MSVC\14.29.30133\atlmfc\include\afxwin2.inl

; 213  : 	{ ASSERT(::IsWindow(m_hWnd)); return CWnd::FromHandle(::GetParent(m_hWnd)); }

  00370	ff d7		 call	 edi
  00372	50		 push	 eax
  00373	e8 00 00 00 00	 call	 ?FromHandle@CWnd@@SGPAV1@PAUHWND__@@@Z ; CWnd::FromHandle
  00378	ff 70 20	 push	 DWORD PTR [eax+32]
  0037b	ff d7		 call	 edi
  0037d	50		 push	 eax
  0037e	e8 00 00 00 00	 call	 ?FromHandle@CWnd@@SGPAV1@PAUHWND__@@@Z ; CWnd::FromHandle

; 32   : 	{ ASSERT(::IsWindow(m_hWnd)); return ::SendMessage(m_hWnd, message, wParam, lParam); }

  00383	8d 4d d0	 lea	 ecx, DWORD PTR _tabColor$1[ebp]
  00386	51		 push	 ecx
  00387	6a 01		 push	 1
  00389	ff 35 00 00 00
	00		 push	 DWORD PTR ?RMSG_GET_SKINCOLOR@@3IB
  0038f	ff 70 20	 push	 DWORD PTR [eax+32]
  00392	ff d3		 call	 ebx
; File D:\git\src\IBK\IBK_DRFN\ProjSrc\SrcDrfn\Chart\MULTICHART\XTabCtrl.cpp

; 328  : 			if((COLORREF)pStdDialog->SendMessage(RMSG_GET_SKINCOLOR, (WPARAM)1, (LPARAM)&tabColor))

  00394	85 c0		 test	 eax, eax
  00396	74 15		 je	 SHORT $LN35@ShowTab

; 329  : 			{
; 330  : 				if(m_pTabIndices)		m_pTabIndices->ChangeSkinColor(tabColor.clrTabBkgrnd);

  00398	8b 8e e4 00 00
	00		 mov	 ecx, DWORD PTR [esi+228]
  0039e	85 c9		 test	 ecx, ecx
  003a0	74 0b		 je	 SHORT $LN35@ShowTab
  003a2	8b 01		 mov	 eax, DWORD PTR [ecx]
  003a4	ff 75 d8	 push	 DWORD PTR _tabColor$1[ebp+8]
  003a7	ff 90 a0 01 00
	00		 call	 DWORD PTR [eax+416]
$LN35@ShowTab:
; File C:\Program Files (x86)\Microsoft Visual Studio\2019\Community\VC\Tools\MSVC\14.29.30133\atlmfc\include\afxwin2.inl

; 86   : 	{ ASSERT(::IsWindow(m_hWnd)); ::GetClientRect(m_hWnd, lpRect); }

  003ad	8d 45 ec	 lea	 eax, DWORD PTR _rect$8[ebp]
  003b0	0f 57 c0	 xorps	 xmm0, xmm0
  003b3	50		 push	 eax
  003b4	ff 76 20	 push	 DWORD PTR [esi+32]
; File C:\Program Files (x86)\Microsoft Visual Studio\2019\Community\VC\Tools\MSVC\14.29.30133\atlmfc\include\atltypes.h

; 528  : 	left = 0;

  003b7	0f 11 45 ec	 movups	 XMMWORD PTR _rect$8[ebp], xmm0
; File C:\Program Files (x86)\Microsoft Visual Studio\2019\Community\VC\Tools\MSVC\14.29.30133\atlmfc\include\afxwin2.inl

; 86   : 	{ ASSERT(::IsWindow(m_hWnd)); ::GetClientRect(m_hWnd, lpRect); }

  003bb	ff 15 00 00 00
	00		 call	 DWORD PTR __imp__GetClientRect@8
; File D:\git\src\IBK\IBK_DRFN\ProjSrc\SrcDrfn\Chart\MULTICHART\XTabCtrl.cpp

; 335  : 		int x = m_ptTabs.x - 2;

  003c1	8b be a8 00 00
	00		 mov	 edi, DWORD PTR [esi+168]
; File C:\Program Files (x86)\Microsoft Visual Studio\2019\Community\VC\Tools\MSVC\14.29.30133\atlmfc\include\afxcmn.inl

; 584  : 	{ ASSERT(::IsWindow(m_hWnd)); return (BOOL)::SendMessage(m_hWnd, TCM_GETITEMRECT, nItem, (LPARAM)lpRect); }

  003c7	8d 45 dc	 lea	 eax, DWORD PTR _rect$4[ebp]
  003ca	50		 push	 eax
  003cb	6a 00		 push	 0
  003cd	68 0a 13 00 00	 push	 4874			; 0000130aH
  003d2	ff 76 20	 push	 DWORD PTR [esi+32]
; File D:\git\src\IBK\IBK_DRFN\ProjSrc\SrcDrfn\Chart\MULTICHART\XTabCtrl.cpp

; 335  : 		int x = m_ptTabs.x - 2;

  003d5	83 ef 02	 sub	 edi, 2
; File C:\Program Files (x86)\Microsoft Visual Studio\2019\Community\VC\Tools\MSVC\14.29.30133\atlmfc\include\afxcmn.inl

; 584  : 	{ ASSERT(::IsWindow(m_hWnd)); return (BOOL)::SendMessage(m_hWnd, TCM_GETITEMRECT, nItem, (LPARAM)lpRect); }

  003d8	ff d3		 call	 ebx
; File D:\git\src\IBK\IBK_DRFN\ProjSrc\SrcDrfn\Chart\MULTICHART\XTabCtrl.cpp

; 336  : 		int y = m_ptTabs.y+(m_nRowCnt-1)*GetTabHeight();

  003da	8b 96 d4 00 00
	00		 mov	 edx, DWORD PTR [esi+212]
; File D:\git\src\IBK\IBK_DRFN\ProjSrc\SrcDrfn\Chart\MULTICHART\XTabCtrl.h

; 51   : 	long GetTabHeight() { RECT rect; GetItemRect(0,&rect); return(rect.bottom-rect.top);}

  003e0	8b 4d e8	 mov	 ecx, DWORD PTR _rect$4[ebp+12]
  003e3	2b 4d e0	 sub	 ecx, DWORD PTR _rect$4[ebp+4]
; File D:\git\src\IBK\IBK_DRFN\ProjSrc\SrcDrfn\Chart\MULTICHART\XTabCtrl.cpp

; 336  : 		int y = m_ptTabs.y+(m_nRowCnt-1)*GetTabHeight();

  003e6	8d 42 ff	 lea	 eax, DWORD PTR [edx-1]
  003e9	0f af c8	 imul	 ecx, eax
  003ec	03 8e ac 00 00
	00		 add	 ecx, DWORD PTR [esi+172]

; 337  : 		//2005. 05. 17 -------------------------------------------------------
; 338  : 		//전체 Row수가 2개 이상이 되면 화면이 보이는 위치를 조절한다.
; 339  : 		//--------------------------------------------------------------------
; 340  : 		if(m_nRowCnt == 3)

  003f2	83 fa 03	 cmp	 edx, 3
  003f5	75 05		 jne	 SHORT $LN36@ShowTab

; 341  : 			y += 8;

  003f7	83 c1 08	 add	 ecx, 8
  003fa	eb 05		 jmp	 SHORT $LN38@ShowTab
$LN36@ShowTab:

; 342  : 		else if(m_nRowCnt > 3)

  003fc	7e 03		 jle	 SHORT $LN38@ShowTab

; 343  : 			y += 10;

  003fe	83 c1 0a	 add	 ecx, 10			; 0000000aH
$LN38@ShowTab:

; 344  : 		//--------------------------------------------------------------------
; 345  : 		if( m_pTabIndices && m_pTabIndices->GetSafeHwnd() )

  00401	8b 96 e4 00 00
	00		 mov	 edx, DWORD PTR [esi+228]
  00407	85 d2		 test	 edx, edx
  00409	0f 84 3d 01 00
	00		 je	 $LN49@ShowTab
  0040f	83 7a 20 00	 cmp	 DWORD PTR [edx+32], 0
  00413	0f 84 33 01 00
	00		 je	 $LN49@ShowTab

; 346  : 		{
; 347  : 			m_pTabIndices->SetWindowPos(NULL, x, y , rect.right - x, rect.bottom - y,

  00419	8b 45 f8	 mov	 eax, DWORD PTR _rect$8[ebp+12]
  0041c	6a 24		 push	 36			; 00000024H
  0041e	2b c1		 sub	 eax, ecx
  00420	50		 push	 eax
  00421	8b 45 f4	 mov	 eax, DWORD PTR _rect$8[ebp+8]
  00424	2b c7		 sub	 eax, edi
  00426	50		 push	 eax
  00427	51		 push	 ecx
  00428	57		 push	 edi
  00429	6a 00		 push	 0
  0042b	8b ca		 mov	 ecx, edx
  0042d	e8 00 00 00 00	 call	 ?SetWindowPos@CWnd@@QAEHPBV1@HHHHI@Z ; CWnd::SetWindowPos

; 348  : 				SWP_FRAMECHANGED| SWP_NOZORDER);
; 349  : 			m_pTabIndices->ShowWindow(SW_SHOW);

  00432	8b 8e e4 00 00
	00		 mov	 ecx, DWORD PTR [esi+228]
  00438	6a 05		 push	 5
  0043a	e8 00 00 00 00	 call	 ?ShowWindow@CWnd@@QAEHH@Z ; CWnd::ShowWindow
  0043f	5f		 pop	 edi

; 418  : 		}
; 419  : 	}
; 420  : 
; 421  : }

  00440	5e		 pop	 esi
  00441	5b		 pop	 ebx
  00442	8b 4d fc	 mov	 ecx, DWORD PTR __$ArrayPad$[ebp]
  00445	33 cd		 xor	 ecx, ebp
  00447	e8 00 00 00 00	 call	 @__security_check_cookie@4
  0044c	8b e5		 mov	 esp, ebp
  0044e	5d		 pop	 ebp
  0044f	c2 04 00	 ret	 4
$LN28@ShowTab:

; 350  : 		}
; 351  : 	}
; 352  : 	//@@@@@06.12.07 ]]
; 353  : 	else
; 354  : 	{
; 355  : 		
; 356  : 		if(		m_pTabDlgCodeSearch != NULL &&

  00452	85 c9		 test	 ecx, ecx
  00454	74 0d		 je	 SHORT $LN40@ShowTab
  00456	83 79 20 00	 cmp	 DWORD PTR [ecx+32], 0
  0045a	74 07		 je	 SHORT $LN40@ShowTab

; 357  : 				m_pTabDlgCodeSearch->GetSafeHwnd()
; 358  : 		)
; 359  : 		{
; 360  : 			m_pTabDlgCodeSearch->ShowWindow(SW_HIDE);

  0045c	6a 00		 push	 0
  0045e	e8 00 00 00 00	 call	 ?ShowWindow@CWnd@@QAEHH@Z ; CWnd::ShowWindow
$LN40@ShowTab:

; 361  : 		}
; 362  : 		//@@@@@06.11.20 [[
; 363  : 		if(		m_pTabDlgSystemTabEx != NULL &&

  00463	8b 8e e0 00 00
	00		 mov	 ecx, DWORD PTR [esi+224]
  00469	85 c9		 test	 ecx, ecx
  0046b	74 0d		 je	 SHORT $LN41@ShowTab
  0046d	83 79 20 00	 cmp	 DWORD PTR [ecx+32], 0
  00471	74 07		 je	 SHORT $LN41@ShowTab

; 364  : 			m_pTabDlgSystemTabEx->GetSafeHwnd()
; 365  : 			)
; 366  : 		{
; 367  : 			m_pTabDlgSystemTabEx->ShowWindow(SW_HIDE);

  00473	6a 00		 push	 0
  00475	e8 00 00 00 00	 call	 ?ShowWindow@CWnd@@QAEHH@Z ; CWnd::ShowWindow
$LN41@ShowTab:

; 368  : 		}
; 369  : 		//@@@@@06.11.20 ]]
; 370  : 
; 371  : 		//@@@@@06.12.07 [[
; 372  : 		if(		m_pTabIndices != NULL &&

  0047a	8b 8e e4 00 00
	00		 mov	 ecx, DWORD PTR [esi+228]
  00480	85 c9		 test	 ecx, ecx
  00482	74 0d		 je	 SHORT $LN42@ShowTab
  00484	83 79 20 00	 cmp	 DWORD PTR [ecx+32], 0
  00488	74 07		 je	 SHORT $LN42@ShowTab

; 373  : 			m_pTabIndices->GetSafeHwnd()
; 374  : 			)
; 375  : 		{
; 376  : 			m_pTabIndices->ShowWindow(SW_HIDE);

  0048a	6a 00		 push	 0
  0048c	e8 00 00 00 00	 call	 ?ShowWindow@CWnd@@QAEHH@Z ; CWnd::ShowWindow
$LN42@ShowTab:

; 377  : 		}
; 378  : 		//@@@@@06.12.07 ]]
; 379  : 
; 380  : 		nIndex = ChangeTabIndexByMarketType(nIndex);
; 381  : 		if(m_nMarketType == CMasterTypeInfo::UPJONG_CHART&&nIndex==TABNO_CODESEARCH)
; 382  : 			m_pTabDlgFocused = m_tabDlgCreator.CreateTabDlg(TABNO_CODESEARCHUP);
; 383  : 		else if(m_nMarketType == CMasterTypeInfo::FUTOPT_CHART&&nIndex==TABNO_CODESEARCH)
; 384  : 			m_pTabDlgFocused = m_tabDlgCreator.CreateTabDlg(TABNO_CODESEARCHFO);
; 385  : 		//101 2006.9.14 {{
; 386  : 		else if(m_nMarketType == CMasterTypeInfo::FOREIGN_CHART&&nIndex==TABNO_CODESEARCH)
; 387  : 			m_pTabDlgFocused = m_tabDlgCreator.CreateTabDlg(TABNO_CODESEARCHFR);
; 388  : //@유진삭제
; 389  : //		else if(m_nMarketType == ELW_CHART&&nIndex==TABNO_CODESEARCH)
; 390  : //			m_pTabDlgFocused = m_tabDlgCreator.CreateTabDlg(TABNO_CODESEARCHELW);
; 391  : //		else if(m_nMarketType == COMMODITY_CHART&&nIndex==TABNO_CODESEARCH)// 상품선물옵션차트 - ojtaso (20071001) - 2차개발에서 적용
; 392  : //			m_pTabDlgFocused = m_tabDlgCreator.CreateTabDlg(TABNO_CODESEARCHCMM);
; 393  : //@유진삭제
; 394  : 		//101 2006.9.14 }}
; 395  : 		else
; 396  : 			m_pTabDlgFocused = m_tabDlgCreator.CreateTabDlg(nIndex);
; 397  : 
; 398  : 		if(m_pTabDlgFocused && m_pTabDlgFocused->GetSafeHwnd())

  00491	57		 push	 edi
  00492	8d 8e 8c 00 00
	00		 lea	 ecx, DWORD PTR [esi+140]
  00498	e8 00 00 00 00	 call	 ?CreateTabDlg@CTabDlgCreator@@QAEPAVCTabDlg@@I@Z ; CTabDlgCreator::CreateTabDlg
  0049d	89 86 d8 00 00
	00		 mov	 DWORD PTR [esi+216], eax
  004a3	85 c0		 test	 eax, eax
  004a5	0f 84 a1 00 00
	00		 je	 $LN49@ShowTab
  004ab	83 78 20 00	 cmp	 DWORD PTR [eax+32], 0
  004af	0f 84 97 00 00
	00		 je	 $LN49@ShowTab
; File C:\Program Files (x86)\Microsoft Visual Studio\2019\Community\VC\Tools\MSVC\14.29.30133\atlmfc\include\afxwin2.inl

; 86   : 	{ ASSERT(::IsWindow(m_hWnd)); ::GetClientRect(m_hWnd, lpRect); }

  004b5	8d 45 ec	 lea	 eax, DWORD PTR _rect$7[ebp]
  004b8	0f 57 c0	 xorps	 xmm0, xmm0
  004bb	50		 push	 eax
  004bc	ff 76 20	 push	 DWORD PTR [esi+32]
; File C:\Program Files (x86)\Microsoft Visual Studio\2019\Community\VC\Tools\MSVC\14.29.30133\atlmfc\include\atltypes.h

; 528  : 	left = 0;

  004bf	0f 11 45 ec	 movups	 XMMWORD PTR _rect$7[ebp], xmm0
; File C:\Program Files (x86)\Microsoft Visual Studio\2019\Community\VC\Tools\MSVC\14.29.30133\atlmfc\include\afxwin2.inl

; 86   : 	{ ASSERT(::IsWindow(m_hWnd)); ::GetClientRect(m_hWnd, lpRect); }

  004c3	ff 15 00 00 00
	00		 call	 DWORD PTR __imp__GetClientRect@8
; File D:\git\src\IBK\IBK_DRFN\ProjSrc\SrcDrfn\Chart\MULTICHART\XTabCtrl.cpp

; 402  : 			int x = m_ptTabs.x;

  004c9	8b 86 a8 00 00
	00		 mov	 eax, DWORD PTR [esi+168]

; 403  : 			int y = m_ptTabs.y+(m_nRowCnt-1)*GetTabHeight();

  004cf	8b ce		 mov	 ecx, esi
  004d1	8b be d4 00 00
	00		 mov	 edi, DWORD PTR [esi+212]
  004d7	89 45 cc	 mov	 DWORD PTR _x$1$[ebp], eax
  004da	e8 00 00 00 00	 call	 ?GetTabHeight@CXTabCtrl@@QAEJXZ ; CXTabCtrl::GetTabHeight
  004df	8d 4f ff	 lea	 ecx, DWORD PTR [edi-1]
  004e2	0f af c1	 imul	 eax, ecx
  004e5	8b 8e ac 00 00
	00		 mov	 ecx, DWORD PTR [esi+172]
  004eb	03 c8		 add	 ecx, eax

; 404  : 			//2005. 05. 17 -------------------------------------------------------
; 405  : 			//전체 Row수가 2개 이상이 되면 화면이 보이는 위치를 조절한다.
; 406  : 			//--------------------------------------------------------------------
; 407  : 			if(m_nRowCnt == 3)

  004ed	83 ff 03	 cmp	 edi, 3
  004f0	75 05		 jne	 SHORT $LN50@ShowTab

; 408  : 				y += 8;

  004f2	83 c1 08	 add	 ecx, 8
  004f5	eb 05		 jmp	 SHORT $LN52@ShowTab
$LN50@ShowTab:

; 409  : 			else if(m_nRowCnt > 3)

  004f7	7e 03		 jle	 SHORT $LN52@ShowTab

; 410  : 				y += 10;

  004f9	83 c1 0a	 add	 ecx, 10			; 0000000aH
$LN52@ShowTab:

; 411  : 			//--------------------------------------------------------------------
; 412  : 			m_pTabDlgFocused->SetWindowPos(NULL, x, y , rect.right - x, rect.bottom - y,

  004fc	8b 45 f8	 mov	 eax, DWORD PTR _rect$7[ebp+12]
  004ff	8b 55 cc	 mov	 edx, DWORD PTR _x$1$[ebp]
  00502	2b c1		 sub	 eax, ecx
  00504	6a 24		 push	 36			; 00000024H
  00506	50		 push	 eax
  00507	8b 45 f4	 mov	 eax, DWORD PTR _rect$7[ebp+8]
  0050a	2b c2		 sub	 eax, edx
  0050c	50		 push	 eax
  0050d	51		 push	 ecx
  0050e	8b 8e d8 00 00
	00		 mov	 ecx, DWORD PTR [esi+216]
  00514	52		 push	 edx
  00515	6a 00		 push	 0
  00517	e8 00 00 00 00	 call	 ?SetWindowPos@CWnd@@QAEHPBV1@HHHHI@Z ; CWnd::SetWindowPos

; 413  : 								SWP_FRAMECHANGED| SWP_NOZORDER);
; 414  : 			m_pTabDlgFocused->ShowWindow(SW_SHOW);

  0051c	8b 8e d8 00 00
	00		 mov	 ecx, DWORD PTR [esi+216]
  00522	6a 05		 push	 5
  00524	e8 00 00 00 00	 call	 ?ShowWindow@CWnd@@QAEHH@Z ; CWnd::ShowWindow
; File C:\Program Files (x86)\Microsoft Visual Studio\2019\Community\VC\Tools\MSVC\14.29.30133\atlmfc\include\afxwin2.inl

; 213  : 	{ ASSERT(::IsWindow(m_hWnd)); return CWnd::FromHandle(::GetParent(m_hWnd)); }

  00529	ff 76 20	 push	 DWORD PTR [esi+32]
  0052c	ff d3		 call	 ebx
  0052e	50		 push	 eax
  0052f	e8 00 00 00 00	 call	 ?FromHandle@CWnd@@SGPAV1@PAUHWND__@@@Z ; CWnd::FromHandle
  00534	ff 70 20	 push	 DWORD PTR [eax+32]
  00537	ff d3		 call	 ebx
  00539	50		 push	 eax
  0053a	e8 00 00 00 00	 call	 ?FromHandle@CWnd@@SGPAV1@PAUHWND__@@@Z ; CWnd::FromHandle
; File D:\git\src\IBK\IBK_DRFN\ProjSrc\SrcDrfn\Chart\MULTICHART\XTabCtrl.cpp

; 417  : 			pParent->SetPermanentHandle(m_pTabDlgFocused);

  0053f	ff b6 d8 00 00
	00		 push	 DWORD PTR [esi+216]
  00545	8b c8		 mov	 ecx, eax
  00547	e8 00 00 00 00	 call	 ?SetPermanentHandle@CExOCXDLL@@QAEXPAVCWnd@@@Z ; CExOCXDLL::SetPermanentHandle
$LN49@ShowTab:

; 418  : 		}
; 419  : 	}
; 420  : 
; 421  : }

  0054c	8b 4d fc	 mov	 ecx, DWORD PTR __$ArrayPad$[ebp]
  0054f	5f		 pop	 edi
  00550	5e		 pop	 esi
  00551	33 cd		 xor	 ecx, ebp
  00553	5b		 pop	 ebx
  00554	e8 00 00 00 00	 call	 @__security_check_cookie@4
  00559	8b e5		 mov	 esp, ebp
  0055b	5d		 pop	 ebp
  0055c	c2 04 00	 ret	 4
?ShowTab@CXTabCtrl@@QAEXH@Z ENDP			; CXTabCtrl::ShowTab
_TEXT	ENDS
; Function compile flags: /Ogtp
; File D:\git\src\IBK\IBK_DRFN\ProjSrc\SrcDrfn\Chart\MULTICHART\XTabCtrl.cpp
; File C:\Program Files (x86)\Microsoft Visual Studio\2019\Community\VC\Tools\MSVC\14.29.30133\atlmfc\include\afxwin2.inl
; File D:\git\src\IBK\IBK_DRFN\ProjSrc\SrcDrfn\Chart\MULTICHART\XTabCtrl.cpp
; File D:\git\src\IBK\IBK_DRFN\ProjSrc\SrcDrfn\inc\IBaseDefine.h
; File D:\git\src\IBK\IBK_DRFN\ProjSrc\SrcDrfn\Chart\MULTICHART\XTabCtrl.cpp
; File D:\git\src\IBK\IBK_DRFN\ProjSrc\SrcDrfn\inc\IBaseDefine.h
; File D:\git\src\IBK\IBK_DRFN\ProjSrc\SrcDrfn\Chart\MULTICHART\XTabCtrl.cpp
; File C:\Program Files (x86)\Microsoft Visual Studio\2019\Community\VC\Tools\MSVC\14.29.30133\atlmfc\include\afxwin2.inl
; File D:\git\src\IBK\IBK_DRFN\ProjSrc\SrcDrfn\Chart\MULTICHART\XTabCtrl.cpp
;	COMDAT ?Init@CXTabCtrl@@QAEXPAVCWnd@@0H@Z
_TEXT	SEGMENT
_item$ = -132						; size = 28
_bExtraChart$1$ = -104					; size = 4
_hMainWnd$2 = -100					; size = 4
_szClipFormat$3 = -96					; size = 4
_szCaption$ = -92					; size = 64
_aBufWnd$4 = -28					; size = 9
__$ArrayPad$ = -16					; size = 4
__$EHRec$ = -12						; size = 12
_pMultiChartWnd$ = 8					; size = 4
_pChartMng$ = 12					; size = 4
_nMarketType$ = 16					; size = 4
?Init@CXTabCtrl@@QAEXPAVCWnd@@0H@Z PROC			; CXTabCtrl::Init, COMDAT
; _this$ = ecx

; 67   : {	

  00000	55		 push	 ebp
  00001	8b ec		 mov	 ebp, esp
  00003	6a ff		 push	 -1
  00005	68 00 00 00 00	 push	 __ehhandler$?Init@CXTabCtrl@@QAEXPAVCWnd@@0H@Z
  0000a	64 a1 00 00 00
	00		 mov	 eax, DWORD PTR fs:0
  00010	50		 push	 eax
  00011	83 ec 78	 sub	 esp, 120		; 00000078H
  00014	a1 00 00 00 00	 mov	 eax, DWORD PTR ___security_cookie
  00019	33 c5		 xor	 eax, ebp
  0001b	89 45 f0	 mov	 DWORD PTR __$ArrayPad$[ebp], eax
  0001e	53		 push	 ebx
  0001f	56		 push	 esi
  00020	57		 push	 edi
  00021	50		 push	 eax
  00022	8d 45 f4	 lea	 eax, DWORD PTR __$EHRec$[ebp]
  00025	64 a3 00 00 00
	00		 mov	 DWORD PTR fs:0, eax
  0002b	8b f9		 mov	 edi, ecx
  0002d	8b 45 0c	 mov	 eax, DWORD PTR _pChartMng$[ebp]
  00030	8b 75 08	 mov	 esi, DWORD PTR _pMultiChartWnd$[ebp]

; 68   : 	m_tabDlgCreator.Init(pMultiChartWnd, (CLeftBarDlg*)GetParent(),this,pChartMng);

  00033	50		 push	 eax
  00034	57		 push	 edi
; File C:\Program Files (x86)\Microsoft Visual Studio\2019\Community\VC\Tools\MSVC\14.29.30133\atlmfc\include\afxwin2.inl

; 213  : 	{ ASSERT(::IsWindow(m_hWnd)); return CWnd::FromHandle(::GetParent(m_hWnd)); }

  00035	ff 77 20	 push	 DWORD PTR [edi+32]
  00038	ff 15 00 00 00
	00		 call	 DWORD PTR __imp__GetParent@4
  0003e	50		 push	 eax
  0003f	e8 00 00 00 00	 call	 ?FromHandle@CWnd@@SGPAV1@PAUHWND__@@@Z ; CWnd::FromHandle
; File D:\git\src\IBK\IBK_DRFN\ProjSrc\SrcDrfn\Chart\MULTICHART\XTabCtrl.cpp

; 68   : 	m_tabDlgCreator.Init(pMultiChartWnd, (CLeftBarDlg*)GetParent(),this,pChartMng);

  00044	50		 push	 eax
  00045	56		 push	 esi
  00046	8d 8f 8c 00 00
	00		 lea	 ecx, DWORD PTR [edi+140]
  0004c	e8 00 00 00 00	 call	 ?Init@CTabDlgCreator@@QAEXPAVCWnd@@PAVCLeftBarDlg@@PAVCTabCtrl@@0@Z ; CTabDlgCreator::Init

; 76   : 
; 77   : 
; 78   : 	m_nMarketType = nMarketType;

  00051	8b 45 10	 mov	 eax, DWORD PTR _nMarketType$[ebp]
; File D:\git\src\IBK\IBK_DRFN\ProjSrc\SrcDrfn\inc\IBaseDefine.h

; 262  : 	AfxGetHanaroMainWnd(hMainWnd);

  00054	8d 4d a0	 lea	 ecx, DWORD PTR _szClipFormat$3[ebp]
  00057	0f 57 c0	 xorps	 xmm0, xmm0
; File D:\git\src\IBK\IBK_DRFN\ProjSrc\SrcDrfn\Chart\MULTICHART\XTabCtrl.cpp

; 72   : 	item.mask = TCIF_TEXT|TCIF_PARAM|TCIF_IMAGE;

  0005a	c7 85 7c ff ff
	ff 0b 00 00 00	 mov	 DWORD PTR _item$[ebp], 11 ; 0000000bH

; 73   : 	item.lParam = NULL;

  00064	c7 45 94 00 00
	00 00		 mov	 DWORD PTR _item$[ebp+24], 0

; 74   : 	item.pszText = _T("");
; 75   : 	item.iImage = 0;

  0006b	c7 45 90 00 00
	00 00		 mov	 DWORD PTR _item$[ebp+20], 0

; 76   : 
; 77   : 
; 78   : 	m_nMarketType = nMarketType;

  00072	89 87 88 00 00
	00		 mov	 DWORD PTR [edi+136], eax
; File D:\git\src\IBK\IBK_DRFN\ProjSrc\SrcDrfn\inc\IBaseDefine.h

; 262  : 	AfxGetHanaroMainWnd(hMainWnd);

  00078	c7 45 9c 00 00
	00 00		 mov	 DWORD PTR _hMainWnd$2[ebp], 0
  0007f	66 0f d6 45 e4	 movq	 QWORD PTR _aBufWnd$4[ebp], xmm0
  00084	c6 45 ec 00	 mov	 BYTE PTR _aBufWnd$4[ebp+8], 0
  00088	ff 15 00 00 00
	00		 call	 DWORD PTR __imp_??0?$CStringT@DV?$StrTraitMFC_DLL@DV?$ChTraitsCRT@D@ATL@@@@@ATL@@QAE@XZ
  0008e	68 00 00 00 00	 push	 OFFSET ??_C@_0M@CBBNGGHM@PcTrMng?4dll@
  00093	c7 45 fc 00 00
	00 00		 mov	 DWORD PTR __$EHRec$[ebp+8], 0
  0009a	ff 15 00 00 00
	00		 call	 DWORD PTR __imp__GetModuleHandleA@4
  000a0	50		 push	 eax
  000a1	68 00 00 00 00	 push	 OFFSET ??_C@_0P@IDMAJEGN@HANAROPCTRMAIN@
  000a6	8d 45 a0	 lea	 eax, DWORD PTR _szClipFormat$3[ebp]
  000a9	68 00 00 00 00	 push	 OFFSET ??_C@_06NDLAHCHE@?$CFs?$CF08X@
  000ae	50		 push	 eax
  000af	ff 15 00 00 00
	00		 call	 DWORD PTR __imp_?Format@?$CStringT@DV?$StrTraitMFC_DLL@DV?$ChTraitsCRT@D@ATL@@@@@ATL@@QAAXPBDZZ
  000b5	83 c4 10	 add	 esp, 16			; 00000010H
  000b8	8d 45 e4	 lea	 eax, DWORD PTR _aBufWnd$4[ebp]
  000bb	6a 09		 push	 9
  000bd	50		 push	 eax
  000be	ff 75 a0	 push	 DWORD PTR _szClipFormat$3[ebp]
  000c1	ff 15 00 00 00
	00		 call	 DWORD PTR __imp__GetEnvironmentVariableA@12
  000c7	8d 45 9c	 lea	 eax, DWORD PTR _hMainWnd$2[ebp]
  000ca	50		 push	 eax
  000cb	8d 45 e4	 lea	 eax, DWORD PTR _aBufWnd$4[ebp]
  000ce	68 00 00 00 00	 push	 OFFSET ??_C@_02EMFKHFLK@?$CFX@
  000d3	50		 push	 eax
  000d4	e8 00 00 00 00	 call	 _sscanf
  000d9	83 c4 0c	 add	 esp, 12			; 0000000cH
  000dc	c7 45 fc ff ff
	ff ff		 mov	 DWORD PTR __$EHRec$[ebp+8], -1
  000e3	8d 4d a0	 lea	 ecx, DWORD PTR _szClipFormat$3[ebp]
  000e6	ff 15 00 00 00
	00		 call	 DWORD PTR __imp_??1?$CStringT@DV?$StrTraitMFC_DLL@DV?$ChTraitsCRT@D@ATL@@@@@ATL@@QAE@XZ

; 263  : 
; 264  : 	return ::SendMessage(hMainWnd, RMSG_INTERFACE, (WPARAM)nID, 0);

  000ec	6a 00		 push	 0
  000ee	6a 2b		 push	 43			; 0000002bH
  000f0	ff 35 00 00 00
	00		 push	 DWORD PTR ?RMSG_INTERFACE@@3IB
  000f6	ff 75 9c	 push	 DWORD PTR _hMainWnd$2[ebp]
  000f9	ff 15 00 00 00
	00		 call	 DWORD PTR __imp__SendMessageA@16
; File D:\git\src\IBK\IBK_DRFN\ProjSrc\SrcDrfn\Chart\MULTICHART\XTabCtrl.cpp

; 83   : 	if(pMng)

  000ff	85 c0		 test	 eax, eax
  00101	74 10		 je	 SHORT $LN11@Init

; 84   : 	{
; 85   : 		LPCSTR szMainKey = "SYSEDUE";
; 86   : 		nSysEdu = pMng->GetSysEdu(szMainKey, (long)this, (long)NULL, NULL);

  00103	8b 08		 mov	 ecx, DWORD PTR [eax]
  00105	6a 00		 push	 0
  00107	6a 00		 push	 0
  00109	57		 push	 edi
  0010a	68 00 00 00 00	 push	 OFFSET ??_C@_07BODPENMG@SYSEDUE@
  0010f	50		 push	 eax
  00110	ff 51 10	 call	 DWORD PTR [ecx+16]
$LN11@Init:
; File C:\Program Files (x86)\Microsoft Visual Studio\2019\Community\VC\Tools\MSVC\14.29.30133\atlmfc\include\afxwin2.inl

; 213  : 	{ ASSERT(::IsWindow(m_hWnd)); return CWnd::FromHandle(::GetParent(m_hWnd)); }

  00113	ff 77 20	 push	 DWORD PTR [edi+32]
  00116	8b 35 00 00 00
	00		 mov	 esi, DWORD PTR __imp__GetParent@4
  0011c	ff d6		 call	 esi
  0011e	50		 push	 eax
  0011f	e8 00 00 00 00	 call	 ?FromHandle@CWnd@@SGPAV1@PAUHWND__@@@Z ; CWnd::FromHandle
  00124	ff 70 20	 push	 DWORD PTR [eax+32]
  00127	ff d6		 call	 esi
  00129	50		 push	 eax
  0012a	e8 00 00 00 00	 call	 ?FromHandle@CWnd@@SGPAV1@PAUHWND__@@@Z ; CWnd::FromHandle
; File D:\git\src\IBK\IBK_DRFN\ProjSrc\SrcDrfn\Chart\MULTICHART\XTabCtrl.cpp

; 89   : 	CStdDialog* pParent = (CStdDialog*)GetParent()->GetParent();

  0012f	8b f0		 mov	 esi, eax

; 90   : 
; 91   : 	BOOL bExtraChart = pParent->IsChartScreen("OldFuture");

  00131	68 00 00 00 00	 push	 OFFSET ??_C@_09POEKPOBJ@OldFuture@
  00136	8b ce		 mov	 ecx, esi
  00138	e8 00 00 00 00	 call	 ?IsChartScreen@CStdDialog@@QAEHPBD@Z ; CStdDialog::IsChartScreen

; 92   : 
; 93   : 	if(pParent->IsSystemChart())

  0013d	8b ce		 mov	 ecx, esi
  0013f	89 45 98	 mov	 DWORD PTR _bExtraChart$1$[ebp], eax
  00142	e8 00 00 00 00	 call	 ?IsSystemChart@CStdDialog@@QAEHXZ ; CStdDialog::IsSystemChart
  00147	85 c0		 test	 eax, eax
  00149	74 37		 je	 SHORT $LN12@Init

; 94   : 	{
; 95   : 		for(int i=0;i<STOCK_TABTOTALCNT + 1;i++)

  0014b	33 f6		 xor	 esi, esi
  0014d	0f 1f 00	 npad	 3
$LL4@Init:

; 96   : 		{
; 97   : 			m_tabDlgCreator.GetCaptionOfTabDlg(i,szCaption);

  00150	8d 45 a4	 lea	 eax, DWORD PTR _szCaption$[ebp]
  00153	50		 push	 eax
  00154	56		 push	 esi
  00155	8d 8f 8c 00 00
	00		 lea	 ecx, DWORD PTR [edi+140]
  0015b	e8 00 00 00 00	 call	 ?GetCaptionOfTabDlg@CTabDlgCreator@@QAEXIPAD@Z ; CTabDlgCreator::GetCaptionOfTabDlg

; 98   : 			item.pszText = szCaption;

  00160	8d 45 a4	 lea	 eax, DWORD PTR _szCaption$[ebp]

; 99   : 			InsertItem(i, &item, EXTAB_02);

  00163	8b cf		 mov	 ecx, edi
  00165	89 45 88	 mov	 DWORD PTR _item$[ebp+12], eax
  00168	8d 85 7c ff ff
	ff		 lea	 eax, DWORD PTR _item$[ebp]
  0016e	6a 04		 push	 4
  00170	50		 push	 eax
  00171	56		 push	 esi
  00172	e8 00 00 00 00	 call	 ?InsertItem@CExTabCtrl@@QAEXHPAUtagTCITEMA@@I@Z ; CExTabCtrl::InsertItem
  00177	46		 inc	 esi
  00178	83 fe 03	 cmp	 esi, 3
  0017b	7c d3		 jl	 SHORT $LL4@Init

; 100  : 		}
; 101  : 	}

  0017d	e9 8b 00 00 00	 jmp	 $LN9@Init
$LN12@Init:

; 102  : 	else if(bExtraChart)

  00182	83 7d 98 00	 cmp	 DWORD PTR _bExtraChart$1$[ebp], 0
  00186	74 2b		 je	 SHORT $LN14@Init

; 103  : 	{
; 104  : 		for(int i=1;i<STOCK_TABTOTALCNT;i++)
; 105  : 		{
; 106  : 			m_tabDlgCreator.GetCaptionOfTabDlg(i,szCaption);

  00188	8d 45 a4	 lea	 eax, DWORD PTR _szCaption$[ebp]
  0018b	50		 push	 eax
  0018c	6a 01		 push	 1
  0018e	8d 8f 8c 00 00
	00		 lea	 ecx, DWORD PTR [edi+140]
  00194	e8 00 00 00 00	 call	 ?GetCaptionOfTabDlg@CTabDlgCreator@@QAEXIPAD@Z ; CTabDlgCreator::GetCaptionOfTabDlg

; 107  : 			item.pszText = szCaption;

  00199	8d 45 a4	 lea	 eax, DWORD PTR _szCaption$[ebp]

; 108  : 			InsertItem(i, &item, EXTAB_02);

  0019c	8b cf		 mov	 ecx, edi
  0019e	89 45 88	 mov	 DWORD PTR _item$[ebp+12], eax
  001a1	8d 85 7c ff ff
	ff		 lea	 eax, DWORD PTR _item$[ebp]
  001a7	6a 04		 push	 4
  001a9	50		 push	 eax
  001aa	6a 01		 push	 1
  001ac	e8 00 00 00 00	 call	 ?InsertItem@CExTabCtrl@@QAEXHPAUtagTCITEMA@@I@Z ; CExTabCtrl::InsertItem

; 109  : 		}
; 110  : 	}

  001b1	eb 5a		 jmp	 SHORT $LN9@Init
$LN14@Init:

; 111  : 	// 상품선물옵션차트 - ojtaso (20071001)
; 112  : //@유진변경
; 113  : //	else if(m_nMarketType == STOCK_CHART || m_nMarketType == FUTOPT_CHART || m_nMarketType == UPJONG_CHART || m_nMarketType == COMMODITY_CHART)
; 114  : 	else if(   m_nMarketType == CMasterTypeInfo::STOCK_CHART 
; 115  : 			|| m_nMarketType == CMasterTypeInfo::FUTOPT_CHART 
; 116  : 			|| m_nMarketType == CMasterTypeInfo::UPJONG_CHART 
; 117  : 			|| m_nMarketType == CMasterTypeInfo::FOREIGN_CHART
; 118  : 			|| m_nMarketType == CMasterTypeInfo::FUOPT_JIPYO_CHART
; 119  : 			|| m_nMarketType == CMasterTypeInfo::COMMODITY_CHART
; 120  : 			|| m_nMarketType == CMasterTypeInfo::STOCKFUTOPT_CHART

  001b3	8b 87 88 00 00
	00		 mov	 eax, DWORD PTR [edi+136]
  001b9	85 c0		 test	 eax, eax
  001bb	74 1e		 je	 SHORT $LN17@Init
  001bd	83 f8 02	 cmp	 eax, 2
  001c0	74 19		 je	 SHORT $LN17@Init
  001c2	83 f8 01	 cmp	 eax, 1
  001c5	74 14		 je	 SHORT $LN17@Init
  001c7	83 f8 04	 cmp	 eax, 4
  001ca	74 0f		 je	 SHORT $LN17@Init
  001cc	83 f8 05	 cmp	 eax, 5
  001cf	74 0a		 je	 SHORT $LN17@Init
  001d1	83 f8 06	 cmp	 eax, 6
  001d4	74 05		 je	 SHORT $LN17@Init
  001d6	83 f8 03	 cmp	 eax, 3
  001d9	75 32		 jne	 SHORT $LN9@Init
$LN17@Init:

; 121  : 			)
; 122  : //@유진변경
; 123  : 	{
; 124  : 		for(int i=0;i< STOCK_TABTOTALCNT ;i++)

  001db	33 f6		 xor	 esi, esi
  001dd	0f 1f 00	 npad	 3
$LL10@Init:

; 125  : 		{
; 126  : 			m_tabDlgCreator.GetCaptionOfTabDlg(i,szCaption);

  001e0	8d 45 a4	 lea	 eax, DWORD PTR _szCaption$[ebp]
  001e3	50		 push	 eax
  001e4	56		 push	 esi
  001e5	8d 8f 8c 00 00
	00		 lea	 ecx, DWORD PTR [edi+140]
  001eb	e8 00 00 00 00	 call	 ?GetCaptionOfTabDlg@CTabDlgCreator@@QAEXIPAD@Z ; CTabDlgCreator::GetCaptionOfTabDlg

; 127  : 			item.pszText = szCaption;

  001f0	8d 45 a4	 lea	 eax, DWORD PTR _szCaption$[ebp]

; 128  : 			InsertItem(i, &item, EXTAB_02);

  001f3	8b cf		 mov	 ecx, edi
  001f5	89 45 88	 mov	 DWORD PTR _item$[ebp+12], eax
  001f8	8d 85 7c ff ff
	ff		 lea	 eax, DWORD PTR _item$[ebp]
  001fe	6a 04		 push	 4
  00200	50		 push	 eax
  00201	56		 push	 esi
  00202	e8 00 00 00 00	 call	 ?InsertItem@CExTabCtrl@@QAEXHPAUtagTCITEMA@@I@Z ; CExTabCtrl::InsertItem
  00207	46		 inc	 esi
  00208	83 fe 02	 cmp	 esi, 2
  0020b	7c d3		 jl	 SHORT $LL10@Init
$LN9@Init:

; 129  : 		}
; 130  : 
; 131  : //		if(m_pTabDlgCodeSearch == NULL)
; 132  : //		{
; 133  : //			m_pTabDlgCodeSearch = m_tabDlgCreator.CreateTabDlg(TABNO_CODESEARCH);
; 134  : //		}
; 135  : 
; 136  : 	}
; 137  : //	else if(m_nMarketType == FUTOPT_CHART)
; 138  : //	{
; 139  : //		//chart
; 140  : //		m_tabDlgCreator.GetCaptionOfTabDlg(0,szCaption);
; 141  : //		item.pszText = szCaption;
; 142  : //		InsertItem(0, &item);
; 143  : //
; 144  : //		//보조지표
; 145  : //		m_tabDlgCreator.GetCaptionOfTabDlg(1,szCaption);
; 146  : //		item.pszText = szCaption;
; 147  : //		InsertItem(1, &item);
; 148  : //
; 149  : //		//즐겨찾기
; 150  : //		m_tabDlgCreator.GetCaptionOfTabDlg(4,szCaption);
; 151  : //		item.pszText = szCaption;
; 152  : //		InsertItem(2, &item);
; 153  : //
; 154  : ////#ifdef _DEBUG
; 155  : //		//시스템트레이딩
; 156  : //		m_tabDlgCreator.GetCaptionOfTabDlg(TABNO_SYSTEMTRADING,szCaption);
; 157  : //		item.pszText = szCaption;
; 158  : //		InsertItem(3, &item);
; 159  : ////#endif
; 160  : //		//시스템
; 161  : //		//m_tabDlgCreator.GetCaptionOfTabDlg(7,szCaption);
; 162  : //		//item.pszText = szCaption;
; 163  : //		//InsertItem(3, &item);
; 164  : //
; 165  : //	}
; 166  : //	else if(m_nMarketType == UPJONG_CHART)
; 167  : //	{
; 168  : //		//chart
; 169  : //		m_tabDlgCreator.GetCaptionOfTabDlg(0,szCaption);
; 170  : //		item.pszText = szCaption;
; 171  : //		InsertItem(0, &item);
; 172  : //
; 173  : //		//보조지표
; 174  : //		m_tabDlgCreator.GetCaptionOfTabDlg(1,szCaption);
; 175  : //		item.pszText = szCaption;
; 176  : //		InsertItem(1, &item);
; 177  : //
; 178  : //		//즐겨찾기
; 179  : //		m_tabDlgCreator.GetCaptionOfTabDlg(4,szCaption);
; 180  : //		item.pszText = szCaption;
; 181  : //		InsertItem(2, &item);
; 182  : //
; 183  : ////#ifdef _DEBUG		
; 184  : //		//시스템트레이딩
; 185  : //		m_tabDlgCreator.GetCaptionOfTabDlg(TABNO_SYSTEMTRADING,szCaption);
; 186  : //		item.pszText = szCaption;
; 187  : //		InsertItem(3, &item);
; 188  : ////#endif
; 189  : //	}
; 190  : /*
; 191  : 	else if (m_nMarketType == FOREIGN_CHART)
; 192  : 	{
; 193  : 		//chart
; 194  : 		m_tabDlgCreator.GetCaptionOfTabDlg(TABNO_ASSISTINDEX,szCaption);
; 195  : 		item.pszText = szCaption;
; 196  : 		InsertItem(0, &item);
; 197  : 	}
; 198  : */
; 199  : }

  0020d	8b 4d f4	 mov	 ecx, DWORD PTR __$EHRec$[ebp]
  00210	64 89 0d 00 00
	00 00		 mov	 DWORD PTR fs:0, ecx
  00217	59		 pop	 ecx
  00218	5f		 pop	 edi
  00219	5e		 pop	 esi
  0021a	5b		 pop	 ebx
  0021b	8b 4d f0	 mov	 ecx, DWORD PTR __$ArrayPad$[ebp]
  0021e	33 cd		 xor	 ecx, ebp
  00220	e8 00 00 00 00	 call	 @__security_check_cookie@4
  00225	8b e5		 mov	 esp, ebp
  00227	5d		 pop	 ebp
  00228	c2 0c 00	 ret	 12			; 0000000cH
_TEXT	ENDS
;	COMDAT text$x
text$x	SEGMENT
__unwindfunclet$?Init@CXTabCtrl@@QAEXPAVCWnd@@0H@Z$0:
  00000	8d 4d a0	 lea	 ecx, DWORD PTR _szClipFormat$3[ebp]
  00003	ff 25 00 00 00
	00		 jmp	 DWORD PTR __imp_??1?$CStringT@DV?$StrTraitMFC_DLL@DV?$ChTraitsCRT@D@ATL@@@@@ATL@@QAE@XZ
  00009	cc		 int	 3
  0000a	cc		 int	 3
  0000b	cc		 int	 3
  0000c	cc		 int	 3
  0000d	cc		 int	 3
__ehhandler$?Init@CXTabCtrl@@QAEXPAVCWnd@@0H@Z:
  0000e	90		 npad	 1
  0000f	90		 npad	 1
  00010	8b 54 24 08	 mov	 edx, DWORD PTR [esp+8]
  00014	8d 42 0c	 lea	 eax, DWORD PTR [edx+12]
  00017	8b 8a 78 ff ff
	ff		 mov	 ecx, DWORD PTR [edx-136]
  0001d	33 c8		 xor	 ecx, eax
  0001f	e8 00 00 00 00	 call	 @__security_check_cookie@4
  00024	8b 4a fc	 mov	 ecx, DWORD PTR [edx-4]
  00027	33 c8		 xor	 ecx, eax
  00029	e8 00 00 00 00	 call	 @__security_check_cookie@4
  0002e	b8 00 00 00 00	 mov	 eax, OFFSET __ehfuncinfo$?Init@CXTabCtrl@@QAEXPAVCWnd@@0H@Z
  00033	e9 00 00 00 00	 jmp	 ___CxxFrameHandler3
text$x	ENDS
?Init@CXTabCtrl@@QAEXPAVCWnd@@0H@Z ENDP			; CXTabCtrl::Init
; Function compile flags: /Ogtp
; File D:\git\src\IBK\IBK_DRFN\ProjSrc\SrcDrfn\Chart\MULTICHART\XTabCtrl.cpp
;	COMDAT ?ChangeTabIndexByMarketType@CXTabCtrl@@QAEHH@Z
_TEXT	SEGMENT
_nIndex$ = 8						; size = 4
?ChangeTabIndexByMarketType@CXTabCtrl@@QAEHH@Z PROC	; CXTabCtrl::ChangeTabIndexByMarketType, COMDAT
; _this$ = ecx

; 533  : {

  00000	55		 push	 ebp
  00001	8b ec		 mov	 ebp, esp

; 534  : //	if(m_nMarketType == FUTOPT_CHART)
; 535  : //	{
; 536  : //		if(nIndex == 2)		return TABNO_MYFAVORITE;
; 537  : //		else if(nIndex == 3) return TABNO_SYSTEMTRADING;// 2005. 11. 14 gm0604		
; 538  : //	}
; 539  : //	else if(m_nMarketType == UPJONG_CHART)
; 540  : //	{
; 541  : //		if(nIndex == 2)		return TABNO_MYFAVORITE;		
; 542  : //		else if(nIndex == 3) return TABNO_SYSTEMTRADING;// 2005. 11. 14 gm0604				
; 543  : //	}
; 544  : //	else 
; 545  : //	if (m_nMarketType == FOREIGN_CHART)
; 546  : //	{
; 547  : //		if(nIndex == 2)		return TABNO_MYFAVORITE;
; 548  : //		else if(nIndex == 3) return TABNO_SYSTEMTRADING;// 2005. 11. 14 gm0604				
; 549  : //	}
; 550  : //	if (m_nMarketType == FOREIGN_CHART)
; 551  : //	{
; 552  : //		if(nIndex == 0)		return 1;
; 553  : //		else if(nIndex == 1) return 2;// 2005. 11. 14 gm0604				
; 554  : //	}
; 555  : 	
; 556  : 	return nIndex;

  00003	8b 45 08	 mov	 eax, DWORD PTR _nIndex$[ebp]

; 557  : }

  00006	5d		 pop	 ebp
  00007	c2 04 00	 ret	 4
?ChangeTabIndexByMarketType@CXTabCtrl@@QAEHH@Z ENDP	; CXTabCtrl::ChangeTabIndexByMarketType
_TEXT	ENDS
; Function compile flags: /Ogtp
; File D:\git\src\IBK\IBK_DRFN\ProjSrc\SrcDrfn\Chart\MULTICHART\XTabCtrl.cpp
; File C:\Program Files (x86)\Microsoft Visual Studio\2019\Community\VC\Tools\MSVC\14.29.30133\atlmfc\include\atltypes.h
; File D:\git\src\IBK\IBK_DRFN\ProjSrc\SrcDrfn\Chart\MULTICHART\XTabCtrl.cpp
; File C:\Program Files (x86)\Microsoft Visual Studio\2019\Community\VC\Tools\MSVC\14.29.30133\atlmfc\include\atltypes.h
; File D:\git\src\IBK\IBK_DRFN\ProjSrc\SrcDrfn\Chart\MULTICHART\XTabCtrl.cpp
;	COMDAT ??0CXTabCtrl@@QAE@XZ
_TEXT	SEGMENT
_this$ = -16						; size = 4
__$EHRec$ = -12						; size = 12
??0CXTabCtrl@@QAE@XZ PROC				; CXTabCtrl::CXTabCtrl, COMDAT
; _this$ = ecx

; 26   : {

  00000	55		 push	 ebp
  00001	8b ec		 mov	 ebp, esp
  00003	6a ff		 push	 -1
  00005	68 00 00 00 00	 push	 __ehhandler$??0CXTabCtrl@@QAE@XZ
  0000a	64 a1 00 00 00
	00		 mov	 eax, DWORD PTR fs:0
  00010	50		 push	 eax
  00011	51		 push	 ecx
  00012	56		 push	 esi
  00013	a1 00 00 00 00	 mov	 eax, DWORD PTR ___security_cookie
  00018	33 c5		 xor	 eax, ebp
  0001a	50		 push	 eax
  0001b	8d 45 f4	 lea	 eax, DWORD PTR __$EHRec$[ebp]
  0001e	64 a3 00 00 00
	00		 mov	 DWORD PTR fs:0, eax
  00024	8b f1		 mov	 esi, ecx
  00026	89 75 f0	 mov	 DWORD PTR _this$[ebp], esi
  00029	6a 00		 push	 0
  0002b	e8 00 00 00 00	 call	 ??0CExTabCtrl@@QAE@H@Z	; CExTabCtrl::CExTabCtrl
  00030	8d 8e 8c 00 00
	00		 lea	 ecx, DWORD PTR [esi+140]
  00036	c7 45 fc 00 00
	00 00		 mov	 DWORD PTR __$EHRec$[ebp+8], 0
  0003d	c7 06 00 00 00
	00		 mov	 DWORD PTR [esi], OFFSET ??_7CXTabCtrl@@6B@
  00043	e8 00 00 00 00	 call	 ??0CTabDlgCreator@@QAE@XZ ; CTabDlgCreator::CTabDlgCreator
; File C:\Program Files (x86)\Microsoft Visual Studio\2019\Community\VC\Tools\MSVC\14.29.30133\atlmfc\include\atltypes.h

; 528  : 	left = 0;

  00048	c7 86 b4 00 00
	00 00 00 00 00	 mov	 DWORD PTR [esi+180], 0
; File D:\git\src\IBK\IBK_DRFN\ProjSrc\SrcDrfn\Chart\MULTICHART\XTabCtrl.cpp

; 33   : 	m_nType = 0;

  00052	33 c0		 xor	 eax, eax
; File C:\Program Files (x86)\Microsoft Visual Studio\2019\Community\VC\Tools\MSVC\14.29.30133\atlmfc\include\atltypes.h

; 529  : 	top = 0;

  00054	c7 86 b8 00 00
	00 00 00 00 00	 mov	 DWORD PTR [esi+184], 0

; 530  : 	right = 0;

  0005e	c7 86 bc 00 00
	00 00 00 00 00	 mov	 DWORD PTR [esi+188], 0

; 531  : 	bottom = 0;

  00068	c7 86 c0 00 00
	00 00 00 00 00	 mov	 DWORD PTR [esi+192], 0

; 400  : 	x = 0;

  00072	c7 86 c4 00 00
	00 00 00 00 00	 mov	 DWORD PTR [esi+196], 0

; 401  : 	y = 0;

  0007c	c7 86 c8 00 00
	00 00 00 00 00	 mov	 DWORD PTR [esi+200], 0
; File D:\git\src\IBK\IBK_DRFN\ProjSrc\SrcDrfn\Chart\MULTICHART\XTabCtrl.cpp

; 33   : 	m_nType = 0;

  00086	66 89 86 d0 00
	00 00		 mov	 WORD PTR [esi+208], ax

; 34   : 	m_nRowCnt = 1;
; 35   : 	m_pTabDlgFocused = NULL;

  0008d	89 86 d8 00 00
	00		 mov	 DWORD PTR [esi+216], eax

; 36   : 	m_pTabDlgCodeSearch = NULL;

  00093	89 86 dc 00 00
	00		 mov	 DWORD PTR [esi+220], eax

; 37   : 	m_pMultiChartWnd = NULL;

  00099	89 86 a0 00 00
	00		 mov	 DWORD PTR [esi+160], eax

; 38   : 	m_pTabDlgSystemTabEx = NULL;	//@@@@@06.11.20

  0009f	89 86 e0 00 00
	00		 mov	 DWORD PTR [esi+224], eax

; 39   : 	m_pTabIndices = NULL;

  000a5	89 86 e4 00 00
	00		 mov	 DWORD PTR [esi+228], eax

; 40   : }

  000ab	8b c6		 mov	 eax, esi
  000ad	c7 86 cc 00 00
	00 00 00 00 00	 mov	 DWORD PTR [esi+204], 0
  000b7	c7 86 a4 00 00
	00 00 00 00 00	 mov	 DWORD PTR [esi+164], 0
  000c1	c7 86 a8 00 00
	00 00 00 00 00	 mov	 DWORD PTR [esi+168], 0
  000cb	c7 86 ac 00 00
	00 00 00 00 00	 mov	 DWORD PTR [esi+172], 0
  000d5	c7 86 b0 00 00
	00 00 00 00 00	 mov	 DWORD PTR [esi+176], 0
  000df	c7 86 d4 00 00
	00 01 00 00 00	 mov	 DWORD PTR [esi+212], 1
  000e9	8b 4d f4	 mov	 ecx, DWORD PTR __$EHRec$[ebp]
  000ec	64 89 0d 00 00
	00 00		 mov	 DWORD PTR fs:0, ecx
  000f3	59		 pop	 ecx
  000f4	5e		 pop	 esi
  000f5	8b e5		 mov	 esp, ebp
  000f7	5d		 pop	 ebp
  000f8	c3		 ret	 0
_TEXT	ENDS
;	COMDAT text$x
text$x	SEGMENT
__unwindfunclet$??0CXTabCtrl@@QAE@XZ$0:
  00000	8b 4d f0	 mov	 ecx, DWORD PTR _this$[ebp]
  00003	e9 00 00 00 00	 jmp	 ??1CExTabCtrl@@UAE@XZ	; CExTabCtrl::~CExTabCtrl
  00008	cc		 int	 3
  00009	cc		 int	 3
  0000a	cc		 int	 3
  0000b	cc		 int	 3
  0000c	cc		 int	 3
__ehhandler$??0CXTabCtrl@@QAE@XZ:
  0000d	90		 npad	 1
  0000e	90		 npad	 1
  0000f	8b 54 24 08	 mov	 edx, DWORD PTR [esp+8]
  00013	8d 42 0c	 lea	 eax, DWORD PTR [edx+12]
  00016	8b 4a f4	 mov	 ecx, DWORD PTR [edx-12]
  00019	33 c8		 xor	 ecx, eax
  0001b	e8 00 00 00 00	 call	 @__security_check_cookie@4
  00020	b8 00 00 00 00	 mov	 eax, OFFSET __ehfuncinfo$??0CXTabCtrl@@QAE@XZ
  00025	e9 00 00 00 00	 jmp	 ___CxxFrameHandler3
text$x	ENDS
??0CXTabCtrl@@QAE@XZ ENDP				; CXTabCtrl::CXTabCtrl
; Function compile flags: /Ogtp
; File D:\git\src\IBK\IBK_DRFN\ProjSrc\SrcDrfn\inc\IBaseDefine.h
;	COMDAT ??__ERMSG_INTERFACE@@YAXXZ
text$di	SEGMENT
??__ERMSG_INTERFACE@@YAXXZ PROC				; `dynamic initializer for 'RMSG_INTERFACE'', COMDAT

; 170  : const UINT RMSG_INTERFACE = ::RegisterWindowMessage("RMSG_INTERFACE");

  00000	68 00 00 00 00	 push	 OFFSET ??_C@_0P@BKKCOCLK@RMSG_INTERFACE@
  00005	ff 15 00 00 00
	00		 call	 DWORD PTR __imp__RegisterWindowMessageA@4
  0000b	a3 00 00 00 00	 mov	 DWORD PTR ?RMSG_INTERFACE@@3IB, eax
  00010	c3		 ret	 0
??__ERMSG_INTERFACE@@YAXXZ ENDP				; `dynamic initializer for 'RMSG_INTERFACE''
text$di	ENDS
; Function compile flags: /Ogtp
; File C:\Program Files (x86)\Microsoft Visual Studio\2019\Community\VC\Tools\MSVC\14.29.30133\atlmfc\include\afxwin2.inl
;	COMDAT ?EndModalState@CWnd@@UAEXXZ
_TEXT	SEGMENT
?EndModalState@CWnd@@UAEXXZ PROC			; CWnd::EndModalState, COMDAT
; _this$ = ecx

; 567  : 	{ ::EnableWindow(m_hWnd, TRUE); }

  00000	6a 01		 push	 1
  00002	ff 71 20	 push	 DWORD PTR [ecx+32]
  00005	ff 15 00 00 00
	00		 call	 DWORD PTR __imp__EnableWindow@8
  0000b	c3		 ret	 0
?EndModalState@CWnd@@UAEXXZ ENDP			; CWnd::EndModalState
_TEXT	ENDS
; Function compile flags: /Ogtp
; File C:\Program Files (x86)\Microsoft Visual Studio\2019\Community\VC\Tools\MSVC\14.29.30133\atlmfc\include\afxwin2.inl
;	COMDAT ?BeginModalState@CWnd@@UAEXXZ
_TEXT	SEGMENT
?BeginModalState@CWnd@@UAEXXZ PROC			; CWnd::BeginModalState, COMDAT
; _this$ = ecx

; 565  : 	{ ::EnableWindow(m_hWnd, FALSE); }

  00000	6a 00		 push	 0
  00002	ff 71 20	 push	 DWORD PTR [ecx+32]
  00005	ff 15 00 00 00
	00		 call	 DWORD PTR __imp__EnableWindow@8
  0000b	c3		 ret	 0
?BeginModalState@CWnd@@UAEXXZ ENDP			; CWnd::BeginModalState
_TEXT	ENDS
; Function compile flags: /Ogtp
; File C:\Program Files (x86)\Microsoft Visual Studio\2019\Community\VC\Tools\MSVC\14.29.30133\atlmfc\include\afxwin2.inl
;	COMDAT ?DoDataExchange@CWnd@@MAEXPAVCDataExchange@@@Z
_TEXT	SEGMENT
___formal$ = 8						; size = 4
?DoDataExchange@CWnd@@MAEXPAVCDataExchange@@@Z PROC	; CWnd::DoDataExchange, COMDAT
; _this$ = ecx

; 561  : 	{ } // default does nothing

  00000	c2 04 00	 ret	 4
?DoDataExchange@CWnd@@MAEXPAVCDataExchange@@@Z ENDP	; CWnd::DoDataExchange
_TEXT	ENDS
; Function compile flags: /Ogtp
; File C:\Program Files (x86)\Microsoft Visual Studio\2019\Community\VC\Tools\MSVC\14.29.30133\atlmfc\include\atlbase.h
; File C:\Program Files (x86)\Microsoft Visual Studio\2019\Community\VC\Tools\MSVC\14.29.30133\atlmfc\include\atlsimpcoll.h
; File C:\Program Files (x86)\Microsoft Visual Studio\2019\Community\VC\Tools\MSVC\14.29.30133\atlmfc\include\atlbase.h
; File C:\Program Files (x86)\Microsoft Visual Studio\2019\Community\VC\Tools\MSVC\14.29.30133\atlmfc\include\atlsimpcoll.h
; File C:\Program Files (x86)\Microsoft Visual Studio\2019\Community\VC\Tools\MSVC\14.29.30133\atlmfc\include\atlcore.h
; File C:\Program Files (x86)\Microsoft Visual Studio\2019\Community\VC\Tools\MSVC\14.29.30133\atlmfc\include\atlsimpcoll.h
; File C:\Program Files (x86)\Microsoft Visual Studio\2019\Community\VC\Tools\MSVC\14.29.30133\atlmfc\include\atlcore.h
; File C:\Program Files (x86)\Microsoft Visual Studio\2019\Community\VC\Tools\MSVC\14.29.30133\atlmfc\include\atlbase.h
; File C:\Program Files (x86)\Microsoft Visual Studio\2019\Community\VC\Tools\MSVC\14.29.30133\atlmfc\include\atlsimpcoll.h
;	COMDAT ??__F_AtlWinModule@ATL@@YAXXZ
text$yd	SEGMENT
??__F_AtlWinModule@ATL@@YAXXZ PROC			; ATL::`dynamic atexit destructor for '_AtlWinModule'', COMDAT
; File C:\Program Files (x86)\Microsoft Visual Studio\2019\Community\VC\Tools\MSVC\14.29.30133\atlmfc\include\atlbase.h

; 7655 : 	if (pWinModule->cbSize == 0)

  00000	a1 00 00 00 00	 mov	 eax, DWORD PTR ?_AtlWinModule@ATL@@3VCAtlWinModule@1@A
  00005	8b 0d 00 00 00
	00		 mov	 ecx, DWORD PTR __imp__free

; 2957 : 		AtlWinModuleTerm(this, _AtlBaseModule.GetModuleInstance());

  0000b	57		 push	 edi
  0000c	8b 3d 04 00 00
	00		 mov	 edi, DWORD PTR ?_AtlBaseModule@ATL@@3VCAtlBaseModule@1@A+4

; 7655 : 	if (pWinModule->cbSize == 0)

  00012	85 c0		 test	 eax, eax
  00014	0f 84 93 00 00
	00		 je	 $LN8@dynamic

; 7656 : 		return S_OK;
; 7657 : 	if (pWinModule->cbSize != sizeof(_ATL_WIN_MODULE))

  0001a	83 f8 2c	 cmp	 eax, 44			; 0000002cH
  0001d	0f 85 8a 00 00
	00		 jne	 $LN8@dynamic

; 7658 : 		return E_INVALIDARG;
; 7659 : 
; 7660 : 	for (int i = 0; i < pWinModule->m_rgWindowClassAtoms.GetSize(); i++)

  00023	a1 24 00 00 00	 mov	 eax, DWORD PTR ?_AtlWinModule@ATL@@3VCAtlWinModule@1@A+36
  00028	56		 push	 esi
  00029	33 f6		 xor	 esi, esi
  0002b	85 c0		 test	 eax, eax
  0002d	7e 35		 jle	 SHORT $LN10@dynamic
  0002f	53		 push	 ebx
  00030	8b 1d 00 00 00
	00		 mov	 ebx, DWORD PTR __imp__UnregisterClassA@8
$LL11@dynamic:
; File C:\Program Files (x86)\Microsoft Visual Studio\2019\Community\VC\Tools\MSVC\14.29.30133\atlmfc\include\atlsimpcoll.h

; 238  : 		if(nIndex < 0 || nIndex >= m_nSize)

  00036	85 f6		 test	 esi, esi
  00038	0f 88 9e 00 00
	00		 js	 $LN46@dynamic
  0003e	3b f0		 cmp	 esi, eax
  00040	0f 8d 96 00 00
	00		 jge	 $LN46@dynamic
; File C:\Program Files (x86)\Microsoft Visual Studio\2019\Community\VC\Tools\MSVC\14.29.30133\atlmfc\include\atlbase.h

; 7661 : 		UnregisterClass((LPCTSTR)pWinModule->m_rgWindowClassAtoms[i], hInst);

  00046	a1 20 00 00 00	 mov	 eax, DWORD PTR ?_AtlWinModule@ATL@@3VCAtlWinModule@1@A+32
  0004b	57		 push	 edi
  0004c	0f b7 04 70	 movzx	 eax, WORD PTR [eax+esi*2]
  00050	50		 push	 eax
  00051	ff d3		 call	 ebx
  00053	a1 24 00 00 00	 mov	 eax, DWORD PTR ?_AtlWinModule@ATL@@3VCAtlWinModule@1@A+36
  00058	46		 inc	 esi
  00059	3b f0		 cmp	 esi, eax
  0005b	7c d9		 jl	 SHORT $LL11@dynamic
; File C:\Program Files (x86)\Microsoft Visual Studio\2019\Community\VC\Tools\MSVC\14.29.30133\atlmfc\include\atlsimpcoll.h

; 238  : 		if(nIndex < 0 || nIndex >= m_nSize)

  0005d	8b 0d 00 00 00
	00		 mov	 ecx, DWORD PTR __imp__free
  00063	5b		 pop	 ebx
$LN10@dynamic:

; 216  : 		if(m_aT != NULL)

  00064	a1 20 00 00 00	 mov	 eax, DWORD PTR ?_AtlWinModule@ATL@@3VCAtlWinModule@1@A+32
  00069	5e		 pop	 esi
  0006a	85 c0		 test	 eax, eax
  0006c	74 10		 je	 SHORT $LN25@dynamic

; 217  : 		{
; 218  : 			for(int i = 0; i < m_nSize; i++)
; 219  : 				m_aT[i].~T();
; 220  : 			free(m_aT);

  0006e	50		 push	 eax
  0006f	ff d1		 call	 ecx
  00071	83 c4 04	 add	 esp, 4

; 221  : 			m_aT = NULL;

  00074	c7 05 20 00 00
	00 00 00 00 00	 mov	 DWORD PTR ?_AtlWinModule@ATL@@3VCAtlWinModule@1@A+32, 0
$LN25@dynamic:
; File C:\Program Files (x86)\Microsoft Visual Studio\2019\Community\VC\Tools\MSVC\14.29.30133\atlmfc\include\atlcore.h

; 155  : 		DeleteCriticalSection(&m_sec);

  0007e	68 04 00 00 00	 push	 OFFSET ?_AtlWinModule@ATL@@3VCAtlWinModule@1@A+4
; File C:\Program Files (x86)\Microsoft Visual Studio\2019\Community\VC\Tools\MSVC\14.29.30133\atlmfc\include\atlsimpcoll.h

; 223  : 		m_nSize = 0;

  00083	c7 05 24 00 00
	00 00 00 00 00	 mov	 DWORD PTR ?_AtlWinModule@ATL@@3VCAtlWinModule@1@A+36, 0

; 224  : 		m_nAllocSize = 0;

  0008d	c7 05 28 00 00
	00 00 00 00 00	 mov	 DWORD PTR ?_AtlWinModule@ATL@@3VCAtlWinModule@1@A+40, 0
; File C:\Program Files (x86)\Microsoft Visual Studio\2019\Community\VC\Tools\MSVC\14.29.30133\atlmfc\include\atlcore.h

; 155  : 		DeleteCriticalSection(&m_sec);

  00097	ff 15 00 00 00
	00		 call	 DWORD PTR __imp__DeleteCriticalSection@4
; File C:\Program Files (x86)\Microsoft Visual Studio\2019\Community\VC\Tools\MSVC\14.29.30133\atlmfc\include\atlbase.h

; 7664 : 	pWinModule->cbSize = 0;

  0009d	8b 0d 00 00 00
	00		 mov	 ecx, DWORD PTR __imp__free
  000a3	c7 05 00 00 00
	00 00 00 00 00	 mov	 DWORD PTR ?_AtlWinModule@ATL@@3VCAtlWinModule@1@A, 0
$LN8@dynamic:
; File C:\Program Files (x86)\Microsoft Visual Studio\2019\Community\VC\Tools\MSVC\14.29.30133\atlmfc\include\atlsimpcoll.h

; 216  : 		if(m_aT != NULL)

  000ad	a1 20 00 00 00	 mov	 eax, DWORD PTR ?_AtlWinModule@ATL@@3VCAtlWinModule@1@A+32
  000b2	5f		 pop	 edi
  000b3	85 c0		 test	 eax, eax
  000b5	74 10		 je	 SHORT $LN40@dynamic

; 217  : 		{
; 218  : 			for(int i = 0; i < m_nSize; i++)
; 219  : 				m_aT[i].~T();
; 220  : 			free(m_aT);

  000b7	50		 push	 eax
  000b8	ff d1		 call	 ecx
  000ba	83 c4 04	 add	 esp, 4

; 221  : 			m_aT = NULL;

  000bd	c7 05 20 00 00
	00 00 00 00 00	 mov	 DWORD PTR ?_AtlWinModule@ATL@@3VCAtlWinModule@1@A+32, 0
$LN40@dynamic:

; 223  : 		m_nSize = 0;

  000c7	c7 05 24 00 00
	00 00 00 00 00	 mov	 DWORD PTR ?_AtlWinModule@ATL@@3VCAtlWinModule@1@A+36, 0

; 224  : 		m_nAllocSize = 0;

  000d1	c7 05 28 00 00
	00 00 00 00 00	 mov	 DWORD PTR ?_AtlWinModule@ATL@@3VCAtlWinModule@1@A+40, 0
  000db	c3		 ret	 0
$LN46@dynamic:

; 240  : 			_AtlRaiseException((DWORD)EXCEPTION_ARRAY_BOUNDS_EXCEEDED);

  000dc	6a 01		 push	 1
  000de	68 8c 00 00 c0	 push	 -1073741684		; c000008cH
  000e3	e8 00 00 00 00	 call	 ?_AtlRaiseException@ATL@@YAXKK@Z ; ATL::_AtlRaiseException
$LN56@dynamic:
  000e8	cc		 int	 3
??__F_AtlWinModule@ATL@@YAXXZ ENDP			; ATL::`dynamic atexit destructor for '_AtlWinModule''
text$yd	ENDS
; Function compile flags: /Ogtp
; File C:\Program Files (x86)\Microsoft Visual Studio\2019\Community\VC\Tools\MSVC\14.29.30133\atlmfc\include\atlbase.h
; File C:\Program Files (x86)\Microsoft Visual Studio\2019\Community\VC\Tools\MSVC\14.29.30133\atlmfc\include\atlwinverapi.h
; File C:\Program Files (x86)\Microsoft Visual Studio\2019\Community\VC\Tools\MSVC\14.29.30133\atlmfc\include\atlcore.h
; File C:\Program Files (x86)\Windows Kits\10\Include\10.0.22000.0\shared\winerror.h
; File C:\Program Files (x86)\Microsoft Visual Studio\2019\Community\VC\Tools\MSVC\14.29.30133\atlmfc\include\atlbase.h
;	COMDAT ??__E_AtlWinModule@ATL@@YAXXZ
text$di	SEGMENT
??__E_AtlWinModule@ATL@@YAXXZ PROC			; ATL::`dynamic initializer for '_AtlWinModule'', COMDAT
; File C:\Program Files (x86)\Microsoft Visual Studio\2019\Community\VC\Tools\MSVC\14.29.30133\atlmfc\include\atlwinverapi.h

; 730  : 	return ::InitializeCriticalSectionEx(lpCriticalSection, dwSpinCount, Flags);

  00000	6a 00		 push	 0
  00002	6a 00		 push	 0
  00004	68 04 00 00 00	 push	 OFFSET ?_AtlWinModule@ATL@@3VCAtlWinModule@1@A+4
  00009	ff 15 00 00 00
	00		 call	 DWORD PTR __imp__InitializeCriticalSectionEx@12
; File C:\Program Files (x86)\Microsoft Visual Studio\2019\Community\VC\Tools\MSVC\14.29.30133\atlmfc\include\atlcore.h

; 145  : 		if (!_AtlInitializeCriticalSectionEx(&m_sec, 0, 0))

  0000f	85 c0		 test	 eax, eax
  00011	75 27		 jne	 SHORT $LN4@dynamic

; 146  : 		{
; 147  : 			hRes = HRESULT_FROM_WIN32(GetLastError());

  00013	ff 15 00 00 00
	00		 call	 DWORD PTR __imp__GetLastError@0
; File C:\Program Files (x86)\Windows Kits\10\Include\10.0.22000.0\shared\winerror.h

; 29673: FORCEINLINE _Translates_Win32_to_HRESULT_(x) HRESULT HRESULT_FROM_WIN32(unsigned long x) { return (HRESULT)(x) <= 0 ? (HRESULT)(x) : (HRESULT) (((x) & 0x0000FFFF) | (FACILITY_WIN32 << 16) | 0x80000000);}

  00019	85 c0		 test	 eax, eax
  0001b	7e 0a		 jle	 SHORT $LN26@dynamic
  0001d	0f b7 c0	 movzx	 eax, ax
  00020	0d 00 00 07 80	 or	 eax, -2147024896	; 80070000H
; File C:\Program Files (x86)\Microsoft Visual Studio\2019\Community\VC\Tools\MSVC\14.29.30133\atlmfc\include\atlbase.h

; 2941 : 		if (FAILED(hr))

  00025	85 c0		 test	 eax, eax
$LN26@dynamic:
  00027	79 11		 jns	 SHORT $LN4@dynamic

; 2942 : 		{
; 2943 : 			ATLASSERT(0);
; 2944 : 			CAtlBaseModule::m_bInitFailed = true;

  00029	c6 05 00 00 00
	00 01		 mov	 BYTE PTR ?m_bInitFailed@CAtlBaseModule@ATL@@2_NA, 1 ; ATL::CAtlBaseModule::m_bInitFailed

; 2945 : 			cbSize = 0;

  00030	c7 05 00 00 00
	00 00 00 00 00	 mov	 DWORD PTR ?_AtlWinModule@ATL@@3VCAtlWinModule@1@A, 0
$LN4@dynamic:

; 2972 : __declspec(selectany) CAtlWinModule _AtlWinModule;

  0003a	68 00 00 00 00	 push	 OFFSET ??__F_AtlWinModule@ATL@@YAXXZ ; ATL::`dynamic atexit destructor for '_AtlWinModule''
  0003f	e8 00 00 00 00	 call	 _atexit
  00044	59		 pop	 ecx
  00045	c3		 ret	 0
??__E_AtlWinModule@ATL@@YAXXZ ENDP			; ATL::`dynamic initializer for '_AtlWinModule''
text$di	ENDS
; Function compile flags: /Ogtp
; File C:\Program Files (x86)\Microsoft Visual Studio\2019\Community\VC\Tools\MSVC\14.29.30133\atlmfc\include\atlwinverapi.h
;	COMDAT ?_AtlInitializeCriticalSectionEx@ATL@@YAHPAU_RTL_CRITICAL_SECTION@@KK@Z
_TEXT	SEGMENT
_lpCriticalSection$ = 8					; size = 4
_dwSpinCount$ = 12					; size = 4
_Flags$ = 16						; size = 4
?_AtlInitializeCriticalSectionEx@ATL@@YAHPAU_RTL_CRITICAL_SECTION@@KK@Z PROC ; ATL::_AtlInitializeCriticalSectionEx, COMDAT

; 727  : {

  00000	55		 push	 ebp
  00001	8b ec		 mov	 ebp, esp

; 728  : #if (NTDDI_VERSION >= NTDDI_VISTA) && !defined(_USING_V110_SDK71_) && !defined(_ATL_XP_TARGETING)
; 729  : 	// InitializeCriticalSectionEx is available in Vista or later, desktop or store apps
; 730  : 	return ::InitializeCriticalSectionEx(lpCriticalSection, dwSpinCount, Flags);

  00003	ff 75 10	 push	 DWORD PTR _Flags$[ebp]
  00006	ff 75 0c	 push	 DWORD PTR _dwSpinCount$[ebp]
  00009	ff 75 08	 push	 DWORD PTR _lpCriticalSection$[ebp]
  0000c	ff 15 00 00 00
	00		 call	 DWORD PTR __imp__InitializeCriticalSectionEx@12

; 731  : #else
; 732  : 	UNREFERENCED_PARAMETER(Flags);
; 733  : 
; 734  : 	// ...otherwise fall back to using InitializeCriticalSectionAndSpinCount.
; 735  : 	return ::InitializeCriticalSectionAndSpinCount(lpCriticalSection, dwSpinCount);
; 736  : #endif
; 737  : }

  00012	5d		 pop	 ebp
  00013	c3		 ret	 0
?_AtlInitializeCriticalSectionEx@ATL@@YAHPAU_RTL_CRITICAL_SECTION@@KK@Z ENDP ; ATL::_AtlInitializeCriticalSectionEx
_TEXT	ENDS
; Function compile flags: /Ogtp
; File C:\Program Files (x86)\Microsoft Visual Studio\2019\Community\VC\Tools\MSVC\14.29.30133\atlmfc\include\atlexcept.h
;	COMDAT ?_AtlRaiseException@ATL@@YAXKK@Z
_TEXT	SEGMENT
_dwExceptionCode$ = 8					; size = 4
_dwExceptionFlags$ = 12					; size = 4
?_AtlRaiseException@ATL@@YAXKK@Z PROC			; ATL::_AtlRaiseException, COMDAT

; 30   : {

  00000	55		 push	 ebp
  00001	8b ec		 mov	 ebp, esp

; 31   : 	RaiseException( dwExceptionCode, dwExceptionFlags, 0, NULL );

  00003	6a 00		 push	 0
  00005	6a 00		 push	 0
  00007	ff 75 0c	 push	 DWORD PTR _dwExceptionFlags$[ebp]
  0000a	ff 75 08	 push	 DWORD PTR _dwExceptionCode$[ebp]
  0000d	ff 15 00 00 00
	00		 call	 DWORD PTR __imp__RaiseException@16

; 32   : }

  00013	5d		 pop	 ebp
  00014	c3		 ret	 0
?_AtlRaiseException@ATL@@YAXKK@Z ENDP			; ATL::_AtlRaiseException
_TEXT	ENDS
; Function compile flags: /Ogtp
; File C:\Program Files (x86)\Microsoft Visual Studio\2019\Community\VC\Tools\MSVC\14.29.30133\atlmfc\include\afx.inl
;	COMDAT ?Dump@CObject@@UBEXAAVCDumpContext@@@Z
_TEXT	SEGMENT
___formal$ = 8						; size = 4
?Dump@CObject@@UBEXAAVCDumpContext@@@Z PROC		; CObject::Dump, COMDAT
; _this$ = ecx

; 122  : 	{ /* no dumping in release builds */ }

  00000	c2 04 00	 ret	 4
?Dump@CObject@@UBEXAAVCDumpContext@@@Z ENDP		; CObject::Dump
_TEXT	ENDS
; Function compile flags: /Ogtp
; File C:\Program Files (x86)\Microsoft Visual Studio\2019\Community\VC\Tools\MSVC\14.29.30133\atlmfc\include\afx.inl
;	COMDAT ?AssertValid@CObject@@UBEXXZ
_TEXT	SEGMENT
?AssertValid@CObject@@UBEXXZ PROC			; CObject::AssertValid, COMDAT
; _this$ = ecx

; 120  : 	{ /* no asserts in release builds */ }

  00000	c2 00 00	 ret	 0
?AssertValid@CObject@@UBEXXZ ENDP			; CObject::AssertValid
_TEXT	ENDS
; Function compile flags: /Ogtp
; File C:\Program Files (x86)\Microsoft Visual Studio\2019\Community\VC\Tools\MSVC\14.29.30133\atlmfc\include\afx.inl
;	COMDAT ?Serialize@CObject@@UAEXAAVCArchive@@@Z
_TEXT	SEGMENT
___formal$ = 8						; size = 4
?Serialize@CObject@@UAEXAAVCArchive@@@Z PROC		; CObject::Serialize, COMDAT
; _this$ = ecx

; 106  : 	{ /* CObject does not serialize anything by default */ }

  00000	c2 04 00	 ret	 4
?Serialize@CObject@@UAEXAAVCArchive@@@Z ENDP		; CObject::Serialize
_TEXT	ENDS
; Function compile flags: /Ogtp
; File C:\Program Files (x86)\Windows Kits\10\Include\10.0.22000.0\ucrt\stdio.h
;	COMDAT _sscanf
_TEXT	SEGMENT
__Buffer$ = 8						; size = 4
__Format$ = 12						; size = 4
_sscanf	PROC						; COMDAT

; 2247 :     {

  00000	55		 push	 ebp
  00001	8b ec		 mov	 ebp, esp

; 2153 :         return __stdio_common_vsscanf(

  00003	8d 45 10	 lea	 eax, DWORD PTR __Format$[ebp+4]
  00006	50		 push	 eax
  00007	6a 00		 push	 0
  00009	ff 75 0c	 push	 DWORD PTR __Format$[ebp]
  0000c	6a ff		 push	 -1
  0000e	ff 75 08	 push	 DWORD PTR __Buffer$[ebp]
  00011	e8 00 00 00 00	 call	 ___local_stdio_scanf_options
  00016	ff 70 04	 push	 DWORD PTR [eax+4]
  00019	ff 30		 push	 DWORD PTR [eax]
  0001b	ff 15 00 00 00
	00		 call	 DWORD PTR __imp____stdio_common_vsscanf
  00021	83 c4 1c	 add	 esp, 28			; 0000001cH

; 2248 :         int _Result;
; 2249 :         va_list _ArgList;
; 2250 :         __crt_va_start(_ArgList, _Format);
; 2251 :         _Result = _vsscanf_l(_Buffer, _Format, NULL, _ArgList);
; 2252 :         __crt_va_end(_ArgList);
; 2253 :         return _Result;
; 2254 :     }

  00024	5d		 pop	 ebp
  00025	c3		 ret	 0
_sscanf	ENDP
_TEXT	ENDS
; Function compile flags: /Ogtp
; File C:\Program Files (x86)\Windows Kits\10\Include\10.0.22000.0\ucrt\corecrt_stdio_config.h
;	COMDAT ___local_stdio_scanf_options
_TEXT	SEGMENT
___local_stdio_scanf_options PROC			; COMDAT

; 101  :         static unsigned __int64 _OptionsStorage;
; 102  :         return &_OptionsStorage;

  00000	b8 00 00 00 00	 mov	 eax, OFFSET ?_OptionsStorage@?1??__local_stdio_scanf_options@@9@4_KA ; `__local_stdio_scanf_options'::`2'::_OptionsStorage

; 103  :     }

  00005	c3		 ret	 0
___local_stdio_scanf_options ENDP
_TEXT	ENDS
; Function compile flags: /Ogtp
; File D:\git\src\IBK\IBK_DRFN\ProjSrc\SrcDrfn\Chart\MULTICHART\XTabCtrl.cpp
;	COMDAT ?__empty_global_delete@@YAXPAXI@Z
_TEXT	SEGMENT
___formal$ = 8						; size = 4
___formal$ = 12						; size = 4
?__empty_global_delete@@YAXPAXI@Z PROC			; __empty_global_delete, COMDAT

  00000	c2 00 00	 ret	 0
?__empty_global_delete@@YAXPAXI@Z ENDP			; __empty_global_delete
_TEXT	ENDS
; Function compile flags: /Ogtp
; File D:\git\src\IBK\IBK_DRFN\ProjSrc\SrcDrfn\Chart\MULTICHART\XTabCtrl.cpp
;	COMDAT ?__empty_global_delete@@YAXPAX@Z
_TEXT	SEGMENT
___formal$ = 8						; size = 4
?__empty_global_delete@@YAXPAX@Z PROC			; __empty_global_delete, COMDAT

  00000	c2 00 00	 ret	 0
?__empty_global_delete@@YAXPAX@Z ENDP			; __empty_global_delete
_TEXT	ENDS
END
