; Listing generated by Microsoft (R) Optimizing Compiler Version 19.29.30145.0 

	TITLE	D:\git\src\IBK\IBK_DRFN\#DRfn-CS\_Obj\Symbol\Coordinate.obj
	.686P
	.XMM
	include listing.inc
	.model	flat

INCLUDELIB MSVCRT
INCLUDELIB OLDNAMES

PUBLIC	?__empty_global_delete@@YAXPAX@Z		; __empty_global_delete
PUBLIC	?__empty_global_delete@@YAXPAXI@Z		; __empty_global_delete
PUBLIC	??0CCoordinate@@QAE@XZ				; CCoordinate::CCoordinate
PUBLIC	??0CCoordinate@@QAE@ABN0@Z			; CCoordinate::CCoordinate
PUBLIC	??0CCoordinate@@QAE@ABN0H@Z			; CCoordinate::CCoordinate
PUBLIC	??0CCoordinate@@QAE@ABVCPoint@@@Z		; CCoordinate::CCoordinate
PUBLIC	?GetX@CCoordinate@@QBENXZ			; CCoordinate::GetX
PUBLIC	?GetY@CCoordinate@@QBENXZ			; CCoordinate::GetY
PUBLIC	?GetPixel@CCoordinate@@QBE?AVCPoint@@XZ		; CCoordinate::GetPixel
PUBLIC	?GetTimeDiff@CCoordinate@@QBEHXZ		; CCoordinate::GetTimeDiff
PUBLIC	?SetX@CCoordinate@@QAEXABN@Z			; CCoordinate::SetX
PUBLIC	?SetY@CCoordinate@@QAEXABN@Z			; CCoordinate::SetY
PUBLIC	?SetTimeDiff@CCoordinate@@QAEXH@Z		; CCoordinate::SetTimeDiff
EXTRN	__fltused:DWORD
; Function compile flags: /Ogtp
; File D:\git\src\IBK\IBK_DRFN\ProjSrc\SrcChartEx\ChartAddIn\ChartAnalysisToolAddIn\Symbol\Coordinate.cpp
;	COMDAT ?SetTimeDiff@CCoordinate@@QAEXH@Z
_TEXT	SEGMENT
_nTimeDiff$ = 8						; size = 4
?SetTimeDiff@CCoordinate@@QAEXH@Z PROC			; CCoordinate::SetTimeDiff, COMDAT
; _this$ = ecx

; 77   : {

  00000	55		 push	 ebp
  00001	8b ec		 mov	 ebp, esp

; 78   : 	m_nTimeDiff = nTimeDiff;

  00003	8b 45 08	 mov	 eax, DWORD PTR _nTimeDiff$[ebp]
  00006	89 41 10	 mov	 DWORD PTR [ecx+16], eax

; 79   : }

  00009	5d		 pop	 ebp
  0000a	c2 04 00	 ret	 4
?SetTimeDiff@CCoordinate@@QAEXH@Z ENDP			; CCoordinate::SetTimeDiff
_TEXT	ENDS
; Function compile flags: /Ogtp
; File D:\git\src\IBK\IBK_DRFN\ProjSrc\SrcChartEx\ChartAddIn\ChartAnalysisToolAddIn\Symbol\Coordinate.cpp
;	COMDAT ?SetY@CCoordinate@@QAEXABN@Z
_TEXT	SEGMENT
_y$ = 8							; size = 4
?SetY@CCoordinate@@QAEXABN@Z PROC			; CCoordinate::SetY, COMDAT
; _this$ = ecx

; 71   : {

  00000	55		 push	 ebp
  00001	8b ec		 mov	 ebp, esp

; 72   : 	m_nY = y;

  00003	8b 45 08	 mov	 eax, DWORD PTR _y$[ebp]
  00006	f2 0f 10 00	 movsd	 xmm0, QWORD PTR [eax]
  0000a	f2 0f 11 41 08	 movsd	 QWORD PTR [ecx+8], xmm0

; 73   : }

  0000f	5d		 pop	 ebp
  00010	c2 04 00	 ret	 4
?SetY@CCoordinate@@QAEXABN@Z ENDP			; CCoordinate::SetY
_TEXT	ENDS
; Function compile flags: /Ogtp
; File D:\git\src\IBK\IBK_DRFN\ProjSrc\SrcChartEx\ChartAddIn\ChartAnalysisToolAddIn\Symbol\Coordinate.cpp
;	COMDAT ?SetX@CCoordinate@@QAEXABN@Z
_TEXT	SEGMENT
_x$ = 8							; size = 4
?SetX@CCoordinate@@QAEXABN@Z PROC			; CCoordinate::SetX, COMDAT
; _this$ = ecx

; 66   : {

  00000	55		 push	 ebp
  00001	8b ec		 mov	 ebp, esp

; 67   : 	m_nX = x;

  00003	8b 45 08	 mov	 eax, DWORD PTR _x$[ebp]
  00006	f2 0f 10 00	 movsd	 xmm0, QWORD PTR [eax]
  0000a	f2 0f 11 01	 movsd	 QWORD PTR [ecx], xmm0

; 68   : }

  0000e	5d		 pop	 ebp
  0000f	c2 04 00	 ret	 4
?SetX@CCoordinate@@QAEXABN@Z ENDP			; CCoordinate::SetX
_TEXT	ENDS
; Function compile flags: /Ogtp
; File D:\git\src\IBK\IBK_DRFN\ProjSrc\SrcChartEx\ChartAddIn\ChartAnalysisToolAddIn\Symbol\Coordinate.cpp
;	COMDAT ?GetTimeDiff@CCoordinate@@QBEHXZ
_TEXT	SEGMENT
?GetTimeDiff@CCoordinate@@QBEHXZ PROC			; CCoordinate::GetTimeDiff, COMDAT
; _this$ = ecx

; 62   : 	return m_nTimeDiff;

  00000	8b 41 10	 mov	 eax, DWORD PTR [ecx+16]

; 63   : }

  00003	c3		 ret	 0
?GetTimeDiff@CCoordinate@@QBEHXZ ENDP			; CCoordinate::GetTimeDiff
_TEXT	ENDS
; Function compile flags: /Ogtp
; File D:\git\src\IBK\IBK_DRFN\ProjSrc\SrcChartEx\ChartAddIn\ChartAnalysisToolAddIn\Symbol\Coordinate.cpp
; File C:\Program Files (x86)\Microsoft Visual Studio\2019\Community\VC\Tools\MSVC\14.29.30133\atlmfc\include\atltypes.h
; File D:\git\src\IBK\IBK_DRFN\ProjSrc\SrcChartEx\ChartAddIn\ChartAnalysisToolAddIn\Symbol\Coordinate.cpp
; File C:\Program Files (x86)\Microsoft Visual Studio\2019\Community\VC\Tools\MSVC\14.29.30133\atlmfc\include\atltypes.h
; File D:\git\src\IBK\IBK_DRFN\ProjSrc\SrcChartEx\ChartAddIn\ChartAnalysisToolAddIn\Symbol\Coordinate.cpp
;	COMDAT ?GetPixel@CCoordinate@@QBE?AVCPoint@@XZ
_TEXT	SEGMENT
___$ReturnUdt$ = 8					; size = 4
?GetPixel@CCoordinate@@QBE?AVCPoint@@XZ PROC		; CCoordinate::GetPixel, COMDAT
; _this$ = ecx

; 82   : {

  00000	55		 push	 ebp
  00001	8b ec		 mov	 ebp, esp

; 83   : 	return CPoint((int)m_nX, (int)m_nY);

  00003	f2 0f 2c 11	 cvttsd2si edx, QWORD PTR [ecx]
; File C:\Program Files (x86)\Microsoft Visual Studio\2019\Community\VC\Tools\MSVC\14.29.30133\atlmfc\include\atltypes.h

; 408  : 	x = initX;

  00007	8b 45 08	 mov	 eax, DWORD PTR ___$ReturnUdt$[ebp]
; File D:\git\src\IBK\IBK_DRFN\ProjSrc\SrcChartEx\ChartAddIn\ChartAnalysisToolAddIn\Symbol\Coordinate.cpp

; 83   : 	return CPoint((int)m_nX, (int)m_nY);

  0000a	f2 0f 2c 49 08	 cvttsd2si ecx, QWORD PTR [ecx+8]
; File C:\Program Files (x86)\Microsoft Visual Studio\2019\Community\VC\Tools\MSVC\14.29.30133\atlmfc\include\atltypes.h

; 408  : 	x = initX;

  0000f	89 10		 mov	 DWORD PTR [eax], edx

; 409  : 	y = initY;

  00011	89 48 04	 mov	 DWORD PTR [eax+4], ecx
; File D:\git\src\IBK\IBK_DRFN\ProjSrc\SrcChartEx\ChartAddIn\ChartAnalysisToolAddIn\Symbol\Coordinate.cpp

; 84   : }

  00014	5d		 pop	 ebp
  00015	c2 04 00	 ret	 4
?GetPixel@CCoordinate@@QBE?AVCPoint@@XZ ENDP		; CCoordinate::GetPixel
_TEXT	ENDS
; Function compile flags: /Ogtp
; File D:\git\src\IBK\IBK_DRFN\ProjSrc\SrcChartEx\ChartAddIn\ChartAnalysisToolAddIn\Symbol\Coordinate.cpp
;	COMDAT ?GetY@CCoordinate@@QBENXZ
_TEXT	SEGMENT
?GetY@CCoordinate@@QBENXZ PROC				; CCoordinate::GetY, COMDAT
; _this$ = ecx

; 56   : 	return m_nY;

  00000	dd 41 08	 fld	 QWORD PTR [ecx+8]

; 57   : }

  00003	c3		 ret	 0
?GetY@CCoordinate@@QBENXZ ENDP				; CCoordinate::GetY
_TEXT	ENDS
; Function compile flags: /Ogtp
; File D:\git\src\IBK\IBK_DRFN\ProjSrc\SrcChartEx\ChartAddIn\ChartAnalysisToolAddIn\Symbol\Coordinate.cpp
;	COMDAT ?GetX@CCoordinate@@QBENXZ
_TEXT	SEGMENT
?GetX@CCoordinate@@QBENXZ PROC				; CCoordinate::GetX, COMDAT
; _this$ = ecx

; 51   : 	return m_nX;

  00000	dd 01		 fld	 QWORD PTR [ecx]

; 52   : }

  00002	c3		 ret	 0
?GetX@CCoordinate@@QBENXZ ENDP				; CCoordinate::GetX
_TEXT	ENDS
; Function compile flags: /Ogtp
; File D:\git\src\IBK\IBK_DRFN\ProjSrc\SrcChartEx\ChartAddIn\ChartAnalysisToolAddIn\Symbol\Coordinate.cpp
;	COMDAT ??0CCoordinate@@QAE@ABVCPoint@@@Z
_TEXT	SEGMENT
_point$ = 8						; size = 4
??0CCoordinate@@QAE@ABVCPoint@@@Z PROC			; CCoordinate::CCoordinate, COMDAT
; _this$ = ecx

; 45   : {

  00000	55		 push	 ebp
  00001	8b ec		 mov	 ebp, esp

; 42   : 	m_nX(point.x),

  00003	8b 45 08	 mov	 eax, DWORD PTR _point$[ebp]
  00006	66 0f 6e 00	 movd	 xmm0, DWORD PTR [eax]
  0000a	f3 0f e6 c0	 cvtdq2pd xmm0, xmm0
  0000e	f2 0f 11 01	 movsd	 QWORD PTR [ecx], xmm0
  00012	66 0f 6e 40 04	 movd	 xmm0, DWORD PTR [eax+4]

; 46   : }

  00017	8b c1		 mov	 eax, ecx
  00019	f3 0f e6 c0	 cvtdq2pd xmm0, xmm0
  0001d	c7 41 10 00 00
	00 00		 mov	 DWORD PTR [ecx+16], 0
  00024	f2 0f 11 41 08	 movsd	 QWORD PTR [ecx+8], xmm0
  00029	5d		 pop	 ebp
  0002a	c2 04 00	 ret	 4
??0CCoordinate@@QAE@ABVCPoint@@@Z ENDP			; CCoordinate::CCoordinate
_TEXT	ENDS
; Function compile flags: /Ogtp
; File D:\git\src\IBK\IBK_DRFN\ProjSrc\SrcChartEx\ChartAddIn\ChartAnalysisToolAddIn\Symbol\Coordinate.cpp
;	COMDAT ??0CCoordinate@@QAE@ABN0H@Z
_TEXT	SEGMENT
_x$ = 8							; size = 4
_y$ = 12						; size = 4
_nTimeDiff$ = 16					; size = 4
??0CCoordinate@@QAE@ABN0H@Z PROC			; CCoordinate::CCoordinate, COMDAT
; _this$ = ecx

; 38   : {

  00000	55		 push	 ebp
  00001	8b ec		 mov	 ebp, esp

; 35   : 	m_nX(x),

  00003	8b 45 08	 mov	 eax, DWORD PTR _x$[ebp]
  00006	f2 0f 10 00	 movsd	 xmm0, QWORD PTR [eax]

; 36   : 	m_nY(y),

  0000a	8b 45 0c	 mov	 eax, DWORD PTR _y$[ebp]
  0000d	f2 0f 11 01	 movsd	 QWORD PTR [ecx], xmm0
  00011	f2 0f 10 00	 movsd	 xmm0, QWORD PTR [eax]

; 37   : 	m_nTimeDiff(nTimeDiff)

  00015	8b 45 10	 mov	 eax, DWORD PTR _nTimeDiff$[ebp]
  00018	89 41 10	 mov	 DWORD PTR [ecx+16], eax

; 39   : }

  0001b	8b c1		 mov	 eax, ecx
  0001d	f2 0f 11 41 08	 movsd	 QWORD PTR [ecx+8], xmm0
  00022	5d		 pop	 ebp
  00023	c2 0c 00	 ret	 12			; 0000000cH
??0CCoordinate@@QAE@ABN0H@Z ENDP			; CCoordinate::CCoordinate
_TEXT	ENDS
; Function compile flags: /Ogtp
; File D:\git\src\IBK\IBK_DRFN\ProjSrc\SrcChartEx\ChartAddIn\ChartAnalysisToolAddIn\Symbol\Coordinate.cpp
;	COMDAT ??0CCoordinate@@QAE@ABN0@Z
_TEXT	SEGMENT
_x$ = 8							; size = 4
_y$ = 12						; size = 4
??0CCoordinate@@QAE@ABN0@Z PROC				; CCoordinate::CCoordinate, COMDAT
; _this$ = ecx

; 30   : {

  00000	55		 push	 ebp
  00001	8b ec		 mov	 ebp, esp

; 27   : 	m_nX(x),

  00003	8b 45 08	 mov	 eax, DWORD PTR _x$[ebp]
  00006	f2 0f 10 00	 movsd	 xmm0, QWORD PTR [eax]

; 28   : 	m_nY(y),

  0000a	8b 45 0c	 mov	 eax, DWORD PTR _y$[ebp]
  0000d	f2 0f 11 01	 movsd	 QWORD PTR [ecx], xmm0
  00011	f2 0f 10 00	 movsd	 xmm0, QWORD PTR [eax]

; 31   : }

  00015	8b c1		 mov	 eax, ecx
  00017	f2 0f 11 41 08	 movsd	 QWORD PTR [ecx+8], xmm0
  0001c	c7 41 10 00 00
	00 00		 mov	 DWORD PTR [ecx+16], 0
  00023	5d		 pop	 ebp
  00024	c2 08 00	 ret	 8
??0CCoordinate@@QAE@ABN0@Z ENDP				; CCoordinate::CCoordinate
_TEXT	ENDS
; Function compile flags: /Ogtp
; File D:\git\src\IBK\IBK_DRFN\ProjSrc\SrcChartEx\ChartAddIn\ChartAnalysisToolAddIn\Symbol\Coordinate.cpp
;	COMDAT ??0CCoordinate@@QAE@XZ
_TEXT	SEGMENT
??0CCoordinate@@QAE@XZ PROC				; CCoordinate::CCoordinate, COMDAT
; _this$ = ecx

; 23   : {

  00000	0f 57 c0	 xorps	 xmm0, xmm0

; 22   : 	m_nTimeDiff(0)

  00003	c7 41 10 00 00
	00 00		 mov	 DWORD PTR [ecx+16], 0
  0000a	0f 11 01	 movups	 XMMWORD PTR [ecx], xmm0

; 24   : }

  0000d	8b c1		 mov	 eax, ecx
  0000f	c3		 ret	 0
??0CCoordinate@@QAE@XZ ENDP				; CCoordinate::CCoordinate
_TEXT	ENDS
; Function compile flags: /Ogtp
; File D:\git\src\IBK\IBK_DRFN\ProjSrc\SrcChartEx\ChartAddIn\ChartAnalysisToolAddIn\Symbol\Coordinate.cpp
;	COMDAT ?__empty_global_delete@@YAXPAXI@Z
_TEXT	SEGMENT
___formal$ = 8						; size = 4
___formal$ = 12						; size = 4
?__empty_global_delete@@YAXPAXI@Z PROC			; __empty_global_delete, COMDAT

  00000	c2 00 00	 ret	 0
?__empty_global_delete@@YAXPAXI@Z ENDP			; __empty_global_delete
_TEXT	ENDS
; Function compile flags: /Ogtp
; File D:\git\src\IBK\IBK_DRFN\ProjSrc\SrcChartEx\ChartAddIn\ChartAnalysisToolAddIn\Symbol\Coordinate.cpp
;	COMDAT ?__empty_global_delete@@YAXPAX@Z
_TEXT	SEGMENT
___formal$ = 8						; size = 4
?__empty_global_delete@@YAXPAX@Z PROC			; __empty_global_delete, COMDAT

  00000	c2 00 00	 ret	 0
?__empty_global_delete@@YAXPAX@Z ENDP			; __empty_global_delete
_TEXT	ENDS
END
