; Listing generated by Microsoft (R) Optimizing Compiler Version 19.29.30145.0 

	TITLE	D:\git\src\IBK\IBK_DRFN\#DRfn-CS\_Obj\Symbol\DrawingSymbolFactory.obj
	.686P
	.XMM
	include listing.inc
	.model	flat

INCLUDELIB MSVCRT
INCLUDELIB OLDNAMES

PUBLIC	?__empty_global_delete@@YAXPAX@Z		; __empty_global_delete
PUBLIC	?__empty_global_delete@@YAXPAXI@Z		; __empty_global_delete
PUBLIC	?Copy@CDrawingSymbolFactory@@SAPAVCDrawingSymbol@@PAV2@@Z ; CDrawingSymbolFactory::Copy
PUBLIC	?Make@CDrawingSymbolFactory@@SAPAVCDrawingSymbol@@W4TOOLTYPE@CSymbolBaseData@@ABVCCoordinate@@1ABKABH3AB_NABUtagLOGFONTA@@_N@Z ; CDrawingSymbolFactory::Make
PUBLIC	?Make@CDrawingSymbolFactory@@SAPAVCDrawingSymbol@@W4TOOLTYPE@CSymbolBaseData@@ABW4SIZETYPE@4@ABVCCoordinate@@ABVCSize@@ABKABUtagLOGFONTA@@4@Z ; CDrawingSymbolFactory::Make
PUBLIC	?Remove@CDrawingSymbolFactory@@SAXPAVCDrawingSymbol@@@Z ; CDrawingSymbolFactory::Remove
EXTRN	??2@YAPAXI@Z:PROC				; operator new
EXTRN	??3@YAXPAXI@Z:PROC				; operator delete
EXTRN	__imp_??1?$CStringT@DV?$StrTraitMFC_DLL@DV?$ChTraitsCRT@D@ATL@@@@@ATL@@QAE@XZ:PROC
EXTRN	?GetLogFont@CDrawingSymbol@@QAE?AUtagLOGFONTA@@XZ:PROC ; CDrawingSymbol::GetLogFont
EXTRN	?GetTextColor@CDrawingSymbol@@QBEKXZ:PROC	; CDrawingSymbol::GetTextColor
EXTRN	?GetWeight@CDrawingSymbol@@QBEHXZ:PROC		; CDrawingSymbol::GetWeight
EXTRN	?GetStyle@CDrawingSymbol@@QBEHXZ:PROC		; CDrawingSymbol::GetStyle
EXTRN	?GetColor@CDrawingSymbol@@QBEKXZ:PROC		; CDrawingSymbol::GetColor
EXTRN	?GetSizeType@CDrawingSymbol@@QBE?AW4SIZETYPE@CSymbolBaseData@@XZ:PROC ; CDrawingSymbol::GetSizeType
EXTRN	?GetSymbolType@CDrawingSymbol@@QAE?AW4TOOLTYPE@CSymbolBaseData@@XZ:PROC ; CDrawingSymbol::GetSymbolType
EXTRN	?GetFillState@CDrawingSymbol@@QAE_NXZ:PROC	; CDrawingSymbol::GetFillState
EXTRN	??0CFigure_Square@@QAE@W4TOOLTYPE@CSymbolBaseData@@ABVCCoordinate@@1ABKABH3AB_NABUtagLOGFONTA@@_N@Z:PROC ; CFigure_Square::CFigure_Square
EXTRN	??0CFigure_Circle@@QAE@W4TOOLTYPE@CSymbolBaseData@@ABVCCoordinate@@1ABKABH3AB_NABUtagLOGFONTA@@_N@Z:PROC ; CFigure_Circle::CFigure_Circle
EXTRN	??0CFigure_Triangle@@QAE@W4TOOLTYPE@CSymbolBaseData@@ABVCCoordinate@@1ABKABH3AB_NABUtagLOGFONTA@@_N@Z:PROC ; CFigure_Triangle::CFigure_Triangle
EXTRN	??0CText@@QAE@W4TOOLTYPE@CSymbolBaseData@@ABW4SIZETYPE@2@ABVCCoordinate@@ABVCSize@@ABKABUtagLOGFONTA@@4@Z:PROC ; CText::CText
EXTRN	??0CText@@QAE@W4TOOLTYPE@CSymbolBaseData@@ABW4SIZETYPE@2@ABVCCoordinate@@ABVCSize@@ABKABUtagLOGFONTA@@4ABV?$CStringT@DV?$StrTraitMFC_DLL@DV?$ChTraitsCRT@D@ATL@@@@@ATL@@@Z:PROC ; CText::CText
EXTRN	??0CArrow_Left@@QAE@W4TOOLTYPE@CSymbolBaseData@@ABW4SIZETYPE@2@ABVCCoordinate@@ABVCSize@@ABKABUtagLOGFONTA@@@Z:PROC ; CArrow_Left::CArrow_Left
EXTRN	??0CArrow_Right@@QAE@W4TOOLTYPE@CSymbolBaseData@@ABW4SIZETYPE@2@ABVCCoordinate@@ABVCSize@@ABKABUtagLOGFONTA@@@Z:PROC ; CArrow_Right::CArrow_Right
EXTRN	??0CArrow_Up@@QAE@W4TOOLTYPE@CSymbolBaseData@@ABW4SIZETYPE@2@ABVCCoordinate@@ABVCSize@@ABKABUtagLOGFONTA@@@Z:PROC ; CArrow_Up::CArrow_Up
EXTRN	??0CArrow_Down@@QAE@W4TOOLTYPE@CSymbolBaseData@@ABW4SIZETYPE@2@ABVCCoordinate@@ABVCSize@@ABKABUtagLOGFONTA@@@Z:PROC ; CArrow_Down::CArrow_Down
EXTRN	??0CArrow_LeftTop@@QAE@W4TOOLTYPE@CSymbolBaseData@@ABW4SIZETYPE@2@ABVCCoordinate@@ABVCSize@@ABKABUtagLOGFONTA@@@Z:PROC ; CArrow_LeftTop::CArrow_LeftTop
EXTRN	??0CArrow_LeftBottom@@QAE@W4TOOLTYPE@CSymbolBaseData@@ABW4SIZETYPE@2@ABVCCoordinate@@ABVCSize@@ABKABUtagLOGFONTA@@@Z:PROC ; CArrow_LeftBottom::CArrow_LeftBottom
EXTRN	??0CArrow_RightTop@@QAE@W4TOOLTYPE@CSymbolBaseData@@ABW4SIZETYPE@2@ABVCCoordinate@@ABVCSize@@ABKABUtagLOGFONTA@@@Z:PROC ; CArrow_RightTop::CArrow_RightTop
EXTRN	??0CArrow_RightBottom@@QAE@W4TOOLTYPE@CSymbolBaseData@@ABW4SIZETYPE@2@ABVCCoordinate@@ABVCSize@@ABKABUtagLOGFONTA@@@Z:PROC ; CArrow_RightBottom::CArrow_RightBottom
EXTRN	??0CNumber_One@@QAE@W4TOOLTYPE@CSymbolBaseData@@ABW4SIZETYPE@2@ABVCCoordinate@@ABVCSize@@ABKABUtagLOGFONTA@@4@Z:PROC ; CNumber_One::CNumber_One
EXTRN	??0CNumber_Two@@QAE@W4TOOLTYPE@CSymbolBaseData@@ABW4SIZETYPE@2@ABVCCoordinate@@ABVCSize@@ABKABUtagLOGFONTA@@4@Z:PROC ; CNumber_Two::CNumber_Two
EXTRN	??0CNumber_Three@@QAE@W4TOOLTYPE@CSymbolBaseData@@ABW4SIZETYPE@2@ABVCCoordinate@@ABVCSize@@ABKABUtagLOGFONTA@@4@Z:PROC ; CNumber_Three::CNumber_Three
EXTRN	??0CNumber_Four@@QAE@W4TOOLTYPE@CSymbolBaseData@@ABW4SIZETYPE@2@ABVCCoordinate@@ABVCSize@@ABKABUtagLOGFONTA@@4@Z:PROC ; CNumber_Four::CNumber_Four
EXTRN	??0CNumber_Five@@QAE@W4TOOLTYPE@CSymbolBaseData@@ABW4SIZETYPE@2@ABVCCoordinate@@ABVCSize@@ABKABUtagLOGFONTA@@4@Z:PROC ; CNumber_Five::CNumber_Five
EXTRN	??0CNumber_Six@@QAE@W4TOOLTYPE@CSymbolBaseData@@ABW4SIZETYPE@2@ABVCCoordinate@@ABVCSize@@ABKABUtagLOGFONTA@@4@Z:PROC ; CNumber_Six::CNumber_Six
EXTRN	??0CNumber_Seven@@QAE@W4TOOLTYPE@CSymbolBaseData@@ABW4SIZETYPE@2@ABVCCoordinate@@ABVCSize@@ABKABUtagLOGFONTA@@4@Z:PROC ; CNumber_Seven::CNumber_Seven
EXTRN	??0CNumber_Eight@@QAE@W4TOOLTYPE@CSymbolBaseData@@ABW4SIZETYPE@2@ABVCCoordinate@@ABVCSize@@ABKABUtagLOGFONTA@@4@Z:PROC ; CNumber_Eight::CNumber_Eight
EXTRN	??0CNumber_Nine@@QAE@W4TOOLTYPE@CSymbolBaseData@@ABW4SIZETYPE@2@ABVCCoordinate@@ABVCSize@@ABKABUtagLOGFONTA@@4@Z:PROC ; CNumber_Nine::CNumber_Nine
EXTRN	??0CText_A@@QAE@W4TOOLTYPE@CSymbolBaseData@@ABW4SIZETYPE@2@ABVCCoordinate@@ABVCSize@@ABKABUtagLOGFONTA@@4@Z:PROC ; CText_A::CText_A
EXTRN	??0CText_B@@QAE@W4TOOLTYPE@CSymbolBaseData@@ABW4SIZETYPE@2@ABVCCoordinate@@ABVCSize@@ABKABUtagLOGFONTA@@4@Z:PROC ; CText_B::CText_B
EXTRN	??0CText_C@@QAE@W4TOOLTYPE@CSymbolBaseData@@ABW4SIZETYPE@2@ABVCCoordinate@@ABVCSize@@ABKABUtagLOGFONTA@@4@Z:PROC ; CText_C::CText_C
EXTRN	??0CText_D@@QAE@W4TOOLTYPE@CSymbolBaseData@@ABW4SIZETYPE@2@ABVCCoordinate@@ABVCSize@@ABKABUtagLOGFONTA@@4@Z:PROC ; CText_D::CText_D
EXTRN	??0CText_E@@QAE@W4TOOLTYPE@CSymbolBaseData@@ABW4SIZETYPE@2@ABVCCoordinate@@ABVCSize@@ABKABUtagLOGFONTA@@4@Z:PROC ; CText_E::CText_E
EXTRN	??0CText_F@@QAE@W4TOOLTYPE@CSymbolBaseData@@ABW4SIZETYPE@2@ABVCCoordinate@@ABVCSize@@ABKABUtagLOGFONTA@@4@Z:PROC ; CText_F::CText_F
EXTRN	??0CText_G@@QAE@W4TOOLTYPE@CSymbolBaseData@@ABW4SIZETYPE@2@ABVCCoordinate@@ABVCSize@@ABKABUtagLOGFONTA@@4@Z:PROC ; CText_G::CText_G
EXTRN	??0CText_H@@QAE@W4TOOLTYPE@CSymbolBaseData@@ABW4SIZETYPE@2@ABVCCoordinate@@ABVCSize@@ABKABUtagLOGFONTA@@4@Z:PROC ; CText_H::CText_H
EXTRN	??0CChar_1@@QAE@W4TOOLTYPE@CSymbolBaseData@@ABW4SIZETYPE@2@ABVCCoordinate@@ABVCSize@@ABKABUtagLOGFONTA@@@Z:PROC ; CChar_1::CChar_1
EXTRN	??0CChar_2@@QAE@W4TOOLTYPE@CSymbolBaseData@@ABW4SIZETYPE@2@ABVCCoordinate@@ABVCSize@@ABKABUtagLOGFONTA@@@Z:PROC ; CChar_2::CChar_2
EXTRN	??0CChar_3@@QAE@W4TOOLTYPE@CSymbolBaseData@@ABW4SIZETYPE@2@ABVCCoordinate@@ABVCSize@@ABKABUtagLOGFONTA@@@Z:PROC ; CChar_3::CChar_3
EXTRN	??0CChar_4@@QAE@W4TOOLTYPE@CSymbolBaseData@@ABW4SIZETYPE@2@ABVCCoordinate@@ABVCSize@@ABKABUtagLOGFONTA@@@Z:PROC ; CChar_4::CChar_4
EXTRN	??0CChar_5@@QAE@W4TOOLTYPE@CSymbolBaseData@@ABW4SIZETYPE@2@ABVCCoordinate@@ABVCSize@@ABKABUtagLOGFONTA@@@Z:PROC ; CChar_5::CChar_5
EXTRN	??0CChar_6@@QAE@W4TOOLTYPE@CSymbolBaseData@@ABW4SIZETYPE@2@ABVCCoordinate@@ABVCSize@@ABKABUtagLOGFONTA@@@Z:PROC ; CChar_6::CChar_6
EXTRN	@__security_check_cookie@4:PROC
EXTRN	___CxxFrameHandler3:PROC
EXTRN	___security_cookie:DWORD
;	COMDAT xdata$x
xdata$x	SEGMENT
__ehfuncinfo$?Make@CDrawingSymbolFactory@@SAPAVCDrawingSymbol@@W4TOOLTYPE@CSymbolBaseData@@ABW4SIZETYPE@4@ABVCCoordinate@@ABVCSize@@ABKABUtagLOGFONTA@@4@Z DD 019930522H
	DD	020H
	DD	FLAT:__unwindtable$?Make@CDrawingSymbolFactory@@SAPAVCDrawingSymbol@@W4TOOLTYPE@CSymbolBaseData@@ABW4SIZETYPE@4@ABVCCoordinate@@ABVCSize@@ABKABUtagLOGFONTA@@4@Z
	DD	2 DUP(00H)
	DD	2 DUP(00H)
	DD	00H
	DD	01H
__unwindtable$?Make@CDrawingSymbolFactory@@SAPAVCDrawingSymbol@@W4TOOLTYPE@CSymbolBaseData@@ABW4SIZETYPE@4@ABVCCoordinate@@ABVCSize@@ABKABUtagLOGFONTA@@4@Z DD 0ffffffffH
	DD	FLAT:__unwindfunclet$?Make@CDrawingSymbolFactory@@SAPAVCDrawingSymbol@@W4TOOLTYPE@CSymbolBaseData@@ABW4SIZETYPE@4@ABVCCoordinate@@ABVCSize@@ABKABUtagLOGFONTA@@4@Z$0
	DD	0ffffffffH
	DD	FLAT:__unwindfunclet$?Make@CDrawingSymbolFactory@@SAPAVCDrawingSymbol@@W4TOOLTYPE@CSymbolBaseData@@ABW4SIZETYPE@4@ABVCCoordinate@@ABVCSize@@ABKABUtagLOGFONTA@@4@Z$1
	DD	0ffffffffH
	DD	FLAT:__unwindfunclet$?Make@CDrawingSymbolFactory@@SAPAVCDrawingSymbol@@W4TOOLTYPE@CSymbolBaseData@@ABW4SIZETYPE@4@ABVCCoordinate@@ABVCSize@@ABKABUtagLOGFONTA@@4@Z$2
	DD	0ffffffffH
	DD	FLAT:__unwindfunclet$?Make@CDrawingSymbolFactory@@SAPAVCDrawingSymbol@@W4TOOLTYPE@CSymbolBaseData@@ABW4SIZETYPE@4@ABVCCoordinate@@ABVCSize@@ABKABUtagLOGFONTA@@4@Z$3
	DD	0ffffffffH
	DD	FLAT:__unwindfunclet$?Make@CDrawingSymbolFactory@@SAPAVCDrawingSymbol@@W4TOOLTYPE@CSymbolBaseData@@ABW4SIZETYPE@4@ABVCCoordinate@@ABVCSize@@ABKABUtagLOGFONTA@@4@Z$4
	DD	0ffffffffH
	DD	FLAT:__unwindfunclet$?Make@CDrawingSymbolFactory@@SAPAVCDrawingSymbol@@W4TOOLTYPE@CSymbolBaseData@@ABW4SIZETYPE@4@ABVCCoordinate@@ABVCSize@@ABKABUtagLOGFONTA@@4@Z$5
	DD	0ffffffffH
	DD	FLAT:__unwindfunclet$?Make@CDrawingSymbolFactory@@SAPAVCDrawingSymbol@@W4TOOLTYPE@CSymbolBaseData@@ABW4SIZETYPE@4@ABVCCoordinate@@ABVCSize@@ABKABUtagLOGFONTA@@4@Z$6
	DD	0ffffffffH
	DD	FLAT:__unwindfunclet$?Make@CDrawingSymbolFactory@@SAPAVCDrawingSymbol@@W4TOOLTYPE@CSymbolBaseData@@ABW4SIZETYPE@4@ABVCCoordinate@@ABVCSize@@ABKABUtagLOGFONTA@@4@Z$7
	DD	0ffffffffH
	DD	FLAT:__unwindfunclet$?Make@CDrawingSymbolFactory@@SAPAVCDrawingSymbol@@W4TOOLTYPE@CSymbolBaseData@@ABW4SIZETYPE@4@ABVCCoordinate@@ABVCSize@@ABKABUtagLOGFONTA@@4@Z$8
	DD	0ffffffffH
	DD	FLAT:__unwindfunclet$?Make@CDrawingSymbolFactory@@SAPAVCDrawingSymbol@@W4TOOLTYPE@CSymbolBaseData@@ABW4SIZETYPE@4@ABVCCoordinate@@ABVCSize@@ABKABUtagLOGFONTA@@4@Z$9
	DD	0ffffffffH
	DD	FLAT:__unwindfunclet$?Make@CDrawingSymbolFactory@@SAPAVCDrawingSymbol@@W4TOOLTYPE@CSymbolBaseData@@ABW4SIZETYPE@4@ABVCCoordinate@@ABVCSize@@ABKABUtagLOGFONTA@@4@Z$10
	DD	0ffffffffH
	DD	FLAT:__unwindfunclet$?Make@CDrawingSymbolFactory@@SAPAVCDrawingSymbol@@W4TOOLTYPE@CSymbolBaseData@@ABW4SIZETYPE@4@ABVCCoordinate@@ABVCSize@@ABKABUtagLOGFONTA@@4@Z$11
	DD	0ffffffffH
	DD	FLAT:__unwindfunclet$?Make@CDrawingSymbolFactory@@SAPAVCDrawingSymbol@@W4TOOLTYPE@CSymbolBaseData@@ABW4SIZETYPE@4@ABVCCoordinate@@ABVCSize@@ABKABUtagLOGFONTA@@4@Z$12
	DD	0ffffffffH
	DD	FLAT:__unwindfunclet$?Make@CDrawingSymbolFactory@@SAPAVCDrawingSymbol@@W4TOOLTYPE@CSymbolBaseData@@ABW4SIZETYPE@4@ABVCCoordinate@@ABVCSize@@ABKABUtagLOGFONTA@@4@Z$13
	DD	0ffffffffH
	DD	FLAT:__unwindfunclet$?Make@CDrawingSymbolFactory@@SAPAVCDrawingSymbol@@W4TOOLTYPE@CSymbolBaseData@@ABW4SIZETYPE@4@ABVCCoordinate@@ABVCSize@@ABKABUtagLOGFONTA@@4@Z$14
	DD	0ffffffffH
	DD	FLAT:__unwindfunclet$?Make@CDrawingSymbolFactory@@SAPAVCDrawingSymbol@@W4TOOLTYPE@CSymbolBaseData@@ABW4SIZETYPE@4@ABVCCoordinate@@ABVCSize@@ABKABUtagLOGFONTA@@4@Z$15
	DD	0ffffffffH
	DD	FLAT:__unwindfunclet$?Make@CDrawingSymbolFactory@@SAPAVCDrawingSymbol@@W4TOOLTYPE@CSymbolBaseData@@ABW4SIZETYPE@4@ABVCCoordinate@@ABVCSize@@ABKABUtagLOGFONTA@@4@Z$16
	DD	0ffffffffH
	DD	FLAT:__unwindfunclet$?Make@CDrawingSymbolFactory@@SAPAVCDrawingSymbol@@W4TOOLTYPE@CSymbolBaseData@@ABW4SIZETYPE@4@ABVCCoordinate@@ABVCSize@@ABKABUtagLOGFONTA@@4@Z$17
	DD	0ffffffffH
	DD	FLAT:__unwindfunclet$?Make@CDrawingSymbolFactory@@SAPAVCDrawingSymbol@@W4TOOLTYPE@CSymbolBaseData@@ABW4SIZETYPE@4@ABVCCoordinate@@ABVCSize@@ABKABUtagLOGFONTA@@4@Z$18
	DD	0ffffffffH
	DD	FLAT:__unwindfunclet$?Make@CDrawingSymbolFactory@@SAPAVCDrawingSymbol@@W4TOOLTYPE@CSymbolBaseData@@ABW4SIZETYPE@4@ABVCCoordinate@@ABVCSize@@ABKABUtagLOGFONTA@@4@Z$19
	DD	0ffffffffH
	DD	FLAT:__unwindfunclet$?Make@CDrawingSymbolFactory@@SAPAVCDrawingSymbol@@W4TOOLTYPE@CSymbolBaseData@@ABW4SIZETYPE@4@ABVCCoordinate@@ABVCSize@@ABKABUtagLOGFONTA@@4@Z$20
	DD	0ffffffffH
	DD	FLAT:__unwindfunclet$?Make@CDrawingSymbolFactory@@SAPAVCDrawingSymbol@@W4TOOLTYPE@CSymbolBaseData@@ABW4SIZETYPE@4@ABVCCoordinate@@ABVCSize@@ABKABUtagLOGFONTA@@4@Z$21
	DD	0ffffffffH
	DD	FLAT:__unwindfunclet$?Make@CDrawingSymbolFactory@@SAPAVCDrawingSymbol@@W4TOOLTYPE@CSymbolBaseData@@ABW4SIZETYPE@4@ABVCCoordinate@@ABVCSize@@ABKABUtagLOGFONTA@@4@Z$22
	DD	0ffffffffH
	DD	FLAT:__unwindfunclet$?Make@CDrawingSymbolFactory@@SAPAVCDrawingSymbol@@W4TOOLTYPE@CSymbolBaseData@@ABW4SIZETYPE@4@ABVCCoordinate@@ABVCSize@@ABKABUtagLOGFONTA@@4@Z$23
	DD	0ffffffffH
	DD	FLAT:__unwindfunclet$?Make@CDrawingSymbolFactory@@SAPAVCDrawingSymbol@@W4TOOLTYPE@CSymbolBaseData@@ABW4SIZETYPE@4@ABVCCoordinate@@ABVCSize@@ABKABUtagLOGFONTA@@4@Z$24
	DD	0ffffffffH
	DD	FLAT:__unwindfunclet$?Make@CDrawingSymbolFactory@@SAPAVCDrawingSymbol@@W4TOOLTYPE@CSymbolBaseData@@ABW4SIZETYPE@4@ABVCCoordinate@@ABVCSize@@ABKABUtagLOGFONTA@@4@Z$25
	DD	0ffffffffH
	DD	FLAT:__unwindfunclet$?Make@CDrawingSymbolFactory@@SAPAVCDrawingSymbol@@W4TOOLTYPE@CSymbolBaseData@@ABW4SIZETYPE@4@ABVCCoordinate@@ABVCSize@@ABKABUtagLOGFONTA@@4@Z$26
	DD	0ffffffffH
	DD	FLAT:__unwindfunclet$?Make@CDrawingSymbolFactory@@SAPAVCDrawingSymbol@@W4TOOLTYPE@CSymbolBaseData@@ABW4SIZETYPE@4@ABVCCoordinate@@ABVCSize@@ABKABUtagLOGFONTA@@4@Z$27
	DD	0ffffffffH
	DD	FLAT:__unwindfunclet$?Make@CDrawingSymbolFactory@@SAPAVCDrawingSymbol@@W4TOOLTYPE@CSymbolBaseData@@ABW4SIZETYPE@4@ABVCCoordinate@@ABVCSize@@ABKABUtagLOGFONTA@@4@Z$28
	DD	0ffffffffH
	DD	FLAT:__unwindfunclet$?Make@CDrawingSymbolFactory@@SAPAVCDrawingSymbol@@W4TOOLTYPE@CSymbolBaseData@@ABW4SIZETYPE@4@ABVCCoordinate@@ABVCSize@@ABKABUtagLOGFONTA@@4@Z$29
	DD	0ffffffffH
	DD	FLAT:__unwindfunclet$?Make@CDrawingSymbolFactory@@SAPAVCDrawingSymbol@@W4TOOLTYPE@CSymbolBaseData@@ABW4SIZETYPE@4@ABVCCoordinate@@ABVCSize@@ABKABUtagLOGFONTA@@4@Z$30
	DD	0ffffffffH
	DD	FLAT:__unwindfunclet$?Make@CDrawingSymbolFactory@@SAPAVCDrawingSymbol@@W4TOOLTYPE@CSymbolBaseData@@ABW4SIZETYPE@4@ABVCCoordinate@@ABVCSize@@ABKABUtagLOGFONTA@@4@Z$31
xdata$x	ENDS
;	COMDAT xdata$x
xdata$x	SEGMENT
__unwindtable$?Make@CDrawingSymbolFactory@@SAPAVCDrawingSymbol@@W4TOOLTYPE@CSymbolBaseData@@ABVCCoordinate@@1ABKABH3AB_NABUtagLOGFONTA@@_N@Z DD 0ffffffffH
	DD	FLAT:__unwindfunclet$?Make@CDrawingSymbolFactory@@SAPAVCDrawingSymbol@@W4TOOLTYPE@CSymbolBaseData@@ABVCCoordinate@@1ABKABH3AB_NABUtagLOGFONTA@@_N@Z$0
	DD	0ffffffffH
	DD	FLAT:__unwindfunclet$?Make@CDrawingSymbolFactory@@SAPAVCDrawingSymbol@@W4TOOLTYPE@CSymbolBaseData@@ABVCCoordinate@@1ABKABH3AB_NABUtagLOGFONTA@@_N@Z$1
	DD	0ffffffffH
	DD	FLAT:__unwindfunclet$?Make@CDrawingSymbolFactory@@SAPAVCDrawingSymbol@@W4TOOLTYPE@CSymbolBaseData@@ABVCCoordinate@@1ABKABH3AB_NABUtagLOGFONTA@@_N@Z$2
__ehfuncinfo$?Make@CDrawingSymbolFactory@@SAPAVCDrawingSymbol@@W4TOOLTYPE@CSymbolBaseData@@ABVCCoordinate@@1ABKABH3AB_NABUtagLOGFONTA@@_N@Z DD 019930522H
	DD	03H
	DD	FLAT:__unwindtable$?Make@CDrawingSymbolFactory@@SAPAVCDrawingSymbol@@W4TOOLTYPE@CSymbolBaseData@@ABVCCoordinate@@1ABKABH3AB_NABUtagLOGFONTA@@_N@Z
	DD	2 DUP(00H)
	DD	2 DUP(00H)
	DD	00H
	DD	01H
xdata$x	ENDS
;	COMDAT xdata$x
xdata$x	SEGMENT
__ehfuncinfo$?Copy@CDrawingSymbolFactory@@SAPAVCDrawingSymbol@@PAV2@@Z DD 019930522H
	DD	025H
	DD	FLAT:__unwindtable$?Copy@CDrawingSymbolFactory@@SAPAVCDrawingSymbol@@PAV2@@Z
	DD	2 DUP(00H)
	DD	2 DUP(00H)
	DD	00H
	DD	01H
__unwindtable$?Copy@CDrawingSymbolFactory@@SAPAVCDrawingSymbol@@PAV2@@Z DD 0ffffffffH
	DD	FLAT:__unwindfunclet$?Copy@CDrawingSymbolFactory@@SAPAVCDrawingSymbol@@PAV2@@Z$0
	DD	0ffffffffH
	DD	FLAT:__unwindfunclet$?Copy@CDrawingSymbolFactory@@SAPAVCDrawingSymbol@@PAV2@@Z$1
	DD	0ffffffffH
	DD	FLAT:__unwindfunclet$?Copy@CDrawingSymbolFactory@@SAPAVCDrawingSymbol@@PAV2@@Z$2
	DD	0ffffffffH
	DD	FLAT:__unwindfunclet$?Copy@CDrawingSymbolFactory@@SAPAVCDrawingSymbol@@PAV2@@Z$3
	DD	03H
	DD	FLAT:__unwindfunclet$?Copy@CDrawingSymbolFactory@@SAPAVCDrawingSymbol@@PAV2@@Z$4
	DD	0ffffffffH
	DD	FLAT:__unwindfunclet$?Copy@CDrawingSymbolFactory@@SAPAVCDrawingSymbol@@PAV2@@Z$4
	DD	0ffffffffH
	DD	FLAT:__unwindfunclet$?Copy@CDrawingSymbolFactory@@SAPAVCDrawingSymbol@@PAV2@@Z$5
	DD	0ffffffffH
	DD	FLAT:__unwindfunclet$?Copy@CDrawingSymbolFactory@@SAPAVCDrawingSymbol@@PAV2@@Z$6
	DD	0ffffffffH
	DD	FLAT:__unwindfunclet$?Copy@CDrawingSymbolFactory@@SAPAVCDrawingSymbol@@PAV2@@Z$7
	DD	0ffffffffH
	DD	FLAT:__unwindfunclet$?Copy@CDrawingSymbolFactory@@SAPAVCDrawingSymbol@@PAV2@@Z$8
	DD	0ffffffffH
	DD	FLAT:__unwindfunclet$?Copy@CDrawingSymbolFactory@@SAPAVCDrawingSymbol@@PAV2@@Z$9
	DD	0ffffffffH
	DD	FLAT:__unwindfunclet$?Copy@CDrawingSymbolFactory@@SAPAVCDrawingSymbol@@PAV2@@Z$10
	DD	0ffffffffH
	DD	FLAT:__unwindfunclet$?Copy@CDrawingSymbolFactory@@SAPAVCDrawingSymbol@@PAV2@@Z$11
	DD	0ffffffffH
	DD	FLAT:__unwindfunclet$?Copy@CDrawingSymbolFactory@@SAPAVCDrawingSymbol@@PAV2@@Z$12
	DD	0ffffffffH
	DD	FLAT:__unwindfunclet$?Copy@CDrawingSymbolFactory@@SAPAVCDrawingSymbol@@PAV2@@Z$13
	DD	0ffffffffH
	DD	FLAT:__unwindfunclet$?Copy@CDrawingSymbolFactory@@SAPAVCDrawingSymbol@@PAV2@@Z$14
	DD	0ffffffffH
	DD	FLAT:__unwindfunclet$?Copy@CDrawingSymbolFactory@@SAPAVCDrawingSymbol@@PAV2@@Z$15
	DD	0ffffffffH
	DD	FLAT:__unwindfunclet$?Copy@CDrawingSymbolFactory@@SAPAVCDrawingSymbol@@PAV2@@Z$16
	DD	0ffffffffH
	DD	FLAT:__unwindfunclet$?Copy@CDrawingSymbolFactory@@SAPAVCDrawingSymbol@@PAV2@@Z$17
	DD	0ffffffffH
	DD	FLAT:__unwindfunclet$?Copy@CDrawingSymbolFactory@@SAPAVCDrawingSymbol@@PAV2@@Z$18
	DD	0ffffffffH
	DD	FLAT:__unwindfunclet$?Copy@CDrawingSymbolFactory@@SAPAVCDrawingSymbol@@PAV2@@Z$19
	DD	0ffffffffH
	DD	FLAT:__unwindfunclet$?Copy@CDrawingSymbolFactory@@SAPAVCDrawingSymbol@@PAV2@@Z$20
	DD	0ffffffffH
	DD	FLAT:__unwindfunclet$?Copy@CDrawingSymbolFactory@@SAPAVCDrawingSymbol@@PAV2@@Z$21
	DD	0ffffffffH
	DD	FLAT:__unwindfunclet$?Copy@CDrawingSymbolFactory@@SAPAVCDrawingSymbol@@PAV2@@Z$22
	DD	0ffffffffH
	DD	FLAT:__unwindfunclet$?Copy@CDrawingSymbolFactory@@SAPAVCDrawingSymbol@@PAV2@@Z$23
	DD	0ffffffffH
	DD	FLAT:__unwindfunclet$?Copy@CDrawingSymbolFactory@@SAPAVCDrawingSymbol@@PAV2@@Z$24
	DD	0ffffffffH
	DD	FLAT:__unwindfunclet$?Copy@CDrawingSymbolFactory@@SAPAVCDrawingSymbol@@PAV2@@Z$25
	DD	0ffffffffH
	DD	FLAT:__unwindfunclet$?Copy@CDrawingSymbolFactory@@SAPAVCDrawingSymbol@@PAV2@@Z$26
	DD	0ffffffffH
	DD	FLAT:__unwindfunclet$?Copy@CDrawingSymbolFactory@@SAPAVCDrawingSymbol@@PAV2@@Z$27
	DD	0ffffffffH
	DD	FLAT:__unwindfunclet$?Copy@CDrawingSymbolFactory@@SAPAVCDrawingSymbol@@PAV2@@Z$28
	DD	0ffffffffH
	DD	FLAT:__unwindfunclet$?Copy@CDrawingSymbolFactory@@SAPAVCDrawingSymbol@@PAV2@@Z$29
	DD	0ffffffffH
	DD	FLAT:__unwindfunclet$?Copy@CDrawingSymbolFactory@@SAPAVCDrawingSymbol@@PAV2@@Z$30
	DD	0ffffffffH
	DD	FLAT:__unwindfunclet$?Copy@CDrawingSymbolFactory@@SAPAVCDrawingSymbol@@PAV2@@Z$31
	DD	0ffffffffH
	DD	FLAT:__unwindfunclet$?Copy@CDrawingSymbolFactory@@SAPAVCDrawingSymbol@@PAV2@@Z$32
	DD	0ffffffffH
	DD	FLAT:__unwindfunclet$?Copy@CDrawingSymbolFactory@@SAPAVCDrawingSymbol@@PAV2@@Z$33
	DD	0ffffffffH
	DD	FLAT:__unwindfunclet$?Copy@CDrawingSymbolFactory@@SAPAVCDrawingSymbol@@PAV2@@Z$34
	DD	0ffffffffH
	DD	FLAT:__unwindfunclet$?Copy@CDrawingSymbolFactory@@SAPAVCDrawingSymbol@@PAV2@@Z$35
xdata$x	ENDS
; Function compile flags: /Ogtp
; File D:\git\src\IBK\IBK_DRFN\ProjSrc\SrcChartEx\ChartAddIn\ChartAnalysisToolAddIn\Symbol\DrawingSymbolFactory.cpp
;	COMDAT ?Remove@CDrawingSymbolFactory@@SAXPAVCDrawingSymbol@@@Z
_TEXT	SEGMENT
_symbol$ = 8						; size = 4
?Remove@CDrawingSymbolFactory@@SAXPAVCDrawingSymbol@@@Z PROC ; CDrawingSymbolFactory::Remove, COMDAT

; 223  : {

  00000	55		 push	 ebp
  00001	8b ec		 mov	 ebp, esp
  00003	56		 push	 esi

; 224  : 	delete symbol;

  00004	8b 75 08	 mov	 esi, DWORD PTR _symbol$[ebp]
  00007	85 f6		 test	 esi, esi
  00009	74 17		 je	 SHORT $LN6@Remove
  0000b	8d 4e 40	 lea	 ecx, DWORD PTR [esi+64]
  0000e	ff 15 00 00 00
	00		 call	 DWORD PTR __imp_??1?$CStringT@DV?$StrTraitMFC_DLL@DV?$ChTraitsCRT@D@ATL@@@@@ATL@@QAE@XZ
  00014	68 98 00 00 00	 push	 152			; 00000098H
  00019	56		 push	 esi
  0001a	e8 00 00 00 00	 call	 ??3@YAXPAXI@Z		; operator delete
  0001f	83 c4 08	 add	 esp, 8
$LN6@Remove:
  00022	5e		 pop	 esi

; 225  : }

  00023	5d		 pop	 ebp
  00024	c3		 ret	 0
?Remove@CDrawingSymbolFactory@@SAXPAVCDrawingSymbol@@@Z ENDP ; CDrawingSymbolFactory::Remove
_TEXT	ENDS
; Function compile flags: /Ogtp
; File D:\git\src\IBK\IBK_DRFN\ProjSrc\SrcChartEx\ChartAddIn\ChartAnalysisToolAddIn\Symbol\DrawingSymbolFactory.cpp
;	COMDAT ?Make@CDrawingSymbolFactory@@SAPAVCDrawingSymbol@@W4TOOLTYPE@CSymbolBaseData@@ABW4SIZETYPE@4@ABVCCoordinate@@ABVCSize@@ABKABUtagLOGFONTA@@4@Z
_TEXT	SEGMENT
__$EHRec$ = -12						; size = 12
$T2 = 8							; size = 4
$T3 = 8							; size = 4
$T4 = 8							; size = 4
$T5 = 8							; size = 4
$T6 = 8							; size = 4
$T7 = 8							; size = 4
$T8 = 8							; size = 4
$T9 = 8							; size = 4
$T10 = 8						; size = 4
$T11 = 8						; size = 4
$T12 = 8						; size = 4
$T13 = 8						; size = 4
$T14 = 8						; size = 4
$T15 = 8						; size = 4
$T16 = 8						; size = 4
$T17 = 8						; size = 4
$T18 = 8						; size = 4
$T19 = 8						; size = 4
$T20 = 8						; size = 4
$T21 = 8						; size = 4
$T22 = 8						; size = 4
$T23 = 8						; size = 4
$T24 = 8						; size = 4
$T25 = 8						; size = 4
$T26 = 8						; size = 4
$T27 = 8						; size = 4
$T28 = 8						; size = 4
$T29 = 8						; size = 4
$T30 = 8						; size = 4
$T31 = 8						; size = 4
$T32 = 8						; size = 4
$T33 = 8						; size = 4
_SymbolType$ = 8					; size = 4
_sizetype$ = 12						; size = 4
_startPt$ = 16						; size = 4
_SymbolSize$ = 20					; size = 4
_color$ = 24						; size = 4
_logfont$ = 28						; size = 4
_textColor$ = 32					; size = 4
?Make@CDrawingSymbolFactory@@SAPAVCDrawingSymbol@@W4TOOLTYPE@CSymbolBaseData@@ABW4SIZETYPE@4@ABVCCoordinate@@ABVCSize@@ABKABUtagLOGFONTA@@4@Z PROC ; CDrawingSymbolFactory::Make, COMDAT

; 148  : {

  00000	55		 push	 ebp
  00001	8b ec		 mov	 ebp, esp
  00003	6a ff		 push	 -1
  00005	68 00 00 00 00	 push	 __ehhandler$?Make@CDrawingSymbolFactory@@SAPAVCDrawingSymbol@@W4TOOLTYPE@CSymbolBaseData@@ABW4SIZETYPE@4@ABVCCoordinate@@ABVCSize@@ABKABUtagLOGFONTA@@4@Z
  0000a	64 a1 00 00 00
	00		 mov	 eax, DWORD PTR fs:0
  00010	50		 push	 eax
  00011	56		 push	 esi
  00012	a1 00 00 00 00	 mov	 eax, DWORD PTR ___security_cookie
  00017	33 c5		 xor	 eax, ebp
  00019	50		 push	 eax
  0001a	8d 45 f4	 lea	 eax, DWORD PTR __$EHRec$[ebp]
  0001d	64 a3 00 00 00
	00		 mov	 DWORD PTR fs:0, eax

; 149  : 	switch(SymbolType){

  00023	8b 75 08	 mov	 esi, DWORD PTR _SymbolType$[ebp]
  00026	8d 46 fc	 lea	 eax, DWORD PTR [esi-4]
  00029	83 f8 22	 cmp	 eax, 34			; 00000022H
  0002c	0f 87 f5 08 00
	00		 ja	 $LN36@Make
  00032	ff 24 85 00 00
	00 00		 jmp	 DWORD PTR $LN134@Make[eax*4]
$LN4@Make:

; 150  : 	case CSymbolBaseData::SYMBOL_TEXT:// Text
; 151  : 		return new CText(SymbolType, sizetype, startPt, SymbolSize, color, logfont, textColor);

  00039	68 e0 00 00 00	 push	 224			; 000000e0H
  0003e	e8 00 00 00 00	 call	 ??2@YAPAXI@Z		; operator new
  00043	83 c4 04	 add	 esp, 4
  00046	89 45 08	 mov	 DWORD PTR $T33[ebp], eax
  00049	c7 45 fc 00 00
	00 00		 mov	 DWORD PTR __$EHRec$[ebp+8], 0
  00050	85 c0		 test	 eax, eax
  00052	0f 84 cf 08 00
	00		 je	 $LN36@Make
  00058	ff 75 20	 push	 DWORD PTR _textColor$[ebp]
  0005b	8b c8		 mov	 ecx, eax
  0005d	ff 75 1c	 push	 DWORD PTR _logfont$[ebp]
  00060	ff 75 18	 push	 DWORD PTR _color$[ebp]
  00063	ff 75 14	 push	 DWORD PTR _SymbolSize$[ebp]
  00066	ff 75 10	 push	 DWORD PTR _startPt$[ebp]
  00069	ff 75 0c	 push	 DWORD PTR _sizetype$[ebp]
  0006c	56		 push	 esi
  0006d	e8 00 00 00 00	 call	 ??0CText@@QAE@W4TOOLTYPE@CSymbolBaseData@@ABW4SIZETYPE@2@ABVCCoordinate@@ABVCSize@@ABKABUtagLOGFONTA@@4@Z ; CText::CText

; 216  : 	default:
; 217  : 		return NULL;
; 218  : 	}
; 219  : }

  00072	8b 4d f4	 mov	 ecx, DWORD PTR __$EHRec$[ebp]
  00075	64 89 0d 00 00
	00 00		 mov	 DWORD PTR fs:0, ecx
  0007c	59		 pop	 ecx
  0007d	5e		 pop	 esi
  0007e	8b e5		 mov	 esp, ebp
  00080	5d		 pop	 ebp
  00081	c3		 ret	 0
$LN5@Make:

; 152  : 	case CSymbolBaseData::SYMBOL_ARROW_LEFT:	// 왼쪽 화살표
; 153  : 		return new CArrow_Left(SymbolType, sizetype, startPt, SymbolSize, color, logfont);

  00082	68 c0 00 00 00	 push	 192			; 000000c0H
  00087	e8 00 00 00 00	 call	 ??2@YAPAXI@Z		; operator new
  0008c	83 c4 04	 add	 esp, 4
  0008f	89 45 08	 mov	 DWORD PTR $T32[ebp], eax
  00092	c7 45 fc 01 00
	00 00		 mov	 DWORD PTR __$EHRec$[ebp+8], 1
  00099	85 c0		 test	 eax, eax
  0009b	0f 84 86 08 00
	00		 je	 $LN36@Make
  000a1	ff 75 1c	 push	 DWORD PTR _logfont$[ebp]
  000a4	8b c8		 mov	 ecx, eax
  000a6	ff 75 18	 push	 DWORD PTR _color$[ebp]
  000a9	ff 75 14	 push	 DWORD PTR _SymbolSize$[ebp]
  000ac	ff 75 10	 push	 DWORD PTR _startPt$[ebp]
  000af	ff 75 0c	 push	 DWORD PTR _sizetype$[ebp]
  000b2	56		 push	 esi
  000b3	e8 00 00 00 00	 call	 ??0CArrow_Left@@QAE@W4TOOLTYPE@CSymbolBaseData@@ABW4SIZETYPE@2@ABVCCoordinate@@ABVCSize@@ABKABUtagLOGFONTA@@@Z ; CArrow_Left::CArrow_Left

; 216  : 	default:
; 217  : 		return NULL;
; 218  : 	}
; 219  : }

  000b8	8b 4d f4	 mov	 ecx, DWORD PTR __$EHRec$[ebp]
  000bb	64 89 0d 00 00
	00 00		 mov	 DWORD PTR fs:0, ecx
  000c2	59		 pop	 ecx
  000c3	5e		 pop	 esi
  000c4	8b e5		 mov	 esp, ebp
  000c6	5d		 pop	 ebp
  000c7	c3		 ret	 0
$LN6@Make:

; 154  : 	case CSymbolBaseData::SYMBOL_ARROW_RIGHT:	// 오른쪽 화살표
; 155  : 		return new CArrow_Right(SymbolType, sizetype, startPt, SymbolSize, color, logfont);

  000c8	68 c0 00 00 00	 push	 192			; 000000c0H
  000cd	e8 00 00 00 00	 call	 ??2@YAPAXI@Z		; operator new
  000d2	83 c4 04	 add	 esp, 4
  000d5	89 45 08	 mov	 DWORD PTR $T31[ebp], eax
  000d8	c7 45 fc 02 00
	00 00		 mov	 DWORD PTR __$EHRec$[ebp+8], 2
  000df	85 c0		 test	 eax, eax
  000e1	0f 84 40 08 00
	00		 je	 $LN36@Make
  000e7	ff 75 1c	 push	 DWORD PTR _logfont$[ebp]
  000ea	8b c8		 mov	 ecx, eax
  000ec	ff 75 18	 push	 DWORD PTR _color$[ebp]
  000ef	ff 75 14	 push	 DWORD PTR _SymbolSize$[ebp]
  000f2	ff 75 10	 push	 DWORD PTR _startPt$[ebp]
  000f5	ff 75 0c	 push	 DWORD PTR _sizetype$[ebp]
  000f8	56		 push	 esi
  000f9	e8 00 00 00 00	 call	 ??0CArrow_Right@@QAE@W4TOOLTYPE@CSymbolBaseData@@ABW4SIZETYPE@2@ABVCCoordinate@@ABVCSize@@ABKABUtagLOGFONTA@@@Z ; CArrow_Right::CArrow_Right

; 216  : 	default:
; 217  : 		return NULL;
; 218  : 	}
; 219  : }

  000fe	8b 4d f4	 mov	 ecx, DWORD PTR __$EHRec$[ebp]
  00101	64 89 0d 00 00
	00 00		 mov	 DWORD PTR fs:0, ecx
  00108	59		 pop	 ecx
  00109	5e		 pop	 esi
  0010a	8b e5		 mov	 esp, ebp
  0010c	5d		 pop	 ebp
  0010d	c3		 ret	 0
$LN7@Make:

; 156  : 	case CSymbolBaseData::SYMBOL_ARROW_UP: //위쪽 화살표
; 157  : 		return new CArrow_Up(SymbolType, sizetype, startPt, SymbolSize, color, logfont);

  0010e	68 c0 00 00 00	 push	 192			; 000000c0H
  00113	e8 00 00 00 00	 call	 ??2@YAPAXI@Z		; operator new
  00118	83 c4 04	 add	 esp, 4
  0011b	89 45 08	 mov	 DWORD PTR $T30[ebp], eax
  0011e	c7 45 fc 03 00
	00 00		 mov	 DWORD PTR __$EHRec$[ebp+8], 3
  00125	85 c0		 test	 eax, eax
  00127	0f 84 fa 07 00
	00		 je	 $LN36@Make
  0012d	ff 75 1c	 push	 DWORD PTR _logfont$[ebp]
  00130	8b c8		 mov	 ecx, eax
  00132	ff 75 18	 push	 DWORD PTR _color$[ebp]
  00135	ff 75 14	 push	 DWORD PTR _SymbolSize$[ebp]
  00138	ff 75 10	 push	 DWORD PTR _startPt$[ebp]
  0013b	ff 75 0c	 push	 DWORD PTR _sizetype$[ebp]
  0013e	56		 push	 esi
  0013f	e8 00 00 00 00	 call	 ??0CArrow_Up@@QAE@W4TOOLTYPE@CSymbolBaseData@@ABW4SIZETYPE@2@ABVCCoordinate@@ABVCSize@@ABKABUtagLOGFONTA@@@Z ; CArrow_Up::CArrow_Up

; 216  : 	default:
; 217  : 		return NULL;
; 218  : 	}
; 219  : }

  00144	8b 4d f4	 mov	 ecx, DWORD PTR __$EHRec$[ebp]
  00147	64 89 0d 00 00
	00 00		 mov	 DWORD PTR fs:0, ecx
  0014e	59		 pop	 ecx
  0014f	5e		 pop	 esi
  00150	8b e5		 mov	 esp, ebp
  00152	5d		 pop	 ebp
  00153	c3		 ret	 0
$LN8@Make:

; 158  : 	case CSymbolBaseData::SYMBOL_ARROW_DOWN:  //아래쪽 화살표
; 159  : 		return new CArrow_Down(SymbolType, sizetype, startPt, SymbolSize, color, logfont);

  00154	68 c0 00 00 00	 push	 192			; 000000c0H
  00159	e8 00 00 00 00	 call	 ??2@YAPAXI@Z		; operator new
  0015e	83 c4 04	 add	 esp, 4
  00161	89 45 08	 mov	 DWORD PTR $T29[ebp], eax
  00164	c7 45 fc 04 00
	00 00		 mov	 DWORD PTR __$EHRec$[ebp+8], 4
  0016b	85 c0		 test	 eax, eax
  0016d	0f 84 b4 07 00
	00		 je	 $LN36@Make
  00173	ff 75 1c	 push	 DWORD PTR _logfont$[ebp]
  00176	8b c8		 mov	 ecx, eax
  00178	ff 75 18	 push	 DWORD PTR _color$[ebp]
  0017b	ff 75 14	 push	 DWORD PTR _SymbolSize$[ebp]
  0017e	ff 75 10	 push	 DWORD PTR _startPt$[ebp]
  00181	ff 75 0c	 push	 DWORD PTR _sizetype$[ebp]
  00184	56		 push	 esi
  00185	e8 00 00 00 00	 call	 ??0CArrow_Down@@QAE@W4TOOLTYPE@CSymbolBaseData@@ABW4SIZETYPE@2@ABVCCoordinate@@ABVCSize@@ABKABUtagLOGFONTA@@@Z ; CArrow_Down::CArrow_Down

; 216  : 	default:
; 217  : 		return NULL;
; 218  : 	}
; 219  : }

  0018a	8b 4d f4	 mov	 ecx, DWORD PTR __$EHRec$[ebp]
  0018d	64 89 0d 00 00
	00 00		 mov	 DWORD PTR fs:0, ecx
  00194	59		 pop	 ecx
  00195	5e		 pop	 esi
  00196	8b e5		 mov	 esp, ebp
  00198	5d		 pop	 ebp
  00199	c3		 ret	 0
$LN9@Make:

; 160  : 	case CSymbolBaseData::SYMBOL_ARROW_LEFTTOP:  //왼쪽 위 방향 화살표
; 161  : 		return new CArrow_LeftTop(SymbolType, sizetype, startPt, SymbolSize, color, logfont);

  0019a	68 c0 00 00 00	 push	 192			; 000000c0H
  0019f	e8 00 00 00 00	 call	 ??2@YAPAXI@Z		; operator new
  001a4	83 c4 04	 add	 esp, 4
  001a7	89 45 08	 mov	 DWORD PTR $T28[ebp], eax
  001aa	c7 45 fc 05 00
	00 00		 mov	 DWORD PTR __$EHRec$[ebp+8], 5
  001b1	85 c0		 test	 eax, eax
  001b3	0f 84 6e 07 00
	00		 je	 $LN36@Make
  001b9	ff 75 1c	 push	 DWORD PTR _logfont$[ebp]
  001bc	8b c8		 mov	 ecx, eax
  001be	ff 75 18	 push	 DWORD PTR _color$[ebp]
  001c1	ff 75 14	 push	 DWORD PTR _SymbolSize$[ebp]
  001c4	ff 75 10	 push	 DWORD PTR _startPt$[ebp]
  001c7	ff 75 0c	 push	 DWORD PTR _sizetype$[ebp]
  001ca	56		 push	 esi
  001cb	e8 00 00 00 00	 call	 ??0CArrow_LeftTop@@QAE@W4TOOLTYPE@CSymbolBaseData@@ABW4SIZETYPE@2@ABVCCoordinate@@ABVCSize@@ABKABUtagLOGFONTA@@@Z ; CArrow_LeftTop::CArrow_LeftTop

; 216  : 	default:
; 217  : 		return NULL;
; 218  : 	}
; 219  : }

  001d0	8b 4d f4	 mov	 ecx, DWORD PTR __$EHRec$[ebp]
  001d3	64 89 0d 00 00
	00 00		 mov	 DWORD PTR fs:0, ecx
  001da	59		 pop	 ecx
  001db	5e		 pop	 esi
  001dc	8b e5		 mov	 esp, ebp
  001de	5d		 pop	 ebp
  001df	c3		 ret	 0
$LN10@Make:

; 162  : 	case CSymbolBaseData::SYMBOL_ARROW_LEFTBOTTOM: //왼쪽 아래 방향 화살표
; 163  : 		return new CArrow_LeftBottom(SymbolType, sizetype, startPt, SymbolSize, color, logfont);

  001e0	68 c0 00 00 00	 push	 192			; 000000c0H
  001e5	e8 00 00 00 00	 call	 ??2@YAPAXI@Z		; operator new
  001ea	83 c4 04	 add	 esp, 4
  001ed	89 45 08	 mov	 DWORD PTR $T27[ebp], eax
  001f0	c7 45 fc 06 00
	00 00		 mov	 DWORD PTR __$EHRec$[ebp+8], 6
  001f7	85 c0		 test	 eax, eax
  001f9	0f 84 28 07 00
	00		 je	 $LN36@Make
  001ff	ff 75 1c	 push	 DWORD PTR _logfont$[ebp]
  00202	8b c8		 mov	 ecx, eax
  00204	ff 75 18	 push	 DWORD PTR _color$[ebp]
  00207	ff 75 14	 push	 DWORD PTR _SymbolSize$[ebp]
  0020a	ff 75 10	 push	 DWORD PTR _startPt$[ebp]
  0020d	ff 75 0c	 push	 DWORD PTR _sizetype$[ebp]
  00210	56		 push	 esi
  00211	e8 00 00 00 00	 call	 ??0CArrow_LeftBottom@@QAE@W4TOOLTYPE@CSymbolBaseData@@ABW4SIZETYPE@2@ABVCCoordinate@@ABVCSize@@ABKABUtagLOGFONTA@@@Z ; CArrow_LeftBottom::CArrow_LeftBottom

; 216  : 	default:
; 217  : 		return NULL;
; 218  : 	}
; 219  : }

  00216	8b 4d f4	 mov	 ecx, DWORD PTR __$EHRec$[ebp]
  00219	64 89 0d 00 00
	00 00		 mov	 DWORD PTR fs:0, ecx
  00220	59		 pop	 ecx
  00221	5e		 pop	 esi
  00222	8b e5		 mov	 esp, ebp
  00224	5d		 pop	 ebp
  00225	c3		 ret	 0
$LN11@Make:

; 164  : 	case CSymbolBaseData::SYMBOL_ARROW_RIGHTTOP:  //오른쪽 위 방향 화살표
; 165  : 		return new CArrow_RightTop(SymbolType, sizetype, startPt, SymbolSize, color, logfont);

  00226	68 c0 00 00 00	 push	 192			; 000000c0H
  0022b	e8 00 00 00 00	 call	 ??2@YAPAXI@Z		; operator new
  00230	83 c4 04	 add	 esp, 4
  00233	89 45 08	 mov	 DWORD PTR $T26[ebp], eax
  00236	c7 45 fc 07 00
	00 00		 mov	 DWORD PTR __$EHRec$[ebp+8], 7
  0023d	85 c0		 test	 eax, eax
  0023f	0f 84 e2 06 00
	00		 je	 $LN36@Make
  00245	ff 75 1c	 push	 DWORD PTR _logfont$[ebp]
  00248	8b c8		 mov	 ecx, eax
  0024a	ff 75 18	 push	 DWORD PTR _color$[ebp]
  0024d	ff 75 14	 push	 DWORD PTR _SymbolSize$[ebp]
  00250	ff 75 10	 push	 DWORD PTR _startPt$[ebp]
  00253	ff 75 0c	 push	 DWORD PTR _sizetype$[ebp]
  00256	56		 push	 esi
  00257	e8 00 00 00 00	 call	 ??0CArrow_RightTop@@QAE@W4TOOLTYPE@CSymbolBaseData@@ABW4SIZETYPE@2@ABVCCoordinate@@ABVCSize@@ABKABUtagLOGFONTA@@@Z ; CArrow_RightTop::CArrow_RightTop

; 216  : 	default:
; 217  : 		return NULL;
; 218  : 	}
; 219  : }

  0025c	8b 4d f4	 mov	 ecx, DWORD PTR __$EHRec$[ebp]
  0025f	64 89 0d 00 00
	00 00		 mov	 DWORD PTR fs:0, ecx
  00266	59		 pop	 ecx
  00267	5e		 pop	 esi
  00268	8b e5		 mov	 esp, ebp
  0026a	5d		 pop	 ebp
  0026b	c3		 ret	 0
$LN12@Make:

; 166  : 	case CSymbolBaseData::SYMBOL_ARROW_RIGHTBOTTOM:  //오른쪽 아래 방향 화살표
; 167  : 		return new CArrow_RightBottom(SymbolType, sizetype, startPt, SymbolSize, color, logfont);

  0026c	68 c0 00 00 00	 push	 192			; 000000c0H
  00271	e8 00 00 00 00	 call	 ??2@YAPAXI@Z		; operator new
  00276	83 c4 04	 add	 esp, 4
  00279	89 45 08	 mov	 DWORD PTR $T25[ebp], eax
  0027c	c7 45 fc 08 00
	00 00		 mov	 DWORD PTR __$EHRec$[ebp+8], 8
  00283	85 c0		 test	 eax, eax
  00285	0f 84 9c 06 00
	00		 je	 $LN36@Make
  0028b	ff 75 1c	 push	 DWORD PTR _logfont$[ebp]
  0028e	8b c8		 mov	 ecx, eax
  00290	ff 75 18	 push	 DWORD PTR _color$[ebp]
  00293	ff 75 14	 push	 DWORD PTR _SymbolSize$[ebp]
  00296	ff 75 10	 push	 DWORD PTR _startPt$[ebp]
  00299	ff 75 0c	 push	 DWORD PTR _sizetype$[ebp]
  0029c	56		 push	 esi
  0029d	e8 00 00 00 00	 call	 ??0CArrow_RightBottom@@QAE@W4TOOLTYPE@CSymbolBaseData@@ABW4SIZETYPE@2@ABVCCoordinate@@ABVCSize@@ABKABUtagLOGFONTA@@@Z ; CArrow_RightBottom::CArrow_RightBottom

; 216  : 	default:
; 217  : 		return NULL;
; 218  : 	}
; 219  : }

  002a2	8b 4d f4	 mov	 ecx, DWORD PTR __$EHRec$[ebp]
  002a5	64 89 0d 00 00
	00 00		 mov	 DWORD PTR fs:0, ecx
  002ac	59		 pop	 ecx
  002ad	5e		 pop	 esi
  002ae	8b e5		 mov	 esp, ebp
  002b0	5d		 pop	 ebp
  002b1	c3		 ret	 0
$LN13@Make:

; 168  : 	case CSymbolBaseData::SYMBOL_NUM_ONE:  //숫자 1
; 169  : 		return new CNumber_One(SymbolType, sizetype, startPt, SymbolSize, color, logfont, textColor);

  002b2	68 c0 00 00 00	 push	 192			; 000000c0H
  002b7	e8 00 00 00 00	 call	 ??2@YAPAXI@Z		; operator new
  002bc	83 c4 04	 add	 esp, 4
  002bf	89 45 08	 mov	 DWORD PTR $T24[ebp], eax
  002c2	c7 45 fc 09 00
	00 00		 mov	 DWORD PTR __$EHRec$[ebp+8], 9
  002c9	85 c0		 test	 eax, eax
  002cb	0f 84 56 06 00
	00		 je	 $LN36@Make
  002d1	ff 75 20	 push	 DWORD PTR _textColor$[ebp]
  002d4	8b c8		 mov	 ecx, eax
  002d6	ff 75 1c	 push	 DWORD PTR _logfont$[ebp]
  002d9	ff 75 18	 push	 DWORD PTR _color$[ebp]
  002dc	ff 75 14	 push	 DWORD PTR _SymbolSize$[ebp]
  002df	ff 75 10	 push	 DWORD PTR _startPt$[ebp]
  002e2	ff 75 0c	 push	 DWORD PTR _sizetype$[ebp]
  002e5	56		 push	 esi
  002e6	e8 00 00 00 00	 call	 ??0CNumber_One@@QAE@W4TOOLTYPE@CSymbolBaseData@@ABW4SIZETYPE@2@ABVCCoordinate@@ABVCSize@@ABKABUtagLOGFONTA@@4@Z ; CNumber_One::CNumber_One

; 216  : 	default:
; 217  : 		return NULL;
; 218  : 	}
; 219  : }

  002eb	8b 4d f4	 mov	 ecx, DWORD PTR __$EHRec$[ebp]
  002ee	64 89 0d 00 00
	00 00		 mov	 DWORD PTR fs:0, ecx
  002f5	59		 pop	 ecx
  002f6	5e		 pop	 esi
  002f7	8b e5		 mov	 esp, ebp
  002f9	5d		 pop	 ebp
  002fa	c3		 ret	 0
$LN14@Make:

; 170  : 	case CSymbolBaseData::SYMBOL_NUM_TWO:  //2
; 171  : 		return new CNumber_Two(SymbolType, sizetype, startPt, SymbolSize, color, logfont, textColor);

  002fb	68 c0 00 00 00	 push	 192			; 000000c0H
  00300	e8 00 00 00 00	 call	 ??2@YAPAXI@Z		; operator new
  00305	83 c4 04	 add	 esp, 4
  00308	89 45 08	 mov	 DWORD PTR $T23[ebp], eax
  0030b	c7 45 fc 0a 00
	00 00		 mov	 DWORD PTR __$EHRec$[ebp+8], 10 ; 0000000aH
  00312	85 c0		 test	 eax, eax
  00314	0f 84 0d 06 00
	00		 je	 $LN36@Make
  0031a	ff 75 20	 push	 DWORD PTR _textColor$[ebp]
  0031d	8b c8		 mov	 ecx, eax
  0031f	ff 75 1c	 push	 DWORD PTR _logfont$[ebp]
  00322	ff 75 18	 push	 DWORD PTR _color$[ebp]
  00325	ff 75 14	 push	 DWORD PTR _SymbolSize$[ebp]
  00328	ff 75 10	 push	 DWORD PTR _startPt$[ebp]
  0032b	ff 75 0c	 push	 DWORD PTR _sizetype$[ebp]
  0032e	56		 push	 esi
  0032f	e8 00 00 00 00	 call	 ??0CNumber_Two@@QAE@W4TOOLTYPE@CSymbolBaseData@@ABW4SIZETYPE@2@ABVCCoordinate@@ABVCSize@@ABKABUtagLOGFONTA@@4@Z ; CNumber_Two::CNumber_Two

; 216  : 	default:
; 217  : 		return NULL;
; 218  : 	}
; 219  : }

  00334	8b 4d f4	 mov	 ecx, DWORD PTR __$EHRec$[ebp]
  00337	64 89 0d 00 00
	00 00		 mov	 DWORD PTR fs:0, ecx
  0033e	59		 pop	 ecx
  0033f	5e		 pop	 esi
  00340	8b e5		 mov	 esp, ebp
  00342	5d		 pop	 ebp
  00343	c3		 ret	 0
$LN15@Make:

; 172  : 	case CSymbolBaseData::SYMBOL_NUM_THREE: //3
; 173  : 		return new CNumber_Three(SymbolType, sizetype, startPt, SymbolSize, color, logfont, textColor);

  00344	68 c0 00 00 00	 push	 192			; 000000c0H
  00349	e8 00 00 00 00	 call	 ??2@YAPAXI@Z		; operator new
  0034e	83 c4 04	 add	 esp, 4
  00351	89 45 08	 mov	 DWORD PTR $T22[ebp], eax
  00354	c7 45 fc 0b 00
	00 00		 mov	 DWORD PTR __$EHRec$[ebp+8], 11 ; 0000000bH
  0035b	85 c0		 test	 eax, eax
  0035d	0f 84 c4 05 00
	00		 je	 $LN36@Make
  00363	ff 75 20	 push	 DWORD PTR _textColor$[ebp]
  00366	8b c8		 mov	 ecx, eax
  00368	ff 75 1c	 push	 DWORD PTR _logfont$[ebp]
  0036b	ff 75 18	 push	 DWORD PTR _color$[ebp]
  0036e	ff 75 14	 push	 DWORD PTR _SymbolSize$[ebp]
  00371	ff 75 10	 push	 DWORD PTR _startPt$[ebp]
  00374	ff 75 0c	 push	 DWORD PTR _sizetype$[ebp]
  00377	56		 push	 esi
  00378	e8 00 00 00 00	 call	 ??0CNumber_Three@@QAE@W4TOOLTYPE@CSymbolBaseData@@ABW4SIZETYPE@2@ABVCCoordinate@@ABVCSize@@ABKABUtagLOGFONTA@@4@Z ; CNumber_Three::CNumber_Three

; 216  : 	default:
; 217  : 		return NULL;
; 218  : 	}
; 219  : }

  0037d	8b 4d f4	 mov	 ecx, DWORD PTR __$EHRec$[ebp]
  00380	64 89 0d 00 00
	00 00		 mov	 DWORD PTR fs:0, ecx
  00387	59		 pop	 ecx
  00388	5e		 pop	 esi
  00389	8b e5		 mov	 esp, ebp
  0038b	5d		 pop	 ebp
  0038c	c3		 ret	 0
$LN16@Make:

; 174  : 	case CSymbolBaseData::SYMBOL_NUM_FOUR:  //4
; 175  : 		return new CNumber_Four(SymbolType, sizetype, startPt, SymbolSize, color, logfont, textColor);

  0038d	68 c0 00 00 00	 push	 192			; 000000c0H
  00392	e8 00 00 00 00	 call	 ??2@YAPAXI@Z		; operator new
  00397	83 c4 04	 add	 esp, 4
  0039a	89 45 08	 mov	 DWORD PTR $T21[ebp], eax
  0039d	c7 45 fc 0c 00
	00 00		 mov	 DWORD PTR __$EHRec$[ebp+8], 12 ; 0000000cH
  003a4	85 c0		 test	 eax, eax
  003a6	0f 84 7b 05 00
	00		 je	 $LN36@Make
  003ac	ff 75 20	 push	 DWORD PTR _textColor$[ebp]
  003af	8b c8		 mov	 ecx, eax
  003b1	ff 75 1c	 push	 DWORD PTR _logfont$[ebp]
  003b4	ff 75 18	 push	 DWORD PTR _color$[ebp]
  003b7	ff 75 14	 push	 DWORD PTR _SymbolSize$[ebp]
  003ba	ff 75 10	 push	 DWORD PTR _startPt$[ebp]
  003bd	ff 75 0c	 push	 DWORD PTR _sizetype$[ebp]
  003c0	56		 push	 esi
  003c1	e8 00 00 00 00	 call	 ??0CNumber_Four@@QAE@W4TOOLTYPE@CSymbolBaseData@@ABW4SIZETYPE@2@ABVCCoordinate@@ABVCSize@@ABKABUtagLOGFONTA@@4@Z ; CNumber_Four::CNumber_Four

; 216  : 	default:
; 217  : 		return NULL;
; 218  : 	}
; 219  : }

  003c6	8b 4d f4	 mov	 ecx, DWORD PTR __$EHRec$[ebp]
  003c9	64 89 0d 00 00
	00 00		 mov	 DWORD PTR fs:0, ecx
  003d0	59		 pop	 ecx
  003d1	5e		 pop	 esi
  003d2	8b e5		 mov	 esp, ebp
  003d4	5d		 pop	 ebp
  003d5	c3		 ret	 0
$LN17@Make:

; 176  : 	case CSymbolBaseData::SYMBOL_NUM_FIVE:  //5
; 177  : 		return new CNumber_Five(SymbolType, sizetype, startPt, SymbolSize, color, logfont, textColor);

  003d6	68 c0 00 00 00	 push	 192			; 000000c0H
  003db	e8 00 00 00 00	 call	 ??2@YAPAXI@Z		; operator new
  003e0	83 c4 04	 add	 esp, 4
  003e3	89 45 08	 mov	 DWORD PTR $T20[ebp], eax
  003e6	c7 45 fc 0d 00
	00 00		 mov	 DWORD PTR __$EHRec$[ebp+8], 13 ; 0000000dH
  003ed	85 c0		 test	 eax, eax
  003ef	0f 84 32 05 00
	00		 je	 $LN36@Make
  003f5	ff 75 20	 push	 DWORD PTR _textColor$[ebp]
  003f8	8b c8		 mov	 ecx, eax
  003fa	ff 75 1c	 push	 DWORD PTR _logfont$[ebp]
  003fd	ff 75 18	 push	 DWORD PTR _color$[ebp]
  00400	ff 75 14	 push	 DWORD PTR _SymbolSize$[ebp]
  00403	ff 75 10	 push	 DWORD PTR _startPt$[ebp]
  00406	ff 75 0c	 push	 DWORD PTR _sizetype$[ebp]
  00409	56		 push	 esi
  0040a	e8 00 00 00 00	 call	 ??0CNumber_Five@@QAE@W4TOOLTYPE@CSymbolBaseData@@ABW4SIZETYPE@2@ABVCCoordinate@@ABVCSize@@ABKABUtagLOGFONTA@@4@Z ; CNumber_Five::CNumber_Five

; 216  : 	default:
; 217  : 		return NULL;
; 218  : 	}
; 219  : }

  0040f	8b 4d f4	 mov	 ecx, DWORD PTR __$EHRec$[ebp]
  00412	64 89 0d 00 00
	00 00		 mov	 DWORD PTR fs:0, ecx
  00419	59		 pop	 ecx
  0041a	5e		 pop	 esi
  0041b	8b e5		 mov	 esp, ebp
  0041d	5d		 pop	 ebp
  0041e	c3		 ret	 0
$LN18@Make:

; 178  : 	case CSymbolBaseData::SYMBOL_NUM_SIX:  //6
; 179  : 		return new CNumber_Six(SymbolType, sizetype, startPt, SymbolSize, color, logfont, textColor);

  0041f	68 c0 00 00 00	 push	 192			; 000000c0H
  00424	e8 00 00 00 00	 call	 ??2@YAPAXI@Z		; operator new
  00429	83 c4 04	 add	 esp, 4
  0042c	89 45 08	 mov	 DWORD PTR $T19[ebp], eax
  0042f	c7 45 fc 0e 00
	00 00		 mov	 DWORD PTR __$EHRec$[ebp+8], 14 ; 0000000eH
  00436	85 c0		 test	 eax, eax
  00438	0f 84 e9 04 00
	00		 je	 $LN36@Make
  0043e	ff 75 20	 push	 DWORD PTR _textColor$[ebp]
  00441	8b c8		 mov	 ecx, eax
  00443	ff 75 1c	 push	 DWORD PTR _logfont$[ebp]
  00446	ff 75 18	 push	 DWORD PTR _color$[ebp]
  00449	ff 75 14	 push	 DWORD PTR _SymbolSize$[ebp]
  0044c	ff 75 10	 push	 DWORD PTR _startPt$[ebp]
  0044f	ff 75 0c	 push	 DWORD PTR _sizetype$[ebp]
  00452	56		 push	 esi
  00453	e8 00 00 00 00	 call	 ??0CNumber_Six@@QAE@W4TOOLTYPE@CSymbolBaseData@@ABW4SIZETYPE@2@ABVCCoordinate@@ABVCSize@@ABKABUtagLOGFONTA@@4@Z ; CNumber_Six::CNumber_Six

; 216  : 	default:
; 217  : 		return NULL;
; 218  : 	}
; 219  : }

  00458	8b 4d f4	 mov	 ecx, DWORD PTR __$EHRec$[ebp]
  0045b	64 89 0d 00 00
	00 00		 mov	 DWORD PTR fs:0, ecx
  00462	59		 pop	 ecx
  00463	5e		 pop	 esi
  00464	8b e5		 mov	 esp, ebp
  00466	5d		 pop	 ebp
  00467	c3		 ret	 0
$LN19@Make:

; 180  : 	case CSymbolBaseData::SYMBOL_NUM_SEVEN:  //7
; 181  : 		return new CNumber_Seven(SymbolType, sizetype, startPt, SymbolSize, color, logfont, textColor);

  00468	68 c0 00 00 00	 push	 192			; 000000c0H
  0046d	e8 00 00 00 00	 call	 ??2@YAPAXI@Z		; operator new
  00472	83 c4 04	 add	 esp, 4
  00475	89 45 08	 mov	 DWORD PTR $T18[ebp], eax
  00478	c7 45 fc 0f 00
	00 00		 mov	 DWORD PTR __$EHRec$[ebp+8], 15 ; 0000000fH
  0047f	85 c0		 test	 eax, eax
  00481	0f 84 a0 04 00
	00		 je	 $LN36@Make
  00487	ff 75 20	 push	 DWORD PTR _textColor$[ebp]
  0048a	8b c8		 mov	 ecx, eax
  0048c	ff 75 1c	 push	 DWORD PTR _logfont$[ebp]
  0048f	ff 75 18	 push	 DWORD PTR _color$[ebp]
  00492	ff 75 14	 push	 DWORD PTR _SymbolSize$[ebp]
  00495	ff 75 10	 push	 DWORD PTR _startPt$[ebp]
  00498	ff 75 0c	 push	 DWORD PTR _sizetype$[ebp]
  0049b	56		 push	 esi
  0049c	e8 00 00 00 00	 call	 ??0CNumber_Seven@@QAE@W4TOOLTYPE@CSymbolBaseData@@ABW4SIZETYPE@2@ABVCCoordinate@@ABVCSize@@ABKABUtagLOGFONTA@@4@Z ; CNumber_Seven::CNumber_Seven

; 216  : 	default:
; 217  : 		return NULL;
; 218  : 	}
; 219  : }

  004a1	8b 4d f4	 mov	 ecx, DWORD PTR __$EHRec$[ebp]
  004a4	64 89 0d 00 00
	00 00		 mov	 DWORD PTR fs:0, ecx
  004ab	59		 pop	 ecx
  004ac	5e		 pop	 esi
  004ad	8b e5		 mov	 esp, ebp
  004af	5d		 pop	 ebp
  004b0	c3		 ret	 0
$LN20@Make:

; 182  : 	case CSymbolBaseData::SYMBOL_NUM_EIGHT:  //8
; 183  : 		return new CNumber_Eight(SymbolType, sizetype, startPt, SymbolSize, color, logfont, textColor);

  004b1	68 c0 00 00 00	 push	 192			; 000000c0H
  004b6	e8 00 00 00 00	 call	 ??2@YAPAXI@Z		; operator new
  004bb	83 c4 04	 add	 esp, 4
  004be	89 45 08	 mov	 DWORD PTR $T17[ebp], eax
  004c1	c7 45 fc 10 00
	00 00		 mov	 DWORD PTR __$EHRec$[ebp+8], 16 ; 00000010H
  004c8	85 c0		 test	 eax, eax
  004ca	0f 84 57 04 00
	00		 je	 $LN36@Make
  004d0	ff 75 20	 push	 DWORD PTR _textColor$[ebp]
  004d3	8b c8		 mov	 ecx, eax
  004d5	ff 75 1c	 push	 DWORD PTR _logfont$[ebp]
  004d8	ff 75 18	 push	 DWORD PTR _color$[ebp]
  004db	ff 75 14	 push	 DWORD PTR _SymbolSize$[ebp]
  004de	ff 75 10	 push	 DWORD PTR _startPt$[ebp]
  004e1	ff 75 0c	 push	 DWORD PTR _sizetype$[ebp]
  004e4	56		 push	 esi
  004e5	e8 00 00 00 00	 call	 ??0CNumber_Eight@@QAE@W4TOOLTYPE@CSymbolBaseData@@ABW4SIZETYPE@2@ABVCCoordinate@@ABVCSize@@ABKABUtagLOGFONTA@@4@Z ; CNumber_Eight::CNumber_Eight

; 216  : 	default:
; 217  : 		return NULL;
; 218  : 	}
; 219  : }

  004ea	8b 4d f4	 mov	 ecx, DWORD PTR __$EHRec$[ebp]
  004ed	64 89 0d 00 00
	00 00		 mov	 DWORD PTR fs:0, ecx
  004f4	59		 pop	 ecx
  004f5	5e		 pop	 esi
  004f6	8b e5		 mov	 esp, ebp
  004f8	5d		 pop	 ebp
  004f9	c3		 ret	 0
$LN21@Make:

; 184  : 	case CSymbolBaseData::SYMBOL_NUM_NINE:  //9
; 185  : 		return new CNumber_Nine(SymbolType, sizetype, startPt, SymbolSize, color, logfont, textColor);

  004fa	68 c0 00 00 00	 push	 192			; 000000c0H
  004ff	e8 00 00 00 00	 call	 ??2@YAPAXI@Z		; operator new
  00504	83 c4 04	 add	 esp, 4
  00507	89 45 08	 mov	 DWORD PTR $T16[ebp], eax
  0050a	c7 45 fc 11 00
	00 00		 mov	 DWORD PTR __$EHRec$[ebp+8], 17 ; 00000011H
  00511	85 c0		 test	 eax, eax
  00513	0f 84 0e 04 00
	00		 je	 $LN36@Make
  00519	ff 75 20	 push	 DWORD PTR _textColor$[ebp]
  0051c	8b c8		 mov	 ecx, eax
  0051e	ff 75 1c	 push	 DWORD PTR _logfont$[ebp]
  00521	ff 75 18	 push	 DWORD PTR _color$[ebp]
  00524	ff 75 14	 push	 DWORD PTR _SymbolSize$[ebp]
  00527	ff 75 10	 push	 DWORD PTR _startPt$[ebp]
  0052a	ff 75 0c	 push	 DWORD PTR _sizetype$[ebp]
  0052d	56		 push	 esi
  0052e	e8 00 00 00 00	 call	 ??0CNumber_Nine@@QAE@W4TOOLTYPE@CSymbolBaseData@@ABW4SIZETYPE@2@ABVCCoordinate@@ABVCSize@@ABKABUtagLOGFONTA@@4@Z ; CNumber_Nine::CNumber_Nine

; 216  : 	default:
; 217  : 		return NULL;
; 218  : 	}
; 219  : }

  00533	8b 4d f4	 mov	 ecx, DWORD PTR __$EHRec$[ebp]
  00536	64 89 0d 00 00
	00 00		 mov	 DWORD PTR fs:0, ecx
  0053d	59		 pop	 ecx
  0053e	5e		 pop	 esi
  0053f	8b e5		 mov	 esp, ebp
  00541	5d		 pop	 ebp
  00542	c3		 ret	 0
$LN22@Make:

; 186  : 	//case CSymbolBaseData::SYMBOL_NUM_SIX:  //10
; 187  : 	//	return new CNumber_Ten(SymbolType, sizetype, startPt, SymbolSize, color, logfont, textColor);
; 188  : 	case CSymbolBaseData::SYMBOL_TEXT_A:  //a
; 189  : 		return new CText_A(SymbolType, sizetype, startPt, SymbolSize, color, logfont, textColor);

  00543	68 c0 00 00 00	 push	 192			; 000000c0H
  00548	e8 00 00 00 00	 call	 ??2@YAPAXI@Z		; operator new
  0054d	83 c4 04	 add	 esp, 4
  00550	89 45 08	 mov	 DWORD PTR $T15[ebp], eax
  00553	c7 45 fc 12 00
	00 00		 mov	 DWORD PTR __$EHRec$[ebp+8], 18 ; 00000012H
  0055a	85 c0		 test	 eax, eax
  0055c	0f 84 c5 03 00
	00		 je	 $LN36@Make
  00562	ff 75 20	 push	 DWORD PTR _textColor$[ebp]
  00565	8b c8		 mov	 ecx, eax
  00567	ff 75 1c	 push	 DWORD PTR _logfont$[ebp]
  0056a	ff 75 18	 push	 DWORD PTR _color$[ebp]
  0056d	ff 75 14	 push	 DWORD PTR _SymbolSize$[ebp]
  00570	ff 75 10	 push	 DWORD PTR _startPt$[ebp]
  00573	ff 75 0c	 push	 DWORD PTR _sizetype$[ebp]
  00576	56		 push	 esi
  00577	e8 00 00 00 00	 call	 ??0CText_A@@QAE@W4TOOLTYPE@CSymbolBaseData@@ABW4SIZETYPE@2@ABVCCoordinate@@ABVCSize@@ABKABUtagLOGFONTA@@4@Z ; CText_A::CText_A

; 216  : 	default:
; 217  : 		return NULL;
; 218  : 	}
; 219  : }

  0057c	8b 4d f4	 mov	 ecx, DWORD PTR __$EHRec$[ebp]
  0057f	64 89 0d 00 00
	00 00		 mov	 DWORD PTR fs:0, ecx
  00586	59		 pop	 ecx
  00587	5e		 pop	 esi
  00588	8b e5		 mov	 esp, ebp
  0058a	5d		 pop	 ebp
  0058b	c3		 ret	 0
$LN23@Make:

; 190  : 	case CSymbolBaseData::SYMBOL_TEXT_B: //b
; 191  : 		return new CText_B(SymbolType, sizetype, startPt, SymbolSize, color, logfont, textColor);

  0058c	68 c0 00 00 00	 push	 192			; 000000c0H
  00591	e8 00 00 00 00	 call	 ??2@YAPAXI@Z		; operator new
  00596	83 c4 04	 add	 esp, 4
  00599	89 45 08	 mov	 DWORD PTR $T14[ebp], eax
  0059c	c7 45 fc 13 00
	00 00		 mov	 DWORD PTR __$EHRec$[ebp+8], 19 ; 00000013H
  005a3	85 c0		 test	 eax, eax
  005a5	0f 84 7c 03 00
	00		 je	 $LN36@Make
  005ab	ff 75 20	 push	 DWORD PTR _textColor$[ebp]
  005ae	8b c8		 mov	 ecx, eax
  005b0	ff 75 1c	 push	 DWORD PTR _logfont$[ebp]
  005b3	ff 75 18	 push	 DWORD PTR _color$[ebp]
  005b6	ff 75 14	 push	 DWORD PTR _SymbolSize$[ebp]
  005b9	ff 75 10	 push	 DWORD PTR _startPt$[ebp]
  005bc	ff 75 0c	 push	 DWORD PTR _sizetype$[ebp]
  005bf	56		 push	 esi
  005c0	e8 00 00 00 00	 call	 ??0CText_B@@QAE@W4TOOLTYPE@CSymbolBaseData@@ABW4SIZETYPE@2@ABVCCoordinate@@ABVCSize@@ABKABUtagLOGFONTA@@4@Z ; CText_B::CText_B

; 216  : 	default:
; 217  : 		return NULL;
; 218  : 	}
; 219  : }

  005c5	8b 4d f4	 mov	 ecx, DWORD PTR __$EHRec$[ebp]
  005c8	64 89 0d 00 00
	00 00		 mov	 DWORD PTR fs:0, ecx
  005cf	59		 pop	 ecx
  005d0	5e		 pop	 esi
  005d1	8b e5		 mov	 esp, ebp
  005d3	5d		 pop	 ebp
  005d4	c3		 ret	 0
$LN24@Make:

; 192  : 	case CSymbolBaseData::SYMBOL_TEXT_C: //c
; 193  : 		return new CText_C(SymbolType, sizetype, startPt, SymbolSize, color, logfont, textColor);

  005d5	68 c0 00 00 00	 push	 192			; 000000c0H
  005da	e8 00 00 00 00	 call	 ??2@YAPAXI@Z		; operator new
  005df	83 c4 04	 add	 esp, 4
  005e2	89 45 08	 mov	 DWORD PTR $T13[ebp], eax
  005e5	c7 45 fc 14 00
	00 00		 mov	 DWORD PTR __$EHRec$[ebp+8], 20 ; 00000014H
  005ec	85 c0		 test	 eax, eax
  005ee	0f 84 33 03 00
	00		 je	 $LN36@Make
  005f4	ff 75 20	 push	 DWORD PTR _textColor$[ebp]
  005f7	8b c8		 mov	 ecx, eax
  005f9	ff 75 1c	 push	 DWORD PTR _logfont$[ebp]
  005fc	ff 75 18	 push	 DWORD PTR _color$[ebp]
  005ff	ff 75 14	 push	 DWORD PTR _SymbolSize$[ebp]
  00602	ff 75 10	 push	 DWORD PTR _startPt$[ebp]
  00605	ff 75 0c	 push	 DWORD PTR _sizetype$[ebp]
  00608	56		 push	 esi
  00609	e8 00 00 00 00	 call	 ??0CText_C@@QAE@W4TOOLTYPE@CSymbolBaseData@@ABW4SIZETYPE@2@ABVCCoordinate@@ABVCSize@@ABKABUtagLOGFONTA@@4@Z ; CText_C::CText_C

; 216  : 	default:
; 217  : 		return NULL;
; 218  : 	}
; 219  : }

  0060e	8b 4d f4	 mov	 ecx, DWORD PTR __$EHRec$[ebp]
  00611	64 89 0d 00 00
	00 00		 mov	 DWORD PTR fs:0, ecx
  00618	59		 pop	 ecx
  00619	5e		 pop	 esi
  0061a	8b e5		 mov	 esp, ebp
  0061c	5d		 pop	 ebp
  0061d	c3		 ret	 0
$LN25@Make:

; 194  : 	case CSymbolBaseData::SYMBOL_TEXT_D: //d
; 195  : 		return new CText_D(SymbolType, sizetype, startPt, SymbolSize, color, logfont, textColor);

  0061e	68 c0 00 00 00	 push	 192			; 000000c0H
  00623	e8 00 00 00 00	 call	 ??2@YAPAXI@Z		; operator new
  00628	83 c4 04	 add	 esp, 4
  0062b	89 45 08	 mov	 DWORD PTR $T12[ebp], eax
  0062e	c7 45 fc 15 00
	00 00		 mov	 DWORD PTR __$EHRec$[ebp+8], 21 ; 00000015H
  00635	85 c0		 test	 eax, eax
  00637	0f 84 ea 02 00
	00		 je	 $LN36@Make
  0063d	ff 75 20	 push	 DWORD PTR _textColor$[ebp]
  00640	8b c8		 mov	 ecx, eax
  00642	ff 75 1c	 push	 DWORD PTR _logfont$[ebp]
  00645	ff 75 18	 push	 DWORD PTR _color$[ebp]
  00648	ff 75 14	 push	 DWORD PTR _SymbolSize$[ebp]
  0064b	ff 75 10	 push	 DWORD PTR _startPt$[ebp]
  0064e	ff 75 0c	 push	 DWORD PTR _sizetype$[ebp]
  00651	56		 push	 esi
  00652	e8 00 00 00 00	 call	 ??0CText_D@@QAE@W4TOOLTYPE@CSymbolBaseData@@ABW4SIZETYPE@2@ABVCCoordinate@@ABVCSize@@ABKABUtagLOGFONTA@@4@Z ; CText_D::CText_D

; 216  : 	default:
; 217  : 		return NULL;
; 218  : 	}
; 219  : }

  00657	8b 4d f4	 mov	 ecx, DWORD PTR __$EHRec$[ebp]
  0065a	64 89 0d 00 00
	00 00		 mov	 DWORD PTR fs:0, ecx
  00661	59		 pop	 ecx
  00662	5e		 pop	 esi
  00663	8b e5		 mov	 esp, ebp
  00665	5d		 pop	 ebp
  00666	c3		 ret	 0
$LN26@Make:

; 196  : 	case CSymbolBaseData::SYMBOL_TEXT_E: //e
; 197  : 		return new CText_E(SymbolType, sizetype, startPt, SymbolSize, color, logfont, textColor);

  00667	68 c0 00 00 00	 push	 192			; 000000c0H
  0066c	e8 00 00 00 00	 call	 ??2@YAPAXI@Z		; operator new
  00671	83 c4 04	 add	 esp, 4
  00674	89 45 08	 mov	 DWORD PTR $T11[ebp], eax
  00677	c7 45 fc 16 00
	00 00		 mov	 DWORD PTR __$EHRec$[ebp+8], 22 ; 00000016H
  0067e	85 c0		 test	 eax, eax
  00680	0f 84 a1 02 00
	00		 je	 $LN36@Make
  00686	ff 75 20	 push	 DWORD PTR _textColor$[ebp]
  00689	8b c8		 mov	 ecx, eax
  0068b	ff 75 1c	 push	 DWORD PTR _logfont$[ebp]
  0068e	ff 75 18	 push	 DWORD PTR _color$[ebp]
  00691	ff 75 14	 push	 DWORD PTR _SymbolSize$[ebp]
  00694	ff 75 10	 push	 DWORD PTR _startPt$[ebp]
  00697	ff 75 0c	 push	 DWORD PTR _sizetype$[ebp]
  0069a	56		 push	 esi
  0069b	e8 00 00 00 00	 call	 ??0CText_E@@QAE@W4TOOLTYPE@CSymbolBaseData@@ABW4SIZETYPE@2@ABVCCoordinate@@ABVCSize@@ABKABUtagLOGFONTA@@4@Z ; CText_E::CText_E

; 216  : 	default:
; 217  : 		return NULL;
; 218  : 	}
; 219  : }

  006a0	8b 4d f4	 mov	 ecx, DWORD PTR __$EHRec$[ebp]
  006a3	64 89 0d 00 00
	00 00		 mov	 DWORD PTR fs:0, ecx
  006aa	59		 pop	 ecx
  006ab	5e		 pop	 esi
  006ac	8b e5		 mov	 esp, ebp
  006ae	5d		 pop	 ebp
  006af	c3		 ret	 0
$LN27@Make:

; 198  : 	case CSymbolBaseData::SYMBOL_TEXT_F: //f
; 199  : 		return new CText_F(SymbolType, sizetype, startPt, SymbolSize, color, logfont, textColor);

  006b0	68 c0 00 00 00	 push	 192			; 000000c0H
  006b5	e8 00 00 00 00	 call	 ??2@YAPAXI@Z		; operator new
  006ba	83 c4 04	 add	 esp, 4
  006bd	89 45 08	 mov	 DWORD PTR $T10[ebp], eax
  006c0	c7 45 fc 17 00
	00 00		 mov	 DWORD PTR __$EHRec$[ebp+8], 23 ; 00000017H
  006c7	85 c0		 test	 eax, eax
  006c9	0f 84 58 02 00
	00		 je	 $LN36@Make
  006cf	ff 75 20	 push	 DWORD PTR _textColor$[ebp]
  006d2	8b c8		 mov	 ecx, eax
  006d4	ff 75 1c	 push	 DWORD PTR _logfont$[ebp]
  006d7	ff 75 18	 push	 DWORD PTR _color$[ebp]
  006da	ff 75 14	 push	 DWORD PTR _SymbolSize$[ebp]
  006dd	ff 75 10	 push	 DWORD PTR _startPt$[ebp]
  006e0	ff 75 0c	 push	 DWORD PTR _sizetype$[ebp]
  006e3	56		 push	 esi
  006e4	e8 00 00 00 00	 call	 ??0CText_F@@QAE@W4TOOLTYPE@CSymbolBaseData@@ABW4SIZETYPE@2@ABVCCoordinate@@ABVCSize@@ABKABUtagLOGFONTA@@4@Z ; CText_F::CText_F

; 216  : 	default:
; 217  : 		return NULL;
; 218  : 	}
; 219  : }

  006e9	8b 4d f4	 mov	 ecx, DWORD PTR __$EHRec$[ebp]
  006ec	64 89 0d 00 00
	00 00		 mov	 DWORD PTR fs:0, ecx
  006f3	59		 pop	 ecx
  006f4	5e		 pop	 esi
  006f5	8b e5		 mov	 esp, ebp
  006f7	5d		 pop	 ebp
  006f8	c3		 ret	 0
$LN28@Make:

; 200  : 	case CSymbolBaseData::SYMBOL_TEXT_G: //g
; 201  : 		return new CText_G(SymbolType, sizetype, startPt, SymbolSize, color, logfont, textColor);

  006f9	68 c0 00 00 00	 push	 192			; 000000c0H
  006fe	e8 00 00 00 00	 call	 ??2@YAPAXI@Z		; operator new
  00703	83 c4 04	 add	 esp, 4
  00706	89 45 08	 mov	 DWORD PTR $T9[ebp], eax
  00709	c7 45 fc 18 00
	00 00		 mov	 DWORD PTR __$EHRec$[ebp+8], 24 ; 00000018H
  00710	85 c0		 test	 eax, eax
  00712	0f 84 0f 02 00
	00		 je	 $LN36@Make
  00718	ff 75 20	 push	 DWORD PTR _textColor$[ebp]
  0071b	8b c8		 mov	 ecx, eax
  0071d	ff 75 1c	 push	 DWORD PTR _logfont$[ebp]
  00720	ff 75 18	 push	 DWORD PTR _color$[ebp]
  00723	ff 75 14	 push	 DWORD PTR _SymbolSize$[ebp]
  00726	ff 75 10	 push	 DWORD PTR _startPt$[ebp]
  00729	ff 75 0c	 push	 DWORD PTR _sizetype$[ebp]
  0072c	56		 push	 esi
  0072d	e8 00 00 00 00	 call	 ??0CText_G@@QAE@W4TOOLTYPE@CSymbolBaseData@@ABW4SIZETYPE@2@ABVCCoordinate@@ABVCSize@@ABKABUtagLOGFONTA@@4@Z ; CText_G::CText_G

; 216  : 	default:
; 217  : 		return NULL;
; 218  : 	}
; 219  : }

  00732	8b 4d f4	 mov	 ecx, DWORD PTR __$EHRec$[ebp]
  00735	64 89 0d 00 00
	00 00		 mov	 DWORD PTR fs:0, ecx
  0073c	59		 pop	 ecx
  0073d	5e		 pop	 esi
  0073e	8b e5		 mov	 esp, ebp
  00740	5d		 pop	 ebp
  00741	c3		 ret	 0
$LN29@Make:

; 202  : 	case CSymbolBaseData::SYMBOL_TEXT_H: //h
; 203  : 		return new CText_H(SymbolType, sizetype, startPt, SymbolSize, color, logfont, textColor);

  00742	68 c0 00 00 00	 push	 192			; 000000c0H
  00747	e8 00 00 00 00	 call	 ??2@YAPAXI@Z		; operator new
  0074c	83 c4 04	 add	 esp, 4
  0074f	89 45 08	 mov	 DWORD PTR $T8[ebp], eax
  00752	c7 45 fc 19 00
	00 00		 mov	 DWORD PTR __$EHRec$[ebp+8], 25 ; 00000019H
  00759	85 c0		 test	 eax, eax
  0075b	0f 84 c6 01 00
	00		 je	 $LN36@Make
  00761	ff 75 20	 push	 DWORD PTR _textColor$[ebp]
  00764	8b c8		 mov	 ecx, eax
  00766	ff 75 1c	 push	 DWORD PTR _logfont$[ebp]
  00769	ff 75 18	 push	 DWORD PTR _color$[ebp]
  0076c	ff 75 14	 push	 DWORD PTR _SymbolSize$[ebp]
  0076f	ff 75 10	 push	 DWORD PTR _startPt$[ebp]
  00772	ff 75 0c	 push	 DWORD PTR _sizetype$[ebp]
  00775	56		 push	 esi
  00776	e8 00 00 00 00	 call	 ??0CText_H@@QAE@W4TOOLTYPE@CSymbolBaseData@@ABW4SIZETYPE@2@ABVCCoordinate@@ABVCSize@@ABKABUtagLOGFONTA@@4@Z ; CText_H::CText_H

; 216  : 	default:
; 217  : 		return NULL;
; 218  : 	}
; 219  : }

  0077b	8b 4d f4	 mov	 ecx, DWORD PTR __$EHRec$[ebp]
  0077e	64 89 0d 00 00
	00 00		 mov	 DWORD PTR fs:0, ecx
  00785	59		 pop	 ecx
  00786	5e		 pop	 esi
  00787	8b e5		 mov	 esp, ebp
  00789	5d		 pop	 ebp
  0078a	c3		 ret	 0
$LN30@Make:

; 204  : 	case CSymbolBaseData::SYMBOL_CHAR_1: //h
; 205  : 		return new CChar_1(SymbolType, sizetype, startPt, SymbolSize, color, logfont);//, textColor);

  0078b	68 c0 00 00 00	 push	 192			; 000000c0H
  00790	e8 00 00 00 00	 call	 ??2@YAPAXI@Z		; operator new
  00795	83 c4 04	 add	 esp, 4
  00798	89 45 08	 mov	 DWORD PTR $T7[ebp], eax
  0079b	c7 45 fc 1a 00
	00 00		 mov	 DWORD PTR __$EHRec$[ebp+8], 26 ; 0000001aH
  007a2	85 c0		 test	 eax, eax
  007a4	0f 84 7d 01 00
	00		 je	 $LN36@Make
  007aa	ff 75 1c	 push	 DWORD PTR _logfont$[ebp]
  007ad	8b c8		 mov	 ecx, eax
  007af	ff 75 18	 push	 DWORD PTR _color$[ebp]
  007b2	ff 75 14	 push	 DWORD PTR _SymbolSize$[ebp]
  007b5	ff 75 10	 push	 DWORD PTR _startPt$[ebp]
  007b8	ff 75 0c	 push	 DWORD PTR _sizetype$[ebp]
  007bb	56		 push	 esi
  007bc	e8 00 00 00 00	 call	 ??0CChar_1@@QAE@W4TOOLTYPE@CSymbolBaseData@@ABW4SIZETYPE@2@ABVCCoordinate@@ABVCSize@@ABKABUtagLOGFONTA@@@Z ; CChar_1::CChar_1

; 216  : 	default:
; 217  : 		return NULL;
; 218  : 	}
; 219  : }

  007c1	8b 4d f4	 mov	 ecx, DWORD PTR __$EHRec$[ebp]
  007c4	64 89 0d 00 00
	00 00		 mov	 DWORD PTR fs:0, ecx
  007cb	59		 pop	 ecx
  007cc	5e		 pop	 esi
  007cd	8b e5		 mov	 esp, ebp
  007cf	5d		 pop	 ebp
  007d0	c3		 ret	 0
$LN31@Make:

; 206  : 	case CSymbolBaseData::SYMBOL_CHAR_2: //h
; 207  : 		return new CChar_2(SymbolType, sizetype, startPt, SymbolSize, color, logfont);//, textColor);

  007d1	68 c0 00 00 00	 push	 192			; 000000c0H
  007d6	e8 00 00 00 00	 call	 ??2@YAPAXI@Z		; operator new
  007db	83 c4 04	 add	 esp, 4
  007de	89 45 08	 mov	 DWORD PTR $T6[ebp], eax
  007e1	c7 45 fc 1b 00
	00 00		 mov	 DWORD PTR __$EHRec$[ebp+8], 27 ; 0000001bH
  007e8	85 c0		 test	 eax, eax
  007ea	0f 84 37 01 00
	00		 je	 $LN36@Make
  007f0	ff 75 1c	 push	 DWORD PTR _logfont$[ebp]
  007f3	8b c8		 mov	 ecx, eax
  007f5	ff 75 18	 push	 DWORD PTR _color$[ebp]
  007f8	ff 75 14	 push	 DWORD PTR _SymbolSize$[ebp]
  007fb	ff 75 10	 push	 DWORD PTR _startPt$[ebp]
  007fe	ff 75 0c	 push	 DWORD PTR _sizetype$[ebp]
  00801	56		 push	 esi
  00802	e8 00 00 00 00	 call	 ??0CChar_2@@QAE@W4TOOLTYPE@CSymbolBaseData@@ABW4SIZETYPE@2@ABVCCoordinate@@ABVCSize@@ABKABUtagLOGFONTA@@@Z ; CChar_2::CChar_2

; 216  : 	default:
; 217  : 		return NULL;
; 218  : 	}
; 219  : }

  00807	8b 4d f4	 mov	 ecx, DWORD PTR __$EHRec$[ebp]
  0080a	64 89 0d 00 00
	00 00		 mov	 DWORD PTR fs:0, ecx
  00811	59		 pop	 ecx
  00812	5e		 pop	 esi
  00813	8b e5		 mov	 esp, ebp
  00815	5d		 pop	 ebp
  00816	c3		 ret	 0
$LN32@Make:

; 208  : 	case CSymbolBaseData::SYMBOL_CHAR_3: //h
; 209  : 		return new CChar_3(SymbolType, sizetype, startPt, SymbolSize, color, logfont);//, textColor);

  00817	68 c0 00 00 00	 push	 192			; 000000c0H
  0081c	e8 00 00 00 00	 call	 ??2@YAPAXI@Z		; operator new
  00821	83 c4 04	 add	 esp, 4
  00824	89 45 08	 mov	 DWORD PTR $T5[ebp], eax
  00827	c7 45 fc 1c 00
	00 00		 mov	 DWORD PTR __$EHRec$[ebp+8], 28 ; 0000001cH
  0082e	85 c0		 test	 eax, eax
  00830	0f 84 f1 00 00
	00		 je	 $LN36@Make
  00836	ff 75 1c	 push	 DWORD PTR _logfont$[ebp]
  00839	8b c8		 mov	 ecx, eax
  0083b	ff 75 18	 push	 DWORD PTR _color$[ebp]
  0083e	ff 75 14	 push	 DWORD PTR _SymbolSize$[ebp]
  00841	ff 75 10	 push	 DWORD PTR _startPt$[ebp]
  00844	ff 75 0c	 push	 DWORD PTR _sizetype$[ebp]
  00847	56		 push	 esi
  00848	e8 00 00 00 00	 call	 ??0CChar_3@@QAE@W4TOOLTYPE@CSymbolBaseData@@ABW4SIZETYPE@2@ABVCCoordinate@@ABVCSize@@ABKABUtagLOGFONTA@@@Z ; CChar_3::CChar_3

; 216  : 	default:
; 217  : 		return NULL;
; 218  : 	}
; 219  : }

  0084d	8b 4d f4	 mov	 ecx, DWORD PTR __$EHRec$[ebp]
  00850	64 89 0d 00 00
	00 00		 mov	 DWORD PTR fs:0, ecx
  00857	59		 pop	 ecx
  00858	5e		 pop	 esi
  00859	8b e5		 mov	 esp, ebp
  0085b	5d		 pop	 ebp
  0085c	c3		 ret	 0
$LN33@Make:

; 210  : 	case CSymbolBaseData::SYMBOL_CHAR_4: //h
; 211  : 		return new CChar_4(SymbolType, sizetype, startPt, SymbolSize, color, logfont);//, textColor);

  0085d	68 c0 00 00 00	 push	 192			; 000000c0H
  00862	e8 00 00 00 00	 call	 ??2@YAPAXI@Z		; operator new
  00867	83 c4 04	 add	 esp, 4
  0086a	89 45 08	 mov	 DWORD PTR $T4[ebp], eax
  0086d	c7 45 fc 1d 00
	00 00		 mov	 DWORD PTR __$EHRec$[ebp+8], 29 ; 0000001dH
  00874	85 c0		 test	 eax, eax
  00876	0f 84 ab 00 00
	00		 je	 $LN36@Make
  0087c	ff 75 1c	 push	 DWORD PTR _logfont$[ebp]
  0087f	8b c8		 mov	 ecx, eax
  00881	ff 75 18	 push	 DWORD PTR _color$[ebp]
  00884	ff 75 14	 push	 DWORD PTR _SymbolSize$[ebp]
  00887	ff 75 10	 push	 DWORD PTR _startPt$[ebp]
  0088a	ff 75 0c	 push	 DWORD PTR _sizetype$[ebp]
  0088d	56		 push	 esi
  0088e	e8 00 00 00 00	 call	 ??0CChar_4@@QAE@W4TOOLTYPE@CSymbolBaseData@@ABW4SIZETYPE@2@ABVCCoordinate@@ABVCSize@@ABKABUtagLOGFONTA@@@Z ; CChar_4::CChar_4

; 216  : 	default:
; 217  : 		return NULL;
; 218  : 	}
; 219  : }

  00893	8b 4d f4	 mov	 ecx, DWORD PTR __$EHRec$[ebp]
  00896	64 89 0d 00 00
	00 00		 mov	 DWORD PTR fs:0, ecx
  0089d	59		 pop	 ecx
  0089e	5e		 pop	 esi
  0089f	8b e5		 mov	 esp, ebp
  008a1	5d		 pop	 ebp
  008a2	c3		 ret	 0
$LN34@Make:

; 212  : 	case CSymbolBaseData::SYMBOL_CHAR_5: //h
; 213  : 		return new CChar_5(SymbolType, sizetype, startPt, SymbolSize, color, logfont);//, textColor);

  008a3	68 c0 00 00 00	 push	 192			; 000000c0H
  008a8	e8 00 00 00 00	 call	 ??2@YAPAXI@Z		; operator new
  008ad	83 c4 04	 add	 esp, 4
  008b0	89 45 08	 mov	 DWORD PTR $T3[ebp], eax
  008b3	c7 45 fc 1e 00
	00 00		 mov	 DWORD PTR __$EHRec$[ebp+8], 30 ; 0000001eH
  008ba	85 c0		 test	 eax, eax
  008bc	74 69		 je	 SHORT $LN36@Make
  008be	ff 75 1c	 push	 DWORD PTR _logfont$[ebp]
  008c1	8b c8		 mov	 ecx, eax
  008c3	ff 75 18	 push	 DWORD PTR _color$[ebp]
  008c6	ff 75 14	 push	 DWORD PTR _SymbolSize$[ebp]
  008c9	ff 75 10	 push	 DWORD PTR _startPt$[ebp]
  008cc	ff 75 0c	 push	 DWORD PTR _sizetype$[ebp]
  008cf	56		 push	 esi
  008d0	e8 00 00 00 00	 call	 ??0CChar_5@@QAE@W4TOOLTYPE@CSymbolBaseData@@ABW4SIZETYPE@2@ABVCCoordinate@@ABVCSize@@ABKABUtagLOGFONTA@@@Z ; CChar_5::CChar_5

; 216  : 	default:
; 217  : 		return NULL;
; 218  : 	}
; 219  : }

  008d5	8b 4d f4	 mov	 ecx, DWORD PTR __$EHRec$[ebp]
  008d8	64 89 0d 00 00
	00 00		 mov	 DWORD PTR fs:0, ecx
  008df	59		 pop	 ecx
  008e0	5e		 pop	 esi
  008e1	8b e5		 mov	 esp, ebp
  008e3	5d		 pop	 ebp
  008e4	c3		 ret	 0
$LN35@Make:

; 214  : 	case CSymbolBaseData::SYMBOL_CHAR_6: //h
; 215  : 		return new CChar_6(SymbolType, sizetype, startPt, SymbolSize, color, logfont);//, textColor);

  008e5	68 c0 00 00 00	 push	 192			; 000000c0H
  008ea	e8 00 00 00 00	 call	 ??2@YAPAXI@Z		; operator new
  008ef	83 c4 04	 add	 esp, 4
  008f2	89 45 08	 mov	 DWORD PTR $T2[ebp], eax
  008f5	c7 45 fc 1f 00
	00 00		 mov	 DWORD PTR __$EHRec$[ebp+8], 31 ; 0000001fH
  008fc	85 c0		 test	 eax, eax
  008fe	74 27		 je	 SHORT $LN36@Make
  00900	ff 75 1c	 push	 DWORD PTR _logfont$[ebp]
  00903	8b c8		 mov	 ecx, eax
  00905	ff 75 18	 push	 DWORD PTR _color$[ebp]
  00908	ff 75 14	 push	 DWORD PTR _SymbolSize$[ebp]
  0090b	ff 75 10	 push	 DWORD PTR _startPt$[ebp]
  0090e	ff 75 0c	 push	 DWORD PTR _sizetype$[ebp]
  00911	56		 push	 esi
  00912	e8 00 00 00 00	 call	 ??0CChar_6@@QAE@W4TOOLTYPE@CSymbolBaseData@@ABW4SIZETYPE@2@ABVCCoordinate@@ABVCSize@@ABKABUtagLOGFONTA@@@Z ; CChar_6::CChar_6

; 216  : 	default:
; 217  : 		return NULL;
; 218  : 	}
; 219  : }

  00917	8b 4d f4	 mov	 ecx, DWORD PTR __$EHRec$[ebp]
  0091a	64 89 0d 00 00
	00 00		 mov	 DWORD PTR fs:0, ecx
  00921	59		 pop	 ecx
  00922	5e		 pop	 esi
  00923	8b e5		 mov	 esp, ebp
  00925	5d		 pop	 ebp
  00926	c3		 ret	 0
$LN36@Make:
  00927	33 c0		 xor	 eax, eax
  00929	8b 4d f4	 mov	 ecx, DWORD PTR __$EHRec$[ebp]
  0092c	64 89 0d 00 00
	00 00		 mov	 DWORD PTR fs:0, ecx
  00933	59		 pop	 ecx
  00934	5e		 pop	 esi
  00935	8b e5		 mov	 esp, ebp
  00937	5d		 pop	 ebp
  00938	c3		 ret	 0
  00939	0f 1f 00	 npad	 3
$LN134@Make:
  0093c	00 00 00 00	 DD	 $LN4@Make
  00940	00 00 00 00	 DD	 $LN36@Make
  00944	00 00 00 00	 DD	 $LN36@Make
  00948	00 00 00 00	 DD	 $LN5@Make
  0094c	00 00 00 00	 DD	 $LN6@Make
  00950	00 00 00 00	 DD	 $LN7@Make
  00954	00 00 00 00	 DD	 $LN8@Make
  00958	00 00 00 00	 DD	 $LN9@Make
  0095c	00 00 00 00	 DD	 $LN10@Make
  00960	00 00 00 00	 DD	 $LN11@Make
  00964	00 00 00 00	 DD	 $LN12@Make
  00968	00 00 00 00	 DD	 $LN13@Make
  0096c	00 00 00 00	 DD	 $LN14@Make
  00970	00 00 00 00	 DD	 $LN15@Make
  00974	00 00 00 00	 DD	 $LN16@Make
  00978	00 00 00 00	 DD	 $LN17@Make
  0097c	00 00 00 00	 DD	 $LN18@Make
  00980	00 00 00 00	 DD	 $LN19@Make
  00984	00 00 00 00	 DD	 $LN20@Make
  00988	00 00 00 00	 DD	 $LN21@Make
  0098c	00 00 00 00	 DD	 $LN36@Make
  00990	00 00 00 00	 DD	 $LN22@Make
  00994	00 00 00 00	 DD	 $LN23@Make
  00998	00 00 00 00	 DD	 $LN24@Make
  0099c	00 00 00 00	 DD	 $LN25@Make
  009a0	00 00 00 00	 DD	 $LN26@Make
  009a4	00 00 00 00	 DD	 $LN27@Make
  009a8	00 00 00 00	 DD	 $LN28@Make
  009ac	00 00 00 00	 DD	 $LN29@Make
  009b0	00 00 00 00	 DD	 $LN30@Make
  009b4	00 00 00 00	 DD	 $LN31@Make
  009b8	00 00 00 00	 DD	 $LN32@Make
  009bc	00 00 00 00	 DD	 $LN33@Make
  009c0	00 00 00 00	 DD	 $LN34@Make
  009c4	00 00 00 00	 DD	 $LN35@Make
_TEXT	ENDS
;	COMDAT text$x
text$x	SEGMENT
__unwindfunclet$?Make@CDrawingSymbolFactory@@SAPAVCDrawingSymbol@@W4TOOLTYPE@CSymbolBaseData@@ABW4SIZETYPE@4@ABVCCoordinate@@ABVCSize@@ABKABUtagLOGFONTA@@4@Z$0:
  00000	68 e0 00 00 00	 push	 224			; 000000e0H
  00005	8b 45 08	 mov	 eax, DWORD PTR $T33[ebp]
  00008	50		 push	 eax
  00009	e8 00 00 00 00	 call	 ??3@YAXPAXI@Z		; operator delete
  0000e	83 c4 08	 add	 esp, 8
  00011	c3		 ret	 0
__unwindfunclet$?Make@CDrawingSymbolFactory@@SAPAVCDrawingSymbol@@W4TOOLTYPE@CSymbolBaseData@@ABW4SIZETYPE@4@ABVCCoordinate@@ABVCSize@@ABKABUtagLOGFONTA@@4@Z$1:
  00012	68 c0 00 00 00	 push	 192			; 000000c0H
  00017	8b 45 08	 mov	 eax, DWORD PTR $T32[ebp]
  0001a	50		 push	 eax
  0001b	e8 00 00 00 00	 call	 ??3@YAXPAXI@Z		; operator delete
  00020	83 c4 08	 add	 esp, 8
  00023	c3		 ret	 0
__unwindfunclet$?Make@CDrawingSymbolFactory@@SAPAVCDrawingSymbol@@W4TOOLTYPE@CSymbolBaseData@@ABW4SIZETYPE@4@ABVCCoordinate@@ABVCSize@@ABKABUtagLOGFONTA@@4@Z$2:
  00024	68 c0 00 00 00	 push	 192			; 000000c0H
  00029	8b 45 08	 mov	 eax, DWORD PTR $T31[ebp]
  0002c	50		 push	 eax
  0002d	e8 00 00 00 00	 call	 ??3@YAXPAXI@Z		; operator delete
  00032	83 c4 08	 add	 esp, 8
  00035	c3		 ret	 0
__unwindfunclet$?Make@CDrawingSymbolFactory@@SAPAVCDrawingSymbol@@W4TOOLTYPE@CSymbolBaseData@@ABW4SIZETYPE@4@ABVCCoordinate@@ABVCSize@@ABKABUtagLOGFONTA@@4@Z$3:
  00036	68 c0 00 00 00	 push	 192			; 000000c0H
  0003b	8b 45 08	 mov	 eax, DWORD PTR $T30[ebp]
  0003e	50		 push	 eax
  0003f	e8 00 00 00 00	 call	 ??3@YAXPAXI@Z		; operator delete
  00044	83 c4 08	 add	 esp, 8
  00047	c3		 ret	 0
__unwindfunclet$?Make@CDrawingSymbolFactory@@SAPAVCDrawingSymbol@@W4TOOLTYPE@CSymbolBaseData@@ABW4SIZETYPE@4@ABVCCoordinate@@ABVCSize@@ABKABUtagLOGFONTA@@4@Z$4:
  00048	68 c0 00 00 00	 push	 192			; 000000c0H
  0004d	8b 45 08	 mov	 eax, DWORD PTR $T29[ebp]
  00050	50		 push	 eax
  00051	e8 00 00 00 00	 call	 ??3@YAXPAXI@Z		; operator delete
  00056	83 c4 08	 add	 esp, 8
  00059	c3		 ret	 0
__unwindfunclet$?Make@CDrawingSymbolFactory@@SAPAVCDrawingSymbol@@W4TOOLTYPE@CSymbolBaseData@@ABW4SIZETYPE@4@ABVCCoordinate@@ABVCSize@@ABKABUtagLOGFONTA@@4@Z$5:
  0005a	68 c0 00 00 00	 push	 192			; 000000c0H
  0005f	8b 45 08	 mov	 eax, DWORD PTR $T28[ebp]
  00062	50		 push	 eax
  00063	e8 00 00 00 00	 call	 ??3@YAXPAXI@Z		; operator delete
  00068	83 c4 08	 add	 esp, 8
  0006b	c3		 ret	 0
__unwindfunclet$?Make@CDrawingSymbolFactory@@SAPAVCDrawingSymbol@@W4TOOLTYPE@CSymbolBaseData@@ABW4SIZETYPE@4@ABVCCoordinate@@ABVCSize@@ABKABUtagLOGFONTA@@4@Z$6:
  0006c	68 c0 00 00 00	 push	 192			; 000000c0H
  00071	8b 45 08	 mov	 eax, DWORD PTR $T27[ebp]
  00074	50		 push	 eax
  00075	e8 00 00 00 00	 call	 ??3@YAXPAXI@Z		; operator delete
  0007a	83 c4 08	 add	 esp, 8
  0007d	c3		 ret	 0
__unwindfunclet$?Make@CDrawingSymbolFactory@@SAPAVCDrawingSymbol@@W4TOOLTYPE@CSymbolBaseData@@ABW4SIZETYPE@4@ABVCCoordinate@@ABVCSize@@ABKABUtagLOGFONTA@@4@Z$7:
  0007e	68 c0 00 00 00	 push	 192			; 000000c0H
  00083	8b 45 08	 mov	 eax, DWORD PTR $T26[ebp]
  00086	50		 push	 eax
  00087	e8 00 00 00 00	 call	 ??3@YAXPAXI@Z		; operator delete
  0008c	83 c4 08	 add	 esp, 8
  0008f	c3		 ret	 0
__unwindfunclet$?Make@CDrawingSymbolFactory@@SAPAVCDrawingSymbol@@W4TOOLTYPE@CSymbolBaseData@@ABW4SIZETYPE@4@ABVCCoordinate@@ABVCSize@@ABKABUtagLOGFONTA@@4@Z$8:
  00090	68 c0 00 00 00	 push	 192			; 000000c0H
  00095	8b 45 08	 mov	 eax, DWORD PTR $T25[ebp]
  00098	50		 push	 eax
  00099	e8 00 00 00 00	 call	 ??3@YAXPAXI@Z		; operator delete
  0009e	83 c4 08	 add	 esp, 8
  000a1	c3		 ret	 0
__unwindfunclet$?Make@CDrawingSymbolFactory@@SAPAVCDrawingSymbol@@W4TOOLTYPE@CSymbolBaseData@@ABW4SIZETYPE@4@ABVCCoordinate@@ABVCSize@@ABKABUtagLOGFONTA@@4@Z$9:
  000a2	68 c0 00 00 00	 push	 192			; 000000c0H
  000a7	8b 45 08	 mov	 eax, DWORD PTR $T24[ebp]
  000aa	50		 push	 eax
  000ab	e8 00 00 00 00	 call	 ??3@YAXPAXI@Z		; operator delete
  000b0	83 c4 08	 add	 esp, 8
  000b3	c3		 ret	 0
__unwindfunclet$?Make@CDrawingSymbolFactory@@SAPAVCDrawingSymbol@@W4TOOLTYPE@CSymbolBaseData@@ABW4SIZETYPE@4@ABVCCoordinate@@ABVCSize@@ABKABUtagLOGFONTA@@4@Z$10:
  000b4	68 c0 00 00 00	 push	 192			; 000000c0H
  000b9	8b 45 08	 mov	 eax, DWORD PTR $T23[ebp]
  000bc	50		 push	 eax
  000bd	e8 00 00 00 00	 call	 ??3@YAXPAXI@Z		; operator delete
  000c2	83 c4 08	 add	 esp, 8
  000c5	c3		 ret	 0
__unwindfunclet$?Make@CDrawingSymbolFactory@@SAPAVCDrawingSymbol@@W4TOOLTYPE@CSymbolBaseData@@ABW4SIZETYPE@4@ABVCCoordinate@@ABVCSize@@ABKABUtagLOGFONTA@@4@Z$11:
  000c6	68 c0 00 00 00	 push	 192			; 000000c0H
  000cb	8b 45 08	 mov	 eax, DWORD PTR $T22[ebp]
  000ce	50		 push	 eax
  000cf	e8 00 00 00 00	 call	 ??3@YAXPAXI@Z		; operator delete
  000d4	83 c4 08	 add	 esp, 8
  000d7	c3		 ret	 0
__unwindfunclet$?Make@CDrawingSymbolFactory@@SAPAVCDrawingSymbol@@W4TOOLTYPE@CSymbolBaseData@@ABW4SIZETYPE@4@ABVCCoordinate@@ABVCSize@@ABKABUtagLOGFONTA@@4@Z$12:
  000d8	68 c0 00 00 00	 push	 192			; 000000c0H
  000dd	8b 45 08	 mov	 eax, DWORD PTR $T21[ebp]
  000e0	50		 push	 eax
  000e1	e8 00 00 00 00	 call	 ??3@YAXPAXI@Z		; operator delete
  000e6	83 c4 08	 add	 esp, 8
  000e9	c3		 ret	 0
__unwindfunclet$?Make@CDrawingSymbolFactory@@SAPAVCDrawingSymbol@@W4TOOLTYPE@CSymbolBaseData@@ABW4SIZETYPE@4@ABVCCoordinate@@ABVCSize@@ABKABUtagLOGFONTA@@4@Z$13:
  000ea	68 c0 00 00 00	 push	 192			; 000000c0H
  000ef	8b 45 08	 mov	 eax, DWORD PTR $T20[ebp]
  000f2	50		 push	 eax
  000f3	e8 00 00 00 00	 call	 ??3@YAXPAXI@Z		; operator delete
  000f8	83 c4 08	 add	 esp, 8
  000fb	c3		 ret	 0
__unwindfunclet$?Make@CDrawingSymbolFactory@@SAPAVCDrawingSymbol@@W4TOOLTYPE@CSymbolBaseData@@ABW4SIZETYPE@4@ABVCCoordinate@@ABVCSize@@ABKABUtagLOGFONTA@@4@Z$14:
  000fc	68 c0 00 00 00	 push	 192			; 000000c0H
  00101	8b 45 08	 mov	 eax, DWORD PTR $T19[ebp]
  00104	50		 push	 eax
  00105	e8 00 00 00 00	 call	 ??3@YAXPAXI@Z		; operator delete
  0010a	83 c4 08	 add	 esp, 8
  0010d	c3		 ret	 0
__unwindfunclet$?Make@CDrawingSymbolFactory@@SAPAVCDrawingSymbol@@W4TOOLTYPE@CSymbolBaseData@@ABW4SIZETYPE@4@ABVCCoordinate@@ABVCSize@@ABKABUtagLOGFONTA@@4@Z$15:
  0010e	68 c0 00 00 00	 push	 192			; 000000c0H
  00113	8b 45 08	 mov	 eax, DWORD PTR $T18[ebp]
  00116	50		 push	 eax
  00117	e8 00 00 00 00	 call	 ??3@YAXPAXI@Z		; operator delete
  0011c	83 c4 08	 add	 esp, 8
  0011f	c3		 ret	 0
__unwindfunclet$?Make@CDrawingSymbolFactory@@SAPAVCDrawingSymbol@@W4TOOLTYPE@CSymbolBaseData@@ABW4SIZETYPE@4@ABVCCoordinate@@ABVCSize@@ABKABUtagLOGFONTA@@4@Z$16:
  00120	68 c0 00 00 00	 push	 192			; 000000c0H
  00125	8b 45 08	 mov	 eax, DWORD PTR $T17[ebp]
  00128	50		 push	 eax
  00129	e8 00 00 00 00	 call	 ??3@YAXPAXI@Z		; operator delete
  0012e	83 c4 08	 add	 esp, 8
  00131	c3		 ret	 0
__unwindfunclet$?Make@CDrawingSymbolFactory@@SAPAVCDrawingSymbol@@W4TOOLTYPE@CSymbolBaseData@@ABW4SIZETYPE@4@ABVCCoordinate@@ABVCSize@@ABKABUtagLOGFONTA@@4@Z$17:
  00132	68 c0 00 00 00	 push	 192			; 000000c0H
  00137	8b 45 08	 mov	 eax, DWORD PTR $T16[ebp]
  0013a	50		 push	 eax
  0013b	e8 00 00 00 00	 call	 ??3@YAXPAXI@Z		; operator delete
  00140	83 c4 08	 add	 esp, 8
  00143	c3		 ret	 0
__unwindfunclet$?Make@CDrawingSymbolFactory@@SAPAVCDrawingSymbol@@W4TOOLTYPE@CSymbolBaseData@@ABW4SIZETYPE@4@ABVCCoordinate@@ABVCSize@@ABKABUtagLOGFONTA@@4@Z$18:
  00144	68 c0 00 00 00	 push	 192			; 000000c0H
  00149	8b 45 08	 mov	 eax, DWORD PTR $T15[ebp]
  0014c	50		 push	 eax
  0014d	e8 00 00 00 00	 call	 ??3@YAXPAXI@Z		; operator delete
  00152	83 c4 08	 add	 esp, 8
  00155	c3		 ret	 0
__unwindfunclet$?Make@CDrawingSymbolFactory@@SAPAVCDrawingSymbol@@W4TOOLTYPE@CSymbolBaseData@@ABW4SIZETYPE@4@ABVCCoordinate@@ABVCSize@@ABKABUtagLOGFONTA@@4@Z$19:
  00156	68 c0 00 00 00	 push	 192			; 000000c0H
  0015b	8b 45 08	 mov	 eax, DWORD PTR $T14[ebp]
  0015e	50		 push	 eax
  0015f	e8 00 00 00 00	 call	 ??3@YAXPAXI@Z		; operator delete
  00164	83 c4 08	 add	 esp, 8
  00167	c3		 ret	 0
__unwindfunclet$?Make@CDrawingSymbolFactory@@SAPAVCDrawingSymbol@@W4TOOLTYPE@CSymbolBaseData@@ABW4SIZETYPE@4@ABVCCoordinate@@ABVCSize@@ABKABUtagLOGFONTA@@4@Z$20:
  00168	68 c0 00 00 00	 push	 192			; 000000c0H
  0016d	8b 45 08	 mov	 eax, DWORD PTR $T13[ebp]
  00170	50		 push	 eax
  00171	e8 00 00 00 00	 call	 ??3@YAXPAXI@Z		; operator delete
  00176	83 c4 08	 add	 esp, 8
  00179	c3		 ret	 0
__unwindfunclet$?Make@CDrawingSymbolFactory@@SAPAVCDrawingSymbol@@W4TOOLTYPE@CSymbolBaseData@@ABW4SIZETYPE@4@ABVCCoordinate@@ABVCSize@@ABKABUtagLOGFONTA@@4@Z$21:
  0017a	68 c0 00 00 00	 push	 192			; 000000c0H
  0017f	8b 45 08	 mov	 eax, DWORD PTR $T12[ebp]
  00182	50		 push	 eax
  00183	e8 00 00 00 00	 call	 ??3@YAXPAXI@Z		; operator delete
  00188	83 c4 08	 add	 esp, 8
  0018b	c3		 ret	 0
__unwindfunclet$?Make@CDrawingSymbolFactory@@SAPAVCDrawingSymbol@@W4TOOLTYPE@CSymbolBaseData@@ABW4SIZETYPE@4@ABVCCoordinate@@ABVCSize@@ABKABUtagLOGFONTA@@4@Z$22:
  0018c	68 c0 00 00 00	 push	 192			; 000000c0H
  00191	8b 45 08	 mov	 eax, DWORD PTR $T11[ebp]
  00194	50		 push	 eax
  00195	e8 00 00 00 00	 call	 ??3@YAXPAXI@Z		; operator delete
  0019a	83 c4 08	 add	 esp, 8
  0019d	c3		 ret	 0
__unwindfunclet$?Make@CDrawingSymbolFactory@@SAPAVCDrawingSymbol@@W4TOOLTYPE@CSymbolBaseData@@ABW4SIZETYPE@4@ABVCCoordinate@@ABVCSize@@ABKABUtagLOGFONTA@@4@Z$23:
  0019e	68 c0 00 00 00	 push	 192			; 000000c0H
  001a3	8b 45 08	 mov	 eax, DWORD PTR $T10[ebp]
  001a6	50		 push	 eax
  001a7	e8 00 00 00 00	 call	 ??3@YAXPAXI@Z		; operator delete
  001ac	83 c4 08	 add	 esp, 8
  001af	c3		 ret	 0
__unwindfunclet$?Make@CDrawingSymbolFactory@@SAPAVCDrawingSymbol@@W4TOOLTYPE@CSymbolBaseData@@ABW4SIZETYPE@4@ABVCCoordinate@@ABVCSize@@ABKABUtagLOGFONTA@@4@Z$24:
  001b0	68 c0 00 00 00	 push	 192			; 000000c0H
  001b5	8b 45 08	 mov	 eax, DWORD PTR $T9[ebp]
  001b8	50		 push	 eax
  001b9	e8 00 00 00 00	 call	 ??3@YAXPAXI@Z		; operator delete
  001be	83 c4 08	 add	 esp, 8
  001c1	c3		 ret	 0
__unwindfunclet$?Make@CDrawingSymbolFactory@@SAPAVCDrawingSymbol@@W4TOOLTYPE@CSymbolBaseData@@ABW4SIZETYPE@4@ABVCCoordinate@@ABVCSize@@ABKABUtagLOGFONTA@@4@Z$25:
  001c2	68 c0 00 00 00	 push	 192			; 000000c0H
  001c7	8b 45 08	 mov	 eax, DWORD PTR $T8[ebp]
  001ca	50		 push	 eax
  001cb	e8 00 00 00 00	 call	 ??3@YAXPAXI@Z		; operator delete
  001d0	83 c4 08	 add	 esp, 8
  001d3	c3		 ret	 0
__unwindfunclet$?Make@CDrawingSymbolFactory@@SAPAVCDrawingSymbol@@W4TOOLTYPE@CSymbolBaseData@@ABW4SIZETYPE@4@ABVCCoordinate@@ABVCSize@@ABKABUtagLOGFONTA@@4@Z$26:
  001d4	68 c0 00 00 00	 push	 192			; 000000c0H
  001d9	8b 45 08	 mov	 eax, DWORD PTR $T7[ebp]
  001dc	50		 push	 eax
  001dd	e8 00 00 00 00	 call	 ??3@YAXPAXI@Z		; operator delete
  001e2	83 c4 08	 add	 esp, 8
  001e5	c3		 ret	 0
__unwindfunclet$?Make@CDrawingSymbolFactory@@SAPAVCDrawingSymbol@@W4TOOLTYPE@CSymbolBaseData@@ABW4SIZETYPE@4@ABVCCoordinate@@ABVCSize@@ABKABUtagLOGFONTA@@4@Z$27:
  001e6	68 c0 00 00 00	 push	 192			; 000000c0H
  001eb	8b 45 08	 mov	 eax, DWORD PTR $T6[ebp]
  001ee	50		 push	 eax
  001ef	e8 00 00 00 00	 call	 ??3@YAXPAXI@Z		; operator delete
  001f4	83 c4 08	 add	 esp, 8
  001f7	c3		 ret	 0
__unwindfunclet$?Make@CDrawingSymbolFactory@@SAPAVCDrawingSymbol@@W4TOOLTYPE@CSymbolBaseData@@ABW4SIZETYPE@4@ABVCCoordinate@@ABVCSize@@ABKABUtagLOGFONTA@@4@Z$28:
  001f8	68 c0 00 00 00	 push	 192			; 000000c0H
  001fd	8b 45 08	 mov	 eax, DWORD PTR $T5[ebp]
  00200	50		 push	 eax
  00201	e8 00 00 00 00	 call	 ??3@YAXPAXI@Z		; operator delete
  00206	83 c4 08	 add	 esp, 8
  00209	c3		 ret	 0
__unwindfunclet$?Make@CDrawingSymbolFactory@@SAPAVCDrawingSymbol@@W4TOOLTYPE@CSymbolBaseData@@ABW4SIZETYPE@4@ABVCCoordinate@@ABVCSize@@ABKABUtagLOGFONTA@@4@Z$29:
  0020a	68 c0 00 00 00	 push	 192			; 000000c0H
  0020f	8b 45 08	 mov	 eax, DWORD PTR $T4[ebp]
  00212	50		 push	 eax
  00213	e8 00 00 00 00	 call	 ??3@YAXPAXI@Z		; operator delete
  00218	83 c4 08	 add	 esp, 8
  0021b	c3		 ret	 0
__unwindfunclet$?Make@CDrawingSymbolFactory@@SAPAVCDrawingSymbol@@W4TOOLTYPE@CSymbolBaseData@@ABW4SIZETYPE@4@ABVCCoordinate@@ABVCSize@@ABKABUtagLOGFONTA@@4@Z$30:
  0021c	68 c0 00 00 00	 push	 192			; 000000c0H
  00221	8b 45 08	 mov	 eax, DWORD PTR $T3[ebp]
  00224	50		 push	 eax
  00225	e8 00 00 00 00	 call	 ??3@YAXPAXI@Z		; operator delete
  0022a	83 c4 08	 add	 esp, 8
  0022d	c3		 ret	 0
__unwindfunclet$?Make@CDrawingSymbolFactory@@SAPAVCDrawingSymbol@@W4TOOLTYPE@CSymbolBaseData@@ABW4SIZETYPE@4@ABVCCoordinate@@ABVCSize@@ABKABUtagLOGFONTA@@4@Z$31:
  0022e	68 c0 00 00 00	 push	 192			; 000000c0H
  00233	8b 45 08	 mov	 eax, DWORD PTR $T2[ebp]
  00236	50		 push	 eax
  00237	e8 00 00 00 00	 call	 ??3@YAXPAXI@Z		; operator delete
  0023c	83 c4 08	 add	 esp, 8
  0023f	c3		 ret	 0
  00240	cc		 int	 3
  00241	cc		 int	 3
  00242	cc		 int	 3
  00243	cc		 int	 3
  00244	cc		 int	 3
__ehhandler$?Make@CDrawingSymbolFactory@@SAPAVCDrawingSymbol@@W4TOOLTYPE@CSymbolBaseData@@ABW4SIZETYPE@4@ABVCCoordinate@@ABVCSize@@ABKABUtagLOGFONTA@@4@Z:
  00245	90		 npad	 1
  00246	90		 npad	 1
  00247	8b 54 24 08	 mov	 edx, DWORD PTR [esp+8]
  0024b	8d 42 0c	 lea	 eax, DWORD PTR [edx+12]
  0024e	8b 4a f8	 mov	 ecx, DWORD PTR [edx-8]
  00251	33 c8		 xor	 ecx, eax
  00253	e8 00 00 00 00	 call	 @__security_check_cookie@4
  00258	b8 00 00 00 00	 mov	 eax, OFFSET __ehfuncinfo$?Make@CDrawingSymbolFactory@@SAPAVCDrawingSymbol@@W4TOOLTYPE@CSymbolBaseData@@ABW4SIZETYPE@4@ABVCCoordinate@@ABVCSize@@ABKABUtagLOGFONTA@@4@Z
  0025d	e9 00 00 00 00	 jmp	 ___CxxFrameHandler3
text$x	ENDS
?Make@CDrawingSymbolFactory@@SAPAVCDrawingSymbol@@W4TOOLTYPE@CSymbolBaseData@@ABW4SIZETYPE@4@ABVCCoordinate@@ABVCSize@@ABKABUtagLOGFONTA@@4@Z ENDP ; CDrawingSymbolFactory::Make
; Function compile flags: /Ogtp
; File D:\git\src\IBK\IBK_DRFN\ProjSrc\SrcChartEx\ChartAddIn\ChartAnalysisToolAddIn\Symbol\DrawingSymbolFactory.cpp
;	COMDAT ?Make@CDrawingSymbolFactory@@SAPAVCDrawingSymbol@@W4TOOLTYPE@CSymbolBaseData@@ABVCCoordinate@@1ABKABH3AB_NABUtagLOGFONTA@@_N@Z
_TEXT	SEGMENT
__$EHRec$ = -12						; size = 12
$T2 = 8							; size = 4
$T3 = 8							; size = 4
$T4 = 8							; size = 4
_SymbolType$ = 8					; size = 4
_startPt$ = 12						; size = 4
_EndPt$ = 16						; size = 4
_color$ = 20						; size = 4
_nLineStyle$ = 24					; size = 4
_nLineWeight$ = 28					; size = 4
_bFill$ = 32						; size = 4
_logfont$ = 36						; size = 4
_bDrawFromTop$ = 40					; size = 1
?Make@CDrawingSymbolFactory@@SAPAVCDrawingSymbol@@W4TOOLTYPE@CSymbolBaseData@@ABVCCoordinate@@1ABKABH3AB_NABUtagLOGFONTA@@_N@Z PROC ; CDrawingSymbolFactory::Make, COMDAT

; 128  : {

  00000	55		 push	 ebp
  00001	8b ec		 mov	 ebp, esp
  00003	6a ff		 push	 -1
  00005	68 00 00 00 00	 push	 __ehhandler$?Make@CDrawingSymbolFactory@@SAPAVCDrawingSymbol@@W4TOOLTYPE@CSymbolBaseData@@ABVCCoordinate@@1ABKABH3AB_NABUtagLOGFONTA@@_N@Z
  0000a	64 a1 00 00 00
	00		 mov	 eax, DWORD PTR fs:0
  00010	50		 push	 eax
  00011	a1 00 00 00 00	 mov	 eax, DWORD PTR ___security_cookie
  00016	33 c5		 xor	 eax, ebp
  00018	50		 push	 eax
  00019	8d 45 f4	 lea	 eax, DWORD PTR __$EHRec$[ebp]
  0001c	64 a3 00 00 00
	00		 mov	 DWORD PTR fs:0, eax

; 129  : 	switch(SymbolType){

  00022	8b 45 08	 mov	 eax, DWORD PTR _SymbolType$[ebp]
  00025	83 e8 01	 sub	 eax, 1
  00028	0f 84 a8 00 00
	00		 je	 $LN4@Make
  0002e	83 e8 01	 sub	 eax, 1
  00031	74 58		 je	 SHORT $LN5@Make
  00033	83 e8 01	 sub	 eax, 1
  00036	0f 85 e5 00 00
	00		 jne	 $LN9@Make

; 134  : 		case CSymbolBaseData::SYMBOL_TRIANGLE:	// 삼각형
; 135  : 			return new CFigure_Triangle(SymbolType, startPt, EndPt, color,nLineStyle,nLineWeight,bFill, logfont, bDrawFromTop);

  0003c	68 d8 00 00 00	 push	 216			; 000000d8H
  00041	e8 00 00 00 00	 call	 ??2@YAPAXI@Z		; operator new
  00046	83 c4 04	 add	 esp, 4
  00049	89 45 08	 mov	 DWORD PTR $T2[ebp], eax
  0004c	c7 45 fc 02 00
	00 00		 mov	 DWORD PTR __$EHRec$[ebp+8], 2
  00053	85 c0		 test	 eax, eax
  00055	0f 84 c6 00 00
	00		 je	 $LN9@Make
  0005b	ff 75 28	 push	 DWORD PTR _bDrawFromTop$[ebp]
  0005e	8b c8		 mov	 ecx, eax
  00060	ff 75 24	 push	 DWORD PTR _logfont$[ebp]
  00063	ff 75 20	 push	 DWORD PTR _bFill$[ebp]
  00066	ff 75 1c	 push	 DWORD PTR _nLineWeight$[ebp]
  00069	ff 75 18	 push	 DWORD PTR _nLineStyle$[ebp]
  0006c	ff 75 14	 push	 DWORD PTR _color$[ebp]
  0006f	ff 75 10	 push	 DWORD PTR _EndPt$[ebp]
  00072	ff 75 0c	 push	 DWORD PTR _startPt$[ebp]
  00075	6a 03		 push	 3
  00077	e8 00 00 00 00	 call	 ??0CFigure_Triangle@@QAE@W4TOOLTYPE@CSymbolBaseData@@ABVCCoordinate@@1ABKABH3AB_NABUtagLOGFONTA@@_N@Z ; CFigure_Triangle::CFigure_Triangle

; 136  : 		default:
; 137  : 			return NULL;
; 138  : 	}
; 139  : }

  0007c	8b 4d f4	 mov	 ecx, DWORD PTR __$EHRec$[ebp]
  0007f	64 89 0d 00 00
	00 00		 mov	 DWORD PTR fs:0, ecx
  00086	59		 pop	 ecx
  00087	8b e5		 mov	 esp, ebp
  00089	5d		 pop	 ebp
  0008a	c3		 ret	 0
$LN5@Make:

; 132  : 		case CSymbolBaseData::SYMBOL_CIRCLE:	// 원도형
; 133  : 			return new CFigure_Circle(SymbolType, startPt, EndPt, color,nLineStyle,nLineWeight,bFill, logfont, bDrawFromTop);

  0008b	68 d8 00 00 00	 push	 216			; 000000d8H
  00090	e8 00 00 00 00	 call	 ??2@YAPAXI@Z		; operator new
  00095	83 c4 04	 add	 esp, 4
  00098	89 45 08	 mov	 DWORD PTR $T3[ebp], eax
  0009b	c7 45 fc 01 00
	00 00		 mov	 DWORD PTR __$EHRec$[ebp+8], 1
  000a2	85 c0		 test	 eax, eax
  000a4	74 7b		 je	 SHORT $LN9@Make
  000a6	ff 75 28	 push	 DWORD PTR _bDrawFromTop$[ebp]
  000a9	8b c8		 mov	 ecx, eax
  000ab	ff 75 24	 push	 DWORD PTR _logfont$[ebp]
  000ae	ff 75 20	 push	 DWORD PTR _bFill$[ebp]
  000b1	ff 75 1c	 push	 DWORD PTR _nLineWeight$[ebp]
  000b4	ff 75 18	 push	 DWORD PTR _nLineStyle$[ebp]
  000b7	ff 75 14	 push	 DWORD PTR _color$[ebp]
  000ba	ff 75 10	 push	 DWORD PTR _EndPt$[ebp]
  000bd	ff 75 0c	 push	 DWORD PTR _startPt$[ebp]
  000c0	6a 02		 push	 2
  000c2	e8 00 00 00 00	 call	 ??0CFigure_Circle@@QAE@W4TOOLTYPE@CSymbolBaseData@@ABVCCoordinate@@1ABKABH3AB_NABUtagLOGFONTA@@_N@Z ; CFigure_Circle::CFigure_Circle

; 136  : 		default:
; 137  : 			return NULL;
; 138  : 	}
; 139  : }

  000c7	8b 4d f4	 mov	 ecx, DWORD PTR __$EHRec$[ebp]
  000ca	64 89 0d 00 00
	00 00		 mov	 DWORD PTR fs:0, ecx
  000d1	59		 pop	 ecx
  000d2	8b e5		 mov	 esp, ebp
  000d4	5d		 pop	 ebp
  000d5	c3		 ret	 0
$LN4@Make:

; 130  : 		case CSymbolBaseData::SYMBOL_SQUARE:// 사각도형
; 131  : 			return new CFigure_Square(SymbolType, startPt, EndPt, color,nLineStyle,nLineWeight,bFill, logfont, bDrawFromTop);

  000d6	68 d8 00 00 00	 push	 216			; 000000d8H
  000db	e8 00 00 00 00	 call	 ??2@YAPAXI@Z		; operator new
  000e0	83 c4 04	 add	 esp, 4
  000e3	89 45 08	 mov	 DWORD PTR $T4[ebp], eax
  000e6	c7 45 fc 00 00
	00 00		 mov	 DWORD PTR __$EHRec$[ebp+8], 0
  000ed	85 c0		 test	 eax, eax
  000ef	74 30		 je	 SHORT $LN9@Make
  000f1	ff 75 28	 push	 DWORD PTR _bDrawFromTop$[ebp]
  000f4	8b c8		 mov	 ecx, eax
  000f6	ff 75 24	 push	 DWORD PTR _logfont$[ebp]
  000f9	ff 75 20	 push	 DWORD PTR _bFill$[ebp]
  000fc	ff 75 1c	 push	 DWORD PTR _nLineWeight$[ebp]
  000ff	ff 75 18	 push	 DWORD PTR _nLineStyle$[ebp]
  00102	ff 75 14	 push	 DWORD PTR _color$[ebp]
  00105	ff 75 10	 push	 DWORD PTR _EndPt$[ebp]
  00108	ff 75 0c	 push	 DWORD PTR _startPt$[ebp]
  0010b	6a 01		 push	 1
  0010d	e8 00 00 00 00	 call	 ??0CFigure_Square@@QAE@W4TOOLTYPE@CSymbolBaseData@@ABVCCoordinate@@1ABKABH3AB_NABUtagLOGFONTA@@_N@Z ; CFigure_Square::CFigure_Square

; 136  : 		default:
; 137  : 			return NULL;
; 138  : 	}
; 139  : }

  00112	8b 4d f4	 mov	 ecx, DWORD PTR __$EHRec$[ebp]
  00115	64 89 0d 00 00
	00 00		 mov	 DWORD PTR fs:0, ecx
  0011c	59		 pop	 ecx
  0011d	8b e5		 mov	 esp, ebp
  0011f	5d		 pop	 ebp
  00120	c3		 ret	 0
$LN9@Make:
  00121	33 c0		 xor	 eax, eax
  00123	8b 4d f4	 mov	 ecx, DWORD PTR __$EHRec$[ebp]
  00126	64 89 0d 00 00
	00 00		 mov	 DWORD PTR fs:0, ecx
  0012d	59		 pop	 ecx
  0012e	8b e5		 mov	 esp, ebp
  00130	5d		 pop	 ebp
  00131	c3		 ret	 0
_TEXT	ENDS
;	COMDAT text$x
text$x	SEGMENT
__unwindfunclet$?Make@CDrawingSymbolFactory@@SAPAVCDrawingSymbol@@W4TOOLTYPE@CSymbolBaseData@@ABVCCoordinate@@1ABKABH3AB_NABUtagLOGFONTA@@_N@Z$2:
  00000	68 d8 00 00 00	 push	 216			; 000000d8H
  00005	8b 45 08	 mov	 eax, DWORD PTR $T2[ebp]
  00008	50		 push	 eax
  00009	e8 00 00 00 00	 call	 ??3@YAXPAXI@Z		; operator delete
  0000e	83 c4 08	 add	 esp, 8
  00011	c3		 ret	 0
__unwindfunclet$?Make@CDrawingSymbolFactory@@SAPAVCDrawingSymbol@@W4TOOLTYPE@CSymbolBaseData@@ABVCCoordinate@@1ABKABH3AB_NABUtagLOGFONTA@@_N@Z$1:
  00012	68 d8 00 00 00	 push	 216			; 000000d8H
  00017	8b 45 08	 mov	 eax, DWORD PTR $T3[ebp]
  0001a	50		 push	 eax
  0001b	e8 00 00 00 00	 call	 ??3@YAXPAXI@Z		; operator delete
  00020	83 c4 08	 add	 esp, 8
  00023	c3		 ret	 0
__unwindfunclet$?Make@CDrawingSymbolFactory@@SAPAVCDrawingSymbol@@W4TOOLTYPE@CSymbolBaseData@@ABVCCoordinate@@1ABKABH3AB_NABUtagLOGFONTA@@_N@Z$0:
  00024	68 d8 00 00 00	 push	 216			; 000000d8H
  00029	8b 45 08	 mov	 eax, DWORD PTR $T4[ebp]
  0002c	50		 push	 eax
  0002d	e8 00 00 00 00	 call	 ??3@YAXPAXI@Z		; operator delete
  00032	83 c4 08	 add	 esp, 8
  00035	c3		 ret	 0
  00036	cc		 int	 3
  00037	cc		 int	 3
  00038	cc		 int	 3
  00039	cc		 int	 3
  0003a	cc		 int	 3
__ehhandler$?Make@CDrawingSymbolFactory@@SAPAVCDrawingSymbol@@W4TOOLTYPE@CSymbolBaseData@@ABVCCoordinate@@1ABKABH3AB_NABUtagLOGFONTA@@_N@Z:
  0003b	90		 npad	 1
  0003c	90		 npad	 1
  0003d	8b 54 24 08	 mov	 edx, DWORD PTR [esp+8]
  00041	8d 42 0c	 lea	 eax, DWORD PTR [edx+12]
  00044	8b 4a fc	 mov	 ecx, DWORD PTR [edx-4]
  00047	33 c8		 xor	 ecx, eax
  00049	e8 00 00 00 00	 call	 @__security_check_cookie@4
  0004e	b8 00 00 00 00	 mov	 eax, OFFSET __ehfuncinfo$?Make@CDrawingSymbolFactory@@SAPAVCDrawingSymbol@@W4TOOLTYPE@CSymbolBaseData@@ABVCCoordinate@@1ABKABH3AB_NABUtagLOGFONTA@@_N@Z
  00053	e9 00 00 00 00	 jmp	 ___CxxFrameHandler3
text$x	ENDS
?Make@CDrawingSymbolFactory@@SAPAVCDrawingSymbol@@W4TOOLTYPE@CSymbolBaseData@@ABVCCoordinate@@1ABKABH3AB_NABUtagLOGFONTA@@_N@Z ENDP ; CDrawingSymbolFactory::Make
; Function compile flags: /Ogtp
; File D:\git\src\IBK\IBK_DRFN\ProjSrc\SrcChartEx\ChartAddIn\ChartAnalysisToolAddIn\Symbol\DrawingSymbolFactory.cpp
;	COMDAT ?Copy@CDrawingSymbolFactory@@SAPAVCDrawingSymbol@@PAV2@@Z
_TEXT	SEGMENT
_EndPt$ = -168						; size = 24
$T2 = -144						; size = 4
_nLineStyle$ = -140					; size = 4
_nLineWeight$ = -136					; size = 4
$T3 = -132						; size = 4
$T4 = -132						; size = 4
$T5 = -132						; size = 4
$T6 = -132						; size = 4
_startPt$ = -128					; size = 24
_bFill$ = -101						; size = 1
_SymbolSize$ = -100					; size = 8
_textColor$ = -92					; size = 4
$T7 = -88						; size = 4
$T8 = -88						; size = 4
$T9 = -88						; size = 4
$T10 = -88						; size = 4
$T11 = -88						; size = 4
$T12 = -88						; size = 4
$T13 = -88						; size = 4
$T14 = -88						; size = 4
$T15 = -88						; size = 4
$T16 = -88						; size = 4
$T17 = -88						; size = 4
$T18 = -88						; size = 4
$T19 = -88						; size = 4
$T20 = -88						; size = 4
$T21 = -88						; size = 4
$T22 = -88						; size = 4
$T23 = -88						; size = 4
$T24 = -88						; size = 4
$T25 = -88						; size = 4
$T26 = -88						; size = 4
$T27 = -88						; size = 4
$T28 = -88						; size = 4
$T29 = -88						; size = 4
$T30 = -88						; size = 4
$T31 = -88						; size = 4
$T32 = -88						; size = 4
$T33 = -88						; size = 4
$T34 = -88						; size = 4
$T35 = -88						; size = 4
$T36 = -88						; size = 4
$T37 = -88						; size = 4
$T38 = -88						; size = 4
_sizetype$ = -84					; size = 4
_color$ = -80						; size = 4
_logfont$ = -76						; size = 60
__$ArrayPad$ = -16					; size = 4
__$EHRec$ = -12						; size = 12
_pDrawingSymbol$ = 8					; size = 4
?Copy@CDrawingSymbolFactory@@SAPAVCDrawingSymbol@@PAV2@@Z PROC ; CDrawingSymbolFactory::Copy, COMDAT

; 21   : {

  00000	55		 push	 ebp
  00001	8b ec		 mov	 ebp, esp
  00003	6a ff		 push	 -1
  00005	68 00 00 00 00	 push	 __ehhandler$?Copy@CDrawingSymbolFactory@@SAPAVCDrawingSymbol@@PAV2@@Z
  0000a	64 a1 00 00 00
	00		 mov	 eax, DWORD PTR fs:0
  00010	50		 push	 eax
  00011	81 ec 9c 00 00
	00		 sub	 esp, 156		; 0000009cH
  00017	a1 00 00 00 00	 mov	 eax, DWORD PTR ___security_cookie
  0001c	33 c5		 xor	 eax, ebp
  0001e	89 45 f0	 mov	 DWORD PTR __$ArrayPad$[ebp], eax
  00021	53		 push	 ebx
  00022	56		 push	 esi
  00023	57		 push	 edi
  00024	50		 push	 eax
  00025	8d 45 f4	 lea	 eax, DWORD PTR __$EHRec$[ebp]
  00028	64 a3 00 00 00
	00		 mov	 DWORD PTR fs:0, eax
  0002e	8b 5d 08	 mov	 ebx, DWORD PTR _pDrawingSymbol$[ebp]

; 22   : 	CSymbolBaseData::TOOLTYPE SymbolType = pDrawingSymbol->GetSymbolType();

  00031	8b cb		 mov	 ecx, ebx
  00033	c7 85 70 ff ff
	ff 00 00 00 00	 mov	 DWORD PTR $T2[ebp], 0
  0003d	e8 00 00 00 00	 call	 ?GetSymbolType@CDrawingSymbol@@QAE?AW4TOOLTYPE@CSymbolBaseData@@XZ ; CDrawingSymbol::GetSymbolType

; 23   : 	CSymbolBaseData::SIZETYPE sizetype = pDrawingSymbol->GetSizeType();

  00042	8b cb		 mov	 ecx, ebx
  00044	8b f0		 mov	 esi, eax
  00046	e8 00 00 00 00	 call	 ?GetSizeType@CDrawingSymbol@@QBE?AW4SIZETYPE@CSymbolBaseData@@XZ ; CDrawingSymbol::GetSizeType

; 24   : 
; 25   : 	COLORREF color = pDrawingSymbol->GetColor();

  0004b	8b cb		 mov	 ecx, ebx
  0004d	89 45 ac	 mov	 DWORD PTR _sizetype$[ebp], eax
  00050	e8 00 00 00 00	 call	 ?GetColor@CDrawingSymbol@@QBEKXZ ; CDrawingSymbol::GetColor

; 26   : 	int nLineStyle = pDrawingSymbol->GetStyle();

  00055	8b cb		 mov	 ecx, ebx
  00057	89 45 b0	 mov	 DWORD PTR _color$[ebp], eax
  0005a	e8 00 00 00 00	 call	 ?GetStyle@CDrawingSymbol@@QBEHXZ ; CDrawingSymbol::GetStyle

; 27   : 	int nLineWeight = pDrawingSymbol->GetWeight();

  0005f	8b cb		 mov	 ecx, ebx
  00061	89 85 74 ff ff
	ff		 mov	 DWORD PTR _nLineStyle$[ebp], eax
  00067	e8 00 00 00 00	 call	 ?GetWeight@CDrawingSymbol@@QBEHXZ ; CDrawingSymbol::GetWeight

; 28   : 	bool bFill = pDrawingSymbol->GetFillState();

  0006c	8b cb		 mov	 ecx, ebx
  0006e	89 85 78 ff ff
	ff		 mov	 DWORD PTR _nLineWeight$[ebp], eax
  00074	e8 00 00 00 00	 call	 ?GetFillState@CDrawingSymbol@@QAE_NXZ ; CDrawingSymbol::GetFillState
  00079	88 45 9b	 mov	 BYTE PTR _bFill$[ebp], al

; 29   : 	LOGFONT logfont = pDrawingSymbol->GetLogFont(); 

  0007c	8b cb		 mov	 ecx, ebx
  0007e	8d 45 b4	 lea	 eax, DWORD PTR _logfont$[ebp]
  00081	50		 push	 eax
  00082	e8 00 00 00 00	 call	 ?GetLogFont@CDrawingSymbol@@QAE?AUtagLOGFONTA@@XZ ; CDrawingSymbol::GetLogFont

; 30   : 	bool bDrawFromTop = true;
; 31   : 	CSize SymbolSize = pDrawingSymbol->GetSymbolSize();

  00087	8b 03		 mov	 eax, DWORD PTR [ebx]
  00089	8d 4d 9c	 lea	 ecx, DWORD PTR _SymbolSize$[ebp]
  0008c	51		 push	 ecx
  0008d	8b cb		 mov	 ecx, ebx
  0008f	ff 50 30	 call	 DWORD PTR [eax+48]

; 32   : 	COLORREF textColor = pDrawingSymbol->GetTextColor();

  00092	8b cb		 mov	 ecx, ebx
  00094	e8 00 00 00 00	 call	 ?GetTextColor@CDrawingSymbol@@QBEKXZ ; CDrawingSymbol::GetTextColor
  00099	89 45 a4	 mov	 DWORD PTR _textColor$[ebp], eax

; 33   : 
; 34   : 	CCoordinate startPt = pDrawingSymbol->GetStartPoint();

  0009c	8d 4d 80	 lea	 ecx, DWORD PTR _startPt$[ebp]
  0009f	8b 03		 mov	 eax, DWORD PTR [ebx]
  000a1	51		 push	 ecx
  000a2	8b cb		 mov	 ecx, ebx
  000a4	ff 50 20	 call	 DWORD PTR [eax+32]

; 35   : 	CCoordinate EndPt = pDrawingSymbol->GetEndPoint();

  000a7	8b 03		 mov	 eax, DWORD PTR [ebx]
  000a9	8d 8d 58 ff ff
	ff		 lea	 ecx, DWORD PTR _EndPt$[ebp]
  000af	51		 push	 ecx
  000b0	8b cb		 mov	 ecx, ebx
  000b2	ff 50 24	 call	 DWORD PTR [eax+36]

; 36   : 	
; 37   : 	switch(SymbolType)

  000b5	8d 46 ff	 lea	 eax, DWORD PTR [esi-1]
  000b8	83 f8 25	 cmp	 eax, 37			; 00000025H
  000bb	0f 87 7b 09 00
	00		 ja	 $LN39@Copy
  000c1	ff 24 85 00 00
	00 00		 jmp	 DWORD PTR $LN149@Copy[eax*4]
$LN4@Copy:

; 38   : 	{
; 39   : 		case CSymbolBaseData::SYMBOL_SQUARE:// 사각도형
; 40   : 			return new CFigure_Square(SymbolType, startPt, EndPt, color,nLineStyle,nLineWeight,bFill, logfont, bDrawFromTop);

  000c8	68 d8 00 00 00	 push	 216			; 000000d8H
  000cd	e8 00 00 00 00	 call	 ??2@YAPAXI@Z		; operator new
  000d2	83 c4 04	 add	 esp, 4
  000d5	89 85 7c ff ff
	ff		 mov	 DWORD PTR $T6[ebp], eax
  000db	c7 45 fc 00 00
	00 00		 mov	 DWORD PTR __$EHRec$[ebp+8], 0
  000e2	85 c0		 test	 eax, eax
  000e4	0f 84 52 09 00
	00		 je	 $LN39@Copy
  000ea	6a 01		 push	 1
  000ec	8d 4d b4	 lea	 ecx, DWORD PTR _logfont$[ebp]
  000ef	51		 push	 ecx
  000f0	8d 4d 9b	 lea	 ecx, DWORD PTR _bFill$[ebp]
  000f3	51		 push	 ecx
  000f4	8d 8d 78 ff ff
	ff		 lea	 ecx, DWORD PTR _nLineWeight$[ebp]
  000fa	51		 push	 ecx
  000fb	8d 8d 74 ff ff
	ff		 lea	 ecx, DWORD PTR _nLineStyle$[ebp]
  00101	51		 push	 ecx
  00102	8d 4d b0	 lea	 ecx, DWORD PTR _color$[ebp]
  00105	51		 push	 ecx
  00106	8d 8d 58 ff ff
	ff		 lea	 ecx, DWORD PTR _EndPt$[ebp]
  0010c	51		 push	 ecx
  0010d	8d 4d 80	 lea	 ecx, DWORD PTR _startPt$[ebp]
  00110	51		 push	 ecx
  00111	56		 push	 esi
  00112	8b c8		 mov	 ecx, eax
  00114	e8 00 00 00 00	 call	 ??0CFigure_Square@@QAE@W4TOOLTYPE@CSymbolBaseData@@ABVCCoordinate@@1ABKABH3AB_NABUtagLOGFONTA@@_N@Z ; CFigure_Square::CFigure_Square
  00119	e9 20 09 00 00	 jmp	 $LN1@Copy
$LN5@Copy:

; 41   : 		case CSymbolBaseData::SYMBOL_CIRCLE:	// 원도형
; 42   : 			return new CFigure_Circle(SymbolType, startPt, EndPt, color,nLineStyle,nLineWeight,bFill, logfont, bDrawFromTop);

  0011e	68 d8 00 00 00	 push	 216			; 000000d8H
  00123	e8 00 00 00 00	 call	 ??2@YAPAXI@Z		; operator new
  00128	83 c4 04	 add	 esp, 4
  0012b	89 85 7c ff ff
	ff		 mov	 DWORD PTR $T5[ebp], eax
  00131	c7 45 fc 01 00
	00 00		 mov	 DWORD PTR __$EHRec$[ebp+8], 1
  00138	85 c0		 test	 eax, eax
  0013a	0f 84 fc 08 00
	00		 je	 $LN39@Copy
  00140	6a 01		 push	 1
  00142	8d 4d b4	 lea	 ecx, DWORD PTR _logfont$[ebp]
  00145	51		 push	 ecx
  00146	8d 4d 9b	 lea	 ecx, DWORD PTR _bFill$[ebp]
  00149	51		 push	 ecx
  0014a	8d 8d 78 ff ff
	ff		 lea	 ecx, DWORD PTR _nLineWeight$[ebp]
  00150	51		 push	 ecx
  00151	8d 8d 74 ff ff
	ff		 lea	 ecx, DWORD PTR _nLineStyle$[ebp]
  00157	51		 push	 ecx
  00158	8d 4d b0	 lea	 ecx, DWORD PTR _color$[ebp]
  0015b	51		 push	 ecx
  0015c	8d 8d 58 ff ff
	ff		 lea	 ecx, DWORD PTR _EndPt$[ebp]
  00162	51		 push	 ecx
  00163	8d 4d 80	 lea	 ecx, DWORD PTR _startPt$[ebp]
  00166	51		 push	 ecx
  00167	56		 push	 esi
  00168	8b c8		 mov	 ecx, eax
  0016a	e8 00 00 00 00	 call	 ??0CFigure_Circle@@QAE@W4TOOLTYPE@CSymbolBaseData@@ABVCCoordinate@@1ABKABH3AB_NABUtagLOGFONTA@@_N@Z ; CFigure_Circle::CFigure_Circle
  0016f	e9 ca 08 00 00	 jmp	 $LN1@Copy
$LN6@Copy:

; 43   : 		case CSymbolBaseData::SYMBOL_TRIANGLE:	// 삼각형
; 44   : 			return new CFigure_Triangle(SymbolType, startPt, EndPt, color,nLineStyle,nLineWeight,bFill, logfont, bDrawFromTop);

  00174	68 d8 00 00 00	 push	 216			; 000000d8H
  00179	e8 00 00 00 00	 call	 ??2@YAPAXI@Z		; operator new
  0017e	83 c4 04	 add	 esp, 4
  00181	89 85 7c ff ff
	ff		 mov	 DWORD PTR $T4[ebp], eax
  00187	c7 45 fc 02 00
	00 00		 mov	 DWORD PTR __$EHRec$[ebp+8], 2
  0018e	85 c0		 test	 eax, eax
  00190	0f 84 a6 08 00
	00		 je	 $LN39@Copy
  00196	6a 01		 push	 1
  00198	8d 4d b4	 lea	 ecx, DWORD PTR _logfont$[ebp]
  0019b	51		 push	 ecx
  0019c	8d 4d 9b	 lea	 ecx, DWORD PTR _bFill$[ebp]
  0019f	51		 push	 ecx
  001a0	8d 8d 78 ff ff
	ff		 lea	 ecx, DWORD PTR _nLineWeight$[ebp]
  001a6	51		 push	 ecx
  001a7	8d 8d 74 ff ff
	ff		 lea	 ecx, DWORD PTR _nLineStyle$[ebp]
  001ad	51		 push	 ecx
  001ae	8d 4d b0	 lea	 ecx, DWORD PTR _color$[ebp]
  001b1	51		 push	 ecx
  001b2	8d 8d 58 ff ff
	ff		 lea	 ecx, DWORD PTR _EndPt$[ebp]
  001b8	51		 push	 ecx
  001b9	8d 4d 80	 lea	 ecx, DWORD PTR _startPt$[ebp]
  001bc	51		 push	 ecx
  001bd	56		 push	 esi
  001be	8b c8		 mov	 ecx, eax
  001c0	e8 00 00 00 00	 call	 ??0CFigure_Triangle@@QAE@W4TOOLTYPE@CSymbolBaseData@@ABVCCoordinate@@1ABKABH3AB_NABUtagLOGFONTA@@_N@Z ; CFigure_Triangle::CFigure_Triangle
  001c5	e9 74 08 00 00	 jmp	 $LN1@Copy
$LN7@Copy:

; 45   : 		///////////////////////////////////////////////////////////////////////////////////////////////////////////////////////
; 46   : 		case CSymbolBaseData::SYMBOL_TEXT:// Text
; 47   : 			return new CText(SymbolType, sizetype, startPt, SymbolSize, color, logfont, textColor,pDrawingSymbol->GetText());

  001ca	68 e0 00 00 00	 push	 224			; 000000e0H
  001cf	e8 00 00 00 00	 call	 ??2@YAPAXI@Z		; operator new
  001d4	8b f8		 mov	 edi, eax
  001d6	83 c4 04	 add	 esp, 4
  001d9	89 7d a8	 mov	 DWORD PTR $T38[ebp], edi
  001dc	c7 45 fc 03 00
	00 00		 mov	 DWORD PTR __$EHRec$[ebp+8], 3
  001e3	85 ff		 test	 edi, edi
  001e5	74 42		 je	 SHORT $LN47@Copy
  001e7	8b 13		 mov	 edx, DWORD PTR [ebx]
  001e9	8d 85 7c ff ff
	ff		 lea	 eax, DWORD PTR $T3[ebp]
  001ef	50		 push	 eax
  001f0	8b cb		 mov	 ecx, ebx
  001f2	ff 52 1c	 call	 DWORD PTR [edx+28]
  001f5	50		 push	 eax
  001f6	8d 45 a4	 lea	 eax, DWORD PTR _textColor$[ebp]
  001f9	c6 45 fc 04	 mov	 BYTE PTR __$EHRec$[ebp+8], 4
  001fd	50		 push	 eax
  001fe	8d 45 b4	 lea	 eax, DWORD PTR _logfont$[ebp]
  00201	bb 01 00 00 00	 mov	 ebx, 1
  00206	50		 push	 eax
  00207	8d 45 b0	 lea	 eax, DWORD PTR _color$[ebp]
  0020a	89 9d 70 ff ff
	ff		 mov	 DWORD PTR $T2[ebp], ebx
  00210	50		 push	 eax
  00211	8d 45 9c	 lea	 eax, DWORD PTR _SymbolSize$[ebp]
  00214	8b cf		 mov	 ecx, edi
  00216	50		 push	 eax
  00217	8d 45 80	 lea	 eax, DWORD PTR _startPt$[ebp]
  0021a	50		 push	 eax
  0021b	8d 45 ac	 lea	 eax, DWORD PTR _sizetype$[ebp]
  0021e	50		 push	 eax
  0021f	56		 push	 esi
  00220	e8 00 00 00 00	 call	 ??0CText@@QAE@W4TOOLTYPE@CSymbolBaseData@@ABW4SIZETYPE@2@ABVCCoordinate@@ABVCSize@@ABKABUtagLOGFONTA@@4ABV?$CStringT@DV?$StrTraitMFC_DLL@DV?$ChTraitsCRT@D@ATL@@@@@ATL@@@Z ; CText::CText
  00225	8b f0		 mov	 esi, eax
  00227	eb 08		 jmp	 SHORT $LN48@Copy
$LN47@Copy:
  00229	8b 9d 70 ff ff
	ff		 mov	 ebx, DWORD PTR $T2[ebp]
  0022f	33 f6		 xor	 esi, esi
$LN48@Copy:
  00231	f6 c3 01	 test	 bl, 1
  00234	74 0c		 je	 SHORT $LN117@Copy
  00236	8d 8d 7c ff ff
	ff		 lea	 ecx, DWORD PTR $T3[ebp]
  0023c	ff 15 00 00 00
	00		 call	 DWORD PTR __imp_??1?$CStringT@DV?$StrTraitMFC_DLL@DV?$ChTraitsCRT@D@ATL@@@@@ATL@@QAE@XZ
$LN117@Copy:
  00242	8b c6		 mov	 eax, esi
  00244	e9 f5 07 00 00	 jmp	 $LN1@Copy
$LN8@Copy:

; 48   : 		case CSymbolBaseData::SYMBOL_ARROW_LEFT:	// 왼쪽 화살표
; 49   : 			return new CArrow_Left(SymbolType, sizetype, startPt, SymbolSize, color, logfont);

  00249	68 c0 00 00 00	 push	 192			; 000000c0H
  0024e	e8 00 00 00 00	 call	 ??2@YAPAXI@Z		; operator new
  00253	83 c4 04	 add	 esp, 4
  00256	89 45 a8	 mov	 DWORD PTR $T37[ebp], eax
  00259	c7 45 fc 06 00
	00 00		 mov	 DWORD PTR __$EHRec$[ebp+8], 6
  00260	85 c0		 test	 eax, eax
  00262	0f 84 d4 07 00
	00		 je	 $LN39@Copy
  00268	8d 4d b4	 lea	 ecx, DWORD PTR _logfont$[ebp]
  0026b	51		 push	 ecx
  0026c	8d 4d b0	 lea	 ecx, DWORD PTR _color$[ebp]
  0026f	51		 push	 ecx
  00270	8d 4d 9c	 lea	 ecx, DWORD PTR _SymbolSize$[ebp]
  00273	51		 push	 ecx
  00274	8d 4d 80	 lea	 ecx, DWORD PTR _startPt$[ebp]
  00277	51		 push	 ecx
  00278	8d 4d ac	 lea	 ecx, DWORD PTR _sizetype$[ebp]
  0027b	51		 push	 ecx
  0027c	56		 push	 esi
  0027d	8b c8		 mov	 ecx, eax
  0027f	e8 00 00 00 00	 call	 ??0CArrow_Left@@QAE@W4TOOLTYPE@CSymbolBaseData@@ABW4SIZETYPE@2@ABVCCoordinate@@ABVCSize@@ABKABUtagLOGFONTA@@@Z ; CArrow_Left::CArrow_Left
  00284	e9 b5 07 00 00	 jmp	 $LN1@Copy
$LN9@Copy:

; 50   : 		case CSymbolBaseData::SYMBOL_ARROW_RIGHT:	// 오른쪽 화살표
; 51   : 			return new CArrow_Right(SymbolType, sizetype, startPt, SymbolSize, color, logfont);

  00289	68 c0 00 00 00	 push	 192			; 000000c0H
  0028e	e8 00 00 00 00	 call	 ??2@YAPAXI@Z		; operator new
  00293	83 c4 04	 add	 esp, 4
  00296	89 45 a8	 mov	 DWORD PTR $T36[ebp], eax
  00299	c7 45 fc 07 00
	00 00		 mov	 DWORD PTR __$EHRec$[ebp+8], 7
  002a0	85 c0		 test	 eax, eax
  002a2	0f 84 94 07 00
	00		 je	 $LN39@Copy
  002a8	8d 4d b4	 lea	 ecx, DWORD PTR _logfont$[ebp]
  002ab	51		 push	 ecx
  002ac	8d 4d b0	 lea	 ecx, DWORD PTR _color$[ebp]
  002af	51		 push	 ecx
  002b0	8d 4d 9c	 lea	 ecx, DWORD PTR _SymbolSize$[ebp]
  002b3	51		 push	 ecx
  002b4	8d 4d 80	 lea	 ecx, DWORD PTR _startPt$[ebp]
  002b7	51		 push	 ecx
  002b8	8d 4d ac	 lea	 ecx, DWORD PTR _sizetype$[ebp]
  002bb	51		 push	 ecx
  002bc	56		 push	 esi
  002bd	8b c8		 mov	 ecx, eax
  002bf	e8 00 00 00 00	 call	 ??0CArrow_Right@@QAE@W4TOOLTYPE@CSymbolBaseData@@ABW4SIZETYPE@2@ABVCCoordinate@@ABVCSize@@ABKABUtagLOGFONTA@@@Z ; CArrow_Right::CArrow_Right
  002c4	e9 75 07 00 00	 jmp	 $LN1@Copy
$LN10@Copy:

; 52   : 		case CSymbolBaseData::SYMBOL_ARROW_UP: //위쪽 화살표
; 53   : 			return new CArrow_Up(SymbolType, sizetype, startPt, SymbolSize, color, logfont);

  002c9	68 c0 00 00 00	 push	 192			; 000000c0H
  002ce	e8 00 00 00 00	 call	 ??2@YAPAXI@Z		; operator new
  002d3	83 c4 04	 add	 esp, 4
  002d6	89 45 a8	 mov	 DWORD PTR $T35[ebp], eax
  002d9	c7 45 fc 08 00
	00 00		 mov	 DWORD PTR __$EHRec$[ebp+8], 8
  002e0	85 c0		 test	 eax, eax
  002e2	0f 84 54 07 00
	00		 je	 $LN39@Copy
  002e8	8d 4d b4	 lea	 ecx, DWORD PTR _logfont$[ebp]
  002eb	51		 push	 ecx
  002ec	8d 4d b0	 lea	 ecx, DWORD PTR _color$[ebp]
  002ef	51		 push	 ecx
  002f0	8d 4d 9c	 lea	 ecx, DWORD PTR _SymbolSize$[ebp]
  002f3	51		 push	 ecx
  002f4	8d 4d 80	 lea	 ecx, DWORD PTR _startPt$[ebp]
  002f7	51		 push	 ecx
  002f8	8d 4d ac	 lea	 ecx, DWORD PTR _sizetype$[ebp]
  002fb	51		 push	 ecx
  002fc	56		 push	 esi
  002fd	8b c8		 mov	 ecx, eax
  002ff	e8 00 00 00 00	 call	 ??0CArrow_Up@@QAE@W4TOOLTYPE@CSymbolBaseData@@ABW4SIZETYPE@2@ABVCCoordinate@@ABVCSize@@ABKABUtagLOGFONTA@@@Z ; CArrow_Up::CArrow_Up
  00304	e9 35 07 00 00	 jmp	 $LN1@Copy
$LN11@Copy:

; 54   : 		case CSymbolBaseData::SYMBOL_ARROW_DOWN:  //아래쪽 화살표
; 55   : 			return new CArrow_Down(SymbolType, sizetype, startPt, SymbolSize, color, logfont);

  00309	68 c0 00 00 00	 push	 192			; 000000c0H
  0030e	e8 00 00 00 00	 call	 ??2@YAPAXI@Z		; operator new
  00313	83 c4 04	 add	 esp, 4
  00316	89 45 a8	 mov	 DWORD PTR $T34[ebp], eax
  00319	c7 45 fc 09 00
	00 00		 mov	 DWORD PTR __$EHRec$[ebp+8], 9
  00320	85 c0		 test	 eax, eax
  00322	0f 84 14 07 00
	00		 je	 $LN39@Copy
  00328	8d 4d b4	 lea	 ecx, DWORD PTR _logfont$[ebp]
  0032b	51		 push	 ecx
  0032c	8d 4d b0	 lea	 ecx, DWORD PTR _color$[ebp]
  0032f	51		 push	 ecx
  00330	8d 4d 9c	 lea	 ecx, DWORD PTR _SymbolSize$[ebp]
  00333	51		 push	 ecx
  00334	8d 4d 80	 lea	 ecx, DWORD PTR _startPt$[ebp]
  00337	51		 push	 ecx
  00338	8d 4d ac	 lea	 ecx, DWORD PTR _sizetype$[ebp]
  0033b	51		 push	 ecx
  0033c	56		 push	 esi
  0033d	8b c8		 mov	 ecx, eax
  0033f	e8 00 00 00 00	 call	 ??0CArrow_Down@@QAE@W4TOOLTYPE@CSymbolBaseData@@ABW4SIZETYPE@2@ABVCCoordinate@@ABVCSize@@ABKABUtagLOGFONTA@@@Z ; CArrow_Down::CArrow_Down
  00344	e9 f5 06 00 00	 jmp	 $LN1@Copy
$LN12@Copy:

; 56   : 		case CSymbolBaseData::SYMBOL_ARROW_LEFTTOP:  //왼쪽 위 방향 화살표
; 57   : 			return new CArrow_LeftTop(SymbolType, sizetype, startPt, SymbolSize, color, logfont);

  00349	68 c0 00 00 00	 push	 192			; 000000c0H
  0034e	e8 00 00 00 00	 call	 ??2@YAPAXI@Z		; operator new
  00353	83 c4 04	 add	 esp, 4
  00356	89 45 a8	 mov	 DWORD PTR $T33[ebp], eax
  00359	c7 45 fc 0a 00
	00 00		 mov	 DWORD PTR __$EHRec$[ebp+8], 10 ; 0000000aH
  00360	85 c0		 test	 eax, eax
  00362	0f 84 d4 06 00
	00		 je	 $LN39@Copy
  00368	8d 4d b4	 lea	 ecx, DWORD PTR _logfont$[ebp]
  0036b	51		 push	 ecx
  0036c	8d 4d b0	 lea	 ecx, DWORD PTR _color$[ebp]
  0036f	51		 push	 ecx
  00370	8d 4d 9c	 lea	 ecx, DWORD PTR _SymbolSize$[ebp]
  00373	51		 push	 ecx
  00374	8d 4d 80	 lea	 ecx, DWORD PTR _startPt$[ebp]
  00377	51		 push	 ecx
  00378	8d 4d ac	 lea	 ecx, DWORD PTR _sizetype$[ebp]
  0037b	51		 push	 ecx
  0037c	56		 push	 esi
  0037d	8b c8		 mov	 ecx, eax
  0037f	e8 00 00 00 00	 call	 ??0CArrow_LeftTop@@QAE@W4TOOLTYPE@CSymbolBaseData@@ABW4SIZETYPE@2@ABVCCoordinate@@ABVCSize@@ABKABUtagLOGFONTA@@@Z ; CArrow_LeftTop::CArrow_LeftTop
  00384	e9 b5 06 00 00	 jmp	 $LN1@Copy
$LN13@Copy:

; 58   : 		case CSymbolBaseData::SYMBOL_ARROW_LEFTBOTTOM: //왼쪽 아래 방향 화살표
; 59   : 			return new CArrow_LeftBottom(SymbolType, sizetype, startPt, SymbolSize, color, logfont);

  00389	68 c0 00 00 00	 push	 192			; 000000c0H
  0038e	e8 00 00 00 00	 call	 ??2@YAPAXI@Z		; operator new
  00393	83 c4 04	 add	 esp, 4
  00396	89 45 a8	 mov	 DWORD PTR $T32[ebp], eax
  00399	c7 45 fc 0b 00
	00 00		 mov	 DWORD PTR __$EHRec$[ebp+8], 11 ; 0000000bH
  003a0	85 c0		 test	 eax, eax
  003a2	0f 84 94 06 00
	00		 je	 $LN39@Copy
  003a8	8d 4d b4	 lea	 ecx, DWORD PTR _logfont$[ebp]
  003ab	51		 push	 ecx
  003ac	8d 4d b0	 lea	 ecx, DWORD PTR _color$[ebp]
  003af	51		 push	 ecx
  003b0	8d 4d 9c	 lea	 ecx, DWORD PTR _SymbolSize$[ebp]
  003b3	51		 push	 ecx
  003b4	8d 4d 80	 lea	 ecx, DWORD PTR _startPt$[ebp]
  003b7	51		 push	 ecx
  003b8	8d 4d ac	 lea	 ecx, DWORD PTR _sizetype$[ebp]
  003bb	51		 push	 ecx
  003bc	56		 push	 esi
  003bd	8b c8		 mov	 ecx, eax
  003bf	e8 00 00 00 00	 call	 ??0CArrow_LeftBottom@@QAE@W4TOOLTYPE@CSymbolBaseData@@ABW4SIZETYPE@2@ABVCCoordinate@@ABVCSize@@ABKABUtagLOGFONTA@@@Z ; CArrow_LeftBottom::CArrow_LeftBottom
  003c4	e9 75 06 00 00	 jmp	 $LN1@Copy
$LN14@Copy:

; 60   : 		case CSymbolBaseData::SYMBOL_ARROW_RIGHTTOP:  //오른쪽 위 방향 화살표
; 61   : 			return new CArrow_RightTop(SymbolType, sizetype, startPt, SymbolSize, color, logfont);

  003c9	68 c0 00 00 00	 push	 192			; 000000c0H
  003ce	e8 00 00 00 00	 call	 ??2@YAPAXI@Z		; operator new
  003d3	83 c4 04	 add	 esp, 4
  003d6	89 45 a8	 mov	 DWORD PTR $T31[ebp], eax
  003d9	c7 45 fc 0c 00
	00 00		 mov	 DWORD PTR __$EHRec$[ebp+8], 12 ; 0000000cH
  003e0	85 c0		 test	 eax, eax
  003e2	0f 84 54 06 00
	00		 je	 $LN39@Copy
  003e8	8d 4d b4	 lea	 ecx, DWORD PTR _logfont$[ebp]
  003eb	51		 push	 ecx
  003ec	8d 4d b0	 lea	 ecx, DWORD PTR _color$[ebp]
  003ef	51		 push	 ecx
  003f0	8d 4d 9c	 lea	 ecx, DWORD PTR _SymbolSize$[ebp]
  003f3	51		 push	 ecx
  003f4	8d 4d 80	 lea	 ecx, DWORD PTR _startPt$[ebp]
  003f7	51		 push	 ecx
  003f8	8d 4d ac	 lea	 ecx, DWORD PTR _sizetype$[ebp]
  003fb	51		 push	 ecx
  003fc	56		 push	 esi
  003fd	8b c8		 mov	 ecx, eax
  003ff	e8 00 00 00 00	 call	 ??0CArrow_RightTop@@QAE@W4TOOLTYPE@CSymbolBaseData@@ABW4SIZETYPE@2@ABVCCoordinate@@ABVCSize@@ABKABUtagLOGFONTA@@@Z ; CArrow_RightTop::CArrow_RightTop
  00404	e9 35 06 00 00	 jmp	 $LN1@Copy
$LN15@Copy:

; 62   : 		case CSymbolBaseData::SYMBOL_ARROW_RIGHTBOTTOM:  //오른쪽 아래 방향 화살표
; 63   : 			return new CArrow_RightBottom(SymbolType, sizetype, startPt, SymbolSize, color, logfont);

  00409	68 c0 00 00 00	 push	 192			; 000000c0H
  0040e	e8 00 00 00 00	 call	 ??2@YAPAXI@Z		; operator new
  00413	83 c4 04	 add	 esp, 4
  00416	89 45 a8	 mov	 DWORD PTR $T30[ebp], eax
  00419	c7 45 fc 0d 00
	00 00		 mov	 DWORD PTR __$EHRec$[ebp+8], 13 ; 0000000dH
  00420	85 c0		 test	 eax, eax
  00422	0f 84 14 06 00
	00		 je	 $LN39@Copy
  00428	8d 4d b4	 lea	 ecx, DWORD PTR _logfont$[ebp]
  0042b	51		 push	 ecx
  0042c	8d 4d b0	 lea	 ecx, DWORD PTR _color$[ebp]
  0042f	51		 push	 ecx
  00430	8d 4d 9c	 lea	 ecx, DWORD PTR _SymbolSize$[ebp]
  00433	51		 push	 ecx
  00434	8d 4d 80	 lea	 ecx, DWORD PTR _startPt$[ebp]
  00437	51		 push	 ecx
  00438	8d 4d ac	 lea	 ecx, DWORD PTR _sizetype$[ebp]
  0043b	51		 push	 ecx
  0043c	56		 push	 esi
  0043d	8b c8		 mov	 ecx, eax
  0043f	e8 00 00 00 00	 call	 ??0CArrow_RightBottom@@QAE@W4TOOLTYPE@CSymbolBaseData@@ABW4SIZETYPE@2@ABVCCoordinate@@ABVCSize@@ABKABUtagLOGFONTA@@@Z ; CArrow_RightBottom::CArrow_RightBottom
  00444	e9 f5 05 00 00	 jmp	 $LN1@Copy
$LN16@Copy:

; 64   : 		case CSymbolBaseData::SYMBOL_NUM_ONE:  //숫자 1
; 65   : 			return new CNumber_One(SymbolType, sizetype, startPt, SymbolSize, color, logfont, textColor);

  00449	68 c0 00 00 00	 push	 192			; 000000c0H
  0044e	e8 00 00 00 00	 call	 ??2@YAPAXI@Z		; operator new
  00453	83 c4 04	 add	 esp, 4
  00456	89 45 a8	 mov	 DWORD PTR $T29[ebp], eax
  00459	c7 45 fc 0e 00
	00 00		 mov	 DWORD PTR __$EHRec$[ebp+8], 14 ; 0000000eH
  00460	85 c0		 test	 eax, eax
  00462	0f 84 d4 05 00
	00		 je	 $LN39@Copy
  00468	8d 4d a4	 lea	 ecx, DWORD PTR _textColor$[ebp]
  0046b	51		 push	 ecx
  0046c	8d 4d b4	 lea	 ecx, DWORD PTR _logfont$[ebp]
  0046f	51		 push	 ecx
  00470	8d 4d b0	 lea	 ecx, DWORD PTR _color$[ebp]
  00473	51		 push	 ecx
  00474	8d 4d 9c	 lea	 ecx, DWORD PTR _SymbolSize$[ebp]
  00477	51		 push	 ecx
  00478	8d 4d 80	 lea	 ecx, DWORD PTR _startPt$[ebp]
  0047b	51		 push	 ecx
  0047c	8d 4d ac	 lea	 ecx, DWORD PTR _sizetype$[ebp]
  0047f	51		 push	 ecx
  00480	56		 push	 esi
  00481	8b c8		 mov	 ecx, eax
  00483	e8 00 00 00 00	 call	 ??0CNumber_One@@QAE@W4TOOLTYPE@CSymbolBaseData@@ABW4SIZETYPE@2@ABVCCoordinate@@ABVCSize@@ABKABUtagLOGFONTA@@4@Z ; CNumber_One::CNumber_One
  00488	e9 b1 05 00 00	 jmp	 $LN1@Copy
$LN17@Copy:

; 66   : 		case CSymbolBaseData::SYMBOL_NUM_TWO:  //2
; 67   : 			return new CNumber_Two(SymbolType, sizetype, startPt, SymbolSize, color, logfont, textColor);

  0048d	68 c0 00 00 00	 push	 192			; 000000c0H
  00492	e8 00 00 00 00	 call	 ??2@YAPAXI@Z		; operator new
  00497	83 c4 04	 add	 esp, 4
  0049a	89 45 a8	 mov	 DWORD PTR $T28[ebp], eax
  0049d	c7 45 fc 0f 00
	00 00		 mov	 DWORD PTR __$EHRec$[ebp+8], 15 ; 0000000fH
  004a4	85 c0		 test	 eax, eax
  004a6	0f 84 90 05 00
	00		 je	 $LN39@Copy
  004ac	8d 4d a4	 lea	 ecx, DWORD PTR _textColor$[ebp]
  004af	51		 push	 ecx
  004b0	8d 4d b4	 lea	 ecx, DWORD PTR _logfont$[ebp]
  004b3	51		 push	 ecx
  004b4	8d 4d b0	 lea	 ecx, DWORD PTR _color$[ebp]
  004b7	51		 push	 ecx
  004b8	8d 4d 9c	 lea	 ecx, DWORD PTR _SymbolSize$[ebp]
  004bb	51		 push	 ecx
  004bc	8d 4d 80	 lea	 ecx, DWORD PTR _startPt$[ebp]
  004bf	51		 push	 ecx
  004c0	8d 4d ac	 lea	 ecx, DWORD PTR _sizetype$[ebp]
  004c3	51		 push	 ecx
  004c4	56		 push	 esi
  004c5	8b c8		 mov	 ecx, eax
  004c7	e8 00 00 00 00	 call	 ??0CNumber_Two@@QAE@W4TOOLTYPE@CSymbolBaseData@@ABW4SIZETYPE@2@ABVCCoordinate@@ABVCSize@@ABKABUtagLOGFONTA@@4@Z ; CNumber_Two::CNumber_Two
  004cc	e9 6d 05 00 00	 jmp	 $LN1@Copy
$LN18@Copy:

; 68   : 		case CSymbolBaseData::SYMBOL_NUM_THREE: //3
; 69   : 			return new CNumber_Three(SymbolType, sizetype, startPt, SymbolSize, color, logfont, textColor);

  004d1	68 c0 00 00 00	 push	 192			; 000000c0H
  004d6	e8 00 00 00 00	 call	 ??2@YAPAXI@Z		; operator new
  004db	83 c4 04	 add	 esp, 4
  004de	89 45 a8	 mov	 DWORD PTR $T27[ebp], eax
  004e1	c7 45 fc 10 00
	00 00		 mov	 DWORD PTR __$EHRec$[ebp+8], 16 ; 00000010H
  004e8	85 c0		 test	 eax, eax
  004ea	0f 84 4c 05 00
	00		 je	 $LN39@Copy
  004f0	8d 4d a4	 lea	 ecx, DWORD PTR _textColor$[ebp]
  004f3	51		 push	 ecx
  004f4	8d 4d b4	 lea	 ecx, DWORD PTR _logfont$[ebp]
  004f7	51		 push	 ecx
  004f8	8d 4d b0	 lea	 ecx, DWORD PTR _color$[ebp]
  004fb	51		 push	 ecx
  004fc	8d 4d 9c	 lea	 ecx, DWORD PTR _SymbolSize$[ebp]
  004ff	51		 push	 ecx
  00500	8d 4d 80	 lea	 ecx, DWORD PTR _startPt$[ebp]
  00503	51		 push	 ecx
  00504	8d 4d ac	 lea	 ecx, DWORD PTR _sizetype$[ebp]
  00507	51		 push	 ecx
  00508	56		 push	 esi
  00509	8b c8		 mov	 ecx, eax
  0050b	e8 00 00 00 00	 call	 ??0CNumber_Three@@QAE@W4TOOLTYPE@CSymbolBaseData@@ABW4SIZETYPE@2@ABVCCoordinate@@ABVCSize@@ABKABUtagLOGFONTA@@4@Z ; CNumber_Three::CNumber_Three
  00510	e9 29 05 00 00	 jmp	 $LN1@Copy
$LN19@Copy:

; 70   : 		case CSymbolBaseData::SYMBOL_NUM_FOUR:  //4
; 71   : 			return new CNumber_Four(SymbolType, sizetype, startPt, SymbolSize, color, logfont, textColor);

  00515	68 c0 00 00 00	 push	 192			; 000000c0H
  0051a	e8 00 00 00 00	 call	 ??2@YAPAXI@Z		; operator new
  0051f	83 c4 04	 add	 esp, 4
  00522	89 45 a8	 mov	 DWORD PTR $T26[ebp], eax
  00525	c7 45 fc 11 00
	00 00		 mov	 DWORD PTR __$EHRec$[ebp+8], 17 ; 00000011H
  0052c	85 c0		 test	 eax, eax
  0052e	0f 84 08 05 00
	00		 je	 $LN39@Copy
  00534	8d 4d a4	 lea	 ecx, DWORD PTR _textColor$[ebp]
  00537	51		 push	 ecx
  00538	8d 4d b4	 lea	 ecx, DWORD PTR _logfont$[ebp]
  0053b	51		 push	 ecx
  0053c	8d 4d b0	 lea	 ecx, DWORD PTR _color$[ebp]
  0053f	51		 push	 ecx
  00540	8d 4d 9c	 lea	 ecx, DWORD PTR _SymbolSize$[ebp]
  00543	51		 push	 ecx
  00544	8d 4d 80	 lea	 ecx, DWORD PTR _startPt$[ebp]
  00547	51		 push	 ecx
  00548	8d 4d ac	 lea	 ecx, DWORD PTR _sizetype$[ebp]
  0054b	51		 push	 ecx
  0054c	56		 push	 esi
  0054d	8b c8		 mov	 ecx, eax
  0054f	e8 00 00 00 00	 call	 ??0CNumber_Four@@QAE@W4TOOLTYPE@CSymbolBaseData@@ABW4SIZETYPE@2@ABVCCoordinate@@ABVCSize@@ABKABUtagLOGFONTA@@4@Z ; CNumber_Four::CNumber_Four
  00554	e9 e5 04 00 00	 jmp	 $LN1@Copy
$LN20@Copy:

; 72   : 		case CSymbolBaseData::SYMBOL_NUM_FIVE:  //5
; 73   : 			return new CNumber_Five(SymbolType, sizetype, startPt, SymbolSize, color, logfont, textColor);

  00559	68 c0 00 00 00	 push	 192			; 000000c0H
  0055e	e8 00 00 00 00	 call	 ??2@YAPAXI@Z		; operator new
  00563	83 c4 04	 add	 esp, 4
  00566	89 45 a8	 mov	 DWORD PTR $T25[ebp], eax
  00569	c7 45 fc 12 00
	00 00		 mov	 DWORD PTR __$EHRec$[ebp+8], 18 ; 00000012H
  00570	85 c0		 test	 eax, eax
  00572	0f 84 c4 04 00
	00		 je	 $LN39@Copy
  00578	8d 4d a4	 lea	 ecx, DWORD PTR _textColor$[ebp]
  0057b	51		 push	 ecx
  0057c	8d 4d b4	 lea	 ecx, DWORD PTR _logfont$[ebp]
  0057f	51		 push	 ecx
  00580	8d 4d b0	 lea	 ecx, DWORD PTR _color$[ebp]
  00583	51		 push	 ecx
  00584	8d 4d 9c	 lea	 ecx, DWORD PTR _SymbolSize$[ebp]
  00587	51		 push	 ecx
  00588	8d 4d 80	 lea	 ecx, DWORD PTR _startPt$[ebp]
  0058b	51		 push	 ecx
  0058c	8d 4d ac	 lea	 ecx, DWORD PTR _sizetype$[ebp]
  0058f	51		 push	 ecx
  00590	56		 push	 esi
  00591	8b c8		 mov	 ecx, eax
  00593	e8 00 00 00 00	 call	 ??0CNumber_Five@@QAE@W4TOOLTYPE@CSymbolBaseData@@ABW4SIZETYPE@2@ABVCCoordinate@@ABVCSize@@ABKABUtagLOGFONTA@@4@Z ; CNumber_Five::CNumber_Five
  00598	e9 a1 04 00 00	 jmp	 $LN1@Copy
$LN21@Copy:

; 74   : 		case CSymbolBaseData::SYMBOL_NUM_SIX:  //6
; 75   : 			return new CNumber_Six(SymbolType, sizetype, startPt, SymbolSize, color, logfont, textColor);

  0059d	68 c0 00 00 00	 push	 192			; 000000c0H
  005a2	e8 00 00 00 00	 call	 ??2@YAPAXI@Z		; operator new
  005a7	83 c4 04	 add	 esp, 4
  005aa	89 45 a8	 mov	 DWORD PTR $T24[ebp], eax
  005ad	c7 45 fc 13 00
	00 00		 mov	 DWORD PTR __$EHRec$[ebp+8], 19 ; 00000013H
  005b4	85 c0		 test	 eax, eax
  005b6	0f 84 80 04 00
	00		 je	 $LN39@Copy
  005bc	8d 4d a4	 lea	 ecx, DWORD PTR _textColor$[ebp]
  005bf	51		 push	 ecx
  005c0	8d 4d b4	 lea	 ecx, DWORD PTR _logfont$[ebp]
  005c3	51		 push	 ecx
  005c4	8d 4d b0	 lea	 ecx, DWORD PTR _color$[ebp]
  005c7	51		 push	 ecx
  005c8	8d 4d 9c	 lea	 ecx, DWORD PTR _SymbolSize$[ebp]
  005cb	51		 push	 ecx
  005cc	8d 4d 80	 lea	 ecx, DWORD PTR _startPt$[ebp]
  005cf	51		 push	 ecx
  005d0	8d 4d ac	 lea	 ecx, DWORD PTR _sizetype$[ebp]
  005d3	51		 push	 ecx
  005d4	56		 push	 esi
  005d5	8b c8		 mov	 ecx, eax
  005d7	e8 00 00 00 00	 call	 ??0CNumber_Six@@QAE@W4TOOLTYPE@CSymbolBaseData@@ABW4SIZETYPE@2@ABVCCoordinate@@ABVCSize@@ABKABUtagLOGFONTA@@4@Z ; CNumber_Six::CNumber_Six
  005dc	e9 5d 04 00 00	 jmp	 $LN1@Copy
$LN22@Copy:

; 76   : 		case CSymbolBaseData::SYMBOL_NUM_SEVEN:  //7
; 77   : 			return new CNumber_Seven(SymbolType, sizetype, startPt, SymbolSize, color, logfont, textColor);

  005e1	68 c0 00 00 00	 push	 192			; 000000c0H
  005e6	e8 00 00 00 00	 call	 ??2@YAPAXI@Z		; operator new
  005eb	83 c4 04	 add	 esp, 4
  005ee	89 45 a8	 mov	 DWORD PTR $T23[ebp], eax
  005f1	c7 45 fc 14 00
	00 00		 mov	 DWORD PTR __$EHRec$[ebp+8], 20 ; 00000014H
  005f8	85 c0		 test	 eax, eax
  005fa	0f 84 3c 04 00
	00		 je	 $LN39@Copy
  00600	8d 4d a4	 lea	 ecx, DWORD PTR _textColor$[ebp]
  00603	51		 push	 ecx
  00604	8d 4d b4	 lea	 ecx, DWORD PTR _logfont$[ebp]
  00607	51		 push	 ecx
  00608	8d 4d b0	 lea	 ecx, DWORD PTR _color$[ebp]
  0060b	51		 push	 ecx
  0060c	8d 4d 9c	 lea	 ecx, DWORD PTR _SymbolSize$[ebp]
  0060f	51		 push	 ecx
  00610	8d 4d 80	 lea	 ecx, DWORD PTR _startPt$[ebp]
  00613	51		 push	 ecx
  00614	8d 4d ac	 lea	 ecx, DWORD PTR _sizetype$[ebp]
  00617	51		 push	 ecx
  00618	56		 push	 esi
  00619	8b c8		 mov	 ecx, eax
  0061b	e8 00 00 00 00	 call	 ??0CNumber_Seven@@QAE@W4TOOLTYPE@CSymbolBaseData@@ABW4SIZETYPE@2@ABVCCoordinate@@ABVCSize@@ABKABUtagLOGFONTA@@4@Z ; CNumber_Seven::CNumber_Seven
  00620	e9 19 04 00 00	 jmp	 $LN1@Copy
$LN23@Copy:

; 78   : 		case CSymbolBaseData::SYMBOL_NUM_EIGHT:  //8
; 79   : 			return new CNumber_Eight(SymbolType, sizetype, startPt, SymbolSize, color, logfont, textColor);

  00625	68 c0 00 00 00	 push	 192			; 000000c0H
  0062a	e8 00 00 00 00	 call	 ??2@YAPAXI@Z		; operator new
  0062f	83 c4 04	 add	 esp, 4
  00632	89 45 a8	 mov	 DWORD PTR $T22[ebp], eax
  00635	c7 45 fc 15 00
	00 00		 mov	 DWORD PTR __$EHRec$[ebp+8], 21 ; 00000015H
  0063c	85 c0		 test	 eax, eax
  0063e	0f 84 f8 03 00
	00		 je	 $LN39@Copy
  00644	8d 4d a4	 lea	 ecx, DWORD PTR _textColor$[ebp]
  00647	51		 push	 ecx
  00648	8d 4d b4	 lea	 ecx, DWORD PTR _logfont$[ebp]
  0064b	51		 push	 ecx
  0064c	8d 4d b0	 lea	 ecx, DWORD PTR _color$[ebp]
  0064f	51		 push	 ecx
  00650	8d 4d 9c	 lea	 ecx, DWORD PTR _SymbolSize$[ebp]
  00653	51		 push	 ecx
  00654	8d 4d 80	 lea	 ecx, DWORD PTR _startPt$[ebp]
  00657	51		 push	 ecx
  00658	8d 4d ac	 lea	 ecx, DWORD PTR _sizetype$[ebp]
  0065b	51		 push	 ecx
  0065c	56		 push	 esi
  0065d	8b c8		 mov	 ecx, eax
  0065f	e8 00 00 00 00	 call	 ??0CNumber_Eight@@QAE@W4TOOLTYPE@CSymbolBaseData@@ABW4SIZETYPE@2@ABVCCoordinate@@ABVCSize@@ABKABUtagLOGFONTA@@4@Z ; CNumber_Eight::CNumber_Eight
  00664	e9 d5 03 00 00	 jmp	 $LN1@Copy
$LN24@Copy:

; 80   : 		case CSymbolBaseData::SYMBOL_NUM_NINE:  //9
; 81   : 			return new CNumber_Nine(SymbolType, sizetype, startPt, SymbolSize, color, logfont, textColor);

  00669	68 c0 00 00 00	 push	 192			; 000000c0H
  0066e	e8 00 00 00 00	 call	 ??2@YAPAXI@Z		; operator new
  00673	83 c4 04	 add	 esp, 4
  00676	89 45 a8	 mov	 DWORD PTR $T21[ebp], eax
  00679	c7 45 fc 16 00
	00 00		 mov	 DWORD PTR __$EHRec$[ebp+8], 22 ; 00000016H
  00680	85 c0		 test	 eax, eax
  00682	0f 84 b4 03 00
	00		 je	 $LN39@Copy
  00688	8d 4d a4	 lea	 ecx, DWORD PTR _textColor$[ebp]
  0068b	51		 push	 ecx
  0068c	8d 4d b4	 lea	 ecx, DWORD PTR _logfont$[ebp]
  0068f	51		 push	 ecx
  00690	8d 4d b0	 lea	 ecx, DWORD PTR _color$[ebp]
  00693	51		 push	 ecx
  00694	8d 4d 9c	 lea	 ecx, DWORD PTR _SymbolSize$[ebp]
  00697	51		 push	 ecx
  00698	8d 4d 80	 lea	 ecx, DWORD PTR _startPt$[ebp]
  0069b	51		 push	 ecx
  0069c	8d 4d ac	 lea	 ecx, DWORD PTR _sizetype$[ebp]
  0069f	51		 push	 ecx
  006a0	56		 push	 esi
  006a1	8b c8		 mov	 ecx, eax
  006a3	e8 00 00 00 00	 call	 ??0CNumber_Nine@@QAE@W4TOOLTYPE@CSymbolBaseData@@ABW4SIZETYPE@2@ABVCCoordinate@@ABVCSize@@ABKABUtagLOGFONTA@@4@Z ; CNumber_Nine::CNumber_Nine
  006a8	e9 91 03 00 00	 jmp	 $LN1@Copy
$LN25@Copy:

; 82   : 		//case CSymbolBaseData::SYMBOL_NUM_Ten:  //10
; 83   : 		//	return new CNumber_Ten(SymbolType, sizetype, startPt, SymbolSize, color, logfont, textColor);
; 84   : 		case CSymbolBaseData::SYMBOL_TEXT_A:  //a
; 85   : 			return new CText_A(SymbolType, sizetype, startPt, SymbolSize, color, logfont, textColor);

  006ad	68 c0 00 00 00	 push	 192			; 000000c0H
  006b2	e8 00 00 00 00	 call	 ??2@YAPAXI@Z		; operator new
  006b7	83 c4 04	 add	 esp, 4
  006ba	89 45 a8	 mov	 DWORD PTR $T20[ebp], eax
  006bd	c7 45 fc 17 00
	00 00		 mov	 DWORD PTR __$EHRec$[ebp+8], 23 ; 00000017H
  006c4	85 c0		 test	 eax, eax
  006c6	0f 84 70 03 00
	00		 je	 $LN39@Copy
  006cc	8d 4d a4	 lea	 ecx, DWORD PTR _textColor$[ebp]
  006cf	51		 push	 ecx
  006d0	8d 4d b4	 lea	 ecx, DWORD PTR _logfont$[ebp]
  006d3	51		 push	 ecx
  006d4	8d 4d b0	 lea	 ecx, DWORD PTR _color$[ebp]
  006d7	51		 push	 ecx
  006d8	8d 4d 9c	 lea	 ecx, DWORD PTR _SymbolSize$[ebp]
  006db	51		 push	 ecx
  006dc	8d 4d 80	 lea	 ecx, DWORD PTR _startPt$[ebp]
  006df	51		 push	 ecx
  006e0	8d 4d ac	 lea	 ecx, DWORD PTR _sizetype$[ebp]
  006e3	51		 push	 ecx
  006e4	56		 push	 esi
  006e5	8b c8		 mov	 ecx, eax
  006e7	e8 00 00 00 00	 call	 ??0CText_A@@QAE@W4TOOLTYPE@CSymbolBaseData@@ABW4SIZETYPE@2@ABVCCoordinate@@ABVCSize@@ABKABUtagLOGFONTA@@4@Z ; CText_A::CText_A
  006ec	e9 4d 03 00 00	 jmp	 $LN1@Copy
$LN26@Copy:

; 86   : 		case CSymbolBaseData::SYMBOL_TEXT_B: //b
; 87   : 			return new CText_B(SymbolType, sizetype, startPt, SymbolSize, color, logfont, textColor);

  006f1	68 c0 00 00 00	 push	 192			; 000000c0H
  006f6	e8 00 00 00 00	 call	 ??2@YAPAXI@Z		; operator new
  006fb	83 c4 04	 add	 esp, 4
  006fe	89 45 a8	 mov	 DWORD PTR $T19[ebp], eax
  00701	c7 45 fc 18 00
	00 00		 mov	 DWORD PTR __$EHRec$[ebp+8], 24 ; 00000018H
  00708	85 c0		 test	 eax, eax
  0070a	0f 84 2c 03 00
	00		 je	 $LN39@Copy
  00710	8d 4d a4	 lea	 ecx, DWORD PTR _textColor$[ebp]
  00713	51		 push	 ecx
  00714	8d 4d b4	 lea	 ecx, DWORD PTR _logfont$[ebp]
  00717	51		 push	 ecx
  00718	8d 4d b0	 lea	 ecx, DWORD PTR _color$[ebp]
  0071b	51		 push	 ecx
  0071c	8d 4d 9c	 lea	 ecx, DWORD PTR _SymbolSize$[ebp]
  0071f	51		 push	 ecx
  00720	8d 4d 80	 lea	 ecx, DWORD PTR _startPt$[ebp]
  00723	51		 push	 ecx
  00724	8d 4d ac	 lea	 ecx, DWORD PTR _sizetype$[ebp]
  00727	51		 push	 ecx
  00728	56		 push	 esi
  00729	8b c8		 mov	 ecx, eax
  0072b	e8 00 00 00 00	 call	 ??0CText_B@@QAE@W4TOOLTYPE@CSymbolBaseData@@ABW4SIZETYPE@2@ABVCCoordinate@@ABVCSize@@ABKABUtagLOGFONTA@@4@Z ; CText_B::CText_B
  00730	e9 09 03 00 00	 jmp	 $LN1@Copy
$LN27@Copy:

; 88   : 		case CSymbolBaseData::SYMBOL_TEXT_C: //c
; 89   : 			return new CText_C(SymbolType, sizetype, startPt, SymbolSize, color, logfont, textColor);

  00735	68 c0 00 00 00	 push	 192			; 000000c0H
  0073a	e8 00 00 00 00	 call	 ??2@YAPAXI@Z		; operator new
  0073f	83 c4 04	 add	 esp, 4
  00742	89 45 a8	 mov	 DWORD PTR $T18[ebp], eax
  00745	c7 45 fc 19 00
	00 00		 mov	 DWORD PTR __$EHRec$[ebp+8], 25 ; 00000019H
  0074c	85 c0		 test	 eax, eax
  0074e	0f 84 e8 02 00
	00		 je	 $LN39@Copy
  00754	8d 4d a4	 lea	 ecx, DWORD PTR _textColor$[ebp]
  00757	51		 push	 ecx
  00758	8d 4d b4	 lea	 ecx, DWORD PTR _logfont$[ebp]
  0075b	51		 push	 ecx
  0075c	8d 4d b0	 lea	 ecx, DWORD PTR _color$[ebp]
  0075f	51		 push	 ecx
  00760	8d 4d 9c	 lea	 ecx, DWORD PTR _SymbolSize$[ebp]
  00763	51		 push	 ecx
  00764	8d 4d 80	 lea	 ecx, DWORD PTR _startPt$[ebp]
  00767	51		 push	 ecx
  00768	8d 4d ac	 lea	 ecx, DWORD PTR _sizetype$[ebp]
  0076b	51		 push	 ecx
  0076c	56		 push	 esi
  0076d	8b c8		 mov	 ecx, eax
  0076f	e8 00 00 00 00	 call	 ??0CText_C@@QAE@W4TOOLTYPE@CSymbolBaseData@@ABW4SIZETYPE@2@ABVCCoordinate@@ABVCSize@@ABKABUtagLOGFONTA@@4@Z ; CText_C::CText_C
  00774	e9 c5 02 00 00	 jmp	 $LN1@Copy
$LN28@Copy:

; 90   : 		case CSymbolBaseData::SYMBOL_TEXT_D: //d
; 91   : 			return new CText_D(SymbolType, sizetype, startPt, SymbolSize, color, logfont, textColor);

  00779	68 c0 00 00 00	 push	 192			; 000000c0H
  0077e	e8 00 00 00 00	 call	 ??2@YAPAXI@Z		; operator new
  00783	83 c4 04	 add	 esp, 4
  00786	89 45 a8	 mov	 DWORD PTR $T17[ebp], eax
  00789	c7 45 fc 1a 00
	00 00		 mov	 DWORD PTR __$EHRec$[ebp+8], 26 ; 0000001aH
  00790	85 c0		 test	 eax, eax
  00792	0f 84 a4 02 00
	00		 je	 $LN39@Copy
  00798	8d 4d a4	 lea	 ecx, DWORD PTR _textColor$[ebp]
  0079b	51		 push	 ecx
  0079c	8d 4d b4	 lea	 ecx, DWORD PTR _logfont$[ebp]
  0079f	51		 push	 ecx
  007a0	8d 4d b0	 lea	 ecx, DWORD PTR _color$[ebp]
  007a3	51		 push	 ecx
  007a4	8d 4d 9c	 lea	 ecx, DWORD PTR _SymbolSize$[ebp]
  007a7	51		 push	 ecx
  007a8	8d 4d 80	 lea	 ecx, DWORD PTR _startPt$[ebp]
  007ab	51		 push	 ecx
  007ac	8d 4d ac	 lea	 ecx, DWORD PTR _sizetype$[ebp]
  007af	51		 push	 ecx
  007b0	56		 push	 esi
  007b1	8b c8		 mov	 ecx, eax
  007b3	e8 00 00 00 00	 call	 ??0CText_D@@QAE@W4TOOLTYPE@CSymbolBaseData@@ABW4SIZETYPE@2@ABVCCoordinate@@ABVCSize@@ABKABUtagLOGFONTA@@4@Z ; CText_D::CText_D
  007b8	e9 81 02 00 00	 jmp	 $LN1@Copy
$LN29@Copy:

; 92   : 		case CSymbolBaseData::SYMBOL_TEXT_E: //e
; 93   : 			return new CText_E(SymbolType, sizetype, startPt, SymbolSize, color, logfont, textColor);

  007bd	68 c0 00 00 00	 push	 192			; 000000c0H
  007c2	e8 00 00 00 00	 call	 ??2@YAPAXI@Z		; operator new
  007c7	83 c4 04	 add	 esp, 4
  007ca	89 45 a8	 mov	 DWORD PTR $T16[ebp], eax
  007cd	c7 45 fc 1b 00
	00 00		 mov	 DWORD PTR __$EHRec$[ebp+8], 27 ; 0000001bH
  007d4	85 c0		 test	 eax, eax
  007d6	0f 84 60 02 00
	00		 je	 $LN39@Copy
  007dc	8d 4d a4	 lea	 ecx, DWORD PTR _textColor$[ebp]
  007df	51		 push	 ecx
  007e0	8d 4d b4	 lea	 ecx, DWORD PTR _logfont$[ebp]
  007e3	51		 push	 ecx
  007e4	8d 4d b0	 lea	 ecx, DWORD PTR _color$[ebp]
  007e7	51		 push	 ecx
  007e8	8d 4d 9c	 lea	 ecx, DWORD PTR _SymbolSize$[ebp]
  007eb	51		 push	 ecx
  007ec	8d 4d 80	 lea	 ecx, DWORD PTR _startPt$[ebp]
  007ef	51		 push	 ecx
  007f0	8d 4d ac	 lea	 ecx, DWORD PTR _sizetype$[ebp]
  007f3	51		 push	 ecx
  007f4	56		 push	 esi
  007f5	8b c8		 mov	 ecx, eax
  007f7	e8 00 00 00 00	 call	 ??0CText_E@@QAE@W4TOOLTYPE@CSymbolBaseData@@ABW4SIZETYPE@2@ABVCCoordinate@@ABVCSize@@ABKABUtagLOGFONTA@@4@Z ; CText_E::CText_E
  007fc	e9 3d 02 00 00	 jmp	 $LN1@Copy
$LN30@Copy:

; 94   : 		case CSymbolBaseData::SYMBOL_TEXT_F: //f
; 95   : 			return new CText_F(SymbolType, sizetype, startPt, SymbolSize, color, logfont, textColor);

  00801	68 c0 00 00 00	 push	 192			; 000000c0H
  00806	e8 00 00 00 00	 call	 ??2@YAPAXI@Z		; operator new
  0080b	83 c4 04	 add	 esp, 4
  0080e	89 45 a8	 mov	 DWORD PTR $T15[ebp], eax
  00811	c7 45 fc 1c 00
	00 00		 mov	 DWORD PTR __$EHRec$[ebp+8], 28 ; 0000001cH
  00818	85 c0		 test	 eax, eax
  0081a	0f 84 1c 02 00
	00		 je	 $LN39@Copy
  00820	8d 4d a4	 lea	 ecx, DWORD PTR _textColor$[ebp]
  00823	51		 push	 ecx
  00824	8d 4d b4	 lea	 ecx, DWORD PTR _logfont$[ebp]
  00827	51		 push	 ecx
  00828	8d 4d b0	 lea	 ecx, DWORD PTR _color$[ebp]
  0082b	51		 push	 ecx
  0082c	8d 4d 9c	 lea	 ecx, DWORD PTR _SymbolSize$[ebp]
  0082f	51		 push	 ecx
  00830	8d 4d 80	 lea	 ecx, DWORD PTR _startPt$[ebp]
  00833	51		 push	 ecx
  00834	8d 4d ac	 lea	 ecx, DWORD PTR _sizetype$[ebp]
  00837	51		 push	 ecx
  00838	56		 push	 esi
  00839	8b c8		 mov	 ecx, eax
  0083b	e8 00 00 00 00	 call	 ??0CText_F@@QAE@W4TOOLTYPE@CSymbolBaseData@@ABW4SIZETYPE@2@ABVCCoordinate@@ABVCSize@@ABKABUtagLOGFONTA@@4@Z ; CText_F::CText_F
  00840	e9 f9 01 00 00	 jmp	 $LN1@Copy
$LN31@Copy:

; 96   : 		case CSymbolBaseData::SYMBOL_TEXT_G: //g
; 97   : 			return new CText_G(SymbolType, sizetype, startPt, SymbolSize, color, logfont, textColor);

  00845	68 c0 00 00 00	 push	 192			; 000000c0H
  0084a	e8 00 00 00 00	 call	 ??2@YAPAXI@Z		; operator new
  0084f	83 c4 04	 add	 esp, 4
  00852	89 45 a8	 mov	 DWORD PTR $T14[ebp], eax
  00855	c7 45 fc 1d 00
	00 00		 mov	 DWORD PTR __$EHRec$[ebp+8], 29 ; 0000001dH
  0085c	85 c0		 test	 eax, eax
  0085e	0f 84 d8 01 00
	00		 je	 $LN39@Copy
  00864	8d 4d a4	 lea	 ecx, DWORD PTR _textColor$[ebp]
  00867	51		 push	 ecx
  00868	8d 4d b4	 lea	 ecx, DWORD PTR _logfont$[ebp]
  0086b	51		 push	 ecx
  0086c	8d 4d b0	 lea	 ecx, DWORD PTR _color$[ebp]
  0086f	51		 push	 ecx
  00870	8d 4d 9c	 lea	 ecx, DWORD PTR _SymbolSize$[ebp]
  00873	51		 push	 ecx
  00874	8d 4d 80	 lea	 ecx, DWORD PTR _startPt$[ebp]
  00877	51		 push	 ecx
  00878	8d 4d ac	 lea	 ecx, DWORD PTR _sizetype$[ebp]
  0087b	51		 push	 ecx
  0087c	56		 push	 esi
  0087d	8b c8		 mov	 ecx, eax
  0087f	e8 00 00 00 00	 call	 ??0CText_G@@QAE@W4TOOLTYPE@CSymbolBaseData@@ABW4SIZETYPE@2@ABVCCoordinate@@ABVCSize@@ABKABUtagLOGFONTA@@4@Z ; CText_G::CText_G
  00884	e9 b5 01 00 00	 jmp	 $LN1@Copy
$LN32@Copy:

; 98   : 		case CSymbolBaseData::SYMBOL_TEXT_H: //h
; 99   : 			return new CText_H(SymbolType, sizetype, startPt, SymbolSize, color, logfont, textColor);

  00889	68 c0 00 00 00	 push	 192			; 000000c0H
  0088e	e8 00 00 00 00	 call	 ??2@YAPAXI@Z		; operator new
  00893	83 c4 04	 add	 esp, 4
  00896	89 45 a8	 mov	 DWORD PTR $T13[ebp], eax
  00899	c7 45 fc 1e 00
	00 00		 mov	 DWORD PTR __$EHRec$[ebp+8], 30 ; 0000001eH
  008a0	85 c0		 test	 eax, eax
  008a2	0f 84 94 01 00
	00		 je	 $LN39@Copy
  008a8	8d 4d a4	 lea	 ecx, DWORD PTR _textColor$[ebp]
  008ab	51		 push	 ecx
  008ac	8d 4d b4	 lea	 ecx, DWORD PTR _logfont$[ebp]
  008af	51		 push	 ecx
  008b0	8d 4d b0	 lea	 ecx, DWORD PTR _color$[ebp]
  008b3	51		 push	 ecx
  008b4	8d 4d 9c	 lea	 ecx, DWORD PTR _SymbolSize$[ebp]
  008b7	51		 push	 ecx
  008b8	8d 4d 80	 lea	 ecx, DWORD PTR _startPt$[ebp]
  008bb	51		 push	 ecx
  008bc	8d 4d ac	 lea	 ecx, DWORD PTR _sizetype$[ebp]
  008bf	51		 push	 ecx
  008c0	56		 push	 esi
  008c1	8b c8		 mov	 ecx, eax
  008c3	e8 00 00 00 00	 call	 ??0CText_H@@QAE@W4TOOLTYPE@CSymbolBaseData@@ABW4SIZETYPE@2@ABVCCoordinate@@ABVCSize@@ABKABUtagLOGFONTA@@4@Z ; CText_H::CText_H
  008c8	e9 71 01 00 00	 jmp	 $LN1@Copy
$LN33@Copy:

; 100  : 		case CSymbolBaseData::SYMBOL_CHAR_1: //h
; 101  : 			return new CChar_1(SymbolType, sizetype, startPt, SymbolSize, color, logfont);//, textColor);

  008cd	68 c0 00 00 00	 push	 192			; 000000c0H
  008d2	e8 00 00 00 00	 call	 ??2@YAPAXI@Z		; operator new
  008d7	83 c4 04	 add	 esp, 4
  008da	89 45 a8	 mov	 DWORD PTR $T12[ebp], eax
  008dd	c7 45 fc 1f 00
	00 00		 mov	 DWORD PTR __$EHRec$[ebp+8], 31 ; 0000001fH
  008e4	85 c0		 test	 eax, eax
  008e6	0f 84 50 01 00
	00		 je	 $LN39@Copy
  008ec	8d 4d b4	 lea	 ecx, DWORD PTR _logfont$[ebp]
  008ef	51		 push	 ecx
  008f0	8d 4d b0	 lea	 ecx, DWORD PTR _color$[ebp]
  008f3	51		 push	 ecx
  008f4	8d 4d 9c	 lea	 ecx, DWORD PTR _SymbolSize$[ebp]
  008f7	51		 push	 ecx
  008f8	8d 4d 80	 lea	 ecx, DWORD PTR _startPt$[ebp]
  008fb	51		 push	 ecx
  008fc	8d 4d ac	 lea	 ecx, DWORD PTR _sizetype$[ebp]
  008ff	51		 push	 ecx
  00900	56		 push	 esi
  00901	8b c8		 mov	 ecx, eax
  00903	e8 00 00 00 00	 call	 ??0CChar_1@@QAE@W4TOOLTYPE@CSymbolBaseData@@ABW4SIZETYPE@2@ABVCCoordinate@@ABVCSize@@ABKABUtagLOGFONTA@@@Z ; CChar_1::CChar_1
  00908	e9 31 01 00 00	 jmp	 $LN1@Copy
$LN34@Copy:

; 102  : 		case CSymbolBaseData::SYMBOL_CHAR_2: //h
; 103  : 			return new CChar_2(SymbolType, sizetype, startPt, SymbolSize, color, logfont);//, textColor);

  0090d	68 c0 00 00 00	 push	 192			; 000000c0H
  00912	e8 00 00 00 00	 call	 ??2@YAPAXI@Z		; operator new
  00917	83 c4 04	 add	 esp, 4
  0091a	89 45 a8	 mov	 DWORD PTR $T11[ebp], eax
  0091d	c7 45 fc 20 00
	00 00		 mov	 DWORD PTR __$EHRec$[ebp+8], 32 ; 00000020H
  00924	85 c0		 test	 eax, eax
  00926	0f 84 10 01 00
	00		 je	 $LN39@Copy
  0092c	8d 4d b4	 lea	 ecx, DWORD PTR _logfont$[ebp]
  0092f	51		 push	 ecx
  00930	8d 4d b0	 lea	 ecx, DWORD PTR _color$[ebp]
  00933	51		 push	 ecx
  00934	8d 4d 9c	 lea	 ecx, DWORD PTR _SymbolSize$[ebp]
  00937	51		 push	 ecx
  00938	8d 4d 80	 lea	 ecx, DWORD PTR _startPt$[ebp]
  0093b	51		 push	 ecx
  0093c	8d 4d ac	 lea	 ecx, DWORD PTR _sizetype$[ebp]
  0093f	51		 push	 ecx
  00940	56		 push	 esi
  00941	8b c8		 mov	 ecx, eax
  00943	e8 00 00 00 00	 call	 ??0CChar_2@@QAE@W4TOOLTYPE@CSymbolBaseData@@ABW4SIZETYPE@2@ABVCCoordinate@@ABVCSize@@ABKABUtagLOGFONTA@@@Z ; CChar_2::CChar_2
  00948	e9 f1 00 00 00	 jmp	 $LN1@Copy
$LN35@Copy:

; 104  : 		case CSymbolBaseData::SYMBOL_CHAR_3: //h
; 105  : 			return new CChar_3(SymbolType, sizetype, startPt, SymbolSize, color, logfont);//, textColor);

  0094d	68 c0 00 00 00	 push	 192			; 000000c0H
  00952	e8 00 00 00 00	 call	 ??2@YAPAXI@Z		; operator new
  00957	83 c4 04	 add	 esp, 4
  0095a	89 45 a8	 mov	 DWORD PTR $T10[ebp], eax
  0095d	c7 45 fc 21 00
	00 00		 mov	 DWORD PTR __$EHRec$[ebp+8], 33 ; 00000021H
  00964	85 c0		 test	 eax, eax
  00966	0f 84 d0 00 00
	00		 je	 $LN39@Copy
  0096c	8d 4d b4	 lea	 ecx, DWORD PTR _logfont$[ebp]
  0096f	51		 push	 ecx
  00970	8d 4d b0	 lea	 ecx, DWORD PTR _color$[ebp]
  00973	51		 push	 ecx
  00974	8d 4d 9c	 lea	 ecx, DWORD PTR _SymbolSize$[ebp]
  00977	51		 push	 ecx
  00978	8d 4d 80	 lea	 ecx, DWORD PTR _startPt$[ebp]
  0097b	51		 push	 ecx
  0097c	8d 4d ac	 lea	 ecx, DWORD PTR _sizetype$[ebp]
  0097f	51		 push	 ecx
  00980	56		 push	 esi
  00981	8b c8		 mov	 ecx, eax
  00983	e8 00 00 00 00	 call	 ??0CChar_3@@QAE@W4TOOLTYPE@CSymbolBaseData@@ABW4SIZETYPE@2@ABVCCoordinate@@ABVCSize@@ABKABUtagLOGFONTA@@@Z ; CChar_3::CChar_3
  00988	e9 b1 00 00 00	 jmp	 $LN1@Copy
$LN36@Copy:

; 106  : 		case CSymbolBaseData::SYMBOL_CHAR_4: //h
; 107  : 			return new CChar_4(SymbolType, sizetype, startPt, SymbolSize, color, logfont);//, textColor);

  0098d	68 c0 00 00 00	 push	 192			; 000000c0H
  00992	e8 00 00 00 00	 call	 ??2@YAPAXI@Z		; operator new
  00997	83 c4 04	 add	 esp, 4
  0099a	89 45 a8	 mov	 DWORD PTR $T9[ebp], eax
  0099d	c7 45 fc 22 00
	00 00		 mov	 DWORD PTR __$EHRec$[ebp+8], 34 ; 00000022H
  009a4	85 c0		 test	 eax, eax
  009a6	0f 84 90 00 00
	00		 je	 $LN39@Copy
  009ac	8d 4d b4	 lea	 ecx, DWORD PTR _logfont$[ebp]
  009af	51		 push	 ecx
  009b0	8d 4d b0	 lea	 ecx, DWORD PTR _color$[ebp]
  009b3	51		 push	 ecx
  009b4	8d 4d 9c	 lea	 ecx, DWORD PTR _SymbolSize$[ebp]
  009b7	51		 push	 ecx
  009b8	8d 4d 80	 lea	 ecx, DWORD PTR _startPt$[ebp]
  009bb	51		 push	 ecx
  009bc	8d 4d ac	 lea	 ecx, DWORD PTR _sizetype$[ebp]
  009bf	51		 push	 ecx
  009c0	56		 push	 esi
  009c1	8b c8		 mov	 ecx, eax
  009c3	e8 00 00 00 00	 call	 ??0CChar_4@@QAE@W4TOOLTYPE@CSymbolBaseData@@ABW4SIZETYPE@2@ABVCCoordinate@@ABVCSize@@ABKABUtagLOGFONTA@@@Z ; CChar_4::CChar_4
  009c8	eb 74		 jmp	 SHORT $LN1@Copy
$LN37@Copy:

; 108  : 		case CSymbolBaseData::SYMBOL_CHAR_5: //h
; 109  : 			return new CChar_5(SymbolType, sizetype, startPt, SymbolSize, color, logfont);//, textColor);

  009ca	68 c0 00 00 00	 push	 192			; 000000c0H
  009cf	e8 00 00 00 00	 call	 ??2@YAPAXI@Z		; operator new
  009d4	83 c4 04	 add	 esp, 4
  009d7	89 45 a8	 mov	 DWORD PTR $T8[ebp], eax
  009da	c7 45 fc 23 00
	00 00		 mov	 DWORD PTR __$EHRec$[ebp+8], 35 ; 00000023H
  009e1	85 c0		 test	 eax, eax
  009e3	74 57		 je	 SHORT $LN39@Copy
  009e5	8d 4d b4	 lea	 ecx, DWORD PTR _logfont$[ebp]
  009e8	51		 push	 ecx
  009e9	8d 4d b0	 lea	 ecx, DWORD PTR _color$[ebp]
  009ec	51		 push	 ecx
  009ed	8d 4d 9c	 lea	 ecx, DWORD PTR _SymbolSize$[ebp]
  009f0	51		 push	 ecx
  009f1	8d 4d 80	 lea	 ecx, DWORD PTR _startPt$[ebp]
  009f4	51		 push	 ecx
  009f5	8d 4d ac	 lea	 ecx, DWORD PTR _sizetype$[ebp]
  009f8	51		 push	 ecx
  009f9	56		 push	 esi
  009fa	8b c8		 mov	 ecx, eax
  009fc	e8 00 00 00 00	 call	 ??0CChar_5@@QAE@W4TOOLTYPE@CSymbolBaseData@@ABW4SIZETYPE@2@ABVCCoordinate@@ABVCSize@@ABKABUtagLOGFONTA@@@Z ; CChar_5::CChar_5
  00a01	eb 3b		 jmp	 SHORT $LN1@Copy
$LN38@Copy:

; 110  : 		case CSymbolBaseData::SYMBOL_CHAR_6: //h
; 111  : 			return new CChar_6(SymbolType, sizetype, startPt, SymbolSize, color, logfont);//, textColor);

  00a03	68 c0 00 00 00	 push	 192			; 000000c0H
  00a08	e8 00 00 00 00	 call	 ??2@YAPAXI@Z		; operator new
  00a0d	83 c4 04	 add	 esp, 4
  00a10	89 45 a8	 mov	 DWORD PTR $T7[ebp], eax
  00a13	c7 45 fc 24 00
	00 00		 mov	 DWORD PTR __$EHRec$[ebp+8], 36 ; 00000024H
  00a1a	85 c0		 test	 eax, eax
  00a1c	74 1e		 je	 SHORT $LN39@Copy
  00a1e	8d 4d b4	 lea	 ecx, DWORD PTR _logfont$[ebp]
  00a21	51		 push	 ecx
  00a22	8d 4d b0	 lea	 ecx, DWORD PTR _color$[ebp]
  00a25	51		 push	 ecx
  00a26	8d 4d 9c	 lea	 ecx, DWORD PTR _SymbolSize$[ebp]
  00a29	51		 push	 ecx
  00a2a	8d 4d 80	 lea	 ecx, DWORD PTR _startPt$[ebp]
  00a2d	51		 push	 ecx
  00a2e	8d 4d ac	 lea	 ecx, DWORD PTR _sizetype$[ebp]
  00a31	51		 push	 ecx
  00a32	56		 push	 esi
  00a33	8b c8		 mov	 ecx, eax
  00a35	e8 00 00 00 00	 call	 ??0CChar_6@@QAE@W4TOOLTYPE@CSymbolBaseData@@ABW4SIZETYPE@2@ABVCCoordinate@@ABVCSize@@ABKABUtagLOGFONTA@@@Z ; CChar_6::CChar_6
  00a3a	eb 02		 jmp	 SHORT $LN1@Copy
$LN39@Copy:

; 112  : 		default:
; 113  : 			return NULL;
; 114  : 	}
; 115  : 
; 116  : 	return NULL;
; 117  : }

  00a3c	33 c0		 xor	 eax, eax
$LN1@Copy:
  00a3e	8b 4d f4	 mov	 ecx, DWORD PTR __$EHRec$[ebp]
  00a41	64 89 0d 00 00
	00 00		 mov	 DWORD PTR fs:0, ecx
  00a48	59		 pop	 ecx
  00a49	5f		 pop	 edi
  00a4a	5e		 pop	 esi
  00a4b	5b		 pop	 ebx
  00a4c	8b 4d f0	 mov	 ecx, DWORD PTR __$ArrayPad$[ebp]
  00a4f	33 cd		 xor	 ecx, ebp
  00a51	e8 00 00 00 00	 call	 @__security_check_cookie@4
  00a56	8b e5		 mov	 esp, ebp
  00a58	5d		 pop	 ebp
  00a59	c3		 ret	 0
  00a5a	66 90		 npad	 2
$LN149@Copy:
  00a5c	00 00 00 00	 DD	 $LN4@Copy
  00a60	00 00 00 00	 DD	 $LN5@Copy
  00a64	00 00 00 00	 DD	 $LN6@Copy
  00a68	00 00 00 00	 DD	 $LN7@Copy
  00a6c	00 00 00 00	 DD	 $LN39@Copy
  00a70	00 00 00 00	 DD	 $LN39@Copy
  00a74	00 00 00 00	 DD	 $LN8@Copy
  00a78	00 00 00 00	 DD	 $LN9@Copy
  00a7c	00 00 00 00	 DD	 $LN10@Copy
  00a80	00 00 00 00	 DD	 $LN11@Copy
  00a84	00 00 00 00	 DD	 $LN12@Copy
  00a88	00 00 00 00	 DD	 $LN13@Copy
  00a8c	00 00 00 00	 DD	 $LN14@Copy
  00a90	00 00 00 00	 DD	 $LN15@Copy
  00a94	00 00 00 00	 DD	 $LN16@Copy
  00a98	00 00 00 00	 DD	 $LN17@Copy
  00a9c	00 00 00 00	 DD	 $LN18@Copy
  00aa0	00 00 00 00	 DD	 $LN19@Copy
  00aa4	00 00 00 00	 DD	 $LN20@Copy
  00aa8	00 00 00 00	 DD	 $LN21@Copy
  00aac	00 00 00 00	 DD	 $LN22@Copy
  00ab0	00 00 00 00	 DD	 $LN23@Copy
  00ab4	00 00 00 00	 DD	 $LN24@Copy
  00ab8	00 00 00 00	 DD	 $LN39@Copy
  00abc	00 00 00 00	 DD	 $LN25@Copy
  00ac0	00 00 00 00	 DD	 $LN26@Copy
  00ac4	00 00 00 00	 DD	 $LN27@Copy
  00ac8	00 00 00 00	 DD	 $LN28@Copy
  00acc	00 00 00 00	 DD	 $LN29@Copy
  00ad0	00 00 00 00	 DD	 $LN30@Copy
  00ad4	00 00 00 00	 DD	 $LN31@Copy
  00ad8	00 00 00 00	 DD	 $LN32@Copy
  00adc	00 00 00 00	 DD	 $LN33@Copy
  00ae0	00 00 00 00	 DD	 $LN34@Copy
  00ae4	00 00 00 00	 DD	 $LN35@Copy
  00ae8	00 00 00 00	 DD	 $LN36@Copy
  00aec	00 00 00 00	 DD	 $LN37@Copy
  00af0	00 00 00 00	 DD	 $LN38@Copy
_TEXT	ENDS
;	COMDAT text$x
text$x	SEGMENT
__unwindfunclet$?Copy@CDrawingSymbolFactory@@SAPAVCDrawingSymbol@@PAV2@@Z$0:
  00000	68 d8 00 00 00	 push	 216			; 000000d8H
  00005	8b 85 7c ff ff
	ff		 mov	 eax, DWORD PTR $T6[ebp]
  0000b	50		 push	 eax
  0000c	e8 00 00 00 00	 call	 ??3@YAXPAXI@Z		; operator delete
  00011	83 c4 08	 add	 esp, 8
  00014	c3		 ret	 0
__unwindfunclet$?Copy@CDrawingSymbolFactory@@SAPAVCDrawingSymbol@@PAV2@@Z$1:
  00015	68 d8 00 00 00	 push	 216			; 000000d8H
  0001a	8b 85 7c ff ff
	ff		 mov	 eax, DWORD PTR $T5[ebp]
  00020	50		 push	 eax
  00021	e8 00 00 00 00	 call	 ??3@YAXPAXI@Z		; operator delete
  00026	83 c4 08	 add	 esp, 8
  00029	c3		 ret	 0
__unwindfunclet$?Copy@CDrawingSymbolFactory@@SAPAVCDrawingSymbol@@PAV2@@Z$2:
  0002a	68 d8 00 00 00	 push	 216			; 000000d8H
  0002f	8b 85 7c ff ff
	ff		 mov	 eax, DWORD PTR $T4[ebp]
  00035	50		 push	 eax
  00036	e8 00 00 00 00	 call	 ??3@YAXPAXI@Z		; operator delete
  0003b	83 c4 08	 add	 esp, 8
  0003e	c3		 ret	 0
__unwindfunclet$?Copy@CDrawingSymbolFactory@@SAPAVCDrawingSymbol@@PAV2@@Z$3:
  0003f	68 e0 00 00 00	 push	 224			; 000000e0H
  00044	8b 45 a8	 mov	 eax, DWORD PTR $T38[ebp]
  00047	50		 push	 eax
  00048	e8 00 00 00 00	 call	 ??3@YAXPAXI@Z		; operator delete
  0004d	83 c4 08	 add	 esp, 8
  00050	c3		 ret	 0
__unwindfunclet$?Copy@CDrawingSymbolFactory@@SAPAVCDrawingSymbol@@PAV2@@Z$4:
  00051	8b 85 70 ff ff
	ff		 mov	 eax, DWORD PTR $T2[ebp]
  00057	83 e0 01	 and	 eax, 1
  0005a	0f 84 13 00 00
	00		 je	 $LN116@Copy
  00060	83 a5 70 ff ff
	ff fe		 and	 DWORD PTR $T2[ebp], -2	; fffffffeH
  00067	8d 8d 7c ff ff
	ff		 lea	 ecx, DWORD PTR $T3[ebp]
  0006d	ff 25 00 00 00
	00		 jmp	 DWORD PTR __imp_??1?$CStringT@DV?$StrTraitMFC_DLL@DV?$ChTraitsCRT@D@ATL@@@@@ATL@@QAE@XZ
$LN116@Copy:
  00073	c3		 ret	 0
__unwindfunclet$?Copy@CDrawingSymbolFactory@@SAPAVCDrawingSymbol@@PAV2@@Z$5:
  00074	68 c0 00 00 00	 push	 192			; 000000c0H
  00079	8b 45 a8	 mov	 eax, DWORD PTR $T37[ebp]
  0007c	50		 push	 eax
  0007d	e8 00 00 00 00	 call	 ??3@YAXPAXI@Z		; operator delete
  00082	83 c4 08	 add	 esp, 8
  00085	c3		 ret	 0
__unwindfunclet$?Copy@CDrawingSymbolFactory@@SAPAVCDrawingSymbol@@PAV2@@Z$6:
  00086	68 c0 00 00 00	 push	 192			; 000000c0H
  0008b	8b 45 a8	 mov	 eax, DWORD PTR $T36[ebp]
  0008e	50		 push	 eax
  0008f	e8 00 00 00 00	 call	 ??3@YAXPAXI@Z		; operator delete
  00094	83 c4 08	 add	 esp, 8
  00097	c3		 ret	 0
__unwindfunclet$?Copy@CDrawingSymbolFactory@@SAPAVCDrawingSymbol@@PAV2@@Z$7:
  00098	68 c0 00 00 00	 push	 192			; 000000c0H
  0009d	8b 45 a8	 mov	 eax, DWORD PTR $T35[ebp]
  000a0	50		 push	 eax
  000a1	e8 00 00 00 00	 call	 ??3@YAXPAXI@Z		; operator delete
  000a6	83 c4 08	 add	 esp, 8
  000a9	c3		 ret	 0
__unwindfunclet$?Copy@CDrawingSymbolFactory@@SAPAVCDrawingSymbol@@PAV2@@Z$8:
  000aa	68 c0 00 00 00	 push	 192			; 000000c0H
  000af	8b 45 a8	 mov	 eax, DWORD PTR $T34[ebp]
  000b2	50		 push	 eax
  000b3	e8 00 00 00 00	 call	 ??3@YAXPAXI@Z		; operator delete
  000b8	83 c4 08	 add	 esp, 8
  000bb	c3		 ret	 0
__unwindfunclet$?Copy@CDrawingSymbolFactory@@SAPAVCDrawingSymbol@@PAV2@@Z$9:
  000bc	68 c0 00 00 00	 push	 192			; 000000c0H
  000c1	8b 45 a8	 mov	 eax, DWORD PTR $T33[ebp]
  000c4	50		 push	 eax
  000c5	e8 00 00 00 00	 call	 ??3@YAXPAXI@Z		; operator delete
  000ca	83 c4 08	 add	 esp, 8
  000cd	c3		 ret	 0
__unwindfunclet$?Copy@CDrawingSymbolFactory@@SAPAVCDrawingSymbol@@PAV2@@Z$10:
  000ce	68 c0 00 00 00	 push	 192			; 000000c0H
  000d3	8b 45 a8	 mov	 eax, DWORD PTR $T32[ebp]
  000d6	50		 push	 eax
  000d7	e8 00 00 00 00	 call	 ??3@YAXPAXI@Z		; operator delete
  000dc	83 c4 08	 add	 esp, 8
  000df	c3		 ret	 0
__unwindfunclet$?Copy@CDrawingSymbolFactory@@SAPAVCDrawingSymbol@@PAV2@@Z$11:
  000e0	68 c0 00 00 00	 push	 192			; 000000c0H
  000e5	8b 45 a8	 mov	 eax, DWORD PTR $T31[ebp]
  000e8	50		 push	 eax
  000e9	e8 00 00 00 00	 call	 ??3@YAXPAXI@Z		; operator delete
  000ee	83 c4 08	 add	 esp, 8
  000f1	c3		 ret	 0
__unwindfunclet$?Copy@CDrawingSymbolFactory@@SAPAVCDrawingSymbol@@PAV2@@Z$12:
  000f2	68 c0 00 00 00	 push	 192			; 000000c0H
  000f7	8b 45 a8	 mov	 eax, DWORD PTR $T30[ebp]
  000fa	50		 push	 eax
  000fb	e8 00 00 00 00	 call	 ??3@YAXPAXI@Z		; operator delete
  00100	83 c4 08	 add	 esp, 8
  00103	c3		 ret	 0
__unwindfunclet$?Copy@CDrawingSymbolFactory@@SAPAVCDrawingSymbol@@PAV2@@Z$13:
  00104	68 c0 00 00 00	 push	 192			; 000000c0H
  00109	8b 45 a8	 mov	 eax, DWORD PTR $T29[ebp]
  0010c	50		 push	 eax
  0010d	e8 00 00 00 00	 call	 ??3@YAXPAXI@Z		; operator delete
  00112	83 c4 08	 add	 esp, 8
  00115	c3		 ret	 0
__unwindfunclet$?Copy@CDrawingSymbolFactory@@SAPAVCDrawingSymbol@@PAV2@@Z$14:
  00116	68 c0 00 00 00	 push	 192			; 000000c0H
  0011b	8b 45 a8	 mov	 eax, DWORD PTR $T28[ebp]
  0011e	50		 push	 eax
  0011f	e8 00 00 00 00	 call	 ??3@YAXPAXI@Z		; operator delete
  00124	83 c4 08	 add	 esp, 8
  00127	c3		 ret	 0
__unwindfunclet$?Copy@CDrawingSymbolFactory@@SAPAVCDrawingSymbol@@PAV2@@Z$15:
  00128	68 c0 00 00 00	 push	 192			; 000000c0H
  0012d	8b 45 a8	 mov	 eax, DWORD PTR $T27[ebp]
  00130	50		 push	 eax
  00131	e8 00 00 00 00	 call	 ??3@YAXPAXI@Z		; operator delete
  00136	83 c4 08	 add	 esp, 8
  00139	c3		 ret	 0
__unwindfunclet$?Copy@CDrawingSymbolFactory@@SAPAVCDrawingSymbol@@PAV2@@Z$16:
  0013a	68 c0 00 00 00	 push	 192			; 000000c0H
  0013f	8b 45 a8	 mov	 eax, DWORD PTR $T26[ebp]
  00142	50		 push	 eax
  00143	e8 00 00 00 00	 call	 ??3@YAXPAXI@Z		; operator delete
  00148	83 c4 08	 add	 esp, 8
  0014b	c3		 ret	 0
__unwindfunclet$?Copy@CDrawingSymbolFactory@@SAPAVCDrawingSymbol@@PAV2@@Z$17:
  0014c	68 c0 00 00 00	 push	 192			; 000000c0H
  00151	8b 45 a8	 mov	 eax, DWORD PTR $T25[ebp]
  00154	50		 push	 eax
  00155	e8 00 00 00 00	 call	 ??3@YAXPAXI@Z		; operator delete
  0015a	83 c4 08	 add	 esp, 8
  0015d	c3		 ret	 0
__unwindfunclet$?Copy@CDrawingSymbolFactory@@SAPAVCDrawingSymbol@@PAV2@@Z$18:
  0015e	68 c0 00 00 00	 push	 192			; 000000c0H
  00163	8b 45 a8	 mov	 eax, DWORD PTR $T24[ebp]
  00166	50		 push	 eax
  00167	e8 00 00 00 00	 call	 ??3@YAXPAXI@Z		; operator delete
  0016c	83 c4 08	 add	 esp, 8
  0016f	c3		 ret	 0
__unwindfunclet$?Copy@CDrawingSymbolFactory@@SAPAVCDrawingSymbol@@PAV2@@Z$19:
  00170	68 c0 00 00 00	 push	 192			; 000000c0H
  00175	8b 45 a8	 mov	 eax, DWORD PTR $T23[ebp]
  00178	50		 push	 eax
  00179	e8 00 00 00 00	 call	 ??3@YAXPAXI@Z		; operator delete
  0017e	83 c4 08	 add	 esp, 8
  00181	c3		 ret	 0
__unwindfunclet$?Copy@CDrawingSymbolFactory@@SAPAVCDrawingSymbol@@PAV2@@Z$20:
  00182	68 c0 00 00 00	 push	 192			; 000000c0H
  00187	8b 45 a8	 mov	 eax, DWORD PTR $T22[ebp]
  0018a	50		 push	 eax
  0018b	e8 00 00 00 00	 call	 ??3@YAXPAXI@Z		; operator delete
  00190	83 c4 08	 add	 esp, 8
  00193	c3		 ret	 0
__unwindfunclet$?Copy@CDrawingSymbolFactory@@SAPAVCDrawingSymbol@@PAV2@@Z$21:
  00194	68 c0 00 00 00	 push	 192			; 000000c0H
  00199	8b 45 a8	 mov	 eax, DWORD PTR $T21[ebp]
  0019c	50		 push	 eax
  0019d	e8 00 00 00 00	 call	 ??3@YAXPAXI@Z		; operator delete
  001a2	83 c4 08	 add	 esp, 8
  001a5	c3		 ret	 0
__unwindfunclet$?Copy@CDrawingSymbolFactory@@SAPAVCDrawingSymbol@@PAV2@@Z$22:
  001a6	68 c0 00 00 00	 push	 192			; 000000c0H
  001ab	8b 45 a8	 mov	 eax, DWORD PTR $T20[ebp]
  001ae	50		 push	 eax
  001af	e8 00 00 00 00	 call	 ??3@YAXPAXI@Z		; operator delete
  001b4	83 c4 08	 add	 esp, 8
  001b7	c3		 ret	 0
__unwindfunclet$?Copy@CDrawingSymbolFactory@@SAPAVCDrawingSymbol@@PAV2@@Z$23:
  001b8	68 c0 00 00 00	 push	 192			; 000000c0H
  001bd	8b 45 a8	 mov	 eax, DWORD PTR $T19[ebp]
  001c0	50		 push	 eax
  001c1	e8 00 00 00 00	 call	 ??3@YAXPAXI@Z		; operator delete
  001c6	83 c4 08	 add	 esp, 8
  001c9	c3		 ret	 0
__unwindfunclet$?Copy@CDrawingSymbolFactory@@SAPAVCDrawingSymbol@@PAV2@@Z$24:
  001ca	68 c0 00 00 00	 push	 192			; 000000c0H
  001cf	8b 45 a8	 mov	 eax, DWORD PTR $T18[ebp]
  001d2	50		 push	 eax
  001d3	e8 00 00 00 00	 call	 ??3@YAXPAXI@Z		; operator delete
  001d8	83 c4 08	 add	 esp, 8
  001db	c3		 ret	 0
__unwindfunclet$?Copy@CDrawingSymbolFactory@@SAPAVCDrawingSymbol@@PAV2@@Z$25:
  001dc	68 c0 00 00 00	 push	 192			; 000000c0H
  001e1	8b 45 a8	 mov	 eax, DWORD PTR $T17[ebp]
  001e4	50		 push	 eax
  001e5	e8 00 00 00 00	 call	 ??3@YAXPAXI@Z		; operator delete
  001ea	83 c4 08	 add	 esp, 8
  001ed	c3		 ret	 0
__unwindfunclet$?Copy@CDrawingSymbolFactory@@SAPAVCDrawingSymbol@@PAV2@@Z$26:
  001ee	68 c0 00 00 00	 push	 192			; 000000c0H
  001f3	8b 45 a8	 mov	 eax, DWORD PTR $T16[ebp]
  001f6	50		 push	 eax
  001f7	e8 00 00 00 00	 call	 ??3@YAXPAXI@Z		; operator delete
  001fc	83 c4 08	 add	 esp, 8
  001ff	c3		 ret	 0
__unwindfunclet$?Copy@CDrawingSymbolFactory@@SAPAVCDrawingSymbol@@PAV2@@Z$27:
  00200	68 c0 00 00 00	 push	 192			; 000000c0H
  00205	8b 45 a8	 mov	 eax, DWORD PTR $T15[ebp]
  00208	50		 push	 eax
  00209	e8 00 00 00 00	 call	 ??3@YAXPAXI@Z		; operator delete
  0020e	83 c4 08	 add	 esp, 8
  00211	c3		 ret	 0
__unwindfunclet$?Copy@CDrawingSymbolFactory@@SAPAVCDrawingSymbol@@PAV2@@Z$28:
  00212	68 c0 00 00 00	 push	 192			; 000000c0H
  00217	8b 45 a8	 mov	 eax, DWORD PTR $T14[ebp]
  0021a	50		 push	 eax
  0021b	e8 00 00 00 00	 call	 ??3@YAXPAXI@Z		; operator delete
  00220	83 c4 08	 add	 esp, 8
  00223	c3		 ret	 0
__unwindfunclet$?Copy@CDrawingSymbolFactory@@SAPAVCDrawingSymbol@@PAV2@@Z$29:
  00224	68 c0 00 00 00	 push	 192			; 000000c0H
  00229	8b 45 a8	 mov	 eax, DWORD PTR $T13[ebp]
  0022c	50		 push	 eax
  0022d	e8 00 00 00 00	 call	 ??3@YAXPAXI@Z		; operator delete
  00232	83 c4 08	 add	 esp, 8
  00235	c3		 ret	 0
__unwindfunclet$?Copy@CDrawingSymbolFactory@@SAPAVCDrawingSymbol@@PAV2@@Z$30:
  00236	68 c0 00 00 00	 push	 192			; 000000c0H
  0023b	8b 45 a8	 mov	 eax, DWORD PTR $T12[ebp]
  0023e	50		 push	 eax
  0023f	e8 00 00 00 00	 call	 ??3@YAXPAXI@Z		; operator delete
  00244	83 c4 08	 add	 esp, 8
  00247	c3		 ret	 0
__unwindfunclet$?Copy@CDrawingSymbolFactory@@SAPAVCDrawingSymbol@@PAV2@@Z$31:
  00248	68 c0 00 00 00	 push	 192			; 000000c0H
  0024d	8b 45 a8	 mov	 eax, DWORD PTR $T11[ebp]
  00250	50		 push	 eax
  00251	e8 00 00 00 00	 call	 ??3@YAXPAXI@Z		; operator delete
  00256	83 c4 08	 add	 esp, 8
  00259	c3		 ret	 0
__unwindfunclet$?Copy@CDrawingSymbolFactory@@SAPAVCDrawingSymbol@@PAV2@@Z$32:
  0025a	68 c0 00 00 00	 push	 192			; 000000c0H
  0025f	8b 45 a8	 mov	 eax, DWORD PTR $T10[ebp]
  00262	50		 push	 eax
  00263	e8 00 00 00 00	 call	 ??3@YAXPAXI@Z		; operator delete
  00268	83 c4 08	 add	 esp, 8
  0026b	c3		 ret	 0
__unwindfunclet$?Copy@CDrawingSymbolFactory@@SAPAVCDrawingSymbol@@PAV2@@Z$33:
  0026c	68 c0 00 00 00	 push	 192			; 000000c0H
  00271	8b 45 a8	 mov	 eax, DWORD PTR $T9[ebp]
  00274	50		 push	 eax
  00275	e8 00 00 00 00	 call	 ??3@YAXPAXI@Z		; operator delete
  0027a	83 c4 08	 add	 esp, 8
  0027d	c3		 ret	 0
__unwindfunclet$?Copy@CDrawingSymbolFactory@@SAPAVCDrawingSymbol@@PAV2@@Z$34:
  0027e	68 c0 00 00 00	 push	 192			; 000000c0H
  00283	8b 45 a8	 mov	 eax, DWORD PTR $T8[ebp]
  00286	50		 push	 eax
  00287	e8 00 00 00 00	 call	 ??3@YAXPAXI@Z		; operator delete
  0028c	83 c4 08	 add	 esp, 8
  0028f	c3		 ret	 0
__unwindfunclet$?Copy@CDrawingSymbolFactory@@SAPAVCDrawingSymbol@@PAV2@@Z$35:
  00290	68 c0 00 00 00	 push	 192			; 000000c0H
  00295	8b 45 a8	 mov	 eax, DWORD PTR $T7[ebp]
  00298	50		 push	 eax
  00299	e8 00 00 00 00	 call	 ??3@YAXPAXI@Z		; operator delete
  0029e	83 c4 08	 add	 esp, 8
  002a1	c3		 ret	 0
  002a2	cc		 int	 3
  002a3	cc		 int	 3
  002a4	cc		 int	 3
  002a5	cc		 int	 3
  002a6	cc		 int	 3
__ehhandler$?Copy@CDrawingSymbolFactory@@SAPAVCDrawingSymbol@@PAV2@@Z:
  002a7	90		 npad	 1
  002a8	90		 npad	 1
  002a9	8b 54 24 08	 mov	 edx, DWORD PTR [esp+8]
  002ad	8d 42 0c	 lea	 eax, DWORD PTR [edx+12]
  002b0	8b 8a 54 ff ff
	ff		 mov	 ecx, DWORD PTR [edx-172]
  002b6	33 c8		 xor	 ecx, eax
  002b8	e8 00 00 00 00	 call	 @__security_check_cookie@4
  002bd	8b 4a fc	 mov	 ecx, DWORD PTR [edx-4]
  002c0	33 c8		 xor	 ecx, eax
  002c2	e8 00 00 00 00	 call	 @__security_check_cookie@4
  002c7	b8 00 00 00 00	 mov	 eax, OFFSET __ehfuncinfo$?Copy@CDrawingSymbolFactory@@SAPAVCDrawingSymbol@@PAV2@@Z
  002cc	e9 00 00 00 00	 jmp	 ___CxxFrameHandler3
text$x	ENDS
?Copy@CDrawingSymbolFactory@@SAPAVCDrawingSymbol@@PAV2@@Z ENDP ; CDrawingSymbolFactory::Copy
; Function compile flags: /Ogtp
; File D:\git\src\IBK\IBK_DRFN\ProjSrc\SrcChartEx\ChartAddIn\ChartAnalysisToolAddIn\Symbol\DrawingSymbolFactory.cpp
;	COMDAT ?__empty_global_delete@@YAXPAXI@Z
_TEXT	SEGMENT
___formal$ = 8						; size = 4
___formal$ = 12						; size = 4
?__empty_global_delete@@YAXPAXI@Z PROC			; __empty_global_delete, COMDAT

  00000	c2 00 00	 ret	 0
?__empty_global_delete@@YAXPAXI@Z ENDP			; __empty_global_delete
_TEXT	ENDS
; Function compile flags: /Ogtp
; File D:\git\src\IBK\IBK_DRFN\ProjSrc\SrcChartEx\ChartAddIn\ChartAnalysisToolAddIn\Symbol\DrawingSymbolFactory.cpp
;	COMDAT ?__empty_global_delete@@YAXPAX@Z
_TEXT	SEGMENT
___formal$ = 8						; size = 4
?__empty_global_delete@@YAXPAX@Z PROC			; __empty_global_delete, COMDAT

  00000	c2 00 00	 ret	 0
?__empty_global_delete@@YAXPAX@Z ENDP			; __empty_global_delete
_TEXT	ENDS
END
