; Listing generated by Microsoft (R) Optimizing Compiler Version 19.29.30145.0 

	TITLE	D:\git\src\IBK\IBK_DRFN\#DRfn-CS\_Obj\Symbol\DynamicBitmapLoad.obj
	.686P
	.XMM
	include listing.inc
	.model	flat

INCLUDELIB MSVCRT
INCLUDELIB OLDNAMES

PUBLIC	?__empty_global_delete@@YAXPAX@Z		; __empty_global_delete
PUBLIC	?__empty_global_delete@@YAXPAXI@Z		; __empty_global_delete
PUBLIC	??1CObject@@UAE@XZ				; CObject::~CObject
PUBLIC	?Serialize@CObject@@UAEXAAVCArchive@@@Z		; CObject::Serialize
PUBLIC	?AssertValid@CObject@@UBEXXZ			; CObject::AssertValid
PUBLIC	?Dump@CObject@@UBEXAAVCDumpContext@@@Z		; CObject::Dump
PUBLIC	??HATL@@YA?AV?$CStringT@DV?$StrTraitMFC_DLL@DV?$ChTraitsCRT@D@ATL@@@@@0@ABV10@0@Z ; ATL::operator+
PUBLIC	??1CGdiObject@@UAE@XZ				; CGdiObject::~CGdiObject
PUBLIC	??_GCGdiObject@@UAEPAXI@Z			; CGdiObject::`scalar deleting destructor'
PUBLIC	??1CBitmap@@UAE@XZ				; CBitmap::~CBitmap
PUBLIC	??_GCBitmap@@UAEPAXI@Z				; CBitmap::`scalar deleting destructor'
PUBLIC	?SetFilePath@CDynamicBitmapLoad@@QAEXABV?$CStringT@DV?$StrTraitMFC_DLL@DV?$ChTraitsCRT@D@ATL@@@@@ATL@@@Z ; CDynamicBitmapLoad::SetFilePath
PUBLIC	??0CDynamicBitmapLoad@@QAE@XZ			; CDynamicBitmapLoad::CDynamicBitmapLoad
PUBLIC	??1CDynamicBitmapLoad@@UAE@XZ			; CDynamicBitmapLoad::~CDynamicBitmapLoad
PUBLIC	?LoadBitmapA@CDynamicBitmapLoad@@QAEXPAVCDynamicBitmapLoadButton@@ABV?$CStringT@DV?$StrTraitMFC_DLL@DV?$ChTraitsCRT@D@ATL@@@@@ATL@@1@Z ; CDynamicBitmapLoad::LoadBitmapA
PUBLIC	?LoadButtonBitmap@CDynamicBitmapLoad@@AAEXPBDAAVCBitmap@@PAVCPalette@@@Z ; CDynamicBitmapLoad::LoadButtonBitmap
PUBLIC	?AttachBitmapToButton@CDynamicBitmapLoad@@AAEXAAVCPoint@@HHPAVCDynamicBitmapLoadButton@@V?$CStringT@DV?$StrTraitMFC_DLL@DV?$ChTraitsCRT@D@ATL@@@@@ATL@@2@Z ; CDynamicBitmapLoad::AttachBitmapToButton
PUBLIC	?GetImageSize@CDynamicBitmapLoad@@AAE_NAAH0@Z	; CDynamicBitmapLoad::GetImageSize
PUBLIC	?ButtonMoveWindow@CDynamicBitmapLoad@@AAEXPAVCDynamicBitmapLoadButton@@AAVCPoint@@HH@Z ; CDynamicBitmapLoad::ButtonMoveWindow
PUBLIC	?AutoLoad@CDynamicBitmapLoad@@AAEXPAVCDynamicBitmapLoadButton@@V?$CStringT@DV?$StrTraitMFC_DLL@DV?$ChTraitsCRT@D@ATL@@@@@ATL@@1@Z ; CDynamicBitmapLoad::AutoLoad
PUBLIC	?GetFilePath@CDynamicBitmapLoad@@AAE?AV?$CStringT@DV?$StrTraitMFC_DLL@DV?$ChTraitsCRT@D@ATL@@@@@ATL@@V23@@Z ; CDynamicBitmapLoad::GetFilePath
PUBLIC	??_GCDynamicBitmapLoad@@UAEPAXI@Z		; CDynamicBitmapLoad::`scalar deleting destructor'
PUBLIC	??_R0PAVCException@@@8				; CException * `RTTI Type Descriptor'
PUBLIC	??_7CGdiObject@@6B@				; CGdiObject::`vftable'
PUBLIC	??_7CBitmap@@6B@				; CBitmap::`vftable'
PUBLIC	??_C@_0HD@JJCHHHNK@C?3?2Program?5Files?5?$CIx86?$CJ?2Microsof@ ; `string'
PUBLIC	??_C@_0BP@OIEOKIDM@Exception?5thrown?5in?5destructor@ ; `string'
PUBLIC	??_C@_0BB@HBOOMJBF@?$CFTs?5?$CI?$CFTs?3?$CFd?$CJ?6?$CFTs@ ; `string'
PUBLIC	??_C@_0N@OMEMOKLE@?$CFTs?5?$CI?$CFTs?3?$CFd?$CJ@ ; `string'
PUBLIC	??_R0?AVCObject@@@8				; CObject `RTTI Type Descriptor'
PUBLIC	??_R3CObject@@8					; CObject::`RTTI Class Hierarchy Descriptor'
PUBLIC	??_R2CObject@@8					; CObject::`RTTI Base Class Array'
PUBLIC	??_R1A@?0A@EA@CObject@@8			; CObject::`RTTI Base Class Descriptor at (0,-1,0,64)'
PUBLIC	??_R4CGdiObject@@6B@				; CGdiObject::`RTTI Complete Object Locator'
PUBLIC	??_R0?AVCGdiObject@@@8				; CGdiObject `RTTI Type Descriptor'
PUBLIC	??_R3CGdiObject@@8				; CGdiObject::`RTTI Class Hierarchy Descriptor'
PUBLIC	??_R2CGdiObject@@8				; CGdiObject::`RTTI Base Class Array'
PUBLIC	??_R1A@?0A@EA@CGdiObject@@8			; CGdiObject::`RTTI Base Class Descriptor at (0,-1,0,64)'
PUBLIC	??_R4CBitmap@@6B@				; CBitmap::`RTTI Complete Object Locator'
PUBLIC	??_R0?AVCBitmap@@@8				; CBitmap `RTTI Type Descriptor'
PUBLIC	??_R3CBitmap@@8					; CBitmap::`RTTI Class Hierarchy Descriptor'
PUBLIC	??_R2CBitmap@@8					; CBitmap::`RTTI Base Class Array'
PUBLIC	??_R1A@?0A@EA@CBitmap@@8			; CBitmap::`RTTI Base Class Descriptor at (0,-1,0,64)'
PUBLIC	??_7CDynamicBitmapLoad@@6B@			; CDynamicBitmapLoad::`vftable'
PUBLIC	??_C@_04HIBGFPH@NULL@				; `string'
PUBLIC	??_C@_0M@EANNFIMC@left_up?4bmp@			; `string'
PUBLIC	??_R4CDynamicBitmapLoad@@6B@			; CDynamicBitmapLoad::`RTTI Complete Object Locator'
PUBLIC	??_R0?AVCDynamicBitmapLoad@@@8			; CDynamicBitmapLoad `RTTI Type Descriptor'
PUBLIC	??_R3CDynamicBitmapLoad@@8			; CDynamicBitmapLoad::`RTTI Class Hierarchy Descriptor'
PUBLIC	??_R2CDynamicBitmapLoad@@8			; CDynamicBitmapLoad::`RTTI Base Class Array'
PUBLIC	??_R1A@?0A@EA@CDynamicBitmapLoad@@8		; CDynamicBitmapLoad::`RTTI Base Class Descriptor at (0,-1,0,64)'
EXTRN	??3@YAXPAX@Z:PROC				; operator delete
EXTRN	??3@YAXPAXI@Z:PROC				; operator delete
EXTRN	?__global_delete@@YAXPAXI@Z:PROC		; __global_delete
EXTRN	__imp__GetObjectA@12:PROC
EXTRN	__imp__SendMessageA@16:PROC
EXTRN	__imp__LoadImageA@24:PROC
EXTRN	__imp_?Concatenate@?$CSimpleStringT@D$00@ATL@@KAXAAV12@PBDH1H@Z:PROC
EXTRN	__imp_??0?$CStringT@DV?$StrTraitMFC_DLL@DV?$ChTraitsCRT@D@ATL@@@@@ATL@@QAE@XZ:PROC
EXTRN	__imp_??0?$CStringT@DV?$StrTraitMFC_DLL@DV?$ChTraitsCRT@D@ATL@@@@@ATL@@QAE@PAUIAtlStringMgr@1@@Z:PROC
EXTRN	__imp_??0?$CStringT@DV?$StrTraitMFC_DLL@DV?$ChTraitsCRT@D@ATL@@@@@ATL@@QAE@ABV01@@Z:PROC
EXTRN	__imp_??0?$CStringT@DV?$StrTraitMFC_DLL@DV?$ChTraitsCRT@D@ATL@@@@@ATL@@QAE@PBD@Z:PROC
EXTRN	__imp_??1?$CStringT@DV?$StrTraitMFC_DLL@DV?$ChTraitsCRT@D@ATL@@@@@ATL@@QAE@XZ:PROC
EXTRN	__imp_??4?$CStringT@DV?$StrTraitMFC_DLL@DV?$ChTraitsCRT@D@ATL@@@@@ATL@@QAEAAV01@ABV01@@Z:PROC
EXTRN	__imp_?GetManager@?$CStringT@DV?$StrTraitMFC_DLL@DV?$ChTraitsCRT@D@ATL@@@@@ATL@@QBEPAUIAtlStringMgr@2@XZ:PROC
EXTRN	__imp_?Compare@?$CStringT@DV?$StrTraitMFC_DLL@DV?$ChTraitsCRT@D@ATL@@@@@ATL@@QBEHPBD@Z:PROC
EXTRN	__imp_?Format@?$CStringT@DV?$StrTraitMFC_DLL@DV?$ChTraitsCRT@D@ATL@@@@@ATL@@QAAXPBDZZ:PROC
EXTRN	?GetRuntimeClass@CGdiObject@@UBEPAUCRuntimeClass@@XZ:PROC ; CGdiObject::GetRuntimeClass
EXTRN	?Attach@CGdiObject@@QAEHPAX@Z:PROC		; CGdiObject::Attach
EXTRN	?DeleteObject@CGdiObject@@QAEHXZ:PROC		; CGdiObject::DeleteObject
EXTRN	??_ECGdiObject@@UAEPAXI@Z:PROC			; CGdiObject::`vector deleting destructor'
EXTRN	?GetRuntimeClass@CBitmap@@UBEPAUCRuntimeClass@@XZ:PROC ; CBitmap::GetRuntimeClass
EXTRN	??_ECBitmap@@UAEPAXI@Z:PROC			; CBitmap::`vector deleting destructor'
EXTRN	?MoveWindow@CWnd@@QAEXHHHHH@Z:PROC		; CWnd::MoveWindow
EXTRN	?ShowWindow@CWnd@@QAEHH@Z:PROC			; CWnd::ShowWindow
EXTRN	?AfxMessageBox@@YGHPBDII@Z:PROC			; AfxMessageBox
EXTRN	??_ECDynamicBitmapLoad@@UAEPAXI@Z:PROC		; CDynamicBitmapLoad::`vector deleting destructor'
EXTRN	?Load@CDynamicBitmapLoadButton@@QAEXPBD0@Z:PROC	; CDynamicBitmapLoadButton::Load
EXTRN	?SizeToContent@CDynamicBitmapLoadButton@@QAEXXZ:PROC ; CDynamicBitmapLoadButton::SizeToContent
EXTRN	__imp___findfirst64i32:PROC
EXTRN	@__security_check_cookie@4:PROC
EXTRN	___CxxFrameHandler3:PROC
EXTRN	??_7type_info@@6B@:QWORD			; type_info::`vftable'
EXTRN	___security_cookie:DWORD
;	COMDAT ??_R1A@?0A@EA@CDynamicBitmapLoad@@8
rdata$r	SEGMENT
??_R1A@?0A@EA@CDynamicBitmapLoad@@8 DD FLAT:??_R0?AVCDynamicBitmapLoad@@@8 ; CDynamicBitmapLoad::`RTTI Base Class Descriptor at (0,-1,0,64)'
	DD	00H
	DD	00H
	DD	0ffffffffH
	DD	00H
	DD	040H
	DD	FLAT:??_R3CDynamicBitmapLoad@@8
rdata$r	ENDS
;	COMDAT ??_R2CDynamicBitmapLoad@@8
rdata$r	SEGMENT
??_R2CDynamicBitmapLoad@@8 DD FLAT:??_R1A@?0A@EA@CDynamicBitmapLoad@@8 ; CDynamicBitmapLoad::`RTTI Base Class Array'
rdata$r	ENDS
;	COMDAT ??_R3CDynamicBitmapLoad@@8
rdata$r	SEGMENT
??_R3CDynamicBitmapLoad@@8 DD 00H			; CDynamicBitmapLoad::`RTTI Class Hierarchy Descriptor'
	DD	00H
	DD	01H
	DD	FLAT:??_R2CDynamicBitmapLoad@@8
rdata$r	ENDS
;	COMDAT ??_R0?AVCDynamicBitmapLoad@@@8
data$rs	SEGMENT
??_R0?AVCDynamicBitmapLoad@@@8 DD FLAT:??_7type_info@@6B@ ; CDynamicBitmapLoad `RTTI Type Descriptor'
	DD	00H
	DB	'.?AVCDynamicBitmapLoad@@', 00H
data$rs	ENDS
;	COMDAT ??_R4CDynamicBitmapLoad@@6B@
rdata$r	SEGMENT
??_R4CDynamicBitmapLoad@@6B@ DD 00H			; CDynamicBitmapLoad::`RTTI Complete Object Locator'
	DD	00H
	DD	00H
	DD	FLAT:??_R0?AVCDynamicBitmapLoad@@@8
	DD	FLAT:??_R3CDynamicBitmapLoad@@8
rdata$r	ENDS
;	COMDAT ??_C@_0M@EANNFIMC@left_up?4bmp@
CONST	SEGMENT
??_C@_0M@EANNFIMC@left_up?4bmp@ DB 'left_up.bmp', 00H	; `string'
CONST	ENDS
;	COMDAT ??_C@_04HIBGFPH@NULL@
CONST	SEGMENT
??_C@_04HIBGFPH@NULL@ DB 'NULL', 00H			; `string'
CONST	ENDS
;	COMDAT ??_7CDynamicBitmapLoad@@6B@
CONST	SEGMENT
??_7CDynamicBitmapLoad@@6B@ DD FLAT:??_R4CDynamicBitmapLoad@@6B@ ; CDynamicBitmapLoad::`vftable'
	DD	FLAT:??_ECDynamicBitmapLoad@@UAEPAXI@Z
CONST	ENDS
;	COMDAT ??_R1A@?0A@EA@CBitmap@@8
rdata$r	SEGMENT
??_R1A@?0A@EA@CBitmap@@8 DD FLAT:??_R0?AVCBitmap@@@8	; CBitmap::`RTTI Base Class Descriptor at (0,-1,0,64)'
	DD	02H
	DD	00H
	DD	0ffffffffH
	DD	00H
	DD	040H
	DD	FLAT:??_R3CBitmap@@8
rdata$r	ENDS
;	COMDAT ??_R2CBitmap@@8
rdata$r	SEGMENT
??_R2CBitmap@@8 DD FLAT:??_R1A@?0A@EA@CBitmap@@8	; CBitmap::`RTTI Base Class Array'
	DD	FLAT:??_R1A@?0A@EA@CGdiObject@@8
	DD	FLAT:??_R1A@?0A@EA@CObject@@8
rdata$r	ENDS
;	COMDAT ??_R3CBitmap@@8
rdata$r	SEGMENT
??_R3CBitmap@@8 DD 00H					; CBitmap::`RTTI Class Hierarchy Descriptor'
	DD	00H
	DD	03H
	DD	FLAT:??_R2CBitmap@@8
rdata$r	ENDS
;	COMDAT ??_R0?AVCBitmap@@@8
data$rs	SEGMENT
??_R0?AVCBitmap@@@8 DD FLAT:??_7type_info@@6B@		; CBitmap `RTTI Type Descriptor'
	DD	00H
	DB	'.?AVCBitmap@@', 00H
data$rs	ENDS
;	COMDAT ??_R4CBitmap@@6B@
rdata$r	SEGMENT
??_R4CBitmap@@6B@ DD 00H				; CBitmap::`RTTI Complete Object Locator'
	DD	00H
	DD	00H
	DD	FLAT:??_R0?AVCBitmap@@@8
	DD	FLAT:??_R3CBitmap@@8
rdata$r	ENDS
;	COMDAT ??_R1A@?0A@EA@CGdiObject@@8
rdata$r	SEGMENT
??_R1A@?0A@EA@CGdiObject@@8 DD FLAT:??_R0?AVCGdiObject@@@8 ; CGdiObject::`RTTI Base Class Descriptor at (0,-1,0,64)'
	DD	01H
	DD	00H
	DD	0ffffffffH
	DD	00H
	DD	040H
	DD	FLAT:??_R3CGdiObject@@8
rdata$r	ENDS
;	COMDAT ??_R2CGdiObject@@8
rdata$r	SEGMENT
??_R2CGdiObject@@8 DD FLAT:??_R1A@?0A@EA@CGdiObject@@8	; CGdiObject::`RTTI Base Class Array'
	DD	FLAT:??_R1A@?0A@EA@CObject@@8
rdata$r	ENDS
;	COMDAT ??_R3CGdiObject@@8
rdata$r	SEGMENT
??_R3CGdiObject@@8 DD 00H				; CGdiObject::`RTTI Class Hierarchy Descriptor'
	DD	00H
	DD	02H
	DD	FLAT:??_R2CGdiObject@@8
rdata$r	ENDS
;	COMDAT ??_R0?AVCGdiObject@@@8
data$rs	SEGMENT
??_R0?AVCGdiObject@@@8 DD FLAT:??_7type_info@@6B@	; CGdiObject `RTTI Type Descriptor'
	DD	00H
	DB	'.?AVCGdiObject@@', 00H
data$rs	ENDS
;	COMDAT ??_R4CGdiObject@@6B@
rdata$r	SEGMENT
??_R4CGdiObject@@6B@ DD 00H				; CGdiObject::`RTTI Complete Object Locator'
	DD	00H
	DD	00H
	DD	FLAT:??_R0?AVCGdiObject@@@8
	DD	FLAT:??_R3CGdiObject@@8
rdata$r	ENDS
;	COMDAT ??_R1A@?0A@EA@CObject@@8
rdata$r	SEGMENT
??_R1A@?0A@EA@CObject@@8 DD FLAT:??_R0?AVCObject@@@8	; CObject::`RTTI Base Class Descriptor at (0,-1,0,64)'
	DD	00H
	DD	00H
	DD	0ffffffffH
	DD	00H
	DD	040H
	DD	FLAT:??_R3CObject@@8
rdata$r	ENDS
;	COMDAT ??_R2CObject@@8
rdata$r	SEGMENT
??_R2CObject@@8 DD FLAT:??_R1A@?0A@EA@CObject@@8	; CObject::`RTTI Base Class Array'
rdata$r	ENDS
;	COMDAT ??_R3CObject@@8
rdata$r	SEGMENT
??_R3CObject@@8 DD 00H					; CObject::`RTTI Class Hierarchy Descriptor'
	DD	00H
	DD	01H
	DD	FLAT:??_R2CObject@@8
rdata$r	ENDS
;	COMDAT ??_R0?AVCObject@@@8
data$rs	SEGMENT
??_R0?AVCObject@@@8 DD FLAT:??_7type_info@@6B@		; CObject `RTTI Type Descriptor'
	DD	00H
	DB	'.?AVCObject@@', 00H
data$rs	ENDS
;	COMDAT ??_C@_0N@OMEMOKLE@?$CFTs?5?$CI?$CFTs?3?$CFd?$CJ@
CONST	SEGMENT
??_C@_0N@OMEMOKLE@?$CFTs?5?$CI?$CFTs?3?$CFd?$CJ@ DB '%Ts (%Ts:%d)', 00H ; `string'
CONST	ENDS
;	COMDAT ??_C@_0BB@HBOOMJBF@?$CFTs?5?$CI?$CFTs?3?$CFd?$CJ?6?$CFTs@
CONST	SEGMENT
??_C@_0BB@HBOOMJBF@?$CFTs?5?$CI?$CFTs?3?$CFd?$CJ?6?$CFTs@ DB '%Ts (%Ts:%d'
	DB	')', 0aH, '%Ts', 00H				; `string'
CONST	ENDS
;	COMDAT ??_C@_0BP@OIEOKIDM@Exception?5thrown?5in?5destructor@
CONST	SEGMENT
??_C@_0BP@OIEOKIDM@Exception?5thrown?5in?5destructor@ DB 'Exception throw'
	DB	'n in destructor', 00H			; `string'
CONST	ENDS
;	COMDAT ??_C@_0HD@JJCHHHNK@C?3?2Program?5Files?5?$CIx86?$CJ?2Microsof@
CONST	SEGMENT
??_C@_0HD@JJCHHHNK@C?3?2Program?5Files?5?$CIx86?$CJ?2Microsof@ DB 'C:\Pro'
	DB	'gram Files (x86)\Microsoft Visual Studio\2019\Community\VC\To'
	DB	'ols\MSVC\14.29.30133\atlmfc\include\afxwin1.inl', 00H ; `string'
CONST	ENDS
;	COMDAT ??_7CBitmap@@6B@
CONST	SEGMENT
??_7CBitmap@@6B@ DD FLAT:??_R4CBitmap@@6B@		; CBitmap::`vftable'
	DD	FLAT:?GetRuntimeClass@CBitmap@@UBEPAUCRuntimeClass@@XZ
	DD	FLAT:??_ECBitmap@@UAEPAXI@Z
	DD	FLAT:?Serialize@CObject@@UAEXAAVCArchive@@@Z
	DD	FLAT:?AssertValid@CObject@@UBEXXZ
	DD	FLAT:?Dump@CObject@@UBEXAAVCDumpContext@@@Z
CONST	ENDS
;	COMDAT ??_7CGdiObject@@6B@
CONST	SEGMENT
??_7CGdiObject@@6B@ DD FLAT:??_R4CGdiObject@@6B@	; CGdiObject::`vftable'
	DD	FLAT:?GetRuntimeClass@CGdiObject@@UBEPAUCRuntimeClass@@XZ
	DD	FLAT:??_ECGdiObject@@UAEPAXI@Z
	DD	FLAT:?Serialize@CObject@@UAEXAAVCArchive@@@Z
	DD	FLAT:?AssertValid@CObject@@UBEXXZ
	DD	FLAT:?Dump@CObject@@UBEXAAVCDumpContext@@@Z
CONST	ENDS
;	COMDAT ??_R0PAVCException@@@8
data$r	SEGMENT
??_R0PAVCException@@@8 DD FLAT:??_7type_info@@6B@	; CException * `RTTI Type Descriptor'
	DD	00H
	DB	'.PAVCException@@', 00H
data$r	ENDS
;	COMDAT xdata$x
xdata$x	SEGMENT
__unwindtable$?GetFilePath@CDynamicBitmapLoad@@AAE?AV?$CStringT@DV?$StrTraitMFC_DLL@DV?$ChTraitsCRT@D@ATL@@@@@ATL@@V23@@Z DD 0ffffffffH
	DD	FLAT:__unwindfunclet$?GetFilePath@CDynamicBitmapLoad@@AAE?AV?$CStringT@DV?$StrTraitMFC_DLL@DV?$ChTraitsCRT@D@ATL@@@@@ATL@@V23@@Z$0
	DD	00H
	DD	FLAT:__unwindfunclet$?GetFilePath@CDynamicBitmapLoad@@AAE?AV?$CStringT@DV?$StrTraitMFC_DLL@DV?$ChTraitsCRT@D@ATL@@@@@ATL@@V23@@Z$1
__ehfuncinfo$?GetFilePath@CDynamicBitmapLoad@@AAE?AV?$CStringT@DV?$StrTraitMFC_DLL@DV?$ChTraitsCRT@D@ATL@@@@@ATL@@V23@@Z DD 019930522H
	DD	02H
	DD	FLAT:__unwindtable$?GetFilePath@CDynamicBitmapLoad@@AAE?AV?$CStringT@DV?$StrTraitMFC_DLL@DV?$ChTraitsCRT@D@ATL@@@@@ATL@@V23@@Z
	DD	2 DUP(00H)
	DD	2 DUP(00H)
	DD	00H
	DD	01H
xdata$x	ENDS
;	COMDAT xdata$x
xdata$x	SEGMENT
__unwindtable$?AutoLoad@CDynamicBitmapLoad@@AAEXPAVCDynamicBitmapLoadButton@@V?$CStringT@DV?$StrTraitMFC_DLL@DV?$ChTraitsCRT@D@ATL@@@@@ATL@@1@Z DD 0ffffffffH
	DD	FLAT:__unwindfunclet$?AutoLoad@CDynamicBitmapLoad@@AAEXPAVCDynamicBitmapLoadButton@@V?$CStringT@DV?$StrTraitMFC_DLL@DV?$ChTraitsCRT@D@ATL@@@@@ATL@@1@Z$0
	DD	00H
	DD	FLAT:__unwindfunclet$?AutoLoad@CDynamicBitmapLoad@@AAEXPAVCDynamicBitmapLoadButton@@V?$CStringT@DV?$StrTraitMFC_DLL@DV?$ChTraitsCRT@D@ATL@@@@@ATL@@1@Z$1
__ehfuncinfo$?AutoLoad@CDynamicBitmapLoad@@AAEXPAVCDynamicBitmapLoadButton@@V?$CStringT@DV?$StrTraitMFC_DLL@DV?$ChTraitsCRT@D@ATL@@@@@ATL@@1@Z DD 019930522H
	DD	02H
	DD	FLAT:__unwindtable$?AutoLoad@CDynamicBitmapLoad@@AAEXPAVCDynamicBitmapLoadButton@@V?$CStringT@DV?$StrTraitMFC_DLL@DV?$ChTraitsCRT@D@ATL@@@@@ATL@@1@Z
	DD	2 DUP(00H)
	DD	2 DUP(00H)
	DD	00H
	DD	01H
xdata$x	ENDS
;	COMDAT xdata$x
xdata$x	SEGMENT
__unwindtable$?GetImageSize@CDynamicBitmapLoad@@AAE_NAAH0@Z DD 0ffffffffH
	DD	FLAT:__unwindfunclet$?GetImageSize@CDynamicBitmapLoad@@AAE_NAAH0@Z$0
	DD	00H
	DD	FLAT:__unwindfunclet$?GetImageSize@CDynamicBitmapLoad@@AAE_NAAH0@Z$2
	DD	00H
	DD	FLAT:__unwindfunclet$?GetImageSize@CDynamicBitmapLoad@@AAE_NAAH0@Z$3
__ehfuncinfo$?GetImageSize@CDynamicBitmapLoad@@AAE_NAAH0@Z DD 019930522H
	DD	03H
	DD	FLAT:__unwindtable$?GetImageSize@CDynamicBitmapLoad@@AAE_NAAH0@Z
	DD	2 DUP(00H)
	DD	2 DUP(00H)
	DD	00H
	DD	01H
xdata$x	ENDS
;	COMDAT xdata$x
xdata$x	SEGMENT
__ehfuncinfo$?AttachBitmapToButton@CDynamicBitmapLoad@@AAEXAAVCPoint@@HHPAVCDynamicBitmapLoadButton@@V?$CStringT@DV?$StrTraitMFC_DLL@DV?$ChTraitsCRT@D@ATL@@@@@ATL@@2@Z DD 019930522H
	DD	07H
	DD	FLAT:__unwindtable$?AttachBitmapToButton@CDynamicBitmapLoad@@AAEXAAVCPoint@@HHPAVCDynamicBitmapLoadButton@@V?$CStringT@DV?$StrTraitMFC_DLL@DV?$ChTraitsCRT@D@ATL@@@@@ATL@@2@Z
	DD	2 DUP(00H)
	DD	2 DUP(00H)
	DD	00H
	DD	01H
__unwindtable$?AttachBitmapToButton@CDynamicBitmapLoad@@AAEXAAVCPoint@@HHPAVCDynamicBitmapLoadButton@@V?$CStringT@DV?$StrTraitMFC_DLL@DV?$ChTraitsCRT@D@ATL@@@@@ATL@@2@Z DD 0ffffffffH
	DD	FLAT:__unwindfunclet$?AttachBitmapToButton@CDynamicBitmapLoad@@AAEXAAVCPoint@@HHPAVCDynamicBitmapLoadButton@@V?$CStringT@DV?$StrTraitMFC_DLL@DV?$ChTraitsCRT@D@ATL@@@@@ATL@@2@Z$0
	DD	00H
	DD	FLAT:__unwindfunclet$?AttachBitmapToButton@CDynamicBitmapLoad@@AAEXAAVCPoint@@HHPAVCDynamicBitmapLoadButton@@V?$CStringT@DV?$StrTraitMFC_DLL@DV?$ChTraitsCRT@D@ATL@@@@@ATL@@2@Z$1
	DD	01H
	DD	FLAT:__unwindfunclet$?AttachBitmapToButton@CDynamicBitmapLoad@@AAEXAAVCPoint@@HHPAVCDynamicBitmapLoadButton@@V?$CStringT@DV?$StrTraitMFC_DLL@DV?$ChTraitsCRT@D@ATL@@@@@ATL@@2@Z$3
	DD	02H
	DD	FLAT:__unwindfunclet$?AttachBitmapToButton@CDynamicBitmapLoad@@AAEXAAVCPoint@@HHPAVCDynamicBitmapLoadButton@@V?$CStringT@DV?$StrTraitMFC_DLL@DV?$ChTraitsCRT@D@ATL@@@@@ATL@@2@Z$5
	DD	03H
	DD	FLAT:__unwindfunclet$?AttachBitmapToButton@CDynamicBitmapLoad@@AAEXAAVCPoint@@HHPAVCDynamicBitmapLoadButton@@V?$CStringT@DV?$StrTraitMFC_DLL@DV?$ChTraitsCRT@D@ATL@@@@@ATL@@2@Z$6
	DD	03H
	DD	FLAT:__unwindfunclet$?AttachBitmapToButton@CDynamicBitmapLoad@@AAEXAAVCPoint@@HHPAVCDynamicBitmapLoadButton@@V?$CStringT@DV?$StrTraitMFC_DLL@DV?$ChTraitsCRT@D@ATL@@@@@ATL@@2@Z$8
	DD	05H
	DD	FLAT:__unwindfunclet$?AttachBitmapToButton@CDynamicBitmapLoad@@AAEXAAVCPoint@@HHPAVCDynamicBitmapLoadButton@@V?$CStringT@DV?$StrTraitMFC_DLL@DV?$ChTraitsCRT@D@ATL@@@@@ATL@@2@Z$9
xdata$x	ENDS
;	COMDAT xdata$x
xdata$x	SEGMENT
__unwindtable$?LoadBitmapA@CDynamicBitmapLoad@@QAEXPAVCDynamicBitmapLoadButton@@ABV?$CStringT@DV?$StrTraitMFC_DLL@DV?$ChTraitsCRT@D@ATL@@@@@ATL@@1@Z DD 0ffffffffH
	DD	FLAT:__unwindfunclet$?LoadBitmapA@CDynamicBitmapLoad@@QAEXPAVCDynamicBitmapLoadButton@@ABV?$CStringT@DV?$StrTraitMFC_DLL@DV?$ChTraitsCRT@D@ATL@@@@@ATL@@1@Z$2
	DD	00H
	DD	FLAT:__unwindfunclet$?LoadBitmapA@CDynamicBitmapLoad@@QAEXPAVCDynamicBitmapLoadButton@@ABV?$CStringT@DV?$StrTraitMFC_DLL@DV?$ChTraitsCRT@D@ATL@@@@@ATL@@1@Z$4
	DD	00H
	DD	FLAT:__unwindfunclet$?LoadBitmapA@CDynamicBitmapLoad@@QAEXPAVCDynamicBitmapLoadButton@@ABV?$CStringT@DV?$StrTraitMFC_DLL@DV?$ChTraitsCRT@D@ATL@@@@@ATL@@1@Z$5
	DD	0ffffffffH
	DD	FLAT:__unwindfunclet$?LoadBitmapA@CDynamicBitmapLoad@@QAEXPAVCDynamicBitmapLoadButton@@ABV?$CStringT@DV?$StrTraitMFC_DLL@DV?$ChTraitsCRT@D@ATL@@@@@ATL@@1@Z$0
__ehfuncinfo$?LoadBitmapA@CDynamicBitmapLoad@@QAEXPAVCDynamicBitmapLoadButton@@ABV?$CStringT@DV?$StrTraitMFC_DLL@DV?$ChTraitsCRT@D@ATL@@@@@ATL@@1@Z DD 019930522H
	DD	04H
	DD	FLAT:__unwindtable$?LoadBitmapA@CDynamicBitmapLoad@@QAEXPAVCDynamicBitmapLoadButton@@ABV?$CStringT@DV?$StrTraitMFC_DLL@DV?$ChTraitsCRT@D@ATL@@@@@ATL@@1@Z
	DD	2 DUP(00H)
	DD	2 DUP(00H)
	DD	00H
	DD	01H
xdata$x	ENDS
;	COMDAT xdata$x
xdata$x	SEGMENT
__catchsym$??1CGdiObject@@UAE@XZ$3 DD 00H
	DD	FLAT:??_R0PAVCException@@@8
	DD	0fffffde4H
	DD	FLAT:__catch$??1CGdiObject@@UAE@XZ$0
__tryblocktable$??1CGdiObject@@UAE@XZ DD 00H
	DD	00H
	DD	02H
	DD	01H
	DD	FLAT:__catchsym$??1CGdiObject@@UAE@XZ$3
__unwindtable$??1CGdiObject@@UAE@XZ DD 0ffffffffH
	DD	00H
	DD	0ffffffffH
	DD	00H
	DD	01H
	DD	FLAT:__unwindfunclet$??1CGdiObject@@UAE@XZ$2
__ehfuncinfo$??1CGdiObject@@UAE@XZ DD 019930522H
	DD	03H
	DD	FLAT:__unwindtable$??1CGdiObject@@UAE@XZ
	DD	01H
	DD	FLAT:__tryblocktable$??1CGdiObject@@UAE@XZ
	DD	2 DUP(00H)
	DD	00H
	DD	05H
xdata$x	ENDS
;	COMDAT xdata$x
xdata$x	SEGMENT
__unwindtable$??HATL@@YA?AV?$CStringT@DV?$StrTraitMFC_DLL@DV?$ChTraitsCRT@D@ATL@@@@@0@ABV10@0@Z DD 0ffffffffH
	DD	FLAT:__unwindfunclet$??HATL@@YA?AV?$CStringT@DV?$StrTraitMFC_DLL@DV?$ChTraitsCRT@D@ATL@@@@@0@ABV10@0@Z$0
__ehfuncinfo$??HATL@@YA?AV?$CStringT@DV?$StrTraitMFC_DLL@DV?$ChTraitsCRT@D@ATL@@@@@0@ABV10@0@Z DD 019930522H
	DD	01H
	DD	FLAT:__unwindtable$??HATL@@YA?AV?$CStringT@DV?$StrTraitMFC_DLL@DV?$ChTraitsCRT@D@ATL@@@@@0@ABV10@0@Z
	DD	2 DUP(00H)
	DD	2 DUP(00H)
	DD	00H
	DD	01H
xdata$x	ENDS
; Function compile flags: /Ogtp
; File D:\git\src\IBK\IBK_DRFN\ProjSrc\SrcChartEx\ChartAddIn\ChartAnalysisToolAddIn\Symbol\DynamicBitmapLoad.cpp
;	COMDAT ??_GCDynamicBitmapLoad@@UAEPAXI@Z
_TEXT	SEGMENT
___flags$ = 8						; size = 4
??_GCDynamicBitmapLoad@@UAEPAXI@Z PROC			; CDynamicBitmapLoad::`scalar deleting destructor', COMDAT
; _this$ = ecx
  00000	55		 push	 ebp
  00001	8b ec		 mov	 ebp, esp

; 32   : {

  00003	56		 push	 esi
  00004	8b f1		 mov	 esi, ecx

; 33   : 
; 34   : }

  00006	8d 4e 14	 lea	 ecx, DWORD PTR [esi+20]
  00009	c7 06 00 00 00
	00		 mov	 DWORD PTR [esi], OFFSET ??_7CDynamicBitmapLoad@@6B@
  0000f	ff 15 00 00 00
	00		 call	 DWORD PTR __imp_??1?$CStringT@DV?$StrTraitMFC_DLL@DV?$ChTraitsCRT@D@ATL@@@@@ATL@@QAE@XZ
  00015	f6 45 08 01	 test	 BYTE PTR ___flags$[ebp], 1
  00019	74 0b		 je	 SHORT $LN7@scalar
  0001b	6a 18		 push	 24			; 00000018H
  0001d	56		 push	 esi
  0001e	e8 00 00 00 00	 call	 ??3@YAXPAXI@Z		; operator delete
  00023	83 c4 08	 add	 esp, 8
$LN7@scalar:
  00026	8b c6		 mov	 eax, esi
  00028	5e		 pop	 esi
  00029	5d		 pop	 ebp
  0002a	c2 04 00	 ret	 4
??_GCDynamicBitmapLoad@@UAEPAXI@Z ENDP			; CDynamicBitmapLoad::`scalar deleting destructor'
_TEXT	ENDS
; Function compile flags: /Ogtp
; File D:\git\src\IBK\IBK_DRFN\ProjSrc\SrcChartEx\ChartAddIn\ChartAnalysisToolAddIn\Symbol\DynamicBitmapLoad.cpp
;	COMDAT ?GetFilePath@CDynamicBitmapLoad@@AAE?AV?$CStringT@DV?$StrTraitMFC_DLL@DV?$ChTraitsCRT@D@ATL@@@@@ATL@@V23@@Z
_TEXT	SEGMENT
___$ReturnUdt$GSCopy$ = -316				; size = 4
_path$ = -316						; size = 4
_c_File$ = -312						; size = 296
__$ArrayPad$ = -16					; size = 4
__$EHRec$ = -12						; size = 12
___$ReturnUdt$ = 8					; size = 4
_fileName$ = 12						; size = 4
?GetFilePath@CDynamicBitmapLoad@@AAE?AV?$CStringT@DV?$StrTraitMFC_DLL@DV?$ChTraitsCRT@D@ATL@@@@@ATL@@V23@@Z PROC ; CDynamicBitmapLoad::GetFilePath, COMDAT
; _this$ = ecx

; 127  : {

  00000	55		 push	 ebp
  00001	8b ec		 mov	 ebp, esp
  00003	6a ff		 push	 -1
  00005	68 00 00 00 00	 push	 __ehhandler$?GetFilePath@CDynamicBitmapLoad@@AAE?AV?$CStringT@DV?$StrTraitMFC_DLL@DV?$ChTraitsCRT@D@ATL@@@@@ATL@@V23@@Z
  0000a	64 a1 00 00 00
	00		 mov	 eax, DWORD PTR fs:0
  00010	50		 push	 eax
  00011	81 ec 30 01 00
	00		 sub	 esp, 304		; 00000130H
  00017	a1 00 00 00 00	 mov	 eax, DWORD PTR ___security_cookie
  0001c	33 c5		 xor	 eax, ebp
  0001e	89 45 f0	 mov	 DWORD PTR __$ArrayPad$[ebp], eax
  00021	56		 push	 esi
  00022	50		 push	 eax
  00023	8d 45 f4	 lea	 eax, DWORD PTR __$EHRec$[ebp]
  00026	64 a3 00 00 00
	00		 mov	 DWORD PTR fs:0, eax
  0002c	8b 75 08	 mov	 esi, DWORD PTR ___$ReturnUdt$[ebp]
  0002f	89 b5 c4 fe ff
	ff		 mov	 DWORD PTR ___$ReturnUdt$GSCopy$[ebp], esi

; 128  : //	CString path = ((CDrChartCtrl*)m_wndParent)->GetSaveFileName(fileName, m_strDeskPath + FILE_IMAGE_PATH, TRUE);
; 129  : //	CString path = m_pMainSymbol->GetFilePath() + fileName;
; 130  : 	CString path = m_strTotalPath + fileName;

  00035	8d 45 0c	 lea	 eax, DWORD PTR _fileName$[ebp]
  00038	c7 45 fc 00 00
	00 00		 mov	 DWORD PTR __$EHRec$[ebp+8], 0
  0003f	50		 push	 eax
  00040	8d 41 14	 lea	 eax, DWORD PTR [ecx+20]
  00043	50		 push	 eax
  00044	8d 85 c4 fe ff
	ff		 lea	 eax, DWORD PTR _path$[ebp]
  0004a	50		 push	 eax
  0004b	e8 00 00 00 00	 call	 ??HATL@@YA?AV?$CStringT@DV?$StrTraitMFC_DLL@DV?$ChTraitsCRT@D@ATL@@@@@0@ABV10@0@Z ; ATL::operator+

; 131  : 
; 132  : 	// 해당 파일이 있는지 체크한다.
; 133  : 	_finddata_t c_File;
; 134  : 	long hFile = _findfirst(path, &c_File);

  00050	8d 85 c8 fe ff
	ff		 lea	 eax, DWORD PTR _c_File$[ebp]
  00056	c6 45 fc 01	 mov	 BYTE PTR __$EHRec$[ebp+8], 1
  0005a	50		 push	 eax
  0005b	ff b5 c4 fe ff
	ff		 push	 DWORD PTR _path$[ebp]
  00061	ff 15 00 00 00
	00		 call	 DWORD PTR __imp___findfirst64i32
  00067	83 c4 14	 add	 esp, 20			; 00000014H

; 135  : 	if(hFile == -1)

  0006a	8b ce		 mov	 ecx, esi
  0006c	83 f8 ff	 cmp	 eax, -1
  0006f	75 0d		 jne	 SHORT $LN2@GetFilePat

; 136  : 		return CString("NULL");

  00071	68 00 00 00 00	 push	 OFFSET ??_C@_04HIBGFPH@NULL@
  00076	ff 15 00 00 00
	00		 call	 DWORD PTR __imp_??0?$CStringT@DV?$StrTraitMFC_DLL@DV?$ChTraitsCRT@D@ATL@@@@@ATL@@QAE@PBD@Z
  0007c	eb 0d		 jmp	 SHORT $LN27@GetFilePat
$LN2@GetFilePat:

; 137  : 
; 138  : 	return path;

  0007e	8d 85 c4 fe ff
	ff		 lea	 eax, DWORD PTR _path$[ebp]
  00084	50		 push	 eax
  00085	ff 15 00 00 00
	00		 call	 DWORD PTR __imp_??0?$CStringT@DV?$StrTraitMFC_DLL@DV?$ChTraitsCRT@D@ATL@@@@@ATL@@QAE@ABV01@@Z
$LN27@GetFilePat:

; 139  : }

  0008b	8d 8d c4 fe ff
	ff		 lea	 ecx, DWORD PTR _path$[ebp]
  00091	ff 15 00 00 00
	00		 call	 DWORD PTR __imp_??1?$CStringT@DV?$StrTraitMFC_DLL@DV?$ChTraitsCRT@D@ATL@@@@@ATL@@QAE@XZ
  00097	8d 4d 0c	 lea	 ecx, DWORD PTR _fileName$[ebp]
  0009a	ff 15 00 00 00
	00		 call	 DWORD PTR __imp_??1?$CStringT@DV?$StrTraitMFC_DLL@DV?$ChTraitsCRT@D@ATL@@@@@ATL@@QAE@XZ
  000a0	8b c6		 mov	 eax, esi
  000a2	8b 4d f4	 mov	 ecx, DWORD PTR __$EHRec$[ebp]
  000a5	64 89 0d 00 00
	00 00		 mov	 DWORD PTR fs:0, ecx
  000ac	59		 pop	 ecx
  000ad	5e		 pop	 esi
  000ae	8b 4d f0	 mov	 ecx, DWORD PTR __$ArrayPad$[ebp]
  000b1	33 cd		 xor	 ecx, ebp
  000b3	e8 00 00 00 00	 call	 @__security_check_cookie@4
  000b8	8b e5		 mov	 esp, ebp
  000ba	5d		 pop	 ebp
  000bb	c2 08 00	 ret	 8
_TEXT	ENDS
;	COMDAT text$x
text$x	SEGMENT
__unwindfunclet$?GetFilePath@CDynamicBitmapLoad@@AAE?AV?$CStringT@DV?$StrTraitMFC_DLL@DV?$ChTraitsCRT@D@ATL@@@@@ATL@@V23@@Z$0:
  00000	8d 4d 0c	 lea	 ecx, DWORD PTR _fileName$[ebp]
  00003	ff 25 00 00 00
	00		 jmp	 DWORD PTR __imp_??1?$CStringT@DV?$StrTraitMFC_DLL@DV?$ChTraitsCRT@D@ATL@@@@@ATL@@QAE@XZ
__unwindfunclet$?GetFilePath@CDynamicBitmapLoad@@AAE?AV?$CStringT@DV?$StrTraitMFC_DLL@DV?$ChTraitsCRT@D@ATL@@@@@ATL@@V23@@Z$1:
  00009	8d 8d c4 fe ff
	ff		 lea	 ecx, DWORD PTR _path$[ebp]
  0000f	ff 25 00 00 00
	00		 jmp	 DWORD PTR __imp_??1?$CStringT@DV?$StrTraitMFC_DLL@DV?$ChTraitsCRT@D@ATL@@@@@ATL@@QAE@XZ
  00015	cc		 int	 3
  00016	cc		 int	 3
  00017	cc		 int	 3
  00018	cc		 int	 3
  00019	cc		 int	 3
__ehhandler$?GetFilePath@CDynamicBitmapLoad@@AAE?AV?$CStringT@DV?$StrTraitMFC_DLL@DV?$ChTraitsCRT@D@ATL@@@@@ATL@@V23@@Z:
  0001a	90		 npad	 1
  0001b	90		 npad	 1
  0001c	8b 54 24 08	 mov	 edx, DWORD PTR [esp+8]
  00020	8d 42 0c	 lea	 eax, DWORD PTR [edx+12]
  00023	8b 8a c8 fe ff
	ff		 mov	 ecx, DWORD PTR [edx-312]
  00029	33 c8		 xor	 ecx, eax
  0002b	e8 00 00 00 00	 call	 @__security_check_cookie@4
  00030	8b 4a fc	 mov	 ecx, DWORD PTR [edx-4]
  00033	33 c8		 xor	 ecx, eax
  00035	e8 00 00 00 00	 call	 @__security_check_cookie@4
  0003a	b8 00 00 00 00	 mov	 eax, OFFSET __ehfuncinfo$?GetFilePath@CDynamicBitmapLoad@@AAE?AV?$CStringT@DV?$StrTraitMFC_DLL@DV?$ChTraitsCRT@D@ATL@@@@@ATL@@V23@@Z
  0003f	e9 00 00 00 00	 jmp	 ___CxxFrameHandler3
text$x	ENDS
?GetFilePath@CDynamicBitmapLoad@@AAE?AV?$CStringT@DV?$StrTraitMFC_DLL@DV?$ChTraitsCRT@D@ATL@@@@@ATL@@V23@@Z ENDP ; CDynamicBitmapLoad::GetFilePath
; Function compile flags: /Ogtp
; File D:\git\src\IBK\IBK_DRFN\ProjSrc\SrcChartEx\ChartAddIn\ChartAnalysisToolAddIn\Symbol\DynamicBitmapLoad.cpp
; File C:\Program Files (x86)\Microsoft Visual Studio\2019\Community\VC\Tools\MSVC\14.29.30133\atlmfc\include\afxwin2.inl
; File D:\git\src\IBK\IBK_DRFN\ProjSrc\SrcChartEx\ChartAddIn\ChartAnalysisToolAddIn\Symbol\DynamicBitmapLoad.cpp
; File C:\Program Files (x86)\Microsoft Visual Studio\2019\Community\VC\Tools\MSVC\14.29.30133\atlmfc\include\afxwin2.inl
; File D:\git\src\IBK\IBK_DRFN\ProjSrc\SrcChartEx\ChartAddIn\ChartAnalysisToolAddIn\Symbol\DynamicBitmapLoad.cpp
;	COMDAT ?AutoLoad@CDynamicBitmapLoad@@AAEXPAVCDynamicBitmapLoadButton@@V?$CStringT@DV?$StrTraitMFC_DLL@DV?$ChTraitsCRT@D@ATL@@@@@ATL@@1@Z
_TEXT	SEGMENT
__$EHRec$ = -12						; size = 12
_button$ = 8						; size = 4
_upImageFileName$ = 12					; size = 4
_downImageFileName$ = 16				; size = 4
?AutoLoad@CDynamicBitmapLoad@@AAEXPAVCDynamicBitmapLoadButton@@V?$CStringT@DV?$StrTraitMFC_DLL@DV?$ChTraitsCRT@D@ATL@@@@@ATL@@1@Z PROC ; CDynamicBitmapLoad::AutoLoad, COMDAT
; _this$ = ecx

; 85   : {

  00000	55		 push	 ebp
  00001	8b ec		 mov	 ebp, esp
  00003	6a ff		 push	 -1
  00005	68 00 00 00 00	 push	 __ehhandler$?AutoLoad@CDynamicBitmapLoad@@AAEXPAVCDynamicBitmapLoadButton@@V?$CStringT@DV?$StrTraitMFC_DLL@DV?$ChTraitsCRT@D@ATL@@@@@ATL@@1@Z
  0000a	64 a1 00 00 00
	00		 mov	 eax, DWORD PTR fs:0
  00010	50		 push	 eax
  00011	56		 push	 esi
  00012	a1 00 00 00 00	 mov	 eax, DWORD PTR ___security_cookie
  00017	33 c5		 xor	 eax, ebp
  00019	50		 push	 eax
  0001a	8d 45 f4	 lea	 eax, DWORD PTR __$EHRec$[ebp]
  0001d	64 a3 00 00 00
	00		 mov	 DWORD PTR fs:0, eax
; File C:\Program Files (x86)\Microsoft Visual Studio\2019\Community\VC\Tools\MSVC\14.29.30133\atlmfc\include\afxwin2.inl

; 634  : 	{ ASSERT(::IsWindow(m_hWnd)); ::SendMessage(m_hWnd, BM_SETSTYLE, nStyle, (LPARAM)bRedraw); }

  00023	8b 75 08	 mov	 esi, DWORD PTR _button$[ebp]
  00026	6a 01		 push	 1
  00028	6a 0b		 push	 11			; 0000000bH
  0002a	68 f4 00 00 00	 push	 244			; 000000f4H
  0002f	ff 76 20	 push	 DWORD PTR [esi+32]
; File D:\git\src\IBK\IBK_DRFN\ProjSrc\SrcChartEx\ChartAddIn\ChartAnalysisToolAddIn\Symbol\DynamicBitmapLoad.cpp

; 85   : {

  00032	c7 45 fc 01 00
	00 00		 mov	 DWORD PTR __$EHRec$[ebp+8], 1
; File C:\Program Files (x86)\Microsoft Visual Studio\2019\Community\VC\Tools\MSVC\14.29.30133\atlmfc\include\afxwin2.inl

; 634  : 	{ ASSERT(::IsWindow(m_hWnd)); ::SendMessage(m_hWnd, BM_SETSTYLE, nStyle, (LPARAM)bRedraw); }

  00039	ff 15 00 00 00
	00		 call	 DWORD PTR __imp__SendMessageA@16
; File D:\git\src\IBK\IBK_DRFN\ProjSrc\SrcChartEx\ChartAddIn\ChartAnalysisToolAddIn\Symbol\DynamicBitmapLoad.cpp

; 87   : 	button->Load(upImageFileName, downImageFileName);

  0003f	ff 75 10	 push	 DWORD PTR _downImageFileName$[ebp]
  00042	8b ce		 mov	 ecx, esi
  00044	ff 75 0c	 push	 DWORD PTR _upImageFileName$[ebp]
  00047	e8 00 00 00 00	 call	 ?Load@CDynamicBitmapLoadButton@@QAEXPBD0@Z ; CDynamicBitmapLoadButton::Load

; 88   : 	button->SizeToContent();

  0004c	8b ce		 mov	 ecx, esi
  0004e	e8 00 00 00 00	 call	 ?SizeToContent@CDynamicBitmapLoadButton@@QAEXXZ ; CDynamicBitmapLoadButton::SizeToContent

; 89   : }

  00053	8d 4d 0c	 lea	 ecx, DWORD PTR _upImageFileName$[ebp]
  00056	ff 15 00 00 00
	00		 call	 DWORD PTR __imp_??1?$CStringT@DV?$StrTraitMFC_DLL@DV?$ChTraitsCRT@D@ATL@@@@@ATL@@QAE@XZ
  0005c	8d 4d 10	 lea	 ecx, DWORD PTR _downImageFileName$[ebp]
  0005f	ff 15 00 00 00
	00		 call	 DWORD PTR __imp_??1?$CStringT@DV?$StrTraitMFC_DLL@DV?$ChTraitsCRT@D@ATL@@@@@ATL@@QAE@XZ
  00065	8b 4d f4	 mov	 ecx, DWORD PTR __$EHRec$[ebp]
  00068	64 89 0d 00 00
	00 00		 mov	 DWORD PTR fs:0, ecx
  0006f	59		 pop	 ecx
  00070	5e		 pop	 esi
  00071	8b e5		 mov	 esp, ebp
  00073	5d		 pop	 ebp
  00074	c2 0c 00	 ret	 12			; 0000000cH
_TEXT	ENDS
;	COMDAT text$x
text$x	SEGMENT
__unwindfunclet$?AutoLoad@CDynamicBitmapLoad@@AAEXPAVCDynamicBitmapLoadButton@@V?$CStringT@DV?$StrTraitMFC_DLL@DV?$ChTraitsCRT@D@ATL@@@@@ATL@@1@Z$0:
  00000	8d 4d 10	 lea	 ecx, DWORD PTR _downImageFileName$[ebp]
  00003	ff 25 00 00 00
	00		 jmp	 DWORD PTR __imp_??1?$CStringT@DV?$StrTraitMFC_DLL@DV?$ChTraitsCRT@D@ATL@@@@@ATL@@QAE@XZ
__unwindfunclet$?AutoLoad@CDynamicBitmapLoad@@AAEXPAVCDynamicBitmapLoadButton@@V?$CStringT@DV?$StrTraitMFC_DLL@DV?$ChTraitsCRT@D@ATL@@@@@ATL@@1@Z$1:
  00009	8d 4d 0c	 lea	 ecx, DWORD PTR _upImageFileName$[ebp]
  0000c	ff 25 00 00 00
	00		 jmp	 DWORD PTR __imp_??1?$CStringT@DV?$StrTraitMFC_DLL@DV?$ChTraitsCRT@D@ATL@@@@@ATL@@QAE@XZ
  00012	cc		 int	 3
  00013	cc		 int	 3
  00014	cc		 int	 3
  00015	cc		 int	 3
  00016	cc		 int	 3
__ehhandler$?AutoLoad@CDynamicBitmapLoad@@AAEXPAVCDynamicBitmapLoadButton@@V?$CStringT@DV?$StrTraitMFC_DLL@DV?$ChTraitsCRT@D@ATL@@@@@ATL@@1@Z:
  00017	90		 npad	 1
  00018	90		 npad	 1
  00019	8b 54 24 08	 mov	 edx, DWORD PTR [esp+8]
  0001d	8d 42 0c	 lea	 eax, DWORD PTR [edx+12]
  00020	8b 4a f8	 mov	 ecx, DWORD PTR [edx-8]
  00023	33 c8		 xor	 ecx, eax
  00025	e8 00 00 00 00	 call	 @__security_check_cookie@4
  0002a	b8 00 00 00 00	 mov	 eax, OFFSET __ehfuncinfo$?AutoLoad@CDynamicBitmapLoad@@AAEXPAVCDynamicBitmapLoadButton@@V?$CStringT@DV?$StrTraitMFC_DLL@DV?$ChTraitsCRT@D@ATL@@@@@ATL@@1@Z
  0002f	e9 00 00 00 00	 jmp	 ___CxxFrameHandler3
text$x	ENDS
?AutoLoad@CDynamicBitmapLoad@@AAEXPAVCDynamicBitmapLoadButton@@V?$CStringT@DV?$StrTraitMFC_DLL@DV?$ChTraitsCRT@D@ATL@@@@@ATL@@1@Z ENDP ; CDynamicBitmapLoad::AutoLoad
; Function compile flags: /Ogtp
; File D:\git\src\IBK\IBK_DRFN\ProjSrc\SrcChartEx\ChartAddIn\ChartAnalysisToolAddIn\Symbol\DynamicBitmapLoad.cpp
; File C:\Program Files (x86)\Microsoft Visual Studio\2019\Community\VC\Tools\MSVC\14.29.30133\atlmfc\include\atltypes.h
; File C:\Program Files (x86)\Microsoft Visual Studio\2019\Community\VC\Tools\MSVC\14.29.30133\atlmfc\include\afxwin2.inl
; File C:\Program Files (x86)\Microsoft Visual Studio\2019\Community\VC\Tools\MSVC\14.29.30133\atlmfc\include\atltypes.h
; File C:\Program Files (x86)\Microsoft Visual Studio\2019\Community\VC\Tools\MSVC\14.29.30133\atlmfc\include\afxwin2.inl
; File D:\git\src\IBK\IBK_DRFN\ProjSrc\SrcChartEx\ChartAddIn\ChartAnalysisToolAddIn\Symbol\DynamicBitmapLoad.cpp
; File C:\Program Files (x86)\Microsoft Visual Studio\2019\Community\VC\Tools\MSVC\14.29.30133\atlmfc\include\afxwin2.inl
; File D:\git\src\IBK\IBK_DRFN\ProjSrc\SrcChartEx\ChartAddIn\ChartAnalysisToolAddIn\Symbol\DynamicBitmapLoad.cpp
;	COMDAT ?ButtonMoveWindow@CDynamicBitmapLoad@@AAEXPAVCDynamicBitmapLoadButton@@AAVCPoint@@HH@Z
_TEXT	SEGMENT
_button$ = 8						; size = 4
_btOrgPt$ = 12						; size = 4
_btWidth$ = 16						; size = 4
_btHeight$ = 20						; size = 4
?ButtonMoveWindow@CDynamicBitmapLoad@@AAEXPAVCDynamicBitmapLoadButton@@AAVCPoint@@HH@Z PROC ; CDynamicBitmapLoad::ButtonMoveWindow, COMDAT
; _this$ = ecx

; 93   : {

  00000	55		 push	 ebp
  00001	8b ec		 mov	 ebp, esp

; 101  : 	CRect rect(btOrgPt.x, btOrgPt.y, btOrgPt.x + btWidth, btOrgPt.y + btHeight);

  00003	8b 45 10	 mov	 eax, DWORD PTR _btWidth$[ebp]
  00006	56		 push	 esi
  00007	57		 push	 edi
; File C:\Program Files (x86)\Microsoft Visual Studio\2019\Community\VC\Tools\MSVC\14.29.30133\atlmfc\include\atltypes.h

; 540  : 	left = l;

  00008	8b 7d 0c	 mov	 edi, DWORD PTR _btOrgPt$[ebp]
; File C:\Program Files (x86)\Microsoft Visual Studio\2019\Community\VC\Tools\MSVC\14.29.30133\atlmfc\include\afxwin2.inl

; 73   : 	{ MoveWindow(lpRect->left, lpRect->top, lpRect->right - lpRect->left,

  0000b	6a 01		 push	 1
  0000d	ff 75 14	 push	 DWORD PTR _btHeight$[ebp]
; File C:\Program Files (x86)\Microsoft Visual Studio\2019\Community\VC\Tools\MSVC\14.29.30133\atlmfc\include\atltypes.h

; 540  : 	left = l;

  00010	8b 0f		 mov	 ecx, DWORD PTR [edi]
; File C:\Program Files (x86)\Microsoft Visual Studio\2019\Community\VC\Tools\MSVC\14.29.30133\atlmfc\include\afxwin2.inl

; 73   : 	{ MoveWindow(lpRect->left, lpRect->top, lpRect->right - lpRect->left,

  00012	50		 push	 eax
  00013	ff 77 04	 push	 DWORD PTR [edi+4]
; File D:\git\src\IBK\IBK_DRFN\ProjSrc\SrcChartEx\ChartAddIn\ChartAnalysisToolAddIn\Symbol\DynamicBitmapLoad.cpp

; 101  : 	CRect rect(btOrgPt.x, btOrgPt.y, btOrgPt.x + btWidth, btOrgPt.y + btHeight);

  00016	8d 34 01	 lea	 esi, DWORD PTR [ecx+eax]
; File C:\Program Files (x86)\Microsoft Visual Studio\2019\Community\VC\Tools\MSVC\14.29.30133\atlmfc\include\afxwin2.inl

; 73   : 	{ MoveWindow(lpRect->left, lpRect->top, lpRect->right - lpRect->left,

  00019	51		 push	 ecx
  0001a	8b 4d 08	 mov	 ecx, DWORD PTR _button$[ebp]
  0001d	e8 00 00 00 00	 call	 ?MoveWindow@CWnd@@QAEXHHHHH@Z ; CWnd::MoveWindow
; File D:\git\src\IBK\IBK_DRFN\ProjSrc\SrcChartEx\ChartAddIn\ChartAnalysisToolAddIn\Symbol\DynamicBitmapLoad.cpp

; 105  : 	btOrgPt.x = rect.right;

  00022	89 37		 mov	 DWORD PTR [edi], esi
  00024	5f		 pop	 edi
  00025	5e		 pop	 esi

; 106  : //	btOrgPt.y = rect.bottom;
; 107  : 
; 108  : 	//전체 Dialog 크기, 위치.
; 109  : //	MoveWindow(0, 0, rect.right + 4, rect.bottom + 4);
; 110  : //	MoveWindow(0, 0, rect.right + m_nButtonGap, rect.bottom + m_nButtonGap);
; 111  : }

  00026	5d		 pop	 ebp
  00027	c2 10 00	 ret	 16			; 00000010H
?ButtonMoveWindow@CDynamicBitmapLoad@@AAEXPAVCDynamicBitmapLoadButton@@AAVCPoint@@HH@Z ENDP ; CDynamicBitmapLoad::ButtonMoveWindow
_TEXT	ENDS
; Function compile flags: /Ogtp
; File D:\git\src\IBK\IBK_DRFN\ProjSrc\SrcChartEx\ChartAddIn\ChartAnalysisToolAddIn\Symbol\DynamicBitmapLoad.cpp
; File C:\Program Files (x86)\Microsoft Visual Studio\2019\Community\VC\Tools\MSVC\14.29.30133\atlmfc\include\cstringt.h
; File D:\git\src\IBK\IBK_DRFN\ProjSrc\SrcChartEx\ChartAddIn\ChartAnalysisToolAddIn\Symbol\DynamicBitmapLoad.cpp
; File C:\Program Files (x86)\Microsoft Visual Studio\2019\Community\VC\Tools\MSVC\14.29.30133\atlmfc\include\cstringt.h
; File D:\git\src\IBK\IBK_DRFN\ProjSrc\SrcChartEx\ChartAddIn\ChartAnalysisToolAddIn\Symbol\DynamicBitmapLoad.cpp
; File C:\Program Files (x86)\Microsoft Visual Studio\2019\Community\VC\Tools\MSVC\14.29.30133\atlmfc\include\afxwin1.inl
; File D:\git\src\IBK\IBK_DRFN\ProjSrc\SrcChartEx\ChartAddIn\ChartAnalysisToolAddIn\Symbol\DynamicBitmapLoad.cpp
; File C:\Program Files (x86)\Microsoft Visual Studio\2019\Community\VC\Tools\MSVC\14.29.30133\atlmfc\include\afxwin1.inl
; File D:\git\src\IBK\IBK_DRFN\ProjSrc\SrcChartEx\ChartAddIn\ChartAnalysisToolAddIn\Symbol\DynamicBitmapLoad.cpp
; File C:\Program Files (x86)\Microsoft Visual Studio\2019\Community\VC\Tools\MSVC\14.29.30133\atlmfc\include\afxwin1.inl
; File D:\git\src\IBK\IBK_DRFN\ProjSrc\SrcChartEx\ChartAddIn\ChartAnalysisToolAddIn\Symbol\DynamicBitmapLoad.cpp
; File C:\Program Files (x86)\Microsoft Visual Studio\2019\Community\VC\Tools\MSVC\14.29.30133\atlmfc\include\afxwin1.inl
; File D:\git\src\IBK\IBK_DRFN\ProjSrc\SrcChartEx\ChartAddIn\ChartAnalysisToolAddIn\Symbol\DynamicBitmapLoad.cpp
;	COMDAT ?GetImageSize@CDynamicBitmapLoad@@AAE_NAAH0@Z
_TEXT	SEGMENT
_bitMap$ = -52						; size = 24
_bitmap$ = -28						; size = 8
$T2 = -20						; size = 4
_filePath$ = -16					; size = 4
__$EHRec$ = -12						; size = 12
_x$ = 8							; size = 4
_y$ = 12						; size = 4
?GetImageSize@CDynamicBitmapLoad@@AAE_NAAH0@Z PROC	; CDynamicBitmapLoad::GetImageSize, COMDAT
; _this$ = ecx

; 56   : {

  00000	55		 push	 ebp
  00001	8b ec		 mov	 ebp, esp
  00003	6a ff		 push	 -1
  00005	68 00 00 00 00	 push	 __ehhandler$?GetImageSize@CDynamicBitmapLoad@@AAE_NAAH0@Z
  0000a	64 a1 00 00 00
	00		 mov	 eax, DWORD PTR fs:0
  00010	50		 push	 eax
  00011	83 ec 28	 sub	 esp, 40			; 00000028H
  00014	53		 push	 ebx
  00015	56		 push	 esi
  00016	a1 00 00 00 00	 mov	 eax, DWORD PTR ___security_cookie
  0001b	33 c5		 xor	 eax, ebp
  0001d	50		 push	 eax
  0001e	8d 45 f4	 lea	 eax, DWORD PTR __$EHRec$[ebp]
  00021	64 a3 00 00 00
	00		 mov	 DWORD PTR fs:0, eax
  00027	8b f1		 mov	 esi, ecx

; 57   : 	CString filePath;

  00029	8d 4d f0	 lea	 ecx, DWORD PTR _filePath$[ebp]
  0002c	ff 15 00 00 00
	00		 call	 DWORD PTR __imp_??0?$CStringT@DV?$StrTraitMFC_DLL@DV?$ChTraitsCRT@D@ATL@@@@@ATL@@QAE@XZ

; 58   : 	if((filePath = GetFilePath("left_up.bmp")) == "NULL")

  00032	51		 push	 ecx
  00033	8b cc		 mov	 ecx, esp
  00035	c7 45 fc 00 00
	00 00		 mov	 DWORD PTR __$EHRec$[ebp+8], 0
  0003c	68 00 00 00 00	 push	 OFFSET ??_C@_0M@EANNFIMC@left_up?4bmp@
  00041	ff 15 00 00 00
	00		 call	 DWORD PTR __imp_??0?$CStringT@DV?$StrTraitMFC_DLL@DV?$ChTraitsCRT@D@ATL@@@@@ATL@@QAE@PBD@Z
  00047	8d 45 ec	 lea	 eax, DWORD PTR $T2[ebp]
  0004a	8b ce		 mov	 ecx, esi
  0004c	50		 push	 eax
  0004d	e8 00 00 00 00	 call	 ?GetFilePath@CDynamicBitmapLoad@@AAE?AV?$CStringT@DV?$StrTraitMFC_DLL@DV?$ChTraitsCRT@D@ATL@@@@@ATL@@V23@@Z ; CDynamicBitmapLoad::GetFilePath
  00052	50		 push	 eax
  00053	8d 4d f0	 lea	 ecx, DWORD PTR _filePath$[ebp]
  00056	c6 45 fc 01	 mov	 BYTE PTR __$EHRec$[ebp+8], 1
  0005a	ff 15 00 00 00
	00		 call	 DWORD PTR __imp_??4?$CStringT@DV?$StrTraitMFC_DLL@DV?$ChTraitsCRT@D@ATL@@@@@ATL@@QAEAAV01@ABV01@@Z
; File C:\Program Files (x86)\Microsoft Visual Studio\2019\Community\VC\Tools\MSVC\14.29.30133\atlmfc\include\cstringt.h

; 2486 : 		return(str1.Compare(psz2) == 0);

  00060	68 00 00 00 00	 push	 OFFSET ??_C@_04HIBGFPH@NULL@
  00065	8b c8		 mov	 ecx, eax
  00067	ff 15 00 00 00
	00		 call	 DWORD PTR __imp_?Compare@?$CStringT@DV?$StrTraitMFC_DLL@DV?$ChTraitsCRT@D@ATL@@@@@ATL@@QBEHPBD@Z
; File D:\git\src\IBK\IBK_DRFN\ProjSrc\SrcChartEx\ChartAddIn\ChartAnalysisToolAddIn\Symbol\DynamicBitmapLoad.cpp

; 58   : 	if((filePath = GetFilePath("left_up.bmp")) == "NULL")

  0006d	8d 4d ec	 lea	 ecx, DWORD PTR $T2[ebp]
  00070	c6 45 fc 00	 mov	 BYTE PTR __$EHRec$[ebp+8], 0
; File C:\Program Files (x86)\Microsoft Visual Studio\2019\Community\VC\Tools\MSVC\14.29.30133\atlmfc\include\cstringt.h

; 2486 : 		return(str1.Compare(psz2) == 0);

  00074	8b f0		 mov	 esi, eax
; File D:\git\src\IBK\IBK_DRFN\ProjSrc\SrcChartEx\ChartAddIn\ChartAnalysisToolAddIn\Symbol\DynamicBitmapLoad.cpp

; 58   : 	if((filePath = GetFilePath("left_up.bmp")) == "NULL")

  00076	ff 15 00 00 00
	00		 call	 DWORD PTR __imp_??1?$CStringT@DV?$StrTraitMFC_DLL@DV?$ChTraitsCRT@D@ATL@@@@@ATL@@QAE@XZ
  0007c	85 f6		 test	 esi, esi
  0007e	75 04		 jne	 SHORT $LN2@GetImageSi
  00080	32 db		 xor	 bl, bl
  00082	eb 5e		 jmp	 SHORT $LN20@GetImageSi
$LN2@GetImageSi:

; 59   : 		return false;
; 60   : 
; 61   : 	HBITMAP hBitmap = NULL; 
; 62   : 	hBitmap = (HBITMAP)LoadImage(NULL, filePath, IMAGE_BITMAP, 0, 0, LR_LOADFROMFILE | LR_DEFAULTSIZE);

  00084	6a 50		 push	 80			; 00000050H
  00086	6a 00		 push	 0
  00088	6a 00		 push	 0
  0008a	6a 00		 push	 0
  0008c	ff 75 f0	 push	 DWORD PTR _filePath$[ebp]
  0008f	6a 00		 push	 0
  00091	ff 15 00 00 00
	00		 call	 DWORD PTR __imp__LoadImageA@24
; File C:\Program Files (x86)\Microsoft Visual Studio\2019\Community\VC\Tools\MSVC\14.29.30133\atlmfc\include\afxwin1.inl

; 70   : 	{ m_hObject = NULL; }

  00097	c7 45 e8 00 00
	00 00		 mov	 DWORD PTR _bitmap$[ebp+4], 0

; 177  : 	{ }

  0009e	c7 45 e4 00 00
	00 00		 mov	 DWORD PTR _bitmap$[ebp], OFFSET ??_7CBitmap@@6B@
; File D:\git\src\IBK\IBK_DRFN\ProjSrc\SrcChartEx\ChartAddIn\ChartAnalysisToolAddIn\Symbol\DynamicBitmapLoad.cpp

; 65   : 	bitmap.Attach(hBitmap);

  000a5	50		 push	 eax
  000a6	8d 4d e4	 lea	 ecx, DWORD PTR _bitmap$[ebp]
  000a9	c6 45 fc 02	 mov	 BYTE PTR __$EHRec$[ebp+8], 2
  000ad	e8 00 00 00 00	 call	 ?Attach@CGdiObject@@QAEHPAX@Z ; CGdiObject::Attach
; File C:\Program Files (x86)\Microsoft Visual Studio\2019\Community\VC\Tools\MSVC\14.29.30133\atlmfc\include\afxwin1.inl

; 222  : 		return ::GetObject(m_hObject, sizeof(BITMAP), pBitMap); }

  000b2	8d 45 cc	 lea	 eax, DWORD PTR _bitMap$[ebp]
  000b5	50		 push	 eax
  000b6	6a 18		 push	 24			; 00000018H
  000b8	ff 75 e8	 push	 DWORD PTR _bitmap$[ebp+4]
  000bb	ff 15 00 00 00
	00		 call	 DWORD PTR __imp__GetObjectA@12
; File D:\git\src\IBK\IBK_DRFN\ProjSrc\SrcChartEx\ChartAddIn\ChartAnalysisToolAddIn\Symbol\DynamicBitmapLoad.cpp

; 70   : 	x = bitMap.bmWidth;

  000c1	8b 4d 08	 mov	 ecx, DWORD PTR _x$[ebp]

; 73   : 	return true;

  000c4	b3 01		 mov	 bl, 1
  000c6	8b 45 d0	 mov	 eax, DWORD PTR _bitMap$[ebp+4]
; File C:\Program Files (x86)\Microsoft Visual Studio\2019\Community\VC\Tools\MSVC\14.29.30133\atlmfc\include\afxwin1.inl

; 179  : 	{ }

  000c9	c7 45 e4 00 00
	00 00		 mov	 DWORD PTR _bitmap$[ebp], OFFSET ??_7CBitmap@@6B@
; File D:\git\src\IBK\IBK_DRFN\ProjSrc\SrcChartEx\ChartAddIn\ChartAnalysisToolAddIn\Symbol\DynamicBitmapLoad.cpp

; 70   : 	x = bitMap.bmWidth;

  000d0	89 01		 mov	 DWORD PTR [ecx], eax

; 71   : 	y = bitMap.bmHeight;

  000d2	8b 4d 0c	 mov	 ecx, DWORD PTR _y$[ebp]
  000d5	8b 45 d4	 mov	 eax, DWORD PTR _bitMap$[ebp+8]
  000d8	89 01		 mov	 DWORD PTR [ecx], eax
; File C:\Program Files (x86)\Microsoft Visual Studio\2019\Community\VC\Tools\MSVC\14.29.30133\atlmfc\include\afxwin1.inl

; 179  : 	{ }

  000da	8d 4d e4	 lea	 ecx, DWORD PTR _bitmap$[ebp]
  000dd	e8 00 00 00 00	 call	 ??1CGdiObject@@UAE@XZ	; CGdiObject::~CGdiObject
$LN20@GetImageSi:
; File D:\git\src\IBK\IBK_DRFN\ProjSrc\SrcChartEx\ChartAddIn\ChartAnalysisToolAddIn\Symbol\DynamicBitmapLoad.cpp

; 73   : 	return true;

  000e2	8d 4d f0	 lea	 ecx, DWORD PTR _filePath$[ebp]
  000e5	ff 15 00 00 00
	00		 call	 DWORD PTR __imp_??1?$CStringT@DV?$StrTraitMFC_DLL@DV?$ChTraitsCRT@D@ATL@@@@@ATL@@QAE@XZ
  000eb	8a c3		 mov	 al, bl

; 74   : }

  000ed	8b 4d f4	 mov	 ecx, DWORD PTR __$EHRec$[ebp]
  000f0	64 89 0d 00 00
	00 00		 mov	 DWORD PTR fs:0, ecx
  000f7	59		 pop	 ecx
  000f8	5e		 pop	 esi
  000f9	5b		 pop	 ebx
  000fa	8b e5		 mov	 esp, ebp
  000fc	5d		 pop	 ebp
  000fd	c2 08 00	 ret	 8
_TEXT	ENDS
;	COMDAT text$x
text$x	SEGMENT
__unwindfunclet$?GetImageSize@CDynamicBitmapLoad@@AAE_NAAH0@Z$0:
  00000	8d 4d f0	 lea	 ecx, DWORD PTR _filePath$[ebp]
  00003	ff 25 00 00 00
	00		 jmp	 DWORD PTR __imp_??1?$CStringT@DV?$StrTraitMFC_DLL@DV?$ChTraitsCRT@D@ATL@@@@@ATL@@QAE@XZ
__unwindfunclet$?GetImageSize@CDynamicBitmapLoad@@AAE_NAAH0@Z$2:
  00009	8d 4d ec	 lea	 ecx, DWORD PTR $T2[ebp]
  0000c	ff 25 00 00 00
	00		 jmp	 DWORD PTR __imp_??1?$CStringT@DV?$StrTraitMFC_DLL@DV?$ChTraitsCRT@D@ATL@@@@@ATL@@QAE@XZ
__unwindfunclet$?GetImageSize@CDynamicBitmapLoad@@AAE_NAAH0@Z$3:
  00012	8d 4d e4	 lea	 ecx, DWORD PTR _bitmap$[ebp]
  00015	e9 00 00 00 00	 jmp	 ??1CBitmap@@UAE@XZ	; CBitmap::~CBitmap
  0001a	cc		 int	 3
  0001b	cc		 int	 3
  0001c	cc		 int	 3
  0001d	cc		 int	 3
  0001e	cc		 int	 3
__ehhandler$?GetImageSize@CDynamicBitmapLoad@@AAE_NAAH0@Z:
  0001f	90		 npad	 1
  00020	90		 npad	 1
  00021	8b 54 24 08	 mov	 edx, DWORD PTR [esp+8]
  00025	8d 42 0c	 lea	 eax, DWORD PTR [edx+12]
  00028	8b 4a cc	 mov	 ecx, DWORD PTR [edx-52]
  0002b	33 c8		 xor	 ecx, eax
  0002d	e8 00 00 00 00	 call	 @__security_check_cookie@4
  00032	b8 00 00 00 00	 mov	 eax, OFFSET __ehfuncinfo$?GetImageSize@CDynamicBitmapLoad@@AAE_NAAH0@Z
  00037	e9 00 00 00 00	 jmp	 ___CxxFrameHandler3
text$x	ENDS
?GetImageSize@CDynamicBitmapLoad@@AAE_NAAH0@Z ENDP	; CDynamicBitmapLoad::GetImageSize
; Function compile flags: /Ogtp
; File D:\git\src\IBK\IBK_DRFN\ProjSrc\SrcChartEx\ChartAddIn\ChartAnalysisToolAddIn\Symbol\DynamicBitmapLoad.cpp
; File C:\Program Files (x86)\Microsoft Visual Studio\2019\Community\VC\Tools\MSVC\14.29.30133\atlmfc\include\cstringt.h
; File D:\git\src\IBK\IBK_DRFN\ProjSrc\SrcChartEx\ChartAddIn\ChartAnalysisToolAddIn\Symbol\DynamicBitmapLoad.cpp
; File C:\Program Files (x86)\Microsoft Visual Studio\2019\Community\VC\Tools\MSVC\14.29.30133\atlmfc\include\cstringt.h
; File D:\git\src\IBK\IBK_DRFN\ProjSrc\SrcChartEx\ChartAddIn\ChartAnalysisToolAddIn\Symbol\DynamicBitmapLoad.cpp
; File C:\Program Files (x86)\Microsoft Visual Studio\2019\Community\VC\Tools\MSVC\14.29.30133\atlmfc\include\cstringt.h
; File D:\git\src\IBK\IBK_DRFN\ProjSrc\SrcChartEx\ChartAddIn\ChartAnalysisToolAddIn\Symbol\DynamicBitmapLoad.cpp
; File C:\Program Files (x86)\Microsoft Visual Studio\2019\Community\VC\Tools\MSVC\14.29.30133\atlmfc\include\cstringt.h
; File D:\git\src\IBK\IBK_DRFN\ProjSrc\SrcChartEx\ChartAddIn\ChartAnalysisToolAddIn\Symbol\DynamicBitmapLoad.cpp
; File C:\Program Files (x86)\Microsoft Visual Studio\2019\Community\VC\Tools\MSVC\14.29.30133\atlmfc\include\cstringt.h
; File D:\git\src\IBK\IBK_DRFN\ProjSrc\SrcChartEx\ChartAddIn\ChartAnalysisToolAddIn\Symbol\DynamicBitmapLoad.cpp
; File C:\Program Files (x86)\Microsoft Visual Studio\2019\Community\VC\Tools\MSVC\14.29.30133\atlmfc\include\afxwin2.inl
; File D:\git\src\IBK\IBK_DRFN\ProjSrc\SrcChartEx\ChartAddIn\ChartAnalysisToolAddIn\Symbol\DynamicBitmapLoad.cpp
; File C:\Program Files (x86)\Microsoft Visual Studio\2019\Community\VC\Tools\MSVC\14.29.30133\atlmfc\include\afxwin2.inl
; File D:\git\src\IBK\IBK_DRFN\ProjSrc\SrcChartEx\ChartAddIn\ChartAnalysisToolAddIn\Symbol\DynamicBitmapLoad.cpp
; File C:\Program Files (x86)\Microsoft Visual Studio\2019\Community\VC\Tools\MSVC\14.29.30133\atlmfc\include\atltypes.h
; File D:\git\src\IBK\IBK_DRFN\ProjSrc\SrcChartEx\ChartAddIn\ChartAnalysisToolAddIn\Symbol\DynamicBitmapLoad.cpp
; File C:\Program Files (x86)\Microsoft Visual Studio\2019\Community\VC\Tools\MSVC\14.29.30133\atlmfc\include\afxwin2.inl
; File C:\Program Files (x86)\Microsoft Visual Studio\2019\Community\VC\Tools\MSVC\14.29.30133\atlmfc\include\atltypes.h
; File C:\Program Files (x86)\Microsoft Visual Studio\2019\Community\VC\Tools\MSVC\14.29.30133\atlmfc\include\afxwin2.inl
; File D:\git\src\IBK\IBK_DRFN\ProjSrc\SrcChartEx\ChartAddIn\ChartAnalysisToolAddIn\Symbol\DynamicBitmapLoad.cpp
; File C:\Program Files (x86)\Microsoft Visual Studio\2019\Community\VC\Tools\MSVC\14.29.30133\atlmfc\include\afxwin2.inl
; File D:\git\src\IBK\IBK_DRFN\ProjSrc\SrcChartEx\ChartAddIn\ChartAnalysisToolAddIn\Symbol\DynamicBitmapLoad.cpp
;	COMDAT ?AttachBitmapToButton@CDynamicBitmapLoad@@AAEXAAVCPoint@@HHPAVCDynamicBitmapLoadButton@@V?$CStringT@DV?$StrTraitMFC_DLL@DV?$ChTraitsCRT@D@ATL@@@@@ATL@@2@Z
_TEXT	SEGMENT
$T3 = -28						; size = 4
$T4 = -24						; size = 4
_up$ = -20						; size = 4
_down$ = -16						; size = 4
__$EHRec$ = -12						; size = 12
_btOrgPt$ = 8						; size = 4
_btWidth$ = 12						; size = 4
_btHeight$ = 16						; size = 4
_button$ = 20						; size = 4
_upImageFileName$ = 24					; size = 4
_downImageFileName$ = 28				; size = 4
?AttachBitmapToButton@CDynamicBitmapLoad@@AAEXAAVCPoint@@HHPAVCDynamicBitmapLoadButton@@V?$CStringT@DV?$StrTraitMFC_DLL@DV?$ChTraitsCRT@D@ATL@@@@@ATL@@2@Z PROC ; CDynamicBitmapLoad::AttachBitmapToButton, COMDAT
; _this$ = ecx

; 38   : {

  00000	55		 push	 ebp
  00001	8b ec		 mov	 ebp, esp
  00003	6a ff		 push	 -1
  00005	68 00 00 00 00	 push	 __ehhandler$?AttachBitmapToButton@CDynamicBitmapLoad@@AAEXAAVCPoint@@HHPAVCDynamicBitmapLoadButton@@V?$CStringT@DV?$StrTraitMFC_DLL@DV?$ChTraitsCRT@D@ATL@@@@@ATL@@2@Z
  0000a	64 a1 00 00 00
	00		 mov	 eax, DWORD PTR fs:0
  00010	50		 push	 eax
  00011	83 ec 10	 sub	 esp, 16			; 00000010H
  00014	53		 push	 ebx
  00015	56		 push	 esi
  00016	57		 push	 edi
  00017	a1 00 00 00 00	 mov	 eax, DWORD PTR ___security_cookie
  0001c	33 c5		 xor	 eax, ebp
  0001e	50		 push	 eax
  0001f	8d 45 f4	 lea	 eax, DWORD PTR __$EHRec$[ebp]
  00022	64 a3 00 00 00
	00		 mov	 DWORD PTR fs:0, eax
  00028	8b f1		 mov	 esi, ecx

; 39   : 	CString up = GetFilePath(upImageFileName);

  0002a	51		 push	 ecx
  0002b	8d 45 18	 lea	 eax, DWORD PTR _upImageFileName$[ebp]
  0002e	c7 45 fc 01 00
	00 00		 mov	 DWORD PTR __$EHRec$[ebp+8], 1
  00035	8b cc		 mov	 ecx, esp
  00037	50		 push	 eax
  00038	ff 15 00 00 00
	00		 call	 DWORD PTR __imp_??0?$CStringT@DV?$StrTraitMFC_DLL@DV?$ChTraitsCRT@D@ATL@@@@@ATL@@QAE@ABV01@@Z
  0003e	8d 45 ec	 lea	 eax, DWORD PTR _up$[ebp]
  00041	8b ce		 mov	 ecx, esi
  00043	50		 push	 eax
  00044	e8 00 00 00 00	 call	 ?GetFilePath@CDynamicBitmapLoad@@AAE?AV?$CStringT@DV?$StrTraitMFC_DLL@DV?$ChTraitsCRT@D@ATL@@@@@ATL@@V23@@Z ; CDynamicBitmapLoad::GetFilePath

; 40   : 	CString down = GetFilePath(downImageFileName);

  00049	51		 push	 ecx
  0004a	8d 45 1c	 lea	 eax, DWORD PTR _downImageFileName$[ebp]
  0004d	c6 45 fc 02	 mov	 BYTE PTR __$EHRec$[ebp+8], 2
  00051	8b cc		 mov	 ecx, esp
  00053	50		 push	 eax
  00054	ff 15 00 00 00
	00		 call	 DWORD PTR __imp_??0?$CStringT@DV?$StrTraitMFC_DLL@DV?$ChTraitsCRT@D@ATL@@@@@ATL@@QAE@ABV01@@Z
  0005a	8d 45 f0	 lea	 eax, DWORD PTR _down$[ebp]
  0005d	8b ce		 mov	 ecx, esi
  0005f	50		 push	 eax
  00060	e8 00 00 00 00	 call	 ?GetFilePath@CDynamicBitmapLoad@@AAE?AV?$CStringT@DV?$StrTraitMFC_DLL@DV?$ChTraitsCRT@D@ATL@@@@@ATL@@V23@@Z ; CDynamicBitmapLoad::GetFilePath
; File C:\Program Files (x86)\Microsoft Visual Studio\2019\Community\VC\Tools\MSVC\14.29.30133\atlmfc\include\cstringt.h

; 2486 : 		return(str1.Compare(psz2) == 0);

  00065	68 00 00 00 00	 push	 OFFSET ??_C@_04HIBGFPH@NULL@
  0006a	8d 4d ec	 lea	 ecx, DWORD PTR _up$[ebp]
; File D:\git\src\IBK\IBK_DRFN\ProjSrc\SrcChartEx\ChartAddIn\ChartAnalysisToolAddIn\Symbol\DynamicBitmapLoad.cpp

; 40   : 	CString down = GetFilePath(downImageFileName);

  0006d	c6 45 fc 03	 mov	 BYTE PTR __$EHRec$[ebp+8], 3
; File C:\Program Files (x86)\Microsoft Visual Studio\2019\Community\VC\Tools\MSVC\14.29.30133\atlmfc\include\cstringt.h

; 2486 : 		return(str1.Compare(psz2) == 0);

  00071	ff 15 00 00 00
	00		 call	 DWORD PTR __imp_?Compare@?$CStringT@DV?$StrTraitMFC_DLL@DV?$ChTraitsCRT@D@ATL@@@@@ATL@@QBEHPBD@Z
  00077	85 c0		 test	 eax, eax
; File D:\git\src\IBK\IBK_DRFN\ProjSrc\SrcChartEx\ChartAddIn\ChartAnalysisToolAddIn\Symbol\DynamicBitmapLoad.cpp

; 41   : 	if(up == "NULL" && down == "NULL"){

  00079	75 20		 jne	 SHORT $LN2@AttachBitm
; File C:\Program Files (x86)\Microsoft Visual Studio\2019\Community\VC\Tools\MSVC\14.29.30133\atlmfc\include\cstringt.h

; 2486 : 		return(str1.Compare(psz2) == 0);

  0007b	68 00 00 00 00	 push	 OFFSET ??_C@_04HIBGFPH@NULL@
  00080	8d 4d f0	 lea	 ecx, DWORD PTR _down$[ebp]
  00083	ff 15 00 00 00
	00		 call	 DWORD PTR __imp_?Compare@?$CStringT@DV?$StrTraitMFC_DLL@DV?$ChTraitsCRT@D@ATL@@@@@ATL@@QBEHPBD@Z
  00089	85 c0		 test	 eax, eax
; File D:\git\src\IBK\IBK_DRFN\ProjSrc\SrcChartEx\ChartAddIn\ChartAnalysisToolAddIn\Symbol\DynamicBitmapLoad.cpp

; 41   : 	if(up == "NULL" && down == "NULL"){

  0008b	75 0e		 jne	 SHORT $LN2@AttachBitm

; 42   : 		button->ShowWindow(SW_HIDE);

  0008d	8b 4d 14	 mov	 ecx, DWORD PTR _button$[ebp]
  00090	50		 push	 eax
  00091	e8 00 00 00 00	 call	 ?ShowWindow@CWnd@@QAEHH@Z ; CWnd::ShowWindow
  00096	e9 b8 00 00 00	 jmp	 $LN41@AttachBitm
$LN2@AttachBitm:
; File C:\Program Files (x86)\Microsoft Visual Studio\2019\Community\VC\Tools\MSVC\14.29.30133\atlmfc\include\cstringt.h

; 2486 : 		return(str1.Compare(psz2) == 0);

  0009b	68 00 00 00 00	 push	 OFFSET ??_C@_04HIBGFPH@NULL@
  000a0	8d 4d ec	 lea	 ecx, DWORD PTR _up$[ebp]
  000a3	ff 15 00 00 00
	00		 call	 DWORD PTR __imp_?Compare@?$CStringT@DV?$StrTraitMFC_DLL@DV?$ChTraitsCRT@D@ATL@@@@@ATL@@QBEHPBD@Z
  000a9	85 c0		 test	 eax, eax
; File D:\git\src\IBK\IBK_DRFN\ProjSrc\SrcChartEx\ChartAddIn\ChartAnalysisToolAddIn\Symbol\DynamicBitmapLoad.cpp

; 46   : 	if(up == "NULL")

  000ab	75 08		 jne	 SHORT $LN3@AttachBitm

; 47   : 		up = down;

  000ad	8d 45 f0	 lea	 eax, DWORD PTR _down$[ebp]
  000b0	8d 4d ec	 lea	 ecx, DWORD PTR _up$[ebp]
  000b3	eb 18		 jmp	 SHORT $LN42@AttachBitm
$LN3@AttachBitm:
; File C:\Program Files (x86)\Microsoft Visual Studio\2019\Community\VC\Tools\MSVC\14.29.30133\atlmfc\include\cstringt.h

; 2486 : 		return(str1.Compare(psz2) == 0);

  000b5	68 00 00 00 00	 push	 OFFSET ??_C@_04HIBGFPH@NULL@
  000ba	8d 4d f0	 lea	 ecx, DWORD PTR _down$[ebp]
  000bd	ff 15 00 00 00
	00		 call	 DWORD PTR __imp_?Compare@?$CStringT@DV?$StrTraitMFC_DLL@DV?$ChTraitsCRT@D@ATL@@@@@ATL@@QBEHPBD@Z
  000c3	85 c0		 test	 eax, eax
; File D:\git\src\IBK\IBK_DRFN\ProjSrc\SrcChartEx\ChartAddIn\ChartAnalysisToolAddIn\Symbol\DynamicBitmapLoad.cpp

; 48   : 	else if(down == "NULL")

  000c5	75 0d		 jne	 SHORT $LN5@AttachBitm

; 49   : 		down = up;

  000c7	8d 45 ec	 lea	 eax, DWORD PTR _up$[ebp]
  000ca	8d 4d f0	 lea	 ecx, DWORD PTR _down$[ebp]
$LN42@AttachBitm:

; 50   : 
; 51   : 	AutoLoad(button, up, down);

  000cd	50		 push	 eax
  000ce	ff 15 00 00 00
	00		 call	 DWORD PTR __imp_??4?$CStringT@DV?$StrTraitMFC_DLL@DV?$ChTraitsCRT@D@ATL@@@@@ATL@@QAEAAV01@ABV01@@Z
$LN5@AttachBitm:
  000d4	8d 45 f0	 lea	 eax, DWORD PTR _down$[ebp]
  000d7	50		 push	 eax
  000d8	8d 4d e4	 lea	 ecx, DWORD PTR $T3[ebp]
  000db	ff 15 00 00 00
	00		 call	 DWORD PTR __imp_??0?$CStringT@DV?$StrTraitMFC_DLL@DV?$ChTraitsCRT@D@ATL@@@@@ATL@@QAE@ABV01@@Z
  000e1	8d 45 ec	 lea	 eax, DWORD PTR _up$[ebp]
  000e4	c6 45 fc 04	 mov	 BYTE PTR __$EHRec$[ebp+8], 4
  000e8	50		 push	 eax
  000e9	8d 4d e8	 lea	 ecx, DWORD PTR $T4[ebp]
  000ec	ff 15 00 00 00
	00		 call	 DWORD PTR __imp_??0?$CStringT@DV?$StrTraitMFC_DLL@DV?$ChTraitsCRT@D@ATL@@@@@ATL@@QAE@ABV01@@Z
; File C:\Program Files (x86)\Microsoft Visual Studio\2019\Community\VC\Tools\MSVC\14.29.30133\atlmfc\include\afxwin2.inl

; 634  : 	{ ASSERT(::IsWindow(m_hWnd)); ::SendMessage(m_hWnd, BM_SETSTYLE, nStyle, (LPARAM)bRedraw); }

  000f2	8b 5d 14	 mov	 ebx, DWORD PTR _button$[ebp]
  000f5	6a 01		 push	 1
  000f7	6a 0b		 push	 11			; 0000000bH
  000f9	68 f4 00 00 00	 push	 244			; 000000f4H
  000fe	ff 73 20	 push	 DWORD PTR [ebx+32]
; File D:\git\src\IBK\IBK_DRFN\ProjSrc\SrcChartEx\ChartAddIn\ChartAnalysisToolAddIn\Symbol\DynamicBitmapLoad.cpp

; 85   : {

  00101	c6 45 fc 06	 mov	 BYTE PTR __$EHRec$[ebp+8], 6
; File C:\Program Files (x86)\Microsoft Visual Studio\2019\Community\VC\Tools\MSVC\14.29.30133\atlmfc\include\afxwin2.inl

; 634  : 	{ ASSERT(::IsWindow(m_hWnd)); ::SendMessage(m_hWnd, BM_SETSTYLE, nStyle, (LPARAM)bRedraw); }

  00105	ff 15 00 00 00
	00		 call	 DWORD PTR __imp__SendMessageA@16
; File D:\git\src\IBK\IBK_DRFN\ProjSrc\SrcChartEx\ChartAddIn\ChartAnalysisToolAddIn\Symbol\DynamicBitmapLoad.cpp

; 87   : 	button->Load(upImageFileName, downImageFileName);

  0010b	ff 75 e4	 push	 DWORD PTR $T3[ebp]
  0010e	8b cb		 mov	 ecx, ebx
  00110	ff 75 e8	 push	 DWORD PTR $T4[ebp]
  00113	e8 00 00 00 00	 call	 ?Load@CDynamicBitmapLoadButton@@QAEXPBD0@Z ; CDynamicBitmapLoadButton::Load

; 88   : 	button->SizeToContent();

  00118	8b cb		 mov	 ecx, ebx
  0011a	e8 00 00 00 00	 call	 ?SizeToContent@CDynamicBitmapLoadButton@@QAEXXZ ; CDynamicBitmapLoadButton::SizeToContent

; 89   : }

  0011f	8d 4d e8	 lea	 ecx, DWORD PTR $T4[ebp]
  00122	ff 15 00 00 00
	00		 call	 DWORD PTR __imp_??1?$CStringT@DV?$StrTraitMFC_DLL@DV?$ChTraitsCRT@D@ATL@@@@@ATL@@QAE@XZ
  00128	8d 4d e4	 lea	 ecx, DWORD PTR $T3[ebp]
  0012b	c6 45 fc 03	 mov	 BYTE PTR __$EHRec$[ebp+8], 3
  0012f	ff 15 00 00 00
	00		 call	 DWORD PTR __imp_??1?$CStringT@DV?$StrTraitMFC_DLL@DV?$ChTraitsCRT@D@ATL@@@@@ATL@@QAE@XZ
; File C:\Program Files (x86)\Microsoft Visual Studio\2019\Community\VC\Tools\MSVC\14.29.30133\atlmfc\include\atltypes.h

; 540  : 	left = l;

  00135	8b 7d 08	 mov	 edi, DWORD PTR _btOrgPt$[ebp]
; File D:\git\src\IBK\IBK_DRFN\ProjSrc\SrcChartEx\ChartAddIn\ChartAnalysisToolAddIn\Symbol\DynamicBitmapLoad.cpp

; 101  : 	CRect rect(btOrgPt.x, btOrgPt.y, btOrgPt.x + btWidth, btOrgPt.y + btHeight);

  00138	8b 4d 0c	 mov	 ecx, DWORD PTR _btWidth$[ebp]
; File C:\Program Files (x86)\Microsoft Visual Studio\2019\Community\VC\Tools\MSVC\14.29.30133\atlmfc\include\afxwin2.inl

; 73   : 	{ MoveWindow(lpRect->left, lpRect->top, lpRect->right - lpRect->left,

  0013b	6a 01		 push	 1
  0013d	ff 75 10	 push	 DWORD PTR _btHeight$[ebp]
; File C:\Program Files (x86)\Microsoft Visual Studio\2019\Community\VC\Tools\MSVC\14.29.30133\atlmfc\include\atltypes.h

; 540  : 	left = l;

  00140	8b 07		 mov	 eax, DWORD PTR [edi]
; File C:\Program Files (x86)\Microsoft Visual Studio\2019\Community\VC\Tools\MSVC\14.29.30133\atlmfc\include\afxwin2.inl

; 73   : 	{ MoveWindow(lpRect->left, lpRect->top, lpRect->right - lpRect->left,

  00142	51		 push	 ecx
  00143	ff 77 04	 push	 DWORD PTR [edi+4]
; File D:\git\src\IBK\IBK_DRFN\ProjSrc\SrcChartEx\ChartAddIn\ChartAnalysisToolAddIn\Symbol\DynamicBitmapLoad.cpp

; 101  : 	CRect rect(btOrgPt.x, btOrgPt.y, btOrgPt.x + btWidth, btOrgPt.y + btHeight);

  00146	8d 34 08	 lea	 esi, DWORD PTR [eax+ecx]
; File C:\Program Files (x86)\Microsoft Visual Studio\2019\Community\VC\Tools\MSVC\14.29.30133\atlmfc\include\afxwin2.inl

; 73   : 	{ MoveWindow(lpRect->left, lpRect->top, lpRect->right - lpRect->left,

  00149	8b cb		 mov	 ecx, ebx
  0014b	50		 push	 eax
  0014c	e8 00 00 00 00	 call	 ?MoveWindow@CWnd@@QAEXHHHHH@Z ; CWnd::MoveWindow
; File D:\git\src\IBK\IBK_DRFN\ProjSrc\SrcChartEx\ChartAddIn\ChartAnalysisToolAddIn\Symbol\DynamicBitmapLoad.cpp

; 105  : 	btOrgPt.x = rect.right;

  00151	89 37		 mov	 DWORD PTR [edi], esi
$LN41@AttachBitm:

; 52   : 	ButtonMoveWindow(button, btOrgPt, btWidth, btHeight);
; 53   : }

  00153	8d 4d f0	 lea	 ecx, DWORD PTR _down$[ebp]
  00156	ff 15 00 00 00
	00		 call	 DWORD PTR __imp_??1?$CStringT@DV?$StrTraitMFC_DLL@DV?$ChTraitsCRT@D@ATL@@@@@ATL@@QAE@XZ
  0015c	8d 4d ec	 lea	 ecx, DWORD PTR _up$[ebp]
  0015f	ff 15 00 00 00
	00		 call	 DWORD PTR __imp_??1?$CStringT@DV?$StrTraitMFC_DLL@DV?$ChTraitsCRT@D@ATL@@@@@ATL@@QAE@XZ
  00165	8d 4d 18	 lea	 ecx, DWORD PTR _upImageFileName$[ebp]
  00168	ff 15 00 00 00
	00		 call	 DWORD PTR __imp_??1?$CStringT@DV?$StrTraitMFC_DLL@DV?$ChTraitsCRT@D@ATL@@@@@ATL@@QAE@XZ
  0016e	8d 4d 1c	 lea	 ecx, DWORD PTR _downImageFileName$[ebp]
  00171	ff 15 00 00 00
	00		 call	 DWORD PTR __imp_??1?$CStringT@DV?$StrTraitMFC_DLL@DV?$ChTraitsCRT@D@ATL@@@@@ATL@@QAE@XZ
  00177	8b 4d f4	 mov	 ecx, DWORD PTR __$EHRec$[ebp]
  0017a	64 89 0d 00 00
	00 00		 mov	 DWORD PTR fs:0, ecx
  00181	59		 pop	 ecx
  00182	5f		 pop	 edi
  00183	5e		 pop	 esi
  00184	5b		 pop	 ebx
  00185	8b e5		 mov	 esp, ebp
  00187	5d		 pop	 ebp
  00188	c2 18 00	 ret	 24			; 00000018H
_TEXT	ENDS
;	COMDAT text$x
text$x	SEGMENT
__unwindfunclet$?AttachBitmapToButton@CDynamicBitmapLoad@@AAEXAAVCPoint@@HHPAVCDynamicBitmapLoadButton@@V?$CStringT@DV?$StrTraitMFC_DLL@DV?$ChTraitsCRT@D@ATL@@@@@ATL@@2@Z$0:
  00000	8d 4d 1c	 lea	 ecx, DWORD PTR _downImageFileName$[ebp]
  00003	ff 25 00 00 00
	00		 jmp	 DWORD PTR __imp_??1?$CStringT@DV?$StrTraitMFC_DLL@DV?$ChTraitsCRT@D@ATL@@@@@ATL@@QAE@XZ
__unwindfunclet$?AttachBitmapToButton@CDynamicBitmapLoad@@AAEXAAVCPoint@@HHPAVCDynamicBitmapLoadButton@@V?$CStringT@DV?$StrTraitMFC_DLL@DV?$ChTraitsCRT@D@ATL@@@@@ATL@@2@Z$1:
  00009	8d 4d 18	 lea	 ecx, DWORD PTR _upImageFileName$[ebp]
  0000c	ff 25 00 00 00
	00		 jmp	 DWORD PTR __imp_??1?$CStringT@DV?$StrTraitMFC_DLL@DV?$ChTraitsCRT@D@ATL@@@@@ATL@@QAE@XZ
__unwindfunclet$?AttachBitmapToButton@CDynamicBitmapLoad@@AAEXAAVCPoint@@HHPAVCDynamicBitmapLoadButton@@V?$CStringT@DV?$StrTraitMFC_DLL@DV?$ChTraitsCRT@D@ATL@@@@@ATL@@2@Z$3:
  00012	8d 4d ec	 lea	 ecx, DWORD PTR _up$[ebp]
  00015	ff 25 00 00 00
	00		 jmp	 DWORD PTR __imp_??1?$CStringT@DV?$StrTraitMFC_DLL@DV?$ChTraitsCRT@D@ATL@@@@@ATL@@QAE@XZ
__unwindfunclet$?AttachBitmapToButton@CDynamicBitmapLoad@@AAEXAAVCPoint@@HHPAVCDynamicBitmapLoadButton@@V?$CStringT@DV?$StrTraitMFC_DLL@DV?$ChTraitsCRT@D@ATL@@@@@ATL@@2@Z$5:
  0001b	8d 4d f0	 lea	 ecx, DWORD PTR _down$[ebp]
  0001e	ff 25 00 00 00
	00		 jmp	 DWORD PTR __imp_??1?$CStringT@DV?$StrTraitMFC_DLL@DV?$ChTraitsCRT@D@ATL@@@@@ATL@@QAE@XZ
__unwindfunclet$?AttachBitmapToButton@CDynamicBitmapLoad@@AAEXAAVCPoint@@HHPAVCDynamicBitmapLoadButton@@V?$CStringT@DV?$StrTraitMFC_DLL@DV?$ChTraitsCRT@D@ATL@@@@@ATL@@2@Z$6:
  00024	8d 4d e4	 lea	 ecx, DWORD PTR $T3[ebp]
  00027	ff 25 00 00 00
	00		 jmp	 DWORD PTR __imp_??1?$CStringT@DV?$StrTraitMFC_DLL@DV?$ChTraitsCRT@D@ATL@@@@@ATL@@QAE@XZ
__unwindfunclet$?AttachBitmapToButton@CDynamicBitmapLoad@@AAEXAAVCPoint@@HHPAVCDynamicBitmapLoadButton@@V?$CStringT@DV?$StrTraitMFC_DLL@DV?$ChTraitsCRT@D@ATL@@@@@ATL@@2@Z$8:
  0002d	8d 4d e4	 lea	 ecx, DWORD PTR $T3[ebp]
  00030	ff 25 00 00 00
	00		 jmp	 DWORD PTR __imp_??1?$CStringT@DV?$StrTraitMFC_DLL@DV?$ChTraitsCRT@D@ATL@@@@@ATL@@QAE@XZ
__unwindfunclet$?AttachBitmapToButton@CDynamicBitmapLoad@@AAEXAAVCPoint@@HHPAVCDynamicBitmapLoadButton@@V?$CStringT@DV?$StrTraitMFC_DLL@DV?$ChTraitsCRT@D@ATL@@@@@ATL@@2@Z$9:
  00036	8d 4d e8	 lea	 ecx, DWORD PTR $T4[ebp]
  00039	ff 25 00 00 00
	00		 jmp	 DWORD PTR __imp_??1?$CStringT@DV?$StrTraitMFC_DLL@DV?$ChTraitsCRT@D@ATL@@@@@ATL@@QAE@XZ
  0003f	cc		 int	 3
  00040	cc		 int	 3
  00041	cc		 int	 3
  00042	cc		 int	 3
  00043	cc		 int	 3
__ehhandler$?AttachBitmapToButton@CDynamicBitmapLoad@@AAEXAAVCPoint@@HHPAVCDynamicBitmapLoadButton@@V?$CStringT@DV?$StrTraitMFC_DLL@DV?$ChTraitsCRT@D@ATL@@@@@ATL@@2@Z:
  00044	90		 npad	 1
  00045	90		 npad	 1
  00046	8b 54 24 08	 mov	 edx, DWORD PTR [esp+8]
  0004a	8d 42 0c	 lea	 eax, DWORD PTR [edx+12]
  0004d	8b 4a e0	 mov	 ecx, DWORD PTR [edx-32]
  00050	33 c8		 xor	 ecx, eax
  00052	e8 00 00 00 00	 call	 @__security_check_cookie@4
  00057	b8 00 00 00 00	 mov	 eax, OFFSET __ehfuncinfo$?AttachBitmapToButton@CDynamicBitmapLoad@@AAEXAAVCPoint@@HHPAVCDynamicBitmapLoadButton@@V?$CStringT@DV?$StrTraitMFC_DLL@DV?$ChTraitsCRT@D@ATL@@@@@ATL@@2@Z
  0005c	e9 00 00 00 00	 jmp	 ___CxxFrameHandler3
text$x	ENDS
?AttachBitmapToButton@CDynamicBitmapLoad@@AAEXAAVCPoint@@HHPAVCDynamicBitmapLoadButton@@V?$CStringT@DV?$StrTraitMFC_DLL@DV?$ChTraitsCRT@D@ATL@@@@@ATL@@2@Z ENDP ; CDynamicBitmapLoad::AttachBitmapToButton
; Function compile flags: /Ogtp
; File D:\git\src\IBK\IBK_DRFN\ProjSrc\SrcChartEx\ChartAddIn\ChartAnalysisToolAddIn\Symbol\DynamicBitmapLoad.cpp
;	COMDAT ?LoadButtonBitmap@CDynamicBitmapLoad@@AAEXPBDAAVCBitmap@@PAVCPalette@@@Z
_TEXT	SEGMENT
_sBMPFile$ = 8						; size = 4
_bitmap$ = 12						; size = 4
_pPal$ = 16						; size = 4
?LoadButtonBitmap@CDynamicBitmapLoad@@AAEXPBDAAVCBitmap@@PAVCPalette@@@Z PROC ; CDynamicBitmapLoad::LoadButtonBitmap, COMDAT
; _this$ = ecx

; 143  : /*
; 144  : 	CFile file;
; 145  : 	if( !file.Open( sBMPFile, CFile::modeRead) )
; 146  : 		return FALSE;
; 147  : 
; 148  : 	BITMAPFILEHEADER bmfHeader;
; 149  : 
; 150  : 	// Read file header
; 151  : 	if (file.Read((LPSTR)&bmfHeader, sizeof(bmfHeader)) != sizeof(bmfHeader))
; 152  : 		return FALSE;
; 153  : 
; 154  : 	// File type should be 'BM'
; 155  : 	if (bmfHeader.bfType != ((WORD) ('M' << 8) | 'B'))
; 156  : 		return FALSE;
; 157  : 
; 158  : 	// Get length of the remainder of the file and allocate memory
; 159  : 	DWORD nPackedDIBLen = file.GetLength() - sizeof(BITMAPFILEHEADER);
; 160  : 	HGLOBAL hDIB = ::GlobalAlloc(GMEM_FIXED, nPackedDIBLen);
; 161  : 	if (hDIB == 0)
; 162  : 		return FALSE;
; 163  : 
; 164  : 	// Read the remainder of the bitmap file.
; 165  : 	if (file.ReadHuge((LPSTR)hDIB, nPackedDIBLen) != nPackedDIBLen )
; 166  : 	{
; 167  : 		::GlobalFree(hDIB);
; 168  : 		return FALSE;
; 169  : 	}
; 170  : 
; 171  : 
; 172  : 	BITMAPINFOHEADER &bmiHeader = *(LPBITMAPINFOHEADER)hDIB ;
; 173  : 	BITMAPINFO &bmInfo = *(LPBITMAPINFO)hDIB ;
; 174  : 
; 175  : 	// If bmiHeader.biClrUsed is zero we have to infer the number
; 176  : 	// of colors from the number of bits used to specify it.
; 177  : 	int nColors = bmiHeader.biClrUsed ? bmiHeader.biClrUsed : 
; 178  : 						1 << bmiHeader.biBitCount;
; 179  : 
; 180  : 	LPVOID lpDIBBits;
; 181  : 	if( bmInfo.bmiHeader.biBitCount > 8 )
; 182  : 		lpDIBBits = (LPVOID)((LPDWORD)(bmInfo.bmiColors + bmInfo.bmiHeader.biClrUsed) + 
; 183  : 			((bmInfo.bmiHeader.biCompression == BI_BITFIELDS) ? 3 : 0));
; 184  : 	else
; 185  : 		lpDIBBits = (LPVOID)(bmInfo.bmiColors + nColors);
; 186  : 
; 187  : 	// Create the logical palette
; 188  : 	if( pPal != NULL )
; 189  : 	{
; 190  : 		// Create the palette
; 191  : 		if( nColors <= 256 )
; 192  : 		{
; 193  : 			UINT nSize = sizeof(LOGPALETTE) + (sizeof(PALETTEENTRY) * nColors);
; 194  : 			LOGPALETTE *pLP = (LOGPALETTE *) new BYTE[nSize];
; 195  : 
; 196  : 			pLP->palVersion = 0x300;
; 197  : 			pLP->palNumEntries = nColors;
; 198  : 
; 199  : 			for( int i=0; i < nColors; i++)
; 200  : 			{
; 201  : 				pLP->palPalEntry[i].peRed = bmInfo.bmiColors[i].rgbRed;
; 202  : 				pLP->palPalEntry[i].peGreen = bmInfo.bmiColors[i].rgbGreen;
; 203  : 				pLP->palPalEntry[i].peBlue = bmInfo.bmiColors[i].rgbBlue;
; 204  : 				pLP->palPalEntry[i].peFlags = 0;
; 205  : 			}
; 206  : 
; 207  : 			pPal->CreatePalette( pLP );
; 208  : 
; 209  : 			delete[] pLP;
; 210  : 		}
; 211  : 	}
; 212  : 
; 213  : 	CClientDC dc(NULL);
; 214  : 	CPalette* pOldPalette = NULL;
; 215  : 	if( pPal )
; 216  : 	{
; 217  : 		pOldPalette = dc.SelectPalette( pPal, FALSE );
; 218  : 		dc.RealizePalette();
; 219  : 	}
; 220  : 
; 221  : 	HBITMAP hBmp = CreateDIBitmap( dc.m_hDC,		// handle to device context 
; 222  : 				&bmiHeader,	// pointer to bitmap size and format data 
; 223  : 				CBM_INIT,	// initialization flag 
; 224  : 				lpDIBBits,	// pointer to initialization data 
; 225  : 				&bmInfo,	// pointer to bitmap color-format data 
; 226  : 				DIB_RGB_COLORS);		// color-data usage 
; 227  : 	bitmap.Attach( hBmp );
; 228  : 
; 229  : 	if( pOldPalette )
; 230  : 		dc.SelectPalette( pOldPalette, FALSE );
; 231  : 
; 232  : 	::GlobalFree(hDIB);
; 233  : 	return TRUE;
; 234  : */
; 235  : }

  00000	c2 0c 00	 ret	 12			; 0000000cH
?LoadButtonBitmap@CDynamicBitmapLoad@@AAEXPBDAAVCBitmap@@PAVCPalette@@@Z ENDP ; CDynamicBitmapLoad::LoadButtonBitmap
_TEXT	ENDS
; Function compile flags: /Ogtp
; File D:\git\src\IBK\IBK_DRFN\ProjSrc\SrcChartEx\ChartAddIn\ChartAnalysisToolAddIn\Symbol\DynamicBitmapLoad.cpp
; File C:\Program Files (x86)\Microsoft Visual Studio\2019\Community\VC\Tools\MSVC\14.29.30133\atlmfc\include\cstringt.h
; File D:\git\src\IBK\IBK_DRFN\ProjSrc\SrcChartEx\ChartAddIn\ChartAnalysisToolAddIn\Symbol\DynamicBitmapLoad.cpp
; File C:\Program Files (x86)\Microsoft Visual Studio\2019\Community\VC\Tools\MSVC\14.29.30133\atlmfc\include\cstringt.h
; File D:\git\src\IBK\IBK_DRFN\ProjSrc\SrcChartEx\ChartAddIn\ChartAnalysisToolAddIn\Symbol\DynamicBitmapLoad.cpp
; File C:\Program Files (x86)\Microsoft Visual Studio\2019\Community\VC\Tools\MSVC\14.29.30133\atlmfc\include\afxwin1.inl
; File D:\git\src\IBK\IBK_DRFN\ProjSrc\SrcChartEx\ChartAddIn\ChartAnalysisToolAddIn\Symbol\DynamicBitmapLoad.cpp
; File C:\Program Files (x86)\Microsoft Visual Studio\2019\Community\VC\Tools\MSVC\14.29.30133\atlmfc\include\afxwin1.inl
; File D:\git\src\IBK\IBK_DRFN\ProjSrc\SrcChartEx\ChartAddIn\ChartAnalysisToolAddIn\Symbol\DynamicBitmapLoad.cpp
; File C:\Program Files (x86)\Microsoft Visual Studio\2019\Community\VC\Tools\MSVC\14.29.30133\atlmfc\include\afxwin1.inl
; File D:\git\src\IBK\IBK_DRFN\ProjSrc\SrcChartEx\ChartAddIn\ChartAnalysisToolAddIn\Symbol\DynamicBitmapLoad.cpp
; File C:\Program Files (x86)\Microsoft Visual Studio\2019\Community\VC\Tools\MSVC\14.29.30133\atlmfc\include\afxwin1.inl
; File D:\git\src\IBK\IBK_DRFN\ProjSrc\SrcChartEx\ChartAddIn\ChartAnalysisToolAddIn\Symbol\DynamicBitmapLoad.cpp
;	COMDAT ?LoadBitmapA@CDynamicBitmapLoad@@QAEXPAVCDynamicBitmapLoadButton@@ABV?$CStringT@DV?$StrTraitMFC_DLL@DV?$ChTraitsCRT@D@ATL@@@@@ATL@@1@Z
_TEXT	SEGMENT
_bitMap$2 = -60						; size = 24
_bitmap$3 = -36						; size = 8
$T4 = -28						; size = 4
$T5 = -24						; size = 4
_x$1$ = -20						; size = 4
_filePath$6 = -16					; size = 4
__$EHRec$ = -12						; size = 12
_pbutton$ = 8						; size = 4
_upfilepath$ = 12					; size = 4
_downfilepath$ = 16					; size = 4
?LoadBitmapA@CDynamicBitmapLoad@@QAEXPAVCDynamicBitmapLoadButton@@ABV?$CStringT@DV?$StrTraitMFC_DLL@DV?$ChTraitsCRT@D@ATL@@@@@ATL@@1@Z PROC ; CDynamicBitmapLoad::LoadBitmapA, COMDAT
; _this$ = ecx

; 114  : {

  00000	55		 push	 ebp
  00001	8b ec		 mov	 ebp, esp
  00003	6a ff		 push	 -1
  00005	68 00 00 00 00	 push	 __ehhandler$?LoadBitmapA@CDynamicBitmapLoad@@QAEXPAVCDynamicBitmapLoadButton@@ABV?$CStringT@DV?$StrTraitMFC_DLL@DV?$ChTraitsCRT@D@ATL@@@@@ATL@@1@Z
  0000a	64 a1 00 00 00
	00		 mov	 eax, DWORD PTR fs:0
  00010	50		 push	 eax
  00011	83 ec 30	 sub	 esp, 48			; 00000030H
  00014	53		 push	 ebx
  00015	56		 push	 esi
  00016	57		 push	 edi
  00017	a1 00 00 00 00	 mov	 eax, DWORD PTR ___security_cookie
  0001c	33 c5		 xor	 eax, ebp
  0001e	50		 push	 eax
  0001f	8d 45 f4	 lea	 eax, DWORD PTR __$EHRec$[ebp]
  00022	64 a3 00 00 00
	00		 mov	 DWORD PTR fs:0, eax
  00028	8b f9		 mov	 edi, ecx

; 57   : 	CString filePath;

  0002a	8d 4d f0	 lea	 ecx, DWORD PTR _filePath$6[ebp]

; 115  : 	int x = 0, y = 0;

  0002d	c7 45 ec 00 00
	00 00		 mov	 DWORD PTR _x$1$[ebp], 0
  00034	33 db		 xor	 ebx, ebx

; 57   : 	CString filePath;

  00036	ff 15 00 00 00
	00		 call	 DWORD PTR __imp_??0?$CStringT@DV?$StrTraitMFC_DLL@DV?$ChTraitsCRT@D@ATL@@@@@ATL@@QAE@XZ

; 58   : 	if((filePath = GetFilePath("left_up.bmp")) == "NULL")

  0003c	51		 push	 ecx
  0003d	8b cc		 mov	 ecx, esp
  0003f	89 5d fc	 mov	 DWORD PTR __$EHRec$[ebp+8], ebx
  00042	68 00 00 00 00	 push	 OFFSET ??_C@_0M@EANNFIMC@left_up?4bmp@
  00047	ff 15 00 00 00
	00		 call	 DWORD PTR __imp_??0?$CStringT@DV?$StrTraitMFC_DLL@DV?$ChTraitsCRT@D@ATL@@@@@ATL@@QAE@PBD@Z
  0004d	8d 45 e8	 lea	 eax, DWORD PTR $T5[ebp]
  00050	8b cf		 mov	 ecx, edi
  00052	50		 push	 eax
  00053	e8 00 00 00 00	 call	 ?GetFilePath@CDynamicBitmapLoad@@AAE?AV?$CStringT@DV?$StrTraitMFC_DLL@DV?$ChTraitsCRT@D@ATL@@@@@ATL@@V23@@Z ; CDynamicBitmapLoad::GetFilePath
  00058	50		 push	 eax
  00059	8d 4d f0	 lea	 ecx, DWORD PTR _filePath$6[ebp]
  0005c	c6 45 fc 01	 mov	 BYTE PTR __$EHRec$[ebp+8], 1
  00060	ff 15 00 00 00
	00		 call	 DWORD PTR __imp_??4?$CStringT@DV?$StrTraitMFC_DLL@DV?$ChTraitsCRT@D@ATL@@@@@ATL@@QAEAAV01@ABV01@@Z
; File C:\Program Files (x86)\Microsoft Visual Studio\2019\Community\VC\Tools\MSVC\14.29.30133\atlmfc\include\cstringt.h

; 2486 : 		return(str1.Compare(psz2) == 0);

  00066	68 00 00 00 00	 push	 OFFSET ??_C@_04HIBGFPH@NULL@
  0006b	8b c8		 mov	 ecx, eax
  0006d	ff 15 00 00 00
	00		 call	 DWORD PTR __imp_?Compare@?$CStringT@DV?$StrTraitMFC_DLL@DV?$ChTraitsCRT@D@ATL@@@@@ATL@@QBEHPBD@Z
; File D:\git\src\IBK\IBK_DRFN\ProjSrc\SrcChartEx\ChartAddIn\ChartAnalysisToolAddIn\Symbol\DynamicBitmapLoad.cpp

; 58   : 	if((filePath = GetFilePath("left_up.bmp")) == "NULL")

  00073	8d 4d e8	 lea	 ecx, DWORD PTR $T5[ebp]
; File C:\Program Files (x86)\Microsoft Visual Studio\2019\Community\VC\Tools\MSVC\14.29.30133\atlmfc\include\cstringt.h

; 2486 : 		return(str1.Compare(psz2) == 0);

  00076	8b f0		 mov	 esi, eax
; File D:\git\src\IBK\IBK_DRFN\ProjSrc\SrcChartEx\ChartAddIn\ChartAnalysisToolAddIn\Symbol\DynamicBitmapLoad.cpp

; 58   : 	if((filePath = GetFilePath("left_up.bmp")) == "NULL")

  00078	ff 15 00 00 00
	00		 call	 DWORD PTR __imp_??1?$CStringT@DV?$StrTraitMFC_DLL@DV?$ChTraitsCRT@D@ATL@@@@@ATL@@QAE@XZ
  0007e	85 f6		 test	 esi, esi
  00080	74 4d		 je	 SHORT $LN27@LoadBitmap

; 59   : 		return false;
; 60   : 
; 61   : 	HBITMAP hBitmap = NULL; 
; 62   : 	hBitmap = (HBITMAP)LoadImage(NULL, filePath, IMAGE_BITMAP, 0, 0, LR_LOADFROMFILE | LR_DEFAULTSIZE);

  00082	6a 50		 push	 80			; 00000050H
  00084	53		 push	 ebx
  00085	53		 push	 ebx
  00086	53		 push	 ebx
  00087	ff 75 f0	 push	 DWORD PTR _filePath$6[ebp]
  0008a	53		 push	 ebx
  0008b	ff 15 00 00 00
	00		 call	 DWORD PTR __imp__LoadImageA@24
; File C:\Program Files (x86)\Microsoft Visual Studio\2019\Community\VC\Tools\MSVC\14.29.30133\atlmfc\include\afxwin1.inl

; 70   : 	{ m_hObject = NULL; }

  00091	89 5d e0	 mov	 DWORD PTR _bitmap$3[ebp+4], ebx

; 177  : 	{ }

  00094	c7 45 dc 00 00
	00 00		 mov	 DWORD PTR _bitmap$3[ebp], OFFSET ??_7CBitmap@@6B@
; File D:\git\src\IBK\IBK_DRFN\ProjSrc\SrcChartEx\ChartAddIn\ChartAnalysisToolAddIn\Symbol\DynamicBitmapLoad.cpp

; 65   : 	bitmap.Attach(hBitmap);

  0009b	50		 push	 eax
  0009c	8d 4d dc	 lea	 ecx, DWORD PTR _bitmap$3[ebp]
  0009f	c6 45 fc 02	 mov	 BYTE PTR __$EHRec$[ebp+8], 2
  000a3	e8 00 00 00 00	 call	 ?Attach@CGdiObject@@QAEHPAX@Z ; CGdiObject::Attach
; File C:\Program Files (x86)\Microsoft Visual Studio\2019\Community\VC\Tools\MSVC\14.29.30133\atlmfc\include\afxwin1.inl

; 222  : 		return ::GetObject(m_hObject, sizeof(BITMAP), pBitMap); }

  000a8	8d 45 c4	 lea	 eax, DWORD PTR _bitMap$2[ebp]
  000ab	50		 push	 eax
  000ac	6a 18		 push	 24			; 00000018H
  000ae	ff 75 e0	 push	 DWORD PTR _bitmap$3[ebp+4]
  000b1	ff 15 00 00 00
	00		 call	 DWORD PTR __imp__GetObjectA@12
; File D:\git\src\IBK\IBK_DRFN\ProjSrc\SrcChartEx\ChartAddIn\ChartAnalysisToolAddIn\Symbol\DynamicBitmapLoad.cpp

; 70   : 	x = bitMap.bmWidth;

  000b7	8b 45 c8	 mov	 eax, DWORD PTR _bitMap$2[ebp+4]
; File C:\Program Files (x86)\Microsoft Visual Studio\2019\Community\VC\Tools\MSVC\14.29.30133\atlmfc\include\afxwin1.inl

; 179  : 	{ }

  000ba	8d 4d dc	 lea	 ecx, DWORD PTR _bitmap$3[ebp]
; File D:\git\src\IBK\IBK_DRFN\ProjSrc\SrcChartEx\ChartAddIn\ChartAnalysisToolAddIn\Symbol\DynamicBitmapLoad.cpp

; 71   : 	y = bitMap.bmHeight;

  000bd	8b 5d cc	 mov	 ebx, DWORD PTR _bitMap$2[ebp+8]
  000c0	89 45 ec	 mov	 DWORD PTR _x$1$[ebp], eax
; File C:\Program Files (x86)\Microsoft Visual Studio\2019\Community\VC\Tools\MSVC\14.29.30133\atlmfc\include\afxwin1.inl

; 179  : 	{ }

  000c3	c7 45 dc 00 00
	00 00		 mov	 DWORD PTR _bitmap$3[ebp], OFFSET ??_7CBitmap@@6B@
  000ca	e8 00 00 00 00	 call	 ??1CGdiObject@@UAE@XZ	; CGdiObject::~CGdiObject
$LN27@LoadBitmap:
; File D:\git\src\IBK\IBK_DRFN\ProjSrc\SrcChartEx\ChartAddIn\ChartAnalysisToolAddIn\Symbol\DynamicBitmapLoad.cpp

; 117  : 	if(m_ptOrgButton.x == 95) {//일렬로 된 버튼이 아니다. 그래서 필요함.

  000cf	8d 4d f0	 lea	 ecx, DWORD PTR _filePath$6[ebp]
  000d2	c7 45 fc ff ff
	ff ff		 mov	 DWORD PTR __$EHRec$[ebp+8], -1
  000d9	ff 15 00 00 00
	00		 call	 DWORD PTR __imp_??1?$CStringT@DV?$StrTraitMFC_DLL@DV?$ChTraitsCRT@D@ATL@@@@@ATL@@QAE@XZ
  000df	83 7f 0c 5f	 cmp	 DWORD PTR [edi+12], 95	; 0000005fH
  000e3	8d 77 0c	 lea	 esi, DWORD PTR [edi+12]
  000e6	75 18		 jne	 SHORT $LN2@LoadBitmap

; 118  : 	   m_ptOrgButton.x = m_nButtonGap;
; 119  : 	   m_ptOrgButton.y = m_nButtonGap + (y * m_nRow);

  000e8	8b 4f 04	 mov	 ecx, DWORD PTR [edi+4]
  000eb	8b c1		 mov	 eax, ecx
  000ed	8b 57 08	 mov	 edx, DWORD PTR [edi+8]
  000f0	0f af c3	 imul	 eax, ebx
  000f3	89 16		 mov	 DWORD PTR [esi], edx
  000f5	03 c2		 add	 eax, edx
  000f7	89 47 10	 mov	 DWORD PTR [edi+16], eax

; 120  : 	   m_nRow++;

  000fa	8d 41 01	 lea	 eax, DWORD PTR [ecx+1]
  000fd	89 47 04	 mov	 DWORD PTR [edi+4], eax
$LN2@LoadBitmap:

; 121  : 	}
; 122  : 	AttachBitmapToButton(m_ptOrgButton, x, y, pbutton, upfilepath, downfilepath);

  00100	51		 push	 ecx
  00101	8b cc		 mov	 ecx, esp
  00103	89 65 e4	 mov	 DWORD PTR $T4[ebp], esp
  00106	ff 75 10	 push	 DWORD PTR _downfilepath$[ebp]
  00109	ff 15 00 00 00
	00		 call	 DWORD PTR __imp_??0?$CStringT@DV?$StrTraitMFC_DLL@DV?$ChTraitsCRT@D@ATL@@@@@ATL@@QAE@ABV01@@Z
  0010f	51		 push	 ecx
  00110	8b cc		 mov	 ecx, esp
  00112	c7 45 fc 03 00
	00 00		 mov	 DWORD PTR __$EHRec$[ebp+8], 3
  00119	ff 75 0c	 push	 DWORD PTR _upfilepath$[ebp]
  0011c	ff 15 00 00 00
	00		 call	 DWORD PTR __imp_??0?$CStringT@DV?$StrTraitMFC_DLL@DV?$ChTraitsCRT@D@ATL@@@@@ATL@@QAE@ABV01@@Z
  00122	ff 75 08	 push	 DWORD PTR _pbutton$[ebp]
  00125	8b cf		 mov	 ecx, edi
  00127	c7 45 fc ff ff
	ff ff		 mov	 DWORD PTR __$EHRec$[ebp+8], -1
  0012e	53		 push	 ebx
  0012f	ff 75 ec	 push	 DWORD PTR _x$1$[ebp]
  00132	56		 push	 esi
  00133	e8 00 00 00 00	 call	 ?AttachBitmapToButton@CDynamicBitmapLoad@@AAEXAAVCPoint@@HHPAVCDynamicBitmapLoadButton@@V?$CStringT@DV?$StrTraitMFC_DLL@DV?$ChTraitsCRT@D@ATL@@@@@ATL@@2@Z ; CDynamicBitmapLoad::AttachBitmapToButton

; 123  : }

  00138	8b 4d f4	 mov	 ecx, DWORD PTR __$EHRec$[ebp]
  0013b	64 89 0d 00 00
	00 00		 mov	 DWORD PTR fs:0, ecx
  00142	59		 pop	 ecx
  00143	5f		 pop	 edi
  00144	5e		 pop	 esi
  00145	5b		 pop	 ebx
  00146	8b e5		 mov	 esp, ebp
  00148	5d		 pop	 ebp
  00149	c2 0c 00	 ret	 12			; 0000000cH
_TEXT	ENDS
;	COMDAT text$x
text$x	SEGMENT
__unwindfunclet$?LoadBitmapA@CDynamicBitmapLoad@@QAEXPAVCDynamicBitmapLoadButton@@ABV?$CStringT@DV?$StrTraitMFC_DLL@DV?$ChTraitsCRT@D@ATL@@@@@ATL@@1@Z$2:
  00000	8d 4d f0	 lea	 ecx, DWORD PTR _filePath$6[ebp]
  00003	ff 25 00 00 00
	00		 jmp	 DWORD PTR __imp_??1?$CStringT@DV?$StrTraitMFC_DLL@DV?$ChTraitsCRT@D@ATL@@@@@ATL@@QAE@XZ
__unwindfunclet$?LoadBitmapA@CDynamicBitmapLoad@@QAEXPAVCDynamicBitmapLoadButton@@ABV?$CStringT@DV?$StrTraitMFC_DLL@DV?$ChTraitsCRT@D@ATL@@@@@ATL@@1@Z$4:
  00009	8d 4d e8	 lea	 ecx, DWORD PTR $T5[ebp]
  0000c	ff 25 00 00 00
	00		 jmp	 DWORD PTR __imp_??1?$CStringT@DV?$StrTraitMFC_DLL@DV?$ChTraitsCRT@D@ATL@@@@@ATL@@QAE@XZ
__unwindfunclet$?LoadBitmapA@CDynamicBitmapLoad@@QAEXPAVCDynamicBitmapLoadButton@@ABV?$CStringT@DV?$StrTraitMFC_DLL@DV?$ChTraitsCRT@D@ATL@@@@@ATL@@1@Z$5:
  00012	8d 4d dc	 lea	 ecx, DWORD PTR _bitmap$3[ebp]
  00015	e9 00 00 00 00	 jmp	 ??1CBitmap@@UAE@XZ	; CBitmap::~CBitmap
__unwindfunclet$?LoadBitmapA@CDynamicBitmapLoad@@QAEXPAVCDynamicBitmapLoadButton@@ABV?$CStringT@DV?$StrTraitMFC_DLL@DV?$ChTraitsCRT@D@ATL@@@@@ATL@@1@Z$0:
  0001a	8b 4d e4	 mov	 ecx, DWORD PTR $T4[ebp]
  0001d	ff 25 00 00 00
	00		 jmp	 DWORD PTR __imp_??1?$CStringT@DV?$StrTraitMFC_DLL@DV?$ChTraitsCRT@D@ATL@@@@@ATL@@QAE@XZ
  00023	cc		 int	 3
  00024	cc		 int	 3
  00025	cc		 int	 3
  00026	cc		 int	 3
  00027	cc		 int	 3
__ehhandler$?LoadBitmapA@CDynamicBitmapLoad@@QAEXPAVCDynamicBitmapLoadButton@@ABV?$CStringT@DV?$StrTraitMFC_DLL@DV?$ChTraitsCRT@D@ATL@@@@@ATL@@1@Z:
  00028	90		 npad	 1
  00029	90		 npad	 1
  0002a	8b 54 24 08	 mov	 edx, DWORD PTR [esp+8]
  0002e	8d 42 0c	 lea	 eax, DWORD PTR [edx+12]
  00031	8b 4a c0	 mov	 ecx, DWORD PTR [edx-64]
  00034	33 c8		 xor	 ecx, eax
  00036	e8 00 00 00 00	 call	 @__security_check_cookie@4
  0003b	b8 00 00 00 00	 mov	 eax, OFFSET __ehfuncinfo$?LoadBitmapA@CDynamicBitmapLoad@@QAEXPAVCDynamicBitmapLoadButton@@ABV?$CStringT@DV?$StrTraitMFC_DLL@DV?$ChTraitsCRT@D@ATL@@@@@ATL@@1@Z
  00040	e9 00 00 00 00	 jmp	 ___CxxFrameHandler3
text$x	ENDS
?LoadBitmapA@CDynamicBitmapLoad@@QAEXPAVCDynamicBitmapLoadButton@@ABV?$CStringT@DV?$StrTraitMFC_DLL@DV?$ChTraitsCRT@D@ATL@@@@@ATL@@1@Z ENDP ; CDynamicBitmapLoad::LoadBitmapA
; Function compile flags: /Ogtp
; File D:\git\src\IBK\IBK_DRFN\ProjSrc\SrcChartEx\ChartAddIn\ChartAnalysisToolAddIn\Symbol\DynamicBitmapLoad.cpp
;	COMDAT ??1CDynamicBitmapLoad@@UAE@XZ
_TEXT	SEGMENT
??1CDynamicBitmapLoad@@UAE@XZ PROC			; CDynamicBitmapLoad::~CDynamicBitmapLoad, COMDAT
; _this$ = ecx

; 32   : {

  00000	c7 01 00 00 00
	00		 mov	 DWORD PTR [ecx], OFFSET ??_7CDynamicBitmapLoad@@6B@

; 33   : 
; 34   : }

  00006	83 c1 14	 add	 ecx, 20			; 00000014H
  00009	ff 25 00 00 00
	00		 jmp	 DWORD PTR __imp_??1?$CStringT@DV?$StrTraitMFC_DLL@DV?$ChTraitsCRT@D@ATL@@@@@ATL@@QAE@XZ
??1CDynamicBitmapLoad@@UAE@XZ ENDP			; CDynamicBitmapLoad::~CDynamicBitmapLoad
_TEXT	ENDS
; Function compile flags: /Ogtp
; File D:\git\src\IBK\IBK_DRFN\ProjSrc\SrcChartEx\ChartAddIn\ChartAnalysisToolAddIn\Symbol\DynamicBitmapLoad.cpp
; File C:\Program Files (x86)\Microsoft Visual Studio\2019\Community\VC\Tools\MSVC\14.29.30133\atlmfc\include\atltypes.h
; File D:\git\src\IBK\IBK_DRFN\ProjSrc\SrcChartEx\ChartAddIn\ChartAnalysisToolAddIn\Symbol\DynamicBitmapLoad.cpp
;	COMDAT ??0CDynamicBitmapLoad@@QAE@XZ
_TEXT	SEGMENT
_this$ = -4						; size = 4
??0CDynamicBitmapLoad@@QAE@XZ PROC			; CDynamicBitmapLoad::CDynamicBitmapLoad, COMDAT
; _this$ = ecx

; 28   : {

  00000	55		 push	 ebp
  00001	8b ec		 mov	 ebp, esp
  00003	51		 push	 ecx
  00004	56		 push	 esi
  00005	8b f1		 mov	 esi, ecx
  00007	89 75 fc	 mov	 DWORD PTR _this$[ebp], esi
  0000a	c7 06 00 00 00
	00		 mov	 DWORD PTR [esi], OFFSET ??_7CDynamicBitmapLoad@@6B@
  00010	8d 4e 14	 lea	 ecx, DWORD PTR [esi+20]
  00013	c7 46 04 01 00
	00 00		 mov	 DWORD PTR [esi+4], 1
  0001a	c7 46 08 0b 00
	00 00		 mov	 DWORD PTR [esi+8], 11	; 0000000bH
; File C:\Program Files (x86)\Microsoft Visual Studio\2019\Community\VC\Tools\MSVC\14.29.30133\atlmfc\include\atltypes.h

; 408  : 	x = initX;

  00021	c7 46 0c 0b 00
	00 00		 mov	 DWORD PTR [esi+12], 11	; 0000000bH

; 409  : 	y = initY;

  00028	c7 46 10 0b 00
	00 00		 mov	 DWORD PTR [esi+16], 11	; 0000000bH
; File D:\git\src\IBK\IBK_DRFN\ProjSrc\SrcChartEx\ChartAddIn\ChartAnalysisToolAddIn\Symbol\DynamicBitmapLoad.cpp

; 28   : {

  0002f	ff 15 00 00 00
	00		 call	 DWORD PTR __imp_??0?$CStringT@DV?$StrTraitMFC_DLL@DV?$ChTraitsCRT@D@ATL@@@@@ATL@@QAE@XZ

; 29   : }

  00035	8b c6		 mov	 eax, esi
  00037	5e		 pop	 esi
  00038	8b e5		 mov	 esp, ebp
  0003a	5d		 pop	 ebp
  0003b	c3		 ret	 0
??0CDynamicBitmapLoad@@QAE@XZ ENDP			; CDynamicBitmapLoad::CDynamicBitmapLoad
_TEXT	ENDS
; Function compile flags: /Ogtp
; File D:\git\src\IBK\IBK_DRFN\ProjSrc\SrcChartEx\ChartAddIn\ChartAnalysisToolAddIn\Symbol\DynamicBitmapLoad.cpp
;	COMDAT ?SetFilePath@CDynamicBitmapLoad@@QAEXABV?$CStringT@DV?$StrTraitMFC_DLL@DV?$ChTraitsCRT@D@ATL@@@@@ATL@@@Z
_TEXT	SEGMENT
_filePath$ = 8						; size = 4
?SetFilePath@CDynamicBitmapLoad@@QAEXABV?$CStringT@DV?$StrTraitMFC_DLL@DV?$ChTraitsCRT@D@ATL@@@@@ATL@@@Z PROC ; CDynamicBitmapLoad::SetFilePath, COMDAT
; _this$ = ecx

; 277  : {

  00000	55		 push	 ebp
  00001	8b ec		 mov	 ebp, esp

; 278  : 	m_strTotalPath = filePath;

  00003	83 c1 14	 add	 ecx, 20			; 00000014H

; 279  : }

  00006	5d		 pop	 ebp

; 278  : 	m_strTotalPath = filePath;

  00007	ff 25 00 00 00
	00		 jmp	 DWORD PTR __imp_??4?$CStringT@DV?$StrTraitMFC_DLL@DV?$ChTraitsCRT@D@ATL@@@@@ATL@@QAEAAV01@ABV01@@Z
?SetFilePath@CDynamicBitmapLoad@@QAEXABV?$CStringT@DV?$StrTraitMFC_DLL@DV?$ChTraitsCRT@D@ATL@@@@@ATL@@@Z ENDP ; CDynamicBitmapLoad::SetFilePath
_TEXT	ENDS
; Function compile flags: /Ogtp
; File C:\Program Files (x86)\Microsoft Visual Studio\2019\Community\VC\Tools\MSVC\14.29.30133\atlmfc\include\afxwin1.inl
; File C:\Program Files (x86)\Microsoft Visual Studio\2019\Community\VC\Tools\MSVC\14.29.30133\atlmfc\include\afx.inl
;	COMDAT ??_GCBitmap@@UAEPAXI@Z
_TEXT	SEGMENT
___flags$ = 8						; size = 4
??_GCBitmap@@UAEPAXI@Z PROC				; CBitmap::`scalar deleting destructor', COMDAT
; _this$ = ecx
  00000	55		 push	 ebp
  00001	8b ec		 mov	 ebp, esp
; File C:\Program Files (x86)\Microsoft Visual Studio\2019\Community\VC\Tools\MSVC\14.29.30133\atlmfc\include\afxwin1.inl

; 179  : 	{ }

  00003	56		 push	 esi
  00004	8b f1		 mov	 esi, ecx
  00006	c7 06 00 00 00
	00		 mov	 DWORD PTR [esi], OFFSET ??_7CBitmap@@6B@
  0000c	e8 00 00 00 00	 call	 ??1CGdiObject@@UAE@XZ	; CGdiObject::~CGdiObject
  00011	8b 45 08	 mov	 eax, DWORD PTR ___flags$[ebp]
  00014	a8 01		 test	 al, 1
  00016	74 1f		 je	 SHORT $LN12@scalar
  00018	a8 04		 test	 al, 4
  0001a	75 10		 jne	 SHORT $LN3@scalar
; File C:\Program Files (x86)\Microsoft Visual Studio\2019\Community\VC\Tools\MSVC\14.29.30133\atlmfc\include\afx.inl

; 112  : 	{ ::operator delete(p); }

  0001c	56		 push	 esi
  0001d	e8 00 00 00 00	 call	 ??3@YAXPAX@Z		; operator delete
  00022	83 c4 04	 add	 esp, 4
  00025	8b c6		 mov	 eax, esi
  00027	5e		 pop	 esi
  00028	5d		 pop	 ebp
  00029	c2 04 00	 ret	 4
$LN3@scalar:
  0002c	6a 08		 push	 8
  0002e	56		 push	 esi
  0002f	e8 00 00 00 00	 call	 ?__global_delete@@YAXPAXI@Z ; __global_delete
  00034	83 c4 08	 add	 esp, 8
$LN12@scalar:
  00037	8b c6		 mov	 eax, esi
  00039	5e		 pop	 esi
  0003a	5d		 pop	 ebp
  0003b	c2 04 00	 ret	 4
??_GCBitmap@@UAEPAXI@Z ENDP				; CBitmap::`scalar deleting destructor'
_TEXT	ENDS
; Function compile flags: /Ogtp
; File C:\Program Files (x86)\Microsoft Visual Studio\2019\Community\VC\Tools\MSVC\14.29.30133\atlmfc\include\afxwin1.inl
;	COMDAT ??1CBitmap@@UAE@XZ
_TEXT	SEGMENT
??1CBitmap@@UAE@XZ PROC					; CBitmap::~CBitmap, COMDAT
; _this$ = ecx

; 179  : 	{ }

  00000	c7 01 00 00 00
	00		 mov	 DWORD PTR [ecx], OFFSET ??_7CBitmap@@6B@
  00006	e9 00 00 00 00	 jmp	 ??1CGdiObject@@UAE@XZ	; CGdiObject::~CGdiObject
??1CBitmap@@UAE@XZ ENDP					; CBitmap::~CBitmap
_TEXT	ENDS
; Function compile flags: /Ogtp
; File C:\Program Files (x86)\Microsoft Visual Studio\2019\Community\VC\Tools\MSVC\14.29.30133\atlmfc\include\afx.inl
;	COMDAT ??_GCGdiObject@@UAEPAXI@Z
_TEXT	SEGMENT
___flags$ = 8						; size = 4
??_GCGdiObject@@UAEPAXI@Z PROC				; CGdiObject::`scalar deleting destructor', COMDAT
; _this$ = ecx
  00000	55		 push	 ebp
  00001	8b ec		 mov	 ebp, esp
  00003	56		 push	 esi
  00004	8b f1		 mov	 esi, ecx
  00006	e8 00 00 00 00	 call	 ??1CGdiObject@@UAE@XZ	; CGdiObject::~CGdiObject
  0000b	8b 45 08	 mov	 eax, DWORD PTR ___flags$[ebp]
  0000e	a8 01		 test	 al, 1
  00010	74 1f		 je	 SHORT $LN9@scalar
  00012	a8 04		 test	 al, 4
  00014	75 10		 jne	 SHORT $LN3@scalar

; 112  : 	{ ::operator delete(p); }

  00016	56		 push	 esi
  00017	e8 00 00 00 00	 call	 ??3@YAXPAX@Z		; operator delete
  0001c	83 c4 04	 add	 esp, 4
  0001f	8b c6		 mov	 eax, esi
  00021	5e		 pop	 esi
  00022	5d		 pop	 ebp
  00023	c2 04 00	 ret	 4
$LN3@scalar:
  00026	6a 08		 push	 8
  00028	56		 push	 esi
  00029	e8 00 00 00 00	 call	 ?__global_delete@@YAXPAXI@Z ; __global_delete
  0002e	83 c4 08	 add	 esp, 8
$LN9@scalar:
  00031	8b c6		 mov	 eax, esi
  00033	5e		 pop	 esi
  00034	5d		 pop	 ebp
  00035	c2 04 00	 ret	 4
??_GCGdiObject@@UAEPAXI@Z ENDP				; CGdiObject::`scalar deleting destructor'
_TEXT	ENDS
; Function compile flags: /Ogtp
; File C:\Program Files (x86)\Microsoft Visual Studio\2019\Community\VC\Tools\MSVC\14.29.30133\atlmfc\include\afxwin1.inl
;	COMDAT ??1CGdiObject@@UAE@XZ
_TEXT	SEGMENT
_pException$2 = -540					; size = 4
_strMsg$3 = -536					; size = 4
_szErrorMessage$4 = -532				; size = 512
__$ArrayPad$ = -20					; size = 4
__$EHRec$ = -16						; size = 16
??1CGdiObject@@UAE@XZ PROC				; CGdiObject::~CGdiObject, COMDAT
; _this$ = ecx

; 74   : {

  00000	55		 push	 ebp
  00001	8b ec		 mov	 ebp, esp
  00003	6a ff		 push	 -1
  00005	68 00 00 00 00	 push	 __ehhandler$??1CGdiObject@@UAE@XZ
  0000a	64 a1 00 00 00
	00		 mov	 eax, DWORD PTR fs:0
  00010	50		 push	 eax
  00011	81 ec 10 02 00
	00		 sub	 esp, 528		; 00000210H
  00017	a1 00 00 00 00	 mov	 eax, DWORD PTR ___security_cookie
  0001c	33 c5		 xor	 eax, ebp
  0001e	89 45 ec	 mov	 DWORD PTR __$ArrayPad$[ebp], eax
  00021	53		 push	 ebx
  00022	56		 push	 esi
  00023	57		 push	 edi
  00024	50		 push	 eax
  00025	8d 45 f4	 lea	 eax, DWORD PTR __$EHRec$[ebp+4]
  00028	64 a3 00 00 00
	00		 mov	 DWORD PTR fs:0, eax
  0002e	89 65 f0	 mov	 DWORD PTR __$EHRec$[ebp], esp
  00031	c7 01 00 00 00
	00		 mov	 DWORD PTR [ecx], OFFSET ??_7CGdiObject@@6B@

; 75   : 	AFX_BEGIN_DESTRUCTOR

  00037	c7 45 fc 00 00
	00 00		 mov	 DWORD PTR __$EHRec$[ebp+12], 0

; 76   : 	DeleteObject();

  0003e	e8 00 00 00 00	 call	 ?DeleteObject@CGdiObject@@QAEHXZ ; CGdiObject::DeleteObject
$LN18@CGdiObject:

; 78   : }

  00043	8b 4d f4	 mov	 ecx, DWORD PTR __$EHRec$[ebp+4]
  00046	64 89 0d 00 00
	00 00		 mov	 DWORD PTR fs:0, ecx
  0004d	59		 pop	 ecx
  0004e	5f		 pop	 edi
  0004f	5e		 pop	 esi
  00050	5b		 pop	 ebx
  00051	8b 4d ec	 mov	 ecx, DWORD PTR __$ArrayPad$[ebp]
  00054	33 cd		 xor	 ecx, ebp
  00056	e8 00 00 00 00	 call	 @__security_check_cookie@4
  0005b	8b e5		 mov	 esp, ebp
  0005d	5d		 pop	 ebp
  0005e	c3		 ret	 0
__catch$??1CGdiObject@@UAE@XZ$0:

; 77   : 	AFX_END_DESTRUCTOR

  0005f	8d 8d e8 fd ff
	ff		 lea	 ecx, DWORD PTR _strMsg$3[ebp]
  00065	ff 15 00 00 00
	00		 call	 DWORD PTR __imp_??0?$CStringT@DV?$StrTraitMFC_DLL@DV?$ChTraitsCRT@D@ATL@@@@@ATL@@QAE@XZ
  0006b	8b b5 e4 fd ff
	ff		 mov	 esi, DWORD PTR _pException$2[ebp]
  00071	8d 8d ec fd ff
	ff		 lea	 ecx, DWORD PTR _szErrorMessage$4[ebp]
  00077	6a 00		 push	 0
  00079	68 00 02 00 00	 push	 512			; 00000200H
  0007e	51		 push	 ecx
  0007f	8b 06		 mov	 eax, DWORD PTR [esi]
  00081	8b ce		 mov	 ecx, esi
  00083	c6 45 fc 02	 mov	 BYTE PTR __$EHRec$[ebp+12], 2
  00087	ff 50 14	 call	 DWORD PTR [eax+20]
  0008a	85 c0		 test	 eax, eax
  0008c	74 2a		 je	 SHORT $LN9@CGdiObject
  0008e	8d 85 ec fd ff
	ff		 lea	 eax, DWORD PTR _szErrorMessage$4[ebp]
  00094	50		 push	 eax
  00095	6a 4d		 push	 77			; 0000004dH
  00097	68 00 00 00 00	 push	 OFFSET ??_C@_0HD@JJCHHHNK@C?3?2Program?5Files?5?$CIx86?$CJ?2Microsof@
  0009c	68 00 00 00 00	 push	 OFFSET ??_C@_0BP@OIEOKIDM@Exception?5thrown?5in?5destructor@
  000a1	8d 85 e8 fd ff
	ff		 lea	 eax, DWORD PTR _strMsg$3[ebp]
  000a7	68 00 00 00 00	 push	 OFFSET ??_C@_0BB@HBOOMJBF@?$CFTs?5?$CI?$CFTs?3?$CFd?$CJ?6?$CFTs@
  000ac	50		 push	 eax
  000ad	ff 15 00 00 00
	00		 call	 DWORD PTR __imp_?Format@?$CStringT@DV?$StrTraitMFC_DLL@DV?$ChTraitsCRT@D@ATL@@@@@ATL@@QAAXPBDZZ
  000b3	83 c4 18	 add	 esp, 24			; 00000018H
  000b6	eb 21		 jmp	 SHORT $LN10@CGdiObject
$LN9@CGdiObject:
  000b8	6a 4d		 push	 77			; 0000004dH
  000ba	68 00 00 00 00	 push	 OFFSET ??_C@_0HD@JJCHHHNK@C?3?2Program?5Files?5?$CIx86?$CJ?2Microsof@
  000bf	68 00 00 00 00	 push	 OFFSET ??_C@_0BP@OIEOKIDM@Exception?5thrown?5in?5destructor@
  000c4	8d 85 e8 fd ff
	ff		 lea	 eax, DWORD PTR _strMsg$3[ebp]
  000ca	68 00 00 00 00	 push	 OFFSET ??_C@_0N@OMEMOKLE@?$CFTs?5?$CI?$CFTs?3?$CFd?$CJ@
  000cf	50		 push	 eax
  000d0	ff 15 00 00 00
	00		 call	 DWORD PTR __imp_?Format@?$CStringT@DV?$StrTraitMFC_DLL@DV?$ChTraitsCRT@D@ATL@@@@@ATL@@QAAXPBDZZ
  000d6	83 c4 14	 add	 esp, 20			; 00000014H
$LN10@CGdiObject:
  000d9	6a 00		 push	 0
  000db	6a 00		 push	 0
  000dd	ff b5 e8 fd ff
	ff		 push	 DWORD PTR _strMsg$3[ebp]
  000e3	e8 00 00 00 00	 call	 ?AfxMessageBox@@YGHPBDII@Z ; AfxMessageBox
  000e8	8d 8d e8 fd ff
	ff		 lea	 ecx, DWORD PTR _strMsg$3[ebp]
  000ee	ff 15 00 00 00
	00		 call	 DWORD PTR __imp_??1?$CStringT@DV?$StrTraitMFC_DLL@DV?$ChTraitsCRT@D@ATL@@@@@ATL@@QAE@XZ
  000f4	8b 06		 mov	 eax, DWORD PTR [esi]
  000f6	8b ce		 mov	 ecx, esi
  000f8	6a 01		 push	 1
  000fa	ff 50 04	 call	 DWORD PTR [eax+4]
  000fd	b8 00 00 00 00	 mov	 eax, $LN18@CGdiObject
  00102	c3		 ret	 0
_TEXT	ENDS
;	COMDAT text$x
text$x	SEGMENT
__unwindfunclet$??1CGdiObject@@UAE@XZ$2:
  00000	8d 8d e8 fd ff
	ff		 lea	 ecx, DWORD PTR _strMsg$3[ebp]
  00006	ff 25 00 00 00
	00		 jmp	 DWORD PTR __imp_??1?$CStringT@DV?$StrTraitMFC_DLL@DV?$ChTraitsCRT@D@ATL@@@@@ATL@@QAE@XZ
  0000c	cc		 int	 3
  0000d	cc		 int	 3
  0000e	cc		 int	 3
  0000f	cc		 int	 3
  00010	cc		 int	 3
__ehhandler$??1CGdiObject@@UAE@XZ:
  00011	90		 npad	 1
  00012	90		 npad	 1
  00013	8b 54 24 08	 mov	 edx, DWORD PTR [esp+8]
  00017	8d 42 0c	 lea	 eax, DWORD PTR [edx+12]
  0001a	8b 8a e0 fd ff
	ff		 mov	 ecx, DWORD PTR [edx-544]
  00020	33 c8		 xor	 ecx, eax
  00022	e8 00 00 00 00	 call	 @__security_check_cookie@4
  00027	8b 4a f8	 mov	 ecx, DWORD PTR [edx-8]
  0002a	33 c8		 xor	 ecx, eax
  0002c	e8 00 00 00 00	 call	 @__security_check_cookie@4
  00031	b8 00 00 00 00	 mov	 eax, OFFSET __ehfuncinfo$??1CGdiObject@@UAE@XZ
  00036	e9 00 00 00 00	 jmp	 ___CxxFrameHandler3
text$x	ENDS
??1CGdiObject@@UAE@XZ ENDP				; CGdiObject::~CGdiObject
; Function compile flags: /Ogtp
; File C:\Program Files (x86)\Microsoft Visual Studio\2019\Community\VC\Tools\MSVC\14.29.30133\atlmfc\include\cstringt.h
; File C:\Program Files (x86)\Microsoft Visual Studio\2019\Community\VC\Tools\MSVC\14.29.30133\atlmfc\include\atlsimpstr.h
; File C:\Program Files (x86)\Microsoft Visual Studio\2019\Community\VC\Tools\MSVC\14.29.30133\atlmfc\include\cstringt.h
; File C:\Program Files (x86)\Microsoft Visual Studio\2019\Community\VC\Tools\MSVC\14.29.30133\atlmfc\include\atlsimpstr.h
; File C:\Program Files (x86)\Microsoft Visual Studio\2019\Community\VC\Tools\MSVC\14.29.30133\atlmfc\include\cstringt.h
;	COMDAT ??HATL@@YA?AV?$CStringT@DV?$StrTraitMFC_DLL@DV?$ChTraitsCRT@D@ATL@@@@@0@ABV10@0@Z
_TEXT	SEGMENT
$T2 = -16						; size = 4
__$EHRec$ = -12						; size = 12
___$ReturnUdt$ = 8					; size = 4
_str1$ = 12						; size = 4
_str2$ = 16						; size = 4
??HATL@@YA?AV?$CStringT@DV?$StrTraitMFC_DLL@DV?$ChTraitsCRT@D@ATL@@@@@0@ABV10@0@Z PROC ; ATL::operator+, COMDAT

; 2389 : 	{

  00000	55		 push	 ebp
  00001	8b ec		 mov	 ebp, esp
  00003	6a ff		 push	 -1
  00005	68 00 00 00 00	 push	 __ehhandler$??HATL@@YA?AV?$CStringT@DV?$StrTraitMFC_DLL@DV?$ChTraitsCRT@D@ATL@@@@@0@ABV10@0@Z
  0000a	64 a1 00 00 00
	00		 mov	 eax, DWORD PTR fs:0
  00010	50		 push	 eax
  00011	51		 push	 ecx
  00012	56		 push	 esi
  00013	57		 push	 edi
  00014	a1 00 00 00 00	 mov	 eax, DWORD PTR ___security_cookie
  00019	33 c5		 xor	 eax, ebp
  0001b	50		 push	 eax
  0001c	8d 45 f4	 lea	 eax, DWORD PTR __$EHRec$[ebp]
  0001f	64 a3 00 00 00
	00		 mov	 DWORD PTR fs:0, eax

; 2390 : 		CStringT strResult( str1.GetManager() );

  00025	8b 75 0c	 mov	 esi, DWORD PTR _str1$[ebp]
  00028	8b ce		 mov	 ecx, esi
  0002a	c7 45 f0 00 00
	00 00		 mov	 DWORD PTR $T2[ebp], 0
  00031	ff 15 00 00 00
	00		 call	 DWORD PTR __imp_?GetManager@?$CStringT@DV?$StrTraitMFC_DLL@DV?$ChTraitsCRT@D@ATL@@@@@ATL@@QBEPAUIAtlStringMgr@2@XZ
  00037	8b 7d 08	 mov	 edi, DWORD PTR ___$ReturnUdt$[ebp]
  0003a	8b cf		 mov	 ecx, edi
  0003c	50		 push	 eax
  0003d	ff 15 00 00 00
	00		 call	 DWORD PTR __imp_??0?$CStringT@DV?$StrTraitMFC_DLL@DV?$ChTraitsCRT@D@ATL@@@@@ATL@@QAE@PAUIAtlStringMgr@1@@Z
; File C:\Program Files (x86)\Microsoft Visual Studio\2019\Community\VC\Tools\MSVC\14.29.30133\atlmfc\include\atlsimpstr.h

; 519  : 		return( GetData()->nDataLength );

  00043	8b 45 10	 mov	 eax, DWORD PTR _str2$[ebp]
  00046	8b 16		 mov	 edx, DWORD PTR [esi]
; File C:\Program Files (x86)\Microsoft Visual Studio\2019\Community\VC\Tools\MSVC\14.29.30133\atlmfc\include\cstringt.h

; 2394 : 		return( strResult );

  00048	c7 45 fc 00 00
	00 00		 mov	 DWORD PTR __$EHRec$[ebp+8], 0
  0004f	c7 45 f0 01 00
	00 00		 mov	 DWORD PTR $T2[ebp], 1
; File C:\Program Files (x86)\Microsoft Visual Studio\2019\Community\VC\Tools\MSVC\14.29.30133\atlmfc\include\atlsimpstr.h

; 519  : 		return( GetData()->nDataLength );

  00056	8b 08		 mov	 ecx, DWORD PTR [eax]
; File C:\Program Files (x86)\Microsoft Visual Studio\2019\Community\VC\Tools\MSVC\14.29.30133\atlmfc\include\cstringt.h

; 2392 : 		CThisSimpleString::Concatenate( strResult, str1, str1.GetLength(), str2, str2.GetLength() );

  00058	ff 71 f4	 push	 DWORD PTR [ecx-12]
  0005b	51		 push	 ecx
  0005c	ff 72 f4	 push	 DWORD PTR [edx-12]
  0005f	52		 push	 edx
  00060	57		 push	 edi
  00061	ff 15 00 00 00
	00		 call	 DWORD PTR __imp_?Concatenate@?$CSimpleStringT@D$00@ATL@@KAXAAV12@PBDH1H@Z
  00067	83 c4 14	 add	 esp, 20			; 00000014H

; 2394 : 		return( strResult );

  0006a	8b c7		 mov	 eax, edi

; 2395 : 	}

  0006c	8b 4d f4	 mov	 ecx, DWORD PTR __$EHRec$[ebp]
  0006f	64 89 0d 00 00
	00 00		 mov	 DWORD PTR fs:0, ecx
  00076	59		 pop	 ecx
  00077	5f		 pop	 edi
  00078	5e		 pop	 esi
  00079	8b e5		 mov	 esp, ebp
  0007b	5d		 pop	 ebp
  0007c	c3		 ret	 0
_TEXT	ENDS
;	COMDAT text$x
text$x	SEGMENT
__unwindfunclet$??HATL@@YA?AV?$CStringT@DV?$StrTraitMFC_DLL@DV?$ChTraitsCRT@D@ATL@@@@@0@ABV10@0@Z$0:
  00000	8b 45 f0	 mov	 eax, DWORD PTR $T2[ebp]
  00003	83 e0 01	 and	 eax, 1
  00006	0f 84 0d 00 00
	00		 je	 $LN4@operator
  0000c	83 65 f0 fe	 and	 DWORD PTR $T2[ebp], -2	; fffffffeH
  00010	8b 4d 08	 mov	 ecx, DWORD PTR ___$ReturnUdt$[ebp]
  00013	ff 25 00 00 00
	00		 jmp	 DWORD PTR __imp_??1?$CStringT@DV?$StrTraitMFC_DLL@DV?$ChTraitsCRT@D@ATL@@@@@ATL@@QAE@XZ
$LN4@operator:
  00019	c3		 ret	 0
  0001a	cc		 int	 3
  0001b	cc		 int	 3
  0001c	cc		 int	 3
  0001d	cc		 int	 3
  0001e	cc		 int	 3
__ehhandler$??HATL@@YA?AV?$CStringT@DV?$StrTraitMFC_DLL@DV?$ChTraitsCRT@D@ATL@@@@@0@ABV10@0@Z:
  0001f	90		 npad	 1
  00020	90		 npad	 1
  00021	8b 54 24 08	 mov	 edx, DWORD PTR [esp+8]
  00025	8d 42 0c	 lea	 eax, DWORD PTR [edx+12]
  00028	8b 4a f0	 mov	 ecx, DWORD PTR [edx-16]
  0002b	33 c8		 xor	 ecx, eax
  0002d	e8 00 00 00 00	 call	 @__security_check_cookie@4
  00032	b8 00 00 00 00	 mov	 eax, OFFSET __ehfuncinfo$??HATL@@YA?AV?$CStringT@DV?$StrTraitMFC_DLL@DV?$ChTraitsCRT@D@ATL@@@@@0@ABV10@0@Z
  00037	e9 00 00 00 00	 jmp	 ___CxxFrameHandler3
text$x	ENDS
??HATL@@YA?AV?$CStringT@DV?$StrTraitMFC_DLL@DV?$ChTraitsCRT@D@ATL@@@@@0@ABV10@0@Z ENDP ; ATL::operator+
; Function compile flags: /Ogtp
; File C:\Program Files (x86)\Microsoft Visual Studio\2019\Community\VC\Tools\MSVC\14.29.30133\atlmfc\include\afx.inl
;	COMDAT ?Dump@CObject@@UBEXAAVCDumpContext@@@Z
_TEXT	SEGMENT
___formal$ = 8						; size = 4
?Dump@CObject@@UBEXAAVCDumpContext@@@Z PROC		; CObject::Dump, COMDAT
; _this$ = ecx

; 122  : 	{ /* no dumping in release builds */ }

  00000	c2 04 00	 ret	 4
?Dump@CObject@@UBEXAAVCDumpContext@@@Z ENDP		; CObject::Dump
_TEXT	ENDS
; Function compile flags: /Ogtp
; File C:\Program Files (x86)\Microsoft Visual Studio\2019\Community\VC\Tools\MSVC\14.29.30133\atlmfc\include\afx.inl
;	COMDAT ?AssertValid@CObject@@UBEXXZ
_TEXT	SEGMENT
?AssertValid@CObject@@UBEXXZ PROC			; CObject::AssertValid, COMDAT
; _this$ = ecx

; 120  : 	{ /* no asserts in release builds */ }

  00000	c2 00 00	 ret	 0
?AssertValid@CObject@@UBEXXZ ENDP			; CObject::AssertValid
_TEXT	ENDS
; Function compile flags: /Ogtp
; File C:\Program Files (x86)\Microsoft Visual Studio\2019\Community\VC\Tools\MSVC\14.29.30133\atlmfc\include\afx.inl
;	COMDAT ?Serialize@CObject@@UAEXAAVCArchive@@@Z
_TEXT	SEGMENT
___formal$ = 8						; size = 4
?Serialize@CObject@@UAEXAAVCArchive@@@Z PROC		; CObject::Serialize, COMDAT
; _this$ = ecx

; 106  : 	{ /* CObject does not serialize anything by default */ }

  00000	c2 04 00	 ret	 4
?Serialize@CObject@@UAEXAAVCArchive@@@Z ENDP		; CObject::Serialize
_TEXT	ENDS
; Function compile flags: /Ogtp
; File C:\Program Files (x86)\Microsoft Visual Studio\2019\Community\VC\Tools\MSVC\14.29.30133\atlmfc\include\afx.inl
;	COMDAT ??1CObject@@UAE@XZ
_TEXT	SEGMENT
??1CObject@@UAE@XZ PROC					; CObject::~CObject, COMDAT
; _this$ = ecx

; 104  : 	{ }

  00000	c2 00 00	 ret	 0
??1CObject@@UAE@XZ ENDP					; CObject::~CObject
_TEXT	ENDS
; Function compile flags: /Ogtp
; File D:\git\src\IBK\IBK_DRFN\ProjSrc\SrcChartEx\ChartAddIn\ChartAnalysisToolAddIn\Symbol\DynamicBitmapLoad.cpp
;	COMDAT ?__empty_global_delete@@YAXPAXI@Z
_TEXT	SEGMENT
___formal$ = 8						; size = 4
___formal$ = 12						; size = 4
?__empty_global_delete@@YAXPAXI@Z PROC			; __empty_global_delete, COMDAT

  00000	c2 00 00	 ret	 0
?__empty_global_delete@@YAXPAXI@Z ENDP			; __empty_global_delete
_TEXT	ENDS
; Function compile flags: /Ogtp
; File D:\git\src\IBK\IBK_DRFN\ProjSrc\SrcChartEx\ChartAddIn\ChartAnalysisToolAddIn\Symbol\DynamicBitmapLoad.cpp
;	COMDAT ?__empty_global_delete@@YAXPAX@Z
_TEXT	SEGMENT
___formal$ = 8						; size = 4
?__empty_global_delete@@YAXPAX@Z PROC			; __empty_global_delete, COMDAT

  00000	c2 00 00	 ret	 0
?__empty_global_delete@@YAXPAX@Z ENDP			; __empty_global_delete
_TEXT	ENDS
END
