; Listing generated by Microsoft (R) Optimizing Compiler Version 19.29.30145.0 

	TITLE	D:\git\src\IBK\IBK_DRFN\#DRfn-CS\_Obj\Symbol\ElementTree.obj
	.686P
	.XMM
	include listing.inc
	.model	flat

INCLUDELIB MSVCRT
INCLUDELIB OLDNAMES

PUBLIC	?__empty_global_delete@@YAXPAX@Z		; __empty_global_delete
PUBLIC	?__empty_global_delete@@YAXPAXI@Z		; __empty_global_delete
PUBLIC	??1CObject@@UAE@XZ				; CObject::~CObject
PUBLIC	?Serialize@CObject@@UAEXAAVCArchive@@@Z		; CObject::Serialize
PUBLIC	?AssertValid@CObject@@UBEXXZ			; CObject::AssertValid
PUBLIC	?Dump@CObject@@UBEXAAVCDumpContext@@@Z		; CObject::Dump
PUBLIC	??0?$CList@PAVCDrawingSymbol@@PAV1@@@QAE@H@Z	; CList<CDrawingSymbol *,CDrawingSymbol *>::CList<CDrawingSymbol *,CDrawingSymbol *>
PUBLIC	?AddTail@?$CList@PAVCDrawingSymbol@@PAV1@@@QAEPAU__POSITION@@PAVCDrawingSymbol@@@Z ; CList<CDrawingSymbol *,CDrawingSymbol *>::AddTail
PUBLIC	?RemoveAll@?$CList@PAVCDrawingSymbol@@PAV1@@@QAEXXZ ; CList<CDrawingSymbol *,CDrawingSymbol *>::RemoveAll
PUBLIC	?NewNode@?$CList@PAVCDrawingSymbol@@PAV1@@@IAEPAUCNode@1@PAU21@0@Z ; CList<CDrawingSymbol *,CDrawingSymbol *>::NewNode
PUBLIC	??1?$CList@PAVCDrawingSymbol@@PAV1@@@UAE@XZ	; CList<CDrawingSymbol *,CDrawingSymbol *>::~CList<CDrawingSymbol *,CDrawingSymbol *>
PUBLIC	?Serialize@?$CList@PAVCDrawingSymbol@@PAV1@@@UAEXAAVCArchive@@@Z ; CList<CDrawingSymbol *,CDrawingSymbol *>::Serialize
PUBLIC	??_G?$CList@PAVCDrawingSymbol@@PAV1@@@UAEPAXI@Z	; CList<CDrawingSymbol *,CDrawingSymbol *>::`scalar deleting destructor'
PUBLIC	?DeleteLastSymbol@CElementTree@@QAEXXZ		; CElementTree::DeleteLastSymbol
PUBLIC	?DeleteSymbolPos@CElementTree@@QAE_NJH@Z	; CElementTree::DeleteSymbolPos
PUBLIC	?Add@CElementTree@@QAEXABVCBlockIndex@@PAVCDrawingSymbol@@@Z ; CElementTree::Add
PUBLIC	?AddColumnRowSet@CElementTree@@QAEXABVCBlockIndex@@@Z ; CElementTree::AddColumnRowSet
PUBLIC	?GetTail@CElementTree@@QAEPAVCDrawingSymbol@@XZ	; CElementTree::GetTail
PUBLIC	?FindSymbol@CElementTree@@QAEPAVCDrawingSymbol@@ABVCPoint@@PAUIChartManager133101@@@Z ; CElementTree::FindSymbol
PUBLIC	?GetElementCount@CElementTree@@QBEHXZ		; CElementTree::GetElementCount
PUBLIC	?GetElementListOfBlock@CElementTree@@QAEXABVCBlockIndex@@AAV?$CList@PAVCDrawingSymbol@@PAV1@@@@Z ; CElementTree::GetElementListOfBlock
PUBLIC	?DrawElement@CElementTree@@QAEXPAVCDC@@PAUIChartManager133101@@PAVCDrawingSymbol@@@Z ; CElementTree::DrawElement
PUBLIC	?CopyElement@CElementTree@@QAEJPAVCDrawingSymbol@@@Z ; CElementTree::CopyElement
PUBLIC	?MoveElement@CElementTree@@QAEJPAVCDrawingSymbol@@@Z ; CElementTree::MoveElement
PUBLIC	?DeleteCurrentDrawingSymbol@CElementTree@@QAE_NPBVCDrawingSymbol@@@Z ; CElementTree::DeleteCurrentDrawingSymbol
PUBLIC	?DeleteAllSymbolsInBlock@CElementTree@@QAEXABVCBlockIndex@@@Z ; CElementTree::DeleteAllSymbolsInBlock
PUBLIC	?DeleteAllSymbols@CElementTree@@QAEXXZ		; CElementTree::DeleteAllSymbols
PUBLIC	?InsertBlockIndex@CElementTree@@QAE_NABVCBlockIndex@@@Z ; CElementTree::InsertBlockIndex
PUBLIC	?SetModifiedBlockIndexs@CElementTree@@QAEXABVCBlockIndex@@0@Z ; CElementTree::SetModifiedBlockIndexs
PUBLIC	?GetSavedSymbolsData@CElementTree@@QAE?AV?$CStringT@DV?$StrTraitMFC_DLL@DV?$ChTraitsCRT@D@ATL@@@@@ATL@@XZ ; CElementTree::GetSavedSymbolsData
PUBLIC	?BuildSymbolsFromString@CElementTree@@QAEXW4HORZSCALEDRAWERTYPE@CScaleBaseData@@ABV?$CStringT@DV?$StrTraitMFC_DLL@DV?$ChTraitsCRT@D@ATL@@@@@ATL@@@Z ; CElementTree::BuildSymbolsFromString
PUBLIC	?ChangeAllSymbolsColor@CElementTree@@QAEXABK0@Z	; CElementTree::ChangeAllSymbolsColor
PUBLIC	?GetBlockIndexInSymbol@CElementTree@@QBE?AVCBlockIndex@@PBVCDrawingSymbol@@@Z ; CElementTree::GetBlockIndexInSymbol
PUBLIC	?GetTree@CElementTree@@QAEAAVCTree@@XZ		; CElementTree::GetTree
PUBLIC	?GetOrder@CElementTree@@QAEAAVCOrder@@XZ	; CElementTree::GetOrder
PUBLIC	??$SerializeElements@PAVCDrawingSymbol@@@@YGXAAVCArchive@@PAPAVCDrawingSymbol@@H@Z ; SerializeElements<CDrawingSymbol *>
PUBLIC	??_R0?AVCObject@@@8				; CObject `RTTI Type Descriptor'
PUBLIC	??_R3CObject@@8					; CObject::`RTTI Class Hierarchy Descriptor'
PUBLIC	??_R2CObject@@8					; CObject::`RTTI Base Class Array'
PUBLIC	??_R1A@?0A@EA@CObject@@8			; CObject::`RTTI Base Class Descriptor at (0,-1,0,64)'
PUBLIC	??_7?$CList@PAVCDrawingSymbol@@PAV1@@@6B@	; CList<CDrawingSymbol *,CDrawingSymbol *>::`vftable'
PUBLIC	??_R4?$CList@PAVCDrawingSymbol@@PAV1@@@6B@	; CList<CDrawingSymbol *,CDrawingSymbol *>::`RTTI Complete Object Locator'
PUBLIC	??_R0?AV?$CList@PAVCDrawingSymbol@@PAV1@@@@8	; CList<CDrawingSymbol *,CDrawingSymbol *> `RTTI Type Descriptor'
PUBLIC	??_R3?$CList@PAVCDrawingSymbol@@PAV1@@@8	; CList<CDrawingSymbol *,CDrawingSymbol *>::`RTTI Class Hierarchy Descriptor'
PUBLIC	??_R2?$CList@PAVCDrawingSymbol@@PAV1@@@8	; CList<CDrawingSymbol *,CDrawingSymbol *>::`RTTI Base Class Array'
PUBLIC	??_R1A@?0A@EA@?$CList@PAVCDrawingSymbol@@PAV1@@@8 ; CList<CDrawingSymbol *,CDrawingSymbol *>::`RTTI Base Class Descriptor at (0,-1,0,64)'
EXTRN	??3@YAXPAX@Z:PROC				; operator delete
EXTRN	?__global_delete@@YAXPAXI@Z:PROC		; __global_delete
EXTRN	___std_terminate:PROC
EXTRN	?AfxThrowInvalidArgException@@YGXXZ:PROC	; AfxThrowInvalidArgException
EXTRN	?AfxThrowArchiveException@@YGXHPBD@Z:PROC	; AfxThrowArchiveException
EXTRN	?GetRuntimeClass@CObject@@UBEPAUCRuntimeClass@@XZ:PROC ; CObject::GetRuntimeClass
EXTRN	?Read@CArchive@@QAEIPAXI@Z:PROC			; CArchive::Read
EXTRN	?Write@CArchive@@QAEXPBXI@Z:PROC		; CArchive::Write
EXTRN	?ReadCount@CArchive@@QAEKXZ:PROC		; CArchive::ReadCount
EXTRN	?WriteCount@CArchive@@QAEXK@Z:PROC		; CArchive::WriteCount
EXTRN	?Create@CPlex@@SGPAU1@AAPAU1@II@Z:PROC		; CPlex::Create
EXTRN	?FreeDataChain@CPlex@@QAEXXZ:PROC		; CPlex::FreeDataChain
EXTRN	?GetTail@COrder@@QAEPAVCDrawingSymbol@@XZ:PROC	; COrder::GetTail
EXTRN	?GetCount@COrder@@QBEHXZ:PROC			; COrder::GetCount
EXTRN	?Add@COrder@@QAEXPAVCDrawingSymbol@@@Z:PROC	; COrder::Add
EXTRN	?RemoveAll@COrder@@QAEXXZ:PROC			; COrder::RemoveAll
EXTRN	?RemoveAllInRow@COrder@@QAEXABV?$CList@PAVCDrawingSymbol@@PAV1@@@@Z:PROC ; COrder::RemoveAllInRow
EXTRN	?RemoveAt@COrder@@QAE_NPBVCDrawingSymbol@@@Z:PROC ; COrder::RemoveAt
EXTRN	??_E?$CList@PAVCDrawingSymbol@@PAV1@@@UAEPAXI@Z:PROC ; CList<CDrawingSymbol *,CDrawingSymbol *>::`vector deleting destructor'
EXTRN	?OnDraw@CTree@@QAEXPAVCDC@@PAUIChartManager133101@@PAVCDrawingSymbol@@@Z:PROC ; CTree::OnDraw
EXTRN	?CopyElement@CTree@@QAEJPAVCDrawingSymbol@@@Z:PROC ; CTree::CopyElement
EXTRN	?MoveElement@CTree@@QAEJPAVCDrawingSymbol@@@Z:PROC ; CTree::MoveElement
EXTRN	?GetSavedSymbolsData@CTree@@QAE?AV?$CStringT@DV?$StrTraitMFC_DLL@DV?$ChTraitsCRT@D@ATL@@@@@ATL@@ABVCOrder@@@Z:PROC ; CTree::GetSavedSymbolsData
EXTRN	?GetElementList@CTree@@QAEXABVCBlockIndex@@AAV?$CList@PAVCDrawingSymbol@@PAV1@@@@Z:PROC ; CTree::GetElementList
EXTRN	?GetCurBlockDrawingSymbol@CTree@@QAEPAVCDrawingSymbolRow@@ABVCBlockIndex@@@Z:PROC ; CTree::GetCurBlockDrawingSymbol
EXTRN	?Add@CTree@@QAEXABVCBlockIndex@@PAVCDrawingSymbol@@@Z:PROC ; CTree::Add
EXTRN	?AddColumnRowSet@CTree@@QAEXABVCBlockIndex@@@Z:PROC ; CTree::AddColumnRowSet
EXTRN	?SetModifiedBlockIndexs@CTree@@QAEXABVCBlockIndex@@0@Z:PROC ; CTree::SetModifiedBlockIndexs
EXTRN	?InsertBlockIndex@CTree@@QAE_NABVCBlockIndex@@@Z:PROC ; CTree::InsertBlockIndex
EXTRN	?DeleteAllSymbols@CTree@@QAEXXZ:PROC		; CTree::DeleteAllSymbols
EXTRN	?DeleteAllSymbolsInBlock@CTree@@QAEXABVCBlockIndex@@@Z:PROC ; CTree::DeleteAllSymbolsInBlock
EXTRN	?DeleteCurrentDrawingSymbol@CTree@@QAE_NPBVCDrawingSymbol@@@Z:PROC ; CTree::DeleteCurrentDrawingSymbol
EXTRN	?DeleteCurrentDrawingSymbol@CTree@@QAE_NJH@Z:PROC ; CTree::DeleteCurrentDrawingSymbol
EXTRN	?ChangeAllSymbolsColor@CTree@@QAEXABK0@Z:PROC	; CTree::ChangeAllSymbolsColor
EXTRN	?GetBlockIndexInSymbol@CTree@@QBE?AVCBlockIndex@@PBVCDrawingSymbol@@@Z:PROC ; CTree::GetBlockIndexInSymbol
EXTRN	?Find@CDrawingSymbolRow@@QAEPAVCDrawingSymbol@@ABVCPoint@@HHPAUIChartManager133101@@@Z:PROC ; CDrawingSymbolRow::Find
EXTRN	?BuildSymbolsFromString@CElementSaverBuilder@@QAEXW4HORZSCALEDRAWERTYPE@CScaleBaseData@@ABV?$CStringT@DV?$StrTraitMFC_DLL@DV?$ChTraitsCRT@D@ATL@@@@@ATL@@AAVCTree@@AAVCOrder@@@Z:PROC ; CElementSaverBuilder::BuildSymbolsFromString
EXTRN	@__security_check_cookie@4:PROC
EXTRN	___CxxFrameHandler3:PROC
EXTRN	??_7type_info@@6B@:QWORD			; type_info::`vftable'
EXTRN	___security_cookie:DWORD
;	COMDAT ??_R1A@?0A@EA@?$CList@PAVCDrawingSymbol@@PAV1@@@8
rdata$r	SEGMENT
??_R1A@?0A@EA@?$CList@PAVCDrawingSymbol@@PAV1@@@8 DD FLAT:??_R0?AV?$CList@PAVCDrawingSymbol@@PAV1@@@@8 ; CList<CDrawingSymbol *,CDrawingSymbol *>::`RTTI Base Class Descriptor at (0,-1,0,64)'
	DD	01H
	DD	00H
	DD	0ffffffffH
	DD	00H
	DD	040H
	DD	FLAT:??_R3?$CList@PAVCDrawingSymbol@@PAV1@@@8
rdata$r	ENDS
;	COMDAT ??_R2?$CList@PAVCDrawingSymbol@@PAV1@@@8
rdata$r	SEGMENT
??_R2?$CList@PAVCDrawingSymbol@@PAV1@@@8 DD FLAT:??_R1A@?0A@EA@?$CList@PAVCDrawingSymbol@@PAV1@@@8 ; CList<CDrawingSymbol *,CDrawingSymbol *>::`RTTI Base Class Array'
	DD	FLAT:??_R1A@?0A@EA@CObject@@8
rdata$r	ENDS
;	COMDAT ??_R3?$CList@PAVCDrawingSymbol@@PAV1@@@8
rdata$r	SEGMENT
??_R3?$CList@PAVCDrawingSymbol@@PAV1@@@8 DD 00H		; CList<CDrawingSymbol *,CDrawingSymbol *>::`RTTI Class Hierarchy Descriptor'
	DD	00H
	DD	02H
	DD	FLAT:??_R2?$CList@PAVCDrawingSymbol@@PAV1@@@8
rdata$r	ENDS
;	COMDAT ??_R0?AV?$CList@PAVCDrawingSymbol@@PAV1@@@@8
data$rs	SEGMENT
??_R0?AV?$CList@PAVCDrawingSymbol@@PAV1@@@@8 DD FLAT:??_7type_info@@6B@ ; CList<CDrawingSymbol *,CDrawingSymbol *> `RTTI Type Descriptor'
	DD	00H
	DB	'.?AV?$CList@PAVCDrawingSymbol@@PAV1@@@', 00H
data$rs	ENDS
;	COMDAT ??_R4?$CList@PAVCDrawingSymbol@@PAV1@@@6B@
rdata$r	SEGMENT
??_R4?$CList@PAVCDrawingSymbol@@PAV1@@@6B@ DD 00H	; CList<CDrawingSymbol *,CDrawingSymbol *>::`RTTI Complete Object Locator'
	DD	00H
	DD	00H
	DD	FLAT:??_R0?AV?$CList@PAVCDrawingSymbol@@PAV1@@@@8
	DD	FLAT:??_R3?$CList@PAVCDrawingSymbol@@PAV1@@@8
rdata$r	ENDS
;	COMDAT ??_7?$CList@PAVCDrawingSymbol@@PAV1@@@6B@
CONST	SEGMENT
??_7?$CList@PAVCDrawingSymbol@@PAV1@@@6B@ DD FLAT:??_R4?$CList@PAVCDrawingSymbol@@PAV1@@@6B@ ; CList<CDrawingSymbol *,CDrawingSymbol *>::`vftable'
	DD	FLAT:?GetRuntimeClass@CObject@@UBEPAUCRuntimeClass@@XZ
	DD	FLAT:??_E?$CList@PAVCDrawingSymbol@@PAV1@@@UAEPAXI@Z
	DD	FLAT:?Serialize@?$CList@PAVCDrawingSymbol@@PAV1@@@UAEXAAVCArchive@@@Z
	DD	FLAT:?AssertValid@CObject@@UBEXXZ
	DD	FLAT:?Dump@CObject@@UBEXAAVCDumpContext@@@Z
CONST	ENDS
;	COMDAT ??_R1A@?0A@EA@CObject@@8
rdata$r	SEGMENT
??_R1A@?0A@EA@CObject@@8 DD FLAT:??_R0?AVCObject@@@8	; CObject::`RTTI Base Class Descriptor at (0,-1,0,64)'
	DD	00H
	DD	00H
	DD	0ffffffffH
	DD	00H
	DD	040H
	DD	FLAT:??_R3CObject@@8
rdata$r	ENDS
;	COMDAT ??_R2CObject@@8
rdata$r	SEGMENT
??_R2CObject@@8 DD FLAT:??_R1A@?0A@EA@CObject@@8	; CObject::`RTTI Base Class Array'
rdata$r	ENDS
;	COMDAT ??_R3CObject@@8
rdata$r	SEGMENT
??_R3CObject@@8 DD 00H					; CObject::`RTTI Class Hierarchy Descriptor'
	DD	00H
	DD	01H
	DD	FLAT:??_R2CObject@@8
rdata$r	ENDS
;	COMDAT ??_R0?AVCObject@@@8
data$rs	SEGMENT
??_R0?AVCObject@@@8 DD FLAT:??_7type_info@@6B@		; CObject `RTTI Type Descriptor'
	DD	00H
	DB	'.?AVCObject@@', 00H
data$rs	ENDS
;	COMDAT xdata$x
xdata$x	SEGMENT
__unwindtable$?DeleteAllSymbolsInBlock@CElementTree@@QAEXABVCBlockIndex@@@Z DD 0ffffffffH
	DD	FLAT:__unwindfunclet$?DeleteAllSymbolsInBlock@CElementTree@@QAEXABVCBlockIndex@@@Z$0
	DD	0ffffffffH
	DD	FLAT:___std_terminate
__ehfuncinfo$?DeleteAllSymbolsInBlock@CElementTree@@QAEXABVCBlockIndex@@@Z DD 019930522H
	DD	02H
	DD	FLAT:__unwindtable$?DeleteAllSymbolsInBlock@CElementTree@@QAEXABVCBlockIndex@@@Z
	DD	2 DUP(00H)
	DD	2 DUP(00H)
	DD	00H
	DD	01H
xdata$x	ENDS
;	COMDAT xdata$x
xdata$x	SEGMENT
__unwindtable$??_G?$CList@PAVCDrawingSymbol@@PAV1@@@UAEPAXI@Z DD 0ffffffffH
	DD	FLAT:___std_terminate
__ehfuncinfo$??_G?$CList@PAVCDrawingSymbol@@PAV1@@@UAEPAXI@Z DD 019930522H
	DD	01H
	DD	FLAT:__unwindtable$??_G?$CList@PAVCDrawingSymbol@@PAV1@@@UAEPAXI@Z
	DD	2 DUP(00H)
	DD	2 DUP(00H)
	DD	00H
	DD	05H
xdata$x	ENDS
;	COMDAT xdata$x
xdata$x	SEGMENT
__ehfuncinfo$??1?$CList@PAVCDrawingSymbol@@PAV1@@@UAE@XZ DD 019930522H
	DD	00H
	DD	00H
	DD	2 DUP(00H)
	DD	2 DUP(00H)
	DD	00H
	DD	05H
xdata$x	ENDS
; Function compile flags: /Ogtp
; File C:\Program Files (x86)\Microsoft Visual Studio\2019\Community\VC\Tools\MSVC\14.29.30133\atlmfc\include\afxtempl.h
; File C:\Program Files (x86)\Microsoft Visual Studio\2019\Community\VC\Tools\MSVC\14.29.30133\atlmfc\include\afx.inl
; File C:\Program Files (x86)\Microsoft Visual Studio\2019\Community\VC\Tools\MSVC\14.29.30133\atlmfc\include\afxtempl.h
; File C:\Program Files (x86)\Microsoft Visual Studio\2019\Community\VC\Tools\MSVC\14.29.30133\atlmfc\include\afx.inl
; File C:\Program Files (x86)\Microsoft Visual Studio\2019\Community\VC\Tools\MSVC\14.29.30133\atlmfc\include\afxtempl.h
; File C:\Program Files (x86)\Microsoft Visual Studio\2019\Community\VC\Tools\MSVC\14.29.30133\atlmfc\include\afx.inl
; File C:\Program Files (x86)\Microsoft Visual Studio\2019\Community\VC\Tools\MSVC\14.29.30133\atlmfc\include\afxtempl.h
;	COMDAT ??$SerializeElements@PAVCDrawingSymbol@@@@YGXAAVCArchive@@PAPAVCDrawingSymbol@@H@Z
_TEXT	SEGMENT
_ar$ = 8						; size = 4
_pElements$ = 12					; size = 4
_nCount$ = 16						; size = 4
??$SerializeElements@PAVCDrawingSymbol@@@@YGXAAVCArchive@@PAPAVCDrawingSymbol@@H@Z PROC ; SerializeElements<CDrawingSymbol *>, COMDAT

; 67   : {

  00000	55		 push	 ebp
  00001	8b ec		 mov	 ebp, esp

; 68   : 	ENSURE(nCount == 0 || pElements != NULL);

  00003	8b 4d 0c	 mov	 ecx, DWORD PTR _pElements$[ebp]
  00006	53		 push	 ebx
  00007	56		 push	 esi
  00008	8b 75 10	 mov	 esi, DWORD PTR _nCount$[ebp]
  0000b	57		 push	 edi
  0000c	85 f6		 test	 esi, esi
  0000e	74 08		 je	 SHORT $LN2@SerializeE
  00010	85 c9		 test	 ecx, ecx
  00012	0f 84 89 00 00
	00		 je	 $LN34@SerializeE
$LN2@SerializeE:
; File C:\Program Files (x86)\Microsoft Visual Studio\2019\Community\VC\Tools\MSVC\14.29.30133\atlmfc\include\afx.inl

; 212  : 	{ return (m_nMode & CArchive::load) == 0; }

  00018	8b 55 08	 mov	 edx, DWORD PTR _ar$[ebp]
  0001b	8b 42 18	 mov	 eax, DWORD PTR [edx+24]
  0001e	f7 d0		 not	 eax
  00020	a8 01		 test	 al, 1
; File C:\Program Files (x86)\Microsoft Visual Studio\2019\Community\VC\Tools\MSVC\14.29.30133\atlmfc\include\afxtempl.h

; 73   : 	if (ar.IsStoring())

  00022	74 3c		 je	 SHORT $LN10@SerializeE

; 74   : 	{
; 75   : 		TYPE* pData;
; 76   : 		UINT_PTR nElementsLeft;
; 77   : 
; 78   : 		nElementsLeft = nCount;
; 79   : 		pData = pElements;
; 80   : 		while( nElementsLeft > 0 )

  00024	85 f6		 test	 esi, esi
  00026	74 31		 je	 SHORT $LN8@SerializeE
  00028	0f 1f 84 00 00
	00 00 00	 npad	 8
$LL5@SerializeE:

; 81   : 		{
; 82   : 			UINT nElementsToWrite;
; 83   : 
; 84   : 			nElementsToWrite = UINT(__min(nElementsLeft, INT_MAX/sizeof(TYPE)));

  00030	bb ff ff ff 1f	 mov	 ebx, 536870911		; 1fffffffH
  00035	3b f3		 cmp	 esi, ebx
  00037	0f 42 de	 cmovb	 ebx, esi

; 85   : 			ar.Write(pData, nElementsToWrite*sizeof(TYPE));

  0003a	8d 3c 9d 00 00
	00 00		 lea	 edi, DWORD PTR [ebx*4]
  00041	57		 push	 edi
  00042	51		 push	 ecx
  00043	8b ca		 mov	 ecx, edx
  00045	e8 00 00 00 00	 call	 ?Write@CArchive@@QAEXPBXI@Z ; CArchive::Write

; 86   : 			nElementsLeft -= nElementsToWrite;
; 87   : 			pData += nElementsToWrite;

  0004a	8b 4d 0c	 mov	 ecx, DWORD PTR _pElements$[ebp]
  0004d	8b 55 08	 mov	 edx, DWORD PTR _ar$[ebp]
  00050	03 cf		 add	 ecx, edi
  00052	89 4d 0c	 mov	 DWORD PTR _pElements$[ebp], ecx
  00055	2b f3		 sub	 esi, ebx
  00057	75 d7		 jne	 SHORT $LL5@SerializeE
$LN8@SerializeE:
  00059	5f		 pop	 edi

; 105  : 		}
; 106  : 	}
; 107  : }

  0005a	5e		 pop	 esi
  0005b	5b		 pop	 ebx
  0005c	5d		 pop	 ebp
  0005d	c2 0c 00	 ret	 12			; 0000000cH
$LN10@SerializeE:

; 97   : 		while( nElementsLeft > 0 )

  00060	85 f6		 test	 esi, esi
  00062	74 f5		 je	 SHORT $LN8@SerializeE
$LL7@SerializeE:

; 98   : 		{
; 99   : 			UINT nElementsToRead;
; 100  : 
; 101  : 			nElementsToRead = UINT(__min(nElementsLeft, INT_MAX/sizeof(TYPE)));

  00064	bf ff ff ff 1f	 mov	 edi, 536870911		; 1fffffffH
  00069	3b f7		 cmp	 esi, edi
  0006b	0f 42 fe	 cmovb	 edi, esi

; 102  : 			ar.EnsureRead(pData, nElementsToRead*sizeof(TYPE));

  0006e	8d 1c bd 00 00
	00 00		 lea	 ebx, DWORD PTR [edi*4]
; File C:\Program Files (x86)\Microsoft Visual Studio\2019\Community\VC\Tools\MSVC\14.29.30133\atlmfc\include\afx.inl

; 399  : 	UINT nRead=Read(lpBuf, nCount);

  00075	53		 push	 ebx
  00076	51		 push	 ecx
  00077	8b ca		 mov	 ecx, edx
  00079	e8 00 00 00 00	 call	 ?Read@CArchive@@QAEIPAXI@Z ; CArchive::Read

; 400  : 	if(nRead!=nCount)

  0007e	3b c3		 cmp	 eax, ebx
  00080	75 16		 jne	 SHORT $LN23@SerializeE
; File C:\Program Files (x86)\Microsoft Visual Studio\2019\Community\VC\Tools\MSVC\14.29.30133\atlmfc\include\afxtempl.h

; 97   : 		while( nElementsLeft > 0 )

  00082	8b 4d 0c	 mov	 ecx, DWORD PTR _pElements$[ebp]
  00085	8b 55 08	 mov	 edx, DWORD PTR _ar$[ebp]

; 103  : 			nElementsLeft -= nElementsToRead;
; 104  : 			pData += nElementsToRead;

  00088	03 cb		 add	 ecx, ebx
  0008a	89 4d 0c	 mov	 DWORD PTR _pElements$[ebp], ecx
  0008d	2b f7		 sub	 esi, edi
  0008f	75 d3		 jne	 SHORT $LL7@SerializeE

; 105  : 		}
; 106  : 	}
; 107  : }

  00091	5f		 pop	 edi
  00092	5e		 pop	 esi
  00093	5b		 pop	 ebx
  00094	5d		 pop	 ebp
  00095	c2 0c 00	 ret	 12			; 0000000cH
$LN23@SerializeE:
; File C:\Program Files (x86)\Microsoft Visual Studio\2019\Community\VC\Tools\MSVC\14.29.30133\atlmfc\include\afx.inl

; 402  : 		AfxThrowArchiveException(CArchiveException::endOfFile);

  00098	6a 00		 push	 0
  0009a	6a 03		 push	 3
  0009c	e8 00 00 00 00	 call	 ?AfxThrowArchiveException@@YGXHPBD@Z ; AfxThrowArchiveException
$LN34@SerializeE:
; File C:\Program Files (x86)\Microsoft Visual Studio\2019\Community\VC\Tools\MSVC\14.29.30133\atlmfc\include\afxtempl.h

; 68   : 	ENSURE(nCount == 0 || pElements != NULL);

  000a1	e8 00 00 00 00	 call	 ?AfxThrowInvalidArgException@@YGXXZ ; AfxThrowInvalidArgException
$LN32@SerializeE:
  000a6	cc		 int	 3
??$SerializeElements@PAVCDrawingSymbol@@@@YGXAAVCArchive@@PAPAVCDrawingSymbol@@H@Z ENDP ; SerializeElements<CDrawingSymbol *>
_TEXT	ENDS
; Function compile flags: /Ogtp
; File D:\git\src\IBK\IBK_DRFN\ProjSrc\SrcChartEx\ChartAddIn\ChartAnalysisToolAddIn\Symbol\ElementTree.cpp
;	COMDAT ?GetOrder@CElementTree@@QAEAAVCOrder@@XZ
_TEXT	SEGMENT
?GetOrder@CElementTree@@QAEAAVCOrder@@XZ PROC		; CElementTree::GetOrder, COMDAT
; _this$ = ecx

; 192  : 	return m_order;

  00000	8b c1		 mov	 eax, ecx

; 193  : }

  00002	c3		 ret	 0
?GetOrder@CElementTree@@QAEAAVCOrder@@XZ ENDP		; CElementTree::GetOrder
_TEXT	ENDS
; Function compile flags: /Ogtp
; File D:\git\src\IBK\IBK_DRFN\ProjSrc\SrcChartEx\ChartAddIn\ChartAnalysisToolAddIn\Symbol\ElementTree.cpp
;	COMDAT ?GetTree@CElementTree@@QAEAAVCTree@@XZ
_TEXT	SEGMENT
?GetTree@CElementTree@@QAEAAVCTree@@XZ PROC		; CElementTree::GetTree, COMDAT
; _this$ = ecx

; 187  : 	return m_tree;

  00000	8d 41 20	 lea	 eax, DWORD PTR [ecx+32]

; 188  : }

  00003	c3		 ret	 0
?GetTree@CElementTree@@QAEAAVCTree@@XZ ENDP		; CElementTree::GetTree
_TEXT	ENDS
; Function compile flags: /Ogtp
; File D:\git\src\IBK\IBK_DRFN\ProjSrc\SrcChartEx\ChartAddIn\ChartAnalysisToolAddIn\Symbol\ElementTree.cpp
;	COMDAT ?GetBlockIndexInSymbol@CElementTree@@QBE?AVCBlockIndex@@PBVCDrawingSymbol@@@Z
_TEXT	SEGMENT
___$ReturnUdt$ = 8					; size = 4
_pSelectedSymbol$ = 12					; size = 4
?GetBlockIndexInSymbol@CElementTree@@QBE?AVCBlockIndex@@PBVCDrawingSymbol@@@Z PROC ; CElementTree::GetBlockIndexInSymbol, COMDAT
; _this$ = ecx

; 179  : {

  00000	55		 push	 ebp
  00001	8b ec		 mov	 ebp, esp

; 180  : 	assert(pSelectedSymbol != NULL);
; 181  : 	
; 182  : 	return m_tree.GetBlockIndexInSymbol(pSelectedSymbol);

  00003	ff 75 0c	 push	 DWORD PTR _pSelectedSymbol$[ebp]
  00006	83 c1 20	 add	 ecx, 32			; 00000020H
  00009	ff 75 08	 push	 DWORD PTR ___$ReturnUdt$[ebp]
  0000c	e8 00 00 00 00	 call	 ?GetBlockIndexInSymbol@CTree@@QBE?AVCBlockIndex@@PBVCDrawingSymbol@@@Z ; CTree::GetBlockIndexInSymbol
  00011	8b 45 08	 mov	 eax, DWORD PTR ___$ReturnUdt$[ebp]

; 183  : }

  00014	5d		 pop	 ebp
  00015	c2 08 00	 ret	 8
?GetBlockIndexInSymbol@CElementTree@@QBE?AVCBlockIndex@@PBVCDrawingSymbol@@@Z ENDP ; CElementTree::GetBlockIndexInSymbol
_TEXT	ENDS
; Function compile flags: /Ogtp
; File D:\git\src\IBK\IBK_DRFN\ProjSrc\SrcChartEx\ChartAddIn\ChartAnalysisToolAddIn\Symbol\ElementTree.cpp
;	COMDAT ?ChangeAllSymbolsColor@CElementTree@@QAEXABK0@Z
_TEXT	SEGMENT
_penColor$ = 8						; size = 4
_textColor$ = 12					; size = 4
?ChangeAllSymbolsColor@CElementTree@@QAEXABK0@Z PROC	; CElementTree::ChangeAllSymbolsColor, COMDAT
; _this$ = ecx

; 167  : {

  00000	55		 push	 ebp
  00001	8b ec		 mov	 ebp, esp

; 168  : 	m_tree.ChangeAllSymbolsColor(penColor, textColor);

  00003	83 c1 20	 add	 ecx, 32			; 00000020H

; 169  : }

  00006	5d		 pop	 ebp

; 168  : 	m_tree.ChangeAllSymbolsColor(penColor, textColor);

  00007	e9 00 00 00 00	 jmp	 ?ChangeAllSymbolsColor@CTree@@QAEXABK0@Z ; CTree::ChangeAllSymbolsColor
?ChangeAllSymbolsColor@CElementTree@@QAEXABK0@Z ENDP	; CElementTree::ChangeAllSymbolsColor
_TEXT	ENDS
; Function compile flags: /Ogtp
; File D:\git\src\IBK\IBK_DRFN\ProjSrc\SrcChartEx\ChartAddIn\ChartAnalysisToolAddIn\Symbol\ElementTree.cpp
; File C:\Program Files (x86)\Microsoft Visual Studio\2019\Community\VC\Tools\MSVC\14.29.30133\atlmfc\include\atlsimpstr.h
; File D:\git\src\IBK\IBK_DRFN\ProjSrc\SrcChartEx\ChartAddIn\ChartAnalysisToolAddIn\Symbol\ElementTree.cpp
;	COMDAT ?BuildSymbolsFromString@CElementTree@@QAEXW4HORZSCALEDRAWERTYPE@CScaleBaseData@@ABV?$CStringT@DV?$StrTraitMFC_DLL@DV?$ChTraitsCRT@D@ATL@@@@@ATL@@@Z
_TEXT	SEGMENT
_bulider$ = -1						; size = 1
_eScaleType$ = 8					; size = 4
_data$ = 12						; size = 4
?BuildSymbolsFromString@CElementTree@@QAEXW4HORZSCALEDRAWERTYPE@CScaleBaseData@@ABV?$CStringT@DV?$StrTraitMFC_DLL@DV?$ChTraitsCRT@D@ATL@@@@@ATL@@@Z PROC ; CElementTree::BuildSymbolsFromString, COMDAT
; _this$ = ecx

; 120  : {

  00000	55		 push	 ebp
  00001	8b ec		 mov	 ebp, esp
  00003	51		 push	 ecx
  00004	56		 push	 esi
  00005	57		 push	 edi
  00006	8b f1		 mov	 esi, ecx

; 141  : 	m_order.RemoveAll();

  00008	e8 00 00 00 00	 call	 ?RemoveAll@COrder@@QAEXXZ ; COrder::RemoveAll

; 142  : 	m_tree.DeleteAllSymbols();

  0000d	8d 7e 20	 lea	 edi, DWORD PTR [esi+32]
  00010	8b cf		 mov	 ecx, edi
  00012	e8 00 00 00 00	 call	 ?DeleteAllSymbols@CTree@@QAEXXZ ; CTree::DeleteAllSymbols
; File C:\Program Files (x86)\Microsoft Visual Studio\2019\Community\VC\Tools\MSVC\14.29.30133\atlmfc\include\atlsimpstr.h

; 533  : 		return( GetLength() == 0 );

  00017	8b 4d 0c	 mov	 ecx, DWORD PTR _data$[ebp]
  0001a	8b 01		 mov	 eax, DWORD PTR [ecx]
  0001c	83 78 f4 00	 cmp	 DWORD PTR [eax-12], 0
; File D:\git\src\IBK\IBK_DRFN\ProjSrc\SrcChartEx\ChartAddIn\ChartAnalysisToolAddIn\Symbol\ElementTree.cpp

; 123  : 	if(data.IsEmpty())

  00020	74 0e		 je	 SHORT $LN1@BuildSymbo

; 124  : 		return;
; 125  : 
; 126  : 	CElementSaverBuilder bulider;
; 127  : 
; 128  : 	// 2011.02.07 by SYS >> 분차트 YYYY(년) 추가 : 날짜/시간 14Byte형태 변경 (YYYYMMDDhhmmss)
; 129  : 	//bulider.BuildSymbolsFromString(data, m_tree, m_order); 
; 130  : 	bulider.BuildSymbolsFromString(eScaleType, data, m_tree, m_order); 

  00022	56		 push	 esi
  00023	57		 push	 edi
  00024	51		 push	 ecx
  00025	ff 75 08	 push	 DWORD PTR _eScaleType$[ebp]
  00028	8d 4d ff	 lea	 ecx, DWORD PTR _bulider$[ebp]
  0002b	e8 00 00 00 00	 call	 ?BuildSymbolsFromString@CElementSaverBuilder@@QAEXW4HORZSCALEDRAWERTYPE@CScaleBaseData@@ABV?$CStringT@DV?$StrTraitMFC_DLL@DV?$ChTraitsCRT@D@ATL@@@@@ATL@@AAVCTree@@AAVCOrder@@@Z ; CElementSaverBuilder::BuildSymbolsFromString
$LN1@BuildSymbo:

; 131  : 	// 2011.02.07 by SYS <<
; 132  : }

  00030	5f		 pop	 edi
  00031	5e		 pop	 esi
  00032	8b e5		 mov	 esp, ebp
  00034	5d		 pop	 ebp
  00035	c2 08 00	 ret	 8
?BuildSymbolsFromString@CElementTree@@QAEXW4HORZSCALEDRAWERTYPE@CScaleBaseData@@ABV?$CStringT@DV?$StrTraitMFC_DLL@DV?$ChTraitsCRT@D@ATL@@@@@ATL@@@Z ENDP ; CElementTree::BuildSymbolsFromString
_TEXT	ENDS
; Function compile flags: /Ogtp
; File D:\git\src\IBK\IBK_DRFN\ProjSrc\SrcChartEx\ChartAddIn\ChartAnalysisToolAddIn\Symbol\ElementTree.cpp
;	COMDAT ?GetSavedSymbolsData@CElementTree@@QAE?AV?$CStringT@DV?$StrTraitMFC_DLL@DV?$ChTraitsCRT@D@ATL@@@@@ATL@@XZ
_TEXT	SEGMENT
___$ReturnUdt$ = 8					; size = 4
?GetSavedSymbolsData@CElementTree@@QAE?AV?$CStringT@DV?$StrTraitMFC_DLL@DV?$ChTraitsCRT@D@ATL@@@@@ATL@@XZ PROC ; CElementTree::GetSavedSymbolsData, COMDAT
; _this$ = ecx

; 135  : {

  00000	55		 push	 ebp
  00001	8b ec		 mov	 ebp, esp

; 136  : 	return m_tree.GetSavedSymbolsData(m_order);

  00003	51		 push	 ecx
  00004	ff 75 08	 push	 DWORD PTR ___$ReturnUdt$[ebp]
  00007	83 c1 20	 add	 ecx, 32			; 00000020H
  0000a	e8 00 00 00 00	 call	 ?GetSavedSymbolsData@CTree@@QAE?AV?$CStringT@DV?$StrTraitMFC_DLL@DV?$ChTraitsCRT@D@ATL@@@@@ATL@@ABVCOrder@@@Z ; CTree::GetSavedSymbolsData
  0000f	8b 45 08	 mov	 eax, DWORD PTR ___$ReturnUdt$[ebp]

; 137  : }

  00012	5d		 pop	 ebp
  00013	c2 04 00	 ret	 4
?GetSavedSymbolsData@CElementTree@@QAE?AV?$CStringT@DV?$StrTraitMFC_DLL@DV?$ChTraitsCRT@D@ATL@@@@@ATL@@XZ ENDP ; CElementTree::GetSavedSymbolsData
_TEXT	ENDS
; Function compile flags: /Ogtp
; File D:\git\src\IBK\IBK_DRFN\ProjSrc\SrcChartEx\ChartAddIn\ChartAnalysisToolAddIn\Symbol\ElementTree.cpp
;	COMDAT ?SetModifiedBlockIndexs@CElementTree@@QAEXABVCBlockIndex@@0@Z
_TEXT	SEGMENT
_sourceBlockIndex$ = 8					; size = 4
_TargetBlockIndex$ = 12					; size = 4
?SetModifiedBlockIndexs@CElementTree@@QAEXABVCBlockIndex@@0@Z PROC ; CElementTree::SetModifiedBlockIndexs, COMDAT
; _this$ = ecx

; 24   : {

  00000	55		 push	 ebp
  00001	8b ec		 mov	 ebp, esp

; 25   : 	m_tree.SetModifiedBlockIndexs(sourceBlockIndex, TargetBlockIndex); 

  00003	83 c1 20	 add	 ecx, 32			; 00000020H

; 26   : }

  00006	5d		 pop	 ebp

; 25   : 	m_tree.SetModifiedBlockIndexs(sourceBlockIndex, TargetBlockIndex); 

  00007	e9 00 00 00 00	 jmp	 ?SetModifiedBlockIndexs@CTree@@QAEXABVCBlockIndex@@0@Z ; CTree::SetModifiedBlockIndexs
?SetModifiedBlockIndexs@CElementTree@@QAEXABVCBlockIndex@@0@Z ENDP ; CElementTree::SetModifiedBlockIndexs
_TEXT	ENDS
; Function compile flags: /Ogtp
; File D:\git\src\IBK\IBK_DRFN\ProjSrc\SrcChartEx\ChartAddIn\ChartAnalysisToolAddIn\Symbol\ElementTree.cpp
;	COMDAT ?InsertBlockIndex@CElementTree@@QAE_NABVCBlockIndex@@@Z
_TEXT	SEGMENT
_insertBlockIndex$ = 8					; size = 4
?InsertBlockIndex@CElementTree@@QAE_NABVCBlockIndex@@@Z PROC ; CElementTree::InsertBlockIndex, COMDAT
; _this$ = ecx

; 29   : {

  00000	55		 push	 ebp
  00001	8b ec		 mov	 ebp, esp

; 30   : 	return m_tree.InsertBlockIndex(insertBlockIndex);

  00003	83 c1 20	 add	 ecx, 32			; 00000020H

; 31   : }

  00006	5d		 pop	 ebp

; 30   : 	return m_tree.InsertBlockIndex(insertBlockIndex);

  00007	e9 00 00 00 00	 jmp	 ?InsertBlockIndex@CTree@@QAE_NABVCBlockIndex@@@Z ; CTree::InsertBlockIndex
?InsertBlockIndex@CElementTree@@QAE_NABVCBlockIndex@@@Z ENDP ; CElementTree::InsertBlockIndex
_TEXT	ENDS
; Function compile flags: /Ogtp
; File D:\git\src\IBK\IBK_DRFN\ProjSrc\SrcChartEx\ChartAddIn\ChartAnalysisToolAddIn\Symbol\ElementTree.cpp
;	COMDAT ?DeleteAllSymbols@CElementTree@@QAEXXZ
_TEXT	SEGMENT
?DeleteAllSymbols@CElementTree@@QAEXXZ PROC		; CElementTree::DeleteAllSymbols, COMDAT
; _this$ = ecx

; 140  : {

  00000	56		 push	 esi
  00001	8b f1		 mov	 esi, ecx

; 141  : 	m_order.RemoveAll();

  00003	e8 00 00 00 00	 call	 ?RemoveAll@COrder@@QAEXXZ ; COrder::RemoveAll

; 142  : 	m_tree.DeleteAllSymbols();

  00008	8d 4e 20	 lea	 ecx, DWORD PTR [esi+32]
  0000b	5e		 pop	 esi
  0000c	e9 00 00 00 00	 jmp	 ?DeleteAllSymbols@CTree@@QAEXXZ ; CTree::DeleteAllSymbols
?DeleteAllSymbols@CElementTree@@QAEXXZ ENDP		; CElementTree::DeleteAllSymbols
_TEXT	ENDS
; Function compile flags: /Ogtp
; File D:\git\src\IBK\IBK_DRFN\ProjSrc\SrcChartEx\ChartAddIn\ChartAnalysisToolAddIn\Symbol\ElementTree.cpp
; File C:\Program Files (x86)\Microsoft Visual Studio\2019\Community\VC\Tools\MSVC\14.29.30133\atlmfc\include\afxtempl.h
; File D:\git\src\IBK\IBK_DRFN\ProjSrc\SrcChartEx\ChartAddIn\ChartAnalysisToolAddIn\Symbol\ElementTree.cpp
; File C:\Program Files (x86)\Microsoft Visual Studio\2019\Community\VC\Tools\MSVC\14.29.30133\atlmfc\include\afxtempl.h
; File D:\git\src\IBK\IBK_DRFN\ProjSrc\SrcChartEx\ChartAddIn\ChartAnalysisToolAddIn\Symbol\ElementTree.cpp
;	COMDAT ?DeleteAllSymbolsInBlock@CElementTree@@QAEXABVCBlockIndex@@@Z
_TEXT	SEGMENT
_elementList$ = -40					; size = 28
__$EHRec$ = -12						; size = 12
_blockIndex$ = 8					; size = 4
?DeleteAllSymbolsInBlock@CElementTree@@QAEXABVCBlockIndex@@@Z PROC ; CElementTree::DeleteAllSymbolsInBlock, COMDAT
; _this$ = ecx

; 34   : {

  00000	55		 push	 ebp
  00001	8b ec		 mov	 ebp, esp
  00003	6a ff		 push	 -1
  00005	68 00 00 00 00	 push	 __ehhandler$?DeleteAllSymbolsInBlock@CElementTree@@QAEXABVCBlockIndex@@@Z
  0000a	64 a1 00 00 00
	00		 mov	 eax, DWORD PTR fs:0
  00010	50		 push	 eax
  00011	83 ec 1c	 sub	 esp, 28			; 0000001cH
  00014	53		 push	 ebx
  00015	57		 push	 edi
  00016	a1 00 00 00 00	 mov	 eax, DWORD PTR ___security_cookie
  0001b	33 c5		 xor	 eax, ebp
  0001d	50		 push	 eax
  0001e	8d 45 f4	 lea	 eax, DWORD PTR __$EHRec$[ebp]
  00021	64 a3 00 00 00
	00		 mov	 DWORD PTR fs:0, eax
  00027	8b d9		 mov	 ebx, ecx
; File C:\Program Files (x86)\Microsoft Visual Studio\2019\Community\VC\Tools\MSVC\14.29.30133\atlmfc\include\afxtempl.h

; 851  : {

  00029	c7 45 d8 00 00
	00 00		 mov	 DWORD PTR _elementList$[ebp], OFFSET ??_7?$CList@PAVCDrawingSymbol@@PAV1@@@6B@

; 852  : 	ASSERT(nBlockSize > 0);
; 853  : 
; 854  : 	m_nCount = 0;

  00030	c7 45 e4 00 00
	00 00		 mov	 DWORD PTR _elementList$[ebp+12], 0

; 855  : 	m_pNodeHead = m_pNodeTail = m_pNodeFree = NULL;

  00037	c7 45 e8 00 00
	00 00		 mov	 DWORD PTR _elementList$[ebp+16], 0
  0003e	c7 45 e0 00 00
	00 00		 mov	 DWORD PTR _elementList$[ebp+8], 0
  00045	c7 45 dc 00 00
	00 00		 mov	 DWORD PTR _elementList$[ebp+4], 0

; 856  : 	m_pBlocks = NULL;

  0004c	c7 45 ec 00 00
	00 00		 mov	 DWORD PTR _elementList$[ebp+20], 0

; 857  : 	m_nBlockSize = nBlockSize;

  00053	c7 45 f0 0a 00
	00 00		 mov	 DWORD PTR _elementList$[ebp+24], 10 ; 0000000aH
; File D:\git\src\IBK\IBK_DRFN\ProjSrc\SrcChartEx\ChartAddIn\ChartAnalysisToolAddIn\Symbol\ElementTree.cpp

; 36   : 	m_tree.GetElementList(blockIndex, elementList);

  0005a	8d 45 d8	 lea	 eax, DWORD PTR _elementList$[ebp]
  0005d	c7 45 fc 00 00
	00 00		 mov	 DWORD PTR __$EHRec$[ebp+8], 0
  00064	50		 push	 eax
  00065	ff 75 08	 push	 DWORD PTR _blockIndex$[ebp]
  00068	8d 4b 20	 lea	 ecx, DWORD PTR [ebx+32]
  0006b	e8 00 00 00 00	 call	 ?GetElementList@CTree@@QAEXABVCBlockIndex@@AAV?$CList@PAVCDrawingSymbol@@PAV1@@@@Z ; CTree::GetElementList

; 37   : 
; 38   : //	if(elementList.GetCount() <= 0)
; 39   : //		return;
; 40   : 
; 41   : 	m_order.RemoveAllInRow(elementList);

  00070	8d 45 d8	 lea	 eax, DWORD PTR _elementList$[ebp]
  00073	8b cb		 mov	 ecx, ebx
  00075	50		 push	 eax
  00076	e8 00 00 00 00	 call	 ?RemoveAllInRow@COrder@@QAEXABV?$CList@PAVCDrawingSymbol@@PAV1@@@@Z ; COrder::RemoveAllInRow

; 42   : 	m_tree.DeleteAllSymbolsInBlock(blockIndex);

  0007b	ff 75 08	 push	 DWORD PTR _blockIndex$[ebp]
  0007e	8d 4b 20	 lea	 ecx, DWORD PTR [ebx+32]
  00081	e8 00 00 00 00	 call	 ?DeleteAllSymbolsInBlock@CTree@@QAEXABVCBlockIndex@@@Z ; CTree::DeleteAllSymbolsInBlock
; File C:\Program Files (x86)\Microsoft Visual Studio\2019\Community\VC\Tools\MSVC\14.29.30133\atlmfc\include\afxtempl.h

; 872  : 	m_pBlocks->FreeDataChain();

  00086	8b 4d ec	 mov	 ecx, DWORD PTR _elementList$[ebp+20]

; 878  : {

  00089	c7 45 fc 01 00
	00 00		 mov	 DWORD PTR __$EHRec$[ebp+8], 1
  00090	c7 45 d8 00 00
	00 00		 mov	 DWORD PTR _elementList$[ebp], OFFSET ??_7?$CList@PAVCDrawingSymbol@@PAV1@@@6B@

; 870  : 	m_nCount = 0;

  00097	c7 45 e4 00 00
	00 00		 mov	 DWORD PTR _elementList$[ebp+12], 0

; 871  : 	m_pNodeHead = m_pNodeTail = m_pNodeFree = NULL;

  0009e	c7 45 e8 00 00
	00 00		 mov	 DWORD PTR _elementList$[ebp+16], 0
  000a5	c7 45 e0 00 00
	00 00		 mov	 DWORD PTR _elementList$[ebp+8], 0
  000ac	c7 45 dc 00 00
	00 00		 mov	 DWORD PTR _elementList$[ebp+4], 0

; 872  : 	m_pBlocks->FreeDataChain();

  000b3	e8 00 00 00 00	 call	 ?FreeDataChain@CPlex@@QAEXXZ ; CPlex::FreeDataChain
; File D:\git\src\IBK\IBK_DRFN\ProjSrc\SrcChartEx\ChartAddIn\ChartAnalysisToolAddIn\Symbol\ElementTree.cpp

; 43   : }

  000b8	8b 4d f4	 mov	 ecx, DWORD PTR __$EHRec$[ebp]
  000bb	64 89 0d 00 00
	00 00		 mov	 DWORD PTR fs:0, ecx
  000c2	59		 pop	 ecx
  000c3	5f		 pop	 edi
  000c4	5b		 pop	 ebx
  000c5	8b e5		 mov	 esp, ebp
  000c7	5d		 pop	 ebp
  000c8	c2 04 00	 ret	 4
_TEXT	ENDS
;	COMDAT text$x
text$x	SEGMENT
__unwindfunclet$?DeleteAllSymbolsInBlock@CElementTree@@QAEXABVCBlockIndex@@@Z$0:
  00000	8d 4d d8	 lea	 ecx, DWORD PTR _elementList$[ebp]
  00003	e9 00 00 00 00	 jmp	 ??1?$CList@PAVCDrawingSymbol@@PAV1@@@UAE@XZ ; CList<CDrawingSymbol *,CDrawingSymbol *>::~CList<CDrawingSymbol *,CDrawingSymbol *>
  00008	cc		 int	 3
  00009	cc		 int	 3
  0000a	cc		 int	 3
  0000b	cc		 int	 3
  0000c	cc		 int	 3
__ehhandler$?DeleteAllSymbolsInBlock@CElementTree@@QAEXABVCBlockIndex@@@Z:
  0000d	90		 npad	 1
  0000e	90		 npad	 1
  0000f	8b 54 24 08	 mov	 edx, DWORD PTR [esp+8]
  00013	8d 42 0c	 lea	 eax, DWORD PTR [edx+12]
  00016	8b 4a d8	 mov	 ecx, DWORD PTR [edx-40]
  00019	33 c8		 xor	 ecx, eax
  0001b	e8 00 00 00 00	 call	 @__security_check_cookie@4
  00020	b8 00 00 00 00	 mov	 eax, OFFSET __ehfuncinfo$?DeleteAllSymbolsInBlock@CElementTree@@QAEXABVCBlockIndex@@@Z
  00025	e9 00 00 00 00	 jmp	 ___CxxFrameHandler3
text$x	ENDS
?DeleteAllSymbolsInBlock@CElementTree@@QAEXABVCBlockIndex@@@Z ENDP ; CElementTree::DeleteAllSymbolsInBlock
; Function compile flags: /Ogtp
; File D:\git\src\IBK\IBK_DRFN\ProjSrc\SrcChartEx\ChartAddIn\ChartAnalysisToolAddIn\Symbol\ElementTree.cpp
;	COMDAT ?DeleteCurrentDrawingSymbol@CElementTree@@QAE_NPBVCDrawingSymbol@@@Z
_TEXT	SEGMENT
_pDrawingSymbol$ = 8					; size = 4
?DeleteCurrentDrawingSymbol@CElementTree@@QAE_NPBVCDrawingSymbol@@@Z PROC ; CElementTree::DeleteCurrentDrawingSymbol, COMDAT
; _this$ = ecx

; 46   : {

  00000	55		 push	 ebp
  00001	8b ec		 mov	 ebp, esp
  00003	57		 push	 edi

; 47   : 	m_order.RemoveAt(pDrawingSymbol);

  00004	ff 75 08	 push	 DWORD PTR _pDrawingSymbol$[ebp]
  00007	8b f9		 mov	 edi, ecx
  00009	e8 00 00 00 00	 call	 ?RemoveAt@COrder@@QAE_NPBVCDrawingSymbol@@@Z ; COrder::RemoveAt

; 48   : 	return m_tree.DeleteCurrentDrawingSymbol(pDrawingSymbol);

  0000e	ff 75 08	 push	 DWORD PTR _pDrawingSymbol$[ebp]
  00011	8d 4f 20	 lea	 ecx, DWORD PTR [edi+32]
  00014	e8 00 00 00 00	 call	 ?DeleteCurrentDrawingSymbol@CTree@@QAE_NPBVCDrawingSymbol@@@Z ; CTree::DeleteCurrentDrawingSymbol
  00019	5f		 pop	 edi

; 49   : }

  0001a	5d		 pop	 ebp
  0001b	c2 04 00	 ret	 4
?DeleteCurrentDrawingSymbol@CElementTree@@QAE_NPBVCDrawingSymbol@@@Z ENDP ; CElementTree::DeleteCurrentDrawingSymbol
_TEXT	ENDS
; Function compile flags: /Ogtp
; File D:\git\src\IBK\IBK_DRFN\ProjSrc\SrcChartEx\ChartAddIn\ChartAnalysisToolAddIn\Symbol\ElementTree.cpp
;	COMDAT ?MoveElement@CElementTree@@QAEJPAVCDrawingSymbol@@@Z
_TEXT	SEGMENT
_pSelected$ = 8						; size = 4
?MoveElement@CElementTree@@QAEJPAVCDrawingSymbol@@@Z PROC ; CElementTree::MoveElement, COMDAT
; _this$ = ecx

; 83   : {

  00000	55		 push	 ebp
  00001	8b ec		 mov	 ebp, esp

; 84   : 	return m_tree.MoveElement(pSelected);

  00003	83 c1 20	 add	 ecx, 32			; 00000020H

; 85   : }

  00006	5d		 pop	 ebp

; 84   : 	return m_tree.MoveElement(pSelected);

  00007	e9 00 00 00 00	 jmp	 ?MoveElement@CTree@@QAEJPAVCDrawingSymbol@@@Z ; CTree::MoveElement
?MoveElement@CElementTree@@QAEJPAVCDrawingSymbol@@@Z ENDP ; CElementTree::MoveElement
_TEXT	ENDS
; Function compile flags: /Ogtp
; File D:\git\src\IBK\IBK_DRFN\ProjSrc\SrcChartEx\ChartAddIn\ChartAnalysisToolAddIn\Symbol\ElementTree.cpp
;	COMDAT ?CopyElement@CElementTree@@QAEJPAVCDrawingSymbol@@@Z
_TEXT	SEGMENT
_pSelected$ = 8						; size = 4
?CopyElement@CElementTree@@QAEJPAVCDrawingSymbol@@@Z PROC ; CElementTree::CopyElement, COMDAT
; _this$ = ecx

; 74   : {

  00000	55		 push	 ebp
  00001	8b ec		 mov	 ebp, esp
  00003	56		 push	 esi
  00004	57		 push	 edi

; 75   : 	long lAddress = m_tree.CopyElement(pSelected);

  00005	ff 75 08	 push	 DWORD PTR _pSelected$[ebp]
  00008	8b f9		 mov	 edi, ecx
  0000a	8d 4f 20	 lea	 ecx, DWORD PTR [edi+32]
  0000d	e8 00 00 00 00	 call	 ?CopyElement@CTree@@QAEJPAVCDrawingSymbol@@@Z ; CTree::CopyElement
  00012	8b f0		 mov	 esi, eax

; 76   : 	if(lAddress)

  00014	85 f6		 test	 esi, esi
  00016	74 0a		 je	 SHORT $LN2@CopyElemen

; 77   : 		m_order.Add((CDrawingSymbol*)lAddress);

  00018	56		 push	 esi
  00019	8b cf		 mov	 ecx, edi
  0001b	e8 00 00 00 00	 call	 ?Add@COrder@@QAEXPAVCDrawingSymbol@@@Z ; COrder::Add

; 78   : 	return lAddress;

  00020	8b c6		 mov	 eax, esi
$LN2@CopyElemen:

; 79   : }

  00022	5f		 pop	 edi
  00023	5e		 pop	 esi
  00024	5d		 pop	 ebp
  00025	c2 04 00	 ret	 4
?CopyElement@CElementTree@@QAEJPAVCDrawingSymbol@@@Z ENDP ; CElementTree::CopyElement
_TEXT	ENDS
; Function compile flags: /Ogtp
; File D:\git\src\IBK\IBK_DRFN\ProjSrc\SrcChartEx\ChartAddIn\ChartAnalysisToolAddIn\Symbol\ElementTree.cpp
;	COMDAT ?DrawElement@CElementTree@@QAEXPAVCDC@@PAUIChartManager133101@@PAVCDrawingSymbol@@@Z
_TEXT	SEGMENT
_pDC$ = 8						; size = 4
_pMainBlock$ = 12					; size = 4
_pSelected$ = 16					; size = 4
?DrawElement@CElementTree@@QAEXPAVCDC@@PAUIChartManager133101@@PAVCDrawingSymbol@@@Z PROC ; CElementTree::DrawElement, COMDAT
; _this$ = ecx

; 63   : {

  00000	55		 push	 ebp
  00001	8b ec		 mov	 ebp, esp

; 64   : 	m_tree.OnDraw(pDC, pMainBlock, pSelected);

  00003	83 c1 20	 add	 ecx, 32			; 00000020H

; 65   : }

  00006	5d		 pop	 ebp

; 64   : 	m_tree.OnDraw(pDC, pMainBlock, pSelected);

  00007	e9 00 00 00 00	 jmp	 ?OnDraw@CTree@@QAEXPAVCDC@@PAUIChartManager133101@@PAVCDrawingSymbol@@@Z ; CTree::OnDraw
?DrawElement@CElementTree@@QAEXPAVCDC@@PAUIChartManager133101@@PAVCDrawingSymbol@@@Z ENDP ; CElementTree::DrawElement
_TEXT	ENDS
; Function compile flags: /Ogtp
; File D:\git\src\IBK\IBK_DRFN\ProjSrc\SrcChartEx\ChartAddIn\ChartAnalysisToolAddIn\Symbol\ElementTree.cpp
; File C:\Program Files (x86)\Microsoft Visual Studio\2019\Community\VC\Tools\MSVC\14.29.30133\atlmfc\include\afxtempl.h
; File D:\git\src\IBK\IBK_DRFN\ProjSrc\SrcChartEx\ChartAddIn\ChartAnalysisToolAddIn\Symbol\ElementTree.cpp
; File C:\Program Files (x86)\Microsoft Visual Studio\2019\Community\VC\Tools\MSVC\14.29.30133\atlmfc\include\afxtempl.h
; File D:\git\src\IBK\IBK_DRFN\ProjSrc\SrcChartEx\ChartAddIn\ChartAnalysisToolAddIn\Symbol\ElementTree.cpp
; File C:\Program Files (x86)\Microsoft Visual Studio\2019\Community\VC\Tools\MSVC\14.29.30133\atlmfc\include\afxtempl.h
; File D:\git\src\IBK\IBK_DRFN\ProjSrc\SrcChartEx\ChartAddIn\ChartAnalysisToolAddIn\Symbol\ElementTree.cpp
;	COMDAT ?GetElementListOfBlock@CElementTree@@QAEXABVCBlockIndex@@AAV?$CList@PAVCDrawingSymbol@@PAV1@@@@Z
_TEXT	SEGMENT
_blockIndex$ = 8					; size = 4
_elementList$ = 12					; size = 4
?GetElementListOfBlock@CElementTree@@QAEXABVCBlockIndex@@AAV?$CList@PAVCDrawingSymbol@@PAV1@@@@Z PROC ; CElementTree::GetElementListOfBlock, COMDAT
; _this$ = ecx

; 173  : {

  00000	55		 push	 ebp
  00001	8b ec		 mov	 ebp, esp
  00003	56		 push	 esi
; File C:\Program Files (x86)\Microsoft Visual Studio\2019\Community\VC\Tools\MSVC\14.29.30133\atlmfc\include\afxtempl.h

; 870  : 	m_nCount = 0;

  00004	8b 75 0c	 mov	 esi, DWORD PTR _elementList$[ebp]
; File D:\git\src\IBK\IBK_DRFN\ProjSrc\SrcChartEx\ChartAddIn\ChartAnalysisToolAddIn\Symbol\ElementTree.cpp

; 173  : {

  00007	57		 push	 edi
  00008	8b f9		 mov	 edi, ecx
; File C:\Program Files (x86)\Microsoft Visual Studio\2019\Community\VC\Tools\MSVC\14.29.30133\atlmfc\include\afxtempl.h

; 872  : 	m_pBlocks->FreeDataChain();

  0000a	8b 4e 14	 mov	 ecx, DWORD PTR [esi+20]
  0000d	c7 46 0c 00 00
	00 00		 mov	 DWORD PTR [esi+12], 0
  00014	c7 46 10 00 00
	00 00		 mov	 DWORD PTR [esi+16], 0
  0001b	c7 46 08 00 00
	00 00		 mov	 DWORD PTR [esi+8], 0
  00022	c7 46 04 00 00
	00 00		 mov	 DWORD PTR [esi+4], 0
  00029	e8 00 00 00 00	 call	 ?FreeDataChain@CPlex@@QAEXXZ ; CPlex::FreeDataChain
; File D:\git\src\IBK\IBK_DRFN\ProjSrc\SrcChartEx\ChartAddIn\ChartAnalysisToolAddIn\Symbol\ElementTree.cpp

; 175  : 	m_tree.GetElementList(blockIndex, elementList);

  0002e	56		 push	 esi
  0002f	ff 75 08	 push	 DWORD PTR _blockIndex$[ebp]
  00032	8d 4f 20	 lea	 ecx, DWORD PTR [edi+32]
; File C:\Program Files (x86)\Microsoft Visual Studio\2019\Community\VC\Tools\MSVC\14.29.30133\atlmfc\include\afxtempl.h

; 873  : 	m_pBlocks = NULL;

  00035	c7 46 14 00 00
	00 00		 mov	 DWORD PTR [esi+20], 0
; File D:\git\src\IBK\IBK_DRFN\ProjSrc\SrcChartEx\ChartAddIn\ChartAnalysisToolAddIn\Symbol\ElementTree.cpp

; 175  : 	m_tree.GetElementList(blockIndex, elementList);

  0003c	e8 00 00 00 00	 call	 ?GetElementList@CTree@@QAEXABVCBlockIndex@@AAV?$CList@PAVCDrawingSymbol@@PAV1@@@@Z ; CTree::GetElementList
  00041	5f		 pop	 edi
  00042	5e		 pop	 esi

; 176  : }

  00043	5d		 pop	 ebp
  00044	c2 08 00	 ret	 8
?GetElementListOfBlock@CElementTree@@QAEXABVCBlockIndex@@AAV?$CList@PAVCDrawingSymbol@@PAV1@@@@Z ENDP ; CElementTree::GetElementListOfBlock
_TEXT	ENDS
; Function compile flags: /Ogtp
; File D:\git\src\IBK\IBK_DRFN\ProjSrc\SrcChartEx\ChartAddIn\ChartAnalysisToolAddIn\Symbol\ElementTree.cpp
;	COMDAT ?GetElementCount@CElementTree@@QBEHXZ
_TEXT	SEGMENT
?GetElementCount@CElementTree@@QBEHXZ PROC		; CElementTree::GetElementCount, COMDAT
; _this$ = ecx

; 162  : 	return m_order.GetCount();

  00000	e9 00 00 00 00	 jmp	 ?GetCount@COrder@@QBEHXZ ; COrder::GetCount
?GetElementCount@CElementTree@@QBEHXZ ENDP		; CElementTree::GetElementCount
_TEXT	ENDS
; Function compile flags: /Ogtp
; File D:\git\src\IBK\IBK_DRFN\ProjSrc\SrcChartEx\ChartAddIn\ChartAnalysisToolAddIn\Symbol\ElementTree.cpp
; File D:\git\src\IBK\IBK_DRFN\ProjSrc\SrcChartEx\ChartAddIn\ChartAnalysisToolAddIn\Include_Chart\BlockBaseData.h
; File D:\git\src\IBK\IBK_DRFN\ProjSrc\SrcChartEx\ChartAddIn\ChartAnalysisToolAddIn\Symbol\ElementTree.cpp
;	COMDAT ?FindSymbol@CElementTree@@QAEPAVCDrawingSymbol@@ABVCPoint@@PAUIChartManager133101@@@Z
_TEXT	SEGMENT
_blockIndex$ = -8					; size = 8
_nRow$ = 8						; size = 4
_point$ = 8						; size = 4
_nColumn$ = 12						; size = 4
_pMainBlock$ = 12					; size = 4
?FindSymbol@CElementTree@@QAEPAVCDrawingSymbol@@ABVCPoint@@PAUIChartManager133101@@@Z PROC ; CElementTree::FindSymbol, COMDAT
; _this$ = ecx

; 88   : {

  00000	55		 push	 ebp
  00001	8b ec		 mov	 ebp, esp
  00003	83 ec 08	 sub	 esp, 8
  00006	53		 push	 ebx
  00007	56		 push	 esi

; 89   : 	int nRow, nColumn;
; 90   : 	if( !pMainBlock->GetBlockIndex(point, nRow, nColumn)) return NULL;;

  00008	8b 75 08	 mov	 esi, DWORD PTR _point$[ebp]
  0000b	8b d9		 mov	 ebx, ecx
  0000d	57		 push	 edi
  0000e	8b 7d 0c	 mov	 edi, DWORD PTR _pMainBlock$[ebp]
  00011	8d 4d 0c	 lea	 ecx, DWORD PTR _nColumn$[ebp]
  00014	51		 push	 ecx
  00015	8d 4d 08	 lea	 ecx, DWORD PTR _nRow$[ebp]
  00018	51		 push	 ecx
  00019	ff 76 04	 push	 DWORD PTR [esi+4]
  0001c	8b 07		 mov	 eax, DWORD PTR [edi]
  0001e	8b cf		 mov	 ecx, edi
  00020	ff 36		 push	 DWORD PTR [esi]
  00022	ff 90 8c 00 00
	00		 call	 DWORD PTR [eax+140]
  00028	85 c0		 test	 eax, eax
  0002a	74 3c		 je	 SHORT $LN13@FindSymbol
; File D:\git\src\IBK\IBK_DRFN\ProjSrc\SrcChartEx\ChartAddIn\ChartAnalysisToolAddIn\Include_Chart\BlockBaseData.h

; 20   : 	CBlockIndex(const int row, const int column) { m_nRow = row; m_nColumn = column; };

  0002c	8b 45 08	 mov	 eax, DWORD PTR _nRow$[ebp]
  0002f	8b 4d 0c	 mov	 ecx, DWORD PTR _nColumn$[ebp]
  00032	89 45 f8	 mov	 DWORD PTR _blockIndex$[ebp], eax
  00035	89 4d fc	 mov	 DWORD PTR _blockIndex$[ebp+4], ecx

; 32   : 	bool IsAllValueBiggerThanZero() const { return (m_nRow >= 0 && m_nColumn >= 0); };

  00038	85 c0		 test	 eax, eax
  0003a	78 2c		 js	 SHORT $LN13@FindSymbol
  0003c	85 c9		 test	 ecx, ecx
  0003e	78 28		 js	 SHORT $LN13@FindSymbol
; File D:\git\src\IBK\IBK_DRFN\ProjSrc\SrcChartEx\ChartAddIn\ChartAnalysisToolAddIn\Symbol\ElementTree.cpp

; 95   : 	CDrawingSymbolRow* pRow = m_tree.GetCurBlockDrawingSymbol(blockIndex);

  00040	8d 45 f8	 lea	 eax, DWORD PTR _blockIndex$[ebp]
  00043	50		 push	 eax
  00044	8d 4b 20	 lea	 ecx, DWORD PTR [ebx+32]
  00047	e8 00 00 00 00	 call	 ?GetCurBlockDrawingSymbol@CTree@@QAEPAVCDrawingSymbolRow@@ABVCBlockIndex@@@Z ; CTree::GetCurBlockDrawingSymbol

; 96   : 	if(pRow == NULL)

  0004c	85 c0		 test	 eax, eax
  0004e	74 18		 je	 SHORT $LN13@FindSymbol

; 97   : 		return NULL;
; 98   : 	return pRow->Find(point, blockIndex.GetColumn(), blockIndex.GetRow(), pMainBlock);

  00050	57		 push	 edi
  00051	ff 75 f8	 push	 DWORD PTR _blockIndex$[ebp]
  00054	8b c8		 mov	 ecx, eax
  00056	ff 75 fc	 push	 DWORD PTR _blockIndex$[ebp+4]
  00059	56		 push	 esi
  0005a	e8 00 00 00 00	 call	 ?Find@CDrawingSymbolRow@@QAEPAVCDrawingSymbol@@ABVCPoint@@HHPAUIChartManager133101@@@Z ; CDrawingSymbolRow::Find
  0005f	5f		 pop	 edi

; 99   : }

  00060	5e		 pop	 esi
  00061	5b		 pop	 ebx
  00062	8b e5		 mov	 esp, ebp
  00064	5d		 pop	 ebp
  00065	c2 08 00	 ret	 8
$LN13@FindSymbol:
  00068	5f		 pop	 edi
  00069	5e		 pop	 esi
  0006a	33 c0		 xor	 eax, eax
  0006c	5b		 pop	 ebx
  0006d	8b e5		 mov	 esp, ebp
  0006f	5d		 pop	 ebp
  00070	c2 08 00	 ret	 8
?FindSymbol@CElementTree@@QAEPAVCDrawingSymbol@@ABVCPoint@@PAUIChartManager133101@@@Z ENDP ; CElementTree::FindSymbol
_TEXT	ENDS
; Function compile flags: /Ogtp
; File D:\git\src\IBK\IBK_DRFN\ProjSrc\SrcChartEx\ChartAddIn\ChartAnalysisToolAddIn\Symbol\ElementTree.cpp
;	COMDAT ?GetTail@CElementTree@@QAEPAVCDrawingSymbol@@XZ
_TEXT	SEGMENT
?GetTail@CElementTree@@QAEPAVCDrawingSymbol@@XZ PROC	; CElementTree::GetTail, COMDAT
; _this$ = ecx

; 103  : 	return m_order.GetTail();

  00000	e9 00 00 00 00	 jmp	 ?GetTail@COrder@@QAEPAVCDrawingSymbol@@XZ ; COrder::GetTail
?GetTail@CElementTree@@QAEPAVCDrawingSymbol@@XZ ENDP	; CElementTree::GetTail
_TEXT	ENDS
; Function compile flags: /Ogtp
; File D:\git\src\IBK\IBK_DRFN\ProjSrc\SrcChartEx\ChartAddIn\ChartAnalysisToolAddIn\Symbol\ElementTree.cpp
;	COMDAT ?AddColumnRowSet@CElementTree@@QAEXABVCBlockIndex@@@Z
_TEXT	SEGMENT
_blockIndex$ = 8					; size = 4
?AddColumnRowSet@CElementTree@@QAEXABVCBlockIndex@@@Z PROC ; CElementTree::AddColumnRowSet, COMDAT
; _this$ = ecx

; 58   : {

  00000	55		 push	 ebp
  00001	8b ec		 mov	 ebp, esp

; 59   : 	m_tree.AddColumnRowSet(blockIndex);

  00003	83 c1 20	 add	 ecx, 32			; 00000020H

; 60   : }

  00006	5d		 pop	 ebp

; 59   : 	m_tree.AddColumnRowSet(blockIndex);

  00007	e9 00 00 00 00	 jmp	 ?AddColumnRowSet@CTree@@QAEXABVCBlockIndex@@@Z ; CTree::AddColumnRowSet
?AddColumnRowSet@CElementTree@@QAEXABVCBlockIndex@@@Z ENDP ; CElementTree::AddColumnRowSet
_TEXT	ENDS
; Function compile flags: /Ogtp
; File D:\git\src\IBK\IBK_DRFN\ProjSrc\SrcChartEx\ChartAddIn\ChartAnalysisToolAddIn\Symbol\ElementTree.cpp
;	COMDAT ?Add@CElementTree@@QAEXABVCBlockIndex@@PAVCDrawingSymbol@@@Z
_TEXT	SEGMENT
_blockIndex$ = 8					; size = 4
_pDrawingSymbol$ = 12					; size = 4
?Add@CElementTree@@QAEXABVCBlockIndex@@PAVCDrawingSymbol@@@Z PROC ; CElementTree::Add, COMDAT
; _this$ = ecx

; 52   : {

  00000	55		 push	 ebp
  00001	8b ec		 mov	 ebp, esp
  00003	57		 push	 edi

; 53   : 	m_order.Add(pDrawingSymbol);

  00004	ff 75 0c	 push	 DWORD PTR _pDrawingSymbol$[ebp]
  00007	8b f9		 mov	 edi, ecx
  00009	e8 00 00 00 00	 call	 ?Add@COrder@@QAEXPAVCDrawingSymbol@@@Z ; COrder::Add

; 54   : 	m_tree.Add(blockIndex, pDrawingSymbol);

  0000e	ff 75 0c	 push	 DWORD PTR _pDrawingSymbol$[ebp]
  00011	8d 4f 20	 lea	 ecx, DWORD PTR [edi+32]
  00014	ff 75 08	 push	 DWORD PTR _blockIndex$[ebp]
  00017	e8 00 00 00 00	 call	 ?Add@CTree@@QAEXABVCBlockIndex@@PAVCDrawingSymbol@@@Z ; CTree::Add
  0001c	5f		 pop	 edi

; 55   : }

  0001d	5d		 pop	 ebp
  0001e	c2 08 00	 ret	 8
?Add@CElementTree@@QAEXABVCBlockIndex@@PAVCDrawingSymbol@@@Z ENDP ; CElementTree::Add
_TEXT	ENDS
; Function compile flags: /Ogtp
; File D:\git\src\IBK\IBK_DRFN\ProjSrc\SrcChartEx\ChartAddIn\ChartAnalysisToolAddIn\Symbol\ElementTree.cpp
;	COMDAT ?DeleteSymbolPos@CElementTree@@QAE_NJH@Z
_TEXT	SEGMENT
_lAddress$ = 8						; size = 4
_bListOnly$ = 12					; size = 4
?DeleteSymbolPos@CElementTree@@QAE_NJH@Z PROC		; CElementTree::DeleteSymbolPos, COMDAT
; _this$ = ecx

; 155  : {

  00000	55		 push	 ebp
  00001	8b ec		 mov	 ebp, esp

; 156  : 	return m_tree.DeleteCurrentDrawingSymbol(lAddress,bListOnly);

  00003	83 c1 20	 add	 ecx, 32			; 00000020H

; 157  : }

  00006	5d		 pop	 ebp

; 156  : 	return m_tree.DeleteCurrentDrawingSymbol(lAddress,bListOnly);

  00007	e9 00 00 00 00	 jmp	 ?DeleteCurrentDrawingSymbol@CTree@@QAE_NJH@Z ; CTree::DeleteCurrentDrawingSymbol
?DeleteSymbolPos@CElementTree@@QAE_NJH@Z ENDP		; CElementTree::DeleteSymbolPos
_TEXT	ENDS
; Function compile flags: /Ogtp
; File D:\git\src\IBK\IBK_DRFN\ProjSrc\SrcChartEx\ChartAddIn\ChartAnalysisToolAddIn\Symbol\ElementTree.cpp
;	COMDAT ?DeleteLastSymbol@CElementTree@@QAEXXZ
_TEXT	SEGMENT
?DeleteLastSymbol@CElementTree@@QAEXXZ PROC		; CElementTree::DeleteLastSymbol, COMDAT
; _this$ = ecx

; 146  : {

  00000	56		 push	 esi
  00001	57		 push	 edi
  00002	8b f1		 mov	 esi, ecx

; 147  : 	CDrawingSymbol* pSymbol = m_order.GetTail();

  00004	e8 00 00 00 00	 call	 ?GetTail@COrder@@QAEPAVCDrawingSymbol@@XZ ; COrder::GetTail
  00009	8b f8		 mov	 edi, eax

; 148  : 	if(pSymbol == NULL)

  0000b	85 ff		 test	 edi, edi
  0000d	74 11		 je	 SHORT $LN1@DeleteLast

; 47   : 	m_order.RemoveAt(pDrawingSymbol);

  0000f	57		 push	 edi
  00010	8b ce		 mov	 ecx, esi
  00012	e8 00 00 00 00	 call	 ?RemoveAt@COrder@@QAE_NPBVCDrawingSymbol@@@Z ; COrder::RemoveAt

; 48   : 	return m_tree.DeleteCurrentDrawingSymbol(pDrawingSymbol);

  00017	57		 push	 edi
  00018	8d 4e 20	 lea	 ecx, DWORD PTR [esi+32]
  0001b	e8 00 00 00 00	 call	 ?DeleteCurrentDrawingSymbol@CTree@@QAE_NPBVCDrawingSymbol@@@Z ; CTree::DeleteCurrentDrawingSymbol
$LN1@DeleteLast:
  00020	5f		 pop	 edi

; 149  : 		return;
; 150  : 
; 151  : 	DeleteCurrentDrawingSymbol(pSymbol);
; 152  : }

  00021	5e		 pop	 esi
  00022	c3		 ret	 0
?DeleteLastSymbol@CElementTree@@QAEXXZ ENDP		; CElementTree::DeleteLastSymbol
_TEXT	ENDS
; Function compile flags: /Ogtp
; File C:\Program Files (x86)\Microsoft Visual Studio\2019\Community\VC\Tools\MSVC\14.29.30133\atlmfc\include\afxtempl.h
; File C:\Program Files (x86)\Microsoft Visual Studio\2019\Community\VC\Tools\MSVC\14.29.30133\atlmfc\include\afx.inl
;	COMDAT ??_G?$CList@PAVCDrawingSymbol@@PAV1@@@UAEPAXI@Z
_TEXT	SEGMENT
__$EHRec$ = -12						; size = 12
___flags$ = 8						; size = 4
??_G?$CList@PAVCDrawingSymbol@@PAV1@@@UAEPAXI@Z PROC	; CList<CDrawingSymbol *,CDrawingSymbol *>::`scalar deleting destructor', COMDAT
; _this$ = ecx
  00000	55		 push	 ebp
  00001	8b ec		 mov	 ebp, esp
  00003	6a ff		 push	 -1
  00005	68 00 00 00 00	 push	 __ehhandler$??_G?$CList@PAVCDrawingSymbol@@PAV1@@@UAEPAXI@Z
  0000a	64 a1 00 00 00
	00		 mov	 eax, DWORD PTR fs:0
  00010	50		 push	 eax
  00011	56		 push	 esi
  00012	a1 00 00 00 00	 mov	 eax, DWORD PTR ___security_cookie
  00017	33 c5		 xor	 eax, ebp
  00019	50		 push	 eax
  0001a	8d 45 f4	 lea	 eax, DWORD PTR __$EHRec$[ebp]
  0001d	64 a3 00 00 00
	00		 mov	 DWORD PTR fs:0, eax
  00023	8b f1		 mov	 esi, ecx
; File C:\Program Files (x86)\Microsoft Visual Studio\2019\Community\VC\Tools\MSVC\14.29.30133\atlmfc\include\afxtempl.h

; 872  : 	m_pBlocks->FreeDataChain();

  00025	8b 4e 14	 mov	 ecx, DWORD PTR [esi+20]

; 878  : {

  00028	c7 45 fc 00 00
	00 00		 mov	 DWORD PTR __$EHRec$[ebp+8], 0
  0002f	c7 06 00 00 00
	00		 mov	 DWORD PTR [esi], OFFSET ??_7?$CList@PAVCDrawingSymbol@@PAV1@@@6B@

; 870  : 	m_nCount = 0;

  00035	c7 46 0c 00 00
	00 00		 mov	 DWORD PTR [esi+12], 0

; 871  : 	m_pNodeHead = m_pNodeTail = m_pNodeFree = NULL;

  0003c	c7 46 10 00 00
	00 00		 mov	 DWORD PTR [esi+16], 0
  00043	c7 46 08 00 00
	00 00		 mov	 DWORD PTR [esi+8], 0
  0004a	c7 46 04 00 00
	00 00		 mov	 DWORD PTR [esi+4], 0

; 872  : 	m_pBlocks->FreeDataChain();

  00051	e8 00 00 00 00	 call	 ?FreeDataChain@CPlex@@QAEXXZ ; CPlex::FreeDataChain

; 873  : 	m_pBlocks = NULL;

  00056	8b 45 08	 mov	 eax, DWORD PTR ___flags$[ebp]
  00059	c7 46 14 00 00
	00 00		 mov	 DWORD PTR [esi+20], 0
  00060	a8 01		 test	 al, 1
  00062	74 2c		 je	 SHORT $LN22@scalar
  00064	a8 04		 test	 al, 4
  00066	75 1d		 jne	 SHORT $LN3@scalar
; File C:\Program Files (x86)\Microsoft Visual Studio\2019\Community\VC\Tools\MSVC\14.29.30133\atlmfc\include\afx.inl

; 112  : 	{ ::operator delete(p); }

  00068	56		 push	 esi
  00069	e8 00 00 00 00	 call	 ??3@YAXPAX@Z		; operator delete
  0006e	83 c4 04	 add	 esp, 4
  00071	8b c6		 mov	 eax, esi
  00073	8b 4d f4	 mov	 ecx, DWORD PTR __$EHRec$[ebp]
  00076	64 89 0d 00 00
	00 00		 mov	 DWORD PTR fs:0, ecx
  0007d	59		 pop	 ecx
  0007e	5e		 pop	 esi
  0007f	8b e5		 mov	 esp, ebp
  00081	5d		 pop	 ebp
  00082	c2 04 00	 ret	 4
$LN3@scalar:
  00085	6a 1c		 push	 28			; 0000001cH
  00087	56		 push	 esi
  00088	e8 00 00 00 00	 call	 ?__global_delete@@YAXPAXI@Z ; __global_delete
  0008d	83 c4 08	 add	 esp, 8
$LN22@scalar:
  00090	8b c6		 mov	 eax, esi
  00092	8b 4d f4	 mov	 ecx, DWORD PTR __$EHRec$[ebp]
  00095	64 89 0d 00 00
	00 00		 mov	 DWORD PTR fs:0, ecx
  0009c	59		 pop	 ecx
  0009d	5e		 pop	 esi
  0009e	8b e5		 mov	 esp, ebp
  000a0	5d		 pop	 ebp
  000a1	c2 04 00	 ret	 4
  000a4	cc		 int	 3
  000a5	cc		 int	 3
  000a6	cc		 int	 3
  000a7	cc		 int	 3
  000a8	cc		 int	 3
_TEXT	ENDS
;	COMDAT text$x
text$x	SEGMENT
__ehhandler$??_G?$CList@PAVCDrawingSymbol@@PAV1@@@UAEPAXI@Z:
  00000	90		 npad	 1
  00001	90		 npad	 1
  00002	8b 54 24 08	 mov	 edx, DWORD PTR [esp+8]
  00006	8d 42 0c	 lea	 eax, DWORD PTR [edx+12]
  00009	8b 4a f8	 mov	 ecx, DWORD PTR [edx-8]
  0000c	33 c8		 xor	 ecx, eax
  0000e	e8 00 00 00 00	 call	 @__security_check_cookie@4
  00013	b8 00 00 00 00	 mov	 eax, OFFSET __ehfuncinfo$??_G?$CList@PAVCDrawingSymbol@@PAV1@@@UAEPAXI@Z
  00018	e9 00 00 00 00	 jmp	 ___CxxFrameHandler3
text$x	ENDS
??_G?$CList@PAVCDrawingSymbol@@PAV1@@@UAEPAXI@Z ENDP	; CList<CDrawingSymbol *,CDrawingSymbol *>::`scalar deleting destructor'
; Function compile flags: /Ogtp
; File C:\Program Files (x86)\Microsoft Visual Studio\2019\Community\VC\Tools\MSVC\14.29.30133\atlmfc\include\afxtempl.h
; File C:\Program Files (x86)\Microsoft Visual Studio\2019\Community\VC\Tools\MSVC\14.29.30133\atlmfc\include\afx.inl
; File C:\Program Files (x86)\Microsoft Visual Studio\2019\Community\VC\Tools\MSVC\14.29.30133\atlmfc\include\afxtempl.h
; File C:\Program Files (x86)\Microsoft Visual Studio\2019\Community\VC\Tools\MSVC\14.29.30133\atlmfc\include\afx.inl
; File C:\Program Files (x86)\Microsoft Visual Studio\2019\Community\VC\Tools\MSVC\14.29.30133\atlmfc\include\afxtempl.h
; File C:\Program Files (x86)\Microsoft Visual Studio\2019\Community\VC\Tools\MSVC\14.29.30133\atlmfc\include\afx.inl
; File C:\Program Files (x86)\Microsoft Visual Studio\2019\Community\VC\Tools\MSVC\14.29.30133\atlmfc\include\afxtempl.h
; File C:\Program Files (x86)\Microsoft Visual Studio\2019\Community\VC\Tools\MSVC\14.29.30133\atlmfc\include\afx.inl
; File C:\Program Files (x86)\Microsoft Visual Studio\2019\Community\VC\Tools\MSVC\14.29.30133\atlmfc\include\afxtempl.h
; File C:\Program Files (x86)\Microsoft Visual Studio\2019\Community\VC\Tools\MSVC\14.29.30133\atlmfc\include\afx.inl
; File C:\Program Files (x86)\Microsoft Visual Studio\2019\Community\VC\Tools\MSVC\14.29.30133\atlmfc\include\afxtempl.h
; File C:\Program Files (x86)\Microsoft Visual Studio\2019\Community\VC\Tools\MSVC\14.29.30133\atlmfc\include\afx.inl
; File C:\Program Files (x86)\Microsoft Visual Studio\2019\Community\VC\Tools\MSVC\14.29.30133\atlmfc\include\afxtempl.h
;	COMDAT ?Serialize@?$CList@PAVCDrawingSymbol@@PAV1@@@UAEXAAVCArchive@@@Z
_TEXT	SEGMENT
_nNewCount$1$ = -16					; size = 4
_newData$1 = -12					; size = 4
_pData$1$ = -8						; size = 4
_pData$1$ = -8						; size = 4
_pNode$1$ = -8						; size = 4
_nElementsLeft$1$ = -4					; size = 4
_this$1$ = -4						; size = 4
_ar$ = 8						; size = 4
?Serialize@?$CList@PAVCDrawingSymbol@@PAV1@@@UAEXAAVCArchive@@@Z PROC ; CList<CDrawingSymbol *,CDrawingSymbol *>::Serialize, COMDAT
; _this$ = ecx

; 1169 : {

  00000	55		 push	 ebp
  00001	8b ec		 mov	 ebp, esp
  00003	83 ec 10	 sub	 esp, 16			; 00000010H
  00006	53		 push	 ebx
  00007	8b d9		 mov	 ebx, ecx
; File C:\Program Files (x86)\Microsoft Visual Studio\2019\Community\VC\Tools\MSVC\14.29.30133\atlmfc\include\afx.inl

; 212  : 	{ return (m_nMode & CArchive::load) == 0; }

  00009	8b 4d 08	 mov	 ecx, DWORD PTR _ar$[ebp]
; File C:\Program Files (x86)\Microsoft Visual Studio\2019\Community\VC\Tools\MSVC\14.29.30133\atlmfc\include\afxtempl.h

; 1169 : {

  0000c	56		 push	 esi
  0000d	57		 push	 edi
  0000e	89 5d fc	 mov	 DWORD PTR _this$1$[ebp], ebx
; File C:\Program Files (x86)\Microsoft Visual Studio\2019\Community\VC\Tools\MSVC\14.29.30133\atlmfc\include\afx.inl

; 212  : 	{ return (m_nMode & CArchive::load) == 0; }

  00011	8b 41 18	 mov	 eax, DWORD PTR [ecx+24]
  00014	f7 d0		 not	 eax
  00016	a8 01		 test	 al, 1
; File C:\Program Files (x86)\Microsoft Visual Studio\2019\Community\VC\Tools\MSVC\14.29.30133\atlmfc\include\afxtempl.h

; 1174 : 	if (ar.IsStoring())

  00018	0f 84 ae 00 00
	00		 je	 $LN7@Serialize

; 1175 : 	{
; 1176 : 		ar.WriteCount(m_nCount);

  0001e	ff 73 0c	 push	 DWORD PTR [ebx+12]
  00021	e8 00 00 00 00	 call	 ?WriteCount@CArchive@@QAEXK@Z ; CArchive::WriteCount

; 1177 : 		for (CNode* pNode = m_pNodeHead; pNode != NULL; pNode = pNode->pNext)

  00026	8b 43 04	 mov	 eax, DWORD PTR [ebx+4]
  00029	89 45 f8	 mov	 DWORD PTR _pNode$1$[ebp], eax
  0002c	85 c0		 test	 eax, eax
  0002e	0f 84 b9 01 00
	00		 je	 $LN86@Serialize
$LL4@Serialize:

; 1178 : 		{
; 1179 : 			ASSERT(AfxIsValidAddress(pNode, sizeof(CNode)));
; 1180 : 			TYPE* pData;
; 1181 : 			/*
; 1182 : 			 * in some cases the & operator might be overloaded, and we cannot use it to obtain
; 1183 : 			 * the address of a given object.  We then use the following trick to get the address
; 1184 : 			 */
; 1185 : 			pData = reinterpret_cast< TYPE* >( &reinterpret_cast< int& >( static_cast< TYPE& >( pNode->data ) ) );

  00034	8d 70 08	 lea	 esi, DWORD PTR [eax+8]

; 68   : 	ENSURE(nCount == 0 || pElements != NULL);

  00037	85 f6		 test	 esi, esi
  00039	0f 84 c0 01 00
	00		 je	 $LN76@Serialize
; File C:\Program Files (x86)\Microsoft Visual Studio\2019\Community\VC\Tools\MSVC\14.29.30133\atlmfc\include\afx.inl

; 212  : 	{ return (m_nMode & CArchive::load) == 0; }

  0003f	8b 4d 08	 mov	 ecx, DWORD PTR _ar$[ebp]
  00042	8b 41 18	 mov	 eax, DWORD PTR [ecx+24]
  00045	f7 d0		 not	 eax
  00047	a8 01		 test	 al, 1
; File C:\Program Files (x86)\Microsoft Visual Studio\2019\Community\VC\Tools\MSVC\14.29.30133\atlmfc\include\afxtempl.h

; 73   : 	if (ar.IsStoring())

  00049	74 33		 je	 SHORT $LN21@Serialize

; 74   : 	{
; 75   : 		TYPE* pData;
; 76   : 		UINT_PTR nElementsLeft;
; 77   : 
; 78   : 		nElementsLeft = nCount;

  0004b	b8 01 00 00 00	 mov	 eax, 1
  00050	89 45 fc	 mov	 DWORD PTR _nElementsLeft$1$[ebp], eax
$LL16@Serialize:

; 80   : 		while( nElementsLeft > 0 )
; 81   : 		{
; 82   : 			UINT nElementsToWrite;
; 83   : 
; 84   : 			nElementsToWrite = UINT(__min(nElementsLeft, INT_MAX/sizeof(TYPE)));

  00053	bb ff ff ff 1f	 mov	 ebx, 536870911		; 1fffffffH
  00058	3b c3		 cmp	 eax, ebx
  0005a	0f 42 d8	 cmovb	 ebx, eax

; 85   : 			ar.Write(pData, nElementsToWrite*sizeof(TYPE));

  0005d	8d 3c 9d 00 00
	00 00		 lea	 edi, DWORD PTR [ebx*4]
  00064	57		 push	 edi
  00065	56		 push	 esi
  00066	e8 00 00 00 00	 call	 ?Write@CArchive@@QAEXPBXI@Z ; CArchive::Write

; 86   : 			nElementsLeft -= nElementsToWrite;

  0006b	8b 45 fc	 mov	 eax, DWORD PTR _nElementsLeft$1$[ebp]

; 87   : 			pData += nElementsToWrite;

  0006e	03 f7		 add	 esi, edi
  00070	8b 4d 08	 mov	 ecx, DWORD PTR _ar$[ebp]
  00073	2b c3		 sub	 eax, ebx
  00075	89 45 fc	 mov	 DWORD PTR _nElementsLeft$1$[ebp], eax
  00078	85 c0		 test	 eax, eax
  0007a	75 d7		 jne	 SHORT $LL16@Serialize

; 88   : 		}
; 89   : 	}

  0007c	eb 35		 jmp	 SHORT $LN2@Serialize
$LN21@Serialize:

; 90   : 	else
; 91   : 	{
; 92   : 		TYPE* pData;
; 93   : 		UINT_PTR nElementsLeft;
; 94   : 
; 95   : 		nElementsLeft = nCount;

  0007e	bf 01 00 00 00	 mov	 edi, 1
$LL18@Serialize:

; 98   : 		{
; 99   : 			UINT nElementsToRead;
; 100  : 
; 101  : 			nElementsToRead = UINT(__min(nElementsLeft, INT_MAX/sizeof(TYPE)));

  00083	bb ff ff ff 1f	 mov	 ebx, 536870911		; 1fffffffH
  00088	3b fb		 cmp	 edi, ebx
  0008a	0f 42 df	 cmovb	 ebx, edi

; 102  : 			ar.EnsureRead(pData, nElementsToRead*sizeof(TYPE));

  0008d	8d 04 9d 00 00
	00 00		 lea	 eax, DWORD PTR [ebx*4]
; File C:\Program Files (x86)\Microsoft Visual Studio\2019\Community\VC\Tools\MSVC\14.29.30133\atlmfc\include\afx.inl

; 399  : 	UINT nRead=Read(lpBuf, nCount);

  00094	50		 push	 eax
  00095	56		 push	 esi
  00096	e8 00 00 00 00	 call	 ?Read@CArchive@@QAEIPAXI@Z ; CArchive::Read

; 400  : 	if(nRead!=nCount)

  0009b	8d 0c 9d 00 00
	00 00		 lea	 ecx, DWORD PTR [ebx*4]
  000a2	3b c1		 cmp	 eax, ecx
  000a4	0f 85 4c 01 00
	00		 jne	 $LN75@Serialize
; File C:\Program Files (x86)\Microsoft Visual Studio\2019\Community\VC\Tools\MSVC\14.29.30133\atlmfc\include\afxtempl.h

; 97   : 		while( nElementsLeft > 0 )

  000aa	03 f1		 add	 esi, ecx
  000ac	8b 4d 08	 mov	 ecx, DWORD PTR _ar$[ebp]

; 103  : 			nElementsLeft -= nElementsToRead;

  000af	2b fb		 sub	 edi, ebx
  000b1	75 d0		 jne	 SHORT $LL18@Serialize
$LN2@Serialize:

; 1177 : 		for (CNode* pNode = m_pNodeHead; pNode != NULL; pNode = pNode->pNext)

  000b3	8b 45 f8	 mov	 eax, DWORD PTR _pNode$1$[ebp]
  000b6	8b 00		 mov	 eax, DWORD PTR [eax]
  000b8	89 45 f8	 mov	 DWORD PTR _pNode$1$[ebp], eax
  000bb	85 c0		 test	 eax, eax
  000bd	0f 85 71 ff ff
	ff		 jne	 $LL4@Serialize

; 1197 : 		}
; 1198 : 	}
; 1199 : }

  000c3	5f		 pop	 edi
  000c4	5e		 pop	 esi
  000c5	5b		 pop	 ebx
  000c6	8b e5		 mov	 esp, ebp
  000c8	5d		 pop	 ebp
  000c9	c2 04 00	 ret	 4
$LN7@Serialize:

; 1186 : 			SerializeElements<TYPE>(ar, pData, 1);
; 1187 : 		}
; 1188 : 	}
; 1189 : 	else
; 1190 : 	{
; 1191 : 		DWORD_PTR nNewCount = ar.ReadCount();

  000cc	e8 00 00 00 00	 call	 ?ReadCount@CArchive@@QAEKXZ ; CArchive::ReadCount

; 1192 : 		while (nNewCount--)

  000d1	85 c0		 test	 eax, eax
  000d3	0f 84 14 01 00
	00		 je	 $LN86@Serialize
  000d9	0f 1f 80 00 00
	00 00		 npad	 7
$LL5@Serialize:
  000e0	48		 dec	 eax
  000e1	89 45 f0	 mov	 DWORD PTR _nNewCount$1$[ebp], eax
; File C:\Program Files (x86)\Microsoft Visual Studio\2019\Community\VC\Tools\MSVC\14.29.30133\atlmfc\include\afx.inl

; 212  : 	{ return (m_nMode & CArchive::load) == 0; }

  000e4	8b 45 08	 mov	 eax, DWORD PTR _ar$[ebp]
  000e7	8b 48 18	 mov	 ecx, DWORD PTR [eax+24]
  000ea	f7 d1		 not	 ecx
  000ec	f6 c1 01	 test	 cl, 1
; File C:\Program Files (x86)\Microsoft Visual Studio\2019\Community\VC\Tools\MSVC\14.29.30133\atlmfc\include\afxtempl.h

; 73   : 	if (ar.IsStoring())

  000ef	74 3d		 je	 SHORT $LN42@Serialize

; 79   : 		pData = pElements;

  000f1	8d 4d f4	 lea	 ecx, DWORD PTR _newData$1[ebp]
  000f4	bb 01 00 00 00	 mov	 ebx, 1
  000f9	89 4d f8	 mov	 DWORD PTR _pData$1$[ebp], ecx
  000fc	0f 1f 40 00	 npad	 4
$LL37@Serialize:

; 80   : 		while( nElementsLeft > 0 )
; 81   : 		{
; 82   : 			UINT nElementsToWrite;
; 83   : 
; 84   : 			nElementsToWrite = UINT(__min(nElementsLeft, INT_MAX/sizeof(TYPE)));

  00100	bf ff ff ff 1f	 mov	 edi, 536870911		; 1fffffffH
  00105	3b df		 cmp	 ebx, edi
  00107	0f 42 fb	 cmovb	 edi, ebx

; 85   : 			ar.Write(pData, nElementsToWrite*sizeof(TYPE));

  0010a	8d 34 bd 00 00
	00 00		 lea	 esi, DWORD PTR [edi*4]
  00111	56		 push	 esi
  00112	51		 push	 ecx
  00113	8b c8		 mov	 ecx, eax
  00115	e8 00 00 00 00	 call	 ?Write@CArchive@@QAEXPBXI@Z ; CArchive::Write

; 87   : 			pData += nElementsToWrite;

  0011a	8b 4d f8	 mov	 ecx, DWORD PTR _pData$1$[ebp]
  0011d	8b 45 08	 mov	 eax, DWORD PTR _ar$[ebp]
  00120	03 ce		 add	 ecx, esi
  00122	89 4d f8	 mov	 DWORD PTR _pData$1$[ebp], ecx
  00125	2b df		 sub	 ebx, edi
  00127	75 d7		 jne	 SHORT $LL37@Serialize

; 88   : 		}
; 89   : 	}

  00129	8b 5d fc	 mov	 ebx, DWORD PTR _this$1$[ebp]
  0012c	eb 4a		 jmp	 SHORT $LN40@Serialize
$LN42@Serialize:

; 96   : 		pData = pElements;

  0012e	8d 55 f4	 lea	 edx, DWORD PTR _newData$1[ebp]
  00131	be 01 00 00 00	 mov	 esi, 1
  00136	89 55 f8	 mov	 DWORD PTR _pData$1$[ebp], edx
  00139	0f 1f 80 00 00
	00 00		 npad	 7
$LL39@Serialize:

; 98   : 		{
; 99   : 			UINT nElementsToRead;
; 100  : 
; 101  : 			nElementsToRead = UINT(__min(nElementsLeft, INT_MAX/sizeof(TYPE)));

  00140	bf ff ff ff 1f	 mov	 edi, 536870911		; 1fffffffH
  00145	3b f7		 cmp	 esi, edi
  00147	0f 42 fe	 cmovb	 edi, esi

; 102  : 			ar.EnsureRead(pData, nElementsToRead*sizeof(TYPE));

  0014a	8d 0c bd 00 00
	00 00		 lea	 ecx, DWORD PTR [edi*4]
; File C:\Program Files (x86)\Microsoft Visual Studio\2019\Community\VC\Tools\MSVC\14.29.30133\atlmfc\include\afx.inl

; 399  : 	UINT nRead=Read(lpBuf, nCount);

  00151	51		 push	 ecx
  00152	52		 push	 edx
  00153	8b c8		 mov	 ecx, eax
  00155	e8 00 00 00 00	 call	 ?Read@CArchive@@QAEIPAXI@Z ; CArchive::Read

; 400  : 	if(nRead!=nCount)

  0015a	8d 0c bd 00 00
	00 00		 lea	 ecx, DWORD PTR [edi*4]
  00161	3b c1		 cmp	 eax, ecx
  00163	0f 85 8d 00 00
	00		 jne	 $LN75@Serialize
; File C:\Program Files (x86)\Microsoft Visual Studio\2019\Community\VC\Tools\MSVC\14.29.30133\atlmfc\include\afxtempl.h

; 97   : 		while( nElementsLeft > 0 )

  00169	8b 55 f8	 mov	 edx, DWORD PTR _pData$1$[ebp]
  0016c	8b 45 08	 mov	 eax, DWORD PTR _ar$[ebp]

; 104  : 			pData += nElementsToRead;

  0016f	03 d1		 add	 edx, ecx
  00171	89 55 f8	 mov	 DWORD PTR _pData$1$[ebp], edx
  00174	2b f7		 sub	 esi, edi
  00176	75 c8		 jne	 SHORT $LL39@Serialize
$LN40@Serialize:

; 902  : 	if (m_pNodeFree == NULL)

  00178	83 7b 10 00	 cmp	 DWORD PTR [ebx+16], 0

; 1193 : 		{
; 1194 : 			TYPE newData[1];
; 1195 : 			SerializeElements<TYPE>(ar, newData, 1);
; 1196 : 			AddTail(newData[0]);

  0017c	8b 75 f4	 mov	 esi, DWORD PTR _newData$1[ebp]

; 968  : 	CNode* pNewNode = NewNode(m_pNodeTail, NULL);

  0017f	8b 7b 08	 mov	 edi, DWORD PTR [ebx+8]

; 902  : 	if (m_pNodeFree == NULL)

  00182	75 32		 jne	 SHORT $LN63@Serialize

; 903  : 	{
; 904  : 		// add another block
; 905  : 		CPlex* pNewBlock = CPlex::Create(m_pBlocks, m_nBlockSize,

  00184	6a 0c		 push	 12			; 0000000cH
  00186	ff 73 18	 push	 DWORD PTR [ebx+24]
  00189	8d 43 14	 lea	 eax, DWORD PTR [ebx+20]
  0018c	50		 push	 eax
  0018d	e8 00 00 00 00	 call	 ?Create@CPlex@@SGPAU1@AAPAU1@II@Z ; CPlex::Create

; 906  : 				 sizeof(CNode));
; 907  : 
; 908  : 		// chain them into free list
; 909  : 		CNode* pNode = (CNode*) pNewBlock->data();
; 910  : 		// free in reverse order to make it easier to debug
; 911  : 		pNode += m_nBlockSize - 1;

  00192	8b 53 18	 mov	 edx, DWORD PTR [ebx+24]
  00195	83 c0 08	 add	 eax, 8
  00198	8d 4a ff	 lea	 ecx, DWORD PTR [edx-1]

; 912  : 		for (INT_PTR i = m_nBlockSize-1; i >= 0; i--, pNode--)

  0019b	83 c2 ff	 add	 edx, -1
  0019e	8d 0c 49	 lea	 ecx, DWORD PTR [ecx+ecx*2]
  001a1	8d 0c 88	 lea	 ecx, DWORD PTR [eax+ecx*4]
  001a4	78 10		 js	 SHORT $LN63@Serialize
$LL60@Serialize:

; 913  : 		{
; 914  : 			pNode->pNext = m_pNodeFree;

  001a6	8b 43 10	 mov	 eax, DWORD PTR [ebx+16]
  001a9	89 01		 mov	 DWORD PTR [ecx], eax

; 915  : 			m_pNodeFree = pNode;

  001ab	89 4b 10	 mov	 DWORD PTR [ebx+16], ecx
  001ae	83 e9 0c	 sub	 ecx, 12			; 0000000cH
  001b1	83 ea 01	 sub	 edx, 1
  001b4	79 f0		 jns	 SHORT $LL60@Serialize
$LN63@Serialize:

; 916  : 		}
; 917  : 	}
; 918  : 	ENSURE(m_pNodeFree != NULL);  // we must have something

  001b6	8b 4b 10	 mov	 ecx, DWORD PTR [ebx+16]
  001b9	85 c9		 test	 ecx, ecx
  001bb	74 42		 je	 SHORT $LN76@Serialize

; 919  : 
; 920  : 	CList::CNode* pNode = m_pNodeFree;
; 921  : 	m_pNodeFree = m_pNodeFree->pNext;

  001bd	8b 01		 mov	 eax, DWORD PTR [ecx]
  001bf	89 43 10	 mov	 DWORD PTR [ebx+16], eax

; 922  : 	pNode->pPrev = pPrev;

  001c2	89 79 04	 mov	 DWORD PTR [ecx+4], edi

; 923  : 	pNode->pNext = pNext;

  001c5	c7 01 00 00 00
	00		 mov	 DWORD PTR [ecx], 0

; 924  : 	m_nCount++;

  001cb	ff 43 0c	 inc	 DWORD PTR [ebx+12]

; 969  : 	pNewNode->data = newElement;

  001ce	89 71 08	 mov	 DWORD PTR [ecx+8], esi

; 970  : 	if (m_pNodeTail != NULL)

  001d1	8b 43 08	 mov	 eax, DWORD PTR [ebx+8]
  001d4	85 c0		 test	 eax, eax
  001d6	74 04		 je	 SHORT $LN54@Serialize

; 971  : 		m_pNodeTail->pNext = pNewNode;

  001d8	89 08		 mov	 DWORD PTR [eax], ecx
  001da	eb 03		 jmp	 SHORT $LN55@Serialize
$LN54@Serialize:

; 972  : 	else
; 973  : 		m_pNodeHead = pNewNode;

  001dc	89 4b 04	 mov	 DWORD PTR [ebx+4], ecx
$LN55@Serialize:

; 1192 : 		while (nNewCount--)

  001df	8b 45 f0	 mov	 eax, DWORD PTR _nNewCount$1$[ebp]

; 974  : 	m_pNodeTail = pNewNode;

  001e2	89 4b 08	 mov	 DWORD PTR [ebx+8], ecx

; 1192 : 		while (nNewCount--)

  001e5	85 c0		 test	 eax, eax
  001e7	0f 85 f3 fe ff
	ff		 jne	 $LL5@Serialize
$LN86@Serialize:
  001ed	5f		 pop	 edi

; 1197 : 		}
; 1198 : 	}
; 1199 : }

  001ee	5e		 pop	 esi
  001ef	5b		 pop	 ebx
  001f0	8b e5		 mov	 esp, ebp
  001f2	5d		 pop	 ebp
  001f3	c2 04 00	 ret	 4
$LN75@Serialize:
  001f6	6a 00		 push	 0
  001f8	6a 03		 push	 3
  001fa	e8 00 00 00 00	 call	 ?AfxThrowArchiveException@@YGXHPBD@Z ; AfxThrowArchiveException
$LN76@Serialize:
  001ff	e8 00 00 00 00	 call	 ?AfxThrowInvalidArgException@@YGXXZ ; AfxThrowInvalidArgException
$LN105@Serialize:
  00204	cc		 int	 3
?Serialize@?$CList@PAVCDrawingSymbol@@PAV1@@@UAEXAAVCArchive@@@Z ENDP ; CList<CDrawingSymbol *,CDrawingSymbol *>::Serialize
_TEXT	ENDS
; Function compile flags: /Ogtp
; File C:\Program Files (x86)\Microsoft Visual Studio\2019\Community\VC\Tools\MSVC\14.29.30133\atlmfc\include\afxtempl.h
;	COMDAT ??1?$CList@PAVCDrawingSymbol@@PAV1@@@UAE@XZ
_TEXT	SEGMENT
__$EHRec$ = -12						; size = 12
??1?$CList@PAVCDrawingSymbol@@PAV1@@@UAE@XZ PROC	; CList<CDrawingSymbol *,CDrawingSymbol *>::~CList<CDrawingSymbol *,CDrawingSymbol *>, COMDAT
; _this$ = ecx

; 878  : {

  00000	55		 push	 ebp
  00001	8b ec		 mov	 ebp, esp
  00003	6a ff		 push	 -1
  00005	68 00 00 00 00	 push	 __ehhandler$??1?$CList@PAVCDrawingSymbol@@PAV1@@@UAE@XZ
  0000a	64 a1 00 00 00
	00		 mov	 eax, DWORD PTR fs:0
  00010	50		 push	 eax
  00011	56		 push	 esi
  00012	a1 00 00 00 00	 mov	 eax, DWORD PTR ___security_cookie
  00017	33 c5		 xor	 eax, ebp
  00019	50		 push	 eax
  0001a	8d 45 f4	 lea	 eax, DWORD PTR __$EHRec$[ebp]
  0001d	64 a3 00 00 00
	00		 mov	 DWORD PTR fs:0, eax
  00023	8b f1		 mov	 esi, ecx

; 872  : 	m_pBlocks->FreeDataChain();

  00025	8b 4e 14	 mov	 ecx, DWORD PTR [esi+20]

; 878  : {

  00028	c7 06 00 00 00
	00		 mov	 DWORD PTR [esi], OFFSET ??_7?$CList@PAVCDrawingSymbol@@PAV1@@@6B@

; 870  : 	m_nCount = 0;

  0002e	c7 46 0c 00 00
	00 00		 mov	 DWORD PTR [esi+12], 0

; 871  : 	m_pNodeHead = m_pNodeTail = m_pNodeFree = NULL;

  00035	c7 46 10 00 00
	00 00		 mov	 DWORD PTR [esi+16], 0
  0003c	c7 46 08 00 00
	00 00		 mov	 DWORD PTR [esi+8], 0
  00043	c7 46 04 00 00
	00 00		 mov	 DWORD PTR [esi+4], 0

; 872  : 	m_pBlocks->FreeDataChain();

  0004a	e8 00 00 00 00	 call	 ?FreeDataChain@CPlex@@QAEXXZ ; CPlex::FreeDataChain

; 873  : 	m_pBlocks = NULL;

  0004f	c7 46 14 00 00
	00 00		 mov	 DWORD PTR [esi+20], 0

; 879  : 	RemoveAll();
; 880  : 	ASSERT(m_nCount == 0);
; 881  : }

  00056	8b 4d f4	 mov	 ecx, DWORD PTR __$EHRec$[ebp]
  00059	64 89 0d 00 00
	00 00		 mov	 DWORD PTR fs:0, ecx
  00060	59		 pop	 ecx
  00061	5e		 pop	 esi
  00062	8b e5		 mov	 esp, ebp
  00064	5d		 pop	 ebp
  00065	c3		 ret	 0
  00066	cc		 int	 3
  00067	cc		 int	 3
  00068	cc		 int	 3
  00069	cc		 int	 3
  0006a	cc		 int	 3
_TEXT	ENDS
;	COMDAT text$x
text$x	SEGMENT
__ehhandler$??1?$CList@PAVCDrawingSymbol@@PAV1@@@UAE@XZ:
  00000	90		 npad	 1
  00001	90		 npad	 1
  00002	8b 54 24 08	 mov	 edx, DWORD PTR [esp+8]
  00006	8d 42 0c	 lea	 eax, DWORD PTR [edx+12]
  00009	8b 4a f8	 mov	 ecx, DWORD PTR [edx-8]
  0000c	33 c8		 xor	 ecx, eax
  0000e	e8 00 00 00 00	 call	 @__security_check_cookie@4
  00013	b8 00 00 00 00	 mov	 eax, OFFSET __ehfuncinfo$??1?$CList@PAVCDrawingSymbol@@PAV1@@@UAE@XZ
  00018	e9 00 00 00 00	 jmp	 ___CxxFrameHandler3
text$x	ENDS
??1?$CList@PAVCDrawingSymbol@@PAV1@@@UAE@XZ ENDP	; CList<CDrawingSymbol *,CDrawingSymbol *>::~CList<CDrawingSymbol *,CDrawingSymbol *>
; Function compile flags: /Ogtp
; File C:\Program Files (x86)\Microsoft Visual Studio\2019\Community\VC\Tools\MSVC\14.29.30133\atlmfc\include\afxtempl.h
;	COMDAT ?NewNode@?$CList@PAVCDrawingSymbol@@PAV1@@@IAEPAUCNode@1@PAU21@0@Z
_TEXT	SEGMENT
_pPrev$ = 8						; size = 4
_pNext$ = 12						; size = 4
?NewNode@?$CList@PAVCDrawingSymbol@@PAV1@@@IAEPAUCNode@1@PAU21@0@Z PROC ; CList<CDrawingSymbol *,CDrawingSymbol *>::NewNode, COMDAT
; _this$ = ecx

; 901  : {

  00000	55		 push	 ebp
  00001	8b ec		 mov	 ebp, esp
  00003	56		 push	 esi
  00004	8b f1		 mov	 esi, ecx

; 902  : 	if (m_pNodeFree == NULL)

  00006	83 7e 10 00	 cmp	 DWORD PTR [esi+16], 0
  0000a	75 34		 jne	 SHORT $LN7@NewNode

; 903  : 	{
; 904  : 		// add another block
; 905  : 		CPlex* pNewBlock = CPlex::Create(m_pBlocks, m_nBlockSize,

  0000c	6a 0c		 push	 12			; 0000000cH
  0000e	ff 76 18	 push	 DWORD PTR [esi+24]
  00011	8d 46 14	 lea	 eax, DWORD PTR [esi+20]
  00014	50		 push	 eax
  00015	e8 00 00 00 00	 call	 ?Create@CPlex@@SGPAU1@AAPAU1@II@Z ; CPlex::Create

; 906  : 				 sizeof(CNode));
; 907  : 
; 908  : 		// chain them into free list
; 909  : 		CNode* pNode = (CNode*) pNewBlock->data();
; 910  : 		// free in reverse order to make it easier to debug
; 911  : 		pNode += m_nBlockSize - 1;

  0001a	8b 56 18	 mov	 edx, DWORD PTR [esi+24]
  0001d	83 c0 08	 add	 eax, 8
  00020	8d 0c 52	 lea	 ecx, DWORD PTR [edx+edx*2]
  00023	8d 04 88	 lea	 eax, DWORD PTR [eax+ecx*4]
  00026	83 c0 f4	 add	 eax, -12		; fffffff4H

; 912  : 		for (INT_PTR i = m_nBlockSize-1; i >= 0; i--, pNode--)

  00029	83 c2 ff	 add	 edx, -1
  0002c	78 12		 js	 SHORT $LN7@NewNode
  0002e	66 90		 npad	 2
$LL4@NewNode:

; 913  : 		{
; 914  : 			pNode->pNext = m_pNodeFree;

  00030	8b 4e 10	 mov	 ecx, DWORD PTR [esi+16]
  00033	89 08		 mov	 DWORD PTR [eax], ecx

; 915  : 			m_pNodeFree = pNode;

  00035	89 46 10	 mov	 DWORD PTR [esi+16], eax
  00038	83 e8 0c	 sub	 eax, 12			; 0000000cH
  0003b	83 ea 01	 sub	 edx, 1
  0003e	79 f0		 jns	 SHORT $LL4@NewNode
$LN7@NewNode:

; 916  : 		}
; 917  : 	}
; 918  : 	ENSURE(m_pNodeFree != NULL);  // we must have something

  00040	8b 46 10	 mov	 eax, DWORD PTR [esi+16]
  00043	85 c0		 test	 eax, eax
  00045	74 18		 je	 SHORT $LN17@NewNode

; 919  : 
; 920  : 	CList::CNode* pNode = m_pNodeFree;
; 921  : 	m_pNodeFree = m_pNodeFree->pNext;

  00047	8b 08		 mov	 ecx, DWORD PTR [eax]
  00049	89 4e 10	 mov	 DWORD PTR [esi+16], ecx

; 922  : 	pNode->pPrev = pPrev;

  0004c	8b 4d 08	 mov	 ecx, DWORD PTR _pPrev$[ebp]
  0004f	89 48 04	 mov	 DWORD PTR [eax+4], ecx

; 923  : 	pNode->pNext = pNext;

  00052	8b 4d 0c	 mov	 ecx, DWORD PTR _pNext$[ebp]
  00055	89 08		 mov	 DWORD PTR [eax], ecx

; 924  : 	m_nCount++;

  00057	ff 46 0c	 inc	 DWORD PTR [esi+12]

; 925  : 	ASSERT(m_nCount > 0);  // make sure we don't overflow
; 926  : 
; 927  : #pragma push_macro("new")
; 928  : #undef new
; 929  : 	::new( (void*)( &pNode->data ) ) TYPE;
; 930  : #pragma pop_macro("new")
; 931  : 	return pNode;

  0005a	5e		 pop	 esi

; 932  : }

  0005b	5d		 pop	 ebp
  0005c	c2 08 00	 ret	 8
$LN17@NewNode:

; 916  : 		}
; 917  : 	}
; 918  : 	ENSURE(m_pNodeFree != NULL);  // we must have something

  0005f	e8 00 00 00 00	 call	 ?AfxThrowInvalidArgException@@YGXXZ ; AfxThrowInvalidArgException
$LN15@NewNode:
  00064	cc		 int	 3
?NewNode@?$CList@PAVCDrawingSymbol@@PAV1@@@IAEPAUCNode@1@PAU21@0@Z ENDP ; CList<CDrawingSymbol *,CDrawingSymbol *>::NewNode
_TEXT	ENDS
; Function compile flags: /Ogtp
; File C:\Program Files (x86)\Microsoft Visual Studio\2019\Community\VC\Tools\MSVC\14.29.30133\atlmfc\include\afxtempl.h
;	COMDAT ?RemoveAll@?$CList@PAVCDrawingSymbol@@PAV1@@@QAEXXZ
_TEXT	SEGMENT
?RemoveAll@?$CList@PAVCDrawingSymbol@@PAV1@@@QAEXXZ PROC ; CList<CDrawingSymbol *,CDrawingSymbol *>::RemoveAll, COMDAT
; _this$ = ecx

; 862  : {

  00000	56		 push	 esi
  00001	8b f1		 mov	 esi, ecx

; 863  : 	ASSERT_VALID(this);
; 864  : 
; 865  : 	// destroy elements
; 866  : 	CNode* pNode;
; 867  : 	for (pNode = m_pNodeHead; pNode != NULL; pNode = pNode->pNext)
; 868  : 		pNode->data.~TYPE();
; 869  : 
; 870  : 	m_nCount = 0;
; 871  : 	m_pNodeHead = m_pNodeTail = m_pNodeFree = NULL;
; 872  : 	m_pBlocks->FreeDataChain();

  00003	8b 4e 14	 mov	 ecx, DWORD PTR [esi+20]
  00006	c7 46 0c 00 00
	00 00		 mov	 DWORD PTR [esi+12], 0
  0000d	c7 46 10 00 00
	00 00		 mov	 DWORD PTR [esi+16], 0
  00014	c7 46 08 00 00
	00 00		 mov	 DWORD PTR [esi+8], 0
  0001b	c7 46 04 00 00
	00 00		 mov	 DWORD PTR [esi+4], 0
  00022	e8 00 00 00 00	 call	 ?FreeDataChain@CPlex@@QAEXXZ ; CPlex::FreeDataChain

; 873  : 	m_pBlocks = NULL;

  00027	c7 46 14 00 00
	00 00		 mov	 DWORD PTR [esi+20], 0
  0002e	5e		 pop	 esi

; 874  : }

  0002f	c3		 ret	 0
?RemoveAll@?$CList@PAVCDrawingSymbol@@PAV1@@@QAEXXZ ENDP ; CList<CDrawingSymbol *,CDrawingSymbol *>::RemoveAll
_TEXT	ENDS
; Function compile flags: /Ogtp
; File C:\Program Files (x86)\Microsoft Visual Studio\2019\Community\VC\Tools\MSVC\14.29.30133\atlmfc\include\afxtempl.h
;	COMDAT ?AddTail@?$CList@PAVCDrawingSymbol@@PAV1@@@QAEPAU__POSITION@@PAVCDrawingSymbol@@@Z
_TEXT	SEGMENT
_newElement$ = 8					; size = 4
?AddTail@?$CList@PAVCDrawingSymbol@@PAV1@@@QAEPAU__POSITION@@PAVCDrawingSymbol@@@Z PROC ; CList<CDrawingSymbol *,CDrawingSymbol *>::AddTail, COMDAT
; _this$ = ecx

; 965  : {

  00000	55		 push	 ebp
  00001	8b ec		 mov	 ebp, esp
  00003	56		 push	 esi
  00004	8b f1		 mov	 esi, ecx
  00006	57		 push	 edi

; 902  : 	if (m_pNodeFree == NULL)

  00007	83 7e 10 00	 cmp	 DWORD PTR [esi+16], 0

; 966  : 	ASSERT_VALID(this);
; 967  : 
; 968  : 	CNode* pNewNode = NewNode(m_pNodeTail, NULL);

  0000b	8b 7e 08	 mov	 edi, DWORD PTR [esi+8]

; 902  : 	if (m_pNodeFree == NULL)

  0000e	75 32		 jne	 SHORT $LN11@AddTail

; 903  : 	{
; 904  : 		// add another block
; 905  : 		CPlex* pNewBlock = CPlex::Create(m_pBlocks, m_nBlockSize,

  00010	6a 0c		 push	 12			; 0000000cH
  00012	ff 76 18	 push	 DWORD PTR [esi+24]
  00015	8d 46 14	 lea	 eax, DWORD PTR [esi+20]
  00018	50		 push	 eax
  00019	e8 00 00 00 00	 call	 ?Create@CPlex@@SGPAU1@AAPAU1@II@Z ; CPlex::Create

; 906  : 				 sizeof(CNode));
; 907  : 
; 908  : 		// chain them into free list
; 909  : 		CNode* pNode = (CNode*) pNewBlock->data();
; 910  : 		// free in reverse order to make it easier to debug
; 911  : 		pNode += m_nBlockSize - 1;

  0001e	8b 56 18	 mov	 edx, DWORD PTR [esi+24]
  00021	83 c0 08	 add	 eax, 8
  00024	8d 4a ff	 lea	 ecx, DWORD PTR [edx-1]

; 912  : 		for (INT_PTR i = m_nBlockSize-1; i >= 0; i--, pNode--)

  00027	83 c2 ff	 add	 edx, -1
  0002a	8d 0c 49	 lea	 ecx, DWORD PTR [ecx+ecx*2]
  0002d	8d 0c 88	 lea	 ecx, DWORD PTR [eax+ecx*4]
  00030	78 10		 js	 SHORT $LN11@AddTail
$LL8@AddTail:

; 913  : 		{
; 914  : 			pNode->pNext = m_pNodeFree;

  00032	8b 46 10	 mov	 eax, DWORD PTR [esi+16]
  00035	89 01		 mov	 DWORD PTR [ecx], eax

; 915  : 			m_pNodeFree = pNode;

  00037	89 4e 10	 mov	 DWORD PTR [esi+16], ecx
  0003a	83 e9 0c	 sub	 ecx, 12			; 0000000cH
  0003d	83 ea 01	 sub	 edx, 1
  00040	79 f0		 jns	 SHORT $LL8@AddTail
$LN11@AddTail:

; 916  : 		}
; 917  : 	}
; 918  : 	ENSURE(m_pNodeFree != NULL);  // we must have something

  00042	8b 4e 10	 mov	 ecx, DWORD PTR [esi+16]
  00045	85 c9		 test	 ecx, ecx
  00047	74 39		 je	 SHORT $LN22@AddTail

; 919  : 
; 920  : 	CList::CNode* pNode = m_pNodeFree;
; 921  : 	m_pNodeFree = m_pNodeFree->pNext;

  00049	8b 01		 mov	 eax, DWORD PTR [ecx]
  0004b	89 46 10	 mov	 DWORD PTR [esi+16], eax

; 969  : 	pNewNode->data = newElement;

  0004e	8b 45 08	 mov	 eax, DWORD PTR _newElement$[ebp]

; 922  : 	pNode->pPrev = pPrev;

  00051	89 79 04	 mov	 DWORD PTR [ecx+4], edi

; 923  : 	pNode->pNext = pNext;

  00054	c7 01 00 00 00
	00		 mov	 DWORD PTR [ecx], 0

; 924  : 	m_nCount++;

  0005a	ff 46 0c	 inc	 DWORD PTR [esi+12]

; 969  : 	pNewNode->data = newElement;

  0005d	89 41 08	 mov	 DWORD PTR [ecx+8], eax

; 970  : 	if (m_pNodeTail != NULL)

  00060	8b 46 08	 mov	 eax, DWORD PTR [esi+8]
  00063	85 c0		 test	 eax, eax
  00065	74 0d		 je	 SHORT $LN2@AddTail

; 971  : 		m_pNodeTail->pNext = pNewNode;

  00067	89 08		 mov	 DWORD PTR [eax], ecx

; 972  : 	else
; 973  : 		m_pNodeHead = pNewNode;
; 974  : 	m_pNodeTail = pNewNode;
; 975  : 	return (POSITION) pNewNode;

  00069	8b c1		 mov	 eax, ecx
  0006b	5f		 pop	 edi
  0006c	89 4e 08	 mov	 DWORD PTR [esi+8], ecx
  0006f	5e		 pop	 esi

; 976  : }

  00070	5d		 pop	 ebp
  00071	c2 04 00	 ret	 4
$LN2@AddTail:

; 972  : 	else
; 973  : 		m_pNodeHead = pNewNode;
; 974  : 	m_pNodeTail = pNewNode;
; 975  : 	return (POSITION) pNewNode;

  00074	5f		 pop	 edi
  00075	89 4e 04	 mov	 DWORD PTR [esi+4], ecx
  00078	8b c1		 mov	 eax, ecx
  0007a	89 4e 08	 mov	 DWORD PTR [esi+8], ecx
  0007d	5e		 pop	 esi

; 976  : }

  0007e	5d		 pop	 ebp
  0007f	c2 04 00	 ret	 4
$LN22@AddTail:

; 918  : 	ENSURE(m_pNodeFree != NULL);  // we must have something

  00082	e8 00 00 00 00	 call	 ?AfxThrowInvalidArgException@@YGXXZ ; AfxThrowInvalidArgException
$LN20@AddTail:
  00087	cc		 int	 3
?AddTail@?$CList@PAVCDrawingSymbol@@PAV1@@@QAEPAU__POSITION@@PAVCDrawingSymbol@@@Z ENDP ; CList<CDrawingSymbol *,CDrawingSymbol *>::AddTail
_TEXT	ENDS
; Function compile flags: /Ogtp
; File C:\Program Files (x86)\Microsoft Visual Studio\2019\Community\VC\Tools\MSVC\14.29.30133\atlmfc\include\afxtempl.h
;	COMDAT ??0?$CList@PAVCDrawingSymbol@@PAV1@@@QAE@H@Z
_TEXT	SEGMENT
_nBlockSize$ = 8					; size = 4
??0?$CList@PAVCDrawingSymbol@@PAV1@@@QAE@H@Z PROC	; CList<CDrawingSymbol *,CDrawingSymbol *>::CList<CDrawingSymbol *,CDrawingSymbol *>, COMDAT
; _this$ = ecx

; 851  : {

  00000	55		 push	 ebp
  00001	8b ec		 mov	 ebp, esp

; 852  : 	ASSERT(nBlockSize > 0);
; 853  : 
; 854  : 	m_nCount = 0;
; 855  : 	m_pNodeHead = m_pNodeTail = m_pNodeFree = NULL;
; 856  : 	m_pBlocks = NULL;
; 857  : 	m_nBlockSize = nBlockSize;

  00003	8b 45 08	 mov	 eax, DWORD PTR _nBlockSize$[ebp]
  00006	89 41 18	 mov	 DWORD PTR [ecx+24], eax

; 858  : }

  00009	8b c1		 mov	 eax, ecx
  0000b	c7 01 00 00 00
	00		 mov	 DWORD PTR [ecx], OFFSET ??_7?$CList@PAVCDrawingSymbol@@PAV1@@@6B@
  00011	c7 41 0c 00 00
	00 00		 mov	 DWORD PTR [ecx+12], 0
  00018	c7 41 10 00 00
	00 00		 mov	 DWORD PTR [ecx+16], 0
  0001f	c7 41 08 00 00
	00 00		 mov	 DWORD PTR [ecx+8], 0
  00026	c7 41 04 00 00
	00 00		 mov	 DWORD PTR [ecx+4], 0
  0002d	c7 41 14 00 00
	00 00		 mov	 DWORD PTR [ecx+20], 0
  00034	5d		 pop	 ebp
  00035	c2 04 00	 ret	 4
??0?$CList@PAVCDrawingSymbol@@PAV1@@@QAE@H@Z ENDP	; CList<CDrawingSymbol *,CDrawingSymbol *>::CList<CDrawingSymbol *,CDrawingSymbol *>
_TEXT	ENDS
; Function compile flags: /Ogtp
; File C:\Program Files (x86)\Microsoft Visual Studio\2019\Community\VC\Tools\MSVC\14.29.30133\atlmfc\include\afx.inl
;	COMDAT ?Dump@CObject@@UBEXAAVCDumpContext@@@Z
_TEXT	SEGMENT
___formal$ = 8						; size = 4
?Dump@CObject@@UBEXAAVCDumpContext@@@Z PROC		; CObject::Dump, COMDAT
; _this$ = ecx

; 122  : 	{ /* no dumping in release builds */ }

  00000	c2 04 00	 ret	 4
?Dump@CObject@@UBEXAAVCDumpContext@@@Z ENDP		; CObject::Dump
_TEXT	ENDS
; Function compile flags: /Ogtp
; File C:\Program Files (x86)\Microsoft Visual Studio\2019\Community\VC\Tools\MSVC\14.29.30133\atlmfc\include\afx.inl
;	COMDAT ?AssertValid@CObject@@UBEXXZ
_TEXT	SEGMENT
?AssertValid@CObject@@UBEXXZ PROC			; CObject::AssertValid, COMDAT
; _this$ = ecx

; 120  : 	{ /* no asserts in release builds */ }

  00000	c2 00 00	 ret	 0
?AssertValid@CObject@@UBEXXZ ENDP			; CObject::AssertValid
_TEXT	ENDS
; Function compile flags: /Ogtp
; File C:\Program Files (x86)\Microsoft Visual Studio\2019\Community\VC\Tools\MSVC\14.29.30133\atlmfc\include\afx.inl
;	COMDAT ?Serialize@CObject@@UAEXAAVCArchive@@@Z
_TEXT	SEGMENT
___formal$ = 8						; size = 4
?Serialize@CObject@@UAEXAAVCArchive@@@Z PROC		; CObject::Serialize, COMDAT
; _this$ = ecx

; 106  : 	{ /* CObject does not serialize anything by default */ }

  00000	c2 04 00	 ret	 4
?Serialize@CObject@@UAEXAAVCArchive@@@Z ENDP		; CObject::Serialize
_TEXT	ENDS
; Function compile flags: /Ogtp
; File C:\Program Files (x86)\Microsoft Visual Studio\2019\Community\VC\Tools\MSVC\14.29.30133\atlmfc\include\afx.inl
;	COMDAT ??1CObject@@UAE@XZ
_TEXT	SEGMENT
??1CObject@@UAE@XZ PROC					; CObject::~CObject, COMDAT
; _this$ = ecx

; 104  : 	{ }

  00000	c2 00 00	 ret	 0
??1CObject@@UAE@XZ ENDP					; CObject::~CObject
_TEXT	ENDS
; Function compile flags: /Ogtp
; File D:\git\src\IBK\IBK_DRFN\ProjSrc\SrcChartEx\ChartAddIn\ChartAnalysisToolAddIn\Symbol\ElementTree.cpp
;	COMDAT ?__empty_global_delete@@YAXPAXI@Z
_TEXT	SEGMENT
___formal$ = 8						; size = 4
___formal$ = 12						; size = 4
?__empty_global_delete@@YAXPAXI@Z PROC			; __empty_global_delete, COMDAT

  00000	c2 00 00	 ret	 0
?__empty_global_delete@@YAXPAXI@Z ENDP			; __empty_global_delete
_TEXT	ENDS
; Function compile flags: /Ogtp
; File D:\git\src\IBK\IBK_DRFN\ProjSrc\SrcChartEx\ChartAddIn\ChartAnalysisToolAddIn\Symbol\ElementTree.cpp
;	COMDAT ?__empty_global_delete@@YAXPAX@Z
_TEXT	SEGMENT
___formal$ = 8						; size = 4
?__empty_global_delete@@YAXPAX@Z PROC			; __empty_global_delete, COMDAT

  00000	c2 00 00	 ret	 0
?__empty_global_delete@@YAXPAX@Z ENDP			; __empty_global_delete
_TEXT	ENDS
END
