; Listing generated by Microsoft (R) Optimizing Compiler Version 19.29.30145.0 

	TITLE	D:\git\src\IBK\IBK_DRFN\#DRfn-CS\_Obj\Symbol\ElementSaverBuilder.obj
	.686P
	.XMM
	include listing.inc
	.model	flat

INCLUDELIB MSVCRT
INCLUDELIB OLDNAMES

PUBLIC	?__empty_global_delete@@YAXPAX@Z		; __empty_global_delete
PUBLIC	?__empty_global_delete@@YAXPAXI@Z		; __empty_global_delete
PUBLIC	??1CObject@@UAE@XZ				; CObject::~CObject
PUBLIC	?Serialize@CObject@@UAEXAAVCArchive@@@Z		; CObject::Serialize
PUBLIC	?AssertValid@CObject@@UBEXXZ			; CObject::AssertValid
PUBLIC	?Dump@CObject@@UBEXAAVCDumpContext@@@Z		; CObject::Dump
PUBLIC	?AtlThrowImpl@ATL@@YGXJ@Z			; ATL::AtlThrowImpl
PUBLIC	??HATL@@YA?AV?$CStringT@DV?$StrTraitMFC_DLL@DV?$ChTraitsCRT@D@ATL@@@@@0@ABV10@0@Z ; ATL::operator+
PUBLIC	??0?$CList@PAVCOrderAndElement@@PAV1@@@QAE@H@Z	; CList<COrderAndElement *,COrderAndElement *>::CList<COrderAndElement *,COrderAndElement *>
PUBLIC	?AddTail@?$CList@PAVCOrderAndElement@@PAV1@@@QAEPAU__POSITION@@PAVCOrderAndElement@@@Z ; CList<COrderAndElement *,COrderAndElement *>::AddTail
PUBLIC	?RemoveAll@?$CList@PAVCOrderAndElement@@PAV1@@@QAEXXZ ; CList<COrderAndElement *,COrderAndElement *>::RemoveAll
PUBLIC	?NewNode@?$CList@PAVCOrderAndElement@@PAV1@@@IAEPAUCNode@1@PAU21@0@Z ; CList<COrderAndElement *,COrderAndElement *>::NewNode
PUBLIC	??1?$CList@PAVCOrderAndElement@@PAV1@@@UAE@XZ	; CList<COrderAndElement *,COrderAndElement *>::~CList<COrderAndElement *,COrderAndElement *>
PUBLIC	?Serialize@?$CList@PAVCOrderAndElement@@PAV1@@@UAEXAAVCArchive@@@Z ; CList<COrderAndElement *,COrderAndElement *>::Serialize
PUBLIC	??_G?$CList@PAVCOrderAndElement@@PAV1@@@UAEPAXI@Z ; CList<COrderAndElement *,COrderAndElement *>::`scalar deleting destructor'
PUBLIC	??_GCOrderSet@@UAEPAXI@Z			; COrderSet::`scalar deleting destructor'
PUBLIC	?GetSavedSymbolsData@CElementSaverBuilder@@QAE?AV?$CStringT@DV?$StrTraitMFC_DLL@DV?$ChTraitsCRT@D@ATL@@@@@ATL@@ABVCOrder@@PAV?$CList@PAVCDrawingSymbol@@PAV1@@@@Z ; CElementSaverBuilder::GetSavedSymbolsData
PUBLIC	?BuildSymbolsFromString@CElementSaverBuilder@@QAEXW4HORZSCALEDRAWERTYPE@CScaleBaseData@@ABV?$CStringT@DV?$StrTraitMFC_DLL@DV?$ChTraitsCRT@D@ATL@@@@@ATL@@AAVCTree@@AAVCOrder@@@Z ; CElementSaverBuilder::BuildSymbolsFromString
PUBLIC	?GetSavedSymbolData_ForUndoRedo@CElementSaverBuilder@@QAE?AV?$CStringT@DV?$StrTraitMFC_DLL@DV?$ChTraitsCRT@D@ATL@@@@@ATL@@ABVCOrder@@PAVCDrawingSymbol@@@Z ; CElementSaverBuilder::GetSavedSymbolData_ForUndoRedo
PUBLIC	?BuildSymbolsFromString_ForUndoRedo@CElementSaverBuilder@@QAEJAAVCSymbolData@@ABVCBlockIndex@@AAV?$CStringT@DV?$StrTraitMFC_DLL@DV?$ChTraitsCRT@D@ATL@@@@@ATL@@AAVCTree@@AAVCOrder@@@Z ; CElementSaverBuilder::BuildSymbolsFromString_ForUndoRedo
PUBLIC	?AddElement_ForUndoRedo@CElementSaverBuilder@@QAEXABVCOrderSet@@AAVCOrder@@@Z ; CElementSaverBuilder::AddElement_ForUndoRedo
PUBLIC	?AddElement@CElementSaverBuilder@@AAEXABVCOrderSet@@AAVCOrder@@@Z ; CElementSaverBuilder::AddElement
PUBLIC	?BuildSymbolsFromString_Row@CElementSaverBuilder@@AAEXW4HORZSCALEDRAWERTYPE@CScaleBaseData@@ABV?$CStringT@DV?$StrTraitMFC_DLL@DV?$ChTraitsCRT@D@ATL@@@@@ATL@@HHAAVCTree@@AAVCOrderSet@@@Z ; CElementSaverBuilder::BuildSymbolsFromString_Row
PUBLIC	?BuildSymbolsFromString_Column@CElementSaverBuilder@@AAEXW4HORZSCALEDRAWERTYPE@CScaleBaseData@@ABV?$CStringT@DV?$StrTraitMFC_DLL@DV?$ChTraitsCRT@D@ATL@@@@@ATL@@HAAVCTree@@AAVCOrderSet@@@Z ; CElementSaverBuilder::BuildSymbolsFromString_Column
PUBLIC	?BuildSymbolsFromString_Symbol@CElementSaverBuilder@@AAEXW4HORZSCALEDRAWERTYPE@CScaleBaseData@@ABV?$CStringT@DV?$StrTraitMFC_DLL@DV?$ChTraitsCRT@D@ATL@@@@@ATL@@HHAAVCTree@@AAVCOrderSet@@@Z ; CElementSaverBuilder::BuildSymbolsFromString_Symbol
PUBLIC	?MakeElement@CElementSaverBuilder@@AAEPAVCDrawingSymbol@@W4HORZSCALEDRAWERTYPE@CScaleBaseData@@ABV?$CStringT@DV?$StrTraitMFC_DLL@DV?$ChTraitsCRT@D@ATL@@@@@ATL@@@Z ; CElementSaverBuilder::MakeElement
PUBLIC	?GetIndexString@CElementSaverBuilder@@ABE?AV?$CStringT@DV?$StrTraitMFC_DLL@DV?$ChTraitsCRT@D@ATL@@@@@ATL@@PBVCDrawingSymbol@@ABVCOrder@@@Z ; CElementSaverBuilder::GetIndexString
PUBLIC	?MakeLOGFONTFromString@CElementSaverBuilder@@AAE?AUtagLOGFONTA@@ABV?$CStringT@DV?$StrTraitMFC_DLL@DV?$ChTraitsCRT@D@ATL@@@@@ATL@@@Z ; CElementSaverBuilder::MakeLOGFONTFromString
PUBLIC	?MakeStringFromLOGFONT@CElementSaverBuilder@@AAE?AV?$CStringT@DV?$StrTraitMFC_DLL@DV?$ChTraitsCRT@D@ATL@@@@@ATL@@ABUtagLOGFONTA@@@Z ; CElementSaverBuilder::MakeStringFromLOGFONT
PUBLIC	?MakeDateTime@CElementSaverBuilder@@AAE_JW4HORZSCALEDRAWERTYPE@CScaleBaseData@@V?$CStringT@DV?$StrTraitMFC_DLL@DV?$ChTraitsCRT@D@ATL@@@@@ATL@@@Z ; CElementSaverBuilder::MakeDateTime
PUBLIC	??$SerializeElements@PAVCOrderAndElement@@@@YGXAAVCArchive@@PAPAVCOrderAndElement@@H@Z ; SerializeElements<COrderAndElement *>
PUBLIC	??_C@_00CNPNBAHC@@				; `string'
PUBLIC	??_R0?AVCObject@@@8				; CObject `RTTI Type Descriptor'
PUBLIC	??_R3CObject@@8					; CObject::`RTTI Class Hierarchy Descriptor'
PUBLIC	??_R2CObject@@8					; CObject::`RTTI Base Class Array'
PUBLIC	??_R1A@?0A@EA@CObject@@8			; CObject::`RTTI Base Class Descriptor at (0,-1,0,64)'
PUBLIC	??_7?$CList@PAVCOrderAndElement@@PAV1@@@6B@	; CList<COrderAndElement *,COrderAndElement *>::`vftable'
PUBLIC	??_7COrderSet@@6B@				; COrderSet::`vftable'
PUBLIC	??_C@_01ICJEACDI@?$DL@				; `string'
PUBLIC	??_C@_03LKGCEJK@?$DL?$AN?6@			; `string'
PUBLIC	??_C@_0N@CKIGEMFE@SymbolEnd?$DL?$AN?6@		; `string'
PUBLIC	??_C@_01IHBHIGKO@?0@				; `string'
PUBLIC	??_C@_0M@HGNACAL@IndexEnd?$DL?$AN?6@		; `string'
PUBLIC	??_C@_0BC@DENBEKI@BlockColumnEnd?$DL?$AN?6@	; `string'
PUBLIC	??_C@_0M@FHFNKLHB@BlockEnd?$DL?$AN?6@		; `string'
PUBLIC	??_C@_02PGHGPEOM@?91@				; `string'
PUBLIC	??_C@_02FFEBEEPL@?$CFY@				; `string'
PUBLIC	??_C@_02OOGLLHAM@?$CFm@				; `string'
PUBLIC	??_C@_04GICMHJFP@?$CFY?$CFm@			; `string'
PUBLIC	??_C@_06CLONMKIH@?$CFY?$CFm?$CFd@		; `string'
PUBLIC	??_C@_0N@BNMNAMM@?$CFY?$CFm?$CFd?$CFH?$CFM?$CFS@ ; `string'
PUBLIC	??_C@_08DKDJLCMP@YYYYMMDD@			; `string'
PUBLIC	??_C@_06GEKNBBDK@000000@			; `string'
PUBLIC	??_C@_08HIJOEJNL@01000000@			; `string'
PUBLIC	??_C@_04OGKJMPGK@?$CF02d@			; `string'
PUBLIC	??_C@_04OCCELDNI@?$CF04d@			; `string'
PUBLIC	??_C@_02PLJDPFIO@00@				; `string'
PUBLIC	??_C@_08CHLAEBHP@?$CF02d?$CF02d@		; `string'
PUBLIC	??_R4COrderSet@@6B@				; COrderSet::`RTTI Complete Object Locator'
PUBLIC	??_R0?AVCOrderSet@@@8				; COrderSet `RTTI Type Descriptor'
PUBLIC	??_R3COrderSet@@8				; COrderSet::`RTTI Class Hierarchy Descriptor'
PUBLIC	??_R2COrderSet@@8				; COrderSet::`RTTI Base Class Array'
PUBLIC	??_R1A@?0A@EA@COrderSet@@8			; COrderSet::`RTTI Base Class Descriptor at (0,-1,0,64)'
PUBLIC	??_R4?$CList@PAVCOrderAndElement@@PAV1@@@6B@	; CList<COrderAndElement *,COrderAndElement *>::`RTTI Complete Object Locator'
PUBLIC	??_R0?AV?$CList@PAVCOrderAndElement@@PAV1@@@@8	; CList<COrderAndElement *,COrderAndElement *> `RTTI Type Descriptor'
PUBLIC	??_R3?$CList@PAVCOrderAndElement@@PAV1@@@8	; CList<COrderAndElement *,COrderAndElement *>::`RTTI Class Hierarchy Descriptor'
PUBLIC	??_R2?$CList@PAVCOrderAndElement@@PAV1@@@8	; CList<COrderAndElement *,COrderAndElement *>::`RTTI Base Class Array'
PUBLIC	??_R1A@?0A@EA@?$CList@PAVCOrderAndElement@@PAV1@@@8 ; CList<COrderAndElement *,COrderAndElement *>::`RTTI Base Class Descriptor at (0,-1,0,64)'
PUBLIC	__real@bff0000000000000
EXTRN	??3@YAXPAX@Z:PROC				; operator delete
EXTRN	??3@YAXPAXI@Z:PROC				; operator delete
EXTRN	?__global_delete@@YAXPAXI@Z:PROC		; __global_delete
EXTRN	___std_terminate:PROC
EXTRN	__imp__atof:PROC
EXTRN	__imp__atoi:PROC
EXTRN	__imp___atoi64:PROC
EXTRN	__imp___localtime64_s:PROC
EXTRN	__imp__strftime:PROC
EXTRN	__imp___time64:PROC
EXTRN	?AfxThrowMemoryException@@YGXXZ:PROC		; AfxThrowMemoryException
EXTRN	?AfxThrowInvalidArgException@@YGXXZ:PROC	; AfxThrowInvalidArgException
EXTRN	?AfxThrowArchiveException@@YGXHPBD@Z:PROC	; AfxThrowArchiveException
EXTRN	?AfxThrowOleException@@YGXJ@Z:PROC		; AfxThrowOleException
EXTRN	?GetRuntimeClass@CObject@@UBEPAUCRuntimeClass@@XZ:PROC ; CObject::GetRuntimeClass
EXTRN	__imp_?Concatenate@?$CSimpleStringT@D$00@ATL@@KAXAAV12@PBDH1H@Z:PROC
EXTRN	__imp_??0?$CStringT@DV?$StrTraitMFC_DLL@DV?$ChTraitsCRT@D@ATL@@@@@ATL@@QAE@XZ:PROC
EXTRN	__imp_??0?$CStringT@DV?$StrTraitMFC_DLL@DV?$ChTraitsCRT@D@ATL@@@@@ATL@@QAE@PAUIAtlStringMgr@1@@Z:PROC
EXTRN	__imp_??0?$CStringT@DV?$StrTraitMFC_DLL@DV?$ChTraitsCRT@D@ATL@@@@@ATL@@QAE@ABV01@@Z:PROC
EXTRN	__imp_??0?$CStringT@DV?$StrTraitMFC_DLL@DV?$ChTraitsCRT@D@ATL@@@@@ATL@@QAE@PBD@Z:PROC
EXTRN	__imp_??1?$CStringT@DV?$StrTraitMFC_DLL@DV?$ChTraitsCRT@D@ATL@@@@@ATL@@QAE@XZ:PROC
EXTRN	__imp_??4?$CStringT@DV?$StrTraitMFC_DLL@DV?$ChTraitsCRT@D@ATL@@@@@ATL@@QAEAAV01@ABV01@@Z:PROC
EXTRN	__imp_??Y?$CStringT@DV?$StrTraitMFC_DLL@DV?$ChTraitsCRT@D@ATL@@@@@ATL@@QAEAAV01@ABV?$CSimpleStringT@D$00@1@@Z:PROC
EXTRN	__imp_??Y?$CStringT@DV?$StrTraitMFC_DLL@DV?$ChTraitsCRT@D@ATL@@@@@ATL@@QAEAAV01@PBD@Z:PROC
EXTRN	__imp_?GetManager@?$CStringT@DV?$StrTraitMFC_DLL@DV?$ChTraitsCRT@D@ATL@@@@@ATL@@QBEPAUIAtlStringMgr@2@XZ:PROC
EXTRN	__imp_?Compare@?$CStringT@DV?$StrTraitMFC_DLL@DV?$ChTraitsCRT@D@ATL@@@@@ATL@@QBEHPBD@Z:PROC
EXTRN	__imp_?Mid@?$CStringT@DV?$StrTraitMFC_DLL@DV?$ChTraitsCRT@D@ATL@@@@@ATL@@QBE?AV12@HH@Z:PROC
EXTRN	__imp_?Right@?$CStringT@DV?$StrTraitMFC_DLL@DV?$ChTraitsCRT@D@ATL@@@@@ATL@@QBE?AV12@H@Z:PROC
EXTRN	__imp_?Left@?$CStringT@DV?$StrTraitMFC_DLL@DV?$ChTraitsCRT@D@ATL@@@@@ATL@@QBE?AV12@H@Z:PROC
EXTRN	__imp_?Format@?$CStringT@DV?$StrTraitMFC_DLL@DV?$ChTraitsCRT@D@ATL@@@@@ATL@@QAAXPBDZZ:PROC
EXTRN	?Read@CArchive@@QAEIPAXI@Z:PROC			; CArchive::Read
EXTRN	?Write@CArchive@@QAEXPBXI@Z:PROC		; CArchive::Write
EXTRN	?ReadCount@CArchive@@QAEKXZ:PROC		; CArchive::ReadCount
EXTRN	?WriteCount@CArchive@@QAEXK@Z:PROC		; CArchive::WriteCount
EXTRN	?Create@CPlex@@SGPAU1@AAPAU1@II@Z:PROC		; CPlex::Create
EXTRN	?FreeDataChain@CPlex@@QAEXXZ:PROC		; CPlex::FreeDataChain
EXTRN	??1COrderSet@@UAE@XZ:PROC			; COrderSet::~COrderSet
EXTRN	?Add@COrderSet@@QAEXHPAVCDrawingSymbol@@@Z:PROC	; COrderSet::Add
EXTRN	?GetElement@COrderSet@@QBEPAVCDrawingSymbol@@H@Z:PROC ; COrderSet::GetElement
EXTRN	?GetCount@COrderSet@@QBEHXZ:PROC		; COrderSet::GetCount
EXTRN	?GetHeadPosition@COrderSet@@QBEPAU__POSITION@@XZ:PROC ; COrderSet::GetHeadPosition
EXTRN	?GetNext@COrderSet@@QBEPAVCOrderAndElement@@AAPAU__POSITION@@@Z:PROC ; COrderSet::GetNext
EXTRN	??_E?$CList@PAVCOrderAndElement@@PAV1@@@UAEPAXI@Z:PROC ; CList<COrderAndElement *,COrderAndElement *>::`vector deleting destructor'
EXTRN	??_ECOrderSet@@UAEPAXI@Z:PROC			; COrderSet::`vector deleting destructor'
EXTRN	?Add@COrder@@QAEXPAVCDrawingSymbol@@@Z:PROC	; COrder::Add
EXTRN	?GetIndex@COrder@@QBEHPBVCDrawingSymbol@@@Z:PROC ; COrder::GetIndex
EXTRN	?Add@CTree@@QAEXHHPAVCDrawingSymbol@@@Z:PROC	; CTree::Add
EXTRN	?RGB2Str@CDataConversion@@SA?AV?$CStringT@DV?$StrTraitMFC_DLL@DV?$ChTraitsCRT@D@ATL@@@@@ATL@@K@Z:PROC ; CDataConversion::RGB2Str
EXTRN	?Str2RGB@CDataConversion@@SAKABV?$CStringT@DV?$StrTraitMFC_DLL@DV?$ChTraitsCRT@D@ATL@@@@@ATL@@@Z:PROC ; CDataConversion::Str2RGB
EXTRN	?Bool2Str@CDataConversion@@SA?AV?$CStringT@DV?$StrTraitMFC_DLL@DV?$ChTraitsCRT@D@ATL@@@@@ATL@@H@Z:PROC ; CDataConversion::Bool2Str
EXTRN	?IntToString@CDataConversion@@SA?AV?$CStringT@DV?$StrTraitMFC_DLL@DV?$ChTraitsCRT@D@ATL@@@@@ATL@@H@Z:PROC ; CDataConversion::IntToString
EXTRN	?DoubleToString@CDataConversion@@SA?AV?$CStringT@DV?$StrTraitMFC_DLL@DV?$ChTraitsCRT@D@ATL@@@@@ATL@@ABN@Z:PROC ; CDataConversion::DoubleToString
EXTRN	?GetStringData@CDataConversion@@SA?AV?$CStringT@DV?$StrTraitMFC_DLL@DV?$ChTraitsCRT@D@ATL@@@@@ATL@@AAV23@ABV23@_N@Z:PROC ; CDataConversion::GetStringData
EXTRN	?GetStringDataCount@CDataConversion@@SAHABV?$CStringT@DV?$StrTraitMFC_DLL@DV?$ChTraitsCRT@D@ATL@@@@@ATL@@0@Z:PROC ; CDataConversion::GetStringDataCount
EXTRN	??0CCoordinate@@QAE@ABN0H@Z:PROC		; CCoordinate::CCoordinate
EXTRN	?GetX@CCoordinate@@QBENXZ:PROC			; CCoordinate::GetX
EXTRN	?GetY@CCoordinate@@QBENXZ:PROC			; CCoordinate::GetY
EXTRN	?GetTimeDiff@CCoordinate@@QBEHXZ:PROC		; CCoordinate::GetTimeDiff
EXTRN	?GetLogFont@CDrawingSymbol@@QAE?AUtagLOGFONTA@@XZ:PROC ; CDrawingSymbol::GetLogFont
EXTRN	?GetTextColor@CDrawingSymbol@@QBEKXZ:PROC	; CDrawingSymbol::GetTextColor
EXTRN	?GetWeight@CDrawingSymbol@@QBEHXZ:PROC		; CDrawingSymbol::GetWeight
EXTRN	?GetColor@CDrawingSymbol@@QBEKXZ:PROC		; CDrawingSymbol::GetColor
EXTRN	?GetSizeType@CDrawingSymbol@@QBE?AW4SIZETYPE@CSymbolBaseData@@XZ:PROC ; CDrawingSymbol::GetSizeType
EXTRN	?GetSymbolType@CDrawingSymbol@@QAE?AW4TOOLTYPE@CSymbolBaseData@@XZ:PROC ; CDrawingSymbol::GetSymbolType
EXTRN	?GetFillState@CDrawingSymbol@@QAE_NXZ:PROC	; CDrawingSymbol::GetFillState
EXTRN	?Make@CDrawingSymbolFactory@@SAPAVCDrawingSymbol@@W4TOOLTYPE@CSymbolBaseData@@ABVCCoordinate@@1ABKABH3AB_NABUtagLOGFONTA@@_N@Z:PROC ; CDrawingSymbolFactory::Make
EXTRN	?Make@CDrawingSymbolFactory@@SAPAVCDrawingSymbol@@W4TOOLTYPE@CSymbolBaseData@@ABW4SIZETYPE@4@ABVCCoordinate@@ABVCSize@@ABKABUtagLOGFONTA@@4@Z:PROC ; CDrawingSymbolFactory::Make
EXTRN	?GetElement@COrderAndElement@@QAEPAVCDrawingSymbol@@XZ:PROC ; COrderAndElement::GetElement
EXTRN	?RegisterElementToOrderManager@CSymbolData@@QAEXJ@Z:PROC ; CSymbolData::RegisterElementToOrderManager
EXTRN	?GetXScaleDrawType@CSymbolData@@QAE?AW4HORZSCALEDRAWERTYPE@CScaleBaseData@@XZ:PROC ; CSymbolData::GetXScaleDrawType
EXTRN	@__security_check_cookie@4:PROC
EXTRN	___CxxFrameHandler3:PROC
EXTRN	__ltod3:PROC
EXTRN	_memset:PROC
EXTRN	??_7type_info@@6B@:QWORD			; type_info::`vftable'
EXTRN	___security_cookie:DWORD
EXTRN	__fltused:DWORD
;	COMDAT __real@bff0000000000000
CONST	SEGMENT
__real@bff0000000000000 DQ 0bff0000000000000r	; -1
CONST	ENDS
;	COMDAT ??_R1A@?0A@EA@?$CList@PAVCOrderAndElement@@PAV1@@@8
rdata$r	SEGMENT
??_R1A@?0A@EA@?$CList@PAVCOrderAndElement@@PAV1@@@8 DD FLAT:??_R0?AV?$CList@PAVCOrderAndElement@@PAV1@@@@8 ; CList<COrderAndElement *,COrderAndElement *>::`RTTI Base Class Descriptor at (0,-1,0,64)'
	DD	01H
	DD	00H
	DD	0ffffffffH
	DD	00H
	DD	040H
	DD	FLAT:??_R3?$CList@PAVCOrderAndElement@@PAV1@@@8
rdata$r	ENDS
;	COMDAT ??_R2?$CList@PAVCOrderAndElement@@PAV1@@@8
rdata$r	SEGMENT
??_R2?$CList@PAVCOrderAndElement@@PAV1@@@8 DD FLAT:??_R1A@?0A@EA@?$CList@PAVCOrderAndElement@@PAV1@@@8 ; CList<COrderAndElement *,COrderAndElement *>::`RTTI Base Class Array'
	DD	FLAT:??_R1A@?0A@EA@CObject@@8
rdata$r	ENDS
;	COMDAT ??_R3?$CList@PAVCOrderAndElement@@PAV1@@@8
rdata$r	SEGMENT
??_R3?$CList@PAVCOrderAndElement@@PAV1@@@8 DD 00H	; CList<COrderAndElement *,COrderAndElement *>::`RTTI Class Hierarchy Descriptor'
	DD	00H
	DD	02H
	DD	FLAT:??_R2?$CList@PAVCOrderAndElement@@PAV1@@@8
rdata$r	ENDS
;	COMDAT ??_R0?AV?$CList@PAVCOrderAndElement@@PAV1@@@@8
data$rs	SEGMENT
??_R0?AV?$CList@PAVCOrderAndElement@@PAV1@@@@8 DD FLAT:??_7type_info@@6B@ ; CList<COrderAndElement *,COrderAndElement *> `RTTI Type Descriptor'
	DD	00H
	DB	'.?AV?$CList@PAVCOrderAndElement@@PAV1@@@', 00H
data$rs	ENDS
;	COMDAT ??_R4?$CList@PAVCOrderAndElement@@PAV1@@@6B@
rdata$r	SEGMENT
??_R4?$CList@PAVCOrderAndElement@@PAV1@@@6B@ DD 00H	; CList<COrderAndElement *,COrderAndElement *>::`RTTI Complete Object Locator'
	DD	00H
	DD	00H
	DD	FLAT:??_R0?AV?$CList@PAVCOrderAndElement@@PAV1@@@@8
	DD	FLAT:??_R3?$CList@PAVCOrderAndElement@@PAV1@@@8
rdata$r	ENDS
;	COMDAT ??_R1A@?0A@EA@COrderSet@@8
rdata$r	SEGMENT
??_R1A@?0A@EA@COrderSet@@8 DD FLAT:??_R0?AVCOrderSet@@@8 ; COrderSet::`RTTI Base Class Descriptor at (0,-1,0,64)'
	DD	00H
	DD	00H
	DD	0ffffffffH
	DD	00H
	DD	040H
	DD	FLAT:??_R3COrderSet@@8
rdata$r	ENDS
;	COMDAT ??_R2COrderSet@@8
rdata$r	SEGMENT
??_R2COrderSet@@8 DD FLAT:??_R1A@?0A@EA@COrderSet@@8	; COrderSet::`RTTI Base Class Array'
rdata$r	ENDS
;	COMDAT ??_R3COrderSet@@8
rdata$r	SEGMENT
??_R3COrderSet@@8 DD 00H				; COrderSet::`RTTI Class Hierarchy Descriptor'
	DD	00H
	DD	01H
	DD	FLAT:??_R2COrderSet@@8
rdata$r	ENDS
;	COMDAT ??_R0?AVCOrderSet@@@8
data$rs	SEGMENT
??_R0?AVCOrderSet@@@8 DD FLAT:??_7type_info@@6B@	; COrderSet `RTTI Type Descriptor'
	DD	00H
	DB	'.?AVCOrderSet@@', 00H
data$rs	ENDS
;	COMDAT ??_R4COrderSet@@6B@
rdata$r	SEGMENT
??_R4COrderSet@@6B@ DD 00H				; COrderSet::`RTTI Complete Object Locator'
	DD	00H
	DD	00H
	DD	FLAT:??_R0?AVCOrderSet@@@8
	DD	FLAT:??_R3COrderSet@@8
rdata$r	ENDS
;	COMDAT ??_C@_08CHLAEBHP@?$CF02d?$CF02d@
CONST	SEGMENT
??_C@_08CHLAEBHP@?$CF02d?$CF02d@ DB '%02d%02d', 00H	; `string'
CONST	ENDS
;	COMDAT ??_C@_02PLJDPFIO@00@
CONST	SEGMENT
??_C@_02PLJDPFIO@00@ DB '00', 00H			; `string'
CONST	ENDS
;	COMDAT ??_C@_04OCCELDNI@?$CF04d@
CONST	SEGMENT
??_C@_04OCCELDNI@?$CF04d@ DB '%04d', 00H		; `string'
CONST	ENDS
;	COMDAT ??_C@_04OGKJMPGK@?$CF02d@
CONST	SEGMENT
??_C@_04OGKJMPGK@?$CF02d@ DB '%02d', 00H		; `string'
CONST	ENDS
;	COMDAT ??_C@_08HIJOEJNL@01000000@
CONST	SEGMENT
??_C@_08HIJOEJNL@01000000@ DB '01000000', 00H		; `string'
CONST	ENDS
;	COMDAT ??_C@_06GEKNBBDK@000000@
CONST	SEGMENT
??_C@_06GEKNBBDK@000000@ DB '000000', 00H		; `string'
CONST	ENDS
;	COMDAT ??_C@_08DKDJLCMP@YYYYMMDD@
CONST	SEGMENT
??_C@_08DKDJLCMP@YYYYMMDD@ DB 'YYYYMMDD', 00H		; `string'
CONST	ENDS
;	COMDAT ??_C@_0N@BNMNAMM@?$CFY?$CFm?$CFd?$CFH?$CFM?$CFS@
CONST	SEGMENT
??_C@_0N@BNMNAMM@?$CFY?$CFm?$CFd?$CFH?$CFM?$CFS@ DB '%Y%m%d%H%M%S', 00H ; `string'
CONST	ENDS
;	COMDAT ??_C@_06CLONMKIH@?$CFY?$CFm?$CFd@
CONST	SEGMENT
??_C@_06CLONMKIH@?$CFY?$CFm?$CFd@ DB '%Y%m%d', 00H	; `string'
CONST	ENDS
;	COMDAT ??_C@_04GICMHJFP@?$CFY?$CFm@
CONST	SEGMENT
??_C@_04GICMHJFP@?$CFY?$CFm@ DB '%Y%m', 00H		; `string'
CONST	ENDS
;	COMDAT ??_C@_02OOGLLHAM@?$CFm@
CONST	SEGMENT
??_C@_02OOGLLHAM@?$CFm@ DB '%m', 00H			; `string'
CONST	ENDS
;	COMDAT ??_C@_02FFEBEEPL@?$CFY@
CONST	SEGMENT
??_C@_02FFEBEEPL@?$CFY@ DB '%Y', 00H			; `string'
CONST	ENDS
;	COMDAT ??_C@_02PGHGPEOM@?91@
CONST	SEGMENT
??_C@_02PGHGPEOM@?91@ DB '-1', 00H			; `string'
CONST	ENDS
;	COMDAT ??_C@_0M@FHFNKLHB@BlockEnd?$DL?$AN?6@
CONST	SEGMENT
??_C@_0M@FHFNKLHB@BlockEnd?$DL?$AN?6@ DB 'BlockEnd;', 0dH, 0aH, 00H ; `string'
CONST	ENDS
;	COMDAT ??_C@_0BC@DENBEKI@BlockColumnEnd?$DL?$AN?6@
CONST	SEGMENT
??_C@_0BC@DENBEKI@BlockColumnEnd?$DL?$AN?6@ DB 'BlockColumnEnd;', 0dH, 0aH
	DB	00H						; `string'
CONST	ENDS
;	COMDAT ??_C@_0M@HGNACAL@IndexEnd?$DL?$AN?6@
CONST	SEGMENT
??_C@_0M@HGNACAL@IndexEnd?$DL?$AN?6@ DB 'IndexEnd;', 0dH, 0aH, 00H ; `string'
CONST	ENDS
;	COMDAT ??_C@_01IHBHIGKO@?0@
CONST	SEGMENT
??_C@_01IHBHIGKO@?0@ DB ',', 00H			; `string'
CONST	ENDS
;	COMDAT ??_C@_0N@CKIGEMFE@SymbolEnd?$DL?$AN?6@
CONST	SEGMENT
??_C@_0N@CKIGEMFE@SymbolEnd?$DL?$AN?6@ DB 'SymbolEnd;', 0dH, 0aH, 00H ; `string'
CONST	ENDS
;	COMDAT ??_C@_03LKGCEJK@?$DL?$AN?6@
CONST	SEGMENT
??_C@_03LKGCEJK@?$DL?$AN?6@ DB ';', 0dH, 0aH, 00H	; `string'
CONST	ENDS
;	COMDAT ??_C@_01ICJEACDI@?$DL@
CONST	SEGMENT
??_C@_01ICJEACDI@?$DL@ DB ';', 00H			; `string'
CONST	ENDS
;	COMDAT ??_7COrderSet@@6B@
CONST	SEGMENT
??_7COrderSet@@6B@ DD FLAT:??_R4COrderSet@@6B@		; COrderSet::`vftable'
	DD	FLAT:??_ECOrderSet@@UAEPAXI@Z
CONST	ENDS
;	COMDAT ??_7?$CList@PAVCOrderAndElement@@PAV1@@@6B@
CONST	SEGMENT
??_7?$CList@PAVCOrderAndElement@@PAV1@@@6B@ DD FLAT:??_R4?$CList@PAVCOrderAndElement@@PAV1@@@6B@ ; CList<COrderAndElement *,COrderAndElement *>::`vftable'
	DD	FLAT:?GetRuntimeClass@CObject@@UBEPAUCRuntimeClass@@XZ
	DD	FLAT:??_E?$CList@PAVCOrderAndElement@@PAV1@@@UAEPAXI@Z
	DD	FLAT:?Serialize@?$CList@PAVCOrderAndElement@@PAV1@@@UAEXAAVCArchive@@@Z
	DD	FLAT:?AssertValid@CObject@@UBEXXZ
	DD	FLAT:?Dump@CObject@@UBEXAAVCDumpContext@@@Z
CONST	ENDS
;	COMDAT ??_R1A@?0A@EA@CObject@@8
rdata$r	SEGMENT
??_R1A@?0A@EA@CObject@@8 DD FLAT:??_R0?AVCObject@@@8	; CObject::`RTTI Base Class Descriptor at (0,-1,0,64)'
	DD	00H
	DD	00H
	DD	0ffffffffH
	DD	00H
	DD	040H
	DD	FLAT:??_R3CObject@@8
rdata$r	ENDS
;	COMDAT ??_R2CObject@@8
rdata$r	SEGMENT
??_R2CObject@@8 DD FLAT:??_R1A@?0A@EA@CObject@@8	; CObject::`RTTI Base Class Array'
rdata$r	ENDS
;	COMDAT ??_R3CObject@@8
rdata$r	SEGMENT
??_R3CObject@@8 DD 00H					; CObject::`RTTI Class Hierarchy Descriptor'
	DD	00H
	DD	01H
	DD	FLAT:??_R2CObject@@8
rdata$r	ENDS
;	COMDAT ??_R0?AVCObject@@@8
data$rs	SEGMENT
??_R0?AVCObject@@@8 DD FLAT:??_7type_info@@6B@		; CObject `RTTI Type Descriptor'
	DD	00H
	DB	'.?AVCObject@@', 00H
data$rs	ENDS
;	COMDAT ??_C@_00CNPNBAHC@@
CONST	SEGMENT
??_C@_00CNPNBAHC@@ DB 00H				; `string'
CONST	ENDS
;	COMDAT xdata$x
xdata$x	SEGMENT
__ehfuncinfo$?MakeDateTime@CElementSaverBuilder@@AAE_JW4HORZSCALEDRAWERTYPE@CScaleBaseData@@V?$CStringT@DV?$StrTraitMFC_DLL@DV?$ChTraitsCRT@D@ATL@@@@@ATL@@@Z DD 019930522H
	DD	021H
	DD	FLAT:__unwindtable$?MakeDateTime@CElementSaverBuilder@@AAE_JW4HORZSCALEDRAWERTYPE@CScaleBaseData@@V?$CStringT@DV?$StrTraitMFC_DLL@DV?$ChTraitsCRT@D@ATL@@@@@ATL@@@Z
	DD	2 DUP(00H)
	DD	2 DUP(00H)
	DD	00H
	DD	01H
__unwindtable$?MakeDateTime@CElementSaverBuilder@@AAE_JW4HORZSCALEDRAWERTYPE@CScaleBaseData@@V?$CStringT@DV?$StrTraitMFC_DLL@DV?$ChTraitsCRT@D@ATL@@@@@ATL@@@Z DD 0ffffffffH
	DD	FLAT:__unwindfunclet$?MakeDateTime@CElementSaverBuilder@@AAE_JW4HORZSCALEDRAWERTYPE@CScaleBaseData@@V?$CStringT@DV?$StrTraitMFC_DLL@DV?$ChTraitsCRT@D@ATL@@@@@ATL@@@Z$0
	DD	00H
	DD	FLAT:__unwindfunclet$?MakeDateTime@CElementSaverBuilder@@AAE_JW4HORZSCALEDRAWERTYPE@CScaleBaseData@@V?$CStringT@DV?$StrTraitMFC_DLL@DV?$ChTraitsCRT@D@ATL@@@@@ATL@@@Z$1
	DD	01H
	DD	FLAT:__unwindfunclet$?MakeDateTime@CElementSaverBuilder@@AAE_JW4HORZSCALEDRAWERTYPE@CScaleBaseData@@V?$CStringT@DV?$StrTraitMFC_DLL@DV?$ChTraitsCRT@D@ATL@@@@@ATL@@@Z$2
	DD	02H
	DD	FLAT:__unwindfunclet$?MakeDateTime@CElementSaverBuilder@@AAE_JW4HORZSCALEDRAWERTYPE@CScaleBaseData@@V?$CStringT@DV?$StrTraitMFC_DLL@DV?$ChTraitsCRT@D@ATL@@@@@ATL@@@Z$3
	DD	03H
	DD	FLAT:__unwindfunclet$?MakeDateTime@CElementSaverBuilder@@AAE_JW4HORZSCALEDRAWERTYPE@CScaleBaseData@@V?$CStringT@DV?$StrTraitMFC_DLL@DV?$ChTraitsCRT@D@ATL@@@@@ATL@@@Z$4
	DD	04H
	DD	FLAT:__unwindfunclet$?MakeDateTime@CElementSaverBuilder@@AAE_JW4HORZSCALEDRAWERTYPE@CScaleBaseData@@V?$CStringT@DV?$StrTraitMFC_DLL@DV?$ChTraitsCRT@D@ATL@@@@@ATL@@@Z$5
	DD	05H
	DD	FLAT:__unwindfunclet$?MakeDateTime@CElementSaverBuilder@@AAE_JW4HORZSCALEDRAWERTYPE@CScaleBaseData@@V?$CStringT@DV?$StrTraitMFC_DLL@DV?$ChTraitsCRT@D@ATL@@@@@ATL@@@Z$6
	DD	06H
	DD	FLAT:__unwindfunclet$?MakeDateTime@CElementSaverBuilder@@AAE_JW4HORZSCALEDRAWERTYPE@CScaleBaseData@@V?$CStringT@DV?$StrTraitMFC_DLL@DV?$ChTraitsCRT@D@ATL@@@@@ATL@@@Z$7
	DD	07H
	DD	FLAT:__unwindfunclet$?MakeDateTime@CElementSaverBuilder@@AAE_JW4HORZSCALEDRAWERTYPE@CScaleBaseData@@V?$CStringT@DV?$StrTraitMFC_DLL@DV?$ChTraitsCRT@D@ATL@@@@@ATL@@@Z$37
	DD	07H
	DD	FLAT:__unwindfunclet$?MakeDateTime@CElementSaverBuilder@@AAE_JW4HORZSCALEDRAWERTYPE@CScaleBaseData@@V?$CStringT@DV?$StrTraitMFC_DLL@DV?$ChTraitsCRT@D@ATL@@@@@ATL@@@Z$38
	DD	07H
	DD	FLAT:__unwindfunclet$?MakeDateTime@CElementSaverBuilder@@AAE_JW4HORZSCALEDRAWERTYPE@CScaleBaseData@@V?$CStringT@DV?$StrTraitMFC_DLL@DV?$ChTraitsCRT@D@ATL@@@@@ATL@@@Z$10
	DD	0aH
	DD	FLAT:__unwindfunclet$?MakeDateTime@CElementSaverBuilder@@AAE_JW4HORZSCALEDRAWERTYPE@CScaleBaseData@@V?$CStringT@DV?$StrTraitMFC_DLL@DV?$ChTraitsCRT@D@ATL@@@@@ATL@@@Z$11
	DD	0bH
	DD	FLAT:__unwindfunclet$?MakeDateTime@CElementSaverBuilder@@AAE_JW4HORZSCALEDRAWERTYPE@CScaleBaseData@@V?$CStringT@DV?$StrTraitMFC_DLL@DV?$ChTraitsCRT@D@ATL@@@@@ATL@@@Z$12
	DD	0bH
	DD	FLAT:__unwindfunclet$?MakeDateTime@CElementSaverBuilder@@AAE_JW4HORZSCALEDRAWERTYPE@CScaleBaseData@@V?$CStringT@DV?$StrTraitMFC_DLL@DV?$ChTraitsCRT@D@ATL@@@@@ATL@@@Z$13
	DD	0bH
	DD	FLAT:__unwindfunclet$?MakeDateTime@CElementSaverBuilder@@AAE_JW4HORZSCALEDRAWERTYPE@CScaleBaseData@@V?$CStringT@DV?$StrTraitMFC_DLL@DV?$ChTraitsCRT@D@ATL@@@@@ATL@@@Z$14
	DD	0bH
	DD	FLAT:__unwindfunclet$?MakeDateTime@CElementSaverBuilder@@AAE_JW4HORZSCALEDRAWERTYPE@CScaleBaseData@@V?$CStringT@DV?$StrTraitMFC_DLL@DV?$ChTraitsCRT@D@ATL@@@@@ATL@@@Z$15
	DD	0bH
	DD	FLAT:__unwindfunclet$?MakeDateTime@CElementSaverBuilder@@AAE_JW4HORZSCALEDRAWERTYPE@CScaleBaseData@@V?$CStringT@DV?$StrTraitMFC_DLL@DV?$ChTraitsCRT@D@ATL@@@@@ATL@@@Z$16
	DD	010H
	DD	FLAT:__unwindfunclet$?MakeDateTime@CElementSaverBuilder@@AAE_JW4HORZSCALEDRAWERTYPE@CScaleBaseData@@V?$CStringT@DV?$StrTraitMFC_DLL@DV?$ChTraitsCRT@D@ATL@@@@@ATL@@@Z$17
	DD	0bH
	DD	FLAT:__unwindfunclet$?MakeDateTime@CElementSaverBuilder@@AAE_JW4HORZSCALEDRAWERTYPE@CScaleBaseData@@V?$CStringT@DV?$StrTraitMFC_DLL@DV?$ChTraitsCRT@D@ATL@@@@@ATL@@@Z$17
	DD	012H
	DD	FLAT:__unwindfunclet$?MakeDateTime@CElementSaverBuilder@@AAE_JW4HORZSCALEDRAWERTYPE@CScaleBaseData@@V?$CStringT@DV?$StrTraitMFC_DLL@DV?$ChTraitsCRT@D@ATL@@@@@ATL@@@Z$18
	DD	013H
	DD	FLAT:__unwindfunclet$?MakeDateTime@CElementSaverBuilder@@AAE_JW4HORZSCALEDRAWERTYPE@CScaleBaseData@@V?$CStringT@DV?$StrTraitMFC_DLL@DV?$ChTraitsCRT@D@ATL@@@@@ATL@@@Z$19
	DD	014H
	DD	FLAT:__unwindfunclet$?MakeDateTime@CElementSaverBuilder@@AAE_JW4HORZSCALEDRAWERTYPE@CScaleBaseData@@V?$CStringT@DV?$StrTraitMFC_DLL@DV?$ChTraitsCRT@D@ATL@@@@@ATL@@@Z$20
	DD	015H
	DD	FLAT:__unwindfunclet$?MakeDateTime@CElementSaverBuilder@@AAE_JW4HORZSCALEDRAWERTYPE@CScaleBaseData@@V?$CStringT@DV?$StrTraitMFC_DLL@DV?$ChTraitsCRT@D@ATL@@@@@ATL@@@Z$21
	DD	016H
	DD	FLAT:__unwindfunclet$?MakeDateTime@CElementSaverBuilder@@AAE_JW4HORZSCALEDRAWERTYPE@CScaleBaseData@@V?$CStringT@DV?$StrTraitMFC_DLL@DV?$ChTraitsCRT@D@ATL@@@@@ATL@@@Z$22
	DD	017H
	DD	FLAT:__unwindfunclet$?MakeDateTime@CElementSaverBuilder@@AAE_JW4HORZSCALEDRAWERTYPE@CScaleBaseData@@V?$CStringT@DV?$StrTraitMFC_DLL@DV?$ChTraitsCRT@D@ATL@@@@@ATL@@@Z$39
	DD	07H
	DD	FLAT:__unwindfunclet$?MakeDateTime@CElementSaverBuilder@@AAE_JW4HORZSCALEDRAWERTYPE@CScaleBaseData@@V?$CStringT@DV?$StrTraitMFC_DLL@DV?$ChTraitsCRT@D@ATL@@@@@ATL@@@Z$24
	DD	019H
	DD	FLAT:__unwindfunclet$?MakeDateTime@CElementSaverBuilder@@AAE_JW4HORZSCALEDRAWERTYPE@CScaleBaseData@@V?$CStringT@DV?$StrTraitMFC_DLL@DV?$ChTraitsCRT@D@ATL@@@@@ATL@@@Z$25
	DD	019H
	DD	FLAT:__unwindfunclet$?MakeDateTime@CElementSaverBuilder@@AAE_JW4HORZSCALEDRAWERTYPE@CScaleBaseData@@V?$CStringT@DV?$StrTraitMFC_DLL@DV?$ChTraitsCRT@D@ATL@@@@@ATL@@@Z$26
	DD	019H
	DD	FLAT:__unwindfunclet$?MakeDateTime@CElementSaverBuilder@@AAE_JW4HORZSCALEDRAWERTYPE@CScaleBaseData@@V?$CStringT@DV?$StrTraitMFC_DLL@DV?$ChTraitsCRT@D@ATL@@@@@ATL@@@Z$27
	DD	01cH
	DD	FLAT:__unwindfunclet$?MakeDateTime@CElementSaverBuilder@@AAE_JW4HORZSCALEDRAWERTYPE@CScaleBaseData@@V?$CStringT@DV?$StrTraitMFC_DLL@DV?$ChTraitsCRT@D@ATL@@@@@ATL@@@Z$28
	DD	01dH
	DD	FLAT:__unwindfunclet$?MakeDateTime@CElementSaverBuilder@@AAE_JW4HORZSCALEDRAWERTYPE@CScaleBaseData@@V?$CStringT@DV?$StrTraitMFC_DLL@DV?$ChTraitsCRT@D@ATL@@@@@ATL@@@Z$29
	DD	01eH
	DD	FLAT:__unwindfunclet$?MakeDateTime@CElementSaverBuilder@@AAE_JW4HORZSCALEDRAWERTYPE@CScaleBaseData@@V?$CStringT@DV?$StrTraitMFC_DLL@DV?$ChTraitsCRT@D@ATL@@@@@ATL@@@Z$30
	DD	01fH
	DD	FLAT:__unwindfunclet$?MakeDateTime@CElementSaverBuilder@@AAE_JW4HORZSCALEDRAWERTYPE@CScaleBaseData@@V?$CStringT@DV?$StrTraitMFC_DLL@DV?$ChTraitsCRT@D@ATL@@@@@ATL@@@Z$31
xdata$x	ENDS
;	COMDAT xdata$x
xdata$x	SEGMENT
__ehfuncinfo$?MakeStringFromLOGFONT@CElementSaverBuilder@@AAE?AV?$CStringT@DV?$StrTraitMFC_DLL@DV?$ChTraitsCRT@D@ATL@@@@@ATL@@ABUtagLOGFONTA@@@Z DD 019930522H
	DD	09H
	DD	FLAT:__unwindtable$?MakeStringFromLOGFONT@CElementSaverBuilder@@AAE?AV?$CStringT@DV?$StrTraitMFC_DLL@DV?$ChTraitsCRT@D@ATL@@@@@ATL@@ABUtagLOGFONTA@@@Z
	DD	2 DUP(00H)
	DD	2 DUP(00H)
	DD	00H
	DD	01H
__unwindtable$?MakeStringFromLOGFONT@CElementSaverBuilder@@AAE?AV?$CStringT@DV?$StrTraitMFC_DLL@DV?$ChTraitsCRT@D@ATL@@@@@ATL@@ABUtagLOGFONTA@@@Z DD 0ffffffffH
	DD	FLAT:__unwindfunclet$?MakeStringFromLOGFONT@CElementSaverBuilder@@AAE?AV?$CStringT@DV?$StrTraitMFC_DLL@DV?$ChTraitsCRT@D@ATL@@@@@ATL@@ABUtagLOGFONTA@@@Z$0
	DD	00H
	DD	FLAT:__unwindfunclet$?MakeStringFromLOGFONT@CElementSaverBuilder@@AAE?AV?$CStringT@DV?$StrTraitMFC_DLL@DV?$ChTraitsCRT@D@ATL@@@@@ATL@@ABUtagLOGFONTA@@@Z$1
	DD	01H
	DD	FLAT:__unwindfunclet$?MakeStringFromLOGFONT@CElementSaverBuilder@@AAE?AV?$CStringT@DV?$StrTraitMFC_DLL@DV?$ChTraitsCRT@D@ATL@@@@@ATL@@ABUtagLOGFONTA@@@Z$9
	DD	00H
	DD	FLAT:__unwindfunclet$?MakeStringFromLOGFONT@CElementSaverBuilder@@AAE?AV?$CStringT@DV?$StrTraitMFC_DLL@DV?$ChTraitsCRT@D@ATL@@@@@ATL@@ABUtagLOGFONTA@@@Z$3
	DD	03H
	DD	FLAT:__unwindfunclet$?MakeStringFromLOGFONT@CElementSaverBuilder@@AAE?AV?$CStringT@DV?$StrTraitMFC_DLL@DV?$ChTraitsCRT@D@ATL@@@@@ATL@@ABUtagLOGFONTA@@@Z$10
	DD	00H
	DD	FLAT:__unwindfunclet$?MakeStringFromLOGFONT@CElementSaverBuilder@@AAE?AV?$CStringT@DV?$StrTraitMFC_DLL@DV?$ChTraitsCRT@D@ATL@@@@@ATL@@ABUtagLOGFONTA@@@Z$5
	DD	05H
	DD	FLAT:__unwindfunclet$?MakeStringFromLOGFONT@CElementSaverBuilder@@AAE?AV?$CStringT@DV?$StrTraitMFC_DLL@DV?$ChTraitsCRT@D@ATL@@@@@ATL@@ABUtagLOGFONTA@@@Z$11
	DD	00H
	DD	FLAT:__unwindfunclet$?MakeStringFromLOGFONT@CElementSaverBuilder@@AAE?AV?$CStringT@DV?$StrTraitMFC_DLL@DV?$ChTraitsCRT@D@ATL@@@@@ATL@@ABUtagLOGFONTA@@@Z$7
	DD	07H
	DD	FLAT:__unwindfunclet$?MakeStringFromLOGFONT@CElementSaverBuilder@@AAE?AV?$CStringT@DV?$StrTraitMFC_DLL@DV?$ChTraitsCRT@D@ATL@@@@@ATL@@ABUtagLOGFONTA@@@Z$12
xdata$x	ENDS
;	COMDAT xdata$x
xdata$x	SEGMENT
__ehfuncinfo$?MakeLOGFONTFromString@CElementSaverBuilder@@AAE?AUtagLOGFONTA@@ABV?$CStringT@DV?$StrTraitMFC_DLL@DV?$ChTraitsCRT@D@ATL@@@@@ATL@@@Z DD 019930522H
	DD	05H
	DD	FLAT:__unwindtable$?MakeLOGFONTFromString@CElementSaverBuilder@@AAE?AUtagLOGFONTA@@ABV?$CStringT@DV?$StrTraitMFC_DLL@DV?$ChTraitsCRT@D@ATL@@@@@ATL@@@Z
	DD	2 DUP(00H)
	DD	2 DUP(00H)
	DD	00H
	DD	01H
__unwindtable$?MakeLOGFONTFromString@CElementSaverBuilder@@AAE?AUtagLOGFONTA@@ABV?$CStringT@DV?$StrTraitMFC_DLL@DV?$ChTraitsCRT@D@ATL@@@@@ATL@@@Z DD 0ffffffffH
	DD	FLAT:__unwindfunclet$?MakeLOGFONTFromString@CElementSaverBuilder@@AAE?AUtagLOGFONTA@@ABV?$CStringT@DV?$StrTraitMFC_DLL@DV?$ChTraitsCRT@D@ATL@@@@@ATL@@@Z$0
	DD	00H
	DD	FLAT:__unwindfunclet$?MakeLOGFONTFromString@CElementSaverBuilder@@AAE?AUtagLOGFONTA@@ABV?$CStringT@DV?$StrTraitMFC_DLL@DV?$ChTraitsCRT@D@ATL@@@@@ATL@@@Z$1
	DD	00H
	DD	FLAT:__unwindfunclet$?MakeLOGFONTFromString@CElementSaverBuilder@@AAE?AUtagLOGFONTA@@ABV?$CStringT@DV?$StrTraitMFC_DLL@DV?$ChTraitsCRT@D@ATL@@@@@ATL@@@Z$3
	DD	00H
	DD	FLAT:__unwindfunclet$?MakeLOGFONTFromString@CElementSaverBuilder@@AAE?AUtagLOGFONTA@@ABV?$CStringT@DV?$StrTraitMFC_DLL@DV?$ChTraitsCRT@D@ATL@@@@@ATL@@@Z$5
	DD	00H
	DD	FLAT:__unwindfunclet$?MakeLOGFONTFromString@CElementSaverBuilder@@AAE?AUtagLOGFONTA@@ABV?$CStringT@DV?$StrTraitMFC_DLL@DV?$ChTraitsCRT@D@ATL@@@@@ATL@@@Z$7
xdata$x	ENDS
;	COMDAT xdata$x
xdata$x	SEGMENT
__unwindtable$?GetIndexString@CElementSaverBuilder@@ABE?AV?$CStringT@DV?$StrTraitMFC_DLL@DV?$ChTraitsCRT@D@ATL@@@@@ATL@@PBVCDrawingSymbol@@ABVCOrder@@@Z DD 0ffffffffH
	DD	FLAT:__unwindfunclet$?GetIndexString@CElementSaverBuilder@@ABE?AV?$CStringT@DV?$StrTraitMFC_DLL@DV?$ChTraitsCRT@D@ATL@@@@@ATL@@PBVCDrawingSymbol@@ABVCOrder@@@Z$1
	DD	00H
	DD	FLAT:__unwindfunclet$?GetIndexString@CElementSaverBuilder@@ABE?AV?$CStringT@DV?$StrTraitMFC_DLL@DV?$ChTraitsCRT@D@ATL@@@@@ATL@@PBVCDrawingSymbol@@ABVCOrder@@@Z$2
__ehfuncinfo$?GetIndexString@CElementSaverBuilder@@ABE?AV?$CStringT@DV?$StrTraitMFC_DLL@DV?$ChTraitsCRT@D@ATL@@@@@ATL@@PBVCDrawingSymbol@@ABVCOrder@@@Z DD 019930522H
	DD	02H
	DD	FLAT:__unwindtable$?GetIndexString@CElementSaverBuilder@@ABE?AV?$CStringT@DV?$StrTraitMFC_DLL@DV?$ChTraitsCRT@D@ATL@@@@@ATL@@PBVCDrawingSymbol@@ABVCOrder@@@Z
	DD	2 DUP(00H)
	DD	2 DUP(00H)
	DD	00H
	DD	01H
xdata$x	ENDS
;	COMDAT xdata$x
xdata$x	SEGMENT
__ehfuncinfo$?MakeElement@CElementSaverBuilder@@AAEPAVCDrawingSymbol@@W4HORZSCALEDRAWERTYPE@CScaleBaseData@@ABV?$CStringT@DV?$StrTraitMFC_DLL@DV?$ChTraitsCRT@D@ATL@@@@@ATL@@@Z DD 019930522H
	DD	019H
	DD	FLAT:__unwindtable$?MakeElement@CElementSaverBuilder@@AAEPAVCDrawingSymbol@@W4HORZSCALEDRAWERTYPE@CScaleBaseData@@ABV?$CStringT@DV?$StrTraitMFC_DLL@DV?$ChTraitsCRT@D@ATL@@@@@ATL@@@Z
	DD	2 DUP(00H)
	DD	2 DUP(00H)
	DD	00H
	DD	01H
__unwindtable$?MakeElement@CElementSaverBuilder@@AAEPAVCDrawingSymbol@@W4HORZSCALEDRAWERTYPE@CScaleBaseData@@ABV?$CStringT@DV?$StrTraitMFC_DLL@DV?$ChTraitsCRT@D@ATL@@@@@ATL@@@Z DD 0ffffffffH
	DD	FLAT:__unwindfunclet$?MakeElement@CElementSaverBuilder@@AAEPAVCDrawingSymbol@@W4HORZSCALEDRAWERTYPE@CScaleBaseData@@ABV?$CStringT@DV?$StrTraitMFC_DLL@DV?$ChTraitsCRT@D@ATL@@@@@ATL@@@Z$0
	DD	00H
	DD	FLAT:__unwindfunclet$?MakeElement@CElementSaverBuilder@@AAEPAVCDrawingSymbol@@W4HORZSCALEDRAWERTYPE@CScaleBaseData@@ABV?$CStringT@DV?$StrTraitMFC_DLL@DV?$ChTraitsCRT@D@ATL@@@@@ATL@@@Z$1
	DD	00H
	DD	FLAT:__unwindfunclet$?MakeElement@CElementSaverBuilder@@AAEPAVCDrawingSymbol@@W4HORZSCALEDRAWERTYPE@CScaleBaseData@@ABV?$CStringT@DV?$StrTraitMFC_DLL@DV?$ChTraitsCRT@D@ATL@@@@@ATL@@@Z$3
	DD	00H
	DD	FLAT:__unwindfunclet$?MakeElement@CElementSaverBuilder@@AAEPAVCDrawingSymbol@@W4HORZSCALEDRAWERTYPE@CScaleBaseData@@ABV?$CStringT@DV?$StrTraitMFC_DLL@DV?$ChTraitsCRT@D@ATL@@@@@ATL@@@Z$5
	DD	03H
	DD	FLAT:__unwindfunclet$?MakeElement@CElementSaverBuilder@@AAEPAVCDrawingSymbol@@W4HORZSCALEDRAWERTYPE@CScaleBaseData@@ABV?$CStringT@DV?$StrTraitMFC_DLL@DV?$ChTraitsCRT@D@ATL@@@@@ATL@@@Z$6
	DD	04H
	DD	FLAT:__unwindfunclet$?MakeElement@CElementSaverBuilder@@AAEPAVCDrawingSymbol@@W4HORZSCALEDRAWERTYPE@CScaleBaseData@@ABV?$CStringT@DV?$StrTraitMFC_DLL@DV?$ChTraitsCRT@D@ATL@@@@@ATL@@@Z$7
	DD	03H
	DD	FLAT:__unwindfunclet$?MakeElement@CElementSaverBuilder@@AAEPAVCDrawingSymbol@@W4HORZSCALEDRAWERTYPE@CScaleBaseData@@ABV?$CStringT@DV?$StrTraitMFC_DLL@DV?$ChTraitsCRT@D@ATL@@@@@ATL@@@Z$9
	DD	03H
	DD	FLAT:__unwindfunclet$?MakeElement@CElementSaverBuilder@@AAEPAVCDrawingSymbol@@W4HORZSCALEDRAWERTYPE@CScaleBaseData@@ABV?$CStringT@DV?$StrTraitMFC_DLL@DV?$ChTraitsCRT@D@ATL@@@@@ATL@@@Z$11
	DD	07H
	DD	FLAT:__unwindfunclet$?MakeElement@CElementSaverBuilder@@AAEPAVCDrawingSymbol@@W4HORZSCALEDRAWERTYPE@CScaleBaseData@@ABV?$CStringT@DV?$StrTraitMFC_DLL@DV?$ChTraitsCRT@D@ATL@@@@@ATL@@@Z$12
	DD	03H
	DD	FLAT:__unwindfunclet$?MakeElement@CElementSaverBuilder@@AAEPAVCDrawingSymbol@@W4HORZSCALEDRAWERTYPE@CScaleBaseData@@ABV?$CStringT@DV?$StrTraitMFC_DLL@DV?$ChTraitsCRT@D@ATL@@@@@ATL@@@Z$14
	DD	03H
	DD	FLAT:__unwindfunclet$?MakeElement@CElementSaverBuilder@@AAEPAVCDrawingSymbol@@W4HORZSCALEDRAWERTYPE@CScaleBaseData@@ABV?$CStringT@DV?$StrTraitMFC_DLL@DV?$ChTraitsCRT@D@ATL@@@@@ATL@@@Z$16
	DD	03H
	DD	FLAT:__unwindfunclet$?MakeElement@CElementSaverBuilder@@AAEPAVCDrawingSymbol@@W4HORZSCALEDRAWERTYPE@CScaleBaseData@@ABV?$CStringT@DV?$StrTraitMFC_DLL@DV?$ChTraitsCRT@D@ATL@@@@@ATL@@@Z$18
	DD	03H
	DD	FLAT:__unwindfunclet$?MakeElement@CElementSaverBuilder@@AAEPAVCDrawingSymbol@@W4HORZSCALEDRAWERTYPE@CScaleBaseData@@ABV?$CStringT@DV?$StrTraitMFC_DLL@DV?$ChTraitsCRT@D@ATL@@@@@ATL@@@Z$20
	DD	0cH
	DD	FLAT:__unwindfunclet$?MakeElement@CElementSaverBuilder@@AAEPAVCDrawingSymbol@@W4HORZSCALEDRAWERTYPE@CScaleBaseData@@ABV?$CStringT@DV?$StrTraitMFC_DLL@DV?$ChTraitsCRT@D@ATL@@@@@ATL@@@Z$21
	DD	03H
	DD	FLAT:__unwindfunclet$?MakeElement@CElementSaverBuilder@@AAEPAVCDrawingSymbol@@W4HORZSCALEDRAWERTYPE@CScaleBaseData@@ABV?$CStringT@DV?$StrTraitMFC_DLL@DV?$ChTraitsCRT@D@ATL@@@@@ATL@@@Z$21
	DD	0eH
	DD	FLAT:__unwindfunclet$?MakeElement@CElementSaverBuilder@@AAEPAVCDrawingSymbol@@W4HORZSCALEDRAWERTYPE@CScaleBaseData@@ABV?$CStringT@DV?$StrTraitMFC_DLL@DV?$ChTraitsCRT@D@ATL@@@@@ATL@@@Z$22
	DD	0fH
	DD	FLAT:__unwindfunclet$?MakeElement@CElementSaverBuilder@@AAEPAVCDrawingSymbol@@W4HORZSCALEDRAWERTYPE@CScaleBaseData@@ABV?$CStringT@DV?$StrTraitMFC_DLL@DV?$ChTraitsCRT@D@ATL@@@@@ATL@@@Z$23
	DD	0eH
	DD	FLAT:__unwindfunclet$?MakeElement@CElementSaverBuilder@@AAEPAVCDrawingSymbol@@W4HORZSCALEDRAWERTYPE@CScaleBaseData@@ABV?$CStringT@DV?$StrTraitMFC_DLL@DV?$ChTraitsCRT@D@ATL@@@@@ATL@@@Z$24
	DD	0eH
	DD	FLAT:__unwindfunclet$?MakeElement@CElementSaverBuilder@@AAEPAVCDrawingSymbol@@W4HORZSCALEDRAWERTYPE@CScaleBaseData@@ABV?$CStringT@DV?$StrTraitMFC_DLL@DV?$ChTraitsCRT@D@ATL@@@@@ATL@@@Z$26
	DD	0eH
	DD	FLAT:__unwindfunclet$?MakeElement@CElementSaverBuilder@@AAEPAVCDrawingSymbol@@W4HORZSCALEDRAWERTYPE@CScaleBaseData@@ABV?$CStringT@DV?$StrTraitMFC_DLL@DV?$ChTraitsCRT@D@ATL@@@@@ATL@@@Z$28
	DD	013H
	DD	FLAT:__unwindfunclet$?MakeElement@CElementSaverBuilder@@AAEPAVCDrawingSymbol@@W4HORZSCALEDRAWERTYPE@CScaleBaseData@@ABV?$CStringT@DV?$StrTraitMFC_DLL@DV?$ChTraitsCRT@D@ATL@@@@@ATL@@@Z$29
	DD	0eH
	DD	FLAT:__unwindfunclet$?MakeElement@CElementSaverBuilder@@AAEPAVCDrawingSymbol@@W4HORZSCALEDRAWERTYPE@CScaleBaseData@@ABV?$CStringT@DV?$StrTraitMFC_DLL@DV?$ChTraitsCRT@D@ATL@@@@@ATL@@@Z$30
	DD	015H
	DD	FLAT:__unwindfunclet$?MakeElement@CElementSaverBuilder@@AAEPAVCDrawingSymbol@@W4HORZSCALEDRAWERTYPE@CScaleBaseData@@ABV?$CStringT@DV?$StrTraitMFC_DLL@DV?$ChTraitsCRT@D@ATL@@@@@ATL@@@Z$31
	DD	0eH
	DD	FLAT:__unwindfunclet$?MakeElement@CElementSaverBuilder@@AAEPAVCDrawingSymbol@@W4HORZSCALEDRAWERTYPE@CScaleBaseData@@ABV?$CStringT@DV?$StrTraitMFC_DLL@DV?$ChTraitsCRT@D@ATL@@@@@ATL@@@Z$32
	DD	0eH
	DD	FLAT:__unwindfunclet$?MakeElement@CElementSaverBuilder@@AAEPAVCDrawingSymbol@@W4HORZSCALEDRAWERTYPE@CScaleBaseData@@ABV?$CStringT@DV?$StrTraitMFC_DLL@DV?$ChTraitsCRT@D@ATL@@@@@ATL@@@Z$34
xdata$x	ENDS
;	COMDAT xdata$x
xdata$x	SEGMENT
__unwindtable$?BuildSymbolsFromString_Symbol@CElementSaverBuilder@@AAEXW4HORZSCALEDRAWERTYPE@CScaleBaseData@@ABV?$CStringT@DV?$StrTraitMFC_DLL@DV?$ChTraitsCRT@D@ATL@@@@@ATL@@HHAAVCTree@@AAVCOrderSet@@@Z DD 0ffffffffH
	DD	FLAT:__unwindfunclet$?BuildSymbolsFromString_Symbol@CElementSaverBuilder@@AAEXW4HORZSCALEDRAWERTYPE@CScaleBaseData@@ABV?$CStringT@DV?$StrTraitMFC_DLL@DV?$ChTraitsCRT@D@ATL@@@@@ATL@@HHAAVCTree@@AAVCOrderSet@@@Z$0
	DD	00H
	DD	FLAT:__unwindfunclet$?BuildSymbolsFromString_Symbol@CElementSaverBuilder@@AAEXW4HORZSCALEDRAWERTYPE@CScaleBaseData@@ABV?$CStringT@DV?$StrTraitMFC_DLL@DV?$ChTraitsCRT@D@ATL@@@@@ATL@@HHAAVCTree@@AAVCOrderSet@@@Z$1
__ehfuncinfo$?BuildSymbolsFromString_Symbol@CElementSaverBuilder@@AAEXW4HORZSCALEDRAWERTYPE@CScaleBaseData@@ABV?$CStringT@DV?$StrTraitMFC_DLL@DV?$ChTraitsCRT@D@ATL@@@@@ATL@@HHAAVCTree@@AAVCOrderSet@@@Z DD 019930522H
	DD	02H
	DD	FLAT:__unwindtable$?BuildSymbolsFromString_Symbol@CElementSaverBuilder@@AAEXW4HORZSCALEDRAWERTYPE@CScaleBaseData@@ABV?$CStringT@DV?$StrTraitMFC_DLL@DV?$ChTraitsCRT@D@ATL@@@@@ATL@@HHAAVCTree@@AAVCOrderSet@@@Z
	DD	2 DUP(00H)
	DD	2 DUP(00H)
	DD	00H
	DD	01H
xdata$x	ENDS
;	COMDAT xdata$x
xdata$x	SEGMENT
__ehfuncinfo$?BuildSymbolsFromString_Column@CElementSaverBuilder@@AAEXW4HORZSCALEDRAWERTYPE@CScaleBaseData@@ABV?$CStringT@DV?$StrTraitMFC_DLL@DV?$ChTraitsCRT@D@ATL@@@@@ATL@@HAAVCTree@@AAVCOrderSet@@@Z DD 019930522H
	DD	0aH
	DD	FLAT:__unwindtable$?BuildSymbolsFromString_Column@CElementSaverBuilder@@AAEXW4HORZSCALEDRAWERTYPE@CScaleBaseData@@ABV?$CStringT@DV?$StrTraitMFC_DLL@DV?$ChTraitsCRT@D@ATL@@@@@ATL@@HAAVCTree@@AAVCOrderSet@@@Z
	DD	2 DUP(00H)
	DD	2 DUP(00H)
	DD	00H
	DD	01H
__unwindtable$?BuildSymbolsFromString_Column@CElementSaverBuilder@@AAEXW4HORZSCALEDRAWERTYPE@CScaleBaseData@@ABV?$CStringT@DV?$StrTraitMFC_DLL@DV?$ChTraitsCRT@D@ATL@@@@@ATL@@HAAVCTree@@AAVCOrderSet@@@Z DD 0ffffffffH
	DD	FLAT:__unwindfunclet$?BuildSymbolsFromString_Column@CElementSaverBuilder@@AAEXW4HORZSCALEDRAWERTYPE@CScaleBaseData@@ABV?$CStringT@DV?$StrTraitMFC_DLL@DV?$ChTraitsCRT@D@ATL@@@@@ATL@@HAAVCTree@@AAVCOrderSet@@@Z$0
	DD	00H
	DD	FLAT:__unwindfunclet$?BuildSymbolsFromString_Column@CElementSaverBuilder@@AAEXW4HORZSCALEDRAWERTYPE@CScaleBaseData@@ABV?$CStringT@DV?$StrTraitMFC_DLL@DV?$ChTraitsCRT@D@ATL@@@@@ATL@@HAAVCTree@@AAVCOrderSet@@@Z$1
	DD	00H
	DD	FLAT:__unwindfunclet$?BuildSymbolsFromString_Column@CElementSaverBuilder@@AAEXW4HORZSCALEDRAWERTYPE@CScaleBaseData@@ABV?$CStringT@DV?$StrTraitMFC_DLL@DV?$ChTraitsCRT@D@ATL@@@@@ATL@@HAAVCTree@@AAVCOrderSet@@@Z$2
	DD	02H
	DD	FLAT:__unwindfunclet$?BuildSymbolsFromString_Column@CElementSaverBuilder@@AAEXW4HORZSCALEDRAWERTYPE@CScaleBaseData@@ABV?$CStringT@DV?$StrTraitMFC_DLL@DV?$ChTraitsCRT@D@ATL@@@@@ATL@@HAAVCTree@@AAVCOrderSet@@@Z$3
	DD	03H
	DD	FLAT:__unwindfunclet$?BuildSymbolsFromString_Column@CElementSaverBuilder@@AAEXW4HORZSCALEDRAWERTYPE@CScaleBaseData@@ABV?$CStringT@DV?$StrTraitMFC_DLL@DV?$ChTraitsCRT@D@ATL@@@@@ATL@@HAAVCTree@@AAVCOrderSet@@@Z$4
	DD	04H
	DD	FLAT:__unwindfunclet$?BuildSymbolsFromString_Column@CElementSaverBuilder@@AAEXW4HORZSCALEDRAWERTYPE@CScaleBaseData@@ABV?$CStringT@DV?$StrTraitMFC_DLL@DV?$ChTraitsCRT@D@ATL@@@@@ATL@@HAAVCTree@@AAVCOrderSet@@@Z$5
	DD	04H
	DD	FLAT:__unwindfunclet$?BuildSymbolsFromString_Column@CElementSaverBuilder@@AAEXW4HORZSCALEDRAWERTYPE@CScaleBaseData@@ABV?$CStringT@DV?$StrTraitMFC_DLL@DV?$ChTraitsCRT@D@ATL@@@@@ATL@@HAAVCTree@@AAVCOrderSet@@@Z$6
	DD	06H
	DD	FLAT:__unwindfunclet$?BuildSymbolsFromString_Column@CElementSaverBuilder@@AAEXW4HORZSCALEDRAWERTYPE@CScaleBaseData@@ABV?$CStringT@DV?$StrTraitMFC_DLL@DV?$ChTraitsCRT@D@ATL@@@@@ATL@@HAAVCTree@@AAVCOrderSet@@@Z$7
	DD	07H
	DD	FLAT:__unwindfunclet$?BuildSymbolsFromString_Column@CElementSaverBuilder@@AAEXW4HORZSCALEDRAWERTYPE@CScaleBaseData@@ABV?$CStringT@DV?$StrTraitMFC_DLL@DV?$ChTraitsCRT@D@ATL@@@@@ATL@@HAAVCTree@@AAVCOrderSet@@@Z$8
	DD	08H
	DD	FLAT:__unwindfunclet$?BuildSymbolsFromString_Column@CElementSaverBuilder@@AAEXW4HORZSCALEDRAWERTYPE@CScaleBaseData@@ABV?$CStringT@DV?$StrTraitMFC_DLL@DV?$ChTraitsCRT@D@ATL@@@@@ATL@@HAAVCTree@@AAVCOrderSet@@@Z$9
xdata$x	ENDS
;	COMDAT xdata$x
xdata$x	SEGMENT
__ehfuncinfo$?BuildSymbolsFromString_Row@CElementSaverBuilder@@AAEXW4HORZSCALEDRAWERTYPE@CScaleBaseData@@ABV?$CStringT@DV?$StrTraitMFC_DLL@DV?$ChTraitsCRT@D@ATL@@@@@ATL@@HHAAVCTree@@AAVCOrderSet@@@Z DD 019930522H
	DD	06H
	DD	FLAT:__unwindtable$?BuildSymbolsFromString_Row@CElementSaverBuilder@@AAEXW4HORZSCALEDRAWERTYPE@CScaleBaseData@@ABV?$CStringT@DV?$StrTraitMFC_DLL@DV?$ChTraitsCRT@D@ATL@@@@@ATL@@HHAAVCTree@@AAVCOrderSet@@@Z
	DD	2 DUP(00H)
	DD	2 DUP(00H)
	DD	00H
	DD	01H
__unwindtable$?BuildSymbolsFromString_Row@CElementSaverBuilder@@AAEXW4HORZSCALEDRAWERTYPE@CScaleBaseData@@ABV?$CStringT@DV?$StrTraitMFC_DLL@DV?$ChTraitsCRT@D@ATL@@@@@ATL@@HHAAVCTree@@AAVCOrderSet@@@Z DD 0ffffffffH
	DD	FLAT:__unwindfunclet$?BuildSymbolsFromString_Row@CElementSaverBuilder@@AAEXW4HORZSCALEDRAWERTYPE@CScaleBaseData@@ABV?$CStringT@DV?$StrTraitMFC_DLL@DV?$ChTraitsCRT@D@ATL@@@@@ATL@@HHAAVCTree@@AAVCOrderSet@@@Z$0
	DD	00H
	DD	FLAT:__unwindfunclet$?BuildSymbolsFromString_Row@CElementSaverBuilder@@AAEXW4HORZSCALEDRAWERTYPE@CScaleBaseData@@ABV?$CStringT@DV?$StrTraitMFC_DLL@DV?$ChTraitsCRT@D@ATL@@@@@ATL@@HHAAVCTree@@AAVCOrderSet@@@Z$1
	DD	00H
	DD	FLAT:__unwindfunclet$?BuildSymbolsFromString_Row@CElementSaverBuilder@@AAEXW4HORZSCALEDRAWERTYPE@CScaleBaseData@@ABV?$CStringT@DV?$StrTraitMFC_DLL@DV?$ChTraitsCRT@D@ATL@@@@@ATL@@HHAAVCTree@@AAVCOrderSet@@@Z$2
	DD	02H
	DD	FLAT:__unwindfunclet$?BuildSymbolsFromString_Row@CElementSaverBuilder@@AAEXW4HORZSCALEDRAWERTYPE@CScaleBaseData@@ABV?$CStringT@DV?$StrTraitMFC_DLL@DV?$ChTraitsCRT@D@ATL@@@@@ATL@@HHAAVCTree@@AAVCOrderSet@@@Z$3
	DD	03H
	DD	FLAT:__unwindfunclet$?BuildSymbolsFromString_Row@CElementSaverBuilder@@AAEXW4HORZSCALEDRAWERTYPE@CScaleBaseData@@ABV?$CStringT@DV?$StrTraitMFC_DLL@DV?$ChTraitsCRT@D@ATL@@@@@ATL@@HHAAVCTree@@AAVCOrderSet@@@Z$4
	DD	04H
	DD	FLAT:__unwindfunclet$?BuildSymbolsFromString_Row@CElementSaverBuilder@@AAEXW4HORZSCALEDRAWERTYPE@CScaleBaseData@@ABV?$CStringT@DV?$StrTraitMFC_DLL@DV?$ChTraitsCRT@D@ATL@@@@@ATL@@HHAAVCTree@@AAVCOrderSet@@@Z$5
xdata$x	ENDS
;	COMDAT xdata$x
xdata$x	SEGMENT
__unwindtable$?BuildSymbolsFromString_ForUndoRedo@CElementSaverBuilder@@QAEJAAVCSymbolData@@ABVCBlockIndex@@AAV?$CStringT@DV?$StrTraitMFC_DLL@DV?$ChTraitsCRT@D@ATL@@@@@ATL@@AAVCTree@@AAVCOrder@@@Z DD 0ffffffffH
	DD	FLAT:__unwindfunclet$?BuildSymbolsFromString_ForUndoRedo@CElementSaverBuilder@@QAEJAAVCSymbolData@@ABVCBlockIndex@@AAV?$CStringT@DV?$StrTraitMFC_DLL@DV?$ChTraitsCRT@D@ATL@@@@@ATL@@AAVCTree@@AAVCOrder@@@Z$0
	DD	00H
	DD	FLAT:__unwindfunclet$?BuildSymbolsFromString_ForUndoRedo@CElementSaverBuilder@@QAEJAAVCSymbolData@@ABVCBlockIndex@@AAV?$CStringT@DV?$StrTraitMFC_DLL@DV?$ChTraitsCRT@D@ATL@@@@@ATL@@AAVCTree@@AAVCOrder@@@Z$1
__ehfuncinfo$?BuildSymbolsFromString_ForUndoRedo@CElementSaverBuilder@@QAEJAAVCSymbolData@@ABVCBlockIndex@@AAV?$CStringT@DV?$StrTraitMFC_DLL@DV?$ChTraitsCRT@D@ATL@@@@@ATL@@AAVCTree@@AAVCOrder@@@Z DD 019930522H
	DD	02H
	DD	FLAT:__unwindtable$?BuildSymbolsFromString_ForUndoRedo@CElementSaverBuilder@@QAEJAAVCSymbolData@@ABVCBlockIndex@@AAV?$CStringT@DV?$StrTraitMFC_DLL@DV?$ChTraitsCRT@D@ATL@@@@@ATL@@AAVCTree@@AAVCOrder@@@Z
	DD	2 DUP(00H)
	DD	2 DUP(00H)
	DD	00H
	DD	01H
xdata$x	ENDS
;	COMDAT xdata$x
xdata$x	SEGMENT
__ehfuncinfo$?GetSavedSymbolData_ForUndoRedo@CElementSaverBuilder@@QAE?AV?$CStringT@DV?$StrTraitMFC_DLL@DV?$ChTraitsCRT@D@ATL@@@@@ATL@@ABVCOrder@@PAVCDrawingSymbol@@@Z DD 019930522H
	DD	022H
	DD	FLAT:__unwindtable$?GetSavedSymbolData_ForUndoRedo@CElementSaverBuilder@@QAE?AV?$CStringT@DV?$StrTraitMFC_DLL@DV?$ChTraitsCRT@D@ATL@@@@@ATL@@ABVCOrder@@PAVCDrawingSymbol@@@Z
	DD	2 DUP(00H)
	DD	2 DUP(00H)
	DD	00H
	DD	01H
__unwindtable$?GetSavedSymbolData_ForUndoRedo@CElementSaverBuilder@@QAE?AV?$CStringT@DV?$StrTraitMFC_DLL@DV?$ChTraitsCRT@D@ATL@@@@@ATL@@ABVCOrder@@PAVCDrawingSymbol@@@Z DD 0ffffffffH
	DD	FLAT:__unwindfunclet$?GetSavedSymbolData_ForUndoRedo@CElementSaverBuilder@@QAE?AV?$CStringT@DV?$StrTraitMFC_DLL@DV?$ChTraitsCRT@D@ATL@@@@@ATL@@ABVCOrder@@PAVCDrawingSymbol@@@Z$0
	DD	00H
	DD	FLAT:__unwindfunclet$?GetSavedSymbolData_ForUndoRedo@CElementSaverBuilder@@QAE?AV?$CStringT@DV?$StrTraitMFC_DLL@DV?$ChTraitsCRT@D@ATL@@@@@ATL@@ABVCOrder@@PAVCDrawingSymbol@@@Z$2
	DD	01H
	DD	FLAT:__unwindfunclet$?GetSavedSymbolData_ForUndoRedo@CElementSaverBuilder@@QAE?AV?$CStringT@DV?$StrTraitMFC_DLL@DV?$ChTraitsCRT@D@ATL@@@@@ATL@@ABVCOrder@@PAVCDrawingSymbol@@@Z$3
	DD	02H
	DD	FLAT:__unwindfunclet$?GetSavedSymbolData_ForUndoRedo@CElementSaverBuilder@@QAE?AV?$CStringT@DV?$StrTraitMFC_DLL@DV?$ChTraitsCRT@D@ATL@@@@@ATL@@ABVCOrder@@PAVCDrawingSymbol@@@Z$35
	DD	01H
	DD	FLAT:__unwindfunclet$?GetSavedSymbolData_ForUndoRedo@CElementSaverBuilder@@QAE?AV?$CStringT@DV?$StrTraitMFC_DLL@DV?$ChTraitsCRT@D@ATL@@@@@ATL@@ABVCOrder@@PAVCDrawingSymbol@@@Z$5
	DD	04H
	DD	FLAT:__unwindfunclet$?GetSavedSymbolData_ForUndoRedo@CElementSaverBuilder@@QAE?AV?$CStringT@DV?$StrTraitMFC_DLL@DV?$ChTraitsCRT@D@ATL@@@@@ATL@@ABVCOrder@@PAVCDrawingSymbol@@@Z$36
	DD	01H
	DD	FLAT:__unwindfunclet$?GetSavedSymbolData_ForUndoRedo@CElementSaverBuilder@@QAE?AV?$CStringT@DV?$StrTraitMFC_DLL@DV?$ChTraitsCRT@D@ATL@@@@@ATL@@ABVCOrder@@PAVCDrawingSymbol@@@Z$7
	DD	06H
	DD	FLAT:__unwindfunclet$?GetSavedSymbolData_ForUndoRedo@CElementSaverBuilder@@QAE?AV?$CStringT@DV?$StrTraitMFC_DLL@DV?$ChTraitsCRT@D@ATL@@@@@ATL@@ABVCOrder@@PAVCDrawingSymbol@@@Z$37
	DD	01H
	DD	FLAT:__unwindfunclet$?GetSavedSymbolData_ForUndoRedo@CElementSaverBuilder@@QAE?AV?$CStringT@DV?$StrTraitMFC_DLL@DV?$ChTraitsCRT@D@ATL@@@@@ATL@@ABVCOrder@@PAVCDrawingSymbol@@@Z$9
	DD	08H
	DD	FLAT:__unwindfunclet$?GetSavedSymbolData_ForUndoRedo@CElementSaverBuilder@@QAE?AV?$CStringT@DV?$StrTraitMFC_DLL@DV?$ChTraitsCRT@D@ATL@@@@@ATL@@ABVCOrder@@PAVCDrawingSymbol@@@Z$38
	DD	01H
	DD	FLAT:__unwindfunclet$?GetSavedSymbolData_ForUndoRedo@CElementSaverBuilder@@QAE?AV?$CStringT@DV?$StrTraitMFC_DLL@DV?$ChTraitsCRT@D@ATL@@@@@ATL@@ABVCOrder@@PAVCDrawingSymbol@@@Z$11
	DD	0aH
	DD	FLAT:__unwindfunclet$?GetSavedSymbolData_ForUndoRedo@CElementSaverBuilder@@QAE?AV?$CStringT@DV?$StrTraitMFC_DLL@DV?$ChTraitsCRT@D@ATL@@@@@ATL@@ABVCOrder@@PAVCDrawingSymbol@@@Z$39
	DD	01H
	DD	FLAT:__unwindfunclet$?GetSavedSymbolData_ForUndoRedo@CElementSaverBuilder@@QAE?AV?$CStringT@DV?$StrTraitMFC_DLL@DV?$ChTraitsCRT@D@ATL@@@@@ATL@@ABVCOrder@@PAVCDrawingSymbol@@@Z$13
	DD	0cH
	DD	FLAT:__unwindfunclet$?GetSavedSymbolData_ForUndoRedo@CElementSaverBuilder@@QAE?AV?$CStringT@DV?$StrTraitMFC_DLL@DV?$ChTraitsCRT@D@ATL@@@@@ATL@@ABVCOrder@@PAVCDrawingSymbol@@@Z$40
	DD	01H
	DD	FLAT:__unwindfunclet$?GetSavedSymbolData_ForUndoRedo@CElementSaverBuilder@@QAE?AV?$CStringT@DV?$StrTraitMFC_DLL@DV?$ChTraitsCRT@D@ATL@@@@@ATL@@ABVCOrder@@PAVCDrawingSymbol@@@Z$15
	DD	0eH
	DD	FLAT:__unwindfunclet$?GetSavedSymbolData_ForUndoRedo@CElementSaverBuilder@@QAE?AV?$CStringT@DV?$StrTraitMFC_DLL@DV?$ChTraitsCRT@D@ATL@@@@@ATL@@ABVCOrder@@PAVCDrawingSymbol@@@Z$41
	DD	01H
	DD	FLAT:__unwindfunclet$?GetSavedSymbolData_ForUndoRedo@CElementSaverBuilder@@QAE?AV?$CStringT@DV?$StrTraitMFC_DLL@DV?$ChTraitsCRT@D@ATL@@@@@ATL@@ABVCOrder@@PAVCDrawingSymbol@@@Z$17
	DD	010H
	DD	FLAT:__unwindfunclet$?GetSavedSymbolData_ForUndoRedo@CElementSaverBuilder@@QAE?AV?$CStringT@DV?$StrTraitMFC_DLL@DV?$ChTraitsCRT@D@ATL@@@@@ATL@@ABVCOrder@@PAVCDrawingSymbol@@@Z$42
	DD	01H
	DD	FLAT:__unwindfunclet$?GetSavedSymbolData_ForUndoRedo@CElementSaverBuilder@@QAE?AV?$CStringT@DV?$StrTraitMFC_DLL@DV?$ChTraitsCRT@D@ATL@@@@@ATL@@ABVCOrder@@PAVCDrawingSymbol@@@Z$19
	DD	012H
	DD	FLAT:__unwindfunclet$?GetSavedSymbolData_ForUndoRedo@CElementSaverBuilder@@QAE?AV?$CStringT@DV?$StrTraitMFC_DLL@DV?$ChTraitsCRT@D@ATL@@@@@ATL@@ABVCOrder@@PAVCDrawingSymbol@@@Z$43
	DD	01H
	DD	FLAT:__unwindfunclet$?GetSavedSymbolData_ForUndoRedo@CElementSaverBuilder@@QAE?AV?$CStringT@DV?$StrTraitMFC_DLL@DV?$ChTraitsCRT@D@ATL@@@@@ATL@@ABVCOrder@@PAVCDrawingSymbol@@@Z$21
	DD	014H
	DD	FLAT:__unwindfunclet$?GetSavedSymbolData_ForUndoRedo@CElementSaverBuilder@@QAE?AV?$CStringT@DV?$StrTraitMFC_DLL@DV?$ChTraitsCRT@D@ATL@@@@@ATL@@ABVCOrder@@PAVCDrawingSymbol@@@Z$44
	DD	01H
	DD	FLAT:__unwindfunclet$?GetSavedSymbolData_ForUndoRedo@CElementSaverBuilder@@QAE?AV?$CStringT@DV?$StrTraitMFC_DLL@DV?$ChTraitsCRT@D@ATL@@@@@ATL@@ABVCOrder@@PAVCDrawingSymbol@@@Z$23
	DD	016H
	DD	FLAT:__unwindfunclet$?GetSavedSymbolData_ForUndoRedo@CElementSaverBuilder@@QAE?AV?$CStringT@DV?$StrTraitMFC_DLL@DV?$ChTraitsCRT@D@ATL@@@@@ATL@@ABVCOrder@@PAVCDrawingSymbol@@@Z$45
	DD	01H
	DD	FLAT:__unwindfunclet$?GetSavedSymbolData_ForUndoRedo@CElementSaverBuilder@@QAE?AV?$CStringT@DV?$StrTraitMFC_DLL@DV?$ChTraitsCRT@D@ATL@@@@@ATL@@ABVCOrder@@PAVCDrawingSymbol@@@Z$25
	DD	018H
	DD	FLAT:__unwindfunclet$?GetSavedSymbolData_ForUndoRedo@CElementSaverBuilder@@QAE?AV?$CStringT@DV?$StrTraitMFC_DLL@DV?$ChTraitsCRT@D@ATL@@@@@ATL@@ABVCOrder@@PAVCDrawingSymbol@@@Z$46
	DD	01H
	DD	FLAT:__unwindfunclet$?GetSavedSymbolData_ForUndoRedo@CElementSaverBuilder@@QAE?AV?$CStringT@DV?$StrTraitMFC_DLL@DV?$ChTraitsCRT@D@ATL@@@@@ATL@@ABVCOrder@@PAVCDrawingSymbol@@@Z$27
	DD	01aH
	DD	FLAT:__unwindfunclet$?GetSavedSymbolData_ForUndoRedo@CElementSaverBuilder@@QAE?AV?$CStringT@DV?$StrTraitMFC_DLL@DV?$ChTraitsCRT@D@ATL@@@@@ATL@@ABVCOrder@@PAVCDrawingSymbol@@@Z$47
	DD	01H
	DD	FLAT:__unwindfunclet$?GetSavedSymbolData_ForUndoRedo@CElementSaverBuilder@@QAE?AV?$CStringT@DV?$StrTraitMFC_DLL@DV?$ChTraitsCRT@D@ATL@@@@@ATL@@ABVCOrder@@PAVCDrawingSymbol@@@Z$29
	DD	01cH
	DD	FLAT:__unwindfunclet$?GetSavedSymbolData_ForUndoRedo@CElementSaverBuilder@@QAE?AV?$CStringT@DV?$StrTraitMFC_DLL@DV?$ChTraitsCRT@D@ATL@@@@@ATL@@ABVCOrder@@PAVCDrawingSymbol@@@Z$48
	DD	01H
	DD	FLAT:__unwindfunclet$?GetSavedSymbolData_ForUndoRedo@CElementSaverBuilder@@QAE?AV?$CStringT@DV?$StrTraitMFC_DLL@DV?$ChTraitsCRT@D@ATL@@@@@ATL@@ABVCOrder@@PAVCDrawingSymbol@@@Z$31
	DD	01eH
	DD	FLAT:__unwindfunclet$?GetSavedSymbolData_ForUndoRedo@CElementSaverBuilder@@QAE?AV?$CStringT@DV?$StrTraitMFC_DLL@DV?$ChTraitsCRT@D@ATL@@@@@ATL@@ABVCOrder@@PAVCDrawingSymbol@@@Z$49
	DD	01H
	DD	FLAT:__unwindfunclet$?GetSavedSymbolData_ForUndoRedo@CElementSaverBuilder@@QAE?AV?$CStringT@DV?$StrTraitMFC_DLL@DV?$ChTraitsCRT@D@ATL@@@@@ATL@@ABVCOrder@@PAVCDrawingSymbol@@@Z$33
	DD	020H
	DD	FLAT:__unwindfunclet$?GetSavedSymbolData_ForUndoRedo@CElementSaverBuilder@@QAE?AV?$CStringT@DV?$StrTraitMFC_DLL@DV?$ChTraitsCRT@D@ATL@@@@@ATL@@ABVCOrder@@PAVCDrawingSymbol@@@Z$50
xdata$x	ENDS
;	COMDAT xdata$x
xdata$x	SEGMENT
__ehfuncinfo$?BuildSymbolsFromString@CElementSaverBuilder@@QAEXW4HORZSCALEDRAWERTYPE@CScaleBaseData@@ABV?$CStringT@DV?$StrTraitMFC_DLL@DV?$ChTraitsCRT@D@ATL@@@@@ATL@@AAVCTree@@AAVCOrder@@@Z DD 019930522H
	DD	05H
	DD	FLAT:__unwindtable$?BuildSymbolsFromString@CElementSaverBuilder@@QAEXW4HORZSCALEDRAWERTYPE@CScaleBaseData@@ABV?$CStringT@DV?$StrTraitMFC_DLL@DV?$ChTraitsCRT@D@ATL@@@@@ATL@@AAVCTree@@AAVCOrder@@@Z
	DD	2 DUP(00H)
	DD	2 DUP(00H)
	DD	00H
	DD	01H
__unwindtable$?BuildSymbolsFromString@CElementSaverBuilder@@QAEXW4HORZSCALEDRAWERTYPE@CScaleBaseData@@ABV?$CStringT@DV?$StrTraitMFC_DLL@DV?$ChTraitsCRT@D@ATL@@@@@ATL@@AAVCTree@@AAVCOrder@@@Z DD 0ffffffffH
	DD	FLAT:__unwindfunclet$?BuildSymbolsFromString@CElementSaverBuilder@@QAEXW4HORZSCALEDRAWERTYPE@CScaleBaseData@@ABV?$CStringT@DV?$StrTraitMFC_DLL@DV?$ChTraitsCRT@D@ATL@@@@@ATL@@AAVCTree@@AAVCOrder@@@Z$0
	DD	00H
	DD	FLAT:__unwindfunclet$?BuildSymbolsFromString@CElementSaverBuilder@@QAEXW4HORZSCALEDRAWERTYPE@CScaleBaseData@@ABV?$CStringT@DV?$StrTraitMFC_DLL@DV?$ChTraitsCRT@D@ATL@@@@@ATL@@AAVCTree@@AAVCOrder@@@Z$1
	DD	01H
	DD	FLAT:__unwindfunclet$?BuildSymbolsFromString@CElementSaverBuilder@@QAEXW4HORZSCALEDRAWERTYPE@CScaleBaseData@@ABV?$CStringT@DV?$StrTraitMFC_DLL@DV?$ChTraitsCRT@D@ATL@@@@@ATL@@AAVCTree@@AAVCOrder@@@Z$2
	DD	01H
	DD	FLAT:__unwindfunclet$?BuildSymbolsFromString@CElementSaverBuilder@@QAEXW4HORZSCALEDRAWERTYPE@CScaleBaseData@@ABV?$CStringT@DV?$StrTraitMFC_DLL@DV?$ChTraitsCRT@D@ATL@@@@@ATL@@AAVCTree@@AAVCOrder@@@Z$3
	DD	03H
	DD	FLAT:__unwindfunclet$?BuildSymbolsFromString@CElementSaverBuilder@@QAEXW4HORZSCALEDRAWERTYPE@CScaleBaseData@@ABV?$CStringT@DV?$StrTraitMFC_DLL@DV?$ChTraitsCRT@D@ATL@@@@@ATL@@AAVCTree@@AAVCOrder@@@Z$4
xdata$x	ENDS
;	COMDAT xdata$x
xdata$x	SEGMENT
__ehfuncinfo$?GetSavedSymbolsData@CElementSaverBuilder@@QAE?AV?$CStringT@DV?$StrTraitMFC_DLL@DV?$ChTraitsCRT@D@ATL@@@@@ATL@@ABVCOrder@@PAV?$CList@PAVCDrawingSymbol@@PAV1@@@@Z DD 019930522H
	DD	022H
	DD	FLAT:__unwindtable$?GetSavedSymbolsData@CElementSaverBuilder@@QAE?AV?$CStringT@DV?$StrTraitMFC_DLL@DV?$ChTraitsCRT@D@ATL@@@@@ATL@@ABVCOrder@@PAV?$CList@PAVCDrawingSymbol@@PAV1@@@@Z
	DD	2 DUP(00H)
	DD	2 DUP(00H)
	DD	00H
	DD	01H
__unwindtable$?GetSavedSymbolsData@CElementSaverBuilder@@QAE?AV?$CStringT@DV?$StrTraitMFC_DLL@DV?$ChTraitsCRT@D@ATL@@@@@ATL@@ABVCOrder@@PAV?$CList@PAVCDrawingSymbol@@PAV1@@@@Z DD 0ffffffffH
	DD	FLAT:__unwindfunclet$?GetSavedSymbolsData@CElementSaverBuilder@@QAE?AV?$CStringT@DV?$StrTraitMFC_DLL@DV?$ChTraitsCRT@D@ATL@@@@@ATL@@ABVCOrder@@PAV?$CList@PAVCDrawingSymbol@@PAV1@@@@Z$0
	DD	00H
	DD	FLAT:__unwindfunclet$?GetSavedSymbolsData@CElementSaverBuilder@@QAE?AV?$CStringT@DV?$StrTraitMFC_DLL@DV?$ChTraitsCRT@D@ATL@@@@@ATL@@ABVCOrder@@PAV?$CList@PAVCDrawingSymbol@@PAV1@@@@Z$1
	DD	01H
	DD	FLAT:__unwindfunclet$?GetSavedSymbolsData@CElementSaverBuilder@@QAE?AV?$CStringT@DV?$StrTraitMFC_DLL@DV?$ChTraitsCRT@D@ATL@@@@@ATL@@ABVCOrder@@PAV?$CList@PAVCDrawingSymbol@@PAV1@@@@Z$3
	DD	02H
	DD	FLAT:__unwindfunclet$?GetSavedSymbolsData@CElementSaverBuilder@@QAE?AV?$CStringT@DV?$StrTraitMFC_DLL@DV?$ChTraitsCRT@D@ATL@@@@@ATL@@ABVCOrder@@PAV?$CList@PAVCDrawingSymbol@@PAV1@@@@Z$35
	DD	01H
	DD	FLAT:__unwindfunclet$?GetSavedSymbolsData@CElementSaverBuilder@@QAE?AV?$CStringT@DV?$StrTraitMFC_DLL@DV?$ChTraitsCRT@D@ATL@@@@@ATL@@ABVCOrder@@PAV?$CList@PAVCDrawingSymbol@@PAV1@@@@Z$5
	DD	04H
	DD	FLAT:__unwindfunclet$?GetSavedSymbolsData@CElementSaverBuilder@@QAE?AV?$CStringT@DV?$StrTraitMFC_DLL@DV?$ChTraitsCRT@D@ATL@@@@@ATL@@ABVCOrder@@PAV?$CList@PAVCDrawingSymbol@@PAV1@@@@Z$36
	DD	01H
	DD	FLAT:__unwindfunclet$?GetSavedSymbolsData@CElementSaverBuilder@@QAE?AV?$CStringT@DV?$StrTraitMFC_DLL@DV?$ChTraitsCRT@D@ATL@@@@@ATL@@ABVCOrder@@PAV?$CList@PAVCDrawingSymbol@@PAV1@@@@Z$7
	DD	06H
	DD	FLAT:__unwindfunclet$?GetSavedSymbolsData@CElementSaverBuilder@@QAE?AV?$CStringT@DV?$StrTraitMFC_DLL@DV?$ChTraitsCRT@D@ATL@@@@@ATL@@ABVCOrder@@PAV?$CList@PAVCDrawingSymbol@@PAV1@@@@Z$37
	DD	01H
	DD	FLAT:__unwindfunclet$?GetSavedSymbolsData@CElementSaverBuilder@@QAE?AV?$CStringT@DV?$StrTraitMFC_DLL@DV?$ChTraitsCRT@D@ATL@@@@@ATL@@ABVCOrder@@PAV?$CList@PAVCDrawingSymbol@@PAV1@@@@Z$9
	DD	08H
	DD	FLAT:__unwindfunclet$?GetSavedSymbolsData@CElementSaverBuilder@@QAE?AV?$CStringT@DV?$StrTraitMFC_DLL@DV?$ChTraitsCRT@D@ATL@@@@@ATL@@ABVCOrder@@PAV?$CList@PAVCDrawingSymbol@@PAV1@@@@Z$38
	DD	01H
	DD	FLAT:__unwindfunclet$?GetSavedSymbolsData@CElementSaverBuilder@@QAE?AV?$CStringT@DV?$StrTraitMFC_DLL@DV?$ChTraitsCRT@D@ATL@@@@@ATL@@ABVCOrder@@PAV?$CList@PAVCDrawingSymbol@@PAV1@@@@Z$11
	DD	0aH
	DD	FLAT:__unwindfunclet$?GetSavedSymbolsData@CElementSaverBuilder@@QAE?AV?$CStringT@DV?$StrTraitMFC_DLL@DV?$ChTraitsCRT@D@ATL@@@@@ATL@@ABVCOrder@@PAV?$CList@PAVCDrawingSymbol@@PAV1@@@@Z$39
	DD	01H
	DD	FLAT:__unwindfunclet$?GetSavedSymbolsData@CElementSaverBuilder@@QAE?AV?$CStringT@DV?$StrTraitMFC_DLL@DV?$ChTraitsCRT@D@ATL@@@@@ATL@@ABVCOrder@@PAV?$CList@PAVCDrawingSymbol@@PAV1@@@@Z$13
	DD	0cH
	DD	FLAT:__unwindfunclet$?GetSavedSymbolsData@CElementSaverBuilder@@QAE?AV?$CStringT@DV?$StrTraitMFC_DLL@DV?$ChTraitsCRT@D@ATL@@@@@ATL@@ABVCOrder@@PAV?$CList@PAVCDrawingSymbol@@PAV1@@@@Z$40
	DD	01H
	DD	FLAT:__unwindfunclet$?GetSavedSymbolsData@CElementSaverBuilder@@QAE?AV?$CStringT@DV?$StrTraitMFC_DLL@DV?$ChTraitsCRT@D@ATL@@@@@ATL@@ABVCOrder@@PAV?$CList@PAVCDrawingSymbol@@PAV1@@@@Z$15
	DD	0eH
	DD	FLAT:__unwindfunclet$?GetSavedSymbolsData@CElementSaverBuilder@@QAE?AV?$CStringT@DV?$StrTraitMFC_DLL@DV?$ChTraitsCRT@D@ATL@@@@@ATL@@ABVCOrder@@PAV?$CList@PAVCDrawingSymbol@@PAV1@@@@Z$41
	DD	01H
	DD	FLAT:__unwindfunclet$?GetSavedSymbolsData@CElementSaverBuilder@@QAE?AV?$CStringT@DV?$StrTraitMFC_DLL@DV?$ChTraitsCRT@D@ATL@@@@@ATL@@ABVCOrder@@PAV?$CList@PAVCDrawingSymbol@@PAV1@@@@Z$17
	DD	010H
	DD	FLAT:__unwindfunclet$?GetSavedSymbolsData@CElementSaverBuilder@@QAE?AV?$CStringT@DV?$StrTraitMFC_DLL@DV?$ChTraitsCRT@D@ATL@@@@@ATL@@ABVCOrder@@PAV?$CList@PAVCDrawingSymbol@@PAV1@@@@Z$42
	DD	01H
	DD	FLAT:__unwindfunclet$?GetSavedSymbolsData@CElementSaverBuilder@@QAE?AV?$CStringT@DV?$StrTraitMFC_DLL@DV?$ChTraitsCRT@D@ATL@@@@@ATL@@ABVCOrder@@PAV?$CList@PAVCDrawingSymbol@@PAV1@@@@Z$19
	DD	012H
	DD	FLAT:__unwindfunclet$?GetSavedSymbolsData@CElementSaverBuilder@@QAE?AV?$CStringT@DV?$StrTraitMFC_DLL@DV?$ChTraitsCRT@D@ATL@@@@@ATL@@ABVCOrder@@PAV?$CList@PAVCDrawingSymbol@@PAV1@@@@Z$43
	DD	01H
	DD	FLAT:__unwindfunclet$?GetSavedSymbolsData@CElementSaverBuilder@@QAE?AV?$CStringT@DV?$StrTraitMFC_DLL@DV?$ChTraitsCRT@D@ATL@@@@@ATL@@ABVCOrder@@PAV?$CList@PAVCDrawingSymbol@@PAV1@@@@Z$21
	DD	014H
	DD	FLAT:__unwindfunclet$?GetSavedSymbolsData@CElementSaverBuilder@@QAE?AV?$CStringT@DV?$StrTraitMFC_DLL@DV?$ChTraitsCRT@D@ATL@@@@@ATL@@ABVCOrder@@PAV?$CList@PAVCDrawingSymbol@@PAV1@@@@Z$44
	DD	01H
	DD	FLAT:__unwindfunclet$?GetSavedSymbolsData@CElementSaverBuilder@@QAE?AV?$CStringT@DV?$StrTraitMFC_DLL@DV?$ChTraitsCRT@D@ATL@@@@@ATL@@ABVCOrder@@PAV?$CList@PAVCDrawingSymbol@@PAV1@@@@Z$23
	DD	016H
	DD	FLAT:__unwindfunclet$?GetSavedSymbolsData@CElementSaverBuilder@@QAE?AV?$CStringT@DV?$StrTraitMFC_DLL@DV?$ChTraitsCRT@D@ATL@@@@@ATL@@ABVCOrder@@PAV?$CList@PAVCDrawingSymbol@@PAV1@@@@Z$45
	DD	01H
	DD	FLAT:__unwindfunclet$?GetSavedSymbolsData@CElementSaverBuilder@@QAE?AV?$CStringT@DV?$StrTraitMFC_DLL@DV?$ChTraitsCRT@D@ATL@@@@@ATL@@ABVCOrder@@PAV?$CList@PAVCDrawingSymbol@@PAV1@@@@Z$25
	DD	018H
	DD	FLAT:__unwindfunclet$?GetSavedSymbolsData@CElementSaverBuilder@@QAE?AV?$CStringT@DV?$StrTraitMFC_DLL@DV?$ChTraitsCRT@D@ATL@@@@@ATL@@ABVCOrder@@PAV?$CList@PAVCDrawingSymbol@@PAV1@@@@Z$46
	DD	01H
	DD	FLAT:__unwindfunclet$?GetSavedSymbolsData@CElementSaverBuilder@@QAE?AV?$CStringT@DV?$StrTraitMFC_DLL@DV?$ChTraitsCRT@D@ATL@@@@@ATL@@ABVCOrder@@PAV?$CList@PAVCDrawingSymbol@@PAV1@@@@Z$27
	DD	01aH
	DD	FLAT:__unwindfunclet$?GetSavedSymbolsData@CElementSaverBuilder@@QAE?AV?$CStringT@DV?$StrTraitMFC_DLL@DV?$ChTraitsCRT@D@ATL@@@@@ATL@@ABVCOrder@@PAV?$CList@PAVCDrawingSymbol@@PAV1@@@@Z$47
	DD	01H
	DD	FLAT:__unwindfunclet$?GetSavedSymbolsData@CElementSaverBuilder@@QAE?AV?$CStringT@DV?$StrTraitMFC_DLL@DV?$ChTraitsCRT@D@ATL@@@@@ATL@@ABVCOrder@@PAV?$CList@PAVCDrawingSymbol@@PAV1@@@@Z$29
	DD	01cH
	DD	FLAT:__unwindfunclet$?GetSavedSymbolsData@CElementSaverBuilder@@QAE?AV?$CStringT@DV?$StrTraitMFC_DLL@DV?$ChTraitsCRT@D@ATL@@@@@ATL@@ABVCOrder@@PAV?$CList@PAVCDrawingSymbol@@PAV1@@@@Z$48
	DD	01H
	DD	FLAT:__unwindfunclet$?GetSavedSymbolsData@CElementSaverBuilder@@QAE?AV?$CStringT@DV?$StrTraitMFC_DLL@DV?$ChTraitsCRT@D@ATL@@@@@ATL@@ABVCOrder@@PAV?$CList@PAVCDrawingSymbol@@PAV1@@@@Z$31
	DD	01eH
	DD	FLAT:__unwindfunclet$?GetSavedSymbolsData@CElementSaverBuilder@@QAE?AV?$CStringT@DV?$StrTraitMFC_DLL@DV?$ChTraitsCRT@D@ATL@@@@@ATL@@ABVCOrder@@PAV?$CList@PAVCDrawingSymbol@@PAV1@@@@Z$49
	DD	01H
	DD	FLAT:__unwindfunclet$?GetSavedSymbolsData@CElementSaverBuilder@@QAE?AV?$CStringT@DV?$StrTraitMFC_DLL@DV?$ChTraitsCRT@D@ATL@@@@@ATL@@ABVCOrder@@PAV?$CList@PAVCDrawingSymbol@@PAV1@@@@Z$33
	DD	020H
	DD	FLAT:__unwindfunclet$?GetSavedSymbolsData@CElementSaverBuilder@@QAE?AV?$CStringT@DV?$StrTraitMFC_DLL@DV?$ChTraitsCRT@D@ATL@@@@@ATL@@ABVCOrder@@PAV?$CList@PAVCDrawingSymbol@@PAV1@@@@Z$50
xdata$x	ENDS
;	COMDAT xdata$x
xdata$x	SEGMENT
__unwindtable$??_G?$CList@PAVCOrderAndElement@@PAV1@@@UAEPAXI@Z DD 0ffffffffH
	DD	FLAT:___std_terminate
__ehfuncinfo$??_G?$CList@PAVCOrderAndElement@@PAV1@@@UAEPAXI@Z DD 019930522H
	DD	01H
	DD	FLAT:__unwindtable$??_G?$CList@PAVCOrderAndElement@@PAV1@@@UAEPAXI@Z
	DD	2 DUP(00H)
	DD	2 DUP(00H)
	DD	00H
	DD	05H
xdata$x	ENDS
;	COMDAT xdata$x
xdata$x	SEGMENT
__ehfuncinfo$??1?$CList@PAVCOrderAndElement@@PAV1@@@UAE@XZ DD 019930522H
	DD	00H
	DD	00H
	DD	2 DUP(00H)
	DD	2 DUP(00H)
	DD	00H
	DD	05H
xdata$x	ENDS
;	COMDAT xdata$x
xdata$x	SEGMENT
__unwindtable$??HATL@@YA?AV?$CStringT@DV?$StrTraitMFC_DLL@DV?$ChTraitsCRT@D@ATL@@@@@0@ABV10@PBD@Z DD 0ffffffffH
	DD	FLAT:__unwindfunclet$??HATL@@YA?AV?$CStringT@DV?$StrTraitMFC_DLL@DV?$ChTraitsCRT@D@ATL@@@@@0@ABV10@PBD@Z$0
__ehfuncinfo$??HATL@@YA?AV?$CStringT@DV?$StrTraitMFC_DLL@DV?$ChTraitsCRT@D@ATL@@@@@0@ABV10@PBD@Z DD 019930522H
	DD	01H
	DD	FLAT:__unwindtable$??HATL@@YA?AV?$CStringT@DV?$StrTraitMFC_DLL@DV?$ChTraitsCRT@D@ATL@@@@@0@ABV10@PBD@Z
	DD	2 DUP(00H)
	DD	2 DUP(00H)
	DD	00H
	DD	01H
xdata$x	ENDS
;	COMDAT xdata$x
xdata$x	SEGMENT
__unwindtable$??HATL@@YA?AV?$CStringT@DV?$StrTraitMFC_DLL@DV?$ChTraitsCRT@D@ATL@@@@@0@ABV10@0@Z DD 0ffffffffH
	DD	FLAT:__unwindfunclet$??HATL@@YA?AV?$CStringT@DV?$StrTraitMFC_DLL@DV?$ChTraitsCRT@D@ATL@@@@@0@ABV10@0@Z$0
__ehfuncinfo$??HATL@@YA?AV?$CStringT@DV?$StrTraitMFC_DLL@DV?$ChTraitsCRT@D@ATL@@@@@0@ABV10@0@Z DD 019930522H
	DD	01H
	DD	FLAT:__unwindtable$??HATL@@YA?AV?$CStringT@DV?$StrTraitMFC_DLL@DV?$ChTraitsCRT@D@ATL@@@@@0@ABV10@0@Z
	DD	2 DUP(00H)
	DD	2 DUP(00H)
	DD	00H
	DD	01H
xdata$x	ENDS
; Function compile flags: /Ogtp
; File C:\Program Files (x86)\Microsoft Visual Studio\2019\Community\VC\Tools\MSVC\14.29.30133\atlmfc\include\afxtempl.h
; File C:\Program Files (x86)\Microsoft Visual Studio\2019\Community\VC\Tools\MSVC\14.29.30133\atlmfc\include\afx.inl
; File C:\Program Files (x86)\Microsoft Visual Studio\2019\Community\VC\Tools\MSVC\14.29.30133\atlmfc\include\afxtempl.h
; File C:\Program Files (x86)\Microsoft Visual Studio\2019\Community\VC\Tools\MSVC\14.29.30133\atlmfc\include\afx.inl
; File C:\Program Files (x86)\Microsoft Visual Studio\2019\Community\VC\Tools\MSVC\14.29.30133\atlmfc\include\afxtempl.h
; File C:\Program Files (x86)\Microsoft Visual Studio\2019\Community\VC\Tools\MSVC\14.29.30133\atlmfc\include\afx.inl
; File C:\Program Files (x86)\Microsoft Visual Studio\2019\Community\VC\Tools\MSVC\14.29.30133\atlmfc\include\afxtempl.h
;	COMDAT ??$SerializeElements@PAVCOrderAndElement@@@@YGXAAVCArchive@@PAPAVCOrderAndElement@@H@Z
_TEXT	SEGMENT
_ar$ = 8						; size = 4
_pElements$ = 12					; size = 4
_nCount$ = 16						; size = 4
??$SerializeElements@PAVCOrderAndElement@@@@YGXAAVCArchive@@PAPAVCOrderAndElement@@H@Z PROC ; SerializeElements<COrderAndElement *>, COMDAT

; 67   : {

  00000	55		 push	 ebp
  00001	8b ec		 mov	 ebp, esp

; 68   : 	ENSURE(nCount == 0 || pElements != NULL);

  00003	8b 4d 0c	 mov	 ecx, DWORD PTR _pElements$[ebp]
  00006	53		 push	 ebx
  00007	56		 push	 esi
  00008	8b 75 10	 mov	 esi, DWORD PTR _nCount$[ebp]
  0000b	57		 push	 edi
  0000c	85 f6		 test	 esi, esi
  0000e	74 08		 je	 SHORT $LN2@SerializeE
  00010	85 c9		 test	 ecx, ecx
  00012	0f 84 89 00 00
	00		 je	 $LN34@SerializeE
$LN2@SerializeE:
; File C:\Program Files (x86)\Microsoft Visual Studio\2019\Community\VC\Tools\MSVC\14.29.30133\atlmfc\include\afx.inl

; 212  : 	{ return (m_nMode & CArchive::load) == 0; }

  00018	8b 55 08	 mov	 edx, DWORD PTR _ar$[ebp]
  0001b	8b 42 18	 mov	 eax, DWORD PTR [edx+24]
  0001e	f7 d0		 not	 eax
  00020	a8 01		 test	 al, 1
; File C:\Program Files (x86)\Microsoft Visual Studio\2019\Community\VC\Tools\MSVC\14.29.30133\atlmfc\include\afxtempl.h

; 73   : 	if (ar.IsStoring())

  00022	74 3c		 je	 SHORT $LN10@SerializeE

; 74   : 	{
; 75   : 		TYPE* pData;
; 76   : 		UINT_PTR nElementsLeft;
; 77   : 
; 78   : 		nElementsLeft = nCount;
; 79   : 		pData = pElements;
; 80   : 		while( nElementsLeft > 0 )

  00024	85 f6		 test	 esi, esi
  00026	74 31		 je	 SHORT $LN8@SerializeE
  00028	0f 1f 84 00 00
	00 00 00	 npad	 8
$LL5@SerializeE:

; 81   : 		{
; 82   : 			UINT nElementsToWrite;
; 83   : 
; 84   : 			nElementsToWrite = UINT(__min(nElementsLeft, INT_MAX/sizeof(TYPE)));

  00030	bb ff ff ff 1f	 mov	 ebx, 536870911		; 1fffffffH
  00035	3b f3		 cmp	 esi, ebx
  00037	0f 42 de	 cmovb	 ebx, esi

; 85   : 			ar.Write(pData, nElementsToWrite*sizeof(TYPE));

  0003a	8d 3c 9d 00 00
	00 00		 lea	 edi, DWORD PTR [ebx*4]
  00041	57		 push	 edi
  00042	51		 push	 ecx
  00043	8b ca		 mov	 ecx, edx
  00045	e8 00 00 00 00	 call	 ?Write@CArchive@@QAEXPBXI@Z ; CArchive::Write

; 86   : 			nElementsLeft -= nElementsToWrite;
; 87   : 			pData += nElementsToWrite;

  0004a	8b 4d 0c	 mov	 ecx, DWORD PTR _pElements$[ebp]
  0004d	8b 55 08	 mov	 edx, DWORD PTR _ar$[ebp]
  00050	03 cf		 add	 ecx, edi
  00052	89 4d 0c	 mov	 DWORD PTR _pElements$[ebp], ecx
  00055	2b f3		 sub	 esi, ebx
  00057	75 d7		 jne	 SHORT $LL5@SerializeE
$LN8@SerializeE:
  00059	5f		 pop	 edi

; 105  : 		}
; 106  : 	}
; 107  : }

  0005a	5e		 pop	 esi
  0005b	5b		 pop	 ebx
  0005c	5d		 pop	 ebp
  0005d	c2 0c 00	 ret	 12			; 0000000cH
$LN10@SerializeE:

; 97   : 		while( nElementsLeft > 0 )

  00060	85 f6		 test	 esi, esi
  00062	74 f5		 je	 SHORT $LN8@SerializeE
$LL7@SerializeE:

; 98   : 		{
; 99   : 			UINT nElementsToRead;
; 100  : 
; 101  : 			nElementsToRead = UINT(__min(nElementsLeft, INT_MAX/sizeof(TYPE)));

  00064	bf ff ff ff 1f	 mov	 edi, 536870911		; 1fffffffH
  00069	3b f7		 cmp	 esi, edi
  0006b	0f 42 fe	 cmovb	 edi, esi

; 102  : 			ar.EnsureRead(pData, nElementsToRead*sizeof(TYPE));

  0006e	8d 1c bd 00 00
	00 00		 lea	 ebx, DWORD PTR [edi*4]
; File C:\Program Files (x86)\Microsoft Visual Studio\2019\Community\VC\Tools\MSVC\14.29.30133\atlmfc\include\afx.inl

; 399  : 	UINT nRead=Read(lpBuf, nCount);

  00075	53		 push	 ebx
  00076	51		 push	 ecx
  00077	8b ca		 mov	 ecx, edx
  00079	e8 00 00 00 00	 call	 ?Read@CArchive@@QAEIPAXI@Z ; CArchive::Read

; 400  : 	if(nRead!=nCount)

  0007e	3b c3		 cmp	 eax, ebx
  00080	75 16		 jne	 SHORT $LN23@SerializeE
; File C:\Program Files (x86)\Microsoft Visual Studio\2019\Community\VC\Tools\MSVC\14.29.30133\atlmfc\include\afxtempl.h

; 97   : 		while( nElementsLeft > 0 )

  00082	8b 4d 0c	 mov	 ecx, DWORD PTR _pElements$[ebp]
  00085	8b 55 08	 mov	 edx, DWORD PTR _ar$[ebp]

; 103  : 			nElementsLeft -= nElementsToRead;
; 104  : 			pData += nElementsToRead;

  00088	03 cb		 add	 ecx, ebx
  0008a	89 4d 0c	 mov	 DWORD PTR _pElements$[ebp], ecx
  0008d	2b f7		 sub	 esi, edi
  0008f	75 d3		 jne	 SHORT $LL7@SerializeE

; 105  : 		}
; 106  : 	}
; 107  : }

  00091	5f		 pop	 edi
  00092	5e		 pop	 esi
  00093	5b		 pop	 ebx
  00094	5d		 pop	 ebp
  00095	c2 0c 00	 ret	 12			; 0000000cH
$LN23@SerializeE:
; File C:\Program Files (x86)\Microsoft Visual Studio\2019\Community\VC\Tools\MSVC\14.29.30133\atlmfc\include\afx.inl

; 402  : 		AfxThrowArchiveException(CArchiveException::endOfFile);

  00098	6a 00		 push	 0
  0009a	6a 03		 push	 3
  0009c	e8 00 00 00 00	 call	 ?AfxThrowArchiveException@@YGXHPBD@Z ; AfxThrowArchiveException
$LN34@SerializeE:
; File C:\Program Files (x86)\Microsoft Visual Studio\2019\Community\VC\Tools\MSVC\14.29.30133\atlmfc\include\afxtempl.h

; 68   : 	ENSURE(nCount == 0 || pElements != NULL);

  000a1	e8 00 00 00 00	 call	 ?AfxThrowInvalidArgException@@YGXXZ ; AfxThrowInvalidArgException
$LN32@SerializeE:
  000a6	cc		 int	 3
??$SerializeElements@PAVCOrderAndElement@@@@YGXAAVCArchive@@PAPAVCOrderAndElement@@H@Z ENDP ; SerializeElements<COrderAndElement *>
_TEXT	ENDS
; Function compile flags: /Ogtp
; File D:\git\src\IBK\IBK_DRFN\ProjSrc\SrcChartEx\ChartAddIn\ChartAnalysisToolAddIn\Symbol\ElementSaverBuilder.cpp
; File C:\Program Files (x86)\Microsoft Visual Studio\2019\Community\VC\Tools\MSVC\14.29.30133\atlmfc\include\cstringt.h
; File D:\git\src\IBK\IBK_DRFN\ProjSrc\SrcChartEx\ChartAddIn\ChartAnalysisToolAddIn\Symbol\ElementSaverBuilder.cpp
; File C:\Program Files (x86)\Microsoft Visual Studio\2019\Community\VC\Tools\MSVC\14.29.30133\atlmfc\include\cstringt.h
; File D:\git\src\IBK\IBK_DRFN\ProjSrc\SrcChartEx\ChartAddIn\ChartAnalysisToolAddIn\Symbol\ElementSaverBuilder.cpp
; File C:\Program Files (x86)\Microsoft Visual Studio\2019\Community\VC\Tools\MSVC\14.29.30133\atlmfc\include\atlsimpstr.h
; File D:\git\src\IBK\IBK_DRFN\ProjSrc\SrcChartEx\ChartAddIn\ChartAnalysisToolAddIn\Symbol\ElementSaverBuilder.cpp
; File C:\Program Files (x86)\Microsoft Visual Studio\2019\Community\VC\Tools\MSVC\14.29.30133\atlmfc\include\atltime.h
; File D:\git\src\IBK\IBK_DRFN\ProjSrc\SrcChartEx\ChartAddIn\ChartAnalysisToolAddIn\Symbol\ElementSaverBuilder.cpp
; File C:\Program Files (x86)\Microsoft Visual Studio\2019\Community\VC\Tools\MSVC\14.29.30133\atlmfc\include\atltime.h
; File D:\git\src\IBK\IBK_DRFN\ProjSrc\SrcChartEx\ChartAddIn\ChartAnalysisToolAddIn\Symbol\ElementSaverBuilder.cpp
; File C:\Program Files (x86)\Microsoft Visual Studio\2019\Community\VC\Tools\MSVC\14.29.30133\atlmfc\include\atltime.h
; File D:\git\src\IBK\IBK_DRFN\ProjSrc\SrcChartEx\ChartAddIn\ChartAnalysisToolAddIn\Symbol\ElementSaverBuilder.cpp
; File C:\Program Files (x86)\Microsoft Visual Studio\2019\Community\VC\Tools\MSVC\14.29.30133\atlmfc\include\atltime.h
; File D:\git\src\IBK\IBK_DRFN\ProjSrc\SrcChartEx\ChartAddIn\ChartAnalysisToolAddIn\Symbol\ElementSaverBuilder.cpp
; File C:\Program Files (x86)\Microsoft Visual Studio\2019\Community\VC\Tools\MSVC\14.29.30133\atlmfc\include\atltime.h
; File D:\git\src\IBK\IBK_DRFN\ProjSrc\SrcChartEx\ChartAddIn\ChartAnalysisToolAddIn\Symbol\ElementSaverBuilder.cpp
; File C:\Program Files (x86)\Microsoft Visual Studio\2019\Community\VC\Tools\MSVC\14.29.30133\atlmfc\include\cstringt.h
; File D:\git\src\IBK\IBK_DRFN\ProjSrc\SrcChartEx\ChartAddIn\ChartAnalysisToolAddIn\Symbol\ElementSaverBuilder.cpp
; File C:\Program Files (x86)\Microsoft Visual Studio\2019\Community\VC\Tools\MSVC\14.29.30133\atlmfc\include\cstringt.h
; File D:\git\src\IBK\IBK_DRFN\ProjSrc\SrcChartEx\ChartAddIn\ChartAnalysisToolAddIn\Symbol\ElementSaverBuilder.cpp
; File C:\Program Files (x86)\Microsoft Visual Studio\2019\Community\VC\Tools\MSVC\14.29.30133\atlmfc\include\cstringt.h
; File D:\git\src\IBK\IBK_DRFN\ProjSrc\SrcChartEx\ChartAddIn\ChartAnalysisToolAddIn\Symbol\ElementSaverBuilder.cpp
; File C:\Program Files (x86)\Microsoft Visual Studio\2019\Community\VC\Tools\MSVC\14.29.30133\atlmfc\include\cstringt.h
; File D:\git\src\IBK\IBK_DRFN\ProjSrc\SrcChartEx\ChartAddIn\ChartAnalysisToolAddIn\Symbol\ElementSaverBuilder.cpp
; File C:\Program Files (x86)\Microsoft Visual Studio\2019\Community\VC\Tools\MSVC\14.29.30133\atlmfc\include\atlsimpstr.h
; File D:\git\src\IBK\IBK_DRFN\ProjSrc\SrcChartEx\ChartAddIn\ChartAnalysisToolAddIn\Symbol\ElementSaverBuilder.cpp
; File C:\Program Files (x86)\Microsoft Visual Studio\2019\Community\VC\Tools\MSVC\14.29.30133\atlmfc\include\atlsimpstr.h
; File D:\git\src\IBK\IBK_DRFN\ProjSrc\SrcChartEx\ChartAddIn\ChartAnalysisToolAddIn\Symbol\ElementSaverBuilder.cpp
; File C:\Program Files (x86)\Microsoft Visual Studio\2019\Community\VC\Tools\MSVC\14.29.30133\atlmfc\include\cstringt.h
; File D:\git\src\IBK\IBK_DRFN\ProjSrc\SrcChartEx\ChartAddIn\ChartAnalysisToolAddIn\Symbol\ElementSaverBuilder.cpp
; File C:\Program Files (x86)\Microsoft Visual Studio\2019\Community\VC\Tools\MSVC\14.29.30133\atlmfc\include\cstringt.h
; File C:\Program Files (x86)\Microsoft Visual Studio\2019\Community\VC\Tools\MSVC\14.29.30133\atlmfc\include\atlsimpstr.h
; File C:\Program Files (x86)\Microsoft Visual Studio\2019\Community\VC\Tools\MSVC\14.29.30133\atlmfc\include\cstringt.h
; File D:\git\src\IBK\IBK_DRFN\ProjSrc\SrcChartEx\ChartAddIn\ChartAnalysisToolAddIn\Symbol\ElementSaverBuilder.cpp
; File C:\Program Files (x86)\Microsoft Visual Studio\2019\Community\VC\Tools\MSVC\14.29.30133\atlmfc\include\atlsimpstr.h
; File D:\git\src\IBK\IBK_DRFN\ProjSrc\SrcChartEx\ChartAddIn\ChartAnalysisToolAddIn\Symbol\ElementSaverBuilder.cpp
; File C:\Program Files (x86)\Microsoft Visual Studio\2019\Community\VC\Tools\MSVC\14.29.30133\atlmfc\include\atlsimpstr.h
; File D:\git\src\IBK\IBK_DRFN\ProjSrc\SrcChartEx\ChartAddIn\ChartAnalysisToolAddIn\Symbol\ElementSaverBuilder.cpp
; File C:\Program Files (x86)\Microsoft Visual Studio\2019\Community\VC\Tools\MSVC\14.29.30133\atlmfc\include\atltime.h
; File D:\git\src\IBK\IBK_DRFN\ProjSrc\SrcChartEx\ChartAddIn\ChartAnalysisToolAddIn\Symbol\ElementSaverBuilder.cpp
;	COMDAT ?MakeDateTime@CElementSaverBuilder@@AAE_JW4HORZSCALEDRAWERTYPE@CScaleBaseData@@V?$CStringT@DV?$StrTraitMFC_DLL@DV?$ChTraitsCRT@D@ATL@@@@@ATL@@@Z
_TEXT	SEGMENT
_strFormat$2 = -420					; size = 4
$T3 = -416						; size = 4
_strCurMon$4 = -412					; size = 4
_strCurFull$5 = -408					; size = 4
_timeCur$6 = -404					; size = 8
$T7 = -396						; size = 4
$T8 = -396						; size = 4
$T9 = -392						; size = 4
$T10 = -392						; size = 4
_strCurYearMon$11 = -388				; size = 4
_strCurDate$12 = -384					; size = 4
$T13 = -380						; size = 4
_strTemp1$14 = -376					; size = 4
_strTemp1$15 = -376					; size = 4
_strCurYear$16 = -372					; size = 4
_strDay$17 = -368					; size = 4
_strYearMon$18 = -364					; size = 4
_strYear$19 = -364					; size = 4
_strMakeTime$ = -360					; size = 4
tv710 = -356						; size = 4
$T20 = -356						; size = 4
$T21 = -356						; size = 4
$T22 = -356						; size = 4
$T23 = -356						; size = 4
tv702 = -352						; size = 4
$T24 = -352						; size = 4
$T25 = -352						; size = 4
$T26 = -352						; size = 4
$T27 = -352						; size = 4
$T28 = -352						; size = 4
$T29 = -352						; size = 4
_strDay$30 = -348					; size = 4
_strMon$31 = -348					; size = 4
$T32 = -348						; size = 4
$T33 = -348						; size = 4
_ptmTemp$34 = -344					; size = 36
_ptmTemp$35 = -344					; size = 36
_ptmTemp$36 = -308					; size = 36
_ptmTemp$37 = -308					; size = 36
_ptmTemp$38 = -308					; size = 36
_szBuffer$39 = -272					; size = 128
_szBuffer$40 = -272					; size = 128
_szBuffer$41 = -144					; size = 128
_szBuffer$42 = -144					; size = 128
_szBuffer$43 = -144					; size = 128
__$ArrayPad$ = -16					; size = 4
__$EHRec$ = -12						; size = 12
_eScaleType$ = 8					; size = 4
_strX$ = 12						; size = 4
?MakeDateTime@CElementSaverBuilder@@AAE_JW4HORZSCALEDRAWERTYPE@CScaleBaseData@@V?$CStringT@DV?$StrTraitMFC_DLL@DV?$ChTraitsCRT@D@ATL@@@@@ATL@@@Z PROC ; CElementSaverBuilder::MakeDateTime, COMDAT
; _this$ = ecx

; 305  : {

  00000	55		 push	 ebp
  00001	8b ec		 mov	 ebp, esp
  00003	6a ff		 push	 -1
  00005	68 00 00 00 00	 push	 __ehhandler$?MakeDateTime@CElementSaverBuilder@@AAE_JW4HORZSCALEDRAWERTYPE@CScaleBaseData@@V?$CStringT@DV?$StrTraitMFC_DLL@DV?$ChTraitsCRT@D@ATL@@@@@ATL@@@Z
  0000a	64 a1 00 00 00
	00		 mov	 eax, DWORD PTR fs:0
  00010	50		 push	 eax
  00011	81 ec 98 01 00
	00		 sub	 esp, 408		; 00000198H
  00017	a1 00 00 00 00	 mov	 eax, DWORD PTR ___security_cookie
  0001c	33 c5		 xor	 eax, ebp
  0001e	89 45 f0	 mov	 DWORD PTR __$ArrayPad$[ebp], eax
  00021	53		 push	 ebx
  00022	56		 push	 esi
  00023	57		 push	 edi
  00024	50		 push	 eax
  00025	8d 45 f4	 lea	 eax, DWORD PTR __$EHRec$[ebp]
  00028	64 a3 00 00 00
	00		 mov	 DWORD PTR fs:0, eax
  0002e	c7 85 84 fe ff
	ff 00 00 00 00	 mov	 DWORD PTR $T13[ebp], 0

; 308  : 	CString strMakeTime = strX;

  00038	8d 45 0c	 lea	 eax, DWORD PTR _strX$[ebp]
  0003b	c7 45 fc 00 00
	00 00		 mov	 DWORD PTR __$EHRec$[ebp+8], 0
  00042	50		 push	 eax
  00043	8d 8d 98 fe ff
	ff		 lea	 ecx, DWORD PTR _strMakeTime$[ebp]
  00049	ff 15 00 00 00
	00		 call	 DWORD PTR __imp_??0?$CStringT@DV?$StrTraitMFC_DLL@DV?$ChTraitsCRT@D@ATL@@@@@ATL@@QAE@ABV01@@Z
; File C:\Program Files (x86)\Microsoft Visual Studio\2019\Community\VC\Tools\MSVC\14.29.30133\atlmfc\include\cstringt.h

; 2567 : 		return( str1.Compare( psz2 ) != 0 );

  0004f	68 00 00 00 00	 push	 OFFSET ??_C@_02PGHGPEOM@?91@
  00054	8d 4d 0c	 lea	 ecx, DWORD PTR _strX$[ebp]
; File D:\git\src\IBK\IBK_DRFN\ProjSrc\SrcChartEx\ChartAddIn\ChartAnalysisToolAddIn\Symbol\ElementSaverBuilder.cpp

; 308  : 	CString strMakeTime = strX;

  00057	c6 45 fc 01	 mov	 BYTE PTR __$EHRec$[ebp+8], 1
; File C:\Program Files (x86)\Microsoft Visual Studio\2019\Community\VC\Tools\MSVC\14.29.30133\atlmfc\include\cstringt.h

; 2567 : 		return( str1.Compare( psz2 ) != 0 );

  0005b	ff 15 00 00 00
	00		 call	 DWORD PTR __imp_?Compare@?$CStringT@DV?$StrTraitMFC_DLL@DV?$ChTraitsCRT@D@ATL@@@@@ATL@@QBEHPBD@Z
  00061	85 c0		 test	 eax, eax
; File D:\git\src\IBK\IBK_DRFN\ProjSrc\SrcChartEx\ChartAddIn\ChartAnalysisToolAddIn\Symbol\ElementSaverBuilder.cpp

; 319  : 	if (strX != "-1" && strX.GetLength() != 14)

  00063	0f 84 cb 07 00
	00		 je	 $LN4@MakeDateTi
; File C:\Program Files (x86)\Microsoft Visual Studio\2019\Community\VC\Tools\MSVC\14.29.30133\atlmfc\include\atlsimpstr.h

; 519  : 		return( GetData()->nDataLength );

  00069	8b 45 0c	 mov	 eax, DWORD PTR _strX$[ebp]
; File D:\git\src\IBK\IBK_DRFN\ProjSrc\SrcChartEx\ChartAddIn\ChartAnalysisToolAddIn\Symbol\ElementSaverBuilder.cpp

; 319  : 	if (strX != "-1" && strX.GetLength() != 14)

  0006c	83 78 f4 0e	 cmp	 DWORD PTR [eax-12], 14	; 0000000eH
  00070	0f 84 be 07 00
	00		 je	 $LN4@MakeDateTi
; File C:\Program Files (x86)\Microsoft Visual Studio\2019\Community\VC\Tools\MSVC\14.29.30133\atlmfc\include\atltime.h

; 374  : 	return( CTime( ::_time64( NULL ) ) );

  00076	6a 00		 push	 0
  00078	ff 15 00 00 00
	00		 call	 DWORD PTR __imp___time64

; 1066 : 	if (_localtime64_s(&ptmTemp, &m_time) != 0)

  0007e	8b 35 00 00 00
	00		 mov	 esi, DWORD PTR __imp___localtime64_s

; 417  : 	m_time( time )

  00084	89 85 6c fe ff
	ff		 mov	 DWORD PTR _timeCur$6[ebp], eax

; 1066 : 	if (_localtime64_s(&ptmTemp, &m_time) != 0)

  0008a	8d 85 6c fe ff
	ff		 lea	 eax, DWORD PTR _timeCur$6[ebp]
  00090	50		 push	 eax
  00091	8d 85 cc fe ff
	ff		 lea	 eax, DWORD PTR _ptmTemp$38[ebp]

; 417  : 	m_time( time )

  00097	89 95 70 fe ff
	ff		 mov	 DWORD PTR _timeCur$6[ebp+4], edx

; 1066 : 	if (_localtime64_s(&ptmTemp, &m_time) != 0)

  0009d	50		 push	 eax
  0009e	ff d6		 call	 esi
  000a0	83 c4 0c	 add	 esp, 12			; 0000000cH
  000a3	85 c0		 test	 eax, eax
  000a5	0f 85 d3 07 00
	00		 jne	 $LN194@MakeDateTi

; 1069 : 	}
; 1070 : 
; 1071 : 	if (!_tcsftime(szBuffer, maxTimeBufferSize, pFormat, &ptmTemp))

  000ab	8b 3d 00 00 00
	00		 mov	 edi, DWORD PTR __imp__strftime
  000b1	8d 85 cc fe ff
	ff		 lea	 eax, DWORD PTR _ptmTemp$38[ebp]
  000b7	50		 push	 eax
  000b8	68 00 00 00 00	 push	 OFFSET ??_C@_02FFEBEEPL@?$CFY@
  000bd	8d 85 70 ff ff
	ff		 lea	 eax, DWORD PTR _szBuffer$43[ebp]
  000c3	68 80 00 00 00	 push	 128			; 00000080H
  000c8	50		 push	 eax
  000c9	ff d7		 call	 edi
  000cb	83 c4 10	 add	 esp, 16			; 00000010H

; 1072 : 	{
; 1073 : 		szBuffer[0] = '\0';
; 1074 : 	}
; 1075 : 
; 1076 : 	return szBuffer;

  000ce	8d 8d 8c fe ff
	ff		 lea	 ecx, DWORD PTR _strCurYear$16[ebp]
  000d4	f7 d8		 neg	 eax
  000d6	1a c0		 sbb	 al, al
  000d8	20 85 70 ff ff
	ff		 and	 BYTE PTR _szBuffer$43[ebp], al
  000de	8d 85 70 ff ff
	ff		 lea	 eax, DWORD PTR _szBuffer$43[ebp]
  000e4	50		 push	 eax
  000e5	ff 15 00 00 00
	00		 call	 DWORD PTR __imp_??0?$CStringT@DV?$StrTraitMFC_DLL@DV?$ChTraitsCRT@D@ATL@@@@@ATL@@QAE@PBD@Z

; 1066 : 	if (_localtime64_s(&ptmTemp, &m_time) != 0)

  000eb	8d 85 6c fe ff
	ff		 lea	 eax, DWORD PTR _timeCur$6[ebp]
; File D:\git\src\IBK\IBK_DRFN\ProjSrc\SrcChartEx\ChartAddIn\ChartAnalysisToolAddIn\Symbol\ElementSaverBuilder.cpp

; 325  : 		CString strCurYear		= timeCur.Format("%Y");

  000f1	c6 45 fc 02	 mov	 BYTE PTR __$EHRec$[ebp+8], 2
; File C:\Program Files (x86)\Microsoft Visual Studio\2019\Community\VC\Tools\MSVC\14.29.30133\atlmfc\include\atltime.h

; 1066 : 	if (_localtime64_s(&ptmTemp, &m_time) != 0)

  000f5	50		 push	 eax
  000f6	8d 85 a8 fe ff
	ff		 lea	 eax, DWORD PTR _ptmTemp$35[ebp]
  000fc	50		 push	 eax
  000fd	ff d6		 call	 esi
  000ff	83 c4 08	 add	 esp, 8
  00102	85 c0		 test	 eax, eax
  00104	0f 85 7e 07 00
	00		 jne	 $LN195@MakeDateTi

; 1069 : 	}
; 1070 : 
; 1071 : 	if (!_tcsftime(szBuffer, maxTimeBufferSize, pFormat, &ptmTemp))

  0010a	8d 85 a8 fe ff
	ff		 lea	 eax, DWORD PTR _ptmTemp$35[ebp]
  00110	50		 push	 eax
  00111	68 00 00 00 00	 push	 OFFSET ??_C@_02OOGLLHAM@?$CFm@
  00116	8d 85 f0 fe ff
	ff		 lea	 eax, DWORD PTR _szBuffer$40[ebp]
  0011c	68 80 00 00 00	 push	 128			; 00000080H
  00121	50		 push	 eax
  00122	ff d7		 call	 edi
  00124	83 c4 10	 add	 esp, 16			; 00000010H

; 1072 : 	{
; 1073 : 		szBuffer[0] = '\0';
; 1074 : 	}
; 1075 : 
; 1076 : 	return szBuffer;

  00127	8d 8d 64 fe ff
	ff		 lea	 ecx, DWORD PTR _strCurMon$4[ebp]
  0012d	f7 d8		 neg	 eax
  0012f	1a c0		 sbb	 al, al
  00131	20 85 f0 fe ff
	ff		 and	 BYTE PTR _szBuffer$40[ebp], al
  00137	8d 85 f0 fe ff
	ff		 lea	 eax, DWORD PTR _szBuffer$40[ebp]
  0013d	50		 push	 eax
  0013e	ff 15 00 00 00
	00		 call	 DWORD PTR __imp_??0?$CStringT@DV?$StrTraitMFC_DLL@DV?$ChTraitsCRT@D@ATL@@@@@ATL@@QAE@PBD@Z

; 1066 : 	if (_localtime64_s(&ptmTemp, &m_time) != 0)

  00144	8d 85 6c fe ff
	ff		 lea	 eax, DWORD PTR _timeCur$6[ebp]
; File D:\git\src\IBK\IBK_DRFN\ProjSrc\SrcChartEx\ChartAddIn\ChartAnalysisToolAddIn\Symbol\ElementSaverBuilder.cpp

; 326  : 		CString strCurMon		= timeCur.Format("%m");

  0014a	c6 45 fc 03	 mov	 BYTE PTR __$EHRec$[ebp+8], 3
; File C:\Program Files (x86)\Microsoft Visual Studio\2019\Community\VC\Tools\MSVC\14.29.30133\atlmfc\include\atltime.h

; 1066 : 	if (_localtime64_s(&ptmTemp, &m_time) != 0)

  0014e	50		 push	 eax
  0014f	8d 85 cc fe ff
	ff		 lea	 eax, DWORD PTR _ptmTemp$37[ebp]
  00155	50		 push	 eax
  00156	ff d6		 call	 esi
  00158	83 c4 08	 add	 esp, 8
  0015b	85 c0		 test	 eax, eax
  0015d	0f 85 2f 07 00
	00		 jne	 $LN196@MakeDateTi

; 1069 : 	}
; 1070 : 
; 1071 : 	if (!_tcsftime(szBuffer, maxTimeBufferSize, pFormat, &ptmTemp))

  00163	8d 85 cc fe ff
	ff		 lea	 eax, DWORD PTR _ptmTemp$37[ebp]
  00169	50		 push	 eax
  0016a	68 00 00 00 00	 push	 OFFSET ??_C@_04GICMHJFP@?$CFY?$CFm@
  0016f	8d 85 70 ff ff
	ff		 lea	 eax, DWORD PTR _szBuffer$42[ebp]
  00175	68 80 00 00 00	 push	 128			; 00000080H
  0017a	50		 push	 eax
  0017b	ff d7		 call	 edi
  0017d	83 c4 10	 add	 esp, 16			; 00000010H

; 1072 : 	{
; 1073 : 		szBuffer[0] = '\0';
; 1074 : 	}
; 1075 : 
; 1076 : 	return szBuffer;

  00180	8d 8d 7c fe ff
	ff		 lea	 ecx, DWORD PTR _strCurYearMon$11[ebp]
  00186	f7 d8		 neg	 eax
  00188	1a c0		 sbb	 al, al
  0018a	20 85 70 ff ff
	ff		 and	 BYTE PTR _szBuffer$42[ebp], al
  00190	8d 85 70 ff ff
	ff		 lea	 eax, DWORD PTR _szBuffer$42[ebp]
  00196	50		 push	 eax
  00197	ff 15 00 00 00
	00		 call	 DWORD PTR __imp_??0?$CStringT@DV?$StrTraitMFC_DLL@DV?$ChTraitsCRT@D@ATL@@@@@ATL@@QAE@PBD@Z

; 1066 : 	if (_localtime64_s(&ptmTemp, &m_time) != 0)

  0019d	8d 85 6c fe ff
	ff		 lea	 eax, DWORD PTR _timeCur$6[ebp]
; File D:\git\src\IBK\IBK_DRFN\ProjSrc\SrcChartEx\ChartAddIn\ChartAnalysisToolAddIn\Symbol\ElementSaverBuilder.cpp

; 327  : 		CString strCurYearMon	= timeCur.Format("%Y%m");

  001a3	c6 45 fc 04	 mov	 BYTE PTR __$EHRec$[ebp+8], 4
; File C:\Program Files (x86)\Microsoft Visual Studio\2019\Community\VC\Tools\MSVC\14.29.30133\atlmfc\include\atltime.h

; 1066 : 	if (_localtime64_s(&ptmTemp, &m_time) != 0)

  001a7	50		 push	 eax
  001a8	8d 85 a8 fe ff
	ff		 lea	 eax, DWORD PTR _ptmTemp$34[ebp]
  001ae	50		 push	 eax
  001af	ff d6		 call	 esi
  001b1	83 c4 08	 add	 esp, 8
  001b4	85 c0		 test	 eax, eax
  001b6	0f 85 e0 06 00
	00		 jne	 $LN197@MakeDateTi

; 1069 : 	}
; 1070 : 
; 1071 : 	if (!_tcsftime(szBuffer, maxTimeBufferSize, pFormat, &ptmTemp))

  001bc	8d 85 a8 fe ff
	ff		 lea	 eax, DWORD PTR _ptmTemp$34[ebp]
  001c2	50		 push	 eax
  001c3	68 00 00 00 00	 push	 OFFSET ??_C@_06CLONMKIH@?$CFY?$CFm?$CFd@
  001c8	8d 85 f0 fe ff
	ff		 lea	 eax, DWORD PTR _szBuffer$39[ebp]
  001ce	68 80 00 00 00	 push	 128			; 00000080H
  001d3	50		 push	 eax
  001d4	ff d7		 call	 edi
  001d6	83 c4 10	 add	 esp, 16			; 00000010H

; 1072 : 	{
; 1073 : 		szBuffer[0] = '\0';
; 1074 : 	}
; 1075 : 
; 1076 : 	return szBuffer;

  001d9	8d 8d 80 fe ff
	ff		 lea	 ecx, DWORD PTR _strCurDate$12[ebp]
  001df	f7 d8		 neg	 eax
  001e1	1a c0		 sbb	 al, al
  001e3	20 85 f0 fe ff
	ff		 and	 BYTE PTR _szBuffer$39[ebp], al
  001e9	8d 85 f0 fe ff
	ff		 lea	 eax, DWORD PTR _szBuffer$39[ebp]
  001ef	50		 push	 eax
  001f0	ff 15 00 00 00
	00		 call	 DWORD PTR __imp_??0?$CStringT@DV?$StrTraitMFC_DLL@DV?$ChTraitsCRT@D@ATL@@@@@ATL@@QAE@PBD@Z

; 1066 : 	if (_localtime64_s(&ptmTemp, &m_time) != 0)

  001f6	8d 85 6c fe ff
	ff		 lea	 eax, DWORD PTR _timeCur$6[ebp]
; File D:\git\src\IBK\IBK_DRFN\ProjSrc\SrcChartEx\ChartAddIn\ChartAnalysisToolAddIn\Symbol\ElementSaverBuilder.cpp

; 328  : 		CString strCurDate		= timeCur.Format("%Y%m%d");

  001fc	c6 45 fc 05	 mov	 BYTE PTR __$EHRec$[ebp+8], 5
; File C:\Program Files (x86)\Microsoft Visual Studio\2019\Community\VC\Tools\MSVC\14.29.30133\atlmfc\include\atltime.h

; 1066 : 	if (_localtime64_s(&ptmTemp, &m_time) != 0)

  00200	50		 push	 eax
  00201	8d 85 cc fe ff
	ff		 lea	 eax, DWORD PTR _ptmTemp$36[ebp]
  00207	50		 push	 eax
  00208	ff d6		 call	 esi
  0020a	83 c4 08	 add	 esp, 8
  0020d	85 c0		 test	 eax, eax
  0020f	0f 85 91 06 00
	00		 jne	 $LN198@MakeDateTi

; 1069 : 	}
; 1070 : 
; 1071 : 	if (!_tcsftime(szBuffer, maxTimeBufferSize, pFormat, &ptmTemp))

  00215	8d 85 cc fe ff
	ff		 lea	 eax, DWORD PTR _ptmTemp$36[ebp]
  0021b	50		 push	 eax
  0021c	68 00 00 00 00	 push	 OFFSET ??_C@_0N@BNMNAMM@?$CFY?$CFm?$CFd?$CFH?$CFM?$CFS@
  00221	8d 85 70 ff ff
	ff		 lea	 eax, DWORD PTR _szBuffer$41[ebp]
  00227	68 80 00 00 00	 push	 128			; 00000080H
  0022c	50		 push	 eax
  0022d	ff d7		 call	 edi
  0022f	83 c4 10	 add	 esp, 16			; 00000010H

; 1072 : 	{
; 1073 : 		szBuffer[0] = '\0';
; 1074 : 	}
; 1075 : 
; 1076 : 	return szBuffer;

  00232	8d 8d 68 fe ff
	ff		 lea	 ecx, DWORD PTR _strCurFull$5[ebp]
  00238	f7 d8		 neg	 eax
  0023a	1a c0		 sbb	 al, al
  0023c	20 85 70 ff ff
	ff		 and	 BYTE PTR _szBuffer$41[ebp], al
  00242	8d 85 70 ff ff
	ff		 lea	 eax, DWORD PTR _szBuffer$41[ebp]
  00248	50		 push	 eax
  00249	ff 15 00 00 00
	00		 call	 DWORD PTR __imp_??0?$CStringT@DV?$StrTraitMFC_DLL@DV?$ChTraitsCRT@D@ATL@@@@@ATL@@QAE@PBD@Z
; File D:\git\src\IBK\IBK_DRFN\ProjSrc\SrcChartEx\ChartAddIn\ChartAnalysisToolAddIn\Symbol\ElementSaverBuilder.cpp

; 332  : 		CString strFormat = _T("YYYYMMDD");	// 

  0024f	68 00 00 00 00	 push	 OFFSET ??_C@_08DKDJLCMP@YYYYMMDD@
  00254	8d 8d 5c fe ff
	ff		 lea	 ecx, DWORD PTR _strFormat$2[ebp]
  0025a	c6 45 fc 06	 mov	 BYTE PTR __$EHRec$[ebp+8], 6
  0025e	ff 15 00 00 00
	00		 call	 DWORD PTR __imp_??0?$CStringT@DV?$StrTraitMFC_DLL@DV?$ChTraitsCRT@D@ATL@@@@@ATL@@QAE@PBD@Z

; 333  : 		
; 334  : 		switch(eScaleType)

  00264	8b 45 08	 mov	 eax, DWORD PTR _eScaleType$[ebp]
  00267	48		 dec	 eax
  00268	c6 45 fc 07	 mov	 BYTE PTR __$EHRec$[ebp+8], 7
  0026c	83 f8 0b	 cmp	 eax, 11			; 0000000bH
  0026f	0f 87 64 05 00
	00		 ja	 $LN20@MakeDateTi
  00275	0f b6 80 00 00
	00 00		 movzx	 eax, BYTE PTR $LN185@MakeDateTi[eax]
  0027c	ff 24 85 00 00
	00 00		 jmp	 DWORD PTR $LN186@MakeDateTi[eax*4]
$LN5@MakeDateTi:
; File C:\Program Files (x86)\Microsoft Visual Studio\2019\Community\VC\Tools\MSVC\14.29.30133\atlmfc\include\cstringt.h

; 2401 : 		CStringT strResult( str1.GetManager() );

  00283	8d 4d 0c	 lea	 ecx, DWORD PTR _strX$[ebp]
; File D:\git\src\IBK\IBK_DRFN\ProjSrc\SrcChartEx\ChartAddIn\ChartAnalysisToolAddIn\Symbol\ElementSaverBuilder.cpp

; 340  : 				strMakeTime = strX + _T("000000");

  00286	c6 45 fc 08	 mov	 BYTE PTR __$EHRec$[ebp+8], 8
; File C:\Program Files (x86)\Microsoft Visual Studio\2019\Community\VC\Tools\MSVC\14.29.30133\atlmfc\include\cstringt.h

; 2401 : 		CStringT strResult( str1.GetManager() );

  0028a	ff 15 00 00 00
	00		 call	 DWORD PTR __imp_?GetManager@?$CStringT@DV?$StrTraitMFC_DLL@DV?$ChTraitsCRT@D@ATL@@@@@ATL@@QBEPAUIAtlStringMgr@2@XZ
  00290	50		 push	 eax
  00291	8d 8d a4 fe ff
	ff		 lea	 ecx, DWORD PTR $T33[ebp]
  00297	ff 15 00 00 00
	00		 call	 DWORD PTR __imp_??0?$CStringT@DV?$StrTraitMFC_DLL@DV?$ChTraitsCRT@D@ATL@@@@@ATL@@QAE@PAUIAtlStringMgr@1@@Z

; 2403 : 		CThisSimpleString::Concatenate( strResult, str1, str1.GetLength(), psz2, CThisSimpleString::StringLength( psz2 ) );

  0029d	8b 45 0c	 mov	 eax, DWORD PTR _strX$[ebp]
  002a0	6a 06		 push	 6
  002a2	68 00 00 00 00	 push	 OFFSET ??_C@_06GEKNBBDK@000000@

; 2404 : 
; 2405 : 		return( strResult );

  002a7	c7 85 84 fe ff
	ff 3f 00 00 00	 mov	 DWORD PTR $T13[ebp], 63	; 0000003fH
  002b1	ff 70 f4	 push	 DWORD PTR [eax-12]
  002b4	50		 push	 eax
  002b5	8d 85 a4 fe ff
	ff		 lea	 eax, DWORD PTR $T33[ebp]
  002bb	50		 push	 eax
  002bc	ff 15 00 00 00
	00		 call	 DWORD PTR __imp_?Concatenate@?$CSimpleStringT@D$00@ATL@@KAXAAV12@PBDH1H@Z
  002c2	83 c4 14	 add	 esp, 20			; 00000014H
; File D:\git\src\IBK\IBK_DRFN\ProjSrc\SrcChartEx\ChartAddIn\ChartAnalysisToolAddIn\Symbol\ElementSaverBuilder.cpp

; 340  : 				strMakeTime = strX + _T("000000");

  002c5	8d 85 a4 fe ff
	ff		 lea	 eax, DWORD PTR $T33[ebp]
  002cb	8d 8d 98 fe ff
	ff		 lea	 ecx, DWORD PTR _strMakeTime$[ebp]
  002d1	50		 push	 eax
  002d2	ff 15 00 00 00
	00		 call	 DWORD PTR __imp_??4?$CStringT@DV?$StrTraitMFC_DLL@DV?$ChTraitsCRT@D@ATL@@@@@ATL@@QAEAAV01@ABV01@@Z
  002d8	8d 8d a4 fe ff
	ff		 lea	 ecx, DWORD PTR $T33[ebp]
  002de	ff 15 00 00 00
	00		 call	 DWORD PTR __imp_??1?$CStringT@DV?$StrTraitMFC_DLL@DV?$ChTraitsCRT@D@ATL@@@@@ATL@@QAE@XZ

; 341  : 			}
; 342  : 			break;

  002e4	e9 03 05 00 00	 jmp	 $LN2@MakeDateTi
$LN7@MakeDateTi:
; File C:\Program Files (x86)\Microsoft Visual Studio\2019\Community\VC\Tools\MSVC\14.29.30133\atlmfc\include\cstringt.h

; 2401 : 		CStringT strResult( str1.GetManager() );

  002e9	8d 4d 0c	 lea	 ecx, DWORD PTR _strX$[ebp]
; File D:\git\src\IBK\IBK_DRFN\ProjSrc\SrcChartEx\ChartAddIn\ChartAnalysisToolAddIn\Symbol\ElementSaverBuilder.cpp

; 346  : 				strMakeTime = strX + _T("01000000");

  002ec	c6 45 fc 09	 mov	 BYTE PTR __$EHRec$[ebp+8], 9
; File C:\Program Files (x86)\Microsoft Visual Studio\2019\Community\VC\Tools\MSVC\14.29.30133\atlmfc\include\cstringt.h

; 2401 : 		CStringT strResult( str1.GetManager() );

  002f0	ff 15 00 00 00
	00		 call	 DWORD PTR __imp_?GetManager@?$CStringT@DV?$StrTraitMFC_DLL@DV?$ChTraitsCRT@D@ATL@@@@@ATL@@QBEPAUIAtlStringMgr@2@XZ
  002f6	50		 push	 eax
  002f7	8d 8d a4 fe ff
	ff		 lea	 ecx, DWORD PTR $T32[ebp]
  002fd	ff 15 00 00 00
	00		 call	 DWORD PTR __imp_??0?$CStringT@DV?$StrTraitMFC_DLL@DV?$ChTraitsCRT@D@ATL@@@@@ATL@@QAE@PAUIAtlStringMgr@1@@Z

; 2403 : 		CThisSimpleString::Concatenate( strResult, str1, str1.GetLength(), psz2, CThisSimpleString::StringLength( psz2 ) );

  00303	8b 45 0c	 mov	 eax, DWORD PTR _strX$[ebp]
  00306	6a 08		 push	 8
  00308	68 00 00 00 00	 push	 OFFSET ??_C@_08HIJOEJNL@01000000@

; 2404 : 
; 2405 : 		return( strResult );

  0030d	c7 85 84 fe ff
	ff 5f 00 00 00	 mov	 DWORD PTR $T13[ebp], 95	; 0000005fH
  00317	ff 70 f4	 push	 DWORD PTR [eax-12]
  0031a	50		 push	 eax
  0031b	8d 85 a4 fe ff
	ff		 lea	 eax, DWORD PTR $T32[ebp]
  00321	50		 push	 eax
  00322	ff 15 00 00 00
	00		 call	 DWORD PTR __imp_?Concatenate@?$CSimpleStringT@D$00@ATL@@KAXAAV12@PBDH1H@Z
  00328	83 c4 14	 add	 esp, 20			; 00000014H
; File D:\git\src\IBK\IBK_DRFN\ProjSrc\SrcChartEx\ChartAddIn\ChartAnalysisToolAddIn\Symbol\ElementSaverBuilder.cpp

; 346  : 				strMakeTime = strX + _T("01000000");

  0032b	8d 85 a4 fe ff
	ff		 lea	 eax, DWORD PTR $T32[ebp]
  00331	8d 8d 98 fe ff
	ff		 lea	 ecx, DWORD PTR _strMakeTime$[ebp]
  00337	50		 push	 eax
  00338	ff 15 00 00 00
	00		 call	 DWORD PTR __imp_??4?$CStringT@DV?$StrTraitMFC_DLL@DV?$ChTraitsCRT@D@ATL@@@@@ATL@@QAEAAV01@ABV01@@Z
  0033e	8d 8d a4 fe ff
	ff		 lea	 ecx, DWORD PTR $T32[ebp]
  00344	ff 15 00 00 00
	00		 call	 DWORD PTR __imp_??1?$CStringT@DV?$StrTraitMFC_DLL@DV?$ChTraitsCRT@D@ATL@@@@@ATL@@QAE@XZ

; 347  : 			}
; 348  : 			break;

  0034a	e9 9d 04 00 00	 jmp	 $LN2@MakeDateTi
$LN8@MakeDateTi:

; 349  : 		case CScaleBaseData::HORZ_TIME_ONE:		// 
; 350  : 		case CScaleBaseData::HORZ_TIME_TWO:
; 351  : 			{
; 352  : 				//   : PC +  + 0
; 353  : 
; 354  : 				CString strMon;

  0034f	8d 8d a4 fe ff
	ff		 lea	 ecx, DWORD PTR _strMon$31[ebp]
  00355	ff 15 00 00 00
	00		 call	 DWORD PTR __imp_??0?$CStringT@DV?$StrTraitMFC_DLL@DV?$ChTraitsCRT@D@ATL@@@@@ATL@@QAE@XZ

; 355  : 				CString strDay;

  0035b	8d 8d 90 fe ff
	ff		 lea	 ecx, DWORD PTR _strDay$17[ebp]
  00361	ff 15 00 00 00
	00		 call	 DWORD PTR __imp_??0?$CStringT@DV?$StrTraitMFC_DLL@DV?$ChTraitsCRT@D@ATL@@@@@ATL@@QAE@XZ
; File C:\Program Files (x86)\Microsoft Visual Studio\2019\Community\VC\Tools\MSVC\14.29.30133\atlmfc\include\atlsimpstr.h

; 519  : 		return( GetData()->nDataLength );

  00367	8b 45 0c	 mov	 eax, DWORD PTR _strX$[ebp]
; File D:\git\src\IBK\IBK_DRFN\ProjSrc\SrcChartEx\ChartAddIn\ChartAnalysisToolAddIn\Symbol\ElementSaverBuilder.cpp

; 357  : 				if (strX.GetLength() == 7)

  0036a	8d 4d 0c	 lea	 ecx, DWORD PTR _strX$[ebp]
  0036d	c6 45 fc 0b	 mov	 BYTE PTR __$EHRec$[ebp+8], 11 ; 0000000bH
  00371	83 78 f4 07	 cmp	 DWORD PTR [eax-12], 7
  00375	8d 85 a0 fe ff
	ff		 lea	 eax, DWORD PTR $T29[ebp]
  0037b	75 59		 jne	 SHORT $LN10@MakeDateTi

; 358  : 				{
; 359  : 					// Data %02d      (, 5 05  5  )
; 360  : 					strMon.Format("%02d", atoi(strX.Left(1)));

  0037d	6a 01		 push	 1
  0037f	50		 push	 eax
  00380	ff 15 00 00 00
	00		 call	 DWORD PTR __imp_?Left@?$CStringT@DV?$StrTraitMFC_DLL@DV?$ChTraitsCRT@D@ATL@@@@@ATL@@QBE?AV12@H@Z
  00386	ff 30		 push	 DWORD PTR [eax]
  00388	8b 1d 00 00 00
	00		 mov	 ebx, DWORD PTR __imp__atoi
  0038e	c6 45 fc 0c	 mov	 BYTE PTR __$EHRec$[ebp+8], 12 ; 0000000cH
  00392	ff d3		 call	 ebx
  00394	8b 35 00 00 00
	00		 mov	 esi, DWORD PTR __imp_?Format@?$CStringT@DV?$StrTraitMFC_DLL@DV?$ChTraitsCRT@D@ATL@@@@@ATL@@QAAXPBDZZ
  0039a	50		 push	 eax
  0039b	8d 85 a4 fe ff
	ff		 lea	 eax, DWORD PTR _strMon$31[ebp]
  003a1	68 00 00 00 00	 push	 OFFSET ??_C@_04OGKJMPGK@?$CF02d@
  003a6	50		 push	 eax
  003a7	ff d6		 call	 esi
  003a9	83 c4 10	 add	 esp, 16			; 00000010H
  003ac	c6 45 fc 0b	 mov	 BYTE PTR __$EHRec$[ebp+8], 11 ; 0000000bH
  003b0	8d 8d a0 fe ff
	ff		 lea	 ecx, DWORD PTR $T29[ebp]
  003b6	ff 15 00 00 00
	00		 call	 DWORD PTR __imp_??1?$CStringT@DV?$StrTraitMFC_DLL@DV?$ChTraitsCRT@D@ATL@@@@@ATL@@QAE@XZ

; 361  : 					strDay.Format("%02d", atoi(strX.Mid(1,2)));

  003bc	6a 02		 push	 2
  003be	6a 01		 push	 1
  003c0	8d 85 a0 fe ff
	ff		 lea	 eax, DWORD PTR $T28[ebp]
  003c6	50		 push	 eax
  003c7	8d 4d 0c	 lea	 ecx, DWORD PTR _strX$[ebp]
  003ca	ff 15 00 00 00
	00		 call	 DWORD PTR __imp_?Mid@?$CStringT@DV?$StrTraitMFC_DLL@DV?$ChTraitsCRT@D@ATL@@@@@ATL@@QBE?AV12@HH@Z
  003d0	c6 45 fc 0d	 mov	 BYTE PTR __$EHRec$[ebp+8], 13 ; 0000000dH

; 362  : 				}

  003d4	eb 57		 jmp	 SHORT $LN191@MakeDateTi
$LN10@MakeDateTi:

; 363  : 				else
; 364  : 				{
; 365  : 					strMon.Format("%02d", atoi(strX.Left(2)));

  003d6	6a 02		 push	 2
  003d8	50		 push	 eax
  003d9	ff 15 00 00 00
	00		 call	 DWORD PTR __imp_?Left@?$CStringT@DV?$StrTraitMFC_DLL@DV?$ChTraitsCRT@D@ATL@@@@@ATL@@QBE?AV12@H@Z
  003df	ff 30		 push	 DWORD PTR [eax]
  003e1	8b 1d 00 00 00
	00		 mov	 ebx, DWORD PTR __imp__atoi
  003e7	c6 45 fc 0e	 mov	 BYTE PTR __$EHRec$[ebp+8], 14 ; 0000000eH
  003eb	ff d3		 call	 ebx
  003ed	8b 35 00 00 00
	00		 mov	 esi, DWORD PTR __imp_?Format@?$CStringT@DV?$StrTraitMFC_DLL@DV?$ChTraitsCRT@D@ATL@@@@@ATL@@QAAXPBDZZ
  003f3	50		 push	 eax
  003f4	8d 85 a4 fe ff
	ff		 lea	 eax, DWORD PTR _strMon$31[ebp]
  003fa	68 00 00 00 00	 push	 OFFSET ??_C@_04OGKJMPGK@?$CF02d@
  003ff	50		 push	 eax
  00400	ff d6		 call	 esi
  00402	83 c4 10	 add	 esp, 16			; 00000010H
  00405	c6 45 fc 0b	 mov	 BYTE PTR __$EHRec$[ebp+8], 11 ; 0000000bH
  00409	8d 8d a0 fe ff
	ff		 lea	 ecx, DWORD PTR $T27[ebp]
  0040f	ff 15 00 00 00
	00		 call	 DWORD PTR __imp_??1?$CStringT@DV?$StrTraitMFC_DLL@DV?$ChTraitsCRT@D@ATL@@@@@ATL@@QAE@XZ

; 366  : 					strDay.Format("%02d", atoi(strX.Mid(2,2)));

  00415	6a 02		 push	 2
  00417	6a 02		 push	 2
  00419	8d 85 a0 fe ff
	ff		 lea	 eax, DWORD PTR $T26[ebp]
  0041f	50		 push	 eax
  00420	8d 4d 0c	 lea	 ecx, DWORD PTR _strX$[ebp]
  00423	ff 15 00 00 00
	00		 call	 DWORD PTR __imp_?Mid@?$CStringT@DV?$StrTraitMFC_DLL@DV?$ChTraitsCRT@D@ATL@@@@@ATL@@QBE?AV12@HH@Z
  00429	c6 45 fc 0f	 mov	 BYTE PTR __$EHRec$[ebp+8], 15 ; 0000000fH
$LN191@MakeDateTi:

; 367  : 				}
; 368  : 				
; 369  : 				CString strTemp1	= strCurYear + strMon + strDay;

  0042d	ff 30		 push	 DWORD PTR [eax]
  0042f	ff d3		 call	 ebx
  00431	50		 push	 eax
  00432	8d 85 90 fe ff
	ff		 lea	 eax, DWORD PTR _strDay$17[ebp]
  00438	68 00 00 00 00	 push	 OFFSET ??_C@_04OGKJMPGK@?$CF02d@
  0043d	50		 push	 eax
  0043e	ff d6		 call	 esi
  00440	83 c4 10	 add	 esp, 16			; 00000010H
  00443	c6 45 fc 0b	 mov	 BYTE PTR __$EHRec$[ebp+8], 11 ; 0000000bH
  00447	8d 8d a0 fe ff
	ff		 lea	 ecx, DWORD PTR $T26[ebp]
  0044d	ff 15 00 00 00
	00		 call	 DWORD PTR __imp_??1?$CStringT@DV?$StrTraitMFC_DLL@DV?$ChTraitsCRT@D@ATL@@@@@ATL@@QAE@XZ
  00453	8d 85 a4 fe ff
	ff		 lea	 eax, DWORD PTR _strMon$31[ebp]
  00459	50		 push	 eax
  0045a	8d 85 8c fe ff
	ff		 lea	 eax, DWORD PTR _strCurYear$16[ebp]
  00460	50		 push	 eax
  00461	8d 85 a0 fe ff
	ff		 lea	 eax, DWORD PTR $T25[ebp]
  00467	50		 push	 eax
  00468	e8 00 00 00 00	 call	 ??HATL@@YA?AV?$CStringT@DV?$StrTraitMFC_DLL@DV?$ChTraitsCRT@D@ATL@@@@@0@ABV10@0@Z ; ATL::operator+
  0046d	8d 8d 90 fe ff
	ff		 lea	 ecx, DWORD PTR _strDay$17[ebp]
  00473	c6 45 fc 10	 mov	 BYTE PTR __$EHRec$[ebp+8], 16 ; 00000010H
  00477	51		 push	 ecx
  00478	50		 push	 eax
  00479	8d 85 88 fe ff
	ff		 lea	 eax, DWORD PTR _strTemp1$15[ebp]
  0047f	50		 push	 eax
  00480	e8 00 00 00 00	 call	 ??HATL@@YA?AV?$CStringT@DV?$StrTraitMFC_DLL@DV?$ChTraitsCRT@D@ATL@@@@@0@ABV10@0@Z ; ATL::operator+
  00485	83 c4 18	 add	 esp, 24			; 00000018H
  00488	8d 8d a0 fe ff
	ff		 lea	 ecx, DWORD PTR $T25[ebp]
  0048e	c6 45 fc 12	 mov	 BYTE PTR __$EHRec$[ebp+8], 18 ; 00000012H
  00492	ff 15 00 00 00
	00		 call	 DWORD PTR __imp_??1?$CStringT@DV?$StrTraitMFC_DLL@DV?$ChTraitsCRT@D@ATL@@@@@ATL@@QAE@XZ

; 370  : 				CString strYear		= strCurYear;

  00498	8d 85 8c fe ff
	ff		 lea	 eax, DWORD PTR _strCurYear$16[ebp]
  0049e	50		 push	 eax
  0049f	8d 8d 94 fe ff
	ff		 lea	 ecx, DWORD PTR _strYear$19[ebp]
  004a5	ff 15 00 00 00
	00		 call	 DWORD PTR __imp_??0?$CStringT@DV?$StrTraitMFC_DLL@DV?$ChTraitsCRT@D@ATL@@@@@ATL@@QAE@ABV01@@Z

; 371  : 				
; 372  : 				//    PC   ... PC -1 .
; 373  : 				if (_atoi64(strTemp1) > _atoi64(strCurDate))

  004ab	ff b5 80 fe ff
	ff		 push	 DWORD PTR _strCurDate$12[ebp]
; File C:\Program Files (x86)\Microsoft Visual Studio\2019\Community\VC\Tools\MSVC\14.29.30133\atlmfc\include\atlsimpstr.h

; 377  : 		return( m_pszData );

  004b1	8b b5 88 fe ff
	ff		 mov	 esi, DWORD PTR _strTemp1$15[ebp]
; File D:\git\src\IBK\IBK_DRFN\ProjSrc\SrcChartEx\ChartAddIn\ChartAnalysisToolAddIn\Symbol\ElementSaverBuilder.cpp

; 370  : 				CString strYear		= strCurYear;

  004b7	c6 45 fc 13	 mov	 BYTE PTR __$EHRec$[ebp+8], 19 ; 00000013H

; 371  : 				
; 372  : 				//    PC   ... PC -1 .
; 373  : 				if (_atoi64(strTemp1) > _atoi64(strCurDate))

  004bb	ff 15 00 00 00
	00		 call	 DWORD PTR __imp___atoi64
  004c1	56		 push	 esi
  004c2	89 85 a0 fe ff
	ff		 mov	 DWORD PTR tv702[ebp], eax
  004c8	8b fa		 mov	 edi, edx
  004ca	ff 15 00 00 00
	00		 call	 DWORD PTR __imp___atoi64
  004d0	83 c4 08	 add	 esp, 8
  004d3	3b d7		 cmp	 edx, edi
  004d5	7c 29		 jl	 SHORT $LN12@MakeDateTi
  004d7	7f 08		 jg	 SHORT $LN187@MakeDateTi
  004d9	3b 85 a0 fe ff
	ff		 cmp	 eax, DWORD PTR tv702[ebp]
  004df	76 1f		 jbe	 SHORT $LN12@MakeDateTi
$LN187@MakeDateTi:

; 374  : 				{
; 375  : 					strYear.Format("%04d", atoi(strCurYear) -1);

  004e1	ff b5 8c fe ff
	ff		 push	 DWORD PTR _strCurYear$16[ebp]
  004e7	ff d3		 call	 ebx
  004e9	48		 dec	 eax
  004ea	50		 push	 eax
  004eb	8d 85 94 fe ff
	ff		 lea	 eax, DWORD PTR _strYear$19[ebp]
  004f1	68 00 00 00 00	 push	 OFFSET ??_C@_04OCCELDNI@?$CF04d@
  004f6	50		 push	 eax
  004f7	ff 15 00 00 00
	00		 call	 DWORD PTR __imp_?Format@?$CStringT@DV?$StrTraitMFC_DLL@DV?$ChTraitsCRT@D@ATL@@@@@ATL@@QAAXPBDZZ
  004fd	83 c4 10	 add	 esp, 16			; 00000010H
$LN12@MakeDateTi:

; 378  : 				strMakeTime = strYear + strMon + strDay + strX.Right(4) + _T("00");

  00500	6a 04		 push	 4
  00502	8d 85 9c fe ff
	ff		 lea	 eax, DWORD PTR $T23[ebp]
  00508	50		 push	 eax
  00509	8d 4d 0c	 lea	 ecx, DWORD PTR _strX$[ebp]
  0050c	ff 15 00 00 00
	00		 call	 DWORD PTR __imp_?Right@?$CStringT@DV?$StrTraitMFC_DLL@DV?$ChTraitsCRT@D@ATL@@@@@ATL@@QBE?AV12@H@Z
  00512	8b f0		 mov	 esi, eax
  00514	8d 85 a4 fe ff
	ff		 lea	 eax, DWORD PTR _strMon$31[ebp]
  0051a	c6 45 fc 14	 mov	 BYTE PTR __$EHRec$[ebp+8], 20 ; 00000014H
  0051e	50		 push	 eax
  0051f	8d 85 94 fe ff
	ff		 lea	 eax, DWORD PTR _strYear$19[ebp]
  00525	50		 push	 eax
  00526	8d 85 74 fe ff
	ff		 lea	 eax, DWORD PTR $T8[ebp]
  0052c	50		 push	 eax
  0052d	e8 00 00 00 00	 call	 ??HATL@@YA?AV?$CStringT@DV?$StrTraitMFC_DLL@DV?$ChTraitsCRT@D@ATL@@@@@0@ABV10@0@Z ; ATL::operator+
  00532	8d 8d 90 fe ff
	ff		 lea	 ecx, DWORD PTR _strDay$17[ebp]
  00538	c6 45 fc 15	 mov	 BYTE PTR __$EHRec$[ebp+8], 21 ; 00000015H
  0053c	51		 push	 ecx
  0053d	50		 push	 eax
  0053e	8d 85 78 fe ff
	ff		 lea	 eax, DWORD PTR $T10[ebp]
  00544	50		 push	 eax
  00545	e8 00 00 00 00	 call	 ??HATL@@YA?AV?$CStringT@DV?$StrTraitMFC_DLL@DV?$ChTraitsCRT@D@ATL@@@@@0@ABV10@0@Z ; ATL::operator+
  0054a	56		 push	 esi
  0054b	50		 push	 eax
  0054c	8d 85 60 fe ff
	ff		 lea	 eax, DWORD PTR $T3[ebp]
  00552	c6 45 fc 16	 mov	 BYTE PTR __$EHRec$[ebp+8], 22 ; 00000016H
  00556	50		 push	 eax
  00557	e8 00 00 00 00	 call	 ??HATL@@YA?AV?$CStringT@DV?$StrTraitMFC_DLL@DV?$ChTraitsCRT@D@ATL@@@@@0@ABV10@0@Z ; ATL::operator+
  0055c	83 c4 24	 add	 esp, 36			; 00000024H
  0055f	8b f0		 mov	 esi, eax
; File C:\Program Files (x86)\Microsoft Visual Studio\2019\Community\VC\Tools\MSVC\14.29.30133\atlmfc\include\cstringt.h

; 2401 : 		CStringT strResult( str1.GetManager() );

  00561	8b ce		 mov	 ecx, esi
; File D:\git\src\IBK\IBK_DRFN\ProjSrc\SrcChartEx\ChartAddIn\ChartAnalysisToolAddIn\Symbol\ElementSaverBuilder.cpp

; 378  : 				strMakeTime = strYear + strMon + strDay + strX.Right(4) + _T("00");

  00563	c6 45 fc 18	 mov	 BYTE PTR __$EHRec$[ebp+8], 24 ; 00000018H
; File C:\Program Files (x86)\Microsoft Visual Studio\2019\Community\VC\Tools\MSVC\14.29.30133\atlmfc\include\cstringt.h

; 2401 : 		CStringT strResult( str1.GetManager() );

  00567	ff 15 00 00 00
	00		 call	 DWORD PTR __imp_?GetManager@?$CStringT@DV?$StrTraitMFC_DLL@DV?$ChTraitsCRT@D@ATL@@@@@ATL@@QBEPAUIAtlStringMgr@2@XZ
  0056d	50		 push	 eax
  0056e	8d 8d a0 fe ff
	ff		 lea	 ecx, DWORD PTR $T24[ebp]
  00574	ff 15 00 00 00
	00		 call	 DWORD PTR __imp_??0?$CStringT@DV?$StrTraitMFC_DLL@DV?$ChTraitsCRT@D@ATL@@@@@ATL@@QAE@PAUIAtlStringMgr@1@@Z
; File C:\Program Files (x86)\Microsoft Visual Studio\2019\Community\VC\Tools\MSVC\14.29.30133\atlmfc\include\atlsimpstr.h

; 519  : 		return( GetData()->nDataLength );

  0057a	8b 06		 mov	 eax, DWORD PTR [esi]
; File C:\Program Files (x86)\Microsoft Visual Studio\2019\Community\VC\Tools\MSVC\14.29.30133\atlmfc\include\cstringt.h

; 2403 : 		CThisSimpleString::Concatenate( strResult, str1, str1.GetLength(), psz2, CThisSimpleString::StringLength( psz2 ) );

  0057c	6a 02		 push	 2
  0057e	68 00 00 00 00	 push	 OFFSET ??_C@_02PLJDPFIO@00@

; 2404 : 
; 2405 : 		return( strResult );

  00583	c7 85 84 fe ff
	ff 9f 00 00 00	 mov	 DWORD PTR $T13[ebp], 159 ; 0000009fH
  0058d	ff 70 f4	 push	 DWORD PTR [eax-12]
  00590	50		 push	 eax
  00591	8d 85 a0 fe ff
	ff		 lea	 eax, DWORD PTR $T24[ebp]
  00597	50		 push	 eax
  00598	ff 15 00 00 00
	00		 call	 DWORD PTR __imp_?Concatenate@?$CSimpleStringT@D$00@ATL@@KAXAAV12@PBDH1H@Z
  0059e	83 c4 14	 add	 esp, 20			; 00000014H
; File D:\git\src\IBK\IBK_DRFN\ProjSrc\SrcChartEx\ChartAddIn\ChartAnalysisToolAddIn\Symbol\ElementSaverBuilder.cpp

; 378  : 				strMakeTime = strYear + strMon + strDay + strX.Right(4) + _T("00");

  005a1	8d 85 a0 fe ff
	ff		 lea	 eax, DWORD PTR $T24[ebp]
  005a7	8d 8d 98 fe ff
	ff		 lea	 ecx, DWORD PTR _strMakeTime$[ebp]
  005ad	50		 push	 eax
  005ae	ff 15 00 00 00
	00		 call	 DWORD PTR __imp_??4?$CStringT@DV?$StrTraitMFC_DLL@DV?$ChTraitsCRT@D@ATL@@@@@ATL@@QAEAAV01@ABV01@@Z
  005b4	8d 8d a0 fe ff
	ff		 lea	 ecx, DWORD PTR $T24[ebp]
  005ba	ff 15 00 00 00
	00		 call	 DWORD PTR __imp_??1?$CStringT@DV?$StrTraitMFC_DLL@DV?$ChTraitsCRT@D@ATL@@@@@ATL@@QAE@XZ
  005c0	8d 8d 60 fe ff
	ff		 lea	 ecx, DWORD PTR $T3[ebp]
  005c6	ff 15 00 00 00
	00		 call	 DWORD PTR __imp_??1?$CStringT@DV?$StrTraitMFC_DLL@DV?$ChTraitsCRT@D@ATL@@@@@ATL@@QAE@XZ
  005cc	8d 8d 78 fe ff
	ff		 lea	 ecx, DWORD PTR $T10[ebp]
  005d2	ff 15 00 00 00
	00		 call	 DWORD PTR __imp_??1?$CStringT@DV?$StrTraitMFC_DLL@DV?$ChTraitsCRT@D@ATL@@@@@ATL@@QAE@XZ
  005d8	8d 8d 74 fe ff
	ff		 lea	 ecx, DWORD PTR $T8[ebp]
  005de	ff 15 00 00 00
	00		 call	 DWORD PTR __imp_??1?$CStringT@DV?$StrTraitMFC_DLL@DV?$ChTraitsCRT@D@ATL@@@@@ATL@@QAE@XZ
  005e4	8d 8d 9c fe ff
	ff		 lea	 ecx, DWORD PTR $T23[ebp]
  005ea	ff 15 00 00 00
	00		 call	 DWORD PTR __imp_??1?$CStringT@DV?$StrTraitMFC_DLL@DV?$ChTraitsCRT@D@ATL@@@@@ATL@@QAE@XZ

; 379  : 			}

  005f0	8d 8d 94 fe ff
	ff		 lea	 ecx, DWORD PTR _strYear$19[ebp]
  005f6	ff 15 00 00 00
	00		 call	 DWORD PTR __imp_??1?$CStringT@DV?$StrTraitMFC_DLL@DV?$ChTraitsCRT@D@ATL@@@@@ATL@@QAE@XZ
  005fc	8d 8d 88 fe ff
	ff		 lea	 ecx, DWORD PTR _strTemp1$15[ebp]
  00602	ff 15 00 00 00
	00		 call	 DWORD PTR __imp_??1?$CStringT@DV?$StrTraitMFC_DLL@DV?$ChTraitsCRT@D@ATL@@@@@ATL@@QAE@XZ
  00608	8d 8d 90 fe ff
	ff		 lea	 ecx, DWORD PTR _strDay$17[ebp]
  0060e	ff 15 00 00 00
	00		 call	 DWORD PTR __imp_??1?$CStringT@DV?$StrTraitMFC_DLL@DV?$ChTraitsCRT@D@ATL@@@@@ATL@@QAE@XZ
  00614	8d 8d a4 fe ff
	ff		 lea	 ecx, DWORD PTR _strMon$31[ebp]
  0061a	ff 15 00 00 00
	00		 call	 DWORD PTR __imp_??1?$CStringT@DV?$StrTraitMFC_DLL@DV?$ChTraitsCRT@D@ATL@@@@@ATL@@QAE@XZ

; 380  : 			break;

  00620	e9 c7 01 00 00	 jmp	 $LN2@MakeDateTi
$LN13@MakeDateTi:

; 381  : 		case CScaleBaseData::HORZ_TICK:			//  
; 382  : 		case CScaleBaseData::HORZ_TIME_SECOND:
; 383  : 			{
; 384  : 				// /  : PC + 
; 385  : 				
; 386  : 				CString strDay;

  00625	8d 8d a4 fe ff
	ff		 lea	 ecx, DWORD PTR _strDay$30[ebp]
  0062b	ff 15 00 00 00
	00		 call	 DWORD PTR __imp_??0?$CStringT@DV?$StrTraitMFC_DLL@DV?$ChTraitsCRT@D@ATL@@@@@ATL@@QAE@XZ
; File C:\Program Files (x86)\Microsoft Visual Studio\2019\Community\VC\Tools\MSVC\14.29.30133\atlmfc\include\atlsimpstr.h

; 519  : 		return( GetData()->nDataLength );

  00631	8b 45 0c	 mov	 eax, DWORD PTR _strX$[ebp]
; File D:\git\src\IBK\IBK_DRFN\ProjSrc\SrcChartEx\ChartAddIn\ChartAnalysisToolAddIn\Symbol\ElementSaverBuilder.cpp

; 388  : 				if (strX.GetLength() == 7)

  00634	8d 4d 0c	 lea	 ecx, DWORD PTR _strX$[ebp]
  00637	c6 45 fc 19	 mov	 BYTE PTR __$EHRec$[ebp+8], 25 ; 00000019H
  0063b	83 78 f4 07	 cmp	 DWORD PTR [eax-12], 7
  0063f	8d 85 9c fe ff
	ff		 lea	 eax, DWORD PTR $T22[ebp]
  00645	75 0f		 jne	 SHORT $LN15@MakeDateTi

; 389  : 					strDay.Format("%02d", atoi(strX.Left(1)));	// data %02d      (, 5 05  5  )

  00647	6a 01		 push	 1
  00649	50		 push	 eax
  0064a	ff 15 00 00 00
	00		 call	 DWORD PTR __imp_?Left@?$CStringT@DV?$StrTraitMFC_DLL@DV?$ChTraitsCRT@D@ATL@@@@@ATL@@QBE?AV12@H@Z
  00650	c6 45 fc 1a	 mov	 BYTE PTR __$EHRec$[ebp+8], 26 ; 0000001aH
  00654	eb 0d		 jmp	 SHORT $LN192@MakeDateTi
$LN15@MakeDateTi:

; 390  : 				else
; 391  : 					strDay.Format("%02d", atoi(strX.Left(2)));

  00656	6a 02		 push	 2
  00658	50		 push	 eax
  00659	ff 15 00 00 00
	00		 call	 DWORD PTR __imp_?Left@?$CStringT@DV?$StrTraitMFC_DLL@DV?$ChTraitsCRT@D@ATL@@@@@ATL@@QBE?AV12@H@Z
  0065f	c6 45 fc 1b	 mov	 BYTE PTR __$EHRec$[ebp+8], 27 ; 0000001bH
$LN192@MakeDateTi:

; 392  : 				
; 393  : 				CString strTemp1	= strCurYearMon + strDay;

  00663	ff 30		 push	 DWORD PTR [eax]
  00665	8b 1d 00 00 00
	00		 mov	 ebx, DWORD PTR __imp__atoi
  0066b	ff d3		 call	 ebx
  0066d	50		 push	 eax
  0066e	8d 85 a4 fe ff
	ff		 lea	 eax, DWORD PTR _strDay$30[ebp]
  00674	68 00 00 00 00	 push	 OFFSET ??_C@_04OGKJMPGK@?$CF02d@
  00679	50		 push	 eax
  0067a	ff 15 00 00 00
	00		 call	 DWORD PTR __imp_?Format@?$CStringT@DV?$StrTraitMFC_DLL@DV?$ChTraitsCRT@D@ATL@@@@@ATL@@QAAXPBDZZ
  00680	83 c4 10	 add	 esp, 16			; 00000010H
  00683	c6 45 fc 19	 mov	 BYTE PTR __$EHRec$[ebp+8], 25 ; 00000019H
  00687	8d 8d 9c fe ff
	ff		 lea	 ecx, DWORD PTR $T21[ebp]
  0068d	ff 15 00 00 00
	00		 call	 DWORD PTR __imp_??1?$CStringT@DV?$StrTraitMFC_DLL@DV?$ChTraitsCRT@D@ATL@@@@@ATL@@QAE@XZ
  00693	8d 85 a4 fe ff
	ff		 lea	 eax, DWORD PTR _strDay$30[ebp]
  00699	50		 push	 eax
  0069a	8d 85 7c fe ff
	ff		 lea	 eax, DWORD PTR _strCurYearMon$11[ebp]
  006a0	50		 push	 eax
  006a1	8d 85 88 fe ff
	ff		 lea	 eax, DWORD PTR _strTemp1$14[ebp]
  006a7	50		 push	 eax
  006a8	e8 00 00 00 00	 call	 ??HATL@@YA?AV?$CStringT@DV?$StrTraitMFC_DLL@DV?$ChTraitsCRT@D@ATL@@@@@0@ABV10@0@Z ; ATL::operator+
  006ad	83 c4 0c	 add	 esp, 12			; 0000000cH

; 394  : 				CString strYearMon	= strCurYearMon;

  006b0	8d 85 7c fe ff
	ff		 lea	 eax, DWORD PTR _strCurYearMon$11[ebp]
  006b6	c6 45 fc 1c	 mov	 BYTE PTR __$EHRec$[ebp+8], 28 ; 0000001cH
  006ba	50		 push	 eax
  006bb	8d 8d 94 fe ff
	ff		 lea	 ecx, DWORD PTR _strYearMon$18[ebp]
  006c1	ff 15 00 00 00
	00		 call	 DWORD PTR __imp_??0?$CStringT@DV?$StrTraitMFC_DLL@DV?$ChTraitsCRT@D@ATL@@@@@ATL@@QAE@ABV01@@Z

; 395  : 				
; 396  : 				//    PC   ... PC  -1 .
; 397  : 				if (_atoi64(strTemp1) > _atoi64(strCurDate))

  006c7	ff b5 80 fe ff
	ff		 push	 DWORD PTR _strCurDate$12[ebp]
; File C:\Program Files (x86)\Microsoft Visual Studio\2019\Community\VC\Tools\MSVC\14.29.30133\atlmfc\include\atlsimpstr.h

; 377  : 		return( m_pszData );

  006cd	8b b5 88 fe ff
	ff		 mov	 esi, DWORD PTR _strTemp1$14[ebp]
; File D:\git\src\IBK\IBK_DRFN\ProjSrc\SrcChartEx\ChartAddIn\ChartAnalysisToolAddIn\Symbol\ElementSaverBuilder.cpp

; 394  : 				CString strYearMon	= strCurYearMon;

  006d3	c6 45 fc 1d	 mov	 BYTE PTR __$EHRec$[ebp+8], 29 ; 0000001dH

; 395  : 				
; 396  : 				//    PC   ... PC  -1 .
; 397  : 				if (_atoi64(strTemp1) > _atoi64(strCurDate))

  006d7	ff 15 00 00 00
	00		 call	 DWORD PTR __imp___atoi64
  006dd	56		 push	 esi
  006de	89 85 9c fe ff
	ff		 mov	 DWORD PTR tv710[ebp], eax
  006e4	8b fa		 mov	 edi, edx
  006e6	ff 15 00 00 00
	00		 call	 DWORD PTR __imp___atoi64
  006ec	83 c4 08	 add	 esp, 8
  006ef	3b d7		 cmp	 edx, edi
  006f1	7c 44		 jl	 SHORT $LN17@MakeDateTi
  006f3	7f 08		 jg	 SHORT $LN188@MakeDateTi
  006f5	3b 85 9c fe ff
	ff		 cmp	 eax, DWORD PTR tv710[ebp]
  006fb	76 3a		 jbe	 SHORT $LN17@MakeDateTi
$LN188@MakeDateTi:

; 398  : 				{
; 399  : 					int nYear	= atoi(strCurYear);

  006fd	ff b5 8c fe ff
	ff		 push	 DWORD PTR _strCurYear$16[ebp]
  00703	ff d3		 call	 ebx

; 400  : 					int nMon	= atoi(strCurMon);

  00705	ff b5 64 fe ff
	ff		 push	 DWORD PTR _strCurMon$4[ebp]
  0070b	8b f0		 mov	 esi, eax
  0070d	ff d3		 call	 ebx
  0070f	83 c4 08	 add	 esp, 8

; 401  : 					if (nMon == 1)

  00712	83 f8 01	 cmp	 eax, 1
  00715	75 08		 jne	 SHORT $LN18@MakeDateTi

; 402  : 					{
; 403  : 						// pc 1 ...   -1   12 ...
; 404  : 						nMon = 12;

  00717	b8 0c 00 00 00	 mov	 eax, 12			; 0000000cH

; 405  : 						nYear--;

  0071c	4e		 dec	 esi

; 406  : 					}

  0071d	eb 01		 jmp	 SHORT $LN19@MakeDateTi
$LN18@MakeDateTi:

; 407  : 					else
; 408  : 					{
; 409  : 						nMon--;

  0071f	48		 dec	 eax
$LN19@MakeDateTi:

; 410  : 					}
; 411  : 					strYearMon.Format("%02d%02d", nYear, nMon);

  00720	50		 push	 eax
  00721	56		 push	 esi
  00722	8d 85 94 fe ff
	ff		 lea	 eax, DWORD PTR _strYearMon$18[ebp]
  00728	68 00 00 00 00	 push	 OFFSET ??_C@_08CHLAEBHP@?$CF02d?$CF02d@
  0072d	50		 push	 eax
  0072e	ff 15 00 00 00
	00		 call	 DWORD PTR __imp_?Format@?$CStringT@DV?$StrTraitMFC_DLL@DV?$ChTraitsCRT@D@ATL@@@@@ATL@@QAAXPBDZZ
  00734	83 c4 10	 add	 esp, 16			; 00000010H
$LN17@MakeDateTi:

; 412  : 				}
; 413  : 				
; 414  : 				strMakeTime = strYearMon + strDay + strX.Right(6);

  00737	6a 06		 push	 6
  00739	8d 85 78 fe ff
	ff		 lea	 eax, DWORD PTR $T9[ebp]
  0073f	50		 push	 eax
  00740	8d 4d 0c	 lea	 ecx, DWORD PTR _strX$[ebp]
  00743	ff 15 00 00 00
	00		 call	 DWORD PTR __imp_?Right@?$CStringT@DV?$StrTraitMFC_DLL@DV?$ChTraitsCRT@D@ATL@@@@@ATL@@QBE?AV12@H@Z
  00749	8b f0		 mov	 esi, eax
  0074b	8d 85 a4 fe ff
	ff		 lea	 eax, DWORD PTR _strDay$30[ebp]
  00751	c6 45 fc 1e	 mov	 BYTE PTR __$EHRec$[ebp+8], 30 ; 0000001eH
  00755	50		 push	 eax
  00756	8d 85 94 fe ff
	ff		 lea	 eax, DWORD PTR _strYearMon$18[ebp]
  0075c	50		 push	 eax
  0075d	8d 85 74 fe ff
	ff		 lea	 eax, DWORD PTR $T7[ebp]
  00763	50		 push	 eax
  00764	e8 00 00 00 00	 call	 ??HATL@@YA?AV?$CStringT@DV?$StrTraitMFC_DLL@DV?$ChTraitsCRT@D@ATL@@@@@0@ABV10@0@Z ; ATL::operator+
  00769	56		 push	 esi
  0076a	50		 push	 eax
  0076b	8d 85 9c fe ff
	ff		 lea	 eax, DWORD PTR $T20[ebp]
  00771	c6 45 fc 1f	 mov	 BYTE PTR __$EHRec$[ebp+8], 31 ; 0000001fH
  00775	50		 push	 eax
  00776	e8 00 00 00 00	 call	 ??HATL@@YA?AV?$CStringT@DV?$StrTraitMFC_DLL@DV?$ChTraitsCRT@D@ATL@@@@@0@ABV10@0@Z ; ATL::operator+
  0077b	83 c4 18	 add	 esp, 24			; 00000018H
  0077e	50		 push	 eax
  0077f	8d 8d 98 fe ff
	ff		 lea	 ecx, DWORD PTR _strMakeTime$[ebp]
  00785	c6 45 fc 20	 mov	 BYTE PTR __$EHRec$[ebp+8], 32 ; 00000020H
  00789	ff 15 00 00 00
	00		 call	 DWORD PTR __imp_??4?$CStringT@DV?$StrTraitMFC_DLL@DV?$ChTraitsCRT@D@ATL@@@@@ATL@@QAEAAV01@ABV01@@Z
  0078f	8d 8d 9c fe ff
	ff		 lea	 ecx, DWORD PTR $T20[ebp]
  00795	ff 15 00 00 00
	00		 call	 DWORD PTR __imp_??1?$CStringT@DV?$StrTraitMFC_DLL@DV?$ChTraitsCRT@D@ATL@@@@@ATL@@QAE@XZ
  0079b	8d 8d 74 fe ff
	ff		 lea	 ecx, DWORD PTR $T7[ebp]
  007a1	ff 15 00 00 00
	00		 call	 DWORD PTR __imp_??1?$CStringT@DV?$StrTraitMFC_DLL@DV?$ChTraitsCRT@D@ATL@@@@@ATL@@QAE@XZ
  007a7	8d 8d 78 fe ff
	ff		 lea	 ecx, DWORD PTR $T9[ebp]
  007ad	ff 15 00 00 00
	00		 call	 DWORD PTR __imp_??1?$CStringT@DV?$StrTraitMFC_DLL@DV?$ChTraitsCRT@D@ATL@@@@@ATL@@QAE@XZ

; 415  : 			}

  007b3	8d 8d 94 fe ff
	ff		 lea	 ecx, DWORD PTR _strYearMon$18[ebp]
  007b9	ff 15 00 00 00
	00		 call	 DWORD PTR __imp_??1?$CStringT@DV?$StrTraitMFC_DLL@DV?$ChTraitsCRT@D@ATL@@@@@ATL@@QAE@XZ
  007bf	8d 8d 88 fe ff
	ff		 lea	 ecx, DWORD PTR _strTemp1$14[ebp]
  007c5	ff 15 00 00 00
	00		 call	 DWORD PTR __imp_??1?$CStringT@DV?$StrTraitMFC_DLL@DV?$ChTraitsCRT@D@ATL@@@@@ATL@@QAE@XZ
  007cb	8d 8d a4 fe ff
	ff		 lea	 ecx, DWORD PTR _strDay$30[ebp]
  007d1	ff 15 00 00 00
	00		 call	 DWORD PTR __imp_??1?$CStringT@DV?$StrTraitMFC_DLL@DV?$ChTraitsCRT@D@ATL@@@@@ATL@@QAE@XZ

; 416  : 			break;

  007d7	eb 13		 jmp	 SHORT $LN2@MakeDateTi
$LN20@MakeDateTi:

; 417  : 		default:
; 418  : 			{
; 419  : 				strMakeTime = strCurFull;

  007d9	8d 85 68 fe ff
	ff		 lea	 eax, DWORD PTR _strCurFull$5[ebp]
  007df	50		 push	 eax
  007e0	8d 8d 98 fe ff
	ff		 lea	 ecx, DWORD PTR _strMakeTime$[ebp]
  007e6	ff 15 00 00 00
	00		 call	 DWORD PTR __imp_??4?$CStringT@DV?$StrTraitMFC_DLL@DV?$ChTraitsCRT@D@ATL@@@@@ATL@@QAEAAV01@ABV01@@Z
$LN2@MakeDateTi:

; 420  : 			}
; 421  : 			break;
; 422  : 		}
; 423  : 	}

  007ec	8d 8d 5c fe ff
	ff		 lea	 ecx, DWORD PTR _strFormat$2[ebp]
  007f2	ff 15 00 00 00
	00		 call	 DWORD PTR __imp_??1?$CStringT@DV?$StrTraitMFC_DLL@DV?$ChTraitsCRT@D@ATL@@@@@ATL@@QAE@XZ
  007f8	8d 8d 68 fe ff
	ff		 lea	 ecx, DWORD PTR _strCurFull$5[ebp]
  007fe	ff 15 00 00 00
	00		 call	 DWORD PTR __imp_??1?$CStringT@DV?$StrTraitMFC_DLL@DV?$ChTraitsCRT@D@ATL@@@@@ATL@@QAE@XZ
  00804	8d 8d 80 fe ff
	ff		 lea	 ecx, DWORD PTR _strCurDate$12[ebp]
  0080a	ff 15 00 00 00
	00		 call	 DWORD PTR __imp_??1?$CStringT@DV?$StrTraitMFC_DLL@DV?$ChTraitsCRT@D@ATL@@@@@ATL@@QAE@XZ
  00810	8d 8d 7c fe ff
	ff		 lea	 ecx, DWORD PTR _strCurYearMon$11[ebp]
  00816	ff 15 00 00 00
	00		 call	 DWORD PTR __imp_??1?$CStringT@DV?$StrTraitMFC_DLL@DV?$ChTraitsCRT@D@ATL@@@@@ATL@@QAE@XZ
  0081c	8d 8d 64 fe ff
	ff		 lea	 ecx, DWORD PTR _strCurMon$4[ebp]
  00822	ff 15 00 00 00
	00		 call	 DWORD PTR __imp_??1?$CStringT@DV?$StrTraitMFC_DLL@DV?$ChTraitsCRT@D@ATL@@@@@ATL@@QAE@XZ
  00828	8d 8d 8c fe ff
	ff		 lea	 ecx, DWORD PTR _strCurYear$16[ebp]
  0082e	ff 15 00 00 00
	00		 call	 DWORD PTR __imp_??1?$CStringT@DV?$StrTraitMFC_DLL@DV?$ChTraitsCRT@D@ATL@@@@@ATL@@QAE@XZ
$LN4@MakeDateTi:

; 424  : 
; 425  : 	lMakeTime = _atoi64(strMakeTime);

  00834	ff b5 98 fe ff
	ff		 push	 DWORD PTR _strMakeTime$[ebp]
  0083a	ff 15 00 00 00
	00		 call	 DWORD PTR __imp___atoi64
  00840	83 c4 04	 add	 esp, 4

; 426  : 	return lMakeTime;

  00843	8d 8d 98 fe ff
	ff		 lea	 ecx, DWORD PTR _strMakeTime$[ebp]
  00849	8b f0		 mov	 esi, eax
  0084b	8b fa		 mov	 edi, edx
  0084d	ff 15 00 00 00
	00		 call	 DWORD PTR __imp_??1?$CStringT@DV?$StrTraitMFC_DLL@DV?$ChTraitsCRT@D@ATL@@@@@ATL@@QAE@XZ
  00853	8d 4d 0c	 lea	 ecx, DWORD PTR _strX$[ebp]
  00856	ff 15 00 00 00
	00		 call	 DWORD PTR __imp_??1?$CStringT@DV?$StrTraitMFC_DLL@DV?$ChTraitsCRT@D@ATL@@@@@ATL@@QAE@XZ
  0085c	8b c6		 mov	 eax, esi
  0085e	8b d7		 mov	 edx, edi

; 427  : }

  00860	8b 4d f4	 mov	 ecx, DWORD PTR __$EHRec$[ebp]
  00863	64 89 0d 00 00
	00 00		 mov	 DWORD PTR fs:0, ecx
  0086a	59		 pop	 ecx
  0086b	5f		 pop	 edi
  0086c	5e		 pop	 esi
  0086d	5b		 pop	 ebx
  0086e	8b 4d f0	 mov	 ecx, DWORD PTR __$ArrayPad$[ebp]
  00871	33 cd		 xor	 ecx, ebp
  00873	e8 00 00 00 00	 call	 @__security_check_cookie@4
  00878	8b e5		 mov	 esp, ebp
  0087a	5d		 pop	 ebp
  0087b	c2 08 00	 ret	 8
$LN194@MakeDateTi:
; File C:\Program Files (x86)\Microsoft Visual Studio\2019\Community\VC\Tools\MSVC\14.29.30133\atlmfc\include\atltime.h

; 1068 : 		AtlThrow(E_INVALIDARG);

  0087e	68 57 00 07 80	 push	 -2147024809		; 80070057H
  00883	e8 00 00 00 00	 call	 ?AtlThrowImpl@ATL@@YGXJ@Z ; ATL::AtlThrowImpl
$LN195@MakeDateTi:
  00888	68 57 00 07 80	 push	 -2147024809		; 80070057H
  0088d	e8 00 00 00 00	 call	 ?AtlThrowImpl@ATL@@YGXJ@Z ; ATL::AtlThrowImpl
$LN196@MakeDateTi:
  00892	68 57 00 07 80	 push	 -2147024809		; 80070057H
  00897	e8 00 00 00 00	 call	 ?AtlThrowImpl@ATL@@YGXJ@Z ; ATL::AtlThrowImpl
$LN197@MakeDateTi:
  0089c	68 57 00 07 80	 push	 -2147024809		; 80070057H
  008a1	e8 00 00 00 00	 call	 ?AtlThrowImpl@ATL@@YGXJ@Z ; ATL::AtlThrowImpl
$LN198@MakeDateTi:
  008a6	68 57 00 07 80	 push	 -2147024809		; 80070057H
  008ab	e8 00 00 00 00	 call	 ?AtlThrowImpl@ATL@@YGXJ@Z ; ATL::AtlThrowImpl
$LN190@MakeDateTi:
$LN186@MakeDateTi:
; File D:\git\src\IBK\IBK_DRFN\ProjSrc\SrcChartEx\ChartAddIn\ChartAnalysisToolAddIn\Symbol\ElementSaverBuilder.cpp

; 427  : }

  008b0	00 00 00 00	 DD	 $LN5@MakeDateTi
  008b4	00 00 00 00	 DD	 $LN7@MakeDateTi
  008b8	00 00 00 00	 DD	 $LN8@MakeDateTi
  008bc	00 00 00 00	 DD	 $LN13@MakeDateTi
  008c0	00 00 00 00	 DD	 $LN20@MakeDateTi
$LN185@MakeDateTi:
  008c4	00		 DB	 0
  008c5	00		 DB	 0
  008c6	01		 DB	 1
  008c7	02		 DB	 2
  008c8	03		 DB	 3
  008c9	02		 DB	 2
  008ca	04		 DB	 4
  008cb	04		 DB	 4
  008cc	04		 DB	 4
  008cd	04		 DB	 4
  008ce	04		 DB	 4
  008cf	03		 DB	 3
_TEXT	ENDS
;	COMDAT text$x
text$x	SEGMENT
__unwindfunclet$?MakeDateTime@CElementSaverBuilder@@AAE_JW4HORZSCALEDRAWERTYPE@CScaleBaseData@@V?$CStringT@DV?$StrTraitMFC_DLL@DV?$ChTraitsCRT@D@ATL@@@@@ATL@@@Z$0:
  00000	8d 4d 0c	 lea	 ecx, DWORD PTR _strX$[ebp]
  00003	ff 25 00 00 00
	00		 jmp	 DWORD PTR __imp_??1?$CStringT@DV?$StrTraitMFC_DLL@DV?$ChTraitsCRT@D@ATL@@@@@ATL@@QAE@XZ
__unwindfunclet$?MakeDateTime@CElementSaverBuilder@@AAE_JW4HORZSCALEDRAWERTYPE@CScaleBaseData@@V?$CStringT@DV?$StrTraitMFC_DLL@DV?$ChTraitsCRT@D@ATL@@@@@ATL@@@Z$1:
  00009	8d 8d 98 fe ff
	ff		 lea	 ecx, DWORD PTR _strMakeTime$[ebp]
  0000f	ff 25 00 00 00
	00		 jmp	 DWORD PTR __imp_??1?$CStringT@DV?$StrTraitMFC_DLL@DV?$ChTraitsCRT@D@ATL@@@@@ATL@@QAE@XZ
__unwindfunclet$?MakeDateTime@CElementSaverBuilder@@AAE_JW4HORZSCALEDRAWERTYPE@CScaleBaseData@@V?$CStringT@DV?$StrTraitMFC_DLL@DV?$ChTraitsCRT@D@ATL@@@@@ATL@@@Z$2:
  00015	8d 8d 8c fe ff
	ff		 lea	 ecx, DWORD PTR _strCurYear$16[ebp]
  0001b	ff 25 00 00 00
	00		 jmp	 DWORD PTR __imp_??1?$CStringT@DV?$StrTraitMFC_DLL@DV?$ChTraitsCRT@D@ATL@@@@@ATL@@QAE@XZ
__unwindfunclet$?MakeDateTime@CElementSaverBuilder@@AAE_JW4HORZSCALEDRAWERTYPE@CScaleBaseData@@V?$CStringT@DV?$StrTraitMFC_DLL@DV?$ChTraitsCRT@D@ATL@@@@@ATL@@@Z$3:
  00021	8d 8d 64 fe ff
	ff		 lea	 ecx, DWORD PTR _strCurMon$4[ebp]
  00027	ff 25 00 00 00
	00		 jmp	 DWORD PTR __imp_??1?$CStringT@DV?$StrTraitMFC_DLL@DV?$ChTraitsCRT@D@ATL@@@@@ATL@@QAE@XZ
__unwindfunclet$?MakeDateTime@CElementSaverBuilder@@AAE_JW4HORZSCALEDRAWERTYPE@CScaleBaseData@@V?$CStringT@DV?$StrTraitMFC_DLL@DV?$ChTraitsCRT@D@ATL@@@@@ATL@@@Z$4:
  0002d	8d 8d 7c fe ff
	ff		 lea	 ecx, DWORD PTR _strCurYearMon$11[ebp]
  00033	ff 25 00 00 00
	00		 jmp	 DWORD PTR __imp_??1?$CStringT@DV?$StrTraitMFC_DLL@DV?$ChTraitsCRT@D@ATL@@@@@ATL@@QAE@XZ
__unwindfunclet$?MakeDateTime@CElementSaverBuilder@@AAE_JW4HORZSCALEDRAWERTYPE@CScaleBaseData@@V?$CStringT@DV?$StrTraitMFC_DLL@DV?$ChTraitsCRT@D@ATL@@@@@ATL@@@Z$5:
  00039	8d 8d 80 fe ff
	ff		 lea	 ecx, DWORD PTR _strCurDate$12[ebp]
  0003f	ff 25 00 00 00
	00		 jmp	 DWORD PTR __imp_??1?$CStringT@DV?$StrTraitMFC_DLL@DV?$ChTraitsCRT@D@ATL@@@@@ATL@@QAE@XZ
__unwindfunclet$?MakeDateTime@CElementSaverBuilder@@AAE_JW4HORZSCALEDRAWERTYPE@CScaleBaseData@@V?$CStringT@DV?$StrTraitMFC_DLL@DV?$ChTraitsCRT@D@ATL@@@@@ATL@@@Z$6:
  00045	8d 8d 68 fe ff
	ff		 lea	 ecx, DWORD PTR _strCurFull$5[ebp]
  0004b	ff 25 00 00 00
	00		 jmp	 DWORD PTR __imp_??1?$CStringT@DV?$StrTraitMFC_DLL@DV?$ChTraitsCRT@D@ATL@@@@@ATL@@QAE@XZ
__unwindfunclet$?MakeDateTime@CElementSaverBuilder@@AAE_JW4HORZSCALEDRAWERTYPE@CScaleBaseData@@V?$CStringT@DV?$StrTraitMFC_DLL@DV?$ChTraitsCRT@D@ATL@@@@@ATL@@@Z$7:
  00051	8d 8d 5c fe ff
	ff		 lea	 ecx, DWORD PTR _strFormat$2[ebp]
  00057	ff 25 00 00 00
	00		 jmp	 DWORD PTR __imp_??1?$CStringT@DV?$StrTraitMFC_DLL@DV?$ChTraitsCRT@D@ATL@@@@@ATL@@QAE@XZ
__unwindfunclet$?MakeDateTime@CElementSaverBuilder@@AAE_JW4HORZSCALEDRAWERTYPE@CScaleBaseData@@V?$CStringT@DV?$StrTraitMFC_DLL@DV?$ChTraitsCRT@D@ATL@@@@@ATL@@@Z$37:
  0005d	8b 85 84 fe ff
	ff		 mov	 eax, DWORD PTR $T13[ebp]
  00063	83 e0 20	 and	 eax, 32			; 00000020H
  00066	0f 84 13 00 00
	00		 je	 $LN113@MakeDateTi
  0006c	83 a5 84 fe ff
	ff df		 and	 DWORD PTR $T13[ebp], -33 ; ffffffdfH
  00073	8d 8d a4 fe ff
	ff		 lea	 ecx, DWORD PTR $T33[ebp]
  00079	ff 25 00 00 00
	00		 jmp	 DWORD PTR __imp_??1?$CStringT@DV?$StrTraitMFC_DLL@DV?$ChTraitsCRT@D@ATL@@@@@ATL@@QAE@XZ
$LN113@MakeDateTi:
  0007f	c3		 ret	 0
__unwindfunclet$?MakeDateTime@CElementSaverBuilder@@AAE_JW4HORZSCALEDRAWERTYPE@CScaleBaseData@@V?$CStringT@DV?$StrTraitMFC_DLL@DV?$ChTraitsCRT@D@ATL@@@@@ATL@@@Z$38:
  00080	8b 85 84 fe ff
	ff		 mov	 eax, DWORD PTR $T13[ebp]
  00086	83 e0 40	 and	 eax, 64			; 00000040H
  00089	0f 84 13 00 00
	00		 je	 $LN126@MakeDateTi
  0008f	83 a5 84 fe ff
	ff bf		 and	 DWORD PTR $T13[ebp], -65 ; ffffffbfH
  00096	8d 8d a4 fe ff
	ff		 lea	 ecx, DWORD PTR $T32[ebp]
  0009c	ff 25 00 00 00
	00		 jmp	 DWORD PTR __imp_??1?$CStringT@DV?$StrTraitMFC_DLL@DV?$ChTraitsCRT@D@ATL@@@@@ATL@@QAE@XZ
$LN126@MakeDateTi:
  000a2	c3		 ret	 0
__unwindfunclet$?MakeDateTime@CElementSaverBuilder@@AAE_JW4HORZSCALEDRAWERTYPE@CScaleBaseData@@V?$CStringT@DV?$StrTraitMFC_DLL@DV?$ChTraitsCRT@D@ATL@@@@@ATL@@@Z$10:
  000a3	8d 8d a4 fe ff
	ff		 lea	 ecx, DWORD PTR _strMon$31[ebp]
  000a9	ff 25 00 00 00
	00		 jmp	 DWORD PTR __imp_??1?$CStringT@DV?$StrTraitMFC_DLL@DV?$ChTraitsCRT@D@ATL@@@@@ATL@@QAE@XZ
__unwindfunclet$?MakeDateTime@CElementSaverBuilder@@AAE_JW4HORZSCALEDRAWERTYPE@CScaleBaseData@@V?$CStringT@DV?$StrTraitMFC_DLL@DV?$ChTraitsCRT@D@ATL@@@@@ATL@@@Z$11:
  000af	8d 8d 90 fe ff
	ff		 lea	 ecx, DWORD PTR _strDay$17[ebp]
  000b5	ff 25 00 00 00
	00		 jmp	 DWORD PTR __imp_??1?$CStringT@DV?$StrTraitMFC_DLL@DV?$ChTraitsCRT@D@ATL@@@@@ATL@@QAE@XZ
__unwindfunclet$?MakeDateTime@CElementSaverBuilder@@AAE_JW4HORZSCALEDRAWERTYPE@CScaleBaseData@@V?$CStringT@DV?$StrTraitMFC_DLL@DV?$ChTraitsCRT@D@ATL@@@@@ATL@@@Z$12:
  000bb	8d 8d a0 fe ff
	ff		 lea	 ecx, DWORD PTR $T29[ebp]
  000c1	ff 25 00 00 00
	00		 jmp	 DWORD PTR __imp_??1?$CStringT@DV?$StrTraitMFC_DLL@DV?$ChTraitsCRT@D@ATL@@@@@ATL@@QAE@XZ
__unwindfunclet$?MakeDateTime@CElementSaverBuilder@@AAE_JW4HORZSCALEDRAWERTYPE@CScaleBaseData@@V?$CStringT@DV?$StrTraitMFC_DLL@DV?$ChTraitsCRT@D@ATL@@@@@ATL@@@Z$13:
  000c7	8d 8d a0 fe ff
	ff		 lea	 ecx, DWORD PTR $T28[ebp]
  000cd	ff 25 00 00 00
	00		 jmp	 DWORD PTR __imp_??1?$CStringT@DV?$StrTraitMFC_DLL@DV?$ChTraitsCRT@D@ATL@@@@@ATL@@QAE@XZ
__unwindfunclet$?MakeDateTime@CElementSaverBuilder@@AAE_JW4HORZSCALEDRAWERTYPE@CScaleBaseData@@V?$CStringT@DV?$StrTraitMFC_DLL@DV?$ChTraitsCRT@D@ATL@@@@@ATL@@@Z$14:
  000d3	8d 8d a0 fe ff
	ff		 lea	 ecx, DWORD PTR $T27[ebp]
  000d9	ff 25 00 00 00
	00		 jmp	 DWORD PTR __imp_??1?$CStringT@DV?$StrTraitMFC_DLL@DV?$ChTraitsCRT@D@ATL@@@@@ATL@@QAE@XZ
__unwindfunclet$?MakeDateTime@CElementSaverBuilder@@AAE_JW4HORZSCALEDRAWERTYPE@CScaleBaseData@@V?$CStringT@DV?$StrTraitMFC_DLL@DV?$ChTraitsCRT@D@ATL@@@@@ATL@@@Z$15:
  000df	8d 8d a0 fe ff
	ff		 lea	 ecx, DWORD PTR $T26[ebp]
  000e5	ff 25 00 00 00
	00		 jmp	 DWORD PTR __imp_??1?$CStringT@DV?$StrTraitMFC_DLL@DV?$ChTraitsCRT@D@ATL@@@@@ATL@@QAE@XZ
__unwindfunclet$?MakeDateTime@CElementSaverBuilder@@AAE_JW4HORZSCALEDRAWERTYPE@CScaleBaseData@@V?$CStringT@DV?$StrTraitMFC_DLL@DV?$ChTraitsCRT@D@ATL@@@@@ATL@@@Z$16:
  000eb	8d 8d a0 fe ff
	ff		 lea	 ecx, DWORD PTR $T25[ebp]
  000f1	ff 25 00 00 00
	00		 jmp	 DWORD PTR __imp_??1?$CStringT@DV?$StrTraitMFC_DLL@DV?$ChTraitsCRT@D@ATL@@@@@ATL@@QAE@XZ
__unwindfunclet$?MakeDateTime@CElementSaverBuilder@@AAE_JW4HORZSCALEDRAWERTYPE@CScaleBaseData@@V?$CStringT@DV?$StrTraitMFC_DLL@DV?$ChTraitsCRT@D@ATL@@@@@ATL@@@Z$17:
  000f7	8d 8d 88 fe ff
	ff		 lea	 ecx, DWORD PTR _strTemp1$15[ebp]
  000fd	ff 25 00 00 00
	00		 jmp	 DWORD PTR __imp_??1?$CStringT@DV?$StrTraitMFC_DLL@DV?$ChTraitsCRT@D@ATL@@@@@ATL@@QAE@XZ
__unwindfunclet$?MakeDateTime@CElementSaverBuilder@@AAE_JW4HORZSCALEDRAWERTYPE@CScaleBaseData@@V?$CStringT@DV?$StrTraitMFC_DLL@DV?$ChTraitsCRT@D@ATL@@@@@ATL@@@Z$18:
  00103	8d 8d 94 fe ff
	ff		 lea	 ecx, DWORD PTR _strYear$19[ebp]
  00109	ff 25 00 00 00
	00		 jmp	 DWORD PTR __imp_??1?$CStringT@DV?$StrTraitMFC_DLL@DV?$ChTraitsCRT@D@ATL@@@@@ATL@@QAE@XZ
__unwindfunclet$?MakeDateTime@CElementSaverBuilder@@AAE_JW4HORZSCALEDRAWERTYPE@CScaleBaseData@@V?$CStringT@DV?$StrTraitMFC_DLL@DV?$ChTraitsCRT@D@ATL@@@@@ATL@@@Z$19:
  0010f	8d 8d 9c fe ff
	ff		 lea	 ecx, DWORD PTR $T23[ebp]
  00115	ff 25 00 00 00
	00		 jmp	 DWORD PTR __imp_??1?$CStringT@DV?$StrTraitMFC_DLL@DV?$ChTraitsCRT@D@ATL@@@@@ATL@@QAE@XZ
__unwindfunclet$?MakeDateTime@CElementSaverBuilder@@AAE_JW4HORZSCALEDRAWERTYPE@CScaleBaseData@@V?$CStringT@DV?$StrTraitMFC_DLL@DV?$ChTraitsCRT@D@ATL@@@@@ATL@@@Z$20:
  0011b	8d 8d 74 fe ff
	ff		 lea	 ecx, DWORD PTR $T8[ebp]
  00121	ff 25 00 00 00
	00		 jmp	 DWORD PTR __imp_??1?$CStringT@DV?$StrTraitMFC_DLL@DV?$ChTraitsCRT@D@ATL@@@@@ATL@@QAE@XZ
__unwindfunclet$?MakeDateTime@CElementSaverBuilder@@AAE_JW4HORZSCALEDRAWERTYPE@CScaleBaseData@@V?$CStringT@DV?$StrTraitMFC_DLL@DV?$ChTraitsCRT@D@ATL@@@@@ATL@@@Z$21:
  00127	8d 8d 78 fe ff
	ff		 lea	 ecx, DWORD PTR $T10[ebp]
  0012d	ff 25 00 00 00
	00		 jmp	 DWORD PTR __imp_??1?$CStringT@DV?$StrTraitMFC_DLL@DV?$ChTraitsCRT@D@ATL@@@@@ATL@@QAE@XZ
__unwindfunclet$?MakeDateTime@CElementSaverBuilder@@AAE_JW4HORZSCALEDRAWERTYPE@CScaleBaseData@@V?$CStringT@DV?$StrTraitMFC_DLL@DV?$ChTraitsCRT@D@ATL@@@@@ATL@@@Z$22:
  00133	8d 8d 60 fe ff
	ff		 lea	 ecx, DWORD PTR $T3[ebp]
  00139	ff 25 00 00 00
	00		 jmp	 DWORD PTR __imp_??1?$CStringT@DV?$StrTraitMFC_DLL@DV?$ChTraitsCRT@D@ATL@@@@@ATL@@QAE@XZ
__unwindfunclet$?MakeDateTime@CElementSaverBuilder@@AAE_JW4HORZSCALEDRAWERTYPE@CScaleBaseData@@V?$CStringT@DV?$StrTraitMFC_DLL@DV?$ChTraitsCRT@D@ATL@@@@@ATL@@@Z$39:
  0013f	8b 85 84 fe ff
	ff		 mov	 eax, DWORD PTR $T13[ebp]
  00145	25 80 00 00 00	 and	 eax, 128		; 00000080H
  0014a	0f 84 16 00 00
	00		 je	 $LN157@MakeDateTi
  00150	81 a5 84 fe ff
	ff 7f ff ff ff	 and	 DWORD PTR $T13[ebp], -129 ; ffffff7fH
  0015a	8d 8d a0 fe ff
	ff		 lea	 ecx, DWORD PTR $T24[ebp]
  00160	ff 25 00 00 00
	00		 jmp	 DWORD PTR __imp_??1?$CStringT@DV?$StrTraitMFC_DLL@DV?$ChTraitsCRT@D@ATL@@@@@ATL@@QAE@XZ
$LN157@MakeDateTi:
  00166	c3		 ret	 0
__unwindfunclet$?MakeDateTime@CElementSaverBuilder@@AAE_JW4HORZSCALEDRAWERTYPE@CScaleBaseData@@V?$CStringT@DV?$StrTraitMFC_DLL@DV?$ChTraitsCRT@D@ATL@@@@@ATL@@@Z$24:
  00167	8d 8d a4 fe ff
	ff		 lea	 ecx, DWORD PTR _strDay$30[ebp]
  0016d	ff 25 00 00 00
	00		 jmp	 DWORD PTR __imp_??1?$CStringT@DV?$StrTraitMFC_DLL@DV?$ChTraitsCRT@D@ATL@@@@@ATL@@QAE@XZ
__unwindfunclet$?MakeDateTime@CElementSaverBuilder@@AAE_JW4HORZSCALEDRAWERTYPE@CScaleBaseData@@V?$CStringT@DV?$StrTraitMFC_DLL@DV?$ChTraitsCRT@D@ATL@@@@@ATL@@@Z$25:
  00173	8d 8d 9c fe ff
	ff		 lea	 ecx, DWORD PTR $T22[ebp]
  00179	ff 25 00 00 00
	00		 jmp	 DWORD PTR __imp_??1?$CStringT@DV?$StrTraitMFC_DLL@DV?$ChTraitsCRT@D@ATL@@@@@ATL@@QAE@XZ
__unwindfunclet$?MakeDateTime@CElementSaverBuilder@@AAE_JW4HORZSCALEDRAWERTYPE@CScaleBaseData@@V?$CStringT@DV?$StrTraitMFC_DLL@DV?$ChTraitsCRT@D@ATL@@@@@ATL@@@Z$26:
  0017f	8d 8d 9c fe ff
	ff		 lea	 ecx, DWORD PTR $T21[ebp]
  00185	ff 25 00 00 00
	00		 jmp	 DWORD PTR __imp_??1?$CStringT@DV?$StrTraitMFC_DLL@DV?$ChTraitsCRT@D@ATL@@@@@ATL@@QAE@XZ
__unwindfunclet$?MakeDateTime@CElementSaverBuilder@@AAE_JW4HORZSCALEDRAWERTYPE@CScaleBaseData@@V?$CStringT@DV?$StrTraitMFC_DLL@DV?$ChTraitsCRT@D@ATL@@@@@ATL@@@Z$27:
  0018b	8d 8d 88 fe ff
	ff		 lea	 ecx, DWORD PTR _strTemp1$14[ebp]
  00191	ff 25 00 00 00
	00		 jmp	 DWORD PTR __imp_??1?$CStringT@DV?$StrTraitMFC_DLL@DV?$ChTraitsCRT@D@ATL@@@@@ATL@@QAE@XZ
__unwindfunclet$?MakeDateTime@CElementSaverBuilder@@AAE_JW4HORZSCALEDRAWERTYPE@CScaleBaseData@@V?$CStringT@DV?$StrTraitMFC_DLL@DV?$ChTraitsCRT@D@ATL@@@@@ATL@@@Z$28:
  00197	8d 8d 94 fe ff
	ff		 lea	 ecx, DWORD PTR _strYearMon$18[ebp]
  0019d	ff 25 00 00 00
	00		 jmp	 DWORD PTR __imp_??1?$CStringT@DV?$StrTraitMFC_DLL@DV?$ChTraitsCRT@D@ATL@@@@@ATL@@QAE@XZ
__unwindfunclet$?MakeDateTime@CElementSaverBuilder@@AAE_JW4HORZSCALEDRAWERTYPE@CScaleBaseData@@V?$CStringT@DV?$StrTraitMFC_DLL@DV?$ChTraitsCRT@D@ATL@@@@@ATL@@@Z$29:
  001a3	8d 8d 78 fe ff
	ff		 lea	 ecx, DWORD PTR $T9[ebp]
  001a9	ff 25 00 00 00
	00		 jmp	 DWORD PTR __imp_??1?$CStringT@DV?$StrTraitMFC_DLL@DV?$ChTraitsCRT@D@ATL@@@@@ATL@@QAE@XZ
__unwindfunclet$?MakeDateTime@CElementSaverBuilder@@AAE_JW4HORZSCALEDRAWERTYPE@CScaleBaseData@@V?$CStringT@DV?$StrTraitMFC_DLL@DV?$ChTraitsCRT@D@ATL@@@@@ATL@@@Z$30:
  001af	8d 8d 74 fe ff
	ff		 lea	 ecx, DWORD PTR $T7[ebp]
  001b5	ff 25 00 00 00
	00		 jmp	 DWORD PTR __imp_??1?$CStringT@DV?$StrTraitMFC_DLL@DV?$ChTraitsCRT@D@ATL@@@@@ATL@@QAE@XZ
__unwindfunclet$?MakeDateTime@CElementSaverBuilder@@AAE_JW4HORZSCALEDRAWERTYPE@CScaleBaseData@@V?$CStringT@DV?$StrTraitMFC_DLL@DV?$ChTraitsCRT@D@ATL@@@@@ATL@@@Z$31:
  001bb	8d 8d 9c fe ff
	ff		 lea	 ecx, DWORD PTR $T20[ebp]
  001c1	ff 25 00 00 00
	00		 jmp	 DWORD PTR __imp_??1?$CStringT@DV?$StrTraitMFC_DLL@DV?$ChTraitsCRT@D@ATL@@@@@ATL@@QAE@XZ
  001c7	cc		 int	 3
  001c8	cc		 int	 3
  001c9	cc		 int	 3
  001ca	cc		 int	 3
  001cb	cc		 int	 3
__ehhandler$?MakeDateTime@CElementSaverBuilder@@AAE_JW4HORZSCALEDRAWERTYPE@CScaleBaseData@@V?$CStringT@DV?$StrTraitMFC_DLL@DV?$ChTraitsCRT@D@ATL@@@@@ATL@@@Z:
  001cc	90		 npad	 1
  001cd	90		 npad	 1
  001ce	8b 54 24 08	 mov	 edx, DWORD PTR [esp+8]
  001d2	8d 42 0c	 lea	 eax, DWORD PTR [edx+12]
  001d5	8b 8a 58 fe ff
	ff		 mov	 ecx, DWORD PTR [edx-424]
  001db	33 c8		 xor	 ecx, eax
  001dd	e8 00 00 00 00	 call	 @__security_check_cookie@4
  001e2	8b 4a fc	 mov	 ecx, DWORD PTR [edx-4]
  001e5	33 c8		 xor	 ecx, eax
  001e7	e8 00 00 00 00	 call	 @__security_check_cookie@4
  001ec	b8 00 00 00 00	 mov	 eax, OFFSET __ehfuncinfo$?MakeDateTime@CElementSaverBuilder@@AAE_JW4HORZSCALEDRAWERTYPE@CScaleBaseData@@V?$CStringT@DV?$StrTraitMFC_DLL@DV?$ChTraitsCRT@D@ATL@@@@@ATL@@@Z
  001f1	e9 00 00 00 00	 jmp	 ___CxxFrameHandler3
text$x	ENDS
?MakeDateTime@CElementSaverBuilder@@AAE_JW4HORZSCALEDRAWERTYPE@CScaleBaseData@@V?$CStringT@DV?$StrTraitMFC_DLL@DV?$ChTraitsCRT@D@ATL@@@@@ATL@@@Z ENDP ; CElementSaverBuilder::MakeDateTime
; Function compile flags: /Ogtp
; File D:\git\src\IBK\IBK_DRFN\ProjSrc\SrcChartEx\ChartAddIn\ChartAnalysisToolAddIn\Symbol\ElementSaverBuilder.cpp
; File C:\Program Files (x86)\Microsoft Visual Studio\2019\Community\VC\Tools\MSVC\14.29.30133\atlmfc\include\cstringt.h
; File D:\git\src\IBK\IBK_DRFN\ProjSrc\SrcChartEx\ChartAddIn\ChartAnalysisToolAddIn\Symbol\ElementSaverBuilder.cpp
; File C:\Program Files (x86)\Microsoft Visual Studio\2019\Community\VC\Tools\MSVC\14.29.30133\atlmfc\include\cstringt.h
; File C:\Program Files (x86)\Microsoft Visual Studio\2019\Community\VC\Tools\MSVC\14.29.30133\atlmfc\include\atlsimpstr.h
; File C:\Program Files (x86)\Microsoft Visual Studio\2019\Community\VC\Tools\MSVC\14.29.30133\atlmfc\include\cstringt.h
; File D:\git\src\IBK\IBK_DRFN\ProjSrc\SrcChartEx\ChartAddIn\ChartAnalysisToolAddIn\Symbol\ElementSaverBuilder.cpp
; File C:\Program Files (x86)\Microsoft Visual Studio\2019\Community\VC\Tools\MSVC\14.29.30133\atlmfc\include\cstringt.h
; File D:\git\src\IBK\IBK_DRFN\ProjSrc\SrcChartEx\ChartAddIn\ChartAnalysisToolAddIn\Symbol\ElementSaverBuilder.cpp
; File C:\Program Files (x86)\Microsoft Visual Studio\2019\Community\VC\Tools\MSVC\14.29.30133\atlmfc\include\cstringt.h
; File C:\Program Files (x86)\Microsoft Visual Studio\2019\Community\VC\Tools\MSVC\14.29.30133\atlmfc\include\atlsimpstr.h
; File C:\Program Files (x86)\Microsoft Visual Studio\2019\Community\VC\Tools\MSVC\14.29.30133\atlmfc\include\cstringt.h
; File D:\git\src\IBK\IBK_DRFN\ProjSrc\SrcChartEx\ChartAddIn\ChartAnalysisToolAddIn\Symbol\ElementSaverBuilder.cpp
; File C:\Program Files (x86)\Microsoft Visual Studio\2019\Community\VC\Tools\MSVC\14.29.30133\atlmfc\include\cstringt.h
; File D:\git\src\IBK\IBK_DRFN\ProjSrc\SrcChartEx\ChartAddIn\ChartAnalysisToolAddIn\Symbol\ElementSaverBuilder.cpp
; File C:\Program Files (x86)\Microsoft Visual Studio\2019\Community\VC\Tools\MSVC\14.29.30133\atlmfc\include\cstringt.h
; File C:\Program Files (x86)\Microsoft Visual Studio\2019\Community\VC\Tools\MSVC\14.29.30133\atlmfc\include\atlsimpstr.h
; File C:\Program Files (x86)\Microsoft Visual Studio\2019\Community\VC\Tools\MSVC\14.29.30133\atlmfc\include\cstringt.h
; File D:\git\src\IBK\IBK_DRFN\ProjSrc\SrcChartEx\ChartAddIn\ChartAnalysisToolAddIn\Symbol\ElementSaverBuilder.cpp
; File C:\Program Files (x86)\Microsoft Visual Studio\2019\Community\VC\Tools\MSVC\14.29.30133\atlmfc\include\cstringt.h
; File D:\git\src\IBK\IBK_DRFN\ProjSrc\SrcChartEx\ChartAddIn\ChartAnalysisToolAddIn\Symbol\ElementSaverBuilder.cpp
; File C:\Program Files (x86)\Microsoft Visual Studio\2019\Community\VC\Tools\MSVC\14.29.30133\atlmfc\include\cstringt.h
; File D:\git\src\IBK\IBK_DRFN\ProjSrc\SrcChartEx\ChartAddIn\ChartAnalysisToolAddIn\Symbol\ElementSaverBuilder.cpp
;	COMDAT ?MakeStringFromLOGFONT@CElementSaverBuilder@@AAE?AV?$CStringT@DV?$StrTraitMFC_DLL@DV?$ChTraitsCRT@D@ATL@@@@@ATL@@ABUtagLOGFONTA@@@Z
_TEXT	SEGMENT
$T2 = -24						; size = 4
$T3 = -24						; size = 4
$T4 = -24						; size = 4
_text$ = -20						; size = 4
$T5 = -16						; size = 4
__$EHRec$ = -12						; size = 12
___$ReturnUdt$ = 8					; size = 4
$T6 = 12						; size = 4
$T7 = 12						; size = 4
$T8 = 12						; size = 4
$T9 = 12						; size = 4
_logfont$ = 12						; size = 4
?MakeStringFromLOGFONT@CElementSaverBuilder@@AAE?AV?$CStringT@DV?$StrTraitMFC_DLL@DV?$ChTraitsCRT@D@ATL@@@@@ATL@@ABUtagLOGFONTA@@@Z PROC ; CElementSaverBuilder::MakeStringFromLOGFONT, COMDAT
; _this$ = ecx

; 97   : {

  00000	55		 push	 ebp
  00001	8b ec		 mov	 ebp, esp
  00003	6a ff		 push	 -1
  00005	68 00 00 00 00	 push	 __ehhandler$?MakeStringFromLOGFONT@CElementSaverBuilder@@AAE?AV?$CStringT@DV?$StrTraitMFC_DLL@DV?$ChTraitsCRT@D@ATL@@@@@ATL@@ABUtagLOGFONTA@@@Z
  0000a	64 a1 00 00 00
	00		 mov	 eax, DWORD PTR fs:0
  00010	50		 push	 eax
  00011	83 ec 0c	 sub	 esp, 12			; 0000000cH
  00014	53		 push	 ebx
  00015	56		 push	 esi
  00016	57		 push	 edi
  00017	a1 00 00 00 00	 mov	 eax, DWORD PTR ___security_cookie
  0001c	33 c5		 xor	 eax, ebp
  0001e	50		 push	 eax
  0001f	8d 45 f4	 lea	 eax, DWORD PTR __$EHRec$[ebp]
  00022	64 a3 00 00 00
	00		 mov	 DWORD PTR fs:0, eax
  00028	c7 45 f0 00 00
	00 00		 mov	 DWORD PTR $T5[ebp], 0

; 98   : 	CString strValue = "";

  0002f	8b 5d 08	 mov	 ebx, DWORD PTR ___$ReturnUdt$[ebp]
  00032	8b cb		 mov	 ecx, ebx
  00034	68 00 00 00 00	 push	 OFFSET ??_C@_00CNPNBAHC@@
  00039	c7 45 fc 00 00
	00 00		 mov	 DWORD PTR __$EHRec$[ebp+8], 0
  00040	ff 15 00 00 00
	00		 call	 DWORD PTR __imp_??0?$CStringT@DV?$StrTraitMFC_DLL@DV?$ChTraitsCRT@D@ATL@@@@@ATL@@QAE@PBD@Z

; 104  : 	return strValue;

  00046	8b 7d 0c	 mov	 edi, DWORD PTR _logfont$[ebp]
  00049	8d 45 e8	 lea	 eax, DWORD PTR $T4[ebp]
  0004c	c7 45 fc 00 00
	00 00		 mov	 DWORD PTR __$EHRec$[ebp+8], 0
  00053	c7 45 f0 01 00
	00 00		 mov	 DWORD PTR $T5[ebp], 1
  0005a	ff 77 04	 push	 DWORD PTR [edi+4]
  0005d	50		 push	 eax
  0005e	e8 00 00 00 00	 call	 ?IntToString@CDataConversion@@SA?AV?$CStringT@DV?$StrTraitMFC_DLL@DV?$ChTraitsCRT@D@ATL@@@@@ATL@@H@Z ; CDataConversion::IntToString
  00063	83 c4 08	 add	 esp, 8
  00066	8b f0		 mov	 esi, eax
; File C:\Program Files (x86)\Microsoft Visual Studio\2019\Community\VC\Tools\MSVC\14.29.30133\atlmfc\include\cstringt.h

; 2401 : 		CStringT strResult( str1.GetManager() );

  00068	8b ce		 mov	 ecx, esi
; File D:\git\src\IBK\IBK_DRFN\ProjSrc\SrcChartEx\ChartAddIn\ChartAnalysisToolAddIn\Symbol\ElementSaverBuilder.cpp

; 99   : 	strValue += CDataConversion::IntToString(logfont.lfWidth) + ",";

  0006a	c7 45 fc 02 00
	00 00		 mov	 DWORD PTR __$EHRec$[ebp+8], 2
; File C:\Program Files (x86)\Microsoft Visual Studio\2019\Community\VC\Tools\MSVC\14.29.30133\atlmfc\include\cstringt.h

; 2401 : 		CStringT strResult( str1.GetManager() );

  00071	ff 15 00 00 00
	00		 call	 DWORD PTR __imp_?GetManager@?$CStringT@DV?$StrTraitMFC_DLL@DV?$ChTraitsCRT@D@ATL@@@@@ATL@@QBEPAUIAtlStringMgr@2@XZ
  00077	50		 push	 eax
  00078	8d 4d 0c	 lea	 ecx, DWORD PTR $T9[ebp]
  0007b	ff 15 00 00 00
	00		 call	 DWORD PTR __imp_??0?$CStringT@DV?$StrTraitMFC_DLL@DV?$ChTraitsCRT@D@ATL@@@@@ATL@@QAE@PAUIAtlStringMgr@1@@Z
; File C:\Program Files (x86)\Microsoft Visual Studio\2019\Community\VC\Tools\MSVC\14.29.30133\atlmfc\include\atlsimpstr.h

; 519  : 		return( GetData()->nDataLength );

  00081	8b 06		 mov	 eax, DWORD PTR [esi]
; File C:\Program Files (x86)\Microsoft Visual Studio\2019\Community\VC\Tools\MSVC\14.29.30133\atlmfc\include\cstringt.h

; 2403 : 		CThisSimpleString::Concatenate( strResult, str1, str1.GetLength(), psz2, CThisSimpleString::StringLength( psz2 ) );

  00083	6a 01		 push	 1
  00085	68 00 00 00 00	 push	 OFFSET ??_C@_01IHBHIGKO@?0@

; 2404 : 
; 2405 : 		return( strResult );

  0008a	c7 45 f0 03 00
	00 00		 mov	 DWORD PTR $T5[ebp], 3
  00091	ff 70 f4	 push	 DWORD PTR [eax-12]
  00094	50		 push	 eax
  00095	8d 45 0c	 lea	 eax, DWORD PTR $T9[ebp]
  00098	50		 push	 eax
  00099	ff 15 00 00 00
	00		 call	 DWORD PTR __imp_?Concatenate@?$CSimpleStringT@D$00@ATL@@KAXAAV12@PBDH1H@Z
  0009f	83 c4 14	 add	 esp, 20			; 00000014H
; File D:\git\src\IBK\IBK_DRFN\ProjSrc\SrcChartEx\ChartAddIn\ChartAnalysisToolAddIn\Symbol\ElementSaverBuilder.cpp

; 99   : 	strValue += CDataConversion::IntToString(logfont.lfWidth) + ",";

  000a2	8d 45 0c	 lea	 eax, DWORD PTR $T9[ebp]
  000a5	8b cb		 mov	 ecx, ebx
  000a7	50		 push	 eax
  000a8	ff 15 00 00 00
	00		 call	 DWORD PTR __imp_??Y?$CStringT@DV?$StrTraitMFC_DLL@DV?$ChTraitsCRT@D@ATL@@@@@ATL@@QAEAAV01@ABV?$CSimpleStringT@D$00@1@@Z
  000ae	8d 4d 0c	 lea	 ecx, DWORD PTR $T9[ebp]
  000b1	c7 45 f0 01 00
	00 00		 mov	 DWORD PTR $T5[ebp], 1
  000b8	ff 15 00 00 00
	00		 call	 DWORD PTR __imp_??1?$CStringT@DV?$StrTraitMFC_DLL@DV?$ChTraitsCRT@D@ATL@@@@@ATL@@QAE@XZ
  000be	8d 4d e8	 lea	 ecx, DWORD PTR $T4[ebp]
  000c1	c6 45 fc 00	 mov	 BYTE PTR __$EHRec$[ebp+8], 0
  000c5	ff 15 00 00 00
	00		 call	 DWORD PTR __imp_??1?$CStringT@DV?$StrTraitMFC_DLL@DV?$ChTraitsCRT@D@ATL@@@@@ATL@@QAE@XZ

; 100  : 	strValue += CDataConversion::IntToString(logfont.lfHeight) + ",";

  000cb	ff 37		 push	 DWORD PTR [edi]
  000cd	8d 45 e8	 lea	 eax, DWORD PTR $T3[ebp]
  000d0	50		 push	 eax
  000d1	e8 00 00 00 00	 call	 ?IntToString@CDataConversion@@SA?AV?$CStringT@DV?$StrTraitMFC_DLL@DV?$ChTraitsCRT@D@ATL@@@@@ATL@@H@Z ; CDataConversion::IntToString
  000d6	83 c4 08	 add	 esp, 8
  000d9	8b f0		 mov	 esi, eax
; File C:\Program Files (x86)\Microsoft Visual Studio\2019\Community\VC\Tools\MSVC\14.29.30133\atlmfc\include\cstringt.h

; 2401 : 		CStringT strResult( str1.GetManager() );

  000db	8b ce		 mov	 ecx, esi
; File D:\git\src\IBK\IBK_DRFN\ProjSrc\SrcChartEx\ChartAddIn\ChartAnalysisToolAddIn\Symbol\ElementSaverBuilder.cpp

; 100  : 	strValue += CDataConversion::IntToString(logfont.lfHeight) + ",";

  000dd	c7 45 fc 04 00
	00 00		 mov	 DWORD PTR __$EHRec$[ebp+8], 4
; File C:\Program Files (x86)\Microsoft Visual Studio\2019\Community\VC\Tools\MSVC\14.29.30133\atlmfc\include\cstringt.h

; 2401 : 		CStringT strResult( str1.GetManager() );

  000e4	ff 15 00 00 00
	00		 call	 DWORD PTR __imp_?GetManager@?$CStringT@DV?$StrTraitMFC_DLL@DV?$ChTraitsCRT@D@ATL@@@@@ATL@@QBEPAUIAtlStringMgr@2@XZ
  000ea	50		 push	 eax
  000eb	8d 4d 0c	 lea	 ecx, DWORD PTR $T8[ebp]
  000ee	ff 15 00 00 00
	00		 call	 DWORD PTR __imp_??0?$CStringT@DV?$StrTraitMFC_DLL@DV?$ChTraitsCRT@D@ATL@@@@@ATL@@QAE@PAUIAtlStringMgr@1@@Z
; File C:\Program Files (x86)\Microsoft Visual Studio\2019\Community\VC\Tools\MSVC\14.29.30133\atlmfc\include\atlsimpstr.h

; 519  : 		return( GetData()->nDataLength );

  000f4	8b 06		 mov	 eax, DWORD PTR [esi]
; File C:\Program Files (x86)\Microsoft Visual Studio\2019\Community\VC\Tools\MSVC\14.29.30133\atlmfc\include\cstringt.h

; 2403 : 		CThisSimpleString::Concatenate( strResult, str1, str1.GetLength(), psz2, CThisSimpleString::StringLength( psz2 ) );

  000f6	6a 01		 push	 1
  000f8	68 00 00 00 00	 push	 OFFSET ??_C@_01IHBHIGKO@?0@

; 2404 : 
; 2405 : 		return( strResult );

  000fd	c7 45 f0 05 00
	00 00		 mov	 DWORD PTR $T5[ebp], 5
  00104	ff 70 f4	 push	 DWORD PTR [eax-12]
  00107	50		 push	 eax
  00108	8d 45 0c	 lea	 eax, DWORD PTR $T8[ebp]
  0010b	50		 push	 eax
  0010c	ff 15 00 00 00
	00		 call	 DWORD PTR __imp_?Concatenate@?$CSimpleStringT@D$00@ATL@@KAXAAV12@PBDH1H@Z
  00112	83 c4 14	 add	 esp, 20			; 00000014H
; File D:\git\src\IBK\IBK_DRFN\ProjSrc\SrcChartEx\ChartAddIn\ChartAnalysisToolAddIn\Symbol\ElementSaverBuilder.cpp

; 100  : 	strValue += CDataConversion::IntToString(logfont.lfHeight) + ",";

  00115	8d 45 0c	 lea	 eax, DWORD PTR $T8[ebp]
  00118	8b cb		 mov	 ecx, ebx
  0011a	50		 push	 eax
  0011b	ff 15 00 00 00
	00		 call	 DWORD PTR __imp_??Y?$CStringT@DV?$StrTraitMFC_DLL@DV?$ChTraitsCRT@D@ATL@@@@@ATL@@QAEAAV01@ABV?$CSimpleStringT@D$00@1@@Z
  00121	8d 4d 0c	 lea	 ecx, DWORD PTR $T8[ebp]
  00124	c7 45 f0 01 00
	00 00		 mov	 DWORD PTR $T5[ebp], 1
  0012b	ff 15 00 00 00
	00		 call	 DWORD PTR __imp_??1?$CStringT@DV?$StrTraitMFC_DLL@DV?$ChTraitsCRT@D@ATL@@@@@ATL@@QAE@XZ
  00131	8d 4d e8	 lea	 ecx, DWORD PTR $T3[ebp]
  00134	c6 45 fc 00	 mov	 BYTE PTR __$EHRec$[ebp+8], 0
  00138	ff 15 00 00 00
	00		 call	 DWORD PTR __imp_??1?$CStringT@DV?$StrTraitMFC_DLL@DV?$ChTraitsCRT@D@ATL@@@@@ATL@@QAE@XZ

; 101  : 	strValue += CDataConversion::IntToString(logfont.lfWeight) + ",";

  0013e	ff 77 10	 push	 DWORD PTR [edi+16]
  00141	8d 45 e8	 lea	 eax, DWORD PTR $T2[ebp]
  00144	50		 push	 eax
  00145	e8 00 00 00 00	 call	 ?IntToString@CDataConversion@@SA?AV?$CStringT@DV?$StrTraitMFC_DLL@DV?$ChTraitsCRT@D@ATL@@@@@ATL@@H@Z ; CDataConversion::IntToString
  0014a	83 c4 08	 add	 esp, 8
  0014d	8b f0		 mov	 esi, eax
; File C:\Program Files (x86)\Microsoft Visual Studio\2019\Community\VC\Tools\MSVC\14.29.30133\atlmfc\include\cstringt.h

; 2401 : 		CStringT strResult( str1.GetManager() );

  0014f	8b ce		 mov	 ecx, esi
; File D:\git\src\IBK\IBK_DRFN\ProjSrc\SrcChartEx\ChartAddIn\ChartAnalysisToolAddIn\Symbol\ElementSaverBuilder.cpp

; 101  : 	strValue += CDataConversion::IntToString(logfont.lfWeight) + ",";

  00151	c7 45 fc 06 00
	00 00		 mov	 DWORD PTR __$EHRec$[ebp+8], 6
; File C:\Program Files (x86)\Microsoft Visual Studio\2019\Community\VC\Tools\MSVC\14.29.30133\atlmfc\include\cstringt.h

; 2401 : 		CStringT strResult( str1.GetManager() );

  00158	ff 15 00 00 00
	00		 call	 DWORD PTR __imp_?GetManager@?$CStringT@DV?$StrTraitMFC_DLL@DV?$ChTraitsCRT@D@ATL@@@@@ATL@@QBEPAUIAtlStringMgr@2@XZ
  0015e	50		 push	 eax
  0015f	8d 4d 0c	 lea	 ecx, DWORD PTR $T7[ebp]
  00162	ff 15 00 00 00
	00		 call	 DWORD PTR __imp_??0?$CStringT@DV?$StrTraitMFC_DLL@DV?$ChTraitsCRT@D@ATL@@@@@ATL@@QAE@PAUIAtlStringMgr@1@@Z
; File C:\Program Files (x86)\Microsoft Visual Studio\2019\Community\VC\Tools\MSVC\14.29.30133\atlmfc\include\atlsimpstr.h

; 519  : 		return( GetData()->nDataLength );

  00168	8b 06		 mov	 eax, DWORD PTR [esi]
; File C:\Program Files (x86)\Microsoft Visual Studio\2019\Community\VC\Tools\MSVC\14.29.30133\atlmfc\include\cstringt.h

; 2403 : 		CThisSimpleString::Concatenate( strResult, str1, str1.GetLength(), psz2, CThisSimpleString::StringLength( psz2 ) );

  0016a	6a 01		 push	 1
  0016c	68 00 00 00 00	 push	 OFFSET ??_C@_01IHBHIGKO@?0@

; 2404 : 
; 2405 : 		return( strResult );

  00171	c7 45 f0 09 00
	00 00		 mov	 DWORD PTR $T5[ebp], 9
  00178	ff 70 f4	 push	 DWORD PTR [eax-12]
  0017b	50		 push	 eax
  0017c	8d 45 0c	 lea	 eax, DWORD PTR $T7[ebp]
  0017f	50		 push	 eax
  00180	ff 15 00 00 00
	00		 call	 DWORD PTR __imp_?Concatenate@?$CSimpleStringT@D$00@ATL@@KAXAAV12@PBDH1H@Z
  00186	83 c4 14	 add	 esp, 20			; 00000014H
; File D:\git\src\IBK\IBK_DRFN\ProjSrc\SrcChartEx\ChartAddIn\ChartAnalysisToolAddIn\Symbol\ElementSaverBuilder.cpp

; 101  : 	strValue += CDataConversion::IntToString(logfont.lfWeight) + ",";

  00189	8d 45 0c	 lea	 eax, DWORD PTR $T7[ebp]
  0018c	8b cb		 mov	 ecx, ebx
  0018e	50		 push	 eax
  0018f	ff 15 00 00 00
	00		 call	 DWORD PTR __imp_??Y?$CStringT@DV?$StrTraitMFC_DLL@DV?$ChTraitsCRT@D@ATL@@@@@ATL@@QAEAAV01@ABV?$CSimpleStringT@D$00@1@@Z
  00195	8d 4d 0c	 lea	 ecx, DWORD PTR $T7[ebp]
  00198	c7 45 f0 01 00
	00 00		 mov	 DWORD PTR $T5[ebp], 1
  0019f	ff 15 00 00 00
	00		 call	 DWORD PTR __imp_??1?$CStringT@DV?$StrTraitMFC_DLL@DV?$ChTraitsCRT@D@ATL@@@@@ATL@@QAE@XZ
  001a5	8d 4d e8	 lea	 ecx, DWORD PTR $T2[ebp]
  001a8	c6 45 fc 00	 mov	 BYTE PTR __$EHRec$[ebp+8], 0
  001ac	ff 15 00 00 00
	00		 call	 DWORD PTR __imp_??1?$CStringT@DV?$StrTraitMFC_DLL@DV?$ChTraitsCRT@D@ATL@@@@@ATL@@QAE@XZ

; 102  : 	CString text = logfont.lfFaceName;

  001b2	8d 47 1c	 lea	 eax, DWORD PTR [edi+28]
  001b5	50		 push	 eax
  001b6	8d 4d ec	 lea	 ecx, DWORD PTR _text$[ebp]
  001b9	ff 15 00 00 00
	00		 call	 DWORD PTR __imp_??0?$CStringT@DV?$StrTraitMFC_DLL@DV?$ChTraitsCRT@D@ATL@@@@@ATL@@QAE@PBD@Z
; File C:\Program Files (x86)\Microsoft Visual Studio\2019\Community\VC\Tools\MSVC\14.29.30133\atlmfc\include\cstringt.h

; 2401 : 		CStringT strResult( str1.GetManager() );

  001bf	8d 4d ec	 lea	 ecx, DWORD PTR _text$[ebp]
; File D:\git\src\IBK\IBK_DRFN\ProjSrc\SrcChartEx\ChartAddIn\ChartAnalysisToolAddIn\Symbol\ElementSaverBuilder.cpp

; 103  : 	strValue += text + ",";

  001c2	c7 45 fc 08 00
	00 00		 mov	 DWORD PTR __$EHRec$[ebp+8], 8
; File C:\Program Files (x86)\Microsoft Visual Studio\2019\Community\VC\Tools\MSVC\14.29.30133\atlmfc\include\cstringt.h

; 2401 : 		CStringT strResult( str1.GetManager() );

  001c9	ff 15 00 00 00
	00		 call	 DWORD PTR __imp_?GetManager@?$CStringT@DV?$StrTraitMFC_DLL@DV?$ChTraitsCRT@D@ATL@@@@@ATL@@QBEPAUIAtlStringMgr@2@XZ
  001cf	50		 push	 eax
  001d0	8d 4d 0c	 lea	 ecx, DWORD PTR $T6[ebp]
  001d3	ff 15 00 00 00
	00		 call	 DWORD PTR __imp_??0?$CStringT@DV?$StrTraitMFC_DLL@DV?$ChTraitsCRT@D@ATL@@@@@ATL@@QAE@PAUIAtlStringMgr@1@@Z

; 2403 : 		CThisSimpleString::Concatenate( strResult, str1, str1.GetLength(), psz2, CThisSimpleString::StringLength( psz2 ) );

  001d9	8b 45 ec	 mov	 eax, DWORD PTR _text$[ebp]
  001dc	6a 01		 push	 1
  001de	68 00 00 00 00	 push	 OFFSET ??_C@_01IHBHIGKO@?0@

; 2404 : 
; 2405 : 		return( strResult );

  001e3	c7 45 f0 11 00
	00 00		 mov	 DWORD PTR $T5[ebp], 17	; 00000011H
  001ea	ff 70 f4	 push	 DWORD PTR [eax-12]
  001ed	50		 push	 eax
  001ee	8d 45 0c	 lea	 eax, DWORD PTR $T6[ebp]
  001f1	50		 push	 eax
  001f2	ff 15 00 00 00
	00		 call	 DWORD PTR __imp_?Concatenate@?$CSimpleStringT@D$00@ATL@@KAXAAV12@PBDH1H@Z
  001f8	83 c4 14	 add	 esp, 20			; 00000014H
; File D:\git\src\IBK\IBK_DRFN\ProjSrc\SrcChartEx\ChartAddIn\ChartAnalysisToolAddIn\Symbol\ElementSaverBuilder.cpp

; 103  : 	strValue += text + ",";

  001fb	8d 45 0c	 lea	 eax, DWORD PTR $T6[ebp]
  001fe	8b cb		 mov	 ecx, ebx
  00200	50		 push	 eax
  00201	ff 15 00 00 00
	00		 call	 DWORD PTR __imp_??Y?$CStringT@DV?$StrTraitMFC_DLL@DV?$ChTraitsCRT@D@ATL@@@@@ATL@@QAEAAV01@ABV?$CSimpleStringT@D$00@1@@Z
  00207	8d 4d 0c	 lea	 ecx, DWORD PTR $T6[ebp]
  0020a	ff 15 00 00 00
	00		 call	 DWORD PTR __imp_??1?$CStringT@DV?$StrTraitMFC_DLL@DV?$ChTraitsCRT@D@ATL@@@@@ATL@@QAE@XZ

; 104  : 	return strValue;

  00210	8d 4d ec	 lea	 ecx, DWORD PTR _text$[ebp]
  00213	ff 15 00 00 00
	00		 call	 DWORD PTR __imp_??1?$CStringT@DV?$StrTraitMFC_DLL@DV?$ChTraitsCRT@D@ATL@@@@@ATL@@QAE@XZ
  00219	8b c3		 mov	 eax, ebx

; 105  : }

  0021b	8b 4d f4	 mov	 ecx, DWORD PTR __$EHRec$[ebp]
  0021e	64 89 0d 00 00
	00 00		 mov	 DWORD PTR fs:0, ecx
  00225	59		 pop	 ecx
  00226	5f		 pop	 edi
  00227	5e		 pop	 esi
  00228	5b		 pop	 ebx
  00229	8b e5		 mov	 esp, ebp
  0022b	5d		 pop	 ebp
  0022c	c2 08 00	 ret	 8
_TEXT	ENDS
;	COMDAT text$x
text$x	SEGMENT
__unwindfunclet$?MakeStringFromLOGFONT@CElementSaverBuilder@@AAE?AV?$CStringT@DV?$StrTraitMFC_DLL@DV?$ChTraitsCRT@D@ATL@@@@@ATL@@ABUtagLOGFONTA@@@Z$0:
  00000	8b 45 f0	 mov	 eax, DWORD PTR $T5[ebp]
  00003	83 e0 01	 and	 eax, 1
  00006	0f 84 0d 00 00
	00		 je	 $LN4@MakeString
  0000c	83 65 f0 fe	 and	 DWORD PTR $T5[ebp], -2	; fffffffeH
  00010	8b 4d 08	 mov	 ecx, DWORD PTR ___$ReturnUdt$[ebp]
  00013	ff 25 00 00 00
	00		 jmp	 DWORD PTR __imp_??1?$CStringT@DV?$StrTraitMFC_DLL@DV?$ChTraitsCRT@D@ATL@@@@@ATL@@QAE@XZ
$LN4@MakeString:
  00019	c3		 ret	 0
__unwindfunclet$?MakeStringFromLOGFONT@CElementSaverBuilder@@AAE?AV?$CStringT@DV?$StrTraitMFC_DLL@DV?$ChTraitsCRT@D@ATL@@@@@ATL@@ABUtagLOGFONTA@@@Z$1:
  0001a	8d 4d e8	 lea	 ecx, DWORD PTR $T4[ebp]
  0001d	ff 25 00 00 00
	00		 jmp	 DWORD PTR __imp_??1?$CStringT@DV?$StrTraitMFC_DLL@DV?$ChTraitsCRT@D@ATL@@@@@ATL@@QAE@XZ
__unwindfunclet$?MakeStringFromLOGFONT@CElementSaverBuilder@@AAE?AV?$CStringT@DV?$StrTraitMFC_DLL@DV?$ChTraitsCRT@D@ATL@@@@@ATL@@ABUtagLOGFONTA@@@Z$9:
  00023	8b 45 f0	 mov	 eax, DWORD PTR $T5[ebp]
  00026	83 e0 02	 and	 eax, 2
  00029	0f 84 0d 00 00
	00		 je	 $LN16@MakeString
  0002f	83 65 f0 fd	 and	 DWORD PTR $T5[ebp], -3	; fffffffdH
  00033	8d 4d 0c	 lea	 ecx, DWORD PTR $T9[ebp]
  00036	ff 25 00 00 00
	00		 jmp	 DWORD PTR __imp_??1?$CStringT@DV?$StrTraitMFC_DLL@DV?$ChTraitsCRT@D@ATL@@@@@ATL@@QAE@XZ
$LN16@MakeString:
  0003c	c3		 ret	 0
__unwindfunclet$?MakeStringFromLOGFONT@CElementSaverBuilder@@AAE?AV?$CStringT@DV?$StrTraitMFC_DLL@DV?$ChTraitsCRT@D@ATL@@@@@ATL@@ABUtagLOGFONTA@@@Z$3:
  0003d	8d 4d e8	 lea	 ecx, DWORD PTR $T3[ebp]
  00040	ff 25 00 00 00
	00		 jmp	 DWORD PTR __imp_??1?$CStringT@DV?$StrTraitMFC_DLL@DV?$ChTraitsCRT@D@ATL@@@@@ATL@@QAE@XZ
__unwindfunclet$?MakeStringFromLOGFONT@CElementSaverBuilder@@AAE?AV?$CStringT@DV?$StrTraitMFC_DLL@DV?$ChTraitsCRT@D@ATL@@@@@ATL@@ABUtagLOGFONTA@@@Z$10:
  00046	8b 45 f0	 mov	 eax, DWORD PTR $T5[ebp]
  00049	83 e0 04	 and	 eax, 4
  0004c	0f 84 0d 00 00
	00		 je	 $LN29@MakeString
  00052	83 65 f0 fb	 and	 DWORD PTR $T5[ebp], -5	; fffffffbH
  00056	8d 4d 0c	 lea	 ecx, DWORD PTR $T8[ebp]
  00059	ff 25 00 00 00
	00		 jmp	 DWORD PTR __imp_??1?$CStringT@DV?$StrTraitMFC_DLL@DV?$ChTraitsCRT@D@ATL@@@@@ATL@@QAE@XZ
$LN29@MakeString:
  0005f	c3		 ret	 0
__unwindfunclet$?MakeStringFromLOGFONT@CElementSaverBuilder@@AAE?AV?$CStringT@DV?$StrTraitMFC_DLL@DV?$ChTraitsCRT@D@ATL@@@@@ATL@@ABUtagLOGFONTA@@@Z$5:
  00060	8d 4d e8	 lea	 ecx, DWORD PTR $T2[ebp]
  00063	ff 25 00 00 00
	00		 jmp	 DWORD PTR __imp_??1?$CStringT@DV?$StrTraitMFC_DLL@DV?$ChTraitsCRT@D@ATL@@@@@ATL@@QAE@XZ
__unwindfunclet$?MakeStringFromLOGFONT@CElementSaverBuilder@@AAE?AV?$CStringT@DV?$StrTraitMFC_DLL@DV?$ChTraitsCRT@D@ATL@@@@@ATL@@ABUtagLOGFONTA@@@Z$11:
  00069	8b 45 f0	 mov	 eax, DWORD PTR $T5[ebp]
  0006c	83 e0 08	 and	 eax, 8
  0006f	0f 84 0d 00 00
	00		 je	 $LN42@MakeString
  00075	83 65 f0 f7	 and	 DWORD PTR $T5[ebp], -9	; fffffff7H
  00079	8d 4d 0c	 lea	 ecx, DWORD PTR $T7[ebp]
  0007c	ff 25 00 00 00
	00		 jmp	 DWORD PTR __imp_??1?$CStringT@DV?$StrTraitMFC_DLL@DV?$ChTraitsCRT@D@ATL@@@@@ATL@@QAE@XZ
$LN42@MakeString:
  00082	c3		 ret	 0
__unwindfunclet$?MakeStringFromLOGFONT@CElementSaverBuilder@@AAE?AV?$CStringT@DV?$StrTraitMFC_DLL@DV?$ChTraitsCRT@D@ATL@@@@@ATL@@ABUtagLOGFONTA@@@Z$7:
  00083	8d 4d ec	 lea	 ecx, DWORD PTR _text$[ebp]
  00086	ff 25 00 00 00
	00		 jmp	 DWORD PTR __imp_??1?$CStringT@DV?$StrTraitMFC_DLL@DV?$ChTraitsCRT@D@ATL@@@@@ATL@@QAE@XZ
__unwindfunclet$?MakeStringFromLOGFONT@CElementSaverBuilder@@AAE?AV?$CStringT@DV?$StrTraitMFC_DLL@DV?$ChTraitsCRT@D@ATL@@@@@ATL@@ABUtagLOGFONTA@@@Z$12:
  0008c	8b 45 f0	 mov	 eax, DWORD PTR $T5[ebp]
  0008f	83 e0 10	 and	 eax, 16			; 00000010H
  00092	0f 84 0d 00 00
	00		 je	 $LN55@MakeString
  00098	83 65 f0 ef	 and	 DWORD PTR $T5[ebp], -17	; ffffffefH
  0009c	8d 4d 0c	 lea	 ecx, DWORD PTR $T6[ebp]
  0009f	ff 25 00 00 00
	00		 jmp	 DWORD PTR __imp_??1?$CStringT@DV?$StrTraitMFC_DLL@DV?$ChTraitsCRT@D@ATL@@@@@ATL@@QAE@XZ
$LN55@MakeString:
  000a5	c3		 ret	 0
  000a6	cc		 int	 3
  000a7	cc		 int	 3
  000a8	cc		 int	 3
  000a9	cc		 int	 3
  000aa	cc		 int	 3
__ehhandler$?MakeStringFromLOGFONT@CElementSaverBuilder@@AAE?AV?$CStringT@DV?$StrTraitMFC_DLL@DV?$ChTraitsCRT@D@ATL@@@@@ATL@@ABUtagLOGFONTA@@@Z:
  000ab	90		 npad	 1
  000ac	90		 npad	 1
  000ad	8b 54 24 08	 mov	 edx, DWORD PTR [esp+8]
  000b1	8d 42 0c	 lea	 eax, DWORD PTR [edx+12]
  000b4	8b 4a e4	 mov	 ecx, DWORD PTR [edx-28]
  000b7	33 c8		 xor	 ecx, eax
  000b9	e8 00 00 00 00	 call	 @__security_check_cookie@4
  000be	b8 00 00 00 00	 mov	 eax, OFFSET __ehfuncinfo$?MakeStringFromLOGFONT@CElementSaverBuilder@@AAE?AV?$CStringT@DV?$StrTraitMFC_DLL@DV?$ChTraitsCRT@D@ATL@@@@@ATL@@ABUtagLOGFONTA@@@Z
  000c3	e9 00 00 00 00	 jmp	 ___CxxFrameHandler3
text$x	ENDS
?MakeStringFromLOGFONT@CElementSaverBuilder@@AAE?AV?$CStringT@DV?$StrTraitMFC_DLL@DV?$ChTraitsCRT@D@ATL@@@@@ATL@@ABUtagLOGFONTA@@@Z ENDP ; CElementSaverBuilder::MakeStringFromLOGFONT
; Function compile flags: /Ogtp
; File D:\git\src\IBK\IBK_DRFN\ProjSrc\SrcChartEx\ChartAddIn\ChartAnalysisToolAddIn\Symbol\ElementSaverBuilder.cpp
; File C:\Program Files (x86)\Microsoft Visual Studio\2019\Community\VC\Tools\MSVC\14.29.30133\atlmfc\include\atlsimpstr.h
; File D:\git\src\IBK\IBK_DRFN\ProjSrc\SrcChartEx\ChartAddIn\ChartAnalysisToolAddIn\Symbol\ElementSaverBuilder.cpp
;	COMDAT ?MakeLOGFONTFromString@CElementSaverBuilder@@AAE?AUtagLOGFONTA@@ABV?$CStringT@DV?$StrTraitMFC_DLL@DV?$ChTraitsCRT@D@ATL@@@@@ATL@@@Z
_TEXT	SEGMENT
$T2 = -16						; size = 4
$T3 = -16						; size = 4
$T4 = -16						; size = 4
$T5 = -16						; size = 4
__$EHRec$ = -12						; size = 12
$T6 = 8							; size = 4
$T7 = 8							; size = 4
$T8 = 8							; size = 4
$T9 = 8							; size = 4
___$ReturnUdt$ = 8					; size = 4
_logdata$ = 12						; size = 4
_data$ = 12						; size = 4
?MakeLOGFONTFromString@CElementSaverBuilder@@AAE?AUtagLOGFONTA@@ABV?$CStringT@DV?$StrTraitMFC_DLL@DV?$ChTraitsCRT@D@ATL@@@@@ATL@@@Z PROC ; CElementSaverBuilder::MakeLOGFONTFromString, COMDAT
; _this$ = ecx

; 108  : {

  00000	55		 push	 ebp
  00001	8b ec		 mov	 ebp, esp
  00003	6a ff		 push	 -1
  00005	68 00 00 00 00	 push	 __ehhandler$?MakeLOGFONTFromString@CElementSaverBuilder@@AAE?AUtagLOGFONTA@@ABV?$CStringT@DV?$StrTraitMFC_DLL@DV?$ChTraitsCRT@D@ATL@@@@@ATL@@@Z
  0000a	64 a1 00 00 00
	00		 mov	 eax, DWORD PTR fs:0
  00010	50		 push	 eax
  00011	51		 push	 ecx
  00012	56		 push	 esi
  00013	57		 push	 edi
  00014	a1 00 00 00 00	 mov	 eax, DWORD PTR ___security_cookie
  00019	33 c5		 xor	 eax, ebp
  0001b	50		 push	 eax
  0001c	8d 45 f4	 lea	 eax, DWORD PTR __$EHRec$[ebp]
  0001f	64 a3 00 00 00
	00		 mov	 DWORD PTR fs:0, eax

; 109  : 	CString logdata = data;

  00025	ff 75 0c	 push	 DWORD PTR _data$[ebp]
  00028	8d 4d 0c	 lea	 ecx, DWORD PTR _logdata$[ebp]
  0002b	ff 15 00 00 00
	00		 call	 DWORD PTR __imp_??0?$CStringT@DV?$StrTraitMFC_DLL@DV?$ChTraitsCRT@D@ATL@@@@@ATL@@QAE@ABV01@@Z

; 110  : 
; 111  : 	LOGFONT lf;
; 112  : 	memset(&lf, 0, sizeof(LOGFONT));       // zero out structure

  00031	8b 7d 08	 mov	 edi, DWORD PTR ___$ReturnUdt$[ebp]
  00034	6a 3c		 push	 60			; 0000003cH
  00036	6a 00		 push	 0
  00038	57		 push	 edi
  00039	c7 45 fc 00 00
	00 00		 mov	 DWORD PTR __$EHRec$[ebp+8], 0
  00040	e8 00 00 00 00	 call	 _memset
  00045	83 c4 0c	 add	 esp, 12			; 0000000cH

; 113  : 	lf.lfWidth = atoi(CDataConversion::GetStringData(logdata, ","));

  00048	8d 4d 08	 lea	 ecx, DWORD PTR $T9[ebp]
  0004b	68 00 00 00 00	 push	 OFFSET ??_C@_01IHBHIGKO@?0@
  00050	ff 15 00 00 00
	00		 call	 DWORD PTR __imp_??0?$CStringT@DV?$StrTraitMFC_DLL@DV?$ChTraitsCRT@D@ATL@@@@@ATL@@QAE@PBD@Z
  00056	6a 01		 push	 1
  00058	8d 45 08	 lea	 eax, DWORD PTR $T9[ebp]
  0005b	c6 45 fc 01	 mov	 BYTE PTR __$EHRec$[ebp+8], 1
  0005f	50		 push	 eax
  00060	8d 45 0c	 lea	 eax, DWORD PTR _logdata$[ebp]
  00063	50		 push	 eax
  00064	8d 45 f0	 lea	 eax, DWORD PTR $T5[ebp]
  00067	50		 push	 eax
  00068	e8 00 00 00 00	 call	 ?GetStringData@CDataConversion@@SA?AV?$CStringT@DV?$StrTraitMFC_DLL@DV?$ChTraitsCRT@D@ATL@@@@@ATL@@AAV23@ABV23@_N@Z ; CDataConversion::GetStringData
  0006d	8b 35 00 00 00
	00		 mov	 esi, DWORD PTR __imp__atoi
  00073	ff 30		 push	 DWORD PTR [eax]
  00075	ff d6		 call	 esi
  00077	83 c4 14	 add	 esp, 20			; 00000014H
  0007a	89 47 04	 mov	 DWORD PTR [edi+4], eax
  0007d	8d 4d f0	 lea	 ecx, DWORD PTR $T5[ebp]
  00080	ff 15 00 00 00
	00		 call	 DWORD PTR __imp_??1?$CStringT@DV?$StrTraitMFC_DLL@DV?$ChTraitsCRT@D@ATL@@@@@ATL@@QAE@XZ
  00086	8d 4d 08	 lea	 ecx, DWORD PTR $T9[ebp]
  00089	c6 45 fc 00	 mov	 BYTE PTR __$EHRec$[ebp+8], 0
  0008d	ff 15 00 00 00
	00		 call	 DWORD PTR __imp_??1?$CStringT@DV?$StrTraitMFC_DLL@DV?$ChTraitsCRT@D@ATL@@@@@ATL@@QAE@XZ

; 114  : 	lf.lfHeight = atoi(CDataConversion::GetStringData(logdata, ","));

  00093	68 00 00 00 00	 push	 OFFSET ??_C@_01IHBHIGKO@?0@
  00098	8d 4d 08	 lea	 ecx, DWORD PTR $T8[ebp]
  0009b	ff 15 00 00 00
	00		 call	 DWORD PTR __imp_??0?$CStringT@DV?$StrTraitMFC_DLL@DV?$ChTraitsCRT@D@ATL@@@@@ATL@@QAE@PBD@Z
  000a1	6a 01		 push	 1
  000a3	8d 45 08	 lea	 eax, DWORD PTR $T8[ebp]
  000a6	c6 45 fc 02	 mov	 BYTE PTR __$EHRec$[ebp+8], 2
  000aa	50		 push	 eax
  000ab	8d 45 0c	 lea	 eax, DWORD PTR _logdata$[ebp]
  000ae	50		 push	 eax
  000af	8d 45 f0	 lea	 eax, DWORD PTR $T4[ebp]
  000b2	50		 push	 eax
  000b3	e8 00 00 00 00	 call	 ?GetStringData@CDataConversion@@SA?AV?$CStringT@DV?$StrTraitMFC_DLL@DV?$ChTraitsCRT@D@ATL@@@@@ATL@@AAV23@ABV23@_N@Z ; CDataConversion::GetStringData
  000b8	ff 30		 push	 DWORD PTR [eax]
  000ba	ff d6		 call	 esi
  000bc	83 c4 14	 add	 esp, 20			; 00000014H
  000bf	89 07		 mov	 DWORD PTR [edi], eax
  000c1	8d 4d f0	 lea	 ecx, DWORD PTR $T4[ebp]
  000c4	ff 15 00 00 00
	00		 call	 DWORD PTR __imp_??1?$CStringT@DV?$StrTraitMFC_DLL@DV?$ChTraitsCRT@D@ATL@@@@@ATL@@QAE@XZ
  000ca	8d 4d 08	 lea	 ecx, DWORD PTR $T8[ebp]
  000cd	c6 45 fc 00	 mov	 BYTE PTR __$EHRec$[ebp+8], 0
  000d1	ff 15 00 00 00
	00		 call	 DWORD PTR __imp_??1?$CStringT@DV?$StrTraitMFC_DLL@DV?$ChTraitsCRT@D@ATL@@@@@ATL@@QAE@XZ

; 115  : 	lf.lfWeight = atoi(CDataConversion::GetStringData(logdata, ","));

  000d7	68 00 00 00 00	 push	 OFFSET ??_C@_01IHBHIGKO@?0@
  000dc	8d 4d 08	 lea	 ecx, DWORD PTR $T7[ebp]
  000df	ff 15 00 00 00
	00		 call	 DWORD PTR __imp_??0?$CStringT@DV?$StrTraitMFC_DLL@DV?$ChTraitsCRT@D@ATL@@@@@ATL@@QAE@PBD@Z
  000e5	6a 01		 push	 1
  000e7	8d 45 08	 lea	 eax, DWORD PTR $T7[ebp]
  000ea	c6 45 fc 03	 mov	 BYTE PTR __$EHRec$[ebp+8], 3
  000ee	50		 push	 eax
  000ef	8d 45 0c	 lea	 eax, DWORD PTR _logdata$[ebp]
  000f2	50		 push	 eax
  000f3	8d 45 f0	 lea	 eax, DWORD PTR $T3[ebp]
  000f6	50		 push	 eax
  000f7	e8 00 00 00 00	 call	 ?GetStringData@CDataConversion@@SA?AV?$CStringT@DV?$StrTraitMFC_DLL@DV?$ChTraitsCRT@D@ATL@@@@@ATL@@AAV23@ABV23@_N@Z ; CDataConversion::GetStringData
  000fc	ff 30		 push	 DWORD PTR [eax]
  000fe	ff d6		 call	 esi
  00100	83 c4 14	 add	 esp, 20			; 00000014H
  00103	89 47 10	 mov	 DWORD PTR [edi+16], eax
  00106	8d 4d f0	 lea	 ecx, DWORD PTR $T3[ebp]
  00109	ff 15 00 00 00
	00		 call	 DWORD PTR __imp_??1?$CStringT@DV?$StrTraitMFC_DLL@DV?$ChTraitsCRT@D@ATL@@@@@ATL@@QAE@XZ
  0010f	8d 4d 08	 lea	 ecx, DWORD PTR $T7[ebp]
  00112	c6 45 fc 00	 mov	 BYTE PTR __$EHRec$[ebp+8], 0
  00116	ff 15 00 00 00
	00		 call	 DWORD PTR __imp_??1?$CStringT@DV?$StrTraitMFC_DLL@DV?$ChTraitsCRT@D@ATL@@@@@ATL@@QAE@XZ

; 116  : 	strcpy(lf.lfFaceName, CDataConversion::GetStringData(logdata, ","));        // request a face name "Arial"

  0011c	68 00 00 00 00	 push	 OFFSET ??_C@_01IHBHIGKO@?0@
  00121	8d 4d 08	 lea	 ecx, DWORD PTR $T6[ebp]
  00124	ff 15 00 00 00
	00		 call	 DWORD PTR __imp_??0?$CStringT@DV?$StrTraitMFC_DLL@DV?$ChTraitsCRT@D@ATL@@@@@ATL@@QAE@PBD@Z
  0012a	6a 01		 push	 1
  0012c	8d 45 08	 lea	 eax, DWORD PTR $T6[ebp]
  0012f	c6 45 fc 04	 mov	 BYTE PTR __$EHRec$[ebp+8], 4
  00133	50		 push	 eax
  00134	8d 45 0c	 lea	 eax, DWORD PTR _logdata$[ebp]
  00137	50		 push	 eax
  00138	8d 45 f0	 lea	 eax, DWORD PTR $T2[ebp]
  0013b	50		 push	 eax
  0013c	e8 00 00 00 00	 call	 ?GetStringData@CDataConversion@@SA?AV?$CStringT@DV?$StrTraitMFC_DLL@DV?$ChTraitsCRT@D@ATL@@@@@ATL@@AAV23@ABV23@_N@Z ; CDataConversion::GetStringData
  00141	83 c4 10	 add	 esp, 16			; 00000010H
; File C:\Program Files (x86)\Microsoft Visual Studio\2019\Community\VC\Tools\MSVC\14.29.30133\atlmfc\include\atlsimpstr.h

; 377  : 		return( m_pszData );

  00144	8b 10		 mov	 edx, DWORD PTR [eax]
; File D:\git\src\IBK\IBK_DRFN\ProjSrc\SrcChartEx\ChartAddIn\ChartAnalysisToolAddIn\Symbol\ElementSaverBuilder.cpp

; 116  : 	strcpy(lf.lfFaceName, CDataConversion::GetStringData(logdata, ","));        // request a face name "Arial"

  00146	8d 47 1c	 lea	 eax, DWORD PTR [edi+28]
  00149	0f 1f 80 00 00
	00 00		 npad	 7
$LL3@MakeLOGFON:
  00150	8a 0a		 mov	 cl, BYTE PTR [edx]
  00152	8d 52 01	 lea	 edx, DWORD PTR [edx+1]
  00155	88 08		 mov	 BYTE PTR [eax], cl
  00157	8d 40 01	 lea	 eax, DWORD PTR [eax+1]
  0015a	84 c9		 test	 cl, cl
  0015c	75 f2		 jne	 SHORT $LL3@MakeLOGFON
  0015e	8d 4d f0	 lea	 ecx, DWORD PTR $T2[ebp]
  00161	ff 15 00 00 00
	00		 call	 DWORD PTR __imp_??1?$CStringT@DV?$StrTraitMFC_DLL@DV?$ChTraitsCRT@D@ATL@@@@@ATL@@QAE@XZ
  00167	8d 4d 08	 lea	 ecx, DWORD PTR $T6[ebp]
  0016a	ff 15 00 00 00
	00		 call	 DWORD PTR __imp_??1?$CStringT@DV?$StrTraitMFC_DLL@DV?$ChTraitsCRT@D@ATL@@@@@ATL@@QAE@XZ

; 117  : 
; 118  : 	lf.lfItalic = FALSE;
; 119  : 	lf.lfUnderline = FALSE;
; 120  : 	lf.lfStrikeOut = FALSE;
; 121  : 	lf.lfPitchAndFamily = FIXED_PITCH;
; 122  : 	lf.lfQuality = DEFAULT_QUALITY;
; 123  : 	lf.lfCharSet = HANGUL_CHARSET;
; 124  : 	lf.lfOutPrecision = OUT_DEFAULT_PRECIS;
; 125  : 	lf.lfClipPrecision = CLIP_DEFAULT_PRECIS;
; 126  : 	return lf;

  00170	8d 4d 0c	 lea	 ecx, DWORD PTR _logdata$[ebp]
  00173	c7 47 14 00 00
	00 81		 mov	 DWORD PTR [edi+20], -2130706432 ; 81000000H
  0017a	c7 47 18 00 00
	00 01		 mov	 DWORD PTR [edi+24], 16777216 ; 01000000H
  00181	ff 15 00 00 00
	00		 call	 DWORD PTR __imp_??1?$CStringT@DV?$StrTraitMFC_DLL@DV?$ChTraitsCRT@D@ATL@@@@@ATL@@QAE@XZ
  00187	8b c7		 mov	 eax, edi

; 127  : }

  00189	8b 4d f4	 mov	 ecx, DWORD PTR __$EHRec$[ebp]
  0018c	64 89 0d 00 00
	00 00		 mov	 DWORD PTR fs:0, ecx
  00193	59		 pop	 ecx
  00194	5f		 pop	 edi
  00195	5e		 pop	 esi
  00196	8b e5		 mov	 esp, ebp
  00198	5d		 pop	 ebp
  00199	c2 08 00	 ret	 8
_TEXT	ENDS
;	COMDAT text$x
text$x	SEGMENT
__unwindfunclet$?MakeLOGFONTFromString@CElementSaverBuilder@@AAE?AUtagLOGFONTA@@ABV?$CStringT@DV?$StrTraitMFC_DLL@DV?$ChTraitsCRT@D@ATL@@@@@ATL@@@Z$0:
  00000	8d 4d 0c	 lea	 ecx, DWORD PTR _logdata$[ebp]
  00003	ff 25 00 00 00
	00		 jmp	 DWORD PTR __imp_??1?$CStringT@DV?$StrTraitMFC_DLL@DV?$ChTraitsCRT@D@ATL@@@@@ATL@@QAE@XZ
__unwindfunclet$?MakeLOGFONTFromString@CElementSaverBuilder@@AAE?AUtagLOGFONTA@@ABV?$CStringT@DV?$StrTraitMFC_DLL@DV?$ChTraitsCRT@D@ATL@@@@@ATL@@@Z$1:
  00009	8d 4d 08	 lea	 ecx, DWORD PTR $T9[ebp]
  0000c	ff 25 00 00 00
	00		 jmp	 DWORD PTR __imp_??1?$CStringT@DV?$StrTraitMFC_DLL@DV?$ChTraitsCRT@D@ATL@@@@@ATL@@QAE@XZ
__unwindfunclet$?MakeLOGFONTFromString@CElementSaverBuilder@@AAE?AUtagLOGFONTA@@ABV?$CStringT@DV?$StrTraitMFC_DLL@DV?$ChTraitsCRT@D@ATL@@@@@ATL@@@Z$3:
  00012	8d 4d 08	 lea	 ecx, DWORD PTR $T8[ebp]
  00015	ff 25 00 00 00
	00		 jmp	 DWORD PTR __imp_??1?$CStringT@DV?$StrTraitMFC_DLL@DV?$ChTraitsCRT@D@ATL@@@@@ATL@@QAE@XZ
__unwindfunclet$?MakeLOGFONTFromString@CElementSaverBuilder@@AAE?AUtagLOGFONTA@@ABV?$CStringT@DV?$StrTraitMFC_DLL@DV?$ChTraitsCRT@D@ATL@@@@@ATL@@@Z$5:
  0001b	8d 4d 08	 lea	 ecx, DWORD PTR $T7[ebp]
  0001e	ff 25 00 00 00
	00		 jmp	 DWORD PTR __imp_??1?$CStringT@DV?$StrTraitMFC_DLL@DV?$ChTraitsCRT@D@ATL@@@@@ATL@@QAE@XZ
__unwindfunclet$?MakeLOGFONTFromString@CElementSaverBuilder@@AAE?AUtagLOGFONTA@@ABV?$CStringT@DV?$StrTraitMFC_DLL@DV?$ChTraitsCRT@D@ATL@@@@@ATL@@@Z$7:
  00024	8d 4d 08	 lea	 ecx, DWORD PTR $T6[ebp]
  00027	ff 25 00 00 00
	00		 jmp	 DWORD PTR __imp_??1?$CStringT@DV?$StrTraitMFC_DLL@DV?$ChTraitsCRT@D@ATL@@@@@ATL@@QAE@XZ
  0002d	cc		 int	 3
  0002e	cc		 int	 3
  0002f	cc		 int	 3
  00030	cc		 int	 3
  00031	cc		 int	 3
__ehhandler$?MakeLOGFONTFromString@CElementSaverBuilder@@AAE?AUtagLOGFONTA@@ABV?$CStringT@DV?$StrTraitMFC_DLL@DV?$ChTraitsCRT@D@ATL@@@@@ATL@@@Z:
  00032	90		 npad	 1
  00033	90		 npad	 1
  00034	8b 54 24 08	 mov	 edx, DWORD PTR [esp+8]
  00038	8d 42 0c	 lea	 eax, DWORD PTR [edx+12]
  0003b	8b 4a f0	 mov	 ecx, DWORD PTR [edx-16]
  0003e	33 c8		 xor	 ecx, eax
  00040	e8 00 00 00 00	 call	 @__security_check_cookie@4
  00045	b8 00 00 00 00	 mov	 eax, OFFSET __ehfuncinfo$?MakeLOGFONTFromString@CElementSaverBuilder@@AAE?AUtagLOGFONTA@@ABV?$CStringT@DV?$StrTraitMFC_DLL@DV?$ChTraitsCRT@D@ATL@@@@@ATL@@@Z
  0004a	e9 00 00 00 00	 jmp	 ___CxxFrameHandler3
text$x	ENDS
?MakeLOGFONTFromString@CElementSaverBuilder@@AAE?AUtagLOGFONTA@@ABV?$CStringT@DV?$StrTraitMFC_DLL@DV?$ChTraitsCRT@D@ATL@@@@@ATL@@@Z ENDP ; CElementSaverBuilder::MakeLOGFONTFromString
; Function compile flags: /Ogtp
; File D:\git\src\IBK\IBK_DRFN\ProjSrc\SrcChartEx\ChartAddIn\ChartAnalysisToolAddIn\Symbol\ElementSaverBuilder.cpp
; File C:\Program Files (x86)\Microsoft Visual Studio\2019\Community\VC\Tools\MSVC\14.29.30133\atlmfc\include\cstringt.h
; File D:\git\src\IBK\IBK_DRFN\ProjSrc\SrcChartEx\ChartAddIn\ChartAnalysisToolAddIn\Symbol\ElementSaverBuilder.cpp
; File C:\Program Files (x86)\Microsoft Visual Studio\2019\Community\VC\Tools\MSVC\14.29.30133\atlmfc\include\cstringt.h
; File C:\Program Files (x86)\Microsoft Visual Studio\2019\Community\VC\Tools\MSVC\14.29.30133\atlmfc\include\atlsimpstr.h
; File C:\Program Files (x86)\Microsoft Visual Studio\2019\Community\VC\Tools\MSVC\14.29.30133\atlmfc\include\cstringt.h
; File D:\git\src\IBK\IBK_DRFN\ProjSrc\SrcChartEx\ChartAddIn\ChartAnalysisToolAddIn\Symbol\ElementSaverBuilder.cpp
;	COMDAT ?GetIndexString@CElementSaverBuilder@@ABE?AV?$CStringT@DV?$StrTraitMFC_DLL@DV?$ChTraitsCRT@D@ATL@@@@@ATL@@PBVCDrawingSymbol@@ABVCOrder@@@Z
_TEXT	SEGMENT
$T2 = -16						; size = 4
__$EHRec$ = -12						; size = 12
___$ReturnUdt$ = 8					; size = 4
$T3 = 12						; size = 4
_pSymbol$ = 12						; size = 4
_order$ = 16						; size = 4
?GetIndexString@CElementSaverBuilder@@ABE?AV?$CStringT@DV?$StrTraitMFC_DLL@DV?$ChTraitsCRT@D@ATL@@@@@ATL@@PBVCDrawingSymbol@@ABVCOrder@@@Z PROC ; CElementSaverBuilder::GetIndexString, COMDAT
; _this$ = ecx

; 130  : {

  00000	55		 push	 ebp
  00001	8b ec		 mov	 ebp, esp
  00003	6a ff		 push	 -1
  00005	68 00 00 00 00	 push	 __ehhandler$?GetIndexString@CElementSaverBuilder@@ABE?AV?$CStringT@DV?$StrTraitMFC_DLL@DV?$ChTraitsCRT@D@ATL@@@@@ATL@@PBVCDrawingSymbol@@ABVCOrder@@@Z
  0000a	64 a1 00 00 00
	00		 mov	 eax, DWORD PTR fs:0
  00010	50		 push	 eax
  00011	51		 push	 ecx
  00012	56		 push	 esi
  00013	57		 push	 edi
  00014	a1 00 00 00 00	 mov	 eax, DWORD PTR ___security_cookie
  00019	33 c5		 xor	 eax, ebp
  0001b	50		 push	 eax
  0001c	8d 45 f4	 lea	 eax, DWORD PTR __$EHRec$[ebp]
  0001f	64 a3 00 00 00
	00		 mov	 DWORD PTR fs:0, eax

; 131  : 	int nIndex = order.GetIndex(pSymbol);

  00025	8b 4d 10	 mov	 ecx, DWORD PTR _order$[ebp]
  00028	c7 45 f0 00 00
	00 00		 mov	 DWORD PTR $T2[ebp], 0
  0002f	ff 75 0c	 push	 DWORD PTR _pSymbol$[ebp]
  00032	e8 00 00 00 00	 call	 ?GetIndex@COrder@@QBEHPBVCDrawingSymbol@@@Z ; COrder::GetIndex

; 132  : 	if(nIndex < 0)

  00037	85 c0		 test	 eax, eax
  00039	79 24		 jns	 SHORT $LN2@GetIndexSt

; 133  : 		return "";

  0003b	8b 4d 08	 mov	 ecx, DWORD PTR ___$ReturnUdt$[ebp]
  0003e	68 00 00 00 00	 push	 OFFSET ??_C@_00CNPNBAHC@@
  00043	ff 15 00 00 00
	00		 call	 DWORD PTR __imp_??0?$CStringT@DV?$StrTraitMFC_DLL@DV?$ChTraitsCRT@D@ATL@@@@@ATL@@QAE@PBD@Z
  00049	8b 45 08	 mov	 eax, DWORD PTR ___$ReturnUdt$[ebp]

; 136  : }

  0004c	8b 4d f4	 mov	 ecx, DWORD PTR __$EHRec$[ebp]
  0004f	64 89 0d 00 00
	00 00		 mov	 DWORD PTR fs:0, ecx
  00056	59		 pop	 ecx
  00057	5f		 pop	 edi
  00058	5e		 pop	 esi
  00059	8b e5		 mov	 esp, ebp
  0005b	5d		 pop	 ebp
  0005c	c2 0c 00	 ret	 12			; 0000000cH
$LN2@GetIndexSt:

; 135  : 	return (CDataConversion::IntToString(nIndex)+ "IndexEnd;\r\n");

  0005f	50		 push	 eax
  00060	8d 45 0c	 lea	 eax, DWORD PTR $T3[ebp]
  00063	50		 push	 eax
  00064	e8 00 00 00 00	 call	 ?IntToString@CDataConversion@@SA?AV?$CStringT@DV?$StrTraitMFC_DLL@DV?$ChTraitsCRT@D@ATL@@@@@ATL@@H@Z ; CDataConversion::IntToString
  00069	83 c4 08	 add	 esp, 8
  0006c	8b f0		 mov	 esi, eax
; File C:\Program Files (x86)\Microsoft Visual Studio\2019\Community\VC\Tools\MSVC\14.29.30133\atlmfc\include\cstringt.h

; 2401 : 		CStringT strResult( str1.GetManager() );

  0006e	8b ce		 mov	 ecx, esi
; File D:\git\src\IBK\IBK_DRFN\ProjSrc\SrcChartEx\ChartAddIn\ChartAnalysisToolAddIn\Symbol\ElementSaverBuilder.cpp

; 135  : 	return (CDataConversion::IntToString(nIndex)+ "IndexEnd;\r\n");

  00070	c7 45 fc 01 00
	00 00		 mov	 DWORD PTR __$EHRec$[ebp+8], 1
; File C:\Program Files (x86)\Microsoft Visual Studio\2019\Community\VC\Tools\MSVC\14.29.30133\atlmfc\include\cstringt.h

; 2401 : 		CStringT strResult( str1.GetManager() );

  00077	ff 15 00 00 00
	00		 call	 DWORD PTR __imp_?GetManager@?$CStringT@DV?$StrTraitMFC_DLL@DV?$ChTraitsCRT@D@ATL@@@@@ATL@@QBEPAUIAtlStringMgr@2@XZ
  0007d	8b 7d 08	 mov	 edi, DWORD PTR ___$ReturnUdt$[ebp]
  00080	8b cf		 mov	 ecx, edi
  00082	50		 push	 eax
  00083	ff 15 00 00 00
	00		 call	 DWORD PTR __imp_??0?$CStringT@DV?$StrTraitMFC_DLL@DV?$ChTraitsCRT@D@ATL@@@@@ATL@@QAE@PAUIAtlStringMgr@1@@Z
; File C:\Program Files (x86)\Microsoft Visual Studio\2019\Community\VC\Tools\MSVC\14.29.30133\atlmfc\include\atlsimpstr.h

; 519  : 		return( GetData()->nDataLength );

  00089	8b 0e		 mov	 ecx, DWORD PTR [esi]
; File C:\Program Files (x86)\Microsoft Visual Studio\2019\Community\VC\Tools\MSVC\14.29.30133\atlmfc\include\cstringt.h

; 2403 : 		CThisSimpleString::Concatenate( strResult, str1, str1.GetLength(), psz2, CThisSimpleString::StringLength( psz2 ) );

  0008b	6a 0b		 push	 11			; 0000000bH
  0008d	68 00 00 00 00	 push	 OFFSET ??_C@_0M@HGNACAL@IndexEnd?$DL?$AN?6@

; 2404 : 
; 2405 : 		return( strResult );

  00092	c7 45 f0 02 00
	00 00		 mov	 DWORD PTR $T2[ebp], 2
  00099	ff 71 f4	 push	 DWORD PTR [ecx-12]
  0009c	51		 push	 ecx
  0009d	57		 push	 edi
  0009e	ff 15 00 00 00
	00		 call	 DWORD PTR __imp_?Concatenate@?$CSimpleStringT@D$00@ATL@@KAXAAV12@PBDH1H@Z
  000a4	83 c4 14	 add	 esp, 20			; 00000014H
; File D:\git\src\IBK\IBK_DRFN\ProjSrc\SrcChartEx\ChartAddIn\ChartAnalysisToolAddIn\Symbol\ElementSaverBuilder.cpp

; 135  : 	return (CDataConversion::IntToString(nIndex)+ "IndexEnd;\r\n");

  000a7	8d 4d 0c	 lea	 ecx, DWORD PTR $T3[ebp]
  000aa	ff 15 00 00 00
	00		 call	 DWORD PTR __imp_??1?$CStringT@DV?$StrTraitMFC_DLL@DV?$ChTraitsCRT@D@ATL@@@@@ATL@@QAE@XZ
  000b0	8b c7		 mov	 eax, edi

; 136  : }

  000b2	8b 4d f4	 mov	 ecx, DWORD PTR __$EHRec$[ebp]
  000b5	64 89 0d 00 00
	00 00		 mov	 DWORD PTR fs:0, ecx
  000bc	59		 pop	 ecx
  000bd	5f		 pop	 edi
  000be	5e		 pop	 esi
  000bf	8b e5		 mov	 esp, ebp
  000c1	5d		 pop	 ebp
  000c2	c2 0c 00	 ret	 12			; 0000000cH
_TEXT	ENDS
;	COMDAT text$x
text$x	SEGMENT
__unwindfunclet$?GetIndexString@CElementSaverBuilder@@ABE?AV?$CStringT@DV?$StrTraitMFC_DLL@DV?$ChTraitsCRT@D@ATL@@@@@ATL@@PBVCDrawingSymbol@@ABVCOrder@@@Z$1:
  00000	8d 4d 0c	 lea	 ecx, DWORD PTR $T3[ebp]
  00003	ff 25 00 00 00
	00		 jmp	 DWORD PTR __imp_??1?$CStringT@DV?$StrTraitMFC_DLL@DV?$ChTraitsCRT@D@ATL@@@@@ATL@@QAE@XZ
__unwindfunclet$?GetIndexString@CElementSaverBuilder@@ABE?AV?$CStringT@DV?$StrTraitMFC_DLL@DV?$ChTraitsCRT@D@ATL@@@@@ATL@@PBVCDrawingSymbol@@ABVCOrder@@@Z$2:
  00009	8b 45 f0	 mov	 eax, DWORD PTR $T2[ebp]
  0000c	83 e0 02	 and	 eax, 2
  0000f	0f 84 0d 00 00
	00		 je	 $LN10@GetIndexSt
  00015	83 65 f0 fd	 and	 DWORD PTR $T2[ebp], -3	; fffffffdH
  00019	8b 4d 08	 mov	 ecx, DWORD PTR ___$ReturnUdt$[ebp]
  0001c	ff 25 00 00 00
	00		 jmp	 DWORD PTR __imp_??1?$CStringT@DV?$StrTraitMFC_DLL@DV?$ChTraitsCRT@D@ATL@@@@@ATL@@QAE@XZ
$LN10@GetIndexSt:
  00022	c3		 ret	 0
  00023	cc		 int	 3
  00024	cc		 int	 3
  00025	cc		 int	 3
  00026	cc		 int	 3
  00027	cc		 int	 3
__ehhandler$?GetIndexString@CElementSaverBuilder@@ABE?AV?$CStringT@DV?$StrTraitMFC_DLL@DV?$ChTraitsCRT@D@ATL@@@@@ATL@@PBVCDrawingSymbol@@ABVCOrder@@@Z:
  00028	90		 npad	 1
  00029	90		 npad	 1
  0002a	8b 54 24 08	 mov	 edx, DWORD PTR [esp+8]
  0002e	8d 42 0c	 lea	 eax, DWORD PTR [edx+12]
  00031	8b 4a f0	 mov	 ecx, DWORD PTR [edx-16]
  00034	33 c8		 xor	 ecx, eax
  00036	e8 00 00 00 00	 call	 @__security_check_cookie@4
  0003b	b8 00 00 00 00	 mov	 eax, OFFSET __ehfuncinfo$?GetIndexString@CElementSaverBuilder@@ABE?AV?$CStringT@DV?$StrTraitMFC_DLL@DV?$ChTraitsCRT@D@ATL@@@@@ATL@@PBVCDrawingSymbol@@ABVCOrder@@@Z
  00040	e9 00 00 00 00	 jmp	 ___CxxFrameHandler3
text$x	ENDS
?GetIndexString@CElementSaverBuilder@@ABE?AV?$CStringT@DV?$StrTraitMFC_DLL@DV?$ChTraitsCRT@D@ATL@@@@@ATL@@PBVCDrawingSymbol@@ABVCOrder@@@Z ENDP ; CElementSaverBuilder::GetIndexString
; Function compile flags: /Ogtp
; File D:\git\src\IBK\IBK_DRFN\ProjSrc\SrcChartEx\ChartAddIn\ChartAnalysisToolAddIn\Symbol\ElementSaverBuilder.cpp
; File C:\Program Files (x86)\Microsoft Visual Studio\2019\Community\VC\Tools\MSVC\14.29.30133\atlmfc\include\atltypes.h
; File D:\git\src\IBK\IBK_DRFN\ProjSrc\SrcChartEx\ChartAddIn\ChartAnalysisToolAddIn\Symbol\ElementSaverBuilder.cpp
;	COMDAT ?MakeElement@CElementSaverBuilder@@AAEPAVCDrawingSymbol@@W4HORZSCALEDRAWERTYPE@CScaleBaseData@@ABV?$CStringT@DV?$StrTraitMFC_DLL@DV?$ChTraitsCRT@D@ATL@@@@@ATL@@@Z
_TEXT	SEGMENT
$T2 = -220						; size = 24
$T3 = -196						; size = 24
$T4 = -196						; size = 24
_start_x$ = -172					; size = 8
_start_y$ = -164					; size = 8
_end_x$ = -156						; size = 8
_end_y$ = -148						; size = 8
_weight$ = -140						; size = 4
_textColor$ = -136					; size = 4
_size_cx$1$ = -132					; size = 4
_strText$ = -128					; size = 4
_symboltype$1$ = -124					; size = 4
_color$ = -120						; size = 4
$T5 = -116						; size = 8
_bDrawFromTop$ = -112					; size = 1
_size_cy$1$ = -108					; size = 4
$T6 = -108						; size = 4
_sizetype$1$ = -104					; size = 4
$T7 = -104						; size = 4
_strX$ = -100						; size = 4
_bFill$ = -93						; size = 1
$T8 = -92						; size = 4
$T9 = -92						; size = 4
$T10 = -92						; size = 4
$T11 = -92						; size = 4
$T12 = -92						; size = 4
$T13 = -92						; size = 4
$T14 = -92						; size = 4
_data$ = -88						; size = 4
$T15 = -84						; size = 4
$T16 = -84						; size = 4
$T17 = -84						; size = 4
$T18 = -84						; size = 4
$T19 = -84						; size = 4
$T20 = -84						; size = 4
$T21 = -84						; size = 4
$T22 = -84						; size = 4
$T23 = -84						; size = 4
$T24 = -80						; size = 4
$T25 = -80						; size = 4
$T26 = -80						; size = 4
$T27 = -80						; size = 4
$T28 = -80						; size = 4
$T29 = -80						; size = 4
$T30 = -80						; size = 4
$T31 = -80						; size = 4
$T32 = -80						; size = 4
$T33 = -80						; size = 4
$T34 = -80						; size = 4
$T35 = -80						; size = 4
$T36 = -80						; size = 4
$T37 = -80						; size = 4
$T38 = -80						; size = 4
_logfont$ = -76						; size = 60
__$ArrayPad$ = -16					; size = 4
__$EHRec$ = -12						; size = 12
_eScaleType$ = 8					; size = 4
_strSymboldata$ = 12					; size = 4
?MakeElement@CElementSaverBuilder@@AAEPAVCDrawingSymbol@@W4HORZSCALEDRAWERTYPE@CScaleBaseData@@ABV?$CStringT@DV?$StrTraitMFC_DLL@DV?$ChTraitsCRT@D@ATL@@@@@ATL@@@Z PROC ; CElementSaverBuilder::MakeElement, COMDAT
; _this$ = ecx

; 246  : {

  00000	55		 push	 ebp
  00001	8b ec		 mov	 ebp, esp
  00003	6a ff		 push	 -1
  00005	68 00 00 00 00	 push	 __ehhandler$?MakeElement@CElementSaverBuilder@@AAEPAVCDrawingSymbol@@W4HORZSCALEDRAWERTYPE@CScaleBaseData@@ABV?$CStringT@DV?$StrTraitMFC_DLL@DV?$ChTraitsCRT@D@ATL@@@@@ATL@@@Z
  0000a	64 a1 00 00 00
	00		 mov	 eax, DWORD PTR fs:0
  00010	50		 push	 eax
  00011	81 ec d0 00 00
	00		 sub	 esp, 208		; 000000d0H
  00017	a1 00 00 00 00	 mov	 eax, DWORD PTR ___security_cookie
  0001c	33 c5		 xor	 eax, ebp
  0001e	89 45 f0	 mov	 DWORD PTR __$ArrayPad$[ebp], eax
  00021	53		 push	 ebx
  00022	56		 push	 esi
  00023	57		 push	 edi
  00024	50		 push	 eax
  00025	8d 45 f4	 lea	 eax, DWORD PTR __$EHRec$[ebp]
  00028	64 a3 00 00 00
	00		 mov	 DWORD PTR fs:0, eax
  0002e	8b f9		 mov	 edi, ecx
  00030	8b 45 0c	 mov	 eax, DWORD PTR _strSymboldata$[ebp]

; 247  : 	CString data = strSymboldata;

  00033	8d 4d a8	 lea	 ecx, DWORD PTR _data$[ebp]
  00036	50		 push	 eax
  00037	ff 15 00 00 00
	00		 call	 DWORD PTR __imp_??0?$CStringT@DV?$StrTraitMFC_DLL@DV?$ChTraitsCRT@D@ATL@@@@@ATL@@QAE@ABV01@@Z

; 248  : 	int symboltype= atoi(CDataConversion::GetStringData(data, ";"));

  0003d	68 00 00 00 00	 push	 OFFSET ??_C@_01ICJEACDI@?$DL@
  00042	8d 4d ac	 lea	 ecx, DWORD PTR $T23[ebp]
  00045	c7 45 fc 00 00
	00 00		 mov	 DWORD PTR __$EHRec$[ebp+8], 0
  0004c	ff 15 00 00 00
	00		 call	 DWORD PTR __imp_??0?$CStringT@DV?$StrTraitMFC_DLL@DV?$ChTraitsCRT@D@ATL@@@@@ATL@@QAE@PBD@Z
  00052	6a 01		 push	 1
  00054	8d 45 ac	 lea	 eax, DWORD PTR $T23[ebp]
  00057	c6 45 fc 01	 mov	 BYTE PTR __$EHRec$[ebp+8], 1
  0005b	50		 push	 eax
  0005c	8d 45 a8	 lea	 eax, DWORD PTR _data$[ebp]
  0005f	50		 push	 eax
  00060	8d 45 b0	 lea	 eax, DWORD PTR $T38[ebp]
  00063	50		 push	 eax
  00064	e8 00 00 00 00	 call	 ?GetStringData@CDataConversion@@SA?AV?$CStringT@DV?$StrTraitMFC_DLL@DV?$ChTraitsCRT@D@ATL@@@@@ATL@@AAV23@ABV23@_N@Z ; CDataConversion::GetStringData
  00069	8b 1d 00 00 00
	00		 mov	 ebx, DWORD PTR __imp__atoi
  0006f	ff 30		 push	 DWORD PTR [eax]
  00071	ff d3		 call	 ebx
  00073	83 c4 14	 add	 esp, 20			; 00000014H
  00076	89 45 84	 mov	 DWORD PTR _symboltype$1$[ebp], eax
  00079	8d 4d b0	 lea	 ecx, DWORD PTR $T38[ebp]
  0007c	ff 15 00 00 00
	00		 call	 DWORD PTR __imp_??1?$CStringT@DV?$StrTraitMFC_DLL@DV?$ChTraitsCRT@D@ATL@@@@@ATL@@QAE@XZ
  00082	8d 4d ac	 lea	 ecx, DWORD PTR $T23[ebp]
  00085	c6 45 fc 00	 mov	 BYTE PTR __$EHRec$[ebp+8], 0
  00089	ff 15 00 00 00
	00		 call	 DWORD PTR __imp_??1?$CStringT@DV?$StrTraitMFC_DLL@DV?$ChTraitsCRT@D@ATL@@@@@ATL@@QAE@XZ

; 249  : 	int sizetype= atoi(CDataConversion::GetStringData(data, ";"));

  0008f	68 00 00 00 00	 push	 OFFSET ??_C@_01ICJEACDI@?$DL@
  00094	8d 4d ac	 lea	 ecx, DWORD PTR $T22[ebp]
  00097	ff 15 00 00 00
	00		 call	 DWORD PTR __imp_??0?$CStringT@DV?$StrTraitMFC_DLL@DV?$ChTraitsCRT@D@ATL@@@@@ATL@@QAE@PBD@Z
  0009d	6a 01		 push	 1
  0009f	8d 45 ac	 lea	 eax, DWORD PTR $T22[ebp]
  000a2	c6 45 fc 02	 mov	 BYTE PTR __$EHRec$[ebp+8], 2
  000a6	50		 push	 eax
  000a7	8d 45 a8	 lea	 eax, DWORD PTR _data$[ebp]
  000aa	50		 push	 eax
  000ab	8d 45 b0	 lea	 eax, DWORD PTR $T37[ebp]
  000ae	50		 push	 eax
  000af	e8 00 00 00 00	 call	 ?GetStringData@CDataConversion@@SA?AV?$CStringT@DV?$StrTraitMFC_DLL@DV?$ChTraitsCRT@D@ATL@@@@@ATL@@AAV23@ABV23@_N@Z ; CDataConversion::GetStringData
  000b4	ff 30		 push	 DWORD PTR [eax]
  000b6	ff d3		 call	 ebx
  000b8	83 c4 14	 add	 esp, 20			; 00000014H
  000bb	89 45 98	 mov	 DWORD PTR _sizetype$1$[ebp], eax
  000be	8d 4d b0	 lea	 ecx, DWORD PTR $T37[ebp]
  000c1	ff 15 00 00 00
	00		 call	 DWORD PTR __imp_??1?$CStringT@DV?$StrTraitMFC_DLL@DV?$ChTraitsCRT@D@ATL@@@@@ATL@@QAE@XZ
  000c7	8d 4d ac	 lea	 ecx, DWORD PTR $T22[ebp]
  000ca	ff 15 00 00 00
	00		 call	 DWORD PTR __imp_??1?$CStringT@DV?$StrTraitMFC_DLL@DV?$ChTraitsCRT@D@ATL@@@@@ATL@@QAE@XZ

; 250  : 	
; 251  : 	// 2011.02.07 by SYS >>  YYYY()  : / 14Byte  (YYYYMMDDhhmmss)
; 252  : 	//double start_x = atof(CDataConversion::GetStringData(data, ";"));
; 253  : 	CString strX;

  000d0	8d 4d 9c	 lea	 ecx, DWORD PTR _strX$[ebp]
  000d3	ff 15 00 00 00
	00		 call	 DWORD PTR __imp_??0?$CStringT@DV?$StrTraitMFC_DLL@DV?$ChTraitsCRT@D@ATL@@@@@ATL@@QAE@XZ

; 254  : 	__int64 lMakeTime = 0;
; 255  : 	strX			= CDataConversion::GetStringData(data, ";");

  000d9	68 00 00 00 00	 push	 OFFSET ??_C@_01ICJEACDI@?$DL@
  000de	8d 4d ac	 lea	 ecx, DWORD PTR $T21[ebp]
  000e1	c6 45 fc 03	 mov	 BYTE PTR __$EHRec$[ebp+8], 3
  000e5	ff 15 00 00 00
	00		 call	 DWORD PTR __imp_??0?$CStringT@DV?$StrTraitMFC_DLL@DV?$ChTraitsCRT@D@ATL@@@@@ATL@@QAE@PBD@Z
  000eb	6a 01		 push	 1
  000ed	8d 45 ac	 lea	 eax, DWORD PTR $T21[ebp]
  000f0	c6 45 fc 04	 mov	 BYTE PTR __$EHRec$[ebp+8], 4
  000f4	50		 push	 eax
  000f5	8d 45 a8	 lea	 eax, DWORD PTR _data$[ebp]
  000f8	50		 push	 eax
  000f9	8d 45 b0	 lea	 eax, DWORD PTR $T36[ebp]
  000fc	50		 push	 eax
  000fd	e8 00 00 00 00	 call	 ?GetStringData@CDataConversion@@SA?AV?$CStringT@DV?$StrTraitMFC_DLL@DV?$ChTraitsCRT@D@ATL@@@@@ATL@@AAV23@ABV23@_N@Z ; CDataConversion::GetStringData
  00102	83 c4 10	 add	 esp, 16			; 00000010H
  00105	50		 push	 eax
  00106	8d 4d 9c	 lea	 ecx, DWORD PTR _strX$[ebp]
  00109	c6 45 fc 05	 mov	 BYTE PTR __$EHRec$[ebp+8], 5
  0010d	ff 15 00 00 00
	00		 call	 DWORD PTR __imp_??4?$CStringT@DV?$StrTraitMFC_DLL@DV?$ChTraitsCRT@D@ATL@@@@@ATL@@QAEAAV01@ABV01@@Z
  00113	8d 4d b0	 lea	 ecx, DWORD PTR $T36[ebp]
  00116	ff 15 00 00 00
	00		 call	 DWORD PTR __imp_??1?$CStringT@DV?$StrTraitMFC_DLL@DV?$ChTraitsCRT@D@ATL@@@@@ATL@@QAE@XZ
  0011c	8d 4d ac	 lea	 ecx, DWORD PTR $T21[ebp]
  0011f	c6 45 fc 03	 mov	 BYTE PTR __$EHRec$[ebp+8], 3
  00123	ff 15 00 00 00
	00		 call	 DWORD PTR __imp_??1?$CStringT@DV?$StrTraitMFC_DLL@DV?$ChTraitsCRT@D@ATL@@@@@ATL@@QAE@XZ

; 256  : 	lMakeTime		= MakeDateTime(eScaleType, strX);

  00129	51		 push	 ecx
  0012a	8b cc		 mov	 ecx, esp
  0012c	8d 45 9c	 lea	 eax, DWORD PTR _strX$[ebp]
  0012f	50		 push	 eax
  00130	ff 15 00 00 00
	00		 call	 DWORD PTR __imp_??0?$CStringT@DV?$StrTraitMFC_DLL@DV?$ChTraitsCRT@D@ATL@@@@@ATL@@QAE@ABV01@@Z
  00136	8b 75 08	 mov	 esi, DWORD PTR _eScaleType$[ebp]
  00139	8b cf		 mov	 ecx, edi
  0013b	56		 push	 esi
  0013c	e8 00 00 00 00	 call	 ?MakeDateTime@CElementSaverBuilder@@AAE_JW4HORZSCALEDRAWERTYPE@CScaleBaseData@@V?$CStringT@DV?$StrTraitMFC_DLL@DV?$ChTraitsCRT@D@ATL@@@@@ATL@@@Z ; CElementSaverBuilder::MakeDateTime

; 257  : 	double start_x	= (double)lMakeTime;

  00141	8b c8		 mov	 ecx, eax
  00143	e8 00 00 00 00	 call	 __ltod3

; 258  : 	// 2011.02.07 by SYS <<
; 259  : 	
; 260  : 	double start_y = atof(CDataConversion::GetStringData(data, ";"));

  00148	68 00 00 00 00	 push	 OFFSET ??_C@_01ICJEACDI@?$DL@
  0014d	8d 4d ac	 lea	 ecx, DWORD PTR $T20[ebp]
  00150	f2 0f 11 85 54
	ff ff ff	 movsd	 QWORD PTR _start_x$[ebp], xmm0
  00158	ff 15 00 00 00
	00		 call	 DWORD PTR __imp_??0?$CStringT@DV?$StrTraitMFC_DLL@DV?$ChTraitsCRT@D@ATL@@@@@ATL@@QAE@PBD@Z
  0015e	6a 01		 push	 1
  00160	8d 45 ac	 lea	 eax, DWORD PTR $T20[ebp]
  00163	c6 45 fc 06	 mov	 BYTE PTR __$EHRec$[ebp+8], 6
  00167	50		 push	 eax
  00168	8d 45 a8	 lea	 eax, DWORD PTR _data$[ebp]
  0016b	50		 push	 eax
  0016c	8d 45 b0	 lea	 eax, DWORD PTR $T35[ebp]
  0016f	50		 push	 eax
  00170	e8 00 00 00 00	 call	 ?GetStringData@CDataConversion@@SA?AV?$CStringT@DV?$StrTraitMFC_DLL@DV?$ChTraitsCRT@D@ATL@@@@@ATL@@AAV23@ABV23@_N@Z ; CDataConversion::GetStringData
  00175	ff 30		 push	 DWORD PTR [eax]
  00177	ff 15 00 00 00
	00		 call	 DWORD PTR __imp__atof
  0017d	83 c4 14	 add	 esp, 20			; 00000014H
  00180	8d 4d b0	 lea	 ecx, DWORD PTR $T35[ebp]
  00183	dd 9d 5c ff ff
	ff		 fstp	 QWORD PTR _start_y$[ebp]
  00189	ff 15 00 00 00
	00		 call	 DWORD PTR __imp_??1?$CStringT@DV?$StrTraitMFC_DLL@DV?$ChTraitsCRT@D@ATL@@@@@ATL@@QAE@XZ
  0018f	8d 4d ac	 lea	 ecx, DWORD PTR $T20[ebp]
  00192	c6 45 fc 03	 mov	 BYTE PTR __$EHRec$[ebp+8], 3
  00196	ff 15 00 00 00
	00		 call	 DWORD PTR __imp_??1?$CStringT@DV?$StrTraitMFC_DLL@DV?$ChTraitsCRT@D@ATL@@@@@ATL@@QAE@XZ

; 261  : 
; 262  : 	
; 263  : 	// 2011.02.07 by SYS >>  YYYY()  : / 14Byte  (YYYYMMDDhhmmss)
; 264  : 	//double end_x = atof(CDataConversion::GetStringData(data, ";"));
; 265  : 	strX			= CDataConversion::GetStringData(data, ";");

  0019c	68 00 00 00 00	 push	 OFFSET ??_C@_01ICJEACDI@?$DL@
  001a1	8d 4d ac	 lea	 ecx, DWORD PTR $T19[ebp]
  001a4	ff 15 00 00 00
	00		 call	 DWORD PTR __imp_??0?$CStringT@DV?$StrTraitMFC_DLL@DV?$ChTraitsCRT@D@ATL@@@@@ATL@@QAE@PBD@Z
  001aa	6a 01		 push	 1
  001ac	8d 45 ac	 lea	 eax, DWORD PTR $T19[ebp]
  001af	c6 45 fc 07	 mov	 BYTE PTR __$EHRec$[ebp+8], 7
  001b3	50		 push	 eax
  001b4	8d 45 a8	 lea	 eax, DWORD PTR _data$[ebp]
  001b7	50		 push	 eax
  001b8	8d 45 b0	 lea	 eax, DWORD PTR $T34[ebp]
  001bb	50		 push	 eax
  001bc	e8 00 00 00 00	 call	 ?GetStringData@CDataConversion@@SA?AV?$CStringT@DV?$StrTraitMFC_DLL@DV?$ChTraitsCRT@D@ATL@@@@@ATL@@AAV23@ABV23@_N@Z ; CDataConversion::GetStringData
  001c1	83 c4 10	 add	 esp, 16			; 00000010H
  001c4	50		 push	 eax
  001c5	8d 4d 9c	 lea	 ecx, DWORD PTR _strX$[ebp]
  001c8	c6 45 fc 08	 mov	 BYTE PTR __$EHRec$[ebp+8], 8
  001cc	ff 15 00 00 00
	00		 call	 DWORD PTR __imp_??4?$CStringT@DV?$StrTraitMFC_DLL@DV?$ChTraitsCRT@D@ATL@@@@@ATL@@QAEAAV01@ABV01@@Z
  001d2	8d 4d b0	 lea	 ecx, DWORD PTR $T34[ebp]
  001d5	ff 15 00 00 00
	00		 call	 DWORD PTR __imp_??1?$CStringT@DV?$StrTraitMFC_DLL@DV?$ChTraitsCRT@D@ATL@@@@@ATL@@QAE@XZ
  001db	8d 4d ac	 lea	 ecx, DWORD PTR $T19[ebp]
  001de	c6 45 fc 03	 mov	 BYTE PTR __$EHRec$[ebp+8], 3
  001e2	ff 15 00 00 00
	00		 call	 DWORD PTR __imp_??1?$CStringT@DV?$StrTraitMFC_DLL@DV?$ChTraitsCRT@D@ATL@@@@@ATL@@QAE@XZ

; 266  : 	lMakeTime		= MakeDateTime(eScaleType, strX);

  001e8	51		 push	 ecx
  001e9	8d 45 9c	 lea	 eax, DWORD PTR _strX$[ebp]
  001ec	8b cc		 mov	 ecx, esp
  001ee	50		 push	 eax
  001ef	ff 15 00 00 00
	00		 call	 DWORD PTR __imp_??0?$CStringT@DV?$StrTraitMFC_DLL@DV?$ChTraitsCRT@D@ATL@@@@@ATL@@QAE@ABV01@@Z
  001f5	56		 push	 esi
  001f6	8b cf		 mov	 ecx, edi
  001f8	e8 00 00 00 00	 call	 ?MakeDateTime@CElementSaverBuilder@@AAE_JW4HORZSCALEDRAWERTYPE@CScaleBaseData@@V?$CStringT@DV?$StrTraitMFC_DLL@DV?$ChTraitsCRT@D@ATL@@@@@ATL@@@Z ; CElementSaverBuilder::MakeDateTime

; 267  : 	double end_x	= (double)lMakeTime;

  001fd	8b c8		 mov	 ecx, eax
  001ff	e8 00 00 00 00	 call	 __ltod3

; 268  : 	// 2011.02.07 by SYS <<
; 269  : 
; 270  : 
; 271  : 	double end_y = atof(CDataConversion::GetStringData(data, ";"));

  00204	68 00 00 00 00	 push	 OFFSET ??_C@_01ICJEACDI@?$DL@
  00209	8d 4d ac	 lea	 ecx, DWORD PTR $T18[ebp]
  0020c	f2 0f 11 85 64
	ff ff ff	 movsd	 QWORD PTR _end_x$[ebp], xmm0
  00214	ff 15 00 00 00
	00		 call	 DWORD PTR __imp_??0?$CStringT@DV?$StrTraitMFC_DLL@DV?$ChTraitsCRT@D@ATL@@@@@ATL@@QAE@PBD@Z
  0021a	6a 01		 push	 1
  0021c	8d 45 ac	 lea	 eax, DWORD PTR $T18[ebp]
  0021f	c6 45 fc 09	 mov	 BYTE PTR __$EHRec$[ebp+8], 9
  00223	50		 push	 eax
  00224	8d 45 a8	 lea	 eax, DWORD PTR _data$[ebp]
  00227	50		 push	 eax
  00228	8d 45 b0	 lea	 eax, DWORD PTR $T33[ebp]
  0022b	50		 push	 eax
  0022c	e8 00 00 00 00	 call	 ?GetStringData@CDataConversion@@SA?AV?$CStringT@DV?$StrTraitMFC_DLL@DV?$ChTraitsCRT@D@ATL@@@@@ATL@@AAV23@ABV23@_N@Z ; CDataConversion::GetStringData
  00231	ff 30		 push	 DWORD PTR [eax]
  00233	ff 15 00 00 00
	00		 call	 DWORD PTR __imp__atof
  00239	83 c4 14	 add	 esp, 20			; 00000014H
  0023c	8d 4d b0	 lea	 ecx, DWORD PTR $T33[ebp]
  0023f	dd 9d 6c ff ff
	ff		 fstp	 QWORD PTR _end_y$[ebp]
  00245	ff 15 00 00 00
	00		 call	 DWORD PTR __imp_??1?$CStringT@DV?$StrTraitMFC_DLL@DV?$ChTraitsCRT@D@ATL@@@@@ATL@@QAE@XZ
  0024b	8d 4d ac	 lea	 ecx, DWORD PTR $T18[ebp]
  0024e	c6 45 fc 03	 mov	 BYTE PTR __$EHRec$[ebp+8], 3
  00252	ff 15 00 00 00
	00		 call	 DWORD PTR __imp_??1?$CStringT@DV?$StrTraitMFC_DLL@DV?$ChTraitsCRT@D@ATL@@@@@ATL@@QAE@XZ

; 272  : 	int size_cx = atoi(CDataConversion::GetStringData(data, ";"));

  00258	68 00 00 00 00	 push	 OFFSET ??_C@_01ICJEACDI@?$DL@
  0025d	8d 4d ac	 lea	 ecx, DWORD PTR $T17[ebp]
  00260	ff 15 00 00 00
	00		 call	 DWORD PTR __imp_??0?$CStringT@DV?$StrTraitMFC_DLL@DV?$ChTraitsCRT@D@ATL@@@@@ATL@@QAE@PBD@Z
  00266	6a 01		 push	 1
  00268	8d 45 ac	 lea	 eax, DWORD PTR $T17[ebp]
  0026b	c6 45 fc 0a	 mov	 BYTE PTR __$EHRec$[ebp+8], 10 ; 0000000aH
  0026f	50		 push	 eax
  00270	8d 45 a8	 lea	 eax, DWORD PTR _data$[ebp]
  00273	50		 push	 eax
  00274	8d 45 b0	 lea	 eax, DWORD PTR $T32[ebp]
  00277	50		 push	 eax
  00278	e8 00 00 00 00	 call	 ?GetStringData@CDataConversion@@SA?AV?$CStringT@DV?$StrTraitMFC_DLL@DV?$ChTraitsCRT@D@ATL@@@@@ATL@@AAV23@ABV23@_N@Z ; CDataConversion::GetStringData
  0027d	ff 30		 push	 DWORD PTR [eax]
  0027f	ff d3		 call	 ebx
  00281	83 c4 14	 add	 esp, 20			; 00000014H
  00284	89 85 7c ff ff
	ff		 mov	 DWORD PTR _size_cx$1$[ebp], eax
  0028a	8d 4d b0	 lea	 ecx, DWORD PTR $T32[ebp]
  0028d	ff 15 00 00 00
	00		 call	 DWORD PTR __imp_??1?$CStringT@DV?$StrTraitMFC_DLL@DV?$ChTraitsCRT@D@ATL@@@@@ATL@@QAE@XZ
  00293	8d 4d ac	 lea	 ecx, DWORD PTR $T17[ebp]
  00296	c6 45 fc 03	 mov	 BYTE PTR __$EHRec$[ebp+8], 3
  0029a	ff 15 00 00 00
	00		 call	 DWORD PTR __imp_??1?$CStringT@DV?$StrTraitMFC_DLL@DV?$ChTraitsCRT@D@ATL@@@@@ATL@@QAE@XZ

; 273  : 	int size_cy = atoi(CDataConversion::GetStringData(data, ";"));

  002a0	68 00 00 00 00	 push	 OFFSET ??_C@_01ICJEACDI@?$DL@
  002a5	8d 4d ac	 lea	 ecx, DWORD PTR $T16[ebp]
  002a8	ff 15 00 00 00
	00		 call	 DWORD PTR __imp_??0?$CStringT@DV?$StrTraitMFC_DLL@DV?$ChTraitsCRT@D@ATL@@@@@ATL@@QAE@PBD@Z
  002ae	6a 01		 push	 1
  002b0	8d 45 ac	 lea	 eax, DWORD PTR $T16[ebp]
  002b3	c6 45 fc 0b	 mov	 BYTE PTR __$EHRec$[ebp+8], 11 ; 0000000bH
  002b7	50		 push	 eax
  002b8	8d 45 a8	 lea	 eax, DWORD PTR _data$[ebp]
  002bb	50		 push	 eax
  002bc	8d 45 b0	 lea	 eax, DWORD PTR $T31[ebp]
  002bf	50		 push	 eax
  002c0	e8 00 00 00 00	 call	 ?GetStringData@CDataConversion@@SA?AV?$CStringT@DV?$StrTraitMFC_DLL@DV?$ChTraitsCRT@D@ATL@@@@@ATL@@AAV23@ABV23@_N@Z ; CDataConversion::GetStringData
  002c5	ff 30		 push	 DWORD PTR [eax]
  002c7	ff d3		 call	 ebx
  002c9	83 c4 14	 add	 esp, 20			; 00000014H
  002cc	89 45 94	 mov	 DWORD PTR _size_cy$1$[ebp], eax
  002cf	8d 4d b0	 lea	 ecx, DWORD PTR $T31[ebp]
  002d2	ff 15 00 00 00
	00		 call	 DWORD PTR __imp_??1?$CStringT@DV?$StrTraitMFC_DLL@DV?$ChTraitsCRT@D@ATL@@@@@ATL@@QAE@XZ
  002d8	8d 4d ac	 lea	 ecx, DWORD PTR $T16[ebp]
  002db	c6 45 fc 03	 mov	 BYTE PTR __$EHRec$[ebp+8], 3
  002df	ff 15 00 00 00
	00		 call	 DWORD PTR __imp_??1?$CStringT@DV?$StrTraitMFC_DLL@DV?$ChTraitsCRT@D@ATL@@@@@ATL@@QAE@XZ

; 274  : 	CString strText = CDataConversion::GetStringData(data, ";");

  002e5	68 00 00 00 00	 push	 OFFSET ??_C@_01ICJEACDI@?$DL@
  002ea	8d 4d ac	 lea	 ecx, DWORD PTR $T15[ebp]
  002ed	ff 15 00 00 00
	00		 call	 DWORD PTR __imp_??0?$CStringT@DV?$StrTraitMFC_DLL@DV?$ChTraitsCRT@D@ATL@@@@@ATL@@QAE@PBD@Z
  002f3	6a 01		 push	 1
  002f5	8d 45 ac	 lea	 eax, DWORD PTR $T15[ebp]
  002f8	c6 45 fc 0c	 mov	 BYTE PTR __$EHRec$[ebp+8], 12 ; 0000000cH
  002fc	50		 push	 eax
  002fd	8d 45 a8	 lea	 eax, DWORD PTR _data$[ebp]
  00300	50		 push	 eax
  00301	8d 45 80	 lea	 eax, DWORD PTR _strText$[ebp]
  00304	50		 push	 eax
  00305	e8 00 00 00 00	 call	 ?GetStringData@CDataConversion@@SA?AV?$CStringT@DV?$StrTraitMFC_DLL@DV?$ChTraitsCRT@D@ATL@@@@@ATL@@AAV23@ABV23@_N@Z ; CDataConversion::GetStringData
  0030a	83 c4 10	 add	 esp, 16			; 00000010H
  0030d	8d 4d ac	 lea	 ecx, DWORD PTR $T15[ebp]
  00310	c6 45 fc 0e	 mov	 BYTE PTR __$EHRec$[ebp+8], 14 ; 0000000eH
  00314	ff 15 00 00 00
	00		 call	 DWORD PTR __imp_??1?$CStringT@DV?$StrTraitMFC_DLL@DV?$ChTraitsCRT@D@ATL@@@@@ATL@@QAE@XZ

; 275  : 	COLORREF color = CDataConversion::Str2RGB(CDataConversion::GetStringData(data, ";"));

  0031a	68 00 00 00 00	 push	 OFFSET ??_C@_01ICJEACDI@?$DL@
  0031f	8d 4d b0	 lea	 ecx, DWORD PTR $T30[ebp]
  00322	ff 15 00 00 00
	00		 call	 DWORD PTR __imp_??0?$CStringT@DV?$StrTraitMFC_DLL@DV?$ChTraitsCRT@D@ATL@@@@@ATL@@QAE@PBD@Z
  00328	6a 01		 push	 1
  0032a	8d 45 b0	 lea	 eax, DWORD PTR $T30[ebp]
  0032d	c6 45 fc 0f	 mov	 BYTE PTR __$EHRec$[ebp+8], 15 ; 0000000fH
  00331	50		 push	 eax
  00332	8d 45 a8	 lea	 eax, DWORD PTR _data$[ebp]
  00335	50		 push	 eax
  00336	8d 45 a4	 lea	 eax, DWORD PTR $T14[ebp]
  00339	50		 push	 eax
  0033a	e8 00 00 00 00	 call	 ?GetStringData@CDataConversion@@SA?AV?$CStringT@DV?$StrTraitMFC_DLL@DV?$ChTraitsCRT@D@ATL@@@@@ATL@@AAV23@ABV23@_N@Z ; CDataConversion::GetStringData
  0033f	50		 push	 eax
  00340	c6 45 fc 10	 mov	 BYTE PTR __$EHRec$[ebp+8], 16 ; 00000010H
  00344	e8 00 00 00 00	 call	 ?Str2RGB@CDataConversion@@SAKABV?$CStringT@DV?$StrTraitMFC_DLL@DV?$ChTraitsCRT@D@ATL@@@@@ATL@@@Z ; CDataConversion::Str2RGB
  00349	83 c4 14	 add	 esp, 20			; 00000014H
  0034c	89 45 88	 mov	 DWORD PTR _color$[ebp], eax
  0034f	8d 4d a4	 lea	 ecx, DWORD PTR $T14[ebp]
  00352	ff 15 00 00 00
	00		 call	 DWORD PTR __imp_??1?$CStringT@DV?$StrTraitMFC_DLL@DV?$ChTraitsCRT@D@ATL@@@@@ATL@@QAE@XZ
  00358	8d 4d b0	 lea	 ecx, DWORD PTR $T30[ebp]
  0035b	c6 45 fc 0e	 mov	 BYTE PTR __$EHRec$[ebp+8], 14 ; 0000000eH
  0035f	ff 15 00 00 00
	00		 call	 DWORD PTR __imp_??1?$CStringT@DV?$StrTraitMFC_DLL@DV?$ChTraitsCRT@D@ATL@@@@@ATL@@QAE@XZ

; 276  : 	int weight = atoi(CDataConversion::GetStringData(data, ";"));

  00365	68 00 00 00 00	 push	 OFFSET ??_C@_01ICJEACDI@?$DL@
  0036a	8d 4d b0	 lea	 ecx, DWORD PTR $T29[ebp]
  0036d	ff 15 00 00 00
	00		 call	 DWORD PTR __imp_??0?$CStringT@DV?$StrTraitMFC_DLL@DV?$ChTraitsCRT@D@ATL@@@@@ATL@@QAE@PBD@Z
  00373	6a 01		 push	 1
  00375	8d 45 b0	 lea	 eax, DWORD PTR $T29[ebp]
  00378	c6 45 fc 11	 mov	 BYTE PTR __$EHRec$[ebp+8], 17 ; 00000011H
  0037c	50		 push	 eax
  0037d	8d 45 a8	 lea	 eax, DWORD PTR _data$[ebp]
  00380	50		 push	 eax
  00381	8d 45 a4	 lea	 eax, DWORD PTR $T13[ebp]
  00384	50		 push	 eax
  00385	e8 00 00 00 00	 call	 ?GetStringData@CDataConversion@@SA?AV?$CStringT@DV?$StrTraitMFC_DLL@DV?$ChTraitsCRT@D@ATL@@@@@ATL@@AAV23@ABV23@_N@Z ; CDataConversion::GetStringData
  0038a	ff 30		 push	 DWORD PTR [eax]
  0038c	ff d3		 call	 ebx
  0038e	83 c4 14	 add	 esp, 20			; 00000014H
  00391	89 85 74 ff ff
	ff		 mov	 DWORD PTR _weight$[ebp], eax
  00397	8d 4d a4	 lea	 ecx, DWORD PTR $T13[ebp]
  0039a	ff 15 00 00 00
	00		 call	 DWORD PTR __imp_??1?$CStringT@DV?$StrTraitMFC_DLL@DV?$ChTraitsCRT@D@ATL@@@@@ATL@@QAE@XZ
  003a0	8d 4d b0	 lea	 ecx, DWORD PTR $T29[ebp]
  003a3	c6 45 fc 0e	 mov	 BYTE PTR __$EHRec$[ebp+8], 14 ; 0000000eH
  003a7	ff 15 00 00 00
	00		 call	 DWORD PTR __imp_??1?$CStringT@DV?$StrTraitMFC_DLL@DV?$ChTraitsCRT@D@ATL@@@@@ATL@@QAE@XZ

; 277  : 	bool bFill = atoi(CDataConversion::GetStringData(data, ";")) == 1;

  003ad	68 00 00 00 00	 push	 OFFSET ??_C@_01ICJEACDI@?$DL@
  003b2	8d 4d b0	 lea	 ecx, DWORD PTR $T28[ebp]
  003b5	ff 15 00 00 00
	00		 call	 DWORD PTR __imp_??0?$CStringT@DV?$StrTraitMFC_DLL@DV?$ChTraitsCRT@D@ATL@@@@@ATL@@QAE@PBD@Z
  003bb	6a 01		 push	 1
  003bd	8d 45 b0	 lea	 eax, DWORD PTR $T28[ebp]
  003c0	c6 45 fc 12	 mov	 BYTE PTR __$EHRec$[ebp+8], 18 ; 00000012H
  003c4	50		 push	 eax
  003c5	8d 45 a8	 lea	 eax, DWORD PTR _data$[ebp]
  003c8	50		 push	 eax
  003c9	8d 45 a4	 lea	 eax, DWORD PTR $T12[ebp]
  003cc	50		 push	 eax
  003cd	e8 00 00 00 00	 call	 ?GetStringData@CDataConversion@@SA?AV?$CStringT@DV?$StrTraitMFC_DLL@DV?$ChTraitsCRT@D@ATL@@@@@ATL@@AAV23@ABV23@_N@Z ; CDataConversion::GetStringData
  003d2	ff 30		 push	 DWORD PTR [eax]
  003d4	ff d3		 call	 ebx
  003d6	83 c4 14	 add	 esp, 20			; 00000014H
  003d9	8d 4d a4	 lea	 ecx, DWORD PTR $T12[ebp]
  003dc	83 f8 01	 cmp	 eax, 1
  003df	0f 94 45 a3	 sete	 BYTE PTR _bFill$[ebp]
  003e3	ff 15 00 00 00
	00		 call	 DWORD PTR __imp_??1?$CStringT@DV?$StrTraitMFC_DLL@DV?$ChTraitsCRT@D@ATL@@@@@ATL@@QAE@XZ
  003e9	8d 4d b0	 lea	 ecx, DWORD PTR $T28[ebp]
  003ec	c6 45 fc 0e	 mov	 BYTE PTR __$EHRec$[ebp+8], 14 ; 0000000eH
  003f0	ff 15 00 00 00
	00		 call	 DWORD PTR __imp_??1?$CStringT@DV?$StrTraitMFC_DLL@DV?$ChTraitsCRT@D@ATL@@@@@ATL@@QAE@XZ

; 278  : 	LOGFONT logfont = MakeLOGFONTFromString(CDataConversion::GetStringData(data, ";"));

  003f6	68 00 00 00 00	 push	 OFFSET ??_C@_01ICJEACDI@?$DL@
  003fb	8d 4d b0	 lea	 ecx, DWORD PTR $T27[ebp]
  003fe	ff 15 00 00 00
	00		 call	 DWORD PTR __imp_??0?$CStringT@DV?$StrTraitMFC_DLL@DV?$ChTraitsCRT@D@ATL@@@@@ATL@@QAE@PBD@Z
  00404	6a 01		 push	 1
  00406	8d 45 b0	 lea	 eax, DWORD PTR $T27[ebp]
  00409	c6 45 fc 13	 mov	 BYTE PTR __$EHRec$[ebp+8], 19 ; 00000013H
  0040d	50		 push	 eax
  0040e	8d 45 a8	 lea	 eax, DWORD PTR _data$[ebp]
  00411	50		 push	 eax
  00412	8d 45 a4	 lea	 eax, DWORD PTR $T11[ebp]
  00415	50		 push	 eax
  00416	e8 00 00 00 00	 call	 ?GetStringData@CDataConversion@@SA?AV?$CStringT@DV?$StrTraitMFC_DLL@DV?$ChTraitsCRT@D@ATL@@@@@ATL@@AAV23@ABV23@_N@Z ; CDataConversion::GetStringData
  0041b	83 c4 10	 add	 esp, 16			; 00000010H
  0041e	50		 push	 eax
  0041f	8d 45 b4	 lea	 eax, DWORD PTR _logfont$[ebp]
  00422	c6 45 fc 14	 mov	 BYTE PTR __$EHRec$[ebp+8], 20 ; 00000014H
  00426	50		 push	 eax
  00427	8b cf		 mov	 ecx, edi
  00429	e8 00 00 00 00	 call	 ?MakeLOGFONTFromString@CElementSaverBuilder@@AAE?AUtagLOGFONTA@@ABV?$CStringT@DV?$StrTraitMFC_DLL@DV?$ChTraitsCRT@D@ATL@@@@@ATL@@@Z ; CElementSaverBuilder::MakeLOGFONTFromString
  0042e	8d 4d a4	 lea	 ecx, DWORD PTR $T11[ebp]
  00431	ff 15 00 00 00
	00		 call	 DWORD PTR __imp_??1?$CStringT@DV?$StrTraitMFC_DLL@DV?$ChTraitsCRT@D@ATL@@@@@ATL@@QAE@XZ
  00437	8d 4d b0	 lea	 ecx, DWORD PTR $T27[ebp]
  0043a	c6 45 fc 0e	 mov	 BYTE PTR __$EHRec$[ebp+8], 14 ; 0000000eH
  0043e	ff 15 00 00 00
	00		 call	 DWORD PTR __imp_??1?$CStringT@DV?$StrTraitMFC_DLL@DV?$ChTraitsCRT@D@ATL@@@@@ATL@@QAE@XZ

; 279  : 	//sy 2005.04.06
; 280  : 	COLORREF textColor = CDataConversion::Str2RGB(CDataConversion::GetStringData(data, ";"));

  00444	68 00 00 00 00	 push	 OFFSET ??_C@_01ICJEACDI@?$DL@
  00449	8d 4d b0	 lea	 ecx, DWORD PTR $T26[ebp]
  0044c	ff 15 00 00 00
	00		 call	 DWORD PTR __imp_??0?$CStringT@DV?$StrTraitMFC_DLL@DV?$ChTraitsCRT@D@ATL@@@@@ATL@@QAE@PBD@Z
  00452	6a 01		 push	 1
  00454	8d 45 b0	 lea	 eax, DWORD PTR $T26[ebp]
  00457	c6 45 fc 15	 mov	 BYTE PTR __$EHRec$[ebp+8], 21 ; 00000015H
  0045b	50		 push	 eax
  0045c	8d 45 a8	 lea	 eax, DWORD PTR _data$[ebp]
  0045f	50		 push	 eax
  00460	8d 45 a4	 lea	 eax, DWORD PTR $T10[ebp]
  00463	50		 push	 eax
  00464	e8 00 00 00 00	 call	 ?GetStringData@CDataConversion@@SA?AV?$CStringT@DV?$StrTraitMFC_DLL@DV?$ChTraitsCRT@D@ATL@@@@@ATL@@AAV23@ABV23@_N@Z ; CDataConversion::GetStringData
  00469	50		 push	 eax
  0046a	c6 45 fc 16	 mov	 BYTE PTR __$EHRec$[ebp+8], 22 ; 00000016H
  0046e	e8 00 00 00 00	 call	 ?Str2RGB@CDataConversion@@SAKABV?$CStringT@DV?$StrTraitMFC_DLL@DV?$ChTraitsCRT@D@ATL@@@@@ATL@@@Z ; CDataConversion::Str2RGB
  00473	83 c4 14	 add	 esp, 20			; 00000014H
  00476	89 85 78 ff ff
	ff		 mov	 DWORD PTR _textColor$[ebp], eax
  0047c	8d 4d a4	 lea	 ecx, DWORD PTR $T10[ebp]
  0047f	ff 15 00 00 00
	00		 call	 DWORD PTR __imp_??1?$CStringT@DV?$StrTraitMFC_DLL@DV?$ChTraitsCRT@D@ATL@@@@@ATL@@QAE@XZ
  00485	8d 4d b0	 lea	 ecx, DWORD PTR $T26[ebp]
  00488	c6 45 fc 0e	 mov	 BYTE PTR __$EHRec$[ebp+8], 14 ; 0000000eH
  0048c	ff 15 00 00 00
	00		 call	 DWORD PTR __imp_??1?$CStringT@DV?$StrTraitMFC_DLL@DV?$ChTraitsCRT@D@ATL@@@@@ATL@@QAE@XZ

; 281  : 	bool bDrawFromTop = atoi(CDataConversion::GetStringData(data, ";")) ? true : false;

  00492	68 00 00 00 00	 push	 OFFSET ??_C@_01ICJEACDI@?$DL@
  00497	8d 4d b0	 lea	 ecx, DWORD PTR $T25[ebp]
  0049a	ff 15 00 00 00
	00		 call	 DWORD PTR __imp_??0?$CStringT@DV?$StrTraitMFC_DLL@DV?$ChTraitsCRT@D@ATL@@@@@ATL@@QAE@PBD@Z
  004a0	6a 01		 push	 1
  004a2	8d 45 b0	 lea	 eax, DWORD PTR $T25[ebp]
  004a5	c6 45 fc 17	 mov	 BYTE PTR __$EHRec$[ebp+8], 23 ; 00000017H
  004a9	50		 push	 eax
  004aa	8d 45 a8	 lea	 eax, DWORD PTR _data$[ebp]
  004ad	50		 push	 eax
  004ae	8d 45 a4	 lea	 eax, DWORD PTR $T9[ebp]
  004b1	50		 push	 eax
  004b2	e8 00 00 00 00	 call	 ?GetStringData@CDataConversion@@SA?AV?$CStringT@DV?$StrTraitMFC_DLL@DV?$ChTraitsCRT@D@ATL@@@@@ATL@@AAV23@ABV23@_N@Z ; CDataConversion::GetStringData
  004b7	ff 30		 push	 DWORD PTR [eax]
  004b9	ff d3		 call	 ebx
  004bb	83 c4 14	 add	 esp, 20			; 00000014H
  004be	8d 4d a4	 lea	 ecx, DWORD PTR $T9[ebp]
  004c1	85 c0		 test	 eax, eax
  004c3	0f 95 45 90	 setne	 BYTE PTR _bDrawFromTop$[ebp]
  004c7	ff 15 00 00 00
	00		 call	 DWORD PTR __imp_??1?$CStringT@DV?$StrTraitMFC_DLL@DV?$ChTraitsCRT@D@ATL@@@@@ATL@@QAE@XZ
  004cd	8d 4d b0	 lea	 ecx, DWORD PTR $T25[ebp]
  004d0	c6 45 fc 0e	 mov	 BYTE PTR __$EHRec$[ebp+8], 14 ; 0000000eH
  004d4	ff 15 00 00 00
	00		 call	 DWORD PTR __imp_??1?$CStringT@DV?$StrTraitMFC_DLL@DV?$ChTraitsCRT@D@ATL@@@@@ATL@@QAE@XZ

; 282  : 	// 20081007 JS.Kim	 . 
; 283  : 	int nTimeDiff = atoi(CDataConversion::GetStringData(data, ";"));

  004da	68 00 00 00 00	 push	 OFFSET ??_C@_01ICJEACDI@?$DL@
  004df	8d 4d b0	 lea	 ecx, DWORD PTR $T24[ebp]
  004e2	ff 15 00 00 00
	00		 call	 DWORD PTR __imp_??0?$CStringT@DV?$StrTraitMFC_DLL@DV?$ChTraitsCRT@D@ATL@@@@@ATL@@QAE@PBD@Z
  004e8	6a 01		 push	 1
  004ea	8d 45 b0	 lea	 eax, DWORD PTR $T24[ebp]
  004ed	c6 45 fc 18	 mov	 BYTE PTR __$EHRec$[ebp+8], 24 ; 00000018H
  004f1	50		 push	 eax
  004f2	8d 45 a8	 lea	 eax, DWORD PTR _data$[ebp]
  004f5	50		 push	 eax
  004f6	8d 45 a4	 lea	 eax, DWORD PTR $T8[ebp]
  004f9	50		 push	 eax
  004fa	e8 00 00 00 00	 call	 ?GetStringData@CDataConversion@@SA?AV?$CStringT@DV?$StrTraitMFC_DLL@DV?$ChTraitsCRT@D@ATL@@@@@ATL@@AAV23@ABV23@_N@Z ; CDataConversion::GetStringData
  004ff	ff 30		 push	 DWORD PTR [eax]
  00501	ff d3		 call	 ebx
  00503	83 c4 14	 add	 esp, 20			; 00000014H
  00506	8d 4d a4	 lea	 ecx, DWORD PTR $T8[ebp]
  00509	8b f0		 mov	 esi, eax
  0050b	ff 15 00 00 00
	00		 call	 DWORD PTR __imp_??1?$CStringT@DV?$StrTraitMFC_DLL@DV?$ChTraitsCRT@D@ATL@@@@@ATL@@QAE@XZ
  00511	8d 4d b0	 lea	 ecx, DWORD PTR $T24[ebp]
  00514	c6 45 fc 0e	 mov	 BYTE PTR __$EHRec$[ebp+8], 14 ; 0000000eH
  00518	ff 15 00 00 00
	00		 call	 DWORD PTR __imp_??1?$CStringT@DV?$StrTraitMFC_DLL@DV?$ChTraitsCRT@D@ATL@@@@@ATL@@QAE@XZ

; 284  : 
; 285  : 	if(end_x == -1 && end_y == -1)

  0051e	f2 0f 10 85 64
	ff ff ff	 movsd	 xmm0, QWORD PTR _end_x$[ebp]
  00526	f2 0f 10 0d 00
	00 00 00	 movsd	 xmm1, QWORD PTR __real@bff0000000000000
  0052e	66 0f 2e c1	 ucomisd xmm0, xmm1
  00532	9f		 lahf
  00533	f6 c4 44	 test	 ah, 68			; 00000044H
  00536	7a 72		 jp	 SHORT $LN2@MakeElemen
  00538	f2 0f 10 85 6c
	ff ff ff	 movsd	 xmm0, QWORD PTR _end_y$[ebp]
  00540	66 0f 2e c1	 ucomisd xmm0, xmm1
  00544	9f		 lahf
  00545	f6 c4 44	 test	 ah, 68			; 00000044H
  00548	7a 60		 jp	 SHORT $LN2@MakeElemen

; 289  : 		CDrawingSymbol* pSymbol = CDrawingSymbolFactory::Make(CSymbolBaseData::TOOLTYPE(symboltype), 

  0054a	8b 45 98	 mov	 eax, DWORD PTR _sizetype$1$[ebp]
  0054d	8d 8d 3c ff ff
	ff		 lea	 ecx, DWORD PTR $T4[ebp]
  00553	89 45 98	 mov	 DWORD PTR $T7[ebp], eax
; File C:\Program Files (x86)\Microsoft Visual Studio\2019\Community\VC\Tools\MSVC\14.29.30133\atlmfc\include\atltypes.h

; 312  : 	cx = initCX;

  00556	8b 85 7c ff ff
	ff		 mov	 eax, DWORD PTR _size_cx$1$[ebp]
  0055c	89 45 8c	 mov	 DWORD PTR $T5[ebp], eax

; 313  : 	cy = initCY;

  0055f	8b 45 94	 mov	 eax, DWORD PTR _size_cy$1$[ebp]
  00562	89 45 90	 mov	 DWORD PTR $T5[ebp+4], eax
; File D:\git\src\IBK\IBK_DRFN\ProjSrc\SrcChartEx\ChartAddIn\ChartAnalysisToolAddIn\Symbol\ElementSaverBuilder.cpp

; 289  : 		CDrawingSymbol* pSymbol = CDrawingSymbolFactory::Make(CSymbolBaseData::TOOLTYPE(symboltype), 

  00565	8d 85 78 ff ff
	ff		 lea	 eax, DWORD PTR _textColor$[ebp]
  0056b	50		 push	 eax
  0056c	8d 45 b4	 lea	 eax, DWORD PTR _logfont$[ebp]
  0056f	50		 push	 eax
  00570	8d 45 88	 lea	 eax, DWORD PTR _color$[ebp]
  00573	50		 push	 eax
  00574	8d 45 8c	 lea	 eax, DWORD PTR $T5[ebp]
  00577	50		 push	 eax
  00578	56		 push	 esi
  00579	8d 85 5c ff ff
	ff		 lea	 eax, DWORD PTR _start_y$[ebp]
  0057f	50		 push	 eax
  00580	8d 85 54 ff ff
	ff		 lea	 eax, DWORD PTR _start_x$[ebp]
  00586	50		 push	 eax
  00587	e8 00 00 00 00	 call	 ??0CCoordinate@@QAE@ABN0H@Z ; CCoordinate::CCoordinate
  0058c	50		 push	 eax
  0058d	8d 45 98	 lea	 eax, DWORD PTR $T7[ebp]
  00590	50		 push	 eax
  00591	ff 75 84	 push	 DWORD PTR _symboltype$1$[ebp]
  00594	e8 00 00 00 00	 call	 ?Make@CDrawingSymbolFactory@@SAPAVCDrawingSymbol@@W4TOOLTYPE@CSymbolBaseData@@ABW4SIZETYPE@4@ABVCCoordinate@@ABVCSize@@ABKABUtagLOGFONTA@@4@Z ; CDrawingSymbolFactory::Make
  00599	8b f0		 mov	 esi, eax
  0059b	83 c4 1c	 add	 esp, 28			; 0000001cH

; 290  : 			CSymbolBaseData::SIZETYPE(sizetype), CCoordinate(start_x, start_y, nTimeDiff), 
; 291  : 			CSize(size_cx, size_cy), color, logfont, textColor);
; 292  : 		pSymbol->SetText(strText);

  0059e	8b ce		 mov	 ecx, esi
  005a0	8b 06		 mov	 eax, DWORD PTR [esi]
  005a2	ff 75 80	 push	 DWORD PTR _strText$[ebp]
  005a5	ff 50 38	 call	 DWORD PTR [eax+56]
  005a8	eb 64		 jmp	 SHORT $LN41@MakeElemen
$LN2@MakeElemen:

; 293  : 		return pSymbol;
; 294  : 	}
; 295  : 	else //two_point
; 296  : 	{
; 297  : 		// 20081007 JS.Kim	 .
; 298  : 		return CDrawingSymbolFactory::Make(CSymbolBaseData::TOOLTYPE(symboltype),CCoordinate(start_x, start_y, nTimeDiff),

  005aa	ff 75 90	 push	 DWORD PTR _bDrawFromTop$[ebp]
  005ad	8d 45 b4	 lea	 eax, DWORD PTR _logfont$[ebp]
  005b0	c7 45 94 00 00
	00 00		 mov	 DWORD PTR $T6[ebp], 0
  005b7	50		 push	 eax
  005b8	8d 45 a3	 lea	 eax, DWORD PTR _bFill$[ebp]
  005bb	50		 push	 eax
  005bc	8d 85 74 ff ff
	ff		 lea	 eax, DWORD PTR _weight$[ebp]
  005c2	50		 push	 eax
  005c3	8d 45 94	 lea	 eax, DWORD PTR $T6[ebp]
  005c6	50		 push	 eax
  005c7	8d 45 88	 lea	 eax, DWORD PTR _color$[ebp]
  005ca	50		 push	 eax
  005cb	56		 push	 esi
  005cc	8d 85 6c ff ff
	ff		 lea	 eax, DWORD PTR _end_y$[ebp]
  005d2	50		 push	 eax
  005d3	8d 85 64 ff ff
	ff		 lea	 eax, DWORD PTR _end_x$[ebp]
  005d9	50		 push	 eax
  005da	8d 8d 3c ff ff
	ff		 lea	 ecx, DWORD PTR $T3[ebp]
  005e0	e8 00 00 00 00	 call	 ??0CCoordinate@@QAE@ABN0H@Z ; CCoordinate::CCoordinate
  005e5	50		 push	 eax
  005e6	56		 push	 esi
  005e7	8d 85 5c ff ff
	ff		 lea	 eax, DWORD PTR _start_y$[ebp]
  005ed	50		 push	 eax
  005ee	8d 85 54 ff ff
	ff		 lea	 eax, DWORD PTR _start_x$[ebp]
  005f4	50		 push	 eax
  005f5	8d 8d 24 ff ff
	ff		 lea	 ecx, DWORD PTR $T2[ebp]
  005fb	e8 00 00 00 00	 call	 ??0CCoordinate@@QAE@ABN0H@Z ; CCoordinate::CCoordinate
  00600	50		 push	 eax
  00601	ff 75 84	 push	 DWORD PTR _symboltype$1$[ebp]
  00604	e8 00 00 00 00	 call	 ?Make@CDrawingSymbolFactory@@SAPAVCDrawingSymbol@@W4TOOLTYPE@CSymbolBaseData@@ABVCCoordinate@@1ABKABH3AB_NABUtagLOGFONTA@@_N@Z ; CDrawingSymbolFactory::Make
  00609	83 c4 24	 add	 esp, 36			; 00000024H
  0060c	8b f0		 mov	 esi, eax
$LN41@MakeElemen:
  0060e	8d 4d 80	 lea	 ecx, DWORD PTR _strText$[ebp]
  00611	ff 15 00 00 00
	00		 call	 DWORD PTR __imp_??1?$CStringT@DV?$StrTraitMFC_DLL@DV?$ChTraitsCRT@D@ATL@@@@@ATL@@QAE@XZ
  00617	8d 4d 9c	 lea	 ecx, DWORD PTR _strX$[ebp]
  0061a	ff 15 00 00 00
	00		 call	 DWORD PTR __imp_??1?$CStringT@DV?$StrTraitMFC_DLL@DV?$ChTraitsCRT@D@ATL@@@@@ATL@@QAE@XZ
  00620	8d 4d a8	 lea	 ecx, DWORD PTR _data$[ebp]
  00623	ff 15 00 00 00
	00		 call	 DWORD PTR __imp_??1?$CStringT@DV?$StrTraitMFC_DLL@DV?$ChTraitsCRT@D@ATL@@@@@ATL@@QAE@XZ
  00629	8b c6		 mov	 eax, esi

; 299  : 										   CCoordinate(end_x, end_y, nTimeDiff), color,PS_SOLID,weight,bFill, logfont, bDrawFromTop);
; 300  : 	}
; 301  : }

  0062b	8b 4d f4	 mov	 ecx, DWORD PTR __$EHRec$[ebp]
  0062e	64 89 0d 00 00
	00 00		 mov	 DWORD PTR fs:0, ecx
  00635	59		 pop	 ecx
  00636	5f		 pop	 edi
  00637	5e		 pop	 esi
  00638	5b		 pop	 ebx
  00639	8b 4d f0	 mov	 ecx, DWORD PTR __$ArrayPad$[ebp]
  0063c	33 cd		 xor	 ecx, ebp
  0063e	e8 00 00 00 00	 call	 @__security_check_cookie@4
  00643	8b e5		 mov	 esp, ebp
  00645	5d		 pop	 ebp
  00646	c2 08 00	 ret	 8
_TEXT	ENDS
;	COMDAT text$x
text$x	SEGMENT
__unwindfunclet$?MakeElement@CElementSaverBuilder@@AAEPAVCDrawingSymbol@@W4HORZSCALEDRAWERTYPE@CScaleBaseData@@ABV?$CStringT@DV?$StrTraitMFC_DLL@DV?$ChTraitsCRT@D@ATL@@@@@ATL@@@Z$0:
  00000	8d 4d a8	 lea	 ecx, DWORD PTR _data$[ebp]
  00003	ff 25 00 00 00
	00		 jmp	 DWORD PTR __imp_??1?$CStringT@DV?$StrTraitMFC_DLL@DV?$ChTraitsCRT@D@ATL@@@@@ATL@@QAE@XZ
__unwindfunclet$?MakeElement@CElementSaverBuilder@@AAEPAVCDrawingSymbol@@W4HORZSCALEDRAWERTYPE@CScaleBaseData@@ABV?$CStringT@DV?$StrTraitMFC_DLL@DV?$ChTraitsCRT@D@ATL@@@@@ATL@@@Z$1:
  00009	8d 4d ac	 lea	 ecx, DWORD PTR $T23[ebp]
  0000c	ff 25 00 00 00
	00		 jmp	 DWORD PTR __imp_??1?$CStringT@DV?$StrTraitMFC_DLL@DV?$ChTraitsCRT@D@ATL@@@@@ATL@@QAE@XZ
__unwindfunclet$?MakeElement@CElementSaverBuilder@@AAEPAVCDrawingSymbol@@W4HORZSCALEDRAWERTYPE@CScaleBaseData@@ABV?$CStringT@DV?$StrTraitMFC_DLL@DV?$ChTraitsCRT@D@ATL@@@@@ATL@@@Z$3:
  00012	8d 4d ac	 lea	 ecx, DWORD PTR $T22[ebp]
  00015	ff 25 00 00 00
	00		 jmp	 DWORD PTR __imp_??1?$CStringT@DV?$StrTraitMFC_DLL@DV?$ChTraitsCRT@D@ATL@@@@@ATL@@QAE@XZ
__unwindfunclet$?MakeElement@CElementSaverBuilder@@AAEPAVCDrawingSymbol@@W4HORZSCALEDRAWERTYPE@CScaleBaseData@@ABV?$CStringT@DV?$StrTraitMFC_DLL@DV?$ChTraitsCRT@D@ATL@@@@@ATL@@@Z$5:
  0001b	8d 4d 9c	 lea	 ecx, DWORD PTR _strX$[ebp]
  0001e	ff 25 00 00 00
	00		 jmp	 DWORD PTR __imp_??1?$CStringT@DV?$StrTraitMFC_DLL@DV?$ChTraitsCRT@D@ATL@@@@@ATL@@QAE@XZ
__unwindfunclet$?MakeElement@CElementSaverBuilder@@AAEPAVCDrawingSymbol@@W4HORZSCALEDRAWERTYPE@CScaleBaseData@@ABV?$CStringT@DV?$StrTraitMFC_DLL@DV?$ChTraitsCRT@D@ATL@@@@@ATL@@@Z$6:
  00024	8d 4d ac	 lea	 ecx, DWORD PTR $T21[ebp]
  00027	ff 25 00 00 00
	00		 jmp	 DWORD PTR __imp_??1?$CStringT@DV?$StrTraitMFC_DLL@DV?$ChTraitsCRT@D@ATL@@@@@ATL@@QAE@XZ
__unwindfunclet$?MakeElement@CElementSaverBuilder@@AAEPAVCDrawingSymbol@@W4HORZSCALEDRAWERTYPE@CScaleBaseData@@ABV?$CStringT@DV?$StrTraitMFC_DLL@DV?$ChTraitsCRT@D@ATL@@@@@ATL@@@Z$7:
  0002d	8d 4d b0	 lea	 ecx, DWORD PTR $T36[ebp]
  00030	ff 25 00 00 00
	00		 jmp	 DWORD PTR __imp_??1?$CStringT@DV?$StrTraitMFC_DLL@DV?$ChTraitsCRT@D@ATL@@@@@ATL@@QAE@XZ
__unwindfunclet$?MakeElement@CElementSaverBuilder@@AAEPAVCDrawingSymbol@@W4HORZSCALEDRAWERTYPE@CScaleBaseData@@ABV?$CStringT@DV?$StrTraitMFC_DLL@DV?$ChTraitsCRT@D@ATL@@@@@ATL@@@Z$9:
  00036	8d 4d ac	 lea	 ecx, DWORD PTR $T20[ebp]
  00039	ff 25 00 00 00
	00		 jmp	 DWORD PTR __imp_??1?$CStringT@DV?$StrTraitMFC_DLL@DV?$ChTraitsCRT@D@ATL@@@@@ATL@@QAE@XZ
__unwindfunclet$?MakeElement@CElementSaverBuilder@@AAEPAVCDrawingSymbol@@W4HORZSCALEDRAWERTYPE@CScaleBaseData@@ABV?$CStringT@DV?$StrTraitMFC_DLL@DV?$ChTraitsCRT@D@ATL@@@@@ATL@@@Z$11:
  0003f	8d 4d ac	 lea	 ecx, DWORD PTR $T19[ebp]
  00042	ff 25 00 00 00
	00		 jmp	 DWORD PTR __imp_??1?$CStringT@DV?$StrTraitMFC_DLL@DV?$ChTraitsCRT@D@ATL@@@@@ATL@@QAE@XZ
__unwindfunclet$?MakeElement@CElementSaverBuilder@@AAEPAVCDrawingSymbol@@W4HORZSCALEDRAWERTYPE@CScaleBaseData@@ABV?$CStringT@DV?$StrTraitMFC_DLL@DV?$ChTraitsCRT@D@ATL@@@@@ATL@@@Z$12:
  00048	8d 4d b0	 lea	 ecx, DWORD PTR $T34[ebp]
  0004b	ff 25 00 00 00
	00		 jmp	 DWORD PTR __imp_??1?$CStringT@DV?$StrTraitMFC_DLL@DV?$ChTraitsCRT@D@ATL@@@@@ATL@@QAE@XZ
__unwindfunclet$?MakeElement@CElementSaverBuilder@@AAEPAVCDrawingSymbol@@W4HORZSCALEDRAWERTYPE@CScaleBaseData@@ABV?$CStringT@DV?$StrTraitMFC_DLL@DV?$ChTraitsCRT@D@ATL@@@@@ATL@@@Z$14:
  00051	8d 4d ac	 lea	 ecx, DWORD PTR $T18[ebp]
  00054	ff 25 00 00 00
	00		 jmp	 DWORD PTR __imp_??1?$CStringT@DV?$StrTraitMFC_DLL@DV?$ChTraitsCRT@D@ATL@@@@@ATL@@QAE@XZ
__unwindfunclet$?MakeElement@CElementSaverBuilder@@AAEPAVCDrawingSymbol@@W4HORZSCALEDRAWERTYPE@CScaleBaseData@@ABV?$CStringT@DV?$StrTraitMFC_DLL@DV?$ChTraitsCRT@D@ATL@@@@@ATL@@@Z$16:
  0005a	8d 4d ac	 lea	 ecx, DWORD PTR $T17[ebp]
  0005d	ff 25 00 00 00
	00		 jmp	 DWORD PTR __imp_??1?$CStringT@DV?$StrTraitMFC_DLL@DV?$ChTraitsCRT@D@ATL@@@@@ATL@@QAE@XZ
__unwindfunclet$?MakeElement@CElementSaverBuilder@@AAEPAVCDrawingSymbol@@W4HORZSCALEDRAWERTYPE@CScaleBaseData@@ABV?$CStringT@DV?$StrTraitMFC_DLL@DV?$ChTraitsCRT@D@ATL@@@@@ATL@@@Z$18:
  00063	8d 4d ac	 lea	 ecx, DWORD PTR $T16[ebp]
  00066	ff 25 00 00 00
	00		 jmp	 DWORD PTR __imp_??1?$CStringT@DV?$StrTraitMFC_DLL@DV?$ChTraitsCRT@D@ATL@@@@@ATL@@QAE@XZ
__unwindfunclet$?MakeElement@CElementSaverBuilder@@AAEPAVCDrawingSymbol@@W4HORZSCALEDRAWERTYPE@CScaleBaseData@@ABV?$CStringT@DV?$StrTraitMFC_DLL@DV?$ChTraitsCRT@D@ATL@@@@@ATL@@@Z$20:
  0006c	8d 4d ac	 lea	 ecx, DWORD PTR $T15[ebp]
  0006f	ff 25 00 00 00
	00		 jmp	 DWORD PTR __imp_??1?$CStringT@DV?$StrTraitMFC_DLL@DV?$ChTraitsCRT@D@ATL@@@@@ATL@@QAE@XZ
__unwindfunclet$?MakeElement@CElementSaverBuilder@@AAEPAVCDrawingSymbol@@W4HORZSCALEDRAWERTYPE@CScaleBaseData@@ABV?$CStringT@DV?$StrTraitMFC_DLL@DV?$ChTraitsCRT@D@ATL@@@@@ATL@@@Z$21:
  00075	8d 4d 80	 lea	 ecx, DWORD PTR _strText$[ebp]
  00078	ff 25 00 00 00
	00		 jmp	 DWORD PTR __imp_??1?$CStringT@DV?$StrTraitMFC_DLL@DV?$ChTraitsCRT@D@ATL@@@@@ATL@@QAE@XZ
__unwindfunclet$?MakeElement@CElementSaverBuilder@@AAEPAVCDrawingSymbol@@W4HORZSCALEDRAWERTYPE@CScaleBaseData@@ABV?$CStringT@DV?$StrTraitMFC_DLL@DV?$ChTraitsCRT@D@ATL@@@@@ATL@@@Z$22:
  0007e	8d 4d b0	 lea	 ecx, DWORD PTR $T30[ebp]
  00081	ff 25 00 00 00
	00		 jmp	 DWORD PTR __imp_??1?$CStringT@DV?$StrTraitMFC_DLL@DV?$ChTraitsCRT@D@ATL@@@@@ATL@@QAE@XZ
__unwindfunclet$?MakeElement@CElementSaverBuilder@@AAEPAVCDrawingSymbol@@W4HORZSCALEDRAWERTYPE@CScaleBaseData@@ABV?$CStringT@DV?$StrTraitMFC_DLL@DV?$ChTraitsCRT@D@ATL@@@@@ATL@@@Z$23:
  00087	8d 4d a4	 lea	 ecx, DWORD PTR $T14[ebp]
  0008a	ff 25 00 00 00
	00		 jmp	 DWORD PTR __imp_??1?$CStringT@DV?$StrTraitMFC_DLL@DV?$ChTraitsCRT@D@ATL@@@@@ATL@@QAE@XZ
__unwindfunclet$?MakeElement@CElementSaverBuilder@@AAEPAVCDrawingSymbol@@W4HORZSCALEDRAWERTYPE@CScaleBaseData@@ABV?$CStringT@DV?$StrTraitMFC_DLL@DV?$ChTraitsCRT@D@ATL@@@@@ATL@@@Z$24:
  00090	8d 4d b0	 lea	 ecx, DWORD PTR $T29[ebp]
  00093	ff 25 00 00 00
	00		 jmp	 DWORD PTR __imp_??1?$CStringT@DV?$StrTraitMFC_DLL@DV?$ChTraitsCRT@D@ATL@@@@@ATL@@QAE@XZ
__unwindfunclet$?MakeElement@CElementSaverBuilder@@AAEPAVCDrawingSymbol@@W4HORZSCALEDRAWERTYPE@CScaleBaseData@@ABV?$CStringT@DV?$StrTraitMFC_DLL@DV?$ChTraitsCRT@D@ATL@@@@@ATL@@@Z$26:
  00099	8d 4d b0	 lea	 ecx, DWORD PTR $T28[ebp]
  0009c	ff 25 00 00 00
	00		 jmp	 DWORD PTR __imp_??1?$CStringT@DV?$StrTraitMFC_DLL@DV?$ChTraitsCRT@D@ATL@@@@@ATL@@QAE@XZ
__unwindfunclet$?MakeElement@CElementSaverBuilder@@AAEPAVCDrawingSymbol@@W4HORZSCALEDRAWERTYPE@CScaleBaseData@@ABV?$CStringT@DV?$StrTraitMFC_DLL@DV?$ChTraitsCRT@D@ATL@@@@@ATL@@@Z$28:
  000a2	8d 4d b0	 lea	 ecx, DWORD PTR $T27[ebp]
  000a5	ff 25 00 00 00
	00		 jmp	 DWORD PTR __imp_??1?$CStringT@DV?$StrTraitMFC_DLL@DV?$ChTraitsCRT@D@ATL@@@@@ATL@@QAE@XZ
__unwindfunclet$?MakeElement@CElementSaverBuilder@@AAEPAVCDrawingSymbol@@W4HORZSCALEDRAWERTYPE@CScaleBaseData@@ABV?$CStringT@DV?$StrTraitMFC_DLL@DV?$ChTraitsCRT@D@ATL@@@@@ATL@@@Z$29:
  000ab	8d 4d a4	 lea	 ecx, DWORD PTR $T11[ebp]
  000ae	ff 25 00 00 00
	00		 jmp	 DWORD PTR __imp_??1?$CStringT@DV?$StrTraitMFC_DLL@DV?$ChTraitsCRT@D@ATL@@@@@ATL@@QAE@XZ
__unwindfunclet$?MakeElement@CElementSaverBuilder@@AAEPAVCDrawingSymbol@@W4HORZSCALEDRAWERTYPE@CScaleBaseData@@ABV?$CStringT@DV?$StrTraitMFC_DLL@DV?$ChTraitsCRT@D@ATL@@@@@ATL@@@Z$30:
  000b4	8d 4d b0	 lea	 ecx, DWORD PTR $T26[ebp]
  000b7	ff 25 00 00 00
	00		 jmp	 DWORD PTR __imp_??1?$CStringT@DV?$StrTraitMFC_DLL@DV?$ChTraitsCRT@D@ATL@@@@@ATL@@QAE@XZ
__unwindfunclet$?MakeElement@CElementSaverBuilder@@AAEPAVCDrawingSymbol@@W4HORZSCALEDRAWERTYPE@CScaleBaseData@@ABV?$CStringT@DV?$StrTraitMFC_DLL@DV?$ChTraitsCRT@D@ATL@@@@@ATL@@@Z$31:
  000bd	8d 4d a4	 lea	 ecx, DWORD PTR $T10[ebp]
  000c0	ff 25 00 00 00
	00		 jmp	 DWORD PTR __imp_??1?$CStringT@DV?$StrTraitMFC_DLL@DV?$ChTraitsCRT@D@ATL@@@@@ATL@@QAE@XZ
__unwindfunclet$?MakeElement@CElementSaverBuilder@@AAEPAVCDrawingSymbol@@W4HORZSCALEDRAWERTYPE@CScaleBaseData@@ABV?$CStringT@DV?$StrTraitMFC_DLL@DV?$ChTraitsCRT@D@ATL@@@@@ATL@@@Z$32:
  000c6	8d 4d b0	 lea	 ecx, DWORD PTR $T25[ebp]
  000c9	ff 25 00 00 00
	00		 jmp	 DWORD PTR __imp_??1?$CStringT@DV?$StrTraitMFC_DLL@DV?$ChTraitsCRT@D@ATL@@@@@ATL@@QAE@XZ
__unwindfunclet$?MakeElement@CElementSaverBuilder@@AAEPAVCDrawingSymbol@@W4HORZSCALEDRAWERTYPE@CScaleBaseData@@ABV?$CStringT@DV?$StrTraitMFC_DLL@DV?$ChTraitsCRT@D@ATL@@@@@ATL@@@Z$34:
  000cf	8d 4d b0	 lea	 ecx, DWORD PTR $T24[ebp]
  000d2	ff 25 00 00 00
	00		 jmp	 DWORD PTR __imp_??1?$CStringT@DV?$StrTraitMFC_DLL@DV?$ChTraitsCRT@D@ATL@@@@@ATL@@QAE@XZ
  000d8	cc		 int	 3
  000d9	cc		 int	 3
  000da	cc		 int	 3
  000db	cc		 int	 3
  000dc	cc		 int	 3
__ehhandler$?MakeElement@CElementSaverBuilder@@AAEPAVCDrawingSymbol@@W4HORZSCALEDRAWERTYPE@CScaleBaseData@@ABV?$CStringT@DV?$StrTraitMFC_DLL@DV?$ChTraitsCRT@D@ATL@@@@@ATL@@@Z:
  000dd	90		 npad	 1
  000de	90		 npad	 1
  000df	8b 54 24 08	 mov	 edx, DWORD PTR [esp+8]
  000e3	8d 42 0c	 lea	 eax, DWORD PTR [edx+12]
  000e6	8b 8a 20 ff ff
	ff		 mov	 ecx, DWORD PTR [edx-224]
  000ec	33 c8		 xor	 ecx, eax
  000ee	e8 00 00 00 00	 call	 @__security_check_cookie@4
  000f3	8b 4a fc	 mov	 ecx, DWORD PTR [edx-4]
  000f6	33 c8		 xor	 ecx, eax
  000f8	e8 00 00 00 00	 call	 @__security_check_cookie@4
  000fd	b8 00 00 00 00	 mov	 eax, OFFSET __ehfuncinfo$?MakeElement@CElementSaverBuilder@@AAEPAVCDrawingSymbol@@W4HORZSCALEDRAWERTYPE@CScaleBaseData@@ABV?$CStringT@DV?$StrTraitMFC_DLL@DV?$ChTraitsCRT@D@ATL@@@@@ATL@@@Z
  00102	e9 00 00 00 00	 jmp	 ___CxxFrameHandler3
text$x	ENDS
?MakeElement@CElementSaverBuilder@@AAEPAVCDrawingSymbol@@W4HORZSCALEDRAWERTYPE@CScaleBaseData@@ABV?$CStringT@DV?$StrTraitMFC_DLL@DV?$ChTraitsCRT@D@ATL@@@@@ATL@@@Z ENDP ; CElementSaverBuilder::MakeElement
; Function compile flags: /Ogtp
; File D:\git\src\IBK\IBK_DRFN\ProjSrc\SrcChartEx\ChartAddIn\ChartAnalysisToolAddIn\Symbol\ElementSaverBuilder.cpp
;	COMDAT ?BuildSymbolsFromString_Symbol@CElementSaverBuilder@@AAEXW4HORZSCALEDRAWERTYPE@CScaleBaseData@@ABV?$CStringT@DV?$StrTraitMFC_DLL@DV?$ChTraitsCRT@D@ATL@@@@@ATL@@HHAAVCTree@@AAVCOrderSet@@@Z
_TEXT	SEGMENT
$T2 = -20						; size = 4
$T3 = -16						; size = 4
__$EHRec$ = -12						; size = 12
_eScaleType$ = 8					; size = 4
_symboldata$ = 12					; size = 4
_data$ = 12						; size = 4
_nColumn$ = 16						; size = 4
_nRow$ = 20						; size = 4
_tree$ = 24						; size = 4
_orderset$ = 28						; size = 4
?BuildSymbolsFromString_Symbol@CElementSaverBuilder@@AAEXW4HORZSCALEDRAWERTYPE@CScaleBaseData@@ABV?$CStringT@DV?$StrTraitMFC_DLL@DV?$ChTraitsCRT@D@ATL@@@@@ATL@@HHAAVCTree@@AAVCOrderSet@@@Z PROC ; CElementSaverBuilder::BuildSymbolsFromString_Symbol, COMDAT
; _this$ = ecx

; 229  : {

  00000	55		 push	 ebp
  00001	8b ec		 mov	 ebp, esp
  00003	6a ff		 push	 -1
  00005	68 00 00 00 00	 push	 __ehhandler$?BuildSymbolsFromString_Symbol@CElementSaverBuilder@@AAEXW4HORZSCALEDRAWERTYPE@CScaleBaseData@@ABV?$CStringT@DV?$StrTraitMFC_DLL@DV?$ChTraitsCRT@D@ATL@@@@@ATL@@HHAAVCTree@@AAVCOrderSet@@@Z
  0000a	64 a1 00 00 00
	00		 mov	 eax, DWORD PTR fs:0
  00010	50		 push	 eax
  00011	83 ec 08	 sub	 esp, 8
  00014	56		 push	 esi
  00015	57		 push	 edi
  00016	a1 00 00 00 00	 mov	 eax, DWORD PTR ___security_cookie
  0001b	33 c5		 xor	 eax, ebp
  0001d	50		 push	 eax
  0001e	8d 45 f4	 lea	 eax, DWORD PTR __$EHRec$[ebp]
  00021	64 a3 00 00 00
	00		 mov	 DWORD PTR fs:0, eax
  00027	8b f1		 mov	 esi, ecx

; 230  : 	CString symboldata = data;

  00029	ff 75 0c	 push	 DWORD PTR _data$[ebp]
  0002c	8d 4d 0c	 lea	 ecx, DWORD PTR _symboldata$[ebp]
  0002f	ff 15 00 00 00
	00		 call	 DWORD PTR __imp_??0?$CStringT@DV?$StrTraitMFC_DLL@DV?$ChTraitsCRT@D@ATL@@@@@ATL@@QAE@ABV01@@Z

; 231  : 	int nIndex = atoi(CDataConversion::GetStringData(symboldata, "IndexEnd;\r\n"));

  00035	68 00 00 00 00	 push	 OFFSET ??_C@_0M@HGNACAL@IndexEnd?$DL?$AN?6@
  0003a	8d 4d f0	 lea	 ecx, DWORD PTR $T3[ebp]
  0003d	c7 45 fc 00 00
	00 00		 mov	 DWORD PTR __$EHRec$[ebp+8], 0
  00044	ff 15 00 00 00
	00		 call	 DWORD PTR __imp_??0?$CStringT@DV?$StrTraitMFC_DLL@DV?$ChTraitsCRT@D@ATL@@@@@ATL@@QAE@PBD@Z
  0004a	6a 01		 push	 1
  0004c	8d 45 f0	 lea	 eax, DWORD PTR $T3[ebp]
  0004f	c6 45 fc 01	 mov	 BYTE PTR __$EHRec$[ebp+8], 1
  00053	50		 push	 eax
  00054	8d 45 0c	 lea	 eax, DWORD PTR _symboldata$[ebp]
  00057	50		 push	 eax
  00058	8d 45 ec	 lea	 eax, DWORD PTR $T2[ebp]
  0005b	50		 push	 eax
  0005c	e8 00 00 00 00	 call	 ?GetStringData@CDataConversion@@SA?AV?$CStringT@DV?$StrTraitMFC_DLL@DV?$ChTraitsCRT@D@ATL@@@@@ATL@@AAV23@ABV23@_N@Z ; CDataConversion::GetStringData
  00061	ff 30		 push	 DWORD PTR [eax]
  00063	ff 15 00 00 00
	00		 call	 DWORD PTR __imp__atoi
  00069	83 c4 14	 add	 esp, 20			; 00000014H
  0006c	8d 4d ec	 lea	 ecx, DWORD PTR $T2[ebp]
  0006f	8b f8		 mov	 edi, eax
  00071	ff 15 00 00 00
	00		 call	 DWORD PTR __imp_??1?$CStringT@DV?$StrTraitMFC_DLL@DV?$ChTraitsCRT@D@ATL@@@@@ATL@@QAE@XZ
  00077	8d 4d f0	 lea	 ecx, DWORD PTR $T3[ebp]
  0007a	c6 45 fc 00	 mov	 BYTE PTR __$EHRec$[ebp+8], 0
  0007e	ff 15 00 00 00
	00		 call	 DWORD PTR __imp_??1?$CStringT@DV?$StrTraitMFC_DLL@DV?$ChTraitsCRT@D@ATL@@@@@ATL@@QAE@XZ

; 232  : 
; 233  : 	// 2011.02.07 by SYS >>  YYYY()  : / 14Byte  (YYYYMMDDhhmmss)
; 234  : 	//CDrawingSymbol* pSymbol = MakeElement(symboldata);
; 235  : 	CDrawingSymbol* pSymbol = MakeElement(eScaleType, symboldata);

  00084	8d 45 0c	 lea	 eax, DWORD PTR _symboldata$[ebp]
  00087	8b ce		 mov	 ecx, esi
  00089	50		 push	 eax
  0008a	ff 75 08	 push	 DWORD PTR _eScaleType$[ebp]
  0008d	e8 00 00 00 00	 call	 ?MakeElement@CElementSaverBuilder@@AAEPAVCDrawingSymbol@@W4HORZSCALEDRAWERTYPE@CScaleBaseData@@ABV?$CStringT@DV?$StrTraitMFC_DLL@DV?$ChTraitsCRT@D@ATL@@@@@ATL@@@Z ; CElementSaverBuilder::MakeElement

; 236  : 	// 2011.02.07 by SYS <<
; 237  : 
; 238  : 	orderset.Add(nIndex, pSymbol);

  00092	8b 4d 1c	 mov	 ecx, DWORD PTR _orderset$[ebp]
  00095	8b f0		 mov	 esi, eax
  00097	56		 push	 esi
  00098	57		 push	 edi
  00099	e8 00 00 00 00	 call	 ?Add@COrderSet@@QAEXHPAVCDrawingSymbol@@@Z ; COrderSet::Add

; 239  : 	tree.Add(nColumn, nRow, pSymbol);

  0009e	8b 4d 18	 mov	 ecx, DWORD PTR _tree$[ebp]
  000a1	56		 push	 esi
  000a2	ff 75 14	 push	 DWORD PTR _nRow$[ebp]
  000a5	ff 75 10	 push	 DWORD PTR _nColumn$[ebp]
  000a8	e8 00 00 00 00	 call	 ?Add@CTree@@QAEXHHPAVCDrawingSymbol@@@Z ; CTree::Add

; 240  : }

  000ad	8d 4d 0c	 lea	 ecx, DWORD PTR _symboldata$[ebp]
  000b0	ff 15 00 00 00
	00		 call	 DWORD PTR __imp_??1?$CStringT@DV?$StrTraitMFC_DLL@DV?$ChTraitsCRT@D@ATL@@@@@ATL@@QAE@XZ
  000b6	8b 4d f4	 mov	 ecx, DWORD PTR __$EHRec$[ebp]
  000b9	64 89 0d 00 00
	00 00		 mov	 DWORD PTR fs:0, ecx
  000c0	59		 pop	 ecx
  000c1	5f		 pop	 edi
  000c2	5e		 pop	 esi
  000c3	8b e5		 mov	 esp, ebp
  000c5	5d		 pop	 ebp
  000c6	c2 18 00	 ret	 24			; 00000018H
_TEXT	ENDS
;	COMDAT text$x
text$x	SEGMENT
__unwindfunclet$?BuildSymbolsFromString_Symbol@CElementSaverBuilder@@AAEXW4HORZSCALEDRAWERTYPE@CScaleBaseData@@ABV?$CStringT@DV?$StrTraitMFC_DLL@DV?$ChTraitsCRT@D@ATL@@@@@ATL@@HHAAVCTree@@AAVCOrderSet@@@Z$0:
  00000	8d 4d 0c	 lea	 ecx, DWORD PTR _symboldata$[ebp]
  00003	ff 25 00 00 00
	00		 jmp	 DWORD PTR __imp_??1?$CStringT@DV?$StrTraitMFC_DLL@DV?$ChTraitsCRT@D@ATL@@@@@ATL@@QAE@XZ
__unwindfunclet$?BuildSymbolsFromString_Symbol@CElementSaverBuilder@@AAEXW4HORZSCALEDRAWERTYPE@CScaleBaseData@@ABV?$CStringT@DV?$StrTraitMFC_DLL@DV?$ChTraitsCRT@D@ATL@@@@@ATL@@HHAAVCTree@@AAVCOrderSet@@@Z$1:
  00009	8d 4d f0	 lea	 ecx, DWORD PTR $T3[ebp]
  0000c	ff 25 00 00 00
	00		 jmp	 DWORD PTR __imp_??1?$CStringT@DV?$StrTraitMFC_DLL@DV?$ChTraitsCRT@D@ATL@@@@@ATL@@QAE@XZ
  00012	cc		 int	 3
  00013	cc		 int	 3
  00014	cc		 int	 3
  00015	cc		 int	 3
  00016	cc		 int	 3
__ehhandler$?BuildSymbolsFromString_Symbol@CElementSaverBuilder@@AAEXW4HORZSCALEDRAWERTYPE@CScaleBaseData@@ABV?$CStringT@DV?$StrTraitMFC_DLL@DV?$ChTraitsCRT@D@ATL@@@@@ATL@@HHAAVCTree@@AAVCOrderSet@@@Z:
  00017	90		 npad	 1
  00018	90		 npad	 1
  00019	8b 54 24 08	 mov	 edx, DWORD PTR [esp+8]
  0001d	8d 42 0c	 lea	 eax, DWORD PTR [edx+12]
  00020	8b 4a ec	 mov	 ecx, DWORD PTR [edx-20]
  00023	33 c8		 xor	 ecx, eax
  00025	e8 00 00 00 00	 call	 @__security_check_cookie@4
  0002a	b8 00 00 00 00	 mov	 eax, OFFSET __ehfuncinfo$?BuildSymbolsFromString_Symbol@CElementSaverBuilder@@AAEXW4HORZSCALEDRAWERTYPE@CScaleBaseData@@ABV?$CStringT@DV?$StrTraitMFC_DLL@DV?$ChTraitsCRT@D@ATL@@@@@ATL@@HHAAVCTree@@AAVCOrderSet@@@Z
  0002f	e9 00 00 00 00	 jmp	 ___CxxFrameHandler3
text$x	ENDS
?BuildSymbolsFromString_Symbol@CElementSaverBuilder@@AAEXW4HORZSCALEDRAWERTYPE@CScaleBaseData@@ABV?$CStringT@DV?$StrTraitMFC_DLL@DV?$ChTraitsCRT@D@ATL@@@@@ATL@@HHAAVCTree@@AAVCOrderSet@@@Z ENDP ; CElementSaverBuilder::BuildSymbolsFromString_Symbol
; Function compile flags: /Ogtp
; File D:\git\src\IBK\IBK_DRFN\ProjSrc\SrcChartEx\ChartAddIn\ChartAnalysisToolAddIn\Symbol\ElementSaverBuilder.cpp
;	COMDAT ?BuildSymbolsFromString_Column@CElementSaverBuilder@@AAEXW4HORZSCALEDRAWERTYPE@CScaleBaseData@@ABV?$CStringT@DV?$StrTraitMFC_DLL@DV?$ChTraitsCRT@D@ATL@@@@@ATL@@HAAVCTree@@AAVCOrderSet@@@Z
_TEXT	SEGMENT
$T2 = -60						; size = 4
_nCount$1$ = -56					; size = 4
$T3 = -52						; size = 4
_this$1$ = -48						; size = 4
$T4 = -44						; size = 4
$T5 = -40						; size = 4
_nCount$1$ = -36					; size = 4
$T6 = -32						; size = 4
$T7 = -28						; size = 4
$T8 = -24						; size = 4
_columndata$ = -20					; size = 4
_rowdata$9 = -16					; size = 4
__$EHRec$ = -12						; size = 12
_eScaleType$ = 8					; size = 4
_symboldata$10 = 12					; size = 4
$T11 = 12						; size = 4
_data$ = 12						; size = 4
_nColumn$ = 16						; size = 4
_tree$ = 20						; size = 4
_orderset$ = 24						; size = 4
?BuildSymbolsFromString_Column@CElementSaverBuilder@@AAEXW4HORZSCALEDRAWERTYPE@CScaleBaseData@@ABV?$CStringT@DV?$StrTraitMFC_DLL@DV?$ChTraitsCRT@D@ATL@@@@@ATL@@HAAVCTree@@AAVCOrderSet@@@Z PROC ; CElementSaverBuilder::BuildSymbolsFromString_Column, COMDAT
; _this$ = ecx

; 193  : {

  00000	55		 push	 ebp
  00001	8b ec		 mov	 ebp, esp
  00003	6a ff		 push	 -1
  00005	68 00 00 00 00	 push	 __ehhandler$?BuildSymbolsFromString_Column@CElementSaverBuilder@@AAEXW4HORZSCALEDRAWERTYPE@CScaleBaseData@@ABV?$CStringT@DV?$StrTraitMFC_DLL@DV?$ChTraitsCRT@D@ATL@@@@@ATL@@HAAVCTree@@AAVCOrderSet@@@Z
  0000a	64 a1 00 00 00
	00		 mov	 eax, DWORD PTR fs:0
  00010	50		 push	 eax
  00011	83 ec 30	 sub	 esp, 48			; 00000030H
  00014	53		 push	 ebx
  00015	56		 push	 esi
  00016	57		 push	 edi
  00017	a1 00 00 00 00	 mov	 eax, DWORD PTR ___security_cookie
  0001c	33 c5		 xor	 eax, ebp
  0001e	50		 push	 eax
  0001f	8d 45 f4	 lea	 eax, DWORD PTR __$EHRec$[ebp]
  00022	64 a3 00 00 00
	00		 mov	 DWORD PTR fs:0, eax
  00028	89 4d d0	 mov	 DWORD PTR _this$1$[ebp], ecx

; 194  : 	CString columndata = data;

  0002b	ff 75 0c	 push	 DWORD PTR _data$[ebp]
  0002e	8d 4d ec	 lea	 ecx, DWORD PTR _columndata$[ebp]
  00031	ff 15 00 00 00
	00		 call	 DWORD PTR __imp_??0?$CStringT@DV?$StrTraitMFC_DLL@DV?$ChTraitsCRT@D@ATL@@@@@ATL@@QAE@ABV01@@Z

; 195  : 	int nCount = CDataConversion::GetStringDataCount(columndata, "BlockEnd;\r\n");

  00037	68 00 00 00 00	 push	 OFFSET ??_C@_0M@FHFNKLHB@BlockEnd?$DL?$AN?6@
  0003c	8d 4d 0c	 lea	 ecx, DWORD PTR $T11[ebp]
  0003f	c7 45 fc 00 00
	00 00		 mov	 DWORD PTR __$EHRec$[ebp+8], 0
  00046	ff 15 00 00 00
	00		 call	 DWORD PTR __imp_??0?$CStringT@DV?$StrTraitMFC_DLL@DV?$ChTraitsCRT@D@ATL@@@@@ATL@@QAE@PBD@Z
  0004c	8d 45 0c	 lea	 eax, DWORD PTR $T11[ebp]
  0004f	c6 45 fc 01	 mov	 BYTE PTR __$EHRec$[ebp+8], 1
  00053	50		 push	 eax
  00054	8d 45 ec	 lea	 eax, DWORD PTR _columndata$[ebp]
  00057	50		 push	 eax
  00058	e8 00 00 00 00	 call	 ?GetStringDataCount@CDataConversion@@SAHABV?$CStringT@DV?$StrTraitMFC_DLL@DV?$ChTraitsCRT@D@ATL@@@@@ATL@@0@Z ; CDataConversion::GetStringDataCount
  0005d	83 c4 08	 add	 esp, 8
  00060	c6 45 fc 00	 mov	 BYTE PTR __$EHRec$[ebp+8], 0
  00064	8b d8		 mov	 ebx, eax
  00066	8d 4d 0c	 lea	 ecx, DWORD PTR $T11[ebp]
  00069	89 5d c8	 mov	 DWORD PTR _nCount$1$[ebp], ebx
  0006c	ff 15 00 00 00
	00		 call	 DWORD PTR __imp_??1?$CStringT@DV?$StrTraitMFC_DLL@DV?$ChTraitsCRT@D@ATL@@@@@ATL@@QAE@XZ

; 196  : 	for(int nRow = 0; nRow < nCount ; nRow++)

  00072	33 f6		 xor	 esi, esi
  00074	85 db		 test	 ebx, ebx
  00076	0f 8e 82 01 00
	00		 jle	 $LN3@BuildSymbo
  0007c	0f 1f 40 00	 npad	 4
$LL4@BuildSymbo:

; 197  : 	{
; 198  : 		// 2011.02.07 by SYS >>  YYYY()  : / 14Byte  (YYYYMMDDhhmmss)
; 199  : 		//BuildSymbolsFromString_Row(CDataConversion::GetStringData(columndata, "BlockEnd;\r\n"),
; 200  : 		//	nColumn, nRow, tree, orderset);
; 201  : 		BuildSymbolsFromString_Row(eScaleType, CDataConversion::GetStringData(columndata, "BlockEnd;\r\n"),

  00080	68 00 00 00 00	 push	 OFFSET ??_C@_0M@FHFNKLHB@BlockEnd?$DL?$AN?6@
  00085	8d 4d d8	 lea	 ecx, DWORD PTR $T5[ebp]
  00088	ff 15 00 00 00
	00		 call	 DWORD PTR __imp_??0?$CStringT@DV?$StrTraitMFC_DLL@DV?$ChTraitsCRT@D@ATL@@@@@ATL@@QAE@PBD@Z
  0008e	6a 01		 push	 1
  00090	8d 45 d8	 lea	 eax, DWORD PTR $T5[ebp]
  00093	c6 45 fc 02	 mov	 BYTE PTR __$EHRec$[ebp+8], 2
  00097	50		 push	 eax
  00098	8d 45 ec	 lea	 eax, DWORD PTR _columndata$[ebp]
  0009b	50		 push	 eax
  0009c	8d 45 c4	 lea	 eax, DWORD PTR $T2[ebp]
  0009f	50		 push	 eax
  000a0	e8 00 00 00 00	 call	 ?GetStringData@CDataConversion@@SA?AV?$CStringT@DV?$StrTraitMFC_DLL@DV?$ChTraitsCRT@D@ATL@@@@@ATL@@AAV23@ABV23@_N@Z ; CDataConversion::GetStringData
  000a5	83 c4 10	 add	 esp, 16			; 00000010H

; 212  : 	CString rowdata = data;

  000a8	50		 push	 eax
  000a9	8d 4d f0	 lea	 ecx, DWORD PTR _rowdata$9[ebp]

; 197  : 	{
; 198  : 		// 2011.02.07 by SYS >>  YYYY()  : / 14Byte  (YYYYMMDDhhmmss)
; 199  : 		//BuildSymbolsFromString_Row(CDataConversion::GetStringData(columndata, "BlockEnd;\r\n"),
; 200  : 		//	nColumn, nRow, tree, orderset);
; 201  : 		BuildSymbolsFromString_Row(eScaleType, CDataConversion::GetStringData(columndata, "BlockEnd;\r\n"),

  000ac	c6 45 fc 03	 mov	 BYTE PTR __$EHRec$[ebp+8], 3

; 212  : 	CString rowdata = data;

  000b0	ff 15 00 00 00
	00		 call	 DWORD PTR __imp_??0?$CStringT@DV?$StrTraitMFC_DLL@DV?$ChTraitsCRT@D@ATL@@@@@ATL@@QAE@ABV01@@Z

; 213  : 	int nCount = CDataConversion::GetStringDataCount(rowdata, "SymbolEnd;\r\n");

  000b6	68 00 00 00 00	 push	 OFFSET ??_C@_0N@CKIGEMFE@SymbolEnd?$DL?$AN?6@
  000bb	8d 4d e8	 lea	 ecx, DWORD PTR $T8[ebp]
  000be	c6 45 fc 04	 mov	 BYTE PTR __$EHRec$[ebp+8], 4
  000c2	ff 15 00 00 00
	00		 call	 DWORD PTR __imp_??0?$CStringT@DV?$StrTraitMFC_DLL@DV?$ChTraitsCRT@D@ATL@@@@@ATL@@QAE@PBD@Z
  000c8	8d 45 e8	 lea	 eax, DWORD PTR $T8[ebp]
  000cb	c6 45 fc 05	 mov	 BYTE PTR __$EHRec$[ebp+8], 5
  000cf	50		 push	 eax
  000d0	8d 45 f0	 lea	 eax, DWORD PTR _rowdata$9[ebp]
  000d3	50		 push	 eax
  000d4	e8 00 00 00 00	 call	 ?GetStringDataCount@CDataConversion@@SAHABV?$CStringT@DV?$StrTraitMFC_DLL@DV?$ChTraitsCRT@D@ATL@@@@@ATL@@0@Z ; CDataConversion::GetStringDataCount
  000d9	83 c4 08	 add	 esp, 8
  000dc	c6 45 fc 04	 mov	 BYTE PTR __$EHRec$[ebp+8], 4
  000e0	8b f8		 mov	 edi, eax
  000e2	8d 4d e8	 lea	 ecx, DWORD PTR $T8[ebp]
  000e5	89 7d dc	 mov	 DWORD PTR _nCount$1$[ebp], edi
  000e8	ff 15 00 00 00
	00		 call	 DWORD PTR __imp_??1?$CStringT@DV?$StrTraitMFC_DLL@DV?$ChTraitsCRT@D@ATL@@@@@ATL@@QAE@XZ

; 214  : 	for(int nIndex = 0 ; nIndex< nCount; nIndex++) 

  000ee	85 ff		 test	 edi, edi
  000f0	0f 8e e0 00 00
	00		 jle	 $LN12@BuildSymbo
  000f6	66 66 0f 1f 84
	00 00 00 00 00	 npad	 10
$LL13@BuildSymbo:

; 215  : 	{
; 216  : 		// 2011.02.07 by SYS >>  YYYY()  : / 14Byte  (YYYYMMDDhhmmss)
; 217  : 		//BuildSymbolsFromString_Symbol(CDataConversion::GetStringData(rowdata, "SymbolEnd;\r\n"),
; 218  : 		//	nColumn, nRow, tree, orderset);
; 219  : 		BuildSymbolsFromString_Symbol(eScaleType, CDataConversion::GetStringData(rowdata, "SymbolEnd;\r\n"),

  00100	68 00 00 00 00	 push	 OFFSET ??_C@_0N@CKIGEMFE@SymbolEnd?$DL?$AN?6@
  00105	8d 4d e0	 lea	 ecx, DWORD PTR $T6[ebp]
  00108	ff 15 00 00 00
	00		 call	 DWORD PTR __imp_??0?$CStringT@DV?$StrTraitMFC_DLL@DV?$ChTraitsCRT@D@ATL@@@@@ATL@@QAE@PBD@Z
  0010e	6a 01		 push	 1
  00110	8d 45 e0	 lea	 eax, DWORD PTR $T6[ebp]
  00113	c6 45 fc 06	 mov	 BYTE PTR __$EHRec$[ebp+8], 6
  00117	50		 push	 eax
  00118	8d 45 f0	 lea	 eax, DWORD PTR _rowdata$9[ebp]
  0011b	50		 push	 eax
  0011c	8d 45 cc	 lea	 eax, DWORD PTR $T3[ebp]
  0011f	50		 push	 eax
  00120	e8 00 00 00 00	 call	 ?GetStringData@CDataConversion@@SA?AV?$CStringT@DV?$StrTraitMFC_DLL@DV?$ChTraitsCRT@D@ATL@@@@@ATL@@AAV23@ABV23@_N@Z ; CDataConversion::GetStringData
  00125	83 c4 10	 add	 esp, 16			; 00000010H

; 230  : 	CString symboldata = data;

  00128	50		 push	 eax
  00129	8d 4d 0c	 lea	 ecx, DWORD PTR _symboldata$10[ebp]

; 219  : 		BuildSymbolsFromString_Symbol(eScaleType, CDataConversion::GetStringData(rowdata, "SymbolEnd;\r\n"),

  0012c	c6 45 fc 07	 mov	 BYTE PTR __$EHRec$[ebp+8], 7

; 230  : 	CString symboldata = data;

  00130	ff 15 00 00 00
	00		 call	 DWORD PTR __imp_??0?$CStringT@DV?$StrTraitMFC_DLL@DV?$ChTraitsCRT@D@ATL@@@@@ATL@@QAE@ABV01@@Z

; 231  : 	int nIndex = atoi(CDataConversion::GetStringData(symboldata, "IndexEnd;\r\n"));

  00136	68 00 00 00 00	 push	 OFFSET ??_C@_0M@HGNACAL@IndexEnd?$DL?$AN?6@
  0013b	8d 4d e4	 lea	 ecx, DWORD PTR $T7[ebp]
  0013e	c6 45 fc 08	 mov	 BYTE PTR __$EHRec$[ebp+8], 8
  00142	ff 15 00 00 00
	00		 call	 DWORD PTR __imp_??0?$CStringT@DV?$StrTraitMFC_DLL@DV?$ChTraitsCRT@D@ATL@@@@@ATL@@QAE@PBD@Z
  00148	6a 01		 push	 1
  0014a	8d 45 e4	 lea	 eax, DWORD PTR $T7[ebp]
  0014d	c6 45 fc 09	 mov	 BYTE PTR __$EHRec$[ebp+8], 9
  00151	50		 push	 eax
  00152	8d 45 0c	 lea	 eax, DWORD PTR _symboldata$10[ebp]
  00155	50		 push	 eax
  00156	8d 45 d4	 lea	 eax, DWORD PTR $T4[ebp]
  00159	50		 push	 eax
  0015a	e8 00 00 00 00	 call	 ?GetStringData@CDataConversion@@SA?AV?$CStringT@DV?$StrTraitMFC_DLL@DV?$ChTraitsCRT@D@ATL@@@@@ATL@@AAV23@ABV23@_N@Z ; CDataConversion::GetStringData
  0015f	ff 30		 push	 DWORD PTR [eax]
  00161	ff 15 00 00 00
	00		 call	 DWORD PTR __imp__atoi
  00167	83 c4 14	 add	 esp, 20			; 00000014H
  0016a	8d 4d d4	 lea	 ecx, DWORD PTR $T4[ebp]
  0016d	8b d8		 mov	 ebx, eax
  0016f	ff 15 00 00 00
	00		 call	 DWORD PTR __imp_??1?$CStringT@DV?$StrTraitMFC_DLL@DV?$ChTraitsCRT@D@ATL@@@@@ATL@@QAE@XZ
  00175	8d 4d e4	 lea	 ecx, DWORD PTR $T7[ebp]
  00178	c6 45 fc 08	 mov	 BYTE PTR __$EHRec$[ebp+8], 8
  0017c	ff 15 00 00 00
	00		 call	 DWORD PTR __imp_??1?$CStringT@DV?$StrTraitMFC_DLL@DV?$ChTraitsCRT@D@ATL@@@@@ATL@@QAE@XZ

; 232  : 
; 233  : 	// 2011.02.07 by SYS >>  YYYY()  : / 14Byte  (YYYYMMDDhhmmss)
; 234  : 	//CDrawingSymbol* pSymbol = MakeElement(symboldata);
; 235  : 	CDrawingSymbol* pSymbol = MakeElement(eScaleType, symboldata);

  00182	8b 4d d0	 mov	 ecx, DWORD PTR _this$1$[ebp]
  00185	8d 45 0c	 lea	 eax, DWORD PTR _symboldata$10[ebp]
  00188	50		 push	 eax
  00189	ff 75 08	 push	 DWORD PTR _eScaleType$[ebp]
  0018c	e8 00 00 00 00	 call	 ?MakeElement@CElementSaverBuilder@@AAEPAVCDrawingSymbol@@W4HORZSCALEDRAWERTYPE@CScaleBaseData@@ABV?$CStringT@DV?$StrTraitMFC_DLL@DV?$ChTraitsCRT@D@ATL@@@@@ATL@@@Z ; CElementSaverBuilder::MakeElement

; 236  : 	// 2011.02.07 by SYS <<
; 237  : 
; 238  : 	orderset.Add(nIndex, pSymbol);

  00191	8b 4d 18	 mov	 ecx, DWORD PTR _orderset$[ebp]
  00194	8b f8		 mov	 edi, eax
  00196	57		 push	 edi
  00197	53		 push	 ebx
  00198	e8 00 00 00 00	 call	 ?Add@COrderSet@@QAEXHPAVCDrawingSymbol@@@Z ; COrderSet::Add

; 239  : 	tree.Add(nColumn, nRow, pSymbol);

  0019d	8b 4d 14	 mov	 ecx, DWORD PTR _tree$[ebp]
  001a0	57		 push	 edi
  001a1	56		 push	 esi
  001a2	ff 75 10	 push	 DWORD PTR _nColumn$[ebp]
  001a5	e8 00 00 00 00	 call	 ?Add@CTree@@QAEXHHPAVCDrawingSymbol@@@Z ; CTree::Add

; 240  : }

  001aa	8d 4d 0c	 lea	 ecx, DWORD PTR _symboldata$10[ebp]
  001ad	ff 15 00 00 00
	00		 call	 DWORD PTR __imp_??1?$CStringT@DV?$StrTraitMFC_DLL@DV?$ChTraitsCRT@D@ATL@@@@@ATL@@QAE@XZ

; 219  : 		BuildSymbolsFromString_Symbol(eScaleType, CDataConversion::GetStringData(rowdata, "SymbolEnd;\r\n"),

  001b3	8d 4d cc	 lea	 ecx, DWORD PTR $T3[ebp]
  001b6	ff 15 00 00 00
	00		 call	 DWORD PTR __imp_??1?$CStringT@DV?$StrTraitMFC_DLL@DV?$ChTraitsCRT@D@ATL@@@@@ATL@@QAE@XZ
  001bc	8d 4d e0	 lea	 ecx, DWORD PTR $T6[ebp]
  001bf	c6 45 fc 04	 mov	 BYTE PTR __$EHRec$[ebp+8], 4
  001c3	ff 15 00 00 00
	00		 call	 DWORD PTR __imp_??1?$CStringT@DV?$StrTraitMFC_DLL@DV?$ChTraitsCRT@D@ATL@@@@@ATL@@QAE@XZ
  001c9	83 6d dc 01	 sub	 DWORD PTR _nCount$1$[ebp], 1
  001cd	0f 85 2d ff ff
	ff		 jne	 $LL13@BuildSymbo
  001d3	8b 5d c8	 mov	 ebx, DWORD PTR _nCount$1$[ebp]
$LN12@BuildSymbo:

; 220  : 			nColumn, nRow, tree, orderset);
; 221  : 		// 2011.02.07 by SYS <<
; 222  : 	}
; 223  : }

  001d6	8d 4d f0	 lea	 ecx, DWORD PTR _rowdata$9[ebp]
  001d9	ff 15 00 00 00
	00		 call	 DWORD PTR __imp_??1?$CStringT@DV?$StrTraitMFC_DLL@DV?$ChTraitsCRT@D@ATL@@@@@ATL@@QAE@XZ

; 197  : 	{
; 198  : 		// 2011.02.07 by SYS >>  YYYY()  : / 14Byte  (YYYYMMDDhhmmss)
; 199  : 		//BuildSymbolsFromString_Row(CDataConversion::GetStringData(columndata, "BlockEnd;\r\n"),
; 200  : 		//	nColumn, nRow, tree, orderset);
; 201  : 		BuildSymbolsFromString_Row(eScaleType, CDataConversion::GetStringData(columndata, "BlockEnd;\r\n"),

  001df	8d 4d c4	 lea	 ecx, DWORD PTR $T2[ebp]
  001e2	ff 15 00 00 00
	00		 call	 DWORD PTR __imp_??1?$CStringT@DV?$StrTraitMFC_DLL@DV?$ChTraitsCRT@D@ATL@@@@@ATL@@QAE@XZ
  001e8	8d 4d d8	 lea	 ecx, DWORD PTR $T5[ebp]
  001eb	c6 45 fc 00	 mov	 BYTE PTR __$EHRec$[ebp+8], 0
  001ef	ff 15 00 00 00
	00		 call	 DWORD PTR __imp_??1?$CStringT@DV?$StrTraitMFC_DLL@DV?$ChTraitsCRT@D@ATL@@@@@ATL@@QAE@XZ
  001f5	46		 inc	 esi
  001f6	3b f3		 cmp	 esi, ebx
  001f8	0f 8c 82 fe ff
	ff		 jl	 $LL4@BuildSymbo
$LN3@BuildSymbo:

; 202  : 			nColumn, nRow, tree, orderset);
; 203  : 		// 2011.02.07 by SYS <<
; 204  : 	}
; 205  : }

  001fe	8d 4d ec	 lea	 ecx, DWORD PTR _columndata$[ebp]
  00201	ff 15 00 00 00
	00		 call	 DWORD PTR __imp_??1?$CStringT@DV?$StrTraitMFC_DLL@DV?$ChTraitsCRT@D@ATL@@@@@ATL@@QAE@XZ
  00207	8b 4d f4	 mov	 ecx, DWORD PTR __$EHRec$[ebp]
  0020a	64 89 0d 00 00
	00 00		 mov	 DWORD PTR fs:0, ecx
  00211	59		 pop	 ecx
  00212	5f		 pop	 edi
  00213	5e		 pop	 esi
  00214	5b		 pop	 ebx
  00215	8b e5		 mov	 esp, ebp
  00217	5d		 pop	 ebp
  00218	c2 14 00	 ret	 20			; 00000014H
_TEXT	ENDS
;	COMDAT text$x
text$x	SEGMENT
__unwindfunclet$?BuildSymbolsFromString_Column@CElementSaverBuilder@@AAEXW4HORZSCALEDRAWERTYPE@CScaleBaseData@@ABV?$CStringT@DV?$StrTraitMFC_DLL@DV?$ChTraitsCRT@D@ATL@@@@@ATL@@HAAVCTree@@AAVCOrderSet@@@Z$0:
  00000	8d 4d ec	 lea	 ecx, DWORD PTR _columndata$[ebp]
  00003	ff 25 00 00 00
	00		 jmp	 DWORD PTR __imp_??1?$CStringT@DV?$StrTraitMFC_DLL@DV?$ChTraitsCRT@D@ATL@@@@@ATL@@QAE@XZ
__unwindfunclet$?BuildSymbolsFromString_Column@CElementSaverBuilder@@AAEXW4HORZSCALEDRAWERTYPE@CScaleBaseData@@ABV?$CStringT@DV?$StrTraitMFC_DLL@DV?$ChTraitsCRT@D@ATL@@@@@ATL@@HAAVCTree@@AAVCOrderSet@@@Z$1:
  00009	8d 4d 0c	 lea	 ecx, DWORD PTR $T11[ebp]
  0000c	ff 25 00 00 00
	00		 jmp	 DWORD PTR __imp_??1?$CStringT@DV?$StrTraitMFC_DLL@DV?$ChTraitsCRT@D@ATL@@@@@ATL@@QAE@XZ
__unwindfunclet$?BuildSymbolsFromString_Column@CElementSaverBuilder@@AAEXW4HORZSCALEDRAWERTYPE@CScaleBaseData@@ABV?$CStringT@DV?$StrTraitMFC_DLL@DV?$ChTraitsCRT@D@ATL@@@@@ATL@@HAAVCTree@@AAVCOrderSet@@@Z$2:
  00012	8d 4d d8	 lea	 ecx, DWORD PTR $T5[ebp]
  00015	ff 25 00 00 00
	00		 jmp	 DWORD PTR __imp_??1?$CStringT@DV?$StrTraitMFC_DLL@DV?$ChTraitsCRT@D@ATL@@@@@ATL@@QAE@XZ
__unwindfunclet$?BuildSymbolsFromString_Column@CElementSaverBuilder@@AAEXW4HORZSCALEDRAWERTYPE@CScaleBaseData@@ABV?$CStringT@DV?$StrTraitMFC_DLL@DV?$ChTraitsCRT@D@ATL@@@@@ATL@@HAAVCTree@@AAVCOrderSet@@@Z$3:
  0001b	8d 4d c4	 lea	 ecx, DWORD PTR $T2[ebp]
  0001e	ff 25 00 00 00
	00		 jmp	 DWORD PTR __imp_??1?$CStringT@DV?$StrTraitMFC_DLL@DV?$ChTraitsCRT@D@ATL@@@@@ATL@@QAE@XZ
__unwindfunclet$?BuildSymbolsFromString_Column@CElementSaverBuilder@@AAEXW4HORZSCALEDRAWERTYPE@CScaleBaseData@@ABV?$CStringT@DV?$StrTraitMFC_DLL@DV?$ChTraitsCRT@D@ATL@@@@@ATL@@HAAVCTree@@AAVCOrderSet@@@Z$4:
  00024	8d 4d f0	 lea	 ecx, DWORD PTR _rowdata$9[ebp]
  00027	ff 25 00 00 00
	00		 jmp	 DWORD PTR __imp_??1?$CStringT@DV?$StrTraitMFC_DLL@DV?$ChTraitsCRT@D@ATL@@@@@ATL@@QAE@XZ
__unwindfunclet$?BuildSymbolsFromString_Column@CElementSaverBuilder@@AAEXW4HORZSCALEDRAWERTYPE@CScaleBaseData@@ABV?$CStringT@DV?$StrTraitMFC_DLL@DV?$ChTraitsCRT@D@ATL@@@@@ATL@@HAAVCTree@@AAVCOrderSet@@@Z$5:
  0002d	8d 4d e8	 lea	 ecx, DWORD PTR $T8[ebp]
  00030	ff 25 00 00 00
	00		 jmp	 DWORD PTR __imp_??1?$CStringT@DV?$StrTraitMFC_DLL@DV?$ChTraitsCRT@D@ATL@@@@@ATL@@QAE@XZ
__unwindfunclet$?BuildSymbolsFromString_Column@CElementSaverBuilder@@AAEXW4HORZSCALEDRAWERTYPE@CScaleBaseData@@ABV?$CStringT@DV?$StrTraitMFC_DLL@DV?$ChTraitsCRT@D@ATL@@@@@ATL@@HAAVCTree@@AAVCOrderSet@@@Z$6:
  00036	8d 4d e0	 lea	 ecx, DWORD PTR $T6[ebp]
  00039	ff 25 00 00 00
	00		 jmp	 DWORD PTR __imp_??1?$CStringT@DV?$StrTraitMFC_DLL@DV?$ChTraitsCRT@D@ATL@@@@@ATL@@QAE@XZ
__unwindfunclet$?BuildSymbolsFromString_Column@CElementSaverBuilder@@AAEXW4HORZSCALEDRAWERTYPE@CScaleBaseData@@ABV?$CStringT@DV?$StrTraitMFC_DLL@DV?$ChTraitsCRT@D@ATL@@@@@ATL@@HAAVCTree@@AAVCOrderSet@@@Z$7:
  0003f	8d 4d cc	 lea	 ecx, DWORD PTR $T3[ebp]
  00042	ff 25 00 00 00
	00		 jmp	 DWORD PTR __imp_??1?$CStringT@DV?$StrTraitMFC_DLL@DV?$ChTraitsCRT@D@ATL@@@@@ATL@@QAE@XZ
__unwindfunclet$?BuildSymbolsFromString_Column@CElementSaverBuilder@@AAEXW4HORZSCALEDRAWERTYPE@CScaleBaseData@@ABV?$CStringT@DV?$StrTraitMFC_DLL@DV?$ChTraitsCRT@D@ATL@@@@@ATL@@HAAVCTree@@AAVCOrderSet@@@Z$8:
  00048	8d 4d 0c	 lea	 ecx, DWORD PTR _symboldata$10[ebp]
  0004b	ff 25 00 00 00
	00		 jmp	 DWORD PTR __imp_??1?$CStringT@DV?$StrTraitMFC_DLL@DV?$ChTraitsCRT@D@ATL@@@@@ATL@@QAE@XZ
__unwindfunclet$?BuildSymbolsFromString_Column@CElementSaverBuilder@@AAEXW4HORZSCALEDRAWERTYPE@CScaleBaseData@@ABV?$CStringT@DV?$StrTraitMFC_DLL@DV?$ChTraitsCRT@D@ATL@@@@@ATL@@HAAVCTree@@AAVCOrderSet@@@Z$9:
  00051	8d 4d e4	 lea	 ecx, DWORD PTR $T7[ebp]
  00054	ff 25 00 00 00
	00		 jmp	 DWORD PTR __imp_??1?$CStringT@DV?$StrTraitMFC_DLL@DV?$ChTraitsCRT@D@ATL@@@@@ATL@@QAE@XZ
  0005a	cc		 int	 3
  0005b	cc		 int	 3
  0005c	cc		 int	 3
  0005d	cc		 int	 3
  0005e	cc		 int	 3
__ehhandler$?BuildSymbolsFromString_Column@CElementSaverBuilder@@AAEXW4HORZSCALEDRAWERTYPE@CScaleBaseData@@ABV?$CStringT@DV?$StrTraitMFC_DLL@DV?$ChTraitsCRT@D@ATL@@@@@ATL@@HAAVCTree@@AAVCOrderSet@@@Z:
  0005f	90		 npad	 1
  00060	90		 npad	 1
  00061	8b 54 24 08	 mov	 edx, DWORD PTR [esp+8]
  00065	8d 42 0c	 lea	 eax, DWORD PTR [edx+12]
  00068	8b 4a c0	 mov	 ecx, DWORD PTR [edx-64]
  0006b	33 c8		 xor	 ecx, eax
  0006d	e8 00 00 00 00	 call	 @__security_check_cookie@4
  00072	b8 00 00 00 00	 mov	 eax, OFFSET __ehfuncinfo$?BuildSymbolsFromString_Column@CElementSaverBuilder@@AAEXW4HORZSCALEDRAWERTYPE@CScaleBaseData@@ABV?$CStringT@DV?$StrTraitMFC_DLL@DV?$ChTraitsCRT@D@ATL@@@@@ATL@@HAAVCTree@@AAVCOrderSet@@@Z
  00077	e9 00 00 00 00	 jmp	 ___CxxFrameHandler3
text$x	ENDS
?BuildSymbolsFromString_Column@CElementSaverBuilder@@AAEXW4HORZSCALEDRAWERTYPE@CScaleBaseData@@ABV?$CStringT@DV?$StrTraitMFC_DLL@DV?$ChTraitsCRT@D@ATL@@@@@ATL@@HAAVCTree@@AAVCOrderSet@@@Z ENDP ; CElementSaverBuilder::BuildSymbolsFromString_Column
; Function compile flags: /Ogtp
; File D:\git\src\IBK\IBK_DRFN\ProjSrc\SrcChartEx\ChartAddIn\ChartAnalysisToolAddIn\Symbol\ElementSaverBuilder.cpp
;	COMDAT ?BuildSymbolsFromString_Row@CElementSaverBuilder@@AAEXW4HORZSCALEDRAWERTYPE@CScaleBaseData@@ABV?$CStringT@DV?$StrTraitMFC_DLL@DV?$ChTraitsCRT@D@ATL@@@@@ATL@@HHAAVCTree@@AAVCOrderSet@@@Z
_TEXT	SEGMENT
_this$1$ = -36						; size = 4
$T2 = -32						; size = 4
$T3 = -28						; size = 4
$T4 = -24						; size = 4
$T5 = -20						; size = 4
_rowdata$ = -16						; size = 4
__$EHRec$ = -12						; size = 12
_eScaleType$ = 8					; size = 4
_symboldata$6 = 12					; size = 4
$T7 = 12						; size = 4
_data$ = 12						; size = 4
_nColumn$ = 16						; size = 4
_nRow$ = 20						; size = 4
_tree$ = 24						; size = 4
_orderset$ = 28						; size = 4
?BuildSymbolsFromString_Row@CElementSaverBuilder@@AAEXW4HORZSCALEDRAWERTYPE@CScaleBaseData@@ABV?$CStringT@DV?$StrTraitMFC_DLL@DV?$ChTraitsCRT@D@ATL@@@@@ATL@@HHAAVCTree@@AAVCOrderSet@@@Z PROC ; CElementSaverBuilder::BuildSymbolsFromString_Row, COMDAT
; _this$ = ecx

; 211  : {

  00000	55		 push	 ebp
  00001	8b ec		 mov	 ebp, esp
  00003	6a ff		 push	 -1
  00005	68 00 00 00 00	 push	 __ehhandler$?BuildSymbolsFromString_Row@CElementSaverBuilder@@AAEXW4HORZSCALEDRAWERTYPE@CScaleBaseData@@ABV?$CStringT@DV?$StrTraitMFC_DLL@DV?$ChTraitsCRT@D@ATL@@@@@ATL@@HHAAVCTree@@AAVCOrderSet@@@Z
  0000a	64 a1 00 00 00
	00		 mov	 eax, DWORD PTR fs:0
  00010	50		 push	 eax
  00011	83 ec 18	 sub	 esp, 24			; 00000018H
  00014	53		 push	 ebx
  00015	56		 push	 esi
  00016	57		 push	 edi
  00017	a1 00 00 00 00	 mov	 eax, DWORD PTR ___security_cookie
  0001c	33 c5		 xor	 eax, ebp
  0001e	50		 push	 eax
  0001f	8d 45 f4	 lea	 eax, DWORD PTR __$EHRec$[ebp]
  00022	64 a3 00 00 00
	00		 mov	 DWORD PTR fs:0, eax
  00028	8b f1		 mov	 esi, ecx
  0002a	89 75 dc	 mov	 DWORD PTR _this$1$[ebp], esi

; 212  : 	CString rowdata = data;

  0002d	ff 75 0c	 push	 DWORD PTR _data$[ebp]
  00030	8d 4d f0	 lea	 ecx, DWORD PTR _rowdata$[ebp]
  00033	ff 15 00 00 00
	00		 call	 DWORD PTR __imp_??0?$CStringT@DV?$StrTraitMFC_DLL@DV?$ChTraitsCRT@D@ATL@@@@@ATL@@QAE@ABV01@@Z

; 213  : 	int nCount = CDataConversion::GetStringDataCount(rowdata, "SymbolEnd;\r\n");

  00039	68 00 00 00 00	 push	 OFFSET ??_C@_0N@CKIGEMFE@SymbolEnd?$DL?$AN?6@
  0003e	8d 4d 0c	 lea	 ecx, DWORD PTR $T7[ebp]
  00041	c7 45 fc 00 00
	00 00		 mov	 DWORD PTR __$EHRec$[ebp+8], 0
  00048	ff 15 00 00 00
	00		 call	 DWORD PTR __imp_??0?$CStringT@DV?$StrTraitMFC_DLL@DV?$ChTraitsCRT@D@ATL@@@@@ATL@@QAE@PBD@Z
  0004e	8d 45 0c	 lea	 eax, DWORD PTR $T7[ebp]
  00051	c6 45 fc 01	 mov	 BYTE PTR __$EHRec$[ebp+8], 1
  00055	50		 push	 eax
  00056	8d 45 f0	 lea	 eax, DWORD PTR _rowdata$[ebp]
  00059	50		 push	 eax
  0005a	e8 00 00 00 00	 call	 ?GetStringDataCount@CDataConversion@@SAHABV?$CStringT@DV?$StrTraitMFC_DLL@DV?$ChTraitsCRT@D@ATL@@@@@ATL@@0@Z ; CDataConversion::GetStringDataCount
  0005f	83 c4 08	 add	 esp, 8
  00062	c6 45 fc 00	 mov	 BYTE PTR __$EHRec$[ebp+8], 0
  00066	8d 4d 0c	 lea	 ecx, DWORD PTR $T7[ebp]
  00069	8b d8		 mov	 ebx, eax
  0006b	ff 15 00 00 00
	00		 call	 DWORD PTR __imp_??1?$CStringT@DV?$StrTraitMFC_DLL@DV?$ChTraitsCRT@D@ATL@@@@@ATL@@QAE@XZ

; 214  : 	for(int nIndex = 0 ; nIndex< nCount; nIndex++) 

  00071	85 db		 test	 ebx, ebx
  00073	0f 8e dd 00 00
	00		 jle	 $LN3@BuildSymbo
  00079	0f 1f 80 00 00
	00 00		 npad	 7
$LL4@BuildSymbo:

; 215  : 	{
; 216  : 		// 2011.02.07 by SYS >>  YYYY()  : / 14Byte  (YYYYMMDDhhmmss)
; 217  : 		//BuildSymbolsFromString_Symbol(CDataConversion::GetStringData(rowdata, "SymbolEnd;\r\n"),
; 218  : 		//	nColumn, nRow, tree, orderset);
; 219  : 		BuildSymbolsFromString_Symbol(eScaleType, CDataConversion::GetStringData(rowdata, "SymbolEnd;\r\n"),

  00080	68 00 00 00 00	 push	 OFFSET ??_C@_0N@CKIGEMFE@SymbolEnd?$DL?$AN?6@
  00085	8d 4d e8	 lea	 ecx, DWORD PTR $T4[ebp]
  00088	ff 15 00 00 00
	00		 call	 DWORD PTR __imp_??0?$CStringT@DV?$StrTraitMFC_DLL@DV?$ChTraitsCRT@D@ATL@@@@@ATL@@QAE@PBD@Z
  0008e	6a 01		 push	 1
  00090	8d 45 e8	 lea	 eax, DWORD PTR $T4[ebp]
  00093	c6 45 fc 02	 mov	 BYTE PTR __$EHRec$[ebp+8], 2
  00097	50		 push	 eax
  00098	8d 45 f0	 lea	 eax, DWORD PTR _rowdata$[ebp]
  0009b	50		 push	 eax
  0009c	8d 45 e0	 lea	 eax, DWORD PTR $T2[ebp]
  0009f	50		 push	 eax
  000a0	e8 00 00 00 00	 call	 ?GetStringData@CDataConversion@@SA?AV?$CStringT@DV?$StrTraitMFC_DLL@DV?$ChTraitsCRT@D@ATL@@@@@ATL@@AAV23@ABV23@_N@Z ; CDataConversion::GetStringData
  000a5	83 c4 10	 add	 esp, 16			; 00000010H

; 230  : 	CString symboldata = data;

  000a8	50		 push	 eax
  000a9	8d 4d 0c	 lea	 ecx, DWORD PTR _symboldata$6[ebp]

; 215  : 	{
; 216  : 		// 2011.02.07 by SYS >>  YYYY()  : / 14Byte  (YYYYMMDDhhmmss)
; 217  : 		//BuildSymbolsFromString_Symbol(CDataConversion::GetStringData(rowdata, "SymbolEnd;\r\n"),
; 218  : 		//	nColumn, nRow, tree, orderset);
; 219  : 		BuildSymbolsFromString_Symbol(eScaleType, CDataConversion::GetStringData(rowdata, "SymbolEnd;\r\n"),

  000ac	c6 45 fc 03	 mov	 BYTE PTR __$EHRec$[ebp+8], 3

; 230  : 	CString symboldata = data;

  000b0	ff 15 00 00 00
	00		 call	 DWORD PTR __imp_??0?$CStringT@DV?$StrTraitMFC_DLL@DV?$ChTraitsCRT@D@ATL@@@@@ATL@@QAE@ABV01@@Z

; 231  : 	int nIndex = atoi(CDataConversion::GetStringData(symboldata, "IndexEnd;\r\n"));

  000b6	68 00 00 00 00	 push	 OFFSET ??_C@_0M@HGNACAL@IndexEnd?$DL?$AN?6@
  000bb	8d 4d ec	 lea	 ecx, DWORD PTR $T5[ebp]
  000be	c6 45 fc 04	 mov	 BYTE PTR __$EHRec$[ebp+8], 4
  000c2	ff 15 00 00 00
	00		 call	 DWORD PTR __imp_??0?$CStringT@DV?$StrTraitMFC_DLL@DV?$ChTraitsCRT@D@ATL@@@@@ATL@@QAE@PBD@Z
  000c8	6a 01		 push	 1
  000ca	8d 45 ec	 lea	 eax, DWORD PTR $T5[ebp]
  000cd	c6 45 fc 05	 mov	 BYTE PTR __$EHRec$[ebp+8], 5
  000d1	50		 push	 eax
  000d2	8d 45 0c	 lea	 eax, DWORD PTR _symboldata$6[ebp]
  000d5	50		 push	 eax
  000d6	8d 45 e4	 lea	 eax, DWORD PTR $T3[ebp]
  000d9	50		 push	 eax
  000da	e8 00 00 00 00	 call	 ?GetStringData@CDataConversion@@SA?AV?$CStringT@DV?$StrTraitMFC_DLL@DV?$ChTraitsCRT@D@ATL@@@@@ATL@@AAV23@ABV23@_N@Z ; CDataConversion::GetStringData
  000df	ff 30		 push	 DWORD PTR [eax]
  000e1	ff 15 00 00 00
	00		 call	 DWORD PTR __imp__atoi
  000e7	83 c4 14	 add	 esp, 20			; 00000014H
  000ea	8d 4d e4	 lea	 ecx, DWORD PTR $T3[ebp]
  000ed	8b f8		 mov	 edi, eax
  000ef	ff 15 00 00 00
	00		 call	 DWORD PTR __imp_??1?$CStringT@DV?$StrTraitMFC_DLL@DV?$ChTraitsCRT@D@ATL@@@@@ATL@@QAE@XZ
  000f5	8d 4d ec	 lea	 ecx, DWORD PTR $T5[ebp]
  000f8	c6 45 fc 04	 mov	 BYTE PTR __$EHRec$[ebp+8], 4
  000fc	ff 15 00 00 00
	00		 call	 DWORD PTR __imp_??1?$CStringT@DV?$StrTraitMFC_DLL@DV?$ChTraitsCRT@D@ATL@@@@@ATL@@QAE@XZ

; 232  : 
; 233  : 	// 2011.02.07 by SYS >>  YYYY()  : / 14Byte  (YYYYMMDDhhmmss)
; 234  : 	//CDrawingSymbol* pSymbol = MakeElement(symboldata);
; 235  : 	CDrawingSymbol* pSymbol = MakeElement(eScaleType, symboldata);

  00102	8d 45 0c	 lea	 eax, DWORD PTR _symboldata$6[ebp]
  00105	8b ce		 mov	 ecx, esi
  00107	50		 push	 eax
  00108	ff 75 08	 push	 DWORD PTR _eScaleType$[ebp]
  0010b	e8 00 00 00 00	 call	 ?MakeElement@CElementSaverBuilder@@AAEPAVCDrawingSymbol@@W4HORZSCALEDRAWERTYPE@CScaleBaseData@@ABV?$CStringT@DV?$StrTraitMFC_DLL@DV?$ChTraitsCRT@D@ATL@@@@@ATL@@@Z ; CElementSaverBuilder::MakeElement

; 236  : 	// 2011.02.07 by SYS <<
; 237  : 
; 238  : 	orderset.Add(nIndex, pSymbol);

  00110	8b 4d 1c	 mov	 ecx, DWORD PTR _orderset$[ebp]
  00113	8b f0		 mov	 esi, eax
  00115	56		 push	 esi
  00116	57		 push	 edi
  00117	e8 00 00 00 00	 call	 ?Add@COrderSet@@QAEXHPAVCDrawingSymbol@@@Z ; COrderSet::Add

; 239  : 	tree.Add(nColumn, nRow, pSymbol);

  0011c	8b 4d 18	 mov	 ecx, DWORD PTR _tree$[ebp]
  0011f	56		 push	 esi
  00120	ff 75 14	 push	 DWORD PTR _nRow$[ebp]
  00123	ff 75 10	 push	 DWORD PTR _nColumn$[ebp]
  00126	e8 00 00 00 00	 call	 ?Add@CTree@@QAEXHHPAVCDrawingSymbol@@@Z ; CTree::Add

; 240  : }

  0012b	8d 4d 0c	 lea	 ecx, DWORD PTR _symboldata$6[ebp]
  0012e	ff 15 00 00 00
	00		 call	 DWORD PTR __imp_??1?$CStringT@DV?$StrTraitMFC_DLL@DV?$ChTraitsCRT@D@ATL@@@@@ATL@@QAE@XZ

; 215  : 	{
; 216  : 		// 2011.02.07 by SYS >>  YYYY()  : / 14Byte  (YYYYMMDDhhmmss)
; 217  : 		//BuildSymbolsFromString_Symbol(CDataConversion::GetStringData(rowdata, "SymbolEnd;\r\n"),
; 218  : 		//	nColumn, nRow, tree, orderset);
; 219  : 		BuildSymbolsFromString_Symbol(eScaleType, CDataConversion::GetStringData(rowdata, "SymbolEnd;\r\n"),

  00134	8d 4d e0	 lea	 ecx, DWORD PTR $T2[ebp]
  00137	ff 15 00 00 00
	00		 call	 DWORD PTR __imp_??1?$CStringT@DV?$StrTraitMFC_DLL@DV?$ChTraitsCRT@D@ATL@@@@@ATL@@QAE@XZ
  0013d	8d 4d e8	 lea	 ecx, DWORD PTR $T4[ebp]
  00140	c6 45 fc 00	 mov	 BYTE PTR __$EHRec$[ebp+8], 0
  00144	ff 15 00 00 00
	00		 call	 DWORD PTR __imp_??1?$CStringT@DV?$StrTraitMFC_DLL@DV?$ChTraitsCRT@D@ATL@@@@@ATL@@QAE@XZ
  0014a	8b 75 dc	 mov	 esi, DWORD PTR _this$1$[ebp]
  0014d	83 eb 01	 sub	 ebx, 1
  00150	0f 85 2a ff ff
	ff		 jne	 $LL4@BuildSymbo
$LN3@BuildSymbo:

; 220  : 			nColumn, nRow, tree, orderset);
; 221  : 		// 2011.02.07 by SYS <<
; 222  : 	}
; 223  : }

  00156	8d 4d f0	 lea	 ecx, DWORD PTR _rowdata$[ebp]
  00159	ff 15 00 00 00
	00		 call	 DWORD PTR __imp_??1?$CStringT@DV?$StrTraitMFC_DLL@DV?$ChTraitsCRT@D@ATL@@@@@ATL@@QAE@XZ
  0015f	8b 4d f4	 mov	 ecx, DWORD PTR __$EHRec$[ebp]
  00162	64 89 0d 00 00
	00 00		 mov	 DWORD PTR fs:0, ecx
  00169	59		 pop	 ecx
  0016a	5f		 pop	 edi
  0016b	5e		 pop	 esi
  0016c	5b		 pop	 ebx
  0016d	8b e5		 mov	 esp, ebp
  0016f	5d		 pop	 ebp
  00170	c2 18 00	 ret	 24			; 00000018H
_TEXT	ENDS
;	COMDAT text$x
text$x	SEGMENT
__unwindfunclet$?BuildSymbolsFromString_Row@CElementSaverBuilder@@AAEXW4HORZSCALEDRAWERTYPE@CScaleBaseData@@ABV?$CStringT@DV?$StrTraitMFC_DLL@DV?$ChTraitsCRT@D@ATL@@@@@ATL@@HHAAVCTree@@AAVCOrderSet@@@Z$0:
  00000	8d 4d f0	 lea	 ecx, DWORD PTR _rowdata$[ebp]
  00003	ff 25 00 00 00
	00		 jmp	 DWORD PTR __imp_??1?$CStringT@DV?$StrTraitMFC_DLL@DV?$ChTraitsCRT@D@ATL@@@@@ATL@@QAE@XZ
__unwindfunclet$?BuildSymbolsFromString_Row@CElementSaverBuilder@@AAEXW4HORZSCALEDRAWERTYPE@CScaleBaseData@@ABV?$CStringT@DV?$StrTraitMFC_DLL@DV?$ChTraitsCRT@D@ATL@@@@@ATL@@HHAAVCTree@@AAVCOrderSet@@@Z$1:
  00009	8d 4d 0c	 lea	 ecx, DWORD PTR $T7[ebp]
  0000c	ff 25 00 00 00
	00		 jmp	 DWORD PTR __imp_??1?$CStringT@DV?$StrTraitMFC_DLL@DV?$ChTraitsCRT@D@ATL@@@@@ATL@@QAE@XZ
__unwindfunclet$?BuildSymbolsFromString_Row@CElementSaverBuilder@@AAEXW4HORZSCALEDRAWERTYPE@CScaleBaseData@@ABV?$CStringT@DV?$StrTraitMFC_DLL@DV?$ChTraitsCRT@D@ATL@@@@@ATL@@HHAAVCTree@@AAVCOrderSet@@@Z$2:
  00012	8d 4d e8	 lea	 ecx, DWORD PTR $T4[ebp]
  00015	ff 25 00 00 00
	00		 jmp	 DWORD PTR __imp_??1?$CStringT@DV?$StrTraitMFC_DLL@DV?$ChTraitsCRT@D@ATL@@@@@ATL@@QAE@XZ
__unwindfunclet$?BuildSymbolsFromString_Row@CElementSaverBuilder@@AAEXW4HORZSCALEDRAWERTYPE@CScaleBaseData@@ABV?$CStringT@DV?$StrTraitMFC_DLL@DV?$ChTraitsCRT@D@ATL@@@@@ATL@@HHAAVCTree@@AAVCOrderSet@@@Z$3:
  0001b	8d 4d e0	 lea	 ecx, DWORD PTR $T2[ebp]
  0001e	ff 25 00 00 00
	00		 jmp	 DWORD PTR __imp_??1?$CStringT@DV?$StrTraitMFC_DLL@DV?$ChTraitsCRT@D@ATL@@@@@ATL@@QAE@XZ
__unwindfunclet$?BuildSymbolsFromString_Row@CElementSaverBuilder@@AAEXW4HORZSCALEDRAWERTYPE@CScaleBaseData@@ABV?$CStringT@DV?$StrTraitMFC_DLL@DV?$ChTraitsCRT@D@ATL@@@@@ATL@@HHAAVCTree@@AAVCOrderSet@@@Z$4:
  00024	8d 4d 0c	 lea	 ecx, DWORD PTR _symboldata$6[ebp]
  00027	ff 25 00 00 00
	00		 jmp	 DWORD PTR __imp_??1?$CStringT@DV?$StrTraitMFC_DLL@DV?$ChTraitsCRT@D@ATL@@@@@ATL@@QAE@XZ
__unwindfunclet$?BuildSymbolsFromString_Row@CElementSaverBuilder@@AAEXW4HORZSCALEDRAWERTYPE@CScaleBaseData@@ABV?$CStringT@DV?$StrTraitMFC_DLL@DV?$ChTraitsCRT@D@ATL@@@@@ATL@@HHAAVCTree@@AAVCOrderSet@@@Z$5:
  0002d	8d 4d ec	 lea	 ecx, DWORD PTR $T5[ebp]
  00030	ff 25 00 00 00
	00		 jmp	 DWORD PTR __imp_??1?$CStringT@DV?$StrTraitMFC_DLL@DV?$ChTraitsCRT@D@ATL@@@@@ATL@@QAE@XZ
  00036	cc		 int	 3
  00037	cc		 int	 3
  00038	cc		 int	 3
  00039	cc		 int	 3
  0003a	cc		 int	 3
__ehhandler$?BuildSymbolsFromString_Row@CElementSaverBuilder@@AAEXW4HORZSCALEDRAWERTYPE@CScaleBaseData@@ABV?$CStringT@DV?$StrTraitMFC_DLL@DV?$ChTraitsCRT@D@ATL@@@@@ATL@@HHAAVCTree@@AAVCOrderSet@@@Z:
  0003b	90		 npad	 1
  0003c	90		 npad	 1
  0003d	8b 54 24 08	 mov	 edx, DWORD PTR [esp+8]
  00041	8d 42 0c	 lea	 eax, DWORD PTR [edx+12]
  00044	8b 4a d8	 mov	 ecx, DWORD PTR [edx-40]
  00047	33 c8		 xor	 ecx, eax
  00049	e8 00 00 00 00	 call	 @__security_check_cookie@4
  0004e	b8 00 00 00 00	 mov	 eax, OFFSET __ehfuncinfo$?BuildSymbolsFromString_Row@CElementSaverBuilder@@AAEXW4HORZSCALEDRAWERTYPE@CScaleBaseData@@ABV?$CStringT@DV?$StrTraitMFC_DLL@DV?$ChTraitsCRT@D@ATL@@@@@ATL@@HHAAVCTree@@AAVCOrderSet@@@Z
  00053	e9 00 00 00 00	 jmp	 ___CxxFrameHandler3
text$x	ENDS
?BuildSymbolsFromString_Row@CElementSaverBuilder@@AAEXW4HORZSCALEDRAWERTYPE@CScaleBaseData@@ABV?$CStringT@DV?$StrTraitMFC_DLL@DV?$ChTraitsCRT@D@ATL@@@@@ATL@@HHAAVCTree@@AAVCOrderSet@@@Z ENDP ; CElementSaverBuilder::BuildSymbolsFromString_Row
; Function compile flags: /Ogtp
; File D:\git\src\IBK\IBK_DRFN\ProjSrc\SrcChartEx\ChartAddIn\ChartAnalysisToolAddIn\Symbol\ElementSaverBuilder.cpp
;	COMDAT ?AddElement@CElementSaverBuilder@@AAEXABVCOrderSet@@AAVCOrder@@@Z
_TEXT	SEGMENT
_orderset$ = 8						; size = 4
_order$ = 12						; size = 4
?AddElement@CElementSaverBuilder@@AAEXABVCOrderSet@@AAVCOrder@@@Z PROC ; CElementSaverBuilder::AddElement, COMDAT
; _this$ = ecx

; 432  : {

  00000	55		 push	 ebp
  00001	8b ec		 mov	 ebp, esp
  00003	56		 push	 esi
  00004	57		 push	 edi

; 433  : 	for(int nIndex = 0; nIndex < orderset.GetCount(); nIndex++) {

  00005	8b 7d 08	 mov	 edi, DWORD PTR _orderset$[ebp]
  00008	33 f6		 xor	 esi, esi
  0000a	8b cf		 mov	 ecx, edi
  0000c	e8 00 00 00 00	 call	 ?GetCount@COrderSet@@QBEHXZ ; COrderSet::GetCount
  00011	85 c0		 test	 eax, eax
  00013	7e 2c		 jle	 SHORT $LN3@AddElement
  00015	53		 push	 ebx
  00016	8b 5d 0c	 mov	 ebx, DWORD PTR _order$[ebp]
  00019	0f 1f 80 00 00
	00 00		 npad	 7
$LL4@AddElement:

; 434  : 		CDrawingSymbol* pSymbol = orderset.GetElement(nIndex);

  00020	56		 push	 esi
  00021	8b cf		 mov	 ecx, edi
  00023	e8 00 00 00 00	 call	 ?GetElement@COrderSet@@QBEPAVCDrawingSymbol@@H@Z ; COrderSet::GetElement

; 435  : 		if(pSymbol != NULL)

  00028	85 c0		 test	 eax, eax
  0002a	74 08		 je	 SHORT $LN2@AddElement

; 436  : 			order.Add(pSymbol);

  0002c	50		 push	 eax
  0002d	8b cb		 mov	 ecx, ebx
  0002f	e8 00 00 00 00	 call	 ?Add@COrder@@QAEXPAVCDrawingSymbol@@@Z ; COrder::Add
$LN2@AddElement:

; 433  : 	for(int nIndex = 0; nIndex < orderset.GetCount(); nIndex++) {

  00034	8b cf		 mov	 ecx, edi
  00036	46		 inc	 esi
  00037	e8 00 00 00 00	 call	 ?GetCount@COrderSet@@QBEHXZ ; COrderSet::GetCount
  0003c	3b f0		 cmp	 esi, eax
  0003e	7c e0		 jl	 SHORT $LL4@AddElement
  00040	5b		 pop	 ebx
$LN3@AddElement:
  00041	5f		 pop	 edi

; 437  : 	}
; 438  : }

  00042	5e		 pop	 esi
  00043	5d		 pop	 ebp
  00044	c2 08 00	 ret	 8
?AddElement@CElementSaverBuilder@@AAEXABVCOrderSet@@AAVCOrder@@@Z ENDP ; CElementSaverBuilder::AddElement
_TEXT	ENDS
; Function compile flags: /Ogtp
; File D:\git\src\IBK\IBK_DRFN\ProjSrc\SrcChartEx\ChartAddIn\ChartAnalysisToolAddIn\Symbol\ElementSaverBuilder.cpp
;	COMDAT ?AddElement_ForUndoRedo@CElementSaverBuilder@@QAEXABVCOrderSet@@AAVCOrder@@@Z
_TEXT	SEGMENT
_pos$ = 8						; size = 4
_orderset$ = 8						; size = 4
_order$ = 12						; size = 4
?AddElement_ForUndoRedo@CElementSaverBuilder@@QAEXABVCOrderSet@@AAVCOrder@@@Z PROC ; CElementSaverBuilder::AddElement_ForUndoRedo, COMDAT
; _this$ = ecx

; 441  : {

  00000	55		 push	 ebp
  00001	8b ec		 mov	 ebp, esp
  00003	57		 push	 edi

; 442  : 	POSITION pos = orderset.GetHeadPosition();

  00004	8b 7d 08	 mov	 edi, DWORD PTR _orderset$[ebp]
  00007	8b cf		 mov	 ecx, edi
  00009	e8 00 00 00 00	 call	 ?GetHeadPosition@COrderSet@@QBEPAU__POSITION@@XZ ; COrderSet::GetHeadPosition
  0000e	89 45 08	 mov	 DWORD PTR _pos$[ebp], eax

; 443  : 	while(pos)

  00011	85 c0		 test	 eax, eax
  00013	74 34		 je	 SHORT $LN3@AddElement
  00015	56		 push	 esi
  00016	8b 75 0c	 mov	 esi, DWORD PTR _order$[ebp]
  00019	0f 1f 80 00 00
	00 00		 npad	 7
$LL2@AddElement:

; 444  : 	{
; 445  : 		COrderAndElement* pOrderAndElement = orderset.GetNext(pos);

  00020	8d 45 08	 lea	 eax, DWORD PTR _pos$[ebp]
  00023	8b cf		 mov	 ecx, edi
  00025	50		 push	 eax
  00026	e8 00 00 00 00	 call	 ?GetNext@COrderSet@@QBEPAVCOrderAndElement@@AAPAU__POSITION@@@Z ; COrderSet::GetNext

; 446  : 		CDrawingSymbol* pSymbol = NULL;
; 447  : 		if(pOrderAndElement != NULL && 

  0002b	85 c0		 test	 eax, eax
  0002d	74 13		 je	 SHORT $LN4@AddElement
  0002f	8b c8		 mov	 ecx, eax
  00031	e8 00 00 00 00	 call	 ?GetElement@COrderAndElement@@QAEPAVCDrawingSymbol@@XZ ; COrderAndElement::GetElement
  00036	85 c0		 test	 eax, eax
  00038	74 08		 je	 SHORT $LN4@AddElement

; 448  : 			(pSymbol = pOrderAndElement->GetElement()) != NULL)
; 449  : 			order.Add(pSymbol);

  0003a	50		 push	 eax
  0003b	8b ce		 mov	 ecx, esi
  0003d	e8 00 00 00 00	 call	 ?Add@COrder@@QAEXPAVCDrawingSymbol@@@Z ; COrder::Add
$LN4@AddElement:

; 443  : 	while(pos)

  00042	83 7d 08 00	 cmp	 DWORD PTR _pos$[ebp], 0
  00046	75 d8		 jne	 SHORT $LL2@AddElement
  00048	5e		 pop	 esi
$LN3@AddElement:
  00049	5f		 pop	 edi

; 450  : 	}
; 451  : }

  0004a	5d		 pop	 ebp
  0004b	c2 08 00	 ret	 8
?AddElement_ForUndoRedo@CElementSaverBuilder@@QAEXABVCOrderSet@@AAVCOrder@@@Z ENDP ; CElementSaverBuilder::AddElement_ForUndoRedo
_TEXT	ENDS
; Function compile flags: /Ogtp
; File D:\git\src\IBK\IBK_DRFN\ProjSrc\SrcChartEx\ChartAddIn\ChartAnalysisToolAddIn\Symbol\ElementSaverBuilder.cpp
; File C:\Program Files (x86)\Microsoft Visual Studio\2019\Community\VC\Tools\MSVC\14.29.30133\atlmfc\include\atlsimpstr.h
; File D:\git\src\IBK\IBK_DRFN\ProjSrc\SrcChartEx\ChartAddIn\ChartAnalysisToolAddIn\Symbol\ElementSaverBuilder.cpp
; File C:\Program Files (x86)\Microsoft Visual Studio\2019\Community\VC\Tools\MSVC\14.29.30133\atlmfc\include\afxtempl.h
; File D:\git\src\IBK\IBK_DRFN\ProjSrc\SrcChartEx\ChartAddIn\ChartAnalysisToolAddIn\Symbol\ElementSaverBuilder.cpp
;	COMDAT ?BuildSymbolsFromString_ForUndoRedo@CElementSaverBuilder@@QAEJAAVCSymbolData@@ABVCBlockIndex@@AAV?$CStringT@DV?$StrTraitMFC_DLL@DV?$ChTraitsCRT@D@ATL@@@@@ATL@@AAVCTree@@AAVCOrder@@@Z
_TEXT	SEGMENT
_orderset$ = -48					; size = 32
$T2 = -16						; size = 4
__$EHRec$ = -12						; size = 12
_symbolData$ = 8					; size = 4
_blockIndex$ = 12					; size = 4
_pos$3 = 16						; size = 4
$T4 = 16						; size = 4
_strSymbolData$ = 16					; size = 4
_tree$ = 20						; size = 4
_order$ = 24						; size = 4
?BuildSymbolsFromString_ForUndoRedo@CElementSaverBuilder@@QAEJAAVCSymbolData@@ABVCBlockIndex@@AAV?$CStringT@DV?$StrTraitMFC_DLL@DV?$ChTraitsCRT@D@ATL@@@@@ATL@@AAVCTree@@AAVCOrder@@@Z PROC ; CElementSaverBuilder::BuildSymbolsFromString_ForUndoRedo, COMDAT
; _this$ = ecx

; 163  : {

  00000	55		 push	 ebp
  00001	8b ec		 mov	 ebp, esp
  00003	6a ff		 push	 -1
  00005	68 00 00 00 00	 push	 __ehhandler$?BuildSymbolsFromString_ForUndoRedo@CElementSaverBuilder@@QAEJAAVCSymbolData@@ABVCBlockIndex@@AAV?$CStringT@DV?$StrTraitMFC_DLL@DV?$ChTraitsCRT@D@ATL@@@@@ATL@@AAVCTree@@AAVCOrder@@@Z
  0000a	64 a1 00 00 00
	00		 mov	 eax, DWORD PTR fs:0
  00010	50		 push	 eax
  00011	83 ec 24	 sub	 esp, 36			; 00000024H
  00014	53		 push	 ebx
  00015	56		 push	 esi
  00016	57		 push	 edi
  00017	a1 00 00 00 00	 mov	 eax, DWORD PTR ___security_cookie
  0001c	33 c5		 xor	 eax, ebp
  0001e	50		 push	 eax
  0001f	8d 45 f4	 lea	 eax, DWORD PTR __$EHRec$[ebp]
  00022	64 a3 00 00 00
	00		 mov	 DWORD PTR fs:0, eax
  00028	8b d9		 mov	 ebx, ecx
; File C:\Program Files (x86)\Microsoft Visual Studio\2019\Community\VC\Tools\MSVC\14.29.30133\atlmfc\include\atlsimpstr.h

; 519  : 		return( GetData()->nDataLength );

  0002a	8b 7d 10	 mov	 edi, DWORD PTR _strSymbolData$[ebp]
  0002d	8b 07		 mov	 eax, DWORD PTR [edi]

; 533  : 		return( GetLength() == 0 );

  0002f	83 78 f4 00	 cmp	 DWORD PTR [eax-12], 0
; File D:\git\src\IBK\IBK_DRFN\ProjSrc\SrcChartEx\ChartAddIn\ChartAnalysisToolAddIn\Symbol\ElementSaverBuilder.cpp

; 164  : 	if(strSymbolData.IsEmpty())		return 0;

  00033	75 16		 jne	 SHORT $LN2@BuildSymbo
  00035	33 c0		 xor	 eax, eax

; 187  : }

  00037	8b 4d f4	 mov	 ecx, DWORD PTR __$EHRec$[ebp]
  0003a	64 89 0d 00 00
	00 00		 mov	 DWORD PTR fs:0, ecx
  00041	59		 pop	 ecx
  00042	5f		 pop	 edi
  00043	5e		 pop	 esi
  00044	5b		 pop	 ebx
  00045	8b e5		 mov	 esp, ebp
  00047	5d		 pop	 ebp
  00048	c2 14 00	 ret	 20			; 00000014H
$LN2@BuildSymbo:
  0004b	c7 45 d0 00 00
	00 00		 mov	 DWORD PTR _orderset$[ebp], OFFSET ??_7COrderSet@@6B@
; File C:\Program Files (x86)\Microsoft Visual Studio\2019\Community\VC\Tools\MSVC\14.29.30133\atlmfc\include\afxtempl.h

; 851  : {

  00052	c7 45 d4 00 00
	00 00		 mov	 DWORD PTR _orderset$[ebp+4], OFFSET ??_7?$CList@PAVCOrderAndElement@@PAV1@@@6B@

; 852  : 	ASSERT(nBlockSize > 0);
; 853  : 
; 854  : 	m_nCount = 0;

  00059	c7 45 e0 00 00
	00 00		 mov	 DWORD PTR _orderset$[ebp+16], 0

; 855  : 	m_pNodeHead = m_pNodeTail = m_pNodeFree = NULL;

  00060	c7 45 e4 00 00
	00 00		 mov	 DWORD PTR _orderset$[ebp+20], 0
  00067	c7 45 dc 00 00
	00 00		 mov	 DWORD PTR _orderset$[ebp+12], 0
  0006e	c7 45 d8 00 00
	00 00		 mov	 DWORD PTR _orderset$[ebp+8], 0

; 856  : 	m_pBlocks = NULL;

  00075	c7 45 e8 00 00
	00 00		 mov	 DWORD PTR _orderset$[ebp+24], 0

; 857  : 	m_nBlockSize = nBlockSize;

  0007c	c7 45 ec 0a 00
	00 00		 mov	 DWORD PTR _orderset$[ebp+28], 10 ; 0000000aH
; File D:\git\src\IBK\IBK_DRFN\ProjSrc\SrcChartEx\ChartAddIn\ChartAnalysisToolAddIn\Symbol\ElementSaverBuilder.cpp

; 169  : 	int nIndex = atoi(CDataConversion::GetStringData(strSymbolData, "IndexEnd;\r\n"));

  00083	68 00 00 00 00	 push	 OFFSET ??_C@_0M@HGNACAL@IndexEnd?$DL?$AN?6@
  00088	8d 4d 10	 lea	 ecx, DWORD PTR $T4[ebp]
  0008b	c7 45 fc 00 00
	00 00		 mov	 DWORD PTR __$EHRec$[ebp+8], 0
  00092	ff 15 00 00 00
	00		 call	 DWORD PTR __imp_??0?$CStringT@DV?$StrTraitMFC_DLL@DV?$ChTraitsCRT@D@ATL@@@@@ATL@@QAE@PBD@Z
  00098	6a 01		 push	 1
  0009a	8d 45 10	 lea	 eax, DWORD PTR $T4[ebp]
  0009d	c6 45 fc 01	 mov	 BYTE PTR __$EHRec$[ebp+8], 1
  000a1	50		 push	 eax
  000a2	8d 45 f0	 lea	 eax, DWORD PTR $T2[ebp]
  000a5	57		 push	 edi
  000a6	50		 push	 eax
  000a7	e8 00 00 00 00	 call	 ?GetStringData@CDataConversion@@SA?AV?$CStringT@DV?$StrTraitMFC_DLL@DV?$ChTraitsCRT@D@ATL@@@@@ATL@@AAV23@ABV23@_N@Z ; CDataConversion::GetStringData
  000ac	ff 30		 push	 DWORD PTR [eax]
  000ae	ff 15 00 00 00
	00		 call	 DWORD PTR __imp__atoi
  000b4	83 c4 14	 add	 esp, 20			; 00000014H
  000b7	8d 4d f0	 lea	 ecx, DWORD PTR $T2[ebp]
  000ba	8b f0		 mov	 esi, eax
  000bc	ff 15 00 00 00
	00		 call	 DWORD PTR __imp_??1?$CStringT@DV?$StrTraitMFC_DLL@DV?$ChTraitsCRT@D@ATL@@@@@ATL@@QAE@XZ
  000c2	8d 4d 10	 lea	 ecx, DWORD PTR $T4[ebp]
  000c5	c6 45 fc 00	 mov	 BYTE PTR __$EHRec$[ebp+8], 0
  000c9	ff 15 00 00 00
	00		 call	 DWORD PTR __imp_??1?$CStringT@DV?$StrTraitMFC_DLL@DV?$ChTraitsCRT@D@ATL@@@@@ATL@@QAE@XZ

; 170  : 
; 171  : 	// 2011.02.07 by SYS >>  YYYY()  : / 14Byte  (YYYYMMDDhhmmss)
; 172  : 	//CDrawingSymbol* pSymbol = MakeElement(strSymbolData);
; 173  : 	CScaleBaseData::HORZSCALEDRAWERTYPE eScaleType = symbolData.GetXScaleDrawType();

  000cf	8b 4d 08	 mov	 ecx, DWORD PTR _symbolData$[ebp]
  000d2	e8 00 00 00 00	 call	 ?GetXScaleDrawType@CSymbolData@@QAE?AW4HORZSCALEDRAWERTYPE@CScaleBaseData@@XZ ; CSymbolData::GetXScaleDrawType

; 174  : 	CDrawingSymbol* pSymbol = MakeElement(eScaleType, strSymbolData);

  000d7	57		 push	 edi
  000d8	50		 push	 eax
  000d9	8b cb		 mov	 ecx, ebx
  000db	e8 00 00 00 00	 call	 ?MakeElement@CElementSaverBuilder@@AAEPAVCDrawingSymbol@@W4HORZSCALEDRAWERTYPE@CScaleBaseData@@ABV?$CStringT@DV?$StrTraitMFC_DLL@DV?$ChTraitsCRT@D@ATL@@@@@ATL@@@Z ; CElementSaverBuilder::MakeElement
  000e0	8b f8		 mov	 edi, eax

; 175  : 	// 2011.02.07 by SYS <<
; 176  : 
; 177  : 	// Tree Element Add
; 178  : 	orderset.Add(nIndex, pSymbol);

  000e2	8d 4d d0	 lea	 ecx, DWORD PTR _orderset$[ebp]
  000e5	57		 push	 edi
  000e6	56		 push	 esi
  000e7	e8 00 00 00 00	 call	 ?Add@COrderSet@@QAEXHPAVCDrawingSymbol@@@Z ; COrderSet::Add

; 179  : 	tree.Add(blockIndex.GetColumn(), blockIndex.GetRow(), pSymbol);

  000ec	8b 4d 0c	 mov	 ecx, DWORD PTR _blockIndex$[ebp]
  000ef	57		 push	 edi
  000f0	ff 31		 push	 DWORD PTR [ecx]
  000f2	ff 71 04	 push	 DWORD PTR [ecx+4]
  000f5	8b 4d 14	 mov	 ecx, DWORD PTR _tree$[ebp]
  000f8	e8 00 00 00 00	 call	 ?Add@CTree@@QAEXHHPAVCDrawingSymbol@@@Z ; CTree::Add

; 442  : 	POSITION pos = orderset.GetHeadPosition();

  000fd	8d 4d d0	 lea	 ecx, DWORD PTR _orderset$[ebp]
  00100	e8 00 00 00 00	 call	 ?GetHeadPosition@COrderSet@@QBEPAU__POSITION@@XZ ; COrderSet::GetHeadPosition
  00105	89 45 10	 mov	 DWORD PTR _pos$3[ebp], eax

; 443  : 	while(pos)

  00108	85 c0		 test	 eax, eax
  0010a	74 2d		 je	 SHORT $LN21@BuildSymbo
  0010c	8b 75 18	 mov	 esi, DWORD PTR _order$[ebp]
  0010f	90		 npad	 1
$LL20@BuildSymbo:

; 444  : 	{
; 445  : 		COrderAndElement* pOrderAndElement = orderset.GetNext(pos);

  00110	8d 45 10	 lea	 eax, DWORD PTR _pos$3[ebp]
  00113	50		 push	 eax
  00114	8d 4d d0	 lea	 ecx, DWORD PTR _orderset$[ebp]
  00117	e8 00 00 00 00	 call	 ?GetNext@COrderSet@@QBEPAVCOrderAndElement@@AAPAU__POSITION@@@Z ; COrderSet::GetNext

; 446  : 		CDrawingSymbol* pSymbol = NULL;
; 447  : 		if(pOrderAndElement != NULL && 

  0011c	85 c0		 test	 eax, eax
  0011e	74 13		 je	 SHORT $LN22@BuildSymbo
  00120	8b c8		 mov	 ecx, eax
  00122	e8 00 00 00 00	 call	 ?GetElement@COrderAndElement@@QAEPAVCDrawingSymbol@@XZ ; COrderAndElement::GetElement
  00127	85 c0		 test	 eax, eax
  00129	74 08		 je	 SHORT $LN22@BuildSymbo

; 448  : 			(pSymbol = pOrderAndElement->GetElement()) != NULL)
; 449  : 			order.Add(pSymbol);

  0012b	50		 push	 eax
  0012c	8b ce		 mov	 ecx, esi
  0012e	e8 00 00 00 00	 call	 ?Add@COrder@@QAEXPAVCDrawingSymbol@@@Z ; COrder::Add
$LN22@BuildSymbo:

; 443  : 	while(pos)

  00133	83 7d 10 00	 cmp	 DWORD PTR _pos$3[ebp], 0
  00137	75 d7		 jne	 SHORT $LL20@BuildSymbo
$LN21@BuildSymbo:

; 180  : 
; 181  : 	// Order Element Add
; 182  : 	AddElement_ForUndoRedo(orderset, order);
; 183  : 
; 184  : 	symbolData.RegisterElementToOrderManager((long)pSymbol);

  00139	8b 4d 08	 mov	 ecx, DWORD PTR _symbolData$[ebp]
  0013c	57		 push	 edi
  0013d	e8 00 00 00 00	 call	 ?RegisterElementToOrderManager@CSymbolData@@QAEXJ@Z ; CSymbolData::RegisterElementToOrderManager

; 185  : 
; 186  : 	return (long)pSymbol;

  00142	8d 4d d0	 lea	 ecx, DWORD PTR _orderset$[ebp]
  00145	e8 00 00 00 00	 call	 ??1COrderSet@@UAE@XZ	; COrderSet::~COrderSet
  0014a	8b c7		 mov	 eax, edi

; 187  : }

  0014c	8b 4d f4	 mov	 ecx, DWORD PTR __$EHRec$[ebp]
  0014f	64 89 0d 00 00
	00 00		 mov	 DWORD PTR fs:0, ecx
  00156	59		 pop	 ecx
  00157	5f		 pop	 edi
  00158	5e		 pop	 esi
  00159	5b		 pop	 ebx
  0015a	8b e5		 mov	 esp, ebp
  0015c	5d		 pop	 ebp
  0015d	c2 14 00	 ret	 20			; 00000014H
_TEXT	ENDS
;	COMDAT text$x
text$x	SEGMENT
__unwindfunclet$?BuildSymbolsFromString_ForUndoRedo@CElementSaverBuilder@@QAEJAAVCSymbolData@@ABVCBlockIndex@@AAV?$CStringT@DV?$StrTraitMFC_DLL@DV?$ChTraitsCRT@D@ATL@@@@@ATL@@AAVCTree@@AAVCOrder@@@Z$0:
  00000	8d 4d d0	 lea	 ecx, DWORD PTR _orderset$[ebp]
  00003	e9 00 00 00 00	 jmp	 ??1COrderSet@@UAE@XZ	; COrderSet::~COrderSet
__unwindfunclet$?BuildSymbolsFromString_ForUndoRedo@CElementSaverBuilder@@QAEJAAVCSymbolData@@ABVCBlockIndex@@AAV?$CStringT@DV?$StrTraitMFC_DLL@DV?$ChTraitsCRT@D@ATL@@@@@ATL@@AAVCTree@@AAVCOrder@@@Z$1:
  00008	8d 4d 10	 lea	 ecx, DWORD PTR $T4[ebp]
  0000b	ff 25 00 00 00
	00		 jmp	 DWORD PTR __imp_??1?$CStringT@DV?$StrTraitMFC_DLL@DV?$ChTraitsCRT@D@ATL@@@@@ATL@@QAE@XZ
  00011	cc		 int	 3
  00012	cc		 int	 3
  00013	cc		 int	 3
  00014	cc		 int	 3
  00015	cc		 int	 3
__ehhandler$?BuildSymbolsFromString_ForUndoRedo@CElementSaverBuilder@@QAEJAAVCSymbolData@@ABVCBlockIndex@@AAV?$CStringT@DV?$StrTraitMFC_DLL@DV?$ChTraitsCRT@D@ATL@@@@@ATL@@AAVCTree@@AAVCOrder@@@Z:
  00016	90		 npad	 1
  00017	90		 npad	 1
  00018	8b 54 24 08	 mov	 edx, DWORD PTR [esp+8]
  0001c	8d 42 0c	 lea	 eax, DWORD PTR [edx+12]
  0001f	8b 4a cc	 mov	 ecx, DWORD PTR [edx-52]
  00022	33 c8		 xor	 ecx, eax
  00024	e8 00 00 00 00	 call	 @__security_check_cookie@4
  00029	b8 00 00 00 00	 mov	 eax, OFFSET __ehfuncinfo$?BuildSymbolsFromString_ForUndoRedo@CElementSaverBuilder@@QAEJAAVCSymbolData@@ABVCBlockIndex@@AAV?$CStringT@DV?$StrTraitMFC_DLL@DV?$ChTraitsCRT@D@ATL@@@@@ATL@@AAVCTree@@AAVCOrder@@@Z
  0002e	e9 00 00 00 00	 jmp	 ___CxxFrameHandler3
text$x	ENDS
?BuildSymbolsFromString_ForUndoRedo@CElementSaverBuilder@@QAEJAAVCSymbolData@@ABVCBlockIndex@@AAV?$CStringT@DV?$StrTraitMFC_DLL@DV?$ChTraitsCRT@D@ATL@@@@@ATL@@AAVCTree@@AAVCOrder@@@Z ENDP ; CElementSaverBuilder::BuildSymbolsFromString_ForUndoRedo
; Function compile flags: /Ogtp
; File D:\git\src\IBK\IBK_DRFN\ProjSrc\SrcChartEx\ChartAddIn\ChartAnalysisToolAddIn\Symbol\ElementSaverBuilder.cpp
; File C:\Program Files (x86)\Microsoft Visual Studio\2019\Community\VC\Tools\MSVC\14.29.30133\atlmfc\include\atlsimpstr.h
; File D:\git\src\IBK\IBK_DRFN\ProjSrc\SrcChartEx\ChartAddIn\ChartAnalysisToolAddIn\Symbol\ElementSaverBuilder.cpp
; File C:\Program Files (x86)\Microsoft Visual Studio\2019\Community\VC\Tools\MSVC\14.29.30133\atlmfc\include\atlsimpstr.h
; File D:\git\src\IBK\IBK_DRFN\ProjSrc\SrcChartEx\ChartAddIn\ChartAnalysisToolAddIn\Symbol\ElementSaverBuilder.cpp
; File C:\Program Files (x86)\Microsoft Visual Studio\2019\Community\VC\Tools\MSVC\14.29.30133\atlmfc\include\cstringt.h
; File D:\git\src\IBK\IBK_DRFN\ProjSrc\SrcChartEx\ChartAddIn\ChartAnalysisToolAddIn\Symbol\ElementSaverBuilder.cpp
; File C:\Program Files (x86)\Microsoft Visual Studio\2019\Community\VC\Tools\MSVC\14.29.30133\atlmfc\include\cstringt.h
; File C:\Program Files (x86)\Microsoft Visual Studio\2019\Community\VC\Tools\MSVC\14.29.30133\atlmfc\include\atlsimpstr.h
; File C:\Program Files (x86)\Microsoft Visual Studio\2019\Community\VC\Tools\MSVC\14.29.30133\atlmfc\include\cstringt.h
; File D:\git\src\IBK\IBK_DRFN\ProjSrc\SrcChartEx\ChartAddIn\ChartAnalysisToolAddIn\Symbol\ElementSaverBuilder.cpp
; File C:\Program Files (x86)\Microsoft Visual Studio\2019\Community\VC\Tools\MSVC\14.29.30133\atlmfc\include\cstringt.h
; File D:\git\src\IBK\IBK_DRFN\ProjSrc\SrcChartEx\ChartAddIn\ChartAnalysisToolAddIn\Symbol\ElementSaverBuilder.cpp
; File C:\Program Files (x86)\Microsoft Visual Studio\2019\Community\VC\Tools\MSVC\14.29.30133\atlmfc\include\cstringt.h
; File C:\Program Files (x86)\Microsoft Visual Studio\2019\Community\VC\Tools\MSVC\14.29.30133\atlmfc\include\atlsimpstr.h
; File C:\Program Files (x86)\Microsoft Visual Studio\2019\Community\VC\Tools\MSVC\14.29.30133\atlmfc\include\cstringt.h
; File D:\git\src\IBK\IBK_DRFN\ProjSrc\SrcChartEx\ChartAddIn\ChartAnalysisToolAddIn\Symbol\ElementSaverBuilder.cpp
; File C:\Program Files (x86)\Microsoft Visual Studio\2019\Community\VC\Tools\MSVC\14.29.30133\atlmfc\include\cstringt.h
; File D:\git\src\IBK\IBK_DRFN\ProjSrc\SrcChartEx\ChartAddIn\ChartAnalysisToolAddIn\Symbol\ElementSaverBuilder.cpp
; File C:\Program Files (x86)\Microsoft Visual Studio\2019\Community\VC\Tools\MSVC\14.29.30133\atlmfc\include\cstringt.h
; File C:\Program Files (x86)\Microsoft Visual Studio\2019\Community\VC\Tools\MSVC\14.29.30133\atlmfc\include\atlsimpstr.h
; File C:\Program Files (x86)\Microsoft Visual Studio\2019\Community\VC\Tools\MSVC\14.29.30133\atlmfc\include\cstringt.h
; File D:\git\src\IBK\IBK_DRFN\ProjSrc\SrcChartEx\ChartAddIn\ChartAnalysisToolAddIn\Symbol\ElementSaverBuilder.cpp
; File C:\Program Files (x86)\Microsoft Visual Studio\2019\Community\VC\Tools\MSVC\14.29.30133\atlmfc\include\cstringt.h
; File D:\git\src\IBK\IBK_DRFN\ProjSrc\SrcChartEx\ChartAddIn\ChartAnalysisToolAddIn\Symbol\ElementSaverBuilder.cpp
; File C:\Program Files (x86)\Microsoft Visual Studio\2019\Community\VC\Tools\MSVC\14.29.30133\atlmfc\include\cstringt.h
; File C:\Program Files (x86)\Microsoft Visual Studio\2019\Community\VC\Tools\MSVC\14.29.30133\atlmfc\include\atlsimpstr.h
; File C:\Program Files (x86)\Microsoft Visual Studio\2019\Community\VC\Tools\MSVC\14.29.30133\atlmfc\include\cstringt.h
; File D:\git\src\IBK\IBK_DRFN\ProjSrc\SrcChartEx\ChartAddIn\ChartAnalysisToolAddIn\Symbol\ElementSaverBuilder.cpp
; File C:\Program Files (x86)\Microsoft Visual Studio\2019\Community\VC\Tools\MSVC\14.29.30133\atlmfc\include\cstringt.h
; File D:\git\src\IBK\IBK_DRFN\ProjSrc\SrcChartEx\ChartAddIn\ChartAnalysisToolAddIn\Symbol\ElementSaverBuilder.cpp
; File C:\Program Files (x86)\Microsoft Visual Studio\2019\Community\VC\Tools\MSVC\14.29.30133\atlmfc\include\cstringt.h
; File C:\Program Files (x86)\Microsoft Visual Studio\2019\Community\VC\Tools\MSVC\14.29.30133\atlmfc\include\atlsimpstr.h
; File C:\Program Files (x86)\Microsoft Visual Studio\2019\Community\VC\Tools\MSVC\14.29.30133\atlmfc\include\cstringt.h
; File D:\git\src\IBK\IBK_DRFN\ProjSrc\SrcChartEx\ChartAddIn\ChartAnalysisToolAddIn\Symbol\ElementSaverBuilder.cpp
; File C:\Program Files (x86)\Microsoft Visual Studio\2019\Community\VC\Tools\MSVC\14.29.30133\atlmfc\include\cstringt.h
; File D:\git\src\IBK\IBK_DRFN\ProjSrc\SrcChartEx\ChartAddIn\ChartAnalysisToolAddIn\Symbol\ElementSaverBuilder.cpp
; File C:\Program Files (x86)\Microsoft Visual Studio\2019\Community\VC\Tools\MSVC\14.29.30133\atlmfc\include\cstringt.h
; File C:\Program Files (x86)\Microsoft Visual Studio\2019\Community\VC\Tools\MSVC\14.29.30133\atlmfc\include\atlsimpstr.h
; File C:\Program Files (x86)\Microsoft Visual Studio\2019\Community\VC\Tools\MSVC\14.29.30133\atlmfc\include\cstringt.h
; File D:\git\src\IBK\IBK_DRFN\ProjSrc\SrcChartEx\ChartAddIn\ChartAnalysisToolAddIn\Symbol\ElementSaverBuilder.cpp
; File C:\Program Files (x86)\Microsoft Visual Studio\2019\Community\VC\Tools\MSVC\14.29.30133\atlmfc\include\cstringt.h
; File D:\git\src\IBK\IBK_DRFN\ProjSrc\SrcChartEx\ChartAddIn\ChartAnalysisToolAddIn\Symbol\ElementSaverBuilder.cpp
; File C:\Program Files (x86)\Microsoft Visual Studio\2019\Community\VC\Tools\MSVC\14.29.30133\atlmfc\include\cstringt.h
; File C:\Program Files (x86)\Microsoft Visual Studio\2019\Community\VC\Tools\MSVC\14.29.30133\atlmfc\include\atlsimpstr.h
; File C:\Program Files (x86)\Microsoft Visual Studio\2019\Community\VC\Tools\MSVC\14.29.30133\atlmfc\include\cstringt.h
; File D:\git\src\IBK\IBK_DRFN\ProjSrc\SrcChartEx\ChartAddIn\ChartAnalysisToolAddIn\Symbol\ElementSaverBuilder.cpp
; File C:\Program Files (x86)\Microsoft Visual Studio\2019\Community\VC\Tools\MSVC\14.29.30133\atlmfc\include\cstringt.h
; File D:\git\src\IBK\IBK_DRFN\ProjSrc\SrcChartEx\ChartAddIn\ChartAnalysisToolAddIn\Symbol\ElementSaverBuilder.cpp
; File C:\Program Files (x86)\Microsoft Visual Studio\2019\Community\VC\Tools\MSVC\14.29.30133\atlmfc\include\cstringt.h
; File C:\Program Files (x86)\Microsoft Visual Studio\2019\Community\VC\Tools\MSVC\14.29.30133\atlmfc\include\atlsimpstr.h
; File C:\Program Files (x86)\Microsoft Visual Studio\2019\Community\VC\Tools\MSVC\14.29.30133\atlmfc\include\cstringt.h
; File D:\git\src\IBK\IBK_DRFN\ProjSrc\SrcChartEx\ChartAddIn\ChartAnalysisToolAddIn\Symbol\ElementSaverBuilder.cpp
; File C:\Program Files (x86)\Microsoft Visual Studio\2019\Community\VC\Tools\MSVC\14.29.30133\atlmfc\include\cstringt.h
; File D:\git\src\IBK\IBK_DRFN\ProjSrc\SrcChartEx\ChartAddIn\ChartAnalysisToolAddIn\Symbol\ElementSaverBuilder.cpp
; File C:\Program Files (x86)\Microsoft Visual Studio\2019\Community\VC\Tools\MSVC\14.29.30133\atlmfc\include\cstringt.h
; File C:\Program Files (x86)\Microsoft Visual Studio\2019\Community\VC\Tools\MSVC\14.29.30133\atlmfc\include\atlsimpstr.h
; File C:\Program Files (x86)\Microsoft Visual Studio\2019\Community\VC\Tools\MSVC\14.29.30133\atlmfc\include\cstringt.h
; File D:\git\src\IBK\IBK_DRFN\ProjSrc\SrcChartEx\ChartAddIn\ChartAnalysisToolAddIn\Symbol\ElementSaverBuilder.cpp
; File C:\Program Files (x86)\Microsoft Visual Studio\2019\Community\VC\Tools\MSVC\14.29.30133\atlmfc\include\cstringt.h
; File D:\git\src\IBK\IBK_DRFN\ProjSrc\SrcChartEx\ChartAddIn\ChartAnalysisToolAddIn\Symbol\ElementSaverBuilder.cpp
; File C:\Program Files (x86)\Microsoft Visual Studio\2019\Community\VC\Tools\MSVC\14.29.30133\atlmfc\include\cstringt.h
; File C:\Program Files (x86)\Microsoft Visual Studio\2019\Community\VC\Tools\MSVC\14.29.30133\atlmfc\include\atlsimpstr.h
; File C:\Program Files (x86)\Microsoft Visual Studio\2019\Community\VC\Tools\MSVC\14.29.30133\atlmfc\include\cstringt.h
; File D:\git\src\IBK\IBK_DRFN\ProjSrc\SrcChartEx\ChartAddIn\ChartAnalysisToolAddIn\Symbol\ElementSaverBuilder.cpp
; File C:\Program Files (x86)\Microsoft Visual Studio\2019\Community\VC\Tools\MSVC\14.29.30133\atlmfc\include\cstringt.h
; File D:\git\src\IBK\IBK_DRFN\ProjSrc\SrcChartEx\ChartAddIn\ChartAnalysisToolAddIn\Symbol\ElementSaverBuilder.cpp
; File C:\Program Files (x86)\Microsoft Visual Studio\2019\Community\VC\Tools\MSVC\14.29.30133\atlmfc\include\cstringt.h
; File C:\Program Files (x86)\Microsoft Visual Studio\2019\Community\VC\Tools\MSVC\14.29.30133\atlmfc\include\atlsimpstr.h
; File C:\Program Files (x86)\Microsoft Visual Studio\2019\Community\VC\Tools\MSVC\14.29.30133\atlmfc\include\cstringt.h
; File D:\git\src\IBK\IBK_DRFN\ProjSrc\SrcChartEx\ChartAddIn\ChartAnalysisToolAddIn\Symbol\ElementSaverBuilder.cpp
; File C:\Program Files (x86)\Microsoft Visual Studio\2019\Community\VC\Tools\MSVC\14.29.30133\atlmfc\include\cstringt.h
; File D:\git\src\IBK\IBK_DRFN\ProjSrc\SrcChartEx\ChartAddIn\ChartAnalysisToolAddIn\Symbol\ElementSaverBuilder.cpp
; File C:\Program Files (x86)\Microsoft Visual Studio\2019\Community\VC\Tools\MSVC\14.29.30133\atlmfc\include\cstringt.h
; File C:\Program Files (x86)\Microsoft Visual Studio\2019\Community\VC\Tools\MSVC\14.29.30133\atlmfc\include\atlsimpstr.h
; File C:\Program Files (x86)\Microsoft Visual Studio\2019\Community\VC\Tools\MSVC\14.29.30133\atlmfc\include\cstringt.h
; File D:\git\src\IBK\IBK_DRFN\ProjSrc\SrcChartEx\ChartAddIn\ChartAnalysisToolAddIn\Symbol\ElementSaverBuilder.cpp
; File C:\Program Files (x86)\Microsoft Visual Studio\2019\Community\VC\Tools\MSVC\14.29.30133\atlmfc\include\cstringt.h
; File D:\git\src\IBK\IBK_DRFN\ProjSrc\SrcChartEx\ChartAddIn\ChartAnalysisToolAddIn\Symbol\ElementSaverBuilder.cpp
; File C:\Program Files (x86)\Microsoft Visual Studio\2019\Community\VC\Tools\MSVC\14.29.30133\atlmfc\include\cstringt.h
; File C:\Program Files (x86)\Microsoft Visual Studio\2019\Community\VC\Tools\MSVC\14.29.30133\atlmfc\include\atlsimpstr.h
; File C:\Program Files (x86)\Microsoft Visual Studio\2019\Community\VC\Tools\MSVC\14.29.30133\atlmfc\include\cstringt.h
; File D:\git\src\IBK\IBK_DRFN\ProjSrc\SrcChartEx\ChartAddIn\ChartAnalysisToolAddIn\Symbol\ElementSaverBuilder.cpp
; File C:\Program Files (x86)\Microsoft Visual Studio\2019\Community\VC\Tools\MSVC\14.29.30133\atlmfc\include\cstringt.h
; File D:\git\src\IBK\IBK_DRFN\ProjSrc\SrcChartEx\ChartAddIn\ChartAnalysisToolAddIn\Symbol\ElementSaverBuilder.cpp
; File C:\Program Files (x86)\Microsoft Visual Studio\2019\Community\VC\Tools\MSVC\14.29.30133\atlmfc\include\cstringt.h
; File C:\Program Files (x86)\Microsoft Visual Studio\2019\Community\VC\Tools\MSVC\14.29.30133\atlmfc\include\atlsimpstr.h
; File C:\Program Files (x86)\Microsoft Visual Studio\2019\Community\VC\Tools\MSVC\14.29.30133\atlmfc\include\cstringt.h
; File D:\git\src\IBK\IBK_DRFN\ProjSrc\SrcChartEx\ChartAddIn\ChartAnalysisToolAddIn\Symbol\ElementSaverBuilder.cpp
; File C:\Program Files (x86)\Microsoft Visual Studio\2019\Community\VC\Tools\MSVC\14.29.30133\atlmfc\include\cstringt.h
; File D:\git\src\IBK\IBK_DRFN\ProjSrc\SrcChartEx\ChartAddIn\ChartAnalysisToolAddIn\Symbol\ElementSaverBuilder.cpp
; File C:\Program Files (x86)\Microsoft Visual Studio\2019\Community\VC\Tools\MSVC\14.29.30133\atlmfc\include\cstringt.h
; File C:\Program Files (x86)\Microsoft Visual Studio\2019\Community\VC\Tools\MSVC\14.29.30133\atlmfc\include\atlsimpstr.h
; File C:\Program Files (x86)\Microsoft Visual Studio\2019\Community\VC\Tools\MSVC\14.29.30133\atlmfc\include\cstringt.h
; File D:\git\src\IBK\IBK_DRFN\ProjSrc\SrcChartEx\ChartAddIn\ChartAnalysisToolAddIn\Symbol\ElementSaverBuilder.cpp
; File C:\Program Files (x86)\Microsoft Visual Studio\2019\Community\VC\Tools\MSVC\14.29.30133\atlmfc\include\cstringt.h
; File D:\git\src\IBK\IBK_DRFN\ProjSrc\SrcChartEx\ChartAddIn\ChartAnalysisToolAddIn\Symbol\ElementSaverBuilder.cpp
; File C:\Program Files (x86)\Microsoft Visual Studio\2019\Community\VC\Tools\MSVC\14.29.30133\atlmfc\include\cstringt.h
; File C:\Program Files (x86)\Microsoft Visual Studio\2019\Community\VC\Tools\MSVC\14.29.30133\atlmfc\include\atlsimpstr.h
; File C:\Program Files (x86)\Microsoft Visual Studio\2019\Community\VC\Tools\MSVC\14.29.30133\atlmfc\include\cstringt.h
; File D:\git\src\IBK\IBK_DRFN\ProjSrc\SrcChartEx\ChartAddIn\ChartAnalysisToolAddIn\Symbol\ElementSaverBuilder.cpp
;	COMDAT ?GetSavedSymbolData_ForUndoRedo@CElementSaverBuilder@@QAE?AV?$CStringT@DV?$StrTraitMFC_DLL@DV?$ChTraitsCRT@D@ATL@@@@@ATL@@ABVCOrder@@PAVCDrawingSymbol@@@Z
_TEXT	SEGMENT
$T2 = -132						; size = 24
$T3 = -132						; size = 24
$T4 = -132						; size = 24
$T5 = -132						; size = 24
$T6 = -132						; size = 24
$T7 = -108						; size = 8
$T8 = -108						; size = 8
$T9 = -108						; size = 8
$T10 = -108						; size = 8
$T11 = -108						; size = 8
$T12 = -108						; size = 8
_this$GSCopy$1$ = -100					; size = 4
$T13 = -100						; size = 4
$T14 = -100						; size = 4
___$ReturnUdt$GSCopy$ = -96				; size = 4
_strIndex$ = -96					; size = 4
$T15 = -92						; size = 4
_strSymbolData$ = -88					; size = 4
$T16 = -84						; size = 4
$T17 = -84						; size = 4
$T18 = -84						; size = 4
$T19 = -84						; size = 4
$T20 = -84						; size = 4
$T21 = -84						; size = 4
$T22 = -84						; size = 4
$T23 = -84						; size = 4
$T24 = -84						; size = 4
$T25 = -84						; size = 4
$T26 = -84						; size = 4
$T27 = -84						; size = 4
$T28 = -84						; size = 4
$T29 = -84						; size = 4
$T30 = -80						; size = 4
$T31 = -80						; size = 4
$T32 = -80						; size = 4
$T33 = -80						; size = 4
$T34 = -80						; size = 4
$T35 = -80						; size = 4
$T36 = -80						; size = 4
$T37 = -80						; size = 4
$T38 = -80						; size = 4
$T39 = -80						; size = 4
$T40 = -80						; size = 4
$T41 = -80						; size = 4
$T42 = -80						; size = 4
$T43 = -80						; size = 4
$T44 = -80						; size = 4
$T45 = -80						; size = 4
$T46 = -76						; size = 60
__$ArrayPad$ = -16					; size = 4
__$EHRec$ = -12						; size = 12
___$ReturnUdt$ = 8					; size = 4
_order$ = 12						; size = 4
_pSymbol$ = 16						; size = 4
?GetSavedSymbolData_ForUndoRedo@CElementSaverBuilder@@QAE?AV?$CStringT@DV?$StrTraitMFC_DLL@DV?$ChTraitsCRT@D@ATL@@@@@ATL@@ABVCOrder@@PAVCDrawingSymbol@@@Z PROC ; CElementSaverBuilder::GetSavedSymbolData_ForUndoRedo, COMDAT
; _this$ = ecx

; 65   : {

  00000	55		 push	 ebp
  00001	8b ec		 mov	 ebp, esp
  00003	6a ff		 push	 -1
  00005	68 00 00 00 00	 push	 __ehhandler$?GetSavedSymbolData_ForUndoRedo@CElementSaverBuilder@@QAE?AV?$CStringT@DV?$StrTraitMFC_DLL@DV?$ChTraitsCRT@D@ATL@@@@@ATL@@ABVCOrder@@PAVCDrawingSymbol@@@Z
  0000a	64 a1 00 00 00
	00		 mov	 eax, DWORD PTR fs:0
  00010	50		 push	 eax
  00011	83 ec 78	 sub	 esp, 120		; 00000078H
  00014	a1 00 00 00 00	 mov	 eax, DWORD PTR ___security_cookie
  00019	33 c5		 xor	 eax, ebp
  0001b	89 45 f0	 mov	 DWORD PTR __$ArrayPad$[ebp], eax
  0001e	53		 push	 ebx
  0001f	56		 push	 esi
  00020	57		 push	 edi
  00021	50		 push	 eax
  00022	8d 45 f4	 lea	 eax, DWORD PTR __$EHRec$[ebp]
  00025	64 a3 00 00 00
	00		 mov	 DWORD PTR fs:0, eax
  0002b	89 4d 9c	 mov	 DWORD PTR _this$GSCopy$1$[ebp], ecx
  0002e	8b 45 0c	 mov	 eax, DWORD PTR _order$[ebp]
  00031	8b 5d 10	 mov	 ebx, DWORD PTR _pSymbol$[ebp]
  00034	8b 7d 08	 mov	 edi, DWORD PTR ___$ReturnUdt$[ebp]

; 66   : 	CString strIndex = GetIndexString(pSymbol, order);

  00037	50		 push	 eax
  00038	53		 push	 ebx
  00039	8d 45 a0	 lea	 eax, DWORD PTR _strIndex$[ebp]
  0003c	89 7d a0	 mov	 DWORD PTR ___$ReturnUdt$GSCopy$[ebp], edi
  0003f	50		 push	 eax
  00040	c7 45 a4 00 00
	00 00		 mov	 DWORD PTR $T15[ebp], 0
  00047	e8 00 00 00 00	 call	 ?GetIndexString@CElementSaverBuilder@@ABE?AV?$CStringT@DV?$StrTraitMFC_DLL@DV?$ChTraitsCRT@D@ATL@@@@@ATL@@PBVCDrawingSymbol@@ABVCOrder@@@Z ; CElementSaverBuilder::GetIndexString
; File C:\Program Files (x86)\Microsoft Visual Studio\2019\Community\VC\Tools\MSVC\14.29.30133\atlmfc\include\atlsimpstr.h

; 519  : 		return( GetData()->nDataLength );

  0004c	8b 4d a0	 mov	 ecx, DWORD PTR _strIndex$[ebp]
; File D:\git\src\IBK\IBK_DRFN\ProjSrc\SrcChartEx\ChartAddIn\ChartAnalysisToolAddIn\Symbol\ElementSaverBuilder.cpp

; 66   : 	CString strIndex = GetIndexString(pSymbol, order);

  0004f	c7 45 fc 00 00
	00 00		 mov	 DWORD PTR __$EHRec$[ebp+8], 0
; File C:\Program Files (x86)\Microsoft Visual Studio\2019\Community\VC\Tools\MSVC\14.29.30133\atlmfc\include\atlsimpstr.h

; 533  : 		return( GetLength() == 0 );

  00056	83 79 f4 00	 cmp	 DWORD PTR [ecx-12], 0
; File D:\git\src\IBK\IBK_DRFN\ProjSrc\SrcChartEx\ChartAddIn\ChartAnalysisToolAddIn\Symbol\ElementSaverBuilder.cpp

; 67   : 	if(strIndex.IsEmpty())

  0005a	75 12		 jne	 SHORT $LN2@GetSavedSy

; 68   : 		return "";

  0005c	68 00 00 00 00	 push	 OFFSET ??_C@_00CNPNBAHC@@
  00061	8b cf		 mov	 ecx, edi
  00063	ff 15 00 00 00
	00		 call	 DWORD PTR __imp_??0?$CStringT@DV?$StrTraitMFC_DLL@DV?$ChTraitsCRT@D@ATL@@@@@ATL@@QAE@PBD@Z
  00069	e9 aa 07 00 00	 jmp	 $LN255@GetSavedSy
$LN2@GetSavedSy:

; 69   : 
; 70   : 	CString strSymbolData;

  0006e	8d 4d a8	 lea	 ecx, DWORD PTR _strSymbolData$[ebp]
  00071	ff 15 00 00 00
	00		 call	 DWORD PTR __imp_??0?$CStringT@DV?$StrTraitMFC_DLL@DV?$ChTraitsCRT@D@ATL@@@@@ATL@@QAE@XZ

; 71   : 	strSymbolData += strIndex;

  00077	8d 45 a0	 lea	 eax, DWORD PTR _strIndex$[ebp]
  0007a	c6 45 fc 01	 mov	 BYTE PTR __$EHRec$[ebp+8], 1
  0007e	50		 push	 eax
  0007f	8d 4d a8	 lea	 ecx, DWORD PTR _strSymbolData$[ebp]
  00082	ff 15 00 00 00
	00		 call	 DWORD PTR __imp_??Y?$CStringT@DV?$StrTraitMFC_DLL@DV?$ChTraitsCRT@D@ATL@@@@@ATL@@QAEAAV01@ABV?$CSimpleStringT@D$00@1@@Z

; 72   : 	strSymbolData += CDataConversion::IntToString(pSymbol->GetSymbolType()) + ";"; 

  00088	8b cb		 mov	 ecx, ebx
  0008a	e8 00 00 00 00	 call	 ?GetSymbolType@CDrawingSymbol@@QAE?AW4TOOLTYPE@CSymbolBaseData@@XZ ; CDrawingSymbol::GetSymbolType
  0008f	50		 push	 eax
  00090	8d 45 ac	 lea	 eax, DWORD PTR $T29[ebp]
  00093	50		 push	 eax
  00094	e8 00 00 00 00	 call	 ?IntToString@CDataConversion@@SA?AV?$CStringT@DV?$StrTraitMFC_DLL@DV?$ChTraitsCRT@D@ATL@@@@@ATL@@H@Z ; CDataConversion::IntToString
  00099	83 c4 08	 add	 esp, 8
  0009c	8b f0		 mov	 esi, eax
; File C:\Program Files (x86)\Microsoft Visual Studio\2019\Community\VC\Tools\MSVC\14.29.30133\atlmfc\include\cstringt.h

; 2401 : 		CStringT strResult( str1.GetManager() );

  0009e	8b ce		 mov	 ecx, esi
; File D:\git\src\IBK\IBK_DRFN\ProjSrc\SrcChartEx\ChartAddIn\ChartAnalysisToolAddIn\Symbol\ElementSaverBuilder.cpp

; 72   : 	strSymbolData += CDataConversion::IntToString(pSymbol->GetSymbolType()) + ";"; 

  000a0	c6 45 fc 03	 mov	 BYTE PTR __$EHRec$[ebp+8], 3
; File C:\Program Files (x86)\Microsoft Visual Studio\2019\Community\VC\Tools\MSVC\14.29.30133\atlmfc\include\cstringt.h

; 2401 : 		CStringT strResult( str1.GetManager() );

  000a4	ff 15 00 00 00
	00		 call	 DWORD PTR __imp_?GetManager@?$CStringT@DV?$StrTraitMFC_DLL@DV?$ChTraitsCRT@D@ATL@@@@@ATL@@QBEPAUIAtlStringMgr@2@XZ
  000aa	50		 push	 eax
  000ab	8d 4d b0	 lea	 ecx, DWORD PTR $T45[ebp]
  000ae	ff 15 00 00 00
	00		 call	 DWORD PTR __imp_??0?$CStringT@DV?$StrTraitMFC_DLL@DV?$ChTraitsCRT@D@ATL@@@@@ATL@@QAE@PAUIAtlStringMgr@1@@Z
; File C:\Program Files (x86)\Microsoft Visual Studio\2019\Community\VC\Tools\MSVC\14.29.30133\atlmfc\include\atlsimpstr.h

; 519  : 		return( GetData()->nDataLength );

  000b4	8b 06		 mov	 eax, DWORD PTR [esi]
; File C:\Program Files (x86)\Microsoft Visual Studio\2019\Community\VC\Tools\MSVC\14.29.30133\atlmfc\include\cstringt.h

; 2403 : 		CThisSimpleString::Concatenate( strResult, str1, str1.GetLength(), psz2, CThisSimpleString::StringLength( psz2 ) );

  000b6	6a 01		 push	 1
  000b8	68 00 00 00 00	 push	 OFFSET ??_C@_01ICJEACDI@?$DL@

; 2404 : 
; 2405 : 		return( strResult );

  000bd	c7 45 a4 02 00
	00 00		 mov	 DWORD PTR $T15[ebp], 2
  000c4	ff 70 f4	 push	 DWORD PTR [eax-12]
  000c7	50		 push	 eax
  000c8	8d 45 b0	 lea	 eax, DWORD PTR $T45[ebp]
  000cb	50		 push	 eax
  000cc	ff 15 00 00 00
	00		 call	 DWORD PTR __imp_?Concatenate@?$CSimpleStringT@D$00@ATL@@KAXAAV12@PBDH1H@Z
  000d2	83 c4 14	 add	 esp, 20			; 00000014H
; File D:\git\src\IBK\IBK_DRFN\ProjSrc\SrcChartEx\ChartAddIn\ChartAnalysisToolAddIn\Symbol\ElementSaverBuilder.cpp

; 72   : 	strSymbolData += CDataConversion::IntToString(pSymbol->GetSymbolType()) + ";"; 

  000d5	8d 45 b0	 lea	 eax, DWORD PTR $T45[ebp]
  000d8	8d 4d a8	 lea	 ecx, DWORD PTR _strSymbolData$[ebp]
  000db	50		 push	 eax
  000dc	ff 15 00 00 00
	00		 call	 DWORD PTR __imp_??Y?$CStringT@DV?$StrTraitMFC_DLL@DV?$ChTraitsCRT@D@ATL@@@@@ATL@@QAEAAV01@ABV?$CSimpleStringT@D$00@1@@Z
  000e2	8d 4d b0	 lea	 ecx, DWORD PTR $T45[ebp]
  000e5	ff 15 00 00 00
	00		 call	 DWORD PTR __imp_??1?$CStringT@DV?$StrTraitMFC_DLL@DV?$ChTraitsCRT@D@ATL@@@@@ATL@@QAE@XZ
  000eb	8d 4d ac	 lea	 ecx, DWORD PTR $T29[ebp]
  000ee	c6 45 fc 01	 mov	 BYTE PTR __$EHRec$[ebp+8], 1
  000f2	ff 15 00 00 00
	00		 call	 DWORD PTR __imp_??1?$CStringT@DV?$StrTraitMFC_DLL@DV?$ChTraitsCRT@D@ATL@@@@@ATL@@QAE@XZ

; 73   : 	strSymbolData += CDataConversion::IntToString(pSymbol->GetSizeType()) + ";"; 

  000f8	8b cb		 mov	 ecx, ebx
  000fa	e8 00 00 00 00	 call	 ?GetSizeType@CDrawingSymbol@@QBE?AW4SIZETYPE@CSymbolBaseData@@XZ ; CDrawingSymbol::GetSizeType
  000ff	50		 push	 eax
  00100	8d 45 ac	 lea	 eax, DWORD PTR $T28[ebp]
  00103	50		 push	 eax
  00104	e8 00 00 00 00	 call	 ?IntToString@CDataConversion@@SA?AV?$CStringT@DV?$StrTraitMFC_DLL@DV?$ChTraitsCRT@D@ATL@@@@@ATL@@H@Z ; CDataConversion::IntToString
  00109	83 c4 08	 add	 esp, 8
  0010c	8b f0		 mov	 esi, eax
; File C:\Program Files (x86)\Microsoft Visual Studio\2019\Community\VC\Tools\MSVC\14.29.30133\atlmfc\include\cstringt.h

; 2401 : 		CStringT strResult( str1.GetManager() );

  0010e	8b ce		 mov	 ecx, esi
; File D:\git\src\IBK\IBK_DRFN\ProjSrc\SrcChartEx\ChartAddIn\ChartAnalysisToolAddIn\Symbol\ElementSaverBuilder.cpp

; 73   : 	strSymbolData += CDataConversion::IntToString(pSymbol->GetSizeType()) + ";"; 

  00110	c6 45 fc 05	 mov	 BYTE PTR __$EHRec$[ebp+8], 5
; File C:\Program Files (x86)\Microsoft Visual Studio\2019\Community\VC\Tools\MSVC\14.29.30133\atlmfc\include\cstringt.h

; 2401 : 		CStringT strResult( str1.GetManager() );

  00114	ff 15 00 00 00
	00		 call	 DWORD PTR __imp_?GetManager@?$CStringT@DV?$StrTraitMFC_DLL@DV?$ChTraitsCRT@D@ATL@@@@@ATL@@QBEPAUIAtlStringMgr@2@XZ
  0011a	50		 push	 eax
  0011b	8d 4d b0	 lea	 ecx, DWORD PTR $T44[ebp]
  0011e	ff 15 00 00 00
	00		 call	 DWORD PTR __imp_??0?$CStringT@DV?$StrTraitMFC_DLL@DV?$ChTraitsCRT@D@ATL@@@@@ATL@@QAE@PAUIAtlStringMgr@1@@Z
; File C:\Program Files (x86)\Microsoft Visual Studio\2019\Community\VC\Tools\MSVC\14.29.30133\atlmfc\include\atlsimpstr.h

; 519  : 		return( GetData()->nDataLength );

  00124	8b 06		 mov	 eax, DWORD PTR [esi]
; File C:\Program Files (x86)\Microsoft Visual Studio\2019\Community\VC\Tools\MSVC\14.29.30133\atlmfc\include\cstringt.h

; 2403 : 		CThisSimpleString::Concatenate( strResult, str1, str1.GetLength(), psz2, CThisSimpleString::StringLength( psz2 ) );

  00126	6a 01		 push	 1
  00128	68 00 00 00 00	 push	 OFFSET ??_C@_01ICJEACDI@?$DL@

; 2404 : 
; 2405 : 		return( strResult );

  0012d	c7 45 a4 04 00
	00 00		 mov	 DWORD PTR $T15[ebp], 4
  00134	ff 70 f4	 push	 DWORD PTR [eax-12]
  00137	50		 push	 eax
  00138	8d 45 b0	 lea	 eax, DWORD PTR $T44[ebp]
  0013b	50		 push	 eax
  0013c	ff 15 00 00 00
	00		 call	 DWORD PTR __imp_?Concatenate@?$CSimpleStringT@D$00@ATL@@KAXAAV12@PBDH1H@Z
  00142	83 c4 14	 add	 esp, 20			; 00000014H
; File D:\git\src\IBK\IBK_DRFN\ProjSrc\SrcChartEx\ChartAddIn\ChartAnalysisToolAddIn\Symbol\ElementSaverBuilder.cpp

; 73   : 	strSymbolData += CDataConversion::IntToString(pSymbol->GetSizeType()) + ";"; 

  00145	8d 45 b0	 lea	 eax, DWORD PTR $T44[ebp]
  00148	8d 4d a8	 lea	 ecx, DWORD PTR _strSymbolData$[ebp]
  0014b	50		 push	 eax
  0014c	ff 15 00 00 00
	00		 call	 DWORD PTR __imp_??Y?$CStringT@DV?$StrTraitMFC_DLL@DV?$ChTraitsCRT@D@ATL@@@@@ATL@@QAEAAV01@ABV?$CSimpleStringT@D$00@1@@Z
  00152	8d 4d b0	 lea	 ecx, DWORD PTR $T44[ebp]
  00155	ff 15 00 00 00
	00		 call	 DWORD PTR __imp_??1?$CStringT@DV?$StrTraitMFC_DLL@DV?$ChTraitsCRT@D@ATL@@@@@ATL@@QAE@XZ
  0015b	8d 4d ac	 lea	 ecx, DWORD PTR $T28[ebp]
  0015e	c6 45 fc 01	 mov	 BYTE PTR __$EHRec$[ebp+8], 1
  00162	ff 15 00 00 00
	00		 call	 DWORD PTR __imp_??1?$CStringT@DV?$StrTraitMFC_DLL@DV?$ChTraitsCRT@D@ATL@@@@@ATL@@QAE@XZ

; 74   : 	strSymbolData += CDataConversion::DoubleToString((pSymbol->GetStartPoint()).GetX()) + ";"; 

  00168	8b 03		 mov	 eax, DWORD PTR [ebx]
  0016a	8d 8d 7c ff ff
	ff		 lea	 ecx, DWORD PTR $T6[ebp]
  00170	51		 push	 ecx
  00171	8b cb		 mov	 ecx, ebx
  00173	ff 50 20	 call	 DWORD PTR [eax+32]
  00176	8b c8		 mov	 ecx, eax
  00178	e8 00 00 00 00	 call	 ?GetX@CCoordinate@@QBENXZ ; CCoordinate::GetX
  0017d	8d 45 94	 lea	 eax, DWORD PTR $T12[ebp]
  00180	50		 push	 eax
  00181	8d 45 ac	 lea	 eax, DWORD PTR $T27[ebp]
  00184	50		 push	 eax
  00185	dd 5d 94	 fstp	 QWORD PTR $T12[ebp]
  00188	e8 00 00 00 00	 call	 ?DoubleToString@CDataConversion@@SA?AV?$CStringT@DV?$StrTraitMFC_DLL@DV?$ChTraitsCRT@D@ATL@@@@@ATL@@ABN@Z ; CDataConversion::DoubleToString
  0018d	83 c4 08	 add	 esp, 8
  00190	8b f0		 mov	 esi, eax
; File C:\Program Files (x86)\Microsoft Visual Studio\2019\Community\VC\Tools\MSVC\14.29.30133\atlmfc\include\cstringt.h

; 2401 : 		CStringT strResult( str1.GetManager() );

  00192	8b ce		 mov	 ecx, esi
; File D:\git\src\IBK\IBK_DRFN\ProjSrc\SrcChartEx\ChartAddIn\ChartAnalysisToolAddIn\Symbol\ElementSaverBuilder.cpp

; 74   : 	strSymbolData += CDataConversion::DoubleToString((pSymbol->GetStartPoint()).GetX()) + ";"; 

  00194	c6 45 fc 07	 mov	 BYTE PTR __$EHRec$[ebp+8], 7
; File C:\Program Files (x86)\Microsoft Visual Studio\2019\Community\VC\Tools\MSVC\14.29.30133\atlmfc\include\cstringt.h

; 2401 : 		CStringT strResult( str1.GetManager() );

  00198	ff 15 00 00 00
	00		 call	 DWORD PTR __imp_?GetManager@?$CStringT@DV?$StrTraitMFC_DLL@DV?$ChTraitsCRT@D@ATL@@@@@ATL@@QBEPAUIAtlStringMgr@2@XZ
  0019e	50		 push	 eax
  0019f	8d 4d b0	 lea	 ecx, DWORD PTR $T43[ebp]
  001a2	ff 15 00 00 00
	00		 call	 DWORD PTR __imp_??0?$CStringT@DV?$StrTraitMFC_DLL@DV?$ChTraitsCRT@D@ATL@@@@@ATL@@QAE@PAUIAtlStringMgr@1@@Z
; File C:\Program Files (x86)\Microsoft Visual Studio\2019\Community\VC\Tools\MSVC\14.29.30133\atlmfc\include\atlsimpstr.h

; 519  : 		return( GetData()->nDataLength );

  001a8	8b 06		 mov	 eax, DWORD PTR [esi]
; File C:\Program Files (x86)\Microsoft Visual Studio\2019\Community\VC\Tools\MSVC\14.29.30133\atlmfc\include\cstringt.h

; 2403 : 		CThisSimpleString::Concatenate( strResult, str1, str1.GetLength(), psz2, CThisSimpleString::StringLength( psz2 ) );

  001aa	6a 01		 push	 1
  001ac	68 00 00 00 00	 push	 OFFSET ??_C@_01ICJEACDI@?$DL@

; 2404 : 
; 2405 : 		return( strResult );

  001b1	c7 45 a4 08 00
	00 00		 mov	 DWORD PTR $T15[ebp], 8
  001b8	ff 70 f4	 push	 DWORD PTR [eax-12]
  001bb	50		 push	 eax
  001bc	8d 45 b0	 lea	 eax, DWORD PTR $T43[ebp]
  001bf	50		 push	 eax
  001c0	ff 15 00 00 00
	00		 call	 DWORD PTR __imp_?Concatenate@?$CSimpleStringT@D$00@ATL@@KAXAAV12@PBDH1H@Z
  001c6	83 c4 14	 add	 esp, 20			; 00000014H
; File D:\git\src\IBK\IBK_DRFN\ProjSrc\SrcChartEx\ChartAddIn\ChartAnalysisToolAddIn\Symbol\ElementSaverBuilder.cpp

; 74   : 	strSymbolData += CDataConversion::DoubleToString((pSymbol->GetStartPoint()).GetX()) + ";"; 

  001c9	8d 45 b0	 lea	 eax, DWORD PTR $T43[ebp]
  001cc	8d 4d a8	 lea	 ecx, DWORD PTR _strSymbolData$[ebp]
  001cf	50		 push	 eax
  001d0	ff 15 00 00 00
	00		 call	 DWORD PTR __imp_??Y?$CStringT@DV?$StrTraitMFC_DLL@DV?$ChTraitsCRT@D@ATL@@@@@ATL@@QAEAAV01@ABV?$CSimpleStringT@D$00@1@@Z
  001d6	8d 4d b0	 lea	 ecx, DWORD PTR $T43[ebp]
  001d9	ff 15 00 00 00
	00		 call	 DWORD PTR __imp_??1?$CStringT@DV?$StrTraitMFC_DLL@DV?$ChTraitsCRT@D@ATL@@@@@ATL@@QAE@XZ
  001df	8d 4d ac	 lea	 ecx, DWORD PTR $T27[ebp]
  001e2	c6 45 fc 01	 mov	 BYTE PTR __$EHRec$[ebp+8], 1
  001e6	ff 15 00 00 00
	00		 call	 DWORD PTR __imp_??1?$CStringT@DV?$StrTraitMFC_DLL@DV?$ChTraitsCRT@D@ATL@@@@@ATL@@QAE@XZ

; 75   : 	strSymbolData += CDataConversion::DoubleToString((pSymbol->GetStartPoint()).GetY()) + ";"; 

  001ec	8b 03		 mov	 eax, DWORD PTR [ebx]
  001ee	8d 8d 7c ff ff
	ff		 lea	 ecx, DWORD PTR $T5[ebp]
  001f4	51		 push	 ecx
  001f5	8b cb		 mov	 ecx, ebx
  001f7	ff 50 20	 call	 DWORD PTR [eax+32]
  001fa	8b c8		 mov	 ecx, eax
  001fc	e8 00 00 00 00	 call	 ?GetY@CCoordinate@@QBENXZ ; CCoordinate::GetY
  00201	8d 45 94	 lea	 eax, DWORD PTR $T11[ebp]
  00204	50		 push	 eax
  00205	8d 45 ac	 lea	 eax, DWORD PTR $T26[ebp]
  00208	50		 push	 eax
  00209	dd 5d 94	 fstp	 QWORD PTR $T11[ebp]
  0020c	e8 00 00 00 00	 call	 ?DoubleToString@CDataConversion@@SA?AV?$CStringT@DV?$StrTraitMFC_DLL@DV?$ChTraitsCRT@D@ATL@@@@@ATL@@ABN@Z ; CDataConversion::DoubleToString
  00211	83 c4 08	 add	 esp, 8
  00214	8b f0		 mov	 esi, eax
; File C:\Program Files (x86)\Microsoft Visual Studio\2019\Community\VC\Tools\MSVC\14.29.30133\atlmfc\include\cstringt.h

; 2401 : 		CStringT strResult( str1.GetManager() );

  00216	8b ce		 mov	 ecx, esi
; File D:\git\src\IBK\IBK_DRFN\ProjSrc\SrcChartEx\ChartAddIn\ChartAnalysisToolAddIn\Symbol\ElementSaverBuilder.cpp

; 75   : 	strSymbolData += CDataConversion::DoubleToString((pSymbol->GetStartPoint()).GetY()) + ";"; 

  00218	c6 45 fc 09	 mov	 BYTE PTR __$EHRec$[ebp+8], 9
; File C:\Program Files (x86)\Microsoft Visual Studio\2019\Community\VC\Tools\MSVC\14.29.30133\atlmfc\include\cstringt.h

; 2401 : 		CStringT strResult( str1.GetManager() );

  0021c	ff 15 00 00 00
	00		 call	 DWORD PTR __imp_?GetManager@?$CStringT@DV?$StrTraitMFC_DLL@DV?$ChTraitsCRT@D@ATL@@@@@ATL@@QBEPAUIAtlStringMgr@2@XZ
  00222	50		 push	 eax
  00223	8d 4d b0	 lea	 ecx, DWORD PTR $T42[ebp]
  00226	ff 15 00 00 00
	00		 call	 DWORD PTR __imp_??0?$CStringT@DV?$StrTraitMFC_DLL@DV?$ChTraitsCRT@D@ATL@@@@@ATL@@QAE@PAUIAtlStringMgr@1@@Z
; File C:\Program Files (x86)\Microsoft Visual Studio\2019\Community\VC\Tools\MSVC\14.29.30133\atlmfc\include\atlsimpstr.h

; 519  : 		return( GetData()->nDataLength );

  0022c	8b 06		 mov	 eax, DWORD PTR [esi]
; File C:\Program Files (x86)\Microsoft Visual Studio\2019\Community\VC\Tools\MSVC\14.29.30133\atlmfc\include\cstringt.h

; 2403 : 		CThisSimpleString::Concatenate( strResult, str1, str1.GetLength(), psz2, CThisSimpleString::StringLength( psz2 ) );

  0022e	6a 01		 push	 1
  00230	68 00 00 00 00	 push	 OFFSET ??_C@_01ICJEACDI@?$DL@

; 2404 : 
; 2405 : 		return( strResult );

  00235	c7 45 a4 10 00
	00 00		 mov	 DWORD PTR $T15[ebp], 16	; 00000010H
  0023c	ff 70 f4	 push	 DWORD PTR [eax-12]
  0023f	50		 push	 eax
  00240	8d 45 b0	 lea	 eax, DWORD PTR $T42[ebp]
  00243	50		 push	 eax
  00244	ff 15 00 00 00
	00		 call	 DWORD PTR __imp_?Concatenate@?$CSimpleStringT@D$00@ATL@@KAXAAV12@PBDH1H@Z
  0024a	83 c4 14	 add	 esp, 20			; 00000014H
; File D:\git\src\IBK\IBK_DRFN\ProjSrc\SrcChartEx\ChartAddIn\ChartAnalysisToolAddIn\Symbol\ElementSaverBuilder.cpp

; 75   : 	strSymbolData += CDataConversion::DoubleToString((pSymbol->GetStartPoint()).GetY()) + ";"; 

  0024d	8d 45 b0	 lea	 eax, DWORD PTR $T42[ebp]
  00250	8d 4d a8	 lea	 ecx, DWORD PTR _strSymbolData$[ebp]
  00253	50		 push	 eax
  00254	ff 15 00 00 00
	00		 call	 DWORD PTR __imp_??Y?$CStringT@DV?$StrTraitMFC_DLL@DV?$ChTraitsCRT@D@ATL@@@@@ATL@@QAEAAV01@ABV?$CSimpleStringT@D$00@1@@Z
  0025a	8d 4d b0	 lea	 ecx, DWORD PTR $T42[ebp]
  0025d	ff 15 00 00 00
	00		 call	 DWORD PTR __imp_??1?$CStringT@DV?$StrTraitMFC_DLL@DV?$ChTraitsCRT@D@ATL@@@@@ATL@@QAE@XZ
  00263	8d 4d ac	 lea	 ecx, DWORD PTR $T26[ebp]
  00266	c6 45 fc 01	 mov	 BYTE PTR __$EHRec$[ebp+8], 1
  0026a	ff 15 00 00 00
	00		 call	 DWORD PTR __imp_??1?$CStringT@DV?$StrTraitMFC_DLL@DV?$ChTraitsCRT@D@ATL@@@@@ATL@@QAE@XZ

; 76   : 	strSymbolData += CDataConversion::DoubleToString((pSymbol->GetEndPoint()).GetX()) + ";"; 

  00270	8b 03		 mov	 eax, DWORD PTR [ebx]
  00272	8d 8d 7c ff ff
	ff		 lea	 ecx, DWORD PTR $T4[ebp]
  00278	51		 push	 ecx
  00279	8b cb		 mov	 ecx, ebx
  0027b	ff 50 24	 call	 DWORD PTR [eax+36]
  0027e	8b c8		 mov	 ecx, eax
  00280	e8 00 00 00 00	 call	 ?GetX@CCoordinate@@QBENXZ ; CCoordinate::GetX
  00285	8d 45 94	 lea	 eax, DWORD PTR $T10[ebp]
  00288	50		 push	 eax
  00289	8d 45 ac	 lea	 eax, DWORD PTR $T25[ebp]
  0028c	50		 push	 eax
  0028d	dd 5d 94	 fstp	 QWORD PTR $T10[ebp]
  00290	e8 00 00 00 00	 call	 ?DoubleToString@CDataConversion@@SA?AV?$CStringT@DV?$StrTraitMFC_DLL@DV?$ChTraitsCRT@D@ATL@@@@@ATL@@ABN@Z ; CDataConversion::DoubleToString
  00295	83 c4 08	 add	 esp, 8
  00298	8b f0		 mov	 esi, eax
; File C:\Program Files (x86)\Microsoft Visual Studio\2019\Community\VC\Tools\MSVC\14.29.30133\atlmfc\include\cstringt.h

; 2401 : 		CStringT strResult( str1.GetManager() );

  0029a	8b ce		 mov	 ecx, esi
; File D:\git\src\IBK\IBK_DRFN\ProjSrc\SrcChartEx\ChartAddIn\ChartAnalysisToolAddIn\Symbol\ElementSaverBuilder.cpp

; 76   : 	strSymbolData += CDataConversion::DoubleToString((pSymbol->GetEndPoint()).GetX()) + ";"; 

  0029c	c6 45 fc 0b	 mov	 BYTE PTR __$EHRec$[ebp+8], 11 ; 0000000bH
; File C:\Program Files (x86)\Microsoft Visual Studio\2019\Community\VC\Tools\MSVC\14.29.30133\atlmfc\include\cstringt.h

; 2401 : 		CStringT strResult( str1.GetManager() );

  002a0	ff 15 00 00 00
	00		 call	 DWORD PTR __imp_?GetManager@?$CStringT@DV?$StrTraitMFC_DLL@DV?$ChTraitsCRT@D@ATL@@@@@ATL@@QBEPAUIAtlStringMgr@2@XZ
  002a6	50		 push	 eax
  002a7	8d 4d b0	 lea	 ecx, DWORD PTR $T41[ebp]
  002aa	ff 15 00 00 00
	00		 call	 DWORD PTR __imp_??0?$CStringT@DV?$StrTraitMFC_DLL@DV?$ChTraitsCRT@D@ATL@@@@@ATL@@QAE@PAUIAtlStringMgr@1@@Z
; File C:\Program Files (x86)\Microsoft Visual Studio\2019\Community\VC\Tools\MSVC\14.29.30133\atlmfc\include\atlsimpstr.h

; 519  : 		return( GetData()->nDataLength );

  002b0	8b 06		 mov	 eax, DWORD PTR [esi]
; File C:\Program Files (x86)\Microsoft Visual Studio\2019\Community\VC\Tools\MSVC\14.29.30133\atlmfc\include\cstringt.h

; 2403 : 		CThisSimpleString::Concatenate( strResult, str1, str1.GetLength(), psz2, CThisSimpleString::StringLength( psz2 ) );

  002b2	6a 01		 push	 1
  002b4	68 00 00 00 00	 push	 OFFSET ??_C@_01ICJEACDI@?$DL@

; 2404 : 
; 2405 : 		return( strResult );

  002b9	c7 45 a4 20 00
	00 00		 mov	 DWORD PTR $T15[ebp], 32	; 00000020H
  002c0	ff 70 f4	 push	 DWORD PTR [eax-12]
  002c3	50		 push	 eax
  002c4	8d 45 b0	 lea	 eax, DWORD PTR $T41[ebp]
  002c7	50		 push	 eax
  002c8	ff 15 00 00 00
	00		 call	 DWORD PTR __imp_?Concatenate@?$CSimpleStringT@D$00@ATL@@KAXAAV12@PBDH1H@Z
  002ce	83 c4 14	 add	 esp, 20			; 00000014H
; File D:\git\src\IBK\IBK_DRFN\ProjSrc\SrcChartEx\ChartAddIn\ChartAnalysisToolAddIn\Symbol\ElementSaverBuilder.cpp

; 76   : 	strSymbolData += CDataConversion::DoubleToString((pSymbol->GetEndPoint()).GetX()) + ";"; 

  002d1	8d 45 b0	 lea	 eax, DWORD PTR $T41[ebp]
  002d4	8d 4d a8	 lea	 ecx, DWORD PTR _strSymbolData$[ebp]
  002d7	50		 push	 eax
  002d8	ff 15 00 00 00
	00		 call	 DWORD PTR __imp_??Y?$CStringT@DV?$StrTraitMFC_DLL@DV?$ChTraitsCRT@D@ATL@@@@@ATL@@QAEAAV01@ABV?$CSimpleStringT@D$00@1@@Z
  002de	8d 4d b0	 lea	 ecx, DWORD PTR $T41[ebp]
  002e1	ff 15 00 00 00
	00		 call	 DWORD PTR __imp_??1?$CStringT@DV?$StrTraitMFC_DLL@DV?$ChTraitsCRT@D@ATL@@@@@ATL@@QAE@XZ
  002e7	8d 4d ac	 lea	 ecx, DWORD PTR $T25[ebp]
  002ea	c6 45 fc 01	 mov	 BYTE PTR __$EHRec$[ebp+8], 1
  002ee	ff 15 00 00 00
	00		 call	 DWORD PTR __imp_??1?$CStringT@DV?$StrTraitMFC_DLL@DV?$ChTraitsCRT@D@ATL@@@@@ATL@@QAE@XZ

; 77   : 	strSymbolData += CDataConversion::DoubleToString((pSymbol->GetEndPoint()).GetY()) + ";"; 

  002f4	8b 03		 mov	 eax, DWORD PTR [ebx]
  002f6	8d 8d 7c ff ff
	ff		 lea	 ecx, DWORD PTR $T3[ebp]
  002fc	51		 push	 ecx
  002fd	8b cb		 mov	 ecx, ebx
  002ff	ff 50 24	 call	 DWORD PTR [eax+36]
  00302	8b c8		 mov	 ecx, eax
  00304	e8 00 00 00 00	 call	 ?GetY@CCoordinate@@QBENXZ ; CCoordinate::GetY
  00309	8d 45 94	 lea	 eax, DWORD PTR $T9[ebp]
  0030c	50		 push	 eax
  0030d	8d 45 ac	 lea	 eax, DWORD PTR $T24[ebp]
  00310	50		 push	 eax
  00311	dd 5d 94	 fstp	 QWORD PTR $T9[ebp]
  00314	e8 00 00 00 00	 call	 ?DoubleToString@CDataConversion@@SA?AV?$CStringT@DV?$StrTraitMFC_DLL@DV?$ChTraitsCRT@D@ATL@@@@@ATL@@ABN@Z ; CDataConversion::DoubleToString
  00319	83 c4 08	 add	 esp, 8
  0031c	8b f0		 mov	 esi, eax
; File C:\Program Files (x86)\Microsoft Visual Studio\2019\Community\VC\Tools\MSVC\14.29.30133\atlmfc\include\cstringt.h

; 2401 : 		CStringT strResult( str1.GetManager() );

  0031e	8b ce		 mov	 ecx, esi
; File D:\git\src\IBK\IBK_DRFN\ProjSrc\SrcChartEx\ChartAddIn\ChartAnalysisToolAddIn\Symbol\ElementSaverBuilder.cpp

; 77   : 	strSymbolData += CDataConversion::DoubleToString((pSymbol->GetEndPoint()).GetY()) + ";"; 

  00320	c6 45 fc 0d	 mov	 BYTE PTR __$EHRec$[ebp+8], 13 ; 0000000dH
; File C:\Program Files (x86)\Microsoft Visual Studio\2019\Community\VC\Tools\MSVC\14.29.30133\atlmfc\include\cstringt.h

; 2401 : 		CStringT strResult( str1.GetManager() );

  00324	ff 15 00 00 00
	00		 call	 DWORD PTR __imp_?GetManager@?$CStringT@DV?$StrTraitMFC_DLL@DV?$ChTraitsCRT@D@ATL@@@@@ATL@@QBEPAUIAtlStringMgr@2@XZ
  0032a	50		 push	 eax
  0032b	8d 4d b0	 lea	 ecx, DWORD PTR $T40[ebp]
  0032e	ff 15 00 00 00
	00		 call	 DWORD PTR __imp_??0?$CStringT@DV?$StrTraitMFC_DLL@DV?$ChTraitsCRT@D@ATL@@@@@ATL@@QAE@PAUIAtlStringMgr@1@@Z
; File C:\Program Files (x86)\Microsoft Visual Studio\2019\Community\VC\Tools\MSVC\14.29.30133\atlmfc\include\atlsimpstr.h

; 519  : 		return( GetData()->nDataLength );

  00334	8b 06		 mov	 eax, DWORD PTR [esi]
; File C:\Program Files (x86)\Microsoft Visual Studio\2019\Community\VC\Tools\MSVC\14.29.30133\atlmfc\include\cstringt.h

; 2403 : 		CThisSimpleString::Concatenate( strResult, str1, str1.GetLength(), psz2, CThisSimpleString::StringLength( psz2 ) );

  00336	6a 01		 push	 1
  00338	68 00 00 00 00	 push	 OFFSET ??_C@_01ICJEACDI@?$DL@

; 2404 : 
; 2405 : 		return( strResult );

  0033d	c7 45 a4 40 00
	00 00		 mov	 DWORD PTR $T15[ebp], 64	; 00000040H
  00344	ff 70 f4	 push	 DWORD PTR [eax-12]
  00347	50		 push	 eax
  00348	8d 45 b0	 lea	 eax, DWORD PTR $T40[ebp]
  0034b	50		 push	 eax
  0034c	ff 15 00 00 00
	00		 call	 DWORD PTR __imp_?Concatenate@?$CSimpleStringT@D$00@ATL@@KAXAAV12@PBDH1H@Z
  00352	83 c4 14	 add	 esp, 20			; 00000014H
; File D:\git\src\IBK\IBK_DRFN\ProjSrc\SrcChartEx\ChartAddIn\ChartAnalysisToolAddIn\Symbol\ElementSaverBuilder.cpp

; 77   : 	strSymbolData += CDataConversion::DoubleToString((pSymbol->GetEndPoint()).GetY()) + ";"; 

  00355	8d 45 b0	 lea	 eax, DWORD PTR $T40[ebp]
  00358	8d 4d a8	 lea	 ecx, DWORD PTR _strSymbolData$[ebp]
  0035b	50		 push	 eax
  0035c	ff 15 00 00 00
	00		 call	 DWORD PTR __imp_??Y?$CStringT@DV?$StrTraitMFC_DLL@DV?$ChTraitsCRT@D@ATL@@@@@ATL@@QAEAAV01@ABV?$CSimpleStringT@D$00@1@@Z
  00362	8d 4d b0	 lea	 ecx, DWORD PTR $T40[ebp]
  00365	ff 15 00 00 00
	00		 call	 DWORD PTR __imp_??1?$CStringT@DV?$StrTraitMFC_DLL@DV?$ChTraitsCRT@D@ATL@@@@@ATL@@QAE@XZ
  0036b	8d 4d ac	 lea	 ecx, DWORD PTR $T24[ebp]
  0036e	c6 45 fc 01	 mov	 BYTE PTR __$EHRec$[ebp+8], 1
  00372	ff 15 00 00 00
	00		 call	 DWORD PTR __imp_??1?$CStringT@DV?$StrTraitMFC_DLL@DV?$ChTraitsCRT@D@ATL@@@@@ATL@@QAE@XZ

; 78   : 	strSymbolData += CDataConversion::IntToString((pSymbol->GetSymbolSize()).cx) + ";"; 

  00378	8b 03		 mov	 eax, DWORD PTR [ebx]
  0037a	8d 4d 94	 lea	 ecx, DWORD PTR $T8[ebp]
  0037d	51		 push	 ecx
  0037e	8b cb		 mov	 ecx, ebx
  00380	ff 50 30	 call	 DWORD PTR [eax+48]
  00383	ff 30		 push	 DWORD PTR [eax]
  00385	8d 45 ac	 lea	 eax, DWORD PTR $T23[ebp]
  00388	50		 push	 eax
  00389	e8 00 00 00 00	 call	 ?IntToString@CDataConversion@@SA?AV?$CStringT@DV?$StrTraitMFC_DLL@DV?$ChTraitsCRT@D@ATL@@@@@ATL@@H@Z ; CDataConversion::IntToString
  0038e	83 c4 08	 add	 esp, 8
  00391	8b f0		 mov	 esi, eax
; File C:\Program Files (x86)\Microsoft Visual Studio\2019\Community\VC\Tools\MSVC\14.29.30133\atlmfc\include\cstringt.h

; 2401 : 		CStringT strResult( str1.GetManager() );

  00393	8b ce		 mov	 ecx, esi
; File D:\git\src\IBK\IBK_DRFN\ProjSrc\SrcChartEx\ChartAddIn\ChartAnalysisToolAddIn\Symbol\ElementSaverBuilder.cpp

; 78   : 	strSymbolData += CDataConversion::IntToString((pSymbol->GetSymbolSize()).cx) + ";"; 

  00395	c6 45 fc 0f	 mov	 BYTE PTR __$EHRec$[ebp+8], 15 ; 0000000fH
; File C:\Program Files (x86)\Microsoft Visual Studio\2019\Community\VC\Tools\MSVC\14.29.30133\atlmfc\include\cstringt.h

; 2401 : 		CStringT strResult( str1.GetManager() );

  00399	ff 15 00 00 00
	00		 call	 DWORD PTR __imp_?GetManager@?$CStringT@DV?$StrTraitMFC_DLL@DV?$ChTraitsCRT@D@ATL@@@@@ATL@@QBEPAUIAtlStringMgr@2@XZ
  0039f	50		 push	 eax
  003a0	8d 4d b0	 lea	 ecx, DWORD PTR $T39[ebp]
  003a3	ff 15 00 00 00
	00		 call	 DWORD PTR __imp_??0?$CStringT@DV?$StrTraitMFC_DLL@DV?$ChTraitsCRT@D@ATL@@@@@ATL@@QAE@PAUIAtlStringMgr@1@@Z
; File C:\Program Files (x86)\Microsoft Visual Studio\2019\Community\VC\Tools\MSVC\14.29.30133\atlmfc\include\atlsimpstr.h

; 519  : 		return( GetData()->nDataLength );

  003a9	8b 06		 mov	 eax, DWORD PTR [esi]
; File C:\Program Files (x86)\Microsoft Visual Studio\2019\Community\VC\Tools\MSVC\14.29.30133\atlmfc\include\cstringt.h

; 2403 : 		CThisSimpleString::Concatenate( strResult, str1, str1.GetLength(), psz2, CThisSimpleString::StringLength( psz2 ) );

  003ab	6a 01		 push	 1
  003ad	68 00 00 00 00	 push	 OFFSET ??_C@_01ICJEACDI@?$DL@

; 2404 : 
; 2405 : 		return( strResult );

  003b2	c7 45 a4 80 00
	00 00		 mov	 DWORD PTR $T15[ebp], 128 ; 00000080H
  003b9	ff 70 f4	 push	 DWORD PTR [eax-12]
  003bc	50		 push	 eax
  003bd	8d 45 b0	 lea	 eax, DWORD PTR $T39[ebp]
  003c0	50		 push	 eax
  003c1	ff 15 00 00 00
	00		 call	 DWORD PTR __imp_?Concatenate@?$CSimpleStringT@D$00@ATL@@KAXAAV12@PBDH1H@Z
  003c7	83 c4 14	 add	 esp, 20			; 00000014H
; File D:\git\src\IBK\IBK_DRFN\ProjSrc\SrcChartEx\ChartAddIn\ChartAnalysisToolAddIn\Symbol\ElementSaverBuilder.cpp

; 78   : 	strSymbolData += CDataConversion::IntToString((pSymbol->GetSymbolSize()).cx) + ";"; 

  003ca	8d 45 b0	 lea	 eax, DWORD PTR $T39[ebp]
  003cd	8d 4d a8	 lea	 ecx, DWORD PTR _strSymbolData$[ebp]
  003d0	50		 push	 eax
  003d1	ff 15 00 00 00
	00		 call	 DWORD PTR __imp_??Y?$CStringT@DV?$StrTraitMFC_DLL@DV?$ChTraitsCRT@D@ATL@@@@@ATL@@QAEAAV01@ABV?$CSimpleStringT@D$00@1@@Z
  003d7	8d 4d b0	 lea	 ecx, DWORD PTR $T39[ebp]
  003da	ff 15 00 00 00
	00		 call	 DWORD PTR __imp_??1?$CStringT@DV?$StrTraitMFC_DLL@DV?$ChTraitsCRT@D@ATL@@@@@ATL@@QAE@XZ
  003e0	8d 4d ac	 lea	 ecx, DWORD PTR $T23[ebp]
  003e3	c6 45 fc 01	 mov	 BYTE PTR __$EHRec$[ebp+8], 1
  003e7	ff 15 00 00 00
	00		 call	 DWORD PTR __imp_??1?$CStringT@DV?$StrTraitMFC_DLL@DV?$ChTraitsCRT@D@ATL@@@@@ATL@@QAE@XZ

; 79   : 	strSymbolData += CDataConversion::IntToString((pSymbol->GetSymbolSize()).cy) + ";"; 		

  003ed	8b 03		 mov	 eax, DWORD PTR [ebx]
  003ef	8d 4d 94	 lea	 ecx, DWORD PTR $T7[ebp]
  003f2	51		 push	 ecx
  003f3	8b cb		 mov	 ecx, ebx
  003f5	ff 50 30	 call	 DWORD PTR [eax+48]
  003f8	8b 40 04	 mov	 eax, DWORD PTR [eax+4]
  003fb	50		 push	 eax
  003fc	8d 45 ac	 lea	 eax, DWORD PTR $T22[ebp]
  003ff	50		 push	 eax
  00400	e8 00 00 00 00	 call	 ?IntToString@CDataConversion@@SA?AV?$CStringT@DV?$StrTraitMFC_DLL@DV?$ChTraitsCRT@D@ATL@@@@@ATL@@H@Z ; CDataConversion::IntToString
  00405	83 c4 08	 add	 esp, 8
  00408	8b f0		 mov	 esi, eax
; File C:\Program Files (x86)\Microsoft Visual Studio\2019\Community\VC\Tools\MSVC\14.29.30133\atlmfc\include\cstringt.h

; 2401 : 		CStringT strResult( str1.GetManager() );

  0040a	8b ce		 mov	 ecx, esi
; File D:\git\src\IBK\IBK_DRFN\ProjSrc\SrcChartEx\ChartAddIn\ChartAnalysisToolAddIn\Symbol\ElementSaverBuilder.cpp

; 79   : 	strSymbolData += CDataConversion::IntToString((pSymbol->GetSymbolSize()).cy) + ";"; 		

  0040c	c6 45 fc 11	 mov	 BYTE PTR __$EHRec$[ebp+8], 17 ; 00000011H
; File C:\Program Files (x86)\Microsoft Visual Studio\2019\Community\VC\Tools\MSVC\14.29.30133\atlmfc\include\cstringt.h

; 2401 : 		CStringT strResult( str1.GetManager() );

  00410	ff 15 00 00 00
	00		 call	 DWORD PTR __imp_?GetManager@?$CStringT@DV?$StrTraitMFC_DLL@DV?$ChTraitsCRT@D@ATL@@@@@ATL@@QBEPAUIAtlStringMgr@2@XZ
  00416	50		 push	 eax
  00417	8d 4d b0	 lea	 ecx, DWORD PTR $T38[ebp]
  0041a	ff 15 00 00 00
	00		 call	 DWORD PTR __imp_??0?$CStringT@DV?$StrTraitMFC_DLL@DV?$ChTraitsCRT@D@ATL@@@@@ATL@@QAE@PAUIAtlStringMgr@1@@Z
; File C:\Program Files (x86)\Microsoft Visual Studio\2019\Community\VC\Tools\MSVC\14.29.30133\atlmfc\include\atlsimpstr.h

; 519  : 		return( GetData()->nDataLength );

  00420	8b 06		 mov	 eax, DWORD PTR [esi]
; File C:\Program Files (x86)\Microsoft Visual Studio\2019\Community\VC\Tools\MSVC\14.29.30133\atlmfc\include\cstringt.h

; 2403 : 		CThisSimpleString::Concatenate( strResult, str1, str1.GetLength(), psz2, CThisSimpleString::StringLength( psz2 ) );

  00422	6a 01		 push	 1
  00424	68 00 00 00 00	 push	 OFFSET ??_C@_01ICJEACDI@?$DL@

; 2404 : 
; 2405 : 		return( strResult );

  00429	c7 45 a4 00 01
	00 00		 mov	 DWORD PTR $T15[ebp], 256 ; 00000100H
  00430	ff 70 f4	 push	 DWORD PTR [eax-12]
  00433	50		 push	 eax
  00434	8d 45 b0	 lea	 eax, DWORD PTR $T38[ebp]
  00437	50		 push	 eax
  00438	ff 15 00 00 00
	00		 call	 DWORD PTR __imp_?Concatenate@?$CSimpleStringT@D$00@ATL@@KAXAAV12@PBDH1H@Z
  0043e	83 c4 14	 add	 esp, 20			; 00000014H
; File D:\git\src\IBK\IBK_DRFN\ProjSrc\SrcChartEx\ChartAddIn\ChartAnalysisToolAddIn\Symbol\ElementSaverBuilder.cpp

; 79   : 	strSymbolData += CDataConversion::IntToString((pSymbol->GetSymbolSize()).cy) + ";"; 		

  00441	8d 45 b0	 lea	 eax, DWORD PTR $T38[ebp]
  00444	8d 4d a8	 lea	 ecx, DWORD PTR _strSymbolData$[ebp]
  00447	50		 push	 eax
  00448	ff 15 00 00 00
	00		 call	 DWORD PTR __imp_??Y?$CStringT@DV?$StrTraitMFC_DLL@DV?$ChTraitsCRT@D@ATL@@@@@ATL@@QAEAAV01@ABV?$CSimpleStringT@D$00@1@@Z
  0044e	8d 4d b0	 lea	 ecx, DWORD PTR $T38[ebp]
  00451	ff 15 00 00 00
	00		 call	 DWORD PTR __imp_??1?$CStringT@DV?$StrTraitMFC_DLL@DV?$ChTraitsCRT@D@ATL@@@@@ATL@@QAE@XZ
  00457	8d 4d ac	 lea	 ecx, DWORD PTR $T22[ebp]
  0045a	c6 45 fc 01	 mov	 BYTE PTR __$EHRec$[ebp+8], 1
  0045e	ff 15 00 00 00
	00		 call	 DWORD PTR __imp_??1?$CStringT@DV?$StrTraitMFC_DLL@DV?$ChTraitsCRT@D@ATL@@@@@ATL@@QAE@XZ

; 80   : 	strSymbolData += pSymbol->GetText() + ";"; 		

  00464	8b 03		 mov	 eax, DWORD PTR [ebx]
  00466	8d 4d ac	 lea	 ecx, DWORD PTR $T21[ebp]
  00469	51		 push	 ecx
  0046a	8b cb		 mov	 ecx, ebx
  0046c	ff 50 1c	 call	 DWORD PTR [eax+28]
  0046f	8b f0		 mov	 esi, eax
; File C:\Program Files (x86)\Microsoft Visual Studio\2019\Community\VC\Tools\MSVC\14.29.30133\atlmfc\include\cstringt.h

; 2401 : 		CStringT strResult( str1.GetManager() );

  00471	8b ce		 mov	 ecx, esi
; File D:\git\src\IBK\IBK_DRFN\ProjSrc\SrcChartEx\ChartAddIn\ChartAnalysisToolAddIn\Symbol\ElementSaverBuilder.cpp

; 80   : 	strSymbolData += pSymbol->GetText() + ";"; 		

  00473	c6 45 fc 13	 mov	 BYTE PTR __$EHRec$[ebp+8], 19 ; 00000013H
; File C:\Program Files (x86)\Microsoft Visual Studio\2019\Community\VC\Tools\MSVC\14.29.30133\atlmfc\include\cstringt.h

; 2401 : 		CStringT strResult( str1.GetManager() );

  00477	ff 15 00 00 00
	00		 call	 DWORD PTR __imp_?GetManager@?$CStringT@DV?$StrTraitMFC_DLL@DV?$ChTraitsCRT@D@ATL@@@@@ATL@@QBEPAUIAtlStringMgr@2@XZ
  0047d	50		 push	 eax
  0047e	8d 4d b0	 lea	 ecx, DWORD PTR $T37[ebp]
  00481	ff 15 00 00 00
	00		 call	 DWORD PTR __imp_??0?$CStringT@DV?$StrTraitMFC_DLL@DV?$ChTraitsCRT@D@ATL@@@@@ATL@@QAE@PAUIAtlStringMgr@1@@Z
; File C:\Program Files (x86)\Microsoft Visual Studio\2019\Community\VC\Tools\MSVC\14.29.30133\atlmfc\include\atlsimpstr.h

; 519  : 		return( GetData()->nDataLength );

  00487	8b 06		 mov	 eax, DWORD PTR [esi]
; File C:\Program Files (x86)\Microsoft Visual Studio\2019\Community\VC\Tools\MSVC\14.29.30133\atlmfc\include\cstringt.h

; 2403 : 		CThisSimpleString::Concatenate( strResult, str1, str1.GetLength(), psz2, CThisSimpleString::StringLength( psz2 ) );

  00489	6a 01		 push	 1
  0048b	68 00 00 00 00	 push	 OFFSET ??_C@_01ICJEACDI@?$DL@

; 2404 : 
; 2405 : 		return( strResult );

  00490	c7 45 a4 00 02
	00 00		 mov	 DWORD PTR $T15[ebp], 512 ; 00000200H
  00497	ff 70 f4	 push	 DWORD PTR [eax-12]
  0049a	50		 push	 eax
  0049b	8d 45 b0	 lea	 eax, DWORD PTR $T37[ebp]
  0049e	50		 push	 eax
  0049f	ff 15 00 00 00
	00		 call	 DWORD PTR __imp_?Concatenate@?$CSimpleStringT@D$00@ATL@@KAXAAV12@PBDH1H@Z
  004a5	83 c4 14	 add	 esp, 20			; 00000014H
; File D:\git\src\IBK\IBK_DRFN\ProjSrc\SrcChartEx\ChartAddIn\ChartAnalysisToolAddIn\Symbol\ElementSaverBuilder.cpp

; 80   : 	strSymbolData += pSymbol->GetText() + ";"; 		

  004a8	8d 45 b0	 lea	 eax, DWORD PTR $T37[ebp]
  004ab	8d 4d a8	 lea	 ecx, DWORD PTR _strSymbolData$[ebp]
  004ae	50		 push	 eax
  004af	ff 15 00 00 00
	00		 call	 DWORD PTR __imp_??Y?$CStringT@DV?$StrTraitMFC_DLL@DV?$ChTraitsCRT@D@ATL@@@@@ATL@@QAEAAV01@ABV?$CSimpleStringT@D$00@1@@Z
  004b5	8d 4d b0	 lea	 ecx, DWORD PTR $T37[ebp]
  004b8	ff 15 00 00 00
	00		 call	 DWORD PTR __imp_??1?$CStringT@DV?$StrTraitMFC_DLL@DV?$ChTraitsCRT@D@ATL@@@@@ATL@@QAE@XZ
  004be	8d 4d ac	 lea	 ecx, DWORD PTR $T21[ebp]
  004c1	c6 45 fc 01	 mov	 BYTE PTR __$EHRec$[ebp+8], 1
  004c5	ff 15 00 00 00
	00		 call	 DWORD PTR __imp_??1?$CStringT@DV?$StrTraitMFC_DLL@DV?$ChTraitsCRT@D@ATL@@@@@ATL@@QAE@XZ

; 81   : 	strSymbolData += CDataConversion::RGB2Str(pSymbol->GetColor()) + ";"; 		

  004cb	8b cb		 mov	 ecx, ebx
  004cd	e8 00 00 00 00	 call	 ?GetColor@CDrawingSymbol@@QBEKXZ ; CDrawingSymbol::GetColor
  004d2	50		 push	 eax
  004d3	8d 45 ac	 lea	 eax, DWORD PTR $T20[ebp]
  004d6	50		 push	 eax
  004d7	e8 00 00 00 00	 call	 ?RGB2Str@CDataConversion@@SA?AV?$CStringT@DV?$StrTraitMFC_DLL@DV?$ChTraitsCRT@D@ATL@@@@@ATL@@K@Z ; CDataConversion::RGB2Str
  004dc	83 c4 08	 add	 esp, 8
  004df	8b f0		 mov	 esi, eax
; File C:\Program Files (x86)\Microsoft Visual Studio\2019\Community\VC\Tools\MSVC\14.29.30133\atlmfc\include\cstringt.h

; 2401 : 		CStringT strResult( str1.GetManager() );

  004e1	8b ce		 mov	 ecx, esi
; File D:\git\src\IBK\IBK_DRFN\ProjSrc\SrcChartEx\ChartAddIn\ChartAnalysisToolAddIn\Symbol\ElementSaverBuilder.cpp

; 81   : 	strSymbolData += CDataConversion::RGB2Str(pSymbol->GetColor()) + ";"; 		

  004e3	c6 45 fc 15	 mov	 BYTE PTR __$EHRec$[ebp+8], 21 ; 00000015H
; File C:\Program Files (x86)\Microsoft Visual Studio\2019\Community\VC\Tools\MSVC\14.29.30133\atlmfc\include\cstringt.h

; 2401 : 		CStringT strResult( str1.GetManager() );

  004e7	ff 15 00 00 00
	00		 call	 DWORD PTR __imp_?GetManager@?$CStringT@DV?$StrTraitMFC_DLL@DV?$ChTraitsCRT@D@ATL@@@@@ATL@@QBEPAUIAtlStringMgr@2@XZ
  004ed	50		 push	 eax
  004ee	8d 4d b0	 lea	 ecx, DWORD PTR $T36[ebp]
  004f1	ff 15 00 00 00
	00		 call	 DWORD PTR __imp_??0?$CStringT@DV?$StrTraitMFC_DLL@DV?$ChTraitsCRT@D@ATL@@@@@ATL@@QAE@PAUIAtlStringMgr@1@@Z
; File C:\Program Files (x86)\Microsoft Visual Studio\2019\Community\VC\Tools\MSVC\14.29.30133\atlmfc\include\atlsimpstr.h

; 519  : 		return( GetData()->nDataLength );

  004f7	8b 06		 mov	 eax, DWORD PTR [esi]
; File C:\Program Files (x86)\Microsoft Visual Studio\2019\Community\VC\Tools\MSVC\14.29.30133\atlmfc\include\cstringt.h

; 2403 : 		CThisSimpleString::Concatenate( strResult, str1, str1.GetLength(), psz2, CThisSimpleString::StringLength( psz2 ) );

  004f9	6a 01		 push	 1
  004fb	68 00 00 00 00	 push	 OFFSET ??_C@_01ICJEACDI@?$DL@

; 2404 : 
; 2405 : 		return( strResult );

  00500	c7 45 a4 00 04
	00 00		 mov	 DWORD PTR $T15[ebp], 1024 ; 00000400H
  00507	ff 70 f4	 push	 DWORD PTR [eax-12]
  0050a	50		 push	 eax
  0050b	8d 45 b0	 lea	 eax, DWORD PTR $T36[ebp]
  0050e	50		 push	 eax
  0050f	ff 15 00 00 00
	00		 call	 DWORD PTR __imp_?Concatenate@?$CSimpleStringT@D$00@ATL@@KAXAAV12@PBDH1H@Z
  00515	83 c4 14	 add	 esp, 20			; 00000014H
; File D:\git\src\IBK\IBK_DRFN\ProjSrc\SrcChartEx\ChartAddIn\ChartAnalysisToolAddIn\Symbol\ElementSaverBuilder.cpp

; 81   : 	strSymbolData += CDataConversion::RGB2Str(pSymbol->GetColor()) + ";"; 		

  00518	8d 45 b0	 lea	 eax, DWORD PTR $T36[ebp]
  0051b	8d 4d a8	 lea	 ecx, DWORD PTR _strSymbolData$[ebp]
  0051e	50		 push	 eax
  0051f	ff 15 00 00 00
	00		 call	 DWORD PTR __imp_??Y?$CStringT@DV?$StrTraitMFC_DLL@DV?$ChTraitsCRT@D@ATL@@@@@ATL@@QAEAAV01@ABV?$CSimpleStringT@D$00@1@@Z
  00525	8d 4d b0	 lea	 ecx, DWORD PTR $T36[ebp]
  00528	ff 15 00 00 00
	00		 call	 DWORD PTR __imp_??1?$CStringT@DV?$StrTraitMFC_DLL@DV?$ChTraitsCRT@D@ATL@@@@@ATL@@QAE@XZ
  0052e	8d 4d ac	 lea	 ecx, DWORD PTR $T20[ebp]
  00531	c6 45 fc 01	 mov	 BYTE PTR __$EHRec$[ebp+8], 1
  00535	ff 15 00 00 00
	00		 call	 DWORD PTR __imp_??1?$CStringT@DV?$StrTraitMFC_DLL@DV?$ChTraitsCRT@D@ATL@@@@@ATL@@QAE@XZ

; 82   : 	strSymbolData += CDataConversion::IntToString(pSymbol->GetWeight()) + ";";

  0053b	8b cb		 mov	 ecx, ebx
  0053d	e8 00 00 00 00	 call	 ?GetWeight@CDrawingSymbol@@QBEHXZ ; CDrawingSymbol::GetWeight
  00542	50		 push	 eax
  00543	8d 45 ac	 lea	 eax, DWORD PTR $T19[ebp]
  00546	50		 push	 eax
  00547	e8 00 00 00 00	 call	 ?IntToString@CDataConversion@@SA?AV?$CStringT@DV?$StrTraitMFC_DLL@DV?$ChTraitsCRT@D@ATL@@@@@ATL@@H@Z ; CDataConversion::IntToString
  0054c	83 c4 08	 add	 esp, 8
  0054f	8b f0		 mov	 esi, eax
; File C:\Program Files (x86)\Microsoft Visual Studio\2019\Community\VC\Tools\MSVC\14.29.30133\atlmfc\include\cstringt.h

; 2401 : 		CStringT strResult( str1.GetManager() );

  00551	8b ce		 mov	 ecx, esi
; File D:\git\src\IBK\IBK_DRFN\ProjSrc\SrcChartEx\ChartAddIn\ChartAnalysisToolAddIn\Symbol\ElementSaverBuilder.cpp

; 82   : 	strSymbolData += CDataConversion::IntToString(pSymbol->GetWeight()) + ";";

  00553	c6 45 fc 17	 mov	 BYTE PTR __$EHRec$[ebp+8], 23 ; 00000017H
; File C:\Program Files (x86)\Microsoft Visual Studio\2019\Community\VC\Tools\MSVC\14.29.30133\atlmfc\include\cstringt.h

; 2401 : 		CStringT strResult( str1.GetManager() );

  00557	ff 15 00 00 00
	00		 call	 DWORD PTR __imp_?GetManager@?$CStringT@DV?$StrTraitMFC_DLL@DV?$ChTraitsCRT@D@ATL@@@@@ATL@@QBEPAUIAtlStringMgr@2@XZ
  0055d	50		 push	 eax
  0055e	8d 4d b0	 lea	 ecx, DWORD PTR $T35[ebp]
  00561	ff 15 00 00 00
	00		 call	 DWORD PTR __imp_??0?$CStringT@DV?$StrTraitMFC_DLL@DV?$ChTraitsCRT@D@ATL@@@@@ATL@@QAE@PAUIAtlStringMgr@1@@Z
; File C:\Program Files (x86)\Microsoft Visual Studio\2019\Community\VC\Tools\MSVC\14.29.30133\atlmfc\include\atlsimpstr.h

; 519  : 		return( GetData()->nDataLength );

  00567	8b 06		 mov	 eax, DWORD PTR [esi]
; File C:\Program Files (x86)\Microsoft Visual Studio\2019\Community\VC\Tools\MSVC\14.29.30133\atlmfc\include\cstringt.h

; 2403 : 		CThisSimpleString::Concatenate( strResult, str1, str1.GetLength(), psz2, CThisSimpleString::StringLength( psz2 ) );

  00569	6a 01		 push	 1
  0056b	68 00 00 00 00	 push	 OFFSET ??_C@_01ICJEACDI@?$DL@

; 2404 : 
; 2405 : 		return( strResult );

  00570	c7 45 a4 00 08
	00 00		 mov	 DWORD PTR $T15[ebp], 2048 ; 00000800H
  00577	ff 70 f4	 push	 DWORD PTR [eax-12]
  0057a	50		 push	 eax
  0057b	8d 45 b0	 lea	 eax, DWORD PTR $T35[ebp]
  0057e	50		 push	 eax
  0057f	ff 15 00 00 00
	00		 call	 DWORD PTR __imp_?Concatenate@?$CSimpleStringT@D$00@ATL@@KAXAAV12@PBDH1H@Z
  00585	83 c4 14	 add	 esp, 20			; 00000014H
; File D:\git\src\IBK\IBK_DRFN\ProjSrc\SrcChartEx\ChartAddIn\ChartAnalysisToolAddIn\Symbol\ElementSaverBuilder.cpp

; 82   : 	strSymbolData += CDataConversion::IntToString(pSymbol->GetWeight()) + ";";

  00588	8d 45 b0	 lea	 eax, DWORD PTR $T35[ebp]
  0058b	8d 4d a8	 lea	 ecx, DWORD PTR _strSymbolData$[ebp]
  0058e	50		 push	 eax
  0058f	ff 15 00 00 00
	00		 call	 DWORD PTR __imp_??Y?$CStringT@DV?$StrTraitMFC_DLL@DV?$ChTraitsCRT@D@ATL@@@@@ATL@@QAEAAV01@ABV?$CSimpleStringT@D$00@1@@Z
  00595	8d 4d b0	 lea	 ecx, DWORD PTR $T35[ebp]
  00598	ff 15 00 00 00
	00		 call	 DWORD PTR __imp_??1?$CStringT@DV?$StrTraitMFC_DLL@DV?$ChTraitsCRT@D@ATL@@@@@ATL@@QAE@XZ
  0059e	8d 4d ac	 lea	 ecx, DWORD PTR $T19[ebp]
  005a1	c6 45 fc 01	 mov	 BYTE PTR __$EHRec$[ebp+8], 1
  005a5	ff 15 00 00 00
	00		 call	 DWORD PTR __imp_??1?$CStringT@DV?$StrTraitMFC_DLL@DV?$ChTraitsCRT@D@ATL@@@@@ATL@@QAE@XZ

; 84   : 	strSymbolData += CDataConversion::IntToString(pSymbol->GetFillState()) + ";"; 		

  005ab	8b cb		 mov	 ecx, ebx
  005ad	e8 00 00 00 00	 call	 ?GetFillState@CDrawingSymbol@@QAE_NXZ ; CDrawingSymbol::GetFillState
  005b2	0f b6 c0	 movzx	 eax, al
  005b5	50		 push	 eax
  005b6	8d 45 ac	 lea	 eax, DWORD PTR $T18[ebp]
  005b9	50		 push	 eax
  005ba	e8 00 00 00 00	 call	 ?IntToString@CDataConversion@@SA?AV?$CStringT@DV?$StrTraitMFC_DLL@DV?$ChTraitsCRT@D@ATL@@@@@ATL@@H@Z ; CDataConversion::IntToString
  005bf	83 c4 08	 add	 esp, 8
  005c2	8b f0		 mov	 esi, eax
; File C:\Program Files (x86)\Microsoft Visual Studio\2019\Community\VC\Tools\MSVC\14.29.30133\atlmfc\include\cstringt.h

; 2401 : 		CStringT strResult( str1.GetManager() );

  005c4	8b ce		 mov	 ecx, esi
; File D:\git\src\IBK\IBK_DRFN\ProjSrc\SrcChartEx\ChartAddIn\ChartAnalysisToolAddIn\Symbol\ElementSaverBuilder.cpp

; 84   : 	strSymbolData += CDataConversion::IntToString(pSymbol->GetFillState()) + ";"; 		

  005c6	c6 45 fc 19	 mov	 BYTE PTR __$EHRec$[ebp+8], 25 ; 00000019H
; File C:\Program Files (x86)\Microsoft Visual Studio\2019\Community\VC\Tools\MSVC\14.29.30133\atlmfc\include\cstringt.h

; 2401 : 		CStringT strResult( str1.GetManager() );

  005ca	ff 15 00 00 00
	00		 call	 DWORD PTR __imp_?GetManager@?$CStringT@DV?$StrTraitMFC_DLL@DV?$ChTraitsCRT@D@ATL@@@@@ATL@@QBEPAUIAtlStringMgr@2@XZ
  005d0	50		 push	 eax
  005d1	8d 4d b0	 lea	 ecx, DWORD PTR $T34[ebp]
  005d4	ff 15 00 00 00
	00		 call	 DWORD PTR __imp_??0?$CStringT@DV?$StrTraitMFC_DLL@DV?$ChTraitsCRT@D@ATL@@@@@ATL@@QAE@PAUIAtlStringMgr@1@@Z
; File C:\Program Files (x86)\Microsoft Visual Studio\2019\Community\VC\Tools\MSVC\14.29.30133\atlmfc\include\atlsimpstr.h

; 519  : 		return( GetData()->nDataLength );

  005da	8b 06		 mov	 eax, DWORD PTR [esi]
; File C:\Program Files (x86)\Microsoft Visual Studio\2019\Community\VC\Tools\MSVC\14.29.30133\atlmfc\include\cstringt.h

; 2403 : 		CThisSimpleString::Concatenate( strResult, str1, str1.GetLength(), psz2, CThisSimpleString::StringLength( psz2 ) );

  005dc	6a 01		 push	 1
  005de	68 00 00 00 00	 push	 OFFSET ??_C@_01ICJEACDI@?$DL@

; 2404 : 
; 2405 : 		return( strResult );

  005e3	c7 45 a4 00 10
	00 00		 mov	 DWORD PTR $T15[ebp], 4096 ; 00001000H
  005ea	ff 70 f4	 push	 DWORD PTR [eax-12]
  005ed	50		 push	 eax
  005ee	8d 45 b0	 lea	 eax, DWORD PTR $T34[ebp]
  005f1	50		 push	 eax
  005f2	ff 15 00 00 00
	00		 call	 DWORD PTR __imp_?Concatenate@?$CSimpleStringT@D$00@ATL@@KAXAAV12@PBDH1H@Z
  005f8	83 c4 14	 add	 esp, 20			; 00000014H
; File D:\git\src\IBK\IBK_DRFN\ProjSrc\SrcChartEx\ChartAddIn\ChartAnalysisToolAddIn\Symbol\ElementSaverBuilder.cpp

; 84   : 	strSymbolData += CDataConversion::IntToString(pSymbol->GetFillState()) + ";"; 		

  005fb	8d 45 b0	 lea	 eax, DWORD PTR $T34[ebp]
  005fe	8d 4d a8	 lea	 ecx, DWORD PTR _strSymbolData$[ebp]
  00601	50		 push	 eax
  00602	ff 15 00 00 00
	00		 call	 DWORD PTR __imp_??Y?$CStringT@DV?$StrTraitMFC_DLL@DV?$ChTraitsCRT@D@ATL@@@@@ATL@@QAEAAV01@ABV?$CSimpleStringT@D$00@1@@Z
  00608	8d 4d b0	 lea	 ecx, DWORD PTR $T34[ebp]
  0060b	ff 15 00 00 00
	00		 call	 DWORD PTR __imp_??1?$CStringT@DV?$StrTraitMFC_DLL@DV?$ChTraitsCRT@D@ATL@@@@@ATL@@QAE@XZ
  00611	8d 4d ac	 lea	 ecx, DWORD PTR $T18[ebp]
  00614	c6 45 fc 01	 mov	 BYTE PTR __$EHRec$[ebp+8], 1
  00618	ff 15 00 00 00
	00		 call	 DWORD PTR __imp_??1?$CStringT@DV?$StrTraitMFC_DLL@DV?$ChTraitsCRT@D@ATL@@@@@ATL@@QAE@XZ

; 85   : 	strSymbolData += MakeStringFromLOGFONT(pSymbol->GetLogFont()) + ";";	

  0061e	8d 45 b4	 lea	 eax, DWORD PTR $T46[ebp]
  00621	8b cb		 mov	 ecx, ebx
  00623	50		 push	 eax
  00624	e8 00 00 00 00	 call	 ?GetLogFont@CDrawingSymbol@@QAE?AUtagLOGFONTA@@XZ ; CDrawingSymbol::GetLogFont
  00629	8b 4d 9c	 mov	 ecx, DWORD PTR _this$GSCopy$1$[ebp]
  0062c	50		 push	 eax
  0062d	8d 45 ac	 lea	 eax, DWORD PTR $T17[ebp]
  00630	50		 push	 eax
  00631	e8 00 00 00 00	 call	 ?MakeStringFromLOGFONT@CElementSaverBuilder@@AAE?AV?$CStringT@DV?$StrTraitMFC_DLL@DV?$ChTraitsCRT@D@ATL@@@@@ATL@@ABUtagLOGFONTA@@@Z ; CElementSaverBuilder::MakeStringFromLOGFONT
  00636	8b f0		 mov	 esi, eax
; File C:\Program Files (x86)\Microsoft Visual Studio\2019\Community\VC\Tools\MSVC\14.29.30133\atlmfc\include\cstringt.h

; 2401 : 		CStringT strResult( str1.GetManager() );

  00638	8b ce		 mov	 ecx, esi
; File D:\git\src\IBK\IBK_DRFN\ProjSrc\SrcChartEx\ChartAddIn\ChartAnalysisToolAddIn\Symbol\ElementSaverBuilder.cpp

; 85   : 	strSymbolData += MakeStringFromLOGFONT(pSymbol->GetLogFont()) + ";";	

  0063a	c6 45 fc 1b	 mov	 BYTE PTR __$EHRec$[ebp+8], 27 ; 0000001bH
; File C:\Program Files (x86)\Microsoft Visual Studio\2019\Community\VC\Tools\MSVC\14.29.30133\atlmfc\include\cstringt.h

; 2401 : 		CStringT strResult( str1.GetManager() );

  0063e	ff 15 00 00 00
	00		 call	 DWORD PTR __imp_?GetManager@?$CStringT@DV?$StrTraitMFC_DLL@DV?$ChTraitsCRT@D@ATL@@@@@ATL@@QBEPAUIAtlStringMgr@2@XZ
  00644	50		 push	 eax
  00645	8d 4d b0	 lea	 ecx, DWORD PTR $T33[ebp]
  00648	ff 15 00 00 00
	00		 call	 DWORD PTR __imp_??0?$CStringT@DV?$StrTraitMFC_DLL@DV?$ChTraitsCRT@D@ATL@@@@@ATL@@QAE@PAUIAtlStringMgr@1@@Z
; File C:\Program Files (x86)\Microsoft Visual Studio\2019\Community\VC\Tools\MSVC\14.29.30133\atlmfc\include\atlsimpstr.h

; 519  : 		return( GetData()->nDataLength );

  0064e	8b 06		 mov	 eax, DWORD PTR [esi]
; File C:\Program Files (x86)\Microsoft Visual Studio\2019\Community\VC\Tools\MSVC\14.29.30133\atlmfc\include\cstringt.h

; 2403 : 		CThisSimpleString::Concatenate( strResult, str1, str1.GetLength(), psz2, CThisSimpleString::StringLength( psz2 ) );

  00650	6a 01		 push	 1
  00652	68 00 00 00 00	 push	 OFFSET ??_C@_01ICJEACDI@?$DL@

; 2404 : 
; 2405 : 		return( strResult );

  00657	c7 45 a4 00 20
	00 00		 mov	 DWORD PTR $T15[ebp], 8192 ; 00002000H
  0065e	ff 70 f4	 push	 DWORD PTR [eax-12]
  00661	50		 push	 eax

; 2403 : 		CThisSimpleString::Concatenate( strResult, str1, str1.GetLength(), psz2, CThisSimpleString::StringLength( psz2 ) );

  00662	8d 45 b0	 lea	 eax, DWORD PTR $T33[ebp]
  00665	50		 push	 eax
  00666	ff 15 00 00 00
	00		 call	 DWORD PTR __imp_?Concatenate@?$CSimpleStringT@D$00@ATL@@KAXAAV12@PBDH1H@Z
  0066c	83 c4 14	 add	 esp, 20			; 00000014H
; File D:\git\src\IBK\IBK_DRFN\ProjSrc\SrcChartEx\ChartAddIn\ChartAnalysisToolAddIn\Symbol\ElementSaverBuilder.cpp

; 85   : 	strSymbolData += MakeStringFromLOGFONT(pSymbol->GetLogFont()) + ";";	

  0066f	8d 45 b0	 lea	 eax, DWORD PTR $T33[ebp]
  00672	8d 4d a8	 lea	 ecx, DWORD PTR _strSymbolData$[ebp]
  00675	50		 push	 eax
  00676	ff 15 00 00 00
	00		 call	 DWORD PTR __imp_??Y?$CStringT@DV?$StrTraitMFC_DLL@DV?$ChTraitsCRT@D@ATL@@@@@ATL@@QAEAAV01@ABV?$CSimpleStringT@D$00@1@@Z
  0067c	8d 4d b0	 lea	 ecx, DWORD PTR $T33[ebp]
  0067f	ff 15 00 00 00
	00		 call	 DWORD PTR __imp_??1?$CStringT@DV?$StrTraitMFC_DLL@DV?$ChTraitsCRT@D@ATL@@@@@ATL@@QAE@XZ
  00685	8d 4d ac	 lea	 ecx, DWORD PTR $T17[ebp]
  00688	c6 45 fc 01	 mov	 BYTE PTR __$EHRec$[ebp+8], 1
  0068c	ff 15 00 00 00
	00		 call	 DWORD PTR __imp_??1?$CStringT@DV?$StrTraitMFC_DLL@DV?$ChTraitsCRT@D@ATL@@@@@ATL@@QAE@XZ

; 87   : 	strSymbolData += CDataConversion::RGB2Str(pSymbol->GetTextColor()) + ";"; 

  00692	8b cb		 mov	 ecx, ebx
  00694	e8 00 00 00 00	 call	 ?GetTextColor@CDrawingSymbol@@QBEKXZ ; CDrawingSymbol::GetTextColor
  00699	50		 push	 eax
  0069a	8d 45 9c	 lea	 eax, DWORD PTR $T14[ebp]
  0069d	50		 push	 eax
  0069e	e8 00 00 00 00	 call	 ?RGB2Str@CDataConversion@@SA?AV?$CStringT@DV?$StrTraitMFC_DLL@DV?$ChTraitsCRT@D@ATL@@@@@ATL@@K@Z ; CDataConversion::RGB2Str
  006a3	83 c4 08	 add	 esp, 8
  006a6	8b f0		 mov	 esi, eax
; File C:\Program Files (x86)\Microsoft Visual Studio\2019\Community\VC\Tools\MSVC\14.29.30133\atlmfc\include\cstringt.h

; 2401 : 		CStringT strResult( str1.GetManager() );

  006a8	8b ce		 mov	 ecx, esi
; File D:\git\src\IBK\IBK_DRFN\ProjSrc\SrcChartEx\ChartAddIn\ChartAnalysisToolAddIn\Symbol\ElementSaverBuilder.cpp

; 87   : 	strSymbolData += CDataConversion::RGB2Str(pSymbol->GetTextColor()) + ";"; 

  006aa	c6 45 fc 1d	 mov	 BYTE PTR __$EHRec$[ebp+8], 29 ; 0000001dH
; File C:\Program Files (x86)\Microsoft Visual Studio\2019\Community\VC\Tools\MSVC\14.29.30133\atlmfc\include\cstringt.h

; 2401 : 		CStringT strResult( str1.GetManager() );

  006ae	ff 15 00 00 00
	00		 call	 DWORD PTR __imp_?GetManager@?$CStringT@DV?$StrTraitMFC_DLL@DV?$ChTraitsCRT@D@ATL@@@@@ATL@@QBEPAUIAtlStringMgr@2@XZ
  006b4	50		 push	 eax
  006b5	8d 4d b0	 lea	 ecx, DWORD PTR $T32[ebp]
  006b8	ff 15 00 00 00
	00		 call	 DWORD PTR __imp_??0?$CStringT@DV?$StrTraitMFC_DLL@DV?$ChTraitsCRT@D@ATL@@@@@ATL@@QAE@PAUIAtlStringMgr@1@@Z
; File C:\Program Files (x86)\Microsoft Visual Studio\2019\Community\VC\Tools\MSVC\14.29.30133\atlmfc\include\atlsimpstr.h

; 519  : 		return( GetData()->nDataLength );

  006be	8b 06		 mov	 eax, DWORD PTR [esi]
; File C:\Program Files (x86)\Microsoft Visual Studio\2019\Community\VC\Tools\MSVC\14.29.30133\atlmfc\include\cstringt.h

; 2403 : 		CThisSimpleString::Concatenate( strResult, str1, str1.GetLength(), psz2, CThisSimpleString::StringLength( psz2 ) );

  006c0	6a 01		 push	 1
  006c2	68 00 00 00 00	 push	 OFFSET ??_C@_01ICJEACDI@?$DL@

; 2404 : 
; 2405 : 		return( strResult );

  006c7	c7 45 a4 00 40
	00 00		 mov	 DWORD PTR $T15[ebp], 16384 ; 00004000H
  006ce	ff 70 f4	 push	 DWORD PTR [eax-12]
  006d1	50		 push	 eax
  006d2	8d 45 b0	 lea	 eax, DWORD PTR $T32[ebp]
  006d5	50		 push	 eax
  006d6	ff 15 00 00 00
	00		 call	 DWORD PTR __imp_?Concatenate@?$CSimpleStringT@D$00@ATL@@KAXAAV12@PBDH1H@Z
  006dc	83 c4 14	 add	 esp, 20			; 00000014H
; File D:\git\src\IBK\IBK_DRFN\ProjSrc\SrcChartEx\ChartAddIn\ChartAnalysisToolAddIn\Symbol\ElementSaverBuilder.cpp

; 87   : 	strSymbolData += CDataConversion::RGB2Str(pSymbol->GetTextColor()) + ";"; 

  006df	8d 45 b0	 lea	 eax, DWORD PTR $T32[ebp]
  006e2	8d 4d a8	 lea	 ecx, DWORD PTR _strSymbolData$[ebp]
  006e5	50		 push	 eax
  006e6	ff 15 00 00 00
	00		 call	 DWORD PTR __imp_??Y?$CStringT@DV?$StrTraitMFC_DLL@DV?$ChTraitsCRT@D@ATL@@@@@ATL@@QAEAAV01@ABV?$CSimpleStringT@D$00@1@@Z
  006ec	8d 4d b0	 lea	 ecx, DWORD PTR $T32[ebp]
  006ef	ff 15 00 00 00
	00		 call	 DWORD PTR __imp_??1?$CStringT@DV?$StrTraitMFC_DLL@DV?$ChTraitsCRT@D@ATL@@@@@ATL@@QAE@XZ
  006f5	8d 4d 9c	 lea	 ecx, DWORD PTR $T14[ebp]
  006f8	c6 45 fc 01	 mov	 BYTE PTR __$EHRec$[ebp+8], 1
  006fc	ff 15 00 00 00
	00		 call	 DWORD PTR __imp_??1?$CStringT@DV?$StrTraitMFC_DLL@DV?$ChTraitsCRT@D@ATL@@@@@ATL@@QAE@XZ

; 88   : 	strSymbolData += CDataConversion::Bool2Str(pSymbol->DidDrawFromTop()) + ";";

  00702	8b 03		 mov	 eax, DWORD PTR [ebx]
  00704	8b cb		 mov	 ecx, ebx
  00706	8b 40 34	 mov	 eax, DWORD PTR [eax+52]
  00709	ff d0		 call	 eax
  0070b	0f b6 c0	 movzx	 eax, al
  0070e	50		 push	 eax
  0070f	8d 45 9c	 lea	 eax, DWORD PTR $T13[ebp]
  00712	50		 push	 eax
  00713	e8 00 00 00 00	 call	 ?Bool2Str@CDataConversion@@SA?AV?$CStringT@DV?$StrTraitMFC_DLL@DV?$ChTraitsCRT@D@ATL@@@@@ATL@@H@Z ; CDataConversion::Bool2Str
  00718	83 c4 08	 add	 esp, 8
  0071b	8b f0		 mov	 esi, eax
; File C:\Program Files (x86)\Microsoft Visual Studio\2019\Community\VC\Tools\MSVC\14.29.30133\atlmfc\include\cstringt.h

; 2401 : 		CStringT strResult( str1.GetManager() );

  0071d	8b ce		 mov	 ecx, esi
; File D:\git\src\IBK\IBK_DRFN\ProjSrc\SrcChartEx\ChartAddIn\ChartAnalysisToolAddIn\Symbol\ElementSaverBuilder.cpp

; 88   : 	strSymbolData += CDataConversion::Bool2Str(pSymbol->DidDrawFromTop()) + ";";

  0071f	c6 45 fc 1f	 mov	 BYTE PTR __$EHRec$[ebp+8], 31 ; 0000001fH
; File C:\Program Files (x86)\Microsoft Visual Studio\2019\Community\VC\Tools\MSVC\14.29.30133\atlmfc\include\cstringt.h

; 2401 : 		CStringT strResult( str1.GetManager() );

  00723	ff 15 00 00 00
	00		 call	 DWORD PTR __imp_?GetManager@?$CStringT@DV?$StrTraitMFC_DLL@DV?$ChTraitsCRT@D@ATL@@@@@ATL@@QBEPAUIAtlStringMgr@2@XZ
  00729	50		 push	 eax
  0072a	8d 4d b0	 lea	 ecx, DWORD PTR $T31[ebp]
  0072d	ff 15 00 00 00
	00		 call	 DWORD PTR __imp_??0?$CStringT@DV?$StrTraitMFC_DLL@DV?$ChTraitsCRT@D@ATL@@@@@ATL@@QAE@PAUIAtlStringMgr@1@@Z
; File C:\Program Files (x86)\Microsoft Visual Studio\2019\Community\VC\Tools\MSVC\14.29.30133\atlmfc\include\atlsimpstr.h

; 519  : 		return( GetData()->nDataLength );

  00733	8b 06		 mov	 eax, DWORD PTR [esi]
; File C:\Program Files (x86)\Microsoft Visual Studio\2019\Community\VC\Tools\MSVC\14.29.30133\atlmfc\include\cstringt.h

; 2403 : 		CThisSimpleString::Concatenate( strResult, str1, str1.GetLength(), psz2, CThisSimpleString::StringLength( psz2 ) );

  00735	6a 01		 push	 1
  00737	68 00 00 00 00	 push	 OFFSET ??_C@_01ICJEACDI@?$DL@

; 2404 : 
; 2405 : 		return( strResult );

  0073c	c7 45 a4 00 80
	00 00		 mov	 DWORD PTR $T15[ebp], 32768 ; 00008000H
  00743	ff 70 f4	 push	 DWORD PTR [eax-12]
  00746	50		 push	 eax
  00747	8d 45 b0	 lea	 eax, DWORD PTR $T31[ebp]
  0074a	50		 push	 eax
  0074b	ff 15 00 00 00
	00		 call	 DWORD PTR __imp_?Concatenate@?$CSimpleStringT@D$00@ATL@@KAXAAV12@PBDH1H@Z
  00751	83 c4 14	 add	 esp, 20			; 00000014H
; File D:\git\src\IBK\IBK_DRFN\ProjSrc\SrcChartEx\ChartAddIn\ChartAnalysisToolAddIn\Symbol\ElementSaverBuilder.cpp

; 88   : 	strSymbolData += CDataConversion::Bool2Str(pSymbol->DidDrawFromTop()) + ";";

  00754	8d 45 b0	 lea	 eax, DWORD PTR $T31[ebp]
  00757	8d 4d a8	 lea	 ecx, DWORD PTR _strSymbolData$[ebp]
  0075a	50		 push	 eax
  0075b	ff 15 00 00 00
	00		 call	 DWORD PTR __imp_??Y?$CStringT@DV?$StrTraitMFC_DLL@DV?$ChTraitsCRT@D@ATL@@@@@ATL@@QAEAAV01@ABV?$CSimpleStringT@D$00@1@@Z
  00761	8d 4d b0	 lea	 ecx, DWORD PTR $T31[ebp]
  00764	ff 15 00 00 00
	00		 call	 DWORD PTR __imp_??1?$CStringT@DV?$StrTraitMFC_DLL@DV?$ChTraitsCRT@D@ATL@@@@@ATL@@QAE@XZ
  0076a	8d 4d 9c	 lea	 ecx, DWORD PTR $T13[ebp]
  0076d	c6 45 fc 01	 mov	 BYTE PTR __$EHRec$[ebp+8], 1
  00771	ff 15 00 00 00
	00		 call	 DWORD PTR __imp_??1?$CStringT@DV?$StrTraitMFC_DLL@DV?$ChTraitsCRT@D@ATL@@@@@ATL@@QAE@XZ

; 90   : 	strSymbolData += CDataConversion::IntToString(pSymbol->GetStartPoint().GetTimeDiff()) + ";\r\n";

  00777	8b 03		 mov	 eax, DWORD PTR [ebx]
  00779	8d 8d 7c ff ff
	ff		 lea	 ecx, DWORD PTR $T2[ebp]
  0077f	51		 push	 ecx
  00780	8b cb		 mov	 ecx, ebx
  00782	ff 50 20	 call	 DWORD PTR [eax+32]
  00785	8b c8		 mov	 ecx, eax
  00787	e8 00 00 00 00	 call	 ?GetTimeDiff@CCoordinate@@QBEHXZ ; CCoordinate::GetTimeDiff
  0078c	50		 push	 eax
  0078d	8d 45 ac	 lea	 eax, DWORD PTR $T16[ebp]
  00790	50		 push	 eax
  00791	e8 00 00 00 00	 call	 ?IntToString@CDataConversion@@SA?AV?$CStringT@DV?$StrTraitMFC_DLL@DV?$ChTraitsCRT@D@ATL@@@@@ATL@@H@Z ; CDataConversion::IntToString
  00796	83 c4 08	 add	 esp, 8
  00799	8b f0		 mov	 esi, eax
; File C:\Program Files (x86)\Microsoft Visual Studio\2019\Community\VC\Tools\MSVC\14.29.30133\atlmfc\include\cstringt.h

; 2401 : 		CStringT strResult( str1.GetManager() );

  0079b	8b ce		 mov	 ecx, esi
; File D:\git\src\IBK\IBK_DRFN\ProjSrc\SrcChartEx\ChartAddIn\ChartAnalysisToolAddIn\Symbol\ElementSaverBuilder.cpp

; 90   : 	strSymbolData += CDataConversion::IntToString(pSymbol->GetStartPoint().GetTimeDiff()) + ";\r\n";

  0079d	c6 45 fc 21	 mov	 BYTE PTR __$EHRec$[ebp+8], 33 ; 00000021H
; File C:\Program Files (x86)\Microsoft Visual Studio\2019\Community\VC\Tools\MSVC\14.29.30133\atlmfc\include\cstringt.h

; 2401 : 		CStringT strResult( str1.GetManager() );

  007a1	ff 15 00 00 00
	00		 call	 DWORD PTR __imp_?GetManager@?$CStringT@DV?$StrTraitMFC_DLL@DV?$ChTraitsCRT@D@ATL@@@@@ATL@@QBEPAUIAtlStringMgr@2@XZ
  007a7	50		 push	 eax
  007a8	8d 4d b0	 lea	 ecx, DWORD PTR $T30[ebp]
  007ab	ff 15 00 00 00
	00		 call	 DWORD PTR __imp_??0?$CStringT@DV?$StrTraitMFC_DLL@DV?$ChTraitsCRT@D@ATL@@@@@ATL@@QAE@PAUIAtlStringMgr@1@@Z
; File C:\Program Files (x86)\Microsoft Visual Studio\2019\Community\VC\Tools\MSVC\14.29.30133\atlmfc\include\atlsimpstr.h

; 519  : 		return( GetData()->nDataLength );

  007b1	8b 06		 mov	 eax, DWORD PTR [esi]
; File C:\Program Files (x86)\Microsoft Visual Studio\2019\Community\VC\Tools\MSVC\14.29.30133\atlmfc\include\cstringt.h

; 2403 : 		CThisSimpleString::Concatenate( strResult, str1, str1.GetLength(), psz2, CThisSimpleString::StringLength( psz2 ) );

  007b3	6a 03		 push	 3
  007b5	68 00 00 00 00	 push	 OFFSET ??_C@_03LKGCEJK@?$DL?$AN?6@

; 2404 : 
; 2405 : 		return( strResult );

  007ba	c7 45 a4 00 00
	01 00		 mov	 DWORD PTR $T15[ebp], 65536 ; 00010000H
  007c1	ff 70 f4	 push	 DWORD PTR [eax-12]
  007c4	50		 push	 eax
  007c5	8d 45 b0	 lea	 eax, DWORD PTR $T30[ebp]
  007c8	50		 push	 eax
  007c9	ff 15 00 00 00
	00		 call	 DWORD PTR __imp_?Concatenate@?$CSimpleStringT@D$00@ATL@@KAXAAV12@PBDH1H@Z
  007cf	83 c4 14	 add	 esp, 20			; 00000014H
; File D:\git\src\IBK\IBK_DRFN\ProjSrc\SrcChartEx\ChartAddIn\ChartAnalysisToolAddIn\Symbol\ElementSaverBuilder.cpp

; 90   : 	strSymbolData += CDataConversion::IntToString(pSymbol->GetStartPoint().GetTimeDiff()) + ";\r\n";

  007d2	8d 45 b0	 lea	 eax, DWORD PTR $T30[ebp]
  007d5	8d 4d a8	 lea	 ecx, DWORD PTR _strSymbolData$[ebp]
  007d8	50		 push	 eax
  007d9	ff 15 00 00 00
	00		 call	 DWORD PTR __imp_??Y?$CStringT@DV?$StrTraitMFC_DLL@DV?$ChTraitsCRT@D@ATL@@@@@ATL@@QAEAAV01@ABV?$CSimpleStringT@D$00@1@@Z
  007df	8d 4d b0	 lea	 ecx, DWORD PTR $T30[ebp]
  007e2	ff 15 00 00 00
	00		 call	 DWORD PTR __imp_??1?$CStringT@DV?$StrTraitMFC_DLL@DV?$ChTraitsCRT@D@ATL@@@@@ATL@@QAE@XZ
  007e8	8d 4d ac	 lea	 ecx, DWORD PTR $T16[ebp]
  007eb	c6 45 fc 01	 mov	 BYTE PTR __$EHRec$[ebp+8], 1
  007ef	ff 15 00 00 00
	00		 call	 DWORD PTR __imp_??1?$CStringT@DV?$StrTraitMFC_DLL@DV?$ChTraitsCRT@D@ATL@@@@@ATL@@QAE@XZ

; 91   : 	strSymbolData += "SymbolEnd;\r\n";

  007f5	68 00 00 00 00	 push	 OFFSET ??_C@_0N@CKIGEMFE@SymbolEnd?$DL?$AN?6@
  007fa	8d 4d a8	 lea	 ecx, DWORD PTR _strSymbolData$[ebp]
  007fd	ff 15 00 00 00
	00		 call	 DWORD PTR __imp_??Y?$CStringT@DV?$StrTraitMFC_DLL@DV?$ChTraitsCRT@D@ATL@@@@@ATL@@QAEAAV01@PBD@Z

; 92   : 
; 93   : 	return strSymbolData;

  00803	8d 45 a8	 lea	 eax, DWORD PTR _strSymbolData$[ebp]
  00806	8b cf		 mov	 ecx, edi
  00808	50		 push	 eax
  00809	ff 15 00 00 00
	00		 call	 DWORD PTR __imp_??0?$CStringT@DV?$StrTraitMFC_DLL@DV?$ChTraitsCRT@D@ATL@@@@@ATL@@QAE@ABV01@@Z
  0080f	8d 4d a8	 lea	 ecx, DWORD PTR _strSymbolData$[ebp]
  00812	ff 15 00 00 00
	00		 call	 DWORD PTR __imp_??1?$CStringT@DV?$StrTraitMFC_DLL@DV?$ChTraitsCRT@D@ATL@@@@@ATL@@QAE@XZ
$LN255@GetSavedSy:

; 94   : }

  00818	8d 4d a0	 lea	 ecx, DWORD PTR _strIndex$[ebp]
  0081b	ff 15 00 00 00
	00		 call	 DWORD PTR __imp_??1?$CStringT@DV?$StrTraitMFC_DLL@DV?$ChTraitsCRT@D@ATL@@@@@ATL@@QAE@XZ
  00821	8b c7		 mov	 eax, edi
  00823	8b 4d f4	 mov	 ecx, DWORD PTR __$EHRec$[ebp]
  00826	64 89 0d 00 00
	00 00		 mov	 DWORD PTR fs:0, ecx
  0082d	59		 pop	 ecx
  0082e	5f		 pop	 edi
  0082f	5e		 pop	 esi
  00830	5b		 pop	 ebx
  00831	8b 4d f0	 mov	 ecx, DWORD PTR __$ArrayPad$[ebp]
  00834	33 cd		 xor	 ecx, ebp
  00836	e8 00 00 00 00	 call	 @__security_check_cookie@4
  0083b	8b e5		 mov	 esp, ebp
  0083d	5d		 pop	 ebp
  0083e	c2 0c 00	 ret	 12			; 0000000cH
_TEXT	ENDS
;	COMDAT text$x
text$x	SEGMENT
__unwindfunclet$?GetSavedSymbolData_ForUndoRedo@CElementSaverBuilder@@QAE?AV?$CStringT@DV?$StrTraitMFC_DLL@DV?$ChTraitsCRT@D@ATL@@@@@ATL@@ABVCOrder@@PAVCDrawingSymbol@@@Z$0:
  00000	8d 4d a0	 lea	 ecx, DWORD PTR _strIndex$[ebp]
  00003	ff 25 00 00 00
	00		 jmp	 DWORD PTR __imp_??1?$CStringT@DV?$StrTraitMFC_DLL@DV?$ChTraitsCRT@D@ATL@@@@@ATL@@QAE@XZ
__unwindfunclet$?GetSavedSymbolData_ForUndoRedo@CElementSaverBuilder@@QAE?AV?$CStringT@DV?$StrTraitMFC_DLL@DV?$ChTraitsCRT@D@ATL@@@@@ATL@@ABVCOrder@@PAVCDrawingSymbol@@@Z$2:
  00009	8d 4d a8	 lea	 ecx, DWORD PTR _strSymbolData$[ebp]
  0000c	ff 25 00 00 00
	00		 jmp	 DWORD PTR __imp_??1?$CStringT@DV?$StrTraitMFC_DLL@DV?$ChTraitsCRT@D@ATL@@@@@ATL@@QAE@XZ
__unwindfunclet$?GetSavedSymbolData_ForUndoRedo@CElementSaverBuilder@@QAE?AV?$CStringT@DV?$StrTraitMFC_DLL@DV?$ChTraitsCRT@D@ATL@@@@@ATL@@ABVCOrder@@PAVCDrawingSymbol@@@Z$3:
  00012	8d 4d ac	 lea	 ecx, DWORD PTR $T29[ebp]
  00015	ff 25 00 00 00
	00		 jmp	 DWORD PTR __imp_??1?$CStringT@DV?$StrTraitMFC_DLL@DV?$ChTraitsCRT@D@ATL@@@@@ATL@@QAE@XZ
__unwindfunclet$?GetSavedSymbolData_ForUndoRedo@CElementSaverBuilder@@QAE?AV?$CStringT@DV?$StrTraitMFC_DLL@DV?$ChTraitsCRT@D@ATL@@@@@ATL@@ABVCOrder@@PAVCDrawingSymbol@@@Z$35:
  0001b	8b 45 a4	 mov	 eax, DWORD PTR $T15[ebp]
  0001e	83 e0 02	 and	 eax, 2
  00021	0f 84 0d 00 00
	00		 je	 $LN49@GetSavedSy
  00027	83 65 a4 fd	 and	 DWORD PTR $T15[ebp], -3	; fffffffdH
  0002b	8d 4d b0	 lea	 ecx, DWORD PTR $T45[ebp]
  0002e	ff 25 00 00 00
	00		 jmp	 DWORD PTR __imp_??1?$CStringT@DV?$StrTraitMFC_DLL@DV?$ChTraitsCRT@D@ATL@@@@@ATL@@QAE@XZ
$LN49@GetSavedSy:
  00034	c3		 ret	 0
__unwindfunclet$?GetSavedSymbolData_ForUndoRedo@CElementSaverBuilder@@QAE?AV?$CStringT@DV?$StrTraitMFC_DLL@DV?$ChTraitsCRT@D@ATL@@@@@ATL@@ABVCOrder@@PAVCDrawingSymbol@@@Z$5:
  00035	8d 4d ac	 lea	 ecx, DWORD PTR $T28[ebp]
  00038	ff 25 00 00 00
	00		 jmp	 DWORD PTR __imp_??1?$CStringT@DV?$StrTraitMFC_DLL@DV?$ChTraitsCRT@D@ATL@@@@@ATL@@QAE@XZ
__unwindfunclet$?GetSavedSymbolData_ForUndoRedo@CElementSaverBuilder@@QAE?AV?$CStringT@DV?$StrTraitMFC_DLL@DV?$ChTraitsCRT@D@ATL@@@@@ATL@@ABVCOrder@@PAVCDrawingSymbol@@@Z$36:
  0003e	8b 45 a4	 mov	 eax, DWORD PTR $T15[ebp]
  00041	83 e0 04	 and	 eax, 4
  00044	0f 84 0d 00 00
	00		 je	 $LN62@GetSavedSy
  0004a	83 65 a4 fb	 and	 DWORD PTR $T15[ebp], -5	; fffffffbH
  0004e	8d 4d b0	 lea	 ecx, DWORD PTR $T44[ebp]
  00051	ff 25 00 00 00
	00		 jmp	 DWORD PTR __imp_??1?$CStringT@DV?$StrTraitMFC_DLL@DV?$ChTraitsCRT@D@ATL@@@@@ATL@@QAE@XZ
$LN62@GetSavedSy:
  00057	c3		 ret	 0
__unwindfunclet$?GetSavedSymbolData_ForUndoRedo@CElementSaverBuilder@@QAE?AV?$CStringT@DV?$StrTraitMFC_DLL@DV?$ChTraitsCRT@D@ATL@@@@@ATL@@ABVCOrder@@PAVCDrawingSymbol@@@Z$7:
  00058	8d 4d ac	 lea	 ecx, DWORD PTR $T27[ebp]
  0005b	ff 25 00 00 00
	00		 jmp	 DWORD PTR __imp_??1?$CStringT@DV?$StrTraitMFC_DLL@DV?$ChTraitsCRT@D@ATL@@@@@ATL@@QAE@XZ
__unwindfunclet$?GetSavedSymbolData_ForUndoRedo@CElementSaverBuilder@@QAE?AV?$CStringT@DV?$StrTraitMFC_DLL@DV?$ChTraitsCRT@D@ATL@@@@@ATL@@ABVCOrder@@PAVCDrawingSymbol@@@Z$37:
  00061	8b 45 a4	 mov	 eax, DWORD PTR $T15[ebp]
  00064	83 e0 08	 and	 eax, 8
  00067	0f 84 0d 00 00
	00		 je	 $LN75@GetSavedSy
  0006d	83 65 a4 f7	 and	 DWORD PTR $T15[ebp], -9	; fffffff7H
  00071	8d 4d b0	 lea	 ecx, DWORD PTR $T43[ebp]
  00074	ff 25 00 00 00
	00		 jmp	 DWORD PTR __imp_??1?$CStringT@DV?$StrTraitMFC_DLL@DV?$ChTraitsCRT@D@ATL@@@@@ATL@@QAE@XZ
$LN75@GetSavedSy:
  0007a	c3		 ret	 0
__unwindfunclet$?GetSavedSymbolData_ForUndoRedo@CElementSaverBuilder@@QAE?AV?$CStringT@DV?$StrTraitMFC_DLL@DV?$ChTraitsCRT@D@ATL@@@@@ATL@@ABVCOrder@@PAVCDrawingSymbol@@@Z$9:
  0007b	8d 4d ac	 lea	 ecx, DWORD PTR $T26[ebp]
  0007e	ff 25 00 00 00
	00		 jmp	 DWORD PTR __imp_??1?$CStringT@DV?$StrTraitMFC_DLL@DV?$ChTraitsCRT@D@ATL@@@@@ATL@@QAE@XZ
__unwindfunclet$?GetSavedSymbolData_ForUndoRedo@CElementSaverBuilder@@QAE?AV?$CStringT@DV?$StrTraitMFC_DLL@DV?$ChTraitsCRT@D@ATL@@@@@ATL@@ABVCOrder@@PAVCDrawingSymbol@@@Z$38:
  00084	8b 45 a4	 mov	 eax, DWORD PTR $T15[ebp]
  00087	83 e0 10	 and	 eax, 16			; 00000010H
  0008a	0f 84 0d 00 00
	00		 je	 $LN88@GetSavedSy
  00090	83 65 a4 ef	 and	 DWORD PTR $T15[ebp], -17 ; ffffffefH
  00094	8d 4d b0	 lea	 ecx, DWORD PTR $T42[ebp]
  00097	ff 25 00 00 00
	00		 jmp	 DWORD PTR __imp_??1?$CStringT@DV?$StrTraitMFC_DLL@DV?$ChTraitsCRT@D@ATL@@@@@ATL@@QAE@XZ
$LN88@GetSavedSy:
  0009d	c3		 ret	 0
__unwindfunclet$?GetSavedSymbolData_ForUndoRedo@CElementSaverBuilder@@QAE?AV?$CStringT@DV?$StrTraitMFC_DLL@DV?$ChTraitsCRT@D@ATL@@@@@ATL@@ABVCOrder@@PAVCDrawingSymbol@@@Z$11:
  0009e	8d 4d ac	 lea	 ecx, DWORD PTR $T25[ebp]
  000a1	ff 25 00 00 00
	00		 jmp	 DWORD PTR __imp_??1?$CStringT@DV?$StrTraitMFC_DLL@DV?$ChTraitsCRT@D@ATL@@@@@ATL@@QAE@XZ
__unwindfunclet$?GetSavedSymbolData_ForUndoRedo@CElementSaverBuilder@@QAE?AV?$CStringT@DV?$StrTraitMFC_DLL@DV?$ChTraitsCRT@D@ATL@@@@@ATL@@ABVCOrder@@PAVCDrawingSymbol@@@Z$39:
  000a7	8b 45 a4	 mov	 eax, DWORD PTR $T15[ebp]
  000aa	83 e0 20	 and	 eax, 32			; 00000020H
  000ad	0f 84 0d 00 00
	00		 je	 $LN101@GetSavedSy
  000b3	83 65 a4 df	 and	 DWORD PTR $T15[ebp], -33 ; ffffffdfH
  000b7	8d 4d b0	 lea	 ecx, DWORD PTR $T41[ebp]
  000ba	ff 25 00 00 00
	00		 jmp	 DWORD PTR __imp_??1?$CStringT@DV?$StrTraitMFC_DLL@DV?$ChTraitsCRT@D@ATL@@@@@ATL@@QAE@XZ
$LN101@GetSavedSy:
  000c0	c3		 ret	 0
__unwindfunclet$?GetSavedSymbolData_ForUndoRedo@CElementSaverBuilder@@QAE?AV?$CStringT@DV?$StrTraitMFC_DLL@DV?$ChTraitsCRT@D@ATL@@@@@ATL@@ABVCOrder@@PAVCDrawingSymbol@@@Z$13:
  000c1	8d 4d ac	 lea	 ecx, DWORD PTR $T24[ebp]
  000c4	ff 25 00 00 00
	00		 jmp	 DWORD PTR __imp_??1?$CStringT@DV?$StrTraitMFC_DLL@DV?$ChTraitsCRT@D@ATL@@@@@ATL@@QAE@XZ
__unwindfunclet$?GetSavedSymbolData_ForUndoRedo@CElementSaverBuilder@@QAE?AV?$CStringT@DV?$StrTraitMFC_DLL@DV?$ChTraitsCRT@D@ATL@@@@@ATL@@ABVCOrder@@PAVCDrawingSymbol@@@Z$40:
  000ca	8b 45 a4	 mov	 eax, DWORD PTR $T15[ebp]
  000cd	83 e0 40	 and	 eax, 64			; 00000040H
  000d0	0f 84 0d 00 00
	00		 je	 $LN114@GetSavedSy
  000d6	83 65 a4 bf	 and	 DWORD PTR $T15[ebp], -65 ; ffffffbfH
  000da	8d 4d b0	 lea	 ecx, DWORD PTR $T40[ebp]
  000dd	ff 25 00 00 00
	00		 jmp	 DWORD PTR __imp_??1?$CStringT@DV?$StrTraitMFC_DLL@DV?$ChTraitsCRT@D@ATL@@@@@ATL@@QAE@XZ
$LN114@GetSavedSy:
  000e3	c3		 ret	 0
__unwindfunclet$?GetSavedSymbolData_ForUndoRedo@CElementSaverBuilder@@QAE?AV?$CStringT@DV?$StrTraitMFC_DLL@DV?$ChTraitsCRT@D@ATL@@@@@ATL@@ABVCOrder@@PAVCDrawingSymbol@@@Z$15:
  000e4	8d 4d ac	 lea	 ecx, DWORD PTR $T23[ebp]
  000e7	ff 25 00 00 00
	00		 jmp	 DWORD PTR __imp_??1?$CStringT@DV?$StrTraitMFC_DLL@DV?$ChTraitsCRT@D@ATL@@@@@ATL@@QAE@XZ
__unwindfunclet$?GetSavedSymbolData_ForUndoRedo@CElementSaverBuilder@@QAE?AV?$CStringT@DV?$StrTraitMFC_DLL@DV?$ChTraitsCRT@D@ATL@@@@@ATL@@ABVCOrder@@PAVCDrawingSymbol@@@Z$41:
  000ed	8b 45 a4	 mov	 eax, DWORD PTR $T15[ebp]
  000f0	25 80 00 00 00	 and	 eax, 128		; 00000080H
  000f5	0f 84 10 00 00
	00		 je	 $LN127@GetSavedSy
  000fb	81 65 a4 7f ff
	ff ff		 and	 DWORD PTR $T15[ebp], -129 ; ffffff7fH
  00102	8d 4d b0	 lea	 ecx, DWORD PTR $T39[ebp]
  00105	ff 25 00 00 00
	00		 jmp	 DWORD PTR __imp_??1?$CStringT@DV?$StrTraitMFC_DLL@DV?$ChTraitsCRT@D@ATL@@@@@ATL@@QAE@XZ
$LN127@GetSavedSy:
  0010b	c3		 ret	 0
__unwindfunclet$?GetSavedSymbolData_ForUndoRedo@CElementSaverBuilder@@QAE?AV?$CStringT@DV?$StrTraitMFC_DLL@DV?$ChTraitsCRT@D@ATL@@@@@ATL@@ABVCOrder@@PAVCDrawingSymbol@@@Z$17:
  0010c	8d 4d ac	 lea	 ecx, DWORD PTR $T22[ebp]
  0010f	ff 25 00 00 00
	00		 jmp	 DWORD PTR __imp_??1?$CStringT@DV?$StrTraitMFC_DLL@DV?$ChTraitsCRT@D@ATL@@@@@ATL@@QAE@XZ
__unwindfunclet$?GetSavedSymbolData_ForUndoRedo@CElementSaverBuilder@@QAE?AV?$CStringT@DV?$StrTraitMFC_DLL@DV?$ChTraitsCRT@D@ATL@@@@@ATL@@ABVCOrder@@PAVCDrawingSymbol@@@Z$42:
  00115	8b 45 a4	 mov	 eax, DWORD PTR $T15[ebp]
  00118	25 00 01 00 00	 and	 eax, 256		; 00000100H
  0011d	0f 84 10 00 00
	00		 je	 $LN140@GetSavedSy
  00123	81 65 a4 ff fe
	ff ff		 and	 DWORD PTR $T15[ebp], -257 ; fffffeffH
  0012a	8d 4d b0	 lea	 ecx, DWORD PTR $T38[ebp]
  0012d	ff 25 00 00 00
	00		 jmp	 DWORD PTR __imp_??1?$CStringT@DV?$StrTraitMFC_DLL@DV?$ChTraitsCRT@D@ATL@@@@@ATL@@QAE@XZ
$LN140@GetSavedSy:
  00133	c3		 ret	 0
__unwindfunclet$?GetSavedSymbolData_ForUndoRedo@CElementSaverBuilder@@QAE?AV?$CStringT@DV?$StrTraitMFC_DLL@DV?$ChTraitsCRT@D@ATL@@@@@ATL@@ABVCOrder@@PAVCDrawingSymbol@@@Z$19:
  00134	8d 4d ac	 lea	 ecx, DWORD PTR $T21[ebp]
  00137	ff 25 00 00 00
	00		 jmp	 DWORD PTR __imp_??1?$CStringT@DV?$StrTraitMFC_DLL@DV?$ChTraitsCRT@D@ATL@@@@@ATL@@QAE@XZ
__unwindfunclet$?GetSavedSymbolData_ForUndoRedo@CElementSaverBuilder@@QAE?AV?$CStringT@DV?$StrTraitMFC_DLL@DV?$ChTraitsCRT@D@ATL@@@@@ATL@@ABVCOrder@@PAVCDrawingSymbol@@@Z$43:
  0013d	8b 45 a4	 mov	 eax, DWORD PTR $T15[ebp]
  00140	25 00 02 00 00	 and	 eax, 512		; 00000200H
  00145	0f 84 10 00 00
	00		 je	 $LN153@GetSavedSy
  0014b	81 65 a4 ff fd
	ff ff		 and	 DWORD PTR $T15[ebp], -513 ; fffffdffH
  00152	8d 4d b0	 lea	 ecx, DWORD PTR $T37[ebp]
  00155	ff 25 00 00 00
	00		 jmp	 DWORD PTR __imp_??1?$CStringT@DV?$StrTraitMFC_DLL@DV?$ChTraitsCRT@D@ATL@@@@@ATL@@QAE@XZ
$LN153@GetSavedSy:
  0015b	c3		 ret	 0
__unwindfunclet$?GetSavedSymbolData_ForUndoRedo@CElementSaverBuilder@@QAE?AV?$CStringT@DV?$StrTraitMFC_DLL@DV?$ChTraitsCRT@D@ATL@@@@@ATL@@ABVCOrder@@PAVCDrawingSymbol@@@Z$21:
  0015c	8d 4d ac	 lea	 ecx, DWORD PTR $T20[ebp]
  0015f	ff 25 00 00 00
	00		 jmp	 DWORD PTR __imp_??1?$CStringT@DV?$StrTraitMFC_DLL@DV?$ChTraitsCRT@D@ATL@@@@@ATL@@QAE@XZ
__unwindfunclet$?GetSavedSymbolData_ForUndoRedo@CElementSaverBuilder@@QAE?AV?$CStringT@DV?$StrTraitMFC_DLL@DV?$ChTraitsCRT@D@ATL@@@@@ATL@@ABVCOrder@@PAVCDrawingSymbol@@@Z$44:
  00165	8b 45 a4	 mov	 eax, DWORD PTR $T15[ebp]
  00168	25 00 04 00 00	 and	 eax, 1024		; 00000400H
  0016d	0f 84 10 00 00
	00		 je	 $LN166@GetSavedSy
  00173	81 65 a4 ff fb
	ff ff		 and	 DWORD PTR $T15[ebp], -1025 ; fffffbffH
  0017a	8d 4d b0	 lea	 ecx, DWORD PTR $T36[ebp]
  0017d	ff 25 00 00 00
	00		 jmp	 DWORD PTR __imp_??1?$CStringT@DV?$StrTraitMFC_DLL@DV?$ChTraitsCRT@D@ATL@@@@@ATL@@QAE@XZ
$LN166@GetSavedSy:
  00183	c3		 ret	 0
__unwindfunclet$?GetSavedSymbolData_ForUndoRedo@CElementSaverBuilder@@QAE?AV?$CStringT@DV?$StrTraitMFC_DLL@DV?$ChTraitsCRT@D@ATL@@@@@ATL@@ABVCOrder@@PAVCDrawingSymbol@@@Z$23:
  00184	8d 4d ac	 lea	 ecx, DWORD PTR $T19[ebp]
  00187	ff 25 00 00 00
	00		 jmp	 DWORD PTR __imp_??1?$CStringT@DV?$StrTraitMFC_DLL@DV?$ChTraitsCRT@D@ATL@@@@@ATL@@QAE@XZ
__unwindfunclet$?GetSavedSymbolData_ForUndoRedo@CElementSaverBuilder@@QAE?AV?$CStringT@DV?$StrTraitMFC_DLL@DV?$ChTraitsCRT@D@ATL@@@@@ATL@@ABVCOrder@@PAVCDrawingSymbol@@@Z$45:
  0018d	8b 45 a4	 mov	 eax, DWORD PTR $T15[ebp]
  00190	25 00 08 00 00	 and	 eax, 2048		; 00000800H
  00195	0f 84 10 00 00
	00		 je	 $LN179@GetSavedSy
  0019b	81 65 a4 ff f7
	ff ff		 and	 DWORD PTR $T15[ebp], -2049 ; fffff7ffH
  001a2	8d 4d b0	 lea	 ecx, DWORD PTR $T35[ebp]
  001a5	ff 25 00 00 00
	00		 jmp	 DWORD PTR __imp_??1?$CStringT@DV?$StrTraitMFC_DLL@DV?$ChTraitsCRT@D@ATL@@@@@ATL@@QAE@XZ
$LN179@GetSavedSy:
  001ab	c3		 ret	 0
__unwindfunclet$?GetSavedSymbolData_ForUndoRedo@CElementSaverBuilder@@QAE?AV?$CStringT@DV?$StrTraitMFC_DLL@DV?$ChTraitsCRT@D@ATL@@@@@ATL@@ABVCOrder@@PAVCDrawingSymbol@@@Z$25:
  001ac	8d 4d ac	 lea	 ecx, DWORD PTR $T18[ebp]
  001af	ff 25 00 00 00
	00		 jmp	 DWORD PTR __imp_??1?$CStringT@DV?$StrTraitMFC_DLL@DV?$ChTraitsCRT@D@ATL@@@@@ATL@@QAE@XZ
__unwindfunclet$?GetSavedSymbolData_ForUndoRedo@CElementSaverBuilder@@QAE?AV?$CStringT@DV?$StrTraitMFC_DLL@DV?$ChTraitsCRT@D@ATL@@@@@ATL@@ABVCOrder@@PAVCDrawingSymbol@@@Z$46:
  001b5	8b 45 a4	 mov	 eax, DWORD PTR $T15[ebp]
  001b8	25 00 10 00 00	 and	 eax, 4096		; 00001000H
  001bd	0f 84 10 00 00
	00		 je	 $LN192@GetSavedSy
  001c3	81 65 a4 ff ef
	ff ff		 and	 DWORD PTR $T15[ebp], -4097 ; ffffefffH
  001ca	8d 4d b0	 lea	 ecx, DWORD PTR $T34[ebp]
  001cd	ff 25 00 00 00
	00		 jmp	 DWORD PTR __imp_??1?$CStringT@DV?$StrTraitMFC_DLL@DV?$ChTraitsCRT@D@ATL@@@@@ATL@@QAE@XZ
$LN192@GetSavedSy:
  001d3	c3		 ret	 0
__unwindfunclet$?GetSavedSymbolData_ForUndoRedo@CElementSaverBuilder@@QAE?AV?$CStringT@DV?$StrTraitMFC_DLL@DV?$ChTraitsCRT@D@ATL@@@@@ATL@@ABVCOrder@@PAVCDrawingSymbol@@@Z$27:
  001d4	8d 4d ac	 lea	 ecx, DWORD PTR $T17[ebp]
  001d7	ff 25 00 00 00
	00		 jmp	 DWORD PTR __imp_??1?$CStringT@DV?$StrTraitMFC_DLL@DV?$ChTraitsCRT@D@ATL@@@@@ATL@@QAE@XZ
__unwindfunclet$?GetSavedSymbolData_ForUndoRedo@CElementSaverBuilder@@QAE?AV?$CStringT@DV?$StrTraitMFC_DLL@DV?$ChTraitsCRT@D@ATL@@@@@ATL@@ABVCOrder@@PAVCDrawingSymbol@@@Z$47:
  001dd	8b 45 a4	 mov	 eax, DWORD PTR $T15[ebp]
  001e0	25 00 20 00 00	 and	 eax, 8192		; 00002000H
  001e5	0f 84 10 00 00
	00		 je	 $LN205@GetSavedSy
  001eb	81 65 a4 ff df
	ff ff		 and	 DWORD PTR $T15[ebp], -8193 ; ffffdfffH
  001f2	8d 4d b0	 lea	 ecx, DWORD PTR $T33[ebp]
  001f5	ff 25 00 00 00
	00		 jmp	 DWORD PTR __imp_??1?$CStringT@DV?$StrTraitMFC_DLL@DV?$ChTraitsCRT@D@ATL@@@@@ATL@@QAE@XZ
$LN205@GetSavedSy:
  001fb	c3		 ret	 0
__unwindfunclet$?GetSavedSymbolData_ForUndoRedo@CElementSaverBuilder@@QAE?AV?$CStringT@DV?$StrTraitMFC_DLL@DV?$ChTraitsCRT@D@ATL@@@@@ATL@@ABVCOrder@@PAVCDrawingSymbol@@@Z$29:
  001fc	8d 4d 9c	 lea	 ecx, DWORD PTR $T14[ebp]
  001ff	ff 25 00 00 00
	00		 jmp	 DWORD PTR __imp_??1?$CStringT@DV?$StrTraitMFC_DLL@DV?$ChTraitsCRT@D@ATL@@@@@ATL@@QAE@XZ
__unwindfunclet$?GetSavedSymbolData_ForUndoRedo@CElementSaverBuilder@@QAE?AV?$CStringT@DV?$StrTraitMFC_DLL@DV?$ChTraitsCRT@D@ATL@@@@@ATL@@ABVCOrder@@PAVCDrawingSymbol@@@Z$48:
  00205	8b 45 a4	 mov	 eax, DWORD PTR $T15[ebp]
  00208	25 00 40 00 00	 and	 eax, 16384		; 00004000H
  0020d	0f 84 10 00 00
	00		 je	 $LN218@GetSavedSy
  00213	81 65 a4 ff bf
	ff ff		 and	 DWORD PTR $T15[ebp], -16385 ; ffffbfffH
  0021a	8d 4d b0	 lea	 ecx, DWORD PTR $T32[ebp]
  0021d	ff 25 00 00 00
	00		 jmp	 DWORD PTR __imp_??1?$CStringT@DV?$StrTraitMFC_DLL@DV?$ChTraitsCRT@D@ATL@@@@@ATL@@QAE@XZ
$LN218@GetSavedSy:
  00223	c3		 ret	 0
__unwindfunclet$?GetSavedSymbolData_ForUndoRedo@CElementSaverBuilder@@QAE?AV?$CStringT@DV?$StrTraitMFC_DLL@DV?$ChTraitsCRT@D@ATL@@@@@ATL@@ABVCOrder@@PAVCDrawingSymbol@@@Z$31:
  00224	8d 4d 9c	 lea	 ecx, DWORD PTR $T13[ebp]
  00227	ff 25 00 00 00
	00		 jmp	 DWORD PTR __imp_??1?$CStringT@DV?$StrTraitMFC_DLL@DV?$ChTraitsCRT@D@ATL@@@@@ATL@@QAE@XZ
__unwindfunclet$?GetSavedSymbolData_ForUndoRedo@CElementSaverBuilder@@QAE?AV?$CStringT@DV?$StrTraitMFC_DLL@DV?$ChTraitsCRT@D@ATL@@@@@ATL@@ABVCOrder@@PAVCDrawingSymbol@@@Z$49:
  0022d	8b 45 a4	 mov	 eax, DWORD PTR $T15[ebp]
  00230	25 00 80 00 00	 and	 eax, 32768		; 00008000H
  00235	0f 84 10 00 00
	00		 je	 $LN231@GetSavedSy
  0023b	81 65 a4 ff 7f
	ff ff		 and	 DWORD PTR $T15[ebp], -32769 ; ffff7fffH
  00242	8d 4d b0	 lea	 ecx, DWORD PTR $T31[ebp]
  00245	ff 25 00 00 00
	00		 jmp	 DWORD PTR __imp_??1?$CStringT@DV?$StrTraitMFC_DLL@DV?$ChTraitsCRT@D@ATL@@@@@ATL@@QAE@XZ
$LN231@GetSavedSy:
  0024b	c3		 ret	 0
__unwindfunclet$?GetSavedSymbolData_ForUndoRedo@CElementSaverBuilder@@QAE?AV?$CStringT@DV?$StrTraitMFC_DLL@DV?$ChTraitsCRT@D@ATL@@@@@ATL@@ABVCOrder@@PAVCDrawingSymbol@@@Z$33:
  0024c	8d 4d ac	 lea	 ecx, DWORD PTR $T16[ebp]
  0024f	ff 25 00 00 00
	00		 jmp	 DWORD PTR __imp_??1?$CStringT@DV?$StrTraitMFC_DLL@DV?$ChTraitsCRT@D@ATL@@@@@ATL@@QAE@XZ
__unwindfunclet$?GetSavedSymbolData_ForUndoRedo@CElementSaverBuilder@@QAE?AV?$CStringT@DV?$StrTraitMFC_DLL@DV?$ChTraitsCRT@D@ATL@@@@@ATL@@ABVCOrder@@PAVCDrawingSymbol@@@Z$50:
  00255	8b 45 a4	 mov	 eax, DWORD PTR $T15[ebp]
  00258	25 00 00 01 00	 and	 eax, 65536		; 00010000H
  0025d	0f 84 10 00 00
	00		 je	 $LN244@GetSavedSy
  00263	81 65 a4 ff ff
	fe ff		 and	 DWORD PTR $T15[ebp], -65537 ; fffeffffH
  0026a	8d 4d b0	 lea	 ecx, DWORD PTR $T30[ebp]
  0026d	ff 25 00 00 00
	00		 jmp	 DWORD PTR __imp_??1?$CStringT@DV?$StrTraitMFC_DLL@DV?$ChTraitsCRT@D@ATL@@@@@ATL@@QAE@XZ
$LN244@GetSavedSy:
  00273	c3		 ret	 0
  00274	cc		 int	 3
  00275	cc		 int	 3
  00276	cc		 int	 3
  00277	cc		 int	 3
  00278	cc		 int	 3
__ehhandler$?GetSavedSymbolData_ForUndoRedo@CElementSaverBuilder@@QAE?AV?$CStringT@DV?$StrTraitMFC_DLL@DV?$ChTraitsCRT@D@ATL@@@@@ATL@@ABVCOrder@@PAVCDrawingSymbol@@@Z:
  00279	90		 npad	 1
  0027a	90		 npad	 1
  0027b	8b 54 24 08	 mov	 edx, DWORD PTR [esp+8]
  0027f	8d 42 0c	 lea	 eax, DWORD PTR [edx+12]
  00282	8b 8a 78 ff ff
	ff		 mov	 ecx, DWORD PTR [edx-136]
  00288	33 c8		 xor	 ecx, eax
  0028a	e8 00 00 00 00	 call	 @__security_check_cookie@4
  0028f	8b 4a fc	 mov	 ecx, DWORD PTR [edx-4]
  00292	33 c8		 xor	 ecx, eax
  00294	e8 00 00 00 00	 call	 @__security_check_cookie@4
  00299	b8 00 00 00 00	 mov	 eax, OFFSET __ehfuncinfo$?GetSavedSymbolData_ForUndoRedo@CElementSaverBuilder@@QAE?AV?$CStringT@DV?$StrTraitMFC_DLL@DV?$ChTraitsCRT@D@ATL@@@@@ATL@@ABVCOrder@@PAVCDrawingSymbol@@@Z
  0029e	e9 00 00 00 00	 jmp	 ___CxxFrameHandler3
text$x	ENDS
?GetSavedSymbolData_ForUndoRedo@CElementSaverBuilder@@QAE?AV?$CStringT@DV?$StrTraitMFC_DLL@DV?$ChTraitsCRT@D@ATL@@@@@ATL@@ABVCOrder@@PAVCDrawingSymbol@@@Z ENDP ; CElementSaverBuilder::GetSavedSymbolData_ForUndoRedo
; Function compile flags: /Ogtp
; File D:\git\src\IBK\IBK_DRFN\ProjSrc\SrcChartEx\ChartAddIn\ChartAnalysisToolAddIn\Symbol\ElementSaverBuilder.cpp
; File C:\Program Files (x86)\Microsoft Visual Studio\2019\Community\VC\Tools\MSVC\14.29.30133\atlmfc\include\afxtempl.h
; File D:\git\src\IBK\IBK_DRFN\ProjSrc\SrcChartEx\ChartAddIn\ChartAnalysisToolAddIn\Symbol\ElementSaverBuilder.cpp
;	COMDAT ?BuildSymbolsFromString@CElementSaverBuilder@@QAEXW4HORZSCALEDRAWERTYPE@CScaleBaseData@@ABV?$CStringT@DV?$StrTraitMFC_DLL@DV?$ChTraitsCRT@D@ATL@@@@@ATL@@AAVCTree@@AAVCOrder@@@Z
_TEXT	SEGMENT
_orderset$ = -52					; size = 32
_this$1$ = -20						; size = 4
$T2 = -16						; size = 4
$T3 = -16						; size = 4
__$EHRec$ = -12						; size = 12
_eScaleType$ = 8					; size = 4
_alldata$ = 12						; size = 4
_data$ = 12						; size = 4
$T4 = 16						; size = 4
_tree$ = 16						; size = 4
_order$ = 20						; size = 4
?BuildSymbolsFromString@CElementSaverBuilder@@QAEXW4HORZSCALEDRAWERTYPE@CScaleBaseData@@ABV?$CStringT@DV?$StrTraitMFC_DLL@DV?$ChTraitsCRT@D@ATL@@@@@ATL@@AAVCTree@@AAVCOrder@@@Z PROC ; CElementSaverBuilder::BuildSymbolsFromString, COMDAT
; _this$ = ecx

; 142  : {

  00000	55		 push	 ebp
  00001	8b ec		 mov	 ebp, esp
  00003	6a ff		 push	 -1
  00005	68 00 00 00 00	 push	 __ehhandler$?BuildSymbolsFromString@CElementSaverBuilder@@QAEXW4HORZSCALEDRAWERTYPE@CScaleBaseData@@ABV?$CStringT@DV?$StrTraitMFC_DLL@DV?$ChTraitsCRT@D@ATL@@@@@ATL@@AAVCTree@@AAVCOrder@@@Z
  0000a	64 a1 00 00 00
	00		 mov	 eax, DWORD PTR fs:0
  00010	50		 push	 eax
  00011	83 ec 28	 sub	 esp, 40			; 00000028H
  00014	53		 push	 ebx
  00015	56		 push	 esi
  00016	57		 push	 edi
  00017	a1 00 00 00 00	 mov	 eax, DWORD PTR ___security_cookie
  0001c	33 c5		 xor	 eax, ebp
  0001e	50		 push	 eax
  0001f	8d 45 f4	 lea	 eax, DWORD PTR __$EHRec$[ebp]
  00022	64 a3 00 00 00
	00		 mov	 DWORD PTR fs:0, eax
  00028	89 4d ec	 mov	 DWORD PTR _this$1$[ebp], ecx
  0002b	c7 45 cc 00 00
	00 00		 mov	 DWORD PTR _orderset$[ebp], OFFSET ??_7COrderSet@@6B@
; File C:\Program Files (x86)\Microsoft Visual Studio\2019\Community\VC\Tools\MSVC\14.29.30133\atlmfc\include\afxtempl.h

; 851  : {

  00032	c7 45 d0 00 00
	00 00		 mov	 DWORD PTR _orderset$[ebp+4], OFFSET ??_7?$CList@PAVCOrderAndElement@@PAV1@@@6B@

; 852  : 	ASSERT(nBlockSize > 0);
; 853  : 
; 854  : 	m_nCount = 0;

  00039	c7 45 dc 00 00
	00 00		 mov	 DWORD PTR _orderset$[ebp+16], 0

; 855  : 	m_pNodeHead = m_pNodeTail = m_pNodeFree = NULL;

  00040	c7 45 e0 00 00
	00 00		 mov	 DWORD PTR _orderset$[ebp+20], 0
  00047	c7 45 d8 00 00
	00 00		 mov	 DWORD PTR _orderset$[ebp+12], 0
  0004e	c7 45 d4 00 00
	00 00		 mov	 DWORD PTR _orderset$[ebp+8], 0

; 856  : 	m_pBlocks = NULL;

  00055	c7 45 e4 00 00
	00 00		 mov	 DWORD PTR _orderset$[ebp+24], 0

; 857  : 	m_nBlockSize = nBlockSize;

  0005c	c7 45 e8 0a 00
	00 00		 mov	 DWORD PTR _orderset$[ebp+28], 10 ; 0000000aH
; File D:\git\src\IBK\IBK_DRFN\ProjSrc\SrcChartEx\ChartAddIn\ChartAnalysisToolAddIn\Symbol\ElementSaverBuilder.cpp

; 145  : 	CString alldata = data;

  00063	ff 75 0c	 push	 DWORD PTR _data$[ebp]
  00066	8d 4d 0c	 lea	 ecx, DWORD PTR _alldata$[ebp]
  00069	c7 45 fc 00 00
	00 00		 mov	 DWORD PTR __$EHRec$[ebp+8], 0
  00070	ff 15 00 00 00
	00		 call	 DWORD PTR __imp_??0?$CStringT@DV?$StrTraitMFC_DLL@DV?$ChTraitsCRT@D@ATL@@@@@ATL@@QAE@ABV01@@Z

; 146  : 	int nCount = CDataConversion::GetStringDataCount(alldata, "BlockColumnEnd;\r\n");

  00076	68 00 00 00 00	 push	 OFFSET ??_C@_0BC@DENBEKI@BlockColumnEnd?$DL?$AN?6@
  0007b	8d 4d f0	 lea	 ecx, DWORD PTR $T3[ebp]
  0007e	c6 45 fc 01	 mov	 BYTE PTR __$EHRec$[ebp+8], 1
  00082	ff 15 00 00 00
	00		 call	 DWORD PTR __imp_??0?$CStringT@DV?$StrTraitMFC_DLL@DV?$ChTraitsCRT@D@ATL@@@@@ATL@@QAE@PBD@Z
  00088	8d 45 f0	 lea	 eax, DWORD PTR $T3[ebp]
  0008b	c6 45 fc 02	 mov	 BYTE PTR __$EHRec$[ebp+8], 2
  0008f	50		 push	 eax
  00090	8d 45 0c	 lea	 eax, DWORD PTR _alldata$[ebp]
  00093	50		 push	 eax
  00094	e8 00 00 00 00	 call	 ?GetStringDataCount@CDataConversion@@SAHABV?$CStringT@DV?$StrTraitMFC_DLL@DV?$ChTraitsCRT@D@ATL@@@@@ATL@@0@Z ; CDataConversion::GetStringDataCount
  00099	83 c4 08	 add	 esp, 8
  0009c	c6 45 fc 01	 mov	 BYTE PTR __$EHRec$[ebp+8], 1
  000a0	8d 4d f0	 lea	 ecx, DWORD PTR $T3[ebp]
  000a3	8b f8		 mov	 edi, eax
  000a5	ff 15 00 00 00
	00		 call	 DWORD PTR __imp_??1?$CStringT@DV?$StrTraitMFC_DLL@DV?$ChTraitsCRT@D@ATL@@@@@ATL@@QAE@XZ

; 147  : 
; 148  : 	for(int nColumn = 0; nColumn < nCount ; nColumn++)

  000ab	33 f6		 xor	 esi, esi
  000ad	85 ff		 test	 edi, edi
  000af	7e 68		 jle	 SHORT $LN3@BuildSymbo
  000b1	8b 5d 10	 mov	 ebx, DWORD PTR _tree$[ebp]
  000b4	0f 1f 40 00 0f
	1f 84 00 00 00
	00 00		 npad	 12
$LL4@BuildSymbo:

; 149  : 	{
; 150  : 		// 2011.02.07 by SYS >>  YYYY()  : / 14Byte  (YYYYMMDDhhmmss)
; 151  : 		//BuildSymbolsFromString_Column(CDataConversion::GetStringData(alldata, "BlockColumnEnd;\r\n"),
; 152  : 		//	nColumn, tree, orderset);
; 153  : 		BuildSymbolsFromString_Column(eScaleType, CDataConversion::GetStringData(alldata, "BlockColumnEnd;\r\n"),

  000c0	68 00 00 00 00	 push	 OFFSET ??_C@_0BC@DENBEKI@BlockColumnEnd?$DL?$AN?6@
  000c5	8d 4d 10	 lea	 ecx, DWORD PTR $T4[ebp]
  000c8	ff 15 00 00 00
	00		 call	 DWORD PTR __imp_??0?$CStringT@DV?$StrTraitMFC_DLL@DV?$ChTraitsCRT@D@ATL@@@@@ATL@@QAE@PBD@Z
  000ce	6a 01		 push	 1
  000d0	8d 45 10	 lea	 eax, DWORD PTR $T4[ebp]
  000d3	c6 45 fc 03	 mov	 BYTE PTR __$EHRec$[ebp+8], 3
  000d7	50		 push	 eax
  000d8	8d 45 0c	 lea	 eax, DWORD PTR _alldata$[ebp]
  000db	50		 push	 eax
  000dc	8d 45 f0	 lea	 eax, DWORD PTR $T2[ebp]
  000df	50		 push	 eax
  000e0	e8 00 00 00 00	 call	 ?GetStringData@CDataConversion@@SA?AV?$CStringT@DV?$StrTraitMFC_DLL@DV?$ChTraitsCRT@D@ATL@@@@@ATL@@AAV23@ABV23@_N@Z ; CDataConversion::GetStringData
  000e5	83 c4 10	 add	 esp, 16			; 00000010H
  000e8	8d 4d cc	 lea	 ecx, DWORD PTR _orderset$[ebp]
  000eb	c6 45 fc 04	 mov	 BYTE PTR __$EHRec$[ebp+8], 4
  000ef	51		 push	 ecx
  000f0	8b 4d ec	 mov	 ecx, DWORD PTR _this$1$[ebp]
  000f3	53		 push	 ebx
  000f4	56		 push	 esi
  000f5	50		 push	 eax
  000f6	ff 75 08	 push	 DWORD PTR _eScaleType$[ebp]
  000f9	e8 00 00 00 00	 call	 ?BuildSymbolsFromString_Column@CElementSaverBuilder@@AAEXW4HORZSCALEDRAWERTYPE@CScaleBaseData@@ABV?$CStringT@DV?$StrTraitMFC_DLL@DV?$ChTraitsCRT@D@ATL@@@@@ATL@@HAAVCTree@@AAVCOrderSet@@@Z ; CElementSaverBuilder::BuildSymbolsFromString_Column
  000fe	8d 4d f0	 lea	 ecx, DWORD PTR $T2[ebp]
  00101	ff 15 00 00 00
	00		 call	 DWORD PTR __imp_??1?$CStringT@DV?$StrTraitMFC_DLL@DV?$ChTraitsCRT@D@ATL@@@@@ATL@@QAE@XZ
  00107	8d 4d 10	 lea	 ecx, DWORD PTR $T4[ebp]
  0010a	c6 45 fc 01	 mov	 BYTE PTR __$EHRec$[ebp+8], 1
  0010e	ff 15 00 00 00
	00		 call	 DWORD PTR __imp_??1?$CStringT@DV?$StrTraitMFC_DLL@DV?$ChTraitsCRT@D@ATL@@@@@ATL@@QAE@XZ
  00114	46		 inc	 esi
  00115	3b f7		 cmp	 esi, edi
  00117	7c a7		 jl	 SHORT $LL4@BuildSymbo
$LN3@BuildSymbo:

; 433  : 	for(int nIndex = 0; nIndex < orderset.GetCount(); nIndex++) {

  00119	8d 4d cc	 lea	 ecx, DWORD PTR _orderset$[ebp]
  0011c	33 f6		 xor	 esi, esi
  0011e	e8 00 00 00 00	 call	 ?GetCount@COrderSet@@QBEHXZ ; COrderSet::GetCount
  00123	85 c0		 test	 eax, eax
  00125	7e 2b		 jle	 SHORT $LN17@BuildSymbo
  00127	8b 7d 14	 mov	 edi, DWORD PTR _order$[ebp]
  0012a	66 0f 1f 44 00
	00		 npad	 6
$LL18@BuildSymbo:

; 434  : 		CDrawingSymbol* pSymbol = orderset.GetElement(nIndex);

  00130	56		 push	 esi
  00131	8d 4d cc	 lea	 ecx, DWORD PTR _orderset$[ebp]
  00134	e8 00 00 00 00	 call	 ?GetElement@COrderSet@@QBEPAVCDrawingSymbol@@H@Z ; COrderSet::GetElement

; 435  : 		if(pSymbol != NULL)

  00139	85 c0		 test	 eax, eax
  0013b	74 08		 je	 SHORT $LN16@BuildSymbo

; 436  : 			order.Add(pSymbol);

  0013d	50		 push	 eax
  0013e	8b cf		 mov	 ecx, edi
  00140	e8 00 00 00 00	 call	 ?Add@COrder@@QAEXPAVCDrawingSymbol@@@Z ; COrder::Add
$LN16@BuildSymbo:

; 160  : 
; 161  : long CElementSaverBuilder::BuildSymbolsFromString_ForUndoRedo(CSymbolData& symbolData, const CBlockIndex& blockIndex, CString& strSymbolData, 
; 162  : 		CTree& tree, COrder& order)
; 163  : {
; 164  : 	if(strSymbolData.IsEmpty())		return 0;
; 165  : 
; 166  : 	COrderSet orderset;
; 167  : 	
; 168  : 	// Get Index
; 169  : 	int nIndex = atoi(CDataConversion::GetStringData(strSymbolData, "IndexEnd;\r\n"));
; 170  : 
; 171  : 	// 2011.02.07 by SYS >>  YYYY()  : / 14Byte  (YYYYMMDDhhmmss)
; 172  : 	//CDrawingSymbol* pSymbol = MakeElement(strSymbolData);
; 173  : 	CScaleBaseData::HORZSCALEDRAWERTYPE eScaleType = symbolData.GetXScaleDrawType();
; 174  : 	CDrawingSymbol* pSymbol = MakeElement(eScaleType, strSymbolData);
; 175  : 	// 2011.02.07 by SYS <<
; 176  : 
; 177  : 	// Tree Element Add
; 178  : 	orderset.Add(nIndex, pSymbol);
; 179  : 	tree.Add(blockIndex.GetColumn(), blockIndex.GetRow(), pSymbol);
; 180  : 
; 181  : 	// Order Element Add
; 182  : 	AddElement_ForUndoRedo(orderset, order);
; 183  : 
; 184  : 	symbolData.RegisterElementToOrderManager((long)pSymbol);
; 185  : 
; 186  : 	return (long)pSymbol;
; 187  : }
; 188  : 
; 189  : // 2011.02.07 by SYS >>  YYYY()  : / 14Byte  (YYYYMMDDhhmmss)
; 190  : //void CElementSaverBuilder::BuildSymbolsFromString_Column(const CString &data, const int nColumn, CTree& tree, COrderSet& orderset)
; 191  : void CElementSaverBuilder::BuildSymbolsFromString_Column(const CScaleBaseData::HORZSCALEDRAWERTYPE eScaleType, const CString &data, const int nColumn, CTree& tree, COrderSet& orderset)
; 192  : // 2011.02.07 by SYS <<
; 193  : {
; 194  : 	CString columndata = data;
; 195  : 	int nCount = CDataConversion::GetStringDataCount(columndata, "BlockEnd;\r\n");
; 196  : 	for(int nRow = 0; nRow < nCount ; nRow++)
; 197  : 	{
; 198  : 		// 2011.02.07 by SYS >>  YYYY()  : / 14Byte  (YYYYMMDDhhmmss)
; 199  : 		//BuildSymbolsFromString_Row(CDataConversion::GetStringData(columndata, "BlockEnd;\r\n"),
; 200  : 		//	nColumn, nRow, tree, orderset);
; 201  : 		BuildSymbolsFromString_Row(eScaleType, CDataConversion::GetStringData(columndata, "BlockEnd;\r\n"),
; 202  : 			nColumn, nRow, tree, orderset);
; 203  : 		// 2011.02.07 by SYS <<
; 204  : 	}
; 205  : }
; 206  : 
; 207  : // 2011.02.07 by SYS >>  YYYY()  : / 14Byte  (YYYYMMDDhhmmss)
; 208  : //void CElementSaverBuilder::BuildSymbolsFromString_Row(const CString &data, const int nColumn, const int nRow, CTree& tree, COrderSet& orderset)
; 209  : void CElementSaverBuilder::BuildSymbolsFromString_Row(const CScaleBaseData::HORZSCALEDRAWERTYPE eScaleType, const CString &data, const int nColumn, const int nRow, CTree& tree, COrderSet& orderset)
; 210  : // 2011.02.07 by SYS <<
; 211  : {
; 212  : 	CString rowdata = data;
; 213  : 	int nCount = CDataConversion::GetStringDataCount(rowdata, "SymbolEnd;\r\n");
; 214  : 	for(int nIndex = 0 ; nIndex< nCount; nIndex++) 
; 215  : 	{
; 216  : 		// 2011.02.07 by SYS >>  YYYY()  : / 14Byte  (YYYYMMDDhhmmss)
; 217  : 		//BuildSymbolsFromString_Symbol(CDataConversion::GetStringData(rowdata, "SymbolEnd;\r\n"),
; 218  : 		//	nColumn, nRow, tree, orderset);
; 219  : 		BuildSymbolsFromString_Symbol(eScaleType, CDataConversion::GetStringData(rowdata, "SymbolEnd;\r\n"),
; 220  : 			nColumn, nRow, tree, orderset);
; 221  : 		// 2011.02.07 by SYS <<
; 222  : 	}
; 223  : }
; 224  : 
; 225  : // 2011.02.07 by SYS >>  YYYY()  : / 14Byte  (YYYYMMDDhhmmss)
; 226  : //void CElementSaverBuilder::BuildSymbolsFromString_Symbol(const CString &data, const int nColumn, const int nRow, CTree& tree, COrderSet& orderset)
; 227  : void CElementSaverBuilder::BuildSymbolsFromString_Symbol(const CScaleBaseData::HORZSCALEDRAWERTYPE eScaleType, const CString &data, const int nColumn, const int nRow, CTree& tree, COrderSet& orderset)
; 228  : // 2011.02.07 by SYS <<
; 229  : {
; 230  : 	CString symboldata = data;
; 231  : 	int nIndex = atoi(CDataConversion::GetStringData(symboldata, "IndexEnd;\r\n"));
; 232  : 
; 233  : 	// 2011.02.07 by SYS >>  YYYY()  : / 14Byte  (YYYYMMDDhhmmss)
; 234  : 	//CDrawingSymbol* pSymbol = MakeElement(symboldata);
; 235  : 	CDrawingSymbol* pSymbol = MakeElement(eScaleType, symboldata);
; 236  : 	// 2011.02.07 by SYS <<
; 237  : 
; 238  : 	orderset.Add(nIndex, pSymbol);
; 239  : 	tree.Add(nColumn, nRow, pSymbol);
; 240  : }
; 241  : 
; 242  : // 2011.02.07 by SYS >>  YYYY()  : / 14Byte  (YYYYMMDDhhmmss)
; 243  : //CDrawingSymbol* CElementSaverBuilder::MakeElement(const CString& strSymboldata)
; 244  : CDrawingSymbol* CElementSaverBuilder::MakeElement(const CScaleBaseData::HORZSCALEDRAWERTYPE eScaleType, const CString& strSymboldata)
; 245  : // 2011.02.07 by SYS <<
; 246  : {
; 247  : 	CString data = strSymboldata;
; 248  : 	int symboltype= atoi(CDataConversion::GetStringData(data, ";"));
; 249  : 	int sizetype= atoi(CDataConversion::GetStringData(data, ";"));
; 250  : 	
; 251  : 	// 2011.02.07 by SYS >>  YYYY()  : / 14Byte  (YYYYMMDDhhmmss)
; 252  : 	//double start_x = atof(CDataConversion::GetStringData(data, ";"));
; 253  : 	CString strX;
; 254  : 	__int64 lMakeTime = 0;
; 255  : 	strX			= CDataConversion::GetStringData(data, ";");
; 256  : 	lMakeTime		= MakeDateTime(eScaleType, strX);
; 257  : 	double start_x	= (double)lMakeTime;
; 258  : 	// 2011.02.07 by SYS <<
; 259  : 	
; 260  : 	double start_y = atof(CDataConversion::GetStringData(data, ";"));
; 261  : 
; 262  : 	
; 263  : 	// 2011.02.07 by SYS >>  YYYY()  : / 14Byte  (YYYYMMDDhhmmss)
; 264  : 	//double end_x = atof(CDataConversion::GetStringData(data, ";"));
; 265  : 	strX			= CDataConversion::GetStringData(data, ";");
; 266  : 	lMakeTime		= MakeDateTime(eScaleType, strX);
; 267  : 	double end_x	= (double)lMakeTime;
; 268  : 	// 2011.02.07 by SYS <<
; 269  : 
; 270  : 
; 271  : 	double end_y = atof(CDataConversion::GetStringData(data, ";"));
; 272  : 	int size_cx = atoi(CDataConversion::GetStringData(data, ";"));
; 273  : 	int size_cy = atoi(CDataConversion::GetStringData(data, ";"));
; 274  : 	CString strText = CDataConversion::GetStringData(data, ";");
; 275  : 	COLORREF color = CDataConversion::Str2RGB(CDataConversion::GetStringData(data, ";"));
; 276  : 	int weight = atoi(CDataConversion::GetStringData(data, ";"));
; 277  : 	bool bFill = atoi(CDataConversion::GetStringData(data, ";")) == 1;
; 278  : 	LOGFONT logfont = MakeLOGFONTFromString(CDataConversion::GetStringData(data, ";"));
; 279  : 	//sy 2005.04.06
; 280  : 	COLORREF textColor = CDataConversion::Str2RGB(CDataConversion::GetStringData(data, ";"));
; 281  : 	bool bDrawFromTop = atoi(CDataConversion::GetStringData(data, ";")) ? true : false;
; 282  : 	// 20081007 JS.Kim	 . 
; 283  : 	int nTimeDiff = atoi(CDataConversion::GetStringData(data, ";"));
; 284  : 
; 285  : 	if(end_x == -1 && end_y == -1)
; 286  : 	{
; 287  : 		//ont_point
; 288  : 		// 20081007 JS.Kim	 .
; 289  : 		CDrawingSymbol* pSymbol = CDrawingSymbolFactory::Make(CSymbolBaseData::TOOLTYPE(symboltype), 
; 290  : 			CSymbolBaseData::SIZETYPE(sizetype), CCoordinate(start_x, start_y, nTimeDiff), 
; 291  : 			CSize(size_cx, size_cy), color, logfont, textColor);
; 292  : 		pSymbol->SetText(strText);
; 293  : 		return pSymbol;
; 294  : 	}
; 295  : 	else //two_point
; 296  : 	{
; 297  : 		// 20081007 JS.Kim	 .
; 298  : 		return CDrawingSymbolFactory::Make(CSymbolBaseData::TOOLTYPE(symboltype),CCoordinate(start_x, start_y, nTimeDiff),
; 299  : 										   CCoordinate(end_x, end_y, nTimeDiff), color,PS_SOLID,weight,bFill, logfont, bDrawFromTop);
; 300  : 	}
; 301  : }
; 302  : 
; 303  : // 2011.02.07 by SYS >>  YYYY()  : / 14Byte  (YYYYMMDDhhmmss)
; 304  : __int64 CElementSaverBuilder::MakeDateTime(const CScaleBaseData::HORZSCALEDRAWERTYPE eScaleType, CString strX)
; 305  : {
; 306  : 	__int64 lMakeTime = 0;
; 307  : 
; 308  : 	CString strMakeTime = strX;
; 309  : 
; 310  : 	// -   14Byte     
; 311  : 	// 1. YYYYMMDD  :  0 
; 312  : 	// 2. YYYYMM    :  1 0 0 0  
; 313  : 	// 3. MMDDHHMM  : PC   00  
; 314  : 	// 	  ,    PC   ... 
; 315  : 	// 	  PC  -1 .
; 316  : 	// 4. DDHHMMSS  : PC / 
; 317  : 	// 	  ,    PC   ... 
; 318  : 	// 	  PC  -1 .
; 319  : 	if (strX != "-1" && strX.GetLength() != 14)
; 320  : 	{
; 321  : 		//   14Byte()       .
; 322  : 		//      .
; 323  : 
; 324  : 		CTime timeCur			= CTime::GetCurrentTime();
; 325  : 		CString strCurYear		= timeCur.Format("%Y");
; 326  : 		CString strCurMon		= timeCur.Format("%m");
; 327  : 		CString strCurYearMon	= timeCur.Format("%Y%m");
; 328  : 		CString strCurDate		= timeCur.Format("%Y%m%d");
; 329  : 		CString strCurFull		= timeCur.Format("%Y%m%d%H%M%S");
; 330  : 
; 331  : 		//
; 332  : 		CString strFormat = _T("YYYYMMDD");	// 
; 333  : 		
; 334  : 		switch(eScaleType)
; 335  : 		{
; 336  : 		case CScaleBaseData::HORZ_DAILY:		// 
; 337  : 		case CScaleBaseData::HORZ_WEEKLEY:		//  
; 338  : 			{
; 339  : 				//     : 0 0 0 .
; 340  : 				strMakeTime = strX + _T("000000");
; 341  : 			}
; 342  : 			break;
; 343  : 		case CScaleBaseData::HORZ_MONTHLY:		//  
; 344  : 			{
; 345  : 				//   : 1 0 0 0 .
; 346  : 				strMakeTime = strX + _T("01000000");
; 347  : 			}
; 348  : 			break;
; 349  : 		case CScaleBaseData::HORZ_TIME_ONE:		// 
; 350  : 		case CScaleBaseData::HORZ_TIME_TWO:
; 351  : 			{
; 352  : 				//   : PC +  + 0
; 353  : 
; 354  : 				CString strMon;
; 355  : 				CString strDay;
; 356  : 				
; 357  : 				if (strX.GetLength() == 7)
; 358  : 				{
; 359  : 					// Data %02d      (, 5 05  5  )
; 360  : 					strMon.Format("%02d", atoi(strX.Left(1)));
; 361  : 					strDay.Format("%02d", atoi(strX.Mid(1,2)));
; 362  : 				}
; 363  : 				else
; 364  : 				{
; 365  : 					strMon.Format("%02d", atoi(strX.Left(2)));
; 366  : 					strDay.Format("%02d", atoi(strX.Mid(2,2)));
; 367  : 				}
; 368  : 				
; 369  : 				CString strTemp1	= strCurYear + strMon + strDay;
; 370  : 				CString strYear		= strCurYear;
; 371  : 				
; 372  : 				//    PC   ... PC -1 .
; 373  : 				if (_atoi64(strTemp1) > _atoi64(strCurDate))
; 374  : 				{
; 375  : 					strYear.Format("%04d", atoi(strCurYear) -1);
; 376  : 				}
; 377  : 				
; 378  : 				strMakeTime = strYear + strMon + strDay + strX.Right(4) + _T("00");
; 379  : 			}
; 380  : 			break;
; 381  : 		case CScaleBaseData::HORZ_TICK:			//  
; 382  : 		case CScaleBaseData::HORZ_TIME_SECOND:
; 383  : 			{
; 384  : 				// /  : PC + 
; 385  : 				
; 386  : 				CString strDay;
; 387  : 				
; 388  : 				if (strX.GetLength() == 7)
; 389  : 					strDay.Format("%02d", atoi(strX.Left(1)));	// data %02d      (, 5 05  5  )
; 390  : 				else
; 391  : 					strDay.Format("%02d", atoi(strX.Left(2)));
; 392  : 				
; 393  : 				CString strTemp1	= strCurYearMon + strDay;
; 394  : 				CString strYearMon	= strCurYearMon;
; 395  : 				
; 396  : 				//    PC   ... PC  -1 .
; 397  : 				if (_atoi64(strTemp1) > _atoi64(strCurDate))
; 398  : 				{
; 399  : 					int nYear	= atoi(strCurYear);
; 400  : 					int nMon	= atoi(strCurMon);
; 401  : 					if (nMon == 1)
; 402  : 					{
; 403  : 						// pc 1 ...   -1   12 ...
; 404  : 						nMon = 12;
; 405  : 						nYear--;
; 406  : 					}
; 407  : 					else
; 408  : 					{
; 409  : 						nMon--;
; 410  : 					}
; 411  : 					strYearMon.Format("%02d%02d", nYear, nMon);
; 412  : 				}
; 413  : 				
; 414  : 				strMakeTime = strYearMon + strDay + strX.Right(6);
; 415  : 			}
; 416  : 			break;
; 417  : 		default:
; 418  : 			{
; 419  : 				strMakeTime = strCurFull;
; 420  : 			}
; 421  : 			break;
; 422  : 		}
; 423  : 	}
; 424  : 
; 425  : 	lMakeTime = _atoi64(strMakeTime);
; 426  : 	return lMakeTime;
; 427  : }
; 428  : // 2011.02.07 by SYS <<
; 429  : 
; 430  : 
; 431  : void CElementSaverBuilder::AddElement(const COrderSet& orderset, COrder &order)
; 432  : {
; 433  : 	for(int nIndex = 0; nIndex < orderset.GetCount(); nIndex++) {

  00145	8d 4d cc	 lea	 ecx, DWORD PTR _orderset$[ebp]
  00148	46		 inc	 esi
  00149	e8 00 00 00 00	 call	 ?GetCount@COrderSet@@QBEHXZ ; COrderSet::GetCount
  0014e	3b f0		 cmp	 esi, eax
  00150	7c de		 jl	 SHORT $LL18@BuildSymbo
$LN17@BuildSymbo:

; 154  : 			nColumn, tree, orderset);
; 155  : 		// 2011.02.07 by SYS <<
; 156  : 	}
; 157  : 
; 158  : 	AddElement(orderset, order);	
; 159  : }

  00152	8d 4d 0c	 lea	 ecx, DWORD PTR _alldata$[ebp]
  00155	ff 15 00 00 00
	00		 call	 DWORD PTR __imp_??1?$CStringT@DV?$StrTraitMFC_DLL@DV?$ChTraitsCRT@D@ATL@@@@@ATL@@QAE@XZ
  0015b	8d 4d cc	 lea	 ecx, DWORD PTR _orderset$[ebp]
  0015e	e8 00 00 00 00	 call	 ??1COrderSet@@UAE@XZ	; COrderSet::~COrderSet
  00163	8b 4d f4	 mov	 ecx, DWORD PTR __$EHRec$[ebp]
  00166	64 89 0d 00 00
	00 00		 mov	 DWORD PTR fs:0, ecx
  0016d	59		 pop	 ecx
  0016e	5f		 pop	 edi
  0016f	5e		 pop	 esi
  00170	5b		 pop	 ebx
  00171	8b e5		 mov	 esp, ebp
  00173	5d		 pop	 ebp
  00174	c2 10 00	 ret	 16			; 00000010H
_TEXT	ENDS
;	COMDAT text$x
text$x	SEGMENT
__unwindfunclet$?BuildSymbolsFromString@CElementSaverBuilder@@QAEXW4HORZSCALEDRAWERTYPE@CScaleBaseData@@ABV?$CStringT@DV?$StrTraitMFC_DLL@DV?$ChTraitsCRT@D@ATL@@@@@ATL@@AAVCTree@@AAVCOrder@@@Z$0:
  00000	8d 4d cc	 lea	 ecx, DWORD PTR _orderset$[ebp]
  00003	e9 00 00 00 00	 jmp	 ??1COrderSet@@UAE@XZ	; COrderSet::~COrderSet
__unwindfunclet$?BuildSymbolsFromString@CElementSaverBuilder@@QAEXW4HORZSCALEDRAWERTYPE@CScaleBaseData@@ABV?$CStringT@DV?$StrTraitMFC_DLL@DV?$ChTraitsCRT@D@ATL@@@@@ATL@@AAVCTree@@AAVCOrder@@@Z$1:
  00008	8d 4d 0c	 lea	 ecx, DWORD PTR _alldata$[ebp]
  0000b	ff 25 00 00 00
	00		 jmp	 DWORD PTR __imp_??1?$CStringT@DV?$StrTraitMFC_DLL@DV?$ChTraitsCRT@D@ATL@@@@@ATL@@QAE@XZ
__unwindfunclet$?BuildSymbolsFromString@CElementSaverBuilder@@QAEXW4HORZSCALEDRAWERTYPE@CScaleBaseData@@ABV?$CStringT@DV?$StrTraitMFC_DLL@DV?$ChTraitsCRT@D@ATL@@@@@ATL@@AAVCTree@@AAVCOrder@@@Z$2:
  00011	8d 4d f0	 lea	 ecx, DWORD PTR $T3[ebp]
  00014	ff 25 00 00 00
	00		 jmp	 DWORD PTR __imp_??1?$CStringT@DV?$StrTraitMFC_DLL@DV?$ChTraitsCRT@D@ATL@@@@@ATL@@QAE@XZ
__unwindfunclet$?BuildSymbolsFromString@CElementSaverBuilder@@QAEXW4HORZSCALEDRAWERTYPE@CScaleBaseData@@ABV?$CStringT@DV?$StrTraitMFC_DLL@DV?$ChTraitsCRT@D@ATL@@@@@ATL@@AAVCTree@@AAVCOrder@@@Z$3:
  0001a	8d 4d 10	 lea	 ecx, DWORD PTR $T4[ebp]
  0001d	ff 25 00 00 00
	00		 jmp	 DWORD PTR __imp_??1?$CStringT@DV?$StrTraitMFC_DLL@DV?$ChTraitsCRT@D@ATL@@@@@ATL@@QAE@XZ
__unwindfunclet$?BuildSymbolsFromString@CElementSaverBuilder@@QAEXW4HORZSCALEDRAWERTYPE@CScaleBaseData@@ABV?$CStringT@DV?$StrTraitMFC_DLL@DV?$ChTraitsCRT@D@ATL@@@@@ATL@@AAVCTree@@AAVCOrder@@@Z$4:
  00023	8d 4d f0	 lea	 ecx, DWORD PTR $T2[ebp]
  00026	ff 25 00 00 00
	00		 jmp	 DWORD PTR __imp_??1?$CStringT@DV?$StrTraitMFC_DLL@DV?$ChTraitsCRT@D@ATL@@@@@ATL@@QAE@XZ
  0002c	cc		 int	 3
  0002d	cc		 int	 3
  0002e	cc		 int	 3
  0002f	cc		 int	 3
  00030	cc		 int	 3
__ehhandler$?BuildSymbolsFromString@CElementSaverBuilder@@QAEXW4HORZSCALEDRAWERTYPE@CScaleBaseData@@ABV?$CStringT@DV?$StrTraitMFC_DLL@DV?$ChTraitsCRT@D@ATL@@@@@ATL@@AAVCTree@@AAVCOrder@@@Z:
  00031	90		 npad	 1
  00032	90		 npad	 1
  00033	8b 54 24 08	 mov	 edx, DWORD PTR [esp+8]
  00037	8d 42 0c	 lea	 eax, DWORD PTR [edx+12]
  0003a	8b 4a c8	 mov	 ecx, DWORD PTR [edx-56]
  0003d	33 c8		 xor	 ecx, eax
  0003f	e8 00 00 00 00	 call	 @__security_check_cookie@4
  00044	b8 00 00 00 00	 mov	 eax, OFFSET __ehfuncinfo$?BuildSymbolsFromString@CElementSaverBuilder@@QAEXW4HORZSCALEDRAWERTYPE@CScaleBaseData@@ABV?$CStringT@DV?$StrTraitMFC_DLL@DV?$ChTraitsCRT@D@ATL@@@@@ATL@@AAVCTree@@AAVCOrder@@@Z
  00049	e9 00 00 00 00	 jmp	 ___CxxFrameHandler3
text$x	ENDS
?BuildSymbolsFromString@CElementSaverBuilder@@QAEXW4HORZSCALEDRAWERTYPE@CScaleBaseData@@ABV?$CStringT@DV?$StrTraitMFC_DLL@DV?$ChTraitsCRT@D@ATL@@@@@ATL@@AAVCTree@@AAVCOrder@@@Z ENDP ; CElementSaverBuilder::BuildSymbolsFromString
; Function compile flags: /Ogtp
; File D:\git\src\IBK\IBK_DRFN\ProjSrc\SrcChartEx\ChartAddIn\ChartAnalysisToolAddIn\Symbol\ElementSaverBuilder.cpp
; File C:\Program Files (x86)\Microsoft Visual Studio\2019\Community\VC\Tools\MSVC\14.29.30133\atlmfc\include\afxtempl.h
; File D:\git\src\IBK\IBK_DRFN\ProjSrc\SrcChartEx\ChartAddIn\ChartAnalysisToolAddIn\Symbol\ElementSaverBuilder.cpp
; File C:\Program Files (x86)\Microsoft Visual Studio\2019\Community\VC\Tools\MSVC\14.29.30133\atlmfc\include\atlsimpstr.h
; File D:\git\src\IBK\IBK_DRFN\ProjSrc\SrcChartEx\ChartAddIn\ChartAnalysisToolAddIn\Symbol\ElementSaverBuilder.cpp
; File C:\Program Files (x86)\Microsoft Visual Studio\2019\Community\VC\Tools\MSVC\14.29.30133\atlmfc\include\atlsimpstr.h
; File D:\git\src\IBK\IBK_DRFN\ProjSrc\SrcChartEx\ChartAddIn\ChartAnalysisToolAddIn\Symbol\ElementSaverBuilder.cpp
; File C:\Program Files (x86)\Microsoft Visual Studio\2019\Community\VC\Tools\MSVC\14.29.30133\atlmfc\include\cstringt.h
; File D:\git\src\IBK\IBK_DRFN\ProjSrc\SrcChartEx\ChartAddIn\ChartAnalysisToolAddIn\Symbol\ElementSaverBuilder.cpp
; File C:\Program Files (x86)\Microsoft Visual Studio\2019\Community\VC\Tools\MSVC\14.29.30133\atlmfc\include\cstringt.h
; File C:\Program Files (x86)\Microsoft Visual Studio\2019\Community\VC\Tools\MSVC\14.29.30133\atlmfc\include\atlsimpstr.h
; File C:\Program Files (x86)\Microsoft Visual Studio\2019\Community\VC\Tools\MSVC\14.29.30133\atlmfc\include\cstringt.h
; File D:\git\src\IBK\IBK_DRFN\ProjSrc\SrcChartEx\ChartAddIn\ChartAnalysisToolAddIn\Symbol\ElementSaverBuilder.cpp
; File C:\Program Files (x86)\Microsoft Visual Studio\2019\Community\VC\Tools\MSVC\14.29.30133\atlmfc\include\cstringt.h
; File D:\git\src\IBK\IBK_DRFN\ProjSrc\SrcChartEx\ChartAddIn\ChartAnalysisToolAddIn\Symbol\ElementSaverBuilder.cpp
; File C:\Program Files (x86)\Microsoft Visual Studio\2019\Community\VC\Tools\MSVC\14.29.30133\atlmfc\include\cstringt.h
; File C:\Program Files (x86)\Microsoft Visual Studio\2019\Community\VC\Tools\MSVC\14.29.30133\atlmfc\include\atlsimpstr.h
; File C:\Program Files (x86)\Microsoft Visual Studio\2019\Community\VC\Tools\MSVC\14.29.30133\atlmfc\include\cstringt.h
; File D:\git\src\IBK\IBK_DRFN\ProjSrc\SrcChartEx\ChartAddIn\ChartAnalysisToolAddIn\Symbol\ElementSaverBuilder.cpp
; File C:\Program Files (x86)\Microsoft Visual Studio\2019\Community\VC\Tools\MSVC\14.29.30133\atlmfc\include\cstringt.h
; File D:\git\src\IBK\IBK_DRFN\ProjSrc\SrcChartEx\ChartAddIn\ChartAnalysisToolAddIn\Symbol\ElementSaverBuilder.cpp
; File C:\Program Files (x86)\Microsoft Visual Studio\2019\Community\VC\Tools\MSVC\14.29.30133\atlmfc\include\cstringt.h
; File C:\Program Files (x86)\Microsoft Visual Studio\2019\Community\VC\Tools\MSVC\14.29.30133\atlmfc\include\atlsimpstr.h
; File C:\Program Files (x86)\Microsoft Visual Studio\2019\Community\VC\Tools\MSVC\14.29.30133\atlmfc\include\cstringt.h
; File D:\git\src\IBK\IBK_DRFN\ProjSrc\SrcChartEx\ChartAddIn\ChartAnalysisToolAddIn\Symbol\ElementSaverBuilder.cpp
; File C:\Program Files (x86)\Microsoft Visual Studio\2019\Community\VC\Tools\MSVC\14.29.30133\atlmfc\include\cstringt.h
; File D:\git\src\IBK\IBK_DRFN\ProjSrc\SrcChartEx\ChartAddIn\ChartAnalysisToolAddIn\Symbol\ElementSaverBuilder.cpp
; File C:\Program Files (x86)\Microsoft Visual Studio\2019\Community\VC\Tools\MSVC\14.29.30133\atlmfc\include\cstringt.h
; File C:\Program Files (x86)\Microsoft Visual Studio\2019\Community\VC\Tools\MSVC\14.29.30133\atlmfc\include\atlsimpstr.h
; File C:\Program Files (x86)\Microsoft Visual Studio\2019\Community\VC\Tools\MSVC\14.29.30133\atlmfc\include\cstringt.h
; File D:\git\src\IBK\IBK_DRFN\ProjSrc\SrcChartEx\ChartAddIn\ChartAnalysisToolAddIn\Symbol\ElementSaverBuilder.cpp
; File C:\Program Files (x86)\Microsoft Visual Studio\2019\Community\VC\Tools\MSVC\14.29.30133\atlmfc\include\cstringt.h
; File D:\git\src\IBK\IBK_DRFN\ProjSrc\SrcChartEx\ChartAddIn\ChartAnalysisToolAddIn\Symbol\ElementSaverBuilder.cpp
; File C:\Program Files (x86)\Microsoft Visual Studio\2019\Community\VC\Tools\MSVC\14.29.30133\atlmfc\include\cstringt.h
; File C:\Program Files (x86)\Microsoft Visual Studio\2019\Community\VC\Tools\MSVC\14.29.30133\atlmfc\include\atlsimpstr.h
; File C:\Program Files (x86)\Microsoft Visual Studio\2019\Community\VC\Tools\MSVC\14.29.30133\atlmfc\include\cstringt.h
; File D:\git\src\IBK\IBK_DRFN\ProjSrc\SrcChartEx\ChartAddIn\ChartAnalysisToolAddIn\Symbol\ElementSaverBuilder.cpp
; File C:\Program Files (x86)\Microsoft Visual Studio\2019\Community\VC\Tools\MSVC\14.29.30133\atlmfc\include\cstringt.h
; File D:\git\src\IBK\IBK_DRFN\ProjSrc\SrcChartEx\ChartAddIn\ChartAnalysisToolAddIn\Symbol\ElementSaverBuilder.cpp
; File C:\Program Files (x86)\Microsoft Visual Studio\2019\Community\VC\Tools\MSVC\14.29.30133\atlmfc\include\cstringt.h
; File C:\Program Files (x86)\Microsoft Visual Studio\2019\Community\VC\Tools\MSVC\14.29.30133\atlmfc\include\atlsimpstr.h
; File C:\Program Files (x86)\Microsoft Visual Studio\2019\Community\VC\Tools\MSVC\14.29.30133\atlmfc\include\cstringt.h
; File D:\git\src\IBK\IBK_DRFN\ProjSrc\SrcChartEx\ChartAddIn\ChartAnalysisToolAddIn\Symbol\ElementSaverBuilder.cpp
; File C:\Program Files (x86)\Microsoft Visual Studio\2019\Community\VC\Tools\MSVC\14.29.30133\atlmfc\include\cstringt.h
; File D:\git\src\IBK\IBK_DRFN\ProjSrc\SrcChartEx\ChartAddIn\ChartAnalysisToolAddIn\Symbol\ElementSaverBuilder.cpp
; File C:\Program Files (x86)\Microsoft Visual Studio\2019\Community\VC\Tools\MSVC\14.29.30133\atlmfc\include\cstringt.h
; File C:\Program Files (x86)\Microsoft Visual Studio\2019\Community\VC\Tools\MSVC\14.29.30133\atlmfc\include\atlsimpstr.h
; File C:\Program Files (x86)\Microsoft Visual Studio\2019\Community\VC\Tools\MSVC\14.29.30133\atlmfc\include\cstringt.h
; File D:\git\src\IBK\IBK_DRFN\ProjSrc\SrcChartEx\ChartAddIn\ChartAnalysisToolAddIn\Symbol\ElementSaverBuilder.cpp
; File C:\Program Files (x86)\Microsoft Visual Studio\2019\Community\VC\Tools\MSVC\14.29.30133\atlmfc\include\cstringt.h
; File C:\Program Files (x86)\Microsoft Visual Studio\2019\Community\VC\Tools\MSVC\14.29.30133\atlmfc\include\atlsimpstr.h
; File C:\Program Files (x86)\Microsoft Visual Studio\2019\Community\VC\Tools\MSVC\14.29.30133\atlmfc\include\cstringt.h
; File D:\git\src\IBK\IBK_DRFN\ProjSrc\SrcChartEx\ChartAddIn\ChartAnalysisToolAddIn\Symbol\ElementSaverBuilder.cpp
; File C:\Program Files (x86)\Microsoft Visual Studio\2019\Community\VC\Tools\MSVC\14.29.30133\atlmfc\include\cstringt.h
; File D:\git\src\IBK\IBK_DRFN\ProjSrc\SrcChartEx\ChartAddIn\ChartAnalysisToolAddIn\Symbol\ElementSaverBuilder.cpp
; File C:\Program Files (x86)\Microsoft Visual Studio\2019\Community\VC\Tools\MSVC\14.29.30133\atlmfc\include\cstringt.h
; File C:\Program Files (x86)\Microsoft Visual Studio\2019\Community\VC\Tools\MSVC\14.29.30133\atlmfc\include\atlsimpstr.h
; File C:\Program Files (x86)\Microsoft Visual Studio\2019\Community\VC\Tools\MSVC\14.29.30133\atlmfc\include\cstringt.h
; File D:\git\src\IBK\IBK_DRFN\ProjSrc\SrcChartEx\ChartAddIn\ChartAnalysisToolAddIn\Symbol\ElementSaverBuilder.cpp
; File C:\Program Files (x86)\Microsoft Visual Studio\2019\Community\VC\Tools\MSVC\14.29.30133\atlmfc\include\cstringt.h
; File D:\git\src\IBK\IBK_DRFN\ProjSrc\SrcChartEx\ChartAddIn\ChartAnalysisToolAddIn\Symbol\ElementSaverBuilder.cpp
; File C:\Program Files (x86)\Microsoft Visual Studio\2019\Community\VC\Tools\MSVC\14.29.30133\atlmfc\include\cstringt.h
; File C:\Program Files (x86)\Microsoft Visual Studio\2019\Community\VC\Tools\MSVC\14.29.30133\atlmfc\include\atlsimpstr.h
; File C:\Program Files (x86)\Microsoft Visual Studio\2019\Community\VC\Tools\MSVC\14.29.30133\atlmfc\include\cstringt.h
; File D:\git\src\IBK\IBK_DRFN\ProjSrc\SrcChartEx\ChartAddIn\ChartAnalysisToolAddIn\Symbol\ElementSaverBuilder.cpp
; File C:\Program Files (x86)\Microsoft Visual Studio\2019\Community\VC\Tools\MSVC\14.29.30133\atlmfc\include\cstringt.h
; File D:\git\src\IBK\IBK_DRFN\ProjSrc\SrcChartEx\ChartAddIn\ChartAnalysisToolAddIn\Symbol\ElementSaverBuilder.cpp
; File C:\Program Files (x86)\Microsoft Visual Studio\2019\Community\VC\Tools\MSVC\14.29.30133\atlmfc\include\cstringt.h
; File C:\Program Files (x86)\Microsoft Visual Studio\2019\Community\VC\Tools\MSVC\14.29.30133\atlmfc\include\atlsimpstr.h
; File C:\Program Files (x86)\Microsoft Visual Studio\2019\Community\VC\Tools\MSVC\14.29.30133\atlmfc\include\cstringt.h
; File D:\git\src\IBK\IBK_DRFN\ProjSrc\SrcChartEx\ChartAddIn\ChartAnalysisToolAddIn\Symbol\ElementSaverBuilder.cpp
; File C:\Program Files (x86)\Microsoft Visual Studio\2019\Community\VC\Tools\MSVC\14.29.30133\atlmfc\include\cstringt.h
; File D:\git\src\IBK\IBK_DRFN\ProjSrc\SrcChartEx\ChartAddIn\ChartAnalysisToolAddIn\Symbol\ElementSaverBuilder.cpp
; File C:\Program Files (x86)\Microsoft Visual Studio\2019\Community\VC\Tools\MSVC\14.29.30133\atlmfc\include\cstringt.h
; File C:\Program Files (x86)\Microsoft Visual Studio\2019\Community\VC\Tools\MSVC\14.29.30133\atlmfc\include\atlsimpstr.h
; File C:\Program Files (x86)\Microsoft Visual Studio\2019\Community\VC\Tools\MSVC\14.29.30133\atlmfc\include\cstringt.h
; File D:\git\src\IBK\IBK_DRFN\ProjSrc\SrcChartEx\ChartAddIn\ChartAnalysisToolAddIn\Symbol\ElementSaverBuilder.cpp
; File C:\Program Files (x86)\Microsoft Visual Studio\2019\Community\VC\Tools\MSVC\14.29.30133\atlmfc\include\cstringt.h
; File D:\git\src\IBK\IBK_DRFN\ProjSrc\SrcChartEx\ChartAddIn\ChartAnalysisToolAddIn\Symbol\ElementSaverBuilder.cpp
; File C:\Program Files (x86)\Microsoft Visual Studio\2019\Community\VC\Tools\MSVC\14.29.30133\atlmfc\include\cstringt.h
; File C:\Program Files (x86)\Microsoft Visual Studio\2019\Community\VC\Tools\MSVC\14.29.30133\atlmfc\include\atlsimpstr.h
; File C:\Program Files (x86)\Microsoft Visual Studio\2019\Community\VC\Tools\MSVC\14.29.30133\atlmfc\include\cstringt.h
; File D:\git\src\IBK\IBK_DRFN\ProjSrc\SrcChartEx\ChartAddIn\ChartAnalysisToolAddIn\Symbol\ElementSaverBuilder.cpp
; File C:\Program Files (x86)\Microsoft Visual Studio\2019\Community\VC\Tools\MSVC\14.29.30133\atlmfc\include\cstringt.h
; File D:\git\src\IBK\IBK_DRFN\ProjSrc\SrcChartEx\ChartAddIn\ChartAnalysisToolAddIn\Symbol\ElementSaverBuilder.cpp
; File C:\Program Files (x86)\Microsoft Visual Studio\2019\Community\VC\Tools\MSVC\14.29.30133\atlmfc\include\cstringt.h
; File C:\Program Files (x86)\Microsoft Visual Studio\2019\Community\VC\Tools\MSVC\14.29.30133\atlmfc\include\atlsimpstr.h
; File C:\Program Files (x86)\Microsoft Visual Studio\2019\Community\VC\Tools\MSVC\14.29.30133\atlmfc\include\cstringt.h
; File D:\git\src\IBK\IBK_DRFN\ProjSrc\SrcChartEx\ChartAddIn\ChartAnalysisToolAddIn\Symbol\ElementSaverBuilder.cpp
; File C:\Program Files (x86)\Microsoft Visual Studio\2019\Community\VC\Tools\MSVC\14.29.30133\atlmfc\include\cstringt.h
; File D:\git\src\IBK\IBK_DRFN\ProjSrc\SrcChartEx\ChartAddIn\ChartAnalysisToolAddIn\Symbol\ElementSaverBuilder.cpp
; File C:\Program Files (x86)\Microsoft Visual Studio\2019\Community\VC\Tools\MSVC\14.29.30133\atlmfc\include\cstringt.h
; File C:\Program Files (x86)\Microsoft Visual Studio\2019\Community\VC\Tools\MSVC\14.29.30133\atlmfc\include\atlsimpstr.h
; File C:\Program Files (x86)\Microsoft Visual Studio\2019\Community\VC\Tools\MSVC\14.29.30133\atlmfc\include\cstringt.h
; File D:\git\src\IBK\IBK_DRFN\ProjSrc\SrcChartEx\ChartAddIn\ChartAnalysisToolAddIn\Symbol\ElementSaverBuilder.cpp
; File C:\Program Files (x86)\Microsoft Visual Studio\2019\Community\VC\Tools\MSVC\14.29.30133\atlmfc\include\cstringt.h
; File D:\git\src\IBK\IBK_DRFN\ProjSrc\SrcChartEx\ChartAddIn\ChartAnalysisToolAddIn\Symbol\ElementSaverBuilder.cpp
; File C:\Program Files (x86)\Microsoft Visual Studio\2019\Community\VC\Tools\MSVC\14.29.30133\atlmfc\include\cstringt.h
; File C:\Program Files (x86)\Microsoft Visual Studio\2019\Community\VC\Tools\MSVC\14.29.30133\atlmfc\include\atlsimpstr.h
; File C:\Program Files (x86)\Microsoft Visual Studio\2019\Community\VC\Tools\MSVC\14.29.30133\atlmfc\include\cstringt.h
; File D:\git\src\IBK\IBK_DRFN\ProjSrc\SrcChartEx\ChartAddIn\ChartAnalysisToolAddIn\Symbol\ElementSaverBuilder.cpp
;	COMDAT ?GetSavedSymbolsData@CElementSaverBuilder@@QAE?AV?$CStringT@DV?$StrTraitMFC_DLL@DV?$ChTraitsCRT@D@ATL@@@@@ATL@@ABVCOrder@@PAV?$CList@PAVCDrawingSymbol@@PAV1@@@@Z
_TEXT	SEGMENT
$T2 = -304						; size = 8
$T3 = -296						; size = 8
$T4 = -288						; size = 24
$T5 = -288						; size = 24
$T6 = -288						; size = 24
$T7 = -288						; size = 24
$T8 = -288						; size = 24
$T9 = -264						; size = 8
$T10 = -256						; size = 8
$T11 = -248						; size = 8
$T12 = -240						; size = 8
$T13 = -232						; size = 4
$T14 = -228						; size = 4
$T15 = -224						; size = 4
_order$GSCopy$1$ = -220					; size = 4
$T16 = -216						; size = 4
$T17 = -212						; size = 4
$T18 = -208						; size = 4
$T19 = -204						; size = 4
$T20 = -200						; size = 4
$T21 = -196						; size = 4
$T22 = -192						; size = 4
$T23 = -188						; size = 4
$T24 = -184						; size = 4
$T25 = -180						; size = 4
$T26 = -176						; size = 4
$T27 = -172						; size = 4
___$ReturnUdt$GSCopy$ = -168				; size = 4
$T28 = -168						; size = 4
___$ReturnUdt$GSCopy$1$ = -164				; size = 4
_this$GSCopy$1$ = -160					; size = 4
$T29 = -156						; size = 4
$T30 = -152						; size = 4
$T31 = -148						; size = 4
$T32 = -144						; size = 4
$T33 = -140						; size = 4
$T34 = -136						; size = 4
$T35 = -132						; size = 4
$T36 = -128						; size = 4
$T37 = -124						; size = 4
$T38 = -120						; size = 4
$T39 = -116						; size = 4
$T40 = -112						; size = 4
$T41 = -108						; size = 4
$T42 = -104						; size = 4
$T43 = -100						; size = 4
$T44 = -96						; size = 4
_strIndex$45 = -92					; size = 4
$T46 = -88						; size = 4
_strValue$ = -84					; size = 4
$T47 = -80						; size = 4
$T48 = -76						; size = 60
__$ArrayPad$ = -16					; size = 4
__$EHRec$ = -12						; size = 12
___$ReturnUdt$ = 8					; size = 4
_order$ = 12						; size = 4
_pSymbolList$ = 16					; size = 4
?GetSavedSymbolsData@CElementSaverBuilder@@QAE?AV?$CStringT@DV?$StrTraitMFC_DLL@DV?$ChTraitsCRT@D@ATL@@@@@ATL@@ABVCOrder@@PAV?$CList@PAVCDrawingSymbol@@PAV1@@@@Z PROC ; CElementSaverBuilder::GetSavedSymbolsData, COMDAT
; _this$ = ecx

; 29   : {

  00000	55		 push	 ebp
  00001	8b ec		 mov	 ebp, esp
  00003	6a ff		 push	 -1
  00005	68 00 00 00 00	 push	 __ehhandler$?GetSavedSymbolsData@CElementSaverBuilder@@QAE?AV?$CStringT@DV?$StrTraitMFC_DLL@DV?$ChTraitsCRT@D@ATL@@@@@ATL@@ABVCOrder@@PAV?$CList@PAVCDrawingSymbol@@PAV1@@@@Z
  0000a	64 a1 00 00 00
	00		 mov	 eax, DWORD PTR fs:0
  00010	50		 push	 eax
  00011	81 ec 24 01 00
	00		 sub	 esp, 292		; 00000124H
  00017	a1 00 00 00 00	 mov	 eax, DWORD PTR ___security_cookie
  0001c	33 c5		 xor	 eax, ebp
  0001e	89 45 f0	 mov	 DWORD PTR __$ArrayPad$[ebp], eax
  00021	53		 push	 ebx
  00022	56		 push	 esi
  00023	57		 push	 edi
  00024	50		 push	 eax
  00025	8d 45 f4	 lea	 eax, DWORD PTR __$EHRec$[ebp]
  00028	64 a3 00 00 00
	00		 mov	 DWORD PTR fs:0, eax
  0002e	89 8d 60 ff ff
	ff		 mov	 DWORD PTR _this$GSCopy$1$[ebp], ecx
  00034	8b 45 0c	 mov	 eax, DWORD PTR _order$[ebp]

; 30   : 	CString strValue = "";

  00037	8d 4d ac	 lea	 ecx, DWORD PTR _strValue$[ebp]
  0003a	8b 5d 08	 mov	 ebx, DWORD PTR ___$ReturnUdt$[ebp]
  0003d	8b 75 10	 mov	 esi, DWORD PTR _pSymbolList$[ebp]
  00040	89 85 24 ff ff
	ff		 mov	 DWORD PTR _order$GSCopy$1$[ebp], eax
  00046	33 c0		 xor	 eax, eax
  00048	89 9d 58 ff ff
	ff		 mov	 DWORD PTR ___$ReturnUdt$GSCopy$[ebp], ebx
  0004e	68 00 00 00 00	 push	 OFFSET ??_C@_00CNPNBAHC@@
  00053	89 9d 5c ff ff
	ff		 mov	 DWORD PTR ___$ReturnUdt$GSCopy$1$[ebp], ebx
  00059	89 45 b0	 mov	 DWORD PTR $T47[ebp], eax
  0005c	89 45 a8	 mov	 DWORD PTR $T46[ebp], eax
  0005f	ff 15 00 00 00
	00		 call	 DWORD PTR __imp_??0?$CStringT@DV?$StrTraitMFC_DLL@DV?$ChTraitsCRT@D@ATL@@@@@ATL@@QAE@PBD@Z

; 31   : 	POSITION pos = pSymbolList->GetHeadPosition();

  00065	8b 7e 04	 mov	 edi, DWORD PTR [esi+4]
  00068	c7 45 fc 00 00
	00 00		 mov	 DWORD PTR __$EHRec$[ebp+8], 0

; 32   : 	while(pos) {

  0006f	85 ff		 test	 edi, edi
  00071	0f 84 6f 09 00
	00		 je	 $LN3@GetSavedSy
  00077	66 0f 1f 84 00
	00 00 00 00	 npad	 9
$LL2@GetSavedSy:

; 35   : 		CString strIndex = GetIndexString(pSymbol, order);

  00080	ff b5 24 ff ff
	ff		 push	 DWORD PTR _order$GSCopy$1$[ebp]
  00086	8b 5f 08	 mov	 ebx, DWORD PTR [edi+8]
  00089	8d 45 a4	 lea	 eax, DWORD PTR _strIndex$45[ebp]
  0008c	8b 8d 60 ff ff
	ff		 mov	 ecx, DWORD PTR _this$GSCopy$1$[ebp]
; File C:\Program Files (x86)\Microsoft Visual Studio\2019\Community\VC\Tools\MSVC\14.29.30133\atlmfc\include\afxtempl.h

; 813  : 		rPosition = (POSITION) pNode->pNext;

  00092	8b 3f		 mov	 edi, DWORD PTR [edi]
; File D:\git\src\IBK\IBK_DRFN\ProjSrc\SrcChartEx\ChartAddIn\ChartAnalysisToolAddIn\Symbol\ElementSaverBuilder.cpp

; 35   : 		CString strIndex = GetIndexString(pSymbol, order);

  00094	53		 push	 ebx
  00095	50		 push	 eax
  00096	e8 00 00 00 00	 call	 ?GetIndexString@CElementSaverBuilder@@ABE?AV?$CStringT@DV?$StrTraitMFC_DLL@DV?$ChTraitsCRT@D@ATL@@@@@ATL@@PBVCDrawingSymbol@@ABVCOrder@@@Z ; CElementSaverBuilder::GetIndexString
; File C:\Program Files (x86)\Microsoft Visual Studio\2019\Community\VC\Tools\MSVC\14.29.30133\atlmfc\include\atlsimpstr.h

; 519  : 		return( GetData()->nDataLength );

  0009b	8b 45 a4	 mov	 eax, DWORD PTR _strIndex$45[ebp]
; File D:\git\src\IBK\IBK_DRFN\ProjSrc\SrcChartEx\ChartAddIn\ChartAnalysisToolAddIn\Symbol\ElementSaverBuilder.cpp

; 35   : 		CString strIndex = GetIndexString(pSymbol, order);

  0009e	c6 45 fc 01	 mov	 BYTE PTR __$EHRec$[ebp+8], 1
; File C:\Program Files (x86)\Microsoft Visual Studio\2019\Community\VC\Tools\MSVC\14.29.30133\atlmfc\include\atlsimpstr.h

; 533  : 		return( GetLength() == 0 );

  000a2	83 78 f4 00	 cmp	 DWORD PTR [eax-12], 0
; File D:\git\src\IBK\IBK_DRFN\ProjSrc\SrcChartEx\ChartAddIn\ChartAnalysisToolAddIn\Symbol\ElementSaverBuilder.cpp

; 36   : 		if(strIndex.IsEmpty())

  000a6	0f 84 6f 09 00
	00		 je	 $LN259@GetSavedSy

; 38   : 
; 39   : 		strValue += strIndex;

  000ac	8d 45 a4	 lea	 eax, DWORD PTR _strIndex$45[ebp]
  000af	50		 push	 eax
  000b0	8d 4d ac	 lea	 ecx, DWORD PTR _strValue$[ebp]
  000b3	ff 15 00 00 00
	00		 call	 DWORD PTR __imp_??Y?$CStringT@DV?$StrTraitMFC_DLL@DV?$ChTraitsCRT@D@ATL@@@@@ATL@@QAEAAV01@ABV?$CSimpleStringT@D$00@1@@Z

; 40   : 		strValue += CDataConversion::IntToString(pSymbol->GetSymbolType()) + ";"; 

  000b9	8b cb		 mov	 ecx, ebx
  000bb	e8 00 00 00 00	 call	 ?GetSymbolType@CDrawingSymbol@@QAE?AW4TOOLTYPE@CSymbolBaseData@@XZ ; CDrawingSymbol::GetSymbolType
  000c0	50		 push	 eax
  000c1	8d 85 20 ff ff
	ff		 lea	 eax, DWORD PTR $T15[ebp]
  000c7	50		 push	 eax
  000c8	e8 00 00 00 00	 call	 ?IntToString@CDataConversion@@SA?AV?$CStringT@DV?$StrTraitMFC_DLL@DV?$ChTraitsCRT@D@ATL@@@@@ATL@@H@Z ; CDataConversion::IntToString
  000cd	83 c4 08	 add	 esp, 8
  000d0	8b f0		 mov	 esi, eax
; File C:\Program Files (x86)\Microsoft Visual Studio\2019\Community\VC\Tools\MSVC\14.29.30133\atlmfc\include\cstringt.h

; 2401 : 		CStringT strResult( str1.GetManager() );

  000d2	8b ce		 mov	 ecx, esi
; File D:\git\src\IBK\IBK_DRFN\ProjSrc\SrcChartEx\ChartAddIn\ChartAnalysisToolAddIn\Symbol\ElementSaverBuilder.cpp

; 40   : 		strValue += CDataConversion::IntToString(pSymbol->GetSymbolType()) + ";"; 

  000d4	c6 45 fc 03	 mov	 BYTE PTR __$EHRec$[ebp+8], 3
; File C:\Program Files (x86)\Microsoft Visual Studio\2019\Community\VC\Tools\MSVC\14.29.30133\atlmfc\include\cstringt.h

; 2401 : 		CStringT strResult( str1.GetManager() );

  000d8	ff 15 00 00 00
	00		 call	 DWORD PTR __imp_?GetManager@?$CStringT@DV?$StrTraitMFC_DLL@DV?$ChTraitsCRT@D@ATL@@@@@ATL@@QBEPAUIAtlStringMgr@2@XZ
  000de	50		 push	 eax
  000df	8d 4d a0	 lea	 ecx, DWORD PTR $T44[ebp]
  000e2	ff 15 00 00 00
	00		 call	 DWORD PTR __imp_??0?$CStringT@DV?$StrTraitMFC_DLL@DV?$ChTraitsCRT@D@ATL@@@@@ATL@@QAE@PAUIAtlStringMgr@1@@Z

; 2405 : 		return( strResult );

  000e8	8b 45 b0	 mov	 eax, DWORD PTR $T47[ebp]
  000eb	83 c8 02	 or	 eax, 2
  000ee	89 45 b0	 mov	 DWORD PTR $T47[ebp], eax
  000f1	89 45 a8	 mov	 DWORD PTR $T46[ebp], eax
; File C:\Program Files (x86)\Microsoft Visual Studio\2019\Community\VC\Tools\MSVC\14.29.30133\atlmfc\include\atlsimpstr.h

; 519  : 		return( GetData()->nDataLength );

  000f4	8b 06		 mov	 eax, DWORD PTR [esi]
; File C:\Program Files (x86)\Microsoft Visual Studio\2019\Community\VC\Tools\MSVC\14.29.30133\atlmfc\include\cstringt.h

; 2403 : 		CThisSimpleString::Concatenate( strResult, str1, str1.GetLength(), psz2, CThisSimpleString::StringLength( psz2 ) );

  000f6	6a 01		 push	 1
  000f8	68 00 00 00 00	 push	 OFFSET ??_C@_01ICJEACDI@?$DL@
  000fd	ff 70 f4	 push	 DWORD PTR [eax-12]
  00100	50		 push	 eax
  00101	8d 45 a0	 lea	 eax, DWORD PTR $T44[ebp]
  00104	50		 push	 eax
  00105	ff 15 00 00 00
	00		 call	 DWORD PTR __imp_?Concatenate@?$CSimpleStringT@D$00@ATL@@KAXAAV12@PBDH1H@Z
  0010b	83 c4 14	 add	 esp, 20			; 00000014H
; File D:\git\src\IBK\IBK_DRFN\ProjSrc\SrcChartEx\ChartAddIn\ChartAnalysisToolAddIn\Symbol\ElementSaverBuilder.cpp

; 40   : 		strValue += CDataConversion::IntToString(pSymbol->GetSymbolType()) + ";"; 

  0010e	8d 45 a0	 lea	 eax, DWORD PTR $T44[ebp]
  00111	8d 4d ac	 lea	 ecx, DWORD PTR _strValue$[ebp]
  00114	50		 push	 eax
  00115	ff 15 00 00 00
	00		 call	 DWORD PTR __imp_??Y?$CStringT@DV?$StrTraitMFC_DLL@DV?$ChTraitsCRT@D@ATL@@@@@ATL@@QAEAAV01@ABV?$CSimpleStringT@D$00@1@@Z
  0011b	83 65 b0 fd	 and	 DWORD PTR $T47[ebp], -3	; fffffffdH
  0011f	8d 4d a0	 lea	 ecx, DWORD PTR $T44[ebp]
  00122	ff 15 00 00 00
	00		 call	 DWORD PTR __imp_??1?$CStringT@DV?$StrTraitMFC_DLL@DV?$ChTraitsCRT@D@ATL@@@@@ATL@@QAE@XZ
  00128	8d 8d 20 ff ff
	ff		 lea	 ecx, DWORD PTR $T15[ebp]
  0012e	c6 45 fc 01	 mov	 BYTE PTR __$EHRec$[ebp+8], 1
  00132	ff 15 00 00 00
	00		 call	 DWORD PTR __imp_??1?$CStringT@DV?$StrTraitMFC_DLL@DV?$ChTraitsCRT@D@ATL@@@@@ATL@@QAE@XZ

; 41   : 		strValue += CDataConversion::IntToString(pSymbol->GetSizeType()) + ";"; 

  00138	8b cb		 mov	 ecx, ebx
  0013a	e8 00 00 00 00	 call	 ?GetSizeType@CDrawingSymbol@@QBE?AW4SIZETYPE@CSymbolBaseData@@XZ ; CDrawingSymbol::GetSizeType
  0013f	50		 push	 eax
  00140	8d 85 54 ff ff
	ff		 lea	 eax, DWORD PTR $T27[ebp]
  00146	50		 push	 eax
  00147	e8 00 00 00 00	 call	 ?IntToString@CDataConversion@@SA?AV?$CStringT@DV?$StrTraitMFC_DLL@DV?$ChTraitsCRT@D@ATL@@@@@ATL@@H@Z ; CDataConversion::IntToString
  0014c	83 c4 08	 add	 esp, 8
  0014f	8b f0		 mov	 esi, eax
; File C:\Program Files (x86)\Microsoft Visual Studio\2019\Community\VC\Tools\MSVC\14.29.30133\atlmfc\include\cstringt.h

; 2401 : 		CStringT strResult( str1.GetManager() );

  00151	8b ce		 mov	 ecx, esi
; File D:\git\src\IBK\IBK_DRFN\ProjSrc\SrcChartEx\ChartAddIn\ChartAnalysisToolAddIn\Symbol\ElementSaverBuilder.cpp

; 41   : 		strValue += CDataConversion::IntToString(pSymbol->GetSizeType()) + ";"; 

  00153	c6 45 fc 05	 mov	 BYTE PTR __$EHRec$[ebp+8], 5
; File C:\Program Files (x86)\Microsoft Visual Studio\2019\Community\VC\Tools\MSVC\14.29.30133\atlmfc\include\cstringt.h

; 2401 : 		CStringT strResult( str1.GetManager() );

  00157	ff 15 00 00 00
	00		 call	 DWORD PTR __imp_?GetManager@?$CStringT@DV?$StrTraitMFC_DLL@DV?$ChTraitsCRT@D@ATL@@@@@ATL@@QBEPAUIAtlStringMgr@2@XZ
  0015d	50		 push	 eax
  0015e	8d 4d 9c	 lea	 ecx, DWORD PTR $T43[ebp]
  00161	ff 15 00 00 00
	00		 call	 DWORD PTR __imp_??0?$CStringT@DV?$StrTraitMFC_DLL@DV?$ChTraitsCRT@D@ATL@@@@@ATL@@QAE@PAUIAtlStringMgr@1@@Z

; 2405 : 		return( strResult );

  00167	8b 45 b0	 mov	 eax, DWORD PTR $T47[ebp]
  0016a	83 c8 04	 or	 eax, 4
  0016d	89 45 b0	 mov	 DWORD PTR $T47[ebp], eax
  00170	89 45 a8	 mov	 DWORD PTR $T46[ebp], eax
; File C:\Program Files (x86)\Microsoft Visual Studio\2019\Community\VC\Tools\MSVC\14.29.30133\atlmfc\include\atlsimpstr.h

; 519  : 		return( GetData()->nDataLength );

  00173	8b 06		 mov	 eax, DWORD PTR [esi]
; File C:\Program Files (x86)\Microsoft Visual Studio\2019\Community\VC\Tools\MSVC\14.29.30133\atlmfc\include\cstringt.h

; 2403 : 		CThisSimpleString::Concatenate( strResult, str1, str1.GetLength(), psz2, CThisSimpleString::StringLength( psz2 ) );

  00175	6a 01		 push	 1
  00177	68 00 00 00 00	 push	 OFFSET ??_C@_01ICJEACDI@?$DL@
  0017c	ff 70 f4	 push	 DWORD PTR [eax-12]
  0017f	50		 push	 eax
  00180	8d 45 9c	 lea	 eax, DWORD PTR $T43[ebp]
  00183	50		 push	 eax
  00184	ff 15 00 00 00
	00		 call	 DWORD PTR __imp_?Concatenate@?$CSimpleStringT@D$00@ATL@@KAXAAV12@PBDH1H@Z
  0018a	83 c4 14	 add	 esp, 20			; 00000014H
; File D:\git\src\IBK\IBK_DRFN\ProjSrc\SrcChartEx\ChartAddIn\ChartAnalysisToolAddIn\Symbol\ElementSaverBuilder.cpp

; 41   : 		strValue += CDataConversion::IntToString(pSymbol->GetSizeType()) + ";"; 

  0018d	8d 45 9c	 lea	 eax, DWORD PTR $T43[ebp]
  00190	8d 4d ac	 lea	 ecx, DWORD PTR _strValue$[ebp]
  00193	50		 push	 eax
  00194	ff 15 00 00 00
	00		 call	 DWORD PTR __imp_??Y?$CStringT@DV?$StrTraitMFC_DLL@DV?$ChTraitsCRT@D@ATL@@@@@ATL@@QAEAAV01@ABV?$CSimpleStringT@D$00@1@@Z
  0019a	83 65 b0 fb	 and	 DWORD PTR $T47[ebp], -5	; fffffffbH
  0019e	8d 4d 9c	 lea	 ecx, DWORD PTR $T43[ebp]
  001a1	ff 15 00 00 00
	00		 call	 DWORD PTR __imp_??1?$CStringT@DV?$StrTraitMFC_DLL@DV?$ChTraitsCRT@D@ATL@@@@@ATL@@QAE@XZ
  001a7	c6 45 fc 01	 mov	 BYTE PTR __$EHRec$[ebp+8], 1
  001ab	8d 8d 54 ff ff
	ff		 lea	 ecx, DWORD PTR $T27[ebp]
  001b1	ff 15 00 00 00
	00		 call	 DWORD PTR __imp_??1?$CStringT@DV?$StrTraitMFC_DLL@DV?$ChTraitsCRT@D@ATL@@@@@ATL@@QAE@XZ

; 42   : 		strValue += CDataConversion::DoubleToString((pSymbol->GetStartPoint()).GetX()) + ";"; 

  001b7	8b 03		 mov	 eax, DWORD PTR [ebx]
  001b9	8d 8d e0 fe ff
	ff		 lea	 ecx, DWORD PTR $T8[ebp]
  001bf	51		 push	 ecx
  001c0	8b cb		 mov	 ecx, ebx
  001c2	ff 50 20	 call	 DWORD PTR [eax+32]
  001c5	8b c8		 mov	 ecx, eax
  001c7	e8 00 00 00 00	 call	 ?GetX@CCoordinate@@QBENXZ ; CCoordinate::GetX
  001cc	8d 85 08 ff ff
	ff		 lea	 eax, DWORD PTR $T11[ebp]
  001d2	50		 push	 eax
  001d3	8d 85 50 ff ff
	ff		 lea	 eax, DWORD PTR $T26[ebp]
  001d9	50		 push	 eax
  001da	dd 9d 08 ff ff
	ff		 fstp	 QWORD PTR $T11[ebp]
  001e0	e8 00 00 00 00	 call	 ?DoubleToString@CDataConversion@@SA?AV?$CStringT@DV?$StrTraitMFC_DLL@DV?$ChTraitsCRT@D@ATL@@@@@ATL@@ABN@Z ; CDataConversion::DoubleToString
  001e5	83 c4 08	 add	 esp, 8
  001e8	8b f0		 mov	 esi, eax
; File C:\Program Files (x86)\Microsoft Visual Studio\2019\Community\VC\Tools\MSVC\14.29.30133\atlmfc\include\cstringt.h

; 2401 : 		CStringT strResult( str1.GetManager() );

  001ea	8b ce		 mov	 ecx, esi
; File D:\git\src\IBK\IBK_DRFN\ProjSrc\SrcChartEx\ChartAddIn\ChartAnalysisToolAddIn\Symbol\ElementSaverBuilder.cpp

; 42   : 		strValue += CDataConversion::DoubleToString((pSymbol->GetStartPoint()).GetX()) + ";"; 

  001ec	c6 45 fc 07	 mov	 BYTE PTR __$EHRec$[ebp+8], 7
; File C:\Program Files (x86)\Microsoft Visual Studio\2019\Community\VC\Tools\MSVC\14.29.30133\atlmfc\include\cstringt.h

; 2401 : 		CStringT strResult( str1.GetManager() );

  001f0	ff 15 00 00 00
	00		 call	 DWORD PTR __imp_?GetManager@?$CStringT@DV?$StrTraitMFC_DLL@DV?$ChTraitsCRT@D@ATL@@@@@ATL@@QBEPAUIAtlStringMgr@2@XZ
  001f6	50		 push	 eax
  001f7	8d 4d 98	 lea	 ecx, DWORD PTR $T42[ebp]
  001fa	ff 15 00 00 00
	00		 call	 DWORD PTR __imp_??0?$CStringT@DV?$StrTraitMFC_DLL@DV?$ChTraitsCRT@D@ATL@@@@@ATL@@QAE@PAUIAtlStringMgr@1@@Z

; 2405 : 		return( strResult );

  00200	8b 45 b0	 mov	 eax, DWORD PTR $T47[ebp]
  00203	83 c8 08	 or	 eax, 8
  00206	89 45 b0	 mov	 DWORD PTR $T47[ebp], eax
  00209	89 45 a8	 mov	 DWORD PTR $T46[ebp], eax
; File C:\Program Files (x86)\Microsoft Visual Studio\2019\Community\VC\Tools\MSVC\14.29.30133\atlmfc\include\atlsimpstr.h

; 519  : 		return( GetData()->nDataLength );

  0020c	8b 06		 mov	 eax, DWORD PTR [esi]
; File C:\Program Files (x86)\Microsoft Visual Studio\2019\Community\VC\Tools\MSVC\14.29.30133\atlmfc\include\cstringt.h

; 2403 : 		CThisSimpleString::Concatenate( strResult, str1, str1.GetLength(), psz2, CThisSimpleString::StringLength( psz2 ) );

  0020e	6a 01		 push	 1
  00210	68 00 00 00 00	 push	 OFFSET ??_C@_01ICJEACDI@?$DL@
  00215	ff 70 f4	 push	 DWORD PTR [eax-12]
  00218	50		 push	 eax
  00219	8d 45 98	 lea	 eax, DWORD PTR $T42[ebp]
  0021c	50		 push	 eax
  0021d	ff 15 00 00 00
	00		 call	 DWORD PTR __imp_?Concatenate@?$CSimpleStringT@D$00@ATL@@KAXAAV12@PBDH1H@Z
  00223	83 c4 14	 add	 esp, 20			; 00000014H
; File D:\git\src\IBK\IBK_DRFN\ProjSrc\SrcChartEx\ChartAddIn\ChartAnalysisToolAddIn\Symbol\ElementSaverBuilder.cpp

; 42   : 		strValue += CDataConversion::DoubleToString((pSymbol->GetStartPoint()).GetX()) + ";"; 

  00226	8d 45 98	 lea	 eax, DWORD PTR $T42[ebp]
  00229	8d 4d ac	 lea	 ecx, DWORD PTR _strValue$[ebp]
  0022c	50		 push	 eax
  0022d	ff 15 00 00 00
	00		 call	 DWORD PTR __imp_??Y?$CStringT@DV?$StrTraitMFC_DLL@DV?$ChTraitsCRT@D@ATL@@@@@ATL@@QAEAAV01@ABV?$CSimpleStringT@D$00@1@@Z
  00233	83 65 b0 f7	 and	 DWORD PTR $T47[ebp], -9	; fffffff7H
  00237	8d 4d 98	 lea	 ecx, DWORD PTR $T42[ebp]
  0023a	ff 15 00 00 00
	00		 call	 DWORD PTR __imp_??1?$CStringT@DV?$StrTraitMFC_DLL@DV?$ChTraitsCRT@D@ATL@@@@@ATL@@QAE@XZ
  00240	8d 8d 50 ff ff
	ff		 lea	 ecx, DWORD PTR $T26[ebp]
  00246	c6 45 fc 01	 mov	 BYTE PTR __$EHRec$[ebp+8], 1
  0024a	ff 15 00 00 00
	00		 call	 DWORD PTR __imp_??1?$CStringT@DV?$StrTraitMFC_DLL@DV?$ChTraitsCRT@D@ATL@@@@@ATL@@QAE@XZ

; 43   : 		strValue += CDataConversion::DoubleToString((pSymbol->GetStartPoint()).GetY()) + ";"; 

  00250	8b 03		 mov	 eax, DWORD PTR [ebx]
  00252	8d 8d e0 fe ff
	ff		 lea	 ecx, DWORD PTR $T7[ebp]
  00258	51		 push	 ecx
  00259	8b cb		 mov	 ecx, ebx
  0025b	ff 50 20	 call	 DWORD PTR [eax+32]
  0025e	8b c8		 mov	 ecx, eax
  00260	e8 00 00 00 00	 call	 ?GetY@CCoordinate@@QBENXZ ; CCoordinate::GetY
  00265	8d 85 10 ff ff
	ff		 lea	 eax, DWORD PTR $T12[ebp]
  0026b	50		 push	 eax
  0026c	8d 85 4c ff ff
	ff		 lea	 eax, DWORD PTR $T25[ebp]
  00272	50		 push	 eax
  00273	dd 9d 10 ff ff
	ff		 fstp	 QWORD PTR $T12[ebp]
  00279	e8 00 00 00 00	 call	 ?DoubleToString@CDataConversion@@SA?AV?$CStringT@DV?$StrTraitMFC_DLL@DV?$ChTraitsCRT@D@ATL@@@@@ATL@@ABN@Z ; CDataConversion::DoubleToString
  0027e	83 c4 08	 add	 esp, 8
  00281	8b f0		 mov	 esi, eax
; File C:\Program Files (x86)\Microsoft Visual Studio\2019\Community\VC\Tools\MSVC\14.29.30133\atlmfc\include\cstringt.h

; 2401 : 		CStringT strResult( str1.GetManager() );

  00283	8b ce		 mov	 ecx, esi
; File D:\git\src\IBK\IBK_DRFN\ProjSrc\SrcChartEx\ChartAddIn\ChartAnalysisToolAddIn\Symbol\ElementSaverBuilder.cpp

; 43   : 		strValue += CDataConversion::DoubleToString((pSymbol->GetStartPoint()).GetY()) + ";"; 

  00285	c6 45 fc 09	 mov	 BYTE PTR __$EHRec$[ebp+8], 9
; File C:\Program Files (x86)\Microsoft Visual Studio\2019\Community\VC\Tools\MSVC\14.29.30133\atlmfc\include\cstringt.h

; 2401 : 		CStringT strResult( str1.GetManager() );

  00289	ff 15 00 00 00
	00		 call	 DWORD PTR __imp_?GetManager@?$CStringT@DV?$StrTraitMFC_DLL@DV?$ChTraitsCRT@D@ATL@@@@@ATL@@QBEPAUIAtlStringMgr@2@XZ
  0028f	50		 push	 eax
  00290	8d 4d 94	 lea	 ecx, DWORD PTR $T41[ebp]
  00293	ff 15 00 00 00
	00		 call	 DWORD PTR __imp_??0?$CStringT@DV?$StrTraitMFC_DLL@DV?$ChTraitsCRT@D@ATL@@@@@ATL@@QAE@PAUIAtlStringMgr@1@@Z

; 2405 : 		return( strResult );

  00299	8b 45 b0	 mov	 eax, DWORD PTR $T47[ebp]
  0029c	83 c8 10	 or	 eax, 16			; 00000010H
  0029f	89 45 b0	 mov	 DWORD PTR $T47[ebp], eax
  002a2	89 45 a8	 mov	 DWORD PTR $T46[ebp], eax
; File C:\Program Files (x86)\Microsoft Visual Studio\2019\Community\VC\Tools\MSVC\14.29.30133\atlmfc\include\atlsimpstr.h

; 519  : 		return( GetData()->nDataLength );

  002a5	8b 06		 mov	 eax, DWORD PTR [esi]
; File C:\Program Files (x86)\Microsoft Visual Studio\2019\Community\VC\Tools\MSVC\14.29.30133\atlmfc\include\cstringt.h

; 2403 : 		CThisSimpleString::Concatenate( strResult, str1, str1.GetLength(), psz2, CThisSimpleString::StringLength( psz2 ) );

  002a7	6a 01		 push	 1
  002a9	68 00 00 00 00	 push	 OFFSET ??_C@_01ICJEACDI@?$DL@
  002ae	ff 70 f4	 push	 DWORD PTR [eax-12]
  002b1	50		 push	 eax
  002b2	8d 45 94	 lea	 eax, DWORD PTR $T41[ebp]
  002b5	50		 push	 eax
  002b6	ff 15 00 00 00
	00		 call	 DWORD PTR __imp_?Concatenate@?$CSimpleStringT@D$00@ATL@@KAXAAV12@PBDH1H@Z
  002bc	83 c4 14	 add	 esp, 20			; 00000014H
; File D:\git\src\IBK\IBK_DRFN\ProjSrc\SrcChartEx\ChartAddIn\ChartAnalysisToolAddIn\Symbol\ElementSaverBuilder.cpp

; 43   : 		strValue += CDataConversion::DoubleToString((pSymbol->GetStartPoint()).GetY()) + ";"; 

  002bf	8d 45 94	 lea	 eax, DWORD PTR $T41[ebp]
  002c2	8d 4d ac	 lea	 ecx, DWORD PTR _strValue$[ebp]
  002c5	50		 push	 eax
  002c6	ff 15 00 00 00
	00		 call	 DWORD PTR __imp_??Y?$CStringT@DV?$StrTraitMFC_DLL@DV?$ChTraitsCRT@D@ATL@@@@@ATL@@QAEAAV01@ABV?$CSimpleStringT@D$00@1@@Z
  002cc	83 65 b0 ef	 and	 DWORD PTR $T47[ebp], -17 ; ffffffefH
  002d0	8d 4d 94	 lea	 ecx, DWORD PTR $T41[ebp]
  002d3	ff 15 00 00 00
	00		 call	 DWORD PTR __imp_??1?$CStringT@DV?$StrTraitMFC_DLL@DV?$ChTraitsCRT@D@ATL@@@@@ATL@@QAE@XZ
  002d9	8d 8d 4c ff ff
	ff		 lea	 ecx, DWORD PTR $T25[ebp]
  002df	c6 45 fc 01	 mov	 BYTE PTR __$EHRec$[ebp+8], 1
  002e3	ff 15 00 00 00
	00		 call	 DWORD PTR __imp_??1?$CStringT@DV?$StrTraitMFC_DLL@DV?$ChTraitsCRT@D@ATL@@@@@ATL@@QAE@XZ

; 44   : 		strValue += CDataConversion::DoubleToString((pSymbol->GetEndPoint()).GetX()) + ";"; 

  002e9	8b 03		 mov	 eax, DWORD PTR [ebx]
  002eb	8d 8d e0 fe ff
	ff		 lea	 ecx, DWORD PTR $T6[ebp]
  002f1	51		 push	 ecx
  002f2	8b cb		 mov	 ecx, ebx
  002f4	ff 50 24	 call	 DWORD PTR [eax+36]
  002f7	8b c8		 mov	 ecx, eax
  002f9	e8 00 00 00 00	 call	 ?GetX@CCoordinate@@QBENXZ ; CCoordinate::GetX
  002fe	8d 85 f8 fe ff
	ff		 lea	 eax, DWORD PTR $T9[ebp]
  00304	50		 push	 eax
  00305	8d 85 48 ff ff
	ff		 lea	 eax, DWORD PTR $T24[ebp]
  0030b	50		 push	 eax
  0030c	dd 9d f8 fe ff
	ff		 fstp	 QWORD PTR $T9[ebp]
  00312	e8 00 00 00 00	 call	 ?DoubleToString@CDataConversion@@SA?AV?$CStringT@DV?$StrTraitMFC_DLL@DV?$ChTraitsCRT@D@ATL@@@@@ATL@@ABN@Z ; CDataConversion::DoubleToString
  00317	83 c4 08	 add	 esp, 8
  0031a	8b f0		 mov	 esi, eax
; File C:\Program Files (x86)\Microsoft Visual Studio\2019\Community\VC\Tools\MSVC\14.29.30133\atlmfc\include\cstringt.h

; 2401 : 		CStringT strResult( str1.GetManager() );

  0031c	8b ce		 mov	 ecx, esi
; File D:\git\src\IBK\IBK_DRFN\ProjSrc\SrcChartEx\ChartAddIn\ChartAnalysisToolAddIn\Symbol\ElementSaverBuilder.cpp

; 44   : 		strValue += CDataConversion::DoubleToString((pSymbol->GetEndPoint()).GetX()) + ";"; 

  0031e	c6 45 fc 0b	 mov	 BYTE PTR __$EHRec$[ebp+8], 11 ; 0000000bH
; File C:\Program Files (x86)\Microsoft Visual Studio\2019\Community\VC\Tools\MSVC\14.29.30133\atlmfc\include\cstringt.h

; 2401 : 		CStringT strResult( str1.GetManager() );

  00322	ff 15 00 00 00
	00		 call	 DWORD PTR __imp_?GetManager@?$CStringT@DV?$StrTraitMFC_DLL@DV?$ChTraitsCRT@D@ATL@@@@@ATL@@QBEPAUIAtlStringMgr@2@XZ
  00328	50		 push	 eax
  00329	8d 4d 90	 lea	 ecx, DWORD PTR $T40[ebp]
  0032c	ff 15 00 00 00
	00		 call	 DWORD PTR __imp_??0?$CStringT@DV?$StrTraitMFC_DLL@DV?$ChTraitsCRT@D@ATL@@@@@ATL@@QAE@PAUIAtlStringMgr@1@@Z

; 2405 : 		return( strResult );

  00332	8b 45 b0	 mov	 eax, DWORD PTR $T47[ebp]
  00335	83 c8 20	 or	 eax, 32			; 00000020H
  00338	89 45 b0	 mov	 DWORD PTR $T47[ebp], eax
  0033b	89 45 a8	 mov	 DWORD PTR $T46[ebp], eax
; File C:\Program Files (x86)\Microsoft Visual Studio\2019\Community\VC\Tools\MSVC\14.29.30133\atlmfc\include\atlsimpstr.h

; 519  : 		return( GetData()->nDataLength );

  0033e	8b 06		 mov	 eax, DWORD PTR [esi]
; File C:\Program Files (x86)\Microsoft Visual Studio\2019\Community\VC\Tools\MSVC\14.29.30133\atlmfc\include\cstringt.h

; 2403 : 		CThisSimpleString::Concatenate( strResult, str1, str1.GetLength(), psz2, CThisSimpleString::StringLength( psz2 ) );

  00340	6a 01		 push	 1
  00342	68 00 00 00 00	 push	 OFFSET ??_C@_01ICJEACDI@?$DL@
  00347	ff 70 f4	 push	 DWORD PTR [eax-12]
  0034a	50		 push	 eax
  0034b	8d 45 90	 lea	 eax, DWORD PTR $T40[ebp]
  0034e	50		 push	 eax
  0034f	ff 15 00 00 00
	00		 call	 DWORD PTR __imp_?Concatenate@?$CSimpleStringT@D$00@ATL@@KAXAAV12@PBDH1H@Z
  00355	83 c4 14	 add	 esp, 20			; 00000014H
; File D:\git\src\IBK\IBK_DRFN\ProjSrc\SrcChartEx\ChartAddIn\ChartAnalysisToolAddIn\Symbol\ElementSaverBuilder.cpp

; 44   : 		strValue += CDataConversion::DoubleToString((pSymbol->GetEndPoint()).GetX()) + ";"; 

  00358	8d 45 90	 lea	 eax, DWORD PTR $T40[ebp]
  0035b	8d 4d ac	 lea	 ecx, DWORD PTR _strValue$[ebp]
  0035e	50		 push	 eax
  0035f	ff 15 00 00 00
	00		 call	 DWORD PTR __imp_??Y?$CStringT@DV?$StrTraitMFC_DLL@DV?$ChTraitsCRT@D@ATL@@@@@ATL@@QAEAAV01@ABV?$CSimpleStringT@D$00@1@@Z
  00365	83 65 b0 df	 and	 DWORD PTR $T47[ebp], -33 ; ffffffdfH
  00369	8d 4d 90	 lea	 ecx, DWORD PTR $T40[ebp]
  0036c	ff 15 00 00 00
	00		 call	 DWORD PTR __imp_??1?$CStringT@DV?$StrTraitMFC_DLL@DV?$ChTraitsCRT@D@ATL@@@@@ATL@@QAE@XZ
  00372	8d 8d 48 ff ff
	ff		 lea	 ecx, DWORD PTR $T24[ebp]
  00378	c6 45 fc 01	 mov	 BYTE PTR __$EHRec$[ebp+8], 1
  0037c	ff 15 00 00 00
	00		 call	 DWORD PTR __imp_??1?$CStringT@DV?$StrTraitMFC_DLL@DV?$ChTraitsCRT@D@ATL@@@@@ATL@@QAE@XZ

; 45   : 		strValue += CDataConversion::DoubleToString((pSymbol->GetEndPoint()).GetY()) + ";"; 

  00382	8b 03		 mov	 eax, DWORD PTR [ebx]
  00384	8d 8d e0 fe ff
	ff		 lea	 ecx, DWORD PTR $T5[ebp]
  0038a	51		 push	 ecx
  0038b	8b cb		 mov	 ecx, ebx
  0038d	ff 50 24	 call	 DWORD PTR [eax+36]
  00390	8b c8		 mov	 ecx, eax
  00392	e8 00 00 00 00	 call	 ?GetY@CCoordinate@@QBENXZ ; CCoordinate::GetY
  00397	8d 85 00 ff ff
	ff		 lea	 eax, DWORD PTR $T10[ebp]
  0039d	50		 push	 eax
  0039e	8d 85 44 ff ff
	ff		 lea	 eax, DWORD PTR $T23[ebp]
  003a4	50		 push	 eax
  003a5	dd 9d 00 ff ff
	ff		 fstp	 QWORD PTR $T10[ebp]
  003ab	e8 00 00 00 00	 call	 ?DoubleToString@CDataConversion@@SA?AV?$CStringT@DV?$StrTraitMFC_DLL@DV?$ChTraitsCRT@D@ATL@@@@@ATL@@ABN@Z ; CDataConversion::DoubleToString
  003b0	83 c4 08	 add	 esp, 8
  003b3	8b f0		 mov	 esi, eax
; File C:\Program Files (x86)\Microsoft Visual Studio\2019\Community\VC\Tools\MSVC\14.29.30133\atlmfc\include\cstringt.h

; 2401 : 		CStringT strResult( str1.GetManager() );

  003b5	8b ce		 mov	 ecx, esi
; File D:\git\src\IBK\IBK_DRFN\ProjSrc\SrcChartEx\ChartAddIn\ChartAnalysisToolAddIn\Symbol\ElementSaverBuilder.cpp

; 45   : 		strValue += CDataConversion::DoubleToString((pSymbol->GetEndPoint()).GetY()) + ";"; 

  003b7	c6 45 fc 0d	 mov	 BYTE PTR __$EHRec$[ebp+8], 13 ; 0000000dH
; File C:\Program Files (x86)\Microsoft Visual Studio\2019\Community\VC\Tools\MSVC\14.29.30133\atlmfc\include\cstringt.h

; 2401 : 		CStringT strResult( str1.GetManager() );

  003bb	ff 15 00 00 00
	00		 call	 DWORD PTR __imp_?GetManager@?$CStringT@DV?$StrTraitMFC_DLL@DV?$ChTraitsCRT@D@ATL@@@@@ATL@@QBEPAUIAtlStringMgr@2@XZ
  003c1	50		 push	 eax
  003c2	8d 4d 8c	 lea	 ecx, DWORD PTR $T39[ebp]
  003c5	ff 15 00 00 00
	00		 call	 DWORD PTR __imp_??0?$CStringT@DV?$StrTraitMFC_DLL@DV?$ChTraitsCRT@D@ATL@@@@@ATL@@QAE@PAUIAtlStringMgr@1@@Z

; 2405 : 		return( strResult );

  003cb	8b 45 b0	 mov	 eax, DWORD PTR $T47[ebp]
  003ce	83 c8 40	 or	 eax, 64			; 00000040H
  003d1	89 45 b0	 mov	 DWORD PTR $T47[ebp], eax
  003d4	89 45 a8	 mov	 DWORD PTR $T46[ebp], eax
; File C:\Program Files (x86)\Microsoft Visual Studio\2019\Community\VC\Tools\MSVC\14.29.30133\atlmfc\include\atlsimpstr.h

; 519  : 		return( GetData()->nDataLength );

  003d7	8b 06		 mov	 eax, DWORD PTR [esi]
; File C:\Program Files (x86)\Microsoft Visual Studio\2019\Community\VC\Tools\MSVC\14.29.30133\atlmfc\include\cstringt.h

; 2403 : 		CThisSimpleString::Concatenate( strResult, str1, str1.GetLength(), psz2, CThisSimpleString::StringLength( psz2 ) );

  003d9	6a 01		 push	 1
  003db	68 00 00 00 00	 push	 OFFSET ??_C@_01ICJEACDI@?$DL@
  003e0	ff 70 f4	 push	 DWORD PTR [eax-12]
  003e3	50		 push	 eax
  003e4	8d 45 8c	 lea	 eax, DWORD PTR $T39[ebp]
  003e7	50		 push	 eax
  003e8	ff 15 00 00 00
	00		 call	 DWORD PTR __imp_?Concatenate@?$CSimpleStringT@D$00@ATL@@KAXAAV12@PBDH1H@Z
  003ee	83 c4 14	 add	 esp, 20			; 00000014H
; File D:\git\src\IBK\IBK_DRFN\ProjSrc\SrcChartEx\ChartAddIn\ChartAnalysisToolAddIn\Symbol\ElementSaverBuilder.cpp

; 45   : 		strValue += CDataConversion::DoubleToString((pSymbol->GetEndPoint()).GetY()) + ";"; 

  003f1	8d 45 8c	 lea	 eax, DWORD PTR $T39[ebp]
  003f4	8d 4d ac	 lea	 ecx, DWORD PTR _strValue$[ebp]
  003f7	50		 push	 eax
  003f8	ff 15 00 00 00
	00		 call	 DWORD PTR __imp_??Y?$CStringT@DV?$StrTraitMFC_DLL@DV?$ChTraitsCRT@D@ATL@@@@@ATL@@QAEAAV01@ABV?$CSimpleStringT@D$00@1@@Z
  003fe	83 65 b0 bf	 and	 DWORD PTR $T47[ebp], -65 ; ffffffbfH
  00402	8d 4d 8c	 lea	 ecx, DWORD PTR $T39[ebp]
  00405	ff 15 00 00 00
	00		 call	 DWORD PTR __imp_??1?$CStringT@DV?$StrTraitMFC_DLL@DV?$ChTraitsCRT@D@ATL@@@@@ATL@@QAE@XZ
  0040b	8d 8d 44 ff ff
	ff		 lea	 ecx, DWORD PTR $T23[ebp]
  00411	c6 45 fc 01	 mov	 BYTE PTR __$EHRec$[ebp+8], 1
  00415	ff 15 00 00 00
	00		 call	 DWORD PTR __imp_??1?$CStringT@DV?$StrTraitMFC_DLL@DV?$ChTraitsCRT@D@ATL@@@@@ATL@@QAE@XZ

; 46   : 		strValue += CDataConversion::IntToString((pSymbol->GetSymbolSize()).cx) + ";"; 

  0041b	8b 03		 mov	 eax, DWORD PTR [ebx]
  0041d	8d 8d d8 fe ff
	ff		 lea	 ecx, DWORD PTR $T3[ebp]
  00423	51		 push	 ecx
  00424	8b cb		 mov	 ecx, ebx
  00426	ff 50 30	 call	 DWORD PTR [eax+48]
  00429	ff 30		 push	 DWORD PTR [eax]
  0042b	8d 85 40 ff ff
	ff		 lea	 eax, DWORD PTR $T22[ebp]
  00431	50		 push	 eax
  00432	e8 00 00 00 00	 call	 ?IntToString@CDataConversion@@SA?AV?$CStringT@DV?$StrTraitMFC_DLL@DV?$ChTraitsCRT@D@ATL@@@@@ATL@@H@Z ; CDataConversion::IntToString
  00437	83 c4 08	 add	 esp, 8
  0043a	8b f0		 mov	 esi, eax
; File C:\Program Files (x86)\Microsoft Visual Studio\2019\Community\VC\Tools\MSVC\14.29.30133\atlmfc\include\cstringt.h

; 2401 : 		CStringT strResult( str1.GetManager() );

  0043c	8b ce		 mov	 ecx, esi
; File D:\git\src\IBK\IBK_DRFN\ProjSrc\SrcChartEx\ChartAddIn\ChartAnalysisToolAddIn\Symbol\ElementSaverBuilder.cpp

; 46   : 		strValue += CDataConversion::IntToString((pSymbol->GetSymbolSize()).cx) + ";"; 

  0043e	c6 45 fc 0f	 mov	 BYTE PTR __$EHRec$[ebp+8], 15 ; 0000000fH
; File C:\Program Files (x86)\Microsoft Visual Studio\2019\Community\VC\Tools\MSVC\14.29.30133\atlmfc\include\cstringt.h

; 2401 : 		CStringT strResult( str1.GetManager() );

  00442	ff 15 00 00 00
	00		 call	 DWORD PTR __imp_?GetManager@?$CStringT@DV?$StrTraitMFC_DLL@DV?$ChTraitsCRT@D@ATL@@@@@ATL@@QBEPAUIAtlStringMgr@2@XZ
  00448	50		 push	 eax
  00449	8d 4d 88	 lea	 ecx, DWORD PTR $T38[ebp]
  0044c	ff 15 00 00 00
	00		 call	 DWORD PTR __imp_??0?$CStringT@DV?$StrTraitMFC_DLL@DV?$ChTraitsCRT@D@ATL@@@@@ATL@@QAE@PAUIAtlStringMgr@1@@Z

; 2405 : 		return( strResult );

  00452	8b 45 b0	 mov	 eax, DWORD PTR $T47[ebp]
  00455	0d 80 00 00 00	 or	 eax, 128		; 00000080H
  0045a	89 45 b0	 mov	 DWORD PTR $T47[ebp], eax
  0045d	89 45 a8	 mov	 DWORD PTR $T46[ebp], eax
; File C:\Program Files (x86)\Microsoft Visual Studio\2019\Community\VC\Tools\MSVC\14.29.30133\atlmfc\include\atlsimpstr.h

; 519  : 		return( GetData()->nDataLength );

  00460	8b 06		 mov	 eax, DWORD PTR [esi]
; File C:\Program Files (x86)\Microsoft Visual Studio\2019\Community\VC\Tools\MSVC\14.29.30133\atlmfc\include\cstringt.h

; 2403 : 		CThisSimpleString::Concatenate( strResult, str1, str1.GetLength(), psz2, CThisSimpleString::StringLength( psz2 ) );

  00462	6a 01		 push	 1
  00464	68 00 00 00 00	 push	 OFFSET ??_C@_01ICJEACDI@?$DL@
  00469	ff 70 f4	 push	 DWORD PTR [eax-12]
  0046c	50		 push	 eax
  0046d	8d 45 88	 lea	 eax, DWORD PTR $T38[ebp]
  00470	50		 push	 eax
  00471	ff 15 00 00 00
	00		 call	 DWORD PTR __imp_?Concatenate@?$CSimpleStringT@D$00@ATL@@KAXAAV12@PBDH1H@Z
  00477	83 c4 14	 add	 esp, 20			; 00000014H
; File D:\git\src\IBK\IBK_DRFN\ProjSrc\SrcChartEx\ChartAddIn\ChartAnalysisToolAddIn\Symbol\ElementSaverBuilder.cpp

; 46   : 		strValue += CDataConversion::IntToString((pSymbol->GetSymbolSize()).cx) + ";"; 

  0047a	8d 45 88	 lea	 eax, DWORD PTR $T38[ebp]
  0047d	8d 4d ac	 lea	 ecx, DWORD PTR _strValue$[ebp]
  00480	50		 push	 eax
  00481	ff 15 00 00 00
	00		 call	 DWORD PTR __imp_??Y?$CStringT@DV?$StrTraitMFC_DLL@DV?$ChTraitsCRT@D@ATL@@@@@ATL@@QAEAAV01@ABV?$CSimpleStringT@D$00@1@@Z
  00487	81 65 b0 7f ff
	ff ff		 and	 DWORD PTR $T47[ebp], -129 ; ffffff7fH
  0048e	8d 4d 88	 lea	 ecx, DWORD PTR $T38[ebp]
  00491	ff 15 00 00 00
	00		 call	 DWORD PTR __imp_??1?$CStringT@DV?$StrTraitMFC_DLL@DV?$ChTraitsCRT@D@ATL@@@@@ATL@@QAE@XZ
  00497	8d 8d 40 ff ff
	ff		 lea	 ecx, DWORD PTR $T22[ebp]
  0049d	c6 45 fc 01	 mov	 BYTE PTR __$EHRec$[ebp+8], 1
  004a1	ff 15 00 00 00
	00		 call	 DWORD PTR __imp_??1?$CStringT@DV?$StrTraitMFC_DLL@DV?$ChTraitsCRT@D@ATL@@@@@ATL@@QAE@XZ

; 47   : 		strValue += CDataConversion::IntToString((pSymbol->GetSymbolSize()).cy) + ";"; 		

  004a7	8b 03		 mov	 eax, DWORD PTR [ebx]
  004a9	8d 8d d0 fe ff
	ff		 lea	 ecx, DWORD PTR $T2[ebp]
  004af	51		 push	 ecx
  004b0	8b cb		 mov	 ecx, ebx
  004b2	ff 50 30	 call	 DWORD PTR [eax+48]
  004b5	8b 40 04	 mov	 eax, DWORD PTR [eax+4]
  004b8	50		 push	 eax
  004b9	8d 85 3c ff ff
	ff		 lea	 eax, DWORD PTR $T21[ebp]
  004bf	50		 push	 eax
  004c0	e8 00 00 00 00	 call	 ?IntToString@CDataConversion@@SA?AV?$CStringT@DV?$StrTraitMFC_DLL@DV?$ChTraitsCRT@D@ATL@@@@@ATL@@H@Z ; CDataConversion::IntToString
  004c5	83 c4 08	 add	 esp, 8
  004c8	8b f0		 mov	 esi, eax
  004ca	c6 45 fc 11	 mov	 BYTE PTR __$EHRec$[ebp+8], 17 ; 00000011H
; File C:\Program Files (x86)\Microsoft Visual Studio\2019\Community\VC\Tools\MSVC\14.29.30133\atlmfc\include\cstringt.h

; 2401 : 		CStringT strResult( str1.GetManager() );

  004ce	8b ce		 mov	 ecx, esi
  004d0	ff 15 00 00 00
	00		 call	 DWORD PTR __imp_?GetManager@?$CStringT@DV?$StrTraitMFC_DLL@DV?$ChTraitsCRT@D@ATL@@@@@ATL@@QBEPAUIAtlStringMgr@2@XZ
  004d6	50		 push	 eax
  004d7	8d 4d 84	 lea	 ecx, DWORD PTR $T37[ebp]
  004da	ff 15 00 00 00
	00		 call	 DWORD PTR __imp_??0?$CStringT@DV?$StrTraitMFC_DLL@DV?$ChTraitsCRT@D@ATL@@@@@ATL@@QAE@PAUIAtlStringMgr@1@@Z

; 2405 : 		return( strResult );

  004e0	8b 45 b0	 mov	 eax, DWORD PTR $T47[ebp]
  004e3	0d 00 01 00 00	 or	 eax, 256		; 00000100H
  004e8	89 45 b0	 mov	 DWORD PTR $T47[ebp], eax
  004eb	89 45 a8	 mov	 DWORD PTR $T46[ebp], eax
; File C:\Program Files (x86)\Microsoft Visual Studio\2019\Community\VC\Tools\MSVC\14.29.30133\atlmfc\include\atlsimpstr.h

; 519  : 		return( GetData()->nDataLength );

  004ee	8b 06		 mov	 eax, DWORD PTR [esi]
; File C:\Program Files (x86)\Microsoft Visual Studio\2019\Community\VC\Tools\MSVC\14.29.30133\atlmfc\include\cstringt.h

; 2403 : 		CThisSimpleString::Concatenate( strResult, str1, str1.GetLength(), psz2, CThisSimpleString::StringLength( psz2 ) );

  004f0	6a 01		 push	 1
  004f2	68 00 00 00 00	 push	 OFFSET ??_C@_01ICJEACDI@?$DL@
  004f7	ff 70 f4	 push	 DWORD PTR [eax-12]
  004fa	50		 push	 eax
  004fb	8d 45 84	 lea	 eax, DWORD PTR $T37[ebp]
  004fe	50		 push	 eax
  004ff	ff 15 00 00 00
	00		 call	 DWORD PTR __imp_?Concatenate@?$CSimpleStringT@D$00@ATL@@KAXAAV12@PBDH1H@Z
  00505	83 c4 14	 add	 esp, 20			; 00000014H
; File D:\git\src\IBK\IBK_DRFN\ProjSrc\SrcChartEx\ChartAddIn\ChartAnalysisToolAddIn\Symbol\ElementSaverBuilder.cpp

; 47   : 		strValue += CDataConversion::IntToString((pSymbol->GetSymbolSize()).cy) + ";"; 		

  00508	8d 45 84	 lea	 eax, DWORD PTR $T37[ebp]
  0050b	8d 4d ac	 lea	 ecx, DWORD PTR _strValue$[ebp]
  0050e	50		 push	 eax
  0050f	ff 15 00 00 00
	00		 call	 DWORD PTR __imp_??Y?$CStringT@DV?$StrTraitMFC_DLL@DV?$ChTraitsCRT@D@ATL@@@@@ATL@@QAEAAV01@ABV?$CSimpleStringT@D$00@1@@Z
  00515	81 65 b0 ff fe
	ff ff		 and	 DWORD PTR $T47[ebp], -257 ; fffffeffH
  0051c	8d 4d 84	 lea	 ecx, DWORD PTR $T37[ebp]
  0051f	ff 15 00 00 00
	00		 call	 DWORD PTR __imp_??1?$CStringT@DV?$StrTraitMFC_DLL@DV?$ChTraitsCRT@D@ATL@@@@@ATL@@QAE@XZ
  00525	8d 8d 3c ff ff
	ff		 lea	 ecx, DWORD PTR $T21[ebp]
  0052b	c6 45 fc 01	 mov	 BYTE PTR __$EHRec$[ebp+8], 1
  0052f	ff 15 00 00 00
	00		 call	 DWORD PTR __imp_??1?$CStringT@DV?$StrTraitMFC_DLL@DV?$ChTraitsCRT@D@ATL@@@@@ATL@@QAE@XZ

; 48   : 		strValue += pSymbol->GetText() + ";"; 		

  00535	8b 03		 mov	 eax, DWORD PTR [ebx]
  00537	8d 8d 38 ff ff
	ff		 lea	 ecx, DWORD PTR $T20[ebp]
  0053d	51		 push	 ecx
  0053e	8b cb		 mov	 ecx, ebx
  00540	ff 50 1c	 call	 DWORD PTR [eax+28]
  00543	8b f0		 mov	 esi, eax
; File C:\Program Files (x86)\Microsoft Visual Studio\2019\Community\VC\Tools\MSVC\14.29.30133\atlmfc\include\cstringt.h

; 2401 : 		CStringT strResult( str1.GetManager() );

  00545	8b ce		 mov	 ecx, esi
; File D:\git\src\IBK\IBK_DRFN\ProjSrc\SrcChartEx\ChartAddIn\ChartAnalysisToolAddIn\Symbol\ElementSaverBuilder.cpp

; 48   : 		strValue += pSymbol->GetText() + ";"; 		

  00547	c6 45 fc 13	 mov	 BYTE PTR __$EHRec$[ebp+8], 19 ; 00000013H
; File C:\Program Files (x86)\Microsoft Visual Studio\2019\Community\VC\Tools\MSVC\14.29.30133\atlmfc\include\cstringt.h

; 2401 : 		CStringT strResult( str1.GetManager() );

  0054b	ff 15 00 00 00
	00		 call	 DWORD PTR __imp_?GetManager@?$CStringT@DV?$StrTraitMFC_DLL@DV?$ChTraitsCRT@D@ATL@@@@@ATL@@QBEPAUIAtlStringMgr@2@XZ
  00551	50		 push	 eax
  00552	8d 4d 80	 lea	 ecx, DWORD PTR $T36[ebp]
  00555	ff 15 00 00 00
	00		 call	 DWORD PTR __imp_??0?$CStringT@DV?$StrTraitMFC_DLL@DV?$ChTraitsCRT@D@ATL@@@@@ATL@@QAE@PAUIAtlStringMgr@1@@Z

; 2405 : 		return( strResult );

  0055b	8b 45 b0	 mov	 eax, DWORD PTR $T47[ebp]
  0055e	0d 00 02 00 00	 or	 eax, 512		; 00000200H
  00563	89 45 b0	 mov	 DWORD PTR $T47[ebp], eax
  00566	89 45 a8	 mov	 DWORD PTR $T46[ebp], eax
; File C:\Program Files (x86)\Microsoft Visual Studio\2019\Community\VC\Tools\MSVC\14.29.30133\atlmfc\include\atlsimpstr.h

; 519  : 		return( GetData()->nDataLength );

  00569	8b 06		 mov	 eax, DWORD PTR [esi]
; File C:\Program Files (x86)\Microsoft Visual Studio\2019\Community\VC\Tools\MSVC\14.29.30133\atlmfc\include\cstringt.h

; 2403 : 		CThisSimpleString::Concatenate( strResult, str1, str1.GetLength(), psz2, CThisSimpleString::StringLength( psz2 ) );

  0056b	6a 01		 push	 1
  0056d	68 00 00 00 00	 push	 OFFSET ??_C@_01ICJEACDI@?$DL@
  00572	ff 70 f4	 push	 DWORD PTR [eax-12]
  00575	50		 push	 eax
  00576	8d 45 80	 lea	 eax, DWORD PTR $T36[ebp]
  00579	50		 push	 eax
  0057a	ff 15 00 00 00
	00		 call	 DWORD PTR __imp_?Concatenate@?$CSimpleStringT@D$00@ATL@@KAXAAV12@PBDH1H@Z
  00580	83 c4 14	 add	 esp, 20			; 00000014H
; File D:\git\src\IBK\IBK_DRFN\ProjSrc\SrcChartEx\ChartAddIn\ChartAnalysisToolAddIn\Symbol\ElementSaverBuilder.cpp

; 48   : 		strValue += pSymbol->GetText() + ";"; 		

  00583	8d 45 80	 lea	 eax, DWORD PTR $T36[ebp]
  00586	8d 4d ac	 lea	 ecx, DWORD PTR _strValue$[ebp]
  00589	50		 push	 eax
  0058a	ff 15 00 00 00
	00		 call	 DWORD PTR __imp_??Y?$CStringT@DV?$StrTraitMFC_DLL@DV?$ChTraitsCRT@D@ATL@@@@@ATL@@QAEAAV01@ABV?$CSimpleStringT@D$00@1@@Z
  00590	81 65 b0 ff fd
	ff ff		 and	 DWORD PTR $T47[ebp], -513 ; fffffdffH
  00597	8d 4d 80	 lea	 ecx, DWORD PTR $T36[ebp]
  0059a	ff 15 00 00 00
	00		 call	 DWORD PTR __imp_??1?$CStringT@DV?$StrTraitMFC_DLL@DV?$ChTraitsCRT@D@ATL@@@@@ATL@@QAE@XZ
  005a0	8d 8d 38 ff ff
	ff		 lea	 ecx, DWORD PTR $T20[ebp]
  005a6	c6 45 fc 01	 mov	 BYTE PTR __$EHRec$[ebp+8], 1
  005aa	ff 15 00 00 00
	00		 call	 DWORD PTR __imp_??1?$CStringT@DV?$StrTraitMFC_DLL@DV?$ChTraitsCRT@D@ATL@@@@@ATL@@QAE@XZ

; 49   : 		strValue += CDataConversion::RGB2Str(pSymbol->GetColor()) + ";"; 		

  005b0	8b cb		 mov	 ecx, ebx
  005b2	e8 00 00 00 00	 call	 ?GetColor@CDrawingSymbol@@QBEKXZ ; CDrawingSymbol::GetColor
  005b7	50		 push	 eax
  005b8	8d 85 34 ff ff
	ff		 lea	 eax, DWORD PTR $T19[ebp]
  005be	50		 push	 eax
  005bf	e8 00 00 00 00	 call	 ?RGB2Str@CDataConversion@@SA?AV?$CStringT@DV?$StrTraitMFC_DLL@DV?$ChTraitsCRT@D@ATL@@@@@ATL@@K@Z ; CDataConversion::RGB2Str
  005c4	83 c4 08	 add	 esp, 8
  005c7	8b f0		 mov	 esi, eax
; File C:\Program Files (x86)\Microsoft Visual Studio\2019\Community\VC\Tools\MSVC\14.29.30133\atlmfc\include\cstringt.h

; 2401 : 		CStringT strResult( str1.GetManager() );

  005c9	8b ce		 mov	 ecx, esi
; File D:\git\src\IBK\IBK_DRFN\ProjSrc\SrcChartEx\ChartAddIn\ChartAnalysisToolAddIn\Symbol\ElementSaverBuilder.cpp

; 49   : 		strValue += CDataConversion::RGB2Str(pSymbol->GetColor()) + ";"; 		

  005cb	c6 45 fc 15	 mov	 BYTE PTR __$EHRec$[ebp+8], 21 ; 00000015H
; File C:\Program Files (x86)\Microsoft Visual Studio\2019\Community\VC\Tools\MSVC\14.29.30133\atlmfc\include\cstringt.h

; 2401 : 		CStringT strResult( str1.GetManager() );

  005cf	ff 15 00 00 00
	00		 call	 DWORD PTR __imp_?GetManager@?$CStringT@DV?$StrTraitMFC_DLL@DV?$ChTraitsCRT@D@ATL@@@@@ATL@@QBEPAUIAtlStringMgr@2@XZ
  005d5	50		 push	 eax
  005d6	8d 8d 7c ff ff
	ff		 lea	 ecx, DWORD PTR $T35[ebp]
  005dc	ff 15 00 00 00
	00		 call	 DWORD PTR __imp_??0?$CStringT@DV?$StrTraitMFC_DLL@DV?$ChTraitsCRT@D@ATL@@@@@ATL@@QAE@PAUIAtlStringMgr@1@@Z

; 2405 : 		return( strResult );

  005e2	8b 45 b0	 mov	 eax, DWORD PTR $T47[ebp]
  005e5	0d 00 04 00 00	 or	 eax, 1024		; 00000400H
  005ea	89 45 b0	 mov	 DWORD PTR $T47[ebp], eax
  005ed	89 45 a8	 mov	 DWORD PTR $T46[ebp], eax
; File C:\Program Files (x86)\Microsoft Visual Studio\2019\Community\VC\Tools\MSVC\14.29.30133\atlmfc\include\atlsimpstr.h

; 519  : 		return( GetData()->nDataLength );

  005f0	8b 06		 mov	 eax, DWORD PTR [esi]
; File C:\Program Files (x86)\Microsoft Visual Studio\2019\Community\VC\Tools\MSVC\14.29.30133\atlmfc\include\cstringt.h

; 2403 : 		CThisSimpleString::Concatenate( strResult, str1, str1.GetLength(), psz2, CThisSimpleString::StringLength( psz2 ) );

  005f2	6a 01		 push	 1
  005f4	68 00 00 00 00	 push	 OFFSET ??_C@_01ICJEACDI@?$DL@
  005f9	ff 70 f4	 push	 DWORD PTR [eax-12]
  005fc	50		 push	 eax
  005fd	8d 85 7c ff ff
	ff		 lea	 eax, DWORD PTR $T35[ebp]
  00603	50		 push	 eax
  00604	ff 15 00 00 00
	00		 call	 DWORD PTR __imp_?Concatenate@?$CSimpleStringT@D$00@ATL@@KAXAAV12@PBDH1H@Z
  0060a	83 c4 14	 add	 esp, 20			; 00000014H
; File D:\git\src\IBK\IBK_DRFN\ProjSrc\SrcChartEx\ChartAddIn\ChartAnalysisToolAddIn\Symbol\ElementSaverBuilder.cpp

; 49   : 		strValue += CDataConversion::RGB2Str(pSymbol->GetColor()) + ";"; 		

  0060d	8d 85 7c ff ff
	ff		 lea	 eax, DWORD PTR $T35[ebp]
  00613	8d 4d ac	 lea	 ecx, DWORD PTR _strValue$[ebp]
  00616	50		 push	 eax
  00617	ff 15 00 00 00
	00		 call	 DWORD PTR __imp_??Y?$CStringT@DV?$StrTraitMFC_DLL@DV?$ChTraitsCRT@D@ATL@@@@@ATL@@QAEAAV01@ABV?$CSimpleStringT@D$00@1@@Z
  0061d	81 65 b0 ff fb
	ff ff		 and	 DWORD PTR $T47[ebp], -1025 ; fffffbffH
  00624	8d 8d 7c ff ff
	ff		 lea	 ecx, DWORD PTR $T35[ebp]
  0062a	ff 15 00 00 00
	00		 call	 DWORD PTR __imp_??1?$CStringT@DV?$StrTraitMFC_DLL@DV?$ChTraitsCRT@D@ATL@@@@@ATL@@QAE@XZ
  00630	8d 8d 34 ff ff
	ff		 lea	 ecx, DWORD PTR $T19[ebp]
  00636	c6 45 fc 01	 mov	 BYTE PTR __$EHRec$[ebp+8], 1
  0063a	ff 15 00 00 00
	00		 call	 DWORD PTR __imp_??1?$CStringT@DV?$StrTraitMFC_DLL@DV?$ChTraitsCRT@D@ATL@@@@@ATL@@QAE@XZ

; 50   : 		strValue += CDataConversion::IntToString(pSymbol->GetWeight()) + ";";

  00640	8b cb		 mov	 ecx, ebx
  00642	e8 00 00 00 00	 call	 ?GetWeight@CDrawingSymbol@@QBEHXZ ; CDrawingSymbol::GetWeight
  00647	50		 push	 eax
  00648	8d 85 30 ff ff
	ff		 lea	 eax, DWORD PTR $T18[ebp]
  0064e	50		 push	 eax
  0064f	e8 00 00 00 00	 call	 ?IntToString@CDataConversion@@SA?AV?$CStringT@DV?$StrTraitMFC_DLL@DV?$ChTraitsCRT@D@ATL@@@@@ATL@@H@Z ; CDataConversion::IntToString
  00654	83 c4 08	 add	 esp, 8
  00657	8b f0		 mov	 esi, eax
; File C:\Program Files (x86)\Microsoft Visual Studio\2019\Community\VC\Tools\MSVC\14.29.30133\atlmfc\include\cstringt.h

; 2401 : 		CStringT strResult( str1.GetManager() );

  00659	8b ce		 mov	 ecx, esi
; File D:\git\src\IBK\IBK_DRFN\ProjSrc\SrcChartEx\ChartAddIn\ChartAnalysisToolAddIn\Symbol\ElementSaverBuilder.cpp

; 50   : 		strValue += CDataConversion::IntToString(pSymbol->GetWeight()) + ";";

  0065b	c6 45 fc 17	 mov	 BYTE PTR __$EHRec$[ebp+8], 23 ; 00000017H
; File C:\Program Files (x86)\Microsoft Visual Studio\2019\Community\VC\Tools\MSVC\14.29.30133\atlmfc\include\cstringt.h

; 2401 : 		CStringT strResult( str1.GetManager() );

  0065f	ff 15 00 00 00
	00		 call	 DWORD PTR __imp_?GetManager@?$CStringT@DV?$StrTraitMFC_DLL@DV?$ChTraitsCRT@D@ATL@@@@@ATL@@QBEPAUIAtlStringMgr@2@XZ
  00665	50		 push	 eax
  00666	8d 8d 78 ff ff
	ff		 lea	 ecx, DWORD PTR $T34[ebp]
  0066c	ff 15 00 00 00
	00		 call	 DWORD PTR __imp_??0?$CStringT@DV?$StrTraitMFC_DLL@DV?$ChTraitsCRT@D@ATL@@@@@ATL@@QAE@PAUIAtlStringMgr@1@@Z

; 2405 : 		return( strResult );

  00672	8b 45 b0	 mov	 eax, DWORD PTR $T47[ebp]
  00675	0d 00 08 00 00	 or	 eax, 2048		; 00000800H
  0067a	89 45 b0	 mov	 DWORD PTR $T47[ebp], eax
  0067d	89 45 a8	 mov	 DWORD PTR $T46[ebp], eax
; File C:\Program Files (x86)\Microsoft Visual Studio\2019\Community\VC\Tools\MSVC\14.29.30133\atlmfc\include\atlsimpstr.h

; 519  : 		return( GetData()->nDataLength );

  00680	8b 06		 mov	 eax, DWORD PTR [esi]
; File C:\Program Files (x86)\Microsoft Visual Studio\2019\Community\VC\Tools\MSVC\14.29.30133\atlmfc\include\cstringt.h

; 2403 : 		CThisSimpleString::Concatenate( strResult, str1, str1.GetLength(), psz2, CThisSimpleString::StringLength( psz2 ) );

  00682	6a 01		 push	 1
  00684	68 00 00 00 00	 push	 OFFSET ??_C@_01ICJEACDI@?$DL@
  00689	ff 70 f4	 push	 DWORD PTR [eax-12]
  0068c	50		 push	 eax
  0068d	8d 85 78 ff ff
	ff		 lea	 eax, DWORD PTR $T34[ebp]
  00693	50		 push	 eax
  00694	ff 15 00 00 00
	00		 call	 DWORD PTR __imp_?Concatenate@?$CSimpleStringT@D$00@ATL@@KAXAAV12@PBDH1H@Z
  0069a	83 c4 14	 add	 esp, 20			; 00000014H
; File D:\git\src\IBK\IBK_DRFN\ProjSrc\SrcChartEx\ChartAddIn\ChartAnalysisToolAddIn\Symbol\ElementSaverBuilder.cpp

; 50   : 		strValue += CDataConversion::IntToString(pSymbol->GetWeight()) + ";";

  0069d	8d 85 78 ff ff
	ff		 lea	 eax, DWORD PTR $T34[ebp]
  006a3	8d 4d ac	 lea	 ecx, DWORD PTR _strValue$[ebp]
  006a6	50		 push	 eax
  006a7	ff 15 00 00 00
	00		 call	 DWORD PTR __imp_??Y?$CStringT@DV?$StrTraitMFC_DLL@DV?$ChTraitsCRT@D@ATL@@@@@ATL@@QAEAAV01@ABV?$CSimpleStringT@D$00@1@@Z
  006ad	81 65 b0 ff f7
	ff ff		 and	 DWORD PTR $T47[ebp], -2049 ; fffff7ffH
  006b4	8d 8d 78 ff ff
	ff		 lea	 ecx, DWORD PTR $T34[ebp]
  006ba	ff 15 00 00 00
	00		 call	 DWORD PTR __imp_??1?$CStringT@DV?$StrTraitMFC_DLL@DV?$ChTraitsCRT@D@ATL@@@@@ATL@@QAE@XZ
  006c0	8d 8d 30 ff ff
	ff		 lea	 ecx, DWORD PTR $T18[ebp]
  006c6	c6 45 fc 01	 mov	 BYTE PTR __$EHRec$[ebp+8], 1
  006ca	ff 15 00 00 00
	00		 call	 DWORD PTR __imp_??1?$CStringT@DV?$StrTraitMFC_DLL@DV?$ChTraitsCRT@D@ATL@@@@@ATL@@QAE@XZ

; 52   : 		strValue += CDataConversion::IntToString(pSymbol->GetFillState()) + ";"; 		

  006d0	8b cb		 mov	 ecx, ebx
  006d2	e8 00 00 00 00	 call	 ?GetFillState@CDrawingSymbol@@QAE_NXZ ; CDrawingSymbol::GetFillState
  006d7	0f b6 c0	 movzx	 eax, al
  006da	50		 push	 eax
  006db	8d 85 2c ff ff
	ff		 lea	 eax, DWORD PTR $T17[ebp]
  006e1	50		 push	 eax
  006e2	e8 00 00 00 00	 call	 ?IntToString@CDataConversion@@SA?AV?$CStringT@DV?$StrTraitMFC_DLL@DV?$ChTraitsCRT@D@ATL@@@@@ATL@@H@Z ; CDataConversion::IntToString
  006e7	83 c4 08	 add	 esp, 8
  006ea	8b f0		 mov	 esi, eax
; File C:\Program Files (x86)\Microsoft Visual Studio\2019\Community\VC\Tools\MSVC\14.29.30133\atlmfc\include\cstringt.h

; 2401 : 		CStringT strResult( str1.GetManager() );

  006ec	8b ce		 mov	 ecx, esi
; File D:\git\src\IBK\IBK_DRFN\ProjSrc\SrcChartEx\ChartAddIn\ChartAnalysisToolAddIn\Symbol\ElementSaverBuilder.cpp

; 52   : 		strValue += CDataConversion::IntToString(pSymbol->GetFillState()) + ";"; 		

  006ee	c6 45 fc 19	 mov	 BYTE PTR __$EHRec$[ebp+8], 25 ; 00000019H
; File C:\Program Files (x86)\Microsoft Visual Studio\2019\Community\VC\Tools\MSVC\14.29.30133\atlmfc\include\cstringt.h

; 2401 : 		CStringT strResult( str1.GetManager() );

  006f2	ff 15 00 00 00
	00		 call	 DWORD PTR __imp_?GetManager@?$CStringT@DV?$StrTraitMFC_DLL@DV?$ChTraitsCRT@D@ATL@@@@@ATL@@QBEPAUIAtlStringMgr@2@XZ
  006f8	50		 push	 eax
  006f9	8d 8d 74 ff ff
	ff		 lea	 ecx, DWORD PTR $T33[ebp]
  006ff	ff 15 00 00 00
	00		 call	 DWORD PTR __imp_??0?$CStringT@DV?$StrTraitMFC_DLL@DV?$ChTraitsCRT@D@ATL@@@@@ATL@@QAE@PAUIAtlStringMgr@1@@Z

; 2405 : 		return( strResult );

  00705	8b 45 b0	 mov	 eax, DWORD PTR $T47[ebp]
  00708	0d 00 10 00 00	 or	 eax, 4096		; 00001000H
  0070d	89 45 b0	 mov	 DWORD PTR $T47[ebp], eax
  00710	89 45 a8	 mov	 DWORD PTR $T46[ebp], eax
; File C:\Program Files (x86)\Microsoft Visual Studio\2019\Community\VC\Tools\MSVC\14.29.30133\atlmfc\include\atlsimpstr.h

; 519  : 		return( GetData()->nDataLength );

  00713	8b 06		 mov	 eax, DWORD PTR [esi]
; File C:\Program Files (x86)\Microsoft Visual Studio\2019\Community\VC\Tools\MSVC\14.29.30133\atlmfc\include\cstringt.h

; 2403 : 		CThisSimpleString::Concatenate( strResult, str1, str1.GetLength(), psz2, CThisSimpleString::StringLength( psz2 ) );

  00715	6a 01		 push	 1
  00717	68 00 00 00 00	 push	 OFFSET ??_C@_01ICJEACDI@?$DL@
  0071c	ff 70 f4	 push	 DWORD PTR [eax-12]
  0071f	50		 push	 eax
  00720	8d 85 74 ff ff
	ff		 lea	 eax, DWORD PTR $T33[ebp]
  00726	50		 push	 eax
  00727	ff 15 00 00 00
	00		 call	 DWORD PTR __imp_?Concatenate@?$CSimpleStringT@D$00@ATL@@KAXAAV12@PBDH1H@Z
  0072d	83 c4 14	 add	 esp, 20			; 00000014H
; File D:\git\src\IBK\IBK_DRFN\ProjSrc\SrcChartEx\ChartAddIn\ChartAnalysisToolAddIn\Symbol\ElementSaverBuilder.cpp

; 52   : 		strValue += CDataConversion::IntToString(pSymbol->GetFillState()) + ";"; 		

  00730	8d 85 74 ff ff
	ff		 lea	 eax, DWORD PTR $T33[ebp]
  00736	8d 4d ac	 lea	 ecx, DWORD PTR _strValue$[ebp]
  00739	50		 push	 eax
  0073a	ff 15 00 00 00
	00		 call	 DWORD PTR __imp_??Y?$CStringT@DV?$StrTraitMFC_DLL@DV?$ChTraitsCRT@D@ATL@@@@@ATL@@QAEAAV01@ABV?$CSimpleStringT@D$00@1@@Z
  00740	81 65 b0 ff ef
	ff ff		 and	 DWORD PTR $T47[ebp], -4097 ; ffffefffH
  00747	8d 8d 74 ff ff
	ff		 lea	 ecx, DWORD PTR $T33[ebp]
  0074d	ff 15 00 00 00
	00		 call	 DWORD PTR __imp_??1?$CStringT@DV?$StrTraitMFC_DLL@DV?$ChTraitsCRT@D@ATL@@@@@ATL@@QAE@XZ
  00753	8d 8d 2c ff ff
	ff		 lea	 ecx, DWORD PTR $T17[ebp]
  00759	c6 45 fc 01	 mov	 BYTE PTR __$EHRec$[ebp+8], 1
  0075d	ff 15 00 00 00
	00		 call	 DWORD PTR __imp_??1?$CStringT@DV?$StrTraitMFC_DLL@DV?$ChTraitsCRT@D@ATL@@@@@ATL@@QAE@XZ

; 53   : 		strValue += MakeStringFromLOGFONT(pSymbol->GetLogFont()) + ";";	

  00763	8d 45 b4	 lea	 eax, DWORD PTR $T48[ebp]
  00766	8b cb		 mov	 ecx, ebx
  00768	50		 push	 eax
  00769	e8 00 00 00 00	 call	 ?GetLogFont@CDrawingSymbol@@QAE?AUtagLOGFONTA@@XZ ; CDrawingSymbol::GetLogFont
  0076e	8b 8d 60 ff ff
	ff		 mov	 ecx, DWORD PTR _this$GSCopy$1$[ebp]
  00774	50		 push	 eax
  00775	8d 85 28 ff ff
	ff		 lea	 eax, DWORD PTR $T16[ebp]
  0077b	50		 push	 eax
  0077c	e8 00 00 00 00	 call	 ?MakeStringFromLOGFONT@CElementSaverBuilder@@AAE?AV?$CStringT@DV?$StrTraitMFC_DLL@DV?$ChTraitsCRT@D@ATL@@@@@ATL@@ABUtagLOGFONTA@@@Z ; CElementSaverBuilder::MakeStringFromLOGFONT
  00781	8b f0		 mov	 esi, eax
; File C:\Program Files (x86)\Microsoft Visual Studio\2019\Community\VC\Tools\MSVC\14.29.30133\atlmfc\include\cstringt.h

; 2401 : 		CStringT strResult( str1.GetManager() );

  00783	8b ce		 mov	 ecx, esi
; File D:\git\src\IBK\IBK_DRFN\ProjSrc\SrcChartEx\ChartAddIn\ChartAnalysisToolAddIn\Symbol\ElementSaverBuilder.cpp

; 53   : 		strValue += MakeStringFromLOGFONT(pSymbol->GetLogFont()) + ";";	

  00785	c6 45 fc 1b	 mov	 BYTE PTR __$EHRec$[ebp+8], 27 ; 0000001bH
; File C:\Program Files (x86)\Microsoft Visual Studio\2019\Community\VC\Tools\MSVC\14.29.30133\atlmfc\include\cstringt.h

; 2401 : 		CStringT strResult( str1.GetManager() );

  00789	ff 15 00 00 00
	00		 call	 DWORD PTR __imp_?GetManager@?$CStringT@DV?$StrTraitMFC_DLL@DV?$ChTraitsCRT@D@ATL@@@@@ATL@@QBEPAUIAtlStringMgr@2@XZ
  0078f	50		 push	 eax
  00790	8d 8d 70 ff ff
	ff		 lea	 ecx, DWORD PTR $T32[ebp]
  00796	ff 15 00 00 00
	00		 call	 DWORD PTR __imp_??0?$CStringT@DV?$StrTraitMFC_DLL@DV?$ChTraitsCRT@D@ATL@@@@@ATL@@QAE@PAUIAtlStringMgr@1@@Z

; 2405 : 		return( strResult );

  0079c	8b 45 b0	 mov	 eax, DWORD PTR $T47[ebp]
  0079f	0d 00 20 00 00	 or	 eax, 8192		; 00002000H
  007a4	89 45 b0	 mov	 DWORD PTR $T47[ebp], eax
  007a7	89 45 a8	 mov	 DWORD PTR $T46[ebp], eax
; File C:\Program Files (x86)\Microsoft Visual Studio\2019\Community\VC\Tools\MSVC\14.29.30133\atlmfc\include\atlsimpstr.h

; 519  : 		return( GetData()->nDataLength );

  007aa	8b 06		 mov	 eax, DWORD PTR [esi]
; File C:\Program Files (x86)\Microsoft Visual Studio\2019\Community\VC\Tools\MSVC\14.29.30133\atlmfc\include\cstringt.h

; 2403 : 		CThisSimpleString::Concatenate( strResult, str1, str1.GetLength(), psz2, CThisSimpleString::StringLength( psz2 ) );

  007ac	6a 01		 push	 1
  007ae	68 00 00 00 00	 push	 OFFSET ??_C@_01ICJEACDI@?$DL@
  007b3	ff 70 f4	 push	 DWORD PTR [eax-12]
  007b6	50		 push	 eax
  007b7	8d 85 70 ff ff
	ff		 lea	 eax, DWORD PTR $T32[ebp]
  007bd	50		 push	 eax
  007be	ff 15 00 00 00
	00		 call	 DWORD PTR __imp_?Concatenate@?$CSimpleStringT@D$00@ATL@@KAXAAV12@PBDH1H@Z
  007c4	83 c4 14	 add	 esp, 20			; 00000014H
; File D:\git\src\IBK\IBK_DRFN\ProjSrc\SrcChartEx\ChartAddIn\ChartAnalysisToolAddIn\Symbol\ElementSaverBuilder.cpp

; 53   : 		strValue += MakeStringFromLOGFONT(pSymbol->GetLogFont()) + ";";	

  007c7	8d 85 70 ff ff
	ff		 lea	 eax, DWORD PTR $T32[ebp]
  007cd	8d 4d ac	 lea	 ecx, DWORD PTR _strValue$[ebp]
  007d0	50		 push	 eax
  007d1	ff 15 00 00 00
	00		 call	 DWORD PTR __imp_??Y?$CStringT@DV?$StrTraitMFC_DLL@DV?$ChTraitsCRT@D@ATL@@@@@ATL@@QAEAAV01@ABV?$CSimpleStringT@D$00@1@@Z
  007d7	81 65 b0 ff df
	ff ff		 and	 DWORD PTR $T47[ebp], -8193 ; ffffdfffH
  007de	8d 8d 70 ff ff
	ff		 lea	 ecx, DWORD PTR $T32[ebp]
  007e4	ff 15 00 00 00
	00		 call	 DWORD PTR __imp_??1?$CStringT@DV?$StrTraitMFC_DLL@DV?$ChTraitsCRT@D@ATL@@@@@ATL@@QAE@XZ
  007ea	8d 8d 28 ff ff
	ff		 lea	 ecx, DWORD PTR $T16[ebp]
  007f0	c6 45 fc 01	 mov	 BYTE PTR __$EHRec$[ebp+8], 1
  007f4	ff 15 00 00 00
	00		 call	 DWORD PTR __imp_??1?$CStringT@DV?$StrTraitMFC_DLL@DV?$ChTraitsCRT@D@ATL@@@@@ATL@@QAE@XZ

; 55   : 		strValue += CDataConversion::RGB2Str(pSymbol->GetTextColor()) + ";"; 

  007fa	8b cb		 mov	 ecx, ebx
  007fc	e8 00 00 00 00	 call	 ?GetTextColor@CDrawingSymbol@@QBEKXZ ; CDrawingSymbol::GetTextColor
  00801	50		 push	 eax
  00802	8d 85 18 ff ff
	ff		 lea	 eax, DWORD PTR $T13[ebp]
  00808	50		 push	 eax
  00809	e8 00 00 00 00	 call	 ?RGB2Str@CDataConversion@@SA?AV?$CStringT@DV?$StrTraitMFC_DLL@DV?$ChTraitsCRT@D@ATL@@@@@ATL@@K@Z ; CDataConversion::RGB2Str
  0080e	83 c4 08	 add	 esp, 8
  00811	8b f0		 mov	 esi, eax
; File C:\Program Files (x86)\Microsoft Visual Studio\2019\Community\VC\Tools\MSVC\14.29.30133\atlmfc\include\cstringt.h

; 2401 : 		CStringT strResult( str1.GetManager() );

  00813	8b ce		 mov	 ecx, esi
; File D:\git\src\IBK\IBK_DRFN\ProjSrc\SrcChartEx\ChartAddIn\ChartAnalysisToolAddIn\Symbol\ElementSaverBuilder.cpp

; 55   : 		strValue += CDataConversion::RGB2Str(pSymbol->GetTextColor()) + ";"; 

  00815	c6 45 fc 1d	 mov	 BYTE PTR __$EHRec$[ebp+8], 29 ; 0000001dH
; File C:\Program Files (x86)\Microsoft Visual Studio\2019\Community\VC\Tools\MSVC\14.29.30133\atlmfc\include\cstringt.h

; 2401 : 		CStringT strResult( str1.GetManager() );

  00819	ff 15 00 00 00
	00		 call	 DWORD PTR __imp_?GetManager@?$CStringT@DV?$StrTraitMFC_DLL@DV?$ChTraitsCRT@D@ATL@@@@@ATL@@QBEPAUIAtlStringMgr@2@XZ
  0081f	50		 push	 eax
  00820	8d 8d 6c ff ff
	ff		 lea	 ecx, DWORD PTR $T31[ebp]
  00826	ff 15 00 00 00
	00		 call	 DWORD PTR __imp_??0?$CStringT@DV?$StrTraitMFC_DLL@DV?$ChTraitsCRT@D@ATL@@@@@ATL@@QAE@PAUIAtlStringMgr@1@@Z

; 2405 : 		return( strResult );

  0082c	8b 45 b0	 mov	 eax, DWORD PTR $T47[ebp]
  0082f	0d 00 40 00 00	 or	 eax, 16384		; 00004000H
  00834	89 45 b0	 mov	 DWORD PTR $T47[ebp], eax
  00837	89 45 a8	 mov	 DWORD PTR $T46[ebp], eax
; File C:\Program Files (x86)\Microsoft Visual Studio\2019\Community\VC\Tools\MSVC\14.29.30133\atlmfc\include\atlsimpstr.h

; 519  : 		return( GetData()->nDataLength );

  0083a	8b 06		 mov	 eax, DWORD PTR [esi]
; File C:\Program Files (x86)\Microsoft Visual Studio\2019\Community\VC\Tools\MSVC\14.29.30133\atlmfc\include\cstringt.h

; 2403 : 		CThisSimpleString::Concatenate( strResult, str1, str1.GetLength(), psz2, CThisSimpleString::StringLength( psz2 ) );

  0083c	6a 01		 push	 1
  0083e	68 00 00 00 00	 push	 OFFSET ??_C@_01ICJEACDI@?$DL@
  00843	ff 70 f4	 push	 DWORD PTR [eax-12]
  00846	50		 push	 eax
  00847	8d 85 6c ff ff
	ff		 lea	 eax, DWORD PTR $T31[ebp]
  0084d	50		 push	 eax
  0084e	ff 15 00 00 00
	00		 call	 DWORD PTR __imp_?Concatenate@?$CSimpleStringT@D$00@ATL@@KAXAAV12@PBDH1H@Z
  00854	83 c4 14	 add	 esp, 20			; 00000014H
; File D:\git\src\IBK\IBK_DRFN\ProjSrc\SrcChartEx\ChartAddIn\ChartAnalysisToolAddIn\Symbol\ElementSaverBuilder.cpp

; 55   : 		strValue += CDataConversion::RGB2Str(pSymbol->GetTextColor()) + ";"; 

  00857	8d 85 6c ff ff
	ff		 lea	 eax, DWORD PTR $T31[ebp]
  0085d	8d 4d ac	 lea	 ecx, DWORD PTR _strValue$[ebp]
  00860	50		 push	 eax
  00861	ff 15 00 00 00
	00		 call	 DWORD PTR __imp_??Y?$CStringT@DV?$StrTraitMFC_DLL@DV?$ChTraitsCRT@D@ATL@@@@@ATL@@QAEAAV01@ABV?$CSimpleStringT@D$00@1@@Z
  00867	81 65 b0 ff bf
	ff ff		 and	 DWORD PTR $T47[ebp], -16385 ; ffffbfffH
  0086e	8d 8d 6c ff ff
	ff		 lea	 ecx, DWORD PTR $T31[ebp]
  00874	ff 15 00 00 00
	00		 call	 DWORD PTR __imp_??1?$CStringT@DV?$StrTraitMFC_DLL@DV?$ChTraitsCRT@D@ATL@@@@@ATL@@QAE@XZ
  0087a	8d 8d 18 ff ff
	ff		 lea	 ecx, DWORD PTR $T13[ebp]
  00880	c6 45 fc 01	 mov	 BYTE PTR __$EHRec$[ebp+8], 1
  00884	ff 15 00 00 00
	00		 call	 DWORD PTR __imp_??1?$CStringT@DV?$StrTraitMFC_DLL@DV?$ChTraitsCRT@D@ATL@@@@@ATL@@QAE@XZ

; 56   : 		strValue += CDataConversion::Bool2Str(pSymbol->DidDrawFromTop()) + ";";

  0088a	8b 03		 mov	 eax, DWORD PTR [ebx]
  0088c	8b cb		 mov	 ecx, ebx
  0088e	8b 40 34	 mov	 eax, DWORD PTR [eax+52]
  00891	ff d0		 call	 eax
  00893	0f b6 c0	 movzx	 eax, al
  00896	50		 push	 eax
  00897	8d 85 58 ff ff
	ff		 lea	 eax, DWORD PTR $T28[ebp]
  0089d	50		 push	 eax
  0089e	e8 00 00 00 00	 call	 ?Bool2Str@CDataConversion@@SA?AV?$CStringT@DV?$StrTraitMFC_DLL@DV?$ChTraitsCRT@D@ATL@@@@@ATL@@H@Z ; CDataConversion::Bool2Str
  008a3	83 c4 08	 add	 esp, 8
  008a6	8b f0		 mov	 esi, eax
; File C:\Program Files (x86)\Microsoft Visual Studio\2019\Community\VC\Tools\MSVC\14.29.30133\atlmfc\include\cstringt.h

; 2401 : 		CStringT strResult( str1.GetManager() );

  008a8	8b ce		 mov	 ecx, esi
; File D:\git\src\IBK\IBK_DRFN\ProjSrc\SrcChartEx\ChartAddIn\ChartAnalysisToolAddIn\Symbol\ElementSaverBuilder.cpp

; 56   : 		strValue += CDataConversion::Bool2Str(pSymbol->DidDrawFromTop()) + ";";

  008aa	c6 45 fc 1f	 mov	 BYTE PTR __$EHRec$[ebp+8], 31 ; 0000001fH
; File C:\Program Files (x86)\Microsoft Visual Studio\2019\Community\VC\Tools\MSVC\14.29.30133\atlmfc\include\cstringt.h

; 2401 : 		CStringT strResult( str1.GetManager() );

  008ae	ff 15 00 00 00
	00		 call	 DWORD PTR __imp_?GetManager@?$CStringT@DV?$StrTraitMFC_DLL@DV?$ChTraitsCRT@D@ATL@@@@@ATL@@QBEPAUIAtlStringMgr@2@XZ
  008b4	50		 push	 eax
  008b5	8d 8d 68 ff ff
	ff		 lea	 ecx, DWORD PTR $T30[ebp]
  008bb	ff 15 00 00 00
	00		 call	 DWORD PTR __imp_??0?$CStringT@DV?$StrTraitMFC_DLL@DV?$ChTraitsCRT@D@ATL@@@@@ATL@@QAE@PAUIAtlStringMgr@1@@Z

; 2405 : 		return( strResult );

  008c1	8b 45 b0	 mov	 eax, DWORD PTR $T47[ebp]
  008c4	0d 00 80 00 00	 or	 eax, 32768		; 00008000H
  008c9	89 45 b0	 mov	 DWORD PTR $T47[ebp], eax
  008cc	89 45 a8	 mov	 DWORD PTR $T46[ebp], eax
; File C:\Program Files (x86)\Microsoft Visual Studio\2019\Community\VC\Tools\MSVC\14.29.30133\atlmfc\include\atlsimpstr.h

; 519  : 		return( GetData()->nDataLength );

  008cf	8b 06		 mov	 eax, DWORD PTR [esi]
; File C:\Program Files (x86)\Microsoft Visual Studio\2019\Community\VC\Tools\MSVC\14.29.30133\atlmfc\include\cstringt.h

; 2403 : 		CThisSimpleString::Concatenate( strResult, str1, str1.GetLength(), psz2, CThisSimpleString::StringLength( psz2 ) );

  008d1	6a 01		 push	 1
  008d3	68 00 00 00 00	 push	 OFFSET ??_C@_01ICJEACDI@?$DL@
  008d8	ff 70 f4	 push	 DWORD PTR [eax-12]
  008db	50		 push	 eax
  008dc	8d 85 68 ff ff
	ff		 lea	 eax, DWORD PTR $T30[ebp]
  008e2	50		 push	 eax
  008e3	ff 15 00 00 00
	00		 call	 DWORD PTR __imp_?Concatenate@?$CSimpleStringT@D$00@ATL@@KAXAAV12@PBDH1H@Z
  008e9	83 c4 14	 add	 esp, 20			; 00000014H
; File D:\git\src\IBK\IBK_DRFN\ProjSrc\SrcChartEx\ChartAddIn\ChartAnalysisToolAddIn\Symbol\ElementSaverBuilder.cpp

; 56   : 		strValue += CDataConversion::Bool2Str(pSymbol->DidDrawFromTop()) + ";";

  008ec	8d 85 68 ff ff
	ff		 lea	 eax, DWORD PTR $T30[ebp]
  008f2	8d 4d ac	 lea	 ecx, DWORD PTR _strValue$[ebp]
  008f5	50		 push	 eax
  008f6	ff 15 00 00 00
	00		 call	 DWORD PTR __imp_??Y?$CStringT@DV?$StrTraitMFC_DLL@DV?$ChTraitsCRT@D@ATL@@@@@ATL@@QAEAAV01@ABV?$CSimpleStringT@D$00@1@@Z
  008fc	81 65 b0 ff 7f
	ff ff		 and	 DWORD PTR $T47[ebp], -32769 ; ffff7fffH
  00903	8d 8d 68 ff ff
	ff		 lea	 ecx, DWORD PTR $T30[ebp]
  00909	ff 15 00 00 00
	00		 call	 DWORD PTR __imp_??1?$CStringT@DV?$StrTraitMFC_DLL@DV?$ChTraitsCRT@D@ATL@@@@@ATL@@QAE@XZ
  0090f	8d 8d 58 ff ff
	ff		 lea	 ecx, DWORD PTR $T28[ebp]
  00915	c6 45 fc 01	 mov	 BYTE PTR __$EHRec$[ebp+8], 1
  00919	ff 15 00 00 00
	00		 call	 DWORD PTR __imp_??1?$CStringT@DV?$StrTraitMFC_DLL@DV?$ChTraitsCRT@D@ATL@@@@@ATL@@QAE@XZ

; 58   : 		strValue += CDataConversion::IntToString(pSymbol->GetStartPoint().GetTimeDiff()) + ";\r\n";

  0091f	8b 03		 mov	 eax, DWORD PTR [ebx]
  00921	8d 8d e0 fe ff
	ff		 lea	 ecx, DWORD PTR $T4[ebp]
  00927	51		 push	 ecx
  00928	8b cb		 mov	 ecx, ebx
  0092a	ff 50 20	 call	 DWORD PTR [eax+32]
  0092d	8b c8		 mov	 ecx, eax
  0092f	e8 00 00 00 00	 call	 ?GetTimeDiff@CCoordinate@@QBEHXZ ; CCoordinate::GetTimeDiff
  00934	50		 push	 eax
  00935	8d 85 1c ff ff
	ff		 lea	 eax, DWORD PTR $T14[ebp]
  0093b	50		 push	 eax
  0093c	e8 00 00 00 00	 call	 ?IntToString@CDataConversion@@SA?AV?$CStringT@DV?$StrTraitMFC_DLL@DV?$ChTraitsCRT@D@ATL@@@@@ATL@@H@Z ; CDataConversion::IntToString
  00941	83 c4 08	 add	 esp, 8
  00944	8b f0		 mov	 esi, eax
; File C:\Program Files (x86)\Microsoft Visual Studio\2019\Community\VC\Tools\MSVC\14.29.30133\atlmfc\include\cstringt.h

; 2401 : 		CStringT strResult( str1.GetManager() );

  00946	8b ce		 mov	 ecx, esi
; File D:\git\src\IBK\IBK_DRFN\ProjSrc\SrcChartEx\ChartAddIn\ChartAnalysisToolAddIn\Symbol\ElementSaverBuilder.cpp

; 58   : 		strValue += CDataConversion::IntToString(pSymbol->GetStartPoint().GetTimeDiff()) + ";\r\n";

  00948	c6 45 fc 21	 mov	 BYTE PTR __$EHRec$[ebp+8], 33 ; 00000021H
; File C:\Program Files (x86)\Microsoft Visual Studio\2019\Community\VC\Tools\MSVC\14.29.30133\atlmfc\include\cstringt.h

; 2401 : 		CStringT strResult( str1.GetManager() );

  0094c	ff 15 00 00 00
	00		 call	 DWORD PTR __imp_?GetManager@?$CStringT@DV?$StrTraitMFC_DLL@DV?$ChTraitsCRT@D@ATL@@@@@ATL@@QBEPAUIAtlStringMgr@2@XZ
  00952	50		 push	 eax
  00953	8d 8d 64 ff ff
	ff		 lea	 ecx, DWORD PTR $T29[ebp]
  00959	ff 15 00 00 00
	00		 call	 DWORD PTR __imp_??0?$CStringT@DV?$StrTraitMFC_DLL@DV?$ChTraitsCRT@D@ATL@@@@@ATL@@QAE@PAUIAtlStringMgr@1@@Z
; File C:\Program Files (x86)\Microsoft Visual Studio\2019\Community\VC\Tools\MSVC\14.29.30133\atlmfc\include\atlsimpstr.h

; 519  : 		return( GetData()->nDataLength );

  0095f	8b 06		 mov	 eax, DWORD PTR [esi]
; File C:\Program Files (x86)\Microsoft Visual Studio\2019\Community\VC\Tools\MSVC\14.29.30133\atlmfc\include\cstringt.h

; 2405 : 		return( strResult );

  00961	8b 5d b0	 mov	 ebx, DWORD PTR $T47[ebp]
  00964	6a 03		 push	 3
  00966	68 00 00 00 00	 push	 OFFSET ??_C@_03LKGCEJK@?$DL?$AN?6@
  0096b	ff 70 f4	 push	 DWORD PTR [eax-12]
  0096e	81 cb 00 00 01
	00		 or	 ebx, 65536		; 00010000H
  00974	50		 push	 eax
  00975	8d 85 64 ff ff
	ff		 lea	 eax, DWORD PTR $T29[ebp]
  0097b	89 5d a8	 mov	 DWORD PTR $T46[ebp], ebx
  0097e	50		 push	 eax
  0097f	ff 15 00 00 00
	00		 call	 DWORD PTR __imp_?Concatenate@?$CSimpleStringT@D$00@ATL@@KAXAAV12@PBDH1H@Z
  00985	83 c4 14	 add	 esp, 20			; 00000014H
; File D:\git\src\IBK\IBK_DRFN\ProjSrc\SrcChartEx\ChartAddIn\ChartAnalysisToolAddIn\Symbol\ElementSaverBuilder.cpp

; 58   : 		strValue += CDataConversion::IntToString(pSymbol->GetStartPoint().GetTimeDiff()) + ";\r\n";

  00988	8d 85 64 ff ff
	ff		 lea	 eax, DWORD PTR $T29[ebp]
  0098e	8d 4d ac	 lea	 ecx, DWORD PTR _strValue$[ebp]
  00991	50		 push	 eax
  00992	ff 15 00 00 00
	00		 call	 DWORD PTR __imp_??Y?$CStringT@DV?$StrTraitMFC_DLL@DV?$ChTraitsCRT@D@ATL@@@@@ATL@@QAEAAV01@ABV?$CSimpleStringT@D$00@1@@Z
  00998	81 e3 ff ff fe
	ff		 and	 ebx, -65537		; fffeffffH
  0099e	8d 8d 64 ff ff
	ff		 lea	 ecx, DWORD PTR $T29[ebp]
  009a4	89 5d b0	 mov	 DWORD PTR $T47[ebp], ebx
  009a7	ff 15 00 00 00
	00		 call	 DWORD PTR __imp_??1?$CStringT@DV?$StrTraitMFC_DLL@DV?$ChTraitsCRT@D@ATL@@@@@ATL@@QAE@XZ
  009ad	8d 8d 1c ff ff
	ff		 lea	 ecx, DWORD PTR $T14[ebp]
  009b3	c6 45 fc 01	 mov	 BYTE PTR __$EHRec$[ebp+8], 1
  009b7	ff 15 00 00 00
	00		 call	 DWORD PTR __imp_??1?$CStringT@DV?$StrTraitMFC_DLL@DV?$ChTraitsCRT@D@ATL@@@@@ATL@@QAE@XZ

; 59   : 		strValue += "SymbolEnd;\r\n";

  009bd	68 00 00 00 00	 push	 OFFSET ??_C@_0N@CKIGEMFE@SymbolEnd?$DL?$AN?6@
  009c2	8d 4d ac	 lea	 ecx, DWORD PTR _strValue$[ebp]
  009c5	ff 15 00 00 00
	00		 call	 DWORD PTR __imp_??Y?$CStringT@DV?$StrTraitMFC_DLL@DV?$ChTraitsCRT@D@ATL@@@@@ATL@@QAEAAV01@PBD@Z

; 60   : 	}

  009cb	8d 4d a4	 lea	 ecx, DWORD PTR _strIndex$45[ebp]
  009ce	c6 45 fc 00	 mov	 BYTE PTR __$EHRec$[ebp+8], 0
  009d2	ff 15 00 00 00
	00		 call	 DWORD PTR __imp_??1?$CStringT@DV?$StrTraitMFC_DLL@DV?$ChTraitsCRT@D@ATL@@@@@ATL@@QAE@XZ
  009d8	85 ff		 test	 edi, edi
  009da	0f 85 a0 f6 ff
	ff		 jne	 $LL2@GetSavedSy

; 36   : 		if(strIndex.IsEmpty())

  009e0	8b 9d 5c ff ff
	ff		 mov	 ebx, DWORD PTR ___$ReturnUdt$GSCopy$1$[ebp]
$LN3@GetSavedSy:

; 61   : 	return strValue;

  009e6	8d 45 ac	 lea	 eax, DWORD PTR _strValue$[ebp]
  009e9	8b cb		 mov	 ecx, ebx
  009eb	50		 push	 eax
  009ec	ff 15 00 00 00
	00		 call	 DWORD PTR __imp_??0?$CStringT@DV?$StrTraitMFC_DLL@DV?$ChTraitsCRT@D@ATL@@@@@ATL@@QAE@ABV01@@Z
  009f2	8d 4d ac	 lea	 ecx, DWORD PTR _strValue$[ebp]
  009f5	ff 15 00 00 00
	00		 call	 DWORD PTR __imp_??1?$CStringT@DV?$StrTraitMFC_DLL@DV?$ChTraitsCRT@D@ATL@@@@@ATL@@QAE@XZ
  009fb	8b c3		 mov	 eax, ebx
$LN1@GetSavedSy:

; 62   : }

  009fd	8b 4d f4	 mov	 ecx, DWORD PTR __$EHRec$[ebp]
  00a00	64 89 0d 00 00
	00 00		 mov	 DWORD PTR fs:0, ecx
  00a07	59		 pop	 ecx
  00a08	5f		 pop	 edi
  00a09	5e		 pop	 esi
  00a0a	5b		 pop	 ebx
  00a0b	8b 4d f0	 mov	 ecx, DWORD PTR __$ArrayPad$[ebp]
  00a0e	33 cd		 xor	 ecx, ebp
  00a10	e8 00 00 00 00	 call	 @__security_check_cookie@4
  00a15	8b e5		 mov	 esp, ebp
  00a17	5d		 pop	 ebp
  00a18	c2 0c 00	 ret	 12			; 0000000cH
$LN259@GetSavedSy:

; 37   : 			return "";

  00a1b	8b 8d 5c ff ff
	ff		 mov	 ecx, DWORD PTR ___$ReturnUdt$GSCopy$1$[ebp]
  00a21	68 00 00 00 00	 push	 OFFSET ??_C@_00CNPNBAHC@@
  00a26	ff 15 00 00 00
	00		 call	 DWORD PTR __imp_??0?$CStringT@DV?$StrTraitMFC_DLL@DV?$ChTraitsCRT@D@ATL@@@@@ATL@@QAE@PBD@Z
  00a2c	8d 4d a4	 lea	 ecx, DWORD PTR _strIndex$45[ebp]
  00a2f	ff 15 00 00 00
	00		 call	 DWORD PTR __imp_??1?$CStringT@DV?$StrTraitMFC_DLL@DV?$ChTraitsCRT@D@ATL@@@@@ATL@@QAE@XZ
  00a35	8d 4d ac	 lea	 ecx, DWORD PTR _strValue$[ebp]
  00a38	ff 15 00 00 00
	00		 call	 DWORD PTR __imp_??1?$CStringT@DV?$StrTraitMFC_DLL@DV?$ChTraitsCRT@D@ATL@@@@@ATL@@QAE@XZ
  00a3e	8b 85 5c ff ff
	ff		 mov	 eax, DWORD PTR ___$ReturnUdt$GSCopy$1$[ebp]
  00a44	eb b7		 jmp	 SHORT $LN1@GetSavedSy
_TEXT	ENDS
;	COMDAT text$x
text$x	SEGMENT
__unwindfunclet$?GetSavedSymbolsData@CElementSaverBuilder@@QAE?AV?$CStringT@DV?$StrTraitMFC_DLL@DV?$ChTraitsCRT@D@ATL@@@@@ATL@@ABVCOrder@@PAV?$CList@PAVCDrawingSymbol@@PAV1@@@@Z$0:
  00000	8d 4d ac	 lea	 ecx, DWORD PTR _strValue$[ebp]
  00003	ff 25 00 00 00
	00		 jmp	 DWORD PTR __imp_??1?$CStringT@DV?$StrTraitMFC_DLL@DV?$ChTraitsCRT@D@ATL@@@@@ATL@@QAE@XZ
__unwindfunclet$?GetSavedSymbolsData@CElementSaverBuilder@@QAE?AV?$CStringT@DV?$StrTraitMFC_DLL@DV?$ChTraitsCRT@D@ATL@@@@@ATL@@ABVCOrder@@PAV?$CList@PAVCDrawingSymbol@@PAV1@@@@Z$1:
  00009	8d 4d a4	 lea	 ecx, DWORD PTR _strIndex$45[ebp]
  0000c	ff 25 00 00 00
	00		 jmp	 DWORD PTR __imp_??1?$CStringT@DV?$StrTraitMFC_DLL@DV?$ChTraitsCRT@D@ATL@@@@@ATL@@QAE@XZ
__unwindfunclet$?GetSavedSymbolsData@CElementSaverBuilder@@QAE?AV?$CStringT@DV?$StrTraitMFC_DLL@DV?$ChTraitsCRT@D@ATL@@@@@ATL@@ABVCOrder@@PAV?$CList@PAVCDrawingSymbol@@PAV1@@@@Z$3:
  00012	8d 8d 20 ff ff
	ff		 lea	 ecx, DWORD PTR $T15[ebp]
  00018	ff 25 00 00 00
	00		 jmp	 DWORD PTR __imp_??1?$CStringT@DV?$StrTraitMFC_DLL@DV?$ChTraitsCRT@D@ATL@@@@@ATL@@QAE@XZ
__unwindfunclet$?GetSavedSymbolsData@CElementSaverBuilder@@QAE?AV?$CStringT@DV?$StrTraitMFC_DLL@DV?$ChTraitsCRT@D@ATL@@@@@ATL@@ABVCOrder@@PAV?$CList@PAVCDrawingSymbol@@PAV1@@@@Z$35:
  0001e	8b 45 a8	 mov	 eax, DWORD PTR $T46[ebp]
  00021	83 e0 02	 and	 eax, 2
  00024	0f 84 0d 00 00
	00		 je	 $LN53@GetSavedSy
  0002a	83 65 a8 fd	 and	 DWORD PTR $T46[ebp], -3	; fffffffdH
  0002e	8d 4d a0	 lea	 ecx, DWORD PTR $T44[ebp]
  00031	ff 25 00 00 00
	00		 jmp	 DWORD PTR __imp_??1?$CStringT@DV?$StrTraitMFC_DLL@DV?$ChTraitsCRT@D@ATL@@@@@ATL@@QAE@XZ
$LN53@GetSavedSy:
  00037	c3		 ret	 0
__unwindfunclet$?GetSavedSymbolsData@CElementSaverBuilder@@QAE?AV?$CStringT@DV?$StrTraitMFC_DLL@DV?$ChTraitsCRT@D@ATL@@@@@ATL@@ABVCOrder@@PAV?$CList@PAVCDrawingSymbol@@PAV1@@@@Z$5:
  00038	8d 8d 54 ff ff
	ff		 lea	 ecx, DWORD PTR $T27[ebp]
  0003e	ff 25 00 00 00
	00		 jmp	 DWORD PTR __imp_??1?$CStringT@DV?$StrTraitMFC_DLL@DV?$ChTraitsCRT@D@ATL@@@@@ATL@@QAE@XZ
__unwindfunclet$?GetSavedSymbolsData@CElementSaverBuilder@@QAE?AV?$CStringT@DV?$StrTraitMFC_DLL@DV?$ChTraitsCRT@D@ATL@@@@@ATL@@ABVCOrder@@PAV?$CList@PAVCDrawingSymbol@@PAV1@@@@Z$36:
  00044	8b 45 a8	 mov	 eax, DWORD PTR $T46[ebp]
  00047	83 e0 04	 and	 eax, 4
  0004a	0f 84 0d 00 00
	00		 je	 $LN66@GetSavedSy
  00050	83 65 a8 fb	 and	 DWORD PTR $T46[ebp], -5	; fffffffbH
  00054	8d 4d 9c	 lea	 ecx, DWORD PTR $T43[ebp]
  00057	ff 25 00 00 00
	00		 jmp	 DWORD PTR __imp_??1?$CStringT@DV?$StrTraitMFC_DLL@DV?$ChTraitsCRT@D@ATL@@@@@ATL@@QAE@XZ
$LN66@GetSavedSy:
  0005d	c3		 ret	 0
__unwindfunclet$?GetSavedSymbolsData@CElementSaverBuilder@@QAE?AV?$CStringT@DV?$StrTraitMFC_DLL@DV?$ChTraitsCRT@D@ATL@@@@@ATL@@ABVCOrder@@PAV?$CList@PAVCDrawingSymbol@@PAV1@@@@Z$7:
  0005e	8d 8d 50 ff ff
	ff		 lea	 ecx, DWORD PTR $T26[ebp]
  00064	ff 25 00 00 00
	00		 jmp	 DWORD PTR __imp_??1?$CStringT@DV?$StrTraitMFC_DLL@DV?$ChTraitsCRT@D@ATL@@@@@ATL@@QAE@XZ
__unwindfunclet$?GetSavedSymbolsData@CElementSaverBuilder@@QAE?AV?$CStringT@DV?$StrTraitMFC_DLL@DV?$ChTraitsCRT@D@ATL@@@@@ATL@@ABVCOrder@@PAV?$CList@PAVCDrawingSymbol@@PAV1@@@@Z$37:
  0006a	8b 45 a8	 mov	 eax, DWORD PTR $T46[ebp]
  0006d	83 e0 08	 and	 eax, 8
  00070	0f 84 0d 00 00
	00		 je	 $LN79@GetSavedSy
  00076	83 65 a8 f7	 and	 DWORD PTR $T46[ebp], -9	; fffffff7H
  0007a	8d 4d 98	 lea	 ecx, DWORD PTR $T42[ebp]
  0007d	ff 25 00 00 00
	00		 jmp	 DWORD PTR __imp_??1?$CStringT@DV?$StrTraitMFC_DLL@DV?$ChTraitsCRT@D@ATL@@@@@ATL@@QAE@XZ
$LN79@GetSavedSy:
  00083	c3		 ret	 0
__unwindfunclet$?GetSavedSymbolsData@CElementSaverBuilder@@QAE?AV?$CStringT@DV?$StrTraitMFC_DLL@DV?$ChTraitsCRT@D@ATL@@@@@ATL@@ABVCOrder@@PAV?$CList@PAVCDrawingSymbol@@PAV1@@@@Z$9:
  00084	8d 8d 4c ff ff
	ff		 lea	 ecx, DWORD PTR $T25[ebp]
  0008a	ff 25 00 00 00
	00		 jmp	 DWORD PTR __imp_??1?$CStringT@DV?$StrTraitMFC_DLL@DV?$ChTraitsCRT@D@ATL@@@@@ATL@@QAE@XZ
__unwindfunclet$?GetSavedSymbolsData@CElementSaverBuilder@@QAE?AV?$CStringT@DV?$StrTraitMFC_DLL@DV?$ChTraitsCRT@D@ATL@@@@@ATL@@ABVCOrder@@PAV?$CList@PAVCDrawingSymbol@@PAV1@@@@Z$38:
  00090	8b 45 a8	 mov	 eax, DWORD PTR $T46[ebp]
  00093	83 e0 10	 and	 eax, 16			; 00000010H
  00096	0f 84 0d 00 00
	00		 je	 $LN92@GetSavedSy
  0009c	83 65 a8 ef	 and	 DWORD PTR $T46[ebp], -17 ; ffffffefH
  000a0	8d 4d 94	 lea	 ecx, DWORD PTR $T41[ebp]
  000a3	ff 25 00 00 00
	00		 jmp	 DWORD PTR __imp_??1?$CStringT@DV?$StrTraitMFC_DLL@DV?$ChTraitsCRT@D@ATL@@@@@ATL@@QAE@XZ
$LN92@GetSavedSy:
  000a9	c3		 ret	 0
__unwindfunclet$?GetSavedSymbolsData@CElementSaverBuilder@@QAE?AV?$CStringT@DV?$StrTraitMFC_DLL@DV?$ChTraitsCRT@D@ATL@@@@@ATL@@ABVCOrder@@PAV?$CList@PAVCDrawingSymbol@@PAV1@@@@Z$11:
  000aa	8d 8d 48 ff ff
	ff		 lea	 ecx, DWORD PTR $T24[ebp]
  000b0	ff 25 00 00 00
	00		 jmp	 DWORD PTR __imp_??1?$CStringT@DV?$StrTraitMFC_DLL@DV?$ChTraitsCRT@D@ATL@@@@@ATL@@QAE@XZ
__unwindfunclet$?GetSavedSymbolsData@CElementSaverBuilder@@QAE?AV?$CStringT@DV?$StrTraitMFC_DLL@DV?$ChTraitsCRT@D@ATL@@@@@ATL@@ABVCOrder@@PAV?$CList@PAVCDrawingSymbol@@PAV1@@@@Z$39:
  000b6	8b 45 a8	 mov	 eax, DWORD PTR $T46[ebp]
  000b9	83 e0 20	 and	 eax, 32			; 00000020H
  000bc	0f 84 0d 00 00
	00		 je	 $LN105@GetSavedSy
  000c2	83 65 a8 df	 and	 DWORD PTR $T46[ebp], -33 ; ffffffdfH
  000c6	8d 4d 90	 lea	 ecx, DWORD PTR $T40[ebp]
  000c9	ff 25 00 00 00
	00		 jmp	 DWORD PTR __imp_??1?$CStringT@DV?$StrTraitMFC_DLL@DV?$ChTraitsCRT@D@ATL@@@@@ATL@@QAE@XZ
$LN105@GetSavedSy:
  000cf	c3		 ret	 0
__unwindfunclet$?GetSavedSymbolsData@CElementSaverBuilder@@QAE?AV?$CStringT@DV?$StrTraitMFC_DLL@DV?$ChTraitsCRT@D@ATL@@@@@ATL@@ABVCOrder@@PAV?$CList@PAVCDrawingSymbol@@PAV1@@@@Z$13:
  000d0	8d 8d 44 ff ff
	ff		 lea	 ecx, DWORD PTR $T23[ebp]
  000d6	ff 25 00 00 00
	00		 jmp	 DWORD PTR __imp_??1?$CStringT@DV?$StrTraitMFC_DLL@DV?$ChTraitsCRT@D@ATL@@@@@ATL@@QAE@XZ
__unwindfunclet$?GetSavedSymbolsData@CElementSaverBuilder@@QAE?AV?$CStringT@DV?$StrTraitMFC_DLL@DV?$ChTraitsCRT@D@ATL@@@@@ATL@@ABVCOrder@@PAV?$CList@PAVCDrawingSymbol@@PAV1@@@@Z$40:
  000dc	8b 45 a8	 mov	 eax, DWORD PTR $T46[ebp]
  000df	83 e0 40	 and	 eax, 64			; 00000040H
  000e2	0f 84 0d 00 00
	00		 je	 $LN118@GetSavedSy
  000e8	83 65 a8 bf	 and	 DWORD PTR $T46[ebp], -65 ; ffffffbfH
  000ec	8d 4d 8c	 lea	 ecx, DWORD PTR $T39[ebp]
  000ef	ff 25 00 00 00
	00		 jmp	 DWORD PTR __imp_??1?$CStringT@DV?$StrTraitMFC_DLL@DV?$ChTraitsCRT@D@ATL@@@@@ATL@@QAE@XZ
$LN118@GetSavedSy:
  000f5	c3		 ret	 0
__unwindfunclet$?GetSavedSymbolsData@CElementSaverBuilder@@QAE?AV?$CStringT@DV?$StrTraitMFC_DLL@DV?$ChTraitsCRT@D@ATL@@@@@ATL@@ABVCOrder@@PAV?$CList@PAVCDrawingSymbol@@PAV1@@@@Z$15:
  000f6	8d 8d 40 ff ff
	ff		 lea	 ecx, DWORD PTR $T22[ebp]
  000fc	ff 25 00 00 00
	00		 jmp	 DWORD PTR __imp_??1?$CStringT@DV?$StrTraitMFC_DLL@DV?$ChTraitsCRT@D@ATL@@@@@ATL@@QAE@XZ
__unwindfunclet$?GetSavedSymbolsData@CElementSaverBuilder@@QAE?AV?$CStringT@DV?$StrTraitMFC_DLL@DV?$ChTraitsCRT@D@ATL@@@@@ATL@@ABVCOrder@@PAV?$CList@PAVCDrawingSymbol@@PAV1@@@@Z$41:
  00102	8b 45 a8	 mov	 eax, DWORD PTR $T46[ebp]
  00105	25 80 00 00 00	 and	 eax, 128		; 00000080H
  0010a	0f 84 10 00 00
	00		 je	 $LN131@GetSavedSy
  00110	81 65 a8 7f ff
	ff ff		 and	 DWORD PTR $T46[ebp], -129 ; ffffff7fH
  00117	8d 4d 88	 lea	 ecx, DWORD PTR $T38[ebp]
  0011a	ff 25 00 00 00
	00		 jmp	 DWORD PTR __imp_??1?$CStringT@DV?$StrTraitMFC_DLL@DV?$ChTraitsCRT@D@ATL@@@@@ATL@@QAE@XZ
$LN131@GetSavedSy:
  00120	c3		 ret	 0
__unwindfunclet$?GetSavedSymbolsData@CElementSaverBuilder@@QAE?AV?$CStringT@DV?$StrTraitMFC_DLL@DV?$ChTraitsCRT@D@ATL@@@@@ATL@@ABVCOrder@@PAV?$CList@PAVCDrawingSymbol@@PAV1@@@@Z$17:
  00121	8d 8d 3c ff ff
	ff		 lea	 ecx, DWORD PTR $T21[ebp]
  00127	ff 25 00 00 00
	00		 jmp	 DWORD PTR __imp_??1?$CStringT@DV?$StrTraitMFC_DLL@DV?$ChTraitsCRT@D@ATL@@@@@ATL@@QAE@XZ
__unwindfunclet$?GetSavedSymbolsData@CElementSaverBuilder@@QAE?AV?$CStringT@DV?$StrTraitMFC_DLL@DV?$ChTraitsCRT@D@ATL@@@@@ATL@@ABVCOrder@@PAV?$CList@PAVCDrawingSymbol@@PAV1@@@@Z$42:
  0012d	8b 45 a8	 mov	 eax, DWORD PTR $T46[ebp]
  00130	25 00 01 00 00	 and	 eax, 256		; 00000100H
  00135	0f 84 10 00 00
	00		 je	 $LN144@GetSavedSy
  0013b	81 65 a8 ff fe
	ff ff		 and	 DWORD PTR $T46[ebp], -257 ; fffffeffH
  00142	8d 4d 84	 lea	 ecx, DWORD PTR $T37[ebp]
  00145	ff 25 00 00 00
	00		 jmp	 DWORD PTR __imp_??1?$CStringT@DV?$StrTraitMFC_DLL@DV?$ChTraitsCRT@D@ATL@@@@@ATL@@QAE@XZ
$LN144@GetSavedSy:
  0014b	c3		 ret	 0
__unwindfunclet$?GetSavedSymbolsData@CElementSaverBuilder@@QAE?AV?$CStringT@DV?$StrTraitMFC_DLL@DV?$ChTraitsCRT@D@ATL@@@@@ATL@@ABVCOrder@@PAV?$CList@PAVCDrawingSymbol@@PAV1@@@@Z$19:
  0014c	8d 8d 38 ff ff
	ff		 lea	 ecx, DWORD PTR $T20[ebp]
  00152	ff 25 00 00 00
	00		 jmp	 DWORD PTR __imp_??1?$CStringT@DV?$StrTraitMFC_DLL@DV?$ChTraitsCRT@D@ATL@@@@@ATL@@QAE@XZ
__unwindfunclet$?GetSavedSymbolsData@CElementSaverBuilder@@QAE?AV?$CStringT@DV?$StrTraitMFC_DLL@DV?$ChTraitsCRT@D@ATL@@@@@ATL@@ABVCOrder@@PAV?$CList@PAVCDrawingSymbol@@PAV1@@@@Z$43:
  00158	8b 45 a8	 mov	 eax, DWORD PTR $T46[ebp]
  0015b	25 00 02 00 00	 and	 eax, 512		; 00000200H
  00160	0f 84 10 00 00
	00		 je	 $LN157@GetSavedSy
  00166	81 65 a8 ff fd
	ff ff		 and	 DWORD PTR $T46[ebp], -513 ; fffffdffH
  0016d	8d 4d 80	 lea	 ecx, DWORD PTR $T36[ebp]
  00170	ff 25 00 00 00
	00		 jmp	 DWORD PTR __imp_??1?$CStringT@DV?$StrTraitMFC_DLL@DV?$ChTraitsCRT@D@ATL@@@@@ATL@@QAE@XZ
$LN157@GetSavedSy:
  00176	c3		 ret	 0
__unwindfunclet$?GetSavedSymbolsData@CElementSaverBuilder@@QAE?AV?$CStringT@DV?$StrTraitMFC_DLL@DV?$ChTraitsCRT@D@ATL@@@@@ATL@@ABVCOrder@@PAV?$CList@PAVCDrawingSymbol@@PAV1@@@@Z$21:
  00177	8d 8d 34 ff ff
	ff		 lea	 ecx, DWORD PTR $T19[ebp]
  0017d	ff 25 00 00 00
	00		 jmp	 DWORD PTR __imp_??1?$CStringT@DV?$StrTraitMFC_DLL@DV?$ChTraitsCRT@D@ATL@@@@@ATL@@QAE@XZ
__unwindfunclet$?GetSavedSymbolsData@CElementSaverBuilder@@QAE?AV?$CStringT@DV?$StrTraitMFC_DLL@DV?$ChTraitsCRT@D@ATL@@@@@ATL@@ABVCOrder@@PAV?$CList@PAVCDrawingSymbol@@PAV1@@@@Z$44:
  00183	8b 45 a8	 mov	 eax, DWORD PTR $T46[ebp]
  00186	25 00 04 00 00	 and	 eax, 1024		; 00000400H
  0018b	0f 84 13 00 00
	00		 je	 $LN170@GetSavedSy
  00191	81 65 a8 ff fb
	ff ff		 and	 DWORD PTR $T46[ebp], -1025 ; fffffbffH
  00198	8d 8d 7c ff ff
	ff		 lea	 ecx, DWORD PTR $T35[ebp]
  0019e	ff 25 00 00 00
	00		 jmp	 DWORD PTR __imp_??1?$CStringT@DV?$StrTraitMFC_DLL@DV?$ChTraitsCRT@D@ATL@@@@@ATL@@QAE@XZ
$LN170@GetSavedSy:
  001a4	c3		 ret	 0
__unwindfunclet$?GetSavedSymbolsData@CElementSaverBuilder@@QAE?AV?$CStringT@DV?$StrTraitMFC_DLL@DV?$ChTraitsCRT@D@ATL@@@@@ATL@@ABVCOrder@@PAV?$CList@PAVCDrawingSymbol@@PAV1@@@@Z$23:
  001a5	8d 8d 30 ff ff
	ff		 lea	 ecx, DWORD PTR $T18[ebp]
  001ab	ff 25 00 00 00
	00		 jmp	 DWORD PTR __imp_??1?$CStringT@DV?$StrTraitMFC_DLL@DV?$ChTraitsCRT@D@ATL@@@@@ATL@@QAE@XZ
__unwindfunclet$?GetSavedSymbolsData@CElementSaverBuilder@@QAE?AV?$CStringT@DV?$StrTraitMFC_DLL@DV?$ChTraitsCRT@D@ATL@@@@@ATL@@ABVCOrder@@PAV?$CList@PAVCDrawingSymbol@@PAV1@@@@Z$45:
  001b1	8b 45 a8	 mov	 eax, DWORD PTR $T46[ebp]
  001b4	25 00 08 00 00	 and	 eax, 2048		; 00000800H
  001b9	0f 84 13 00 00
	00		 je	 $LN183@GetSavedSy
  001bf	81 65 a8 ff f7
	ff ff		 and	 DWORD PTR $T46[ebp], -2049 ; fffff7ffH
  001c6	8d 8d 78 ff ff
	ff		 lea	 ecx, DWORD PTR $T34[ebp]
  001cc	ff 25 00 00 00
	00		 jmp	 DWORD PTR __imp_??1?$CStringT@DV?$StrTraitMFC_DLL@DV?$ChTraitsCRT@D@ATL@@@@@ATL@@QAE@XZ
$LN183@GetSavedSy:
  001d2	c3		 ret	 0
__unwindfunclet$?GetSavedSymbolsData@CElementSaverBuilder@@QAE?AV?$CStringT@DV?$StrTraitMFC_DLL@DV?$ChTraitsCRT@D@ATL@@@@@ATL@@ABVCOrder@@PAV?$CList@PAVCDrawingSymbol@@PAV1@@@@Z$25:
  001d3	8d 8d 2c ff ff
	ff		 lea	 ecx, DWORD PTR $T17[ebp]
  001d9	ff 25 00 00 00
	00		 jmp	 DWORD PTR __imp_??1?$CStringT@DV?$StrTraitMFC_DLL@DV?$ChTraitsCRT@D@ATL@@@@@ATL@@QAE@XZ
__unwindfunclet$?GetSavedSymbolsData@CElementSaverBuilder@@QAE?AV?$CStringT@DV?$StrTraitMFC_DLL@DV?$ChTraitsCRT@D@ATL@@@@@ATL@@ABVCOrder@@PAV?$CList@PAVCDrawingSymbol@@PAV1@@@@Z$46:
  001df	8b 45 a8	 mov	 eax, DWORD PTR $T46[ebp]
  001e2	25 00 10 00 00	 and	 eax, 4096		; 00001000H
  001e7	0f 84 13 00 00
	00		 je	 $LN196@GetSavedSy
  001ed	81 65 a8 ff ef
	ff ff		 and	 DWORD PTR $T46[ebp], -4097 ; ffffefffH
  001f4	8d 8d 74 ff ff
	ff		 lea	 ecx, DWORD PTR $T33[ebp]
  001fa	ff 25 00 00 00
	00		 jmp	 DWORD PTR __imp_??1?$CStringT@DV?$StrTraitMFC_DLL@DV?$ChTraitsCRT@D@ATL@@@@@ATL@@QAE@XZ
$LN196@GetSavedSy:
  00200	c3		 ret	 0
__unwindfunclet$?GetSavedSymbolsData@CElementSaverBuilder@@QAE?AV?$CStringT@DV?$StrTraitMFC_DLL@DV?$ChTraitsCRT@D@ATL@@@@@ATL@@ABVCOrder@@PAV?$CList@PAVCDrawingSymbol@@PAV1@@@@Z$27:
  00201	8d 8d 28 ff ff
	ff		 lea	 ecx, DWORD PTR $T16[ebp]
  00207	ff 25 00 00 00
	00		 jmp	 DWORD PTR __imp_??1?$CStringT@DV?$StrTraitMFC_DLL@DV?$ChTraitsCRT@D@ATL@@@@@ATL@@QAE@XZ
__unwindfunclet$?GetSavedSymbolsData@CElementSaverBuilder@@QAE?AV?$CStringT@DV?$StrTraitMFC_DLL@DV?$ChTraitsCRT@D@ATL@@@@@ATL@@ABVCOrder@@PAV?$CList@PAVCDrawingSymbol@@PAV1@@@@Z$47:
  0020d	8b 45 a8	 mov	 eax, DWORD PTR $T46[ebp]
  00210	25 00 20 00 00	 and	 eax, 8192		; 00002000H
  00215	0f 84 13 00 00
	00		 je	 $LN209@GetSavedSy
  0021b	81 65 a8 ff df
	ff ff		 and	 DWORD PTR $T46[ebp], -8193 ; ffffdfffH
  00222	8d 8d 70 ff ff
	ff		 lea	 ecx, DWORD PTR $T32[ebp]
  00228	ff 25 00 00 00
	00		 jmp	 DWORD PTR __imp_??1?$CStringT@DV?$StrTraitMFC_DLL@DV?$ChTraitsCRT@D@ATL@@@@@ATL@@QAE@XZ
$LN209@GetSavedSy:
  0022e	c3		 ret	 0
__unwindfunclet$?GetSavedSymbolsData@CElementSaverBuilder@@QAE?AV?$CStringT@DV?$StrTraitMFC_DLL@DV?$ChTraitsCRT@D@ATL@@@@@ATL@@ABVCOrder@@PAV?$CList@PAVCDrawingSymbol@@PAV1@@@@Z$29:
  0022f	8d 8d 18 ff ff
	ff		 lea	 ecx, DWORD PTR $T13[ebp]
  00235	ff 25 00 00 00
	00		 jmp	 DWORD PTR __imp_??1?$CStringT@DV?$StrTraitMFC_DLL@DV?$ChTraitsCRT@D@ATL@@@@@ATL@@QAE@XZ
__unwindfunclet$?GetSavedSymbolsData@CElementSaverBuilder@@QAE?AV?$CStringT@DV?$StrTraitMFC_DLL@DV?$ChTraitsCRT@D@ATL@@@@@ATL@@ABVCOrder@@PAV?$CList@PAVCDrawingSymbol@@PAV1@@@@Z$48:
  0023b	8b 45 a8	 mov	 eax, DWORD PTR $T46[ebp]
  0023e	25 00 40 00 00	 and	 eax, 16384		; 00004000H
  00243	0f 84 13 00 00
	00		 je	 $LN222@GetSavedSy
  00249	81 65 a8 ff bf
	ff ff		 and	 DWORD PTR $T46[ebp], -16385 ; ffffbfffH
  00250	8d 8d 6c ff ff
	ff		 lea	 ecx, DWORD PTR $T31[ebp]
  00256	ff 25 00 00 00
	00		 jmp	 DWORD PTR __imp_??1?$CStringT@DV?$StrTraitMFC_DLL@DV?$ChTraitsCRT@D@ATL@@@@@ATL@@QAE@XZ
$LN222@GetSavedSy:
  0025c	c3		 ret	 0
__unwindfunclet$?GetSavedSymbolsData@CElementSaverBuilder@@QAE?AV?$CStringT@DV?$StrTraitMFC_DLL@DV?$ChTraitsCRT@D@ATL@@@@@ATL@@ABVCOrder@@PAV?$CList@PAVCDrawingSymbol@@PAV1@@@@Z$31:
  0025d	8d 8d 58 ff ff
	ff		 lea	 ecx, DWORD PTR $T28[ebp]
  00263	ff 25 00 00 00
	00		 jmp	 DWORD PTR __imp_??1?$CStringT@DV?$StrTraitMFC_DLL@DV?$ChTraitsCRT@D@ATL@@@@@ATL@@QAE@XZ
__unwindfunclet$?GetSavedSymbolsData@CElementSaverBuilder@@QAE?AV?$CStringT@DV?$StrTraitMFC_DLL@DV?$ChTraitsCRT@D@ATL@@@@@ATL@@ABVCOrder@@PAV?$CList@PAVCDrawingSymbol@@PAV1@@@@Z$49:
  00269	8b 45 a8	 mov	 eax, DWORD PTR $T46[ebp]
  0026c	25 00 80 00 00	 and	 eax, 32768		; 00008000H
  00271	0f 84 13 00 00
	00		 je	 $LN235@GetSavedSy
  00277	81 65 a8 ff 7f
	ff ff		 and	 DWORD PTR $T46[ebp], -32769 ; ffff7fffH
  0027e	8d 8d 68 ff ff
	ff		 lea	 ecx, DWORD PTR $T30[ebp]
  00284	ff 25 00 00 00
	00		 jmp	 DWORD PTR __imp_??1?$CStringT@DV?$StrTraitMFC_DLL@DV?$ChTraitsCRT@D@ATL@@@@@ATL@@QAE@XZ
$LN235@GetSavedSy:
  0028a	c3		 ret	 0
__unwindfunclet$?GetSavedSymbolsData@CElementSaverBuilder@@QAE?AV?$CStringT@DV?$StrTraitMFC_DLL@DV?$ChTraitsCRT@D@ATL@@@@@ATL@@ABVCOrder@@PAV?$CList@PAVCDrawingSymbol@@PAV1@@@@Z$33:
  0028b	8d 8d 1c ff ff
	ff		 lea	 ecx, DWORD PTR $T14[ebp]
  00291	ff 25 00 00 00
	00		 jmp	 DWORD PTR __imp_??1?$CStringT@DV?$StrTraitMFC_DLL@DV?$ChTraitsCRT@D@ATL@@@@@ATL@@QAE@XZ
__unwindfunclet$?GetSavedSymbolsData@CElementSaverBuilder@@QAE?AV?$CStringT@DV?$StrTraitMFC_DLL@DV?$ChTraitsCRT@D@ATL@@@@@ATL@@ABVCOrder@@PAV?$CList@PAVCDrawingSymbol@@PAV1@@@@Z$50:
  00297	8b 45 a8	 mov	 eax, DWORD PTR $T46[ebp]
  0029a	25 00 00 01 00	 and	 eax, 65536		; 00010000H
  0029f	0f 84 13 00 00
	00		 je	 $LN248@GetSavedSy
  002a5	81 65 a8 ff ff
	fe ff		 and	 DWORD PTR $T46[ebp], -65537 ; fffeffffH
  002ac	8d 8d 64 ff ff
	ff		 lea	 ecx, DWORD PTR $T29[ebp]
  002b2	ff 25 00 00 00
	00		 jmp	 DWORD PTR __imp_??1?$CStringT@DV?$StrTraitMFC_DLL@DV?$ChTraitsCRT@D@ATL@@@@@ATL@@QAE@XZ
$LN248@GetSavedSy:
  002b8	c3		 ret	 0
  002b9	cc		 int	 3
  002ba	cc		 int	 3
  002bb	cc		 int	 3
  002bc	cc		 int	 3
  002bd	cc		 int	 3
__ehhandler$?GetSavedSymbolsData@CElementSaverBuilder@@QAE?AV?$CStringT@DV?$StrTraitMFC_DLL@DV?$ChTraitsCRT@D@ATL@@@@@ATL@@ABVCOrder@@PAV?$CList@PAVCDrawingSymbol@@PAV1@@@@Z:
  002be	90		 npad	 1
  002bf	90		 npad	 1
  002c0	8b 54 24 08	 mov	 edx, DWORD PTR [esp+8]
  002c4	8d 42 0c	 lea	 eax, DWORD PTR [edx+12]
  002c7	8b 8a cc fe ff
	ff		 mov	 ecx, DWORD PTR [edx-308]
  002cd	33 c8		 xor	 ecx, eax
  002cf	e8 00 00 00 00	 call	 @__security_check_cookie@4
  002d4	8b 4a fc	 mov	 ecx, DWORD PTR [edx-4]
  002d7	33 c8		 xor	 ecx, eax
  002d9	e8 00 00 00 00	 call	 @__security_check_cookie@4
  002de	b8 00 00 00 00	 mov	 eax, OFFSET __ehfuncinfo$?GetSavedSymbolsData@CElementSaverBuilder@@QAE?AV?$CStringT@DV?$StrTraitMFC_DLL@DV?$ChTraitsCRT@D@ATL@@@@@ATL@@ABVCOrder@@PAV?$CList@PAVCDrawingSymbol@@PAV1@@@@Z
  002e3	e9 00 00 00 00	 jmp	 ___CxxFrameHandler3
text$x	ENDS
?GetSavedSymbolsData@CElementSaverBuilder@@QAE?AV?$CStringT@DV?$StrTraitMFC_DLL@DV?$ChTraitsCRT@D@ATL@@@@@ATL@@ABVCOrder@@PAV?$CList@PAVCDrawingSymbol@@PAV1@@@@Z ENDP ; CElementSaverBuilder::GetSavedSymbolsData
; Function compile flags: /Ogtp
;	COMDAT ??_GCOrderSet@@UAEPAXI@Z
_TEXT	SEGMENT
___flags$ = 8						; size = 4
??_GCOrderSet@@UAEPAXI@Z PROC				; COrderSet::`scalar deleting destructor', COMDAT
; _this$ = ecx
  00000	55		 push	 ebp
  00001	8b ec		 mov	 ebp, esp
  00003	56		 push	 esi
  00004	8b f1		 mov	 esi, ecx
  00006	e8 00 00 00 00	 call	 ??1COrderSet@@UAE@XZ	; COrderSet::~COrderSet
  0000b	f6 45 08 01	 test	 BYTE PTR ___flags$[ebp], 1
  0000f	74 0b		 je	 SHORT $LN4@scalar
  00011	6a 20		 push	 32			; 00000020H
  00013	56		 push	 esi
  00014	e8 00 00 00 00	 call	 ??3@YAXPAXI@Z		; operator delete
  00019	83 c4 08	 add	 esp, 8
$LN4@scalar:
  0001c	8b c6		 mov	 eax, esi
  0001e	5e		 pop	 esi
  0001f	5d		 pop	 ebp
  00020	c2 04 00	 ret	 4
??_GCOrderSet@@UAEPAXI@Z ENDP				; COrderSet::`scalar deleting destructor'
_TEXT	ENDS
; Function compile flags: /Ogtp
; File C:\Program Files (x86)\Microsoft Visual Studio\2019\Community\VC\Tools\MSVC\14.29.30133\atlmfc\include\afxtempl.h
; File C:\Program Files (x86)\Microsoft Visual Studio\2019\Community\VC\Tools\MSVC\14.29.30133\atlmfc\include\afx.inl
;	COMDAT ??_G?$CList@PAVCOrderAndElement@@PAV1@@@UAEPAXI@Z
_TEXT	SEGMENT
__$EHRec$ = -12						; size = 12
___flags$ = 8						; size = 4
??_G?$CList@PAVCOrderAndElement@@PAV1@@@UAEPAXI@Z PROC	; CList<COrderAndElement *,COrderAndElement *>::`scalar deleting destructor', COMDAT
; _this$ = ecx
  00000	55		 push	 ebp
  00001	8b ec		 mov	 ebp, esp
  00003	6a ff		 push	 -1
  00005	68 00 00 00 00	 push	 __ehhandler$??_G?$CList@PAVCOrderAndElement@@PAV1@@@UAEPAXI@Z
  0000a	64 a1 00 00 00
	00		 mov	 eax, DWORD PTR fs:0
  00010	50		 push	 eax
  00011	56		 push	 esi
  00012	a1 00 00 00 00	 mov	 eax, DWORD PTR ___security_cookie
  00017	33 c5		 xor	 eax, ebp
  00019	50		 push	 eax
  0001a	8d 45 f4	 lea	 eax, DWORD PTR __$EHRec$[ebp]
  0001d	64 a3 00 00 00
	00		 mov	 DWORD PTR fs:0, eax
  00023	8b f1		 mov	 esi, ecx
; File C:\Program Files (x86)\Microsoft Visual Studio\2019\Community\VC\Tools\MSVC\14.29.30133\atlmfc\include\afxtempl.h

; 872  : 	m_pBlocks->FreeDataChain();

  00025	8b 4e 14	 mov	 ecx, DWORD PTR [esi+20]

; 878  : {

  00028	c7 45 fc 00 00
	00 00		 mov	 DWORD PTR __$EHRec$[ebp+8], 0
  0002f	c7 06 00 00 00
	00		 mov	 DWORD PTR [esi], OFFSET ??_7?$CList@PAVCOrderAndElement@@PAV1@@@6B@

; 870  : 	m_nCount = 0;

  00035	c7 46 0c 00 00
	00 00		 mov	 DWORD PTR [esi+12], 0

; 871  : 	m_pNodeHead = m_pNodeTail = m_pNodeFree = NULL;

  0003c	c7 46 10 00 00
	00 00		 mov	 DWORD PTR [esi+16], 0
  00043	c7 46 08 00 00
	00 00		 mov	 DWORD PTR [esi+8], 0
  0004a	c7 46 04 00 00
	00 00		 mov	 DWORD PTR [esi+4], 0

; 872  : 	m_pBlocks->FreeDataChain();

  00051	e8 00 00 00 00	 call	 ?FreeDataChain@CPlex@@QAEXXZ ; CPlex::FreeDataChain

; 873  : 	m_pBlocks = NULL;

  00056	8b 45 08	 mov	 eax, DWORD PTR ___flags$[ebp]
  00059	c7 46 14 00 00
	00 00		 mov	 DWORD PTR [esi+20], 0
  00060	a8 01		 test	 al, 1
  00062	74 2c		 je	 SHORT $LN22@scalar
  00064	a8 04		 test	 al, 4
  00066	75 1d		 jne	 SHORT $LN3@scalar
; File C:\Program Files (x86)\Microsoft Visual Studio\2019\Community\VC\Tools\MSVC\14.29.30133\atlmfc\include\afx.inl

; 112  : 	{ ::operator delete(p); }

  00068	56		 push	 esi
  00069	e8 00 00 00 00	 call	 ??3@YAXPAX@Z		; operator delete
  0006e	83 c4 04	 add	 esp, 4
  00071	8b c6		 mov	 eax, esi
  00073	8b 4d f4	 mov	 ecx, DWORD PTR __$EHRec$[ebp]
  00076	64 89 0d 00 00
	00 00		 mov	 DWORD PTR fs:0, ecx
  0007d	59		 pop	 ecx
  0007e	5e		 pop	 esi
  0007f	8b e5		 mov	 esp, ebp
  00081	5d		 pop	 ebp
  00082	c2 04 00	 ret	 4
$LN3@scalar:
  00085	6a 1c		 push	 28			; 0000001cH
  00087	56		 push	 esi
  00088	e8 00 00 00 00	 call	 ?__global_delete@@YAXPAXI@Z ; __global_delete
  0008d	83 c4 08	 add	 esp, 8
$LN22@scalar:
  00090	8b c6		 mov	 eax, esi
  00092	8b 4d f4	 mov	 ecx, DWORD PTR __$EHRec$[ebp]
  00095	64 89 0d 00 00
	00 00		 mov	 DWORD PTR fs:0, ecx
  0009c	59		 pop	 ecx
  0009d	5e		 pop	 esi
  0009e	8b e5		 mov	 esp, ebp
  000a0	5d		 pop	 ebp
  000a1	c2 04 00	 ret	 4
  000a4	cc		 int	 3
  000a5	cc		 int	 3
  000a6	cc		 int	 3
  000a7	cc		 int	 3
  000a8	cc		 int	 3
_TEXT	ENDS
;	COMDAT text$x
text$x	SEGMENT
__ehhandler$??_G?$CList@PAVCOrderAndElement@@PAV1@@@UAEPAXI@Z:
  00000	90		 npad	 1
  00001	90		 npad	 1
  00002	8b 54 24 08	 mov	 edx, DWORD PTR [esp+8]
  00006	8d 42 0c	 lea	 eax, DWORD PTR [edx+12]
  00009	8b 4a f8	 mov	 ecx, DWORD PTR [edx-8]
  0000c	33 c8		 xor	 ecx, eax
  0000e	e8 00 00 00 00	 call	 @__security_check_cookie@4
  00013	b8 00 00 00 00	 mov	 eax, OFFSET __ehfuncinfo$??_G?$CList@PAVCOrderAndElement@@PAV1@@@UAEPAXI@Z
  00018	e9 00 00 00 00	 jmp	 ___CxxFrameHandler3
text$x	ENDS
??_G?$CList@PAVCOrderAndElement@@PAV1@@@UAEPAXI@Z ENDP	; CList<COrderAndElement *,COrderAndElement *>::`scalar deleting destructor'
; Function compile flags: /Ogtp
; File C:\Program Files (x86)\Microsoft Visual Studio\2019\Community\VC\Tools\MSVC\14.29.30133\atlmfc\include\afxtempl.h
; File C:\Program Files (x86)\Microsoft Visual Studio\2019\Community\VC\Tools\MSVC\14.29.30133\atlmfc\include\afx.inl
; File C:\Program Files (x86)\Microsoft Visual Studio\2019\Community\VC\Tools\MSVC\14.29.30133\atlmfc\include\afxtempl.h
; File C:\Program Files (x86)\Microsoft Visual Studio\2019\Community\VC\Tools\MSVC\14.29.30133\atlmfc\include\afx.inl
; File C:\Program Files (x86)\Microsoft Visual Studio\2019\Community\VC\Tools\MSVC\14.29.30133\atlmfc\include\afxtempl.h
; File C:\Program Files (x86)\Microsoft Visual Studio\2019\Community\VC\Tools\MSVC\14.29.30133\atlmfc\include\afx.inl
; File C:\Program Files (x86)\Microsoft Visual Studio\2019\Community\VC\Tools\MSVC\14.29.30133\atlmfc\include\afxtempl.h
; File C:\Program Files (x86)\Microsoft Visual Studio\2019\Community\VC\Tools\MSVC\14.29.30133\atlmfc\include\afx.inl
; File C:\Program Files (x86)\Microsoft Visual Studio\2019\Community\VC\Tools\MSVC\14.29.30133\atlmfc\include\afxtempl.h
; File C:\Program Files (x86)\Microsoft Visual Studio\2019\Community\VC\Tools\MSVC\14.29.30133\atlmfc\include\afx.inl
; File C:\Program Files (x86)\Microsoft Visual Studio\2019\Community\VC\Tools\MSVC\14.29.30133\atlmfc\include\afxtempl.h
; File C:\Program Files (x86)\Microsoft Visual Studio\2019\Community\VC\Tools\MSVC\14.29.30133\atlmfc\include\afx.inl
; File C:\Program Files (x86)\Microsoft Visual Studio\2019\Community\VC\Tools\MSVC\14.29.30133\atlmfc\include\afxtempl.h
;	COMDAT ?Serialize@?$CList@PAVCOrderAndElement@@PAV1@@@UAEXAAVCArchive@@@Z
_TEXT	SEGMENT
_nNewCount$1$ = -16					; size = 4
_newData$1 = -12					; size = 4
_pData$1$ = -8						; size = 4
_pData$1$ = -8						; size = 4
_pNode$1$ = -8						; size = 4
_nElementsLeft$1$ = -4					; size = 4
_this$1$ = -4						; size = 4
_ar$ = 8						; size = 4
?Serialize@?$CList@PAVCOrderAndElement@@PAV1@@@UAEXAAVCArchive@@@Z PROC ; CList<COrderAndElement *,COrderAndElement *>::Serialize, COMDAT
; _this$ = ecx

; 1169 : {

  00000	55		 push	 ebp
  00001	8b ec		 mov	 ebp, esp
  00003	83 ec 10	 sub	 esp, 16			; 00000010H
  00006	53		 push	 ebx
  00007	8b d9		 mov	 ebx, ecx
; File C:\Program Files (x86)\Microsoft Visual Studio\2019\Community\VC\Tools\MSVC\14.29.30133\atlmfc\include\afx.inl

; 212  : 	{ return (m_nMode & CArchive::load) == 0; }

  00009	8b 4d 08	 mov	 ecx, DWORD PTR _ar$[ebp]
; File C:\Program Files (x86)\Microsoft Visual Studio\2019\Community\VC\Tools\MSVC\14.29.30133\atlmfc\include\afxtempl.h

; 1169 : {

  0000c	56		 push	 esi
  0000d	57		 push	 edi
  0000e	89 5d fc	 mov	 DWORD PTR _this$1$[ebp], ebx
; File C:\Program Files (x86)\Microsoft Visual Studio\2019\Community\VC\Tools\MSVC\14.29.30133\atlmfc\include\afx.inl

; 212  : 	{ return (m_nMode & CArchive::load) == 0; }

  00011	8b 41 18	 mov	 eax, DWORD PTR [ecx+24]
  00014	f7 d0		 not	 eax
  00016	a8 01		 test	 al, 1
; File C:\Program Files (x86)\Microsoft Visual Studio\2019\Community\VC\Tools\MSVC\14.29.30133\atlmfc\include\afxtempl.h

; 1174 : 	if (ar.IsStoring())

  00018	0f 84 ae 00 00
	00		 je	 $LN7@Serialize

; 1175 : 	{
; 1176 : 		ar.WriteCount(m_nCount);

  0001e	ff 73 0c	 push	 DWORD PTR [ebx+12]
  00021	e8 00 00 00 00	 call	 ?WriteCount@CArchive@@QAEXK@Z ; CArchive::WriteCount

; 1177 : 		for (CNode* pNode = m_pNodeHead; pNode != NULL; pNode = pNode->pNext)

  00026	8b 43 04	 mov	 eax, DWORD PTR [ebx+4]
  00029	89 45 f8	 mov	 DWORD PTR _pNode$1$[ebp], eax
  0002c	85 c0		 test	 eax, eax
  0002e	0f 84 b9 01 00
	00		 je	 $LN86@Serialize
$LL4@Serialize:

; 1178 : 		{
; 1179 : 			ASSERT(AfxIsValidAddress(pNode, sizeof(CNode)));
; 1180 : 			TYPE* pData;
; 1181 : 			/*
; 1182 : 			 * in some cases the & operator might be overloaded, and we cannot use it to obtain
; 1183 : 			 * the address of a given object.  We then use the following trick to get the address
; 1184 : 			 */
; 1185 : 			pData = reinterpret_cast< TYPE* >( &reinterpret_cast< int& >( static_cast< TYPE& >( pNode->data ) ) );

  00034	8d 70 08	 lea	 esi, DWORD PTR [eax+8]

; 68   : 	ENSURE(nCount == 0 || pElements != NULL);

  00037	85 f6		 test	 esi, esi
  00039	0f 84 c0 01 00
	00		 je	 $LN76@Serialize
; File C:\Program Files (x86)\Microsoft Visual Studio\2019\Community\VC\Tools\MSVC\14.29.30133\atlmfc\include\afx.inl

; 212  : 	{ return (m_nMode & CArchive::load) == 0; }

  0003f	8b 4d 08	 mov	 ecx, DWORD PTR _ar$[ebp]
  00042	8b 41 18	 mov	 eax, DWORD PTR [ecx+24]
  00045	f7 d0		 not	 eax
  00047	a8 01		 test	 al, 1
; File C:\Program Files (x86)\Microsoft Visual Studio\2019\Community\VC\Tools\MSVC\14.29.30133\atlmfc\include\afxtempl.h

; 73   : 	if (ar.IsStoring())

  00049	74 33		 je	 SHORT $LN21@Serialize

; 74   : 	{
; 75   : 		TYPE* pData;
; 76   : 		UINT_PTR nElementsLeft;
; 77   : 
; 78   : 		nElementsLeft = nCount;

  0004b	b8 01 00 00 00	 mov	 eax, 1
  00050	89 45 fc	 mov	 DWORD PTR _nElementsLeft$1$[ebp], eax
$LL16@Serialize:

; 80   : 		while( nElementsLeft > 0 )
; 81   : 		{
; 82   : 			UINT nElementsToWrite;
; 83   : 
; 84   : 			nElementsToWrite = UINT(__min(nElementsLeft, INT_MAX/sizeof(TYPE)));

  00053	bb ff ff ff 1f	 mov	 ebx, 536870911		; 1fffffffH
  00058	3b c3		 cmp	 eax, ebx
  0005a	0f 42 d8	 cmovb	 ebx, eax

; 85   : 			ar.Write(pData, nElementsToWrite*sizeof(TYPE));

  0005d	8d 3c 9d 00 00
	00 00		 lea	 edi, DWORD PTR [ebx*4]
  00064	57		 push	 edi
  00065	56		 push	 esi
  00066	e8 00 00 00 00	 call	 ?Write@CArchive@@QAEXPBXI@Z ; CArchive::Write

; 86   : 			nElementsLeft -= nElementsToWrite;

  0006b	8b 45 fc	 mov	 eax, DWORD PTR _nElementsLeft$1$[ebp]

; 87   : 			pData += nElementsToWrite;

  0006e	03 f7		 add	 esi, edi
  00070	8b 4d 08	 mov	 ecx, DWORD PTR _ar$[ebp]
  00073	2b c3		 sub	 eax, ebx
  00075	89 45 fc	 mov	 DWORD PTR _nElementsLeft$1$[ebp], eax
  00078	85 c0		 test	 eax, eax
  0007a	75 d7		 jne	 SHORT $LL16@Serialize

; 88   : 		}
; 89   : 	}

  0007c	eb 35		 jmp	 SHORT $LN2@Serialize
$LN21@Serialize:

; 90   : 	else
; 91   : 	{
; 92   : 		TYPE* pData;
; 93   : 		UINT_PTR nElementsLeft;
; 94   : 
; 95   : 		nElementsLeft = nCount;

  0007e	bf 01 00 00 00	 mov	 edi, 1
$LL18@Serialize:

; 98   : 		{
; 99   : 			UINT nElementsToRead;
; 100  : 
; 101  : 			nElementsToRead = UINT(__min(nElementsLeft, INT_MAX/sizeof(TYPE)));

  00083	bb ff ff ff 1f	 mov	 ebx, 536870911		; 1fffffffH
  00088	3b fb		 cmp	 edi, ebx
  0008a	0f 42 df	 cmovb	 ebx, edi

; 102  : 			ar.EnsureRead(pData, nElementsToRead*sizeof(TYPE));

  0008d	8d 04 9d 00 00
	00 00		 lea	 eax, DWORD PTR [ebx*4]
; File C:\Program Files (x86)\Microsoft Visual Studio\2019\Community\VC\Tools\MSVC\14.29.30133\atlmfc\include\afx.inl

; 399  : 	UINT nRead=Read(lpBuf, nCount);

  00094	50		 push	 eax
  00095	56		 push	 esi
  00096	e8 00 00 00 00	 call	 ?Read@CArchive@@QAEIPAXI@Z ; CArchive::Read

; 400  : 	if(nRead!=nCount)

  0009b	8d 0c 9d 00 00
	00 00		 lea	 ecx, DWORD PTR [ebx*4]
  000a2	3b c1		 cmp	 eax, ecx
  000a4	0f 85 4c 01 00
	00		 jne	 $LN75@Serialize
; File C:\Program Files (x86)\Microsoft Visual Studio\2019\Community\VC\Tools\MSVC\14.29.30133\atlmfc\include\afxtempl.h

; 97   : 		while( nElementsLeft > 0 )

  000aa	03 f1		 add	 esi, ecx
  000ac	8b 4d 08	 mov	 ecx, DWORD PTR _ar$[ebp]

; 103  : 			nElementsLeft -= nElementsToRead;

  000af	2b fb		 sub	 edi, ebx
  000b1	75 d0		 jne	 SHORT $LL18@Serialize
$LN2@Serialize:

; 1177 : 		for (CNode* pNode = m_pNodeHead; pNode != NULL; pNode = pNode->pNext)

  000b3	8b 45 f8	 mov	 eax, DWORD PTR _pNode$1$[ebp]
  000b6	8b 00		 mov	 eax, DWORD PTR [eax]
  000b8	89 45 f8	 mov	 DWORD PTR _pNode$1$[ebp], eax
  000bb	85 c0		 test	 eax, eax
  000bd	0f 85 71 ff ff
	ff		 jne	 $LL4@Serialize

; 1197 : 		}
; 1198 : 	}
; 1199 : }

  000c3	5f		 pop	 edi
  000c4	5e		 pop	 esi
  000c5	5b		 pop	 ebx
  000c6	8b e5		 mov	 esp, ebp
  000c8	5d		 pop	 ebp
  000c9	c2 04 00	 ret	 4
$LN7@Serialize:

; 1186 : 			SerializeElements<TYPE>(ar, pData, 1);
; 1187 : 		}
; 1188 : 	}
; 1189 : 	else
; 1190 : 	{
; 1191 : 		DWORD_PTR nNewCount = ar.ReadCount();

  000cc	e8 00 00 00 00	 call	 ?ReadCount@CArchive@@QAEKXZ ; CArchive::ReadCount

; 1192 : 		while (nNewCount--)

  000d1	85 c0		 test	 eax, eax
  000d3	0f 84 14 01 00
	00		 je	 $LN86@Serialize
  000d9	0f 1f 80 00 00
	00 00		 npad	 7
$LL5@Serialize:
  000e0	48		 dec	 eax
  000e1	89 45 f0	 mov	 DWORD PTR _nNewCount$1$[ebp], eax
; File C:\Program Files (x86)\Microsoft Visual Studio\2019\Community\VC\Tools\MSVC\14.29.30133\atlmfc\include\afx.inl

; 212  : 	{ return (m_nMode & CArchive::load) == 0; }

  000e4	8b 45 08	 mov	 eax, DWORD PTR _ar$[ebp]
  000e7	8b 48 18	 mov	 ecx, DWORD PTR [eax+24]
  000ea	f7 d1		 not	 ecx
  000ec	f6 c1 01	 test	 cl, 1
; File C:\Program Files (x86)\Microsoft Visual Studio\2019\Community\VC\Tools\MSVC\14.29.30133\atlmfc\include\afxtempl.h

; 73   : 	if (ar.IsStoring())

  000ef	74 3d		 je	 SHORT $LN42@Serialize

; 79   : 		pData = pElements;

  000f1	8d 4d f4	 lea	 ecx, DWORD PTR _newData$1[ebp]
  000f4	bb 01 00 00 00	 mov	 ebx, 1
  000f9	89 4d f8	 mov	 DWORD PTR _pData$1$[ebp], ecx
  000fc	0f 1f 40 00	 npad	 4
$LL37@Serialize:

; 80   : 		while( nElementsLeft > 0 )
; 81   : 		{
; 82   : 			UINT nElementsToWrite;
; 83   : 
; 84   : 			nElementsToWrite = UINT(__min(nElementsLeft, INT_MAX/sizeof(TYPE)));

  00100	bf ff ff ff 1f	 mov	 edi, 536870911		; 1fffffffH
  00105	3b df		 cmp	 ebx, edi
  00107	0f 42 fb	 cmovb	 edi, ebx

; 85   : 			ar.Write(pData, nElementsToWrite*sizeof(TYPE));

  0010a	8d 34 bd 00 00
	00 00		 lea	 esi, DWORD PTR [edi*4]
  00111	56		 push	 esi
  00112	51		 push	 ecx
  00113	8b c8		 mov	 ecx, eax
  00115	e8 00 00 00 00	 call	 ?Write@CArchive@@QAEXPBXI@Z ; CArchive::Write

; 87   : 			pData += nElementsToWrite;

  0011a	8b 4d f8	 mov	 ecx, DWORD PTR _pData$1$[ebp]
  0011d	8b 45 08	 mov	 eax, DWORD PTR _ar$[ebp]
  00120	03 ce		 add	 ecx, esi
  00122	89 4d f8	 mov	 DWORD PTR _pData$1$[ebp], ecx
  00125	2b df		 sub	 ebx, edi
  00127	75 d7		 jne	 SHORT $LL37@Serialize

; 88   : 		}
; 89   : 	}

  00129	8b 5d fc	 mov	 ebx, DWORD PTR _this$1$[ebp]
  0012c	eb 4a		 jmp	 SHORT $LN40@Serialize
$LN42@Serialize:

; 96   : 		pData = pElements;

  0012e	8d 55 f4	 lea	 edx, DWORD PTR _newData$1[ebp]
  00131	be 01 00 00 00	 mov	 esi, 1
  00136	89 55 f8	 mov	 DWORD PTR _pData$1$[ebp], edx
  00139	0f 1f 80 00 00
	00 00		 npad	 7
$LL39@Serialize:

; 98   : 		{
; 99   : 			UINT nElementsToRead;
; 100  : 
; 101  : 			nElementsToRead = UINT(__min(nElementsLeft, INT_MAX/sizeof(TYPE)));

  00140	bf ff ff ff 1f	 mov	 edi, 536870911		; 1fffffffH
  00145	3b f7		 cmp	 esi, edi
  00147	0f 42 fe	 cmovb	 edi, esi

; 102  : 			ar.EnsureRead(pData, nElementsToRead*sizeof(TYPE));

  0014a	8d 0c bd 00 00
	00 00		 lea	 ecx, DWORD PTR [edi*4]
; File C:\Program Files (x86)\Microsoft Visual Studio\2019\Community\VC\Tools\MSVC\14.29.30133\atlmfc\include\afx.inl

; 399  : 	UINT nRead=Read(lpBuf, nCount);

  00151	51		 push	 ecx
  00152	52		 push	 edx
  00153	8b c8		 mov	 ecx, eax
  00155	e8 00 00 00 00	 call	 ?Read@CArchive@@QAEIPAXI@Z ; CArchive::Read

; 400  : 	if(nRead!=nCount)

  0015a	8d 0c bd 00 00
	00 00		 lea	 ecx, DWORD PTR [edi*4]
  00161	3b c1		 cmp	 eax, ecx
  00163	0f 85 8d 00 00
	00		 jne	 $LN75@Serialize
; File C:\Program Files (x86)\Microsoft Visual Studio\2019\Community\VC\Tools\MSVC\14.29.30133\atlmfc\include\afxtempl.h

; 97   : 		while( nElementsLeft > 0 )

  00169	8b 55 f8	 mov	 edx, DWORD PTR _pData$1$[ebp]
  0016c	8b 45 08	 mov	 eax, DWORD PTR _ar$[ebp]

; 104  : 			pData += nElementsToRead;

  0016f	03 d1		 add	 edx, ecx
  00171	89 55 f8	 mov	 DWORD PTR _pData$1$[ebp], edx
  00174	2b f7		 sub	 esi, edi
  00176	75 c8		 jne	 SHORT $LL39@Serialize
$LN40@Serialize:

; 902  : 	if (m_pNodeFree == NULL)

  00178	83 7b 10 00	 cmp	 DWORD PTR [ebx+16], 0

; 1193 : 		{
; 1194 : 			TYPE newData[1];
; 1195 : 			SerializeElements<TYPE>(ar, newData, 1);
; 1196 : 			AddTail(newData[0]);

  0017c	8b 75 f4	 mov	 esi, DWORD PTR _newData$1[ebp]

; 968  : 	CNode* pNewNode = NewNode(m_pNodeTail, NULL);

  0017f	8b 7b 08	 mov	 edi, DWORD PTR [ebx+8]

; 902  : 	if (m_pNodeFree == NULL)

  00182	75 32		 jne	 SHORT $LN63@Serialize

; 903  : 	{
; 904  : 		// add another block
; 905  : 		CPlex* pNewBlock = CPlex::Create(m_pBlocks, m_nBlockSize,

  00184	6a 0c		 push	 12			; 0000000cH
  00186	ff 73 18	 push	 DWORD PTR [ebx+24]
  00189	8d 43 14	 lea	 eax, DWORD PTR [ebx+20]
  0018c	50		 push	 eax
  0018d	e8 00 00 00 00	 call	 ?Create@CPlex@@SGPAU1@AAPAU1@II@Z ; CPlex::Create

; 906  : 				 sizeof(CNode));
; 907  : 
; 908  : 		// chain them into free list
; 909  : 		CNode* pNode = (CNode*) pNewBlock->data();
; 910  : 		// free in reverse order to make it easier to debug
; 911  : 		pNode += m_nBlockSize - 1;

  00192	8b 53 18	 mov	 edx, DWORD PTR [ebx+24]
  00195	83 c0 08	 add	 eax, 8
  00198	8d 4a ff	 lea	 ecx, DWORD PTR [edx-1]

; 912  : 		for (INT_PTR i = m_nBlockSize-1; i >= 0; i--, pNode--)

  0019b	83 c2 ff	 add	 edx, -1
  0019e	8d 0c 49	 lea	 ecx, DWORD PTR [ecx+ecx*2]
  001a1	8d 0c 88	 lea	 ecx, DWORD PTR [eax+ecx*4]
  001a4	78 10		 js	 SHORT $LN63@Serialize
$LL60@Serialize:

; 913  : 		{
; 914  : 			pNode->pNext = m_pNodeFree;

  001a6	8b 43 10	 mov	 eax, DWORD PTR [ebx+16]
  001a9	89 01		 mov	 DWORD PTR [ecx], eax

; 915  : 			m_pNodeFree = pNode;

  001ab	89 4b 10	 mov	 DWORD PTR [ebx+16], ecx
  001ae	83 e9 0c	 sub	 ecx, 12			; 0000000cH
  001b1	83 ea 01	 sub	 edx, 1
  001b4	79 f0		 jns	 SHORT $LL60@Serialize
$LN63@Serialize:

; 916  : 		}
; 917  : 	}
; 918  : 	ENSURE(m_pNodeFree != NULL);  // we must have something

  001b6	8b 4b 10	 mov	 ecx, DWORD PTR [ebx+16]
  001b9	85 c9		 test	 ecx, ecx
  001bb	74 42		 je	 SHORT $LN76@Serialize

; 919  : 
; 920  : 	CList::CNode* pNode = m_pNodeFree;
; 921  : 	m_pNodeFree = m_pNodeFree->pNext;

  001bd	8b 01		 mov	 eax, DWORD PTR [ecx]
  001bf	89 43 10	 mov	 DWORD PTR [ebx+16], eax

; 922  : 	pNode->pPrev = pPrev;

  001c2	89 79 04	 mov	 DWORD PTR [ecx+4], edi

; 923  : 	pNode->pNext = pNext;

  001c5	c7 01 00 00 00
	00		 mov	 DWORD PTR [ecx], 0

; 924  : 	m_nCount++;

  001cb	ff 43 0c	 inc	 DWORD PTR [ebx+12]

; 969  : 	pNewNode->data = newElement;

  001ce	89 71 08	 mov	 DWORD PTR [ecx+8], esi

; 970  : 	if (m_pNodeTail != NULL)

  001d1	8b 43 08	 mov	 eax, DWORD PTR [ebx+8]
  001d4	85 c0		 test	 eax, eax
  001d6	74 04		 je	 SHORT $LN54@Serialize

; 971  : 		m_pNodeTail->pNext = pNewNode;

  001d8	89 08		 mov	 DWORD PTR [eax], ecx
  001da	eb 03		 jmp	 SHORT $LN55@Serialize
$LN54@Serialize:

; 972  : 	else
; 973  : 		m_pNodeHead = pNewNode;

  001dc	89 4b 04	 mov	 DWORD PTR [ebx+4], ecx
$LN55@Serialize:

; 1192 : 		while (nNewCount--)

  001df	8b 45 f0	 mov	 eax, DWORD PTR _nNewCount$1$[ebp]

; 974  : 	m_pNodeTail = pNewNode;

  001e2	89 4b 08	 mov	 DWORD PTR [ebx+8], ecx

; 1192 : 		while (nNewCount--)

  001e5	85 c0		 test	 eax, eax
  001e7	0f 85 f3 fe ff
	ff		 jne	 $LL5@Serialize
$LN86@Serialize:
  001ed	5f		 pop	 edi

; 1197 : 		}
; 1198 : 	}
; 1199 : }

  001ee	5e		 pop	 esi
  001ef	5b		 pop	 ebx
  001f0	8b e5		 mov	 esp, ebp
  001f2	5d		 pop	 ebp
  001f3	c2 04 00	 ret	 4
$LN75@Serialize:
  001f6	6a 00		 push	 0
  001f8	6a 03		 push	 3
  001fa	e8 00 00 00 00	 call	 ?AfxThrowArchiveException@@YGXHPBD@Z ; AfxThrowArchiveException
$LN76@Serialize:
  001ff	e8 00 00 00 00	 call	 ?AfxThrowInvalidArgException@@YGXXZ ; AfxThrowInvalidArgException
$LN105@Serialize:
  00204	cc		 int	 3
?Serialize@?$CList@PAVCOrderAndElement@@PAV1@@@UAEXAAVCArchive@@@Z ENDP ; CList<COrderAndElement *,COrderAndElement *>::Serialize
_TEXT	ENDS
; Function compile flags: /Ogtp
; File C:\Program Files (x86)\Microsoft Visual Studio\2019\Community\VC\Tools\MSVC\14.29.30133\atlmfc\include\afxtempl.h
;	COMDAT ??1?$CList@PAVCOrderAndElement@@PAV1@@@UAE@XZ
_TEXT	SEGMENT
__$EHRec$ = -12						; size = 12
??1?$CList@PAVCOrderAndElement@@PAV1@@@UAE@XZ PROC	; CList<COrderAndElement *,COrderAndElement *>::~CList<COrderAndElement *,COrderAndElement *>, COMDAT
; _this$ = ecx

; 878  : {

  00000	55		 push	 ebp
  00001	8b ec		 mov	 ebp, esp
  00003	6a ff		 push	 -1
  00005	68 00 00 00 00	 push	 __ehhandler$??1?$CList@PAVCOrderAndElement@@PAV1@@@UAE@XZ
  0000a	64 a1 00 00 00
	00		 mov	 eax, DWORD PTR fs:0
  00010	50		 push	 eax
  00011	56		 push	 esi
  00012	a1 00 00 00 00	 mov	 eax, DWORD PTR ___security_cookie
  00017	33 c5		 xor	 eax, ebp
  00019	50		 push	 eax
  0001a	8d 45 f4	 lea	 eax, DWORD PTR __$EHRec$[ebp]
  0001d	64 a3 00 00 00
	00		 mov	 DWORD PTR fs:0, eax
  00023	8b f1		 mov	 esi, ecx

; 872  : 	m_pBlocks->FreeDataChain();

  00025	8b 4e 14	 mov	 ecx, DWORD PTR [esi+20]

; 878  : {

  00028	c7 06 00 00 00
	00		 mov	 DWORD PTR [esi], OFFSET ??_7?$CList@PAVCOrderAndElement@@PAV1@@@6B@

; 870  : 	m_nCount = 0;

  0002e	c7 46 0c 00 00
	00 00		 mov	 DWORD PTR [esi+12], 0

; 871  : 	m_pNodeHead = m_pNodeTail = m_pNodeFree = NULL;

  00035	c7 46 10 00 00
	00 00		 mov	 DWORD PTR [esi+16], 0
  0003c	c7 46 08 00 00
	00 00		 mov	 DWORD PTR [esi+8], 0
  00043	c7 46 04 00 00
	00 00		 mov	 DWORD PTR [esi+4], 0

; 872  : 	m_pBlocks->FreeDataChain();

  0004a	e8 00 00 00 00	 call	 ?FreeDataChain@CPlex@@QAEXXZ ; CPlex::FreeDataChain

; 873  : 	m_pBlocks = NULL;

  0004f	c7 46 14 00 00
	00 00		 mov	 DWORD PTR [esi+20], 0

; 879  : 	RemoveAll();
; 880  : 	ASSERT(m_nCount == 0);
; 881  : }

  00056	8b 4d f4	 mov	 ecx, DWORD PTR __$EHRec$[ebp]
  00059	64 89 0d 00 00
	00 00		 mov	 DWORD PTR fs:0, ecx
  00060	59		 pop	 ecx
  00061	5e		 pop	 esi
  00062	8b e5		 mov	 esp, ebp
  00064	5d		 pop	 ebp
  00065	c3		 ret	 0
  00066	cc		 int	 3
  00067	cc		 int	 3
  00068	cc		 int	 3
  00069	cc		 int	 3
  0006a	cc		 int	 3
_TEXT	ENDS
;	COMDAT text$x
text$x	SEGMENT
__ehhandler$??1?$CList@PAVCOrderAndElement@@PAV1@@@UAE@XZ:
  00000	90		 npad	 1
  00001	90		 npad	 1
  00002	8b 54 24 08	 mov	 edx, DWORD PTR [esp+8]
  00006	8d 42 0c	 lea	 eax, DWORD PTR [edx+12]
  00009	8b 4a f8	 mov	 ecx, DWORD PTR [edx-8]
  0000c	33 c8		 xor	 ecx, eax
  0000e	e8 00 00 00 00	 call	 @__security_check_cookie@4
  00013	b8 00 00 00 00	 mov	 eax, OFFSET __ehfuncinfo$??1?$CList@PAVCOrderAndElement@@PAV1@@@UAE@XZ
  00018	e9 00 00 00 00	 jmp	 ___CxxFrameHandler3
text$x	ENDS
??1?$CList@PAVCOrderAndElement@@PAV1@@@UAE@XZ ENDP	; CList<COrderAndElement *,COrderAndElement *>::~CList<COrderAndElement *,COrderAndElement *>
; Function compile flags: /Ogtp
; File C:\Program Files (x86)\Microsoft Visual Studio\2019\Community\VC\Tools\MSVC\14.29.30133\atlmfc\include\afxtempl.h
;	COMDAT ?NewNode@?$CList@PAVCOrderAndElement@@PAV1@@@IAEPAUCNode@1@PAU21@0@Z
_TEXT	SEGMENT
_pPrev$ = 8						; size = 4
_pNext$ = 12						; size = 4
?NewNode@?$CList@PAVCOrderAndElement@@PAV1@@@IAEPAUCNode@1@PAU21@0@Z PROC ; CList<COrderAndElement *,COrderAndElement *>::NewNode, COMDAT
; _this$ = ecx

; 901  : {

  00000	55		 push	 ebp
  00001	8b ec		 mov	 ebp, esp
  00003	56		 push	 esi
  00004	8b f1		 mov	 esi, ecx

; 902  : 	if (m_pNodeFree == NULL)

  00006	83 7e 10 00	 cmp	 DWORD PTR [esi+16], 0
  0000a	75 34		 jne	 SHORT $LN7@NewNode

; 903  : 	{
; 904  : 		// add another block
; 905  : 		CPlex* pNewBlock = CPlex::Create(m_pBlocks, m_nBlockSize,

  0000c	6a 0c		 push	 12			; 0000000cH
  0000e	ff 76 18	 push	 DWORD PTR [esi+24]
  00011	8d 46 14	 lea	 eax, DWORD PTR [esi+20]
  00014	50		 push	 eax
  00015	e8 00 00 00 00	 call	 ?Create@CPlex@@SGPAU1@AAPAU1@II@Z ; CPlex::Create

; 906  : 				 sizeof(CNode));
; 907  : 
; 908  : 		// chain them into free list
; 909  : 		CNode* pNode = (CNode*) pNewBlock->data();
; 910  : 		// free in reverse order to make it easier to debug
; 911  : 		pNode += m_nBlockSize - 1;

  0001a	8b 56 18	 mov	 edx, DWORD PTR [esi+24]
  0001d	83 c0 08	 add	 eax, 8
  00020	8d 0c 52	 lea	 ecx, DWORD PTR [edx+edx*2]
  00023	8d 04 88	 lea	 eax, DWORD PTR [eax+ecx*4]
  00026	83 c0 f4	 add	 eax, -12		; fffffff4H

; 912  : 		for (INT_PTR i = m_nBlockSize-1; i >= 0; i--, pNode--)

  00029	83 c2 ff	 add	 edx, -1
  0002c	78 12		 js	 SHORT $LN7@NewNode
  0002e	66 90		 npad	 2
$LL4@NewNode:

; 913  : 		{
; 914  : 			pNode->pNext = m_pNodeFree;

  00030	8b 4e 10	 mov	 ecx, DWORD PTR [esi+16]
  00033	89 08		 mov	 DWORD PTR [eax], ecx

; 915  : 			m_pNodeFree = pNode;

  00035	89 46 10	 mov	 DWORD PTR [esi+16], eax
  00038	83 e8 0c	 sub	 eax, 12			; 0000000cH
  0003b	83 ea 01	 sub	 edx, 1
  0003e	79 f0		 jns	 SHORT $LL4@NewNode
$LN7@NewNode:

; 916  : 		}
; 917  : 	}
; 918  : 	ENSURE(m_pNodeFree != NULL);  // we must have something

  00040	8b 46 10	 mov	 eax, DWORD PTR [esi+16]
  00043	85 c0		 test	 eax, eax
  00045	74 18		 je	 SHORT $LN17@NewNode

; 919  : 
; 920  : 	CList::CNode* pNode = m_pNodeFree;
; 921  : 	m_pNodeFree = m_pNodeFree->pNext;

  00047	8b 08		 mov	 ecx, DWORD PTR [eax]
  00049	89 4e 10	 mov	 DWORD PTR [esi+16], ecx

; 922  : 	pNode->pPrev = pPrev;

  0004c	8b 4d 08	 mov	 ecx, DWORD PTR _pPrev$[ebp]
  0004f	89 48 04	 mov	 DWORD PTR [eax+4], ecx

; 923  : 	pNode->pNext = pNext;

  00052	8b 4d 0c	 mov	 ecx, DWORD PTR _pNext$[ebp]
  00055	89 08		 mov	 DWORD PTR [eax], ecx

; 924  : 	m_nCount++;

  00057	ff 46 0c	 inc	 DWORD PTR [esi+12]

; 925  : 	ASSERT(m_nCount > 0);  // make sure we don't overflow
; 926  : 
; 927  : #pragma push_macro("new")
; 928  : #undef new
; 929  : 	::new( (void*)( &pNode->data ) ) TYPE;
; 930  : #pragma pop_macro("new")
; 931  : 	return pNode;

  0005a	5e		 pop	 esi

; 932  : }

  0005b	5d		 pop	 ebp
  0005c	c2 08 00	 ret	 8
$LN17@NewNode:

; 916  : 		}
; 917  : 	}
; 918  : 	ENSURE(m_pNodeFree != NULL);  // we must have something

  0005f	e8 00 00 00 00	 call	 ?AfxThrowInvalidArgException@@YGXXZ ; AfxThrowInvalidArgException
$LN15@NewNode:
  00064	cc		 int	 3
?NewNode@?$CList@PAVCOrderAndElement@@PAV1@@@IAEPAUCNode@1@PAU21@0@Z ENDP ; CList<COrderAndElement *,COrderAndElement *>::NewNode
_TEXT	ENDS
; Function compile flags: /Ogtp
; File C:\Program Files (x86)\Microsoft Visual Studio\2019\Community\VC\Tools\MSVC\14.29.30133\atlmfc\include\afxtempl.h
;	COMDAT ?RemoveAll@?$CList@PAVCOrderAndElement@@PAV1@@@QAEXXZ
_TEXT	SEGMENT
?RemoveAll@?$CList@PAVCOrderAndElement@@PAV1@@@QAEXXZ PROC ; CList<COrderAndElement *,COrderAndElement *>::RemoveAll, COMDAT
; _this$ = ecx

; 862  : {

  00000	56		 push	 esi
  00001	8b f1		 mov	 esi, ecx

; 863  : 	ASSERT_VALID(this);
; 864  : 
; 865  : 	// destroy elements
; 866  : 	CNode* pNode;
; 867  : 	for (pNode = m_pNodeHead; pNode != NULL; pNode = pNode->pNext)
; 868  : 		pNode->data.~TYPE();
; 869  : 
; 870  : 	m_nCount = 0;
; 871  : 	m_pNodeHead = m_pNodeTail = m_pNodeFree = NULL;
; 872  : 	m_pBlocks->FreeDataChain();

  00003	8b 4e 14	 mov	 ecx, DWORD PTR [esi+20]
  00006	c7 46 0c 00 00
	00 00		 mov	 DWORD PTR [esi+12], 0
  0000d	c7 46 10 00 00
	00 00		 mov	 DWORD PTR [esi+16], 0
  00014	c7 46 08 00 00
	00 00		 mov	 DWORD PTR [esi+8], 0
  0001b	c7 46 04 00 00
	00 00		 mov	 DWORD PTR [esi+4], 0
  00022	e8 00 00 00 00	 call	 ?FreeDataChain@CPlex@@QAEXXZ ; CPlex::FreeDataChain

; 873  : 	m_pBlocks = NULL;

  00027	c7 46 14 00 00
	00 00		 mov	 DWORD PTR [esi+20], 0
  0002e	5e		 pop	 esi

; 874  : }

  0002f	c3		 ret	 0
?RemoveAll@?$CList@PAVCOrderAndElement@@PAV1@@@QAEXXZ ENDP ; CList<COrderAndElement *,COrderAndElement *>::RemoveAll
_TEXT	ENDS
; Function compile flags: /Ogtp
; File C:\Program Files (x86)\Microsoft Visual Studio\2019\Community\VC\Tools\MSVC\14.29.30133\atlmfc\include\afxtempl.h
;	COMDAT ?AddTail@?$CList@PAVCOrderAndElement@@PAV1@@@QAEPAU__POSITION@@PAVCOrderAndElement@@@Z
_TEXT	SEGMENT
_newElement$ = 8					; size = 4
?AddTail@?$CList@PAVCOrderAndElement@@PAV1@@@QAEPAU__POSITION@@PAVCOrderAndElement@@@Z PROC ; CList<COrderAndElement *,COrderAndElement *>::AddTail, COMDAT
; _this$ = ecx

; 965  : {

  00000	55		 push	 ebp
  00001	8b ec		 mov	 ebp, esp
  00003	56		 push	 esi
  00004	8b f1		 mov	 esi, ecx
  00006	57		 push	 edi

; 902  : 	if (m_pNodeFree == NULL)

  00007	83 7e 10 00	 cmp	 DWORD PTR [esi+16], 0

; 966  : 	ASSERT_VALID(this);
; 967  : 
; 968  : 	CNode* pNewNode = NewNode(m_pNodeTail, NULL);

  0000b	8b 7e 08	 mov	 edi, DWORD PTR [esi+8]

; 902  : 	if (m_pNodeFree == NULL)

  0000e	75 32		 jne	 SHORT $LN11@AddTail

; 903  : 	{
; 904  : 		// add another block
; 905  : 		CPlex* pNewBlock = CPlex::Create(m_pBlocks, m_nBlockSize,

  00010	6a 0c		 push	 12			; 0000000cH
  00012	ff 76 18	 push	 DWORD PTR [esi+24]
  00015	8d 46 14	 lea	 eax, DWORD PTR [esi+20]
  00018	50		 push	 eax
  00019	e8 00 00 00 00	 call	 ?Create@CPlex@@SGPAU1@AAPAU1@II@Z ; CPlex::Create

; 906  : 				 sizeof(CNode));
; 907  : 
; 908  : 		// chain them into free list
; 909  : 		CNode* pNode = (CNode*) pNewBlock->data();
; 910  : 		// free in reverse order to make it easier to debug
; 911  : 		pNode += m_nBlockSize - 1;

  0001e	8b 56 18	 mov	 edx, DWORD PTR [esi+24]
  00021	83 c0 08	 add	 eax, 8
  00024	8d 4a ff	 lea	 ecx, DWORD PTR [edx-1]

; 912  : 		for (INT_PTR i = m_nBlockSize-1; i >= 0; i--, pNode--)

  00027	83 c2 ff	 add	 edx, -1
  0002a	8d 0c 49	 lea	 ecx, DWORD PTR [ecx+ecx*2]
  0002d	8d 0c 88	 lea	 ecx, DWORD PTR [eax+ecx*4]
  00030	78 10		 js	 SHORT $LN11@AddTail
$LL8@AddTail:

; 913  : 		{
; 914  : 			pNode->pNext = m_pNodeFree;

  00032	8b 46 10	 mov	 eax, DWORD PTR [esi+16]
  00035	89 01		 mov	 DWORD PTR [ecx], eax

; 915  : 			m_pNodeFree = pNode;

  00037	89 4e 10	 mov	 DWORD PTR [esi+16], ecx
  0003a	83 e9 0c	 sub	 ecx, 12			; 0000000cH
  0003d	83 ea 01	 sub	 edx, 1
  00040	79 f0		 jns	 SHORT $LL8@AddTail
$LN11@AddTail:

; 916  : 		}
; 917  : 	}
; 918  : 	ENSURE(m_pNodeFree != NULL);  // we must have something

  00042	8b 4e 10	 mov	 ecx, DWORD PTR [esi+16]
  00045	85 c9		 test	 ecx, ecx
  00047	74 39		 je	 SHORT $LN22@AddTail

; 919  : 
; 920  : 	CList::CNode* pNode = m_pNodeFree;
; 921  : 	m_pNodeFree = m_pNodeFree->pNext;

  00049	8b 01		 mov	 eax, DWORD PTR [ecx]
  0004b	89 46 10	 mov	 DWORD PTR [esi+16], eax

; 969  : 	pNewNode->data = newElement;

  0004e	8b 45 08	 mov	 eax, DWORD PTR _newElement$[ebp]

; 922  : 	pNode->pPrev = pPrev;

  00051	89 79 04	 mov	 DWORD PTR [ecx+4], edi

; 923  : 	pNode->pNext = pNext;

  00054	c7 01 00 00 00
	00		 mov	 DWORD PTR [ecx], 0

; 924  : 	m_nCount++;

  0005a	ff 46 0c	 inc	 DWORD PTR [esi+12]

; 969  : 	pNewNode->data = newElement;

  0005d	89 41 08	 mov	 DWORD PTR [ecx+8], eax

; 970  : 	if (m_pNodeTail != NULL)

  00060	8b 46 08	 mov	 eax, DWORD PTR [esi+8]
  00063	85 c0		 test	 eax, eax
  00065	74 0d		 je	 SHORT $LN2@AddTail

; 971  : 		m_pNodeTail->pNext = pNewNode;

  00067	89 08		 mov	 DWORD PTR [eax], ecx

; 972  : 	else
; 973  : 		m_pNodeHead = pNewNode;
; 974  : 	m_pNodeTail = pNewNode;
; 975  : 	return (POSITION) pNewNode;

  00069	8b c1		 mov	 eax, ecx
  0006b	5f		 pop	 edi
  0006c	89 4e 08	 mov	 DWORD PTR [esi+8], ecx
  0006f	5e		 pop	 esi

; 976  : }

  00070	5d		 pop	 ebp
  00071	c2 04 00	 ret	 4
$LN2@AddTail:

; 972  : 	else
; 973  : 		m_pNodeHead = pNewNode;
; 974  : 	m_pNodeTail = pNewNode;
; 975  : 	return (POSITION) pNewNode;

  00074	5f		 pop	 edi
  00075	89 4e 04	 mov	 DWORD PTR [esi+4], ecx
  00078	8b c1		 mov	 eax, ecx
  0007a	89 4e 08	 mov	 DWORD PTR [esi+8], ecx
  0007d	5e		 pop	 esi

; 976  : }

  0007e	5d		 pop	 ebp
  0007f	c2 04 00	 ret	 4
$LN22@AddTail:

; 918  : 	ENSURE(m_pNodeFree != NULL);  // we must have something

  00082	e8 00 00 00 00	 call	 ?AfxThrowInvalidArgException@@YGXXZ ; AfxThrowInvalidArgException
$LN20@AddTail:
  00087	cc		 int	 3
?AddTail@?$CList@PAVCOrderAndElement@@PAV1@@@QAEPAU__POSITION@@PAVCOrderAndElement@@@Z ENDP ; CList<COrderAndElement *,COrderAndElement *>::AddTail
_TEXT	ENDS
; Function compile flags: /Ogtp
; File C:\Program Files (x86)\Microsoft Visual Studio\2019\Community\VC\Tools\MSVC\14.29.30133\atlmfc\include\afxtempl.h
;	COMDAT ??0?$CList@PAVCOrderAndElement@@PAV1@@@QAE@H@Z
_TEXT	SEGMENT
_nBlockSize$ = 8					; size = 4
??0?$CList@PAVCOrderAndElement@@PAV1@@@QAE@H@Z PROC	; CList<COrderAndElement *,COrderAndElement *>::CList<COrderAndElement *,COrderAndElement *>, COMDAT
; _this$ = ecx

; 851  : {

  00000	55		 push	 ebp
  00001	8b ec		 mov	 ebp, esp

; 852  : 	ASSERT(nBlockSize > 0);
; 853  : 
; 854  : 	m_nCount = 0;
; 855  : 	m_pNodeHead = m_pNodeTail = m_pNodeFree = NULL;
; 856  : 	m_pBlocks = NULL;
; 857  : 	m_nBlockSize = nBlockSize;

  00003	8b 45 08	 mov	 eax, DWORD PTR _nBlockSize$[ebp]
  00006	89 41 18	 mov	 DWORD PTR [ecx+24], eax

; 858  : }

  00009	8b c1		 mov	 eax, ecx
  0000b	c7 01 00 00 00
	00		 mov	 DWORD PTR [ecx], OFFSET ??_7?$CList@PAVCOrderAndElement@@PAV1@@@6B@
  00011	c7 41 0c 00 00
	00 00		 mov	 DWORD PTR [ecx+12], 0
  00018	c7 41 10 00 00
	00 00		 mov	 DWORD PTR [ecx+16], 0
  0001f	c7 41 08 00 00
	00 00		 mov	 DWORD PTR [ecx+8], 0
  00026	c7 41 04 00 00
	00 00		 mov	 DWORD PTR [ecx+4], 0
  0002d	c7 41 14 00 00
	00 00		 mov	 DWORD PTR [ecx+20], 0
  00034	5d		 pop	 ebp
  00035	c2 04 00	 ret	 4
??0?$CList@PAVCOrderAndElement@@PAV1@@@QAE@H@Z ENDP	; CList<COrderAndElement *,COrderAndElement *>::CList<COrderAndElement *,COrderAndElement *>
_TEXT	ENDS
; Function compile flags: /Ogtp
; File C:\Program Files (x86)\Microsoft Visual Studio\2019\Community\VC\Tools\MSVC\14.29.30133\atlmfc\include\cstringt.h
; File C:\Program Files (x86)\Microsoft Visual Studio\2019\Community\VC\Tools\MSVC\14.29.30133\atlmfc\include\atlsimpstr.h
; File C:\Program Files (x86)\Microsoft Visual Studio\2019\Community\VC\Tools\MSVC\14.29.30133\atlmfc\include\cstringt.h
; File C:\Program Files (x86)\Microsoft Visual Studio\2019\Community\VC\Tools\MSVC\14.29.30133\atlmfc\include\atlsimpstr.h
; File C:\Program Files (x86)\Microsoft Visual Studio\2019\Community\VC\Tools\MSVC\14.29.30133\atlmfc\include\cstringt.h
;	COMDAT ??HATL@@YA?AV?$CStringT@DV?$StrTraitMFC_DLL@DV?$ChTraitsCRT@D@ATL@@@@@0@ABV10@0@Z
_TEXT	SEGMENT
$T2 = -16						; size = 4
__$EHRec$ = -12						; size = 12
___$ReturnUdt$ = 8					; size = 4
_str1$ = 12						; size = 4
_str2$ = 16						; size = 4
??HATL@@YA?AV?$CStringT@DV?$StrTraitMFC_DLL@DV?$ChTraitsCRT@D@ATL@@@@@0@ABV10@0@Z PROC ; ATL::operator+, COMDAT

; 2389 : 	{

  00000	55		 push	 ebp
  00001	8b ec		 mov	 ebp, esp
  00003	6a ff		 push	 -1
  00005	68 00 00 00 00	 push	 __ehhandler$??HATL@@YA?AV?$CStringT@DV?$StrTraitMFC_DLL@DV?$ChTraitsCRT@D@ATL@@@@@0@ABV10@0@Z
  0000a	64 a1 00 00 00
	00		 mov	 eax, DWORD PTR fs:0
  00010	50		 push	 eax
  00011	51		 push	 ecx
  00012	56		 push	 esi
  00013	57		 push	 edi
  00014	a1 00 00 00 00	 mov	 eax, DWORD PTR ___security_cookie
  00019	33 c5		 xor	 eax, ebp
  0001b	50		 push	 eax
  0001c	8d 45 f4	 lea	 eax, DWORD PTR __$EHRec$[ebp]
  0001f	64 a3 00 00 00
	00		 mov	 DWORD PTR fs:0, eax

; 2390 : 		CStringT strResult( str1.GetManager() );

  00025	8b 75 0c	 mov	 esi, DWORD PTR _str1$[ebp]
  00028	8b ce		 mov	 ecx, esi
  0002a	c7 45 f0 00 00
	00 00		 mov	 DWORD PTR $T2[ebp], 0
  00031	ff 15 00 00 00
	00		 call	 DWORD PTR __imp_?GetManager@?$CStringT@DV?$StrTraitMFC_DLL@DV?$ChTraitsCRT@D@ATL@@@@@ATL@@QBEPAUIAtlStringMgr@2@XZ
  00037	8b 7d 08	 mov	 edi, DWORD PTR ___$ReturnUdt$[ebp]
  0003a	8b cf		 mov	 ecx, edi
  0003c	50		 push	 eax
  0003d	ff 15 00 00 00
	00		 call	 DWORD PTR __imp_??0?$CStringT@DV?$StrTraitMFC_DLL@DV?$ChTraitsCRT@D@ATL@@@@@ATL@@QAE@PAUIAtlStringMgr@1@@Z
; File C:\Program Files (x86)\Microsoft Visual Studio\2019\Community\VC\Tools\MSVC\14.29.30133\atlmfc\include\atlsimpstr.h

; 519  : 		return( GetData()->nDataLength );

  00043	8b 45 10	 mov	 eax, DWORD PTR _str2$[ebp]
  00046	8b 16		 mov	 edx, DWORD PTR [esi]
; File C:\Program Files (x86)\Microsoft Visual Studio\2019\Community\VC\Tools\MSVC\14.29.30133\atlmfc\include\cstringt.h

; 2394 : 		return( strResult );

  00048	c7 45 fc 00 00
	00 00		 mov	 DWORD PTR __$EHRec$[ebp+8], 0
  0004f	c7 45 f0 01 00
	00 00		 mov	 DWORD PTR $T2[ebp], 1
; File C:\Program Files (x86)\Microsoft Visual Studio\2019\Community\VC\Tools\MSVC\14.29.30133\atlmfc\include\atlsimpstr.h

; 519  : 		return( GetData()->nDataLength );

  00056	8b 08		 mov	 ecx, DWORD PTR [eax]
; File C:\Program Files (x86)\Microsoft Visual Studio\2019\Community\VC\Tools\MSVC\14.29.30133\atlmfc\include\cstringt.h

; 2392 : 		CThisSimpleString::Concatenate( strResult, str1, str1.GetLength(), str2, str2.GetLength() );

  00058	ff 71 f4	 push	 DWORD PTR [ecx-12]
  0005b	51		 push	 ecx
  0005c	ff 72 f4	 push	 DWORD PTR [edx-12]
  0005f	52		 push	 edx
  00060	57		 push	 edi
  00061	ff 15 00 00 00
	00		 call	 DWORD PTR __imp_?Concatenate@?$CSimpleStringT@D$00@ATL@@KAXAAV12@PBDH1H@Z
  00067	83 c4 14	 add	 esp, 20			; 00000014H

; 2394 : 		return( strResult );

  0006a	8b c7		 mov	 eax, edi

; 2395 : 	}

  0006c	8b 4d f4	 mov	 ecx, DWORD PTR __$EHRec$[ebp]
  0006f	64 89 0d 00 00
	00 00		 mov	 DWORD PTR fs:0, ecx
  00076	59		 pop	 ecx
  00077	5f		 pop	 edi
  00078	5e		 pop	 esi
  00079	8b e5		 mov	 esp, ebp
  0007b	5d		 pop	 ebp
  0007c	c3		 ret	 0
_TEXT	ENDS
;	COMDAT text$x
text$x	SEGMENT
__unwindfunclet$??HATL@@YA?AV?$CStringT@DV?$StrTraitMFC_DLL@DV?$ChTraitsCRT@D@ATL@@@@@0@ABV10@0@Z$0:
  00000	8b 45 f0	 mov	 eax, DWORD PTR $T2[ebp]
  00003	83 e0 01	 and	 eax, 1
  00006	0f 84 0d 00 00
	00		 je	 $LN4@operator
  0000c	83 65 f0 fe	 and	 DWORD PTR $T2[ebp], -2	; fffffffeH
  00010	8b 4d 08	 mov	 ecx, DWORD PTR ___$ReturnUdt$[ebp]
  00013	ff 25 00 00 00
	00		 jmp	 DWORD PTR __imp_??1?$CStringT@DV?$StrTraitMFC_DLL@DV?$ChTraitsCRT@D@ATL@@@@@ATL@@QAE@XZ
$LN4@operator:
  00019	c3		 ret	 0
  0001a	cc		 int	 3
  0001b	cc		 int	 3
  0001c	cc		 int	 3
  0001d	cc		 int	 3
  0001e	cc		 int	 3
__ehhandler$??HATL@@YA?AV?$CStringT@DV?$StrTraitMFC_DLL@DV?$ChTraitsCRT@D@ATL@@@@@0@ABV10@0@Z:
  0001f	90		 npad	 1
  00020	90		 npad	 1
  00021	8b 54 24 08	 mov	 edx, DWORD PTR [esp+8]
  00025	8d 42 0c	 lea	 eax, DWORD PTR [edx+12]
  00028	8b 4a f0	 mov	 ecx, DWORD PTR [edx-16]
  0002b	33 c8		 xor	 ecx, eax
  0002d	e8 00 00 00 00	 call	 @__security_check_cookie@4
  00032	b8 00 00 00 00	 mov	 eax, OFFSET __ehfuncinfo$??HATL@@YA?AV?$CStringT@DV?$StrTraitMFC_DLL@DV?$ChTraitsCRT@D@ATL@@@@@0@ABV10@0@Z
  00037	e9 00 00 00 00	 jmp	 ___CxxFrameHandler3
text$x	ENDS
??HATL@@YA?AV?$CStringT@DV?$StrTraitMFC_DLL@DV?$ChTraitsCRT@D@ATL@@@@@0@ABV10@0@Z ENDP ; ATL::operator+
; Function compile flags: /Ogtp
; File C:\Program Files (x86)\Microsoft Visual Studio\2019\Community\VC\Tools\MSVC\14.29.30133\atlmfc\include\atlexcept.h
;	COMDAT ?AtlThrowImpl@ATL@@YGXJ@Z
_TEXT	SEGMENT
_hr$ = 8						; size = 4
?AtlThrowImpl@ATL@@YGXJ@Z PROC				; ATL::AtlThrowImpl, COMDAT

; 65   : {

  00000	55		 push	 ebp
  00001	8b ec		 mov	 ebp, esp

; 66   : 	ATLTRACE(atlTraceException, 0, _T("AtlThrow: hr = 0x%x\n"), hr );
; 67   : #ifdef _AFX
; 68   : 	if( hr == E_OUTOFMEMORY )

  00003	8b 45 08	 mov	 eax, DWORD PTR _hr$[ebp]
  00006	3d 0e 00 07 80	 cmp	 eax, -2147024882	; 8007000eH
  0000b	75 05		 jne	 SHORT $LN2@AtlThrowIm

; 69   : 	{
; 70   : 		AfxThrowMemoryException();

  0000d	e8 00 00 00 00	 call	 ?AfxThrowMemoryException@@YGXXZ ; AfxThrowMemoryException
$LN2@AtlThrowIm:

; 71   : 	}
; 72   : 	else
; 73   : 	{
; 74   : 		AfxThrowOleException( hr );

  00012	50		 push	 eax
  00013	e8 00 00 00 00	 call	 ?AfxThrowOleException@@YGXJ@Z ; AfxThrowOleException
$LN5@AtlThrowIm:
  00018	cc		 int	 3
?AtlThrowImpl@ATL@@YGXJ@Z ENDP				; ATL::AtlThrowImpl
_TEXT	ENDS
; Function compile flags: /Ogtp
; File C:\Program Files (x86)\Microsoft Visual Studio\2019\Community\VC\Tools\MSVC\14.29.30133\atlmfc\include\afx.inl
;	COMDAT ?Dump@CObject@@UBEXAAVCDumpContext@@@Z
_TEXT	SEGMENT
___formal$ = 8						; size = 4
?Dump@CObject@@UBEXAAVCDumpContext@@@Z PROC		; CObject::Dump, COMDAT
; _this$ = ecx

; 122  : 	{ /* no dumping in release builds */ }

  00000	c2 04 00	 ret	 4
?Dump@CObject@@UBEXAAVCDumpContext@@@Z ENDP		; CObject::Dump
_TEXT	ENDS
; Function compile flags: /Ogtp
; File C:\Program Files (x86)\Microsoft Visual Studio\2019\Community\VC\Tools\MSVC\14.29.30133\atlmfc\include\afx.inl
;	COMDAT ?AssertValid@CObject@@UBEXXZ
_TEXT	SEGMENT
?AssertValid@CObject@@UBEXXZ PROC			; CObject::AssertValid, COMDAT
; _this$ = ecx

; 120  : 	{ /* no asserts in release builds */ }

  00000	c2 00 00	 ret	 0
?AssertValid@CObject@@UBEXXZ ENDP			; CObject::AssertValid
_TEXT	ENDS
; Function compile flags: /Ogtp
; File C:\Program Files (x86)\Microsoft Visual Studio\2019\Community\VC\Tools\MSVC\14.29.30133\atlmfc\include\afx.inl
;	COMDAT ?Serialize@CObject@@UAEXAAVCArchive@@@Z
_TEXT	SEGMENT
___formal$ = 8						; size = 4
?Serialize@CObject@@UAEXAAVCArchive@@@Z PROC		; CObject::Serialize, COMDAT
; _this$ = ecx

; 106  : 	{ /* CObject does not serialize anything by default */ }

  00000	c2 04 00	 ret	 4
?Serialize@CObject@@UAEXAAVCArchive@@@Z ENDP		; CObject::Serialize
_TEXT	ENDS
; Function compile flags: /Ogtp
; File C:\Program Files (x86)\Microsoft Visual Studio\2019\Community\VC\Tools\MSVC\14.29.30133\atlmfc\include\afx.inl
;	COMDAT ??1CObject@@UAE@XZ
_TEXT	SEGMENT
??1CObject@@UAE@XZ PROC					; CObject::~CObject, COMDAT
; _this$ = ecx

; 104  : 	{ }

  00000	c2 00 00	 ret	 0
??1CObject@@UAE@XZ ENDP					; CObject::~CObject
_TEXT	ENDS
; Function compile flags: /Ogtp
; File D:\git\src\IBK\IBK_DRFN\ProjSrc\SrcChartEx\ChartAddIn\ChartAnalysisToolAddIn\Symbol\ElementSaverBuilder.cpp
;	COMDAT ?__empty_global_delete@@YAXPAXI@Z
_TEXT	SEGMENT
___formal$ = 8						; size = 4
___formal$ = 12						; size = 4
?__empty_global_delete@@YAXPAXI@Z PROC			; __empty_global_delete, COMDAT

  00000	c2 00 00	 ret	 0
?__empty_global_delete@@YAXPAXI@Z ENDP			; __empty_global_delete
_TEXT	ENDS
; Function compile flags: /Ogtp
; File D:\git\src\IBK\IBK_DRFN\ProjSrc\SrcChartEx\ChartAddIn\ChartAnalysisToolAddIn\Symbol\ElementSaverBuilder.cpp
;	COMDAT ?__empty_global_delete@@YAXPAX@Z
_TEXT	SEGMENT
___formal$ = 8						; size = 4
?__empty_global_delete@@YAXPAX@Z PROC			; __empty_global_delete, COMDAT

  00000	c2 00 00	 ret	 0
?__empty_global_delete@@YAXPAX@Z ENDP			; __empty_global_delete
_TEXT	ENDS
END
