; Listing generated by Microsoft (R) Optimizing Compiler Version 19.29.30145.0 

	TITLE	D:\git\src\IBK\IBK_DRFN\#DRfn-CS\_Obj\Symbol\MainSymbolImplementation.obj
	.686P
	.XMM
	include listing.inc
	.model	flat

INCLUDELIB MSVCRT
INCLUDELIB OLDNAMES

PUBLIC	?AssertValid@CObject@@UBEXXZ			; CObject::AssertValid
PUBLIC	?Dump@CObject@@UBEXAAVCDumpContext@@@Z		; CObject::Dump
PUBLIC	??_R0?AVCObject@@@8				; CObject `RTTI Type Descriptor'
PUBLIC	??_R3CObject@@8					; CObject::`RTTI Class Hierarchy Descriptor'
PUBLIC	??_R2CObject@@8					; CObject::`RTTI Base Class Array'
PUBLIC	??_R1A@?0A@EA@CObject@@8			; CObject::`RTTI Base Class Descriptor at (0,-1,0,64)'
PUBLIC	?Serialize@?$CMap@HHPAVCSymbolDlg@@PAV1@@@UAEXAAVCArchive@@@Z ; CMap<int,int,CSymbolDlg *,CSymbolDlg *>::Serialize
PUBLIC	??_7?$CMap@HHPAVCSymbolDlg@@PAV1@@@6B@		; CMap<int,int,CSymbolDlg *,CSymbolDlg *>::`vftable'
PUBLIC	??_G?$CMap@HHPAVCSymbolDlg@@PAV1@@@UAEPAXI@Z	; CMap<int,int,CSymbolDlg *,CSymbolDlg *>::`scalar deleting destructor'
PUBLIC	?Serialize@?$CMap@HHW4TOOLTYPE@CSymbolBaseData@@W412@@@UAEXAAVCArchive@@@Z ; CMap<int,int,enum CSymbolBaseData::TOOLTYPE,enum CSymbolBaseData::TOOLTYPE>::Serialize
PUBLIC	??_7?$CMap@HHW4TOOLTYPE@CSymbolBaseData@@W412@@@6B@ ; CMap<int,int,enum CSymbolBaseData::TOOLTYPE,enum CSymbolBaseData::TOOLTYPE>::`vftable'
PUBLIC	??_G?$CMap@HHW4TOOLTYPE@CSymbolBaseData@@W412@@@UAEPAXI@Z ; CMap<int,int,enum CSymbolBaseData::TOOLTYPE,enum CSymbolBaseData::TOOLTYPE>::`scalar deleting destructor'
PUBLIC	??_R4?$CMap@HHPAVCSymbolDlg@@PAV1@@@6B@		; CMap<int,int,CSymbolDlg *,CSymbolDlg *>::`RTTI Complete Object Locator'
PUBLIC	??_R0?AV?$CMap@HHPAVCSymbolDlg@@PAV1@@@@8	; CMap<int,int,CSymbolDlg *,CSymbolDlg *> `RTTI Type Descriptor'
PUBLIC	??_R3?$CMap@HHPAVCSymbolDlg@@PAV1@@@8		; CMap<int,int,CSymbolDlg *,CSymbolDlg *>::`RTTI Class Hierarchy Descriptor'
PUBLIC	??_R2?$CMap@HHPAVCSymbolDlg@@PAV1@@@8		; CMap<int,int,CSymbolDlg *,CSymbolDlg *>::`RTTI Base Class Array'
PUBLIC	??_R1A@?0A@EA@?$CMap@HHPAVCSymbolDlg@@PAV1@@@8	; CMap<int,int,CSymbolDlg *,CSymbolDlg *>::`RTTI Base Class Descriptor at (0,-1,0,64)'
PUBLIC	??_R4?$CMap@HHW4TOOLTYPE@CSymbolBaseData@@W412@@@6B@ ; CMap<int,int,enum CSymbolBaseData::TOOLTYPE,enum CSymbolBaseData::TOOLTYPE>::`RTTI Complete Object Locator'
PUBLIC	??_R0?AV?$CMap@HHW4TOOLTYPE@CSymbolBaseData@@W412@@@@8 ; CMap<int,int,enum CSymbolBaseData::TOOLTYPE,enum CSymbolBaseData::TOOLTYPE> `RTTI Type Descriptor'
PUBLIC	??_R3?$CMap@HHW4TOOLTYPE@CSymbolBaseData@@W412@@@8 ; CMap<int,int,enum CSymbolBaseData::TOOLTYPE,enum CSymbolBaseData::TOOLTYPE>::`RTTI Class Hierarchy Descriptor'
PUBLIC	??_R2?$CMap@HHW4TOOLTYPE@CSymbolBaseData@@W412@@@8 ; CMap<int,int,enum CSymbolBaseData::TOOLTYPE,enum CSymbolBaseData::TOOLTYPE>::`RTTI Base Class Array'
PUBLIC	??_R1A@?0A@EA@?$CMap@HHW4TOOLTYPE@CSymbolBaseData@@W412@@@8 ; CMap<int,int,enum CSymbolBaseData::TOOLTYPE,enum CSymbolBaseData::TOOLTYPE>::`RTTI Base Class Descriptor at (0,-1,0,64)'
EXTRN	?GetRuntimeClass@CObject@@UBEPAUCRuntimeClass@@XZ:PROC ; CObject::GetRuntimeClass
EXTRN	??_7type_info@@6B@:QWORD			; type_info::`vftable'
EXTRN	??_E?$CMap@HHPAVCSymbolDlg@@PAV1@@@UAEPAXI@Z:PROC ; CMap<int,int,CSymbolDlg *,CSymbolDlg *>::`vector deleting destructor'
EXTRN	??_E?$CMap@HHW4TOOLTYPE@CSymbolBaseData@@W412@@@UAEPAXI@Z:PROC ; CMap<int,int,enum CSymbolBaseData::TOOLTYPE,enum CSymbolBaseData::TOOLTYPE>::`vector deleting destructor'
;	COMDAT ??_R1A@?0A@EA@?$CMap@HHW4TOOLTYPE@CSymbolBaseData@@W412@@@8
rdata$r	SEGMENT
??_R1A@?0A@EA@?$CMap@HHW4TOOLTYPE@CSymbolBaseData@@W412@@@8 DD FLAT:??_R0?AV?$CMap@HHW4TOOLTYPE@CSymbolBaseData@@W412@@@@8 ; CMap<int,int,enum CSymbolBaseData::TOOLTYPE,enum CSymbolBaseData::TOOLTYPE>::`RTTI Base Class Descriptor at (0,-1,0,64)'
	DD	01H
	DD	00H
	DD	0ffffffffH
	DD	00H
	DD	040H
	DD	FLAT:??_R3?$CMap@HHW4TOOLTYPE@CSymbolBaseData@@W412@@@8
rdata$r	ENDS
;	COMDAT ??_R2?$CMap@HHW4TOOLTYPE@CSymbolBaseData@@W412@@@8
rdata$r	SEGMENT
??_R2?$CMap@HHW4TOOLTYPE@CSymbolBaseData@@W412@@@8 DD FLAT:??_R1A@?0A@EA@?$CMap@HHW4TOOLTYPE@CSymbolBaseData@@W412@@@8 ; CMap<int,int,enum CSymbolBaseData::TOOLTYPE,enum CSymbolBaseData::TOOLTYPE>::`RTTI Base Class Array'
	DD	FLAT:??_R1A@?0A@EA@CObject@@8
rdata$r	ENDS
;	COMDAT ??_R3?$CMap@HHW4TOOLTYPE@CSymbolBaseData@@W412@@@8
rdata$r	SEGMENT
??_R3?$CMap@HHW4TOOLTYPE@CSymbolBaseData@@W412@@@8 DD 00H ; CMap<int,int,enum CSymbolBaseData::TOOLTYPE,enum CSymbolBaseData::TOOLTYPE>::`RTTI Class Hierarchy Descriptor'
	DD	00H
	DD	02H
	DD	FLAT:??_R2?$CMap@HHW4TOOLTYPE@CSymbolBaseData@@W412@@@8
rdata$r	ENDS
;	COMDAT ??_R0?AV?$CMap@HHW4TOOLTYPE@CSymbolBaseData@@W412@@@@8
data$rs	SEGMENT
??_R0?AV?$CMap@HHW4TOOLTYPE@CSymbolBaseData@@W412@@@@8 DD FLAT:??_7type_info@@6B@ ; CMap<int,int,enum CSymbolBaseData::TOOLTYPE,enum CSymbolBaseData::TOOLTYPE> `RTTI Type Descriptor'
	DD	00H
	DB	'.?AV?$CMap@HHW4TOOLTYPE@CSymbolBaseData@@W412@@@', 00H
data$rs	ENDS
;	COMDAT ??_R4?$CMap@HHW4TOOLTYPE@CSymbolBaseData@@W412@@@6B@
rdata$r	SEGMENT
??_R4?$CMap@HHW4TOOLTYPE@CSymbolBaseData@@W412@@@6B@ DD 00H ; CMap<int,int,enum CSymbolBaseData::TOOLTYPE,enum CSymbolBaseData::TOOLTYPE>::`RTTI Complete Object Locator'
	DD	00H
	DD	00H
	DD	FLAT:??_R0?AV?$CMap@HHW4TOOLTYPE@CSymbolBaseData@@W412@@@@8
	DD	FLAT:??_R3?$CMap@HHW4TOOLTYPE@CSymbolBaseData@@W412@@@8
rdata$r	ENDS
;	COMDAT ??_R1A@?0A@EA@?$CMap@HHPAVCSymbolDlg@@PAV1@@@8
rdata$r	SEGMENT
??_R1A@?0A@EA@?$CMap@HHPAVCSymbolDlg@@PAV1@@@8 DD FLAT:??_R0?AV?$CMap@HHPAVCSymbolDlg@@PAV1@@@@8 ; CMap<int,int,CSymbolDlg *,CSymbolDlg *>::`RTTI Base Class Descriptor at (0,-1,0,64)'
	DD	01H
	DD	00H
	DD	0ffffffffH
	DD	00H
	DD	040H
	DD	FLAT:??_R3?$CMap@HHPAVCSymbolDlg@@PAV1@@@8
rdata$r	ENDS
;	COMDAT ??_R2?$CMap@HHPAVCSymbolDlg@@PAV1@@@8
rdata$r	SEGMENT
??_R2?$CMap@HHPAVCSymbolDlg@@PAV1@@@8 DD FLAT:??_R1A@?0A@EA@?$CMap@HHPAVCSymbolDlg@@PAV1@@@8 ; CMap<int,int,CSymbolDlg *,CSymbolDlg *>::`RTTI Base Class Array'
	DD	FLAT:??_R1A@?0A@EA@CObject@@8
rdata$r	ENDS
;	COMDAT ??_R3?$CMap@HHPAVCSymbolDlg@@PAV1@@@8
rdata$r	SEGMENT
??_R3?$CMap@HHPAVCSymbolDlg@@PAV1@@@8 DD 00H		; CMap<int,int,CSymbolDlg *,CSymbolDlg *>::`RTTI Class Hierarchy Descriptor'
	DD	00H
	DD	02H
	DD	FLAT:??_R2?$CMap@HHPAVCSymbolDlg@@PAV1@@@8
rdata$r	ENDS
;	COMDAT ??_R0?AV?$CMap@HHPAVCSymbolDlg@@PAV1@@@@8
data$rs	SEGMENT
??_R0?AV?$CMap@HHPAVCSymbolDlg@@PAV1@@@@8 DD FLAT:??_7type_info@@6B@ ; CMap<int,int,CSymbolDlg *,CSymbolDlg *> `RTTI Type Descriptor'
	DD	00H
	DB	'.?AV?$CMap@HHPAVCSymbolDlg@@PAV1@@@', 00H
data$rs	ENDS
;	COMDAT ??_R4?$CMap@HHPAVCSymbolDlg@@PAV1@@@6B@
rdata$r	SEGMENT
??_R4?$CMap@HHPAVCSymbolDlg@@PAV1@@@6B@ DD 00H		; CMap<int,int,CSymbolDlg *,CSymbolDlg *>::`RTTI Complete Object Locator'
	DD	00H
	DD	00H
	DD	FLAT:??_R0?AV?$CMap@HHPAVCSymbolDlg@@PAV1@@@@8
	DD	FLAT:??_R3?$CMap@HHPAVCSymbolDlg@@PAV1@@@8
rdata$r	ENDS
;	COMDAT ??_7?$CMap@HHW4TOOLTYPE@CSymbolBaseData@@W412@@@6B@
CONST	SEGMENT
??_7?$CMap@HHW4TOOLTYPE@CSymbolBaseData@@W412@@@6B@ DD FLAT:??_R4?$CMap@HHW4TOOLTYPE@CSymbolBaseData@@W412@@@6B@ ; CMap<int,int,enum CSymbolBaseData::TOOLTYPE,enum CSymbolBaseData::TOOLTYPE>::`vftable'
	DD	FLAT:?GetRuntimeClass@CObject@@UBEPAUCRuntimeClass@@XZ
	DD	FLAT:??_E?$CMap@HHW4TOOLTYPE@CSymbolBaseData@@W412@@@UAEPAXI@Z
	DD	FLAT:?Serialize@?$CMap@HHW4TOOLTYPE@CSymbolBaseData@@W412@@@UAEXAAVCArchive@@@Z
	DD	FLAT:?AssertValid@CObject@@UBEXXZ
	DD	FLAT:?Dump@CObject@@UBEXAAVCDumpContext@@@Z
CONST	ENDS
;	COMDAT ??_7?$CMap@HHPAVCSymbolDlg@@PAV1@@@6B@
CONST	SEGMENT
??_7?$CMap@HHPAVCSymbolDlg@@PAV1@@@6B@ DD FLAT:??_R4?$CMap@HHPAVCSymbolDlg@@PAV1@@@6B@ ; CMap<int,int,CSymbolDlg *,CSymbolDlg *>::`vftable'
	DD	FLAT:?GetRuntimeClass@CObject@@UBEPAUCRuntimeClass@@XZ
	DD	FLAT:??_E?$CMap@HHPAVCSymbolDlg@@PAV1@@@UAEPAXI@Z
	DD	FLAT:?Serialize@?$CMap@HHPAVCSymbolDlg@@PAV1@@@UAEXAAVCArchive@@@Z
	DD	FLAT:?AssertValid@CObject@@UBEXXZ
	DD	FLAT:?Dump@CObject@@UBEXAAVCDumpContext@@@Z
CONST	ENDS
;	COMDAT ??_R1A@?0A@EA@CObject@@8
rdata$r	SEGMENT
??_R1A@?0A@EA@CObject@@8 DD FLAT:??_R0?AVCObject@@@8	; CObject::`RTTI Base Class Descriptor at (0,-1,0,64)'
	DD	00H
	DD	00H
	DD	0ffffffffH
	DD	00H
	DD	040H
	DD	FLAT:??_R3CObject@@8
rdata$r	ENDS
;	COMDAT ??_R2CObject@@8
rdata$r	SEGMENT
??_R2CObject@@8 DD FLAT:??_R1A@?0A@EA@CObject@@8	; CObject::`RTTI Base Class Array'
rdata$r	ENDS
;	COMDAT ??_R3CObject@@8
rdata$r	SEGMENT
??_R3CObject@@8 DD 00H					; CObject::`RTTI Class Hierarchy Descriptor'
	DD	00H
	DD	01H
	DD	FLAT:??_R2CObject@@8
rdata$r	ENDS
;	COMDAT ??_R0?AVCObject@@@8
data$rs	SEGMENT
??_R0?AVCObject@@@8 DD FLAT:??_7type_info@@6B@		; CObject `RTTI Type Descriptor'
	DD	00H
	DB	'.?AVCObject@@', 00H
data$rs	ENDS
PUBLIC	?__empty_global_delete@@YAXPAX@Z		; __empty_global_delete
PUBLIC	?__empty_global_delete@@YAXPAXI@Z		; __empty_global_delete
PUBLIC	??1CObject@@UAE@XZ				; CObject::~CObject
PUBLIC	??3CObject@@SGXPAX@Z				; CObject::operator delete
PUBLIC	?Serialize@CObject@@UAEXAAVCArchive@@@Z		; CObject::Serialize
PUBLIC	??0?$CList@PAVCDrawingSymbol@@PAV1@@@QAE@H@Z	; CList<CDrawingSymbol *,CDrawingSymbol *>::CList<CDrawingSymbol *,CDrawingSymbol *>
PUBLIC	?AddTail@?$CList@PAVCDrawingSymbol@@PAV1@@@QAEPAU__POSITION@@PAVCDrawingSymbol@@@Z ; CList<CDrawingSymbol *,CDrawingSymbol *>::AddTail
PUBLIC	?RemoveAll@?$CList@PAVCDrawingSymbol@@PAV1@@@QAEXXZ ; CList<CDrawingSymbol *,CDrawingSymbol *>::RemoveAll
PUBLIC	?NewNode@?$CList@PAVCDrawingSymbol@@PAV1@@@IAEPAUCNode@1@PAU21@0@Z ; CList<CDrawingSymbol *,CDrawingSymbol *>::NewNode
PUBLIC	??1?$CList@PAVCDrawingSymbol@@PAV1@@@UAE@XZ	; CList<CDrawingSymbol *,CDrawingSymbol *>::~CList<CDrawingSymbol *,CDrawingSymbol *>
PUBLIC	?Serialize@?$CList@PAVCDrawingSymbol@@PAV1@@@UAEXAAVCArchive@@@Z ; CList<CDrawingSymbol *,CDrawingSymbol *>::Serialize
PUBLIC	??_G?$CList@PAVCDrawingSymbol@@PAV1@@@UAEPAXI@Z	; CList<CDrawingSymbol *,CDrawingSymbol *>::`scalar deleting destructor'
PUBLIC	??1ILPCSTR133101@@QAE@XZ			; ILPCSTR133101::~ILPCSTR133101
PUBLIC	??0?$CList@PAVCUndo_Redo_Info@@PAV1@@@QAE@H@Z	; CList<CUndo_Redo_Info *,CUndo_Redo_Info *>::CList<CUndo_Redo_Info *,CUndo_Redo_Info *>
PUBLIC	?AddTail@?$CList@PAVCUndo_Redo_Info@@PAV1@@@QAEPAU__POSITION@@PAVCUndo_Redo_Info@@@Z ; CList<CUndo_Redo_Info *,CUndo_Redo_Info *>::AddTail
PUBLIC	?RemoveAll@?$CList@PAVCUndo_Redo_Info@@PAV1@@@QAEXXZ ; CList<CUndo_Redo_Info *,CUndo_Redo_Info *>::RemoveAll
PUBLIC	?NewNode@?$CList@PAVCUndo_Redo_Info@@PAV1@@@IAEPAUCNode@1@PAU21@0@Z ; CList<CUndo_Redo_Info *,CUndo_Redo_Info *>::NewNode
PUBLIC	??1?$CList@PAVCUndo_Redo_Info@@PAV1@@@UAE@XZ	; CList<CUndo_Redo_Info *,CUndo_Redo_Info *>::~CList<CUndo_Redo_Info *,CUndo_Redo_Info *>
PUBLIC	?Serialize@?$CList@PAVCUndo_Redo_Info@@PAV1@@@UAEXAAVCArchive@@@Z ; CList<CUndo_Redo_Info *,CUndo_Redo_Info *>::Serialize
PUBLIC	??_G?$CList@PAVCUndo_Redo_Info@@PAV1@@@UAEPAXI@Z ; CList<CUndo_Redo_Info *,CUndo_Redo_Info *>::`scalar deleting destructor'
PUBLIC	??0CMainSymbolImplementation@@QAE@XZ		; CMainSymbolImplementation::CMainSymbolImplementation
PUBLIC	??1CMainSymbolImplementation@@UAE@XZ		; CMainSymbolImplementation::~CMainSymbolImplementation
PUBLIC	?SetMainBlock_Object@CMainSymbolImplementation@@QAEXPAUIChartManager133101@@PAUIChartOCX133101@@@Z ; CMainSymbolImplementation::SetMainBlock_Object
PUBLIC	?InitializeBlock@CMainSymbolImplementation@@QAEXPAVCDC@@PAVCWnd@@@Z ; CMainSymbolImplementation::InitializeBlock
PUBLIC	?SetCurrentSymbolTool@CMainSymbolImplementation@@QAEXW4SYMBOLTOOL@CSymbol@@@Z ; CMainSymbolImplementation::SetCurrentSymbolTool
PUBLIC	?SetShapeDrawingType@CMainSymbolImplementation@@QAEXABKABH1AB_N@Z ; CMainSymbolImplementation::SetShapeDrawingType
PUBLIC	?CreateSymbolDlg@CMainSymbolImplementation@@QAEXXZ ; CMainSymbolImplementation::CreateSymbolDlg
PUBLIC	?OnLButtonDown@CMainSymbolImplementation@@QAE_NPAVCDC@@ABVCPoint@@@Z ; CMainSymbolImplementation::OnLButtonDown
PUBLIC	?OnLButtonDbClk@CMainSymbolImplementation@@QAE_NPAVCDC@@ABVCPoint@@@Z ; CMainSymbolImplementation::OnLButtonDbClk
PUBLIC	?OnLButtonUp@CMainSymbolImplementation@@QAE_NPAVCDC@@ABVCPoint@@@Z ; CMainSymbolImplementation::OnLButtonUp
PUBLIC	?OnMouseMove@CMainSymbolImplementation@@QAE_NPAVCDC@@ABIABVCPoint@@@Z ; CMainSymbolImplementation::OnMouseMove
PUBLIC	?OnRButtonUp@CMainSymbolImplementation@@QAE_NABVCPoint@@@Z ; CMainSymbolImplementation::OnRButtonUp
PUBLIC	?OnRButtonMenu@CMainSymbolImplementation@@QAE_NW4ELEMENTMENU@CMenuType@@I@Z ; CMainSymbolImplementation::OnRButtonMenu
PUBLIC	?OnDraw@CMainSymbolImplementation@@QAEXPAVCDC@@@Z ; CMainSymbolImplementation::OnDraw
PUBLIC	?OnSetColor@CMainSymbolImplementation@@QAEXABK@Z ; CMainSymbolImplementation::OnSetColor
PUBLIC	?InsertBlockIndex@CMainSymbolImplementation@@QAE_NABVCBlockIndex@@@Z ; CMainSymbolImplementation::InsertBlockIndex
PUBLIC	?SetModifiedBlockIndexs@CMainSymbolImplementation@@QAEXABVCBlockIndex@@0@Z ; CMainSymbolImplementation::SetModifiedBlockIndexs
PUBLIC	?DeleteCurrentSymbols@CMainSymbolImplementation@@QAE_NXZ ; CMainSymbolImplementation::DeleteCurrentSymbols
PUBLIC	?DeleteAllSymbols@CMainSymbolImplementation@@QAEXXZ ; CMainSymbolImplementation::DeleteAllSymbols
PUBLIC	?DeleteAllSymbolsInBlock@CMainSymbolImplementation@@QAEXABVCBlockIndex@@@Z ; CMainSymbolImplementation::DeleteAllSymbolsInBlock
PUBLIC	?DeleteSymbolDlg@CMainSymbolImplementation@@QAEXXZ ; CMainSymbolImplementation::DeleteSymbolDlg
PUBLIC	?Initial@CMainSymbolImplementation@@QAEXXZ	; CMainSymbolImplementation::Initial
PUBLIC	?GetSavedSymbolsData@CMainSymbolImplementation@@QAE?AV?$CStringT@DV?$StrTraitMFC_DLL@DV?$ChTraitsCRT@D@ATL@@@@@ATL@@XZ ; CMainSymbolImplementation::GetSavedSymbolsData
PUBLIC	?BuildSymbolsFromString@CMainSymbolImplementation@@QAEXABV?$CStringT@DV?$StrTraitMFC_DLL@DV?$ChTraitsCRT@D@ATL@@@@@ATL@@@Z ; CMainSymbolImplementation::BuildSymbolsFromString
PUBLIC	?SetFilePath@CMainSymbolImplementation@@QAEXABV?$CStringT@DV?$StrTraitMFC_DLL@DV?$ChTraitsCRT@D@ATL@@@@@ATL@@@Z ; CMainSymbolImplementation::SetFilePath
PUBLIC	?GetToolType@CMainSymbolImplementation@@QAE?AW4SYMBOLTOOL@CSymbol@@XZ ; CMainSymbolImplementation::GetToolType
PUBLIC	?GetSelectedToolType@CMainSymbolImplementation@@QAE?AW4SYMBOLTOOL@CSymbol@@XZ ; CMainSymbolImplementation::GetSelectedToolType
PUBLIC	?DeleteLastSymbol@CMainSymbolImplementation@@QAEXXZ ; CMainSymbolImplementation::DeleteLastSymbol
PUBLIC	?DeleteSymbolPos@CMainSymbolImplementation@@QAE_NJ@Z ; CMainSymbolImplementation::DeleteSymbolPos
PUBLIC	?UndoElement@CMainSymbolImplementation@@QAE_NJ@Z ; CMainSymbolImplementation::UndoElement
PUBLIC	?RedoElement@CMainSymbolImplementation@@QAE_NJ@Z ; CMainSymbolImplementation::RedoElement
PUBLIC	?SetElementCopy@CMainSymbolImplementation@@QAEXXZ ; CMainSymbolImplementation::SetElementCopy
PUBLIC	?DrawSymbolTool@CMainSymbolImplementation@@QAEXPAVCDC@@@Z ; CMainSymbolImplementation::DrawSymbolTool
PUBLIC	?GetDrawingTotalRegion@CMainSymbolImplementation@@QAE?AVCRect@@VCPoint@@@Z ; CMainSymbolImplementation::GetDrawingTotalRegion
PUBLIC	?ChangeAllSymbolsColor@CMainSymbolImplementation@@QAEXABK0@Z ; CMainSymbolImplementation::ChangeAllSymbolsColor
PUBLIC	?RecalcSymbolXPoint@CMainSymbolImplementation@@QAE_NPBDH@Z ; CMainSymbolImplementation::RecalcSymbolXPoint
PUBLIC	?RecalcElementListXPoint@CMainSymbolImplementation@@QAEXHHHPAUIPacket133101@@@Z ; CMainSymbolImplementation::RecalcElementListXPoint
PUBLIC	?SetXScaleDrawType@CMainSymbolImplementation@@QAEXW4HORZSCALEDRAWERTYPE@CScaleBaseData@@@Z ; CMainSymbolImplementation::SetXScaleDrawType
PUBLIC	?GetXScaleDrawType@CMainSymbolImplementation@@QAE?AW4HORZSCALEDRAWERTYPE@CScaleBaseData@@XZ ; CMainSymbolImplementation::GetXScaleDrawType
PUBLIC	?InitSymbolDlg@CMainSymbolImplementation@@SAXXZ	; CMainSymbolImplementation::InitSymbolDlg
PUBLIC	?DestSymbolDlg@CMainSymbolImplementation@@SAXXZ	; CMainSymbolImplementation::DestSymbolDlg
PUBLIC	?IsExistBuletDlg@CMainSymbolImplementation@@SAHXZ ; CMainSymbolImplementation::IsExistBuletDlg
PUBLIC	?SetSymbolType@CMainSymbolImplementation@@SAXW4TOOLTYPE@CSymbolBaseData@@@Z ; CMainSymbolImplementation::SetSymbolType
PUBLIC	?IsMyMouse@CMainSymbolImplementation@@AAE_NXZ	; CMainSymbolImplementation::IsMyMouse
PUBLIC	?GetSymbolTool@CMainSymbolImplementation@@AAEXXZ ; CMainSymbolImplementation::GetSymbolTool
PUBLIC	?SetColor@CMainSymbolImplementation@@AAE_NABK@Z	; CMainSymbolImplementation::SetColor
PUBLIC	??_GCMainSymbolImplementation@@UAEPAXI@Z	; CMainSymbolImplementation::`scalar deleting destructor'
PUBLIC	??0?$CMap@HHPAVCSymbolDlg@@PAV1@@@QAE@H@Z	; CMap<int,int,CSymbolDlg *,CSymbolDlg *>::CMap<int,int,CSymbolDlg *,CSymbolDlg *>
PUBLIC	?Lookup@?$CMap@HHPAVCSymbolDlg@@PAV1@@@QBEHHAAPAVCSymbolDlg@@@Z ; CMap<int,int,CSymbolDlg *,CSymbolDlg *>::Lookup
PUBLIC	??A?$CMap@HHPAVCSymbolDlg@@PAV1@@@QAEAAPAVCSymbolDlg@@H@Z ; CMap<int,int,CSymbolDlg *,CSymbolDlg *>::operator[]
PUBLIC	?SetAt@?$CMap@HHPAVCSymbolDlg@@PAV1@@@QAEXHPAVCSymbolDlg@@@Z ; CMap<int,int,CSymbolDlg *,CSymbolDlg *>::SetAt
PUBLIC	?RemoveAll@?$CMap@HHPAVCSymbolDlg@@PAV1@@@QAEXXZ ; CMap<int,int,CSymbolDlg *,CSymbolDlg *>::RemoveAll
PUBLIC	?GetNextAssoc@?$CMap@HHPAVCSymbolDlg@@PAV1@@@QBEXAAPAU__POSITION@@AAHAAPAVCSymbolDlg@@@Z ; CMap<int,int,CSymbolDlg *,CSymbolDlg *>::GetNextAssoc
PUBLIC	?InitHashTable@?$CMap@HHPAVCSymbolDlg@@PAV1@@@QAEXIH@Z ; CMap<int,int,CSymbolDlg *,CSymbolDlg *>::InitHashTable
PUBLIC	?NewAssoc@?$CMap@HHPAVCSymbolDlg@@PAV1@@@IAEPAVCAssoc@1@H@Z ; CMap<int,int,CSymbolDlg *,CSymbolDlg *>::NewAssoc
PUBLIC	?GetAssocAt@?$CMap@HHPAVCSymbolDlg@@PAV1@@@IBEPAVCAssoc@1@HAAI0@Z ; CMap<int,int,CSymbolDlg *,CSymbolDlg *>::GetAssocAt
PUBLIC	??1?$CMap@HHPAVCSymbolDlg@@PAV1@@@UAE@XZ	; CMap<int,int,CSymbolDlg *,CSymbolDlg *>::~CMap<int,int,CSymbolDlg *,CSymbolDlg *>
PUBLIC	??0?$CMap@HHW4TOOLTYPE@CSymbolBaseData@@W412@@@QAE@H@Z ; CMap<int,int,enum CSymbolBaseData::TOOLTYPE,enum CSymbolBaseData::TOOLTYPE>::CMap<int,int,enum CSymbolBaseData::TOOLTYPE,enum CSymbolBaseData::TOOLTYPE>
PUBLIC	?Lookup@?$CMap@HHW4TOOLTYPE@CSymbolBaseData@@W412@@@QBEHHAAW4TOOLTYPE@CSymbolBaseData@@@Z ; CMap<int,int,enum CSymbolBaseData::TOOLTYPE,enum CSymbolBaseData::TOOLTYPE>::Lookup
PUBLIC	??A?$CMap@HHW4TOOLTYPE@CSymbolBaseData@@W412@@@QAEAAW4TOOLTYPE@CSymbolBaseData@@H@Z ; CMap<int,int,enum CSymbolBaseData::TOOLTYPE,enum CSymbolBaseData::TOOLTYPE>::operator[]
PUBLIC	?SetAt@?$CMap@HHW4TOOLTYPE@CSymbolBaseData@@W412@@@QAEXHW4TOOLTYPE@CSymbolBaseData@@@Z ; CMap<int,int,enum CSymbolBaseData::TOOLTYPE,enum CSymbolBaseData::TOOLTYPE>::SetAt
PUBLIC	?RemoveAll@?$CMap@HHW4TOOLTYPE@CSymbolBaseData@@W412@@@QAEXXZ ; CMap<int,int,enum CSymbolBaseData::TOOLTYPE,enum CSymbolBaseData::TOOLTYPE>::RemoveAll
PUBLIC	?InitHashTable@?$CMap@HHW4TOOLTYPE@CSymbolBaseData@@W412@@@QAEXIH@Z ; CMap<int,int,enum CSymbolBaseData::TOOLTYPE,enum CSymbolBaseData::TOOLTYPE>::InitHashTable
PUBLIC	?NewAssoc@?$CMap@HHW4TOOLTYPE@CSymbolBaseData@@W412@@@IAEPAVCAssoc@1@H@Z ; CMap<int,int,enum CSymbolBaseData::TOOLTYPE,enum CSymbolBaseData::TOOLTYPE>::NewAssoc
PUBLIC	?GetAssocAt@?$CMap@HHW4TOOLTYPE@CSymbolBaseData@@W412@@@IBEPAVCAssoc@1@HAAI0@Z ; CMap<int,int,enum CSymbolBaseData::TOOLTYPE,enum CSymbolBaseData::TOOLTYPE>::GetAssocAt
PUBLIC	??1?$CMap@HHW4TOOLTYPE@CSymbolBaseData@@W412@@@UAE@XZ ; CMap<int,int,enum CSymbolBaseData::TOOLTYPE,enum CSymbolBaseData::TOOLTYPE>::~CMap<int,int,enum CSymbolBaseData::TOOLTYPE,enum CSymbolBaseData::TOOLTYPE>
PUBLIC	??$SerializeElements@PAVCDrawingSymbol@@@@YGXAAVCArchive@@PAPAVCDrawingSymbol@@H@Z ; SerializeElements<CDrawingSymbol *>
PUBLIC	??$SerializeElements@PAVCUndo_Redo_Info@@@@YGXAAVCArchive@@PAPAVCUndo_Redo_Info@@H@Z ; SerializeElements<CUndo_Redo_Info *>
PUBLIC	??$SerializeElements@H@@YGXAAVCArchive@@PAHH@Z	; SerializeElements<int>
PUBLIC	??$SerializeElements@PAVCSymbolDlg@@@@YGXAAVCArchive@@PAPAVCSymbolDlg@@H@Z ; SerializeElements<CSymbolDlg *>
PUBLIC	??$SerializeElements@W4TOOLTYPE@CSymbolBaseData@@@@YGXAAVCArchive@@PAW4TOOLTYPE@CSymbolBaseData@@H@Z ; SerializeElements<enum CSymbolBaseData::TOOLTYPE>
PUBLIC	??$CompareElements@HH@@YGHPBH0@Z		; CompareElements<int,int>
PUBLIC	??_7?$CList@PAVCDrawingSymbol@@PAV1@@@6B@	; CList<CDrawingSymbol *,CDrawingSymbol *>::`vftable'
PUBLIC	??_7?$CList@PAVCUndo_Redo_Info@@PAV1@@@6B@	; CList<CUndo_Redo_Info *,CUndo_Redo_Info *>::`vftable'
PUBLIC	?g_mapSymbolDlg@CMainSymbolImplementation@@1V?$CMap@HHPAVCSymbolDlg@@PAV1@@@A ; CMainSymbolImplementation::g_mapSymbolDlg
PUBLIC	?g_mapSymbolType@CMainSymbolImplementation@@1V?$CMap@HHW4TOOLTYPE@CSymbolBaseData@@W412@@@A ; CMainSymbolImplementation::g_mapSymbolType
PUBLIC	??_7CMainSymbolImplementation@@6B@		; CMainSymbolImplementation::`vftable'
PUBLIC	??_C@_06MLGKKOBC@RDATET@			; `string'
PUBLIC	??_R4CMainSymbolImplementation@@6B@		; CMainSymbolImplementation::`RTTI Complete Object Locator'
PUBLIC	??_R0?AVCMainSymbolImplementation@@@8		; CMainSymbolImplementation `RTTI Type Descriptor'
PUBLIC	??_R3CMainSymbolImplementation@@8		; CMainSymbolImplementation::`RTTI Class Hierarchy Descriptor'
PUBLIC	??_R2CMainSymbolImplementation@@8		; CMainSymbolImplementation::`RTTI Base Class Array'
PUBLIC	??_R1A@?0A@EA@CMainSymbolImplementation@@8	; CMainSymbolImplementation::`RTTI Base Class Descriptor at (0,-1,0,64)'
PUBLIC	??_R4?$CList@PAVCDrawingSymbol@@PAV1@@@6B@	; CList<CDrawingSymbol *,CDrawingSymbol *>::`RTTI Complete Object Locator'
PUBLIC	??_R0?AV?$CList@PAVCDrawingSymbol@@PAV1@@@@8	; CList<CDrawingSymbol *,CDrawingSymbol *> `RTTI Type Descriptor'
PUBLIC	??_R3?$CList@PAVCDrawingSymbol@@PAV1@@@8	; CList<CDrawingSymbol *,CDrawingSymbol *>::`RTTI Class Hierarchy Descriptor'
PUBLIC	??_R2?$CList@PAVCDrawingSymbol@@PAV1@@@8	; CList<CDrawingSymbol *,CDrawingSymbol *>::`RTTI Base Class Array'
PUBLIC	??_R1A@?0A@EA@?$CList@PAVCDrawingSymbol@@PAV1@@@8 ; CList<CDrawingSymbol *,CDrawingSymbol *>::`RTTI Base Class Descriptor at (0,-1,0,64)'
PUBLIC	??_R4?$CList@PAVCUndo_Redo_Info@@PAV1@@@6B@	; CList<CUndo_Redo_Info *,CUndo_Redo_Info *>::`RTTI Complete Object Locator'
PUBLIC	??_R0?AV?$CList@PAVCUndo_Redo_Info@@PAV1@@@@8	; CList<CUndo_Redo_Info *,CUndo_Redo_Info *> `RTTI Type Descriptor'
PUBLIC	??_R3?$CList@PAVCUndo_Redo_Info@@PAV1@@@8	; CList<CUndo_Redo_Info *,CUndo_Redo_Info *>::`RTTI Class Hierarchy Descriptor'
PUBLIC	??_R2?$CList@PAVCUndo_Redo_Info@@PAV1@@@8	; CList<CUndo_Redo_Info *,CUndo_Redo_Info *>::`RTTI Base Class Array'
PUBLIC	??_R1A@?0A@EA@?$CList@PAVCUndo_Redo_Info@@PAV1@@@8 ; CList<CUndo_Redo_Info *,CUndo_Redo_Info *>::`RTTI Base Class Descriptor at (0,-1,0,64)'
PUBLIC	__real@fff0000000000000
EXTRN	??2@YAPAXI@Z:PROC				; operator new
EXTRN	??3@YAXPAX@Z:PROC				; operator delete
EXTRN	??3@YAXPAXI@Z:PROC				; operator delete
EXTRN	?__global_delete@@YAXPAXI@Z:PROC		; __global_delete
EXTRN	??_U@YAPAXI@Z:PROC				; operator new[]
EXTRN	??_V@YAXPAX@Z:PROC				; operator delete[]
EXTRN	_atexit:PROC
EXTRN	___std_terminate:PROC
EXTRN	__imp__SendMessageA@16:PROC
EXTRN	__imp__GetFocus@0:PROC
EXTRN	__imp__CopyRect@8:PROC
EXTRN	?AfxThrowInvalidArgException@@YGXXZ:PROC	; AfxThrowInvalidArgException
EXTRN	?AfxThrowArchiveException@@YGXHPBD@Z:PROC	; AfxThrowArchiveException
EXTRN	__imp_??0?$CStringT@DV?$StrTraitMFC_DLL@DV?$ChTraitsCRT@D@ATL@@@@@ATL@@QAE@XZ:PROC
EXTRN	__imp_??0?$CStringT@DV?$StrTraitMFC_DLL@DV?$ChTraitsCRT@D@ATL@@@@@ATL@@QAE@PBD@Z:PROC
EXTRN	__imp_??1?$CStringT@DV?$StrTraitMFC_DLL@DV?$ChTraitsCRT@D@ATL@@@@@ATL@@QAE@XZ:PROC
EXTRN	__imp_??4?$CStringT@DV?$StrTraitMFC_DLL@DV?$ChTraitsCRT@D@ATL@@@@@ATL@@QAEAAV01@PBD@Z:PROC
EXTRN	__imp_?Compare@?$CStringT@DV?$StrTraitMFC_DLL@DV?$ChTraitsCRT@D@ATL@@@@@ATL@@QBEHPBD@Z:PROC
EXTRN	?Read@CArchive@@QAEIPAXI@Z:PROC			; CArchive::Read
EXTRN	?Write@CArchive@@QAEXPBXI@Z:PROC		; CArchive::Write
EXTRN	?ReadCount@CArchive@@QAEKXZ:PROC		; CArchive::ReadCount
EXTRN	?WriteCount@CArchive@@QAEXK@Z:PROC		; CArchive::WriteCount
EXTRN	?Create@CPlex@@SGPAU1@AAPAU1@II@Z:PROC		; CPlex::Create
EXTRN	?FreeDataChain@CPlex@@QAEXXZ:PROC		; CPlex::FreeDataChain
EXTRN	?FromHandle@CWnd@@SGPAV1@PAUHWND__@@@Z:PROC	; CWnd::FromHandle
EXTRN	?ShowWindow@CWnd@@QAEHH@Z:PROC			; CWnd::ShowWindow
EXTRN	??0CSymbolDlg@@QAE@PAVCMainSymbolImplementation@@PAVCSymbolData@@PAVCWnd@@@Z:PROC ; CSymbolDlg::CSymbolDlg
EXTRN	?SetData@CSymbolDlg@@QAEXPAVCSymbolData@@@Z:PROC ; CSymbolDlg::SetData
EXTRN	?IsSymbolDlgClose@CSymbolDlg@@QAE_NXZ:PROC	; CSymbolDlg::IsSymbolDlgClose
EXTRN	?SetColor@CPropertiesData_Figure@@QAEXABK@Z:PROC ; CPropertiesData_Figure::SetColor
EXTRN	?SetStyle@CPropertiesData_Figure@@QAEXABH@Z:PROC ; CPropertiesData_Figure::SetStyle
EXTRN	?SetWeight@CPropertiesData_Figure@@QAEXABH@Z:PROC ; CPropertiesData_Figure::SetWeight
EXTRN	?SetFillState@CPropertiesData_Figure@@QAEX_N@Z:PROC ; CPropertiesData_Figure::SetFillState
EXTRN	??_E?$CList@PAVCDrawingSymbol@@PAV1@@@UAEPAXI@Z:PROC ; CList<CDrawingSymbol *,CDrawingSymbol *>::`vector deleting destructor'
EXTRN	?DeleteLastSymbol@CElementTree@@QAEXXZ:PROC	; CElementTree::DeleteLastSymbol
EXTRN	?DeleteSymbolPos@CElementTree@@QAE_NJH@Z:PROC	; CElementTree::DeleteSymbolPos
EXTRN	?GetTail@CElementTree@@QAEPAVCDrawingSymbol@@XZ:PROC ; CElementTree::GetTail
EXTRN	?GetElementListOfBlock@CElementTree@@QAEXABVCBlockIndex@@AAV?$CList@PAVCDrawingSymbol@@PAV1@@@@Z:PROC ; CElementTree::GetElementListOfBlock
EXTRN	?DeleteCurrentDrawingSymbol@CElementTree@@QAE_NPBVCDrawingSymbol@@@Z:PROC ; CElementTree::DeleteCurrentDrawingSymbol
EXTRN	?DeleteAllSymbolsInBlock@CElementTree@@QAEXABVCBlockIndex@@@Z:PROC ; CElementTree::DeleteAllSymbolsInBlock
EXTRN	?DeleteAllSymbols@CElementTree@@QAEXXZ:PROC	; CElementTree::DeleteAllSymbols
EXTRN	?InsertBlockIndex@CElementTree@@QAE_NABVCBlockIndex@@@Z:PROC ; CElementTree::InsertBlockIndex
EXTRN	?SetModifiedBlockIndexs@CElementTree@@QAEXABVCBlockIndex@@0@Z:PROC ; CElementTree::SetModifiedBlockIndexs
EXTRN	?ChangeAllSymbolsColor@CElementTree@@QAEXABK0@Z:PROC ; CElementTree::ChangeAllSymbolsColor
EXTRN	?GetOrder@CElementTree@@QAEAAVCOrder@@XZ:PROC	; CElementTree::GetOrder
EXTRN	??0CCoordinate@@QAE@XZ:PROC			; CCoordinate::CCoordinate
EXTRN	?GetX@CCoordinate@@QBENXZ:PROC			; CCoordinate::GetX
EXTRN	?GetTimeDiff@CCoordinate@@QBEHXZ:PROC		; CCoordinate::GetTimeDiff
EXTRN	?SetX@CCoordinate@@QAEXABN@Z:PROC		; CCoordinate::SetX
EXTRN	?SetTimeDiff@CCoordinate@@QAEXH@Z:PROC		; CCoordinate::SetTimeDiff
EXTRN	?GetSymbolType@CDrawingSymbol@@QAE?AW4TOOLTYPE@CSymbolBaseData@@XZ:PROC ; CDrawingSymbol::GetSymbolType
EXTRN	?SetColor@CDrawingSymbol@@QAEXABK@Z:PROC	; CDrawingSymbol::SetColor
EXTRN	?GetSavedSymbolData_ForUndoRedo@CElementSaverBuilder@@QAE?AV?$CStringT@DV?$StrTraitMFC_DLL@DV?$ChTraitsCRT@D@ATL@@@@@ATL@@ABVCOrder@@PAVCDrawingSymbol@@@Z:PROC ; CElementSaverBuilder::GetSavedSymbolData_ForUndoRedo
EXTRN	?RegisterElementToUnRedoManager@CUndoRedoManager@@QAEXHJPBD0@Z:PROC ; CUndoRedoManager::RegisterElementToUnRedoManager
EXTRN	?UnRegisterElementToUnRedoManager@CUndoRedoManager@@QAEXJ@Z:PROC ; CUndoRedoManager::UnRegisterElementToUnRedoManager
EXTRN	?UndoElement@CUndoRedoManager@@QAEHJ@Z:PROC	; CUndoRedoManager::UndoElement
EXTRN	?RedoElement@CUndoRedoManager@@QAEHJ@Z:PROC	; CUndoRedoManager::RedoElement
EXTRN	?GetUndoRedoInfoListOfBlock@CUndoRedoManager@@QAEXABVCBlockIndex@@AAV?$CList@PAVCUndo_Redo_Info@@PAV1@@@@Z:PROC ; CUndoRedoManager::GetUndoRedoInfoListOfBlock
EXTRN	?DeleteAll@CUndoRedoManager@@QAEXXZ:PROC	; CUndoRedoManager::DeleteAll
EXTRN	??_E?$CList@PAVCUndo_Redo_Info@@PAV1@@@UAEPAXI@Z:PROC ; CList<CUndo_Redo_Info *,CUndo_Redo_Info *>::`vector deleting destructor'
EXTRN	??0CSymbolData@@QAE@XZ:PROC			; CSymbolData::CSymbolData
EXTRN	??1CSymbolData@@QAE@XZ:PROC			; CSymbolData::~CSymbolData
EXTRN	?GetMainBlock@CSymbolData@@QBEPAUIChartManager133101@@XZ:PROC ; CSymbolData::GetMainBlock
EXTRN	?GetPacketManager@CSymbolData@@QBEPAUIPacketManager133101@@XZ:PROC ; CSymbolData::GetPacketManager
EXTRN	?GetPropertiesData@CSymbolData@@QAEPAVCPropertiesData_text@@XZ:PROC ; CSymbolData::GetPropertiesData
EXTRN	?GetParent@CSymbolData@@QBEPAVCWnd@@XZ:PROC	; CSymbolData::GetParent
EXTRN	?GetElementTree@CSymbolData@@QAEPAVCElementTree@@XZ:PROC ; CSymbolData::GetElementTree
EXTRN	?CopySymbol@CSymbolData@@QAEPAVCDrawingSymbol@@PAV2@@Z:PROC ; CSymbolData::CopySymbol
EXTRN	?GetSymbolType@CSymbolData@@QBE?AW4TOOLTYPE@CSymbolBaseData@@XZ:PROC ; CSymbolData::GetSymbolType
EXTRN	?GetBuletType@CSymbolData@@QBE?AW4TOOLTYPE@CSymbolBaseData@@XZ:PROC ; CSymbolData::GetBuletType
EXTRN	?GetSavedSymbolsData@CSymbolData@@QAE?AV?$CStringT@DV?$StrTraitMFC_DLL@DV?$ChTraitsCRT@D@ATL@@@@@ATL@@XZ:PROC ; CSymbolData::GetSavedSymbolsData
EXTRN	?GetUserFilePath@CSymbolData@@QBE?AV?$CStringT@DV?$StrTraitMFC_DLL@DV?$ChTraitsCRT@D@ATL@@@@@ATL@@XZ:PROC ; CSymbolData::GetUserFilePath
EXTRN	?UnRegisterElementToOrderManager@CSymbolData@@QAEXJ@Z:PROC ; CSymbolData::UnRegisterElementToOrderManager
EXTRN	?SetMainBlock_Object@CSymbolData@@QAEXPAUIChartManager133101@@PAUIChartOCX133101@@@Z:PROC ; CSymbolData::SetMainBlock_Object
EXTRN	?SetFilePath@CSymbolData@@QAEXABV?$CStringT@DV?$StrTraitMFC_DLL@DV?$ChTraitsCRT@D@ATL@@@@@ATL@@@Z:PROC ; CSymbolData::SetFilePath
EXTRN	?SetParent@CSymbolData@@QAEXPAVCWnd@@@Z:PROC	; CSymbolData::SetParent
EXTRN	?SetSymbolType@CSymbolData@@QAEXW4TOOLTYPE@CSymbolBaseData@@@Z:PROC ; CSymbolData::SetSymbolType
EXTRN	?SetBuletType@CSymbolData@@QAEXW4TOOLTYPE@CSymbolBaseData@@@Z:PROC ; CSymbolData::SetBuletType
EXTRN	?BuildSymbolsFromString@CSymbolData@@QAEXABV?$CStringT@DV?$StrTraitMFC_DLL@DV?$ChTraitsCRT@D@ATL@@@@@ATL@@@Z:PROC ; CSymbolData::BuildSymbolsFromString
EXTRN	?DrawElement@CSymbolData@@QAEXPAVCDC@@PAVCDrawingSymbol@@@Z:PROC ; CSymbolData::DrawElement
EXTRN	?Invalidate@CSymbolData@@QAEXXZ:PROC		; CSymbolData::Invalidate
EXTRN	?GetUndoRedoManager@CSymbolData@@QAEAAVCUndoRedoManager@@XZ:PROC ; CSymbolData::GetUndoRedoManager
EXTRN	?GetBlockIndexInSymbol@CSymbolData@@QBE?AVCBlockIndex@@J@Z:PROC ; CSymbolData::GetBlockIndexInSymbol
EXTRN	?SetXScaleDrawType@CSymbolData@@QAEXW4HORZSCALEDRAWERTYPE@CScaleBaseData@@@Z:PROC ; CSymbolData::SetXScaleDrawType
EXTRN	?GetDatePacket@CSymbolData@@QBEPAUIPacket133101@@PBD@Z:PROC ; CSymbolData::GetDatePacket
EXTRN	??0CSymbolSingleton@@QAE@XZ:PROC		; CSymbolSingleton::CSymbolSingleton
EXTRN	??1CSymbolSingleton@@QAE@XZ:PROC		; CSymbolSingleton::~CSymbolSingleton
EXTRN	?Find@CSymbolSingleton@@QAEPAVCSymbolTool@@PAVCSymbolData@@W4TOOLTYPE@CSymbolBaseData@@@Z:PROC ; CSymbolSingleton::Find
EXTRN	?InitialTool@CSymbolSingleton@@QAEXXZ:PROC	; CSymbolSingleton::InitialTool
EXTRN	?SetOcxHwnd@CSymbolSingleton@@QAEXPAUHWND__@@@Z:PROC ; CSymbolSingleton::SetOcxHwnd
EXTRN	??_ECMainSymbolImplementation@@UAEPAXI@Z:PROC	; CMainSymbolImplementation::`vector deleting destructor'
EXTRN	?CalcTimeDiff@CDataConversion@@SANNHHV?$CStringT@DV?$StrTraitMFC_DLL@DV?$ChTraitsCRT@D@ATL@@@@@ATL@@@Z:PROC ; CDataConversion::CalcTimeDiff
EXTRN	??1CCoordinateCalculatorData@@QAE@XZ:PROC	; CCoordinateCalculatorData::~CCoordinateCalculatorData
EXTRN	?GetDisplayDataMin_ScaleType@CCoordinateCalculatorData@@QBENXZ:PROC ; CCoordinateCalculatorData::GetDisplayDataMin_ScaleType
EXTRN	?GetDisplayDataMax_ScaleType@CCoordinateCalculatorData@@QBENXZ:PROC ; CCoordinateCalculatorData::GetDisplayDataMax_ScaleType
EXTRN	?RelativeToAbsolute@CCoordinateCalculator@@QBE?AVCPoint@@ABVCCoordinateCalculatorData@@ABVCCoordinate@@@Z:PROC ; CCoordinateCalculator::RelativeToAbsolute
EXTRN	?GetCoordinateCalculatorData@CSymbolTool@@QBE?AVCCoordinateCalculatorData@@ABVCPoint@@@Z:PROC ; CSymbolTool::GetCoordinateCalculatorData
EXTRN	??0CProperties_Manager@@QAE@PAVCDrawingSymbol@@PAVCPropertiesData_text@@PAUIChartManager133101@@ABV?$CStringT@DV?$StrTraitMFC_DLL@DV?$ChTraitsCRT@D@ATL@@@@@ATL@@ABW4HORZSCALEDRAWERTYPE@CScaleBaseData@@PAUHWND__@@ABVCBlockIndex@@3@Z:PROC ; CProperties_Manager::CProperties_Manager
EXTRN	??1CProperties_Manager@@UAE@XZ:PROC		; CProperties_Manager::~CProperties_Manager
EXTRN	?PopUpPropertiesBox@CProperties_Manager@@QAE_NXZ:PROC ; CProperties_Manager::PopUpPropertiesBox
EXTRN	@__security_check_cookie@4:PROC
EXTRN	___CxxFrameHandler3:PROC
EXTRN	_memset:PROC
EXTRN	___security_cookie:DWORD
EXTRN	__fltused:DWORD
CRT$XCU	SEGMENT
??g_mapSymbolDlg$initializer$@CMainSymbolImplementation@@1P6AXXZA@@3P6AXXZA DD FLAT:??__E?g_mapSymbolDlg@CMainSymbolImplementation@@1V?$CMap@HHPAVCSymbolDlg@@PAV1@@@A@@YAXXZ ; ??g_mapSymbolDlg$initializer$@CMainSymbolImplementation@@1P6AXXZA@@3P6AXXZA
CRT$XCU	ENDS
;	COMDAT __real@fff0000000000000
CONST	SEGMENT
__real@fff0000000000000 DQ 0fff0000000000000r	; -inf
CONST	ENDS
;	COMDAT ??_R1A@?0A@EA@?$CList@PAVCUndo_Redo_Info@@PAV1@@@8
rdata$r	SEGMENT
??_R1A@?0A@EA@?$CList@PAVCUndo_Redo_Info@@PAV1@@@8 DD FLAT:??_R0?AV?$CList@PAVCUndo_Redo_Info@@PAV1@@@@8 ; CList<CUndo_Redo_Info *,CUndo_Redo_Info *>::`RTTI Base Class Descriptor at (0,-1,0,64)'
	DD	01H
	DD	00H
	DD	0ffffffffH
	DD	00H
	DD	040H
	DD	FLAT:??_R3?$CList@PAVCUndo_Redo_Info@@PAV1@@@8
rdata$r	ENDS
;	COMDAT ??_R2?$CList@PAVCUndo_Redo_Info@@PAV1@@@8
rdata$r	SEGMENT
??_R2?$CList@PAVCUndo_Redo_Info@@PAV1@@@8 DD FLAT:??_R1A@?0A@EA@?$CList@PAVCUndo_Redo_Info@@PAV1@@@8 ; CList<CUndo_Redo_Info *,CUndo_Redo_Info *>::`RTTI Base Class Array'
	DD	FLAT:??_R1A@?0A@EA@CObject@@8
rdata$r	ENDS
;	COMDAT ??_R3?$CList@PAVCUndo_Redo_Info@@PAV1@@@8
rdata$r	SEGMENT
??_R3?$CList@PAVCUndo_Redo_Info@@PAV1@@@8 DD 00H	; CList<CUndo_Redo_Info *,CUndo_Redo_Info *>::`RTTI Class Hierarchy Descriptor'
	DD	00H
	DD	02H
	DD	FLAT:??_R2?$CList@PAVCUndo_Redo_Info@@PAV1@@@8
rdata$r	ENDS
;	COMDAT ??_R0?AV?$CList@PAVCUndo_Redo_Info@@PAV1@@@@8
data$rs	SEGMENT
??_R0?AV?$CList@PAVCUndo_Redo_Info@@PAV1@@@@8 DD FLAT:??_7type_info@@6B@ ; CList<CUndo_Redo_Info *,CUndo_Redo_Info *> `RTTI Type Descriptor'
	DD	00H
	DB	'.?AV?$CList@PAVCUndo_Redo_Info@@PAV1@@@', 00H
data$rs	ENDS
;	COMDAT ??_R4?$CList@PAVCUndo_Redo_Info@@PAV1@@@6B@
rdata$r	SEGMENT
??_R4?$CList@PAVCUndo_Redo_Info@@PAV1@@@6B@ DD 00H	; CList<CUndo_Redo_Info *,CUndo_Redo_Info *>::`RTTI Complete Object Locator'
	DD	00H
	DD	00H
	DD	FLAT:??_R0?AV?$CList@PAVCUndo_Redo_Info@@PAV1@@@@8
	DD	FLAT:??_R3?$CList@PAVCUndo_Redo_Info@@PAV1@@@8
rdata$r	ENDS
;	COMDAT ??_R1A@?0A@EA@?$CList@PAVCDrawingSymbol@@PAV1@@@8
rdata$r	SEGMENT
??_R1A@?0A@EA@?$CList@PAVCDrawingSymbol@@PAV1@@@8 DD FLAT:??_R0?AV?$CList@PAVCDrawingSymbol@@PAV1@@@@8 ; CList<CDrawingSymbol *,CDrawingSymbol *>::`RTTI Base Class Descriptor at (0,-1,0,64)'
	DD	01H
	DD	00H
	DD	0ffffffffH
	DD	00H
	DD	040H
	DD	FLAT:??_R3?$CList@PAVCDrawingSymbol@@PAV1@@@8
rdata$r	ENDS
;	COMDAT ??_R2?$CList@PAVCDrawingSymbol@@PAV1@@@8
rdata$r	SEGMENT
??_R2?$CList@PAVCDrawingSymbol@@PAV1@@@8 DD FLAT:??_R1A@?0A@EA@?$CList@PAVCDrawingSymbol@@PAV1@@@8 ; CList<CDrawingSymbol *,CDrawingSymbol *>::`RTTI Base Class Array'
	DD	FLAT:??_R1A@?0A@EA@CObject@@8
rdata$r	ENDS
;	COMDAT ??_R3?$CList@PAVCDrawingSymbol@@PAV1@@@8
rdata$r	SEGMENT
??_R3?$CList@PAVCDrawingSymbol@@PAV1@@@8 DD 00H		; CList<CDrawingSymbol *,CDrawingSymbol *>::`RTTI Class Hierarchy Descriptor'
	DD	00H
	DD	02H
	DD	FLAT:??_R2?$CList@PAVCDrawingSymbol@@PAV1@@@8
rdata$r	ENDS
;	COMDAT ??_R0?AV?$CList@PAVCDrawingSymbol@@PAV1@@@@8
data$rs	SEGMENT
??_R0?AV?$CList@PAVCDrawingSymbol@@PAV1@@@@8 DD FLAT:??_7type_info@@6B@ ; CList<CDrawingSymbol *,CDrawingSymbol *> `RTTI Type Descriptor'
	DD	00H
	DB	'.?AV?$CList@PAVCDrawingSymbol@@PAV1@@@', 00H
data$rs	ENDS
;	COMDAT ??_R4?$CList@PAVCDrawingSymbol@@PAV1@@@6B@
rdata$r	SEGMENT
??_R4?$CList@PAVCDrawingSymbol@@PAV1@@@6B@ DD 00H	; CList<CDrawingSymbol *,CDrawingSymbol *>::`RTTI Complete Object Locator'
	DD	00H
	DD	00H
	DD	FLAT:??_R0?AV?$CList@PAVCDrawingSymbol@@PAV1@@@@8
	DD	FLAT:??_R3?$CList@PAVCDrawingSymbol@@PAV1@@@8
rdata$r	ENDS
;	COMDAT ??_R1A@?0A@EA@CMainSymbolImplementation@@8
rdata$r	SEGMENT
??_R1A@?0A@EA@CMainSymbolImplementation@@8 DD FLAT:??_R0?AVCMainSymbolImplementation@@@8 ; CMainSymbolImplementation::`RTTI Base Class Descriptor at (0,-1,0,64)'
	DD	00H
	DD	00H
	DD	0ffffffffH
	DD	00H
	DD	040H
	DD	FLAT:??_R3CMainSymbolImplementation@@8
rdata$r	ENDS
;	COMDAT ??_R2CMainSymbolImplementation@@8
rdata$r	SEGMENT
??_R2CMainSymbolImplementation@@8 DD FLAT:??_R1A@?0A@EA@CMainSymbolImplementation@@8 ; CMainSymbolImplementation::`RTTI Base Class Array'
rdata$r	ENDS
;	COMDAT ??_R3CMainSymbolImplementation@@8
rdata$r	SEGMENT
??_R3CMainSymbolImplementation@@8 DD 00H		; CMainSymbolImplementation::`RTTI Class Hierarchy Descriptor'
	DD	00H
	DD	01H
	DD	FLAT:??_R2CMainSymbolImplementation@@8
rdata$r	ENDS
;	COMDAT ??_R0?AVCMainSymbolImplementation@@@8
data$rs	SEGMENT
??_R0?AVCMainSymbolImplementation@@@8 DD FLAT:??_7type_info@@6B@ ; CMainSymbolImplementation `RTTI Type Descriptor'
	DD	00H
	DB	'.?AVCMainSymbolImplementation@@', 00H
data$rs	ENDS
;	COMDAT ??_R4CMainSymbolImplementation@@6B@
rdata$r	SEGMENT
??_R4CMainSymbolImplementation@@6B@ DD 00H		; CMainSymbolImplementation::`RTTI Complete Object Locator'
	DD	00H
	DD	00H
	DD	FLAT:??_R0?AVCMainSymbolImplementation@@@8
	DD	FLAT:??_R3CMainSymbolImplementation@@8
rdata$r	ENDS
;	COMDAT ??_C@_06MLGKKOBC@RDATET@
CONST	SEGMENT
??_C@_06MLGKKOBC@RDATET@ DB 'RDATET', 00H		; `string'
CONST	ENDS
;	COMDAT ??_7CMainSymbolImplementation@@6B@
CONST	SEGMENT
??_7CMainSymbolImplementation@@6B@ DD FLAT:??_R4CMainSymbolImplementation@@6B@ ; CMainSymbolImplementation::`vftable'
	DD	FLAT:??_ECMainSymbolImplementation@@UAEPAXI@Z
CONST	ENDS
_DATA	SEGMENT
?g_mapSymbolDlg@CMainSymbolImplementation@@1V?$CMap@HHPAVCSymbolDlg@@PAV1@@@A DD FLAT:??_7?$CMap@HHPAVCSymbolDlg@@PAV1@@@6B@ ; CMainSymbolImplementation::g_mapSymbolDlg
	DD	00H
	DD	011H
	DD	00H
	DD	00H
	DD	00H
	DD	0aH
?g_mapSymbolType@CMainSymbolImplementation@@1V?$CMap@HHW4TOOLTYPE@CSymbolBaseData@@W412@@@A DD FLAT:??_7?$CMap@HHW4TOOLTYPE@CSymbolBaseData@@W412@@@6B@ ; CMainSymbolImplementation::g_mapSymbolType
	DD	00H
	DD	011H
	DD	00H
	DD	00H
	DD	00H
	DD	0aH
_DATA	ENDS
;	COMDAT ??_7?$CList@PAVCUndo_Redo_Info@@PAV1@@@6B@
CONST	SEGMENT
??_7?$CList@PAVCUndo_Redo_Info@@PAV1@@@6B@ DD FLAT:??_R4?$CList@PAVCUndo_Redo_Info@@PAV1@@@6B@ ; CList<CUndo_Redo_Info *,CUndo_Redo_Info *>::`vftable'
	DD	FLAT:?GetRuntimeClass@CObject@@UBEPAUCRuntimeClass@@XZ
	DD	FLAT:??_E?$CList@PAVCUndo_Redo_Info@@PAV1@@@UAEPAXI@Z
	DD	FLAT:?Serialize@?$CList@PAVCUndo_Redo_Info@@PAV1@@@UAEXAAVCArchive@@@Z
	DD	FLAT:?AssertValid@CObject@@UBEXXZ
	DD	FLAT:?Dump@CObject@@UBEXAAVCDumpContext@@@Z
CONST	ENDS
;	COMDAT ??_7?$CList@PAVCDrawingSymbol@@PAV1@@@6B@
CONST	SEGMENT
??_7?$CList@PAVCDrawingSymbol@@PAV1@@@6B@ DD FLAT:??_R4?$CList@PAVCDrawingSymbol@@PAV1@@@6B@ ; CList<CDrawingSymbol *,CDrawingSymbol *>::`vftable'
	DD	FLAT:?GetRuntimeClass@CObject@@UBEPAUCRuntimeClass@@XZ
	DD	FLAT:??_E?$CList@PAVCDrawingSymbol@@PAV1@@@UAEPAXI@Z
	DD	FLAT:?Serialize@?$CList@PAVCDrawingSymbol@@PAV1@@@UAEXAAVCArchive@@@Z
	DD	FLAT:?AssertValid@CObject@@UBEXXZ
	DD	FLAT:?Dump@CObject@@UBEXAAVCDumpContext@@@Z
CONST	ENDS
;	COMDAT xdata$x
xdata$x	SEGMENT
__unwindtable$??__F?g_mapSymbolType@CMainSymbolImplementation@@1V?$CMap@HHW4TOOLTYPE@CSymbolBaseData@@W412@@@A@@YAXXZ DD 0ffffffffH
	DD	FLAT:___std_terminate
__ehfuncinfo$??__F?g_mapSymbolType@CMainSymbolImplementation@@1V?$CMap@HHW4TOOLTYPE@CSymbolBaseData@@W412@@@A@@YAXXZ DD 019930522H
	DD	01H
	DD	FLAT:__unwindtable$??__F?g_mapSymbolType@CMainSymbolImplementation@@1V?$CMap@HHW4TOOLTYPE@CSymbolBaseData@@W412@@@A@@YAXXZ
	DD	2 DUP(00H)
	DD	2 DUP(00H)
	DD	00H
	DD	01H
xdata$x	ENDS
;	COMDAT xdata$x
xdata$x	SEGMENT
__unwindtable$??_G?$CMap@HHW4TOOLTYPE@CSymbolBaseData@@W412@@@UAEPAXI@Z DD 0ffffffffH
	DD	FLAT:___std_terminate
__ehfuncinfo$??_G?$CMap@HHW4TOOLTYPE@CSymbolBaseData@@W412@@@UAEPAXI@Z DD 019930522H
	DD	01H
	DD	FLAT:__unwindtable$??_G?$CMap@HHW4TOOLTYPE@CSymbolBaseData@@W412@@@UAEPAXI@Z
	DD	2 DUP(00H)
	DD	2 DUP(00H)
	DD	00H
	DD	05H
xdata$x	ENDS
;	COMDAT xdata$x
xdata$x	SEGMENT
__ehfuncinfo$??1?$CMap@HHW4TOOLTYPE@CSymbolBaseData@@W412@@@UAE@XZ DD 019930522H
	DD	00H
	DD	00H
	DD	2 DUP(00H)
	DD	2 DUP(00H)
	DD	00H
	DD	05H
xdata$x	ENDS
;	COMDAT xdata$x
xdata$x	SEGMENT
__unwindtable$??__F?g_mapSymbolDlg@CMainSymbolImplementation@@1V?$CMap@HHPAVCSymbolDlg@@PAV1@@@A@@YAXXZ DD 0ffffffffH
	DD	FLAT:___std_terminate
__ehfuncinfo$??__F?g_mapSymbolDlg@CMainSymbolImplementation@@1V?$CMap@HHPAVCSymbolDlg@@PAV1@@@A@@YAXXZ DD 019930522H
	DD	01H
	DD	FLAT:__unwindtable$??__F?g_mapSymbolDlg@CMainSymbolImplementation@@1V?$CMap@HHPAVCSymbolDlg@@PAV1@@@A@@YAXXZ
	DD	2 DUP(00H)
	DD	2 DUP(00H)
	DD	00H
	DD	01H
xdata$x	ENDS
;	COMDAT xdata$x
xdata$x	SEGMENT
__unwindtable$??_G?$CMap@HHPAVCSymbolDlg@@PAV1@@@UAEPAXI@Z DD 0ffffffffH
	DD	FLAT:___std_terminate
__ehfuncinfo$??_G?$CMap@HHPAVCSymbolDlg@@PAV1@@@UAEPAXI@Z DD 019930522H
	DD	01H
	DD	FLAT:__unwindtable$??_G?$CMap@HHPAVCSymbolDlg@@PAV1@@@UAEPAXI@Z
	DD	2 DUP(00H)
	DD	2 DUP(00H)
	DD	00H
	DD	05H
xdata$x	ENDS
;	COMDAT xdata$x
xdata$x	SEGMENT
__ehfuncinfo$??1?$CMap@HHPAVCSymbolDlg@@PAV1@@@UAE@XZ DD 019930522H
	DD	00H
	DD	00H
	DD	2 DUP(00H)
	DD	2 DUP(00H)
	DD	00H
	DD	05H
xdata$x	ENDS
;	COMDAT xdata$x
xdata$x	SEGMENT
__unwindtable$??_GCMainSymbolImplementation@@UAEPAXI@Z DD 0ffffffffH
	DD	FLAT:___std_terminate
__ehfuncinfo$??_GCMainSymbolImplementation@@UAEPAXI@Z DD 019930522H
	DD	01H
	DD	FLAT:__unwindtable$??_GCMainSymbolImplementation@@UAEPAXI@Z
	DD	2 DUP(00H)
	DD	2 DUP(00H)
	DD	00H
	DD	05H
xdata$x	ENDS
;	COMDAT xdata$x
xdata$x	SEGMENT
__ehfuncinfo$?RecalcElementListXPoint@CMainSymbolImplementation@@QAEXHHHPAUIPacket133101@@@Z DD 019930522H
	DD	05H
	DD	FLAT:__unwindtable$?RecalcElementListXPoint@CMainSymbolImplementation@@QAEXHHHPAUIPacket133101@@@Z
	DD	2 DUP(00H)
	DD	2 DUP(00H)
	DD	00H
	DD	01H
__unwindtable$?RecalcElementListXPoint@CMainSymbolImplementation@@QAEXHHHPAUIPacket133101@@@Z DD 0ffffffffH
	DD	FLAT:__unwindfunclet$?RecalcElementListXPoint@CMainSymbolImplementation@@QAEXHHHPAUIPacket133101@@@Z$0
	DD	00H
	DD	FLAT:__unwindfunclet$?RecalcElementListXPoint@CMainSymbolImplementation@@QAEXHHHPAUIPacket133101@@@Z$1
	DD	01H
	DD	FLAT:__unwindfunclet$?RecalcElementListXPoint@CMainSymbolImplementation@@QAEXHHHPAUIPacket133101@@@Z$2
	DD	00H
	DD	FLAT:___std_terminate
	DD	0ffffffffH
	DD	FLAT:___std_terminate
xdata$x	ENDS
;	COMDAT xdata$x
xdata$x	SEGMENT
__ehfuncinfo$?RecalcSymbolXPoint@CMainSymbolImplementation@@QAE_NPBDH@Z DD 019930522H
	DD	06H
	DD	FLAT:__unwindtable$?RecalcSymbolXPoint@CMainSymbolImplementation@@QAE_NPBDH@Z
	DD	2 DUP(00H)
	DD	2 DUP(00H)
	DD	00H
	DD	01H
__unwindtable$?RecalcSymbolXPoint@CMainSymbolImplementation@@QAE_NPBDH@Z DD 0ffffffffH
	DD	FLAT:__unwindfunclet$?RecalcSymbolXPoint@CMainSymbolImplementation@@QAE_NPBDH@Z$0
	DD	00H
	DD	FLAT:__unwindfunclet$?RecalcSymbolXPoint@CMainSymbolImplementation@@QAE_NPBDH@Z$1
	DD	01H
	DD	FLAT:__unwindfunclet$?RecalcSymbolXPoint@CMainSymbolImplementation@@QAE_NPBDH@Z$2
	DD	01H
	DD	FLAT:___std_terminate
	DD	01H
	DD	FLAT:___std_terminate
	DD	0ffffffffH
	DD	FLAT:___std_terminate
xdata$x	ENDS
;	COMDAT xdata$x
xdata$x	SEGMENT
__unwindtable$?SetElementCopy@CMainSymbolImplementation@@QAEXXZ DD 0ffffffffH
	DD	FLAT:__unwindfunclet$?SetElementCopy@CMainSymbolImplementation@@QAEXXZ$0
__ehfuncinfo$?SetElementCopy@CMainSymbolImplementation@@QAEXXZ DD 019930522H
	DD	01H
	DD	FLAT:__unwindtable$?SetElementCopy@CMainSymbolImplementation@@QAEXXZ
	DD	2 DUP(00H)
	DD	2 DUP(00H)
	DD	00H
	DD	01H
xdata$x	ENDS
;	COMDAT xdata$x
xdata$x	SEGMENT
__unwindtable$?DeleteAllSymbolsInBlock@CMainSymbolImplementation@@QAEXABVCBlockIndex@@@Z DD 0ffffffffH
	DD	FLAT:__unwindfunclet$?DeleteAllSymbolsInBlock@CMainSymbolImplementation@@QAEXABVCBlockIndex@@@Z$0
	DD	00H
	DD	FLAT:__unwindfunclet$?DeleteAllSymbolsInBlock@CMainSymbolImplementation@@QAEXABVCBlockIndex@@@Z$1
	DD	00H
	DD	FLAT:___std_terminate
	DD	0ffffffffH
	DD	FLAT:___std_terminate
__ehfuncinfo$?DeleteAllSymbolsInBlock@CMainSymbolImplementation@@QAEXABVCBlockIndex@@@Z DD 019930522H
	DD	04H
	DD	FLAT:__unwindtable$?DeleteAllSymbolsInBlock@CMainSymbolImplementation@@QAEXABVCBlockIndex@@@Z
	DD	2 DUP(00H)
	DD	2 DUP(00H)
	DD	00H
	DD	01H
xdata$x	ENDS
;	COMDAT xdata$x
xdata$x	SEGMENT
__ehfuncinfo$?OnRButtonMenu@CMainSymbolImplementation@@QAE_NW4ELEMENTMENU@CMenuType@@I@Z DD 019930522H
	DD	07H
	DD	FLAT:__unwindtable$?OnRButtonMenu@CMainSymbolImplementation@@QAE_NW4ELEMENTMENU@CMenuType@@I@Z
	DD	2 DUP(00H)
	DD	2 DUP(00H)
	DD	00H
	DD	01H
__unwindtable$?OnRButtonMenu@CMainSymbolImplementation@@QAE_NW4ELEMENTMENU@CMenuType@@I@Z DD 0ffffffffH
	DD	FLAT:__unwindfunclet$?OnRButtonMenu@CMainSymbolImplementation@@QAE_NW4ELEMENTMENU@CMenuType@@I@Z$0
	DD	00H
	DD	FLAT:__unwindfunclet$?OnRButtonMenu@CMainSymbolImplementation@@QAE_NW4ELEMENTMENU@CMenuType@@I@Z$1
	DD	01H
	DD	FLAT:__unwindfunclet$?OnRButtonMenu@CMainSymbolImplementation@@QAE_NW4ELEMENTMENU@CMenuType@@I@Z$2
	DD	02H
	DD	FLAT:__unwindfunclet$?OnRButtonMenu@CMainSymbolImplementation@@QAE_NW4ELEMENTMENU@CMenuType@@I@Z$3
	DD	01H
	DD	FLAT:__unwindfunclet$?OnRButtonMenu@CMainSymbolImplementation@@QAE_NW4ELEMENTMENU@CMenuType@@I@Z$3
	DD	0ffffffffH
	DD	00H
	DD	0ffffffffH
	DD	FLAT:___std_terminate
xdata$x	ENDS
;	COMDAT xdata$x
xdata$x	SEGMENT
__unwindtable$?OnLButtonUp@CMainSymbolImplementation@@QAE_NPAVCDC@@ABVCPoint@@@Z DD 0ffffffffH
	DD	FLAT:__unwindfunclet$?OnLButtonUp@CMainSymbolImplementation@@QAE_NPAVCDC@@ABVCPoint@@@Z$0
__ehfuncinfo$?OnLButtonUp@CMainSymbolImplementation@@QAE_NPAVCDC@@ABVCPoint@@@Z DD 019930522H
	DD	01H
	DD	FLAT:__unwindtable$?OnLButtonUp@CMainSymbolImplementation@@QAE_NPAVCDC@@ABVCPoint@@@Z
	DD	2 DUP(00H)
	DD	2 DUP(00H)
	DD	00H
	DD	01H
xdata$x	ENDS
;	COMDAT xdata$x
xdata$x	SEGMENT
__ehfuncinfo$?OnLButtonDbClk@CMainSymbolImplementation@@QAE_NPAVCDC@@ABVCPoint@@@Z DD 019930522H
	DD	09H
	DD	FLAT:__unwindtable$?OnLButtonDbClk@CMainSymbolImplementation@@QAE_NPAVCDC@@ABVCPoint@@@Z
	DD	2 DUP(00H)
	DD	2 DUP(00H)
	DD	00H
	DD	01H
__unwindtable$?OnLButtonDbClk@CMainSymbolImplementation@@QAE_NPAVCDC@@ABVCPoint@@@Z DD 0ffffffffH
	DD	FLAT:__unwindfunclet$?OnLButtonDbClk@CMainSymbolImplementation@@QAE_NPAVCDC@@ABVCPoint@@@Z$0
	DD	00H
	DD	FLAT:__unwindfunclet$?OnLButtonDbClk@CMainSymbolImplementation@@QAE_NPAVCDC@@ABVCPoint@@@Z$1
	DD	01H
	DD	FLAT:__unwindfunclet$?OnLButtonDbClk@CMainSymbolImplementation@@QAE_NPAVCDC@@ABVCPoint@@@Z$2
	DD	02H
	DD	FLAT:__unwindfunclet$?OnLButtonDbClk@CMainSymbolImplementation@@QAE_NPAVCDC@@ABVCPoint@@@Z$3
	DD	01H
	DD	FLAT:__unwindfunclet$?OnLButtonDbClk@CMainSymbolImplementation@@QAE_NPAVCDC@@ABVCPoint@@@Z$3
	DD	04H
	DD	FLAT:__unwindfunclet$?OnLButtonDbClk@CMainSymbolImplementation@@QAE_NPAVCDC@@ABVCPoint@@@Z$4
	DD	05H
	DD	FLAT:__unwindfunclet$?OnLButtonDbClk@CMainSymbolImplementation@@QAE_NPAVCDC@@ABVCPoint@@@Z$5
	DD	0ffffffffH
	DD	00H
	DD	0ffffffffH
	DD	FLAT:___std_terminate
xdata$x	ENDS
;	COMDAT xdata$x
xdata$x	SEGMENT
__unwindtable$?OnLButtonDown@CMainSymbolImplementation@@QAE_NPAVCDC@@ABVCPoint@@@Z DD 0ffffffffH
	DD	FLAT:__unwindfunclet$?OnLButtonDown@CMainSymbolImplementation@@QAE_NPAVCDC@@ABVCPoint@@@Z$0
__ehfuncinfo$?OnLButtonDown@CMainSymbolImplementation@@QAE_NPAVCDC@@ABVCPoint@@@Z DD 019930522H
	DD	01H
	DD	FLAT:__unwindtable$?OnLButtonDown@CMainSymbolImplementation@@QAE_NPAVCDC@@ABVCPoint@@@Z
	DD	2 DUP(00H)
	DD	2 DUP(00H)
	DD	00H
	DD	01H
xdata$x	ENDS
;	COMDAT xdata$x
xdata$x	SEGMENT
__unwindtable$?CreateSymbolDlg@CMainSymbolImplementation@@QAEXXZ DD 0ffffffffH
	DD	FLAT:__unwindfunclet$?CreateSymbolDlg@CMainSymbolImplementation@@QAEXXZ$0
__ehfuncinfo$?CreateSymbolDlg@CMainSymbolImplementation@@QAEXXZ DD 019930522H
	DD	01H
	DD	FLAT:__unwindtable$?CreateSymbolDlg@CMainSymbolImplementation@@QAEXXZ
	DD	2 DUP(00H)
	DD	2 DUP(00H)
	DD	00H
	DD	01H
xdata$x	ENDS
;	COMDAT xdata$x
xdata$x	SEGMENT
__ehfuncinfo$??1CMainSymbolImplementation@@UAE@XZ DD 019930522H
	DD	00H
	DD	00H
	DD	2 DUP(00H)
	DD	2 DUP(00H)
	DD	00H
	DD	05H
xdata$x	ENDS
;	COMDAT xdata$x
xdata$x	SEGMENT
__unwindtable$??0CMainSymbolImplementation@@QAE@XZ DD 0ffffffffH
	DD	FLAT:__unwindfunclet$??0CMainSymbolImplementation@@QAE@XZ$0
__ehfuncinfo$??0CMainSymbolImplementation@@QAE@XZ DD 019930522H
	DD	01H
	DD	FLAT:__unwindtable$??0CMainSymbolImplementation@@QAE@XZ
	DD	2 DUP(00H)
	DD	2 DUP(00H)
	DD	00H
	DD	01H
xdata$x	ENDS
;	COMDAT xdata$x
xdata$x	SEGMENT
__unwindtable$??_G?$CList@PAVCUndo_Redo_Info@@PAV1@@@UAEPAXI@Z DD 0ffffffffH
	DD	FLAT:___std_terminate
__ehfuncinfo$??_G?$CList@PAVCUndo_Redo_Info@@PAV1@@@UAEPAXI@Z DD 019930522H
	DD	01H
	DD	FLAT:__unwindtable$??_G?$CList@PAVCUndo_Redo_Info@@PAV1@@@UAEPAXI@Z
	DD	2 DUP(00H)
	DD	2 DUP(00H)
	DD	00H
	DD	05H
xdata$x	ENDS
;	COMDAT xdata$x
xdata$x	SEGMENT
__ehfuncinfo$??1?$CList@PAVCUndo_Redo_Info@@PAV1@@@UAE@XZ DD 019930522H
	DD	00H
	DD	00H
	DD	2 DUP(00H)
	DD	2 DUP(00H)
	DD	00H
	DD	05H
xdata$x	ENDS
;	COMDAT xdata$x
xdata$x	SEGMENT
__ehfuncinfo$??1ILPCSTR133101@@QAE@XZ DD 019930522H
	DD	00H
	DD	00H
	DD	2 DUP(00H)
	DD	2 DUP(00H)
	DD	00H
	DD	05H
xdata$x	ENDS
;	COMDAT xdata$x
xdata$x	SEGMENT
__unwindtable$??_G?$CList@PAVCDrawingSymbol@@PAV1@@@UAEPAXI@Z DD 0ffffffffH
	DD	FLAT:___std_terminate
__ehfuncinfo$??_G?$CList@PAVCDrawingSymbol@@PAV1@@@UAEPAXI@Z DD 019930522H
	DD	01H
	DD	FLAT:__unwindtable$??_G?$CList@PAVCDrawingSymbol@@PAV1@@@UAEPAXI@Z
	DD	2 DUP(00H)
	DD	2 DUP(00H)
	DD	00H
	DD	05H
xdata$x	ENDS
;	COMDAT xdata$x
xdata$x	SEGMENT
__ehfuncinfo$??1?$CList@PAVCDrawingSymbol@@PAV1@@@UAE@XZ DD 019930522H
	DD	00H
	DD	00H
	DD	2 DUP(00H)
	DD	2 DUP(00H)
	DD	00H
	DD	05H
xdata$x	ENDS
CRT$XCU	SEGMENT
??g_mapSymbolType$initializer$@CMainSymbolImplementation@@1P6AXXZA@@3P6AXXZA DD FLAT:??__E?g_mapSymbolType@CMainSymbolImplementation@@1V?$CMap@HHW4TOOLTYPE@CSymbolBaseData@@W412@@@A@@YAXXZ ; ??g_mapSymbolType$initializer$@CMainSymbolImplementation@@1P6AXXZA@@3P6AXXZA
CRT$XCU	ENDS
; Function compile flags: /Ogtp
; File C:\Program Files (x86)\Microsoft Visual Studio\2019\Community\VC\Tools\MSVC\14.29.30133\atlmfc\include\afxtempl.h
;	COMDAT ??$CompareElements@HH@@YGHPBH0@Z
_TEXT	SEGMENT
_pElement1$ = 8						; size = 4
_pElement2$ = 12					; size = 4
??$CompareElements@HH@@YGHPBH0@Z PROC			; CompareElements<int,int>, COMDAT

; 151  : {

  00000	55		 push	 ebp
  00001	8b ec		 mov	 ebp, esp

; 152  : 	ENSURE(pElement1 != NULL && pElement2 != NULL);

  00003	8b 4d 08	 mov	 ecx, DWORD PTR _pElement1$[ebp]
  00006	85 c9		 test	 ecx, ecx
  00008	74 14		 je	 SHORT $LN7@CompareEle
  0000a	8b 55 0c	 mov	 edx, DWORD PTR _pElement2$[ebp]
  0000d	85 d2		 test	 edx, edx
  0000f	74 0d		 je	 SHORT $LN7@CompareEle

; 153  : 	ASSERT(AfxIsValidAddress(pElement1, sizeof(TYPE), FALSE));
; 154  : 	ASSERT(AfxIsValidAddress(pElement2, sizeof(ARG_TYPE), FALSE));
; 155  : 
; 156  : 	return *pElement1 == *pElement2;

  00011	8b 09		 mov	 ecx, DWORD PTR [ecx]
  00013	33 c0		 xor	 eax, eax
  00015	3b 0a		 cmp	 ecx, DWORD PTR [edx]
  00017	0f 94 c0	 sete	 al

; 157  : }

  0001a	5d		 pop	 ebp
  0001b	c2 08 00	 ret	 8
$LN7@CompareEle:

; 152  : 	ENSURE(pElement1 != NULL && pElement2 != NULL);

  0001e	e8 00 00 00 00	 call	 ?AfxThrowInvalidArgException@@YGXXZ ; AfxThrowInvalidArgException
$LN10@CompareEle:
  00023	cc		 int	 3
??$CompareElements@HH@@YGHPBH0@Z ENDP			; CompareElements<int,int>
_TEXT	ENDS
; Function compile flags: /Ogtp
; File C:\Program Files (x86)\Microsoft Visual Studio\2019\Community\VC\Tools\MSVC\14.29.30133\atlmfc\include\afxtempl.h
; File C:\Program Files (x86)\Microsoft Visual Studio\2019\Community\VC\Tools\MSVC\14.29.30133\atlmfc\include\afx.inl
; File C:\Program Files (x86)\Microsoft Visual Studio\2019\Community\VC\Tools\MSVC\14.29.30133\atlmfc\include\afxtempl.h
; File C:\Program Files (x86)\Microsoft Visual Studio\2019\Community\VC\Tools\MSVC\14.29.30133\atlmfc\include\afx.inl
; File C:\Program Files (x86)\Microsoft Visual Studio\2019\Community\VC\Tools\MSVC\14.29.30133\atlmfc\include\afxtempl.h
; File C:\Program Files (x86)\Microsoft Visual Studio\2019\Community\VC\Tools\MSVC\14.29.30133\atlmfc\include\afx.inl
; File C:\Program Files (x86)\Microsoft Visual Studio\2019\Community\VC\Tools\MSVC\14.29.30133\atlmfc\include\afxtempl.h
;	COMDAT ??$SerializeElements@W4TOOLTYPE@CSymbolBaseData@@@@YGXAAVCArchive@@PAW4TOOLTYPE@CSymbolBaseData@@H@Z
_TEXT	SEGMENT
_ar$ = 8						; size = 4
_pElements$ = 12					; size = 4
_nCount$ = 16						; size = 4
??$SerializeElements@W4TOOLTYPE@CSymbolBaseData@@@@YGXAAVCArchive@@PAW4TOOLTYPE@CSymbolBaseData@@H@Z PROC ; SerializeElements<enum CSymbolBaseData::TOOLTYPE>, COMDAT

; 67   : {

  00000	55		 push	 ebp
  00001	8b ec		 mov	 ebp, esp

; 68   : 	ENSURE(nCount == 0 || pElements != NULL);

  00003	8b 4d 0c	 mov	 ecx, DWORD PTR _pElements$[ebp]
  00006	53		 push	 ebx
  00007	56		 push	 esi
  00008	8b 75 10	 mov	 esi, DWORD PTR _nCount$[ebp]
  0000b	57		 push	 edi
  0000c	85 f6		 test	 esi, esi
  0000e	74 08		 je	 SHORT $LN2@SerializeE
  00010	85 c9		 test	 ecx, ecx
  00012	0f 84 89 00 00
	00		 je	 $LN34@SerializeE
$LN2@SerializeE:
; File C:\Program Files (x86)\Microsoft Visual Studio\2019\Community\VC\Tools\MSVC\14.29.30133\atlmfc\include\afx.inl

; 212  : 	{ return (m_nMode & CArchive::load) == 0; }

  00018	8b 55 08	 mov	 edx, DWORD PTR _ar$[ebp]
  0001b	8b 42 18	 mov	 eax, DWORD PTR [edx+24]
  0001e	f7 d0		 not	 eax
  00020	a8 01		 test	 al, 1
; File C:\Program Files (x86)\Microsoft Visual Studio\2019\Community\VC\Tools\MSVC\14.29.30133\atlmfc\include\afxtempl.h

; 73   : 	if (ar.IsStoring())

  00022	74 3c		 je	 SHORT $LN10@SerializeE

; 74   : 	{
; 75   : 		TYPE* pData;
; 76   : 		UINT_PTR nElementsLeft;
; 77   : 
; 78   : 		nElementsLeft = nCount;
; 79   : 		pData = pElements;
; 80   : 		while( nElementsLeft > 0 )

  00024	85 f6		 test	 esi, esi
  00026	74 31		 je	 SHORT $LN8@SerializeE
  00028	0f 1f 84 00 00
	00 00 00	 npad	 8
$LL5@SerializeE:

; 81   : 		{
; 82   : 			UINT nElementsToWrite;
; 83   : 
; 84   : 			nElementsToWrite = UINT(__min(nElementsLeft, INT_MAX/sizeof(TYPE)));

  00030	bb ff ff ff 1f	 mov	 ebx, 536870911		; 1fffffffH
  00035	3b f3		 cmp	 esi, ebx
  00037	0f 42 de	 cmovb	 ebx, esi

; 85   : 			ar.Write(pData, nElementsToWrite*sizeof(TYPE));

  0003a	8d 3c 9d 00 00
	00 00		 lea	 edi, DWORD PTR [ebx*4]
  00041	57		 push	 edi
  00042	51		 push	 ecx
  00043	8b ca		 mov	 ecx, edx
  00045	e8 00 00 00 00	 call	 ?Write@CArchive@@QAEXPBXI@Z ; CArchive::Write

; 86   : 			nElementsLeft -= nElementsToWrite;
; 87   : 			pData += nElementsToWrite;

  0004a	8b 4d 0c	 mov	 ecx, DWORD PTR _pElements$[ebp]
  0004d	8b 55 08	 mov	 edx, DWORD PTR _ar$[ebp]
  00050	03 cf		 add	 ecx, edi
  00052	89 4d 0c	 mov	 DWORD PTR _pElements$[ebp], ecx
  00055	2b f3		 sub	 esi, ebx
  00057	75 d7		 jne	 SHORT $LL5@SerializeE
$LN8@SerializeE:
  00059	5f		 pop	 edi

; 105  : 		}
; 106  : 	}
; 107  : }

  0005a	5e		 pop	 esi
  0005b	5b		 pop	 ebx
  0005c	5d		 pop	 ebp
  0005d	c2 0c 00	 ret	 12			; 0000000cH
$LN10@SerializeE:

; 97   : 		while( nElementsLeft > 0 )

  00060	85 f6		 test	 esi, esi
  00062	74 f5		 je	 SHORT $LN8@SerializeE
$LL7@SerializeE:

; 98   : 		{
; 99   : 			UINT nElementsToRead;
; 100  : 
; 101  : 			nElementsToRead = UINT(__min(nElementsLeft, INT_MAX/sizeof(TYPE)));

  00064	bf ff ff ff 1f	 mov	 edi, 536870911		; 1fffffffH
  00069	3b f7		 cmp	 esi, edi
  0006b	0f 42 fe	 cmovb	 edi, esi

; 102  : 			ar.EnsureRead(pData, nElementsToRead*sizeof(TYPE));

  0006e	8d 1c bd 00 00
	00 00		 lea	 ebx, DWORD PTR [edi*4]
; File C:\Program Files (x86)\Microsoft Visual Studio\2019\Community\VC\Tools\MSVC\14.29.30133\atlmfc\include\afx.inl

; 399  : 	UINT nRead=Read(lpBuf, nCount);

  00075	53		 push	 ebx
  00076	51		 push	 ecx
  00077	8b ca		 mov	 ecx, edx
  00079	e8 00 00 00 00	 call	 ?Read@CArchive@@QAEIPAXI@Z ; CArchive::Read

; 400  : 	if(nRead!=nCount)

  0007e	3b c3		 cmp	 eax, ebx
  00080	75 16		 jne	 SHORT $LN23@SerializeE
; File C:\Program Files (x86)\Microsoft Visual Studio\2019\Community\VC\Tools\MSVC\14.29.30133\atlmfc\include\afxtempl.h

; 97   : 		while( nElementsLeft > 0 )

  00082	8b 4d 0c	 mov	 ecx, DWORD PTR _pElements$[ebp]
  00085	8b 55 08	 mov	 edx, DWORD PTR _ar$[ebp]

; 103  : 			nElementsLeft -= nElementsToRead;
; 104  : 			pData += nElementsToRead;

  00088	03 cb		 add	 ecx, ebx
  0008a	89 4d 0c	 mov	 DWORD PTR _pElements$[ebp], ecx
  0008d	2b f7		 sub	 esi, edi
  0008f	75 d3		 jne	 SHORT $LL7@SerializeE

; 105  : 		}
; 106  : 	}
; 107  : }

  00091	5f		 pop	 edi
  00092	5e		 pop	 esi
  00093	5b		 pop	 ebx
  00094	5d		 pop	 ebp
  00095	c2 0c 00	 ret	 12			; 0000000cH
$LN23@SerializeE:
; File C:\Program Files (x86)\Microsoft Visual Studio\2019\Community\VC\Tools\MSVC\14.29.30133\atlmfc\include\afx.inl

; 402  : 		AfxThrowArchiveException(CArchiveException::endOfFile);

  00098	6a 00		 push	 0
  0009a	6a 03		 push	 3
  0009c	e8 00 00 00 00	 call	 ?AfxThrowArchiveException@@YGXHPBD@Z ; AfxThrowArchiveException
$LN34@SerializeE:
; File C:\Program Files (x86)\Microsoft Visual Studio\2019\Community\VC\Tools\MSVC\14.29.30133\atlmfc\include\afxtempl.h

; 68   : 	ENSURE(nCount == 0 || pElements != NULL);

  000a1	e8 00 00 00 00	 call	 ?AfxThrowInvalidArgException@@YGXXZ ; AfxThrowInvalidArgException
$LN32@SerializeE:
  000a6	cc		 int	 3
??$SerializeElements@W4TOOLTYPE@CSymbolBaseData@@@@YGXAAVCArchive@@PAW4TOOLTYPE@CSymbolBaseData@@H@Z ENDP ; SerializeElements<enum CSymbolBaseData::TOOLTYPE>
_TEXT	ENDS
; Function compile flags: /Ogtp
; File C:\Program Files (x86)\Microsoft Visual Studio\2019\Community\VC\Tools\MSVC\14.29.30133\atlmfc\include\afxtempl.h
; File C:\Program Files (x86)\Microsoft Visual Studio\2019\Community\VC\Tools\MSVC\14.29.30133\atlmfc\include\afx.inl
; File C:\Program Files (x86)\Microsoft Visual Studio\2019\Community\VC\Tools\MSVC\14.29.30133\atlmfc\include\afxtempl.h
; File C:\Program Files (x86)\Microsoft Visual Studio\2019\Community\VC\Tools\MSVC\14.29.30133\atlmfc\include\afx.inl
; File C:\Program Files (x86)\Microsoft Visual Studio\2019\Community\VC\Tools\MSVC\14.29.30133\atlmfc\include\afxtempl.h
; File C:\Program Files (x86)\Microsoft Visual Studio\2019\Community\VC\Tools\MSVC\14.29.30133\atlmfc\include\afx.inl
; File C:\Program Files (x86)\Microsoft Visual Studio\2019\Community\VC\Tools\MSVC\14.29.30133\atlmfc\include\afxtempl.h
;	COMDAT ??$SerializeElements@PAVCSymbolDlg@@@@YGXAAVCArchive@@PAPAVCSymbolDlg@@H@Z
_TEXT	SEGMENT
_ar$ = 8						; size = 4
_pElements$ = 12					; size = 4
_nCount$ = 16						; size = 4
??$SerializeElements@PAVCSymbolDlg@@@@YGXAAVCArchive@@PAPAVCSymbolDlg@@H@Z PROC ; SerializeElements<CSymbolDlg *>, COMDAT

; 67   : {

  00000	55		 push	 ebp
  00001	8b ec		 mov	 ebp, esp

; 68   : 	ENSURE(nCount == 0 || pElements != NULL);

  00003	8b 4d 0c	 mov	 ecx, DWORD PTR _pElements$[ebp]
  00006	53		 push	 ebx
  00007	56		 push	 esi
  00008	8b 75 10	 mov	 esi, DWORD PTR _nCount$[ebp]
  0000b	57		 push	 edi
  0000c	85 f6		 test	 esi, esi
  0000e	74 08		 je	 SHORT $LN2@SerializeE
  00010	85 c9		 test	 ecx, ecx
  00012	0f 84 89 00 00
	00		 je	 $LN34@SerializeE
$LN2@SerializeE:
; File C:\Program Files (x86)\Microsoft Visual Studio\2019\Community\VC\Tools\MSVC\14.29.30133\atlmfc\include\afx.inl

; 212  : 	{ return (m_nMode & CArchive::load) == 0; }

  00018	8b 55 08	 mov	 edx, DWORD PTR _ar$[ebp]
  0001b	8b 42 18	 mov	 eax, DWORD PTR [edx+24]
  0001e	f7 d0		 not	 eax
  00020	a8 01		 test	 al, 1
; File C:\Program Files (x86)\Microsoft Visual Studio\2019\Community\VC\Tools\MSVC\14.29.30133\atlmfc\include\afxtempl.h

; 73   : 	if (ar.IsStoring())

  00022	74 3c		 je	 SHORT $LN10@SerializeE

; 74   : 	{
; 75   : 		TYPE* pData;
; 76   : 		UINT_PTR nElementsLeft;
; 77   : 
; 78   : 		nElementsLeft = nCount;
; 79   : 		pData = pElements;
; 80   : 		while( nElementsLeft > 0 )

  00024	85 f6		 test	 esi, esi
  00026	74 31		 je	 SHORT $LN8@SerializeE
  00028	0f 1f 84 00 00
	00 00 00	 npad	 8
$LL5@SerializeE:

; 81   : 		{
; 82   : 			UINT nElementsToWrite;
; 83   : 
; 84   : 			nElementsToWrite = UINT(__min(nElementsLeft, INT_MAX/sizeof(TYPE)));

  00030	bb ff ff ff 1f	 mov	 ebx, 536870911		; 1fffffffH
  00035	3b f3		 cmp	 esi, ebx
  00037	0f 42 de	 cmovb	 ebx, esi

; 85   : 			ar.Write(pData, nElementsToWrite*sizeof(TYPE));

  0003a	8d 3c 9d 00 00
	00 00		 lea	 edi, DWORD PTR [ebx*4]
  00041	57		 push	 edi
  00042	51		 push	 ecx
  00043	8b ca		 mov	 ecx, edx
  00045	e8 00 00 00 00	 call	 ?Write@CArchive@@QAEXPBXI@Z ; CArchive::Write

; 86   : 			nElementsLeft -= nElementsToWrite;
; 87   : 			pData += nElementsToWrite;

  0004a	8b 4d 0c	 mov	 ecx, DWORD PTR _pElements$[ebp]
  0004d	8b 55 08	 mov	 edx, DWORD PTR _ar$[ebp]
  00050	03 cf		 add	 ecx, edi
  00052	89 4d 0c	 mov	 DWORD PTR _pElements$[ebp], ecx
  00055	2b f3		 sub	 esi, ebx
  00057	75 d7		 jne	 SHORT $LL5@SerializeE
$LN8@SerializeE:
  00059	5f		 pop	 edi

; 105  : 		}
; 106  : 	}
; 107  : }

  0005a	5e		 pop	 esi
  0005b	5b		 pop	 ebx
  0005c	5d		 pop	 ebp
  0005d	c2 0c 00	 ret	 12			; 0000000cH
$LN10@SerializeE:

; 97   : 		while( nElementsLeft > 0 )

  00060	85 f6		 test	 esi, esi
  00062	74 f5		 je	 SHORT $LN8@SerializeE
$LL7@SerializeE:

; 98   : 		{
; 99   : 			UINT nElementsToRead;
; 100  : 
; 101  : 			nElementsToRead = UINT(__min(nElementsLeft, INT_MAX/sizeof(TYPE)));

  00064	bf ff ff ff 1f	 mov	 edi, 536870911		; 1fffffffH
  00069	3b f7		 cmp	 esi, edi
  0006b	0f 42 fe	 cmovb	 edi, esi

; 102  : 			ar.EnsureRead(pData, nElementsToRead*sizeof(TYPE));

  0006e	8d 1c bd 00 00
	00 00		 lea	 ebx, DWORD PTR [edi*4]
; File C:\Program Files (x86)\Microsoft Visual Studio\2019\Community\VC\Tools\MSVC\14.29.30133\atlmfc\include\afx.inl

; 399  : 	UINT nRead=Read(lpBuf, nCount);

  00075	53		 push	 ebx
  00076	51		 push	 ecx
  00077	8b ca		 mov	 ecx, edx
  00079	e8 00 00 00 00	 call	 ?Read@CArchive@@QAEIPAXI@Z ; CArchive::Read

; 400  : 	if(nRead!=nCount)

  0007e	3b c3		 cmp	 eax, ebx
  00080	75 16		 jne	 SHORT $LN23@SerializeE
; File C:\Program Files (x86)\Microsoft Visual Studio\2019\Community\VC\Tools\MSVC\14.29.30133\atlmfc\include\afxtempl.h

; 97   : 		while( nElementsLeft > 0 )

  00082	8b 4d 0c	 mov	 ecx, DWORD PTR _pElements$[ebp]
  00085	8b 55 08	 mov	 edx, DWORD PTR _ar$[ebp]

; 103  : 			nElementsLeft -= nElementsToRead;
; 104  : 			pData += nElementsToRead;

  00088	03 cb		 add	 ecx, ebx
  0008a	89 4d 0c	 mov	 DWORD PTR _pElements$[ebp], ecx
  0008d	2b f7		 sub	 esi, edi
  0008f	75 d3		 jne	 SHORT $LL7@SerializeE

; 105  : 		}
; 106  : 	}
; 107  : }

  00091	5f		 pop	 edi
  00092	5e		 pop	 esi
  00093	5b		 pop	 ebx
  00094	5d		 pop	 ebp
  00095	c2 0c 00	 ret	 12			; 0000000cH
$LN23@SerializeE:
; File C:\Program Files (x86)\Microsoft Visual Studio\2019\Community\VC\Tools\MSVC\14.29.30133\atlmfc\include\afx.inl

; 402  : 		AfxThrowArchiveException(CArchiveException::endOfFile);

  00098	6a 00		 push	 0
  0009a	6a 03		 push	 3
  0009c	e8 00 00 00 00	 call	 ?AfxThrowArchiveException@@YGXHPBD@Z ; AfxThrowArchiveException
$LN34@SerializeE:
; File C:\Program Files (x86)\Microsoft Visual Studio\2019\Community\VC\Tools\MSVC\14.29.30133\atlmfc\include\afxtempl.h

; 68   : 	ENSURE(nCount == 0 || pElements != NULL);

  000a1	e8 00 00 00 00	 call	 ?AfxThrowInvalidArgException@@YGXXZ ; AfxThrowInvalidArgException
$LN32@SerializeE:
  000a6	cc		 int	 3
??$SerializeElements@PAVCSymbolDlg@@@@YGXAAVCArchive@@PAPAVCSymbolDlg@@H@Z ENDP ; SerializeElements<CSymbolDlg *>
_TEXT	ENDS
; Function compile flags: /Ogtp
; File C:\Program Files (x86)\Microsoft Visual Studio\2019\Community\VC\Tools\MSVC\14.29.30133\atlmfc\include\afxtempl.h
; File C:\Program Files (x86)\Microsoft Visual Studio\2019\Community\VC\Tools\MSVC\14.29.30133\atlmfc\include\afx.inl
; File C:\Program Files (x86)\Microsoft Visual Studio\2019\Community\VC\Tools\MSVC\14.29.30133\atlmfc\include\afxtempl.h
; File C:\Program Files (x86)\Microsoft Visual Studio\2019\Community\VC\Tools\MSVC\14.29.30133\atlmfc\include\afx.inl
; File C:\Program Files (x86)\Microsoft Visual Studio\2019\Community\VC\Tools\MSVC\14.29.30133\atlmfc\include\afxtempl.h
; File C:\Program Files (x86)\Microsoft Visual Studio\2019\Community\VC\Tools\MSVC\14.29.30133\atlmfc\include\afx.inl
; File C:\Program Files (x86)\Microsoft Visual Studio\2019\Community\VC\Tools\MSVC\14.29.30133\atlmfc\include\afxtempl.h
;	COMDAT ??$SerializeElements@H@@YGXAAVCArchive@@PAHH@Z
_TEXT	SEGMENT
_ar$ = 8						; size = 4
_pElements$ = 12					; size = 4
_nCount$ = 16						; size = 4
??$SerializeElements@H@@YGXAAVCArchive@@PAHH@Z PROC	; SerializeElements<int>, COMDAT

; 67   : {

  00000	55		 push	 ebp
  00001	8b ec		 mov	 ebp, esp

; 68   : 	ENSURE(nCount == 0 || pElements != NULL);

  00003	8b 4d 0c	 mov	 ecx, DWORD PTR _pElements$[ebp]
  00006	53		 push	 ebx
  00007	56		 push	 esi
  00008	8b 75 10	 mov	 esi, DWORD PTR _nCount$[ebp]
  0000b	57		 push	 edi
  0000c	85 f6		 test	 esi, esi
  0000e	74 08		 je	 SHORT $LN2@SerializeE
  00010	85 c9		 test	 ecx, ecx
  00012	0f 84 89 00 00
	00		 je	 $LN34@SerializeE
$LN2@SerializeE:
; File C:\Program Files (x86)\Microsoft Visual Studio\2019\Community\VC\Tools\MSVC\14.29.30133\atlmfc\include\afx.inl

; 212  : 	{ return (m_nMode & CArchive::load) == 0; }

  00018	8b 55 08	 mov	 edx, DWORD PTR _ar$[ebp]
  0001b	8b 42 18	 mov	 eax, DWORD PTR [edx+24]
  0001e	f7 d0		 not	 eax
  00020	a8 01		 test	 al, 1
; File C:\Program Files (x86)\Microsoft Visual Studio\2019\Community\VC\Tools\MSVC\14.29.30133\atlmfc\include\afxtempl.h

; 73   : 	if (ar.IsStoring())

  00022	74 3c		 je	 SHORT $LN10@SerializeE

; 74   : 	{
; 75   : 		TYPE* pData;
; 76   : 		UINT_PTR nElementsLeft;
; 77   : 
; 78   : 		nElementsLeft = nCount;
; 79   : 		pData = pElements;
; 80   : 		while( nElementsLeft > 0 )

  00024	85 f6		 test	 esi, esi
  00026	74 31		 je	 SHORT $LN8@SerializeE
  00028	0f 1f 84 00 00
	00 00 00	 npad	 8
$LL5@SerializeE:

; 81   : 		{
; 82   : 			UINT nElementsToWrite;
; 83   : 
; 84   : 			nElementsToWrite = UINT(__min(nElementsLeft, INT_MAX/sizeof(TYPE)));

  00030	bb ff ff ff 1f	 mov	 ebx, 536870911		; 1fffffffH
  00035	3b f3		 cmp	 esi, ebx
  00037	0f 42 de	 cmovb	 ebx, esi

; 85   : 			ar.Write(pData, nElementsToWrite*sizeof(TYPE));

  0003a	8d 3c 9d 00 00
	00 00		 lea	 edi, DWORD PTR [ebx*4]
  00041	57		 push	 edi
  00042	51		 push	 ecx
  00043	8b ca		 mov	 ecx, edx
  00045	e8 00 00 00 00	 call	 ?Write@CArchive@@QAEXPBXI@Z ; CArchive::Write

; 86   : 			nElementsLeft -= nElementsToWrite;
; 87   : 			pData += nElementsToWrite;

  0004a	8b 4d 0c	 mov	 ecx, DWORD PTR _pElements$[ebp]
  0004d	8b 55 08	 mov	 edx, DWORD PTR _ar$[ebp]
  00050	03 cf		 add	 ecx, edi
  00052	89 4d 0c	 mov	 DWORD PTR _pElements$[ebp], ecx
  00055	2b f3		 sub	 esi, ebx
  00057	75 d7		 jne	 SHORT $LL5@SerializeE
$LN8@SerializeE:
  00059	5f		 pop	 edi

; 105  : 		}
; 106  : 	}
; 107  : }

  0005a	5e		 pop	 esi
  0005b	5b		 pop	 ebx
  0005c	5d		 pop	 ebp
  0005d	c2 0c 00	 ret	 12			; 0000000cH
$LN10@SerializeE:

; 97   : 		while( nElementsLeft > 0 )

  00060	85 f6		 test	 esi, esi
  00062	74 f5		 je	 SHORT $LN8@SerializeE
$LL7@SerializeE:

; 98   : 		{
; 99   : 			UINT nElementsToRead;
; 100  : 
; 101  : 			nElementsToRead = UINT(__min(nElementsLeft, INT_MAX/sizeof(TYPE)));

  00064	bf ff ff ff 1f	 mov	 edi, 536870911		; 1fffffffH
  00069	3b f7		 cmp	 esi, edi
  0006b	0f 42 fe	 cmovb	 edi, esi

; 102  : 			ar.EnsureRead(pData, nElementsToRead*sizeof(TYPE));

  0006e	8d 1c bd 00 00
	00 00		 lea	 ebx, DWORD PTR [edi*4]
; File C:\Program Files (x86)\Microsoft Visual Studio\2019\Community\VC\Tools\MSVC\14.29.30133\atlmfc\include\afx.inl

; 399  : 	UINT nRead=Read(lpBuf, nCount);

  00075	53		 push	 ebx
  00076	51		 push	 ecx
  00077	8b ca		 mov	 ecx, edx
  00079	e8 00 00 00 00	 call	 ?Read@CArchive@@QAEIPAXI@Z ; CArchive::Read

; 400  : 	if(nRead!=nCount)

  0007e	3b c3		 cmp	 eax, ebx
  00080	75 16		 jne	 SHORT $LN23@SerializeE
; File C:\Program Files (x86)\Microsoft Visual Studio\2019\Community\VC\Tools\MSVC\14.29.30133\atlmfc\include\afxtempl.h

; 97   : 		while( nElementsLeft > 0 )

  00082	8b 4d 0c	 mov	 ecx, DWORD PTR _pElements$[ebp]
  00085	8b 55 08	 mov	 edx, DWORD PTR _ar$[ebp]

; 103  : 			nElementsLeft -= nElementsToRead;
; 104  : 			pData += nElementsToRead;

  00088	03 cb		 add	 ecx, ebx
  0008a	89 4d 0c	 mov	 DWORD PTR _pElements$[ebp], ecx
  0008d	2b f7		 sub	 esi, edi
  0008f	75 d3		 jne	 SHORT $LL7@SerializeE

; 105  : 		}
; 106  : 	}
; 107  : }

  00091	5f		 pop	 edi
  00092	5e		 pop	 esi
  00093	5b		 pop	 ebx
  00094	5d		 pop	 ebp
  00095	c2 0c 00	 ret	 12			; 0000000cH
$LN23@SerializeE:
; File C:\Program Files (x86)\Microsoft Visual Studio\2019\Community\VC\Tools\MSVC\14.29.30133\atlmfc\include\afx.inl

; 402  : 		AfxThrowArchiveException(CArchiveException::endOfFile);

  00098	6a 00		 push	 0
  0009a	6a 03		 push	 3
  0009c	e8 00 00 00 00	 call	 ?AfxThrowArchiveException@@YGXHPBD@Z ; AfxThrowArchiveException
$LN34@SerializeE:
; File C:\Program Files (x86)\Microsoft Visual Studio\2019\Community\VC\Tools\MSVC\14.29.30133\atlmfc\include\afxtempl.h

; 68   : 	ENSURE(nCount == 0 || pElements != NULL);

  000a1	e8 00 00 00 00	 call	 ?AfxThrowInvalidArgException@@YGXXZ ; AfxThrowInvalidArgException
$LN32@SerializeE:
  000a6	cc		 int	 3
??$SerializeElements@H@@YGXAAVCArchive@@PAHH@Z ENDP	; SerializeElements<int>
_TEXT	ENDS
; Function compile flags: /Ogtp
; File C:\Program Files (x86)\Microsoft Visual Studio\2019\Community\VC\Tools\MSVC\14.29.30133\atlmfc\include\afxtempl.h
; File C:\Program Files (x86)\Microsoft Visual Studio\2019\Community\VC\Tools\MSVC\14.29.30133\atlmfc\include\afx.inl
; File C:\Program Files (x86)\Microsoft Visual Studio\2019\Community\VC\Tools\MSVC\14.29.30133\atlmfc\include\afxtempl.h
; File C:\Program Files (x86)\Microsoft Visual Studio\2019\Community\VC\Tools\MSVC\14.29.30133\atlmfc\include\afx.inl
; File C:\Program Files (x86)\Microsoft Visual Studio\2019\Community\VC\Tools\MSVC\14.29.30133\atlmfc\include\afxtempl.h
; File C:\Program Files (x86)\Microsoft Visual Studio\2019\Community\VC\Tools\MSVC\14.29.30133\atlmfc\include\afx.inl
; File C:\Program Files (x86)\Microsoft Visual Studio\2019\Community\VC\Tools\MSVC\14.29.30133\atlmfc\include\afxtempl.h
;	COMDAT ??$SerializeElements@PAVCUndo_Redo_Info@@@@YGXAAVCArchive@@PAPAVCUndo_Redo_Info@@H@Z
_TEXT	SEGMENT
_ar$ = 8						; size = 4
_pElements$ = 12					; size = 4
_nCount$ = 16						; size = 4
??$SerializeElements@PAVCUndo_Redo_Info@@@@YGXAAVCArchive@@PAPAVCUndo_Redo_Info@@H@Z PROC ; SerializeElements<CUndo_Redo_Info *>, COMDAT

; 67   : {

  00000	55		 push	 ebp
  00001	8b ec		 mov	 ebp, esp

; 68   : 	ENSURE(nCount == 0 || pElements != NULL);

  00003	8b 4d 0c	 mov	 ecx, DWORD PTR _pElements$[ebp]
  00006	53		 push	 ebx
  00007	56		 push	 esi
  00008	8b 75 10	 mov	 esi, DWORD PTR _nCount$[ebp]
  0000b	57		 push	 edi
  0000c	85 f6		 test	 esi, esi
  0000e	74 08		 je	 SHORT $LN2@SerializeE
  00010	85 c9		 test	 ecx, ecx
  00012	0f 84 89 00 00
	00		 je	 $LN34@SerializeE
$LN2@SerializeE:
; File C:\Program Files (x86)\Microsoft Visual Studio\2019\Community\VC\Tools\MSVC\14.29.30133\atlmfc\include\afx.inl

; 212  : 	{ return (m_nMode & CArchive::load) == 0; }

  00018	8b 55 08	 mov	 edx, DWORD PTR _ar$[ebp]
  0001b	8b 42 18	 mov	 eax, DWORD PTR [edx+24]
  0001e	f7 d0		 not	 eax
  00020	a8 01		 test	 al, 1
; File C:\Program Files (x86)\Microsoft Visual Studio\2019\Community\VC\Tools\MSVC\14.29.30133\atlmfc\include\afxtempl.h

; 73   : 	if (ar.IsStoring())

  00022	74 3c		 je	 SHORT $LN10@SerializeE

; 74   : 	{
; 75   : 		TYPE* pData;
; 76   : 		UINT_PTR nElementsLeft;
; 77   : 
; 78   : 		nElementsLeft = nCount;
; 79   : 		pData = pElements;
; 80   : 		while( nElementsLeft > 0 )

  00024	85 f6		 test	 esi, esi
  00026	74 31		 je	 SHORT $LN8@SerializeE
  00028	0f 1f 84 00 00
	00 00 00	 npad	 8
$LL5@SerializeE:

; 81   : 		{
; 82   : 			UINT nElementsToWrite;
; 83   : 
; 84   : 			nElementsToWrite = UINT(__min(nElementsLeft, INT_MAX/sizeof(TYPE)));

  00030	bb ff ff ff 1f	 mov	 ebx, 536870911		; 1fffffffH
  00035	3b f3		 cmp	 esi, ebx
  00037	0f 42 de	 cmovb	 ebx, esi

; 85   : 			ar.Write(pData, nElementsToWrite*sizeof(TYPE));

  0003a	8d 3c 9d 00 00
	00 00		 lea	 edi, DWORD PTR [ebx*4]
  00041	57		 push	 edi
  00042	51		 push	 ecx
  00043	8b ca		 mov	 ecx, edx
  00045	e8 00 00 00 00	 call	 ?Write@CArchive@@QAEXPBXI@Z ; CArchive::Write

; 86   : 			nElementsLeft -= nElementsToWrite;
; 87   : 			pData += nElementsToWrite;

  0004a	8b 4d 0c	 mov	 ecx, DWORD PTR _pElements$[ebp]
  0004d	8b 55 08	 mov	 edx, DWORD PTR _ar$[ebp]
  00050	03 cf		 add	 ecx, edi
  00052	89 4d 0c	 mov	 DWORD PTR _pElements$[ebp], ecx
  00055	2b f3		 sub	 esi, ebx
  00057	75 d7		 jne	 SHORT $LL5@SerializeE
$LN8@SerializeE:
  00059	5f		 pop	 edi

; 105  : 		}
; 106  : 	}
; 107  : }

  0005a	5e		 pop	 esi
  0005b	5b		 pop	 ebx
  0005c	5d		 pop	 ebp
  0005d	c2 0c 00	 ret	 12			; 0000000cH
$LN10@SerializeE:

; 97   : 		while( nElementsLeft > 0 )

  00060	85 f6		 test	 esi, esi
  00062	74 f5		 je	 SHORT $LN8@SerializeE
$LL7@SerializeE:

; 98   : 		{
; 99   : 			UINT nElementsToRead;
; 100  : 
; 101  : 			nElementsToRead = UINT(__min(nElementsLeft, INT_MAX/sizeof(TYPE)));

  00064	bf ff ff ff 1f	 mov	 edi, 536870911		; 1fffffffH
  00069	3b f7		 cmp	 esi, edi
  0006b	0f 42 fe	 cmovb	 edi, esi

; 102  : 			ar.EnsureRead(pData, nElementsToRead*sizeof(TYPE));

  0006e	8d 1c bd 00 00
	00 00		 lea	 ebx, DWORD PTR [edi*4]
; File C:\Program Files (x86)\Microsoft Visual Studio\2019\Community\VC\Tools\MSVC\14.29.30133\atlmfc\include\afx.inl

; 399  : 	UINT nRead=Read(lpBuf, nCount);

  00075	53		 push	 ebx
  00076	51		 push	 ecx
  00077	8b ca		 mov	 ecx, edx
  00079	e8 00 00 00 00	 call	 ?Read@CArchive@@QAEIPAXI@Z ; CArchive::Read

; 400  : 	if(nRead!=nCount)

  0007e	3b c3		 cmp	 eax, ebx
  00080	75 16		 jne	 SHORT $LN23@SerializeE
; File C:\Program Files (x86)\Microsoft Visual Studio\2019\Community\VC\Tools\MSVC\14.29.30133\atlmfc\include\afxtempl.h

; 97   : 		while( nElementsLeft > 0 )

  00082	8b 4d 0c	 mov	 ecx, DWORD PTR _pElements$[ebp]
  00085	8b 55 08	 mov	 edx, DWORD PTR _ar$[ebp]

; 103  : 			nElementsLeft -= nElementsToRead;
; 104  : 			pData += nElementsToRead;

  00088	03 cb		 add	 ecx, ebx
  0008a	89 4d 0c	 mov	 DWORD PTR _pElements$[ebp], ecx
  0008d	2b f7		 sub	 esi, edi
  0008f	75 d3		 jne	 SHORT $LL7@SerializeE

; 105  : 		}
; 106  : 	}
; 107  : }

  00091	5f		 pop	 edi
  00092	5e		 pop	 esi
  00093	5b		 pop	 ebx
  00094	5d		 pop	 ebp
  00095	c2 0c 00	 ret	 12			; 0000000cH
$LN23@SerializeE:
; File C:\Program Files (x86)\Microsoft Visual Studio\2019\Community\VC\Tools\MSVC\14.29.30133\atlmfc\include\afx.inl

; 402  : 		AfxThrowArchiveException(CArchiveException::endOfFile);

  00098	6a 00		 push	 0
  0009a	6a 03		 push	 3
  0009c	e8 00 00 00 00	 call	 ?AfxThrowArchiveException@@YGXHPBD@Z ; AfxThrowArchiveException
$LN34@SerializeE:
; File C:\Program Files (x86)\Microsoft Visual Studio\2019\Community\VC\Tools\MSVC\14.29.30133\atlmfc\include\afxtempl.h

; 68   : 	ENSURE(nCount == 0 || pElements != NULL);

  000a1	e8 00 00 00 00	 call	 ?AfxThrowInvalidArgException@@YGXXZ ; AfxThrowInvalidArgException
$LN32@SerializeE:
  000a6	cc		 int	 3
??$SerializeElements@PAVCUndo_Redo_Info@@@@YGXAAVCArchive@@PAPAVCUndo_Redo_Info@@H@Z ENDP ; SerializeElements<CUndo_Redo_Info *>
_TEXT	ENDS
; Function compile flags: /Ogtp
; File C:\Program Files (x86)\Microsoft Visual Studio\2019\Community\VC\Tools\MSVC\14.29.30133\atlmfc\include\afxtempl.h
; File C:\Program Files (x86)\Microsoft Visual Studio\2019\Community\VC\Tools\MSVC\14.29.30133\atlmfc\include\afx.inl
; File C:\Program Files (x86)\Microsoft Visual Studio\2019\Community\VC\Tools\MSVC\14.29.30133\atlmfc\include\afxtempl.h
; File C:\Program Files (x86)\Microsoft Visual Studio\2019\Community\VC\Tools\MSVC\14.29.30133\atlmfc\include\afx.inl
; File C:\Program Files (x86)\Microsoft Visual Studio\2019\Community\VC\Tools\MSVC\14.29.30133\atlmfc\include\afxtempl.h
; File C:\Program Files (x86)\Microsoft Visual Studio\2019\Community\VC\Tools\MSVC\14.29.30133\atlmfc\include\afx.inl
; File C:\Program Files (x86)\Microsoft Visual Studio\2019\Community\VC\Tools\MSVC\14.29.30133\atlmfc\include\afxtempl.h
;	COMDAT ??$SerializeElements@PAVCDrawingSymbol@@@@YGXAAVCArchive@@PAPAVCDrawingSymbol@@H@Z
_TEXT	SEGMENT
_ar$ = 8						; size = 4
_pElements$ = 12					; size = 4
_nCount$ = 16						; size = 4
??$SerializeElements@PAVCDrawingSymbol@@@@YGXAAVCArchive@@PAPAVCDrawingSymbol@@H@Z PROC ; SerializeElements<CDrawingSymbol *>, COMDAT

; 67   : {

  00000	55		 push	 ebp
  00001	8b ec		 mov	 ebp, esp

; 68   : 	ENSURE(nCount == 0 || pElements != NULL);

  00003	8b 4d 0c	 mov	 ecx, DWORD PTR _pElements$[ebp]
  00006	53		 push	 ebx
  00007	56		 push	 esi
  00008	8b 75 10	 mov	 esi, DWORD PTR _nCount$[ebp]
  0000b	57		 push	 edi
  0000c	85 f6		 test	 esi, esi
  0000e	74 08		 je	 SHORT $LN2@SerializeE
  00010	85 c9		 test	 ecx, ecx
  00012	0f 84 89 00 00
	00		 je	 $LN34@SerializeE
$LN2@SerializeE:
; File C:\Program Files (x86)\Microsoft Visual Studio\2019\Community\VC\Tools\MSVC\14.29.30133\atlmfc\include\afx.inl

; 212  : 	{ return (m_nMode & CArchive::load) == 0; }

  00018	8b 55 08	 mov	 edx, DWORD PTR _ar$[ebp]
  0001b	8b 42 18	 mov	 eax, DWORD PTR [edx+24]
  0001e	f7 d0		 not	 eax
  00020	a8 01		 test	 al, 1
; File C:\Program Files (x86)\Microsoft Visual Studio\2019\Community\VC\Tools\MSVC\14.29.30133\atlmfc\include\afxtempl.h

; 73   : 	if (ar.IsStoring())

  00022	74 3c		 je	 SHORT $LN10@SerializeE

; 74   : 	{
; 75   : 		TYPE* pData;
; 76   : 		UINT_PTR nElementsLeft;
; 77   : 
; 78   : 		nElementsLeft = nCount;
; 79   : 		pData = pElements;
; 80   : 		while( nElementsLeft > 0 )

  00024	85 f6		 test	 esi, esi
  00026	74 31		 je	 SHORT $LN8@SerializeE
  00028	0f 1f 84 00 00
	00 00 00	 npad	 8
$LL5@SerializeE:

; 81   : 		{
; 82   : 			UINT nElementsToWrite;
; 83   : 
; 84   : 			nElementsToWrite = UINT(__min(nElementsLeft, INT_MAX/sizeof(TYPE)));

  00030	bb ff ff ff 1f	 mov	 ebx, 536870911		; 1fffffffH
  00035	3b f3		 cmp	 esi, ebx
  00037	0f 42 de	 cmovb	 ebx, esi

; 85   : 			ar.Write(pData, nElementsToWrite*sizeof(TYPE));

  0003a	8d 3c 9d 00 00
	00 00		 lea	 edi, DWORD PTR [ebx*4]
  00041	57		 push	 edi
  00042	51		 push	 ecx
  00043	8b ca		 mov	 ecx, edx
  00045	e8 00 00 00 00	 call	 ?Write@CArchive@@QAEXPBXI@Z ; CArchive::Write

; 86   : 			nElementsLeft -= nElementsToWrite;
; 87   : 			pData += nElementsToWrite;

  0004a	8b 4d 0c	 mov	 ecx, DWORD PTR _pElements$[ebp]
  0004d	8b 55 08	 mov	 edx, DWORD PTR _ar$[ebp]
  00050	03 cf		 add	 ecx, edi
  00052	89 4d 0c	 mov	 DWORD PTR _pElements$[ebp], ecx
  00055	2b f3		 sub	 esi, ebx
  00057	75 d7		 jne	 SHORT $LL5@SerializeE
$LN8@SerializeE:
  00059	5f		 pop	 edi

; 105  : 		}
; 106  : 	}
; 107  : }

  0005a	5e		 pop	 esi
  0005b	5b		 pop	 ebx
  0005c	5d		 pop	 ebp
  0005d	c2 0c 00	 ret	 12			; 0000000cH
$LN10@SerializeE:

; 97   : 		while( nElementsLeft > 0 )

  00060	85 f6		 test	 esi, esi
  00062	74 f5		 je	 SHORT $LN8@SerializeE
$LL7@SerializeE:

; 98   : 		{
; 99   : 			UINT nElementsToRead;
; 100  : 
; 101  : 			nElementsToRead = UINT(__min(nElementsLeft, INT_MAX/sizeof(TYPE)));

  00064	bf ff ff ff 1f	 mov	 edi, 536870911		; 1fffffffH
  00069	3b f7		 cmp	 esi, edi
  0006b	0f 42 fe	 cmovb	 edi, esi

; 102  : 			ar.EnsureRead(pData, nElementsToRead*sizeof(TYPE));

  0006e	8d 1c bd 00 00
	00 00		 lea	 ebx, DWORD PTR [edi*4]
; File C:\Program Files (x86)\Microsoft Visual Studio\2019\Community\VC\Tools\MSVC\14.29.30133\atlmfc\include\afx.inl

; 399  : 	UINT nRead=Read(lpBuf, nCount);

  00075	53		 push	 ebx
  00076	51		 push	 ecx
  00077	8b ca		 mov	 ecx, edx
  00079	e8 00 00 00 00	 call	 ?Read@CArchive@@QAEIPAXI@Z ; CArchive::Read

; 400  : 	if(nRead!=nCount)

  0007e	3b c3		 cmp	 eax, ebx
  00080	75 16		 jne	 SHORT $LN23@SerializeE
; File C:\Program Files (x86)\Microsoft Visual Studio\2019\Community\VC\Tools\MSVC\14.29.30133\atlmfc\include\afxtempl.h

; 97   : 		while( nElementsLeft > 0 )

  00082	8b 4d 0c	 mov	 ecx, DWORD PTR _pElements$[ebp]
  00085	8b 55 08	 mov	 edx, DWORD PTR _ar$[ebp]

; 103  : 			nElementsLeft -= nElementsToRead;
; 104  : 			pData += nElementsToRead;

  00088	03 cb		 add	 ecx, ebx
  0008a	89 4d 0c	 mov	 DWORD PTR _pElements$[ebp], ecx
  0008d	2b f7		 sub	 esi, edi
  0008f	75 d3		 jne	 SHORT $LL7@SerializeE

; 105  : 		}
; 106  : 	}
; 107  : }

  00091	5f		 pop	 edi
  00092	5e		 pop	 esi
  00093	5b		 pop	 ebx
  00094	5d		 pop	 ebp
  00095	c2 0c 00	 ret	 12			; 0000000cH
$LN23@SerializeE:
; File C:\Program Files (x86)\Microsoft Visual Studio\2019\Community\VC\Tools\MSVC\14.29.30133\atlmfc\include\afx.inl

; 402  : 		AfxThrowArchiveException(CArchiveException::endOfFile);

  00098	6a 00		 push	 0
  0009a	6a 03		 push	 3
  0009c	e8 00 00 00 00	 call	 ?AfxThrowArchiveException@@YGXHPBD@Z ; AfxThrowArchiveException
$LN34@SerializeE:
; File C:\Program Files (x86)\Microsoft Visual Studio\2019\Community\VC\Tools\MSVC\14.29.30133\atlmfc\include\afxtempl.h

; 68   : 	ENSURE(nCount == 0 || pElements != NULL);

  000a1	e8 00 00 00 00	 call	 ?AfxThrowInvalidArgException@@YGXXZ ; AfxThrowInvalidArgException
$LN32@SerializeE:
  000a6	cc		 int	 3
??$SerializeElements@PAVCDrawingSymbol@@@@YGXAAVCArchive@@PAPAVCDrawingSymbol@@H@Z ENDP ; SerializeElements<CDrawingSymbol *>
_TEXT	ENDS
; Function compile flags: /Ogtp
; File C:\Program Files (x86)\Microsoft Visual Studio\2019\Community\VC\Tools\MSVC\14.29.30133\atlmfc\include\afxtempl.h
;	COMDAT ??__F?g_mapSymbolType@CMainSymbolImplementation@@1V?$CMap@HHW4TOOLTYPE@CSymbolBaseData@@W412@@@A@@YAXXZ
text$yd	SEGMENT
__$EHRec$ = -12						; size = 12
??__F?g_mapSymbolType@CMainSymbolImplementation@@1V?$CMap@HHW4TOOLTYPE@CSymbolBaseData@@W412@@@A@@YAXXZ PROC ; `dynamic atexit destructor for 'CMainSymbolImplementation::g_mapSymbolType'', COMDAT
  00000	55		 push	 ebp
  00001	8b ec		 mov	 ebp, esp
  00003	6a ff		 push	 -1
  00005	68 00 00 00 00	 push	 __ehhandler$??__F?g_mapSymbolType@CMainSymbolImplementation@@1V?$CMap@HHW4TOOLTYPE@CSymbolBaseData@@W412@@@A@@YAXXZ
  0000a	64 a1 00 00 00
	00		 mov	 eax, DWORD PTR fs:0
  00010	50		 push	 eax
  00011	a1 00 00 00 00	 mov	 eax, DWORD PTR ___security_cookie
  00016	33 c5		 xor	 eax, ebp
  00018	50		 push	 eax
  00019	8d 45 f4	 lea	 eax, DWORD PTR __$EHRec$[ebp]
  0001c	64 a3 00 00 00
	00		 mov	 DWORD PTR fs:0, eax

; 1446 : 	if (m_pHashTable != NULL)

  00022	a1 04 00 00 00	 mov	 eax, DWORD PTR ?g_mapSymbolType@CMainSymbolImplementation@@1V?$CMap@HHW4TOOLTYPE@CSymbolBaseData@@W412@@@A+4

; 1472 : {

  00027	c7 45 fc 00 00
	00 00		 mov	 DWORD PTR __$EHRec$[ebp+8], 0
  0002e	c7 05 00 00 00
	00 00 00 00 00	 mov	 DWORD PTR ?g_mapSymbolType@CMainSymbolImplementation@@1V?$CMap@HHW4TOOLTYPE@CSymbolBaseData@@W412@@@A, OFFSET ??_7?$CMap@HHW4TOOLTYPE@CSymbolBaseData@@W412@@@6B@

; 1446 : 	if (m_pHashTable != NULL)

  00038	85 c0		 test	 eax, eax
  0003a	74 13		 je	 SHORT $LN13@g_mapSymbo

; 1447 : 	{
; 1448 : 		// destroy elements (values and keys)
; 1449 : 		for (UINT nHash = 0; nHash < m_nHashTableSize; nHash++)
; 1450 : 		{
; 1451 : 			CAssoc* pAssoc;
; 1452 : 			for (pAssoc = m_pHashTable[nHash]; pAssoc != NULL;
; 1453 : 			  pAssoc = pAssoc->pNext)
; 1454 : 			{
; 1455 : 				pAssoc->CAssoc::~CAssoc();
; 1456 : 			}
; 1457 : 		}
; 1458 : 
; 1459 : 		// free hash table
; 1460 : 		delete[] m_pHashTable;

  0003c	50		 push	 eax
  0003d	e8 00 00 00 00	 call	 ??_V@YAXPAX@Z		; operator delete[]
  00042	83 c4 04	 add	 esp, 4

; 1461 : 		m_pHashTable = NULL;

  00045	c7 05 04 00 00
	00 00 00 00 00	 mov	 DWORD PTR ?g_mapSymbolType@CMainSymbolImplementation@@1V?$CMap@HHW4TOOLTYPE@CSymbolBaseData@@W412@@@A+4, 0
$LN13@g_mapSymbo:

; 1462 : 	}
; 1463 : 
; 1464 : 	m_nCount = 0;
; 1465 : 	m_pFreeList = NULL;
; 1466 : 	m_pBlocks->FreeDataChain();

  0004f	8b 0d 14 00 00
	00		 mov	 ecx, DWORD PTR ?g_mapSymbolType@CMainSymbolImplementation@@1V?$CMap@HHW4TOOLTYPE@CSymbolBaseData@@W412@@@A+20
  00055	c7 05 0c 00 00
	00 00 00 00 00	 mov	 DWORD PTR ?g_mapSymbolType@CMainSymbolImplementation@@1V?$CMap@HHW4TOOLTYPE@CSymbolBaseData@@W412@@@A+12, 0
  0005f	c7 05 10 00 00
	00 00 00 00 00	 mov	 DWORD PTR ?g_mapSymbolType@CMainSymbolImplementation@@1V?$CMap@HHW4TOOLTYPE@CSymbolBaseData@@W412@@@A+16, 0
  00069	e8 00 00 00 00	 call	 ?FreeDataChain@CPlex@@QAEXXZ ; CPlex::FreeDataChain

; 1467 : 	m_pBlocks = NULL;

  0006e	c7 05 14 00 00
	00 00 00 00 00	 mov	 DWORD PTR ?g_mapSymbolType@CMainSymbolImplementation@@1V?$CMap@HHW4TOOLTYPE@CSymbolBaseData@@W412@@@A+20, 0
  00078	8b 4d f4	 mov	 ecx, DWORD PTR __$EHRec$[ebp]
  0007b	64 89 0d 00 00
	00 00		 mov	 DWORD PTR fs:0, ecx
  00082	59		 pop	 ecx
  00083	8b e5		 mov	 esp, ebp
  00085	5d		 pop	 ebp
  00086	c3		 ret	 0
  00087	cc		 int	 3
  00088	cc		 int	 3
  00089	cc		 int	 3
  0008a	cc		 int	 3
  0008b	cc		 int	 3
text$yd	ENDS
;	COMDAT text$x
text$x	SEGMENT
__ehhandler$??__F?g_mapSymbolType@CMainSymbolImplementation@@1V?$CMap@HHW4TOOLTYPE@CSymbolBaseData@@W412@@@A@@YAXXZ:
  00000	90		 npad	 1
  00001	90		 npad	 1
  00002	8b 54 24 08	 mov	 edx, DWORD PTR [esp+8]
  00006	8d 42 0c	 lea	 eax, DWORD PTR [edx+12]
  00009	8b 4a fc	 mov	 ecx, DWORD PTR [edx-4]
  0000c	33 c8		 xor	 ecx, eax
  0000e	e8 00 00 00 00	 call	 @__security_check_cookie@4
  00013	b8 00 00 00 00	 mov	 eax, OFFSET __ehfuncinfo$??__F?g_mapSymbolType@CMainSymbolImplementation@@1V?$CMap@HHW4TOOLTYPE@CSymbolBaseData@@W412@@@A@@YAXXZ
  00018	e9 00 00 00 00	 jmp	 ___CxxFrameHandler3
text$x	ENDS
??__F?g_mapSymbolType@CMainSymbolImplementation@@1V?$CMap@HHW4TOOLTYPE@CSymbolBaseData@@W412@@@A@@YAXXZ ENDP ; `dynamic atexit destructor for 'CMainSymbolImplementation::g_mapSymbolType''
; Function compile flags: /Ogtp
; File D:\git\src\IBK\IBK_DRFN\ProjSrc\SrcChartEx\ChartAddIn\ChartAnalysisToolAddIn\Symbol\MainSymbolImplementation.cpp
;	COMDAT ??__E?g_mapSymbolType@CMainSymbolImplementation@@1V?$CMap@HHW4TOOLTYPE@CSymbolBaseData@@W412@@@A@@YAXXZ
text$di	SEGMENT
??__E?g_mapSymbolType@CMainSymbolImplementation@@1V?$CMap@HHW4TOOLTYPE@CSymbolBaseData@@W412@@@A@@YAXXZ PROC ; `dynamic initializer for 'CMainSymbolImplementation::g_mapSymbolType'', COMDAT

; 33   : CMap<int, int, CSymbolBaseData::TOOLTYPE,CSymbolBaseData::TOOLTYPE> CMainSymbolImplementation::g_mapSymbolType;

  00000	68 00 00 00 00	 push	 OFFSET ??__F?g_mapSymbolType@CMainSymbolImplementation@@1V?$CMap@HHW4TOOLTYPE@CSymbolBaseData@@W412@@@A@@YAXXZ ; `dynamic atexit destructor for 'CMainSymbolImplementation::g_mapSymbolType''
  00005	e8 00 00 00 00	 call	 _atexit
  0000a	59		 pop	 ecx
  0000b	c3		 ret	 0
??__E?g_mapSymbolType@CMainSymbolImplementation@@1V?$CMap@HHW4TOOLTYPE@CSymbolBaseData@@W412@@@A@@YAXXZ ENDP ; `dynamic initializer for 'CMainSymbolImplementation::g_mapSymbolType''
text$di	ENDS
; Function compile flags: /Ogtp
; File C:\Program Files (x86)\Microsoft Visual Studio\2019\Community\VC\Tools\MSVC\14.29.30133\atlmfc\include\afxtempl.h
; File C:\Program Files (x86)\Microsoft Visual Studio\2019\Community\VC\Tools\MSVC\14.29.30133\atlmfc\include\afx.inl
;	COMDAT ??_G?$CMap@HHW4TOOLTYPE@CSymbolBaseData@@W412@@@UAEPAXI@Z
_TEXT	SEGMENT
__$EHRec$ = -12						; size = 12
___flags$ = 8						; size = 4
??_G?$CMap@HHW4TOOLTYPE@CSymbolBaseData@@W412@@@UAEPAXI@Z PROC ; CMap<int,int,enum CSymbolBaseData::TOOLTYPE,enum CSymbolBaseData::TOOLTYPE>::`scalar deleting destructor', COMDAT
; _this$ = ecx
  00000	55		 push	 ebp
  00001	8b ec		 mov	 ebp, esp
  00003	6a ff		 push	 -1
  00005	68 00 00 00 00	 push	 __ehhandler$??_G?$CMap@HHW4TOOLTYPE@CSymbolBaseData@@W412@@@UAEPAXI@Z
  0000a	64 a1 00 00 00
	00		 mov	 eax, DWORD PTR fs:0
  00010	50		 push	 eax
  00011	56		 push	 esi
  00012	a1 00 00 00 00	 mov	 eax, DWORD PTR ___security_cookie
  00017	33 c5		 xor	 eax, ebp
  00019	50		 push	 eax
  0001a	8d 45 f4	 lea	 eax, DWORD PTR __$EHRec$[ebp]
  0001d	64 a3 00 00 00
	00		 mov	 DWORD PTR fs:0, eax
  00023	8b f1		 mov	 esi, ecx
; File C:\Program Files (x86)\Microsoft Visual Studio\2019\Community\VC\Tools\MSVC\14.29.30133\atlmfc\include\afxtempl.h

; 1446 : 	if (m_pHashTable != NULL)

  00025	8b 46 04	 mov	 eax, DWORD PTR [esi+4]

; 1472 : {

  00028	c7 45 fc 00 00
	00 00		 mov	 DWORD PTR __$EHRec$[ebp+8], 0
  0002f	c7 06 00 00 00
	00		 mov	 DWORD PTR [esi], OFFSET ??_7?$CMap@HHW4TOOLTYPE@CSymbolBaseData@@W412@@@6B@

; 1446 : 	if (m_pHashTable != NULL)

  00035	85 c0		 test	 eax, eax
  00037	74 10		 je	 SHORT $LN17@scalar

; 1447 : 	{
; 1448 : 		// destroy elements (values and keys)
; 1449 : 		for (UINT nHash = 0; nHash < m_nHashTableSize; nHash++)
; 1450 : 		{
; 1451 : 			CAssoc* pAssoc;
; 1452 : 			for (pAssoc = m_pHashTable[nHash]; pAssoc != NULL;
; 1453 : 			  pAssoc = pAssoc->pNext)
; 1454 : 			{
; 1455 : 				pAssoc->CAssoc::~CAssoc();
; 1456 : 			}
; 1457 : 		}
; 1458 : 
; 1459 : 		// free hash table
; 1460 : 		delete[] m_pHashTable;

  00039	50		 push	 eax
  0003a	e8 00 00 00 00	 call	 ??_V@YAXPAX@Z		; operator delete[]
  0003f	83 c4 04	 add	 esp, 4

; 1461 : 		m_pHashTable = NULL;

  00042	c7 46 04 00 00
	00 00		 mov	 DWORD PTR [esi+4], 0
$LN17@scalar:

; 1462 : 	}
; 1463 : 
; 1464 : 	m_nCount = 0;
; 1465 : 	m_pFreeList = NULL;
; 1466 : 	m_pBlocks->FreeDataChain();

  00049	8b 4e 14	 mov	 ecx, DWORD PTR [esi+20]
  0004c	c7 46 0c 00 00
	00 00		 mov	 DWORD PTR [esi+12], 0
  00053	c7 46 10 00 00
	00 00		 mov	 DWORD PTR [esi+16], 0
  0005a	e8 00 00 00 00	 call	 ?FreeDataChain@CPlex@@QAEXXZ ; CPlex::FreeDataChain

; 1467 : 	m_pBlocks = NULL;

  0005f	8b 45 08	 mov	 eax, DWORD PTR ___flags$[ebp]
  00062	c7 46 14 00 00
	00 00		 mov	 DWORD PTR [esi+20], 0
  00069	a8 01		 test	 al, 1
  0006b	74 2c		 je	 SHORT $LN31@scalar
  0006d	a8 04		 test	 al, 4
  0006f	75 1d		 jne	 SHORT $LN3@scalar
; File C:\Program Files (x86)\Microsoft Visual Studio\2019\Community\VC\Tools\MSVC\14.29.30133\atlmfc\include\afx.inl

; 112  : 	{ ::operator delete(p); }

  00071	56		 push	 esi
  00072	e8 00 00 00 00	 call	 ??3@YAXPAX@Z		; operator delete
  00077	83 c4 04	 add	 esp, 4
  0007a	8b c6		 mov	 eax, esi
  0007c	8b 4d f4	 mov	 ecx, DWORD PTR __$EHRec$[ebp]
  0007f	64 89 0d 00 00
	00 00		 mov	 DWORD PTR fs:0, ecx
  00086	59		 pop	 ecx
  00087	5e		 pop	 esi
  00088	8b e5		 mov	 esp, ebp
  0008a	5d		 pop	 ebp
  0008b	c2 04 00	 ret	 4
$LN3@scalar:
  0008e	6a 1c		 push	 28			; 0000001cH
  00090	56		 push	 esi
  00091	e8 00 00 00 00	 call	 ?__global_delete@@YAXPAXI@Z ; __global_delete
  00096	83 c4 08	 add	 esp, 8
$LN31@scalar:
  00099	8b c6		 mov	 eax, esi
  0009b	8b 4d f4	 mov	 ecx, DWORD PTR __$EHRec$[ebp]
  0009e	64 89 0d 00 00
	00 00		 mov	 DWORD PTR fs:0, ecx
  000a5	59		 pop	 ecx
  000a6	5e		 pop	 esi
  000a7	8b e5		 mov	 esp, ebp
  000a9	5d		 pop	 ebp
  000aa	c2 04 00	 ret	 4
  000ad	cc		 int	 3
  000ae	cc		 int	 3
  000af	cc		 int	 3
  000b0	cc		 int	 3
  000b1	cc		 int	 3
_TEXT	ENDS
;	COMDAT text$x
text$x	SEGMENT
__ehhandler$??_G?$CMap@HHW4TOOLTYPE@CSymbolBaseData@@W412@@@UAEPAXI@Z:
  00000	90		 npad	 1
  00001	90		 npad	 1
  00002	8b 54 24 08	 mov	 edx, DWORD PTR [esp+8]
  00006	8d 42 0c	 lea	 eax, DWORD PTR [edx+12]
  00009	8b 4a f8	 mov	 ecx, DWORD PTR [edx-8]
  0000c	33 c8		 xor	 ecx, eax
  0000e	e8 00 00 00 00	 call	 @__security_check_cookie@4
  00013	b8 00 00 00 00	 mov	 eax, OFFSET __ehfuncinfo$??_G?$CMap@HHW4TOOLTYPE@CSymbolBaseData@@W412@@@UAEPAXI@Z
  00018	e9 00 00 00 00	 jmp	 ___CxxFrameHandler3
text$x	ENDS
??_G?$CMap@HHW4TOOLTYPE@CSymbolBaseData@@W412@@@UAEPAXI@Z ENDP ; CMap<int,int,enum CSymbolBaseData::TOOLTYPE,enum CSymbolBaseData::TOOLTYPE>::`scalar deleting destructor'
; Function compile flags: /Ogtp
; File C:\Program Files (x86)\Microsoft Visual Studio\2019\Community\VC\Tools\MSVC\14.29.30133\atlmfc\include\afxtempl.h
; File C:\Program Files (x86)\Microsoft Visual Studio\2019\Community\VC\Tools\MSVC\14.29.30133\atlmfc\include\afx.inl
; File C:\Program Files (x86)\Microsoft Visual Studio\2019\Community\VC\Tools\MSVC\14.29.30133\atlmfc\include\afxtempl.h
; File C:\Program Files (x86)\Microsoft Visual Studio\2019\Community\VC\Tools\MSVC\14.29.30133\atlmfc\include\afx.inl
; File C:\Program Files (x86)\Microsoft Visual Studio\2019\Community\VC\Tools\MSVC\14.29.30133\atlmfc\include\afxtempl.h
; File C:\Program Files (x86)\Microsoft Visual Studio\2019\Community\VC\Tools\MSVC\14.29.30133\atlmfc\include\afx.inl
; File C:\Program Files (x86)\Microsoft Visual Studio\2019\Community\VC\Tools\MSVC\14.29.30133\atlmfc\include\afxtempl.h
; File C:\Program Files (x86)\Microsoft Visual Studio\2019\Community\VC\Tools\MSVC\14.29.30133\atlmfc\include\afx.inl
; File C:\Program Files (x86)\Microsoft Visual Studio\2019\Community\VC\Tools\MSVC\14.29.30133\atlmfc\include\afxtempl.h
; File C:\Program Files (x86)\Microsoft Visual Studio\2019\Community\VC\Tools\MSVC\14.29.30133\atlmfc\include\afx.inl
; File C:\Program Files (x86)\Microsoft Visual Studio\2019\Community\VC\Tools\MSVC\14.29.30133\atlmfc\include\afxtempl.h
; File C:\Program Files (x86)\Microsoft Visual Studio\2019\Community\VC\Tools\MSVC\14.29.30133\atlmfc\include\afx.inl
; File C:\Program Files (x86)\Microsoft Visual Studio\2019\Community\VC\Tools\MSVC\14.29.30133\atlmfc\include\afxtempl.h
; File C:\Program Files (x86)\Microsoft Visual Studio\2019\Community\VC\Tools\MSVC\14.29.30133\atlmfc\include\afx.inl
; File C:\Program Files (x86)\Microsoft Visual Studio\2019\Community\VC\Tools\MSVC\14.29.30133\atlmfc\include\afxtempl.h
; File C:\Program Files (x86)\Microsoft Visual Studio\2019\Community\VC\Tools\MSVC\14.29.30133\atlmfc\include\afx.inl
; File C:\Program Files (x86)\Microsoft Visual Studio\2019\Community\VC\Tools\MSVC\14.29.30133\atlmfc\include\afxtempl.h
; File C:\Program Files (x86)\Microsoft Visual Studio\2019\Community\VC\Tools\MSVC\14.29.30133\atlmfc\include\afx.inl
; File C:\Program Files (x86)\Microsoft Visual Studio\2019\Community\VC\Tools\MSVC\14.29.30133\atlmfc\include\afxtempl.h
; File C:\Program Files (x86)\Microsoft Visual Studio\2019\Community\VC\Tools\MSVC\14.29.30133\atlmfc\include\afx.inl
; File C:\Program Files (x86)\Microsoft Visual Studio\2019\Community\VC\Tools\MSVC\14.29.30133\atlmfc\include\afxtempl.h
; File C:\Program Files (x86)\Microsoft Visual Studio\2019\Community\VC\Tools\MSVC\14.29.30133\atlmfc\include\afx.inl
; File C:\Program Files (x86)\Microsoft Visual Studio\2019\Community\VC\Tools\MSVC\14.29.30133\atlmfc\include\afxtempl.h
; File C:\Program Files (x86)\Microsoft Visual Studio\2019\Community\VC\Tools\MSVC\14.29.30133\atlmfc\include\afx.inl
; File C:\Program Files (x86)\Microsoft Visual Studio\2019\Community\VC\Tools\MSVC\14.29.30133\atlmfc\include\afxtempl.h
; File C:\Program Files (x86)\Microsoft Visual Studio\2019\Community\VC\Tools\MSVC\14.29.30133\atlmfc\include\afx.inl
; File C:\Program Files (x86)\Microsoft Visual Studio\2019\Community\VC\Tools\MSVC\14.29.30133\atlmfc\include\afxtempl.h
; File C:\Program Files (x86)\Microsoft Visual Studio\2019\Community\VC\Tools\MSVC\14.29.30133\atlmfc\include\afx.inl
; File C:\Program Files (x86)\Microsoft Visual Studio\2019\Community\VC\Tools\MSVC\14.29.30133\atlmfc\include\afxtempl.h
; File C:\Program Files (x86)\Microsoft Visual Studio\2019\Community\VC\Tools\MSVC\14.29.30133\atlmfc\include\afx.inl
; File C:\Program Files (x86)\Microsoft Visual Studio\2019\Community\VC\Tools\MSVC\14.29.30133\atlmfc\include\afxtempl.h
; File C:\Program Files (x86)\Microsoft Visual Studio\2019\Community\VC\Tools\MSVC\14.29.30133\atlmfc\include\afx.inl
; File C:\Program Files (x86)\Microsoft Visual Studio\2019\Community\VC\Tools\MSVC\14.29.30133\atlmfc\include\afxtempl.h
; File C:\Program Files (x86)\Microsoft Visual Studio\2019\Community\VC\Tools\MSVC\14.29.30133\atlmfc\include\afx.inl
; File C:\Program Files (x86)\Microsoft Visual Studio\2019\Community\VC\Tools\MSVC\14.29.30133\atlmfc\include\afxtempl.h
; File C:\Program Files (x86)\Microsoft Visual Studio\2019\Community\VC\Tools\MSVC\14.29.30133\atlmfc\include\afx.inl
; File C:\Program Files (x86)\Microsoft Visual Studio\2019\Community\VC\Tools\MSVC\14.29.30133\atlmfc\include\afxtempl.h
; File C:\Program Files (x86)\Microsoft Visual Studio\2019\Community\VC\Tools\MSVC\14.29.30133\atlmfc\include\afx.inl
; File C:\Program Files (x86)\Microsoft Visual Studio\2019\Community\VC\Tools\MSVC\14.29.30133\atlmfc\include\afxtempl.h
;	COMDAT ?Serialize@?$CMap@HHW4TOOLTYPE@CSymbolBaseData@@W412@@@UAEXAAVCArchive@@@Z
_TEXT	SEGMENT
_nHashBucket$1$ = -32					; size = 4
_nCount$1$ = -32					; size = 4
_nElementsToRead$1$ = -32				; size = 4
_nElementsToRead$1$ = -28				; size = 4
_pData$1$ = -28						; size = 4
_nCount$1$ = -28					; size = 4
_newValue$1$ = -28					; size = 4
_this$1$ = -24						; size = 4
_newKey$3 = -20						; size = 4
_newValue$4 = -16					; size = 4
_pData$1$ = -12						; size = 4
_pData$1$ = -12						; size = 4
_key$1$ = -12						; size = 4
_nHash$1$ = -12						; size = 4
_nNewCount$1$ = -8					; size = 4
_pAssoc$1$ = -8						; size = 4
_nElementsLeft$1$ = -4					; size = 4
_pData$1$ = -4						; size = 4
_pData$1$ = -4						; size = 4
_nHashSize$1$ = 8					; size = 4
_pData$1$ = 8						; size = 4
_nElementsLeft$1$ = 8					; size = 4
_pData$1$ = 8						; size = 4
_nElementsLeft$1$ = 8					; size = 4
_ar$ = 8						; size = 4
?Serialize@?$CMap@HHW4TOOLTYPE@CSymbolBaseData@@W412@@@UAEXAAVCArchive@@@Z PROC ; CMap<int,int,enum CSymbolBaseData::TOOLTYPE,enum CSymbolBaseData::TOOLTYPE>::Serialize, COMDAT
; _this$ = ecx

; 1743 : {

  00000	55		 push	 ebp
  00001	8b ec		 mov	 ebp, esp
  00003	83 ec 20	 sub	 esp, 32			; 00000020H
  00006	53		 push	 ebx
; File C:\Program Files (x86)\Microsoft Visual Studio\2019\Community\VC\Tools\MSVC\14.29.30133\atlmfc\include\afx.inl

; 212  : 	{ return (m_nMode & CArchive::load) == 0; }

  00007	8b 5d 08	 mov	 ebx, DWORD PTR _ar$[ebp]
; File C:\Program Files (x86)\Microsoft Visual Studio\2019\Community\VC\Tools\MSVC\14.29.30133\atlmfc\include\afxtempl.h

; 1743 : {

  0000a	56		 push	 esi
  0000b	8b f1		 mov	 esi, ecx

; 1748 : 	if (ar.IsStoring())

  0000d	8b cb		 mov	 ecx, ebx
  0000f	57		 push	 edi
; File C:\Program Files (x86)\Microsoft Visual Studio\2019\Community\VC\Tools\MSVC\14.29.30133\atlmfc\include\afx.inl

; 212  : 	{ return (m_nMode & CArchive::load) == 0; }

  00010	8b 43 18	 mov	 eax, DWORD PTR [ebx+24]
  00013	f7 d0		 not	 eax
; File C:\Program Files (x86)\Microsoft Visual Studio\2019\Community\VC\Tools\MSVC\14.29.30133\atlmfc\include\afxtempl.h

; 1743 : {

  00015	89 75 e8	 mov	 DWORD PTR _this$1$[ebp], esi
; File C:\Program Files (x86)\Microsoft Visual Studio\2019\Community\VC\Tools\MSVC\14.29.30133\atlmfc\include\afx.inl

; 212  : 	{ return (m_nMode & CArchive::load) == 0; }

  00018	a8 01		 test	 al, 1
; File C:\Program Files (x86)\Microsoft Visual Studio\2019\Community\VC\Tools\MSVC\14.29.30133\atlmfc\include\afxtempl.h

; 1748 : 	if (ar.IsStoring())

  0001a	0f 84 71 01 00
	00		 je	 $LN10@Serialize

; 1749 : 	{
; 1750 : 		ar.WriteCount(m_nCount);

  00020	ff 76 0c	 push	 DWORD PTR [esi+12]
  00023	e8 00 00 00 00	 call	 ?WriteCount@CArchive@@QAEXK@Z ; CArchive::WriteCount

; 1751 : 		if (m_nCount == 0)

  00028	83 7e 0c 00	 cmp	 DWORD PTR [esi+12], 0
  0002c	0f 84 c9 03 00
	00		 je	 $LN189@Serialize

; 1752 : 			return;  // nothing more to do
; 1753 : 
; 1754 : 		ASSERT(m_pHashTable != NULL);
; 1755 : 		if (m_pHashTable != NULL)

  00032	83 7e 04 00	 cmp	 DWORD PTR [esi+4], 0
  00036	0f 84 bf 03 00
	00		 je	 $LN189@Serialize

; 1756 : 		{
; 1757 : 			for (UINT nHash = 0; nHash < m_nHashTableSize; nHash++)

  0003c	33 c9		 xor	 ecx, ecx
  0003e	89 4d f4	 mov	 DWORD PTR _nHash$1$[ebp], ecx
  00041	39 4e 08	 cmp	 DWORD PTR [esi+8], ecx
  00044	0f 86 b1 03 00
	00		 jbe	 $LN189@Serialize
  0004a	66 0f 1f 44 00
	00		 npad	 6
$LL4@Serialize:

; 1758 : 			{
; 1759 : 				CAssoc* pAssoc;
; 1760 : 				for (pAssoc = m_pHashTable[nHash]; pAssoc != NULL; pAssoc = pAssoc->pNext)

  00050	8b 46 04	 mov	 eax, DWORD PTR [esi+4]
  00053	8b 0c 88	 mov	 ecx, DWORD PTR [eax+ecx*4]
  00056	89 4d f8	 mov	 DWORD PTR _pAssoc$1$[ebp], ecx
  00059	85 c9		 test	 ecx, ecx
  0005b	0f 84 17 01 00
	00		 je	 $LN2@Serialize
$LL7@Serialize:
; File C:\Program Files (x86)\Microsoft Visual Studio\2019\Community\VC\Tools\MSVC\14.29.30133\atlmfc\include\afx.inl

; 212  : 	{ return (m_nMode & CArchive::load) == 0; }

  00061	8b 43 18	 mov	 eax, DWORD PTR [ebx+24]
; File C:\Program Files (x86)\Microsoft Visual Studio\2019\Community\VC\Tools\MSVC\14.29.30133\atlmfc\include\afxtempl.h

; 1770 : 					pValue = reinterpret_cast< VALUE* >( &reinterpret_cast< int& >( static_cast< VALUE& >( pAssoc->value ) ) );

  00064	8d 71 04	 lea	 esi, DWORD PTR [ecx+4]
; File C:\Program Files (x86)\Microsoft Visual Studio\2019\Community\VC\Tools\MSVC\14.29.30133\atlmfc\include\afx.inl

; 212  : 	{ return (m_nMode & CArchive::load) == 0; }

  00067	f7 d0		 not	 eax
; File C:\Program Files (x86)\Microsoft Visual Studio\2019\Community\VC\Tools\MSVC\14.29.30133\atlmfc\include\afxtempl.h

; 1770 : 					pValue = reinterpret_cast< VALUE* >( &reinterpret_cast< int& >( static_cast< VALUE& >( pAssoc->value ) ) );

  00069	89 75 e4	 mov	 DWORD PTR _pData$1$[ebp], esi

; 73   : 	if (ar.IsStoring())

  0006c	89 4d fc	 mov	 DWORD PTR _pData$1$[ebp], ecx
; File C:\Program Files (x86)\Microsoft Visual Studio\2019\Community\VC\Tools\MSVC\14.29.30133\atlmfc\include\afx.inl

; 212  : 	{ return (m_nMode & CArchive::load) == 0; }

  0006f	a8 01		 test	 al, 1
; File C:\Program Files (x86)\Microsoft Visual Studio\2019\Community\VC\Tools\MSVC\14.29.30133\atlmfc\include\afxtempl.h

; 73   : 	if (ar.IsStoring())

  00071	74 3c		 je	 SHORT $LN26@Serialize

; 74   : 	{
; 75   : 		TYPE* pData;
; 76   : 		UINT_PTR nElementsLeft;
; 77   : 
; 78   : 		nElementsLeft = nCount;

  00073	be 01 00 00 00	 mov	 esi, 1

; 79   : 		pData = pElements;

  00078	8b c1		 mov	 eax, ecx
  0007a	66 0f 1f 44 00
	00		 npad	 6
$LL21@Serialize:

; 85   : 			ar.Write(pData, nElementsToWrite*sizeof(TYPE));

  00080	8b 4d 08	 mov	 ecx, DWORD PTR _ar$[ebp]
  00083	bb ff ff ff 1f	 mov	 ebx, 536870911		; 1fffffffH
  00088	3b f3		 cmp	 esi, ebx
  0008a	0f 42 de	 cmovb	 ebx, esi
  0008d	8d 3c 9d 00 00
	00 00		 lea	 edi, DWORD PTR [ebx*4]
  00094	57		 push	 edi
  00095	50		 push	 eax
  00096	e8 00 00 00 00	 call	 ?Write@CArchive@@QAEXPBXI@Z ; CArchive::Write

; 87   : 			pData += nElementsToWrite;

  0009b	8b 45 fc	 mov	 eax, DWORD PTR _pData$1$[ebp]
  0009e	03 c7		 add	 eax, edi
  000a0	89 45 fc	 mov	 DWORD PTR _pData$1$[ebp], eax
  000a3	2b f3		 sub	 esi, ebx
  000a5	75 d9		 jne	 SHORT $LL21@Serialize
  000a7	8b 75 e4	 mov	 esi, DWORD PTR _pData$1$[ebp]

; 88   : 		}
; 89   : 	}

  000aa	8b 5d 08	 mov	 ebx, DWORD PTR _ar$[ebp]
  000ad	eb 3b		 jmp	 SHORT $LN41@Serialize
$LN26@Serialize:

; 90   : 	else
; 91   : 	{
; 92   : 		TYPE* pData;
; 93   : 		UINT_PTR nElementsLeft;
; 94   : 
; 95   : 		nElementsLeft = nCount;

  000af	bf 01 00 00 00	 mov	 edi, 1

; 96   : 		pData = pElements;

  000b4	8b d1		 mov	 edx, ecx
$LL23@Serialize:

; 101  : 			nElementsToRead = UINT(__min(nElementsLeft, INT_MAX/sizeof(TYPE)));

  000b6	b8 ff ff ff 1f	 mov	 eax, 536870911		; 1fffffffH
; File C:\Program Files (x86)\Microsoft Visual Studio\2019\Community\VC\Tools\MSVC\14.29.30133\atlmfc\include\afx.inl

; 399  : 	UINT nRead=Read(lpBuf, nCount);

  000bb	8b cb		 mov	 ecx, ebx
; File C:\Program Files (x86)\Microsoft Visual Studio\2019\Community\VC\Tools\MSVC\14.29.30133\atlmfc\include\afxtempl.h

; 101  : 			nElementsToRead = UINT(__min(nElementsLeft, INT_MAX/sizeof(TYPE)));

  000bd	3b f8		 cmp	 edi, eax
  000bf	0f 42 c7	 cmovb	 eax, edi
  000c2	89 45 e0	 mov	 DWORD PTR _nElementsToRead$1$[ebp], eax

; 102  : 			ar.EnsureRead(pData, nElementsToRead*sizeof(TYPE));

  000c5	c1 e0 02	 shl	 eax, 2
; File C:\Program Files (x86)\Microsoft Visual Studio\2019\Community\VC\Tools\MSVC\14.29.30133\atlmfc\include\afx.inl

; 399  : 	UINT nRead=Read(lpBuf, nCount);

  000c8	50		 push	 eax
  000c9	52		 push	 edx
; File C:\Program Files (x86)\Microsoft Visual Studio\2019\Community\VC\Tools\MSVC\14.29.30133\atlmfc\include\afxtempl.h

; 102  : 			ar.EnsureRead(pData, nElementsToRead*sizeof(TYPE));

  000ca	89 45 e4	 mov	 DWORD PTR _nCount$1$[ebp], eax
; File C:\Program Files (x86)\Microsoft Visual Studio\2019\Community\VC\Tools\MSVC\14.29.30133\atlmfc\include\afx.inl

; 399  : 	UINT nRead=Read(lpBuf, nCount);

  000cd	e8 00 00 00 00	 call	 ?Read@CArchive@@QAEIPAXI@Z ; CArchive::Read

; 400  : 	if(nRead!=nCount)

  000d2	8b 4d e4	 mov	 ecx, DWORD PTR _nCount$1$[ebp]
  000d5	3b c1		 cmp	 eax, ecx
  000d7	0f 85 2c 03 00
	00		 jne	 $LN165@Serialize
; File C:\Program Files (x86)\Microsoft Visual Studio\2019\Community\VC\Tools\MSVC\14.29.30133\atlmfc\include\afxtempl.h

; 104  : 			pData += nElementsToRead;

  000dd	8b 55 fc	 mov	 edx, DWORD PTR _pData$1$[ebp]
  000e0	03 d1		 add	 edx, ecx
  000e2	89 55 fc	 mov	 DWORD PTR _pData$1$[ebp], edx
  000e5	2b 7d e0	 sub	 edi, DWORD PTR _nElementsToRead$1$[ebp]
  000e8	75 cc		 jne	 SHORT $LL23@Serialize
$LN41@Serialize:

; 68   : 	ENSURE(nCount == 0 || pElements != NULL);

  000ea	85 f6		 test	 esi, esi
  000ec	0f 84 12 03 00
	00		 je	 $LN167@Serialize
; File C:\Program Files (x86)\Microsoft Visual Studio\2019\Community\VC\Tools\MSVC\14.29.30133\atlmfc\include\afx.inl

; 212  : 	{ return (m_nMode & CArchive::load) == 0; }

  000f2	8b 43 18	 mov	 eax, DWORD PTR [ebx+24]
  000f5	f7 d0		 not	 eax
  000f7	a8 01		 test	 al, 1
; File C:\Program Files (x86)\Microsoft Visual Studio\2019\Community\VC\Tools\MSVC\14.29.30133\atlmfc\include\afxtempl.h

; 73   : 	if (ar.IsStoring())

  000f9	74 36		 je	 SHORT $LN47@Serialize

; 74   : 	{
; 75   : 		TYPE* pData;
; 76   : 		UINT_PTR nElementsLeft;
; 77   : 
; 78   : 		nElementsLeft = nCount;

  000fb	b8 01 00 00 00	 mov	 eax, 1
  00100	89 45 fc	 mov	 DWORD PTR _nElementsLeft$1$[ebp], eax
$LL42@Serialize:

; 85   : 			ar.Write(pData, nElementsToWrite*sizeof(TYPE));

  00103	8b 4d 08	 mov	 ecx, DWORD PTR _ar$[ebp]
  00106	bb ff ff ff 1f	 mov	 ebx, 536870911		; 1fffffffH
  0010b	3b c3		 cmp	 eax, ebx
  0010d	0f 42 d8	 cmovb	 ebx, eax
  00110	8d 3c 9d 00 00
	00 00		 lea	 edi, DWORD PTR [ebx*4]
  00117	57		 push	 edi
  00118	56		 push	 esi
  00119	e8 00 00 00 00	 call	 ?Write@CArchive@@QAEXPBXI@Z ; CArchive::Write

; 86   : 			nElementsLeft -= nElementsToWrite;

  0011e	8b 45 fc	 mov	 eax, DWORD PTR _nElementsLeft$1$[ebp]

; 87   : 			pData += nElementsToWrite;

  00121	03 f7		 add	 esi, edi
  00123	2b c3		 sub	 eax, ebx
  00125	89 45 fc	 mov	 DWORD PTR _nElementsLeft$1$[ebp], eax
  00128	85 c0		 test	 eax, eax
  0012a	75 d7		 jne	 SHORT $LL42@Serialize

; 88   : 		}
; 89   : 	}

  0012c	8b 5d 08	 mov	 ebx, DWORD PTR _ar$[ebp]
  0012f	eb 33		 jmp	 SHORT $LN5@Serialize
$LN47@Serialize:

; 90   : 	else
; 91   : 	{
; 92   : 		TYPE* pData;
; 93   : 		UINT_PTR nElementsLeft;
; 94   : 
; 95   : 		nElementsLeft = nCount;

  00131	bf 01 00 00 00	 mov	 edi, 1
$LL44@Serialize:

; 101  : 			nElementsToRead = UINT(__min(nElementsLeft, INT_MAX/sizeof(TYPE)));

  00136	b8 ff ff ff 1f	 mov	 eax, 536870911		; 1fffffffH
; File C:\Program Files (x86)\Microsoft Visual Studio\2019\Community\VC\Tools\MSVC\14.29.30133\atlmfc\include\afx.inl

; 399  : 	UINT nRead=Read(lpBuf, nCount);

  0013b	8b cb		 mov	 ecx, ebx
; File C:\Program Files (x86)\Microsoft Visual Studio\2019\Community\VC\Tools\MSVC\14.29.30133\atlmfc\include\afxtempl.h

; 101  : 			nElementsToRead = UINT(__min(nElementsLeft, INT_MAX/sizeof(TYPE)));

  0013d	3b f8		 cmp	 edi, eax
  0013f	0f 42 c7	 cmovb	 eax, edi
  00142	89 45 e4	 mov	 DWORD PTR _nElementsToRead$1$[ebp], eax

; 102  : 			ar.EnsureRead(pData, nElementsToRead*sizeof(TYPE));

  00145	c1 e0 02	 shl	 eax, 2
; File C:\Program Files (x86)\Microsoft Visual Studio\2019\Community\VC\Tools\MSVC\14.29.30133\atlmfc\include\afx.inl

; 399  : 	UINT nRead=Read(lpBuf, nCount);

  00148	50		 push	 eax
  00149	56		 push	 esi
; File C:\Program Files (x86)\Microsoft Visual Studio\2019\Community\VC\Tools\MSVC\14.29.30133\atlmfc\include\afxtempl.h

; 102  : 			ar.EnsureRead(pData, nElementsToRead*sizeof(TYPE));

  0014a	89 45 e0	 mov	 DWORD PTR _nCount$1$[ebp], eax
; File C:\Program Files (x86)\Microsoft Visual Studio\2019\Community\VC\Tools\MSVC\14.29.30133\atlmfc\include\afx.inl

; 399  : 	UINT nRead=Read(lpBuf, nCount);

  0014d	e8 00 00 00 00	 call	 ?Read@CArchive@@QAEIPAXI@Z ; CArchive::Read

; 400  : 	if(nRead!=nCount)

  00152	8b 4d e0	 mov	 ecx, DWORD PTR _nCount$1$[ebp]
  00155	3b c1		 cmp	 eax, ecx
  00157	0f 85 ac 02 00
	00		 jne	 $LN165@Serialize
; File C:\Program Files (x86)\Microsoft Visual Studio\2019\Community\VC\Tools\MSVC\14.29.30133\atlmfc\include\afxtempl.h

; 103  : 			nElementsLeft -= nElementsToRead;

  0015d	03 f1		 add	 esi, ecx
  0015f	2b 7d e4	 sub	 edi, DWORD PTR _nElementsToRead$1$[ebp]
  00162	75 d2		 jne	 SHORT $LL44@Serialize
$LN5@Serialize:

; 1758 : 			{
; 1759 : 				CAssoc* pAssoc;
; 1760 : 				for (pAssoc = m_pHashTable[nHash]; pAssoc != NULL; pAssoc = pAssoc->pNext)

  00164	8b 4d f8	 mov	 ecx, DWORD PTR _pAssoc$1$[ebp]
  00167	8b 49 08	 mov	 ecx, DWORD PTR [ecx+8]
  0016a	89 4d f8	 mov	 DWORD PTR _pAssoc$1$[ebp], ecx
  0016d	85 c9		 test	 ecx, ecx
  0016f	0f 85 ec fe ff
	ff		 jne	 $LL7@Serialize
  00175	8b 75 e8	 mov	 esi, DWORD PTR _this$1$[ebp]
$LN2@Serialize:

; 1756 : 		{
; 1757 : 			for (UINT nHash = 0; nHash < m_nHashTableSize; nHash++)

  00178	8b 4d f4	 mov	 ecx, DWORD PTR _nHash$1$[ebp]
  0017b	41		 inc	 ecx
  0017c	89 4d f4	 mov	 DWORD PTR _nHash$1$[ebp], ecx
  0017f	3b 4e 08	 cmp	 ecx, DWORD PTR [esi+8]
  00182	0f 82 c8 fe ff
	ff		 jb	 $LL4@Serialize

; 1787 : 		}
; 1788 : 	}
; 1789 : }

  00188	5f		 pop	 edi
  00189	5e		 pop	 esi
  0018a	5b		 pop	 ebx
  0018b	8b e5		 mov	 esp, ebp
  0018d	5d		 pop	 ebp
  0018e	c2 04 00	 ret	 4
$LN10@Serialize:

; 1771 : 					SerializeElements<KEY>(ar, pKey, 1);
; 1772 : 					SerializeElements<VALUE>(ar, pValue, 1);
; 1773 : 				}
; 1774 : 			}
; 1775 : 		}
; 1776 : 	}
; 1777 : 	else
; 1778 : 	{
; 1779 : 		DWORD_PTR nNewCount = ar.ReadCount();

  00191	e8 00 00 00 00	 call	 ?ReadCount@CArchive@@QAEKXZ ; CArchive::ReadCount

; 1780 : 		while (nNewCount--)

  00196	85 c0		 test	 eax, eax
  00198	0f 84 5d 02 00
	00		 je	 $LN189@Serialize
  0019e	66 90		 npad	 2
$LL8@Serialize:
  001a0	48		 dec	 eax
  001a1	89 45 f8	 mov	 DWORD PTR _nNewCount$1$[ebp], eax
; File C:\Program Files (x86)\Microsoft Visual Studio\2019\Community\VC\Tools\MSVC\14.29.30133\atlmfc\include\afx.inl

; 212  : 	{ return (m_nMode & CArchive::load) == 0; }

  001a4	8b 43 18	 mov	 eax, DWORD PTR [ebx+24]
  001a7	f7 d0		 not	 eax
  001a9	a8 01		 test	 al, 1
; File C:\Program Files (x86)\Microsoft Visual Studio\2019\Community\VC\Tools\MSVC\14.29.30133\atlmfc\include\afxtempl.h

; 73   : 	if (ar.IsStoring())

  001ab	74 43		 je	 SHORT $LN67@Serialize

; 74   : 	{
; 75   : 		TYPE* pData;
; 76   : 		UINT_PTR nElementsLeft;
; 77   : 
; 78   : 		nElementsLeft = nCount;

  001ad	b8 01 00 00 00	 mov	 eax, 1

; 79   : 		pData = pElements;

  001b2	8d 4d ec	 lea	 ecx, DWORD PTR _newKey$3[ebp]
  001b5	89 45 08	 mov	 DWORD PTR _nElementsLeft$1$[ebp], eax
  001b8	89 4d f4	 mov	 DWORD PTR _pData$1$[ebp], ecx
  001bb	0f 1f 44 00 00	 npad	 5
$LL62@Serialize:

; 80   : 		while( nElementsLeft > 0 )
; 81   : 		{
; 82   : 			UINT nElementsToWrite;
; 83   : 
; 84   : 			nElementsToWrite = UINT(__min(nElementsLeft, INT_MAX/sizeof(TYPE)));

  001c0	bf ff ff ff 1f	 mov	 edi, 536870911		; 1fffffffH
  001c5	3b c7		 cmp	 eax, edi
  001c7	0f 42 f8	 cmovb	 edi, eax

; 85   : 			ar.Write(pData, nElementsToWrite*sizeof(TYPE));

  001ca	8d 34 bd 00 00
	00 00		 lea	 esi, DWORD PTR [edi*4]
  001d1	56		 push	 esi
  001d2	51		 push	 ecx
  001d3	8b cb		 mov	 ecx, ebx
  001d5	e8 00 00 00 00	 call	 ?Write@CArchive@@QAEXPBXI@Z ; CArchive::Write

; 86   : 			nElementsLeft -= nElementsToWrite;

  001da	8b 45 08	 mov	 eax, DWORD PTR _nElementsLeft$1$[ebp]

; 87   : 			pData += nElementsToWrite;

  001dd	8b 4d f4	 mov	 ecx, DWORD PTR _pData$1$[ebp]
  001e0	2b c7		 sub	 eax, edi
  001e2	03 ce		 add	 ecx, esi
  001e4	89 45 08	 mov	 DWORD PTR _nElementsLeft$1$[ebp], eax
  001e7	89 4d f4	 mov	 DWORD PTR _pData$1$[ebp], ecx
  001ea	85 c0		 test	 eax, eax
  001ec	75 d2		 jne	 SHORT $LL62@Serialize

; 88   : 		}
; 89   : 	}

  001ee	eb 45		 jmp	 SHORT $LN81@Serialize
$LN67@Serialize:

; 96   : 		pData = pElements;

  001f0	8d 55 ec	 lea	 edx, DWORD PTR _newKey$3[ebp]
  001f3	be 01 00 00 00	 mov	 esi, 1
  001f8	89 55 08	 mov	 DWORD PTR _pData$1$[ebp], edx
  001fb	0f 1f 44 00 00	 npad	 5
$LL64@Serialize:

; 101  : 			nElementsToRead = UINT(__min(nElementsLeft, INT_MAX/sizeof(TYPE)));

  00200	bf ff ff ff 1f	 mov	 edi, 536870911		; 1fffffffH
; File C:\Program Files (x86)\Microsoft Visual Studio\2019\Community\VC\Tools\MSVC\14.29.30133\atlmfc\include\afx.inl

; 399  : 	UINT nRead=Read(lpBuf, nCount);

  00205	8b cb		 mov	 ecx, ebx
; File C:\Program Files (x86)\Microsoft Visual Studio\2019\Community\VC\Tools\MSVC\14.29.30133\atlmfc\include\afxtempl.h

; 101  : 			nElementsToRead = UINT(__min(nElementsLeft, INT_MAX/sizeof(TYPE)));

  00207	3b f7		 cmp	 esi, edi
  00209	0f 42 fe	 cmovb	 edi, esi

; 102  : 			ar.EnsureRead(pData, nElementsToRead*sizeof(TYPE));

  0020c	8d 04 bd 00 00
	00 00		 lea	 eax, DWORD PTR [edi*4]
; File C:\Program Files (x86)\Microsoft Visual Studio\2019\Community\VC\Tools\MSVC\14.29.30133\atlmfc\include\afx.inl

; 399  : 	UINT nRead=Read(lpBuf, nCount);

  00213	50		 push	 eax
  00214	52		 push	 edx
  00215	e8 00 00 00 00	 call	 ?Read@CArchive@@QAEIPAXI@Z ; CArchive::Read

; 400  : 	if(nRead!=nCount)

  0021a	8d 0c bd 00 00
	00 00		 lea	 ecx, DWORD PTR [edi*4]
  00221	3b c1		 cmp	 eax, ecx
  00223	0f 85 e0 01 00
	00		 jne	 $LN165@Serialize
; File C:\Program Files (x86)\Microsoft Visual Studio\2019\Community\VC\Tools\MSVC\14.29.30133\atlmfc\include\afxtempl.h

; 104  : 			pData += nElementsToRead;

  00229	8b 55 08	 mov	 edx, DWORD PTR _pData$1$[ebp]
  0022c	03 d1		 add	 edx, ecx
  0022e	89 55 08	 mov	 DWORD PTR _pData$1$[ebp], edx
  00231	2b f7		 sub	 esi, edi
  00233	75 cb		 jne	 SHORT $LL64@Serialize
$LN81@Serialize:
; File C:\Program Files (x86)\Microsoft Visual Studio\2019\Community\VC\Tools\MSVC\14.29.30133\atlmfc\include\afx.inl

; 212  : 	{ return (m_nMode & CArchive::load) == 0; }

  00235	8b 43 18	 mov	 eax, DWORD PTR [ebx+24]
  00238	f7 d0		 not	 eax
  0023a	a8 01		 test	 al, 1
; File C:\Program Files (x86)\Microsoft Visual Studio\2019\Community\VC\Tools\MSVC\14.29.30133\atlmfc\include\afxtempl.h

; 73   : 	if (ar.IsStoring())

  0023c	74 42		 je	 SHORT $LN87@Serialize

; 74   : 	{
; 75   : 		TYPE* pData;
; 76   : 		UINT_PTR nElementsLeft;
; 77   : 
; 78   : 		nElementsLeft = nCount;

  0023e	b8 01 00 00 00	 mov	 eax, 1

; 79   : 		pData = pElements;

  00243	8d 4d f0	 lea	 ecx, DWORD PTR _newValue$4[ebp]
  00246	89 45 08	 mov	 DWORD PTR _nElementsLeft$1$[ebp], eax
  00249	89 4d f4	 mov	 DWORD PTR _pData$1$[ebp], ecx
  0024c	0f 1f 40 00	 npad	 4
$LL82@Serialize:

; 80   : 		while( nElementsLeft > 0 )
; 81   : 		{
; 82   : 			UINT nElementsToWrite;
; 83   : 
; 84   : 			nElementsToWrite = UINT(__min(nElementsLeft, INT_MAX/sizeof(TYPE)));

  00250	bf ff ff ff 1f	 mov	 edi, 536870911		; 1fffffffH
  00255	3b c7		 cmp	 eax, edi
  00257	0f 42 f8	 cmovb	 edi, eax

; 85   : 			ar.Write(pData, nElementsToWrite*sizeof(TYPE));

  0025a	8d 34 bd 00 00
	00 00		 lea	 esi, DWORD PTR [edi*4]
  00261	56		 push	 esi
  00262	51		 push	 ecx
  00263	8b cb		 mov	 ecx, ebx
  00265	e8 00 00 00 00	 call	 ?Write@CArchive@@QAEXPBXI@Z ; CArchive::Write

; 86   : 			nElementsLeft -= nElementsToWrite;

  0026a	8b 45 08	 mov	 eax, DWORD PTR _nElementsLeft$1$[ebp]

; 87   : 			pData += nElementsToWrite;

  0026d	8b 4d f4	 mov	 ecx, DWORD PTR _pData$1$[ebp]
  00270	2b c7		 sub	 eax, edi
  00272	03 ce		 add	 ecx, esi
  00274	89 45 08	 mov	 DWORD PTR _nElementsLeft$1$[ebp], eax
  00277	89 4d f4	 mov	 DWORD PTR _pData$1$[ebp], ecx
  0027a	85 c0		 test	 eax, eax
  0027c	75 d2		 jne	 SHORT $LL82@Serialize

; 88   : 		}
; 89   : 	}

  0027e	eb 45		 jmp	 SHORT $LN85@Serialize
$LN87@Serialize:

; 96   : 		pData = pElements;

  00280	8d 55 f0	 lea	 edx, DWORD PTR _newValue$4[ebp]
  00283	be 01 00 00 00	 mov	 esi, 1
  00288	89 55 08	 mov	 DWORD PTR _pData$1$[ebp], edx
  0028b	0f 1f 44 00 00	 npad	 5
$LL84@Serialize:

; 101  : 			nElementsToRead = UINT(__min(nElementsLeft, INT_MAX/sizeof(TYPE)));

  00290	bf ff ff ff 1f	 mov	 edi, 536870911		; 1fffffffH
; File C:\Program Files (x86)\Microsoft Visual Studio\2019\Community\VC\Tools\MSVC\14.29.30133\atlmfc\include\afx.inl

; 399  : 	UINT nRead=Read(lpBuf, nCount);

  00295	8b cb		 mov	 ecx, ebx
; File C:\Program Files (x86)\Microsoft Visual Studio\2019\Community\VC\Tools\MSVC\14.29.30133\atlmfc\include\afxtempl.h

; 101  : 			nElementsToRead = UINT(__min(nElementsLeft, INT_MAX/sizeof(TYPE)));

  00297	3b f7		 cmp	 esi, edi
  00299	0f 42 fe	 cmovb	 edi, esi

; 102  : 			ar.EnsureRead(pData, nElementsToRead*sizeof(TYPE));

  0029c	8d 04 bd 00 00
	00 00		 lea	 eax, DWORD PTR [edi*4]
; File C:\Program Files (x86)\Microsoft Visual Studio\2019\Community\VC\Tools\MSVC\14.29.30133\atlmfc\include\afx.inl

; 399  : 	UINT nRead=Read(lpBuf, nCount);

  002a3	50		 push	 eax
  002a4	52		 push	 edx
  002a5	e8 00 00 00 00	 call	 ?Read@CArchive@@QAEIPAXI@Z ; CArchive::Read

; 400  : 	if(nRead!=nCount)

  002aa	8d 0c bd 00 00
	00 00		 lea	 ecx, DWORD PTR [edi*4]
  002b1	3b c1		 cmp	 eax, ecx
  002b3	0f 85 50 01 00
	00		 jne	 $LN165@Serialize
; File C:\Program Files (x86)\Microsoft Visual Studio\2019\Community\VC\Tools\MSVC\14.29.30133\atlmfc\include\afxtempl.h

; 104  : 			pData += nElementsToRead;

  002b9	8b 55 08	 mov	 edx, DWORD PTR _pData$1$[ebp]
  002bc	03 d1		 add	 edx, ecx
  002be	89 55 08	 mov	 DWORD PTR _pData$1$[ebp], edx
  002c1	2b f7		 sub	 esi, edi
  002c3	75 cb		 jne	 SHORT $LL84@Serialize
$LN85@Serialize:

; 1781 : 		{
; 1782 : 			KEY newKey[1];
; 1783 : 			VALUE newValue[1];
; 1784 : 			SerializeElements<KEY>(ar, newKey, 1);
; 1785 : 			SerializeElements<VALUE>(ar, newValue, 1);
; 1786 : 			SetAt(newKey[0], newValue[0]);

  002c5	8b 45 f0	 mov	 eax, DWORD PTR _newValue$4[ebp]
  002c8	b9 1d f3 01 00	 mov	 ecx, 127773		; 0001f31dH
  002cd	89 45 e4	 mov	 DWORD PTR _newValue$1$[ebp], eax
  002d0	8b 45 ec	 mov	 eax, DWORD PTR _newKey$3[ebp]
  002d3	89 45 f4	 mov	 DWORD PTR _key$1$[ebp], eax
  002d6	99		 cdq
  002d7	f7 f9		 idiv	 ecx

; 1534 : 	nHashBucket = nHashValue % m_nHashTableSize;

  002d9	8b 75 e8	 mov	 esi, DWORD PTR _this$1$[ebp]

; 166  : 	HashVal.rem = 16807 * HashVal.rem - 2836 * HashVal.quot;

  002dc	69 c0 14 0b 00
	00		 imul	 eax, eax, 2836
  002e2	69 ca a7 41 00
	00		 imul	 ecx, edx, 16807
  002e8	2b c8		 sub	 ecx, eax

; 1534 : 	nHashBucket = nHashValue % m_nHashTableSize;

  002ea	8d b9 ff ff ff
	7f		 lea	 edi, DWORD PTR [ecx+2147483647]
  002f0	0f 49 f9	 cmovns	 edi, ecx
  002f3	8b 4e 08	 mov	 ecx, DWORD PTR [esi+8]
  002f6	33 d2		 xor	 edx, edx
  002f8	89 4d 08	 mov	 DWORD PTR _nHashSize$1$[ebp], ecx
  002fb	8b c7		 mov	 eax, edi
  002fd	f7 f1		 div	 ecx

; 1535 : 
; 1536 : 	if (m_pHashTable == NULL)

  002ff	8b 4e 04	 mov	 ecx, DWORD PTR [esi+4]
  00302	8b c2		 mov	 eax, edx
  00304	89 45 e0	 mov	 DWORD PTR _nHashBucket$1$[ebp], eax
  00307	85 c9		 test	 ecx, ecx
  00309	75 49		 jne	 SHORT $LN112@Serialize

; 1434 : 		m_pHashTable = new CAssoc* [nHashSize];

  0030b	8b 45 08	 mov	 eax, DWORD PTR _nHashSize$1$[ebp]
  0030e	ba 04 00 00 00	 mov	 edx, 4
  00313	f7 e2		 mul	 edx
  00315	0f 90 c1	 seto	 cl
  00318	f7 d9		 neg	 ecx
  0031a	0b c8		 or	 ecx, eax
  0031c	51		 push	 ecx
  0031d	e8 00 00 00 00	 call	 ??_U@YAPAXI@Z		; operator new[]
  00322	83 c4 04	 add	 esp, 4
  00325	89 46 04	 mov	 DWORD PTR [esi+4], eax

; 1435 : 		ENSURE(m_pHashTable != NULL);

  00328	85 c0		 test	 eax, eax
  0032a	0f 84 d4 00 00
	00		 je	 $LN167@Serialize

; 1436 : 		memset(m_pHashTable, 0, sizeof(CAssoc*) * nHashSize);

  00330	8b 4d 08	 mov	 ecx, DWORD PTR _nHashSize$1$[ebp]
  00333	c1 e1 02	 shl	 ecx, 2
  00336	51		 push	 ecx
  00337	6a 00		 push	 0
  00339	50		 push	 eax
  0033a	e8 00 00 00 00	 call	 _memset

; 1437 : 	}
; 1438 : 	m_nHashTableSize = nHashSize;

  0033f	8b 45 08	 mov	 eax, DWORD PTR _nHashSize$1$[ebp]
  00342	83 c4 0c	 add	 esp, 12			; 0000000cH

; 1595 : 		ENSURE(m_pHashTable);

  00345	83 7e 04 00	 cmp	 DWORD PTR [esi+4], 0

; 1438 : 	m_nHashTableSize = nHashSize;

  00349	89 46 08	 mov	 DWORD PTR [esi+8], eax

; 1595 : 		ENSURE(m_pHashTable);

  0034c	0f 84 b2 00 00
	00		 je	 $LN167@Serialize
  00352	eb 20		 jmp	 SHORT $LN225@Serialize
$LN112@Serialize:

; 1541 : 	for (pAssoc = m_pHashTable[nHashBucket]; pAssoc != NULL; pAssoc = pAssoc->pNext)

  00354	8b 0c 81	 mov	 ecx, DWORD PTR [ecx+eax*4]
  00357	85 c9		 test	 ecx, ecx
  00359	74 19		 je	 SHORT $LN225@Serialize
  0035b	8b 45 f4	 mov	 eax, DWORD PTR _key$1$[ebp]
  0035e	66 90		 npad	 2
$LL111@Serialize:

; 1542 : 	{
; 1543 : 		if (pAssoc->nHashValue == nHashValue && CompareElements(&pAssoc->key, &key))

  00360	39 79 0c	 cmp	 DWORD PTR [ecx+12], edi
  00363	75 08		 jne	 SHORT $LN109@Serialize

; 156  : 	return *pElement1 == *pElement2;

  00365	39 01		 cmp	 DWORD PTR [ecx], eax

; 1543 : 		if (pAssoc->nHashValue == nHashValue && CompareElements(&pAssoc->key, &key))

  00367	0f 84 7d 00 00
	00		 je	 $LN104@Serialize
$LN109@Serialize:

; 1537 : 		return NULL;
; 1538 : 
; 1539 : 	// see if it exists
; 1540 : 	CAssoc* pAssoc;
; 1541 : 	for (pAssoc = m_pHashTable[nHashBucket]; pAssoc != NULL; pAssoc = pAssoc->pNext)

  0036d	8b 49 08	 mov	 ecx, DWORD PTR [ecx+8]
  00370	85 c9		 test	 ecx, ecx
  00372	75 ec		 jne	 SHORT $LL111@Serialize
$LN225@Serialize:

; 1481 : 	if (m_pFreeList == NULL)

  00374	83 7e 10 00	 cmp	 DWORD PTR [esi+16], 0
  00378	75 37		 jne	 SHORT $LN142@Serialize

; 1482 : 	{
; 1483 : 		// add another block
; 1484 : 		CPlex* newBlock = CPlex::Create(m_pBlocks, m_nBlockSize, sizeof(CMap::CAssoc));

  0037a	6a 10		 push	 16			; 00000010H
  0037c	ff 76 18	 push	 DWORD PTR [esi+24]
  0037f	8d 46 14	 lea	 eax, DWORD PTR [esi+20]
  00382	50		 push	 eax
  00383	e8 00 00 00 00	 call	 ?Create@CPlex@@SGPAU1@AAPAU1@II@Z ; CPlex::Create

; 1485 : 		// chain them into free list
; 1486 : 		CMap::CAssoc* pAssoc = (CMap::CAssoc*) newBlock->data();
; 1487 : 		// free in reverse order to make it easier to debug
; 1488 : 		pAssoc += m_nBlockSize - 1;

  00388	8b 56 18	 mov	 edx, DWORD PTR [esi+24]
  0038b	83 c0 08	 add	 eax, 8
  0038e	8b ca		 mov	 ecx, edx
  00390	c1 e1 04	 shl	 ecx, 4
  00393	83 c1 f0	 add	 ecx, -16		; fffffff0H
  00396	03 c8		 add	 ecx, eax

; 1489 : 		for (INT_PTR i = m_nBlockSize-1; i >= 0; i--, pAssoc--)

  00398	83 c2 ff	 add	 edx, -1
  0039b	78 14		 js	 SHORT $LN142@Serialize
  0039d	0f 1f 00	 npad	 3
$LL139@Serialize:

; 1490 : 		{
; 1491 : 			pAssoc->pNext = m_pFreeList;

  003a0	8b 46 10	 mov	 eax, DWORD PTR [esi+16]
  003a3	89 41 08	 mov	 DWORD PTR [ecx+8], eax

; 1492 : 			m_pFreeList = pAssoc;

  003a6	89 4e 10	 mov	 DWORD PTR [esi+16], ecx
  003a9	83 e9 10	 sub	 ecx, 16			; 00000010H
  003ac	83 ea 01	 sub	 edx, 1
  003af	79 ef		 jns	 SHORT $LL139@Serialize
$LN142@Serialize:

; 1493 : 		}
; 1494 : 	}
; 1495 : 	ENSURE(m_pFreeList != NULL);  // we must have something

  003b1	8b 4e 10	 mov	 ecx, DWORD PTR [esi+16]
  003b4	85 c9		 test	 ecx, ecx
  003b6	74 4c		 je	 SHORT $LN167@Serialize

; 1496 : 
; 1497 : 	CMap::CAssoc* pAssoc = m_pFreeList;
; 1498 : 
; 1499 : 	// zero the memory
; 1500 : 	CMap::CAssoc* pTemp = pAssoc->pNext;

  003b8	8b 41 08	 mov	 eax, DWORD PTR [ecx+8]
  003bb	0f 57 c0	 xorps	 xmm0, xmm0

; 1602 : 		pAssoc->pNext = m_pHashTable[nHashBucket];

  003be	8b 55 e0	 mov	 edx, DWORD PTR _nHashBucket$1$[ebp]

; 1501 : 	memset( pAssoc, 0, sizeof(CMap::CAssoc) );

  003c1	0f 11 01	 movups	 XMMWORD PTR [ecx], xmm0

; 1502 : 	pAssoc->pNext = pTemp;

  003c4	89 41 08	 mov	 DWORD PTR [ecx+8], eax

; 1503 : 
; 1504 : 	m_pFreeList = m_pFreeList->pNext;

  003c7	8b 46 10	 mov	 eax, DWORD PTR [esi+16]
  003ca	8b 40 08	 mov	 eax, DWORD PTR [eax+8]

; 1505 : 	m_nCount++;

  003cd	ff 46 0c	 inc	 DWORD PTR [esi+12]
  003d0	89 46 10	 mov	 DWORD PTR [esi+16], eax

; 1256 : 		CPair( ARG_KEY keyval ) : key( keyval )	{}

  003d3	8b 45 f4	 mov	 eax, DWORD PTR _key$1$[ebp]
  003d6	89 01		 mov	 DWORD PTR [ecx], eax

; 1598 : 		pAssoc->nHashValue = nHashValue;

  003d8	89 79 0c	 mov	 DWORD PTR [ecx+12], edi

; 1599 : 		//'pAssoc->value' is a constructed object, nothing more
; 1600 : 
; 1601 : 		// put into hash table
; 1602 : 		pAssoc->pNext = m_pHashTable[nHashBucket];

  003db	8b 46 04	 mov	 eax, DWORD PTR [esi+4]
  003de	8b 04 90	 mov	 eax, DWORD PTR [eax+edx*4]
  003e1	89 41 08	 mov	 DWORD PTR [ecx+8], eax

; 1603 : 		m_pHashTable[nHashBucket] = pAssoc;

  003e4	8b 46 04	 mov	 eax, DWORD PTR [esi+4]
  003e7	89 0c 90	 mov	 DWORD PTR [eax+edx*4], ecx
$LN104@Serialize:

; 1350 : 	{ (*this)[key] = newValue; }

  003ea	8b 45 e4	 mov	 eax, DWORD PTR _newValue$1$[ebp]
  003ed	89 41 04	 mov	 DWORD PTR [ecx+4], eax

; 1780 : 		while (nNewCount--)

  003f0	8b 45 f8	 mov	 eax, DWORD PTR _nNewCount$1$[ebp]
  003f3	85 c0		 test	 eax, eax
  003f5	0f 85 a5 fd ff
	ff		 jne	 $LL8@Serialize
$LN189@Serialize:
  003fb	5f		 pop	 edi

; 1787 : 		}
; 1788 : 	}
; 1789 : }

  003fc	5e		 pop	 esi
  003fd	5b		 pop	 ebx
  003fe	8b e5		 mov	 esp, ebp
  00400	5d		 pop	 ebp
  00401	c2 04 00	 ret	 4
$LN167@Serialize:
  00404	e8 00 00 00 00	 call	 ?AfxThrowInvalidArgException@@YGXXZ ; AfxThrowInvalidArgException
$LN165@Serialize:
  00409	6a 00		 push	 0
  0040b	6a 03		 push	 3
  0040d	e8 00 00 00 00	 call	 ?AfxThrowArchiveException@@YGXHPBD@Z ; AfxThrowArchiveException
$LN226@Serialize:
  00412	cc		 int	 3
?Serialize@?$CMap@HHW4TOOLTYPE@CSymbolBaseData@@W412@@@UAEXAAVCArchive@@@Z ENDP ; CMap<int,int,enum CSymbolBaseData::TOOLTYPE,enum CSymbolBaseData::TOOLTYPE>::Serialize
_TEXT	ENDS
; Function compile flags: /Ogtp
; File C:\Program Files (x86)\Microsoft Visual Studio\2019\Community\VC\Tools\MSVC\14.29.30133\atlmfc\include\afxtempl.h
;	COMDAT ??1?$CMap@HHW4TOOLTYPE@CSymbolBaseData@@W412@@@UAE@XZ
_TEXT	SEGMENT
__$EHRec$ = -12						; size = 12
??1?$CMap@HHW4TOOLTYPE@CSymbolBaseData@@W412@@@UAE@XZ PROC ; CMap<int,int,enum CSymbolBaseData::TOOLTYPE,enum CSymbolBaseData::TOOLTYPE>::~CMap<int,int,enum CSymbolBaseData::TOOLTYPE,enum CSymbolBaseData::TOOLTYPE>, COMDAT
; _this$ = ecx

; 1472 : {

  00000	55		 push	 ebp
  00001	8b ec		 mov	 ebp, esp
  00003	6a ff		 push	 -1
  00005	68 00 00 00 00	 push	 __ehhandler$??1?$CMap@HHW4TOOLTYPE@CSymbolBaseData@@W412@@@UAE@XZ
  0000a	64 a1 00 00 00
	00		 mov	 eax, DWORD PTR fs:0
  00010	50		 push	 eax
  00011	56		 push	 esi
  00012	a1 00 00 00 00	 mov	 eax, DWORD PTR ___security_cookie
  00017	33 c5		 xor	 eax, ebp
  00019	50		 push	 eax
  0001a	8d 45 f4	 lea	 eax, DWORD PTR __$EHRec$[ebp]
  0001d	64 a3 00 00 00
	00		 mov	 DWORD PTR fs:0, eax
  00023	8b f1		 mov	 esi, ecx

; 1446 : 	if (m_pHashTable != NULL)

  00025	8b 46 04	 mov	 eax, DWORD PTR [esi+4]

; 1472 : {

  00028	c7 06 00 00 00
	00		 mov	 DWORD PTR [esi], OFFSET ??_7?$CMap@HHW4TOOLTYPE@CSymbolBaseData@@W412@@@6B@

; 1446 : 	if (m_pHashTable != NULL)

  0002e	85 c0		 test	 eax, eax
  00030	74 10		 je	 SHORT $LN10@CMap

; 1447 : 	{
; 1448 : 		// destroy elements (values and keys)
; 1449 : 		for (UINT nHash = 0; nHash < m_nHashTableSize; nHash++)
; 1450 : 		{
; 1451 : 			CAssoc* pAssoc;
; 1452 : 			for (pAssoc = m_pHashTable[nHash]; pAssoc != NULL;
; 1453 : 			  pAssoc = pAssoc->pNext)
; 1454 : 			{
; 1455 : 				pAssoc->CAssoc::~CAssoc();
; 1456 : 			}
; 1457 : 		}
; 1458 : 
; 1459 : 		// free hash table
; 1460 : 		delete[] m_pHashTable;

  00032	50		 push	 eax
  00033	e8 00 00 00 00	 call	 ??_V@YAXPAX@Z		; operator delete[]
  00038	83 c4 04	 add	 esp, 4

; 1461 : 		m_pHashTable = NULL;

  0003b	c7 46 04 00 00
	00 00		 mov	 DWORD PTR [esi+4], 0
$LN10@CMap:

; 1462 : 	}
; 1463 : 
; 1464 : 	m_nCount = 0;
; 1465 : 	m_pFreeList = NULL;
; 1466 : 	m_pBlocks->FreeDataChain();

  00042	8b 4e 14	 mov	 ecx, DWORD PTR [esi+20]
  00045	c7 46 0c 00 00
	00 00		 mov	 DWORD PTR [esi+12], 0
  0004c	c7 46 10 00 00
	00 00		 mov	 DWORD PTR [esi+16], 0
  00053	e8 00 00 00 00	 call	 ?FreeDataChain@CPlex@@QAEXXZ ; CPlex::FreeDataChain

; 1467 : 	m_pBlocks = NULL;

  00058	c7 46 14 00 00
	00 00		 mov	 DWORD PTR [esi+20], 0

; 1473 : 	RemoveAll();
; 1474 : 	ASSERT(m_nCount == 0);
; 1475 : }

  0005f	8b 4d f4	 mov	 ecx, DWORD PTR __$EHRec$[ebp]
  00062	64 89 0d 00 00
	00 00		 mov	 DWORD PTR fs:0, ecx
  00069	59		 pop	 ecx
  0006a	5e		 pop	 esi
  0006b	8b e5		 mov	 esp, ebp
  0006d	5d		 pop	 ebp
  0006e	c3		 ret	 0
  0006f	cc		 int	 3
  00070	cc		 int	 3
  00071	cc		 int	 3
  00072	cc		 int	 3
  00073	cc		 int	 3
_TEXT	ENDS
;	COMDAT text$x
text$x	SEGMENT
__ehhandler$??1?$CMap@HHW4TOOLTYPE@CSymbolBaseData@@W412@@@UAE@XZ:
  00000	90		 npad	 1
  00001	90		 npad	 1
  00002	8b 54 24 08	 mov	 edx, DWORD PTR [esp+8]
  00006	8d 42 0c	 lea	 eax, DWORD PTR [edx+12]
  00009	8b 4a f8	 mov	 ecx, DWORD PTR [edx-8]
  0000c	33 c8		 xor	 ecx, eax
  0000e	e8 00 00 00 00	 call	 @__security_check_cookie@4
  00013	b8 00 00 00 00	 mov	 eax, OFFSET __ehfuncinfo$??1?$CMap@HHW4TOOLTYPE@CSymbolBaseData@@W412@@@UAE@XZ
  00018	e9 00 00 00 00	 jmp	 ___CxxFrameHandler3
text$x	ENDS
??1?$CMap@HHW4TOOLTYPE@CSymbolBaseData@@W412@@@UAE@XZ ENDP ; CMap<int,int,enum CSymbolBaseData::TOOLTYPE,enum CSymbolBaseData::TOOLTYPE>::~CMap<int,int,enum CSymbolBaseData::TOOLTYPE,enum CSymbolBaseData::TOOLTYPE>
; Function compile flags: /Ogtp
; File C:\Program Files (x86)\Microsoft Visual Studio\2019\Community\VC\Tools\MSVC\14.29.30133\atlmfc\include\afxtempl.h
;	COMDAT ?GetAssocAt@?$CMap@HHW4TOOLTYPE@CSymbolBaseData@@W412@@@IBEPAVCAssoc@1@HAAI0@Z
_TEXT	SEGMENT
_key$ = 8						; size = 4
_nHashBucket$ = 12					; size = 4
_nHashValue$ = 16					; size = 4
?GetAssocAt@?$CMap@HHW4TOOLTYPE@CSymbolBaseData@@W412@@@IBEPAVCAssoc@1@HAAI0@Z PROC ; CMap<int,int,enum CSymbolBaseData::TOOLTYPE,enum CSymbolBaseData::TOOLTYPE>::GetAssocAt, COMDAT
; _this$ = ecx

; 1532 : {

  00000	55		 push	 ebp
  00001	8b ec		 mov	 ebp, esp
  00003	56		 push	 esi
  00004	8b f1		 mov	 esi, ecx

; 165  : 	ldiv_t HashVal = ldiv((long)(ARG_KEY)key, 127773);

  00006	b9 1d f3 01 00	 mov	 ecx, 127773		; 0001f31dH

; 1532 : {

  0000b	57		 push	 edi

; 165  : 	ldiv_t HashVal = ldiv((long)(ARG_KEY)key, 127773);

  0000c	8b 7d 08	 mov	 edi, DWORD PTR _key$[ebp]
  0000f	8b c7		 mov	 eax, edi
  00011	99		 cdq
  00012	f7 f9		 idiv	 ecx

; 166  : 	HashVal.rem = 16807 * HashVal.rem - 2836 * HashVal.quot;

  00014	69 c0 14 0b 00
	00		 imul	 eax, eax, 2836
  0001a	69 ca a7 41 00
	00		 imul	 ecx, edx, 16807
  00020	2b c8		 sub	 ecx, eax

; 1533 : 	nHashValue = HashKey<ARG_KEY>(key);

  00022	8d 81 ff ff ff
	7f		 lea	 eax, DWORD PTR [ecx+2147483647]
  00028	0f 49 c1	 cmovns	 eax, ecx
  0002b	8b 4d 10	 mov	 ecx, DWORD PTR _nHashValue$[ebp]

; 1534 : 	nHashBucket = nHashValue % m_nHashTableSize;

  0002e	33 d2		 xor	 edx, edx
  00030	89 01		 mov	 DWORD PTR [ecx], eax
  00032	f7 76 08	 div	 DWORD PTR [esi+8]
  00035	8b 45 0c	 mov	 eax, DWORD PTR _nHashBucket$[ebp]
  00038	89 10		 mov	 DWORD PTR [eax], edx

; 1535 : 
; 1536 : 	if (m_pHashTable == NULL)

  0003a	8b 46 04	 mov	 eax, DWORD PTR [esi+4]
  0003d	85 c0		 test	 eax, eax
  0003f	74 1f		 je	 SHORT $LN26@GetAssocAt

; 1537 : 		return NULL;
; 1538 : 
; 1539 : 	// see if it exists
; 1540 : 	CAssoc* pAssoc;
; 1541 : 	for (pAssoc = m_pHashTable[nHashBucket]; pAssoc != NULL; pAssoc = pAssoc->pNext)

  00041	8b 04 90	 mov	 eax, DWORD PTR [eax+edx*4]
  00044	85 c0		 test	 eax, eax
  00046	74 18		 je	 SHORT $LN26@GetAssocAt

; 1542 : 	{
; 1543 : 		if (pAssoc->nHashValue == nHashValue && CompareElements(&pAssoc->key, &key))

  00048	8b 09		 mov	 ecx, DWORD PTR [ecx]
  0004a	66 0f 1f 44 00
	00		 npad	 6
$LL4@GetAssocAt:
  00050	39 48 0c	 cmp	 DWORD PTR [eax+12], ecx
  00053	75 04		 jne	 SHORT $LN2@GetAssocAt

; 156  : 	return *pElement1 == *pElement2;

  00055	39 38		 cmp	 DWORD PTR [eax], edi

; 1542 : 	{
; 1543 : 		if (pAssoc->nHashValue == nHashValue && CompareElements(&pAssoc->key, &key))

  00057	74 09		 je	 SHORT $LN1@GetAssocAt
$LN2@GetAssocAt:

; 1537 : 		return NULL;
; 1538 : 
; 1539 : 	// see if it exists
; 1540 : 	CAssoc* pAssoc;
; 1541 : 	for (pAssoc = m_pHashTable[nHashBucket]; pAssoc != NULL; pAssoc = pAssoc->pNext)

  00059	8b 40 08	 mov	 eax, DWORD PTR [eax+8]
  0005c	85 c0		 test	 eax, eax
  0005e	75 f0		 jne	 SHORT $LL4@GetAssocAt
$LN26@GetAssocAt:

; 1544 : 			return pAssoc;
; 1545 : 	}
; 1546 : 	return NULL;

  00060	33 c0		 xor	 eax, eax
$LN1@GetAssocAt:
  00062	5f		 pop	 edi

; 1547 : }

  00063	5e		 pop	 esi
  00064	5d		 pop	 ebp
  00065	c2 0c 00	 ret	 12			; 0000000cH
?GetAssocAt@?$CMap@HHW4TOOLTYPE@CSymbolBaseData@@W412@@@IBEPAVCAssoc@1@HAAI0@Z ENDP ; CMap<int,int,enum CSymbolBaseData::TOOLTYPE,enum CSymbolBaseData::TOOLTYPE>::GetAssocAt
_TEXT	ENDS
; Function compile flags: /Ogtp
; File C:\Program Files (x86)\Microsoft Visual Studio\2019\Community\VC\Tools\MSVC\14.29.30133\atlmfc\include\afxtempl.h
;	COMDAT ?NewAssoc@?$CMap@HHW4TOOLTYPE@CSymbolBaseData@@W412@@@IAEPAVCAssoc@1@H@Z
_TEXT	SEGMENT
_key$ = 8						; size = 4
?NewAssoc@?$CMap@HHW4TOOLTYPE@CSymbolBaseData@@W412@@@IAEPAVCAssoc@1@H@Z PROC ; CMap<int,int,enum CSymbolBaseData::TOOLTYPE,enum CSymbolBaseData::TOOLTYPE>::NewAssoc, COMDAT
; _this$ = ecx

; 1480 : {

  00000	55		 push	 ebp
  00001	8b ec		 mov	 ebp, esp
  00003	56		 push	 esi
  00004	8b f1		 mov	 esi, ecx

; 1481 : 	if (m_pFreeList == NULL)

  00006	83 7e 10 00	 cmp	 DWORD PTR [esi+16], 0
  0000a	75 35		 jne	 SHORT $LN7@NewAssoc

; 1482 : 	{
; 1483 : 		// add another block
; 1484 : 		CPlex* newBlock = CPlex::Create(m_pBlocks, m_nBlockSize, sizeof(CMap::CAssoc));

  0000c	6a 10		 push	 16			; 00000010H
  0000e	ff 76 18	 push	 DWORD PTR [esi+24]
  00011	8d 46 14	 lea	 eax, DWORD PTR [esi+20]
  00014	50		 push	 eax
  00015	e8 00 00 00 00	 call	 ?Create@CPlex@@SGPAU1@AAPAU1@II@Z ; CPlex::Create

; 1485 : 		// chain them into free list
; 1486 : 		CMap::CAssoc* pAssoc = (CMap::CAssoc*) newBlock->data();
; 1487 : 		// free in reverse order to make it easier to debug
; 1488 : 		pAssoc += m_nBlockSize - 1;

  0001a	8b 56 18	 mov	 edx, DWORD PTR [esi+24]
  0001d	83 c0 08	 add	 eax, 8
  00020	8b ca		 mov	 ecx, edx
  00022	c1 e1 04	 shl	 ecx, 4
  00025	83 c1 f0	 add	 ecx, -16		; fffffff0H
  00028	03 c1		 add	 eax, ecx

; 1489 : 		for (INT_PTR i = m_nBlockSize-1; i >= 0; i--, pAssoc--)

  0002a	83 c2 ff	 add	 edx, -1
  0002d	78 12		 js	 SHORT $LN7@NewAssoc
  0002f	90		 npad	 1
$LL4@NewAssoc:

; 1490 : 		{
; 1491 : 			pAssoc->pNext = m_pFreeList;

  00030	8b 4e 10	 mov	 ecx, DWORD PTR [esi+16]
  00033	89 48 08	 mov	 DWORD PTR [eax+8], ecx

; 1492 : 			m_pFreeList = pAssoc;

  00036	89 46 10	 mov	 DWORD PTR [esi+16], eax
  00039	83 e8 10	 sub	 eax, 16			; 00000010H
  0003c	83 ea 01	 sub	 edx, 1
  0003f	79 ef		 jns	 SHORT $LL4@NewAssoc
$LN7@NewAssoc:

; 1493 : 		}
; 1494 : 	}
; 1495 : 	ENSURE(m_pFreeList != NULL);  // we must have something

  00041	8b 46 10	 mov	 eax, DWORD PTR [esi+16]
  00044	85 c0		 test	 eax, eax
  00046	74 22		 je	 SHORT $LN21@NewAssoc

; 1496 : 
; 1497 : 	CMap::CAssoc* pAssoc = m_pFreeList;
; 1498 : 
; 1499 : 	// zero the memory
; 1500 : 	CMap::CAssoc* pTemp = pAssoc->pNext;

  00048	8b 48 08	 mov	 ecx, DWORD PTR [eax+8]
  0004b	0f 57 c0	 xorps	 xmm0, xmm0

; 1501 : 	memset( pAssoc, 0, sizeof(CMap::CAssoc) );

  0004e	0f 11 00	 movups	 XMMWORD PTR [eax], xmm0

; 1502 : 	pAssoc->pNext = pTemp;

  00051	89 48 08	 mov	 DWORD PTR [eax+8], ecx

; 1503 : 
; 1504 : 	m_pFreeList = m_pFreeList->pNext;

  00054	8b 4e 10	 mov	 ecx, DWORD PTR [esi+16]
  00057	8b 49 08	 mov	 ecx, DWORD PTR [ecx+8]

; 1505 : 	m_nCount++;

  0005a	ff 46 0c	 inc	 DWORD PTR [esi+12]
  0005d	89 4e 10	 mov	 DWORD PTR [esi+16], ecx

; 1256 : 		CPair( ARG_KEY keyval ) : key( keyval )	{}

  00060	8b 4d 08	 mov	 ecx, DWORD PTR _key$[ebp]
  00063	89 08		 mov	 DWORD PTR [eax], ecx

; 1506 : 	ASSERT(m_nCount > 0);  // make sure we don't overflow
; 1507 : #pragma push_macro("new")
; 1508 : #undef new
; 1509 : 	::new(pAssoc) CMap::CAssoc(key);
; 1510 : #pragma pop_macro("new")
; 1511 : 	return pAssoc;

  00065	5e		 pop	 esi

; 1512 : }

  00066	5d		 pop	 ebp
  00067	c2 04 00	 ret	 4
$LN21@NewAssoc:

; 1493 : 		}
; 1494 : 	}
; 1495 : 	ENSURE(m_pFreeList != NULL);  // we must have something

  0006a	e8 00 00 00 00	 call	 ?AfxThrowInvalidArgException@@YGXXZ ; AfxThrowInvalidArgException
$LN19@NewAssoc:
  0006f	cc		 int	 3
?NewAssoc@?$CMap@HHW4TOOLTYPE@CSymbolBaseData@@W412@@@IAEPAVCAssoc@1@H@Z ENDP ; CMap<int,int,enum CSymbolBaseData::TOOLTYPE,enum CSymbolBaseData::TOOLTYPE>::NewAssoc
_TEXT	ENDS
; Function compile flags: /Ogtp
; File C:\Program Files (x86)\Microsoft Visual Studio\2019\Community\VC\Tools\MSVC\14.29.30133\atlmfc\include\afxtempl.h
;	COMDAT ?InitHashTable@?$CMap@HHW4TOOLTYPE@CSymbolBaseData@@W412@@@QAEXIH@Z
_TEXT	SEGMENT
_nHashSize$ = 8						; size = 4
_bAllocNow$ = 12					; size = 4
?InitHashTable@?$CMap@HHW4TOOLTYPE@CSymbolBaseData@@W412@@@QAEXIH@Z PROC ; CMap<int,int,enum CSymbolBaseData::TOOLTYPE,enum CSymbolBaseData::TOOLTYPE>::InitHashTable, COMDAT
; _this$ = ecx

; 1420 : {

  00000	55		 push	 ebp
  00001	8b ec		 mov	 ebp, esp
  00003	56		 push	 esi
  00004	8b f1		 mov	 esi, ecx
  00006	57		 push	 edi

; 1421 : 	ASSERT_VALID(this);
; 1422 : 	ASSERT(m_nCount == 0);
; 1423 : 	ASSERT(nHashSize > 0);
; 1424 : 
; 1425 : 	if (m_pHashTable != NULL)

  00007	8b 46 04	 mov	 eax, DWORD PTR [esi+4]
  0000a	85 c0		 test	 eax, eax
  0000c	74 10		 je	 SHORT $LN5@InitHashTa

; 1426 : 	{
; 1427 : 		// free hash table
; 1428 : 		delete[] m_pHashTable;

  0000e	50		 push	 eax
  0000f	e8 00 00 00 00	 call	 ??_V@YAXPAX@Z		; operator delete[]
  00014	83 c4 04	 add	 esp, 4

; 1429 : 		m_pHashTable = NULL;

  00017	c7 46 04 00 00
	00 00		 mov	 DWORD PTR [esi+4], 0
$LN5@InitHashTa:

; 1430 : 	}
; 1431 : 
; 1432 : 	if (bAllocNow)

  0001e	83 7d 0c 00	 cmp	 DWORD PTR _bAllocNow$[ebp], 0
  00022	8b 7d 08	 mov	 edi, DWORD PTR _nHashSize$[ebp]
  00025	74 37		 je	 SHORT $LN6@InitHashTa

; 1433 : 	{
; 1434 : 		m_pHashTable = new CAssoc* [nHashSize];

  00027	33 c9		 xor	 ecx, ecx
  00029	8b c7		 mov	 eax, edi
  0002b	ba 04 00 00 00	 mov	 edx, 4
  00030	f7 e2		 mul	 edx
  00032	0f 90 c1	 seto	 cl
  00035	f7 d9		 neg	 ecx
  00037	0b c8		 or	 ecx, eax
  00039	51		 push	 ecx
  0003a	e8 00 00 00 00	 call	 ??_U@YAPAXI@Z		; operator new[]
  0003f	8b c8		 mov	 ecx, eax
  00041	83 c4 04	 add	 esp, 4
  00044	89 4e 04	 mov	 DWORD PTR [esi+4], ecx

; 1435 : 		ENSURE(m_pHashTable != NULL);

  00047	85 c9		 test	 ecx, ecx
  00049	74 1c		 je	 SHORT $LN11@InitHashTa

; 1436 : 		memset(m_pHashTable, 0, sizeof(CAssoc*) * nHashSize);

  0004b	8d 04 bd 00 00
	00 00		 lea	 eax, DWORD PTR [edi*4]
  00052	50		 push	 eax
  00053	6a 00		 push	 0
  00055	51		 push	 ecx
  00056	e8 00 00 00 00	 call	 _memset
  0005b	83 c4 0c	 add	 esp, 12			; 0000000cH
$LN6@InitHashTa:

; 1437 : 	}
; 1438 : 	m_nHashTableSize = nHashSize;

  0005e	89 7e 08	 mov	 DWORD PTR [esi+8], edi
  00061	5f		 pop	 edi
  00062	5e		 pop	 esi

; 1439 : }

  00063	5d		 pop	 ebp
  00064	c2 08 00	 ret	 8
$LN11@InitHashTa:

; 1435 : 		ENSURE(m_pHashTable != NULL);

  00067	e8 00 00 00 00	 call	 ?AfxThrowInvalidArgException@@YGXXZ ; AfxThrowInvalidArgException
$LN9@InitHashTa:
  0006c	cc		 int	 3
?InitHashTable@?$CMap@HHW4TOOLTYPE@CSymbolBaseData@@W412@@@QAEXIH@Z ENDP ; CMap<int,int,enum CSymbolBaseData::TOOLTYPE,enum CSymbolBaseData::TOOLTYPE>::InitHashTable
_TEXT	ENDS
; Function compile flags: /Ogtp
; File C:\Program Files (x86)\Microsoft Visual Studio\2019\Community\VC\Tools\MSVC\14.29.30133\atlmfc\include\afxtempl.h
;	COMDAT ?RemoveAll@?$CMap@HHW4TOOLTYPE@CSymbolBaseData@@W412@@@QAEXXZ
_TEXT	SEGMENT
?RemoveAll@?$CMap@HHW4TOOLTYPE@CSymbolBaseData@@W412@@@QAEXXZ PROC ; CMap<int,int,enum CSymbolBaseData::TOOLTYPE,enum CSymbolBaseData::TOOLTYPE>::RemoveAll, COMDAT
; _this$ = ecx

; 1443 : {

  00000	56		 push	 esi
  00001	8b f1		 mov	 esi, ecx

; 1444 : 	ASSERT_VALID(this);
; 1445 : 
; 1446 : 	if (m_pHashTable != NULL)

  00003	8b 46 04	 mov	 eax, DWORD PTR [esi+4]
  00006	85 c0		 test	 eax, eax
  00008	74 10		 je	 SHORT $LN8@RemoveAll

; 1447 : 	{
; 1448 : 		// destroy elements (values and keys)
; 1449 : 		for (UINT nHash = 0; nHash < m_nHashTableSize; nHash++)
; 1450 : 		{
; 1451 : 			CAssoc* pAssoc;
; 1452 : 			for (pAssoc = m_pHashTable[nHash]; pAssoc != NULL;
; 1453 : 			  pAssoc = pAssoc->pNext)
; 1454 : 			{
; 1455 : 				pAssoc->CAssoc::~CAssoc();
; 1456 : 			}
; 1457 : 		}
; 1458 : 
; 1459 : 		// free hash table
; 1460 : 		delete[] m_pHashTable;

  0000a	50		 push	 eax
  0000b	e8 00 00 00 00	 call	 ??_V@YAXPAX@Z		; operator delete[]
  00010	83 c4 04	 add	 esp, 4

; 1461 : 		m_pHashTable = NULL;

  00013	c7 46 04 00 00
	00 00		 mov	 DWORD PTR [esi+4], 0
$LN8@RemoveAll:

; 1462 : 	}
; 1463 : 
; 1464 : 	m_nCount = 0;
; 1465 : 	m_pFreeList = NULL;
; 1466 : 	m_pBlocks->FreeDataChain();

  0001a	8b 4e 14	 mov	 ecx, DWORD PTR [esi+20]
  0001d	c7 46 0c 00 00
	00 00		 mov	 DWORD PTR [esi+12], 0
  00024	c7 46 10 00 00
	00 00		 mov	 DWORD PTR [esi+16], 0
  0002b	e8 00 00 00 00	 call	 ?FreeDataChain@CPlex@@QAEXXZ ; CPlex::FreeDataChain

; 1467 : 	m_pBlocks = NULL;

  00030	c7 46 14 00 00
	00 00		 mov	 DWORD PTR [esi+20], 0
  00037	5e		 pop	 esi

; 1468 : }

  00038	c3		 ret	 0
?RemoveAll@?$CMap@HHW4TOOLTYPE@CSymbolBaseData@@W412@@@QAEXXZ ENDP ; CMap<int,int,enum CSymbolBaseData::TOOLTYPE,enum CSymbolBaseData::TOOLTYPE>::RemoveAll
_TEXT	ENDS
; Function compile flags: /Ogtp
; File C:\Program Files (x86)\Microsoft Visual Studio\2019\Community\VC\Tools\MSVC\14.29.30133\atlmfc\include\afxtempl.h
;	COMDAT ?SetAt@?$CMap@HHW4TOOLTYPE@CSymbolBaseData@@W412@@@QAEXHW4TOOLTYPE@CSymbolBaseData@@@Z
_TEXT	SEGMENT
_nHashBucket$1 = -8					; size = 4
_nHashValue$2 = -4					; size = 4
_key$ = 8						; size = 4
_newValue$ = 12						; size = 4
?SetAt@?$CMap@HHW4TOOLTYPE@CSymbolBaseData@@W412@@@QAEXHW4TOOLTYPE@CSymbolBaseData@@@Z PROC ; CMap<int,int,enum CSymbolBaseData::TOOLTYPE,enum CSymbolBaseData::TOOLTYPE>::SetAt, COMDAT
; _this$ = ecx

; 1350 : 	{ (*this)[key] = newValue; }

  00000	55		 push	 ebp
  00001	8b ec		 mov	 ebp, esp
  00003	83 ec 08	 sub	 esp, 8

; 1590 : 	if ((pAssoc = GetAssocAt(key, nHashBucket, nHashValue)) == NULL)

  00006	8d 45 fc	 lea	 eax, DWORD PTR _nHashValue$2[ebp]

; 1350 : 	{ (*this)[key] = newValue; }

  00009	56		 push	 esi
  0000a	57		 push	 edi

; 1590 : 	if ((pAssoc = GetAssocAt(key, nHashBucket, nHashValue)) == NULL)

  0000b	8b 7d 08	 mov	 edi, DWORD PTR _key$[ebp]

; 1350 : 	{ (*this)[key] = newValue; }

  0000e	8b f1		 mov	 esi, ecx

; 1590 : 	if ((pAssoc = GetAssocAt(key, nHashBucket, nHashValue)) == NULL)

  00010	50		 push	 eax
  00011	8d 45 f8	 lea	 eax, DWORD PTR _nHashBucket$1[ebp]
  00014	50		 push	 eax
  00015	57		 push	 edi
  00016	e8 00 00 00 00	 call	 ?GetAssocAt@?$CMap@HHW4TOOLTYPE@CSymbolBaseData@@W412@@@IBEPAVCAssoc@1@HAAI0@Z ; CMap<int,int,enum CSymbolBaseData::TOOLTYPE,enum CSymbolBaseData::TOOLTYPE>::GetAssocAt
  0001b	8b d0		 mov	 edx, eax
  0001d	85 d2		 test	 edx, edx
  0001f	0f 85 9c 00 00
	00		 jne	 $LN7@SetAt

; 1591 : 	{
; 1592 : 		if (m_pHashTable == NULL)

  00025	8b 46 04	 mov	 eax, DWORD PTR [esi+4]
  00028	85 c0		 test	 eax, eax
  0002a	75 17		 jne	 SHORT $LN34@SetAt

; 1593 : 			InitHashTable(m_nHashTableSize);

  0002c	6a 01		 push	 1
  0002e	ff 76 08	 push	 DWORD PTR [esi+8]
  00031	8b ce		 mov	 ecx, esi
  00033	e8 00 00 00 00	 call	 ?InitHashTable@?$CMap@HHW4TOOLTYPE@CSymbolBaseData@@W412@@@QAEXIH@Z ; CMap<int,int,enum CSymbolBaseData::TOOLTYPE,enum CSymbolBaseData::TOOLTYPE>::InitHashTable
  00038	8b 46 04	 mov	 eax, DWORD PTR [esi+4]

; 1594 : 
; 1595 : 		ENSURE(m_pHashTable);

  0003b	85 c0		 test	 eax, eax
  0003d	0f 84 8c 00 00
	00		 je	 $LN31@SetAt
$LN34@SetAt:

; 1481 : 	if (m_pFreeList == NULL)

  00043	83 7e 10 00	 cmp	 DWORD PTR [esi+16], 0
  00047	75 38		 jne	 SHORT $LN17@SetAt

; 1482 : 	{
; 1483 : 		// add another block
; 1484 : 		CPlex* newBlock = CPlex::Create(m_pBlocks, m_nBlockSize, sizeof(CMap::CAssoc));

  00049	6a 10		 push	 16			; 00000010H
  0004b	ff 76 18	 push	 DWORD PTR [esi+24]
  0004e	8d 46 14	 lea	 eax, DWORD PTR [esi+20]
  00051	50		 push	 eax
  00052	e8 00 00 00 00	 call	 ?Create@CPlex@@SGPAU1@AAPAU1@II@Z ; CPlex::Create

; 1485 : 		// chain them into free list
; 1486 : 		CMap::CAssoc* pAssoc = (CMap::CAssoc*) newBlock->data();
; 1487 : 		// free in reverse order to make it easier to debug
; 1488 : 		pAssoc += m_nBlockSize - 1;

  00057	8b 56 18	 mov	 edx, DWORD PTR [esi+24]
  0005a	83 c0 08	 add	 eax, 8
  0005d	8b ca		 mov	 ecx, edx
  0005f	c1 e1 04	 shl	 ecx, 4
  00062	83 c1 f0	 add	 ecx, -16		; fffffff0H
  00065	03 c8		 add	 ecx, eax

; 1489 : 		for (INT_PTR i = m_nBlockSize-1; i >= 0; i--, pAssoc--)

  00067	83 c2 ff	 add	 edx, -1
  0006a	78 15		 js	 SHORT $LN17@SetAt
  0006c	0f 1f 40 00	 npad	 4
$LL14@SetAt:

; 1490 : 		{
; 1491 : 			pAssoc->pNext = m_pFreeList;

  00070	8b 46 10	 mov	 eax, DWORD PTR [esi+16]
  00073	89 41 08	 mov	 DWORD PTR [ecx+8], eax

; 1492 : 			m_pFreeList = pAssoc;

  00076	89 4e 10	 mov	 DWORD PTR [esi+16], ecx
  00079	83 e9 10	 sub	 ecx, 16			; 00000010H
  0007c	83 ea 01	 sub	 edx, 1
  0007f	79 ef		 jns	 SHORT $LL14@SetAt
$LN17@SetAt:

; 1493 : 		}
; 1494 : 	}
; 1495 : 	ENSURE(m_pFreeList != NULL);  // we must have something

  00081	8b 56 10	 mov	 edx, DWORD PTR [esi+16]
  00084	85 d2		 test	 edx, edx
  00086	74 47		 je	 SHORT $LN31@SetAt

; 1496 : 
; 1497 : 	CMap::CAssoc* pAssoc = m_pFreeList;
; 1498 : 
; 1499 : 	// zero the memory
; 1500 : 	CMap::CAssoc* pTemp = pAssoc->pNext;

  00088	8b 42 08	 mov	 eax, DWORD PTR [edx+8]
  0008b	0f 57 c0	 xorps	 xmm0, xmm0

; 1501 : 	memset( pAssoc, 0, sizeof(CMap::CAssoc) );

  0008e	0f 11 02	 movups	 XMMWORD PTR [edx], xmm0

; 1502 : 	pAssoc->pNext = pTemp;

  00091	89 42 08	 mov	 DWORD PTR [edx+8], eax

; 1503 : 
; 1504 : 	m_pFreeList = m_pFreeList->pNext;

  00094	8b 46 10	 mov	 eax, DWORD PTR [esi+16]
  00097	8b 40 08	 mov	 eax, DWORD PTR [eax+8]

; 1505 : 	m_nCount++;

  0009a	ff 46 0c	 inc	 DWORD PTR [esi+12]
  0009d	89 46 10	 mov	 DWORD PTR [esi+16], eax

; 1598 : 		pAssoc->nHashValue = nHashValue;

  000a0	8b 45 fc	 mov	 eax, DWORD PTR _nHashValue$2[ebp]
  000a3	89 42 0c	 mov	 DWORD PTR [edx+12], eax

; 1599 : 		//'pAssoc->value' is a constructed object, nothing more
; 1600 : 
; 1601 : 		// put into hash table
; 1602 : 		pAssoc->pNext = m_pHashTable[nHashBucket];

  000a6	8b 45 f8	 mov	 eax, DWORD PTR _nHashBucket$1[ebp]

; 1256 : 		CPair( ARG_KEY keyval ) : key( keyval )	{}

  000a9	89 3a		 mov	 DWORD PTR [edx], edi

; 1602 : 		pAssoc->pNext = m_pHashTable[nHashBucket];

  000ab	8d 0c 85 00 00
	00 00		 lea	 ecx, DWORD PTR [eax*4]
  000b2	8b 46 04	 mov	 eax, DWORD PTR [esi+4]
  000b5	8b 04 01	 mov	 eax, DWORD PTR [ecx+eax]
  000b8	89 42 08	 mov	 DWORD PTR [edx+8], eax

; 1603 : 		m_pHashTable[nHashBucket] = pAssoc;

  000bb	8b 46 04	 mov	 eax, DWORD PTR [esi+4]
  000be	89 14 01	 mov	 DWORD PTR [ecx+eax], edx
$LN7@SetAt:

; 1350 : 	{ (*this)[key] = newValue; }

  000c1	8b 45 0c	 mov	 eax, DWORD PTR _newValue$[ebp]
  000c4	5f		 pop	 edi
  000c5	89 42 04	 mov	 DWORD PTR [edx+4], eax
  000c8	5e		 pop	 esi
  000c9	8b e5		 mov	 esp, ebp
  000cb	5d		 pop	 ebp
  000cc	c2 08 00	 ret	 8
$LN31@SetAt:

; 1495 : 	ENSURE(m_pFreeList != NULL);  // we must have something

  000cf	e8 00 00 00 00	 call	 ?AfxThrowInvalidArgException@@YGXXZ ; AfxThrowInvalidArgException
$LN32@SetAt:
  000d4	cc		 int	 3
?SetAt@?$CMap@HHW4TOOLTYPE@CSymbolBaseData@@W412@@@QAEXHW4TOOLTYPE@CSymbolBaseData@@@Z ENDP ; CMap<int,int,enum CSymbolBaseData::TOOLTYPE,enum CSymbolBaseData::TOOLTYPE>::SetAt
_TEXT	ENDS
; Function compile flags: /Ogtp
; File C:\Program Files (x86)\Microsoft Visual Studio\2019\Community\VC\Tools\MSVC\14.29.30133\atlmfc\include\afxtempl.h
;	COMDAT ??A?$CMap@HHW4TOOLTYPE@CSymbolBaseData@@W412@@@QAEAAW4TOOLTYPE@CSymbolBaseData@@H@Z
_TEXT	SEGMENT
_nHashBucket$ = -8					; size = 4
_nHashValue$ = -4					; size = 4
_key$ = 8						; size = 4
??A?$CMap@HHW4TOOLTYPE@CSymbolBaseData@@W412@@@QAEAAW4TOOLTYPE@CSymbolBaseData@@H@Z PROC ; CMap<int,int,enum CSymbolBaseData::TOOLTYPE,enum CSymbolBaseData::TOOLTYPE>::operator[], COMDAT
; _this$ = ecx

; 1585 : {

  00000	55		 push	 ebp
  00001	8b ec		 mov	 ebp, esp
  00003	83 ec 08	 sub	 esp, 8

; 1586 : 	ASSERT_VALID(this);
; 1587 : 
; 1588 : 	UINT nHashBucket, nHashValue;
; 1589 : 	CAssoc* pAssoc;
; 1590 : 	if ((pAssoc = GetAssocAt(key, nHashBucket, nHashValue)) == NULL)

  00006	8d 45 fc	 lea	 eax, DWORD PTR _nHashValue$[ebp]
  00009	56		 push	 esi
  0000a	57		 push	 edi
  0000b	8b 7d 08	 mov	 edi, DWORD PTR _key$[ebp]
  0000e	8b f1		 mov	 esi, ecx
  00010	50		 push	 eax
  00011	8d 45 f8	 lea	 eax, DWORD PTR _nHashBucket$[ebp]
  00014	50		 push	 eax
  00015	57		 push	 edi
  00016	e8 00 00 00 00	 call	 ?GetAssocAt@?$CMap@HHW4TOOLTYPE@CSymbolBaseData@@W412@@@IBEPAVCAssoc@1@HAAI0@Z ; CMap<int,int,enum CSymbolBaseData::TOOLTYPE,enum CSymbolBaseData::TOOLTYPE>::GetAssocAt
  0001b	8b d0		 mov	 edx, eax
  0001d	85 d2		 test	 edx, edx
  0001f	0f 85 9c 00 00
	00		 jne	 $LN5@operator

; 1591 : 	{
; 1592 : 		if (m_pHashTable == NULL)

  00025	8b 46 04	 mov	 eax, DWORD PTR [esi+4]
  00028	85 c0		 test	 eax, eax
  0002a	75 17		 jne	 SHORT $LN31@operator

; 1593 : 			InitHashTable(m_nHashTableSize);

  0002c	6a 01		 push	 1
  0002e	ff 76 08	 push	 DWORD PTR [esi+8]
  00031	8b ce		 mov	 ecx, esi
  00033	e8 00 00 00 00	 call	 ?InitHashTable@?$CMap@HHW4TOOLTYPE@CSymbolBaseData@@W412@@@QAEXIH@Z ; CMap<int,int,enum CSymbolBaseData::TOOLTYPE,enum CSymbolBaseData::TOOLTYPE>::InitHashTable
  00038	8b 46 04	 mov	 eax, DWORD PTR [esi+4]

; 1594 : 
; 1595 : 		ENSURE(m_pHashTable);

  0003b	85 c0		 test	 eax, eax
  0003d	0f 84 89 00 00
	00		 je	 $LN28@operator
$LN31@operator:

; 1481 : 	if (m_pFreeList == NULL)

  00043	83 7e 10 00	 cmp	 DWORD PTR [esi+16], 0
  00047	75 38		 jne	 SHORT $LN15@operator

; 1482 : 	{
; 1483 : 		// add another block
; 1484 : 		CPlex* newBlock = CPlex::Create(m_pBlocks, m_nBlockSize, sizeof(CMap::CAssoc));

  00049	6a 10		 push	 16			; 00000010H
  0004b	ff 76 18	 push	 DWORD PTR [esi+24]
  0004e	8d 46 14	 lea	 eax, DWORD PTR [esi+20]
  00051	50		 push	 eax
  00052	e8 00 00 00 00	 call	 ?Create@CPlex@@SGPAU1@AAPAU1@II@Z ; CPlex::Create

; 1485 : 		// chain them into free list
; 1486 : 		CMap::CAssoc* pAssoc = (CMap::CAssoc*) newBlock->data();
; 1487 : 		// free in reverse order to make it easier to debug
; 1488 : 		pAssoc += m_nBlockSize - 1;

  00057	8b 56 18	 mov	 edx, DWORD PTR [esi+24]
  0005a	83 c0 08	 add	 eax, 8
  0005d	8b ca		 mov	 ecx, edx
  0005f	c1 e1 04	 shl	 ecx, 4
  00062	83 c1 f0	 add	 ecx, -16		; fffffff0H
  00065	03 c8		 add	 ecx, eax

; 1489 : 		for (INT_PTR i = m_nBlockSize-1; i >= 0; i--, pAssoc--)

  00067	83 c2 ff	 add	 edx, -1
  0006a	78 15		 js	 SHORT $LN15@operator
  0006c	0f 1f 40 00	 npad	 4
$LL12@operator:

; 1490 : 		{
; 1491 : 			pAssoc->pNext = m_pFreeList;

  00070	8b 46 10	 mov	 eax, DWORD PTR [esi+16]
  00073	89 41 08	 mov	 DWORD PTR [ecx+8], eax

; 1492 : 			m_pFreeList = pAssoc;

  00076	89 4e 10	 mov	 DWORD PTR [esi+16], ecx
  00079	83 e9 10	 sub	 ecx, 16			; 00000010H
  0007c	83 ea 01	 sub	 edx, 1
  0007f	79 ef		 jns	 SHORT $LL12@operator
$LN15@operator:

; 1493 : 		}
; 1494 : 	}
; 1495 : 	ENSURE(m_pFreeList != NULL);  // we must have something

  00081	8b 56 10	 mov	 edx, DWORD PTR [esi+16]
  00084	85 d2		 test	 edx, edx
  00086	74 44		 je	 SHORT $LN28@operator

; 1496 : 
; 1497 : 	CMap::CAssoc* pAssoc = m_pFreeList;
; 1498 : 
; 1499 : 	// zero the memory
; 1500 : 	CMap::CAssoc* pTemp = pAssoc->pNext;

  00088	8b 42 08	 mov	 eax, DWORD PTR [edx+8]
  0008b	0f 57 c0	 xorps	 xmm0, xmm0

; 1501 : 	memset( pAssoc, 0, sizeof(CMap::CAssoc) );

  0008e	0f 11 02	 movups	 XMMWORD PTR [edx], xmm0

; 1502 : 	pAssoc->pNext = pTemp;

  00091	89 42 08	 mov	 DWORD PTR [edx+8], eax

; 1503 : 
; 1504 : 	m_pFreeList = m_pFreeList->pNext;

  00094	8b 46 10	 mov	 eax, DWORD PTR [esi+16]
  00097	8b 40 08	 mov	 eax, DWORD PTR [eax+8]

; 1505 : 	m_nCount++;

  0009a	ff 46 0c	 inc	 DWORD PTR [esi+12]
  0009d	89 46 10	 mov	 DWORD PTR [esi+16], eax

; 1596 : 		// it doesn't exist, add a new Association
; 1597 : 		pAssoc = NewAssoc(key);
; 1598 : 		pAssoc->nHashValue = nHashValue;

  000a0	8b 45 fc	 mov	 eax, DWORD PTR _nHashValue$[ebp]
  000a3	89 42 0c	 mov	 DWORD PTR [edx+12], eax

; 1599 : 		//'pAssoc->value' is a constructed object, nothing more
; 1600 : 
; 1601 : 		// put into hash table
; 1602 : 		pAssoc->pNext = m_pHashTable[nHashBucket];

  000a6	8b 45 f8	 mov	 eax, DWORD PTR _nHashBucket$[ebp]

; 1256 : 		CPair( ARG_KEY keyval ) : key( keyval )	{}

  000a9	89 3a		 mov	 DWORD PTR [edx], edi

; 1599 : 		//'pAssoc->value' is a constructed object, nothing more
; 1600 : 
; 1601 : 		// put into hash table
; 1602 : 		pAssoc->pNext = m_pHashTable[nHashBucket];

  000ab	8d 0c 85 00 00
	00 00		 lea	 ecx, DWORD PTR [eax*4]
  000b2	8b 46 04	 mov	 eax, DWORD PTR [esi+4]
  000b5	8b 04 01	 mov	 eax, DWORD PTR [ecx+eax]
  000b8	89 42 08	 mov	 DWORD PTR [edx+8], eax

; 1603 : 		m_pHashTable[nHashBucket] = pAssoc;

  000bb	8b 46 04	 mov	 eax, DWORD PTR [esi+4]
  000be	89 14 01	 mov	 DWORD PTR [ecx+eax], edx
$LN5@operator:

; 1604 : 	}
; 1605 : 	return pAssoc->value;  // return new reference

  000c1	5f		 pop	 edi
  000c2	8d 42 04	 lea	 eax, DWORD PTR [edx+4]
  000c5	5e		 pop	 esi

; 1606 : }

  000c6	8b e5		 mov	 esp, ebp
  000c8	5d		 pop	 ebp
  000c9	c2 04 00	 ret	 4
$LN28@operator:

; 1495 : 	ENSURE(m_pFreeList != NULL);  // we must have something

  000cc	e8 00 00 00 00	 call	 ?AfxThrowInvalidArgException@@YGXXZ ; AfxThrowInvalidArgException
$LN29@operator:
  000d1	cc		 int	 3
??A?$CMap@HHW4TOOLTYPE@CSymbolBaseData@@W412@@@QAEAAW4TOOLTYPE@CSymbolBaseData@@H@Z ENDP ; CMap<int,int,enum CSymbolBaseData::TOOLTYPE,enum CSymbolBaseData::TOOLTYPE>::operator[]
_TEXT	ENDS
; Function compile flags: /Ogtp
; File C:\Program Files (x86)\Microsoft Visual Studio\2019\Community\VC\Tools\MSVC\14.29.30133\atlmfc\include\afxtempl.h
;	COMDAT ?Lookup@?$CMap@HHW4TOOLTYPE@CSymbolBaseData@@W412@@@QBEHHAAW4TOOLTYPE@CSymbolBaseData@@@Z
_TEXT	SEGMENT
_nHashBucket$ = -8					; size = 4
_nHashValue$ = -4					; size = 4
_key$ = 8						; size = 4
_rValue$ = 12						; size = 4
?Lookup@?$CMap@HHW4TOOLTYPE@CSymbolBaseData@@W412@@@QBEHHAAW4TOOLTYPE@CSymbolBaseData@@@Z PROC ; CMap<int,int,enum CSymbolBaseData::TOOLTYPE,enum CSymbolBaseData::TOOLTYPE>::Lookup, COMDAT
; _this$ = ecx

; 1551 : {

  00000	55		 push	 ebp
  00001	8b ec		 mov	 ebp, esp
  00003	83 ec 08	 sub	 esp, 8

; 1552 : 	ASSERT_VALID(this);
; 1553 : 
; 1554 : 	UINT nHashBucket, nHashValue;
; 1555 : 	CAssoc* pAssoc = GetAssocAt(key, nHashBucket, nHashValue);

  00006	8d 45 fc	 lea	 eax, DWORD PTR _nHashValue$[ebp]
  00009	50		 push	 eax
  0000a	8d 45 f8	 lea	 eax, DWORD PTR _nHashBucket$[ebp]
  0000d	50		 push	 eax
  0000e	ff 75 08	 push	 DWORD PTR _key$[ebp]
  00011	e8 00 00 00 00	 call	 ?GetAssocAt@?$CMap@HHW4TOOLTYPE@CSymbolBaseData@@W412@@@IBEPAVCAssoc@1@HAAI0@Z ; CMap<int,int,enum CSymbolBaseData::TOOLTYPE,enum CSymbolBaseData::TOOLTYPE>::GetAssocAt

; 1556 : 	if (pAssoc == NULL)

  00016	85 c0		 test	 eax, eax
  00018	75 06		 jne	 SHORT $LN2@Lookup

; 1561 : }

  0001a	8b e5		 mov	 esp, ebp
  0001c	5d		 pop	 ebp
  0001d	c2 08 00	 ret	 8
$LN2@Lookup:

; 1557 : 		return FALSE;  // not in map
; 1558 : 
; 1559 : 	rValue = pAssoc->value;

  00020	8b 48 04	 mov	 ecx, DWORD PTR [eax+4]
  00023	8b 45 0c	 mov	 eax, DWORD PTR _rValue$[ebp]
  00026	89 08		 mov	 DWORD PTR [eax], ecx

; 1560 : 	return TRUE;

  00028	b8 01 00 00 00	 mov	 eax, 1

; 1561 : }

  0002d	8b e5		 mov	 esp, ebp
  0002f	5d		 pop	 ebp
  00030	c2 08 00	 ret	 8
?Lookup@?$CMap@HHW4TOOLTYPE@CSymbolBaseData@@W412@@@QBEHHAAW4TOOLTYPE@CSymbolBaseData@@@Z ENDP ; CMap<int,int,enum CSymbolBaseData::TOOLTYPE,enum CSymbolBaseData::TOOLTYPE>::Lookup
_TEXT	ENDS
; Function compile flags: /Ogtp
; File C:\Program Files (x86)\Microsoft Visual Studio\2019\Community\VC\Tools\MSVC\14.29.30133\atlmfc\include\afxtempl.h
;	COMDAT ??0?$CMap@HHW4TOOLTYPE@CSymbolBaseData@@W412@@@QAE@H@Z
_TEXT	SEGMENT
_nBlockSize$ = 8					; size = 4
??0?$CMap@HHW4TOOLTYPE@CSymbolBaseData@@W412@@@QAE@H@Z PROC ; CMap<int,int,enum CSymbolBaseData::TOOLTYPE,enum CSymbolBaseData::TOOLTYPE>::CMap<int,int,enum CSymbolBaseData::TOOLTYPE,enum CSymbolBaseData::TOOLTYPE>, COMDAT
; _this$ = ecx

; 1403 : {

  00000	55		 push	 ebp
  00001	8b ec		 mov	 ebp, esp

; 1404 : 	ASSERT(nBlockSize > 0);
; 1405 : 
; 1406 : 	m_pHashTable = NULL;
; 1407 : 	m_nHashTableSize = 17;  // default size
; 1408 : 	m_nCount = 0;
; 1409 : 	m_pFreeList = NULL;
; 1410 : 	m_pBlocks = NULL;
; 1411 : 	m_nBlockSize = nBlockSize;

  00003	8b 45 08	 mov	 eax, DWORD PTR _nBlockSize$[ebp]
  00006	89 41 18	 mov	 DWORD PTR [ecx+24], eax

; 1412 : }

  00009	8b c1		 mov	 eax, ecx
  0000b	c7 01 00 00 00
	00		 mov	 DWORD PTR [ecx], OFFSET ??_7?$CMap@HHW4TOOLTYPE@CSymbolBaseData@@W412@@@6B@
  00011	c7 41 04 00 00
	00 00		 mov	 DWORD PTR [ecx+4], 0
  00018	c7 41 08 11 00
	00 00		 mov	 DWORD PTR [ecx+8], 17	; 00000011H
  0001f	c7 41 0c 00 00
	00 00		 mov	 DWORD PTR [ecx+12], 0
  00026	c7 41 10 00 00
	00 00		 mov	 DWORD PTR [ecx+16], 0
  0002d	c7 41 14 00 00
	00 00		 mov	 DWORD PTR [ecx+20], 0
  00034	5d		 pop	 ebp
  00035	c2 04 00	 ret	 4
??0?$CMap@HHW4TOOLTYPE@CSymbolBaseData@@W412@@@QAE@H@Z ENDP ; CMap<int,int,enum CSymbolBaseData::TOOLTYPE,enum CSymbolBaseData::TOOLTYPE>::CMap<int,int,enum CSymbolBaseData::TOOLTYPE,enum CSymbolBaseData::TOOLTYPE>
_TEXT	ENDS
; Function compile flags: /Ogtp
; File C:\Program Files (x86)\Microsoft Visual Studio\2019\Community\VC\Tools\MSVC\14.29.30133\atlmfc\include\afxtempl.h
;	COMDAT ??__F?g_mapSymbolDlg@CMainSymbolImplementation@@1V?$CMap@HHPAVCSymbolDlg@@PAV1@@@A@@YAXXZ
text$yd	SEGMENT
__$EHRec$ = -12						; size = 12
??__F?g_mapSymbolDlg@CMainSymbolImplementation@@1V?$CMap@HHPAVCSymbolDlg@@PAV1@@@A@@YAXXZ PROC ; `dynamic atexit destructor for 'CMainSymbolImplementation::g_mapSymbolDlg'', COMDAT
  00000	55		 push	 ebp
  00001	8b ec		 mov	 ebp, esp
  00003	6a ff		 push	 -1
  00005	68 00 00 00 00	 push	 __ehhandler$??__F?g_mapSymbolDlg@CMainSymbolImplementation@@1V?$CMap@HHPAVCSymbolDlg@@PAV1@@@A@@YAXXZ
  0000a	64 a1 00 00 00
	00		 mov	 eax, DWORD PTR fs:0
  00010	50		 push	 eax
  00011	a1 00 00 00 00	 mov	 eax, DWORD PTR ___security_cookie
  00016	33 c5		 xor	 eax, ebp
  00018	50		 push	 eax
  00019	8d 45 f4	 lea	 eax, DWORD PTR __$EHRec$[ebp]
  0001c	64 a3 00 00 00
	00		 mov	 DWORD PTR fs:0, eax

; 1446 : 	if (m_pHashTable != NULL)

  00022	a1 04 00 00 00	 mov	 eax, DWORD PTR ?g_mapSymbolDlg@CMainSymbolImplementation@@1V?$CMap@HHPAVCSymbolDlg@@PAV1@@@A+4

; 1472 : {

  00027	c7 45 fc 00 00
	00 00		 mov	 DWORD PTR __$EHRec$[ebp+8], 0
  0002e	c7 05 00 00 00
	00 00 00 00 00	 mov	 DWORD PTR ?g_mapSymbolDlg@CMainSymbolImplementation@@1V?$CMap@HHPAVCSymbolDlg@@PAV1@@@A, OFFSET ??_7?$CMap@HHPAVCSymbolDlg@@PAV1@@@6B@

; 1446 : 	if (m_pHashTable != NULL)

  00038	85 c0		 test	 eax, eax
  0003a	74 13		 je	 SHORT $LN13@g_mapSymbo

; 1447 : 	{
; 1448 : 		// destroy elements (values and keys)
; 1449 : 		for (UINT nHash = 0; nHash < m_nHashTableSize; nHash++)
; 1450 : 		{
; 1451 : 			CAssoc* pAssoc;
; 1452 : 			for (pAssoc = m_pHashTable[nHash]; pAssoc != NULL;
; 1453 : 			  pAssoc = pAssoc->pNext)
; 1454 : 			{
; 1455 : 				pAssoc->CAssoc::~CAssoc();
; 1456 : 			}
; 1457 : 		}
; 1458 : 
; 1459 : 		// free hash table
; 1460 : 		delete[] m_pHashTable;

  0003c	50		 push	 eax
  0003d	e8 00 00 00 00	 call	 ??_V@YAXPAX@Z		; operator delete[]
  00042	83 c4 04	 add	 esp, 4

; 1461 : 		m_pHashTable = NULL;

  00045	c7 05 04 00 00
	00 00 00 00 00	 mov	 DWORD PTR ?g_mapSymbolDlg@CMainSymbolImplementation@@1V?$CMap@HHPAVCSymbolDlg@@PAV1@@@A+4, 0
$LN13@g_mapSymbo:

; 1462 : 	}
; 1463 : 
; 1464 : 	m_nCount = 0;
; 1465 : 	m_pFreeList = NULL;
; 1466 : 	m_pBlocks->FreeDataChain();

  0004f	8b 0d 14 00 00
	00		 mov	 ecx, DWORD PTR ?g_mapSymbolDlg@CMainSymbolImplementation@@1V?$CMap@HHPAVCSymbolDlg@@PAV1@@@A+20
  00055	c7 05 0c 00 00
	00 00 00 00 00	 mov	 DWORD PTR ?g_mapSymbolDlg@CMainSymbolImplementation@@1V?$CMap@HHPAVCSymbolDlg@@PAV1@@@A+12, 0
  0005f	c7 05 10 00 00
	00 00 00 00 00	 mov	 DWORD PTR ?g_mapSymbolDlg@CMainSymbolImplementation@@1V?$CMap@HHPAVCSymbolDlg@@PAV1@@@A+16, 0
  00069	e8 00 00 00 00	 call	 ?FreeDataChain@CPlex@@QAEXXZ ; CPlex::FreeDataChain

; 1467 : 	m_pBlocks = NULL;

  0006e	c7 05 14 00 00
	00 00 00 00 00	 mov	 DWORD PTR ?g_mapSymbolDlg@CMainSymbolImplementation@@1V?$CMap@HHPAVCSymbolDlg@@PAV1@@@A+20, 0
  00078	8b 4d f4	 mov	 ecx, DWORD PTR __$EHRec$[ebp]
  0007b	64 89 0d 00 00
	00 00		 mov	 DWORD PTR fs:0, ecx
  00082	59		 pop	 ecx
  00083	8b e5		 mov	 esp, ebp
  00085	5d		 pop	 ebp
  00086	c3		 ret	 0
  00087	cc		 int	 3
  00088	cc		 int	 3
  00089	cc		 int	 3
  0008a	cc		 int	 3
  0008b	cc		 int	 3
text$yd	ENDS
;	COMDAT text$x
text$x	SEGMENT
__ehhandler$??__F?g_mapSymbolDlg@CMainSymbolImplementation@@1V?$CMap@HHPAVCSymbolDlg@@PAV1@@@A@@YAXXZ:
  00000	90		 npad	 1
  00001	90		 npad	 1
  00002	8b 54 24 08	 mov	 edx, DWORD PTR [esp+8]
  00006	8d 42 0c	 lea	 eax, DWORD PTR [edx+12]
  00009	8b 4a fc	 mov	 ecx, DWORD PTR [edx-4]
  0000c	33 c8		 xor	 ecx, eax
  0000e	e8 00 00 00 00	 call	 @__security_check_cookie@4
  00013	b8 00 00 00 00	 mov	 eax, OFFSET __ehfuncinfo$??__F?g_mapSymbolDlg@CMainSymbolImplementation@@1V?$CMap@HHPAVCSymbolDlg@@PAV1@@@A@@YAXXZ
  00018	e9 00 00 00 00	 jmp	 ___CxxFrameHandler3
text$x	ENDS
??__F?g_mapSymbolDlg@CMainSymbolImplementation@@1V?$CMap@HHPAVCSymbolDlg@@PAV1@@@A@@YAXXZ ENDP ; `dynamic atexit destructor for 'CMainSymbolImplementation::g_mapSymbolDlg''
; Function compile flags: /Ogtp
; File D:\git\src\IBK\IBK_DRFN\ProjSrc\SrcChartEx\ChartAddIn\ChartAnalysisToolAddIn\Symbol\MainSymbolImplementation.cpp
;	COMDAT ??__E?g_mapSymbolDlg@CMainSymbolImplementation@@1V?$CMap@HHPAVCSymbolDlg@@PAV1@@@A@@YAXXZ
text$di	SEGMENT
??__E?g_mapSymbolDlg@CMainSymbolImplementation@@1V?$CMap@HHPAVCSymbolDlg@@PAV1@@@A@@YAXXZ PROC ; `dynamic initializer for 'CMainSymbolImplementation::g_mapSymbolDlg'', COMDAT

; 32   : CMap<int, int, CSymbolDlg*, CSymbolDlg*> CMainSymbolImplementation::g_mapSymbolDlg;

  00000	68 00 00 00 00	 push	 OFFSET ??__F?g_mapSymbolDlg@CMainSymbolImplementation@@1V?$CMap@HHPAVCSymbolDlg@@PAV1@@@A@@YAXXZ ; `dynamic atexit destructor for 'CMainSymbolImplementation::g_mapSymbolDlg''
  00005	e8 00 00 00 00	 call	 _atexit
  0000a	59		 pop	 ecx
  0000b	c3		 ret	 0
??__E?g_mapSymbolDlg@CMainSymbolImplementation@@1V?$CMap@HHPAVCSymbolDlg@@PAV1@@@A@@YAXXZ ENDP ; `dynamic initializer for 'CMainSymbolImplementation::g_mapSymbolDlg''
text$di	ENDS
; Function compile flags: /Ogtp
; File C:\Program Files (x86)\Microsoft Visual Studio\2019\Community\VC\Tools\MSVC\14.29.30133\atlmfc\include\afxtempl.h
; File C:\Program Files (x86)\Microsoft Visual Studio\2019\Community\VC\Tools\MSVC\14.29.30133\atlmfc\include\afx.inl
;	COMDAT ??_G?$CMap@HHPAVCSymbolDlg@@PAV1@@@UAEPAXI@Z
_TEXT	SEGMENT
__$EHRec$ = -12						; size = 12
___flags$ = 8						; size = 4
??_G?$CMap@HHPAVCSymbolDlg@@PAV1@@@UAEPAXI@Z PROC	; CMap<int,int,CSymbolDlg *,CSymbolDlg *>::`scalar deleting destructor', COMDAT
; _this$ = ecx
  00000	55		 push	 ebp
  00001	8b ec		 mov	 ebp, esp
  00003	6a ff		 push	 -1
  00005	68 00 00 00 00	 push	 __ehhandler$??_G?$CMap@HHPAVCSymbolDlg@@PAV1@@@UAEPAXI@Z
  0000a	64 a1 00 00 00
	00		 mov	 eax, DWORD PTR fs:0
  00010	50		 push	 eax
  00011	56		 push	 esi
  00012	a1 00 00 00 00	 mov	 eax, DWORD PTR ___security_cookie
  00017	33 c5		 xor	 eax, ebp
  00019	50		 push	 eax
  0001a	8d 45 f4	 lea	 eax, DWORD PTR __$EHRec$[ebp]
  0001d	64 a3 00 00 00
	00		 mov	 DWORD PTR fs:0, eax
  00023	8b f1		 mov	 esi, ecx
; File C:\Program Files (x86)\Microsoft Visual Studio\2019\Community\VC\Tools\MSVC\14.29.30133\atlmfc\include\afxtempl.h

; 1446 : 	if (m_pHashTable != NULL)

  00025	8b 46 04	 mov	 eax, DWORD PTR [esi+4]

; 1472 : {

  00028	c7 45 fc 00 00
	00 00		 mov	 DWORD PTR __$EHRec$[ebp+8], 0
  0002f	c7 06 00 00 00
	00		 mov	 DWORD PTR [esi], OFFSET ??_7?$CMap@HHPAVCSymbolDlg@@PAV1@@@6B@

; 1446 : 	if (m_pHashTable != NULL)

  00035	85 c0		 test	 eax, eax
  00037	74 10		 je	 SHORT $LN17@scalar

; 1447 : 	{
; 1448 : 		// destroy elements (values and keys)
; 1449 : 		for (UINT nHash = 0; nHash < m_nHashTableSize; nHash++)
; 1450 : 		{
; 1451 : 			CAssoc* pAssoc;
; 1452 : 			for (pAssoc = m_pHashTable[nHash]; pAssoc != NULL;
; 1453 : 			  pAssoc = pAssoc->pNext)
; 1454 : 			{
; 1455 : 				pAssoc->CAssoc::~CAssoc();
; 1456 : 			}
; 1457 : 		}
; 1458 : 
; 1459 : 		// free hash table
; 1460 : 		delete[] m_pHashTable;

  00039	50		 push	 eax
  0003a	e8 00 00 00 00	 call	 ??_V@YAXPAX@Z		; operator delete[]
  0003f	83 c4 04	 add	 esp, 4

; 1461 : 		m_pHashTable = NULL;

  00042	c7 46 04 00 00
	00 00		 mov	 DWORD PTR [esi+4], 0
$LN17@scalar:

; 1462 : 	}
; 1463 : 
; 1464 : 	m_nCount = 0;
; 1465 : 	m_pFreeList = NULL;
; 1466 : 	m_pBlocks->FreeDataChain();

  00049	8b 4e 14	 mov	 ecx, DWORD PTR [esi+20]
  0004c	c7 46 0c 00 00
	00 00		 mov	 DWORD PTR [esi+12], 0
  00053	c7 46 10 00 00
	00 00		 mov	 DWORD PTR [esi+16], 0
  0005a	e8 00 00 00 00	 call	 ?FreeDataChain@CPlex@@QAEXXZ ; CPlex::FreeDataChain

; 1467 : 	m_pBlocks = NULL;

  0005f	8b 45 08	 mov	 eax, DWORD PTR ___flags$[ebp]
  00062	c7 46 14 00 00
	00 00		 mov	 DWORD PTR [esi+20], 0
  00069	a8 01		 test	 al, 1
  0006b	74 2c		 je	 SHORT $LN31@scalar
  0006d	a8 04		 test	 al, 4
  0006f	75 1d		 jne	 SHORT $LN3@scalar
; File C:\Program Files (x86)\Microsoft Visual Studio\2019\Community\VC\Tools\MSVC\14.29.30133\atlmfc\include\afx.inl

; 112  : 	{ ::operator delete(p); }

  00071	56		 push	 esi
  00072	e8 00 00 00 00	 call	 ??3@YAXPAX@Z		; operator delete
  00077	83 c4 04	 add	 esp, 4
  0007a	8b c6		 mov	 eax, esi
  0007c	8b 4d f4	 mov	 ecx, DWORD PTR __$EHRec$[ebp]
  0007f	64 89 0d 00 00
	00 00		 mov	 DWORD PTR fs:0, ecx
  00086	59		 pop	 ecx
  00087	5e		 pop	 esi
  00088	8b e5		 mov	 esp, ebp
  0008a	5d		 pop	 ebp
  0008b	c2 04 00	 ret	 4
$LN3@scalar:
  0008e	6a 1c		 push	 28			; 0000001cH
  00090	56		 push	 esi
  00091	e8 00 00 00 00	 call	 ?__global_delete@@YAXPAXI@Z ; __global_delete
  00096	83 c4 08	 add	 esp, 8
$LN31@scalar:
  00099	8b c6		 mov	 eax, esi
  0009b	8b 4d f4	 mov	 ecx, DWORD PTR __$EHRec$[ebp]
  0009e	64 89 0d 00 00
	00 00		 mov	 DWORD PTR fs:0, ecx
  000a5	59		 pop	 ecx
  000a6	5e		 pop	 esi
  000a7	8b e5		 mov	 esp, ebp
  000a9	5d		 pop	 ebp
  000aa	c2 04 00	 ret	 4
  000ad	cc		 int	 3
  000ae	cc		 int	 3
  000af	cc		 int	 3
  000b0	cc		 int	 3
  000b1	cc		 int	 3
_TEXT	ENDS
;	COMDAT text$x
text$x	SEGMENT
__ehhandler$??_G?$CMap@HHPAVCSymbolDlg@@PAV1@@@UAEPAXI@Z:
  00000	90		 npad	 1
  00001	90		 npad	 1
  00002	8b 54 24 08	 mov	 edx, DWORD PTR [esp+8]
  00006	8d 42 0c	 lea	 eax, DWORD PTR [edx+12]
  00009	8b 4a f8	 mov	 ecx, DWORD PTR [edx-8]
  0000c	33 c8		 xor	 ecx, eax
  0000e	e8 00 00 00 00	 call	 @__security_check_cookie@4
  00013	b8 00 00 00 00	 mov	 eax, OFFSET __ehfuncinfo$??_G?$CMap@HHPAVCSymbolDlg@@PAV1@@@UAEPAXI@Z
  00018	e9 00 00 00 00	 jmp	 ___CxxFrameHandler3
text$x	ENDS
??_G?$CMap@HHPAVCSymbolDlg@@PAV1@@@UAEPAXI@Z ENDP	; CMap<int,int,CSymbolDlg *,CSymbolDlg *>::`scalar deleting destructor'
; Function compile flags: /Ogtp
; File C:\Program Files (x86)\Microsoft Visual Studio\2019\Community\VC\Tools\MSVC\14.29.30133\atlmfc\include\afxtempl.h
; File C:\Program Files (x86)\Microsoft Visual Studio\2019\Community\VC\Tools\MSVC\14.29.30133\atlmfc\include\afx.inl
; File C:\Program Files (x86)\Microsoft Visual Studio\2019\Community\VC\Tools\MSVC\14.29.30133\atlmfc\include\afxtempl.h
; File C:\Program Files (x86)\Microsoft Visual Studio\2019\Community\VC\Tools\MSVC\14.29.30133\atlmfc\include\afx.inl
; File C:\Program Files (x86)\Microsoft Visual Studio\2019\Community\VC\Tools\MSVC\14.29.30133\atlmfc\include\afxtempl.h
; File C:\Program Files (x86)\Microsoft Visual Studio\2019\Community\VC\Tools\MSVC\14.29.30133\atlmfc\include\afx.inl
; File C:\Program Files (x86)\Microsoft Visual Studio\2019\Community\VC\Tools\MSVC\14.29.30133\atlmfc\include\afxtempl.h
; File C:\Program Files (x86)\Microsoft Visual Studio\2019\Community\VC\Tools\MSVC\14.29.30133\atlmfc\include\afx.inl
; File C:\Program Files (x86)\Microsoft Visual Studio\2019\Community\VC\Tools\MSVC\14.29.30133\atlmfc\include\afxtempl.h
; File C:\Program Files (x86)\Microsoft Visual Studio\2019\Community\VC\Tools\MSVC\14.29.30133\atlmfc\include\afx.inl
; File C:\Program Files (x86)\Microsoft Visual Studio\2019\Community\VC\Tools\MSVC\14.29.30133\atlmfc\include\afxtempl.h
; File C:\Program Files (x86)\Microsoft Visual Studio\2019\Community\VC\Tools\MSVC\14.29.30133\atlmfc\include\afx.inl
; File C:\Program Files (x86)\Microsoft Visual Studio\2019\Community\VC\Tools\MSVC\14.29.30133\atlmfc\include\afxtempl.h
; File C:\Program Files (x86)\Microsoft Visual Studio\2019\Community\VC\Tools\MSVC\14.29.30133\atlmfc\include\afx.inl
; File C:\Program Files (x86)\Microsoft Visual Studio\2019\Community\VC\Tools\MSVC\14.29.30133\atlmfc\include\afxtempl.h
; File C:\Program Files (x86)\Microsoft Visual Studio\2019\Community\VC\Tools\MSVC\14.29.30133\atlmfc\include\afx.inl
; File C:\Program Files (x86)\Microsoft Visual Studio\2019\Community\VC\Tools\MSVC\14.29.30133\atlmfc\include\afxtempl.h
; File C:\Program Files (x86)\Microsoft Visual Studio\2019\Community\VC\Tools\MSVC\14.29.30133\atlmfc\include\afx.inl
; File C:\Program Files (x86)\Microsoft Visual Studio\2019\Community\VC\Tools\MSVC\14.29.30133\atlmfc\include\afxtempl.h
; File C:\Program Files (x86)\Microsoft Visual Studio\2019\Community\VC\Tools\MSVC\14.29.30133\atlmfc\include\afx.inl
; File C:\Program Files (x86)\Microsoft Visual Studio\2019\Community\VC\Tools\MSVC\14.29.30133\atlmfc\include\afxtempl.h
; File C:\Program Files (x86)\Microsoft Visual Studio\2019\Community\VC\Tools\MSVC\14.29.30133\atlmfc\include\afx.inl
; File C:\Program Files (x86)\Microsoft Visual Studio\2019\Community\VC\Tools\MSVC\14.29.30133\atlmfc\include\afxtempl.h
; File C:\Program Files (x86)\Microsoft Visual Studio\2019\Community\VC\Tools\MSVC\14.29.30133\atlmfc\include\afx.inl
; File C:\Program Files (x86)\Microsoft Visual Studio\2019\Community\VC\Tools\MSVC\14.29.30133\atlmfc\include\afxtempl.h
; File C:\Program Files (x86)\Microsoft Visual Studio\2019\Community\VC\Tools\MSVC\14.29.30133\atlmfc\include\afx.inl
; File C:\Program Files (x86)\Microsoft Visual Studio\2019\Community\VC\Tools\MSVC\14.29.30133\atlmfc\include\afxtempl.h
; File C:\Program Files (x86)\Microsoft Visual Studio\2019\Community\VC\Tools\MSVC\14.29.30133\atlmfc\include\afx.inl
; File C:\Program Files (x86)\Microsoft Visual Studio\2019\Community\VC\Tools\MSVC\14.29.30133\atlmfc\include\afxtempl.h
; File C:\Program Files (x86)\Microsoft Visual Studio\2019\Community\VC\Tools\MSVC\14.29.30133\atlmfc\include\afx.inl
; File C:\Program Files (x86)\Microsoft Visual Studio\2019\Community\VC\Tools\MSVC\14.29.30133\atlmfc\include\afxtempl.h
; File C:\Program Files (x86)\Microsoft Visual Studio\2019\Community\VC\Tools\MSVC\14.29.30133\atlmfc\include\afx.inl
; File C:\Program Files (x86)\Microsoft Visual Studio\2019\Community\VC\Tools\MSVC\14.29.30133\atlmfc\include\afxtempl.h
; File C:\Program Files (x86)\Microsoft Visual Studio\2019\Community\VC\Tools\MSVC\14.29.30133\atlmfc\include\afx.inl
; File C:\Program Files (x86)\Microsoft Visual Studio\2019\Community\VC\Tools\MSVC\14.29.30133\atlmfc\include\afxtempl.h
; File C:\Program Files (x86)\Microsoft Visual Studio\2019\Community\VC\Tools\MSVC\14.29.30133\atlmfc\include\afx.inl
; File C:\Program Files (x86)\Microsoft Visual Studio\2019\Community\VC\Tools\MSVC\14.29.30133\atlmfc\include\afxtempl.h
; File C:\Program Files (x86)\Microsoft Visual Studio\2019\Community\VC\Tools\MSVC\14.29.30133\atlmfc\include\afx.inl
; File C:\Program Files (x86)\Microsoft Visual Studio\2019\Community\VC\Tools\MSVC\14.29.30133\atlmfc\include\afxtempl.h
;	COMDAT ?Serialize@?$CMap@HHPAVCSymbolDlg@@PAV1@@@UAEXAAVCArchive@@@Z
_TEXT	SEGMENT
_nHashBucket$1$ = -32					; size = 4
_nCount$1$ = -32					; size = 4
_nElementsToRead$1$ = -32				; size = 4
_nElementsToRead$1$ = -28				; size = 4
_pData$1$ = -28						; size = 4
_nCount$1$ = -28					; size = 4
_newValue$1$ = -28					; size = 4
_this$1$ = -24						; size = 4
_newKey$3 = -20						; size = 4
_newValue$4 = -16					; size = 4
_pData$1$ = -12						; size = 4
_pData$1$ = -12						; size = 4
_key$1$ = -12						; size = 4
_nHash$1$ = -12						; size = 4
_nNewCount$1$ = -8					; size = 4
_pAssoc$1$ = -8						; size = 4
_nElementsLeft$1$ = -4					; size = 4
_pData$1$ = -4						; size = 4
_pData$1$ = -4						; size = 4
_nHashSize$1$ = 8					; size = 4
_pData$1$ = 8						; size = 4
_nElementsLeft$1$ = 8					; size = 4
_pData$1$ = 8						; size = 4
_nElementsLeft$1$ = 8					; size = 4
_ar$ = 8						; size = 4
?Serialize@?$CMap@HHPAVCSymbolDlg@@PAV1@@@UAEXAAVCArchive@@@Z PROC ; CMap<int,int,CSymbolDlg *,CSymbolDlg *>::Serialize, COMDAT
; _this$ = ecx

; 1743 : {

  00000	55		 push	 ebp
  00001	8b ec		 mov	 ebp, esp
  00003	83 ec 20	 sub	 esp, 32			; 00000020H
  00006	53		 push	 ebx
; File C:\Program Files (x86)\Microsoft Visual Studio\2019\Community\VC\Tools\MSVC\14.29.30133\atlmfc\include\afx.inl

; 212  : 	{ return (m_nMode & CArchive::load) == 0; }

  00007	8b 5d 08	 mov	 ebx, DWORD PTR _ar$[ebp]
; File C:\Program Files (x86)\Microsoft Visual Studio\2019\Community\VC\Tools\MSVC\14.29.30133\atlmfc\include\afxtempl.h

; 1743 : {

  0000a	56		 push	 esi
  0000b	8b f1		 mov	 esi, ecx

; 1748 : 	if (ar.IsStoring())

  0000d	8b cb		 mov	 ecx, ebx
  0000f	57		 push	 edi
; File C:\Program Files (x86)\Microsoft Visual Studio\2019\Community\VC\Tools\MSVC\14.29.30133\atlmfc\include\afx.inl

; 212  : 	{ return (m_nMode & CArchive::load) == 0; }

  00010	8b 43 18	 mov	 eax, DWORD PTR [ebx+24]
  00013	f7 d0		 not	 eax
; File C:\Program Files (x86)\Microsoft Visual Studio\2019\Community\VC\Tools\MSVC\14.29.30133\atlmfc\include\afxtempl.h

; 1743 : {

  00015	89 75 e8	 mov	 DWORD PTR _this$1$[ebp], esi
; File C:\Program Files (x86)\Microsoft Visual Studio\2019\Community\VC\Tools\MSVC\14.29.30133\atlmfc\include\afx.inl

; 212  : 	{ return (m_nMode & CArchive::load) == 0; }

  00018	a8 01		 test	 al, 1
; File C:\Program Files (x86)\Microsoft Visual Studio\2019\Community\VC\Tools\MSVC\14.29.30133\atlmfc\include\afxtempl.h

; 1748 : 	if (ar.IsStoring())

  0001a	0f 84 71 01 00
	00		 je	 $LN10@Serialize

; 1749 : 	{
; 1750 : 		ar.WriteCount(m_nCount);

  00020	ff 76 0c	 push	 DWORD PTR [esi+12]
  00023	e8 00 00 00 00	 call	 ?WriteCount@CArchive@@QAEXK@Z ; CArchive::WriteCount

; 1751 : 		if (m_nCount == 0)

  00028	83 7e 0c 00	 cmp	 DWORD PTR [esi+12], 0
  0002c	0f 84 c9 03 00
	00		 je	 $LN189@Serialize

; 1752 : 			return;  // nothing more to do
; 1753 : 
; 1754 : 		ASSERT(m_pHashTable != NULL);
; 1755 : 		if (m_pHashTable != NULL)

  00032	83 7e 04 00	 cmp	 DWORD PTR [esi+4], 0
  00036	0f 84 bf 03 00
	00		 je	 $LN189@Serialize

; 1756 : 		{
; 1757 : 			for (UINT nHash = 0; nHash < m_nHashTableSize; nHash++)

  0003c	33 c9		 xor	 ecx, ecx
  0003e	89 4d f4	 mov	 DWORD PTR _nHash$1$[ebp], ecx
  00041	39 4e 08	 cmp	 DWORD PTR [esi+8], ecx
  00044	0f 86 b1 03 00
	00		 jbe	 $LN189@Serialize
  0004a	66 0f 1f 44 00
	00		 npad	 6
$LL4@Serialize:

; 1758 : 			{
; 1759 : 				CAssoc* pAssoc;
; 1760 : 				for (pAssoc = m_pHashTable[nHash]; pAssoc != NULL; pAssoc = pAssoc->pNext)

  00050	8b 46 04	 mov	 eax, DWORD PTR [esi+4]
  00053	8b 0c 88	 mov	 ecx, DWORD PTR [eax+ecx*4]
  00056	89 4d f8	 mov	 DWORD PTR _pAssoc$1$[ebp], ecx
  00059	85 c9		 test	 ecx, ecx
  0005b	0f 84 17 01 00
	00		 je	 $LN2@Serialize
$LL7@Serialize:
; File C:\Program Files (x86)\Microsoft Visual Studio\2019\Community\VC\Tools\MSVC\14.29.30133\atlmfc\include\afx.inl

; 212  : 	{ return (m_nMode & CArchive::load) == 0; }

  00061	8b 43 18	 mov	 eax, DWORD PTR [ebx+24]
; File C:\Program Files (x86)\Microsoft Visual Studio\2019\Community\VC\Tools\MSVC\14.29.30133\atlmfc\include\afxtempl.h

; 1770 : 					pValue = reinterpret_cast< VALUE* >( &reinterpret_cast< int& >( static_cast< VALUE& >( pAssoc->value ) ) );

  00064	8d 71 04	 lea	 esi, DWORD PTR [ecx+4]
; File C:\Program Files (x86)\Microsoft Visual Studio\2019\Community\VC\Tools\MSVC\14.29.30133\atlmfc\include\afx.inl

; 212  : 	{ return (m_nMode & CArchive::load) == 0; }

  00067	f7 d0		 not	 eax
; File C:\Program Files (x86)\Microsoft Visual Studio\2019\Community\VC\Tools\MSVC\14.29.30133\atlmfc\include\afxtempl.h

; 1770 : 					pValue = reinterpret_cast< VALUE* >( &reinterpret_cast< int& >( static_cast< VALUE& >( pAssoc->value ) ) );

  00069	89 75 e4	 mov	 DWORD PTR _pData$1$[ebp], esi

; 73   : 	if (ar.IsStoring())

  0006c	89 4d fc	 mov	 DWORD PTR _pData$1$[ebp], ecx
; File C:\Program Files (x86)\Microsoft Visual Studio\2019\Community\VC\Tools\MSVC\14.29.30133\atlmfc\include\afx.inl

; 212  : 	{ return (m_nMode & CArchive::load) == 0; }

  0006f	a8 01		 test	 al, 1
; File C:\Program Files (x86)\Microsoft Visual Studio\2019\Community\VC\Tools\MSVC\14.29.30133\atlmfc\include\afxtempl.h

; 73   : 	if (ar.IsStoring())

  00071	74 3c		 je	 SHORT $LN26@Serialize

; 74   : 	{
; 75   : 		TYPE* pData;
; 76   : 		UINT_PTR nElementsLeft;
; 77   : 
; 78   : 		nElementsLeft = nCount;

  00073	be 01 00 00 00	 mov	 esi, 1

; 79   : 		pData = pElements;

  00078	8b c1		 mov	 eax, ecx
  0007a	66 0f 1f 44 00
	00		 npad	 6
$LL21@Serialize:

; 85   : 			ar.Write(pData, nElementsToWrite*sizeof(TYPE));

  00080	8b 4d 08	 mov	 ecx, DWORD PTR _ar$[ebp]
  00083	bb ff ff ff 1f	 mov	 ebx, 536870911		; 1fffffffH
  00088	3b f3		 cmp	 esi, ebx
  0008a	0f 42 de	 cmovb	 ebx, esi
  0008d	8d 3c 9d 00 00
	00 00		 lea	 edi, DWORD PTR [ebx*4]
  00094	57		 push	 edi
  00095	50		 push	 eax
  00096	e8 00 00 00 00	 call	 ?Write@CArchive@@QAEXPBXI@Z ; CArchive::Write

; 87   : 			pData += nElementsToWrite;

  0009b	8b 45 fc	 mov	 eax, DWORD PTR _pData$1$[ebp]
  0009e	03 c7		 add	 eax, edi
  000a0	89 45 fc	 mov	 DWORD PTR _pData$1$[ebp], eax
  000a3	2b f3		 sub	 esi, ebx
  000a5	75 d9		 jne	 SHORT $LL21@Serialize
  000a7	8b 75 e4	 mov	 esi, DWORD PTR _pData$1$[ebp]

; 88   : 		}
; 89   : 	}

  000aa	8b 5d 08	 mov	 ebx, DWORD PTR _ar$[ebp]
  000ad	eb 3b		 jmp	 SHORT $LN41@Serialize
$LN26@Serialize:

; 90   : 	else
; 91   : 	{
; 92   : 		TYPE* pData;
; 93   : 		UINT_PTR nElementsLeft;
; 94   : 
; 95   : 		nElementsLeft = nCount;

  000af	bf 01 00 00 00	 mov	 edi, 1

; 96   : 		pData = pElements;

  000b4	8b d1		 mov	 edx, ecx
$LL23@Serialize:

; 101  : 			nElementsToRead = UINT(__min(nElementsLeft, INT_MAX/sizeof(TYPE)));

  000b6	b8 ff ff ff 1f	 mov	 eax, 536870911		; 1fffffffH
; File C:\Program Files (x86)\Microsoft Visual Studio\2019\Community\VC\Tools\MSVC\14.29.30133\atlmfc\include\afx.inl

; 399  : 	UINT nRead=Read(lpBuf, nCount);

  000bb	8b cb		 mov	 ecx, ebx
; File C:\Program Files (x86)\Microsoft Visual Studio\2019\Community\VC\Tools\MSVC\14.29.30133\atlmfc\include\afxtempl.h

; 101  : 			nElementsToRead = UINT(__min(nElementsLeft, INT_MAX/sizeof(TYPE)));

  000bd	3b f8		 cmp	 edi, eax
  000bf	0f 42 c7	 cmovb	 eax, edi
  000c2	89 45 e0	 mov	 DWORD PTR _nElementsToRead$1$[ebp], eax

; 102  : 			ar.EnsureRead(pData, nElementsToRead*sizeof(TYPE));

  000c5	c1 e0 02	 shl	 eax, 2
; File C:\Program Files (x86)\Microsoft Visual Studio\2019\Community\VC\Tools\MSVC\14.29.30133\atlmfc\include\afx.inl

; 399  : 	UINT nRead=Read(lpBuf, nCount);

  000c8	50		 push	 eax
  000c9	52		 push	 edx
; File C:\Program Files (x86)\Microsoft Visual Studio\2019\Community\VC\Tools\MSVC\14.29.30133\atlmfc\include\afxtempl.h

; 102  : 			ar.EnsureRead(pData, nElementsToRead*sizeof(TYPE));

  000ca	89 45 e4	 mov	 DWORD PTR _nCount$1$[ebp], eax
; File C:\Program Files (x86)\Microsoft Visual Studio\2019\Community\VC\Tools\MSVC\14.29.30133\atlmfc\include\afx.inl

; 399  : 	UINT nRead=Read(lpBuf, nCount);

  000cd	e8 00 00 00 00	 call	 ?Read@CArchive@@QAEIPAXI@Z ; CArchive::Read

; 400  : 	if(nRead!=nCount)

  000d2	8b 4d e4	 mov	 ecx, DWORD PTR _nCount$1$[ebp]
  000d5	3b c1		 cmp	 eax, ecx
  000d7	0f 85 2c 03 00
	00		 jne	 $LN165@Serialize
; File C:\Program Files (x86)\Microsoft Visual Studio\2019\Community\VC\Tools\MSVC\14.29.30133\atlmfc\include\afxtempl.h

; 104  : 			pData += nElementsToRead;

  000dd	8b 55 fc	 mov	 edx, DWORD PTR _pData$1$[ebp]
  000e0	03 d1		 add	 edx, ecx
  000e2	89 55 fc	 mov	 DWORD PTR _pData$1$[ebp], edx
  000e5	2b 7d e0	 sub	 edi, DWORD PTR _nElementsToRead$1$[ebp]
  000e8	75 cc		 jne	 SHORT $LL23@Serialize
$LN41@Serialize:

; 68   : 	ENSURE(nCount == 0 || pElements != NULL);

  000ea	85 f6		 test	 esi, esi
  000ec	0f 84 12 03 00
	00		 je	 $LN167@Serialize
; File C:\Program Files (x86)\Microsoft Visual Studio\2019\Community\VC\Tools\MSVC\14.29.30133\atlmfc\include\afx.inl

; 212  : 	{ return (m_nMode & CArchive::load) == 0; }

  000f2	8b 43 18	 mov	 eax, DWORD PTR [ebx+24]
  000f5	f7 d0		 not	 eax
  000f7	a8 01		 test	 al, 1
; File C:\Program Files (x86)\Microsoft Visual Studio\2019\Community\VC\Tools\MSVC\14.29.30133\atlmfc\include\afxtempl.h

; 73   : 	if (ar.IsStoring())

  000f9	74 36		 je	 SHORT $LN47@Serialize

; 74   : 	{
; 75   : 		TYPE* pData;
; 76   : 		UINT_PTR nElementsLeft;
; 77   : 
; 78   : 		nElementsLeft = nCount;

  000fb	b8 01 00 00 00	 mov	 eax, 1
  00100	89 45 fc	 mov	 DWORD PTR _nElementsLeft$1$[ebp], eax
$LL42@Serialize:

; 85   : 			ar.Write(pData, nElementsToWrite*sizeof(TYPE));

  00103	8b 4d 08	 mov	 ecx, DWORD PTR _ar$[ebp]
  00106	bb ff ff ff 1f	 mov	 ebx, 536870911		; 1fffffffH
  0010b	3b c3		 cmp	 eax, ebx
  0010d	0f 42 d8	 cmovb	 ebx, eax
  00110	8d 3c 9d 00 00
	00 00		 lea	 edi, DWORD PTR [ebx*4]
  00117	57		 push	 edi
  00118	56		 push	 esi
  00119	e8 00 00 00 00	 call	 ?Write@CArchive@@QAEXPBXI@Z ; CArchive::Write

; 86   : 			nElementsLeft -= nElementsToWrite;

  0011e	8b 45 fc	 mov	 eax, DWORD PTR _nElementsLeft$1$[ebp]

; 87   : 			pData += nElementsToWrite;

  00121	03 f7		 add	 esi, edi
  00123	2b c3		 sub	 eax, ebx
  00125	89 45 fc	 mov	 DWORD PTR _nElementsLeft$1$[ebp], eax
  00128	85 c0		 test	 eax, eax
  0012a	75 d7		 jne	 SHORT $LL42@Serialize

; 88   : 		}
; 89   : 	}

  0012c	8b 5d 08	 mov	 ebx, DWORD PTR _ar$[ebp]
  0012f	eb 33		 jmp	 SHORT $LN5@Serialize
$LN47@Serialize:

; 90   : 	else
; 91   : 	{
; 92   : 		TYPE* pData;
; 93   : 		UINT_PTR nElementsLeft;
; 94   : 
; 95   : 		nElementsLeft = nCount;

  00131	bf 01 00 00 00	 mov	 edi, 1
$LL44@Serialize:

; 101  : 			nElementsToRead = UINT(__min(nElementsLeft, INT_MAX/sizeof(TYPE)));

  00136	b8 ff ff ff 1f	 mov	 eax, 536870911		; 1fffffffH
; File C:\Program Files (x86)\Microsoft Visual Studio\2019\Community\VC\Tools\MSVC\14.29.30133\atlmfc\include\afx.inl

; 399  : 	UINT nRead=Read(lpBuf, nCount);

  0013b	8b cb		 mov	 ecx, ebx
; File C:\Program Files (x86)\Microsoft Visual Studio\2019\Community\VC\Tools\MSVC\14.29.30133\atlmfc\include\afxtempl.h

; 101  : 			nElementsToRead = UINT(__min(nElementsLeft, INT_MAX/sizeof(TYPE)));

  0013d	3b f8		 cmp	 edi, eax
  0013f	0f 42 c7	 cmovb	 eax, edi
  00142	89 45 e4	 mov	 DWORD PTR _nElementsToRead$1$[ebp], eax

; 102  : 			ar.EnsureRead(pData, nElementsToRead*sizeof(TYPE));

  00145	c1 e0 02	 shl	 eax, 2
; File C:\Program Files (x86)\Microsoft Visual Studio\2019\Community\VC\Tools\MSVC\14.29.30133\atlmfc\include\afx.inl

; 399  : 	UINT nRead=Read(lpBuf, nCount);

  00148	50		 push	 eax
  00149	56		 push	 esi
; File C:\Program Files (x86)\Microsoft Visual Studio\2019\Community\VC\Tools\MSVC\14.29.30133\atlmfc\include\afxtempl.h

; 102  : 			ar.EnsureRead(pData, nElementsToRead*sizeof(TYPE));

  0014a	89 45 e0	 mov	 DWORD PTR _nCount$1$[ebp], eax
; File C:\Program Files (x86)\Microsoft Visual Studio\2019\Community\VC\Tools\MSVC\14.29.30133\atlmfc\include\afx.inl

; 399  : 	UINT nRead=Read(lpBuf, nCount);

  0014d	e8 00 00 00 00	 call	 ?Read@CArchive@@QAEIPAXI@Z ; CArchive::Read

; 400  : 	if(nRead!=nCount)

  00152	8b 4d e0	 mov	 ecx, DWORD PTR _nCount$1$[ebp]
  00155	3b c1		 cmp	 eax, ecx
  00157	0f 85 ac 02 00
	00		 jne	 $LN165@Serialize
; File C:\Program Files (x86)\Microsoft Visual Studio\2019\Community\VC\Tools\MSVC\14.29.30133\atlmfc\include\afxtempl.h

; 103  : 			nElementsLeft -= nElementsToRead;

  0015d	03 f1		 add	 esi, ecx
  0015f	2b 7d e4	 sub	 edi, DWORD PTR _nElementsToRead$1$[ebp]
  00162	75 d2		 jne	 SHORT $LL44@Serialize
$LN5@Serialize:

; 1758 : 			{
; 1759 : 				CAssoc* pAssoc;
; 1760 : 				for (pAssoc = m_pHashTable[nHash]; pAssoc != NULL; pAssoc = pAssoc->pNext)

  00164	8b 4d f8	 mov	 ecx, DWORD PTR _pAssoc$1$[ebp]
  00167	8b 49 08	 mov	 ecx, DWORD PTR [ecx+8]
  0016a	89 4d f8	 mov	 DWORD PTR _pAssoc$1$[ebp], ecx
  0016d	85 c9		 test	 ecx, ecx
  0016f	0f 85 ec fe ff
	ff		 jne	 $LL7@Serialize
  00175	8b 75 e8	 mov	 esi, DWORD PTR _this$1$[ebp]
$LN2@Serialize:

; 1756 : 		{
; 1757 : 			for (UINT nHash = 0; nHash < m_nHashTableSize; nHash++)

  00178	8b 4d f4	 mov	 ecx, DWORD PTR _nHash$1$[ebp]
  0017b	41		 inc	 ecx
  0017c	89 4d f4	 mov	 DWORD PTR _nHash$1$[ebp], ecx
  0017f	3b 4e 08	 cmp	 ecx, DWORD PTR [esi+8]
  00182	0f 82 c8 fe ff
	ff		 jb	 $LL4@Serialize

; 1787 : 		}
; 1788 : 	}
; 1789 : }

  00188	5f		 pop	 edi
  00189	5e		 pop	 esi
  0018a	5b		 pop	 ebx
  0018b	8b e5		 mov	 esp, ebp
  0018d	5d		 pop	 ebp
  0018e	c2 04 00	 ret	 4
$LN10@Serialize:

; 1771 : 					SerializeElements<KEY>(ar, pKey, 1);
; 1772 : 					SerializeElements<VALUE>(ar, pValue, 1);
; 1773 : 				}
; 1774 : 			}
; 1775 : 		}
; 1776 : 	}
; 1777 : 	else
; 1778 : 	{
; 1779 : 		DWORD_PTR nNewCount = ar.ReadCount();

  00191	e8 00 00 00 00	 call	 ?ReadCount@CArchive@@QAEKXZ ; CArchive::ReadCount

; 1780 : 		while (nNewCount--)

  00196	85 c0		 test	 eax, eax
  00198	0f 84 5d 02 00
	00		 je	 $LN189@Serialize
  0019e	66 90		 npad	 2
$LL8@Serialize:
  001a0	48		 dec	 eax
  001a1	89 45 f8	 mov	 DWORD PTR _nNewCount$1$[ebp], eax
; File C:\Program Files (x86)\Microsoft Visual Studio\2019\Community\VC\Tools\MSVC\14.29.30133\atlmfc\include\afx.inl

; 212  : 	{ return (m_nMode & CArchive::load) == 0; }

  001a4	8b 43 18	 mov	 eax, DWORD PTR [ebx+24]
  001a7	f7 d0		 not	 eax
  001a9	a8 01		 test	 al, 1
; File C:\Program Files (x86)\Microsoft Visual Studio\2019\Community\VC\Tools\MSVC\14.29.30133\atlmfc\include\afxtempl.h

; 73   : 	if (ar.IsStoring())

  001ab	74 43		 je	 SHORT $LN67@Serialize

; 74   : 	{
; 75   : 		TYPE* pData;
; 76   : 		UINT_PTR nElementsLeft;
; 77   : 
; 78   : 		nElementsLeft = nCount;

  001ad	b8 01 00 00 00	 mov	 eax, 1

; 79   : 		pData = pElements;

  001b2	8d 4d ec	 lea	 ecx, DWORD PTR _newKey$3[ebp]
  001b5	89 45 08	 mov	 DWORD PTR _nElementsLeft$1$[ebp], eax
  001b8	89 4d f4	 mov	 DWORD PTR _pData$1$[ebp], ecx
  001bb	0f 1f 44 00 00	 npad	 5
$LL62@Serialize:

; 80   : 		while( nElementsLeft > 0 )
; 81   : 		{
; 82   : 			UINT nElementsToWrite;
; 83   : 
; 84   : 			nElementsToWrite = UINT(__min(nElementsLeft, INT_MAX/sizeof(TYPE)));

  001c0	bf ff ff ff 1f	 mov	 edi, 536870911		; 1fffffffH
  001c5	3b c7		 cmp	 eax, edi
  001c7	0f 42 f8	 cmovb	 edi, eax

; 85   : 			ar.Write(pData, nElementsToWrite*sizeof(TYPE));

  001ca	8d 34 bd 00 00
	00 00		 lea	 esi, DWORD PTR [edi*4]
  001d1	56		 push	 esi
  001d2	51		 push	 ecx
  001d3	8b cb		 mov	 ecx, ebx
  001d5	e8 00 00 00 00	 call	 ?Write@CArchive@@QAEXPBXI@Z ; CArchive::Write

; 86   : 			nElementsLeft -= nElementsToWrite;

  001da	8b 45 08	 mov	 eax, DWORD PTR _nElementsLeft$1$[ebp]

; 87   : 			pData += nElementsToWrite;

  001dd	8b 4d f4	 mov	 ecx, DWORD PTR _pData$1$[ebp]
  001e0	2b c7		 sub	 eax, edi
  001e2	03 ce		 add	 ecx, esi
  001e4	89 45 08	 mov	 DWORD PTR _nElementsLeft$1$[ebp], eax
  001e7	89 4d f4	 mov	 DWORD PTR _pData$1$[ebp], ecx
  001ea	85 c0		 test	 eax, eax
  001ec	75 d2		 jne	 SHORT $LL62@Serialize

; 88   : 		}
; 89   : 	}

  001ee	eb 45		 jmp	 SHORT $LN81@Serialize
$LN67@Serialize:

; 96   : 		pData = pElements;

  001f0	8d 55 ec	 lea	 edx, DWORD PTR _newKey$3[ebp]
  001f3	be 01 00 00 00	 mov	 esi, 1
  001f8	89 55 08	 mov	 DWORD PTR _pData$1$[ebp], edx
  001fb	0f 1f 44 00 00	 npad	 5
$LL64@Serialize:

; 101  : 			nElementsToRead = UINT(__min(nElementsLeft, INT_MAX/sizeof(TYPE)));

  00200	bf ff ff ff 1f	 mov	 edi, 536870911		; 1fffffffH
; File C:\Program Files (x86)\Microsoft Visual Studio\2019\Community\VC\Tools\MSVC\14.29.30133\atlmfc\include\afx.inl

; 399  : 	UINT nRead=Read(lpBuf, nCount);

  00205	8b cb		 mov	 ecx, ebx
; File C:\Program Files (x86)\Microsoft Visual Studio\2019\Community\VC\Tools\MSVC\14.29.30133\atlmfc\include\afxtempl.h

; 101  : 			nElementsToRead = UINT(__min(nElementsLeft, INT_MAX/sizeof(TYPE)));

  00207	3b f7		 cmp	 esi, edi
  00209	0f 42 fe	 cmovb	 edi, esi

; 102  : 			ar.EnsureRead(pData, nElementsToRead*sizeof(TYPE));

  0020c	8d 04 bd 00 00
	00 00		 lea	 eax, DWORD PTR [edi*4]
; File C:\Program Files (x86)\Microsoft Visual Studio\2019\Community\VC\Tools\MSVC\14.29.30133\atlmfc\include\afx.inl

; 399  : 	UINT nRead=Read(lpBuf, nCount);

  00213	50		 push	 eax
  00214	52		 push	 edx
  00215	e8 00 00 00 00	 call	 ?Read@CArchive@@QAEIPAXI@Z ; CArchive::Read

; 400  : 	if(nRead!=nCount)

  0021a	8d 0c bd 00 00
	00 00		 lea	 ecx, DWORD PTR [edi*4]
  00221	3b c1		 cmp	 eax, ecx
  00223	0f 85 e0 01 00
	00		 jne	 $LN165@Serialize
; File C:\Program Files (x86)\Microsoft Visual Studio\2019\Community\VC\Tools\MSVC\14.29.30133\atlmfc\include\afxtempl.h

; 104  : 			pData += nElementsToRead;

  00229	8b 55 08	 mov	 edx, DWORD PTR _pData$1$[ebp]
  0022c	03 d1		 add	 edx, ecx
  0022e	89 55 08	 mov	 DWORD PTR _pData$1$[ebp], edx
  00231	2b f7		 sub	 esi, edi
  00233	75 cb		 jne	 SHORT $LL64@Serialize
$LN81@Serialize:
; File C:\Program Files (x86)\Microsoft Visual Studio\2019\Community\VC\Tools\MSVC\14.29.30133\atlmfc\include\afx.inl

; 212  : 	{ return (m_nMode & CArchive::load) == 0; }

  00235	8b 43 18	 mov	 eax, DWORD PTR [ebx+24]
  00238	f7 d0		 not	 eax
  0023a	a8 01		 test	 al, 1
; File C:\Program Files (x86)\Microsoft Visual Studio\2019\Community\VC\Tools\MSVC\14.29.30133\atlmfc\include\afxtempl.h

; 73   : 	if (ar.IsStoring())

  0023c	74 42		 je	 SHORT $LN87@Serialize

; 74   : 	{
; 75   : 		TYPE* pData;
; 76   : 		UINT_PTR nElementsLeft;
; 77   : 
; 78   : 		nElementsLeft = nCount;

  0023e	b8 01 00 00 00	 mov	 eax, 1

; 79   : 		pData = pElements;

  00243	8d 4d f0	 lea	 ecx, DWORD PTR _newValue$4[ebp]
  00246	89 45 08	 mov	 DWORD PTR _nElementsLeft$1$[ebp], eax
  00249	89 4d f4	 mov	 DWORD PTR _pData$1$[ebp], ecx
  0024c	0f 1f 40 00	 npad	 4
$LL82@Serialize:

; 80   : 		while( nElementsLeft > 0 )
; 81   : 		{
; 82   : 			UINT nElementsToWrite;
; 83   : 
; 84   : 			nElementsToWrite = UINT(__min(nElementsLeft, INT_MAX/sizeof(TYPE)));

  00250	bf ff ff ff 1f	 mov	 edi, 536870911		; 1fffffffH
  00255	3b c7		 cmp	 eax, edi
  00257	0f 42 f8	 cmovb	 edi, eax

; 85   : 			ar.Write(pData, nElementsToWrite*sizeof(TYPE));

  0025a	8d 34 bd 00 00
	00 00		 lea	 esi, DWORD PTR [edi*4]
  00261	56		 push	 esi
  00262	51		 push	 ecx
  00263	8b cb		 mov	 ecx, ebx
  00265	e8 00 00 00 00	 call	 ?Write@CArchive@@QAEXPBXI@Z ; CArchive::Write

; 86   : 			nElementsLeft -= nElementsToWrite;

  0026a	8b 45 08	 mov	 eax, DWORD PTR _nElementsLeft$1$[ebp]

; 87   : 			pData += nElementsToWrite;

  0026d	8b 4d f4	 mov	 ecx, DWORD PTR _pData$1$[ebp]
  00270	2b c7		 sub	 eax, edi
  00272	03 ce		 add	 ecx, esi
  00274	89 45 08	 mov	 DWORD PTR _nElementsLeft$1$[ebp], eax
  00277	89 4d f4	 mov	 DWORD PTR _pData$1$[ebp], ecx
  0027a	85 c0		 test	 eax, eax
  0027c	75 d2		 jne	 SHORT $LL82@Serialize

; 88   : 		}
; 89   : 	}

  0027e	eb 45		 jmp	 SHORT $LN85@Serialize
$LN87@Serialize:

; 96   : 		pData = pElements;

  00280	8d 55 f0	 lea	 edx, DWORD PTR _newValue$4[ebp]
  00283	be 01 00 00 00	 mov	 esi, 1
  00288	89 55 08	 mov	 DWORD PTR _pData$1$[ebp], edx
  0028b	0f 1f 44 00 00	 npad	 5
$LL84@Serialize:

; 101  : 			nElementsToRead = UINT(__min(nElementsLeft, INT_MAX/sizeof(TYPE)));

  00290	bf ff ff ff 1f	 mov	 edi, 536870911		; 1fffffffH
; File C:\Program Files (x86)\Microsoft Visual Studio\2019\Community\VC\Tools\MSVC\14.29.30133\atlmfc\include\afx.inl

; 399  : 	UINT nRead=Read(lpBuf, nCount);

  00295	8b cb		 mov	 ecx, ebx
; File C:\Program Files (x86)\Microsoft Visual Studio\2019\Community\VC\Tools\MSVC\14.29.30133\atlmfc\include\afxtempl.h

; 101  : 			nElementsToRead = UINT(__min(nElementsLeft, INT_MAX/sizeof(TYPE)));

  00297	3b f7		 cmp	 esi, edi
  00299	0f 42 fe	 cmovb	 edi, esi

; 102  : 			ar.EnsureRead(pData, nElementsToRead*sizeof(TYPE));

  0029c	8d 04 bd 00 00
	00 00		 lea	 eax, DWORD PTR [edi*4]
; File C:\Program Files (x86)\Microsoft Visual Studio\2019\Community\VC\Tools\MSVC\14.29.30133\atlmfc\include\afx.inl

; 399  : 	UINT nRead=Read(lpBuf, nCount);

  002a3	50		 push	 eax
  002a4	52		 push	 edx
  002a5	e8 00 00 00 00	 call	 ?Read@CArchive@@QAEIPAXI@Z ; CArchive::Read

; 400  : 	if(nRead!=nCount)

  002aa	8d 0c bd 00 00
	00 00		 lea	 ecx, DWORD PTR [edi*4]
  002b1	3b c1		 cmp	 eax, ecx
  002b3	0f 85 50 01 00
	00		 jne	 $LN165@Serialize
; File C:\Program Files (x86)\Microsoft Visual Studio\2019\Community\VC\Tools\MSVC\14.29.30133\atlmfc\include\afxtempl.h

; 104  : 			pData += nElementsToRead;

  002b9	8b 55 08	 mov	 edx, DWORD PTR _pData$1$[ebp]
  002bc	03 d1		 add	 edx, ecx
  002be	89 55 08	 mov	 DWORD PTR _pData$1$[ebp], edx
  002c1	2b f7		 sub	 esi, edi
  002c3	75 cb		 jne	 SHORT $LL84@Serialize
$LN85@Serialize:

; 1781 : 		{
; 1782 : 			KEY newKey[1];
; 1783 : 			VALUE newValue[1];
; 1784 : 			SerializeElements<KEY>(ar, newKey, 1);
; 1785 : 			SerializeElements<VALUE>(ar, newValue, 1);
; 1786 : 			SetAt(newKey[0], newValue[0]);

  002c5	8b 45 f0	 mov	 eax, DWORD PTR _newValue$4[ebp]
  002c8	b9 1d f3 01 00	 mov	 ecx, 127773		; 0001f31dH
  002cd	89 45 e4	 mov	 DWORD PTR _newValue$1$[ebp], eax
  002d0	8b 45 ec	 mov	 eax, DWORD PTR _newKey$3[ebp]
  002d3	89 45 f4	 mov	 DWORD PTR _key$1$[ebp], eax
  002d6	99		 cdq
  002d7	f7 f9		 idiv	 ecx

; 1534 : 	nHashBucket = nHashValue % m_nHashTableSize;

  002d9	8b 75 e8	 mov	 esi, DWORD PTR _this$1$[ebp]

; 166  : 	HashVal.rem = 16807 * HashVal.rem - 2836 * HashVal.quot;

  002dc	69 c0 14 0b 00
	00		 imul	 eax, eax, 2836
  002e2	69 ca a7 41 00
	00		 imul	 ecx, edx, 16807
  002e8	2b c8		 sub	 ecx, eax

; 1534 : 	nHashBucket = nHashValue % m_nHashTableSize;

  002ea	8d b9 ff ff ff
	7f		 lea	 edi, DWORD PTR [ecx+2147483647]
  002f0	0f 49 f9	 cmovns	 edi, ecx
  002f3	8b 4e 08	 mov	 ecx, DWORD PTR [esi+8]
  002f6	33 d2		 xor	 edx, edx
  002f8	89 4d 08	 mov	 DWORD PTR _nHashSize$1$[ebp], ecx
  002fb	8b c7		 mov	 eax, edi
  002fd	f7 f1		 div	 ecx

; 1535 : 
; 1536 : 	if (m_pHashTable == NULL)

  002ff	8b 4e 04	 mov	 ecx, DWORD PTR [esi+4]
  00302	8b c2		 mov	 eax, edx
  00304	89 45 e0	 mov	 DWORD PTR _nHashBucket$1$[ebp], eax
  00307	85 c9		 test	 ecx, ecx
  00309	75 49		 jne	 SHORT $LN112@Serialize

; 1434 : 		m_pHashTable = new CAssoc* [nHashSize];

  0030b	8b 45 08	 mov	 eax, DWORD PTR _nHashSize$1$[ebp]
  0030e	ba 04 00 00 00	 mov	 edx, 4
  00313	f7 e2		 mul	 edx
  00315	0f 90 c1	 seto	 cl
  00318	f7 d9		 neg	 ecx
  0031a	0b c8		 or	 ecx, eax
  0031c	51		 push	 ecx
  0031d	e8 00 00 00 00	 call	 ??_U@YAPAXI@Z		; operator new[]
  00322	83 c4 04	 add	 esp, 4
  00325	89 46 04	 mov	 DWORD PTR [esi+4], eax

; 1435 : 		ENSURE(m_pHashTable != NULL);

  00328	85 c0		 test	 eax, eax
  0032a	0f 84 d4 00 00
	00		 je	 $LN167@Serialize

; 1436 : 		memset(m_pHashTable, 0, sizeof(CAssoc*) * nHashSize);

  00330	8b 4d 08	 mov	 ecx, DWORD PTR _nHashSize$1$[ebp]
  00333	c1 e1 02	 shl	 ecx, 2
  00336	51		 push	 ecx
  00337	6a 00		 push	 0
  00339	50		 push	 eax
  0033a	e8 00 00 00 00	 call	 _memset

; 1437 : 	}
; 1438 : 	m_nHashTableSize = nHashSize;

  0033f	8b 45 08	 mov	 eax, DWORD PTR _nHashSize$1$[ebp]
  00342	83 c4 0c	 add	 esp, 12			; 0000000cH

; 1595 : 		ENSURE(m_pHashTable);

  00345	83 7e 04 00	 cmp	 DWORD PTR [esi+4], 0

; 1438 : 	m_nHashTableSize = nHashSize;

  00349	89 46 08	 mov	 DWORD PTR [esi+8], eax

; 1595 : 		ENSURE(m_pHashTable);

  0034c	0f 84 b2 00 00
	00		 je	 $LN167@Serialize
  00352	eb 20		 jmp	 SHORT $LN225@Serialize
$LN112@Serialize:

; 1541 : 	for (pAssoc = m_pHashTable[nHashBucket]; pAssoc != NULL; pAssoc = pAssoc->pNext)

  00354	8b 0c 81	 mov	 ecx, DWORD PTR [ecx+eax*4]
  00357	85 c9		 test	 ecx, ecx
  00359	74 19		 je	 SHORT $LN225@Serialize
  0035b	8b 45 f4	 mov	 eax, DWORD PTR _key$1$[ebp]
  0035e	66 90		 npad	 2
$LL111@Serialize:

; 1542 : 	{
; 1543 : 		if (pAssoc->nHashValue == nHashValue && CompareElements(&pAssoc->key, &key))

  00360	39 79 0c	 cmp	 DWORD PTR [ecx+12], edi
  00363	75 08		 jne	 SHORT $LN109@Serialize

; 156  : 	return *pElement1 == *pElement2;

  00365	39 01		 cmp	 DWORD PTR [ecx], eax

; 1543 : 		if (pAssoc->nHashValue == nHashValue && CompareElements(&pAssoc->key, &key))

  00367	0f 84 7d 00 00
	00		 je	 $LN104@Serialize
$LN109@Serialize:

; 1537 : 		return NULL;
; 1538 : 
; 1539 : 	// see if it exists
; 1540 : 	CAssoc* pAssoc;
; 1541 : 	for (pAssoc = m_pHashTable[nHashBucket]; pAssoc != NULL; pAssoc = pAssoc->pNext)

  0036d	8b 49 08	 mov	 ecx, DWORD PTR [ecx+8]
  00370	85 c9		 test	 ecx, ecx
  00372	75 ec		 jne	 SHORT $LL111@Serialize
$LN225@Serialize:

; 1481 : 	if (m_pFreeList == NULL)

  00374	83 7e 10 00	 cmp	 DWORD PTR [esi+16], 0
  00378	75 37		 jne	 SHORT $LN142@Serialize

; 1482 : 	{
; 1483 : 		// add another block
; 1484 : 		CPlex* newBlock = CPlex::Create(m_pBlocks, m_nBlockSize, sizeof(CMap::CAssoc));

  0037a	6a 10		 push	 16			; 00000010H
  0037c	ff 76 18	 push	 DWORD PTR [esi+24]
  0037f	8d 46 14	 lea	 eax, DWORD PTR [esi+20]
  00382	50		 push	 eax
  00383	e8 00 00 00 00	 call	 ?Create@CPlex@@SGPAU1@AAPAU1@II@Z ; CPlex::Create

; 1485 : 		// chain them into free list
; 1486 : 		CMap::CAssoc* pAssoc = (CMap::CAssoc*) newBlock->data();
; 1487 : 		// free in reverse order to make it easier to debug
; 1488 : 		pAssoc += m_nBlockSize - 1;

  00388	8b 56 18	 mov	 edx, DWORD PTR [esi+24]
  0038b	83 c0 08	 add	 eax, 8
  0038e	8b ca		 mov	 ecx, edx
  00390	c1 e1 04	 shl	 ecx, 4
  00393	83 c1 f0	 add	 ecx, -16		; fffffff0H
  00396	03 c8		 add	 ecx, eax

; 1489 : 		for (INT_PTR i = m_nBlockSize-1; i >= 0; i--, pAssoc--)

  00398	83 c2 ff	 add	 edx, -1
  0039b	78 14		 js	 SHORT $LN142@Serialize
  0039d	0f 1f 00	 npad	 3
$LL139@Serialize:

; 1490 : 		{
; 1491 : 			pAssoc->pNext = m_pFreeList;

  003a0	8b 46 10	 mov	 eax, DWORD PTR [esi+16]
  003a3	89 41 08	 mov	 DWORD PTR [ecx+8], eax

; 1492 : 			m_pFreeList = pAssoc;

  003a6	89 4e 10	 mov	 DWORD PTR [esi+16], ecx
  003a9	83 e9 10	 sub	 ecx, 16			; 00000010H
  003ac	83 ea 01	 sub	 edx, 1
  003af	79 ef		 jns	 SHORT $LL139@Serialize
$LN142@Serialize:

; 1493 : 		}
; 1494 : 	}
; 1495 : 	ENSURE(m_pFreeList != NULL);  // we must have something

  003b1	8b 4e 10	 mov	 ecx, DWORD PTR [esi+16]
  003b4	85 c9		 test	 ecx, ecx
  003b6	74 4c		 je	 SHORT $LN167@Serialize

; 1496 : 
; 1497 : 	CMap::CAssoc* pAssoc = m_pFreeList;
; 1498 : 
; 1499 : 	// zero the memory
; 1500 : 	CMap::CAssoc* pTemp = pAssoc->pNext;

  003b8	8b 41 08	 mov	 eax, DWORD PTR [ecx+8]
  003bb	0f 57 c0	 xorps	 xmm0, xmm0

; 1602 : 		pAssoc->pNext = m_pHashTable[nHashBucket];

  003be	8b 55 e0	 mov	 edx, DWORD PTR _nHashBucket$1$[ebp]

; 1501 : 	memset( pAssoc, 0, sizeof(CMap::CAssoc) );

  003c1	0f 11 01	 movups	 XMMWORD PTR [ecx], xmm0

; 1502 : 	pAssoc->pNext = pTemp;

  003c4	89 41 08	 mov	 DWORD PTR [ecx+8], eax

; 1503 : 
; 1504 : 	m_pFreeList = m_pFreeList->pNext;

  003c7	8b 46 10	 mov	 eax, DWORD PTR [esi+16]
  003ca	8b 40 08	 mov	 eax, DWORD PTR [eax+8]

; 1505 : 	m_nCount++;

  003cd	ff 46 0c	 inc	 DWORD PTR [esi+12]
  003d0	89 46 10	 mov	 DWORD PTR [esi+16], eax

; 1256 : 		CPair( ARG_KEY keyval ) : key( keyval )	{}

  003d3	8b 45 f4	 mov	 eax, DWORD PTR _key$1$[ebp]
  003d6	89 01		 mov	 DWORD PTR [ecx], eax

; 1598 : 		pAssoc->nHashValue = nHashValue;

  003d8	89 79 0c	 mov	 DWORD PTR [ecx+12], edi

; 1599 : 		//'pAssoc->value' is a constructed object, nothing more
; 1600 : 
; 1601 : 		// put into hash table
; 1602 : 		pAssoc->pNext = m_pHashTable[nHashBucket];

  003db	8b 46 04	 mov	 eax, DWORD PTR [esi+4]
  003de	8b 04 90	 mov	 eax, DWORD PTR [eax+edx*4]
  003e1	89 41 08	 mov	 DWORD PTR [ecx+8], eax

; 1603 : 		m_pHashTable[nHashBucket] = pAssoc;

  003e4	8b 46 04	 mov	 eax, DWORD PTR [esi+4]
  003e7	89 0c 90	 mov	 DWORD PTR [eax+edx*4], ecx
$LN104@Serialize:

; 1350 : 	{ (*this)[key] = newValue; }

  003ea	8b 45 e4	 mov	 eax, DWORD PTR _newValue$1$[ebp]
  003ed	89 41 04	 mov	 DWORD PTR [ecx+4], eax

; 1780 : 		while (nNewCount--)

  003f0	8b 45 f8	 mov	 eax, DWORD PTR _nNewCount$1$[ebp]
  003f3	85 c0		 test	 eax, eax
  003f5	0f 85 a5 fd ff
	ff		 jne	 $LL8@Serialize
$LN189@Serialize:
  003fb	5f		 pop	 edi

; 1787 : 		}
; 1788 : 	}
; 1789 : }

  003fc	5e		 pop	 esi
  003fd	5b		 pop	 ebx
  003fe	8b e5		 mov	 esp, ebp
  00400	5d		 pop	 ebp
  00401	c2 04 00	 ret	 4
$LN167@Serialize:
  00404	e8 00 00 00 00	 call	 ?AfxThrowInvalidArgException@@YGXXZ ; AfxThrowInvalidArgException
$LN165@Serialize:
  00409	6a 00		 push	 0
  0040b	6a 03		 push	 3
  0040d	e8 00 00 00 00	 call	 ?AfxThrowArchiveException@@YGXHPBD@Z ; AfxThrowArchiveException
$LN226@Serialize:
  00412	cc		 int	 3
?Serialize@?$CMap@HHPAVCSymbolDlg@@PAV1@@@UAEXAAVCArchive@@@Z ENDP ; CMap<int,int,CSymbolDlg *,CSymbolDlg *>::Serialize
_TEXT	ENDS
; Function compile flags: /Ogtp
; File C:\Program Files (x86)\Microsoft Visual Studio\2019\Community\VC\Tools\MSVC\14.29.30133\atlmfc\include\afxtempl.h
;	COMDAT ??1?$CMap@HHPAVCSymbolDlg@@PAV1@@@UAE@XZ
_TEXT	SEGMENT
__$EHRec$ = -12						; size = 12
??1?$CMap@HHPAVCSymbolDlg@@PAV1@@@UAE@XZ PROC		; CMap<int,int,CSymbolDlg *,CSymbolDlg *>::~CMap<int,int,CSymbolDlg *,CSymbolDlg *>, COMDAT
; _this$ = ecx

; 1472 : {

  00000	55		 push	 ebp
  00001	8b ec		 mov	 ebp, esp
  00003	6a ff		 push	 -1
  00005	68 00 00 00 00	 push	 __ehhandler$??1?$CMap@HHPAVCSymbolDlg@@PAV1@@@UAE@XZ
  0000a	64 a1 00 00 00
	00		 mov	 eax, DWORD PTR fs:0
  00010	50		 push	 eax
  00011	56		 push	 esi
  00012	a1 00 00 00 00	 mov	 eax, DWORD PTR ___security_cookie
  00017	33 c5		 xor	 eax, ebp
  00019	50		 push	 eax
  0001a	8d 45 f4	 lea	 eax, DWORD PTR __$EHRec$[ebp]
  0001d	64 a3 00 00 00
	00		 mov	 DWORD PTR fs:0, eax
  00023	8b f1		 mov	 esi, ecx

; 1446 : 	if (m_pHashTable != NULL)

  00025	8b 46 04	 mov	 eax, DWORD PTR [esi+4]

; 1472 : {

  00028	c7 06 00 00 00
	00		 mov	 DWORD PTR [esi], OFFSET ??_7?$CMap@HHPAVCSymbolDlg@@PAV1@@@6B@

; 1446 : 	if (m_pHashTable != NULL)

  0002e	85 c0		 test	 eax, eax
  00030	74 10		 je	 SHORT $LN10@CMap

; 1447 : 	{
; 1448 : 		// destroy elements (values and keys)
; 1449 : 		for (UINT nHash = 0; nHash < m_nHashTableSize; nHash++)
; 1450 : 		{
; 1451 : 			CAssoc* pAssoc;
; 1452 : 			for (pAssoc = m_pHashTable[nHash]; pAssoc != NULL;
; 1453 : 			  pAssoc = pAssoc->pNext)
; 1454 : 			{
; 1455 : 				pAssoc->CAssoc::~CAssoc();
; 1456 : 			}
; 1457 : 		}
; 1458 : 
; 1459 : 		// free hash table
; 1460 : 		delete[] m_pHashTable;

  00032	50		 push	 eax
  00033	e8 00 00 00 00	 call	 ??_V@YAXPAX@Z		; operator delete[]
  00038	83 c4 04	 add	 esp, 4

; 1461 : 		m_pHashTable = NULL;

  0003b	c7 46 04 00 00
	00 00		 mov	 DWORD PTR [esi+4], 0
$LN10@CMap:

; 1462 : 	}
; 1463 : 
; 1464 : 	m_nCount = 0;
; 1465 : 	m_pFreeList = NULL;
; 1466 : 	m_pBlocks->FreeDataChain();

  00042	8b 4e 14	 mov	 ecx, DWORD PTR [esi+20]
  00045	c7 46 0c 00 00
	00 00		 mov	 DWORD PTR [esi+12], 0
  0004c	c7 46 10 00 00
	00 00		 mov	 DWORD PTR [esi+16], 0
  00053	e8 00 00 00 00	 call	 ?FreeDataChain@CPlex@@QAEXXZ ; CPlex::FreeDataChain

; 1467 : 	m_pBlocks = NULL;

  00058	c7 46 14 00 00
	00 00		 mov	 DWORD PTR [esi+20], 0

; 1473 : 	RemoveAll();
; 1474 : 	ASSERT(m_nCount == 0);
; 1475 : }

  0005f	8b 4d f4	 mov	 ecx, DWORD PTR __$EHRec$[ebp]
  00062	64 89 0d 00 00
	00 00		 mov	 DWORD PTR fs:0, ecx
  00069	59		 pop	 ecx
  0006a	5e		 pop	 esi
  0006b	8b e5		 mov	 esp, ebp
  0006d	5d		 pop	 ebp
  0006e	c3		 ret	 0
  0006f	cc		 int	 3
  00070	cc		 int	 3
  00071	cc		 int	 3
  00072	cc		 int	 3
  00073	cc		 int	 3
_TEXT	ENDS
;	COMDAT text$x
text$x	SEGMENT
__ehhandler$??1?$CMap@HHPAVCSymbolDlg@@PAV1@@@UAE@XZ:
  00000	90		 npad	 1
  00001	90		 npad	 1
  00002	8b 54 24 08	 mov	 edx, DWORD PTR [esp+8]
  00006	8d 42 0c	 lea	 eax, DWORD PTR [edx+12]
  00009	8b 4a f8	 mov	 ecx, DWORD PTR [edx-8]
  0000c	33 c8		 xor	 ecx, eax
  0000e	e8 00 00 00 00	 call	 @__security_check_cookie@4
  00013	b8 00 00 00 00	 mov	 eax, OFFSET __ehfuncinfo$??1?$CMap@HHPAVCSymbolDlg@@PAV1@@@UAE@XZ
  00018	e9 00 00 00 00	 jmp	 ___CxxFrameHandler3
text$x	ENDS
??1?$CMap@HHPAVCSymbolDlg@@PAV1@@@UAE@XZ ENDP		; CMap<int,int,CSymbolDlg *,CSymbolDlg *>::~CMap<int,int,CSymbolDlg *,CSymbolDlg *>
; Function compile flags: /Ogtp
; File C:\Program Files (x86)\Microsoft Visual Studio\2019\Community\VC\Tools\MSVC\14.29.30133\atlmfc\include\afxtempl.h
;	COMDAT ?GetAssocAt@?$CMap@HHPAVCSymbolDlg@@PAV1@@@IBEPAVCAssoc@1@HAAI0@Z
_TEXT	SEGMENT
_key$ = 8						; size = 4
_nHashBucket$ = 12					; size = 4
_nHashValue$ = 16					; size = 4
?GetAssocAt@?$CMap@HHPAVCSymbolDlg@@PAV1@@@IBEPAVCAssoc@1@HAAI0@Z PROC ; CMap<int,int,CSymbolDlg *,CSymbolDlg *>::GetAssocAt, COMDAT
; _this$ = ecx

; 1532 : {

  00000	55		 push	 ebp
  00001	8b ec		 mov	 ebp, esp
  00003	56		 push	 esi
  00004	8b f1		 mov	 esi, ecx

; 165  : 	ldiv_t HashVal = ldiv((long)(ARG_KEY)key, 127773);

  00006	b9 1d f3 01 00	 mov	 ecx, 127773		; 0001f31dH

; 1532 : {

  0000b	57		 push	 edi

; 165  : 	ldiv_t HashVal = ldiv((long)(ARG_KEY)key, 127773);

  0000c	8b 7d 08	 mov	 edi, DWORD PTR _key$[ebp]
  0000f	8b c7		 mov	 eax, edi
  00011	99		 cdq
  00012	f7 f9		 idiv	 ecx

; 166  : 	HashVal.rem = 16807 * HashVal.rem - 2836 * HashVal.quot;

  00014	69 c0 14 0b 00
	00		 imul	 eax, eax, 2836
  0001a	69 ca a7 41 00
	00		 imul	 ecx, edx, 16807
  00020	2b c8		 sub	 ecx, eax

; 1533 : 	nHashValue = HashKey<ARG_KEY>(key);

  00022	8d 81 ff ff ff
	7f		 lea	 eax, DWORD PTR [ecx+2147483647]
  00028	0f 49 c1	 cmovns	 eax, ecx
  0002b	8b 4d 10	 mov	 ecx, DWORD PTR _nHashValue$[ebp]

; 1534 : 	nHashBucket = nHashValue % m_nHashTableSize;

  0002e	33 d2		 xor	 edx, edx
  00030	89 01		 mov	 DWORD PTR [ecx], eax
  00032	f7 76 08	 div	 DWORD PTR [esi+8]
  00035	8b 45 0c	 mov	 eax, DWORD PTR _nHashBucket$[ebp]
  00038	89 10		 mov	 DWORD PTR [eax], edx

; 1535 : 
; 1536 : 	if (m_pHashTable == NULL)

  0003a	8b 46 04	 mov	 eax, DWORD PTR [esi+4]
  0003d	85 c0		 test	 eax, eax
  0003f	74 1f		 je	 SHORT $LN26@GetAssocAt

; 1537 : 		return NULL;
; 1538 : 
; 1539 : 	// see if it exists
; 1540 : 	CAssoc* pAssoc;
; 1541 : 	for (pAssoc = m_pHashTable[nHashBucket]; pAssoc != NULL; pAssoc = pAssoc->pNext)

  00041	8b 04 90	 mov	 eax, DWORD PTR [eax+edx*4]
  00044	85 c0		 test	 eax, eax
  00046	74 18		 je	 SHORT $LN26@GetAssocAt

; 1542 : 	{
; 1543 : 		if (pAssoc->nHashValue == nHashValue && CompareElements(&pAssoc->key, &key))

  00048	8b 09		 mov	 ecx, DWORD PTR [ecx]
  0004a	66 0f 1f 44 00
	00		 npad	 6
$LL4@GetAssocAt:
  00050	39 48 0c	 cmp	 DWORD PTR [eax+12], ecx
  00053	75 04		 jne	 SHORT $LN2@GetAssocAt

; 156  : 	return *pElement1 == *pElement2;

  00055	39 38		 cmp	 DWORD PTR [eax], edi

; 1542 : 	{
; 1543 : 		if (pAssoc->nHashValue == nHashValue && CompareElements(&pAssoc->key, &key))

  00057	74 09		 je	 SHORT $LN1@GetAssocAt
$LN2@GetAssocAt:

; 1537 : 		return NULL;
; 1538 : 
; 1539 : 	// see if it exists
; 1540 : 	CAssoc* pAssoc;
; 1541 : 	for (pAssoc = m_pHashTable[nHashBucket]; pAssoc != NULL; pAssoc = pAssoc->pNext)

  00059	8b 40 08	 mov	 eax, DWORD PTR [eax+8]
  0005c	85 c0		 test	 eax, eax
  0005e	75 f0		 jne	 SHORT $LL4@GetAssocAt
$LN26@GetAssocAt:

; 1544 : 			return pAssoc;
; 1545 : 	}
; 1546 : 	return NULL;

  00060	33 c0		 xor	 eax, eax
$LN1@GetAssocAt:
  00062	5f		 pop	 edi

; 1547 : }

  00063	5e		 pop	 esi
  00064	5d		 pop	 ebp
  00065	c2 0c 00	 ret	 12			; 0000000cH
?GetAssocAt@?$CMap@HHPAVCSymbolDlg@@PAV1@@@IBEPAVCAssoc@1@HAAI0@Z ENDP ; CMap<int,int,CSymbolDlg *,CSymbolDlg *>::GetAssocAt
_TEXT	ENDS
; Function compile flags: /Ogtp
; File C:\Program Files (x86)\Microsoft Visual Studio\2019\Community\VC\Tools\MSVC\14.29.30133\atlmfc\include\afxtempl.h
;	COMDAT ?NewAssoc@?$CMap@HHPAVCSymbolDlg@@PAV1@@@IAEPAVCAssoc@1@H@Z
_TEXT	SEGMENT
_key$ = 8						; size = 4
?NewAssoc@?$CMap@HHPAVCSymbolDlg@@PAV1@@@IAEPAVCAssoc@1@H@Z PROC ; CMap<int,int,CSymbolDlg *,CSymbolDlg *>::NewAssoc, COMDAT
; _this$ = ecx

; 1480 : {

  00000	55		 push	 ebp
  00001	8b ec		 mov	 ebp, esp
  00003	56		 push	 esi
  00004	8b f1		 mov	 esi, ecx

; 1481 : 	if (m_pFreeList == NULL)

  00006	83 7e 10 00	 cmp	 DWORD PTR [esi+16], 0
  0000a	75 35		 jne	 SHORT $LN7@NewAssoc

; 1482 : 	{
; 1483 : 		// add another block
; 1484 : 		CPlex* newBlock = CPlex::Create(m_pBlocks, m_nBlockSize, sizeof(CMap::CAssoc));

  0000c	6a 10		 push	 16			; 00000010H
  0000e	ff 76 18	 push	 DWORD PTR [esi+24]
  00011	8d 46 14	 lea	 eax, DWORD PTR [esi+20]
  00014	50		 push	 eax
  00015	e8 00 00 00 00	 call	 ?Create@CPlex@@SGPAU1@AAPAU1@II@Z ; CPlex::Create

; 1485 : 		// chain them into free list
; 1486 : 		CMap::CAssoc* pAssoc = (CMap::CAssoc*) newBlock->data();
; 1487 : 		// free in reverse order to make it easier to debug
; 1488 : 		pAssoc += m_nBlockSize - 1;

  0001a	8b 56 18	 mov	 edx, DWORD PTR [esi+24]
  0001d	83 c0 08	 add	 eax, 8
  00020	8b ca		 mov	 ecx, edx
  00022	c1 e1 04	 shl	 ecx, 4
  00025	83 c1 f0	 add	 ecx, -16		; fffffff0H
  00028	03 c1		 add	 eax, ecx

; 1489 : 		for (INT_PTR i = m_nBlockSize-1; i >= 0; i--, pAssoc--)

  0002a	83 c2 ff	 add	 edx, -1
  0002d	78 12		 js	 SHORT $LN7@NewAssoc
  0002f	90		 npad	 1
$LL4@NewAssoc:

; 1490 : 		{
; 1491 : 			pAssoc->pNext = m_pFreeList;

  00030	8b 4e 10	 mov	 ecx, DWORD PTR [esi+16]
  00033	89 48 08	 mov	 DWORD PTR [eax+8], ecx

; 1492 : 			m_pFreeList = pAssoc;

  00036	89 46 10	 mov	 DWORD PTR [esi+16], eax
  00039	83 e8 10	 sub	 eax, 16			; 00000010H
  0003c	83 ea 01	 sub	 edx, 1
  0003f	79 ef		 jns	 SHORT $LL4@NewAssoc
$LN7@NewAssoc:

; 1493 : 		}
; 1494 : 	}
; 1495 : 	ENSURE(m_pFreeList != NULL);  // we must have something

  00041	8b 46 10	 mov	 eax, DWORD PTR [esi+16]
  00044	85 c0		 test	 eax, eax
  00046	74 22		 je	 SHORT $LN21@NewAssoc

; 1496 : 
; 1497 : 	CMap::CAssoc* pAssoc = m_pFreeList;
; 1498 : 
; 1499 : 	// zero the memory
; 1500 : 	CMap::CAssoc* pTemp = pAssoc->pNext;

  00048	8b 48 08	 mov	 ecx, DWORD PTR [eax+8]
  0004b	0f 57 c0	 xorps	 xmm0, xmm0

; 1501 : 	memset( pAssoc, 0, sizeof(CMap::CAssoc) );

  0004e	0f 11 00	 movups	 XMMWORD PTR [eax], xmm0

; 1502 : 	pAssoc->pNext = pTemp;

  00051	89 48 08	 mov	 DWORD PTR [eax+8], ecx

; 1503 : 
; 1504 : 	m_pFreeList = m_pFreeList->pNext;

  00054	8b 4e 10	 mov	 ecx, DWORD PTR [esi+16]
  00057	8b 49 08	 mov	 ecx, DWORD PTR [ecx+8]

; 1505 : 	m_nCount++;

  0005a	ff 46 0c	 inc	 DWORD PTR [esi+12]
  0005d	89 4e 10	 mov	 DWORD PTR [esi+16], ecx

; 1256 : 		CPair( ARG_KEY keyval ) : key( keyval )	{}

  00060	8b 4d 08	 mov	 ecx, DWORD PTR _key$[ebp]
  00063	89 08		 mov	 DWORD PTR [eax], ecx

; 1506 : 	ASSERT(m_nCount > 0);  // make sure we don't overflow
; 1507 : #pragma push_macro("new")
; 1508 : #undef new
; 1509 : 	::new(pAssoc) CMap::CAssoc(key);
; 1510 : #pragma pop_macro("new")
; 1511 : 	return pAssoc;

  00065	5e		 pop	 esi

; 1512 : }

  00066	5d		 pop	 ebp
  00067	c2 04 00	 ret	 4
$LN21@NewAssoc:

; 1493 : 		}
; 1494 : 	}
; 1495 : 	ENSURE(m_pFreeList != NULL);  // we must have something

  0006a	e8 00 00 00 00	 call	 ?AfxThrowInvalidArgException@@YGXXZ ; AfxThrowInvalidArgException
$LN19@NewAssoc:
  0006f	cc		 int	 3
?NewAssoc@?$CMap@HHPAVCSymbolDlg@@PAV1@@@IAEPAVCAssoc@1@H@Z ENDP ; CMap<int,int,CSymbolDlg *,CSymbolDlg *>::NewAssoc
_TEXT	ENDS
; Function compile flags: /Ogtp
; File C:\Program Files (x86)\Microsoft Visual Studio\2019\Community\VC\Tools\MSVC\14.29.30133\atlmfc\include\afxtempl.h
;	COMDAT ?InitHashTable@?$CMap@HHPAVCSymbolDlg@@PAV1@@@QAEXIH@Z
_TEXT	SEGMENT
_nHashSize$ = 8						; size = 4
_bAllocNow$ = 12					; size = 4
?InitHashTable@?$CMap@HHPAVCSymbolDlg@@PAV1@@@QAEXIH@Z PROC ; CMap<int,int,CSymbolDlg *,CSymbolDlg *>::InitHashTable, COMDAT
; _this$ = ecx

; 1420 : {

  00000	55		 push	 ebp
  00001	8b ec		 mov	 ebp, esp
  00003	56		 push	 esi
  00004	8b f1		 mov	 esi, ecx
  00006	57		 push	 edi

; 1421 : 	ASSERT_VALID(this);
; 1422 : 	ASSERT(m_nCount == 0);
; 1423 : 	ASSERT(nHashSize > 0);
; 1424 : 
; 1425 : 	if (m_pHashTable != NULL)

  00007	8b 46 04	 mov	 eax, DWORD PTR [esi+4]
  0000a	85 c0		 test	 eax, eax
  0000c	74 10		 je	 SHORT $LN5@InitHashTa

; 1426 : 	{
; 1427 : 		// free hash table
; 1428 : 		delete[] m_pHashTable;

  0000e	50		 push	 eax
  0000f	e8 00 00 00 00	 call	 ??_V@YAXPAX@Z		; operator delete[]
  00014	83 c4 04	 add	 esp, 4

; 1429 : 		m_pHashTable = NULL;

  00017	c7 46 04 00 00
	00 00		 mov	 DWORD PTR [esi+4], 0
$LN5@InitHashTa:

; 1430 : 	}
; 1431 : 
; 1432 : 	if (bAllocNow)

  0001e	83 7d 0c 00	 cmp	 DWORD PTR _bAllocNow$[ebp], 0
  00022	8b 7d 08	 mov	 edi, DWORD PTR _nHashSize$[ebp]
  00025	74 37		 je	 SHORT $LN6@InitHashTa

; 1433 : 	{
; 1434 : 		m_pHashTable = new CAssoc* [nHashSize];

  00027	33 c9		 xor	 ecx, ecx
  00029	8b c7		 mov	 eax, edi
  0002b	ba 04 00 00 00	 mov	 edx, 4
  00030	f7 e2		 mul	 edx
  00032	0f 90 c1	 seto	 cl
  00035	f7 d9		 neg	 ecx
  00037	0b c8		 or	 ecx, eax
  00039	51		 push	 ecx
  0003a	e8 00 00 00 00	 call	 ??_U@YAPAXI@Z		; operator new[]
  0003f	8b c8		 mov	 ecx, eax
  00041	83 c4 04	 add	 esp, 4
  00044	89 4e 04	 mov	 DWORD PTR [esi+4], ecx

; 1435 : 		ENSURE(m_pHashTable != NULL);

  00047	85 c9		 test	 ecx, ecx
  00049	74 1c		 je	 SHORT $LN11@InitHashTa

; 1436 : 		memset(m_pHashTable, 0, sizeof(CAssoc*) * nHashSize);

  0004b	8d 04 bd 00 00
	00 00		 lea	 eax, DWORD PTR [edi*4]
  00052	50		 push	 eax
  00053	6a 00		 push	 0
  00055	51		 push	 ecx
  00056	e8 00 00 00 00	 call	 _memset
  0005b	83 c4 0c	 add	 esp, 12			; 0000000cH
$LN6@InitHashTa:

; 1437 : 	}
; 1438 : 	m_nHashTableSize = nHashSize;

  0005e	89 7e 08	 mov	 DWORD PTR [esi+8], edi
  00061	5f		 pop	 edi
  00062	5e		 pop	 esi

; 1439 : }

  00063	5d		 pop	 ebp
  00064	c2 08 00	 ret	 8
$LN11@InitHashTa:

; 1435 : 		ENSURE(m_pHashTable != NULL);

  00067	e8 00 00 00 00	 call	 ?AfxThrowInvalidArgException@@YGXXZ ; AfxThrowInvalidArgException
$LN9@InitHashTa:
  0006c	cc		 int	 3
?InitHashTable@?$CMap@HHPAVCSymbolDlg@@PAV1@@@QAEXIH@Z ENDP ; CMap<int,int,CSymbolDlg *,CSymbolDlg *>::InitHashTable
_TEXT	ENDS
; Function compile flags: /Ogtp
; File C:\Program Files (x86)\Microsoft Visual Studio\2019\Community\VC\Tools\MSVC\14.29.30133\atlmfc\include\afxtempl.h
;	COMDAT ?GetNextAssoc@?$CMap@HHPAVCSymbolDlg@@PAV1@@@QBEXAAPAU__POSITION@@AAHAAPAVCSymbolDlg@@@Z
_TEXT	SEGMENT
_rNextPosition$ = 8					; size = 4
_rKey$ = 12						; size = 4
_rValue$ = 16						; size = 4
?GetNextAssoc@?$CMap@HHPAVCSymbolDlg@@PAV1@@@QBEXAAPAU__POSITION@@AAHAAPAVCSymbolDlg@@@Z PROC ; CMap<int,int,CSymbolDlg *,CSymbolDlg *>::GetNextAssoc, COMDAT
; _this$ = ecx

; 1640 : {

  00000	55		 push	 ebp
  00001	8b ec		 mov	 ebp, esp
  00003	53		 push	 ebx
  00004	56		 push	 esi
  00005	57		 push	 edi
  00006	8b f9		 mov	 edi, ecx

; 1641 : 	ASSERT_VALID(this);
; 1642 : 	ENSURE(m_pHashTable != NULL);  // never call on empty map

  00008	8b 5f 04	 mov	 ebx, DWORD PTR [edi+4]
  0000b	85 db		 test	 ebx, ebx
  0000d	74 6b		 je	 SHORT $LN37@GetNextAss

; 1643 : 
; 1644 : 	CAssoc* pAssocRet = (CAssoc*)rNextPosition;

  0000f	8b 75 08	 mov	 esi, DWORD PTR _rNextPosition$[ebp]
  00012	8b 36		 mov	 esi, DWORD PTR [esi]

; 1645 : 	ENSURE(pAssocRet != NULL);

  00014	85 f6		 test	 esi, esi
  00016	74 62		 je	 SHORT $LN37@GetNextAss

; 1646 : 
; 1647 : 	if (pAssocRet == (CAssoc*) BEFORE_START_POSITION)

  00018	83 fe ff	 cmp	 esi, -1
  0001b	75 1b		 jne	 SHORT $LN12@GetNextAss

; 1648 : 	{
; 1649 : 		// find the first association
; 1650 : 		for (UINT nBucket = 0; nBucket < m_nHashTableSize; nBucket++)

  0001d	8b 57 08	 mov	 edx, DWORD PTR [edi+8]
  00020	33 c9		 xor	 ecx, ecx
  00022	85 d2		 test	 edx, edx
  00024	74 12		 je	 SHORT $LN12@GetNextAss
  00026	8b c3		 mov	 eax, ebx
$LL10@GetNextAss:

; 1651 : 		{
; 1652 : 			if ((pAssocRet = m_pHashTable[nBucket]) != NULL)

  00028	8b 30		 mov	 esi, DWORD PTR [eax]
  0002a	85 f6		 test	 esi, esi
  0002c	75 0a		 jne	 SHORT $LN12@GetNextAss

; 1648 : 	{
; 1649 : 		// find the first association
; 1650 : 		for (UINT nBucket = 0; nBucket < m_nHashTableSize; nBucket++)

  0002e	41		 inc	 ecx
  0002f	83 c0 04	 add	 eax, 4
  00032	3b ca		 cmp	 ecx, edx
  00034	73 44		 jae	 SHORT $LN37@GetNextAss
  00036	eb f0		 jmp	 SHORT $LL10@GetNextAss
$LN12@GetNextAss:

; 1658 : 	}
; 1659 : 
; 1660 : 	// find next association
; 1661 : 	ASSERT(AfxIsValidAddress(pAssocRet, sizeof(CAssoc)));
; 1662 : 	CAssoc* pAssocNext;
; 1663 : 	if ((pAssocNext = pAssocRet->pNext) == NULL)

  00038	8b 4e 08	 mov	 ecx, DWORD PTR [esi+8]
  0003b	85 c9		 test	 ecx, ecx
  0003d	75 20		 jne	 SHORT $LN38@GetNextAss

; 1664 : 	{
; 1665 : 		// go to next bucket
; 1666 : 		for (UINT nBucket = (pAssocRet->nHashValue % m_nHashTableSize) + 1;

  0003f	8b 7f 08	 mov	 edi, DWORD PTR [edi+8]
  00042	33 d2		 xor	 edx, edx
  00044	8b 46 0c	 mov	 eax, DWORD PTR [esi+12]
  00047	f7 f7		 div	 edi
  00049	42		 inc	 edx

; 1667 : 		  nBucket < m_nHashTableSize; nBucket++)

  0004a	3b d7		 cmp	 edx, edi
  0004c	73 11		 jae	 SHORT $LN38@GetNextAss

; 1668 : 			if ((pAssocNext = m_pHashTable[nBucket]) != NULL)

  0004e	8d 04 93	 lea	 eax, DWORD PTR [ebx+edx*4]
$LL16@GetNextAss:
  00051	8b 08		 mov	 ecx, DWORD PTR [eax]
  00053	85 c9		 test	 ecx, ecx
  00055	75 08		 jne	 SHORT $LN38@GetNextAss

; 1667 : 		  nBucket < m_nHashTableSize; nBucket++)

  00057	42		 inc	 edx
  00058	83 c0 04	 add	 eax, 4
  0005b	3b d7		 cmp	 edx, edi
  0005d	72 f2		 jb	 SHORT $LL16@GetNextAss
$LN38@GetNextAss:

; 1669 : 				break;
; 1670 : 	}
; 1671 : 
; 1672 : 	rNextPosition = (POSITION) pAssocNext;

  0005f	8b 45 08	 mov	 eax, DWORD PTR _rNextPosition$[ebp]

; 1673 : 
; 1674 : 	// fill in return data
; 1675 : 	rKey = pAssocRet->key;
; 1676 : 	rValue = pAssocRet->value;
; 1677 : }

  00062	5f		 pop	 edi
  00063	89 08		 mov	 DWORD PTR [eax], ecx
  00065	8b 45 0c	 mov	 eax, DWORD PTR _rKey$[ebp]
  00068	8b 0e		 mov	 ecx, DWORD PTR [esi]
  0006a	89 08		 mov	 DWORD PTR [eax], ecx
  0006c	8b 45 10	 mov	 eax, DWORD PTR _rValue$[ebp]
  0006f	8b 4e 04	 mov	 ecx, DWORD PTR [esi+4]
  00072	5e		 pop	 esi
  00073	5b		 pop	 ebx
  00074	89 08		 mov	 DWORD PTR [eax], ecx
  00076	5d		 pop	 ebp
  00077	c2 0c 00	 ret	 12			; 0000000cH
$LN37@GetNextAss:

; 1653 : 			{
; 1654 : 				break;
; 1655 : 			}
; 1656 : 		}
; 1657 : 		ENSURE(pAssocRet != NULL);  // must find something

  0007a	e8 00 00 00 00	 call	 ?AfxThrowInvalidArgException@@YGXXZ ; AfxThrowInvalidArgException
$LN39@GetNextAss:
  0007f	cc		 int	 3
?GetNextAssoc@?$CMap@HHPAVCSymbolDlg@@PAV1@@@QBEXAAPAU__POSITION@@AAHAAPAVCSymbolDlg@@@Z ENDP ; CMap<int,int,CSymbolDlg *,CSymbolDlg *>::GetNextAssoc
_TEXT	ENDS
; Function compile flags: /Ogtp
; File C:\Program Files (x86)\Microsoft Visual Studio\2019\Community\VC\Tools\MSVC\14.29.30133\atlmfc\include\afxtempl.h
;	COMDAT ?RemoveAll@?$CMap@HHPAVCSymbolDlg@@PAV1@@@QAEXXZ
_TEXT	SEGMENT
?RemoveAll@?$CMap@HHPAVCSymbolDlg@@PAV1@@@QAEXXZ PROC	; CMap<int,int,CSymbolDlg *,CSymbolDlg *>::RemoveAll, COMDAT
; _this$ = ecx

; 1443 : {

  00000	56		 push	 esi
  00001	8b f1		 mov	 esi, ecx

; 1444 : 	ASSERT_VALID(this);
; 1445 : 
; 1446 : 	if (m_pHashTable != NULL)

  00003	8b 46 04	 mov	 eax, DWORD PTR [esi+4]
  00006	85 c0		 test	 eax, eax
  00008	74 10		 je	 SHORT $LN8@RemoveAll

; 1447 : 	{
; 1448 : 		// destroy elements (values and keys)
; 1449 : 		for (UINT nHash = 0; nHash < m_nHashTableSize; nHash++)
; 1450 : 		{
; 1451 : 			CAssoc* pAssoc;
; 1452 : 			for (pAssoc = m_pHashTable[nHash]; pAssoc != NULL;
; 1453 : 			  pAssoc = pAssoc->pNext)
; 1454 : 			{
; 1455 : 				pAssoc->CAssoc::~CAssoc();
; 1456 : 			}
; 1457 : 		}
; 1458 : 
; 1459 : 		// free hash table
; 1460 : 		delete[] m_pHashTable;

  0000a	50		 push	 eax
  0000b	e8 00 00 00 00	 call	 ??_V@YAXPAX@Z		; operator delete[]
  00010	83 c4 04	 add	 esp, 4

; 1461 : 		m_pHashTable = NULL;

  00013	c7 46 04 00 00
	00 00		 mov	 DWORD PTR [esi+4], 0
$LN8@RemoveAll:

; 1462 : 	}
; 1463 : 
; 1464 : 	m_nCount = 0;
; 1465 : 	m_pFreeList = NULL;
; 1466 : 	m_pBlocks->FreeDataChain();

  0001a	8b 4e 14	 mov	 ecx, DWORD PTR [esi+20]
  0001d	c7 46 0c 00 00
	00 00		 mov	 DWORD PTR [esi+12], 0
  00024	c7 46 10 00 00
	00 00		 mov	 DWORD PTR [esi+16], 0
  0002b	e8 00 00 00 00	 call	 ?FreeDataChain@CPlex@@QAEXXZ ; CPlex::FreeDataChain

; 1467 : 	m_pBlocks = NULL;

  00030	c7 46 14 00 00
	00 00		 mov	 DWORD PTR [esi+20], 0
  00037	5e		 pop	 esi

; 1468 : }

  00038	c3		 ret	 0
?RemoveAll@?$CMap@HHPAVCSymbolDlg@@PAV1@@@QAEXXZ ENDP	; CMap<int,int,CSymbolDlg *,CSymbolDlg *>::RemoveAll
_TEXT	ENDS
; Function compile flags: /Ogtp
; File C:\Program Files (x86)\Microsoft Visual Studio\2019\Community\VC\Tools\MSVC\14.29.30133\atlmfc\include\afxtempl.h
;	COMDAT ?SetAt@?$CMap@HHPAVCSymbolDlg@@PAV1@@@QAEXHPAVCSymbolDlg@@@Z
_TEXT	SEGMENT
_nHashBucket$1 = -8					; size = 4
_nHashValue$2 = -4					; size = 4
_key$ = 8						; size = 4
_newValue$ = 12						; size = 4
?SetAt@?$CMap@HHPAVCSymbolDlg@@PAV1@@@QAEXHPAVCSymbolDlg@@@Z PROC ; CMap<int,int,CSymbolDlg *,CSymbolDlg *>::SetAt, COMDAT
; _this$ = ecx

; 1350 : 	{ (*this)[key] = newValue; }

  00000	55		 push	 ebp
  00001	8b ec		 mov	 ebp, esp
  00003	83 ec 08	 sub	 esp, 8

; 1590 : 	if ((pAssoc = GetAssocAt(key, nHashBucket, nHashValue)) == NULL)

  00006	8d 45 fc	 lea	 eax, DWORD PTR _nHashValue$2[ebp]

; 1350 : 	{ (*this)[key] = newValue; }

  00009	56		 push	 esi
  0000a	57		 push	 edi

; 1590 : 	if ((pAssoc = GetAssocAt(key, nHashBucket, nHashValue)) == NULL)

  0000b	8b 7d 08	 mov	 edi, DWORD PTR _key$[ebp]

; 1350 : 	{ (*this)[key] = newValue; }

  0000e	8b f1		 mov	 esi, ecx

; 1590 : 	if ((pAssoc = GetAssocAt(key, nHashBucket, nHashValue)) == NULL)

  00010	50		 push	 eax
  00011	8d 45 f8	 lea	 eax, DWORD PTR _nHashBucket$1[ebp]
  00014	50		 push	 eax
  00015	57		 push	 edi
  00016	e8 00 00 00 00	 call	 ?GetAssocAt@?$CMap@HHPAVCSymbolDlg@@PAV1@@@IBEPAVCAssoc@1@HAAI0@Z ; CMap<int,int,CSymbolDlg *,CSymbolDlg *>::GetAssocAt
  0001b	8b d0		 mov	 edx, eax
  0001d	85 d2		 test	 edx, edx
  0001f	0f 85 9c 00 00
	00		 jne	 $LN7@SetAt

; 1591 : 	{
; 1592 : 		if (m_pHashTable == NULL)

  00025	8b 46 04	 mov	 eax, DWORD PTR [esi+4]
  00028	85 c0		 test	 eax, eax
  0002a	75 17		 jne	 SHORT $LN34@SetAt

; 1593 : 			InitHashTable(m_nHashTableSize);

  0002c	6a 01		 push	 1
  0002e	ff 76 08	 push	 DWORD PTR [esi+8]
  00031	8b ce		 mov	 ecx, esi
  00033	e8 00 00 00 00	 call	 ?InitHashTable@?$CMap@HHPAVCSymbolDlg@@PAV1@@@QAEXIH@Z ; CMap<int,int,CSymbolDlg *,CSymbolDlg *>::InitHashTable
  00038	8b 46 04	 mov	 eax, DWORD PTR [esi+4]

; 1594 : 
; 1595 : 		ENSURE(m_pHashTable);

  0003b	85 c0		 test	 eax, eax
  0003d	0f 84 8c 00 00
	00		 je	 $LN31@SetAt
$LN34@SetAt:

; 1481 : 	if (m_pFreeList == NULL)

  00043	83 7e 10 00	 cmp	 DWORD PTR [esi+16], 0
  00047	75 38		 jne	 SHORT $LN17@SetAt

; 1482 : 	{
; 1483 : 		// add another block
; 1484 : 		CPlex* newBlock = CPlex::Create(m_pBlocks, m_nBlockSize, sizeof(CMap::CAssoc));

  00049	6a 10		 push	 16			; 00000010H
  0004b	ff 76 18	 push	 DWORD PTR [esi+24]
  0004e	8d 46 14	 lea	 eax, DWORD PTR [esi+20]
  00051	50		 push	 eax
  00052	e8 00 00 00 00	 call	 ?Create@CPlex@@SGPAU1@AAPAU1@II@Z ; CPlex::Create

; 1485 : 		// chain them into free list
; 1486 : 		CMap::CAssoc* pAssoc = (CMap::CAssoc*) newBlock->data();
; 1487 : 		// free in reverse order to make it easier to debug
; 1488 : 		pAssoc += m_nBlockSize - 1;

  00057	8b 56 18	 mov	 edx, DWORD PTR [esi+24]
  0005a	83 c0 08	 add	 eax, 8
  0005d	8b ca		 mov	 ecx, edx
  0005f	c1 e1 04	 shl	 ecx, 4
  00062	83 c1 f0	 add	 ecx, -16		; fffffff0H
  00065	03 c8		 add	 ecx, eax

; 1489 : 		for (INT_PTR i = m_nBlockSize-1; i >= 0; i--, pAssoc--)

  00067	83 c2 ff	 add	 edx, -1
  0006a	78 15		 js	 SHORT $LN17@SetAt
  0006c	0f 1f 40 00	 npad	 4
$LL14@SetAt:

; 1490 : 		{
; 1491 : 			pAssoc->pNext = m_pFreeList;

  00070	8b 46 10	 mov	 eax, DWORD PTR [esi+16]
  00073	89 41 08	 mov	 DWORD PTR [ecx+8], eax

; 1492 : 			m_pFreeList = pAssoc;

  00076	89 4e 10	 mov	 DWORD PTR [esi+16], ecx
  00079	83 e9 10	 sub	 ecx, 16			; 00000010H
  0007c	83 ea 01	 sub	 edx, 1
  0007f	79 ef		 jns	 SHORT $LL14@SetAt
$LN17@SetAt:

; 1493 : 		}
; 1494 : 	}
; 1495 : 	ENSURE(m_pFreeList != NULL);  // we must have something

  00081	8b 56 10	 mov	 edx, DWORD PTR [esi+16]
  00084	85 d2		 test	 edx, edx
  00086	74 47		 je	 SHORT $LN31@SetAt

; 1496 : 
; 1497 : 	CMap::CAssoc* pAssoc = m_pFreeList;
; 1498 : 
; 1499 : 	// zero the memory
; 1500 : 	CMap::CAssoc* pTemp = pAssoc->pNext;

  00088	8b 42 08	 mov	 eax, DWORD PTR [edx+8]
  0008b	0f 57 c0	 xorps	 xmm0, xmm0

; 1501 : 	memset( pAssoc, 0, sizeof(CMap::CAssoc) );

  0008e	0f 11 02	 movups	 XMMWORD PTR [edx], xmm0

; 1502 : 	pAssoc->pNext = pTemp;

  00091	89 42 08	 mov	 DWORD PTR [edx+8], eax

; 1503 : 
; 1504 : 	m_pFreeList = m_pFreeList->pNext;

  00094	8b 46 10	 mov	 eax, DWORD PTR [esi+16]
  00097	8b 40 08	 mov	 eax, DWORD PTR [eax+8]

; 1505 : 	m_nCount++;

  0009a	ff 46 0c	 inc	 DWORD PTR [esi+12]
  0009d	89 46 10	 mov	 DWORD PTR [esi+16], eax

; 1598 : 		pAssoc->nHashValue = nHashValue;

  000a0	8b 45 fc	 mov	 eax, DWORD PTR _nHashValue$2[ebp]
  000a3	89 42 0c	 mov	 DWORD PTR [edx+12], eax

; 1599 : 		//'pAssoc->value' is a constructed object, nothing more
; 1600 : 
; 1601 : 		// put into hash table
; 1602 : 		pAssoc->pNext = m_pHashTable[nHashBucket];

  000a6	8b 45 f8	 mov	 eax, DWORD PTR _nHashBucket$1[ebp]

; 1256 : 		CPair( ARG_KEY keyval ) : key( keyval )	{}

  000a9	89 3a		 mov	 DWORD PTR [edx], edi

; 1602 : 		pAssoc->pNext = m_pHashTable[nHashBucket];

  000ab	8d 0c 85 00 00
	00 00		 lea	 ecx, DWORD PTR [eax*4]
  000b2	8b 46 04	 mov	 eax, DWORD PTR [esi+4]
  000b5	8b 04 01	 mov	 eax, DWORD PTR [ecx+eax]
  000b8	89 42 08	 mov	 DWORD PTR [edx+8], eax

; 1603 : 		m_pHashTable[nHashBucket] = pAssoc;

  000bb	8b 46 04	 mov	 eax, DWORD PTR [esi+4]
  000be	89 14 01	 mov	 DWORD PTR [ecx+eax], edx
$LN7@SetAt:

; 1350 : 	{ (*this)[key] = newValue; }

  000c1	8b 45 0c	 mov	 eax, DWORD PTR _newValue$[ebp]
  000c4	5f		 pop	 edi
  000c5	89 42 04	 mov	 DWORD PTR [edx+4], eax
  000c8	5e		 pop	 esi
  000c9	8b e5		 mov	 esp, ebp
  000cb	5d		 pop	 ebp
  000cc	c2 08 00	 ret	 8
$LN31@SetAt:

; 1495 : 	ENSURE(m_pFreeList != NULL);  // we must have something

  000cf	e8 00 00 00 00	 call	 ?AfxThrowInvalidArgException@@YGXXZ ; AfxThrowInvalidArgException
$LN32@SetAt:
  000d4	cc		 int	 3
?SetAt@?$CMap@HHPAVCSymbolDlg@@PAV1@@@QAEXHPAVCSymbolDlg@@@Z ENDP ; CMap<int,int,CSymbolDlg *,CSymbolDlg *>::SetAt
_TEXT	ENDS
; Function compile flags: /Ogtp
; File C:\Program Files (x86)\Microsoft Visual Studio\2019\Community\VC\Tools\MSVC\14.29.30133\atlmfc\include\afxtempl.h
;	COMDAT ??A?$CMap@HHPAVCSymbolDlg@@PAV1@@@QAEAAPAVCSymbolDlg@@H@Z
_TEXT	SEGMENT
_nHashBucket$ = -8					; size = 4
_nHashValue$ = -4					; size = 4
_key$ = 8						; size = 4
??A?$CMap@HHPAVCSymbolDlg@@PAV1@@@QAEAAPAVCSymbolDlg@@H@Z PROC ; CMap<int,int,CSymbolDlg *,CSymbolDlg *>::operator[], COMDAT
; _this$ = ecx

; 1585 : {

  00000	55		 push	 ebp
  00001	8b ec		 mov	 ebp, esp
  00003	83 ec 08	 sub	 esp, 8

; 1586 : 	ASSERT_VALID(this);
; 1587 : 
; 1588 : 	UINT nHashBucket, nHashValue;
; 1589 : 	CAssoc* pAssoc;
; 1590 : 	if ((pAssoc = GetAssocAt(key, nHashBucket, nHashValue)) == NULL)

  00006	8d 45 fc	 lea	 eax, DWORD PTR _nHashValue$[ebp]
  00009	56		 push	 esi
  0000a	57		 push	 edi
  0000b	8b 7d 08	 mov	 edi, DWORD PTR _key$[ebp]
  0000e	8b f1		 mov	 esi, ecx
  00010	50		 push	 eax
  00011	8d 45 f8	 lea	 eax, DWORD PTR _nHashBucket$[ebp]
  00014	50		 push	 eax
  00015	57		 push	 edi
  00016	e8 00 00 00 00	 call	 ?GetAssocAt@?$CMap@HHPAVCSymbolDlg@@PAV1@@@IBEPAVCAssoc@1@HAAI0@Z ; CMap<int,int,CSymbolDlg *,CSymbolDlg *>::GetAssocAt
  0001b	8b d0		 mov	 edx, eax
  0001d	85 d2		 test	 edx, edx
  0001f	0f 85 9c 00 00
	00		 jne	 $LN5@operator

; 1591 : 	{
; 1592 : 		if (m_pHashTable == NULL)

  00025	8b 46 04	 mov	 eax, DWORD PTR [esi+4]
  00028	85 c0		 test	 eax, eax
  0002a	75 17		 jne	 SHORT $LN31@operator

; 1593 : 			InitHashTable(m_nHashTableSize);

  0002c	6a 01		 push	 1
  0002e	ff 76 08	 push	 DWORD PTR [esi+8]
  00031	8b ce		 mov	 ecx, esi
  00033	e8 00 00 00 00	 call	 ?InitHashTable@?$CMap@HHPAVCSymbolDlg@@PAV1@@@QAEXIH@Z ; CMap<int,int,CSymbolDlg *,CSymbolDlg *>::InitHashTable
  00038	8b 46 04	 mov	 eax, DWORD PTR [esi+4]

; 1594 : 
; 1595 : 		ENSURE(m_pHashTable);

  0003b	85 c0		 test	 eax, eax
  0003d	0f 84 89 00 00
	00		 je	 $LN28@operator
$LN31@operator:

; 1481 : 	if (m_pFreeList == NULL)

  00043	83 7e 10 00	 cmp	 DWORD PTR [esi+16], 0
  00047	75 38		 jne	 SHORT $LN15@operator

; 1482 : 	{
; 1483 : 		// add another block
; 1484 : 		CPlex* newBlock = CPlex::Create(m_pBlocks, m_nBlockSize, sizeof(CMap::CAssoc));

  00049	6a 10		 push	 16			; 00000010H
  0004b	ff 76 18	 push	 DWORD PTR [esi+24]
  0004e	8d 46 14	 lea	 eax, DWORD PTR [esi+20]
  00051	50		 push	 eax
  00052	e8 00 00 00 00	 call	 ?Create@CPlex@@SGPAU1@AAPAU1@II@Z ; CPlex::Create

; 1485 : 		// chain them into free list
; 1486 : 		CMap::CAssoc* pAssoc = (CMap::CAssoc*) newBlock->data();
; 1487 : 		// free in reverse order to make it easier to debug
; 1488 : 		pAssoc += m_nBlockSize - 1;

  00057	8b 56 18	 mov	 edx, DWORD PTR [esi+24]
  0005a	83 c0 08	 add	 eax, 8
  0005d	8b ca		 mov	 ecx, edx
  0005f	c1 e1 04	 shl	 ecx, 4
  00062	83 c1 f0	 add	 ecx, -16		; fffffff0H
  00065	03 c8		 add	 ecx, eax

; 1489 : 		for (INT_PTR i = m_nBlockSize-1; i >= 0; i--, pAssoc--)

  00067	83 c2 ff	 add	 edx, -1
  0006a	78 15		 js	 SHORT $LN15@operator
  0006c	0f 1f 40 00	 npad	 4
$LL12@operator:

; 1490 : 		{
; 1491 : 			pAssoc->pNext = m_pFreeList;

  00070	8b 46 10	 mov	 eax, DWORD PTR [esi+16]
  00073	89 41 08	 mov	 DWORD PTR [ecx+8], eax

; 1492 : 			m_pFreeList = pAssoc;

  00076	89 4e 10	 mov	 DWORD PTR [esi+16], ecx
  00079	83 e9 10	 sub	 ecx, 16			; 00000010H
  0007c	83 ea 01	 sub	 edx, 1
  0007f	79 ef		 jns	 SHORT $LL12@operator
$LN15@operator:

; 1493 : 		}
; 1494 : 	}
; 1495 : 	ENSURE(m_pFreeList != NULL);  // we must have something

  00081	8b 56 10	 mov	 edx, DWORD PTR [esi+16]
  00084	85 d2		 test	 edx, edx
  00086	74 44		 je	 SHORT $LN28@operator

; 1496 : 
; 1497 : 	CMap::CAssoc* pAssoc = m_pFreeList;
; 1498 : 
; 1499 : 	// zero the memory
; 1500 : 	CMap::CAssoc* pTemp = pAssoc->pNext;

  00088	8b 42 08	 mov	 eax, DWORD PTR [edx+8]
  0008b	0f 57 c0	 xorps	 xmm0, xmm0

; 1501 : 	memset( pAssoc, 0, sizeof(CMap::CAssoc) );

  0008e	0f 11 02	 movups	 XMMWORD PTR [edx], xmm0

; 1502 : 	pAssoc->pNext = pTemp;

  00091	89 42 08	 mov	 DWORD PTR [edx+8], eax

; 1503 : 
; 1504 : 	m_pFreeList = m_pFreeList->pNext;

  00094	8b 46 10	 mov	 eax, DWORD PTR [esi+16]
  00097	8b 40 08	 mov	 eax, DWORD PTR [eax+8]

; 1505 : 	m_nCount++;

  0009a	ff 46 0c	 inc	 DWORD PTR [esi+12]
  0009d	89 46 10	 mov	 DWORD PTR [esi+16], eax

; 1596 : 		// it doesn't exist, add a new Association
; 1597 : 		pAssoc = NewAssoc(key);
; 1598 : 		pAssoc->nHashValue = nHashValue;

  000a0	8b 45 fc	 mov	 eax, DWORD PTR _nHashValue$[ebp]
  000a3	89 42 0c	 mov	 DWORD PTR [edx+12], eax

; 1599 : 		//'pAssoc->value' is a constructed object, nothing more
; 1600 : 
; 1601 : 		// put into hash table
; 1602 : 		pAssoc->pNext = m_pHashTable[nHashBucket];

  000a6	8b 45 f8	 mov	 eax, DWORD PTR _nHashBucket$[ebp]

; 1256 : 		CPair( ARG_KEY keyval ) : key( keyval )	{}

  000a9	89 3a		 mov	 DWORD PTR [edx], edi

; 1599 : 		//'pAssoc->value' is a constructed object, nothing more
; 1600 : 
; 1601 : 		// put into hash table
; 1602 : 		pAssoc->pNext = m_pHashTable[nHashBucket];

  000ab	8d 0c 85 00 00
	00 00		 lea	 ecx, DWORD PTR [eax*4]
  000b2	8b 46 04	 mov	 eax, DWORD PTR [esi+4]
  000b5	8b 04 01	 mov	 eax, DWORD PTR [ecx+eax]
  000b8	89 42 08	 mov	 DWORD PTR [edx+8], eax

; 1603 : 		m_pHashTable[nHashBucket] = pAssoc;

  000bb	8b 46 04	 mov	 eax, DWORD PTR [esi+4]
  000be	89 14 01	 mov	 DWORD PTR [ecx+eax], edx
$LN5@operator:

; 1604 : 	}
; 1605 : 	return pAssoc->value;  // return new reference

  000c1	5f		 pop	 edi
  000c2	8d 42 04	 lea	 eax, DWORD PTR [edx+4]
  000c5	5e		 pop	 esi

; 1606 : }

  000c6	8b e5		 mov	 esp, ebp
  000c8	5d		 pop	 ebp
  000c9	c2 04 00	 ret	 4
$LN28@operator:

; 1495 : 	ENSURE(m_pFreeList != NULL);  // we must have something

  000cc	e8 00 00 00 00	 call	 ?AfxThrowInvalidArgException@@YGXXZ ; AfxThrowInvalidArgException
$LN29@operator:
  000d1	cc		 int	 3
??A?$CMap@HHPAVCSymbolDlg@@PAV1@@@QAEAAPAVCSymbolDlg@@H@Z ENDP ; CMap<int,int,CSymbolDlg *,CSymbolDlg *>::operator[]
_TEXT	ENDS
; Function compile flags: /Ogtp
; File C:\Program Files (x86)\Microsoft Visual Studio\2019\Community\VC\Tools\MSVC\14.29.30133\atlmfc\include\afxtempl.h
;	COMDAT ?Lookup@?$CMap@HHPAVCSymbolDlg@@PAV1@@@QBEHHAAPAVCSymbolDlg@@@Z
_TEXT	SEGMENT
_nHashBucket$ = -8					; size = 4
_nHashValue$ = -4					; size = 4
_key$ = 8						; size = 4
_rValue$ = 12						; size = 4
?Lookup@?$CMap@HHPAVCSymbolDlg@@PAV1@@@QBEHHAAPAVCSymbolDlg@@@Z PROC ; CMap<int,int,CSymbolDlg *,CSymbolDlg *>::Lookup, COMDAT
; _this$ = ecx

; 1551 : {

  00000	55		 push	 ebp
  00001	8b ec		 mov	 ebp, esp
  00003	83 ec 08	 sub	 esp, 8

; 1552 : 	ASSERT_VALID(this);
; 1553 : 
; 1554 : 	UINT nHashBucket, nHashValue;
; 1555 : 	CAssoc* pAssoc = GetAssocAt(key, nHashBucket, nHashValue);

  00006	8d 45 fc	 lea	 eax, DWORD PTR _nHashValue$[ebp]
  00009	50		 push	 eax
  0000a	8d 45 f8	 lea	 eax, DWORD PTR _nHashBucket$[ebp]
  0000d	50		 push	 eax
  0000e	ff 75 08	 push	 DWORD PTR _key$[ebp]
  00011	e8 00 00 00 00	 call	 ?GetAssocAt@?$CMap@HHPAVCSymbolDlg@@PAV1@@@IBEPAVCAssoc@1@HAAI0@Z ; CMap<int,int,CSymbolDlg *,CSymbolDlg *>::GetAssocAt

; 1556 : 	if (pAssoc == NULL)

  00016	85 c0		 test	 eax, eax
  00018	75 06		 jne	 SHORT $LN2@Lookup

; 1561 : }

  0001a	8b e5		 mov	 esp, ebp
  0001c	5d		 pop	 ebp
  0001d	c2 08 00	 ret	 8
$LN2@Lookup:

; 1557 : 		return FALSE;  // not in map
; 1558 : 
; 1559 : 	rValue = pAssoc->value;

  00020	8b 48 04	 mov	 ecx, DWORD PTR [eax+4]
  00023	8b 45 0c	 mov	 eax, DWORD PTR _rValue$[ebp]
  00026	89 08		 mov	 DWORD PTR [eax], ecx

; 1560 : 	return TRUE;

  00028	b8 01 00 00 00	 mov	 eax, 1

; 1561 : }

  0002d	8b e5		 mov	 esp, ebp
  0002f	5d		 pop	 ebp
  00030	c2 08 00	 ret	 8
?Lookup@?$CMap@HHPAVCSymbolDlg@@PAV1@@@QBEHHAAPAVCSymbolDlg@@@Z ENDP ; CMap<int,int,CSymbolDlg *,CSymbolDlg *>::Lookup
_TEXT	ENDS
; Function compile flags: /Ogtp
; File C:\Program Files (x86)\Microsoft Visual Studio\2019\Community\VC\Tools\MSVC\14.29.30133\atlmfc\include\afxtempl.h
;	COMDAT ??0?$CMap@HHPAVCSymbolDlg@@PAV1@@@QAE@H@Z
_TEXT	SEGMENT
_nBlockSize$ = 8					; size = 4
??0?$CMap@HHPAVCSymbolDlg@@PAV1@@@QAE@H@Z PROC		; CMap<int,int,CSymbolDlg *,CSymbolDlg *>::CMap<int,int,CSymbolDlg *,CSymbolDlg *>, COMDAT
; _this$ = ecx

; 1403 : {

  00000	55		 push	 ebp
  00001	8b ec		 mov	 ebp, esp

; 1404 : 	ASSERT(nBlockSize > 0);
; 1405 : 
; 1406 : 	m_pHashTable = NULL;
; 1407 : 	m_nHashTableSize = 17;  // default size
; 1408 : 	m_nCount = 0;
; 1409 : 	m_pFreeList = NULL;
; 1410 : 	m_pBlocks = NULL;
; 1411 : 	m_nBlockSize = nBlockSize;

  00003	8b 45 08	 mov	 eax, DWORD PTR _nBlockSize$[ebp]
  00006	89 41 18	 mov	 DWORD PTR [ecx+24], eax

; 1412 : }

  00009	8b c1		 mov	 eax, ecx
  0000b	c7 01 00 00 00
	00		 mov	 DWORD PTR [ecx], OFFSET ??_7?$CMap@HHPAVCSymbolDlg@@PAV1@@@6B@
  00011	c7 41 04 00 00
	00 00		 mov	 DWORD PTR [ecx+4], 0
  00018	c7 41 08 11 00
	00 00		 mov	 DWORD PTR [ecx+8], 17	; 00000011H
  0001f	c7 41 0c 00 00
	00 00		 mov	 DWORD PTR [ecx+12], 0
  00026	c7 41 10 00 00
	00 00		 mov	 DWORD PTR [ecx+16], 0
  0002d	c7 41 14 00 00
	00 00		 mov	 DWORD PTR [ecx+20], 0
  00034	5d		 pop	 ebp
  00035	c2 04 00	 ret	 4
??0?$CMap@HHPAVCSymbolDlg@@PAV1@@@QAE@H@Z ENDP		; CMap<int,int,CSymbolDlg *,CSymbolDlg *>::CMap<int,int,CSymbolDlg *,CSymbolDlg *>
_TEXT	ENDS
; Function compile flags: /Ogtp
; File D:\git\src\IBK\IBK_DRFN\ProjSrc\SrcChartEx\ChartAddIn\ChartAnalysisToolAddIn\Symbol\MainSymbolImplementation.cpp
;	COMDAT ??_GCMainSymbolImplementation@@UAEPAXI@Z
_TEXT	SEGMENT
__$EHRec$ = -12						; size = 12
___flags$ = 8						; size = 4
??_GCMainSymbolImplementation@@UAEPAXI@Z PROC		; CMainSymbolImplementation::`scalar deleting destructor', COMDAT
; _this$ = ecx
  00000	55		 push	 ebp
  00001	8b ec		 mov	 ebp, esp
  00003	6a ff		 push	 -1
  00005	68 00 00 00 00	 push	 __ehhandler$??_GCMainSymbolImplementation@@UAEPAXI@Z
  0000a	64 a1 00 00 00
	00		 mov	 eax, DWORD PTR fs:0
  00010	50		 push	 eax
  00011	56		 push	 esi
  00012	a1 00 00 00 00	 mov	 eax, DWORD PTR ___security_cookie
  00017	33 c5		 xor	 eax, ebp
  00019	50		 push	 eax
  0001a	8d 45 f4	 lea	 eax, DWORD PTR __$EHRec$[ebp]
  0001d	64 a3 00 00 00
	00		 mov	 DWORD PTR fs:0, eax
  00023	8b f1		 mov	 esi, ecx

; 113  : {

  00025	c7 45 fc 00 00
	00 00		 mov	 DWORD PTR __$EHRec$[ebp+8], 0
  0002c	c7 06 00 00 00
	00		 mov	 DWORD PTR [esi], OFFSET ??_7CMainSymbolImplementation@@6B@

; 114  : 	//DeleteSymbolDlg();
; 115  : 		DestSymbolDlg();

  00032	e8 00 00 00 00	 call	 ?DestSymbolDlg@CMainSymbolImplementation@@SAXXZ ; CMainSymbolImplementation::DestSymbolDlg

; 116  : }

  00037	8d 8e 28 01 00
	00		 lea	 ecx, DWORD PTR [esi+296]
  0003d	e8 00 00 00 00	 call	 ??1CSymbolSingleton@@QAE@XZ ; CSymbolSingleton::~CSymbolSingleton
  00042	8d 4e 28	 lea	 ecx, DWORD PTR [esi+40]
  00045	e8 00 00 00 00	 call	 ??1CSymbolData@@QAE@XZ	; CSymbolData::~CSymbolData
  0004a	f6 45 08 01	 test	 BYTE PTR ___flags$[ebp], 1
  0004e	74 0e		 je	 SHORT $LN7@scalar
  00050	68 bc 01 00 00	 push	 444			; 000001bcH
  00055	56		 push	 esi
  00056	e8 00 00 00 00	 call	 ??3@YAXPAXI@Z		; operator delete
  0005b	83 c4 08	 add	 esp, 8
$LN7@scalar:
  0005e	8b c6		 mov	 eax, esi
  00060	8b 4d f4	 mov	 ecx, DWORD PTR __$EHRec$[ebp]
  00063	64 89 0d 00 00
	00 00		 mov	 DWORD PTR fs:0, ecx
  0006a	59		 pop	 ecx
  0006b	5e		 pop	 esi
  0006c	8b e5		 mov	 esp, ebp
  0006e	5d		 pop	 ebp
  0006f	c2 04 00	 ret	 4
  00072	cc		 int	 3
  00073	cc		 int	 3
  00074	cc		 int	 3
  00075	cc		 int	 3
  00076	cc		 int	 3
_TEXT	ENDS
;	COMDAT text$x
text$x	SEGMENT
__ehhandler$??_GCMainSymbolImplementation@@UAEPAXI@Z:
  00000	90		 npad	 1
  00001	90		 npad	 1
  00002	8b 54 24 08	 mov	 edx, DWORD PTR [esp+8]
  00006	8d 42 0c	 lea	 eax, DWORD PTR [edx+12]
  00009	8b 4a f8	 mov	 ecx, DWORD PTR [edx-8]
  0000c	33 c8		 xor	 ecx, eax
  0000e	e8 00 00 00 00	 call	 @__security_check_cookie@4
  00013	b8 00 00 00 00	 mov	 eax, OFFSET __ehfuncinfo$??_GCMainSymbolImplementation@@UAEPAXI@Z
  00018	e9 00 00 00 00	 jmp	 ___CxxFrameHandler3
text$x	ENDS
??_GCMainSymbolImplementation@@UAEPAXI@Z ENDP		; CMainSymbolImplementation::`scalar deleting destructor'
; Function compile flags: /Ogtp
; File D:\git\src\IBK\IBK_DRFN\ProjSrc\SrcChartEx\ChartAddIn\ChartAnalysisToolAddIn\Symbol\MainSymbolImplementation.cpp
;	COMDAT ?SetColor@CMainSymbolImplementation@@AAE_NABK@Z
_TEXT	SEGMENT
_symbolColor$ = 8					; size = 4
?SetColor@CMainSymbolImplementation@@AAE_NABK@Z PROC	; CMainSymbolImplementation::SetColor, COMDAT
; _this$ = ecx

; 371  : {

  00000	55		 push	 ebp
  00001	8b ec		 mov	 ebp, esp
  00003	56		 push	 esi
  00004	8b f1		 mov	 esi, ecx

; 372  : 	if(m_pDrawingSymbol == NULL)

  00006	8b 4e 20	 mov	 ecx, DWORD PTR [esi+32]
  00009	85 c9		 test	 ecx, ecx
  0000b	75 07		 jne	 SHORT $LN2@SetColor

; 373  : 		return false;

  0000d	32 c0		 xor	 al, al
  0000f	5e		 pop	 esi

; 378  : }

  00010	5d		 pop	 ebp
  00011	c2 04 00	 ret	 4
$LN2@SetColor:

; 374  : 
; 375  : 	m_pDrawingSymbol->SetColor(symbolColor);

  00014	ff 75 08	 push	 DWORD PTR _symbolColor$[ebp]
  00017	e8 00 00 00 00	 call	 ?SetColor@CDrawingSymbol@@QAEXABK@Z ; CDrawingSymbol::SetColor

; 376  : 	m_symboldata.Invalidate();

  0001c	8d 4e 28	 lea	 ecx, DWORD PTR [esi+40]
  0001f	e8 00 00 00 00	 call	 ?Invalidate@CSymbolData@@QAEXXZ ; CSymbolData::Invalidate

; 377  : 	return true;

  00024	b0 01		 mov	 al, 1
  00026	5e		 pop	 esi

; 378  : }

  00027	5d		 pop	 ebp
  00028	c2 04 00	 ret	 4
?SetColor@CMainSymbolImplementation@@AAE_NABK@Z ENDP	; CMainSymbolImplementation::SetColor
_TEXT	ENDS
; Function compile flags: /Ogtp
; File D:\git\src\IBK\IBK_DRFN\ProjSrc\SrcChartEx\ChartAddIn\ChartAnalysisToolAddIn\Symbol\MainSymbolImplementation.cpp
; File C:\Program Files (x86)\Microsoft Visual Studio\2019\Community\VC\Tools\MSVC\14.29.30133\atlmfc\include\afxtempl.h
; File D:\git\src\IBK\IBK_DRFN\ProjSrc\SrcChartEx\ChartAddIn\ChartAnalysisToolAddIn\Symbol\MainSymbolImplementation.cpp
; File C:\Program Files (x86)\Microsoft Visual Studio\2019\Community\VC\Tools\MSVC\14.29.30133\atlmfc\include\afxtempl.h
; File D:\git\src\IBK\IBK_DRFN\ProjSrc\SrcChartEx\ChartAddIn\ChartAnalysisToolAddIn\Symbol\MainSymbolImplementation.cpp
;	COMDAT ?GetSymbolTool@CMainSymbolImplementation@@AAEXXZ
_TEXT	SEGMENT
_nHashBucket$1 = -12					; size = 4
_nHashValue$2 = -8					; size = 4
_bInvalidate$1$ = -1					; size = 1
?GetSymbolTool@CMainSymbolImplementation@@AAEXXZ PROC	; CMainSymbolImplementation::GetSymbolTool, COMDAT
; _this$ = ecx

; 440  : {

  00000	55		 push	 ebp
  00001	8b ec		 mov	 ebp, esp
  00003	83 ec 0c	 sub	 esp, 12			; 0000000cH
  00006	53		 push	 ebx
  00007	56		 push	 esi
  00008	57		 push	 edi
  00009	8b f9		 mov	 edi, ecx

; 441  : 	bool bInvalidate = false;

  0000b	c6 45 ff 00	 mov	 BYTE PTR _bInvalidate$1$[ebp], 0

; 442  : 	if(m_pSymbolTool != NULL || m_pDrawingSymbol != NULL)

  0000f	83 7f 24 00	 cmp	 DWORD PTR [edi+36], 0
  00013	75 06		 jne	 SHORT $LN3@GetSymbolT
  00015	83 7f 20 00	 cmp	 DWORD PTR [edi+32], 0
  00019	74 04		 je	 SHORT $LN2@GetSymbolT
$LN3@GetSymbolT:

; 443  : 		bInvalidate = true;

  0001b	c6 45 ff 01	 mov	 BYTE PTR _bInvalidate$1$[ebp], 1
$LN2@GetSymbolT:

; 444  : 
; 445  : 	m_pSymbolTool = NULL;
; 446  : 	m_pDrawingSymbol = NULL;
; 447  : 	CSymbolBaseData::TOOLTYPE type = m_symboldata.GetSymbolType();

  0001f	8d 5f 28	 lea	 ebx, DWORD PTR [edi+40]
  00022	c7 47 24 00 00
	00 00		 mov	 DWORD PTR [edi+36], 0
  00029	8b cb		 mov	 ecx, ebx
  0002b	c7 47 20 00 00
	00 00		 mov	 DWORD PTR [edi+32], 0
  00032	e8 00 00 00 00	 call	 ?GetSymbolType@CSymbolData@@QBE?AW4TOOLTYPE@CSymbolBaseData@@XZ ; CSymbolData::GetSymbolType
  00037	8b f0		 mov	 esi, eax

; 448  : 
; 449  : 	//  Symbol  ..	
; 450  : 	if(IsExistBuletDlg() == TRUE)

  00039	e8 00 00 00 00	 call	 ?IsExistBuletDlg@CMainSymbolImplementation@@SAHXZ ; CMainSymbolImplementation::IsExistBuletDlg
  0003e	83 f8 01	 cmp	 eax, 1
  00041	75 39		 jne	 SHORT $LN4@GetSymbolT

; 451  : 	{
; 452  : 		if(type != CSymbolBaseData::SYMBOL_BULET)

  00043	83 fe 05	 cmp	 esi, 5
  00046	74 09		 je	 SHORT $LN6@GetSymbolT

; 453  : 			m_symboldata.SetSymbolType(CSymbolBaseData::SYMBOL_BULET);

  00048	6a 05		 push	 5
  0004a	8b cb		 mov	 ecx, ebx
  0004c	e8 00 00 00 00	 call	 ?SetSymbolType@CSymbolData@@QAEXW4TOOLTYPE@CSymbolBaseData@@@Z ; CSymbolData::SetSymbolType
$LN6@GetSymbolT:

; 454  : 
; 455  : 		int nIndex = g_mapSymbolType.GetCount();

  00051	a1 0c 00 00 00	 mov	 eax, DWORD PTR ?g_mapSymbolType@CMainSymbolImplementation@@1V?$CMap@HHW4TOOLTYPE@CSymbolBaseData@@W412@@@A+12

; 456  : 		CSymbolBaseData::TOOLTYPE typeBullet = CSymbolBaseData::SYMBOL_ARROW_LEFT;

  00056	be 07 00 00 00	 mov	 esi, 7

; 457  : 		if(nIndex > 0)

  0005b	85 c0		 test	 eax, eax
  0005d	7e 32		 jle	 SHORT $LN10@GetSymbolT
; File C:\Program Files (x86)\Microsoft Visual Studio\2019\Community\VC\Tools\MSVC\14.29.30133\atlmfc\include\afxtempl.h

; 1555 : 	CAssoc* pAssoc = GetAssocAt(key, nHashBucket, nHashValue);

  0005f	8d 4d f8	 lea	 ecx, DWORD PTR _nHashValue$2[ebp]
; File D:\git\src\IBK\IBK_DRFN\ProjSrc\SrcChartEx\ChartAddIn\ChartAnalysisToolAddIn\Symbol\MainSymbolImplementation.cpp

; 458  : 			g_mapSymbolType.Lookup(nIndex-1,typeBullet);

  00062	48		 dec	 eax
; File C:\Program Files (x86)\Microsoft Visual Studio\2019\Community\VC\Tools\MSVC\14.29.30133\atlmfc\include\afxtempl.h

; 1555 : 	CAssoc* pAssoc = GetAssocAt(key, nHashBucket, nHashValue);

  00063	51		 push	 ecx
  00064	8d 4d f4	 lea	 ecx, DWORD PTR _nHashBucket$1[ebp]
  00067	51		 push	 ecx
  00068	50		 push	 eax
  00069	b9 00 00 00 00	 mov	 ecx, OFFSET ?g_mapSymbolType@CMainSymbolImplementation@@1V?$CMap@HHW4TOOLTYPE@CSymbolBaseData@@W412@@@A ; CMainSymbolImplementation::g_mapSymbolType
  0006e	e8 00 00 00 00	 call	 ?GetAssocAt@?$CMap@HHW4TOOLTYPE@CSymbolBaseData@@W412@@@IBEPAVCAssoc@1@HAAI0@Z ; CMap<int,int,enum CSymbolBaseData::TOOLTYPE,enum CSymbolBaseData::TOOLTYPE>::GetAssocAt

; 1556 : 	if (pAssoc == NULL)

  00073	85 c0		 test	 eax, eax
  00075	74 1a		 je	 SHORT $LN10@GetSymbolT

; 1557 : 		return FALSE;  // not in map
; 1558 : 
; 1559 : 	rValue = pAssoc->value;

  00077	8b 70 04	 mov	 esi, DWORD PTR [eax+4]
; File D:\git\src\IBK\IBK_DRFN\ProjSrc\SrcChartEx\ChartAddIn\ChartAnalysisToolAddIn\Symbol\MainSymbolImplementation.cpp

; 461  : 	}

  0007a	eb 15		 jmp	 SHORT $LN10@GetSymbolT
$LN4@GetSymbolT:

; 462  : 	else if(type == CSymbolBaseData::SYMBOL_SELECTION)

  0007c	83 fe 06	 cmp	 esi, 6
  0007f	75 02		 jne	 SHORT $LN8@GetSymbolT

; 463  : 	{
; 464  : 		m_pSymbolTool = m_singleton.Find(&m_symboldata, CSymbolBaseData::SYMBOL_SELECTION);
; 465  : 	}

  00081	eb 0e		 jmp	 SHORT $LN10@GetSymbolT
$LN8@GetSymbolT:

; 466  : 	else 
; 467  : 	{
; 468  : 		if(type == CSymbolBaseData::SYMBOL_BULET)

  00083	83 fe 05	 cmp	 esi, 5
  00086	75 09		 jne	 SHORT $LN10@GetSymbolT

; 469  : 			m_pSymbolTool = m_singleton.Find(&m_symboldata,m_symboldata.GetBuletType());

  00088	8b cb		 mov	 ecx, ebx
  0008a	e8 00 00 00 00	 call	 ?GetBuletType@CSymbolData@@QBE?AW4TOOLTYPE@CSymbolBaseData@@XZ ; CSymbolData::GetBuletType
  0008f	8b f0		 mov	 esi, eax
$LN10@GetSymbolT:

; 470  : 		else
; 471  : 			m_pSymbolTool = m_singleton.Find(&m_symboldata, type);
; 472  : 	}
; 473  : 
; 474  : 	//sy 2005.04.06
; 475  : 	if(bInvalidate)

  00091	56		 push	 esi
  00092	53		 push	 ebx
  00093	8d 8f 28 01 00
	00		 lea	 ecx, DWORD PTR [edi+296]
  00099	e8 00 00 00 00	 call	 ?Find@CSymbolSingleton@@QAEPAVCSymbolTool@@PAVCSymbolData@@W4TOOLTYPE@CSymbolBaseData@@@Z ; CSymbolSingleton::Find
  0009e	80 7d ff 00	 cmp	 BYTE PTR _bInvalidate$1$[ebp], 0
  000a2	89 47 24	 mov	 DWORD PTR [edi+36], eax
  000a5	74 07		 je	 SHORT $LN12@GetSymbolT

; 476  : 		m_symboldata.Invalidate();

  000a7	8b cb		 mov	 ecx, ebx
  000a9	e8 00 00 00 00	 call	 ?Invalidate@CSymbolData@@QAEXXZ ; CSymbolData::Invalidate
$LN12@GetSymbolT:

; 477  : }

  000ae	5f		 pop	 edi
  000af	5e		 pop	 esi
  000b0	5b		 pop	 ebx
  000b1	8b e5		 mov	 esp, ebp
  000b3	5d		 pop	 ebp
  000b4	c3		 ret	 0
?GetSymbolTool@CMainSymbolImplementation@@AAEXXZ ENDP	; CMainSymbolImplementation::GetSymbolTool
_TEXT	ENDS
; Function compile flags: /Ogtp
; File D:\git\src\IBK\IBK_DRFN\ProjSrc\SrcChartEx\ChartAddIn\ChartAnalysisToolAddIn\Symbol\MainSymbolImplementation.cpp
;	COMDAT ?IsMyMouse@CMainSymbolImplementation@@AAE_NXZ
_TEXT	SEGMENT
?IsMyMouse@CMainSymbolImplementation@@AAE_NXZ PROC	; CMainSymbolImplementation::IsMyMouse, COMDAT
; _this$ = ecx

; 549  : {

  00000	56		 push	 esi
  00001	8b f1		 mov	 esi, ecx
  00003	57		 push	 edi

; 550  : 	if(m_symboldata.GetSymbolType() == CSymbolBaseData::SYMBOL_SELECTION && m_pDrawingSymbol != NULL) 

  00004	8d 4e 28	 lea	 ecx, DWORD PTR [esi+40]
  00007	e8 00 00 00 00	 call	 ?GetSymbolType@CSymbolData@@QBE?AW4TOOLTYPE@CSymbolBaseData@@XZ ; CSymbolData::GetSymbolType
  0000c	83 f8 06	 cmp	 eax, 6
  0000f	75 06		 jne	 SHORT $LN7@IsMyMouse
  00011	83 7e 20 00	 cmp	 DWORD PTR [esi+32], 0
  00015	75 18		 jne	 SHORT $LN4@IsMyMouse
$LN7@IsMyMouse:

; 551  : 		return true;
; 552  : 	else if(m_symboldata.GetSymbolType() == CSymbolBaseData::SYMBOL_SELECTION && m_pDrawingSymbol == NULL) 

  00017	8d 4e 28	 lea	 ecx, DWORD PTR [esi+40]
  0001a	e8 00 00 00 00	 call	 ?GetSymbolType@CSymbolData@@QBE?AW4TOOLTYPE@CSymbolBaseData@@XZ ; CSymbolData::GetSymbolType
  0001f	83 f8 06	 cmp	 eax, 6
  00022	75 0b		 jne	 SHORT $LN4@IsMyMouse
  00024	83 7e 20 00	 cmp	 DWORD PTR [esi+32], 0
  00028	75 05		 jne	 SHORT $LN4@IsMyMouse

; 553  : 		return false;

  0002a	5f		 pop	 edi
  0002b	32 c0		 xor	 al, al

; 556  : }

  0002d	5e		 pop	 esi
  0002e	c3		 ret	 0
$LN4@IsMyMouse:
  0002f	5f		 pop	 edi

; 554  : 	//   tool NUll ..True 
; 555  : 	return true;

  00030	b0 01		 mov	 al, 1

; 556  : }

  00032	5e		 pop	 esi
  00033	c3		 ret	 0
?IsMyMouse@CMainSymbolImplementation@@AAE_NXZ ENDP	; CMainSymbolImplementation::IsMyMouse
_TEXT	ENDS
; Function compile flags: /Ogtp
; File D:\git\src\IBK\IBK_DRFN\ProjSrc\SrcChartEx\ChartAddIn\ChartAnalysisToolAddIn\Symbol\MainSymbolImplementation.cpp
;	COMDAT ?SetSymbolType@CMainSymbolImplementation@@SAXW4TOOLTYPE@CSymbolBaseData@@@Z
_TEXT	SEGMENT
_bulettype$ = 8						; size = 4
?SetSymbolType@CMainSymbolImplementation@@SAXW4TOOLTYPE@CSymbolBaseData@@@Z PROC ; CMainSymbolImplementation::SetSymbolType, COMDAT

; 92   : {

  00000	55		 push	 ebp
  00001	8b ec		 mov	 ebp, esp

; 93   : 	g_mapSymbolType.SetAt(0,bulettype);

  00003	ff 75 08	 push	 DWORD PTR _bulettype$[ebp]
  00006	b9 00 00 00 00	 mov	 ecx, OFFSET ?g_mapSymbolType@CMainSymbolImplementation@@1V?$CMap@HHW4TOOLTYPE@CSymbolBaseData@@W412@@@A ; CMainSymbolImplementation::g_mapSymbolType
  0000b	6a 00		 push	 0
  0000d	e8 00 00 00 00	 call	 ?SetAt@?$CMap@HHW4TOOLTYPE@CSymbolBaseData@@W412@@@QAEXHW4TOOLTYPE@CSymbolBaseData@@@Z ; CMap<int,int,enum CSymbolBaseData::TOOLTYPE,enum CSymbolBaseData::TOOLTYPE>::SetAt

; 94   : }

  00012	5d		 pop	 ebp
  00013	c3		 ret	 0
?SetSymbolType@CMainSymbolImplementation@@SAXW4TOOLTYPE@CSymbolBaseData@@@Z ENDP ; CMainSymbolImplementation::SetSymbolType
_TEXT	ENDS
; Function compile flags: /Ogtp
; File D:\git\src\IBK\IBK_DRFN\ProjSrc\SrcChartEx\ChartAddIn\ChartAnalysisToolAddIn\Symbol\MainSymbolImplementation.cpp
; File C:\Program Files (x86)\Microsoft Visual Studio\2019\Community\VC\Tools\MSVC\14.29.30133\atlmfc\include\afxtempl.h
; File D:\git\src\IBK\IBK_DRFN\ProjSrc\SrcChartEx\ChartAddIn\ChartAnalysisToolAddIn\Symbol\MainSymbolImplementation.cpp
; File C:\Program Files (x86)\Microsoft Visual Studio\2019\Community\VC\Tools\MSVC\14.29.30133\atlmfc\include\afxtempl.h
; File D:\git\src\IBK\IBK_DRFN\ProjSrc\SrcChartEx\ChartAddIn\ChartAnalysisToolAddIn\Symbol\MainSymbolImplementation.cpp
;	COMDAT ?IsExistBuletDlg@CMainSymbolImplementation@@SAHXZ
_TEXT	SEGMENT
?IsExistBuletDlg@CMainSymbolImplementation@@SAHXZ PROC	; CMainSymbolImplementation::IsExistBuletDlg, COMDAT

; 70   : 	int nIndex = 0;
; 71   : 	CSymbolDlg* pSymbolDlg = NULL;
; 72   : 
; 73   : 	BOOL bExistSymbolDlg = FALSE;

  00000	33 c0		 xor	 eax, eax

; 74   : 	if(g_mapSymbolDlg.GetCount() > 0)

  00002	39 05 0c 00 00
	00		 cmp	 DWORD PTR ?g_mapSymbolDlg@CMainSymbolImplementation@@1V?$CMap@HHPAVCSymbolDlg@@PAV1@@@A+12, eax
  00008	7e 67		 jle	 SHORT $LN33@IsExistBul

; 75   : 	{
; 76   : 		POSITION pos = g_mapSymbolDlg.GetStartPosition();

  0000a	53		 push	 ebx
  0000b	8b 1d 04 00 00
	00		 mov	 ebx, DWORD PTR ?g_mapSymbolDlg@CMainSymbolImplementation@@1V?$CMap@HHPAVCSymbolDlg@@PAV1@@@A+4
  00011	83 c9 ff	 or	 ecx, -1
  00014	57		 push	 edi
  00015	8b 3d 08 00 00
	00		 mov	 edi, DWORD PTR ?g_mapSymbolDlg@CMainSymbolImplementation@@1V?$CMap@HHPAVCSymbolDlg@@PAV1@@@A+8
  0001b	56		 push	 esi
  0001c	0f 1f 40 00	 npad	 4
$LL2@IsExistBul:
; File C:\Program Files (x86)\Microsoft Visual Studio\2019\Community\VC\Tools\MSVC\14.29.30133\atlmfc\include\afxtempl.h

; 1642 : 	ENSURE(m_pHashTable != NULL);  // never call on empty map

  00020	85 db		 test	 ebx, ebx
  00022	74 57		 je	 SHORT $LN41@IsExistBul

; 1643 : 
; 1644 : 	CAssoc* pAssocRet = (CAssoc*)rNextPosition;

  00024	8b f1		 mov	 esi, ecx

; 1645 : 	ENSURE(pAssocRet != NULL);

  00026	85 c9		 test	 ecx, ecx
  00028	74 51		 je	 SHORT $LN41@IsExistBul

; 1646 : 
; 1647 : 	if (pAssocRet == (CAssoc*) BEFORE_START_POSITION)

  0002a	83 f9 ff	 cmp	 ecx, -1
  0002d	75 14		 jne	 SHORT $LN20@IsExistBul

; 1648 : 	{
; 1649 : 		// find the first association
; 1650 : 		for (UINT nBucket = 0; nBucket < m_nHashTableSize; nBucket++)

  0002f	33 c0		 xor	 eax, eax
  00031	85 ff		 test	 edi, edi
  00033	74 0e		 je	 SHORT $LN20@IsExistBul
$LL18@IsExistBul:

; 1651 : 		{
; 1652 : 			if ((pAssocRet = m_pHashTable[nBucket]) != NULL)

  00035	8b 34 83	 mov	 esi, DWORD PTR [ebx+eax*4]
  00038	85 f6		 test	 esi, esi
  0003a	75 07		 jne	 SHORT $LN20@IsExistBul

; 1648 : 	{
; 1649 : 		// find the first association
; 1650 : 		for (UINT nBucket = 0; nBucket < m_nHashTableSize; nBucket++)

  0003c	40		 inc	 eax
  0003d	3b c7		 cmp	 eax, edi
  0003f	73 3a		 jae	 SHORT $LN41@IsExistBul
  00041	eb f2		 jmp	 SHORT $LL18@IsExistBul
$LN20@IsExistBul:

; 1658 : 	}
; 1659 : 
; 1660 : 	// find next association
; 1661 : 	ASSERT(AfxIsValidAddress(pAssocRet, sizeof(CAssoc)));
; 1662 : 	CAssoc* pAssocNext;
; 1663 : 	if ((pAssocNext = pAssocRet->pNext) == NULL)

  00043	8b 4e 08	 mov	 ecx, DWORD PTR [esi+8]
  00046	85 c9		 test	 ecx, ecx
  00048	75 18		 jne	 SHORT $LN53@IsExistBul

; 1664 : 	{
; 1665 : 		// go to next bucket
; 1666 : 		for (UINT nBucket = (pAssocRet->nHashValue % m_nHashTableSize) + 1;

  0004a	8b 46 0c	 mov	 eax, DWORD PTR [esi+12]
  0004d	33 d2		 xor	 edx, edx
  0004f	f7 f7		 div	 edi
  00051	42		 inc	 edx

; 1667 : 		  nBucket < m_nHashTableSize; nBucket++)

  00052	3b d7		 cmp	 edx, edi
  00054	73 0c		 jae	 SHORT $LN53@IsExistBul
$LL24@IsExistBul:

; 1668 : 			if ((pAssocNext = m_pHashTable[nBucket]) != NULL)

  00056	8b 0c 93	 mov	 ecx, DWORD PTR [ebx+edx*4]
  00059	85 c9		 test	 ecx, ecx
  0005b	75 05		 jne	 SHORT $LN53@IsExistBul

; 1667 : 		  nBucket < m_nHashTableSize; nBucket++)

  0005d	42		 inc	 edx
  0005e	3b d7		 cmp	 edx, edi
  00060	72 f4		 jb	 SHORT $LL24@IsExistBul
$LN53@IsExistBul:
; File D:\git\src\IBK\IBK_DRFN\ProjSrc\SrcChartEx\ChartAddIn\ChartAnalysisToolAddIn\Symbol\MainSymbolImplementation.cpp

; 80   : 			if(pSymbolDlg != NULL) 

  00062	83 7e 04 00	 cmp	 DWORD PTR [esi+4], 0
  00066	75 0a		 jne	 SHORT $LN42@IsExistBul

; 77   : 		while(pos)

  00068	85 c9		 test	 ecx, ecx
  0006a	75 b4		 jne	 SHORT $LL2@IsExistBul
  0006c	5e		 pop	 esi
  0006d	5f		 pop	 edi
  0006e	33 c0		 xor	 eax, eax
  00070	5b		 pop	 ebx
$LN33@IsExistBul:

; 89   : }

  00071	c3		 ret	 0
$LN42@IsExistBul:
  00072	5e		 pop	 esi
  00073	5f		 pop	 edi

; 81   : 			{
; 82   : 				bExistSymbolDlg = TRUE;

  00074	b8 01 00 00 00	 mov	 eax, 1
  00079	5b		 pop	 ebx

; 89   : }

  0007a	c3		 ret	 0
$LN41@IsExistBul:
; File C:\Program Files (x86)\Microsoft Visual Studio\2019\Community\VC\Tools\MSVC\14.29.30133\atlmfc\include\afxtempl.h

; 1657 : 		ENSURE(pAssocRet != NULL);  // must find something

  0007b	e8 00 00 00 00	 call	 ?AfxThrowInvalidArgException@@YGXXZ ; AfxThrowInvalidArgException
$LN58@IsExistBul:
  00080	cc		 int	 3
?IsExistBuletDlg@CMainSymbolImplementation@@SAHXZ ENDP	; CMainSymbolImplementation::IsExistBuletDlg
_TEXT	ENDS
; Function compile flags: /Ogtp
; File D:\git\src\IBK\IBK_DRFN\ProjSrc\SrcChartEx\ChartAddIn\ChartAnalysisToolAddIn\Symbol\MainSymbolImplementation.cpp
; File C:\Program Files (x86)\Microsoft Visual Studio\2019\Community\VC\Tools\MSVC\14.29.30133\atlmfc\include\afxtempl.h
; File D:\git\src\IBK\IBK_DRFN\ProjSrc\SrcChartEx\ChartAddIn\ChartAnalysisToolAddIn\Symbol\MainSymbolImplementation.cpp
;	COMDAT ?DestSymbolDlg@CMainSymbolImplementation@@SAXXZ
_TEXT	SEGMENT
_nIndex$ = -12						; size = 4
_pos$1 = -8						; size = 4
_pSymbolDlg$ = -4					; size = 4
?DestSymbolDlg@CMainSymbolImplementation@@SAXXZ PROC	; CMainSymbolImplementation::DestSymbolDlg, COMDAT

; 45   : {

  00000	55		 push	 ebp
  00001	8b ec		 mov	 ebp, esp
  00003	83 ec 0c	 sub	 esp, 12			; 0000000cH

; 46   : 	int nIndex = 0;
; 47   : 	CSymbolDlg* pSymbolDlg = NULL;
; 48   : 
; 49   : 	if(g_mapSymbolDlg.GetCount() > 0)

  00006	83 3d 0c 00 00
	00 00		 cmp	 DWORD PTR ?g_mapSymbolDlg@CMainSymbolImplementation@@1V?$CMap@HHPAVCSymbolDlg@@PAV1@@@A+12, 0
  0000d	c7 45 fc 00 00
	00 00		 mov	 DWORD PTR _pSymbolDlg$[ebp], 0
  00014	0f 8e 88 00 00
	00		 jle	 $LN4@DestSymbol

; 50   : 	{
; 51   : 		POSITION pos = g_mapSymbolDlg.GetStartPosition();

  0001a	c7 45 f8 ff ff
	ff ff		 mov	 DWORD PTR _pos$1[ebp], -1
  00021	56		 push	 esi
$LL2@DestSymbol:

; 52   : 		while(pos)
; 53   : 		{
; 54   : 			g_mapSymbolDlg.GetNextAssoc(pos, nIndex, pSymbolDlg);

  00022	8d 45 fc	 lea	 eax, DWORD PTR _pSymbolDlg$[ebp]
  00025	b9 00 00 00 00	 mov	 ecx, OFFSET ?g_mapSymbolDlg@CMainSymbolImplementation@@1V?$CMap@HHPAVCSymbolDlg@@PAV1@@@A ; CMainSymbolImplementation::g_mapSymbolDlg
  0002a	50		 push	 eax
  0002b	8d 45 f4	 lea	 eax, DWORD PTR _nIndex$[ebp]
  0002e	50		 push	 eax
  0002f	8d 45 f8	 lea	 eax, DWORD PTR _pos$1[ebp]
  00032	50		 push	 eax
  00033	e8 00 00 00 00	 call	 ?GetNextAssoc@?$CMap@HHPAVCSymbolDlg@@PAV1@@@QBEXAAPAU__POSITION@@AAHAAPAVCSymbolDlg@@@Z ; CMap<int,int,CSymbolDlg *,CSymbolDlg *>::GetNextAssoc

; 55   : 			
; 56   : 			if(pSymbolDlg != NULL) {

  00038	8b 75 fc	 mov	 esi, DWORD PTR _pSymbolDlg$[ebp]
  0003b	85 f6		 test	 esi, esi
  0003d	74 10		 je	 SHORT $LN7@DestSymbol

; 57   : 				pSymbolDlg->DestroyWindow();

  0003f	8b 06		 mov	 eax, DWORD PTR [esi]
  00041	8b ce		 mov	 ecx, esi
  00043	ff 50 68	 call	 DWORD PTR [eax+104]

; 58   : 				delete pSymbolDlg;				

  00046	8b 06		 mov	 eax, DWORD PTR [esi]
  00048	8b ce		 mov	 ecx, esi
  0004a	6a 01		 push	 1
  0004c	ff 50 04	 call	 DWORD PTR [eax+4]
$LN7@DestSymbol:

; 59   : 			}
; 60   : 			pSymbolDlg = NULL;		

  0004f	83 7d f8 00	 cmp	 DWORD PTR _pos$1[ebp], 0
  00053	c7 45 fc 00 00
	00 00		 mov	 DWORD PTR _pSymbolDlg$[ebp], 0
  0005a	75 c6		 jne	 SHORT $LL2@DestSymbol
; File C:\Program Files (x86)\Microsoft Visual Studio\2019\Community\VC\Tools\MSVC\14.29.30133\atlmfc\include\afxtempl.h

; 1446 : 	if (m_pHashTable != NULL)

  0005c	a1 04 00 00 00	 mov	 eax, DWORD PTR ?g_mapSymbolDlg@CMainSymbolImplementation@@1V?$CMap@HHPAVCSymbolDlg@@PAV1@@@A+4
  00061	5e		 pop	 esi
  00062	85 c0		 test	 eax, eax
  00064	74 13		 je	 SHORT $LN18@DestSymbol

; 1447 : 	{
; 1448 : 		// destroy elements (values and keys)
; 1449 : 		for (UINT nHash = 0; nHash < m_nHashTableSize; nHash++)
; 1450 : 		{
; 1451 : 			CAssoc* pAssoc;
; 1452 : 			for (pAssoc = m_pHashTable[nHash]; pAssoc != NULL;
; 1453 : 			  pAssoc = pAssoc->pNext)
; 1454 : 			{
; 1455 : 				pAssoc->CAssoc::~CAssoc();
; 1456 : 			}
; 1457 : 		}
; 1458 : 
; 1459 : 		// free hash table
; 1460 : 		delete[] m_pHashTable;

  00066	50		 push	 eax
  00067	e8 00 00 00 00	 call	 ??_V@YAXPAX@Z		; operator delete[]
  0006c	83 c4 04	 add	 esp, 4

; 1461 : 		m_pHashTable = NULL;

  0006f	c7 05 04 00 00
	00 00 00 00 00	 mov	 DWORD PTR ?g_mapSymbolDlg@CMainSymbolImplementation@@1V?$CMap@HHPAVCSymbolDlg@@PAV1@@@A+4, 0
$LN18@DestSymbol:

; 1462 : 	}
; 1463 : 
; 1464 : 	m_nCount = 0;
; 1465 : 	m_pFreeList = NULL;
; 1466 : 	m_pBlocks->FreeDataChain();

  00079	8b 0d 14 00 00
	00		 mov	 ecx, DWORD PTR ?g_mapSymbolDlg@CMainSymbolImplementation@@1V?$CMap@HHPAVCSymbolDlg@@PAV1@@@A+20
  0007f	c7 05 0c 00 00
	00 00 00 00 00	 mov	 DWORD PTR ?g_mapSymbolDlg@CMainSymbolImplementation@@1V?$CMap@HHPAVCSymbolDlg@@PAV1@@@A+12, 0
  00089	c7 05 10 00 00
	00 00 00 00 00	 mov	 DWORD PTR ?g_mapSymbolDlg@CMainSymbolImplementation@@1V?$CMap@HHPAVCSymbolDlg@@PAV1@@@A+16, 0
  00093	e8 00 00 00 00	 call	 ?FreeDataChain@CPlex@@QAEXXZ ; CPlex::FreeDataChain

; 1467 : 	m_pBlocks = NULL;

  00098	c7 05 14 00 00
	00 00 00 00 00	 mov	 DWORD PTR ?g_mapSymbolDlg@CMainSymbolImplementation@@1V?$CMap@HHPAVCSymbolDlg@@PAV1@@@A+20, 0
$LN4@DestSymbol:

; 1446 : 	if (m_pHashTable != NULL)

  000a2	a1 04 00 00 00	 mov	 eax, DWORD PTR ?g_mapSymbolType@CMainSymbolImplementation@@1V?$CMap@HHW4TOOLTYPE@CSymbolBaseData@@W412@@@A+4
  000a7	85 c0		 test	 eax, eax
  000a9	74 13		 je	 SHORT $LN27@DestSymbol

; 1447 : 	{
; 1448 : 		// destroy elements (values and keys)
; 1449 : 		for (UINT nHash = 0; nHash < m_nHashTableSize; nHash++)
; 1450 : 		{
; 1451 : 			CAssoc* pAssoc;
; 1452 : 			for (pAssoc = m_pHashTable[nHash]; pAssoc != NULL;
; 1453 : 			  pAssoc = pAssoc->pNext)
; 1454 : 			{
; 1455 : 				pAssoc->CAssoc::~CAssoc();
; 1456 : 			}
; 1457 : 		}
; 1458 : 
; 1459 : 		// free hash table
; 1460 : 		delete[] m_pHashTable;

  000ab	50		 push	 eax
  000ac	e8 00 00 00 00	 call	 ??_V@YAXPAX@Z		; operator delete[]
  000b1	83 c4 04	 add	 esp, 4

; 1461 : 		m_pHashTable = NULL;

  000b4	c7 05 04 00 00
	00 00 00 00 00	 mov	 DWORD PTR ?g_mapSymbolType@CMainSymbolImplementation@@1V?$CMap@HHW4TOOLTYPE@CSymbolBaseData@@W412@@@A+4, 0
$LN27@DestSymbol:

; 1462 : 	}
; 1463 : 
; 1464 : 	m_nCount = 0;
; 1465 : 	m_pFreeList = NULL;
; 1466 : 	m_pBlocks->FreeDataChain();

  000be	8b 0d 14 00 00
	00		 mov	 ecx, DWORD PTR ?g_mapSymbolType@CMainSymbolImplementation@@1V?$CMap@HHW4TOOLTYPE@CSymbolBaseData@@W412@@@A+20
  000c4	c7 05 0c 00 00
	00 00 00 00 00	 mov	 DWORD PTR ?g_mapSymbolType@CMainSymbolImplementation@@1V?$CMap@HHW4TOOLTYPE@CSymbolBaseData@@W412@@@A+12, 0
  000ce	c7 05 10 00 00
	00 00 00 00 00	 mov	 DWORD PTR ?g_mapSymbolType@CMainSymbolImplementation@@1V?$CMap@HHW4TOOLTYPE@CSymbolBaseData@@W412@@@A+16, 0
  000d8	e8 00 00 00 00	 call	 ?FreeDataChain@CPlex@@QAEXXZ ; CPlex::FreeDataChain

; 1467 : 	m_pBlocks = NULL;

  000dd	c7 05 14 00 00
	00 00 00 00 00	 mov	 DWORD PTR ?g_mapSymbolType@CMainSymbolImplementation@@1V?$CMap@HHW4TOOLTYPE@CSymbolBaseData@@W412@@@A+20, 0
; File D:\git\src\IBK\IBK_DRFN\ProjSrc\SrcChartEx\ChartAddIn\ChartAnalysisToolAddIn\Symbol\MainSymbolImplementation.cpp

; 66   : }

  000e7	8b e5		 mov	 esp, ebp
  000e9	5d		 pop	 ebp
  000ea	c3		 ret	 0
?DestSymbolDlg@CMainSymbolImplementation@@SAXXZ ENDP	; CMainSymbolImplementation::DestSymbolDlg
_TEXT	ENDS
; Function compile flags: /Ogtp
; File D:\git\src\IBK\IBK_DRFN\ProjSrc\SrcChartEx\ChartAddIn\ChartAnalysisToolAddIn\Symbol\MainSymbolImplementation.cpp
; File C:\Program Files (x86)\Microsoft Visual Studio\2019\Community\VC\Tools\MSVC\14.29.30133\atlmfc\include\afxtempl.h
; File D:\git\src\IBK\IBK_DRFN\ProjSrc\SrcChartEx\ChartAddIn\ChartAnalysisToolAddIn\Symbol\MainSymbolImplementation.cpp
; File C:\Program Files (x86)\Microsoft Visual Studio\2019\Community\VC\Tools\MSVC\14.29.30133\atlmfc\include\afxtempl.h
; File D:\git\src\IBK\IBK_DRFN\ProjSrc\SrcChartEx\ChartAddIn\ChartAnalysisToolAddIn\Symbol\MainSymbolImplementation.cpp
;	COMDAT ?InitSymbolDlg@CMainSymbolImplementation@@SAXXZ
_TEXT	SEGMENT
?InitSymbolDlg@CMainSymbolImplementation@@SAXXZ PROC	; CMainSymbolImplementation::InitSymbolDlg, COMDAT
; File C:\Program Files (x86)\Microsoft Visual Studio\2019\Community\VC\Tools\MSVC\14.29.30133\atlmfc\include\afxtempl.h

; 1425 : 	if (m_pHashTable != NULL)

  00000	a1 04 00 00 00	 mov	 eax, DWORD PTR ?g_mapSymbolDlg@CMainSymbolImplementation@@1V?$CMap@HHPAVCSymbolDlg@@PAV1@@@A+4
  00005	85 c0		 test	 eax, eax
  00007	74 13		 je	 SHORT $LN7@InitSymbol

; 1426 : 	{
; 1427 : 		// free hash table
; 1428 : 		delete[] m_pHashTable;

  00009	50		 push	 eax
  0000a	e8 00 00 00 00	 call	 ??_V@YAXPAX@Z		; operator delete[]
  0000f	83 c4 04	 add	 esp, 4

; 1429 : 		m_pHashTable = NULL;

  00012	c7 05 04 00 00
	00 00 00 00 00	 mov	 DWORD PTR ?g_mapSymbolDlg@CMainSymbolImplementation@@1V?$CMap@HHPAVCSymbolDlg@@PAV1@@@A+4, 0
$LN7@InitSymbol:

; 1430 : 	}
; 1431 : 
; 1432 : 	if (bAllocNow)
; 1433 : 	{
; 1434 : 		m_pHashTable = new CAssoc* [nHashSize];

  0001c	6a 04		 push	 4
  0001e	e8 00 00 00 00	 call	 ??_U@YAPAXI@Z		; operator new[]
  00023	83 c4 04	 add	 esp, 4
  00026	a3 04 00 00 00	 mov	 DWORD PTR ?g_mapSymbolDlg@CMainSymbolImplementation@@1V?$CMap@HHPAVCSymbolDlg@@PAV1@@@A+4, eax

; 1435 : 		ENSURE(m_pHashTable != NULL);

  0002b	85 c0		 test	 eax, eax
  0002d	74 50		 je	 SHORT $LN20@InitSymbol

; 1436 : 		memset(m_pHashTable, 0, sizeof(CAssoc*) * nHashSize);

  0002f	c7 00 00 00 00
	00		 mov	 DWORD PTR [eax], 0

; 1425 : 	if (m_pHashTable != NULL)

  00035	a1 04 00 00 00	 mov	 eax, DWORD PTR ?g_mapSymbolType@CMainSymbolImplementation@@1V?$CMap@HHW4TOOLTYPE@CSymbolBaseData@@W412@@@A+4

; 1438 : 	m_nHashTableSize = nHashSize;

  0003a	c7 05 08 00 00
	00 01 00 00 00	 mov	 DWORD PTR ?g_mapSymbolDlg@CMainSymbolImplementation@@1V?$CMap@HHPAVCSymbolDlg@@PAV1@@@A+8, 1

; 1425 : 	if (m_pHashTable != NULL)

  00044	85 c0		 test	 eax, eax
  00046	74 13		 je	 SHORT $LN16@InitSymbol

; 1426 : 	{
; 1427 : 		// free hash table
; 1428 : 		delete[] m_pHashTable;

  00048	50		 push	 eax
  00049	e8 00 00 00 00	 call	 ??_V@YAXPAX@Z		; operator delete[]
  0004e	83 c4 04	 add	 esp, 4

; 1429 : 		m_pHashTable = NULL;

  00051	c7 05 04 00 00
	00 00 00 00 00	 mov	 DWORD PTR ?g_mapSymbolType@CMainSymbolImplementation@@1V?$CMap@HHW4TOOLTYPE@CSymbolBaseData@@W412@@@A+4, 0
$LN16@InitSymbol:

; 1430 : 	}
; 1431 : 
; 1432 : 	if (bAllocNow)
; 1433 : 	{
; 1434 : 		m_pHashTable = new CAssoc* [nHashSize];

  0005b	6a 04		 push	 4
  0005d	e8 00 00 00 00	 call	 ??_U@YAPAXI@Z		; operator new[]
  00062	83 c4 04	 add	 esp, 4
  00065	a3 04 00 00 00	 mov	 DWORD PTR ?g_mapSymbolType@CMainSymbolImplementation@@1V?$CMap@HHW4TOOLTYPE@CSymbolBaseData@@W412@@@A+4, eax

; 1435 : 		ENSURE(m_pHashTable != NULL);

  0006a	85 c0		 test	 eax, eax
  0006c	74 11		 je	 SHORT $LN20@InitSymbol

; 1436 : 		memset(m_pHashTable, 0, sizeof(CAssoc*) * nHashSize);

  0006e	c7 00 00 00 00
	00		 mov	 DWORD PTR [eax], 0

; 1437 : 	}
; 1438 : 	m_nHashTableSize = nHashSize;

  00074	c7 05 08 00 00
	00 01 00 00 00	 mov	 DWORD PTR ?g_mapSymbolType@CMainSymbolImplementation@@1V?$CMap@HHW4TOOLTYPE@CSymbolBaseData@@W412@@@A+8, 1
; File D:\git\src\IBK\IBK_DRFN\ProjSrc\SrcChartEx\ChartAddIn\ChartAnalysisToolAddIn\Symbol\MainSymbolImplementation.cpp

; 42   : }

  0007e	c3		 ret	 0
$LN20@InitSymbol:
; File C:\Program Files (x86)\Microsoft Visual Studio\2019\Community\VC\Tools\MSVC\14.29.30133\atlmfc\include\afxtempl.h

; 1435 : 		ENSURE(m_pHashTable != NULL);

  0007f	e9 00 00 00 00	 jmp	 ?AfxThrowInvalidArgException@@YGXXZ ; AfxThrowInvalidArgException
?InitSymbolDlg@CMainSymbolImplementation@@SAXXZ ENDP	; CMainSymbolImplementation::InitSymbolDlg
_TEXT	ENDS
; Function compile flags: /Ogtp
; File D:\git\src\IBK\IBK_DRFN\ProjSrc\SrcChartEx\ChartAddIn\ChartAnalysisToolAddIn\Symbol\MainSymbolImplementation.cpp
;	COMDAT ?GetXScaleDrawType@CMainSymbolImplementation@@QAE?AW4HORZSCALEDRAWERTYPE@CScaleBaseData@@XZ
_TEXT	SEGMENT
?GetXScaleDrawType@CMainSymbolImplementation@@QAE?AW4HORZSCALEDRAWERTYPE@CScaleBaseData@@XZ PROC ; CMainSymbolImplementation::GetXScaleDrawType, COMDAT
; _this$ = ecx

; 809  : 	return m_eScaleType;

  00000	8b 41 04	 mov	 eax, DWORD PTR [ecx+4]

; 810  : }

  00003	c3		 ret	 0
?GetXScaleDrawType@CMainSymbolImplementation@@QAE?AW4HORZSCALEDRAWERTYPE@CScaleBaseData@@XZ ENDP ; CMainSymbolImplementation::GetXScaleDrawType
_TEXT	ENDS
; Function compile flags: /Ogtp
; File D:\git\src\IBK\IBK_DRFN\ProjSrc\SrcChartEx\ChartAddIn\ChartAnalysisToolAddIn\Symbol\MainSymbolImplementation.cpp
;	COMDAT ?SetXScaleDrawType@CMainSymbolImplementation@@QAEXW4HORZSCALEDRAWERTYPE@CScaleBaseData@@@Z
_TEXT	SEGMENT
_eScaleType$ = 8					; size = 4
?SetXScaleDrawType@CMainSymbolImplementation@@QAEXW4HORZSCALEDRAWERTYPE@CScaleBaseData@@@Z PROC ; CMainSymbolImplementation::SetXScaleDrawType, COMDAT
; _this$ = ecx

; 802  : {

  00000	55		 push	 ebp
  00001	8b ec		 mov	 ebp, esp

; 803  : 	m_eScaleType = eScaleType;

  00003	8b 45 08	 mov	 eax, DWORD PTR _eScaleType$[ebp]
  00006	89 41 04	 mov	 DWORD PTR [ecx+4], eax

; 804  : 	m_symboldata.SetXScaleDrawType(eScaleType);

  00009	89 45 08	 mov	 DWORD PTR _eScaleType$[ebp], eax
  0000c	83 c1 28	 add	 ecx, 40			; 00000028H

; 805  : }

  0000f	5d		 pop	 ebp

; 804  : 	m_symboldata.SetXScaleDrawType(eScaleType);

  00010	e9 00 00 00 00	 jmp	 ?SetXScaleDrawType@CSymbolData@@QAEXW4HORZSCALEDRAWERTYPE@CScaleBaseData@@@Z ; CSymbolData::SetXScaleDrawType
?SetXScaleDrawType@CMainSymbolImplementation@@QAEXW4HORZSCALEDRAWERTYPE@CScaleBaseData@@@Z ENDP ; CMainSymbolImplementation::SetXScaleDrawType
_TEXT	ENDS
; Function compile flags: /Ogtp
; File D:\git\src\IBK\IBK_DRFN\ProjSrc\SrcChartEx\ChartAddIn\ChartAnalysisToolAddIn\Symbol\MainSymbolImplementation.cpp
; File C:\Program Files (x86)\Microsoft Visual Studio\2019\Community\VC\Tools\MSVC\14.29.30133\atlmfc\include\afxtempl.h
; File D:\git\src\IBK\IBK_DRFN\ProjSrc\SrcChartEx\ChartAddIn\ChartAnalysisToolAddIn\Include_Chart\BlockBaseData.h
; File D:\git\src\IBK\IBK_DRFN\ProjSrc\SrcChartEx\ChartAddIn\ChartAnalysisToolAddIn\Symbol\MainSymbolImplementation.cpp
; File D:\git\src\IBK\IBK_DRFN\ProjSrc\SrcChartEx\ChartAddIn\ChartAnalysisToolAddIn\Include_Chart\BlockBaseData.h
; File D:\git\src\IBK\IBK_DRFN\ProjSrc\SrcChartEx\ChartAddIn\ChartAnalysisToolAddIn\Symbol\MainSymbolImplementation.cpp
; File D:\git\src\IBK\IBK_DRFN\ProjSrc\SrcChartEx\ChartAddIn\ChartAnalysisToolAddIn\Include_AddIn_133101\I133101\_IString.h
; File D:\git\src\IBK\IBK_DRFN\ProjSrc\SrcChartEx\ChartAddIn\ChartAnalysisToolAddIn\Symbol\MainSymbolImplementation.cpp
; File C:\Program Files (x86)\Microsoft Visual Studio\2019\Community\VC\Tools\MSVC\14.29.30133\atlmfc\include\afxtempl.h
; File D:\git\src\IBK\IBK_DRFN\ProjSrc\SrcChartEx\ChartAddIn\ChartAnalysisToolAddIn\Symbol\MainSymbolImplementation.cpp
; File D:\git\src\IBK\IBK_DRFN\ProjSrc\SrcChartEx\ChartAddIn\ChartAnalysisToolAddIn\Include_AddIn_133101\I133101\_IString.h
; File C:\Program Files (x86)\Microsoft Visual Studio\2019\Community\VC\Tools\MSVC\14.29.30133\atlmfc\include\afxtempl.h
; File D:\git\src\IBK\IBK_DRFN\ProjSrc\SrcChartEx\ChartAddIn\ChartAnalysisToolAddIn\Symbol\MainSymbolImplementation.cpp
;	COMDAT ?RecalcElementListXPoint@CMainSymbolImplementation@@QAEXHHHPAUIPacket133101@@@Z
_TEXT	SEGMENT
_elementList$ = -124					; size = 28
$T2 = -96						; size = 24
_coordinate$ = -72					; size = 24
_dXDate$ = -48						; size = 8
tv188 = -40						; size = 8
_oldXDate$ = -40					; size = 8
_blkIdx$ = -32						; size = 8
_szPacketType$ = -24					; size = 8
$T3 = -16						; size = 4
__$EHRec$ = -12						; size = 12
_oldTimeDiff$1$ = 8					; size = 4
_row$ = 8						; size = 4
_pos$1$ = 12						; size = 4
_col$ = 12						; size = 4
_nBaseTimeDiff$ = 16					; size = 4
_pPacket$ = 20						; size = 4
?RecalcElementListXPoint@CMainSymbolImplementation@@QAEXHHHPAUIPacket133101@@@Z PROC ; CMainSymbolImplementation::RecalcElementListXPoint, COMDAT
; _this$ = ecx

; 764  : {

  00000	55		 push	 ebp
  00001	8b ec		 mov	 ebp, esp
  00003	6a ff		 push	 -1
  00005	68 00 00 00 00	 push	 __ehhandler$?RecalcElementListXPoint@CMainSymbolImplementation@@QAEXHHHPAUIPacket133101@@@Z
  0000a	64 a1 00 00 00
	00		 mov	 eax, DWORD PTR fs:0
  00010	50		 push	 eax
  00011	83 ec 70	 sub	 esp, 112		; 00000070H
  00014	56		 push	 esi
  00015	57		 push	 edi
  00016	a1 00 00 00 00	 mov	 eax, DWORD PTR ___security_cookie
  0001b	33 c5		 xor	 eax, ebp
  0001d	50		 push	 eax
  0001e	8d 45 f4	 lea	 eax, DWORD PTR __$EHRec$[ebp]
  00021	64 a3 00 00 00
	00		 mov	 DWORD PTR fs:0, eax
; File C:\Program Files (x86)\Microsoft Visual Studio\2019\Community\VC\Tools\MSVC\14.29.30133\atlmfc\include\afxtempl.h

; 851  : {

  00027	c7 45 84 00 00
	00 00		 mov	 DWORD PTR _elementList$[ebp], OFFSET ??_7?$CList@PAVCDrawingSymbol@@PAV1@@@6B@

; 852  : 	ASSERT(nBlockSize > 0);
; 853  : 
; 854  : 	m_nCount = 0;

  0002e	c7 45 90 00 00
	00 00		 mov	 DWORD PTR _elementList$[ebp+12], 0

; 855  : 	m_pNodeHead = m_pNodeTail = m_pNodeFree = NULL;

  00035	c7 45 94 00 00
	00 00		 mov	 DWORD PTR _elementList$[ebp+16], 0
  0003c	c7 45 8c 00 00
	00 00		 mov	 DWORD PTR _elementList$[ebp+8], 0
  00043	c7 45 88 00 00
	00 00		 mov	 DWORD PTR _elementList$[ebp+4], 0

; 856  : 	m_pBlocks = NULL;

  0004a	c7 45 98 00 00
	00 00		 mov	 DWORD PTR _elementList$[ebp+20], 0

; 857  : 	m_nBlockSize = nBlockSize;

  00051	c7 45 9c 0a 00
	00 00		 mov	 DWORD PTR _elementList$[ebp+24], 10 ; 0000000aH
; File D:\git\src\IBK\IBK_DRFN\ProjSrc\SrcChartEx\ChartAddIn\ChartAnalysisToolAddIn\Include_Chart\BlockBaseData.h

; 20   : 	CBlockIndex(const int row, const int column) { m_nRow = row; m_nColumn = column; };

  00058	8b 45 08	 mov	 eax, DWORD PTR _row$[ebp]
; File D:\git\src\IBK\IBK_DRFN\ProjSrc\SrcChartEx\ChartAddIn\ChartAnalysisToolAddIn\Symbol\MainSymbolImplementation.cpp

; 768  : 	m_symboldata.GetElementTree()->GetElementListOfBlock(blkIdx, elementList);

  0005b	83 c1 28	 add	 ecx, 40			; 00000028H
; File D:\git\src\IBK\IBK_DRFN\ProjSrc\SrcChartEx\ChartAddIn\ChartAnalysisToolAddIn\Include_Chart\BlockBaseData.h

; 20   : 	CBlockIndex(const int row, const int column) { m_nRow = row; m_nColumn = column; };

  0005e	89 45 e0	 mov	 DWORD PTR _blkIdx$[ebp], eax
  00061	8b 45 0c	 mov	 eax, DWORD PTR _col$[ebp]
  00064	89 45 e4	 mov	 DWORD PTR _blkIdx$[ebp+4], eax
; File D:\git\src\IBK\IBK_DRFN\ProjSrc\SrcChartEx\ChartAddIn\ChartAnalysisToolAddIn\Symbol\MainSymbolImplementation.cpp

; 768  : 	m_symboldata.GetElementTree()->GetElementListOfBlock(blkIdx, elementList);

  00067	8d 45 84	 lea	 eax, DWORD PTR _elementList$[ebp]
  0006a	50		 push	 eax
  0006b	8d 45 e0	 lea	 eax, DWORD PTR _blkIdx$[ebp]
  0006e	c7 45 fc 00 00
	00 00		 mov	 DWORD PTR __$EHRec$[ebp+8], 0
  00075	50		 push	 eax
  00076	e8 00 00 00 00	 call	 ?GetElementTree@CSymbolData@@QAEPAVCElementTree@@XZ ; CSymbolData::GetElementTree
  0007b	8b c8		 mov	 ecx, eax
  0007d	e8 00 00 00 00	 call	 ?GetElementListOfBlock@CElementTree@@QAEXABVCBlockIndex@@AAV?$CList@PAVCDrawingSymbol@@PAV1@@@@Z ; CElementTree::GetElementListOfBlock

; 769  : 
; 770  : 	ILPCSTR szPacketType = pPacket->GetType();

  00082	8b 4d 14	 mov	 ecx, DWORD PTR _pPacket$[ebp]
  00085	6a 01		 push	 1
  00087	8b 01		 mov	 eax, DWORD PTR [ecx]
  00089	8b 40 1c	 mov	 eax, DWORD PTR [eax+28]
  0008c	ff d0		 call	 eax
; File D:\git\src\IBK\IBK_DRFN\ProjSrc\SrcChartEx\ChartAddIn\ChartAnalysisToolAddIn\Include_AddIn_133101\I133101\_IString.h

; 39   : 		m_pIStrData = p_pIString;	// Do not AddRef(). Because It must be Return Value.

  0008e	8b f8		 mov	 edi, eax
  00090	89 7d ec	 mov	 DWORD PTR _szPacketType$[ebp+4], edi

; 40   : 		if( m_pIStrData) m_szData = m_pIStrData->GetData();

  00093	85 ff		 test	 edi, edi
  00095	74 0e		 je	 SHORT $LN22@RecalcElem
  00097	8b 17		 mov	 edx, DWORD PTR [edi]
  00099	8b cf		 mov	 ecx, edi
  0009b	8b 52 10	 mov	 edx, DWORD PTR [edx+16]
  0009e	ff d2		 call	 edx
  000a0	89 45 e8	 mov	 DWORD PTR _szPacketType$[ebp], eax
  000a3	eb 07		 jmp	 SHORT $LN23@RecalcElem
$LN22@RecalcElem:

; 41   : 		else m_szData = NULL;

  000a5	c7 45 e8 00 00
	00 00		 mov	 DWORD PTR _szPacketType$[ebp], 0
$LN23@RecalcElem:
; File D:\git\src\IBK\IBK_DRFN\ProjSrc\SrcChartEx\ChartAddIn\ChartAnalysisToolAddIn\Symbol\MainSymbolImplementation.cpp

; 774  : 	CCoordinate coordinate;

  000ac	8d 4d b8	 lea	 ecx, DWORD PTR _coordinate$[ebp]
  000af	c6 45 fc 01	 mov	 BYTE PTR __$EHRec$[ebp+8], 1
  000b3	e8 00 00 00 00	 call	 ??0CCoordinate@@QAE@XZ	; CCoordinate::CCoordinate

; 775  : 	CDrawingSymbol* pDrawingSymbol = NULL;
; 776  : 	POSITION pos = elementList.GetHeadPosition();

  000b8	8b 4d 88	 mov	 ecx, DWORD PTR _elementList$[ebp+4]
  000bb	85 c9		 test	 ecx, ecx

; 777  : 	while(pos)

  000bd	0f 84 e2 00 00
	00		 je	 $LN42@RecalcElem
$LL2@RecalcElem:

; 779  : 		if( !(pDrawingSymbol = elementList.GetNext(pos)) )	break;

  000c3	8b 71 08	 mov	 esi, DWORD PTR [ecx+8]
; File C:\Program Files (x86)\Microsoft Visual Studio\2019\Community\VC\Tools\MSVC\14.29.30133\atlmfc\include\afxtempl.h

; 813  : 		rPosition = (POSITION) pNode->pNext;

  000c6	8b 09		 mov	 ecx, DWORD PTR [ecx]
  000c8	89 4d 0c	 mov	 DWORD PTR _pos$1$[ebp], ecx
; File D:\git\src\IBK\IBK_DRFN\ProjSrc\SrcChartEx\ChartAddIn\ChartAnalysisToolAddIn\Symbol\MainSymbolImplementation.cpp

; 779  : 		if( !(pDrawingSymbol = elementList.GetNext(pos)) )	break;

  000cb	85 f6		 test	 esi, esi
  000cd	0f 84 cf 00 00
	00		 je	 $LN52@RecalcElem

; 780  : 		for( int i=0; i<2; i++ )

  000d3	33 ff		 xor	 edi, edi
$LL6@RecalcElem:

; 781  : 		{
; 782  : 			if( i == 0 )		coordinate = pDrawingSymbol->GetStartPoint();

  000d5	8b 06		 mov	 eax, DWORD PTR [esi]
  000d7	8d 4d a0	 lea	 ecx, DWORD PTR $T2[ebp]
  000da	51		 push	 ecx
  000db	8b ce		 mov	 ecx, esi
  000dd	85 ff		 test	 edi, edi
  000df	75 05		 jne	 SHORT $LN8@RecalcElem
  000e1	8b 40 20	 mov	 eax, DWORD PTR [eax+32]
  000e4	eb 03		 jmp	 SHORT $LN54@RecalcElem
$LN8@RecalcElem:

; 783  : 			else				coordinate = pDrawingSymbol->GetEndPoint();

  000e6	8b 40 24	 mov	 eax, DWORD PTR [eax+36]
$LN54@RecalcElem:

; 784  : 
; 785  : 			oldXDate = coordinate.GetX();

  000e9	ff d0		 call	 eax
  000eb	8d 4d b8	 lea	 ecx, DWORD PTR _coordinate$[ebp]
  000ee	0f 10 00	 movups	 xmm0, XMMWORD PTR [eax]
  000f1	0f 11 45 b8	 movups	 XMMWORD PTR _coordinate$[ebp], xmm0
  000f5	f3 0f 7e 40 10	 movq	 xmm0, QWORD PTR [eax+16]
  000fa	66 0f d6 45 c8	 movq	 QWORD PTR _coordinate$[ebp+16], xmm0
  000ff	e8 00 00 00 00	 call	 ?GetX@CCoordinate@@QBENXZ ; CCoordinate::GetX

; 786  : 			oldTimeDiff = coordinate.GetTimeDiff();

  00104	8d 4d b8	 lea	 ecx, DWORD PTR _coordinate$[ebp]
  00107	dd 5d d8	 fstp	 QWORD PTR _oldXDate$[ebp]
  0010a	e8 00 00 00 00	 call	 ?GetTimeDiff@CCoordinate@@QBEHXZ ; CCoordinate::GetTimeDiff
  0010f	89 45 08	 mov	 DWORD PTR _oldTimeDiff$1$[ebp], eax

; 787  : 			if( oldTimeDiff != nBaseTimeDiff )

  00112	3b 45 10	 cmp	 eax, DWORD PTR _nBaseTimeDiff$[ebp]
  00115	74 76		 je	 SHORT $LN4@RecalcElem

; 788  : 			{
; 789  : 				dXDate = CDataConversion::CalcTimeDiff(oldXDate, nBaseTimeDiff - oldTimeDiff, pPacket->GetOrgBaseTimeDifference(), CString( szPacketType));

  00117	51		 push	 ecx
  00118	8b cc		 mov	 ecx, esp
  0011a	89 65 f0	 mov	 DWORD PTR $T3[ebp], esp
  0011d	ff 75 e8	 push	 DWORD PTR _szPacketType$[ebp]
  00120	ff 15 00 00 00
	00		 call	 DWORD PTR __imp_??0?$CStringT@DV?$StrTraitMFC_DLL@DV?$ChTraitsCRT@D@ATL@@@@@ATL@@QAE@PBD@Z
  00126	8b 4d 14	 mov	 ecx, DWORD PTR _pPacket$[ebp]
  00129	c6 45 fc 02	 mov	 BYTE PTR __$EHRec$[ebp+8], 2
  0012d	8b 01		 mov	 eax, DWORD PTR [ecx]
  0012f	8b 40 64	 mov	 eax, DWORD PTR [eax+100]
  00132	ff d0		 call	 eax
  00134	f2 0f 10 45 d8	 movsd	 xmm0, QWORD PTR _oldXDate$[ebp]
  00139	50		 push	 eax
  0013a	8b 45 10	 mov	 eax, DWORD PTR _nBaseTimeDiff$[ebp]
  0013d	2b 45 08	 sub	 eax, DWORD PTR _oldTimeDiff$1$[ebp]
  00140	50		 push	 eax
  00141	83 ec 08	 sub	 esp, 8
  00144	c6 45 fc 01	 mov	 BYTE PTR __$EHRec$[ebp+8], 1
  00148	f2 0f 11 04 24	 movsd	 QWORD PTR [esp], xmm0
  0014d	e8 00 00 00 00	 call	 ?CalcTimeDiff@CDataConversion@@SANNHHV?$CStringT@DV?$StrTraitMFC_DLL@DV?$ChTraitsCRT@D@ATL@@@@@ATL@@@Z ; CDataConversion::CalcTimeDiff
  00152	83 c4 14	 add	 esp, 20			; 00000014H

; 790  : 				coordinate.SetX(dXDate);

  00155	8d 45 d0	 lea	 eax, DWORD PTR _dXDate$[ebp]
  00158	dd 5d d8	 fstp	 QWORD PTR tv188[ebp]
  0015b	f2 0f 10 45 d8	 movsd	 xmm0, QWORD PTR tv188[ebp]
  00160	8d 4d b8	 lea	 ecx, DWORD PTR _coordinate$[ebp]
  00163	f2 0f 11 45 d0	 movsd	 QWORD PTR _dXDate$[ebp], xmm0
  00168	50		 push	 eax
  00169	e8 00 00 00 00	 call	 ?SetX@CCoordinate@@QAEXABN@Z ; CCoordinate::SetX

; 791  : 				coordinate.SetTimeDiff(nBaseTimeDiff);

  0016e	ff 75 10	 push	 DWORD PTR _nBaseTimeDiff$[ebp]
  00171	8d 4d b8	 lea	 ecx, DWORD PTR _coordinate$[ebp]
  00174	e8 00 00 00 00	 call	 ?SetTimeDiff@CCoordinate@@QAEXH@Z ; CCoordinate::SetTimeDiff
  00179	8b 06		 mov	 eax, DWORD PTR [esi]

; 792  : 
; 793  : 				if( i == 0 )		pDrawingSymbol->SetStartCoord(coordinate);

  0017b	8d 4d b8	 lea	 ecx, DWORD PTR _coordinate$[ebp]
  0017e	51		 push	 ecx
  0017f	8b ce		 mov	 ecx, esi
  00181	85 ff		 test	 edi, edi
  00183	75 05		 jne	 SHORT $LN11@RecalcElem
  00185	ff 50 28	 call	 DWORD PTR [eax+40]
  00188	eb 03		 jmp	 SHORT $LN4@RecalcElem
$LN11@RecalcElem:

; 794  : 				else				pDrawingSymbol->SetEndCoord(coordinate);

  0018a	ff 50 2c	 call	 DWORD PTR [eax+44]
$LN4@RecalcElem:

; 780  : 		for( int i=0; i<2; i++ )

  0018d	47		 inc	 edi
  0018e	83 ff 02	 cmp	 edi, 2
  00191	0f 8c 3e ff ff
	ff		 jl	 $LL6@RecalcElem

; 777  : 	while(pos)

  00197	8b 4d 0c	 mov	 ecx, DWORD PTR _pos$1$[ebp]
  0019a	85 c9		 test	 ecx, ecx
  0019c	0f 85 21 ff ff
	ff		 jne	 $LL2@RecalcElem
$LN52@RecalcElem:
  001a2	8b 7d ec	 mov	 edi, DWORD PTR _szPacketType$[ebp+4]
$LN42@RecalcElem:
; File D:\git\src\IBK\IBK_DRFN\ProjSrc\SrcChartEx\ChartAddIn\ChartAnalysisToolAddIn\Include_AddIn_133101\I133101\_IString.h

; 44   : 	{

  001a5	c6 45 fc 03	 mov	 BYTE PTR __$EHRec$[ebp+8], 3

; 45   : 		if( m_pIStrData)

  001a9	85 ff		 test	 edi, edi
  001ab	74 06		 je	 SHORT $LN28@RecalcElem

; 46   : 		{
; 47   : 			m_pIStrData->Release();

  001ad	8b 07		 mov	 eax, DWORD PTR [edi]
  001af	57		 push	 edi
  001b0	ff 50 08	 call	 DWORD PTR [eax+8]
$LN28@RecalcElem:
; File C:\Program Files (x86)\Microsoft Visual Studio\2019\Community\VC\Tools\MSVC\14.29.30133\atlmfc\include\afxtempl.h

; 872  : 	m_pBlocks->FreeDataChain();

  001b3	8b 4d 98	 mov	 ecx, DWORD PTR _elementList$[ebp+20]

; 878  : {

  001b6	c7 45 fc 04 00
	00 00		 mov	 DWORD PTR __$EHRec$[ebp+8], 4
  001bd	c7 45 84 00 00
	00 00		 mov	 DWORD PTR _elementList$[ebp], OFFSET ??_7?$CList@PAVCDrawingSymbol@@PAV1@@@6B@

; 870  : 	m_nCount = 0;

  001c4	c7 45 90 00 00
	00 00		 mov	 DWORD PTR _elementList$[ebp+12], 0

; 871  : 	m_pNodeHead = m_pNodeTail = m_pNodeFree = NULL;

  001cb	c7 45 94 00 00
	00 00		 mov	 DWORD PTR _elementList$[ebp+16], 0
  001d2	c7 45 8c 00 00
	00 00		 mov	 DWORD PTR _elementList$[ebp+8], 0
  001d9	c7 45 88 00 00
	00 00		 mov	 DWORD PTR _elementList$[ebp+4], 0

; 872  : 	m_pBlocks->FreeDataChain();

  001e0	e8 00 00 00 00	 call	 ?FreeDataChain@CPlex@@QAEXXZ ; CPlex::FreeDataChain
; File D:\git\src\IBK\IBK_DRFN\ProjSrc\SrcChartEx\ChartAddIn\ChartAnalysisToolAddIn\Symbol\MainSymbolImplementation.cpp

; 798  : }

  001e5	8b 4d f4	 mov	 ecx, DWORD PTR __$EHRec$[ebp]
  001e8	64 89 0d 00 00
	00 00		 mov	 DWORD PTR fs:0, ecx
  001ef	59		 pop	 ecx
  001f0	5f		 pop	 edi
  001f1	5e		 pop	 esi
  001f2	8b e5		 mov	 esp, ebp
  001f4	5d		 pop	 ebp
  001f5	c2 10 00	 ret	 16			; 00000010H
_TEXT	ENDS
;	COMDAT text$x
text$x	SEGMENT
__unwindfunclet$?RecalcElementListXPoint@CMainSymbolImplementation@@QAEXHHHPAUIPacket133101@@@Z$0:
  00000	8d 4d 84	 lea	 ecx, DWORD PTR _elementList$[ebp]
  00003	e9 00 00 00 00	 jmp	 ??1?$CList@PAVCDrawingSymbol@@PAV1@@@UAE@XZ ; CList<CDrawingSymbol *,CDrawingSymbol *>::~CList<CDrawingSymbol *,CDrawingSymbol *>
__unwindfunclet$?RecalcElementListXPoint@CMainSymbolImplementation@@QAEXHHHPAUIPacket133101@@@Z$1:
  00008	8d 4d e8	 lea	 ecx, DWORD PTR _szPacketType$[ebp]
  0000b	e9 00 00 00 00	 jmp	 ??1ILPCSTR133101@@QAE@XZ ; ILPCSTR133101::~ILPCSTR133101
__unwindfunclet$?RecalcElementListXPoint@CMainSymbolImplementation@@QAEXHHHPAUIPacket133101@@@Z$2:
  00010	8b 4d f0	 mov	 ecx, DWORD PTR $T3[ebp]
  00013	ff 25 00 00 00
	00		 jmp	 DWORD PTR __imp_??1?$CStringT@DV?$StrTraitMFC_DLL@DV?$ChTraitsCRT@D@ATL@@@@@ATL@@QAE@XZ
  00019	cc		 int	 3
  0001a	cc		 int	 3
  0001b	cc		 int	 3
  0001c	cc		 int	 3
  0001d	cc		 int	 3
__ehhandler$?RecalcElementListXPoint@CMainSymbolImplementation@@QAEXHHHPAUIPacket133101@@@Z:
  0001e	90		 npad	 1
  0001f	90		 npad	 1
  00020	8b 54 24 08	 mov	 edx, DWORD PTR [esp+8]
  00024	8d 42 0c	 lea	 eax, DWORD PTR [edx+12]
  00027	8b 4a 84	 mov	 ecx, DWORD PTR [edx-124]
  0002a	33 c8		 xor	 ecx, eax
  0002c	e8 00 00 00 00	 call	 @__security_check_cookie@4
  00031	b8 00 00 00 00	 mov	 eax, OFFSET __ehfuncinfo$?RecalcElementListXPoint@CMainSymbolImplementation@@QAEXHHHPAUIPacket133101@@@Z
  00036	e9 00 00 00 00	 jmp	 ___CxxFrameHandler3
text$x	ENDS
?RecalcElementListXPoint@CMainSymbolImplementation@@QAEXHHHPAUIPacket133101@@@Z ENDP ; CMainSymbolImplementation::RecalcElementListXPoint
; Function compile flags: /Ogtp
; File D:\git\src\IBK\IBK_DRFN\ProjSrc\SrcChartEx\ChartAddIn\ChartAnalysisToolAddIn\Symbol\MainSymbolImplementation.cpp
; File D:\git\src\IBK\IBK_DRFN\ProjSrc\SrcChartEx\ChartAddIn\ChartAnalysisToolAddIn\Include_AddIn_133101\I133101\_IString.h
; File D:\git\src\IBK\IBK_DRFN\ProjSrc\SrcChartEx\ChartAddIn\ChartAnalysisToolAddIn\Symbol\MainSymbolImplementation.cpp
; File D:\git\src\IBK\IBK_DRFN\ProjSrc\SrcChartEx\ChartAddIn\ChartAnalysisToolAddIn\Include_AddIn_133101\I133101\_IString.h
; File D:\git\src\IBK\IBK_DRFN\ProjSrc\SrcChartEx\ChartAddIn\ChartAnalysisToolAddIn\Symbol\MainSymbolImplementation.cpp
; File D:\git\src\IBK\IBK_DRFN\ProjSrc\SrcChartEx\ChartAddIn\ChartAnalysisToolAddIn\Include_AddIn_133101\I133101\_IString.h
; File D:\git\src\IBK\IBK_DRFN\ProjSrc\SrcChartEx\ChartAddIn\ChartAnalysisToolAddIn\Symbol\MainSymbolImplementation.cpp
; File D:\git\src\IBK\IBK_DRFN\ProjSrc\SrcChartEx\ChartAddIn\ChartAnalysisToolAddIn\Include_AddIn_133101\I133101\_IString.h
; File D:\git\src\IBK\IBK_DRFN\ProjSrc\SrcChartEx\ChartAddIn\ChartAnalysisToolAddIn\Symbol\MainSymbolImplementation.cpp
; File D:\git\src\IBK\IBK_DRFN\ProjSrc\SrcChartEx\ChartAddIn\ChartAnalysisToolAddIn\Include_AddIn_133101\I133101\_IString.h
; File D:\git\src\IBK\IBK_DRFN\ProjSrc\SrcChartEx\ChartAddIn\ChartAnalysisToolAddIn\Symbol\MainSymbolImplementation.cpp
; File D:\git\src\IBK\IBK_DRFN\ProjSrc\SrcChartEx\ChartAddIn\ChartAnalysisToolAddIn\Include_AddIn_133101\I133101\_IString.h
; File D:\git\src\IBK\IBK_DRFN\ProjSrc\SrcChartEx\ChartAddIn\ChartAnalysisToolAddIn\Symbol\MainSymbolImplementation.cpp
;	COMDAT ?RecalcSymbolXPoint@CMainSymbolImplementation@@QAE_NPBDH@Z
_TEXT	SEGMENT
_szCurrentRQ$ = -48					; size = 8
_szMasterRQ$2 = -40					; size = 8
_nBlkColCount$1$ = -32					; size = 4
_this$1$ = -28						; size = 4
_strCurrentRQ$ = -24					; size = 4
_pPacket$1$ = -20					; size = 4
_pIChartManager$1$ = -16				; size = 4
__$EHRec$ = -12						; size = 12
tv89 = 8						; size = 4
_nBaseTimeDiff$1$ = 8					; size = 4
_szName$ = 8						; size = 4
_nBlkRowCount$1$ = 12					; size = 4
_nTimeDiff$ = 12					; size = 4
?RecalcSymbolXPoint@CMainSymbolImplementation@@QAE_NPBDH@Z PROC ; CMainSymbolImplementation::RecalcSymbolXPoint, COMDAT
; _this$ = ecx

; 733  : {

  00000	55		 push	 ebp
  00001	8b ec		 mov	 ebp, esp
  00003	6a ff		 push	 -1
  00005	68 00 00 00 00	 push	 __ehhandler$?RecalcSymbolXPoint@CMainSymbolImplementation@@QAE_NPBDH@Z
  0000a	64 a1 00 00 00
	00		 mov	 eax, DWORD PTR fs:0
  00010	50		 push	 eax
  00011	83 ec 24	 sub	 esp, 36			; 00000024H
  00014	53		 push	 ebx
  00015	56		 push	 esi
  00016	57		 push	 edi
  00017	a1 00 00 00 00	 mov	 eax, DWORD PTR ___security_cookie
  0001c	33 c5		 xor	 eax, ebp
  0001e	50		 push	 eax
  0001f	8d 45 f4	 lea	 eax, DWORD PTR __$EHRec$[ebp]
  00022	64 a3 00 00 00
	00		 mov	 DWORD PTR fs:0, eax
  00028	8b c1		 mov	 eax, ecx
  0002a	89 45 e4	 mov	 DWORD PTR _this$1$[ebp], eax

; 734  : 	IChartManager *pIChartManager = m_symboldata.GetMainBlock();

  0002d	8d 58 28	 lea	 ebx, DWORD PTR [eax+40]
  00030	8b cb		 mov	 ecx, ebx
  00032	e8 00 00 00 00	 call	 ?GetMainBlock@CSymbolData@@QBEPAUIChartManager133101@@XZ ; CSymbolData::GetMainBlock
  00037	8b f8		 mov	 edi, eax

; 735  : 	ILPCSTR szCurrentRQ = pIChartManager->GetCurrentRQ();

  00039	8b cf		 mov	 ecx, edi
  0003b	89 7d f0	 mov	 DWORD PTR _pIChartManager$1$[ebp], edi
  0003e	8b 17		 mov	 edx, DWORD PTR [edi]
  00040	ff 92 34 01 00
	00		 call	 DWORD PTR [edx+308]
; File D:\git\src\IBK\IBK_DRFN\ProjSrc\SrcChartEx\ChartAddIn\ChartAnalysisToolAddIn\Include_AddIn_133101\I133101\_IString.h

; 39   : 		m_pIStrData = p_pIString;	// Do not AddRef(). Because It must be Return Value.

  00046	89 45 d4	 mov	 DWORD PTR _szCurrentRQ$[ebp+4], eax

; 40   : 		if( m_pIStrData) m_szData = m_pIStrData->GetData();

  00049	85 c0		 test	 eax, eax
  0004b	74 0b		 je	 SHORT $LN18@RecalcSymb
  0004d	8b 10		 mov	 edx, DWORD PTR [eax]
  0004f	8b c8		 mov	 ecx, eax
  00051	ff 52 10	 call	 DWORD PTR [edx+16]
  00054	8b f0		 mov	 esi, eax
  00056	eb 02		 jmp	 SHORT $LN48@RecalcSymb
$LN18@RecalcSymb:

; 41   : 		else m_szData = NULL;

  00058	33 f6		 xor	 esi, esi
$LN48@RecalcSymb:
; File D:\git\src\IBK\IBK_DRFN\ProjSrc\SrcChartEx\ChartAddIn\ChartAnalysisToolAddIn\Symbol\MainSymbolImplementation.cpp

; 735  : 	ILPCSTR szCurrentRQ = pIChartManager->GetCurrentRQ();

  0005a	89 75 d0	 mov	 DWORD PTR _szCurrentRQ$[ebp], esi

; 736  : 	IPacket* pPacket= m_symboldata.GetDatePacket( szCurrentRQ);

  0005d	56		 push	 esi
  0005e	8b cb		 mov	 ecx, ebx
  00060	c7 45 fc 00 00
	00 00		 mov	 DWORD PTR __$EHRec$[ebp+8], 0
  00067	e8 00 00 00 00	 call	 ?GetDatePacket@CSymbolData@@QBEPAUIPacket133101@@PBD@Z ; CSymbolData::GetDatePacket
  0006c	8b d8		 mov	 ebx, eax

; 737  : 	CString strCurrentRQ(szCurrentRQ);

  0006e	8d 4d e8	 lea	 ecx, DWORD PTR _strCurrentRQ$[ebp]
  00071	56		 push	 esi
  00072	89 5d ec	 mov	 DWORD PTR _pPacket$1$[ebp], ebx
  00075	ff 15 00 00 00
	00		 call	 DWORD PTR __imp_??0?$CStringT@DV?$StrTraitMFC_DLL@DV?$ChTraitsCRT@D@ATL@@@@@ATL@@QAE@PBD@Z

; 738  : 
; 739  : 	int	nBaseTimeDiff;
; 740  : 	if( strlen(szName) == 0 )	nBaseTimeDiff = pPacket->GetOrgBaseTimeDifference();		//   

  0007b	8b 4d 08	 mov	 ecx, DWORD PTR _szName$[ebp]
  0007e	c6 45 fc 01	 mov	 BYTE PTR __$EHRec$[ebp+8], 1
  00082	8d 51 01	 lea	 edx, DWORD PTR [ecx+1]
$LL45@RecalcSymb:
  00085	8a 01		 mov	 al, BYTE PTR [ecx]
  00087	41		 inc	 ecx
  00088	84 c0		 test	 al, al
  0008a	75 f9		 jne	 SHORT $LL45@RecalcSymb
  0008c	2b ca		 sub	 ecx, edx
  0008e	75 09		 jne	 SHORT $LN8@RecalcSymb
  00090	8b 03		 mov	 eax, DWORD PTR [ebx]
  00092	8b cb		 mov	 ecx, ebx
  00094	ff 50 64	 call	 DWORD PTR [eax+100]
  00097	eb 03		 jmp	 SHORT $LN49@RecalcSymb
$LN8@RecalcSymb:

; 741  : 	else						nBaseTimeDiff = nTimeDiff;

  00099	8b 45 0c	 mov	 eax, DWORD PTR _nTimeDiff$[ebp]
$LN49@RecalcSymb:

; 742  : 
; 743  : 	int nBlkColCount = pIChartManager->GetColumnCount();

  0009c	89 45 08	 mov	 DWORD PTR _nBaseTimeDiff$1$[ebp], eax
  0009f	8b cf		 mov	 ecx, edi
  000a1	8b 07		 mov	 eax, DWORD PTR [edi]
  000a3	ff 50 20	 call	 DWORD PTR [eax+32]

; 744  : 	int nBlkRowCount;
; 745  : 	for( int col = 0; col < nBlkColCount; col++ )

  000a6	33 db		 xor	 ebx, ebx
  000a8	89 45 e0	 mov	 DWORD PTR _nBlkColCount$1$[ebp], eax
  000ab	85 c0		 test	 eax, eax
  000ad	0f 8e 8f 00 00
	00		 jle	 $LN3@RecalcSymb
$LL4@RecalcSymb:

; 746  : 	{
; 747  : 		nBlkRowCount = pIChartManager->GetRowCountInColumn(col);

  000b3	8b 17		 mov	 edx, DWORD PTR [edi]
  000b5	8b cf		 mov	 ecx, edi
  000b7	53		 push	 ebx
  000b8	ff 52 24	 call	 DWORD PTR [edx+36]

; 748  : 		for( int row = 0; row < nBlkRowCount; row++ )

  000bb	33 f6		 xor	 esi, esi
  000bd	89 45 0c	 mov	 DWORD PTR _nBlkRowCount$1$[ebp], eax
  000c0	85 c0		 test	 eax, eax
  000c2	7e 74		 jle	 SHORT $LN2@RecalcSymb
$LL7@RecalcSymb:

; 750  : 			ILPCSTR szMasterRQ = pIChartManager->GetMainRQofBlock(row, col);

  000c4	8b 17		 mov	 edx, DWORD PTR [edi]
  000c6	8b cf		 mov	 ecx, edi
  000c8	53		 push	 ebx
  000c9	56		 push	 esi
  000ca	ff 92 30 01 00
	00		 call	 DWORD PTR [edx+304]
; File D:\git\src\IBK\IBK_DRFN\ProjSrc\SrcChartEx\ChartAddIn\ChartAnalysisToolAddIn\Include_AddIn_133101\I133101\_IString.h

; 39   : 		m_pIStrData = p_pIString;	// Do not AddRef(). Because It must be Return Value.

  000d0	8b f8		 mov	 edi, eax
  000d2	89 7d dc	 mov	 DWORD PTR _szMasterRQ$2[ebp+4], edi

; 40   : 		if( m_pIStrData) m_szData = m_pIStrData->GetData();

  000d5	85 ff		 test	 edi, edi
  000d7	74 09		 je	 SHORT $LN22@RecalcSymb
  000d9	8b 17		 mov	 edx, DWORD PTR [edi]
  000db	8b cf		 mov	 ecx, edi
  000dd	ff 52 10	 call	 DWORD PTR [edx+16]
  000e0	eb 02		 jmp	 SHORT $LN50@RecalcSymb
$LN22@RecalcSymb:

; 41   : 		else m_szData = NULL;

  000e2	33 c0		 xor	 eax, eax
$LN50@RecalcSymb:
; File D:\git\src\IBK\IBK_DRFN\ProjSrc\SrcChartEx\ChartAddIn\ChartAnalysisToolAddIn\Symbol\MainSymbolImplementation.cpp

; 750  : 			ILPCSTR szMasterRQ = pIChartManager->GetMainRQofBlock(row, col);

  000e4	89 45 d8	 mov	 DWORD PTR _szMasterRQ$2[ebp], eax

; 751  : 			if( strCurrentRQ.Compare(szMasterRQ) )		continue;

  000e7	50		 push	 eax
  000e8	8d 4d e8	 lea	 ecx, DWORD PTR _strCurrentRQ$[ebp]
  000eb	c6 45 fc 02	 mov	 BYTE PTR __$EHRec$[ebp+8], 2
  000ef	ff 15 00 00 00
	00		 call	 DWORD PTR __imp_?Compare@?$CStringT@DV?$StrTraitMFC_DLL@DV?$ChTraitsCRT@D@ATL@@@@@ATL@@QBEHPBD@Z
  000f5	85 c0		 test	 eax, eax
  000f7	74 06		 je	 SHORT $LN10@RecalcSymb
; File D:\git\src\IBK\IBK_DRFN\ProjSrc\SrcChartEx\ChartAddIn\ChartAnalysisToolAddIn\Include_AddIn_133101\I133101\_IString.h

; 44   : 	{

  000f9	c6 45 fc 03	 mov	 BYTE PTR __$EHRec$[ebp+8], 3
  000fd	eb 14		 jmp	 SHORT $LN52@RecalcSymb
$LN10@RecalcSymb:
; File D:\git\src\IBK\IBK_DRFN\ProjSrc\SrcChartEx\ChartAddIn\ChartAnalysisToolAddIn\Symbol\MainSymbolImplementation.cpp

; 753  : 			RecalcElementListXPoint(row, col, nBaseTimeDiff, pPacket);

  000ff	ff 75 ec	 push	 DWORD PTR _pPacket$1$[ebp]
  00102	8b 4d e4	 mov	 ecx, DWORD PTR _this$1$[ebp]
  00105	ff 75 08	 push	 DWORD PTR _nBaseTimeDiff$1$[ebp]
  00108	53		 push	 ebx
  00109	56		 push	 esi
  0010a	e8 00 00 00 00	 call	 ?RecalcElementListXPoint@CMainSymbolImplementation@@QAEXHHHPAUIPacket133101@@@Z ; CMainSymbolImplementation::RecalcElementListXPoint
; File D:\git\src\IBK\IBK_DRFN\ProjSrc\SrcChartEx\ChartAddIn\ChartAnalysisToolAddIn\Include_AddIn_133101\I133101\_IString.h

; 44   : 	{

  0010f	c6 45 fc 04	 mov	 BYTE PTR __$EHRec$[ebp+8], 4
$LN52@RecalcSymb:

; 51   : 	}

  00113	85 ff		 test	 edi, edi
  00115	74 14		 je	 SHORT $LN30@RecalcSymb
  00117	8b 07		 mov	 eax, DWORD PTR [edi]
  00119	57		 push	 edi
  0011a	ff 50 08	 call	 DWORD PTR [eax+8]
  0011d	c7 45 d8 00 00
	00 00		 mov	 DWORD PTR _szMasterRQ$2[ebp], 0
  00124	c7 45 dc 00 00
	00 00		 mov	 DWORD PTR _szMasterRQ$2[ebp+4], 0
$LN30@RecalcSymb:
; File D:\git\src\IBK\IBK_DRFN\ProjSrc\SrcChartEx\ChartAddIn\ChartAnalysisToolAddIn\Symbol\MainSymbolImplementation.cpp

; 748  : 		for( int row = 0; row < nBlkRowCount; row++ )

  0012b	8b 7d f0	 mov	 edi, DWORD PTR _pIChartManager$1$[ebp]
  0012e	46		 inc	 esi
; File D:\git\src\IBK\IBK_DRFN\ProjSrc\SrcChartEx\ChartAddIn\ChartAnalysisToolAddIn\Include_AddIn_133101\I133101\_IString.h

; 51   : 	}

  0012f	c6 45 fc 01	 mov	 BYTE PTR __$EHRec$[ebp+8], 1
; File D:\git\src\IBK\IBK_DRFN\ProjSrc\SrcChartEx\ChartAddIn\ChartAnalysisToolAddIn\Symbol\MainSymbolImplementation.cpp

; 748  : 		for( int row = 0; row < nBlkRowCount; row++ )

  00133	3b 75 0c	 cmp	 esi, DWORD PTR _nBlkRowCount$1$[ebp]
  00136	7c 8c		 jl	 SHORT $LL7@RecalcSymb
$LN2@RecalcSymb:

; 744  : 	int nBlkRowCount;
; 745  : 	for( int col = 0; col < nBlkColCount; col++ )

  00138	43		 inc	 ebx
  00139	3b 5d e0	 cmp	 ebx, DWORD PTR _nBlkColCount$1$[ebp]
  0013c	0f 8c 71 ff ff
	ff		 jl	 $LL4@RecalcSymb
$LN3@RecalcSymb:

; 754  : 		}
; 755  : 	}	
; 756  : 	
; 757  : 	if( pPacket) pPacket->Release();

  00142	8b 4d ec	 mov	 ecx, DWORD PTR _pPacket$1$[ebp]
  00145	85 c9		 test	 ecx, ecx
  00147	74 06		 je	 SHORT $LN11@RecalcSymb
  00149	8b 01		 mov	 eax, DWORD PTR [ecx]
  0014b	51		 push	 ecx
  0014c	ff 50 08	 call	 DWORD PTR [eax+8]
$LN11@RecalcSymb:

; 758  : 	if( pIChartManager) pIChartManager->Release();

  0014f	8b 07		 mov	 eax, DWORD PTR [edi]
  00151	57		 push	 edi
  00152	ff 50 08	 call	 DWORD PTR [eax+8]

; 759  : 
; 760  : 	return true;

  00155	8d 4d e8	 lea	 ecx, DWORD PTR _strCurrentRQ$[ebp]
  00158	ff 15 00 00 00
	00		 call	 DWORD PTR __imp_??1?$CStringT@DV?$StrTraitMFC_DLL@DV?$ChTraitsCRT@D@ATL@@@@@ATL@@QAE@XZ
; File D:\git\src\IBK\IBK_DRFN\ProjSrc\SrcChartEx\ChartAddIn\ChartAnalysisToolAddIn\Include_AddIn_133101\I133101\_IString.h

; 45   : 		if( m_pIStrData)

  0015e	8b 4d d4	 mov	 ecx, DWORD PTR _szCurrentRQ$[ebp+4]
  00161	c7 45 fc 05 00
	00 00		 mov	 DWORD PTR __$EHRec$[ebp+8], 5
  00168	85 c9		 test	 ecx, ecx
  0016a	74 06		 je	 SHORT $LN46@RecalcSymb

; 46   : 		{
; 47   : 			m_pIStrData->Release();

  0016c	8b 01		 mov	 eax, DWORD PTR [ecx]
  0016e	51		 push	 ecx
  0016f	ff 50 08	 call	 DWORD PTR [eax+8]
$LN46@RecalcSymb:
; File D:\git\src\IBK\IBK_DRFN\ProjSrc\SrcChartEx\ChartAddIn\ChartAnalysisToolAddIn\Symbol\MainSymbolImplementation.cpp

; 761  : }

  00172	b0 01		 mov	 al, 1
  00174	8b 4d f4	 mov	 ecx, DWORD PTR __$EHRec$[ebp]
  00177	64 89 0d 00 00
	00 00		 mov	 DWORD PTR fs:0, ecx
  0017e	59		 pop	 ecx
  0017f	5f		 pop	 edi
  00180	5e		 pop	 esi
  00181	5b		 pop	 ebx
  00182	8b e5		 mov	 esp, ebp
  00184	5d		 pop	 ebp
  00185	c2 08 00	 ret	 8
_TEXT	ENDS
;	COMDAT text$x
text$x	SEGMENT
__unwindfunclet$?RecalcSymbolXPoint@CMainSymbolImplementation@@QAE_NPBDH@Z$0:
  00000	8d 4d d0	 lea	 ecx, DWORD PTR _szCurrentRQ$[ebp]
  00003	e9 00 00 00 00	 jmp	 ??1ILPCSTR133101@@QAE@XZ ; ILPCSTR133101::~ILPCSTR133101
__unwindfunclet$?RecalcSymbolXPoint@CMainSymbolImplementation@@QAE_NPBDH@Z$1:
  00008	8d 4d e8	 lea	 ecx, DWORD PTR _strCurrentRQ$[ebp]
  0000b	ff 25 00 00 00
	00		 jmp	 DWORD PTR __imp_??1?$CStringT@DV?$StrTraitMFC_DLL@DV?$ChTraitsCRT@D@ATL@@@@@ATL@@QAE@XZ
__unwindfunclet$?RecalcSymbolXPoint@CMainSymbolImplementation@@QAE_NPBDH@Z$2:
  00011	8d 4d d8	 lea	 ecx, DWORD PTR _szMasterRQ$2[ebp]
  00014	e9 00 00 00 00	 jmp	 ??1ILPCSTR133101@@QAE@XZ ; ILPCSTR133101::~ILPCSTR133101
  00019	cc		 int	 3
  0001a	cc		 int	 3
  0001b	cc		 int	 3
  0001c	cc		 int	 3
  0001d	cc		 int	 3
__ehhandler$?RecalcSymbolXPoint@CMainSymbolImplementation@@QAE_NPBDH@Z:
  0001e	90		 npad	 1
  0001f	90		 npad	 1
  00020	8b 54 24 08	 mov	 edx, DWORD PTR [esp+8]
  00024	8d 42 0c	 lea	 eax, DWORD PTR [edx+12]
  00027	8b 4a cc	 mov	 ecx, DWORD PTR [edx-52]
  0002a	33 c8		 xor	 ecx, eax
  0002c	e8 00 00 00 00	 call	 @__security_check_cookie@4
  00031	b8 00 00 00 00	 mov	 eax, OFFSET __ehfuncinfo$?RecalcSymbolXPoint@CMainSymbolImplementation@@QAE_NPBDH@Z
  00036	e9 00 00 00 00	 jmp	 ___CxxFrameHandler3
text$x	ENDS
?RecalcSymbolXPoint@CMainSymbolImplementation@@QAE_NPBDH@Z ENDP ; CMainSymbolImplementation::RecalcSymbolXPoint
; Function compile flags: /Ogtp
; File D:\git\src\IBK\IBK_DRFN\ProjSrc\SrcChartEx\ChartAddIn\ChartAnalysisToolAddIn\Symbol\MainSymbolImplementation.cpp
;	COMDAT ?ChangeAllSymbolsColor@CMainSymbolImplementation@@QAEXABK0@Z
_TEXT	SEGMENT
_crLine$ = 8						; size = 4
_crText$ = 12						; size = 4
?ChangeAllSymbolsColor@CMainSymbolImplementation@@QAEXABK0@Z PROC ; CMainSymbolImplementation::ChangeAllSymbolsColor, COMDAT
; _this$ = ecx

; 726  : {

  00000	55		 push	 ebp
  00001	8b ec		 mov	 ebp, esp

; 727  : 	m_symboldata.GetElementTree()->ChangeAllSymbolsColor(crLine, crText);

  00003	ff 75 0c	 push	 DWORD PTR _crText$[ebp]
  00006	83 c1 28	 add	 ecx, 40			; 00000028H
  00009	ff 75 08	 push	 DWORD PTR _crLine$[ebp]
  0000c	e8 00 00 00 00	 call	 ?GetElementTree@CSymbolData@@QAEPAVCElementTree@@XZ ; CSymbolData::GetElementTree
  00011	8b c8		 mov	 ecx, eax
  00013	e8 00 00 00 00	 call	 ?ChangeAllSymbolsColor@CElementTree@@QAEXABK0@Z ; CElementTree::ChangeAllSymbolsColor

; 728  : }

  00018	5d		 pop	 ebp
  00019	c2 08 00	 ret	 8
?ChangeAllSymbolsColor@CMainSymbolImplementation@@QAEXABK0@Z ENDP ; CMainSymbolImplementation::ChangeAllSymbolsColor
_TEXT	ENDS
; Function compile flags: /Ogtp
; File D:\git\src\IBK\IBK_DRFN\ProjSrc\SrcChartEx\ChartAddIn\ChartAnalysisToolAddIn\Symbol\MainSymbolImplementation.cpp
; File C:\Program Files (x86)\Microsoft Visual Studio\2019\Community\VC\Tools\MSVC\14.29.30133\atlmfc\include\atltypes.h
; File D:\git\src\IBK\IBK_DRFN\ProjSrc\SrcChartEx\ChartAddIn\ChartAnalysisToolAddIn\Symbol\MainSymbolImplementation.cpp
;	COMDAT ?GetDrawingTotalRegion@CMainSymbolImplementation@@QAE?AVCRect@@VCPoint@@@Z
_TEXT	SEGMENT
$T1 = -20						; size = 16
__$ArrayPad$ = -4					; size = 4
___$ReturnUdt$ = 8					; size = 4
_point$ = 12						; size = 8
?GetDrawingTotalRegion@CMainSymbolImplementation@@QAE?AVCRect@@VCPoint@@@Z PROC ; CMainSymbolImplementation::GetDrawingTotalRegion, COMDAT
; _this$ = ecx

; 718  : {

  00000	55		 push	 ebp
  00001	8b ec		 mov	 ebp, esp
  00003	83 ec 14	 sub	 esp, 20			; 00000014H
  00006	a1 00 00 00 00	 mov	 eax, DWORD PTR ___security_cookie
  0000b	33 c5		 xor	 eax, ebp
  0000d	89 45 fc	 mov	 DWORD PTR __$ArrayPad$[ebp], eax
  00010	56		 push	 esi
  00011	57		 push	 edi
  00012	8b 7d 08	 mov	 edi, DWORD PTR ___$ReturnUdt$[ebp]

; 719  : 	IChartManager *pIChartManager = m_symboldata.GetMainBlock();

  00015	83 c1 28	 add	 ecx, 40			; 00000028H
  00018	e8 00 00 00 00	 call	 ?GetMainBlock@CSymbolData@@QBEPAUIChartManager133101@@XZ ; CSymbolData::GetMainBlock

; 720  : 	CRect rectRegion = pIChartManager->GetGraphRegionSumInColumn(point);

  0001d	ff 75 10	 push	 DWORD PTR _point$[ebp+4]
  00020	8b f0		 mov	 esi, eax
  00022	8d 45 ec	 lea	 eax, DWORD PTR $T1[ebp]
  00025	ff 75 0c	 push	 DWORD PTR _point$[ebp]
  00028	8b ce		 mov	 ecx, esi
  0002a	50		 push	 eax
  0002b	8b 16		 mov	 edx, DWORD PTR [esi]
  0002d	ff 92 88 00 00
	00		 call	 DWORD PTR [edx+136]
; File C:\Program Files (x86)\Microsoft Visual Studio\2019\Community\VC\Tools\MSVC\14.29.30133\atlmfc\include\atltypes.h

; 548  : 	::CopyRect(this, &srcRect);

  00033	50		 push	 eax
  00034	57		 push	 edi
  00035	ff 15 00 00 00
	00		 call	 DWORD PTR __imp__CopyRect@8
; File D:\git\src\IBK\IBK_DRFN\ProjSrc\SrcChartEx\ChartAddIn\ChartAnalysisToolAddIn\Symbol\MainSymbolImplementation.cpp

; 721  : 	pIChartManager->Release();	

  0003b	8b 0e		 mov	 ecx, DWORD PTR [esi]
  0003d	56		 push	 esi
  0003e	ff 51 08	 call	 DWORD PTR [ecx+8]

; 722  : 	return rectRegion;
; 723  : }

  00041	8b 4d fc	 mov	 ecx, DWORD PTR __$ArrayPad$[ebp]
  00044	8b c7		 mov	 eax, edi
  00046	5f		 pop	 edi
  00047	33 cd		 xor	 ecx, ebp
  00049	5e		 pop	 esi
  0004a	e8 00 00 00 00	 call	 @__security_check_cookie@4
  0004f	8b e5		 mov	 esp, ebp
  00051	5d		 pop	 ebp
  00052	c2 0c 00	 ret	 12			; 0000000cH
?GetDrawingTotalRegion@CMainSymbolImplementation@@QAE?AVCRect@@VCPoint@@@Z ENDP ; CMainSymbolImplementation::GetDrawingTotalRegion
_TEXT	ENDS
; Function compile flags: /Ogtp
; File D:\git\src\IBK\IBK_DRFN\ProjSrc\SrcChartEx\ChartAddIn\ChartAnalysisToolAddIn\Symbol\MainSymbolImplementation.cpp
;	COMDAT ?DrawSymbolTool@CMainSymbolImplementation@@QAEXPAVCDC@@@Z
_TEXT	SEGMENT
_pDC$ = 8						; size = 4
?DrawSymbolTool@CMainSymbolImplementation@@QAEXPAVCDC@@@Z PROC ; CMainSymbolImplementation::DrawSymbolTool, COMDAT
; _this$ = ecx

; 272  : {

  00000	55		 push	 ebp
  00001	8b ec		 mov	 ebp, esp

; 273  : 	if(m_pSymbolTool != NULL)

  00003	8b 49 24	 mov	 ecx, DWORD PTR [ecx+36]
  00006	85 c9		 test	 ecx, ecx
  00008	74 06		 je	 SHORT $LN2@DrawSymbol

; 274  : 	{
; 275  : 		//if(m_pDrawingSymbol != NULL)
; 276  : 		//	m_pDrawingSymbol->OnDraw(pDC);
; 277  : 		//else
; 278  : 			m_pSymbolTool->OnDraw(pDC);

  0000a	8b 01		 mov	 eax, DWORD PTR [ecx]

; 279  : 	}
; 280  : }

  0000c	5d		 pop	 ebp

; 274  : 	{
; 275  : 		//if(m_pDrawingSymbol != NULL)
; 276  : 		//	m_pDrawingSymbol->OnDraw(pDC);
; 277  : 		//else
; 278  : 			m_pSymbolTool->OnDraw(pDC);

  0000d	ff 60 14	 jmp	 DWORD PTR [eax+20]
$LN2@DrawSymbol:

; 279  : 	}
; 280  : }

  00010	5d		 pop	 ebp
  00011	c2 04 00	 ret	 4
?DrawSymbolTool@CMainSymbolImplementation@@QAEXPAVCDC@@@Z ENDP ; CMainSymbolImplementation::DrawSymbolTool
_TEXT	ENDS
; Function compile flags: /Ogtp
; File D:\git\src\IBK\IBK_DRFN\ProjSrc\SrcChartEx\ChartAddIn\ChartAnalysisToolAddIn\Symbol\MainSymbolImplementation.cpp
; File C:\Program Files (x86)\Microsoft Visual Studio\2019\Community\VC\Tools\MSVC\14.29.30133\atlmfc\include\atltypes.h
; File D:\git\src\IBK\IBK_DRFN\ProjSrc\SrcChartEx\ChartAddIn\ChartAnalysisToolAddIn\Symbol\MainSymbolImplementation.cpp
; File C:\Program Files (x86)\Microsoft Visual Studio\2019\Community\VC\Tools\MSVC\14.29.30133\atlmfc\include\atltypes.h
; File D:\git\src\IBK\IBK_DRFN\ProjSrc\SrcChartEx\ChartAddIn\ChartAnalysisToolAddIn\Symbol\MainSymbolImplementation.cpp
; File C:\Program Files (x86)\Microsoft Visual Studio\2019\Community\VC\Tools\MSVC\14.29.30133\atlmfc\include\atltypes.h
; File D:\git\src\IBK\IBK_DRFN\ProjSrc\SrcChartEx\ChartAddIn\ChartAnalysisToolAddIn\Symbol\MainSymbolImplementation.cpp
; File C:\Program Files (x86)\Microsoft Visual Studio\2019\Community\VC\Tools\MSVC\14.29.30133\atlmfc\include\atltypes.h
; File D:\git\src\IBK\IBK_DRFN\ProjSrc\SrcChartEx\ChartAddIn\ChartAnalysisToolAddIn\Symbol\MainSymbolImplementation.cpp
; File C:\Program Files (x86)\Microsoft Visual Studio\2019\Community\VC\Tools\MSVC\14.29.30133\atlmfc\include\atltypes.h
; File D:\git\src\IBK\IBK_DRFN\ProjSrc\SrcChartEx\ChartAddIn\ChartAnalysisToolAddIn\Symbol\MainSymbolImplementation.cpp
; File C:\Program Files (x86)\Microsoft Visual Studio\2019\Community\VC\Tools\MSVC\14.29.30133\atlmfc\include\atltypes.h
; File D:\git\src\IBK\IBK_DRFN\ProjSrc\SrcChartEx\ChartAddIn\ChartAnalysisToolAddIn\Symbol\MainSymbolImplementation.cpp
; File C:\Program Files (x86)\Microsoft Visual Studio\2019\Community\VC\Tools\MSVC\14.29.30133\atlmfc\include\atltypes.h
; File D:\git\src\IBK\IBK_DRFN\ProjSrc\SrcChartEx\ChartAddIn\ChartAnalysisToolAddIn\Symbol\MainSymbolImplementation.cpp
; File C:\Program Files (x86)\Microsoft Visual Studio\2019\Community\VC\Tools\MSVC\14.29.30133\atlmfc\include\atltypes.h
; File D:\git\src\IBK\IBK_DRFN\ProjSrc\SrcChartEx\ChartAddIn\ChartAnalysisToolAddIn\Symbol\MainSymbolImplementation.cpp
;	COMDAT ?SetElementCopy@CMainSymbolImplementation@@QAEXXZ
_TEXT	SEGMENT
_coordStart$2 = -216					; size = 24
$T3 = -192						; size = 8
$T4 = -184						; size = 8
$T5 = -184						; size = 8
tv514 = -176						; size = 4
_ptGap$ = -172						; size = 8
_pt1$6 = -164						; size = 8
_pt1$7 = -164						; size = 8
$T8 = -164						; size = 8
_this$GSCopy$1$ = -160					; size = 4
_calculator$ = -153					; size = 1
_calData$ = -152					; size = 96
_coordStart$9 = -56					; size = 24
$T10 = -48						; size = 16
_rcGrpRegion$ = -32					; size = 16
__$ArrayPad$ = -16					; size = 4
__$EHRec$ = -12						; size = 12
?SetElementCopy@CMainSymbolImplementation@@QAEXXZ PROC	; CMainSymbolImplementation::SetElementCopy, COMDAT
; _this$ = ecx

; 669  : {

  00000	55		 push	 ebp
  00001	8b ec		 mov	 ebp, esp
  00003	6a ff		 push	 -1
  00005	68 00 00 00 00	 push	 __ehhandler$?SetElementCopy@CMainSymbolImplementation@@QAEXXZ
  0000a	64 a1 00 00 00
	00		 mov	 eax, DWORD PTR fs:0
  00010	50		 push	 eax
  00011	81 ec cc 00 00
	00		 sub	 esp, 204		; 000000ccH
  00017	a1 00 00 00 00	 mov	 eax, DWORD PTR ___security_cookie
  0001c	33 c5		 xor	 eax, ebp
  0001e	89 45 f0	 mov	 DWORD PTR __$ArrayPad$[ebp], eax
  00021	53		 push	 ebx
  00022	56		 push	 esi
  00023	57		 push	 edi
  00024	50		 push	 eax
  00025	8d 45 f4	 lea	 eax, DWORD PTR __$EHRec$[ebp]
  00028	64 a3 00 00 00
	00		 mov	 DWORD PTR fs:0, eax
  0002e	8b f1		 mov	 esi, ecx
  00030	89 b5 60 ff ff
	ff		 mov	 DWORD PTR _this$GSCopy$1$[ebp], esi

; 670  : 	if(m_pDrawingSymbol == NULL)	

  00036	8b 46 20	 mov	 eax, DWORD PTR [esi+32]
  00039	85 c0		 test	 eax, eax
  0003b	0f 84 e4 01 00
	00		 je	 $LN1@SetElement

; 671  : 		return;
; 672  : 
; 673  : //>> (2008/12/16 - Seung-Lyong Park) Symbol 
; 674  : 	CDrawingSymbol* pNewDrawingSymbol = NULL;
; 675  : 	pNewDrawingSymbol = m_symboldata.CopySymbol(m_pDrawingSymbol);

  00041	8d 5e 28	 lea	 ebx, DWORD PTR [esi+40]
  00044	50		 push	 eax
  00045	8b cb		 mov	 ecx, ebx
  00047	89 9d 50 ff ff
	ff		 mov	 DWORD PTR tv514[ebp], ebx
  0004d	e8 00 00 00 00	 call	 ?CopySymbol@CSymbolData@@QAEPAVCDrawingSymbol@@PAV2@@Z ; CSymbolData::CopySymbol

; 676  : 	if(pNewDrawingSymbol == NULL)

  00052	85 c0		 test	 eax, eax
  00054	0f 84 cb 01 00
	00		 je	 $LN1@SetElement

; 677  : 		return;
; 678  : 
; 679  : 	m_pDrawingSymbol = pNewDrawingSymbol;
; 680  : 
; 681  : 	IChartManager *pIChartManager = m_symboldata.GetMainBlock();

  0005a	8b cb		 mov	 ecx, ebx
  0005c	89 46 20	 mov	 DWORD PTR [esi+32], eax
  0005f	e8 00 00 00 00	 call	 ?GetMainBlock@CSymbolData@@QBEPAUIChartManager133101@@XZ ; CSymbolData::GetMainBlock

; 682  : 	IBlock* pBlock = pIChartManager->GetBlock(m_symboldata.GetBlockIndexInSymbol((long)m_pDrawingSymbol).GetRow(), m_symboldata.GetBlockIndexInSymbol((long)m_pDrawingSymbol).GetColumn());

  00064	ff 76 20	 push	 DWORD PTR [esi+32]
  00067	8b d8		 mov	 ebx, eax
  00069	8d 4e 28	 lea	 ecx, DWORD PTR [esi+40]
  0006c	8d 85 48 ff ff
	ff		 lea	 eax, DWORD PTR $T5[ebp]
  00072	50		 push	 eax
  00073	8b 3b		 mov	 edi, DWORD PTR [ebx]
  00075	e8 00 00 00 00	 call	 ?GetBlockIndexInSymbol@CSymbolData@@QBE?AVCBlockIndex@@J@Z ; CSymbolData::GetBlockIndexInSymbol
  0007a	8b 8d 50 ff ff
	ff		 mov	 ecx, DWORD PTR tv514[ebp]
  00080	8b 70 04	 mov	 esi, DWORD PTR [eax+4]
  00083	8b 85 60 ff ff
	ff		 mov	 eax, DWORD PTR _this$GSCopy$1$[ebp]
  00089	ff 70 20	 push	 DWORD PTR [eax+32]
  0008c	8d 85 40 ff ff
	ff		 lea	 eax, DWORD PTR $T3[ebp]
  00092	50		 push	 eax
  00093	e8 00 00 00 00	 call	 ?GetBlockIndexInSymbol@CSymbolData@@QBE?AVCBlockIndex@@J@Z ; CSymbolData::GetBlockIndexInSymbol
  00098	56		 push	 esi
  00099	8b cb		 mov	 ecx, ebx
  0009b	ff 30		 push	 DWORD PTR [eax]
  0009d	ff 57 38	 call	 DWORD PTR [edi+56]

; 683  : 	pIChartManager->Release();

  000a0	8b 0b		 mov	 ecx, DWORD PTR [ebx]
  000a2	8b f0		 mov	 esi, eax
  000a4	53		 push	 ebx
  000a5	ff 51 08	 call	 DWORD PTR [ecx+8]

; 684  : 	CRect rcGrpRegion = pBlock->GetGraphDrwingRegion();

  000a8	8b 16		 mov	 edx, DWORD PTR [esi]
  000aa	8d 45 d0	 lea	 eax, DWORD PTR $T10[ebp]
  000ad	6a 00		 push	 0
  000af	50		 push	 eax
  000b0	8b ce		 mov	 ecx, esi
  000b2	ff 52 1c	 call	 DWORD PTR [edx+28]
; File C:\Program Files (x86)\Microsoft Visual Studio\2019\Community\VC\Tools\MSVC\14.29.30133\atlmfc\include\atltypes.h

; 548  : 	::CopyRect(this, &srcRect);

  000b5	50		 push	 eax
  000b6	8d 45 e0	 lea	 eax, DWORD PTR _rcGrpRegion$[ebp]
  000b9	50		 push	 eax
  000ba	ff 15 00 00 00
	00		 call	 DWORD PTR __imp__CopyRect@8
; File D:\git\src\IBK\IBK_DRFN\ProjSrc\SrcChartEx\ChartAddIn\ChartAnalysisToolAddIn\Symbol\MainSymbolImplementation.cpp

; 685  : 	pBlock->Release();

  000c0	8b 06		 mov	 eax, DWORD PTR [esi]
  000c2	56		 push	 esi
  000c3	ff 50 08	 call	 DWORD PTR [eax+8]

; 688  : 	CSymbolBaseData::TOOLTYPE eType = m_pDrawingSymbol->GetSymbolType();

  000c6	8b 9d 60 ff ff
	ff		 mov	 ebx, DWORD PTR _this$GSCopy$1$[ebp]
; File C:\Program Files (x86)\Microsoft Visual Studio\2019\Community\VC\Tools\MSVC\14.29.30133\atlmfc\include\atltypes.h

; 408  : 	x = initX;

  000cc	c7 85 54 ff ff
	ff 00 00 00 00	 mov	 DWORD PTR _ptGap$[ebp], 0

; 409  : 	y = initY;

  000d6	c7 85 58 ff ff
	ff 00 00 00 00	 mov	 DWORD PTR _ptGap$[ebp+4], 0
; File D:\git\src\IBK\IBK_DRFN\ProjSrc\SrcChartEx\ChartAddIn\ChartAnalysisToolAddIn\Symbol\MainSymbolImplementation.cpp

; 688  : 	CSymbolBaseData::TOOLTYPE eType = m_pDrawingSymbol->GetSymbolType();

  000e0	8b 4b 20	 mov	 ecx, DWORD PTR [ebx+32]
  000e3	e8 00 00 00 00	 call	 ?GetSymbolType@CDrawingSymbol@@QAE?AW4TOOLTYPE@CSymbolBaseData@@XZ ; CDrawingSymbol::GetSymbolType
; File C:\Program Files (x86)\Microsoft Visual Studio\2019\Community\VC\Tools\MSVC\14.29.30133\atlmfc\include\atltypes.h

; 611  : 	return CPoint((left+right)/2, (top+bottom)/2);

  000e8	8b 55 ec	 mov	 edx, DWORD PTR _rcGrpRegion$[ebp+12]
; File D:\git\src\IBK\IBK_DRFN\ProjSrc\SrcChartEx\ChartAddIn\ChartAnalysisToolAddIn\Symbol\MainSymbolImplementation.cpp

; 688  : 	CSymbolBaseData::TOOLTYPE eType = m_pDrawingSymbol->GetSymbolType();

  000eb	8b f8		 mov	 edi, eax
; File C:\Program Files (x86)\Microsoft Visual Studio\2019\Community\VC\Tools\MSVC\14.29.30133\atlmfc\include\atltypes.h

; 611  : 	return CPoint((left+right)/2, (top+bottom)/2);

  000ed	8b 45 e4	 mov	 eax, DWORD PTR _rcGrpRegion$[ebp+4]
; File D:\git\src\IBK\IBK_DRFN\ProjSrc\SrcChartEx\ChartAddIn\ChartAnalysisToolAddIn\Symbol\MainSymbolImplementation.cpp

; 690  : 	CCoordinateCalculatorData calData = m_pSymbolTool->GetCoordinateCalculatorData( rcGrpRegion.CenterPoint());

  000f0	8b 4b 24	 mov	 ecx, DWORD PTR [ebx+36]
; File C:\Program Files (x86)\Microsoft Visual Studio\2019\Community\VC\Tools\MSVC\14.29.30133\atlmfc\include\atltypes.h

; 611  : 	return CPoint((left+right)/2, (top+bottom)/2);

  000f3	8d 04 10	 lea	 eax, DWORD PTR [eax+edx]
  000f6	99		 cdq
  000f7	2b c2		 sub	 eax, edx
  000f9	8b 55 e0	 mov	 edx, DWORD PTR _rcGrpRegion$[ebp]
  000fc	8b f0		 mov	 esi, eax
  000fe	8b 45 e8	 mov	 eax, DWORD PTR _rcGrpRegion$[ebp+8]
  00101	d1 fe		 sar	 esi, 1

; 409  : 	y = initY;

  00103	89 b5 4c ff ff
	ff		 mov	 DWORD PTR $T4[ebp+4], esi

; 611  : 	return CPoint((left+right)/2, (top+bottom)/2);

  00109	8d 04 10	 lea	 eax, DWORD PTR [eax+edx]
  0010c	99		 cdq
  0010d	2b c2		 sub	 eax, edx
  0010f	d1 f8		 sar	 eax, 1

; 408  : 	x = initX;

  00111	89 85 48 ff ff
	ff		 mov	 DWORD PTR $T4[ebp], eax
; File D:\git\src\IBK\IBK_DRFN\ProjSrc\SrcChartEx\ChartAddIn\ChartAnalysisToolAddIn\Symbol\MainSymbolImplementation.cpp

; 690  : 	CCoordinateCalculatorData calData = m_pSymbolTool->GetCoordinateCalculatorData( rcGrpRegion.CenterPoint());

  00117	8d 85 48 ff ff
	ff		 lea	 eax, DWORD PTR $T4[ebp]
  0011d	50		 push	 eax
  0011e	8d 85 68 ff ff
	ff		 lea	 eax, DWORD PTR _calData$[ebp]
  00124	50		 push	 eax
  00125	e8 00 00 00 00	 call	 ?GetCoordinateCalculatorData@CSymbolTool@@QBE?AVCCoordinateCalculatorData@@ABVCPoint@@@Z ; CSymbolTool::GetCoordinateCalculatorData
  0012a	c7 45 fc 00 00
	00 00		 mov	 DWORD PTR __$EHRec$[ebp+8], 0

; 691  : 
; 692  : 	if( eType == CSymbolBaseData::SYMBOL_SQUARE || eType == CSymbolBaseData::SYMBOL_CIRCLE ||

  00131	83 ff 01	 cmp	 edi, 1
  00134	0f 84 82 00 00
	00		 je	 $LN6@SetElement
  0013a	83 ff 02	 cmp	 edi, 2
  0013d	74 7d		 je	 SHORT $LN6@SetElement
  0013f	83 ff 03	 cmp	 edi, 3
  00142	74 78		 je	 SHORT $LN6@SetElement

; 693  : 		eType == CSymbolBaseData::SYMBOL_TRIANGLE )
; 694  : 	{
; 695  : 		ptGap.Offset(10,10);
; 696  : 		m_pDrawingSymbol->TranslatePoint(false, rcGrpRegion.CenterPoint(), ptGap, rcGrpRegion, calData);
; 697  : 	}
; 698  : 	else if(eType == CSymbolBaseData::SYMBOL_TEXT)

  00144	8b 4b 20	 mov	 ecx, DWORD PTR [ebx+32]
  00147	8b 01		 mov	 eax, DWORD PTR [ecx]
  00149	83 ff 04	 cmp	 edi, 4
  0014c	75 34		 jne	 SHORT $LN7@SetElement

; 699  : 	{
; 700  : 		CCoordinate coordStart = m_pDrawingSymbol->GetStartPoint();

  0014e	8d 55 c8	 lea	 edx, DWORD PTR _coordStart$9[ebp]
  00151	52		 push	 edx
  00152	ff 50 20	 call	 DWORD PTR [eax+32]

; 701  : 		CPoint pt1(calculator.RelativeToAbsolute(calData, coordStart));

  00155	8d 45 c8	 lea	 eax, DWORD PTR _coordStart$9[ebp]
  00158	50		 push	 eax
  00159	8d 85 68 ff ff
	ff		 lea	 eax, DWORD PTR _calData$[ebp]
  0015f	50		 push	 eax
  00160	8d 85 5c ff ff
	ff		 lea	 eax, DWORD PTR _pt1$7[ebp]
  00166	50		 push	 eax
  00167	8d 8d 67 ff ff
	ff		 lea	 ecx, DWORD PTR _calculator$[ebp]
  0016d	e8 00 00 00 00	 call	 ?RelativeToAbsolute@CCoordinateCalculator@@QBE?AVCPoint@@ABVCCoordinateCalculatorData@@ABVCCoordinate@@@Z ; CCoordinateCalculator::RelativeToAbsolute
; File C:\Program Files (x86)\Microsoft Visual Studio\2019\Community\VC\Tools\MSVC\14.29.30133\atlmfc\include\atltypes.h

; 432  : 	x += xOffset;

  00172	83 ad 54 ff ff
	ff 0a		 sub	 DWORD PTR _ptGap$[ebp], 10 ; 0000000aH

; 433  : 	y += yOffset;

  00179	83 ad 58 ff ff
	ff 0a		 sub	 DWORD PTR _ptGap$[ebp+4], 10 ; 0000000aH
; File D:\git\src\IBK\IBK_DRFN\ProjSrc\SrcChartEx\ChartAddIn\ChartAnalysisToolAddIn\Symbol\MainSymbolImplementation.cpp

; 704  : 	}

  00180	eb 6a		 jmp	 SHORT $LN30@SetElement
$LN7@SetElement:

; 705  : 	else
; 706  : 	{
; 707  : 		CCoordinate coordStart = m_pDrawingSymbol->GetStartPoint();

  00182	8d 95 28 ff ff
	ff		 lea	 edx, DWORD PTR _coordStart$2[ebp]
  00188	52		 push	 edx
  00189	ff 50 20	 call	 DWORD PTR [eax+32]

; 708  : 		CPoint pt1(calculator.RelativeToAbsolute(calData, coordStart));

  0018c	8d 85 28 ff ff
	ff		 lea	 eax, DWORD PTR _coordStart$2[ebp]
  00192	50		 push	 eax
  00193	8d 85 68 ff ff
	ff		 lea	 eax, DWORD PTR _calData$[ebp]
  00199	50		 push	 eax
  0019a	8d 85 5c ff ff
	ff		 lea	 eax, DWORD PTR _pt1$6[ebp]
  001a0	50		 push	 eax
  001a1	8d 8d 67 ff ff
	ff		 lea	 ecx, DWORD PTR _calculator$[ebp]
  001a7	e8 00 00 00 00	 call	 ?RelativeToAbsolute@CCoordinateCalculator@@QBE?AVCPoint@@ABVCCoordinateCalculatorData@@ABVCCoordinate@@@Z ; CCoordinateCalculator::RelativeToAbsolute
; File C:\Program Files (x86)\Microsoft Visual Studio\2019\Community\VC\Tools\MSVC\14.29.30133\atlmfc\include\atltypes.h

; 432  : 	x += xOffset;

  001ac	83 85 5c ff ff
	ff 0a		 add	 DWORD PTR _pt1$6[ebp], 10 ; 0000000aH

; 433  : 	y += yOffset;

  001b3	83 85 60 ff ff
	ff 0a		 add	 DWORD PTR _pt1$6[ebp+4], 10 ; 0000000aH
; File D:\git\src\IBK\IBK_DRFN\ProjSrc\SrcChartEx\ChartAddIn\ChartAnalysisToolAddIn\Symbol\MainSymbolImplementation.cpp

; 710  : 		m_pDrawingSymbol->TranslatePoint(false, pt1, ptGap, rcGrpRegion, calData);

  001ba	eb 30		 jmp	 SHORT $LN30@SetElement
$LN6@SetElement:
; File C:\Program Files (x86)\Microsoft Visual Studio\2019\Community\VC\Tools\MSVC\14.29.30133\atlmfc\include\atltypes.h

; 611  : 	return CPoint((left+right)/2, (top+bottom)/2);

  001bc	8b 45 e8	 mov	 eax, DWORD PTR _rcGrpRegion$[ebp+8]
  001bf	03 45 e0	 add	 eax, DWORD PTR _rcGrpRegion$[ebp]

; 432  : 	x += xOffset;

  001c2	83 85 54 ff ff
	ff 0a		 add	 DWORD PTR _ptGap$[ebp], 10 ; 0000000aH

; 433  : 	y += yOffset;

  001c9	83 85 58 ff ff
	ff 0a		 add	 DWORD PTR _ptGap$[ebp+4], 10 ; 0000000aH

; 611  : 	return CPoint((left+right)/2, (top+bottom)/2);

  001d0	99		 cdq
  001d1	2b c2		 sub	 eax, edx
  001d3	d1 f8		 sar	 eax, 1

; 408  : 	x = initX;

  001d5	89 85 5c ff ff
	ff		 mov	 DWORD PTR $T8[ebp], eax

; 611  : 	return CPoint((left+right)/2, (top+bottom)/2);

  001db	8b 45 e4	 mov	 eax, DWORD PTR _rcGrpRegion$[ebp+4]
  001de	03 45 ec	 add	 eax, DWORD PTR _rcGrpRegion$[ebp+12]
  001e1	99		 cdq
  001e2	2b c2		 sub	 eax, edx
  001e4	d1 f8		 sar	 eax, 1

; 409  : 	y = initY;

  001e6	89 85 60 ff ff
	ff		 mov	 DWORD PTR $T8[ebp+4], eax
$LN30@SetElement:
; File D:\git\src\IBK\IBK_DRFN\ProjSrc\SrcChartEx\ChartAddIn\ChartAnalysisToolAddIn\Symbol\MainSymbolImplementation.cpp

; 713  : 	m_symboldata.Invalidate();

  001ec	8b 4b 20	 mov	 ecx, DWORD PTR [ebx+32]
  001ef	8d 95 68 ff ff
	ff		 lea	 edx, DWORD PTR _calData$[ebp]
  001f5	52		 push	 edx
  001f6	8d 55 e0	 lea	 edx, DWORD PTR _rcGrpRegion$[ebp]
  001f9	52		 push	 edx
  001fa	8b 01		 mov	 eax, DWORD PTR [ecx]
  001fc	8d 95 54 ff ff
	ff		 lea	 edx, DWORD PTR _ptGap$[ebp]
  00202	52		 push	 edx
  00203	8d 95 5c ff ff
	ff		 lea	 edx, DWORD PTR $T8[ebp]
  00209	52		 push	 edx
  0020a	6a 00		 push	 0
  0020c	ff 50 14	 call	 DWORD PTR [eax+20]
  0020f	8b 8d 50 ff ff
	ff		 mov	 ecx, DWORD PTR tv514[ebp]
  00215	e8 00 00 00 00	 call	 ?Invalidate@CSymbolData@@QAEXXZ ; CSymbolData::Invalidate

; 714  : //<< (2008/12/16 - Seung-Lyong Park) Symbol 
; 715  : }

  0021a	8d 8d 68 ff ff
	ff		 lea	 ecx, DWORD PTR _calData$[ebp]
  00220	e8 00 00 00 00	 call	 ??1CCoordinateCalculatorData@@QAE@XZ ; CCoordinateCalculatorData::~CCoordinateCalculatorData
$LN1@SetElement:
  00225	8b 4d f4	 mov	 ecx, DWORD PTR __$EHRec$[ebp]
  00228	64 89 0d 00 00
	00 00		 mov	 DWORD PTR fs:0, ecx
  0022f	59		 pop	 ecx
  00230	5f		 pop	 edi
  00231	5e		 pop	 esi
  00232	5b		 pop	 ebx
  00233	8b 4d f0	 mov	 ecx, DWORD PTR __$ArrayPad$[ebp]
  00236	33 cd		 xor	 ecx, ebp
  00238	e8 00 00 00 00	 call	 @__security_check_cookie@4
  0023d	8b e5		 mov	 esp, ebp
  0023f	5d		 pop	 ebp
  00240	c3		 ret	 0
_TEXT	ENDS
;	COMDAT text$x
text$x	SEGMENT
__unwindfunclet$?SetElementCopy@CMainSymbolImplementation@@QAEXXZ$0:
  00000	8d 8d 68 ff ff
	ff		 lea	 ecx, DWORD PTR _calData$[ebp]
  00006	e9 00 00 00 00	 jmp	 ??1CCoordinateCalculatorData@@QAE@XZ ; CCoordinateCalculatorData::~CCoordinateCalculatorData
  0000b	cc		 int	 3
  0000c	cc		 int	 3
  0000d	cc		 int	 3
  0000e	cc		 int	 3
  0000f	cc		 int	 3
__ehhandler$?SetElementCopy@CMainSymbolImplementation@@QAEXXZ:
  00010	90		 npad	 1
  00011	90		 npad	 1
  00012	8b 54 24 08	 mov	 edx, DWORD PTR [esp+8]
  00016	8d 42 0c	 lea	 eax, DWORD PTR [edx+12]
  00019	8b 8a 24 ff ff
	ff		 mov	 ecx, DWORD PTR [edx-220]
  0001f	33 c8		 xor	 ecx, eax
  00021	e8 00 00 00 00	 call	 @__security_check_cookie@4
  00026	8b 4a fc	 mov	 ecx, DWORD PTR [edx-4]
  00029	33 c8		 xor	 ecx, eax
  0002b	e8 00 00 00 00	 call	 @__security_check_cookie@4
  00030	b8 00 00 00 00	 mov	 eax, OFFSET __ehfuncinfo$?SetElementCopy@CMainSymbolImplementation@@QAEXXZ
  00035	e9 00 00 00 00	 jmp	 ___CxxFrameHandler3
text$x	ENDS
?SetElementCopy@CMainSymbolImplementation@@QAEXXZ ENDP	; CMainSymbolImplementation::SetElementCopy
; Function compile flags: /Ogtp
; File D:\git\src\IBK\IBK_DRFN\ProjSrc\SrcChartEx\ChartAddIn\ChartAnalysisToolAddIn\Symbol\MainSymbolImplementation.cpp
;	COMDAT ?RedoElement@CMainSymbolImplementation@@QAE_NJ@Z
_TEXT	SEGMENT
_lAddress$ = 8						; size = 4
?RedoElement@CMainSymbolImplementation@@QAE_NJ@Z PROC	; CMainSymbolImplementation::RedoElement, COMDAT
; _this$ = ecx

; 614  : {

  00000	55		 push	 ebp
  00001	8b ec		 mov	 ebp, esp

; 615  : 	return (m_symboldata.GetUndoRedoManager().RedoElement(lAddress) == TRUE);

  00003	ff 75 08	 push	 DWORD PTR _lAddress$[ebp]
  00006	83 c1 28	 add	 ecx, 40			; 00000028H
  00009	e8 00 00 00 00	 call	 ?GetUndoRedoManager@CSymbolData@@QAEAAVCUndoRedoManager@@XZ ; CSymbolData::GetUndoRedoManager
  0000e	8b c8		 mov	 ecx, eax
  00010	e8 00 00 00 00	 call	 ?RedoElement@CUndoRedoManager@@QAEHJ@Z ; CUndoRedoManager::RedoElement
  00015	83 f8 01	 cmp	 eax, 1
  00018	0f 94 c0	 sete	 al

; 616  : }

  0001b	5d		 pop	 ebp
  0001c	c2 04 00	 ret	 4
?RedoElement@CMainSymbolImplementation@@QAE_NJ@Z ENDP	; CMainSymbolImplementation::RedoElement
_TEXT	ENDS
; Function compile flags: /Ogtp
; File D:\git\src\IBK\IBK_DRFN\ProjSrc\SrcChartEx\ChartAddIn\ChartAnalysisToolAddIn\Symbol\MainSymbolImplementation.cpp
;	COMDAT ?UndoElement@CMainSymbolImplementation@@QAE_NJ@Z
_TEXT	SEGMENT
_lAddress$ = 8						; size = 4
?UndoElement@CMainSymbolImplementation@@QAE_NJ@Z PROC	; CMainSymbolImplementation::UndoElement, COMDAT
; _this$ = ecx

; 609  : {

  00000	55		 push	 ebp
  00001	8b ec		 mov	 ebp, esp

; 610  : 	return (m_symboldata.GetUndoRedoManager().UndoElement(lAddress) == TRUE);

  00003	ff 75 08	 push	 DWORD PTR _lAddress$[ebp]
  00006	83 c1 28	 add	 ecx, 40			; 00000028H
  00009	e8 00 00 00 00	 call	 ?GetUndoRedoManager@CSymbolData@@QAEAAVCUndoRedoManager@@XZ ; CSymbolData::GetUndoRedoManager
  0000e	8b c8		 mov	 ecx, eax
  00010	e8 00 00 00 00	 call	 ?UndoElement@CUndoRedoManager@@QAEHJ@Z ; CUndoRedoManager::UndoElement
  00015	83 f8 01	 cmp	 eax, 1
  00018	0f 94 c0	 sete	 al

; 611  : }

  0001b	5d		 pop	 ebp
  0001c	c2 04 00	 ret	 4
?UndoElement@CMainSymbolImplementation@@QAE_NJ@Z ENDP	; CMainSymbolImplementation::UndoElement
_TEXT	ENDS
; Function compile flags: /Ogtp
; File D:\git\src\IBK\IBK_DRFN\ProjSrc\SrcChartEx\ChartAddIn\ChartAnalysisToolAddIn\Symbol\MainSymbolImplementation.cpp
;	COMDAT ?DeleteSymbolPos@CMainSymbolImplementation@@QAE_NJ@Z
_TEXT	SEGMENT
_lAddress$ = 8						; size = 4
?DeleteSymbolPos@CMainSymbolImplementation@@QAE_NJ@Z PROC ; CMainSymbolImplementation::DeleteSymbolPos, COMDAT
; _this$ = ecx

; 595  : {

  00000	55		 push	 ebp
  00001	8b ec		 mov	 ebp, esp
  00003	53		 push	 ebx
  00004	56		 push	 esi

; 596  : 	// Undo / Redo
; 597  : 	m_symboldata.GetUndoRedoManager().RegisterElementToUnRedoManager(URT_NEW_OR_DEL, lAddress);

  00005	8b 75 08	 mov	 esi, DWORD PTR _lAddress$[ebp]
  00008	57		 push	 edi
  00009	6a 00		 push	 0
  0000b	8b f9		 mov	 edi, ecx
  0000d	6a 00		 push	 0
  0000f	56		 push	 esi
  00010	6a 01		 push	 1
  00012	8d 4f 28	 lea	 ecx, DWORD PTR [edi+40]
  00015	e8 00 00 00 00	 call	 ?GetUndoRedoManager@CSymbolData@@QAEAAVCUndoRedoManager@@XZ ; CSymbolData::GetUndoRedoManager
  0001a	8b c8		 mov	 ecx, eax
  0001c	e8 00 00 00 00	 call	 ?RegisterElementToUnRedoManager@CUndoRedoManager@@QAEXHJPBD0@Z ; CUndoRedoManager::RegisterElementToUnRedoManager

; 598  : 
; 599  : 	bool bDelete = m_symboldata.GetElementTree()->DeleteSymbolPos(lAddress);

  00021	6a 00		 push	 0
  00023	56		 push	 esi
  00024	8d 4f 28	 lea	 ecx, DWORD PTR [edi+40]
  00027	e8 00 00 00 00	 call	 ?GetElementTree@CSymbolData@@QAEPAVCElementTree@@XZ ; CSymbolData::GetElementTree
  0002c	8b c8		 mov	 ecx, eax
  0002e	e8 00 00 00 00	 call	 ?DeleteSymbolPos@CElementTree@@QAE_NJH@Z ; CElementTree::DeleteSymbolPos
  00033	8a d8		 mov	 bl, al

; 600  : 	if(bDelete == true)

  00035	80 fb 01	 cmp	 bl, 1
  00038	75 21		 jne	 SHORT $LN6@DeleteSymb

; 384  : 	m_singleton.InitialTool();	

  0003a	8d 8f 28 01 00
	00		 lea	 ecx, DWORD PTR [edi+296]
  00040	c7 47 24 00 00
	00 00		 mov	 DWORD PTR [edi+36], 0
  00047	c7 47 20 00 00
	00 00		 mov	 DWORD PTR [edi+32], 0
  0004e	e8 00 00 00 00	 call	 ?InitialTool@CSymbolSingleton@@QAEXXZ ; CSymbolSingleton::InitialTool

; 601  : 	{
; 602  : 		Initial();
; 603  : 		m_symboldata.Invalidate();

  00053	8d 4f 28	 lea	 ecx, DWORD PTR [edi+40]
  00056	e8 00 00 00 00	 call	 ?Invalidate@CSymbolData@@QAEXXZ ; CSymbolData::Invalidate
$LN6@DeleteSymb:

; 604  : 	} 
; 605  : 	return bDelete;
; 606  : }

  0005b	5f		 pop	 edi
  0005c	5e		 pop	 esi
  0005d	8a c3		 mov	 al, bl
  0005f	5b		 pop	 ebx
  00060	5d		 pop	 ebp
  00061	c2 04 00	 ret	 4
?DeleteSymbolPos@CMainSymbolImplementation@@QAE_NJ@Z ENDP ; CMainSymbolImplementation::DeleteSymbolPos
_TEXT	ENDS
; Function compile flags: /Ogtp
; File D:\git\src\IBK\IBK_DRFN\ProjSrc\SrcChartEx\ChartAddIn\ChartAnalysisToolAddIn\Symbol\MainSymbolImplementation.cpp
;	COMDAT ?DeleteLastSymbol@CMainSymbolImplementation@@QAEXXZ
_TEXT	SEGMENT
?DeleteLastSymbol@CMainSymbolImplementation@@QAEXXZ PROC ; CMainSymbolImplementation::DeleteLastSymbol, COMDAT
; _this$ = ecx

; 583  : {

  00000	53		 push	 ebx
  00001	56		 push	 esi
  00002	57		 push	 edi
  00003	8b f9		 mov	 edi, ecx

; 584  : 	CDrawingSymbol* pDrawingSymbol = m_symboldata.GetElementTree()->GetTail();

  00005	8d 4f 28	 lea	 ecx, DWORD PTR [edi+40]
  00008	e8 00 00 00 00	 call	 ?GetElementTree@CSymbolData@@QAEPAVCElementTree@@XZ ; CSymbolData::GetElementTree
  0000d	8b c8		 mov	 ecx, eax
  0000f	e8 00 00 00 00	 call	 ?GetTail@CElementTree@@QAEPAVCDrawingSymbol@@XZ ; CElementTree::GetTail

; 585  : 	m_symboldata.GetElementTree()->DeleteLastSymbol();

  00014	8d 4f 28	 lea	 ecx, DWORD PTR [edi+40]
  00017	8b f0		 mov	 esi, eax
  00019	e8 00 00 00 00	 call	 ?GetElementTree@CSymbolData@@QAEPAVCElementTree@@XZ ; CSymbolData::GetElementTree
  0001e	8b c8		 mov	 ecx, eax
  00020	e8 00 00 00 00	 call	 ?DeleteLastSymbol@CElementTree@@QAEXXZ ; CElementTree::DeleteLastSymbol

; 586  : 
; 587  : 	// Undo / Redo
; 588  : 	m_symboldata.GetUndoRedoManager().RegisterElementToUnRedoManager(URT_NEW_OR_DEL, (long)pDrawingSymbol);

  00025	6a 00		 push	 0
  00027	6a 00		 push	 0
  00029	56		 push	 esi
  0002a	6a 01		 push	 1
  0002c	8d 4f 28	 lea	 ecx, DWORD PTR [edi+40]
  0002f	e8 00 00 00 00	 call	 ?GetUndoRedoManager@CSymbolData@@QAEAAVCUndoRedoManager@@XZ ; CSymbolData::GetUndoRedoManager
  00034	8b c8		 mov	 ecx, eax
  00036	e8 00 00 00 00	 call	 ?RegisterElementToUnRedoManager@CUndoRedoManager@@QAEXHJPBD0@Z ; CUndoRedoManager::RegisterElementToUnRedoManager

; 384  : 	m_singleton.InitialTool();	

  0003b	8d 8f 28 01 00
	00		 lea	 ecx, DWORD PTR [edi+296]
  00041	c7 47 24 00 00
	00 00		 mov	 DWORD PTR [edi+36], 0
  00048	c7 47 20 00 00
	00 00		 mov	 DWORD PTR [edi+32], 0
  0004f	e8 00 00 00 00	 call	 ?InitialTool@CSymbolSingleton@@QAEXXZ ; CSymbolSingleton::InitialTool

; 589  : 
; 590  : 	Initial();
; 591  : 	m_symboldata.Invalidate();

  00054	8d 4f 28	 lea	 ecx, DWORD PTR [edi+40]
  00057	5f		 pop	 edi
  00058	5e		 pop	 esi
  00059	5b		 pop	 ebx
  0005a	e9 00 00 00 00	 jmp	 ?Invalidate@CSymbolData@@QAEXXZ ; CSymbolData::Invalidate
?DeleteLastSymbol@CMainSymbolImplementation@@QAEXXZ ENDP ; CMainSymbolImplementation::DeleteLastSymbol
_TEXT	ENDS
; Function compile flags: /Ogtp
; File D:\git\src\IBK\IBK_DRFN\ProjSrc\SrcChartEx\ChartAddIn\ChartAnalysisToolAddIn\Symbol\MainSymbolImplementation.cpp
;	COMDAT ?GetSelectedToolType@CMainSymbolImplementation@@QAE?AW4SYMBOLTOOL@CSymbol@@XZ
_TEXT	SEGMENT
?GetSelectedToolType@CMainSymbolImplementation@@QAE?AW4SYMBOLTOOL@CSymbol@@XZ PROC ; CMainSymbolImplementation::GetSelectedToolType, COMDAT
; _this$ = ecx

; 662  : 	if(m_pDrawingSymbol == NULL)

  00000	83 79 20 00	 cmp	 DWORD PTR [ecx+32], 0
  00004	75 03		 jne	 SHORT $LN2@GetSelecte

; 663  : 		return CSymbol::SYMBOL_NONE;

  00006	33 c0		 xor	 eax, eax

; 666  : }

  00008	c3		 ret	 0
$LN2@GetSelecte:

; 664  : 
; 665  : 	return (CSymbol::SYMBOLTOOL)m_symboldata.GetSymbolType();

  00009	83 c1 28	 add	 ecx, 40			; 00000028H
  0000c	e9 00 00 00 00	 jmp	 ?GetSymbolType@CSymbolData@@QBE?AW4TOOLTYPE@CSymbolBaseData@@XZ ; CSymbolData::GetSymbolType
?GetSelectedToolType@CMainSymbolImplementation@@QAE?AW4SYMBOLTOOL@CSymbol@@XZ ENDP ; CMainSymbolImplementation::GetSelectedToolType
_TEXT	ENDS
; Function compile flags: /Ogtp
; File D:\git\src\IBK\IBK_DRFN\ProjSrc\SrcChartEx\ChartAddIn\ChartAnalysisToolAddIn\Symbol\MainSymbolImplementation.cpp
;	COMDAT ?GetToolType@CMainSymbolImplementation@@QAE?AW4SYMBOLTOOL@CSymbol@@XZ
_TEXT	SEGMENT
?GetToolType@CMainSymbolImplementation@@QAE?AW4SYMBOLTOOL@CSymbol@@XZ PROC ; CMainSymbolImplementation::GetToolType, COMDAT
; _this$ = ecx

; 619  : {

  00000	56		 push	 esi

; 620  : 	switch(m_symboldata.GetSymbolType())

  00001	8d 71 28	 lea	 esi, DWORD PTR [ecx+40]
  00004	8b ce		 mov	 ecx, esi
  00006	e8 00 00 00 00	 call	 ?GetSymbolType@CSymbolData@@QBE?AW4TOOLTYPE@CSymbolBaseData@@XZ ; CSymbolData::GetSymbolType
  0000b	83 c0 fb	 add	 eax, -5			; fffffffbH
  0000e	83 f8 21	 cmp	 eax, 33			; 00000021H
  00011	77 15		 ja	 SHORT $LN2@GetToolTyp
  00013	0f b6 80 00 00
	00 00		 movzx	 eax, BYTE PTR $LN38@GetToolTyp[eax]
  0001a	ff 24 85 00 00
	00 00		 jmp	 DWORD PTR $LN39@GetToolTyp[eax*4]
$LN4@GetToolTyp:

; 621  : 	{
; 622  : 		case CSymbolBaseData::SYMBOL_BULET:
; 623  : 		case CSymbolBaseData::SYMBOL_ARROW_LEFT:  // 
; 624  : 		case CSymbolBaseData::SYMBOL_ARROW_RIGHT: // 
; 625  : 		case CSymbolBaseData::SYMBOL_ARROW_UP:  // 
; 626  : 		case CSymbolBaseData::SYMBOL_ARROW_DOWN:  // 
; 627  : 		case CSymbolBaseData::SYMBOL_ARROW_LEFTTOP:  //   
; 628  : 		case CSymbolBaseData::SYMBOL_ARROW_LEFTBOTTOM: //   
; 629  : 		case CSymbolBaseData::SYMBOL_ARROW_RIGHTTOP:  //   
; 630  : 		case CSymbolBaseData::SYMBOL_ARROW_RIGHTBOTTOM: //   
; 631  : 		case CSymbolBaseData::SYMBOL_NUM_ONE:  // 1
; 632  : 		case CSymbolBaseData::SYMBOL_NUM_TWO:  //2
; 633  : 		case CSymbolBaseData::SYMBOL_NUM_THREE: //3
; 634  : 		case CSymbolBaseData::SYMBOL_NUM_FOUR:  //4
; 635  : 		case CSymbolBaseData::SYMBOL_NUM_FIVE:  //5
; 636  : 		case CSymbolBaseData::SYMBOL_NUM_SIX:  //6
; 637  : 		case CSymbolBaseData::SYMBOL_NUM_SEVEN:  //7
; 638  : 		case CSymbolBaseData::SYMBOL_NUM_EIGHT:  //8
; 639  : 		case CSymbolBaseData::SYMBOL_NUM_NINE:  //9
; 640  : 		case CSymbolBaseData::SYMBOL_NUM_TEN:  //10
; 641  : 		case CSymbolBaseData::SYMBOL_TEXT_A:  //a
; 642  : 		case CSymbolBaseData::SYMBOL_TEXT_B: //b
; 643  : 		case CSymbolBaseData::SYMBOL_TEXT_C: //c
; 644  : 		case CSymbolBaseData::SYMBOL_TEXT_D: //d
; 645  : 		case CSymbolBaseData::SYMBOL_TEXT_E: //e
; 646  : 		case CSymbolBaseData::SYMBOL_TEXT_F: //f
; 647  : 		case CSymbolBaseData::SYMBOL_TEXT_G: //g
; 648  : 		case CSymbolBaseData::SYMBOL_TEXT_H: //h
; 649  : 		case CSymbolBaseData::SYMBOL_CHAR_1:		//
; 650  : 		case CSymbolBaseData::SYMBOL_CHAR_2:		//
; 651  : 		case CSymbolBaseData::SYMBOL_CHAR_3:		//
; 652  : 		case CSymbolBaseData::SYMBOL_CHAR_4:		//
; 653  : 		case CSymbolBaseData::SYMBOL_CHAR_5:		//
; 654  : 		case CSymbolBaseData::SYMBOL_CHAR_6:		//		
; 655  : 			return CSymbol::SYMBOL_BULET;

  00021	b8 05 00 00 00	 mov	 eax, 5
  00026	5e		 pop	 esi

; 658  : }

  00027	c3		 ret	 0
$LN2@GetToolTyp:

; 656  : 	}
; 657  : 	return (CSymbol::SYMBOLTOOL)m_symboldata.GetSymbolType();

  00028	8b ce		 mov	 ecx, esi
  0002a	5e		 pop	 esi
  0002b	e9 00 00 00 00	 jmp	 ?GetSymbolType@CSymbolData@@QBE?AW4TOOLTYPE@CSymbolBaseData@@XZ ; CSymbolData::GetSymbolType
$LN39@GetToolTyp:

; 658  : }

  00030	00 00 00 00	 DD	 $LN4@GetToolTyp
  00034	00 00 00 00	 DD	 $LN2@GetToolTyp
$LN38@GetToolTyp:
  00038	00		 DB	 0
  00039	01		 DB	 1
  0003a	00		 DB	 0
  0003b	00		 DB	 0
  0003c	00		 DB	 0
  0003d	00		 DB	 0
  0003e	00		 DB	 0
  0003f	00		 DB	 0
  00040	00		 DB	 0
  00041	00		 DB	 0
  00042	00		 DB	 0
  00043	00		 DB	 0
  00044	00		 DB	 0
  00045	00		 DB	 0
  00046	00		 DB	 0
  00047	00		 DB	 0
  00048	00		 DB	 0
  00049	00		 DB	 0
  0004a	00		 DB	 0
  0004b	00		 DB	 0
  0004c	00		 DB	 0
  0004d	00		 DB	 0
  0004e	00		 DB	 0
  0004f	00		 DB	 0
  00050	00		 DB	 0
  00051	00		 DB	 0
  00052	00		 DB	 0
  00053	00		 DB	 0
  00054	00		 DB	 0
  00055	00		 DB	 0
  00056	00		 DB	 0
  00057	00		 DB	 0
  00058	00		 DB	 0
  00059	00		 DB	 0
?GetToolType@CMainSymbolImplementation@@QAE?AW4SYMBOLTOOL@CSymbol@@XZ ENDP ; CMainSymbolImplementation::GetToolType
_TEXT	ENDS
; Function compile flags: /Ogtp
; File D:\git\src\IBK\IBK_DRFN\ProjSrc\SrcChartEx\ChartAddIn\ChartAnalysisToolAddIn\Symbol\MainSymbolImplementation.cpp
;	COMDAT ?SetFilePath@CMainSymbolImplementation@@QAEXABV?$CStringT@DV?$StrTraitMFC_DLL@DV?$ChTraitsCRT@D@ATL@@@@@ATL@@@Z
_TEXT	SEGMENT
_path$ = 8						; size = 4
?SetFilePath@CMainSymbolImplementation@@QAEXABV?$CStringT@DV?$StrTraitMFC_DLL@DV?$ChTraitsCRT@D@ATL@@@@@ATL@@@Z PROC ; CMainSymbolImplementation::SetFilePath, COMDAT
; _this$ = ecx

; 544  : {

  00000	55		 push	 ebp
  00001	8b ec		 mov	 ebp, esp

; 545  : 	m_symboldata.SetFilePath(path);

  00003	83 c1 28	 add	 ecx, 40			; 00000028H

; 546  : }

  00006	5d		 pop	 ebp

; 545  : 	m_symboldata.SetFilePath(path);

  00007	e9 00 00 00 00	 jmp	 ?SetFilePath@CSymbolData@@QAEXABV?$CStringT@DV?$StrTraitMFC_DLL@DV?$ChTraitsCRT@D@ATL@@@@@ATL@@@Z ; CSymbolData::SetFilePath
?SetFilePath@CMainSymbolImplementation@@QAEXABV?$CStringT@DV?$StrTraitMFC_DLL@DV?$ChTraitsCRT@D@ATL@@@@@ATL@@@Z ENDP ; CMainSymbolImplementation::SetFilePath
_TEXT	ENDS
; Function compile flags: /Ogtp
; File D:\git\src\IBK\IBK_DRFN\ProjSrc\SrcChartEx\ChartAddIn\ChartAnalysisToolAddIn\Symbol\MainSymbolImplementation.cpp
;	COMDAT ?BuildSymbolsFromString@CMainSymbolImplementation@@QAEXABV?$CStringT@DV?$StrTraitMFC_DLL@DV?$ChTraitsCRT@D@ATL@@@@@ATL@@@Z
_TEXT	SEGMENT
_Data$ = 8						; size = 4
?BuildSymbolsFromString@CMainSymbolImplementation@@QAEXABV?$CStringT@DV?$StrTraitMFC_DLL@DV?$ChTraitsCRT@D@ATL@@@@@ATL@@@Z PROC ; CMainSymbolImplementation::BuildSymbolsFromString, COMDAT
; _this$ = ecx

; 538  : {

  00000	55		 push	 ebp
  00001	8b ec		 mov	 ebp, esp
  00003	56		 push	 esi

; 539  :  	m_symboldata.BuildSymbolsFromString(Data);

  00004	ff 75 08	 push	 DWORD PTR _Data$[ebp]
  00007	8d 71 28	 lea	 esi, DWORD PTR [ecx+40]
  0000a	8b ce		 mov	 ecx, esi
  0000c	e8 00 00 00 00	 call	 ?BuildSymbolsFromString@CSymbolData@@QAEXABV?$CStringT@DV?$StrTraitMFC_DLL@DV?$ChTraitsCRT@D@ATL@@@@@ATL@@@Z ; CSymbolData::BuildSymbolsFromString

; 540  : 	m_symboldata.Invalidate();

  00011	8b ce		 mov	 ecx, esi
  00013	e8 00 00 00 00	 call	 ?Invalidate@CSymbolData@@QAEXXZ ; CSymbolData::Invalidate
  00018	5e		 pop	 esi

; 541  : }

  00019	5d		 pop	 ebp
  0001a	c2 04 00	 ret	 4
?BuildSymbolsFromString@CMainSymbolImplementation@@QAEXABV?$CStringT@DV?$StrTraitMFC_DLL@DV?$ChTraitsCRT@D@ATL@@@@@ATL@@@Z ENDP ; CMainSymbolImplementation::BuildSymbolsFromString
_TEXT	ENDS
; Function compile flags: /Ogtp
; File D:\git\src\IBK\IBK_DRFN\ProjSrc\SrcChartEx\ChartAddIn\ChartAnalysisToolAddIn\Symbol\MainSymbolImplementation.cpp
;	COMDAT ?GetSavedSymbolsData@CMainSymbolImplementation@@QAE?AV?$CStringT@DV?$StrTraitMFC_DLL@DV?$ChTraitsCRT@D@ATL@@@@@ATL@@XZ
_TEXT	SEGMENT
___$ReturnUdt$ = 8					; size = 4
?GetSavedSymbolsData@CMainSymbolImplementation@@QAE?AV?$CStringT@DV?$StrTraitMFC_DLL@DV?$ChTraitsCRT@D@ATL@@@@@ATL@@XZ PROC ; CMainSymbolImplementation::GetSavedSymbolsData, COMDAT
; _this$ = ecx

; 533  : {

  00000	55		 push	 ebp
  00001	8b ec		 mov	 ebp, esp

; 534  : 	return m_symboldata.GetSavedSymbolsData();

  00003	ff 75 08	 push	 DWORD PTR ___$ReturnUdt$[ebp]
  00006	83 c1 28	 add	 ecx, 40			; 00000028H
  00009	e8 00 00 00 00	 call	 ?GetSavedSymbolsData@CSymbolData@@QAE?AV?$CStringT@DV?$StrTraitMFC_DLL@DV?$ChTraitsCRT@D@ATL@@@@@ATL@@XZ ; CSymbolData::GetSavedSymbolsData
  0000e	8b 45 08	 mov	 eax, DWORD PTR ___$ReturnUdt$[ebp]

; 535  : }

  00011	5d		 pop	 ebp
  00012	c2 04 00	 ret	 4
?GetSavedSymbolsData@CMainSymbolImplementation@@QAE?AV?$CStringT@DV?$StrTraitMFC_DLL@DV?$ChTraitsCRT@D@ATL@@@@@ATL@@XZ ENDP ; CMainSymbolImplementation::GetSavedSymbolsData
_TEXT	ENDS
; Function compile flags: /Ogtp
; File D:\git\src\IBK\IBK_DRFN\ProjSrc\SrcChartEx\ChartAddIn\ChartAnalysisToolAddIn\Symbol\MainSymbolImplementation.cpp
;	COMDAT ?Initial@CMainSymbolImplementation@@QAEXXZ
_TEXT	SEGMENT
?Initial@CMainSymbolImplementation@@QAEXXZ PROC		; CMainSymbolImplementation::Initial, COMDAT
; _this$ = ecx

; 382  : 	m_pSymbolTool = NULL;

  00000	c7 41 24 00 00
	00 00		 mov	 DWORD PTR [ecx+36], 0

; 383  : 	m_pDrawingSymbol = NULL;

  00007	c7 41 20 00 00
	00 00		 mov	 DWORD PTR [ecx+32], 0

; 384  : 	m_singleton.InitialTool();	

  0000e	81 c1 28 01 00
	00		 add	 ecx, 296		; 00000128H
  00014	e9 00 00 00 00	 jmp	 ?InitialTool@CSymbolSingleton@@QAEXXZ ; CSymbolSingleton::InitialTool
?Initial@CMainSymbolImplementation@@QAEXXZ ENDP		; CMainSymbolImplementation::Initial
_TEXT	ENDS
; Function compile flags: /Ogtp
; File D:\git\src\IBK\IBK_DRFN\ProjSrc\SrcChartEx\ChartAddIn\ChartAnalysisToolAddIn\Symbol\MainSymbolImplementation.cpp
; File C:\Program Files (x86)\Microsoft Visual Studio\2019\Community\VC\Tools\MSVC\14.29.30133\atlmfc\include\afxtempl.h
; File D:\git\src\IBK\IBK_DRFN\ProjSrc\SrcChartEx\ChartAddIn\ChartAnalysisToolAddIn\Symbol\MainSymbolImplementation.cpp
;	COMDAT ?DeleteSymbolDlg@CMainSymbolImplementation@@QAEXXZ
_TEXT	SEGMENT
_nIndex$ = -12						; size = 4
_pos$1 = -8						; size = 4
_pSymbolDlg$ = -4					; size = 4
?DeleteSymbolDlg@CMainSymbolImplementation@@QAEXXZ PROC	; CMainSymbolImplementation::DeleteSymbolDlg, COMDAT
; _this$ = ecx

; 559  : {

  00000	55		 push	 ebp
  00001	8b ec		 mov	 ebp, esp
  00003	83 ec 0c	 sub	 esp, 12			; 0000000cH

; 560  : 	int nIndex = 0;
; 561  : 	CSymbolDlg* pSymbolDlg = NULL;
; 562  : 
; 563  : 	if(g_mapSymbolDlg.GetCount() > 0)

  00006	83 3d 0c 00 00
	00 00		 cmp	 DWORD PTR ?g_mapSymbolDlg@CMainSymbolImplementation@@1V?$CMap@HHPAVCSymbolDlg@@PAV1@@@A+12, 0
  0000d	c7 45 fc 00 00
	00 00		 mov	 DWORD PTR _pSymbolDlg$[ebp], 0
  00014	0f 8e 88 00 00
	00		 jle	 $LN4@DeleteSymb

; 564  : 	{
; 565  : 		POSITION pos = g_mapSymbolDlg.GetStartPosition();

  0001a	c7 45 f8 ff ff
	ff ff		 mov	 DWORD PTR _pos$1[ebp], -1
  00021	56		 push	 esi
$LL2@DeleteSymb:

; 566  : 		while(pos)
; 567  : 		{
; 568  : 			g_mapSymbolDlg.GetNextAssoc(pos, nIndex, pSymbolDlg);

  00022	8d 45 fc	 lea	 eax, DWORD PTR _pSymbolDlg$[ebp]
  00025	b9 00 00 00 00	 mov	 ecx, OFFSET ?g_mapSymbolDlg@CMainSymbolImplementation@@1V?$CMap@HHPAVCSymbolDlg@@PAV1@@@A ; CMainSymbolImplementation::g_mapSymbolDlg
  0002a	50		 push	 eax
  0002b	8d 45 f4	 lea	 eax, DWORD PTR _nIndex$[ebp]
  0002e	50		 push	 eax
  0002f	8d 45 f8	 lea	 eax, DWORD PTR _pos$1[ebp]
  00032	50		 push	 eax
  00033	e8 00 00 00 00	 call	 ?GetNextAssoc@?$CMap@HHPAVCSymbolDlg@@PAV1@@@QBEXAAPAU__POSITION@@AAHAAPAVCSymbolDlg@@@Z ; CMap<int,int,CSymbolDlg *,CSymbolDlg *>::GetNextAssoc

; 569  : 			
; 570  : 			if(pSymbolDlg != NULL) {

  00038	8b 75 fc	 mov	 esi, DWORD PTR _pSymbolDlg$[ebp]
  0003b	85 f6		 test	 esi, esi
  0003d	74 10		 je	 SHORT $LN7@DeleteSymb

; 571  : 				pSymbolDlg->DestroyWindow();

  0003f	8b 06		 mov	 eax, DWORD PTR [esi]
  00041	8b ce		 mov	 ecx, esi
  00043	ff 50 68	 call	 DWORD PTR [eax+104]

; 572  : 				delete pSymbolDlg;				

  00046	8b 06		 mov	 eax, DWORD PTR [esi]
  00048	8b ce		 mov	 ecx, esi
  0004a	6a 01		 push	 1
  0004c	ff 50 04	 call	 DWORD PTR [eax+4]
$LN7@DeleteSymb:

; 573  : 			}
; 574  : 			pSymbolDlg = NULL;		

  0004f	83 7d f8 00	 cmp	 DWORD PTR _pos$1[ebp], 0
  00053	c7 45 fc 00 00
	00 00		 mov	 DWORD PTR _pSymbolDlg$[ebp], 0
  0005a	75 c6		 jne	 SHORT $LL2@DeleteSymb
; File C:\Program Files (x86)\Microsoft Visual Studio\2019\Community\VC\Tools\MSVC\14.29.30133\atlmfc\include\afxtempl.h

; 1446 : 	if (m_pHashTable != NULL)

  0005c	a1 04 00 00 00	 mov	 eax, DWORD PTR ?g_mapSymbolDlg@CMainSymbolImplementation@@1V?$CMap@HHPAVCSymbolDlg@@PAV1@@@A+4
  00061	5e		 pop	 esi
  00062	85 c0		 test	 eax, eax
  00064	74 13		 je	 SHORT $LN18@DeleteSymb

; 1447 : 	{
; 1448 : 		// destroy elements (values and keys)
; 1449 : 		for (UINT nHash = 0; nHash < m_nHashTableSize; nHash++)
; 1450 : 		{
; 1451 : 			CAssoc* pAssoc;
; 1452 : 			for (pAssoc = m_pHashTable[nHash]; pAssoc != NULL;
; 1453 : 			  pAssoc = pAssoc->pNext)
; 1454 : 			{
; 1455 : 				pAssoc->CAssoc::~CAssoc();
; 1456 : 			}
; 1457 : 		}
; 1458 : 
; 1459 : 		// free hash table
; 1460 : 		delete[] m_pHashTable;

  00066	50		 push	 eax
  00067	e8 00 00 00 00	 call	 ??_V@YAXPAX@Z		; operator delete[]
  0006c	83 c4 04	 add	 esp, 4

; 1461 : 		m_pHashTable = NULL;

  0006f	c7 05 04 00 00
	00 00 00 00 00	 mov	 DWORD PTR ?g_mapSymbolDlg@CMainSymbolImplementation@@1V?$CMap@HHPAVCSymbolDlg@@PAV1@@@A+4, 0
$LN18@DeleteSymb:

; 1462 : 	}
; 1463 : 
; 1464 : 	m_nCount = 0;
; 1465 : 	m_pFreeList = NULL;
; 1466 : 	m_pBlocks->FreeDataChain();

  00079	8b 0d 14 00 00
	00		 mov	 ecx, DWORD PTR ?g_mapSymbolDlg@CMainSymbolImplementation@@1V?$CMap@HHPAVCSymbolDlg@@PAV1@@@A+20
  0007f	c7 05 0c 00 00
	00 00 00 00 00	 mov	 DWORD PTR ?g_mapSymbolDlg@CMainSymbolImplementation@@1V?$CMap@HHPAVCSymbolDlg@@PAV1@@@A+12, 0
  00089	c7 05 10 00 00
	00 00 00 00 00	 mov	 DWORD PTR ?g_mapSymbolDlg@CMainSymbolImplementation@@1V?$CMap@HHPAVCSymbolDlg@@PAV1@@@A+16, 0
  00093	e8 00 00 00 00	 call	 ?FreeDataChain@CPlex@@QAEXXZ ; CPlex::FreeDataChain

; 1467 : 	m_pBlocks = NULL;

  00098	c7 05 14 00 00
	00 00 00 00 00	 mov	 DWORD PTR ?g_mapSymbolDlg@CMainSymbolImplementation@@1V?$CMap@HHPAVCSymbolDlg@@PAV1@@@A+20, 0
$LN4@DeleteSymb:

; 1446 : 	if (m_pHashTable != NULL)

  000a2	a1 04 00 00 00	 mov	 eax, DWORD PTR ?g_mapSymbolType@CMainSymbolImplementation@@1V?$CMap@HHW4TOOLTYPE@CSymbolBaseData@@W412@@@A+4
  000a7	85 c0		 test	 eax, eax
  000a9	74 13		 je	 SHORT $LN27@DeleteSymb

; 1447 : 	{
; 1448 : 		// destroy elements (values and keys)
; 1449 : 		for (UINT nHash = 0; nHash < m_nHashTableSize; nHash++)
; 1450 : 		{
; 1451 : 			CAssoc* pAssoc;
; 1452 : 			for (pAssoc = m_pHashTable[nHash]; pAssoc != NULL;
; 1453 : 			  pAssoc = pAssoc->pNext)
; 1454 : 			{
; 1455 : 				pAssoc->CAssoc::~CAssoc();
; 1456 : 			}
; 1457 : 		}
; 1458 : 
; 1459 : 		// free hash table
; 1460 : 		delete[] m_pHashTable;

  000ab	50		 push	 eax
  000ac	e8 00 00 00 00	 call	 ??_V@YAXPAX@Z		; operator delete[]
  000b1	83 c4 04	 add	 esp, 4

; 1461 : 		m_pHashTable = NULL;

  000b4	c7 05 04 00 00
	00 00 00 00 00	 mov	 DWORD PTR ?g_mapSymbolType@CMainSymbolImplementation@@1V?$CMap@HHW4TOOLTYPE@CSymbolBaseData@@W412@@@A+4, 0
$LN27@DeleteSymb:

; 1462 : 	}
; 1463 : 
; 1464 : 	m_nCount = 0;
; 1465 : 	m_pFreeList = NULL;
; 1466 : 	m_pBlocks->FreeDataChain();

  000be	8b 0d 14 00 00
	00		 mov	 ecx, DWORD PTR ?g_mapSymbolType@CMainSymbolImplementation@@1V?$CMap@HHW4TOOLTYPE@CSymbolBaseData@@W412@@@A+20
  000c4	c7 05 0c 00 00
	00 00 00 00 00	 mov	 DWORD PTR ?g_mapSymbolType@CMainSymbolImplementation@@1V?$CMap@HHW4TOOLTYPE@CSymbolBaseData@@W412@@@A+12, 0
  000ce	c7 05 10 00 00
	00 00 00 00 00	 mov	 DWORD PTR ?g_mapSymbolType@CMainSymbolImplementation@@1V?$CMap@HHW4TOOLTYPE@CSymbolBaseData@@W412@@@A+16, 0
  000d8	e8 00 00 00 00	 call	 ?FreeDataChain@CPlex@@QAEXXZ ; CPlex::FreeDataChain

; 1467 : 	m_pBlocks = NULL;

  000dd	c7 05 14 00 00
	00 00 00 00 00	 mov	 DWORD PTR ?g_mapSymbolType@CMainSymbolImplementation@@1V?$CMap@HHW4TOOLTYPE@CSymbolBaseData@@W412@@@A+20, 0
; File D:\git\src\IBK\IBK_DRFN\ProjSrc\SrcChartEx\ChartAddIn\ChartAnalysisToolAddIn\Symbol\MainSymbolImplementation.cpp

; 580  : }

  000e7	8b e5		 mov	 esp, ebp
  000e9	5d		 pop	 ebp
  000ea	c3		 ret	 0
?DeleteSymbolDlg@CMainSymbolImplementation@@QAEXXZ ENDP	; CMainSymbolImplementation::DeleteSymbolDlg
_TEXT	ENDS
; Function compile flags: /Ogtp
; File D:\git\src\IBK\IBK_DRFN\ProjSrc\SrcChartEx\ChartAddIn\ChartAnalysisToolAddIn\Symbol\MainSymbolImplementation.cpp
; File C:\Program Files (x86)\Microsoft Visual Studio\2019\Community\VC\Tools\MSVC\14.29.30133\atlmfc\include\afxtempl.h
; File D:\git\src\IBK\IBK_DRFN\ProjSrc\SrcChartEx\ChartAddIn\ChartAnalysisToolAddIn\Symbol\MainSymbolImplementation.cpp
; File C:\Program Files (x86)\Microsoft Visual Studio\2019\Community\VC\Tools\MSVC\14.29.30133\atlmfc\include\afxtempl.h
; File D:\git\src\IBK\IBK_DRFN\ProjSrc\SrcChartEx\ChartAddIn\ChartAnalysisToolAddIn\Symbol\MainSymbolImplementation.cpp
; File C:\Program Files (x86)\Microsoft Visual Studio\2019\Community\VC\Tools\MSVC\14.29.30133\atlmfc\include\afxtempl.h
; File D:\git\src\IBK\IBK_DRFN\ProjSrc\SrcChartEx\ChartAddIn\ChartAnalysisToolAddIn\Symbol\MainSymbolImplementation.cpp
; File C:\Program Files (x86)\Microsoft Visual Studio\2019\Community\VC\Tools\MSVC\14.29.30133\atlmfc\include\afxtempl.h
; File D:\git\src\IBK\IBK_DRFN\ProjSrc\SrcChartEx\ChartAddIn\ChartAnalysisToolAddIn\Symbol\MainSymbolImplementation.cpp
; File C:\Program Files (x86)\Microsoft Visual Studio\2019\Community\VC\Tools\MSVC\14.29.30133\atlmfc\include\afxtempl.h
; File D:\git\src\IBK\IBK_DRFN\ProjSrc\SrcChartEx\ChartAddIn\ChartAnalysisToolAddIn\Symbol\MainSymbolImplementation.cpp
;	COMDAT ?DeleteAllSymbolsInBlock@CMainSymbolImplementation@@QAEXABVCBlockIndex@@@Z
_TEXT	SEGMENT
_elementList$ = -68					; size = 28
_undoredoInfoList$ = -40				; size = 28
__$EHRec$ = -12						; size = 12
_blockIndex$ = 8					; size = 4
?DeleteAllSymbolsInBlock@CMainSymbolImplementation@@QAEXABVCBlockIndex@@@Z PROC ; CMainSymbolImplementation::DeleteAllSymbolsInBlock, COMDAT
; _this$ = ecx

; 314  : {

  00000	55		 push	 ebp
  00001	8b ec		 mov	 ebp, esp
  00003	6a ff		 push	 -1
  00005	68 00 00 00 00	 push	 __ehhandler$?DeleteAllSymbolsInBlock@CMainSymbolImplementation@@QAEXABVCBlockIndex@@@Z
  0000a	64 a1 00 00 00
	00		 mov	 eax, DWORD PTR fs:0
  00010	50		 push	 eax
  00011	83 ec 38	 sub	 esp, 56			; 00000038H
  00014	53		 push	 ebx
  00015	56		 push	 esi
  00016	57		 push	 edi
  00017	a1 00 00 00 00	 mov	 eax, DWORD PTR ___security_cookie
  0001c	33 c5		 xor	 eax, ebp
  0001e	50		 push	 eax
  0001f	8d 45 f4	 lea	 eax, DWORD PTR __$EHRec$[ebp]
  00022	64 a3 00 00 00
	00		 mov	 DWORD PTR fs:0, eax
; File C:\Program Files (x86)\Microsoft Visual Studio\2019\Community\VC\Tools\MSVC\14.29.30133\atlmfc\include\afxtempl.h

; 851  : {

  00028	c7 45 bc 00 00
	00 00		 mov	 DWORD PTR _elementList$[ebp], OFFSET ??_7?$CList@PAVCDrawingSymbol@@PAV1@@@6B@

; 852  : 	ASSERT(nBlockSize > 0);
; 853  : 
; 854  : 	m_nCount = 0;

  0002f	c7 45 c8 00 00
	00 00		 mov	 DWORD PTR _elementList$[ebp+12], 0

; 855  : 	m_pNodeHead = m_pNodeTail = m_pNodeFree = NULL;

  00036	c7 45 cc 00 00
	00 00		 mov	 DWORD PTR _elementList$[ebp+16], 0
  0003d	c7 45 c4 00 00
	00 00		 mov	 DWORD PTR _elementList$[ebp+8], 0
  00044	c7 45 c0 00 00
	00 00		 mov	 DWORD PTR _elementList$[ebp+4], 0

; 856  : 	m_pBlocks = NULL;

  0004b	c7 45 d0 00 00
	00 00		 mov	 DWORD PTR _elementList$[ebp+20], 0

; 857  : 	m_nBlockSize = nBlockSize;

  00052	c7 45 d4 0a 00
	00 00		 mov	 DWORD PTR _elementList$[ebp+24], 10 ; 0000000aH
; File D:\git\src\IBK\IBK_DRFN\ProjSrc\SrcChartEx\ChartAddIn\ChartAnalysisToolAddIn\Symbol\MainSymbolImplementation.cpp

; 316  : 	m_symboldata.GetElementTree()->GetElementListOfBlock(blockIndex, elementList);

  00059	8b 5d 08	 mov	 ebx, DWORD PTR _blockIndex$[ebp]
  0005c	8d 45 bc	 lea	 eax, DWORD PTR _elementList$[ebp]
  0005f	8d 79 28	 lea	 edi, DWORD PTR [ecx+40]
  00062	c7 45 fc 00 00
	00 00		 mov	 DWORD PTR __$EHRec$[ebp+8], 0
  00069	50		 push	 eax
  0006a	53		 push	 ebx
  0006b	8b cf		 mov	 ecx, edi
  0006d	e8 00 00 00 00	 call	 ?GetElementTree@CSymbolData@@QAEPAVCElementTree@@XZ ; CSymbolData::GetElementTree
  00072	8b c8		 mov	 ecx, eax
  00074	e8 00 00 00 00	 call	 ?GetElementListOfBlock@CElementTree@@QAEXABVCBlockIndex@@AAV?$CList@PAVCDrawingSymbol@@PAV1@@@@Z ; CElementTree::GetElementListOfBlock

; 317  : 	POSITION pos = elementList.GetHeadPosition();

  00079	8b 75 c0	 mov	 esi, DWORD PTR _elementList$[ebp+4]
  0007c	85 f6		 test	 esi, esi

; 318  : 	CDrawingSymbol* pDrawingSymbol = NULL;
; 319  : 	while(pos)

  0007e	74 15		 je	 SHORT $LN3@DeleteAllS
$LL2@DeleteAllS:

; 321  : 		if(pDrawingSymbol = elementList.GetNext(pos))

  00080	8b 46 08	 mov	 eax, DWORD PTR [esi+8]
; File C:\Program Files (x86)\Microsoft Visual Studio\2019\Community\VC\Tools\MSVC\14.29.30133\atlmfc\include\afxtempl.h

; 813  : 		rPosition = (POSITION) pNode->pNext;

  00083	8b 36		 mov	 esi, DWORD PTR [esi]
; File D:\git\src\IBK\IBK_DRFN\ProjSrc\SrcChartEx\ChartAddIn\ChartAnalysisToolAddIn\Symbol\MainSymbolImplementation.cpp

; 321  : 		if(pDrawingSymbol = elementList.GetNext(pos))

  00085	85 c0		 test	 eax, eax
  00087	74 08		 je	 SHORT $LN6@DeleteAllS

; 322  : 			m_symboldata.UnRegisterElementToOrderManager((long)pDrawingSymbol);

  00089	50		 push	 eax
  0008a	8b cf		 mov	 ecx, edi
  0008c	e8 00 00 00 00	 call	 ?UnRegisterElementToOrderManager@CSymbolData@@QAEXJ@Z ; CSymbolData::UnRegisterElementToOrderManager
$LN6@DeleteAllS:

; 318  : 	CDrawingSymbol* pDrawingSymbol = NULL;
; 319  : 	while(pos)

  00091	85 f6		 test	 esi, esi
  00093	75 eb		 jne	 SHORT $LL2@DeleteAllS
$LN3@DeleteAllS:

; 323  : 	}
; 324  : 
; 325  : 	m_symboldata.GetElementTree()->DeleteAllSymbolsInBlock(blockIndex);

  00095	53		 push	 ebx
  00096	8b cf		 mov	 ecx, edi
  00098	e8 00 00 00 00	 call	 ?GetElementTree@CSymbolData@@QAEPAVCElementTree@@XZ ; CSymbolData::GetElementTree
  0009d	8b c8		 mov	 ecx, eax
  0009f	e8 00 00 00 00	 call	 ?DeleteAllSymbolsInBlock@CElementTree@@QAEXABVCBlockIndex@@@Z ; CElementTree::DeleteAllSymbolsInBlock
; File C:\Program Files (x86)\Microsoft Visual Studio\2019\Community\VC\Tools\MSVC\14.29.30133\atlmfc\include\afxtempl.h

; 851  : {

  000a4	c7 45 d8 00 00
	00 00		 mov	 DWORD PTR _undoredoInfoList$[ebp], OFFSET ??_7?$CList@PAVCUndo_Redo_Info@@PAV1@@@6B@

; 852  : 	ASSERT(nBlockSize > 0);
; 853  : 
; 854  : 	m_nCount = 0;

  000ab	c7 45 e4 00 00
	00 00		 mov	 DWORD PTR _undoredoInfoList$[ebp+12], 0

; 855  : 	m_pNodeHead = m_pNodeTail = m_pNodeFree = NULL;

  000b2	c7 45 e8 00 00
	00 00		 mov	 DWORD PTR _undoredoInfoList$[ebp+16], 0
  000b9	c7 45 e0 00 00
	00 00		 mov	 DWORD PTR _undoredoInfoList$[ebp+8], 0
  000c0	c7 45 dc 00 00
	00 00		 mov	 DWORD PTR _undoredoInfoList$[ebp+4], 0

; 856  : 	m_pBlocks = NULL;

  000c7	c7 45 ec 00 00
	00 00		 mov	 DWORD PTR _undoredoInfoList$[ebp+20], 0

; 857  : 	m_nBlockSize = nBlockSize;

  000ce	c7 45 f0 0a 00
	00 00		 mov	 DWORD PTR _undoredoInfoList$[ebp+24], 10 ; 0000000aH
; File D:\git\src\IBK\IBK_DRFN\ProjSrc\SrcChartEx\ChartAddIn\ChartAnalysisToolAddIn\Symbol\MainSymbolImplementation.cpp

; 329  : 	m_symboldata.GetUndoRedoManager().GetUndoRedoInfoListOfBlock(blockIndex, undoredoInfoList);

  000d5	8d 45 d8	 lea	 eax, DWORD PTR _undoredoInfoList$[ebp]
  000d8	c6 45 fc 01	 mov	 BYTE PTR __$EHRec$[ebp+8], 1
  000dc	50		 push	 eax
  000dd	53		 push	 ebx
  000de	8b cf		 mov	 ecx, edi
  000e0	e8 00 00 00 00	 call	 ?GetUndoRedoManager@CSymbolData@@QAEAAVCUndoRedoManager@@XZ ; CSymbolData::GetUndoRedoManager
  000e5	8b c8		 mov	 ecx, eax
  000e7	e8 00 00 00 00	 call	 ?GetUndoRedoInfoListOfBlock@CUndoRedoManager@@QAEXABVCBlockIndex@@AAV?$CList@PAVCUndo_Redo_Info@@PAV1@@@@Z ; CUndoRedoManager::GetUndoRedoInfoListOfBlock

; 330  : 	pos = undoredoInfoList.GetHeadPosition();

  000ec	8b 75 dc	 mov	 esi, DWORD PTR _undoredoInfoList$[ebp+4]
  000ef	85 f6		 test	 esi, esi

; 331  : 	while(pos)

  000f1	74 17		 je	 SHORT $LN5@DeleteAllS
$LL4@DeleteAllS:

; 333  : 		m_symboldata.GetUndoRedoManager().UnRegisterElementToUnRedoManager((long)undoredoInfoList.GetNext(pos));

  000f3	ff 76 08	 push	 DWORD PTR [esi+8]
; File C:\Program Files (x86)\Microsoft Visual Studio\2019\Community\VC\Tools\MSVC\14.29.30133\atlmfc\include\afxtempl.h

; 813  : 		rPosition = (POSITION) pNode->pNext;

  000f6	8b 36		 mov	 esi, DWORD PTR [esi]
; File D:\git\src\IBK\IBK_DRFN\ProjSrc\SrcChartEx\ChartAddIn\ChartAnalysisToolAddIn\Symbol\MainSymbolImplementation.cpp

; 333  : 		m_symboldata.GetUndoRedoManager().UnRegisterElementToUnRedoManager((long)undoredoInfoList.GetNext(pos));

  000f8	8b cf		 mov	 ecx, edi
  000fa	e8 00 00 00 00	 call	 ?GetUndoRedoManager@CSymbolData@@QAEAAVCUndoRedoManager@@XZ ; CSymbolData::GetUndoRedoManager
  000ff	8b c8		 mov	 ecx, eax
  00101	e8 00 00 00 00	 call	 ?UnRegisterElementToUnRedoManager@CUndoRedoManager@@QAEXJ@Z ; CUndoRedoManager::UnRegisterElementToUnRedoManager
  00106	85 f6		 test	 esi, esi
  00108	75 e9		 jne	 SHORT $LL4@DeleteAllS
$LN5@DeleteAllS:

; 334  : 	}
; 335  : 	
; 336  : 	m_symboldata.Invalidate();

  0010a	8b cf		 mov	 ecx, edi
  0010c	e8 00 00 00 00	 call	 ?Invalidate@CSymbolData@@QAEXXZ ; CSymbolData::Invalidate
; File C:\Program Files (x86)\Microsoft Visual Studio\2019\Community\VC\Tools\MSVC\14.29.30133\atlmfc\include\afxtempl.h

; 872  : 	m_pBlocks->FreeDataChain();

  00111	8b 4d ec	 mov	 ecx, DWORD PTR _undoredoInfoList$[ebp+20]

; 878  : {

  00114	c6 45 fc 02	 mov	 BYTE PTR __$EHRec$[ebp+8], 2
  00118	c7 45 d8 00 00
	00 00		 mov	 DWORD PTR _undoredoInfoList$[ebp], OFFSET ??_7?$CList@PAVCUndo_Redo_Info@@PAV1@@@6B@

; 870  : 	m_nCount = 0;

  0011f	c7 45 e4 00 00
	00 00		 mov	 DWORD PTR _undoredoInfoList$[ebp+12], 0

; 871  : 	m_pNodeHead = m_pNodeTail = m_pNodeFree = NULL;

  00126	c7 45 e8 00 00
	00 00		 mov	 DWORD PTR _undoredoInfoList$[ebp+16], 0
  0012d	c7 45 e0 00 00
	00 00		 mov	 DWORD PTR _undoredoInfoList$[ebp+8], 0
  00134	c7 45 dc 00 00
	00 00		 mov	 DWORD PTR _undoredoInfoList$[ebp+4], 0

; 872  : 	m_pBlocks->FreeDataChain();

  0013b	e8 00 00 00 00	 call	 ?FreeDataChain@CPlex@@QAEXXZ ; CPlex::FreeDataChain

; 873  : 	m_pBlocks = NULL;

  00140	c7 45 ec 00 00
	00 00		 mov	 DWORD PTR _undoredoInfoList$[ebp+20], 0

; 872  : 	m_pBlocks->FreeDataChain();

  00147	8b 4d d0	 mov	 ecx, DWORD PTR _elementList$[ebp+20]

; 878  : {

  0014a	c7 45 fc 03 00
	00 00		 mov	 DWORD PTR __$EHRec$[ebp+8], 3
  00151	c7 45 bc 00 00
	00 00		 mov	 DWORD PTR _elementList$[ebp], OFFSET ??_7?$CList@PAVCDrawingSymbol@@PAV1@@@6B@

; 870  : 	m_nCount = 0;

  00158	c7 45 c8 00 00
	00 00		 mov	 DWORD PTR _elementList$[ebp+12], 0

; 871  : 	m_pNodeHead = m_pNodeTail = m_pNodeFree = NULL;

  0015f	c7 45 cc 00 00
	00 00		 mov	 DWORD PTR _elementList$[ebp+16], 0
  00166	c7 45 c4 00 00
	00 00		 mov	 DWORD PTR _elementList$[ebp+8], 0
  0016d	c7 45 c0 00 00
	00 00		 mov	 DWORD PTR _elementList$[ebp+4], 0

; 872  : 	m_pBlocks->FreeDataChain();

  00174	e8 00 00 00 00	 call	 ?FreeDataChain@CPlex@@QAEXXZ ; CPlex::FreeDataChain
; File D:\git\src\IBK\IBK_DRFN\ProjSrc\SrcChartEx\ChartAddIn\ChartAnalysisToolAddIn\Symbol\MainSymbolImplementation.cpp

; 337  : }

  00179	8b 4d f4	 mov	 ecx, DWORD PTR __$EHRec$[ebp]
  0017c	64 89 0d 00 00
	00 00		 mov	 DWORD PTR fs:0, ecx
  00183	59		 pop	 ecx
  00184	5f		 pop	 edi
  00185	5e		 pop	 esi
  00186	5b		 pop	 ebx
  00187	8b e5		 mov	 esp, ebp
  00189	5d		 pop	 ebp
  0018a	c2 04 00	 ret	 4
_TEXT	ENDS
;	COMDAT text$x
text$x	SEGMENT
__unwindfunclet$?DeleteAllSymbolsInBlock@CMainSymbolImplementation@@QAEXABVCBlockIndex@@@Z$0:
  00000	8d 4d bc	 lea	 ecx, DWORD PTR _elementList$[ebp]
  00003	e9 00 00 00 00	 jmp	 ??1?$CList@PAVCDrawingSymbol@@PAV1@@@UAE@XZ ; CList<CDrawingSymbol *,CDrawingSymbol *>::~CList<CDrawingSymbol *,CDrawingSymbol *>
__unwindfunclet$?DeleteAllSymbolsInBlock@CMainSymbolImplementation@@QAEXABVCBlockIndex@@@Z$1:
  00008	8d 4d d8	 lea	 ecx, DWORD PTR _undoredoInfoList$[ebp]
  0000b	e9 00 00 00 00	 jmp	 ??1?$CList@PAVCUndo_Redo_Info@@PAV1@@@UAE@XZ ; CList<CUndo_Redo_Info *,CUndo_Redo_Info *>::~CList<CUndo_Redo_Info *,CUndo_Redo_Info *>
  00010	cc		 int	 3
  00011	cc		 int	 3
  00012	cc		 int	 3
  00013	cc		 int	 3
  00014	cc		 int	 3
__ehhandler$?DeleteAllSymbolsInBlock@CMainSymbolImplementation@@QAEXABVCBlockIndex@@@Z:
  00015	90		 npad	 1
  00016	90		 npad	 1
  00017	8b 54 24 08	 mov	 edx, DWORD PTR [esp+8]
  0001b	8d 42 0c	 lea	 eax, DWORD PTR [edx+12]
  0001e	8b 4a b8	 mov	 ecx, DWORD PTR [edx-72]
  00021	33 c8		 xor	 ecx, eax
  00023	e8 00 00 00 00	 call	 @__security_check_cookie@4
  00028	b8 00 00 00 00	 mov	 eax, OFFSET __ehfuncinfo$?DeleteAllSymbolsInBlock@CMainSymbolImplementation@@QAEXABVCBlockIndex@@@Z
  0002d	e9 00 00 00 00	 jmp	 ___CxxFrameHandler3
text$x	ENDS
?DeleteAllSymbolsInBlock@CMainSymbolImplementation@@QAEXABVCBlockIndex@@@Z ENDP ; CMainSymbolImplementation::DeleteAllSymbolsInBlock
; Function compile flags: /Ogtp
; File D:\git\src\IBK\IBK_DRFN\ProjSrc\SrcChartEx\ChartAddIn\ChartAnalysisToolAddIn\Symbol\MainSymbolImplementation.cpp
;	COMDAT ?DeleteAllSymbols@CMainSymbolImplementation@@QAEXXZ
_TEXT	SEGMENT
?DeleteAllSymbols@CMainSymbolImplementation@@QAEXXZ PROC ; CMainSymbolImplementation::DeleteAllSymbols, COMDAT
; _this$ = ecx

; 306  : {

  00000	56		 push	 esi
  00001	8b f1		 mov	 esi, ecx
  00003	57		 push	 edi

; 307  : 	m_symboldata.GetElementTree()->DeleteAllSymbols();

  00004	8d 4e 28	 lea	 ecx, DWORD PTR [esi+40]
  00007	e8 00 00 00 00	 call	 ?GetElementTree@CSymbolData@@QAEPAVCElementTree@@XZ ; CSymbolData::GetElementTree
  0000c	8b c8		 mov	 ecx, eax
  0000e	e8 00 00 00 00	 call	 ?DeleteAllSymbols@CElementTree@@QAEXXZ ; CElementTree::DeleteAllSymbols

; 308  : 	m_symboldata.GetUndoRedoManager().DeleteAll();		// Undo / Redo

  00013	8d 4e 28	 lea	 ecx, DWORD PTR [esi+40]
  00016	e8 00 00 00 00	 call	 ?GetUndoRedoManager@CSymbolData@@QAEAAVCUndoRedoManager@@XZ ; CSymbolData::GetUndoRedoManager
  0001b	8b c8		 mov	 ecx, eax
  0001d	e8 00 00 00 00	 call	 ?DeleteAll@CUndoRedoManager@@QAEXXZ ; CUndoRedoManager::DeleteAll

; 384  : 	m_singleton.InitialTool();	

  00022	8d 8e 28 01 00
	00		 lea	 ecx, DWORD PTR [esi+296]
  00028	c7 46 24 00 00
	00 00		 mov	 DWORD PTR [esi+36], 0
  0002f	c7 46 20 00 00
	00 00		 mov	 DWORD PTR [esi+32], 0
  00036	e8 00 00 00 00	 call	 ?InitialTool@CSymbolSingleton@@QAEXXZ ; CSymbolSingleton::InitialTool

; 309  : 	Initial();
; 310  : 	m_symboldata.Invalidate();

  0003b	5f		 pop	 edi
  0003c	8d 4e 28	 lea	 ecx, DWORD PTR [esi+40]
  0003f	5e		 pop	 esi
  00040	e9 00 00 00 00	 jmp	 ?Invalidate@CSymbolData@@QAEXXZ ; CSymbolData::Invalidate
?DeleteAllSymbols@CMainSymbolImplementation@@QAEXXZ ENDP ; CMainSymbolImplementation::DeleteAllSymbols
_TEXT	ENDS
; Function compile flags: /Ogtp
; File D:\git\src\IBK\IBK_DRFN\ProjSrc\SrcChartEx\ChartAddIn\ChartAnalysisToolAddIn\Symbol\MainSymbolImplementation.cpp
;	COMDAT ?DeleteCurrentSymbols@CMainSymbolImplementation@@QAE_NXZ
_TEXT	SEGMENT
?DeleteCurrentSymbols@CMainSymbolImplementation@@QAE_NXZ PROC ; CMainSymbolImplementation::DeleteCurrentSymbols, COMDAT
; _this$ = ecx

; 340  : {

  00000	57		 push	 edi
  00001	8b f9		 mov	 edi, ecx

; 341  : 	if(m_pDrawingSymbol == NULL)

  00003	8b 47 20	 mov	 eax, DWORD PTR [edi+32]
  00006	85 c0		 test	 eax, eax
  00008	75 04		 jne	 SHORT $LN2@DeleteCurr

; 342  : 		return false;

  0000a	32 c0		 xor	 al, al
  0000c	5f		 pop	 edi

; 353  : }

  0000d	c3		 ret	 0
$LN2@DeleteCurr:
  0000e	53		 push	 ebx
  0000f	56		 push	 esi

; 343  : 
; 344  : 	m_symboldata.UnRegisterElementToOrderManager((long)m_pDrawingSymbol);

  00010	50		 push	 eax
  00011	8d 4f 28	 lea	 ecx, DWORD PTR [edi+40]
  00014	e8 00 00 00 00	 call	 ?UnRegisterElementToOrderManager@CSymbolData@@QAEXJ@Z ; CSymbolData::UnRegisterElementToOrderManager

; 345  : 
; 346  : 	// Undo / Redo
; 347  : 	m_symboldata.GetUndoRedoManager().RegisterElementToUnRedoManager(URT_NEW_OR_DEL, (long)m_pDrawingSymbol);

  00019	6a 00		 push	 0
  0001b	6a 00		 push	 0
  0001d	ff 77 20	 push	 DWORD PTR [edi+32]
  00020	8d 4f 28	 lea	 ecx, DWORD PTR [edi+40]
  00023	6a 01		 push	 1
  00025	e8 00 00 00 00	 call	 ?GetUndoRedoManager@CSymbolData@@QAEAAVCUndoRedoManager@@XZ ; CSymbolData::GetUndoRedoManager
  0002a	8b c8		 mov	 ecx, eax
  0002c	e8 00 00 00 00	 call	 ?RegisterElementToUnRedoManager@CUndoRedoManager@@QAEXHJPBD0@Z ; CUndoRedoManager::RegisterElementToUnRedoManager

; 348  : 
; 349  : 	bool bResult = m_symboldata.GetElementTree()->DeleteCurrentDrawingSymbol(m_pDrawingSymbol);

  00031	ff 77 20	 push	 DWORD PTR [edi+32]
  00034	8d 4f 28	 lea	 ecx, DWORD PTR [edi+40]
  00037	e8 00 00 00 00	 call	 ?GetElementTree@CSymbolData@@QAEPAVCElementTree@@XZ ; CSymbolData::GetElementTree
  0003c	8b c8		 mov	 ecx, eax
  0003e	e8 00 00 00 00	 call	 ?DeleteCurrentDrawingSymbol@CElementTree@@QAE_NPBVCDrawingSymbol@@@Z ; CElementTree::DeleteCurrentDrawingSymbol

; 384  : 	m_singleton.InitialTool();	

  00043	8d 8f 28 01 00
	00		 lea	 ecx, DWORD PTR [edi+296]
  00049	c7 47 24 00 00
	00 00		 mov	 DWORD PTR [edi+36], 0

; 348  : 
; 349  : 	bool bResult = m_symboldata.GetElementTree()->DeleteCurrentDrawingSymbol(m_pDrawingSymbol);

  00050	8a d8		 mov	 bl, al

; 383  : 	m_pDrawingSymbol = NULL;

  00052	c7 47 20 00 00
	00 00		 mov	 DWORD PTR [edi+32], 0

; 384  : 	m_singleton.InitialTool();	

  00059	e8 00 00 00 00	 call	 ?InitialTool@CSymbolSingleton@@QAEXXZ ; CSymbolSingleton::InitialTool

; 350  : 	Initial();
; 351  : 	m_symboldata.Invalidate();

  0005e	8d 4f 28	 lea	 ecx, DWORD PTR [edi+40]
  00061	e8 00 00 00 00	 call	 ?Invalidate@CSymbolData@@QAEXXZ ; CSymbolData::Invalidate

; 352  : 	return bResult;

  00066	5e		 pop	 esi
  00067	8a c3		 mov	 al, bl
  00069	5b		 pop	 ebx
  0006a	5f		 pop	 edi

; 353  : }

  0006b	c3		 ret	 0
?DeleteCurrentSymbols@CMainSymbolImplementation@@QAE_NXZ ENDP ; CMainSymbolImplementation::DeleteCurrentSymbols
_TEXT	ENDS
; Function compile flags: /Ogtp
; File D:\git\src\IBK\IBK_DRFN\ProjSrc\SrcChartEx\ChartAddIn\ChartAnalysisToolAddIn\Symbol\MainSymbolImplementation.cpp
;	COMDAT ?SetModifiedBlockIndexs@CMainSymbolImplementation@@QAEXABVCBlockIndex@@0@Z
_TEXT	SEGMENT
_sourceBlockIndex$ = 8					; size = 4
_TargetBlockIndex$ = 12					; size = 4
?SetModifiedBlockIndexs@CMainSymbolImplementation@@QAEXABVCBlockIndex@@0@Z PROC ; CMainSymbolImplementation::SetModifiedBlockIndexs, COMDAT
; _this$ = ecx

; 283  : {

  00000	55		 push	 ebp
  00001	8b ec		 mov	 ebp, esp

; 284  : 	m_symboldata.GetElementTree()->SetModifiedBlockIndexs(sourceBlockIndex, TargetBlockIndex);

  00003	ff 75 0c	 push	 DWORD PTR _TargetBlockIndex$[ebp]
  00006	83 c1 28	 add	 ecx, 40			; 00000028H
  00009	ff 75 08	 push	 DWORD PTR _sourceBlockIndex$[ebp]
  0000c	e8 00 00 00 00	 call	 ?GetElementTree@CSymbolData@@QAEPAVCElementTree@@XZ ; CSymbolData::GetElementTree
  00011	8b c8		 mov	 ecx, eax
  00013	e8 00 00 00 00	 call	 ?SetModifiedBlockIndexs@CElementTree@@QAEXABVCBlockIndex@@0@Z ; CElementTree::SetModifiedBlockIndexs

; 285  : }

  00018	5d		 pop	 ebp
  00019	c2 08 00	 ret	 8
?SetModifiedBlockIndexs@CMainSymbolImplementation@@QAEXABVCBlockIndex@@0@Z ENDP ; CMainSymbolImplementation::SetModifiedBlockIndexs
_TEXT	ENDS
; Function compile flags: /Ogtp
; File D:\git\src\IBK\IBK_DRFN\ProjSrc\SrcChartEx\ChartAddIn\ChartAnalysisToolAddIn\Symbol\MainSymbolImplementation.cpp
; File D:\git\src\IBK\IBK_DRFN\ProjSrc\SrcChartEx\ChartAddIn\ChartAnalysisToolAddIn\Include_Chart\BlockBaseData.h
; File D:\git\src\IBK\IBK_DRFN\ProjSrc\SrcChartEx\ChartAddIn\ChartAnalysisToolAddIn\Symbol\MainSymbolImplementation.cpp
;	COMDAT ?InsertBlockIndex@CMainSymbolImplementation@@QAE_NABVCBlockIndex@@@Z
_TEXT	SEGMENT
_insertBlockIndex$ = 8					; size = 4
?InsertBlockIndex@CMainSymbolImplementation@@QAE_NABVCBlockIndex@@@Z PROC ; CMainSymbolImplementation::InsertBlockIndex, COMDAT
; _this$ = ecx

; 295  : {

  00000	55		 push	 ebp
  00001	8b ec		 mov	 ebp, esp
; File D:\git\src\IBK\IBK_DRFN\ProjSrc\SrcChartEx\ChartAddIn\ChartAnalysisToolAddIn\Include_Chart\BlockBaseData.h

; 32   : 	bool IsAllValueBiggerThanZero() const { return (m_nRow >= 0 && m_nColumn >= 0); };

  00003	8b 45 08	 mov	 eax, DWORD PTR _insertBlockIndex$[ebp]
  00006	83 38 00	 cmp	 DWORD PTR [eax], 0
  00009	7c 20		 jl	 SHORT $LN10@InsertBloc
  0000b	83 78 04 00	 cmp	 DWORD PTR [eax+4], 0
  0000f	7c 1a		 jl	 SHORT $LN10@InsertBloc
; File D:\git\src\IBK\IBK_DRFN\ProjSrc\SrcChartEx\ChartAddIn\ChartAnalysisToolAddIn\Symbol\MainSymbolImplementation.cpp

; 300  : 	if(!m_symboldata.GetElementTree()->InsertBlockIndex(insertBlockIndex))

  00011	50		 push	 eax
  00012	83 c1 28	 add	 ecx, 40			; 00000028H
  00015	e8 00 00 00 00	 call	 ?GetElementTree@CSymbolData@@QAEPAVCElementTree@@XZ ; CSymbolData::GetElementTree
  0001a	8b c8		 mov	 ecx, eax
  0001c	e8 00 00 00 00	 call	 ?InsertBlockIndex@CElementTree@@QAE_NABVCBlockIndex@@@Z ; CElementTree::InsertBlockIndex
  00021	84 c0		 test	 al, al
  00023	74 06		 je	 SHORT $LN10@InsertBloc

; 302  : 	return true;

  00025	b0 01		 mov	 al, 1

; 303  : }

  00027	5d		 pop	 ebp
  00028	c2 04 00	 ret	 4
$LN10@InsertBloc:

; 301  : 		return false;

  0002b	32 c0		 xor	 al, al

; 303  : }

  0002d	5d		 pop	 ebp
  0002e	c2 04 00	 ret	 4
?InsertBlockIndex@CMainSymbolImplementation@@QAE_NABVCBlockIndex@@@Z ENDP ; CMainSymbolImplementation::InsertBlockIndex
_TEXT	ENDS
; Function compile flags: /Ogtp
; File D:\git\src\IBK\IBK_DRFN\ProjSrc\SrcChartEx\ChartAddIn\ChartAnalysisToolAddIn\Symbol\MainSymbolImplementation.cpp
;	COMDAT ?OnSetColor@CMainSymbolImplementation@@QAEXABK@Z
_TEXT	SEGMENT
_color$ = 8						; size = 4
?OnSetColor@CMainSymbolImplementation@@QAEXABK@Z PROC	; CMainSymbolImplementation::OnSetColor, COMDAT
; _this$ = ecx

; 528  : {

  00000	55		 push	 ebp
  00001	8b ec		 mov	 ebp, esp

; 529  : 	m_symboldata.GetPropertiesData()->SetColor(color);

  00003	ff 75 08	 push	 DWORD PTR _color$[ebp]
  00006	83 c1 28	 add	 ecx, 40			; 00000028H
  00009	e8 00 00 00 00	 call	 ?GetPropertiesData@CSymbolData@@QAEPAVCPropertiesData_text@@XZ ; CSymbolData::GetPropertiesData
  0000e	8b c8		 mov	 ecx, eax
  00010	e8 00 00 00 00	 call	 ?SetColor@CPropertiesData_Figure@@QAEXABK@Z ; CPropertiesData_Figure::SetColor

; 530  : }

  00015	5d		 pop	 ebp
  00016	c2 04 00	 ret	 4
?OnSetColor@CMainSymbolImplementation@@QAEXABK@Z ENDP	; CMainSymbolImplementation::OnSetColor
_TEXT	ENDS
; Function compile flags: /Ogtp
; File D:\git\src\IBK\IBK_DRFN\ProjSrc\SrcChartEx\ChartAddIn\ChartAnalysisToolAddIn\Symbol\MainSymbolImplementation.cpp
;	COMDAT ?OnDraw@CMainSymbolImplementation@@QAEXPAVCDC@@@Z
_TEXT	SEGMENT
_pDC$ = 8						; size = 4
?OnDraw@CMainSymbolImplementation@@QAEXPAVCDC@@@Z PROC	; CMainSymbolImplementation::OnDraw, COMDAT
; _this$ = ecx

; 261  : {

  00000	55		 push	 ebp
  00001	8b ec		 mov	 ebp, esp
  00003	56		 push	 esi
  00004	8b f1		 mov	 esi, ecx

; 262  : 	//      ..    .
; 263  : 	//         .
; 264  : //	if(m_pSymbolTool == NULL || m_pSymbolTool != NULL && m_pSymbolTool->IsDrawStart() == false) {
; 265  : 	m_symboldata.DrawElement(pDC, m_pDrawingSymbol);

  00006	ff 76 20	 push	 DWORD PTR [esi+32]
  00009	8d 4e 28	 lea	 ecx, DWORD PTR [esi+40]
  0000c	ff 75 08	 push	 DWORD PTR _pDC$[ebp]
  0000f	e8 00 00 00 00	 call	 ?DrawElement@CSymbolData@@QAEXPAVCDC@@PAVCDrawingSymbol@@@Z ; CSymbolData::DrawElement

; 266  : 
; 267  : 	if(m_pSymbolTool != NULL && m_pDrawingSymbol != NULL)

  00014	8b 4e 24	 mov	 ecx, DWORD PTR [esi+36]
  00017	85 c9		 test	 ecx, ecx
  00019	74 0d		 je	 SHORT $LN2@OnDraw
  0001b	83 7e 20 00	 cmp	 DWORD PTR [esi+32], 0
  0001f	74 07		 je	 SHORT $LN2@OnDraw

; 268  : 		m_pSymbolTool->OnDraw(pDC);

  00021	8b 01		 mov	 eax, DWORD PTR [ecx]
  00023	5e		 pop	 esi

; 269  : }

  00024	5d		 pop	 ebp

; 268  : 		m_pSymbolTool->OnDraw(pDC);

  00025	ff 60 14	 jmp	 DWORD PTR [eax+20]
$LN2@OnDraw:
  00028	5e		 pop	 esi

; 269  : }

  00029	5d		 pop	 ebp
  0002a	c2 04 00	 ret	 4
?OnDraw@CMainSymbolImplementation@@QAEXPAVCDC@@@Z ENDP	; CMainSymbolImplementation::OnDraw
_TEXT	ENDS
; Function compile flags: /Ogtp
; File D:\git\src\IBK\IBK_DRFN\ProjSrc\SrcChartEx\ChartAddIn\ChartAnalysisToolAddIn\Symbol\MainSymbolImplementation.cpp
; File D:\git\src\IBK\IBK_DRFN\ProjSrc\SrcChartEx\ChartAddIn\ChartAnalysisToolAddIn\Include_Chart\BlockBaseData.h
; File D:\git\src\IBK\IBK_DRFN\ProjSrc\SrcChartEx\ChartAddIn\ChartAnalysisToolAddIn\Include_AddIn_133101\I133101\_IString.h
; File D:\git\src\IBK\IBK_DRFN\ProjSrc\SrcChartEx\ChartAddIn\ChartAnalysisToolAddIn\Symbol\MainSymbolImplementation.cpp
; File D:\git\src\IBK\IBK_DRFN\ProjSrc\SrcChartEx\ChartAddIn\ChartAnalysisToolAddIn\Include_AddIn_133101\I133101\_IString.h
; File D:\git\src\IBK\IBK_DRFN\ProjSrc\SrcChartEx\ChartAddIn\ChartAnalysisToolAddIn\Symbol\MainSymbolImplementation.cpp
;	COMDAT ?OnRButtonMenu@CMainSymbolImplementation@@QAE_NW4ELEMENTMENU@CMenuType@@I@Z
_TEXT	SEGMENT
_blockIndex$2 = -192					; size = 8
$T3 = -184						; size = 4
$T4 = -180						; size = 4
_nCol$5 = -176						; size = 4
_nRow$6 = -172						; size = 4
_szHelpMsg$7 = -168					; size = 8
_pIChartManager$1$ = -160				; size = 4
_strFormatX$8 = -156					; size = 4
_pPackManager$1$ = -152					; size = 4
$T9 = -152						; size = 4
_manager$10 = -148					; size = 132
__$ArrayPad$ = -16					; size = 4
__$EHRec$ = -12						; size = 12
_menuType$ = 8						; size = 4
_wParam$ = 12						; size = 4
?OnRButtonMenu@CMainSymbolImplementation@@QAE_NW4ELEMENTMENU@CMenuType@@I@Z PROC ; CMainSymbolImplementation::OnRButtonMenu, COMDAT
; _this$ = ecx

; 480  : {

  00000	55		 push	 ebp
  00001	8b ec		 mov	 ebp, esp
  00003	6a ff		 push	 -1
  00005	68 00 00 00 00	 push	 __ehhandler$?OnRButtonMenu@CMainSymbolImplementation@@QAE_NW4ELEMENTMENU@CMenuType@@I@Z
  0000a	64 a1 00 00 00
	00		 mov	 eax, DWORD PTR fs:0
  00010	50		 push	 eax
  00011	81 ec b4 00 00
	00		 sub	 esp, 180		; 000000b4H
  00017	a1 00 00 00 00	 mov	 eax, DWORD PTR ___security_cookie
  0001c	33 c5		 xor	 eax, ebp
  0001e	89 45 f0	 mov	 DWORD PTR __$ArrayPad$[ebp], eax
  00021	53		 push	 ebx
  00022	56		 push	 esi
  00023	57		 push	 edi
  00024	50		 push	 eax
  00025	8d 45 f4	 lea	 eax, DWORD PTR __$EHRec$[ebp]
  00028	64 a3 00 00 00
	00		 mov	 DWORD PTR fs:0, eax
  0002e	8b f9		 mov	 edi, ecx

; 481  : 	if(menuType == CMenuType::MENU_DELETE) // 

  00030	8b 45 08	 mov	 eax, DWORD PTR _menuType$[ebp]
  00033	85 c0		 test	 eax, eax
  00035	75 6d		 jne	 SHORT $LN2@OnRButtonM

; 341  : 	if(m_pDrawingSymbol == NULL)

  00037	8b 47 20	 mov	 eax, DWORD PTR [edi+32]
  0003a	85 c0		 test	 eax, eax
  0003c	75 09		 jne	 SHORT $LN19@OnRButtonM

; 342  : 		return false;

  0003e	32 db		 xor	 bl, bl

; 482  : 		return DeleteCurrentSymbols();

  00040	8a c3		 mov	 al, bl
  00042	e9 24 02 00 00	 jmp	 $LN1@OnRButtonM
$LN19@OnRButtonM:

; 344  : 	m_symboldata.UnRegisterElementToOrderManager((long)m_pDrawingSymbol);

  00047	50		 push	 eax
  00048	8d 4f 28	 lea	 ecx, DWORD PTR [edi+40]
  0004b	e8 00 00 00 00	 call	 ?UnRegisterElementToOrderManager@CSymbolData@@QAEXJ@Z ; CSymbolData::UnRegisterElementToOrderManager

; 345  : 
; 346  : 	// Undo / Redo
; 347  : 	m_symboldata.GetUndoRedoManager().RegisterElementToUnRedoManager(URT_NEW_OR_DEL, (long)m_pDrawingSymbol);

  00050	6a 00		 push	 0
  00052	6a 00		 push	 0
  00054	ff 77 20	 push	 DWORD PTR [edi+32]
  00057	8d 4f 28	 lea	 ecx, DWORD PTR [edi+40]
  0005a	6a 01		 push	 1
  0005c	e8 00 00 00 00	 call	 ?GetUndoRedoManager@CSymbolData@@QAEAAVCUndoRedoManager@@XZ ; CSymbolData::GetUndoRedoManager
  00061	8b c8		 mov	 ecx, eax
  00063	e8 00 00 00 00	 call	 ?RegisterElementToUnRedoManager@CUndoRedoManager@@QAEXHJPBD0@Z ; CUndoRedoManager::RegisterElementToUnRedoManager

; 348  : 
; 349  : 	bool bResult = m_symboldata.GetElementTree()->DeleteCurrentDrawingSymbol(m_pDrawingSymbol);

  00068	ff 77 20	 push	 DWORD PTR [edi+32]
  0006b	8d 4f 28	 lea	 ecx, DWORD PTR [edi+40]
  0006e	e8 00 00 00 00	 call	 ?GetElementTree@CSymbolData@@QAEPAVCElementTree@@XZ ; CSymbolData::GetElementTree
  00073	8b c8		 mov	 ecx, eax
  00075	e8 00 00 00 00	 call	 ?DeleteCurrentDrawingSymbol@CElementTree@@QAE_NPBVCDrawingSymbol@@@Z ; CElementTree::DeleteCurrentDrawingSymbol

; 384  : 	m_singleton.InitialTool();	

  0007a	8d 8f 28 01 00
	00		 lea	 ecx, DWORD PTR [edi+296]
  00080	c7 47 24 00 00
	00 00		 mov	 DWORD PTR [edi+36], 0

; 349  : 	bool bResult = m_symboldata.GetElementTree()->DeleteCurrentDrawingSymbol(m_pDrawingSymbol);

  00087	8a d8		 mov	 bl, al

; 383  : 	m_pDrawingSymbol = NULL;

  00089	c7 47 20 00 00
	00 00		 mov	 DWORD PTR [edi+32], 0

; 384  : 	m_singleton.InitialTool();	

  00090	e8 00 00 00 00	 call	 ?InitialTool@CSymbolSingleton@@QAEXXZ ; CSymbolSingleton::InitialTool

; 351  : 	m_symboldata.Invalidate();

  00095	8d 4f 28	 lea	 ecx, DWORD PTR [edi+40]
  00098	e8 00 00 00 00	 call	 ?Invalidate@CSymbolData@@QAEXXZ ; CSymbolData::Invalidate
$LN18@OnRButtonM:

; 482  : 		return DeleteCurrentSymbols();

  0009d	8a c3		 mov	 al, bl
  0009f	e9 c7 01 00 00	 jmp	 $LN1@OnRButtonM
$LN2@OnRButtonM:

; 483  : 	else if(menuType == CMenuType::MENU_COLOR) // color

  000a4	83 f8 02	 cmp	 eax, 2
  000a7	75 2f		 jne	 SHORT $LN4@OnRButtonM

; 372  : 	if(m_pDrawingSymbol == NULL)

  000a9	8b 4f 20	 mov	 ecx, DWORD PTR [edi+32]

; 484  : 		return SetColor((COLORREF)wParam);

  000ac	8b 45 0c	 mov	 eax, DWORD PTR _wParam$[ebp]
  000af	89 85 68 ff ff
	ff		 mov	 DWORD PTR $T9[ebp], eax

; 372  : 	if(m_pDrawingSymbol == NULL)

  000b5	85 c9		 test	 ecx, ecx
  000b7	0f 84 ac 01 00
	00		 je	 $LN6@OnRButtonM

; 373  : 		return false;
; 374  : 
; 375  : 	m_pDrawingSymbol->SetColor(symbolColor);

  000bd	8d 85 68 ff ff
	ff		 lea	 eax, DWORD PTR $T9[ebp]
  000c3	50		 push	 eax
  000c4	e8 00 00 00 00	 call	 ?SetColor@CDrawingSymbol@@QAEXABK@Z ; CDrawingSymbol::SetColor

; 376  : 	m_symboldata.Invalidate();

  000c9	8d 4f 28	 lea	 ecx, DWORD PTR [edi+40]
  000cc	e8 00 00 00 00	 call	 ?Invalidate@CSymbolData@@QAEXXZ ; CSymbolData::Invalidate

; 377  : 	return true;

  000d1	b0 01		 mov	 al, 1

; 484  : 		return SetColor((COLORREF)wParam);

  000d3	e9 93 01 00 00	 jmp	 $LN1@OnRButtonM
$LN4@OnRButtonM:

; 485  : 	else if(menuType == CMenuType::MENU_SET)

  000d8	83 f8 01	 cmp	 eax, 1
  000db	0f 85 88 01 00
	00		 jne	 $LN6@OnRButtonM

; 486  : 	{//  Dlg
; 487  : 		IChartManager *pIChartManager = m_symboldata.GetMainBlock();

  000e1	8d 5f 28	 lea	 ebx, DWORD PTR [edi+40]
  000e4	8b cb		 mov	 ecx, ebx
  000e6	e8 00 00 00 00	 call	 ?GetMainBlock@CSymbolData@@QBEPAUIChartManager133101@@XZ ; CSymbolData::GetMainBlock

; 488  : 		IPacketManager* pPackManager = m_symboldata.GetPacketManager();

  000eb	8b cb		 mov	 ecx, ebx
  000ed	89 85 60 ff ff
	ff		 mov	 DWORD PTR _pIChartManager$1$[ebp], eax
  000f3	e8 00 00 00 00	 call	 ?GetPacketManager@CSymbolData@@QBEPAUIPacketManager133101@@XZ ; CSymbolData::GetPacketManager

; 489  : 
; 490  : 
; 491  : 		// 2011.02.08 by SYS >>  YYYY()  : / 14Byte  (YYYYMMDDhhmmss)
; 492  : // 		CProperties_Manager manager(m_pDrawingSymbol, m_symboldata.GetPropertiesData(), pIChartManager,
; 493  : // 									m_symboldata.GetUserFilePath(),
; 494  : // 									pPackManager->GetBaseTimeDataType(),
; 495  : // 									( m_pIChartOCX ? m_pIChartOCX->GetOcxHwnd() : NULL));
; 496  : 
; 497  : 		int nRow, nCol;
; 498  : 		pIChartManager->GetBlockIndex(m_ptOldLBtnUp, nRow, nCol);

  000f8	8d 8d 50 ff ff
	ff		 lea	 ecx, DWORD PTR _nCol$5[ebp]
  000fe	8b f0		 mov	 esi, eax
  00100	8b 85 60 ff ff
	ff		 mov	 eax, DWORD PTR _pIChartManager$1$[ebp]
  00106	51		 push	 ecx
  00107	8d 8d 54 ff ff
	ff		 lea	 ecx, DWORD PTR _nRow$6[ebp]
  0010d	89 b5 68 ff ff
	ff		 mov	 DWORD PTR _pPackManager$1$[ebp], esi
  00113	51		 push	 ecx
  00114	ff 77 18	 push	 DWORD PTR [edi+24]
  00117	8b 10		 mov	 edx, DWORD PTR [eax]
  00119	8b c8		 mov	 ecx, eax
  0011b	ff 77 14	 push	 DWORD PTR [edi+20]
  0011e	ff 92 8c 00 00
	00		 call	 DWORD PTR [edx+140]
; File D:\git\src\IBK\IBK_DRFN\ProjSrc\SrcChartEx\ChartAddIn\ChartAnalysisToolAddIn\Include_Chart\BlockBaseData.h

; 20   : 	CBlockIndex(const int row, const int column) { m_nRow = row; m_nColumn = column; };

  00124	8b 85 54 ff ff
	ff		 mov	 eax, DWORD PTR _nRow$6[ebp]
  0012a	89 85 40 ff ff
	ff		 mov	 DWORD PTR _blockIndex$2[ebp], eax
  00130	8b 85 50 ff ff
	ff		 mov	 eax, DWORD PTR _nCol$5[ebp]
  00136	89 85 44 ff ff
	ff		 mov	 DWORD PTR _blockIndex$2[ebp+4], eax
; File D:\git\src\IBK\IBK_DRFN\ProjSrc\SrcChartEx\ChartAddIn\ChartAnalysisToolAddIn\Include_AddIn_133101\I133101\_IString.h

; 39   : 		m_pIStrData = p_pIString;	// Do not AddRef(). Because It must be Return Value.

  0013c	c7 85 5c ff ff
	ff 00 00 00 00	 mov	 DWORD PTR _szHelpMsg$7[ebp+4], 0

; 40   : 		if( m_pIStrData) m_szData = m_pIStrData->GetData();
; 41   : 		else m_szData = NULL;

  00146	c7 85 58 ff ff
	ff 00 00 00 00	 mov	 DWORD PTR _szHelpMsg$7[ebp], 0
; File D:\git\src\IBK\IBK_DRFN\ProjSrc\SrcChartEx\ChartAddIn\ChartAnalysisToolAddIn\Symbol\MainSymbolImplementation.cpp

; 503  : 		CString strFormatX;	

  00150	8d 8d 64 ff ff
	ff		 lea	 ecx, DWORD PTR _strFormatX$8[ebp]
  00156	c7 45 fc 00 00
	00 00		 mov	 DWORD PTR __$EHRec$[ebp+8], 0
  0015d	ff 15 00 00 00
	00		 call	 DWORD PTR __imp_??0?$CStringT@DV?$StrTraitMFC_DLL@DV?$ChTraitsCRT@D@ATL@@@@@ATL@@QAE@XZ

; 504  : 		pPackManager->GetHelpMessageItem("RDATET", szHelpMsg);	//  UD  .	

  00163	8b 06		 mov	 eax, DWORD PTR [esi]
  00165	8d 8d 58 ff ff
	ff		 lea	 ecx, DWORD PTR _szHelpMsg$7[ebp]
  0016b	51		 push	 ecx
  0016c	68 00 00 00 00	 push	 OFFSET ??_C@_06MLGKKOBC@RDATET@
  00171	8b ce		 mov	 ecx, esi
  00173	c6 45 fc 01	 mov	 BYTE PTR __$EHRec$[ebp+8], 1
  00177	ff 50 18	 call	 DWORD PTR [eax+24]

; 505  : 		strFormatX = szHelpMsg;

  0017a	ff b5 58 ff ff
	ff		 push	 DWORD PTR _szHelpMsg$7[ebp]
  00180	8d 8d 64 ff ff
	ff		 lea	 ecx, DWORD PTR _strFormatX$8[ebp]
  00186	ff 15 00 00 00
	00		 call	 DWORD PTR __imp_??4?$CStringT@DV?$StrTraitMFC_DLL@DV?$ChTraitsCRT@D@ATL@@@@@ATL@@QAEAAV01@PBD@Z

; 506  : 
; 507  : 		CProperties_Manager manager(m_pDrawingSymbol, m_symboldata.GetPropertiesData(), pIChartManager,

  0018c	8b 4f 08	 mov	 ecx, DWORD PTR [edi+8]
  0018f	85 c9		 test	 ecx, ecx
  00191	74 09		 je	 SHORT $LN11@OnRButtonM
  00193	8b 01		 mov	 eax, DWORD PTR [ecx]
  00195	ff 50 40	 call	 DWORD PTR [eax+64]
  00198	8b f0		 mov	 esi, eax
  0019a	eb 02		 jmp	 SHORT $LN12@OnRButtonM
$LN11@OnRButtonM:
  0019c	33 f6		 xor	 esi, esi
$LN12@OnRButtonM:
  0019e	8b 8d 68 ff ff
	ff		 mov	 ecx, DWORD PTR _pPackManager$1$[ebp]
  001a4	8b 01		 mov	 eax, DWORD PTR [ecx]
  001a6	ff 50 2c	 call	 DWORD PTR [eax+44]
  001a9	89 85 4c ff ff
	ff		 mov	 DWORD PTR $T4[ebp], eax
  001af	8b cb		 mov	 ecx, ebx
  001b1	8d 85 48 ff ff
	ff		 lea	 eax, DWORD PTR $T3[ebp]
  001b7	50		 push	 eax
  001b8	e8 00 00 00 00	 call	 ?GetUserFilePath@CSymbolData@@QBE?AV?$CStringT@DV?$StrTraitMFC_DLL@DV?$ChTraitsCRT@D@ATL@@@@@ATL@@XZ ; CSymbolData::GetUserFilePath
  001bd	8d 8d 64 ff ff
	ff		 lea	 ecx, DWORD PTR _strFormatX$8[ebp]
  001c3	c6 45 fc 02	 mov	 BYTE PTR __$EHRec$[ebp+8], 2
  001c7	51		 push	 ecx
  001c8	8d 8d 40 ff ff
	ff		 lea	 ecx, DWORD PTR _blockIndex$2[ebp]
  001ce	51		 push	 ecx
  001cf	56		 push	 esi
  001d0	8b b5 60 ff ff
	ff		 mov	 esi, DWORD PTR _pIChartManager$1$[ebp]
  001d6	8d 8d 4c ff ff
	ff		 lea	 ecx, DWORD PTR $T4[ebp]
  001dc	51		 push	 ecx
  001dd	50		 push	 eax
  001de	56		 push	 esi
  001df	8b cb		 mov	 ecx, ebx
  001e1	e8 00 00 00 00	 call	 ?GetPropertiesData@CSymbolData@@QAEPAVCPropertiesData_text@@XZ ; CSymbolData::GetPropertiesData
  001e6	50		 push	 eax
  001e7	ff 77 20	 push	 DWORD PTR [edi+32]
  001ea	8d 8d 6c ff ff
	ff		 lea	 ecx, DWORD PTR _manager$10[ebp]
  001f0	e8 00 00 00 00	 call	 ??0CProperties_Manager@@QAE@PAVCDrawingSymbol@@PAVCPropertiesData_text@@PAUIChartManager133101@@ABV?$CStringT@DV?$StrTraitMFC_DLL@DV?$ChTraitsCRT@D@ATL@@@@@ATL@@ABW4HORZSCALEDRAWERTYPE@CScaleBaseData@@PAUHWND__@@ABVCBlockIndex@@3@Z ; CProperties_Manager::CProperties_Manager
  001f5	8d 8d 48 ff ff
	ff		 lea	 ecx, DWORD PTR $T3[ebp]
  001fb	c6 45 fc 04	 mov	 BYTE PTR __$EHRec$[ebp+8], 4
  001ff	ff 15 00 00 00
	00		 call	 DWORD PTR __imp_??1?$CStringT@DV?$StrTraitMFC_DLL@DV?$ChTraitsCRT@D@ATL@@@@@ATL@@QAE@XZ

; 508  : 									m_symboldata.GetUserFilePath(),
; 509  : 									pPackManager->GetBaseTimeDataType(),
; 510  : 									( m_pIChartOCX ? m_pIChartOCX->GetOcxHwnd() : NULL),
; 511  : 									blockIndex, strFormatX);
; 512  : 
; 513  : 		// 2011.02.08 by SYS <<
; 514  : 
; 515  : 		if( pIChartManager) pIChartManager->Release();

  00205	8b 06		 mov	 eax, DWORD PTR [esi]
  00207	56		 push	 esi
  00208	ff 50 08	 call	 DWORD PTR [eax+8]

; 516  : 		if( pPackManager) pPackManager->Release();

  0020b	8b 8d 68 ff ff
	ff		 mov	 ecx, DWORD PTR _pPackManager$1$[ebp]
  00211	51		 push	 ecx
  00212	8b 01		 mov	 eax, DWORD PTR [ecx]
  00214	ff 50 08	 call	 DWORD PTR [eax+8]

; 517  : 		if(manager.PopUpPropertiesBox())

  00217	8d 8d 6c ff ff
	ff		 lea	 ecx, DWORD PTR _manager$10[ebp]
  0021d	e8 00 00 00 00	 call	 ?PopUpPropertiesBox@CProperties_Manager@@QAE_NXZ ; CProperties_Manager::PopUpPropertiesBox
  00222	84 c0		 test	 al, al
  00224	74 0b		 je	 SHORT $LN9@OnRButtonM

; 518  : 		{
; 519  : 			m_symboldata.Invalidate();

  00226	8b cb		 mov	 ecx, ebx
  00228	e8 00 00 00 00	 call	 ?Invalidate@CSymbolData@@QAEXXZ ; CSymbolData::Invalidate
  0022d	b3 01		 mov	 bl, 1
  0022f	eb 02		 jmp	 SHORT $LN17@OnRButtonM
$LN9@OnRButtonM:

; 522  : 		return false;

  00231	32 db		 xor	 bl, bl
$LN17@OnRButtonM:
  00233	8d 8d 6c ff ff
	ff		 lea	 ecx, DWORD PTR _manager$10[ebp]
  00239	e8 00 00 00 00	 call	 ??1CProperties_Manager@@UAE@XZ ; CProperties_Manager::~CProperties_Manager
  0023e	8d 8d 64 ff ff
	ff		 lea	 ecx, DWORD PTR _strFormatX$8[ebp]
  00244	ff 15 00 00 00
	00		 call	 DWORD PTR __imp_??1?$CStringT@DV?$StrTraitMFC_DLL@DV?$ChTraitsCRT@D@ATL@@@@@ATL@@QAE@XZ
; File D:\git\src\IBK\IBK_DRFN\ProjSrc\SrcChartEx\ChartAddIn\ChartAnalysisToolAddIn\Include_AddIn_133101\I133101\_IString.h

; 45   : 		if( m_pIStrData)

  0024a	8b 95 5c ff ff
	ff		 mov	 edx, DWORD PTR _szHelpMsg$7[ebp+4]
  00250	c7 45 fc 06 00
	00 00		 mov	 DWORD PTR __$EHRec$[ebp+8], 6
  00257	85 d2		 test	 edx, edx
  00259	0f 84 3e fe ff
	ff		 je	 $LN18@OnRButtonM

; 46   : 		{
; 47   : 			m_pIStrData->Release();

  0025f	8b 0a		 mov	 ecx, DWORD PTR [edx]
  00261	52		 push	 edx
  00262	ff 51 08	 call	 DWORD PTR [ecx+8]
; File D:\git\src\IBK\IBK_DRFN\ProjSrc\SrcChartEx\ChartAddIn\ChartAnalysisToolAddIn\Symbol\MainSymbolImplementation.cpp

; 522  : 		return false;

  00265	8a c3		 mov	 al, bl
  00267	eb 02		 jmp	 SHORT $LN1@OnRButtonM
$LN6@OnRButtonM:

; 523  : 	}
; 524  : 	return false;
; 525  : }

  00269	32 c0		 xor	 al, al
$LN1@OnRButtonM:
  0026b	8b 4d f4	 mov	 ecx, DWORD PTR __$EHRec$[ebp]
  0026e	64 89 0d 00 00
	00 00		 mov	 DWORD PTR fs:0, ecx
  00275	59		 pop	 ecx
  00276	5f		 pop	 edi
  00277	5e		 pop	 esi
  00278	5b		 pop	 ebx
  00279	8b 4d f0	 mov	 ecx, DWORD PTR __$ArrayPad$[ebp]
  0027c	33 cd		 xor	 ecx, ebp
  0027e	e8 00 00 00 00	 call	 @__security_check_cookie@4
  00283	8b e5		 mov	 esp, ebp
  00285	5d		 pop	 ebp
  00286	c2 08 00	 ret	 8
_TEXT	ENDS
;	COMDAT text$x
text$x	SEGMENT
__unwindfunclet$?OnRButtonMenu@CMainSymbolImplementation@@QAE_NW4ELEMENTMENU@CMenuType@@I@Z$0:
  00000	8d 8d 58 ff ff
	ff		 lea	 ecx, DWORD PTR _szHelpMsg$7[ebp]
  00006	e9 00 00 00 00	 jmp	 ??1ILPCSTR133101@@QAE@XZ ; ILPCSTR133101::~ILPCSTR133101
__unwindfunclet$?OnRButtonMenu@CMainSymbolImplementation@@QAE_NW4ELEMENTMENU@CMenuType@@I@Z$1:
  0000b	8d 8d 64 ff ff
	ff		 lea	 ecx, DWORD PTR _strFormatX$8[ebp]
  00011	ff 25 00 00 00
	00		 jmp	 DWORD PTR __imp_??1?$CStringT@DV?$StrTraitMFC_DLL@DV?$ChTraitsCRT@D@ATL@@@@@ATL@@QAE@XZ
__unwindfunclet$?OnRButtonMenu@CMainSymbolImplementation@@QAE_NW4ELEMENTMENU@CMenuType@@I@Z$2:
  00017	8d 8d 48 ff ff
	ff		 lea	 ecx, DWORD PTR $T3[ebp]
  0001d	ff 25 00 00 00
	00		 jmp	 DWORD PTR __imp_??1?$CStringT@DV?$StrTraitMFC_DLL@DV?$ChTraitsCRT@D@ATL@@@@@ATL@@QAE@XZ
__unwindfunclet$?OnRButtonMenu@CMainSymbolImplementation@@QAE_NW4ELEMENTMENU@CMenuType@@I@Z$3:
  00023	8d 8d 6c ff ff
	ff		 lea	 ecx, DWORD PTR _manager$10[ebp]
  00029	e9 00 00 00 00	 jmp	 ??1CProperties_Manager@@UAE@XZ ; CProperties_Manager::~CProperties_Manager
  0002e	cc		 int	 3
  0002f	cc		 int	 3
  00030	cc		 int	 3
  00031	cc		 int	 3
  00032	cc		 int	 3
__ehhandler$?OnRButtonMenu@CMainSymbolImplementation@@QAE_NW4ELEMENTMENU@CMenuType@@I@Z:
  00033	90		 npad	 1
  00034	90		 npad	 1
  00035	8b 54 24 08	 mov	 edx, DWORD PTR [esp+8]
  00039	8d 42 0c	 lea	 eax, DWORD PTR [edx+12]
  0003c	8b 8a 3c ff ff
	ff		 mov	 ecx, DWORD PTR [edx-196]
  00042	33 c8		 xor	 ecx, eax
  00044	e8 00 00 00 00	 call	 @__security_check_cookie@4
  00049	8b 4a fc	 mov	 ecx, DWORD PTR [edx-4]
  0004c	33 c8		 xor	 ecx, eax
  0004e	e8 00 00 00 00	 call	 @__security_check_cookie@4
  00053	b8 00 00 00 00	 mov	 eax, OFFSET __ehfuncinfo$?OnRButtonMenu@CMainSymbolImplementation@@QAE_NW4ELEMENTMENU@CMenuType@@I@Z
  00058	e9 00 00 00 00	 jmp	 ___CxxFrameHandler3
text$x	ENDS
?OnRButtonMenu@CMainSymbolImplementation@@QAE_NW4ELEMENTMENU@CMenuType@@I@Z ENDP ; CMainSymbolImplementation::OnRButtonMenu
; Function compile flags: /Ogtp
; File D:\git\src\IBK\IBK_DRFN\ProjSrc\SrcChartEx\ChartAddIn\ChartAnalysisToolAddIn\Symbol\MainSymbolImplementation.cpp
;	COMDAT ?OnRButtonUp@CMainSymbolImplementation@@QAE_NABVCPoint@@@Z
_TEXT	SEGMENT
_point$ = 8						; size = 4
?OnRButtonUp@CMainSymbolImplementation@@QAE_NABVCPoint@@@Z PROC ; CMainSymbolImplementation::OnRButtonUp, COMDAT
; _this$ = ecx

; 356  : {

  00000	56		 push	 esi
  00001	8b f1		 mov	 esi, ecx

; 357  : 	IChartManager *pIChartManager = m_symboldata.GetMainBlock();

  00003	8d 4e 28	 lea	 ecx, DWORD PTR [esi+40]
  00006	e8 00 00 00 00	 call	 ?GetMainBlock@CSymbolData@@QBEPAUIChartManager133101@@XZ ; CSymbolData::GetMainBlock

; 358  : 	if( pIChartManager)

  0000b	85 c0		 test	 eax, eax
  0000d	74 18		 je	 SHORT $LN2@OnRButtonU

; 359  : 	{
; 360  : 		pIChartManager->Release();

  0000f	8b 10		 mov	 edx, DWORD PTR [eax]
  00011	50		 push	 eax
  00012	ff 52 08	 call	 DWORD PTR [edx+8]

; 361  : 		//sy 2005.04.06 ->        .
; 362  : 		return (m_pSymbolTool != NULL && m_pDrawingSymbol != NULL);

  00015	83 7e 24 00	 cmp	 DWORD PTR [esi+36], 0
  00019	74 0c		 je	 SHORT $LN2@OnRButtonU
  0001b	83 7e 20 00	 cmp	 DWORD PTR [esi+32], 0
  0001f	74 06		 je	 SHORT $LN2@OnRButtonU
  00021	b0 01		 mov	 al, 1
  00023	5e		 pop	 esi

; 363  : 		/*if(m_symboldata.FindSymbol(point) != NULL)
; 364  : 			return true;
; 365  : 		return false;*/
; 366  : 	}
; 367  : 	return false;
; 368  : }

  00024	c2 04 00	 ret	 4
$LN2@OnRButtonU:
  00027	32 c0		 xor	 al, al
  00029	5e		 pop	 esi
  0002a	c2 04 00	 ret	 4
?OnRButtonUp@CMainSymbolImplementation@@QAE_NABVCPoint@@@Z ENDP ; CMainSymbolImplementation::OnRButtonUp
_TEXT	ENDS
; Function compile flags: /Ogtp
; File D:\git\src\IBK\IBK_DRFN\ProjSrc\SrcChartEx\ChartAddIn\ChartAnalysisToolAddIn\Symbol\MainSymbolImplementation.cpp
;	COMDAT ?OnMouseMove@CMainSymbolImplementation@@QAE_NPAVCDC@@ABIABVCPoint@@@Z
_TEXT	SEGMENT
_pDC$ = 8						; size = 4
_nFlags$ = 12						; size = 4
_point$ = 16						; size = 4
?OnMouseMove@CMainSymbolImplementation@@QAE_NPAVCDC@@ABIABVCPoint@@@Z PROC ; CMainSymbolImplementation::OnMouseMove, COMDAT
; _this$ = ecx

; 200  : {

  00000	55		 push	 ebp
  00001	8b ec		 mov	 ebp, esp
  00003	56		 push	 esi

; 201  : 	m_ptOldMouse = point;

  00004	8b 75 10	 mov	 esi, DWORD PTR _point$[ebp]
  00007	8b 06		 mov	 eax, DWORD PTR [esi]
  00009	8b 56 04	 mov	 edx, DWORD PTR [esi+4]
  0000c	89 41 0c	 mov	 DWORD PTR [ecx+12], eax
  0000f	89 51 10	 mov	 DWORD PTR [ecx+16], edx

; 202  : 	if(m_pSymbolTool != NULL) 

  00012	8b 49 24	 mov	 ecx, DWORD PTR [ecx+36]
  00015	85 c9		 test	 ecx, ecx
  00017	74 13		 je	 SHORT $LN2@OnMouseMov

; 203  : 		return m_pSymbolTool->OnMouseMove(pDC,nFlags, point);

  00019	8b 01		 mov	 eax, DWORD PTR [ecx]
  0001b	56		 push	 esi
  0001c	ff 75 0c	 push	 DWORD PTR _nFlags$[ebp]
  0001f	ff 75 08	 push	 DWORD PTR _pDC$[ebp]
  00022	8b 40 0c	 mov	 eax, DWORD PTR [eax+12]
  00025	ff d0		 call	 eax
  00027	5e		 pop	 esi

; 206  : }

  00028	5d		 pop	 ebp
  00029	c2 0c 00	 ret	 12			; 0000000cH
$LN2@OnMouseMov:

; 204  : 
; 205  : 	return false;

  0002c	32 c0		 xor	 al, al
  0002e	5e		 pop	 esi

; 206  : }

  0002f	5d		 pop	 ebp
  00030	c2 0c 00	 ret	 12			; 0000000cH
?OnMouseMove@CMainSymbolImplementation@@QAE_NPAVCDC@@ABIABVCPoint@@@Z ENDP ; CMainSymbolImplementation::OnMouseMove
_TEXT	ENDS
; Function compile flags: /Ogtp
; File D:\git\src\IBK\IBK_DRFN\ProjSrc\SrcChartEx\ChartAddIn\ChartAnalysisToolAddIn\Symbol\MainSymbolImplementation.cpp
;	COMDAT ?OnLButtonUp@CMainSymbolImplementation@@QAE_NPAVCDC@@ABVCPoint@@@Z
_TEXT	SEGMENT
tv202 = -120						; size = 8
tv195 = -120						; size = 8
_calData$ = -112					; size = 96
__$ArrayPad$ = -16					; size = 4
__$EHRec$ = -12						; size = 12
_pDC$ = 8						; size = 4
_point$ = 12						; size = 4
?OnLButtonUp@CMainSymbolImplementation@@QAE_NPAVCDC@@ABVCPoint@@@Z PROC ; CMainSymbolImplementation::OnLButtonUp, COMDAT
; _this$ = ecx

; 181  : {

  00000	55		 push	 ebp
  00001	8b ec		 mov	 ebp, esp
  00003	6a ff		 push	 -1
  00005	68 00 00 00 00	 push	 __ehhandler$?OnLButtonUp@CMainSymbolImplementation@@QAE_NPAVCDC@@ABVCPoint@@@Z
  0000a	64 a1 00 00 00
	00		 mov	 eax, DWORD PTR fs:0
  00010	50		 push	 eax
  00011	83 ec 6c	 sub	 esp, 108		; 0000006cH
  00014	a1 00 00 00 00	 mov	 eax, DWORD PTR ___security_cookie
  00019	33 c5		 xor	 eax, ebp
  0001b	89 45 f0	 mov	 DWORD PTR __$ArrayPad$[ebp], eax
  0001e	53		 push	 ebx
  0001f	56		 push	 esi
  00020	57		 push	 edi
  00021	50		 push	 eax
  00022	8d 45 f4	 lea	 eax, DWORD PTR __$EHRec$[ebp]
  00025	64 a3 00 00 00
	00		 mov	 DWORD PTR fs:0, eax
  0002b	8b f1		 mov	 esi, ecx

; 182  : 	if(m_pSymbolTool == NULL)

  0002d	8b 4e 24	 mov	 ecx, DWORD PTR [esi+36]
  00030	8b 5d 08	 mov	 ebx, DWORD PTR _pDC$[ebp]
  00033	8b 7d 0c	 mov	 edi, DWORD PTR _point$[ebp]
  00036	85 c9		 test	 ecx, ecx
  00038	75 07		 jne	 SHORT $LN2@OnLButtonU

; 183  : 		return false;

  0003a	32 c0		 xor	 al, al
  0003c	e9 88 00 00 00	 jmp	 $LN1@OnLButtonU
$LN2@OnLButtonU:

; 184  : 
; 185  : 	// (2007/5/10 - Seung-Won, Bae) Check No Y Scale Min/Max.
; 186  : 	CCoordinateCalculatorData calData = m_pSymbolTool->GetCoordinateCalculatorData( point);

  00041	57		 push	 edi
  00042	8d 45 90	 lea	 eax, DWORD PTR _calData$[ebp]
  00045	50		 push	 eax
  00046	e8 00 00 00 00	 call	 ?GetCoordinateCalculatorData@CSymbolTool@@QBE?AVCCoordinateCalculatorData@@ABVCPoint@@@Z ; CSymbolTool::GetCoordinateCalculatorData

; 187  : 	if( -HUGE_VAL == calData.GetDisplayDataMax_ScaleType() || -HUGE_VAL == calData.GetDisplayDataMin_ScaleType()) return false;

  0004b	8d 4d 90	 lea	 ecx, DWORD PTR _calData$[ebp]
  0004e	c7 45 fc 00 00
	00 00		 mov	 DWORD PTR __$EHRec$[ebp+8], 0
  00055	e8 00 00 00 00	 call	 ?GetDisplayDataMax_ScaleType@CCoordinateCalculatorData@@QBENXZ ; CCoordinateCalculatorData::GetDisplayDataMax_ScaleType
  0005a	f2 0f 10 05 00
	00 00 00	 movsd	 xmm0, QWORD PTR __real@fff0000000000000
  00062	dd 5d 88	 fstp	 QWORD PTR tv202[ebp]
  00065	66 0f 2e 45 88	 ucomisd xmm0, QWORD PTR tv202[ebp]
  0006a	9f		 lahf
  0006b	f6 c4 44	 test	 ah, 68			; 00000044H
  0006e	7b 4d		 jnp	 SHORT $LN4@OnLButtonU
  00070	8d 4d 90	 lea	 ecx, DWORD PTR _calData$[ebp]
  00073	e8 00 00 00 00	 call	 ?GetDisplayDataMin_ScaleType@CCoordinateCalculatorData@@QBENXZ ; CCoordinateCalculatorData::GetDisplayDataMin_ScaleType
  00078	f2 0f 10 05 00
	00 00 00	 movsd	 xmm0, QWORD PTR __real@fff0000000000000
  00080	dd 5d 88	 fstp	 QWORD PTR tv195[ebp]
  00083	66 0f 2e 45 88	 ucomisd xmm0, QWORD PTR tv195[ebp]
  00088	9f		 lahf
  00089	f6 c4 44	 test	 ah, 68			; 00000044H
  0008c	7b 2f		 jnp	 SHORT $LN4@OnLButtonU

; 188  : 
; 189  : 	// 2011.02.08 by SYS >>  YYYY()  : / 14Byte  (YYYYMMDDhhmmss)
; 190  : 	m_ptOldLBtnUp = point;

  0008e	8b 07		 mov	 eax, DWORD PTR [edi]
  00090	8b 4f 04	 mov	 ecx, DWORD PTR [edi+4]
  00093	89 4e 18	 mov	 DWORD PTR [esi+24], ecx

; 191  : 	// 2011.02.08 by SYS <<
; 192  : 	
; 193  : 	m_pSymbolTool->OnLButtonUp(pDC, point);

  00096	8b 4e 24	 mov	 ecx, DWORD PTR [esi+36]
  00099	89 46 14	 mov	 DWORD PTR [esi+20], eax
  0009c	57		 push	 edi
  0009d	53		 push	 ebx
  0009e	8b 01		 mov	 eax, DWORD PTR [ecx]
  000a0	ff 50 08	 call	 DWORD PTR [eax+8]

; 194  : 	m_pSymbolTool->Initial();

  000a3	8b 4e 24	 mov	 ecx, DWORD PTR [esi+36]
  000a6	8b 01		 mov	 eax, DWORD PTR [ecx]
  000a8	ff 10		 call	 DWORD PTR [eax]

; 195  : 	m_symboldata.Invalidate();

  000aa	8d 4e 28	 lea	 ecx, DWORD PTR [esi+40]
  000ad	e8 00 00 00 00	 call	 ?Invalidate@CSymbolData@@QAEXXZ ; CSymbolData::Invalidate

; 196  : 	return IsMyMouse();

  000b2	8b ce		 mov	 ecx, esi
  000b4	e8 00 00 00 00	 call	 ?IsMyMouse@CMainSymbolImplementation@@AAE_NXZ ; CMainSymbolImplementation::IsMyMouse
  000b9	8a d8		 mov	 bl, al
  000bb	eb 02		 jmp	 SHORT $LN7@OnLButtonU
$LN4@OnLButtonU:
  000bd	32 db		 xor	 bl, bl
$LN7@OnLButtonU:
  000bf	8d 4d 90	 lea	 ecx, DWORD PTR _calData$[ebp]
  000c2	e8 00 00 00 00	 call	 ??1CCoordinateCalculatorData@@QAE@XZ ; CCoordinateCalculatorData::~CCoordinateCalculatorData
  000c7	8a c3		 mov	 al, bl
$LN1@OnLButtonU:

; 197  : }

  000c9	8b 4d f4	 mov	 ecx, DWORD PTR __$EHRec$[ebp]
  000cc	64 89 0d 00 00
	00 00		 mov	 DWORD PTR fs:0, ecx
  000d3	59		 pop	 ecx
  000d4	5f		 pop	 edi
  000d5	5e		 pop	 esi
  000d6	5b		 pop	 ebx
  000d7	8b 4d f0	 mov	 ecx, DWORD PTR __$ArrayPad$[ebp]
  000da	33 cd		 xor	 ecx, ebp
  000dc	e8 00 00 00 00	 call	 @__security_check_cookie@4
  000e1	8b e5		 mov	 esp, ebp
  000e3	5d		 pop	 ebp
  000e4	c2 08 00	 ret	 8
_TEXT	ENDS
;	COMDAT text$x
text$x	SEGMENT
__unwindfunclet$?OnLButtonUp@CMainSymbolImplementation@@QAE_NPAVCDC@@ABVCPoint@@@Z$0:
  00000	8d 4d 90	 lea	 ecx, DWORD PTR _calData$[ebp]
  00003	e9 00 00 00 00	 jmp	 ??1CCoordinateCalculatorData@@QAE@XZ ; CCoordinateCalculatorData::~CCoordinateCalculatorData
  00008	cc		 int	 3
  00009	cc		 int	 3
  0000a	cc		 int	 3
  0000b	cc		 int	 3
  0000c	cc		 int	 3
__ehhandler$?OnLButtonUp@CMainSymbolImplementation@@QAE_NPAVCDC@@ABVCPoint@@@Z:
  0000d	90		 npad	 1
  0000e	90		 npad	 1
  0000f	8b 54 24 08	 mov	 edx, DWORD PTR [esp+8]
  00013	8d 42 0c	 lea	 eax, DWORD PTR [edx+12]
  00016	8b 4a 84	 mov	 ecx, DWORD PTR [edx-124]
  00019	33 c8		 xor	 ecx, eax
  0001b	e8 00 00 00 00	 call	 @__security_check_cookie@4
  00020	8b 4a fc	 mov	 ecx, DWORD PTR [edx-4]
  00023	33 c8		 xor	 ecx, eax
  00025	e8 00 00 00 00	 call	 @__security_check_cookie@4
  0002a	b8 00 00 00 00	 mov	 eax, OFFSET __ehfuncinfo$?OnLButtonUp@CMainSymbolImplementation@@QAE_NPAVCDC@@ABVCPoint@@@Z
  0002f	e9 00 00 00 00	 jmp	 ___CxxFrameHandler3
text$x	ENDS
?OnLButtonUp@CMainSymbolImplementation@@QAE_NPAVCDC@@ABVCPoint@@@Z ENDP ; CMainSymbolImplementation::OnLButtonUp
; Function compile flags: /Ogtp
; File D:\git\src\IBK\IBK_DRFN\ProjSrc\SrcChartEx\ChartAddIn\ChartAnalysisToolAddIn\Symbol\MainSymbolImplementation.cpp
; File D:\git\src\IBK\IBK_DRFN\ProjSrc\SrcChartEx\ChartAddIn\ChartAnalysisToolAddIn\Include_Chart\BlockBaseData.h
; File D:\git\src\IBK\IBK_DRFN\ProjSrc\SrcChartEx\ChartAddIn\ChartAnalysisToolAddIn\Include_AddIn_133101\I133101\_IString.h
; File D:\git\src\IBK\IBK_DRFN\ProjSrc\SrcChartEx\ChartAddIn\ChartAnalysisToolAddIn\Symbol\MainSymbolImplementation.cpp
; File D:\git\src\IBK\IBK_DRFN\ProjSrc\SrcChartEx\ChartAddIn\ChartAnalysisToolAddIn\Include_AddIn_133101\I133101\_IString.h
; File D:\git\src\IBK\IBK_DRFN\ProjSrc\SrcChartEx\ChartAddIn\ChartAnalysisToolAddIn\Symbol\MainSymbolImplementation.cpp
;	COMDAT ?OnLButtonDbClk@CMainSymbolImplementation@@QAE_NPAVCDC@@ABVCPoint@@@Z
_TEXT	SEGMENT
_blockIndex$ = -200					; size = 8
$T2 = -192						; size = 4
_nCol$ = -188						; size = 4
_nRow$ = -184						; size = 4
_szHelpMsg$ = -180					; size = 8
_pIChartManager$1$ = -172				; size = 4
_strFormatX$ = -168					; size = 4
_strSymbolData_Prev$ = -164				; size = 4
_pPackManager$1$ = -160					; size = 4
_strSymbolData_After$3 = -156				; size = 4
$T4 = -156						; size = 4
_builder$ = -149					; size = 1
_manager$ = -148					; size = 132
__$ArrayPad$ = -16					; size = 4
__$EHRec$ = -12						; size = 12
_pDC$ = 8						; size = 4
_point$ = 12						; size = 4
?OnLButtonDbClk@CMainSymbolImplementation@@QAE_NPAVCDC@@ABVCPoint@@@Z PROC ; CMainSymbolImplementation::OnLButtonDbClk, COMDAT
; _this$ = ecx

; 209  : {

  00000	55		 push	 ebp
  00001	8b ec		 mov	 ebp, esp
  00003	6a ff		 push	 -1
  00005	68 00 00 00 00	 push	 __ehhandler$?OnLButtonDbClk@CMainSymbolImplementation@@QAE_NPAVCDC@@ABVCPoint@@@Z
  0000a	64 a1 00 00 00
	00		 mov	 eax, DWORD PTR fs:0
  00010	50		 push	 eax
  00011	81 ec bc 00 00
	00		 sub	 esp, 188		; 000000bcH
  00017	a1 00 00 00 00	 mov	 eax, DWORD PTR ___security_cookie
  0001c	33 c5		 xor	 eax, ebp
  0001e	89 45 f0	 mov	 DWORD PTR __$ArrayPad$[ebp], eax
  00021	53		 push	 ebx
  00022	56		 push	 esi
  00023	57		 push	 edi
  00024	50		 push	 eax
  00025	8d 45 f4	 lea	 eax, DWORD PTR __$EHRec$[ebp]
  00028	64 a3 00 00 00
	00		 mov	 DWORD PTR fs:0, eax
  0002e	8b f1		 mov	 esi, ecx

; 210  : 	if(m_pDrawingSymbol == NULL)

  00030	83 7e 20 00	 cmp	 DWORD PTR [esi+32], 0
  00034	8b 5d 0c	 mov	 ebx, DWORD PTR _point$[ebp]
  00037	75 07		 jne	 SHORT $LN2@OnLButtonD

; 211  : 		return false;

  00039	32 c0		 xor	 al, al
  0003b	e9 25 02 00 00	 jmp	 $LN1@OnLButtonD
$LN2@OnLButtonD:

; 212  : 	
; 213  : 	IChartManager *pIChartManager = m_symboldata.GetMainBlock();

  00040	8d 4e 28	 lea	 ecx, DWORD PTR [esi+40]
  00043	e8 00 00 00 00	 call	 ?GetMainBlock@CSymbolData@@QBEPAUIChartManager133101@@XZ ; CSymbolData::GetMainBlock

; 214  : 	IPacketManager* pPackManager = m_symboldata.GetPacketManager();

  00048	8d 4e 28	 lea	 ecx, DWORD PTR [esi+40]
  0004b	89 85 54 ff ff
	ff		 mov	 DWORD PTR _pIChartManager$1$[ebp], eax
  00051	e8 00 00 00 00	 call	 ?GetPacketManager@CSymbolData@@QBEPAUIPacketManager133101@@XZ ; CSymbolData::GetPacketManager

; 215  : 	
; 216  : 	// 2011.02.08 by SYS >>  YYYY()  : / 14Byte  (YYYYMMDDhhmmss)
; 217  : // 	CProperties_Manager manager(m_pDrawingSymbol, m_symboldata.GetPropertiesData(), pIChartManager,
; 218  : // 								m_symboldata.GetUserFilePath(),
; 219  : // 								pPackManager->GetBaseTimeDataType(),
; 220  : // 								( m_pIChartOCX ? m_pIChartOCX->GetOcxHwnd() : NULL));
; 221  : 
; 222  : 	int nRow, nCol;
; 223  : 	pIChartManager->GetBlockIndex(point, nRow, nCol);

  00056	8d 8d 44 ff ff
	ff		 lea	 ecx, DWORD PTR _nCol$[ebp]
  0005c	89 85 60 ff ff
	ff		 mov	 DWORD PTR _pPackManager$1$[ebp], eax
  00062	8b 85 54 ff ff
	ff		 mov	 eax, DWORD PTR _pIChartManager$1$[ebp]
  00068	51		 push	 ecx
  00069	8d 8d 48 ff ff
	ff		 lea	 ecx, DWORD PTR _nRow$[ebp]
  0006f	51		 push	 ecx
  00070	ff 73 04	 push	 DWORD PTR [ebx+4]
  00073	8b 10		 mov	 edx, DWORD PTR [eax]
  00075	8b c8		 mov	 ecx, eax
  00077	ff 33		 push	 DWORD PTR [ebx]
  00079	ff 92 8c 00 00
	00		 call	 DWORD PTR [edx+140]
; File D:\git\src\IBK\IBK_DRFN\ProjSrc\SrcChartEx\ChartAddIn\ChartAnalysisToolAddIn\Include_Chart\BlockBaseData.h

; 20   : 	CBlockIndex(const int row, const int column) { m_nRow = row; m_nColumn = column; };

  0007f	8b 85 48 ff ff
	ff		 mov	 eax, DWORD PTR _nRow$[ebp]
  00085	89 85 38 ff ff
	ff		 mov	 DWORD PTR _blockIndex$[ebp], eax
  0008b	8b 85 44 ff ff
	ff		 mov	 eax, DWORD PTR _nCol$[ebp]
  00091	89 85 3c ff ff
	ff		 mov	 DWORD PTR _blockIndex$[ebp+4], eax
; File D:\git\src\IBK\IBK_DRFN\ProjSrc\SrcChartEx\ChartAddIn\ChartAnalysisToolAddIn\Include_AddIn_133101\I133101\_IString.h

; 39   : 		m_pIStrData = p_pIString;	// Do not AddRef(). Because It must be Return Value.

  00097	c7 85 50 ff ff
	ff 00 00 00 00	 mov	 DWORD PTR _szHelpMsg$[ebp+4], 0

; 40   : 		if( m_pIStrData) m_szData = m_pIStrData->GetData();
; 41   : 		else m_szData = NULL;

  000a1	c7 85 4c ff ff
	ff 00 00 00 00	 mov	 DWORD PTR _szHelpMsg$[ebp], 0
; File D:\git\src\IBK\IBK_DRFN\ProjSrc\SrcChartEx\ChartAddIn\ChartAnalysisToolAddIn\Symbol\MainSymbolImplementation.cpp

; 228  : 	CString strFormatX;	

  000ab	8d 8d 58 ff ff
	ff		 lea	 ecx, DWORD PTR _strFormatX$[ebp]
  000b1	c7 45 fc 00 00
	00 00		 mov	 DWORD PTR __$EHRec$[ebp+8], 0
  000b8	ff 15 00 00 00
	00		 call	 DWORD PTR __imp_??0?$CStringT@DV?$StrTraitMFC_DLL@DV?$ChTraitsCRT@D@ATL@@@@@ATL@@QAE@XZ

; 229  : 	pPackManager->GetHelpMessageItem("RDATET", szHelpMsg);	//  UD  .	

  000be	8b 8d 60 ff ff
	ff		 mov	 ecx, DWORD PTR _pPackManager$1$[ebp]
  000c4	8d 95 4c ff ff
	ff		 lea	 edx, DWORD PTR _szHelpMsg$[ebp]
  000ca	52		 push	 edx
  000cb	68 00 00 00 00	 push	 OFFSET ??_C@_06MLGKKOBC@RDATET@
  000d0	c6 45 fc 01	 mov	 BYTE PTR __$EHRec$[ebp+8], 1
  000d4	8b 01		 mov	 eax, DWORD PTR [ecx]
  000d6	ff 50 18	 call	 DWORD PTR [eax+24]

; 230  : 	strFormatX = szHelpMsg;

  000d9	ff b5 4c ff ff
	ff		 push	 DWORD PTR _szHelpMsg$[ebp]
  000df	8d 8d 58 ff ff
	ff		 lea	 ecx, DWORD PTR _strFormatX$[ebp]
  000e5	ff 15 00 00 00
	00		 call	 DWORD PTR __imp_??4?$CStringT@DV?$StrTraitMFC_DLL@DV?$ChTraitsCRT@D@ATL@@@@@ATL@@QAEAAV01@PBD@Z

; 231  : 	
; 232  : 	CProperties_Manager manager(m_pDrawingSymbol, m_symboldata.GetPropertiesData(), pIChartManager,

  000eb	8b 4e 08	 mov	 ecx, DWORD PTR [esi+8]
  000ee	85 c9		 test	 ecx, ecx
  000f0	74 09		 je	 SHORT $LN8@OnLButtonD
  000f2	8b 01		 mov	 eax, DWORD PTR [ecx]
  000f4	ff 50 40	 call	 DWORD PTR [eax+64]
  000f7	8b d8		 mov	 ebx, eax
  000f9	eb 02		 jmp	 SHORT $LN9@OnLButtonD
$LN8@OnLButtonD:
  000fb	33 db		 xor	 ebx, ebx
$LN9@OnLButtonD:
  000fd	8b 8d 60 ff ff
	ff		 mov	 ecx, DWORD PTR _pPackManager$1$[ebp]
  00103	8b 01		 mov	 eax, DWORD PTR [ecx]
  00105	ff 50 2c	 call	 DWORD PTR [eax+44]
  00108	89 85 64 ff ff
	ff		 mov	 DWORD PTR $T4[ebp], eax
  0010e	8d 4e 28	 lea	 ecx, DWORD PTR [esi+40]
  00111	8d 85 40 ff ff
	ff		 lea	 eax, DWORD PTR $T2[ebp]
  00117	50		 push	 eax
  00118	e8 00 00 00 00	 call	 ?GetUserFilePath@CSymbolData@@QBE?AV?$CStringT@DV?$StrTraitMFC_DLL@DV?$ChTraitsCRT@D@ATL@@@@@ATL@@XZ ; CSymbolData::GetUserFilePath
  0011d	8d 8d 58 ff ff
	ff		 lea	 ecx, DWORD PTR _strFormatX$[ebp]
  00123	c6 45 fc 02	 mov	 BYTE PTR __$EHRec$[ebp+8], 2
  00127	51		 push	 ecx
  00128	8d 8d 38 ff ff
	ff		 lea	 ecx, DWORD PTR _blockIndex$[ebp]
  0012e	51		 push	 ecx
  0012f	53		 push	 ebx
  00130	8b 9d 54 ff ff
	ff		 mov	 ebx, DWORD PTR _pIChartManager$1$[ebp]
  00136	8d 8d 64 ff ff
	ff		 lea	 ecx, DWORD PTR $T4[ebp]
  0013c	51		 push	 ecx
  0013d	50		 push	 eax
  0013e	53		 push	 ebx
  0013f	8d 4e 28	 lea	 ecx, DWORD PTR [esi+40]
  00142	e8 00 00 00 00	 call	 ?GetPropertiesData@CSymbolData@@QAEPAVCPropertiesData_text@@XZ ; CSymbolData::GetPropertiesData
  00147	50		 push	 eax
  00148	ff 76 20	 push	 DWORD PTR [esi+32]
  0014b	8d 8d 6c ff ff
	ff		 lea	 ecx, DWORD PTR _manager$[ebp]
  00151	e8 00 00 00 00	 call	 ??0CProperties_Manager@@QAE@PAVCDrawingSymbol@@PAVCPropertiesData_text@@PAUIChartManager133101@@ABV?$CStringT@DV?$StrTraitMFC_DLL@DV?$ChTraitsCRT@D@ATL@@@@@ATL@@ABW4HORZSCALEDRAWERTYPE@CScaleBaseData@@PAUHWND__@@ABVCBlockIndex@@3@Z ; CProperties_Manager::CProperties_Manager
  00156	8d 8d 40 ff ff
	ff		 lea	 ecx, DWORD PTR $T2[ebp]
  0015c	c6 45 fc 04	 mov	 BYTE PTR __$EHRec$[ebp+8], 4
  00160	ff 15 00 00 00
	00		 call	 DWORD PTR __imp_??1?$CStringT@DV?$StrTraitMFC_DLL@DV?$ChTraitsCRT@D@ATL@@@@@ATL@@QAE@XZ

; 233  : 								m_symboldata.GetUserFilePath(),
; 234  : 								pPackManager->GetBaseTimeDataType(),
; 235  : 								( m_pIChartOCX ? m_pIChartOCX->GetOcxHwnd() : NULL),
; 236  : 								blockIndex, strFormatX);
; 237  : 	// 2011.02.08 by SYS <<
; 238  : 
; 239  : 	if( pIChartManager) pIChartManager->Release();

  00166	8b 03		 mov	 eax, DWORD PTR [ebx]
  00168	53		 push	 ebx
  00169	ff 50 08	 call	 DWORD PTR [eax+8]

; 240  : 	if( pPackManager) pPackManager->Release();

  0016c	8b 8d 60 ff ff
	ff		 mov	 ecx, DWORD PTR _pPackManager$1$[ebp]
  00172	51		 push	 ecx
  00173	8b 01		 mov	 eax, DWORD PTR [ecx]
  00175	ff 50 08	 call	 DWORD PTR [eax+8]

; 241  : 	
; 242  : 	// Undo / Redo
; 243  : 	CElementSaverBuilder builder;
; 244  : 	CString strSymbolData_Prev = builder.GetSavedSymbolData_ForUndoRedo(m_symboldata.GetElementTree()->GetOrder(), m_pDrawingSymbol);

  00178	ff 76 20	 push	 DWORD PTR [esi+32]
  0017b	8d 4e 28	 lea	 ecx, DWORD PTR [esi+40]
  0017e	e8 00 00 00 00	 call	 ?GetElementTree@CSymbolData@@QAEPAVCElementTree@@XZ ; CSymbolData::GetElementTree
  00183	8b c8		 mov	 ecx, eax
  00185	e8 00 00 00 00	 call	 ?GetOrder@CElementTree@@QAEAAVCOrder@@XZ ; CElementTree::GetOrder
  0018a	50		 push	 eax
  0018b	8d 85 5c ff ff
	ff		 lea	 eax, DWORD PTR _strSymbolData_Prev$[ebp]
  00191	50		 push	 eax
  00192	8d 8d 6b ff ff
	ff		 lea	 ecx, DWORD PTR _builder$[ebp]
  00198	e8 00 00 00 00	 call	 ?GetSavedSymbolData_ForUndoRedo@CElementSaverBuilder@@QAE?AV?$CStringT@DV?$StrTraitMFC_DLL@DV?$ChTraitsCRT@D@ATL@@@@@ATL@@ABVCOrder@@PAVCDrawingSymbol@@@Z ; CElementSaverBuilder::GetSavedSymbolData_ForUndoRedo

; 245  : 	if(manager.PopUpPropertiesBox())

  0019d	8d 8d 6c ff ff
	ff		 lea	 ecx, DWORD PTR _manager$[ebp]
  001a3	c6 45 fc 05	 mov	 BYTE PTR __$EHRec$[ebp+8], 5
  001a7	e8 00 00 00 00	 call	 ?PopUpPropertiesBox@CProperties_Manager@@QAE_NXZ ; CProperties_Manager::PopUpPropertiesBox
  001ac	84 c0		 test	 al, al
  001ae	74 77		 je	 SHORT $LN5@OnLButtonD

; 246  : 	{
; 247  : 		CString strSymbolData_After = builder.GetSavedSymbolData_ForUndoRedo(m_symboldata.GetElementTree()->GetOrder(), m_pDrawingSymbol);

  001b0	ff 76 20	 push	 DWORD PTR [esi+32]
  001b3	8d 4e 28	 lea	 ecx, DWORD PTR [esi+40]
  001b6	e8 00 00 00 00	 call	 ?GetElementTree@CSymbolData@@QAEPAVCElementTree@@XZ ; CSymbolData::GetElementTree
  001bb	8b c8		 mov	 ecx, eax
  001bd	e8 00 00 00 00	 call	 ?GetOrder@CElementTree@@QAEAAVCOrder@@XZ ; CElementTree::GetOrder
  001c2	50		 push	 eax
  001c3	8d 85 64 ff ff
	ff		 lea	 eax, DWORD PTR _strSymbolData_After$3[ebp]
  001c9	50		 push	 eax
  001ca	8d 8d 6b ff ff
	ff		 lea	 ecx, DWORD PTR _builder$[ebp]
  001d0	e8 00 00 00 00	 call	 ?GetSavedSymbolData_ForUndoRedo@CElementSaverBuilder@@QAE?AV?$CStringT@DV?$StrTraitMFC_DLL@DV?$ChTraitsCRT@D@ATL@@@@@ATL@@ABVCOrder@@PAVCDrawingSymbol@@@Z ; CElementSaverBuilder::GetSavedSymbolData_ForUndoRedo

; 248  : 		if(strSymbolData_Prev.Compare(strSymbolData_After))

  001d5	ff b5 64 ff ff
	ff		 push	 DWORD PTR _strSymbolData_After$3[ebp]
  001db	8d 8d 5c ff ff
	ff		 lea	 ecx, DWORD PTR _strSymbolData_Prev$[ebp]
  001e1	c6 45 fc 06	 mov	 BYTE PTR __$EHRec$[ebp+8], 6
  001e5	ff 15 00 00 00
	00		 call	 DWORD PTR __imp_?Compare@?$CStringT@DV?$StrTraitMFC_DLL@DV?$ChTraitsCRT@D@ATL@@@@@ATL@@QBEHPBD@Z
  001eb	85 c0		 test	 eax, eax
  001ed	74 20		 je	 SHORT $LN6@OnLButtonD

; 249  : 			m_symboldata.GetUndoRedoManager().RegisterElementToUnRedoManager(URT_MODIFY_ENV, (long)m_pDrawingSymbol, strSymbolData_Prev, strSymbolData_After);

  001ef	ff b5 64 ff ff
	ff		 push	 DWORD PTR _strSymbolData_After$3[ebp]
  001f5	8d 4e 28	 lea	 ecx, DWORD PTR [esi+40]
  001f8	ff b5 5c ff ff
	ff		 push	 DWORD PTR _strSymbolData_Prev$[ebp]
  001fe	ff 76 20	 push	 DWORD PTR [esi+32]
  00201	6a 03		 push	 3
  00203	e8 00 00 00 00	 call	 ?GetUndoRedoManager@CSymbolData@@QAEAAVCUndoRedoManager@@XZ ; CSymbolData::GetUndoRedoManager
  00208	8b c8		 mov	 ecx, eax
  0020a	e8 00 00 00 00	 call	 ?RegisterElementToUnRedoManager@CUndoRedoManager@@QAEXHJPBD0@Z ; CUndoRedoManager::RegisterElementToUnRedoManager
$LN6@OnLButtonD:

; 250  : 
; 251  : 		m_symboldata.Invalidate();

  0020f	8d 4e 28	 lea	 ecx, DWORD PTR [esi+40]
  00212	e8 00 00 00 00	 call	 ?Invalidate@CSymbolData@@QAEXXZ ; CSymbolData::Invalidate

; 252  : 		return true;

  00217	8d 8d 64 ff ff
	ff		 lea	 ecx, DWORD PTR _strSymbolData_After$3[ebp]
  0021d	ff 15 00 00 00
	00		 call	 DWORD PTR __imp_??1?$CStringT@DV?$StrTraitMFC_DLL@DV?$ChTraitsCRT@D@ATL@@@@@ATL@@QAE@XZ
  00223	b3 01		 mov	 bl, 1
  00225	eb 02		 jmp	 SHORT $LN16@OnLButtonD
$LN5@OnLButtonD:

; 255  : 	return false;

  00227	32 db		 xor	 bl, bl
$LN16@OnLButtonD:
  00229	8d 8d 5c ff ff
	ff		 lea	 ecx, DWORD PTR _strSymbolData_Prev$[ebp]
  0022f	ff 15 00 00 00
	00		 call	 DWORD PTR __imp_??1?$CStringT@DV?$StrTraitMFC_DLL@DV?$ChTraitsCRT@D@ATL@@@@@ATL@@QAE@XZ
  00235	8d 8d 6c ff ff
	ff		 lea	 ecx, DWORD PTR _manager$[ebp]
  0023b	e8 00 00 00 00	 call	 ??1CProperties_Manager@@UAE@XZ ; CProperties_Manager::~CProperties_Manager
  00240	8d 8d 58 ff ff
	ff		 lea	 ecx, DWORD PTR _strFormatX$[ebp]
  00246	ff 15 00 00 00
	00		 call	 DWORD PTR __imp_??1?$CStringT@DV?$StrTraitMFC_DLL@DV?$ChTraitsCRT@D@ATL@@@@@ATL@@QAE@XZ
; File D:\git\src\IBK\IBK_DRFN\ProjSrc\SrcChartEx\ChartAddIn\ChartAnalysisToolAddIn\Include_AddIn_133101\I133101\_IString.h

; 45   : 		if( m_pIStrData)

  0024c	8b 95 50 ff ff
	ff		 mov	 edx, DWORD PTR _szHelpMsg$[ebp+4]
  00252	c7 45 fc 08 00
	00 00		 mov	 DWORD PTR __$EHRec$[ebp+8], 8
  00259	85 d2		 test	 edx, edx
  0025b	74 06		 je	 SHORT $LN34@OnLButtonD

; 46   : 		{
; 47   : 			m_pIStrData->Release();

  0025d	8b 0a		 mov	 ecx, DWORD PTR [edx]
  0025f	52		 push	 edx
  00260	ff 51 08	 call	 DWORD PTR [ecx+8]
$LN34@OnLButtonD:
; File D:\git\src\IBK\IBK_DRFN\ProjSrc\SrcChartEx\ChartAddIn\ChartAnalysisToolAddIn\Symbol\MainSymbolImplementation.cpp

; 255  : 	return false;

  00263	8a c3		 mov	 al, bl
$LN1@OnLButtonD:

; 256  : }

  00265	8b 4d f4	 mov	 ecx, DWORD PTR __$EHRec$[ebp]
  00268	64 89 0d 00 00
	00 00		 mov	 DWORD PTR fs:0, ecx
  0026f	59		 pop	 ecx
  00270	5f		 pop	 edi
  00271	5e		 pop	 esi
  00272	5b		 pop	 ebx
  00273	8b 4d f0	 mov	 ecx, DWORD PTR __$ArrayPad$[ebp]
  00276	33 cd		 xor	 ecx, ebp
  00278	e8 00 00 00 00	 call	 @__security_check_cookie@4
  0027d	8b e5		 mov	 esp, ebp
  0027f	5d		 pop	 ebp
  00280	c2 08 00	 ret	 8
_TEXT	ENDS
;	COMDAT text$x
text$x	SEGMENT
__unwindfunclet$?OnLButtonDbClk@CMainSymbolImplementation@@QAE_NPAVCDC@@ABVCPoint@@@Z$0:
  00000	8d 8d 4c ff ff
	ff		 lea	 ecx, DWORD PTR _szHelpMsg$[ebp]
  00006	e9 00 00 00 00	 jmp	 ??1ILPCSTR133101@@QAE@XZ ; ILPCSTR133101::~ILPCSTR133101
__unwindfunclet$?OnLButtonDbClk@CMainSymbolImplementation@@QAE_NPAVCDC@@ABVCPoint@@@Z$1:
  0000b	8d 8d 58 ff ff
	ff		 lea	 ecx, DWORD PTR _strFormatX$[ebp]
  00011	ff 25 00 00 00
	00		 jmp	 DWORD PTR __imp_??1?$CStringT@DV?$StrTraitMFC_DLL@DV?$ChTraitsCRT@D@ATL@@@@@ATL@@QAE@XZ
__unwindfunclet$?OnLButtonDbClk@CMainSymbolImplementation@@QAE_NPAVCDC@@ABVCPoint@@@Z$2:
  00017	8d 8d 40 ff ff
	ff		 lea	 ecx, DWORD PTR $T2[ebp]
  0001d	ff 25 00 00 00
	00		 jmp	 DWORD PTR __imp_??1?$CStringT@DV?$StrTraitMFC_DLL@DV?$ChTraitsCRT@D@ATL@@@@@ATL@@QAE@XZ
__unwindfunclet$?OnLButtonDbClk@CMainSymbolImplementation@@QAE_NPAVCDC@@ABVCPoint@@@Z$3:
  00023	8d 8d 6c ff ff
	ff		 lea	 ecx, DWORD PTR _manager$[ebp]
  00029	e9 00 00 00 00	 jmp	 ??1CProperties_Manager@@UAE@XZ ; CProperties_Manager::~CProperties_Manager
__unwindfunclet$?OnLButtonDbClk@CMainSymbolImplementation@@QAE_NPAVCDC@@ABVCPoint@@@Z$4:
  0002e	8d 8d 5c ff ff
	ff		 lea	 ecx, DWORD PTR _strSymbolData_Prev$[ebp]
  00034	ff 25 00 00 00
	00		 jmp	 DWORD PTR __imp_??1?$CStringT@DV?$StrTraitMFC_DLL@DV?$ChTraitsCRT@D@ATL@@@@@ATL@@QAE@XZ
__unwindfunclet$?OnLButtonDbClk@CMainSymbolImplementation@@QAE_NPAVCDC@@ABVCPoint@@@Z$5:
  0003a	8d 8d 64 ff ff
	ff		 lea	 ecx, DWORD PTR _strSymbolData_After$3[ebp]
  00040	ff 25 00 00 00
	00		 jmp	 DWORD PTR __imp_??1?$CStringT@DV?$StrTraitMFC_DLL@DV?$ChTraitsCRT@D@ATL@@@@@ATL@@QAE@XZ
  00046	cc		 int	 3
  00047	cc		 int	 3
  00048	cc		 int	 3
  00049	cc		 int	 3
  0004a	cc		 int	 3
__ehhandler$?OnLButtonDbClk@CMainSymbolImplementation@@QAE_NPAVCDC@@ABVCPoint@@@Z:
  0004b	90		 npad	 1
  0004c	90		 npad	 1
  0004d	8b 54 24 08	 mov	 edx, DWORD PTR [esp+8]
  00051	8d 42 0c	 lea	 eax, DWORD PTR [edx+12]
  00054	8b 8a 34 ff ff
	ff		 mov	 ecx, DWORD PTR [edx-204]
  0005a	33 c8		 xor	 ecx, eax
  0005c	e8 00 00 00 00	 call	 @__security_check_cookie@4
  00061	8b 4a fc	 mov	 ecx, DWORD PTR [edx-4]
  00064	33 c8		 xor	 ecx, eax
  00066	e8 00 00 00 00	 call	 @__security_check_cookie@4
  0006b	b8 00 00 00 00	 mov	 eax, OFFSET __ehfuncinfo$?OnLButtonDbClk@CMainSymbolImplementation@@QAE_NPAVCDC@@ABVCPoint@@@Z
  00070	e9 00 00 00 00	 jmp	 ___CxxFrameHandler3
text$x	ENDS
?OnLButtonDbClk@CMainSymbolImplementation@@QAE_NPAVCDC@@ABVCPoint@@@Z ENDP ; CMainSymbolImplementation::OnLButtonDbClk
; Function compile flags: /Ogtp
; File D:\git\src\IBK\IBK_DRFN\ProjSrc\SrcChartEx\ChartAddIn\ChartAnalysisToolAddIn\Symbol\MainSymbolImplementation.cpp
;	COMDAT ?OnLButtonDown@CMainSymbolImplementation@@QAE_NPAVCDC@@ABVCPoint@@@Z
_TEXT	SEGMENT
tv221 = -124						; size = 8
tv214 = -124						; size = 8
_pDC$GSCopy$1$ = -116					; size = 4
_calData$2 = -112					; size = 96
__$ArrayPad$ = -16					; size = 4
__$EHRec$ = -12						; size = 12
_pDC$ = 8						; size = 4
_point$ = 12						; size = 4
?OnLButtonDown@CMainSymbolImplementation@@QAE_NPAVCDC@@ABVCPoint@@@Z PROC ; CMainSymbolImplementation::OnLButtonDown, COMDAT
; _this$ = ecx

; 148  : {

  00000	55		 push	 ebp
  00001	8b ec		 mov	 ebp, esp
  00003	6a ff		 push	 -1
  00005	68 00 00 00 00	 push	 __ehhandler$?OnLButtonDown@CMainSymbolImplementation@@QAE_NPAVCDC@@ABVCPoint@@@Z
  0000a	64 a1 00 00 00
	00		 mov	 eax, DWORD PTR fs:0
  00010	50		 push	 eax
  00011	83 ec 70	 sub	 esp, 112		; 00000070H
  00014	a1 00 00 00 00	 mov	 eax, DWORD PTR ___security_cookie
  00019	33 c5		 xor	 eax, ebp
  0001b	89 45 f0	 mov	 DWORD PTR __$ArrayPad$[ebp], eax
  0001e	53		 push	 ebx
  0001f	56		 push	 esi
  00020	57		 push	 edi
  00021	50		 push	 eax
  00022	8d 45 f4	 lea	 eax, DWORD PTR __$EHRec$[ebp]
  00025	64 a3 00 00 00
	00		 mov	 DWORD PTR fs:0, eax
  0002b	8b f1		 mov	 esi, ecx
  0002d	8b 45 08	 mov	 eax, DWORD PTR _pDC$[ebp]

; 149  : 	if(m_symboldata.GetSymbolType() == CSymbolBaseData::SYMBOL_BULET && IsExistBuletDlg() == FALSE)

  00030	8d 4e 28	 lea	 ecx, DWORD PTR [esi+40]
  00033	8b 5d 0c	 mov	 ebx, DWORD PTR _point$[ebp]
  00036	89 45 8c	 mov	 DWORD PTR _pDC$GSCopy$1$[ebp], eax
  00039	e8 00 00 00 00	 call	 ?GetSymbolType@CSymbolData@@QBE?AW4TOOLTYPE@CSymbolBaseData@@XZ ; CSymbolData::GetSymbolType
  0003e	83 f8 05	 cmp	 eax, 5
  00041	75 18		 jne	 SHORT $LN2@OnLButtonD
  00043	e8 00 00 00 00	 call	 ?IsExistBuletDlg@CMainSymbolImplementation@@SAHXZ ; CMainSymbolImplementation::IsExistBuletDlg
  00048	85 c0		 test	 eax, eax
  0004a	75 0f		 jne	 SHORT $LN2@OnLButtonD

; 150  : 	{
; 151  : 		DestSymbolDlg();

  0004c	e8 00 00 00 00	 call	 ?DestSymbolDlg@CMainSymbolImplementation@@SAXXZ ; CMainSymbolImplementation::DestSymbolDlg

; 152  : 		m_symboldata.SetSymbolType(CSymbolBaseData::SYMBOL_SELECTION);

  00051	6a 06		 push	 6
  00053	8d 4e 28	 lea	 ecx, DWORD PTR [esi+40]
  00056	e8 00 00 00 00	 call	 ?SetSymbolType@CSymbolData@@QAEXW4TOOLTYPE@CSymbolBaseData@@@Z ; CSymbolData::SetSymbolType
$LN2@OnLButtonD:

; 153  : 	}
; 154  : 
; 155  : 	GetSymbolTool();

  0005b	8b ce		 mov	 ecx, esi
  0005d	e8 00 00 00 00	 call	 ?GetSymbolTool@CMainSymbolImplementation@@AAEXXZ ; CMainSymbolImplementation::GetSymbolTool

; 156  : 	if(m_pSymbolTool != NULL) 

  00062	8b 4e 24	 mov	 ecx, DWORD PTR [esi+36]
  00065	85 c9		 test	 ecx, ecx
  00067	0f 84 9e 00 00
	00		 je	 $LN3@OnLButtonD

; 157  : 	{ //   Column, Row.
; 158  : 
; 159  : 		// (2007/5/10 - Seung-Won, Bae) Check No Y Scale Min/Max.
; 160  : 		CCoordinateCalculatorData calData = m_pSymbolTool->GetCoordinateCalculatorData( point);

  0006d	53		 push	 ebx
  0006e	8d 45 90	 lea	 eax, DWORD PTR _calData$2[ebp]
  00071	50		 push	 eax
  00072	e8 00 00 00 00	 call	 ?GetCoordinateCalculatorData@CSymbolTool@@QBE?AVCCoordinateCalculatorData@@ABVCPoint@@@Z ; CSymbolTool::GetCoordinateCalculatorData

; 161  : 		if( -HUGE_VAL == calData.GetDisplayDataMax_ScaleType() || -HUGE_VAL == calData.GetDisplayDataMin_ScaleType()) return false;

  00077	8d 4d 90	 lea	 ecx, DWORD PTR _calData$2[ebp]
  0007a	c7 45 fc 00 00
	00 00		 mov	 DWORD PTR __$EHRec$[ebp+8], 0
  00081	e8 00 00 00 00	 call	 ?GetDisplayDataMax_ScaleType@CCoordinateCalculatorData@@QBENXZ ; CCoordinateCalculatorData::GetDisplayDataMax_ScaleType
  00086	f2 0f 10 05 00
	00 00 00	 movsd	 xmm0, QWORD PTR __real@fff0000000000000
  0008e	dd 5d 84	 fstp	 QWORD PTR tv221[ebp]
  00091	66 0f 2e 45 84	 ucomisd xmm0, QWORD PTR tv221[ebp]
  00096	9f		 lahf
  00097	f6 c4 44	 test	 ah, 68			; 00000044H
  0009a	7b 61		 jnp	 SHORT $LN5@OnLButtonD
  0009c	8d 4d 90	 lea	 ecx, DWORD PTR _calData$2[ebp]
  0009f	e8 00 00 00 00	 call	 ?GetDisplayDataMin_ScaleType@CCoordinateCalculatorData@@QBENXZ ; CCoordinateCalculatorData::GetDisplayDataMin_ScaleType
  000a4	f2 0f 10 05 00
	00 00 00	 movsd	 xmm0, QWORD PTR __real@fff0000000000000
  000ac	dd 5d 84	 fstp	 QWORD PTR tv214[ebp]
  000af	66 0f 2e 45 84	 ucomisd xmm0, QWORD PTR tv214[ebp]
  000b4	9f		 lahf
  000b5	f6 c4 44	 test	 ah, 68			; 00000044H
  000b8	7b 43		 jnp	 SHORT $LN5@OnLButtonD

; 162  : 
; 163  : 		m_pDrawingSymbol = m_pSymbolTool->OnLButtonDown(pDC, point);

  000ba	8b 4e 24	 mov	 ecx, DWORD PTR [esi+36]
  000bd	53		 push	 ebx
  000be	ff 75 8c	 push	 DWORD PTR _pDC$GSCopy$1$[ebp]
  000c1	8b 01		 mov	 eax, DWORD PTR [ecx]
  000c3	ff 50 04	 call	 DWORD PTR [eax+4]
  000c6	89 46 20	 mov	 DWORD PTR [esi+32], eax

; 164  : 		
; 165  : 		//    		
; 166  : 		if(m_pDrawingSymbol != NULL)

  000c9	85 c0		 test	 eax, eax
  000cb	74 1b		 je	 SHORT $LN6@OnLButtonD

; 167  : 		{
; 168  : 			//20000   -    
; 169  : 			// Check 20000 
; 170  : 			int nElementType = m_symboldata.GetSymbolType() + 20000;

  000cd	8d 4e 28	 lea	 ecx, DWORD PTR [esi+40]
  000d0	e8 00 00 00 00	 call	 ?GetSymbolType@CSymbolData@@QBE?AW4TOOLTYPE@CSymbolBaseData@@XZ ; CSymbolData::GetSymbolType

; 171  : 			m_pIChartOCX->RunToolCommand(CToolOptionInfo::T_TOOL_SELECTION,nElementType);

  000d5	8b 4e 08	 mov	 ecx, DWORD PTR [esi+8]
  000d8	05 20 4e 00 00	 add	 eax, 20000		; 00004e20H
  000dd	50		 push	 eax
  000de	6a 20		 push	 32			; 00000020H
  000e0	8b 11		 mov	 edx, DWORD PTR [ecx]
  000e2	ff 92 b0 01 00
	00		 call	 DWORD PTR [edx+432]
$LN6@OnLButtonD:

; 172  : 		}
; 173  : 		return IsMyMouse();

  000e8	8b ce		 mov	 ecx, esi
  000ea	e8 00 00 00 00	 call	 ?IsMyMouse@CMainSymbolImplementation@@AAE_NXZ ; CMainSymbolImplementation::IsMyMouse
  000ef	8d 4d 90	 lea	 ecx, DWORD PTR _calData$2[ebp]
  000f2	8a d8		 mov	 bl, al
  000f4	e8 00 00 00 00	 call	 ??1CCoordinateCalculatorData@@QAE@XZ ; CCoordinateCalculatorData::~CCoordinateCalculatorData
  000f9	8a c3		 mov	 al, bl
  000fb	eb 10		 jmp	 SHORT $LN1@OnLButtonD
$LN5@OnLButtonD:
  000fd	8d 4d 90	 lea	 ecx, DWORD PTR _calData$2[ebp]
  00100	32 db		 xor	 bl, bl
  00102	e8 00 00 00 00	 call	 ??1CCoordinateCalculatorData@@QAE@XZ ; CCoordinateCalculatorData::~CCoordinateCalculatorData
  00107	8a c3		 mov	 al, bl
  00109	eb 02		 jmp	 SHORT $LN1@OnLButtonD
$LN3@OnLButtonD:

; 174  : 	}
; 175  : 
; 176  : 	return false;

  0010b	32 c0		 xor	 al, al
$LN1@OnLButtonD:

; 177  : }

  0010d	8b 4d f4	 mov	 ecx, DWORD PTR __$EHRec$[ebp]
  00110	64 89 0d 00 00
	00 00		 mov	 DWORD PTR fs:0, ecx
  00117	59		 pop	 ecx
  00118	5f		 pop	 edi
  00119	5e		 pop	 esi
  0011a	5b		 pop	 ebx
  0011b	8b 4d f0	 mov	 ecx, DWORD PTR __$ArrayPad$[ebp]
  0011e	33 cd		 xor	 ecx, ebp
  00120	e8 00 00 00 00	 call	 @__security_check_cookie@4
  00125	8b e5		 mov	 esp, ebp
  00127	5d		 pop	 ebp
  00128	c2 08 00	 ret	 8
_TEXT	ENDS
;	COMDAT text$x
text$x	SEGMENT
__unwindfunclet$?OnLButtonDown@CMainSymbolImplementation@@QAE_NPAVCDC@@ABVCPoint@@@Z$0:
  00000	8d 4d 90	 lea	 ecx, DWORD PTR _calData$2[ebp]
  00003	e9 00 00 00 00	 jmp	 ??1CCoordinateCalculatorData@@QAE@XZ ; CCoordinateCalculatorData::~CCoordinateCalculatorData
  00008	cc		 int	 3
  00009	cc		 int	 3
  0000a	cc		 int	 3
  0000b	cc		 int	 3
  0000c	cc		 int	 3
__ehhandler$?OnLButtonDown@CMainSymbolImplementation@@QAE_NPAVCDC@@ABVCPoint@@@Z:
  0000d	90		 npad	 1
  0000e	90		 npad	 1
  0000f	8b 54 24 08	 mov	 edx, DWORD PTR [esp+8]
  00013	8d 42 0c	 lea	 eax, DWORD PTR [edx+12]
  00016	8b 4a 80	 mov	 ecx, DWORD PTR [edx-128]
  00019	33 c8		 xor	 ecx, eax
  0001b	e8 00 00 00 00	 call	 @__security_check_cookie@4
  00020	8b 4a fc	 mov	 ecx, DWORD PTR [edx-4]
  00023	33 c8		 xor	 ecx, eax
  00025	e8 00 00 00 00	 call	 @__security_check_cookie@4
  0002a	b8 00 00 00 00	 mov	 eax, OFFSET __ehfuncinfo$?OnLButtonDown@CMainSymbolImplementation@@QAE_NPAVCDC@@ABVCPoint@@@Z
  0002f	e9 00 00 00 00	 jmp	 ___CxxFrameHandler3
text$x	ENDS
?OnLButtonDown@CMainSymbolImplementation@@QAE_NPAVCDC@@ABVCPoint@@@Z ENDP ; CMainSymbolImplementation::OnLButtonDown
; Function compile flags: /Ogtp
; File D:\git\src\IBK\IBK_DRFN\ProjSrc\SrcChartEx\ChartAddIn\ChartAnalysisToolAddIn\Symbol\MainSymbolImplementation.cpp
; File C:\Program Files (x86)\Microsoft Visual Studio\2019\Community\VC\Tools\MSVC\14.29.30133\atlmfc\include\afxtempl.h
; File D:\git\src\IBK\IBK_DRFN\ProjSrc\SrcChartEx\ChartAddIn\ChartAnalysisToolAddIn\Symbol\MainSymbolImplementation.cpp
; File C:\Program Files (x86)\Microsoft Visual Studio\2019\Community\VC\Tools\MSVC\14.29.30133\atlmfc\include\afxtempl.h
; File D:\git\src\IBK\IBK_DRFN\ProjSrc\SrcChartEx\ChartAddIn\ChartAnalysisToolAddIn\Symbol\MainSymbolImplementation.cpp
; File C:\Program Files (x86)\Microsoft Visual Studio\2019\Community\VC\Tools\MSVC\14.29.30133\atlmfc\include\afx.inl
; File D:\git\src\IBK\IBK_DRFN\ProjSrc\SrcChartEx\ChartAddIn\ChartAnalysisToolAddIn\Symbol\MainSymbolImplementation.cpp
; File C:\Program Files (x86)\Microsoft Visual Studio\2019\Community\VC\Tools\MSVC\14.29.30133\atlmfc\include\afx.inl
; File D:\git\src\IBK\IBK_DRFN\ProjSrc\SrcChartEx\ChartAddIn\ChartAnalysisToolAddIn\Symbol\MainSymbolImplementation.cpp
;	COMDAT ?CreateSymbolDlg@CMainSymbolImplementation@@QAEXXZ
_TEXT	SEGMENT
_nHashBucket$2 = -20					; size = 4
$T3 = -20						; size = 4
_nHashValue$4 = -16					; size = 4
__$EHRec$ = -12						; size = 12
?CreateSymbolDlg@CMainSymbolImplementation@@QAEXXZ PROC	; CMainSymbolImplementation::CreateSymbolDlg, COMDAT
; _this$ = ecx

; 120  : {

  00000	55		 push	 ebp
  00001	8b ec		 mov	 ebp, esp
  00003	6a ff		 push	 -1
  00005	68 00 00 00 00	 push	 __ehhandler$?CreateSymbolDlg@CMainSymbolImplementation@@QAEXXZ
  0000a	64 a1 00 00 00
	00		 mov	 eax, DWORD PTR fs:0
  00010	50		 push	 eax
  00011	83 ec 08	 sub	 esp, 8
  00014	53		 push	 ebx
  00015	56		 push	 esi
  00016	57		 push	 edi
  00017	a1 00 00 00 00	 mov	 eax, DWORD PTR ___security_cookie
  0001c	33 c5		 xor	 eax, ebp
  0001e	50		 push	 eax
  0001f	8d 45 f4	 lea	 eax, DWORD PTR __$EHRec$[ebp]
  00022	64 a3 00 00 00
	00		 mov	 DWORD PTR fs:0, eax
  00028	8b f9		 mov	 edi, ecx
; File C:\Program Files (x86)\Microsoft Visual Studio\2019\Community\VC\Tools\MSVC\14.29.30133\atlmfc\include\afxtempl.h

; 1555 : 	CAssoc* pAssoc = GetAssocAt(key, nHashBucket, nHashValue);

  0002a	8d 45 f0	 lea	 eax, DWORD PTR _nHashValue$4[ebp]
; File D:\git\src\IBK\IBK_DRFN\ProjSrc\SrcChartEx\ChartAddIn\ChartAnalysisToolAddIn\Symbol\MainSymbolImplementation.cpp

; 121  : 	m_pSymbolDlg = NULL;

  0002d	c7 47 1c 00 00
	00 00		 mov	 DWORD PTR [edi+28], 0
; File C:\Program Files (x86)\Microsoft Visual Studio\2019\Community\VC\Tools\MSVC\14.29.30133\atlmfc\include\afxtempl.h

; 1555 : 	CAssoc* pAssoc = GetAssocAt(key, nHashBucket, nHashValue);

  00034	50		 push	 eax
  00035	8d 45 ec	 lea	 eax, DWORD PTR _nHashBucket$2[ebp]
  00038	b9 00 00 00 00	 mov	 ecx, OFFSET ?g_mapSymbolDlg@CMainSymbolImplementation@@1V?$CMap@HHPAVCSymbolDlg@@PAV1@@@A ; CMainSymbolImplementation::g_mapSymbolDlg
  0003d	50		 push	 eax
  0003e	6a 00		 push	 0
  00040	e8 00 00 00 00	 call	 ?GetAssocAt@?$CMap@HHPAVCSymbolDlg@@PAV1@@@IBEPAVCAssoc@1@HAAI0@Z ; CMap<int,int,CSymbolDlg *,CSymbolDlg *>::GetAssocAt

; 1556 : 	if (pAssoc == NULL)

  00045	85 c0		 test	 eax, eax
  00047	74 08		 je	 SHORT $LN15@CreateSymb

; 1557 : 		return FALSE;  // not in map
; 1558 : 
; 1559 : 	rValue = pAssoc->value;

  00049	8b 40 04	 mov	 eax, DWORD PTR [eax+4]
  0004c	89 47 1c	 mov	 DWORD PTR [edi+28], eax
; File D:\git\src\IBK\IBK_DRFN\ProjSrc\SrcChartEx\ChartAddIn\ChartAnalysisToolAddIn\Symbol\MainSymbolImplementation.cpp

; 122  : 	if(!g_mapSymbolDlg.Lookup(0, m_pSymbolDlg))

  0004f	eb 5f		 jmp	 SHORT $LN2@CreateSymb
$LN15@CreateSymb:
; File C:\Program Files (x86)\Microsoft Visual Studio\2019\Community\VC\Tools\MSVC\14.29.30133\atlmfc\include\afx.inl

; 116  : 	{ return ::operator new(nSize); }

  00051	68 e0 13 00 00	 push	 5088			; 000013e0H
  00056	e8 00 00 00 00	 call	 ??2@YAPAXI@Z		; operator new
; File D:\git\src\IBK\IBK_DRFN\ProjSrc\SrcChartEx\ChartAddIn\ChartAnalysisToolAddIn\Symbol\MainSymbolImplementation.cpp

; 124  : 		m_pSymbolDlg = new CSymbolDlg(this, &m_symboldata, m_symboldata.GetParent());

  0005b	8b d8		 mov	 ebx, eax
; File C:\Program Files (x86)\Microsoft Visual Studio\2019\Community\VC\Tools\MSVC\14.29.30133\atlmfc\include\afx.inl

; 116  : 	{ return ::operator new(nSize); }

  0005d	83 c4 04	 add	 esp, 4
; File D:\git\src\IBK\IBK_DRFN\ProjSrc\SrcChartEx\ChartAddIn\ChartAnalysisToolAddIn\Symbol\MainSymbolImplementation.cpp

; 124  : 		m_pSymbolDlg = new CSymbolDlg(this, &m_symboldata, m_symboldata.GetParent());

  00060	89 5d ec	 mov	 DWORD PTR $T3[ebp], ebx
  00063	c7 45 fc 00 00
	00 00		 mov	 DWORD PTR __$EHRec$[ebp+8], 0
  0006a	85 db		 test	 ebx, ebx
  0006c	74 18		 je	 SHORT $LN5@CreateSymb
  0006e	8d 77 28	 lea	 esi, DWORD PTR [edi+40]
  00071	8b ce		 mov	 ecx, esi
  00073	e8 00 00 00 00	 call	 ?GetParent@CSymbolData@@QBEPAVCWnd@@XZ ; CSymbolData::GetParent
  00078	50		 push	 eax
  00079	56		 push	 esi
  0007a	57		 push	 edi
  0007b	8b cb		 mov	 ecx, ebx
  0007d	e8 00 00 00 00	 call	 ??0CSymbolDlg@@QAE@PAVCMainSymbolImplementation@@PAVCSymbolData@@PAVCWnd@@@Z ; CSymbolDlg::CSymbolDlg
  00082	8b c8		 mov	 ecx, eax
  00084	eb 02		 jmp	 SHORT $LN6@CreateSymb
$LN5@CreateSymb:
  00086	33 c9		 xor	 ecx, ecx
$LN6@CreateSymb:
  00088	89 4f 1c	 mov	 DWORD PTR [edi+28], ecx

; 125  : 		m_pSymbolDlg->Create(IDD_DLG_SYMBOL);

  0008b	8b 01		 mov	 eax, DWORD PTR [ecx]
  0008d	6a 00		 push	 0
  0008f	68 e8 03 00 00	 push	 1000			; 000003e8H
  00094	c7 45 fc ff ff
	ff ff		 mov	 DWORD PTR __$EHRec$[ebp+8], -1
  0009b	ff 90 6c 01 00
	00		 call	 DWORD PTR [eax+364]

; 126  : 		
; 127  : 		g_mapSymbolDlg.SetAt(0, m_pSymbolDlg);

  000a1	ff 77 1c	 push	 DWORD PTR [edi+28]
  000a4	b9 00 00 00 00	 mov	 ecx, OFFSET ?g_mapSymbolDlg@CMainSymbolImplementation@@1V?$CMap@HHPAVCSymbolDlg@@PAV1@@@A ; CMainSymbolImplementation::g_mapSymbolDlg
  000a9	6a 00		 push	 0
  000ab	e8 00 00 00 00	 call	 ?SetAt@?$CMap@HHPAVCSymbolDlg@@PAV1@@@QAEXHPAVCSymbolDlg@@@Z ; CMap<int,int,CSymbolDlg *,CSymbolDlg *>::SetAt
$LN2@CreateSymb:

; 128  : 	}
; 129  : 	
; 130  : 	int nIndex = g_mapSymbolType.GetCount();
; 131  : 	g_mapSymbolType.SetAt(0,CSymbolBaseData::SYMBOL_ARROW_LEFT);

  000b0	6a 07		 push	 7
  000b2	6a 00		 push	 0
  000b4	b9 00 00 00 00	 mov	 ecx, OFFSET ?g_mapSymbolType@CMainSymbolImplementation@@1V?$CMap@HHW4TOOLTYPE@CSymbolBaseData@@W412@@@A ; CMainSymbolImplementation::g_mapSymbolType
  000b9	e8 00 00 00 00	 call	 ?SetAt@?$CMap@HHW4TOOLTYPE@CSymbolBaseData@@W412@@@QAEXHW4TOOLTYPE@CSymbolBaseData@@@Z ; CMap<int,int,enum CSymbolBaseData::TOOLTYPE,enum CSymbolBaseData::TOOLTYPE>::SetAt

; 132  : 
; 133  : 	m_symboldata.SetBuletType(CSymbolBaseData::SYMBOL_ARROW_LEFT);

  000be	8d 77 28	 lea	 esi, DWORD PTR [edi+40]
  000c1	6a 07		 push	 7
  000c3	8b ce		 mov	 ecx, esi
  000c5	e8 00 00 00 00	 call	 ?SetBuletType@CSymbolData@@QAEXW4TOOLTYPE@CSymbolBaseData@@@Z ; CSymbolData::SetBuletType

; 134  : 	m_pSymbolDlg->SetData(&m_symboldata);

  000ca	8b 4f 1c	 mov	 ecx, DWORD PTR [edi+28]
  000cd	56		 push	 esi
  000ce	e8 00 00 00 00	 call	 ?SetData@CSymbolDlg@@QAEXPAVCSymbolData@@@Z ; CSymbolDlg::SetData

; 135  : 
; 136  : 	//dlg symbol .
; 137  : 	if(m_pDrawingSymbol != NULL) 

  000d3	83 7f 20 00	 cmp	 DWORD PTR [edi+32], 0
  000d7	74 20		 je	 SHORT $LN3@CreateSymb

; 384  : 	m_singleton.InitialTool();	

  000d9	8d 8f 28 01 00
	00		 lea	 ecx, DWORD PTR [edi+296]
  000df	c7 47 24 00 00
	00 00		 mov	 DWORD PTR [edi+36], 0
  000e6	c7 47 20 00 00
	00 00		 mov	 DWORD PTR [edi+32], 0
  000ed	e8 00 00 00 00	 call	 ?InitialTool@CSymbolSingleton@@QAEXXZ ; CSymbolSingleton::InitialTool

; 138  : 	{
; 139  : 		Initial();
; 140  : 		m_symboldata.Invalidate();

  000f2	8b ce		 mov	 ecx, esi
  000f4	e8 00 00 00 00	 call	 ?Invalidate@CSymbolData@@QAEXXZ ; CSymbolData::Invalidate
$LN3@CreateSymb:

; 141  : 	}
; 142  : 	m_pSymbolDlg->ShowWindow(SW_SHOW);

  000f9	8b 4f 1c	 mov	 ecx, DWORD PTR [edi+28]
  000fc	6a 05		 push	 5
  000fe	e8 00 00 00 00	 call	 ?ShowWindow@CWnd@@QAEHH@Z ; CWnd::ShowWindow

; 143  : }

  00103	8b 4d f4	 mov	 ecx, DWORD PTR __$EHRec$[ebp]
  00106	64 89 0d 00 00
	00 00		 mov	 DWORD PTR fs:0, ecx
  0010d	59		 pop	 ecx
  0010e	5f		 pop	 edi
  0010f	5e		 pop	 esi
  00110	5b		 pop	 ebx
  00111	8b e5		 mov	 esp, ebp
  00113	5d		 pop	 ebp
  00114	c3		 ret	 0
_TEXT	ENDS
;	COMDAT text$x
text$x	SEGMENT
__unwindfunclet$?CreateSymbolDlg@CMainSymbolImplementation@@QAEXXZ$0:
  00000	8b 45 ec	 mov	 eax, DWORD PTR $T3[ebp]
  00003	50		 push	 eax
  00004	e8 00 00 00 00	 call	 ??3CObject@@SGXPAX@Z	; CObject::operator delete
  00009	c3		 ret	 0
  0000a	cc		 int	 3
  0000b	cc		 int	 3
  0000c	cc		 int	 3
  0000d	cc		 int	 3
  0000e	cc		 int	 3
__ehhandler$?CreateSymbolDlg@CMainSymbolImplementation@@QAEXXZ:
  0000f	90		 npad	 1
  00010	90		 npad	 1
  00011	8b 54 24 08	 mov	 edx, DWORD PTR [esp+8]
  00015	8d 42 0c	 lea	 eax, DWORD PTR [edx+12]
  00018	8b 4a e8	 mov	 ecx, DWORD PTR [edx-24]
  0001b	33 c8		 xor	 ecx, eax
  0001d	e8 00 00 00 00	 call	 @__security_check_cookie@4
  00022	b8 00 00 00 00	 mov	 eax, OFFSET __ehfuncinfo$?CreateSymbolDlg@CMainSymbolImplementation@@QAEXXZ
  00027	e9 00 00 00 00	 jmp	 ___CxxFrameHandler3
text$x	ENDS
?CreateSymbolDlg@CMainSymbolImplementation@@QAEXXZ ENDP	; CMainSymbolImplementation::CreateSymbolDlg
; Function compile flags: /Ogtp
; File D:\git\src\IBK\IBK_DRFN\ProjSrc\SrcChartEx\ChartAddIn\ChartAnalysisToolAddIn\Symbol\MainSymbolImplementation.cpp
;	COMDAT ?SetShapeDrawingType@CMainSymbolImplementation@@QAEXABKABH1AB_N@Z
_TEXT	SEGMENT
_crLine$ = 8						; size = 4
_nStyle$ = 12						; size = 4
_nWeight$ = 16						; size = 4
_bFill$ = 20						; size = 4
?SetShapeDrawingType@CMainSymbolImplementation@@QAEXABKABH1AB_N@Z PROC ; CMainSymbolImplementation::SetShapeDrawingType, COMDAT
; _this$ = ecx

; 393  : {

  00000	55		 push	 ebp
  00001	8b ec		 mov	 ebp, esp
  00003	56		 push	 esi
  00004	57		 push	 edi

; 394  : 	m_symboldata.GetPropertiesData()->SetColor(crLine);

  00005	ff 75 08	 push	 DWORD PTR _crLine$[ebp]
  00008	8d 71 28	 lea	 esi, DWORD PTR [ecx+40]
  0000b	8b ce		 mov	 ecx, esi
  0000d	e8 00 00 00 00	 call	 ?GetPropertiesData@CSymbolData@@QAEPAVCPropertiesData_text@@XZ ; CSymbolData::GetPropertiesData
  00012	8b c8		 mov	 ecx, eax
  00014	e8 00 00 00 00	 call	 ?SetColor@CPropertiesData_Figure@@QAEXABK@Z ; CPropertiesData_Figure::SetColor

; 395  : 	if(nWeight >= 0)

  00019	8b 7d 10	 mov	 edi, DWORD PTR _nWeight$[ebp]
  0001c	83 3f 00	 cmp	 DWORD PTR [edi], 0
  0001f	7c 35		 jl	 SHORT $LN2@SetShapeDr

; 396  : 	{
; 397  : 		m_symboldata.GetPropertiesData()->SetStyle(nStyle);

  00021	ff 75 0c	 push	 DWORD PTR _nStyle$[ebp]
  00024	8b ce		 mov	 ecx, esi
  00026	e8 00 00 00 00	 call	 ?GetPropertiesData@CSymbolData@@QAEPAVCPropertiesData_text@@XZ ; CSymbolData::GetPropertiesData
  0002b	8b c8		 mov	 ecx, eax
  0002d	e8 00 00 00 00	 call	 ?SetStyle@CPropertiesData_Figure@@QAEXABH@Z ; CPropertiesData_Figure::SetStyle

; 398  : 		m_symboldata.GetPropertiesData()->SetWeight(nWeight);

  00032	57		 push	 edi
  00033	8b ce		 mov	 ecx, esi
  00035	e8 00 00 00 00	 call	 ?GetPropertiesData@CSymbolData@@QAEPAVCPropertiesData_text@@XZ ; CSymbolData::GetPropertiesData
  0003a	8b c8		 mov	 ecx, eax
  0003c	e8 00 00 00 00	 call	 ?SetWeight@CPropertiesData_Figure@@QAEXABH@Z ; CPropertiesData_Figure::SetWeight

; 399  : 		m_symboldata.GetPropertiesData()->SetFillState(bFill);

  00041	8b 45 14	 mov	 eax, DWORD PTR _bFill$[ebp]
  00044	8b ce		 mov	 ecx, esi
  00046	0f b6 00	 movzx	 eax, BYTE PTR [eax]
  00049	50		 push	 eax
  0004a	e8 00 00 00 00	 call	 ?GetPropertiesData@CSymbolData@@QAEPAVCPropertiesData_text@@XZ ; CSymbolData::GetPropertiesData
  0004f	8b c8		 mov	 ecx, eax
  00051	e8 00 00 00 00	 call	 ?SetFillState@CPropertiesData_Figure@@QAEX_N@Z ; CPropertiesData_Figure::SetFillState
$LN2@SetShapeDr:

; 400  : 	}
; 401  : }

  00056	5f		 pop	 edi
  00057	5e		 pop	 esi
  00058	5d		 pop	 ebp
  00059	c2 10 00	 ret	 16			; 00000010H
?SetShapeDrawingType@CMainSymbolImplementation@@QAEXABKABH1AB_N@Z ENDP ; CMainSymbolImplementation::SetShapeDrawingType
_TEXT	ENDS
; Function compile flags: /Ogtp
; File D:\git\src\IBK\IBK_DRFN\ProjSrc\SrcChartEx\ChartAddIn\ChartAnalysisToolAddIn\Symbol\MainSymbolImplementation.cpp
; File C:\Program Files (x86)\Microsoft Visual Studio\2019\Community\VC\Tools\MSVC\14.29.30133\atlmfc\include\afxwin2.inl
; File D:\git\src\IBK\IBK_DRFN\ProjSrc\SrcChartEx\ChartAddIn\ChartAnalysisToolAddIn\Symbol\MainSymbolImplementation.cpp
; File C:\Program Files (x86)\Microsoft Visual Studio\2019\Community\VC\Tools\MSVC\14.29.30133\atlmfc\include\afxwin2.inl
; File D:\git\src\IBK\IBK_DRFN\ProjSrc\SrcChartEx\ChartAddIn\ChartAnalysisToolAddIn\Symbol\MainSymbolImplementation.cpp
; File C:\Program Files (x86)\Microsoft Visual Studio\2019\Community\VC\Tools\MSVC\14.29.30133\atlmfc\include\afxwin2.inl
; File D:\git\src\IBK\IBK_DRFN\ProjSrc\SrcChartEx\ChartAddIn\ChartAnalysisToolAddIn\Symbol\MainSymbolImplementation.cpp
;	COMDAT ?SetCurrentSymbolTool@CMainSymbolImplementation@@QAEXW4SYMBOLTOOL@CSymbol@@@Z
_TEXT	SEGMENT
_pWnd$1$ = 8						; size = 4
_symbolType$ = 8					; size = 4
?SetCurrentSymbolTool@CMainSymbolImplementation@@QAEXW4SYMBOLTOOL@CSymbol@@@Z PROC ; CMainSymbolImplementation::SetCurrentSymbolTool, COMDAT
; _this$ = ecx

; 404  : {

  00000	55		 push	 ebp
  00001	8b ec		 mov	 ebp, esp
  00003	56		 push	 esi
  00004	57		 push	 edi
  00005	8b f1		 mov	 esi, ecx

; 405  : 	if(IsExistBuletDlg() == TRUE && m_pSymbolDlg != NULL)  

  00007	e8 00 00 00 00	 call	 ?IsExistBuletDlg@CMainSymbolImplementation@@SAHXZ ; CMainSymbolImplementation::IsExistBuletDlg
  0000c	8b 7d 08	 mov	 edi, DWORD PTR _symbolType$[ebp]
  0000f	83 f8 01	 cmp	 eax, 1
  00012	75 40		 jne	 SHORT $LN6@SetCurrent
  00014	8b 4e 1c	 mov	 ecx, DWORD PTR [esi+28]
  00017	85 c9		 test	 ecx, ecx
  00019	74 39		 je	 SHORT $LN6@SetCurrent

; 406  : 	{
; 407  : 		//  
; 408  : 		if(symbolType == CSymbol::SYMBOL_SELECTION)

  0001b	83 ff 06	 cmp	 edi, 6
  0001e	75 12		 jne	 SHORT $LN3@SetCurrent

; 409  : 			m_pIChartOCX->OnToolStateChanged(CToolOptionInfo::T_SYMBOL_BULET,FALSE);

  00020	8b 4e 08	 mov	 ecx, DWORD PTR [esi+8]
  00023	6a 00		 push	 0
  00025	6a 1b		 push	 27			; 0000001bH
  00027	8b 01		 mov	 eax, DWORD PTR [ecx]
  00029	ff 90 ac 01 00
	00		 call	 DWORD PTR [eax+428]
  0002f	8b 4e 1c	 mov	 ecx, DWORD PTR [esi+28]
$LN3@SetCurrent:

; 410  : 
; 411  : 		if(!m_pSymbolDlg->IsSymbolDlgClose())

  00032	e8 00 00 00 00	 call	 ?IsSymbolDlgClose@CSymbolDlg@@QAE_NXZ ; CSymbolDlg::IsSymbolDlgClose
  00037	84 c0		 test	 al, al
  00039	75 19		 jne	 SHORT $LN6@SetCurrent

; 412  : 		{	//Dlg  ocx  Tool Set .
; 413  : 			if(symbolType == CSymbol::SYMBOL_BULET)

  0003b	83 ff 05	 cmp	 edi, 5
  0003e	74 71		 je	 SHORT $LN1@SetCurrent

; 416  : 			if(m_pSymbolDlg->GetSafeHwnd())

  00040	8b 4e 1c	 mov	 ecx, DWORD PTR [esi+28]
; File C:\Program Files (x86)\Microsoft Visual Studio\2019\Community\VC\Tools\MSVC\14.29.30133\atlmfc\include\afxwin2.inl

; 25   : 	{ return this == NULL ? NULL : m_hWnd; }

  00043	85 c9		 test	 ecx, ecx
  00045	74 0d		 je	 SHORT $LN6@SetCurrent
; File D:\git\src\IBK\IBK_DRFN\ProjSrc\SrcChartEx\ChartAddIn\ChartAnalysisToolAddIn\Symbol\MainSymbolImplementation.cpp

; 416  : 			if(m_pSymbolDlg->GetSafeHwnd())

  00047	83 79 20 00	 cmp	 DWORD PTR [ecx+32], 0
  0004b	74 07		 je	 SHORT $LN6@SetCurrent

; 417  : 				m_pSymbolDlg->ShowWindow(SW_HIDE);

  0004d	6a 00		 push	 0
  0004f	e8 00 00 00 00	 call	 ?ShowWindow@CWnd@@QAEHH@Z ; CWnd::ShowWindow
$LN6@SetCurrent:

; 418  : 		}
; 419  : 	}
; 420  : 
; 421  : 	//edit delete    
; 422  : 	//if(m_pDrawingSymbol)
; 423  : 	{
; 424  : 		//CSymbolBaseData::TOOLTYPE eType = m_pDrawingSymbol->GetSymbolType();
; 425  : 		CSymbolBaseData::TOOLTYPE eType = m_symboldata.GetSymbolType();

  00054	53		 push	 ebx
  00055	8d 4e 28	 lea	 ecx, DWORD PTR [esi+40]
  00058	e8 00 00 00 00	 call	 ?GetSymbolType@CSymbolData@@QBE?AW4TOOLTYPE@CSymbolBaseData@@XZ ; CSymbolData::GetSymbolType

; 426  : 		if(symbolType == CSymbol::SYMBOL_SELECTION && eType == CSymbolBaseData::SYMBOL_TEXT)

  0005d	83 ff 06	 cmp	 edi, 6
  00060	75 3e		 jne	 SHORT $LN8@SetCurrent
  00062	83 f8 04	 cmp	 eax, 4
  00065	75 39		 jne	 SHORT $LN8@SetCurrent

; 429  : 			CWnd* pWnd = m_symboldata.GetParent()->GetFocus();

  00067	8d 4e 28	 lea	 ecx, DWORD PTR [esi+40]
  0006a	e8 00 00 00 00	 call	 ?GetParent@CSymbolData@@QBEPAVCWnd@@XZ ; CSymbolData::GetParent
; File C:\Program Files (x86)\Microsoft Visual Studio\2019\Community\VC\Tools\MSVC\14.29.30133\atlmfc\include\afxwin2.inl

; 165  : 	{ return CWnd::FromHandle(::GetFocus()); }

  0006f	ff 15 00 00 00
	00		 call	 DWORD PTR __imp__GetFocus@0
  00075	50		 push	 eax
  00076	e8 00 00 00 00	 call	 ?FromHandle@CWnd@@SGPAV1@PAUHWND__@@@Z ; CWnd::FromHandle
; File D:\git\src\IBK\IBK_DRFN\ProjSrc\SrcChartEx\ChartAddIn\ChartAnalysisToolAddIn\Symbol\MainSymbolImplementation.cpp

; 429  : 			CWnd* pWnd = m_symboldata.GetParent()->GetFocus();

  0007b	89 45 08	 mov	 DWORD PTR _pWnd$1$[ebp], eax

; 430  : 			if(pWnd != NULL && pWnd != m_symboldata.GetParent())

  0007e	85 c0		 test	 eax, eax
  00080	74 1e		 je	 SHORT $LN8@SetCurrent
  00082	8d 4e 28	 lea	 ecx, DWORD PTR [esi+40]
  00085	e8 00 00 00 00	 call	 ?GetParent@CSymbolData@@QBEPAVCWnd@@XZ ; CSymbolData::GetParent
  0008a	8b 4d 08	 mov	 ecx, DWORD PTR _pWnd$1$[ebp]
  0008d	3b c8		 cmp	 ecx, eax
  0008f	74 0f		 je	 SHORT $LN8@SetCurrent
; File C:\Program Files (x86)\Microsoft Visual Studio\2019\Community\VC\Tools\MSVC\14.29.30133\atlmfc\include\afxwin2.inl

; 32   : 	{ ASSERT(::IsWindow(m_hWnd)); return ::SendMessage(m_hWnd, message, wParam, lParam); }

  00091	6a 00		 push	 0
  00093	6a 00		 push	 0
  00095	6a 08		 push	 8
  00097	ff 71 20	 push	 DWORD PTR [ecx+32]
  0009a	ff 15 00 00 00
	00		 call	 DWORD PTR __imp__SendMessageA@16
$LN8@SetCurrent:
; File D:\git\src\IBK\IBK_DRFN\ProjSrc\SrcChartEx\ChartAddIn\ChartAnalysisToolAddIn\Symbol\MainSymbolImplementation.cpp

; 435  : 	m_symboldata.SetSymbolType(CSymbolBaseData::TOOLTYPE(symbolType));

  000a0	57		 push	 edi
  000a1	8d 4e 28	 lea	 ecx, DWORD PTR [esi+40]
  000a4	e8 00 00 00 00	 call	 ?SetSymbolType@CSymbolData@@QAEXW4TOOLTYPE@CSymbolBaseData@@@Z ; CSymbolData::SetSymbolType

; 436  : 	GetSymbolTool();

  000a9	8b ce		 mov	 ecx, esi
  000ab	e8 00 00 00 00	 call	 ?GetSymbolTool@CMainSymbolImplementation@@AAEXXZ ; CMainSymbolImplementation::GetSymbolTool
  000b0	5b		 pop	 ebx
$LN1@SetCurrent:

; 437  : }

  000b1	5f		 pop	 edi
  000b2	5e		 pop	 esi
  000b3	5d		 pop	 ebp
  000b4	c2 04 00	 ret	 4
?SetCurrentSymbolTool@CMainSymbolImplementation@@QAEXW4SYMBOLTOOL@CSymbol@@@Z ENDP ; CMainSymbolImplementation::SetCurrentSymbolTool
_TEXT	ENDS
; Function compile flags: /Ogtp
; File D:\git\src\IBK\IBK_DRFN\ProjSrc\SrcChartEx\ChartAddIn\ChartAnalysisToolAddIn\Symbol\MainSymbolImplementation.cpp
;	COMDAT ?InitializeBlock@CMainSymbolImplementation@@QAEXPAVCDC@@PAVCWnd@@@Z
_TEXT	SEGMENT
_pDC$ = 8						; size = 4
_pParentWnd$ = 12					; size = 4
?InitializeBlock@CMainSymbolImplementation@@QAEXPAVCDC@@PAVCWnd@@@Z PROC ; CMainSymbolImplementation::InitializeBlock, COMDAT
; _this$ = ecx

; 388  : {

  00000	55		 push	 ebp
  00001	8b ec		 mov	 ebp, esp

; 389  : 	m_symboldata.SetParent(pParentWnd);

  00003	ff 75 0c	 push	 DWORD PTR _pParentWnd$[ebp]
  00006	83 c1 28	 add	 ecx, 40			; 00000028H
  00009	e8 00 00 00 00	 call	 ?SetParent@CSymbolData@@QAEXPAVCWnd@@@Z ; CSymbolData::SetParent

; 390  : }

  0000e	5d		 pop	 ebp
  0000f	c2 08 00	 ret	 8
?InitializeBlock@CMainSymbolImplementation@@QAEXPAVCDC@@PAVCWnd@@@Z ENDP ; CMainSymbolImplementation::InitializeBlock
_TEXT	ENDS
; Function compile flags: /Ogtp
; File D:\git\src\IBK\IBK_DRFN\ProjSrc\SrcChartEx\ChartAddIn\ChartAnalysisToolAddIn\Symbol\MainSymbolImplementation.cpp
;	COMDAT ?SetMainBlock_Object@CMainSymbolImplementation@@QAEXPAUIChartManager133101@@PAUIChartOCX133101@@@Z
_TEXT	SEGMENT
_pMainBlock$ = 8					; size = 4
_p_pIChartOCX$ = 12					; size = 4
?SetMainBlock_Object@CMainSymbolImplementation@@QAEXPAUIChartManager133101@@PAUIChartOCX133101@@@Z PROC ; CMainSymbolImplementation::SetMainBlock_Object, COMDAT
; _this$ = ecx

; 288  : {

  00000	55		 push	 ebp
  00001	8b ec		 mov	 ebp, esp

; 289  : 	m_pIChartOCX = p_pIChartOCX;

  00003	8b 45 0c	 mov	 eax, DWORD PTR _p_pIChartOCX$[ebp]
  00006	56		 push	 esi
  00007	8b f1		 mov	 esi, ecx

; 290  : 	m_symboldata.SetMainBlock_Object(pMainBlock,p_pIChartOCX);

  00009	50		 push	 eax
  0000a	ff 75 08	 push	 DWORD PTR _pMainBlock$[ebp]
  0000d	8d 4e 28	 lea	 ecx, DWORD PTR [esi+40]
  00010	89 46 08	 mov	 DWORD PTR [esi+8], eax
  00013	e8 00 00 00 00	 call	 ?SetMainBlock_Object@CSymbolData@@QAEXPAUIChartManager133101@@PAUIChartOCX133101@@@Z ; CSymbolData::SetMainBlock_Object

; 291  : 	m_singleton.SetOcxHwnd( m_pIChartOCX ? m_pIChartOCX->GetOcxHwnd() : NULL);

  00018	8b 4e 08	 mov	 ecx, DWORD PTR [esi+8]
  0001b	85 c9		 test	 ecx, ecx
  0001d	74 16		 je	 SHORT $LN3@SetMainBlo
  0001f	8b 01		 mov	 eax, DWORD PTR [ecx]
  00021	ff 50 40	 call	 DWORD PTR [eax+64]
  00024	50		 push	 eax
  00025	8d 8e 28 01 00
	00		 lea	 ecx, DWORD PTR [esi+296]
  0002b	e8 00 00 00 00	 call	 ?SetOcxHwnd@CSymbolSingleton@@QAEXPAUHWND__@@@Z ; CSymbolSingleton::SetOcxHwnd
  00030	5e		 pop	 esi

; 292  : }

  00031	5d		 pop	 ebp
  00032	c2 08 00	 ret	 8
$LN3@SetMainBlo:

; 291  : 	m_singleton.SetOcxHwnd( m_pIChartOCX ? m_pIChartOCX->GetOcxHwnd() : NULL);

  00035	33 c0		 xor	 eax, eax
  00037	8d 8e 28 01 00
	00		 lea	 ecx, DWORD PTR [esi+296]
  0003d	50		 push	 eax
  0003e	e8 00 00 00 00	 call	 ?SetOcxHwnd@CSymbolSingleton@@QAEXPAUHWND__@@@Z ; CSymbolSingleton::SetOcxHwnd
  00043	5e		 pop	 esi

; 292  : }

  00044	5d		 pop	 ebp
  00045	c2 08 00	 ret	 8
?SetMainBlock_Object@CMainSymbolImplementation@@QAEXPAUIChartManager133101@@PAUIChartOCX133101@@@Z ENDP ; CMainSymbolImplementation::SetMainBlock_Object
_TEXT	ENDS
; Function compile flags: /Ogtp
; File D:\git\src\IBK\IBK_DRFN\ProjSrc\SrcChartEx\ChartAddIn\ChartAnalysisToolAddIn\Symbol\MainSymbolImplementation.cpp
;	COMDAT ??1CMainSymbolImplementation@@UAE@XZ
_TEXT	SEGMENT
__$EHRec$ = -12						; size = 12
??1CMainSymbolImplementation@@UAE@XZ PROC		; CMainSymbolImplementation::~CMainSymbolImplementation, COMDAT
; _this$ = ecx

; 113  : {

  00000	55		 push	 ebp
  00001	8b ec		 mov	 ebp, esp
  00003	6a ff		 push	 -1
  00005	68 00 00 00 00	 push	 __ehhandler$??1CMainSymbolImplementation@@UAE@XZ
  0000a	64 a1 00 00 00
	00		 mov	 eax, DWORD PTR fs:0
  00010	50		 push	 eax
  00011	56		 push	 esi
  00012	a1 00 00 00 00	 mov	 eax, DWORD PTR ___security_cookie
  00017	33 c5		 xor	 eax, ebp
  00019	50		 push	 eax
  0001a	8d 45 f4	 lea	 eax, DWORD PTR __$EHRec$[ebp]
  0001d	64 a3 00 00 00
	00		 mov	 DWORD PTR fs:0, eax
  00023	8b f1		 mov	 esi, ecx
  00025	c7 06 00 00 00
	00		 mov	 DWORD PTR [esi], OFFSET ??_7CMainSymbolImplementation@@6B@

; 114  : 	//DeleteSymbolDlg();
; 115  : 		DestSymbolDlg();

  0002b	e8 00 00 00 00	 call	 ?DestSymbolDlg@CMainSymbolImplementation@@SAXXZ ; CMainSymbolImplementation::DestSymbolDlg

; 116  : }

  00030	8d 8e 28 01 00
	00		 lea	 ecx, DWORD PTR [esi+296]
  00036	e8 00 00 00 00	 call	 ??1CSymbolSingleton@@QAE@XZ ; CSymbolSingleton::~CSymbolSingleton
  0003b	8d 4e 28	 lea	 ecx, DWORD PTR [esi+40]
  0003e	e8 00 00 00 00	 call	 ??1CSymbolData@@QAE@XZ	; CSymbolData::~CSymbolData
  00043	8b 4d f4	 mov	 ecx, DWORD PTR __$EHRec$[ebp]
  00046	64 89 0d 00 00
	00 00		 mov	 DWORD PTR fs:0, ecx
  0004d	59		 pop	 ecx
  0004e	5e		 pop	 esi
  0004f	8b e5		 mov	 esp, ebp
  00051	5d		 pop	 ebp
  00052	c3		 ret	 0
  00053	cc		 int	 3
  00054	cc		 int	 3
  00055	cc		 int	 3
  00056	cc		 int	 3
  00057	cc		 int	 3
_TEXT	ENDS
;	COMDAT text$x
text$x	SEGMENT
__ehhandler$??1CMainSymbolImplementation@@UAE@XZ:
  00000	90		 npad	 1
  00001	90		 npad	 1
  00002	8b 54 24 08	 mov	 edx, DWORD PTR [esp+8]
  00006	8d 42 0c	 lea	 eax, DWORD PTR [edx+12]
  00009	8b 4a f8	 mov	 ecx, DWORD PTR [edx-8]
  0000c	33 c8		 xor	 ecx, eax
  0000e	e8 00 00 00 00	 call	 @__security_check_cookie@4
  00013	b8 00 00 00 00	 mov	 eax, OFFSET __ehfuncinfo$??1CMainSymbolImplementation@@UAE@XZ
  00018	e9 00 00 00 00	 jmp	 ___CxxFrameHandler3
text$x	ENDS
??1CMainSymbolImplementation@@UAE@XZ ENDP		; CMainSymbolImplementation::~CMainSymbolImplementation
; Function compile flags: /Ogtp
; File D:\git\src\IBK\IBK_DRFN\ProjSrc\SrcChartEx\ChartAddIn\ChartAnalysisToolAddIn\Symbol\MainSymbolImplementation.cpp
; File C:\Program Files (x86)\Microsoft Visual Studio\2019\Community\VC\Tools\MSVC\14.29.30133\atlmfc\include\atltypes.h
; File D:\git\src\IBK\IBK_DRFN\ProjSrc\SrcChartEx\ChartAddIn\ChartAnalysisToolAddIn\Symbol\MainSymbolImplementation.cpp
;	COMDAT ??0CMainSymbolImplementation@@QAE@XZ
_TEXT	SEGMENT
_this$ = -16						; size = 4
__$EHRec$ = -12						; size = 12
??0CMainSymbolImplementation@@QAE@XZ PROC		; CMainSymbolImplementation::CMainSymbolImplementation, COMDAT
; _this$ = ecx

; 102  : {	

  00000	55		 push	 ebp
  00001	8b ec		 mov	 ebp, esp
  00003	6a ff		 push	 -1
  00005	68 00 00 00 00	 push	 __ehhandler$??0CMainSymbolImplementation@@QAE@XZ
  0000a	64 a1 00 00 00
	00		 mov	 eax, DWORD PTR fs:0
  00010	50		 push	 eax
  00011	51		 push	 ecx
  00012	56		 push	 esi
  00013	a1 00 00 00 00	 mov	 eax, DWORD PTR ___security_cookie
  00018	33 c5		 xor	 eax, ebp
  0001a	50		 push	 eax
  0001b	8d 45 f4	 lea	 eax, DWORD PTR __$EHRec$[ebp]
  0001e	64 a3 00 00 00
	00		 mov	 DWORD PTR fs:0, eax
  00024	8b f1		 mov	 esi, ecx
  00026	89 75 f0	 mov	 DWORD PTR _this$[ebp], esi
  00029	c7 06 00 00 00
	00		 mov	 DWORD PTR [esi], OFFSET ??_7CMainSymbolImplementation@@6B@
  0002f	8d 4e 28	 lea	 ecx, DWORD PTR [esi+40]
; File C:\Program Files (x86)\Microsoft Visual Studio\2019\Community\VC\Tools\MSVC\14.29.30133\atlmfc\include\atltypes.h

; 400  : 	x = 0;

  00032	c7 46 0c 00 00
	00 00		 mov	 DWORD PTR [esi+12], 0

; 401  : 	y = 0;

  00039	c7 46 10 00 00
	00 00		 mov	 DWORD PTR [esi+16], 0

; 400  : 	x = 0;

  00040	c7 46 14 00 00
	00 00		 mov	 DWORD PTR [esi+20], 0

; 401  : 	y = 0;

  00047	c7 46 18 00 00
	00 00		 mov	 DWORD PTR [esi+24], 0
; File D:\git\src\IBK\IBK_DRFN\ProjSrc\SrcChartEx\ChartAddIn\ChartAnalysisToolAddIn\Symbol\MainSymbolImplementation.cpp

; 99   : 	m_pSymbolDlg(NULL),

  0004e	c7 46 1c 00 00
	00 00		 mov	 DWORD PTR [esi+28], 0

; 101  : 	m_pDrawingSymbol(NULL)

  00055	c7 46 20 00 00
	00 00		 mov	 DWORD PTR [esi+32], 0

; 100  : 	m_pSymbolTool(NULL),

  0005c	c7 46 24 00 00
	00 00		 mov	 DWORD PTR [esi+36], 0

; 102  : {	

  00063	e8 00 00 00 00	 call	 ??0CSymbolData@@QAE@XZ	; CSymbolData::CSymbolData
  00068	8d 8e 28 01 00
	00		 lea	 ecx, DWORD PTR [esi+296]
  0006e	c7 45 fc 00 00
	00 00		 mov	 DWORD PTR __$EHRec$[ebp+8], 0
  00075	e8 00 00 00 00	 call	 ??0CSymbolSingleton@@QAE@XZ ; CSymbolSingleton::CSymbolSingleton

; 103  : 	m_pIChartOCX = NULL;

  0007a	c7 46 08 00 00
	00 00		 mov	 DWORD PTR [esi+8], 0

; 104  : 	m_ptOldMouse = CPoint(-1,-1);	
; 105  : 
; 106  : 	// 2011.02.07 by SYS >>  YYYY()  : / 14Byte  (YYYYMMDDhhmmss)
; 107  : 	m_ptOldLBtnUp	= CPoint(-1,-1);
; 108  : 	m_eScaleType	= CScaleBaseData::HORZ_DAILY;
; 109  : 	// 2011.02.07 by SYS <<
; 110  : }

  00081	8b c6		 mov	 eax, esi
  00083	c7 46 0c ff ff
	ff ff		 mov	 DWORD PTR [esi+12], -1
  0008a	c7 46 10 ff ff
	ff ff		 mov	 DWORD PTR [esi+16], -1
  00091	c7 46 14 ff ff
	ff ff		 mov	 DWORD PTR [esi+20], -1
  00098	c7 46 18 ff ff
	ff ff		 mov	 DWORD PTR [esi+24], -1
  0009f	c7 46 04 01 00
	00 00		 mov	 DWORD PTR [esi+4], 1
  000a6	8b 4d f4	 mov	 ecx, DWORD PTR __$EHRec$[ebp]
  000a9	64 89 0d 00 00
	00 00		 mov	 DWORD PTR fs:0, ecx
  000b0	59		 pop	 ecx
  000b1	5e		 pop	 esi
  000b2	8b e5		 mov	 esp, ebp
  000b4	5d		 pop	 ebp
  000b5	c3		 ret	 0
_TEXT	ENDS
;	COMDAT text$x
text$x	SEGMENT
__unwindfunclet$??0CMainSymbolImplementation@@QAE@XZ$0:
  00000	8b 4d f0	 mov	 ecx, DWORD PTR _this$[ebp]
  00003	83 c1 28	 add	 ecx, 40			; 00000028H
  00006	e9 00 00 00 00	 jmp	 ??1CSymbolData@@QAE@XZ	; CSymbolData::~CSymbolData
  0000b	cc		 int	 3
  0000c	cc		 int	 3
  0000d	cc		 int	 3
  0000e	cc		 int	 3
  0000f	cc		 int	 3
__ehhandler$??0CMainSymbolImplementation@@QAE@XZ:
  00010	90		 npad	 1
  00011	90		 npad	 1
  00012	8b 54 24 08	 mov	 edx, DWORD PTR [esp+8]
  00016	8d 42 0c	 lea	 eax, DWORD PTR [edx+12]
  00019	8b 4a f4	 mov	 ecx, DWORD PTR [edx-12]
  0001c	33 c8		 xor	 ecx, eax
  0001e	e8 00 00 00 00	 call	 @__security_check_cookie@4
  00023	b8 00 00 00 00	 mov	 eax, OFFSET __ehfuncinfo$??0CMainSymbolImplementation@@QAE@XZ
  00028	e9 00 00 00 00	 jmp	 ___CxxFrameHandler3
text$x	ENDS
??0CMainSymbolImplementation@@QAE@XZ ENDP		; CMainSymbolImplementation::CMainSymbolImplementation
; Function compile flags: /Ogtp
; File C:\Program Files (x86)\Microsoft Visual Studio\2019\Community\VC\Tools\MSVC\14.29.30133\atlmfc\include\afxtempl.h
; File C:\Program Files (x86)\Microsoft Visual Studio\2019\Community\VC\Tools\MSVC\14.29.30133\atlmfc\include\afx.inl
;	COMDAT ??_G?$CList@PAVCUndo_Redo_Info@@PAV1@@@UAEPAXI@Z
_TEXT	SEGMENT
__$EHRec$ = -12						; size = 12
___flags$ = 8						; size = 4
??_G?$CList@PAVCUndo_Redo_Info@@PAV1@@@UAEPAXI@Z PROC	; CList<CUndo_Redo_Info *,CUndo_Redo_Info *>::`scalar deleting destructor', COMDAT
; _this$ = ecx
  00000	55		 push	 ebp
  00001	8b ec		 mov	 ebp, esp
  00003	6a ff		 push	 -1
  00005	68 00 00 00 00	 push	 __ehhandler$??_G?$CList@PAVCUndo_Redo_Info@@PAV1@@@UAEPAXI@Z
  0000a	64 a1 00 00 00
	00		 mov	 eax, DWORD PTR fs:0
  00010	50		 push	 eax
  00011	56		 push	 esi
  00012	a1 00 00 00 00	 mov	 eax, DWORD PTR ___security_cookie
  00017	33 c5		 xor	 eax, ebp
  00019	50		 push	 eax
  0001a	8d 45 f4	 lea	 eax, DWORD PTR __$EHRec$[ebp]
  0001d	64 a3 00 00 00
	00		 mov	 DWORD PTR fs:0, eax
  00023	8b f1		 mov	 esi, ecx
; File C:\Program Files (x86)\Microsoft Visual Studio\2019\Community\VC\Tools\MSVC\14.29.30133\atlmfc\include\afxtempl.h

; 872  : 	m_pBlocks->FreeDataChain();

  00025	8b 4e 14	 mov	 ecx, DWORD PTR [esi+20]

; 878  : {

  00028	c7 45 fc 00 00
	00 00		 mov	 DWORD PTR __$EHRec$[ebp+8], 0
  0002f	c7 06 00 00 00
	00		 mov	 DWORD PTR [esi], OFFSET ??_7?$CList@PAVCUndo_Redo_Info@@PAV1@@@6B@

; 870  : 	m_nCount = 0;

  00035	c7 46 0c 00 00
	00 00		 mov	 DWORD PTR [esi+12], 0

; 871  : 	m_pNodeHead = m_pNodeTail = m_pNodeFree = NULL;

  0003c	c7 46 10 00 00
	00 00		 mov	 DWORD PTR [esi+16], 0
  00043	c7 46 08 00 00
	00 00		 mov	 DWORD PTR [esi+8], 0
  0004a	c7 46 04 00 00
	00 00		 mov	 DWORD PTR [esi+4], 0

; 872  : 	m_pBlocks->FreeDataChain();

  00051	e8 00 00 00 00	 call	 ?FreeDataChain@CPlex@@QAEXXZ ; CPlex::FreeDataChain

; 873  : 	m_pBlocks = NULL;

  00056	8b 45 08	 mov	 eax, DWORD PTR ___flags$[ebp]
  00059	c7 46 14 00 00
	00 00		 mov	 DWORD PTR [esi+20], 0
  00060	a8 01		 test	 al, 1
  00062	74 2c		 je	 SHORT $LN22@scalar
  00064	a8 04		 test	 al, 4
  00066	75 1d		 jne	 SHORT $LN3@scalar
; File C:\Program Files (x86)\Microsoft Visual Studio\2019\Community\VC\Tools\MSVC\14.29.30133\atlmfc\include\afx.inl

; 112  : 	{ ::operator delete(p); }

  00068	56		 push	 esi
  00069	e8 00 00 00 00	 call	 ??3@YAXPAX@Z		; operator delete
  0006e	83 c4 04	 add	 esp, 4
  00071	8b c6		 mov	 eax, esi
  00073	8b 4d f4	 mov	 ecx, DWORD PTR __$EHRec$[ebp]
  00076	64 89 0d 00 00
	00 00		 mov	 DWORD PTR fs:0, ecx
  0007d	59		 pop	 ecx
  0007e	5e		 pop	 esi
  0007f	8b e5		 mov	 esp, ebp
  00081	5d		 pop	 ebp
  00082	c2 04 00	 ret	 4
$LN3@scalar:
  00085	6a 1c		 push	 28			; 0000001cH
  00087	56		 push	 esi
  00088	e8 00 00 00 00	 call	 ?__global_delete@@YAXPAXI@Z ; __global_delete
  0008d	83 c4 08	 add	 esp, 8
$LN22@scalar:
  00090	8b c6		 mov	 eax, esi
  00092	8b 4d f4	 mov	 ecx, DWORD PTR __$EHRec$[ebp]
  00095	64 89 0d 00 00
	00 00		 mov	 DWORD PTR fs:0, ecx
  0009c	59		 pop	 ecx
  0009d	5e		 pop	 esi
  0009e	8b e5		 mov	 esp, ebp
  000a0	5d		 pop	 ebp
  000a1	c2 04 00	 ret	 4
  000a4	cc		 int	 3
  000a5	cc		 int	 3
  000a6	cc		 int	 3
  000a7	cc		 int	 3
  000a8	cc		 int	 3
_TEXT	ENDS
;	COMDAT text$x
text$x	SEGMENT
__ehhandler$??_G?$CList@PAVCUndo_Redo_Info@@PAV1@@@UAEPAXI@Z:
  00000	90		 npad	 1
  00001	90		 npad	 1
  00002	8b 54 24 08	 mov	 edx, DWORD PTR [esp+8]
  00006	8d 42 0c	 lea	 eax, DWORD PTR [edx+12]
  00009	8b 4a f8	 mov	 ecx, DWORD PTR [edx-8]
  0000c	33 c8		 xor	 ecx, eax
  0000e	e8 00 00 00 00	 call	 @__security_check_cookie@4
  00013	b8 00 00 00 00	 mov	 eax, OFFSET __ehfuncinfo$??_G?$CList@PAVCUndo_Redo_Info@@PAV1@@@UAEPAXI@Z
  00018	e9 00 00 00 00	 jmp	 ___CxxFrameHandler3
text$x	ENDS
??_G?$CList@PAVCUndo_Redo_Info@@PAV1@@@UAEPAXI@Z ENDP	; CList<CUndo_Redo_Info *,CUndo_Redo_Info *>::`scalar deleting destructor'
; Function compile flags: /Ogtp
; File C:\Program Files (x86)\Microsoft Visual Studio\2019\Community\VC\Tools\MSVC\14.29.30133\atlmfc\include\afxtempl.h
; File C:\Program Files (x86)\Microsoft Visual Studio\2019\Community\VC\Tools\MSVC\14.29.30133\atlmfc\include\afx.inl
; File C:\Program Files (x86)\Microsoft Visual Studio\2019\Community\VC\Tools\MSVC\14.29.30133\atlmfc\include\afxtempl.h
; File C:\Program Files (x86)\Microsoft Visual Studio\2019\Community\VC\Tools\MSVC\14.29.30133\atlmfc\include\afx.inl
; File C:\Program Files (x86)\Microsoft Visual Studio\2019\Community\VC\Tools\MSVC\14.29.30133\atlmfc\include\afxtempl.h
; File C:\Program Files (x86)\Microsoft Visual Studio\2019\Community\VC\Tools\MSVC\14.29.30133\atlmfc\include\afx.inl
; File C:\Program Files (x86)\Microsoft Visual Studio\2019\Community\VC\Tools\MSVC\14.29.30133\atlmfc\include\afxtempl.h
; File C:\Program Files (x86)\Microsoft Visual Studio\2019\Community\VC\Tools\MSVC\14.29.30133\atlmfc\include\afx.inl
; File C:\Program Files (x86)\Microsoft Visual Studio\2019\Community\VC\Tools\MSVC\14.29.30133\atlmfc\include\afxtempl.h
; File C:\Program Files (x86)\Microsoft Visual Studio\2019\Community\VC\Tools\MSVC\14.29.30133\atlmfc\include\afx.inl
; File C:\Program Files (x86)\Microsoft Visual Studio\2019\Community\VC\Tools\MSVC\14.29.30133\atlmfc\include\afxtempl.h
; File C:\Program Files (x86)\Microsoft Visual Studio\2019\Community\VC\Tools\MSVC\14.29.30133\atlmfc\include\afx.inl
; File C:\Program Files (x86)\Microsoft Visual Studio\2019\Community\VC\Tools\MSVC\14.29.30133\atlmfc\include\afxtempl.h
;	COMDAT ?Serialize@?$CList@PAVCUndo_Redo_Info@@PAV1@@@UAEXAAVCArchive@@@Z
_TEXT	SEGMENT
_nNewCount$1$ = -16					; size = 4
_newData$1 = -12					; size = 4
_pData$1$ = -8						; size = 4
_pData$1$ = -8						; size = 4
_pNode$1$ = -8						; size = 4
_nElementsLeft$1$ = -4					; size = 4
_this$1$ = -4						; size = 4
_ar$ = 8						; size = 4
?Serialize@?$CList@PAVCUndo_Redo_Info@@PAV1@@@UAEXAAVCArchive@@@Z PROC ; CList<CUndo_Redo_Info *,CUndo_Redo_Info *>::Serialize, COMDAT
; _this$ = ecx

; 1169 : {

  00000	55		 push	 ebp
  00001	8b ec		 mov	 ebp, esp
  00003	83 ec 10	 sub	 esp, 16			; 00000010H
  00006	53		 push	 ebx
  00007	8b d9		 mov	 ebx, ecx
; File C:\Program Files (x86)\Microsoft Visual Studio\2019\Community\VC\Tools\MSVC\14.29.30133\atlmfc\include\afx.inl

; 212  : 	{ return (m_nMode & CArchive::load) == 0; }

  00009	8b 4d 08	 mov	 ecx, DWORD PTR _ar$[ebp]
; File C:\Program Files (x86)\Microsoft Visual Studio\2019\Community\VC\Tools\MSVC\14.29.30133\atlmfc\include\afxtempl.h

; 1169 : {

  0000c	56		 push	 esi
  0000d	57		 push	 edi
  0000e	89 5d fc	 mov	 DWORD PTR _this$1$[ebp], ebx
; File C:\Program Files (x86)\Microsoft Visual Studio\2019\Community\VC\Tools\MSVC\14.29.30133\atlmfc\include\afx.inl

; 212  : 	{ return (m_nMode & CArchive::load) == 0; }

  00011	8b 41 18	 mov	 eax, DWORD PTR [ecx+24]
  00014	f7 d0		 not	 eax
  00016	a8 01		 test	 al, 1
; File C:\Program Files (x86)\Microsoft Visual Studio\2019\Community\VC\Tools\MSVC\14.29.30133\atlmfc\include\afxtempl.h

; 1174 : 	if (ar.IsStoring())

  00018	0f 84 ae 00 00
	00		 je	 $LN7@Serialize

; 1175 : 	{
; 1176 : 		ar.WriteCount(m_nCount);

  0001e	ff 73 0c	 push	 DWORD PTR [ebx+12]
  00021	e8 00 00 00 00	 call	 ?WriteCount@CArchive@@QAEXK@Z ; CArchive::WriteCount

; 1177 : 		for (CNode* pNode = m_pNodeHead; pNode != NULL; pNode = pNode->pNext)

  00026	8b 43 04	 mov	 eax, DWORD PTR [ebx+4]
  00029	89 45 f8	 mov	 DWORD PTR _pNode$1$[ebp], eax
  0002c	85 c0		 test	 eax, eax
  0002e	0f 84 b9 01 00
	00		 je	 $LN86@Serialize
$LL4@Serialize:

; 1178 : 		{
; 1179 : 			ASSERT(AfxIsValidAddress(pNode, sizeof(CNode)));
; 1180 : 			TYPE* pData;
; 1181 : 			/*
; 1182 : 			 * in some cases the & operator might be overloaded, and we cannot use it to obtain
; 1183 : 			 * the address of a given object.  We then use the following trick to get the address
; 1184 : 			 */
; 1185 : 			pData = reinterpret_cast< TYPE* >( &reinterpret_cast< int& >( static_cast< TYPE& >( pNode->data ) ) );

  00034	8d 70 08	 lea	 esi, DWORD PTR [eax+8]

; 68   : 	ENSURE(nCount == 0 || pElements != NULL);

  00037	85 f6		 test	 esi, esi
  00039	0f 84 c0 01 00
	00		 je	 $LN76@Serialize
; File C:\Program Files (x86)\Microsoft Visual Studio\2019\Community\VC\Tools\MSVC\14.29.30133\atlmfc\include\afx.inl

; 212  : 	{ return (m_nMode & CArchive::load) == 0; }

  0003f	8b 4d 08	 mov	 ecx, DWORD PTR _ar$[ebp]
  00042	8b 41 18	 mov	 eax, DWORD PTR [ecx+24]
  00045	f7 d0		 not	 eax
  00047	a8 01		 test	 al, 1
; File C:\Program Files (x86)\Microsoft Visual Studio\2019\Community\VC\Tools\MSVC\14.29.30133\atlmfc\include\afxtempl.h

; 73   : 	if (ar.IsStoring())

  00049	74 33		 je	 SHORT $LN21@Serialize

; 74   : 	{
; 75   : 		TYPE* pData;
; 76   : 		UINT_PTR nElementsLeft;
; 77   : 
; 78   : 		nElementsLeft = nCount;

  0004b	b8 01 00 00 00	 mov	 eax, 1
  00050	89 45 fc	 mov	 DWORD PTR _nElementsLeft$1$[ebp], eax
$LL16@Serialize:

; 80   : 		while( nElementsLeft > 0 )
; 81   : 		{
; 82   : 			UINT nElementsToWrite;
; 83   : 
; 84   : 			nElementsToWrite = UINT(__min(nElementsLeft, INT_MAX/sizeof(TYPE)));

  00053	bb ff ff ff 1f	 mov	 ebx, 536870911		; 1fffffffH
  00058	3b c3		 cmp	 eax, ebx
  0005a	0f 42 d8	 cmovb	 ebx, eax

; 85   : 			ar.Write(pData, nElementsToWrite*sizeof(TYPE));

  0005d	8d 3c 9d 00 00
	00 00		 lea	 edi, DWORD PTR [ebx*4]
  00064	57		 push	 edi
  00065	56		 push	 esi
  00066	e8 00 00 00 00	 call	 ?Write@CArchive@@QAEXPBXI@Z ; CArchive::Write

; 86   : 			nElementsLeft -= nElementsToWrite;

  0006b	8b 45 fc	 mov	 eax, DWORD PTR _nElementsLeft$1$[ebp]

; 87   : 			pData += nElementsToWrite;

  0006e	03 f7		 add	 esi, edi
  00070	8b 4d 08	 mov	 ecx, DWORD PTR _ar$[ebp]
  00073	2b c3		 sub	 eax, ebx
  00075	89 45 fc	 mov	 DWORD PTR _nElementsLeft$1$[ebp], eax
  00078	85 c0		 test	 eax, eax
  0007a	75 d7		 jne	 SHORT $LL16@Serialize

; 88   : 		}
; 89   : 	}

  0007c	eb 35		 jmp	 SHORT $LN2@Serialize
$LN21@Serialize:

; 90   : 	else
; 91   : 	{
; 92   : 		TYPE* pData;
; 93   : 		UINT_PTR nElementsLeft;
; 94   : 
; 95   : 		nElementsLeft = nCount;

  0007e	bf 01 00 00 00	 mov	 edi, 1
$LL18@Serialize:

; 98   : 		{
; 99   : 			UINT nElementsToRead;
; 100  : 
; 101  : 			nElementsToRead = UINT(__min(nElementsLeft, INT_MAX/sizeof(TYPE)));

  00083	bb ff ff ff 1f	 mov	 ebx, 536870911		; 1fffffffH
  00088	3b fb		 cmp	 edi, ebx
  0008a	0f 42 df	 cmovb	 ebx, edi

; 102  : 			ar.EnsureRead(pData, nElementsToRead*sizeof(TYPE));

  0008d	8d 04 9d 00 00
	00 00		 lea	 eax, DWORD PTR [ebx*4]
; File C:\Program Files (x86)\Microsoft Visual Studio\2019\Community\VC\Tools\MSVC\14.29.30133\atlmfc\include\afx.inl

; 399  : 	UINT nRead=Read(lpBuf, nCount);

  00094	50		 push	 eax
  00095	56		 push	 esi
  00096	e8 00 00 00 00	 call	 ?Read@CArchive@@QAEIPAXI@Z ; CArchive::Read

; 400  : 	if(nRead!=nCount)

  0009b	8d 0c 9d 00 00
	00 00		 lea	 ecx, DWORD PTR [ebx*4]
  000a2	3b c1		 cmp	 eax, ecx
  000a4	0f 85 4c 01 00
	00		 jne	 $LN75@Serialize
; File C:\Program Files (x86)\Microsoft Visual Studio\2019\Community\VC\Tools\MSVC\14.29.30133\atlmfc\include\afxtempl.h

; 97   : 		while( nElementsLeft > 0 )

  000aa	03 f1		 add	 esi, ecx
  000ac	8b 4d 08	 mov	 ecx, DWORD PTR _ar$[ebp]

; 103  : 			nElementsLeft -= nElementsToRead;

  000af	2b fb		 sub	 edi, ebx
  000b1	75 d0		 jne	 SHORT $LL18@Serialize
$LN2@Serialize:

; 1177 : 		for (CNode* pNode = m_pNodeHead; pNode != NULL; pNode = pNode->pNext)

  000b3	8b 45 f8	 mov	 eax, DWORD PTR _pNode$1$[ebp]
  000b6	8b 00		 mov	 eax, DWORD PTR [eax]
  000b8	89 45 f8	 mov	 DWORD PTR _pNode$1$[ebp], eax
  000bb	85 c0		 test	 eax, eax
  000bd	0f 85 71 ff ff
	ff		 jne	 $LL4@Serialize

; 1197 : 		}
; 1198 : 	}
; 1199 : }

  000c3	5f		 pop	 edi
  000c4	5e		 pop	 esi
  000c5	5b		 pop	 ebx
  000c6	8b e5		 mov	 esp, ebp
  000c8	5d		 pop	 ebp
  000c9	c2 04 00	 ret	 4
$LN7@Serialize:

; 1186 : 			SerializeElements<TYPE>(ar, pData, 1);
; 1187 : 		}
; 1188 : 	}
; 1189 : 	else
; 1190 : 	{
; 1191 : 		DWORD_PTR nNewCount = ar.ReadCount();

  000cc	e8 00 00 00 00	 call	 ?ReadCount@CArchive@@QAEKXZ ; CArchive::ReadCount

; 1192 : 		while (nNewCount--)

  000d1	85 c0		 test	 eax, eax
  000d3	0f 84 14 01 00
	00		 je	 $LN86@Serialize
  000d9	0f 1f 80 00 00
	00 00		 npad	 7
$LL5@Serialize:
  000e0	48		 dec	 eax
  000e1	89 45 f0	 mov	 DWORD PTR _nNewCount$1$[ebp], eax
; File C:\Program Files (x86)\Microsoft Visual Studio\2019\Community\VC\Tools\MSVC\14.29.30133\atlmfc\include\afx.inl

; 212  : 	{ return (m_nMode & CArchive::load) == 0; }

  000e4	8b 45 08	 mov	 eax, DWORD PTR _ar$[ebp]
  000e7	8b 48 18	 mov	 ecx, DWORD PTR [eax+24]
  000ea	f7 d1		 not	 ecx
  000ec	f6 c1 01	 test	 cl, 1
; File C:\Program Files (x86)\Microsoft Visual Studio\2019\Community\VC\Tools\MSVC\14.29.30133\atlmfc\include\afxtempl.h

; 73   : 	if (ar.IsStoring())

  000ef	74 3d		 je	 SHORT $LN42@Serialize

; 79   : 		pData = pElements;

  000f1	8d 4d f4	 lea	 ecx, DWORD PTR _newData$1[ebp]
  000f4	bb 01 00 00 00	 mov	 ebx, 1
  000f9	89 4d f8	 mov	 DWORD PTR _pData$1$[ebp], ecx
  000fc	0f 1f 40 00	 npad	 4
$LL37@Serialize:

; 80   : 		while( nElementsLeft > 0 )
; 81   : 		{
; 82   : 			UINT nElementsToWrite;
; 83   : 
; 84   : 			nElementsToWrite = UINT(__min(nElementsLeft, INT_MAX/sizeof(TYPE)));

  00100	bf ff ff ff 1f	 mov	 edi, 536870911		; 1fffffffH
  00105	3b df		 cmp	 ebx, edi
  00107	0f 42 fb	 cmovb	 edi, ebx

; 85   : 			ar.Write(pData, nElementsToWrite*sizeof(TYPE));

  0010a	8d 34 bd 00 00
	00 00		 lea	 esi, DWORD PTR [edi*4]
  00111	56		 push	 esi
  00112	51		 push	 ecx
  00113	8b c8		 mov	 ecx, eax
  00115	e8 00 00 00 00	 call	 ?Write@CArchive@@QAEXPBXI@Z ; CArchive::Write

; 87   : 			pData += nElementsToWrite;

  0011a	8b 4d f8	 mov	 ecx, DWORD PTR _pData$1$[ebp]
  0011d	8b 45 08	 mov	 eax, DWORD PTR _ar$[ebp]
  00120	03 ce		 add	 ecx, esi
  00122	89 4d f8	 mov	 DWORD PTR _pData$1$[ebp], ecx
  00125	2b df		 sub	 ebx, edi
  00127	75 d7		 jne	 SHORT $LL37@Serialize

; 88   : 		}
; 89   : 	}

  00129	8b 5d fc	 mov	 ebx, DWORD PTR _this$1$[ebp]
  0012c	eb 4a		 jmp	 SHORT $LN40@Serialize
$LN42@Serialize:

; 96   : 		pData = pElements;

  0012e	8d 55 f4	 lea	 edx, DWORD PTR _newData$1[ebp]
  00131	be 01 00 00 00	 mov	 esi, 1
  00136	89 55 f8	 mov	 DWORD PTR _pData$1$[ebp], edx
  00139	0f 1f 80 00 00
	00 00		 npad	 7
$LL39@Serialize:

; 98   : 		{
; 99   : 			UINT nElementsToRead;
; 100  : 
; 101  : 			nElementsToRead = UINT(__min(nElementsLeft, INT_MAX/sizeof(TYPE)));

  00140	bf ff ff ff 1f	 mov	 edi, 536870911		; 1fffffffH
  00145	3b f7		 cmp	 esi, edi
  00147	0f 42 fe	 cmovb	 edi, esi

; 102  : 			ar.EnsureRead(pData, nElementsToRead*sizeof(TYPE));

  0014a	8d 0c bd 00 00
	00 00		 lea	 ecx, DWORD PTR [edi*4]
; File C:\Program Files (x86)\Microsoft Visual Studio\2019\Community\VC\Tools\MSVC\14.29.30133\atlmfc\include\afx.inl

; 399  : 	UINT nRead=Read(lpBuf, nCount);

  00151	51		 push	 ecx
  00152	52		 push	 edx
  00153	8b c8		 mov	 ecx, eax
  00155	e8 00 00 00 00	 call	 ?Read@CArchive@@QAEIPAXI@Z ; CArchive::Read

; 400  : 	if(nRead!=nCount)

  0015a	8d 0c bd 00 00
	00 00		 lea	 ecx, DWORD PTR [edi*4]
  00161	3b c1		 cmp	 eax, ecx
  00163	0f 85 8d 00 00
	00		 jne	 $LN75@Serialize
; File C:\Program Files (x86)\Microsoft Visual Studio\2019\Community\VC\Tools\MSVC\14.29.30133\atlmfc\include\afxtempl.h

; 97   : 		while( nElementsLeft > 0 )

  00169	8b 55 f8	 mov	 edx, DWORD PTR _pData$1$[ebp]
  0016c	8b 45 08	 mov	 eax, DWORD PTR _ar$[ebp]

; 104  : 			pData += nElementsToRead;

  0016f	03 d1		 add	 edx, ecx
  00171	89 55 f8	 mov	 DWORD PTR _pData$1$[ebp], edx
  00174	2b f7		 sub	 esi, edi
  00176	75 c8		 jne	 SHORT $LL39@Serialize
$LN40@Serialize:

; 902  : 	if (m_pNodeFree == NULL)

  00178	83 7b 10 00	 cmp	 DWORD PTR [ebx+16], 0

; 1193 : 		{
; 1194 : 			TYPE newData[1];
; 1195 : 			SerializeElements<TYPE>(ar, newData, 1);
; 1196 : 			AddTail(newData[0]);

  0017c	8b 75 f4	 mov	 esi, DWORD PTR _newData$1[ebp]

; 968  : 	CNode* pNewNode = NewNode(m_pNodeTail, NULL);

  0017f	8b 7b 08	 mov	 edi, DWORD PTR [ebx+8]

; 902  : 	if (m_pNodeFree == NULL)

  00182	75 32		 jne	 SHORT $LN63@Serialize

; 903  : 	{
; 904  : 		// add another block
; 905  : 		CPlex* pNewBlock = CPlex::Create(m_pBlocks, m_nBlockSize,

  00184	6a 0c		 push	 12			; 0000000cH
  00186	ff 73 18	 push	 DWORD PTR [ebx+24]
  00189	8d 43 14	 lea	 eax, DWORD PTR [ebx+20]
  0018c	50		 push	 eax
  0018d	e8 00 00 00 00	 call	 ?Create@CPlex@@SGPAU1@AAPAU1@II@Z ; CPlex::Create

; 906  : 				 sizeof(CNode));
; 907  : 
; 908  : 		// chain them into free list
; 909  : 		CNode* pNode = (CNode*) pNewBlock->data();
; 910  : 		// free in reverse order to make it easier to debug
; 911  : 		pNode += m_nBlockSize - 1;

  00192	8b 53 18	 mov	 edx, DWORD PTR [ebx+24]
  00195	83 c0 08	 add	 eax, 8
  00198	8d 4a ff	 lea	 ecx, DWORD PTR [edx-1]

; 912  : 		for (INT_PTR i = m_nBlockSize-1; i >= 0; i--, pNode--)

  0019b	83 c2 ff	 add	 edx, -1
  0019e	8d 0c 49	 lea	 ecx, DWORD PTR [ecx+ecx*2]
  001a1	8d 0c 88	 lea	 ecx, DWORD PTR [eax+ecx*4]
  001a4	78 10		 js	 SHORT $LN63@Serialize
$LL60@Serialize:

; 913  : 		{
; 914  : 			pNode->pNext = m_pNodeFree;

  001a6	8b 43 10	 mov	 eax, DWORD PTR [ebx+16]
  001a9	89 01		 mov	 DWORD PTR [ecx], eax

; 915  : 			m_pNodeFree = pNode;

  001ab	89 4b 10	 mov	 DWORD PTR [ebx+16], ecx
  001ae	83 e9 0c	 sub	 ecx, 12			; 0000000cH
  001b1	83 ea 01	 sub	 edx, 1
  001b4	79 f0		 jns	 SHORT $LL60@Serialize
$LN63@Serialize:

; 916  : 		}
; 917  : 	}
; 918  : 	ENSURE(m_pNodeFree != NULL);  // we must have something

  001b6	8b 4b 10	 mov	 ecx, DWORD PTR [ebx+16]
  001b9	85 c9		 test	 ecx, ecx
  001bb	74 42		 je	 SHORT $LN76@Serialize

; 919  : 
; 920  : 	CList::CNode* pNode = m_pNodeFree;
; 921  : 	m_pNodeFree = m_pNodeFree->pNext;

  001bd	8b 01		 mov	 eax, DWORD PTR [ecx]
  001bf	89 43 10	 mov	 DWORD PTR [ebx+16], eax

; 922  : 	pNode->pPrev = pPrev;

  001c2	89 79 04	 mov	 DWORD PTR [ecx+4], edi

; 923  : 	pNode->pNext = pNext;

  001c5	c7 01 00 00 00
	00		 mov	 DWORD PTR [ecx], 0

; 924  : 	m_nCount++;

  001cb	ff 43 0c	 inc	 DWORD PTR [ebx+12]

; 969  : 	pNewNode->data = newElement;

  001ce	89 71 08	 mov	 DWORD PTR [ecx+8], esi

; 970  : 	if (m_pNodeTail != NULL)

  001d1	8b 43 08	 mov	 eax, DWORD PTR [ebx+8]
  001d4	85 c0		 test	 eax, eax
  001d6	74 04		 je	 SHORT $LN54@Serialize

; 971  : 		m_pNodeTail->pNext = pNewNode;

  001d8	89 08		 mov	 DWORD PTR [eax], ecx
  001da	eb 03		 jmp	 SHORT $LN55@Serialize
$LN54@Serialize:

; 972  : 	else
; 973  : 		m_pNodeHead = pNewNode;

  001dc	89 4b 04	 mov	 DWORD PTR [ebx+4], ecx
$LN55@Serialize:

; 1192 : 		while (nNewCount--)

  001df	8b 45 f0	 mov	 eax, DWORD PTR _nNewCount$1$[ebp]

; 974  : 	m_pNodeTail = pNewNode;

  001e2	89 4b 08	 mov	 DWORD PTR [ebx+8], ecx

; 1192 : 		while (nNewCount--)

  001e5	85 c0		 test	 eax, eax
  001e7	0f 85 f3 fe ff
	ff		 jne	 $LL5@Serialize
$LN86@Serialize:
  001ed	5f		 pop	 edi

; 1197 : 		}
; 1198 : 	}
; 1199 : }

  001ee	5e		 pop	 esi
  001ef	5b		 pop	 ebx
  001f0	8b e5		 mov	 esp, ebp
  001f2	5d		 pop	 ebp
  001f3	c2 04 00	 ret	 4
$LN75@Serialize:
  001f6	6a 00		 push	 0
  001f8	6a 03		 push	 3
  001fa	e8 00 00 00 00	 call	 ?AfxThrowArchiveException@@YGXHPBD@Z ; AfxThrowArchiveException
$LN76@Serialize:
  001ff	e8 00 00 00 00	 call	 ?AfxThrowInvalidArgException@@YGXXZ ; AfxThrowInvalidArgException
$LN105@Serialize:
  00204	cc		 int	 3
?Serialize@?$CList@PAVCUndo_Redo_Info@@PAV1@@@UAEXAAVCArchive@@@Z ENDP ; CList<CUndo_Redo_Info *,CUndo_Redo_Info *>::Serialize
_TEXT	ENDS
; Function compile flags: /Ogtp
; File C:\Program Files (x86)\Microsoft Visual Studio\2019\Community\VC\Tools\MSVC\14.29.30133\atlmfc\include\afxtempl.h
;	COMDAT ??1?$CList@PAVCUndo_Redo_Info@@PAV1@@@UAE@XZ
_TEXT	SEGMENT
__$EHRec$ = -12						; size = 12
??1?$CList@PAVCUndo_Redo_Info@@PAV1@@@UAE@XZ PROC	; CList<CUndo_Redo_Info *,CUndo_Redo_Info *>::~CList<CUndo_Redo_Info *,CUndo_Redo_Info *>, COMDAT
; _this$ = ecx

; 878  : {

  00000	55		 push	 ebp
  00001	8b ec		 mov	 ebp, esp
  00003	6a ff		 push	 -1
  00005	68 00 00 00 00	 push	 __ehhandler$??1?$CList@PAVCUndo_Redo_Info@@PAV1@@@UAE@XZ
  0000a	64 a1 00 00 00
	00		 mov	 eax, DWORD PTR fs:0
  00010	50		 push	 eax
  00011	56		 push	 esi
  00012	a1 00 00 00 00	 mov	 eax, DWORD PTR ___security_cookie
  00017	33 c5		 xor	 eax, ebp
  00019	50		 push	 eax
  0001a	8d 45 f4	 lea	 eax, DWORD PTR __$EHRec$[ebp]
  0001d	64 a3 00 00 00
	00		 mov	 DWORD PTR fs:0, eax
  00023	8b f1		 mov	 esi, ecx

; 872  : 	m_pBlocks->FreeDataChain();

  00025	8b 4e 14	 mov	 ecx, DWORD PTR [esi+20]

; 878  : {

  00028	c7 06 00 00 00
	00		 mov	 DWORD PTR [esi], OFFSET ??_7?$CList@PAVCUndo_Redo_Info@@PAV1@@@6B@

; 870  : 	m_nCount = 0;

  0002e	c7 46 0c 00 00
	00 00		 mov	 DWORD PTR [esi+12], 0

; 871  : 	m_pNodeHead = m_pNodeTail = m_pNodeFree = NULL;

  00035	c7 46 10 00 00
	00 00		 mov	 DWORD PTR [esi+16], 0
  0003c	c7 46 08 00 00
	00 00		 mov	 DWORD PTR [esi+8], 0
  00043	c7 46 04 00 00
	00 00		 mov	 DWORD PTR [esi+4], 0

; 872  : 	m_pBlocks->FreeDataChain();

  0004a	e8 00 00 00 00	 call	 ?FreeDataChain@CPlex@@QAEXXZ ; CPlex::FreeDataChain

; 873  : 	m_pBlocks = NULL;

  0004f	c7 46 14 00 00
	00 00		 mov	 DWORD PTR [esi+20], 0

; 879  : 	RemoveAll();
; 880  : 	ASSERT(m_nCount == 0);
; 881  : }

  00056	8b 4d f4	 mov	 ecx, DWORD PTR __$EHRec$[ebp]
  00059	64 89 0d 00 00
	00 00		 mov	 DWORD PTR fs:0, ecx
  00060	59		 pop	 ecx
  00061	5e		 pop	 esi
  00062	8b e5		 mov	 esp, ebp
  00064	5d		 pop	 ebp
  00065	c3		 ret	 0
  00066	cc		 int	 3
  00067	cc		 int	 3
  00068	cc		 int	 3
  00069	cc		 int	 3
  0006a	cc		 int	 3
_TEXT	ENDS
;	COMDAT text$x
text$x	SEGMENT
__ehhandler$??1?$CList@PAVCUndo_Redo_Info@@PAV1@@@UAE@XZ:
  00000	90		 npad	 1
  00001	90		 npad	 1
  00002	8b 54 24 08	 mov	 edx, DWORD PTR [esp+8]
  00006	8d 42 0c	 lea	 eax, DWORD PTR [edx+12]
  00009	8b 4a f8	 mov	 ecx, DWORD PTR [edx-8]
  0000c	33 c8		 xor	 ecx, eax
  0000e	e8 00 00 00 00	 call	 @__security_check_cookie@4
  00013	b8 00 00 00 00	 mov	 eax, OFFSET __ehfuncinfo$??1?$CList@PAVCUndo_Redo_Info@@PAV1@@@UAE@XZ
  00018	e9 00 00 00 00	 jmp	 ___CxxFrameHandler3
text$x	ENDS
??1?$CList@PAVCUndo_Redo_Info@@PAV1@@@UAE@XZ ENDP	; CList<CUndo_Redo_Info *,CUndo_Redo_Info *>::~CList<CUndo_Redo_Info *,CUndo_Redo_Info *>
; Function compile flags: /Ogtp
; File C:\Program Files (x86)\Microsoft Visual Studio\2019\Community\VC\Tools\MSVC\14.29.30133\atlmfc\include\afxtempl.h
;	COMDAT ?NewNode@?$CList@PAVCUndo_Redo_Info@@PAV1@@@IAEPAUCNode@1@PAU21@0@Z
_TEXT	SEGMENT
_pPrev$ = 8						; size = 4
_pNext$ = 12						; size = 4
?NewNode@?$CList@PAVCUndo_Redo_Info@@PAV1@@@IAEPAUCNode@1@PAU21@0@Z PROC ; CList<CUndo_Redo_Info *,CUndo_Redo_Info *>::NewNode, COMDAT
; _this$ = ecx

; 901  : {

  00000	55		 push	 ebp
  00001	8b ec		 mov	 ebp, esp
  00003	56		 push	 esi
  00004	8b f1		 mov	 esi, ecx

; 902  : 	if (m_pNodeFree == NULL)

  00006	83 7e 10 00	 cmp	 DWORD PTR [esi+16], 0
  0000a	75 34		 jne	 SHORT $LN7@NewNode

; 903  : 	{
; 904  : 		// add another block
; 905  : 		CPlex* pNewBlock = CPlex::Create(m_pBlocks, m_nBlockSize,

  0000c	6a 0c		 push	 12			; 0000000cH
  0000e	ff 76 18	 push	 DWORD PTR [esi+24]
  00011	8d 46 14	 lea	 eax, DWORD PTR [esi+20]
  00014	50		 push	 eax
  00015	e8 00 00 00 00	 call	 ?Create@CPlex@@SGPAU1@AAPAU1@II@Z ; CPlex::Create

; 906  : 				 sizeof(CNode));
; 907  : 
; 908  : 		// chain them into free list
; 909  : 		CNode* pNode = (CNode*) pNewBlock->data();
; 910  : 		// free in reverse order to make it easier to debug
; 911  : 		pNode += m_nBlockSize - 1;

  0001a	8b 56 18	 mov	 edx, DWORD PTR [esi+24]
  0001d	83 c0 08	 add	 eax, 8
  00020	8d 0c 52	 lea	 ecx, DWORD PTR [edx+edx*2]
  00023	8d 04 88	 lea	 eax, DWORD PTR [eax+ecx*4]
  00026	83 c0 f4	 add	 eax, -12		; fffffff4H

; 912  : 		for (INT_PTR i = m_nBlockSize-1; i >= 0; i--, pNode--)

  00029	83 c2 ff	 add	 edx, -1
  0002c	78 12		 js	 SHORT $LN7@NewNode
  0002e	66 90		 npad	 2
$LL4@NewNode:

; 913  : 		{
; 914  : 			pNode->pNext = m_pNodeFree;

  00030	8b 4e 10	 mov	 ecx, DWORD PTR [esi+16]
  00033	89 08		 mov	 DWORD PTR [eax], ecx

; 915  : 			m_pNodeFree = pNode;

  00035	89 46 10	 mov	 DWORD PTR [esi+16], eax
  00038	83 e8 0c	 sub	 eax, 12			; 0000000cH
  0003b	83 ea 01	 sub	 edx, 1
  0003e	79 f0		 jns	 SHORT $LL4@NewNode
$LN7@NewNode:

; 916  : 		}
; 917  : 	}
; 918  : 	ENSURE(m_pNodeFree != NULL);  // we must have something

  00040	8b 46 10	 mov	 eax, DWORD PTR [esi+16]
  00043	85 c0		 test	 eax, eax
  00045	74 18		 je	 SHORT $LN17@NewNode

; 919  : 
; 920  : 	CList::CNode* pNode = m_pNodeFree;
; 921  : 	m_pNodeFree = m_pNodeFree->pNext;

  00047	8b 08		 mov	 ecx, DWORD PTR [eax]
  00049	89 4e 10	 mov	 DWORD PTR [esi+16], ecx

; 922  : 	pNode->pPrev = pPrev;

  0004c	8b 4d 08	 mov	 ecx, DWORD PTR _pPrev$[ebp]
  0004f	89 48 04	 mov	 DWORD PTR [eax+4], ecx

; 923  : 	pNode->pNext = pNext;

  00052	8b 4d 0c	 mov	 ecx, DWORD PTR _pNext$[ebp]
  00055	89 08		 mov	 DWORD PTR [eax], ecx

; 924  : 	m_nCount++;

  00057	ff 46 0c	 inc	 DWORD PTR [esi+12]

; 925  : 	ASSERT(m_nCount > 0);  // make sure we don't overflow
; 926  : 
; 927  : #pragma push_macro("new")
; 928  : #undef new
; 929  : 	::new( (void*)( &pNode->data ) ) TYPE;
; 930  : #pragma pop_macro("new")
; 931  : 	return pNode;

  0005a	5e		 pop	 esi

; 932  : }

  0005b	5d		 pop	 ebp
  0005c	c2 08 00	 ret	 8
$LN17@NewNode:

; 916  : 		}
; 917  : 	}
; 918  : 	ENSURE(m_pNodeFree != NULL);  // we must have something

  0005f	e8 00 00 00 00	 call	 ?AfxThrowInvalidArgException@@YGXXZ ; AfxThrowInvalidArgException
$LN15@NewNode:
  00064	cc		 int	 3
?NewNode@?$CList@PAVCUndo_Redo_Info@@PAV1@@@IAEPAUCNode@1@PAU21@0@Z ENDP ; CList<CUndo_Redo_Info *,CUndo_Redo_Info *>::NewNode
_TEXT	ENDS
; Function compile flags: /Ogtp
; File C:\Program Files (x86)\Microsoft Visual Studio\2019\Community\VC\Tools\MSVC\14.29.30133\atlmfc\include\afxtempl.h
;	COMDAT ?RemoveAll@?$CList@PAVCUndo_Redo_Info@@PAV1@@@QAEXXZ
_TEXT	SEGMENT
?RemoveAll@?$CList@PAVCUndo_Redo_Info@@PAV1@@@QAEXXZ PROC ; CList<CUndo_Redo_Info *,CUndo_Redo_Info *>::RemoveAll, COMDAT
; _this$ = ecx

; 862  : {

  00000	56		 push	 esi
  00001	8b f1		 mov	 esi, ecx

; 863  : 	ASSERT_VALID(this);
; 864  : 
; 865  : 	// destroy elements
; 866  : 	CNode* pNode;
; 867  : 	for (pNode = m_pNodeHead; pNode != NULL; pNode = pNode->pNext)
; 868  : 		pNode->data.~TYPE();
; 869  : 
; 870  : 	m_nCount = 0;
; 871  : 	m_pNodeHead = m_pNodeTail = m_pNodeFree = NULL;
; 872  : 	m_pBlocks->FreeDataChain();

  00003	8b 4e 14	 mov	 ecx, DWORD PTR [esi+20]
  00006	c7 46 0c 00 00
	00 00		 mov	 DWORD PTR [esi+12], 0
  0000d	c7 46 10 00 00
	00 00		 mov	 DWORD PTR [esi+16], 0
  00014	c7 46 08 00 00
	00 00		 mov	 DWORD PTR [esi+8], 0
  0001b	c7 46 04 00 00
	00 00		 mov	 DWORD PTR [esi+4], 0
  00022	e8 00 00 00 00	 call	 ?FreeDataChain@CPlex@@QAEXXZ ; CPlex::FreeDataChain

; 873  : 	m_pBlocks = NULL;

  00027	c7 46 14 00 00
	00 00		 mov	 DWORD PTR [esi+20], 0
  0002e	5e		 pop	 esi

; 874  : }

  0002f	c3		 ret	 0
?RemoveAll@?$CList@PAVCUndo_Redo_Info@@PAV1@@@QAEXXZ ENDP ; CList<CUndo_Redo_Info *,CUndo_Redo_Info *>::RemoveAll
_TEXT	ENDS
; Function compile flags: /Ogtp
; File C:\Program Files (x86)\Microsoft Visual Studio\2019\Community\VC\Tools\MSVC\14.29.30133\atlmfc\include\afxtempl.h
;	COMDAT ?AddTail@?$CList@PAVCUndo_Redo_Info@@PAV1@@@QAEPAU__POSITION@@PAVCUndo_Redo_Info@@@Z
_TEXT	SEGMENT
_newElement$ = 8					; size = 4
?AddTail@?$CList@PAVCUndo_Redo_Info@@PAV1@@@QAEPAU__POSITION@@PAVCUndo_Redo_Info@@@Z PROC ; CList<CUndo_Redo_Info *,CUndo_Redo_Info *>::AddTail, COMDAT
; _this$ = ecx

; 965  : {

  00000	55		 push	 ebp
  00001	8b ec		 mov	 ebp, esp
  00003	56		 push	 esi
  00004	8b f1		 mov	 esi, ecx
  00006	57		 push	 edi

; 902  : 	if (m_pNodeFree == NULL)

  00007	83 7e 10 00	 cmp	 DWORD PTR [esi+16], 0

; 966  : 	ASSERT_VALID(this);
; 967  : 
; 968  : 	CNode* pNewNode = NewNode(m_pNodeTail, NULL);

  0000b	8b 7e 08	 mov	 edi, DWORD PTR [esi+8]

; 902  : 	if (m_pNodeFree == NULL)

  0000e	75 32		 jne	 SHORT $LN11@AddTail

; 903  : 	{
; 904  : 		// add another block
; 905  : 		CPlex* pNewBlock = CPlex::Create(m_pBlocks, m_nBlockSize,

  00010	6a 0c		 push	 12			; 0000000cH
  00012	ff 76 18	 push	 DWORD PTR [esi+24]
  00015	8d 46 14	 lea	 eax, DWORD PTR [esi+20]
  00018	50		 push	 eax
  00019	e8 00 00 00 00	 call	 ?Create@CPlex@@SGPAU1@AAPAU1@II@Z ; CPlex::Create

; 906  : 				 sizeof(CNode));
; 907  : 
; 908  : 		// chain them into free list
; 909  : 		CNode* pNode = (CNode*) pNewBlock->data();
; 910  : 		// free in reverse order to make it easier to debug
; 911  : 		pNode += m_nBlockSize - 1;

  0001e	8b 56 18	 mov	 edx, DWORD PTR [esi+24]
  00021	83 c0 08	 add	 eax, 8
  00024	8d 4a ff	 lea	 ecx, DWORD PTR [edx-1]

; 912  : 		for (INT_PTR i = m_nBlockSize-1; i >= 0; i--, pNode--)

  00027	83 c2 ff	 add	 edx, -1
  0002a	8d 0c 49	 lea	 ecx, DWORD PTR [ecx+ecx*2]
  0002d	8d 0c 88	 lea	 ecx, DWORD PTR [eax+ecx*4]
  00030	78 10		 js	 SHORT $LN11@AddTail
$LL8@AddTail:

; 913  : 		{
; 914  : 			pNode->pNext = m_pNodeFree;

  00032	8b 46 10	 mov	 eax, DWORD PTR [esi+16]
  00035	89 01		 mov	 DWORD PTR [ecx], eax

; 915  : 			m_pNodeFree = pNode;

  00037	89 4e 10	 mov	 DWORD PTR [esi+16], ecx
  0003a	83 e9 0c	 sub	 ecx, 12			; 0000000cH
  0003d	83 ea 01	 sub	 edx, 1
  00040	79 f0		 jns	 SHORT $LL8@AddTail
$LN11@AddTail:

; 916  : 		}
; 917  : 	}
; 918  : 	ENSURE(m_pNodeFree != NULL);  // we must have something

  00042	8b 4e 10	 mov	 ecx, DWORD PTR [esi+16]
  00045	85 c9		 test	 ecx, ecx
  00047	74 39		 je	 SHORT $LN22@AddTail

; 919  : 
; 920  : 	CList::CNode* pNode = m_pNodeFree;
; 921  : 	m_pNodeFree = m_pNodeFree->pNext;

  00049	8b 01		 mov	 eax, DWORD PTR [ecx]
  0004b	89 46 10	 mov	 DWORD PTR [esi+16], eax

; 969  : 	pNewNode->data = newElement;

  0004e	8b 45 08	 mov	 eax, DWORD PTR _newElement$[ebp]

; 922  : 	pNode->pPrev = pPrev;

  00051	89 79 04	 mov	 DWORD PTR [ecx+4], edi

; 923  : 	pNode->pNext = pNext;

  00054	c7 01 00 00 00
	00		 mov	 DWORD PTR [ecx], 0

; 924  : 	m_nCount++;

  0005a	ff 46 0c	 inc	 DWORD PTR [esi+12]

; 969  : 	pNewNode->data = newElement;

  0005d	89 41 08	 mov	 DWORD PTR [ecx+8], eax

; 970  : 	if (m_pNodeTail != NULL)

  00060	8b 46 08	 mov	 eax, DWORD PTR [esi+8]
  00063	85 c0		 test	 eax, eax
  00065	74 0d		 je	 SHORT $LN2@AddTail

; 971  : 		m_pNodeTail->pNext = pNewNode;

  00067	89 08		 mov	 DWORD PTR [eax], ecx

; 972  : 	else
; 973  : 		m_pNodeHead = pNewNode;
; 974  : 	m_pNodeTail = pNewNode;
; 975  : 	return (POSITION) pNewNode;

  00069	8b c1		 mov	 eax, ecx
  0006b	5f		 pop	 edi
  0006c	89 4e 08	 mov	 DWORD PTR [esi+8], ecx
  0006f	5e		 pop	 esi

; 976  : }

  00070	5d		 pop	 ebp
  00071	c2 04 00	 ret	 4
$LN2@AddTail:

; 972  : 	else
; 973  : 		m_pNodeHead = pNewNode;
; 974  : 	m_pNodeTail = pNewNode;
; 975  : 	return (POSITION) pNewNode;

  00074	5f		 pop	 edi
  00075	89 4e 04	 mov	 DWORD PTR [esi+4], ecx
  00078	8b c1		 mov	 eax, ecx
  0007a	89 4e 08	 mov	 DWORD PTR [esi+8], ecx
  0007d	5e		 pop	 esi

; 976  : }

  0007e	5d		 pop	 ebp
  0007f	c2 04 00	 ret	 4
$LN22@AddTail:

; 918  : 	ENSURE(m_pNodeFree != NULL);  // we must have something

  00082	e8 00 00 00 00	 call	 ?AfxThrowInvalidArgException@@YGXXZ ; AfxThrowInvalidArgException
$LN20@AddTail:
  00087	cc		 int	 3
?AddTail@?$CList@PAVCUndo_Redo_Info@@PAV1@@@QAEPAU__POSITION@@PAVCUndo_Redo_Info@@@Z ENDP ; CList<CUndo_Redo_Info *,CUndo_Redo_Info *>::AddTail
_TEXT	ENDS
; Function compile flags: /Ogtp
; File C:\Program Files (x86)\Microsoft Visual Studio\2019\Community\VC\Tools\MSVC\14.29.30133\atlmfc\include\afxtempl.h
;	COMDAT ??0?$CList@PAVCUndo_Redo_Info@@PAV1@@@QAE@H@Z
_TEXT	SEGMENT
_nBlockSize$ = 8					; size = 4
??0?$CList@PAVCUndo_Redo_Info@@PAV1@@@QAE@H@Z PROC	; CList<CUndo_Redo_Info *,CUndo_Redo_Info *>::CList<CUndo_Redo_Info *,CUndo_Redo_Info *>, COMDAT
; _this$ = ecx

; 851  : {

  00000	55		 push	 ebp
  00001	8b ec		 mov	 ebp, esp

; 852  : 	ASSERT(nBlockSize > 0);
; 853  : 
; 854  : 	m_nCount = 0;
; 855  : 	m_pNodeHead = m_pNodeTail = m_pNodeFree = NULL;
; 856  : 	m_pBlocks = NULL;
; 857  : 	m_nBlockSize = nBlockSize;

  00003	8b 45 08	 mov	 eax, DWORD PTR _nBlockSize$[ebp]
  00006	89 41 18	 mov	 DWORD PTR [ecx+24], eax

; 858  : }

  00009	8b c1		 mov	 eax, ecx
  0000b	c7 01 00 00 00
	00		 mov	 DWORD PTR [ecx], OFFSET ??_7?$CList@PAVCUndo_Redo_Info@@PAV1@@@6B@
  00011	c7 41 0c 00 00
	00 00		 mov	 DWORD PTR [ecx+12], 0
  00018	c7 41 10 00 00
	00 00		 mov	 DWORD PTR [ecx+16], 0
  0001f	c7 41 08 00 00
	00 00		 mov	 DWORD PTR [ecx+8], 0
  00026	c7 41 04 00 00
	00 00		 mov	 DWORD PTR [ecx+4], 0
  0002d	c7 41 14 00 00
	00 00		 mov	 DWORD PTR [ecx+20], 0
  00034	5d		 pop	 ebp
  00035	c2 04 00	 ret	 4
??0?$CList@PAVCUndo_Redo_Info@@PAV1@@@QAE@H@Z ENDP	; CList<CUndo_Redo_Info *,CUndo_Redo_Info *>::CList<CUndo_Redo_Info *,CUndo_Redo_Info *>
_TEXT	ENDS
; Function compile flags: /Ogtp
; File D:\git\src\IBK\IBK_DRFN\ProjSrc\SrcChartEx\ChartAddIn\ChartAnalysisToolAddIn\Include_AddIn_133101\I133101\_IString.h
;	COMDAT ??1ILPCSTR133101@@QAE@XZ
_TEXT	SEGMENT
__$EHRec$ = -12						; size = 12
??1ILPCSTR133101@@QAE@XZ PROC				; ILPCSTR133101::~ILPCSTR133101, COMDAT
; _this$ = ecx

; 44   : 	{

  00000	55		 push	 ebp
  00001	8b ec		 mov	 ebp, esp
  00003	6a ff		 push	 -1
  00005	68 00 00 00 00	 push	 __ehhandler$??1ILPCSTR133101@@QAE@XZ
  0000a	64 a1 00 00 00
	00		 mov	 eax, DWORD PTR fs:0
  00010	50		 push	 eax
  00011	56		 push	 esi
  00012	a1 00 00 00 00	 mov	 eax, DWORD PTR ___security_cookie
  00017	33 c5		 xor	 eax, ebp
  00019	50		 push	 eax
  0001a	8d 45 f4	 lea	 eax, DWORD PTR __$EHRec$[ebp]
  0001d	64 a3 00 00 00
	00		 mov	 DWORD PTR fs:0, eax
  00023	8b f1		 mov	 esi, ecx

; 45   : 		if( m_pIStrData)

  00025	8b 4e 04	 mov	 ecx, DWORD PTR [esi+4]
  00028	85 c9		 test	 ecx, ecx
  0002a	74 13		 je	 SHORT $LN2@ILPCSTR133

; 46   : 		{
; 47   : 			m_pIStrData->Release();

  0002c	8b 01		 mov	 eax, DWORD PTR [ecx]
  0002e	51		 push	 ecx
  0002f	ff 50 08	 call	 DWORD PTR [eax+8]

; 48   : 			m_pIStrData = NULL;

  00032	c7 46 04 00 00
	00 00		 mov	 DWORD PTR [esi+4], 0

; 49   : 			m_szData = NULL;

  00039	c7 06 00 00 00
	00		 mov	 DWORD PTR [esi], 0
$LN2@ILPCSTR133:

; 50   : 		}
; 51   : 	}

  0003f	8b 4d f4	 mov	 ecx, DWORD PTR __$EHRec$[ebp]
  00042	64 89 0d 00 00
	00 00		 mov	 DWORD PTR fs:0, ecx
  00049	59		 pop	 ecx
  0004a	5e		 pop	 esi
  0004b	8b e5		 mov	 esp, ebp
  0004d	5d		 pop	 ebp
  0004e	c3		 ret	 0
  0004f	cc		 int	 3
  00050	cc		 int	 3
  00051	cc		 int	 3
  00052	cc		 int	 3
  00053	cc		 int	 3
_TEXT	ENDS
;	COMDAT text$x
text$x	SEGMENT
__ehhandler$??1ILPCSTR133101@@QAE@XZ:
  00000	90		 npad	 1
  00001	90		 npad	 1
  00002	8b 54 24 08	 mov	 edx, DWORD PTR [esp+8]
  00006	8d 42 0c	 lea	 eax, DWORD PTR [edx+12]
  00009	8b 4a f8	 mov	 ecx, DWORD PTR [edx-8]
  0000c	33 c8		 xor	 ecx, eax
  0000e	e8 00 00 00 00	 call	 @__security_check_cookie@4
  00013	b8 00 00 00 00	 mov	 eax, OFFSET __ehfuncinfo$??1ILPCSTR133101@@QAE@XZ
  00018	e9 00 00 00 00	 jmp	 ___CxxFrameHandler3
text$x	ENDS
??1ILPCSTR133101@@QAE@XZ ENDP				; ILPCSTR133101::~ILPCSTR133101
; Function compile flags: /Ogtp
; File C:\Program Files (x86)\Microsoft Visual Studio\2019\Community\VC\Tools\MSVC\14.29.30133\atlmfc\include\afxtempl.h
; File C:\Program Files (x86)\Microsoft Visual Studio\2019\Community\VC\Tools\MSVC\14.29.30133\atlmfc\include\afx.inl
;	COMDAT ??_G?$CList@PAVCDrawingSymbol@@PAV1@@@UAEPAXI@Z
_TEXT	SEGMENT
__$EHRec$ = -12						; size = 12
___flags$ = 8						; size = 4
??_G?$CList@PAVCDrawingSymbol@@PAV1@@@UAEPAXI@Z PROC	; CList<CDrawingSymbol *,CDrawingSymbol *>::`scalar deleting destructor', COMDAT
; _this$ = ecx
  00000	55		 push	 ebp
  00001	8b ec		 mov	 ebp, esp
  00003	6a ff		 push	 -1
  00005	68 00 00 00 00	 push	 __ehhandler$??_G?$CList@PAVCDrawingSymbol@@PAV1@@@UAEPAXI@Z
  0000a	64 a1 00 00 00
	00		 mov	 eax, DWORD PTR fs:0
  00010	50		 push	 eax
  00011	56		 push	 esi
  00012	a1 00 00 00 00	 mov	 eax, DWORD PTR ___security_cookie
  00017	33 c5		 xor	 eax, ebp
  00019	50		 push	 eax
  0001a	8d 45 f4	 lea	 eax, DWORD PTR __$EHRec$[ebp]
  0001d	64 a3 00 00 00
	00		 mov	 DWORD PTR fs:0, eax
  00023	8b f1		 mov	 esi, ecx
; File C:\Program Files (x86)\Microsoft Visual Studio\2019\Community\VC\Tools\MSVC\14.29.30133\atlmfc\include\afxtempl.h

; 872  : 	m_pBlocks->FreeDataChain();

  00025	8b 4e 14	 mov	 ecx, DWORD PTR [esi+20]

; 878  : {

  00028	c7 45 fc 00 00
	00 00		 mov	 DWORD PTR __$EHRec$[ebp+8], 0
  0002f	c7 06 00 00 00
	00		 mov	 DWORD PTR [esi], OFFSET ??_7?$CList@PAVCDrawingSymbol@@PAV1@@@6B@

; 870  : 	m_nCount = 0;

  00035	c7 46 0c 00 00
	00 00		 mov	 DWORD PTR [esi+12], 0

; 871  : 	m_pNodeHead = m_pNodeTail = m_pNodeFree = NULL;

  0003c	c7 46 10 00 00
	00 00		 mov	 DWORD PTR [esi+16], 0
  00043	c7 46 08 00 00
	00 00		 mov	 DWORD PTR [esi+8], 0
  0004a	c7 46 04 00 00
	00 00		 mov	 DWORD PTR [esi+4], 0

; 872  : 	m_pBlocks->FreeDataChain();

  00051	e8 00 00 00 00	 call	 ?FreeDataChain@CPlex@@QAEXXZ ; CPlex::FreeDataChain

; 873  : 	m_pBlocks = NULL;

  00056	8b 45 08	 mov	 eax, DWORD PTR ___flags$[ebp]
  00059	c7 46 14 00 00
	00 00		 mov	 DWORD PTR [esi+20], 0
  00060	a8 01		 test	 al, 1
  00062	74 2c		 je	 SHORT $LN22@scalar
  00064	a8 04		 test	 al, 4
  00066	75 1d		 jne	 SHORT $LN3@scalar
; File C:\Program Files (x86)\Microsoft Visual Studio\2019\Community\VC\Tools\MSVC\14.29.30133\atlmfc\include\afx.inl

; 112  : 	{ ::operator delete(p); }

  00068	56		 push	 esi
  00069	e8 00 00 00 00	 call	 ??3@YAXPAX@Z		; operator delete
  0006e	83 c4 04	 add	 esp, 4
  00071	8b c6		 mov	 eax, esi
  00073	8b 4d f4	 mov	 ecx, DWORD PTR __$EHRec$[ebp]
  00076	64 89 0d 00 00
	00 00		 mov	 DWORD PTR fs:0, ecx
  0007d	59		 pop	 ecx
  0007e	5e		 pop	 esi
  0007f	8b e5		 mov	 esp, ebp
  00081	5d		 pop	 ebp
  00082	c2 04 00	 ret	 4
$LN3@scalar:
  00085	6a 1c		 push	 28			; 0000001cH
  00087	56		 push	 esi
  00088	e8 00 00 00 00	 call	 ?__global_delete@@YAXPAXI@Z ; __global_delete
  0008d	83 c4 08	 add	 esp, 8
$LN22@scalar:
  00090	8b c6		 mov	 eax, esi
  00092	8b 4d f4	 mov	 ecx, DWORD PTR __$EHRec$[ebp]
  00095	64 89 0d 00 00
	00 00		 mov	 DWORD PTR fs:0, ecx
  0009c	59		 pop	 ecx
  0009d	5e		 pop	 esi
  0009e	8b e5		 mov	 esp, ebp
  000a0	5d		 pop	 ebp
  000a1	c2 04 00	 ret	 4
  000a4	cc		 int	 3
  000a5	cc		 int	 3
  000a6	cc		 int	 3
  000a7	cc		 int	 3
  000a8	cc		 int	 3
_TEXT	ENDS
;	COMDAT text$x
text$x	SEGMENT
__ehhandler$??_G?$CList@PAVCDrawingSymbol@@PAV1@@@UAEPAXI@Z:
  00000	90		 npad	 1
  00001	90		 npad	 1
  00002	8b 54 24 08	 mov	 edx, DWORD PTR [esp+8]
  00006	8d 42 0c	 lea	 eax, DWORD PTR [edx+12]
  00009	8b 4a f8	 mov	 ecx, DWORD PTR [edx-8]
  0000c	33 c8		 xor	 ecx, eax
  0000e	e8 00 00 00 00	 call	 @__security_check_cookie@4
  00013	b8 00 00 00 00	 mov	 eax, OFFSET __ehfuncinfo$??_G?$CList@PAVCDrawingSymbol@@PAV1@@@UAEPAXI@Z
  00018	e9 00 00 00 00	 jmp	 ___CxxFrameHandler3
text$x	ENDS
??_G?$CList@PAVCDrawingSymbol@@PAV1@@@UAEPAXI@Z ENDP	; CList<CDrawingSymbol *,CDrawingSymbol *>::`scalar deleting destructor'
; Function compile flags: /Ogtp
; File C:\Program Files (x86)\Microsoft Visual Studio\2019\Community\VC\Tools\MSVC\14.29.30133\atlmfc\include\afxtempl.h
; File C:\Program Files (x86)\Microsoft Visual Studio\2019\Community\VC\Tools\MSVC\14.29.30133\atlmfc\include\afx.inl
; File C:\Program Files (x86)\Microsoft Visual Studio\2019\Community\VC\Tools\MSVC\14.29.30133\atlmfc\include\afxtempl.h
; File C:\Program Files (x86)\Microsoft Visual Studio\2019\Community\VC\Tools\MSVC\14.29.30133\atlmfc\include\afx.inl
; File C:\Program Files (x86)\Microsoft Visual Studio\2019\Community\VC\Tools\MSVC\14.29.30133\atlmfc\include\afxtempl.h
; File C:\Program Files (x86)\Microsoft Visual Studio\2019\Community\VC\Tools\MSVC\14.29.30133\atlmfc\include\afx.inl
; File C:\Program Files (x86)\Microsoft Visual Studio\2019\Community\VC\Tools\MSVC\14.29.30133\atlmfc\include\afxtempl.h
; File C:\Program Files (x86)\Microsoft Visual Studio\2019\Community\VC\Tools\MSVC\14.29.30133\atlmfc\include\afx.inl
; File C:\Program Files (x86)\Microsoft Visual Studio\2019\Community\VC\Tools\MSVC\14.29.30133\atlmfc\include\afxtempl.h
; File C:\Program Files (x86)\Microsoft Visual Studio\2019\Community\VC\Tools\MSVC\14.29.30133\atlmfc\include\afx.inl
; File C:\Program Files (x86)\Microsoft Visual Studio\2019\Community\VC\Tools\MSVC\14.29.30133\atlmfc\include\afxtempl.h
; File C:\Program Files (x86)\Microsoft Visual Studio\2019\Community\VC\Tools\MSVC\14.29.30133\atlmfc\include\afx.inl
; File C:\Program Files (x86)\Microsoft Visual Studio\2019\Community\VC\Tools\MSVC\14.29.30133\atlmfc\include\afxtempl.h
;	COMDAT ?Serialize@?$CList@PAVCDrawingSymbol@@PAV1@@@UAEXAAVCArchive@@@Z
_TEXT	SEGMENT
_nNewCount$1$ = -16					; size = 4
_newData$1 = -12					; size = 4
_pData$1$ = -8						; size = 4
_pData$1$ = -8						; size = 4
_pNode$1$ = -8						; size = 4
_nElementsLeft$1$ = -4					; size = 4
_this$1$ = -4						; size = 4
_ar$ = 8						; size = 4
?Serialize@?$CList@PAVCDrawingSymbol@@PAV1@@@UAEXAAVCArchive@@@Z PROC ; CList<CDrawingSymbol *,CDrawingSymbol *>::Serialize, COMDAT
; _this$ = ecx

; 1169 : {

  00000	55		 push	 ebp
  00001	8b ec		 mov	 ebp, esp
  00003	83 ec 10	 sub	 esp, 16			; 00000010H
  00006	53		 push	 ebx
  00007	8b d9		 mov	 ebx, ecx
; File C:\Program Files (x86)\Microsoft Visual Studio\2019\Community\VC\Tools\MSVC\14.29.30133\atlmfc\include\afx.inl

; 212  : 	{ return (m_nMode & CArchive::load) == 0; }

  00009	8b 4d 08	 mov	 ecx, DWORD PTR _ar$[ebp]
; File C:\Program Files (x86)\Microsoft Visual Studio\2019\Community\VC\Tools\MSVC\14.29.30133\atlmfc\include\afxtempl.h

; 1169 : {

  0000c	56		 push	 esi
  0000d	57		 push	 edi
  0000e	89 5d fc	 mov	 DWORD PTR _this$1$[ebp], ebx
; File C:\Program Files (x86)\Microsoft Visual Studio\2019\Community\VC\Tools\MSVC\14.29.30133\atlmfc\include\afx.inl

; 212  : 	{ return (m_nMode & CArchive::load) == 0; }

  00011	8b 41 18	 mov	 eax, DWORD PTR [ecx+24]
  00014	f7 d0		 not	 eax
  00016	a8 01		 test	 al, 1
; File C:\Program Files (x86)\Microsoft Visual Studio\2019\Community\VC\Tools\MSVC\14.29.30133\atlmfc\include\afxtempl.h

; 1174 : 	if (ar.IsStoring())

  00018	0f 84 ae 00 00
	00		 je	 $LN7@Serialize

; 1175 : 	{
; 1176 : 		ar.WriteCount(m_nCount);

  0001e	ff 73 0c	 push	 DWORD PTR [ebx+12]
  00021	e8 00 00 00 00	 call	 ?WriteCount@CArchive@@QAEXK@Z ; CArchive::WriteCount

; 1177 : 		for (CNode* pNode = m_pNodeHead; pNode != NULL; pNode = pNode->pNext)

  00026	8b 43 04	 mov	 eax, DWORD PTR [ebx+4]
  00029	89 45 f8	 mov	 DWORD PTR _pNode$1$[ebp], eax
  0002c	85 c0		 test	 eax, eax
  0002e	0f 84 b9 01 00
	00		 je	 $LN86@Serialize
$LL4@Serialize:

; 1178 : 		{
; 1179 : 			ASSERT(AfxIsValidAddress(pNode, sizeof(CNode)));
; 1180 : 			TYPE* pData;
; 1181 : 			/*
; 1182 : 			 * in some cases the & operator might be overloaded, and we cannot use it to obtain
; 1183 : 			 * the address of a given object.  We then use the following trick to get the address
; 1184 : 			 */
; 1185 : 			pData = reinterpret_cast< TYPE* >( &reinterpret_cast< int& >( static_cast< TYPE& >( pNode->data ) ) );

  00034	8d 70 08	 lea	 esi, DWORD PTR [eax+8]

; 68   : 	ENSURE(nCount == 0 || pElements != NULL);

  00037	85 f6		 test	 esi, esi
  00039	0f 84 c0 01 00
	00		 je	 $LN76@Serialize
; File C:\Program Files (x86)\Microsoft Visual Studio\2019\Community\VC\Tools\MSVC\14.29.30133\atlmfc\include\afx.inl

; 212  : 	{ return (m_nMode & CArchive::load) == 0; }

  0003f	8b 4d 08	 mov	 ecx, DWORD PTR _ar$[ebp]
  00042	8b 41 18	 mov	 eax, DWORD PTR [ecx+24]
  00045	f7 d0		 not	 eax
  00047	a8 01		 test	 al, 1
; File C:\Program Files (x86)\Microsoft Visual Studio\2019\Community\VC\Tools\MSVC\14.29.30133\atlmfc\include\afxtempl.h

; 73   : 	if (ar.IsStoring())

  00049	74 33		 je	 SHORT $LN21@Serialize

; 74   : 	{
; 75   : 		TYPE* pData;
; 76   : 		UINT_PTR nElementsLeft;
; 77   : 
; 78   : 		nElementsLeft = nCount;

  0004b	b8 01 00 00 00	 mov	 eax, 1
  00050	89 45 fc	 mov	 DWORD PTR _nElementsLeft$1$[ebp], eax
$LL16@Serialize:

; 80   : 		while( nElementsLeft > 0 )
; 81   : 		{
; 82   : 			UINT nElementsToWrite;
; 83   : 
; 84   : 			nElementsToWrite = UINT(__min(nElementsLeft, INT_MAX/sizeof(TYPE)));

  00053	bb ff ff ff 1f	 mov	 ebx, 536870911		; 1fffffffH
  00058	3b c3		 cmp	 eax, ebx
  0005a	0f 42 d8	 cmovb	 ebx, eax

; 85   : 			ar.Write(pData, nElementsToWrite*sizeof(TYPE));

  0005d	8d 3c 9d 00 00
	00 00		 lea	 edi, DWORD PTR [ebx*4]
  00064	57		 push	 edi
  00065	56		 push	 esi
  00066	e8 00 00 00 00	 call	 ?Write@CArchive@@QAEXPBXI@Z ; CArchive::Write

; 86   : 			nElementsLeft -= nElementsToWrite;

  0006b	8b 45 fc	 mov	 eax, DWORD PTR _nElementsLeft$1$[ebp]

; 87   : 			pData += nElementsToWrite;

  0006e	03 f7		 add	 esi, edi
  00070	8b 4d 08	 mov	 ecx, DWORD PTR _ar$[ebp]
  00073	2b c3		 sub	 eax, ebx
  00075	89 45 fc	 mov	 DWORD PTR _nElementsLeft$1$[ebp], eax
  00078	85 c0		 test	 eax, eax
  0007a	75 d7		 jne	 SHORT $LL16@Serialize

; 88   : 		}
; 89   : 	}

  0007c	eb 35		 jmp	 SHORT $LN2@Serialize
$LN21@Serialize:

; 90   : 	else
; 91   : 	{
; 92   : 		TYPE* pData;
; 93   : 		UINT_PTR nElementsLeft;
; 94   : 
; 95   : 		nElementsLeft = nCount;

  0007e	bf 01 00 00 00	 mov	 edi, 1
$LL18@Serialize:

; 98   : 		{
; 99   : 			UINT nElementsToRead;
; 100  : 
; 101  : 			nElementsToRead = UINT(__min(nElementsLeft, INT_MAX/sizeof(TYPE)));

  00083	bb ff ff ff 1f	 mov	 ebx, 536870911		; 1fffffffH
  00088	3b fb		 cmp	 edi, ebx
  0008a	0f 42 df	 cmovb	 ebx, edi

; 102  : 			ar.EnsureRead(pData, nElementsToRead*sizeof(TYPE));

  0008d	8d 04 9d 00 00
	00 00		 lea	 eax, DWORD PTR [ebx*4]
; File C:\Program Files (x86)\Microsoft Visual Studio\2019\Community\VC\Tools\MSVC\14.29.30133\atlmfc\include\afx.inl

; 399  : 	UINT nRead=Read(lpBuf, nCount);

  00094	50		 push	 eax
  00095	56		 push	 esi
  00096	e8 00 00 00 00	 call	 ?Read@CArchive@@QAEIPAXI@Z ; CArchive::Read

; 400  : 	if(nRead!=nCount)

  0009b	8d 0c 9d 00 00
	00 00		 lea	 ecx, DWORD PTR [ebx*4]
  000a2	3b c1		 cmp	 eax, ecx
  000a4	0f 85 4c 01 00
	00		 jne	 $LN75@Serialize
; File C:\Program Files (x86)\Microsoft Visual Studio\2019\Community\VC\Tools\MSVC\14.29.30133\atlmfc\include\afxtempl.h

; 97   : 		while( nElementsLeft > 0 )

  000aa	03 f1		 add	 esi, ecx
  000ac	8b 4d 08	 mov	 ecx, DWORD PTR _ar$[ebp]

; 103  : 			nElementsLeft -= nElementsToRead;

  000af	2b fb		 sub	 edi, ebx
  000b1	75 d0		 jne	 SHORT $LL18@Serialize
$LN2@Serialize:

; 1177 : 		for (CNode* pNode = m_pNodeHead; pNode != NULL; pNode = pNode->pNext)

  000b3	8b 45 f8	 mov	 eax, DWORD PTR _pNode$1$[ebp]
  000b6	8b 00		 mov	 eax, DWORD PTR [eax]
  000b8	89 45 f8	 mov	 DWORD PTR _pNode$1$[ebp], eax
  000bb	85 c0		 test	 eax, eax
  000bd	0f 85 71 ff ff
	ff		 jne	 $LL4@Serialize

; 1197 : 		}
; 1198 : 	}
; 1199 : }

  000c3	5f		 pop	 edi
  000c4	5e		 pop	 esi
  000c5	5b		 pop	 ebx
  000c6	8b e5		 mov	 esp, ebp
  000c8	5d		 pop	 ebp
  000c9	c2 04 00	 ret	 4
$LN7@Serialize:

; 1186 : 			SerializeElements<TYPE>(ar, pData, 1);
; 1187 : 		}
; 1188 : 	}
; 1189 : 	else
; 1190 : 	{
; 1191 : 		DWORD_PTR nNewCount = ar.ReadCount();

  000cc	e8 00 00 00 00	 call	 ?ReadCount@CArchive@@QAEKXZ ; CArchive::ReadCount

; 1192 : 		while (nNewCount--)

  000d1	85 c0		 test	 eax, eax
  000d3	0f 84 14 01 00
	00		 je	 $LN86@Serialize
  000d9	0f 1f 80 00 00
	00 00		 npad	 7
$LL5@Serialize:
  000e0	48		 dec	 eax
  000e1	89 45 f0	 mov	 DWORD PTR _nNewCount$1$[ebp], eax
; File C:\Program Files (x86)\Microsoft Visual Studio\2019\Community\VC\Tools\MSVC\14.29.30133\atlmfc\include\afx.inl

; 212  : 	{ return (m_nMode & CArchive::load) == 0; }

  000e4	8b 45 08	 mov	 eax, DWORD PTR _ar$[ebp]
  000e7	8b 48 18	 mov	 ecx, DWORD PTR [eax+24]
  000ea	f7 d1		 not	 ecx
  000ec	f6 c1 01	 test	 cl, 1
; File C:\Program Files (x86)\Microsoft Visual Studio\2019\Community\VC\Tools\MSVC\14.29.30133\atlmfc\include\afxtempl.h

; 73   : 	if (ar.IsStoring())

  000ef	74 3d		 je	 SHORT $LN42@Serialize

; 79   : 		pData = pElements;

  000f1	8d 4d f4	 lea	 ecx, DWORD PTR _newData$1[ebp]
  000f4	bb 01 00 00 00	 mov	 ebx, 1
  000f9	89 4d f8	 mov	 DWORD PTR _pData$1$[ebp], ecx
  000fc	0f 1f 40 00	 npad	 4
$LL37@Serialize:

; 80   : 		while( nElementsLeft > 0 )
; 81   : 		{
; 82   : 			UINT nElementsToWrite;
; 83   : 
; 84   : 			nElementsToWrite = UINT(__min(nElementsLeft, INT_MAX/sizeof(TYPE)));

  00100	bf ff ff ff 1f	 mov	 edi, 536870911		; 1fffffffH
  00105	3b df		 cmp	 ebx, edi
  00107	0f 42 fb	 cmovb	 edi, ebx

; 85   : 			ar.Write(pData, nElementsToWrite*sizeof(TYPE));

  0010a	8d 34 bd 00 00
	00 00		 lea	 esi, DWORD PTR [edi*4]
  00111	56		 push	 esi
  00112	51		 push	 ecx
  00113	8b c8		 mov	 ecx, eax
  00115	e8 00 00 00 00	 call	 ?Write@CArchive@@QAEXPBXI@Z ; CArchive::Write

; 87   : 			pData += nElementsToWrite;

  0011a	8b 4d f8	 mov	 ecx, DWORD PTR _pData$1$[ebp]
  0011d	8b 45 08	 mov	 eax, DWORD PTR _ar$[ebp]
  00120	03 ce		 add	 ecx, esi
  00122	89 4d f8	 mov	 DWORD PTR _pData$1$[ebp], ecx
  00125	2b df		 sub	 ebx, edi
  00127	75 d7		 jne	 SHORT $LL37@Serialize

; 88   : 		}
; 89   : 	}

  00129	8b 5d fc	 mov	 ebx, DWORD PTR _this$1$[ebp]
  0012c	eb 4a		 jmp	 SHORT $LN40@Serialize
$LN42@Serialize:

; 96   : 		pData = pElements;

  0012e	8d 55 f4	 lea	 edx, DWORD PTR _newData$1[ebp]
  00131	be 01 00 00 00	 mov	 esi, 1
  00136	89 55 f8	 mov	 DWORD PTR _pData$1$[ebp], edx
  00139	0f 1f 80 00 00
	00 00		 npad	 7
$LL39@Serialize:

; 98   : 		{
; 99   : 			UINT nElementsToRead;
; 100  : 
; 101  : 			nElementsToRead = UINT(__min(nElementsLeft, INT_MAX/sizeof(TYPE)));

  00140	bf ff ff ff 1f	 mov	 edi, 536870911		; 1fffffffH
  00145	3b f7		 cmp	 esi, edi
  00147	0f 42 fe	 cmovb	 edi, esi

; 102  : 			ar.EnsureRead(pData, nElementsToRead*sizeof(TYPE));

  0014a	8d 0c bd 00 00
	00 00		 lea	 ecx, DWORD PTR [edi*4]
; File C:\Program Files (x86)\Microsoft Visual Studio\2019\Community\VC\Tools\MSVC\14.29.30133\atlmfc\include\afx.inl

; 399  : 	UINT nRead=Read(lpBuf, nCount);

  00151	51		 push	 ecx
  00152	52		 push	 edx
  00153	8b c8		 mov	 ecx, eax
  00155	e8 00 00 00 00	 call	 ?Read@CArchive@@QAEIPAXI@Z ; CArchive::Read

; 400  : 	if(nRead!=nCount)

  0015a	8d 0c bd 00 00
	00 00		 lea	 ecx, DWORD PTR [edi*4]
  00161	3b c1		 cmp	 eax, ecx
  00163	0f 85 8d 00 00
	00		 jne	 $LN75@Serialize
; File C:\Program Files (x86)\Microsoft Visual Studio\2019\Community\VC\Tools\MSVC\14.29.30133\atlmfc\include\afxtempl.h

; 97   : 		while( nElementsLeft > 0 )

  00169	8b 55 f8	 mov	 edx, DWORD PTR _pData$1$[ebp]
  0016c	8b 45 08	 mov	 eax, DWORD PTR _ar$[ebp]

; 104  : 			pData += nElementsToRead;

  0016f	03 d1		 add	 edx, ecx
  00171	89 55 f8	 mov	 DWORD PTR _pData$1$[ebp], edx
  00174	2b f7		 sub	 esi, edi
  00176	75 c8		 jne	 SHORT $LL39@Serialize
$LN40@Serialize:

; 902  : 	if (m_pNodeFree == NULL)

  00178	83 7b 10 00	 cmp	 DWORD PTR [ebx+16], 0

; 1193 : 		{
; 1194 : 			TYPE newData[1];
; 1195 : 			SerializeElements<TYPE>(ar, newData, 1);
; 1196 : 			AddTail(newData[0]);

  0017c	8b 75 f4	 mov	 esi, DWORD PTR _newData$1[ebp]

; 968  : 	CNode* pNewNode = NewNode(m_pNodeTail, NULL);

  0017f	8b 7b 08	 mov	 edi, DWORD PTR [ebx+8]

; 902  : 	if (m_pNodeFree == NULL)

  00182	75 32		 jne	 SHORT $LN63@Serialize

; 903  : 	{
; 904  : 		// add another block
; 905  : 		CPlex* pNewBlock = CPlex::Create(m_pBlocks, m_nBlockSize,

  00184	6a 0c		 push	 12			; 0000000cH
  00186	ff 73 18	 push	 DWORD PTR [ebx+24]
  00189	8d 43 14	 lea	 eax, DWORD PTR [ebx+20]
  0018c	50		 push	 eax
  0018d	e8 00 00 00 00	 call	 ?Create@CPlex@@SGPAU1@AAPAU1@II@Z ; CPlex::Create

; 906  : 				 sizeof(CNode));
; 907  : 
; 908  : 		// chain them into free list
; 909  : 		CNode* pNode = (CNode*) pNewBlock->data();
; 910  : 		// free in reverse order to make it easier to debug
; 911  : 		pNode += m_nBlockSize - 1;

  00192	8b 53 18	 mov	 edx, DWORD PTR [ebx+24]
  00195	83 c0 08	 add	 eax, 8
  00198	8d 4a ff	 lea	 ecx, DWORD PTR [edx-1]

; 912  : 		for (INT_PTR i = m_nBlockSize-1; i >= 0; i--, pNode--)

  0019b	83 c2 ff	 add	 edx, -1
  0019e	8d 0c 49	 lea	 ecx, DWORD PTR [ecx+ecx*2]
  001a1	8d 0c 88	 lea	 ecx, DWORD PTR [eax+ecx*4]
  001a4	78 10		 js	 SHORT $LN63@Serialize
$LL60@Serialize:

; 913  : 		{
; 914  : 			pNode->pNext = m_pNodeFree;

  001a6	8b 43 10	 mov	 eax, DWORD PTR [ebx+16]
  001a9	89 01		 mov	 DWORD PTR [ecx], eax

; 915  : 			m_pNodeFree = pNode;

  001ab	89 4b 10	 mov	 DWORD PTR [ebx+16], ecx
  001ae	83 e9 0c	 sub	 ecx, 12			; 0000000cH
  001b1	83 ea 01	 sub	 edx, 1
  001b4	79 f0		 jns	 SHORT $LL60@Serialize
$LN63@Serialize:

; 916  : 		}
; 917  : 	}
; 918  : 	ENSURE(m_pNodeFree != NULL);  // we must have something

  001b6	8b 4b 10	 mov	 ecx, DWORD PTR [ebx+16]
  001b9	85 c9		 test	 ecx, ecx
  001bb	74 42		 je	 SHORT $LN76@Serialize

; 919  : 
; 920  : 	CList::CNode* pNode = m_pNodeFree;
; 921  : 	m_pNodeFree = m_pNodeFree->pNext;

  001bd	8b 01		 mov	 eax, DWORD PTR [ecx]
  001bf	89 43 10	 mov	 DWORD PTR [ebx+16], eax

; 922  : 	pNode->pPrev = pPrev;

  001c2	89 79 04	 mov	 DWORD PTR [ecx+4], edi

; 923  : 	pNode->pNext = pNext;

  001c5	c7 01 00 00 00
	00		 mov	 DWORD PTR [ecx], 0

; 924  : 	m_nCount++;

  001cb	ff 43 0c	 inc	 DWORD PTR [ebx+12]

; 969  : 	pNewNode->data = newElement;

  001ce	89 71 08	 mov	 DWORD PTR [ecx+8], esi

; 970  : 	if (m_pNodeTail != NULL)

  001d1	8b 43 08	 mov	 eax, DWORD PTR [ebx+8]
  001d4	85 c0		 test	 eax, eax
  001d6	74 04		 je	 SHORT $LN54@Serialize

; 971  : 		m_pNodeTail->pNext = pNewNode;

  001d8	89 08		 mov	 DWORD PTR [eax], ecx
  001da	eb 03		 jmp	 SHORT $LN55@Serialize
$LN54@Serialize:

; 972  : 	else
; 973  : 		m_pNodeHead = pNewNode;

  001dc	89 4b 04	 mov	 DWORD PTR [ebx+4], ecx
$LN55@Serialize:

; 1192 : 		while (nNewCount--)

  001df	8b 45 f0	 mov	 eax, DWORD PTR _nNewCount$1$[ebp]

; 974  : 	m_pNodeTail = pNewNode;

  001e2	89 4b 08	 mov	 DWORD PTR [ebx+8], ecx

; 1192 : 		while (nNewCount--)

  001e5	85 c0		 test	 eax, eax
  001e7	0f 85 f3 fe ff
	ff		 jne	 $LL5@Serialize
$LN86@Serialize:
  001ed	5f		 pop	 edi

; 1197 : 		}
; 1198 : 	}
; 1199 : }

  001ee	5e		 pop	 esi
  001ef	5b		 pop	 ebx
  001f0	8b e5		 mov	 esp, ebp
  001f2	5d		 pop	 ebp
  001f3	c2 04 00	 ret	 4
$LN75@Serialize:
  001f6	6a 00		 push	 0
  001f8	6a 03		 push	 3
  001fa	e8 00 00 00 00	 call	 ?AfxThrowArchiveException@@YGXHPBD@Z ; AfxThrowArchiveException
$LN76@Serialize:
  001ff	e8 00 00 00 00	 call	 ?AfxThrowInvalidArgException@@YGXXZ ; AfxThrowInvalidArgException
$LN105@Serialize:
  00204	cc		 int	 3
?Serialize@?$CList@PAVCDrawingSymbol@@PAV1@@@UAEXAAVCArchive@@@Z ENDP ; CList<CDrawingSymbol *,CDrawingSymbol *>::Serialize
_TEXT	ENDS
; Function compile flags: /Ogtp
; File C:\Program Files (x86)\Microsoft Visual Studio\2019\Community\VC\Tools\MSVC\14.29.30133\atlmfc\include\afxtempl.h
;	COMDAT ??1?$CList@PAVCDrawingSymbol@@PAV1@@@UAE@XZ
_TEXT	SEGMENT
__$EHRec$ = -12						; size = 12
??1?$CList@PAVCDrawingSymbol@@PAV1@@@UAE@XZ PROC	; CList<CDrawingSymbol *,CDrawingSymbol *>::~CList<CDrawingSymbol *,CDrawingSymbol *>, COMDAT
; _this$ = ecx

; 878  : {

  00000	55		 push	 ebp
  00001	8b ec		 mov	 ebp, esp
  00003	6a ff		 push	 -1
  00005	68 00 00 00 00	 push	 __ehhandler$??1?$CList@PAVCDrawingSymbol@@PAV1@@@UAE@XZ
  0000a	64 a1 00 00 00
	00		 mov	 eax, DWORD PTR fs:0
  00010	50		 push	 eax
  00011	56		 push	 esi
  00012	a1 00 00 00 00	 mov	 eax, DWORD PTR ___security_cookie
  00017	33 c5		 xor	 eax, ebp
  00019	50		 push	 eax
  0001a	8d 45 f4	 lea	 eax, DWORD PTR __$EHRec$[ebp]
  0001d	64 a3 00 00 00
	00		 mov	 DWORD PTR fs:0, eax
  00023	8b f1		 mov	 esi, ecx

; 872  : 	m_pBlocks->FreeDataChain();

  00025	8b 4e 14	 mov	 ecx, DWORD PTR [esi+20]

; 878  : {

  00028	c7 06 00 00 00
	00		 mov	 DWORD PTR [esi], OFFSET ??_7?$CList@PAVCDrawingSymbol@@PAV1@@@6B@

; 870  : 	m_nCount = 0;

  0002e	c7 46 0c 00 00
	00 00		 mov	 DWORD PTR [esi+12], 0

; 871  : 	m_pNodeHead = m_pNodeTail = m_pNodeFree = NULL;

  00035	c7 46 10 00 00
	00 00		 mov	 DWORD PTR [esi+16], 0
  0003c	c7 46 08 00 00
	00 00		 mov	 DWORD PTR [esi+8], 0
  00043	c7 46 04 00 00
	00 00		 mov	 DWORD PTR [esi+4], 0

; 872  : 	m_pBlocks->FreeDataChain();

  0004a	e8 00 00 00 00	 call	 ?FreeDataChain@CPlex@@QAEXXZ ; CPlex::FreeDataChain

; 873  : 	m_pBlocks = NULL;

  0004f	c7 46 14 00 00
	00 00		 mov	 DWORD PTR [esi+20], 0

; 879  : 	RemoveAll();
; 880  : 	ASSERT(m_nCount == 0);
; 881  : }

  00056	8b 4d f4	 mov	 ecx, DWORD PTR __$EHRec$[ebp]
  00059	64 89 0d 00 00
	00 00		 mov	 DWORD PTR fs:0, ecx
  00060	59		 pop	 ecx
  00061	5e		 pop	 esi
  00062	8b e5		 mov	 esp, ebp
  00064	5d		 pop	 ebp
  00065	c3		 ret	 0
  00066	cc		 int	 3
  00067	cc		 int	 3
  00068	cc		 int	 3
  00069	cc		 int	 3
  0006a	cc		 int	 3
_TEXT	ENDS
;	COMDAT text$x
text$x	SEGMENT
__ehhandler$??1?$CList@PAVCDrawingSymbol@@PAV1@@@UAE@XZ:
  00000	90		 npad	 1
  00001	90		 npad	 1
  00002	8b 54 24 08	 mov	 edx, DWORD PTR [esp+8]
  00006	8d 42 0c	 lea	 eax, DWORD PTR [edx+12]
  00009	8b 4a f8	 mov	 ecx, DWORD PTR [edx-8]
  0000c	33 c8		 xor	 ecx, eax
  0000e	e8 00 00 00 00	 call	 @__security_check_cookie@4
  00013	b8 00 00 00 00	 mov	 eax, OFFSET __ehfuncinfo$??1?$CList@PAVCDrawingSymbol@@PAV1@@@UAE@XZ
  00018	e9 00 00 00 00	 jmp	 ___CxxFrameHandler3
text$x	ENDS
??1?$CList@PAVCDrawingSymbol@@PAV1@@@UAE@XZ ENDP	; CList<CDrawingSymbol *,CDrawingSymbol *>::~CList<CDrawingSymbol *,CDrawingSymbol *>
; Function compile flags: /Ogtp
; File C:\Program Files (x86)\Microsoft Visual Studio\2019\Community\VC\Tools\MSVC\14.29.30133\atlmfc\include\afxtempl.h
;	COMDAT ?NewNode@?$CList@PAVCDrawingSymbol@@PAV1@@@IAEPAUCNode@1@PAU21@0@Z
_TEXT	SEGMENT
_pPrev$ = 8						; size = 4
_pNext$ = 12						; size = 4
?NewNode@?$CList@PAVCDrawingSymbol@@PAV1@@@IAEPAUCNode@1@PAU21@0@Z PROC ; CList<CDrawingSymbol *,CDrawingSymbol *>::NewNode, COMDAT
; _this$ = ecx

; 901  : {

  00000	55		 push	 ebp
  00001	8b ec		 mov	 ebp, esp
  00003	56		 push	 esi
  00004	8b f1		 mov	 esi, ecx

; 902  : 	if (m_pNodeFree == NULL)

  00006	83 7e 10 00	 cmp	 DWORD PTR [esi+16], 0
  0000a	75 34		 jne	 SHORT $LN7@NewNode

; 903  : 	{
; 904  : 		// add another block
; 905  : 		CPlex* pNewBlock = CPlex::Create(m_pBlocks, m_nBlockSize,

  0000c	6a 0c		 push	 12			; 0000000cH
  0000e	ff 76 18	 push	 DWORD PTR [esi+24]
  00011	8d 46 14	 lea	 eax, DWORD PTR [esi+20]
  00014	50		 push	 eax
  00015	e8 00 00 00 00	 call	 ?Create@CPlex@@SGPAU1@AAPAU1@II@Z ; CPlex::Create

; 906  : 				 sizeof(CNode));
; 907  : 
; 908  : 		// chain them into free list
; 909  : 		CNode* pNode = (CNode*) pNewBlock->data();
; 910  : 		// free in reverse order to make it easier to debug
; 911  : 		pNode += m_nBlockSize - 1;

  0001a	8b 56 18	 mov	 edx, DWORD PTR [esi+24]
  0001d	83 c0 08	 add	 eax, 8
  00020	8d 0c 52	 lea	 ecx, DWORD PTR [edx+edx*2]
  00023	8d 04 88	 lea	 eax, DWORD PTR [eax+ecx*4]
  00026	83 c0 f4	 add	 eax, -12		; fffffff4H

; 912  : 		for (INT_PTR i = m_nBlockSize-1; i >= 0; i--, pNode--)

  00029	83 c2 ff	 add	 edx, -1
  0002c	78 12		 js	 SHORT $LN7@NewNode
  0002e	66 90		 npad	 2
$LL4@NewNode:

; 913  : 		{
; 914  : 			pNode->pNext = m_pNodeFree;

  00030	8b 4e 10	 mov	 ecx, DWORD PTR [esi+16]
  00033	89 08		 mov	 DWORD PTR [eax], ecx

; 915  : 			m_pNodeFree = pNode;

  00035	89 46 10	 mov	 DWORD PTR [esi+16], eax
  00038	83 e8 0c	 sub	 eax, 12			; 0000000cH
  0003b	83 ea 01	 sub	 edx, 1
  0003e	79 f0		 jns	 SHORT $LL4@NewNode
$LN7@NewNode:

; 916  : 		}
; 917  : 	}
; 918  : 	ENSURE(m_pNodeFree != NULL);  // we must have something

  00040	8b 46 10	 mov	 eax, DWORD PTR [esi+16]
  00043	85 c0		 test	 eax, eax
  00045	74 18		 je	 SHORT $LN17@NewNode

; 919  : 
; 920  : 	CList::CNode* pNode = m_pNodeFree;
; 921  : 	m_pNodeFree = m_pNodeFree->pNext;

  00047	8b 08		 mov	 ecx, DWORD PTR [eax]
  00049	89 4e 10	 mov	 DWORD PTR [esi+16], ecx

; 922  : 	pNode->pPrev = pPrev;

  0004c	8b 4d 08	 mov	 ecx, DWORD PTR _pPrev$[ebp]
  0004f	89 48 04	 mov	 DWORD PTR [eax+4], ecx

; 923  : 	pNode->pNext = pNext;

  00052	8b 4d 0c	 mov	 ecx, DWORD PTR _pNext$[ebp]
  00055	89 08		 mov	 DWORD PTR [eax], ecx

; 924  : 	m_nCount++;

  00057	ff 46 0c	 inc	 DWORD PTR [esi+12]

; 925  : 	ASSERT(m_nCount > 0);  // make sure we don't overflow
; 926  : 
; 927  : #pragma push_macro("new")
; 928  : #undef new
; 929  : 	::new( (void*)( &pNode->data ) ) TYPE;
; 930  : #pragma pop_macro("new")
; 931  : 	return pNode;

  0005a	5e		 pop	 esi

; 932  : }

  0005b	5d		 pop	 ebp
  0005c	c2 08 00	 ret	 8
$LN17@NewNode:

; 916  : 		}
; 917  : 	}
; 918  : 	ENSURE(m_pNodeFree != NULL);  // we must have something

  0005f	e8 00 00 00 00	 call	 ?AfxThrowInvalidArgException@@YGXXZ ; AfxThrowInvalidArgException
$LN15@NewNode:
  00064	cc		 int	 3
?NewNode@?$CList@PAVCDrawingSymbol@@PAV1@@@IAEPAUCNode@1@PAU21@0@Z ENDP ; CList<CDrawingSymbol *,CDrawingSymbol *>::NewNode
_TEXT	ENDS
; Function compile flags: /Ogtp
; File C:\Program Files (x86)\Microsoft Visual Studio\2019\Community\VC\Tools\MSVC\14.29.30133\atlmfc\include\afxtempl.h
;	COMDAT ?RemoveAll@?$CList@PAVCDrawingSymbol@@PAV1@@@QAEXXZ
_TEXT	SEGMENT
?RemoveAll@?$CList@PAVCDrawingSymbol@@PAV1@@@QAEXXZ PROC ; CList<CDrawingSymbol *,CDrawingSymbol *>::RemoveAll, COMDAT
; _this$ = ecx

; 862  : {

  00000	56		 push	 esi
  00001	8b f1		 mov	 esi, ecx

; 863  : 	ASSERT_VALID(this);
; 864  : 
; 865  : 	// destroy elements
; 866  : 	CNode* pNode;
; 867  : 	for (pNode = m_pNodeHead; pNode != NULL; pNode = pNode->pNext)
; 868  : 		pNode->data.~TYPE();
; 869  : 
; 870  : 	m_nCount = 0;
; 871  : 	m_pNodeHead = m_pNodeTail = m_pNodeFree = NULL;
; 872  : 	m_pBlocks->FreeDataChain();

  00003	8b 4e 14	 mov	 ecx, DWORD PTR [esi+20]
  00006	c7 46 0c 00 00
	00 00		 mov	 DWORD PTR [esi+12], 0
  0000d	c7 46 10 00 00
	00 00		 mov	 DWORD PTR [esi+16], 0
  00014	c7 46 08 00 00
	00 00		 mov	 DWORD PTR [esi+8], 0
  0001b	c7 46 04 00 00
	00 00		 mov	 DWORD PTR [esi+4], 0
  00022	e8 00 00 00 00	 call	 ?FreeDataChain@CPlex@@QAEXXZ ; CPlex::FreeDataChain

; 873  : 	m_pBlocks = NULL;

  00027	c7 46 14 00 00
	00 00		 mov	 DWORD PTR [esi+20], 0
  0002e	5e		 pop	 esi

; 874  : }

  0002f	c3		 ret	 0
?RemoveAll@?$CList@PAVCDrawingSymbol@@PAV1@@@QAEXXZ ENDP ; CList<CDrawingSymbol *,CDrawingSymbol *>::RemoveAll
_TEXT	ENDS
; Function compile flags: /Ogtp
; File C:\Program Files (x86)\Microsoft Visual Studio\2019\Community\VC\Tools\MSVC\14.29.30133\atlmfc\include\afxtempl.h
;	COMDAT ?AddTail@?$CList@PAVCDrawingSymbol@@PAV1@@@QAEPAU__POSITION@@PAVCDrawingSymbol@@@Z
_TEXT	SEGMENT
_newElement$ = 8					; size = 4
?AddTail@?$CList@PAVCDrawingSymbol@@PAV1@@@QAEPAU__POSITION@@PAVCDrawingSymbol@@@Z PROC ; CList<CDrawingSymbol *,CDrawingSymbol *>::AddTail, COMDAT
; _this$ = ecx

; 965  : {

  00000	55		 push	 ebp
  00001	8b ec		 mov	 ebp, esp
  00003	56		 push	 esi
  00004	8b f1		 mov	 esi, ecx
  00006	57		 push	 edi

; 902  : 	if (m_pNodeFree == NULL)

  00007	83 7e 10 00	 cmp	 DWORD PTR [esi+16], 0

; 966  : 	ASSERT_VALID(this);
; 967  : 
; 968  : 	CNode* pNewNode = NewNode(m_pNodeTail, NULL);

  0000b	8b 7e 08	 mov	 edi, DWORD PTR [esi+8]

; 902  : 	if (m_pNodeFree == NULL)

  0000e	75 32		 jne	 SHORT $LN11@AddTail

; 903  : 	{
; 904  : 		// add another block
; 905  : 		CPlex* pNewBlock = CPlex::Create(m_pBlocks, m_nBlockSize,

  00010	6a 0c		 push	 12			; 0000000cH
  00012	ff 76 18	 push	 DWORD PTR [esi+24]
  00015	8d 46 14	 lea	 eax, DWORD PTR [esi+20]
  00018	50		 push	 eax
  00019	e8 00 00 00 00	 call	 ?Create@CPlex@@SGPAU1@AAPAU1@II@Z ; CPlex::Create

; 906  : 				 sizeof(CNode));
; 907  : 
; 908  : 		// chain them into free list
; 909  : 		CNode* pNode = (CNode*) pNewBlock->data();
; 910  : 		// free in reverse order to make it easier to debug
; 911  : 		pNode += m_nBlockSize - 1;

  0001e	8b 56 18	 mov	 edx, DWORD PTR [esi+24]
  00021	83 c0 08	 add	 eax, 8
  00024	8d 4a ff	 lea	 ecx, DWORD PTR [edx-1]

; 912  : 		for (INT_PTR i = m_nBlockSize-1; i >= 0; i--, pNode--)

  00027	83 c2 ff	 add	 edx, -1
  0002a	8d 0c 49	 lea	 ecx, DWORD PTR [ecx+ecx*2]
  0002d	8d 0c 88	 lea	 ecx, DWORD PTR [eax+ecx*4]
  00030	78 10		 js	 SHORT $LN11@AddTail
$LL8@AddTail:

; 913  : 		{
; 914  : 			pNode->pNext = m_pNodeFree;

  00032	8b 46 10	 mov	 eax, DWORD PTR [esi+16]
  00035	89 01		 mov	 DWORD PTR [ecx], eax

; 915  : 			m_pNodeFree = pNode;

  00037	89 4e 10	 mov	 DWORD PTR [esi+16], ecx
  0003a	83 e9 0c	 sub	 ecx, 12			; 0000000cH
  0003d	83 ea 01	 sub	 edx, 1
  00040	79 f0		 jns	 SHORT $LL8@AddTail
$LN11@AddTail:

; 916  : 		}
; 917  : 	}
; 918  : 	ENSURE(m_pNodeFree != NULL);  // we must have something

  00042	8b 4e 10	 mov	 ecx, DWORD PTR [esi+16]
  00045	85 c9		 test	 ecx, ecx
  00047	74 39		 je	 SHORT $LN22@AddTail

; 919  : 
; 920  : 	CList::CNode* pNode = m_pNodeFree;
; 921  : 	m_pNodeFree = m_pNodeFree->pNext;

  00049	8b 01		 mov	 eax, DWORD PTR [ecx]
  0004b	89 46 10	 mov	 DWORD PTR [esi+16], eax

; 969  : 	pNewNode->data = newElement;

  0004e	8b 45 08	 mov	 eax, DWORD PTR _newElement$[ebp]

; 922  : 	pNode->pPrev = pPrev;

  00051	89 79 04	 mov	 DWORD PTR [ecx+4], edi

; 923  : 	pNode->pNext = pNext;

  00054	c7 01 00 00 00
	00		 mov	 DWORD PTR [ecx], 0

; 924  : 	m_nCount++;

  0005a	ff 46 0c	 inc	 DWORD PTR [esi+12]

; 969  : 	pNewNode->data = newElement;

  0005d	89 41 08	 mov	 DWORD PTR [ecx+8], eax

; 970  : 	if (m_pNodeTail != NULL)

  00060	8b 46 08	 mov	 eax, DWORD PTR [esi+8]
  00063	85 c0		 test	 eax, eax
  00065	74 0d		 je	 SHORT $LN2@AddTail

; 971  : 		m_pNodeTail->pNext = pNewNode;

  00067	89 08		 mov	 DWORD PTR [eax], ecx

; 972  : 	else
; 973  : 		m_pNodeHead = pNewNode;
; 974  : 	m_pNodeTail = pNewNode;
; 975  : 	return (POSITION) pNewNode;

  00069	8b c1		 mov	 eax, ecx
  0006b	5f		 pop	 edi
  0006c	89 4e 08	 mov	 DWORD PTR [esi+8], ecx
  0006f	5e		 pop	 esi

; 976  : }

  00070	5d		 pop	 ebp
  00071	c2 04 00	 ret	 4
$LN2@AddTail:

; 972  : 	else
; 973  : 		m_pNodeHead = pNewNode;
; 974  : 	m_pNodeTail = pNewNode;
; 975  : 	return (POSITION) pNewNode;

  00074	5f		 pop	 edi
  00075	89 4e 04	 mov	 DWORD PTR [esi+4], ecx
  00078	8b c1		 mov	 eax, ecx
  0007a	89 4e 08	 mov	 DWORD PTR [esi+8], ecx
  0007d	5e		 pop	 esi

; 976  : }

  0007e	5d		 pop	 ebp
  0007f	c2 04 00	 ret	 4
$LN22@AddTail:

; 918  : 	ENSURE(m_pNodeFree != NULL);  // we must have something

  00082	e8 00 00 00 00	 call	 ?AfxThrowInvalidArgException@@YGXXZ ; AfxThrowInvalidArgException
$LN20@AddTail:
  00087	cc		 int	 3
?AddTail@?$CList@PAVCDrawingSymbol@@PAV1@@@QAEPAU__POSITION@@PAVCDrawingSymbol@@@Z ENDP ; CList<CDrawingSymbol *,CDrawingSymbol *>::AddTail
_TEXT	ENDS
; Function compile flags: /Ogtp
; File C:\Program Files (x86)\Microsoft Visual Studio\2019\Community\VC\Tools\MSVC\14.29.30133\atlmfc\include\afxtempl.h
;	COMDAT ??0?$CList@PAVCDrawingSymbol@@PAV1@@@QAE@H@Z
_TEXT	SEGMENT
_nBlockSize$ = 8					; size = 4
??0?$CList@PAVCDrawingSymbol@@PAV1@@@QAE@H@Z PROC	; CList<CDrawingSymbol *,CDrawingSymbol *>::CList<CDrawingSymbol *,CDrawingSymbol *>, COMDAT
; _this$ = ecx

; 851  : {

  00000	55		 push	 ebp
  00001	8b ec		 mov	 ebp, esp

; 852  : 	ASSERT(nBlockSize > 0);
; 853  : 
; 854  : 	m_nCount = 0;
; 855  : 	m_pNodeHead = m_pNodeTail = m_pNodeFree = NULL;
; 856  : 	m_pBlocks = NULL;
; 857  : 	m_nBlockSize = nBlockSize;

  00003	8b 45 08	 mov	 eax, DWORD PTR _nBlockSize$[ebp]
  00006	89 41 18	 mov	 DWORD PTR [ecx+24], eax

; 858  : }

  00009	8b c1		 mov	 eax, ecx
  0000b	c7 01 00 00 00
	00		 mov	 DWORD PTR [ecx], OFFSET ??_7?$CList@PAVCDrawingSymbol@@PAV1@@@6B@
  00011	c7 41 0c 00 00
	00 00		 mov	 DWORD PTR [ecx+12], 0
  00018	c7 41 10 00 00
	00 00		 mov	 DWORD PTR [ecx+16], 0
  0001f	c7 41 08 00 00
	00 00		 mov	 DWORD PTR [ecx+8], 0
  00026	c7 41 04 00 00
	00 00		 mov	 DWORD PTR [ecx+4], 0
  0002d	c7 41 14 00 00
	00 00		 mov	 DWORD PTR [ecx+20], 0
  00034	5d		 pop	 ebp
  00035	c2 04 00	 ret	 4
??0?$CList@PAVCDrawingSymbol@@PAV1@@@QAE@H@Z ENDP	; CList<CDrawingSymbol *,CDrawingSymbol *>::CList<CDrawingSymbol *,CDrawingSymbol *>
_TEXT	ENDS
; Function compile flags: /Ogtp
; File C:\Program Files (x86)\Microsoft Visual Studio\2019\Community\VC\Tools\MSVC\14.29.30133\atlmfc\include\afx.inl
;	COMDAT ?Dump@CObject@@UBEXAAVCDumpContext@@@Z
_TEXT	SEGMENT
___formal$ = 8						; size = 4
?Dump@CObject@@UBEXAAVCDumpContext@@@Z PROC		; CObject::Dump, COMDAT
; _this$ = ecx

; 122  : 	{ /* no dumping in release builds */ }

  00000	c2 04 00	 ret	 4
?Dump@CObject@@UBEXAAVCDumpContext@@@Z ENDP		; CObject::Dump
_TEXT	ENDS
; Function compile flags: /Ogtp
; File C:\Program Files (x86)\Microsoft Visual Studio\2019\Community\VC\Tools\MSVC\14.29.30133\atlmfc\include\afx.inl
;	COMDAT ?AssertValid@CObject@@UBEXXZ
_TEXT	SEGMENT
?AssertValid@CObject@@UBEXXZ PROC			; CObject::AssertValid, COMDAT
; _this$ = ecx

; 120  : 	{ /* no asserts in release builds */ }

  00000	c2 00 00	 ret	 0
?AssertValid@CObject@@UBEXXZ ENDP			; CObject::AssertValid
_TEXT	ENDS
; Function compile flags: /Ogtp
; File C:\Program Files (x86)\Microsoft Visual Studio\2019\Community\VC\Tools\MSVC\14.29.30133\atlmfc\include\afx.inl
;	COMDAT ?Serialize@CObject@@UAEXAAVCArchive@@@Z
_TEXT	SEGMENT
___formal$ = 8						; size = 4
?Serialize@CObject@@UAEXAAVCArchive@@@Z PROC		; CObject::Serialize, COMDAT
; _this$ = ecx

; 106  : 	{ /* CObject does not serialize anything by default */ }

  00000	c2 04 00	 ret	 4
?Serialize@CObject@@UAEXAAVCArchive@@@Z ENDP		; CObject::Serialize
_TEXT	ENDS
; Function compile flags: /Ogtp
; File C:\Program Files (x86)\Microsoft Visual Studio\2019\Community\VC\Tools\MSVC\14.29.30133\atlmfc\include\afx.inl
;	COMDAT ??3CObject@@SGXPAX@Z
_TEXT	SEGMENT
_p$ = 8							; size = 4
??3CObject@@SGXPAX@Z PROC				; CObject::operator delete, COMDAT

; 112  : 	{ ::operator delete(p); }

  00000	55		 push	 ebp
  00001	8b ec		 mov	 ebp, esp
  00003	ff 75 08	 push	 DWORD PTR _p$[ebp]
  00006	e8 00 00 00 00	 call	 ??3@YAXPAX@Z		; operator delete
  0000b	83 c4 04	 add	 esp, 4
  0000e	5d		 pop	 ebp
  0000f	c2 04 00	 ret	 4
??3CObject@@SGXPAX@Z ENDP				; CObject::operator delete
_TEXT	ENDS
; Function compile flags: /Ogtp
; File C:\Program Files (x86)\Microsoft Visual Studio\2019\Community\VC\Tools\MSVC\14.29.30133\atlmfc\include\afx.inl
;	COMDAT ??1CObject@@UAE@XZ
_TEXT	SEGMENT
??1CObject@@UAE@XZ PROC					; CObject::~CObject, COMDAT
; _this$ = ecx

; 104  : 	{ }

  00000	c2 00 00	 ret	 0
??1CObject@@UAE@XZ ENDP					; CObject::~CObject
_TEXT	ENDS
; Function compile flags: /Ogtp
; File D:\git\src\IBK\IBK_DRFN\ProjSrc\SrcChartEx\ChartAddIn\ChartAnalysisToolAddIn\Symbol\MainSymbolImplementation.cpp
;	COMDAT ?__empty_global_delete@@YAXPAXI@Z
_TEXT	SEGMENT
___formal$ = 8						; size = 4
___formal$ = 12						; size = 4
?__empty_global_delete@@YAXPAXI@Z PROC			; __empty_global_delete, COMDAT

  00000	c2 00 00	 ret	 0
?__empty_global_delete@@YAXPAXI@Z ENDP			; __empty_global_delete
_TEXT	ENDS
; Function compile flags: /Ogtp
; File D:\git\src\IBK\IBK_DRFN\ProjSrc\SrcChartEx\ChartAddIn\ChartAnalysisToolAddIn\Symbol\MainSymbolImplementation.cpp
;	COMDAT ?__empty_global_delete@@YAXPAX@Z
_TEXT	SEGMENT
___formal$ = 8						; size = 4
?__empty_global_delete@@YAXPAX@Z PROC			; __empty_global_delete, COMDAT

  00000	c2 00 00	 ret	 0
?__empty_global_delete@@YAXPAX@Z ENDP			; __empty_global_delete
_TEXT	ENDS
END
