; Listing generated by Microsoft (R) Optimizing Compiler Version 19.29.30145.0 

	TITLE	D:\git\src\IBK\IBK_DRFN\#DRfn-CS\_Obj\Symbol\MainSymbol.obj
	.686P
	.XMM
	include listing.inc
	.model	flat

INCLUDELIB MSVCRT
INCLUDELIB OLDNAMES

PUBLIC	?__empty_global_delete@@YAXPAX@Z		; __empty_global_delete
PUBLIC	?__empty_global_delete@@YAXPAXI@Z		; __empty_global_delete
PUBLIC	?GetToolType@CMainSymbol@@QAE?AW4SYMBOLTOOL@CSymbol@@XZ ; CMainSymbol::GetToolType
PUBLIC	?GetSelectedToolType@CMainSymbol@@QAE?AW4SYMBOLTOOL@CSymbol@@XZ ; CMainSymbol::GetSelectedToolType
PUBLIC	?InitializeBlock@CMainSymbol@@QAEXPAVCDC@@PAVCWnd@@@Z ; CMainSymbol::InitializeBlock
PUBLIC	??0CMainSymbol@@QAE@XZ				; CMainSymbol::CMainSymbol
PUBLIC	??1CMainSymbol@@QAE@XZ				; CMainSymbol::~CMainSymbol
PUBLIC	?SetMainBlock_Object@CMainSymbol@@QAEXPAUIChartManager133101@@PAUIChartOCX133101@@@Z ; CMainSymbol::SetMainBlock_Object
PUBLIC	?CreateSymbolDlg@CMainSymbol@@QAEXXZ		; CMainSymbol::CreateSymbolDlg
PUBLIC	?IsExistBuletDlg@CMainSymbol@@QAEHXZ		; CMainSymbol::IsExistBuletDlg
PUBLIC	?DeleteSymbolDlg@CMainSymbol@@QAEXXZ		; CMainSymbol::DeleteSymbolDlg
PUBLIC	?SetCurrentSymbolTool@CMainSymbol@@QAEXW4SYMBOLTOOL@CSymbol@@@Z ; CMainSymbol::SetCurrentSymbolTool
PUBLIC	?SetShapeDrawingType@CMainSymbol@@QAEXABKABH1AB_N@Z ; CMainSymbol::SetShapeDrawingType
PUBLIC	?OnLButtonDown@CMainSymbol@@QAE_NPAVCDC@@ABVCPoint@@@Z ; CMainSymbol::OnLButtonDown
PUBLIC	?OnLButtonUp@CMainSymbol@@QAE_NPAVCDC@@ABVCPoint@@@Z ; CMainSymbol::OnLButtonUp
PUBLIC	?OnMouseMove@CMainSymbol@@QAE_NPAVCDC@@ABIABVCPoint@@@Z ; CMainSymbol::OnMouseMove
PUBLIC	?OnRButtonUp@CMainSymbol@@QAE_NABVCPoint@@@Z	; CMainSymbol::OnRButtonUp
PUBLIC	?OnLButtonDbClk@CMainSymbol@@QAE_NPAVCDC@@ABVCPoint@@@Z ; CMainSymbol::OnLButtonDbClk
PUBLIC	?OnDraw@CMainSymbol@@QAEXPAVCDC@@@Z		; CMainSymbol::OnDraw
PUBLIC	?InsertBlockIndex@CMainSymbol@@QAE_NABVCBlockIndex@@@Z ; CMainSymbol::InsertBlockIndex
PUBLIC	?SetModifiedBlockIndexs@CMainSymbol@@QAEXABVCBlockIndex@@0@Z ; CMainSymbol::SetModifiedBlockIndexs
PUBLIC	?DeleteCurrentSymbols@CMainSymbol@@QAEXXZ	; CMainSymbol::DeleteCurrentSymbols
PUBLIC	?DeleteLastSymbol@CMainSymbol@@QAEXXZ		; CMainSymbol::DeleteLastSymbol
PUBLIC	?DeleteSymbolPos@CMainSymbol@@QAE_NJ@Z		; CMainSymbol::DeleteSymbolPos
PUBLIC	?DeleteAllSymbols@CMainSymbol@@QAEXXZ		; CMainSymbol::DeleteAllSymbols
PUBLIC	?DeleteAllSymbolsInBlock@CMainSymbol@@QAEXABVCBlockIndex@@@Z ; CMainSymbol::DeleteAllSymbolsInBlock
PUBLIC	?OnRButtonMenu@CMainSymbol@@QAE_NW4ELEMENTMENU@CMenuType@@I@Z ; CMainSymbol::OnRButtonMenu
PUBLIC	?OnSetColor@CMainSymbol@@QAEXABK@Z		; CMainSymbol::OnSetColor
PUBLIC	?GetSavedSymbolsData@CMainSymbol@@QAE?AV?$CStringT@DV?$StrTraitMFC_DLL@DV?$ChTraitsCRT@D@ATL@@@@@ATL@@XZ ; CMainSymbol::GetSavedSymbolsData
PUBLIC	?BuildSymbolsFromString@CMainSymbol@@QAEXABV?$CStringT@DV?$StrTraitMFC_DLL@DV?$ChTraitsCRT@D@ATL@@@@@ATL@@@Z ; CMainSymbol::BuildSymbolsFromString
PUBLIC	?SetFilePath@CMainSymbol@@QAEXABV?$CStringT@DV?$StrTraitMFC_DLL@DV?$ChTraitsCRT@D@ATL@@@@@ATL@@@Z ; CMainSymbol::SetFilePath
PUBLIC	?SetElementCopy@CMainSymbol@@QAEXXZ		; CMainSymbol::SetElementCopy
PUBLIC	?UndoElement@CMainSymbol@@QAE_NJ@Z		; CMainSymbol::UndoElement
PUBLIC	?RedoElement@CMainSymbol@@QAE_NJ@Z		; CMainSymbol::RedoElement
PUBLIC	?DrawSymbolTool@CMainSymbol@@QAEXPAVCDC@@@Z	; CMainSymbol::DrawSymbolTool
PUBLIC	?GetDrawingTotalRegion@CMainSymbol@@QAE?AVCRect@@VCPoint@@@Z ; CMainSymbol::GetDrawingTotalRegion
PUBLIC	?ChangeAllSymbolsColor@CMainSymbol@@QAEXABK0@Z	; CMainSymbol::ChangeAllSymbolsColor
PUBLIC	?RecalcSymbolXPoint@CMainSymbol@@QAEXPBDH@Z	; CMainSymbol::RecalcSymbolXPoint
PUBLIC	?SetXScaleDrawType@CMainSymbol@@QAEXW4HORZSCALEDRAWERTYPE@CScaleBaseData@@@Z ; CMainSymbol::SetXScaleDrawType
EXTRN	??2@YAPAXI@Z:PROC				; operator new
EXTRN	??3@YAXPAXI@Z:PROC				; operator delete
EXTRN	??0CMainSymbolImplementation@@QAE@XZ:PROC	; CMainSymbolImplementation::CMainSymbolImplementation
EXTRN	?SetMainBlock_Object@CMainSymbolImplementation@@QAEXPAUIChartManager133101@@PAUIChartOCX133101@@@Z:PROC ; CMainSymbolImplementation::SetMainBlock_Object
EXTRN	?InitializeBlock@CMainSymbolImplementation@@QAEXPAVCDC@@PAVCWnd@@@Z:PROC ; CMainSymbolImplementation::InitializeBlock
EXTRN	?SetCurrentSymbolTool@CMainSymbolImplementation@@QAEXW4SYMBOLTOOL@CSymbol@@@Z:PROC ; CMainSymbolImplementation::SetCurrentSymbolTool
EXTRN	?SetShapeDrawingType@CMainSymbolImplementation@@QAEXABKABH1AB_N@Z:PROC ; CMainSymbolImplementation::SetShapeDrawingType
EXTRN	?CreateSymbolDlg@CMainSymbolImplementation@@QAEXXZ:PROC ; CMainSymbolImplementation::CreateSymbolDlg
EXTRN	?OnLButtonDown@CMainSymbolImplementation@@QAE_NPAVCDC@@ABVCPoint@@@Z:PROC ; CMainSymbolImplementation::OnLButtonDown
EXTRN	?OnLButtonDbClk@CMainSymbolImplementation@@QAE_NPAVCDC@@ABVCPoint@@@Z:PROC ; CMainSymbolImplementation::OnLButtonDbClk
EXTRN	?OnLButtonUp@CMainSymbolImplementation@@QAE_NPAVCDC@@ABVCPoint@@@Z:PROC ; CMainSymbolImplementation::OnLButtonUp
EXTRN	?OnMouseMove@CMainSymbolImplementation@@QAE_NPAVCDC@@ABIABVCPoint@@@Z:PROC ; CMainSymbolImplementation::OnMouseMove
EXTRN	?OnRButtonUp@CMainSymbolImplementation@@QAE_NABVCPoint@@@Z:PROC ; CMainSymbolImplementation::OnRButtonUp
EXTRN	?OnRButtonMenu@CMainSymbolImplementation@@QAE_NW4ELEMENTMENU@CMenuType@@I@Z:PROC ; CMainSymbolImplementation::OnRButtonMenu
EXTRN	?OnDraw@CMainSymbolImplementation@@QAEXPAVCDC@@@Z:PROC ; CMainSymbolImplementation::OnDraw
EXTRN	?OnSetColor@CMainSymbolImplementation@@QAEXABK@Z:PROC ; CMainSymbolImplementation::OnSetColor
EXTRN	?InsertBlockIndex@CMainSymbolImplementation@@QAE_NABVCBlockIndex@@@Z:PROC ; CMainSymbolImplementation::InsertBlockIndex
EXTRN	?SetModifiedBlockIndexs@CMainSymbolImplementation@@QAEXABVCBlockIndex@@0@Z:PROC ; CMainSymbolImplementation::SetModifiedBlockIndexs
EXTRN	?DeleteCurrentSymbols@CMainSymbolImplementation@@QAE_NXZ:PROC ; CMainSymbolImplementation::DeleteCurrentSymbols
EXTRN	?DeleteAllSymbols@CMainSymbolImplementation@@QAEXXZ:PROC ; CMainSymbolImplementation::DeleteAllSymbols
EXTRN	?DeleteAllSymbolsInBlock@CMainSymbolImplementation@@QAEXABVCBlockIndex@@@Z:PROC ; CMainSymbolImplementation::DeleteAllSymbolsInBlock
EXTRN	?DeleteSymbolDlg@CMainSymbolImplementation@@QAEXXZ:PROC ; CMainSymbolImplementation::DeleteSymbolDlg
EXTRN	?GetSavedSymbolsData@CMainSymbolImplementation@@QAE?AV?$CStringT@DV?$StrTraitMFC_DLL@DV?$ChTraitsCRT@D@ATL@@@@@ATL@@XZ:PROC ; CMainSymbolImplementation::GetSavedSymbolsData
EXTRN	?BuildSymbolsFromString@CMainSymbolImplementation@@QAEXABV?$CStringT@DV?$StrTraitMFC_DLL@DV?$ChTraitsCRT@D@ATL@@@@@ATL@@@Z:PROC ; CMainSymbolImplementation::BuildSymbolsFromString
EXTRN	?SetFilePath@CMainSymbolImplementation@@QAEXABV?$CStringT@DV?$StrTraitMFC_DLL@DV?$ChTraitsCRT@D@ATL@@@@@ATL@@@Z:PROC ; CMainSymbolImplementation::SetFilePath
EXTRN	?GetToolType@CMainSymbolImplementation@@QAE?AW4SYMBOLTOOL@CSymbol@@XZ:PROC ; CMainSymbolImplementation::GetToolType
EXTRN	?GetSelectedToolType@CMainSymbolImplementation@@QAE?AW4SYMBOLTOOL@CSymbol@@XZ:PROC ; CMainSymbolImplementation::GetSelectedToolType
EXTRN	?DeleteLastSymbol@CMainSymbolImplementation@@QAEXXZ:PROC ; CMainSymbolImplementation::DeleteLastSymbol
EXTRN	?DeleteSymbolPos@CMainSymbolImplementation@@QAE_NJ@Z:PROC ; CMainSymbolImplementation::DeleteSymbolPos
EXTRN	?UndoElement@CMainSymbolImplementation@@QAE_NJ@Z:PROC ; CMainSymbolImplementation::UndoElement
EXTRN	?RedoElement@CMainSymbolImplementation@@QAE_NJ@Z:PROC ; CMainSymbolImplementation::RedoElement
EXTRN	?SetElementCopy@CMainSymbolImplementation@@QAEXXZ:PROC ; CMainSymbolImplementation::SetElementCopy
EXTRN	?DrawSymbolTool@CMainSymbolImplementation@@QAEXPAVCDC@@@Z:PROC ; CMainSymbolImplementation::DrawSymbolTool
EXTRN	?GetDrawingTotalRegion@CMainSymbolImplementation@@QAE?AVCRect@@VCPoint@@@Z:PROC ; CMainSymbolImplementation::GetDrawingTotalRegion
EXTRN	?ChangeAllSymbolsColor@CMainSymbolImplementation@@QAEXABK0@Z:PROC ; CMainSymbolImplementation::ChangeAllSymbolsColor
EXTRN	?RecalcSymbolXPoint@CMainSymbolImplementation@@QAE_NPBDH@Z:PROC ; CMainSymbolImplementation::RecalcSymbolXPoint
EXTRN	?SetXScaleDrawType@CMainSymbolImplementation@@QAEXW4HORZSCALEDRAWERTYPE@CScaleBaseData@@@Z:PROC ; CMainSymbolImplementation::SetXScaleDrawType
EXTRN	?IsExistBuletDlg@CMainSymbolImplementation@@SAHXZ:PROC ; CMainSymbolImplementation::IsExistBuletDlg
EXTRN	@__security_check_cookie@4:PROC
EXTRN	___CxxFrameHandler3:PROC
EXTRN	___security_cookie:DWORD
;	COMDAT xdata$x
xdata$x	SEGMENT
__unwindtable$??0CMainSymbol@@QAE@XZ DD 0ffffffffH
	DD	FLAT:__unwindfunclet$??0CMainSymbol@@QAE@XZ$0
__ehfuncinfo$??0CMainSymbol@@QAE@XZ DD 019930522H
	DD	01H
	DD	FLAT:__unwindtable$??0CMainSymbol@@QAE@XZ
	DD	2 DUP(00H)
	DD	2 DUP(00H)
	DD	00H
	DD	01H
xdata$x	ENDS
; Function compile flags: /Ogtp
; File D:\git\src\IBK\IBK_DRFN\ProjSrc\SrcChartEx\ChartAddIn\ChartAnalysisToolAddIn\Symbol\MainSymbol.cpp
;	COMDAT ?SetXScaleDrawType@CMainSymbol@@QAEXW4HORZSCALEDRAWERTYPE@CScaleBaseData@@@Z
_TEXT	SEGMENT
_eScaleType$ = 8					; size = 4
?SetXScaleDrawType@CMainSymbol@@QAEXW4HORZSCALEDRAWERTYPE@CScaleBaseData@@@Z PROC ; CMainSymbol::SetXScaleDrawType, COMDAT
; _this$ = ecx

; 207  : {

  00000	55		 push	 ebp
  00001	8b ec		 mov	 ebp, esp

; 208  : 	m_Implementation->SetXScaleDrawType(eScaleType); 

  00003	8b 09		 mov	 ecx, DWORD PTR [ecx]

; 209  : }

  00005	5d		 pop	 ebp

; 208  : 	m_Implementation->SetXScaleDrawType(eScaleType); 

  00006	e9 00 00 00 00	 jmp	 ?SetXScaleDrawType@CMainSymbolImplementation@@QAEXW4HORZSCALEDRAWERTYPE@CScaleBaseData@@@Z ; CMainSymbolImplementation::SetXScaleDrawType
?SetXScaleDrawType@CMainSymbol@@QAEXW4HORZSCALEDRAWERTYPE@CScaleBaseData@@@Z ENDP ; CMainSymbol::SetXScaleDrawType
_TEXT	ENDS
; Function compile flags: /Ogtp
; File D:\git\src\IBK\IBK_DRFN\ProjSrc\SrcChartEx\ChartAddIn\ChartAnalysisToolAddIn\Symbol\MainSymbol.cpp
;	COMDAT ?RecalcSymbolXPoint@CMainSymbol@@QAEXPBDH@Z
_TEXT	SEGMENT
_szName$ = 8						; size = 4
_nTimeDiff$ = 12					; size = 4
?RecalcSymbolXPoint@CMainSymbol@@QAEXPBDH@Z PROC	; CMainSymbol::RecalcSymbolXPoint, COMDAT
; _this$ = ecx

; 201  : {

  00000	55		 push	 ebp
  00001	8b ec		 mov	 ebp, esp

; 202  : 	m_Implementation->RecalcSymbolXPoint(szName, nTimeDiff); 

  00003	8b 09		 mov	 ecx, DWORD PTR [ecx]

; 203  : }

  00005	5d		 pop	 ebp

; 202  : 	m_Implementation->RecalcSymbolXPoint(szName, nTimeDiff); 

  00006	e9 00 00 00 00	 jmp	 ?RecalcSymbolXPoint@CMainSymbolImplementation@@QAE_NPBDH@Z ; CMainSymbolImplementation::RecalcSymbolXPoint
?RecalcSymbolXPoint@CMainSymbol@@QAEXPBDH@Z ENDP	; CMainSymbol::RecalcSymbolXPoint
_TEXT	ENDS
; Function compile flags: /Ogtp
; File D:\git\src\IBK\IBK_DRFN\ProjSrc\SrcChartEx\ChartAddIn\ChartAnalysisToolAddIn\Symbol\MainSymbol.cpp
;	COMDAT ?ChangeAllSymbolsColor@CMainSymbol@@QAEXABK0@Z
_TEXT	SEGMENT
_crLine$ = 8						; size = 4
_crText$ = 12						; size = 4
?ChangeAllSymbolsColor@CMainSymbol@@QAEXABK0@Z PROC	; CMainSymbol::ChangeAllSymbolsColor, COMDAT
; _this$ = ecx

; 195  : {

  00000	55		 push	 ebp
  00001	8b ec		 mov	 ebp, esp

; 196  : 	m_Implementation->ChangeAllSymbolsColor(crLine,crText);

  00003	8b 09		 mov	 ecx, DWORD PTR [ecx]

; 197  : }

  00005	5d		 pop	 ebp

; 196  : 	m_Implementation->ChangeAllSymbolsColor(crLine,crText);

  00006	e9 00 00 00 00	 jmp	 ?ChangeAllSymbolsColor@CMainSymbolImplementation@@QAEXABK0@Z ; CMainSymbolImplementation::ChangeAllSymbolsColor
?ChangeAllSymbolsColor@CMainSymbol@@QAEXABK0@Z ENDP	; CMainSymbol::ChangeAllSymbolsColor
_TEXT	ENDS
; Function compile flags: /Ogtp
; File D:\git\src\IBK\IBK_DRFN\ProjSrc\SrcChartEx\ChartAddIn\ChartAnalysisToolAddIn\Symbol\MainSymbol.cpp
;	COMDAT ?GetDrawingTotalRegion@CMainSymbol@@QAE?AVCRect@@VCPoint@@@Z
_TEXT	SEGMENT
___$ReturnUdt$ = 8					; size = 4
_point$ = 12						; size = 8
?GetDrawingTotalRegion@CMainSymbol@@QAE?AVCRect@@VCPoint@@@Z PROC ; CMainSymbol::GetDrawingTotalRegion, COMDAT
; _this$ = ecx

; 185  : {

  00000	55		 push	 ebp
  00001	8b ec		 mov	 ebp, esp

; 186  : 	return m_Implementation->GetDrawingTotalRegion(point);

  00003	ff 75 10	 push	 DWORD PTR _point$[ebp+4]
  00006	8b 09		 mov	 ecx, DWORD PTR [ecx]
  00008	ff 75 0c	 push	 DWORD PTR _point$[ebp]
  0000b	ff 75 08	 push	 DWORD PTR ___$ReturnUdt$[ebp]
  0000e	e8 00 00 00 00	 call	 ?GetDrawingTotalRegion@CMainSymbolImplementation@@QAE?AVCRect@@VCPoint@@@Z ; CMainSymbolImplementation::GetDrawingTotalRegion
  00013	8b 45 08	 mov	 eax, DWORD PTR ___$ReturnUdt$[ebp]

; 187  : }

  00016	5d		 pop	 ebp
  00017	c2 0c 00	 ret	 12			; 0000000cH
?GetDrawingTotalRegion@CMainSymbol@@QAE?AVCRect@@VCPoint@@@Z ENDP ; CMainSymbol::GetDrawingTotalRegion
_TEXT	ENDS
; Function compile flags: /Ogtp
; File D:\git\src\IBK\IBK_DRFN\ProjSrc\SrcChartEx\ChartAddIn\ChartAnalysisToolAddIn\Symbol\MainSymbol.cpp
;	COMDAT ?DrawSymbolTool@CMainSymbol@@QAEXPAVCDC@@@Z
_TEXT	SEGMENT
_pDC$ = 8						; size = 4
?DrawSymbolTool@CMainSymbol@@QAEXPAVCDC@@@Z PROC	; CMainSymbol::DrawSymbolTool, COMDAT
; _this$ = ecx

; 190  : {

  00000	55		 push	 ebp
  00001	8b ec		 mov	 ebp, esp

; 191  : 	m_Implementation->DrawSymbolTool(pDC);

  00003	8b 09		 mov	 ecx, DWORD PTR [ecx]

; 192  : }

  00005	5d		 pop	 ebp

; 191  : 	m_Implementation->DrawSymbolTool(pDC);

  00006	e9 00 00 00 00	 jmp	 ?DrawSymbolTool@CMainSymbolImplementation@@QAEXPAVCDC@@@Z ; CMainSymbolImplementation::DrawSymbolTool
?DrawSymbolTool@CMainSymbol@@QAEXPAVCDC@@@Z ENDP	; CMainSymbol::DrawSymbolTool
_TEXT	ENDS
; Function compile flags: /Ogtp
; File D:\git\src\IBK\IBK_DRFN\ProjSrc\SrcChartEx\ChartAddIn\ChartAnalysisToolAddIn\Symbol\MainSymbol.cpp
;	COMDAT ?RedoElement@CMainSymbol@@QAE_NJ@Z
_TEXT	SEGMENT
_lAddress$ = 8						; size = 4
?RedoElement@CMainSymbol@@QAE_NJ@Z PROC			; CMainSymbol::RedoElement, COMDAT
; _this$ = ecx

; 125  : {

  00000	55		 push	 ebp
  00001	8b ec		 mov	 ebp, esp

; 126  : 	return m_Implementation->RedoElement(lAddress);

  00003	8b 09		 mov	 ecx, DWORD PTR [ecx]

; 127  : }

  00005	5d		 pop	 ebp

; 126  : 	return m_Implementation->RedoElement(lAddress);

  00006	e9 00 00 00 00	 jmp	 ?RedoElement@CMainSymbolImplementation@@QAE_NJ@Z ; CMainSymbolImplementation::RedoElement
?RedoElement@CMainSymbol@@QAE_NJ@Z ENDP			; CMainSymbol::RedoElement
_TEXT	ENDS
; Function compile flags: /Ogtp
; File D:\git\src\IBK\IBK_DRFN\ProjSrc\SrcChartEx\ChartAddIn\ChartAnalysisToolAddIn\Symbol\MainSymbol.cpp
;	COMDAT ?UndoElement@CMainSymbol@@QAE_NJ@Z
_TEXT	SEGMENT
_lAddress$ = 8						; size = 4
?UndoElement@CMainSymbol@@QAE_NJ@Z PROC			; CMainSymbol::UndoElement, COMDAT
; _this$ = ecx

; 120  : {

  00000	55		 push	 ebp
  00001	8b ec		 mov	 ebp, esp

; 121  : 	return m_Implementation->UndoElement(lAddress);

  00003	8b 09		 mov	 ecx, DWORD PTR [ecx]

; 122  : }

  00005	5d		 pop	 ebp

; 121  : 	return m_Implementation->UndoElement(lAddress);

  00006	e9 00 00 00 00	 jmp	 ?UndoElement@CMainSymbolImplementation@@QAE_NJ@Z ; CMainSymbolImplementation::UndoElement
?UndoElement@CMainSymbol@@QAE_NJ@Z ENDP			; CMainSymbol::UndoElement
_TEXT	ENDS
; Function compile flags: /Ogtp
; File D:\git\src\IBK\IBK_DRFN\ProjSrc\SrcChartEx\ChartAddIn\ChartAnalysisToolAddIn\Symbol\MainSymbol.cpp
;	COMDAT ?SetElementCopy@CMainSymbol@@QAEXXZ
_TEXT	SEGMENT
?SetElementCopy@CMainSymbol@@QAEXXZ PROC		; CMainSymbol::SetElementCopy, COMDAT
; _this$ = ecx

; 181  : 	m_Implementation->SetElementCopy();

  00000	8b 09		 mov	 ecx, DWORD PTR [ecx]
  00002	e9 00 00 00 00	 jmp	 ?SetElementCopy@CMainSymbolImplementation@@QAEXXZ ; CMainSymbolImplementation::SetElementCopy
?SetElementCopy@CMainSymbol@@QAEXXZ ENDP		; CMainSymbol::SetElementCopy
_TEXT	ENDS
; Function compile flags: /Ogtp
; File D:\git\src\IBK\IBK_DRFN\ProjSrc\SrcChartEx\ChartAddIn\ChartAnalysisToolAddIn\Symbol\MainSymbol.cpp
;	COMDAT ?SetFilePath@CMainSymbol@@QAEXABV?$CStringT@DV?$StrTraitMFC_DLL@DV?$ChTraitsCRT@D@ATL@@@@@ATL@@@Z
_TEXT	SEGMENT
_path$ = 8						; size = 4
?SetFilePath@CMainSymbol@@QAEXABV?$CStringT@DV?$StrTraitMFC_DLL@DV?$ChTraitsCRT@D@ATL@@@@@ATL@@@Z PROC ; CMainSymbol::SetFilePath, COMDAT
; _this$ = ecx

; 160  : {

  00000	55		 push	 ebp
  00001	8b ec		 mov	 ebp, esp

; 161  : 	m_Implementation->SetFilePath(path); 

  00003	8b 09		 mov	 ecx, DWORD PTR [ecx]

; 162  : }

  00005	5d		 pop	 ebp

; 161  : 	m_Implementation->SetFilePath(path); 

  00006	e9 00 00 00 00	 jmp	 ?SetFilePath@CMainSymbolImplementation@@QAEXABV?$CStringT@DV?$StrTraitMFC_DLL@DV?$ChTraitsCRT@D@ATL@@@@@ATL@@@Z ; CMainSymbolImplementation::SetFilePath
?SetFilePath@CMainSymbol@@QAEXABV?$CStringT@DV?$StrTraitMFC_DLL@DV?$ChTraitsCRT@D@ATL@@@@@ATL@@@Z ENDP ; CMainSymbol::SetFilePath
_TEXT	ENDS
; Function compile flags: /Ogtp
; File D:\git\src\IBK\IBK_DRFN\ProjSrc\SrcChartEx\ChartAddIn\ChartAnalysisToolAddIn\Symbol\MainSymbol.cpp
;	COMDAT ?BuildSymbolsFromString@CMainSymbol@@QAEXABV?$CStringT@DV?$StrTraitMFC_DLL@DV?$ChTraitsCRT@D@ATL@@@@@ATL@@@Z
_TEXT	SEGMENT
_Data$ = 8						; size = 4
?BuildSymbolsFromString@CMainSymbol@@QAEXABV?$CStringT@DV?$StrTraitMFC_DLL@DV?$ChTraitsCRT@D@ATL@@@@@ATL@@@Z PROC ; CMainSymbol::BuildSymbolsFromString, COMDAT
; _this$ = ecx

; 155  : {

  00000	55		 push	 ebp
  00001	8b ec		 mov	 ebp, esp

; 156  : 	m_Implementation->BuildSymbolsFromString(Data); 

  00003	8b 09		 mov	 ecx, DWORD PTR [ecx]

; 157  : }

  00005	5d		 pop	 ebp

; 156  : 	m_Implementation->BuildSymbolsFromString(Data); 

  00006	e9 00 00 00 00	 jmp	 ?BuildSymbolsFromString@CMainSymbolImplementation@@QAEXABV?$CStringT@DV?$StrTraitMFC_DLL@DV?$ChTraitsCRT@D@ATL@@@@@ATL@@@Z ; CMainSymbolImplementation::BuildSymbolsFromString
?BuildSymbolsFromString@CMainSymbol@@QAEXABV?$CStringT@DV?$StrTraitMFC_DLL@DV?$ChTraitsCRT@D@ATL@@@@@ATL@@@Z ENDP ; CMainSymbol::BuildSymbolsFromString
_TEXT	ENDS
; Function compile flags: /Ogtp
; File D:\git\src\IBK\IBK_DRFN\ProjSrc\SrcChartEx\ChartAddIn\ChartAnalysisToolAddIn\Symbol\MainSymbol.cpp
;	COMDAT ?GetSavedSymbolsData@CMainSymbol@@QAE?AV?$CStringT@DV?$StrTraitMFC_DLL@DV?$ChTraitsCRT@D@ATL@@@@@ATL@@XZ
_TEXT	SEGMENT
___$ReturnUdt$ = 8					; size = 4
?GetSavedSymbolsData@CMainSymbol@@QAE?AV?$CStringT@DV?$StrTraitMFC_DLL@DV?$ChTraitsCRT@D@ATL@@@@@ATL@@XZ PROC ; CMainSymbol::GetSavedSymbolsData, COMDAT
; _this$ = ecx

; 150  : {

  00000	55		 push	 ebp
  00001	8b ec		 mov	 ebp, esp

; 151  : 	return m_Implementation->GetSavedSymbolsData(); 

  00003	ff 75 08	 push	 DWORD PTR ___$ReturnUdt$[ebp]
  00006	8b 09		 mov	 ecx, DWORD PTR [ecx]
  00008	e8 00 00 00 00	 call	 ?GetSavedSymbolsData@CMainSymbolImplementation@@QAE?AV?$CStringT@DV?$StrTraitMFC_DLL@DV?$ChTraitsCRT@D@ATL@@@@@ATL@@XZ ; CMainSymbolImplementation::GetSavedSymbolsData
  0000d	8b 45 08	 mov	 eax, DWORD PTR ___$ReturnUdt$[ebp]

; 152  : }

  00010	5d		 pop	 ebp
  00011	c2 04 00	 ret	 4
?GetSavedSymbolsData@CMainSymbol@@QAE?AV?$CStringT@DV?$StrTraitMFC_DLL@DV?$ChTraitsCRT@D@ATL@@@@@ATL@@XZ ENDP ; CMainSymbol::GetSavedSymbolsData
_TEXT	ENDS
; Function compile flags: /Ogtp
; File D:\git\src\IBK\IBK_DRFN\ProjSrc\SrcChartEx\ChartAddIn\ChartAnalysisToolAddIn\Symbol\MainSymbol.cpp
;	COMDAT ?OnSetColor@CMainSymbol@@QAEXABK@Z
_TEXT	SEGMENT
_color$ = 8						; size = 4
?OnSetColor@CMainSymbol@@QAEXABK@Z PROC			; CMainSymbol::OnSetColor, COMDAT
; _this$ = ecx

; 145  : {

  00000	55		 push	 ebp
  00001	8b ec		 mov	 ebp, esp

; 146  : 	m_Implementation->OnSetColor(color); 

  00003	8b 09		 mov	 ecx, DWORD PTR [ecx]

; 147  : }

  00005	5d		 pop	 ebp

; 146  : 	m_Implementation->OnSetColor(color); 

  00006	e9 00 00 00 00	 jmp	 ?OnSetColor@CMainSymbolImplementation@@QAEXABK@Z ; CMainSymbolImplementation::OnSetColor
?OnSetColor@CMainSymbol@@QAEXABK@Z ENDP			; CMainSymbol::OnSetColor
_TEXT	ENDS
; Function compile flags: /Ogtp
; File D:\git\src\IBK\IBK_DRFN\ProjSrc\SrcChartEx\ChartAddIn\ChartAnalysisToolAddIn\Symbol\MainSymbol.cpp
;	COMDAT ?OnRButtonMenu@CMainSymbol@@QAE_NW4ELEMENTMENU@CMenuType@@I@Z
_TEXT	SEGMENT
_menuType$ = 8						; size = 4
_wParam$ = 12						; size = 4
?OnRButtonMenu@CMainSymbol@@QAE_NW4ELEMENTMENU@CMenuType@@I@Z PROC ; CMainSymbol::OnRButtonMenu, COMDAT
; _this$ = ecx

; 140  : {

  00000	55		 push	 ebp
  00001	8b ec		 mov	 ebp, esp

; 141  : 	return m_Implementation->OnRButtonMenu(menuType, wParam); 

  00003	8b 09		 mov	 ecx, DWORD PTR [ecx]

; 142  : }

  00005	5d		 pop	 ebp

; 141  : 	return m_Implementation->OnRButtonMenu(menuType, wParam); 

  00006	e9 00 00 00 00	 jmp	 ?OnRButtonMenu@CMainSymbolImplementation@@QAE_NW4ELEMENTMENU@CMenuType@@I@Z ; CMainSymbolImplementation::OnRButtonMenu
?OnRButtonMenu@CMainSymbol@@QAE_NW4ELEMENTMENU@CMenuType@@I@Z ENDP ; CMainSymbol::OnRButtonMenu
_TEXT	ENDS
; Function compile flags: /Ogtp
; File D:\git\src\IBK\IBK_DRFN\ProjSrc\SrcChartEx\ChartAddIn\ChartAnalysisToolAddIn\Symbol\MainSymbol.cpp
;	COMDAT ?DeleteAllSymbolsInBlock@CMainSymbol@@QAEXABVCBlockIndex@@@Z
_TEXT	SEGMENT
_blockIndex$ = 8					; size = 4
?DeleteAllSymbolsInBlock@CMainSymbol@@QAEXABVCBlockIndex@@@Z PROC ; CMainSymbol::DeleteAllSymbolsInBlock, COMDAT
; _this$ = ecx

; 135  : {

  00000	55		 push	 ebp
  00001	8b ec		 mov	 ebp, esp

; 136  : 	m_Implementation->DeleteAllSymbolsInBlock(blockIndex); 

  00003	8b 09		 mov	 ecx, DWORD PTR [ecx]

; 137  : }

  00005	5d		 pop	 ebp

; 136  : 	m_Implementation->DeleteAllSymbolsInBlock(blockIndex); 

  00006	e9 00 00 00 00	 jmp	 ?DeleteAllSymbolsInBlock@CMainSymbolImplementation@@QAEXABVCBlockIndex@@@Z ; CMainSymbolImplementation::DeleteAllSymbolsInBlock
?DeleteAllSymbolsInBlock@CMainSymbol@@QAEXABVCBlockIndex@@@Z ENDP ; CMainSymbol::DeleteAllSymbolsInBlock
_TEXT	ENDS
; Function compile flags: /Ogtp
; File D:\git\src\IBK\IBK_DRFN\ProjSrc\SrcChartEx\ChartAddIn\ChartAnalysisToolAddIn\Symbol\MainSymbol.cpp
;	COMDAT ?DeleteAllSymbols@CMainSymbol@@QAEXXZ
_TEXT	SEGMENT
?DeleteAllSymbols@CMainSymbol@@QAEXXZ PROC		; CMainSymbol::DeleteAllSymbols, COMDAT
; _this$ = ecx

; 131  : 	m_Implementation->DeleteAllSymbols(); 

  00000	8b 09		 mov	 ecx, DWORD PTR [ecx]
  00002	e9 00 00 00 00	 jmp	 ?DeleteAllSymbols@CMainSymbolImplementation@@QAEXXZ ; CMainSymbolImplementation::DeleteAllSymbols
?DeleteAllSymbols@CMainSymbol@@QAEXXZ ENDP		; CMainSymbol::DeleteAllSymbols
_TEXT	ENDS
; Function compile flags: /Ogtp
; File D:\git\src\IBK\IBK_DRFN\ProjSrc\SrcChartEx\ChartAddIn\ChartAnalysisToolAddIn\Symbol\MainSymbol.cpp
;	COMDAT ?DeleteSymbolPos@CMainSymbol@@QAE_NJ@Z
_TEXT	SEGMENT
_lAddress$ = 8						; size = 4
?DeleteSymbolPos@CMainSymbol@@QAE_NJ@Z PROC		; CMainSymbol::DeleteSymbolPos, COMDAT
; _this$ = ecx

; 115  : {

  00000	55		 push	 ebp
  00001	8b ec		 mov	 ebp, esp

; 116  : 	return m_Implementation->DeleteSymbolPos(lAddress); 

  00003	8b 09		 mov	 ecx, DWORD PTR [ecx]

; 117  : }

  00005	5d		 pop	 ebp

; 116  : 	return m_Implementation->DeleteSymbolPos(lAddress); 

  00006	e9 00 00 00 00	 jmp	 ?DeleteSymbolPos@CMainSymbolImplementation@@QAE_NJ@Z ; CMainSymbolImplementation::DeleteSymbolPos
?DeleteSymbolPos@CMainSymbol@@QAE_NJ@Z ENDP		; CMainSymbol::DeleteSymbolPos
_TEXT	ENDS
; Function compile flags: /Ogtp
; File D:\git\src\IBK\IBK_DRFN\ProjSrc\SrcChartEx\ChartAddIn\ChartAnalysisToolAddIn\Symbol\MainSymbol.cpp
;	COMDAT ?DeleteLastSymbol@CMainSymbol@@QAEXXZ
_TEXT	SEGMENT
?DeleteLastSymbol@CMainSymbol@@QAEXXZ PROC		; CMainSymbol::DeleteLastSymbol, COMDAT
; _this$ = ecx

; 111  : 	m_Implementation->DeleteLastSymbol(); 

  00000	8b 09		 mov	 ecx, DWORD PTR [ecx]
  00002	e9 00 00 00 00	 jmp	 ?DeleteLastSymbol@CMainSymbolImplementation@@QAEXXZ ; CMainSymbolImplementation::DeleteLastSymbol
?DeleteLastSymbol@CMainSymbol@@QAEXXZ ENDP		; CMainSymbol::DeleteLastSymbol
_TEXT	ENDS
; Function compile flags: /Ogtp
; File D:\git\src\IBK\IBK_DRFN\ProjSrc\SrcChartEx\ChartAddIn\ChartAnalysisToolAddIn\Symbol\MainSymbol.cpp
;	COMDAT ?DeleteCurrentSymbols@CMainSymbol@@QAEXXZ
_TEXT	SEGMENT
?DeleteCurrentSymbols@CMainSymbol@@QAEXXZ PROC		; CMainSymbol::DeleteCurrentSymbols, COMDAT
; _this$ = ecx

; 105  : 	m_Implementation->DeleteCurrentSymbols(); 

  00000	8b 09		 mov	 ecx, DWORD PTR [ecx]
  00002	e9 00 00 00 00	 jmp	 ?DeleteCurrentSymbols@CMainSymbolImplementation@@QAE_NXZ ; CMainSymbolImplementation::DeleteCurrentSymbols
?DeleteCurrentSymbols@CMainSymbol@@QAEXXZ ENDP		; CMainSymbol::DeleteCurrentSymbols
_TEXT	ENDS
; Function compile flags: /Ogtp
; File D:\git\src\IBK\IBK_DRFN\ProjSrc\SrcChartEx\ChartAddIn\ChartAnalysisToolAddIn\Symbol\MainSymbol.cpp
;	COMDAT ?SetModifiedBlockIndexs@CMainSymbol@@QAEXABVCBlockIndex@@0@Z
_TEXT	SEGMENT
_sourceBlockIndex$ = 8					; size = 4
_TargetBlockIndex$ = 12					; size = 4
?SetModifiedBlockIndexs@CMainSymbol@@QAEXABVCBlockIndex@@0@Z PROC ; CMainSymbol::SetModifiedBlockIndexs, COMDAT
; _this$ = ecx

; 98   : {

  00000	55		 push	 ebp
  00001	8b ec		 mov	 ebp, esp

; 99   : 	m_Implementation->SetModifiedBlockIndexs(sourceBlockIndex, TargetBlockIndex);

  00003	8b 09		 mov	 ecx, DWORD PTR [ecx]

; 100  : }

  00005	5d		 pop	 ebp

; 99   : 	m_Implementation->SetModifiedBlockIndexs(sourceBlockIndex, TargetBlockIndex);

  00006	e9 00 00 00 00	 jmp	 ?SetModifiedBlockIndexs@CMainSymbolImplementation@@QAEXABVCBlockIndex@@0@Z ; CMainSymbolImplementation::SetModifiedBlockIndexs
?SetModifiedBlockIndexs@CMainSymbol@@QAEXABVCBlockIndex@@0@Z ENDP ; CMainSymbol::SetModifiedBlockIndexs
_TEXT	ENDS
; Function compile flags: /Ogtp
; File D:\git\src\IBK\IBK_DRFN\ProjSrc\SrcChartEx\ChartAddIn\ChartAnalysisToolAddIn\Symbol\MainSymbol.cpp
;	COMDAT ?InsertBlockIndex@CMainSymbol@@QAE_NABVCBlockIndex@@@Z
_TEXT	SEGMENT
_insertBlockIndex$ = 8					; size = 4
?InsertBlockIndex@CMainSymbol@@QAE_NABVCBlockIndex@@@Z PROC ; CMainSymbol::InsertBlockIndex, COMDAT
; _this$ = ecx

; 93   : {

  00000	55		 push	 ebp
  00001	8b ec		 mov	 ebp, esp

; 94   : 	return m_Implementation->InsertBlockIndex(insertBlockIndex);	

  00003	8b 09		 mov	 ecx, DWORD PTR [ecx]

; 95   : }

  00005	5d		 pop	 ebp

; 94   : 	return m_Implementation->InsertBlockIndex(insertBlockIndex);	

  00006	e9 00 00 00 00	 jmp	 ?InsertBlockIndex@CMainSymbolImplementation@@QAE_NABVCBlockIndex@@@Z ; CMainSymbolImplementation::InsertBlockIndex
?InsertBlockIndex@CMainSymbol@@QAE_NABVCBlockIndex@@@Z ENDP ; CMainSymbol::InsertBlockIndex
_TEXT	ENDS
; Function compile flags: /Ogtp
; File D:\git\src\IBK\IBK_DRFN\ProjSrc\SrcChartEx\ChartAddIn\ChartAnalysisToolAddIn\Symbol\MainSymbol.cpp
;	COMDAT ?OnDraw@CMainSymbol@@QAEXPAVCDC@@@Z
_TEXT	SEGMENT
_pDC$ = 8						; size = 4
?OnDraw@CMainSymbol@@QAEXPAVCDC@@@Z PROC		; CMainSymbol::OnDraw, COMDAT
; _this$ = ecx

; 87   : {

  00000	55		 push	 ebp
  00001	8b ec		 mov	 ebp, esp

; 88   : 	m_Implementation->OnDraw(pDC);

  00003	8b 09		 mov	 ecx, DWORD PTR [ecx]

; 89   : }	

  00005	5d		 pop	 ebp

; 88   : 	m_Implementation->OnDraw(pDC);

  00006	e9 00 00 00 00	 jmp	 ?OnDraw@CMainSymbolImplementation@@QAEXPAVCDC@@@Z ; CMainSymbolImplementation::OnDraw
?OnDraw@CMainSymbol@@QAEXPAVCDC@@@Z ENDP		; CMainSymbol::OnDraw
_TEXT	ENDS
; Function compile flags: /Ogtp
; File D:\git\src\IBK\IBK_DRFN\ProjSrc\SrcChartEx\ChartAddIn\ChartAnalysisToolAddIn\Symbol\MainSymbol.cpp
;	COMDAT ?OnLButtonDbClk@CMainSymbol@@QAE_NPAVCDC@@ABVCPoint@@@Z
_TEXT	SEGMENT
_pDC$ = 8						; size = 4
_point$ = 12						; size = 4
?OnLButtonDbClk@CMainSymbol@@QAE_NPAVCDC@@ABVCPoint@@@Z PROC ; CMainSymbol::OnLButtonDbClk, COMDAT
; _this$ = ecx

; 82   : {

  00000	55		 push	 ebp
  00001	8b ec		 mov	 ebp, esp

; 83   : 	return m_Implementation->OnLButtonDbClk(pDC, point);

  00003	8b 09		 mov	 ecx, DWORD PTR [ecx]

; 84   : }

  00005	5d		 pop	 ebp

; 83   : 	return m_Implementation->OnLButtonDbClk(pDC, point);

  00006	e9 00 00 00 00	 jmp	 ?OnLButtonDbClk@CMainSymbolImplementation@@QAE_NPAVCDC@@ABVCPoint@@@Z ; CMainSymbolImplementation::OnLButtonDbClk
?OnLButtonDbClk@CMainSymbol@@QAE_NPAVCDC@@ABVCPoint@@@Z ENDP ; CMainSymbol::OnLButtonDbClk
_TEXT	ENDS
; Function compile flags: /Ogtp
; File D:\git\src\IBK\IBK_DRFN\ProjSrc\SrcChartEx\ChartAddIn\ChartAnalysisToolAddIn\Symbol\MainSymbol.cpp
;	COMDAT ?OnRButtonUp@CMainSymbol@@QAE_NABVCPoint@@@Z
_TEXT	SEGMENT
_point$ = 8						; size = 4
?OnRButtonUp@CMainSymbol@@QAE_NABVCPoint@@@Z PROC	; CMainSymbol::OnRButtonUp, COMDAT
; _this$ = ecx

; 77   : {

  00000	55		 push	 ebp
  00001	8b ec		 mov	 ebp, esp

; 78   : 	return m_Implementation->OnRButtonUp(point);

  00003	8b 09		 mov	 ecx, DWORD PTR [ecx]

; 79   : }

  00005	5d		 pop	 ebp

; 78   : 	return m_Implementation->OnRButtonUp(point);

  00006	e9 00 00 00 00	 jmp	 ?OnRButtonUp@CMainSymbolImplementation@@QAE_NABVCPoint@@@Z ; CMainSymbolImplementation::OnRButtonUp
?OnRButtonUp@CMainSymbol@@QAE_NABVCPoint@@@Z ENDP	; CMainSymbol::OnRButtonUp
_TEXT	ENDS
; Function compile flags: /Ogtp
; File D:\git\src\IBK\IBK_DRFN\ProjSrc\SrcChartEx\ChartAddIn\ChartAnalysisToolAddIn\Symbol\MainSymbol.cpp
;	COMDAT ?OnMouseMove@CMainSymbol@@QAE_NPAVCDC@@ABIABVCPoint@@@Z
_TEXT	SEGMENT
_pDC$ = 8						; size = 4
_nFlags$ = 12						; size = 4
_point$ = 16						; size = 4
?OnMouseMove@CMainSymbol@@QAE_NPAVCDC@@ABIABVCPoint@@@Z PROC ; CMainSymbol::OnMouseMove, COMDAT
; _this$ = ecx

; 72   : {

  00000	55		 push	 ebp
  00001	8b ec		 mov	 ebp, esp

; 73   : 	return m_Implementation->OnMouseMove(pDC,nFlags, point);

  00003	8b 09		 mov	 ecx, DWORD PTR [ecx]

; 74   : }

  00005	5d		 pop	 ebp

; 73   : 	return m_Implementation->OnMouseMove(pDC,nFlags, point);

  00006	e9 00 00 00 00	 jmp	 ?OnMouseMove@CMainSymbolImplementation@@QAE_NPAVCDC@@ABIABVCPoint@@@Z ; CMainSymbolImplementation::OnMouseMove
?OnMouseMove@CMainSymbol@@QAE_NPAVCDC@@ABIABVCPoint@@@Z ENDP ; CMainSymbol::OnMouseMove
_TEXT	ENDS
; Function compile flags: /Ogtp
; File D:\git\src\IBK\IBK_DRFN\ProjSrc\SrcChartEx\ChartAddIn\ChartAnalysisToolAddIn\Symbol\MainSymbol.cpp
;	COMDAT ?OnLButtonUp@CMainSymbol@@QAE_NPAVCDC@@ABVCPoint@@@Z
_TEXT	SEGMENT
_pDC$ = 8						; size = 4
_point$ = 12						; size = 4
?OnLButtonUp@CMainSymbol@@QAE_NPAVCDC@@ABVCPoint@@@Z PROC ; CMainSymbol::OnLButtonUp, COMDAT
; _this$ = ecx

; 67   : {

  00000	55		 push	 ebp
  00001	8b ec		 mov	 ebp, esp

; 68   : 	return m_Implementation->OnLButtonUp(pDC, point);

  00003	8b 09		 mov	 ecx, DWORD PTR [ecx]

; 69   : }

  00005	5d		 pop	 ebp

; 68   : 	return m_Implementation->OnLButtonUp(pDC, point);

  00006	e9 00 00 00 00	 jmp	 ?OnLButtonUp@CMainSymbolImplementation@@QAE_NPAVCDC@@ABVCPoint@@@Z ; CMainSymbolImplementation::OnLButtonUp
?OnLButtonUp@CMainSymbol@@QAE_NPAVCDC@@ABVCPoint@@@Z ENDP ; CMainSymbol::OnLButtonUp
_TEXT	ENDS
; Function compile flags: /Ogtp
; File D:\git\src\IBK\IBK_DRFN\ProjSrc\SrcChartEx\ChartAddIn\ChartAnalysisToolAddIn\Symbol\MainSymbol.cpp
;	COMDAT ?OnLButtonDown@CMainSymbol@@QAE_NPAVCDC@@ABVCPoint@@@Z
_TEXT	SEGMENT
_pDC$ = 8						; size = 4
_point$ = 12						; size = 4
?OnLButtonDown@CMainSymbol@@QAE_NPAVCDC@@ABVCPoint@@@Z PROC ; CMainSymbol::OnLButtonDown, COMDAT
; _this$ = ecx

; 62   : {

  00000	55		 push	 ebp
  00001	8b ec		 mov	 ebp, esp

; 63   : 	return m_Implementation->OnLButtonDown(pDC, point);

  00003	8b 09		 mov	 ecx, DWORD PTR [ecx]

; 64   : }

  00005	5d		 pop	 ebp

; 63   : 	return m_Implementation->OnLButtonDown(pDC, point);

  00006	e9 00 00 00 00	 jmp	 ?OnLButtonDown@CMainSymbolImplementation@@QAE_NPAVCDC@@ABVCPoint@@@Z ; CMainSymbolImplementation::OnLButtonDown
?OnLButtonDown@CMainSymbol@@QAE_NPAVCDC@@ABVCPoint@@@Z ENDP ; CMainSymbol::OnLButtonDown
_TEXT	ENDS
; Function compile flags: /Ogtp
; File D:\git\src\IBK\IBK_DRFN\ProjSrc\SrcChartEx\ChartAddIn\ChartAnalysisToolAddIn\Symbol\MainSymbol.cpp
;	COMDAT ?SetShapeDrawingType@CMainSymbol@@QAEXABKABH1AB_N@Z
_TEXT	SEGMENT
_crLine$ = 8						; size = 4
_nStyle$ = 12						; size = 4
_nWeight$ = 16						; size = 4
_bFill$ = 20						; size = 4
?SetShapeDrawingType@CMainSymbol@@QAEXABKABH1AB_N@Z PROC ; CMainSymbol::SetShapeDrawingType, COMDAT
; _this$ = ecx

; 57   : {

  00000	55		 push	 ebp
  00001	8b ec		 mov	 ebp, esp

; 58   : 	m_Implementation->SetShapeDrawingType(crLine,nStyle,nWeight,bFill);

  00003	8b 09		 mov	 ecx, DWORD PTR [ecx]

; 59   : }

  00005	5d		 pop	 ebp

; 58   : 	m_Implementation->SetShapeDrawingType(crLine,nStyle,nWeight,bFill);

  00006	e9 00 00 00 00	 jmp	 ?SetShapeDrawingType@CMainSymbolImplementation@@QAEXABKABH1AB_N@Z ; CMainSymbolImplementation::SetShapeDrawingType
?SetShapeDrawingType@CMainSymbol@@QAEXABKABH1AB_N@Z ENDP ; CMainSymbol::SetShapeDrawingType
_TEXT	ENDS
; Function compile flags: /Ogtp
; File D:\git\src\IBK\IBK_DRFN\ProjSrc\SrcChartEx\ChartAddIn\ChartAnalysisToolAddIn\Symbol\MainSymbol.cpp
;	COMDAT ?SetCurrentSymbolTool@CMainSymbol@@QAEXW4SYMBOLTOOL@CSymbol@@@Z
_TEXT	SEGMENT
_symbolType$ = 8					; size = 4
?SetCurrentSymbolTool@CMainSymbol@@QAEXW4SYMBOLTOOL@CSymbol@@@Z PROC ; CMainSymbol::SetCurrentSymbolTool, COMDAT
; _this$ = ecx

; 52   : {

  00000	55		 push	 ebp
  00001	8b ec		 mov	 ebp, esp

; 53   : 	m_Implementation->SetCurrentSymbolTool(symbolType);

  00003	8b 09		 mov	 ecx, DWORD PTR [ecx]

; 54   : }

  00005	5d		 pop	 ebp

; 53   : 	m_Implementation->SetCurrentSymbolTool(symbolType);

  00006	e9 00 00 00 00	 jmp	 ?SetCurrentSymbolTool@CMainSymbolImplementation@@QAEXW4SYMBOLTOOL@CSymbol@@@Z ; CMainSymbolImplementation::SetCurrentSymbolTool
?SetCurrentSymbolTool@CMainSymbol@@QAEXW4SYMBOLTOOL@CSymbol@@@Z ENDP ; CMainSymbol::SetCurrentSymbolTool
_TEXT	ENDS
; Function compile flags: /Ogtp
; File D:\git\src\IBK\IBK_DRFN\ProjSrc\SrcChartEx\ChartAddIn\ChartAnalysisToolAddIn\Symbol\MainSymbol.cpp
;	COMDAT ?DeleteSymbolDlg@CMainSymbol@@QAEXXZ
_TEXT	SEGMENT
?DeleteSymbolDlg@CMainSymbol@@QAEXXZ PROC		; CMainSymbol::DeleteSymbolDlg, COMDAT
; _this$ = ecx

; 48   : 	m_Implementation->DeleteSymbolDlg();

  00000	8b 09		 mov	 ecx, DWORD PTR [ecx]
  00002	e9 00 00 00 00	 jmp	 ?DeleteSymbolDlg@CMainSymbolImplementation@@QAEXXZ ; CMainSymbolImplementation::DeleteSymbolDlg
?DeleteSymbolDlg@CMainSymbol@@QAEXXZ ENDP		; CMainSymbol::DeleteSymbolDlg
_TEXT	ENDS
; Function compile flags: /Ogtp
; File D:\git\src\IBK\IBK_DRFN\ProjSrc\SrcChartEx\ChartAddIn\ChartAnalysisToolAddIn\Symbol\MainSymbol.cpp
;	COMDAT ?IsExistBuletDlg@CMainSymbol@@QAEHXZ
_TEXT	SEGMENT
?IsExistBuletDlg@CMainSymbol@@QAEHXZ PROC		; CMainSymbol::IsExistBuletDlg, COMDAT
; _this$ = ecx

; 43   : 	return m_Implementation->IsExistBuletDlg();

  00000	e9 00 00 00 00	 jmp	 ?IsExistBuletDlg@CMainSymbolImplementation@@SAHXZ ; CMainSymbolImplementation::IsExistBuletDlg
?IsExistBuletDlg@CMainSymbol@@QAEHXZ ENDP		; CMainSymbol::IsExistBuletDlg
_TEXT	ENDS
; Function compile flags: /Ogtp
; File D:\git\src\IBK\IBK_DRFN\ProjSrc\SrcChartEx\ChartAddIn\ChartAnalysisToolAddIn\Symbol\MainSymbol.cpp
;	COMDAT ?CreateSymbolDlg@CMainSymbol@@QAEXXZ
_TEXT	SEGMENT
?CreateSymbolDlg@CMainSymbol@@QAEXXZ PROC		; CMainSymbol::CreateSymbolDlg, COMDAT
; _this$ = ecx

; 38   : 	m_Implementation->CreateSymbolDlg();

  00000	8b 09		 mov	 ecx, DWORD PTR [ecx]
  00002	e9 00 00 00 00	 jmp	 ?CreateSymbolDlg@CMainSymbolImplementation@@QAEXXZ ; CMainSymbolImplementation::CreateSymbolDlg
?CreateSymbolDlg@CMainSymbol@@QAEXXZ ENDP		; CMainSymbol::CreateSymbolDlg
_TEXT	ENDS
; Function compile flags: /Ogtp
; File D:\git\src\IBK\IBK_DRFN\ProjSrc\SrcChartEx\ChartAddIn\ChartAnalysisToolAddIn\Symbol\MainSymbol.cpp
;	COMDAT ?SetMainBlock_Object@CMainSymbol@@QAEXPAUIChartManager133101@@PAUIChartOCX133101@@@Z
_TEXT	SEGMENT
_pMainBlock$ = 8					; size = 4
_p_pIChartOCX$ = 12					; size = 4
?SetMainBlock_Object@CMainSymbol@@QAEXPAUIChartManager133101@@PAUIChartOCX133101@@@Z PROC ; CMainSymbol::SetMainBlock_Object, COMDAT
; _this$ = ecx

; 32   : {

  00000	55		 push	 ebp
  00001	8b ec		 mov	 ebp, esp

; 33   : 	m_Implementation->SetMainBlock_Object(pMainBlock,p_pIChartOCX);

  00003	8b 09		 mov	 ecx, DWORD PTR [ecx]

; 34   : }

  00005	5d		 pop	 ebp

; 33   : 	m_Implementation->SetMainBlock_Object(pMainBlock,p_pIChartOCX);

  00006	e9 00 00 00 00	 jmp	 ?SetMainBlock_Object@CMainSymbolImplementation@@QAEXPAUIChartManager133101@@PAUIChartOCX133101@@@Z ; CMainSymbolImplementation::SetMainBlock_Object
?SetMainBlock_Object@CMainSymbol@@QAEXPAUIChartManager133101@@PAUIChartOCX133101@@@Z ENDP ; CMainSymbol::SetMainBlock_Object
_TEXT	ENDS
; Function compile flags: /Ogtp
; File D:\git\src\IBK\IBK_DRFN\ProjSrc\SrcChartEx\ChartAddIn\ChartAnalysisToolAddIn\Symbol\MainSymbol.cpp
;	COMDAT ??1CMainSymbol@@QAE@XZ
_TEXT	SEGMENT
??1CMainSymbol@@QAE@XZ PROC				; CMainSymbol::~CMainSymbol, COMDAT
; _this$ = ecx

; 27   : 	delete m_Implementation;

  00000	8b 09		 mov	 ecx, DWORD PTR [ecx]
  00002	85 c9		 test	 ecx, ecx
  00004	74 06		 je	 SHORT $LN3@CMainSymbo
  00006	8b 01		 mov	 eax, DWORD PTR [ecx]
  00008	6a 01		 push	 1
  0000a	ff 10		 call	 DWORD PTR [eax]
$LN3@CMainSymbo:

; 28   : }

  0000c	c3		 ret	 0
??1CMainSymbol@@QAE@XZ ENDP				; CMainSymbol::~CMainSymbol
_TEXT	ENDS
; Function compile flags: /Ogtp
; File D:\git\src\IBK\IBK_DRFN\ProjSrc\SrcChartEx\ChartAddIn\ChartAnalysisToolAddIn\Symbol\MainSymbol.cpp
;	COMDAT ??0CMainSymbol@@QAE@XZ
_TEXT	SEGMENT
$T2 = -16						; size = 4
__$EHRec$ = -12						; size = 12
??0CMainSymbol@@QAE@XZ PROC				; CMainSymbol::CMainSymbol, COMDAT
; _this$ = ecx

; 21   : {

  00000	55		 push	 ebp
  00001	8b ec		 mov	 ebp, esp
  00003	6a ff		 push	 -1
  00005	68 00 00 00 00	 push	 __ehhandler$??0CMainSymbol@@QAE@XZ
  0000a	64 a1 00 00 00
	00		 mov	 eax, DWORD PTR fs:0
  00010	50		 push	 eax
  00011	51		 push	 ecx
  00012	56		 push	 esi
  00013	a1 00 00 00 00	 mov	 eax, DWORD PTR ___security_cookie
  00018	33 c5		 xor	 eax, ebp
  0001a	50		 push	 eax
  0001b	8d 45 f4	 lea	 eax, DWORD PTR __$EHRec$[ebp]
  0001e	64 a3 00 00 00
	00		 mov	 DWORD PTR fs:0, eax
  00024	8b f1		 mov	 esi, ecx

; 22   : 	m_Implementation = new CMainSymbolImplementation();

  00026	68 bc 01 00 00	 push	 444			; 000001bcH
  0002b	c7 06 00 00 00
	00		 mov	 DWORD PTR [esi], 0
  00031	e8 00 00 00 00	 call	 ??2@YAPAXI@Z		; operator new
  00036	83 c4 04	 add	 esp, 4
  00039	89 45 f0	 mov	 DWORD PTR $T2[ebp], eax
  0003c	c7 45 fc 00 00
	00 00		 mov	 DWORD PTR __$EHRec$[ebp+8], 0
  00043	85 c0		 test	 eax, eax
  00045	74 1b		 je	 SHORT $LN3@CMainSymbo
  00047	8b c8		 mov	 ecx, eax
  00049	e8 00 00 00 00	 call	 ??0CMainSymbolImplementation@@QAE@XZ ; CMainSymbolImplementation::CMainSymbolImplementation
  0004e	89 06		 mov	 DWORD PTR [esi], eax

; 23   : }

  00050	8b c6		 mov	 eax, esi
  00052	8b 4d f4	 mov	 ecx, DWORD PTR __$EHRec$[ebp]
  00055	64 89 0d 00 00
	00 00		 mov	 DWORD PTR fs:0, ecx
  0005c	59		 pop	 ecx
  0005d	5e		 pop	 esi
  0005e	8b e5		 mov	 esp, ebp
  00060	5d		 pop	 ebp
  00061	c3		 ret	 0
$LN3@CMainSymbo:

; 22   : 	m_Implementation = new CMainSymbolImplementation();

  00062	c7 06 00 00 00
	00		 mov	 DWORD PTR [esi], 0

; 23   : }

  00068	8b c6		 mov	 eax, esi
  0006a	8b 4d f4	 mov	 ecx, DWORD PTR __$EHRec$[ebp]
  0006d	64 89 0d 00 00
	00 00		 mov	 DWORD PTR fs:0, ecx
  00074	59		 pop	 ecx
  00075	5e		 pop	 esi
  00076	8b e5		 mov	 esp, ebp
  00078	5d		 pop	 ebp
  00079	c3		 ret	 0
_TEXT	ENDS
;	COMDAT text$x
text$x	SEGMENT
__unwindfunclet$??0CMainSymbol@@QAE@XZ$0:
  00000	68 bc 01 00 00	 push	 444			; 000001bcH
  00005	8b 45 f0	 mov	 eax, DWORD PTR $T2[ebp]
  00008	50		 push	 eax
  00009	e8 00 00 00 00	 call	 ??3@YAXPAXI@Z		; operator delete
  0000e	83 c4 08	 add	 esp, 8
  00011	c3		 ret	 0
  00012	cc		 int	 3
  00013	cc		 int	 3
  00014	cc		 int	 3
  00015	cc		 int	 3
  00016	cc		 int	 3
__ehhandler$??0CMainSymbol@@QAE@XZ:
  00017	90		 npad	 1
  00018	90		 npad	 1
  00019	8b 54 24 08	 mov	 edx, DWORD PTR [esp+8]
  0001d	8d 42 0c	 lea	 eax, DWORD PTR [edx+12]
  00020	8b 4a f4	 mov	 ecx, DWORD PTR [edx-12]
  00023	33 c8		 xor	 ecx, eax
  00025	e8 00 00 00 00	 call	 @__security_check_cookie@4
  0002a	b8 00 00 00 00	 mov	 eax, OFFSET __ehfuncinfo$??0CMainSymbol@@QAE@XZ
  0002f	e9 00 00 00 00	 jmp	 ___CxxFrameHandler3
text$x	ENDS
??0CMainSymbol@@QAE@XZ ENDP				; CMainSymbol::CMainSymbol
; Function compile flags: /Ogtp
; File D:\git\src\IBK\IBK_DRFN\ProjSrc\SrcChartEx\ChartAddIn\ChartAnalysisToolAddIn\Symbol\MainSymbol.cpp
;	COMDAT ?InitializeBlock@CMainSymbol@@QAEXPAVCDC@@PAVCWnd@@@Z
_TEXT	SEGMENT
_pDC$ = 8						; size = 4
_pParentWnd$ = 12					; size = 4
?InitializeBlock@CMainSymbol@@QAEXPAVCDC@@PAVCWnd@@@Z PROC ; CMainSymbol::InitializeBlock, COMDAT
; _this$ = ecx

; 165  : {

  00000	55		 push	 ebp
  00001	8b ec		 mov	 ebp, esp

; 166  : 	m_Implementation->InitializeBlock(pDC, pParentWnd); 

  00003	8b 09		 mov	 ecx, DWORD PTR [ecx]

; 167  : }

  00005	5d		 pop	 ebp

; 166  : 	m_Implementation->InitializeBlock(pDC, pParentWnd); 

  00006	e9 00 00 00 00	 jmp	 ?InitializeBlock@CMainSymbolImplementation@@QAEXPAVCDC@@PAVCWnd@@@Z ; CMainSymbolImplementation::InitializeBlock
?InitializeBlock@CMainSymbol@@QAEXPAVCDC@@PAVCWnd@@@Z ENDP ; CMainSymbol::InitializeBlock
_TEXT	ENDS
; Function compile flags: /Ogtp
; File D:\git\src\IBK\IBK_DRFN\ProjSrc\SrcChartEx\ChartAddIn\ChartAnalysisToolAddIn\Symbol\MainSymbol.cpp
;	COMDAT ?GetSelectedToolType@CMainSymbol@@QAE?AW4SYMBOLTOOL@CSymbol@@XZ
_TEXT	SEGMENT
?GetSelectedToolType@CMainSymbol@@QAE?AW4SYMBOLTOOL@CSymbol@@XZ PROC ; CMainSymbol::GetSelectedToolType, COMDAT
; _this$ = ecx

; 176  : 	return m_Implementation->GetSelectedToolType(); 	

  00000	8b 09		 mov	 ecx, DWORD PTR [ecx]
  00002	e9 00 00 00 00	 jmp	 ?GetSelectedToolType@CMainSymbolImplementation@@QAE?AW4SYMBOLTOOL@CSymbol@@XZ ; CMainSymbolImplementation::GetSelectedToolType
?GetSelectedToolType@CMainSymbol@@QAE?AW4SYMBOLTOOL@CSymbol@@XZ ENDP ; CMainSymbol::GetSelectedToolType
_TEXT	ENDS
; Function compile flags: /Ogtp
; File D:\git\src\IBK\IBK_DRFN\ProjSrc\SrcChartEx\ChartAddIn\ChartAnalysisToolAddIn\Symbol\MainSymbol.cpp
;	COMDAT ?GetToolType@CMainSymbol@@QAE?AW4SYMBOLTOOL@CSymbol@@XZ
_TEXT	SEGMENT
?GetToolType@CMainSymbol@@QAE?AW4SYMBOLTOOL@CSymbol@@XZ PROC ; CMainSymbol::GetToolType, COMDAT
; _this$ = ecx

; 171  : 	return m_Implementation->GetToolType(); 	

  00000	8b 09		 mov	 ecx, DWORD PTR [ecx]
  00002	e9 00 00 00 00	 jmp	 ?GetToolType@CMainSymbolImplementation@@QAE?AW4SYMBOLTOOL@CSymbol@@XZ ; CMainSymbolImplementation::GetToolType
?GetToolType@CMainSymbol@@QAE?AW4SYMBOLTOOL@CSymbol@@XZ ENDP ; CMainSymbol::GetToolType
_TEXT	ENDS
; Function compile flags: /Ogtp
; File D:\git\src\IBK\IBK_DRFN\ProjSrc\SrcChartEx\ChartAddIn\ChartAnalysisToolAddIn\Symbol\MainSymbol.cpp
;	COMDAT ?__empty_global_delete@@YAXPAXI@Z
_TEXT	SEGMENT
___formal$ = 8						; size = 4
___formal$ = 12						; size = 4
?__empty_global_delete@@YAXPAXI@Z PROC			; __empty_global_delete, COMDAT

  00000	c2 00 00	 ret	 0
?__empty_global_delete@@YAXPAXI@Z ENDP			; __empty_global_delete
_TEXT	ENDS
; Function compile flags: /Ogtp
; File D:\git\src\IBK\IBK_DRFN\ProjSrc\SrcChartEx\ChartAddIn\ChartAnalysisToolAddIn\Symbol\MainSymbol.cpp
;	COMDAT ?__empty_global_delete@@YAXPAX@Z
_TEXT	SEGMENT
___formal$ = 8						; size = 4
?__empty_global_delete@@YAXPAX@Z PROC			; __empty_global_delete, COMDAT

  00000	c2 00 00	 ret	 0
?__empty_global_delete@@YAXPAX@Z ENDP			; __empty_global_delete
_TEXT	ENDS
END
