; Listing generated by Microsoft (R) Optimizing Compiler Version 19.29.30145.0 

	TITLE	D:\git\src\IBK\IBK_DRFN\#DRfn-CS\_Obj\Symbol\OrderSet.obj
	.686P
	.XMM
	include listing.inc
	.model	flat

INCLUDELIB MSVCRT
INCLUDELIB OLDNAMES

PUBLIC	?__empty_global_delete@@YAXPAX@Z		; __empty_global_delete
PUBLIC	?__empty_global_delete@@YAXPAXI@Z		; __empty_global_delete
PUBLIC	??1CObject@@UAE@XZ				; CObject::~CObject
PUBLIC	?Serialize@CObject@@UAEXAAVCArchive@@@Z		; CObject::Serialize
PUBLIC	?AssertValid@CObject@@UBEXXZ			; CObject::AssertValid
PUBLIC	?Dump@CObject@@UBEXAAVCDumpContext@@@Z		; CObject::Dump
PUBLIC	??1COrderSet@@UAE@XZ				; COrderSet::~COrderSet
PUBLIC	?Add@COrderSet@@QAEXHPAVCDrawingSymbol@@@Z	; COrderSet::Add
PUBLIC	?GetElement@COrderSet@@QBEPAVCDrawingSymbol@@H@Z ; COrderSet::GetElement
PUBLIC	?GetCount@COrderSet@@QBEHXZ			; COrderSet::GetCount
PUBLIC	?GetHeadPosition@COrderSet@@QBEPAU__POSITION@@XZ ; COrderSet::GetHeadPosition
PUBLIC	?GetNext@COrderSet@@QBEPAVCOrderAndElement@@AAPAU__POSITION@@@Z ; COrderSet::GetNext
PUBLIC	?GetNext@COrderSet@@QAEAAPAVCOrderAndElement@@AAPAU__POSITION@@@Z ; COrderSet::GetNext
PUBLIC	?AddTail@?$CList@PAVCOrderAndElement@@PAV1@@@QAEPAU__POSITION@@PAVCOrderAndElement@@@Z ; CList<COrderAndElement *,COrderAndElement *>::AddTail
PUBLIC	?RemoveAll@?$CList@PAVCOrderAndElement@@PAV1@@@QAEXXZ ; CList<COrderAndElement *,COrderAndElement *>::RemoveAll
PUBLIC	?NewNode@?$CList@PAVCOrderAndElement@@PAV1@@@IAEPAUCNode@1@PAU21@0@Z ; CList<COrderAndElement *,COrderAndElement *>::NewNode
PUBLIC	??1?$CList@PAVCOrderAndElement@@PAV1@@@UAE@XZ	; CList<COrderAndElement *,COrderAndElement *>::~CList<COrderAndElement *,COrderAndElement *>
PUBLIC	?Serialize@?$CList@PAVCOrderAndElement@@PAV1@@@UAEXAAVCArchive@@@Z ; CList<COrderAndElement *,COrderAndElement *>::Serialize
PUBLIC	??_G?$CList@PAVCOrderAndElement@@PAV1@@@UAEPAXI@Z ; CList<COrderAndElement *,COrderAndElement *>::`scalar deleting destructor'
PUBLIC	??_GCOrderSet@@UAEPAXI@Z			; COrderSet::`scalar deleting destructor'
PUBLIC	??$SerializeElements@PAVCOrderAndElement@@@@YGXAAVCArchive@@PAPAVCOrderAndElement@@H@Z ; SerializeElements<COrderAndElement *>
PUBLIC	??_R0?AVCObject@@@8				; CObject `RTTI Type Descriptor'
PUBLIC	??_R3CObject@@8					; CObject::`RTTI Class Hierarchy Descriptor'
PUBLIC	??_R2CObject@@8					; CObject::`RTTI Base Class Array'
PUBLIC	??_R1A@?0A@EA@CObject@@8			; CObject::`RTTI Base Class Descriptor at (0,-1,0,64)'
PUBLIC	??_7?$CList@PAVCOrderAndElement@@PAV1@@@6B@	; CList<COrderAndElement *,COrderAndElement *>::`vftable'
PUBLIC	??_7COrderSet@@6B@				; COrderSet::`vftable'
PUBLIC	??_R4COrderSet@@6B@				; COrderSet::`RTTI Complete Object Locator'
PUBLIC	??_R0?AVCOrderSet@@@8				; COrderSet `RTTI Type Descriptor'
PUBLIC	??_R3COrderSet@@8				; COrderSet::`RTTI Class Hierarchy Descriptor'
PUBLIC	??_R2COrderSet@@8				; COrderSet::`RTTI Base Class Array'
PUBLIC	??_R1A@?0A@EA@COrderSet@@8			; COrderSet::`RTTI Base Class Descriptor at (0,-1,0,64)'
PUBLIC	??_R4?$CList@PAVCOrderAndElement@@PAV1@@@6B@	; CList<COrderAndElement *,COrderAndElement *>::`RTTI Complete Object Locator'
PUBLIC	??_R0?AV?$CList@PAVCOrderAndElement@@PAV1@@@@8	; CList<COrderAndElement *,COrderAndElement *> `RTTI Type Descriptor'
PUBLIC	??_R3?$CList@PAVCOrderAndElement@@PAV1@@@8	; CList<COrderAndElement *,COrderAndElement *>::`RTTI Class Hierarchy Descriptor'
PUBLIC	??_R2?$CList@PAVCOrderAndElement@@PAV1@@@8	; CList<COrderAndElement *,COrderAndElement *>::`RTTI Base Class Array'
PUBLIC	??_R1A@?0A@EA@?$CList@PAVCOrderAndElement@@PAV1@@@8 ; CList<COrderAndElement *,COrderAndElement *>::`RTTI Base Class Descriptor at (0,-1,0,64)'
EXTRN	??2@YAPAXI@Z:PROC				; operator new
EXTRN	??3@YAXPAX@Z:PROC				; operator delete
EXTRN	??3@YAXPAXI@Z:PROC				; operator delete
EXTRN	?__global_delete@@YAXPAXI@Z:PROC		; __global_delete
EXTRN	___std_terminate:PROC
EXTRN	?AfxThrowInvalidArgException@@YGXXZ:PROC	; AfxThrowInvalidArgException
EXTRN	?AfxThrowArchiveException@@YGXHPBD@Z:PROC	; AfxThrowArchiveException
EXTRN	?GetRuntimeClass@CObject@@UBEPAUCRuntimeClass@@XZ:PROC ; CObject::GetRuntimeClass
EXTRN	?Read@CArchive@@QAEIPAXI@Z:PROC			; CArchive::Read
EXTRN	?Write@CArchive@@QAEXPBXI@Z:PROC		; CArchive::Write
EXTRN	?ReadCount@CArchive@@QAEKXZ:PROC		; CArchive::ReadCount
EXTRN	?WriteCount@CArchive@@QAEXK@Z:PROC		; CArchive::WriteCount
EXTRN	?Create@CPlex@@SGPAU1@AAPAU1@II@Z:PROC		; CPlex::Create
EXTRN	?FreeDataChain@CPlex@@QAEXXZ:PROC		; CPlex::FreeDataChain
EXTRN	??_E?$CList@PAVCOrderAndElement@@PAV1@@@UAEPAXI@Z:PROC ; CList<COrderAndElement *,COrderAndElement *>::`vector deleting destructor'
EXTRN	??_ECOrderSet@@UAEPAXI@Z:PROC			; COrderSet::`vector deleting destructor'
EXTRN	??0COrderAndElement@@QAE@HPAVCDrawingSymbol@@@Z:PROC ; COrderAndElement::COrderAndElement
EXTRN	?GetIndex@COrderAndElement@@QAEHXZ:PROC		; COrderAndElement::GetIndex
EXTRN	?GetElement@COrderAndElement@@QAEPAVCDrawingSymbol@@XZ:PROC ; COrderAndElement::GetElement
EXTRN	@__security_check_cookie@4:PROC
EXTRN	___CxxFrameHandler3:PROC
EXTRN	??_7type_info@@6B@:QWORD			; type_info::`vftable'
EXTRN	___security_cookie:DWORD
;	COMDAT ??_R1A@?0A@EA@?$CList@PAVCOrderAndElement@@PAV1@@@8
rdata$r	SEGMENT
??_R1A@?0A@EA@?$CList@PAVCOrderAndElement@@PAV1@@@8 DD FLAT:??_R0?AV?$CList@PAVCOrderAndElement@@PAV1@@@@8 ; CList<COrderAndElement *,COrderAndElement *>::`RTTI Base Class Descriptor at (0,-1,0,64)'
	DD	01H
	DD	00H
	DD	0ffffffffH
	DD	00H
	DD	040H
	DD	FLAT:??_R3?$CList@PAVCOrderAndElement@@PAV1@@@8
rdata$r	ENDS
;	COMDAT ??_R2?$CList@PAVCOrderAndElement@@PAV1@@@8
rdata$r	SEGMENT
??_R2?$CList@PAVCOrderAndElement@@PAV1@@@8 DD FLAT:??_R1A@?0A@EA@?$CList@PAVCOrderAndElement@@PAV1@@@8 ; CList<COrderAndElement *,COrderAndElement *>::`RTTI Base Class Array'
	DD	FLAT:??_R1A@?0A@EA@CObject@@8
rdata$r	ENDS
;	COMDAT ??_R3?$CList@PAVCOrderAndElement@@PAV1@@@8
rdata$r	SEGMENT
??_R3?$CList@PAVCOrderAndElement@@PAV1@@@8 DD 00H	; CList<COrderAndElement *,COrderAndElement *>::`RTTI Class Hierarchy Descriptor'
	DD	00H
	DD	02H
	DD	FLAT:??_R2?$CList@PAVCOrderAndElement@@PAV1@@@8
rdata$r	ENDS
;	COMDAT ??_R0?AV?$CList@PAVCOrderAndElement@@PAV1@@@@8
data$rs	SEGMENT
??_R0?AV?$CList@PAVCOrderAndElement@@PAV1@@@@8 DD FLAT:??_7type_info@@6B@ ; CList<COrderAndElement *,COrderAndElement *> `RTTI Type Descriptor'
	DD	00H
	DB	'.?AV?$CList@PAVCOrderAndElement@@PAV1@@@', 00H
data$rs	ENDS
;	COMDAT ??_R4?$CList@PAVCOrderAndElement@@PAV1@@@6B@
rdata$r	SEGMENT
??_R4?$CList@PAVCOrderAndElement@@PAV1@@@6B@ DD 00H	; CList<COrderAndElement *,COrderAndElement *>::`RTTI Complete Object Locator'
	DD	00H
	DD	00H
	DD	FLAT:??_R0?AV?$CList@PAVCOrderAndElement@@PAV1@@@@8
	DD	FLAT:??_R3?$CList@PAVCOrderAndElement@@PAV1@@@8
rdata$r	ENDS
;	COMDAT ??_R1A@?0A@EA@COrderSet@@8
rdata$r	SEGMENT
??_R1A@?0A@EA@COrderSet@@8 DD FLAT:??_R0?AVCOrderSet@@@8 ; COrderSet::`RTTI Base Class Descriptor at (0,-1,0,64)'
	DD	00H
	DD	00H
	DD	0ffffffffH
	DD	00H
	DD	040H
	DD	FLAT:??_R3COrderSet@@8
rdata$r	ENDS
;	COMDAT ??_R2COrderSet@@8
rdata$r	SEGMENT
??_R2COrderSet@@8 DD FLAT:??_R1A@?0A@EA@COrderSet@@8	; COrderSet::`RTTI Base Class Array'
rdata$r	ENDS
;	COMDAT ??_R3COrderSet@@8
rdata$r	SEGMENT
??_R3COrderSet@@8 DD 00H				; COrderSet::`RTTI Class Hierarchy Descriptor'
	DD	00H
	DD	01H
	DD	FLAT:??_R2COrderSet@@8
rdata$r	ENDS
;	COMDAT ??_R0?AVCOrderSet@@@8
data$rs	SEGMENT
??_R0?AVCOrderSet@@@8 DD FLAT:??_7type_info@@6B@	; COrderSet `RTTI Type Descriptor'
	DD	00H
	DB	'.?AVCOrderSet@@', 00H
data$rs	ENDS
;	COMDAT ??_R4COrderSet@@6B@
rdata$r	SEGMENT
??_R4COrderSet@@6B@ DD 00H				; COrderSet::`RTTI Complete Object Locator'
	DD	00H
	DD	00H
	DD	FLAT:??_R0?AVCOrderSet@@@8
	DD	FLAT:??_R3COrderSet@@8
rdata$r	ENDS
;	COMDAT ??_7COrderSet@@6B@
CONST	SEGMENT
??_7COrderSet@@6B@ DD FLAT:??_R4COrderSet@@6B@		; COrderSet::`vftable'
	DD	FLAT:??_ECOrderSet@@UAEPAXI@Z
CONST	ENDS
;	COMDAT ??_7?$CList@PAVCOrderAndElement@@PAV1@@@6B@
CONST	SEGMENT
??_7?$CList@PAVCOrderAndElement@@PAV1@@@6B@ DD FLAT:??_R4?$CList@PAVCOrderAndElement@@PAV1@@@6B@ ; CList<COrderAndElement *,COrderAndElement *>::`vftable'
	DD	FLAT:?GetRuntimeClass@CObject@@UBEPAUCRuntimeClass@@XZ
	DD	FLAT:??_E?$CList@PAVCOrderAndElement@@PAV1@@@UAEPAXI@Z
	DD	FLAT:?Serialize@?$CList@PAVCOrderAndElement@@PAV1@@@UAEXAAVCArchive@@@Z
	DD	FLAT:?AssertValid@CObject@@UBEXXZ
	DD	FLAT:?Dump@CObject@@UBEXAAVCDumpContext@@@Z
CONST	ENDS
;	COMDAT ??_R1A@?0A@EA@CObject@@8
rdata$r	SEGMENT
??_R1A@?0A@EA@CObject@@8 DD FLAT:??_R0?AVCObject@@@8	; CObject::`RTTI Base Class Descriptor at (0,-1,0,64)'
	DD	00H
	DD	00H
	DD	0ffffffffH
	DD	00H
	DD	040H
	DD	FLAT:??_R3CObject@@8
rdata$r	ENDS
;	COMDAT ??_R2CObject@@8
rdata$r	SEGMENT
??_R2CObject@@8 DD FLAT:??_R1A@?0A@EA@CObject@@8	; CObject::`RTTI Base Class Array'
rdata$r	ENDS
;	COMDAT ??_R3CObject@@8
rdata$r	SEGMENT
??_R3CObject@@8 DD 00H					; CObject::`RTTI Class Hierarchy Descriptor'
	DD	00H
	DD	01H
	DD	FLAT:??_R2CObject@@8
rdata$r	ENDS
;	COMDAT ??_R0?AVCObject@@@8
data$rs	SEGMENT
??_R0?AVCObject@@@8 DD FLAT:??_7type_info@@6B@		; CObject `RTTI Type Descriptor'
	DD	00H
	DB	'.?AVCObject@@', 00H
data$rs	ENDS
;	COMDAT xdata$x
xdata$x	SEGMENT
__unwindtable$??_GCOrderSet@@UAEPAXI@Z DD 0ffffffffH
	DD	FLAT:___std_terminate
	DD	00H
	DD	FLAT:___std_terminate
__ehfuncinfo$??_GCOrderSet@@UAEPAXI@Z DD 019930522H
	DD	02H
	DD	FLAT:__unwindtable$??_GCOrderSet@@UAEPAXI@Z
	DD	2 DUP(00H)
	DD	2 DUP(00H)
	DD	00H
	DD	05H
xdata$x	ENDS
;	COMDAT xdata$x
xdata$x	SEGMENT
__unwindtable$??_G?$CList@PAVCOrderAndElement@@PAV1@@@UAEPAXI@Z DD 0ffffffffH
	DD	FLAT:___std_terminate
__ehfuncinfo$??_G?$CList@PAVCOrderAndElement@@PAV1@@@UAEPAXI@Z DD 019930522H
	DD	01H
	DD	FLAT:__unwindtable$??_G?$CList@PAVCOrderAndElement@@PAV1@@@UAEPAXI@Z
	DD	2 DUP(00H)
	DD	2 DUP(00H)
	DD	00H
	DD	05H
xdata$x	ENDS
;	COMDAT xdata$x
xdata$x	SEGMENT
__ehfuncinfo$??1?$CList@PAVCOrderAndElement@@PAV1@@@UAE@XZ DD 019930522H
	DD	00H
	DD	00H
	DD	2 DUP(00H)
	DD	2 DUP(00H)
	DD	00H
	DD	05H
xdata$x	ENDS
;	COMDAT xdata$x
xdata$x	SEGMENT
__unwindtable$?Add@COrderSet@@QAEXHPAVCDrawingSymbol@@@Z DD 0ffffffffH
	DD	FLAT:__unwindfunclet$?Add@COrderSet@@QAEXHPAVCDrawingSymbol@@@Z$0
__ehfuncinfo$?Add@COrderSet@@QAEXHPAVCDrawingSymbol@@@Z DD 019930522H
	DD	01H
	DD	FLAT:__unwindtable$?Add@COrderSet@@QAEXHPAVCDrawingSymbol@@@Z
	DD	2 DUP(00H)
	DD	2 DUP(00H)
	DD	00H
	DD	01H
xdata$x	ENDS
;	COMDAT xdata$x
xdata$x	SEGMENT
__unwindtable$??1COrderSet@@UAE@XZ DD 0ffffffffH
	DD	FLAT:___std_terminate
__ehfuncinfo$??1COrderSet@@UAE@XZ DD 019930522H
	DD	01H
	DD	FLAT:__unwindtable$??1COrderSet@@UAE@XZ
	DD	2 DUP(00H)
	DD	2 DUP(00H)
	DD	00H
	DD	05H
xdata$x	ENDS
; Function compile flags: /Ogtp
; File C:\Program Files (x86)\Microsoft Visual Studio\2019\Community\VC\Tools\MSVC\14.29.30133\atlmfc\include\afxtempl.h
; File C:\Program Files (x86)\Microsoft Visual Studio\2019\Community\VC\Tools\MSVC\14.29.30133\atlmfc\include\afx.inl
; File C:\Program Files (x86)\Microsoft Visual Studio\2019\Community\VC\Tools\MSVC\14.29.30133\atlmfc\include\afxtempl.h
; File C:\Program Files (x86)\Microsoft Visual Studio\2019\Community\VC\Tools\MSVC\14.29.30133\atlmfc\include\afx.inl
; File C:\Program Files (x86)\Microsoft Visual Studio\2019\Community\VC\Tools\MSVC\14.29.30133\atlmfc\include\afxtempl.h
; File C:\Program Files (x86)\Microsoft Visual Studio\2019\Community\VC\Tools\MSVC\14.29.30133\atlmfc\include\afx.inl
; File C:\Program Files (x86)\Microsoft Visual Studio\2019\Community\VC\Tools\MSVC\14.29.30133\atlmfc\include\afxtempl.h
;	COMDAT ??$SerializeElements@PAVCOrderAndElement@@@@YGXAAVCArchive@@PAPAVCOrderAndElement@@H@Z
_TEXT	SEGMENT
_ar$ = 8						; size = 4
_pElements$ = 12					; size = 4
_nCount$ = 16						; size = 4
??$SerializeElements@PAVCOrderAndElement@@@@YGXAAVCArchive@@PAPAVCOrderAndElement@@H@Z PROC ; SerializeElements<COrderAndElement *>, COMDAT

; 67   : {

  00000	55		 push	 ebp
  00001	8b ec		 mov	 ebp, esp

; 68   : 	ENSURE(nCount == 0 || pElements != NULL);

  00003	8b 4d 0c	 mov	 ecx, DWORD PTR _pElements$[ebp]
  00006	53		 push	 ebx
  00007	56		 push	 esi
  00008	8b 75 10	 mov	 esi, DWORD PTR _nCount$[ebp]
  0000b	57		 push	 edi
  0000c	85 f6		 test	 esi, esi
  0000e	74 08		 je	 SHORT $LN2@SerializeE
  00010	85 c9		 test	 ecx, ecx
  00012	0f 84 89 00 00
	00		 je	 $LN34@SerializeE
$LN2@SerializeE:
; File C:\Program Files (x86)\Microsoft Visual Studio\2019\Community\VC\Tools\MSVC\14.29.30133\atlmfc\include\afx.inl

; 212  : 	{ return (m_nMode & CArchive::load) == 0; }

  00018	8b 55 08	 mov	 edx, DWORD PTR _ar$[ebp]
  0001b	8b 42 18	 mov	 eax, DWORD PTR [edx+24]
  0001e	f7 d0		 not	 eax
  00020	a8 01		 test	 al, 1
; File C:\Program Files (x86)\Microsoft Visual Studio\2019\Community\VC\Tools\MSVC\14.29.30133\atlmfc\include\afxtempl.h

; 73   : 	if (ar.IsStoring())

  00022	74 3c		 je	 SHORT $LN10@SerializeE

; 74   : 	{
; 75   : 		TYPE* pData;
; 76   : 		UINT_PTR nElementsLeft;
; 77   : 
; 78   : 		nElementsLeft = nCount;
; 79   : 		pData = pElements;
; 80   : 		while( nElementsLeft > 0 )

  00024	85 f6		 test	 esi, esi
  00026	74 31		 je	 SHORT $LN8@SerializeE
  00028	0f 1f 84 00 00
	00 00 00	 npad	 8
$LL5@SerializeE:

; 81   : 		{
; 82   : 			UINT nElementsToWrite;
; 83   : 
; 84   : 			nElementsToWrite = UINT(__min(nElementsLeft, INT_MAX/sizeof(TYPE)));

  00030	bb ff ff ff 1f	 mov	 ebx, 536870911		; 1fffffffH
  00035	3b f3		 cmp	 esi, ebx
  00037	0f 42 de	 cmovb	 ebx, esi

; 85   : 			ar.Write(pData, nElementsToWrite*sizeof(TYPE));

  0003a	8d 3c 9d 00 00
	00 00		 lea	 edi, DWORD PTR [ebx*4]
  00041	57		 push	 edi
  00042	51		 push	 ecx
  00043	8b ca		 mov	 ecx, edx
  00045	e8 00 00 00 00	 call	 ?Write@CArchive@@QAEXPBXI@Z ; CArchive::Write

; 86   : 			nElementsLeft -= nElementsToWrite;
; 87   : 			pData += nElementsToWrite;

  0004a	8b 4d 0c	 mov	 ecx, DWORD PTR _pElements$[ebp]
  0004d	8b 55 08	 mov	 edx, DWORD PTR _ar$[ebp]
  00050	03 cf		 add	 ecx, edi
  00052	89 4d 0c	 mov	 DWORD PTR _pElements$[ebp], ecx
  00055	2b f3		 sub	 esi, ebx
  00057	75 d7		 jne	 SHORT $LL5@SerializeE
$LN8@SerializeE:
  00059	5f		 pop	 edi

; 105  : 		}
; 106  : 	}
; 107  : }

  0005a	5e		 pop	 esi
  0005b	5b		 pop	 ebx
  0005c	5d		 pop	 ebp
  0005d	c2 0c 00	 ret	 12			; 0000000cH
$LN10@SerializeE:

; 97   : 		while( nElementsLeft > 0 )

  00060	85 f6		 test	 esi, esi
  00062	74 f5		 je	 SHORT $LN8@SerializeE
$LL7@SerializeE:

; 98   : 		{
; 99   : 			UINT nElementsToRead;
; 100  : 
; 101  : 			nElementsToRead = UINT(__min(nElementsLeft, INT_MAX/sizeof(TYPE)));

  00064	bf ff ff ff 1f	 mov	 edi, 536870911		; 1fffffffH
  00069	3b f7		 cmp	 esi, edi
  0006b	0f 42 fe	 cmovb	 edi, esi

; 102  : 			ar.EnsureRead(pData, nElementsToRead*sizeof(TYPE));

  0006e	8d 1c bd 00 00
	00 00		 lea	 ebx, DWORD PTR [edi*4]
; File C:\Program Files (x86)\Microsoft Visual Studio\2019\Community\VC\Tools\MSVC\14.29.30133\atlmfc\include\afx.inl

; 399  : 	UINT nRead=Read(lpBuf, nCount);

  00075	53		 push	 ebx
  00076	51		 push	 ecx
  00077	8b ca		 mov	 ecx, edx
  00079	e8 00 00 00 00	 call	 ?Read@CArchive@@QAEIPAXI@Z ; CArchive::Read

; 400  : 	if(nRead!=nCount)

  0007e	3b c3		 cmp	 eax, ebx
  00080	75 16		 jne	 SHORT $LN23@SerializeE
; File C:\Program Files (x86)\Microsoft Visual Studio\2019\Community\VC\Tools\MSVC\14.29.30133\atlmfc\include\afxtempl.h

; 97   : 		while( nElementsLeft > 0 )

  00082	8b 4d 0c	 mov	 ecx, DWORD PTR _pElements$[ebp]
  00085	8b 55 08	 mov	 edx, DWORD PTR _ar$[ebp]

; 103  : 			nElementsLeft -= nElementsToRead;
; 104  : 			pData += nElementsToRead;

  00088	03 cb		 add	 ecx, ebx
  0008a	89 4d 0c	 mov	 DWORD PTR _pElements$[ebp], ecx
  0008d	2b f7		 sub	 esi, edi
  0008f	75 d3		 jne	 SHORT $LL7@SerializeE

; 105  : 		}
; 106  : 	}
; 107  : }

  00091	5f		 pop	 edi
  00092	5e		 pop	 esi
  00093	5b		 pop	 ebx
  00094	5d		 pop	 ebp
  00095	c2 0c 00	 ret	 12			; 0000000cH
$LN23@SerializeE:
; File C:\Program Files (x86)\Microsoft Visual Studio\2019\Community\VC\Tools\MSVC\14.29.30133\atlmfc\include\afx.inl

; 402  : 		AfxThrowArchiveException(CArchiveException::endOfFile);

  00098	6a 00		 push	 0
  0009a	6a 03		 push	 3
  0009c	e8 00 00 00 00	 call	 ?AfxThrowArchiveException@@YGXHPBD@Z ; AfxThrowArchiveException
$LN34@SerializeE:
; File C:\Program Files (x86)\Microsoft Visual Studio\2019\Community\VC\Tools\MSVC\14.29.30133\atlmfc\include\afxtempl.h

; 68   : 	ENSURE(nCount == 0 || pElements != NULL);

  000a1	e8 00 00 00 00	 call	 ?AfxThrowInvalidArgException@@YGXXZ ; AfxThrowInvalidArgException
$LN32@SerializeE:
  000a6	cc		 int	 3
??$SerializeElements@PAVCOrderAndElement@@@@YGXAAVCArchive@@PAPAVCOrderAndElement@@H@Z ENDP ; SerializeElements<COrderAndElement *>
_TEXT	ENDS
; Function compile flags: /Ogtp
; File D:\git\src\IBK\IBK_DRFN\ProjSrc\SrcChartEx\ChartAddIn\ChartAnalysisToolAddIn\Symbol\OrderSet.cpp
; File C:\Program Files (x86)\Microsoft Visual Studio\2019\Community\VC\Tools\MSVC\14.29.30133\atlmfc\include\afxtempl.h
; File D:\git\src\IBK\IBK_DRFN\ProjSrc\SrcChartEx\ChartAddIn\ChartAnalysisToolAddIn\Symbol\OrderSet.cpp
; File C:\Program Files (x86)\Microsoft Visual Studio\2019\Community\VC\Tools\MSVC\14.29.30133\atlmfc\include\afxtempl.h
;	COMDAT ??_GCOrderSet@@UAEPAXI@Z
_TEXT	SEGMENT
__$EHRec$ = -12						; size = 12
___flags$ = 8						; size = 4
??_GCOrderSet@@UAEPAXI@Z PROC				; COrderSet::`scalar deleting destructor', COMDAT
; _this$ = ecx
  00000	55		 push	 ebp
  00001	8b ec		 mov	 ebp, esp
  00003	6a ff		 push	 -1
  00005	68 00 00 00 00	 push	 __ehhandler$??_GCOrderSet@@UAEPAXI@Z
  0000a	64 a1 00 00 00
	00		 mov	 eax, DWORD PTR fs:0
  00010	50		 push	 eax
  00011	56		 push	 esi
  00012	57		 push	 edi
  00013	a1 00 00 00 00	 mov	 eax, DWORD PTR ___security_cookie
  00018	33 c5		 xor	 eax, ebp
  0001a	50		 push	 eax
  0001b	8d 45 f4	 lea	 eax, DWORD PTR __$EHRec$[ebp]
  0001e	64 a3 00 00 00
	00		 mov	 DWORD PTR fs:0, eax
  00024	8b f9		 mov	 edi, ecx
; File D:\git\src\IBK\IBK_DRFN\ProjSrc\SrcChartEx\ChartAddIn\ChartAnalysisToolAddIn\Symbol\OrderSet.cpp

; 23   : 	POSITION pos = m_orderList.GetHeadPosition();

  00026	8b 77 08	 mov	 esi, DWORD PTR [edi+8]
  00029	c7 45 fc 00 00
	00 00		 mov	 DWORD PTR __$EHRec$[ebp+8], 0
  00030	c7 07 00 00 00
	00		 mov	 DWORD PTR [edi], OFFSET ??_7COrderSet@@6B@

; 24   : 	while(pos) {

  00036	85 f6		 test	 esi, esi
  00038	74 1e		 je	 SHORT $LN14@scalar
  0003a	66 0f 1f 44 00
	00		 npad	 6
$LL5@scalar:

; 25   : 		COrderAndElement* porder = m_orderList.GetNext(pos);

  00040	8b 46 08	 mov	 eax, DWORD PTR [esi+8]
; File C:\Program Files (x86)\Microsoft Visual Studio\2019\Community\VC\Tools\MSVC\14.29.30133\atlmfc\include\afxtempl.h

; 813  : 		rPosition = (POSITION) pNode->pNext;

  00043	8b 36		 mov	 esi, DWORD PTR [esi]
; File D:\git\src\IBK\IBK_DRFN\ProjSrc\SrcChartEx\ChartAddIn\ChartAnalysisToolAddIn\Symbol\OrderSet.cpp

; 26   : 		if(porder != NULL)

  00045	85 c0		 test	 eax, eax
  00047	74 0b		 je	 SHORT $LN7@scalar

; 27   : 			delete porder;

  00049	6a 08		 push	 8
  0004b	50		 push	 eax
  0004c	e8 00 00 00 00	 call	 ??3@YAXPAXI@Z		; operator delete
  00051	83 c4 08	 add	 esp, 8
$LN7@scalar:

; 24   : 	while(pos) {

  00054	85 f6		 test	 esi, esi
  00056	75 e8		 jne	 SHORT $LL5@scalar
$LN14@scalar:
; File C:\Program Files (x86)\Microsoft Visual Studio\2019\Community\VC\Tools\MSVC\14.29.30133\atlmfc\include\afxtempl.h

; 872  : 	m_pBlocks->FreeDataChain();

  00058	8b 4f 18	 mov	 ecx, DWORD PTR [edi+24]
  0005b	c7 47 10 00 00
	00 00		 mov	 DWORD PTR [edi+16], 0
  00062	c7 47 14 00 00
	00 00		 mov	 DWORD PTR [edi+20], 0
  00069	c7 47 0c 00 00
	00 00		 mov	 DWORD PTR [edi+12], 0
  00070	c7 47 08 00 00
	00 00		 mov	 DWORD PTR [edi+8], 0
  00077	e8 00 00 00 00	 call	 ?FreeDataChain@CPlex@@QAEXXZ ; CPlex::FreeDataChain

; 873  : 	m_pBlocks = NULL;

  0007c	c7 47 18 00 00
	00 00		 mov	 DWORD PTR [edi+24], 0

; 872  : 	m_pBlocks->FreeDataChain();

  00083	8b 4f 18	 mov	 ecx, DWORD PTR [edi+24]

; 878  : {

  00086	c6 45 fc 01	 mov	 BYTE PTR __$EHRec$[ebp+8], 1
  0008a	c7 47 04 00 00
	00 00		 mov	 DWORD PTR [edi+4], OFFSET ??_7?$CList@PAVCOrderAndElement@@PAV1@@@6B@

; 870  : 	m_nCount = 0;

  00091	c7 47 10 00 00
	00 00		 mov	 DWORD PTR [edi+16], 0

; 871  : 	m_pNodeHead = m_pNodeTail = m_pNodeFree = NULL;

  00098	c7 47 14 00 00
	00 00		 mov	 DWORD PTR [edi+20], 0
  0009f	c7 47 0c 00 00
	00 00		 mov	 DWORD PTR [edi+12], 0
  000a6	c7 47 08 00 00
	00 00		 mov	 DWORD PTR [edi+8], 0

; 872  : 	m_pBlocks->FreeDataChain();

  000ad	e8 00 00 00 00	 call	 ?FreeDataChain@CPlex@@QAEXXZ ; CPlex::FreeDataChain
  000b2	f6 45 08 01	 test	 BYTE PTR ___flags$[ebp], 1

; 873  : 	m_pBlocks = NULL;

  000b6	c7 47 18 00 00
	00 00		 mov	 DWORD PTR [edi+24], 0
  000bd	74 0b		 je	 SHORT $LN38@scalar
  000bf	6a 20		 push	 32			; 00000020H
  000c1	57		 push	 edi
  000c2	e8 00 00 00 00	 call	 ??3@YAXPAXI@Z		; operator delete
  000c7	83 c4 08	 add	 esp, 8
$LN38@scalar:
  000ca	8b c7		 mov	 eax, edi
  000cc	8b 4d f4	 mov	 ecx, DWORD PTR __$EHRec$[ebp]
  000cf	64 89 0d 00 00
	00 00		 mov	 DWORD PTR fs:0, ecx
  000d6	59		 pop	 ecx
  000d7	5f		 pop	 edi
  000d8	5e		 pop	 esi
  000d9	8b e5		 mov	 esp, ebp
  000db	5d		 pop	 ebp
  000dc	c2 04 00	 ret	 4
  000df	cc		 int	 3
  000e0	cc		 int	 3
  000e1	cc		 int	 3
  000e2	cc		 int	 3
  000e3	cc		 int	 3
_TEXT	ENDS
;	COMDAT text$x
text$x	SEGMENT
__ehhandler$??_GCOrderSet@@UAEPAXI@Z:
  00000	90		 npad	 1
  00001	90		 npad	 1
  00002	8b 54 24 08	 mov	 edx, DWORD PTR [esp+8]
  00006	8d 42 0c	 lea	 eax, DWORD PTR [edx+12]
  00009	8b 4a f4	 mov	 ecx, DWORD PTR [edx-12]
  0000c	33 c8		 xor	 ecx, eax
  0000e	e8 00 00 00 00	 call	 @__security_check_cookie@4
  00013	b8 00 00 00 00	 mov	 eax, OFFSET __ehfuncinfo$??_GCOrderSet@@UAEPAXI@Z
  00018	e9 00 00 00 00	 jmp	 ___CxxFrameHandler3
text$x	ENDS
??_GCOrderSet@@UAEPAXI@Z ENDP				; COrderSet::`scalar deleting destructor'
; Function compile flags: /Ogtp
; File C:\Program Files (x86)\Microsoft Visual Studio\2019\Community\VC\Tools\MSVC\14.29.30133\atlmfc\include\afxtempl.h
; File C:\Program Files (x86)\Microsoft Visual Studio\2019\Community\VC\Tools\MSVC\14.29.30133\atlmfc\include\afx.inl
;	COMDAT ??_G?$CList@PAVCOrderAndElement@@PAV1@@@UAEPAXI@Z
_TEXT	SEGMENT
__$EHRec$ = -12						; size = 12
___flags$ = 8						; size = 4
??_G?$CList@PAVCOrderAndElement@@PAV1@@@UAEPAXI@Z PROC	; CList<COrderAndElement *,COrderAndElement *>::`scalar deleting destructor', COMDAT
; _this$ = ecx
  00000	55		 push	 ebp
  00001	8b ec		 mov	 ebp, esp
  00003	6a ff		 push	 -1
  00005	68 00 00 00 00	 push	 __ehhandler$??_G?$CList@PAVCOrderAndElement@@PAV1@@@UAEPAXI@Z
  0000a	64 a1 00 00 00
	00		 mov	 eax, DWORD PTR fs:0
  00010	50		 push	 eax
  00011	56		 push	 esi
  00012	a1 00 00 00 00	 mov	 eax, DWORD PTR ___security_cookie
  00017	33 c5		 xor	 eax, ebp
  00019	50		 push	 eax
  0001a	8d 45 f4	 lea	 eax, DWORD PTR __$EHRec$[ebp]
  0001d	64 a3 00 00 00
	00		 mov	 DWORD PTR fs:0, eax
  00023	8b f1		 mov	 esi, ecx
; File C:\Program Files (x86)\Microsoft Visual Studio\2019\Community\VC\Tools\MSVC\14.29.30133\atlmfc\include\afxtempl.h

; 872  : 	m_pBlocks->FreeDataChain();

  00025	8b 4e 14	 mov	 ecx, DWORD PTR [esi+20]

; 878  : {

  00028	c7 45 fc 00 00
	00 00		 mov	 DWORD PTR __$EHRec$[ebp+8], 0
  0002f	c7 06 00 00 00
	00		 mov	 DWORD PTR [esi], OFFSET ??_7?$CList@PAVCOrderAndElement@@PAV1@@@6B@

; 870  : 	m_nCount = 0;

  00035	c7 46 0c 00 00
	00 00		 mov	 DWORD PTR [esi+12], 0

; 871  : 	m_pNodeHead = m_pNodeTail = m_pNodeFree = NULL;

  0003c	c7 46 10 00 00
	00 00		 mov	 DWORD PTR [esi+16], 0
  00043	c7 46 08 00 00
	00 00		 mov	 DWORD PTR [esi+8], 0
  0004a	c7 46 04 00 00
	00 00		 mov	 DWORD PTR [esi+4], 0

; 872  : 	m_pBlocks->FreeDataChain();

  00051	e8 00 00 00 00	 call	 ?FreeDataChain@CPlex@@QAEXXZ ; CPlex::FreeDataChain

; 873  : 	m_pBlocks = NULL;

  00056	8b 45 08	 mov	 eax, DWORD PTR ___flags$[ebp]
  00059	c7 46 14 00 00
	00 00		 mov	 DWORD PTR [esi+20], 0
  00060	a8 01		 test	 al, 1
  00062	74 2c		 je	 SHORT $LN22@scalar
  00064	a8 04		 test	 al, 4
  00066	75 1d		 jne	 SHORT $LN3@scalar
; File C:\Program Files (x86)\Microsoft Visual Studio\2019\Community\VC\Tools\MSVC\14.29.30133\atlmfc\include\afx.inl

; 112  : 	{ ::operator delete(p); }

  00068	56		 push	 esi
  00069	e8 00 00 00 00	 call	 ??3@YAXPAX@Z		; operator delete
  0006e	83 c4 04	 add	 esp, 4
  00071	8b c6		 mov	 eax, esi
  00073	8b 4d f4	 mov	 ecx, DWORD PTR __$EHRec$[ebp]
  00076	64 89 0d 00 00
	00 00		 mov	 DWORD PTR fs:0, ecx
  0007d	59		 pop	 ecx
  0007e	5e		 pop	 esi
  0007f	8b e5		 mov	 esp, ebp
  00081	5d		 pop	 ebp
  00082	c2 04 00	 ret	 4
$LN3@scalar:
  00085	6a 1c		 push	 28			; 0000001cH
  00087	56		 push	 esi
  00088	e8 00 00 00 00	 call	 ?__global_delete@@YAXPAXI@Z ; __global_delete
  0008d	83 c4 08	 add	 esp, 8
$LN22@scalar:
  00090	8b c6		 mov	 eax, esi
  00092	8b 4d f4	 mov	 ecx, DWORD PTR __$EHRec$[ebp]
  00095	64 89 0d 00 00
	00 00		 mov	 DWORD PTR fs:0, ecx
  0009c	59		 pop	 ecx
  0009d	5e		 pop	 esi
  0009e	8b e5		 mov	 esp, ebp
  000a0	5d		 pop	 ebp
  000a1	c2 04 00	 ret	 4
  000a4	cc		 int	 3
  000a5	cc		 int	 3
  000a6	cc		 int	 3
  000a7	cc		 int	 3
  000a8	cc		 int	 3
_TEXT	ENDS
;	COMDAT text$x
text$x	SEGMENT
__ehhandler$??_G?$CList@PAVCOrderAndElement@@PAV1@@@UAEPAXI@Z:
  00000	90		 npad	 1
  00001	90		 npad	 1
  00002	8b 54 24 08	 mov	 edx, DWORD PTR [esp+8]
  00006	8d 42 0c	 lea	 eax, DWORD PTR [edx+12]
  00009	8b 4a f8	 mov	 ecx, DWORD PTR [edx-8]
  0000c	33 c8		 xor	 ecx, eax
  0000e	e8 00 00 00 00	 call	 @__security_check_cookie@4
  00013	b8 00 00 00 00	 mov	 eax, OFFSET __ehfuncinfo$??_G?$CList@PAVCOrderAndElement@@PAV1@@@UAEPAXI@Z
  00018	e9 00 00 00 00	 jmp	 ___CxxFrameHandler3
text$x	ENDS
??_G?$CList@PAVCOrderAndElement@@PAV1@@@UAEPAXI@Z ENDP	; CList<COrderAndElement *,COrderAndElement *>::`scalar deleting destructor'
; Function compile flags: /Ogtp
; File C:\Program Files (x86)\Microsoft Visual Studio\2019\Community\VC\Tools\MSVC\14.29.30133\atlmfc\include\afxtempl.h
; File C:\Program Files (x86)\Microsoft Visual Studio\2019\Community\VC\Tools\MSVC\14.29.30133\atlmfc\include\afx.inl
; File C:\Program Files (x86)\Microsoft Visual Studio\2019\Community\VC\Tools\MSVC\14.29.30133\atlmfc\include\afxtempl.h
; File C:\Program Files (x86)\Microsoft Visual Studio\2019\Community\VC\Tools\MSVC\14.29.30133\atlmfc\include\afx.inl
; File C:\Program Files (x86)\Microsoft Visual Studio\2019\Community\VC\Tools\MSVC\14.29.30133\atlmfc\include\afxtempl.h
; File C:\Program Files (x86)\Microsoft Visual Studio\2019\Community\VC\Tools\MSVC\14.29.30133\atlmfc\include\afx.inl
; File C:\Program Files (x86)\Microsoft Visual Studio\2019\Community\VC\Tools\MSVC\14.29.30133\atlmfc\include\afxtempl.h
; File C:\Program Files (x86)\Microsoft Visual Studio\2019\Community\VC\Tools\MSVC\14.29.30133\atlmfc\include\afx.inl
; File C:\Program Files (x86)\Microsoft Visual Studio\2019\Community\VC\Tools\MSVC\14.29.30133\atlmfc\include\afxtempl.h
; File C:\Program Files (x86)\Microsoft Visual Studio\2019\Community\VC\Tools\MSVC\14.29.30133\atlmfc\include\afx.inl
; File C:\Program Files (x86)\Microsoft Visual Studio\2019\Community\VC\Tools\MSVC\14.29.30133\atlmfc\include\afxtempl.h
; File C:\Program Files (x86)\Microsoft Visual Studio\2019\Community\VC\Tools\MSVC\14.29.30133\atlmfc\include\afx.inl
; File C:\Program Files (x86)\Microsoft Visual Studio\2019\Community\VC\Tools\MSVC\14.29.30133\atlmfc\include\afxtempl.h
;	COMDAT ?Serialize@?$CList@PAVCOrderAndElement@@PAV1@@@UAEXAAVCArchive@@@Z
_TEXT	SEGMENT
_nNewCount$1$ = -16					; size = 4
_newData$1 = -12					; size = 4
_pData$1$ = -8						; size = 4
_pNode$1$ = -8						; size = 4
_nElementsLeft$1$ = -4					; size = 4
_this$1$ = -4						; size = 4
_ar$ = 8						; size = 4
?Serialize@?$CList@PAVCOrderAndElement@@PAV1@@@UAEXAAVCArchive@@@Z PROC ; CList<COrderAndElement *,COrderAndElement *>::Serialize, COMDAT
; _this$ = ecx

; 1169 : {

  00000	55		 push	 ebp
  00001	8b ec		 mov	 ebp, esp
  00003	83 ec 10	 sub	 esp, 16			; 00000010H
  00006	53		 push	 ebx
  00007	8b d9		 mov	 ebx, ecx
; File C:\Program Files (x86)\Microsoft Visual Studio\2019\Community\VC\Tools\MSVC\14.29.30133\atlmfc\include\afx.inl

; 212  : 	{ return (m_nMode & CArchive::load) == 0; }

  00009	8b 4d 08	 mov	 ecx, DWORD PTR _ar$[ebp]
; File C:\Program Files (x86)\Microsoft Visual Studio\2019\Community\VC\Tools\MSVC\14.29.30133\atlmfc\include\afxtempl.h

; 1169 : {

  0000c	56		 push	 esi
  0000d	57		 push	 edi
  0000e	89 5d fc	 mov	 DWORD PTR _this$1$[ebp], ebx
; File C:\Program Files (x86)\Microsoft Visual Studio\2019\Community\VC\Tools\MSVC\14.29.30133\atlmfc\include\afx.inl

; 212  : 	{ return (m_nMode & CArchive::load) == 0; }

  00011	8b 41 18	 mov	 eax, DWORD PTR [ecx+24]
  00014	f7 d0		 not	 eax
  00016	a8 01		 test	 al, 1
; File C:\Program Files (x86)\Microsoft Visual Studio\2019\Community\VC\Tools\MSVC\14.29.30133\atlmfc\include\afxtempl.h

; 1174 : 	if (ar.IsStoring())

  00018	0f 84 ae 00 00
	00		 je	 $LN7@Serialize

; 1175 : 	{
; 1176 : 		ar.WriteCount(m_nCount);

  0001e	ff 73 0c	 push	 DWORD PTR [ebx+12]
  00021	e8 00 00 00 00	 call	 ?WriteCount@CArchive@@QAEXK@Z ; CArchive::WriteCount

; 1177 : 		for (CNode* pNode = m_pNodeHead; pNode != NULL; pNode = pNode->pNext)

  00026	8b 43 04	 mov	 eax, DWORD PTR [ebx+4]
  00029	89 45 f8	 mov	 DWORD PTR _pNode$1$[ebp], eax
  0002c	85 c0		 test	 eax, eax
  0002e	0f 84 43 01 00
	00		 je	 $LN68@Serialize
$LL4@Serialize:

; 1178 : 		{
; 1179 : 			ASSERT(AfxIsValidAddress(pNode, sizeof(CNode)));
; 1180 : 			TYPE* pData;
; 1181 : 			/*
; 1182 : 			 * in some cases the & operator might be overloaded, and we cannot use it to obtain
; 1183 : 			 * the address of a given object.  We then use the following trick to get the address
; 1184 : 			 */
; 1185 : 			pData = reinterpret_cast< TYPE* >( &reinterpret_cast< int& >( static_cast< TYPE& >( pNode->data ) ) );

  00034	8d 70 08	 lea	 esi, DWORD PTR [eax+8]

; 68   : 	ENSURE(nCount == 0 || pElements != NULL);

  00037	85 f6		 test	 esi, esi
  00039	0f 84 4a 01 00
	00		 je	 $LN60@Serialize
; File C:\Program Files (x86)\Microsoft Visual Studio\2019\Community\VC\Tools\MSVC\14.29.30133\atlmfc\include\afx.inl

; 212  : 	{ return (m_nMode & CArchive::load) == 0; }

  0003f	8b 4d 08	 mov	 ecx, DWORD PTR _ar$[ebp]
  00042	8b 41 18	 mov	 eax, DWORD PTR [ecx+24]
  00045	f7 d0		 not	 eax
  00047	a8 01		 test	 al, 1
; File C:\Program Files (x86)\Microsoft Visual Studio\2019\Community\VC\Tools\MSVC\14.29.30133\atlmfc\include\afxtempl.h

; 73   : 	if (ar.IsStoring())

  00049	74 33		 je	 SHORT $LN21@Serialize

; 74   : 	{
; 75   : 		TYPE* pData;
; 76   : 		UINT_PTR nElementsLeft;
; 77   : 
; 78   : 		nElementsLeft = nCount;

  0004b	b8 01 00 00 00	 mov	 eax, 1
  00050	89 45 fc	 mov	 DWORD PTR _nElementsLeft$1$[ebp], eax
$LL16@Serialize:

; 80   : 		while( nElementsLeft > 0 )
; 81   : 		{
; 82   : 			UINT nElementsToWrite;
; 83   : 
; 84   : 			nElementsToWrite = UINT(__min(nElementsLeft, INT_MAX/sizeof(TYPE)));

  00053	bb ff ff ff 1f	 mov	 ebx, 536870911		; 1fffffffH
  00058	3b c3		 cmp	 eax, ebx
  0005a	0f 42 d8	 cmovb	 ebx, eax

; 85   : 			ar.Write(pData, nElementsToWrite*sizeof(TYPE));

  0005d	8d 3c 9d 00 00
	00 00		 lea	 edi, DWORD PTR [ebx*4]
  00064	57		 push	 edi
  00065	56		 push	 esi
  00066	e8 00 00 00 00	 call	 ?Write@CArchive@@QAEXPBXI@Z ; CArchive::Write

; 86   : 			nElementsLeft -= nElementsToWrite;

  0006b	8b 45 fc	 mov	 eax, DWORD PTR _nElementsLeft$1$[ebp]

; 87   : 			pData += nElementsToWrite;

  0006e	03 f7		 add	 esi, edi
  00070	8b 4d 08	 mov	 ecx, DWORD PTR _ar$[ebp]
  00073	2b c3		 sub	 eax, ebx
  00075	89 45 fc	 mov	 DWORD PTR _nElementsLeft$1$[ebp], eax
  00078	85 c0		 test	 eax, eax
  0007a	75 d7		 jne	 SHORT $LL16@Serialize

; 88   : 		}
; 89   : 	}

  0007c	eb 35		 jmp	 SHORT $LN2@Serialize
$LN21@Serialize:

; 90   : 	else
; 91   : 	{
; 92   : 		TYPE* pData;
; 93   : 		UINT_PTR nElementsLeft;
; 94   : 
; 95   : 		nElementsLeft = nCount;

  0007e	bf 01 00 00 00	 mov	 edi, 1
$LL18@Serialize:

; 98   : 		{
; 99   : 			UINT nElementsToRead;
; 100  : 
; 101  : 			nElementsToRead = UINT(__min(nElementsLeft, INT_MAX/sizeof(TYPE)));

  00083	bb ff ff ff 1f	 mov	 ebx, 536870911		; 1fffffffH
  00088	3b fb		 cmp	 edi, ebx
  0008a	0f 42 df	 cmovb	 ebx, edi

; 102  : 			ar.EnsureRead(pData, nElementsToRead*sizeof(TYPE));

  0008d	8d 04 9d 00 00
	00 00		 lea	 eax, DWORD PTR [ebx*4]
; File C:\Program Files (x86)\Microsoft Visual Studio\2019\Community\VC\Tools\MSVC\14.29.30133\atlmfc\include\afx.inl

; 399  : 	UINT nRead=Read(lpBuf, nCount);

  00094	50		 push	 eax
  00095	56		 push	 esi
  00096	e8 00 00 00 00	 call	 ?Read@CArchive@@QAEIPAXI@Z ; CArchive::Read

; 400  : 	if(nRead!=nCount)

  0009b	8d 0c 9d 00 00
	00 00		 lea	 ecx, DWORD PTR [ebx*4]
  000a2	3b c1		 cmp	 eax, ecx
  000a4	0f 85 d6 00 00
	00		 jne	 $LN59@Serialize
; File C:\Program Files (x86)\Microsoft Visual Studio\2019\Community\VC\Tools\MSVC\14.29.30133\atlmfc\include\afxtempl.h

; 97   : 		while( nElementsLeft > 0 )

  000aa	03 f1		 add	 esi, ecx
  000ac	8b 4d 08	 mov	 ecx, DWORD PTR _ar$[ebp]

; 103  : 			nElementsLeft -= nElementsToRead;

  000af	2b fb		 sub	 edi, ebx
  000b1	75 d0		 jne	 SHORT $LL18@Serialize
$LN2@Serialize:

; 1177 : 		for (CNode* pNode = m_pNodeHead; pNode != NULL; pNode = pNode->pNext)

  000b3	8b 45 f8	 mov	 eax, DWORD PTR _pNode$1$[ebp]
  000b6	8b 00		 mov	 eax, DWORD PTR [eax]
  000b8	89 45 f8	 mov	 DWORD PTR _pNode$1$[ebp], eax
  000bb	85 c0		 test	 eax, eax
  000bd	0f 85 71 ff ff
	ff		 jne	 $LL4@Serialize

; 1197 : 		}
; 1198 : 	}
; 1199 : }

  000c3	5f		 pop	 edi
  000c4	5e		 pop	 esi
  000c5	5b		 pop	 ebx
  000c6	8b e5		 mov	 esp, ebp
  000c8	5d		 pop	 ebp
  000c9	c2 04 00	 ret	 4
$LN7@Serialize:

; 1186 : 			SerializeElements<TYPE>(ar, pData, 1);
; 1187 : 		}
; 1188 : 	}
; 1189 : 	else
; 1190 : 	{
; 1191 : 		DWORD_PTR nNewCount = ar.ReadCount();

  000cc	e8 00 00 00 00	 call	 ?ReadCount@CArchive@@QAEKXZ ; CArchive::ReadCount

; 1192 : 		while (nNewCount--)

  000d1	85 c0		 test	 eax, eax
  000d3	0f 84 9e 00 00
	00		 je	 $LN68@Serialize
  000d9	0f 1f 80 00 00
	00 00		 npad	 7
$LL5@Serialize:
  000e0	48		 dec	 eax
  000e1	89 45 f0	 mov	 DWORD PTR _nNewCount$1$[ebp], eax
; File C:\Program Files (x86)\Microsoft Visual Studio\2019\Community\VC\Tools\MSVC\14.29.30133\atlmfc\include\afx.inl

; 212  : 	{ return (m_nMode & CArchive::load) == 0; }

  000e4	8b 45 08	 mov	 eax, DWORD PTR _ar$[ebp]
  000e7	8b 48 18	 mov	 ecx, DWORD PTR [eax+24]
  000ea	f7 d1		 not	 ecx
  000ec	f6 c1 01	 test	 cl, 1
; File C:\Program Files (x86)\Microsoft Visual Studio\2019\Community\VC\Tools\MSVC\14.29.30133\atlmfc\include\afxtempl.h

; 73   : 	if (ar.IsStoring())

  000ef	74 3a		 je	 SHORT $LN42@Serialize

; 79   : 		pData = pElements;

  000f1	8d 4d f4	 lea	 ecx, DWORD PTR _newData$1[ebp]
  000f4	bb 01 00 00 00	 mov	 ebx, 1
  000f9	89 4d f8	 mov	 DWORD PTR _pData$1$[ebp], ecx
  000fc	0f 1f 40 00	 npad	 4
$LL37@Serialize:

; 80   : 		while( nElementsLeft > 0 )
; 81   : 		{
; 82   : 			UINT nElementsToWrite;
; 83   : 
; 84   : 			nElementsToWrite = UINT(__min(nElementsLeft, INT_MAX/sizeof(TYPE)));

  00100	bf ff ff ff 1f	 mov	 edi, 536870911		; 1fffffffH
  00105	3b df		 cmp	 ebx, edi
  00107	0f 42 fb	 cmovb	 edi, ebx

; 85   : 			ar.Write(pData, nElementsToWrite*sizeof(TYPE));

  0010a	8d 34 bd 00 00
	00 00		 lea	 esi, DWORD PTR [edi*4]
  00111	56		 push	 esi
  00112	51		 push	 ecx
  00113	8b c8		 mov	 ecx, eax
  00115	e8 00 00 00 00	 call	 ?Write@CArchive@@QAEXPBXI@Z ; CArchive::Write

; 87   : 			pData += nElementsToWrite;

  0011a	8b 4d f8	 mov	 ecx, DWORD PTR _pData$1$[ebp]
  0011d	8b 45 08	 mov	 eax, DWORD PTR _ar$[ebp]
  00120	03 ce		 add	 ecx, esi
  00122	89 4d f8	 mov	 DWORD PTR _pData$1$[ebp], ecx
  00125	2b df		 sub	 ebx, edi
  00127	75 d7		 jne	 SHORT $LL37@Serialize

; 88   : 		}
; 89   : 	}

  00129	eb 36		 jmp	 SHORT $LN40@Serialize
$LN42@Serialize:

; 90   : 	else
; 91   : 	{
; 92   : 		TYPE* pData;
; 93   : 		UINT_PTR nElementsLeft;
; 94   : 
; 95   : 		nElementsLeft = nCount;

  0012b	be 01 00 00 00	 mov	 esi, 1

; 96   : 		pData = pElements;

  00130	8d 5d f4	 lea	 ebx, DWORD PTR _newData$1[ebp]
$LL39@Serialize:

; 98   : 		{
; 99   : 			UINT nElementsToRead;
; 100  : 
; 101  : 			nElementsToRead = UINT(__min(nElementsLeft, INT_MAX/sizeof(TYPE)));

  00133	bf ff ff ff 1f	 mov	 edi, 536870911		; 1fffffffH
  00138	3b f7		 cmp	 esi, edi
  0013a	0f 42 fe	 cmovb	 edi, esi

; 102  : 			ar.EnsureRead(pData, nElementsToRead*sizeof(TYPE));

  0013d	8d 0c bd 00 00
	00 00		 lea	 ecx, DWORD PTR [edi*4]
; File C:\Program Files (x86)\Microsoft Visual Studio\2019\Community\VC\Tools\MSVC\14.29.30133\atlmfc\include\afx.inl

; 399  : 	UINT nRead=Read(lpBuf, nCount);

  00144	51		 push	 ecx
  00145	53		 push	 ebx
  00146	8b c8		 mov	 ecx, eax
  00148	e8 00 00 00 00	 call	 ?Read@CArchive@@QAEIPAXI@Z ; CArchive::Read

; 400  : 	if(nRead!=nCount)

  0014d	8d 0c bd 00 00
	00 00		 lea	 ecx, DWORD PTR [edi*4]
  00154	3b c1		 cmp	 eax, ecx
  00156	75 28		 jne	 SHORT $LN59@Serialize
; File C:\Program Files (x86)\Microsoft Visual Studio\2019\Community\VC\Tools\MSVC\14.29.30133\atlmfc\include\afxtempl.h

; 104  : 			pData += nElementsToRead;

  00158	8b 45 08	 mov	 eax, DWORD PTR _ar$[ebp]
  0015b	03 d9		 add	 ebx, ecx
  0015d	2b f7		 sub	 esi, edi
  0015f	75 d2		 jne	 SHORT $LL39@Serialize
$LN40@Serialize:

; 1193 : 		{
; 1194 : 			TYPE newData[1];
; 1195 : 			SerializeElements<TYPE>(ar, newData, 1);
; 1196 : 			AddTail(newData[0]);

  00161	ff 75 f4	 push	 DWORD PTR _newData$1[ebp]
  00164	8b 4d fc	 mov	 ecx, DWORD PTR _this$1$[ebp]
  00167	e8 00 00 00 00	 call	 ?AddTail@?$CList@PAVCOrderAndElement@@PAV1@@@QAEPAU__POSITION@@PAVCOrderAndElement@@@Z ; CList<COrderAndElement *,COrderAndElement *>::AddTail
  0016c	8b 45 f0	 mov	 eax, DWORD PTR _nNewCount$1$[ebp]
  0016f	85 c0		 test	 eax, eax
  00171	0f 85 69 ff ff
	ff		 jne	 $LL5@Serialize
$LN68@Serialize:
  00177	5f		 pop	 edi

; 1197 : 		}
; 1198 : 	}
; 1199 : }

  00178	5e		 pop	 esi
  00179	5b		 pop	 ebx
  0017a	8b e5		 mov	 esp, ebp
  0017c	5d		 pop	 ebp
  0017d	c2 04 00	 ret	 4
$LN59@Serialize:
  00180	6a 00		 push	 0
  00182	6a 03		 push	 3
  00184	e8 00 00 00 00	 call	 ?AfxThrowArchiveException@@YGXHPBD@Z ; AfxThrowArchiveException
$LN60@Serialize:

; 68   : 	ENSURE(nCount == 0 || pElements != NULL);

  00189	e8 00 00 00 00	 call	 ?AfxThrowInvalidArgException@@YGXXZ ; AfxThrowInvalidArgException
$LN85@Serialize:
  0018e	cc		 int	 3
?Serialize@?$CList@PAVCOrderAndElement@@PAV1@@@UAEXAAVCArchive@@@Z ENDP ; CList<COrderAndElement *,COrderAndElement *>::Serialize
_TEXT	ENDS
; Function compile flags: /Ogtp
; File C:\Program Files (x86)\Microsoft Visual Studio\2019\Community\VC\Tools\MSVC\14.29.30133\atlmfc\include\afxtempl.h
;	COMDAT ??1?$CList@PAVCOrderAndElement@@PAV1@@@UAE@XZ
_TEXT	SEGMENT
__$EHRec$ = -12						; size = 12
??1?$CList@PAVCOrderAndElement@@PAV1@@@UAE@XZ PROC	; CList<COrderAndElement *,COrderAndElement *>::~CList<COrderAndElement *,COrderAndElement *>, COMDAT
; _this$ = ecx

; 878  : {

  00000	55		 push	 ebp
  00001	8b ec		 mov	 ebp, esp
  00003	6a ff		 push	 -1
  00005	68 00 00 00 00	 push	 __ehhandler$??1?$CList@PAVCOrderAndElement@@PAV1@@@UAE@XZ
  0000a	64 a1 00 00 00
	00		 mov	 eax, DWORD PTR fs:0
  00010	50		 push	 eax
  00011	56		 push	 esi
  00012	a1 00 00 00 00	 mov	 eax, DWORD PTR ___security_cookie
  00017	33 c5		 xor	 eax, ebp
  00019	50		 push	 eax
  0001a	8d 45 f4	 lea	 eax, DWORD PTR __$EHRec$[ebp]
  0001d	64 a3 00 00 00
	00		 mov	 DWORD PTR fs:0, eax
  00023	8b f1		 mov	 esi, ecx

; 872  : 	m_pBlocks->FreeDataChain();

  00025	8b 4e 14	 mov	 ecx, DWORD PTR [esi+20]

; 878  : {

  00028	c7 06 00 00 00
	00		 mov	 DWORD PTR [esi], OFFSET ??_7?$CList@PAVCOrderAndElement@@PAV1@@@6B@

; 870  : 	m_nCount = 0;

  0002e	c7 46 0c 00 00
	00 00		 mov	 DWORD PTR [esi+12], 0

; 871  : 	m_pNodeHead = m_pNodeTail = m_pNodeFree = NULL;

  00035	c7 46 10 00 00
	00 00		 mov	 DWORD PTR [esi+16], 0
  0003c	c7 46 08 00 00
	00 00		 mov	 DWORD PTR [esi+8], 0
  00043	c7 46 04 00 00
	00 00		 mov	 DWORD PTR [esi+4], 0

; 872  : 	m_pBlocks->FreeDataChain();

  0004a	e8 00 00 00 00	 call	 ?FreeDataChain@CPlex@@QAEXXZ ; CPlex::FreeDataChain

; 873  : 	m_pBlocks = NULL;

  0004f	c7 46 14 00 00
	00 00		 mov	 DWORD PTR [esi+20], 0

; 879  : 	RemoveAll();
; 880  : 	ASSERT(m_nCount == 0);
; 881  : }

  00056	8b 4d f4	 mov	 ecx, DWORD PTR __$EHRec$[ebp]
  00059	64 89 0d 00 00
	00 00		 mov	 DWORD PTR fs:0, ecx
  00060	59		 pop	 ecx
  00061	5e		 pop	 esi
  00062	8b e5		 mov	 esp, ebp
  00064	5d		 pop	 ebp
  00065	c3		 ret	 0
  00066	cc		 int	 3
  00067	cc		 int	 3
  00068	cc		 int	 3
  00069	cc		 int	 3
  0006a	cc		 int	 3
_TEXT	ENDS
;	COMDAT text$x
text$x	SEGMENT
__ehhandler$??1?$CList@PAVCOrderAndElement@@PAV1@@@UAE@XZ:
  00000	90		 npad	 1
  00001	90		 npad	 1
  00002	8b 54 24 08	 mov	 edx, DWORD PTR [esp+8]
  00006	8d 42 0c	 lea	 eax, DWORD PTR [edx+12]
  00009	8b 4a f8	 mov	 ecx, DWORD PTR [edx-8]
  0000c	33 c8		 xor	 ecx, eax
  0000e	e8 00 00 00 00	 call	 @__security_check_cookie@4
  00013	b8 00 00 00 00	 mov	 eax, OFFSET __ehfuncinfo$??1?$CList@PAVCOrderAndElement@@PAV1@@@UAE@XZ
  00018	e9 00 00 00 00	 jmp	 ___CxxFrameHandler3
text$x	ENDS
??1?$CList@PAVCOrderAndElement@@PAV1@@@UAE@XZ ENDP	; CList<COrderAndElement *,COrderAndElement *>::~CList<COrderAndElement *,COrderAndElement *>
; Function compile flags: /Ogtp
; File C:\Program Files (x86)\Microsoft Visual Studio\2019\Community\VC\Tools\MSVC\14.29.30133\atlmfc\include\afxtempl.h
;	COMDAT ?NewNode@?$CList@PAVCOrderAndElement@@PAV1@@@IAEPAUCNode@1@PAU21@0@Z
_TEXT	SEGMENT
_pPrev$ = 8						; size = 4
_pNext$ = 12						; size = 4
?NewNode@?$CList@PAVCOrderAndElement@@PAV1@@@IAEPAUCNode@1@PAU21@0@Z PROC ; CList<COrderAndElement *,COrderAndElement *>::NewNode, COMDAT
; _this$ = ecx

; 901  : {

  00000	55		 push	 ebp
  00001	8b ec		 mov	 ebp, esp
  00003	56		 push	 esi
  00004	8b f1		 mov	 esi, ecx

; 902  : 	if (m_pNodeFree == NULL)

  00006	83 7e 10 00	 cmp	 DWORD PTR [esi+16], 0
  0000a	75 34		 jne	 SHORT $LN7@NewNode

; 903  : 	{
; 904  : 		// add another block
; 905  : 		CPlex* pNewBlock = CPlex::Create(m_pBlocks, m_nBlockSize,

  0000c	6a 0c		 push	 12			; 0000000cH
  0000e	ff 76 18	 push	 DWORD PTR [esi+24]
  00011	8d 46 14	 lea	 eax, DWORD PTR [esi+20]
  00014	50		 push	 eax
  00015	e8 00 00 00 00	 call	 ?Create@CPlex@@SGPAU1@AAPAU1@II@Z ; CPlex::Create

; 906  : 				 sizeof(CNode));
; 907  : 
; 908  : 		// chain them into free list
; 909  : 		CNode* pNode = (CNode*) pNewBlock->data();
; 910  : 		// free in reverse order to make it easier to debug
; 911  : 		pNode += m_nBlockSize - 1;

  0001a	8b 56 18	 mov	 edx, DWORD PTR [esi+24]
  0001d	83 c0 08	 add	 eax, 8
  00020	8d 0c 52	 lea	 ecx, DWORD PTR [edx+edx*2]
  00023	8d 04 88	 lea	 eax, DWORD PTR [eax+ecx*4]
  00026	83 c0 f4	 add	 eax, -12		; fffffff4H

; 912  : 		for (INT_PTR i = m_nBlockSize-1; i >= 0; i--, pNode--)

  00029	83 c2 ff	 add	 edx, -1
  0002c	78 12		 js	 SHORT $LN7@NewNode
  0002e	66 90		 npad	 2
$LL4@NewNode:

; 913  : 		{
; 914  : 			pNode->pNext = m_pNodeFree;

  00030	8b 4e 10	 mov	 ecx, DWORD PTR [esi+16]
  00033	89 08		 mov	 DWORD PTR [eax], ecx

; 915  : 			m_pNodeFree = pNode;

  00035	89 46 10	 mov	 DWORD PTR [esi+16], eax
  00038	83 e8 0c	 sub	 eax, 12			; 0000000cH
  0003b	83 ea 01	 sub	 edx, 1
  0003e	79 f0		 jns	 SHORT $LL4@NewNode
$LN7@NewNode:

; 916  : 		}
; 917  : 	}
; 918  : 	ENSURE(m_pNodeFree != NULL);  // we must have something

  00040	8b 46 10	 mov	 eax, DWORD PTR [esi+16]
  00043	85 c0		 test	 eax, eax
  00045	74 18		 je	 SHORT $LN17@NewNode

; 919  : 
; 920  : 	CList::CNode* pNode = m_pNodeFree;
; 921  : 	m_pNodeFree = m_pNodeFree->pNext;

  00047	8b 08		 mov	 ecx, DWORD PTR [eax]
  00049	89 4e 10	 mov	 DWORD PTR [esi+16], ecx

; 922  : 	pNode->pPrev = pPrev;

  0004c	8b 4d 08	 mov	 ecx, DWORD PTR _pPrev$[ebp]
  0004f	89 48 04	 mov	 DWORD PTR [eax+4], ecx

; 923  : 	pNode->pNext = pNext;

  00052	8b 4d 0c	 mov	 ecx, DWORD PTR _pNext$[ebp]
  00055	89 08		 mov	 DWORD PTR [eax], ecx

; 924  : 	m_nCount++;

  00057	ff 46 0c	 inc	 DWORD PTR [esi+12]

; 925  : 	ASSERT(m_nCount > 0);  // make sure we don't overflow
; 926  : 
; 927  : #pragma push_macro("new")
; 928  : #undef new
; 929  : 	::new( (void*)( &pNode->data ) ) TYPE;
; 930  : #pragma pop_macro("new")
; 931  : 	return pNode;

  0005a	5e		 pop	 esi

; 932  : }

  0005b	5d		 pop	 ebp
  0005c	c2 08 00	 ret	 8
$LN17@NewNode:

; 916  : 		}
; 917  : 	}
; 918  : 	ENSURE(m_pNodeFree != NULL);  // we must have something

  0005f	e8 00 00 00 00	 call	 ?AfxThrowInvalidArgException@@YGXXZ ; AfxThrowInvalidArgException
$LN15@NewNode:
  00064	cc		 int	 3
?NewNode@?$CList@PAVCOrderAndElement@@PAV1@@@IAEPAUCNode@1@PAU21@0@Z ENDP ; CList<COrderAndElement *,COrderAndElement *>::NewNode
_TEXT	ENDS
; Function compile flags: /Ogtp
; File C:\Program Files (x86)\Microsoft Visual Studio\2019\Community\VC\Tools\MSVC\14.29.30133\atlmfc\include\afxtempl.h
;	COMDAT ?RemoveAll@?$CList@PAVCOrderAndElement@@PAV1@@@QAEXXZ
_TEXT	SEGMENT
?RemoveAll@?$CList@PAVCOrderAndElement@@PAV1@@@QAEXXZ PROC ; CList<COrderAndElement *,COrderAndElement *>::RemoveAll, COMDAT
; _this$ = ecx

; 862  : {

  00000	56		 push	 esi
  00001	8b f1		 mov	 esi, ecx

; 863  : 	ASSERT_VALID(this);
; 864  : 
; 865  : 	// destroy elements
; 866  : 	CNode* pNode;
; 867  : 	for (pNode = m_pNodeHead; pNode != NULL; pNode = pNode->pNext)
; 868  : 		pNode->data.~TYPE();
; 869  : 
; 870  : 	m_nCount = 0;
; 871  : 	m_pNodeHead = m_pNodeTail = m_pNodeFree = NULL;
; 872  : 	m_pBlocks->FreeDataChain();

  00003	8b 4e 14	 mov	 ecx, DWORD PTR [esi+20]
  00006	c7 46 0c 00 00
	00 00		 mov	 DWORD PTR [esi+12], 0
  0000d	c7 46 10 00 00
	00 00		 mov	 DWORD PTR [esi+16], 0
  00014	c7 46 08 00 00
	00 00		 mov	 DWORD PTR [esi+8], 0
  0001b	c7 46 04 00 00
	00 00		 mov	 DWORD PTR [esi+4], 0
  00022	e8 00 00 00 00	 call	 ?FreeDataChain@CPlex@@QAEXXZ ; CPlex::FreeDataChain

; 873  : 	m_pBlocks = NULL;

  00027	c7 46 14 00 00
	00 00		 mov	 DWORD PTR [esi+20], 0
  0002e	5e		 pop	 esi

; 874  : }

  0002f	c3		 ret	 0
?RemoveAll@?$CList@PAVCOrderAndElement@@PAV1@@@QAEXXZ ENDP ; CList<COrderAndElement *,COrderAndElement *>::RemoveAll
_TEXT	ENDS
; Function compile flags: /Ogtp
; File C:\Program Files (x86)\Microsoft Visual Studio\2019\Community\VC\Tools\MSVC\14.29.30133\atlmfc\include\afxtempl.h
;	COMDAT ?AddTail@?$CList@PAVCOrderAndElement@@PAV1@@@QAEPAU__POSITION@@PAVCOrderAndElement@@@Z
_TEXT	SEGMENT
_newElement$ = 8					; size = 4
?AddTail@?$CList@PAVCOrderAndElement@@PAV1@@@QAEPAU__POSITION@@PAVCOrderAndElement@@@Z PROC ; CList<COrderAndElement *,COrderAndElement *>::AddTail, COMDAT
; _this$ = ecx

; 965  : {

  00000	55		 push	 ebp
  00001	8b ec		 mov	 ebp, esp
  00003	56		 push	 esi
  00004	8b f1		 mov	 esi, ecx
  00006	57		 push	 edi

; 902  : 	if (m_pNodeFree == NULL)

  00007	83 7e 10 00	 cmp	 DWORD PTR [esi+16], 0

; 966  : 	ASSERT_VALID(this);
; 967  : 
; 968  : 	CNode* pNewNode = NewNode(m_pNodeTail, NULL);

  0000b	8b 7e 08	 mov	 edi, DWORD PTR [esi+8]

; 902  : 	if (m_pNodeFree == NULL)

  0000e	75 32		 jne	 SHORT $LN11@AddTail

; 903  : 	{
; 904  : 		// add another block
; 905  : 		CPlex* pNewBlock = CPlex::Create(m_pBlocks, m_nBlockSize,

  00010	6a 0c		 push	 12			; 0000000cH
  00012	ff 76 18	 push	 DWORD PTR [esi+24]
  00015	8d 46 14	 lea	 eax, DWORD PTR [esi+20]
  00018	50		 push	 eax
  00019	e8 00 00 00 00	 call	 ?Create@CPlex@@SGPAU1@AAPAU1@II@Z ; CPlex::Create

; 906  : 				 sizeof(CNode));
; 907  : 
; 908  : 		// chain them into free list
; 909  : 		CNode* pNode = (CNode*) pNewBlock->data();
; 910  : 		// free in reverse order to make it easier to debug
; 911  : 		pNode += m_nBlockSize - 1;

  0001e	8b 56 18	 mov	 edx, DWORD PTR [esi+24]
  00021	83 c0 08	 add	 eax, 8
  00024	8d 4a ff	 lea	 ecx, DWORD PTR [edx-1]

; 912  : 		for (INT_PTR i = m_nBlockSize-1; i >= 0; i--, pNode--)

  00027	83 c2 ff	 add	 edx, -1
  0002a	8d 0c 49	 lea	 ecx, DWORD PTR [ecx+ecx*2]
  0002d	8d 0c 88	 lea	 ecx, DWORD PTR [eax+ecx*4]
  00030	78 10		 js	 SHORT $LN11@AddTail
$LL8@AddTail:

; 913  : 		{
; 914  : 			pNode->pNext = m_pNodeFree;

  00032	8b 46 10	 mov	 eax, DWORD PTR [esi+16]
  00035	89 01		 mov	 DWORD PTR [ecx], eax

; 915  : 			m_pNodeFree = pNode;

  00037	89 4e 10	 mov	 DWORD PTR [esi+16], ecx
  0003a	83 e9 0c	 sub	 ecx, 12			; 0000000cH
  0003d	83 ea 01	 sub	 edx, 1
  00040	79 f0		 jns	 SHORT $LL8@AddTail
$LN11@AddTail:

; 916  : 		}
; 917  : 	}
; 918  : 	ENSURE(m_pNodeFree != NULL);  // we must have something

  00042	8b 4e 10	 mov	 ecx, DWORD PTR [esi+16]
  00045	85 c9		 test	 ecx, ecx
  00047	74 39		 je	 SHORT $LN22@AddTail

; 919  : 
; 920  : 	CList::CNode* pNode = m_pNodeFree;
; 921  : 	m_pNodeFree = m_pNodeFree->pNext;

  00049	8b 01		 mov	 eax, DWORD PTR [ecx]
  0004b	89 46 10	 mov	 DWORD PTR [esi+16], eax

; 969  : 	pNewNode->data = newElement;

  0004e	8b 45 08	 mov	 eax, DWORD PTR _newElement$[ebp]

; 922  : 	pNode->pPrev = pPrev;

  00051	89 79 04	 mov	 DWORD PTR [ecx+4], edi

; 923  : 	pNode->pNext = pNext;

  00054	c7 01 00 00 00
	00		 mov	 DWORD PTR [ecx], 0

; 924  : 	m_nCount++;

  0005a	ff 46 0c	 inc	 DWORD PTR [esi+12]

; 969  : 	pNewNode->data = newElement;

  0005d	89 41 08	 mov	 DWORD PTR [ecx+8], eax

; 970  : 	if (m_pNodeTail != NULL)

  00060	8b 46 08	 mov	 eax, DWORD PTR [esi+8]
  00063	85 c0		 test	 eax, eax
  00065	74 0d		 je	 SHORT $LN2@AddTail

; 971  : 		m_pNodeTail->pNext = pNewNode;

  00067	89 08		 mov	 DWORD PTR [eax], ecx

; 972  : 	else
; 973  : 		m_pNodeHead = pNewNode;
; 974  : 	m_pNodeTail = pNewNode;
; 975  : 	return (POSITION) pNewNode;

  00069	8b c1		 mov	 eax, ecx
  0006b	5f		 pop	 edi
  0006c	89 4e 08	 mov	 DWORD PTR [esi+8], ecx
  0006f	5e		 pop	 esi

; 976  : }

  00070	5d		 pop	 ebp
  00071	c2 04 00	 ret	 4
$LN2@AddTail:

; 972  : 	else
; 973  : 		m_pNodeHead = pNewNode;
; 974  : 	m_pNodeTail = pNewNode;
; 975  : 	return (POSITION) pNewNode;

  00074	5f		 pop	 edi
  00075	89 4e 04	 mov	 DWORD PTR [esi+4], ecx
  00078	8b c1		 mov	 eax, ecx
  0007a	89 4e 08	 mov	 DWORD PTR [esi+8], ecx
  0007d	5e		 pop	 esi

; 976  : }

  0007e	5d		 pop	 ebp
  0007f	c2 04 00	 ret	 4
$LN22@AddTail:

; 918  : 	ENSURE(m_pNodeFree != NULL);  // we must have something

  00082	e8 00 00 00 00	 call	 ?AfxThrowInvalidArgException@@YGXXZ ; AfxThrowInvalidArgException
$LN20@AddTail:
  00087	cc		 int	 3
?AddTail@?$CList@PAVCOrderAndElement@@PAV1@@@QAEPAU__POSITION@@PAVCOrderAndElement@@@Z ENDP ; CList<COrderAndElement *,COrderAndElement *>::AddTail
_TEXT	ENDS
; Function compile flags: /Ogtp
; File D:\git\src\IBK\IBK_DRFN\ProjSrc\SrcChartEx\ChartAddIn\ChartAnalysisToolAddIn\Symbol\OrderSet.cpp
; File C:\Program Files (x86)\Microsoft Visual Studio\2019\Community\VC\Tools\MSVC\14.29.30133\atlmfc\include\afxtempl.h
; File D:\git\src\IBK\IBK_DRFN\ProjSrc\SrcChartEx\ChartAddIn\ChartAnalysisToolAddIn\Symbol\OrderSet.cpp
;	COMDAT ?GetNext@COrderSet@@QAEAAPAVCOrderAndElement@@AAPAU__POSITION@@@Z
_TEXT	SEGMENT
_rPosition$ = 8						; size = 4
?GetNext@COrderSet@@QAEAAPAVCOrderAndElement@@AAPAU__POSITION@@@Z PROC ; COrderSet::GetNext, COMDAT
; _this$ = ecx

; 65   : {

  00000	55		 push	 ebp
  00001	8b ec		 mov	 ebp, esp
; File C:\Program Files (x86)\Microsoft Visual Studio\2019\Community\VC\Tools\MSVC\14.29.30133\atlmfc\include\afxtempl.h

; 811  : 	{ CNode* pNode = (CNode*) rPosition;

  00003	8b 4d 08	 mov	 ecx, DWORD PTR _rPosition$[ebp]
  00006	8b 11		 mov	 edx, DWORD PTR [ecx]

; 812  : 		ASSERT(AfxIsValidAddress(pNode, sizeof(CNode)));
; 813  : 		rPosition = (POSITION) pNode->pNext;

  00008	8b 02		 mov	 eax, DWORD PTR [edx]
  0000a	89 01		 mov	 DWORD PTR [ecx], eax

; 814  : 		return pNode->data; }

  0000c	8d 42 08	 lea	 eax, DWORD PTR [edx+8]
; File D:\git\src\IBK\IBK_DRFN\ProjSrc\SrcChartEx\ChartAddIn\ChartAnalysisToolAddIn\Symbol\OrderSet.cpp

; 67   : }

  0000f	5d		 pop	 ebp
  00010	c2 04 00	 ret	 4
?GetNext@COrderSet@@QAEAAPAVCOrderAndElement@@AAPAU__POSITION@@@Z ENDP ; COrderSet::GetNext
_TEXT	ENDS
; Function compile flags: /Ogtp
; File D:\git\src\IBK\IBK_DRFN\ProjSrc\SrcChartEx\ChartAddIn\ChartAnalysisToolAddIn\Symbol\OrderSet.cpp
; File C:\Program Files (x86)\Microsoft Visual Studio\2019\Community\VC\Tools\MSVC\14.29.30133\atlmfc\include\afxtempl.h
; File D:\git\src\IBK\IBK_DRFN\ProjSrc\SrcChartEx\ChartAddIn\ChartAnalysisToolAddIn\Symbol\OrderSet.cpp
;	COMDAT ?GetNext@COrderSet@@QBEPAVCOrderAndElement@@AAPAU__POSITION@@@Z
_TEXT	SEGMENT
_rPosition$ = 8						; size = 4
?GetNext@COrderSet@@QBEPAVCOrderAndElement@@AAPAU__POSITION@@@Z PROC ; COrderSet::GetNext, COMDAT
; _this$ = ecx

; 60   : {

  00000	55		 push	 ebp
  00001	8b ec		 mov	 ebp, esp
; File C:\Program Files (x86)\Microsoft Visual Studio\2019\Community\VC\Tools\MSVC\14.29.30133\atlmfc\include\afxtempl.h

; 817  : 	{ CNode* pNode = (CNode*) rPosition;

  00003	8b 55 08	 mov	 edx, DWORD PTR _rPosition$[ebp]
  00006	8b 02		 mov	 eax, DWORD PTR [edx]

; 818  : 		ASSERT(AfxIsValidAddress(pNode, sizeof(CNode)));
; 819  : 		rPosition = (POSITION) pNode->pNext;

  00008	8b 08		 mov	 ecx, DWORD PTR [eax]
  0000a	89 0a		 mov	 DWORD PTR [edx], ecx
; File D:\git\src\IBK\IBK_DRFN\ProjSrc\SrcChartEx\ChartAddIn\ChartAnalysisToolAddIn\Symbol\OrderSet.cpp

; 61   : 	return m_orderList.GetNext(rPosition);

  0000c	8b 40 08	 mov	 eax, DWORD PTR [eax+8]

; 62   : }

  0000f	5d		 pop	 ebp
  00010	c2 04 00	 ret	 4
?GetNext@COrderSet@@QBEPAVCOrderAndElement@@AAPAU__POSITION@@@Z ENDP ; COrderSet::GetNext
_TEXT	ENDS
; Function compile flags: /Ogtp
; File D:\git\src\IBK\IBK_DRFN\ProjSrc\SrcChartEx\ChartAddIn\ChartAnalysisToolAddIn\Symbol\OrderSet.cpp
;	COMDAT ?GetHeadPosition@COrderSet@@QBEPAU__POSITION@@XZ
_TEXT	SEGMENT
?GetHeadPosition@COrderSet@@QBEPAU__POSITION@@XZ PROC	; COrderSet::GetHeadPosition, COMDAT
; _this$ = ecx

; 56   : 	return m_orderList.GetHeadPosition();

  00000	8b 41 08	 mov	 eax, DWORD PTR [ecx+8]

; 57   : }

  00003	c3		 ret	 0
?GetHeadPosition@COrderSet@@QBEPAU__POSITION@@XZ ENDP	; COrderSet::GetHeadPosition
_TEXT	ENDS
; Function compile flags: /Ogtp
; File D:\git\src\IBK\IBK_DRFN\ProjSrc\SrcChartEx\ChartAddIn\ChartAnalysisToolAddIn\Symbol\OrderSet.cpp
;	COMDAT ?GetCount@COrderSet@@QBEHXZ
_TEXT	SEGMENT
?GetCount@COrderSet@@QBEHXZ PROC			; COrderSet::GetCount, COMDAT
; _this$ = ecx

; 40   : 	return m_orderList.GetCount();

  00000	8b 41 10	 mov	 eax, DWORD PTR [ecx+16]

; 41   : }

  00003	c3		 ret	 0
?GetCount@COrderSet@@QBEHXZ ENDP			; COrderSet::GetCount
_TEXT	ENDS
; Function compile flags: /Ogtp
; File D:\git\src\IBK\IBK_DRFN\ProjSrc\SrcChartEx\ChartAddIn\ChartAnalysisToolAddIn\Symbol\OrderSet.cpp
; File C:\Program Files (x86)\Microsoft Visual Studio\2019\Community\VC\Tools\MSVC\14.29.30133\atlmfc\include\afxtempl.h
; File D:\git\src\IBK\IBK_DRFN\ProjSrc\SrcChartEx\ChartAddIn\ChartAnalysisToolAddIn\Symbol\OrderSet.cpp
;	COMDAT ?GetElement@COrderSet@@QBEPAVCDrawingSymbol@@H@Z
_TEXT	SEGMENT
_nIndex$ = 8						; size = 4
?GetElement@COrderSet@@QBEPAVCDrawingSymbol@@H@Z PROC	; COrderSet::GetElement, COMDAT
; _this$ = ecx

; 44   : {

  00000	55		 push	 ebp
  00001	8b ec		 mov	 ebp, esp
  00003	53		 push	 ebx
  00004	56		 push	 esi

; 45   : 	POSITION pos = m_orderList.GetHeadPosition();

  00005	8b 71 08	 mov	 esi, DWORD PTR [ecx+8]
  00008	57		 push	 edi

; 46   : 	while(pos) {

  00009	85 f6		 test	 esi, esi
  0000b	74 17		 je	 SHORT $LN3@GetElement
  0000d	8b 5d 08	 mov	 ebx, DWORD PTR _nIndex$[ebp]
$LL2@GetElement:

; 47   : 		COrderAndElement* porder = m_orderList.GetNext(pos);

  00010	8b 7e 08	 mov	 edi, DWORD PTR [esi+8]

; 48   : 		if(porder->GetIndex() == nIndex)

  00013	8b cf		 mov	 ecx, edi
; File C:\Program Files (x86)\Microsoft Visual Studio\2019\Community\VC\Tools\MSVC\14.29.30133\atlmfc\include\afxtempl.h

; 819  : 		rPosition = (POSITION) pNode->pNext;

  00015	8b 36		 mov	 esi, DWORD PTR [esi]
; File D:\git\src\IBK\IBK_DRFN\ProjSrc\SrcChartEx\ChartAddIn\ChartAnalysisToolAddIn\Symbol\OrderSet.cpp

; 48   : 		if(porder->GetIndex() == nIndex)

  00017	e8 00 00 00 00	 call	 ?GetIndex@COrderAndElement@@QAEHXZ ; COrderAndElement::GetIndex
  0001c	3b c3		 cmp	 eax, ebx
  0001e	74 0d		 je	 SHORT $LN9@GetElement

; 46   : 	while(pos) {

  00020	85 f6		 test	 esi, esi
  00022	75 ec		 jne	 SHORT $LL2@GetElement
$LN3@GetElement:
  00024	5f		 pop	 edi

; 50   : 	}
; 51   : 	return NULL;
; 52   : }

  00025	5e		 pop	 esi
  00026	33 c0		 xor	 eax, eax
  00028	5b		 pop	 ebx
  00029	5d		 pop	 ebp
  0002a	c2 04 00	 ret	 4
$LN9@GetElement:

; 49   : 			return porder->GetElement();

  0002d	8b cf		 mov	 ecx, edi
  0002f	e8 00 00 00 00	 call	 ?GetElement@COrderAndElement@@QAEPAVCDrawingSymbol@@XZ ; COrderAndElement::GetElement
  00034	5f		 pop	 edi

; 50   : 	}
; 51   : 	return NULL;
; 52   : }

  00035	5e		 pop	 esi
  00036	5b		 pop	 ebx
  00037	5d		 pop	 ebp
  00038	c2 04 00	 ret	 4
?GetElement@COrderSet@@QBEPAVCDrawingSymbol@@H@Z ENDP	; COrderSet::GetElement
_TEXT	ENDS
; Function compile flags: /Ogtp
; File D:\git\src\IBK\IBK_DRFN\ProjSrc\SrcChartEx\ChartAddIn\ChartAnalysisToolAddIn\Symbol\OrderSet.cpp
;	COMDAT ?Add@COrderSet@@QAEXHPAVCDrawingSymbol@@@Z
_TEXT	SEGMENT
$T2 = -16						; size = 4
__$EHRec$ = -12						; size = 12
_nIndex$ = 8						; size = 4
_pDrawingSymbol$ = 12					; size = 4
?Add@COrderSet@@QAEXHPAVCDrawingSymbol@@@Z PROC		; COrderSet::Add, COMDAT
; _this$ = ecx

; 33   : {

  00000	55		 push	 ebp
  00001	8b ec		 mov	 ebp, esp
  00003	6a ff		 push	 -1
  00005	68 00 00 00 00	 push	 __ehhandler$?Add@COrderSet@@QAEXHPAVCDrawingSymbol@@@Z
  0000a	64 a1 00 00 00
	00		 mov	 eax, DWORD PTR fs:0
  00010	50		 push	 eax
  00011	51		 push	 ecx
  00012	57		 push	 edi
  00013	a1 00 00 00 00	 mov	 eax, DWORD PTR ___security_cookie
  00018	33 c5		 xor	 eax, ebp
  0001a	50		 push	 eax
  0001b	8d 45 f4	 lea	 eax, DWORD PTR __$EHRec$[ebp]
  0001e	64 a3 00 00 00
	00		 mov	 DWORD PTR fs:0, eax
  00024	8b f9		 mov	 edi, ecx

; 34   : 	if(pDrawingSymbol != NULL)

  00026	83 7d 0c 00	 cmp	 DWORD PTR _pDrawingSymbol$[ebp], 0
  0002a	74 39		 je	 SHORT $LN2@Add

; 35   : 		m_orderList.AddTail(new COrderAndElement(nIndex, pDrawingSymbol));

  0002c	6a 08		 push	 8
  0002e	e8 00 00 00 00	 call	 ??2@YAPAXI@Z		; operator new
  00033	83 c4 04	 add	 esp, 4
  00036	89 45 f0	 mov	 DWORD PTR $T2[ebp], eax
  00039	c7 45 fc 00 00
	00 00		 mov	 DWORD PTR __$EHRec$[ebp+8], 0
  00040	85 c0		 test	 eax, eax
  00042	74 0f		 je	 SHORT $LN4@Add
  00044	ff 75 0c	 push	 DWORD PTR _pDrawingSymbol$[ebp]
  00047	8b c8		 mov	 ecx, eax
  00049	ff 75 08	 push	 DWORD PTR _nIndex$[ebp]
  0004c	e8 00 00 00 00	 call	 ??0COrderAndElement@@QAE@HPAVCDrawingSymbol@@@Z ; COrderAndElement::COrderAndElement
  00051	eb 02		 jmp	 SHORT $LN5@Add
$LN4@Add:
  00053	33 c0		 xor	 eax, eax
$LN5@Add:
  00055	50		 push	 eax
  00056	8d 4f 04	 lea	 ecx, DWORD PTR [edi+4]
  00059	c7 45 fc ff ff
	ff ff		 mov	 DWORD PTR __$EHRec$[ebp+8], -1
  00060	e8 00 00 00 00	 call	 ?AddTail@?$CList@PAVCOrderAndElement@@PAV1@@@QAEPAU__POSITION@@PAVCOrderAndElement@@@Z ; CList<COrderAndElement *,COrderAndElement *>::AddTail
$LN2@Add:

; 36   : }

  00065	8b 4d f4	 mov	 ecx, DWORD PTR __$EHRec$[ebp]
  00068	64 89 0d 00 00
	00 00		 mov	 DWORD PTR fs:0, ecx
  0006f	59		 pop	 ecx
  00070	5f		 pop	 edi
  00071	8b e5		 mov	 esp, ebp
  00073	5d		 pop	 ebp
  00074	c2 08 00	 ret	 8
_TEXT	ENDS
;	COMDAT text$x
text$x	SEGMENT
__unwindfunclet$?Add@COrderSet@@QAEXHPAVCDrawingSymbol@@@Z$0:
  00000	6a 08		 push	 8
  00002	8b 45 f0	 mov	 eax, DWORD PTR $T2[ebp]
  00005	50		 push	 eax
  00006	e8 00 00 00 00	 call	 ??3@YAXPAXI@Z		; operator delete
  0000b	83 c4 08	 add	 esp, 8
  0000e	c3		 ret	 0
  0000f	cc		 int	 3
  00010	cc		 int	 3
  00011	cc		 int	 3
  00012	cc		 int	 3
  00013	cc		 int	 3
__ehhandler$?Add@COrderSet@@QAEXHPAVCDrawingSymbol@@@Z:
  00014	90		 npad	 1
  00015	90		 npad	 1
  00016	8b 54 24 08	 mov	 edx, DWORD PTR [esp+8]
  0001a	8d 42 0c	 lea	 eax, DWORD PTR [edx+12]
  0001d	8b 4a f4	 mov	 ecx, DWORD PTR [edx-12]
  00020	33 c8		 xor	 ecx, eax
  00022	e8 00 00 00 00	 call	 @__security_check_cookie@4
  00027	b8 00 00 00 00	 mov	 eax, OFFSET __ehfuncinfo$?Add@COrderSet@@QAEXHPAVCDrawingSymbol@@@Z
  0002c	e9 00 00 00 00	 jmp	 ___CxxFrameHandler3
text$x	ENDS
?Add@COrderSet@@QAEXHPAVCDrawingSymbol@@@Z ENDP		; COrderSet::Add
; Function compile flags: /Ogtp
; File D:\git\src\IBK\IBK_DRFN\ProjSrc\SrcChartEx\ChartAddIn\ChartAnalysisToolAddIn\Symbol\OrderSet.cpp
; File C:\Program Files (x86)\Microsoft Visual Studio\2019\Community\VC\Tools\MSVC\14.29.30133\atlmfc\include\afxtempl.h
; File D:\git\src\IBK\IBK_DRFN\ProjSrc\SrcChartEx\ChartAddIn\ChartAnalysisToolAddIn\Symbol\OrderSet.cpp
; File C:\Program Files (x86)\Microsoft Visual Studio\2019\Community\VC\Tools\MSVC\14.29.30133\atlmfc\include\afxtempl.h
; File D:\git\src\IBK\IBK_DRFN\ProjSrc\SrcChartEx\ChartAddIn\ChartAnalysisToolAddIn\Symbol\OrderSet.cpp
;	COMDAT ??1COrderSet@@UAE@XZ
_TEXT	SEGMENT
__$EHRec$ = -12						; size = 12
??1COrderSet@@UAE@XZ PROC				; COrderSet::~COrderSet, COMDAT
; _this$ = ecx

; 22   : {

  00000	55		 push	 ebp
  00001	8b ec		 mov	 ebp, esp
  00003	6a ff		 push	 -1
  00005	68 00 00 00 00	 push	 __ehhandler$??1COrderSet@@UAE@XZ
  0000a	64 a1 00 00 00
	00		 mov	 eax, DWORD PTR fs:0
  00010	50		 push	 eax
  00011	56		 push	 esi
  00012	57		 push	 edi
  00013	a1 00 00 00 00	 mov	 eax, DWORD PTR ___security_cookie
  00018	33 c5		 xor	 eax, ebp
  0001a	50		 push	 eax
  0001b	8d 45 f4	 lea	 eax, DWORD PTR __$EHRec$[ebp]
  0001e	64 a3 00 00 00
	00		 mov	 DWORD PTR fs:0, eax
  00024	8b f9		 mov	 edi, ecx

; 23   : 	POSITION pos = m_orderList.GetHeadPosition();

  00026	8b 77 08	 mov	 esi, DWORD PTR [edi+8]
  00029	c7 07 00 00 00
	00		 mov	 DWORD PTR [edi], OFFSET ??_7COrderSet@@6B@

; 24   : 	while(pos) {

  0002f	85 f6		 test	 esi, esi
  00031	74 18		 je	 SHORT $LN10@COrderSet
$LL2@COrderSet:

; 25   : 		COrderAndElement* porder = m_orderList.GetNext(pos);

  00033	8b 46 08	 mov	 eax, DWORD PTR [esi+8]
; File C:\Program Files (x86)\Microsoft Visual Studio\2019\Community\VC\Tools\MSVC\14.29.30133\atlmfc\include\afxtempl.h

; 813  : 		rPosition = (POSITION) pNode->pNext;

  00036	8b 36		 mov	 esi, DWORD PTR [esi]
; File D:\git\src\IBK\IBK_DRFN\ProjSrc\SrcChartEx\ChartAddIn\ChartAnalysisToolAddIn\Symbol\OrderSet.cpp

; 26   : 		if(porder != NULL)

  00038	85 c0		 test	 eax, eax
  0003a	74 0b		 je	 SHORT $LN4@COrderSet

; 27   : 			delete porder;

  0003c	6a 08		 push	 8
  0003e	50		 push	 eax
  0003f	e8 00 00 00 00	 call	 ??3@YAXPAXI@Z		; operator delete
  00044	83 c4 08	 add	 esp, 8
$LN4@COrderSet:

; 24   : 	while(pos) {

  00047	85 f6		 test	 esi, esi
  00049	75 e8		 jne	 SHORT $LL2@COrderSet
$LN10@COrderSet:
; File C:\Program Files (x86)\Microsoft Visual Studio\2019\Community\VC\Tools\MSVC\14.29.30133\atlmfc\include\afxtempl.h

; 872  : 	m_pBlocks->FreeDataChain();

  0004b	8b 4f 18	 mov	 ecx, DWORD PTR [edi+24]
  0004e	c7 47 10 00 00
	00 00		 mov	 DWORD PTR [edi+16], 0
  00055	c7 47 14 00 00
	00 00		 mov	 DWORD PTR [edi+20], 0
  0005c	c7 47 0c 00 00
	00 00		 mov	 DWORD PTR [edi+12], 0
  00063	c7 47 08 00 00
	00 00		 mov	 DWORD PTR [edi+8], 0
  0006a	e8 00 00 00 00	 call	 ?FreeDataChain@CPlex@@QAEXXZ ; CPlex::FreeDataChain

; 873  : 	m_pBlocks = NULL;

  0006f	c7 47 18 00 00
	00 00		 mov	 DWORD PTR [edi+24], 0

; 872  : 	m_pBlocks->FreeDataChain();

  00076	8b 4f 18	 mov	 ecx, DWORD PTR [edi+24]

; 878  : {

  00079	c7 45 fc 00 00
	00 00		 mov	 DWORD PTR __$EHRec$[ebp+8], 0
  00080	c7 47 04 00 00
	00 00		 mov	 DWORD PTR [edi+4], OFFSET ??_7?$CList@PAVCOrderAndElement@@PAV1@@@6B@

; 870  : 	m_nCount = 0;

  00087	c7 47 10 00 00
	00 00		 mov	 DWORD PTR [edi+16], 0

; 871  : 	m_pNodeHead = m_pNodeTail = m_pNodeFree = NULL;

  0008e	c7 47 14 00 00
	00 00		 mov	 DWORD PTR [edi+20], 0
  00095	c7 47 0c 00 00
	00 00		 mov	 DWORD PTR [edi+12], 0
  0009c	c7 47 08 00 00
	00 00		 mov	 DWORD PTR [edi+8], 0

; 872  : 	m_pBlocks->FreeDataChain();

  000a3	e8 00 00 00 00	 call	 ?FreeDataChain@CPlex@@QAEXXZ ; CPlex::FreeDataChain

; 873  : 	m_pBlocks = NULL;

  000a8	c7 47 18 00 00
	00 00		 mov	 DWORD PTR [edi+24], 0
; File D:\git\src\IBK\IBK_DRFN\ProjSrc\SrcChartEx\ChartAddIn\ChartAnalysisToolAddIn\Symbol\OrderSet.cpp

; 30   : }

  000af	8b 4d f4	 mov	 ecx, DWORD PTR __$EHRec$[ebp]
  000b2	64 89 0d 00 00
	00 00		 mov	 DWORD PTR fs:0, ecx
  000b9	59		 pop	 ecx
  000ba	5f		 pop	 edi
  000bb	5e		 pop	 esi
  000bc	8b e5		 mov	 esp, ebp
  000be	5d		 pop	 ebp
  000bf	c3		 ret	 0
  000c0	cc		 int	 3
  000c1	cc		 int	 3
  000c2	cc		 int	 3
  000c3	cc		 int	 3
  000c4	cc		 int	 3
_TEXT	ENDS
;	COMDAT text$x
text$x	SEGMENT
__ehhandler$??1COrderSet@@UAE@XZ:
  00000	90		 npad	 1
  00001	90		 npad	 1
  00002	8b 54 24 08	 mov	 edx, DWORD PTR [esp+8]
  00006	8d 42 0c	 lea	 eax, DWORD PTR [edx+12]
  00009	8b 4a f4	 mov	 ecx, DWORD PTR [edx-12]
  0000c	33 c8		 xor	 ecx, eax
  0000e	e8 00 00 00 00	 call	 @__security_check_cookie@4
  00013	b8 00 00 00 00	 mov	 eax, OFFSET __ehfuncinfo$??1COrderSet@@UAE@XZ
  00018	e9 00 00 00 00	 jmp	 ___CxxFrameHandler3
text$x	ENDS
??1COrderSet@@UAE@XZ ENDP				; COrderSet::~COrderSet
; Function compile flags: /Ogtp
; File C:\Program Files (x86)\Microsoft Visual Studio\2019\Community\VC\Tools\MSVC\14.29.30133\atlmfc\include\afx.inl
;	COMDAT ?Dump@CObject@@UBEXAAVCDumpContext@@@Z
_TEXT	SEGMENT
___formal$ = 8						; size = 4
?Dump@CObject@@UBEXAAVCDumpContext@@@Z PROC		; CObject::Dump, COMDAT
; _this$ = ecx

; 122  : 	{ /* no dumping in release builds */ }

  00000	c2 04 00	 ret	 4
?Dump@CObject@@UBEXAAVCDumpContext@@@Z ENDP		; CObject::Dump
_TEXT	ENDS
; Function compile flags: /Ogtp
; File C:\Program Files (x86)\Microsoft Visual Studio\2019\Community\VC\Tools\MSVC\14.29.30133\atlmfc\include\afx.inl
;	COMDAT ?AssertValid@CObject@@UBEXXZ
_TEXT	SEGMENT
?AssertValid@CObject@@UBEXXZ PROC			; CObject::AssertValid, COMDAT
; _this$ = ecx

; 120  : 	{ /* no asserts in release builds */ }

  00000	c2 00 00	 ret	 0
?AssertValid@CObject@@UBEXXZ ENDP			; CObject::AssertValid
_TEXT	ENDS
; Function compile flags: /Ogtp
; File C:\Program Files (x86)\Microsoft Visual Studio\2019\Community\VC\Tools\MSVC\14.29.30133\atlmfc\include\afx.inl
;	COMDAT ?Serialize@CObject@@UAEXAAVCArchive@@@Z
_TEXT	SEGMENT
___formal$ = 8						; size = 4
?Serialize@CObject@@UAEXAAVCArchive@@@Z PROC		; CObject::Serialize, COMDAT
; _this$ = ecx

; 106  : 	{ /* CObject does not serialize anything by default */ }

  00000	c2 04 00	 ret	 4
?Serialize@CObject@@UAEXAAVCArchive@@@Z ENDP		; CObject::Serialize
_TEXT	ENDS
; Function compile flags: /Ogtp
; File C:\Program Files (x86)\Microsoft Visual Studio\2019\Community\VC\Tools\MSVC\14.29.30133\atlmfc\include\afx.inl
;	COMDAT ??1CObject@@UAE@XZ
_TEXT	SEGMENT
??1CObject@@UAE@XZ PROC					; CObject::~CObject, COMDAT
; _this$ = ecx

; 104  : 	{ }

  00000	c2 00 00	 ret	 0
??1CObject@@UAE@XZ ENDP					; CObject::~CObject
_TEXT	ENDS
; Function compile flags: /Ogtp
; File D:\git\src\IBK\IBK_DRFN\ProjSrc\SrcChartEx\ChartAddIn\ChartAnalysisToolAddIn\Symbol\OrderSet.cpp
;	COMDAT ?__empty_global_delete@@YAXPAXI@Z
_TEXT	SEGMENT
___formal$ = 8						; size = 4
___formal$ = 12						; size = 4
?__empty_global_delete@@YAXPAXI@Z PROC			; __empty_global_delete, COMDAT

  00000	c2 00 00	 ret	 0
?__empty_global_delete@@YAXPAXI@Z ENDP			; __empty_global_delete
_TEXT	ENDS
; Function compile flags: /Ogtp
; File D:\git\src\IBK\IBK_DRFN\ProjSrc\SrcChartEx\ChartAddIn\ChartAnalysisToolAddIn\Symbol\OrderSet.cpp
;	COMDAT ?__empty_global_delete@@YAXPAX@Z
_TEXT	SEGMENT
___formal$ = 8						; size = 4
?__empty_global_delete@@YAXPAX@Z PROC			; __empty_global_delete, COMDAT

  00000	c2 00 00	 ret	 0
?__empty_global_delete@@YAXPAX@Z ENDP			; __empty_global_delete
_TEXT	ENDS
END
