; Listing generated by Microsoft (R) Optimizing Compiler Version 19.29.30145.0 

	TITLE	D:\git\src\IBK\IBK_DRFN\#DRfn-CS\_Obj\Symbol\Order.obj
	.686P
	.XMM
	include listing.inc
	.model	flat

INCLUDELIB MSVCRT
INCLUDELIB OLDNAMES

PUBLIC	?__empty_global_delete@@YAXPAX@Z		; __empty_global_delete
PUBLIC	?__empty_global_delete@@YAXPAXI@Z		; __empty_global_delete
PUBLIC	??1CObject@@UAE@XZ				; CObject::~CObject
PUBLIC	?Serialize@CObject@@UAEXAAVCArchive@@@Z		; CObject::Serialize
PUBLIC	?AssertValid@CObject@@UBEXXZ			; CObject::AssertValid
PUBLIC	?Dump@CObject@@UBEXAAVCDumpContext@@@Z		; CObject::Dump
PUBLIC	?GetTail@COrder@@QAEPAVCDrawingSymbol@@XZ	; COrder::GetTail
PUBLIC	??1COrder@@UAE@XZ				; COrder::~COrder
PUBLIC	?GetCount@COrder@@QBEHXZ			; COrder::GetCount
PUBLIC	?Add@COrder@@QAEXPAVCDrawingSymbol@@@Z		; COrder::Add
PUBLIC	?GetIndex@COrder@@QBEHPBVCDrawingSymbol@@@Z	; COrder::GetIndex
PUBLIC	?RemoveAll@COrder@@QAEXXZ			; COrder::RemoveAll
PUBLIC	?RemoveAllInRow@COrder@@QAEXABV?$CList@PAVCDrawingSymbol@@PAV1@@@@Z ; COrder::RemoveAllInRow
PUBLIC	?RemoveAt@COrder@@QAE_NPBVCDrawingSymbol@@@Z	; COrder::RemoveAt
PUBLIC	?AddTail@?$CList@PAVCDrawingSymbol@@PAV1@@@QAEPAU__POSITION@@PAVCDrawingSymbol@@@Z ; CList<CDrawingSymbol *,CDrawingSymbol *>::AddTail
PUBLIC	?RemoveAll@?$CList@PAVCDrawingSymbol@@PAV1@@@QAEXXZ ; CList<CDrawingSymbol *,CDrawingSymbol *>::RemoveAll
PUBLIC	?RemoveAt@?$CList@PAVCDrawingSymbol@@PAV1@@@QAEXPAU__POSITION@@@Z ; CList<CDrawingSymbol *,CDrawingSymbol *>::RemoveAt
PUBLIC	?FindIndex@?$CList@PAVCDrawingSymbol@@PAV1@@@QBEPAU__POSITION@@H@Z ; CList<CDrawingSymbol *,CDrawingSymbol *>::FindIndex
PUBLIC	?NewNode@?$CList@PAVCDrawingSymbol@@PAV1@@@IAEPAUCNode@1@PAU21@0@Z ; CList<CDrawingSymbol *,CDrawingSymbol *>::NewNode
PUBLIC	?FreeNode@?$CList@PAVCDrawingSymbol@@PAV1@@@IAEXPAUCNode@1@@Z ; CList<CDrawingSymbol *,CDrawingSymbol *>::FreeNode
PUBLIC	??1?$CList@PAVCDrawingSymbol@@PAV1@@@UAE@XZ	; CList<CDrawingSymbol *,CDrawingSymbol *>::~CList<CDrawingSymbol *,CDrawingSymbol *>
PUBLIC	?Serialize@?$CList@PAVCDrawingSymbol@@PAV1@@@UAEXAAVCArchive@@@Z ; CList<CDrawingSymbol *,CDrawingSymbol *>::Serialize
PUBLIC	??_G?$CList@PAVCDrawingSymbol@@PAV1@@@UAEPAXI@Z	; CList<CDrawingSymbol *,CDrawingSymbol *>::`scalar deleting destructor'
PUBLIC	??_GCOrder@@UAEPAXI@Z				; COrder::`scalar deleting destructor'
PUBLIC	??$SerializeElements@PAVCDrawingSymbol@@@@YGXAAVCArchive@@PAPAVCDrawingSymbol@@H@Z ; SerializeElements<CDrawingSymbol *>
PUBLIC	??_R0?AVCObject@@@8				; CObject `RTTI Type Descriptor'
PUBLIC	??_R3CObject@@8					; CObject::`RTTI Class Hierarchy Descriptor'
PUBLIC	??_R2CObject@@8					; CObject::`RTTI Base Class Array'
PUBLIC	??_R1A@?0A@EA@CObject@@8			; CObject::`RTTI Base Class Descriptor at (0,-1,0,64)'
PUBLIC	??_7?$CList@PAVCDrawingSymbol@@PAV1@@@6B@	; CList<CDrawingSymbol *,CDrawingSymbol *>::`vftable'
PUBLIC	??_7COrder@@6B@					; COrder::`vftable'
PUBLIC	??_R4COrder@@6B@				; COrder::`RTTI Complete Object Locator'
PUBLIC	??_R0?AVCOrder@@@8				; COrder `RTTI Type Descriptor'
PUBLIC	??_R3COrder@@8					; COrder::`RTTI Class Hierarchy Descriptor'
PUBLIC	??_R2COrder@@8					; COrder::`RTTI Base Class Array'
PUBLIC	??_R1A@?0A@EA@COrder@@8				; COrder::`RTTI Base Class Descriptor at (0,-1,0,64)'
PUBLIC	??_R4?$CList@PAVCDrawingSymbol@@PAV1@@@6B@	; CList<CDrawingSymbol *,CDrawingSymbol *>::`RTTI Complete Object Locator'
PUBLIC	??_R0?AV?$CList@PAVCDrawingSymbol@@PAV1@@@@8	; CList<CDrawingSymbol *,CDrawingSymbol *> `RTTI Type Descriptor'
PUBLIC	??_R3?$CList@PAVCDrawingSymbol@@PAV1@@@8	; CList<CDrawingSymbol *,CDrawingSymbol *>::`RTTI Class Hierarchy Descriptor'
PUBLIC	??_R2?$CList@PAVCDrawingSymbol@@PAV1@@@8	; CList<CDrawingSymbol *,CDrawingSymbol *>::`RTTI Base Class Array'
PUBLIC	??_R1A@?0A@EA@?$CList@PAVCDrawingSymbol@@PAV1@@@8 ; CList<CDrawingSymbol *,CDrawingSymbol *>::`RTTI Base Class Descriptor at (0,-1,0,64)'
EXTRN	??3@YAXPAX@Z:PROC				; operator delete
EXTRN	??3@YAXPAXI@Z:PROC				; operator delete
EXTRN	?__global_delete@@YAXPAXI@Z:PROC		; __global_delete
EXTRN	___std_terminate:PROC
EXTRN	?AfxThrowInvalidArgException@@YGXXZ:PROC	; AfxThrowInvalidArgException
EXTRN	?AfxThrowArchiveException@@YGXHPBD@Z:PROC	; AfxThrowArchiveException
EXTRN	?GetRuntimeClass@CObject@@UBEPAUCRuntimeClass@@XZ:PROC ; CObject::GetRuntimeClass
EXTRN	?Read@CArchive@@QAEIPAXI@Z:PROC			; CArchive::Read
EXTRN	?Write@CArchive@@QAEXPBXI@Z:PROC		; CArchive::Write
EXTRN	?ReadCount@CArchive@@QAEKXZ:PROC		; CArchive::ReadCount
EXTRN	?WriteCount@CArchive@@QAEXK@Z:PROC		; CArchive::WriteCount
EXTRN	?Create@CPlex@@SGPAU1@AAPAU1@II@Z:PROC		; CPlex::Create
EXTRN	?FreeDataChain@CPlex@@QAEXXZ:PROC		; CPlex::FreeDataChain
EXTRN	??_E?$CList@PAVCDrawingSymbol@@PAV1@@@UAEPAXI@Z:PROC ; CList<CDrawingSymbol *,CDrawingSymbol *>::`vector deleting destructor'
EXTRN	??_ECOrder@@UAEPAXI@Z:PROC			; COrder::`vector deleting destructor'
EXTRN	@__security_check_cookie@4:PROC
EXTRN	___CxxFrameHandler3:PROC
EXTRN	??_7type_info@@6B@:QWORD			; type_info::`vftable'
EXTRN	___security_cookie:DWORD
;	COMDAT ??_R1A@?0A@EA@?$CList@PAVCDrawingSymbol@@PAV1@@@8
rdata$r	SEGMENT
??_R1A@?0A@EA@?$CList@PAVCDrawingSymbol@@PAV1@@@8 DD FLAT:??_R0?AV?$CList@PAVCDrawingSymbol@@PAV1@@@@8 ; CList<CDrawingSymbol *,CDrawingSymbol *>::`RTTI Base Class Descriptor at (0,-1,0,64)'
	DD	01H
	DD	00H
	DD	0ffffffffH
	DD	00H
	DD	040H
	DD	FLAT:??_R3?$CList@PAVCDrawingSymbol@@PAV1@@@8
rdata$r	ENDS
;	COMDAT ??_R2?$CList@PAVCDrawingSymbol@@PAV1@@@8
rdata$r	SEGMENT
??_R2?$CList@PAVCDrawingSymbol@@PAV1@@@8 DD FLAT:??_R1A@?0A@EA@?$CList@PAVCDrawingSymbol@@PAV1@@@8 ; CList<CDrawingSymbol *,CDrawingSymbol *>::`RTTI Base Class Array'
	DD	FLAT:??_R1A@?0A@EA@CObject@@8
rdata$r	ENDS
;	COMDAT ??_R3?$CList@PAVCDrawingSymbol@@PAV1@@@8
rdata$r	SEGMENT
??_R3?$CList@PAVCDrawingSymbol@@PAV1@@@8 DD 00H		; CList<CDrawingSymbol *,CDrawingSymbol *>::`RTTI Class Hierarchy Descriptor'
	DD	00H
	DD	02H
	DD	FLAT:??_R2?$CList@PAVCDrawingSymbol@@PAV1@@@8
rdata$r	ENDS
;	COMDAT ??_R0?AV?$CList@PAVCDrawingSymbol@@PAV1@@@@8
data$rs	SEGMENT
??_R0?AV?$CList@PAVCDrawingSymbol@@PAV1@@@@8 DD FLAT:??_7type_info@@6B@ ; CList<CDrawingSymbol *,CDrawingSymbol *> `RTTI Type Descriptor'
	DD	00H
	DB	'.?AV?$CList@PAVCDrawingSymbol@@PAV1@@@', 00H
data$rs	ENDS
;	COMDAT ??_R4?$CList@PAVCDrawingSymbol@@PAV1@@@6B@
rdata$r	SEGMENT
??_R4?$CList@PAVCDrawingSymbol@@PAV1@@@6B@ DD 00H	; CList<CDrawingSymbol *,CDrawingSymbol *>::`RTTI Complete Object Locator'
	DD	00H
	DD	00H
	DD	FLAT:??_R0?AV?$CList@PAVCDrawingSymbol@@PAV1@@@@8
	DD	FLAT:??_R3?$CList@PAVCDrawingSymbol@@PAV1@@@8
rdata$r	ENDS
;	COMDAT ??_R1A@?0A@EA@COrder@@8
rdata$r	SEGMENT
??_R1A@?0A@EA@COrder@@8 DD FLAT:??_R0?AVCOrder@@@8	; COrder::`RTTI Base Class Descriptor at (0,-1,0,64)'
	DD	00H
	DD	00H
	DD	0ffffffffH
	DD	00H
	DD	040H
	DD	FLAT:??_R3COrder@@8
rdata$r	ENDS
;	COMDAT ??_R2COrder@@8
rdata$r	SEGMENT
??_R2COrder@@8 DD FLAT:??_R1A@?0A@EA@COrder@@8		; COrder::`RTTI Base Class Array'
rdata$r	ENDS
;	COMDAT ??_R3COrder@@8
rdata$r	SEGMENT
??_R3COrder@@8 DD 00H					; COrder::`RTTI Class Hierarchy Descriptor'
	DD	00H
	DD	01H
	DD	FLAT:??_R2COrder@@8
rdata$r	ENDS
;	COMDAT ??_R0?AVCOrder@@@8
data$rs	SEGMENT
??_R0?AVCOrder@@@8 DD FLAT:??_7type_info@@6B@		; COrder `RTTI Type Descriptor'
	DD	00H
	DB	'.?AVCOrder@@', 00H
data$rs	ENDS
;	COMDAT ??_R4COrder@@6B@
rdata$r	SEGMENT
??_R4COrder@@6B@ DD 00H					; COrder::`RTTI Complete Object Locator'
	DD	00H
	DD	00H
	DD	FLAT:??_R0?AVCOrder@@@8
	DD	FLAT:??_R3COrder@@8
rdata$r	ENDS
;	COMDAT ??_7COrder@@6B@
CONST	SEGMENT
??_7COrder@@6B@ DD FLAT:??_R4COrder@@6B@		; COrder::`vftable'
	DD	FLAT:??_ECOrder@@UAEPAXI@Z
CONST	ENDS
;	COMDAT ??_7?$CList@PAVCDrawingSymbol@@PAV1@@@6B@
CONST	SEGMENT
??_7?$CList@PAVCDrawingSymbol@@PAV1@@@6B@ DD FLAT:??_R4?$CList@PAVCDrawingSymbol@@PAV1@@@6B@ ; CList<CDrawingSymbol *,CDrawingSymbol *>::`vftable'
	DD	FLAT:?GetRuntimeClass@CObject@@UBEPAUCRuntimeClass@@XZ
	DD	FLAT:??_E?$CList@PAVCDrawingSymbol@@PAV1@@@UAEPAXI@Z
	DD	FLAT:?Serialize@?$CList@PAVCDrawingSymbol@@PAV1@@@UAEXAAVCArchive@@@Z
	DD	FLAT:?AssertValid@CObject@@UBEXXZ
	DD	FLAT:?Dump@CObject@@UBEXAAVCDumpContext@@@Z
CONST	ENDS
;	COMDAT ??_R1A@?0A@EA@CObject@@8
rdata$r	SEGMENT
??_R1A@?0A@EA@CObject@@8 DD FLAT:??_R0?AVCObject@@@8	; CObject::`RTTI Base Class Descriptor at (0,-1,0,64)'
	DD	00H
	DD	00H
	DD	0ffffffffH
	DD	00H
	DD	040H
	DD	FLAT:??_R3CObject@@8
rdata$r	ENDS
;	COMDAT ??_R2CObject@@8
rdata$r	SEGMENT
??_R2CObject@@8 DD FLAT:??_R1A@?0A@EA@CObject@@8	; CObject::`RTTI Base Class Array'
rdata$r	ENDS
;	COMDAT ??_R3CObject@@8
rdata$r	SEGMENT
??_R3CObject@@8 DD 00H					; CObject::`RTTI Class Hierarchy Descriptor'
	DD	00H
	DD	01H
	DD	FLAT:??_R2CObject@@8
rdata$r	ENDS
;	COMDAT ??_R0?AVCObject@@@8
data$rs	SEGMENT
??_R0?AVCObject@@@8 DD FLAT:??_7type_info@@6B@		; CObject `RTTI Type Descriptor'
	DD	00H
	DB	'.?AVCObject@@', 00H
data$rs	ENDS
;	COMDAT xdata$x
xdata$x	SEGMENT
__unwindtable$??_GCOrder@@UAEPAXI@Z DD 0ffffffffH
	DD	FLAT:___std_terminate
	DD	00H
	DD	FLAT:___std_terminate
__ehfuncinfo$??_GCOrder@@UAEPAXI@Z DD 019930522H
	DD	02H
	DD	FLAT:__unwindtable$??_GCOrder@@UAEPAXI@Z
	DD	2 DUP(00H)
	DD	2 DUP(00H)
	DD	00H
	DD	05H
xdata$x	ENDS
;	COMDAT xdata$x
xdata$x	SEGMENT
__unwindtable$??_G?$CList@PAVCDrawingSymbol@@PAV1@@@UAEPAXI@Z DD 0ffffffffH
	DD	FLAT:___std_terminate
__ehfuncinfo$??_G?$CList@PAVCDrawingSymbol@@PAV1@@@UAEPAXI@Z DD 019930522H
	DD	01H
	DD	FLAT:__unwindtable$??_G?$CList@PAVCDrawingSymbol@@PAV1@@@UAEPAXI@Z
	DD	2 DUP(00H)
	DD	2 DUP(00H)
	DD	00H
	DD	05H
xdata$x	ENDS
;	COMDAT xdata$x
xdata$x	SEGMENT
__ehfuncinfo$??1?$CList@PAVCDrawingSymbol@@PAV1@@@UAE@XZ DD 019930522H
	DD	00H
	DD	00H
	DD	2 DUP(00H)
	DD	2 DUP(00H)
	DD	00H
	DD	05H
xdata$x	ENDS
;	COMDAT xdata$x
xdata$x	SEGMENT
__unwindtable$??1COrder@@UAE@XZ DD 0ffffffffH
	DD	FLAT:___std_terminate
__ehfuncinfo$??1COrder@@UAE@XZ DD 019930522H
	DD	01H
	DD	FLAT:__unwindtable$??1COrder@@UAE@XZ
	DD	2 DUP(00H)
	DD	2 DUP(00H)
	DD	00H
	DD	05H
xdata$x	ENDS
; Function compile flags: /Ogtp
; File C:\Program Files (x86)\Microsoft Visual Studio\2019\Community\VC\Tools\MSVC\14.29.30133\atlmfc\include\afxtempl.h
; File C:\Program Files (x86)\Microsoft Visual Studio\2019\Community\VC\Tools\MSVC\14.29.30133\atlmfc\include\afx.inl
; File C:\Program Files (x86)\Microsoft Visual Studio\2019\Community\VC\Tools\MSVC\14.29.30133\atlmfc\include\afxtempl.h
; File C:\Program Files (x86)\Microsoft Visual Studio\2019\Community\VC\Tools\MSVC\14.29.30133\atlmfc\include\afx.inl
; File C:\Program Files (x86)\Microsoft Visual Studio\2019\Community\VC\Tools\MSVC\14.29.30133\atlmfc\include\afxtempl.h
; File C:\Program Files (x86)\Microsoft Visual Studio\2019\Community\VC\Tools\MSVC\14.29.30133\atlmfc\include\afx.inl
; File C:\Program Files (x86)\Microsoft Visual Studio\2019\Community\VC\Tools\MSVC\14.29.30133\atlmfc\include\afxtempl.h
;	COMDAT ??$SerializeElements@PAVCDrawingSymbol@@@@YGXAAVCArchive@@PAPAVCDrawingSymbol@@H@Z
_TEXT	SEGMENT
_ar$ = 8						; size = 4
_pElements$ = 12					; size = 4
_nCount$ = 16						; size = 4
??$SerializeElements@PAVCDrawingSymbol@@@@YGXAAVCArchive@@PAPAVCDrawingSymbol@@H@Z PROC ; SerializeElements<CDrawingSymbol *>, COMDAT

; 67   : {

  00000	55		 push	 ebp
  00001	8b ec		 mov	 ebp, esp

; 68   : 	ENSURE(nCount == 0 || pElements != NULL);

  00003	8b 4d 0c	 mov	 ecx, DWORD PTR _pElements$[ebp]
  00006	53		 push	 ebx
  00007	56		 push	 esi
  00008	8b 75 10	 mov	 esi, DWORD PTR _nCount$[ebp]
  0000b	57		 push	 edi
  0000c	85 f6		 test	 esi, esi
  0000e	74 08		 je	 SHORT $LN2@SerializeE
  00010	85 c9		 test	 ecx, ecx
  00012	0f 84 89 00 00
	00		 je	 $LN34@SerializeE
$LN2@SerializeE:
; File C:\Program Files (x86)\Microsoft Visual Studio\2019\Community\VC\Tools\MSVC\14.29.30133\atlmfc\include\afx.inl

; 212  : 	{ return (m_nMode & CArchive::load) == 0; }

  00018	8b 55 08	 mov	 edx, DWORD PTR _ar$[ebp]
  0001b	8b 42 18	 mov	 eax, DWORD PTR [edx+24]
  0001e	f7 d0		 not	 eax
  00020	a8 01		 test	 al, 1
; File C:\Program Files (x86)\Microsoft Visual Studio\2019\Community\VC\Tools\MSVC\14.29.30133\atlmfc\include\afxtempl.h

; 73   : 	if (ar.IsStoring())

  00022	74 3c		 je	 SHORT $LN10@SerializeE

; 74   : 	{
; 75   : 		TYPE* pData;
; 76   : 		UINT_PTR nElementsLeft;
; 77   : 
; 78   : 		nElementsLeft = nCount;
; 79   : 		pData = pElements;
; 80   : 		while( nElementsLeft > 0 )

  00024	85 f6		 test	 esi, esi
  00026	74 31		 je	 SHORT $LN8@SerializeE
  00028	0f 1f 84 00 00
	00 00 00	 npad	 8
$LL5@SerializeE:

; 81   : 		{
; 82   : 			UINT nElementsToWrite;
; 83   : 
; 84   : 			nElementsToWrite = UINT(__min(nElementsLeft, INT_MAX/sizeof(TYPE)));

  00030	bb ff ff ff 1f	 mov	 ebx, 536870911		; 1fffffffH
  00035	3b f3		 cmp	 esi, ebx
  00037	0f 42 de	 cmovb	 ebx, esi

; 85   : 			ar.Write(pData, nElementsToWrite*sizeof(TYPE));

  0003a	8d 3c 9d 00 00
	00 00		 lea	 edi, DWORD PTR [ebx*4]
  00041	57		 push	 edi
  00042	51		 push	 ecx
  00043	8b ca		 mov	 ecx, edx
  00045	e8 00 00 00 00	 call	 ?Write@CArchive@@QAEXPBXI@Z ; CArchive::Write

; 86   : 			nElementsLeft -= nElementsToWrite;
; 87   : 			pData += nElementsToWrite;

  0004a	8b 4d 0c	 mov	 ecx, DWORD PTR _pElements$[ebp]
  0004d	8b 55 08	 mov	 edx, DWORD PTR _ar$[ebp]
  00050	03 cf		 add	 ecx, edi
  00052	89 4d 0c	 mov	 DWORD PTR _pElements$[ebp], ecx
  00055	2b f3		 sub	 esi, ebx
  00057	75 d7		 jne	 SHORT $LL5@SerializeE
$LN8@SerializeE:
  00059	5f		 pop	 edi

; 105  : 		}
; 106  : 	}
; 107  : }

  0005a	5e		 pop	 esi
  0005b	5b		 pop	 ebx
  0005c	5d		 pop	 ebp
  0005d	c2 0c 00	 ret	 12			; 0000000cH
$LN10@SerializeE:

; 97   : 		while( nElementsLeft > 0 )

  00060	85 f6		 test	 esi, esi
  00062	74 f5		 je	 SHORT $LN8@SerializeE
$LL7@SerializeE:

; 98   : 		{
; 99   : 			UINT nElementsToRead;
; 100  : 
; 101  : 			nElementsToRead = UINT(__min(nElementsLeft, INT_MAX/sizeof(TYPE)));

  00064	bf ff ff ff 1f	 mov	 edi, 536870911		; 1fffffffH
  00069	3b f7		 cmp	 esi, edi
  0006b	0f 42 fe	 cmovb	 edi, esi

; 102  : 			ar.EnsureRead(pData, nElementsToRead*sizeof(TYPE));

  0006e	8d 1c bd 00 00
	00 00		 lea	 ebx, DWORD PTR [edi*4]
; File C:\Program Files (x86)\Microsoft Visual Studio\2019\Community\VC\Tools\MSVC\14.29.30133\atlmfc\include\afx.inl

; 399  : 	UINT nRead=Read(lpBuf, nCount);

  00075	53		 push	 ebx
  00076	51		 push	 ecx
  00077	8b ca		 mov	 ecx, edx
  00079	e8 00 00 00 00	 call	 ?Read@CArchive@@QAEIPAXI@Z ; CArchive::Read

; 400  : 	if(nRead!=nCount)

  0007e	3b c3		 cmp	 eax, ebx
  00080	75 16		 jne	 SHORT $LN23@SerializeE
; File C:\Program Files (x86)\Microsoft Visual Studio\2019\Community\VC\Tools\MSVC\14.29.30133\atlmfc\include\afxtempl.h

; 97   : 		while( nElementsLeft > 0 )

  00082	8b 4d 0c	 mov	 ecx, DWORD PTR _pElements$[ebp]
  00085	8b 55 08	 mov	 edx, DWORD PTR _ar$[ebp]

; 103  : 			nElementsLeft -= nElementsToRead;
; 104  : 			pData += nElementsToRead;

  00088	03 cb		 add	 ecx, ebx
  0008a	89 4d 0c	 mov	 DWORD PTR _pElements$[ebp], ecx
  0008d	2b f7		 sub	 esi, edi
  0008f	75 d3		 jne	 SHORT $LL7@SerializeE

; 105  : 		}
; 106  : 	}
; 107  : }

  00091	5f		 pop	 edi
  00092	5e		 pop	 esi
  00093	5b		 pop	 ebx
  00094	5d		 pop	 ebp
  00095	c2 0c 00	 ret	 12			; 0000000cH
$LN23@SerializeE:
; File C:\Program Files (x86)\Microsoft Visual Studio\2019\Community\VC\Tools\MSVC\14.29.30133\atlmfc\include\afx.inl

; 402  : 		AfxThrowArchiveException(CArchiveException::endOfFile);

  00098	6a 00		 push	 0
  0009a	6a 03		 push	 3
  0009c	e8 00 00 00 00	 call	 ?AfxThrowArchiveException@@YGXHPBD@Z ; AfxThrowArchiveException
$LN34@SerializeE:
; File C:\Program Files (x86)\Microsoft Visual Studio\2019\Community\VC\Tools\MSVC\14.29.30133\atlmfc\include\afxtempl.h

; 68   : 	ENSURE(nCount == 0 || pElements != NULL);

  000a1	e8 00 00 00 00	 call	 ?AfxThrowInvalidArgException@@YGXXZ ; AfxThrowInvalidArgException
$LN32@SerializeE:
  000a6	cc		 int	 3
??$SerializeElements@PAVCDrawingSymbol@@@@YGXAAVCArchive@@PAPAVCDrawingSymbol@@H@Z ENDP ; SerializeElements<CDrawingSymbol *>
_TEXT	ENDS
; Function compile flags: /Ogtp
; File D:\git\src\IBK\IBK_DRFN\ProjSrc\SrcChartEx\ChartAddIn\ChartAnalysisToolAddIn\Symbol\Order.cpp
; File C:\Program Files (x86)\Microsoft Visual Studio\2019\Community\VC\Tools\MSVC\14.29.30133\atlmfc\include\afxtempl.h
; File D:\git\src\IBK\IBK_DRFN\ProjSrc\SrcChartEx\ChartAddIn\ChartAnalysisToolAddIn\Symbol\Order.cpp
; File C:\Program Files (x86)\Microsoft Visual Studio\2019\Community\VC\Tools\MSVC\14.29.30133\atlmfc\include\afxtempl.h
;	COMDAT ??_GCOrder@@UAEPAXI@Z
_TEXT	SEGMENT
__$EHRec$ = -12						; size = 12
___flags$ = 8						; size = 4
??_GCOrder@@UAEPAXI@Z PROC				; COrder::`scalar deleting destructor', COMDAT
; _this$ = ecx
  00000	55		 push	 ebp
  00001	8b ec		 mov	 ebp, esp
  00003	6a ff		 push	 -1
  00005	68 00 00 00 00	 push	 __ehhandler$??_GCOrder@@UAEPAXI@Z
  0000a	64 a1 00 00 00
	00		 mov	 eax, DWORD PTR fs:0
  00010	50		 push	 eax
  00011	56		 push	 esi
  00012	a1 00 00 00 00	 mov	 eax, DWORD PTR ___security_cookie
  00017	33 c5		 xor	 eax, ebp
  00019	50		 push	 eax
  0001a	8d 45 f4	 lea	 eax, DWORD PTR __$EHRec$[ebp]
  0001d	64 a3 00 00 00
	00		 mov	 DWORD PTR fs:0, eax
  00023	8b f1		 mov	 esi, ecx
; File D:\git\src\IBK\IBK_DRFN\ProjSrc\SrcChartEx\ChartAddIn\ChartAnalysisToolAddIn\Symbol\Order.cpp

; 21   : {

  00025	c7 06 00 00 00
	00		 mov	 DWORD PTR [esi], OFFSET ??_7COrder@@6B@
; File C:\Program Files (x86)\Microsoft Visual Studio\2019\Community\VC\Tools\MSVC\14.29.30133\atlmfc\include\afxtempl.h

; 872  : 	m_pBlocks->FreeDataChain();

  0002b	8b 4e 18	 mov	 ecx, DWORD PTR [esi+24]
; File D:\git\src\IBK\IBK_DRFN\ProjSrc\SrcChartEx\ChartAddIn\ChartAnalysisToolAddIn\Symbol\Order.cpp

; 21   : {

  0002e	c7 45 fc 00 00
	00 00		 mov	 DWORD PTR __$EHRec$[ebp+8], 0
; File C:\Program Files (x86)\Microsoft Visual Studio\2019\Community\VC\Tools\MSVC\14.29.30133\atlmfc\include\afxtempl.h

; 870  : 	m_nCount = 0;

  00035	c7 46 10 00 00
	00 00		 mov	 DWORD PTR [esi+16], 0

; 871  : 	m_pNodeHead = m_pNodeTail = m_pNodeFree = NULL;

  0003c	c7 46 14 00 00
	00 00		 mov	 DWORD PTR [esi+20], 0
  00043	c7 46 0c 00 00
	00 00		 mov	 DWORD PTR [esi+12], 0
  0004a	c7 46 08 00 00
	00 00		 mov	 DWORD PTR [esi+8], 0

; 872  : 	m_pBlocks->FreeDataChain();

  00051	e8 00 00 00 00	 call	 ?FreeDataChain@CPlex@@QAEXXZ ; CPlex::FreeDataChain

; 873  : 	m_pBlocks = NULL;

  00056	c7 46 18 00 00
	00 00		 mov	 DWORD PTR [esi+24], 0

; 872  : 	m_pBlocks->FreeDataChain();

  0005d	8b 4e 18	 mov	 ecx, DWORD PTR [esi+24]

; 878  : {

  00060	c6 45 fc 01	 mov	 BYTE PTR __$EHRec$[ebp+8], 1
  00064	c7 46 04 00 00
	00 00		 mov	 DWORD PTR [esi+4], OFFSET ??_7?$CList@PAVCDrawingSymbol@@PAV1@@@6B@

; 870  : 	m_nCount = 0;

  0006b	c7 46 10 00 00
	00 00		 mov	 DWORD PTR [esi+16], 0

; 871  : 	m_pNodeHead = m_pNodeTail = m_pNodeFree = NULL;

  00072	c7 46 14 00 00
	00 00		 mov	 DWORD PTR [esi+20], 0
  00079	c7 46 0c 00 00
	00 00		 mov	 DWORD PTR [esi+12], 0
  00080	c7 46 08 00 00
	00 00		 mov	 DWORD PTR [esi+8], 0

; 872  : 	m_pBlocks->FreeDataChain();

  00087	e8 00 00 00 00	 call	 ?FreeDataChain@CPlex@@QAEXXZ ; CPlex::FreeDataChain
  0008c	f6 45 08 01	 test	 BYTE PTR ___flags$[ebp], 1

; 873  : 	m_pBlocks = NULL;

  00090	c7 46 18 00 00
	00 00		 mov	 DWORD PTR [esi+24], 0
  00097	74 0b		 je	 SHORT $LN32@scalar
  00099	6a 20		 push	 32			; 00000020H
  0009b	56		 push	 esi
  0009c	e8 00 00 00 00	 call	 ??3@YAXPAXI@Z		; operator delete
  000a1	83 c4 08	 add	 esp, 8
$LN32@scalar:
  000a4	8b c6		 mov	 eax, esi
  000a6	8b 4d f4	 mov	 ecx, DWORD PTR __$EHRec$[ebp]
  000a9	64 89 0d 00 00
	00 00		 mov	 DWORD PTR fs:0, ecx
  000b0	59		 pop	 ecx
  000b1	5e		 pop	 esi
  000b2	8b e5		 mov	 esp, ebp
  000b4	5d		 pop	 ebp
  000b5	c2 04 00	 ret	 4
  000b8	cc		 int	 3
  000b9	cc		 int	 3
  000ba	cc		 int	 3
  000bb	cc		 int	 3
  000bc	cc		 int	 3
_TEXT	ENDS
;	COMDAT text$x
text$x	SEGMENT
__ehhandler$??_GCOrder@@UAEPAXI@Z:
  00000	90		 npad	 1
  00001	90		 npad	 1
  00002	8b 54 24 08	 mov	 edx, DWORD PTR [esp+8]
  00006	8d 42 0c	 lea	 eax, DWORD PTR [edx+12]
  00009	8b 4a f8	 mov	 ecx, DWORD PTR [edx-8]
  0000c	33 c8		 xor	 ecx, eax
  0000e	e8 00 00 00 00	 call	 @__security_check_cookie@4
  00013	b8 00 00 00 00	 mov	 eax, OFFSET __ehfuncinfo$??_GCOrder@@UAEPAXI@Z
  00018	e9 00 00 00 00	 jmp	 ___CxxFrameHandler3
text$x	ENDS
??_GCOrder@@UAEPAXI@Z ENDP				; COrder::`scalar deleting destructor'
; Function compile flags: /Ogtp
; File C:\Program Files (x86)\Microsoft Visual Studio\2019\Community\VC\Tools\MSVC\14.29.30133\atlmfc\include\afxtempl.h
; File C:\Program Files (x86)\Microsoft Visual Studio\2019\Community\VC\Tools\MSVC\14.29.30133\atlmfc\include\afx.inl
;	COMDAT ??_G?$CList@PAVCDrawingSymbol@@PAV1@@@UAEPAXI@Z
_TEXT	SEGMENT
__$EHRec$ = -12						; size = 12
___flags$ = 8						; size = 4
??_G?$CList@PAVCDrawingSymbol@@PAV1@@@UAEPAXI@Z PROC	; CList<CDrawingSymbol *,CDrawingSymbol *>::`scalar deleting destructor', COMDAT
; _this$ = ecx
  00000	55		 push	 ebp
  00001	8b ec		 mov	 ebp, esp
  00003	6a ff		 push	 -1
  00005	68 00 00 00 00	 push	 __ehhandler$??_G?$CList@PAVCDrawingSymbol@@PAV1@@@UAEPAXI@Z
  0000a	64 a1 00 00 00
	00		 mov	 eax, DWORD PTR fs:0
  00010	50		 push	 eax
  00011	56		 push	 esi
  00012	a1 00 00 00 00	 mov	 eax, DWORD PTR ___security_cookie
  00017	33 c5		 xor	 eax, ebp
  00019	50		 push	 eax
  0001a	8d 45 f4	 lea	 eax, DWORD PTR __$EHRec$[ebp]
  0001d	64 a3 00 00 00
	00		 mov	 DWORD PTR fs:0, eax
  00023	8b f1		 mov	 esi, ecx
; File C:\Program Files (x86)\Microsoft Visual Studio\2019\Community\VC\Tools\MSVC\14.29.30133\atlmfc\include\afxtempl.h

; 872  : 	m_pBlocks->FreeDataChain();

  00025	8b 4e 14	 mov	 ecx, DWORD PTR [esi+20]

; 878  : {

  00028	c7 45 fc 00 00
	00 00		 mov	 DWORD PTR __$EHRec$[ebp+8], 0
  0002f	c7 06 00 00 00
	00		 mov	 DWORD PTR [esi], OFFSET ??_7?$CList@PAVCDrawingSymbol@@PAV1@@@6B@

; 870  : 	m_nCount = 0;

  00035	c7 46 0c 00 00
	00 00		 mov	 DWORD PTR [esi+12], 0

; 871  : 	m_pNodeHead = m_pNodeTail = m_pNodeFree = NULL;

  0003c	c7 46 10 00 00
	00 00		 mov	 DWORD PTR [esi+16], 0
  00043	c7 46 08 00 00
	00 00		 mov	 DWORD PTR [esi+8], 0
  0004a	c7 46 04 00 00
	00 00		 mov	 DWORD PTR [esi+4], 0

; 872  : 	m_pBlocks->FreeDataChain();

  00051	e8 00 00 00 00	 call	 ?FreeDataChain@CPlex@@QAEXXZ ; CPlex::FreeDataChain

; 873  : 	m_pBlocks = NULL;

  00056	8b 45 08	 mov	 eax, DWORD PTR ___flags$[ebp]
  00059	c7 46 14 00 00
	00 00		 mov	 DWORD PTR [esi+20], 0
  00060	a8 01		 test	 al, 1
  00062	74 2c		 je	 SHORT $LN22@scalar
  00064	a8 04		 test	 al, 4
  00066	75 1d		 jne	 SHORT $LN3@scalar
; File C:\Program Files (x86)\Microsoft Visual Studio\2019\Community\VC\Tools\MSVC\14.29.30133\atlmfc\include\afx.inl

; 112  : 	{ ::operator delete(p); }

  00068	56		 push	 esi
  00069	e8 00 00 00 00	 call	 ??3@YAXPAX@Z		; operator delete
  0006e	83 c4 04	 add	 esp, 4
  00071	8b c6		 mov	 eax, esi
  00073	8b 4d f4	 mov	 ecx, DWORD PTR __$EHRec$[ebp]
  00076	64 89 0d 00 00
	00 00		 mov	 DWORD PTR fs:0, ecx
  0007d	59		 pop	 ecx
  0007e	5e		 pop	 esi
  0007f	8b e5		 mov	 esp, ebp
  00081	5d		 pop	 ebp
  00082	c2 04 00	 ret	 4
$LN3@scalar:
  00085	6a 1c		 push	 28			; 0000001cH
  00087	56		 push	 esi
  00088	e8 00 00 00 00	 call	 ?__global_delete@@YAXPAXI@Z ; __global_delete
  0008d	83 c4 08	 add	 esp, 8
$LN22@scalar:
  00090	8b c6		 mov	 eax, esi
  00092	8b 4d f4	 mov	 ecx, DWORD PTR __$EHRec$[ebp]
  00095	64 89 0d 00 00
	00 00		 mov	 DWORD PTR fs:0, ecx
  0009c	59		 pop	 ecx
  0009d	5e		 pop	 esi
  0009e	8b e5		 mov	 esp, ebp
  000a0	5d		 pop	 ebp
  000a1	c2 04 00	 ret	 4
  000a4	cc		 int	 3
  000a5	cc		 int	 3
  000a6	cc		 int	 3
  000a7	cc		 int	 3
  000a8	cc		 int	 3
_TEXT	ENDS
;	COMDAT text$x
text$x	SEGMENT
__ehhandler$??_G?$CList@PAVCDrawingSymbol@@PAV1@@@UAEPAXI@Z:
  00000	90		 npad	 1
  00001	90		 npad	 1
  00002	8b 54 24 08	 mov	 edx, DWORD PTR [esp+8]
  00006	8d 42 0c	 lea	 eax, DWORD PTR [edx+12]
  00009	8b 4a f8	 mov	 ecx, DWORD PTR [edx-8]
  0000c	33 c8		 xor	 ecx, eax
  0000e	e8 00 00 00 00	 call	 @__security_check_cookie@4
  00013	b8 00 00 00 00	 mov	 eax, OFFSET __ehfuncinfo$??_G?$CList@PAVCDrawingSymbol@@PAV1@@@UAEPAXI@Z
  00018	e9 00 00 00 00	 jmp	 ___CxxFrameHandler3
text$x	ENDS
??_G?$CList@PAVCDrawingSymbol@@PAV1@@@UAEPAXI@Z ENDP	; CList<CDrawingSymbol *,CDrawingSymbol *>::`scalar deleting destructor'
; Function compile flags: /Ogtp
; File C:\Program Files (x86)\Microsoft Visual Studio\2019\Community\VC\Tools\MSVC\14.29.30133\atlmfc\include\afxtempl.h
; File C:\Program Files (x86)\Microsoft Visual Studio\2019\Community\VC\Tools\MSVC\14.29.30133\atlmfc\include\afx.inl
; File C:\Program Files (x86)\Microsoft Visual Studio\2019\Community\VC\Tools\MSVC\14.29.30133\atlmfc\include\afxtempl.h
; File C:\Program Files (x86)\Microsoft Visual Studio\2019\Community\VC\Tools\MSVC\14.29.30133\atlmfc\include\afx.inl
; File C:\Program Files (x86)\Microsoft Visual Studio\2019\Community\VC\Tools\MSVC\14.29.30133\atlmfc\include\afxtempl.h
; File C:\Program Files (x86)\Microsoft Visual Studio\2019\Community\VC\Tools\MSVC\14.29.30133\atlmfc\include\afx.inl
; File C:\Program Files (x86)\Microsoft Visual Studio\2019\Community\VC\Tools\MSVC\14.29.30133\atlmfc\include\afxtempl.h
; File C:\Program Files (x86)\Microsoft Visual Studio\2019\Community\VC\Tools\MSVC\14.29.30133\atlmfc\include\afx.inl
; File C:\Program Files (x86)\Microsoft Visual Studio\2019\Community\VC\Tools\MSVC\14.29.30133\atlmfc\include\afxtempl.h
; File C:\Program Files (x86)\Microsoft Visual Studio\2019\Community\VC\Tools\MSVC\14.29.30133\atlmfc\include\afx.inl
; File C:\Program Files (x86)\Microsoft Visual Studio\2019\Community\VC\Tools\MSVC\14.29.30133\atlmfc\include\afxtempl.h
; File C:\Program Files (x86)\Microsoft Visual Studio\2019\Community\VC\Tools\MSVC\14.29.30133\atlmfc\include\afx.inl
; File C:\Program Files (x86)\Microsoft Visual Studio\2019\Community\VC\Tools\MSVC\14.29.30133\atlmfc\include\afxtempl.h
;	COMDAT ?Serialize@?$CList@PAVCDrawingSymbol@@PAV1@@@UAEXAAVCArchive@@@Z
_TEXT	SEGMENT
_nNewCount$1$ = -16					; size = 4
_newData$1 = -12					; size = 4
_pData$1$ = -8						; size = 4
_pNode$1$ = -8						; size = 4
_nElementsLeft$1$ = -4					; size = 4
_this$1$ = -4						; size = 4
_ar$ = 8						; size = 4
?Serialize@?$CList@PAVCDrawingSymbol@@PAV1@@@UAEXAAVCArchive@@@Z PROC ; CList<CDrawingSymbol *,CDrawingSymbol *>::Serialize, COMDAT
; _this$ = ecx

; 1169 : {

  00000	55		 push	 ebp
  00001	8b ec		 mov	 ebp, esp
  00003	83 ec 10	 sub	 esp, 16			; 00000010H
  00006	53		 push	 ebx
  00007	8b d9		 mov	 ebx, ecx
; File C:\Program Files (x86)\Microsoft Visual Studio\2019\Community\VC\Tools\MSVC\14.29.30133\atlmfc\include\afx.inl

; 212  : 	{ return (m_nMode & CArchive::load) == 0; }

  00009	8b 4d 08	 mov	 ecx, DWORD PTR _ar$[ebp]
; File C:\Program Files (x86)\Microsoft Visual Studio\2019\Community\VC\Tools\MSVC\14.29.30133\atlmfc\include\afxtempl.h

; 1169 : {

  0000c	56		 push	 esi
  0000d	57		 push	 edi
  0000e	89 5d fc	 mov	 DWORD PTR _this$1$[ebp], ebx
; File C:\Program Files (x86)\Microsoft Visual Studio\2019\Community\VC\Tools\MSVC\14.29.30133\atlmfc\include\afx.inl

; 212  : 	{ return (m_nMode & CArchive::load) == 0; }

  00011	8b 41 18	 mov	 eax, DWORD PTR [ecx+24]
  00014	f7 d0		 not	 eax
  00016	a8 01		 test	 al, 1
; File C:\Program Files (x86)\Microsoft Visual Studio\2019\Community\VC\Tools\MSVC\14.29.30133\atlmfc\include\afxtempl.h

; 1174 : 	if (ar.IsStoring())

  00018	0f 84 ae 00 00
	00		 je	 $LN7@Serialize

; 1175 : 	{
; 1176 : 		ar.WriteCount(m_nCount);

  0001e	ff 73 0c	 push	 DWORD PTR [ebx+12]
  00021	e8 00 00 00 00	 call	 ?WriteCount@CArchive@@QAEXK@Z ; CArchive::WriteCount

; 1177 : 		for (CNode* pNode = m_pNodeHead; pNode != NULL; pNode = pNode->pNext)

  00026	8b 43 04	 mov	 eax, DWORD PTR [ebx+4]
  00029	89 45 f8	 mov	 DWORD PTR _pNode$1$[ebp], eax
  0002c	85 c0		 test	 eax, eax
  0002e	0f 84 43 01 00
	00		 je	 $LN68@Serialize
$LL4@Serialize:

; 1178 : 		{
; 1179 : 			ASSERT(AfxIsValidAddress(pNode, sizeof(CNode)));
; 1180 : 			TYPE* pData;
; 1181 : 			/*
; 1182 : 			 * in some cases the & operator might be overloaded, and we cannot use it to obtain
; 1183 : 			 * the address of a given object.  We then use the following trick to get the address
; 1184 : 			 */
; 1185 : 			pData = reinterpret_cast< TYPE* >( &reinterpret_cast< int& >( static_cast< TYPE& >( pNode->data ) ) );

  00034	8d 70 08	 lea	 esi, DWORD PTR [eax+8]

; 68   : 	ENSURE(nCount == 0 || pElements != NULL);

  00037	85 f6		 test	 esi, esi
  00039	0f 84 4a 01 00
	00		 je	 $LN60@Serialize
; File C:\Program Files (x86)\Microsoft Visual Studio\2019\Community\VC\Tools\MSVC\14.29.30133\atlmfc\include\afx.inl

; 212  : 	{ return (m_nMode & CArchive::load) == 0; }

  0003f	8b 4d 08	 mov	 ecx, DWORD PTR _ar$[ebp]
  00042	8b 41 18	 mov	 eax, DWORD PTR [ecx+24]
  00045	f7 d0		 not	 eax
  00047	a8 01		 test	 al, 1
; File C:\Program Files (x86)\Microsoft Visual Studio\2019\Community\VC\Tools\MSVC\14.29.30133\atlmfc\include\afxtempl.h

; 73   : 	if (ar.IsStoring())

  00049	74 33		 je	 SHORT $LN21@Serialize

; 74   : 	{
; 75   : 		TYPE* pData;
; 76   : 		UINT_PTR nElementsLeft;
; 77   : 
; 78   : 		nElementsLeft = nCount;

  0004b	b8 01 00 00 00	 mov	 eax, 1
  00050	89 45 fc	 mov	 DWORD PTR _nElementsLeft$1$[ebp], eax
$LL16@Serialize:

; 80   : 		while( nElementsLeft > 0 )
; 81   : 		{
; 82   : 			UINT nElementsToWrite;
; 83   : 
; 84   : 			nElementsToWrite = UINT(__min(nElementsLeft, INT_MAX/sizeof(TYPE)));

  00053	bb ff ff ff 1f	 mov	 ebx, 536870911		; 1fffffffH
  00058	3b c3		 cmp	 eax, ebx
  0005a	0f 42 d8	 cmovb	 ebx, eax

; 85   : 			ar.Write(pData, nElementsToWrite*sizeof(TYPE));

  0005d	8d 3c 9d 00 00
	00 00		 lea	 edi, DWORD PTR [ebx*4]
  00064	57		 push	 edi
  00065	56		 push	 esi
  00066	e8 00 00 00 00	 call	 ?Write@CArchive@@QAEXPBXI@Z ; CArchive::Write

; 86   : 			nElementsLeft -= nElementsToWrite;

  0006b	8b 45 fc	 mov	 eax, DWORD PTR _nElementsLeft$1$[ebp]

; 87   : 			pData += nElementsToWrite;

  0006e	03 f7		 add	 esi, edi
  00070	8b 4d 08	 mov	 ecx, DWORD PTR _ar$[ebp]
  00073	2b c3		 sub	 eax, ebx
  00075	89 45 fc	 mov	 DWORD PTR _nElementsLeft$1$[ebp], eax
  00078	85 c0		 test	 eax, eax
  0007a	75 d7		 jne	 SHORT $LL16@Serialize

; 88   : 		}
; 89   : 	}

  0007c	eb 35		 jmp	 SHORT $LN2@Serialize
$LN21@Serialize:

; 90   : 	else
; 91   : 	{
; 92   : 		TYPE* pData;
; 93   : 		UINT_PTR nElementsLeft;
; 94   : 
; 95   : 		nElementsLeft = nCount;

  0007e	bf 01 00 00 00	 mov	 edi, 1
$LL18@Serialize:

; 98   : 		{
; 99   : 			UINT nElementsToRead;
; 100  : 
; 101  : 			nElementsToRead = UINT(__min(nElementsLeft, INT_MAX/sizeof(TYPE)));

  00083	bb ff ff ff 1f	 mov	 ebx, 536870911		; 1fffffffH
  00088	3b fb		 cmp	 edi, ebx
  0008a	0f 42 df	 cmovb	 ebx, edi

; 102  : 			ar.EnsureRead(pData, nElementsToRead*sizeof(TYPE));

  0008d	8d 04 9d 00 00
	00 00		 lea	 eax, DWORD PTR [ebx*4]
; File C:\Program Files (x86)\Microsoft Visual Studio\2019\Community\VC\Tools\MSVC\14.29.30133\atlmfc\include\afx.inl

; 399  : 	UINT nRead=Read(lpBuf, nCount);

  00094	50		 push	 eax
  00095	56		 push	 esi
  00096	e8 00 00 00 00	 call	 ?Read@CArchive@@QAEIPAXI@Z ; CArchive::Read

; 400  : 	if(nRead!=nCount)

  0009b	8d 0c 9d 00 00
	00 00		 lea	 ecx, DWORD PTR [ebx*4]
  000a2	3b c1		 cmp	 eax, ecx
  000a4	0f 85 d6 00 00
	00		 jne	 $LN59@Serialize
; File C:\Program Files (x86)\Microsoft Visual Studio\2019\Community\VC\Tools\MSVC\14.29.30133\atlmfc\include\afxtempl.h

; 97   : 		while( nElementsLeft > 0 )

  000aa	03 f1		 add	 esi, ecx
  000ac	8b 4d 08	 mov	 ecx, DWORD PTR _ar$[ebp]

; 103  : 			nElementsLeft -= nElementsToRead;

  000af	2b fb		 sub	 edi, ebx
  000b1	75 d0		 jne	 SHORT $LL18@Serialize
$LN2@Serialize:

; 1177 : 		for (CNode* pNode = m_pNodeHead; pNode != NULL; pNode = pNode->pNext)

  000b3	8b 45 f8	 mov	 eax, DWORD PTR _pNode$1$[ebp]
  000b6	8b 00		 mov	 eax, DWORD PTR [eax]
  000b8	89 45 f8	 mov	 DWORD PTR _pNode$1$[ebp], eax
  000bb	85 c0		 test	 eax, eax
  000bd	0f 85 71 ff ff
	ff		 jne	 $LL4@Serialize

; 1197 : 		}
; 1198 : 	}
; 1199 : }

  000c3	5f		 pop	 edi
  000c4	5e		 pop	 esi
  000c5	5b		 pop	 ebx
  000c6	8b e5		 mov	 esp, ebp
  000c8	5d		 pop	 ebp
  000c9	c2 04 00	 ret	 4
$LN7@Serialize:

; 1186 : 			SerializeElements<TYPE>(ar, pData, 1);
; 1187 : 		}
; 1188 : 	}
; 1189 : 	else
; 1190 : 	{
; 1191 : 		DWORD_PTR nNewCount = ar.ReadCount();

  000cc	e8 00 00 00 00	 call	 ?ReadCount@CArchive@@QAEKXZ ; CArchive::ReadCount

; 1192 : 		while (nNewCount--)

  000d1	85 c0		 test	 eax, eax
  000d3	0f 84 9e 00 00
	00		 je	 $LN68@Serialize
  000d9	0f 1f 80 00 00
	00 00		 npad	 7
$LL5@Serialize:
  000e0	48		 dec	 eax
  000e1	89 45 f0	 mov	 DWORD PTR _nNewCount$1$[ebp], eax
; File C:\Program Files (x86)\Microsoft Visual Studio\2019\Community\VC\Tools\MSVC\14.29.30133\atlmfc\include\afx.inl

; 212  : 	{ return (m_nMode & CArchive::load) == 0; }

  000e4	8b 45 08	 mov	 eax, DWORD PTR _ar$[ebp]
  000e7	8b 48 18	 mov	 ecx, DWORD PTR [eax+24]
  000ea	f7 d1		 not	 ecx
  000ec	f6 c1 01	 test	 cl, 1
; File C:\Program Files (x86)\Microsoft Visual Studio\2019\Community\VC\Tools\MSVC\14.29.30133\atlmfc\include\afxtempl.h

; 73   : 	if (ar.IsStoring())

  000ef	74 3a		 je	 SHORT $LN42@Serialize

; 79   : 		pData = pElements;

  000f1	8d 4d f4	 lea	 ecx, DWORD PTR _newData$1[ebp]
  000f4	bb 01 00 00 00	 mov	 ebx, 1
  000f9	89 4d f8	 mov	 DWORD PTR _pData$1$[ebp], ecx
  000fc	0f 1f 40 00	 npad	 4
$LL37@Serialize:

; 80   : 		while( nElementsLeft > 0 )
; 81   : 		{
; 82   : 			UINT nElementsToWrite;
; 83   : 
; 84   : 			nElementsToWrite = UINT(__min(nElementsLeft, INT_MAX/sizeof(TYPE)));

  00100	bf ff ff ff 1f	 mov	 edi, 536870911		; 1fffffffH
  00105	3b df		 cmp	 ebx, edi
  00107	0f 42 fb	 cmovb	 edi, ebx

; 85   : 			ar.Write(pData, nElementsToWrite*sizeof(TYPE));

  0010a	8d 34 bd 00 00
	00 00		 lea	 esi, DWORD PTR [edi*4]
  00111	56		 push	 esi
  00112	51		 push	 ecx
  00113	8b c8		 mov	 ecx, eax
  00115	e8 00 00 00 00	 call	 ?Write@CArchive@@QAEXPBXI@Z ; CArchive::Write

; 87   : 			pData += nElementsToWrite;

  0011a	8b 4d f8	 mov	 ecx, DWORD PTR _pData$1$[ebp]
  0011d	8b 45 08	 mov	 eax, DWORD PTR _ar$[ebp]
  00120	03 ce		 add	 ecx, esi
  00122	89 4d f8	 mov	 DWORD PTR _pData$1$[ebp], ecx
  00125	2b df		 sub	 ebx, edi
  00127	75 d7		 jne	 SHORT $LL37@Serialize

; 88   : 		}
; 89   : 	}

  00129	eb 36		 jmp	 SHORT $LN40@Serialize
$LN42@Serialize:

; 90   : 	else
; 91   : 	{
; 92   : 		TYPE* pData;
; 93   : 		UINT_PTR nElementsLeft;
; 94   : 
; 95   : 		nElementsLeft = nCount;

  0012b	be 01 00 00 00	 mov	 esi, 1

; 96   : 		pData = pElements;

  00130	8d 5d f4	 lea	 ebx, DWORD PTR _newData$1[ebp]
$LL39@Serialize:

; 98   : 		{
; 99   : 			UINT nElementsToRead;
; 100  : 
; 101  : 			nElementsToRead = UINT(__min(nElementsLeft, INT_MAX/sizeof(TYPE)));

  00133	bf ff ff ff 1f	 mov	 edi, 536870911		; 1fffffffH
  00138	3b f7		 cmp	 esi, edi
  0013a	0f 42 fe	 cmovb	 edi, esi

; 102  : 			ar.EnsureRead(pData, nElementsToRead*sizeof(TYPE));

  0013d	8d 0c bd 00 00
	00 00		 lea	 ecx, DWORD PTR [edi*4]
; File C:\Program Files (x86)\Microsoft Visual Studio\2019\Community\VC\Tools\MSVC\14.29.30133\atlmfc\include\afx.inl

; 399  : 	UINT nRead=Read(lpBuf, nCount);

  00144	51		 push	 ecx
  00145	53		 push	 ebx
  00146	8b c8		 mov	 ecx, eax
  00148	e8 00 00 00 00	 call	 ?Read@CArchive@@QAEIPAXI@Z ; CArchive::Read

; 400  : 	if(nRead!=nCount)

  0014d	8d 0c bd 00 00
	00 00		 lea	 ecx, DWORD PTR [edi*4]
  00154	3b c1		 cmp	 eax, ecx
  00156	75 28		 jne	 SHORT $LN59@Serialize
; File C:\Program Files (x86)\Microsoft Visual Studio\2019\Community\VC\Tools\MSVC\14.29.30133\atlmfc\include\afxtempl.h

; 104  : 			pData += nElementsToRead;

  00158	8b 45 08	 mov	 eax, DWORD PTR _ar$[ebp]
  0015b	03 d9		 add	 ebx, ecx
  0015d	2b f7		 sub	 esi, edi
  0015f	75 d2		 jne	 SHORT $LL39@Serialize
$LN40@Serialize:

; 1193 : 		{
; 1194 : 			TYPE newData[1];
; 1195 : 			SerializeElements<TYPE>(ar, newData, 1);
; 1196 : 			AddTail(newData[0]);

  00161	ff 75 f4	 push	 DWORD PTR _newData$1[ebp]
  00164	8b 4d fc	 mov	 ecx, DWORD PTR _this$1$[ebp]
  00167	e8 00 00 00 00	 call	 ?AddTail@?$CList@PAVCDrawingSymbol@@PAV1@@@QAEPAU__POSITION@@PAVCDrawingSymbol@@@Z ; CList<CDrawingSymbol *,CDrawingSymbol *>::AddTail
  0016c	8b 45 f0	 mov	 eax, DWORD PTR _nNewCount$1$[ebp]
  0016f	85 c0		 test	 eax, eax
  00171	0f 85 69 ff ff
	ff		 jne	 $LL5@Serialize
$LN68@Serialize:
  00177	5f		 pop	 edi

; 1197 : 		}
; 1198 : 	}
; 1199 : }

  00178	5e		 pop	 esi
  00179	5b		 pop	 ebx
  0017a	8b e5		 mov	 esp, ebp
  0017c	5d		 pop	 ebp
  0017d	c2 04 00	 ret	 4
$LN59@Serialize:
  00180	6a 00		 push	 0
  00182	6a 03		 push	 3
  00184	e8 00 00 00 00	 call	 ?AfxThrowArchiveException@@YGXHPBD@Z ; AfxThrowArchiveException
$LN60@Serialize:

; 68   : 	ENSURE(nCount == 0 || pElements != NULL);

  00189	e8 00 00 00 00	 call	 ?AfxThrowInvalidArgException@@YGXXZ ; AfxThrowInvalidArgException
$LN85@Serialize:
  0018e	cc		 int	 3
?Serialize@?$CList@PAVCDrawingSymbol@@PAV1@@@UAEXAAVCArchive@@@Z ENDP ; CList<CDrawingSymbol *,CDrawingSymbol *>::Serialize
_TEXT	ENDS
; Function compile flags: /Ogtp
; File C:\Program Files (x86)\Microsoft Visual Studio\2019\Community\VC\Tools\MSVC\14.29.30133\atlmfc\include\afxtempl.h
;	COMDAT ??1?$CList@PAVCDrawingSymbol@@PAV1@@@UAE@XZ
_TEXT	SEGMENT
__$EHRec$ = -12						; size = 12
??1?$CList@PAVCDrawingSymbol@@PAV1@@@UAE@XZ PROC	; CList<CDrawingSymbol *,CDrawingSymbol *>::~CList<CDrawingSymbol *,CDrawingSymbol *>, COMDAT
; _this$ = ecx

; 878  : {

  00000	55		 push	 ebp
  00001	8b ec		 mov	 ebp, esp
  00003	6a ff		 push	 -1
  00005	68 00 00 00 00	 push	 __ehhandler$??1?$CList@PAVCDrawingSymbol@@PAV1@@@UAE@XZ
  0000a	64 a1 00 00 00
	00		 mov	 eax, DWORD PTR fs:0
  00010	50		 push	 eax
  00011	56		 push	 esi
  00012	a1 00 00 00 00	 mov	 eax, DWORD PTR ___security_cookie
  00017	33 c5		 xor	 eax, ebp
  00019	50		 push	 eax
  0001a	8d 45 f4	 lea	 eax, DWORD PTR __$EHRec$[ebp]
  0001d	64 a3 00 00 00
	00		 mov	 DWORD PTR fs:0, eax
  00023	8b f1		 mov	 esi, ecx

; 872  : 	m_pBlocks->FreeDataChain();

  00025	8b 4e 14	 mov	 ecx, DWORD PTR [esi+20]

; 878  : {

  00028	c7 06 00 00 00
	00		 mov	 DWORD PTR [esi], OFFSET ??_7?$CList@PAVCDrawingSymbol@@PAV1@@@6B@

; 870  : 	m_nCount = 0;

  0002e	c7 46 0c 00 00
	00 00		 mov	 DWORD PTR [esi+12], 0

; 871  : 	m_pNodeHead = m_pNodeTail = m_pNodeFree = NULL;

  00035	c7 46 10 00 00
	00 00		 mov	 DWORD PTR [esi+16], 0
  0003c	c7 46 08 00 00
	00 00		 mov	 DWORD PTR [esi+8], 0
  00043	c7 46 04 00 00
	00 00		 mov	 DWORD PTR [esi+4], 0

; 872  : 	m_pBlocks->FreeDataChain();

  0004a	e8 00 00 00 00	 call	 ?FreeDataChain@CPlex@@QAEXXZ ; CPlex::FreeDataChain

; 873  : 	m_pBlocks = NULL;

  0004f	c7 46 14 00 00
	00 00		 mov	 DWORD PTR [esi+20], 0

; 879  : 	RemoveAll();
; 880  : 	ASSERT(m_nCount == 0);
; 881  : }

  00056	8b 4d f4	 mov	 ecx, DWORD PTR __$EHRec$[ebp]
  00059	64 89 0d 00 00
	00 00		 mov	 DWORD PTR fs:0, ecx
  00060	59		 pop	 ecx
  00061	5e		 pop	 esi
  00062	8b e5		 mov	 esp, ebp
  00064	5d		 pop	 ebp
  00065	c3		 ret	 0
  00066	cc		 int	 3
  00067	cc		 int	 3
  00068	cc		 int	 3
  00069	cc		 int	 3
  0006a	cc		 int	 3
_TEXT	ENDS
;	COMDAT text$x
text$x	SEGMENT
__ehhandler$??1?$CList@PAVCDrawingSymbol@@PAV1@@@UAE@XZ:
  00000	90		 npad	 1
  00001	90		 npad	 1
  00002	8b 54 24 08	 mov	 edx, DWORD PTR [esp+8]
  00006	8d 42 0c	 lea	 eax, DWORD PTR [edx+12]
  00009	8b 4a f8	 mov	 ecx, DWORD PTR [edx-8]
  0000c	33 c8		 xor	 ecx, eax
  0000e	e8 00 00 00 00	 call	 @__security_check_cookie@4
  00013	b8 00 00 00 00	 mov	 eax, OFFSET __ehfuncinfo$??1?$CList@PAVCDrawingSymbol@@PAV1@@@UAE@XZ
  00018	e9 00 00 00 00	 jmp	 ___CxxFrameHandler3
text$x	ENDS
??1?$CList@PAVCDrawingSymbol@@PAV1@@@UAE@XZ ENDP	; CList<CDrawingSymbol *,CDrawingSymbol *>::~CList<CDrawingSymbol *,CDrawingSymbol *>
; Function compile flags: /Ogtp
; File C:\Program Files (x86)\Microsoft Visual Studio\2019\Community\VC\Tools\MSVC\14.29.30133\atlmfc\include\afxtempl.h
;	COMDAT ?FreeNode@?$CList@PAVCDrawingSymbol@@PAV1@@@IAEXPAUCNode@1@@Z
_TEXT	SEGMENT
_pNode$ = 8						; size = 4
?FreeNode@?$CList@PAVCDrawingSymbol@@PAV1@@@IAEXPAUCNode@1@@Z PROC ; CList<CDrawingSymbol *,CDrawingSymbol *>::FreeNode, COMDAT
; _this$ = ecx

; 936  : {

  00000	55		 push	 ebp
  00001	8b ec		 mov	 ebp, esp

; 937  : 	pNode->data.~TYPE();
; 938  : 	pNode->pNext = m_pNodeFree;

  00003	8b 55 08	 mov	 edx, DWORD PTR _pNode$[ebp]
  00006	56		 push	 esi
  00007	8b f1		 mov	 esi, ecx
  00009	8b 46 10	 mov	 eax, DWORD PTR [esi+16]
  0000c	89 02		 mov	 DWORD PTR [edx], eax

; 939  : 	m_pNodeFree = pNode;
; 940  : 	m_nCount--;

  0000e	83 46 0c ff	 add	 DWORD PTR [esi+12], -1
  00012	89 56 10	 mov	 DWORD PTR [esi+16], edx

; 941  : 	ASSERT(m_nCount >= 0);  // make sure we don't underflow
; 942  : 
; 943  : 	// if no more elements, cleanup completely
; 944  : 	if (m_nCount == 0)

  00015	75 2b		 jne	 SHORT $LN2@FreeNode

; 872  : 	m_pBlocks->FreeDataChain();

  00017	8b 4e 14	 mov	 ecx, DWORD PTR [esi+20]
  0001a	c7 46 0c 00 00
	00 00		 mov	 DWORD PTR [esi+12], 0
  00021	c7 46 10 00 00
	00 00		 mov	 DWORD PTR [esi+16], 0
  00028	c7 46 08 00 00
	00 00		 mov	 DWORD PTR [esi+8], 0
  0002f	c7 46 04 00 00
	00 00		 mov	 DWORD PTR [esi+4], 0
  00036	e8 00 00 00 00	 call	 ?FreeDataChain@CPlex@@QAEXXZ ; CPlex::FreeDataChain

; 873  : 	m_pBlocks = NULL;

  0003b	c7 46 14 00 00
	00 00		 mov	 DWORD PTR [esi+20], 0
$LN2@FreeNode:
  00042	5e		 pop	 esi

; 945  : 		RemoveAll();
; 946  : }

  00043	5d		 pop	 ebp
  00044	c2 04 00	 ret	 4
?FreeNode@?$CList@PAVCDrawingSymbol@@PAV1@@@IAEXPAUCNode@1@@Z ENDP ; CList<CDrawingSymbol *,CDrawingSymbol *>::FreeNode
_TEXT	ENDS
; Function compile flags: /Ogtp
; File C:\Program Files (x86)\Microsoft Visual Studio\2019\Community\VC\Tools\MSVC\14.29.30133\atlmfc\include\afxtempl.h
;	COMDAT ?NewNode@?$CList@PAVCDrawingSymbol@@PAV1@@@IAEPAUCNode@1@PAU21@0@Z
_TEXT	SEGMENT
_pPrev$ = 8						; size = 4
_pNext$ = 12						; size = 4
?NewNode@?$CList@PAVCDrawingSymbol@@PAV1@@@IAEPAUCNode@1@PAU21@0@Z PROC ; CList<CDrawingSymbol *,CDrawingSymbol *>::NewNode, COMDAT
; _this$ = ecx

; 901  : {

  00000	55		 push	 ebp
  00001	8b ec		 mov	 ebp, esp
  00003	56		 push	 esi
  00004	8b f1		 mov	 esi, ecx

; 902  : 	if (m_pNodeFree == NULL)

  00006	83 7e 10 00	 cmp	 DWORD PTR [esi+16], 0
  0000a	75 34		 jne	 SHORT $LN7@NewNode

; 903  : 	{
; 904  : 		// add another block
; 905  : 		CPlex* pNewBlock = CPlex::Create(m_pBlocks, m_nBlockSize,

  0000c	6a 0c		 push	 12			; 0000000cH
  0000e	ff 76 18	 push	 DWORD PTR [esi+24]
  00011	8d 46 14	 lea	 eax, DWORD PTR [esi+20]
  00014	50		 push	 eax
  00015	e8 00 00 00 00	 call	 ?Create@CPlex@@SGPAU1@AAPAU1@II@Z ; CPlex::Create

; 906  : 				 sizeof(CNode));
; 907  : 
; 908  : 		// chain them into free list
; 909  : 		CNode* pNode = (CNode*) pNewBlock->data();
; 910  : 		// free in reverse order to make it easier to debug
; 911  : 		pNode += m_nBlockSize - 1;

  0001a	8b 56 18	 mov	 edx, DWORD PTR [esi+24]
  0001d	83 c0 08	 add	 eax, 8
  00020	8d 0c 52	 lea	 ecx, DWORD PTR [edx+edx*2]
  00023	8d 04 88	 lea	 eax, DWORD PTR [eax+ecx*4]
  00026	83 c0 f4	 add	 eax, -12		; fffffff4H

; 912  : 		for (INT_PTR i = m_nBlockSize-1; i >= 0; i--, pNode--)

  00029	83 c2 ff	 add	 edx, -1
  0002c	78 12		 js	 SHORT $LN7@NewNode
  0002e	66 90		 npad	 2
$LL4@NewNode:

; 913  : 		{
; 914  : 			pNode->pNext = m_pNodeFree;

  00030	8b 4e 10	 mov	 ecx, DWORD PTR [esi+16]
  00033	89 08		 mov	 DWORD PTR [eax], ecx

; 915  : 			m_pNodeFree = pNode;

  00035	89 46 10	 mov	 DWORD PTR [esi+16], eax
  00038	83 e8 0c	 sub	 eax, 12			; 0000000cH
  0003b	83 ea 01	 sub	 edx, 1
  0003e	79 f0		 jns	 SHORT $LL4@NewNode
$LN7@NewNode:

; 916  : 		}
; 917  : 	}
; 918  : 	ENSURE(m_pNodeFree != NULL);  // we must have something

  00040	8b 46 10	 mov	 eax, DWORD PTR [esi+16]
  00043	85 c0		 test	 eax, eax
  00045	74 18		 je	 SHORT $LN17@NewNode

; 919  : 
; 920  : 	CList::CNode* pNode = m_pNodeFree;
; 921  : 	m_pNodeFree = m_pNodeFree->pNext;

  00047	8b 08		 mov	 ecx, DWORD PTR [eax]
  00049	89 4e 10	 mov	 DWORD PTR [esi+16], ecx

; 922  : 	pNode->pPrev = pPrev;

  0004c	8b 4d 08	 mov	 ecx, DWORD PTR _pPrev$[ebp]
  0004f	89 48 04	 mov	 DWORD PTR [eax+4], ecx

; 923  : 	pNode->pNext = pNext;

  00052	8b 4d 0c	 mov	 ecx, DWORD PTR _pNext$[ebp]
  00055	89 08		 mov	 DWORD PTR [eax], ecx

; 924  : 	m_nCount++;

  00057	ff 46 0c	 inc	 DWORD PTR [esi+12]

; 925  : 	ASSERT(m_nCount > 0);  // make sure we don't overflow
; 926  : 
; 927  : #pragma push_macro("new")
; 928  : #undef new
; 929  : 	::new( (void*)( &pNode->data ) ) TYPE;
; 930  : #pragma pop_macro("new")
; 931  : 	return pNode;

  0005a	5e		 pop	 esi

; 932  : }

  0005b	5d		 pop	 ebp
  0005c	c2 08 00	 ret	 8
$LN17@NewNode:

; 916  : 		}
; 917  : 	}
; 918  : 	ENSURE(m_pNodeFree != NULL);  // we must have something

  0005f	e8 00 00 00 00	 call	 ?AfxThrowInvalidArgException@@YGXXZ ; AfxThrowInvalidArgException
$LN15@NewNode:
  00064	cc		 int	 3
?NewNode@?$CList@PAVCDrawingSymbol@@PAV1@@@IAEPAUCNode@1@PAU21@0@Z ENDP ; CList<CDrawingSymbol *,CDrawingSymbol *>::NewNode
_TEXT	ENDS
; Function compile flags: /Ogtp
; File C:\Program Files (x86)\Microsoft Visual Studio\2019\Community\VC\Tools\MSVC\14.29.30133\atlmfc\include\afxtempl.h
;	COMDAT ?FindIndex@?$CList@PAVCDrawingSymbol@@PAV1@@@QBEPAU__POSITION@@H@Z
_TEXT	SEGMENT
_nIndex$ = 8						; size = 4
?FindIndex@?$CList@PAVCDrawingSymbol@@PAV1@@@QBEPAU__POSITION@@H@Z PROC ; CList<CDrawingSymbol *,CDrawingSymbol *>::FindIndex, COMDAT
; _this$ = ecx

; 1130 : {

  00000	55		 push	 ebp
  00001	8b ec		 mov	 ebp, esp

; 1131 : 	ASSERT_VALID(this);
; 1132 : 
; 1133 : 	if (nIndex >= m_nCount || nIndex < 0)

  00003	8b 55 08	 mov	 edx, DWORD PTR _nIndex$[ebp]
  00006	3b 51 0c	 cmp	 edx, DWORD PTR [ecx+12]
  00009	7d 14		 jge	 SHORT $LN5@FindIndex
  0000b	85 d2		 test	 edx, edx
  0000d	78 10		 js	 SHORT $LN5@FindIndex

; 1135 : 
; 1136 : 	CNode* pNode = m_pNodeHead;

  0000f	8b 41 04	 mov	 eax, DWORD PTR [ecx+4]

; 1137 : 	while (nIndex--)

  00012	74 0d		 je	 SHORT $LN1@FindIndex
$LL2@FindIndex:

; 1138 : 	{
; 1139 : 		ASSERT(AfxIsValidAddress(pNode, sizeof(CNode)));
; 1140 : 		pNode = pNode->pNext;

  00014	8b 00		 mov	 eax, DWORD PTR [eax]
  00016	83 ea 01	 sub	 edx, 1
  00019	75 f9		 jne	 SHORT $LL2@FindIndex

; 1141 : 	}
; 1142 : 	return (POSITION) pNode;
; 1143 : }

  0001b	5d		 pop	 ebp
  0001c	c2 04 00	 ret	 4
$LN5@FindIndex:

; 1134 : 		return NULL;  // went too far

  0001f	33 c0		 xor	 eax, eax
$LN1@FindIndex:

; 1141 : 	}
; 1142 : 	return (POSITION) pNode;
; 1143 : }

  00021	5d		 pop	 ebp
  00022	c2 04 00	 ret	 4
?FindIndex@?$CList@PAVCDrawingSymbol@@PAV1@@@QBEPAU__POSITION@@H@Z ENDP ; CList<CDrawingSymbol *,CDrawingSymbol *>::FindIndex
_TEXT	ENDS
; Function compile flags: /Ogtp
; File C:\Program Files (x86)\Microsoft Visual Studio\2019\Community\VC\Tools\MSVC\14.29.30133\atlmfc\include\afxtempl.h
;	COMDAT ?RemoveAt@?$CList@PAVCDrawingSymbol@@PAV1@@@QAEXPAU__POSITION@@@Z
_TEXT	SEGMENT
_position$ = 8						; size = 4
?RemoveAt@?$CList@PAVCDrawingSymbol@@PAV1@@@QAEXPAU__POSITION@@@Z PROC ; CList<CDrawingSymbol *,CDrawingSymbol *>::RemoveAt, COMDAT
; _this$ = ecx

; 1100 : {

  00000	55		 push	 ebp
  00001	8b ec		 mov	 ebp, esp
  00003	56		 push	 esi
  00004	8b f1		 mov	 esi, ecx

; 1101 : 	ASSERT_VALID(this);
; 1102 : 
; 1103 : 	CNode* pOldNode = (CNode*) position;
; 1104 : 	ASSERT(AfxIsValidAddress(pOldNode, sizeof(CNode)));
; 1105 : 
; 1106 : 	// remove pOldNode from list
; 1107 : 	if (pOldNode == m_pNodeHead)

  00006	8b 4d 08	 mov	 ecx, DWORD PTR _position$[ebp]
  00009	8b 11		 mov	 edx, DWORD PTR [ecx]
  0000b	3b 4e 04	 cmp	 ecx, DWORD PTR [esi+4]
  0000e	75 05		 jne	 SHORT $LN2@RemoveAt

; 1108 : 	{
; 1109 : 		m_pNodeHead = pOldNode->pNext;

  00010	89 56 04	 mov	 DWORD PTR [esi+4], edx

; 1110 : 	}

  00013	eb 05		 jmp	 SHORT $LN3@RemoveAt
$LN2@RemoveAt:

; 1111 : 	else
; 1112 : 	{
; 1113 : 		ASSERT(AfxIsValidAddress(pOldNode->pPrev, sizeof(CNode)));
; 1114 : 		pOldNode->pPrev->pNext = pOldNode->pNext;

  00015	8b 41 04	 mov	 eax, DWORD PTR [ecx+4]
  00018	89 10		 mov	 DWORD PTR [eax], edx
$LN3@RemoveAt:

; 1115 : 	}
; 1116 : 	if (pOldNode == m_pNodeTail)

  0001a	8b 51 04	 mov	 edx, DWORD PTR [ecx+4]
  0001d	3b 4e 08	 cmp	 ecx, DWORD PTR [esi+8]
  00020	75 05		 jne	 SHORT $LN4@RemoveAt

; 1117 : 	{
; 1118 : 		m_pNodeTail = pOldNode->pPrev;

  00022	89 56 08	 mov	 DWORD PTR [esi+8], edx

; 1119 : 	}

  00025	eb 05		 jmp	 SHORT $LN5@RemoveAt
$LN4@RemoveAt:

; 1120 : 	else
; 1121 : 	{
; 1122 : 		ASSERT(AfxIsValidAddress(pOldNode->pNext, sizeof(CNode)));
; 1123 : 		pOldNode->pNext->pPrev = pOldNode->pPrev;

  00027	8b 01		 mov	 eax, DWORD PTR [ecx]
  00029	89 50 04	 mov	 DWORD PTR [eax+4], edx
$LN5@RemoveAt:

; 938  : 	pNode->pNext = m_pNodeFree;

  0002c	8b 46 10	 mov	 eax, DWORD PTR [esi+16]
  0002f	89 01		 mov	 DWORD PTR [ecx], eax

; 939  : 	m_pNodeFree = pNode;
; 940  : 	m_nCount--;

  00031	83 46 0c ff	 add	 DWORD PTR [esi+12], -1
  00035	89 4e 10	 mov	 DWORD PTR [esi+16], ecx

; 941  : 	ASSERT(m_nCount >= 0);  // make sure we don't underflow
; 942  : 
; 943  : 	// if no more elements, cleanup completely
; 944  : 	if (m_nCount == 0)

  00038	75 2b		 jne	 SHORT $LN8@RemoveAt

; 872  : 	m_pBlocks->FreeDataChain();

  0003a	8b 4e 14	 mov	 ecx, DWORD PTR [esi+20]
  0003d	c7 46 0c 00 00
	00 00		 mov	 DWORD PTR [esi+12], 0
  00044	c7 46 10 00 00
	00 00		 mov	 DWORD PTR [esi+16], 0
  0004b	c7 46 08 00 00
	00 00		 mov	 DWORD PTR [esi+8], 0
  00052	c7 46 04 00 00
	00 00		 mov	 DWORD PTR [esi+4], 0
  00059	e8 00 00 00 00	 call	 ?FreeDataChain@CPlex@@QAEXXZ ; CPlex::FreeDataChain

; 873  : 	m_pBlocks = NULL;

  0005e	c7 46 14 00 00
	00 00		 mov	 DWORD PTR [esi+20], 0
$LN8@RemoveAt:
  00065	5e		 pop	 esi

; 1124 : 	}
; 1125 : 	FreeNode(pOldNode);
; 1126 : }

  00066	5d		 pop	 ebp
  00067	c2 04 00	 ret	 4
?RemoveAt@?$CList@PAVCDrawingSymbol@@PAV1@@@QAEXPAU__POSITION@@@Z ENDP ; CList<CDrawingSymbol *,CDrawingSymbol *>::RemoveAt
_TEXT	ENDS
; Function compile flags: /Ogtp
; File C:\Program Files (x86)\Microsoft Visual Studio\2019\Community\VC\Tools\MSVC\14.29.30133\atlmfc\include\afxtempl.h
;	COMDAT ?RemoveAll@?$CList@PAVCDrawingSymbol@@PAV1@@@QAEXXZ
_TEXT	SEGMENT
?RemoveAll@?$CList@PAVCDrawingSymbol@@PAV1@@@QAEXXZ PROC ; CList<CDrawingSymbol *,CDrawingSymbol *>::RemoveAll, COMDAT
; _this$ = ecx

; 862  : {

  00000	56		 push	 esi
  00001	8b f1		 mov	 esi, ecx

; 863  : 	ASSERT_VALID(this);
; 864  : 
; 865  : 	// destroy elements
; 866  : 	CNode* pNode;
; 867  : 	for (pNode = m_pNodeHead; pNode != NULL; pNode = pNode->pNext)
; 868  : 		pNode->data.~TYPE();
; 869  : 
; 870  : 	m_nCount = 0;
; 871  : 	m_pNodeHead = m_pNodeTail = m_pNodeFree = NULL;
; 872  : 	m_pBlocks->FreeDataChain();

  00003	8b 4e 14	 mov	 ecx, DWORD PTR [esi+20]
  00006	c7 46 0c 00 00
	00 00		 mov	 DWORD PTR [esi+12], 0
  0000d	c7 46 10 00 00
	00 00		 mov	 DWORD PTR [esi+16], 0
  00014	c7 46 08 00 00
	00 00		 mov	 DWORD PTR [esi+8], 0
  0001b	c7 46 04 00 00
	00 00		 mov	 DWORD PTR [esi+4], 0
  00022	e8 00 00 00 00	 call	 ?FreeDataChain@CPlex@@QAEXXZ ; CPlex::FreeDataChain

; 873  : 	m_pBlocks = NULL;

  00027	c7 46 14 00 00
	00 00		 mov	 DWORD PTR [esi+20], 0
  0002e	5e		 pop	 esi

; 874  : }

  0002f	c3		 ret	 0
?RemoveAll@?$CList@PAVCDrawingSymbol@@PAV1@@@QAEXXZ ENDP ; CList<CDrawingSymbol *,CDrawingSymbol *>::RemoveAll
_TEXT	ENDS
; Function compile flags: /Ogtp
; File C:\Program Files (x86)\Microsoft Visual Studio\2019\Community\VC\Tools\MSVC\14.29.30133\atlmfc\include\afxtempl.h
;	COMDAT ?AddTail@?$CList@PAVCDrawingSymbol@@PAV1@@@QAEPAU__POSITION@@PAVCDrawingSymbol@@@Z
_TEXT	SEGMENT
_newElement$ = 8					; size = 4
?AddTail@?$CList@PAVCDrawingSymbol@@PAV1@@@QAEPAU__POSITION@@PAVCDrawingSymbol@@@Z PROC ; CList<CDrawingSymbol *,CDrawingSymbol *>::AddTail, COMDAT
; _this$ = ecx

; 965  : {

  00000	55		 push	 ebp
  00001	8b ec		 mov	 ebp, esp
  00003	56		 push	 esi
  00004	8b f1		 mov	 esi, ecx
  00006	57		 push	 edi

; 902  : 	if (m_pNodeFree == NULL)

  00007	83 7e 10 00	 cmp	 DWORD PTR [esi+16], 0

; 966  : 	ASSERT_VALID(this);
; 967  : 
; 968  : 	CNode* pNewNode = NewNode(m_pNodeTail, NULL);

  0000b	8b 7e 08	 mov	 edi, DWORD PTR [esi+8]

; 902  : 	if (m_pNodeFree == NULL)

  0000e	75 32		 jne	 SHORT $LN11@AddTail

; 903  : 	{
; 904  : 		// add another block
; 905  : 		CPlex* pNewBlock = CPlex::Create(m_pBlocks, m_nBlockSize,

  00010	6a 0c		 push	 12			; 0000000cH
  00012	ff 76 18	 push	 DWORD PTR [esi+24]
  00015	8d 46 14	 lea	 eax, DWORD PTR [esi+20]
  00018	50		 push	 eax
  00019	e8 00 00 00 00	 call	 ?Create@CPlex@@SGPAU1@AAPAU1@II@Z ; CPlex::Create

; 906  : 				 sizeof(CNode));
; 907  : 
; 908  : 		// chain them into free list
; 909  : 		CNode* pNode = (CNode*) pNewBlock->data();
; 910  : 		// free in reverse order to make it easier to debug
; 911  : 		pNode += m_nBlockSize - 1;

  0001e	8b 56 18	 mov	 edx, DWORD PTR [esi+24]
  00021	83 c0 08	 add	 eax, 8
  00024	8d 4a ff	 lea	 ecx, DWORD PTR [edx-1]

; 912  : 		for (INT_PTR i = m_nBlockSize-1; i >= 0; i--, pNode--)

  00027	83 c2 ff	 add	 edx, -1
  0002a	8d 0c 49	 lea	 ecx, DWORD PTR [ecx+ecx*2]
  0002d	8d 0c 88	 lea	 ecx, DWORD PTR [eax+ecx*4]
  00030	78 10		 js	 SHORT $LN11@AddTail
$LL8@AddTail:

; 913  : 		{
; 914  : 			pNode->pNext = m_pNodeFree;

  00032	8b 46 10	 mov	 eax, DWORD PTR [esi+16]
  00035	89 01		 mov	 DWORD PTR [ecx], eax

; 915  : 			m_pNodeFree = pNode;

  00037	89 4e 10	 mov	 DWORD PTR [esi+16], ecx
  0003a	83 e9 0c	 sub	 ecx, 12			; 0000000cH
  0003d	83 ea 01	 sub	 edx, 1
  00040	79 f0		 jns	 SHORT $LL8@AddTail
$LN11@AddTail:

; 916  : 		}
; 917  : 	}
; 918  : 	ENSURE(m_pNodeFree != NULL);  // we must have something

  00042	8b 4e 10	 mov	 ecx, DWORD PTR [esi+16]
  00045	85 c9		 test	 ecx, ecx
  00047	74 39		 je	 SHORT $LN22@AddTail

; 919  : 
; 920  : 	CList::CNode* pNode = m_pNodeFree;
; 921  : 	m_pNodeFree = m_pNodeFree->pNext;

  00049	8b 01		 mov	 eax, DWORD PTR [ecx]
  0004b	89 46 10	 mov	 DWORD PTR [esi+16], eax

; 969  : 	pNewNode->data = newElement;

  0004e	8b 45 08	 mov	 eax, DWORD PTR _newElement$[ebp]

; 922  : 	pNode->pPrev = pPrev;

  00051	89 79 04	 mov	 DWORD PTR [ecx+4], edi

; 923  : 	pNode->pNext = pNext;

  00054	c7 01 00 00 00
	00		 mov	 DWORD PTR [ecx], 0

; 924  : 	m_nCount++;

  0005a	ff 46 0c	 inc	 DWORD PTR [esi+12]

; 969  : 	pNewNode->data = newElement;

  0005d	89 41 08	 mov	 DWORD PTR [ecx+8], eax

; 970  : 	if (m_pNodeTail != NULL)

  00060	8b 46 08	 mov	 eax, DWORD PTR [esi+8]
  00063	85 c0		 test	 eax, eax
  00065	74 0d		 je	 SHORT $LN2@AddTail

; 971  : 		m_pNodeTail->pNext = pNewNode;

  00067	89 08		 mov	 DWORD PTR [eax], ecx

; 972  : 	else
; 973  : 		m_pNodeHead = pNewNode;
; 974  : 	m_pNodeTail = pNewNode;
; 975  : 	return (POSITION) pNewNode;

  00069	8b c1		 mov	 eax, ecx
  0006b	5f		 pop	 edi
  0006c	89 4e 08	 mov	 DWORD PTR [esi+8], ecx
  0006f	5e		 pop	 esi

; 976  : }

  00070	5d		 pop	 ebp
  00071	c2 04 00	 ret	 4
$LN2@AddTail:

; 972  : 	else
; 973  : 		m_pNodeHead = pNewNode;
; 974  : 	m_pNodeTail = pNewNode;
; 975  : 	return (POSITION) pNewNode;

  00074	5f		 pop	 edi
  00075	89 4e 04	 mov	 DWORD PTR [esi+4], ecx
  00078	8b c1		 mov	 eax, ecx
  0007a	89 4e 08	 mov	 DWORD PTR [esi+8], ecx
  0007d	5e		 pop	 esi

; 976  : }

  0007e	5d		 pop	 ebp
  0007f	c2 04 00	 ret	 4
$LN22@AddTail:

; 918  : 	ENSURE(m_pNodeFree != NULL);  // we must have something

  00082	e8 00 00 00 00	 call	 ?AfxThrowInvalidArgException@@YGXXZ ; AfxThrowInvalidArgException
$LN20@AddTail:
  00087	cc		 int	 3
?AddTail@?$CList@PAVCDrawingSymbol@@PAV1@@@QAEPAU__POSITION@@PAVCDrawingSymbol@@@Z ENDP ; CList<CDrawingSymbol *,CDrawingSymbol *>::AddTail
_TEXT	ENDS
; Function compile flags: /Ogtp
; File D:\git\src\IBK\IBK_DRFN\ProjSrc\SrcChartEx\ChartAddIn\ChartAnalysisToolAddIn\Symbol\Order.cpp
; File C:\Program Files (x86)\Microsoft Visual Studio\2019\Community\VC\Tools\MSVC\14.29.30133\atlmfc\include\afxtempl.h
; File D:\git\src\IBK\IBK_DRFN\ProjSrc\SrcChartEx\ChartAddIn\ChartAnalysisToolAddIn\Symbol\Order.cpp
; File C:\Program Files (x86)\Microsoft Visual Studio\2019\Community\VC\Tools\MSVC\14.29.30133\atlmfc\include\afxtempl.h
; File D:\git\src\IBK\IBK_DRFN\ProjSrc\SrcChartEx\ChartAddIn\ChartAnalysisToolAddIn\Symbol\Order.cpp
; File C:\Program Files (x86)\Microsoft Visual Studio\2019\Community\VC\Tools\MSVC\14.29.30133\atlmfc\include\afxtempl.h
; File D:\git\src\IBK\IBK_DRFN\ProjSrc\SrcChartEx\ChartAddIn\ChartAnalysisToolAddIn\Symbol\Order.cpp
;	COMDAT ?RemoveAt@COrder@@QAE_NPBVCDrawingSymbol@@@Z
_TEXT	SEGMENT
_pDrawingSymbol$ = 8					; size = 4
?RemoveAt@COrder@@QAE_NPBVCDrawingSymbol@@@Z PROC	; COrder::RemoveAt, COMDAT
; _this$ = ecx

; 40   : {

  00000	55		 push	 ebp
  00001	8b ec		 mov	 ebp, esp
  00003	56		 push	 esi
  00004	8b f1		 mov	 esi, ecx
  00006	57		 push	 edi

; 41   : 	POSITION pos = m_OrderList.GetHeadPosition();

  00007	8b 56 08	 mov	 edx, DWORD PTR [esi+8]

; 42   : 	while(pos) {

  0000a	85 d2		 test	 edx, edx
  0000c	74 12		 je	 SHORT $LN3@RemoveAt
  0000e	8b 7d 08	 mov	 edi, DWORD PTR _pDrawingSymbol$[ebp]
$LL2@RemoveAt:
; File C:\Program Files (x86)\Microsoft Visual Studio\2019\Community\VC\Tools\MSVC\14.29.30133\atlmfc\include\afxtempl.h

; 811  : 	{ CNode* pNode = (CNode*) rPosition;

  00011	8b c2		 mov	 eax, edx
; File D:\git\src\IBK\IBK_DRFN\ProjSrc\SrcChartEx\ChartAddIn\ChartAnalysisToolAddIn\Symbol\Order.cpp

; 43   : 		POSITION tmp = pos;

  00013	8b ca		 mov	 ecx, edx
; File C:\Program Files (x86)\Microsoft Visual Studio\2019\Community\VC\Tools\MSVC\14.29.30133\atlmfc\include\afxtempl.h

; 813  : 		rPosition = (POSITION) pNode->pNext;

  00015	8b 12		 mov	 edx, DWORD PTR [edx]
; File D:\git\src\IBK\IBK_DRFN\ProjSrc\SrcChartEx\ChartAddIn\ChartAnalysisToolAddIn\Symbol\Order.cpp

; 45   : 		if(pSymbol == pDrawingSymbol) {

  00017	39 78 08	 cmp	 DWORD PTR [eax+8], edi
  0001a	74 0c		 je	 SHORT $LN24@RemoveAt

; 42   : 	while(pos) {

  0001c	85 d2		 test	 edx, edx
  0001e	75 f1		 jne	 SHORT $LL2@RemoveAt
$LN3@RemoveAt:
  00020	5f		 pop	 edi

; 48   : 		}
; 49   : 	}
; 50   : 	return false;

  00021	32 c0		 xor	 al, al

; 51   : }

  00023	5e		 pop	 esi
  00024	5d		 pop	 ebp
  00025	c2 04 00	 ret	 4
$LN24@RemoveAt:
; File C:\Program Files (x86)\Microsoft Visual Studio\2019\Community\VC\Tools\MSVC\14.29.30133\atlmfc\include\afxtempl.h

; 1107 : 	if (pOldNode == m_pNodeHead)

  00028	3b 4e 08	 cmp	 ecx, DWORD PTR [esi+8]
  0002b	75 05		 jne	 SHORT $LN9@RemoveAt

; 1108 : 	{
; 1109 : 		m_pNodeHead = pOldNode->pNext;

  0002d	89 56 08	 mov	 DWORD PTR [esi+8], edx

; 1110 : 	}

  00030	eb 05		 jmp	 SHORT $LN10@RemoveAt
$LN9@RemoveAt:

; 1111 : 	else
; 1112 : 	{
; 1113 : 		ASSERT(AfxIsValidAddress(pOldNode->pPrev, sizeof(CNode)));
; 1114 : 		pOldNode->pPrev->pNext = pOldNode->pNext;

  00032	8b 41 04	 mov	 eax, DWORD PTR [ecx+4]
  00035	89 10		 mov	 DWORD PTR [eax], edx
$LN10@RemoveAt:

; 1115 : 	}
; 1116 : 	if (pOldNode == m_pNodeTail)

  00037	8b 51 04	 mov	 edx, DWORD PTR [ecx+4]
  0003a	3b 4e 0c	 cmp	 ecx, DWORD PTR [esi+12]
  0003d	75 05		 jne	 SHORT $LN11@RemoveAt

; 1117 : 	{
; 1118 : 		m_pNodeTail = pOldNode->pPrev;

  0003f	89 56 0c	 mov	 DWORD PTR [esi+12], edx

; 1119 : 	}

  00042	eb 05		 jmp	 SHORT $LN12@RemoveAt
$LN11@RemoveAt:

; 1120 : 	else
; 1121 : 	{
; 1122 : 		ASSERT(AfxIsValidAddress(pOldNode->pNext, sizeof(CNode)));
; 1123 : 		pOldNode->pNext->pPrev = pOldNode->pPrev;

  00044	8b 01		 mov	 eax, DWORD PTR [ecx]
  00046	89 50 04	 mov	 DWORD PTR [eax+4], edx
$LN12@RemoveAt:

; 938  : 	pNode->pNext = m_pNodeFree;

  00049	8b 46 14	 mov	 eax, DWORD PTR [esi+20]
  0004c	89 01		 mov	 DWORD PTR [ecx], eax

; 939  : 	m_pNodeFree = pNode;
; 940  : 	m_nCount--;

  0004e	83 46 10 ff	 add	 DWORD PTR [esi+16], -1
  00052	89 4e 14	 mov	 DWORD PTR [esi+20], ecx

; 941  : 	ASSERT(m_nCount >= 0);  // make sure we don't underflow
; 942  : 
; 943  : 	// if no more elements, cleanup completely
; 944  : 	if (m_nCount == 0)

  00055	75 2b		 jne	 SHORT $LN15@RemoveAt

; 872  : 	m_pBlocks->FreeDataChain();

  00057	8b 4e 18	 mov	 ecx, DWORD PTR [esi+24]
  0005a	c7 46 10 00 00
	00 00		 mov	 DWORD PTR [esi+16], 0
  00061	c7 46 14 00 00
	00 00		 mov	 DWORD PTR [esi+20], 0
  00068	c7 46 0c 00 00
	00 00		 mov	 DWORD PTR [esi+12], 0
  0006f	c7 46 08 00 00
	00 00		 mov	 DWORD PTR [esi+8], 0
  00076	e8 00 00 00 00	 call	 ?FreeDataChain@CPlex@@QAEXXZ ; CPlex::FreeDataChain

; 873  : 	m_pBlocks = NULL;

  0007b	c7 46 18 00 00
	00 00		 mov	 DWORD PTR [esi+24], 0
$LN15@RemoveAt:
  00082	5f		 pop	 edi
; File D:\git\src\IBK\IBK_DRFN\ProjSrc\SrcChartEx\ChartAddIn\ChartAnalysisToolAddIn\Symbol\Order.cpp

; 47   : 			return true;

  00083	b0 01		 mov	 al, 1

; 51   : }

  00085	5e		 pop	 esi
  00086	5d		 pop	 ebp
  00087	c2 04 00	 ret	 4
?RemoveAt@COrder@@QAE_NPBVCDrawingSymbol@@@Z ENDP	; COrder::RemoveAt
_TEXT	ENDS
; Function compile flags: /Ogtp
; File D:\git\src\IBK\IBK_DRFN\ProjSrc\SrcChartEx\ChartAddIn\ChartAnalysisToolAddIn\Symbol\Order.cpp
; File C:\Program Files (x86)\Microsoft Visual Studio\2019\Community\VC\Tools\MSVC\14.29.30133\atlmfc\include\afxtempl.h
; File D:\git\src\IBK\IBK_DRFN\ProjSrc\SrcChartEx\ChartAddIn\ChartAnalysisToolAddIn\Symbol\Order.cpp
; File C:\Program Files (x86)\Microsoft Visual Studio\2019\Community\VC\Tools\MSVC\14.29.30133\atlmfc\include\afxtempl.h
; File D:\git\src\IBK\IBK_DRFN\ProjSrc\SrcChartEx\ChartAddIn\ChartAnalysisToolAddIn\Symbol\Order.cpp
; File C:\Program Files (x86)\Microsoft Visual Studio\2019\Community\VC\Tools\MSVC\14.29.30133\atlmfc\include\afxtempl.h
; File D:\git\src\IBK\IBK_DRFN\ProjSrc\SrcChartEx\ChartAddIn\ChartAnalysisToolAddIn\Symbol\Order.cpp
;	COMDAT ?RemoveAllInRow@COrder@@QAEXABV?$CList@PAVCDrawingSymbol@@PAV1@@@@Z
_TEXT	SEGMENT
_symbolsInRowList$ = 8					; size = 4
?RemoveAllInRow@COrder@@QAEXABV?$CList@PAVCDrawingSymbol@@PAV1@@@@Z PROC ; COrder::RemoveAllInRow, COMDAT
; _this$ = ecx

; 26   : {

  00000	55		 push	 ebp
  00001	8b ec		 mov	 ebp, esp
  00003	53		 push	 ebx

; 27   : 	for(int nIndex = 0; nIndex < symbolsInRowList.GetCount(); nIndex++){

  00004	8b 5d 08	 mov	 ebx, DWORD PTR _symbolsInRowList$[ebp]
  00007	56		 push	 esi
  00008	57		 push	 edi
  00009	33 ff		 xor	 edi, edi
  0000b	8b f1		 mov	 esi, ecx
  0000d	8b 43 0c	 mov	 eax, DWORD PTR [ebx+12]
  00010	85 c0		 test	 eax, eax
  00012	0f 8e a0 00 00
	00		 jle	 $LN3@RemoveAllI
$LL4@RemoveAllI:

; 28   : 		CDrawingSymbol* pDrawingSymbol = symbolsInRowList.GetAt(symbolsInRowList.FindIndex(nIndex));

  00018	8b cf		 mov	 ecx, edi
; File C:\Program Files (x86)\Microsoft Visual Studio\2019\Community\VC\Tools\MSVC\14.29.30133\atlmfc\include\afxtempl.h

; 1133 : 	if (nIndex >= m_nCount || nIndex < 0)

  0001a	3b f8		 cmp	 edi, eax
  0001c	7d 12		 jge	 SHORT $LN46@RemoveAllI
  0001e	85 ff		 test	 edi, edi
  00020	78 0e		 js	 SHORT $LN46@RemoveAllI

; 1135 : 
; 1136 : 	CNode* pNode = m_pNodeHead;

  00022	8b 43 04	 mov	 eax, DWORD PTR [ebx+4]

; 1137 : 	while (nIndex--)

  00025	74 0b		 je	 SHORT $LN6@RemoveAllI
$LL7@RemoveAllI:

; 1138 : 	{
; 1139 : 		ASSERT(AfxIsValidAddress(pNode, sizeof(CNode)));
; 1140 : 		pNode = pNode->pNext;

  00027	8b 00		 mov	 eax, DWORD PTR [eax]
  00029	83 e9 01	 sub	 ecx, 1
  0002c	75 f9		 jne	 SHORT $LL7@RemoveAllI

; 1141 : 	}
; 1142 : 	return (POSITION) pNode;

  0002e	eb 02		 jmp	 SHORT $LN6@RemoveAllI
$LN46@RemoveAllI:

; 1134 : 		return NULL;  // went too far

  00030	33 c0		 xor	 eax, eax
$LN6@RemoveAllI:
; File D:\git\src\IBK\IBK_DRFN\ProjSrc\SrcChartEx\ChartAddIn\ChartAnalysisToolAddIn\Symbol\Order.cpp

; 28   : 		CDrawingSymbol* pDrawingSymbol = symbolsInRowList.GetAt(symbolsInRowList.FindIndex(nIndex));

  00032	8b 58 08	 mov	 ebx, DWORD PTR [eax+8]

; 41   : 	POSITION pos = m_OrderList.GetHeadPosition();

  00035	8b 46 08	 mov	 eax, DWORD PTR [esi+8]

; 42   : 	while(pos) {

  00038	85 c0		 test	 eax, eax
  0003a	74 6d		 je	 SHORT $LN2@RemoveAllI
  0003c	0f 1f 40 00	 npad	 4
$LL13@RemoveAllI:

; 45   : 		if(pSymbol == pDrawingSymbol) {

  00040	39 58 08	 cmp	 DWORD PTR [eax+8], ebx
  00043	8b d0		 mov	 edx, eax
; File C:\Program Files (x86)\Microsoft Visual Studio\2019\Community\VC\Tools\MSVC\14.29.30133\atlmfc\include\afxtempl.h

; 813  : 		rPosition = (POSITION) pNode->pNext;

  00045	8b 00		 mov	 eax, DWORD PTR [eax]
; File D:\git\src\IBK\IBK_DRFN\ProjSrc\SrcChartEx\ChartAddIn\ChartAnalysisToolAddIn\Symbol\Order.cpp

; 45   : 		if(pSymbol == pDrawingSymbol) {

  00047	74 06		 je	 SHORT $LN37@RemoveAllI

; 42   : 	while(pos) {

  00049	85 c0		 test	 eax, eax
  0004b	75 f3		 jne	 SHORT $LL13@RemoveAllI

; 45   : 		if(pSymbol == pDrawingSymbol) {

  0004d	eb 5a		 jmp	 SHORT $LN2@RemoveAllI
$LN37@RemoveAllI:
; File C:\Program Files (x86)\Microsoft Visual Studio\2019\Community\VC\Tools\MSVC\14.29.30133\atlmfc\include\afxtempl.h

; 1107 : 	if (pOldNode == m_pNodeHead)

  0004f	3b 56 08	 cmp	 edx, DWORD PTR [esi+8]
  00052	75 05		 jne	 SHORT $LN20@RemoveAllI

; 1108 : 	{
; 1109 : 		m_pNodeHead = pOldNode->pNext;

  00054	89 46 08	 mov	 DWORD PTR [esi+8], eax

; 1110 : 	}

  00057	eb 05		 jmp	 SHORT $LN21@RemoveAllI
$LN20@RemoveAllI:

; 1111 : 	else
; 1112 : 	{
; 1113 : 		ASSERT(AfxIsValidAddress(pOldNode->pPrev, sizeof(CNode)));
; 1114 : 		pOldNode->pPrev->pNext = pOldNode->pNext;

  00059	8b 4a 04	 mov	 ecx, DWORD PTR [edx+4]
  0005c	89 01		 mov	 DWORD PTR [ecx], eax
$LN21@RemoveAllI:

; 1115 : 	}
; 1116 : 	if (pOldNode == m_pNodeTail)

  0005e	8b 4a 04	 mov	 ecx, DWORD PTR [edx+4]
  00061	3b 56 0c	 cmp	 edx, DWORD PTR [esi+12]
  00064	75 05		 jne	 SHORT $LN22@RemoveAllI

; 1117 : 	{
; 1118 : 		m_pNodeTail = pOldNode->pPrev;

  00066	89 4e 0c	 mov	 DWORD PTR [esi+12], ecx

; 1119 : 	}

  00069	eb 05		 jmp	 SHORT $LN23@RemoveAllI
$LN22@RemoveAllI:

; 1120 : 	else
; 1121 : 	{
; 1122 : 		ASSERT(AfxIsValidAddress(pOldNode->pNext, sizeof(CNode)));
; 1123 : 		pOldNode->pNext->pPrev = pOldNode->pPrev;

  0006b	8b 02		 mov	 eax, DWORD PTR [edx]
  0006d	89 48 04	 mov	 DWORD PTR [eax+4], ecx
$LN23@RemoveAllI:

; 938  : 	pNode->pNext = m_pNodeFree;

  00070	8b 46 14	 mov	 eax, DWORD PTR [esi+20]
  00073	89 02		 mov	 DWORD PTR [edx], eax

; 939  : 	m_pNodeFree = pNode;
; 940  : 	m_nCount--;

  00075	83 46 10 ff	 add	 DWORD PTR [esi+16], -1
  00079	89 56 14	 mov	 DWORD PTR [esi+20], edx

; 941  : 	ASSERT(m_nCount >= 0);  // make sure we don't underflow
; 942  : 
; 943  : 	// if no more elements, cleanup completely
; 944  : 	if (m_nCount == 0)

  0007c	75 2b		 jne	 SHORT $LN2@RemoveAllI

; 872  : 	m_pBlocks->FreeDataChain();

  0007e	8b 4e 18	 mov	 ecx, DWORD PTR [esi+24]
  00081	c7 46 10 00 00
	00 00		 mov	 DWORD PTR [esi+16], 0
  00088	c7 46 14 00 00
	00 00		 mov	 DWORD PTR [esi+20], 0
  0008f	c7 46 0c 00 00
	00 00		 mov	 DWORD PTR [esi+12], 0
  00096	c7 46 08 00 00
	00 00		 mov	 DWORD PTR [esi+8], 0
  0009d	e8 00 00 00 00	 call	 ?FreeDataChain@CPlex@@QAEXXZ ; CPlex::FreeDataChain

; 873  : 	m_pBlocks = NULL;

  000a2	c7 46 18 00 00
	00 00		 mov	 DWORD PTR [esi+24], 0
$LN2@RemoveAllI:
; File D:\git\src\IBK\IBK_DRFN\ProjSrc\SrcChartEx\ChartAddIn\ChartAnalysisToolAddIn\Symbol\Order.cpp

; 27   : 	for(int nIndex = 0; nIndex < symbolsInRowList.GetCount(); nIndex++){

  000a9	8b 5d 08	 mov	 ebx, DWORD PTR _symbolsInRowList$[ebp]
  000ac	47		 inc	 edi
  000ad	8b 43 0c	 mov	 eax, DWORD PTR [ebx+12]
  000b0	3b f8		 cmp	 edi, eax
  000b2	0f 8c 60 ff ff
	ff		 jl	 $LL4@RemoveAllI
$LN3@RemoveAllI:
  000b8	5f		 pop	 edi

; 29   : 		assert(pDrawingSymbol != NULL);
; 30   : 		RemoveAt(pDrawingSymbol);
; 31   : 	}	
; 32   : }

  000b9	5e		 pop	 esi
  000ba	5b		 pop	 ebx
  000bb	5d		 pop	 ebp
  000bc	c2 04 00	 ret	 4
?RemoveAllInRow@COrder@@QAEXABV?$CList@PAVCDrawingSymbol@@PAV1@@@@Z ENDP ; COrder::RemoveAllInRow
_TEXT	ENDS
; Function compile flags: /Ogtp
; File D:\git\src\IBK\IBK_DRFN\ProjSrc\SrcChartEx\ChartAddIn\ChartAnalysisToolAddIn\Symbol\Order.cpp
; File C:\Program Files (x86)\Microsoft Visual Studio\2019\Community\VC\Tools\MSVC\14.29.30133\atlmfc\include\afxtempl.h
; File D:\git\src\IBK\IBK_DRFN\ProjSrc\SrcChartEx\ChartAddIn\ChartAnalysisToolAddIn\Symbol\Order.cpp
;	COMDAT ?RemoveAll@COrder@@QAEXXZ
_TEXT	SEGMENT
?RemoveAll@COrder@@QAEXXZ PROC				; COrder::RemoveAll, COMDAT
; _this$ = ecx

; 35   : {

  00000	56		 push	 esi
  00001	8b f1		 mov	 esi, ecx
; File C:\Program Files (x86)\Microsoft Visual Studio\2019\Community\VC\Tools\MSVC\14.29.30133\atlmfc\include\afxtempl.h

; 872  : 	m_pBlocks->FreeDataChain();

  00003	8b 4e 18	 mov	 ecx, DWORD PTR [esi+24]
  00006	c7 46 10 00 00
	00 00		 mov	 DWORD PTR [esi+16], 0
  0000d	c7 46 14 00 00
	00 00		 mov	 DWORD PTR [esi+20], 0
  00014	c7 46 0c 00 00
	00 00		 mov	 DWORD PTR [esi+12], 0
  0001b	c7 46 08 00 00
	00 00		 mov	 DWORD PTR [esi+8], 0
  00022	e8 00 00 00 00	 call	 ?FreeDataChain@CPlex@@QAEXXZ ; CPlex::FreeDataChain

; 873  : 	m_pBlocks = NULL;

  00027	c7 46 18 00 00
	00 00		 mov	 DWORD PTR [esi+24], 0
  0002e	5e		 pop	 esi
; File D:\git\src\IBK\IBK_DRFN\ProjSrc\SrcChartEx\ChartAddIn\ChartAnalysisToolAddIn\Symbol\Order.cpp

; 37   : }

  0002f	c3		 ret	 0
?RemoveAll@COrder@@QAEXXZ ENDP				; COrder::RemoveAll
_TEXT	ENDS
; Function compile flags: /Ogtp
; File D:\git\src\IBK\IBK_DRFN\ProjSrc\SrcChartEx\ChartAddIn\ChartAnalysisToolAddIn\Symbol\Order.cpp
; File C:\Program Files (x86)\Microsoft Visual Studio\2019\Community\VC\Tools\MSVC\14.29.30133\atlmfc\include\afxtempl.h
; File D:\git\src\IBK\IBK_DRFN\ProjSrc\SrcChartEx\ChartAddIn\ChartAnalysisToolAddIn\Symbol\Order.cpp
;	COMDAT ?GetIndex@COrder@@QBEHPBVCDrawingSymbol@@@Z
_TEXT	SEGMENT
_pDrawingSymbol$ = 8					; size = 4
?GetIndex@COrder@@QBEHPBVCDrawingSymbol@@@Z PROC	; COrder::GetIndex, COMDAT
; _this$ = ecx

; 66   : {

  00000	55		 push	 ebp
  00001	8b ec		 mov	 ebp, esp
  00003	53		 push	 ebx
  00004	56		 push	 esi
  00005	57		 push	 edi
  00006	8b f9		 mov	 edi, ecx

; 67   : 	for(int nIndex = 0; nIndex < m_OrderList.GetCount(); nIndex++) {

  00008	33 d2		 xor	 edx, edx
  0000a	8b 77 10	 mov	 esi, DWORD PTR [edi+16]
  0000d	85 f6		 test	 esi, esi
  0000f	7e 27		 jle	 SHORT $LN3@GetIndex
  00011	8b 5d 08	 mov	 ebx, DWORD PTR _pDrawingSymbol$[ebp]
$LL4@GetIndex:

; 68   : 		CDrawingSymbol* pSymbol = m_OrderList.GetAt(m_OrderList.FindIndex(nIndex));

  00014	8b ca		 mov	 ecx, edx
; File C:\Program Files (x86)\Microsoft Visual Studio\2019\Community\VC\Tools\MSVC\14.29.30133\atlmfc\include\afxtempl.h

; 1133 : 	if (nIndex >= m_nCount || nIndex < 0)

  00016	3b d6		 cmp	 edx, esi
  00018	7d 12		 jge	 SHORT $LN11@GetIndex
  0001a	85 d2		 test	 edx, edx
  0001c	78 0e		 js	 SHORT $LN11@GetIndex

; 1135 : 
; 1136 : 	CNode* pNode = m_pNodeHead;

  0001e	8b 47 08	 mov	 eax, DWORD PTR [edi+8]

; 1137 : 	while (nIndex--)

  00021	74 0b		 je	 SHORT $LN7@GetIndex
$LL8@GetIndex:

; 1138 : 	{
; 1139 : 		ASSERT(AfxIsValidAddress(pNode, sizeof(CNode)));
; 1140 : 		pNode = pNode->pNext;

  00023	8b 00		 mov	 eax, DWORD PTR [eax]
  00025	83 e9 01	 sub	 ecx, 1
  00028	75 f9		 jne	 SHORT $LL8@GetIndex

; 1141 : 	}
; 1142 : 	return (POSITION) pNode;

  0002a	eb 02		 jmp	 SHORT $LN7@GetIndex
$LN11@GetIndex:

; 1134 : 		return NULL;  // went too far

  0002c	33 c0		 xor	 eax, eax
$LN7@GetIndex:
; File D:\git\src\IBK\IBK_DRFN\ProjSrc\SrcChartEx\ChartAddIn\ChartAnalysisToolAddIn\Symbol\Order.cpp

; 69   : 		if(pSymbol == pDrawingSymbol)

  0002e	39 58 08	 cmp	 DWORD PTR [eax+8], ebx
  00031	74 0f		 je	 SHORT $LN15@GetIndex

; 67   : 	for(int nIndex = 0; nIndex < m_OrderList.GetCount(); nIndex++) {

  00033	42		 inc	 edx
  00034	3b d6		 cmp	 edx, esi
  00036	7c dc		 jl	 SHORT $LL4@GetIndex
$LN3@GetIndex:
  00038	5f		 pop	 edi

; 70   : 			return nIndex;
; 71   : 	}
; 72   : 	return -1;
; 73   : }

  00039	5e		 pop	 esi
  0003a	83 c8 ff	 or	 eax, -1
  0003d	5b		 pop	 ebx
  0003e	5d		 pop	 ebp
  0003f	c2 04 00	 ret	 4
$LN15@GetIndex:
  00042	5f		 pop	 edi
  00043	5e		 pop	 esi
  00044	8b c2		 mov	 eax, edx
  00046	5b		 pop	 ebx
  00047	5d		 pop	 ebp
  00048	c2 04 00	 ret	 4
?GetIndex@COrder@@QBEHPBVCDrawingSymbol@@@Z ENDP	; COrder::GetIndex
_TEXT	ENDS
; Function compile flags: /Ogtp
; File D:\git\src\IBK\IBK_DRFN\ProjSrc\SrcChartEx\ChartAddIn\ChartAnalysisToolAddIn\Symbol\Order.cpp
;	COMDAT ?Add@COrder@@QAEXPAVCDrawingSymbol@@@Z
_TEXT	SEGMENT
_pDrawingSymbol$ = 8					; size = 4
?Add@COrder@@QAEXPAVCDrawingSymbol@@@Z PROC		; COrder::Add, COMDAT
; _this$ = ecx

; 59   : {

  00000	55		 push	 ebp
  00001	8b ec		 mov	 ebp, esp

; 60   : 	assert(pDrawingSymbol != NULL);
; 61   : 	m_OrderList.AddTail(pDrawingSymbol);

  00003	83 c1 04	 add	 ecx, 4

; 62   : }

  00006	5d		 pop	 ebp

; 60   : 	assert(pDrawingSymbol != NULL);
; 61   : 	m_OrderList.AddTail(pDrawingSymbol);

  00007	e9 00 00 00 00	 jmp	 ?AddTail@?$CList@PAVCDrawingSymbol@@PAV1@@@QAEPAU__POSITION@@PAVCDrawingSymbol@@@Z ; CList<CDrawingSymbol *,CDrawingSymbol *>::AddTail
?Add@COrder@@QAEXPAVCDrawingSymbol@@@Z ENDP		; COrder::Add
_TEXT	ENDS
; Function compile flags: /Ogtp
; File D:\git\src\IBK\IBK_DRFN\ProjSrc\SrcChartEx\ChartAddIn\ChartAnalysisToolAddIn\Symbol\Order.cpp
;	COMDAT ?GetCount@COrder@@QBEHXZ
_TEXT	SEGMENT
?GetCount@COrder@@QBEHXZ PROC				; COrder::GetCount, COMDAT
; _this$ = ecx

; 55   : 	return m_OrderList.GetCount();

  00000	8b 41 10	 mov	 eax, DWORD PTR [ecx+16]

; 56   : }

  00003	c3		 ret	 0
?GetCount@COrder@@QBEHXZ ENDP				; COrder::GetCount
_TEXT	ENDS
; Function compile flags: /Ogtp
; File D:\git\src\IBK\IBK_DRFN\ProjSrc\SrcChartEx\ChartAddIn\ChartAnalysisToolAddIn\Symbol\Order.cpp
; File C:\Program Files (x86)\Microsoft Visual Studio\2019\Community\VC\Tools\MSVC\14.29.30133\atlmfc\include\afxtempl.h
; File D:\git\src\IBK\IBK_DRFN\ProjSrc\SrcChartEx\ChartAddIn\ChartAnalysisToolAddIn\Symbol\Order.cpp
;	COMDAT ??1COrder@@UAE@XZ
_TEXT	SEGMENT
__$EHRec$ = -12						; size = 12
??1COrder@@UAE@XZ PROC					; COrder::~COrder, COMDAT
; _this$ = ecx

; 21   : {

  00000	55		 push	 ebp
  00001	8b ec		 mov	 ebp, esp
  00003	6a ff		 push	 -1
  00005	68 00 00 00 00	 push	 __ehhandler$??1COrder@@UAE@XZ
  0000a	64 a1 00 00 00
	00		 mov	 eax, DWORD PTR fs:0
  00010	50		 push	 eax
  00011	56		 push	 esi
  00012	a1 00 00 00 00	 mov	 eax, DWORD PTR ___security_cookie
  00017	33 c5		 xor	 eax, ebp
  00019	50		 push	 eax
  0001a	8d 45 f4	 lea	 eax, DWORD PTR __$EHRec$[ebp]
  0001d	64 a3 00 00 00
	00		 mov	 DWORD PTR fs:0, eax
  00023	8b f1		 mov	 esi, ecx
  00025	c7 06 00 00 00
	00		 mov	 DWORD PTR [esi], OFFSET ??_7COrder@@6B@
; File C:\Program Files (x86)\Microsoft Visual Studio\2019\Community\VC\Tools\MSVC\14.29.30133\atlmfc\include\afxtempl.h

; 872  : 	m_pBlocks->FreeDataChain();

  0002b	8b 4e 18	 mov	 ecx, DWORD PTR [esi+24]
  0002e	c7 46 10 00 00
	00 00		 mov	 DWORD PTR [esi+16], 0
  00035	c7 46 14 00 00
	00 00		 mov	 DWORD PTR [esi+20], 0
  0003c	c7 46 0c 00 00
	00 00		 mov	 DWORD PTR [esi+12], 0
  00043	c7 46 08 00 00
	00 00		 mov	 DWORD PTR [esi+8], 0
  0004a	e8 00 00 00 00	 call	 ?FreeDataChain@CPlex@@QAEXXZ ; CPlex::FreeDataChain

; 873  : 	m_pBlocks = NULL;

  0004f	c7 46 18 00 00
	00 00		 mov	 DWORD PTR [esi+24], 0

; 872  : 	m_pBlocks->FreeDataChain();

  00056	8b 4e 18	 mov	 ecx, DWORD PTR [esi+24]

; 878  : {

  00059	c7 45 fc 00 00
	00 00		 mov	 DWORD PTR __$EHRec$[ebp+8], 0
  00060	c7 46 04 00 00
	00 00		 mov	 DWORD PTR [esi+4], OFFSET ??_7?$CList@PAVCDrawingSymbol@@PAV1@@@6B@

; 870  : 	m_nCount = 0;

  00067	c7 46 10 00 00
	00 00		 mov	 DWORD PTR [esi+16], 0

; 871  : 	m_pNodeHead = m_pNodeTail = m_pNodeFree = NULL;

  0006e	c7 46 14 00 00
	00 00		 mov	 DWORD PTR [esi+20], 0
  00075	c7 46 0c 00 00
	00 00		 mov	 DWORD PTR [esi+12], 0
  0007c	c7 46 08 00 00
	00 00		 mov	 DWORD PTR [esi+8], 0

; 872  : 	m_pBlocks->FreeDataChain();

  00083	e8 00 00 00 00	 call	 ?FreeDataChain@CPlex@@QAEXXZ ; CPlex::FreeDataChain

; 873  : 	m_pBlocks = NULL;

  00088	c7 46 18 00 00
	00 00		 mov	 DWORD PTR [esi+24], 0
; File D:\git\src\IBK\IBK_DRFN\ProjSrc\SrcChartEx\ChartAddIn\ChartAnalysisToolAddIn\Symbol\Order.cpp

; 23   : }

  0008f	8b 4d f4	 mov	 ecx, DWORD PTR __$EHRec$[ebp]
  00092	64 89 0d 00 00
	00 00		 mov	 DWORD PTR fs:0, ecx
  00099	59		 pop	 ecx
  0009a	5e		 pop	 esi
  0009b	8b e5		 mov	 esp, ebp
  0009d	5d		 pop	 ebp
  0009e	c3		 ret	 0
  0009f	cc		 int	 3
  000a0	cc		 int	 3
  000a1	cc		 int	 3
  000a2	cc		 int	 3
  000a3	cc		 int	 3
_TEXT	ENDS
;	COMDAT text$x
text$x	SEGMENT
__ehhandler$??1COrder@@UAE@XZ:
  00000	90		 npad	 1
  00001	90		 npad	 1
  00002	8b 54 24 08	 mov	 edx, DWORD PTR [esp+8]
  00006	8d 42 0c	 lea	 eax, DWORD PTR [edx+12]
  00009	8b 4a f8	 mov	 ecx, DWORD PTR [edx-8]
  0000c	33 c8		 xor	 ecx, eax
  0000e	e8 00 00 00 00	 call	 @__security_check_cookie@4
  00013	b8 00 00 00 00	 mov	 eax, OFFSET __ehfuncinfo$??1COrder@@UAE@XZ
  00018	e9 00 00 00 00	 jmp	 ___CxxFrameHandler3
text$x	ENDS
??1COrder@@UAE@XZ ENDP					; COrder::~COrder
; Function compile flags: /Ogtp
; File D:\git\src\IBK\IBK_DRFN\ProjSrc\SrcChartEx\ChartAddIn\ChartAnalysisToolAddIn\Symbol\Order.cpp
; File C:\Program Files (x86)\Microsoft Visual Studio\2019\Community\VC\Tools\MSVC\14.29.30133\atlmfc\include\afxtempl.h
; File D:\git\src\IBK\IBK_DRFN\ProjSrc\SrcChartEx\ChartAddIn\ChartAnalysisToolAddIn\Symbol\Order.cpp
;	COMDAT ?GetTail@COrder@@QAEPAVCDrawingSymbol@@XZ
_TEXT	SEGMENT
?GetTail@COrder@@QAEPAVCDrawingSymbol@@XZ PROC		; COrder::GetTail, COMDAT
; _this$ = ecx

; 77   : 	if(m_OrderList.GetCount() <= 0)

  00000	83 79 10 00	 cmp	 DWORD PTR [ecx+16], 0
  00004	7f 03		 jg	 SHORT $LN2@GetTail

; 78   : 		return NULL;

  00006	33 c0		 xor	 eax, eax

; 81   : }

  00008	c3		 ret	 0
$LN2@GetTail:
; File C:\Program Files (x86)\Microsoft Visual Studio\2019\Community\VC\Tools\MSVC\14.29.30133\atlmfc\include\afxtempl.h

; 797  : 	{ ENSURE(m_pNodeTail != NULL);

  00009	8b 41 0c	 mov	 eax, DWORD PTR [ecx+12]
  0000c	85 c0		 test	 eax, eax
  0000e	0f 84 00 00 00
	00		 je	 ?AfxThrowInvalidArgException@@YGXXZ ; AfxThrowInvalidArgException
; File D:\git\src\IBK\IBK_DRFN\ProjSrc\SrcChartEx\ChartAddIn\ChartAnalysisToolAddIn\Symbol\Order.cpp

; 81   : }

  00014	8b 40 08	 mov	 eax, DWORD PTR [eax+8]
  00017	c3		 ret	 0
?GetTail@COrder@@QAEPAVCDrawingSymbol@@XZ ENDP		; COrder::GetTail
_TEXT	ENDS
; Function compile flags: /Ogtp
; File C:\Program Files (x86)\Microsoft Visual Studio\2019\Community\VC\Tools\MSVC\14.29.30133\atlmfc\include\afx.inl
;	COMDAT ?Dump@CObject@@UBEXAAVCDumpContext@@@Z
_TEXT	SEGMENT
___formal$ = 8						; size = 4
?Dump@CObject@@UBEXAAVCDumpContext@@@Z PROC		; CObject::Dump, COMDAT
; _this$ = ecx

; 122  : 	{ /* no dumping in release builds */ }

  00000	c2 04 00	 ret	 4
?Dump@CObject@@UBEXAAVCDumpContext@@@Z ENDP		; CObject::Dump
_TEXT	ENDS
; Function compile flags: /Ogtp
; File C:\Program Files (x86)\Microsoft Visual Studio\2019\Community\VC\Tools\MSVC\14.29.30133\atlmfc\include\afx.inl
;	COMDAT ?AssertValid@CObject@@UBEXXZ
_TEXT	SEGMENT
?AssertValid@CObject@@UBEXXZ PROC			; CObject::AssertValid, COMDAT
; _this$ = ecx

; 120  : 	{ /* no asserts in release builds */ }

  00000	c2 00 00	 ret	 0
?AssertValid@CObject@@UBEXXZ ENDP			; CObject::AssertValid
_TEXT	ENDS
; Function compile flags: /Ogtp
; File C:\Program Files (x86)\Microsoft Visual Studio\2019\Community\VC\Tools\MSVC\14.29.30133\atlmfc\include\afx.inl
;	COMDAT ?Serialize@CObject@@UAEXAAVCArchive@@@Z
_TEXT	SEGMENT
___formal$ = 8						; size = 4
?Serialize@CObject@@UAEXAAVCArchive@@@Z PROC		; CObject::Serialize, COMDAT
; _this$ = ecx

; 106  : 	{ /* CObject does not serialize anything by default */ }

  00000	c2 04 00	 ret	 4
?Serialize@CObject@@UAEXAAVCArchive@@@Z ENDP		; CObject::Serialize
_TEXT	ENDS
; Function compile flags: /Ogtp
; File C:\Program Files (x86)\Microsoft Visual Studio\2019\Community\VC\Tools\MSVC\14.29.30133\atlmfc\include\afx.inl
;	COMDAT ??1CObject@@UAE@XZ
_TEXT	SEGMENT
??1CObject@@UAE@XZ PROC					; CObject::~CObject, COMDAT
; _this$ = ecx

; 104  : 	{ }

  00000	c2 00 00	 ret	 0
??1CObject@@UAE@XZ ENDP					; CObject::~CObject
_TEXT	ENDS
; Function compile flags: /Ogtp
; File D:\git\src\IBK\IBK_DRFN\ProjSrc\SrcChartEx\ChartAddIn\ChartAnalysisToolAddIn\Symbol\Order.cpp
;	COMDAT ?__empty_global_delete@@YAXPAXI@Z
_TEXT	SEGMENT
___formal$ = 8						; size = 4
___formal$ = 12						; size = 4
?__empty_global_delete@@YAXPAXI@Z PROC			; __empty_global_delete, COMDAT

  00000	c2 00 00	 ret	 0
?__empty_global_delete@@YAXPAXI@Z ENDP			; __empty_global_delete
_TEXT	ENDS
; Function compile flags: /Ogtp
; File D:\git\src\IBK\IBK_DRFN\ProjSrc\SrcChartEx\ChartAddIn\ChartAnalysisToolAddIn\Symbol\Order.cpp
;	COMDAT ?__empty_global_delete@@YAXPAX@Z
_TEXT	SEGMENT
___formal$ = 8						; size = 4
?__empty_global_delete@@YAXPAX@Z PROC			; __empty_global_delete, COMDAT

  00000	c2 00 00	 ret	 0
?__empty_global_delete@@YAXPAX@Z ENDP			; __empty_global_delete
_TEXT	ENDS
END
