; Listing generated by Microsoft (R) Optimizing Compiler Version 19.29.30145.0 

	TITLE	D:\git\src\IBK\IBK_DRFN\#DRfn-CS\_Obj\Symbol\Properties_Figure.obj
	.686P
	.XMM
	include listing.inc
	.model	flat

INCLUDELIB MSVCRT
INCLUDELIB OLDNAMES

PUBLIC	?__empty_global_delete@@YAXPAX@Z		; __empty_global_delete
PUBLIC	?__empty_global_delete@@YAXPAXI@Z		; __empty_global_delete
PUBLIC	??1CObject@@UAE@XZ				; CObject::~CObject
PUBLIC	?Serialize@CObject@@UAEXAAVCArchive@@@Z		; CObject::Serialize
PUBLIC	?AssertValid@CObject@@UBEXXZ			; CObject::AssertValid
PUBLIC	?Dump@CObject@@UBEXAAVCDumpContext@@@Z		; CObject::Dump
PUBLIC	?AtlThrowImpl@ATL@@YGXJ@Z			; ATL::AtlThrowImpl
PUBLIC	??1CGdiObject@@UAE@XZ				; CGdiObject::~CGdiObject
PUBLIC	??_GCGdiObject@@UAEPAXI@Z			; CGdiObject::`scalar deleting destructor'
PUBLIC	??1CBitmap@@UAE@XZ				; CBitmap::~CBitmap
PUBLIC	??_GCBitmap@@UAEPAXI@Z				; CBitmap::`scalar deleting destructor'
PUBLIC	?DoDataExchange@CWnd@@MAEXPAVCDataExchange@@@Z	; CWnd::DoDataExchange
PUBLIC	?BeginModalState@CWnd@@UAEXXZ			; CWnd::BeginModalState
PUBLIC	?EndModalState@CWnd@@UAEXXZ			; CWnd::EndModalState
PUBLIC	?Create@CDialog@@UAEHIPAVCWnd@@@Z		; CDialog::Create
PUBLIC	??_GCButton@@UAEPAXI@Z				; CButton::`scalar deleting destructor'
PUBLIC	??_GCEdit@@UAEPAXI@Z				; CEdit::`scalar deleting destructor'
PUBLIC	??1CCommonDialog@@UAE@XZ			; CCommonDialog::~CCommonDialog
PUBLIC	??_GCCommonDialog@@UAEPAXI@Z			; CCommonDialog::`scalar deleting destructor'
PUBLIC	??1CColorDialog@@UAE@XZ				; CColorDialog::~CColorDialog
PUBLIC	??_GCDateTimeCtrl@@UAEPAXI@Z			; CDateTimeCtrl::`scalar deleting destructor'
PUBLIC	??1CBitmapComboBox@@UAE@XZ			; CBitmapComboBox::~CBitmapComboBox
PUBLIC	??0CProperties_Figure@@QAE@PAUIChartManager133101@@ABVCBlockIndex@@ABV?$CStringT@DV?$StrTraitMFC_DLL@DV?$ChTraitsCRT@D@ATL@@@@@ATL@@PAVCPropertiesData_text@@ABW4TOOLTYPE@CSymbolBaseData@@2ABW4HORZSCALEDRAWERTYPE@CScaleBaseData@@ABVCCoordinate@@6PAVCWnd@@@Z ; CProperties_Figure::CProperties_Figure
PUBLIC	?DoDataExchange@CProperties_Figure@@MAEXPAVCDataExchange@@@Z ; CProperties_Figure::DoDataExchange
PUBLIC	?OnInitDialog@CProperties_Figure@@MAEHXZ	; CProperties_Figure::OnInitDialog
PUBLIC	?OnColor@CProperties_Figure@@IAEXXZ		; CProperties_Figure::OnColor
PUBLIC	?OnCheck@CProperties_Figure@@IAEXXZ		; CProperties_Figure::OnCheck
PUBLIC	?OnSelchangeWidth@CProperties_Figure@@IAEXXZ	; CProperties_Figure::OnSelchangeWidth
PUBLIC	?OnSelchangeStyle@CProperties_Figure@@IAEXXZ	; CProperties_Figure::OnSelchangeStyle
PUBLIC	?OnDatetimechangeDatetimepickerXdate1@CProperties_Figure@@IAEXPAUtagNMHDR@@PAJ@Z ; CProperties_Figure::OnDatetimechangeDatetimepickerXdate1
PUBLIC	?OnDatetimechangeDatetimepickerXdate2@CProperties_Figure@@IAEXPAUtagNMHDR@@PAJ@Z ; CProperties_Figure::OnDatetimechangeDatetimepickerXdate2
PUBLIC	?OnOK@CProperties_Figure@@MAEXXZ		; CProperties_Figure::OnOK
PUBLIC	?OnCancel@CProperties_Figure@@MAEXXZ		; CProperties_Figure::OnCancel
PUBLIC	?GetThisMessageMap@CProperties_Figure@@KGPBUAFX_MSGMAP@@XZ ; CProperties_Figure::GetThisMessageMap
PUBLIC	?GetMessageMap@CProperties_Figure@@MBEPBUAFX_MSGMAP@@XZ ; CProperties_Figure::GetMessageMap
PUBLIC	?InitializeData_Width@CProperties_Figure@@AAEXXZ ; CProperties_Figure::InitializeData_Width
PUBLIC	?InitializeData_Style@CProperties_Figure@@AAEXXZ ; CProperties_Figure::InitializeData_Style
PUBLIC	?SetDateValueLists@CProperties_Figure@@AAEXXZ	; CProperties_Figure::SetDateValueLists
PUBLIC	?SetYValue@CProperties_Figure@@AAEXNH@Z		; CProperties_Figure::SetYValue
PUBLIC	?SetXDateTime@CProperties_Figure@@AAEXNH@Z	; CProperties_Figure::SetXDateTime
PUBLIC	?SaveData@CProperties_Figure@@AAEXXZ		; CProperties_Figure::SaveData
PUBLIC	?GetStartCoord@CProperties_Figure@@QBE?AVCCoordinate@@XZ ; CProperties_Figure::GetStartCoord
PUBLIC	?GetEndCoord@CProperties_Figure@@QBE?AVCCoordinate@@XZ ; CProperties_Figure::GetEndCoord
PUBLIC	??_GCProperties_Figure@@UAEPAXI@Z		; CProperties_Figure::`scalar deleting destructor'
PUBLIC	?LoadResourceDLL@IMetaTable@@QAEPAUHINSTANCE__@@PAUHWND__@@PAU2@@Z ; IMetaTable::LoadResourceDLL
PUBLIC	??1CMultiLanguageResourceSetter@@QAE@XZ		; CMultiLanguageResourceSetter::~CMultiLanguageResourceSetter
PUBLIC	??_R0PAVCException@@@8				; CException * `RTTI Type Descriptor'
PUBLIC	??_C@_02DPKJAMEF@?$CFd@				; `string'
PUBLIC	??_7CGdiObject@@6B@				; CGdiObject::`vftable'
PUBLIC	??_7CBitmap@@6B@				; CBitmap::`vftable'
PUBLIC	??_7CButton@@6B@				; CButton::`vftable'
PUBLIC	??_7CEdit@@6B@					; CEdit::`vftable'
PUBLIC	??_C@_0HD@JJCHHHNK@C?3?2Program?5Files?5?$CIx86?$CJ?2Microsof@ ; `string'
PUBLIC	??_C@_0BP@OIEOKIDM@Exception?5thrown?5in?5destructor@ ; `string'
PUBLIC	??_C@_0BB@HBOOMJBF@?$CFTs?5?$CI?$CFTs?3?$CFd?$CJ?6?$CFTs@ ; `string'
PUBLIC	??_C@_0N@OMEMOKLE@?$CFTs?5?$CI?$CFTs?3?$CFd?$CJ@ ; `string'
PUBLIC	??_7CCommonDialog@@6B@				; CCommonDialog::`vftable'
PUBLIC	??_7CDateTimeCtrl@@6B@				; CDateTimeCtrl::`vftable'
PUBLIC	??_R0?AVCObject@@@8				; CObject `RTTI Type Descriptor'
PUBLIC	??_R3CObject@@8					; CObject::`RTTI Class Hierarchy Descriptor'
PUBLIC	??_R2CObject@@8					; CObject::`RTTI Base Class Array'
PUBLIC	??_R1A@?0A@EA@CObject@@8			; CObject::`RTTI Base Class Descriptor at (0,-1,0,64)'
PUBLIC	??_R4CGdiObject@@6B@				; CGdiObject::`RTTI Complete Object Locator'
PUBLIC	??_R0?AVCGdiObject@@@8				; CGdiObject `RTTI Type Descriptor'
PUBLIC	??_R3CGdiObject@@8				; CGdiObject::`RTTI Class Hierarchy Descriptor'
PUBLIC	??_R2CGdiObject@@8				; CGdiObject::`RTTI Base Class Array'
PUBLIC	??_R1A@?0A@EA@CGdiObject@@8			; CGdiObject::`RTTI Base Class Descriptor at (0,-1,0,64)'
PUBLIC	??_R4CBitmap@@6B@				; CBitmap::`RTTI Complete Object Locator'
PUBLIC	??_R0?AVCBitmap@@@8				; CBitmap `RTTI Type Descriptor'
PUBLIC	??_R3CBitmap@@8					; CBitmap::`RTTI Class Hierarchy Descriptor'
PUBLIC	??_R2CBitmap@@8					; CBitmap::`RTTI Base Class Array'
PUBLIC	??_R1A@?0A@EA@CBitmap@@8			; CBitmap::`RTTI Base Class Descriptor at (0,-1,0,64)'
PUBLIC	??_R1A@?0A@EA@CWnd@@8				; CWnd::`RTTI Base Class Descriptor at (0,-1,0,64)'
PUBLIC	??_R0?AVCWnd@@@8				; CWnd `RTTI Type Descriptor'
PUBLIC	??_R3CWnd@@8					; CWnd::`RTTI Class Hierarchy Descriptor'
PUBLIC	??_R2CWnd@@8					; CWnd::`RTTI Base Class Array'
PUBLIC	??_R1A@?0A@EA@CCmdTarget@@8			; CCmdTarget::`RTTI Base Class Descriptor at (0,-1,0,64)'
PUBLIC	??_R0?AVCCmdTarget@@@8				; CCmdTarget `RTTI Type Descriptor'
PUBLIC	??_R3CCmdTarget@@8				; CCmdTarget::`RTTI Class Hierarchy Descriptor'
PUBLIC	??_R2CCmdTarget@@8				; CCmdTarget::`RTTI Base Class Array'
PUBLIC	??_R4CButton@@6B@				; CButton::`RTTI Complete Object Locator'
PUBLIC	??_R0?AVCButton@@@8				; CButton `RTTI Type Descriptor'
PUBLIC	??_R3CButton@@8					; CButton::`RTTI Class Hierarchy Descriptor'
PUBLIC	??_R2CButton@@8					; CButton::`RTTI Base Class Array'
PUBLIC	??_R1A@?0A@EA@CButton@@8			; CButton::`RTTI Base Class Descriptor at (0,-1,0,64)'
PUBLIC	??_R4CEdit@@6B@					; CEdit::`RTTI Complete Object Locator'
PUBLIC	??_R0?AVCEdit@@@8				; CEdit `RTTI Type Descriptor'
PUBLIC	??_R3CEdit@@8					; CEdit::`RTTI Class Hierarchy Descriptor'
PUBLIC	??_R2CEdit@@8					; CEdit::`RTTI Base Class Array'
PUBLIC	??_R1A@?0A@EA@CEdit@@8				; CEdit::`RTTI Base Class Descriptor at (0,-1,0,64)'
PUBLIC	??_R4CCommonDialog@@6B@				; CCommonDialog::`RTTI Complete Object Locator'
PUBLIC	??_R0?AVCCommonDialog@@@8			; CCommonDialog `RTTI Type Descriptor'
PUBLIC	??_R3CCommonDialog@@8				; CCommonDialog::`RTTI Class Hierarchy Descriptor'
PUBLIC	??_R2CCommonDialog@@8				; CCommonDialog::`RTTI Base Class Array'
PUBLIC	??_R1A@?0A@EA@CCommonDialog@@8			; CCommonDialog::`RTTI Base Class Descriptor at (0,-1,0,64)'
PUBLIC	??_R1A@?0A@EA@CDialog@@8			; CDialog::`RTTI Base Class Descriptor at (0,-1,0,64)'
PUBLIC	??_R0?AVCDialog@@@8				; CDialog `RTTI Type Descriptor'
PUBLIC	??_R3CDialog@@8					; CDialog::`RTTI Class Hierarchy Descriptor'
PUBLIC	??_R2CDialog@@8					; CDialog::`RTTI Base Class Array'
PUBLIC	??_R4CDateTimeCtrl@@6B@				; CDateTimeCtrl::`RTTI Complete Object Locator'
PUBLIC	??_R0?AVCDateTimeCtrl@@@8			; CDateTimeCtrl `RTTI Type Descriptor'
PUBLIC	??_R3CDateTimeCtrl@@8				; CDateTimeCtrl::`RTTI Class Hierarchy Descriptor'
PUBLIC	??_R2CDateTimeCtrl@@8				; CDateTimeCtrl::`RTTI Base Class Array'
PUBLIC	??_R1A@?0A@EA@CDateTimeCtrl@@8			; CDateTimeCtrl::`RTTI Base Class Descriptor at (0,-1,0,64)'
PUBLIC	??_7CProperties_Figure@@6B@			; CProperties_Figure::`vftable'
PUBLIC	??_C@_0BA@ENJOCHIO@LoadResourceDLL@		; `string'
PUBLIC	??_C@_0BF@BMLEKMON@AnalysisPropInfo?4ans@	; `string'
PUBLIC	??_C@_0P@IMPIBBAB@YYYYMMDDHHMMSS@		; `string'
PUBLIC	??_C@_03EICDNICE@?$CF?4f@			; `string'
PUBLIC	??_C@_08IGKLELNK@?$CFs?1?$CFs?3?$CFs@		; `string'
PUBLIC	??_C@_01GBGANLPD@0@				; `string'
PUBLIC	??_C@_0M@NFOMEIHF@?$CFs?1?$CFs?9?$CFs?3?$CFs@	; `string'
PUBLIC	??_C@_02NJPGOMH@?$CFf@				; `string'
PUBLIC	??_C@_06GEKNBBDK@000000@			; `string'
PUBLIC	??_C@_0P@NDLMDLNF@?$CF04d?$CF02d?$CF02d?$CFs@	; `string'
PUBLIC	??_C@_04HDOCAJNK@?$CFs?$CFs@			; `string'
PUBLIC	??_C@_09MJAANBBP@LineColor@			; `string'
PUBLIC	??_C@_03JALODAI@?$CFld@				; `string'
PUBLIC	??_C@_09LNOEOIHF@LineStyle@			; `string'
PUBLIC	??_C@_0L@OIHNKLFE@LineWeight@			; `string'
PUBLIC	??_C@_0L@IDNOMKNG@FillRegion@			; `string'
PUBLIC	??_R4CProperties_Figure@@6B@			; CProperties_Figure::`RTTI Complete Object Locator'
PUBLIC	??_R0?AVCProperties_Figure@@@8			; CProperties_Figure `RTTI Type Descriptor'
PUBLIC	??_R3CProperties_Figure@@8			; CProperties_Figure::`RTTI Class Hierarchy Descriptor'
PUBLIC	??_R2CProperties_Figure@@8			; CProperties_Figure::`RTTI Base Class Array'
PUBLIC	??_R1A@?0A@EA@CProperties_Figure@@8		; CProperties_Figure::`RTTI Base Class Descriptor at (0,-1,0,64)'
PUBLIC	__real@0000000000000000
EXTRN	??3@YAXPAX@Z:PROC				; operator delete
EXTRN	?__global_delete@@YAXPAXI@Z:PROC		; __global_delete
EXTRN	___std_terminate:PROC
EXTRN	__imp__GetProcAddress@8:PROC
EXTRN	__imp__WritePrivateProfileStringA@16:PROC
EXTRN	__imp__SendMessageA@16:PROC
EXTRN	__imp__IsWindowVisible@4:PROC
EXTRN	__imp__EnableWindow@8:PROC
EXTRN	__imp__InvalidateRect@12:PROC
EXTRN	__imp__atof:PROC
EXTRN	__imp__atoi:PROC
EXTRN	__imp___atoi64:PROC
EXTRN	__imp___localtime64_s:PROC
EXTRN	__imp___mktime64:PROC
EXTRN	?AfxThrowMemoryException@@YGXXZ:PROC		; AfxThrowMemoryException
EXTRN	?AfxThrowOleException@@YGXJ@Z:PROC		; AfxThrowOleException
EXTRN	__imp_?Concatenate@?$CSimpleStringT@D$00@ATL@@KAXAAV12@PBDH1H@Z:PROC
EXTRN	__imp_??0?$CStringT@DV?$StrTraitMFC_DLL@DV?$ChTraitsCRT@D@ATL@@@@@ATL@@QAE@XZ:PROC
EXTRN	__imp_??0?$CStringT@DV?$StrTraitMFC_DLL@DV?$ChTraitsCRT@D@ATL@@@@@ATL@@QAE@PAUIAtlStringMgr@1@@Z:PROC
EXTRN	__imp_??1?$CStringT@DV?$StrTraitMFC_DLL@DV?$ChTraitsCRT@D@ATL@@@@@ATL@@QAE@XZ:PROC
EXTRN	__imp_??4?$CStringT@DV?$StrTraitMFC_DLL@DV?$ChTraitsCRT@D@ATL@@@@@ATL@@QAEAAV01@ABV01@@Z:PROC
EXTRN	__imp_??4?$CStringT@DV?$StrTraitMFC_DLL@DV?$ChTraitsCRT@D@ATL@@@@@ATL@@QAEAAV01@PBD@Z:PROC
EXTRN	__imp_?GetManager@?$CStringT@DV?$StrTraitMFC_DLL@DV?$ChTraitsCRT@D@ATL@@@@@ATL@@QBEPAUIAtlStringMgr@2@XZ:PROC
EXTRN	__imp_?Compare@?$CStringT@DV?$StrTraitMFC_DLL@DV?$ChTraitsCRT@D@ATL@@@@@ATL@@QBEHPBD@Z:PROC
EXTRN	__imp_?Mid@?$CStringT@DV?$StrTraitMFC_DLL@DV?$ChTraitsCRT@D@ATL@@@@@ATL@@QBE?AV12@HH@Z:PROC
EXTRN	__imp_?Left@?$CStringT@DV?$StrTraitMFC_DLL@DV?$ChTraitsCRT@D@ATL@@@@@ATL@@QBE?AV12@H@Z:PROC
EXTRN	__imp_?Format@?$CStringT@DV?$StrTraitMFC_DLL@DV?$ChTraitsCRT@D@ATL@@@@@ATL@@QAAXPBDZZ:PROC
EXTRN	__imp_?LoadStringA@?$CStringT@DV?$StrTraitMFC_DLL@DV?$ChTraitsCRT@D@ATL@@@@@ATL@@QAEHI@Z:PROC
EXTRN	??0CFile@@QAE@XZ:PROC				; CFile::CFile
EXTRN	?Open@CFile@@UAEHPBDIPAVCFileException@@@Z:PROC	; CFile::Open
EXTRN	?Close@CFile@@UAEXXZ:PROC			; CFile::Close
EXTRN	??1CFile@@UAE@XZ:PROC				; CFile::~CFile
EXTRN	??0CFileFind@@QAE@XZ:PROC			; CFileFind::CFileFind
EXTRN	??1CFileFind@@UAE@XZ:PROC			; CFileFind::~CFileFind
EXTRN	?Close@CFileFind@@QAEXXZ:PROC			; CFileFind::Close
EXTRN	?FindFile@CFileFind@@UAEHPBDK@Z:PROC		; CFileFind::FindFile
EXTRN	?AfxGetModuleState@@YGPAVAFX_MODULE_STATE@@XZ:PROC ; AfxGetModuleState
EXTRN	?AfxGetStaticModuleState@@YGPAVAFX_MODULE_STATE@@XZ:PROC ; AfxGetStaticModuleState
EXTRN	?GetRuntimeClass@CGdiObject@@UBEPAUCRuntimeClass@@XZ:PROC ; CGdiObject::GetRuntimeClass
EXTRN	?DeleteObject@CGdiObject@@QAEHXZ:PROC		; CGdiObject::DeleteObject
EXTRN	??_ECGdiObject@@UAEPAXI@Z:PROC			; CGdiObject::`vector deleting destructor'
EXTRN	?GetRuntimeClass@CBitmap@@UBEPAUCRuntimeClass@@XZ:PROC ; CBitmap::GetRuntimeClass
EXTRN	??_ECBitmap@@UAEPAXI@Z:PROC			; CBitmap::`vector deleting destructor'
EXTRN	?DDX_CBIndex@@YGXPAVCDataExchange@@HAAH@Z:PROC	; DDX_CBIndex
EXTRN	?DDX_Control@@YGXPAVCDataExchange@@HAAVCWnd@@@Z:PROC ; DDX_Control
EXTRN	?OnCmdMsg@CCmdTarget@@UAEHIHPAXPAUAFX_CMDHANDLERINFO@@@Z:PROC ; CCmdTarget::OnCmdMsg
EXTRN	?IsInvokeAllowed@CCmdTarget@@UAEHJ@Z:PROC	; CCmdTarget::IsInvokeAllowed
EXTRN	?GetDispatchIID@CCmdTarget@@UAEHPAU_GUID@@@Z:PROC ; CCmdTarget::GetDispatchIID
EXTRN	?GetTypeInfoCount@CCmdTarget@@UAEIXZ:PROC	; CCmdTarget::GetTypeInfoCount
EXTRN	?GetTypeLibCache@CCmdTarget@@UAEPAVCTypeLibCache@@XZ:PROC ; CCmdTarget::GetTypeLibCache
EXTRN	?GetTypeLib@CCmdTarget@@UAEJKPAPAUITypeLib@@@Z:PROC ; CCmdTarget::GetTypeLib
EXTRN	?GetCommandMap@CCmdTarget@@MBEPBUAFX_OLECMDMAP@@XZ:PROC ; CCmdTarget::GetCommandMap
EXTRN	?GetDispatchMap@CCmdTarget@@MBEPBUAFX_DISPMAP@@XZ:PROC ; CCmdTarget::GetDispatchMap
EXTRN	?GetConnectionMap@CCmdTarget@@MBEPBUAFX_CONNECTIONMAP@@XZ:PROC ; CCmdTarget::GetConnectionMap
EXTRN	?GetEventSinkMap@CCmdTarget@@MBEPBUAFX_EVENTSINKMAP@@XZ:PROC ; CCmdTarget::GetEventSinkMap
EXTRN	?OnCreateAggregates@CCmdTarget@@UAEHXZ:PROC	; CCmdTarget::OnCreateAggregates
EXTRN	?GetInterfaceHook@CCmdTarget@@UAEPAUIUnknown@@PBX@Z:PROC ; CCmdTarget::GetInterfaceHook
EXTRN	?GetExtraConnectionPoints@CCmdTarget@@MAEHPAVCPtrArray@@@Z:PROC ; CCmdTarget::GetExtraConnectionPoints
EXTRN	?GetConnectionHook@CCmdTarget@@MAEPAUIConnectionPoint@@ABU_GUID@@@Z:PROC ; CCmdTarget::GetConnectionHook
EXTRN	??0CWnd@@QAE@XZ:PROC				; CWnd::CWnd
EXTRN	?PreSubclassWindow@CWnd@@UAEXXZ:PROC		; CWnd::PreSubclassWindow
EXTRN	?Create@CWnd@@UAEHPBD0KABUtagRECT@@PAV1@IPAUCCreateContext@@@Z:PROC ; CWnd::Create
EXTRN	?CreateEx@CWnd@@UAEHKPBD0KHHHHPAUHWND__@@PAUHMENU__@@PAX@Z:PROC ; CWnd::CreateEx
EXTRN	?CreateEx@CWnd@@UAEHKPBD0KABUtagRECT@@PAV1@IPAX@Z:PROC ; CWnd::CreateEx
EXTRN	?DestroyWindow@CWnd@@UAEHXZ:PROC		; CWnd::DestroyWindow
EXTRN	?PreCreateWindow@CWnd@@UAEHAAUtagCREATESTRUCTA@@@Z:PROC ; CWnd::PreCreateWindow
EXTRN	?CalcWindowRect@CWnd@@UAEXPAUtagRECT@@I@Z:PROC	; CWnd::CalcWindowRect
EXTRN	?SetWindowTextA@CWnd@@QAEXPBD@Z:PROC		; CWnd::SetWindowTextA
EXTRN	?GetWindowTextA@CWnd@@QBEXAAV?$CStringT@DV?$StrTraitMFC_DLL@DV?$ChTraitsCRT@D@ATL@@@@@ATL@@@Z:PROC ; CWnd::GetWindowTextA
EXTRN	?GetMenu@CWnd@@UBEPAVCMenu@@XZ:PROC		; CWnd::GetMenu
EXTRN	?SetMenu@CWnd@@UAEHPAVCMenu@@@Z:PROC		; CWnd::SetMenu
EXTRN	?ShowWindow@CWnd@@QAEHH@Z:PROC			; CWnd::ShowWindow
EXTRN	?OnToolHitTest@CWnd@@UBEHVCPoint@@PAUtagTOOLINFOA@@@Z:PROC ; CWnd::OnToolHitTest
EXTRN	?EnableWindow@CWnd@@QAEHH@Z:PROC		; CWnd::EnableWindow
EXTRN	?GetScrollBarCtrl@CWnd@@UBEPAVCScrollBar@@H@Z:PROC ; CWnd::GetScrollBarCtrl
EXTRN	?UpdateData@CWnd@@QAEHH@Z:PROC			; CWnd::UpdateData
EXTRN	?WinHelpA@CWnd@@UAEXKI@Z:PROC			; CWnd::WinHelpA
EXTRN	?HtmlHelpA@CWnd@@UAEXKI@Z:PROC			; CWnd::HtmlHelpA
EXTRN	?WinHelpInternal@CWnd@@UAEXKI@Z:PROC		; CWnd::WinHelpInternal
EXTRN	?ContinueModal@CWnd@@UAEHXZ:PROC		; CWnd::ContinueModal
EXTRN	?EndModalLoop@CWnd@@UAEXH@Z:PROC		; CWnd::EndModalLoop
EXTRN	?OnDrawIconicThumbnailOrLivePreview@CWnd@@UAEXAAVCDC@@VCRect@@VCSize@@HAAH@Z:PROC ; CWnd::OnDrawIconicThumbnailOrLivePreview
EXTRN	?GetInterfaceMap@CWnd@@MBEPBUAFX_INTERFACEMAP@@XZ:PROC ; CWnd::GetInterfaceMap
EXTRN	?EnsureStdObj@CWnd@@UAEJXZ:PROC			; CWnd::EnsureStdObj
EXTRN	?get_accParent@CWnd@@UAEJPAPAUIDispatch@@@Z:PROC ; CWnd::get_accParent
EXTRN	?get_accChildCount@CWnd@@UAEJPAJ@Z:PROC		; CWnd::get_accChildCount
EXTRN	?get_accChild@CWnd@@UAEJUtagVARIANT@@PAPAUIDispatch@@@Z:PROC ; CWnd::get_accChild
EXTRN	?get_accName@CWnd@@UAEJUtagVARIANT@@PAPA_W@Z:PROC ; CWnd::get_accName
EXTRN	?get_accValue@CWnd@@UAEJUtagVARIANT@@PAPA_W@Z:PROC ; CWnd::get_accValue
EXTRN	?get_accDescription@CWnd@@UAEJUtagVARIANT@@PAPA_W@Z:PROC ; CWnd::get_accDescription
EXTRN	?get_accRole@CWnd@@UAEJUtagVARIANT@@PAU2@@Z:PROC ; CWnd::get_accRole
EXTRN	?get_accState@CWnd@@UAEJUtagVARIANT@@PAU2@@Z:PROC ; CWnd::get_accState
EXTRN	?get_accHelp@CWnd@@UAEJUtagVARIANT@@PAPA_W@Z:PROC ; CWnd::get_accHelp
EXTRN	?get_accHelpTopic@CWnd@@UAEJPAPA_WUtagVARIANT@@PAJ@Z:PROC ; CWnd::get_accHelpTopic
EXTRN	?get_accKeyboardShortcut@CWnd@@UAEJUtagVARIANT@@PAPA_W@Z:PROC ; CWnd::get_accKeyboardShortcut
EXTRN	?get_accFocus@CWnd@@UAEJPAUtagVARIANT@@@Z:PROC	; CWnd::get_accFocus
EXTRN	?get_accSelection@CWnd@@UAEJPAUtagVARIANT@@@Z:PROC ; CWnd::get_accSelection
EXTRN	?get_accDefaultAction@CWnd@@UAEJUtagVARIANT@@PAPA_W@Z:PROC ; CWnd::get_accDefaultAction
EXTRN	?accSelect@CWnd@@UAEJJUtagVARIANT@@@Z:PROC	; CWnd::accSelect
EXTRN	?accLocation@CWnd@@UAEJPAJ000UtagVARIANT@@@Z:PROC ; CWnd::accLocation
EXTRN	?accNavigate@CWnd@@UAEJJUtagVARIANT@@PAU2@@Z:PROC ; CWnd::accNavigate
EXTRN	?accHitTest@CWnd@@UAEJJJPAUtagVARIANT@@@Z:PROC	; CWnd::accHitTest
EXTRN	?accDoDefaultAction@CWnd@@UAEJUtagVARIANT@@@Z:PROC ; CWnd::accDoDefaultAction
EXTRN	?put_accName@CWnd@@UAEJUtagVARIANT@@PA_W@Z:PROC	; CWnd::put_accName
EXTRN	?put_accValue@CWnd@@UAEJUtagVARIANT@@PA_W@Z:PROC ; CWnd::put_accValue
EXTRN	?SetProxy@CWnd@@UAEJPAUIAccessibleProxy@@@Z:PROC ; CWnd::SetProxy
EXTRN	?CreateAccessibleProxy@CWnd@@UAEJIJPAJ@Z:PROC	; CWnd::CreateAccessibleProxy
EXTRN	?OnCommand@CWnd@@MAEHIJ@Z:PROC			; CWnd::OnCommand
EXTRN	?OnNotify@CWnd@@MAEHIJPAJ@Z:PROC		; CWnd::OnNotify
EXTRN	?GetSuperWndProcAddr@CWnd@@MAEPAP6GJPAUHWND__@@IIJ@ZXZ:PROC ; CWnd::GetSuperWndProcAddr
EXTRN	?PreTranslateMessage@CWnd@@UAEHPAUtagMSG@@@Z:PROC ; CWnd::PreTranslateMessage
EXTRN	?OnAmbientProperty@CWnd@@UAEHPAVCOleControlSite@@JPAUtagVARIANT@@@Z:PROC ; CWnd::OnAmbientProperty
EXTRN	?WindowProc@CWnd@@MAEJIIJ@Z:PROC		; CWnd::WindowProc
EXTRN	?OnWndMsg@CWnd@@MAEHIIJPAJ@Z:PROC		; CWnd::OnWndMsg
EXTRN	?DefWindowProcA@CWnd@@MAEJIIJ@Z:PROC		; CWnd::DefWindowProcA
EXTRN	?PostNcDestroy@CWnd@@MAEXXZ:PROC		; CWnd::PostNcDestroy
EXTRN	?OnChildNotify@CWnd@@MAEHIIJPAJ@Z:PROC		; CWnd::OnChildNotify
EXTRN	?OnTouchInputs@CWnd@@MAEHIPAUtagTOUCHINPUT@@@Z:PROC ; CWnd::OnTouchInputs
EXTRN	?OnTouchInput@CWnd@@MAEHVCPoint@@HHPAUtagTOUCHINPUT@@@Z:PROC ; CWnd::OnTouchInput
EXTRN	?GetGestureStatus@CWnd@@MAEKVCPoint@@@Z:PROC	; CWnd::GetGestureStatus
EXTRN	?OnGestureZoom@CWnd@@MAEHVCPoint@@J@Z:PROC	; CWnd::OnGestureZoom
EXTRN	?OnGesturePan@CWnd@@MAEHVCPoint@@0@Z:PROC	; CWnd::OnGesturePan
EXTRN	?OnGestureRotate@CWnd@@MAEHVCPoint@@N@Z:PROC	; CWnd::OnGestureRotate
EXTRN	?OnGestureTwoFingerTap@CWnd@@MAEHVCPoint@@@Z:PROC ; CWnd::OnGestureTwoFingerTap
EXTRN	?OnGesturePressAndTap@CWnd@@MAEHVCPoint@@J@Z:PROC ; CWnd::OnGesturePressAndTap
EXTRN	?ResizeDynamicLayout@CWnd@@MAEXXZ:PROC		; CWnd::ResizeDynamicLayout
EXTRN	?CheckAutoCenter@CWnd@@UAEHXZ:PROC		; CWnd::CheckAutoCenter
EXTRN	?IsFrameWnd@CWnd@@UBEHXZ:PROC			; CWnd::IsFrameWnd
EXTRN	?OnFinalRelease@CWnd@@UAEXXZ:PROC		; CWnd::OnFinalRelease
EXTRN	?CreateControlContainer@CWnd@@MAEHPAPAVCOleControlContainer@@@Z:PROC ; CWnd::CreateControlContainer
EXTRN	?CreateControlSite@CWnd@@MAEHPAVCOleControlContainer@@PAPAVCOleControlSite@@IABU_GUID@@@Z:PROC ; CWnd::CreateControlSite
EXTRN	?SetOccDialogInfo@CWnd@@MAEHPAU_AFX_OCC_DIALOG_INFO@@@Z:PROC ; CWnd::SetOccDialogInfo
EXTRN	?GetOccDialogInfo@CWnd@@MAEPAU_AFX_OCC_DIALOG_INFO@@XZ:PROC ; CWnd::GetOccDialogInfo
EXTRN	?GetMessageMap@CWnd@@MBEPBUAFX_MSGMAP@@XZ:PROC	; CWnd::GetMessageMap
EXTRN	?GetRuntimeClass@CDialog@@UBEPAUCRuntimeClass@@XZ:PROC ; CDialog::GetRuntimeClass
EXTRN	?Create@CDialog@@UAEHPBDPAVCWnd@@@Z:PROC	; CDialog::Create
EXTRN	?CreateIndirect@CDialog@@UAEHPBUDLGTEMPLATE@@PAVCWnd@@PAX@Z:PROC ; CDialog::CreateIndirect
EXTRN	?CreateIndirect@CDialog@@UAEHPAXPAVCWnd@@@Z:PROC ; CDialog::CreateIndirect
EXTRN	??0CDialog@@QAE@IPAVCWnd@@@Z:PROC		; CDialog::CDialog
EXTRN	?DoModal@CDialog@@UAEHXZ:PROC			; CDialog::DoModal
EXTRN	?OnInitDialog@CDialog@@UAEHXZ:PROC		; CDialog::OnInitDialog
EXTRN	?OnSetFont@CDialog@@UAEXPAVCFont@@@Z:PROC	; CDialog::OnSetFont
EXTRN	?OnOK@CDialog@@MAEXXZ:PROC			; CDialog::OnOK
EXTRN	?OnCancel@CDialog@@MAEXXZ:PROC			; CDialog::OnCancel
EXTRN	??1CDialog@@UAE@XZ:PROC				; CDialog::~CDialog
EXTRN	?PreTranslateMessage@CDialog@@UAEHPAUtagMSG@@@Z:PROC ; CDialog::PreTranslateMessage
EXTRN	?OnCmdMsg@CDialog@@UAEHIHPAXPAUAFX_CMDHANDLERINFO@@@Z:PROC ; CDialog::OnCmdMsg
EXTRN	?CheckAutoCenter@CDialog@@UAEHXZ:PROC		; CDialog::CheckAutoCenter
EXTRN	?SetOccDialogInfo@CDialog@@MAEHPAU_AFX_OCC_DIALOG_INFO@@@Z:PROC ; CDialog::SetOccDialogInfo
EXTRN	?GetOccDialogInfo@CDialog@@MAEPAU_AFX_OCC_DIALOG_INFO@@XZ:PROC ; CDialog::GetOccDialogInfo
EXTRN	?PreInitDialog@CDialog@@MAEXXZ:PROC		; CDialog::PreInitDialog
EXTRN	?GetThisMessageMap@CDialog@@KGPBUAFX_MSGMAP@@XZ:PROC ; CDialog::GetThisMessageMap
EXTRN	?GetRuntimeClass@CButton@@UBEPAUCRuntimeClass@@XZ:PROC ; CButton::GetRuntimeClass
EXTRN	?Create@CButton@@UAEHPBDKABUtagRECT@@PAVCWnd@@I@Z:PROC ; CButton::Create
EXTRN	?DrawItem@CButton@@UAEXPAUtagDRAWITEMSTRUCT@@@Z:PROC ; CButton::DrawItem
EXTRN	??1CButton@@UAE@XZ:PROC				; CButton::~CButton
EXTRN	?OnChildNotify@CButton@@MAEHIIJPAJ@Z:PROC	; CButton::OnChildNotify
EXTRN	??_ECButton@@UAEPAXI@Z:PROC			; CButton::`vector deleting destructor'
EXTRN	??1CComboBox@@UAE@XZ:PROC			; CComboBox::~CComboBox
EXTRN	?GetRuntimeClass@CEdit@@UBEPAUCRuntimeClass@@XZ:PROC ; CEdit::GetRuntimeClass
EXTRN	??1CEdit@@UAE@XZ:PROC				; CEdit::~CEdit
EXTRN	??_ECEdit@@UAEPAXI@Z:PROC			; CEdit::`vector deleting destructor'
EXTRN	?AfxMessageBox@@YGHPBDII@Z:PROC			; AfxMessageBox
EXTRN	?GetRuntimeClass@CCommonDialog@@UBEPAUCRuntimeClass@@XZ:PROC ; CCommonDialog::GetRuntimeClass
EXTRN	?OnOK@CCommonDialog@@MAEXXZ:PROC		; CCommonDialog::OnOK
EXTRN	?OnCancel@CCommonDialog@@MAEXXZ:PROC		; CCommonDialog::OnCancel
EXTRN	?GetMessageMap@CCommonDialog@@MBEPBUAFX_MSGMAP@@XZ:PROC ; CCommonDialog::GetMessageMap
EXTRN	??_ECCommonDialog@@UAEPAXI@Z:PROC		; CCommonDialog::`vector deleting destructor'
EXTRN	??0CColorDialog@@QAE@KKPAVCWnd@@@Z:PROC		; CColorDialog::CColorDialog
EXTRN	?DoModal@CColorDialog@@UAEHXZ:PROC		; CColorDialog::DoModal
EXTRN	?GetRuntimeClass@CDateTimeCtrl@@UBEPAUCRuntimeClass@@XZ:PROC ; CDateTimeCtrl::GetRuntimeClass
EXTRN	?Create@CDateTimeCtrl@@UAEHKABUtagRECT@@PAVCWnd@@I@Z:PROC ; CDateTimeCtrl::Create
EXTRN	?SetTime@CDateTimeCtrl@@QAEHPBVCTime@ATL@@@Z:PROC ; CDateTimeCtrl::SetTime
EXTRN	?GetTime@CDateTimeCtrl@@QBEKAAVCTime@ATL@@@Z:PROC ; CDateTimeCtrl::GetTime
EXTRN	??1CDateTimeCtrl@@UAE@XZ:PROC			; CDateTimeCtrl::~CDateTimeCtrl
EXTRN	??_ECDateTimeCtrl@@UAEPAXI@Z:PROC		; CDateTimeCtrl::`vector deleting destructor'
EXTRN	??0CCoordinate@@QAE@XZ:PROC			; CCoordinate::CCoordinate
EXTRN	?GetX@CCoordinate@@QBENXZ:PROC			; CCoordinate::GetX
EXTRN	?GetY@CCoordinate@@QBENXZ:PROC			; CCoordinate::GetY
EXTRN	?SetX@CCoordinate@@QAEXABN@Z:PROC		; CCoordinate::SetX
EXTRN	?SetY@CCoordinate@@QAEXABN@Z:PROC		; CCoordinate::SetY
EXTRN	??0CColorButton@@QAE@XZ:PROC			; CColorButton::CColorButton
EXTRN	?SetColor@CColorButton@@QAEXABK@Z:PROC		; CColorButton::SetColor
EXTRN	??1CColorButton@@UAE@XZ:PROC			; CColorButton::~CColorButton
EXTRN	??0CBitmapComboBox@@QAE@XZ:PROC			; CBitmapComboBox::CBitmapComboBox
EXTRN	?LoadBitmapA@CBitmapComboBox@@QAEXHI@Z:PROC	; CBitmapComboBox::LoadBitmapA
EXTRN	??_ECProperties_Figure@@UAEPAXI@Z:PROC		; CProperties_Figure::`vector deleting destructor'
EXTRN	?GetColor@CPropertiesData_Figure@@QAEKXZ:PROC	; CPropertiesData_Figure::GetColor
EXTRN	?SetColor@CPropertiesData_Figure@@QAEXABK@Z:PROC ; CPropertiesData_Figure::SetColor
EXTRN	?GetStyle@CPropertiesData_Figure@@QAEHXZ:PROC	; CPropertiesData_Figure::GetStyle
EXTRN	?SetStyle@CPropertiesData_Figure@@QAEXABH@Z:PROC ; CPropertiesData_Figure::SetStyle
EXTRN	?GetWeight@CPropertiesData_Figure@@QAEHXZ:PROC	; CPropertiesData_Figure::GetWeight
EXTRN	?SetWeight@CPropertiesData_Figure@@QAEXABH@Z:PROC ; CPropertiesData_Figure::SetWeight
EXTRN	?GetFillState@CPropertiesData_Figure@@QAE_NXZ:PROC ; CPropertiesData_Figure::GetFillState
EXTRN	?SetFillState@CPropertiesData_Figure@@QAEX_N@Z:PROC ; CPropertiesData_Figure::SetFillState
EXTRN	@__security_check_cookie@4:PROC
EXTRN	___CxxFrameHandler3:PROC
EXTRN	__ltod3:PROC
EXTRN	??_7type_info@@6B@:QWORD			; type_info::`vftable'
EXTRN	?g_iMetaTable@@3VIMetaTable@@A:BYTE		; g_iMetaTable
EXTRN	___security_cookie:DWORD
EXTRN	__fltused:DWORD
;	COMDAT __real@0000000000000000
CONST	SEGMENT
__real@0000000000000000 DQ 00000000000000000r	; 0
CONST	ENDS
;	COMDAT ??_R1A@?0A@EA@CProperties_Figure@@8
rdata$r	SEGMENT
??_R1A@?0A@EA@CProperties_Figure@@8 DD FLAT:??_R0?AVCProperties_Figure@@@8 ; CProperties_Figure::`RTTI Base Class Descriptor at (0,-1,0,64)'
	DD	04H
	DD	00H
	DD	0ffffffffH
	DD	00H
	DD	040H
	DD	FLAT:??_R3CProperties_Figure@@8
rdata$r	ENDS
;	COMDAT ??_R2CProperties_Figure@@8
rdata$r	SEGMENT
??_R2CProperties_Figure@@8 DD FLAT:??_R1A@?0A@EA@CProperties_Figure@@8 ; CProperties_Figure::`RTTI Base Class Array'
	DD	FLAT:??_R1A@?0A@EA@CDialog@@8
	DD	FLAT:??_R1A@?0A@EA@CWnd@@8
	DD	FLAT:??_R1A@?0A@EA@CCmdTarget@@8
	DD	FLAT:??_R1A@?0A@EA@CObject@@8
rdata$r	ENDS
;	COMDAT ??_R3CProperties_Figure@@8
rdata$r	SEGMENT
??_R3CProperties_Figure@@8 DD 00H			; CProperties_Figure::`RTTI Class Hierarchy Descriptor'
	DD	00H
	DD	05H
	DD	FLAT:??_R2CProperties_Figure@@8
rdata$r	ENDS
;	COMDAT ??_R0?AVCProperties_Figure@@@8
data$rs	SEGMENT
??_R0?AVCProperties_Figure@@@8 DD FLAT:??_7type_info@@6B@ ; CProperties_Figure `RTTI Type Descriptor'
	DD	00H
	DB	'.?AVCProperties_Figure@@', 00H
data$rs	ENDS
;	COMDAT ??_R4CProperties_Figure@@6B@
rdata$r	SEGMENT
??_R4CProperties_Figure@@6B@ DD 00H			; CProperties_Figure::`RTTI Complete Object Locator'
	DD	00H
	DD	00H
	DD	FLAT:??_R0?AVCProperties_Figure@@@8
	DD	FLAT:??_R3CProperties_Figure@@8
rdata$r	ENDS
;	COMDAT ??_C@_0L@IDNOMKNG@FillRegion@
CONST	SEGMENT
??_C@_0L@IDNOMKNG@FillRegion@ DB 'FillRegion', 00H	; `string'
CONST	ENDS
;	COMDAT ??_C@_0L@OIHNKLFE@LineWeight@
CONST	SEGMENT
??_C@_0L@OIHNKLFE@LineWeight@ DB 'LineWeight', 00H	; `string'
CONST	ENDS
;	COMDAT ??_C@_09LNOEOIHF@LineStyle@
CONST	SEGMENT
??_C@_09LNOEOIHF@LineStyle@ DB 'LineStyle', 00H		; `string'
CONST	ENDS
;	COMDAT ??_C@_03JALODAI@?$CFld@
CONST	SEGMENT
??_C@_03JALODAI@?$CFld@ DB '%ld', 00H			; `string'
CONST	ENDS
;	COMDAT ??_C@_09MJAANBBP@LineColor@
CONST	SEGMENT
??_C@_09MJAANBBP@LineColor@ DB 'LineColor', 00H		; `string'
CONST	ENDS
;	COMDAT ??_C@_04HDOCAJNK@?$CFs?$CFs@
CONST	SEGMENT
??_C@_04HDOCAJNK@?$CFs?$CFs@ DB '%s%s', 00H		; `string'
CONST	ENDS
;	COMDAT ??_C@_0P@NDLMDLNF@?$CF04d?$CF02d?$CF02d?$CFs@
CONST	SEGMENT
??_C@_0P@NDLMDLNF@?$CF04d?$CF02d?$CF02d?$CFs@ DB '%04d%02d%02d%s', 00H ; `string'
CONST	ENDS
;	COMDAT ??_C@_06GEKNBBDK@000000@
CONST	SEGMENT
??_C@_06GEKNBBDK@000000@ DB '000000', 00H		; `string'
CONST	ENDS
;	COMDAT ??_C@_02NJPGOMH@?$CFf@
CONST	SEGMENT
??_C@_02NJPGOMH@?$CFf@ DB '%f', 00H			; `string'
CONST	ENDS
;	COMDAT ??_C@_0M@NFOMEIHF@?$CFs?1?$CFs?9?$CFs?3?$CFs@
CONST	SEGMENT
??_C@_0M@NFOMEIHF@?$CFs?1?$CFs?9?$CFs?3?$CFs@ DB '%s/%s-%s:%s', 00H ; `string'
CONST	ENDS
;	COMDAT ??_C@_01GBGANLPD@0@
CONST	SEGMENT
??_C@_01GBGANLPD@0@ DB '0', 00H				; `string'
CONST	ENDS
;	COMDAT ??_C@_08IGKLELNK@?$CFs?1?$CFs?3?$CFs@
CONST	SEGMENT
??_C@_08IGKLELNK@?$CFs?1?$CFs?3?$CFs@ DB '%s/%s:%s', 00H ; `string'
CONST	ENDS
;	COMDAT ??_C@_03EICDNICE@?$CF?4f@
CONST	SEGMENT
??_C@_03EICDNICE@?$CF?4f@ DB '%.f', 00H			; `string'
CONST	ENDS
;	COMDAT ??_C@_0P@IMPIBBAB@YYYYMMDDHHMMSS@
CONST	SEGMENT
??_C@_0P@IMPIBBAB@YYYYMMDDHHMMSS@ DB 'YYYYMMDDHHMMSS', 00H ; `string'
CONST	ENDS
;	COMDAT ?messageMap@?1??GetThisMessageMap@CProperties_Figure@@KGPBUAFX_MSGMAP@@XZ@4U3@B
CONST	SEGMENT
?messageMap@?1??GetThisMessageMap@CProperties_Figure@@KGPBUAFX_MSGMAP@@XZ@4U3@B DD FLAT:?GetThisMessageMap@CDialog@@KGPBUAFX_MSGMAP@@XZ ; `CProperties_Figure::GetThisMessageMap'::`2'::messageMap
	DD	FLAT:?_messageEntries@?1??GetThisMessageMap@CProperties_Figure@@KGPBUAFX_MSGMAP@@XZ@4QBUAFX_MSGMAP_ENTRY@@B
CONST	ENDS
;	COMDAT ?_messageEntries@?1??GetThisMessageMap@CProperties_Figure@@KGPBUAFX_MSGMAP@@XZ@4QBUAFX_MSGMAP_ENTRY@@B
CONST	SEGMENT
?_messageEntries@?1??GetThisMessageMap@CProperties_Figure@@KGPBUAFX_MSGMAP@@XZ@4QBUAFX_MSGMAP_ENTRY@@B DD 0111H ; `CProperties_Figure::GetThisMessageMap'::`2'::_messageEntries
	DD	00H
	DD	0404H
	DD	0404H
	DD	03aH
	DD	FLAT:?OnColor@CProperties_Figure@@IAEXXZ
	DD	0111H
	DD	00H
	DD	0409H
	DD	0409H
	DD	03aH
	DD	FLAT:?OnCheck@CProperties_Figure@@IAEXXZ
	DD	0111H
	DD	01H
	DD	02363H
	DD	02363H
	DD	03aH
	DD	FLAT:?OnSelchangeWidth@CProperties_Figure@@IAEXXZ
	DD	0111H
	DD	01H
	DD	0272eH
	DD	0272eH
	DD	03aH
	DD	FLAT:?OnSelchangeStyle@CProperties_Figure@@IAEXXZ
	DD	04eH
	DD	0fd09H
	DD	042ceH
	DD	042ceH
	DD	03eH
	DD	FLAT:?OnDatetimechangeDatetimepickerXdate1@CProperties_Figure@@IAEXPAUtagNMHDR@@PAJ@Z
	DD	04eH
	DD	0fd09H
	DD	042cfH
	DD	042cfH
	DD	03eH
	DD	FLAT:?OnDatetimechangeDatetimepickerXdate2@CProperties_Figure@@IAEXPAUtagNMHDR@@PAJ@Z
	DD	00H
	DD	00H
	DD	00H
	DD	00H
	DD	00H
	DD	00H
CONST	ENDS
;	COMDAT ??_C@_0BF@BMLEKMON@AnalysisPropInfo?4ans@
CONST	SEGMENT
??_C@_0BF@BMLEKMON@AnalysisPropInfo?4ans@ DB 'AnalysisPropInfo.ans', 00H ; `string'
CONST	ENDS
;	COMDAT ??_C@_0BA@ENJOCHIO@LoadResourceDLL@
CONST	SEGMENT
??_C@_0BA@ENJOCHIO@LoadResourceDLL@ DB 'LoadResourceDLL', 00H ; `string'
CONST	ENDS
;	COMDAT ??_7CProperties_Figure@@6B@
CONST	SEGMENT
??_7CProperties_Figure@@6B@ DD FLAT:??_R4CProperties_Figure@@6B@ ; CProperties_Figure::`vftable'
	DD	FLAT:?GetRuntimeClass@CDialog@@UBEPAUCRuntimeClass@@XZ
	DD	FLAT:??_ECProperties_Figure@@UAEPAXI@Z
	DD	FLAT:?Serialize@CObject@@UAEXAAVCArchive@@@Z
	DD	FLAT:?AssertValid@CObject@@UBEXXZ
	DD	FLAT:?Dump@CObject@@UBEXAAVCDumpContext@@@Z
	DD	FLAT:?OnCmdMsg@CDialog@@UAEHIHPAXPAUAFX_CMDHANDLERINFO@@@Z
	DD	FLAT:?OnFinalRelease@CWnd@@UAEXXZ
	DD	FLAT:?IsInvokeAllowed@CCmdTarget@@UAEHJ@Z
	DD	FLAT:?GetDispatchIID@CCmdTarget@@UAEHPAU_GUID@@@Z
	DD	FLAT:?GetTypeInfoCount@CCmdTarget@@UAEIXZ
	DD	FLAT:?GetTypeLibCache@CCmdTarget@@UAEPAVCTypeLibCache@@XZ
	DD	FLAT:?GetTypeLib@CCmdTarget@@UAEJKPAPAUITypeLib@@@Z
	DD	FLAT:?GetMessageMap@CProperties_Figure@@MBEPBUAFX_MSGMAP@@XZ
	DD	FLAT:?GetCommandMap@CCmdTarget@@MBEPBUAFX_OLECMDMAP@@XZ
	DD	FLAT:?GetDispatchMap@CCmdTarget@@MBEPBUAFX_DISPMAP@@XZ
	DD	FLAT:?GetConnectionMap@CCmdTarget@@MBEPBUAFX_CONNECTIONMAP@@XZ
	DD	FLAT:?GetInterfaceMap@CWnd@@MBEPBUAFX_INTERFACEMAP@@XZ
	DD	FLAT:?GetEventSinkMap@CCmdTarget@@MBEPBUAFX_EVENTSINKMAP@@XZ
	DD	FLAT:?OnCreateAggregates@CCmdTarget@@UAEHXZ
	DD	FLAT:?GetInterfaceHook@CCmdTarget@@UAEPAUIUnknown@@PBX@Z
	DD	FLAT:?GetExtraConnectionPoints@CCmdTarget@@MAEHPAVCPtrArray@@@Z
	DD	FLAT:?GetConnectionHook@CCmdTarget@@MAEPAUIConnectionPoint@@ABU_GUID@@@Z
	DD	FLAT:?PreSubclassWindow@CWnd@@UAEXXZ
	DD	FLAT:?Create@CWnd@@UAEHPBD0KABUtagRECT@@PAV1@IPAUCCreateContext@@@Z
	DD	FLAT:?CreateEx@CWnd@@UAEHKPBD0KABUtagRECT@@PAV1@IPAX@Z
	DD	FLAT:?CreateEx@CWnd@@UAEHKPBD0KHHHHPAUHWND__@@PAUHMENU__@@PAX@Z
	DD	FLAT:?DestroyWindow@CWnd@@UAEHXZ
	DD	FLAT:?PreCreateWindow@CWnd@@UAEHAAUtagCREATESTRUCTA@@@Z
	DD	FLAT:?CalcWindowRect@CWnd@@UAEXPAUtagRECT@@I@Z
	DD	FLAT:?GetMenu@CWnd@@UBEPAVCMenu@@XZ
	DD	FLAT:?SetMenu@CWnd@@UAEHPAVCMenu@@@Z
	DD	FLAT:?OnToolHitTest@CWnd@@UBEHVCPoint@@PAUtagTOOLINFOA@@@Z
	DD	FLAT:?GetScrollBarCtrl@CWnd@@UBEPAVCScrollBar@@H@Z
	DD	FLAT:?WinHelpA@CWnd@@UAEXKI@Z
	DD	FLAT:?HtmlHelpA@CWnd@@UAEXKI@Z
	DD	FLAT:?WinHelpInternal@CWnd@@UAEXKI@Z
	DD	FLAT:?ContinueModal@CWnd@@UAEHXZ
	DD	FLAT:?EndModalLoop@CWnd@@UAEXH@Z
	DD	FLAT:?OnDrawIconicThumbnailOrLivePreview@CWnd@@UAEXAAVCDC@@VCRect@@VCSize@@HAAH@Z
	DD	FLAT:?EnsureStdObj@CWnd@@UAEJXZ
	DD	FLAT:?get_accParent@CWnd@@UAEJPAPAUIDispatch@@@Z
	DD	FLAT:?get_accChildCount@CWnd@@UAEJPAJ@Z
	DD	FLAT:?get_accChild@CWnd@@UAEJUtagVARIANT@@PAPAUIDispatch@@@Z
	DD	FLAT:?get_accName@CWnd@@UAEJUtagVARIANT@@PAPA_W@Z
	DD	FLAT:?get_accValue@CWnd@@UAEJUtagVARIANT@@PAPA_W@Z
	DD	FLAT:?get_accDescription@CWnd@@UAEJUtagVARIANT@@PAPA_W@Z
	DD	FLAT:?get_accRole@CWnd@@UAEJUtagVARIANT@@PAU2@@Z
	DD	FLAT:?get_accState@CWnd@@UAEJUtagVARIANT@@PAU2@@Z
	DD	FLAT:?get_accHelp@CWnd@@UAEJUtagVARIANT@@PAPA_W@Z
	DD	FLAT:?get_accHelpTopic@CWnd@@UAEJPAPA_WUtagVARIANT@@PAJ@Z
	DD	FLAT:?get_accKeyboardShortcut@CWnd@@UAEJUtagVARIANT@@PAPA_W@Z
	DD	FLAT:?get_accFocus@CWnd@@UAEJPAUtagVARIANT@@@Z
	DD	FLAT:?get_accSelection@CWnd@@UAEJPAUtagVARIANT@@@Z
	DD	FLAT:?get_accDefaultAction@CWnd@@UAEJUtagVARIANT@@PAPA_W@Z
	DD	FLAT:?accSelect@CWnd@@UAEJJUtagVARIANT@@@Z
	DD	FLAT:?accLocation@CWnd@@UAEJPAJ000UtagVARIANT@@@Z
	DD	FLAT:?accNavigate@CWnd@@UAEJJUtagVARIANT@@PAU2@@Z
	DD	FLAT:?accHitTest@CWnd@@UAEJJJPAUtagVARIANT@@@Z
	DD	FLAT:?accDoDefaultAction@CWnd@@UAEJUtagVARIANT@@@Z
	DD	FLAT:?put_accName@CWnd@@UAEJUtagVARIANT@@PA_W@Z
	DD	FLAT:?put_accValue@CWnd@@UAEJUtagVARIANT@@PA_W@Z
	DD	FLAT:?SetProxy@CWnd@@UAEJPAUIAccessibleProxy@@@Z
	DD	FLAT:?CreateAccessibleProxy@CWnd@@UAEJIJPAJ@Z
	DD	FLAT:?OnCommand@CWnd@@MAEHIJ@Z
	DD	FLAT:?OnNotify@CWnd@@MAEHIJPAJ@Z
	DD	FLAT:?GetSuperWndProcAddr@CWnd@@MAEPAP6GJPAUHWND__@@IIJ@ZXZ
	DD	FLAT:?DoDataExchange@CProperties_Figure@@MAEXPAVCDataExchange@@@Z
	DD	FLAT:?BeginModalState@CWnd@@UAEXXZ
	DD	FLAT:?EndModalState@CWnd@@UAEXXZ
	DD	FLAT:?PreTranslateMessage@CDialog@@UAEHPAUtagMSG@@@Z
	DD	FLAT:?OnAmbientProperty@CWnd@@UAEHPAVCOleControlSite@@JPAUtagVARIANT@@@Z
	DD	FLAT:?WindowProc@CWnd@@MAEJIIJ@Z
	DD	FLAT:?OnWndMsg@CWnd@@MAEHIIJPAJ@Z
	DD	FLAT:?DefWindowProcA@CWnd@@MAEJIIJ@Z
	DD	FLAT:?PostNcDestroy@CWnd@@MAEXXZ
	DD	FLAT:?OnChildNotify@CWnd@@MAEHIIJPAJ@Z
	DD	FLAT:?OnTouchInputs@CWnd@@MAEHIPAUtagTOUCHINPUT@@@Z
	DD	FLAT:?OnTouchInput@CWnd@@MAEHVCPoint@@HHPAUtagTOUCHINPUT@@@Z
	DD	FLAT:?GetGestureStatus@CWnd@@MAEKVCPoint@@@Z
	DD	FLAT:?OnGestureZoom@CWnd@@MAEHVCPoint@@J@Z
	DD	FLAT:?OnGesturePan@CWnd@@MAEHVCPoint@@0@Z
	DD	FLAT:?OnGestureRotate@CWnd@@MAEHVCPoint@@N@Z
	DD	FLAT:?OnGestureTwoFingerTap@CWnd@@MAEHVCPoint@@@Z
	DD	FLAT:?OnGesturePressAndTap@CWnd@@MAEHVCPoint@@J@Z
	DD	FLAT:?ResizeDynamicLayout@CWnd@@MAEXXZ
	DD	FLAT:?CheckAutoCenter@CDialog@@UAEHXZ
	DD	FLAT:?IsFrameWnd@CWnd@@UBEHXZ
	DD	FLAT:?CreateControlContainer@CWnd@@MAEHPAPAVCOleControlContainer@@@Z
	DD	FLAT:?CreateControlSite@CWnd@@MAEHPAVCOleControlContainer@@PAPAVCOleControlSite@@IABU_GUID@@@Z
	DD	FLAT:?SetOccDialogInfo@CDialog@@MAEHPAU_AFX_OCC_DIALOG_INFO@@@Z
	DD	FLAT:?GetOccDialogInfo@CDialog@@MAEPAU_AFX_OCC_DIALOG_INFO@@XZ
	DD	FLAT:?Create@CDialog@@UAEHIPAVCWnd@@@Z
	DD	FLAT:?Create@CDialog@@UAEHPBDPAVCWnd@@@Z
	DD	FLAT:?CreateIndirect@CDialog@@UAEHPAXPAVCWnd@@@Z
	DD	FLAT:?CreateIndirect@CDialog@@UAEHPBUDLGTEMPLATE@@PAVCWnd@@PAX@Z
	DD	FLAT:?DoModal@CDialog@@UAEHXZ
	DD	FLAT:?OnInitDialog@CProperties_Figure@@MAEHXZ
	DD	FLAT:?OnSetFont@CDialog@@UAEXPAVCFont@@@Z
	DD	FLAT:?OnOK@CProperties_Figure@@MAEXXZ
	DD	FLAT:?OnCancel@CProperties_Figure@@MAEXXZ
	DD	FLAT:?PreInitDialog@CDialog@@MAEXXZ
CONST	ENDS
;	COMDAT ??_R1A@?0A@EA@CDateTimeCtrl@@8
rdata$r	SEGMENT
??_R1A@?0A@EA@CDateTimeCtrl@@8 DD FLAT:??_R0?AVCDateTimeCtrl@@@8 ; CDateTimeCtrl::`RTTI Base Class Descriptor at (0,-1,0,64)'
	DD	03H
	DD	00H
	DD	0ffffffffH
	DD	00H
	DD	040H
	DD	FLAT:??_R3CDateTimeCtrl@@8
rdata$r	ENDS
;	COMDAT ??_R2CDateTimeCtrl@@8
rdata$r	SEGMENT
??_R2CDateTimeCtrl@@8 DD FLAT:??_R1A@?0A@EA@CDateTimeCtrl@@8 ; CDateTimeCtrl::`RTTI Base Class Array'
	DD	FLAT:??_R1A@?0A@EA@CWnd@@8
	DD	FLAT:??_R1A@?0A@EA@CCmdTarget@@8
	DD	FLAT:??_R1A@?0A@EA@CObject@@8
rdata$r	ENDS
;	COMDAT ??_R3CDateTimeCtrl@@8
rdata$r	SEGMENT
??_R3CDateTimeCtrl@@8 DD 00H				; CDateTimeCtrl::`RTTI Class Hierarchy Descriptor'
	DD	00H
	DD	04H
	DD	FLAT:??_R2CDateTimeCtrl@@8
rdata$r	ENDS
;	COMDAT ??_R0?AVCDateTimeCtrl@@@8
data$rs	SEGMENT
??_R0?AVCDateTimeCtrl@@@8 DD FLAT:??_7type_info@@6B@	; CDateTimeCtrl `RTTI Type Descriptor'
	DD	00H
	DB	'.?AVCDateTimeCtrl@@', 00H
data$rs	ENDS
;	COMDAT ??_R4CDateTimeCtrl@@6B@
rdata$r	SEGMENT
??_R4CDateTimeCtrl@@6B@ DD 00H				; CDateTimeCtrl::`RTTI Complete Object Locator'
	DD	00H
	DD	00H
	DD	FLAT:??_R0?AVCDateTimeCtrl@@@8
	DD	FLAT:??_R3CDateTimeCtrl@@8
rdata$r	ENDS
;	COMDAT ??_R2CDialog@@8
rdata$r	SEGMENT
??_R2CDialog@@8 DD FLAT:??_R1A@?0A@EA@CDialog@@8	; CDialog::`RTTI Base Class Array'
	DD	FLAT:??_R1A@?0A@EA@CWnd@@8
	DD	FLAT:??_R1A@?0A@EA@CCmdTarget@@8
	DD	FLAT:??_R1A@?0A@EA@CObject@@8
rdata$r	ENDS
;	COMDAT ??_R3CDialog@@8
rdata$r	SEGMENT
??_R3CDialog@@8 DD 00H					; CDialog::`RTTI Class Hierarchy Descriptor'
	DD	00H
	DD	04H
	DD	FLAT:??_R2CDialog@@8
rdata$r	ENDS
;	COMDAT ??_R0?AVCDialog@@@8
data$rs	SEGMENT
??_R0?AVCDialog@@@8 DD FLAT:??_7type_info@@6B@		; CDialog `RTTI Type Descriptor'
	DD	00H
	DB	'.?AVCDialog@@', 00H
data$rs	ENDS
;	COMDAT ??_R1A@?0A@EA@CDialog@@8
rdata$r	SEGMENT
??_R1A@?0A@EA@CDialog@@8 DD FLAT:??_R0?AVCDialog@@@8	; CDialog::`RTTI Base Class Descriptor at (0,-1,0,64)'
	DD	03H
	DD	00H
	DD	0ffffffffH
	DD	00H
	DD	040H
	DD	FLAT:??_R3CDialog@@8
rdata$r	ENDS
;	COMDAT ??_R1A@?0A@EA@CCommonDialog@@8
rdata$r	SEGMENT
??_R1A@?0A@EA@CCommonDialog@@8 DD FLAT:??_R0?AVCCommonDialog@@@8 ; CCommonDialog::`RTTI Base Class Descriptor at (0,-1,0,64)'
	DD	04H
	DD	00H
	DD	0ffffffffH
	DD	00H
	DD	040H
	DD	FLAT:??_R3CCommonDialog@@8
rdata$r	ENDS
;	COMDAT ??_R2CCommonDialog@@8
rdata$r	SEGMENT
??_R2CCommonDialog@@8 DD FLAT:??_R1A@?0A@EA@CCommonDialog@@8 ; CCommonDialog::`RTTI Base Class Array'
	DD	FLAT:??_R1A@?0A@EA@CDialog@@8
	DD	FLAT:??_R1A@?0A@EA@CWnd@@8
	DD	FLAT:??_R1A@?0A@EA@CCmdTarget@@8
	DD	FLAT:??_R1A@?0A@EA@CObject@@8
rdata$r	ENDS
;	COMDAT ??_R3CCommonDialog@@8
rdata$r	SEGMENT
??_R3CCommonDialog@@8 DD 00H				; CCommonDialog::`RTTI Class Hierarchy Descriptor'
	DD	00H
	DD	05H
	DD	FLAT:??_R2CCommonDialog@@8
rdata$r	ENDS
;	COMDAT ??_R0?AVCCommonDialog@@@8
data$rs	SEGMENT
??_R0?AVCCommonDialog@@@8 DD FLAT:??_7type_info@@6B@	; CCommonDialog `RTTI Type Descriptor'
	DD	00H
	DB	'.?AVCCommonDialog@@', 00H
data$rs	ENDS
;	COMDAT ??_R4CCommonDialog@@6B@
rdata$r	SEGMENT
??_R4CCommonDialog@@6B@ DD 00H				; CCommonDialog::`RTTI Complete Object Locator'
	DD	00H
	DD	00H
	DD	FLAT:??_R0?AVCCommonDialog@@@8
	DD	FLAT:??_R3CCommonDialog@@8
rdata$r	ENDS
;	COMDAT ??_R1A@?0A@EA@CEdit@@8
rdata$r	SEGMENT
??_R1A@?0A@EA@CEdit@@8 DD FLAT:??_R0?AVCEdit@@@8	; CEdit::`RTTI Base Class Descriptor at (0,-1,0,64)'
	DD	03H
	DD	00H
	DD	0ffffffffH
	DD	00H
	DD	040H
	DD	FLAT:??_R3CEdit@@8
rdata$r	ENDS
;	COMDAT ??_R2CEdit@@8
rdata$r	SEGMENT
??_R2CEdit@@8 DD FLAT:??_R1A@?0A@EA@CEdit@@8		; CEdit::`RTTI Base Class Array'
	DD	FLAT:??_R1A@?0A@EA@CWnd@@8
	DD	FLAT:??_R1A@?0A@EA@CCmdTarget@@8
	DD	FLAT:??_R1A@?0A@EA@CObject@@8
rdata$r	ENDS
;	COMDAT ??_R3CEdit@@8
rdata$r	SEGMENT
??_R3CEdit@@8 DD 00H					; CEdit::`RTTI Class Hierarchy Descriptor'
	DD	00H
	DD	04H
	DD	FLAT:??_R2CEdit@@8
rdata$r	ENDS
;	COMDAT ??_R0?AVCEdit@@@8
data$rs	SEGMENT
??_R0?AVCEdit@@@8 DD FLAT:??_7type_info@@6B@		; CEdit `RTTI Type Descriptor'
	DD	00H
	DB	'.?AVCEdit@@', 00H
data$rs	ENDS
;	COMDAT ??_R4CEdit@@6B@
rdata$r	SEGMENT
??_R4CEdit@@6B@ DD 00H					; CEdit::`RTTI Complete Object Locator'
	DD	00H
	DD	00H
	DD	FLAT:??_R0?AVCEdit@@@8
	DD	FLAT:??_R3CEdit@@8
rdata$r	ENDS
;	COMDAT ??_R1A@?0A@EA@CButton@@8
rdata$r	SEGMENT
??_R1A@?0A@EA@CButton@@8 DD FLAT:??_R0?AVCButton@@@8	; CButton::`RTTI Base Class Descriptor at (0,-1,0,64)'
	DD	03H
	DD	00H
	DD	0ffffffffH
	DD	00H
	DD	040H
	DD	FLAT:??_R3CButton@@8
rdata$r	ENDS
;	COMDAT ??_R2CButton@@8
rdata$r	SEGMENT
??_R2CButton@@8 DD FLAT:??_R1A@?0A@EA@CButton@@8	; CButton::`RTTI Base Class Array'
	DD	FLAT:??_R1A@?0A@EA@CWnd@@8
	DD	FLAT:??_R1A@?0A@EA@CCmdTarget@@8
	DD	FLAT:??_R1A@?0A@EA@CObject@@8
rdata$r	ENDS
;	COMDAT ??_R3CButton@@8
rdata$r	SEGMENT
??_R3CButton@@8 DD 00H					; CButton::`RTTI Class Hierarchy Descriptor'
	DD	00H
	DD	04H
	DD	FLAT:??_R2CButton@@8
rdata$r	ENDS
;	COMDAT ??_R0?AVCButton@@@8
data$rs	SEGMENT
??_R0?AVCButton@@@8 DD FLAT:??_7type_info@@6B@		; CButton `RTTI Type Descriptor'
	DD	00H
	DB	'.?AVCButton@@', 00H
data$rs	ENDS
;	COMDAT ??_R4CButton@@6B@
rdata$r	SEGMENT
??_R4CButton@@6B@ DD 00H				; CButton::`RTTI Complete Object Locator'
	DD	00H
	DD	00H
	DD	FLAT:??_R0?AVCButton@@@8
	DD	FLAT:??_R3CButton@@8
rdata$r	ENDS
;	COMDAT ??_R2CCmdTarget@@8
rdata$r	SEGMENT
??_R2CCmdTarget@@8 DD FLAT:??_R1A@?0A@EA@CCmdTarget@@8	; CCmdTarget::`RTTI Base Class Array'
	DD	FLAT:??_R1A@?0A@EA@CObject@@8
rdata$r	ENDS
;	COMDAT ??_R3CCmdTarget@@8
rdata$r	SEGMENT
??_R3CCmdTarget@@8 DD 00H				; CCmdTarget::`RTTI Class Hierarchy Descriptor'
	DD	00H
	DD	02H
	DD	FLAT:??_R2CCmdTarget@@8
rdata$r	ENDS
;	COMDAT ??_R0?AVCCmdTarget@@@8
data$rs	SEGMENT
??_R0?AVCCmdTarget@@@8 DD FLAT:??_7type_info@@6B@	; CCmdTarget `RTTI Type Descriptor'
	DD	00H
	DB	'.?AVCCmdTarget@@', 00H
data$rs	ENDS
;	COMDAT ??_R1A@?0A@EA@CCmdTarget@@8
rdata$r	SEGMENT
??_R1A@?0A@EA@CCmdTarget@@8 DD FLAT:??_R0?AVCCmdTarget@@@8 ; CCmdTarget::`RTTI Base Class Descriptor at (0,-1,0,64)'
	DD	01H
	DD	00H
	DD	0ffffffffH
	DD	00H
	DD	040H
	DD	FLAT:??_R3CCmdTarget@@8
rdata$r	ENDS
;	COMDAT ??_R2CWnd@@8
rdata$r	SEGMENT
??_R2CWnd@@8 DD	FLAT:??_R1A@?0A@EA@CWnd@@8		; CWnd::`RTTI Base Class Array'
	DD	FLAT:??_R1A@?0A@EA@CCmdTarget@@8
	DD	FLAT:??_R1A@?0A@EA@CObject@@8
rdata$r	ENDS
;	COMDAT ??_R3CWnd@@8
rdata$r	SEGMENT
??_R3CWnd@@8 DD	00H					; CWnd::`RTTI Class Hierarchy Descriptor'
	DD	00H
	DD	03H
	DD	FLAT:??_R2CWnd@@8
rdata$r	ENDS
;	COMDAT ??_R0?AVCWnd@@@8
data$rs	SEGMENT
??_R0?AVCWnd@@@8 DD FLAT:??_7type_info@@6B@		; CWnd `RTTI Type Descriptor'
	DD	00H
	DB	'.?AVCWnd@@', 00H
data$rs	ENDS
;	COMDAT ??_R1A@?0A@EA@CWnd@@8
rdata$r	SEGMENT
??_R1A@?0A@EA@CWnd@@8 DD FLAT:??_R0?AVCWnd@@@8		; CWnd::`RTTI Base Class Descriptor at (0,-1,0,64)'
	DD	02H
	DD	00H
	DD	0ffffffffH
	DD	00H
	DD	040H
	DD	FLAT:??_R3CWnd@@8
rdata$r	ENDS
;	COMDAT ??_R1A@?0A@EA@CBitmap@@8
rdata$r	SEGMENT
??_R1A@?0A@EA@CBitmap@@8 DD FLAT:??_R0?AVCBitmap@@@8	; CBitmap::`RTTI Base Class Descriptor at (0,-1,0,64)'
	DD	02H
	DD	00H
	DD	0ffffffffH
	DD	00H
	DD	040H
	DD	FLAT:??_R3CBitmap@@8
rdata$r	ENDS
;	COMDAT ??_R2CBitmap@@8
rdata$r	SEGMENT
??_R2CBitmap@@8 DD FLAT:??_R1A@?0A@EA@CBitmap@@8	; CBitmap::`RTTI Base Class Array'
	DD	FLAT:??_R1A@?0A@EA@CGdiObject@@8
	DD	FLAT:??_R1A@?0A@EA@CObject@@8
rdata$r	ENDS
;	COMDAT ??_R3CBitmap@@8
rdata$r	SEGMENT
??_R3CBitmap@@8 DD 00H					; CBitmap::`RTTI Class Hierarchy Descriptor'
	DD	00H
	DD	03H
	DD	FLAT:??_R2CBitmap@@8
rdata$r	ENDS
;	COMDAT ??_R0?AVCBitmap@@@8
data$rs	SEGMENT
??_R0?AVCBitmap@@@8 DD FLAT:??_7type_info@@6B@		; CBitmap `RTTI Type Descriptor'
	DD	00H
	DB	'.?AVCBitmap@@', 00H
data$rs	ENDS
;	COMDAT ??_R4CBitmap@@6B@
rdata$r	SEGMENT
??_R4CBitmap@@6B@ DD 00H				; CBitmap::`RTTI Complete Object Locator'
	DD	00H
	DD	00H
	DD	FLAT:??_R0?AVCBitmap@@@8
	DD	FLAT:??_R3CBitmap@@8
rdata$r	ENDS
;	COMDAT ??_R1A@?0A@EA@CGdiObject@@8
rdata$r	SEGMENT
??_R1A@?0A@EA@CGdiObject@@8 DD FLAT:??_R0?AVCGdiObject@@@8 ; CGdiObject::`RTTI Base Class Descriptor at (0,-1,0,64)'
	DD	01H
	DD	00H
	DD	0ffffffffH
	DD	00H
	DD	040H
	DD	FLAT:??_R3CGdiObject@@8
rdata$r	ENDS
;	COMDAT ??_R2CGdiObject@@8
rdata$r	SEGMENT
??_R2CGdiObject@@8 DD FLAT:??_R1A@?0A@EA@CGdiObject@@8	; CGdiObject::`RTTI Base Class Array'
	DD	FLAT:??_R1A@?0A@EA@CObject@@8
rdata$r	ENDS
;	COMDAT ??_R3CGdiObject@@8
rdata$r	SEGMENT
??_R3CGdiObject@@8 DD 00H				; CGdiObject::`RTTI Class Hierarchy Descriptor'
	DD	00H
	DD	02H
	DD	FLAT:??_R2CGdiObject@@8
rdata$r	ENDS
;	COMDAT ??_R0?AVCGdiObject@@@8
data$rs	SEGMENT
??_R0?AVCGdiObject@@@8 DD FLAT:??_7type_info@@6B@	; CGdiObject `RTTI Type Descriptor'
	DD	00H
	DB	'.?AVCGdiObject@@', 00H
data$rs	ENDS
;	COMDAT ??_R4CGdiObject@@6B@
rdata$r	SEGMENT
??_R4CGdiObject@@6B@ DD 00H				; CGdiObject::`RTTI Complete Object Locator'
	DD	00H
	DD	00H
	DD	FLAT:??_R0?AVCGdiObject@@@8
	DD	FLAT:??_R3CGdiObject@@8
rdata$r	ENDS
;	COMDAT ??_R1A@?0A@EA@CObject@@8
rdata$r	SEGMENT
??_R1A@?0A@EA@CObject@@8 DD FLAT:??_R0?AVCObject@@@8	; CObject::`RTTI Base Class Descriptor at (0,-1,0,64)'
	DD	00H
	DD	00H
	DD	0ffffffffH
	DD	00H
	DD	040H
	DD	FLAT:??_R3CObject@@8
rdata$r	ENDS
;	COMDAT ??_R2CObject@@8
rdata$r	SEGMENT
??_R2CObject@@8 DD FLAT:??_R1A@?0A@EA@CObject@@8	; CObject::`RTTI Base Class Array'
rdata$r	ENDS
;	COMDAT ??_R3CObject@@8
rdata$r	SEGMENT
??_R3CObject@@8 DD 00H					; CObject::`RTTI Class Hierarchy Descriptor'
	DD	00H
	DD	01H
	DD	FLAT:??_R2CObject@@8
rdata$r	ENDS
;	COMDAT ??_R0?AVCObject@@@8
data$rs	SEGMENT
??_R0?AVCObject@@@8 DD FLAT:??_7type_info@@6B@		; CObject `RTTI Type Descriptor'
	DD	00H
	DB	'.?AVCObject@@', 00H
data$rs	ENDS
;	COMDAT ??_7CDateTimeCtrl@@6B@
CONST	SEGMENT
??_7CDateTimeCtrl@@6B@ DD FLAT:??_R4CDateTimeCtrl@@6B@	; CDateTimeCtrl::`vftable'
	DD	FLAT:?GetRuntimeClass@CDateTimeCtrl@@UBEPAUCRuntimeClass@@XZ
	DD	FLAT:??_ECDateTimeCtrl@@UAEPAXI@Z
	DD	FLAT:?Serialize@CObject@@UAEXAAVCArchive@@@Z
	DD	FLAT:?AssertValid@CObject@@UBEXXZ
	DD	FLAT:?Dump@CObject@@UBEXAAVCDumpContext@@@Z
	DD	FLAT:?OnCmdMsg@CCmdTarget@@UAEHIHPAXPAUAFX_CMDHANDLERINFO@@@Z
	DD	FLAT:?OnFinalRelease@CWnd@@UAEXXZ
	DD	FLAT:?IsInvokeAllowed@CCmdTarget@@UAEHJ@Z
	DD	FLAT:?GetDispatchIID@CCmdTarget@@UAEHPAU_GUID@@@Z
	DD	FLAT:?GetTypeInfoCount@CCmdTarget@@UAEIXZ
	DD	FLAT:?GetTypeLibCache@CCmdTarget@@UAEPAVCTypeLibCache@@XZ
	DD	FLAT:?GetTypeLib@CCmdTarget@@UAEJKPAPAUITypeLib@@@Z
	DD	FLAT:?GetMessageMap@CWnd@@MBEPBUAFX_MSGMAP@@XZ
	DD	FLAT:?GetCommandMap@CCmdTarget@@MBEPBUAFX_OLECMDMAP@@XZ
	DD	FLAT:?GetDispatchMap@CCmdTarget@@MBEPBUAFX_DISPMAP@@XZ
	DD	FLAT:?GetConnectionMap@CCmdTarget@@MBEPBUAFX_CONNECTIONMAP@@XZ
	DD	FLAT:?GetInterfaceMap@CWnd@@MBEPBUAFX_INTERFACEMAP@@XZ
	DD	FLAT:?GetEventSinkMap@CCmdTarget@@MBEPBUAFX_EVENTSINKMAP@@XZ
	DD	FLAT:?OnCreateAggregates@CCmdTarget@@UAEHXZ
	DD	FLAT:?GetInterfaceHook@CCmdTarget@@UAEPAUIUnknown@@PBX@Z
	DD	FLAT:?GetExtraConnectionPoints@CCmdTarget@@MAEHPAVCPtrArray@@@Z
	DD	FLAT:?GetConnectionHook@CCmdTarget@@MAEPAUIConnectionPoint@@ABU_GUID@@@Z
	DD	FLAT:?PreSubclassWindow@CWnd@@UAEXXZ
	DD	FLAT:?Create@CWnd@@UAEHPBD0KABUtagRECT@@PAV1@IPAUCCreateContext@@@Z
	DD	FLAT:?CreateEx@CWnd@@UAEHKPBD0KABUtagRECT@@PAV1@IPAX@Z
	DD	FLAT:?CreateEx@CWnd@@UAEHKPBD0KHHHHPAUHWND__@@PAUHMENU__@@PAX@Z
	DD	FLAT:?DestroyWindow@CWnd@@UAEHXZ
	DD	FLAT:?PreCreateWindow@CWnd@@UAEHAAUtagCREATESTRUCTA@@@Z
	DD	FLAT:?CalcWindowRect@CWnd@@UAEXPAUtagRECT@@I@Z
	DD	FLAT:?GetMenu@CWnd@@UBEPAVCMenu@@XZ
	DD	FLAT:?SetMenu@CWnd@@UAEHPAVCMenu@@@Z
	DD	FLAT:?OnToolHitTest@CWnd@@UBEHVCPoint@@PAUtagTOOLINFOA@@@Z
	DD	FLAT:?GetScrollBarCtrl@CWnd@@UBEPAVCScrollBar@@H@Z
	DD	FLAT:?WinHelpA@CWnd@@UAEXKI@Z
	DD	FLAT:?HtmlHelpA@CWnd@@UAEXKI@Z
	DD	FLAT:?WinHelpInternal@CWnd@@UAEXKI@Z
	DD	FLAT:?ContinueModal@CWnd@@UAEHXZ
	DD	FLAT:?EndModalLoop@CWnd@@UAEXH@Z
	DD	FLAT:?OnDrawIconicThumbnailOrLivePreview@CWnd@@UAEXAAVCDC@@VCRect@@VCSize@@HAAH@Z
	DD	FLAT:?EnsureStdObj@CWnd@@UAEJXZ
	DD	FLAT:?get_accParent@CWnd@@UAEJPAPAUIDispatch@@@Z
	DD	FLAT:?get_accChildCount@CWnd@@UAEJPAJ@Z
	DD	FLAT:?get_accChild@CWnd@@UAEJUtagVARIANT@@PAPAUIDispatch@@@Z
	DD	FLAT:?get_accName@CWnd@@UAEJUtagVARIANT@@PAPA_W@Z
	DD	FLAT:?get_accValue@CWnd@@UAEJUtagVARIANT@@PAPA_W@Z
	DD	FLAT:?get_accDescription@CWnd@@UAEJUtagVARIANT@@PAPA_W@Z
	DD	FLAT:?get_accRole@CWnd@@UAEJUtagVARIANT@@PAU2@@Z
	DD	FLAT:?get_accState@CWnd@@UAEJUtagVARIANT@@PAU2@@Z
	DD	FLAT:?get_accHelp@CWnd@@UAEJUtagVARIANT@@PAPA_W@Z
	DD	FLAT:?get_accHelpTopic@CWnd@@UAEJPAPA_WUtagVARIANT@@PAJ@Z
	DD	FLAT:?get_accKeyboardShortcut@CWnd@@UAEJUtagVARIANT@@PAPA_W@Z
	DD	FLAT:?get_accFocus@CWnd@@UAEJPAUtagVARIANT@@@Z
	DD	FLAT:?get_accSelection@CWnd@@UAEJPAUtagVARIANT@@@Z
	DD	FLAT:?get_accDefaultAction@CWnd@@UAEJUtagVARIANT@@PAPA_W@Z
	DD	FLAT:?accSelect@CWnd@@UAEJJUtagVARIANT@@@Z
	DD	FLAT:?accLocation@CWnd@@UAEJPAJ000UtagVARIANT@@@Z
	DD	FLAT:?accNavigate@CWnd@@UAEJJUtagVARIANT@@PAU2@@Z
	DD	FLAT:?accHitTest@CWnd@@UAEJJJPAUtagVARIANT@@@Z
	DD	FLAT:?accDoDefaultAction@CWnd@@UAEJUtagVARIANT@@@Z
	DD	FLAT:?put_accName@CWnd@@UAEJUtagVARIANT@@PA_W@Z
	DD	FLAT:?put_accValue@CWnd@@UAEJUtagVARIANT@@PA_W@Z
	DD	FLAT:?SetProxy@CWnd@@UAEJPAUIAccessibleProxy@@@Z
	DD	FLAT:?CreateAccessibleProxy@CWnd@@UAEJIJPAJ@Z
	DD	FLAT:?OnCommand@CWnd@@MAEHIJ@Z
	DD	FLAT:?OnNotify@CWnd@@MAEHIJPAJ@Z
	DD	FLAT:?GetSuperWndProcAddr@CWnd@@MAEPAP6GJPAUHWND__@@IIJ@ZXZ
	DD	FLAT:?DoDataExchange@CWnd@@MAEXPAVCDataExchange@@@Z
	DD	FLAT:?BeginModalState@CWnd@@UAEXXZ
	DD	FLAT:?EndModalState@CWnd@@UAEXXZ
	DD	FLAT:?PreTranslateMessage@CWnd@@UAEHPAUtagMSG@@@Z
	DD	FLAT:?OnAmbientProperty@CWnd@@UAEHPAVCOleControlSite@@JPAUtagVARIANT@@@Z
	DD	FLAT:?WindowProc@CWnd@@MAEJIIJ@Z
	DD	FLAT:?OnWndMsg@CWnd@@MAEHIIJPAJ@Z
	DD	FLAT:?DefWindowProcA@CWnd@@MAEJIIJ@Z
	DD	FLAT:?PostNcDestroy@CWnd@@MAEXXZ
	DD	FLAT:?OnChildNotify@CWnd@@MAEHIIJPAJ@Z
	DD	FLAT:?OnTouchInputs@CWnd@@MAEHIPAUtagTOUCHINPUT@@@Z
	DD	FLAT:?OnTouchInput@CWnd@@MAEHVCPoint@@HHPAUtagTOUCHINPUT@@@Z
	DD	FLAT:?GetGestureStatus@CWnd@@MAEKVCPoint@@@Z
	DD	FLAT:?OnGestureZoom@CWnd@@MAEHVCPoint@@J@Z
	DD	FLAT:?OnGesturePan@CWnd@@MAEHVCPoint@@0@Z
	DD	FLAT:?OnGestureRotate@CWnd@@MAEHVCPoint@@N@Z
	DD	FLAT:?OnGestureTwoFingerTap@CWnd@@MAEHVCPoint@@@Z
	DD	FLAT:?OnGesturePressAndTap@CWnd@@MAEHVCPoint@@J@Z
	DD	FLAT:?ResizeDynamicLayout@CWnd@@MAEXXZ
	DD	FLAT:?CheckAutoCenter@CWnd@@UAEHXZ
	DD	FLAT:?IsFrameWnd@CWnd@@UBEHXZ
	DD	FLAT:?CreateControlContainer@CWnd@@MAEHPAPAVCOleControlContainer@@@Z
	DD	FLAT:?CreateControlSite@CWnd@@MAEHPAVCOleControlContainer@@PAPAVCOleControlSite@@IABU_GUID@@@Z
	DD	FLAT:?SetOccDialogInfo@CWnd@@MAEHPAU_AFX_OCC_DIALOG_INFO@@@Z
	DD	FLAT:?GetOccDialogInfo@CWnd@@MAEPAU_AFX_OCC_DIALOG_INFO@@XZ
	DD	FLAT:?Create@CDateTimeCtrl@@UAEHKABUtagRECT@@PAVCWnd@@I@Z
CONST	ENDS
;	COMDAT ??_7CCommonDialog@@6B@
CONST	SEGMENT
??_7CCommonDialog@@6B@ DD FLAT:??_R4CCommonDialog@@6B@	; CCommonDialog::`vftable'
	DD	FLAT:?GetRuntimeClass@CCommonDialog@@UBEPAUCRuntimeClass@@XZ
	DD	FLAT:??_ECCommonDialog@@UAEPAXI@Z
	DD	FLAT:?Serialize@CObject@@UAEXAAVCArchive@@@Z
	DD	FLAT:?AssertValid@CObject@@UBEXXZ
	DD	FLAT:?Dump@CObject@@UBEXAAVCDumpContext@@@Z
	DD	FLAT:?OnCmdMsg@CDialog@@UAEHIHPAXPAUAFX_CMDHANDLERINFO@@@Z
	DD	FLAT:?OnFinalRelease@CWnd@@UAEXXZ
	DD	FLAT:?IsInvokeAllowed@CCmdTarget@@UAEHJ@Z
	DD	FLAT:?GetDispatchIID@CCmdTarget@@UAEHPAU_GUID@@@Z
	DD	FLAT:?GetTypeInfoCount@CCmdTarget@@UAEIXZ
	DD	FLAT:?GetTypeLibCache@CCmdTarget@@UAEPAVCTypeLibCache@@XZ
	DD	FLAT:?GetTypeLib@CCmdTarget@@UAEJKPAPAUITypeLib@@@Z
	DD	FLAT:?GetMessageMap@CCommonDialog@@MBEPBUAFX_MSGMAP@@XZ
	DD	FLAT:?GetCommandMap@CCmdTarget@@MBEPBUAFX_OLECMDMAP@@XZ
	DD	FLAT:?GetDispatchMap@CCmdTarget@@MBEPBUAFX_DISPMAP@@XZ
	DD	FLAT:?GetConnectionMap@CCmdTarget@@MBEPBUAFX_CONNECTIONMAP@@XZ
	DD	FLAT:?GetInterfaceMap@CWnd@@MBEPBUAFX_INTERFACEMAP@@XZ
	DD	FLAT:?GetEventSinkMap@CCmdTarget@@MBEPBUAFX_EVENTSINKMAP@@XZ
	DD	FLAT:?OnCreateAggregates@CCmdTarget@@UAEHXZ
	DD	FLAT:?GetInterfaceHook@CCmdTarget@@UAEPAUIUnknown@@PBX@Z
	DD	FLAT:?GetExtraConnectionPoints@CCmdTarget@@MAEHPAVCPtrArray@@@Z
	DD	FLAT:?GetConnectionHook@CCmdTarget@@MAEPAUIConnectionPoint@@ABU_GUID@@@Z
	DD	FLAT:?PreSubclassWindow@CWnd@@UAEXXZ
	DD	FLAT:?Create@CWnd@@UAEHPBD0KABUtagRECT@@PAV1@IPAUCCreateContext@@@Z
	DD	FLAT:?CreateEx@CWnd@@UAEHKPBD0KABUtagRECT@@PAV1@IPAX@Z
	DD	FLAT:?CreateEx@CWnd@@UAEHKPBD0KHHHHPAUHWND__@@PAUHMENU__@@PAX@Z
	DD	FLAT:?DestroyWindow@CWnd@@UAEHXZ
	DD	FLAT:?PreCreateWindow@CWnd@@UAEHAAUtagCREATESTRUCTA@@@Z
	DD	FLAT:?CalcWindowRect@CWnd@@UAEXPAUtagRECT@@I@Z
	DD	FLAT:?GetMenu@CWnd@@UBEPAVCMenu@@XZ
	DD	FLAT:?SetMenu@CWnd@@UAEHPAVCMenu@@@Z
	DD	FLAT:?OnToolHitTest@CWnd@@UBEHVCPoint@@PAUtagTOOLINFOA@@@Z
	DD	FLAT:?GetScrollBarCtrl@CWnd@@UBEPAVCScrollBar@@H@Z
	DD	FLAT:?WinHelpA@CWnd@@UAEXKI@Z
	DD	FLAT:?HtmlHelpA@CWnd@@UAEXKI@Z
	DD	FLAT:?WinHelpInternal@CWnd@@UAEXKI@Z
	DD	FLAT:?ContinueModal@CWnd@@UAEHXZ
	DD	FLAT:?EndModalLoop@CWnd@@UAEXH@Z
	DD	FLAT:?OnDrawIconicThumbnailOrLivePreview@CWnd@@UAEXAAVCDC@@VCRect@@VCSize@@HAAH@Z
	DD	FLAT:?EnsureStdObj@CWnd@@UAEJXZ
	DD	FLAT:?get_accParent@CWnd@@UAEJPAPAUIDispatch@@@Z
	DD	FLAT:?get_accChildCount@CWnd@@UAEJPAJ@Z
	DD	FLAT:?get_accChild@CWnd@@UAEJUtagVARIANT@@PAPAUIDispatch@@@Z
	DD	FLAT:?get_accName@CWnd@@UAEJUtagVARIANT@@PAPA_W@Z
	DD	FLAT:?get_accValue@CWnd@@UAEJUtagVARIANT@@PAPA_W@Z
	DD	FLAT:?get_accDescription@CWnd@@UAEJUtagVARIANT@@PAPA_W@Z
	DD	FLAT:?get_accRole@CWnd@@UAEJUtagVARIANT@@PAU2@@Z
	DD	FLAT:?get_accState@CWnd@@UAEJUtagVARIANT@@PAU2@@Z
	DD	FLAT:?get_accHelp@CWnd@@UAEJUtagVARIANT@@PAPA_W@Z
	DD	FLAT:?get_accHelpTopic@CWnd@@UAEJPAPA_WUtagVARIANT@@PAJ@Z
	DD	FLAT:?get_accKeyboardShortcut@CWnd@@UAEJUtagVARIANT@@PAPA_W@Z
	DD	FLAT:?get_accFocus@CWnd@@UAEJPAUtagVARIANT@@@Z
	DD	FLAT:?get_accSelection@CWnd@@UAEJPAUtagVARIANT@@@Z
	DD	FLAT:?get_accDefaultAction@CWnd@@UAEJUtagVARIANT@@PAPA_W@Z
	DD	FLAT:?accSelect@CWnd@@UAEJJUtagVARIANT@@@Z
	DD	FLAT:?accLocation@CWnd@@UAEJPAJ000UtagVARIANT@@@Z
	DD	FLAT:?accNavigate@CWnd@@UAEJJUtagVARIANT@@PAU2@@Z
	DD	FLAT:?accHitTest@CWnd@@UAEJJJPAUtagVARIANT@@@Z
	DD	FLAT:?accDoDefaultAction@CWnd@@UAEJUtagVARIANT@@@Z
	DD	FLAT:?put_accName@CWnd@@UAEJUtagVARIANT@@PA_W@Z
	DD	FLAT:?put_accValue@CWnd@@UAEJUtagVARIANT@@PA_W@Z
	DD	FLAT:?SetProxy@CWnd@@UAEJPAUIAccessibleProxy@@@Z
	DD	FLAT:?CreateAccessibleProxy@CWnd@@UAEJIJPAJ@Z
	DD	FLAT:?OnCommand@CWnd@@MAEHIJ@Z
	DD	FLAT:?OnNotify@CWnd@@MAEHIJPAJ@Z
	DD	FLAT:?GetSuperWndProcAddr@CWnd@@MAEPAP6GJPAUHWND__@@IIJ@ZXZ
	DD	FLAT:?DoDataExchange@CWnd@@MAEXPAVCDataExchange@@@Z
	DD	FLAT:?BeginModalState@CWnd@@UAEXXZ
	DD	FLAT:?EndModalState@CWnd@@UAEXXZ
	DD	FLAT:?PreTranslateMessage@CDialog@@UAEHPAUtagMSG@@@Z
	DD	FLAT:?OnAmbientProperty@CWnd@@UAEHPAVCOleControlSite@@JPAUtagVARIANT@@@Z
	DD	FLAT:?WindowProc@CWnd@@MAEJIIJ@Z
	DD	FLAT:?OnWndMsg@CWnd@@MAEHIIJPAJ@Z
	DD	FLAT:?DefWindowProcA@CWnd@@MAEJIIJ@Z
	DD	FLAT:?PostNcDestroy@CWnd@@MAEXXZ
	DD	FLAT:?OnChildNotify@CWnd@@MAEHIIJPAJ@Z
	DD	FLAT:?OnTouchInputs@CWnd@@MAEHIPAUtagTOUCHINPUT@@@Z
	DD	FLAT:?OnTouchInput@CWnd@@MAEHVCPoint@@HHPAUtagTOUCHINPUT@@@Z
	DD	FLAT:?GetGestureStatus@CWnd@@MAEKVCPoint@@@Z
	DD	FLAT:?OnGestureZoom@CWnd@@MAEHVCPoint@@J@Z
	DD	FLAT:?OnGesturePan@CWnd@@MAEHVCPoint@@0@Z
	DD	FLAT:?OnGestureRotate@CWnd@@MAEHVCPoint@@N@Z
	DD	FLAT:?OnGestureTwoFingerTap@CWnd@@MAEHVCPoint@@@Z
	DD	FLAT:?OnGesturePressAndTap@CWnd@@MAEHVCPoint@@J@Z
	DD	FLAT:?ResizeDynamicLayout@CWnd@@MAEXXZ
	DD	FLAT:?CheckAutoCenter@CDialog@@UAEHXZ
	DD	FLAT:?IsFrameWnd@CWnd@@UBEHXZ
	DD	FLAT:?CreateControlContainer@CWnd@@MAEHPAPAVCOleControlContainer@@@Z
	DD	FLAT:?CreateControlSite@CWnd@@MAEHPAVCOleControlContainer@@PAPAVCOleControlSite@@IABU_GUID@@@Z
	DD	FLAT:?SetOccDialogInfo@CDialog@@MAEHPAU_AFX_OCC_DIALOG_INFO@@@Z
	DD	FLAT:?GetOccDialogInfo@CDialog@@MAEPAU_AFX_OCC_DIALOG_INFO@@XZ
	DD	FLAT:?Create@CDialog@@UAEHIPAVCWnd@@@Z
	DD	FLAT:?Create@CDialog@@UAEHPBDPAVCWnd@@@Z
	DD	FLAT:?CreateIndirect@CDialog@@UAEHPAXPAVCWnd@@@Z
	DD	FLAT:?CreateIndirect@CDialog@@UAEHPBUDLGTEMPLATE@@PAVCWnd@@PAX@Z
	DD	FLAT:?DoModal@CDialog@@UAEHXZ
	DD	FLAT:?OnInitDialog@CDialog@@UAEHXZ
	DD	FLAT:?OnSetFont@CDialog@@UAEXPAVCFont@@@Z
	DD	FLAT:?OnOK@CCommonDialog@@MAEXXZ
	DD	FLAT:?OnCancel@CCommonDialog@@MAEXXZ
	DD	FLAT:?PreInitDialog@CDialog@@MAEXXZ
CONST	ENDS
;	COMDAT ??_C@_0N@OMEMOKLE@?$CFTs?5?$CI?$CFTs?3?$CFd?$CJ@
CONST	SEGMENT
??_C@_0N@OMEMOKLE@?$CFTs?5?$CI?$CFTs?3?$CFd?$CJ@ DB '%Ts (%Ts:%d)', 00H ; `string'
CONST	ENDS
;	COMDAT ??_C@_0BB@HBOOMJBF@?$CFTs?5?$CI?$CFTs?3?$CFd?$CJ?6?$CFTs@
CONST	SEGMENT
??_C@_0BB@HBOOMJBF@?$CFTs?5?$CI?$CFTs?3?$CFd?$CJ?6?$CFTs@ DB '%Ts (%Ts:%d'
	DB	')', 0aH, '%Ts', 00H				; `string'
CONST	ENDS
;	COMDAT ??_C@_0BP@OIEOKIDM@Exception?5thrown?5in?5destructor@
CONST	SEGMENT
??_C@_0BP@OIEOKIDM@Exception?5thrown?5in?5destructor@ DB 'Exception throw'
	DB	'n in destructor', 00H			; `string'
CONST	ENDS
;	COMDAT ??_C@_0HD@JJCHHHNK@C?3?2Program?5Files?5?$CIx86?$CJ?2Microsof@
CONST	SEGMENT
??_C@_0HD@JJCHHHNK@C?3?2Program?5Files?5?$CIx86?$CJ?2Microsof@ DB 'C:\Pro'
	DB	'gram Files (x86)\Microsoft Visual Studio\2019\Community\VC\To'
	DB	'ols\MSVC\14.29.30133\atlmfc\include\afxwin1.inl', 00H ; `string'
CONST	ENDS
;	COMDAT ??_7CEdit@@6B@
CONST	SEGMENT
??_7CEdit@@6B@ DD FLAT:??_R4CEdit@@6B@			; CEdit::`vftable'
	DD	FLAT:?GetRuntimeClass@CEdit@@UBEPAUCRuntimeClass@@XZ
	DD	FLAT:??_ECEdit@@UAEPAXI@Z
	DD	FLAT:?Serialize@CObject@@UAEXAAVCArchive@@@Z
	DD	FLAT:?AssertValid@CObject@@UBEXXZ
	DD	FLAT:?Dump@CObject@@UBEXAAVCDumpContext@@@Z
	DD	FLAT:?OnCmdMsg@CCmdTarget@@UAEHIHPAXPAUAFX_CMDHANDLERINFO@@@Z
	DD	FLAT:?OnFinalRelease@CWnd@@UAEXXZ
	DD	FLAT:?IsInvokeAllowed@CCmdTarget@@UAEHJ@Z
	DD	FLAT:?GetDispatchIID@CCmdTarget@@UAEHPAU_GUID@@@Z
	DD	FLAT:?GetTypeInfoCount@CCmdTarget@@UAEIXZ
	DD	FLAT:?GetTypeLibCache@CCmdTarget@@UAEPAVCTypeLibCache@@XZ
	DD	FLAT:?GetTypeLib@CCmdTarget@@UAEJKPAPAUITypeLib@@@Z
	DD	FLAT:?GetMessageMap@CWnd@@MBEPBUAFX_MSGMAP@@XZ
	DD	FLAT:?GetCommandMap@CCmdTarget@@MBEPBUAFX_OLECMDMAP@@XZ
	DD	FLAT:?GetDispatchMap@CCmdTarget@@MBEPBUAFX_DISPMAP@@XZ
	DD	FLAT:?GetConnectionMap@CCmdTarget@@MBEPBUAFX_CONNECTIONMAP@@XZ
	DD	FLAT:?GetInterfaceMap@CWnd@@MBEPBUAFX_INTERFACEMAP@@XZ
	DD	FLAT:?GetEventSinkMap@CCmdTarget@@MBEPBUAFX_EVENTSINKMAP@@XZ
	DD	FLAT:?OnCreateAggregates@CCmdTarget@@UAEHXZ
	DD	FLAT:?GetInterfaceHook@CCmdTarget@@UAEPAUIUnknown@@PBX@Z
	DD	FLAT:?GetExtraConnectionPoints@CCmdTarget@@MAEHPAVCPtrArray@@@Z
	DD	FLAT:?GetConnectionHook@CCmdTarget@@MAEPAUIConnectionPoint@@ABU_GUID@@@Z
	DD	FLAT:?PreSubclassWindow@CWnd@@UAEXXZ
	DD	FLAT:?Create@CWnd@@UAEHPBD0KABUtagRECT@@PAV1@IPAUCCreateContext@@@Z
	DD	FLAT:?CreateEx@CWnd@@UAEHKPBD0KABUtagRECT@@PAV1@IPAX@Z
	DD	FLAT:?CreateEx@CWnd@@UAEHKPBD0KHHHHPAUHWND__@@PAUHMENU__@@PAX@Z
	DD	FLAT:?DestroyWindow@CWnd@@UAEHXZ
	DD	FLAT:?PreCreateWindow@CWnd@@UAEHAAUtagCREATESTRUCTA@@@Z
	DD	FLAT:?CalcWindowRect@CWnd@@UAEXPAUtagRECT@@I@Z
	DD	FLAT:?GetMenu@CWnd@@UBEPAVCMenu@@XZ
	DD	FLAT:?SetMenu@CWnd@@UAEHPAVCMenu@@@Z
	DD	FLAT:?OnToolHitTest@CWnd@@UBEHVCPoint@@PAUtagTOOLINFOA@@@Z
	DD	FLAT:?GetScrollBarCtrl@CWnd@@UBEPAVCScrollBar@@H@Z
	DD	FLAT:?WinHelpA@CWnd@@UAEXKI@Z
	DD	FLAT:?HtmlHelpA@CWnd@@UAEXKI@Z
	DD	FLAT:?WinHelpInternal@CWnd@@UAEXKI@Z
	DD	FLAT:?ContinueModal@CWnd@@UAEHXZ
	DD	FLAT:?EndModalLoop@CWnd@@UAEXH@Z
	DD	FLAT:?OnDrawIconicThumbnailOrLivePreview@CWnd@@UAEXAAVCDC@@VCRect@@VCSize@@HAAH@Z
	DD	FLAT:?EnsureStdObj@CWnd@@UAEJXZ
	DD	FLAT:?get_accParent@CWnd@@UAEJPAPAUIDispatch@@@Z
	DD	FLAT:?get_accChildCount@CWnd@@UAEJPAJ@Z
	DD	FLAT:?get_accChild@CWnd@@UAEJUtagVARIANT@@PAPAUIDispatch@@@Z
	DD	FLAT:?get_accName@CWnd@@UAEJUtagVARIANT@@PAPA_W@Z
	DD	FLAT:?get_accValue@CWnd@@UAEJUtagVARIANT@@PAPA_W@Z
	DD	FLAT:?get_accDescription@CWnd@@UAEJUtagVARIANT@@PAPA_W@Z
	DD	FLAT:?get_accRole@CWnd@@UAEJUtagVARIANT@@PAU2@@Z
	DD	FLAT:?get_accState@CWnd@@UAEJUtagVARIANT@@PAU2@@Z
	DD	FLAT:?get_accHelp@CWnd@@UAEJUtagVARIANT@@PAPA_W@Z
	DD	FLAT:?get_accHelpTopic@CWnd@@UAEJPAPA_WUtagVARIANT@@PAJ@Z
	DD	FLAT:?get_accKeyboardShortcut@CWnd@@UAEJUtagVARIANT@@PAPA_W@Z
	DD	FLAT:?get_accFocus@CWnd@@UAEJPAUtagVARIANT@@@Z
	DD	FLAT:?get_accSelection@CWnd@@UAEJPAUtagVARIANT@@@Z
	DD	FLAT:?get_accDefaultAction@CWnd@@UAEJUtagVARIANT@@PAPA_W@Z
	DD	FLAT:?accSelect@CWnd@@UAEJJUtagVARIANT@@@Z
	DD	FLAT:?accLocation@CWnd@@UAEJPAJ000UtagVARIANT@@@Z
	DD	FLAT:?accNavigate@CWnd@@UAEJJUtagVARIANT@@PAU2@@Z
	DD	FLAT:?accHitTest@CWnd@@UAEJJJPAUtagVARIANT@@@Z
	DD	FLAT:?accDoDefaultAction@CWnd@@UAEJUtagVARIANT@@@Z
	DD	FLAT:?put_accName@CWnd@@UAEJUtagVARIANT@@PA_W@Z
	DD	FLAT:?put_accValue@CWnd@@UAEJUtagVARIANT@@PA_W@Z
	DD	FLAT:?SetProxy@CWnd@@UAEJPAUIAccessibleProxy@@@Z
	DD	FLAT:?CreateAccessibleProxy@CWnd@@UAEJIJPAJ@Z
	DD	FLAT:?OnCommand@CWnd@@MAEHIJ@Z
	DD	FLAT:?OnNotify@CWnd@@MAEHIJPAJ@Z
	DD	FLAT:?GetSuperWndProcAddr@CWnd@@MAEPAP6GJPAUHWND__@@IIJ@ZXZ
	DD	FLAT:?DoDataExchange@CWnd@@MAEXPAVCDataExchange@@@Z
	DD	FLAT:?BeginModalState@CWnd@@UAEXXZ
	DD	FLAT:?EndModalState@CWnd@@UAEXXZ
	DD	FLAT:?PreTranslateMessage@CWnd@@UAEHPAUtagMSG@@@Z
	DD	FLAT:?OnAmbientProperty@CWnd@@UAEHPAVCOleControlSite@@JPAUtagVARIANT@@@Z
	DD	FLAT:?WindowProc@CWnd@@MAEJIIJ@Z
	DD	FLAT:?OnWndMsg@CWnd@@MAEHIIJPAJ@Z
	DD	FLAT:?DefWindowProcA@CWnd@@MAEJIIJ@Z
	DD	FLAT:?PostNcDestroy@CWnd@@MAEXXZ
	DD	FLAT:?OnChildNotify@CWnd@@MAEHIIJPAJ@Z
	DD	FLAT:?OnTouchInputs@CWnd@@MAEHIPAUtagTOUCHINPUT@@@Z
	DD	FLAT:?OnTouchInput@CWnd@@MAEHVCPoint@@HHPAUtagTOUCHINPUT@@@Z
	DD	FLAT:?GetGestureStatus@CWnd@@MAEKVCPoint@@@Z
	DD	FLAT:?OnGestureZoom@CWnd@@MAEHVCPoint@@J@Z
	DD	FLAT:?OnGesturePan@CWnd@@MAEHVCPoint@@0@Z
	DD	FLAT:?OnGestureRotate@CWnd@@MAEHVCPoint@@N@Z
	DD	FLAT:?OnGestureTwoFingerTap@CWnd@@MAEHVCPoint@@@Z
	DD	FLAT:?OnGesturePressAndTap@CWnd@@MAEHVCPoint@@J@Z
	DD	FLAT:?ResizeDynamicLayout@CWnd@@MAEXXZ
	DD	FLAT:?CheckAutoCenter@CWnd@@UAEHXZ
	DD	FLAT:?IsFrameWnd@CWnd@@UBEHXZ
	DD	FLAT:?CreateControlContainer@CWnd@@MAEHPAPAVCOleControlContainer@@@Z
	DD	FLAT:?CreateControlSite@CWnd@@MAEHPAVCOleControlContainer@@PAPAVCOleControlSite@@IABU_GUID@@@Z
	DD	FLAT:?SetOccDialogInfo@CWnd@@MAEHPAU_AFX_OCC_DIALOG_INFO@@@Z
	DD	FLAT:?GetOccDialogInfo@CWnd@@MAEPAU_AFX_OCC_DIALOG_INFO@@XZ
CONST	ENDS
;	COMDAT ??_7CButton@@6B@
CONST	SEGMENT
??_7CButton@@6B@ DD FLAT:??_R4CButton@@6B@		; CButton::`vftable'
	DD	FLAT:?GetRuntimeClass@CButton@@UBEPAUCRuntimeClass@@XZ
	DD	FLAT:??_ECButton@@UAEPAXI@Z
	DD	FLAT:?Serialize@CObject@@UAEXAAVCArchive@@@Z
	DD	FLAT:?AssertValid@CObject@@UBEXXZ
	DD	FLAT:?Dump@CObject@@UBEXAAVCDumpContext@@@Z
	DD	FLAT:?OnCmdMsg@CCmdTarget@@UAEHIHPAXPAUAFX_CMDHANDLERINFO@@@Z
	DD	FLAT:?OnFinalRelease@CWnd@@UAEXXZ
	DD	FLAT:?IsInvokeAllowed@CCmdTarget@@UAEHJ@Z
	DD	FLAT:?GetDispatchIID@CCmdTarget@@UAEHPAU_GUID@@@Z
	DD	FLAT:?GetTypeInfoCount@CCmdTarget@@UAEIXZ
	DD	FLAT:?GetTypeLibCache@CCmdTarget@@UAEPAVCTypeLibCache@@XZ
	DD	FLAT:?GetTypeLib@CCmdTarget@@UAEJKPAPAUITypeLib@@@Z
	DD	FLAT:?GetMessageMap@CWnd@@MBEPBUAFX_MSGMAP@@XZ
	DD	FLAT:?GetCommandMap@CCmdTarget@@MBEPBUAFX_OLECMDMAP@@XZ
	DD	FLAT:?GetDispatchMap@CCmdTarget@@MBEPBUAFX_DISPMAP@@XZ
	DD	FLAT:?GetConnectionMap@CCmdTarget@@MBEPBUAFX_CONNECTIONMAP@@XZ
	DD	FLAT:?GetInterfaceMap@CWnd@@MBEPBUAFX_INTERFACEMAP@@XZ
	DD	FLAT:?GetEventSinkMap@CCmdTarget@@MBEPBUAFX_EVENTSINKMAP@@XZ
	DD	FLAT:?OnCreateAggregates@CCmdTarget@@UAEHXZ
	DD	FLAT:?GetInterfaceHook@CCmdTarget@@UAEPAUIUnknown@@PBX@Z
	DD	FLAT:?GetExtraConnectionPoints@CCmdTarget@@MAEHPAVCPtrArray@@@Z
	DD	FLAT:?GetConnectionHook@CCmdTarget@@MAEPAUIConnectionPoint@@ABU_GUID@@@Z
	DD	FLAT:?PreSubclassWindow@CWnd@@UAEXXZ
	DD	FLAT:?Create@CWnd@@UAEHPBD0KABUtagRECT@@PAV1@IPAUCCreateContext@@@Z
	DD	FLAT:?CreateEx@CWnd@@UAEHKPBD0KABUtagRECT@@PAV1@IPAX@Z
	DD	FLAT:?CreateEx@CWnd@@UAEHKPBD0KHHHHPAUHWND__@@PAUHMENU__@@PAX@Z
	DD	FLAT:?DestroyWindow@CWnd@@UAEHXZ
	DD	FLAT:?PreCreateWindow@CWnd@@UAEHAAUtagCREATESTRUCTA@@@Z
	DD	FLAT:?CalcWindowRect@CWnd@@UAEXPAUtagRECT@@I@Z
	DD	FLAT:?GetMenu@CWnd@@UBEPAVCMenu@@XZ
	DD	FLAT:?SetMenu@CWnd@@UAEHPAVCMenu@@@Z
	DD	FLAT:?OnToolHitTest@CWnd@@UBEHVCPoint@@PAUtagTOOLINFOA@@@Z
	DD	FLAT:?GetScrollBarCtrl@CWnd@@UBEPAVCScrollBar@@H@Z
	DD	FLAT:?WinHelpA@CWnd@@UAEXKI@Z
	DD	FLAT:?HtmlHelpA@CWnd@@UAEXKI@Z
	DD	FLAT:?WinHelpInternal@CWnd@@UAEXKI@Z
	DD	FLAT:?ContinueModal@CWnd@@UAEHXZ
	DD	FLAT:?EndModalLoop@CWnd@@UAEXH@Z
	DD	FLAT:?OnDrawIconicThumbnailOrLivePreview@CWnd@@UAEXAAVCDC@@VCRect@@VCSize@@HAAH@Z
	DD	FLAT:?EnsureStdObj@CWnd@@UAEJXZ
	DD	FLAT:?get_accParent@CWnd@@UAEJPAPAUIDispatch@@@Z
	DD	FLAT:?get_accChildCount@CWnd@@UAEJPAJ@Z
	DD	FLAT:?get_accChild@CWnd@@UAEJUtagVARIANT@@PAPAUIDispatch@@@Z
	DD	FLAT:?get_accName@CWnd@@UAEJUtagVARIANT@@PAPA_W@Z
	DD	FLAT:?get_accValue@CWnd@@UAEJUtagVARIANT@@PAPA_W@Z
	DD	FLAT:?get_accDescription@CWnd@@UAEJUtagVARIANT@@PAPA_W@Z
	DD	FLAT:?get_accRole@CWnd@@UAEJUtagVARIANT@@PAU2@@Z
	DD	FLAT:?get_accState@CWnd@@UAEJUtagVARIANT@@PAU2@@Z
	DD	FLAT:?get_accHelp@CWnd@@UAEJUtagVARIANT@@PAPA_W@Z
	DD	FLAT:?get_accHelpTopic@CWnd@@UAEJPAPA_WUtagVARIANT@@PAJ@Z
	DD	FLAT:?get_accKeyboardShortcut@CWnd@@UAEJUtagVARIANT@@PAPA_W@Z
	DD	FLAT:?get_accFocus@CWnd@@UAEJPAUtagVARIANT@@@Z
	DD	FLAT:?get_accSelection@CWnd@@UAEJPAUtagVARIANT@@@Z
	DD	FLAT:?get_accDefaultAction@CWnd@@UAEJUtagVARIANT@@PAPA_W@Z
	DD	FLAT:?accSelect@CWnd@@UAEJJUtagVARIANT@@@Z
	DD	FLAT:?accLocation@CWnd@@UAEJPAJ000UtagVARIANT@@@Z
	DD	FLAT:?accNavigate@CWnd@@UAEJJUtagVARIANT@@PAU2@@Z
	DD	FLAT:?accHitTest@CWnd@@UAEJJJPAUtagVARIANT@@@Z
	DD	FLAT:?accDoDefaultAction@CWnd@@UAEJUtagVARIANT@@@Z
	DD	FLAT:?put_accName@CWnd@@UAEJUtagVARIANT@@PA_W@Z
	DD	FLAT:?put_accValue@CWnd@@UAEJUtagVARIANT@@PA_W@Z
	DD	FLAT:?SetProxy@CWnd@@UAEJPAUIAccessibleProxy@@@Z
	DD	FLAT:?CreateAccessibleProxy@CWnd@@UAEJIJPAJ@Z
	DD	FLAT:?OnCommand@CWnd@@MAEHIJ@Z
	DD	FLAT:?OnNotify@CWnd@@MAEHIJPAJ@Z
	DD	FLAT:?GetSuperWndProcAddr@CWnd@@MAEPAP6GJPAUHWND__@@IIJ@ZXZ
	DD	FLAT:?DoDataExchange@CWnd@@MAEXPAVCDataExchange@@@Z
	DD	FLAT:?BeginModalState@CWnd@@UAEXXZ
	DD	FLAT:?EndModalState@CWnd@@UAEXXZ
	DD	FLAT:?PreTranslateMessage@CWnd@@UAEHPAUtagMSG@@@Z
	DD	FLAT:?OnAmbientProperty@CWnd@@UAEHPAVCOleControlSite@@JPAUtagVARIANT@@@Z
	DD	FLAT:?WindowProc@CWnd@@MAEJIIJ@Z
	DD	FLAT:?OnWndMsg@CWnd@@MAEHIIJPAJ@Z
	DD	FLAT:?DefWindowProcA@CWnd@@MAEJIIJ@Z
	DD	FLAT:?PostNcDestroy@CWnd@@MAEXXZ
	DD	FLAT:?OnChildNotify@CButton@@MAEHIIJPAJ@Z
	DD	FLAT:?OnTouchInputs@CWnd@@MAEHIPAUtagTOUCHINPUT@@@Z
	DD	FLAT:?OnTouchInput@CWnd@@MAEHVCPoint@@HHPAUtagTOUCHINPUT@@@Z
	DD	FLAT:?GetGestureStatus@CWnd@@MAEKVCPoint@@@Z
	DD	FLAT:?OnGestureZoom@CWnd@@MAEHVCPoint@@J@Z
	DD	FLAT:?OnGesturePan@CWnd@@MAEHVCPoint@@0@Z
	DD	FLAT:?OnGestureRotate@CWnd@@MAEHVCPoint@@N@Z
	DD	FLAT:?OnGestureTwoFingerTap@CWnd@@MAEHVCPoint@@@Z
	DD	FLAT:?OnGesturePressAndTap@CWnd@@MAEHVCPoint@@J@Z
	DD	FLAT:?ResizeDynamicLayout@CWnd@@MAEXXZ
	DD	FLAT:?CheckAutoCenter@CWnd@@UAEHXZ
	DD	FLAT:?IsFrameWnd@CWnd@@UBEHXZ
	DD	FLAT:?CreateControlContainer@CWnd@@MAEHPAPAVCOleControlContainer@@@Z
	DD	FLAT:?CreateControlSite@CWnd@@MAEHPAVCOleControlContainer@@PAPAVCOleControlSite@@IABU_GUID@@@Z
	DD	FLAT:?SetOccDialogInfo@CWnd@@MAEHPAU_AFX_OCC_DIALOG_INFO@@@Z
	DD	FLAT:?GetOccDialogInfo@CWnd@@MAEPAU_AFX_OCC_DIALOG_INFO@@XZ
	DD	FLAT:?Create@CButton@@UAEHPBDKABUtagRECT@@PAVCWnd@@I@Z
	DD	FLAT:?DrawItem@CButton@@UAEXPAUtagDRAWITEMSTRUCT@@@Z
CONST	ENDS
;	COMDAT ??_7CBitmap@@6B@
CONST	SEGMENT
??_7CBitmap@@6B@ DD FLAT:??_R4CBitmap@@6B@		; CBitmap::`vftable'
	DD	FLAT:?GetRuntimeClass@CBitmap@@UBEPAUCRuntimeClass@@XZ
	DD	FLAT:??_ECBitmap@@UAEPAXI@Z
	DD	FLAT:?Serialize@CObject@@UAEXAAVCArchive@@@Z
	DD	FLAT:?AssertValid@CObject@@UBEXXZ
	DD	FLAT:?Dump@CObject@@UBEXAAVCDumpContext@@@Z
CONST	ENDS
;	COMDAT ??_7CGdiObject@@6B@
CONST	SEGMENT
??_7CGdiObject@@6B@ DD FLAT:??_R4CGdiObject@@6B@	; CGdiObject::`vftable'
	DD	FLAT:?GetRuntimeClass@CGdiObject@@UBEPAUCRuntimeClass@@XZ
	DD	FLAT:??_ECGdiObject@@UAEPAXI@Z
	DD	FLAT:?Serialize@CObject@@UAEXAAVCArchive@@@Z
	DD	FLAT:?AssertValid@CObject@@UBEXXZ
	DD	FLAT:?Dump@CObject@@UBEXAAVCDumpContext@@@Z
CONST	ENDS
;	COMDAT ??_C@_02DPKJAMEF@?$CFd@
CONST	SEGMENT
??_C@_02DPKJAMEF@?$CFd@ DB '%d', 00H			; `string'
CONST	ENDS
;	COMDAT ??_R0PAVCException@@@8
data$r	SEGMENT
??_R0PAVCException@@@8 DD FLAT:??_7type_info@@6B@	; CException * `RTTI Type Descriptor'
	DD	00H
	DB	'.PAVCException@@', 00H
data$r	ENDS
;	COMDAT xdata$x
xdata$x	SEGMENT
__ehfuncinfo$??1CMultiLanguageResourceSetter@@QAE@XZ DD 019930522H
	DD	00H
	DD	00H
	DD	2 DUP(00H)
	DD	2 DUP(00H)
	DD	00H
	DD	05H
xdata$x	ENDS
;	COMDAT xdata$x
xdata$x	SEGMENT
__ehfuncinfo$?SaveData@CProperties_Figure@@AAEXXZ DD 019930522H
	DD	07H
	DD	FLAT:__unwindtable$?SaveData@CProperties_Figure@@AAEXXZ
	DD	2 DUP(00H)
	DD	2 DUP(00H)
	DD	00H
	DD	01H
__unwindtable$?SaveData@CProperties_Figure@@AAEXXZ DD 0ffffffffH
	DD	FLAT:__unwindfunclet$?SaveData@CProperties_Figure@@AAEXXZ$0
	DD	00H
	DD	FLAT:__unwindfunclet$?SaveData@CProperties_Figure@@AAEXXZ$1
	DD	01H
	DD	FLAT:__unwindfunclet$?SaveData@CProperties_Figure@@AAEXXZ$2
	DD	01H
	DD	FLAT:__unwindfunclet$?SaveData@CProperties_Figure@@AAEXXZ$3
	DD	03H
	DD	FLAT:__unwindfunclet$?SaveData@CProperties_Figure@@AAEXXZ$4
	DD	04H
	DD	FLAT:__unwindfunclet$?SaveData@CProperties_Figure@@AAEXXZ$5
	DD	05H
	DD	FLAT:__unwindfunclet$?SaveData@CProperties_Figure@@AAEXXZ$6
xdata$x	ENDS
;	COMDAT xdata$x
xdata$x	SEGMENT
__ehfuncinfo$?SetXDateTime@CProperties_Figure@@AAEXNH@Z DD 019930522H
	DD	011H
	DD	FLAT:__unwindtable$?SetXDateTime@CProperties_Figure@@AAEXNH@Z
	DD	2 DUP(00H)
	DD	2 DUP(00H)
	DD	00H
	DD	01H
__unwindtable$?SetXDateTime@CProperties_Figure@@AAEXNH@Z DD 0ffffffffH
	DD	FLAT:__unwindfunclet$?SetXDateTime@CProperties_Figure@@AAEXNH@Z$0
	DD	00H
	DD	FLAT:__unwindfunclet$?SetXDateTime@CProperties_Figure@@AAEXNH@Z$4
	DD	01H
	DD	FLAT:__unwindfunclet$?SetXDateTime@CProperties_Figure@@AAEXNH@Z$5
	DD	02H
	DD	FLAT:__unwindfunclet$?SetXDateTime@CProperties_Figure@@AAEXNH@Z$6
	DD	03H
	DD	FLAT:__unwindfunclet$?SetXDateTime@CProperties_Figure@@AAEXNH@Z$7
	DD	01H
	DD	FLAT:__unwindfunclet$?SetXDateTime@CProperties_Figure@@AAEXNH@Z$8
	DD	05H
	DD	FLAT:__unwindfunclet$?SetXDateTime@CProperties_Figure@@AAEXNH@Z$9
	DD	06H
	DD	FLAT:__unwindfunclet$?SetXDateTime@CProperties_Figure@@AAEXNH@Z$10
	DD	01H
	DD	FLAT:__unwindfunclet$?SetXDateTime@CProperties_Figure@@AAEXNH@Z$20
	DD	01H
	DD	FLAT:__unwindfunclet$?SetXDateTime@CProperties_Figure@@AAEXNH@Z$12
	DD	09H
	DD	FLAT:__unwindfunclet$?SetXDateTime@CProperties_Figure@@AAEXNH@Z$13
	DD	0aH
	DD	FLAT:__unwindfunclet$?SetXDateTime@CProperties_Figure@@AAEXNH@Z$14
	DD	0bH
	DD	FLAT:__unwindfunclet$?SetXDateTime@CProperties_Figure@@AAEXNH@Z$15
	DD	01H
	DD	FLAT:__unwindfunclet$?SetXDateTime@CProperties_Figure@@AAEXNH@Z$16
	DD	0dH
	DD	FLAT:__unwindfunclet$?SetXDateTime@CProperties_Figure@@AAEXNH@Z$17
	DD	0eH
	DD	FLAT:__unwindfunclet$?SetXDateTime@CProperties_Figure@@AAEXNH@Z$18
	DD	0fH
	DD	FLAT:__unwindfunclet$?SetXDateTime@CProperties_Figure@@AAEXNH@Z$19
xdata$x	ENDS
;	COMDAT xdata$x
xdata$x	SEGMENT
__unwindtable$?SetYValue@CProperties_Figure@@AAEXNH@Z DD 0ffffffffH
	DD	FLAT:__unwindfunclet$?SetYValue@CProperties_Figure@@AAEXNH@Z$0
__ehfuncinfo$?SetYValue@CProperties_Figure@@AAEXNH@Z DD 019930522H
	DD	01H
	DD	FLAT:__unwindtable$?SetYValue@CProperties_Figure@@AAEXNH@Z
	DD	2 DUP(00H)
	DD	2 DUP(00H)
	DD	00H
	DD	01H
xdata$x	ENDS
;	COMDAT xdata$x
xdata$x	SEGMENT
__unwindtable$?SetDateValueLists@CProperties_Figure@@AAEXXZ DD 0ffffffffH
	DD	FLAT:__unwindfunclet$?SetDateValueLists@CProperties_Figure@@AAEXXZ$0
	DD	00H
	DD	FLAT:__unwindfunclet$?SetDateValueLists@CProperties_Figure@@AAEXXZ$1
__ehfuncinfo$?SetDateValueLists@CProperties_Figure@@AAEXXZ DD 019930522H
	DD	02H
	DD	FLAT:__unwindtable$?SetDateValueLists@CProperties_Figure@@AAEXXZ
	DD	2 DUP(00H)
	DD	2 DUP(00H)
	DD	00H
	DD	01H
xdata$x	ENDS
;	COMDAT xdata$x
xdata$x	SEGMENT
__unwindtable$?InitializeData_Style@CProperties_Figure@@AAEXXZ DD 0ffffffffH
	DD	FLAT:__unwindfunclet$?InitializeData_Style@CProperties_Figure@@AAEXXZ$0
	DD	0ffffffffH
	DD	FLAT:___std_terminate
__ehfuncinfo$?InitializeData_Style@CProperties_Figure@@AAEXXZ DD 019930522H
	DD	02H
	DD	FLAT:__unwindtable$?InitializeData_Style@CProperties_Figure@@AAEXXZ
	DD	2 DUP(00H)
	DD	2 DUP(00H)
	DD	00H
	DD	01H
xdata$x	ENDS
;	COMDAT xdata$x
xdata$x	SEGMENT
__unwindtable$?InitializeData_Width@CProperties_Figure@@AAEXXZ DD 0ffffffffH
	DD	FLAT:__unwindfunclet$?InitializeData_Width@CProperties_Figure@@AAEXXZ$0
	DD	0ffffffffH
	DD	FLAT:___std_terminate
__ehfuncinfo$?InitializeData_Width@CProperties_Figure@@AAEXXZ DD 019930522H
	DD	02H
	DD	FLAT:__unwindtable$?InitializeData_Width@CProperties_Figure@@AAEXXZ
	DD	2 DUP(00H)
	DD	2 DUP(00H)
	DD	00H
	DD	01H
xdata$x	ENDS
;	COMDAT xdata$x
xdata$x	SEGMENT
__unwindtable$?OnDatetimechangeDatetimepickerXdate2@CProperties_Figure@@IAEXPAUtagNMHDR@@PAJ@Z DD 0ffffffffH
	DD	FLAT:__unwindfunclet$?OnDatetimechangeDatetimepickerXdate2@CProperties_Figure@@IAEXPAUtagNMHDR@@PAJ@Z$0
__ehfuncinfo$?OnDatetimechangeDatetimepickerXdate2@CProperties_Figure@@IAEXPAUtagNMHDR@@PAJ@Z DD 019930522H
	DD	01H
	DD	FLAT:__unwindtable$?OnDatetimechangeDatetimepickerXdate2@CProperties_Figure@@IAEXPAUtagNMHDR@@PAJ@Z
	DD	2 DUP(00H)
	DD	2 DUP(00H)
	DD	00H
	DD	01H
xdata$x	ENDS
;	COMDAT xdata$x
xdata$x	SEGMENT
__unwindtable$?OnDatetimechangeDatetimepickerXdate1@CProperties_Figure@@IAEXPAUtagNMHDR@@PAJ@Z DD 0ffffffffH
	DD	FLAT:__unwindfunclet$?OnDatetimechangeDatetimepickerXdate1@CProperties_Figure@@IAEXPAUtagNMHDR@@PAJ@Z$0
__ehfuncinfo$?OnDatetimechangeDatetimepickerXdate1@CProperties_Figure@@IAEXPAUtagNMHDR@@PAJ@Z DD 019930522H
	DD	01H
	DD	FLAT:__unwindtable$?OnDatetimechangeDatetimepickerXdate1@CProperties_Figure@@IAEXPAUtagNMHDR@@PAJ@Z
	DD	2 DUP(00H)
	DD	2 DUP(00H)
	DD	00H
	DD	01H
xdata$x	ENDS
;	COMDAT xdata$x
xdata$x	SEGMENT
__unwindtable$?OnSelchangeStyle@CProperties_Figure@@IAEXXZ DD 0ffffffffH
	DD	FLAT:__unwindfunclet$?OnSelchangeStyle@CProperties_Figure@@IAEXXZ$0
	DD	00H
	DD	FLAT:__unwindfunclet$?OnSelchangeStyle@CProperties_Figure@@IAEXXZ$1
	DD	0ffffffffH
	DD	FLAT:___std_terminate
__ehfuncinfo$?OnSelchangeStyle@CProperties_Figure@@IAEXXZ DD 019930522H
	DD	03H
	DD	FLAT:__unwindtable$?OnSelchangeStyle@CProperties_Figure@@IAEXXZ
	DD	2 DUP(00H)
	DD	2 DUP(00H)
	DD	00H
	DD	01H
xdata$x	ENDS
;	COMDAT xdata$x
xdata$x	SEGMENT
__unwindtable$?OnSelchangeWidth@CProperties_Figure@@IAEXXZ DD 0ffffffffH
	DD	FLAT:__unwindfunclet$?OnSelchangeWidth@CProperties_Figure@@IAEXXZ$0
	DD	00H
	DD	FLAT:__unwindfunclet$?OnSelchangeWidth@CProperties_Figure@@IAEXXZ$1
	DD	0ffffffffH
	DD	FLAT:___std_terminate
__ehfuncinfo$?OnSelchangeWidth@CProperties_Figure@@IAEXXZ DD 019930522H
	DD	03H
	DD	FLAT:__unwindtable$?OnSelchangeWidth@CProperties_Figure@@IAEXXZ
	DD	2 DUP(00H)
	DD	2 DUP(00H)
	DD	00H
	DD	01H
xdata$x	ENDS
;	COMDAT xdata$x
xdata$x	SEGMENT
__unwindtable$?OnColor@CProperties_Figure@@IAEXXZ DD 0ffffffffH
	DD	FLAT:__unwindfunclet$?OnColor@CProperties_Figure@@IAEXXZ$0
__ehfuncinfo$?OnColor@CProperties_Figure@@IAEXXZ DD 019930522H
	DD	01H
	DD	FLAT:__unwindtable$?OnColor@CProperties_Figure@@IAEXXZ
	DD	2 DUP(00H)
	DD	2 DUP(00H)
	DD	00H
	DD	01H
xdata$x	ENDS
;	COMDAT xdata$x
xdata$x	SEGMENT
__ehfuncinfo$?OnInitDialog@CProperties_Figure@@MAEHXZ DD 019930522H
	DD	05H
	DD	FLAT:__unwindtable$?OnInitDialog@CProperties_Figure@@MAEHXZ
	DD	2 DUP(00H)
	DD	2 DUP(00H)
	DD	00H
	DD	01H
__unwindtable$?OnInitDialog@CProperties_Figure@@MAEHXZ DD 0ffffffffH
	DD	FLAT:__unwindfunclet$?OnInitDialog@CProperties_Figure@@MAEHXZ$0
	DD	0ffffffffH
	DD	FLAT:___std_terminate
	DD	0ffffffffH
	DD	FLAT:__unwindfunclet$?OnInitDialog@CProperties_Figure@@MAEHXZ$2
	DD	0ffffffffH
	DD	FLAT:___std_terminate
	DD	0ffffffffH
	DD	FLAT:__unwindfunclet$?OnInitDialog@CProperties_Figure@@MAEHXZ$4
xdata$x	ENDS
;	COMDAT xdata$x
xdata$x	SEGMENT
__ehfuncinfo$??0CProperties_Figure@@QAE@PAUIChartManager133101@@ABVCBlockIndex@@ABV?$CStringT@DV?$StrTraitMFC_DLL@DV?$ChTraitsCRT@D@ATL@@@@@ATL@@PAVCPropertiesData_text@@ABW4TOOLTYPE@CSymbolBaseData@@2ABW4HORZSCALEDRAWERTYPE@CScaleBaseData@@ABVCCoordinate@@6PAVCWnd@@@Z DD 019930522H
	DD	0dH
	DD	FLAT:__unwindtable$??0CProperties_Figure@@QAE@PAUIChartManager133101@@ABVCBlockIndex@@ABV?$CStringT@DV?$StrTraitMFC_DLL@DV?$ChTraitsCRT@D@ATL@@@@@ATL@@PAVCPropertiesData_text@@ABW4TOOLTYPE@CSymbolBaseData@@2ABW4HORZSCALEDRAWERTYPE@CScaleBaseData@@ABVCCoordinate@@6PAVCWnd@@@Z
	DD	2 DUP(00H)
	DD	2 DUP(00H)
	DD	00H
	DD	01H
__unwindtable$??0CProperties_Figure@@QAE@PAUIChartManager133101@@ABVCBlockIndex@@ABV?$CStringT@DV?$StrTraitMFC_DLL@DV?$ChTraitsCRT@D@ATL@@@@@ATL@@PAVCPropertiesData_text@@ABW4TOOLTYPE@CSymbolBaseData@@2ABW4HORZSCALEDRAWERTYPE@CScaleBaseData@@ABVCCoordinate@@6PAVCWnd@@@Z DD 0ffffffffH
	DD	FLAT:__unwindfunclet$??0CProperties_Figure@@QAE@PAUIChartManager133101@@ABVCBlockIndex@@ABV?$CStringT@DV?$StrTraitMFC_DLL@DV?$ChTraitsCRT@D@ATL@@@@@ATL@@PAVCPropertiesData_text@@ABW4TOOLTYPE@CSymbolBaseData@@2ABW4HORZSCALEDRAWERTYPE@CScaleBaseData@@ABVCCoordinate@@6PAVCWnd@@@Z$0
	DD	00H
	DD	FLAT:__unwindfunclet$??0CProperties_Figure@@QAE@PAUIChartManager133101@@ABVCBlockIndex@@ABV?$CStringT@DV?$StrTraitMFC_DLL@DV?$ChTraitsCRT@D@ATL@@@@@ATL@@PAVCPropertiesData_text@@ABW4TOOLTYPE@CSymbolBaseData@@2ABW4HORZSCALEDRAWERTYPE@CScaleBaseData@@ABVCCoordinate@@6PAVCWnd@@@Z$1
	DD	01H
	DD	FLAT:__unwindfunclet$??0CProperties_Figure@@QAE@PAUIChartManager133101@@ABVCBlockIndex@@ABV?$CStringT@DV?$StrTraitMFC_DLL@DV?$ChTraitsCRT@D@ATL@@@@@ATL@@PAVCPropertiesData_text@@ABW4TOOLTYPE@CSymbolBaseData@@2ABW4HORZSCALEDRAWERTYPE@CScaleBaseData@@ABVCCoordinate@@6PAVCWnd@@@Z$2
	DD	02H
	DD	FLAT:__unwindfunclet$??0CProperties_Figure@@QAE@PAUIChartManager133101@@ABVCBlockIndex@@ABV?$CStringT@DV?$StrTraitMFC_DLL@DV?$ChTraitsCRT@D@ATL@@@@@ATL@@PAVCPropertiesData_text@@ABW4TOOLTYPE@CSymbolBaseData@@2ABW4HORZSCALEDRAWERTYPE@CScaleBaseData@@ABVCCoordinate@@6PAVCWnd@@@Z$3
	DD	03H
	DD	FLAT:__unwindfunclet$??0CProperties_Figure@@QAE@PAUIChartManager133101@@ABVCBlockIndex@@ABV?$CStringT@DV?$StrTraitMFC_DLL@DV?$ChTraitsCRT@D@ATL@@@@@ATL@@PAVCPropertiesData_text@@ABW4TOOLTYPE@CSymbolBaseData@@2ABW4HORZSCALEDRAWERTYPE@CScaleBaseData@@ABVCCoordinate@@6PAVCWnd@@@Z$4
	DD	04H
	DD	FLAT:__unwindfunclet$??0CProperties_Figure@@QAE@PAUIChartManager133101@@ABVCBlockIndex@@ABV?$CStringT@DV?$StrTraitMFC_DLL@DV?$ChTraitsCRT@D@ATL@@@@@ATL@@PAVCPropertiesData_text@@ABW4TOOLTYPE@CSymbolBaseData@@2ABW4HORZSCALEDRAWERTYPE@CScaleBaseData@@ABVCCoordinate@@6PAVCWnd@@@Z$5
	DD	05H
	DD	FLAT:__unwindfunclet$??0CProperties_Figure@@QAE@PAUIChartManager133101@@ABVCBlockIndex@@ABV?$CStringT@DV?$StrTraitMFC_DLL@DV?$ChTraitsCRT@D@ATL@@@@@ATL@@PAVCPropertiesData_text@@ABW4TOOLTYPE@CSymbolBaseData@@2ABW4HORZSCALEDRAWERTYPE@CScaleBaseData@@ABVCCoordinate@@6PAVCWnd@@@Z$6
	DD	06H
	DD	FLAT:__unwindfunclet$??0CProperties_Figure@@QAE@PAUIChartManager133101@@ABVCBlockIndex@@ABV?$CStringT@DV?$StrTraitMFC_DLL@DV?$ChTraitsCRT@D@ATL@@@@@ATL@@PAVCPropertiesData_text@@ABW4TOOLTYPE@CSymbolBaseData@@2ABW4HORZSCALEDRAWERTYPE@CScaleBaseData@@ABVCCoordinate@@6PAVCWnd@@@Z$7
	DD	07H
	DD	FLAT:__unwindfunclet$??0CProperties_Figure@@QAE@PAUIChartManager133101@@ABVCBlockIndex@@ABV?$CStringT@DV?$StrTraitMFC_DLL@DV?$ChTraitsCRT@D@ATL@@@@@ATL@@PAVCPropertiesData_text@@ABW4TOOLTYPE@CSymbolBaseData@@2ABW4HORZSCALEDRAWERTYPE@CScaleBaseData@@ABVCCoordinate@@6PAVCWnd@@@Z$8
	DD	08H
	DD	FLAT:__unwindfunclet$??0CProperties_Figure@@QAE@PAUIChartManager133101@@ABVCBlockIndex@@ABV?$CStringT@DV?$StrTraitMFC_DLL@DV?$ChTraitsCRT@D@ATL@@@@@ATL@@PAVCPropertiesData_text@@ABW4TOOLTYPE@CSymbolBaseData@@2ABW4HORZSCALEDRAWERTYPE@CScaleBaseData@@ABVCCoordinate@@6PAVCWnd@@@Z$9
	DD	09H
	DD	FLAT:__unwindfunclet$??0CProperties_Figure@@QAE@PAUIChartManager133101@@ABVCBlockIndex@@ABV?$CStringT@DV?$StrTraitMFC_DLL@DV?$ChTraitsCRT@D@ATL@@@@@ATL@@PAVCPropertiesData_text@@ABW4TOOLTYPE@CSymbolBaseData@@2ABW4HORZSCALEDRAWERTYPE@CScaleBaseData@@ABVCCoordinate@@6PAVCWnd@@@Z$10
	DD	0aH
	DD	FLAT:__unwindfunclet$??0CProperties_Figure@@QAE@PAUIChartManager133101@@ABVCBlockIndex@@ABV?$CStringT@DV?$StrTraitMFC_DLL@DV?$ChTraitsCRT@D@ATL@@@@@ATL@@PAVCPropertiesData_text@@ABW4TOOLTYPE@CSymbolBaseData@@2ABW4HORZSCALEDRAWERTYPE@CScaleBaseData@@ABVCCoordinate@@6PAVCWnd@@@Z$11
	DD	0bH
	DD	FLAT:__unwindfunclet$??0CProperties_Figure@@QAE@PAUIChartManager133101@@ABVCBlockIndex@@ABV?$CStringT@DV?$StrTraitMFC_DLL@DV?$ChTraitsCRT@D@ATL@@@@@ATL@@PAVCPropertiesData_text@@ABW4TOOLTYPE@CSymbolBaseData@@2ABW4HORZSCALEDRAWERTYPE@CScaleBaseData@@ABVCCoordinate@@6PAVCWnd@@@Z$12
xdata$x	ENDS
;	COMDAT xdata$x
xdata$x	SEGMENT
__catchsym$??1CGdiObject@@UAE@XZ$3 DD 00H
	DD	FLAT:??_R0PAVCException@@@8
	DD	0fffffde4H
	DD	FLAT:__catch$??1CGdiObject@@UAE@XZ$0
__tryblocktable$??1CGdiObject@@UAE@XZ DD 00H
	DD	00H
	DD	02H
	DD	01H
	DD	FLAT:__catchsym$??1CGdiObject@@UAE@XZ$3
__unwindtable$??1CGdiObject@@UAE@XZ DD 0ffffffffH
	DD	00H
	DD	0ffffffffH
	DD	00H
	DD	01H
	DD	FLAT:__unwindfunclet$??1CGdiObject@@UAE@XZ$2
__ehfuncinfo$??1CGdiObject@@UAE@XZ DD 019930522H
	DD	03H
	DD	FLAT:__unwindtable$??1CGdiObject@@UAE@XZ
	DD	01H
	DD	FLAT:__tryblocktable$??1CGdiObject@@UAE@XZ
	DD	2 DUP(00H)
	DD	00H
	DD	05H
xdata$x	ENDS
;	COMDAT xdata$x
xdata$x	SEGMENT
__unwindtable$??HATL@@YA?AV?$CStringT@DV?$StrTraitMFC_DLL@DV?$ChTraitsCRT@D@ATL@@@@@0@PBDABV10@@Z DD 0ffffffffH
	DD	FLAT:__unwindfunclet$??HATL@@YA?AV?$CStringT@DV?$StrTraitMFC_DLL@DV?$ChTraitsCRT@D@ATL@@@@@0@PBDABV10@@Z$0
__ehfuncinfo$??HATL@@YA?AV?$CStringT@DV?$StrTraitMFC_DLL@DV?$ChTraitsCRT@D@ATL@@@@@0@PBDABV10@@Z DD 019930522H
	DD	01H
	DD	FLAT:__unwindtable$??HATL@@YA?AV?$CStringT@DV?$StrTraitMFC_DLL@DV?$ChTraitsCRT@D@ATL@@@@@0@PBDABV10@@Z
	DD	2 DUP(00H)
	DD	2 DUP(00H)
	DD	00H
	DD	01H
xdata$x	ENDS
; Function compile flags: /Ogtp
; File D:\git\src\IBK\IBK_DRFN\ProjSrc\SrcChartEx\ChartAddIn\ChartAnalysisToolAddIn\Include_Chart\Dll_Load\IMetaTable.h
; File C:\Program Files (x86)\Microsoft Visual Studio\2019\Community\VC\Tools\MSVC\14.29.30133\atlmfc\include\afxwin1.inl
; File D:\git\src\IBK\IBK_DRFN\ProjSrc\SrcChartEx\ChartAddIn\ChartAnalysisToolAddIn\Include_Chart\Dll_Load\IMetaTable.h
;	COMDAT ??1CMultiLanguageResourceSetter@@QAE@XZ
_TEXT	SEGMENT
__$EHRec$ = -12						; size = 12
??1CMultiLanguageResourceSetter@@QAE@XZ PROC		; CMultiLanguageResourceSetter::~CMultiLanguageResourceSetter, COMDAT
; _this$ = ecx

; 1038 : 	{

  00000	55		 push	 ebp
  00001	8b ec		 mov	 ebp, esp
  00003	6a ff		 push	 -1
  00005	68 00 00 00 00	 push	 __ehhandler$??1CMultiLanguageResourceSetter@@QAE@XZ
  0000a	64 a1 00 00 00
	00		 mov	 eax, DWORD PTR fs:0
  00010	50		 push	 eax
  00011	56		 push	 esi
  00012	a1 00 00 00 00	 mov	 eax, DWORD PTR ___security_cookie
  00017	33 c5		 xor	 eax, ebp
  00019	50		 push	 eax
  0001a	8d 45 f4	 lea	 eax, DWORD PTR __$EHRec$[ebp]
  0001d	64 a3 00 00 00
	00		 mov	 DWORD PTR fs:0, eax

; 1039 : 		AfxSetResourceHandle( m_hInstance);

  00023	8b 31		 mov	 esi, DWORD PTR [ecx]
; File C:\Program Files (x86)\Microsoft Visual Studio\2019\Community\VC\Tools\MSVC\14.29.30133\atlmfc\include\afxwin1.inl

; 27   : 	{ ASSERT(hInstResource != NULL); afxCurrentResourceHandle = hInstResource; }

  00025	e8 00 00 00 00	 call	 ?AfxGetModuleState@@YGPAVAFX_MODULE_STATE@@XZ ; AfxGetModuleState
  0002a	89 70 0c	 mov	 DWORD PTR [eax+12], esi
; File D:\git\src\IBK\IBK_DRFN\ProjSrc\SrcChartEx\ChartAddIn\ChartAnalysisToolAddIn\Include_Chart\Dll_Load\IMetaTable.h

; 1040 : 	}

  0002d	8b 4d f4	 mov	 ecx, DWORD PTR __$EHRec$[ebp]
  00030	64 89 0d 00 00
	00 00		 mov	 DWORD PTR fs:0, ecx
  00037	59		 pop	 ecx
  00038	5e		 pop	 esi
  00039	8b e5		 mov	 esp, ebp
  0003b	5d		 pop	 ebp
  0003c	c3		 ret	 0
  0003d	cc		 int	 3
  0003e	cc		 int	 3
  0003f	cc		 int	 3
  00040	cc		 int	 3
  00041	cc		 int	 3
_TEXT	ENDS
;	COMDAT text$x
text$x	SEGMENT
__ehhandler$??1CMultiLanguageResourceSetter@@QAE@XZ:
  00000	90		 npad	 1
  00001	90		 npad	 1
  00002	8b 54 24 08	 mov	 edx, DWORD PTR [esp+8]
  00006	8d 42 0c	 lea	 eax, DWORD PTR [edx+12]
  00009	8b 4a f8	 mov	 ecx, DWORD PTR [edx-8]
  0000c	33 c8		 xor	 ecx, eax
  0000e	e8 00 00 00 00	 call	 @__security_check_cookie@4
  00013	b8 00 00 00 00	 mov	 eax, OFFSET __ehfuncinfo$??1CMultiLanguageResourceSetter@@QAE@XZ
  00018	e9 00 00 00 00	 jmp	 ___CxxFrameHandler3
text$x	ENDS
??1CMultiLanguageResourceSetter@@QAE@XZ ENDP		; CMultiLanguageResourceSetter::~CMultiLanguageResourceSetter
; Function compile flags: /Ogtp
; File D:\git\src\IBK\IBK_DRFN\ProjSrc\SrcChartEx\ChartAddIn\ChartAnalysisToolAddIn\Include_Chart\Dll_Load\IMetaTable.h
;	COMDAT ?LoadResourceDLL@IMetaTable@@QAEPAUHINSTANCE__@@PAUHWND__@@PAU2@@Z
_TEXT	SEGMENT
_p1$ = 8						; size = 4
_p2$ = 12						; size = 4
?LoadResourceDLL@IMetaTable@@QAEPAUHINSTANCE__@@PAUHWND__@@PAU2@@Z PROC ; IMetaTable::LoadResourceDLL, COMDAT
; _this$ = ecx

; 938  : 	DECLARE_FUNCTION2(	LoadResourceDLL,				HMODULE, AfxGetStaticModuleState()->m_hCurrentInstanceHandle, HWND, HMODULE);

  00000	55		 push	 ebp
  00001	8b ec		 mov	 ebp, esp
  00003	56		 push	 esi
  00004	8b f1		 mov	 esi, ecx
  00006	8b 46 04	 mov	 eax, DWORD PTR [esi+4]
  00009	85 c0		 test	 eax, eax
  0000b	74 4d		 je	 SHORT $LN4@LoadResour
  0000d	57		 push	 edi
  0000e	bf 80 0d 00 00	 mov	 edi, 3456		; 00000d80H
  00013	66 3b be 94 00
	00 00		 cmp	 di, WORD PTR [esi+148]
  0001a	74 23		 je	 SHORT $LN3@LoadResour
  0001c	68 00 00 00 00	 push	 OFFSET ??_C@_0BA@ENJOCHIO@LoadResourceDLL@
  00021	50		 push	 eax
  00022	c7 86 90 00 00
	00 00 00 00 00	 mov	 DWORD PTR [esi+144], 0
  0002c	ff 15 00 00 00
	00		 call	 DWORD PTR __imp__GetProcAddress@8
  00032	89 86 90 00 00
	00		 mov	 DWORD PTR [esi+144], eax
  00038	66 89 be 94 00
	00 00		 mov	 WORD PTR [esi+148], di
$LN3@LoadResour:
  0003f	8b 86 90 00 00
	00		 mov	 eax, DWORD PTR [esi+144]
  00045	5f		 pop	 edi
  00046	85 c0		 test	 eax, eax
  00048	74 10		 je	 SHORT $LN4@LoadResour
  0004a	ff 75 0c	 push	 DWORD PTR _p2$[ebp]
  0004d	ff 75 08	 push	 DWORD PTR _p1$[ebp]
  00050	ff d0		 call	 eax
  00052	83 c4 08	 add	 esp, 8
  00055	5e		 pop	 esi
  00056	5d		 pop	 ebp
  00057	c2 08 00	 ret	 8
$LN4@LoadResour:
  0005a	e8 00 00 00 00	 call	 ?AfxGetStaticModuleState@@YGPAVAFX_MODULE_STATE@@XZ ; AfxGetStaticModuleState
  0005f	5e		 pop	 esi
  00060	8b 40 08	 mov	 eax, DWORD PTR [eax+8]
  00063	5d		 pop	 ebp
  00064	c2 08 00	 ret	 8
?LoadResourceDLL@IMetaTable@@QAEPAUHINSTANCE__@@PAUHWND__@@PAU2@@Z ENDP ; IMetaTable::LoadResourceDLL
_TEXT	ENDS
; Function compile flags: /Ogtp
; File C:\Program Files (x86)\Microsoft Visual Studio\2019\Community\VC\Tools\MSVC\14.29.30133\atlmfc\include\afxwin1.inl
; File C:\Program Files (x86)\Microsoft Visual Studio\2019\Community\VC\Tools\MSVC\14.29.30133\atlmfc\include\afx.inl
;	COMDAT ??_GCProperties_Figure@@UAEPAXI@Z
_TEXT	SEGMENT
___flags$ = 8						; size = 4
??_GCProperties_Figure@@UAEPAXI@Z PROC			; CProperties_Figure::`scalar deleting destructor', COMDAT
; _this$ = ecx
  00000	55		 push	 ebp
  00001	8b ec		 mov	 ebp, esp
; File C:\Program Files (x86)\Microsoft Visual Studio\2019\Community\VC\Tools\MSVC\14.29.30133\atlmfc\include\afxwin1.inl

; 179  : 	{ }

  00003	56		 push	 esi
  00004	57		 push	 edi
  00005	8b f9		 mov	 edi, ecx
  00007	8d 8f 28 06 00
	00		 lea	 ecx, DWORD PTR [edi+1576]
  0000d	ff 15 00 00 00
	00		 call	 DWORD PTR __imp_??1?$CStringT@DV?$StrTraitMFC_DLL@DV?$ChTraitsCRT@D@ATL@@@@@ATL@@QAE@XZ
  00013	8d 8f e4 05 00
	00		 lea	 ecx, DWORD PTR [edi+1508]
  00019	ff 15 00 00 00
	00		 call	 DWORD PTR __imp_??1?$CStringT@DV?$StrTraitMFC_DLL@DV?$ChTraitsCRT@D@ATL@@@@@ATL@@QAE@XZ
  0001f	8d 8f 50 05 00
	00		 lea	 ecx, DWORD PTR [edi+1360]
  00025	e8 00 00 00 00	 call	 ??1CDateTimeCtrl@@UAE@XZ ; CDateTimeCtrl::~CDateTimeCtrl
  0002a	8d 8f d0 04 00
	00		 lea	 ecx, DWORD PTR [edi+1232]
  00030	e8 00 00 00 00	 call	 ??1CDateTimeCtrl@@UAE@XZ ; CDateTimeCtrl::~CDateTimeCtrl
  00035	8d 8f 50 04 00
	00		 lea	 ecx, DWORD PTR [edi+1104]
  0003b	e8 00 00 00 00	 call	 ??1CEdit@@UAE@XZ	; CEdit::~CEdit
  00040	8d 8f d0 03 00
	00		 lea	 ecx, DWORD PTR [edi+976]
  00046	e8 00 00 00 00	 call	 ??1CEdit@@UAE@XZ	; CEdit::~CEdit
  0004b	8d 8f 50 03 00
	00		 lea	 ecx, DWORD PTR [edi+848]
  00051	e8 00 00 00 00	 call	 ??1CEdit@@UAE@XZ	; CEdit::~CEdit
  00056	8d 8f d0 02 00
	00		 lea	 ecx, DWORD PTR [edi+720]
  0005c	e8 00 00 00 00	 call	 ??1CEdit@@UAE@XZ	; CEdit::~CEdit
  00061	8d 8f c4 02 00
	00		 lea	 ecx, DWORD PTR [edi+708]
  00067	c7 01 00 00 00
	00		 mov	 DWORD PTR [ecx], OFFSET ??_7CBitmap@@6B@
  0006d	e8 00 00 00 00	 call	 ??1CGdiObject@@UAE@XZ	; CGdiObject::~CGdiObject
  00072	8d 8f 40 02 00
	00		 lea	 ecx, DWORD PTR [edi+576]
  00078	e8 00 00 00 00	 call	 ??1CComboBox@@UAE@XZ	; CComboBox::~CComboBox
  0007d	8d 8f 34 02 00
	00		 lea	 ecx, DWORD PTR [edi+564]
  00083	c7 01 00 00 00
	00		 mov	 DWORD PTR [ecx], OFFSET ??_7CBitmap@@6B@
  00089	e8 00 00 00 00	 call	 ??1CGdiObject@@UAE@XZ	; CGdiObject::~CGdiObject
  0008e	8d 8f b0 01 00
	00		 lea	 ecx, DWORD PTR [edi+432]
  00094	e8 00 00 00 00	 call	 ??1CComboBox@@UAE@XZ	; CComboBox::~CComboBox
  00099	8d 8f 28 01 00
	00		 lea	 ecx, DWORD PTR [edi+296]
  0009f	e8 00 00 00 00	 call	 ??1CColorButton@@UAE@XZ	; CColorButton::~CColorButton
  000a4	8d 8f a8 00 00
	00		 lea	 ecx, DWORD PTR [edi+168]
  000aa	e8 00 00 00 00	 call	 ??1CButton@@UAE@XZ	; CButton::~CButton
  000af	8b cf		 mov	 ecx, edi
  000b1	e8 00 00 00 00	 call	 ??1CDialog@@UAE@XZ	; CDialog::~CDialog
  000b6	8b 45 08	 mov	 eax, DWORD PTR ___flags$[ebp]
  000b9	a8 01		 test	 al, 1
  000bb	74 23		 je	 SHORT $LN24@scalar
  000bd	a8 04		 test	 al, 4
  000bf	75 11		 jne	 SHORT $LN3@scalar
; File C:\Program Files (x86)\Microsoft Visual Studio\2019\Community\VC\Tools\MSVC\14.29.30133\atlmfc\include\afx.inl

; 112  : 	{ ::operator delete(p); }

  000c1	57		 push	 edi
  000c2	e8 00 00 00 00	 call	 ??3@YAXPAX@Z		; operator delete
  000c7	83 c4 04	 add	 esp, 4
  000ca	8b c7		 mov	 eax, edi
  000cc	5f		 pop	 edi
  000cd	5e		 pop	 esi
  000ce	5d		 pop	 ebp
  000cf	c2 04 00	 ret	 4
$LN3@scalar:
  000d2	68 30 06 00 00	 push	 1584			; 00000630H
  000d7	57		 push	 edi
  000d8	e8 00 00 00 00	 call	 ?__global_delete@@YAXPAXI@Z ; __global_delete
  000dd	83 c4 08	 add	 esp, 8
$LN24@scalar:
  000e0	8b c7		 mov	 eax, edi
  000e2	5f		 pop	 edi
  000e3	5e		 pop	 esi
  000e4	5d		 pop	 ebp
  000e5	c2 04 00	 ret	 4
??_GCProperties_Figure@@UAEPAXI@Z ENDP			; CProperties_Figure::`scalar deleting destructor'
_TEXT	ENDS
; Function compile flags: /Ogtp
; File D:\git\src\IBK\IBK_DRFN\ProjSrc\SrcChartEx\ChartAddIn\ChartAnalysisToolAddIn\Symbol\Properties_Figure.cpp
;	COMDAT ?GetEndCoord@CProperties_Figure@@QBE?AVCCoordinate@@XZ
_TEXT	SEGMENT
___$ReturnUdt$ = 8					; size = 4
?GetEndCoord@CProperties_Figure@@QBE?AVCCoordinate@@XZ PROC ; CProperties_Figure::GetEndCoord, COMDAT
; _this$ = ecx

; 420  : {

  00000	55		 push	 ebp
  00001	8b ec		 mov	 ebp, esp

; 421  : 	return m_coordEnd;

  00003	8b 45 08	 mov	 eax, DWORD PTR ___$ReturnUdt$[ebp]
  00006	0f 10 81 10 06
	00 00		 movups	 xmm0, XMMWORD PTR [ecx+1552]
  0000d	0f 11 00	 movups	 XMMWORD PTR [eax], xmm0
  00010	f3 0f 7e 81 20
	06 00 00	 movq	 xmm0, QWORD PTR [ecx+1568]
  00018	66 0f d6 40 10	 movq	 QWORD PTR [eax+16], xmm0

; 422  : }

  0001d	5d		 pop	 ebp
  0001e	c2 04 00	 ret	 4
?GetEndCoord@CProperties_Figure@@QBE?AVCCoordinate@@XZ ENDP ; CProperties_Figure::GetEndCoord
_TEXT	ENDS
; Function compile flags: /Ogtp
; File D:\git\src\IBK\IBK_DRFN\ProjSrc\SrcChartEx\ChartAddIn\ChartAnalysisToolAddIn\Symbol\Properties_Figure.cpp
;	COMDAT ?GetStartCoord@CProperties_Figure@@QBE?AVCCoordinate@@XZ
_TEXT	SEGMENT
___$ReturnUdt$ = 8					; size = 4
?GetStartCoord@CProperties_Figure@@QBE?AVCCoordinate@@XZ PROC ; CProperties_Figure::GetStartCoord, COMDAT
; _this$ = ecx

; 415  : {

  00000	55		 push	 ebp
  00001	8b ec		 mov	 ebp, esp

; 416  : 	return m_coordStart;

  00003	8b 45 08	 mov	 eax, DWORD PTR ___$ReturnUdt$[ebp]
  00006	0f 10 81 f8 05
	00 00		 movups	 xmm0, XMMWORD PTR [ecx+1528]
  0000d	0f 11 00	 movups	 XMMWORD PTR [eax], xmm0
  00010	f3 0f 7e 81 08
	06 00 00	 movq	 xmm0, QWORD PTR [ecx+1544]
  00018	66 0f d6 40 10	 movq	 QWORD PTR [eax+16], xmm0

; 417  : }

  0001d	5d		 pop	 ebp
  0001e	c2 04 00	 ret	 4
?GetStartCoord@CProperties_Figure@@QBE?AVCCoordinate@@XZ ENDP ; CProperties_Figure::GetStartCoord
_TEXT	ENDS
; Function compile flags: /Ogtp
; File D:\git\src\IBK\IBK_DRFN\ProjSrc\SrcChartEx\ChartAddIn\ChartAnalysisToolAddIn\Symbol\Properties_Figure.cpp
;	COMDAT ?SaveData@CProperties_Figure@@AAEXXZ
_TEXT	SEGMENT
_finder$ = -84						; size = 28
_file$2 = -56						; size = 20
_strName$ = -36						; size = 4
$T3 = -32						; size = 4
_strFileName$ = -28					; size = 4
_strSection$ = -24					; size = 4
_strKey$ = -20						; size = 4
_strData$ = -16						; size = 4
__$EHRec$ = -12						; size = 12
?SaveData@CProperties_Figure@@AAEXXZ PROC		; CProperties_Figure::SaveData, COMDAT
; _this$ = ecx

; 432  : {

  00000	55		 push	 ebp
  00001	8b ec		 mov	 ebp, esp
  00003	6a ff		 push	 -1
  00005	68 00 00 00 00	 push	 __ehhandler$?SaveData@CProperties_Figure@@AAEXXZ
  0000a	64 a1 00 00 00
	00		 mov	 eax, DWORD PTR fs:0
  00010	50		 push	 eax
  00011	83 ec 48	 sub	 esp, 72			; 00000048H
  00014	53		 push	 ebx
  00015	56		 push	 esi
  00016	57		 push	 edi
  00017	a1 00 00 00 00	 mov	 eax, DWORD PTR ___security_cookie
  0001c	33 c5		 xor	 eax, ebp
  0001e	50		 push	 eax
  0001f	8d 45 f4	 lea	 eax, DWORD PTR __$EHRec$[ebp]
  00022	64 a3 00 00 00
	00		 mov	 DWORD PTR fs:0, eax
  00028	8b f9		 mov	 edi, ecx

; 433  : 	UpdateData();

  0002a	6a 01		 push	 1
  0002c	e8 00 00 00 00	 call	 ?UpdateData@CWnd@@QAEHH@Z ; CWnd::UpdateData

; 434  : 	m_pProperties->SetStyle(m_nStyle);

  00031	8b 8f f0 05 00
	00		 mov	 ecx, DWORD PTR [edi+1520]
  00037	8d 87 d4 05 00
	00		 lea	 eax, DWORD PTR [edi+1492]
  0003d	50		 push	 eax
  0003e	e8 00 00 00 00	 call	 ?SetStyle@CPropertiesData_Figure@@QAEXABH@Z ; CPropertiesData_Figure::SetStyle

; 435  : 	m_pProperties->SetWeight(m_nWidth+1);

  00043	8b 87 d0 05 00
	00		 mov	 eax, DWORD PTR [edi+1488]
  00049	8b 8f f0 05 00
	00		 mov	 ecx, DWORD PTR [edi+1520]
  0004f	40		 inc	 eax
  00050	89 45 e0	 mov	 DWORD PTR $T3[ebp], eax
  00053	8d 45 e0	 lea	 eax, DWORD PTR $T3[ebp]
  00056	50		 push	 eax
  00057	e8 00 00 00 00	 call	 ?SetWeight@CPropertiesData_Figure@@QAEXABH@Z ; CPropertiesData_Figure::SetWeight

; 436  : 
; 437  : 	/////////////////////////////////////////////////////
; 438  : 	CString strFileName;

  0005c	8d 4d e4	 lea	 ecx, DWORD PTR _strFileName$[ebp]
  0005f	ff 15 00 00 00
	00		 call	 DWORD PTR __imp_??0?$CStringT@DV?$StrTraitMFC_DLL@DV?$ChTraitsCRT@D@ATL@@@@@ATL@@QAE@XZ

; 439  : 	strFileName.Format("%s%s",m_strUserPath,G_ANALYSIS_PROPERTY_INFO);

  00065	8b 1d 00 00 00
	00		 mov	 ebx, DWORD PTR __imp_?Format@?$CStringT@DV?$StrTraitMFC_DLL@DV?$ChTraitsCRT@D@ATL@@@@@ATL@@QAAXPBDZZ
  0006b	8d 45 e4	 lea	 eax, DWORD PTR _strFileName$[ebp]
  0006e	68 00 00 00 00	 push	 OFFSET ??_C@_0BF@BMLEKMON@AnalysisPropInfo?4ans@
  00073	ff b7 28 06 00
	00		 push	 DWORD PTR [edi+1576]
  00079	c7 45 fc 00 00
	00 00		 mov	 DWORD PTR __$EHRec$[ebp+8], 0
  00080	68 00 00 00 00	 push	 OFFSET ??_C@_04HDOCAJNK@?$CFs?$CFs@
  00085	50		 push	 eax
  00086	ff d3		 call	 ebx
  00088	83 c4 10	 add	 esp, 16			; 00000010H

; 440  : 	CFileFind finder;

  0008b	8d 4d ac	 lea	 ecx, DWORD PTR _finder$[ebp]
  0008e	e8 00 00 00 00	 call	 ??0CFileFind@@QAE@XZ	; CFileFind::CFileFind

; 441  : 	BOOL bFind = finder.FindFile(strFileName);

  00093	6a 00		 push	 0
  00095	ff 75 e4	 push	 DWORD PTR _strFileName$[ebp]
  00098	8d 4d ac	 lea	 ecx, DWORD PTR _finder$[ebp]
  0009b	c6 45 fc 01	 mov	 BYTE PTR __$EHRec$[ebp+8], 1
  0009f	e8 00 00 00 00	 call	 ?FindFile@CFileFind@@UAEHPBDK@Z ; CFileFind::FindFile

; 442  : 	finder.Close();

  000a4	8d 4d ac	 lea	 ecx, DWORD PTR _finder$[ebp]
  000a7	8b f0		 mov	 esi, eax
  000a9	e8 00 00 00 00	 call	 ?Close@CFileFind@@QAEXXZ ; CFileFind::Close

; 443  : 	
; 444  : 	if(bFind != TRUE)

  000ae	83 fe 01	 cmp	 esi, 1
  000b1	74 3c		 je	 SHORT $LN2@SaveData

; 445  : 	{		
; 446  : 		CFile file;

  000b3	8d 4d c8	 lea	 ecx, DWORD PTR _file$2[ebp]
  000b6	e8 00 00 00 00	 call	 ??0CFile@@QAE@XZ	; CFile::CFile

; 447  : 		if(file.Open(strFileName,CFile::modeCreate|CFile::modeReadWrite) == FALSE)

  000bb	6a 00		 push	 0
  000bd	68 02 10 00 00	 push	 4098			; 00001002H
  000c2	ff 75 e4	 push	 DWORD PTR _strFileName$[ebp]
  000c5	8d 4d c8	 lea	 ecx, DWORD PTR _file$2[ebp]
  000c8	c6 45 fc 02	 mov	 BYTE PTR __$EHRec$[ebp+8], 2
  000cc	e8 00 00 00 00	 call	 ?Open@CFile@@UAEHPBDIPAVCFileException@@@Z ; CFile::Open
  000d1	8d 4d c8	 lea	 ecx, DWORD PTR _file$2[ebp]
  000d4	85 c0		 test	 eax, eax
  000d6	75 0a		 jne	 SHORT $LN3@SaveData

; 448  : 		{
; 449  : 			return;	

  000d8	e8 00 00 00 00	 call	 ??1CFile@@UAE@XZ	; CFile::~CFile
  000dd	e9 67 01 00 00	 jmp	 $LN17@SaveData
$LN3@SaveData:

; 450  : 		}
; 451  : 		file.Close();

  000e2	e8 00 00 00 00	 call	 ?Close@CFile@@UAEXXZ	; CFile::Close

; 452  : 	}

  000e7	8d 4d c8	 lea	 ecx, DWORD PTR _file$2[ebp]
  000ea	e8 00 00 00 00	 call	 ??1CFile@@UAE@XZ	; CFile::~CFile
$LN2@SaveData:

; 453  : 
; 454  : 	CString strSection,strKey,strData,strName;	

  000ef	8d 4d e8	 lea	 ecx, DWORD PTR _strSection$[ebp]
  000f2	ff 15 00 00 00
	00		 call	 DWORD PTR __imp_??0?$CStringT@DV?$StrTraitMFC_DLL@DV?$ChTraitsCRT@D@ATL@@@@@ATL@@QAE@XZ
  000f8	8d 4d ec	 lea	 ecx, DWORD PTR _strKey$[ebp]
  000fb	ff 15 00 00 00
	00		 call	 DWORD PTR __imp_??0?$CStringT@DV?$StrTraitMFC_DLL@DV?$ChTraitsCRT@D@ATL@@@@@ATL@@QAE@XZ
  00101	8d 4d f0	 lea	 ecx, DWORD PTR _strData$[ebp]
  00104	ff 15 00 00 00
	00		 call	 DWORD PTR __imp_??0?$CStringT@DV?$StrTraitMFC_DLL@DV?$ChTraitsCRT@D@ATL@@@@@ATL@@QAE@XZ
  0010a	8d 4d dc	 lea	 ecx, DWORD PTR _strName$[ebp]
  0010d	ff 15 00 00 00
	00		 call	 DWORD PTR __imp_??0?$CStringT@DV?$StrTraitMFC_DLL@DV?$ChTraitsCRT@D@ATL@@@@@ATL@@QAE@XZ

; 455  : 	if(m_nElementType == CSymbolBaseData::SYMBOL_SQUARE)

  00113	8b 87 e8 05 00
	00		 mov	 eax, DWORD PTR [edi+1512]
  00119	c6 45 fc 06	 mov	 BYTE PTR __$EHRec$[ebp+8], 6
  0011d	83 f8 01	 cmp	 eax, 1
  00120	75 04		 jne	 SHORT $LN4@SaveData

; 456  : 	{
; 457  : 		strSection.Format("%d",101);

  00122	6a 65		 push	 101			; 00000065H

; 458  : 	}

  00124	eb 10		 jmp	 SHORT $LN55@SaveData
$LN4@SaveData:

; 459  : 	else if(m_nElementType == CSymbolBaseData::SYMBOL_CIRCLE)

  00126	83 f8 02	 cmp	 eax, 2
  00129	75 04		 jne	 SHORT $LN6@SaveData

; 460  : 	{
; 461  : 		strSection.Format("%d",102);

  0012b	6a 66		 push	 102			; 00000066H

; 462  : 	}

  0012d	eb 07		 jmp	 SHORT $LN55@SaveData
$LN6@SaveData:

; 463  : 	else if(m_nElementType == CSymbolBaseData::SYMBOL_TRIANGLE)

  0012f	83 f8 03	 cmp	 eax, 3
  00132	75 10		 jne	 SHORT $LN8@SaveData

; 464  : 	{
; 465  : 		strSection.Format("%d",103);

  00134	6a 67		 push	 103			; 00000067H
$LN55@SaveData:

; 466  : 	}	
; 467  : 		
; 468  : 	strKey = _T("LineColor");

  00136	8d 45 e8	 lea	 eax, DWORD PTR _strSection$[ebp]
  00139	68 00 00 00 00	 push	 OFFSET ??_C@_02DPKJAMEF@?$CFd@
  0013e	50		 push	 eax
  0013f	ff d3		 call	 ebx
  00141	83 c4 0c	 add	 esp, 12			; 0000000cH
$LN8@SaveData:
  00144	68 00 00 00 00	 push	 OFFSET ??_C@_09MJAANBBP@LineColor@
  00149	8d 4d ec	 lea	 ecx, DWORD PTR _strKey$[ebp]
  0014c	ff 15 00 00 00
	00		 call	 DWORD PTR __imp_??4?$CStringT@DV?$StrTraitMFC_DLL@DV?$ChTraitsCRT@D@ATL@@@@@ATL@@QAEAAV01@PBD@Z

; 469  : 	strData.Format(_T("%ld"),m_pProperties->GetColor());		

  00152	8b 8f f0 05 00
	00		 mov	 ecx, DWORD PTR [edi+1520]
  00158	e8 00 00 00 00	 call	 ?GetColor@CPropertiesData_Figure@@QAEKXZ ; CPropertiesData_Figure::GetColor
  0015d	50		 push	 eax
  0015e	8d 45 f0	 lea	 eax, DWORD PTR _strData$[ebp]
  00161	68 00 00 00 00	 push	 OFFSET ??_C@_03JALODAI@?$CFld@
  00166	50		 push	 eax
  00167	ff d3		 call	 ebx

; 470  : 	WritePrivateProfileString(strSection,strKey,strData,strFileName);

  00169	8b 35 00 00 00
	00		 mov	 esi, DWORD PTR __imp__WritePrivateProfileStringA@16
  0016f	83 c4 0c	 add	 esp, 12			; 0000000cH
  00172	ff 75 e4	 push	 DWORD PTR _strFileName$[ebp]
  00175	ff 75 f0	 push	 DWORD PTR _strData$[ebp]
  00178	ff 75 ec	 push	 DWORD PTR _strKey$[ebp]
  0017b	ff 75 e8	 push	 DWORD PTR _strSection$[ebp]
  0017e	ff d6		 call	 esi

; 471  : 
; 472  : 	strKey = _T("LineStyle");

  00180	68 00 00 00 00	 push	 OFFSET ??_C@_09LNOEOIHF@LineStyle@
  00185	8d 4d ec	 lea	 ecx, DWORD PTR _strKey$[ebp]
  00188	ff 15 00 00 00
	00		 call	 DWORD PTR __imp_??4?$CStringT@DV?$StrTraitMFC_DLL@DV?$ChTraitsCRT@D@ATL@@@@@ATL@@QAEAAV01@PBD@Z

; 473  : 	strData.Format(_T("%d"),m_pProperties->GetStyle());		

  0018e	8b 8f f0 05 00
	00		 mov	 ecx, DWORD PTR [edi+1520]
  00194	e8 00 00 00 00	 call	 ?GetStyle@CPropertiesData_Figure@@QAEHXZ ; CPropertiesData_Figure::GetStyle
  00199	50		 push	 eax
  0019a	8d 45 f0	 lea	 eax, DWORD PTR _strData$[ebp]
  0019d	68 00 00 00 00	 push	 OFFSET ??_C@_02DPKJAMEF@?$CFd@
  001a2	50		 push	 eax
  001a3	ff d3		 call	 ebx
  001a5	83 c4 0c	 add	 esp, 12			; 0000000cH

; 474  : 	WritePrivateProfileString(strSection,strKey,strData,strFileName);

  001a8	ff 75 e4	 push	 DWORD PTR _strFileName$[ebp]
  001ab	ff 75 f0	 push	 DWORD PTR _strData$[ebp]
  001ae	ff 75 ec	 push	 DWORD PTR _strKey$[ebp]
  001b1	ff 75 e8	 push	 DWORD PTR _strSection$[ebp]
  001b4	ff d6		 call	 esi

; 475  : 
; 476  : 	strKey = _T("LineWeight");

  001b6	68 00 00 00 00	 push	 OFFSET ??_C@_0L@OIHNKLFE@LineWeight@
  001bb	8d 4d ec	 lea	 ecx, DWORD PTR _strKey$[ebp]
  001be	ff 15 00 00 00
	00		 call	 DWORD PTR __imp_??4?$CStringT@DV?$StrTraitMFC_DLL@DV?$ChTraitsCRT@D@ATL@@@@@ATL@@QAEAAV01@PBD@Z

; 477  : 	strData.Format(_T("%d"),m_pProperties->GetWeight());		

  001c4	8b 8f f0 05 00
	00		 mov	 ecx, DWORD PTR [edi+1520]
  001ca	e8 00 00 00 00	 call	 ?GetWeight@CPropertiesData_Figure@@QAEHXZ ; CPropertiesData_Figure::GetWeight
  001cf	50		 push	 eax
  001d0	8d 45 f0	 lea	 eax, DWORD PTR _strData$[ebp]
  001d3	68 00 00 00 00	 push	 OFFSET ??_C@_02DPKJAMEF@?$CFd@
  001d8	50		 push	 eax
  001d9	ff d3		 call	 ebx
  001db	83 c4 0c	 add	 esp, 12			; 0000000cH

; 478  : 	WritePrivateProfileString(strSection,strKey,strData,strFileName);

  001de	ff 75 e4	 push	 DWORD PTR _strFileName$[ebp]
  001e1	ff 75 f0	 push	 DWORD PTR _strData$[ebp]
  001e4	ff 75 ec	 push	 DWORD PTR _strKey$[ebp]
  001e7	ff 75 e8	 push	 DWORD PTR _strSection$[ebp]
  001ea	ff d6		 call	 esi

; 479  : 
; 480  : 	strKey = _T("FillRegion");

  001ec	68 00 00 00 00	 push	 OFFSET ??_C@_0L@IDNOMKNG@FillRegion@
  001f1	8d 4d ec	 lea	 ecx, DWORD PTR _strKey$[ebp]
  001f4	ff 15 00 00 00
	00		 call	 DWORD PTR __imp_??4?$CStringT@DV?$StrTraitMFC_DLL@DV?$ChTraitsCRT@D@ATL@@@@@ATL@@QAEAAV01@PBD@Z

; 481  : 	strData.Format(_T("%d"),m_pProperties->GetFillState());		

  001fa	8b 8f f0 05 00
	00		 mov	 ecx, DWORD PTR [edi+1520]
  00200	e8 00 00 00 00	 call	 ?GetFillState@CPropertiesData_Figure@@QAE_NXZ ; CPropertiesData_Figure::GetFillState
  00205	0f b6 c0	 movzx	 eax, al
  00208	50		 push	 eax
  00209	8d 45 f0	 lea	 eax, DWORD PTR _strData$[ebp]
  0020c	68 00 00 00 00	 push	 OFFSET ??_C@_02DPKJAMEF@?$CFd@
  00211	50		 push	 eax
  00212	ff d3		 call	 ebx
  00214	83 c4 0c	 add	 esp, 12			; 0000000cH

; 482  : 	WritePrivateProfileString(strSection,strKey,strData,strFileName);

  00217	ff 75 e4	 push	 DWORD PTR _strFileName$[ebp]
  0021a	ff 75 f0	 push	 DWORD PTR _strData$[ebp]
  0021d	ff 75 ec	 push	 DWORD PTR _strKey$[ebp]
  00220	ff 75 e8	 push	 DWORD PTR _strSection$[ebp]
  00223	ff d6		 call	 esi

; 483  : }

  00225	8d 4d dc	 lea	 ecx, DWORD PTR _strName$[ebp]
  00228	ff 15 00 00 00
	00		 call	 DWORD PTR __imp_??1?$CStringT@DV?$StrTraitMFC_DLL@DV?$ChTraitsCRT@D@ATL@@@@@ATL@@QAE@XZ
  0022e	8d 4d f0	 lea	 ecx, DWORD PTR _strData$[ebp]
  00231	ff 15 00 00 00
	00		 call	 DWORD PTR __imp_??1?$CStringT@DV?$StrTraitMFC_DLL@DV?$ChTraitsCRT@D@ATL@@@@@ATL@@QAE@XZ
  00237	8d 4d ec	 lea	 ecx, DWORD PTR _strKey$[ebp]
  0023a	ff 15 00 00 00
	00		 call	 DWORD PTR __imp_??1?$CStringT@DV?$StrTraitMFC_DLL@DV?$ChTraitsCRT@D@ATL@@@@@ATL@@QAE@XZ
  00240	8d 4d e8	 lea	 ecx, DWORD PTR _strSection$[ebp]
  00243	ff 15 00 00 00
	00		 call	 DWORD PTR __imp_??1?$CStringT@DV?$StrTraitMFC_DLL@DV?$ChTraitsCRT@D@ATL@@@@@ATL@@QAE@XZ
$LN17@SaveData:
  00249	8d 4d ac	 lea	 ecx, DWORD PTR _finder$[ebp]
  0024c	e8 00 00 00 00	 call	 ??1CFileFind@@UAE@XZ	; CFileFind::~CFileFind
  00251	8d 4d e4	 lea	 ecx, DWORD PTR _strFileName$[ebp]
  00254	ff 15 00 00 00
	00		 call	 DWORD PTR __imp_??1?$CStringT@DV?$StrTraitMFC_DLL@DV?$ChTraitsCRT@D@ATL@@@@@ATL@@QAE@XZ
  0025a	8b 4d f4	 mov	 ecx, DWORD PTR __$EHRec$[ebp]
  0025d	64 89 0d 00 00
	00 00		 mov	 DWORD PTR fs:0, ecx
  00264	59		 pop	 ecx
  00265	5f		 pop	 edi
  00266	5e		 pop	 esi
  00267	5b		 pop	 ebx
  00268	8b e5		 mov	 esp, ebp
  0026a	5d		 pop	 ebp
  0026b	c3		 ret	 0
_TEXT	ENDS
;	COMDAT text$x
text$x	SEGMENT
__unwindfunclet$?SaveData@CProperties_Figure@@AAEXXZ$0:
  00000	8d 4d e4	 lea	 ecx, DWORD PTR _strFileName$[ebp]
  00003	ff 25 00 00 00
	00		 jmp	 DWORD PTR __imp_??1?$CStringT@DV?$StrTraitMFC_DLL@DV?$ChTraitsCRT@D@ATL@@@@@ATL@@QAE@XZ
__unwindfunclet$?SaveData@CProperties_Figure@@AAEXXZ$1:
  00009	8d 4d ac	 lea	 ecx, DWORD PTR _finder$[ebp]
  0000c	e9 00 00 00 00	 jmp	 ??1CFileFind@@UAE@XZ	; CFileFind::~CFileFind
__unwindfunclet$?SaveData@CProperties_Figure@@AAEXXZ$2:
  00011	8d 4d c8	 lea	 ecx, DWORD PTR _file$2[ebp]
  00014	e9 00 00 00 00	 jmp	 ??1CFile@@UAE@XZ	; CFile::~CFile
__unwindfunclet$?SaveData@CProperties_Figure@@AAEXXZ$3:
  00019	8d 4d e8	 lea	 ecx, DWORD PTR _strSection$[ebp]
  0001c	ff 25 00 00 00
	00		 jmp	 DWORD PTR __imp_??1?$CStringT@DV?$StrTraitMFC_DLL@DV?$ChTraitsCRT@D@ATL@@@@@ATL@@QAE@XZ
__unwindfunclet$?SaveData@CProperties_Figure@@AAEXXZ$4:
  00022	8d 4d ec	 lea	 ecx, DWORD PTR _strKey$[ebp]
  00025	ff 25 00 00 00
	00		 jmp	 DWORD PTR __imp_??1?$CStringT@DV?$StrTraitMFC_DLL@DV?$ChTraitsCRT@D@ATL@@@@@ATL@@QAE@XZ
__unwindfunclet$?SaveData@CProperties_Figure@@AAEXXZ$5:
  0002b	8d 4d f0	 lea	 ecx, DWORD PTR _strData$[ebp]
  0002e	ff 25 00 00 00
	00		 jmp	 DWORD PTR __imp_??1?$CStringT@DV?$StrTraitMFC_DLL@DV?$ChTraitsCRT@D@ATL@@@@@ATL@@QAE@XZ
__unwindfunclet$?SaveData@CProperties_Figure@@AAEXXZ$6:
  00034	8d 4d dc	 lea	 ecx, DWORD PTR _strName$[ebp]
  00037	ff 25 00 00 00
	00		 jmp	 DWORD PTR __imp_??1?$CStringT@DV?$StrTraitMFC_DLL@DV?$ChTraitsCRT@D@ATL@@@@@ATL@@QAE@XZ
  0003d	cc		 int	 3
  0003e	cc		 int	 3
  0003f	cc		 int	 3
  00040	cc		 int	 3
  00041	cc		 int	 3
__ehhandler$?SaveData@CProperties_Figure@@AAEXXZ:
  00042	90		 npad	 1
  00043	90		 npad	 1
  00044	8b 54 24 08	 mov	 edx, DWORD PTR [esp+8]
  00048	8d 42 0c	 lea	 eax, DWORD PTR [edx+12]
  0004b	8b 4a a8	 mov	 ecx, DWORD PTR [edx-88]
  0004e	33 c8		 xor	 ecx, eax
  00050	e8 00 00 00 00	 call	 @__security_check_cookie@4
  00055	b8 00 00 00 00	 mov	 eax, OFFSET __ehfuncinfo$?SaveData@CProperties_Figure@@AAEXXZ
  0005a	e9 00 00 00 00	 jmp	 ___CxxFrameHandler3
text$x	ENDS
?SaveData@CProperties_Figure@@AAEXXZ ENDP		; CProperties_Figure::SaveData
; Function compile flags: /Ogtp
; File D:\git\src\IBK\IBK_DRFN\ProjSrc\SrcChartEx\ChartAddIn\ChartAnalysisToolAddIn\Symbol\Properties_Figure.cpp
; File C:\Program Files (x86)\Microsoft Visual Studio\2019\Community\VC\Tools\MSVC\14.29.30133\atlmfc\include\atlsimpstr.h
; File D:\git\src\IBK\IBK_DRFN\ProjSrc\SrcChartEx\ChartAddIn\ChartAnalysisToolAddIn\Symbol\Properties_Figure.cpp
; File C:\Program Files (x86)\Microsoft Visual Studio\2019\Community\VC\Tools\MSVC\14.29.30133\atlmfc\include\atlsimpstr.h
; File D:\git\src\IBK\IBK_DRFN\ProjSrc\SrcChartEx\ChartAddIn\ChartAnalysisToolAddIn\Symbol\Properties_Figure.cpp
; File C:\Program Files (x86)\Microsoft Visual Studio\2019\Community\VC\Tools\MSVC\14.29.30133\atlmfc\include\cstringt.h
; File D:\git\src\IBK\IBK_DRFN\ProjSrc\SrcChartEx\ChartAddIn\ChartAnalysisToolAddIn\Symbol\Properties_Figure.cpp
; File C:\Program Files (x86)\Microsoft Visual Studio\2019\Community\VC\Tools\MSVC\14.29.30133\atlmfc\include\cstringt.h
; File C:\Program Files (x86)\Microsoft Visual Studio\2019\Community\VC\Tools\MSVC\14.29.30133\atlmfc\include\atlsimpstr.h
; File C:\Program Files (x86)\Microsoft Visual Studio\2019\Community\VC\Tools\MSVC\14.29.30133\atlmfc\include\cstringt.h
; File D:\git\src\IBK\IBK_DRFN\ProjSrc\SrcChartEx\ChartAddIn\ChartAnalysisToolAddIn\Symbol\Properties_Figure.cpp
; File C:\Program Files (x86)\Microsoft Visual Studio\2019\Community\VC\Tools\MSVC\14.29.30133\atlmfc\include\atltime.h
; File D:\git\src\IBK\IBK_DRFN\ProjSrc\SrcChartEx\ChartAddIn\ChartAnalysisToolAddIn\Symbol\Properties_Figure.cpp
; File C:\Program Files (x86)\Microsoft Visual Studio\2019\Community\VC\Tools\MSVC\14.29.30133\atlmfc\include\atltime.h
; File D:\git\src\IBK\IBK_DRFN\ProjSrc\SrcChartEx\ChartAddIn\ChartAnalysisToolAddIn\Symbol\Properties_Figure.cpp
; File C:\Program Files (x86)\Microsoft Visual Studio\2019\Community\VC\Tools\MSVC\14.29.30133\atlmfc\include\atltime.h
; File D:\git\src\IBK\IBK_DRFN\ProjSrc\SrcChartEx\ChartAddIn\ChartAnalysisToolAddIn\Symbol\Properties_Figure.cpp
;	COMDAT ?SetXDateTime@CProperties_Figure@@AAEXNH@Z
_TEXT	SEGMENT
_stime$2 = -84						; size = 8
_this$GSCopy$1$ = -80					; size = 4
$T3 = -80						; size = 4
$T4 = -80						; size = 4
_nYear$1$ = -76						; size = 4
$T5 = -76						; size = 4
$T6 = -76						; size = 4
_strFormat$7 = -72					; size = 4
$T8 = -68						; size = 4
$T9 = -68						; size = 4
$T10 = -68						; size = 4
$T11 = -68						; size = 4
$T12 = -68						; size = 4
_nMonth$1$ = -64					; size = 4
$T13 = -64						; size = 4
$T14 = -64						; size = 4
$T15 = -64						; size = 4
$T16 = -64						; size = 4
$T17 = -64						; size = 4
$T18 = -60						; size = 4
$T19 = -60						; size = 4
$T20 = -60						; size = 4
$T21 = -60						; size = 4
$T22 = -60						; size = 4
_strXValue$ = -56					; size = 4
_atm$23 = -52						; size = 36
__$ArrayPad$ = -16					; size = 4
__$EHRec$ = -12						; size = 12
_dXDateTime$ = 8					; size = 8
_nIndex$ = 16						; size = 4
?SetXDateTime@CProperties_Figure@@AAEXNH@Z PROC		; CProperties_Figure::SetXDateTime, COMDAT
; _this$ = ecx

; 208  : {

  00000	55		 push	 ebp
  00001	8b ec		 mov	 ebp, esp
  00003	6a ff		 push	 -1
  00005	68 00 00 00 00	 push	 __ehhandler$?SetXDateTime@CProperties_Figure@@AAEXNH@Z
  0000a	64 a1 00 00 00
	00		 mov	 eax, DWORD PTR fs:0
  00010	50		 push	 eax
  00011	83 ec 48	 sub	 esp, 72			; 00000048H
  00014	a1 00 00 00 00	 mov	 eax, DWORD PTR ___security_cookie
  00019	33 c5		 xor	 eax, ebp
  0001b	89 45 f0	 mov	 DWORD PTR __$ArrayPad$[ebp], eax
  0001e	53		 push	 ebx
  0001f	56		 push	 esi
  00020	57		 push	 edi
  00021	50		 push	 eax
  00022	8d 45 f4	 lea	 eax, DWORD PTR __$EHRec$[ebp]
  00025	64 a3 00 00 00
	00		 mov	 DWORD PTR fs:0, eax
  0002b	8b d9		 mov	 ebx, ecx
  0002d	89 5d b0	 mov	 DWORD PTR _this$GSCopy$1$[ebp], ebx

; 209  : 	CString strXValue;

  00030	8d 4d c8	 lea	 ecx, DWORD PTR _strXValue$[ebp]
  00033	c7 45 c0 00 00
	00 00		 mov	 DWORD PTR $T13[ebp], 0
  0003a	ff 15 00 00 00
	00		 call	 DWORD PTR __imp_??0?$CStringT@DV?$StrTraitMFC_DLL@DV?$ChTraitsCRT@D@ATL@@@@@ATL@@QAE@XZ

; 210  : 	strXValue.Format(_T("%.f"),dXDateTime);	

  00040	f2 0f 10 45 08	 movsd	 xmm0, QWORD PTR _dXDateTime$[ebp]
  00045	8d 45 c8	 lea	 eax, DWORD PTR _strXValue$[ebp]
  00048	83 ec 08	 sub	 esp, 8
  0004b	c7 45 fc 00 00
	00 00		 mov	 DWORD PTR __$EHRec$[ebp+8], 0
  00052	f2 0f 11 04 24	 movsd	 QWORD PTR [esp], xmm0
  00057	68 00 00 00 00	 push	 OFFSET ??_C@_03EICDNICE@?$CF?4f@
  0005c	50		 push	 eax
  0005d	ff 15 00 00 00
	00		 call	 DWORD PTR __imp_?Format@?$CStringT@DV?$StrTraitMFC_DLL@DV?$ChTraitsCRT@D@ATL@@@@@ATL@@QAAXPBDZZ
; File C:\Program Files (x86)\Microsoft Visual Studio\2019\Community\VC\Tools\MSVC\14.29.30133\atlmfc\include\atlsimpstr.h

; 519  : 		return( GetData()->nDataLength );

  00063	8b 45 c8	 mov	 eax, DWORD PTR _strXValue$[ebp]
; File D:\git\src\IBK\IBK_DRFN\ProjSrc\SrcChartEx\ChartAddIn\ChartAnalysisToolAddIn\Symbol\Properties_Figure.cpp

; 210  : 	strXValue.Format(_T("%.f"),dXDateTime);	

  00066	83 c4 10	 add	 esp, 16			; 00000010H
; File C:\Program Files (x86)\Microsoft Visual Studio\2019\Community\VC\Tools\MSVC\14.29.30133\atlmfc\include\atlsimpstr.h

; 533  : 		return( GetLength() == 0 );

  00069	83 78 f4 00	 cmp	 DWORD PTR [eax-12], 0
; File D:\git\src\IBK\IBK_DRFN\ProjSrc\SrcChartEx\ChartAddIn\ChartAnalysisToolAddIn\Symbol\Properties_Figure.cpp

; 211  : 	if(strXValue.IsEmpty() == FALSE && dXDateTime > 0.0f)

  0006d	0f 84 84 04 00
	00		 je	 $LN9@SetXDateTi
  00073	f2 0f 10 45 08	 movsd	 xmm0, QWORD PTR _dXDateTime$[ebp]
  00078	66 0f 2f 05 00
	00 00 00	 comisd	 xmm0, QWORD PTR __real@0000000000000000
  00080	0f 86 71 04 00
	00		 jbe	 $LN9@SetXDateTi

; 212  : 	{	
; 213  : 		if( m_nDataPeriod == CScaleBaseData::HORZ_DAILY		||
; 214  : 			m_nDataPeriod == CScaleBaseData::HORZ_WEEKLEY	||

  00086	8b 83 ec 05 00
	00		 mov	 eax, DWORD PTR [ebx+1516]
  0008c	83 f8 01	 cmp	 eax, 1
  0008f	0f 84 4a 03 00
	00		 je	 $LN5@SetXDateTi
  00095	83 f8 02	 cmp	 eax, 2
  00098	0f 84 41 03 00
	00		 je	 $LN5@SetXDateTi
  0009e	83 f8 03	 cmp	 eax, 3
  000a1	0f 84 38 03 00
	00		 je	 $LN5@SetXDateTi

; 232  : 		}
; 233  : 		else
; 234  : 		{	
; 235  : 			if(nIndex == 0)

  000a7	83 7d 10 00	 cmp	 DWORD PTR _nIndex$[ebp], 0
  000ab	75 1a		 jne	 SHORT $LN10@SetXDateTi

; 236  : 			{
; 237  : 				m_ctrlXDateTime1.ShowWindow(SW_HIDE);

  000ad	6a 00		 push	 0
  000af	8d 8b d0 04 00
	00		 lea	 ecx, DWORD PTR [ebx+1232]
  000b5	e8 00 00 00 00	 call	 ?ShowWindow@CWnd@@QAEHH@Z ; CWnd::ShowWindow

; 238  : 				m_ctrlXDateTime2.ShowWindow(SW_HIDE);

  000ba	6a 00		 push	 0
  000bc	8d 8b 50 05 00
	00		 lea	 ecx, DWORD PTR [ebx+1360]
  000c2	e8 00 00 00 00	 call	 ?ShowWindow@CWnd@@QAEHH@Z ; CWnd::ShowWindow
$LN10@SetXDateTi:

; 239  : 			}
; 240  : 
; 241  : 			CString strFormat;		

  000c7	8d 4d b8	 lea	 ecx, DWORD PTR _strFormat$7[ebp]
  000ca	ff 15 00 00 00
	00		 call	 DWORD PTR __imp_??0?$CStringT@DV?$StrTraitMFC_DLL@DV?$ChTraitsCRT@D@ATL@@@@@ATL@@QAE@XZ

; 242  : 
; 243  : 			if(m_nDataPeriod == CScaleBaseData::HORZ_TICK)

  000d0	83 bb ec 05 00
	00 05		 cmp	 DWORD PTR [ebx+1516], 5
  000d7	8b 45 c8	 mov	 eax, DWORD PTR _strXValue$[ebp]
  000da	c6 45 fc 01	 mov	 BYTE PTR __$EHRec$[ebp+8], 1
  000de	0f 85 ff 00 00
	00		 jne	 $LN11@SetXDateTi

; 244  : 			{
; 245  : 				// 2011.01.17 by SYS >>  YYYY()  : / 14Byte  (YYYYMMDDhhmmss)
; 246  : 				// DDHHMM
; 247  : 				if (strXValue.GetLength()==14)

  000e4	83 78 f4 0e	 cmp	 DWORD PTR [eax-12], 14	; 0000000eH
  000e8	8d 4d c8	 lea	 ecx, DWORD PTR _strXValue$[ebp]
  000eb	6a 02		 push	 2
  000ed	75 7b		 jne	 SHORT $LN13@SetXDateTi

; 248  : 					strFormat.Format(_T("%s/%s:%s"),strXValue.Mid(6,2),strXValue.Mid(8,2),strXValue.Mid(10,2));

  000ef	6a 0a		 push	 10			; 0000000aH
  000f1	8d 45 c0	 lea	 eax, DWORD PTR $T17[ebp]
  000f4	50		 push	 eax
  000f5	ff 15 00 00 00
	00		 call	 DWORD PTR __imp_?Mid@?$CStringT@DV?$StrTraitMFC_DLL@DV?$ChTraitsCRT@D@ATL@@@@@ATL@@QBE?AV12@HH@Z
  000fb	8b f8		 mov	 edi, eax
  000fd	6a 02		 push	 2
  000ff	6a 08		 push	 8
  00101	8d 45 c4	 lea	 eax, DWORD PTR $T22[ebp]
  00104	c6 45 fc 02	 mov	 BYTE PTR __$EHRec$[ebp+8], 2
  00108	50		 push	 eax
  00109	8d 4d c8	 lea	 ecx, DWORD PTR _strXValue$[ebp]
  0010c	ff 15 00 00 00
	00		 call	 DWORD PTR __imp_?Mid@?$CStringT@DV?$StrTraitMFC_DLL@DV?$ChTraitsCRT@D@ATL@@@@@ATL@@QBE?AV12@HH@Z
  00112	8b f0		 mov	 esi, eax
  00114	6a 02		 push	 2
  00116	6a 06		 push	 6
  00118	8d 45 b0	 lea	 eax, DWORD PTR $T4[ebp]
  0011b	c6 45 fc 03	 mov	 BYTE PTR __$EHRec$[ebp+8], 3
  0011f	50		 push	 eax
  00120	8d 4d c8	 lea	 ecx, DWORD PTR _strXValue$[ebp]
  00123	ff 15 00 00 00
	00		 call	 DWORD PTR __imp_?Mid@?$CStringT@DV?$StrTraitMFC_DLL@DV?$ChTraitsCRT@D@ATL@@@@@ATL@@QBE?AV12@HH@Z
  00129	ff 37		 push	 DWORD PTR [edi]
  0012b	c6 45 fc 04	 mov	 BYTE PTR __$EHRec$[ebp+8], 4
  0012f	ff 36		 push	 DWORD PTR [esi]
  00131	ff 30		 push	 DWORD PTR [eax]
  00133	8d 45 b8	 lea	 eax, DWORD PTR _strFormat$7[ebp]
  00136	68 00 00 00 00	 push	 OFFSET ??_C@_08IGKLELNK@?$CFs?1?$CFs?3?$CFs@
  0013b	50		 push	 eax
  0013c	a1 00 00 00 00	 mov	 eax, DWORD PTR __imp_?Format@?$CStringT@DV?$StrTraitMFC_DLL@DV?$ChTraitsCRT@D@ATL@@@@@ATL@@QAAXPBDZZ
  00141	ff d0		 call	 eax
  00143	83 c4 14	 add	 esp, 20			; 00000014H
  00146	8d 4d b0	 lea	 ecx, DWORD PTR $T4[ebp]
  00149	ff 15 00 00 00
	00		 call	 DWORD PTR __imp_??1?$CStringT@DV?$StrTraitMFC_DLL@DV?$ChTraitsCRT@D@ATL@@@@@ATL@@QAE@XZ
  0014f	8d 4d c4	 lea	 ecx, DWORD PTR $T22[ebp]
  00152	ff 15 00 00 00
	00		 call	 DWORD PTR __imp_??1?$CStringT@DV?$StrTraitMFC_DLL@DV?$ChTraitsCRT@D@ATL@@@@@ATL@@QAE@XZ
  00158	8d 4d c0	 lea	 ecx, DWORD PTR $T17[ebp]
  0015b	c6 45 fc 01	 mov	 BYTE PTR __$EHRec$[ebp+8], 1
  0015f	ff 15 00 00 00
	00		 call	 DWORD PTR __imp_??1?$CStringT@DV?$StrTraitMFC_DLL@DV?$ChTraitsCRT@D@ATL@@@@@ATL@@QAE@XZ
  00165	e9 10 02 00 00	 jmp	 $LN17@SetXDateTi
$LN13@SetXDateTi:

; 249  : 				else
; 250  : 					strFormat.Format(_T("%s/%s:%s"),strXValue.Left(2),strXValue.Mid(2,2),strXValue.Mid(4,2));

  0016a	6a 04		 push	 4
  0016c	8d 45 c4	 lea	 eax, DWORD PTR $T21[ebp]
  0016f	50		 push	 eax
  00170	ff 15 00 00 00
	00		 call	 DWORD PTR __imp_?Mid@?$CStringT@DV?$StrTraitMFC_DLL@DV?$ChTraitsCRT@D@ATL@@@@@ATL@@QBE?AV12@HH@Z
  00176	8b f8		 mov	 edi, eax
  00178	6a 02		 push	 2
  0017a	6a 02		 push	 2
  0017c	8d 45 b0	 lea	 eax, DWORD PTR $T3[ebp]
  0017f	c6 45 fc 05	 mov	 BYTE PTR __$EHRec$[ebp+8], 5
  00183	50		 push	 eax
  00184	8d 4d c8	 lea	 ecx, DWORD PTR _strXValue$[ebp]
  00187	ff 15 00 00 00
	00		 call	 DWORD PTR __imp_?Mid@?$CStringT@DV?$StrTraitMFC_DLL@DV?$ChTraitsCRT@D@ATL@@@@@ATL@@QBE?AV12@HH@Z
  0018d	8b f0		 mov	 esi, eax
  0018f	6a 02		 push	 2
  00191	8d 45 c0	 lea	 eax, DWORD PTR $T16[ebp]
  00194	c6 45 fc 06	 mov	 BYTE PTR __$EHRec$[ebp+8], 6
  00198	50		 push	 eax
  00199	8d 4d c8	 lea	 ecx, DWORD PTR _strXValue$[ebp]
  0019c	ff 15 00 00 00
	00		 call	 DWORD PTR __imp_?Left@?$CStringT@DV?$StrTraitMFC_DLL@DV?$ChTraitsCRT@D@ATL@@@@@ATL@@QBE?AV12@H@Z
  001a2	ff 37		 push	 DWORD PTR [edi]
  001a4	c6 45 fc 07	 mov	 BYTE PTR __$EHRec$[ebp+8], 7
  001a8	ff 36		 push	 DWORD PTR [esi]
  001aa	ff 30		 push	 DWORD PTR [eax]
  001ac	8d 45 b8	 lea	 eax, DWORD PTR _strFormat$7[ebp]
  001af	68 00 00 00 00	 push	 OFFSET ??_C@_08IGKLELNK@?$CFs?1?$CFs?3?$CFs@
  001b4	50		 push	 eax
  001b5	a1 00 00 00 00	 mov	 eax, DWORD PTR __imp_?Format@?$CStringT@DV?$StrTraitMFC_DLL@DV?$ChTraitsCRT@D@ATL@@@@@ATL@@QAAXPBDZZ
  001ba	ff d0		 call	 eax
  001bc	83 c4 14	 add	 esp, 20			; 00000014H
  001bf	8d 4d c0	 lea	 ecx, DWORD PTR $T16[ebp]
  001c2	ff 15 00 00 00
	00		 call	 DWORD PTR __imp_??1?$CStringT@DV?$StrTraitMFC_DLL@DV?$ChTraitsCRT@D@ATL@@@@@ATL@@QAE@XZ
  001c8	8d 4d b0	 lea	 ecx, DWORD PTR $T3[ebp]
  001cb	ff 15 00 00 00
	00		 call	 DWORD PTR __imp_??1?$CStringT@DV?$StrTraitMFC_DLL@DV?$ChTraitsCRT@D@ATL@@@@@ATL@@QAE@XZ
  001d1	8d 4d c4	 lea	 ecx, DWORD PTR $T21[ebp]
  001d4	c6 45 fc 01	 mov	 BYTE PTR __$EHRec$[ebp+8], 1
  001d8	ff 15 00 00 00
	00		 call	 DWORD PTR __imp_??1?$CStringT@DV?$StrTraitMFC_DLL@DV?$ChTraitsCRT@D@ATL@@@@@ATL@@QAE@XZ

; 251  : 				// 2011.01.17 by SYS <<
; 252  : 			}

  001de	e9 97 01 00 00	 jmp	 $LN17@SetXDateTi
$LN11@SetXDateTi:

; 253  : 			else
; 254  : 			{
; 255  : 				if(strXValue.GetLength() < 8)

  001e3	83 78 f4 08	 cmp	 DWORD PTR [eax-12], 8
  001e7	7d 56		 jge	 SHORT $LN15@SetXDateTi
; File C:\Program Files (x86)\Microsoft Visual Studio\2019\Community\VC\Tools\MSVC\14.29.30133\atlmfc\include\cstringt.h

; 2412 : 		CStringT strResult( str2.GetManager() );

  001e9	8d 4d c8	 lea	 ecx, DWORD PTR _strXValue$[ebp]
; File D:\git\src\IBK\IBK_DRFN\ProjSrc\SrcChartEx\ChartAddIn\ChartAnalysisToolAddIn\Symbol\Properties_Figure.cpp

; 256  : 					strXValue = "0" + strXValue;

  001ec	c6 45 fc 08	 mov	 BYTE PTR __$EHRec$[ebp+8], 8
; File C:\Program Files (x86)\Microsoft Visual Studio\2019\Community\VC\Tools\MSVC\14.29.30133\atlmfc\include\cstringt.h

; 2412 : 		CStringT strResult( str2.GetManager() );

  001f0	ff 15 00 00 00
	00		 call	 DWORD PTR __imp_?GetManager@?$CStringT@DV?$StrTraitMFC_DLL@DV?$ChTraitsCRT@D@ATL@@@@@ATL@@QBEPAUIAtlStringMgr@2@XZ
  001f6	50		 push	 eax
  001f7	8d 4d c4	 lea	 ecx, DWORD PTR $T20[ebp]
  001fa	ff 15 00 00 00
	00		 call	 DWORD PTR __imp_??0?$CStringT@DV?$StrTraitMFC_DLL@DV?$ChTraitsCRT@D@ATL@@@@@ATL@@QAE@PAUIAtlStringMgr@1@@Z
; File C:\Program Files (x86)\Microsoft Visual Studio\2019\Community\VC\Tools\MSVC\14.29.30133\atlmfc\include\atlsimpstr.h

; 519  : 		return( GetData()->nDataLength );

  00200	8b 45 c8	 mov	 eax, DWORD PTR _strXValue$[ebp]
; File C:\Program Files (x86)\Microsoft Visual Studio\2019\Community\VC\Tools\MSVC\14.29.30133\atlmfc\include\cstringt.h

; 2416 : 		return( strResult );

  00203	c7 45 c0 01 00
	00 00		 mov	 DWORD PTR $T13[ebp], 1
  0020a	ff 70 f4	 push	 DWORD PTR [eax-12]
  0020d	50		 push	 eax
  0020e	6a 01		 push	 1
  00210	8d 45 c4	 lea	 eax, DWORD PTR $T20[ebp]
  00213	68 00 00 00 00	 push	 OFFSET ??_C@_01GBGANLPD@0@
  00218	50		 push	 eax
  00219	ff 15 00 00 00
	00		 call	 DWORD PTR __imp_?Concatenate@?$CSimpleStringT@D$00@ATL@@KAXAAV12@PBDH1H@Z
  0021f	83 c4 14	 add	 esp, 20			; 00000014H
; File D:\git\src\IBK\IBK_DRFN\ProjSrc\SrcChartEx\ChartAddIn\ChartAnalysisToolAddIn\Symbol\Properties_Figure.cpp

; 256  : 					strXValue = "0" + strXValue;

  00222	8d 45 c4	 lea	 eax, DWORD PTR $T20[ebp]
  00225	8d 4d c8	 lea	 ecx, DWORD PTR _strXValue$[ebp]
  00228	50		 push	 eax
  00229	ff 15 00 00 00
	00		 call	 DWORD PTR __imp_??4?$CStringT@DV?$StrTraitMFC_DLL@DV?$ChTraitsCRT@D@ATL@@@@@ATL@@QAEAAV01@ABV01@@Z
  0022f	8d 4d c4	 lea	 ecx, DWORD PTR $T20[ebp]
  00232	c6 45 fc 01	 mov	 BYTE PTR __$EHRec$[ebp+8], 1
  00236	ff 15 00 00 00
	00		 call	 DWORD PTR __imp_??1?$CStringT@DV?$StrTraitMFC_DLL@DV?$ChTraitsCRT@D@ATL@@@@@ATL@@QAE@XZ
  0023c	8b 45 c8	 mov	 eax, DWORD PTR _strXValue$[ebp]
$LN15@SetXDateTi:

; 257  : 
; 258  : 				// 2011.01.06 by SYS >>  YYYY() 
; 259  : 				if(strXValue.GetLength()==14)

  0023f	83 78 f4 0e	 cmp	 DWORD PTR [eax-12], 14	; 0000000eH
  00243	8d 4d c8	 lea	 ecx, DWORD PTR _strXValue$[ebp]
  00246	6a 02		 push	 2
  00248	0f 85 93 00 00
	00		 jne	 $LN16@SetXDateTi

; 260  : 					strFormat.Format(_T("%s/%s-%s:%s"),strXValue.Mid(4,2),strXValue.Mid(6,2),

  0024e	6a 0a		 push	 10			; 0000000aH
  00250	8d 45 bc	 lea	 eax, DWORD PTR $T9[ebp]
  00253	50		 push	 eax
  00254	ff 15 00 00 00
	00		 call	 DWORD PTR __imp_?Mid@?$CStringT@DV?$StrTraitMFC_DLL@DV?$ChTraitsCRT@D@ATL@@@@@ATL@@QBE?AV12@HH@Z
  0025a	8b d8		 mov	 ebx, eax
  0025c	6a 02		 push	 2
  0025e	6a 08		 push	 8
  00260	8d 45 b4	 lea	 eax, DWORD PTR $T6[ebp]
  00263	c6 45 fc 09	 mov	 BYTE PTR __$EHRec$[ebp+8], 9
  00267	50		 push	 eax
  00268	8d 4d c8	 lea	 ecx, DWORD PTR _strXValue$[ebp]
  0026b	ff 15 00 00 00
	00		 call	 DWORD PTR __imp_?Mid@?$CStringT@DV?$StrTraitMFC_DLL@DV?$ChTraitsCRT@D@ATL@@@@@ATL@@QBE?AV12@HH@Z
  00271	8b f8		 mov	 edi, eax
  00273	6a 02		 push	 2
  00275	6a 06		 push	 6
  00277	8d 45 c4	 lea	 eax, DWORD PTR $T19[ebp]
  0027a	c6 45 fc 0a	 mov	 BYTE PTR __$EHRec$[ebp+8], 10 ; 0000000aH
  0027e	50		 push	 eax
  0027f	8d 4d c8	 lea	 ecx, DWORD PTR _strXValue$[ebp]
  00282	ff 15 00 00 00
	00		 call	 DWORD PTR __imp_?Mid@?$CStringT@DV?$StrTraitMFC_DLL@DV?$ChTraitsCRT@D@ATL@@@@@ATL@@QBE?AV12@HH@Z
  00288	8b f0		 mov	 esi, eax
  0028a	6a 02		 push	 2
  0028c	6a 04		 push	 4
  0028e	8d 45 c0	 lea	 eax, DWORD PTR $T15[ebp]
  00291	c6 45 fc 0b	 mov	 BYTE PTR __$EHRec$[ebp+8], 11 ; 0000000bH
  00295	50		 push	 eax
  00296	8d 4d c8	 lea	 ecx, DWORD PTR _strXValue$[ebp]
  00299	ff 15 00 00 00
	00		 call	 DWORD PTR __imp_?Mid@?$CStringT@DV?$StrTraitMFC_DLL@DV?$ChTraitsCRT@D@ATL@@@@@ATL@@QBE?AV12@HH@Z
  0029f	ff 33		 push	 DWORD PTR [ebx]
  002a1	c6 45 fc 0c	 mov	 BYTE PTR __$EHRec$[ebp+8], 12 ; 0000000cH
  002a5	ff 37		 push	 DWORD PTR [edi]
  002a7	ff 36		 push	 DWORD PTR [esi]
  002a9	ff 30		 push	 DWORD PTR [eax]
  002ab	8d 45 b8	 lea	 eax, DWORD PTR _strFormat$7[ebp]
  002ae	68 00 00 00 00	 push	 OFFSET ??_C@_0M@NFOMEIHF@?$CFs?1?$CFs?9?$CFs?3?$CFs@
  002b3	50		 push	 eax
  002b4	a1 00 00 00 00	 mov	 eax, DWORD PTR __imp_?Format@?$CStringT@DV?$StrTraitMFC_DLL@DV?$ChTraitsCRT@D@ATL@@@@@ATL@@QAAXPBDZZ
  002b9	ff d0		 call	 eax
  002bb	83 c4 18	 add	 esp, 24			; 00000018H
  002be	8d 4d c0	 lea	 ecx, DWORD PTR $T15[ebp]
  002c1	ff 15 00 00 00
	00		 call	 DWORD PTR __imp_??1?$CStringT@DV?$StrTraitMFC_DLL@DV?$ChTraitsCRT@D@ATL@@@@@ATL@@QAE@XZ
  002c7	8d 4d c4	 lea	 ecx, DWORD PTR $T19[ebp]
  002ca	ff 15 00 00 00
	00		 call	 DWORD PTR __imp_??1?$CStringT@DV?$StrTraitMFC_DLL@DV?$ChTraitsCRT@D@ATL@@@@@ATL@@QAE@XZ
  002d0	8d 4d b4	 lea	 ecx, DWORD PTR $T6[ebp]
  002d3	ff 15 00 00 00
	00		 call	 DWORD PTR __imp_??1?$CStringT@DV?$StrTraitMFC_DLL@DV?$ChTraitsCRT@D@ATL@@@@@ATL@@QAE@XZ
  002d9	8d 4d bc	 lea	 ecx, DWORD PTR $T9[ebp]
  002dc	e9 8c 00 00 00	 jmp	 $LN146@SetXDateTi
$LN16@SetXDateTi:

; 261  : 						strXValue.Mid(8,2),strXValue.Mid(10,2));
; 262  : 				else
; 263  : 					// 2011.01.06 by SYS <<
; 264  : 					strFormat.Format(_T("%s/%s-%s:%s"),strXValue.Left(2),strXValue.Mid(2,2),

  002e1	6a 06		 push	 6
  002e3	8d 45 c4	 lea	 eax, DWORD PTR $T18[ebp]
  002e6	50		 push	 eax
  002e7	ff 15 00 00 00
	00		 call	 DWORD PTR __imp_?Mid@?$CStringT@DV?$StrTraitMFC_DLL@DV?$ChTraitsCRT@D@ATL@@@@@ATL@@QBE?AV12@HH@Z
  002ed	8b d8		 mov	 ebx, eax
  002ef	6a 02		 push	 2
  002f1	6a 04		 push	 4
  002f3	8d 45 c0	 lea	 eax, DWORD PTR $T14[ebp]
  002f6	c6 45 fc 0d	 mov	 BYTE PTR __$EHRec$[ebp+8], 13 ; 0000000dH
  002fa	50		 push	 eax
  002fb	8d 4d c8	 lea	 ecx, DWORD PTR _strXValue$[ebp]
  002fe	ff 15 00 00 00
	00		 call	 DWORD PTR __imp_?Mid@?$CStringT@DV?$StrTraitMFC_DLL@DV?$ChTraitsCRT@D@ATL@@@@@ATL@@QBE?AV12@HH@Z
  00304	8b f8		 mov	 edi, eax
  00306	6a 02		 push	 2
  00308	6a 02		 push	 2
  0030a	8d 45 b4	 lea	 eax, DWORD PTR $T5[ebp]
  0030d	c6 45 fc 0e	 mov	 BYTE PTR __$EHRec$[ebp+8], 14 ; 0000000eH
  00311	50		 push	 eax
  00312	8d 4d c8	 lea	 ecx, DWORD PTR _strXValue$[ebp]
  00315	ff 15 00 00 00
	00		 call	 DWORD PTR __imp_?Mid@?$CStringT@DV?$StrTraitMFC_DLL@DV?$ChTraitsCRT@D@ATL@@@@@ATL@@QBE?AV12@HH@Z
  0031b	8b f0		 mov	 esi, eax
  0031d	6a 02		 push	 2
  0031f	8d 45 bc	 lea	 eax, DWORD PTR $T8[ebp]
  00322	c6 45 fc 0f	 mov	 BYTE PTR __$EHRec$[ebp+8], 15 ; 0000000fH
  00326	50		 push	 eax
  00327	8d 4d c8	 lea	 ecx, DWORD PTR _strXValue$[ebp]
  0032a	ff 15 00 00 00
	00		 call	 DWORD PTR __imp_?Left@?$CStringT@DV?$StrTraitMFC_DLL@DV?$ChTraitsCRT@D@ATL@@@@@ATL@@QBE?AV12@H@Z
  00330	ff 33		 push	 DWORD PTR [ebx]
  00332	c6 45 fc 10	 mov	 BYTE PTR __$EHRec$[ebp+8], 16 ; 00000010H
  00336	ff 37		 push	 DWORD PTR [edi]
  00338	ff 36		 push	 DWORD PTR [esi]
  0033a	ff 30		 push	 DWORD PTR [eax]
  0033c	8d 45 b8	 lea	 eax, DWORD PTR _strFormat$7[ebp]
  0033f	68 00 00 00 00	 push	 OFFSET ??_C@_0M@NFOMEIHF@?$CFs?1?$CFs?9?$CFs?3?$CFs@
  00344	50		 push	 eax
  00345	a1 00 00 00 00	 mov	 eax, DWORD PTR __imp_?Format@?$CStringT@DV?$StrTraitMFC_DLL@DV?$ChTraitsCRT@D@ATL@@@@@ATL@@QAAXPBDZZ
  0034a	ff d0		 call	 eax
  0034c	83 c4 18	 add	 esp, 24			; 00000018H
  0034f	8d 4d bc	 lea	 ecx, DWORD PTR $T8[ebp]
  00352	ff 15 00 00 00
	00		 call	 DWORD PTR __imp_??1?$CStringT@DV?$StrTraitMFC_DLL@DV?$ChTraitsCRT@D@ATL@@@@@ATL@@QAE@XZ
  00358	8d 4d b4	 lea	 ecx, DWORD PTR $T5[ebp]
  0035b	ff 15 00 00 00
	00		 call	 DWORD PTR __imp_??1?$CStringT@DV?$StrTraitMFC_DLL@DV?$ChTraitsCRT@D@ATL@@@@@ATL@@QAE@XZ
  00361	8d 4d c0	 lea	 ecx, DWORD PTR $T14[ebp]
  00364	ff 15 00 00 00
	00		 call	 DWORD PTR __imp_??1?$CStringT@DV?$StrTraitMFC_DLL@DV?$ChTraitsCRT@D@ATL@@@@@ATL@@QAE@XZ
  0036a	8d 4d c4	 lea	 ecx, DWORD PTR $T18[ebp]
$LN146@SetXDateTi:

; 265  : 						strXValue.Mid(4,2),strXValue.Mid(6,2));
; 266  : 			}
; 267  : 			
; 268  : 			if(nIndex == 0)

  0036d	c6 45 fc 01	 mov	 BYTE PTR __$EHRec$[ebp+8], 1
  00371	ff 15 00 00 00
	00		 call	 DWORD PTR __imp_??1?$CStringT@DV?$StrTraitMFC_DLL@DV?$ChTraitsCRT@D@ATL@@@@@ATL@@QAE@XZ
  00377	8b 5d b0	 mov	 ebx, DWORD PTR _this$GSCopy$1$[ebp]
$LN17@SetXDateTi:
  0037a	8b 45 10	 mov	 eax, DWORD PTR _nIndex$[ebp]
  0037d	85 c0		 test	 eax, eax
  0037f	75 23		 jne	 SHORT $LN18@SetXDateTi

; 269  : 			{
; 270  : 				m_ctrlEditXValue1.ShowWindow(SW_SHOW);

  00381	6a 05		 push	 5
  00383	8d 8b d0 02 00
	00		 lea	 ecx, DWORD PTR [ebx+720]
  00389	e8 00 00 00 00	 call	 ?ShowWindow@CWnd@@QAEHH@Z ; CWnd::ShowWindow

; 271  : 				m_ctrlEditXValue1.SetWindowText(strFormat);

  0038e	ff 75 b8	 push	 DWORD PTR _strFormat$7[ebp]
  00391	8d 8b d0 02 00
	00		 lea	 ecx, DWORD PTR [ebx+720]
  00397	e8 00 00 00 00	 call	 ?SetWindowTextA@CWnd@@QAEXPBD@Z ; CWnd::SetWindowTextA

; 272  : 				m_ctrlEditXValue1.EnableWindow(FALSE);

  0039c	8d 8b d0 02 00
	00		 lea	 ecx, DWORD PTR [ebx+720]

; 273  : 			}

  003a2	eb 26		 jmp	 SHORT $LN147@SetXDateTi
$LN18@SetXDateTi:

; 274  : 			else if(nIndex == 1)

  003a4	83 f8 01	 cmp	 eax, 1
  003a7	75 28		 jne	 SHORT $LN20@SetXDateTi

; 275  : 			{
; 276  : 				m_ctrlEditXValue2.ShowWindow(SW_SHOW);

  003a9	6a 05		 push	 5
  003ab	8d 8b 50 03 00
	00		 lea	 ecx, DWORD PTR [ebx+848]
  003b1	e8 00 00 00 00	 call	 ?ShowWindow@CWnd@@QAEHH@Z ; CWnd::ShowWindow

; 277  : 				m_ctrlEditXValue2.SetWindowText(strFormat);

  003b6	ff 75 b8	 push	 DWORD PTR _strFormat$7[ebp]
  003b9	8d 8b 50 03 00
	00		 lea	 ecx, DWORD PTR [ebx+848]
  003bf	e8 00 00 00 00	 call	 ?SetWindowTextA@CWnd@@QAEXPBD@Z ; CWnd::SetWindowTextA

; 278  : 				m_ctrlEditXValue2.EnableWindow(FALSE);

  003c4	8d 8b 50 03 00
	00		 lea	 ecx, DWORD PTR [ebx+848]
$LN147@SetXDateTi:

; 279  : 			}
; 280  : 		}

  003ca	6a 00		 push	 0
  003cc	e8 00 00 00 00	 call	 ?EnableWindow@CWnd@@QAEHH@Z ; CWnd::EnableWindow
$LN20@SetXDateTi:
  003d1	8d 4d b8	 lea	 ecx, DWORD PTR _strFormat$7[ebp]
  003d4	ff 15 00 00 00
	00		 call	 DWORD PTR __imp_??1?$CStringT@DV?$StrTraitMFC_DLL@DV?$ChTraitsCRT@D@ATL@@@@@ATL@@QAE@XZ
  003da	e9 18 01 00 00	 jmp	 $LN9@SetXDateTi
$LN5@SetXDateTi:

; 215  : 			m_nDataPeriod == CScaleBaseData::HORZ_MONTHLY)
; 216  : 		{
; 217  : 			if(nIndex == 0)

  003df	8b 7d 10	 mov	 edi, DWORD PTR _nIndex$[ebp]
  003e2	85 ff		 test	 edi, edi
  003e4	75 18		 jne	 SHORT $LN6@SetXDateTi

; 218  : 			{
; 219  : 				m_ctrlEditXValue1.ShowWindow(SW_HIDE);

  003e6	57		 push	 edi
  003e7	8d 8b d0 02 00
	00		 lea	 ecx, DWORD PTR [ebx+720]
  003ed	e8 00 00 00 00	 call	 ?ShowWindow@CWnd@@QAEHH@Z ; CWnd::ShowWindow

; 220  : 				m_ctrlEditXValue2.ShowWindow(SW_HIDE);

  003f2	57		 push	 edi
  003f3	8d 8b 50 03 00
	00		 lea	 ecx, DWORD PTR [ebx+848]
  003f9	e8 00 00 00 00	 call	 ?ShowWindow@CWnd@@QAEHH@Z ; CWnd::ShowWindow
$LN6@SetXDateTi:

; 221  : 			}
; 222  : 
; 223  : 			int nYear = atoi(strXValue.Left(4));

  003fe	6a 04		 push	 4
  00400	8d 45 bc	 lea	 eax, DWORD PTR $T12[ebp]
  00403	50		 push	 eax
  00404	8d 4d c8	 lea	 ecx, DWORD PTR _strXValue$[ebp]
  00407	ff 15 00 00 00
	00		 call	 DWORD PTR __imp_?Left@?$CStringT@DV?$StrTraitMFC_DLL@DV?$ChTraitsCRT@D@ATL@@@@@ATL@@QBE?AV12@H@Z
  0040d	8b 35 00 00 00
	00		 mov	 esi, DWORD PTR __imp__atoi
  00413	ff 30		 push	 DWORD PTR [eax]
  00415	ff d6		 call	 esi
  00417	83 c4 04	 add	 esp, 4
  0041a	89 45 b4	 mov	 DWORD PTR _nYear$1$[ebp], eax
  0041d	8d 4d bc	 lea	 ecx, DWORD PTR $T12[ebp]
  00420	ff 15 00 00 00
	00		 call	 DWORD PTR __imp_??1?$CStringT@DV?$StrTraitMFC_DLL@DV?$ChTraitsCRT@D@ATL@@@@@ATL@@QAE@XZ

; 224  : 			int nMonth = atoi(strXValue.Mid(4,2));

  00426	6a 02		 push	 2
  00428	6a 04		 push	 4
  0042a	8d 45 bc	 lea	 eax, DWORD PTR $T11[ebp]
  0042d	50		 push	 eax
  0042e	8d 4d c8	 lea	 ecx, DWORD PTR _strXValue$[ebp]
  00431	ff 15 00 00 00
	00		 call	 DWORD PTR __imp_?Mid@?$CStringT@DV?$StrTraitMFC_DLL@DV?$ChTraitsCRT@D@ATL@@@@@ATL@@QBE?AV12@HH@Z
  00437	ff 30		 push	 DWORD PTR [eax]
  00439	ff d6		 call	 esi
  0043b	83 c4 04	 add	 esp, 4
  0043e	89 45 c0	 mov	 DWORD PTR _nMonth$1$[ebp], eax
  00441	8d 4d bc	 lea	 ecx, DWORD PTR $T11[ebp]
  00444	ff 15 00 00 00
	00		 call	 DWORD PTR __imp_??1?$CStringT@DV?$StrTraitMFC_DLL@DV?$ChTraitsCRT@D@ATL@@@@@ATL@@QAE@XZ

; 225  : 			int nDay = atoi(strXValue.Mid(6,2));

  0044a	6a 02		 push	 2
  0044c	6a 06		 push	 6
  0044e	8d 45 bc	 lea	 eax, DWORD PTR $T10[ebp]
  00451	50		 push	 eax
  00452	8d 4d c8	 lea	 ecx, DWORD PTR _strXValue$[ebp]
  00455	ff 15 00 00 00
	00		 call	 DWORD PTR __imp_?Mid@?$CStringT@DV?$StrTraitMFC_DLL@DV?$ChTraitsCRT@D@ATL@@@@@ATL@@QBE?AV12@HH@Z
  0045b	ff 30		 push	 DWORD PTR [eax]
  0045d	ff d6		 call	 esi
  0045f	83 c4 04	 add	 esp, 4
  00462	8d 4d bc	 lea	 ecx, DWORD PTR $T10[ebp]
  00465	8b f0		 mov	 esi, eax
  00467	ff 15 00 00 00
	00		 call	 DWORD PTR __imp_??1?$CStringT@DV?$StrTraitMFC_DLL@DV?$ChTraitsCRT@D@ATL@@@@@ATL@@QAE@XZ
; File C:\Program Files (x86)\Microsoft Visual Studio\2019\Community\VC\Tools\MSVC\14.29.30133\atlmfc\include\atltime.h

; 433  : 	ATLENSURE( nYear >= 1970 );

  0046d	8b 55 b4	 mov	 edx, DWORD PTR _nYear$1$[ebp]
; File D:\git\src\IBK\IBK_DRFN\ProjSrc\SrcChartEx\ChartAddIn\ChartAnalysisToolAddIn\Symbol\Properties_Figure.cpp

; 227  : 			CTime stime(nYear,nMonth,max(1,nDay),0,0,0);

  00470	b8 01 00 00 00	 mov	 eax, 1
  00475	3b f0		 cmp	 esi, eax
  00477	0f 4c f0	 cmovl	 esi, eax
; File C:\Program Files (x86)\Microsoft Visual Studio\2019\Community\VC\Tools\MSVC\14.29.30133\atlmfc\include\atltime.h

; 433  : 	ATLENSURE( nYear >= 1970 );

  0047a	81 fa b2 07 00
	00		 cmp	 edx, 1970		; 000007b2H
  00480	0f 8c a9 00 00
	00		 jl	 $LN104@SetXDateTi

; 434  : 	ATLENSURE( nMonth >= 1 && nMonth <= 12 );

  00486	8b 4d c0	 mov	 ecx, DWORD PTR _nMonth$1$[ebp]
  00489	49		 dec	 ecx
  0048a	83 f9 0b	 cmp	 ecx, 11			; 0000000bH
  0048d	0f 87 9c 00 00
	00		 ja	 $LN104@SetXDateTi

; 435  : 	ATLENSURE( nDay >= 1 && nDay <= 31 );

  00493	8d 46 ff	 lea	 eax, DWORD PTR [esi-1]
  00496	83 f8 1e	 cmp	 eax, 30			; 0000001eH
  00499	0f 87 90 00 00
	00		 ja	 $LN104@SetXDateTi

; 436  : 	ATLENSURE( nHour >= 0 && nHour <= 23 );
; 437  : 	ATLENSURE( nMin >= 0 && nMin <= 59 );
; 438  : 	ATLENSURE( nSec >= 0 && nSec <= 59 );
; 439  : 
; 440  : #pragma warning (pop)
; 441  : 
; 442  : 	struct tm atm;
; 443  : 
; 444  : 	atm.tm_sec = nSec;
; 445  : 	atm.tm_min = nMin;
; 446  : 	atm.tm_hour = nHour;
; 447  : 	atm.tm_mday = nDay;
; 448  : 	atm.tm_mon = nMonth - 1;        // tm_mon is 0 based
; 449  : 	atm.tm_year = nYear - 1900;     // tm_year is 1900 based

  0049f	8d 82 94 f8 ff
	ff		 lea	 eax, DWORD PTR [edx-1900]
  004a5	c7 45 cc 00 00
	00 00		 mov	 DWORD PTR _atm$23[ebp], 0
  004ac	89 45 e0	 mov	 DWORD PTR _atm$23[ebp+20], eax

; 450  : 	atm.tm_isdst = nDST;
; 451  : 
; 452  : 	m_time = _mktime64(&atm);

  004af	8d 45 cc	 lea	 eax, DWORD PTR _atm$23[ebp]
  004b2	50		 push	 eax
  004b3	c7 45 d0 00 00
	00 00		 mov	 DWORD PTR _atm$23[ebp+4], 0
  004ba	c7 45 d4 00 00
	00 00		 mov	 DWORD PTR _atm$23[ebp+8], 0
  004c1	89 75 d8	 mov	 DWORD PTR _atm$23[ebp+12], esi
  004c4	89 4d dc	 mov	 DWORD PTR _atm$23[ebp+16], ecx
  004c7	c7 45 ec ff ff
	ff ff		 mov	 DWORD PTR _atm$23[ebp+32], -1
  004ce	ff 15 00 00 00
	00		 call	 DWORD PTR __imp___mktime64
  004d4	89 45 ac	 mov	 DWORD PTR _stime$2[ebp], eax
  004d7	83 c4 04	 add	 esp, 4

; 453  : 	ATLASSUME(m_time != -1);       // indicates an illegal input time
; 454  : 	if(m_time == -1)

  004da	23 c2		 and	 eax, edx
  004dc	89 55 b0	 mov	 DWORD PTR _stime$2[ebp+4], edx
  004df	83 f8 ff	 cmp	 eax, -1
  004e2	74 55		 je	 SHORT $LN150@SetXDateTi
; File D:\git\src\IBK\IBK_DRFN\ProjSrc\SrcChartEx\ChartAddIn\ChartAnalysisToolAddIn\Symbol\Properties_Figure.cpp

; 228  : 			if(nIndex == 0)

  004e4	85 ff		 test	 edi, edi
  004e6	75 36		 jne	 SHORT $LN7@SetXDateTi

; 229  : 				m_ctrlXDateTime1.SetTime(&stime);	

  004e8	8d 45 ac	 lea	 eax, DWORD PTR _stime$2[ebp]
  004eb	50		 push	 eax
  004ec	8d 8b d0 04 00
	00		 lea	 ecx, DWORD PTR [ebx+1232]
$LN148@SetXDateTi:

; 282  : }

  004f2	e8 00 00 00 00	 call	 ?SetTime@CDateTimeCtrl@@QAEHPBVCTime@ATL@@@Z ; CDateTimeCtrl::SetTime
$LN9@SetXDateTi:
  004f7	8d 4d c8	 lea	 ecx, DWORD PTR _strXValue$[ebp]
  004fa	ff 15 00 00 00
	00		 call	 DWORD PTR __imp_??1?$CStringT@DV?$StrTraitMFC_DLL@DV?$ChTraitsCRT@D@ATL@@@@@ATL@@QAE@XZ
  00500	8b 4d f4	 mov	 ecx, DWORD PTR __$EHRec$[ebp]
  00503	64 89 0d 00 00
	00 00		 mov	 DWORD PTR fs:0, ecx
  0050a	59		 pop	 ecx
  0050b	5f		 pop	 edi
  0050c	5e		 pop	 esi
  0050d	5b		 pop	 ebx
  0050e	8b 4d f0	 mov	 ecx, DWORD PTR __$ArrayPad$[ebp]
  00511	33 cd		 xor	 ecx, ebp
  00513	e8 00 00 00 00	 call	 @__security_check_cookie@4
  00518	8b e5		 mov	 esp, ebp
  0051a	5d		 pop	 ebp
  0051b	c2 0c 00	 ret	 12			; 0000000cH
$LN7@SetXDateTi:

; 230  : 			else if(nIndex == 1)

  0051e	83 ff 01	 cmp	 edi, 1
  00521	75 d4		 jne	 SHORT $LN9@SetXDateTi

; 231  : 				m_ctrlXDateTime2.SetTime(&stime);	

  00523	8d 45 ac	 lea	 eax, DWORD PTR _stime$2[ebp]
  00526	50		 push	 eax
  00527	8d 8b 50 05 00
	00		 lea	 ecx, DWORD PTR [ebx+1360]
  0052d	eb c3		 jmp	 SHORT $LN148@SetXDateTi
$LN104@SetXDateTi:
; File C:\Program Files (x86)\Microsoft Visual Studio\2019\Community\VC\Tools\MSVC\14.29.30133\atlmfc\include\atltime.h

; 435  : 	ATLENSURE( nDay >= 1 && nDay <= 31 );

  0052f	68 05 40 00 80	 push	 -2147467259		; 80004005H
  00534	e8 00 00 00 00	 call	 ?AtlThrowImpl@ATL@@YGXJ@Z ; ATL::AtlThrowImpl
$LN150@SetXDateTi:

; 455  : 	{
; 456  : 		AtlThrow(E_INVALIDARG);

  00539	68 57 00 07 80	 push	 -2147024809		; 80070057H
  0053e	e8 00 00 00 00	 call	 ?AtlThrowImpl@ATL@@YGXJ@Z ; ATL::AtlThrowImpl
$LN145@SetXDateTi:
  00543	cc		 int	 3
_TEXT	ENDS
;	COMDAT text$x
text$x	SEGMENT
__unwindfunclet$?SetXDateTime@CProperties_Figure@@AAEXNH@Z$0:
  00000	8d 4d c8	 lea	 ecx, DWORD PTR _strXValue$[ebp]
  00003	ff 25 00 00 00
	00		 jmp	 DWORD PTR __imp_??1?$CStringT@DV?$StrTraitMFC_DLL@DV?$ChTraitsCRT@D@ATL@@@@@ATL@@QAE@XZ
__unwindfunclet$?SetXDateTime@CProperties_Figure@@AAEXNH@Z$4:
  00009	8d 4d b8	 lea	 ecx, DWORD PTR _strFormat$7[ebp]
  0000c	ff 25 00 00 00
	00		 jmp	 DWORD PTR __imp_??1?$CStringT@DV?$StrTraitMFC_DLL@DV?$ChTraitsCRT@D@ATL@@@@@ATL@@QAE@XZ
__unwindfunclet$?SetXDateTime@CProperties_Figure@@AAEXNH@Z$5:
  00012	8d 4d c0	 lea	 ecx, DWORD PTR $T17[ebp]
  00015	ff 25 00 00 00
	00		 jmp	 DWORD PTR __imp_??1?$CStringT@DV?$StrTraitMFC_DLL@DV?$ChTraitsCRT@D@ATL@@@@@ATL@@QAE@XZ
__unwindfunclet$?SetXDateTime@CProperties_Figure@@AAEXNH@Z$6:
  0001b	8d 4d c4	 lea	 ecx, DWORD PTR $T22[ebp]
  0001e	ff 25 00 00 00
	00		 jmp	 DWORD PTR __imp_??1?$CStringT@DV?$StrTraitMFC_DLL@DV?$ChTraitsCRT@D@ATL@@@@@ATL@@QAE@XZ
__unwindfunclet$?SetXDateTime@CProperties_Figure@@AAEXNH@Z$7:
  00024	8d 4d b0	 lea	 ecx, DWORD PTR $T4[ebp]
  00027	ff 25 00 00 00
	00		 jmp	 DWORD PTR __imp_??1?$CStringT@DV?$StrTraitMFC_DLL@DV?$ChTraitsCRT@D@ATL@@@@@ATL@@QAE@XZ
__unwindfunclet$?SetXDateTime@CProperties_Figure@@AAEXNH@Z$8:
  0002d	8d 4d c4	 lea	 ecx, DWORD PTR $T21[ebp]
  00030	ff 25 00 00 00
	00		 jmp	 DWORD PTR __imp_??1?$CStringT@DV?$StrTraitMFC_DLL@DV?$ChTraitsCRT@D@ATL@@@@@ATL@@QAE@XZ
__unwindfunclet$?SetXDateTime@CProperties_Figure@@AAEXNH@Z$9:
  00036	8d 4d b0	 lea	 ecx, DWORD PTR $T3[ebp]
  00039	ff 25 00 00 00
	00		 jmp	 DWORD PTR __imp_??1?$CStringT@DV?$StrTraitMFC_DLL@DV?$ChTraitsCRT@D@ATL@@@@@ATL@@QAE@XZ
__unwindfunclet$?SetXDateTime@CProperties_Figure@@AAEXNH@Z$10:
  0003f	8d 4d c0	 lea	 ecx, DWORD PTR $T16[ebp]
  00042	ff 25 00 00 00
	00		 jmp	 DWORD PTR __imp_??1?$CStringT@DV?$StrTraitMFC_DLL@DV?$ChTraitsCRT@D@ATL@@@@@ATL@@QAE@XZ
__unwindfunclet$?SetXDateTime@CProperties_Figure@@AAEXNH@Z$20:
  00048	8b 45 c0	 mov	 eax, DWORD PTR $T13[ebp]
  0004b	83 e0 01	 and	 eax, 1
  0004e	0f 84 0d 00 00
	00		 je	 $LN124@SetXDateTi
  00054	83 65 c0 fe	 and	 DWORD PTR $T13[ebp], -2	; fffffffeH
  00058	8d 4d c4	 lea	 ecx, DWORD PTR $T20[ebp]
  0005b	ff 25 00 00 00
	00		 jmp	 DWORD PTR __imp_??1?$CStringT@DV?$StrTraitMFC_DLL@DV?$ChTraitsCRT@D@ATL@@@@@ATL@@QAE@XZ
$LN124@SetXDateTi:
  00061	c3		 ret	 0
__unwindfunclet$?SetXDateTime@CProperties_Figure@@AAEXNH@Z$12:
  00062	8d 4d bc	 lea	 ecx, DWORD PTR $T9[ebp]
  00065	ff 25 00 00 00
	00		 jmp	 DWORD PTR __imp_??1?$CStringT@DV?$StrTraitMFC_DLL@DV?$ChTraitsCRT@D@ATL@@@@@ATL@@QAE@XZ
__unwindfunclet$?SetXDateTime@CProperties_Figure@@AAEXNH@Z$13:
  0006b	8d 4d b4	 lea	 ecx, DWORD PTR $T6[ebp]
  0006e	ff 25 00 00 00
	00		 jmp	 DWORD PTR __imp_??1?$CStringT@DV?$StrTraitMFC_DLL@DV?$ChTraitsCRT@D@ATL@@@@@ATL@@QAE@XZ
__unwindfunclet$?SetXDateTime@CProperties_Figure@@AAEXNH@Z$14:
  00074	8d 4d c4	 lea	 ecx, DWORD PTR $T19[ebp]
  00077	ff 25 00 00 00
	00		 jmp	 DWORD PTR __imp_??1?$CStringT@DV?$StrTraitMFC_DLL@DV?$ChTraitsCRT@D@ATL@@@@@ATL@@QAE@XZ
__unwindfunclet$?SetXDateTime@CProperties_Figure@@AAEXNH@Z$15:
  0007d	8d 4d c0	 lea	 ecx, DWORD PTR $T15[ebp]
  00080	ff 25 00 00 00
	00		 jmp	 DWORD PTR __imp_??1?$CStringT@DV?$StrTraitMFC_DLL@DV?$ChTraitsCRT@D@ATL@@@@@ATL@@QAE@XZ
__unwindfunclet$?SetXDateTime@CProperties_Figure@@AAEXNH@Z$16:
  00086	8d 4d c4	 lea	 ecx, DWORD PTR $T18[ebp]
  00089	ff 25 00 00 00
	00		 jmp	 DWORD PTR __imp_??1?$CStringT@DV?$StrTraitMFC_DLL@DV?$ChTraitsCRT@D@ATL@@@@@ATL@@QAE@XZ
__unwindfunclet$?SetXDateTime@CProperties_Figure@@AAEXNH@Z$17:
  0008f	8d 4d c0	 lea	 ecx, DWORD PTR $T14[ebp]
  00092	ff 25 00 00 00
	00		 jmp	 DWORD PTR __imp_??1?$CStringT@DV?$StrTraitMFC_DLL@DV?$ChTraitsCRT@D@ATL@@@@@ATL@@QAE@XZ
__unwindfunclet$?SetXDateTime@CProperties_Figure@@AAEXNH@Z$18:
  00098	8d 4d b4	 lea	 ecx, DWORD PTR $T5[ebp]
  0009b	ff 25 00 00 00
	00		 jmp	 DWORD PTR __imp_??1?$CStringT@DV?$StrTraitMFC_DLL@DV?$ChTraitsCRT@D@ATL@@@@@ATL@@QAE@XZ
__unwindfunclet$?SetXDateTime@CProperties_Figure@@AAEXNH@Z$19:
  000a1	8d 4d bc	 lea	 ecx, DWORD PTR $T8[ebp]
  000a4	ff 25 00 00 00
	00		 jmp	 DWORD PTR __imp_??1?$CStringT@DV?$StrTraitMFC_DLL@DV?$ChTraitsCRT@D@ATL@@@@@ATL@@QAE@XZ
  000aa	cc		 int	 3
  000ab	cc		 int	 3
  000ac	cc		 int	 3
  000ad	cc		 int	 3
  000ae	cc		 int	 3
__ehhandler$?SetXDateTime@CProperties_Figure@@AAEXNH@Z:
  000af	90		 npad	 1
  000b0	90		 npad	 1
  000b1	8b 54 24 08	 mov	 edx, DWORD PTR [esp+8]
  000b5	8d 42 0c	 lea	 eax, DWORD PTR [edx+12]
  000b8	8b 4a a8	 mov	 ecx, DWORD PTR [edx-88]
  000bb	33 c8		 xor	 ecx, eax
  000bd	e8 00 00 00 00	 call	 @__security_check_cookie@4
  000c2	8b 4a fc	 mov	 ecx, DWORD PTR [edx-4]
  000c5	33 c8		 xor	 ecx, eax
  000c7	e8 00 00 00 00	 call	 @__security_check_cookie@4
  000cc	b8 00 00 00 00	 mov	 eax, OFFSET __ehfuncinfo$?SetXDateTime@CProperties_Figure@@AAEXNH@Z
  000d1	e9 00 00 00 00	 jmp	 ___CxxFrameHandler3
text$x	ENDS
?SetXDateTime@CProperties_Figure@@AAEXNH@Z ENDP		; CProperties_Figure::SetXDateTime
; Function compile flags: /Ogtp
; File D:\git\src\IBK\IBK_DRFN\ProjSrc\SrcChartEx\ChartAddIn\ChartAnalysisToolAddIn\Symbol\Properties_Figure.cpp
; File C:\Program Files (x86)\Microsoft Visual Studio\2019\Community\VC\Tools\MSVC\14.29.30133\atlmfc\include\atlsimpstr.h
; File D:\git\src\IBK\IBK_DRFN\ProjSrc\SrcChartEx\ChartAddIn\ChartAnalysisToolAddIn\Symbol\Properties_Figure.cpp
; File C:\Program Files (x86)\Microsoft Visual Studio\2019\Community\VC\Tools\MSVC\14.29.30133\atlmfc\include\atlsimpstr.h
; File D:\git\src\IBK\IBK_DRFN\ProjSrc\SrcChartEx\ChartAddIn\ChartAnalysisToolAddIn\Symbol\Properties_Figure.cpp
;	COMDAT ?SetYValue@CProperties_Figure@@AAEXNH@Z
_TEXT	SEGMENT
_strYValue$ = -16					; size = 4
__$EHRec$ = -12						; size = 12
_dYValue$ = 8						; size = 8
_nIndex$ = 16						; size = 4
?SetYValue@CProperties_Figure@@AAEXNH@Z PROC		; CProperties_Figure::SetYValue, COMDAT
; _this$ = ecx

; 285  : {

  00000	55		 push	 ebp
  00001	8b ec		 mov	 ebp, esp
  00003	6a ff		 push	 -1
  00005	68 00 00 00 00	 push	 __ehhandler$?SetYValue@CProperties_Figure@@AAEXNH@Z
  0000a	64 a1 00 00 00
	00		 mov	 eax, DWORD PTR fs:0
  00010	50		 push	 eax
  00011	51		 push	 ecx
  00012	56		 push	 esi
  00013	a1 00 00 00 00	 mov	 eax, DWORD PTR ___security_cookie
  00018	33 c5		 xor	 eax, ebp
  0001a	50		 push	 eax
  0001b	8d 45 f4	 lea	 eax, DWORD PTR __$EHRec$[ebp]
  0001e	64 a3 00 00 00
	00		 mov	 DWORD PTR fs:0, eax
  00024	8b f1		 mov	 esi, ecx

; 286  : 	CString strYValue;

  00026	8d 4d f0	 lea	 ecx, DWORD PTR _strYValue$[ebp]
  00029	ff 15 00 00 00
	00		 call	 DWORD PTR __imp_??0?$CStringT@DV?$StrTraitMFC_DLL@DV?$ChTraitsCRT@D@ATL@@@@@ATL@@QAE@XZ

; 289  : 	strYValue.Format(_T("%f"),dYValue);

  0002f	f2 0f 10 45 08	 movsd	 xmm0, QWORD PTR _dYValue$[ebp]
  00034	8d 45 f0	 lea	 eax, DWORD PTR _strYValue$[ebp]
  00037	83 ec 08	 sub	 esp, 8
  0003a	c7 45 fc 00 00
	00 00		 mov	 DWORD PTR __$EHRec$[ebp+8], 0
  00041	f2 0f 11 04 24	 movsd	 QWORD PTR [esp], xmm0
  00046	68 00 00 00 00	 push	 OFFSET ??_C@_02NJPGOMH@?$CFf@
  0004b	50		 push	 eax
  0004c	ff 15 00 00 00
	00		 call	 DWORD PTR __imp_?Format@?$CStringT@DV?$StrTraitMFC_DLL@DV?$ChTraitsCRT@D@ATL@@@@@ATL@@QAAXPBDZZ
; File C:\Program Files (x86)\Microsoft Visual Studio\2019\Community\VC\Tools\MSVC\14.29.30133\atlmfc\include\atlsimpstr.h

; 533  : 		return( GetLength() == 0 );

  00052	8b 45 f0	 mov	 eax, DWORD PTR _strYValue$[ebp]
; File D:\git\src\IBK\IBK_DRFN\ProjSrc\SrcChartEx\ChartAddIn\ChartAnalysisToolAddIn\Symbol\Properties_Figure.cpp

; 289  : 	strYValue.Format(_T("%f"),dYValue);

  00055	83 c4 10	 add	 esp, 16			; 00000010H
; File C:\Program Files (x86)\Microsoft Visual Studio\2019\Community\VC\Tools\MSVC\14.29.30133\atlmfc\include\atlsimpstr.h

; 533  : 		return( GetLength() == 0 );

  00058	83 78 f4 00	 cmp	 DWORD PTR [eax-12], 0
; File D:\git\src\IBK\IBK_DRFN\ProjSrc\SrcChartEx\ChartAddIn\ChartAnalysisToolAddIn\Symbol\Properties_Figure.cpp

; 290  : 	if(strYValue.IsEmpty() == FALSE)

  0005c	74 20		 je	 SHORT $LN5@SetYValue

; 291  : 	{	
; 292  : 		if(nIndex == 0)

  0005e	8b 4d 10	 mov	 ecx, DWORD PTR _nIndex$[ebp]
  00061	85 c9		 test	 ecx, ecx
  00063	75 08		 jne	 SHORT $LN3@SetYValue

; 293  : 			m_ctrlEditValue1.SetWindowText(strYValue);	

  00065	8d 8e d0 03 00
	00		 lea	 ecx, DWORD PTR [esi+976]
  0006b	eb 0b		 jmp	 SHORT $LN19@SetYValue
$LN3@SetYValue:

; 294  : 		else if(nIndex == 1)

  0006d	83 f9 01	 cmp	 ecx, 1
  00070	75 0c		 jne	 SHORT $LN5@SetYValue

; 295  : 			m_ctrlEditValue2.SetWindowText(strYValue);	

  00072	8d 8e 50 04 00
	00		 lea	 ecx, DWORD PTR [esi+1104]
$LN19@SetYValue:

; 296  : 	}
; 297  : }

  00078	50		 push	 eax
  00079	e8 00 00 00 00	 call	 ?SetWindowTextA@CWnd@@QAEXPBD@Z ; CWnd::SetWindowTextA
$LN5@SetYValue:
  0007e	8d 4d f0	 lea	 ecx, DWORD PTR _strYValue$[ebp]
  00081	ff 15 00 00 00
	00		 call	 DWORD PTR __imp_??1?$CStringT@DV?$StrTraitMFC_DLL@DV?$ChTraitsCRT@D@ATL@@@@@ATL@@QAE@XZ
  00087	8b 4d f4	 mov	 ecx, DWORD PTR __$EHRec$[ebp]
  0008a	64 89 0d 00 00
	00 00		 mov	 DWORD PTR fs:0, ecx
  00091	59		 pop	 ecx
  00092	5e		 pop	 esi
  00093	8b e5		 mov	 esp, ebp
  00095	5d		 pop	 ebp
  00096	c2 0c 00	 ret	 12			; 0000000cH
_TEXT	ENDS
;	COMDAT text$x
text$x	SEGMENT
__unwindfunclet$?SetYValue@CProperties_Figure@@AAEXNH@Z$0:
  00000	8d 4d f0	 lea	 ecx, DWORD PTR _strYValue$[ebp]
  00003	ff 25 00 00 00
	00		 jmp	 DWORD PTR __imp_??1?$CStringT@DV?$StrTraitMFC_DLL@DV?$ChTraitsCRT@D@ATL@@@@@ATL@@QAE@XZ
  00009	cc		 int	 3
  0000a	cc		 int	 3
  0000b	cc		 int	 3
  0000c	cc		 int	 3
  0000d	cc		 int	 3
__ehhandler$?SetYValue@CProperties_Figure@@AAEXNH@Z:
  0000e	90		 npad	 1
  0000f	90		 npad	 1
  00010	8b 54 24 08	 mov	 edx, DWORD PTR [esp+8]
  00014	8d 42 0c	 lea	 eax, DWORD PTR [edx+12]
  00017	8b 4a f4	 mov	 ecx, DWORD PTR [edx-12]
  0001a	33 c8		 xor	 ecx, eax
  0001c	e8 00 00 00 00	 call	 @__security_check_cookie@4
  00021	b8 00 00 00 00	 mov	 eax, OFFSET __ehfuncinfo$?SetYValue@CProperties_Figure@@AAEXNH@Z
  00026	e9 00 00 00 00	 jmp	 ___CxxFrameHandler3
text$x	ENDS
?SetYValue@CProperties_Figure@@AAEXNH@Z ENDP		; CProperties_Figure::SetYValue
; Function compile flags: /Ogtp
; File D:\git\src\IBK\IBK_DRFN\ProjSrc\SrcChartEx\ChartAddIn\ChartAnalysisToolAddIn\Symbol\Properties_Figure.cpp
; File C:\Program Files (x86)\Microsoft Visual Studio\2019\Community\VC\Tools\MSVC\14.29.30133\atlmfc\include\afxwin2.inl
; File D:\git\src\IBK\IBK_DRFN\ProjSrc\SrcChartEx\ChartAddIn\ChartAnalysisToolAddIn\Symbol\Properties_Figure.cpp
; File C:\Program Files (x86)\Microsoft Visual Studio\2019\Community\VC\Tools\MSVC\14.29.30133\atlmfc\include\atltime.h
; File C:\Program Files (x86)\Microsoft Visual Studio\2019\Community\VC\Tools\MSVC\14.29.30133\atlmfc\include\afxwin2.inl
; File D:\git\src\IBK\IBK_DRFN\ProjSrc\SrcChartEx\ChartAddIn\ChartAnalysisToolAddIn\Symbol\Properties_Figure.cpp
; File C:\Program Files (x86)\Microsoft Visual Studio\2019\Community\VC\Tools\MSVC\14.29.30133\atlmfc\include\atltime.h
; File D:\git\src\IBK\IBK_DRFN\ProjSrc\SrcChartEx\ChartAddIn\ChartAnalysisToolAddIn\Symbol\Properties_Figure.cpp
; File C:\Program Files (x86)\Microsoft Visual Studio\2019\Community\VC\Tools\MSVC\14.29.30133\atlmfc\include\afxwin2.inl
; File D:\git\src\IBK\IBK_DRFN\ProjSrc\SrcChartEx\ChartAddIn\ChartAnalysisToolAddIn\Symbol\Properties_Figure.cpp
; File C:\Program Files (x86)\Microsoft Visual Studio\2019\Community\VC\Tools\MSVC\14.29.30133\atlmfc\include\atltime.h
; File D:\git\src\IBK\IBK_DRFN\ProjSrc\SrcChartEx\ChartAddIn\ChartAnalysisToolAddIn\Symbol\Properties_Figure.cpp
; File C:\Program Files (x86)\Microsoft Visual Studio\2019\Community\VC\Tools\MSVC\14.29.30133\atlmfc\include\afxwin2.inl
; File D:\git\src\IBK\IBK_DRFN\ProjSrc\SrcChartEx\ChartAddIn\ChartAnalysisToolAddIn\Symbol\Properties_Figure.cpp
; File C:\Program Files (x86)\Microsoft Visual Studio\2019\Community\VC\Tools\MSVC\14.29.30133\atlmfc\include\afxwin2.inl
; File D:\git\src\IBK\IBK_DRFN\ProjSrc\SrcChartEx\ChartAddIn\ChartAnalysisToolAddIn\Symbol\Properties_Figure.cpp
; File C:\Program Files (x86)\Microsoft Visual Studio\2019\Community\VC\Tools\MSVC\14.29.30133\atlmfc\include\afxwin2.inl
; File D:\git\src\IBK\IBK_DRFN\ProjSrc\SrcChartEx\ChartAddIn\ChartAnalysisToolAddIn\Symbol\Properties_Figure.cpp
;	COMDAT ?SetDateValueLists@CProperties_Figure@@AAEXXZ
_TEXT	SEGMENT
_xTime$ = -152						; size = 8
$T2 = -144						; size = 8
$T3 = -144						; size = 8
$T4 = -144						; size = 8
$T5 = -144						; size = 8
$T6 = -140						; size = 4
$T7 = -140						; size = 4
$T8 = -136						; size = 4
$T9 = -136						; size = 4
_strXDate$ = -132					; size = 4
_strYValue$ = -128					; size = 4
_ptmTemp$10 = -124					; size = 36
_ptmTemp$11 = -124					; size = 36
_ptmTemp$12 = -88					; size = 36
_ptmTemp$13 = -88					; size = 36
_ptmTemp$14 = -52					; size = 36
_ptmTemp$15 = -52					; size = 36
__$ArrayPad$ = -16					; size = 4
__$EHRec$ = -12						; size = 12
?SetDateValueLists@CProperties_Figure@@AAEXXZ PROC	; CProperties_Figure::SetDateValueLists, COMDAT
; _this$ = ecx

; 334  : {

  00000	55		 push	 ebp
  00001	8b ec		 mov	 ebp, esp
  00003	6a ff		 push	 -1
  00005	68 00 00 00 00	 push	 __ehhandler$?SetDateValueLists@CProperties_Figure@@AAEXXZ
  0000a	64 a1 00 00 00
	00		 mov	 eax, DWORD PTR fs:0
  00010	50		 push	 eax
  00011	81 ec 8c 00 00
	00		 sub	 esp, 140		; 0000008cH
  00017	a1 00 00 00 00	 mov	 eax, DWORD PTR ___security_cookie
  0001c	33 c5		 xor	 eax, ebp
  0001e	89 45 f0	 mov	 DWORD PTR __$ArrayPad$[ebp], eax
  00021	53		 push	 ebx
  00022	56		 push	 esi
  00023	57		 push	 edi
  00024	50		 push	 eax
  00025	8d 45 f4	 lea	 eax, DWORD PTR __$EHRec$[ebp]
  00028	64 a3 00 00 00
	00		 mov	 DWORD PTR fs:0, eax
  0002e	8b f1		 mov	 esi, ecx

; 335  : 	CString strXDate;

  00030	8d 8d 7c ff ff
	ff		 lea	 ecx, DWORD PTR _strXDate$[ebp]
  00036	ff 15 00 00 00
	00		 call	 DWORD PTR __imp_??0?$CStringT@DV?$StrTraitMFC_DLL@DV?$ChTraitsCRT@D@ATL@@@@@ATL@@QAE@XZ
; File C:\Program Files (x86)\Microsoft Visual Studio\2019\Community\VC\Tools\MSVC\14.29.30133\atlmfc\include\afxwin2.inl

; 124  : 	{ ASSERT(::IsWindow(m_hWnd)); return ::IsWindowVisible(m_hWnd); }

  0003c	ff b6 f0 04 00
	00		 push	 DWORD PTR [esi+1264]
  00042	8b 3d 00 00 00
	00		 mov	 edi, DWORD PTR __imp__IsWindowVisible@4
  00048	0f 57 c0	 xorps	 xmm0, xmm0
; File D:\git\src\IBK\IBK_DRFN\ProjSrc\SrcChartEx\ChartAddIn\ChartAnalysisToolAddIn\Symbol\Properties_Figure.cpp

; 335  : 	CString strXDate;

  0004b	c7 45 fc 00 00
	00 00		 mov	 DWORD PTR __$EHRec$[ebp+8], 0
; File C:\Program Files (x86)\Microsoft Visual Studio\2019\Community\VC\Tools\MSVC\14.29.30133\atlmfc\include\atltime.h

; 412  : 	m_time(0)

  00052	66 0f 13 85 68
	ff ff ff	 movlpd	 QWORD PTR _xTime$[ebp], xmm0
; File C:\Program Files (x86)\Microsoft Visual Studio\2019\Community\VC\Tools\MSVC\14.29.30133\atlmfc\include\afxwin2.inl

; 124  : 	{ ASSERT(::IsWindow(m_hWnd)); return ::IsWindowVisible(m_hWnd); }

  0005a	ff d7		 call	 edi
; File D:\git\src\IBK\IBK_DRFN\ProjSrc\SrcChartEx\ChartAddIn\ChartAnalysisToolAddIn\Symbol\Properties_Figure.cpp

; 337  : 	if(m_ctrlXDateTime1.IsWindowVisible() == TRUE)

  0005c	8b 1d 00 00 00
	00		 mov	 ebx, DWORD PTR __imp___localtime64_s
  00062	83 f8 01	 cmp	 eax, 1
  00065	0f 85 cb 00 00
	00		 jne	 $LN132@SetDateVal

; 338  : 	{
; 339  : 		m_ctrlXDateTime1.GetTime(xTime);

  0006b	8d 85 68 ff ff
	ff		 lea	 eax, DWORD PTR _xTime$[ebp]
  00071	50		 push	 eax
  00072	8d 8e d0 04 00
	00		 lea	 ecx, DWORD PTR [esi+1232]
  00078	e8 00 00 00 00	 call	 ?GetTime@CDateTimeCtrl@@QBEKAAVCTime@ATL@@@Z ; CDateTimeCtrl::GetTime
; File C:\Program Files (x86)\Microsoft Visual Studio\2019\Community\VC\Tools\MSVC\14.29.30133\atlmfc\include\atltime.h

; 614  : 		errno_t err = _localtime64_s(&ptmTemp, &m_time);

  0007d	8d 85 68 ff ff
	ff		 lea	 eax, DWORD PTR _xTime$[ebp]
  00083	50		 push	 eax
  00084	8d 45 cc	 lea	 eax, DWORD PTR _ptmTemp$15[ebp]
  00087	50		 push	 eax
  00088	ff d3		 call	 ebx

; 615  : 
; 616  : 		if (err != 0)

  0008a	33 c9		 xor	 ecx, ecx
  0008c	85 c0		 test	 eax, eax

; 614  : 		errno_t err = _localtime64_s(&ptmTemp, &m_time);

  0008e	8d 85 68 ff ff
	ff		 lea	 eax, DWORD PTR _xTime$[ebp]

; 616  : 		if (err != 0)

  00094	0f 44 4d d8	 cmove	 ecx, DWORD PTR _ptmTemp$15[ebp+12]

; 614  : 		errno_t err = _localtime64_s(&ptmTemp, &m_time);

  00098	50		 push	 eax
  00099	8d 45 a8	 lea	 eax, DWORD PTR _ptmTemp$13[ebp]

; 616  : 		if (err != 0)

  0009c	89 8d 74 ff ff
	ff		 mov	 DWORD PTR $T7[ebp], ecx

; 614  : 		errno_t err = _localtime64_s(&ptmTemp, &m_time);

  000a2	50		 push	 eax
  000a3	ff d3		 call	 ebx
  000a5	83 c4 10	 add	 esp, 16			; 00000010H

; 615  : 
; 616  : 		if (err != 0)

  000a8	85 c0		 test	 eax, eax
  000aa	75 0c		 jne	 SHORT $LN32@SetDateVal

; 671  : 	return ptm ? ptm->tm_mon + 1 : 0;

  000ac	8b 45 b8	 mov	 eax, DWORD PTR _ptmTemp$13[ebp+16]
  000af	40		 inc	 eax
  000b0	89 85 78 ff ff
	ff		 mov	 DWORD PTR $T9[ebp], eax
  000b6	eb 0a		 jmp	 SHORT $LN33@SetDateVal
$LN32@SetDateVal:
  000b8	c7 85 78 ff ff
	ff 00 00 00 00	 mov	 DWORD PTR $T9[ebp], 0
$LN33@SetDateVal:

; 614  : 		errno_t err = _localtime64_s(&ptmTemp, &m_time);

  000c2	8d 85 68 ff ff
	ff		 lea	 eax, DWORD PTR _xTime$[ebp]
  000c8	50		 push	 eax
  000c9	8d 45 84	 lea	 eax, DWORD PTR _ptmTemp$11[ebp]
  000cc	50		 push	 eax
  000cd	ff d3		 call	 ebx
  000cf	83 c4 08	 add	 esp, 8

; 615  : 
; 616  : 		if (err != 0)

  000d2	85 c0		 test	 eax, eax
  000d4	75 0a		 jne	 SHORT $LN48@SetDateVal

; 662  : 	return ptm ? (ptm->tm_year) + 1900 : 0 ;

  000d6	8b 45 98	 mov	 eax, DWORD PTR _ptmTemp$11[ebp+20]
  000d9	05 6c 07 00 00	 add	 eax, 1900		; 0000076cH
  000de	eb 02		 jmp	 SHORT $LN49@SetDateVal
$LN48@SetDateVal:
  000e0	33 c0		 xor	 eax, eax
$LN49@SetDateVal:
; File D:\git\src\IBK\IBK_DRFN\ProjSrc\SrcChartEx\ChartAddIn\ChartAnalysisToolAddIn\Symbol\Properties_Figure.cpp

; 344  : 		strXDate.Format(_T("%04d%02d%02d%s"),xTime.GetYear(),xTime.GetMonth(),xTime.GetDay(), _T("000000"));

  000e2	68 00 00 00 00	 push	 OFFSET ??_C@_06GEKNBBDK@000000@
  000e7	ff b5 74 ff ff
	ff		 push	 DWORD PTR $T7[ebp]
  000ed	ff b5 78 ff ff
	ff		 push	 DWORD PTR $T9[ebp]
  000f3	50		 push	 eax
  000f4	8d 85 7c ff ff
	ff		 lea	 eax, DWORD PTR _strXDate$[ebp]
  000fa	68 00 00 00 00	 push	 OFFSET ??_C@_0P@NDLMDLNF@?$CF04d?$CF02d?$CF02d?$CFs@
  000ff	50		 push	 eax
  00100	ff 15 00 00 00
	00		 call	 DWORD PTR __imp_?Format@?$CStringT@DV?$StrTraitMFC_DLL@DV?$ChTraitsCRT@D@ATL@@@@@ATL@@QAAXPBDZZ

; 345  : 		__int64 lMakeTime = _atoi64(strXDate);

  00106	ff b5 7c ff ff
	ff		 push	 DWORD PTR _strXDate$[ebp]
  0010c	ff 15 00 00 00
	00		 call	 DWORD PTR __imp___atoi64
  00112	83 c4 1c	 add	 esp, 28			; 0000001cH

; 346  : 		m_coordStart.SetX((double)lMakeTime);

  00115	8b c8		 mov	 ecx, eax
  00117	e8 00 00 00 00	 call	 __ltod3
  0011c	8d 85 70 ff ff
	ff		 lea	 eax, DWORD PTR $T5[ebp]
  00122	f2 0f 11 85 70
	ff ff ff	 movsd	 QWORD PTR $T5[ebp], xmm0
  0012a	50		 push	 eax
  0012b	8d 8e f8 05 00
	00		 lea	 ecx, DWORD PTR [esi+1528]
  00131	e8 00 00 00 00	 call	 ?SetX@CCoordinate@@QAEXABN@Z ; CCoordinate::SetX
$LN132@SetDateVal:
; File C:\Program Files (x86)\Microsoft Visual Studio\2019\Community\VC\Tools\MSVC\14.29.30133\atlmfc\include\afxwin2.inl

; 124  : 	{ ASSERT(::IsWindow(m_hWnd)); return ::IsWindowVisible(m_hWnd); }

  00136	ff b6 70 05 00
	00		 push	 DWORD PTR [esi+1392]
  0013c	ff d7		 call	 edi
; File D:\git\src\IBK\IBK_DRFN\ProjSrc\SrcChartEx\ChartAddIn\ChartAnalysisToolAddIn\Symbol\Properties_Figure.cpp

; 352  : 	if(m_ctrlXDateTime2.IsWindowVisible() == TRUE)

  0013e	83 f8 01	 cmp	 eax, 1
  00141	0f 85 cb 00 00
	00		 jne	 $LN133@SetDateVal

; 353  : 	{
; 354  : 		m_ctrlXDateTime2.GetTime(xTime);

  00147	8d 85 68 ff ff
	ff		 lea	 eax, DWORD PTR _xTime$[ebp]
  0014d	50		 push	 eax
  0014e	8d 8e 50 05 00
	00		 lea	 ecx, DWORD PTR [esi+1360]
  00154	e8 00 00 00 00	 call	 ?GetTime@CDateTimeCtrl@@QBEKAAVCTime@ATL@@@Z ; CDateTimeCtrl::GetTime
; File C:\Program Files (x86)\Microsoft Visual Studio\2019\Community\VC\Tools\MSVC\14.29.30133\atlmfc\include\atltime.h

; 614  : 		errno_t err = _localtime64_s(&ptmTemp, &m_time);

  00159	8d 85 68 ff ff
	ff		 lea	 eax, DWORD PTR _xTime$[ebp]
  0015f	50		 push	 eax
  00160	8d 45 84	 lea	 eax, DWORD PTR _ptmTemp$10[ebp]
  00163	50		 push	 eax
  00164	ff d3		 call	 ebx

; 615  : 
; 616  : 		if (err != 0)

  00166	33 c9		 xor	 ecx, ecx
  00168	85 c0		 test	 eax, eax

; 614  : 		errno_t err = _localtime64_s(&ptmTemp, &m_time);

  0016a	8d 85 68 ff ff
	ff		 lea	 eax, DWORD PTR _xTime$[ebp]

; 616  : 		if (err != 0)

  00170	0f 44 4d 90	 cmove	 ecx, DWORD PTR _ptmTemp$10[ebp+12]

; 614  : 		errno_t err = _localtime64_s(&ptmTemp, &m_time);

  00174	50		 push	 eax
  00175	8d 45 a8	 lea	 eax, DWORD PTR _ptmTemp$12[ebp]

; 616  : 		if (err != 0)

  00178	89 8d 74 ff ff
	ff		 mov	 DWORD PTR $T6[ebp], ecx

; 614  : 		errno_t err = _localtime64_s(&ptmTemp, &m_time);

  0017e	50		 push	 eax
  0017f	ff d3		 call	 ebx
  00181	83 c4 10	 add	 esp, 16			; 00000010H

; 615  : 
; 616  : 		if (err != 0)

  00184	85 c0		 test	 eax, eax
  00186	75 0c		 jne	 SHORT $LN84@SetDateVal

; 671  : 	return ptm ? ptm->tm_mon + 1 : 0;

  00188	8b 45 b8	 mov	 eax, DWORD PTR _ptmTemp$12[ebp+16]
  0018b	40		 inc	 eax
  0018c	89 85 78 ff ff
	ff		 mov	 DWORD PTR $T8[ebp], eax
  00192	eb 0a		 jmp	 SHORT $LN85@SetDateVal
$LN84@SetDateVal:
  00194	c7 85 78 ff ff
	ff 00 00 00 00	 mov	 DWORD PTR $T8[ebp], 0
$LN85@SetDateVal:

; 614  : 		errno_t err = _localtime64_s(&ptmTemp, &m_time);

  0019e	8d 85 68 ff ff
	ff		 lea	 eax, DWORD PTR _xTime$[ebp]
  001a4	50		 push	 eax
  001a5	8d 45 cc	 lea	 eax, DWORD PTR _ptmTemp$14[ebp]
  001a8	50		 push	 eax
  001a9	ff d3		 call	 ebx
  001ab	83 c4 08	 add	 esp, 8

; 615  : 
; 616  : 		if (err != 0)

  001ae	85 c0		 test	 eax, eax
  001b0	75 0a		 jne	 SHORT $LN100@SetDateVal

; 662  : 	return ptm ? (ptm->tm_year) + 1900 : 0 ;

  001b2	8b 45 e0	 mov	 eax, DWORD PTR _ptmTemp$14[ebp+20]
  001b5	05 6c 07 00 00	 add	 eax, 1900		; 0000076cH
  001ba	eb 02		 jmp	 SHORT $LN101@SetDateVal
$LN100@SetDateVal:
  001bc	33 c0		 xor	 eax, eax
$LN101@SetDateVal:
; File D:\git\src\IBK\IBK_DRFN\ProjSrc\SrcChartEx\ChartAddIn\ChartAnalysisToolAddIn\Symbol\Properties_Figure.cpp

; 359  : 		strXDate.Format(_T("%04d%02d%02d%s"),xTime.GetYear(),xTime.GetMonth(),xTime.GetDay(), _T("000000"));

  001be	68 00 00 00 00	 push	 OFFSET ??_C@_06GEKNBBDK@000000@
  001c3	ff b5 74 ff ff
	ff		 push	 DWORD PTR $T6[ebp]
  001c9	ff b5 78 ff ff
	ff		 push	 DWORD PTR $T8[ebp]
  001cf	50		 push	 eax
  001d0	8d 85 7c ff ff
	ff		 lea	 eax, DWORD PTR _strXDate$[ebp]
  001d6	68 00 00 00 00	 push	 OFFSET ??_C@_0P@NDLMDLNF@?$CF04d?$CF02d?$CF02d?$CFs@
  001db	50		 push	 eax
  001dc	ff 15 00 00 00
	00		 call	 DWORD PTR __imp_?Format@?$CStringT@DV?$StrTraitMFC_DLL@DV?$ChTraitsCRT@D@ATL@@@@@ATL@@QAAXPBDZZ

; 360  : 		__int64 lMakeTime = _atoi64(strXDate);

  001e2	ff b5 7c ff ff
	ff		 push	 DWORD PTR _strXDate$[ebp]
  001e8	ff 15 00 00 00
	00		 call	 DWORD PTR __imp___atoi64
  001ee	83 c4 1c	 add	 esp, 28			; 0000001cH

; 361  : 		m_coordEnd.SetX((double)lMakeTime);

  001f1	8b c8		 mov	 ecx, eax
  001f3	e8 00 00 00 00	 call	 __ltod3
  001f8	8d 85 70 ff ff
	ff		 lea	 eax, DWORD PTR $T4[ebp]
  001fe	f2 0f 11 85 70
	ff ff ff	 movsd	 QWORD PTR $T4[ebp], xmm0
  00206	50		 push	 eax
  00207	8d 8e 10 06 00
	00		 lea	 ecx, DWORD PTR [esi+1552]
  0020d	e8 00 00 00 00	 call	 ?SetX@CCoordinate@@QAEXABN@Z ; CCoordinate::SetX
$LN133@SetDateVal:

; 368  : 	CString strYValue;

  00212	8d 4d 80	 lea	 ecx, DWORD PTR _strYValue$[ebp]
  00215	ff 15 00 00 00
	00		 call	 DWORD PTR __imp_??0?$CStringT@DV?$StrTraitMFC_DLL@DV?$ChTraitsCRT@D@ATL@@@@@ATL@@QAE@XZ
; File C:\Program Files (x86)\Microsoft Visual Studio\2019\Community\VC\Tools\MSVC\14.29.30133\atlmfc\include\afxwin2.inl

; 124  : 	{ ASSERT(::IsWindow(m_hWnd)); return ::IsWindowVisible(m_hWnd); }

  0021b	ff b6 f0 03 00
	00		 push	 DWORD PTR [esi+1008]
; File D:\git\src\IBK\IBK_DRFN\ProjSrc\SrcChartEx\ChartAddIn\ChartAnalysisToolAddIn\Symbol\Properties_Figure.cpp

; 368  : 	CString strYValue;

  00221	c6 45 fc 01	 mov	 BYTE PTR __$EHRec$[ebp+8], 1
; File C:\Program Files (x86)\Microsoft Visual Studio\2019\Community\VC\Tools\MSVC\14.29.30133\atlmfc\include\afxwin2.inl

; 124  : 	{ ASSERT(::IsWindow(m_hWnd)); return ::IsWindowVisible(m_hWnd); }

  00225	ff d7		 call	 edi
; File D:\git\src\IBK\IBK_DRFN\ProjSrc\SrcChartEx\ChartAddIn\ChartAnalysisToolAddIn\Symbol\Properties_Figure.cpp

; 369  : 	if(m_ctrlEditValue1.IsWindowVisible() == TRUE)

  00227	83 f8 01	 cmp	 eax, 1
  0022a	75 33		 jne	 SHORT $LN4@SetDateVal

; 370  : 	{
; 371  : 		m_ctrlEditValue1.GetWindowText(strYValue);

  0022c	8d 45 80	 lea	 eax, DWORD PTR _strYValue$[ebp]
  0022f	50		 push	 eax
  00230	8d 8e d0 03 00
	00		 lea	 ecx, DWORD PTR [esi+976]
  00236	e8 00 00 00 00	 call	 ?GetWindowTextA@CWnd@@QBEXAAV?$CStringT@DV?$StrTraitMFC_DLL@DV?$ChTraitsCRT@D@ATL@@@@@ATL@@@Z ; CWnd::GetWindowTextA

; 372  : 		m_coordStart.SetY(atof(strYValue));

  0023b	ff 75 80	 push	 DWORD PTR _strYValue$[ebp]
  0023e	ff 15 00 00 00
	00		 call	 DWORD PTR __imp__atof
  00244	83 c4 04	 add	 esp, 4
  00247	8d 85 70 ff ff
	ff		 lea	 eax, DWORD PTR $T3[ebp]
  0024d	8d 8e f8 05 00
	00		 lea	 ecx, DWORD PTR [esi+1528]
  00253	dd 9d 70 ff ff
	ff		 fstp	 QWORD PTR $T3[ebp]
  00259	50		 push	 eax
  0025a	e8 00 00 00 00	 call	 ?SetY@CCoordinate@@QAEXABN@Z ; CCoordinate::SetY
$LN4@SetDateVal:
; File C:\Program Files (x86)\Microsoft Visual Studio\2019\Community\VC\Tools\MSVC\14.29.30133\atlmfc\include\afxwin2.inl

; 124  : 	{ ASSERT(::IsWindow(m_hWnd)); return ::IsWindowVisible(m_hWnd); }

  0025f	ff b6 70 04 00
	00		 push	 DWORD PTR [esi+1136]
  00265	ff d7		 call	 edi
; File D:\git\src\IBK\IBK_DRFN\ProjSrc\SrcChartEx\ChartAddIn\ChartAnalysisToolAddIn\Symbol\Properties_Figure.cpp

; 376  : 	if(m_ctrlEditValue2.IsWindowVisible() == TRUE)

  00267	83 f8 01	 cmp	 eax, 1
  0026a	75 33		 jne	 SHORT $LN5@SetDateVal

; 377  : 	{
; 378  : 		m_ctrlEditValue2.GetWindowText(strYValue);

  0026c	8d 45 80	 lea	 eax, DWORD PTR _strYValue$[ebp]
  0026f	50		 push	 eax
  00270	8d 8e 50 04 00
	00		 lea	 ecx, DWORD PTR [esi+1104]
  00276	e8 00 00 00 00	 call	 ?GetWindowTextA@CWnd@@QBEXAAV?$CStringT@DV?$StrTraitMFC_DLL@DV?$ChTraitsCRT@D@ATL@@@@@ATL@@@Z ; CWnd::GetWindowTextA

; 379  : 		m_coordEnd.SetY(atof(strYValue));

  0027b	ff 75 80	 push	 DWORD PTR _strYValue$[ebp]
  0027e	ff 15 00 00 00
	00		 call	 DWORD PTR __imp__atof
  00284	83 c4 04	 add	 esp, 4
  00287	8d 85 70 ff ff
	ff		 lea	 eax, DWORD PTR $T2[ebp]
  0028d	8d 8e 10 06 00
	00		 lea	 ecx, DWORD PTR [esi+1552]
  00293	dd 9d 70 ff ff
	ff		 fstp	 QWORD PTR $T2[ebp]
  00299	50		 push	 eax
  0029a	e8 00 00 00 00	 call	 ?SetY@CCoordinate@@QAEXABN@Z ; CCoordinate::SetY
$LN5@SetDateVal:

; 380  : 		//m_stAnalysisTool.dEndYValue = atof(strYValue);
; 381  : 	}
; 382  : }

  0029f	8d 4d 80	 lea	 ecx, DWORD PTR _strYValue$[ebp]
  002a2	ff 15 00 00 00
	00		 call	 DWORD PTR __imp_??1?$CStringT@DV?$StrTraitMFC_DLL@DV?$ChTraitsCRT@D@ATL@@@@@ATL@@QAE@XZ
  002a8	8d 8d 7c ff ff
	ff		 lea	 ecx, DWORD PTR _strXDate$[ebp]
  002ae	ff 15 00 00 00
	00		 call	 DWORD PTR __imp_??1?$CStringT@DV?$StrTraitMFC_DLL@DV?$ChTraitsCRT@D@ATL@@@@@ATL@@QAE@XZ
  002b4	8b 4d f4	 mov	 ecx, DWORD PTR __$EHRec$[ebp]
  002b7	64 89 0d 00 00
	00 00		 mov	 DWORD PTR fs:0, ecx
  002be	59		 pop	 ecx
  002bf	5f		 pop	 edi
  002c0	5e		 pop	 esi
  002c1	5b		 pop	 ebx
  002c2	8b 4d f0	 mov	 ecx, DWORD PTR __$ArrayPad$[ebp]
  002c5	33 cd		 xor	 ecx, ebp
  002c7	e8 00 00 00 00	 call	 @__security_check_cookie@4
  002cc	8b e5		 mov	 esp, ebp
  002ce	5d		 pop	 ebp
  002cf	c3		 ret	 0
_TEXT	ENDS
;	COMDAT text$x
text$x	SEGMENT
__unwindfunclet$?SetDateValueLists@CProperties_Figure@@AAEXXZ$0:
  00000	8d 8d 7c ff ff
	ff		 lea	 ecx, DWORD PTR _strXDate$[ebp]
  00006	ff 25 00 00 00
	00		 jmp	 DWORD PTR __imp_??1?$CStringT@DV?$StrTraitMFC_DLL@DV?$ChTraitsCRT@D@ATL@@@@@ATL@@QAE@XZ
__unwindfunclet$?SetDateValueLists@CProperties_Figure@@AAEXXZ$1:
  0000c	8d 4d 80	 lea	 ecx, DWORD PTR _strYValue$[ebp]
  0000f	ff 25 00 00 00
	00		 jmp	 DWORD PTR __imp_??1?$CStringT@DV?$StrTraitMFC_DLL@DV?$ChTraitsCRT@D@ATL@@@@@ATL@@QAE@XZ
  00015	cc		 int	 3
  00016	cc		 int	 3
  00017	cc		 int	 3
  00018	cc		 int	 3
  00019	cc		 int	 3
__ehhandler$?SetDateValueLists@CProperties_Figure@@AAEXXZ:
  0001a	90		 npad	 1
  0001b	90		 npad	 1
  0001c	8b 54 24 08	 mov	 edx, DWORD PTR [esp+8]
  00020	8d 42 0c	 lea	 eax, DWORD PTR [edx+12]
  00023	8b 8a 64 ff ff
	ff		 mov	 ecx, DWORD PTR [edx-156]
  00029	33 c8		 xor	 ecx, eax
  0002b	e8 00 00 00 00	 call	 @__security_check_cookie@4
  00030	8b 4a fc	 mov	 ecx, DWORD PTR [edx-4]
  00033	33 c8		 xor	 ecx, eax
  00035	e8 00 00 00 00	 call	 @__security_check_cookie@4
  0003a	b8 00 00 00 00	 mov	 eax, OFFSET __ehfuncinfo$?SetDateValueLists@CProperties_Figure@@AAEXXZ
  0003f	e9 00 00 00 00	 jmp	 ___CxxFrameHandler3
text$x	ENDS
?SetDateValueLists@CProperties_Figure@@AAEXXZ ENDP	; CProperties_Figure::SetDateValueLists
; Function compile flags: /Ogtp
; File D:\git\src\IBK\IBK_DRFN\ProjSrc\SrcChartEx\ChartAddIn\ChartAnalysisToolAddIn\Symbol\Properties_Figure.cpp
; File C:\Program Files (x86)\Microsoft Visual Studio\2019\Community\VC\Tools\MSVC\14.29.30133\atlmfc\include\afxwin1.inl
; File D:\git\src\IBK\IBK_DRFN\ProjSrc\SrcChartEx\ChartAddIn\ChartAnalysisToolAddIn\Include_Chart\Dll_Load\IMetaTable.h
; File C:\Program Files (x86)\Microsoft Visual Studio\2019\Community\VC\Tools\MSVC\14.29.30133\atlmfc\include\afxwin1.inl
; File D:\git\src\IBK\IBK_DRFN\ProjSrc\SrcChartEx\ChartAddIn\ChartAnalysisToolAddIn\Symbol\Properties_Figure.cpp
; File D:\git\src\IBK\IBK_DRFN\ProjSrc\SrcChartEx\ChartAddIn\ChartAnalysisToolAddIn\Include_Chart\Dll_Load\IMetaTable.h
; File C:\Program Files (x86)\Microsoft Visual Studio\2019\Community\VC\Tools\MSVC\14.29.30133\atlmfc\include\afxwin1.inl
; File D:\git\src\IBK\IBK_DRFN\ProjSrc\SrcChartEx\ChartAddIn\ChartAnalysisToolAddIn\Symbol\Properties_Figure.cpp
;	COMDAT ?InitializeData_Style@CProperties_Figure@@AAEXXZ
_TEXT	SEGMENT
___mlrs__$ = -16					; size = 4
__$EHRec$ = -12						; size = 12
?InitializeData_Style@CProperties_Figure@@AAEXXZ PROC	; CProperties_Figure::InitializeData_Style, COMDAT
; _this$ = ecx

; 127  : {

  00000	55		 push	 ebp
  00001	8b ec		 mov	 ebp, esp
  00003	6a ff		 push	 -1
  00005	68 00 00 00 00	 push	 __ehhandler$?InitializeData_Style@CProperties_Figure@@AAEXXZ
  0000a	64 a1 00 00 00
	00		 mov	 eax, DWORD PTR fs:0
  00010	50		 push	 eax
  00011	51		 push	 ecx
  00012	53		 push	 ebx
  00013	56		 push	 esi
  00014	57		 push	 edi
  00015	a1 00 00 00 00	 mov	 eax, DWORD PTR ___security_cookie
  0001a	33 c5		 xor	 eax, ebp
  0001c	50		 push	 eax
  0001d	8d 45 f4	 lea	 eax, DWORD PTR __$EHRec$[ebp]
  00020	64 a3 00 00 00
	00		 mov	 DWORD PTR fs:0, eax
  00026	8b d9		 mov	 ebx, ecx

; 128  : 	ML_SET_DEFAULT_RES();

  00028	e8 00 00 00 00	 call	 ?AfxGetStaticModuleState@@YGPAVAFX_MODULE_STATE@@XZ ; AfxGetStaticModuleState
  0002d	8b 78 08	 mov	 edi, DWORD PTR [eax+8]
; File C:\Program Files (x86)\Microsoft Visual Studio\2019\Community\VC\Tools\MSVC\14.29.30133\atlmfc\include\afxwin1.inl

; 25   : 		return afxCurrentResourceHandle; }

  00030	e8 00 00 00 00	 call	 ?AfxGetModuleState@@YGPAVAFX_MODULE_STATE@@XZ ; AfxGetModuleState
; File D:\git\src\IBK\IBK_DRFN\ProjSrc\SrcChartEx\ChartAddIn\ChartAnalysisToolAddIn\Include_Chart\Dll_Load\IMetaTable.h

; 1034 : 		m_hInstance = AfxGetResourceHandle();

  00035	8b 70 0c	 mov	 esi, DWORD PTR [eax+12]
  00038	89 75 f0	 mov	 DWORD PTR ___mlrs__$[ebp], esi
; File C:\Program Files (x86)\Microsoft Visual Studio\2019\Community\VC\Tools\MSVC\14.29.30133\atlmfc\include\afxwin1.inl

; 27   : 	{ ASSERT(hInstResource != NULL); afxCurrentResourceHandle = hInstResource; }

  0003b	e8 00 00 00 00	 call	 ?AfxGetModuleState@@YGPAVAFX_MODULE_STATE@@XZ ; AfxGetModuleState
  00040	89 78 0c	 mov	 DWORD PTR [eax+12], edi
; File D:\git\src\IBK\IBK_DRFN\ProjSrc\SrcChartEx\ChartAddIn\ChartAnalysisToolAddIn\Symbol\Properties_Figure.cpp

; 130  : 	m_ctlStyle.LoadBitmap(IDB_LINESTYLE, 5);

  00043	6a 05		 push	 5
  00045	68 41 1f 00 00	 push	 8001			; 00001f41H
  0004a	8d 8b b0 01 00
	00		 lea	 ecx, DWORD PTR [ebx+432]
  00050	c7 45 fc 00 00
	00 00		 mov	 DWORD PTR __$EHRec$[ebp+8], 0
  00057	e8 00 00 00 00	 call	 ?LoadBitmapA@CBitmapComboBox@@QAEXHI@Z ; CBitmapComboBox::LoadBitmapA

; 131  : 
; 132  : 	m_nStyle = (int)m_pProperties->GetStyle();

  0005c	8b 8b f0 05 00
	00		 mov	 ecx, DWORD PTR [ebx+1520]
  00062	e8 00 00 00 00	 call	 ?GetStyle@CPropertiesData_Figure@@QAEHXZ ; CPropertiesData_Figure::GetStyle
  00067	89 83 d4 05 00
	00		 mov	 DWORD PTR [ebx+1492], eax
; File D:\git\src\IBK\IBK_DRFN\ProjSrc\SrcChartEx\ChartAddIn\ChartAnalysisToolAddIn\Include_Chart\Dll_Load\IMetaTable.h

; 1038 : 	{

  0006d	c7 45 fc 01 00
	00 00		 mov	 DWORD PTR __$EHRec$[ebp+8], 1
; File C:\Program Files (x86)\Microsoft Visual Studio\2019\Community\VC\Tools\MSVC\14.29.30133\atlmfc\include\afxwin1.inl

; 27   : 	{ ASSERT(hInstResource != NULL); afxCurrentResourceHandle = hInstResource; }

  00074	e8 00 00 00 00	 call	 ?AfxGetModuleState@@YGPAVAFX_MODULE_STATE@@XZ ; AfxGetModuleState
  00079	89 70 0c	 mov	 DWORD PTR [eax+12], esi
; File D:\git\src\IBK\IBK_DRFN\ProjSrc\SrcChartEx\ChartAddIn\ChartAnalysisToolAddIn\Symbol\Properties_Figure.cpp

; 133  : }

  0007c	8b 4d f4	 mov	 ecx, DWORD PTR __$EHRec$[ebp]
  0007f	64 89 0d 00 00
	00 00		 mov	 DWORD PTR fs:0, ecx
  00086	59		 pop	 ecx
  00087	5f		 pop	 edi
  00088	5e		 pop	 esi
  00089	5b		 pop	 ebx
  0008a	8b e5		 mov	 esp, ebp
  0008c	5d		 pop	 ebp
  0008d	c3		 ret	 0
_TEXT	ENDS
;	COMDAT text$x
text$x	SEGMENT
__unwindfunclet$?InitializeData_Style@CProperties_Figure@@AAEXXZ$0:
  00000	8d 4d f0	 lea	 ecx, DWORD PTR ___mlrs__$[ebp]
  00003	e9 00 00 00 00	 jmp	 ??1CMultiLanguageResourceSetter@@QAE@XZ ; CMultiLanguageResourceSetter::~CMultiLanguageResourceSetter
  00008	cc		 int	 3
  00009	cc		 int	 3
  0000a	cc		 int	 3
  0000b	cc		 int	 3
  0000c	cc		 int	 3
__ehhandler$?InitializeData_Style@CProperties_Figure@@AAEXXZ:
  0000d	90		 npad	 1
  0000e	90		 npad	 1
  0000f	8b 54 24 08	 mov	 edx, DWORD PTR [esp+8]
  00013	8d 42 0c	 lea	 eax, DWORD PTR [edx+12]
  00016	8b 4a ec	 mov	 ecx, DWORD PTR [edx-20]
  00019	33 c8		 xor	 ecx, eax
  0001b	e8 00 00 00 00	 call	 @__security_check_cookie@4
  00020	b8 00 00 00 00	 mov	 eax, OFFSET __ehfuncinfo$?InitializeData_Style@CProperties_Figure@@AAEXXZ
  00025	e9 00 00 00 00	 jmp	 ___CxxFrameHandler3
text$x	ENDS
?InitializeData_Style@CProperties_Figure@@AAEXXZ ENDP	; CProperties_Figure::InitializeData_Style
; Function compile flags: /Ogtp
; File D:\git\src\IBK\IBK_DRFN\ProjSrc\SrcChartEx\ChartAddIn\ChartAnalysisToolAddIn\Symbol\Properties_Figure.cpp
; File C:\Program Files (x86)\Microsoft Visual Studio\2019\Community\VC\Tools\MSVC\14.29.30133\atlmfc\include\afxwin1.inl
; File D:\git\src\IBK\IBK_DRFN\ProjSrc\SrcChartEx\ChartAddIn\ChartAnalysisToolAddIn\Include_Chart\Dll_Load\IMetaTable.h
; File C:\Program Files (x86)\Microsoft Visual Studio\2019\Community\VC\Tools\MSVC\14.29.30133\atlmfc\include\afxwin1.inl
; File D:\git\src\IBK\IBK_DRFN\ProjSrc\SrcChartEx\ChartAddIn\ChartAnalysisToolAddIn\Symbol\Properties_Figure.cpp
; File D:\git\src\IBK\IBK_DRFN\ProjSrc\SrcChartEx\ChartAddIn\ChartAnalysisToolAddIn\Include_Chart\Dll_Load\IMetaTable.h
; File C:\Program Files (x86)\Microsoft Visual Studio\2019\Community\VC\Tools\MSVC\14.29.30133\atlmfc\include\afxwin1.inl
; File D:\git\src\IBK\IBK_DRFN\ProjSrc\SrcChartEx\ChartAddIn\ChartAnalysisToolAddIn\Symbol\Properties_Figure.cpp
;	COMDAT ?InitializeData_Width@CProperties_Figure@@AAEXXZ
_TEXT	SEGMENT
___mlrs__$ = -16					; size = 4
__$EHRec$ = -12						; size = 12
?InitializeData_Width@CProperties_Figure@@AAEXXZ PROC	; CProperties_Figure::InitializeData_Width, COMDAT
; _this$ = ecx

; 113  : {

  00000	55		 push	 ebp
  00001	8b ec		 mov	 ebp, esp
  00003	6a ff		 push	 -1
  00005	68 00 00 00 00	 push	 __ehhandler$?InitializeData_Width@CProperties_Figure@@AAEXXZ
  0000a	64 a1 00 00 00
	00		 mov	 eax, DWORD PTR fs:0
  00010	50		 push	 eax
  00011	51		 push	 ecx
  00012	53		 push	 ebx
  00013	56		 push	 esi
  00014	57		 push	 edi
  00015	a1 00 00 00 00	 mov	 eax, DWORD PTR ___security_cookie
  0001a	33 c5		 xor	 eax, ebp
  0001c	50		 push	 eax
  0001d	8d 45 f4	 lea	 eax, DWORD PTR __$EHRec$[ebp]
  00020	64 a3 00 00 00
	00		 mov	 DWORD PTR fs:0, eax
  00026	8b d9		 mov	 ebx, ecx

; 114  : 	ML_SET_DEFAULT_RES();

  00028	e8 00 00 00 00	 call	 ?AfxGetStaticModuleState@@YGPAVAFX_MODULE_STATE@@XZ ; AfxGetStaticModuleState
  0002d	8b 78 08	 mov	 edi, DWORD PTR [eax+8]
; File C:\Program Files (x86)\Microsoft Visual Studio\2019\Community\VC\Tools\MSVC\14.29.30133\atlmfc\include\afxwin1.inl

; 25   : 		return afxCurrentResourceHandle; }

  00030	e8 00 00 00 00	 call	 ?AfxGetModuleState@@YGPAVAFX_MODULE_STATE@@XZ ; AfxGetModuleState
; File D:\git\src\IBK\IBK_DRFN\ProjSrc\SrcChartEx\ChartAddIn\ChartAnalysisToolAddIn\Include_Chart\Dll_Load\IMetaTable.h

; 1034 : 		m_hInstance = AfxGetResourceHandle();

  00035	8b 70 0c	 mov	 esi, DWORD PTR [eax+12]
  00038	89 75 f0	 mov	 DWORD PTR ___mlrs__$[ebp], esi
; File C:\Program Files (x86)\Microsoft Visual Studio\2019\Community\VC\Tools\MSVC\14.29.30133\atlmfc\include\afxwin1.inl

; 27   : 	{ ASSERT(hInstResource != NULL); afxCurrentResourceHandle = hInstResource; }

  0003b	e8 00 00 00 00	 call	 ?AfxGetModuleState@@YGPAVAFX_MODULE_STATE@@XZ ; AfxGetModuleState
  00040	89 78 0c	 mov	 DWORD PTR [eax+12], edi
; File D:\git\src\IBK\IBK_DRFN\ProjSrc\SrcChartEx\ChartAddIn\ChartAnalysisToolAddIn\Symbol\Properties_Figure.cpp

; 116  : 	m_ctlWidth.LoadBitmap(IDB_LINEWIDTH, 5);

  00043	6a 05		 push	 5
  00045	68 3c 23 00 00	 push	 9020			; 0000233cH
  0004a	8d 8b 40 02 00
	00		 lea	 ecx, DWORD PTR [ebx+576]
  00050	c7 45 fc 00 00
	00 00		 mov	 DWORD PTR __$EHRec$[ebp+8], 0
  00057	e8 00 00 00 00	 call	 ?LoadBitmapA@CBitmapComboBox@@QAEXHI@Z ; CBitmapComboBox::LoadBitmapA

; 117  : 
; 118  : 	if(m_pProperties->GetWeight() <= 0)

  0005c	8b 8b f0 05 00
	00		 mov	 ecx, DWORD PTR [ebx+1520]
  00062	e8 00 00 00 00	 call	 ?GetWeight@CPropertiesData_Figure@@QAEHXZ ; CPropertiesData_Figure::GetWeight
  00067	85 c0		 test	 eax, eax
  00069	7f 04		 jg	 SHORT $LN2@Initialize

; 119  : 		m_nWidth = 0;

  0006b	33 c0		 xor	 eax, eax
  0006d	eb 23		 jmp	 SHORT $LN5@Initialize
$LN2@Initialize:

; 120  : 	else if(m_pProperties->GetWeight() >= 6)

  0006f	8b 8b f0 05 00
	00		 mov	 ecx, DWORD PTR [ebx+1520]
  00075	e8 00 00 00 00	 call	 ?GetWeight@CPropertiesData_Figure@@QAEHXZ ; CPropertiesData_Figure::GetWeight
  0007a	83 f8 06	 cmp	 eax, 6
  0007d	7c 07		 jl	 SHORT $LN4@Initialize

; 121  : 		m_nWidth = 4;

  0007f	b8 04 00 00 00	 mov	 eax, 4
  00084	eb 0c		 jmp	 SHORT $LN5@Initialize
$LN4@Initialize:

; 122  : 	else
; 123  : 		m_nWidth = m_pProperties->GetWeight() - 1;

  00086	8b 8b f0 05 00
	00		 mov	 ecx, DWORD PTR [ebx+1520]
  0008c	e8 00 00 00 00	 call	 ?GetWeight@CPropertiesData_Figure@@QAEHXZ ; CPropertiesData_Figure::GetWeight
  00091	48		 dec	 eax
$LN5@Initialize:
; File D:\git\src\IBK\IBK_DRFN\ProjSrc\SrcChartEx\ChartAddIn\ChartAnalysisToolAddIn\Include_Chart\Dll_Load\IMetaTable.h

; 1038 : 	{

  00092	c7 45 fc 01 00
	00 00		 mov	 DWORD PTR __$EHRec$[ebp+8], 1
  00099	89 83 d0 05 00
	00		 mov	 DWORD PTR [ebx+1488], eax
; File C:\Program Files (x86)\Microsoft Visual Studio\2019\Community\VC\Tools\MSVC\14.29.30133\atlmfc\include\afxwin1.inl

; 27   : 	{ ASSERT(hInstResource != NULL); afxCurrentResourceHandle = hInstResource; }

  0009f	e8 00 00 00 00	 call	 ?AfxGetModuleState@@YGPAVAFX_MODULE_STATE@@XZ ; AfxGetModuleState
  000a4	89 70 0c	 mov	 DWORD PTR [eax+12], esi
; File D:\git\src\IBK\IBK_DRFN\ProjSrc\SrcChartEx\ChartAddIn\ChartAnalysisToolAddIn\Symbol\Properties_Figure.cpp

; 124  : }

  000a7	8b 4d f4	 mov	 ecx, DWORD PTR __$EHRec$[ebp]
  000aa	64 89 0d 00 00
	00 00		 mov	 DWORD PTR fs:0, ecx
  000b1	59		 pop	 ecx
  000b2	5f		 pop	 edi
  000b3	5e		 pop	 esi
  000b4	5b		 pop	 ebx
  000b5	8b e5		 mov	 esp, ebp
  000b7	5d		 pop	 ebp
  000b8	c3		 ret	 0
_TEXT	ENDS
;	COMDAT text$x
text$x	SEGMENT
__unwindfunclet$?InitializeData_Width@CProperties_Figure@@AAEXXZ$0:
  00000	8d 4d f0	 lea	 ecx, DWORD PTR ___mlrs__$[ebp]
  00003	e9 00 00 00 00	 jmp	 ??1CMultiLanguageResourceSetter@@QAE@XZ ; CMultiLanguageResourceSetter::~CMultiLanguageResourceSetter
  00008	cc		 int	 3
  00009	cc		 int	 3
  0000a	cc		 int	 3
  0000b	cc		 int	 3
  0000c	cc		 int	 3
__ehhandler$?InitializeData_Width@CProperties_Figure@@AAEXXZ:
  0000d	90		 npad	 1
  0000e	90		 npad	 1
  0000f	8b 54 24 08	 mov	 edx, DWORD PTR [esp+8]
  00013	8d 42 0c	 lea	 eax, DWORD PTR [edx+12]
  00016	8b 4a ec	 mov	 ecx, DWORD PTR [edx-20]
  00019	33 c8		 xor	 ecx, eax
  0001b	e8 00 00 00 00	 call	 @__security_check_cookie@4
  00020	b8 00 00 00 00	 mov	 eax, OFFSET __ehfuncinfo$?InitializeData_Width@CProperties_Figure@@AAEXXZ
  00025	e9 00 00 00 00	 jmp	 ___CxxFrameHandler3
text$x	ENDS
?InitializeData_Width@CProperties_Figure@@AAEXXZ ENDP	; CProperties_Figure::InitializeData_Width
; Function compile flags: /Ogtp
; File D:\git\src\IBK\IBK_DRFN\ProjSrc\SrcChartEx\ChartAddIn\ChartAnalysisToolAddIn\Symbol\Properties_Figure.cpp
;	COMDAT ?GetMessageMap@CProperties_Figure@@MBEPBUAFX_MSGMAP@@XZ
_TEXT	SEGMENT
?GetMessageMap@CProperties_Figure@@MBEPBUAFX_MSGMAP@@XZ PROC ; CProperties_Figure::GetMessageMap, COMDAT
; _this$ = ecx

; 88   : BEGIN_MESSAGE_MAP(CProperties_Figure, CDialog)

  00000	b8 00 00 00 00	 mov	 eax, OFFSET ?messageMap@?1??GetThisMessageMap@CProperties_Figure@@KGPBUAFX_MSGMAP@@XZ@4U3@B
  00005	c3		 ret	 0
?GetMessageMap@CProperties_Figure@@MBEPBUAFX_MSGMAP@@XZ ENDP ; CProperties_Figure::GetMessageMap
_TEXT	ENDS
; Function compile flags: /Ogtp
; File D:\git\src\IBK\IBK_DRFN\ProjSrc\SrcChartEx\ChartAddIn\ChartAnalysisToolAddIn\Symbol\Properties_Figure.cpp
;	COMDAT ?GetThisMessageMap@CProperties_Figure@@KGPBUAFX_MSGMAP@@XZ
_TEXT	SEGMENT
?GetThisMessageMap@CProperties_Figure@@KGPBUAFX_MSGMAP@@XZ PROC ; CProperties_Figure::GetThisMessageMap, COMDAT

; 89   : 	//{{AFX_MSG_MAP(CProperties_Figure)
; 90   : 	ON_BN_CLICKED(IDC_COLOR, OnColor)
; 91   : 	ON_BN_CLICKED(IDC_CHECK, OnCheck)
; 92   : 	ON_CBN_SELCHANGE(IDC_WIDTH, OnSelchangeWidth)
; 93   : 	ON_CBN_SELCHANGE(IDC_STYLE, OnSelchangeStyle)
; 94   : 	ON_NOTIFY(DTN_DATETIMECHANGE, IDC_DATETIMEPICKER_XDATE1, OnDatetimechangeDatetimepickerXdate1)
; 95   : 	ON_NOTIFY(DTN_DATETIMECHANGE, IDC_DATETIMEPICKER_XDATE2, OnDatetimechangeDatetimepickerXdate2)
; 96   : 	//}}AFX_MSG_MAP
; 97   : END_MESSAGE_MAP()

  00000	b8 00 00 00 00	 mov	 eax, OFFSET ?messageMap@?1??GetThisMessageMap@CProperties_Figure@@KGPBUAFX_MSGMAP@@XZ@4U3@B
  00005	c3		 ret	 0
?GetThisMessageMap@CProperties_Figure@@KGPBUAFX_MSGMAP@@XZ ENDP ; CProperties_Figure::GetThisMessageMap
_TEXT	ENDS
; Function compile flags: /Ogtp
; File D:\git\src\IBK\IBK_DRFN\ProjSrc\SrcChartEx\ChartAddIn\ChartAnalysisToolAddIn\Symbol\Properties_Figure.cpp
;	COMDAT ?OnCancel@CProperties_Figure@@MAEXXZ
_TEXT	SEGMENT
?OnCancel@CProperties_Figure@@MAEXXZ PROC		; CProperties_Figure::OnCancel, COMDAT
; _this$ = ecx

; 487  : 	
; 488  : 	CDialog::OnCancel();

  00000	e9 00 00 00 00	 jmp	 ?OnCancel@CDialog@@MAEXXZ ; CDialog::OnCancel
?OnCancel@CProperties_Figure@@MAEXXZ ENDP		; CProperties_Figure::OnCancel
_TEXT	ENDS
; Function compile flags: /Ogtp
; File D:\git\src\IBK\IBK_DRFN\ProjSrc\SrcChartEx\ChartAddIn\ChartAnalysisToolAddIn\Symbol\Properties_Figure.cpp
;	COMDAT ?OnOK@CProperties_Figure@@MAEXXZ
_TEXT	SEGMENT
?OnOK@CProperties_Figure@@MAEXXZ PROC			; CProperties_Figure::OnOK, COMDAT
; _this$ = ecx

; 425  : {

  00000	56		 push	 esi
  00001	8b f1		 mov	 esi, ecx

; 426  : 	SetDateValueLists();

  00003	e8 00 00 00 00	 call	 ?SetDateValueLists@CProperties_Figure@@AAEXXZ ; CProperties_Figure::SetDateValueLists

; 427  : 	SaveData();

  00008	8b ce		 mov	 ecx, esi
  0000a	e8 00 00 00 00	 call	 ?SaveData@CProperties_Figure@@AAEXXZ ; CProperties_Figure::SaveData

; 428  : 	CDialog::OnOK();

  0000f	8b ce		 mov	 ecx, esi
  00011	5e		 pop	 esi
  00012	e9 00 00 00 00	 jmp	 ?OnOK@CDialog@@MAEXXZ	; CDialog::OnOK
?OnOK@CProperties_Figure@@MAEXXZ ENDP			; CProperties_Figure::OnOK
_TEXT	ENDS
; Function compile flags: /Ogtp
; File D:\git\src\IBK\IBK_DRFN\ProjSrc\SrcChartEx\ChartAddIn\ChartAnalysisToolAddIn\Symbol\Properties_Figure.cpp
; File C:\Program Files (x86)\Microsoft Visual Studio\2019\Community\VC\Tools\MSVC\14.29.30133\atlmfc\include\atltime.h
; File D:\git\src\IBK\IBK_DRFN\ProjSrc\SrcChartEx\ChartAddIn\ChartAnalysisToolAddIn\Symbol\Properties_Figure.cpp
; File C:\Program Files (x86)\Microsoft Visual Studio\2019\Community\VC\Tools\MSVC\14.29.30133\atlmfc\include\atltime.h
; File D:\git\src\IBK\IBK_DRFN\ProjSrc\SrcChartEx\ChartAddIn\ChartAnalysisToolAddIn\Symbol\Properties_Figure.cpp
;	COMDAT ?OnDatetimechangeDatetimepickerXdate2@CProperties_Figure@@IAEXPAUtagNMHDR@@PAJ@Z
_TEXT	SEGMENT
$T2 = -152						; size = 8
_pResult$GSCopy$1$ = -144				; size = 4
_this$GSCopy$1$ = -140					; size = 4
_xTime$ = -136						; size = 8
_strXDate$ = -128					; size = 4
_ptmTemp$3 = -124					; size = 36
_ptmTemp$4 = -88					; size = 36
_ptmTemp$5 = -52					; size = 36
__$ArrayPad$ = -16					; size = 4
__$EHRec$ = -12						; size = 12
_pNMHDR$ = 8						; size = 4
_pResult$ = 12						; size = 4
?OnDatetimechangeDatetimepickerXdate2@CProperties_Figure@@IAEXPAUtagNMHDR@@PAJ@Z PROC ; CProperties_Figure::OnDatetimechangeDatetimepickerXdate2, COMDAT
; _this$ = ecx

; 317  : {

  00000	55		 push	 ebp
  00001	8b ec		 mov	 ebp, esp
  00003	6a ff		 push	 -1
  00005	68 00 00 00 00	 push	 __ehhandler$?OnDatetimechangeDatetimepickerXdate2@CProperties_Figure@@IAEXPAUtagNMHDR@@PAJ@Z
  0000a	64 a1 00 00 00
	00		 mov	 eax, DWORD PTR fs:0
  00010	50		 push	 eax
  00011	81 ec 8c 00 00
	00		 sub	 esp, 140		; 0000008cH
  00017	a1 00 00 00 00	 mov	 eax, DWORD PTR ___security_cookie
  0001c	33 c5		 xor	 eax, ebp
  0001e	89 45 f0	 mov	 DWORD PTR __$ArrayPad$[ebp], eax
  00021	53		 push	 ebx
  00022	56		 push	 esi
  00023	57		 push	 edi
  00024	50		 push	 eax
  00025	8d 45 f4	 lea	 eax, DWORD PTR __$EHRec$[ebp]
  00028	64 a3 00 00 00
	00		 mov	 DWORD PTR fs:0, eax
  0002e	8b d9		 mov	 ebx, ecx
  00030	89 9d 74 ff ff
	ff		 mov	 DWORD PTR _this$GSCopy$1$[ebp], ebx
  00036	8b 45 0c	 mov	 eax, DWORD PTR _pResult$[ebp]

; 318  : 	CString strXDate;

  00039	8d 4d 80	 lea	 ecx, DWORD PTR _strXDate$[ebp]
  0003c	89 85 70 ff ff
	ff		 mov	 DWORD PTR _pResult$GSCopy$1$[ebp], eax
  00042	ff 15 00 00 00
	00		 call	 DWORD PTR __imp_??0?$CStringT@DV?$StrTraitMFC_DLL@DV?$ChTraitsCRT@D@ATL@@@@@ATL@@QAE@XZ

; 320  : 	m_ctrlXDateTime2.GetTime(xTime);

  00048	8d 85 78 ff ff
	ff		 lea	 eax, DWORD PTR _xTime$[ebp]
  0004e	c7 45 fc 00 00
	00 00		 mov	 DWORD PTR __$EHRec$[ebp+8], 0
  00055	0f 57 c0	 xorps	 xmm0, xmm0
  00058	8d 8b 50 05 00
	00		 lea	 ecx, DWORD PTR [ebx+1360]
  0005e	50		 push	 eax
; File C:\Program Files (x86)\Microsoft Visual Studio\2019\Community\VC\Tools\MSVC\14.29.30133\atlmfc\include\atltime.h

; 412  : 	m_time(0)

  0005f	66 0f 13 85 78
	ff ff ff	 movlpd	 QWORD PTR _xTime$[ebp], xmm0
; File D:\git\src\IBK\IBK_DRFN\ProjSrc\SrcChartEx\ChartAddIn\ChartAnalysisToolAddIn\Symbol\Properties_Figure.cpp

; 320  : 	m_ctrlXDateTime2.GetTime(xTime);

  00067	e8 00 00 00 00	 call	 ?GetTime@CDateTimeCtrl@@QBEKAAVCTime@ATL@@@Z ; CDateTimeCtrl::GetTime
; File C:\Program Files (x86)\Microsoft Visual Studio\2019\Community\VC\Tools\MSVC\14.29.30133\atlmfc\include\atltime.h

; 614  : 		errno_t err = _localtime64_s(&ptmTemp, &m_time);

  0006c	8b 3d 00 00 00
	00		 mov	 edi, DWORD PTR __imp___localtime64_s
  00072	8d 85 78 ff ff
	ff		 lea	 eax, DWORD PTR _xTime$[ebp]
  00078	50		 push	 eax
  00079	8d 45 cc	 lea	 eax, DWORD PTR _ptmTemp$5[ebp]
  0007c	50		 push	 eax
  0007d	ff d7		 call	 edi

; 615  : 
; 616  : 		if (err != 0)

  0007f	33 db		 xor	 ebx, ebx
  00081	85 c0		 test	 eax, eax

; 614  : 		errno_t err = _localtime64_s(&ptmTemp, &m_time);

  00083	8d 85 78 ff ff
	ff		 lea	 eax, DWORD PTR _xTime$[ebp]

; 616  : 		if (err != 0)

  00089	0f 44 5d d8	 cmove	 ebx, DWORD PTR _ptmTemp$5[ebp+12]

; 614  : 		errno_t err = _localtime64_s(&ptmTemp, &m_time);

  0008d	50		 push	 eax
  0008e	8d 45 a8	 lea	 eax, DWORD PTR _ptmTemp$4[ebp]
  00091	50		 push	 eax
  00092	ff d7		 call	 edi
  00094	83 c4 10	 add	 esp, 16			; 00000010H

; 615  : 
; 616  : 		if (err != 0)

  00097	85 c0		 test	 eax, eax
  00099	75 06		 jne	 SHORT $LN25@OnDatetime

; 671  : 	return ptm ? ptm->tm_mon + 1 : 0;

  0009b	8b 75 b8	 mov	 esi, DWORD PTR _ptmTemp$4[ebp+16]
  0009e	46		 inc	 esi
  0009f	eb 02		 jmp	 SHORT $LN26@OnDatetime
$LN25@OnDatetime:
  000a1	33 f6		 xor	 esi, esi
$LN26@OnDatetime:

; 614  : 		errno_t err = _localtime64_s(&ptmTemp, &m_time);

  000a3	8d 85 78 ff ff
	ff		 lea	 eax, DWORD PTR _xTime$[ebp]
  000a9	50		 push	 eax
  000aa	8d 45 84	 lea	 eax, DWORD PTR _ptmTemp$3[ebp]
  000ad	50		 push	 eax
  000ae	ff d7		 call	 edi
  000b0	83 c4 08	 add	 esp, 8

; 615  : 
; 616  : 		if (err != 0)

  000b3	85 c0		 test	 eax, eax
  000b5	75 0a		 jne	 SHORT $LN41@OnDatetime

; 662  : 	return ptm ? (ptm->tm_year) + 1900 : 0 ;

  000b7	8b 45 98	 mov	 eax, DWORD PTR _ptmTemp$3[ebp+20]
  000ba	05 6c 07 00 00	 add	 eax, 1900		; 0000076cH
  000bf	eb 02		 jmp	 SHORT $LN42@OnDatetime
$LN41@OnDatetime:
  000c1	33 c0		 xor	 eax, eax
$LN42@OnDatetime:
; File D:\git\src\IBK\IBK_DRFN\ProjSrc\SrcChartEx\ChartAddIn\ChartAnalysisToolAddIn\Symbol\Properties_Figure.cpp

; 325  : 	strXDate.Format(_T("%04d%02d%02d%s"),xTime.GetYear(),xTime.GetMonth(),xTime.GetDay(), _T("000000"));

  000c3	68 00 00 00 00	 push	 OFFSET ??_C@_06GEKNBBDK@000000@
  000c8	53		 push	 ebx
  000c9	56		 push	 esi
  000ca	50		 push	 eax
  000cb	8d 45 80	 lea	 eax, DWORD PTR _strXDate$[ebp]
  000ce	68 00 00 00 00	 push	 OFFSET ??_C@_0P@NDLMDLNF@?$CF04d?$CF02d?$CF02d?$CFs@
  000d3	50		 push	 eax
  000d4	ff 15 00 00 00
	00		 call	 DWORD PTR __imp_?Format@?$CStringT@DV?$StrTraitMFC_DLL@DV?$ChTraitsCRT@D@ATL@@@@@ATL@@QAAXPBDZZ

; 326  : 	__int64 lMakeTime = _atoi64(strXDate);

  000da	ff 75 80	 push	 DWORD PTR _strXDate$[ebp]
  000dd	ff 15 00 00 00
	00		 call	 DWORD PTR __imp___atoi64
  000e3	83 c4 1c	 add	 esp, 28			; 0000001cH

; 327  : 	m_coordEnd.SetX((double)lMakeTime);

  000e6	8b c8		 mov	 ecx, eax
  000e8	e8 00 00 00 00	 call	 __ltod3
  000ed	8b 8d 74 ff ff
	ff		 mov	 ecx, DWORD PTR _this$GSCopy$1$[ebp]
  000f3	8d 85 68 ff ff
	ff		 lea	 eax, DWORD PTR $T2[ebp]
  000f9	50		 push	 eax
  000fa	81 c1 10 06 00
	00		 add	 ecx, 1552		; 00000610H
  00100	f2 0f 11 85 68
	ff ff ff	 movsd	 QWORD PTR $T2[ebp], xmm0
  00108	e8 00 00 00 00	 call	 ?SetX@CCoordinate@@QAEXABN@Z ; CCoordinate::SetX

; 328  : 	// 2011.02.08 by SYS <<
; 329  : 
; 330  : 	*pResult = 0;

  0010d	8b 85 70 ff ff
	ff		 mov	 eax, DWORD PTR _pResult$GSCopy$1$[ebp]

; 331  : }

  00113	8d 4d 80	 lea	 ecx, DWORD PTR _strXDate$[ebp]
  00116	c7 00 00 00 00
	00		 mov	 DWORD PTR [eax], 0
  0011c	ff 15 00 00 00
	00		 call	 DWORD PTR __imp_??1?$CStringT@DV?$StrTraitMFC_DLL@DV?$ChTraitsCRT@D@ATL@@@@@ATL@@QAE@XZ
  00122	8b 4d f4	 mov	 ecx, DWORD PTR __$EHRec$[ebp]
  00125	64 89 0d 00 00
	00 00		 mov	 DWORD PTR fs:0, ecx
  0012c	59		 pop	 ecx
  0012d	5f		 pop	 edi
  0012e	5e		 pop	 esi
  0012f	5b		 pop	 ebx
  00130	8b 4d f0	 mov	 ecx, DWORD PTR __$ArrayPad$[ebp]
  00133	33 cd		 xor	 ecx, ebp
  00135	e8 00 00 00 00	 call	 @__security_check_cookie@4
  0013a	8b e5		 mov	 esp, ebp
  0013c	5d		 pop	 ebp
  0013d	c2 08 00	 ret	 8
_TEXT	ENDS
;	COMDAT text$x
text$x	SEGMENT
__unwindfunclet$?OnDatetimechangeDatetimepickerXdate2@CProperties_Figure@@IAEXPAUtagNMHDR@@PAJ@Z$0:
  00000	8d 4d 80	 lea	 ecx, DWORD PTR _strXDate$[ebp]
  00003	ff 25 00 00 00
	00		 jmp	 DWORD PTR __imp_??1?$CStringT@DV?$StrTraitMFC_DLL@DV?$ChTraitsCRT@D@ATL@@@@@ATL@@QAE@XZ
  00009	cc		 int	 3
  0000a	cc		 int	 3
  0000b	cc		 int	 3
  0000c	cc		 int	 3
  0000d	cc		 int	 3
__ehhandler$?OnDatetimechangeDatetimepickerXdate2@CProperties_Figure@@IAEXPAUtagNMHDR@@PAJ@Z:
  0000e	90		 npad	 1
  0000f	90		 npad	 1
  00010	8b 54 24 08	 mov	 edx, DWORD PTR [esp+8]
  00014	8d 42 0c	 lea	 eax, DWORD PTR [edx+12]
  00017	8b 8a 64 ff ff
	ff		 mov	 ecx, DWORD PTR [edx-156]
  0001d	33 c8		 xor	 ecx, eax
  0001f	e8 00 00 00 00	 call	 @__security_check_cookie@4
  00024	8b 4a fc	 mov	 ecx, DWORD PTR [edx-4]
  00027	33 c8		 xor	 ecx, eax
  00029	e8 00 00 00 00	 call	 @__security_check_cookie@4
  0002e	b8 00 00 00 00	 mov	 eax, OFFSET __ehfuncinfo$?OnDatetimechangeDatetimepickerXdate2@CProperties_Figure@@IAEXPAUtagNMHDR@@PAJ@Z
  00033	e9 00 00 00 00	 jmp	 ___CxxFrameHandler3
text$x	ENDS
?OnDatetimechangeDatetimepickerXdate2@CProperties_Figure@@IAEXPAUtagNMHDR@@PAJ@Z ENDP ; CProperties_Figure::OnDatetimechangeDatetimepickerXdate2
; Function compile flags: /Ogtp
; File D:\git\src\IBK\IBK_DRFN\ProjSrc\SrcChartEx\ChartAddIn\ChartAnalysisToolAddIn\Symbol\Properties_Figure.cpp
; File C:\Program Files (x86)\Microsoft Visual Studio\2019\Community\VC\Tools\MSVC\14.29.30133\atlmfc\include\atltime.h
; File D:\git\src\IBK\IBK_DRFN\ProjSrc\SrcChartEx\ChartAddIn\ChartAnalysisToolAddIn\Symbol\Properties_Figure.cpp
; File C:\Program Files (x86)\Microsoft Visual Studio\2019\Community\VC\Tools\MSVC\14.29.30133\atlmfc\include\atltime.h
; File D:\git\src\IBK\IBK_DRFN\ProjSrc\SrcChartEx\ChartAddIn\ChartAnalysisToolAddIn\Symbol\Properties_Figure.cpp
;	COMDAT ?OnDatetimechangeDatetimepickerXdate1@CProperties_Figure@@IAEXPAUtagNMHDR@@PAJ@Z
_TEXT	SEGMENT
$T2 = -152						; size = 8
_pResult$GSCopy$1$ = -144				; size = 4
_this$GSCopy$1$ = -140					; size = 4
_xTime$ = -136						; size = 8
_strXDate$ = -128					; size = 4
_ptmTemp$3 = -124					; size = 36
_ptmTemp$4 = -88					; size = 36
_ptmTemp$5 = -52					; size = 36
__$ArrayPad$ = -16					; size = 4
__$EHRec$ = -12						; size = 12
_pNMHDR$ = 8						; size = 4
_pResult$ = 12						; size = 4
?OnDatetimechangeDatetimepickerXdate1@CProperties_Figure@@IAEXPAUtagNMHDR@@PAJ@Z PROC ; CProperties_Figure::OnDatetimechangeDatetimepickerXdate1, COMDAT
; _this$ = ecx

; 300  : {

  00000	55		 push	 ebp
  00001	8b ec		 mov	 ebp, esp
  00003	6a ff		 push	 -1
  00005	68 00 00 00 00	 push	 __ehhandler$?OnDatetimechangeDatetimepickerXdate1@CProperties_Figure@@IAEXPAUtagNMHDR@@PAJ@Z
  0000a	64 a1 00 00 00
	00		 mov	 eax, DWORD PTR fs:0
  00010	50		 push	 eax
  00011	81 ec 8c 00 00
	00		 sub	 esp, 140		; 0000008cH
  00017	a1 00 00 00 00	 mov	 eax, DWORD PTR ___security_cookie
  0001c	33 c5		 xor	 eax, ebp
  0001e	89 45 f0	 mov	 DWORD PTR __$ArrayPad$[ebp], eax
  00021	53		 push	 ebx
  00022	56		 push	 esi
  00023	57		 push	 edi
  00024	50		 push	 eax
  00025	8d 45 f4	 lea	 eax, DWORD PTR __$EHRec$[ebp]
  00028	64 a3 00 00 00
	00		 mov	 DWORD PTR fs:0, eax
  0002e	8b d9		 mov	 ebx, ecx
  00030	89 9d 74 ff ff
	ff		 mov	 DWORD PTR _this$GSCopy$1$[ebp], ebx
  00036	8b 45 0c	 mov	 eax, DWORD PTR _pResult$[ebp]

; 301  : 	CString strXDate;

  00039	8d 4d 80	 lea	 ecx, DWORD PTR _strXDate$[ebp]
  0003c	89 85 70 ff ff
	ff		 mov	 DWORD PTR _pResult$GSCopy$1$[ebp], eax
  00042	ff 15 00 00 00
	00		 call	 DWORD PTR __imp_??0?$CStringT@DV?$StrTraitMFC_DLL@DV?$ChTraitsCRT@D@ATL@@@@@ATL@@QAE@XZ

; 303  : 	m_ctrlXDateTime1.GetTime(xTime);

  00048	8d 85 78 ff ff
	ff		 lea	 eax, DWORD PTR _xTime$[ebp]
  0004e	c7 45 fc 00 00
	00 00		 mov	 DWORD PTR __$EHRec$[ebp+8], 0
  00055	0f 57 c0	 xorps	 xmm0, xmm0
  00058	8d 8b d0 04 00
	00		 lea	 ecx, DWORD PTR [ebx+1232]
  0005e	50		 push	 eax
; File C:\Program Files (x86)\Microsoft Visual Studio\2019\Community\VC\Tools\MSVC\14.29.30133\atlmfc\include\atltime.h

; 412  : 	m_time(0)

  0005f	66 0f 13 85 78
	ff ff ff	 movlpd	 QWORD PTR _xTime$[ebp], xmm0
; File D:\git\src\IBK\IBK_DRFN\ProjSrc\SrcChartEx\ChartAddIn\ChartAnalysisToolAddIn\Symbol\Properties_Figure.cpp

; 303  : 	m_ctrlXDateTime1.GetTime(xTime);

  00067	e8 00 00 00 00	 call	 ?GetTime@CDateTimeCtrl@@QBEKAAVCTime@ATL@@@Z ; CDateTimeCtrl::GetTime
; File C:\Program Files (x86)\Microsoft Visual Studio\2019\Community\VC\Tools\MSVC\14.29.30133\atlmfc\include\atltime.h

; 614  : 		errno_t err = _localtime64_s(&ptmTemp, &m_time);

  0006c	8b 3d 00 00 00
	00		 mov	 edi, DWORD PTR __imp___localtime64_s
  00072	8d 85 78 ff ff
	ff		 lea	 eax, DWORD PTR _xTime$[ebp]
  00078	50		 push	 eax
  00079	8d 45 cc	 lea	 eax, DWORD PTR _ptmTemp$5[ebp]
  0007c	50		 push	 eax
  0007d	ff d7		 call	 edi

; 615  : 
; 616  : 		if (err != 0)

  0007f	33 db		 xor	 ebx, ebx
  00081	85 c0		 test	 eax, eax

; 614  : 		errno_t err = _localtime64_s(&ptmTemp, &m_time);

  00083	8d 85 78 ff ff
	ff		 lea	 eax, DWORD PTR _xTime$[ebp]

; 616  : 		if (err != 0)

  00089	0f 44 5d d8	 cmove	 ebx, DWORD PTR _ptmTemp$5[ebp+12]

; 614  : 		errno_t err = _localtime64_s(&ptmTemp, &m_time);

  0008d	50		 push	 eax
  0008e	8d 45 a8	 lea	 eax, DWORD PTR _ptmTemp$4[ebp]
  00091	50		 push	 eax
  00092	ff d7		 call	 edi
  00094	83 c4 10	 add	 esp, 16			; 00000010H

; 615  : 
; 616  : 		if (err != 0)

  00097	85 c0		 test	 eax, eax
  00099	75 06		 jne	 SHORT $LN25@OnDatetime

; 671  : 	return ptm ? ptm->tm_mon + 1 : 0;

  0009b	8b 75 b8	 mov	 esi, DWORD PTR _ptmTemp$4[ebp+16]
  0009e	46		 inc	 esi
  0009f	eb 02		 jmp	 SHORT $LN26@OnDatetime
$LN25@OnDatetime:
  000a1	33 f6		 xor	 esi, esi
$LN26@OnDatetime:

; 614  : 		errno_t err = _localtime64_s(&ptmTemp, &m_time);

  000a3	8d 85 78 ff ff
	ff		 lea	 eax, DWORD PTR _xTime$[ebp]
  000a9	50		 push	 eax
  000aa	8d 45 84	 lea	 eax, DWORD PTR _ptmTemp$3[ebp]
  000ad	50		 push	 eax
  000ae	ff d7		 call	 edi
  000b0	83 c4 08	 add	 esp, 8

; 615  : 
; 616  : 		if (err != 0)

  000b3	85 c0		 test	 eax, eax
  000b5	75 0a		 jne	 SHORT $LN41@OnDatetime

; 662  : 	return ptm ? (ptm->tm_year) + 1900 : 0 ;

  000b7	8b 45 98	 mov	 eax, DWORD PTR _ptmTemp$3[ebp+20]
  000ba	05 6c 07 00 00	 add	 eax, 1900		; 0000076cH
  000bf	eb 02		 jmp	 SHORT $LN42@OnDatetime
$LN41@OnDatetime:
  000c1	33 c0		 xor	 eax, eax
$LN42@OnDatetime:
; File D:\git\src\IBK\IBK_DRFN\ProjSrc\SrcChartEx\ChartAddIn\ChartAnalysisToolAddIn\Symbol\Properties_Figure.cpp

; 308  : 	strXDate.Format(_T("%04d%02d%02d%s"),xTime.GetYear(),xTime.GetMonth(),xTime.GetDay(), _T("000000"));

  000c3	68 00 00 00 00	 push	 OFFSET ??_C@_06GEKNBBDK@000000@
  000c8	53		 push	 ebx
  000c9	56		 push	 esi
  000ca	50		 push	 eax
  000cb	8d 45 80	 lea	 eax, DWORD PTR _strXDate$[ebp]
  000ce	68 00 00 00 00	 push	 OFFSET ??_C@_0P@NDLMDLNF@?$CF04d?$CF02d?$CF02d?$CFs@
  000d3	50		 push	 eax
  000d4	ff 15 00 00 00
	00		 call	 DWORD PTR __imp_?Format@?$CStringT@DV?$StrTraitMFC_DLL@DV?$ChTraitsCRT@D@ATL@@@@@ATL@@QAAXPBDZZ

; 309  : 	__int64 lMakeTime = _atoi64(strXDate);

  000da	ff 75 80	 push	 DWORD PTR _strXDate$[ebp]
  000dd	ff 15 00 00 00
	00		 call	 DWORD PTR __imp___atoi64
  000e3	83 c4 1c	 add	 esp, 28			; 0000001cH

; 310  : 	m_coordStart.SetX((double)lMakeTime);

  000e6	8b c8		 mov	 ecx, eax
  000e8	e8 00 00 00 00	 call	 __ltod3
  000ed	8b 8d 74 ff ff
	ff		 mov	 ecx, DWORD PTR _this$GSCopy$1$[ebp]
  000f3	8d 85 68 ff ff
	ff		 lea	 eax, DWORD PTR $T2[ebp]
  000f9	50		 push	 eax
  000fa	81 c1 f8 05 00
	00		 add	 ecx, 1528		; 000005f8H
  00100	f2 0f 11 85 68
	ff ff ff	 movsd	 QWORD PTR $T2[ebp], xmm0
  00108	e8 00 00 00 00	 call	 ?SetX@CCoordinate@@QAEXABN@Z ; CCoordinate::SetX

; 311  : 	// 2011.02.08 by SYS <<
; 312  : 	
; 313  : 	*pResult = 0;

  0010d	8b 85 70 ff ff
	ff		 mov	 eax, DWORD PTR _pResult$GSCopy$1$[ebp]

; 314  : }

  00113	8d 4d 80	 lea	 ecx, DWORD PTR _strXDate$[ebp]
  00116	c7 00 00 00 00
	00		 mov	 DWORD PTR [eax], 0
  0011c	ff 15 00 00 00
	00		 call	 DWORD PTR __imp_??1?$CStringT@DV?$StrTraitMFC_DLL@DV?$ChTraitsCRT@D@ATL@@@@@ATL@@QAE@XZ
  00122	8b 4d f4	 mov	 ecx, DWORD PTR __$EHRec$[ebp]
  00125	64 89 0d 00 00
	00 00		 mov	 DWORD PTR fs:0, ecx
  0012c	59		 pop	 ecx
  0012d	5f		 pop	 edi
  0012e	5e		 pop	 esi
  0012f	5b		 pop	 ebx
  00130	8b 4d f0	 mov	 ecx, DWORD PTR __$ArrayPad$[ebp]
  00133	33 cd		 xor	 ecx, ebp
  00135	e8 00 00 00 00	 call	 @__security_check_cookie@4
  0013a	8b e5		 mov	 esp, ebp
  0013c	5d		 pop	 ebp
  0013d	c2 08 00	 ret	 8
_TEXT	ENDS
;	COMDAT text$x
text$x	SEGMENT
__unwindfunclet$?OnDatetimechangeDatetimepickerXdate1@CProperties_Figure@@IAEXPAUtagNMHDR@@PAJ@Z$0:
  00000	8d 4d 80	 lea	 ecx, DWORD PTR _strXDate$[ebp]
  00003	ff 25 00 00 00
	00		 jmp	 DWORD PTR __imp_??1?$CStringT@DV?$StrTraitMFC_DLL@DV?$ChTraitsCRT@D@ATL@@@@@ATL@@QAE@XZ
  00009	cc		 int	 3
  0000a	cc		 int	 3
  0000b	cc		 int	 3
  0000c	cc		 int	 3
  0000d	cc		 int	 3
__ehhandler$?OnDatetimechangeDatetimepickerXdate1@CProperties_Figure@@IAEXPAUtagNMHDR@@PAJ@Z:
  0000e	90		 npad	 1
  0000f	90		 npad	 1
  00010	8b 54 24 08	 mov	 edx, DWORD PTR [esp+8]
  00014	8d 42 0c	 lea	 eax, DWORD PTR [edx+12]
  00017	8b 8a 64 ff ff
	ff		 mov	 ecx, DWORD PTR [edx-156]
  0001d	33 c8		 xor	 ecx, eax
  0001f	e8 00 00 00 00	 call	 @__security_check_cookie@4
  00024	8b 4a fc	 mov	 ecx, DWORD PTR [edx-4]
  00027	33 c8		 xor	 ecx, eax
  00029	e8 00 00 00 00	 call	 @__security_check_cookie@4
  0002e	b8 00 00 00 00	 mov	 eax, OFFSET __ehfuncinfo$?OnDatetimechangeDatetimepickerXdate1@CProperties_Figure@@IAEXPAUtagNMHDR@@PAJ@Z
  00033	e9 00 00 00 00	 jmp	 ___CxxFrameHandler3
text$x	ENDS
?OnDatetimechangeDatetimepickerXdate1@CProperties_Figure@@IAEXPAUtagNMHDR@@PAJ@Z ENDP ; CProperties_Figure::OnDatetimechangeDatetimepickerXdate1
; Function compile flags: /Ogtp
; File D:\git\src\IBK\IBK_DRFN\ProjSrc\SrcChartEx\ChartAddIn\ChartAnalysisToolAddIn\Symbol\Properties_Figure.cpp
; File C:\Program Files (x86)\Microsoft Visual Studio\2019\Community\VC\Tools\MSVC\14.29.30133\atlmfc\include\afxwin2.inl
; File D:\git\src\IBK\IBK_DRFN\ProjSrc\SrcChartEx\ChartAddIn\ChartAnalysisToolAddIn\Symbol\Properties_Figure.cpp
; File C:\Program Files (x86)\Microsoft Visual Studio\2019\Community\VC\Tools\MSVC\14.29.30133\atlmfc\include\afxwin2.inl
; File D:\git\src\IBK\IBK_DRFN\ProjSrc\SrcChartEx\ChartAddIn\ChartAnalysisToolAddIn\Symbol\Properties_Figure.cpp
; File C:\Program Files (x86)\Microsoft Visual Studio\2019\Community\VC\Tools\MSVC\14.29.30133\atlmfc\include\afxwin1.inl
; File D:\git\src\IBK\IBK_DRFN\ProjSrc\SrcChartEx\ChartAddIn\ChartAnalysisToolAddIn\Include_Chart\Dll_Load\IMetaTable.h
; File C:\Program Files (x86)\Microsoft Visual Studio\2019\Community\VC\Tools\MSVC\14.29.30133\atlmfc\include\afxwin1.inl
; File D:\git\src\IBK\IBK_DRFN\ProjSrc\SrcChartEx\ChartAddIn\ChartAnalysisToolAddIn\Symbol\Properties_Figure.cpp
; File C:\Program Files (x86)\Microsoft Visual Studio\2019\Community\VC\Tools\MSVC\14.29.30133\atlmfc\include\afxwin2.inl
; File D:\git\src\IBK\IBK_DRFN\ProjSrc\SrcChartEx\ChartAddIn\ChartAnalysisToolAddIn\Symbol\Properties_Figure.cpp
; File D:\git\src\IBK\IBK_DRFN\ProjSrc\SrcChartEx\ChartAddIn\ChartAnalysisToolAddIn\Include_Chart\Dll_Load\IMetaTable.h
; File C:\Program Files (x86)\Microsoft Visual Studio\2019\Community\VC\Tools\MSVC\14.29.30133\atlmfc\include\afxwin1.inl
; File D:\git\src\IBK\IBK_DRFN\ProjSrc\SrcChartEx\ChartAddIn\ChartAnalysisToolAddIn\Symbol\Properties_Figure.cpp
;	COMDAT ?OnSelchangeStyle@CProperties_Figure@@IAEXXZ
_TEXT	SEGMENT
___mlrs__$2 = -20					; size = 4
_strNotice$3 = -16					; size = 4
__$EHRec$ = -12						; size = 12
?OnSelchangeStyle@CProperties_Figure@@IAEXXZ PROC	; CProperties_Figure::OnSelchangeStyle, COMDAT
; _this$ = ecx

; 400  : {

  00000	55		 push	 ebp
  00001	8b ec		 mov	 ebp, esp
  00003	6a ff		 push	 -1
  00005	68 00 00 00 00	 push	 __ehhandler$?OnSelchangeStyle@CProperties_Figure@@IAEXXZ
  0000a	64 a1 00 00 00
	00		 mov	 eax, DWORD PTR fs:0
  00010	50		 push	 eax
  00011	83 ec 08	 sub	 esp, 8
  00014	53		 push	 ebx
  00015	56		 push	 esi
  00016	57		 push	 edi
  00017	a1 00 00 00 00	 mov	 eax, DWORD PTR ___security_cookie
  0001c	33 c5		 xor	 eax, ebp
  0001e	50		 push	 eax
  0001f	8d 45 f4	 lea	 eax, DWORD PTR __$EHRec$[ebp]
  00022	64 a3 00 00 00
	00		 mov	 DWORD PTR fs:0, eax
  00028	8b d9		 mov	 ebx, ecx
; File C:\Program Files (x86)\Microsoft Visual Studio\2019\Community\VC\Tools\MSVC\14.29.30133\atlmfc\include\afxwin2.inl

; 765  : 	{ ASSERT(::IsWindow(m_hWnd)); return (int)::SendMessage(m_hWnd, CB_GETCURSEL, 0, 0); }

  0002a	8b 35 00 00 00
	00		 mov	 esi, DWORD PTR __imp__SendMessageA@16
  00030	6a 00		 push	 0
  00032	6a 00		 push	 0
  00034	68 47 01 00 00	 push	 327			; 00000147H
  00039	ff b3 60 02 00
	00		 push	 DWORD PTR [ebx+608]
  0003f	ff d6		 call	 esi
  00041	6a 00		 push	 0
  00043	6a 00		 push	 0
  00045	68 47 01 00 00	 push	 327			; 00000147H
  0004a	ff b3 d0 01 00
	00		 push	 DWORD PTR [ebx+464]
; File D:\git\src\IBK\IBK_DRFN\ProjSrc\SrcChartEx\ChartAddIn\ChartAnalysisToolAddIn\Symbol\Properties_Figure.cpp

; 401  : 	int nWidth = m_ctlWidth.GetCurSel();

  00050	8b f8		 mov	 edi, eax
; File C:\Program Files (x86)\Microsoft Visual Studio\2019\Community\VC\Tools\MSVC\14.29.30133\atlmfc\include\afxwin2.inl

; 765  : 	{ ASSERT(::IsWindow(m_hWnd)); return (int)::SendMessage(m_hWnd, CB_GETCURSEL, 0, 0); }

  00052	ff d6		 call	 esi
; File D:\git\src\IBK\IBK_DRFN\ProjSrc\SrcChartEx\ChartAddIn\ChartAnalysisToolAddIn\Symbol\Properties_Figure.cpp

; 403  : 	if(nStyle > 0 && nWidth != 0)

  00054	85 c0		 test	 eax, eax
  00056	0f 8e 8e 00 00
	00		 jle	 $LN21@OnSelchang
  0005c	85 ff		 test	 edi, edi
  0005e	0f 84 86 00 00
	00		 je	 $LN21@OnSelchang

; 404  : 	{
; 405  : 		ML_SET_LANGUAGE_RES();

  00064	e8 00 00 00 00	 call	 ?AfxGetStaticModuleState@@YGPAVAFX_MODULE_STATE@@XZ ; AfxGetStaticModuleState
  00069	b9 00 00 00 00	 mov	 ecx, OFFSET ?g_iMetaTable@@3VIMetaTable@@A ; g_iMetaTable
  0006e	8b 40 08	 mov	 eax, DWORD PTR [eax+8]
  00071	50		 push	 eax
  00072	ff b3 2c 06 00
	00		 push	 DWORD PTR [ebx+1580]
  00078	e8 00 00 00 00	 call	 ?LoadResourceDLL@IMetaTable@@QAEPAUHINSTANCE__@@PAUHWND__@@PAU2@@Z ; IMetaTable::LoadResourceDLL
  0007d	8b f8		 mov	 edi, eax
; File C:\Program Files (x86)\Microsoft Visual Studio\2019\Community\VC\Tools\MSVC\14.29.30133\atlmfc\include\afxwin1.inl

; 25   : 		return afxCurrentResourceHandle; }

  0007f	e8 00 00 00 00	 call	 ?AfxGetModuleState@@YGPAVAFX_MODULE_STATE@@XZ ; AfxGetModuleState
; File D:\git\src\IBK\IBK_DRFN\ProjSrc\SrcChartEx\ChartAddIn\ChartAnalysisToolAddIn\Include_Chart\Dll_Load\IMetaTable.h

; 1034 : 		m_hInstance = AfxGetResourceHandle();

  00084	8b 70 0c	 mov	 esi, DWORD PTR [eax+12]
  00087	89 75 ec	 mov	 DWORD PTR ___mlrs__$2[ebp], esi
; File C:\Program Files (x86)\Microsoft Visual Studio\2019\Community\VC\Tools\MSVC\14.29.30133\atlmfc\include\afxwin1.inl

; 27   : 	{ ASSERT(hInstResource != NULL); afxCurrentResourceHandle = hInstResource; }

  0008a	e8 00 00 00 00	 call	 ?AfxGetModuleState@@YGPAVAFX_MODULE_STATE@@XZ ; AfxGetModuleState
  0008f	89 78 0c	 mov	 DWORD PTR [eax+12], edi
; File D:\git\src\IBK\IBK_DRFN\ProjSrc\SrcChartEx\ChartAddIn\ChartAnalysisToolAddIn\Symbol\Properties_Figure.cpp

; 407  : 		CString strNotice;

  00092	8d 4d f0	 lea	 ecx, DWORD PTR _strNotice$3[ebp]
  00095	c7 45 fc 00 00
	00 00		 mov	 DWORD PTR __$EHRec$[ebp+8], 0
  0009c	ff 15 00 00 00
	00		 call	 DWORD PTR __imp_??0?$CStringT@DV?$StrTraitMFC_DLL@DV?$ChTraitsCRT@D@ATL@@@@@ATL@@QAE@XZ

; 408  : 		strNotice.LoadString(IDS_CHANGE_THICKNESS);

  000a2	6a 01		 push	 1
  000a4	8d 4d f0	 lea	 ecx, DWORD PTR _strNotice$3[ebp]
  000a7	c6 45 fc 01	 mov	 BYTE PTR __$EHRec$[ebp+8], 1
  000ab	ff 15 00 00 00
	00		 call	 DWORD PTR __imp_?LoadStringA@?$CStringT@DV?$StrTraitMFC_DLL@DV?$ChTraitsCRT@D@ATL@@@@@ATL@@QAEHI@Z

; 409  : 		AfxMessageBox(strNotice);

  000b1	6a 00		 push	 0
  000b3	6a 00		 push	 0
  000b5	ff 75 f0	 push	 DWORD PTR _strNotice$3[ebp]
  000b8	e8 00 00 00 00	 call	 ?AfxMessageBox@@YGHPBDII@Z ; AfxMessageBox
; File C:\Program Files (x86)\Microsoft Visual Studio\2019\Community\VC\Tools\MSVC\14.29.30133\atlmfc\include\afxwin2.inl

; 767  : 	{ ASSERT(::IsWindow(m_hWnd)); return (int)::SendMessage(m_hWnd, CB_SETCURSEL, nSelect, 0); }

  000bd	6a 00		 push	 0
  000bf	6a 00		 push	 0
  000c1	68 4e 01 00 00	 push	 334			; 0000014eH
  000c6	ff b3 60 02 00
	00		 push	 DWORD PTR [ebx+608]
  000cc	ff 15 00 00 00
	00		 call	 DWORD PTR __imp__SendMessageA@16
; File D:\git\src\IBK\IBK_DRFN\ProjSrc\SrcChartEx\ChartAddIn\ChartAnalysisToolAddIn\Symbol\Properties_Figure.cpp

; 411  : 	}

  000d2	8d 4d f0	 lea	 ecx, DWORD PTR _strNotice$3[ebp]
  000d5	ff 15 00 00 00
	00		 call	 DWORD PTR __imp_??1?$CStringT@DV?$StrTraitMFC_DLL@DV?$ChTraitsCRT@D@ATL@@@@@ATL@@QAE@XZ
; File D:\git\src\IBK\IBK_DRFN\ProjSrc\SrcChartEx\ChartAddIn\ChartAnalysisToolAddIn\Include_Chart\Dll_Load\IMetaTable.h

; 1038 : 	{

  000db	c7 45 fc 02 00
	00 00		 mov	 DWORD PTR __$EHRec$[ebp+8], 2
; File C:\Program Files (x86)\Microsoft Visual Studio\2019\Community\VC\Tools\MSVC\14.29.30133\atlmfc\include\afxwin1.inl

; 27   : 	{ ASSERT(hInstResource != NULL); afxCurrentResourceHandle = hInstResource; }

  000e2	e8 00 00 00 00	 call	 ?AfxGetModuleState@@YGPAVAFX_MODULE_STATE@@XZ ; AfxGetModuleState
  000e7	89 70 0c	 mov	 DWORD PTR [eax+12], esi
$LN21@OnSelchang:
; File D:\git\src\IBK\IBK_DRFN\ProjSrc\SrcChartEx\ChartAddIn\ChartAnalysisToolAddIn\Symbol\Properties_Figure.cpp

; 412  : }

  000ea	8b 4d f4	 mov	 ecx, DWORD PTR __$EHRec$[ebp]
  000ed	64 89 0d 00 00
	00 00		 mov	 DWORD PTR fs:0, ecx
  000f4	59		 pop	 ecx
  000f5	5f		 pop	 edi
  000f6	5e		 pop	 esi
  000f7	5b		 pop	 ebx
  000f8	8b e5		 mov	 esp, ebp
  000fa	5d		 pop	 ebp
  000fb	c3		 ret	 0
_TEXT	ENDS
;	COMDAT text$x
text$x	SEGMENT
__unwindfunclet$?OnSelchangeStyle@CProperties_Figure@@IAEXXZ$0:
  00000	8d 4d ec	 lea	 ecx, DWORD PTR ___mlrs__$2[ebp]
  00003	e9 00 00 00 00	 jmp	 ??1CMultiLanguageResourceSetter@@QAE@XZ ; CMultiLanguageResourceSetter::~CMultiLanguageResourceSetter
__unwindfunclet$?OnSelchangeStyle@CProperties_Figure@@IAEXXZ$1:
  00008	8d 4d f0	 lea	 ecx, DWORD PTR _strNotice$3[ebp]
  0000b	ff 25 00 00 00
	00		 jmp	 DWORD PTR __imp_??1?$CStringT@DV?$StrTraitMFC_DLL@DV?$ChTraitsCRT@D@ATL@@@@@ATL@@QAE@XZ
  00011	cc		 int	 3
  00012	cc		 int	 3
  00013	cc		 int	 3
  00014	cc		 int	 3
  00015	cc		 int	 3
__ehhandler$?OnSelchangeStyle@CProperties_Figure@@IAEXXZ:
  00016	90		 npad	 1
  00017	90		 npad	 1
  00018	8b 54 24 08	 mov	 edx, DWORD PTR [esp+8]
  0001c	8d 42 0c	 lea	 eax, DWORD PTR [edx+12]
  0001f	8b 4a e8	 mov	 ecx, DWORD PTR [edx-24]
  00022	33 c8		 xor	 ecx, eax
  00024	e8 00 00 00 00	 call	 @__security_check_cookie@4
  00029	b8 00 00 00 00	 mov	 eax, OFFSET __ehfuncinfo$?OnSelchangeStyle@CProperties_Figure@@IAEXXZ
  0002e	e9 00 00 00 00	 jmp	 ___CxxFrameHandler3
text$x	ENDS
?OnSelchangeStyle@CProperties_Figure@@IAEXXZ ENDP	; CProperties_Figure::OnSelchangeStyle
; Function compile flags: /Ogtp
; File D:\git\src\IBK\IBK_DRFN\ProjSrc\SrcChartEx\ChartAddIn\ChartAnalysisToolAddIn\Symbol\Properties_Figure.cpp
; File C:\Program Files (x86)\Microsoft Visual Studio\2019\Community\VC\Tools\MSVC\14.29.30133\atlmfc\include\afxwin2.inl
; File D:\git\src\IBK\IBK_DRFN\ProjSrc\SrcChartEx\ChartAddIn\ChartAnalysisToolAddIn\Symbol\Properties_Figure.cpp
; File C:\Program Files (x86)\Microsoft Visual Studio\2019\Community\VC\Tools\MSVC\14.29.30133\atlmfc\include\afxwin2.inl
; File D:\git\src\IBK\IBK_DRFN\ProjSrc\SrcChartEx\ChartAddIn\ChartAnalysisToolAddIn\Symbol\Properties_Figure.cpp
; File C:\Program Files (x86)\Microsoft Visual Studio\2019\Community\VC\Tools\MSVC\14.29.30133\atlmfc\include\afxwin1.inl
; File D:\git\src\IBK\IBK_DRFN\ProjSrc\SrcChartEx\ChartAddIn\ChartAnalysisToolAddIn\Include_Chart\Dll_Load\IMetaTable.h
; File C:\Program Files (x86)\Microsoft Visual Studio\2019\Community\VC\Tools\MSVC\14.29.30133\atlmfc\include\afxwin1.inl
; File D:\git\src\IBK\IBK_DRFN\ProjSrc\SrcChartEx\ChartAddIn\ChartAnalysisToolAddIn\Symbol\Properties_Figure.cpp
; File C:\Program Files (x86)\Microsoft Visual Studio\2019\Community\VC\Tools\MSVC\14.29.30133\atlmfc\include\afxwin2.inl
; File D:\git\src\IBK\IBK_DRFN\ProjSrc\SrcChartEx\ChartAddIn\ChartAnalysisToolAddIn\Symbol\Properties_Figure.cpp
; File D:\git\src\IBK\IBK_DRFN\ProjSrc\SrcChartEx\ChartAddIn\ChartAnalysisToolAddIn\Include_Chart\Dll_Load\IMetaTable.h
; File C:\Program Files (x86)\Microsoft Visual Studio\2019\Community\VC\Tools\MSVC\14.29.30133\atlmfc\include\afxwin1.inl
; File D:\git\src\IBK\IBK_DRFN\ProjSrc\SrcChartEx\ChartAddIn\ChartAnalysisToolAddIn\Symbol\Properties_Figure.cpp
;	COMDAT ?OnSelchangeWidth@CProperties_Figure@@IAEXXZ
_TEXT	SEGMENT
___mlrs__$2 = -20					; size = 4
_strNotice$3 = -16					; size = 4
__$EHRec$ = -12						; size = 12
?OnSelchangeWidth@CProperties_Figure@@IAEXXZ PROC	; CProperties_Figure::OnSelchangeWidth, COMDAT
; _this$ = ecx

; 385  : {

  00000	55		 push	 ebp
  00001	8b ec		 mov	 ebp, esp
  00003	6a ff		 push	 -1
  00005	68 00 00 00 00	 push	 __ehhandler$?OnSelchangeWidth@CProperties_Figure@@IAEXXZ
  0000a	64 a1 00 00 00
	00		 mov	 eax, DWORD PTR fs:0
  00010	50		 push	 eax
  00011	83 ec 08	 sub	 esp, 8
  00014	53		 push	 ebx
  00015	56		 push	 esi
  00016	57		 push	 edi
  00017	a1 00 00 00 00	 mov	 eax, DWORD PTR ___security_cookie
  0001c	33 c5		 xor	 eax, ebp
  0001e	50		 push	 eax
  0001f	8d 45 f4	 lea	 eax, DWORD PTR __$EHRec$[ebp]
  00022	64 a3 00 00 00
	00		 mov	 DWORD PTR fs:0, eax
  00028	8b d9		 mov	 ebx, ecx
; File C:\Program Files (x86)\Microsoft Visual Studio\2019\Community\VC\Tools\MSVC\14.29.30133\atlmfc\include\afxwin2.inl

; 765  : 	{ ASSERT(::IsWindow(m_hWnd)); return (int)::SendMessage(m_hWnd, CB_GETCURSEL, 0, 0); }

  0002a	8b 35 00 00 00
	00		 mov	 esi, DWORD PTR __imp__SendMessageA@16
  00030	6a 00		 push	 0
  00032	6a 00		 push	 0
  00034	68 47 01 00 00	 push	 327			; 00000147H
  00039	ff b3 60 02 00
	00		 push	 DWORD PTR [ebx+608]
  0003f	ff d6		 call	 esi
  00041	6a 00		 push	 0
  00043	6a 00		 push	 0
  00045	68 47 01 00 00	 push	 327			; 00000147H
  0004a	ff b3 d0 01 00
	00		 push	 DWORD PTR [ebx+464]
; File D:\git\src\IBK\IBK_DRFN\ProjSrc\SrcChartEx\ChartAddIn\ChartAnalysisToolAddIn\Symbol\Properties_Figure.cpp

; 386  : 	int nWidth = m_ctlWidth.GetCurSel();

  00050	8b f8		 mov	 edi, eax
; File C:\Program Files (x86)\Microsoft Visual Studio\2019\Community\VC\Tools\MSVC\14.29.30133\atlmfc\include\afxwin2.inl

; 765  : 	{ ASSERT(::IsWindow(m_hWnd)); return (int)::SendMessage(m_hWnd, CB_GETCURSEL, 0, 0); }

  00052	ff d6		 call	 esi
; File D:\git\src\IBK\IBK_DRFN\ProjSrc\SrcChartEx\ChartAddIn\ChartAnalysisToolAddIn\Symbol\Properties_Figure.cpp

; 388  : 	if(nStyle != 0 && nWidth > 0)

  00054	85 c0		 test	 eax, eax
  00056	0f 84 8e 00 00
	00		 je	 $LN21@OnSelchang
  0005c	85 ff		 test	 edi, edi
  0005e	0f 8e 86 00 00
	00		 jle	 $LN21@OnSelchang

; 389  : 	{
; 390  : 		ML_SET_LANGUAGE_RES();

  00064	e8 00 00 00 00	 call	 ?AfxGetStaticModuleState@@YGPAVAFX_MODULE_STATE@@XZ ; AfxGetStaticModuleState
  00069	b9 00 00 00 00	 mov	 ecx, OFFSET ?g_iMetaTable@@3VIMetaTable@@A ; g_iMetaTable
  0006e	8b 40 08	 mov	 eax, DWORD PTR [eax+8]
  00071	50		 push	 eax
  00072	ff b3 2c 06 00
	00		 push	 DWORD PTR [ebx+1580]
  00078	e8 00 00 00 00	 call	 ?LoadResourceDLL@IMetaTable@@QAEPAUHINSTANCE__@@PAUHWND__@@PAU2@@Z ; IMetaTable::LoadResourceDLL
  0007d	8b f8		 mov	 edi, eax
; File C:\Program Files (x86)\Microsoft Visual Studio\2019\Community\VC\Tools\MSVC\14.29.30133\atlmfc\include\afxwin1.inl

; 25   : 		return afxCurrentResourceHandle; }

  0007f	e8 00 00 00 00	 call	 ?AfxGetModuleState@@YGPAVAFX_MODULE_STATE@@XZ ; AfxGetModuleState
; File D:\git\src\IBK\IBK_DRFN\ProjSrc\SrcChartEx\ChartAddIn\ChartAnalysisToolAddIn\Include_Chart\Dll_Load\IMetaTable.h

; 1034 : 		m_hInstance = AfxGetResourceHandle();

  00084	8b 70 0c	 mov	 esi, DWORD PTR [eax+12]
  00087	89 75 ec	 mov	 DWORD PTR ___mlrs__$2[ebp], esi
; File C:\Program Files (x86)\Microsoft Visual Studio\2019\Community\VC\Tools\MSVC\14.29.30133\atlmfc\include\afxwin1.inl

; 27   : 	{ ASSERT(hInstResource != NULL); afxCurrentResourceHandle = hInstResource; }

  0008a	e8 00 00 00 00	 call	 ?AfxGetModuleState@@YGPAVAFX_MODULE_STATE@@XZ ; AfxGetModuleState
  0008f	89 78 0c	 mov	 DWORD PTR [eax+12], edi
; File D:\git\src\IBK\IBK_DRFN\ProjSrc\SrcChartEx\ChartAddIn\ChartAnalysisToolAddIn\Symbol\Properties_Figure.cpp

; 392  : 		CString strNotice;

  00092	8d 4d f0	 lea	 ecx, DWORD PTR _strNotice$3[ebp]
  00095	c7 45 fc 00 00
	00 00		 mov	 DWORD PTR __$EHRec$[ebp+8], 0
  0009c	ff 15 00 00 00
	00		 call	 DWORD PTR __imp_??0?$CStringT@DV?$StrTraitMFC_DLL@DV?$ChTraitsCRT@D@ATL@@@@@ATL@@QAE@XZ

; 393  : 		strNotice.LoadString(IDS_CHANGE_THICKNESS);

  000a2	6a 01		 push	 1
  000a4	8d 4d f0	 lea	 ecx, DWORD PTR _strNotice$3[ebp]
  000a7	c6 45 fc 01	 mov	 BYTE PTR __$EHRec$[ebp+8], 1
  000ab	ff 15 00 00 00
	00		 call	 DWORD PTR __imp_?LoadStringA@?$CStringT@DV?$StrTraitMFC_DLL@DV?$ChTraitsCRT@D@ATL@@@@@ATL@@QAEHI@Z

; 394  : 		AfxMessageBox(strNotice);

  000b1	6a 00		 push	 0
  000b3	6a 00		 push	 0
  000b5	ff 75 f0	 push	 DWORD PTR _strNotice$3[ebp]
  000b8	e8 00 00 00 00	 call	 ?AfxMessageBox@@YGHPBDII@Z ; AfxMessageBox
; File C:\Program Files (x86)\Microsoft Visual Studio\2019\Community\VC\Tools\MSVC\14.29.30133\atlmfc\include\afxwin2.inl

; 767  : 	{ ASSERT(::IsWindow(m_hWnd)); return (int)::SendMessage(m_hWnd, CB_SETCURSEL, nSelect, 0); }

  000bd	6a 00		 push	 0
  000bf	6a 00		 push	 0
  000c1	68 4e 01 00 00	 push	 334			; 0000014eH
  000c6	ff b3 d0 01 00
	00		 push	 DWORD PTR [ebx+464]
  000cc	ff 15 00 00 00
	00		 call	 DWORD PTR __imp__SendMessageA@16
; File D:\git\src\IBK\IBK_DRFN\ProjSrc\SrcChartEx\ChartAddIn\ChartAnalysisToolAddIn\Symbol\Properties_Figure.cpp

; 396  : 	}

  000d2	8d 4d f0	 lea	 ecx, DWORD PTR _strNotice$3[ebp]
  000d5	ff 15 00 00 00
	00		 call	 DWORD PTR __imp_??1?$CStringT@DV?$StrTraitMFC_DLL@DV?$ChTraitsCRT@D@ATL@@@@@ATL@@QAE@XZ
; File D:\git\src\IBK\IBK_DRFN\ProjSrc\SrcChartEx\ChartAddIn\ChartAnalysisToolAddIn\Include_Chart\Dll_Load\IMetaTable.h

; 1038 : 	{

  000db	c7 45 fc 02 00
	00 00		 mov	 DWORD PTR __$EHRec$[ebp+8], 2
; File C:\Program Files (x86)\Microsoft Visual Studio\2019\Community\VC\Tools\MSVC\14.29.30133\atlmfc\include\afxwin1.inl

; 27   : 	{ ASSERT(hInstResource != NULL); afxCurrentResourceHandle = hInstResource; }

  000e2	e8 00 00 00 00	 call	 ?AfxGetModuleState@@YGPAVAFX_MODULE_STATE@@XZ ; AfxGetModuleState
  000e7	89 70 0c	 mov	 DWORD PTR [eax+12], esi
$LN21@OnSelchang:
; File D:\git\src\IBK\IBK_DRFN\ProjSrc\SrcChartEx\ChartAddIn\ChartAnalysisToolAddIn\Symbol\Properties_Figure.cpp

; 397  : }

  000ea	8b 4d f4	 mov	 ecx, DWORD PTR __$EHRec$[ebp]
  000ed	64 89 0d 00 00
	00 00		 mov	 DWORD PTR fs:0, ecx
  000f4	59		 pop	 ecx
  000f5	5f		 pop	 edi
  000f6	5e		 pop	 esi
  000f7	5b		 pop	 ebx
  000f8	8b e5		 mov	 esp, ebp
  000fa	5d		 pop	 ebp
  000fb	c3		 ret	 0
_TEXT	ENDS
;	COMDAT text$x
text$x	SEGMENT
__unwindfunclet$?OnSelchangeWidth@CProperties_Figure@@IAEXXZ$0:
  00000	8d 4d ec	 lea	 ecx, DWORD PTR ___mlrs__$2[ebp]
  00003	e9 00 00 00 00	 jmp	 ??1CMultiLanguageResourceSetter@@QAE@XZ ; CMultiLanguageResourceSetter::~CMultiLanguageResourceSetter
__unwindfunclet$?OnSelchangeWidth@CProperties_Figure@@IAEXXZ$1:
  00008	8d 4d f0	 lea	 ecx, DWORD PTR _strNotice$3[ebp]
  0000b	ff 25 00 00 00
	00		 jmp	 DWORD PTR __imp_??1?$CStringT@DV?$StrTraitMFC_DLL@DV?$ChTraitsCRT@D@ATL@@@@@ATL@@QAE@XZ
  00011	cc		 int	 3
  00012	cc		 int	 3
  00013	cc		 int	 3
  00014	cc		 int	 3
  00015	cc		 int	 3
__ehhandler$?OnSelchangeWidth@CProperties_Figure@@IAEXXZ:
  00016	90		 npad	 1
  00017	90		 npad	 1
  00018	8b 54 24 08	 mov	 edx, DWORD PTR [esp+8]
  0001c	8d 42 0c	 lea	 eax, DWORD PTR [edx+12]
  0001f	8b 4a e8	 mov	 ecx, DWORD PTR [edx-24]
  00022	33 c8		 xor	 ecx, eax
  00024	e8 00 00 00 00	 call	 @__security_check_cookie@4
  00029	b8 00 00 00 00	 mov	 eax, OFFSET __ehfuncinfo$?OnSelchangeWidth@CProperties_Figure@@IAEXXZ
  0002e	e9 00 00 00 00	 jmp	 ___CxxFrameHandler3
text$x	ENDS
?OnSelchangeWidth@CProperties_Figure@@IAEXXZ ENDP	; CProperties_Figure::OnSelchangeWidth
; Function compile flags: /Ogtp
; File D:\git\src\IBK\IBK_DRFN\ProjSrc\SrcChartEx\ChartAddIn\ChartAnalysisToolAddIn\Symbol\Properties_Figure.cpp
; File C:\Program Files (x86)\Microsoft Visual Studio\2019\Community\VC\Tools\MSVC\14.29.30133\atlmfc\include\afxwin2.inl
; File D:\git\src\IBK\IBK_DRFN\ProjSrc\SrcChartEx\ChartAddIn\ChartAnalysisToolAddIn\Symbol\Properties_Figure.cpp
; File C:\Program Files (x86)\Microsoft Visual Studio\2019\Community\VC\Tools\MSVC\14.29.30133\atlmfc\include\afxwin2.inl
; File D:\git\src\IBK\IBK_DRFN\ProjSrc\SrcChartEx\ChartAddIn\ChartAnalysisToolAddIn\Symbol\Properties_Figure.cpp
;	COMDAT ?OnCheck@CProperties_Figure@@IAEXXZ
_TEXT	SEGMENT
?OnCheck@CProperties_Figure@@IAEXXZ PROC		; CProperties_Figure::OnCheck, COMDAT
; _this$ = ecx

; 203  : {

  00000	56		 push	 esi
; File C:\Program Files (x86)\Microsoft Visual Studio\2019\Community\VC\Tools\MSVC\14.29.30133\atlmfc\include\afxwin2.inl

; 628  : 	{ ASSERT(::IsWindow(m_hWnd)); return (int)::SendMessage(m_hWnd, BM_GETCHECK, 0, 0); }

  00001	6a 00		 push	 0
; File D:\git\src\IBK\IBK_DRFN\ProjSrc\SrcChartEx\ChartAddIn\ChartAnalysisToolAddIn\Symbol\Properties_Figure.cpp

; 203  : {

  00003	8b f1		 mov	 esi, ecx
; File C:\Program Files (x86)\Microsoft Visual Studio\2019\Community\VC\Tools\MSVC\14.29.30133\atlmfc\include\afxwin2.inl

; 628  : 	{ ASSERT(::IsWindow(m_hWnd)); return (int)::SendMessage(m_hWnd, BM_GETCHECK, 0, 0); }

  00005	6a 00		 push	 0
  00007	68 f0 00 00 00	 push	 240			; 000000f0H
  0000c	ff b6 c8 00 00
	00		 push	 DWORD PTR [esi+200]
  00012	ff 15 00 00 00
	00		 call	 DWORD PTR __imp__SendMessageA@16
; File D:\git\src\IBK\IBK_DRFN\ProjSrc\SrcChartEx\ChartAddIn\ChartAnalysisToolAddIn\Symbol\Properties_Figure.cpp

; 204  : 	m_pProperties->SetFillState(m_Fill_Bt.GetCheck() ? true : false);

  00018	8b 8e f0 05 00
	00		 mov	 ecx, DWORD PTR [esi+1520]
  0001e	85 c0		 test	 eax, eax
  00020	0f 95 c0	 setne	 al
  00023	0f b6 c0	 movzx	 eax, al
  00026	50		 push	 eax
  00027	e8 00 00 00 00	 call	 ?SetFillState@CPropertiesData_Figure@@QAEX_N@Z ; CPropertiesData_Figure::SetFillState
  0002c	5e		 pop	 esi

; 205  : }

  0002d	c3		 ret	 0
?OnCheck@CProperties_Figure@@IAEXXZ ENDP		; CProperties_Figure::OnCheck
_TEXT	ENDS
; Function compile flags: /Ogtp
; File D:\git\src\IBK\IBK_DRFN\ProjSrc\SrcChartEx\ChartAddIn\ChartAnalysisToolAddIn\Symbol\Properties_Figure.cpp
; File C:\Program Files (x86)\Microsoft Visual Studio\2019\Community\VC\Tools\MSVC\14.29.30133\atlmfc\include\afxwin2.inl
; File C:\Program Files (x86)\Microsoft Visual Studio\2019\Community\VC\Tools\MSVC\14.29.30133\atlmfc\include\afxdlgs.h
; File D:\git\src\IBK\IBK_DRFN\ProjSrc\SrcChartEx\ChartAddIn\ChartAnalysisToolAddIn\Symbol\Properties_Figure.cpp
;	COMDAT ?OnColor@CProperties_Figure@@IAEXXZ
_TEXT	SEGMENT
_color$ = -224						; size = 208
$T2 = -16						; size = 4
$T3 = -16						; size = 4
__$EHRec$ = -12						; size = 12
?OnColor@CProperties_Figure@@IAEXXZ PROC		; CProperties_Figure::OnColor, COMDAT
; _this$ = ecx

; 103  : {

  00000	55		 push	 ebp
  00001	8b ec		 mov	 ebp, esp
  00003	6a ff		 push	 -1
  00005	68 00 00 00 00	 push	 __ehhandler$?OnColor@CProperties_Figure@@IAEXXZ
  0000a	64 a1 00 00 00
	00		 mov	 eax, DWORD PTR fs:0
  00010	50		 push	 eax
  00011	81 ec d4 00 00
	00		 sub	 esp, 212		; 000000d4H
  00017	56		 push	 esi
  00018	a1 00 00 00 00	 mov	 eax, DWORD PTR ___security_cookie
  0001d	33 c5		 xor	 eax, ebp
  0001f	50		 push	 eax
  00020	8d 45 f4	 lea	 eax, DWORD PTR __$EHRec$[ebp]
  00023	64 a3 00 00 00
	00		 mov	 DWORD PTR fs:0, eax
  00029	8b f1		 mov	 esi, ecx

; 104  : 	CColorDialog color;

  0002b	6a 00		 push	 0
  0002d	6a 00		 push	 0
  0002f	6a 00		 push	 0
  00031	8d 8d 20 ff ff
	ff		 lea	 ecx, DWORD PTR _color$[ebp]
  00037	e8 00 00 00 00	 call	 ??0CColorDialog@@QAE@KKPAVCWnd@@@Z ; CColorDialog::CColorDialog

; 105  : 	if(color.DoModal() == IDOK) {

  0003c	8d 8d 20 ff ff
	ff		 lea	 ecx, DWORD PTR _color$[ebp]
  00042	c7 45 fc 00 00
	00 00		 mov	 DWORD PTR __$EHRec$[ebp+8], 0
  00049	e8 00 00 00 00	 call	 ?DoModal@CColorDialog@@UAEHXZ ; CColorDialog::DoModal
  0004e	83 f8 01	 cmp	 eax, 1
  00051	75 42		 jne	 SHORT $LN2@OnColor

; 106  : 		m_pProperties->SetColor(color.GetColor());

  00053	8b 45 d4	 mov	 eax, DWORD PTR _color$[ebp+180]
  00056	8b 8e f0 05 00
	00		 mov	 ecx, DWORD PTR [esi+1520]
  0005c	89 45 f0	 mov	 DWORD PTR $T3[ebp], eax
  0005f	8d 45 f0	 lea	 eax, DWORD PTR $T3[ebp]
  00062	50		 push	 eax
  00063	e8 00 00 00 00	 call	 ?SetColor@CPropertiesData_Figure@@QAEXABK@Z ; CPropertiesData_Figure::SetColor

; 107  : 		m_Color_Bt.SetColor(m_pProperties->GetColor());

  00068	8b 8e f0 05 00
	00		 mov	 ecx, DWORD PTR [esi+1520]
  0006e	e8 00 00 00 00	 call	 ?GetColor@CPropertiesData_Figure@@QAEKXZ ; CPropertiesData_Figure::GetColor
  00073	89 45 f0	 mov	 DWORD PTR $T2[ebp], eax
  00076	8d 8e 28 01 00
	00		 lea	 ecx, DWORD PTR [esi+296]
  0007c	8d 45 f0	 lea	 eax, DWORD PTR $T2[ebp]
  0007f	50		 push	 eax
  00080	e8 00 00 00 00	 call	 ?SetColor@CColorButton@@QAEXABK@Z ; CColorButton::SetColor
; File C:\Program Files (x86)\Microsoft Visual Studio\2019\Community\VC\Tools\MSVC\14.29.30133\atlmfc\include\afxwin2.inl

; 114  : 	{ ASSERT(::IsWindow(m_hWnd)); ::InvalidateRect(m_hWnd, NULL, bErase); }

  00085	6a 01		 push	 1
  00087	6a 00		 push	 0
  00089	ff b6 48 01 00
	00		 push	 DWORD PTR [esi+328]
  0008f	ff 15 00 00 00
	00		 call	 DWORD PTR __imp__InvalidateRect@12
$LN2@OnColor:
; File C:\Program Files (x86)\Microsoft Visual Studio\2019\Community\VC\Tools\MSVC\14.29.30133\atlmfc\include\afxdlgs.h

; 110  :     virtual ~CCommonDialog() {};

  00095	8d 8d 20 ff ff
	ff		 lea	 ecx, DWORD PTR _color$[ebp]
  0009b	c7 85 20 ff ff
	ff 00 00 00 00	 mov	 DWORD PTR _color$[ebp], OFFSET ??_7CCommonDialog@@6B@
  000a5	e8 00 00 00 00	 call	 ??1CDialog@@UAE@XZ	; CDialog::~CDialog
; File D:\git\src\IBK\IBK_DRFN\ProjSrc\SrcChartEx\ChartAddIn\ChartAnalysisToolAddIn\Symbol\Properties_Figure.cpp

; 110  : }

  000aa	8b 4d f4	 mov	 ecx, DWORD PTR __$EHRec$[ebp]
  000ad	64 89 0d 00 00
	00 00		 mov	 DWORD PTR fs:0, ecx
  000b4	59		 pop	 ecx
  000b5	5e		 pop	 esi
  000b6	8b e5		 mov	 esp, ebp
  000b8	5d		 pop	 ebp
  000b9	c3		 ret	 0
_TEXT	ENDS
;	COMDAT text$x
text$x	SEGMENT
__unwindfunclet$?OnColor@CProperties_Figure@@IAEXXZ$0:
  00000	8d 8d 20 ff ff
	ff		 lea	 ecx, DWORD PTR _color$[ebp]
  00006	e9 00 00 00 00	 jmp	 ??1CColorDialog@@UAE@XZ
  0000b	cc		 int	 3
  0000c	cc		 int	 3
  0000d	cc		 int	 3
  0000e	cc		 int	 3
  0000f	cc		 int	 3
__ehhandler$?OnColor@CProperties_Figure@@IAEXXZ:
  00010	90		 npad	 1
  00011	90		 npad	 1
  00012	8b 54 24 08	 mov	 edx, DWORD PTR [esp+8]
  00016	8d 42 0c	 lea	 eax, DWORD PTR [edx+12]
  00019	8b 8a 24 ff ff
	ff		 mov	 ecx, DWORD PTR [edx-220]
  0001f	33 c8		 xor	 ecx, eax
  00021	e8 00 00 00 00	 call	 @__security_check_cookie@4
  00026	b8 00 00 00 00	 mov	 eax, OFFSET __ehfuncinfo$?OnColor@CProperties_Figure@@IAEXXZ
  0002b	e9 00 00 00 00	 jmp	 ___CxxFrameHandler3
text$x	ENDS
?OnColor@CProperties_Figure@@IAEXXZ ENDP		; CProperties_Figure::OnColor
; Function compile flags: /Ogtp
; File D:\git\src\IBK\IBK_DRFN\ProjSrc\SrcChartEx\ChartAddIn\ChartAnalysisToolAddIn\Symbol\Properties_Figure.cpp
; File C:\Program Files (x86)\Microsoft Visual Studio\2019\Community\VC\Tools\MSVC\14.29.30133\atlmfc\include\afxwin2.inl
; File D:\git\src\IBK\IBK_DRFN\ProjSrc\SrcChartEx\ChartAddIn\ChartAnalysisToolAddIn\Symbol\Properties_Figure.cpp
; File C:\Program Files (x86)\Microsoft Visual Studio\2019\Community\VC\Tools\MSVC\14.29.30133\atlmfc\include\afxwin2.inl
; File D:\git\src\IBK\IBK_DRFN\ProjSrc\SrcChartEx\ChartAddIn\ChartAnalysisToolAddIn\Symbol\Properties_Figure.cpp
; File C:\Program Files (x86)\Microsoft Visual Studio\2019\Community\VC\Tools\MSVC\14.29.30133\atlmfc\include\afxwin1.inl
; File D:\git\src\IBK\IBK_DRFN\ProjSrc\SrcChartEx\ChartAddIn\ChartAnalysisToolAddIn\Include_Chart\Dll_Load\IMetaTable.h
; File C:\Program Files (x86)\Microsoft Visual Studio\2019\Community\VC\Tools\MSVC\14.29.30133\atlmfc\include\afxwin1.inl
; File D:\git\src\IBK\IBK_DRFN\ProjSrc\SrcChartEx\ChartAddIn\ChartAnalysisToolAddIn\Symbol\Properties_Figure.cpp
; File D:\git\src\IBK\IBK_DRFN\ProjSrc\SrcChartEx\ChartAddIn\ChartAnalysisToolAddIn\Include_Chart\Dll_Load\IMetaTable.h
; File C:\Program Files (x86)\Microsoft Visual Studio\2019\Community\VC\Tools\MSVC\14.29.30133\atlmfc\include\afxwin1.inl
; File D:\git\src\IBK\IBK_DRFN\ProjSrc\SrcChartEx\ChartAddIn\ChartAnalysisToolAddIn\Include_Chart\Dll_Load\IMetaTable.h
; File C:\Program Files (x86)\Microsoft Visual Studio\2019\Community\VC\Tools\MSVC\14.29.30133\atlmfc\include\afxwin1.inl
; File D:\git\src\IBK\IBK_DRFN\ProjSrc\SrcChartEx\ChartAddIn\ChartAnalysisToolAddIn\Symbol\Properties_Figure.cpp
; File C:\Program Files (x86)\Microsoft Visual Studio\2019\Community\VC\Tools\MSVC\14.29.30133\atlmfc\include\afxwin1.inl
; File D:\git\src\IBK\IBK_DRFN\ProjSrc\SrcChartEx\ChartAddIn\ChartAnalysisToolAddIn\Include_Chart\Dll_Load\IMetaTable.h
; File C:\Program Files (x86)\Microsoft Visual Studio\2019\Community\VC\Tools\MSVC\14.29.30133\atlmfc\include\afxwin1.inl
; File D:\git\src\IBK\IBK_DRFN\ProjSrc\SrcChartEx\ChartAddIn\ChartAnalysisToolAddIn\Symbol\Properties_Figure.cpp
; File D:\git\src\IBK\IBK_DRFN\ProjSrc\SrcChartEx\ChartAddIn\ChartAnalysisToolAddIn\Include_Chart\Dll_Load\IMetaTable.h
; File C:\Program Files (x86)\Microsoft Visual Studio\2019\Community\VC\Tools\MSVC\14.29.30133\atlmfc\include\afxwin1.inl
; File D:\git\src\IBK\IBK_DRFN\ProjSrc\SrcChartEx\ChartAddIn\ChartAnalysisToolAddIn\Symbol\Properties_Figure.cpp
; File D:\git\src\IBK\IBK_DRFN\ProjSrc\SrcChartEx\ChartAddIn\ChartAnalysisToolAddIn\Include_Chart\Dll_Load\IMetaTable.h
; File C:\Program Files (x86)\Microsoft Visual Studio\2019\Community\VC\Tools\MSVC\14.29.30133\atlmfc\include\afxwin1.inl
; File D:\git\src\IBK\IBK_DRFN\ProjSrc\SrcChartEx\ChartAddIn\ChartAnalysisToolAddIn\Symbol\Properties_Figure.cpp
; File C:\Program Files (x86)\Microsoft Visual Studio\2019\Community\VC\Tools\MSVC\14.29.30133\atlmfc\include\cstringt.h
; File D:\git\src\IBK\IBK_DRFN\ProjSrc\SrcChartEx\ChartAddIn\ChartAnalysisToolAddIn\Symbol\Properties_Figure.cpp
; File C:\Program Files (x86)\Microsoft Visual Studio\2019\Community\VC\Tools\MSVC\14.29.30133\atlmfc\include\atlsimpstr.h
; File D:\git\src\IBK\IBK_DRFN\ProjSrc\SrcChartEx\ChartAddIn\ChartAnalysisToolAddIn\Symbol\Properties_Figure.cpp
; File C:\Program Files (x86)\Microsoft Visual Studio\2019\Community\VC\Tools\MSVC\14.29.30133\atlmfc\include\atlsimpstr.h
; File D:\git\src\IBK\IBK_DRFN\ProjSrc\SrcChartEx\ChartAddIn\ChartAnalysisToolAddIn\Symbol\Properties_Figure.cpp
;	COMDAT ?OnInitDialog@CProperties_Figure@@MAEHXZ
_TEXT	SEGMENT
_dY$1$ = -44						; size = 8
_dY$2 = -44						; size = 8
_nBlockColumn$3 = -36					; size = 4
_dX$1$ = -32						; size = 8
_dX$4 = -32						; size = 8
tv441 = -28						; size = 4
___mlrs__$5 = -28					; size = 4
___mlrs__$6 = -28					; size = 4
_nCenter_x$7 = -24					; size = 4
_strYValue$8 = -20					; size = 4
_i$1$ = -16						; size = 4
$T9 = -16						; size = 4
__$EHRec$ = -12						; size = 12
?OnInitDialog@CProperties_Figure@@MAEHXZ PROC		; CProperties_Figure::OnInitDialog, COMDAT
; _this$ = ecx

; 136  : {

  00000	55		 push	 ebp
  00001	8b ec		 mov	 ebp, esp
  00003	6a ff		 push	 -1
  00005	68 00 00 00 00	 push	 __ehhandler$?OnInitDialog@CProperties_Figure@@MAEHXZ
  0000a	64 a1 00 00 00
	00		 mov	 eax, DWORD PTR fs:0
  00010	50		 push	 eax
  00011	83 ec 20	 sub	 esp, 32			; 00000020H
  00014	53		 push	 ebx
  00015	56		 push	 esi
  00016	57		 push	 edi
  00017	a1 00 00 00 00	 mov	 eax, DWORD PTR ___security_cookie
  0001c	33 c5		 xor	 eax, ebp
  0001e	50		 push	 eax
  0001f	8d 45 f4	 lea	 eax, DWORD PTR __$EHRec$[ebp]
  00022	64 a3 00 00 00
	00		 mov	 DWORD PTR fs:0, eax
  00028	8b d9		 mov	 ebx, ecx

; 137  : 	CDialog::OnInitDialog();

  0002a	e8 00 00 00 00	 call	 ?OnInitDialog@CDialog@@UAEHXZ ; CDialog::OnInitDialog

; 138  : 	
; 139  : 	//color
; 140  : 	m_Color_Bt.SetColor(m_pProperties->GetColor());

  0002f	8b 8b f0 05 00
	00		 mov	 ecx, DWORD PTR [ebx+1520]
  00035	e8 00 00 00 00	 call	 ?GetColor@CPropertiesData_Figure@@QAEKXZ ; CPropertiesData_Figure::GetColor
  0003a	89 45 f0	 mov	 DWORD PTR $T9[ebp], eax
  0003d	8d 8b 28 01 00
	00		 lea	 ecx, DWORD PTR [ebx+296]
  00043	8d 45 f0	 lea	 eax, DWORD PTR $T9[ebp]
  00046	50		 push	 eax
  00047	e8 00 00 00 00	 call	 ?SetColor@CColorButton@@QAEXABK@Z ; CColorButton::SetColor

; 141  : 	m_Fill_Bt.SetCheck(m_pProperties->GetFillState());

  0004c	8b 8b f0 05 00
	00		 mov	 ecx, DWORD PTR [ebx+1520]
  00052	e8 00 00 00 00	 call	 ?GetFillState@CPropertiesData_Figure@@QAE_NXZ ; CPropertiesData_Figure::GetFillState
; File C:\Program Files (x86)\Microsoft Visual Studio\2019\Community\VC\Tools\MSVC\14.29.30133\atlmfc\include\afxwin2.inl

; 630  : 	{ ASSERT(::IsWindow(m_hWnd)); ::SendMessage(m_hWnd, BM_SETCHECK, nCheck, 0); }

  00057	6a 00		 push	 0
; File D:\git\src\IBK\IBK_DRFN\ProjSrc\SrcChartEx\ChartAddIn\ChartAnalysisToolAddIn\Symbol\Properties_Figure.cpp

; 141  : 	m_Fill_Bt.SetCheck(m_pProperties->GetFillState());

  00059	0f b6 c0	 movzx	 eax, al
; File C:\Program Files (x86)\Microsoft Visual Studio\2019\Community\VC\Tools\MSVC\14.29.30133\atlmfc\include\afxwin2.inl

; 630  : 	{ ASSERT(::IsWindow(m_hWnd)); ::SendMessage(m_hWnd, BM_SETCHECK, nCheck, 0); }

  0005c	50		 push	 eax
  0005d	68 f1 00 00 00	 push	 241			; 000000f1H
  00062	ff b3 c8 00 00
	00		 push	 DWORD PTR [ebx+200]
  00068	ff 15 00 00 00
	00		 call	 DWORD PTR __imp__SendMessageA@16
; File D:\git\src\IBK\IBK_DRFN\ProjSrc\SrcChartEx\ChartAddIn\ChartAnalysisToolAddIn\Symbol\Properties_Figure.cpp

; 114  : 	ML_SET_DEFAULT_RES();

  0006e	e8 00 00 00 00	 call	 ?AfxGetStaticModuleState@@YGPAVAFX_MODULE_STATE@@XZ ; AfxGetStaticModuleState
  00073	8b 78 08	 mov	 edi, DWORD PTR [eax+8]
; File C:\Program Files (x86)\Microsoft Visual Studio\2019\Community\VC\Tools\MSVC\14.29.30133\atlmfc\include\afxwin1.inl

; 25   : 		return afxCurrentResourceHandle; }

  00076	e8 00 00 00 00	 call	 ?AfxGetModuleState@@YGPAVAFX_MODULE_STATE@@XZ ; AfxGetModuleState
; File D:\git\src\IBK\IBK_DRFN\ProjSrc\SrcChartEx\ChartAddIn\ChartAnalysisToolAddIn\Include_Chart\Dll_Load\IMetaTable.h

; 1034 : 		m_hInstance = AfxGetResourceHandle();

  0007b	8b 70 0c	 mov	 esi, DWORD PTR [eax+12]
  0007e	89 75 e4	 mov	 DWORD PTR ___mlrs__$6[ebp], esi
; File C:\Program Files (x86)\Microsoft Visual Studio\2019\Community\VC\Tools\MSVC\14.29.30133\atlmfc\include\afxwin1.inl

; 27   : 	{ ASSERT(hInstResource != NULL); afxCurrentResourceHandle = hInstResource; }

  00081	e8 00 00 00 00	 call	 ?AfxGetModuleState@@YGPAVAFX_MODULE_STATE@@XZ ; AfxGetModuleState
  00086	89 78 0c	 mov	 DWORD PTR [eax+12], edi
; File D:\git\src\IBK\IBK_DRFN\ProjSrc\SrcChartEx\ChartAddIn\ChartAnalysisToolAddIn\Symbol\Properties_Figure.cpp

; 116  : 	m_ctlWidth.LoadBitmap(IDB_LINEWIDTH, 5);

  00089	6a 05		 push	 5
  0008b	68 3c 23 00 00	 push	 9020			; 0000233cH
  00090	8d 8b 40 02 00
	00		 lea	 ecx, DWORD PTR [ebx+576]
  00096	c7 45 fc 00 00
	00 00		 mov	 DWORD PTR __$EHRec$[ebp+8], 0
  0009d	e8 00 00 00 00	 call	 ?LoadBitmapA@CBitmapComboBox@@QAEXHI@Z ; CBitmapComboBox::LoadBitmapA

; 117  : 
; 118  : 	if(m_pProperties->GetWeight() <= 0)

  000a2	8b 8b f0 05 00
	00		 mov	 ecx, DWORD PTR [ebx+1520]
  000a8	e8 00 00 00 00	 call	 ?GetWeight@CPropertiesData_Figure@@QAEHXZ ; CPropertiesData_Figure::GetWeight
  000ad	85 c0		 test	 eax, eax
  000af	7f 04		 jg	 SHORT $LN16@OnInitDial

; 119  : 		m_nWidth = 0;

  000b1	33 c0		 xor	 eax, eax
  000b3	eb 23		 jmp	 SHORT $LN19@OnInitDial
$LN16@OnInitDial:

; 120  : 	else if(m_pProperties->GetWeight() >= 6)

  000b5	8b 8b f0 05 00
	00		 mov	 ecx, DWORD PTR [ebx+1520]
  000bb	e8 00 00 00 00	 call	 ?GetWeight@CPropertiesData_Figure@@QAEHXZ ; CPropertiesData_Figure::GetWeight
  000c0	83 f8 06	 cmp	 eax, 6
  000c3	7c 07		 jl	 SHORT $LN18@OnInitDial

; 121  : 		m_nWidth = 4;

  000c5	b8 04 00 00 00	 mov	 eax, 4
  000ca	eb 0c		 jmp	 SHORT $LN19@OnInitDial
$LN18@OnInitDial:

; 122  : 	else
; 123  : 		m_nWidth = m_pProperties->GetWeight() - 1;

  000cc	8b 8b f0 05 00
	00		 mov	 ecx, DWORD PTR [ebx+1520]
  000d2	e8 00 00 00 00	 call	 ?GetWeight@CPropertiesData_Figure@@QAEHXZ ; CPropertiesData_Figure::GetWeight
  000d7	48		 dec	 eax
$LN19@OnInitDial:
; File D:\git\src\IBK\IBK_DRFN\ProjSrc\SrcChartEx\ChartAddIn\ChartAnalysisToolAddIn\Include_Chart\Dll_Load\IMetaTable.h

; 1038 : 	{

  000d8	c7 45 fc 01 00
	00 00		 mov	 DWORD PTR __$EHRec$[ebp+8], 1
  000df	89 83 d0 05 00
	00		 mov	 DWORD PTR [ebx+1488], eax
; File C:\Program Files (x86)\Microsoft Visual Studio\2019\Community\VC\Tools\MSVC\14.29.30133\atlmfc\include\afxwin1.inl

; 27   : 	{ ASSERT(hInstResource != NULL); afxCurrentResourceHandle = hInstResource; }

  000e5	e8 00 00 00 00	 call	 ?AfxGetModuleState@@YGPAVAFX_MODULE_STATE@@XZ ; AfxGetModuleState
; File D:\git\src\IBK\IBK_DRFN\ProjSrc\SrcChartEx\ChartAddIn\ChartAnalysisToolAddIn\Include_Chart\Dll_Load\IMetaTable.h

; 1040 : 	}

  000ea	c7 45 fc ff ff
	ff ff		 mov	 DWORD PTR __$EHRec$[ebp+8], -1
; File C:\Program Files (x86)\Microsoft Visual Studio\2019\Community\VC\Tools\MSVC\14.29.30133\atlmfc\include\afxwin1.inl

; 27   : 	{ ASSERT(hInstResource != NULL); afxCurrentResourceHandle = hInstResource; }

  000f1	89 70 0c	 mov	 DWORD PTR [eax+12], esi
; File D:\git\src\IBK\IBK_DRFN\ProjSrc\SrcChartEx\ChartAddIn\ChartAnalysisToolAddIn\Symbol\Properties_Figure.cpp

; 128  : 	ML_SET_DEFAULT_RES();

  000f4	e8 00 00 00 00	 call	 ?AfxGetStaticModuleState@@YGPAVAFX_MODULE_STATE@@XZ ; AfxGetStaticModuleState
  000f9	8b 78 08	 mov	 edi, DWORD PTR [eax+8]
; File C:\Program Files (x86)\Microsoft Visual Studio\2019\Community\VC\Tools\MSVC\14.29.30133\atlmfc\include\afxwin1.inl

; 25   : 		return afxCurrentResourceHandle; }

  000fc	e8 00 00 00 00	 call	 ?AfxGetModuleState@@YGPAVAFX_MODULE_STATE@@XZ ; AfxGetModuleState
; File D:\git\src\IBK\IBK_DRFN\ProjSrc\SrcChartEx\ChartAddIn\ChartAnalysisToolAddIn\Include_Chart\Dll_Load\IMetaTable.h

; 1034 : 		m_hInstance = AfxGetResourceHandle();

  00101	8b 70 0c	 mov	 esi, DWORD PTR [eax+12]
  00104	89 75 e4	 mov	 DWORD PTR ___mlrs__$5[ebp], esi
; File C:\Program Files (x86)\Microsoft Visual Studio\2019\Community\VC\Tools\MSVC\14.29.30133\atlmfc\include\afxwin1.inl

; 27   : 	{ ASSERT(hInstResource != NULL); afxCurrentResourceHandle = hInstResource; }

  00107	e8 00 00 00 00	 call	 ?AfxGetModuleState@@YGPAVAFX_MODULE_STATE@@XZ ; AfxGetModuleState
  0010c	89 78 0c	 mov	 DWORD PTR [eax+12], edi
; File D:\git\src\IBK\IBK_DRFN\ProjSrc\SrcChartEx\ChartAddIn\ChartAnalysisToolAddIn\Symbol\Properties_Figure.cpp

; 130  : 	m_ctlStyle.LoadBitmap(IDB_LINESTYLE, 5);

  0010f	6a 05		 push	 5
  00111	68 41 1f 00 00	 push	 8001			; 00001f41H
  00116	8d 8b b0 01 00
	00		 lea	 ecx, DWORD PTR [ebx+432]
  0011c	c7 45 fc 02 00
	00 00		 mov	 DWORD PTR __$EHRec$[ebp+8], 2
  00123	e8 00 00 00 00	 call	 ?LoadBitmapA@CBitmapComboBox@@QAEXHI@Z ; CBitmapComboBox::LoadBitmapA

; 131  : 
; 132  : 	m_nStyle = (int)m_pProperties->GetStyle();

  00128	8b 8b f0 05 00
	00		 mov	 ecx, DWORD PTR [ebx+1520]
  0012e	e8 00 00 00 00	 call	 ?GetStyle@CPropertiesData_Figure@@QAEHXZ ; CPropertiesData_Figure::GetStyle
  00133	89 83 d4 05 00
	00		 mov	 DWORD PTR [ebx+1492], eax
; File D:\git\src\IBK\IBK_DRFN\ProjSrc\SrcChartEx\ChartAddIn\ChartAnalysisToolAddIn\Include_Chart\Dll_Load\IMetaTable.h

; 1038 : 	{

  00139	c7 45 fc 03 00
	00 00		 mov	 DWORD PTR __$EHRec$[ebp+8], 3
; File C:\Program Files (x86)\Microsoft Visual Studio\2019\Community\VC\Tools\MSVC\14.29.30133\atlmfc\include\afxwin1.inl

; 27   : 	{ ASSERT(hInstResource != NULL); afxCurrentResourceHandle = hInstResource; }

  00140	e8 00 00 00 00	 call	 ?AfxGetModuleState@@YGPAVAFX_MODULE_STATE@@XZ ; AfxGetModuleState
; File D:\git\src\IBK\IBK_DRFN\ProjSrc\SrcChartEx\ChartAddIn\ChartAnalysisToolAddIn\Symbol\Properties_Figure.cpp

; 145  : 	UpdateData(FALSE);

  00145	6a 00		 push	 0
  00147	8b cb		 mov	 ecx, ebx
; File D:\git\src\IBK\IBK_DRFN\ProjSrc\SrcChartEx\ChartAddIn\ChartAnalysisToolAddIn\Include_Chart\Dll_Load\IMetaTable.h

; 1040 : 	}

  00149	c7 45 fc ff ff
	ff ff		 mov	 DWORD PTR __$EHRec$[ebp+8], -1
; File C:\Program Files (x86)\Microsoft Visual Studio\2019\Community\VC\Tools\MSVC\14.29.30133\atlmfc\include\afxwin1.inl

; 27   : 	{ ASSERT(hInstResource != NULL); afxCurrentResourceHandle = hInstResource; }

  00150	89 70 0c	 mov	 DWORD PTR [eax+12], esi
; File D:\git\src\IBK\IBK_DRFN\ProjSrc\SrcChartEx\ChartAddIn\ChartAnalysisToolAddIn\Symbol\Properties_Figure.cpp

; 145  : 	UpdateData(FALSE);

  00153	e8 00 00 00 00	 call	 ?UpdateData@CWnd@@QAEHH@Z ; CWnd::UpdateData

; 146  : 
; 147  : 	// 2011.02.08 by SYS >>  YYYY()  : / 14Byte  (YYYYMMDDhhmmss)
; 148  : 
; 149  : // 	SetXDateTime(m_coordStart.GetX(),0);
; 150  : // 	SetYValue(m_coordStart.GetY(),0);
; 151  : // 
; 152  : // 	SetXDateTime(m_coordEnd.GetX(),1);
; 153  : // 	SetYValue(m_coordEnd.GetY(),1);
; 154  : 
; 155  : 	int i = 0;
; 156  : 	for (i = 0; i < 2; i++)

  00158	33 f6		 xor	 esi, esi
  0015a	8d bb e4 05 00
	00		 lea	 edi, DWORD PTR [ebx+1508]
  00160	89 75 f0	 mov	 DWORD PTR _i$1$[ebp], esi
$LL4@OnInitDial:

; 157  : 	{
; 158  : 		double dX = 0;

  00163	0f 57 c0	 xorps	 xmm0, xmm0
  00166	f2 0f 11 45 e0	 movsd	 QWORD PTR _dX$1$[ebp], xmm0

; 159  : 		double dY = 0;

  0016b	f2 0f 11 45 d4	 movsd	 QWORD PTR _dY$1$[ebp], xmm0

; 160  : 		if (i == 0)

  00170	85 f6		 test	 esi, esi
  00172	75 13		 jne	 SHORT $LN5@OnInitDial

; 161  : 		{
; 162  : 			dX = m_coordStart.GetX();

  00174	8d 8b f8 05 00
	00		 lea	 ecx, DWORD PTR [ebx+1528]
  0017a	e8 00 00 00 00	 call	 ?GetX@CCoordinate@@QBENXZ ; CCoordinate::GetX

; 163  : 			dY = m_coordStart.GetY();

  0017f	8d 8b f8 05 00
	00		 lea	 ecx, DWORD PTR [ebx+1528]

; 164  : 		}

  00185	eb 16		 jmp	 SHORT $LN75@OnInitDial
$LN5@OnInitDial:

; 165  : 		else if (i == 1)

  00187	83 fe 01	 cmp	 esi, 1
  0018a	75 33		 jne	 SHORT $LN7@OnInitDial

; 166  : 		{
; 167  : 			dX = m_coordEnd.GetX();

  0018c	8d 8b 10 06 00
	00		 lea	 ecx, DWORD PTR [ebx+1552]
  00192	e8 00 00 00 00	 call	 ?GetX@CCoordinate@@QBENXZ ; CCoordinate::GetX

; 168  : 			dY = m_coordEnd.GetY();

  00197	8d 8b 10 06 00
	00		 lea	 ecx, DWORD PTR [ebx+1552]
$LN75@OnInitDial:
; File C:\Program Files (x86)\Microsoft Visual Studio\2019\Community\VC\Tools\MSVC\14.29.30133\atlmfc\include\cstringt.h

; 2486 : 		return(str1.Compare(psz2) == 0);

  0019d	dd 5d e0	 fstp	 QWORD PTR _dX$4[ebp]
  001a0	e8 00 00 00 00	 call	 ?GetY@CCoordinate@@QBENXZ ; CCoordinate::GetY
  001a5	f2 0f 10 45 e0	 movsd	 xmm0, QWORD PTR _dX$4[ebp]
  001aa	8b 75 f0	 mov	 esi, DWORD PTR _i$1$[ebp]
  001ad	dd 5d d4	 fstp	 QWORD PTR _dY$2[ebp]
  001b0	f2 0f 11 45 e0	 movsd	 QWORD PTR _dX$1$[ebp], xmm0
  001b5	f2 0f 10 45 d4	 movsd	 xmm0, QWORD PTR _dY$2[ebp]
  001ba	f2 0f 11 45 d4	 movsd	 QWORD PTR _dY$1$[ebp], xmm0
$LN7@OnInitDial:
  001bf	68 00 00 00 00	 push	 OFFSET ??_C@_0P@IMPIBBAB@YYYYMMDDHHMMSS@
  001c4	8b cf		 mov	 ecx, edi
  001c6	ff 15 00 00 00
	00		 call	 DWORD PTR __imp_?Compare@?$CStringT@DV?$StrTraitMFC_DLL@DV?$ChTraitsCRT@D@ATL@@@@@ATL@@QBEHPBD@Z
  001cc	85 c0		 test	 eax, eax
; File D:\git\src\IBK\IBK_DRFN\ProjSrc\SrcChartEx\ChartAddIn\ChartAnalysisToolAddIn\Symbol\Properties_Figure.cpp

; 171  : 		if (m_strFormatX == _T("YYYYMMDDHHMMSS"))

  001ce	75 6a		 jne	 SHORT $LN72@OnInitDial

; 172  : 		{
; 173  : 			if( m_nDataPeriod == CScaleBaseData::HORZ_WEEKLEY	||

  001d0	8b 83 ec 05 00
	00		 mov	 eax, DWORD PTR [ebx+1516]
  001d6	83 f8 02	 cmp	 eax, 2
  001d9	74 05		 je	 SHORT $LN69@OnInitDial
  001db	83 f8 03	 cmp	 eax, 3
  001de	75 5a		 jne	 SHORT $LN72@OnInitDial
$LN69@OnInitDial:

; 174  : 				m_nDataPeriod == CScaleBaseData::HORZ_MONTHLY)
; 175  : 			{
; 176  : 				// ,     .
; 177  : 				if (m_pMainBlock) 

  001e0	8b 8b d8 05 00
	00		 mov	 ecx, DWORD PTR [ebx+1496]
  001e6	f2 0f 10 45 e0	 movsd	 xmm0, QWORD PTR _dX$1$[ebp]
  001eb	85 c9		 test	 ecx, ecx
  001ed	74 50		 je	 SHORT $LN11@OnInitDial

; 178  : 				{
; 179  : 					// 
; 180  : 					int nRow = m_blockIndex.GetRow();
; 181  : 					int nCol = m_blockIndex.GetColumn();

  001ef	8b b3 e0 05 00
	00		 mov	 esi, DWORD PTR [ebx+1504]

; 182  : 
; 183  : 					int nCenter_x;
; 184  : 					int nOrgXPos		= m_pMainBlock->GetXFromDouble(nRow, nCol, dX, nCenter_x);

  001f5	8d 55 e8	 lea	 edx, DWORD PTR _nCenter_x$7[ebp]
  001f8	8b 01		 mov	 eax, DWORD PTR [ecx]
  001fa	8b bb dc 05 00
	00		 mov	 edi, DWORD PTR [ebx+1500]
  00200	52		 push	 edx
  00201	83 ec 08	 sub	 esp, 8
  00204	f2 0f 11 04 24	 movsd	 QWORD PTR [esp], xmm0
  00209	56		 push	 esi
  0020a	57		 push	 edi
  0020b	ff 90 14 01 00
	00		 call	 DWORD PTR [eax+276]

; 185  : 
; 186  : 					int nBlockColumn;
; 187  : 					double dModifyData	= m_pMainBlock->GetDoubleFromX(nRow, nCol, nOrgXPos, &nBlockColumn, nCenter_x);

  00211	8b 8b d8 05 00
	00		 mov	 ecx, DWORD PTR [ebx+1496]
  00217	8d 55 e8	 lea	 edx, DWORD PTR _nCenter_x$7[ebp]
  0021a	6a 00		 push	 0
  0021c	52		 push	 edx
  0021d	8d 55 dc	 lea	 edx, DWORD PTR _nBlockColumn$3[ebp]
  00220	52		 push	 edx
  00221	8b 11		 mov	 edx, DWORD PTR [ecx]
  00223	50		 push	 eax
  00224	56		 push	 esi
  00225	57		 push	 edi
  00226	8b 82 10 01 00
	00		 mov	 eax, DWORD PTR [edx+272]
  0022c	ff d0		 call	 eax
  0022e	8b 75 f0	 mov	 esi, DWORD PTR _i$1$[ebp]
  00231	8d bb e4 05 00
	00		 lea	 edi, DWORD PTR [ebx+1508]

; 188  : 					dX = dModifyData;

  00237	dd 5d e0	 fstp	 QWORD PTR _dX$4[ebp]
$LN72@OnInitDial:

; 189  : 				}
; 190  : 			}
; 191  : 		}
; 192  : 
; 193  : 		SetXDateTime(dX,i);

  0023a	f2 0f 10 45 e0	 movsd	 xmm0, QWORD PTR _dX$1$[ebp]
$LN11@OnInitDial:
  0023f	56		 push	 esi
  00240	83 ec 08	 sub	 esp, 8
  00243	8b cb		 mov	 ecx, ebx
  00245	f2 0f 11 04 24	 movsd	 QWORD PTR [esp], xmm0
  0024a	e8 00 00 00 00	 call	 ?SetXDateTime@CProperties_Figure@@AAEXNH@Z ; CProperties_Figure::SetXDateTime

; 286  : 	CString strYValue;

  0024f	8d 4d ec	 lea	 ecx, DWORD PTR _strYValue$8[ebp]
  00252	ff 15 00 00 00
	00		 call	 DWORD PTR __imp_??0?$CStringT@DV?$StrTraitMFC_DLL@DV?$ChTraitsCRT@D@ATL@@@@@ATL@@QAE@XZ

; 289  : 	strYValue.Format(_T("%f"),dYValue);

  00258	f2 0f 10 45 d4	 movsd	 xmm0, QWORD PTR _dY$1$[ebp]
  0025d	8d 45 ec	 lea	 eax, DWORD PTR _strYValue$8[ebp]
  00260	83 ec 08	 sub	 esp, 8
  00263	c7 45 fc 04 00
	00 00		 mov	 DWORD PTR __$EHRec$[ebp+8], 4
  0026a	f2 0f 11 04 24	 movsd	 QWORD PTR [esp], xmm0
  0026f	68 00 00 00 00	 push	 OFFSET ??_C@_02NJPGOMH@?$CFf@
  00274	50		 push	 eax
  00275	ff 15 00 00 00
	00		 call	 DWORD PTR __imp_?Format@?$CStringT@DV?$StrTraitMFC_DLL@DV?$ChTraitsCRT@D@ATL@@@@@ATL@@QAAXPBDZZ
; File C:\Program Files (x86)\Microsoft Visual Studio\2019\Community\VC\Tools\MSVC\14.29.30133\atlmfc\include\atlsimpstr.h

; 519  : 		return( GetData()->nDataLength );

  0027b	8b 45 ec	 mov	 eax, DWORD PTR _strYValue$8[ebp]
; File D:\git\src\IBK\IBK_DRFN\ProjSrc\SrcChartEx\ChartAddIn\ChartAnalysisToolAddIn\Symbol\Properties_Figure.cpp

; 289  : 	strYValue.Format(_T("%f"),dYValue);

  0027e	83 c4 10	 add	 esp, 16			; 00000010H
; File C:\Program Files (x86)\Microsoft Visual Studio\2019\Community\VC\Tools\MSVC\14.29.30133\atlmfc\include\atlsimpstr.h

; 533  : 		return( GetLength() == 0 );

  00281	83 78 f4 00	 cmp	 DWORD PTR [eax-12], 0
; File D:\git\src\IBK\IBK_DRFN\ProjSrc\SrcChartEx\ChartAddIn\ChartAnalysisToolAddIn\Symbol\Properties_Figure.cpp

; 290  : 	if(strYValue.IsEmpty() == FALSE)

  00285	74 1d		 je	 SHORT $LN53@OnInitDial

; 291  : 	{	
; 292  : 		if(nIndex == 0)

  00287	85 f6		 test	 esi, esi
  00289	75 08		 jne	 SHORT $LN51@OnInitDial

; 293  : 			m_ctrlEditValue1.SetWindowText(strYValue);	

  0028b	8d 8b d0 03 00
	00		 lea	 ecx, DWORD PTR [ebx+976]
  00291	eb 0b		 jmp	 SHORT $LN76@OnInitDial
$LN51@OnInitDial:

; 294  : 		else if(nIndex == 1)

  00293	83 fe 01	 cmp	 esi, 1
  00296	75 0c		 jne	 SHORT $LN53@OnInitDial

; 295  : 			m_ctrlEditValue2.SetWindowText(strYValue);	

  00298	8d 8b 50 04 00
	00		 lea	 ecx, DWORD PTR [ebx+1104]
$LN76@OnInitDial:

; 296  : 	}
; 297  : }

  0029e	50		 push	 eax
  0029f	e8 00 00 00 00	 call	 ?SetWindowTextA@CWnd@@QAEXPBD@Z ; CWnd::SetWindowTextA
$LN53@OnInitDial:
  002a4	8d 4d ec	 lea	 ecx, DWORD PTR _strYValue$8[ebp]
  002a7	c7 45 fc ff ff
	ff ff		 mov	 DWORD PTR __$EHRec$[ebp+8], -1
  002ae	ff 15 00 00 00
	00		 call	 DWORD PTR __imp_??1?$CStringT@DV?$StrTraitMFC_DLL@DV?$ChTraitsCRT@D@ATL@@@@@ATL@@QAE@XZ

; 146  : 
; 147  : 	// 2011.02.08 by SYS >>  YYYY()  : / 14Byte  (YYYYMMDDhhmmss)
; 148  : 
; 149  : // 	SetXDateTime(m_coordStart.GetX(),0);
; 150  : // 	SetYValue(m_coordStart.GetY(),0);
; 151  : // 
; 152  : // 	SetXDateTime(m_coordEnd.GetX(),1);
; 153  : // 	SetYValue(m_coordEnd.GetY(),1);
; 154  : 
; 155  : 	int i = 0;
; 156  : 	for (i = 0; i < 2; i++)

  002b4	46		 inc	 esi
  002b5	89 75 f0	 mov	 DWORD PTR _i$1$[ebp], esi
  002b8	83 fe 02	 cmp	 esi, 2
  002bb	0f 8c a2 fe ff
	ff		 jl	 $LL4@OnInitDial

; 194  : 		SetYValue(dY,i);
; 195  : 	}
; 196  : 	// 2011.02.08 by SYS <<
; 197  : 
; 198  : 	return TRUE;  // return TRUE unless you set the focus to a control

  002c1	b8 01 00 00 00	 mov	 eax, 1

; 199  : 	              // EXCEPTION: OCX Property Pages should return FALSE
; 200  : }

  002c6	8b 4d f4	 mov	 ecx, DWORD PTR __$EHRec$[ebp]
  002c9	64 89 0d 00 00
	00 00		 mov	 DWORD PTR fs:0, ecx
  002d0	59		 pop	 ecx
  002d1	5f		 pop	 edi
  002d2	5e		 pop	 esi
  002d3	5b		 pop	 ebx
  002d4	8b e5		 mov	 esp, ebp
  002d6	5d		 pop	 ebp
  002d7	c3		 ret	 0
_TEXT	ENDS
;	COMDAT text$x
text$x	SEGMENT
__unwindfunclet$?OnInitDialog@CProperties_Figure@@MAEHXZ$0:
  00000	8d 4d e4	 lea	 ecx, DWORD PTR ___mlrs__$6[ebp]
  00003	e9 00 00 00 00	 jmp	 ??1CMultiLanguageResourceSetter@@QAE@XZ ; CMultiLanguageResourceSetter::~CMultiLanguageResourceSetter
__unwindfunclet$?OnInitDialog@CProperties_Figure@@MAEHXZ$2:
  00008	8d 4d e4	 lea	 ecx, DWORD PTR ___mlrs__$5[ebp]
  0000b	e9 00 00 00 00	 jmp	 ??1CMultiLanguageResourceSetter@@QAE@XZ ; CMultiLanguageResourceSetter::~CMultiLanguageResourceSetter
__unwindfunclet$?OnInitDialog@CProperties_Figure@@MAEHXZ$4:
  00010	8d 4d ec	 lea	 ecx, DWORD PTR _strYValue$8[ebp]
  00013	ff 25 00 00 00
	00		 jmp	 DWORD PTR __imp_??1?$CStringT@DV?$StrTraitMFC_DLL@DV?$ChTraitsCRT@D@ATL@@@@@ATL@@QAE@XZ
  00019	cc		 int	 3
  0001a	cc		 int	 3
  0001b	cc		 int	 3
  0001c	cc		 int	 3
  0001d	cc		 int	 3
__ehhandler$?OnInitDialog@CProperties_Figure@@MAEHXZ:
  0001e	90		 npad	 1
  0001f	90		 npad	 1
  00020	8b 54 24 08	 mov	 edx, DWORD PTR [esp+8]
  00024	8d 42 0c	 lea	 eax, DWORD PTR [edx+12]
  00027	8b 4a d0	 mov	 ecx, DWORD PTR [edx-48]
  0002a	33 c8		 xor	 ecx, eax
  0002c	e8 00 00 00 00	 call	 @__security_check_cookie@4
  00031	b8 00 00 00 00	 mov	 eax, OFFSET __ehfuncinfo$?OnInitDialog@CProperties_Figure@@MAEHXZ
  00036	e9 00 00 00 00	 jmp	 ___CxxFrameHandler3
text$x	ENDS
?OnInitDialog@CProperties_Figure@@MAEHXZ ENDP		; CProperties_Figure::OnInitDialog
; Function compile flags: /Ogtp
; File D:\git\src\IBK\IBK_DRFN\ProjSrc\SrcChartEx\ChartAddIn\ChartAnalysisToolAddIn\Symbol\Properties_Figure.cpp
;	COMDAT ?DoDataExchange@CProperties_Figure@@MAEXPAVCDataExchange@@@Z
_TEXT	SEGMENT
_pDX$ = 8						; size = 4
?DoDataExchange@CProperties_Figure@@MAEXPAVCDataExchange@@@Z PROC ; CProperties_Figure::DoDataExchange, COMDAT
; _this$ = ecx

; 66   : {

  00000	55		 push	 ebp
  00001	8b ec		 mov	 ebp, esp
  00003	56		 push	 esi

; 67   : 	CDialog::DoDataExchange(pDX);
; 68   : 	//{{AFX_DATA_MAP(CProperties_Figure)
; 69   : 	DDX_Control(pDX, IDC_CHECK, m_Fill_Bt);

  00004	8b 75 08	 mov	 esi, DWORD PTR _pDX$[ebp]
  00007	57		 push	 edi
  00008	8b f9		 mov	 edi, ecx
  0000a	8d 87 a8 00 00
	00		 lea	 eax, DWORD PTR [edi+168]
  00010	50		 push	 eax
  00011	68 09 04 00 00	 push	 1033			; 00000409H
  00016	56		 push	 esi
  00017	e8 00 00 00 00	 call	 ?DDX_Control@@YGXPAVCDataExchange@@HAAVCWnd@@@Z ; DDX_Control

; 70   : 	DDX_Control(pDX, IDC_COLOR, m_Color_Bt);

  0001c	8d 87 28 01 00
	00		 lea	 eax, DWORD PTR [edi+296]
  00022	50		 push	 eax
  00023	68 04 04 00 00	 push	 1028			; 00000404H
  00028	56		 push	 esi
  00029	e8 00 00 00 00	 call	 ?DDX_Control@@YGXPAVCDataExchange@@HAAVCWnd@@@Z ; DDX_Control

; 71   : 	DDX_Control(pDX, IDC_STYLE, m_ctlStyle);

  0002e	8d 87 b0 01 00
	00		 lea	 eax, DWORD PTR [edi+432]
  00034	50		 push	 eax
  00035	68 2e 27 00 00	 push	 10030			; 0000272eH
  0003a	56		 push	 esi
  0003b	e8 00 00 00 00	 call	 ?DDX_Control@@YGXPAVCDataExchange@@HAAVCWnd@@@Z ; DDX_Control

; 72   : 	DDX_Control(pDX, IDC_WIDTH, m_ctlWidth);

  00040	8d 87 40 02 00
	00		 lea	 eax, DWORD PTR [edi+576]
  00046	50		 push	 eax
  00047	68 63 23 00 00	 push	 9059			; 00002363H
  0004c	56		 push	 esi
  0004d	e8 00 00 00 00	 call	 ?DDX_Control@@YGXPAVCDataExchange@@HAAVCWnd@@@Z ; DDX_Control

; 73   : 
; 74   : 	DDX_Control(pDX, IDC_EDIT_VALUE1, m_ctrlEditValue1);

  00052	8d 87 d0 03 00
	00		 lea	 eax, DWORD PTR [edi+976]
  00058	50		 push	 eax
  00059	68 a7 0f 00 00	 push	 4007			; 00000fa7H
  0005e	56		 push	 esi
  0005f	e8 00 00 00 00	 call	 ?DDX_Control@@YGXPAVCDataExchange@@HAAVCWnd@@@Z ; DDX_Control

; 75   : 	DDX_Control(pDX, IDC_EDIT_VALUE2, m_ctrlEditValue2);

  00064	8d 87 50 04 00
	00		 lea	 eax, DWORD PTR [edi+1104]
  0006a	50		 push	 eax
  0006b	68 a8 0f 00 00	 push	 4008			; 00000fa8H
  00070	56		 push	 esi
  00071	e8 00 00 00 00	 call	 ?DDX_Control@@YGXPAVCDataExchange@@HAAVCWnd@@@Z ; DDX_Control

; 76   : 	
; 77   : 	DDX_Control(pDX, IDC_EDIT_XDATE1, m_ctrlEditXValue1);

  00076	8d 87 d0 02 00
	00		 lea	 eax, DWORD PTR [edi+720]
  0007c	50		 push	 eax
  0007d	68 b2 0f 00 00	 push	 4018			; 00000fb2H
  00082	56		 push	 esi
  00083	e8 00 00 00 00	 call	 ?DDX_Control@@YGXPAVCDataExchange@@HAAVCWnd@@@Z ; DDX_Control

; 78   : 	DDX_Control(pDX, IDC_EDIT_XDATE2, m_ctrlEditXValue2);

  00088	8d 87 50 03 00
	00		 lea	 eax, DWORD PTR [edi+848]
  0008e	50		 push	 eax
  0008f	68 b4 0f 00 00	 push	 4020			; 00000fb4H
  00094	56		 push	 esi
  00095	e8 00 00 00 00	 call	 ?DDX_Control@@YGXPAVCDataExchange@@HAAVCWnd@@@Z ; DDX_Control

; 79   : 	
; 80   : 	DDX_Control(pDX, IDC_DATETIMEPICKER_XDATE1, m_ctrlXDateTime1);

  0009a	8d 87 d0 04 00
	00		 lea	 eax, DWORD PTR [edi+1232]
  000a0	50		 push	 eax
  000a1	68 ce 42 00 00	 push	 17102			; 000042ceH
  000a6	56		 push	 esi
