; Listing generated by Microsoft (R) Optimizing Compiler Version 19.29.30145.0 

	TITLE	D:\git\src\IBK\IBK_DRFN\#DRfn-CS\_Obj\Symbol\Properties_Manager.obj
	.686P
	.XMM
	include listing.inc
	.model	flat

INCLUDELIB MSVCRT
INCLUDELIB OLDNAMES

PUBLIC	?__empty_global_delete@@YAXPAX@Z		; __empty_global_delete
PUBLIC	?__empty_global_delete@@YAXPAXI@Z		; __empty_global_delete
PUBLIC	??1CObject@@UAE@XZ				; CObject::~CObject
PUBLIC	?Serialize@CObject@@UAEXAAVCArchive@@@Z		; CObject::Serialize
PUBLIC	?AssertValid@CObject@@UBEXXZ			; CObject::AssertValid
PUBLIC	?Dump@CObject@@UBEXAAVCDumpContext@@@Z		; CObject::Dump
PUBLIC	??1CGdiObject@@UAE@XZ				; CGdiObject::~CGdiObject
PUBLIC	??_GCGdiObject@@UAEPAXI@Z			; CGdiObject::`scalar deleting destructor'
PUBLIC	??1CBitmap@@UAE@XZ				; CBitmap::~CBitmap
PUBLIC	??_GCBitmap@@UAEPAXI@Z				; CBitmap::`scalar deleting destructor'
PUBLIC	??0CProperties_Manager@@QAE@PAVCDrawingSymbol@@PAVCPropertiesData_text@@PAUIChartManager133101@@ABV?$CStringT@DV?$StrTraitMFC_DLL@DV?$ChTraitsCRT@D@ATL@@@@@ATL@@ABW4HORZSCALEDRAWERTYPE@CScaleBaseData@@PAUHWND__@@ABVCBlockIndex@@3@Z ; CProperties_Manager::CProperties_Manager
PUBLIC	??1CProperties_Manager@@UAE@XZ			; CProperties_Manager::~CProperties_Manager
PUBLIC	?PopUpPropertiesBox@CProperties_Manager@@QAE_NXZ ; CProperties_Manager::PopUpPropertiesBox
PUBLIC	?ApplySymbolProperties@CProperties_Manager@@AAEXXZ ; CProperties_Manager::ApplySymbolProperties
PUBLIC	?SetData@CProperties_Manager@@AAE_NXZ		; CProperties_Manager::SetData
PUBLIC	?WhenSymbol@CProperties_Manager@@AAE_NW4TOOLTYPE@CSymbolBaseData@@@Z ; CProperties_Manager::WhenSymbol
PUBLIC	?WhenSymbolIsText@CProperties_Manager@@AAE_NXZ	; CProperties_Manager::WhenSymbolIsText
PUBLIC	?WhenSymbolIsFigure@CProperties_Manager@@AAE_NXZ ; CProperties_Manager::WhenSymbolIsFigure
PUBLIC	??_GCProperties_Manager@@UAEPAXI@Z		; CProperties_Manager::`scalar deleting destructor'
PUBLIC	??1CProperties@@UAE@XZ				; CProperties::~CProperties
PUBLIC	??1CProperties_Figure@@UAE@XZ			; CProperties_Figure::~CProperties_Figure
PUBLIC	??1CProperties_text@@UAE@XZ			; CProperties_text::~CProperties_text
PUBLIC	??1CMultiLanguageResourceSetter@@QAE@XZ		; CMultiLanguageResourceSetter::~CMultiLanguageResourceSetter
PUBLIC	??_R0PAVCException@@@8				; CException * `RTTI Type Descriptor'
PUBLIC	??_7CGdiObject@@6B@				; CGdiObject::`vftable'
PUBLIC	??_7CBitmap@@6B@				; CBitmap::`vftable'
PUBLIC	??_C@_0HD@JJCHHHNK@C?3?2Program?5Files?5?$CIx86?$CJ?2Microsof@ ; `string'
PUBLIC	??_C@_0BP@OIEOKIDM@Exception?5thrown?5in?5destructor@ ; `string'
PUBLIC	??_C@_0BB@HBOOMJBF@?$CFTs?5?$CI?$CFTs?3?$CFd?$CJ?6?$CFTs@ ; `string'
PUBLIC	??_C@_0N@OMEMOKLE@?$CFTs?5?$CI?$CFTs?3?$CFd?$CJ@ ; `string'
PUBLIC	??_R0?AVCObject@@@8				; CObject `RTTI Type Descriptor'
PUBLIC	??_R3CObject@@8					; CObject::`RTTI Class Hierarchy Descriptor'
PUBLIC	??_R2CObject@@8					; CObject::`RTTI Base Class Array'
PUBLIC	??_R1A@?0A@EA@CObject@@8			; CObject::`RTTI Base Class Descriptor at (0,-1,0,64)'
PUBLIC	??_R4CGdiObject@@6B@				; CGdiObject::`RTTI Complete Object Locator'
PUBLIC	??_R0?AVCGdiObject@@@8				; CGdiObject `RTTI Type Descriptor'
PUBLIC	??_R3CGdiObject@@8				; CGdiObject::`RTTI Class Hierarchy Descriptor'
PUBLIC	??_R2CGdiObject@@8				; CGdiObject::`RTTI Base Class Array'
PUBLIC	??_R1A@?0A@EA@CGdiObject@@8			; CGdiObject::`RTTI Base Class Descriptor at (0,-1,0,64)'
PUBLIC	??_R4CBitmap@@6B@				; CBitmap::`RTTI Complete Object Locator'
PUBLIC	??_R0?AVCBitmap@@@8				; CBitmap `RTTI Type Descriptor'
PUBLIC	??_R3CBitmap@@8					; CBitmap::`RTTI Class Hierarchy Descriptor'
PUBLIC	??_R2CBitmap@@8					; CBitmap::`RTTI Base Class Array'
PUBLIC	??_R1A@?0A@EA@CBitmap@@8			; CBitmap::`RTTI Base Class Descriptor at (0,-1,0,64)'
PUBLIC	??_7CProperties_Manager@@6B@			; CProperties_Manager::`vftable'
PUBLIC	??_C@_0BA@ENJOCHIO@LoadResourceDLL@		; `string'
PUBLIC	??_R4CProperties_Manager@@6B@			; CProperties_Manager::`RTTI Complete Object Locator'
PUBLIC	??_R0?AVCProperties_Manager@@@8			; CProperties_Manager `RTTI Type Descriptor'
PUBLIC	??_R3CProperties_Manager@@8			; CProperties_Manager::`RTTI Class Hierarchy Descriptor'
PUBLIC	??_R2CProperties_Manager@@8			; CProperties_Manager::`RTTI Base Class Array'
PUBLIC	??_R1A@?0A@EA@CProperties_Manager@@8		; CProperties_Manager::`RTTI Base Class Descriptor at (0,-1,0,64)'
EXTRN	??3@YAXPAX@Z:PROC				; operator delete
EXTRN	??3@YAXPAXI@Z:PROC				; operator delete
EXTRN	?__global_delete@@YAXPAXI@Z:PROC		; __global_delete
EXTRN	___std_terminate:PROC
EXTRN	__imp__GetProcAddress@8:PROC
EXTRN	__imp_??0?$CStringT@DV?$StrTraitMFC_DLL@DV?$ChTraitsCRT@D@ATL@@@@@ATL@@QAE@XZ:PROC
EXTRN	__imp_??1?$CStringT@DV?$StrTraitMFC_DLL@DV?$ChTraitsCRT@D@ATL@@@@@ATL@@QAE@XZ:PROC
EXTRN	__imp_??4?$CStringT@DV?$StrTraitMFC_DLL@DV?$ChTraitsCRT@D@ATL@@@@@ATL@@QAEAAV01@ABV01@@Z:PROC
EXTRN	__imp_?Format@?$CStringT@DV?$StrTraitMFC_DLL@DV?$ChTraitsCRT@D@ATL@@@@@ATL@@QAAXPBDZZ:PROC
EXTRN	?AfxGetModuleState@@YGPAVAFX_MODULE_STATE@@XZ:PROC ; AfxGetModuleState
EXTRN	?AfxGetStaticModuleState@@YGPAVAFX_MODULE_STATE@@XZ:PROC ; AfxGetStaticModuleState
EXTRN	?GetRuntimeClass@CGdiObject@@UBEPAUCRuntimeClass@@XZ:PROC ; CGdiObject::GetRuntimeClass
EXTRN	?DeleteObject@CGdiObject@@QAEHXZ:PROC		; CGdiObject::DeleteObject
EXTRN	??_ECGdiObject@@UAEPAXI@Z:PROC			; CGdiObject::`vector deleting destructor'
EXTRN	?GetRuntimeClass@CBitmap@@UBEPAUCRuntimeClass@@XZ:PROC ; CBitmap::GetRuntimeClass
EXTRN	??_ECBitmap@@UAEPAXI@Z:PROC			; CBitmap::`vector deleting destructor'
EXTRN	?FromHandle@CWnd@@SGPAV1@PAUHWND__@@@Z:PROC	; CWnd::FromHandle
EXTRN	?DoModal@CDialog@@UAEHXZ:PROC			; CDialog::DoModal
EXTRN	??1CDialog@@UAE@XZ:PROC				; CDialog::~CDialog
EXTRN	??1CButton@@UAE@XZ:PROC				; CButton::~CButton
EXTRN	??1CComboBox@@UAE@XZ:PROC			; CComboBox::~CComboBox
EXTRN	??1CEdit@@UAE@XZ:PROC				; CEdit::~CEdit
EXTRN	?AfxMessageBox@@YGHPBDII@Z:PROC			; AfxMessageBox
EXTRN	??1CDateTimeCtrl@@UAE@XZ:PROC			; CDateTimeCtrl::~CDateTimeCtrl
EXTRN	?GetColor@CPropertiesData_Figure@@QAEKXZ:PROC	; CPropertiesData_Figure::GetColor
EXTRN	?SetColor@CPropertiesData_Figure@@QAEXABK@Z:PROC ; CPropertiesData_Figure::SetColor
EXTRN	?GetStyle@CPropertiesData_Figure@@QAEHXZ:PROC	; CPropertiesData_Figure::GetStyle
EXTRN	?SetStyle@CPropertiesData_Figure@@QAEXABH@Z:PROC ; CPropertiesData_Figure::SetStyle
EXTRN	?GetWeight@CPropertiesData_Figure@@QAEHXZ:PROC	; CPropertiesData_Figure::GetWeight
EXTRN	?SetWeight@CPropertiesData_Figure@@QAEXABH@Z:PROC ; CPropertiesData_Figure::SetWeight
EXTRN	?GetFillState@CPropertiesData_Figure@@QAE_NXZ:PROC ; CPropertiesData_Figure::GetFillState
EXTRN	?SetFillState@CPropertiesData_Figure@@QAEX_N@Z:PROC ; CPropertiesData_Figure::SetFillState
EXTRN	?GetLogFont@CPropertiesData_Symbol@@QAEAAUtagLOGFONTA@@XZ:PROC ; CPropertiesData_Symbol::GetLogFont
EXTRN	?GetTextColor@CPropertiesData_Symbol@@QBEKXZ:PROC ; CPropertiesData_Symbol::GetTextColor
EXTRN	?GetSizeType@CPropertiesData_Symbol@@QBE?AW4SIZETYPE@CSymbolBaseData@@XZ:PROC ; CPropertiesData_Symbol::GetSizeType
EXTRN	?SetLogFont@CPropertiesData_Symbol@@QAEXABUtagLOGFONTA@@@Z:PROC ; CPropertiesData_Symbol::SetLogFont
EXTRN	?SetTextColor@CPropertiesData_Symbol@@QAEXABK@Z:PROC ; CPropertiesData_Symbol::SetTextColor
EXTRN	?SetSizeType@CPropertiesData_Symbol@@QAEXW4SIZETYPE@CSymbolBaseData@@@Z:PROC ; CPropertiesData_Symbol::SetSizeType
EXTRN	??0CPropertiesData_text@@QAE@XZ:PROC		; CPropertiesData_text::CPropertiesData_text
EXTRN	??1CPropertiesData_text@@UAE@XZ:PROC		; CPropertiesData_text::~CPropertiesData_text
EXTRN	?SetText@CPropertiesData_text@@QAEXABV?$CStringT@DV?$StrTraitMFC_DLL@DV?$ChTraitsCRT@D@ATL@@@@@ATL@@@Z:PROC ; CPropertiesData_text::SetText
EXTRN	?GetText@CPropertiesData_text@@QAE?AV?$CStringT@DV?$StrTraitMFC_DLL@DV?$ChTraitsCRT@D@ATL@@@@@ATL@@XZ:PROC ; CPropertiesData_text::GetText
EXTRN	??_ECProperties_Manager@@UAEPAXI@Z:PROC		; CProperties_Manager::`vector deleting destructor'
EXTRN	?GetLogFont@CDrawingSymbol@@QAE?AUtagLOGFONTA@@XZ:PROC ; CDrawingSymbol::GetLogFont
EXTRN	?GetTextColor@CDrawingSymbol@@QBEKXZ:PROC	; CDrawingSymbol::GetTextColor
EXTRN	?SetLogFontAndTextColor@CDrawingSymbol@@QAEXABUtagLOGFONTA@@ABK@Z:PROC ; CDrawingSymbol::SetLogFontAndTextColor
EXTRN	?SetSizeType@CDrawingSymbol@@QAEXABW4SIZETYPE@CSymbolBaseData@@@Z:PROC ; CDrawingSymbol::SetSizeType
EXTRN	?GetWeight@CDrawingSymbol@@QBEHXZ:PROC		; CDrawingSymbol::GetWeight
EXTRN	?GetStyle@CDrawingSymbol@@QBEHXZ:PROC		; CDrawingSymbol::GetStyle
EXTRN	?GetColor@CDrawingSymbol@@QBEKXZ:PROC		; CDrawingSymbol::GetColor
EXTRN	?GetSizeType@CDrawingSymbol@@QBE?AW4SIZETYPE@CSymbolBaseData@@XZ:PROC ; CDrawingSymbol::GetSizeType
EXTRN	?GetSymbolType@CDrawingSymbol@@QAE?AW4TOOLTYPE@CSymbolBaseData@@XZ:PROC ; CDrawingSymbol::GetSymbolType
EXTRN	?SetWeight@CDrawingSymbol@@QAEXABH@Z:PROC	; CDrawingSymbol::SetWeight
EXTRN	?SetStyle@CDrawingSymbol@@QAEXABH@Z:PROC	; CDrawingSymbol::SetStyle
EXTRN	?SetColor@CDrawingSymbol@@QAEXABK@Z:PROC	; CDrawingSymbol::SetColor
EXTRN	?SetFillState@CDrawingSymbol@@QAEX_N@Z:PROC	; CDrawingSymbol::SetFillState
EXTRN	?GetFillState@CDrawingSymbol@@QAE_NXZ:PROC	; CDrawingSymbol::GetFillState
EXTRN	??1CPreView@@UAE@XZ:PROC			; CPreView::~CPreView
EXTRN	??1CColorButton@@UAE@XZ:PROC			; CColorButton::~CColorButton
EXTRN	??0CProperties@@QAE@PAVCPropertiesData_text@@W4TOOLTYPE@CSymbolBaseData@@PAVCWnd@@@Z:PROC ; CProperties::CProperties
EXTRN	?SetBackgroundColorInViewer@CProperties@@QAEXABK@Z:PROC ; CProperties::SetBackgroundColorInViewer
EXTRN	??0CProperties_Figure@@QAE@PAUIChartManager133101@@ABVCBlockIndex@@ABV?$CStringT@DV?$StrTraitMFC_DLL@DV?$ChTraitsCRT@D@ATL@@@@@ATL@@PAVCPropertiesData_text@@ABW4TOOLTYPE@CSymbolBaseData@@2ABW4HORZSCALEDRAWERTYPE@CScaleBaseData@@ABVCCoordinate@@6PAVCWnd@@@Z:PROC ; CProperties_Figure::CProperties_Figure
EXTRN	?GetStartCoord@CProperties_Figure@@QBE?AVCCoordinate@@XZ:PROC ; CProperties_Figure::GetStartCoord
EXTRN	?GetEndCoord@CProperties_Figure@@QBE?AVCCoordinate@@XZ:PROC ; CProperties_Figure::GetEndCoord
EXTRN	??0CProperties_text@@QAE@PAVCPropertiesData_text@@PAVCWnd@@@Z:PROC ; CProperties_text::CProperties_text
EXTRN	@__security_check_cookie@4:PROC
EXTRN	___CxxFrameHandler3:PROC
EXTRN	??_7type_info@@6B@:QWORD			; type_info::`vftable'
EXTRN	?g_iMetaTable@@3VIMetaTable@@A:BYTE		; g_iMetaTable
EXTRN	___security_cookie:DWORD
;	COMDAT ??_R1A@?0A@EA@CProperties_Manager@@8
rdata$r	SEGMENT
??_R1A@?0A@EA@CProperties_Manager@@8 DD FLAT:??_R0?AVCProperties_Manager@@@8 ; CProperties_Manager::`RTTI Base Class Descriptor at (0,-1,0,64)'
	DD	00H
	DD	00H
	DD	0ffffffffH
	DD	00H
	DD	040H
	DD	FLAT:??_R3CProperties_Manager@@8
rdata$r	ENDS
;	COMDAT ??_R2CProperties_Manager@@8
rdata$r	SEGMENT
??_R2CProperties_Manager@@8 DD FLAT:??_R1A@?0A@EA@CProperties_Manager@@8 ; CProperties_Manager::`RTTI Base Class Array'
rdata$r	ENDS
;	COMDAT ??_R3CProperties_Manager@@8
rdata$r	SEGMENT
??_R3CProperties_Manager@@8 DD 00H			; CProperties_Manager::`RTTI Class Hierarchy Descriptor'
	DD	00H
	DD	01H
	DD	FLAT:??_R2CProperties_Manager@@8
rdata$r	ENDS
;	COMDAT ??_R0?AVCProperties_Manager@@@8
data$rs	SEGMENT
??_R0?AVCProperties_Manager@@@8 DD FLAT:??_7type_info@@6B@ ; CProperties_Manager `RTTI Type Descriptor'
	DD	00H
	DB	'.?AVCProperties_Manager@@', 00H
data$rs	ENDS
;	COMDAT ??_R4CProperties_Manager@@6B@
rdata$r	SEGMENT
??_R4CProperties_Manager@@6B@ DD 00H			; CProperties_Manager::`RTTI Complete Object Locator'
	DD	00H
	DD	00H
	DD	FLAT:??_R0?AVCProperties_Manager@@@8
	DD	FLAT:??_R3CProperties_Manager@@8
rdata$r	ENDS
;	COMDAT ??_C@_0BA@ENJOCHIO@LoadResourceDLL@
CONST	SEGMENT
??_C@_0BA@ENJOCHIO@LoadResourceDLL@ DB 'LoadResourceDLL', 00H ; `string'
CONST	ENDS
;	COMDAT ??_7CProperties_Manager@@6B@
CONST	SEGMENT
??_7CProperties_Manager@@6B@ DD FLAT:??_R4CProperties_Manager@@6B@ ; CProperties_Manager::`vftable'
	DD	FLAT:??_ECProperties_Manager@@UAEPAXI@Z
CONST	ENDS
;	COMDAT ??_R1A@?0A@EA@CBitmap@@8
rdata$r	SEGMENT
??_R1A@?0A@EA@CBitmap@@8 DD FLAT:??_R0?AVCBitmap@@@8	; CBitmap::`RTTI Base Class Descriptor at (0,-1,0,64)'
	DD	02H
	DD	00H
	DD	0ffffffffH
	DD	00H
	DD	040H
	DD	FLAT:??_R3CBitmap@@8
rdata$r	ENDS
;	COMDAT ??_R2CBitmap@@8
rdata$r	SEGMENT
??_R2CBitmap@@8 DD FLAT:??_R1A@?0A@EA@CBitmap@@8	; CBitmap::`RTTI Base Class Array'
	DD	FLAT:??_R1A@?0A@EA@CGdiObject@@8
	DD	FLAT:??_R1A@?0A@EA@CObject@@8
rdata$r	ENDS
;	COMDAT ??_R3CBitmap@@8
rdata$r	SEGMENT
??_R3CBitmap@@8 DD 00H					; CBitmap::`RTTI Class Hierarchy Descriptor'
	DD	00H
	DD	03H
	DD	FLAT:??_R2CBitmap@@8
rdata$r	ENDS
;	COMDAT ??_R0?AVCBitmap@@@8
data$rs	SEGMENT
??_R0?AVCBitmap@@@8 DD FLAT:??_7type_info@@6B@		; CBitmap `RTTI Type Descriptor'
	DD	00H
	DB	'.?AVCBitmap@@', 00H
data$rs	ENDS
;	COMDAT ??_R4CBitmap@@6B@
rdata$r	SEGMENT
??_R4CBitmap@@6B@ DD 00H				; CBitmap::`RTTI Complete Object Locator'
	DD	00H
	DD	00H
	DD	FLAT:??_R0?AVCBitmap@@@8
	DD	FLAT:??_R3CBitmap@@8
rdata$r	ENDS
;	COMDAT ??_R1A@?0A@EA@CGdiObject@@8
rdata$r	SEGMENT
??_R1A@?0A@EA@CGdiObject@@8 DD FLAT:??_R0?AVCGdiObject@@@8 ; CGdiObject::`RTTI Base Class Descriptor at (0,-1,0,64)'
	DD	01H
	DD	00H
	DD	0ffffffffH
	DD	00H
	DD	040H
	DD	FLAT:??_R3CGdiObject@@8
rdata$r	ENDS
;	COMDAT ??_R2CGdiObject@@8
rdata$r	SEGMENT
??_R2CGdiObject@@8 DD FLAT:??_R1A@?0A@EA@CGdiObject@@8	; CGdiObject::`RTTI Base Class Array'
	DD	FLAT:??_R1A@?0A@EA@CObject@@8
rdata$r	ENDS
;	COMDAT ??_R3CGdiObject@@8
rdata$r	SEGMENT
??_R3CGdiObject@@8 DD 00H				; CGdiObject::`RTTI Class Hierarchy Descriptor'
	DD	00H
	DD	02H
	DD	FLAT:??_R2CGdiObject@@8
rdata$r	ENDS
;	COMDAT ??_R0?AVCGdiObject@@@8
data$rs	SEGMENT
??_R0?AVCGdiObject@@@8 DD FLAT:??_7type_info@@6B@	; CGdiObject `RTTI Type Descriptor'
	DD	00H
	DB	'.?AVCGdiObject@@', 00H
data$rs	ENDS
;	COMDAT ??_R4CGdiObject@@6B@
rdata$r	SEGMENT
??_R4CGdiObject@@6B@ DD 00H				; CGdiObject::`RTTI Complete Object Locator'
	DD	00H
	DD	00H
	DD	FLAT:??_R0?AVCGdiObject@@@8
	DD	FLAT:??_R3CGdiObject@@8
rdata$r	ENDS
;	COMDAT ??_R1A@?0A@EA@CObject@@8
rdata$r	SEGMENT
??_R1A@?0A@EA@CObject@@8 DD FLAT:??_R0?AVCObject@@@8	; CObject::`RTTI Base Class Descriptor at (0,-1,0,64)'
	DD	00H
	DD	00H
	DD	0ffffffffH
	DD	00H
	DD	040H
	DD	FLAT:??_R3CObject@@8
rdata$r	ENDS
;	COMDAT ??_R2CObject@@8
rdata$r	SEGMENT
??_R2CObject@@8 DD FLAT:??_R1A@?0A@EA@CObject@@8	; CObject::`RTTI Base Class Array'
rdata$r	ENDS
;	COMDAT ??_R3CObject@@8
rdata$r	SEGMENT
??_R3CObject@@8 DD 00H					; CObject::`RTTI Class Hierarchy Descriptor'
	DD	00H
	DD	01H
	DD	FLAT:??_R2CObject@@8
rdata$r	ENDS
;	COMDAT ??_R0?AVCObject@@@8
data$rs	SEGMENT
??_R0?AVCObject@@@8 DD FLAT:??_7type_info@@6B@		; CObject `RTTI Type Descriptor'
	DD	00H
	DB	'.?AVCObject@@', 00H
data$rs	ENDS
;	COMDAT ??_C@_0N@OMEMOKLE@?$CFTs?5?$CI?$CFTs?3?$CFd?$CJ@
CONST	SEGMENT
??_C@_0N@OMEMOKLE@?$CFTs?5?$CI?$CFTs?3?$CFd?$CJ@ DB '%Ts (%Ts:%d)', 00H ; `string'
CONST	ENDS
;	COMDAT ??_C@_0BB@HBOOMJBF@?$CFTs?5?$CI?$CFTs?3?$CFd?$CJ?6?$CFTs@
CONST	SEGMENT
??_C@_0BB@HBOOMJBF@?$CFTs?5?$CI?$CFTs?3?$CFd?$CJ?6?$CFTs@ DB '%Ts (%Ts:%d'
	DB	')', 0aH, '%Ts', 00H				; `string'
CONST	ENDS
;	COMDAT ??_C@_0BP@OIEOKIDM@Exception?5thrown?5in?5destructor@
CONST	SEGMENT
??_C@_0BP@OIEOKIDM@Exception?5thrown?5in?5destructor@ DB 'Exception throw'
	DB	'n in destructor', 00H			; `string'
CONST	ENDS
;	COMDAT ??_C@_0HD@JJCHHHNK@C?3?2Program?5Files?5?$CIx86?$CJ?2Microsof@
CONST	SEGMENT
??_C@_0HD@JJCHHHNK@C?3?2Program?5Files?5?$CIx86?$CJ?2Microsof@ DB 'C:\Pro'
	DB	'gram Files (x86)\Microsoft Visual Studio\2019\Community\VC\To'
	DB	'ols\MSVC\14.29.30133\atlmfc\include\afxwin1.inl', 00H ; `string'
CONST	ENDS
;	COMDAT ??_7CBitmap@@6B@
CONST	SEGMENT
??_7CBitmap@@6B@ DD FLAT:??_R4CBitmap@@6B@		; CBitmap::`vftable'
	DD	FLAT:?GetRuntimeClass@CBitmap@@UBEPAUCRuntimeClass@@XZ
	DD	FLAT:??_ECBitmap@@UAEPAXI@Z
	DD	FLAT:?Serialize@CObject@@UAEXAAVCArchive@@@Z
	DD	FLAT:?AssertValid@CObject@@UBEXXZ
	DD	FLAT:?Dump@CObject@@UBEXAAVCDumpContext@@@Z
CONST	ENDS
;	COMDAT ??_7CGdiObject@@6B@
CONST	SEGMENT
??_7CGdiObject@@6B@ DD FLAT:??_R4CGdiObject@@6B@	; CGdiObject::`vftable'
	DD	FLAT:?GetRuntimeClass@CGdiObject@@UBEPAUCRuntimeClass@@XZ
	DD	FLAT:??_ECGdiObject@@UAEPAXI@Z
	DD	FLAT:?Serialize@CObject@@UAEXAAVCArchive@@@Z
	DD	FLAT:?AssertValid@CObject@@UBEXXZ
	DD	FLAT:?Dump@CObject@@UBEXAAVCDumpContext@@@Z
CONST	ENDS
;	COMDAT ??_R0PAVCException@@@8
data$r	SEGMENT
??_R0PAVCException@@@8 DD FLAT:??_7type_info@@6B@	; CException * `RTTI Type Descriptor'
	DD	00H
	DB	'.PAVCException@@', 00H
data$r	ENDS
;	COMDAT xdata$x
xdata$x	SEGMENT
__ehfuncinfo$??1CMultiLanguageResourceSetter@@QAE@XZ DD 019930522H
	DD	00H
	DD	00H
	DD	2 DUP(00H)
	DD	2 DUP(00H)
	DD	00H
	DD	05H
xdata$x	ENDS
;	COMDAT xdata$x
xdata$x	SEGMENT
__unwindtable$??_GCProperties_Manager@@UAEPAXI@Z DD 0ffffffffH
	DD	FLAT:___std_terminate
__ehfuncinfo$??_GCProperties_Manager@@UAEPAXI@Z DD 019930522H
	DD	01H
	DD	FLAT:__unwindtable$??_GCProperties_Manager@@UAEPAXI@Z
	DD	2 DUP(00H)
	DD	2 DUP(00H)
	DD	00H
	DD	05H
xdata$x	ENDS
;	COMDAT xdata$x
xdata$x	SEGMENT
__unwindtable$?WhenSymbolIsFigure@CProperties_Manager@@AAE_NXZ DD 0ffffffffH
	DD	FLAT:__unwindfunclet$?WhenSymbolIsFigure@CProperties_Manager@@AAE_NXZ$0
__ehfuncinfo$?WhenSymbolIsFigure@CProperties_Manager@@AAE_NXZ DD 019930522H
	DD	01H
	DD	FLAT:__unwindtable$?WhenSymbolIsFigure@CProperties_Manager@@AAE_NXZ
	DD	2 DUP(00H)
	DD	2 DUP(00H)
	DD	00H
	DD	01H
xdata$x	ENDS
;	COMDAT xdata$x
xdata$x	SEGMENT
__unwindtable$?WhenSymbolIsText@CProperties_Manager@@AAE_NXZ DD 0ffffffffH
	DD	FLAT:__unwindfunclet$?WhenSymbolIsText@CProperties_Manager@@AAE_NXZ$0
__ehfuncinfo$?WhenSymbolIsText@CProperties_Manager@@AAE_NXZ DD 019930522H
	DD	01H
	DD	FLAT:__unwindtable$?WhenSymbolIsText@CProperties_Manager@@AAE_NXZ
	DD	2 DUP(00H)
	DD	2 DUP(00H)
	DD	00H
	DD	01H
xdata$x	ENDS
;	COMDAT xdata$x
xdata$x	SEGMENT
__unwindtable$?WhenSymbol@CProperties_Manager@@AAE_NW4TOOLTYPE@CSymbolBaseData@@@Z DD 0ffffffffH
	DD	FLAT:__unwindfunclet$?WhenSymbol@CProperties_Manager@@AAE_NW4TOOLTYPE@CSymbolBaseData@@@Z$0
__ehfuncinfo$?WhenSymbol@CProperties_Manager@@AAE_NW4TOOLTYPE@CSymbolBaseData@@@Z DD 019930522H
	DD	01H
	DD	FLAT:__unwindtable$?WhenSymbol@CProperties_Manager@@AAE_NW4TOOLTYPE@CSymbolBaseData@@@Z
	DD	2 DUP(00H)
	DD	2 DUP(00H)
	DD	00H
	DD	01H
xdata$x	ENDS
;	COMDAT xdata$x
xdata$x	SEGMENT
__unwindtable$?SetData@CProperties_Manager@@AAE_NXZ DD 0ffffffffH
	DD	FLAT:__unwindfunclet$?SetData@CProperties_Manager@@AAE_NXZ$0
__ehfuncinfo$?SetData@CProperties_Manager@@AAE_NXZ DD 019930522H
	DD	01H
	DD	FLAT:__unwindtable$?SetData@CProperties_Manager@@AAE_NXZ
	DD	2 DUP(00H)
	DD	2 DUP(00H)
	DD	00H
	DD	01H
xdata$x	ENDS
;	COMDAT xdata$x
xdata$x	SEGMENT
__ehfuncinfo$?PopUpPropertiesBox@CProperties_Manager@@QAE_NXZ DD 019930522H
	DD	0aH
	DD	FLAT:__unwindtable$?PopUpPropertiesBox@CProperties_Manager@@QAE_NXZ
	DD	2 DUP(00H)
	DD	2 DUP(00H)
	DD	00H
	DD	01H
__unwindtable$?PopUpPropertiesBox@CProperties_Manager@@QAE_NXZ DD 0ffffffffH
	DD	FLAT:__unwindfunclet$?PopUpPropertiesBox@CProperties_Manager@@QAE_NXZ$0
	DD	0ffffffffH
	DD	00H
	DD	00H
	DD	FLAT:__unwindfunclet$?PopUpPropertiesBox@CProperties_Manager@@QAE_NXZ$1
	DD	00H
	DD	FLAT:__unwindfunclet$?PopUpPropertiesBox@CProperties_Manager@@QAE_NXZ$3
	DD	0ffffffffH
	DD	00H
	DD	00H
	DD	FLAT:__unwindfunclet$?PopUpPropertiesBox@CProperties_Manager@@QAE_NXZ$15
	DD	0ffffffffH
	DD	00H
	DD	00H
	DD	FLAT:__unwindfunclet$?PopUpPropertiesBox@CProperties_Manager@@QAE_NXZ$19
	DD	0ffffffffH
	DD	00H
	DD	0ffffffffH
	DD	FLAT:___std_terminate
xdata$x	ENDS
;	COMDAT xdata$x
xdata$x	SEGMENT
__ehfuncinfo$??1CProperties_Manager@@UAE@XZ DD 019930522H
	DD	00H
	DD	00H
	DD	2 DUP(00H)
	DD	2 DUP(00H)
	DD	00H
	DD	05H
xdata$x	ENDS
;	COMDAT xdata$x
xdata$x	SEGMENT
__unwindtable$??0CProperties_Manager@@QAE@PAVCDrawingSymbol@@PAVCPropertiesData_text@@PAUIChartManager133101@@ABV?$CStringT@DV?$StrTraitMFC_DLL@DV?$ChTraitsCRT@D@ATL@@@@@ATL@@ABW4HORZSCALEDRAWERTYPE@CScaleBaseData@@PAUHWND__@@ABVCBlockIndex@@3@Z DD 0ffffffffH
	DD	FLAT:__unwindfunclet$??0CProperties_Manager@@QAE@PAVCDrawingSymbol@@PAVCPropertiesData_text@@PAUIChartManager133101@@ABV?$CStringT@DV?$StrTraitMFC_DLL@DV?$ChTraitsCRT@D@ATL@@@@@ATL@@ABW4HORZSCALEDRAWERTYPE@CScaleBaseData@@PAUHWND__@@ABVCBlockIndex@@3@Z$0
	DD	00H
	DD	FLAT:__unwindfunclet$??0CProperties_Manager@@QAE@PAVCDrawingSymbol@@PAVCPropertiesData_text@@PAUIChartManager133101@@ABV?$CStringT@DV?$StrTraitMFC_DLL@DV?$ChTraitsCRT@D@ATL@@@@@ATL@@ABW4HORZSCALEDRAWERTYPE@CScaleBaseData@@PAUHWND__@@ABVCBlockIndex@@3@Z$1
	DD	01H
	DD	FLAT:__unwindfunclet$??0CProperties_Manager@@QAE@PAVCDrawingSymbol@@PAVCPropertiesData_text@@PAUIChartManager133101@@ABV?$CStringT@DV?$StrTraitMFC_DLL@DV?$ChTraitsCRT@D@ATL@@@@@ATL@@ABW4HORZSCALEDRAWERTYPE@CScaleBaseData@@PAUHWND__@@ABVCBlockIndex@@3@Z$2
__ehfuncinfo$??0CProperties_Manager@@QAE@PAVCDrawingSymbol@@PAVCPropertiesData_text@@PAUIChartManager133101@@ABV?$CStringT@DV?$StrTraitMFC_DLL@DV?$ChTraitsCRT@D@ATL@@@@@ATL@@ABW4HORZSCALEDRAWERTYPE@CScaleBaseData@@PAUHWND__@@ABVCBlockIndex@@3@Z DD 019930522H
	DD	03H
	DD	FLAT:__unwindtable$??0CProperties_Manager@@QAE@PAVCDrawingSymbol@@PAVCPropertiesData_text@@PAUIChartManager133101@@ABV?$CStringT@DV?$StrTraitMFC_DLL@DV?$ChTraitsCRT@D@ATL@@@@@ATL@@ABW4HORZSCALEDRAWERTYPE@CScaleBaseData@@PAUHWND__@@ABVCBlockIndex@@3@Z
	DD	2 DUP(00H)
	DD	2 DUP(00H)
	DD	00H
	DD	01H
xdata$x	ENDS
;	COMDAT xdata$x
xdata$x	SEGMENT
__catchsym$??1CGdiObject@@UAE@XZ$3 DD 00H
	DD	FLAT:??_R0PAVCException@@@8
	DD	0fffffde4H
	DD	FLAT:__catch$??1CGdiObject@@UAE@XZ$0
__tryblocktable$??1CGdiObject@@UAE@XZ DD 00H
	DD	00H
	DD	02H
	DD	01H
	DD	FLAT:__catchsym$??1CGdiObject@@UAE@XZ$3
__unwindtable$??1CGdiObject@@UAE@XZ DD 0ffffffffH
	DD	00H
	DD	0ffffffffH
	DD	00H
	DD	01H
	DD	FLAT:__unwindfunclet$??1CGdiObject@@UAE@XZ$2
__ehfuncinfo$??1CGdiObject@@UAE@XZ DD 019930522H
	DD	03H
	DD	FLAT:__unwindtable$??1CGdiObject@@UAE@XZ
	DD	01H
	DD	FLAT:__tryblocktable$??1CGdiObject@@UAE@XZ
	DD	2 DUP(00H)
	DD	00H
	DD	05H
xdata$x	ENDS
; Function compile flags: /Ogtp
; File D:\git\src\IBK\IBK_DRFN\ProjSrc\SrcChartEx\ChartAddIn\ChartAnalysisToolAddIn\Include_Chart\Dll_Load\IMetaTable.h
; File C:\Program Files (x86)\Microsoft Visual Studio\2019\Community\VC\Tools\MSVC\14.29.30133\atlmfc\include\afxwin1.inl
; File D:\git\src\IBK\IBK_DRFN\ProjSrc\SrcChartEx\ChartAddIn\ChartAnalysisToolAddIn\Include_Chart\Dll_Load\IMetaTable.h
;	COMDAT ??1CMultiLanguageResourceSetter@@QAE@XZ
_TEXT	SEGMENT
__$EHRec$ = -12						; size = 12
??1CMultiLanguageResourceSetter@@QAE@XZ PROC		; CMultiLanguageResourceSetter::~CMultiLanguageResourceSetter, COMDAT
; _this$ = ecx

; 1038 : 	{

  00000	55		 push	 ebp
  00001	8b ec		 mov	 ebp, esp
  00003	6a ff		 push	 -1
  00005	68 00 00 00 00	 push	 __ehhandler$??1CMultiLanguageResourceSetter@@QAE@XZ
  0000a	64 a1 00 00 00
	00		 mov	 eax, DWORD PTR fs:0
  00010	50		 push	 eax
  00011	56		 push	 esi
  00012	a1 00 00 00 00	 mov	 eax, DWORD PTR ___security_cookie
  00017	33 c5		 xor	 eax, ebp
  00019	50		 push	 eax
  0001a	8d 45 f4	 lea	 eax, DWORD PTR __$EHRec$[ebp]
  0001d	64 a3 00 00 00
	00		 mov	 DWORD PTR fs:0, eax

; 1039 : 		AfxSetResourceHandle( m_hInstance);

  00023	8b 31		 mov	 esi, DWORD PTR [ecx]
; File C:\Program Files (x86)\Microsoft Visual Studio\2019\Community\VC\Tools\MSVC\14.29.30133\atlmfc\include\afxwin1.inl

; 27   : 	{ ASSERT(hInstResource != NULL); afxCurrentResourceHandle = hInstResource; }

  00025	e8 00 00 00 00	 call	 ?AfxGetModuleState@@YGPAVAFX_MODULE_STATE@@XZ ; AfxGetModuleState
  0002a	89 70 0c	 mov	 DWORD PTR [eax+12], esi
; File D:\git\src\IBK\IBK_DRFN\ProjSrc\SrcChartEx\ChartAddIn\ChartAnalysisToolAddIn\Include_Chart\Dll_Load\IMetaTable.h

; 1040 : 	}

  0002d	8b 4d f4	 mov	 ecx, DWORD PTR __$EHRec$[ebp]
  00030	64 89 0d 00 00
	00 00		 mov	 DWORD PTR fs:0, ecx
  00037	59		 pop	 ecx
  00038	5e		 pop	 esi
  00039	8b e5		 mov	 esp, ebp
  0003b	5d		 pop	 ebp
  0003c	c3		 ret	 0
  0003d	cc		 int	 3
  0003e	cc		 int	 3
  0003f	cc		 int	 3
  00040	cc		 int	 3
  00041	cc		 int	 3
_TEXT	ENDS
;	COMDAT text$x
text$x	SEGMENT
__ehhandler$??1CMultiLanguageResourceSetter@@QAE@XZ:
  00000	90		 npad	 1
  00001	90		 npad	 1
  00002	8b 54 24 08	 mov	 edx, DWORD PTR [esp+8]
  00006	8d 42 0c	 lea	 eax, DWORD PTR [edx+12]
  00009	8b 4a f8	 mov	 ecx, DWORD PTR [edx-8]
  0000c	33 c8		 xor	 ecx, eax
  0000e	e8 00 00 00 00	 call	 @__security_check_cookie@4
  00013	b8 00 00 00 00	 mov	 eax, OFFSET __ehfuncinfo$??1CMultiLanguageResourceSetter@@QAE@XZ
  00018	e9 00 00 00 00	 jmp	 ___CxxFrameHandler3
text$x	ENDS
??1CMultiLanguageResourceSetter@@QAE@XZ ENDP		; CMultiLanguageResourceSetter::~CMultiLanguageResourceSetter
; Function compile flags: /Ogtp
;	COMDAT ??1CProperties_text@@UAE@XZ
_TEXT	SEGMENT
??1CProperties_text@@UAE@XZ PROC			; CProperties_text::~CProperties_text, COMDAT
; _this$ = ecx
  00000	56		 push	 esi
  00001	8b f1		 mov	 esi, ecx
  00003	8d 8e a8 00 00
	00		 lea	 ecx, DWORD PTR [esi+168]
  00009	e8 00 00 00 00	 call	 ??1CEdit@@UAE@XZ	; CEdit::~CEdit
  0000e	8b ce		 mov	 ecx, esi
  00010	5e		 pop	 esi
  00011	e9 00 00 00 00	 jmp	 ??1CDialog@@UAE@XZ	; CDialog::~CDialog
??1CProperties_text@@UAE@XZ ENDP			; CProperties_text::~CProperties_text
_TEXT	ENDS
; Function compile flags: /Ogtp
; File C:\Program Files (x86)\Microsoft Visual Studio\2019\Community\VC\Tools\MSVC\14.29.30133\atlmfc\include\afxwin1.inl
;	COMDAT ??1CProperties_Figure@@UAE@XZ
_TEXT	SEGMENT
??1CProperties_Figure@@UAE@XZ PROC			; CProperties_Figure::~CProperties_Figure, COMDAT
; _this$ = ecx

; 179  : 	{ }

  00000	56		 push	 esi
  00001	57		 push	 edi
  00002	8b f9		 mov	 edi, ecx
  00004	8d 8f 28 06 00
	00		 lea	 ecx, DWORD PTR [edi+1576]
  0000a	ff 15 00 00 00
	00		 call	 DWORD PTR __imp_??1?$CStringT@DV?$StrTraitMFC_DLL@DV?$ChTraitsCRT@D@ATL@@@@@ATL@@QAE@XZ
  00010	8d 8f e4 05 00
	00		 lea	 ecx, DWORD PTR [edi+1508]
  00016	ff 15 00 00 00
	00		 call	 DWORD PTR __imp_??1?$CStringT@DV?$StrTraitMFC_DLL@DV?$ChTraitsCRT@D@ATL@@@@@ATL@@QAE@XZ
  0001c	8d 8f 50 05 00
	00		 lea	 ecx, DWORD PTR [edi+1360]
  00022	e8 00 00 00 00	 call	 ??1CDateTimeCtrl@@UAE@XZ ; CDateTimeCtrl::~CDateTimeCtrl
  00027	8d 8f d0 04 00
	00		 lea	 ecx, DWORD PTR [edi+1232]
  0002d	e8 00 00 00 00	 call	 ??1CDateTimeCtrl@@UAE@XZ ; CDateTimeCtrl::~CDateTimeCtrl
  00032	8d 8f 50 04 00
	00		 lea	 ecx, DWORD PTR [edi+1104]
  00038	e8 00 00 00 00	 call	 ??1CEdit@@UAE@XZ	; CEdit::~CEdit
  0003d	8d 8f d0 03 00
	00		 lea	 ecx, DWORD PTR [edi+976]
  00043	e8 00 00 00 00	 call	 ??1CEdit@@UAE@XZ	; CEdit::~CEdit
  00048	8d 8f 50 03 00
	00		 lea	 ecx, DWORD PTR [edi+848]
  0004e	e8 00 00 00 00	 call	 ??1CEdit@@UAE@XZ	; CEdit::~CEdit
  00053	8d 8f d0 02 00
	00		 lea	 ecx, DWORD PTR [edi+720]
  00059	e8 00 00 00 00	 call	 ??1CEdit@@UAE@XZ	; CEdit::~CEdit
  0005e	8d 8f c4 02 00
	00		 lea	 ecx, DWORD PTR [edi+708]
  00064	c7 01 00 00 00
	00		 mov	 DWORD PTR [ecx], OFFSET ??_7CBitmap@@6B@
  0006a	e8 00 00 00 00	 call	 ??1CGdiObject@@UAE@XZ	; CGdiObject::~CGdiObject
  0006f	8d 8f 40 02 00
	00		 lea	 ecx, DWORD PTR [edi+576]
  00075	e8 00 00 00 00	 call	 ??1CComboBox@@UAE@XZ	; CComboBox::~CComboBox
  0007a	8d 8f 34 02 00
	00		 lea	 ecx, DWORD PTR [edi+564]
  00080	c7 01 00 00 00
	00		 mov	 DWORD PTR [ecx], OFFSET ??_7CBitmap@@6B@
  00086	e8 00 00 00 00	 call	 ??1CGdiObject@@UAE@XZ	; CGdiObject::~CGdiObject
  0008b	8d 8f b0 01 00
	00		 lea	 ecx, DWORD PTR [edi+432]
  00091	e8 00 00 00 00	 call	 ??1CComboBox@@UAE@XZ	; CComboBox::~CComboBox
  00096	8d 8f 28 01 00
	00		 lea	 ecx, DWORD PTR [edi+296]
  0009c	e8 00 00 00 00	 call	 ??1CColorButton@@UAE@XZ	; CColorButton::~CColorButton
  000a1	8d 8f a8 00 00
	00		 lea	 ecx, DWORD PTR [edi+168]
  000a7	e8 00 00 00 00	 call	 ??1CButton@@UAE@XZ	; CButton::~CButton
  000ac	8b cf		 mov	 ecx, edi
  000ae	5f		 pop	 edi
  000af	5e		 pop	 esi
  000b0	e9 00 00 00 00	 jmp	 ??1CDialog@@UAE@XZ	; CDialog::~CDialog
??1CProperties_Figure@@UAE@XZ ENDP			; CProperties_Figure::~CProperties_Figure
_TEXT	ENDS
; Function compile flags: /Ogtp
;	COMDAT ??1CProperties@@UAE@XZ
_TEXT	SEGMENT
??1CProperties@@UAE@XZ PROC				; CProperties::~CProperties, COMDAT
; _this$ = ecx
  00000	56		 push	 esi
  00001	8b f1		 mov	 esi, ecx
  00003	8d 8e 30 01 00
	00		 lea	 ecx, DWORD PTR [esi+304]
  00009	e8 00 00 00 00	 call	 ??1CPreView@@UAE@XZ	; CPreView::~CPreView
  0000e	8d 8e a8 00 00
	00		 lea	 ecx, DWORD PTR [esi+168]
  00014	e8 00 00 00 00	 call	 ??1CColorButton@@UAE@XZ	; CColorButton::~CColorButton
  00019	8b ce		 mov	 ecx, esi
  0001b	5e		 pop	 esi
  0001c	e9 00 00 00 00	 jmp	 ??1CDialog@@UAE@XZ	; CDialog::~CDialog
??1CProperties@@UAE@XZ ENDP				; CProperties::~CProperties
_TEXT	ENDS
; Function compile flags: /Ogtp
; File D:\git\src\IBK\IBK_DRFN\ProjSrc\SrcChartEx\ChartAddIn\ChartAnalysisToolAddIn\Symbol\Properties_Manager.cpp
;	COMDAT ??_GCProperties_Manager@@UAEPAXI@Z
_TEXT	SEGMENT
__$EHRec$ = -12						; size = 12
___flags$ = 8						; size = 4
??_GCProperties_Manager@@UAEPAXI@Z PROC			; CProperties_Manager::`scalar deleting destructor', COMDAT
; _this$ = ecx
  00000	55		 push	 ebp
  00001	8b ec		 mov	 ebp, esp
  00003	6a ff		 push	 -1
  00005	68 00 00 00 00	 push	 __ehhandler$??_GCProperties_Manager@@UAEPAXI@Z
  0000a	64 a1 00 00 00
	00		 mov	 eax, DWORD PTR fs:0
  00010	50		 push	 eax
  00011	56		 push	 esi
  00012	a1 00 00 00 00	 mov	 eax, DWORD PTR ___security_cookie
  00017	33 c5		 xor	 eax, ebp
  00019	50		 push	 eax
  0001a	8d 45 f4	 lea	 eax, DWORD PTR __$EHRec$[ebp]
  0001d	64 a3 00 00 00
	00		 mov	 DWORD PTR fs:0, eax
  00023	8b f1		 mov	 esi, ecx

; 72   : 	if( m_pMainBlock) m_pMainBlock->Release();

  00025	8b 4e 14	 mov	 ecx, DWORD PTR [esi+20]
  00028	c7 45 fc 00 00
	00 00		 mov	 DWORD PTR __$EHRec$[ebp+8], 0
  0002f	c7 06 00 00 00
	00		 mov	 DWORD PTR [esi], OFFSET ??_7CProperties_Manager@@6B@
  00035	85 c9		 test	 ecx, ecx
  00037	74 06		 je	 SHORT $LN5@scalar
  00039	8b 01		 mov	 eax, DWORD PTR [ecx]
  0003b	51		 push	 ecx
  0003c	ff 50 08	 call	 DWORD PTR [eax+8]
$LN5@scalar:

; 73   : }

  0003f	8d 4e 7c	 lea	 ecx, DWORD PTR [esi+124]
  00042	ff 15 00 00 00
	00		 call	 DWORD PTR __imp_??1?$CStringT@DV?$StrTraitMFC_DLL@DV?$ChTraitsCRT@D@ATL@@@@@ATL@@QAE@XZ
  00048	8d 4e 18	 lea	 ecx, DWORD PTR [esi+24]
  0004b	e8 00 00 00 00	 call	 ??1CPropertiesData_text@@UAE@XZ ; CPropertiesData_text::~CPropertiesData_text
  00050	8d 4e 04	 lea	 ecx, DWORD PTR [esi+4]
  00053	ff 15 00 00 00
	00		 call	 DWORD PTR __imp_??1?$CStringT@DV?$StrTraitMFC_DLL@DV?$ChTraitsCRT@D@ATL@@@@@ATL@@QAE@XZ
  00059	f6 45 08 01	 test	 BYTE PTR ___flags$[ebp], 1
  0005d	74 0e		 je	 SHORT $LN8@scalar
  0005f	68 84 00 00 00	 push	 132			; 00000084H
  00064	56		 push	 esi
  00065	e8 00 00 00 00	 call	 ??3@YAXPAXI@Z		; operator delete
  0006a	83 c4 08	 add	 esp, 8
$LN8@scalar:
  0006d	8b c6		 mov	 eax, esi
  0006f	8b 4d f4	 mov	 ecx, DWORD PTR __$EHRec$[ebp]
  00072	64 89 0d 00 00
	00 00		 mov	 DWORD PTR fs:0, ecx
  00079	59		 pop	 ecx
  0007a	5e		 pop	 esi
  0007b	8b e5		 mov	 esp, ebp
  0007d	5d		 pop	 ebp
  0007e	c2 04 00	 ret	 4
  00081	cc		 int	 3
  00082	cc		 int	 3
  00083	cc		 int	 3
  00084	cc		 int	 3
  00085	cc		 int	 3
_TEXT	ENDS
;	COMDAT text$x
text$x	SEGMENT
__ehhandler$??_GCProperties_Manager@@UAEPAXI@Z:
  00000	90		 npad	 1
  00001	90		 npad	 1
  00002	8b 54 24 08	 mov	 edx, DWORD PTR [esp+8]
  00006	8d 42 0c	 lea	 eax, DWORD PTR [edx+12]
  00009	8b 4a f8	 mov	 ecx, DWORD PTR [edx-8]
  0000c	33 c8		 xor	 ecx, eax
  0000e	e8 00 00 00 00	 call	 @__security_check_cookie@4
  00013	b8 00 00 00 00	 mov	 eax, OFFSET __ehfuncinfo$??_GCProperties_Manager@@UAEPAXI@Z
  00018	e9 00 00 00 00	 jmp	 ___CxxFrameHandler3
text$x	ENDS
??_GCProperties_Manager@@UAEPAXI@Z ENDP			; CProperties_Manager::`scalar deleting destructor'
; Function compile flags: /Ogtp
; File D:\git\src\IBK\IBK_DRFN\ProjSrc\SrcChartEx\ChartAddIn\ChartAnalysisToolAddIn\Symbol\Properties_Manager.cpp
; File C:\Program Files (x86)\Microsoft Visual Studio\2019\Community\VC\Tools\MSVC\14.29.30133\atlmfc\include\afxwin1.inl
; File D:\git\src\IBK\IBK_DRFN\ProjSrc\SrcChartEx\ChartAddIn\ChartAnalysisToolAddIn\Symbol\Properties_Manager.cpp
;	COMDAT ?WhenSymbolIsFigure@CProperties_Manager@@AAE_NXZ
_TEXT	SEGMENT
_dlg$ = -1672						; size = 1584
$T2 = -88						; size = 24
$T3 = -88						; size = 24
_coordStart$ = -64					; size = 24
_coordEnd$ = -40					; size = 24
$T4 = -16						; size = 4
__$EHRec$ = -12						; size = 12
?WhenSymbolIsFigure@CProperties_Manager@@AAE_NXZ PROC	; CProperties_Manager::WhenSymbolIsFigure, COMDAT
; _this$ = ecx

; 107  : {

  00000	55		 push	 ebp
  00001	8b ec		 mov	 ebp, esp
  00003	6a ff		 push	 -1
  00005	68 00 00 00 00	 push	 __ehhandler$?WhenSymbolIsFigure@CProperties_Manager@@AAE_NXZ
  0000a	64 a1 00 00 00
	00		 mov	 eax, DWORD PTR fs:0
  00010	50		 push	 eax
  00011	81 ec 7c 06 00
	00		 sub	 esp, 1660		; 0000067cH
  00017	53		 push	 ebx
  00018	56		 push	 esi
  00019	57		 push	 edi
  0001a	a1 00 00 00 00	 mov	 eax, DWORD PTR ___security_cookie
  0001f	33 c5		 xor	 eax, ebp
  00021	50		 push	 eax
  00022	8d 45 f4	 lea	 eax, DWORD PTR __$EHRec$[ebp]
  00025	64 a3 00 00 00
	00		 mov	 DWORD PTR fs:0, eax
  0002b	8b f9		 mov	 edi, ecx

; 108  : 	CCoordinate coordStart = m_pDrawingSymbol->GetStartPoint();

  0002d	8b 4f 0c	 mov	 ecx, DWORD PTR [edi+12]
  00030	8d 55 c0	 lea	 edx, DWORD PTR _coordStart$[ebp]
  00033	52		 push	 edx
  00034	8b 01		 mov	 eax, DWORD PTR [ecx]
  00036	ff 50 20	 call	 DWORD PTR [eax+32]

; 109  : 	CCoordinate coordEnd = m_pDrawingSymbol->GetEndPoint();

  00039	8b 4f 0c	 mov	 ecx, DWORD PTR [edi+12]
  0003c	8d 55 d8	 lea	 edx, DWORD PTR _coordEnd$[ebp]
  0003f	52		 push	 edx
  00040	8b 01		 mov	 eax, DWORD PTR [ecx]
  00042	ff 50 24	 call	 DWORD PTR [eax+36]

; 110  : 
; 111  : 	// 2011.02.08 by SYS >> 분차트 YYYY(년) 추가 : 날짜/시간 14Byte형태 변경 (YYYYMMDDhhmmss)
; 112  : //	CProperties_Figure dlg(&m_ModifyProperties,m_pDrawingSymbol->GetSymbolType(),m_strUserPath,m_nDataPeriod,coordStart,coordEnd,CWnd::FromHandle( m_hOcxWnd));
; 113  : 	CProperties_Figure dlg(	m_pMainBlock,

  00045	8b 4f 0c	 mov	 ecx, DWORD PTR [edi+12]
  00048	e8 00 00 00 00	 call	 ?GetSymbolType@CDrawingSymbol@@QAE?AW4TOOLTYPE@CSymbolBaseData@@XZ ; CDrawingSymbol::GetSymbolType
  0004d	ff b7 80 00 00
	00		 push	 DWORD PTR [edi+128]
  00053	89 45 f0	 mov	 DWORD PTR $T4[ebp], eax
  00056	e8 00 00 00 00	 call	 ?FromHandle@CWnd@@SGPAV1@PAUHWND__@@@Z ; CWnd::FromHandle
  0005b	50		 push	 eax
  0005c	8d 45 d8	 lea	 eax, DWORD PTR _coordEnd$[ebp]
  0005f	50		 push	 eax
  00060	8d 45 c0	 lea	 eax, DWORD PTR _coordStart$[ebp]
  00063	50		 push	 eax
  00064	8d 47 08	 lea	 eax, DWORD PTR [edi+8]
  00067	50		 push	 eax
  00068	8d 47 04	 lea	 eax, DWORD PTR [edi+4]
  0006b	50		 push	 eax
  0006c	8d 45 f0	 lea	 eax, DWORD PTR $T4[ebp]
  0006f	50		 push	 eax
  00070	8d 47 18	 lea	 eax, DWORD PTR [edi+24]
  00073	50		 push	 eax
  00074	8d 47 7c	 lea	 eax, DWORD PTR [edi+124]
  00077	50		 push	 eax
  00078	8d 47 74	 lea	 eax, DWORD PTR [edi+116]
  0007b	50		 push	 eax
  0007c	ff 77 14	 push	 DWORD PTR [edi+20]
  0007f	8d 8d 78 f9 ff
	ff		 lea	 ecx, DWORD PTR _dlg$[ebp]
  00085	e8 00 00 00 00	 call	 ??0CProperties_Figure@@QAE@PAUIChartManager133101@@ABVCBlockIndex@@ABV?$CStringT@DV?$StrTraitMFC_DLL@DV?$ChTraitsCRT@D@ATL@@@@@ATL@@PAVCPropertiesData_text@@ABW4TOOLTYPE@CSymbolBaseData@@2ABW4HORZSCALEDRAWERTYPE@CScaleBaseData@@ABVCCoordinate@@6PAVCWnd@@@Z ; CProperties_Figure::CProperties_Figure

; 114  : 							m_blockIndex,
; 115  : 							m_strFormatX,
; 116  : 							&m_ModifyProperties,
; 117  : 							m_pDrawingSymbol->GetSymbolType(),
; 118  : 							m_strUserPath,
; 119  : 							m_nDataPeriod,
; 120  : 							coordStart,coordEnd,
; 121  : 							CWnd::FromHandle( m_hOcxWnd));
; 122  : 	// 2011.02.08 by SYS <<
; 123  : 
; 124  : 	if(dlg.DoModal() == IDOK) 

  0008a	8d 8d 78 f9 ff
	ff		 lea	 ecx, DWORD PTR _dlg$[ebp]
  00090	c7 45 fc 00 00
	00 00		 mov	 DWORD PTR __$EHRec$[ebp+8], 0
  00097	e8 00 00 00 00	 call	 ?DoModal@CDialog@@UAEHXZ ; CDialog::DoModal
  0009c	83 f8 01	 cmp	 eax, 1
  0009f	75 41		 jne	 SHORT $LN2@WhenSymbol

; 125  : 	{
; 126  : 		m_pDrawingSymbol->SetStartCoord(dlg.GetStartCoord());

  000a1	8b 47 0c	 mov	 eax, DWORD PTR [edi+12]
  000a4	8d 8d 78 f9 ff
	ff		 lea	 ecx, DWORD PTR _dlg$[ebp]
  000aa	8b 30		 mov	 esi, DWORD PTR [eax]
  000ac	8d 45 a8	 lea	 eax, DWORD PTR $T3[ebp]
  000af	50		 push	 eax
  000b0	e8 00 00 00 00	 call	 ?GetStartCoord@CProperties_Figure@@QBE?AVCCoordinate@@XZ ; CProperties_Figure::GetStartCoord
  000b5	8b 4f 0c	 mov	 ecx, DWORD PTR [edi+12]
  000b8	50		 push	 eax
  000b9	ff 56 28	 call	 DWORD PTR [esi+40]

; 127  : 		m_pDrawingSymbol->SetEndCoord(dlg.GetEndCoord());

  000bc	8b 47 0c	 mov	 eax, DWORD PTR [edi+12]
  000bf	8d 8d 78 f9 ff
	ff		 lea	 ecx, DWORD PTR _dlg$[ebp]
  000c5	8b 30		 mov	 esi, DWORD PTR [eax]
  000c7	8d 45 a8	 lea	 eax, DWORD PTR $T2[ebp]
  000ca	50		 push	 eax
  000cb	e8 00 00 00 00	 call	 ?GetEndCoord@CProperties_Figure@@QBE?AVCCoordinate@@XZ ; CProperties_Figure::GetEndCoord
  000d0	8b 4f 0c	 mov	 ecx, DWORD PTR [edi+12]
  000d3	50		 push	 eax
  000d4	ff 56 2c	 call	 DWORD PTR [esi+44]

; 128  : 		return SetData();

  000d7	8b cf		 mov	 ecx, edi
  000d9	e8 00 00 00 00	 call	 ?SetData@CProperties_Manager@@AAE_NXZ ; CProperties_Manager::SetData
  000de	8a d8		 mov	 bl, al
  000e0	eb 02		 jmp	 SHORT $LN5@WhenSymbol
$LN2@WhenSymbol:

; 131  : 	return false;	

  000e2	32 db		 xor	 bl, bl
$LN5@WhenSymbol:
  000e4	8d 4d a0	 lea	 ecx, DWORD PTR _dlg$[ebp+1576]
  000e7	ff 15 00 00 00
	00		 call	 DWORD PTR __imp_??1?$CStringT@DV?$StrTraitMFC_DLL@DV?$ChTraitsCRT@D@ATL@@@@@ATL@@QAE@XZ
  000ed	8d 8d 5c ff ff
	ff		 lea	 ecx, DWORD PTR _dlg$[ebp+1508]
  000f3	ff 15 00 00 00
	00		 call	 DWORD PTR __imp_??1?$CStringT@DV?$StrTraitMFC_DLL@DV?$ChTraitsCRT@D@ATL@@@@@ATL@@QAE@XZ
  000f9	8d 8d c8 fe ff
	ff		 lea	 ecx, DWORD PTR _dlg$[ebp+1360]
  000ff	e8 00 00 00 00	 call	 ??1CDateTimeCtrl@@UAE@XZ ; CDateTimeCtrl::~CDateTimeCtrl
  00104	8d 8d 48 fe ff
	ff		 lea	 ecx, DWORD PTR _dlg$[ebp+1232]
  0010a	e8 00 00 00 00	 call	 ??1CDateTimeCtrl@@UAE@XZ ; CDateTimeCtrl::~CDateTimeCtrl
  0010f	8d 8d c8 fd ff
	ff		 lea	 ecx, DWORD PTR _dlg$[ebp+1104]
  00115	e8 00 00 00 00	 call	 ??1CEdit@@UAE@XZ	; CEdit::~CEdit
  0011a	8d 8d 48 fd ff
	ff		 lea	 ecx, DWORD PTR _dlg$[ebp+976]
  00120	e8 00 00 00 00	 call	 ??1CEdit@@UAE@XZ	; CEdit::~CEdit
  00125	8d 8d c8 fc ff
	ff		 lea	 ecx, DWORD PTR _dlg$[ebp+848]
  0012b	e8 00 00 00 00	 call	 ??1CEdit@@UAE@XZ	; CEdit::~CEdit
  00130	8d 8d 48 fc ff
	ff		 lea	 ecx, DWORD PTR _dlg$[ebp+720]
  00136	e8 00 00 00 00	 call	 ??1CEdit@@UAE@XZ	; CEdit::~CEdit
; File C:\Program Files (x86)\Microsoft Visual Studio\2019\Community\VC\Tools\MSVC\14.29.30133\atlmfc\include\afxwin1.inl

; 179  : 	{ }

  0013b	8d 8d 3c fc ff
	ff		 lea	 ecx, DWORD PTR _dlg$[ebp+708]
  00141	c7 85 3c fc ff
	ff 00 00 00 00	 mov	 DWORD PTR _dlg$[ebp+708], OFFSET ??_7CBitmap@@6B@
  0014b	e8 00 00 00 00	 call	 ??1CGdiObject@@UAE@XZ	; CGdiObject::~CGdiObject
  00150	8d 8d b8 fb ff
	ff		 lea	 ecx, DWORD PTR _dlg$[ebp+576]
  00156	e8 00 00 00 00	 call	 ??1CComboBox@@UAE@XZ	; CComboBox::~CComboBox
  0015b	8d 8d ac fb ff
	ff		 lea	 ecx, DWORD PTR _dlg$[ebp+564]
  00161	c7 85 ac fb ff
	ff 00 00 00 00	 mov	 DWORD PTR _dlg$[ebp+564], OFFSET ??_7CBitmap@@6B@
  0016b	e8 00 00 00 00	 call	 ??1CGdiObject@@UAE@XZ	; CGdiObject::~CGdiObject
  00170	8d 8d 28 fb ff
	ff		 lea	 ecx, DWORD PTR _dlg$[ebp+432]
  00176	e8 00 00 00 00	 call	 ??1CComboBox@@UAE@XZ	; CComboBox::~CComboBox
  0017b	8d 8d a0 fa ff
	ff		 lea	 ecx, DWORD PTR _dlg$[ebp+296]
  00181	e8 00 00 00 00	 call	 ??1CColorButton@@UAE@XZ	; CColorButton::~CColorButton
  00186	8d 8d 20 fa ff
	ff		 lea	 ecx, DWORD PTR _dlg$[ebp+168]
  0018c	e8 00 00 00 00	 call	 ??1CButton@@UAE@XZ	; CButton::~CButton
  00191	8d 8d 78 f9 ff
	ff		 lea	 ecx, DWORD PTR _dlg$[ebp]
  00197	e8 00 00 00 00	 call	 ??1CDialog@@UAE@XZ	; CDialog::~CDialog
; File D:\git\src\IBK\IBK_DRFN\ProjSrc\SrcChartEx\ChartAddIn\ChartAnalysisToolAddIn\Symbol\Properties_Manager.cpp

; 131  : 	return false;	

  0019c	8a c3		 mov	 al, bl

; 132  : }

  0019e	8b 4d f4	 mov	 ecx, DWORD PTR __$EHRec$[ebp]
  001a1	64 89 0d 00 00
	00 00		 mov	 DWORD PTR fs:0, ecx
  001a8	59		 pop	 ecx
  001a9	5f		 pop	 edi
  001aa	5e		 pop	 esi
  001ab	5b		 pop	 ebx
  001ac	8b e5		 mov	 esp, ebp
  001ae	5d		 pop	 ebp
  001af	c3		 ret	 0
_TEXT	ENDS
;	COMDAT text$x
text$x	SEGMENT
__unwindfunclet$?WhenSymbolIsFigure@CProperties_Manager@@AAE_NXZ$0:
  00000	8d 8d 78 f9 ff
	ff		 lea	 ecx, DWORD PTR _dlg$[ebp]
  00006	e9 00 00 00 00	 jmp	 ??1CProperties_Figure@@UAE@XZ
  0000b	cc		 int	 3
  0000c	cc		 int	 3
  0000d	cc		 int	 3
  0000e	cc		 int	 3
  0000f	cc		 int	 3
__ehhandler$?WhenSymbolIsFigure@CProperties_Manager@@AAE_NXZ:
  00010	90		 npad	 1
  00011	90		 npad	 1
  00012	8b 54 24 08	 mov	 edx, DWORD PTR [esp+8]
  00016	8d 42 0c	 lea	 eax, DWORD PTR [edx+12]
  00019	8b 8a 74 f9 ff
	ff		 mov	 ecx, DWORD PTR [edx-1676]
  0001f	33 c8		 xor	 ecx, eax
  00021	e8 00 00 00 00	 call	 @__security_check_cookie@4
  00026	b8 00 00 00 00	 mov	 eax, OFFSET __ehfuncinfo$?WhenSymbolIsFigure@CProperties_Manager@@AAE_NXZ
  0002b	e9 00 00 00 00	 jmp	 ___CxxFrameHandler3
text$x	ENDS
?WhenSymbolIsFigure@CProperties_Manager@@AAE_NXZ ENDP	; CProperties_Manager::WhenSymbolIsFigure
; Function compile flags: /Ogtp
; File D:\git\src\IBK\IBK_DRFN\ProjSrc\SrcChartEx\ChartAddIn\ChartAnalysisToolAddIn\Symbol\Properties_Manager.cpp
;	COMDAT ?WhenSymbolIsText@CProperties_Manager@@AAE_NXZ
_TEXT	SEGMENT
_dlg$ = -316						; size = 304
__$EHRec$ = -12						; size = 12
?WhenSymbolIsText@CProperties_Manager@@AAE_NXZ PROC	; CProperties_Manager::WhenSymbolIsText, COMDAT
; _this$ = ecx

; 135  : {

  00000	55		 push	 ebp
  00001	8b ec		 mov	 ebp, esp
  00003	6a ff		 push	 -1
  00005	68 00 00 00 00	 push	 __ehhandler$?WhenSymbolIsText@CProperties_Manager@@AAE_NXZ
  0000a	64 a1 00 00 00
	00		 mov	 eax, DWORD PTR fs:0
  00010	50		 push	 eax
  00011	81 ec 30 01 00
	00		 sub	 esp, 304		; 00000130H
  00017	53		 push	 ebx
  00018	56		 push	 esi
  00019	a1 00 00 00 00	 mov	 eax, DWORD PTR ___security_cookie
  0001e	33 c5		 xor	 eax, ebp
  00020	50		 push	 eax
  00021	8d 45 f4	 lea	 eax, DWORD PTR __$EHRec$[ebp]
  00024	64 a3 00 00 00
	00		 mov	 DWORD PTR fs:0, eax
  0002a	8b f1		 mov	 esi, ecx

; 136  : 	CProperties_text dlg(&m_ModifyProperties);

  0002c	6a 00		 push	 0
  0002e	8d 46 18	 lea	 eax, DWORD PTR [esi+24]
  00031	50		 push	 eax
  00032	8d 8d c4 fe ff
	ff		 lea	 ecx, DWORD PTR _dlg$[ebp]
  00038	e8 00 00 00 00	 call	 ??0CProperties_text@@QAE@PAVCPropertiesData_text@@PAVCWnd@@@Z ; CProperties_text::CProperties_text

; 137  : 	if(dlg.DoModal() == IDOK) 

  0003d	8d 8d c4 fe ff
	ff		 lea	 ecx, DWORD PTR _dlg$[ebp]
  00043	c7 45 fc 00 00
	00 00		 mov	 DWORD PTR __$EHRec$[ebp+8], 0
  0004a	e8 00 00 00 00	 call	 ?DoModal@CDialog@@UAEHXZ ; CDialog::DoModal
  0004f	83 f8 01	 cmp	 eax, 1
  00052	75 12		 jne	 SHORT $LN2@WhenSymbol

; 138  : 	{
; 139  : 		ApplySymbolProperties();

  00054	8b ce		 mov	 ecx, esi
  00056	e8 00 00 00 00	 call	 ?ApplySymbolProperties@CProperties_Manager@@AAEXXZ ; CProperties_Manager::ApplySymbolProperties

; 140  : 		return SetData();

  0005b	8b ce		 mov	 ecx, esi
  0005d	e8 00 00 00 00	 call	 ?SetData@CProperties_Manager@@AAE_NXZ ; CProperties_Manager::SetData
  00062	8a d8		 mov	 bl, al
  00064	eb 02		 jmp	 SHORT $LN5@WhenSymbol
$LN2@WhenSymbol:

; 141  : 	}
; 142  : 
; 143  : 	return false;

  00066	32 db		 xor	 bl, bl
$LN5@WhenSymbol:
  00068	8d 8d 6c ff ff
	ff		 lea	 ecx, DWORD PTR _dlg$[ebp+168]
  0006e	e8 00 00 00 00	 call	 ??1CEdit@@UAE@XZ	; CEdit::~CEdit
  00073	8d 8d c4 fe ff
	ff		 lea	 ecx, DWORD PTR _dlg$[ebp]
  00079	e8 00 00 00 00	 call	 ??1CDialog@@UAE@XZ	; CDialog::~CDialog
  0007e	8a c3		 mov	 al, bl

; 144  : }

  00080	8b 4d f4	 mov	 ecx, DWORD PTR __$EHRec$[ebp]
  00083	64 89 0d 00 00
	00 00		 mov	 DWORD PTR fs:0, ecx
  0008a	59		 pop	 ecx
  0008b	5e		 pop	 esi
  0008c	5b		 pop	 ebx
  0008d	8b e5		 mov	 esp, ebp
  0008f	5d		 pop	 ebp
  00090	c3		 ret	 0
_TEXT	ENDS
;	COMDAT text$x
text$x	SEGMENT
__unwindfunclet$?WhenSymbolIsText@CProperties_Manager@@AAE_NXZ$0:
  00000	8d 8d c4 fe ff
	ff		 lea	 ecx, DWORD PTR _dlg$[ebp]
  00006	e9 00 00 00 00	 jmp	 ??1CProperties_text@@UAE@XZ
  0000b	cc		 int	 3
  0000c	cc		 int	 3
  0000d	cc		 int	 3
  0000e	cc		 int	 3
  0000f	cc		 int	 3
__ehhandler$?WhenSymbolIsText@CProperties_Manager@@AAE_NXZ:
  00010	90		 npad	 1
  00011	90		 npad	 1
  00012	8b 54 24 08	 mov	 edx, DWORD PTR [esp+8]
  00016	8d 42 0c	 lea	 eax, DWORD PTR [edx+12]
  00019	8b 8a c4 fe ff
	ff		 mov	 ecx, DWORD PTR [edx-316]
  0001f	33 c8		 xor	 ecx, eax
  00021	e8 00 00 00 00	 call	 @__security_check_cookie@4
  00026	b8 00 00 00 00	 mov	 eax, OFFSET __ehfuncinfo$?WhenSymbolIsText@CProperties_Manager@@AAE_NXZ
  0002b	e9 00 00 00 00	 jmp	 ___CxxFrameHandler3
text$x	ENDS
?WhenSymbolIsText@CProperties_Manager@@AAE_NXZ ENDP	; CProperties_Manager::WhenSymbolIsText
; Function compile flags: /Ogtp
; File D:\git\src\IBK\IBK_DRFN\ProjSrc\SrcChartEx\ChartAddIn\ChartAnalysisToolAddIn\Symbol\Properties_Manager.cpp
;	COMDAT ?WhenSymbol@CProperties_Manager@@AAE_NW4TOOLTYPE@CSymbolBaseData@@@Z
_TEXT	SEGMENT
$T2 = -492						; size = 4
_dlg$ = -488						; size = 472
__$ArrayPad$ = -16					; size = 4
__$EHRec$ = -12						; size = 12
_type$ = 8						; size = 4
?WhenSymbol@CProperties_Manager@@AAE_NW4TOOLTYPE@CSymbolBaseData@@@Z PROC ; CProperties_Manager::WhenSymbol, COMDAT
; _this$ = ecx

; 147  : {

  00000	55		 push	 ebp
  00001	8b ec		 mov	 ebp, esp
  00003	6a ff		 push	 -1
  00005	68 00 00 00 00	 push	 __ehhandler$?WhenSymbol@CProperties_Manager@@AAE_NW4TOOLTYPE@CSymbolBaseData@@@Z
  0000a	64 a1 00 00 00
	00		 mov	 eax, DWORD PTR fs:0
  00010	50		 push	 eax
  00011	81 ec e0 01 00
	00		 sub	 esp, 480		; 000001e0H
  00017	a1 00 00 00 00	 mov	 eax, DWORD PTR ___security_cookie
  0001c	33 c5		 xor	 eax, ebp
  0001e	89 45 f0	 mov	 DWORD PTR __$ArrayPad$[ebp], eax
  00021	53		 push	 ebx
  00022	56		 push	 esi
  00023	50		 push	 eax
  00024	8d 45 f4	 lea	 eax, DWORD PTR __$EHRec$[ebp]
  00027	64 a3 00 00 00
	00		 mov	 DWORD PTR fs:0, eax
  0002d	8b f1		 mov	 esi, ecx

; 148  : 	//sy 2005.04.06
; 149  : 	if(m_pMainBlock == NULL)

  0002f	83 7e 14 00	 cmp	 DWORD PTR [esi+20], 0
  00033	8b 45 08	 mov	 eax, DWORD PTR _type$[ebp]
  00036	75 07		 jne	 SHORT $LN2@WhenSymbol

; 150  : 		return false;

  00038	32 c0		 xor	 al, al
  0003a	e9 80 00 00 00	 jmp	 $LN1@WhenSymbol
$LN2@WhenSymbol:

; 151  : 
; 152  : 	CProperties dlg(&m_ModifyProperties, type);

  0003f	6a 00		 push	 0
  00041	50		 push	 eax
  00042	8d 46 18	 lea	 eax, DWORD PTR [esi+24]
  00045	50		 push	 eax
  00046	8d 8d 18 fe ff
	ff		 lea	 ecx, DWORD PTR _dlg$[ebp]
  0004c	e8 00 00 00 00	 call	 ??0CProperties@@QAE@PAVCPropertiesData_text@@W4TOOLTYPE@CSymbolBaseData@@PAVCWnd@@@Z ; CProperties::CProperties

; 153  : 	dlg.SetBackgroundColorInViewer(m_pMainBlock->GetBackgroundColor());

  00051	8b 4e 14	 mov	 ecx, DWORD PTR [esi+20]
  00054	c7 45 fc 00 00
	00 00		 mov	 DWORD PTR __$EHRec$[ebp+8], 0
  0005b	8b 01		 mov	 eax, DWORD PTR [ecx]
  0005d	ff 50 3c	 call	 DWORD PTR [eax+60]
  00060	89 85 14 fe ff
	ff		 mov	 DWORD PTR $T2[ebp], eax
  00066	8d 8d 18 fe ff
	ff		 lea	 ecx, DWORD PTR _dlg$[ebp]
  0006c	8d 85 14 fe ff
	ff		 lea	 eax, DWORD PTR $T2[ebp]
  00072	50		 push	 eax
  00073	e8 00 00 00 00	 call	 ?SetBackgroundColorInViewer@CProperties@@QAEXABK@Z ; CProperties::SetBackgroundColorInViewer

; 154  : 	if(dlg.DoModal() == IDOK)

  00078	8d 8d 18 fe ff
	ff		 lea	 ecx, DWORD PTR _dlg$[ebp]
  0007e	e8 00 00 00 00	 call	 ?DoModal@CDialog@@UAEHXZ ; CDialog::DoModal
  00083	83 f8 01	 cmp	 eax, 1
  00086	75 12		 jne	 SHORT $LN3@WhenSymbol

; 155  : 	{
; 156  : 		ApplySymbolProperties();

  00088	8b ce		 mov	 ecx, esi
  0008a	e8 00 00 00 00	 call	 ?ApplySymbolProperties@CProperties_Manager@@AAEXXZ ; CProperties_Manager::ApplySymbolProperties

; 157  : 		return SetData();

  0008f	8b ce		 mov	 ecx, esi
  00091	e8 00 00 00 00	 call	 ?SetData@CProperties_Manager@@AAE_NXZ ; CProperties_Manager::SetData
  00096	8a d8		 mov	 bl, al
  00098	eb 02		 jmp	 SHORT $LN6@WhenSymbol
$LN3@WhenSymbol:

; 158  : 	}
; 159  : 
; 160  : 	return false;

  0009a	32 db		 xor	 bl, bl
$LN6@WhenSymbol:
  0009c	8d 8d 48 ff ff
	ff		 lea	 ecx, DWORD PTR _dlg$[ebp+304]
  000a2	e8 00 00 00 00	 call	 ??1CPreView@@UAE@XZ	; CPreView::~CPreView
  000a7	8d 8d c0 fe ff
	ff		 lea	 ecx, DWORD PTR _dlg$[ebp+168]
  000ad	e8 00 00 00 00	 call	 ??1CColorButton@@UAE@XZ	; CColorButton::~CColorButton
  000b2	8d 8d 18 fe ff
	ff		 lea	 ecx, DWORD PTR _dlg$[ebp]
  000b8	e8 00 00 00 00	 call	 ??1CDialog@@UAE@XZ	; CDialog::~CDialog
  000bd	8a c3		 mov	 al, bl
$LN1@WhenSymbol:

; 161  : }

  000bf	8b 4d f4	 mov	 ecx, DWORD PTR __$EHRec$[ebp]
  000c2	64 89 0d 00 00
	00 00		 mov	 DWORD PTR fs:0, ecx
  000c9	59		 pop	 ecx
  000ca	5e		 pop	 esi
  000cb	5b		 pop	 ebx
  000cc	8b 4d f0	 mov	 ecx, DWORD PTR __$ArrayPad$[ebp]
  000cf	33 cd		 xor	 ecx, ebp
  000d1	e8 00 00 00 00	 call	 @__security_check_cookie@4
  000d6	8b e5		 mov	 esp, ebp
  000d8	5d		 pop	 ebp
  000d9	c2 04 00	 ret	 4
_TEXT	ENDS
;	COMDAT text$x
text$x	SEGMENT
__unwindfunclet$?WhenSymbol@CProperties_Manager@@AAE_NW4TOOLTYPE@CSymbolBaseData@@@Z$0:
  00000	8d 8d 18 fe ff
	ff		 lea	 ecx, DWORD PTR _dlg$[ebp]
  00006	e9 00 00 00 00	 jmp	 ??1CProperties@@UAE@XZ
  0000b	cc		 int	 3
  0000c	cc		 int	 3
  0000d	cc		 int	 3
  0000e	cc		 int	 3
  0000f	cc		 int	 3
__ehhandler$?WhenSymbol@CProperties_Manager@@AAE_NW4TOOLTYPE@CSymbolBaseData@@@Z:
  00010	90		 npad	 1
  00011	90		 npad	 1
  00012	8b 54 24 08	 mov	 edx, DWORD PTR [esp+8]
  00016	8d 42 0c	 lea	 eax, DWORD PTR [edx+12]
  00019	8b 8a 14 fe ff
	ff		 mov	 ecx, DWORD PTR [edx-492]
  0001f	33 c8		 xor	 ecx, eax
  00021	e8 00 00 00 00	 call	 @__security_check_cookie@4
  00026	8b 4a fc	 mov	 ecx, DWORD PTR [edx-4]
  00029	33 c8		 xor	 ecx, eax
  0002b	e8 00 00 00 00	 call	 @__security_check_cookie@4
  00030	b8 00 00 00 00	 mov	 eax, OFFSET __ehfuncinfo$?WhenSymbol@CProperties_Manager@@AAE_NW4TOOLTYPE@CSymbolBaseData@@@Z
  00035	e9 00 00 00 00	 jmp	 ___CxxFrameHandler3
text$x	ENDS
?WhenSymbol@CProperties_Manager@@AAE_NW4TOOLTYPE@CSymbolBaseData@@@Z ENDP ; CProperties_Manager::WhenSymbol
; Function compile flags: /Ogtp
; File D:\git\src\IBK\IBK_DRFN\ProjSrc\SrcChartEx\ChartAddIn\ChartAnalysisToolAddIn\Symbol\Properties_Manager.cpp
;	COMDAT ?SetData@CProperties_Manager@@AAE_NXZ
_TEXT	SEGMENT
$T2 = -24						; size = 4
$T3 = -20						; size = 4
$T4 = -20						; size = 4
$T5 = -20						; size = 4
$T6 = -20						; size = 4
_crColor$7 = -16					; size = 4
__$EHRec$ = -12						; size = 12
?SetData@CProperties_Manager@@AAE_NXZ PROC		; CProperties_Manager::SetData, COMDAT
; _this$ = ecx

; 164  : {

  00000	55		 push	 ebp
  00001	8b ec		 mov	 ebp, esp
  00003	6a ff		 push	 -1
  00005	68 00 00 00 00	 push	 __ehhandler$?SetData@CProperties_Manager@@AAE_NXZ
  0000a	64 a1 00 00 00
	00		 mov	 eax, DWORD PTR fs:0
  00010	50		 push	 eax
  00011	83 ec 0c	 sub	 esp, 12			; 0000000cH
  00014	56		 push	 esi
  00015	57		 push	 edi
  00016	a1 00 00 00 00	 mov	 eax, DWORD PTR ___security_cookie
  0001b	33 c5		 xor	 eax, ebp
  0001d	50		 push	 eax
  0001e	8d 45 f4	 lea	 eax, DWORD PTR __$EHRec$[ebp]
  00021	64 a3 00 00 00
	00		 mov	 DWORD PTR fs:0, eax
  00027	8b f1		 mov	 esi, ecx

; 165  : 	if(m_pProperties != NULL && m_pDrawingSymbol != NULL) 

  00029	83 7e 10 00	 cmp	 DWORD PTR [esi+16], 0
  0002d	0f 84 f2 00 00
	00		 je	 $LN2@SetData
  00033	83 7e 0c 00	 cmp	 DWORD PTR [esi+12], 0
  00037	0f 84 e8 00 00
	00		 je	 $LN2@SetData

; 166  : 	{
; 167  : 		COLORREF crColor = m_ModifyProperties.GetColor();

  0003d	8d 4e 18	 lea	 ecx, DWORD PTR [esi+24]
  00040	e8 00 00 00 00	 call	 ?GetColor@CPropertiesData_Figure@@QAEKXZ ; CPropertiesData_Figure::GetColor

; 168  : 		if(m_pDrawingSymbol->GetSymbolType() == CSymbolBaseData::SYMBOL_TEXT)

  00045	8b 4e 0c	 mov	 ecx, DWORD PTR [esi+12]
  00048	89 45 f0	 mov	 DWORD PTR _crColor$7[ebp], eax
  0004b	e8 00 00 00 00	 call	 ?GetSymbolType@CDrawingSymbol@@QAE?AW4TOOLTYPE@CSymbolBaseData@@XZ ; CDrawingSymbol::GetSymbolType
  00050	83 f8 04	 cmp	 eax, 4
  00053	75 0b		 jne	 SHORT $LN3@SetData

; 169  : 			crColor = m_ModifyProperties.GetTextColor();

  00055	8d 4e 18	 lea	 ecx, DWORD PTR [esi+24]
  00058	e8 00 00 00 00	 call	 ?GetTextColor@CPropertiesData_Symbol@@QBEKXZ ; CPropertiesData_Symbol::GetTextColor
  0005d	89 45 f0	 mov	 DWORD PTR _crColor$7[ebp], eax
$LN3@SetData:

; 170  : 		m_pDrawingSymbol->SetColor(crColor);

  00060	8b 4e 0c	 mov	 ecx, DWORD PTR [esi+12]
  00063	8d 45 f0	 lea	 eax, DWORD PTR _crColor$7[ebp]
  00066	50		 push	 eax
  00067	e8 00 00 00 00	 call	 ?SetColor@CDrawingSymbol@@QAEXABK@Z ; CDrawingSymbol::SetColor

; 171  : 		m_pDrawingSymbol->SetStyle(m_ModifyProperties.GetStyle());

  0006c	8d 4e 18	 lea	 ecx, DWORD PTR [esi+24]
  0006f	e8 00 00 00 00	 call	 ?GetStyle@CPropertiesData_Figure@@QAEHXZ ; CPropertiesData_Figure::GetStyle
  00074	8b 4e 0c	 mov	 ecx, DWORD PTR [esi+12]
  00077	89 45 ec	 mov	 DWORD PTR $T6[ebp], eax
  0007a	8d 45 ec	 lea	 eax, DWORD PTR $T6[ebp]
  0007d	50		 push	 eax
  0007e	e8 00 00 00 00	 call	 ?SetStyle@CDrawingSymbol@@QAEXABH@Z ; CDrawingSymbol::SetStyle

; 172  : 		m_pDrawingSymbol->SetWeight(m_ModifyProperties.GetWeight());

  00083	8d 4e 18	 lea	 ecx, DWORD PTR [esi+24]
  00086	e8 00 00 00 00	 call	 ?GetWeight@CPropertiesData_Figure@@QAEHXZ ; CPropertiesData_Figure::GetWeight
  0008b	8b 4e 0c	 mov	 ecx, DWORD PTR [esi+12]
  0008e	89 45 ec	 mov	 DWORD PTR $T5[ebp], eax
  00091	8d 45 ec	 lea	 eax, DWORD PTR $T5[ebp]
  00094	50		 push	 eax
  00095	e8 00 00 00 00	 call	 ?SetWeight@CDrawingSymbol@@QAEXABH@Z ; CDrawingSymbol::SetWeight

; 173  : 		//sy 2005.04.06
; 174  : 		m_pDrawingSymbol->SetLogFontAndTextColor(m_ModifyProperties.GetLogFont(), m_ModifyProperties.GetTextColor());

  0009a	8d 4e 18	 lea	 ecx, DWORD PTR [esi+24]
  0009d	e8 00 00 00 00	 call	 ?GetTextColor@CPropertiesData_Symbol@@QBEKXZ ; CPropertiesData_Symbol::GetTextColor
  000a2	89 45 ec	 mov	 DWORD PTR $T4[ebp], eax
  000a5	8d 4e 18	 lea	 ecx, DWORD PTR [esi+24]
  000a8	8d 45 ec	 lea	 eax, DWORD PTR $T4[ebp]
  000ab	50		 push	 eax
  000ac	e8 00 00 00 00	 call	 ?GetLogFont@CPropertiesData_Symbol@@QAEAAUtagLOGFONTA@@XZ ; CPropertiesData_Symbol::GetLogFont
  000b1	8b 4e 0c	 mov	 ecx, DWORD PTR [esi+12]
  000b4	50		 push	 eax
  000b5	e8 00 00 00 00	 call	 ?SetLogFontAndTextColor@CDrawingSymbol@@QAEXABUtagLOGFONTA@@ABK@Z ; CDrawingSymbol::SetLogFontAndTextColor

; 175  : 		m_pDrawingSymbol->SetSizeType(m_ModifyProperties.GetSizeType());

  000ba	8d 4e 18	 lea	 ecx, DWORD PTR [esi+24]
  000bd	e8 00 00 00 00	 call	 ?GetSizeType@CPropertiesData_Symbol@@QBE?AW4SIZETYPE@CSymbolBaseData@@XZ ; CPropertiesData_Symbol::GetSizeType
  000c2	8b 4e 0c	 mov	 ecx, DWORD PTR [esi+12]
  000c5	89 45 ec	 mov	 DWORD PTR $T3[ebp], eax
  000c8	8d 45 ec	 lea	 eax, DWORD PTR $T3[ebp]
  000cb	50		 push	 eax
  000cc	e8 00 00 00 00	 call	 ?SetSizeType@CDrawingSymbol@@QAEXABW4SIZETYPE@CSymbolBaseData@@@Z ; CDrawingSymbol::SetSizeType

; 176  : 		m_pDrawingSymbol->SetText(m_ModifyProperties.GetText());

  000d1	8d 45 e8	 lea	 eax, DWORD PTR $T2[ebp]
  000d4	50		 push	 eax
  000d5	8d 4e 18	 lea	 ecx, DWORD PTR [esi+24]
  000d8	e8 00 00 00 00	 call	 ?GetText@CPropertiesData_text@@QAE?AV?$CStringT@DV?$StrTraitMFC_DLL@DV?$ChTraitsCRT@D@ATL@@@@@ATL@@XZ ; CPropertiesData_text::GetText
  000dd	8b 4e 0c	 mov	 ecx, DWORD PTR [esi+12]
  000e0	ff 30		 push	 DWORD PTR [eax]
  000e2	c7 45 fc 00 00
	00 00		 mov	 DWORD PTR __$EHRec$[ebp+8], 0
  000e9	8b 11		 mov	 edx, DWORD PTR [ecx]
  000eb	ff 52 38	 call	 DWORD PTR [edx+56]
  000ee	8d 4d e8	 lea	 ecx, DWORD PTR $T2[ebp]
  000f1	c7 45 fc ff ff
	ff ff		 mov	 DWORD PTR __$EHRec$[ebp+8], -1
  000f8	ff 15 00 00 00
	00		 call	 DWORD PTR __imp_??1?$CStringT@DV?$StrTraitMFC_DLL@DV?$ChTraitsCRT@D@ATL@@@@@ATL@@QAE@XZ

; 177  : 		m_pDrawingSymbol->SetFillState(m_ModifyProperties.GetFillState());

  000fe	8d 4e 18	 lea	 ecx, DWORD PTR [esi+24]
  00101	e8 00 00 00 00	 call	 ?GetFillState@CPropertiesData_Figure@@QAE_NXZ ; CPropertiesData_Figure::GetFillState
  00106	8b 4e 0c	 mov	 ecx, DWORD PTR [esi+12]
  00109	0f b6 c0	 movzx	 eax, al
  0010c	50		 push	 eax
  0010d	e8 00 00 00 00	 call	 ?SetFillState@CDrawingSymbol@@QAEX_N@Z ; CDrawingSymbol::SetFillState

; 178  : 		return true;

  00112	b0 01		 mov	 al, 1

; 181  : }

  00114	8b 4d f4	 mov	 ecx, DWORD PTR __$EHRec$[ebp]
  00117	64 89 0d 00 00
	00 00		 mov	 DWORD PTR fs:0, ecx
  0011e	59		 pop	 ecx
  0011f	5f		 pop	 edi
  00120	5e		 pop	 esi
  00121	8b e5		 mov	 esp, ebp
  00123	5d		 pop	 ebp
  00124	c3		 ret	 0
$LN2@SetData:

; 179  : 	}
; 180  : 	return false;

  00125	32 c0		 xor	 al, al

; 181  : }

  00127	8b 4d f4	 mov	 ecx, DWORD PTR __$EHRec$[ebp]
  0012a	64 89 0d 00 00
	00 00		 mov	 DWORD PTR fs:0, ecx
  00131	59		 pop	 ecx
  00132	5f		 pop	 edi
  00133	5e		 pop	 esi
  00134	8b e5		 mov	 esp, ebp
  00136	5d		 pop	 ebp
  00137	c3		 ret	 0
_TEXT	ENDS
;	COMDAT text$x
text$x	SEGMENT
__unwindfunclet$?SetData@CProperties_Manager@@AAE_NXZ$0:
  00000	8d 4d e8	 lea	 ecx, DWORD PTR $T2[ebp]
  00003	ff 25 00 00 00
	00		 jmp	 DWORD PTR __imp_??1?$CStringT@DV?$StrTraitMFC_DLL@DV?$ChTraitsCRT@D@ATL@@@@@ATL@@QAE@XZ
  00009	cc		 int	 3
  0000a	cc		 int	 3
  0000b	cc		 int	 3
  0000c	cc		 int	 3
  0000d	cc		 int	 3
__ehhandler$?SetData@CProperties_Manager@@AAE_NXZ:
  0000e	90		 npad	 1
  0000f	90		 npad	 1
  00010	8b 54 24 08	 mov	 edx, DWORD PTR [esp+8]
  00014	8d 42 0c	 lea	 eax, DWORD PTR [edx+12]
  00017	8b 4a e8	 mov	 ecx, DWORD PTR [edx-24]
  0001a	33 c8		 xor	 ecx, eax
  0001c	e8 00 00 00 00	 call	 @__security_check_cookie@4
  00021	b8 00 00 00 00	 mov	 eax, OFFSET __ehfuncinfo$?SetData@CProperties_Manager@@AAE_NXZ
  00026	e9 00 00 00 00	 jmp	 ___CxxFrameHandler3
text$x	ENDS
?SetData@CProperties_Manager@@AAE_NXZ ENDP		; CProperties_Manager::SetData
; Function compile flags: /Ogtp
; File D:\git\src\IBK\IBK_DRFN\ProjSrc\SrcChartEx\ChartAddIn\ChartAnalysisToolAddIn\Symbol\Properties_Manager.cpp
;	COMDAT ?ApplySymbolProperties@CProperties_Manager@@AAEXXZ
_TEXT	SEGMENT
_crColor$ = -4						; size = 4
?ApplySymbolProperties@CProperties_Manager@@AAEXXZ PROC	; CProperties_Manager::ApplySymbolProperties, COMDAT
; _this$ = ecx

; 187  : {

  00000	55		 push	 ebp
  00001	8b ec		 mov	 ebp, esp
  00003	51		 push	 ecx
  00004	56		 push	 esi
  00005	8b f1		 mov	 esi, ecx
  00007	57		 push	 edi

; 188  : 	COLORREF crColor = m_ModifyProperties.GetColor();

  00008	8d 4e 18	 lea	 ecx, DWORD PTR [esi+24]
  0000b	e8 00 00 00 00	 call	 ?GetColor@CPropertiesData_Figure@@QAEKXZ ; CPropertiesData_Figure::GetColor

; 189  : 	if(m_pDrawingSymbol != NULL)

  00010	8b 4e 0c	 mov	 ecx, DWORD PTR [esi+12]
  00013	89 45 fc	 mov	 DWORD PTR _crColor$[ebp], eax
  00016	85 c9		 test	 ecx, ecx
  00018	74 15		 je	 SHORT $LN3@ApplySymbo

; 190  : 	{
; 191  : 		if(m_pDrawingSymbol->GetSymbolType() == CSymbolBaseData::SYMBOL_TEXT)

  0001a	e8 00 00 00 00	 call	 ?GetSymbolType@CDrawingSymbol@@QAE?AW4TOOLTYPE@CSymbolBaseData@@XZ ; CDrawingSymbol::GetSymbolType
  0001f	83 f8 04	 cmp	 eax, 4
  00022	75 0b		 jne	 SHORT $LN3@ApplySymbo

; 192  : 			crColor = m_ModifyProperties.GetTextColor();

  00024	8d 4e 18	 lea	 ecx, DWORD PTR [esi+24]
  00027	e8 00 00 00 00	 call	 ?GetTextColor@CPropertiesData_Symbol@@QBEKXZ ; CPropertiesData_Symbol::GetTextColor
  0002c	89 45 fc	 mov	 DWORD PTR _crColor$[ebp], eax
$LN3@ApplySymbo:

; 193  : 	}
; 194  : 	m_pProperties->SetColor(crColor);

  0002f	8b 4e 10	 mov	 ecx, DWORD PTR [esi+16]
  00032	8d 45 fc	 lea	 eax, DWORD PTR _crColor$[ebp]
  00035	50		 push	 eax
  00036	e8 00 00 00 00	 call	 ?SetColor@CPropertiesData_Figure@@QAEXABK@Z ; CPropertiesData_Figure::SetColor

; 195  : 	m_pProperties->SetLogFont(m_ModifyProperties.GetLogFont());

  0003b	8d 4e 18	 lea	 ecx, DWORD PTR [esi+24]
  0003e	e8 00 00 00 00	 call	 ?GetLogFont@CPropertiesData_Symbol@@QAEAAUtagLOGFONTA@@XZ ; CPropertiesData_Symbol::GetLogFont
  00043	8b 4e 10	 mov	 ecx, DWORD PTR [esi+16]
  00046	50		 push	 eax
  00047	e8 00 00 00 00	 call	 ?SetLogFont@CPropertiesData_Symbol@@QAEXABUtagLOGFONTA@@@Z ; CPropertiesData_Symbol::SetLogFont

; 196  : 	m_pProperties->SetSizeType(m_ModifyProperties.GetSizeType());

  0004c	8d 4e 18	 lea	 ecx, DWORD PTR [esi+24]
  0004f	e8 00 00 00 00	 call	 ?GetSizeType@CPropertiesData_Symbol@@QBE?AW4SIZETYPE@CSymbolBaseData@@XZ ; CPropertiesData_Symbol::GetSizeType
  00054	8b 4e 10	 mov	 ecx, DWORD PTR [esi+16]
  00057	50		 push	 eax
  00058	e8 00 00 00 00	 call	 ?SetSizeType@CPropertiesData_Symbol@@QAEXW4SIZETYPE@CSymbolBaseData@@@Z ; CPropertiesData_Symbol::SetSizeType

; 197  : 	m_pProperties->SetFillState(m_ModifyProperties.GetFillState());

  0005d	8d 4e 18	 lea	 ecx, DWORD PTR [esi+24]
  00060	e8 00 00 00 00	 call	 ?GetFillState@CPropertiesData_Figure@@QAE_NXZ ; CPropertiesData_Figure::GetFillState
  00065	8b 4e 10	 mov	 ecx, DWORD PTR [esi+16]
  00068	0f b6 c0	 movzx	 eax, al
  0006b	50		 push	 eax
  0006c	e8 00 00 00 00	 call	 ?SetFillState@CPropertiesData_Figure@@QAEX_N@Z ; CPropertiesData_Figure::SetFillState
  00071	5f		 pop	 edi
  00072	5e		 pop	 esi

; 198  : }

  00073	8b e5		 mov	 esp, ebp
  00075	5d		 pop	 ebp
  00076	c3		 ret	 0
?ApplySymbolProperties@CProperties_Manager@@AAEXXZ ENDP	; CProperties_Manager::ApplySymbolProperties
_TEXT	ENDS
; Function compile flags: /Ogtp
; File D:\git\src\IBK\IBK_DRFN\ProjSrc\SrcChartEx\ChartAddIn\ChartAnalysisToolAddIn\Symbol\Properties_Manager.cpp
; File D:\git\src\IBK\IBK_DRFN\ProjSrc\SrcChartEx\ChartAddIn\ChartAnalysisToolAddIn\Include_Chart\Dll_Load\IMetaTable.h
; File C:\Program Files (x86)\Microsoft Visual Studio\2019\Community\VC\Tools\MSVC\14.29.30133\atlmfc\include\afxwin1.inl
; File D:\git\src\IBK\IBK_DRFN\ProjSrc\SrcChartEx\ChartAddIn\ChartAnalysisToolAddIn\Include_Chart\Dll_Load\IMetaTable.h
; File C:\Program Files (x86)\Microsoft Visual Studio\2019\Community\VC\Tools\MSVC\14.29.30133\atlmfc\include\afxwin1.inl
; File D:\git\src\IBK\IBK_DRFN\ProjSrc\SrcChartEx\ChartAddIn\ChartAnalysisToolAddIn\Symbol\Properties_Manager.cpp
; File C:\Program Files (x86)\Microsoft Visual Studio\2019\Community\VC\Tools\MSVC\14.29.30133\atlmfc\include\afxwin1.inl
; File D:\git\src\IBK\IBK_DRFN\ProjSrc\SrcChartEx\ChartAddIn\ChartAnalysisToolAddIn\Symbol\Properties_Manager.cpp
; File C:\Program Files (x86)\Microsoft Visual Studio\2019\Community\VC\Tools\MSVC\14.29.30133\atlmfc\include\afxwin1.inl
; File D:\git\src\IBK\IBK_DRFN\ProjSrc\SrcChartEx\ChartAddIn\ChartAnalysisToolAddIn\Include_Chart\Dll_Load\IMetaTable.h
; File C:\Program Files (x86)\Microsoft Visual Studio\2019\Community\VC\Tools\MSVC\14.29.30133\atlmfc\include\afxwin1.inl
; File D:\git\src\IBK\IBK_DRFN\ProjSrc\SrcChartEx\ChartAddIn\ChartAnalysisToolAddIn\Symbol\Properties_Manager.cpp
;	COMDAT ?PopUpPropertiesBox@CProperties_Manager@@QAE_NXZ
_TEXT	SEGMENT
$T2 = -1740						; size = 24
$T3 = -1740						; size = 24
_coordStart$4 = -1716					; size = 24
_coordEnd$5 = -1692					; size = 24
___mlrs__$ = -1668					; size = 4
$T6 = -1664						; size = 4
$T7 = -1664						; size = 4
$T8 = -1664						; size = 4
$T9 = -1664						; size = 4
$T10 = -1664						; size = 4
$T11 = -1664						; size = 4
$T12 = -1664						; size = 4
$T13 = -1660						; size = 60
_dlg$14 = -1600						; size = 1584
_dlg$15 = -488						; size = 472
_dlg$16 = -320						; size = 304
__$ArrayPad$ = -16					; size = 4
__$EHRec$ = -12						; size = 12
?PopUpPropertiesBox@CProperties_Manager@@QAE_NXZ PROC	; CProperties_Manager::PopUpPropertiesBox, COMDAT
; _this$ = ecx

; 76   : {

  00000	55		 push	 ebp
  00001	8b ec		 mov	 ebp, esp
  00003	6a ff		 push	 -1
  00005	68 00 00 00 00	 push	 __ehhandler$?PopUpPropertiesBox@CProperties_Manager@@QAE_NXZ
  0000a	64 a1 00 00 00
	00		 mov	 eax, DWORD PTR fs:0
  00010	50		 push	 eax
  00011	81 ec c0 06 00
	00		 sub	 esp, 1728		; 000006c0H
  00017	a1 00 00 00 00	 mov	 eax, DWORD PTR ___security_cookie
  0001c	33 c5		 xor	 eax, ebp
  0001e	89 45 f0	 mov	 DWORD PTR __$ArrayPad$[ebp], eax
  00021	53		 push	 ebx
  00022	56		 push	 esi
  00023	57		 push	 edi
  00024	50		 push	 eax
  00025	8d 45 f4	 lea	 eax, DWORD PTR __$EHRec$[ebp]
  00028	64 a3 00 00 00
	00		 mov	 DWORD PTR fs:0, eax
  0002e	8b d9		 mov	 ebx, ecx

; 77   : 	ML_SET_LANGUAGE_RES();

  00030	e8 00 00 00 00	 call	 ?AfxGetStaticModuleState@@YGPAVAFX_MODULE_STATE@@XZ ; AfxGetStaticModuleState
  00035	8b bb 80 00 00
	00		 mov	 edi, DWORD PTR [ebx+128]
  0003b	8b 70 08	 mov	 esi, DWORD PTR [eax+8]
; File D:\git\src\IBK\IBK_DRFN\ProjSrc\SrcChartEx\ChartAddIn\ChartAnalysisToolAddIn\Include_Chart\Dll_Load\IMetaTable.h

; 938  : 	DECLARE_FUNCTION2(	LoadResourceDLL,				HMODULE, AfxGetStaticModuleState()->m_hCurrentInstanceHandle, HWND, HMODULE);

  0003e	a1 04 00 00 00	 mov	 eax, DWORD PTR ?g_iMetaTable@@3VIMetaTable@@A+4
  00043	85 c0		 test	 eax, eax
  00045	74 4b		 je	 SHORT $LN107@PopUpPrope
  00047	b9 80 0d 00 00	 mov	 ecx, 3456		; 00000d80H
  0004c	66 3b 0d 94 00
	00 00		 cmp	 cx, WORD PTR ?g_iMetaTable@@3VIMetaTable@@A+148
  00053	74 29		 je	 SHORT $LN108@PopUpPrope
  00055	68 00 00 00 00	 push	 OFFSET ??_C@_0BA@ENJOCHIO@LoadResourceDLL@
  0005a	50		 push	 eax
  0005b	c7 05 90 00 00
	00 00 00 00 00	 mov	 DWORD PTR ?g_iMetaTable@@3VIMetaTable@@A+144, 0
  00065	ff 15 00 00 00
	00		 call	 DWORD PTR __imp__GetProcAddress@8
  0006b	b9 80 0d 00 00	 mov	 ecx, 3456		; 00000d80H
  00070	a3 90 00 00 00	 mov	 DWORD PTR ?g_iMetaTable@@3VIMetaTable@@A+144, eax
  00075	66 89 0d 94 00
	00 00		 mov	 WORD PTR ?g_iMetaTable@@3VIMetaTable@@A+148, cx
  0007c	eb 05		 jmp	 SHORT $LN17@PopUpPrope
$LN108@PopUpPrope:
  0007e	a1 90 00 00 00	 mov	 eax, DWORD PTR ?g_iMetaTable@@3VIMetaTable@@A+144
$LN17@PopUpPrope:
  00083	85 c0		 test	 eax, eax
  00085	74 0b		 je	 SHORT $LN107@PopUpPrope
  00087	56		 push	 esi
  00088	57		 push	 edi
  00089	ff d0		 call	 eax
  0008b	83 c4 08	 add	 esp, 8
  0008e	8b f8		 mov	 edi, eax
  00090	eb 08		 jmp	 SHORT $LN15@PopUpPrope
$LN107@PopUpPrope:
  00092	e8 00 00 00 00	 call	 ?AfxGetStaticModuleState@@YGPAVAFX_MODULE_STATE@@XZ ; AfxGetStaticModuleState
  00097	8b 78 08	 mov	 edi, DWORD PTR [eax+8]
$LN15@PopUpPrope:
; File C:\Program Files (x86)\Microsoft Visual Studio\2019\Community\VC\Tools\MSVC\14.29.30133\atlmfc\include\afxwin1.inl

; 25   : 		return afxCurrentResourceHandle; }

  0009a	e8 00 00 00 00	 call	 ?AfxGetModuleState@@YGPAVAFX_MODULE_STATE@@XZ ; AfxGetModuleState
; File D:\git\src\IBK\IBK_DRFN\ProjSrc\SrcChartEx\ChartAddIn\ChartAnalysisToolAddIn\Include_Chart\Dll_Load\IMetaTable.h

; 1034 : 		m_hInstance = AfxGetResourceHandle();

  0009f	8b 70 0c	 mov	 esi, DWORD PTR [eax+12]
  000a2	89 b5 7c f9 ff
	ff		 mov	 DWORD PTR ___mlrs__$[ebp], esi
; File C:\Program Files (x86)\Microsoft Visual Studio\2019\Community\VC\Tools\MSVC\14.29.30133\atlmfc\include\afxwin1.inl

; 27   : 	{ ASSERT(hInstResource != NULL); afxCurrentResourceHandle = hInstResource; }

  000a8	e8 00 00 00 00	 call	 ?AfxGetModuleState@@YGPAVAFX_MODULE_STATE@@XZ ; AfxGetModuleState
  000ad	89 78 0c	 mov	 DWORD PTR [eax+12], edi
; File D:\git\src\IBK\IBK_DRFN\ProjSrc\SrcChartEx\ChartAddIn\ChartAnalysisToolAddIn\Symbol\Properties_Manager.cpp

; 80   : 	if(m_pDrawingSymbol == NULL)

  000b0	8b 4b 0c	 mov	 ecx, DWORD PTR [ebx+12]
  000b3	c7 45 fc 00 00
	00 00		 mov	 DWORD PTR __$EHRec$[ebp+8], 0
  000ba	85 c9		 test	 ecx, ecx
  000bc	0f 84 3c 04 00
	00		 je	 $LN110@PopUpPrope

; 81   : 		return false;
; 82   : 
; 83   : 	m_ModifyProperties.SetFillState(m_pDrawingSymbol->GetFillState());

  000c2	8d 7b 18	 lea	 edi, DWORD PTR [ebx+24]
  000c5	e8 00 00 00 00	 call	 ?GetFillState@CDrawingSymbol@@QAE_NXZ ; CDrawingSymbol::GetFillState
  000ca	0f b6 c0	 movzx	 eax, al
  000cd	8b cf		 mov	 ecx, edi
  000cf	50		 push	 eax
  000d0	e8 00 00 00 00	 call	 ?SetFillState@CPropertiesData_Figure@@QAEX_N@Z ; CPropertiesData_Figure::SetFillState

; 84   : 	m_ModifyProperties.SetColor(m_pDrawingSymbol->GetColor());

  000d5	8b 4b 0c	 mov	 ecx, DWORD PTR [ebx+12]
  000d8	e8 00 00 00 00	 call	 ?GetColor@CDrawingSymbol@@QBEKXZ ; CDrawingSymbol::GetColor
  000dd	89 85 80 f9 ff
	ff		 mov	 DWORD PTR $T12[ebp], eax
  000e3	8b cf		 mov	 ecx, edi
  000e5	8d 85 80 f9 ff
	ff		 lea	 eax, DWORD PTR $T12[ebp]
  000eb	50		 push	 eax
  000ec	e8 00 00 00 00	 call	 ?SetColor@CPropertiesData_Figure@@QAEXABK@Z ; CPropertiesData_Figure::SetColor

; 85   : 	m_ModifyProperties.SetLogFont(m_pDrawingSymbol->GetLogFont());

  000f1	8b 4b 0c	 mov	 ecx, DWORD PTR [ebx+12]
  000f4	8d 85 84 f9 ff
	ff		 lea	 eax, DWORD PTR $T13[ebp]
  000fa	50		 push	 eax
  000fb	e8 00 00 00 00	 call	 ?GetLogFont@CDrawingSymbol@@QAE?AUtagLOGFONTA@@XZ ; CDrawingSymbol::GetLogFont
  00100	50		 push	 eax
  00101	8b cf		 mov	 ecx, edi
  00103	e8 00 00 00 00	 call	 ?SetLogFont@CPropertiesData_Symbol@@QAEXABUtagLOGFONTA@@@Z ; CPropertiesData_Symbol::SetLogFont

; 86   : 	//sy 2005.04.06
; 87   : 	m_ModifyProperties.SetTextColor(m_pDrawingSymbol->GetTextColor());

  00108	8b 4b 0c	 mov	 ecx, DWORD PTR [ebx+12]
  0010b	e8 00 00 00 00	 call	 ?GetTextColor@CDrawingSymbol@@QBEKXZ ; CDrawingSymbol::GetTextColor
  00110	89 85 80 f9 ff
	ff		 mov	 DWORD PTR $T11[ebp], eax
  00116	8b cf		 mov	 ecx, edi
  00118	8d 85 80 f9 ff
	ff		 lea	 eax, DWORD PTR $T11[ebp]
  0011e	50		 push	 eax
  0011f	e8 00 00 00 00	 call	 ?SetTextColor@CPropertiesData_Symbol@@QAEXABK@Z ; CPropertiesData_Symbol::SetTextColor

; 88   : 	m_ModifyProperties.SetSizeType(m_pDrawingSymbol->GetSizeType());

  00124	8b 4b 0c	 mov	 ecx, DWORD PTR [ebx+12]
  00127	e8 00 00 00 00	 call	 ?GetSizeType@CDrawingSymbol@@QBE?AW4SIZETYPE@CSymbolBaseData@@XZ ; CDrawingSymbol::GetSizeType
  0012c	50		 push	 eax
  0012d	8b cf		 mov	 ecx, edi
  0012f	e8 00 00 00 00	 call	 ?SetSizeType@CPropertiesData_Symbol@@QAEXW4SIZETYPE@CSymbolBaseData@@@Z ; CPropertiesData_Symbol::SetSizeType

; 89   : 	m_ModifyProperties.SetText(m_pDrawingSymbol->GetText());

  00134	8b 4b 0c	 mov	 ecx, DWORD PTR [ebx+12]
  00137	8d 95 80 f9 ff
	ff		 lea	 edx, DWORD PTR $T10[ebp]
  0013d	52		 push	 edx
  0013e	8b 01		 mov	 eax, DWORD PTR [ecx]
  00140	ff 50 1c	 call	 DWORD PTR [eax+28]
  00143	50		 push	 eax
  00144	8b cf		 mov	 ecx, edi
  00146	c6 45 fc 02	 mov	 BYTE PTR __$EHRec$[ebp+8], 2
  0014a	e8 00 00 00 00	 call	 ?SetText@CPropertiesData_text@@QAEXABV?$CStringT@DV?$StrTraitMFC_DLL@DV?$ChTraitsCRT@D@ATL@@@@@ATL@@@Z ; CPropertiesData_text::SetText
  0014f	8d 8d 80 f9 ff
	ff		 lea	 ecx, DWORD PTR $T10[ebp]
  00155	c6 45 fc 00	 mov	 BYTE PTR __$EHRec$[ebp+8], 0
  00159	ff 15 00 00 00
	00		 call	 DWORD PTR __imp_??1?$CStringT@DV?$StrTraitMFC_DLL@DV?$ChTraitsCRT@D@ATL@@@@@ATL@@QAE@XZ

; 90   : 
; 91   : 	m_ModifyProperties.SetWeight(m_pDrawingSymbol->GetWeight());

  0015f	8b 4b 0c	 mov	 ecx, DWORD PTR [ebx+12]
  00162	e8 00 00 00 00	 call	 ?GetWeight@CDrawingSymbol@@QBEHXZ ; CDrawingSymbol::GetWeight
  00167	89 85 80 f9 ff
	ff		 mov	 DWORD PTR $T9[ebp], eax
  0016d	8b cf		 mov	 ecx, edi
  0016f	8d 85 80 f9 ff
	ff		 lea	 eax, DWORD PTR $T9[ebp]
  00175	50		 push	 eax
  00176	e8 00 00 00 00	 call	 ?SetWeight@CPropertiesData_Figure@@QAEXABH@Z ; CPropertiesData_Figure::SetWeight

; 92   : 	m_ModifyProperties.SetStyle(m_pDrawingSymbol->GetStyle());

  0017b	8b 4b 0c	 mov	 ecx, DWORD PTR [ebx+12]
  0017e	e8 00 00 00 00	 call	 ?GetStyle@CDrawingSymbol@@QBEHXZ ; CDrawingSymbol::GetStyle
  00183	89 85 80 f9 ff
	ff		 mov	 DWORD PTR $T8[ebp], eax
  00189	8b cf		 mov	 ecx, edi
  0018b	8d 85 80 f9 ff
	ff		 lea	 eax, DWORD PTR $T8[ebp]
  00191	50		 push	 eax
  00192	e8 00 00 00 00	 call	 ?SetStyle@CPropertiesData_Figure@@QAEXABH@Z ; CPropertiesData_Figure::SetStyle

; 93   : 	
; 94   : 	CSymbolBaseData::TOOLTYPE type = m_pDrawingSymbol->GetSymbolType();

  00197	8b 4b 0c	 mov	 ecx, DWORD PTR [ebx+12]
  0019a	e8 00 00 00 00	 call	 ?GetSymbolType@CDrawingSymbol@@QAE?AW4TOOLTYPE@CSymbolBaseData@@XZ ; CDrawingSymbol::GetSymbolType

; 95   : 	
; 96   : 	if(type == CSymbolBaseData::SYMBOL_SQUARE || type == CSymbolBaseData::SYMBOL_CIRCLE || type == CSymbolBaseData::SYMBOL_TRIANGLE) // 사각도형, 원, 삼각형

  0019f	83 f8 01	 cmp	 eax, 1
  001a2	0f 84 1e 01 00
	00		 je	 $LN5@PopUpPrope
  001a8	83 f8 02	 cmp	 eax, 2
  001ab	0f 84 15 01 00
	00		 je	 $LN5@PopUpPrope
  001b1	83 f8 03	 cmp	 eax, 3
  001b4	0f 84 0c 01 00
	00		 je	 $LN5@PopUpPrope

; 97   : 		return WhenSymbolIsFigure();
; 98   : 	else if(type == CSymbolBaseData::SYMBOL_TEXT) //text

  001ba	83 f8 04	 cmp	 eax, 4
  001bd	75 63		 jne	 SHORT $LN6@PopUpPrope

; 136  : 	CProperties_text dlg(&m_ModifyProperties);

  001bf	6a 00		 push	 0
  001c1	57		 push	 edi
  001c2	8d 8d c0 fe ff
	ff		 lea	 ecx, DWORD PTR _dlg$16[ebp]
  001c8	e8 00 00 00 00	 call	 ??0CProperties_text@@QAE@PAVCPropertiesData_text@@PAVCWnd@@@Z ; CProperties_text::CProperties_text

; 137  : 	if(dlg.DoModal() == IDOK) 

  001cd	8d 8d c0 fe ff
	ff		 lea	 ecx, DWORD PTR _dlg$16[ebp]
  001d3	c6 45 fc 05	 mov	 BYTE PTR __$EHRec$[ebp+8], 5
  001d7	e8 00 00 00 00	 call	 ?DoModal@CDialog@@UAEHXZ ; CDialog::DoModal
  001dc	83 f8 01	 cmp	 eax, 1
  001df	75 2b		 jne	 SHORT $LN71@PopUpPrope

; 138  : 	{
; 139  : 		ApplySymbolProperties();

  001e1	8b cb		 mov	 ecx, ebx
  001e3	e8 00 00 00 00	 call	 ?ApplySymbolProperties@CProperties_Manager@@AAEXXZ ; CProperties_Manager::ApplySymbolProperties

; 140  : 		return SetData();

  001e8	8b cb		 mov	 ecx, ebx
  001ea	e8 00 00 00 00	 call	 ?SetData@CProperties_Manager@@AAE_NXZ ; CProperties_Manager::SetData
  001ef	8d 8d 68 ff ff
	ff		 lea	 ecx, DWORD PTR _dlg$16[ebp+168]
  001f5	8a d8		 mov	 bl, al
  001f7	e8 00 00 00 00	 call	 ??1CEdit@@UAE@XZ	; CEdit::~CEdit
  001fc	8d 8d c0 fe ff
	ff		 lea	 ecx, DWORD PTR _dlg$16[ebp]
  00202	e8 00 00 00 00	 call	 ??1CDialog@@UAE@XZ	; CDialog::~CDialog
  00207	e9 f4 02 00 00	 jmp	 $LN85@PopUpPrope
$LN71@PopUpPrope:
  0020c	8d 8d 68 ff ff
	ff		 lea	 ecx, DWORD PTR _dlg$16[ebp+168]
  00212	e8 00 00 00 00	 call	 ??1CEdit@@UAE@XZ	; CEdit::~CEdit
  00217	8d 8d c0 fe ff
	ff		 lea	 ecx, DWORD PTR _dlg$16[ebp]

; 141  : 	}
; 142  : 
; 143  : 	return false;

  0021d	e9 d7 02 00 00	 jmp	 $LN111@PopUpPrope
$LN6@PopUpPrope:

; 149  : 	if(m_pMainBlock == NULL)

  00222	83 7b 14 00	 cmp	 DWORD PTR [ebx+20], 0
  00226	0f 84 d2 02 00
	00		 je	 $LN110@PopUpPrope

; 150  : 		return false;
; 151  : 
; 152  : 	CProperties dlg(&m_ModifyProperties, type);

  0022c	6a 00		 push	 0
  0022e	50		 push	 eax
  0022f	57		 push	 edi
  00230	8d 8d 18 fe ff
	ff		 lea	 ecx, DWORD PTR _dlg$15[ebp]
  00236	e8 00 00 00 00	 call	 ??0CProperties@@QAE@PAVCPropertiesData_text@@W4TOOLTYPE@CSymbolBaseData@@PAVCWnd@@@Z ; CProperties::CProperties

; 153  : 	dlg.SetBackgroundColorInViewer(m_pMainBlock->GetBackgroundColor());

  0023b	8b 4b 14	 mov	 ecx, DWORD PTR [ebx+20]
  0023e	c6 45 fc 07	 mov	 BYTE PTR __$EHRec$[ebp+8], 7
  00242	8b 01		 mov	 eax, DWORD PTR [ecx]
  00244	ff 50 3c	 call	 DWORD PTR [eax+60]
  00247	89 85 80 f9 ff
	ff		 mov	 DWORD PTR $T6[ebp], eax
  0024d	8d 8d 18 fe ff
	ff		 lea	 ecx, DWORD PTR _dlg$15[ebp]
  00253	8d 85 80 f9 ff
	ff		 lea	 eax, DWORD PTR $T6[ebp]
  00259	50		 push	 eax
  0025a	e8 00 00 00 00	 call	 ?SetBackgroundColorInViewer@CProperties@@QAEXABK@Z ; CProperties::SetBackgroundColorInViewer

; 154  : 	if(dlg.DoModal() == IDOK)

  0025f	8d 8d 18 fe ff
	ff		 lea	 ecx, DWORD PTR _dlg$15[ebp]
  00265	e8 00 00 00 00	 call	 ?DoModal@CDialog@@UAEHXZ ; CDialog::DoModal
  0026a	83 f8 01	 cmp	 eax, 1
  0026d	75 36		 jne	 SHORT $LN87@PopUpPrope

; 155  : 	{
; 156  : 		ApplySymbolProperties();

  0026f	8b cb		 mov	 ecx, ebx
  00271	e8 00 00 00 00	 call	 ?ApplySymbolProperties@CProperties_Manager@@AAEXXZ ; CProperties_Manager::ApplySymbolProperties

; 157  : 		return SetData();

  00276	8b cb		 mov	 ecx, ebx
  00278	e8 00 00 00 00	 call	 ?SetData@CProperties_Manager@@AAE_NXZ ; CProperties_Manager::SetData
  0027d	8d 8d 48 ff ff
	ff		 lea	 ecx, DWORD PTR _dlg$15[ebp+304]
  00283	8a d8		 mov	 bl, al
  00285	e8 00 00 00 00	 call	 ??1CPreView@@UAE@XZ	; CPreView::~CPreView
  0028a	8d 8d c0 fe ff
	ff		 lea	 ecx, DWORD PTR _dlg$15[ebp+168]
  00290	e8 00 00 00 00	 call	 ??1CColorButton@@UAE@XZ	; CColorButton::~CColorButton
  00295	8d 8d 18 fe ff
	ff		 lea	 ecx, DWORD PTR _dlg$15[ebp]
  0029b	e8 00 00 00 00	 call	 ??1CDialog@@UAE@XZ	; CDialog::~CDialog
  002a0	e9 5b 02 00 00	 jmp	 $LN85@PopUpPrope
$LN87@PopUpPrope:
  002a5	8d 8d 48 ff ff
	ff		 lea	 ecx, DWORD PTR _dlg$15[ebp+304]
  002ab	e8 00 00 00 00	 call	 ??1CPreView@@UAE@XZ	; CPreView::~CPreView
  002b0	8d 8d c0 fe ff
	ff		 lea	 ecx, DWORD PTR _dlg$15[ebp+168]
  002b6	e8 00 00 00 00	 call	 ??1CColorButton@@UAE@XZ	; CColorButton::~CColorButton
  002bb	8d 8d 18 fe ff
	ff		 lea	 ecx, DWORD PTR _dlg$15[ebp]

; 158  : 	}
; 159  : 
; 160  : 	return false;

  002c1	e9 33 02 00 00	 jmp	 $LN111@PopUpPrope
$LN5@PopUpPrope:

; 108  : 	CCoordinate coordStart = m_pDrawingSymbol->GetStartPoint();

  002c6	8b 4b 0c	 mov	 ecx, DWORD PTR [ebx+12]
  002c9	8d 95 4c f9 ff
	ff		 lea	 edx, DWORD PTR _coordStart$4[ebp]
  002cf	52		 push	 edx
  002d0	8b 01		 mov	 eax, DWORD PTR [ecx]
  002d2	ff 50 20	 call	 DWORD PTR [eax+32]

; 109  : 	CCoordinate coordEnd = m_pDrawingSymbol->GetEndPoint();

  002d5	8b 4b 0c	 mov	 ecx, DWORD PTR [ebx+12]
  002d8	8d 95 64 f9 ff
	ff		 lea	 edx, DWORD PTR _coordEnd$5[ebp]
  002de	52		 push	 edx
  002df	8b 01		 mov	 eax, DWORD PTR [ecx]
  002e1	ff 50 24	 call	 DWORD PTR [eax+36]

; 110  : 
; 111  : 	// 2011.02.08 by SYS >> 분차트 YYYY(년) 추가 : 날짜/시간 14Byte형태 변경 (YYYYMMDDhhmmss)
; 112  : //	CProperties_Figure dlg(&m_ModifyProperties,m_pDrawingSymbol->GetSymbolType(),m_strUserPath,m_nDataPeriod,coordStart,coordEnd,CWnd::FromHandle( m_hOcxWnd));
; 113  : 	CProperties_Figure dlg(	m_pMainBlock,

  002e4	8b 4b 0c	 mov	 ecx, DWORD PTR [ebx+12]
  002e7	e8 00 00 00 00	 call	 ?GetSymbolType@CDrawingSymbol@@QAE?AW4TOOLTYPE@CSymbolBaseData@@XZ ; CDrawingSymbol::GetSymbolType
  002ec	ff b3 80 00 00
	00		 push	 DWORD PTR [ebx+128]
  002f2	89 85 80 f9 ff
	ff		 mov	 DWORD PTR $T7[ebp], eax
  002f8	e8 00 00 00 00	 call	 ?FromHandle@CWnd@@SGPAV1@PAUHWND__@@@Z ; CWnd::FromHandle
  002fd	50		 push	 eax
  002fe	8d 85 64 f9 ff
	ff		 lea	 eax, DWORD PTR _coordEnd$5[ebp]
  00304	50		 push	 eax
  00305	8d 85 4c f9 ff
	ff		 lea	 eax, DWORD PTR _coordStart$4[ebp]
  0030b	50		 push	 eax
  0030c	8d 43 08	 lea	 eax, DWORD PTR [ebx+8]
  0030f	50		 push	 eax
  00310	8d 43 04	 lea	 eax, DWORD PTR [ebx+4]
  00313	50		 push	 eax
  00314	8d 85 80 f9 ff
	ff		 lea	 eax, DWORD PTR $T7[ebp]
  0031a	50		 push	 eax
  0031b	57		 push	 edi
  0031c	8d 43 7c	 lea	 eax, DWORD PTR [ebx+124]
  0031f	50		 push	 eax
  00320	8d 43 74	 lea	 eax, DWORD PTR [ebx+116]
  00323	50		 push	 eax
  00324	ff 73 14	 push	 DWORD PTR [ebx+20]
  00327	8d 8d c0 f9 ff
	ff		 lea	 ecx, DWORD PTR _dlg$14[ebp]
  0032d	e8 00 00 00 00	 call	 ??0CProperties_Figure@@QAE@PAUIChartManager133101@@ABVCBlockIndex@@ABV?$CStringT@DV?$StrTraitMFC_DLL@DV?$ChTraitsCRT@D@ATL@@@@@ATL@@PAVCPropertiesData_text@@ABW4TOOLTYPE@CSymbolBaseData@@2ABW4HORZSCALEDRAWERTYPE@CScaleBaseData@@ABVCCoordinate@@6PAVCWnd@@@Z ; CProperties_Figure::CProperties_Figure

; 114  : 							m_blockIndex,
; 115  : 							m_strFormatX,
; 116  : 							&m_ModifyProperties,
; 117  : 							m_pDrawingSymbol->GetSymbolType(),
; 118  : 							m_strUserPath,
; 119  : 							m_nDataPeriod,
; 120  : 							coordStart,coordEnd,
; 121  : 							CWnd::FromHandle( m_hOcxWnd));
; 122  : 	// 2011.02.08 by SYS <<
; 123  : 
; 124  : 	if(dlg.DoModal() == IDOK) 

  00332	8d 8d c0 f9 ff
	ff		 lea	 ecx, DWORD PTR _dlg$14[ebp]
  00338	c6 45 fc 03	 mov	 BYTE PTR __$EHRec$[ebp+8], 3
  0033c	e8 00 00 00 00	 call	 ?DoModal@CDialog@@UAEHXZ ; CDialog::DoModal
  00341	83 f8 01	 cmp	 eax, 1
  00344	0f 85 ff 00 00
	00		 jne	 $LN32@PopUpPrope

; 125  : 	{
; 126  : 		m_pDrawingSymbol->SetStartCoord(dlg.GetStartCoord());

  0034a	8b 43 0c	 mov	 eax, DWORD PTR [ebx+12]
  0034d	8d 8d c0 f9 ff
	ff		 lea	 ecx, DWORD PTR _dlg$14[ebp]
  00353	8b 38		 mov	 edi, DWORD PTR [eax]
  00355	8d 85 34 f9 ff
	ff		 lea	 eax, DWORD PTR $T3[ebp]
  0035b	50		 push	 eax
  0035c	e8 00 00 00 00	 call	 ?GetStartCoord@CProperties_Figure@@QBE?AVCCoordinate@@XZ ; CProperties_Figure::GetStartCoord
  00361	8b 4b 0c	 mov	 ecx, DWORD PTR [ebx+12]
  00364	50		 push	 eax
  00365	ff 57 28	 call	 DWORD PTR [edi+40]

; 127  : 		m_pDrawingSymbol->SetEndCoord(dlg.GetEndCoord());

  00368	8b 43 0c	 mov	 eax, DWORD PTR [ebx+12]
  0036b	8d 8d c0 f9 ff
	ff		 lea	 ecx, DWORD PTR _dlg$14[ebp]
  00371	8b 38		 mov	 edi, DWORD PTR [eax]
  00373	8d 85 34 f9 ff
	ff		 lea	 eax, DWORD PTR $T2[ebp]
  00379	50		 push	 eax
  0037a	e8 00 00 00 00	 call	 ?GetEndCoord@CProperties_Figure@@QBE?AVCCoordinate@@XZ ; CProperties_Figure::GetEndCoord
  0037f	8b 4b 0c	 mov	 ecx, DWORD PTR [ebx+12]
  00382	50		 push	 eax
  00383	ff 57 2c	 call	 DWORD PTR [edi+44]

; 128  : 		return SetData();

  00386	8b cb		 mov	 ecx, ebx
  00388	e8 00 00 00 00	 call	 ?SetData@CProperties_Manager@@AAE_NXZ ; CProperties_Manager::SetData
  0038d	8d 4d e8	 lea	 ecx, DWORD PTR _dlg$14[ebp+1576]
  00390	8a d8		 mov	 bl, al
  00392	ff 15 00 00 00
	00		 call	 DWORD PTR __imp_??1?$CStringT@DV?$StrTraitMFC_DLL@DV?$ChTraitsCRT@D@ATL@@@@@ATL@@QAE@XZ
  00398	8d 4d a4	 lea	 ecx, DWORD PTR _dlg$14[ebp+1508]
  0039b	ff 15 00 00 00
	00		 call	 DWORD PTR __imp_??1?$CStringT@DV?$StrTraitMFC_DLL@DV?$ChTraitsCRT@D@ATL@@@@@ATL@@QAE@XZ
  003a1	8d 8d 10 ff ff
	ff		 lea	 ecx, DWORD PTR _dlg$14[ebp+1360]
  003a7	e8 00 00 00 00	 call	 ??1CDateTimeCtrl@@UAE@XZ ; CDateTimeCtrl::~CDateTimeCtrl
  003ac	8d 8d 90 fe ff
	ff		 lea	 ecx, DWORD PTR _dlg$14[ebp+1232]
  003b2	e8 00 00 00 00	 call	 ??1CDateTimeCtrl@@UAE@XZ ; CDateTimeCtrl::~CDateTimeCtrl
  003b7	8d 8d 10 fe ff
	ff		 lea	 ecx, DWORD PTR _dlg$14[ebp+1104]
  003bd	e8 00 00 00 00	 call	 ??1CEdit@@UAE@XZ	; CEdit::~CEdit
  003c2	8d 8d 90 fd ff
	ff		 lea	 ecx, DWORD PTR _dlg$14[ebp+976]
  003c8	e8 00 00 00 00	 call	 ??1CEdit@@UAE@XZ	; CEdit::~CEdit
  003cd	8d 8d 10 fd ff
	ff		 lea	 ecx, DWORD PTR _dlg$14[ebp+848]
  003d3	e8 00 00 00 00	 call	 ??1CEdit@@UAE@XZ	; CEdit::~CEdit
  003d8	8d 8d 90 fc ff
	ff		 lea	 ecx, DWORD PTR _dlg$14[ebp+720]
  003de	e8 00 00 00 00	 call	 ??1CEdit@@UAE@XZ	; CEdit::~CEdit
; File C:\Program Files (x86)\Microsoft Visual Studio\2019\Community\VC\Tools\MSVC\14.29.30133\atlmfc\include\afxwin1.inl

; 179  : 	{ }

  003e3	8d 8d 84 fc ff
	ff		 lea	 ecx, DWORD PTR _dlg$14[ebp+708]
  003e9	c7 85 84 fc ff
	ff 00 00 00 00	 mov	 DWORD PTR _dlg$14[ebp+708], OFFSET ??_7CBitmap@@6B@
  003f3	e8 00 00 00 00	 call	 ??1CGdiObject@@UAE@XZ	; CGdiObject::~CGdiObject
  003f8	8d 8d 00 fc ff
	ff		 lea	 ecx, DWORD PTR _dlg$14[ebp+576]
  003fe	e8 00 00 00 00	 call	 ??1CComboBox@@UAE@XZ	; CComboBox::~CComboBox
  00403	8d 8d f4 fb ff
	ff		 lea	 ecx, DWORD PTR _dlg$14[ebp+564]
  00409	c7 85 f4 fb ff
	ff 00 00 00 00	 mov	 DWORD PTR _dlg$14[ebp+564], OFFSET ??_7CBitmap@@6B@
  00413	e8 00 00 00 00	 call	 ??1CGdiObject@@UAE@XZ	; CGdiObject::~CGdiObject
  00418	8d 8d 70 fb ff
	ff		 lea	 ecx, DWORD PTR _dlg$14[ebp+432]
  0041e	e8 00 00 00 00	 call	 ??1CComboBox@@UAE@XZ	; CComboBox::~CComboBox
  00423	8d 8d e8 fa ff
	ff		 lea	 ecx, DWORD PTR _dlg$14[ebp+296]
  00429	e8 00 00 00 00	 call	 ??1CColorButton@@UAE@XZ	; CColorButton::~CColorButton
  0042e	8d 8d 68 fa ff
	ff		 lea	 ecx, DWORD PTR _dlg$14[ebp+168]
  00434	e8 00 00 00 00	 call	 ??1CButton@@UAE@XZ	; CButton::~CButton
  00439	8d 8d c0 f9 ff
	ff		 lea	 ecx, DWORD PTR _dlg$14[ebp]
  0043f	e8 00 00 00 00	 call	 ??1CDialog@@UAE@XZ	; CDialog::~CDialog
; File D:\git\src\IBK\IBK_DRFN\ProjSrc\SrcChartEx\ChartAddIn\ChartAnalysisToolAddIn\Symbol\Properties_Manager.cpp

; 128  : 		return SetData();

  00444	e9 b7 00 00 00	 jmp	 $LN85@PopUpPrope
$LN32@PopUpPrope:
  00449	8d 4d e8	 lea	 ecx, DWORD PTR _dlg$14[ebp+1576]
  0044c	ff 15 00 00 00
	00		 call	 DWORD PTR __imp_??1?$CStringT@DV?$StrTraitMFC_DLL@DV?$ChTraitsCRT@D@ATL@@@@@ATL@@QAE@XZ
  00452	8d 4d a4	 lea	 ecx, DWORD PTR _dlg$14[ebp+1508]
  00455	ff 15 00 00 00
	00		 call	 DWORD PTR __imp_??1?$CStringT@DV?$StrTraitMFC_DLL@DV?$ChTraitsCRT@D@ATL@@@@@ATL@@QAE@XZ
  0045b	8d 8d 10 ff ff
	ff		 lea	 ecx, DWORD PTR _dlg$14[ebp+1360]
  00461	e8 00 00 00 00	 call	 ??1CDateTimeCtrl@@UAE@XZ ; CDateTimeCtrl::~CDateTimeCtrl
  00466	8d 8d 90 fe ff
	ff		 lea	 ecx, DWORD PTR _dlg$14[ebp+1232]
  0046c	e8 00 00 00 00	 call	 ??1CDateTimeCtrl@@UAE@XZ ; CDateTimeCtrl::~CDateTimeCtrl
  00471	8d 8d 10 fe ff
	ff		 lea	 ecx, DWORD PTR _dlg$14[ebp+1104]
  00477	e8 00 00 00 00	 call	 ??1CEdit@@UAE@XZ	; CEdit::~CEdit
  0047c	8d 8d 90 fd ff
	ff		 lea	 ecx, DWORD PTR _dlg$14[ebp+976]
  00482	e8 00 00 00 00	 call	 ??1CEdit@@UAE@XZ	; CEdit::~CEdit
  00487	8d 8d 10 fd ff
	ff		 lea	 ecx, DWORD PTR _dlg$14[ebp+848]
  0048d	e8 00 00 00 00	 call	 ??1CEdit@@UAE@XZ	; CEdit::~CEdit
  00492	8d 8d 90 fc ff
	ff		 lea	 ecx, DWORD PTR _dlg$14[ebp+720]
  00498	e8 00 00 00 00	 call	 ??1CEdit@@UAE@XZ	; CEdit::~CEdit
; File C:\Program Files (x86)\Microsoft Visual Studio\2019\Community\VC\Tools\MSVC\14.29.30133\atlmfc\include\afxwin1.inl

; 179  : 	{ }

  0049d	8d 8d 84 fc ff
	ff		 lea	 ecx, DWORD PTR _dlg$14[ebp+708]
  004a3	c7 85 84 fc ff
	ff 00 00 00 00	 mov	 DWORD PTR _dlg$14[ebp+708], OFFSET ??_7CBitmap@@6B@
  004ad	e8 00 00 00 00	 call	 ??1CGdiObject@@UAE@XZ	; CGdiObject::~CGdiObject
  004b2	8d 8d 00 fc ff
	ff		 lea	 ecx, DWORD PTR _dlg$14[ebp+576]
  004b8	e8 00 00 00 00	 call	 ??1CComboBox@@UAE@XZ	; CComboBox::~CComboBox
  004bd	8d 8d f4 fb ff
	ff		 lea	 ecx, DWORD PTR _dlg$14[ebp+564]
  004c3	c7 85 f4 fb ff
	ff 00 00 00 00	 mov	 DWORD PTR _dlg$14[ebp+564], OFFSET ??_7CBitmap@@6B@
  004cd	e8 00 00 00 00	 call	 ??1CGdiObject@@UAE@XZ	; CGdiObject::~CGdiObject
  004d2	8d 8d 70 fb ff
	ff		 lea	 ecx, DWORD PTR _dlg$14[ebp+432]
  004d8	e8 00 00 00 00	 call	 ??1CComboBox@@UAE@XZ	; CComboBox::~CComboBox
  004dd	8d 8d e8 fa ff
	ff		 lea	 ecx, DWORD PTR _dlg$14[ebp+296]
  004e3	e8 00 00 00 00	 call	 ??1CColorButton@@UAE@XZ	; CColorButton::~CColorButton
  004e8	8d 8d 68 fa ff
	ff		 lea	 ecx, DWORD PTR _dlg$14[ebp+168]
  004ee	e8 00 00 00 00	 call	 ??1CButton@@UAE@XZ	; CButton::~CButton
  004f3	8d 8d c0 f9 ff
	ff		 lea	 ecx, DWORD PTR _dlg$14[ebp]
$LN111@PopUpPrope:
; File D:\git\src\IBK\IBK_DRFN\ProjSrc\SrcChartEx\ChartAddIn\ChartAnalysisToolAddIn\Include_Chart\Dll_Load\IMetaTable.h

; 1038 : 	{

  004f9	e8 00 00 00 00	 call	 ??1CDialog@@UAE@XZ	; CDialog::~CDialog
$LN110@PopUpPrope:
  004fe	32 db		 xor	 bl, bl
$LN85@PopUpPrope:
  00500	c7 45 fc 09 00
	00 00		 mov	 DWORD PTR __$EHRec$[ebp+8], 9
; File C:\Program Files (x86)\Microsoft Visual Studio\2019\Community\VC\Tools\MSVC\14.29.30133\atlmfc\include\afxwin1.inl

; 27   : 	{ ASSERT(hInstResource != NULL); afxCurrentResourceHandle = hInstResource; }

  00507	e8 00 00 00 00	 call	 ?AfxGetModuleState@@YGPAVAFX_MODULE_STATE@@XZ ; AfxGetModuleState
  0050c	89 70 0c	 mov	 DWORD PTR [eax+12], esi
; File D:\git\src\IBK\IBK_DRFN\ProjSrc\SrcChartEx\ChartAddIn\ChartAnalysisToolAddIn\Symbol\Properties_Manager.cpp

; 103  : 	return false;

  0050f	8a c3		 mov	 al, bl

; 104  : }

  00511	8b 4d f4	 mov	 ecx, DWORD PTR __$EHRec$[ebp]
  00514	64 89 0d 00 00
	00 00		 mov	 DWORD PTR fs:0, ecx
  0051b	59		 pop	 ecx
  0051c	5f		 pop	 edi
  0051d	5e		 pop	 esi
  0051e	5b		 pop	 ebx
  0051f	8b 4d f0	 mov	 ecx, DWORD PTR __$ArrayPad$[ebp]
  00522	33 cd		 xor	 ecx, ebp
  00524	e8 00 00 00 00	 call	 @__security_check_cookie@4
  00529	8b e5		 mov	 esp, ebp
  0052b	5d		 pop	 ebp
  0052c	c3		 ret	 0
_TEXT	ENDS
;	COMDAT text$x
text$x	SEGMENT
__unwindfunclet$?PopUpPropertiesBox@CProperties_Manager@@QAE_NXZ$0:
  00000	8d 8d 7c f9 ff
	ff		 lea	 ecx, DWORD PTR ___mlrs__$[ebp]
  00006	e9 00 00 00 00	 jmp	 ??1CMultiLanguageResourceSetter@@QAE@XZ ; CMultiLanguageResourceSetter::~CMultiLanguageResourceSetter
__unwindfunclet$?PopUpPropertiesBox@CProperties_Manager@@QAE_NXZ$1:
  0000b	8d 8d 80 f9 ff
	ff		 lea	 ecx, DWORD PTR $T10[ebp]
  00011	ff 25 00 00 00
	00		 jmp	 DWORD PTR __imp_??1?$CStringT@DV?$StrTraitMFC_DLL@DV?$ChTraitsCRT@D@ATL@@@@@ATL@@QAE@XZ
__unwindfunclet$?PopUpPropertiesBox@CProperties_Manager@@QAE_NXZ$15:
  00017	8d 8d c0 fe ff
	ff		 lea	 ecx, DWORD PTR _dlg$16[ebp]
  0001d	e9 00 00 00 00	 jmp	 ??1CProperties_text@@UAE@XZ
__unwindfunclet$?PopUpPropertiesBox@CProperties_Manager@@QAE_NXZ$19:
  00022	8d 8d 18 fe ff
	ff		 lea	 ecx, DWORD PTR _dlg$15[ebp]
  00028	e9 00 00 00 00	 jmp	 ??1CProperties@@UAE@XZ
__unwindfunclet$?PopUpPropertiesBox@CProperties_Manager@@QAE_NXZ$3:
  0002d	8d 8d c0 f9 ff
	ff		 lea	 ecx, DWORD PTR _dlg$14[ebp]
  00033	e9 00 00 00 00	 jmp	 ??1CProperties_Figure@@UAE@XZ
  00038	cc		 int	 3
  00039	cc		 int	 3
  0003a	cc		 int	 3
  0003b	cc		 int	 3
  0003c	cc		 int	 3
__ehhandler$?PopUpPropertiesBox@CProperties_Manager@@QAE_NXZ:
  0003d	90		 npad	 1
  0003e	90		 npad	 1
  0003f	8b 54 24 08	 mov	 edx, DWORD PTR [esp+8]
  00043	8d 42 0c	 lea	 eax, DWORD PTR [edx+12]
  00046	8b 8a 30 f9 ff
	ff		 mov	 ecx, DWORD PTR [edx-1744]
  0004c	33 c8		 xor	 ecx, eax
  0004e	e8 00 00 00 00	 call	 @__security_check_cookie@4
  00053	8b 4a fc	 mov	 ecx, DWORD PTR [edx-4]
  00056	33 c8		 xor	 ecx, eax
  00058	e8 00 00 00 00	 call	 @__security_check_cookie@4
  0005d	b8 00 00 00 00	 mov	 eax, OFFSET __ehfuncinfo$?PopUpPropertiesBox@CProperties_Manager@@QAE_NXZ
  00062	e9 00 00 00 00	 jmp	 ___CxxFrameHandler3
text$x	ENDS
?PopUpPropertiesBox@CProperties_Manager@@QAE_NXZ ENDP	; CProperties_Manager::PopUpPropertiesBox
; Function compile flags: /Ogtp
; File D:\git\src\IBK\IBK_DRFN\ProjSrc\SrcChartEx\ChartAddIn\ChartAnalysisToolAddIn\Symbol\Properties_Manager.cpp
;	COMDAT ??1CProperties_Manager@@UAE@XZ
_TEXT	SEGMENT
__$EHRec$ = -12						; size = 12
??1CProperties_Manager@@UAE@XZ PROC			; CProperties_Manager::~CProperties_Manager, COMDAT
; _this$ = ecx

; 71   : {

  00000	55		 push	 ebp
  00001	8b ec		 mov	 ebp, esp
  00003	6a ff		 push	 -1
  00005	68 00 00 00 00	 push	 __ehhandler$??1CProperties_Manager@@UAE@XZ
  0000a	64 a1 00 00 00
	00		 mov	 eax, DWORD PTR fs:0
  00010	50		 push	 eax
  00011	56		 push	 esi
  00012	a1 00 00 00 00	 mov	 eax, DWORD PTR ___security_cookie
  00017	33 c5		 xor	 eax, ebp
  00019	50		 push	 eax
  0001a	8d 45 f4	 lea	 eax, DWORD PTR __$EHRec$[ebp]
  0001d	64 a3 00 00 00
	00		 mov	 DWORD PTR fs:0, eax
  00023	8b f1		 mov	 esi, ecx

; 72   : 	if( m_pMainBlock) m_pMainBlock->Release();

  00025	8b 4e 14	 mov	 ecx, DWORD PTR [esi+20]
  00028	c7 06 00 00 00
	00		 mov	 DWORD PTR [esi], OFFSET ??_7CProperties_Manager@@6B@
  0002e	85 c9		 test	 ecx, ecx
  00030	74 06		 je	 SHORT $LN2@CPropertie
  00032	8b 01		 mov	 eax, DWORD PTR [ecx]
  00034	51		 push	 ecx
  00035	ff 50 08	 call	 DWORD PTR [eax+8]
$LN2@CPropertie:

; 73   : }

  00038	8d 4e 7c	 lea	 ecx, DWORD PTR [esi+124]
  0003b	ff 15 00 00 00
	00		 call	 DWORD PTR __imp_??1?$CStringT@DV?$StrTraitMFC_DLL@DV?$ChTraitsCRT@D@ATL@@@@@ATL@@QAE@XZ
  00041	8d 4e 18	 lea	 ecx, DWORD PTR [esi+24]
  00044	e8 00 00 00 00	 call	 ??1CPropertiesData_text@@UAE@XZ ; CPropertiesData_text::~CPropertiesData_text
  00049	8d 4e 04	 lea	 ecx, DWORD PTR [esi+4]
  0004c	ff 15 00 00 00
	00		 call	 DWORD PTR __imp_??1?$CStringT@DV?$StrTraitMFC_DLL@DV?$ChTraitsCRT@D@ATL@@@@@ATL@@QAE@XZ
  00052	8b 4d f4	 mov	 ecx, DWORD PTR __$EHRec$[ebp]
  00055	64 89 0d 00 00
	00 00		 mov	 DWORD PTR fs:0, ecx
  0005c	59		 pop	 ecx
  0005d	5e		 pop	 esi
  0005e	8b e5		 mov	 esp, ebp
  00060	5d		 pop	 ebp
  00061	c3		 ret	 0
  00062	cc		 int	 3
  00063	cc		 int	 3
  00064	cc		 int	 3
  00065	cc		 int	 3
  00066	cc		 int	 3
_TEXT	ENDS
;	COMDAT text$x
text$x	SEGMENT
__ehhandler$??1CProperties_Manager@@UAE@XZ:
  00000	90		 npad	 1
  00001	90		 npad	 1
  00002	8b 54 24 08	 mov	 edx, DWORD PTR [esp+8]
  00006	8d 42 0c	 lea	 eax, DWORD PTR [edx+12]
  00009	8b 4a f8	 mov	 ecx, DWORD PTR [edx-8]
  0000c	33 c8		 xor	 ecx, eax
  0000e	e8 00 00 00 00	 call	 @__security_check_cookie@4
  00013	b8 00 00 00 00	 mov	 eax, OFFSET __ehfuncinfo$??1CProperties_Manager@@UAE@XZ
  00018	e9 00 00 00 00	 jmp	 ___CxxFrameHandler3
text$x	ENDS
??1CProperties_Manager@@UAE@XZ ENDP			; CProperties_Manager::~CProperties_Manager
; Function compile flags: /Ogtp
; File D:\git\src\IBK\IBK_DRFN\ProjSrc\SrcChartEx\ChartAddIn\ChartAnalysisToolAddIn\Symbol\Properties_Manager.cpp
; File D:\git\src\IBK\IBK_DRFN\ProjSrc\SrcChartEx\ChartAddIn\ChartAnalysisToolAddIn\Include_Chart\BlockBaseData.h
; File D:\git\src\IBK\IBK_DRFN\ProjSrc\SrcChartEx\ChartAddIn\ChartAnalysisToolAddIn\Symbol\Properties_Manager.cpp
; File D:\git\src\IBK\IBK_DRFN\ProjSrc\SrcChartEx\ChartAddIn\ChartAnalysisToolAddIn\Include_Chart\BlockBaseData.h
; File D:\git\src\IBK\IBK_DRFN\ProjSrc\SrcChartEx\ChartAddIn\ChartAnalysisToolAddIn\Symbol\Properties_Manager.cpp
;	COMDAT ??0CProperties_Manager@@QAE@PAVCDrawingSymbol@@PAVCPropertiesData_text@@PAUIChartManager133101@@ABV?$CStringT@DV?$StrTraitMFC_DLL@DV?$ChTraitsCRT@D@ATL@@@@@ATL@@ABW4HORZSCALEDRAWERTYPE@CScaleBaseData@@PAUHWND__@@ABVCBlockIndex@@3@Z
_TEXT	SEGMENT
_this$ = -16						; size = 4
__$EHRec$ = -12						; size = 12
$T2 = 8							; size = 4
_pDrawingSymbol$ = 8					; size = 4
_pProperties$ = 12					; size = 4
_pMainBlock$ = 16					; size = 4
_strUserPath$ = 20					; size = 4
_nDataPeriod$ = 24					; size = 4
_p_hOcxWnd$ = 28					; size = 4
_blockIndex$ = 32					; size = 4
_strFormatX$ = 36					; size = 4
??0CProperties_Manager@@QAE@PAVCDrawingSymbol@@PAVCPropertiesData_text@@PAUIChartManager133101@@ABV?$CStringT@DV?$StrTraitMFC_DLL@DV?$ChTraitsCRT@D@ATL@@@@@ATL@@ABW4HORZSCALEDRAWERTYPE@CScaleBaseData@@PAUHWND__@@ABVCBlockIndex@@3@Z PROC ; CProperties_Manager::CProperties_Manager, COMDAT
; _this$ = ecx

; 44   : {

  00000	55		 push	 ebp
  00001	8b ec		 mov	 ebp, esp
  00003	6a ff		 push	 -1
  00005	68 00 00 00 00	 push	 __ehhandler$??0CProperties_Manager@@QAE@PAVCDrawingSymbol@@PAVCPropertiesData_text@@PAUIChartManager133101@@ABV?$CStringT@DV?$StrTraitMFC_DLL@DV?$ChTraitsCRT@D@ATL@@@@@ATL@@ABW4HORZSCALEDRAWERTYPE@CScaleBaseData@@PAUHWND__@@ABVCBlockIndex@@3@Z
  0000a	64 a1 00 00 00
	00		 mov	 eax, DWORD PTR fs:0
  00010	50		 push	 eax
  00011	51		 push	 ecx
  00012	53		 push	 ebx
  00013	56		 push	 esi
  00014	57		 push	 edi
  00015	a1 00 00 00 00	 mov	 eax, DWORD PTR ___security_cookie
  0001a	33 c5		 xor	 eax, ebp
  0001c	50		 push	 eax
  0001d	8d 45 f4	 lea	 eax, DWORD PTR __$EHRec$[ebp]
  00020	64 a3 00 00 00
	00		 mov	 DWORD PTR fs:0, eax
  00026	8b f9		 mov	 edi, ecx
  00028	89 7d f0	 mov	 DWORD PTR _this$[ebp], edi
  0002b	8d 4f 04	 lea	 ecx, DWORD PTR [edi+4]
  0002e	c7 07 00 00 00
	00		 mov	 DWORD PTR [edi], OFFSET ??_7CProperties_Manager@@6B@
  00034	ff 15 00 00 00
	00		 call	 DWORD PTR __imp_??0?$CStringT@DV?$StrTraitMFC_DLL@DV?$ChTraitsCRT@D@ATL@@@@@ATL@@QAE@XZ
  0003a	8d 4f 18	 lea	 ecx, DWORD PTR [edi+24]
  0003d	c7 45 fc 00 00
	00 00		 mov	 DWORD PTR __$EHRec$[ebp+8], 0
  00044	e8 00 00 00 00	 call	 ??0CPropertiesData_text@@QAE@XZ ; CPropertiesData_text::CPropertiesData_text
  00049	8d 4f 7c	 lea	 ecx, DWORD PTR [edi+124]
; File D:\git\src\IBK\IBK_DRFN\ProjSrc\SrcChartEx\ChartAddIn\ChartAnalysisToolAddIn\Include_Chart\BlockBaseData.h

; 19   : 	CBlockIndex() { m_nRow = m_nColumn = -1; };

  0004c	c7 47 78 ff ff
	ff ff		 mov	 DWORD PTR [edi+120], -1
  00053	c7 47 74 ff ff
	ff ff		 mov	 DWORD PTR [edi+116], -1
; File D:\git\src\IBK\IBK_DRFN\ProjSrc\SrcChartEx\ChartAddIn\ChartAnalysisToolAddIn\Symbol\Properties_Manager.cpp

; 44   : {

  0005a	ff 15 00 00 00
	00		 call	 DWORD PTR __imp_??0?$CStringT@DV?$StrTraitMFC_DLL@DV?$ChTraitsCRT@D@ATL@@@@@ATL@@QAE@XZ

; 45   : 	m_pDrawingSymbol = pDrawingSymbol;

  00060	8b 45 08	 mov	 eax, DWORD PTR _pDrawingSymbol$[ebp]

; 46   : 	m_pProperties = pProperties;
; 47   : 	m_nDataPeriod = nDataPeriod;
; 48   : 	m_strUserPath = strUserPath;

  00063	8d 4f 04	 lea	 ecx, DWORD PTR [edi+4]
  00066	ff 75 14	 push	 DWORD PTR _strUserPath$[ebp]
  00069	89 47 0c	 mov	 DWORD PTR [edi+12], eax
  0006c	8b 45 0c	 mov	 eax, DWORD PTR _pProperties$[ebp]
  0006f	89 47 10	 mov	 DWORD PTR [edi+16], eax
  00072	8b 45 18	 mov	 eax, DWORD PTR _nDataPeriod$[ebp]
  00075	c6 45 fc 02	 mov	 BYTE PTR __$EHRec$[ebp+8], 2
  00079	8b 00		 mov	 eax, DWORD PTR [eax]
  0007b	89 47 08	 mov	 DWORD PTR [edi+8], eax
  0007e	ff 15 00 00 00
	00		 call	 DWORD PTR __imp_??4?$CStringT@DV?$StrTraitMFC_DLL@DV?$ChTraitsCRT@D@ATL@@@@@ATL@@QAEAAV01@ABV01@@Z

; 49   : 	
; 50   : 	m_pMainBlock = pMainBlock;

  00084	8b 4d 10	 mov	 ecx, DWORD PTR _pMainBlock$[ebp]
  00087	89 4f 14	 mov	 DWORD PTR [edi+20], ecx

; 51   : 	if( m_pMainBlock) m_pMainBlock->AddRef();

  0008a	85 c9		 test	 ecx, ecx
  0008c	74 06		 je	 SHORT $LN2@CPropertie
  0008e	8b 01		 mov	 eax, DWORD PTR [ecx]
  00090	51		 push	 ecx
  00091	ff 50 04	 call	 DWORD PTR [eax+4]
$LN2@CPropertie:

; 52   : 
; 53   : 	m_ModifyProperties.SetFillState(pProperties->GetFillState());

  00094	8b 4d 0c	 mov	 ecx, DWORD PTR _pProperties$[ebp]
  00097	e8 00 00 00 00	 call	 ?GetFillState@CPropertiesData_Figure@@QAE_NXZ ; CPropertiesData_Figure::GetFillState
  0009c	0f b6 c0	 movzx	 eax, al
  0009f	8d 4f 18	 lea	 ecx, DWORD PTR [edi+24]
  000a2	50		 push	 eax
  000a3	e8 00 00 00 00	 call	 ?SetFillState@CPropertiesData_Figure@@QAEX_N@Z ; CPropertiesData_Figure::SetFillState

; 54   : 	m_ModifyProperties.SetColor(pProperties->GetColor());

  000a8	8b 4d 0c	 mov	 ecx, DWORD PTR _pProperties$[ebp]
  000ab	e8 00 00 00 00	 call	 ?GetColor@CPropertiesData_Figure@@QAEKXZ ; CPropertiesData_Figure::GetColor
  000b0	89 45 08	 mov	 DWORD PTR $T2[ebp], eax
  000b3	8d 4f 18	 lea	 ecx, DWORD PTR [edi+24]
  000b6	8d 45 08	 lea	 eax, DWORD PTR $T2[ebp]
  000b9	50		 push	 eax
  000ba	e8 00 00 00 00	 call	 ?SetColor@CPropertiesData_Figure@@QAEXABK@Z ; CPropertiesData_Figure::SetColor

; 55   : 	m_ModifyProperties.SetLogFont(pProperties->GetLogFont());

  000bf	8b 4d 0c	 mov	 ecx, DWORD PTR _pProperties$[ebp]
  000c2	e8 00 00 00 00	 call	 ?GetLogFont@CPropertiesData_Symbol@@QAEAAUtagLOGFONTA@@XZ ; CPropertiesData_Symbol::GetLogFont
  000c7	50		 push	 eax
  000c8	8d 4f 18	 lea	 ecx, DWORD PTR [edi+24]
  000cb	e8 00 00 00 00	 call	 ?SetLogFont@CPropertiesData_Symbol@@QAEXABUtagLOGFONTA@@@Z ; CPropertiesData_Symbol::SetLogFont

; 56   : 	m_ModifyProperties.SetSizeType(pProperties->GetSizeType());

  000d0	8b 4d 0c	 mov	 ecx, DWORD PTR _pProperties$[ebp]
  000d3	e8 00 00 00 00	 call	 ?GetSizeType@CPropertiesData_Symbol@@QBE?AW4SIZETYPE@CSymbolBaseData@@XZ ; CPropertiesData_Symbol::GetSizeType
  000d8	50		 push	 eax
  000d9	8d 4f 18	 lea	 ecx, DWORD PTR [edi+24]
  000dc	e8 00 00 00 00	 call	 ?SetSizeType@CPropertiesData_Symbol@@QAEXW4SIZETYPE@CSymbolBaseData@@@Z ; CPropertiesData_Symbol::SetSizeType

; 57   : 
; 58   : 	m_hOcxWnd = p_hOcxWnd;

  000e1	8b 45 1c	 mov	 eax, DWORD PTR _p_hOcxWnd$[ebp]
  000e4	89 87 80 00 00
	00		 mov	 DWORD PTR [edi+128], eax
; File D:\git\src\IBK\IBK_DRFN\ProjSrc\SrcChartEx\ChartAddIn\ChartAnalysisToolAddIn\Include_Chart\BlockBaseData.h

; 32   : 	bool IsAllValueBiggerThanZero() const { return (m_nRow >= 0 && m_nColumn >= 0); };

  000ea	8b 45 20	 mov	 eax, DWORD PTR _blockIndex$[ebp]
  000ed	8b 08		 mov	 ecx, DWORD PTR [eax]
  000ef	85 c9		 test	 ecx, ecx
  000f1	78 0f		 js	 SHORT $LN3@CPropertie
  000f3	83 78 04 00	 cmp	 DWORD PTR [eax+4], 0
  000f7	7c 09		 jl	 SHORT $LN3@CPropertie
; File D:\git\src\IBK\IBK_DRFN\ProjSrc\SrcChartEx\ChartAddIn\ChartAnalysisToolAddIn\Symbol\Properties_Manager.cpp

; 64   : 		m_blockIndex.SetColumn(blockIndex.GetColumn());

  000f9	89 4f 74	 mov	 DWORD PTR [edi+116], ecx
  000fc	8b 40 04	 mov	 eax, DWORD PTR [eax+4]
  000ff	89 47 78	 mov	 DWORD PTR [edi+120], eax
$LN3@CPropertie:

; 65   : 	}
; 66   : 	m_strFormatX	= strFormatX;

  00102	ff 75 24	 push	 DWORD PTR _strFormatX$[ebp]
  00105	8d 4f 7c	 lea	 ecx, DWORD PTR [edi+124]
  00108	ff 15 00 00 00
	00		 call	 DWORD PTR __imp_??4?$CStringT@DV?$StrTraitMFC_DLL@DV?$ChTraitsCRT@D@ATL@@@@@ATL@@QAEAAV01@ABV01@@Z

; 67   : 	// 2011.02.08 by SYS <<
; 68   : }

  0010e	8b c7		 mov	 eax, edi
  00110	8b 4d f4	 mov	 ecx, DWORD PTR __$EHRec$[ebp]
  00113	64 89 0d 00 00
	00 00		 mov	 DWORD PTR fs:0, ecx
  0011a	59		 pop	 ecx
  0011b	5f		 pop	 edi
  0011c	5e		 pop	 esi
  0011d	5b		 pop	 ebx
  0011e	8b e5		 mov	 esp, ebp
  00120	5d		 pop	 ebp
  00121	c2 20 00	 ret	 32			; 00000020H
_TEXT	ENDS
;	COMDAT text$x
text$x	SEGMENT
__unwindfunclet$??0CProperties_Manager@@QAE@PAVCDrawingSymbol@@PAVCPropertiesData_text@@PAUIChartManager133101@@ABV?$CStringT@DV?$StrTraitMFC_DLL@DV?$ChTraitsCRT@D@ATL@@@@@ATL@@ABW4HORZSCALEDRAWERTYPE@CScaleBaseData@@PAUHWND__@@ABVCBlockIndex@@3@Z$0:
  00000	8b 4d f0	 mov	 ecx, DWORD PTR _this$[ebp]
  00003	83 c1 04	 add	 ecx, 4
  00006	ff 25 00 00 00
	00		 jmp	 DWORD PTR __imp_??1?$CStringT@DV?$StrTraitMFC_DLL@DV?$ChTraitsCRT@D@ATL@@@@@ATL@@QAE@XZ
__unwindfunclet$??0CProperties_Manager@@QAE@PAVCDrawingSymbol@@PAVCPropertiesData_text@@PAUIChartManager133101@@ABV?$CStringT@DV?$StrTraitMFC_DLL@DV?$ChTraitsCRT@D@ATL@@@@@ATL@@ABW4HORZSCALEDRAWERTYPE@CScaleBaseData@@PAUHWND__@@ABVCBlockIndex@@3@Z$1:
  0000c	8b 4d f0	 mov	 ecx, DWORD PTR _this$[ebp]
  0000f	83 c1 18	 add	 ecx, 24			; 00000018H
  00012	e9 00 00 00 00	 jmp	 ??1CPropertiesData_text@@UAE@XZ ; CPropertiesData_text::~CPropertiesData_text
__unwindfunclet$??0CProperties_Manager@@QAE@PAVCDrawingSymbol@@PAVCPropertiesData_text@@PAUIChartManager133101@@ABV?$CStringT@DV?$StrTraitMFC_DLL@DV?$ChTraitsCRT@D@ATL@@@@@ATL@@ABW4HORZSCALEDRAWERTYPE@CScaleBaseData@@PAUHWND__@@ABVCBlockIndex@@3@Z$2:
  00017	8b 4d f0	 mov	 ecx, DWORD PTR _this$[ebp]
  0001a	83 c1 7c	 add	 ecx, 124		; 0000007cH
  0001d	ff 25 00 00 00
	00		 jmp	 DWORD PTR __imp_??1?$CStringT@DV?$StrTraitMFC_DLL@DV?$ChTraitsCRT@D@ATL@@@@@ATL@@QAE@XZ
  00023	cc		 int	 3
  00024	cc		 int	 3
  00025	cc		 int	 3
  00026	cc		 int	 3
  00027	cc		 int	 3
__ehhandler$??0CProperties_Manager@@QAE@PAVCDrawingSymbol@@PAVCPropertiesData_text@@PAUIChartManager133101@@ABV?$CStringT@DV?$StrTraitMFC_DLL@DV?$ChTraitsCRT@D@ATL@@@@@ATL@@ABW4HORZSCALEDRAWERTYPE@CScaleBaseData@@PAUHWND__@@ABVCBlockIndex@@3@Z:
  00028	90		 npad	 1
  00029	90		 npad	 1
  0002a	8b 54 24 08	 mov	 edx, DWORD PTR [esp+8]
  0002e	8d 42 0c	 lea	 eax, DWORD PTR [edx+12]
  00031	8b 4a ec	 mov	 ecx, DWORD PTR [edx-20]
  00034	33 c8		 xor	 ecx, eax
  00036	e8 00 00 00 00	 call	 @__security_check_cookie@4
  0003b	b8 00 00 00 00	 mov	 eax, OFFSET __ehfuncinfo$??0CProperties_Manager@@QAE@PAVCDrawingSymbol@@PAVCPropertiesData_text@@PAUIChartManager133101@@ABV?$CStringT@DV?$StrTraitMFC_DLL@DV?$ChTraitsCRT@D@ATL@@@@@ATL@@ABW4HORZSCALEDRAWERTYPE@CScaleBaseData@@PAUHWND__@@ABVCBlockIndex@@3@Z
  00040	e9 00 00 00 00	 jmp	 ___CxxFrameHandler3
text$x	ENDS
??0CProperties_Manager@@QAE@PAVCDrawingSymbol@@PAVCPropertiesData_text@@PAUIChartManager133101@@ABV?$CStringT@DV?$StrTraitMFC_DLL@DV?$ChTraitsCRT@D@ATL@@@@@ATL@@ABW4HORZSCALEDRAWERTYPE@CScaleBaseData@@PAUHWND__@@ABVCBlockIndex@@3@Z ENDP ; CProperties_Manager::CProperties_Manager
; Function compile flags: /Ogtp
; File C:\Program Files (x86)\Microsoft Visual Studio\2019\Community\VC\Tools\MSVC\14.29.30133\atlmfc\include\afxwin1.inl
; File C:\Program Files (x86)\Microsoft Visual Studio\2019\Community\VC\Tools\MSVC\14.29.30133\atlmfc\include\afx.inl
;	COMDAT ??_GCBitmap@@UAEPAXI@Z
_TEXT	SEGMENT
___flags$ = 8						; size = 4
??_GCBitmap@@UAEPAXI@Z PROC				; CBitmap::`scalar deleting destructor', COMDAT
; _this$ = ecx
  00000	55		 push	 ebp
  00001	8b ec		 mov	 ebp, esp
; File C:\Program Files (x86)\Microsoft Visual Studio\2019\Community\VC\Tools\MSVC\14.29.30133\atlmfc\include\afxwin1.inl

; 179  : 	{ }

  00003	56		 push	 esi
  00004	8b f1		 mov	 esi, ecx
  00006	c7 06 00 00 00
	00		 mov	 DWORD PTR [esi], OFFSET ??_7CBitmap@@6B@
  0000c	e8 00 00 00 00	 call	 ??1CGdiObject@@UAE@XZ	; CGdiObject::~CGdiObject
  00011	8b 45 08	 mov	 eax, DWORD PTR ___flags$[ebp]
  00014	a8 01		 test	 al, 1
  00016	74 1f		 je	 SHORT $LN12@scalar
  00018	a8 04		 test	 al, 4
  0001a	75 10		 jne	 SHORT $LN3@scalar
; File C:\Program Files (x86)\Microsoft Visual Studio\2019\Community\VC\Tools\MSVC\14.29.30133\atlmfc\include\afx.inl

; 112  : 	{ ::operator delete(p); }

  0001c	56		 push	 esi
  0001d	e8 00 00 00 00	 call	 ??3@YAXPAX@Z		; operator delete
  00022	83 c4 04	 add	 esp, 4
  00025	8b c6		 mov	 eax, esi
  00027	5e		 pop	 esi
  00028	5d		 pop	 ebp
  00029	c2 04 00	 ret	 4
$LN3@scalar:
  0002c	6a 08		 push	 8
  0002e	56		 push	 esi
  0002f	e8 00 00 00 00	 call	 ?__global_delete@@YAXPAXI@Z ; __global_delete
  00034	83 c4 08	 add	 esp, 8
$LN12@scalar:
  00037	8b c6		 mov	 eax, esi
  00039	5e		 pop	 esi
  0003a	5d		 pop	 ebp
  0003b	c2 04 00	 ret	 4
??_GCBitmap@@UAEPAXI@Z ENDP				; CBitmap::`scalar deleting destructor'
_TEXT	ENDS
; Function compile flags: /Ogtp
; File C:\Program Files (x86)\Microsoft Visual Studio\2019\Community\VC\Tools\MSVC\14.29.30133\atlmfc\include\afxwin1.inl
;	COMDAT ??1CBitmap@@UAE@XZ
_TEXT	SEGMENT
??1CBitmap@@UAE@XZ PROC					; CBitmap::~CBitmap, COMDAT
; _this$ = ecx

; 179  : 	{ }

  00000	c7 01 00 00 00
	00		 mov	 DWORD PTR [ecx], OFFSET ??_7CBitmap@@6B@
  00006	e9 00 00 00 00	 jmp	 ??1CGdiObject@@UAE@XZ	; CGdiObject::~CGdiObject
??1CBitmap@@UAE@XZ ENDP					; CBitmap::~CBitmap
_TEXT	ENDS
; Function compile flags: /Ogtp
; File C:\Program Files (x86)\Microsoft Visual Studio\2019\Community\VC\Tools\MSVC\14.29.30133\atlmfc\include\afx.inl
;	COMDAT ??_GCGdiObject@@UAEPAXI@Z
_TEXT	SEGMENT
___flags$ = 8						; size = 4
??_GCGdiObject@@UAEPAXI@Z PROC				; CGdiObject::`scalar deleting destructor', COMDAT
; _this$ = ecx
  00000	55		 push	 ebp
  00001	8b ec		 mov	 ebp, esp
  00003	56		 push	 esi
  00004	8b f1		 mov	 esi, ecx
  00006	e8 00 00 00 00	 call	 ??1CGdiObject@@UAE@XZ	; CGdiObject::~CGdiObject
  0000b	8b 45 08	 mov	 eax, DWORD PTR ___flags$[ebp]
  0000e	a8 01		 test	 al, 1
  00010	74 1f		 je	 SHORT $LN9@scalar
  00012	a8 04		 test	 al, 4
  00014	75 10		 jne	 SHORT $LN3@scalar

; 112  : 	{ ::operator delete(p); }

  00016	56		 push	 esi
  00017	e8 00 00 00 00	 call	 ??3@YAXPAX@Z		; operator delete
  0001c	83 c4 04	 add	 esp, 4
  0001f	8b c6		 mov	 eax, esi
  00021	5e		 pop	 esi
  00022	5d		 pop	 ebp
  00023	c2 04 00	 ret	 4
$LN3@scalar:
  00026	6a 08		 push	 8
  00028	56		 push	 esi
  00029	e8 00 00 00 00	 call	 ?__global_delete@@YAXPAXI@Z ; __global_delete
  0002e	83 c4 08	 add	 esp, 8
$LN9@scalar:
  00031	8b c6		 mov	 eax, esi
  00033	5e		 pop	 esi
  00034	5d		 pop	 ebp
  00035	c2 04 00	 ret	 4
??_GCGdiObject@@UAEPAXI@Z ENDP				; CGdiObject::`scalar deleting destructor'
_TEXT	ENDS
; Function compile flags: /Ogtp
; File C:\Program Files (x86)\Microsoft Visual Studio\2019\Community\VC\Tools\MSVC\14.29.30133\atlmfc\include\afxwin1.inl
;	COMDAT ??1CGdiObject@@UAE@XZ
_TEXT	SEGMENT
_pException$2 = -540					; size = 4
_strMsg$3 = -536					; size = 4
_szErrorMessage$4 = -532				; size = 512
__$ArrayPad$ = -20					; size = 4
__$EHRec$ = -16						; size = 16
??1CGdiObject@@UAE@XZ PROC				; CGdiObject::~CGdiObject, COMDAT
; _this$ = ecx

; 74   : {

  00000	55		 push	 ebp
  00001	8b ec		 mov	 ebp, esp
  00003	6a ff		 push	 -1
  00005	68 00 00 00 00	 push	 __ehhandler$??1CGdiObject@@UAE@XZ
  0000a	64 a1 00 00 00
	00		 mov	 eax, DWORD PTR fs:0
  00010	50		 push	 eax
  00011	81 ec 10 02 00
	00		 sub	 esp, 528		; 00000210H
  00017	a1 00 00 00 00	 mov	 eax, DWORD PTR ___security_cookie
  0001c	33 c5		 xor	 eax, ebp
  0001e	89 45 ec	 mov	 DWORD PTR __$ArrayPad$[ebp], eax
  00021	53		 push	 ebx
  00022	56		 push	 esi
  00023	57		 push	 edi
  00024	50		 push	 eax
  00025	8d 45 f4	 lea	 eax, DWORD PTR __$EHRec$[ebp+4]
  00028	64 a3 00 00 00
	00		 mov	 DWORD PTR fs:0, eax
  0002e	89 65 f0	 mov	 DWORD PTR __$EHRec$[ebp], esp
  00031	c7 01 00 00 00
	00		 mov	 DWORD PTR [ecx], OFFSET ??_7CGdiObject@@6B@

; 75   : 	AFX_BEGIN_DESTRUCTOR

  00037	c7 45 fc 00 00
	00 00		 mov	 DWORD PTR __$EHRec$[ebp+12], 0

; 76   : 	DeleteObject();

  0003e	e8 00 00 00 00	 call	 ?DeleteObject@CGdiObject@@QAEHXZ ; CGdiObject::DeleteObject
$LN18@CGdiObject:

; 78   : }

  00043	8b 4d f4	 mov	 ecx, DWORD PTR __$EHRec$[ebp+4]
  00046	64 89 0d 00 00
	00 00		 mov	 DWORD PTR fs:0, ecx
  0004d	59		 pop	 ecx
  0004e	5f		 pop	 edi
  0004f	5e		 pop	 esi
  00050	5b		 pop	 ebx
  00051	8b 4d ec	 mov	 ecx, DWORD PTR __$ArrayPad$[ebp]
  00054	33 cd		 xor	 ecx, ebp
  00056	e8 00 00 00 00	 call	 @__security_check_cookie@4
  0005b	8b e5		 mov	 esp, ebp
  0005d	5d		 pop	 ebp
  0005e	c3		 ret	 0
__catch$??1CGdiObject@@UAE@XZ$0:

; 77   : 	AFX_END_DESTRUCTOR

  0005f	8d 8d e8 fd ff
	ff		 lea	 ecx, DWORD PTR _strMsg$3[ebp]
  00065	ff 15 00 00 00
	00		 call	 DWORD PTR __imp_??0?$CStringT@DV?$StrTraitMFC_DLL@DV?$ChTraitsCRT@D@ATL@@@@@ATL@@QAE@XZ
  0006b	8b b5 e4 fd ff
	ff		 mov	 esi, DWORD PTR _pException$2[ebp]
  00071	8d 8d ec fd ff
	ff		 lea	 ecx, DWORD PTR _szErrorMessage$4[ebp]
  00077	6a 00		 push	 0
  00079	68 00 02 00 00	 push	 512			; 00000200H
  0007e	51		 push	 ecx
  0007f	8b 06		 mov	 eax, DWORD PTR [esi]
  00081	8b ce		 mov	 ecx, esi
  00083	c6 45 fc 02	 mov	 BYTE PTR __$EHRec$[ebp+12], 2
  00087	ff 50 14	 call	 DWORD PTR [eax+20]
  0008a	85 c0		 test	 eax, eax
  0008c	74 2a		 je	 SHORT $LN9@CGdiObject
  0008e	8d 85 ec fd ff
	ff		 lea	 eax, DWORD PTR _szErrorMessage$4[ebp]
  00094	50		 push	 eax
  00095	6a 4d		 push	 77			; 0000004dH
  00097	68 00 00 00 00	 push	 OFFSET ??_C@_0HD@JJCHHHNK@C?3?2Program?5Files?5?$CIx86?$CJ?2Microsof@
  0009c	68 00 00 00 00	 push	 OFFSET ??_C@_0BP@OIEOKIDM@Exception?5thrown?5in?5destructor@
  000a1	8d 85 e8 fd ff
	ff		 lea	 eax, DWORD PTR _strMsg$3[ebp]
  000a7	68 00 00 00 00	 push	 OFFSET ??_C@_0BB@HBOOMJBF@?$CFTs?5?$CI?$CFTs?3?$CFd?$CJ?6?$CFTs@
  000ac	50		 push	 eax
  000ad	ff 15 00 00 00
	00		 call	 DWORD PTR __imp_?Format@?$CStringT@DV?$StrTraitMFC_DLL@DV?$ChTraitsCRT@D@ATL@@@@@ATL@@QAAXPBDZZ
  000b3	83 c4 18	 add	 esp, 24			; 00000018H
  000b6	eb 21		 jmp	 SHORT $LN10@CGdiObject
$LN9@CGdiObject:
  000b8	6a 4d		 push	 77			; 0000004dH
  000ba	68 00 00 00 00	 push	 OFFSET ??_C@_0HD@JJCHHHNK@C?3?2Program?5Files?5?$CIx86?$CJ?2Microsof@
  000bf	68 00 00 00 00	 push	 OFFSET ??_C@_0BP@OIEOKIDM@Exception?5thrown?5in?5destructor@
  000c4	8d 85 e8 fd ff
	ff		 lea	 eax, DWORD PTR _strMsg$3[ebp]
  000ca	68 00 00 00 00	 push	 OFFSET ??_C@_0N@OMEMOKLE@?$CFTs?5?$CI?$CFTs?3?$CFd?$CJ@
  000cf	50		 push	 eax
  000d0	ff 15 00 00 00
	00		 call	 DWORD PTR __imp_?Format@?$CStringT@DV?$StrTraitMFC_DLL@DV?$ChTraitsCRT@D@ATL@@@@@ATL@@QAAXPBDZZ
  000d6	83 c4 14	 add	 esp, 20			; 00000014H
$LN10@CGdiObject:
  000d9	6a 00		 push	 0
  000db	6a 00		 push	 0
  000dd	ff b5 e8 fd ff
	ff		 push	 DWORD PTR _strMsg$3[ebp]
  000e3	e8 00 00 00 00	 call	 ?AfxMessageBox@@YGHPBDII@Z ; AfxMessageBox
  000e8	8d 8d e8 fd ff
	ff		 lea	 ecx, DWORD PTR _strMsg$3[ebp]
  000ee	ff 15 00 00 00
	00		 call	 DWORD PTR __imp_??1?$CStringT@DV?$StrTraitMFC_DLL@DV?$ChTraitsCRT@D@ATL@@@@@ATL@@QAE@XZ
  000f4	8b 06		 mov	 eax, DWORD PTR [esi]
  000f6	8b ce		 mov	 ecx, esi
  000f8	6a 01		 push	 1
  000fa	ff 50 04	 call	 DWORD PTR [eax+4]
  000fd	b8 00 00 00 00	 mov	 eax, $LN18@CGdiObject
  00102	c3		 ret	 0
_TEXT	ENDS
;	COMDAT text$x
text$x	SEGMENT
__unwindfunclet$??1CGdiObject@@UAE@XZ$2:
  00000	8d 8d e8 fd ff
	ff		 lea	 ecx, DWORD PTR _strMsg$3[ebp]
  00006	ff 25 00 00 00
	00		 jmp	 DWORD PTR __imp_??1?$CStringT@DV?$StrTraitMFC_DLL@DV?$ChTraitsCRT@D@ATL@@@@@ATL@@QAE@XZ
  0000c	cc		 int	 3
  0000d	cc		 int	 3
  0000e	cc		 int	 3
  0000f	cc		 int	 3
  00010	cc		 int	 3
__ehhandler$??1CGdiObject@@UAE@XZ:
  00011	90		 npad	 1
  00012	90		 npad	 1
  00013	8b 54 24 08	 mov	 edx, DWORD PTR [esp+8]
  00017	8d 42 0c	 lea	 eax, DWORD PTR [edx+12]
  0001a	8b 8a e0 fd ff
	ff		 mov	 ecx, DWORD PTR [edx-544]
  00020	33 c8		 xor	 ecx, eax
  00022	e8 00 00 00 00	 call	 @__security_check_cookie@4
  00027	8b 4a f8	 mov	 ecx, DWORD PTR [edx-8]
  0002a	33 c8		 xor	 ecx, eax
  0002c	e8 00 00 00 00	 call	 @__security_check_cookie@4
  00031	b8 00 00 00 00	 mov	 eax, OFFSET __ehfuncinfo$??1CGdiObject@@UAE@XZ
  00036	e9 00 00 00 00	 jmp	 ___CxxFrameHandler3
text$x	ENDS
??1CGdiObject@@UAE@XZ ENDP				; CGdiObject::~CGdiObject
; Function compile flags: /Ogtp
; File C:\Program Files (x86)\Microsoft Visual Studio\2019\Community\VC\Tools\MSVC\14.29.30133\atlmfc\include\afx.inl
;	COMDAT ?Dump@CObject@@UBEXAAVCDumpContext@@@Z
_TEXT	SEGMENT
___formal$ = 8						; size = 4
?Dump@CObject@@UBEXAAVCDumpContext@@@Z PROC		; CObject::Dump, COMDAT
; _this$ = ecx

; 122  : 	{ /* no dumping in release builds */ }

  00000	c2 04 00	 ret	 4
?Dump@CObject@@UBEXAAVCDumpContext@@@Z ENDP		; CObject::Dump
_TEXT	ENDS
; Function compile flags: /Ogtp
; File C:\Program Files (x86)\Microsoft Visual Studio\2019\Community\VC\Tools\MSVC\14.29.30133\atlmfc\include\afx.inl
;	COMDAT ?AssertValid@CObject@@UBEXXZ
_TEXT	SEGMENT
?AssertValid@CObject@@UBEXXZ PROC			; CObject::AssertValid, COMDAT
; _this$ = ecx

; 120  : 	{ /* no asserts in release builds */ }

  00000	c2 00 00	 ret	 0
?AssertValid@CObject@@UBEXXZ ENDP			; CObject::AssertValid
_TEXT	ENDS
; Function compile flags: /Ogtp
; File C:\Program Files (x86)\Microsoft Visual Studio\2019\Community\VC\Tools\MSVC\14.29.30133\atlmfc\include\afx.inl
;	COMDAT ?Serialize@CObject@@UAEXAAVCArchive@@@Z
_TEXT	SEGMENT
___formal$ = 8						; size = 4
?Serialize@CObject@@UAEXAAVCArchive@@@Z PROC		; CObject::Serialize, COMDAT
; _this$ = ecx

; 106  : 	{ /* CObject does not serialize anything by default */ }

  00000	c2 04 00	 ret	 4
?Serialize@CObject@@UAEXAAVCArchive@@@Z ENDP		; CObject::Serialize
_TEXT	ENDS
; Function compile flags: /Ogtp
; File C:\Program Files (x86)\Microsoft Visual Studio\2019\Community\VC\Tools\MSVC\14.29.30133\atlmfc\include\afx.inl
;	COMDAT ??1CObject@@UAE@XZ
_TEXT	SEGMENT
??1CObject@@UAE@XZ PROC					; CObject::~CObject, COMDAT
; _this$ = ecx

; 104  : 	{ }

  00000	c2 00 00	 ret	 0
??1CObject@@UAE@XZ ENDP					; CObject::~CObject
_TEXT	ENDS
; Function compile flags: /Ogtp
; File D:\git\src\IBK\IBK_DRFN\ProjSrc\SrcChartEx\ChartAddIn\ChartAnalysisToolAddIn\Symbol\Properties_Manager.cpp
;	COMDAT ?__empty_global_delete@@YAXPAXI@Z
_TEXT	SEGMENT
___formal$ = 8						; size = 4
___formal$ = 12						; size = 4
?__empty_global_delete@@YAXPAXI@Z PROC			; __empty_global_delete, COMDAT

  00000	c2 00 00	 ret	 0
?__empty_global_delete@@YAXPAXI@Z ENDP			; __empty_global_delete
_TEXT	ENDS
; Function compile flags: /Ogtp
; File D:\git\src\IBK\IBK_DRFN\ProjSrc\SrcChartEx\ChartAddIn\ChartAnalysisToolAddIn\Symbol\Properties_Manager.cpp
;	COMDAT ?__empty_global_delete@@YAXPAX@Z
_TEXT	SEGMENT
___formal$ = 8						; size = 4
?__empty_global_delete@@YAXPAX@Z PROC			; __empty_global_delete, COMDAT

  00000	c2 00 00	 ret	 0
?__empty_global_delete@@YAXPAX@Z ENDP			; __empty_global_delete
_TEXT	ENDS
END
