; Listing generated by Microsoft (R) Optimizing Compiler Version 19.29.30145.0 

	TITLE	D:\git\src\IBK\IBK_DRFN\#DRfn-CS\_Obj\Symbol\PropertiesData_text.obj
	.686P
	.XMM
	include listing.inc
	.model	flat

INCLUDELIB MSVCRT
INCLUDELIB OLDNAMES

PUBLIC	?__empty_global_delete@@YAXPAX@Z		; __empty_global_delete
PUBLIC	?__empty_global_delete@@YAXPAXI@Z		; __empty_global_delete
PUBLIC	??0CPropertiesData_Figure@@QAE@XZ		; CPropertiesData_Figure::CPropertiesData_Figure
PUBLIC	??1CPropertiesData_Figure@@UAE@XZ		; CPropertiesData_Figure::~CPropertiesData_Figure
PUBLIC	?GetColor@CPropertiesData_Figure@@QAEKXZ	; CPropertiesData_Figure::GetColor
PUBLIC	?SetColor@CPropertiesData_Figure@@QAEXABK@Z	; CPropertiesData_Figure::SetColor
PUBLIC	?GetStyle@CPropertiesData_Figure@@QAEHXZ	; CPropertiesData_Figure::GetStyle
PUBLIC	?SetStyle@CPropertiesData_Figure@@QAEXABH@Z	; CPropertiesData_Figure::SetStyle
PUBLIC	?GetWeight@CPropertiesData_Figure@@QAEHXZ	; CPropertiesData_Figure::GetWeight
PUBLIC	?SetWeight@CPropertiesData_Figure@@QAEXABH@Z	; CPropertiesData_Figure::SetWeight
PUBLIC	?GetFillState@CPropertiesData_Figure@@QAE_NXZ	; CPropertiesData_Figure::GetFillState
PUBLIC	?SetFillState@CPropertiesData_Figure@@QAEX_N@Z	; CPropertiesData_Figure::SetFillState
PUBLIC	??_GCPropertiesData_Figure@@UAEPAXI@Z		; CPropertiesData_Figure::`scalar deleting destructor'
PUBLIC	??0CPropertiesData_Symbol@@QAE@XZ		; CPropertiesData_Symbol::CPropertiesData_Symbol
PUBLIC	??1CPropertiesData_Symbol@@UAE@XZ		; CPropertiesData_Symbol::~CPropertiesData_Symbol
PUBLIC	?GetLogFont@CPropertiesData_Symbol@@QBE?AUtagLOGFONTA@@XZ ; CPropertiesData_Symbol::GetLogFont
PUBLIC	?GetLogFont@CPropertiesData_Symbol@@QAEAAUtagLOGFONTA@@XZ ; CPropertiesData_Symbol::GetLogFont
PUBLIC	?GetTextColor@CPropertiesData_Symbol@@QBEKXZ	; CPropertiesData_Symbol::GetTextColor
PUBLIC	?GetSizeType@CPropertiesData_Symbol@@QBE?AW4SIZETYPE@CSymbolBaseData@@XZ ; CPropertiesData_Symbol::GetSizeType
PUBLIC	?SetLogFont@CPropertiesData_Symbol@@QAEXABUtagLOGFONTA@@@Z ; CPropertiesData_Symbol::SetLogFont
PUBLIC	?SetTextColor@CPropertiesData_Symbol@@QAEXABK@Z	; CPropertiesData_Symbol::SetTextColor
PUBLIC	?SetSizeType@CPropertiesData_Symbol@@QAEXW4SIZETYPE@CSymbolBaseData@@@Z ; CPropertiesData_Symbol::SetSizeType
PUBLIC	??_GCPropertiesData_Symbol@@UAEPAXI@Z		; CPropertiesData_Symbol::`scalar deleting destructor'
PUBLIC	??0CPropertiesData_text@@QAE@XZ			; CPropertiesData_text::CPropertiesData_text
PUBLIC	??1CPropertiesData_text@@UAE@XZ			; CPropertiesData_text::~CPropertiesData_text
PUBLIC	?SetText@CPropertiesData_text@@QAEXABV?$CStringT@DV?$StrTraitMFC_DLL@DV?$ChTraitsCRT@D@ATL@@@@@ATL@@@Z ; CPropertiesData_text::SetText
PUBLIC	?GetText@CPropertiesData_text@@QAE?AV?$CStringT@DV?$StrTraitMFC_DLL@DV?$ChTraitsCRT@D@ATL@@@@@ATL@@XZ ; CPropertiesData_text::GetText
PUBLIC	??_GCPropertiesData_text@@UAEPAXI@Z		; CPropertiesData_text::`scalar deleting destructor'
PUBLIC	??_C@_00CNPNBAHC@@				; `string'
PUBLIC	??_7CPropertiesData_Figure@@6B@			; CPropertiesData_Figure::`vftable'
PUBLIC	??_7CPropertiesData_Symbol@@6B@			; CPropertiesData_Symbol::`vftable'
PUBLIC	??_7CPropertiesData_text@@6B@			; CPropertiesData_text::`vftable'
PUBLIC	??_C@_04FOGALLPG@?$LB?$LM?$LI?$LC@		; `string'
PUBLIC	??_R4CPropertiesData_Figure@@6B@		; CPropertiesData_Figure::`RTTI Complete Object Locator'
PUBLIC	??_R0?AVCPropertiesData_Figure@@@8		; CPropertiesData_Figure `RTTI Type Descriptor'
PUBLIC	??_R3CPropertiesData_Figure@@8			; CPropertiesData_Figure::`RTTI Class Hierarchy Descriptor'
PUBLIC	??_R2CPropertiesData_Figure@@8			; CPropertiesData_Figure::`RTTI Base Class Array'
PUBLIC	??_R1A@?0A@EA@CPropertiesData_Figure@@8		; CPropertiesData_Figure::`RTTI Base Class Descriptor at (0,-1,0,64)'
PUBLIC	??_R4CPropertiesData_Symbol@@6B@		; CPropertiesData_Symbol::`RTTI Complete Object Locator'
PUBLIC	??_R0?AVCPropertiesData_Symbol@@@8		; CPropertiesData_Symbol `RTTI Type Descriptor'
PUBLIC	??_R3CPropertiesData_Symbol@@8			; CPropertiesData_Symbol::`RTTI Class Hierarchy Descriptor'
PUBLIC	??_R2CPropertiesData_Symbol@@8			; CPropertiesData_Symbol::`RTTI Base Class Array'
PUBLIC	??_R1A@?0A@EA@CPropertiesData_Symbol@@8		; CPropertiesData_Symbol::`RTTI Base Class Descriptor at (0,-1,0,64)'
PUBLIC	??_R4CPropertiesData_text@@6B@			; CPropertiesData_text::`RTTI Complete Object Locator'
PUBLIC	??_R0?AVCPropertiesData_text@@@8		; CPropertiesData_text `RTTI Type Descriptor'
PUBLIC	??_R3CPropertiesData_text@@8			; CPropertiesData_text::`RTTI Class Hierarchy Descriptor'
PUBLIC	??_R2CPropertiesData_text@@8			; CPropertiesData_text::`RTTI Base Class Array'
PUBLIC	??_R1A@?0A@EA@CPropertiesData_text@@8		; CPropertiesData_text::`RTTI Base Class Descriptor at (0,-1,0,64)'
EXTRN	??3@YAXPAXI@Z:PROC				; operator delete
EXTRN	__imp__lstrcpyA@8:PROC
EXTRN	__imp_??0?$CStringT@DV?$StrTraitMFC_DLL@DV?$ChTraitsCRT@D@ATL@@@@@ATL@@QAE@XZ:PROC
EXTRN	__imp_??0?$CStringT@DV?$StrTraitMFC_DLL@DV?$ChTraitsCRT@D@ATL@@@@@ATL@@QAE@ABV01@@Z:PROC
EXTRN	__imp_??1?$CStringT@DV?$StrTraitMFC_DLL@DV?$ChTraitsCRT@D@ATL@@@@@ATL@@QAE@XZ:PROC
EXTRN	__imp_??4?$CStringT@DV?$StrTraitMFC_DLL@DV?$ChTraitsCRT@D@ATL@@@@@ATL@@QAEAAV01@ABV01@@Z:PROC
EXTRN	__imp_??4?$CStringT@DV?$StrTraitMFC_DLL@DV?$ChTraitsCRT@D@ATL@@@@@ATL@@QAEAAV01@PBD@Z:PROC
EXTRN	??_ECPropertiesData_Figure@@UAEPAXI@Z:PROC	; CPropertiesData_Figure::`vector deleting destructor'
EXTRN	??_ECPropertiesData_Symbol@@UAEPAXI@Z:PROC	; CPropertiesData_Symbol::`vector deleting destructor'
EXTRN	??_ECPropertiesData_text@@UAEPAXI@Z:PROC	; CPropertiesData_text::`vector deleting destructor'
EXTRN	@__security_check_cookie@4:PROC
EXTRN	___CxxFrameHandler3:PROC
EXTRN	_memset:PROC
EXTRN	??_7type_info@@6B@:QWORD			; type_info::`vftable'
EXTRN	___security_cookie:DWORD
;	COMDAT ??_R1A@?0A@EA@CPropertiesData_text@@8
rdata$r	SEGMENT
??_R1A@?0A@EA@CPropertiesData_text@@8 DD FLAT:??_R0?AVCPropertiesData_text@@@8 ; CPropertiesData_text::`RTTI Base Class Descriptor at (0,-1,0,64)'
	DD	02H
	DD	00H
	DD	0ffffffffH
	DD	00H
	DD	040H
	DD	FLAT:??_R3CPropertiesData_text@@8
rdata$r	ENDS
;	COMDAT ??_R2CPropertiesData_text@@8
rdata$r	SEGMENT
??_R2CPropertiesData_text@@8 DD FLAT:??_R1A@?0A@EA@CPropertiesData_text@@8 ; CPropertiesData_text::`RTTI Base Class Array'
	DD	FLAT:??_R1A@?0A@EA@CPropertiesData_Symbol@@8
	DD	FLAT:??_R1A@?0A@EA@CPropertiesData_Figure@@8
rdata$r	ENDS
;	COMDAT ??_R3CPropertiesData_text@@8
rdata$r	SEGMENT
??_R3CPropertiesData_text@@8 DD 00H			; CPropertiesData_text::`RTTI Class Hierarchy Descriptor'
	DD	00H
	DD	03H
	DD	FLAT:??_R2CPropertiesData_text@@8
rdata$r	ENDS
;	COMDAT ??_R0?AVCPropertiesData_text@@@8
data$rs	SEGMENT
??_R0?AVCPropertiesData_text@@@8 DD FLAT:??_7type_info@@6B@ ; CPropertiesData_text `RTTI Type Descriptor'
	DD	00H
	DB	'.?AVCPropertiesData_text@@', 00H
data$rs	ENDS
;	COMDAT ??_R4CPropertiesData_text@@6B@
rdata$r	SEGMENT
??_R4CPropertiesData_text@@6B@ DD 00H			; CPropertiesData_text::`RTTI Complete Object Locator'
	DD	00H
	DD	00H
	DD	FLAT:??_R0?AVCPropertiesData_text@@@8
	DD	FLAT:??_R3CPropertiesData_text@@8
rdata$r	ENDS
;	COMDAT ??_R1A@?0A@EA@CPropertiesData_Symbol@@8
rdata$r	SEGMENT
??_R1A@?0A@EA@CPropertiesData_Symbol@@8 DD FLAT:??_R0?AVCPropertiesData_Symbol@@@8 ; CPropertiesData_Symbol::`RTTI Base Class Descriptor at (0,-1,0,64)'
	DD	01H
	DD	00H
	DD	0ffffffffH
	DD	00H
	DD	040H
	DD	FLAT:??_R3CPropertiesData_Symbol@@8
rdata$r	ENDS
;	COMDAT ??_R2CPropertiesData_Symbol@@8
rdata$r	SEGMENT
??_R2CPropertiesData_Symbol@@8 DD FLAT:??_R1A@?0A@EA@CPropertiesData_Symbol@@8 ; CPropertiesData_Symbol::`RTTI Base Class Array'
	DD	FLAT:??_R1A@?0A@EA@CPropertiesData_Figure@@8
rdata$r	ENDS
;	COMDAT ??_R3CPropertiesData_Symbol@@8
rdata$r	SEGMENT
??_R3CPropertiesData_Symbol@@8 DD 00H			; CPropertiesData_Symbol::`RTTI Class Hierarchy Descriptor'
	DD	00H
	DD	02H
	DD	FLAT:??_R2CPropertiesData_Symbol@@8
rdata$r	ENDS
;	COMDAT ??_R0?AVCPropertiesData_Symbol@@@8
data$rs	SEGMENT
??_R0?AVCPropertiesData_Symbol@@@8 DD FLAT:??_7type_info@@6B@ ; CPropertiesData_Symbol `RTTI Type Descriptor'
	DD	00H
	DB	'.?AVCPropertiesData_Symbol@@', 00H
data$rs	ENDS
;	COMDAT ??_R4CPropertiesData_Symbol@@6B@
rdata$r	SEGMENT
??_R4CPropertiesData_Symbol@@6B@ DD 00H			; CPropertiesData_Symbol::`RTTI Complete Object Locator'
	DD	00H
	DD	00H
	DD	FLAT:??_R0?AVCPropertiesData_Symbol@@@8
	DD	FLAT:??_R3CPropertiesData_Symbol@@8
rdata$r	ENDS
;	COMDAT ??_R1A@?0A@EA@CPropertiesData_Figure@@8
rdata$r	SEGMENT
??_R1A@?0A@EA@CPropertiesData_Figure@@8 DD FLAT:??_R0?AVCPropertiesData_Figure@@@8 ; CPropertiesData_Figure::`RTTI Base Class Descriptor at (0,-1,0,64)'
	DD	00H
	DD	00H
	DD	0ffffffffH
	DD	00H
	DD	040H
	DD	FLAT:??_R3CPropertiesData_Figure@@8
rdata$r	ENDS
;	COMDAT ??_R2CPropertiesData_Figure@@8
rdata$r	SEGMENT
??_R2CPropertiesData_Figure@@8 DD FLAT:??_R1A@?0A@EA@CPropertiesData_Figure@@8 ; CPropertiesData_Figure::`RTTI Base Class Array'
rdata$r	ENDS
;	COMDAT ??_R3CPropertiesData_Figure@@8
rdata$r	SEGMENT
??_R3CPropertiesData_Figure@@8 DD 00H			; CPropertiesData_Figure::`RTTI Class Hierarchy Descriptor'
	DD	00H
	DD	01H
	DD	FLAT:??_R2CPropertiesData_Figure@@8
rdata$r	ENDS
;	COMDAT ??_R0?AVCPropertiesData_Figure@@@8
data$rs	SEGMENT
??_R0?AVCPropertiesData_Figure@@@8 DD FLAT:??_7type_info@@6B@ ; CPropertiesData_Figure `RTTI Type Descriptor'
	DD	00H
	DB	'.?AVCPropertiesData_Figure@@', 00H
data$rs	ENDS
;	COMDAT ??_R4CPropertiesData_Figure@@6B@
rdata$r	SEGMENT
??_R4CPropertiesData_Figure@@6B@ DD 00H			; CPropertiesData_Figure::`RTTI Complete Object Locator'
	DD	00H
	DD	00H
	DD	FLAT:??_R0?AVCPropertiesData_Figure@@@8
	DD	FLAT:??_R3CPropertiesData_Figure@@8
rdata$r	ENDS
;	COMDAT ??_C@_04FOGALLPG@?$LB?$LM?$LI?$LC@
CONST	SEGMENT
??_C@_04FOGALLPG@?$LB?$LM?$LI?$LC@ DB 0b1H, 0bcH, 0b8H, 0b2H, 00H ; `string'
CONST	ENDS
;	COMDAT ??_7CPropertiesData_text@@6B@
CONST	SEGMENT
??_7CPropertiesData_text@@6B@ DD FLAT:??_R4CPropertiesData_text@@6B@ ; CPropertiesData_text::`vftable'
	DD	FLAT:??_ECPropertiesData_text@@UAEPAXI@Z
CONST	ENDS
;	COMDAT ??_7CPropertiesData_Symbol@@6B@
CONST	SEGMENT
??_7CPropertiesData_Symbol@@6B@ DD FLAT:??_R4CPropertiesData_Symbol@@6B@ ; CPropertiesData_Symbol::`vftable'
	DD	FLAT:??_ECPropertiesData_Symbol@@UAEPAXI@Z
CONST	ENDS
;	COMDAT ??_7CPropertiesData_Figure@@6B@
CONST	SEGMENT
??_7CPropertiesData_Figure@@6B@ DD FLAT:??_R4CPropertiesData_Figure@@6B@ ; CPropertiesData_Figure::`vftable'
	DD	FLAT:??_ECPropertiesData_Figure@@UAEPAXI@Z
CONST	ENDS
;	COMDAT ??_C@_00CNPNBAHC@@
CONST	SEGMENT
??_C@_00CNPNBAHC@@ DB 00H				; `string'
CONST	ENDS
;	COMDAT xdata$x
xdata$x	SEGMENT
__unwindtable$??0CPropertiesData_text@@QAE@XZ DD 0ffffffffH
	DD	FLAT:__unwindfunclet$??0CPropertiesData_text@@QAE@XZ$0
	DD	00H
	DD	FLAT:__unwindfunclet$??0CPropertiesData_text@@QAE@XZ$1
__ehfuncinfo$??0CPropertiesData_text@@QAE@XZ DD 019930522H
	DD	02H
	DD	FLAT:__unwindtable$??0CPropertiesData_text@@QAE@XZ
	DD	2 DUP(00H)
	DD	2 DUP(00H)
	DD	00H
	DD	01H
xdata$x	ENDS
; Function compile flags: /Ogtp
; File D:\git\src\IBK\IBK_DRFN\ProjSrc\SrcChartEx\ChartAddIn\ChartAnalysisToolAddIn\Symbol\PropertiesData_text.cpp
;	COMDAT ??_GCPropertiesData_text@@UAEPAXI@Z
_TEXT	SEGMENT
___flags$ = 8						; size = 4
??_GCPropertiesData_text@@UAEPAXI@Z PROC		; CPropertiesData_text::`scalar deleting destructor', COMDAT
; _this$ = ecx
  00000	55		 push	 ebp
  00001	8b ec		 mov	 ebp, esp

; 144  : {

  00003	56		 push	 esi
  00004	8b f1		 mov	 esi, ecx

; 145  : 
; 146  : }

  00006	8d 4e 58	 lea	 ecx, DWORD PTR [esi+88]
  00009	c7 06 00 00 00
	00		 mov	 DWORD PTR [esi], OFFSET ??_7CPropertiesData_text@@6B@
  0000f	ff 15 00 00 00
	00		 call	 DWORD PTR __imp_??1?$CStringT@DV?$StrTraitMFC_DLL@DV?$ChTraitsCRT@D@ATL@@@@@ATL@@QAE@XZ
  00015	f6 45 08 01	 test	 BYTE PTR ___flags$[ebp], 1
  00019	c7 06 00 00 00
	00		 mov	 DWORD PTR [esi], OFFSET ??_7CPropertiesData_Figure@@6B@
  0001f	74 0b		 je	 SHORT $LN7@scalar
  00021	6a 5c		 push	 92			; 0000005cH
  00023	56		 push	 esi
  00024	e8 00 00 00 00	 call	 ??3@YAXPAXI@Z		; operator delete
  00029	83 c4 08	 add	 esp, 8
$LN7@scalar:
  0002c	8b c6		 mov	 eax, esi
  0002e	5e		 pop	 esi
  0002f	5d		 pop	 ebp
  00030	c2 04 00	 ret	 4
??_GCPropertiesData_text@@UAEPAXI@Z ENDP		; CPropertiesData_text::`scalar deleting destructor'
_TEXT	ENDS
; Function compile flags: /Ogtp
; File D:\git\src\IBK\IBK_DRFN\ProjSrc\SrcChartEx\ChartAddIn\ChartAnalysisToolAddIn\Symbol\PropertiesData_text.cpp
;	COMDAT ?GetText@CPropertiesData_text@@QAE?AV?$CStringT@DV?$StrTraitMFC_DLL@DV?$ChTraitsCRT@D@ATL@@@@@ATL@@XZ
_TEXT	SEGMENT
___$ReturnUdt$ = 8					; size = 4
?GetText@CPropertiesData_text@@QAE?AV?$CStringT@DV?$StrTraitMFC_DLL@DV?$ChTraitsCRT@D@ATL@@@@@ATL@@XZ PROC ; CPropertiesData_text::GetText, COMDAT
; _this$ = ecx

; 154  : {

  00000	55		 push	 ebp
  00001	8b ec		 mov	 ebp, esp

; 155  : 	return m_text;

  00003	8d 41 58	 lea	 eax, DWORD PTR [ecx+88]
  00006	8b 4d 08	 mov	 ecx, DWORD PTR ___$ReturnUdt$[ebp]
  00009	50		 push	 eax
  0000a	ff 15 00 00 00
	00		 call	 DWORD PTR __imp_??0?$CStringT@DV?$StrTraitMFC_DLL@DV?$ChTraitsCRT@D@ATL@@@@@ATL@@QAE@ABV01@@Z
  00010	8b 45 08	 mov	 eax, DWORD PTR ___$ReturnUdt$[ebp]

; 156  : }

  00013	5d		 pop	 ebp
  00014	c2 04 00	 ret	 4
?GetText@CPropertiesData_text@@QAE?AV?$CStringT@DV?$StrTraitMFC_DLL@DV?$ChTraitsCRT@D@ATL@@@@@ATL@@XZ ENDP ; CPropertiesData_text::GetText
_TEXT	ENDS
; Function compile flags: /Ogtp
; File D:\git\src\IBK\IBK_DRFN\ProjSrc\SrcChartEx\ChartAddIn\ChartAnalysisToolAddIn\Symbol\PropertiesData_text.cpp
;	COMDAT ?SetText@CPropertiesData_text@@QAEXABV?$CStringT@DV?$StrTraitMFC_DLL@DV?$ChTraitsCRT@D@ATL@@@@@ATL@@@Z
_TEXT	SEGMENT
_text$ = 8						; size = 4
?SetText@CPropertiesData_text@@QAEXABV?$CStringT@DV?$StrTraitMFC_DLL@DV?$ChTraitsCRT@D@ATL@@@@@ATL@@@Z PROC ; CPropertiesData_text::SetText, COMDAT
; _this$ = ecx

; 149  : {

  00000	55		 push	 ebp
  00001	8b ec		 mov	 ebp, esp

; 150  : 	m_text = text;

  00003	83 c1 58	 add	 ecx, 88			; 00000058H

; 151  : }

  00006	5d		 pop	 ebp

; 150  : 	m_text = text;

  00007	ff 25 00 00 00
	00		 jmp	 DWORD PTR __imp_??4?$CStringT@DV?$StrTraitMFC_DLL@DV?$ChTraitsCRT@D@ATL@@@@@ATL@@QAEAAV01@ABV01@@Z
?SetText@CPropertiesData_text@@QAEXABV?$CStringT@DV?$StrTraitMFC_DLL@DV?$ChTraitsCRT@D@ATL@@@@@ATL@@@Z ENDP ; CPropertiesData_text::SetText
_TEXT	ENDS
; Function compile flags: /Ogtp
; File D:\git\src\IBK\IBK_DRFN\ProjSrc\SrcChartEx\ChartAddIn\ChartAnalysisToolAddIn\Symbol\PropertiesData_text.cpp
;	COMDAT ??1CPropertiesData_text@@UAE@XZ
_TEXT	SEGMENT
??1CPropertiesData_text@@UAE@XZ PROC			; CPropertiesData_text::~CPropertiesData_text, COMDAT
; _this$ = ecx

; 144  : {

  00000	56		 push	 esi
  00001	8b f1		 mov	 esi, ecx

; 145  : 
; 146  : }

  00003	8d 4e 58	 lea	 ecx, DWORD PTR [esi+88]
  00006	c7 06 00 00 00
	00		 mov	 DWORD PTR [esi], OFFSET ??_7CPropertiesData_text@@6B@
  0000c	ff 15 00 00 00
	00		 call	 DWORD PTR __imp_??1?$CStringT@DV?$StrTraitMFC_DLL@DV?$ChTraitsCRT@D@ATL@@@@@ATL@@QAE@XZ
  00012	c7 06 00 00 00
	00		 mov	 DWORD PTR [esi], OFFSET ??_7CPropertiesData_Figure@@6B@
  00018	5e		 pop	 esi
  00019	c3		 ret	 0
??1CPropertiesData_text@@UAE@XZ ENDP			; CPropertiesData_text::~CPropertiesData_text
_TEXT	ENDS
; Function compile flags: /Ogtp
; File D:\git\src\IBK\IBK_DRFN\ProjSrc\SrcChartEx\ChartAddIn\ChartAnalysisToolAddIn\Symbol\PropertiesData_text.cpp
;	COMDAT ??0CPropertiesData_text@@QAE@XZ
_TEXT	SEGMENT
_this$ = -16						; size = 4
__$EHRec$ = -12						; size = 12
??0CPropertiesData_text@@QAE@XZ PROC			; CPropertiesData_text::CPropertiesData_text, COMDAT
; _this$ = ecx

; 139  : {

  00000	55		 push	 ebp
  00001	8b ec		 mov	 ebp, esp
  00003	6a ff		 push	 -1
  00005	68 00 00 00 00	 push	 __ehhandler$??0CPropertiesData_text@@QAE@XZ
  0000a	64 a1 00 00 00
	00		 mov	 eax, DWORD PTR fs:0
  00010	50		 push	 eax
  00011	51		 push	 ecx
  00012	56		 push	 esi
  00013	57		 push	 edi
  00014	a1 00 00 00 00	 mov	 eax, DWORD PTR ___security_cookie
  00019	33 c5		 xor	 eax, ebp
  0001b	50		 push	 eax
  0001c	8d 45 f4	 lea	 eax, DWORD PTR __$EHRec$[ebp]
  0001f	64 a3 00 00 00
	00		 mov	 DWORD PTR fs:0, eax
  00025	8b f9		 mov	 edi, ecx
  00027	89 7d f0	 mov	 DWORD PTR _this$[ebp], edi

; 70   : 	memset(&m_logfont, 0, sizeof(LOGFONT));       // zero out structure

  0002a	6a 3c		 push	 60			; 0000003cH
  0002c	8d 77 14	 lea	 esi, DWORD PTR [edi+20]

; 21   : 	SetColor(RGB(255,255,0));

  0002f	c7 47 0c ff ff
	00 00		 mov	 DWORD PTR [edi+12], 65535 ; 0000ffffH

; 70   : 	memset(&m_logfont, 0, sizeof(LOGFONT));       // zero out structure

  00036	6a 00		 push	 0
  00038	56		 push	 esi

; 22   : 	SetStyle(PS_SOLID);

  00039	c7 47 04 00 00
	00 00		 mov	 DWORD PTR [edi+4], 0

; 23   : 	SetWeight(0);

  00040	c7 47 08 00 00
	00 00		 mov	 DWORD PTR [edi+8], 0

; 24   : 	m_bFill = true;

  00047	c6 47 10 01	 mov	 BYTE PTR [edi+16], 1

; 68   : {

  0004b	c7 07 00 00 00
	00		 mov	 DWORD PTR [edi], OFFSET ??_7CPropertiesData_Symbol@@6B@

; 69   : 	///////////////
; 70   : 	memset(&m_logfont, 0, sizeof(LOGFONT));       // zero out structure

  00051	e8 00 00 00 00	 call	 _memset
  00056	83 c4 0c	 add	 esp, 12			; 0000000cH

; 71   : 	lstrcpy(m_logfont.lfFaceName, "±¼¸²"); //"±¼¸²"

  00059	8d 47 30	 lea	 eax, DWORD PTR [edi+48]
  0005c	68 00 00 00 00	 push	 OFFSET ??_C@_04FOGALLPG@?$LB?$LM?$LI?$LC@
  00061	50		 push	 eax
  00062	ff 15 00 00 00
	00		 call	 DWORD PTR __imp__lstrcpyA@8

; 72   : 	//m_logfont.lfWidth = 7;
; 73   : 	//m_logfont.lfHeight = 16;
; 74   : 	m_logfont.lfWidth = 10;

  00068	c7 47 18 0a 00
	00 00		 mov	 DWORD PTR [edi+24], 10	; 0000000aH

; 75   : 	m_logfont.lfHeight = 20;

  0006f	c7 06 14 00 00
	00		 mov	 DWORD PTR [esi], 20	; 00000014H

; 76   : 	m_logfont.lfWeight = FW_BOLD;

  00075	c7 47 24 bc 02
	00 00		 mov	 DWORD PTR [edi+36], 700	; 000002bcH

; 77   : 	m_logfont.lfItalic = FALSE;

  0007c	c7 47 28 00 00
	00 81		 mov	 DWORD PTR [edi+40], -2130706432 ; 81000000H

; 78   : 	m_logfont.lfUnderline = FALSE;
; 79   : 	m_logfont.lfStrikeOut = FALSE;
; 80   : 
; 81   : 	m_logfont.lfPitchAndFamily = FIXED_PITCH;
; 82   : 	m_logfont.lfQuality = DEFAULT_QUALITY;
; 83   : 	m_logfont.lfCharSet = HANGUL_CHARSET;
; 84   : 	m_logfont.lfOutPrecision = OUT_DEFAULT_PRECIS;

  00083	c7 47 2c 00 00
	00 01		 mov	 DWORD PTR [edi+44], 16777216 ; 01000000H

; 85   : 	m_logfont.lfClipPrecision = CLIP_DEFAULT_PRECIS;
; 86   : 	/////////////////
; 87   : 
; 88   : 	m_textColor = RGB(0, 0, 0);

  0008a	c7 47 50 00 00
	00 00		 mov	 DWORD PTR [edi+80], 0

; 89   : 	m_eSizeType = CSymbolBaseData::Small;

  00091	c7 47 54 00 00
	00 00		 mov	 DWORD PTR [edi+84], 0

; 139  : {

  00098	8d 4f 58	 lea	 ecx, DWORD PTR [edi+88]
  0009b	c7 45 fc 00 00
	00 00		 mov	 DWORD PTR __$EHRec$[ebp+8], 0
  000a2	c7 07 00 00 00
	00		 mov	 DWORD PTR [edi], OFFSET ??_7CPropertiesData_text@@6B@
  000a8	ff 15 00 00 00
	00		 call	 DWORD PTR __imp_??0?$CStringT@DV?$StrTraitMFC_DLL@DV?$ChTraitsCRT@D@ATL@@@@@ATL@@QAE@XZ

; 140  : 	m_text = "";

  000ae	68 00 00 00 00	 push	 OFFSET ??_C@_00CNPNBAHC@@
  000b3	8d 4f 58	 lea	 ecx, DWORD PTR [edi+88]
  000b6	c6 45 fc 01	 mov	 BYTE PTR __$EHRec$[ebp+8], 1
  000ba	ff 15 00 00 00
	00		 call	 DWORD PTR __imp_??4?$CStringT@DV?$StrTraitMFC_DLL@DV?$ChTraitsCRT@D@ATL@@@@@ATL@@QAEAAV01@PBD@Z

; 141  : }

  000c0	8b c7		 mov	 eax, edi
  000c2	8b 4d f4	 mov	 ecx, DWORD PTR __$EHRec$[ebp]
  000c5	64 89 0d 00 00
	00 00		 mov	 DWORD PTR fs:0, ecx
  000cc	59		 pop	 ecx
  000cd	5f		 pop	 edi
  000ce	5e		 pop	 esi
  000cf	8b e5		 mov	 esp, ebp
  000d1	5d		 pop	 ebp
  000d2	c3		 ret	 0
_TEXT	ENDS
;	COMDAT text$x
text$x	SEGMENT
__unwindfunclet$??0CPropertiesData_text@@QAE@XZ$0:
  00000	8b 4d f0	 mov	 ecx, DWORD PTR _this$[ebp]
  00003	e9 00 00 00 00	 jmp	 ??1CPropertiesData_Symbol@@UAE@XZ ; CPropertiesData_Symbol::~CPropertiesData_Symbol
__unwindfunclet$??0CPropertiesData_text@@QAE@XZ$1:
  00008	8b 4d f0	 mov	 ecx, DWORD PTR _this$[ebp]
  0000b	83 c1 58	 add	 ecx, 88			; 00000058H
  0000e	ff 25 00 00 00
	00		 jmp	 DWORD PTR __imp_??1?$CStringT@DV?$StrTraitMFC_DLL@DV?$ChTraitsCRT@D@ATL@@@@@ATL@@QAE@XZ
  00014	cc		 int	 3
  00015	cc		 int	 3
  00016	cc		 int	 3
  00017	cc		 int	 3
  00018	cc		 int	 3
__ehhandler$??0CPropertiesData_text@@QAE@XZ:
  00019	90		 npad	 1
  0001a	90		 npad	 1
  0001b	8b 54 24 08	 mov	 edx, DWORD PTR [esp+8]
  0001f	8d 42 0c	 lea	 eax, DWORD PTR [edx+12]
  00022	8b 4a f0	 mov	 ecx, DWORD PTR [edx-16]
  00025	33 c8		 xor	 ecx, eax
  00027	e8 00 00 00 00	 call	 @__security_check_cookie@4
  0002c	b8 00 00 00 00	 mov	 eax, OFFSET __ehfuncinfo$??0CPropertiesData_text@@QAE@XZ
  00031	e9 00 00 00 00	 jmp	 ___CxxFrameHandler3
text$x	ENDS
??0CPropertiesData_text@@QAE@XZ ENDP			; CPropertiesData_text::CPropertiesData_text
; Function compile flags: /Ogtp
;	COMDAT ??_GCPropertiesData_Symbol@@UAEPAXI@Z
_TEXT	SEGMENT
___flags$ = 8						; size = 4
??_GCPropertiesData_Symbol@@UAEPAXI@Z PROC		; CPropertiesData_Symbol::`scalar deleting destructor', COMDAT
; _this$ = ecx
  00000	55		 push	 ebp
  00001	8b ec		 mov	 ebp, esp
  00003	f6 45 08 01	 test	 BYTE PTR ___flags$[ebp], 1
  00007	56		 push	 esi
  00008	8b f1		 mov	 esi, ecx
  0000a	c7 06 00 00 00
	00		 mov	 DWORD PTR [esi], OFFSET ??_7CPropertiesData_Figure@@6B@
  00010	74 0b		 je	 SHORT $LN4@scalar
  00012	6a 58		 push	 88			; 00000058H
  00014	56		 push	 esi
  00015	e8 00 00 00 00	 call	 ??3@YAXPAXI@Z		; operator delete
  0001a	83 c4 08	 add	 esp, 8
$LN4@scalar:
  0001d	8b c6		 mov	 eax, esi
  0001f	5e		 pop	 esi
  00020	5d		 pop	 ebp
  00021	c2 04 00	 ret	 4
??_GCPropertiesData_Symbol@@UAEPAXI@Z ENDP		; CPropertiesData_Symbol::`scalar deleting destructor'
_TEXT	ENDS
; Function compile flags: /Ogtp
; File D:\git\src\IBK\IBK_DRFN\ProjSrc\SrcChartEx\ChartAddIn\ChartAnalysisToolAddIn\Symbol\PropertiesData_text.cpp
;	COMDAT ?SetSizeType@CPropertiesData_Symbol@@QAEXW4SIZETYPE@CSymbolBaseData@@@Z
_TEXT	SEGMENT
_sizetype$ = 8						; size = 4
?SetSizeType@CPropertiesData_Symbol@@QAEXW4SIZETYPE@CSymbolBaseData@@@Z PROC ; CPropertiesData_Symbol::SetSizeType, COMDAT
; _this$ = ecx

; 128  : {

  00000	55		 push	 ebp
  00001	8b ec		 mov	 ebp, esp

; 129  : 	m_eSizeType = sizetype;

  00003	8b 45 08	 mov	 eax, DWORD PTR _sizetype$[ebp]
  00006	89 41 54	 mov	 DWORD PTR [ecx+84], eax

; 130  : }

  00009	5d		 pop	 ebp
  0000a	c2 04 00	 ret	 4
?SetSizeType@CPropertiesData_Symbol@@QAEXW4SIZETYPE@CSymbolBaseData@@@Z ENDP ; CPropertiesData_Symbol::SetSizeType
_TEXT	ENDS
; Function compile flags: /Ogtp
; File D:\git\src\IBK\IBK_DRFN\ProjSrc\SrcChartEx\ChartAddIn\ChartAnalysisToolAddIn\Symbol\PropertiesData_text.cpp
;	COMDAT ?SetTextColor@CPropertiesData_Symbol@@QAEXABK@Z
_TEXT	SEGMENT
_textColor$ = 8						; size = 4
?SetTextColor@CPropertiesData_Symbol@@QAEXABK@Z PROC	; CPropertiesData_Symbol::SetTextColor, COMDAT
; _this$ = ecx

; 123  : {

  00000	55		 push	 ebp
  00001	8b ec		 mov	 ebp, esp

; 124  : 	m_textColor = textColor;

  00003	8b 45 08	 mov	 eax, DWORD PTR _textColor$[ebp]
  00006	8b 00		 mov	 eax, DWORD PTR [eax]
  00008	89 41 50	 mov	 DWORD PTR [ecx+80], eax

; 125  : }

  0000b	5d		 pop	 ebp
  0000c	c2 04 00	 ret	 4
?SetTextColor@CPropertiesData_Symbol@@QAEXABK@Z ENDP	; CPropertiesData_Symbol::SetTextColor
_TEXT	ENDS
; Function compile flags: /Ogtp
; File D:\git\src\IBK\IBK_DRFN\ProjSrc\SrcChartEx\ChartAddIn\ChartAnalysisToolAddIn\Symbol\PropertiesData_text.cpp
;	COMDAT ?SetLogFont@CPropertiesData_Symbol@@QAEXABUtagLOGFONTA@@@Z
_TEXT	SEGMENT
_logfont$ = 8						; size = 4
?SetLogFont@CPropertiesData_Symbol@@QAEXABUtagLOGFONTA@@@Z PROC ; CPropertiesData_Symbol::SetLogFont, COMDAT
; _this$ = ecx

; 118  : {

  00000	55		 push	 ebp
  00001	8b ec		 mov	 ebp, esp

; 119  : 	m_logfont = logfont;

  00003	8b 45 08	 mov	 eax, DWORD PTR _logfont$[ebp]
  00006	0f 10 00	 movups	 xmm0, XMMWORD PTR [eax]
  00009	0f 11 41 14	 movups	 XMMWORD PTR [ecx+20], xmm0
  0000d	0f 10 40 10	 movups	 xmm0, XMMWORD PTR [eax+16]
  00011	0f 11 41 24	 movups	 XMMWORD PTR [ecx+36], xmm0
  00015	0f 10 40 20	 movups	 xmm0, XMMWORD PTR [eax+32]
  00019	0f 11 41 34	 movups	 XMMWORD PTR [ecx+52], xmm0
  0001d	f3 0f 7e 40 30	 movq	 xmm0, QWORD PTR [eax+48]
  00022	66 0f d6 41 44	 movq	 QWORD PTR [ecx+68], xmm0
  00027	8b 40 38	 mov	 eax, DWORD PTR [eax+56]
  0002a	89 41 4c	 mov	 DWORD PTR [ecx+76], eax

; 120  : }

  0002d	5d		 pop	 ebp
  0002e	c2 04 00	 ret	 4
?SetLogFont@CPropertiesData_Symbol@@QAEXABUtagLOGFONTA@@@Z ENDP ; CPropertiesData_Symbol::SetLogFont
_TEXT	ENDS
; Function compile flags: /Ogtp
; File D:\git\src\IBK\IBK_DRFN\ProjSrc\SrcChartEx\ChartAddIn\ChartAnalysisToolAddIn\Symbol\PropertiesData_text.cpp
;	COMDAT ?GetSizeType@CPropertiesData_Symbol@@QBE?AW4SIZETYPE@CSymbolBaseData@@XZ
_TEXT	SEGMENT
?GetSizeType@CPropertiesData_Symbol@@QBE?AW4SIZETYPE@CSymbolBaseData@@XZ PROC ; CPropertiesData_Symbol::GetSizeType, COMDAT
; _this$ = ecx

; 109  : 	return m_eSizeType;

  00000	8b 41 54	 mov	 eax, DWORD PTR [ecx+84]

; 110  : }

  00003	c3		 ret	 0
?GetSizeType@CPropertiesData_Symbol@@QBE?AW4SIZETYPE@CSymbolBaseData@@XZ ENDP ; CPropertiesData_Symbol::GetSizeType
_TEXT	ENDS
; Function compile flags: /Ogtp
; File D:\git\src\IBK\IBK_DRFN\ProjSrc\SrcChartEx\ChartAddIn\ChartAnalysisToolAddIn\Symbol\PropertiesData_text.cpp
;	COMDAT ?GetTextColor@CPropertiesData_Symbol@@QBEKXZ
_TEXT	SEGMENT
?GetTextColor@CPropertiesData_Symbol@@QBEKXZ PROC	; CPropertiesData_Symbol::GetTextColor, COMDAT
; _this$ = ecx

; 114  : 	return m_textColor;

  00000	8b 41 50	 mov	 eax, DWORD PTR [ecx+80]

; 115  : }

  00003	c3		 ret	 0
?GetTextColor@CPropertiesData_Symbol@@QBEKXZ ENDP	; CPropertiesData_Symbol::GetTextColor
_TEXT	ENDS
; Function compile flags: /Ogtp
; File D:\git\src\IBK\IBK_DRFN\ProjSrc\SrcChartEx\ChartAddIn\ChartAnalysisToolAddIn\Symbol\PropertiesData_text.cpp
;	COMDAT ?GetLogFont@CPropertiesData_Symbol@@QAEAAUtagLOGFONTA@@XZ
_TEXT	SEGMENT
?GetLogFont@CPropertiesData_Symbol@@QAEAAUtagLOGFONTA@@XZ PROC ; CPropertiesData_Symbol::GetLogFont, COMDAT
; _this$ = ecx

; 99   : 	return m_logfont;

  00000	8d 41 14	 lea	 eax, DWORD PTR [ecx+20]

; 100  : }

  00003	c3		 ret	 0
?GetLogFont@CPropertiesData_Symbol@@QAEAAUtagLOGFONTA@@XZ ENDP ; CPropertiesData_Symbol::GetLogFont
_TEXT	ENDS
; Function compile flags: /Ogtp
; File D:\git\src\IBK\IBK_DRFN\ProjSrc\SrcChartEx\ChartAddIn\ChartAnalysisToolAddIn\Symbol\PropertiesData_text.cpp
;	COMDAT ?GetLogFont@CPropertiesData_Symbol@@QBE?AUtagLOGFONTA@@XZ
_TEXT	SEGMENT
___$ReturnUdt$ = 8					; size = 4
?GetLogFont@CPropertiesData_Symbol@@QBE?AUtagLOGFONTA@@XZ PROC ; CPropertiesData_Symbol::GetLogFont, COMDAT
; _this$ = ecx

; 103  : {

  00000	55		 push	 ebp
  00001	8b ec		 mov	 ebp, esp

; 104  : 	return m_logfont;

  00003	8b 45 08	 mov	 eax, DWORD PTR ___$ReturnUdt$[ebp]
  00006	0f 10 41 14	 movups	 xmm0, XMMWORD PTR [ecx+20]
  0000a	0f 11 00	 movups	 XMMWORD PTR [eax], xmm0
  0000d	0f 10 41 24	 movups	 xmm0, XMMWORD PTR [ecx+36]
  00011	0f 11 40 10	 movups	 XMMWORD PTR [eax+16], xmm0
  00015	0f 10 41 34	 movups	 xmm0, XMMWORD PTR [ecx+52]
  00019	0f 11 40 20	 movups	 XMMWORD PTR [eax+32], xmm0
  0001d	f3 0f 7e 41 44	 movq	 xmm0, QWORD PTR [ecx+68]
  00022	8b 49 4c	 mov	 ecx, DWORD PTR [ecx+76]
  00025	66 0f d6 40 30	 movq	 QWORD PTR [eax+48], xmm0
  0002a	89 48 38	 mov	 DWORD PTR [eax+56], ecx

; 105  : }

  0002d	5d		 pop	 ebp
  0002e	c2 04 00	 ret	 4
?GetLogFont@CPropertiesData_Symbol@@QBE?AUtagLOGFONTA@@XZ ENDP ; CPropertiesData_Symbol::GetLogFont
_TEXT	ENDS
; Function compile flags: /Ogtp
; File D:\git\src\IBK\IBK_DRFN\ProjSrc\SrcChartEx\ChartAddIn\ChartAnalysisToolAddIn\Symbol\PropertiesData_text.cpp
;	COMDAT ??1CPropertiesData_Symbol@@UAE@XZ
_TEXT	SEGMENT
??1CPropertiesData_Symbol@@UAE@XZ PROC			; CPropertiesData_Symbol::~CPropertiesData_Symbol, COMDAT
; _this$ = ecx

; 94   : 
; 95   : }

  00000	c7 01 00 00 00
	00		 mov	 DWORD PTR [ecx], OFFSET ??_7CPropertiesData_Figure@@6B@
  00006	c3		 ret	 0
??1CPropertiesData_Symbol@@UAE@XZ ENDP			; CPropertiesData_Symbol::~CPropertiesData_Symbol
_TEXT	ENDS
; Function compile flags: /Ogtp
; File D:\git\src\IBK\IBK_DRFN\ProjSrc\SrcChartEx\ChartAddIn\ChartAnalysisToolAddIn\Symbol\PropertiesData_text.cpp
;	COMDAT ??0CPropertiesData_Symbol@@QAE@XZ
_TEXT	SEGMENT
_this$ = -4						; size = 4
??0CPropertiesData_Symbol@@QAE@XZ PROC			; CPropertiesData_Symbol::CPropertiesData_Symbol, COMDAT
; _this$ = ecx

; 68   : {

  00000	55		 push	 ebp
  00001	8b ec		 mov	 ebp, esp
  00003	51		 push	 ecx
  00004	56		 push	 esi
  00005	57		 push	 edi
  00006	8b f9		 mov	 edi, ecx

; 69   : 	///////////////
; 70   : 	memset(&m_logfont, 0, sizeof(LOGFONT));       // zero out structure

  00008	6a 3c		 push	 60			; 0000003cH
  0000a	6a 00		 push	 0
  0000c	89 7d fc	 mov	 DWORD PTR _this$[ebp], edi
  0000f	8d 77 14	 lea	 esi, DWORD PTR [edi+20]

; 21   : 	SetColor(RGB(255,255,0));

  00012	c7 47 0c ff ff
	00 00		 mov	 DWORD PTR [edi+12], 65535 ; 0000ffffH

; 69   : 	///////////////
; 70   : 	memset(&m_logfont, 0, sizeof(LOGFONT));       // zero out structure

  00019	56		 push	 esi

; 22   : 	SetStyle(PS_SOLID);

  0001a	c7 47 04 00 00
	00 00		 mov	 DWORD PTR [edi+4], 0

; 23   : 	SetWeight(0);

  00021	c7 47 08 00 00
	00 00		 mov	 DWORD PTR [edi+8], 0

; 24   : 	m_bFill = true;

  00028	c6 47 10 01	 mov	 BYTE PTR [edi+16], 1

; 68   : {

  0002c	c7 07 00 00 00
	00		 mov	 DWORD PTR [edi], OFFSET ??_7CPropertiesData_Symbol@@6B@

; 69   : 	///////////////
; 70   : 	memset(&m_logfont, 0, sizeof(LOGFONT));       // zero out structure

  00032	e8 00 00 00 00	 call	 _memset
  00037	83 c4 0c	 add	 esp, 12			; 0000000cH

; 71   : 	lstrcpy(m_logfont.lfFaceName, "±¼¸²"); //"±¼¸²"

  0003a	8d 47 30	 lea	 eax, DWORD PTR [edi+48]
  0003d	68 00 00 00 00	 push	 OFFSET ??_C@_04FOGALLPG@?$LB?$LM?$LI?$LC@
  00042	50		 push	 eax
  00043	ff 15 00 00 00
	00		 call	 DWORD PTR __imp__lstrcpyA@8

; 72   : 	//m_logfont.lfWidth = 7;
; 73   : 	//m_logfont.lfHeight = 16;
; 74   : 	m_logfont.lfWidth = 10;

  00049	c7 47 18 0a 00
	00 00		 mov	 DWORD PTR [edi+24], 10	; 0000000aH

; 75   : 	m_logfont.lfHeight = 20;
; 76   : 	m_logfont.lfWeight = FW_BOLD;
; 77   : 	m_logfont.lfItalic = FALSE;
; 78   : 	m_logfont.lfUnderline = FALSE;
; 79   : 	m_logfont.lfStrikeOut = FALSE;
; 80   : 
; 81   : 	m_logfont.lfPitchAndFamily = FIXED_PITCH;
; 82   : 	m_logfont.lfQuality = DEFAULT_QUALITY;
; 83   : 	m_logfont.lfCharSet = HANGUL_CHARSET;
; 84   : 	m_logfont.lfOutPrecision = OUT_DEFAULT_PRECIS;
; 85   : 	m_logfont.lfClipPrecision = CLIP_DEFAULT_PRECIS;
; 86   : 	/////////////////
; 87   : 
; 88   : 	m_textColor = RGB(0, 0, 0);
; 89   : 	m_eSizeType = CSymbolBaseData::Small;
; 90   : }

  00050	8b c7		 mov	 eax, edi
  00052	c7 47 24 bc 02
	00 00		 mov	 DWORD PTR [edi+36], 700	; 000002bcH
  00059	c7 47 28 00 00
	00 81		 mov	 DWORD PTR [edi+40], -2130706432 ; 81000000H
  00060	c7 47 2c 00 00
	00 01		 mov	 DWORD PTR [edi+44], 16777216 ; 01000000H
  00067	c7 47 50 00 00
	00 00		 mov	 DWORD PTR [edi+80], 0
  0006e	c7 47 54 00 00
	00 00		 mov	 DWORD PTR [edi+84], 0
  00075	5f		 pop	 edi
  00076	c7 06 14 00 00
	00		 mov	 DWORD PTR [esi], 20	; 00000014H
  0007c	5e		 pop	 esi
  0007d	8b e5		 mov	 esp, ebp
  0007f	5d		 pop	 ebp
  00080	c3		 ret	 0
??0CPropertiesData_Symbol@@QAE@XZ ENDP			; CPropertiesData_Symbol::CPropertiesData_Symbol
_TEXT	ENDS
; Function compile flags: /Ogtp
;	COMDAT ??_GCPropertiesData_Figure@@UAEPAXI@Z
_TEXT	SEGMENT
___flags$ = 8						; size = 4
??_GCPropertiesData_Figure@@UAEPAXI@Z PROC		; CPropertiesData_Figure::`scalar deleting destructor', COMDAT
; _this$ = ecx
  00000	55		 push	 ebp
  00001	8b ec		 mov	 ebp, esp
  00003	f6 45 08 01	 test	 BYTE PTR ___flags$[ebp], 1
  00007	56		 push	 esi
  00008	8b f1		 mov	 esi, ecx
  0000a	c7 06 00 00 00
	00		 mov	 DWORD PTR [esi], OFFSET ??_7CPropertiesData_Figure@@6B@
  00010	74 0b		 je	 SHORT $LN4@scalar
  00012	6a 14		 push	 20			; 00000014H
  00014	56		 push	 esi
  00015	e8 00 00 00 00	 call	 ??3@YAXPAXI@Z		; operator delete
  0001a	83 c4 08	 add	 esp, 8
$LN4@scalar:
  0001d	8b c6		 mov	 eax, esi
  0001f	5e		 pop	 esi
  00020	5d		 pop	 ebp
  00021	c2 04 00	 ret	 4
??_GCPropertiesData_Figure@@UAEPAXI@Z ENDP		; CPropertiesData_Figure::`scalar deleting destructor'
_TEXT	ENDS
; Function compile flags: /Ogtp
; File D:\git\src\IBK\IBK_DRFN\ProjSrc\SrcChartEx\ChartAddIn\ChartAnalysisToolAddIn\Symbol\PropertiesData_text.cpp
;	COMDAT ?SetFillState@CPropertiesData_Figure@@QAEX_N@Z
_TEXT	SEGMENT
_bFill$ = 8						; size = 1
?SetFillState@CPropertiesData_Figure@@QAEX_N@Z PROC	; CPropertiesData_Figure::SetFillState, COMDAT
; _this$ = ecx

; 159  : {

  00000	55		 push	 ebp
  00001	8b ec		 mov	 ebp, esp

; 160  : 	m_bFill = bFill;

  00003	8a 45 08	 mov	 al, BYTE PTR _bFill$[ebp]
  00006	88 41 10	 mov	 BYTE PTR [ecx+16], al

; 161  : }

  00009	5d		 pop	 ebp
  0000a	c2 04 00	 ret	 4
?SetFillState@CPropertiesData_Figure@@QAEX_N@Z ENDP	; CPropertiesData_Figure::SetFillState
_TEXT	ENDS
; Function compile flags: /Ogtp
; File D:\git\src\IBK\IBK_DRFN\ProjSrc\SrcChartEx\ChartAddIn\ChartAnalysisToolAddIn\Symbol\PropertiesData_text.cpp
;	COMDAT ?GetFillState@CPropertiesData_Figure@@QAE_NXZ
_TEXT	SEGMENT
?GetFillState@CPropertiesData_Figure@@QAE_NXZ PROC	; CPropertiesData_Figure::GetFillState, COMDAT
; _this$ = ecx

; 165  : 	return m_bFill;

  00000	8a 41 10	 mov	 al, BYTE PTR [ecx+16]

; 166  : }

  00003	c3		 ret	 0
?GetFillState@CPropertiesData_Figure@@QAE_NXZ ENDP	; CPropertiesData_Figure::GetFillState
_TEXT	ENDS
; Function compile flags: /Ogtp
; File D:\git\src\IBK\IBK_DRFN\ProjSrc\SrcChartEx\ChartAddIn\ChartAnalysisToolAddIn\Symbol\PropertiesData_text.cpp
;	COMDAT ?SetWeight@CPropertiesData_Figure@@QAEXABH@Z
_TEXT	SEGMENT
_weight$ = 8						; size = 4
?SetWeight@CPropertiesData_Figure@@QAEXABH@Z PROC	; CPropertiesData_Figure::SetWeight, COMDAT
; _this$ = ecx

; 58   : {

  00000	55		 push	 ebp
  00001	8b ec		 mov	 ebp, esp

; 59   : 	m_Weight = weight;

  00003	8b 45 08	 mov	 eax, DWORD PTR _weight$[ebp]
  00006	8b 00		 mov	 eax, DWORD PTR [eax]
  00008	89 41 08	 mov	 DWORD PTR [ecx+8], eax

; 60   : }

  0000b	5d		 pop	 ebp
  0000c	c2 04 00	 ret	 4
?SetWeight@CPropertiesData_Figure@@QAEXABH@Z ENDP	; CPropertiesData_Figure::SetWeight
_TEXT	ENDS
; Function compile flags: /Ogtp
; File D:\git\src\IBK\IBK_DRFN\ProjSrc\SrcChartEx\ChartAddIn\ChartAnalysisToolAddIn\Symbol\PropertiesData_text.cpp
;	COMDAT ?GetWeight@CPropertiesData_Figure@@QAEHXZ
_TEXT	SEGMENT
?GetWeight@CPropertiesData_Figure@@QAEHXZ PROC		; CPropertiesData_Figure::GetWeight, COMDAT
; _this$ = ecx

; 54   : 	return m_Weight;

  00000	8b 41 08	 mov	 eax, DWORD PTR [ecx+8]

; 55   : }

  00003	c3		 ret	 0
?GetWeight@CPropertiesData_Figure@@QAEHXZ ENDP		; CPropertiesData_Figure::GetWeight
_TEXT	ENDS
; Function compile flags: /Ogtp
; File D:\git\src\IBK\IBK_DRFN\ProjSrc\SrcChartEx\ChartAddIn\ChartAnalysisToolAddIn\Symbol\PropertiesData_text.cpp
;	COMDAT ?SetStyle@CPropertiesData_Figure@@QAEXABH@Z
_TEXT	SEGMENT
_style$ = 8						; size = 4
?SetStyle@CPropertiesData_Figure@@QAEXABH@Z PROC	; CPropertiesData_Figure::SetStyle, COMDAT
; _this$ = ecx

; 48   : {

  00000	55		 push	 ebp
  00001	8b ec		 mov	 ebp, esp

; 49   : 	m_Style = style;

  00003	8b 45 08	 mov	 eax, DWORD PTR _style$[ebp]
  00006	8b 00		 mov	 eax, DWORD PTR [eax]
  00008	89 41 04	 mov	 DWORD PTR [ecx+4], eax

; 50   : }

  0000b	5d		 pop	 ebp
  0000c	c2 04 00	 ret	 4
?SetStyle@CPropertiesData_Figure@@QAEXABH@Z ENDP	; CPropertiesData_Figure::SetStyle
_TEXT	ENDS
; Function compile flags: /Ogtp
; File D:\git\src\IBK\IBK_DRFN\ProjSrc\SrcChartEx\ChartAddIn\ChartAnalysisToolAddIn\Symbol\PropertiesData_text.cpp
;	COMDAT ?GetStyle@CPropertiesData_Figure@@QAEHXZ
_TEXT	SEGMENT
?GetStyle@CPropertiesData_Figure@@QAEHXZ PROC		; CPropertiesData_Figure::GetStyle, COMDAT
; _this$ = ecx

; 44   : 	return m_Style;

  00000	8b 41 04	 mov	 eax, DWORD PTR [ecx+4]

; 45   : }

  00003	c3		 ret	 0
?GetStyle@CPropertiesData_Figure@@QAEHXZ ENDP		; CPropertiesData_Figure::GetStyle
_TEXT	ENDS
; Function compile flags: /Ogtp
; File D:\git\src\IBK\IBK_DRFN\ProjSrc\SrcChartEx\ChartAddIn\ChartAnalysisToolAddIn\Symbol\PropertiesData_text.cpp
;	COMDAT ?SetColor@CPropertiesData_Figure@@QAEXABK@Z
_TEXT	SEGMENT
_color$ = 8						; size = 4
?SetColor@CPropertiesData_Figure@@QAEXABK@Z PROC	; CPropertiesData_Figure::SetColor, COMDAT
; _this$ = ecx

; 38   : {

  00000	55		 push	 ebp
  00001	8b ec		 mov	 ebp, esp

; 39   : 	m_color = color;

  00003	8b 45 08	 mov	 eax, DWORD PTR _color$[ebp]
  00006	8b 00		 mov	 eax, DWORD PTR [eax]
  00008	89 41 0c	 mov	 DWORD PTR [ecx+12], eax

; 40   : }

  0000b	5d		 pop	 ebp
  0000c	c2 04 00	 ret	 4
?SetColor@CPropertiesData_Figure@@QAEXABK@Z ENDP	; CPropertiesData_Figure::SetColor
_TEXT	ENDS
; Function compile flags: /Ogtp
; File D:\git\src\IBK\IBK_DRFN\ProjSrc\SrcChartEx\ChartAddIn\ChartAnalysisToolAddIn\Symbol\PropertiesData_text.cpp
;	COMDAT ?GetColor@CPropertiesData_Figure@@QAEKXZ
_TEXT	SEGMENT
?GetColor@CPropertiesData_Figure@@QAEKXZ PROC		; CPropertiesData_Figure::GetColor, COMDAT
; _this$ = ecx

; 34   : 	return m_color;

  00000	8b 41 0c	 mov	 eax, DWORD PTR [ecx+12]

; 35   : }

  00003	c3		 ret	 0
?GetColor@CPropertiesData_Figure@@QAEKXZ ENDP		; CPropertiesData_Figure::GetColor
_TEXT	ENDS
; Function compile flags: /Ogtp
; File D:\git\src\IBK\IBK_DRFN\ProjSrc\SrcChartEx\ChartAddIn\ChartAnalysisToolAddIn\Symbol\PropertiesData_text.cpp
;	COMDAT ??1CPropertiesData_Figure@@UAE@XZ
_TEXT	SEGMENT
??1CPropertiesData_Figure@@UAE@XZ PROC			; CPropertiesData_Figure::~CPropertiesData_Figure, COMDAT
; _this$ = ecx

; 28   : {

  00000	c7 01 00 00 00
	00		 mov	 DWORD PTR [ecx], OFFSET ??_7CPropertiesData_Figure@@6B@

; 29   : 
; 30   : }

  00006	c3		 ret	 0
??1CPropertiesData_Figure@@UAE@XZ ENDP			; CPropertiesData_Figure::~CPropertiesData_Figure
_TEXT	ENDS
; Function compile flags: /Ogtp
; File D:\git\src\IBK\IBK_DRFN\ProjSrc\SrcChartEx\ChartAddIn\ChartAnalysisToolAddIn\Symbol\PropertiesData_text.cpp
;	COMDAT ??0CPropertiesData_Figure@@QAE@XZ
_TEXT	SEGMENT
??0CPropertiesData_Figure@@QAE@XZ PROC			; CPropertiesData_Figure::CPropertiesData_Figure, COMDAT
; _this$ = ecx

; 20   : {

  00000	c7 01 00 00 00
	00		 mov	 DWORD PTR [ecx], OFFSET ??_7CPropertiesData_Figure@@6B@

; 21   : 	SetColor(RGB(255,255,0));
; 22   : 	SetStyle(PS_SOLID);
; 23   : 	SetWeight(0);
; 24   : 	m_bFill = true;
; 25   : }

  00006	8b c1		 mov	 eax, ecx
  00008	c7 41 0c ff ff
	00 00		 mov	 DWORD PTR [ecx+12], 65535 ; 0000ffffH
  0000f	c7 41 04 00 00
	00 00		 mov	 DWORD PTR [ecx+4], 0
  00016	c7 41 08 00 00
	00 00		 mov	 DWORD PTR [ecx+8], 0
  0001d	c6 41 10 01	 mov	 BYTE PTR [ecx+16], 1
  00021	c3		 ret	 0
??0CPropertiesData_Figure@@QAE@XZ ENDP			; CPropertiesData_Figure::CPropertiesData_Figure
_TEXT	ENDS
; Function compile flags: /Ogtp
; File D:\git\src\IBK\IBK_DRFN\ProjSrc\SrcChartEx\ChartAddIn\ChartAnalysisToolAddIn\Symbol\PropertiesData_text.cpp
;	COMDAT ?__empty_global_delete@@YAXPAXI@Z
_TEXT	SEGMENT
___formal$ = 8						; size = 4
___formal$ = 12						; size = 4
?__empty_global_delete@@YAXPAXI@Z PROC			; __empty_global_delete, COMDAT

  00000	c2 00 00	 ret	 0
?__empty_global_delete@@YAXPAXI@Z ENDP			; __empty_global_delete
_TEXT	ENDS
; Function compile flags: /Ogtp
; File D:\git\src\IBK\IBK_DRFN\ProjSrc\SrcChartEx\ChartAddIn\ChartAnalysisToolAddIn\Symbol\PropertiesData_text.cpp
;	COMDAT ?__empty_global_delete@@YAXPAX@Z
_TEXT	SEGMENT
___formal$ = 8						; size = 4
?__empty_global_delete@@YAXPAX@Z PROC			; __empty_global_delete, COMDAT

  00000	c2 00 00	 ret	 0
?__empty_global_delete@@YAXPAX@Z ENDP			; __empty_global_delete
_TEXT	ENDS
END
