; Listing generated by Microsoft (R) Optimizing Compiler Version 19.29.30145.0 

	TITLE	D:\git\src\IBK\IBK_DRFN\#DRfn-CS\_Obj\Symbol\SymbolSingleton.obj
	.686P
	.XMM
	include listing.inc
	.model	flat

INCLUDELIB MSVCRT
INCLUDELIB OLDNAMES

PUBLIC	?__empty_global_delete@@YAXPAX@Z		; __empty_global_delete
PUBLIC	?__empty_global_delete@@YAXPAXI@Z		; __empty_global_delete
PUBLIC	??0CSymbolSingleton@@QAE@XZ			; CSymbolSingleton::CSymbolSingleton
PUBLIC	??1CSymbolSingleton@@QAE@XZ			; CSymbolSingleton::~CSymbolSingleton
PUBLIC	?Find@CSymbolSingleton@@QAEPAVCSymbolTool@@PAVCSymbolData@@W4TOOLTYPE@CSymbolBaseData@@@Z ; CSymbolSingleton::Find
PUBLIC	?InitialTool@CSymbolSingleton@@QAEXXZ		; CSymbolSingleton::InitialTool
PUBLIC	?GetTool@CSymbolSingleton@@AAEPAVCSymbolTool@@PAVCSymbolData@@PAV2@@Z ; CSymbolSingleton::GetTool
PUBLIC	?SetOcxHwnd@CSymbolSingleton@@QAEXPAUHWND__@@@Z	; CSymbolSingleton::SetOcxHwnd
PUBLIC	??_7CSymbolDraw_OnePoint_Size@@6B@		; CSymbolDraw_OnePoint_Size::`vftable'
PUBLIC	??_7CSymbolDraw_TwoPoint@@6B@			; CSymbolDraw_TwoPoint::`vftable'
PUBLIC	??_7CFigure_Square_Draw@@6B@			; CFigure_Square_Draw::`vftable'
PUBLIC	??_7CFigure_Circle_Draw@@6B@			; CFigure_Circle_Draw::`vftable'
PUBLIC	??_7CFigure_Triangle_Draw@@6B@			; CFigure_Triangle_Draw::`vftable'
PUBLIC	??_7CArrow_Left_Draw@@6B@			; CArrow_Left_Draw::`vftable'
PUBLIC	??_7CArrow_Right_Draw@@6B@			; CArrow_Right_Draw::`vftable'
PUBLIC	??_7CArrow_Up_Draw@@6B@				; CArrow_Up_Draw::`vftable'
PUBLIC	??_7CArrow_Down_Draw@@6B@			; CArrow_Down_Draw::`vftable'
PUBLIC	??_7CArrow_LeftTop_Draw@@6B@			; CArrow_LeftTop_Draw::`vftable'
PUBLIC	??_7CArrow_LeftBottom_Draw@@6B@			; CArrow_LeftBottom_Draw::`vftable'
PUBLIC	??_7CArrow_RightTop_Draw@@6B@			; CArrow_RightTop_Draw::`vftable'
PUBLIC	??_7CArrow_RightBottom_Draw@@6B@		; CArrow_RightBottom_Draw::`vftable'
PUBLIC	??_7CNumber_One_Draw@@6B@			; CNumber_One_Draw::`vftable'
PUBLIC	??_7CNumber_Two_Draw@@6B@			; CNumber_Two_Draw::`vftable'
PUBLIC	??_7CNumber_Three_Draw@@6B@			; CNumber_Three_Draw::`vftable'
PUBLIC	??_7CNumber_Four_Draw@@6B@			; CNumber_Four_Draw::`vftable'
PUBLIC	??_7CNumber_Five_Draw@@6B@			; CNumber_Five_Draw::`vftable'
PUBLIC	??_7CNumber_Six_Draw@@6B@			; CNumber_Six_Draw::`vftable'
PUBLIC	??_7CNumber_Seven_Draw@@6B@			; CNumber_Seven_Draw::`vftable'
PUBLIC	??_7CNumber_Eight_Draw@@6B@			; CNumber_Eight_Draw::`vftable'
PUBLIC	??_7CNumber_Nine_Draw@@6B@			; CNumber_Nine_Draw::`vftable'
PUBLIC	??_7CText_A_Draw@@6B@				; CText_A_Draw::`vftable'
PUBLIC	??_7CText_B_Draw@@6B@				; CText_B_Draw::`vftable'
PUBLIC	??_7CText_C_Draw@@6B@				; CText_C_Draw::`vftable'
PUBLIC	??_7CText_D_Draw@@6B@				; CText_D_Draw::`vftable'
PUBLIC	??_7CText_E_Draw@@6B@				; CText_E_Draw::`vftable'
PUBLIC	??_7CText_F_Draw@@6B@				; CText_F_Draw::`vftable'
PUBLIC	??_7CText_G_Draw@@6B@				; CText_G_Draw::`vftable'
PUBLIC	??_7CText_H_Draw@@6B@				; CText_H_Draw::`vftable'
PUBLIC	??_7CChar_1_Draw@@6B@				; CChar_1_Draw::`vftable'
PUBLIC	??_7CChar_2_Draw@@6B@				; CChar_2_Draw::`vftable'
PUBLIC	??_7CChar_3_Draw@@6B@				; CChar_3_Draw::`vftable'
PUBLIC	??_7CChar_4_Draw@@6B@				; CChar_4_Draw::`vftable'
PUBLIC	??_7CChar_5_Draw@@6B@				; CChar_5_Draw::`vftable'
PUBLIC	??_7CChar_6_Draw@@6B@				; CChar_6_Draw::`vftable'
PUBLIC	??_7CSymbolTool_OnePoint_Size@@6B@		; CSymbolTool_OnePoint_Size::`vftable'
PUBLIC	??_7CSymbolTool_TwoPoint@@6B@			; CSymbolTool_TwoPoint::`vftable'
PUBLIC	??_7CFigure_Square_Tool@@6B@			; CFigure_Square_Tool::`vftable'
PUBLIC	??_7CFigure_Circle_Tool@@6B@			; CFigure_Circle_Tool::`vftable'
PUBLIC	??_7CFigure_Triangle_Tool@@6B@			; CFigure_Triangle_Tool::`vftable'
PUBLIC	??_7CTextTool@@6B@				; CTextTool::`vftable'
PUBLIC	??_7CArrow_Left_Tool@@6B@			; CArrow_Left_Tool::`vftable'
PUBLIC	??_7CArrow_Right_Tool@@6B@			; CArrow_Right_Tool::`vftable'
PUBLIC	??_7CArrow_Up_Tool@@6B@				; CArrow_Up_Tool::`vftable'
PUBLIC	??_7CArrow_Down_Tool@@6B@			; CArrow_Down_Tool::`vftable'
PUBLIC	??_7CArrow_LeftTop_Tool@@6B@			; CArrow_LeftTop_Tool::`vftable'
PUBLIC	??_7CArrow_LeftBottom_Tool@@6B@			; CArrow_LeftBottom_Tool::`vftable'
PUBLIC	??_7CArrow_RightTop_Tool@@6B@			; CArrow_RightTop_Tool::`vftable'
PUBLIC	??_7CArrow_RightBottom_Tool@@6B@		; CArrow_RightBottom_Tool::`vftable'
PUBLIC	??_7CNumber_One_Tool@@6B@			; CNumber_One_Tool::`vftable'
PUBLIC	??_7CNumber_Two_Tool@@6B@			; CNumber_Two_Tool::`vftable'
PUBLIC	??_7CNumber_Three_Tool@@6B@			; CNumber_Three_Tool::`vftable'
PUBLIC	??_7CNumber_Four_Tool@@6B@			; CNumber_Four_Tool::`vftable'
PUBLIC	??_7CNumber_Five_Tool@@6B@			; CNumber_Five_Tool::`vftable'
PUBLIC	??_7CNumber_Six_Tool@@6B@			; CNumber_Six_Tool::`vftable'
PUBLIC	??_7CNumber_Seven_Tool@@6B@			; CNumber_Seven_Tool::`vftable'
PUBLIC	??_7CNumber_Eight_Tool@@6B@			; CNumber_Eight_Tool::`vftable'
PUBLIC	??_7CNumber_Nine_Tool@@6B@			; CNumber_Nine_Tool::`vftable'
PUBLIC	??_7CText_A_Tool@@6B@				; CText_A_Tool::`vftable'
PUBLIC	??_7CText_B_Tool@@6B@				; CText_B_Tool::`vftable'
PUBLIC	??_7CText_C_Tool@@6B@				; CText_C_Tool::`vftable'
PUBLIC	??_7CText_D_Tool@@6B@				; CText_D_Tool::`vftable'
PUBLIC	??_7CText_E_Tool@@6B@				; CText_E_Tool::`vftable'
PUBLIC	??_7CText_F_Tool@@6B@				; CText_F_Tool::`vftable'
PUBLIC	??_7CText_G_Tool@@6B@				; CText_G_Tool::`vftable'
PUBLIC	??_7CText_H_Tool@@6B@				; CText_H_Tool::`vftable'
PUBLIC	??_7CChar_1_Tool@@6B@				; CChar_1_Tool::`vftable'
PUBLIC	??_7CChar_2_Tool@@6B@				; CChar_2_Tool::`vftable'
PUBLIC	??_7CChar_3_Tool@@6B@				; CChar_3_Tool::`vftable'
PUBLIC	??_7CChar_4_Tool@@6B@				; CChar_4_Tool::`vftable'
PUBLIC	??_7CChar_5_Tool@@6B@				; CChar_5_Tool::`vftable'
PUBLIC	??_7CChar_6_Tool@@6B@				; CChar_6_Tool::`vftable'
PUBLIC	??_R4CFigure_Square_Tool@@6B@			; CFigure_Square_Tool::`RTTI Complete Object Locator'
PUBLIC	??_R0?AVCFigure_Square_Tool@@@8			; CFigure_Square_Tool `RTTI Type Descriptor'
PUBLIC	??_R3CFigure_Square_Tool@@8			; CFigure_Square_Tool::`RTTI Class Hierarchy Descriptor'
PUBLIC	??_R2CFigure_Square_Tool@@8			; CFigure_Square_Tool::`RTTI Base Class Array'
PUBLIC	??_R1A@?0A@EA@CFigure_Square_Tool@@8		; CFigure_Square_Tool::`RTTI Base Class Descriptor at (0,-1,0,64)'
PUBLIC	??_R1A@?0A@EA@CSymbolTool_TwoPoint@@8		; CSymbolTool_TwoPoint::`RTTI Base Class Descriptor at (0,-1,0,64)'
PUBLIC	??_R0?AVCSymbolTool_TwoPoint@@@8		; CSymbolTool_TwoPoint `RTTI Type Descriptor'
PUBLIC	??_R3CSymbolTool_TwoPoint@@8			; CSymbolTool_TwoPoint::`RTTI Class Hierarchy Descriptor'
PUBLIC	??_R2CSymbolTool_TwoPoint@@8			; CSymbolTool_TwoPoint::`RTTI Base Class Array'
PUBLIC	??_R1A@?0A@EA@CSymbolTool@@8			; CSymbolTool::`RTTI Base Class Descriptor at (0,-1,0,64)'
PUBLIC	??_R0?AVCSymbolTool@@@8				; CSymbolTool `RTTI Type Descriptor'
PUBLIC	??_R3CSymbolTool@@8				; CSymbolTool::`RTTI Class Hierarchy Descriptor'
PUBLIC	??_R2CSymbolTool@@8				; CSymbolTool::`RTTI Base Class Array'
PUBLIC	??_R4CFigure_Circle_Tool@@6B@			; CFigure_Circle_Tool::`RTTI Complete Object Locator'
PUBLIC	??_R0?AVCFigure_Circle_Tool@@@8			; CFigure_Circle_Tool `RTTI Type Descriptor'
PUBLIC	??_R3CFigure_Circle_Tool@@8			; CFigure_Circle_Tool::`RTTI Class Hierarchy Descriptor'
PUBLIC	??_R2CFigure_Circle_Tool@@8			; CFigure_Circle_Tool::`RTTI Base Class Array'
PUBLIC	??_R1A@?0A@EA@CFigure_Circle_Tool@@8		; CFigure_Circle_Tool::`RTTI Base Class Descriptor at (0,-1,0,64)'
PUBLIC	??_R4CFigure_Triangle_Tool@@6B@			; CFigure_Triangle_Tool::`RTTI Complete Object Locator'
PUBLIC	??_R0?AVCFigure_Triangle_Tool@@@8		; CFigure_Triangle_Tool `RTTI Type Descriptor'
PUBLIC	??_R3CFigure_Triangle_Tool@@8			; CFigure_Triangle_Tool::`RTTI Class Hierarchy Descriptor'
PUBLIC	??_R2CFigure_Triangle_Tool@@8			; CFigure_Triangle_Tool::`RTTI Base Class Array'
PUBLIC	??_R1A@?0A@EA@CFigure_Triangle_Tool@@8		; CFigure_Triangle_Tool::`RTTI Base Class Descriptor at (0,-1,0,64)'
PUBLIC	??_R4CTextTool@@6B@				; CTextTool::`RTTI Complete Object Locator'
PUBLIC	??_R0?AVCTextTool@@@8				; CTextTool `RTTI Type Descriptor'
PUBLIC	??_R3CTextTool@@8				; CTextTool::`RTTI Class Hierarchy Descriptor'
PUBLIC	??_R2CTextTool@@8				; CTextTool::`RTTI Base Class Array'
PUBLIC	??_R1A@?0A@EA@CTextTool@@8			; CTextTool::`RTTI Base Class Descriptor at (0,-1,0,64)'
PUBLIC	??_R1A@?0A@EA@CSymbolTool_OnePoint_Size@@8	; CSymbolTool_OnePoint_Size::`RTTI Base Class Descriptor at (0,-1,0,64)'
PUBLIC	??_R0?AVCSymbolTool_OnePoint_Size@@@8		; CSymbolTool_OnePoint_Size `RTTI Type Descriptor'
PUBLIC	??_R3CSymbolTool_OnePoint_Size@@8		; CSymbolTool_OnePoint_Size::`RTTI Class Hierarchy Descriptor'
PUBLIC	??_R2CSymbolTool_OnePoint_Size@@8		; CSymbolTool_OnePoint_Size::`RTTI Base Class Array'
PUBLIC	??_R4CArrow_Left_Tool@@6B@			; CArrow_Left_Tool::`RTTI Complete Object Locator'
PUBLIC	??_R0?AVCArrow_Left_Tool@@@8			; CArrow_Left_Tool `RTTI Type Descriptor'
PUBLIC	??_R3CArrow_Left_Tool@@8			; CArrow_Left_Tool::`RTTI Class Hierarchy Descriptor'
PUBLIC	??_R2CArrow_Left_Tool@@8			; CArrow_Left_Tool::`RTTI Base Class Array'
PUBLIC	??_R1A@?0A@EA@CArrow_Left_Tool@@8		; CArrow_Left_Tool::`RTTI Base Class Descriptor at (0,-1,0,64)'
PUBLIC	??_R4CArrow_Right_Tool@@6B@			; CArrow_Right_Tool::`RTTI Complete Object Locator'
PUBLIC	??_R0?AVCArrow_Right_Tool@@@8			; CArrow_Right_Tool `RTTI Type Descriptor'
PUBLIC	??_R3CArrow_Right_Tool@@8			; CArrow_Right_Tool::`RTTI Class Hierarchy Descriptor'
PUBLIC	??_R2CArrow_Right_Tool@@8			; CArrow_Right_Tool::`RTTI Base Class Array'
PUBLIC	??_R1A@?0A@EA@CArrow_Right_Tool@@8		; CArrow_Right_Tool::`RTTI Base Class Descriptor at (0,-1,0,64)'
PUBLIC	??_R4CArrow_Up_Tool@@6B@			; CArrow_Up_Tool::`RTTI Complete Object Locator'
PUBLIC	??_R0?AVCArrow_Up_Tool@@@8			; CArrow_Up_Tool `RTTI Type Descriptor'
PUBLIC	??_R3CArrow_Up_Tool@@8				; CArrow_Up_Tool::`RTTI Class Hierarchy Descriptor'
PUBLIC	??_R2CArrow_Up_Tool@@8				; CArrow_Up_Tool::`RTTI Base Class Array'
PUBLIC	??_R1A@?0A@EA@CArrow_Up_Tool@@8			; CArrow_Up_Tool::`RTTI Base Class Descriptor at (0,-1,0,64)'
PUBLIC	??_R4CArrow_Down_Tool@@6B@			; CArrow_Down_Tool::`RTTI Complete Object Locator'
PUBLIC	??_R0?AVCArrow_Down_Tool@@@8			; CArrow_Down_Tool `RTTI Type Descriptor'
PUBLIC	??_R3CArrow_Down_Tool@@8			; CArrow_Down_Tool::`RTTI Class Hierarchy Descriptor'
PUBLIC	??_R2CArrow_Down_Tool@@8			; CArrow_Down_Tool::`RTTI Base Class Array'
PUBLIC	??_R1A@?0A@EA@CArrow_Down_Tool@@8		; CArrow_Down_Tool::`RTTI Base Class Descriptor at (0,-1,0,64)'
PUBLIC	??_R4CArrow_LeftTop_Tool@@6B@			; CArrow_LeftTop_Tool::`RTTI Complete Object Locator'
PUBLIC	??_R0?AVCArrow_LeftTop_Tool@@@8			; CArrow_LeftTop_Tool `RTTI Type Descriptor'
PUBLIC	??_R3CArrow_LeftTop_Tool@@8			; CArrow_LeftTop_Tool::`RTTI Class Hierarchy Descriptor'
PUBLIC	??_R2CArrow_LeftTop_Tool@@8			; CArrow_LeftTop_Tool::`RTTI Base Class Array'
PUBLIC	??_R1A@?0A@EA@CArrow_LeftTop_Tool@@8		; CArrow_LeftTop_Tool::`RTTI Base Class Descriptor at (0,-1,0,64)'
PUBLIC	??_R4CArrow_LeftBottom_Tool@@6B@		; CArrow_LeftBottom_Tool::`RTTI Complete Object Locator'
PUBLIC	??_R0?AVCArrow_LeftBottom_Tool@@@8		; CArrow_LeftBottom_Tool `RTTI Type Descriptor'
PUBLIC	??_R3CArrow_LeftBottom_Tool@@8			; CArrow_LeftBottom_Tool::`RTTI Class Hierarchy Descriptor'
PUBLIC	??_R2CArrow_LeftBottom_Tool@@8			; CArrow_LeftBottom_Tool::`RTTI Base Class Array'
PUBLIC	??_R1A@?0A@EA@CArrow_LeftBottom_Tool@@8		; CArrow_LeftBottom_Tool::`RTTI Base Class Descriptor at (0,-1,0,64)'
PUBLIC	??_R4CArrow_RightTop_Tool@@6B@			; CArrow_RightTop_Tool::`RTTI Complete Object Locator'
PUBLIC	??_R0?AVCArrow_RightTop_Tool@@@8		; CArrow_RightTop_Tool `RTTI Type Descriptor'
PUBLIC	??_R3CArrow_RightTop_Tool@@8			; CArrow_RightTop_Tool::`RTTI Class Hierarchy Descriptor'
PUBLIC	??_R2CArrow_RightTop_Tool@@8			; CArrow_RightTop_Tool::`RTTI Base Class Array'
PUBLIC	??_R1A@?0A@EA@CArrow_RightTop_Tool@@8		; CArrow_RightTop_Tool::`RTTI Base Class Descriptor at (0,-1,0,64)'
PUBLIC	??_R4CArrow_RightBottom_Tool@@6B@		; CArrow_RightBottom_Tool::`RTTI Complete Object Locator'
PUBLIC	??_R0?AVCArrow_RightBottom_Tool@@@8		; CArrow_RightBottom_Tool `RTTI Type Descriptor'
PUBLIC	??_R3CArrow_RightBottom_Tool@@8			; CArrow_RightBottom_Tool::`RTTI Class Hierarchy Descriptor'
PUBLIC	??_R2CArrow_RightBottom_Tool@@8			; CArrow_RightBottom_Tool::`RTTI Base Class Array'
PUBLIC	??_R1A@?0A@EA@CArrow_RightBottom_Tool@@8	; CArrow_RightBottom_Tool::`RTTI Base Class Descriptor at (0,-1,0,64)'
PUBLIC	??_R4CNumber_One_Tool@@6B@			; CNumber_One_Tool::`RTTI Complete Object Locator'
PUBLIC	??_R0?AVCNumber_One_Tool@@@8			; CNumber_One_Tool `RTTI Type Descriptor'
PUBLIC	??_R3CNumber_One_Tool@@8			; CNumber_One_Tool::`RTTI Class Hierarchy Descriptor'
PUBLIC	??_R2CNumber_One_Tool@@8			; CNumber_One_Tool::`RTTI Base Class Array'
PUBLIC	??_R1A@?0A@EA@CNumber_One_Tool@@8		; CNumber_One_Tool::`RTTI Base Class Descriptor at (0,-1,0,64)'
PUBLIC	??_R4CNumber_Two_Tool@@6B@			; CNumber_Two_Tool::`RTTI Complete Object Locator'
PUBLIC	??_R0?AVCNumber_Two_Tool@@@8			; CNumber_Two_Tool `RTTI Type Descriptor'
PUBLIC	??_R3CNumber_Two_Tool@@8			; CNumber_Two_Tool::`RTTI Class Hierarchy Descriptor'
PUBLIC	??_R2CNumber_Two_Tool@@8			; CNumber_Two_Tool::`RTTI Base Class Array'
PUBLIC	??_R1A@?0A@EA@CNumber_Two_Tool@@8		; CNumber_Two_Tool::`RTTI Base Class Descriptor at (0,-1,0,64)'
PUBLIC	??_R4CNumber_Three_Tool@@6B@			; CNumber_Three_Tool::`RTTI Complete Object Locator'
PUBLIC	??_R0?AVCNumber_Three_Tool@@@8			; CNumber_Three_Tool `RTTI Type Descriptor'
PUBLIC	??_R3CNumber_Three_Tool@@8			; CNumber_Three_Tool::`RTTI Class Hierarchy Descriptor'
PUBLIC	??_R2CNumber_Three_Tool@@8			; CNumber_Three_Tool::`RTTI Base Class Array'
PUBLIC	??_R1A@?0A@EA@CNumber_Three_Tool@@8		; CNumber_Three_Tool::`RTTI Base Class Descriptor at (0,-1,0,64)'
PUBLIC	??_R4CNumber_Four_Tool@@6B@			; CNumber_Four_Tool::`RTTI Complete Object Locator'
PUBLIC	??_R0?AVCNumber_Four_Tool@@@8			; CNumber_Four_Tool `RTTI Type Descriptor'
PUBLIC	??_R3CNumber_Four_Tool@@8			; CNumber_Four_Tool::`RTTI Class Hierarchy Descriptor'
PUBLIC	??_R2CNumber_Four_Tool@@8			; CNumber_Four_Tool::`RTTI Base Class Array'
PUBLIC	??_R1A@?0A@EA@CNumber_Four_Tool@@8		; CNumber_Four_Tool::`RTTI Base Class Descriptor at (0,-1,0,64)'
PUBLIC	??_R4CNumber_Five_Tool@@6B@			; CNumber_Five_Tool::`RTTI Complete Object Locator'
PUBLIC	??_R0?AVCNumber_Five_Tool@@@8			; CNumber_Five_Tool `RTTI Type Descriptor'
PUBLIC	??_R3CNumber_Five_Tool@@8			; CNumber_Five_Tool::`RTTI Class Hierarchy Descriptor'
PUBLIC	??_R2CNumber_Five_Tool@@8			; CNumber_Five_Tool::`RTTI Base Class Array'
PUBLIC	??_R1A@?0A@EA@CNumber_Five_Tool@@8		; CNumber_Five_Tool::`RTTI Base Class Descriptor at (0,-1,0,64)'
PUBLIC	??_R4CNumber_Six_Tool@@6B@			; CNumber_Six_Tool::`RTTI Complete Object Locator'
PUBLIC	??_R0?AVCNumber_Six_Tool@@@8			; CNumber_Six_Tool `RTTI Type Descriptor'
PUBLIC	??_R3CNumber_Six_Tool@@8			; CNumber_Six_Tool::`RTTI Class Hierarchy Descriptor'
PUBLIC	??_R2CNumber_Six_Tool@@8			; CNumber_Six_Tool::`RTTI Base Class Array'
PUBLIC	??_R1A@?0A@EA@CNumber_Six_Tool@@8		; CNumber_Six_Tool::`RTTI Base Class Descriptor at (0,-1,0,64)'
PUBLIC	??_R4CNumber_Seven_Tool@@6B@			; CNumber_Seven_Tool::`RTTI Complete Object Locator'
PUBLIC	??_R0?AVCNumber_Seven_Tool@@@8			; CNumber_Seven_Tool `RTTI Type Descriptor'
PUBLIC	??_R3CNumber_Seven_Tool@@8			; CNumber_Seven_Tool::`RTTI Class Hierarchy Descriptor'
PUBLIC	??_R2CNumber_Seven_Tool@@8			; CNumber_Seven_Tool::`RTTI Base Class Array'
PUBLIC	??_R1A@?0A@EA@CNumber_Seven_Tool@@8		; CNumber_Seven_Tool::`RTTI Base Class Descriptor at (0,-1,0,64)'
PUBLIC	??_R4CNumber_Eight_Tool@@6B@			; CNumber_Eight_Tool::`RTTI Complete Object Locator'
PUBLIC	??_R0?AVCNumber_Eight_Tool@@@8			; CNumber_Eight_Tool `RTTI Type Descriptor'
PUBLIC	??_R3CNumber_Eight_Tool@@8			; CNumber_Eight_Tool::`RTTI Class Hierarchy Descriptor'
PUBLIC	??_R2CNumber_Eight_Tool@@8			; CNumber_Eight_Tool::`RTTI Base Class Array'
PUBLIC	??_R1A@?0A@EA@CNumber_Eight_Tool@@8		; CNumber_Eight_Tool::`RTTI Base Class Descriptor at (0,-1,0,64)'
PUBLIC	??_R4CNumber_Nine_Tool@@6B@			; CNumber_Nine_Tool::`RTTI Complete Object Locator'
PUBLIC	??_R0?AVCNumber_Nine_Tool@@@8			; CNumber_Nine_Tool `RTTI Type Descriptor'
PUBLIC	??_R3CNumber_Nine_Tool@@8			; CNumber_Nine_Tool::`RTTI Class Hierarchy Descriptor'
PUBLIC	??_R2CNumber_Nine_Tool@@8			; CNumber_Nine_Tool::`RTTI Base Class Array'
PUBLIC	??_R1A@?0A@EA@CNumber_Nine_Tool@@8		; CNumber_Nine_Tool::`RTTI Base Class Descriptor at (0,-1,0,64)'
PUBLIC	??_R4CText_A_Tool@@6B@				; CText_A_Tool::`RTTI Complete Object Locator'
PUBLIC	??_R0?AVCText_A_Tool@@@8			; CText_A_Tool `RTTI Type Descriptor'
PUBLIC	??_R3CText_A_Tool@@8				; CText_A_Tool::`RTTI Class Hierarchy Descriptor'
PUBLIC	??_R2CText_A_Tool@@8				; CText_A_Tool::`RTTI Base Class Array'
PUBLIC	??_R1A@?0A@EA@CText_A_Tool@@8			; CText_A_Tool::`RTTI Base Class Descriptor at (0,-1,0,64)'
PUBLIC	??_R4CText_B_Tool@@6B@				; CText_B_Tool::`RTTI Complete Object Locator'
PUBLIC	??_R0?AVCText_B_Tool@@@8			; CText_B_Tool `RTTI Type Descriptor'
PUBLIC	??_R3CText_B_Tool@@8				; CText_B_Tool::`RTTI Class Hierarchy Descriptor'
PUBLIC	??_R2CText_B_Tool@@8				; CText_B_Tool::`RTTI Base Class Array'
PUBLIC	??_R1A@?0A@EA@CText_B_Tool@@8			; CText_B_Tool::`RTTI Base Class Descriptor at (0,-1,0,64)'
PUBLIC	??_R4CText_C_Tool@@6B@				; CText_C_Tool::`RTTI Complete Object Locator'
PUBLIC	??_R0?AVCText_C_Tool@@@8			; CText_C_Tool `RTTI Type Descriptor'
PUBLIC	??_R3CText_C_Tool@@8				; CText_C_Tool::`RTTI Class Hierarchy Descriptor'
PUBLIC	??_R2CText_C_Tool@@8				; CText_C_Tool::`RTTI Base Class Array'
PUBLIC	??_R1A@?0A@EA@CText_C_Tool@@8			; CText_C_Tool::`RTTI Base Class Descriptor at (0,-1,0,64)'
PUBLIC	??_R4CText_D_Tool@@6B@				; CText_D_Tool::`RTTI Complete Object Locator'
PUBLIC	??_R0?AVCText_D_Tool@@@8			; CText_D_Tool `RTTI Type Descriptor'
PUBLIC	??_R3CText_D_Tool@@8				; CText_D_Tool::`RTTI Class Hierarchy Descriptor'
PUBLIC	??_R2CText_D_Tool@@8				; CText_D_Tool::`RTTI Base Class Array'
PUBLIC	??_R1A@?0A@EA@CText_D_Tool@@8			; CText_D_Tool::`RTTI Base Class Descriptor at (0,-1,0,64)'
PUBLIC	??_R4CText_E_Tool@@6B@				; CText_E_Tool::`RTTI Complete Object Locator'
PUBLIC	??_R0?AVCText_E_Tool@@@8			; CText_E_Tool `RTTI Type Descriptor'
PUBLIC	??_R3CText_E_Tool@@8				; CText_E_Tool::`RTTI Class Hierarchy Descriptor'
PUBLIC	??_R2CText_E_Tool@@8				; CText_E_Tool::`RTTI Base Class Array'
PUBLIC	??_R1A@?0A@EA@CText_E_Tool@@8			; CText_E_Tool::`RTTI Base Class Descriptor at (0,-1,0,64)'
PUBLIC	??_R4CText_F_Tool@@6B@				; CText_F_Tool::`RTTI Complete Object Locator'
PUBLIC	??_R0?AVCText_F_Tool@@@8			; CText_F_Tool `RTTI Type Descriptor'
PUBLIC	??_R3CText_F_Tool@@8				; CText_F_Tool::`RTTI Class Hierarchy Descriptor'
PUBLIC	??_R2CText_F_Tool@@8				; CText_F_Tool::`RTTI Base Class Array'
PUBLIC	??_R1A@?0A@EA@CText_F_Tool@@8			; CText_F_Tool::`RTTI Base Class Descriptor at (0,-1,0,64)'
PUBLIC	??_R4CText_G_Tool@@6B@				; CText_G_Tool::`RTTI Complete Object Locator'
PUBLIC	??_R0?AVCText_G_Tool@@@8			; CText_G_Tool `RTTI Type Descriptor'
PUBLIC	??_R3CText_G_Tool@@8				; CText_G_Tool::`RTTI Class Hierarchy Descriptor'
PUBLIC	??_R2CText_G_Tool@@8				; CText_G_Tool::`RTTI Base Class Array'
PUBLIC	??_R1A@?0A@EA@CText_G_Tool@@8			; CText_G_Tool::`RTTI Base Class Descriptor at (0,-1,0,64)'
PUBLIC	??_R4CText_H_Tool@@6B@				; CText_H_Tool::`RTTI Complete Object Locator'
PUBLIC	??_R0?AVCText_H_Tool@@@8			; CText_H_Tool `RTTI Type Descriptor'
PUBLIC	??_R3CText_H_Tool@@8				; CText_H_Tool::`RTTI Class Hierarchy Descriptor'
PUBLIC	??_R2CText_H_Tool@@8				; CText_H_Tool::`RTTI Base Class Array'
PUBLIC	??_R1A@?0A@EA@CText_H_Tool@@8			; CText_H_Tool::`RTTI Base Class Descriptor at (0,-1,0,64)'
PUBLIC	??_R4CChar_1_Tool@@6B@				; CChar_1_Tool::`RTTI Complete Object Locator'
PUBLIC	??_R0?AVCChar_1_Tool@@@8			; CChar_1_Tool `RTTI Type Descriptor'
PUBLIC	??_R3CChar_1_Tool@@8				; CChar_1_Tool::`RTTI Class Hierarchy Descriptor'
PUBLIC	??_R2CChar_1_Tool@@8				; CChar_1_Tool::`RTTI Base Class Array'
PUBLIC	??_R1A@?0A@EA@CChar_1_Tool@@8			; CChar_1_Tool::`RTTI Base Class Descriptor at (0,-1,0,64)'
PUBLIC	??_R4CChar_2_Tool@@6B@				; CChar_2_Tool::`RTTI Complete Object Locator'
PUBLIC	??_R0?AVCChar_2_Tool@@@8			; CChar_2_Tool `RTTI Type Descriptor'
PUBLIC	??_R3CChar_2_Tool@@8				; CChar_2_Tool::`RTTI Class Hierarchy Descriptor'
PUBLIC	??_R2CChar_2_Tool@@8				; CChar_2_Tool::`RTTI Base Class Array'
PUBLIC	??_R1A@?0A@EA@CChar_2_Tool@@8			; CChar_2_Tool::`RTTI Base Class Descriptor at (0,-1,0,64)'
PUBLIC	??_R4CChar_3_Tool@@6B@				; CChar_3_Tool::`RTTI Complete Object Locator'
PUBLIC	??_R0?AVCChar_3_Tool@@@8			; CChar_3_Tool `RTTI Type Descriptor'
PUBLIC	??_R3CChar_3_Tool@@8				; CChar_3_Tool::`RTTI Class Hierarchy Descriptor'
PUBLIC	??_R2CChar_3_Tool@@8				; CChar_3_Tool::`RTTI Base Class Array'
PUBLIC	??_R1A@?0A@EA@CChar_3_Tool@@8			; CChar_3_Tool::`RTTI Base Class Descriptor at (0,-1,0,64)'
PUBLIC	??_R4CChar_4_Tool@@6B@				; CChar_4_Tool::`RTTI Complete Object Locator'
PUBLIC	??_R0?AVCChar_4_Tool@@@8			; CChar_4_Tool `RTTI Type Descriptor'
PUBLIC	??_R3CChar_4_Tool@@8				; CChar_4_Tool::`RTTI Class Hierarchy Descriptor'
PUBLIC	??_R2CChar_4_Tool@@8				; CChar_4_Tool::`RTTI Base Class Array'
PUBLIC	??_R1A@?0A@EA@CChar_4_Tool@@8			; CChar_4_Tool::`RTTI Base Class Descriptor at (0,-1,0,64)'
PUBLIC	??_R4CChar_5_Tool@@6B@				; CChar_5_Tool::`RTTI Complete Object Locator'
PUBLIC	??_R0?AVCChar_5_Tool@@@8			; CChar_5_Tool `RTTI Type Descriptor'
PUBLIC	??_R3CChar_5_Tool@@8				; CChar_5_Tool::`RTTI Class Hierarchy Descriptor'
PUBLIC	??_R2CChar_5_Tool@@8				; CChar_5_Tool::`RTTI Base Class Array'
PUBLIC	??_R1A@?0A@EA@CChar_5_Tool@@8			; CChar_5_Tool::`RTTI Base Class Descriptor at (0,-1,0,64)'
PUBLIC	??_R4CChar_6_Tool@@6B@				; CChar_6_Tool::`RTTI Complete Object Locator'
PUBLIC	??_R0?AVCChar_6_Tool@@@8			; CChar_6_Tool `RTTI Type Descriptor'
PUBLIC	??_R3CChar_6_Tool@@8				; CChar_6_Tool::`RTTI Class Hierarchy Descriptor'
PUBLIC	??_R2CChar_6_Tool@@8				; CChar_6_Tool::`RTTI Base Class Array'
PUBLIC	??_R1A@?0A@EA@CChar_6_Tool@@8			; CChar_6_Tool::`RTTI Base Class Descriptor at (0,-1,0,64)'
PUBLIC	??_R4CSymbolDraw_OnePoint_Size@@6B@		; CSymbolDraw_OnePoint_Size::`RTTI Complete Object Locator'
PUBLIC	??_R0?AVCSymbolDraw_OnePoint_Size@@@8		; CSymbolDraw_OnePoint_Size `RTTI Type Descriptor'
PUBLIC	??_R3CSymbolDraw_OnePoint_Size@@8		; CSymbolDraw_OnePoint_Size::`RTTI Class Hierarchy Descriptor'
PUBLIC	??_R2CSymbolDraw_OnePoint_Size@@8		; CSymbolDraw_OnePoint_Size::`RTTI Base Class Array'
PUBLIC	??_R1A@?0A@EA@CSymbolDraw_OnePoint_Size@@8	; CSymbolDraw_OnePoint_Size::`RTTI Base Class Descriptor at (0,-1,0,64)'
PUBLIC	??_R13?0A@EA@CSymbolDraw@@8			; CSymbolDraw::`RTTI Base Class Descriptor at (4,-1,0,64)'
PUBLIC	??_R0?AVCSymbolDraw@@@8				; CSymbolDraw `RTTI Type Descriptor'
PUBLIC	??_R3CSymbolDraw@@8				; CSymbolDraw::`RTTI Class Hierarchy Descriptor'
PUBLIC	??_R2CSymbolDraw@@8				; CSymbolDraw::`RTTI Base Class Array'
PUBLIC	??_R1A@?0A@EA@CSymbolDraw@@8			; CSymbolDraw::`RTTI Base Class Descriptor at (0,-1,0,64)'
PUBLIC	??_R4CSymbolDraw_TwoPoint@@6B@			; CSymbolDraw_TwoPoint::`RTTI Complete Object Locator'
PUBLIC	??_R0?AVCSymbolDraw_TwoPoint@@@8		; CSymbolDraw_TwoPoint `RTTI Type Descriptor'
PUBLIC	??_R3CSymbolDraw_TwoPoint@@8			; CSymbolDraw_TwoPoint::`RTTI Class Hierarchy Descriptor'
PUBLIC	??_R2CSymbolDraw_TwoPoint@@8			; CSymbolDraw_TwoPoint::`RTTI Base Class Array'
PUBLIC	??_R1A@?0A@EA@CSymbolDraw_TwoPoint@@8		; CSymbolDraw_TwoPoint::`RTTI Base Class Descriptor at (0,-1,0,64)'
PUBLIC	??_R4CFigure_Square_Draw@@6B@			; CFigure_Square_Draw::`RTTI Complete Object Locator'
PUBLIC	??_R0?AVCFigure_Square_Draw@@@8			; CFigure_Square_Draw `RTTI Type Descriptor'
PUBLIC	??_R3CFigure_Square_Draw@@8			; CFigure_Square_Draw::`RTTI Class Hierarchy Descriptor'
PUBLIC	??_R2CFigure_Square_Draw@@8			; CFigure_Square_Draw::`RTTI Base Class Array'
PUBLIC	??_R1A@?0A@EA@CFigure_Square_Draw@@8		; CFigure_Square_Draw::`RTTI Base Class Descriptor at (0,-1,0,64)'
PUBLIC	??_R4CFigure_Circle_Draw@@6B@			; CFigure_Circle_Draw::`RTTI Complete Object Locator'
PUBLIC	??_R0?AVCFigure_Circle_Draw@@@8			; CFigure_Circle_Draw `RTTI Type Descriptor'
PUBLIC	??_R3CFigure_Circle_Draw@@8			; CFigure_Circle_Draw::`RTTI Class Hierarchy Descriptor'
PUBLIC	??_R2CFigure_Circle_Draw@@8			; CFigure_Circle_Draw::`RTTI Base Class Array'
PUBLIC	??_R1A@?0A@EA@CFigure_Circle_Draw@@8		; CFigure_Circle_Draw::`RTTI Base Class Descriptor at (0,-1,0,64)'
PUBLIC	??_R4CFigure_Triangle_Draw@@6B@			; CFigure_Triangle_Draw::`RTTI Complete Object Locator'
PUBLIC	??_R0?AVCFigure_Triangle_Draw@@@8		; CFigure_Triangle_Draw `RTTI Type Descriptor'
PUBLIC	??_R3CFigure_Triangle_Draw@@8			; CFigure_Triangle_Draw::`RTTI Class Hierarchy Descriptor'
PUBLIC	??_R2CFigure_Triangle_Draw@@8			; CFigure_Triangle_Draw::`RTTI Base Class Array'
PUBLIC	??_R1A@?0A@EA@CFigure_Triangle_Draw@@8		; CFigure_Triangle_Draw::`RTTI Base Class Descriptor at (0,-1,0,64)'
PUBLIC	??_R4CArrow_Left_Draw@@6B@			; CArrow_Left_Draw::`RTTI Complete Object Locator'
PUBLIC	??_R0?AVCArrow_Left_Draw@@@8			; CArrow_Left_Draw `RTTI Type Descriptor'
PUBLIC	??_R3CArrow_Left_Draw@@8			; CArrow_Left_Draw::`RTTI Class Hierarchy Descriptor'
PUBLIC	??_R2CArrow_Left_Draw@@8			; CArrow_Left_Draw::`RTTI Base Class Array'
PUBLIC	??_R1A@?0A@EA@CArrow_Left_Draw@@8		; CArrow_Left_Draw::`RTTI Base Class Descriptor at (0,-1,0,64)'
PUBLIC	??_R4CArrow_Right_Draw@@6B@			; CArrow_Right_Draw::`RTTI Complete Object Locator'
PUBLIC	??_R0?AVCArrow_Right_Draw@@@8			; CArrow_Right_Draw `RTTI Type Descriptor'
PUBLIC	??_R3CArrow_Right_Draw@@8			; CArrow_Right_Draw::`RTTI Class Hierarchy Descriptor'
PUBLIC	??_R2CArrow_Right_Draw@@8			; CArrow_Right_Draw::`RTTI Base Class Array'
PUBLIC	??_R1A@?0A@EA@CArrow_Right_Draw@@8		; CArrow_Right_Draw::`RTTI Base Class Descriptor at (0,-1,0,64)'
PUBLIC	??_R4CArrow_Up_Draw@@6B@			; CArrow_Up_Draw::`RTTI Complete Object Locator'
PUBLIC	??_R0?AVCArrow_Up_Draw@@@8			; CArrow_Up_Draw `RTTI Type Descriptor'
PUBLIC	??_R3CArrow_Up_Draw@@8				; CArrow_Up_Draw::`RTTI Class Hierarchy Descriptor'
PUBLIC	??_R2CArrow_Up_Draw@@8				; CArrow_Up_Draw::`RTTI Base Class Array'
PUBLIC	??_R1A@?0A@EA@CArrow_Up_Draw@@8			; CArrow_Up_Draw::`RTTI Base Class Descriptor at (0,-1,0,64)'
PUBLIC	??_R4CArrow_Down_Draw@@6B@			; CArrow_Down_Draw::`RTTI Complete Object Locator'
PUBLIC	??_R0?AVCArrow_Down_Draw@@@8			; CArrow_Down_Draw `RTTI Type Descriptor'
PUBLIC	??_R3CArrow_Down_Draw@@8			; CArrow_Down_Draw::`RTTI Class Hierarchy Descriptor'
PUBLIC	??_R2CArrow_Down_Draw@@8			; CArrow_Down_Draw::`RTTI Base Class Array'
PUBLIC	??_R1A@?0A@EA@CArrow_Down_Draw@@8		; CArrow_Down_Draw::`RTTI Base Class Descriptor at (0,-1,0,64)'
PUBLIC	??_R4CArrow_LeftTop_Draw@@6B@			; CArrow_LeftTop_Draw::`RTTI Complete Object Locator'
PUBLIC	??_R0?AVCArrow_LeftTop_Draw@@@8			; CArrow_LeftTop_Draw `RTTI Type Descriptor'
PUBLIC	??_R3CArrow_LeftTop_Draw@@8			; CArrow_LeftTop_Draw::`RTTI Class Hierarchy Descriptor'
PUBLIC	??_R2CArrow_LeftTop_Draw@@8			; CArrow_LeftTop_Draw::`RTTI Base Class Array'
PUBLIC	??_R1A@?0A@EA@CArrow_LeftTop_Draw@@8		; CArrow_LeftTop_Draw::`RTTI Base Class Descriptor at (0,-1,0,64)'
PUBLIC	??_R4CArrow_LeftBottom_Draw@@6B@		; CArrow_LeftBottom_Draw::`RTTI Complete Object Locator'
PUBLIC	??_R0?AVCArrow_LeftBottom_Draw@@@8		; CArrow_LeftBottom_Draw `RTTI Type Descriptor'
PUBLIC	??_R3CArrow_LeftBottom_Draw@@8			; CArrow_LeftBottom_Draw::`RTTI Class Hierarchy Descriptor'
PUBLIC	??_R2CArrow_LeftBottom_Draw@@8			; CArrow_LeftBottom_Draw::`RTTI Base Class Array'
PUBLIC	??_R1A@?0A@EA@CArrow_LeftBottom_Draw@@8		; CArrow_LeftBottom_Draw::`RTTI Base Class Descriptor at (0,-1,0,64)'
PUBLIC	??_R4CArrow_RightTop_Draw@@6B@			; CArrow_RightTop_Draw::`RTTI Complete Object Locator'
PUBLIC	??_R0?AVCArrow_RightTop_Draw@@@8		; CArrow_RightTop_Draw `RTTI Type Descriptor'
PUBLIC	??_R3CArrow_RightTop_Draw@@8			; CArrow_RightTop_Draw::`RTTI Class Hierarchy Descriptor'
PUBLIC	??_R2CArrow_RightTop_Draw@@8			; CArrow_RightTop_Draw::`RTTI Base Class Array'
PUBLIC	??_R1A@?0A@EA@CArrow_RightTop_Draw@@8		; CArrow_RightTop_Draw::`RTTI Base Class Descriptor at (0,-1,0,64)'
PUBLIC	??_R4CArrow_RightBottom_Draw@@6B@		; CArrow_RightBottom_Draw::`RTTI Complete Object Locator'
PUBLIC	??_R0?AVCArrow_RightBottom_Draw@@@8		; CArrow_RightBottom_Draw `RTTI Type Descriptor'
PUBLIC	??_R3CArrow_RightBottom_Draw@@8			; CArrow_RightBottom_Draw::`RTTI Class Hierarchy Descriptor'
PUBLIC	??_R2CArrow_RightBottom_Draw@@8			; CArrow_RightBottom_Draw::`RTTI Base Class Array'
PUBLIC	??_R1A@?0A@EA@CArrow_RightBottom_Draw@@8	; CArrow_RightBottom_Draw::`RTTI Base Class Descriptor at (0,-1,0,64)'
PUBLIC	??_R4CNumber_One_Draw@@6B@			; CNumber_One_Draw::`RTTI Complete Object Locator'
PUBLIC	??_R0?AVCNumber_One_Draw@@@8			; CNumber_One_Draw `RTTI Type Descriptor'
PUBLIC	??_R3CNumber_One_Draw@@8			; CNumber_One_Draw::`RTTI Class Hierarchy Descriptor'
PUBLIC	??_R2CNumber_One_Draw@@8			; CNumber_One_Draw::`RTTI Base Class Array'
PUBLIC	??_R1A@?0A@EA@CNumber_One_Draw@@8		; CNumber_One_Draw::`RTTI Base Class Descriptor at (0,-1,0,64)'
PUBLIC	??_R4CNumber_Two_Draw@@6B@			; CNumber_Two_Draw::`RTTI Complete Object Locator'
PUBLIC	??_R0?AVCNumber_Two_Draw@@@8			; CNumber_Two_Draw `RTTI Type Descriptor'
PUBLIC	??_R3CNumber_Two_Draw@@8			; CNumber_Two_Draw::`RTTI Class Hierarchy Descriptor'
PUBLIC	??_R2CNumber_Two_Draw@@8			; CNumber_Two_Draw::`RTTI Base Class Array'
PUBLIC	??_R1A@?0A@EA@CNumber_Two_Draw@@8		; CNumber_Two_Draw::`RTTI Base Class Descriptor at (0,-1,0,64)'
PUBLIC	??_R4CNumber_Three_Draw@@6B@			; CNumber_Three_Draw::`RTTI Complete Object Locator'
PUBLIC	??_R0?AVCNumber_Three_Draw@@@8			; CNumber_Three_Draw `RTTI Type Descriptor'
PUBLIC	??_R3CNumber_Three_Draw@@8			; CNumber_Three_Draw::`RTTI Class Hierarchy Descriptor'
PUBLIC	??_R2CNumber_Three_Draw@@8			; CNumber_Three_Draw::`RTTI Base Class Array'
PUBLIC	??_R1A@?0A@EA@CNumber_Three_Draw@@8		; CNumber_Three_Draw::`RTTI Base Class Descriptor at (0,-1,0,64)'
PUBLIC	??_R4CNumber_Four_Draw@@6B@			; CNumber_Four_Draw::`RTTI Complete Object Locator'
PUBLIC	??_R0?AVCNumber_Four_Draw@@@8			; CNumber_Four_Draw `RTTI Type Descriptor'
PUBLIC	??_R3CNumber_Four_Draw@@8			; CNumber_Four_Draw::`RTTI Class Hierarchy Descriptor'
PUBLIC	??_R2CNumber_Four_Draw@@8			; CNumber_Four_Draw::`RTTI Base Class Array'
PUBLIC	??_R1A@?0A@EA@CNumber_Four_Draw@@8		; CNumber_Four_Draw::`RTTI Base Class Descriptor at (0,-1,0,64)'
PUBLIC	??_R4CNumber_Five_Draw@@6B@			; CNumber_Five_Draw::`RTTI Complete Object Locator'
PUBLIC	??_R0?AVCNumber_Five_Draw@@@8			; CNumber_Five_Draw `RTTI Type Descriptor'
PUBLIC	??_R3CNumber_Five_Draw@@8			; CNumber_Five_Draw::`RTTI Class Hierarchy Descriptor'
PUBLIC	??_R2CNumber_Five_Draw@@8			; CNumber_Five_Draw::`RTTI Base Class Array'
PUBLIC	??_R1A@?0A@EA@CNumber_Five_Draw@@8		; CNumber_Five_Draw::`RTTI Base Class Descriptor at (0,-1,0,64)'
PUBLIC	??_R4CNumber_Six_Draw@@6B@			; CNumber_Six_Draw::`RTTI Complete Object Locator'
PUBLIC	??_R0?AVCNumber_Six_Draw@@@8			; CNumber_Six_Draw `RTTI Type Descriptor'
PUBLIC	??_R3CNumber_Six_Draw@@8			; CNumber_Six_Draw::`RTTI Class Hierarchy Descriptor'
PUBLIC	??_R2CNumber_Six_Draw@@8			; CNumber_Six_Draw::`RTTI Base Class Array'
PUBLIC	??_R1A@?0A@EA@CNumber_Six_Draw@@8		; CNumber_Six_Draw::`RTTI Base Class Descriptor at (0,-1,0,64)'
PUBLIC	??_R4CNumber_Seven_Draw@@6B@			; CNumber_Seven_Draw::`RTTI Complete Object Locator'
PUBLIC	??_R0?AVCNumber_Seven_Draw@@@8			; CNumber_Seven_Draw `RTTI Type Descriptor'
PUBLIC	??_R3CNumber_Seven_Draw@@8			; CNumber_Seven_Draw::`RTTI Class Hierarchy Descriptor'
PUBLIC	??_R2CNumber_Seven_Draw@@8			; CNumber_Seven_Draw::`RTTI Base Class Array'
PUBLIC	??_R1A@?0A@EA@CNumber_Seven_Draw@@8		; CNumber_Seven_Draw::`RTTI Base Class Descriptor at (0,-1,0,64)'
PUBLIC	??_R4CNumber_Eight_Draw@@6B@			; CNumber_Eight_Draw::`RTTI Complete Object Locator'
PUBLIC	??_R0?AVCNumber_Eight_Draw@@@8			; CNumber_Eight_Draw `RTTI Type Descriptor'
PUBLIC	??_R3CNumber_Eight_Draw@@8			; CNumber_Eight_Draw::`RTTI Class Hierarchy Descriptor'
PUBLIC	??_R2CNumber_Eight_Draw@@8			; CNumber_Eight_Draw::`RTTI Base Class Array'
PUBLIC	??_R1A@?0A@EA@CNumber_Eight_Draw@@8		; CNumber_Eight_Draw::`RTTI Base Class Descriptor at (0,-1,0,64)'
PUBLIC	??_R4CNumber_Nine_Draw@@6B@			; CNumber_Nine_Draw::`RTTI Complete Object Locator'
PUBLIC	??_R0?AVCNumber_Nine_Draw@@@8			; CNumber_Nine_Draw `RTTI Type Descriptor'
PUBLIC	??_R3CNumber_Nine_Draw@@8			; CNumber_Nine_Draw::`RTTI Class Hierarchy Descriptor'
PUBLIC	??_R2CNumber_Nine_Draw@@8			; CNumber_Nine_Draw::`RTTI Base Class Array'
PUBLIC	??_R1A@?0A@EA@CNumber_Nine_Draw@@8		; CNumber_Nine_Draw::`RTTI Base Class Descriptor at (0,-1,0,64)'
PUBLIC	??_R4CText_A_Draw@@6B@				; CText_A_Draw::`RTTI Complete Object Locator'
PUBLIC	??_R0?AVCText_A_Draw@@@8			; CText_A_Draw `RTTI Type Descriptor'
PUBLIC	??_R3CText_A_Draw@@8				; CText_A_Draw::`RTTI Class Hierarchy Descriptor'
PUBLIC	??_R2CText_A_Draw@@8				; CText_A_Draw::`RTTI Base Class Array'
PUBLIC	??_R1A@?0A@EA@CText_A_Draw@@8			; CText_A_Draw::`RTTI Base Class Descriptor at (0,-1,0,64)'
PUBLIC	??_R4CText_B_Draw@@6B@				; CText_B_Draw::`RTTI Complete Object Locator'
PUBLIC	??_R0?AVCText_B_Draw@@@8			; CText_B_Draw `RTTI Type Descriptor'
PUBLIC	??_R3CText_B_Draw@@8				; CText_B_Draw::`RTTI Class Hierarchy Descriptor'
PUBLIC	??_R2CText_B_Draw@@8				; CText_B_Draw::`RTTI Base Class Array'
PUBLIC	??_R1A@?0A@EA@CText_B_Draw@@8			; CText_B_Draw::`RTTI Base Class Descriptor at (0,-1,0,64)'
PUBLIC	??_R4CText_C_Draw@@6B@				; CText_C_Draw::`RTTI Complete Object Locator'
PUBLIC	??_R0?AVCText_C_Draw@@@8			; CText_C_Draw `RTTI Type Descriptor'
PUBLIC	??_R3CText_C_Draw@@8				; CText_C_Draw::`RTTI Class Hierarchy Descriptor'
PUBLIC	??_R2CText_C_Draw@@8				; CText_C_Draw::`RTTI Base Class Array'
PUBLIC	??_R1A@?0A@EA@CText_C_Draw@@8			; CText_C_Draw::`RTTI Base Class Descriptor at (0,-1,0,64)'
PUBLIC	??_R4CText_D_Draw@@6B@				; CText_D_Draw::`RTTI Complete Object Locator'
PUBLIC	??_R0?AVCText_D_Draw@@@8			; CText_D_Draw `RTTI Type Descriptor'
PUBLIC	??_R3CText_D_Draw@@8				; CText_D_Draw::`RTTI Class Hierarchy Descriptor'
PUBLIC	??_R2CText_D_Draw@@8				; CText_D_Draw::`RTTI Base Class Array'
PUBLIC	??_R1A@?0A@EA@CText_D_Draw@@8			; CText_D_Draw::`RTTI Base Class Descriptor at (0,-1,0,64)'
PUBLIC	??_R4CText_E_Draw@@6B@				; CText_E_Draw::`RTTI Complete Object Locator'
PUBLIC	??_R0?AVCText_E_Draw@@@8			; CText_E_Draw `RTTI Type Descriptor'
PUBLIC	??_R3CText_E_Draw@@8				; CText_E_Draw::`RTTI Class Hierarchy Descriptor'
PUBLIC	??_R2CText_E_Draw@@8				; CText_E_Draw::`RTTI Base Class Array'
PUBLIC	??_R1A@?0A@EA@CText_E_Draw@@8			; CText_E_Draw::`RTTI Base Class Descriptor at (0,-1,0,64)'
PUBLIC	??_R4CText_F_Draw@@6B@				; CText_F_Draw::`RTTI Complete Object Locator'
PUBLIC	??_R0?AVCText_F_Draw@@@8			; CText_F_Draw `RTTI Type Descriptor'
PUBLIC	??_R3CText_F_Draw@@8				; CText_F_Draw::`RTTI Class Hierarchy Descriptor'
PUBLIC	??_R2CText_F_Draw@@8				; CText_F_Draw::`RTTI Base Class Array'
PUBLIC	??_R1A@?0A@EA@CText_F_Draw@@8			; CText_F_Draw::`RTTI Base Class Descriptor at (0,-1,0,64)'
PUBLIC	??_R4CText_G_Draw@@6B@				; CText_G_Draw::`RTTI Complete Object Locator'
PUBLIC	??_R0?AVCText_G_Draw@@@8			; CText_G_Draw `RTTI Type Descriptor'
PUBLIC	??_R3CText_G_Draw@@8				; CText_G_Draw::`RTTI Class Hierarchy Descriptor'
PUBLIC	??_R2CText_G_Draw@@8				; CText_G_Draw::`RTTI Base Class Array'
PUBLIC	??_R1A@?0A@EA@CText_G_Draw@@8			; CText_G_Draw::`RTTI Base Class Descriptor at (0,-1,0,64)'
PUBLIC	??_R4CText_H_Draw@@6B@				; CText_H_Draw::`RTTI Complete Object Locator'
PUBLIC	??_R0?AVCText_H_Draw@@@8			; CText_H_Draw `RTTI Type Descriptor'
PUBLIC	??_R3CText_H_Draw@@8				; CText_H_Draw::`RTTI Class Hierarchy Descriptor'
PUBLIC	??_R2CText_H_Draw@@8				; CText_H_Draw::`RTTI Base Class Array'
PUBLIC	??_R1A@?0A@EA@CText_H_Draw@@8			; CText_H_Draw::`RTTI Base Class Descriptor at (0,-1,0,64)'
PUBLIC	??_R4CChar_1_Draw@@6B@				; CChar_1_Draw::`RTTI Complete Object Locator'
PUBLIC	??_R0?AVCChar_1_Draw@@@8			; CChar_1_Draw `RTTI Type Descriptor'
PUBLIC	??_R3CChar_1_Draw@@8				; CChar_1_Draw::`RTTI Class Hierarchy Descriptor'
PUBLIC	??_R2CChar_1_Draw@@8				; CChar_1_Draw::`RTTI Base Class Array'
PUBLIC	??_R1A@?0A@EA@CChar_1_Draw@@8			; CChar_1_Draw::`RTTI Base Class Descriptor at (0,-1,0,64)'
PUBLIC	??_R4CChar_2_Draw@@6B@				; CChar_2_Draw::`RTTI Complete Object Locator'
PUBLIC	??_R0?AVCChar_2_Draw@@@8			; CChar_2_Draw `RTTI Type Descriptor'
PUBLIC	??_R3CChar_2_Draw@@8				; CChar_2_Draw::`RTTI Class Hierarchy Descriptor'
PUBLIC	??_R2CChar_2_Draw@@8				; CChar_2_Draw::`RTTI Base Class Array'
PUBLIC	??_R1A@?0A@EA@CChar_2_Draw@@8			; CChar_2_Draw::`RTTI Base Class Descriptor at (0,-1,0,64)'
PUBLIC	??_R4CChar_3_Draw@@6B@				; CChar_3_Draw::`RTTI Complete Object Locator'
PUBLIC	??_R0?AVCChar_3_Draw@@@8			; CChar_3_Draw `RTTI Type Descriptor'
PUBLIC	??_R3CChar_3_Draw@@8				; CChar_3_Draw::`RTTI Class Hierarchy Descriptor'
PUBLIC	??_R2CChar_3_Draw@@8				; CChar_3_Draw::`RTTI Base Class Array'
PUBLIC	??_R1A@?0A@EA@CChar_3_Draw@@8			; CChar_3_Draw::`RTTI Base Class Descriptor at (0,-1,0,64)'
PUBLIC	??_R4CChar_4_Draw@@6B@				; CChar_4_Draw::`RTTI Complete Object Locator'
PUBLIC	??_R0?AVCChar_4_Draw@@@8			; CChar_4_Draw `RTTI Type Descriptor'
PUBLIC	??_R3CChar_4_Draw@@8				; CChar_4_Draw::`RTTI Class Hierarchy Descriptor'
PUBLIC	??_R2CChar_4_Draw@@8				; CChar_4_Draw::`RTTI Base Class Array'
PUBLIC	??_R1A@?0A@EA@CChar_4_Draw@@8			; CChar_4_Draw::`RTTI Base Class Descriptor at (0,-1,0,64)'
PUBLIC	??_R4CChar_5_Draw@@6B@				; CChar_5_Draw::`RTTI Complete Object Locator'
PUBLIC	??_R0?AVCChar_5_Draw@@@8			; CChar_5_Draw `RTTI Type Descriptor'
PUBLIC	??_R3CChar_5_Draw@@8				; CChar_5_Draw::`RTTI Class Hierarchy Descriptor'
PUBLIC	??_R2CChar_5_Draw@@8				; CChar_5_Draw::`RTTI Base Class Array'
PUBLIC	??_R1A@?0A@EA@CChar_5_Draw@@8			; CChar_5_Draw::`RTTI Base Class Descriptor at (0,-1,0,64)'
PUBLIC	??_R4CChar_6_Draw@@6B@				; CChar_6_Draw::`RTTI Complete Object Locator'
PUBLIC	??_R0?AVCChar_6_Draw@@@8			; CChar_6_Draw `RTTI Type Descriptor'
PUBLIC	??_R3CChar_6_Draw@@8				; CChar_6_Draw::`RTTI Class Hierarchy Descriptor'
PUBLIC	??_R2CChar_6_Draw@@8				; CChar_6_Draw::`RTTI Base Class Array'
PUBLIC	??_R1A@?0A@EA@CChar_6_Draw@@8			; CChar_6_Draw::`RTTI Base Class Descriptor at (0,-1,0,64)'
PUBLIC	??_R4CSymbolTool_OnePoint_Size@@6B@		; CSymbolTool_OnePoint_Size::`RTTI Complete Object Locator'
PUBLIC	??_R4CSymbolTool_TwoPoint@@6B@			; CSymbolTool_TwoPoint::`RTTI Complete Object Locator'
EXTRN	__purecall:PROC
EXTRN	??2@YAPAXI@Z:PROC				; operator new
EXTRN	??3@YAXPAXI@Z:PROC				; operator delete
EXTRN	?Draw@CFigure_Square_Draw@@UAE?AVCRect@@PAVCDC@@ABKABH2ABUtagLOGFONTA@@_NABVCPoint@@5ABV2@4@Z:PROC ; CFigure_Square_Draw::Draw
EXTRN	?DrawRectangle@CFigure_Square_Draw@@UAEXPAVCDC@@ABVCPoint@@1ABVCRect@@@Z:PROC ; CFigure_Square_Draw::DrawRectangle
EXTRN	?Draw@CFigure_Circle_Draw@@UAE?AVCRect@@PAVCDC@@ABKABH2ABUtagLOGFONTA@@_NABVCPoint@@5ABV2@4@Z:PROC ; CFigure_Circle_Draw::Draw
EXTRN	?DrawRectangle@CFigure_Circle_Draw@@UAEXPAVCDC@@ABVCPoint@@1ABVCRect@@@Z:PROC ; CFigure_Circle_Draw::DrawRectangle
EXTRN	?Draw@CFigure_Triangle_Draw@@UAE?AVCRect@@PAVCDC@@ABKABH2ABUtagLOGFONTA@@_NABVCPoint@@5ABV2@4@Z:PROC ; CFigure_Triangle_Draw::Draw
EXTRN	?DrawRectangle@CFigure_Triangle_Draw@@UAEXPAVCDC@@ABVCPoint@@1ABVCRect@@@Z:PROC ; CFigure_Triangle_Draw::DrawRectangle
EXTRN	??0CTextDraw@@QAE@XZ:PROC			; CTextDraw::CTextDraw
EXTRN	??1CTextDraw@@UAE@XZ:PROC			; CTextDraw::~CTextDraw
EXTRN	?Draw@CArrow_Left_Draw@@UAE?AVCSize@@PAVCDC@@ABKABUtagLOGFONTA@@1ABW4SIZETYPE@CSymbolBaseData@@ABVCPoint@@ABVCRect@@@Z:PROC ; CArrow_Left_Draw::Draw
EXTRN	?Draw@CArrow_Right_Draw@@UAE?AVCSize@@PAVCDC@@ABKABUtagLOGFONTA@@1ABW4SIZETYPE@CSymbolBaseData@@ABVCPoint@@ABVCRect@@@Z:PROC ; CArrow_Right_Draw::Draw
EXTRN	?Draw@CArrow_Up_Draw@@UAE?AVCSize@@PAVCDC@@ABKABUtagLOGFONTA@@1ABW4SIZETYPE@CSymbolBaseData@@ABVCPoint@@ABVCRect@@@Z:PROC ; CArrow_Up_Draw::Draw
EXTRN	?Draw@CArrow_Down_Draw@@UAE?AVCSize@@PAVCDC@@ABKABUtagLOGFONTA@@1ABW4SIZETYPE@CSymbolBaseData@@ABVCPoint@@ABVCRect@@@Z:PROC ; CArrow_Down_Draw::Draw
EXTRN	?Draw@CArrow_LeftTop_Draw@@UAE?AVCSize@@PAVCDC@@ABKABUtagLOGFONTA@@1ABW4SIZETYPE@CSymbolBaseData@@ABVCPoint@@ABVCRect@@@Z:PROC ; CArrow_LeftTop_Draw::Draw
EXTRN	?Draw@CArrow_LeftBottom_Draw@@UAE?AVCSize@@PAVCDC@@ABKABUtagLOGFONTA@@1ABW4SIZETYPE@CSymbolBaseData@@ABVCPoint@@ABVCRect@@@Z:PROC ; CArrow_LeftBottom_Draw::Draw
EXTRN	?Draw@CArrow_RightTop_Draw@@UAE?AVCSize@@PAVCDC@@ABKABUtagLOGFONTA@@1ABW4SIZETYPE@CSymbolBaseData@@ABVCPoint@@ABVCRect@@@Z:PROC ; CArrow_RightTop_Draw::Draw
EXTRN	?Draw@CArrow_RightBottom_Draw@@UAE?AVCSize@@PAVCDC@@ABKABUtagLOGFONTA@@1ABW4SIZETYPE@CSymbolBaseData@@ABVCPoint@@ABVCRect@@@Z:PROC ; CArrow_RightBottom_Draw::Draw
EXTRN	?Draw@CNumber_One_Draw@@UAE?AVCSize@@PAVCDC@@ABKABUtagLOGFONTA@@1ABW4SIZETYPE@CSymbolBaseData@@ABVCPoint@@ABVCRect@@@Z:PROC ; CNumber_One_Draw::Draw
EXTRN	?Draw@CNumber_Two_Draw@@UAE?AVCSize@@PAVCDC@@ABKABUtagLOGFONTA@@1ABW4SIZETYPE@CSymbolBaseData@@ABVCPoint@@ABVCRect@@@Z:PROC ; CNumber_Two_Draw::Draw
EXTRN	?Draw@CNumber_Three_Draw@@UAE?AVCSize@@PAVCDC@@ABKABUtagLOGFONTA@@1ABW4SIZETYPE@CSymbolBaseData@@ABVCPoint@@ABVCRect@@@Z:PROC ; CNumber_Three_Draw::Draw
EXTRN	?Draw@CNumber_Four_Draw@@UAE?AVCSize@@PAVCDC@@ABKABUtagLOGFONTA@@1ABW4SIZETYPE@CSymbolBaseData@@ABVCPoint@@ABVCRect@@@Z:PROC ; CNumber_Four_Draw::Draw
EXTRN	?Draw@CNumber_Five_Draw@@UAE?AVCSize@@PAVCDC@@ABKABUtagLOGFONTA@@1ABW4SIZETYPE@CSymbolBaseData@@ABVCPoint@@ABVCRect@@@Z:PROC ; CNumber_Five_Draw::Draw
EXTRN	?Draw@CNumber_Six_Draw@@UAE?AVCSize@@PAVCDC@@ABKABUtagLOGFONTA@@1ABW4SIZETYPE@CSymbolBaseData@@ABVCPoint@@ABVCRect@@@Z:PROC ; CNumber_Six_Draw::Draw
EXTRN	?Draw@CNumber_Seven_Draw@@UAE?AVCSize@@PAVCDC@@ABKABUtagLOGFONTA@@1ABW4SIZETYPE@CSymbolBaseData@@ABVCPoint@@ABVCRect@@@Z:PROC ; CNumber_Seven_Draw::Draw
EXTRN	?Draw@CNumber_Eight_Draw@@UAE?AVCSize@@PAVCDC@@ABKABUtagLOGFONTA@@1ABW4SIZETYPE@CSymbolBaseData@@ABVCPoint@@ABVCRect@@@Z:PROC ; CNumber_Eight_Draw::Draw
EXTRN	?Draw@CNumber_Nine_Draw@@UAE?AVCSize@@PAVCDC@@ABKABUtagLOGFONTA@@1ABW4SIZETYPE@CSymbolBaseData@@ABVCPoint@@ABVCRect@@@Z:PROC ; CNumber_Nine_Draw::Draw
EXTRN	?Draw@CText_A_Draw@@UAE?AVCSize@@PAVCDC@@ABKABUtagLOGFONTA@@1ABW4SIZETYPE@CSymbolBaseData@@ABVCPoint@@ABVCRect@@@Z:PROC ; CText_A_Draw::Draw
EXTRN	?Draw@CText_B_Draw@@UAE?AVCSize@@PAVCDC@@ABKABUtagLOGFONTA@@1ABW4SIZETYPE@CSymbolBaseData@@ABVCPoint@@ABVCRect@@@Z:PROC ; CText_B_Draw::Draw
EXTRN	?Draw@CText_C_Draw@@UAE?AVCSize@@PAVCDC@@ABKABUtagLOGFONTA@@1ABW4SIZETYPE@CSymbolBaseData@@ABVCPoint@@ABVCRect@@@Z:PROC ; CText_C_Draw::Draw
EXTRN	?Draw@CText_D_Draw@@UAE?AVCSize@@PAVCDC@@ABKABUtagLOGFONTA@@1ABW4SIZETYPE@CSymbolBaseData@@ABVCPoint@@ABVCRect@@@Z:PROC ; CText_D_Draw::Draw
EXTRN	?Draw@CText_E_Draw@@UAE?AVCSize@@PAVCDC@@ABKABUtagLOGFONTA@@1ABW4SIZETYPE@CSymbolBaseData@@ABVCPoint@@ABVCRect@@@Z:PROC ; CText_E_Draw::Draw
EXTRN	?Draw@CText_F_Draw@@UAE?AVCSize@@PAVCDC@@ABKABUtagLOGFONTA@@1ABW4SIZETYPE@CSymbolBaseData@@ABVCPoint@@ABVCRect@@@Z:PROC ; CText_F_Draw::Draw
EXTRN	?Draw@CText_G_Draw@@UAE?AVCSize@@PAVCDC@@ABKABUtagLOGFONTA@@1ABW4SIZETYPE@CSymbolBaseData@@ABVCPoint@@ABVCRect@@@Z:PROC ; CText_G_Draw::Draw
EXTRN	?Draw@CText_H_Draw@@UAE?AVCSize@@PAVCDC@@ABKABUtagLOGFONTA@@1ABW4SIZETYPE@CSymbolBaseData@@ABVCPoint@@ABVCRect@@@Z:PROC ; CText_H_Draw::Draw
EXTRN	?Draw@CChar_1_Draw@@UAE?AVCSize@@PAVCDC@@ABKABUtagLOGFONTA@@1ABW4SIZETYPE@CSymbolBaseData@@ABVCPoint@@ABVCRect@@@Z:PROC ; CChar_1_Draw::Draw
EXTRN	?Draw@CChar_2_Draw@@UAE?AVCSize@@PAVCDC@@ABKABUtagLOGFONTA@@1ABW4SIZETYPE@CSymbolBaseData@@ABVCPoint@@ABVCRect@@@Z:PROC ; CChar_2_Draw::Draw
EXTRN	?Draw@CChar_3_Draw@@UAE?AVCSize@@PAVCDC@@ABKABUtagLOGFONTA@@1ABW4SIZETYPE@CSymbolBaseData@@ABVCPoint@@ABVCRect@@@Z:PROC ; CChar_3_Draw::Draw
EXTRN	?Draw@CChar_4_Draw@@UAE?AVCSize@@PAVCDC@@ABKABUtagLOGFONTA@@1ABW4SIZETYPE@CSymbolBaseData@@ABVCPoint@@ABVCRect@@@Z:PROC ; CChar_4_Draw::Draw
EXTRN	?Draw@CChar_5_Draw@@UAE?AVCSize@@PAVCDC@@ABKABUtagLOGFONTA@@1ABW4SIZETYPE@CSymbolBaseData@@ABVCPoint@@ABVCRect@@@Z:PROC ; CChar_5_Draw::Draw
EXTRN	?Draw@CChar_6_Draw@@UAE?AVCSize@@PAVCDC@@ABKABUtagLOGFONTA@@1ABW4SIZETYPE@CSymbolBaseData@@ABVCPoint@@ABVCRect@@@Z:PROC ; CChar_6_Draw::Draw
EXTRN	??0CSymbolTool@@QAE@XZ:PROC			; CSymbolTool::CSymbolTool
EXTRN	?IsPointInBlock@CSymbolTool@@UAE_NABVCRect@@ABVCPoint@@@Z:PROC ; CSymbolTool::IsPointInBlock
EXTRN	?SetSymbolData@CSymbolTool@@QAEXPAVCSymbolData@@@Z:PROC ; CSymbolTool::SetSymbolData
EXTRN	?Initial@CSymbolTool_OnePoint_Size@@UAEXXZ:PROC	; CSymbolTool_OnePoint_Size::Initial
EXTRN	?OnLButtonDown@CSymbolTool_OnePoint_Size@@UAEPAVCDrawingSymbol@@PAVCDC@@ABVCPoint@@@Z:PROC ; CSymbolTool_OnePoint_Size::OnLButtonDown
EXTRN	?OnMouseMove@CSymbolTool_OnePoint_Size@@UAE_NPAVCDC@@ABIABVCPoint@@@Z:PROC ; CSymbolTool_OnePoint_Size::OnMouseMove
EXTRN	?OnDraw@CSymbolTool_OnePoint_Size@@UAEXPAVCDC@@@Z:PROC ; CSymbolTool_OnePoint_Size::OnDraw
EXTRN	?SavePointAndDraw@CSymbolTool_OnePoint_Size@@MAEXPAVCDC@@ABVCPoint@@H@Z:PROC ; CSymbolTool_OnePoint_Size::SavePointAndDraw
EXTRN	?AddElement@CSymbolTool_OnePoint_Size@@MAEXW4TOOLTYPE@CSymbolBaseData@@ABVCPoint@@@Z:PROC ; CSymbolTool_OnePoint_Size::AddElement
EXTRN	?OnDraw@CSymbolTool_TwoPoint@@UAEXPAVCDC@@@Z:PROC ; CSymbolTool_TwoPoint::OnDraw
EXTRN	?Initial@CSymbolTool_TwoPoint@@UAEXXZ:PROC	; CSymbolTool_TwoPoint::Initial
EXTRN	?OnLButtonDown@CSymbolTool_TwoPoint@@UAEPAVCDrawingSymbol@@PAVCDC@@ABVCPoint@@@Z:PROC ; CSymbolTool_TwoPoint::OnLButtonDown
EXTRN	?OnMouseMove@CSymbolTool_TwoPoint@@UAE_NPAVCDC@@ABIABVCPoint@@@Z:PROC ; CSymbolTool_TwoPoint::OnMouseMove
EXTRN	?SavePointAndDraw@CSymbolTool_TwoPoint@@MAEXPAVCDC@@ABVCPoint@@H@Z:PROC ; CSymbolTool_TwoPoint::SavePointAndDraw
EXTRN	?AddElement@CSymbolTool_TwoPoint@@MAEXW4TOOLTYPE@CSymbolBaseData@@ABVCPoint@@@Z:PROC ; CSymbolTool_TwoPoint::AddElement
EXTRN	??0CSelectTool@@QAE@XZ:PROC			; CSelectTool::CSelectTool
EXTRN	?OnLButtonDown@CFigure_Square_Tool@@UAEPAVCDrawingSymbol@@PAVCDC@@ABVCPoint@@@Z:PROC ; CFigure_Square_Tool::OnLButtonDown
EXTRN	?OnLButtonUp@CFigure_Square_Tool@@UAEXPAVCDC@@ABVCPoint@@@Z:PROC ; CFigure_Square_Tool::OnLButtonUp
EXTRN	?OnMouseMove@CFigure_Square_Tool@@UAE_NPAVCDC@@ABIABVCPoint@@@Z:PROC ; CFigure_Square_Tool::OnMouseMove
EXTRN	?GetTwoPointDrawer@CFigure_Square_Tool@@MAEAAVCSymbolDraw_TwoPoint@@XZ:PROC ; CFigure_Square_Tool::GetTwoPointDrawer
EXTRN	?OnLButtonDown@CFigure_Circle_Tool@@UAEPAVCDrawingSymbol@@PAVCDC@@ABVCPoint@@@Z:PROC ; CFigure_Circle_Tool::OnLButtonDown
EXTRN	?OnLButtonUp@CFigure_Circle_Tool@@UAEXPAVCDC@@ABVCPoint@@@Z:PROC ; CFigure_Circle_Tool::OnLButtonUp
EXTRN	?OnMouseMove@CFigure_Circle_Tool@@UAE_NPAVCDC@@ABIABVCPoint@@@Z:PROC ; CFigure_Circle_Tool::OnMouseMove
EXTRN	?GetTwoPointDrawer@CFigure_Circle_Tool@@MAEAAVCSymbolDraw_TwoPoint@@XZ:PROC ; CFigure_Circle_Tool::GetTwoPointDrawer
EXTRN	?OnLButtonDown@CFigure_Triangle_Tool@@UAEPAVCDrawingSymbol@@PAVCDC@@ABVCPoint@@@Z:PROC ; CFigure_Triangle_Tool::OnLButtonDown
EXTRN	?OnLButtonUp@CFigure_Triangle_Tool@@UAEXPAVCDC@@ABVCPoint@@@Z:PROC ; CFigure_Triangle_Tool::OnLButtonUp
EXTRN	?OnMouseMove@CFigure_Triangle_Tool@@UAE_NPAVCDC@@ABIABVCPoint@@@Z:PROC ; CFigure_Triangle_Tool::OnMouseMove
EXTRN	?GetTwoPointDrawer@CFigure_Triangle_Tool@@MAEAAVCSymbolDraw_TwoPoint@@XZ:PROC ; CFigure_Triangle_Tool::GetTwoPointDrawer
EXTRN	?OnLButtonDown@CTextTool@@UAEPAVCDrawingSymbol@@PAVCDC@@ABVCPoint@@@Z:PROC ; CTextTool::OnLButtonDown
EXTRN	?OnLButtonUp@CTextTool@@UAEXPAVCDC@@ABVCPoint@@@Z:PROC ; CTextTool::OnLButtonUp
EXTRN	?IsPointInBlock@CTextTool@@UAE_NABVCRect@@ABVCPoint@@@Z:PROC ; CTextTool::IsPointInBlock
EXTRN	?GetOnePointDrawer@CTextTool@@MAEAAVCSymbolDraw_OnePoint_Size@@XZ:PROC ; CTextTool::GetOnePointDrawer
EXTRN	?OnLButtonDown@CArrow_Left_Tool@@UAEPAVCDrawingSymbol@@PAVCDC@@ABVCPoint@@@Z:PROC ; CArrow_Left_Tool::OnLButtonDown
EXTRN	?OnLButtonUp@CArrow_Left_Tool@@UAEXPAVCDC@@ABVCPoint@@@Z:PROC ; CArrow_Left_Tool::OnLButtonUp
EXTRN	?GetOnePointDrawer@CArrow_Left_Tool@@MAEAAVCSymbolDraw_OnePoint_Size@@XZ:PROC ; CArrow_Left_Tool::GetOnePointDrawer
EXTRN	?OnLButtonDown@CArrow_Right_Tool@@UAEPAVCDrawingSymbol@@PAVCDC@@ABVCPoint@@@Z:PROC ; CArrow_Right_Tool::OnLButtonDown
EXTRN	?OnLButtonUp@CArrow_Right_Tool@@UAEXPAVCDC@@ABVCPoint@@@Z:PROC ; CArrow_Right_Tool::OnLButtonUp
EXTRN	?GetOnePointDrawer@CArrow_Right_Tool@@MAEAAVCSymbolDraw_OnePoint_Size@@XZ:PROC ; CArrow_Right_Tool::GetOnePointDrawer
EXTRN	?OnLButtonDown@CArrow_Up_Tool@@UAEPAVCDrawingSymbol@@PAVCDC@@ABVCPoint@@@Z:PROC ; CArrow_Up_Tool::OnLButtonDown
EXTRN	?OnLButtonUp@CArrow_Up_Tool@@UAEXPAVCDC@@ABVCPoint@@@Z:PROC ; CArrow_Up_Tool::OnLButtonUp
EXTRN	?GetOnePointDrawer@CArrow_Up_Tool@@MAEAAVCSymbolDraw_OnePoint_Size@@XZ:PROC ; CArrow_Up_Tool::GetOnePointDrawer
EXTRN	?OnLButtonDown@CArrow_Down_Tool@@UAEPAVCDrawingSymbol@@PAVCDC@@ABVCPoint@@@Z:PROC ; CArrow_Down_Tool::OnLButtonDown
EXTRN	?OnLButtonUp@CArrow_Down_Tool@@UAEXPAVCDC@@ABVCPoint@@@Z:PROC ; CArrow_Down_Tool::OnLButtonUp
EXTRN	?GetOnePointDrawer@CArrow_Down_Tool@@MAEAAVCSymbolDraw_OnePoint_Size@@XZ:PROC ; CArrow_Down_Tool::GetOnePointDrawer
EXTRN	?OnLButtonDown@CArrow_LeftTop_Tool@@UAEPAVCDrawingSymbol@@PAVCDC@@ABVCPoint@@@Z:PROC ; CArrow_LeftTop_Tool::OnLButtonDown
EXTRN	?OnLButtonUp@CArrow_LeftTop_Tool@@UAEXPAVCDC@@ABVCPoint@@@Z:PROC ; CArrow_LeftTop_Tool::OnLButtonUp
EXTRN	?GetOnePointDrawer@CArrow_LeftTop_Tool@@MAEAAVCSymbolDraw_OnePoint_Size@@XZ:PROC ; CArrow_LeftTop_Tool::GetOnePointDrawer
EXTRN	?OnLButtonDown@CArrow_LeftBottom_Tool@@UAEPAVCDrawingSymbol@@PAVCDC@@ABVCPoint@@@Z:PROC ; CArrow_LeftBottom_Tool::OnLButtonDown
EXTRN	?OnLButtonUp@CArrow_LeftBottom_Tool@@UAEXPAVCDC@@ABVCPoint@@@Z:PROC ; CArrow_LeftBottom_Tool::OnLButtonUp
EXTRN	?GetOnePointDrawer@CArrow_LeftBottom_Tool@@MAEAAVCSymbolDraw_OnePoint_Size@@XZ:PROC ; CArrow_LeftBottom_Tool::GetOnePointDrawer
EXTRN	?OnLButtonDown@CArrow_RightTop_Tool@@UAEPAVCDrawingSymbol@@PAVCDC@@ABVCPoint@@@Z:PROC ; CArrow_RightTop_Tool::OnLButtonDown
EXTRN	?OnLButtonUp@CArrow_RightTop_Tool@@UAEXPAVCDC@@ABVCPoint@@@Z:PROC ; CArrow_RightTop_Tool::OnLButtonUp
EXTRN	?GetOnePointDrawer@CArrow_RightTop_Tool@@MAEAAVCSymbolDraw_OnePoint_Size@@XZ:PROC ; CArrow_RightTop_Tool::GetOnePointDrawer
EXTRN	?OnLButtonDown@CArrow_RightBottom_Tool@@UAEPAVCDrawingSymbol@@PAVCDC@@ABVCPoint@@@Z:PROC ; CArrow_RightBottom_Tool::OnLButtonDown
EXTRN	?OnLButtonUp@CArrow_RightBottom_Tool@@UAEXPAVCDC@@ABVCPoint@@@Z:PROC ; CArrow_RightBottom_Tool::OnLButtonUp
EXTRN	?GetOnePointDrawer@CArrow_RightBottom_Tool@@MAEAAVCSymbolDraw_OnePoint_Size@@XZ:PROC ; CArrow_RightBottom_Tool::GetOnePointDrawer
EXTRN	?OnLButtonDown@CNumber_One_Tool@@UAEPAVCDrawingSymbol@@PAVCDC@@ABVCPoint@@@Z:PROC ; CNumber_One_Tool::OnLButtonDown
EXTRN	?OnLButtonUp@CNumber_One_Tool@@UAEXPAVCDC@@ABVCPoint@@@Z:PROC ; CNumber_One_Tool::OnLButtonUp
EXTRN	?GetOnePointDrawer@CNumber_One_Tool@@MAEAAVCSymbolDraw_OnePoint_Size@@XZ:PROC ; CNumber_One_Tool::GetOnePointDrawer
EXTRN	?OnLButtonDown@CNumber_Two_Tool@@UAEPAVCDrawingSymbol@@PAVCDC@@ABVCPoint@@@Z:PROC ; CNumber_Two_Tool::OnLButtonDown
EXTRN	?OnLButtonUp@CNumber_Two_Tool@@UAEXPAVCDC@@ABVCPoint@@@Z:PROC ; CNumber_Two_Tool::OnLButtonUp
EXTRN	?GetOnePointDrawer@CNumber_Two_Tool@@MAEAAVCSymbolDraw_OnePoint_Size@@XZ:PROC ; CNumber_Two_Tool::GetOnePointDrawer
EXTRN	?OnLButtonDown@CNumber_Three_Tool@@UAEPAVCDrawingSymbol@@PAVCDC@@ABVCPoint@@@Z:PROC ; CNumber_Three_Tool::OnLButtonDown
EXTRN	?OnLButtonUp@CNumber_Three_Tool@@UAEXPAVCDC@@ABVCPoint@@@Z:PROC ; CNumber_Three_Tool::OnLButtonUp
EXTRN	?GetOnePointDrawer@CNumber_Three_Tool@@MAEAAVCSymbolDraw_OnePoint_Size@@XZ:PROC ; CNumber_Three_Tool::GetOnePointDrawer
EXTRN	?OnLButtonDown@CNumber_Four_Tool@@UAEPAVCDrawingSymbol@@PAVCDC@@ABVCPoint@@@Z:PROC ; CNumber_Four_Tool::OnLButtonDown
EXTRN	?OnLButtonUp@CNumber_Four_Tool@@UAEXPAVCDC@@ABVCPoint@@@Z:PROC ; CNumber_Four_Tool::OnLButtonUp
EXTRN	?GetOnePointDrawer@CNumber_Four_Tool@@MAEAAVCSymbolDraw_OnePoint_Size@@XZ:PROC ; CNumber_Four_Tool::GetOnePointDrawer
EXTRN	?OnLButtonDown@CNumber_Five_Tool@@UAEPAVCDrawingSymbol@@PAVCDC@@ABVCPoint@@@Z:PROC ; CNumber_Five_Tool::OnLButtonDown
EXTRN	?OnLButtonUp@CNumber_Five_Tool@@UAEXPAVCDC@@ABVCPoint@@@Z:PROC ; CNumber_Five_Tool::OnLButtonUp
EXTRN	?GetOnePointDrawer@CNumber_Five_Tool@@MAEAAVCSymbolDraw_OnePoint_Size@@XZ:PROC ; CNumber_Five_Tool::GetOnePointDrawer
EXTRN	?OnLButtonDown@CNumber_Six_Tool@@UAEPAVCDrawingSymbol@@PAVCDC@@ABVCPoint@@@Z:PROC ; CNumber_Six_Tool::OnLButtonDown
EXTRN	?OnLButtonUp@CNumber_Six_Tool@@UAEXPAVCDC@@ABVCPoint@@@Z:PROC ; CNumber_Six_Tool::OnLButtonUp
EXTRN	?GetOnePointDrawer@CNumber_Six_Tool@@MAEAAVCSymbolDraw_OnePoint_Size@@XZ:PROC ; CNumber_Six_Tool::GetOnePointDrawer
EXTRN	?OnLButtonDown@CNumber_Seven_Tool@@UAEPAVCDrawingSymbol@@PAVCDC@@ABVCPoint@@@Z:PROC ; CNumber_Seven_Tool::OnLButtonDown
EXTRN	?OnLButtonUp@CNumber_Seven_Tool@@UAEXPAVCDC@@ABVCPoint@@@Z:PROC ; CNumber_Seven_Tool::OnLButtonUp
EXTRN	?GetOnePointDrawer@CNumber_Seven_Tool@@MAEAAVCSymbolDraw_OnePoint_Size@@XZ:PROC ; CNumber_Seven_Tool::GetOnePointDrawer
EXTRN	?OnLButtonDown@CNumber_Eight_Tool@@UAEPAVCDrawingSymbol@@PAVCDC@@ABVCPoint@@@Z:PROC ; CNumber_Eight_Tool::OnLButtonDown
EXTRN	?OnLButtonUp@CNumber_Eight_Tool@@UAEXPAVCDC@@ABVCPoint@@@Z:PROC ; CNumber_Eight_Tool::OnLButtonUp
EXTRN	?GetOnePointDrawer@CNumber_Eight_Tool@@MAEAAVCSymbolDraw_OnePoint_Size@@XZ:PROC ; CNumber_Eight_Tool::GetOnePointDrawer
EXTRN	?OnLButtonDown@CNumber_Nine_Tool@@UAEPAVCDrawingSymbol@@PAVCDC@@ABVCPoint@@@Z:PROC ; CNumber_Nine_Tool::OnLButtonDown
EXTRN	?OnLButtonUp@CNumber_Nine_Tool@@UAEXPAVCDC@@ABVCPoint@@@Z:PROC ; CNumber_Nine_Tool::OnLButtonUp
EXTRN	?GetOnePointDrawer@CNumber_Nine_Tool@@MAEAAVCSymbolDraw_OnePoint_Size@@XZ:PROC ; CNumber_Nine_Tool::GetOnePointDrawer
EXTRN	?OnLButtonDown@CText_A_Tool@@UAEPAVCDrawingSymbol@@PAVCDC@@ABVCPoint@@@Z:PROC ; CText_A_Tool::OnLButtonDown
EXTRN	?OnLButtonUp@CText_A_Tool@@UAEXPAVCDC@@ABVCPoint@@@Z:PROC ; CText_A_Tool::OnLButtonUp
EXTRN	?GetOnePointDrawer@CText_A_Tool@@MAEAAVCSymbolDraw_OnePoint_Size@@XZ:PROC ; CText_A_Tool::GetOnePointDrawer
EXTRN	?OnLButtonDown@CText_B_Tool@@UAEPAVCDrawingSymbol@@PAVCDC@@ABVCPoint@@@Z:PROC ; CText_B_Tool::OnLButtonDown
EXTRN	?OnLButtonUp@CText_B_Tool@@UAEXPAVCDC@@ABVCPoint@@@Z:PROC ; CText_B_Tool::OnLButtonUp
EXTRN	?GetOnePointDrawer@CText_B_Tool@@MAEAAVCSymbolDraw_OnePoint_Size@@XZ:PROC ; CText_B_Tool::GetOnePointDrawer
EXTRN	?OnLButtonDown@CText_C_Tool@@UAEPAVCDrawingSymbol@@PAVCDC@@ABVCPoint@@@Z:PROC ; CText_C_Tool::OnLButtonDown
EXTRN	?OnLButtonUp@CText_C_Tool@@UAEXPAVCDC@@ABVCPoint@@@Z:PROC ; CText_C_Tool::OnLButtonUp
EXTRN	?GetOnePointDrawer@CText_C_Tool@@MAEAAVCSymbolDraw_OnePoint_Size@@XZ:PROC ; CText_C_Tool::GetOnePointDrawer
EXTRN	?OnLButtonDown@CText_D_Tool@@UAEPAVCDrawingSymbol@@PAVCDC@@ABVCPoint@@@Z:PROC ; CText_D_Tool::OnLButtonDown
EXTRN	?OnLButtonUp@CText_D_Tool@@UAEXPAVCDC@@ABVCPoint@@@Z:PROC ; CText_D_Tool::OnLButtonUp
EXTRN	?GetOnePointDrawer@CText_D_Tool@@MAEAAVCSymbolDraw_OnePoint_Size@@XZ:PROC ; CText_D_Tool::GetOnePointDrawer
EXTRN	?OnLButtonDown@CText_E_Tool@@UAEPAVCDrawingSymbol@@PAVCDC@@ABVCPoint@@@Z:PROC ; CText_E_Tool::OnLButtonDown
EXTRN	?OnLButtonUp@CText_E_Tool@@UAEXPAVCDC@@ABVCPoint@@@Z:PROC ; CText_E_Tool::OnLButtonUp
EXTRN	?GetOnePointDrawer@CText_E_Tool@@MAEAAVCSymbolDraw_OnePoint_Size@@XZ:PROC ; CText_E_Tool::GetOnePointDrawer
EXTRN	?OnLButtonDown@CText_F_Tool@@UAEPAVCDrawingSymbol@@PAVCDC@@ABVCPoint@@@Z:PROC ; CText_F_Tool::OnLButtonDown
EXTRN	?OnLButtonUp@CText_F_Tool@@UAEXPAVCDC@@ABVCPoint@@@Z:PROC ; CText_F_Tool::OnLButtonUp
EXTRN	?GetOnePointDrawer@CText_F_Tool@@MAEAAVCSymbolDraw_OnePoint_Size@@XZ:PROC ; CText_F_Tool::GetOnePointDrawer
EXTRN	?OnLButtonDown@CText_G_Tool@@UAEPAVCDrawingSymbol@@PAVCDC@@ABVCPoint@@@Z:PROC ; CText_G_Tool::OnLButtonDown
EXTRN	?OnLButtonUp@CText_G_Tool@@UAEXPAVCDC@@ABVCPoint@@@Z:PROC ; CText_G_Tool::OnLButtonUp
EXTRN	?GetOnePointDrawer@CText_G_Tool@@MAEAAVCSymbolDraw_OnePoint_Size@@XZ:PROC ; CText_G_Tool::GetOnePointDrawer
EXTRN	?OnLButtonDown@CText_H_Tool@@UAEPAVCDrawingSymbol@@PAVCDC@@ABVCPoint@@@Z:PROC ; CText_H_Tool::OnLButtonDown
EXTRN	?OnLButtonUp@CText_H_Tool@@UAEXPAVCDC@@ABVCPoint@@@Z:PROC ; CText_H_Tool::OnLButtonUp
EXTRN	?GetOnePointDrawer@CText_H_Tool@@MAEAAVCSymbolDraw_OnePoint_Size@@XZ:PROC ; CText_H_Tool::GetOnePointDrawer
EXTRN	?OnLButtonDown@CChar_1_Tool@@UAEPAVCDrawingSymbol@@PAVCDC@@ABVCPoint@@@Z:PROC ; CChar_1_Tool::OnLButtonDown
EXTRN	?OnLButtonUp@CChar_1_Tool@@UAEXPAVCDC@@ABVCPoint@@@Z:PROC ; CChar_1_Tool::OnLButtonUp
EXTRN	?GetOnePointDrawer@CChar_1_Tool@@MAEAAVCSymbolDraw_OnePoint_Size@@XZ:PROC ; CChar_1_Tool::GetOnePointDrawer
EXTRN	?OnLButtonDown@CChar_2_Tool@@UAEPAVCDrawingSymbol@@PAVCDC@@ABVCPoint@@@Z:PROC ; CChar_2_Tool::OnLButtonDown
EXTRN	?OnLButtonUp@CChar_2_Tool@@UAEXPAVCDC@@ABVCPoint@@@Z:PROC ; CChar_2_Tool::OnLButtonUp
EXTRN	?GetOnePointDrawer@CChar_2_Tool@@MAEAAVCSymbolDraw_OnePoint_Size@@XZ:PROC ; CChar_2_Tool::GetOnePointDrawer
EXTRN	?OnLButtonDown@CChar_3_Tool@@UAEPAVCDrawingSymbol@@PAVCDC@@ABVCPoint@@@Z:PROC ; CChar_3_Tool::OnLButtonDown
EXTRN	?OnLButtonUp@CChar_3_Tool@@UAEXPAVCDC@@ABVCPoint@@@Z:PROC ; CChar_3_Tool::OnLButtonUp
EXTRN	?GetOnePointDrawer@CChar_3_Tool@@MAEAAVCSymbolDraw_OnePoint_Size@@XZ:PROC ; CChar_3_Tool::GetOnePointDrawer
EXTRN	?OnLButtonDown@CChar_4_Tool@@UAEPAVCDrawingSymbol@@PAVCDC@@ABVCPoint@@@Z:PROC ; CChar_4_Tool::OnLButtonDown
EXTRN	?OnLButtonUp@CChar_4_Tool@@UAEXPAVCDC@@ABVCPoint@@@Z:PROC ; CChar_4_Tool::OnLButtonUp
EXTRN	?GetOnePointDrawer@CChar_4_Tool@@MAEAAVCSymbolDraw_OnePoint_Size@@XZ:PROC ; CChar_4_Tool::GetOnePointDrawer
EXTRN	?OnLButtonDown@CChar_5_Tool@@UAEPAVCDrawingSymbol@@PAVCDC@@ABVCPoint@@@Z:PROC ; CChar_5_Tool::OnLButtonDown
EXTRN	?OnLButtonUp@CChar_5_Tool@@UAEXPAVCDC@@ABVCPoint@@@Z:PROC ; CChar_5_Tool::OnLButtonUp
EXTRN	?GetOnePointDrawer@CChar_5_Tool@@MAEAAVCSymbolDraw_OnePoint_Size@@XZ:PROC ; CChar_5_Tool::GetOnePointDrawer
EXTRN	?OnLButtonDown@CChar_6_Tool@@UAEPAVCDrawingSymbol@@PAVCDC@@ABVCPoint@@@Z:PROC ; CChar_6_Tool::OnLButtonDown
EXTRN	?OnLButtonUp@CChar_6_Tool@@UAEXPAVCDC@@ABVCPoint@@@Z:PROC ; CChar_6_Tool::OnLButtonUp
EXTRN	?GetOnePointDrawer@CChar_6_Tool@@MAEAAVCSymbolDraw_OnePoint_Size@@XZ:PROC ; CChar_6_Tool::GetOnePointDrawer
EXTRN	@__security_check_cookie@4:PROC
EXTRN	___CxxFrameHandler3:PROC
EXTRN	_memset:PROC
EXTRN	??_7type_info@@6B@:QWORD			; type_info::`vftable'
EXTRN	___security_cookie:DWORD
;	COMDAT ??_R4CSymbolTool_TwoPoint@@6B@
rdata$r	SEGMENT
??_R4CSymbolTool_TwoPoint@@6B@ DD 00H			; CSymbolTool_TwoPoint::`RTTI Complete Object Locator'
	DD	00H
	DD	00H
	DD	FLAT:??_R0?AVCSymbolTool_TwoPoint@@@8
	DD	FLAT:??_R3CSymbolTool_TwoPoint@@8
rdata$r	ENDS
;	COMDAT ??_R4CSymbolTool_OnePoint_Size@@6B@
rdata$r	SEGMENT
??_R4CSymbolTool_OnePoint_Size@@6B@ DD 00H		; CSymbolTool_OnePoint_Size::`RTTI Complete Object Locator'
	DD	00H
	DD	00H
	DD	FLAT:??_R0?AVCSymbolTool_OnePoint_Size@@@8
	DD	FLAT:??_R3CSymbolTool_OnePoint_Size@@8
rdata$r	ENDS
;	COMDAT ??_R1A@?0A@EA@CChar_6_Draw@@8
rdata$r	SEGMENT
??_R1A@?0A@EA@CChar_6_Draw@@8 DD FLAT:??_R0?AVCChar_6_Draw@@@8 ; CChar_6_Draw::`RTTI Base Class Descriptor at (0,-1,0,64)'
	DD	02H
	DD	00H
	DD	0ffffffffH
	DD	00H
	DD	040H
	DD	FLAT:??_R3CChar_6_Draw@@8
rdata$r	ENDS
;	COMDAT ??_R2CChar_6_Draw@@8
rdata$r	SEGMENT
??_R2CChar_6_Draw@@8 DD FLAT:??_R1A@?0A@EA@CChar_6_Draw@@8 ; CChar_6_Draw::`RTTI Base Class Array'
	DD	FLAT:??_R1A@?0A@EA@CSymbolDraw_OnePoint_Size@@8
	DD	FLAT:??_R13?0A@EA@CSymbolDraw@@8
rdata$r	ENDS
;	COMDAT ??_R3CChar_6_Draw@@8
rdata$r	SEGMENT
??_R3CChar_6_Draw@@8 DD 00H				; CChar_6_Draw::`RTTI Class Hierarchy Descriptor'
	DD	00H
	DD	03H
	DD	FLAT:??_R2CChar_6_Draw@@8
rdata$r	ENDS
;	COMDAT ??_R0?AVCChar_6_Draw@@@8
data$rs	SEGMENT
??_R0?AVCChar_6_Draw@@@8 DD FLAT:??_7type_info@@6B@	; CChar_6_Draw `RTTI Type Descriptor'
	DD	00H
	DB	'.?AVCChar_6_Draw@@', 00H
data$rs	ENDS
;	COMDAT ??_R4CChar_6_Draw@@6B@
rdata$r	SEGMENT
??_R4CChar_6_Draw@@6B@ DD 00H				; CChar_6_Draw::`RTTI Complete Object Locator'
	DD	00H
	DD	00H
	DD	FLAT:??_R0?AVCChar_6_Draw@@@8
	DD	FLAT:??_R3CChar_6_Draw@@8
rdata$r	ENDS
;	COMDAT ??_R1A@?0A@EA@CChar_5_Draw@@8
rdata$r	SEGMENT
??_R1A@?0A@EA@CChar_5_Draw@@8 DD FLAT:??_R0?AVCChar_5_Draw@@@8 ; CChar_5_Draw::`RTTI Base Class Descriptor at (0,-1,0,64)'
	DD	02H
	DD	00H
	DD	0ffffffffH
	DD	00H
	DD	040H
	DD	FLAT:??_R3CChar_5_Draw@@8
rdata$r	ENDS
;	COMDAT ??_R2CChar_5_Draw@@8
rdata$r	SEGMENT
??_R2CChar_5_Draw@@8 DD FLAT:??_R1A@?0A@EA@CChar_5_Draw@@8 ; CChar_5_Draw::`RTTI Base Class Array'
	DD	FLAT:??_R1A@?0A@EA@CSymbolDraw_OnePoint_Size@@8
	DD	FLAT:??_R13?0A@EA@CSymbolDraw@@8
rdata$r	ENDS
;	COMDAT ??_R3CChar_5_Draw@@8
rdata$r	SEGMENT
??_R3CChar_5_Draw@@8 DD 00H				; CChar_5_Draw::`RTTI Class Hierarchy Descriptor'
	DD	00H
	DD	03H
	DD	FLAT:??_R2CChar_5_Draw@@8
rdata$r	ENDS
;	COMDAT ??_R0?AVCChar_5_Draw@@@8
data$rs	SEGMENT
??_R0?AVCChar_5_Draw@@@8 DD FLAT:??_7type_info@@6B@	; CChar_5_Draw `RTTI Type Descriptor'
	DD	00H
	DB	'.?AVCChar_5_Draw@@', 00H
data$rs	ENDS
;	COMDAT ??_R4CChar_5_Draw@@6B@
rdata$r	SEGMENT
??_R4CChar_5_Draw@@6B@ DD 00H				; CChar_5_Draw::`RTTI Complete Object Locator'
	DD	00H
	DD	00H
	DD	FLAT:??_R0?AVCChar_5_Draw@@@8
	DD	FLAT:??_R3CChar_5_Draw@@8
rdata$r	ENDS
;	COMDAT ??_R1A@?0A@EA@CChar_4_Draw@@8
rdata$r	SEGMENT
??_R1A@?0A@EA@CChar_4_Draw@@8 DD FLAT:??_R0?AVCChar_4_Draw@@@8 ; CChar_4_Draw::`RTTI Base Class Descriptor at (0,-1,0,64)'
	DD	02H
	DD	00H
	DD	0ffffffffH
	DD	00H
	DD	040H
	DD	FLAT:??_R3CChar_4_Draw@@8
rdata$r	ENDS
;	COMDAT ??_R2CChar_4_Draw@@8
rdata$r	SEGMENT
??_R2CChar_4_Draw@@8 DD FLAT:??_R1A@?0A@EA@CChar_4_Draw@@8 ; CChar_4_Draw::`RTTI Base Class Array'
	DD	FLAT:??_R1A@?0A@EA@CSymbolDraw_OnePoint_Size@@8
	DD	FLAT:??_R13?0A@EA@CSymbolDraw@@8
rdata$r	ENDS
;	COMDAT ??_R3CChar_4_Draw@@8
rdata$r	SEGMENT
??_R3CChar_4_Draw@@8 DD 00H				; CChar_4_Draw::`RTTI Class Hierarchy Descriptor'
	DD	00H
	DD	03H
	DD	FLAT:??_R2CChar_4_Draw@@8
rdata$r	ENDS
;	COMDAT ??_R0?AVCChar_4_Draw@@@8
data$rs	SEGMENT
??_R0?AVCChar_4_Draw@@@8 DD FLAT:??_7type_info@@6B@	; CChar_4_Draw `RTTI Type Descriptor'
	DD	00H
	DB	'.?AVCChar_4_Draw@@', 00H
data$rs	ENDS
;	COMDAT ??_R4CChar_4_Draw@@6B@
rdata$r	SEGMENT
??_R4CChar_4_Draw@@6B@ DD 00H				; CChar_4_Draw::`RTTI Complete Object Locator'
	DD	00H
	DD	00H
	DD	FLAT:??_R0?AVCChar_4_Draw@@@8
	DD	FLAT:??_R3CChar_4_Draw@@8
rdata$r	ENDS
;	COMDAT ??_R1A@?0A@EA@CChar_3_Draw@@8
rdata$r	SEGMENT
??_R1A@?0A@EA@CChar_3_Draw@@8 DD FLAT:??_R0?AVCChar_3_Draw@@@8 ; CChar_3_Draw::`RTTI Base Class Descriptor at (0,-1,0,64)'
	DD	02H
	DD	00H
	DD	0ffffffffH
	DD	00H
	DD	040H
	DD	FLAT:??_R3CChar_3_Draw@@8
rdata$r	ENDS
;	COMDAT ??_R2CChar_3_Draw@@8
rdata$r	SEGMENT
??_R2CChar_3_Draw@@8 DD FLAT:??_R1A@?0A@EA@CChar_3_Draw@@8 ; CChar_3_Draw::`RTTI Base Class Array'
	DD	FLAT:??_R1A@?0A@EA@CSymbolDraw_OnePoint_Size@@8
	DD	FLAT:??_R13?0A@EA@CSymbolDraw@@8
rdata$r	ENDS
;	COMDAT ??_R3CChar_3_Draw@@8
rdata$r	SEGMENT
??_R3CChar_3_Draw@@8 DD 00H				; CChar_3_Draw::`RTTI Class Hierarchy Descriptor'
	DD	00H
	DD	03H
	DD	FLAT:??_R2CChar_3_Draw@@8
rdata$r	ENDS
;	COMDAT ??_R0?AVCChar_3_Draw@@@8
data$rs	SEGMENT
??_R0?AVCChar_3_Draw@@@8 DD FLAT:??_7type_info@@6B@	; CChar_3_Draw `RTTI Type Descriptor'
	DD	00H
	DB	'.?AVCChar_3_Draw@@', 00H
data$rs	ENDS
;	COMDAT ??_R4CChar_3_Draw@@6B@
rdata$r	SEGMENT
??_R4CChar_3_Draw@@6B@ DD 00H				; CChar_3_Draw::`RTTI Complete Object Locator'
	DD	00H
	DD	00H
	DD	FLAT:??_R0?AVCChar_3_Draw@@@8
	DD	FLAT:??_R3CChar_3_Draw@@8
rdata$r	ENDS
;	COMDAT ??_R1A@?0A@EA@CChar_2_Draw@@8
rdata$r	SEGMENT
??_R1A@?0A@EA@CChar_2_Draw@@8 DD FLAT:??_R0?AVCChar_2_Draw@@@8 ; CChar_2_Draw::`RTTI Base Class Descriptor at (0,-1,0,64)'
	DD	02H
	DD	00H
	DD	0ffffffffH
	DD	00H
	DD	040H
	DD	FLAT:??_R3CChar_2_Draw@@8
rdata$r	ENDS
;	COMDAT ??_R2CChar_2_Draw@@8
rdata$r	SEGMENT
??_R2CChar_2_Draw@@8 DD FLAT:??_R1A@?0A@EA@CChar_2_Draw@@8 ; CChar_2_Draw::`RTTI Base Class Array'
	DD	FLAT:??_R1A@?0A@EA@CSymbolDraw_OnePoint_Size@@8
	DD	FLAT:??_R13?0A@EA@CSymbolDraw@@8
rdata$r	ENDS
;	COMDAT ??_R3CChar_2_Draw@@8
rdata$r	SEGMENT
??_R3CChar_2_Draw@@8 DD 00H				; CChar_2_Draw::`RTTI Class Hierarchy Descriptor'
	DD	00H
	DD	03H
	DD	FLAT:??_R2CChar_2_Draw@@8
rdata$r	ENDS
;	COMDAT ??_R0?AVCChar_2_Draw@@@8
data$rs	SEGMENT
??_R0?AVCChar_2_Draw@@@8 DD FLAT:??_7type_info@@6B@	; CChar_2_Draw `RTTI Type Descriptor'
	DD	00H
	DB	'.?AVCChar_2_Draw@@', 00H
data$rs	ENDS
;	COMDAT ??_R4CChar_2_Draw@@6B@
rdata$r	SEGMENT
??_R4CChar_2_Draw@@6B@ DD 00H				; CChar_2_Draw::`RTTI Complete Object Locator'
	DD	00H
	DD	00H
	DD	FLAT:??_R0?AVCChar_2_Draw@@@8
	DD	FLAT:??_R3CChar_2_Draw@@8
rdata$r	ENDS
;	COMDAT ??_R1A@?0A@EA@CChar_1_Draw@@8
rdata$r	SEGMENT
??_R1A@?0A@EA@CChar_1_Draw@@8 DD FLAT:??_R0?AVCChar_1_Draw@@@8 ; CChar_1_Draw::`RTTI Base Class Descriptor at (0,-1,0,64)'
	DD	02H
	DD	00H
	DD	0ffffffffH
	DD	00H
	DD	040H
	DD	FLAT:??_R3CChar_1_Draw@@8
rdata$r	ENDS
;	COMDAT ??_R2CChar_1_Draw@@8
rdata$r	SEGMENT
??_R2CChar_1_Draw@@8 DD FLAT:??_R1A@?0A@EA@CChar_1_Draw@@8 ; CChar_1_Draw::`RTTI Base Class Array'
	DD	FLAT:??_R1A@?0A@EA@CSymbolDraw_OnePoint_Size@@8
	DD	FLAT:??_R13?0A@EA@CSymbolDraw@@8
rdata$r	ENDS
;	COMDAT ??_R3CChar_1_Draw@@8
rdata$r	SEGMENT
??_R3CChar_1_Draw@@8 DD 00H				; CChar_1_Draw::`RTTI Class Hierarchy Descriptor'
	DD	00H
	DD	03H
	DD	FLAT:??_R2CChar_1_Draw@@8
rdata$r	ENDS
;	COMDAT ??_R0?AVCChar_1_Draw@@@8
data$rs	SEGMENT
??_R0?AVCChar_1_Draw@@@8 DD FLAT:??_7type_info@@6B@	; CChar_1_Draw `RTTI Type Descriptor'
	DD	00H
	DB	'.?AVCChar_1_Draw@@', 00H
data$rs	ENDS
;	COMDAT ??_R4CChar_1_Draw@@6B@
rdata$r	SEGMENT
??_R4CChar_1_Draw@@6B@ DD 00H				; CChar_1_Draw::`RTTI Complete Object Locator'
	DD	00H
	DD	00H
	DD	FLAT:??_R0?AVCChar_1_Draw@@@8
	DD	FLAT:??_R3CChar_1_Draw@@8
rdata$r	ENDS
;	COMDAT ??_R1A@?0A@EA@CText_H_Draw@@8
rdata$r	SEGMENT
??_R1A@?0A@EA@CText_H_Draw@@8 DD FLAT:??_R0?AVCText_H_Draw@@@8 ; CText_H_Draw::`RTTI Base Class Descriptor at (0,-1,0,64)'
	DD	02H
	DD	00H
	DD	0ffffffffH
	DD	00H
	DD	040H
	DD	FLAT:??_R3CText_H_Draw@@8
rdata$r	ENDS
;	COMDAT ??_R2CText_H_Draw@@8
rdata$r	SEGMENT
??_R2CText_H_Draw@@8 DD FLAT:??_R1A@?0A@EA@CText_H_Draw@@8 ; CText_H_Draw::`RTTI Base Class Array'
	DD	FLAT:??_R1A@?0A@EA@CSymbolDraw_OnePoint_Size@@8
	DD	FLAT:??_R13?0A@EA@CSymbolDraw@@8
rdata$r	ENDS
;	COMDAT ??_R3CText_H_Draw@@8
rdata$r	SEGMENT
??_R3CText_H_Draw@@8 DD 00H				; CText_H_Draw::`RTTI Class Hierarchy Descriptor'
	DD	00H
	DD	03H
	DD	FLAT:??_R2CText_H_Draw@@8
rdata$r	ENDS
;	COMDAT ??_R0?AVCText_H_Draw@@@8
data$rs	SEGMENT
??_R0?AVCText_H_Draw@@@8 DD FLAT:??_7type_info@@6B@	; CText_H_Draw `RTTI Type Descriptor'
	DD	00H
	DB	'.?AVCText_H_Draw@@', 00H
data$rs	ENDS
;	COMDAT ??_R4CText_H_Draw@@6B@
rdata$r	SEGMENT
??_R4CText_H_Draw@@6B@ DD 00H				; CText_H_Draw::`RTTI Complete Object Locator'
	DD	00H
	DD	00H
	DD	FLAT:??_R0?AVCText_H_Draw@@@8
	DD	FLAT:??_R3CText_H_Draw@@8
rdata$r	ENDS
;	COMDAT ??_R1A@?0A@EA@CText_G_Draw@@8
rdata$r	SEGMENT
??_R1A@?0A@EA@CText_G_Draw@@8 DD FLAT:??_R0?AVCText_G_Draw@@@8 ; CText_G_Draw::`RTTI Base Class Descriptor at (0,-1,0,64)'
	DD	02H
	DD	00H
	DD	0ffffffffH
	DD	00H
	DD	040H
	DD	FLAT:??_R3CText_G_Draw@@8
rdata$r	ENDS
;	COMDAT ??_R2CText_G_Draw@@8
rdata$r	SEGMENT
??_R2CText_G_Draw@@8 DD FLAT:??_R1A@?0A@EA@CText_G_Draw@@8 ; CText_G_Draw::`RTTI Base Class Array'
	DD	FLAT:??_R1A@?0A@EA@CSymbolDraw_OnePoint_Size@@8
	DD	FLAT:??_R13?0A@EA@CSymbolDraw@@8
rdata$r	ENDS
;	COMDAT ??_R3CText_G_Draw@@8
rdata$r	SEGMENT
??_R3CText_G_Draw@@8 DD 00H				; CText_G_Draw::`RTTI Class Hierarchy Descriptor'
	DD	00H
	DD	03H
	DD	FLAT:??_R2CText_G_Draw@@8
rdata$r	ENDS
;	COMDAT ??_R0?AVCText_G_Draw@@@8
data$rs	SEGMENT
??_R0?AVCText_G_Draw@@@8 DD FLAT:??_7type_info@@6B@	; CText_G_Draw `RTTI Type Descriptor'
	DD	00H
	DB	'.?AVCText_G_Draw@@', 00H
data$rs	ENDS
;	COMDAT ??_R4CText_G_Draw@@6B@
rdata$r	SEGMENT
??_R4CText_G_Draw@@6B@ DD 00H				; CText_G_Draw::`RTTI Complete Object Locator'
	DD	00H
	DD	00H
	DD	FLAT:??_R0?AVCText_G_Draw@@@8
	DD	FLAT:??_R3CText_G_Draw@@8
rdata$r	ENDS
;	COMDAT ??_R1A@?0A@EA@CText_F_Draw@@8
rdata$r	SEGMENT
??_R1A@?0A@EA@CText_F_Draw@@8 DD FLAT:??_R0?AVCText_F_Draw@@@8 ; CText_F_Draw::`RTTI Base Class Descriptor at (0,-1,0,64)'
	DD	02H
	DD	00H
	DD	0ffffffffH
	DD	00H
	DD	040H
	DD	FLAT:??_R3CText_F_Draw@@8
rdata$r	ENDS
;	COMDAT ??_R2CText_F_Draw@@8
rdata$r	SEGMENT
??_R2CText_F_Draw@@8 DD FLAT:??_R1A@?0A@EA@CText_F_Draw@@8 ; CText_F_Draw::`RTTI Base Class Array'
	DD	FLAT:??_R1A@?0A@EA@CSymbolDraw_OnePoint_Size@@8
	DD	FLAT:??_R13?0A@EA@CSymbolDraw@@8
rdata$r	ENDS
;	COMDAT ??_R3CText_F_Draw@@8
rdata$r	SEGMENT
??_R3CText_F_Draw@@8 DD 00H				; CText_F_Draw::`RTTI Class Hierarchy Descriptor'
	DD	00H
	DD	03H
	DD	FLAT:??_R2CText_F_Draw@@8
rdata$r	ENDS
;	COMDAT ??_R0?AVCText_F_Draw@@@8
data$rs	SEGMENT
??_R0?AVCText_F_Draw@@@8 DD FLAT:??_7type_info@@6B@	; CText_F_Draw `RTTI Type Descriptor'
	DD	00H
	DB	'.?AVCText_F_Draw@@', 00H
data$rs	ENDS
;	COMDAT ??_R4CText_F_Draw@@6B@
rdata$r	SEGMENT
??_R4CText_F_Draw@@6B@ DD 00H				; CText_F_Draw::`RTTI Complete Object Locator'
	DD	00H
	DD	00H
	DD	FLAT:??_R0?AVCText_F_Draw@@@8
	DD	FLAT:??_R3CText_F_Draw@@8
rdata$r	ENDS
;	COMDAT ??_R1A@?0A@EA@CText_E_Draw@@8
rdata$r	SEGMENT
??_R1A@?0A@EA@CText_E_Draw@@8 DD FLAT:??_R0?AVCText_E_Draw@@@8 ; CText_E_Draw::`RTTI Base Class Descriptor at (0,-1,0,64)'
	DD	02H
	DD	00H
	DD	0ffffffffH
	DD	00H
	DD	040H
	DD	FLAT:??_R3CText_E_Draw@@8
rdata$r	ENDS
;	COMDAT ??_R2CText_E_Draw@@8
rdata$r	SEGMENT
??_R2CText_E_Draw@@8 DD FLAT:??_R1A@?0A@EA@CText_E_Draw@@8 ; CText_E_Draw::`RTTI Base Class Array'
	DD	FLAT:??_R1A@?0A@EA@CSymbolDraw_OnePoint_Size@@8
	DD	FLAT:??_R13?0A@EA@CSymbolDraw@@8
rdata$r	ENDS
;	COMDAT ??_R3CText_E_Draw@@8
rdata$r	SEGMENT
??_R3CText_E_Draw@@8 DD 00H				; CText_E_Draw::`RTTI Class Hierarchy Descriptor'
	DD	00H
	DD	03H
	DD	FLAT:??_R2CText_E_Draw@@8
rdata$r	ENDS
;	COMDAT ??_R0?AVCText_E_Draw@@@8
data$rs	SEGMENT
??_R0?AVCText_E_Draw@@@8 DD FLAT:??_7type_info@@6B@	; CText_E_Draw `RTTI Type Descriptor'
	DD	00H
	DB	'.?AVCText_E_Draw@@', 00H
data$rs	ENDS
;	COMDAT ??_R4CText_E_Draw@@6B@
rdata$r	SEGMENT
??_R4CText_E_Draw@@6B@ DD 00H				; CText_E_Draw::`RTTI Complete Object Locator'
	DD	00H
	DD	00H
	DD	FLAT:??_R0?AVCText_E_Draw@@@8
	DD	FLAT:??_R3CText_E_Draw@@8
rdata$r	ENDS
;	COMDAT ??_R1A@?0A@EA@CText_D_Draw@@8
rdata$r	SEGMENT
??_R1A@?0A@EA@CText_D_Draw@@8 DD FLAT:??_R0?AVCText_D_Draw@@@8 ; CText_D_Draw::`RTTI Base Class Descriptor at (0,-1,0,64)'
	DD	02H
	DD	00H
	DD	0ffffffffH
	DD	00H
	DD	040H
	DD	FLAT:??_R3CText_D_Draw@@8
rdata$r	ENDS
;	COMDAT ??_R2CText_D_Draw@@8
rdata$r	SEGMENT
??_R2CText_D_Draw@@8 DD FLAT:??_R1A@?0A@EA@CText_D_Draw@@8 ; CText_D_Draw::`RTTI Base Class Array'
	DD	FLAT:??_R1A@?0A@EA@CSymbolDraw_OnePoint_Size@@8
	DD	FLAT:??_R13?0A@EA@CSymbolDraw@@8
rdata$r	ENDS
;	COMDAT ??_R3CText_D_Draw@@8
rdata$r	SEGMENT
??_R3CText_D_Draw@@8 DD 00H				; CText_D_Draw::`RTTI Class Hierarchy Descriptor'
	DD	00H
	DD	03H
	DD	FLAT:??_R2CText_D_Draw@@8
rdata$r	ENDS
;	COMDAT ??_R0?AVCText_D_Draw@@@8
data$rs	SEGMENT
??_R0?AVCText_D_Draw@@@8 DD FLAT:??_7type_info@@6B@	; CText_D_Draw `RTTI Type Descriptor'
	DD	00H
	DB	'.?AVCText_D_Draw@@', 00H
data$rs	ENDS
;	COMDAT ??_R4CText_D_Draw@@6B@
rdata$r	SEGMENT
??_R4CText_D_Draw@@6B@ DD 00H				; CText_D_Draw::`RTTI Complete Object Locator'
	DD	00H
	DD	00H
	DD	FLAT:??_R0?AVCText_D_Draw@@@8
	DD	FLAT:??_R3CText_D_Draw@@8
rdata$r	ENDS
;	COMDAT ??_R1A@?0A@EA@CText_C_Draw@@8
rdata$r	SEGMENT
??_R1A@?0A@EA@CText_C_Draw@@8 DD FLAT:??_R0?AVCText_C_Draw@@@8 ; CText_C_Draw::`RTTI Base Class Descriptor at (0,-1,0,64)'
	DD	02H
	DD	00H
	DD	0ffffffffH
	DD	00H
	DD	040H
	DD	FLAT:??_R3CText_C_Draw@@8
rdata$r	ENDS
;	COMDAT ??_R2CText_C_Draw@@8
rdata$r	SEGMENT
??_R2CText_C_Draw@@8 DD FLAT:??_R1A@?0A@EA@CText_C_Draw@@8 ; CText_C_Draw::`RTTI Base Class Array'
	DD	FLAT:??_R1A@?0A@EA@CSymbolDraw_OnePoint_Size@@8
	DD	FLAT:??_R13?0A@EA@CSymbolDraw@@8
rdata$r	ENDS
;	COMDAT ??_R3CText_C_Draw@@8
rdata$r	SEGMENT
??_R3CText_C_Draw@@8 DD 00H				; CText_C_Draw::`RTTI Class Hierarchy Descriptor'
	DD	00H
	DD	03H
	DD	FLAT:??_R2CText_C_Draw@@8
rdata$r	ENDS
;	COMDAT ??_R0?AVCText_C_Draw@@@8
data$rs	SEGMENT
??_R0?AVCText_C_Draw@@@8 DD FLAT:??_7type_info@@6B@	; CText_C_Draw `RTTI Type Descriptor'
	DD	00H
	DB	'.?AVCText_C_Draw@@', 00H
data$rs	ENDS
;	COMDAT ??_R4CText_C_Draw@@6B@
rdata$r	SEGMENT
??_R4CText_C_Draw@@6B@ DD 00H				; CText_C_Draw::`RTTI Complete Object Locator'
	DD	00H
	DD	00H
	DD	FLAT:??_R0?AVCText_C_Draw@@@8
	DD	FLAT:??_R3CText_C_Draw@@8
rdata$r	ENDS
;	COMDAT ??_R1A@?0A@EA@CText_B_Draw@@8
rdata$r	SEGMENT
??_R1A@?0A@EA@CText_B_Draw@@8 DD FLAT:??_R0?AVCText_B_Draw@@@8 ; CText_B_Draw::`RTTI Base Class Descriptor at (0,-1,0,64)'
	DD	02H
	DD	00H
	DD	0ffffffffH
	DD	00H
	DD	040H
	DD	FLAT:??_R3CText_B_Draw@@8
rdata$r	ENDS
;	COMDAT ??_R2CText_B_Draw@@8
rdata$r	SEGMENT
??_R2CText_B_Draw@@8 DD FLAT:??_R1A@?0A@EA@CText_B_Draw@@8 ; CText_B_Draw::`RTTI Base Class Array'
	DD	FLAT:??_R1A@?0A@EA@CSymbolDraw_OnePoint_Size@@8
	DD	FLAT:??_R13?0A@EA@CSymbolDraw@@8
rdata$r	ENDS
;	COMDAT ??_R3CText_B_Draw@@8
rdata$r	SEGMENT
??_R3CText_B_Draw@@8 DD 00H				; CText_B_Draw::`RTTI Class Hierarchy Descriptor'
	DD	00H
	DD	03H
	DD	FLAT:??_R2CText_B_Draw@@8
rdata$r	ENDS
;	COMDAT ??_R0?AVCText_B_Draw@@@8
data$rs	SEGMENT
??_R0?AVCText_B_Draw@@@8 DD FLAT:??_7type_info@@6B@	; CText_B_Draw `RTTI Type Descriptor'
	DD	00H
	DB	'.?AVCText_B_Draw@@', 00H
data$rs	ENDS
;	COMDAT ??_R4CText_B_Draw@@6B@
rdata$r	SEGMENT
??_R4CText_B_Draw@@6B@ DD 00H				; CText_B_Draw::`RTTI Complete Object Locator'
	DD	00H
	DD	00H
	DD	FLAT:??_R0?AVCText_B_Draw@@@8
	DD	FLAT:??_R3CText_B_Draw@@8
rdata$r	ENDS
;	COMDAT ??_R1A@?0A@EA@CText_A_Draw@@8
rdata$r	SEGMENT
??_R1A@?0A@EA@CText_A_Draw@@8 DD FLAT:??_R0?AVCText_A_Draw@@@8 ; CText_A_Draw::`RTTI Base Class Descriptor at (0,-1,0,64)'
	DD	02H
	DD	00H
	DD	0ffffffffH
	DD	00H
	DD	040H
	DD	FLAT:??_R3CText_A_Draw@@8
rdata$r	ENDS
;	COMDAT ??_R2CText_A_Draw@@8
rdata$r	SEGMENT
??_R2CText_A_Draw@@8 DD FLAT:??_R1A@?0A@EA@CText_A_Draw@@8 ; CText_A_Draw::`RTTI Base Class Array'
	DD	FLAT:??_R1A@?0A@EA@CSymbolDraw_OnePoint_Size@@8
	DD	FLAT:??_R13?0A@EA@CSymbolDraw@@8
rdata$r	ENDS
;	COMDAT ??_R3CText_A_Draw@@8
rdata$r	SEGMENT
??_R3CText_A_Draw@@8 DD 00H				; CText_A_Draw::`RTTI Class Hierarchy Descriptor'
	DD	00H
	DD	03H
	DD	FLAT:??_R2CText_A_Draw@@8
rdata$r	ENDS
;	COMDAT ??_R0?AVCText_A_Draw@@@8
data$rs	SEGMENT
??_R0?AVCText_A_Draw@@@8 DD FLAT:??_7type_info@@6B@	; CText_A_Draw `RTTI Type Descriptor'
	DD	00H
	DB	'.?AVCText_A_Draw@@', 00H
data$rs	ENDS
;	COMDAT ??_R4CText_A_Draw@@6B@
rdata$r	SEGMENT
??_R4CText_A_Draw@@6B@ DD 00H				; CText_A_Draw::`RTTI Complete Object Locator'
	DD	00H
	DD	00H
	DD	FLAT:??_R0?AVCText_A_Draw@@@8
	DD	FLAT:??_R3CText_A_Draw@@8
rdata$r	ENDS
;	COMDAT ??_R1A@?0A@EA@CNumber_Nine_Draw@@8
rdata$r	SEGMENT
??_R1A@?0A@EA@CNumber_Nine_Draw@@8 DD FLAT:??_R0?AVCNumber_Nine_Draw@@@8 ; CNumber_Nine_Draw::`RTTI Base Class Descriptor at (0,-1,0,64)'
	DD	02H
	DD	00H
	DD	0ffffffffH
	DD	00H
	DD	040H
	DD	FLAT:??_R3CNumber_Nine_Draw@@8
rdata$r	ENDS
;	COMDAT ??_R2CNumber_Nine_Draw@@8
rdata$r	SEGMENT
??_R2CNumber_Nine_Draw@@8 DD FLAT:??_R1A@?0A@EA@CNumber_Nine_Draw@@8 ; CNumber_Nine_Draw::`RTTI Base Class Array'
	DD	FLAT:??_R1A@?0A@EA@CSymbolDraw_OnePoint_Size@@8
	DD	FLAT:??_R13?0A@EA@CSymbolDraw@@8
rdata$r	ENDS
;	COMDAT ??_R3CNumber_Nine_Draw@@8
rdata$r	SEGMENT
??_R3CNumber_Nine_Draw@@8 DD 00H			; CNumber_Nine_Draw::`RTTI Class Hierarchy Descriptor'
	DD	00H
	DD	03H
	DD	FLAT:??_R2CNumber_Nine_Draw@@8
rdata$r	ENDS
;	COMDAT ??_R0?AVCNumber_Nine_Draw@@@8
data$rs	SEGMENT
??_R0?AVCNumber_Nine_Draw@@@8 DD FLAT:??_7type_info@@6B@ ; CNumber_Nine_Draw `RTTI Type Descriptor'
	DD	00H
	DB	'.?AVCNumber_Nine_Draw@@', 00H
data$rs	ENDS
;	COMDAT ??_R4CNumber_Nine_Draw@@6B@
rdata$r	SEGMENT
??_R4CNumber_Nine_Draw@@6B@ DD 00H			; CNumber_Nine_Draw::`RTTI Complete Object Locator'
	DD	00H
	DD	00H
	DD	FLAT:??_R0?AVCNumber_Nine_Draw@@@8
	DD	FLAT:??_R3CNumber_Nine_Draw@@8
rdata$r	ENDS
;	COMDAT ??_R1A@?0A@EA@CNumber_Eight_Draw@@8
rdata$r	SEGMENT
??_R1A@?0A@EA@CNumber_Eight_Draw@@8 DD FLAT:??_R0?AVCNumber_Eight_Draw@@@8 ; CNumber_Eight_Draw::`RTTI Base Class Descriptor at (0,-1,0,64)'
	DD	02H
	DD	00H
	DD	0ffffffffH
	DD	00H
	DD	040H
	DD	FLAT:??_R3CNumber_Eight_Draw@@8
rdata$r	ENDS
;	COMDAT ??_R2CNumber_Eight_Draw@@8
rdata$r	SEGMENT
??_R2CNumber_Eight_Draw@@8 DD FLAT:??_R1A@?0A@EA@CNumber_Eight_Draw@@8 ; CNumber_Eight_Draw::`RTTI Base Class Array'
	DD	FLAT:??_R1A@?0A@EA@CSymbolDraw_OnePoint_Size@@8
	DD	FLAT:??_R13?0A@EA@CSymbolDraw@@8
rdata$r	ENDS
;	COMDAT ??_R3CNumber_Eight_Draw@@8
rdata$r	SEGMENT
??_R3CNumber_Eight_Draw@@8 DD 00H			; CNumber_Eight_Draw::`RTTI Class Hierarchy Descriptor'
	DD	00H
	DD	03H
	DD	FLAT:??_R2CNumber_Eight_Draw@@8
rdata$r	ENDS
;	COMDAT ??_R0?AVCNumber_Eight_Draw@@@8
data$rs	SEGMENT
??_R0?AVCNumber_Eight_Draw@@@8 DD FLAT:??_7type_info@@6B@ ; CNumber_Eight_Draw `RTTI Type Descriptor'
	DD	00H
	DB	'.?AVCNumber_Eight_Draw@@', 00H
data$rs	ENDS
;	COMDAT ??_R4CNumber_Eight_Draw@@6B@
rdata$r	SEGMENT
??_R4CNumber_Eight_Draw@@6B@ DD 00H			; CNumber_Eight_Draw::`RTTI Complete Object Locator'
	DD	00H
	DD	00H
	DD	FLAT:??_R0?AVCNumber_Eight_Draw@@@8
	DD	FLAT:??_R3CNumber_Eight_Draw@@8
rdata$r	ENDS
;	COMDAT ??_R1A@?0A@EA@CNumber_Seven_Draw@@8
rdata$r	SEGMENT
??_R1A@?0A@EA@CNumber_Seven_Draw@@8 DD FLAT:??_R0?AVCNumber_Seven_Draw@@@8 ; CNumber_Seven_Draw::`RTTI Base Class Descriptor at (0,-1,0,64)'
	DD	02H
	DD	00H
	DD	0ffffffffH
	DD	00H
	DD	040H
	DD	FLAT:??_R3CNumber_Seven_Draw@@8
rdata$r	ENDS
;	COMDAT ??_R2CNumber_Seven_Draw@@8
rdata$r	SEGMENT
??_R2CNumber_Seven_Draw@@8 DD FLAT:??_R1A@?0A@EA@CNumber_Seven_Draw@@8 ; CNumber_Seven_Draw::`RTTI Base Class Array'
	DD	FLAT:??_R1A@?0A@EA@CSymbolDraw_OnePoint_Size@@8
	DD	FLAT:??_R13?0A@EA@CSymbolDraw@@8
rdata$r	ENDS
;	COMDAT ??_R3CNumber_Seven_Draw@@8
rdata$r	SEGMENT
??_R3CNumber_Seven_Draw@@8 DD 00H			; CNumber_Seven_Draw::`RTTI Class Hierarchy Descriptor'
	DD	00H
	DD	03H
	DD	FLAT:??_R2CNumber_Seven_Draw@@8
rdata$r	ENDS
;	COMDAT ??_R0?AVCNumber_Seven_Draw@@@8
data$rs	SEGMENT
??_R0?AVCNumber_Seven_Draw@@@8 DD FLAT:??_7type_info@@6B@ ; CNumber_Seven_Draw `RTTI Type Descriptor'
	DD	00H
	DB	'.?AVCNumber_Seven_Draw@@', 00H
data$rs	ENDS
;	COMDAT ??_R4CNumber_Seven_Draw@@6B@
rdata$r	SEGMENT
??_R4CNumber_Seven_Draw@@6B@ DD 00H			; CNumber_Seven_Draw::`RTTI Complete Object Locator'
	DD	00H
	DD	00H
	DD	FLAT:??_R0?AVCNumber_Seven_Draw@@@8
	DD	FLAT:??_R3CNumber_Seven_Draw@@8
rdata$r	ENDS
;	COMDAT ??_R1A@?0A@EA@CNumber_Six_Draw@@8
rdata$r	SEGMENT
??_R1A@?0A@EA@CNumber_Six_Draw@@8 DD FLAT:??_R0?AVCNumber_Six_Draw@@@8 ; CNumber_Six_Draw::`RTTI Base Class Descriptor at (0,-1,0,64)'
	DD	02H
	DD	00H
	DD	0ffffffffH
	DD	00H
	DD	040H
	DD	FLAT:??_R3CNumber_Six_Draw@@8
rdata$r	ENDS
;	COMDAT ??_R2CNumber_Six_Draw@@8
rdata$r	SEGMENT
??_R2CNumber_Six_Draw@@8 DD FLAT:??_R1A@?0A@EA@CNumber_Six_Draw@@8 ; CNumber_Six_Draw::`RTTI Base Class Array'
	DD	FLAT:??_R1A@?0A@EA@CSymbolDraw_OnePoint_Size@@8
	DD	FLAT:??_R13?0A@EA@CSymbolDraw@@8
rdata$r	ENDS
;	COMDAT ??_R3CNumber_Six_Draw@@8
rdata$r	SEGMENT
??_R3CNumber_Six_Draw@@8 DD 00H				; CNumber_Six_Draw::`RTTI Class Hierarchy Descriptor'
	DD	00H
	DD	03H
	DD	FLAT:??_R2CNumber_Six_Draw@@8
rdata$r	ENDS
;	COMDAT ??_R0?AVCNumber_Six_Draw@@@8
data$rs	SEGMENT
??_R0?AVCNumber_Six_Draw@@@8 DD FLAT:??_7type_info@@6B@	; CNumber_Six_Draw `RTTI Type Descriptor'
	DD	00H
	DB	'.?AVCNumber_Six_Draw@@', 00H
data$rs	ENDS
;	COMDAT ??_R4CNumber_Six_Draw@@6B@
rdata$r	SEGMENT
??_R4CNumber_Six_Draw@@6B@ DD 00H			; CNumber_Six_Draw::`RTTI Complete Object Locator'
	DD	00H
	DD	00H
	DD	FLAT:??_R0?AVCNumber_Six_Draw@@@8
	DD	FLAT:??_R3CNumber_Six_Draw@@8
rdata$r	ENDS
;	COMDAT ??_R1A@?0A@EA@CNumber_Five_Draw@@8
rdata$r	SEGMENT
??_R1A@?0A@EA@CNumber_Five_Draw@@8 DD FLAT:??_R0?AVCNumber_Five_Draw@@@8 ; CNumber_Five_Draw::`RTTI Base Class Descriptor at (0,-1,0,64)'
	DD	02H
	DD	00H
	DD	0ffffffffH
	DD	00H
	DD	040H
	DD	FLAT:??_R3CNumber_Five_Draw@@8
rdata$r	ENDS
;	COMDAT ??_R2CNumber_Five_Draw@@8
rdata$r	SEGMENT
??_R2CNumber_Five_Draw@@8 DD FLAT:??_R1A@?0A@EA@CNumber_Five_Draw@@8 ; CNumber_Five_Draw::`RTTI Base Class Array'
	DD	FLAT:??_R1A@?0A@EA@CSymbolDraw_OnePoint_Size@@8
	DD	FLAT:??_R13?0A@EA@CSymbolDraw@@8
rdata$r	ENDS
;	COMDAT ??_R3CNumber_Five_Draw@@8
rdata$r	SEGMENT
??_R3CNumber_Five_Draw@@8 DD 00H			; CNumber_Five_Draw::`RTTI Class Hierarchy Descriptor'
	DD	00H
	DD	03H
	DD	FLAT:??_R2CNumber_Five_Draw@@8
rdata$r	ENDS
;	COMDAT ??_R0?AVCNumber_Five_Draw@@@8
data$rs	SEGMENT
??_R0?AVCNumber_Five_Draw@@@8 DD FLAT:??_7type_info@@6B@ ; CNumber_Five_Draw `RTTI Type Descriptor'
	DD	00H
	DB	'.?AVCNumber_Five_Draw@@', 00H
data$rs	ENDS
;	COMDAT ??_R4CNumber_Five_Draw@@6B@
rdata$r	SEGMENT
??_R4CNumber_Five_Draw@@6B@ DD 00H			; CNumber_Five_Draw::`RTTI Complete Object Locator'
	DD	00H
	DD	00H
	DD	FLAT:??_R0?AVCNumber_Five_Draw@@@8
	DD	FLAT:??_R3CNumber_Five_Draw@@8
rdata$r	ENDS
;	COMDAT ??_R1A@?0A@EA@CNumber_Four_Draw@@8
rdata$r	SEGMENT
??_R1A@?0A@EA@CNumber_Four_Draw@@8 DD FLAT:??_R0?AVCNumber_Four_Draw@@@8 ; CNumber_Four_Draw::`RTTI Base Class Descriptor at (0,-1,0,64)'
	DD	02H
	DD	00H
	DD	0ffffffffH
	DD	00H
	DD	040H
	DD	FLAT:??_R3CNumber_Four_Draw@@8
rdata$r	ENDS
;	COMDAT ??_R2CNumber_Four_Draw@@8
rdata$r	SEGMENT
??_R2CNumber_Four_Draw@@8 DD FLAT:??_R1A@?0A@EA@CNumber_Four_Draw@@8 ; CNumber_Four_Draw::`RTTI Base Class Array'
	DD	FLAT:??_R1A@?0A@EA@CSymbolDraw_OnePoint_Size@@8
	DD	FLAT:??_R13?0A@EA@CSymbolDraw@@8
rdata$r	ENDS
;	COMDAT ??_R3CNumber_Four_Draw@@8
rdata$r	SEGMENT
??_R3CNumber_Four_Draw@@8 DD 00H			; CNumber_Four_Draw::`RTTI Class Hierarchy Descriptor'
	DD	00H
	DD	03H
	DD	FLAT:??_R2CNumber_Four_Draw@@8
rdata$r	ENDS
;	COMDAT ??_R0?AVCNumber_Four_Draw@@@8
data$rs	SEGMENT
??_R0?AVCNumber_Four_Draw@@@8 DD FLAT:??_7type_info@@6B@ ; CNumber_Four_Draw `RTTI Type Descriptor'
	DD	00H
	DB	'.?AVCNumber_Four_Draw@@', 00H
data$rs	ENDS
;	COMDAT ??_R4CNumber_Four_Draw@@6B@
rdata$r	SEGMENT
??_R4CNumber_Four_Draw@@6B@ DD 00H			; CNumber_Four_Draw::`RTTI Complete Object Locator'
	DD	00H
	DD	00H
	DD	FLAT:??_R0?AVCNumber_Four_Draw@@@8
	DD	FLAT:??_R3CNumber_Four_Draw@@8
rdata$r	ENDS
;	COMDAT ??_R1A@?0A@EA@CNumber_Three_Draw@@8
rdata$r	SEGMENT
??_R1A@?0A@EA@CNumber_Three_Draw@@8 DD FLAT:??_R0?AVCNumber_Three_Draw@@@8 ; CNumber_Three_Draw::`RTTI Base Class Descriptor at (0,-1,0,64)'
	DD	02H
	DD	00H
	DD	0ffffffffH
	DD	00H
	DD	040H
	DD	FLAT:??_R3CNumber_Three_Draw@@8
rdata$r	ENDS
;	COMDAT ??_R2CNumber_Three_Draw@@8
rdata$r	SEGMENT
??_R2CNumber_Three_Draw@@8 DD FLAT:??_R1A@?0A@EA@CNumber_Three_Draw@@8 ; CNumber_Three_Draw::`RTTI Base Class Array'
	DD	FLAT:??_R1A@?0A@EA@CSymbolDraw_OnePoint_Size@@8
	DD	FLAT:??_R13?0A@EA@CSymbolDraw@@8
rdata$r	ENDS
;	COMDAT ??_R3CNumber_Three_Draw@@8
rdata$r	SEGMENT
??_R3CNumber_Three_Draw@@8 DD 00H			; CNumber_Three_Draw::`RTTI Class Hierarchy Descriptor'
	DD	00H
	DD	03H
	DD	FLAT:??_R2CNumber_Three_Draw@@8
rdata$r	ENDS
;	COMDAT ??_R0?AVCNumber_Three_Draw@@@8
data$rs	SEGMENT
??_R0?AVCNumber_Three_Draw@@@8 DD FLAT:??_7type_info@@6B@ ; CNumber_Three_Draw `RTTI Type Descriptor'
	DD	00H
	DB	'.?AVCNumber_Three_Draw@@', 00H
data$rs	ENDS
;	COMDAT ??_R4CNumber_Three_Draw@@6B@
rdata$r	SEGMENT
??_R4CNumber_Three_Draw@@6B@ DD 00H			; CNumber_Three_Draw::`RTTI Complete Object Locator'
	DD	00H
	DD	00H
	DD	FLAT:??_R0?AVCNumber_Three_Draw@@@8
	DD	FLAT:??_R3CNumber_Three_Draw@@8
rdata$r	ENDS
;	COMDAT ??_R1A@?0A@EA@CNumber_Two_Draw@@8
rdata$r	SEGMENT
??_R1A@?0A@EA@CNumber_Two_Draw@@8 DD FLAT:??_R0?AVCNumber_Two_Draw@@@8 ; CNumber_Two_Draw::`RTTI Base Class Descriptor at (0,-1,0,64)'
	DD	02H
	DD	00H
	DD	0ffffffffH
	DD	00H
	DD	040H
	DD	FLAT:??_R3CNumber_Two_Draw@@8
rdata$r	ENDS
;	COMDAT ??_R2CNumber_Two_Draw@@8
rdata$r	SEGMENT
??_R2CNumber_Two_Draw@@8 DD FLAT:??_R1A@?0A@EA@CNumber_Two_Draw@@8 ; CNumber_Two_Draw::`RTTI Base Class Array'
	DD	FLAT:??_R1A@?0A@EA@CSymbolDraw_OnePoint_Size@@8
	DD	FLAT:??_R13?0A@EA@CSymbolDraw@@8
rdata$r	ENDS
;	COMDAT ??_R3CNumber_Two_Draw@@8
rdata$r	SEGMENT
??_R3CNumber_Two_Draw@@8 DD 00H				; CNumber_Two_Draw::`RTTI Class Hierarchy Descriptor'
	DD	00H
	DD	03H
	DD	FLAT:??_R2CNumber_Two_Draw@@8
rdata$r	ENDS
;	COMDAT ??_R0?AVCNumber_Two_Draw@@@8
data$rs	SEGMENT
??_R0?AVCNumber_Two_Draw@@@8 DD FLAT:??_7type_info@@6B@	; CNumber_Two_Draw `RTTI Type Descriptor'
	DD	00H
	DB	'.?AVCNumber_Two_Draw@@', 00H
data$rs	ENDS
;	COMDAT ??_R4CNumber_Two_Draw@@6B@
rdata$r	SEGMENT
??_R4CNumber_Two_Draw@@6B@ DD 00H			; CNumber_Two_Draw::`RTTI Complete Object Locator'
	DD	00H
	DD	00H
	DD	FLAT:??_R0?AVCNumber_Two_Draw@@@8
	DD	FLAT:??_R3CNumber_Two_Draw@@8
rdata$r	ENDS
;	COMDAT ??_R1A@?0A@EA@CNumber_One_Draw@@8
rdata$r	SEGMENT
??_R1A@?0A@EA@CNumber_One_Draw@@8 DD FLAT:??_R0?AVCNumber_One_Draw@@@8 ; CNumber_One_Draw::`RTTI Base Class Descriptor at (0,-1,0,64)'
	DD	02H
	DD	00H
	DD	0ffffffffH
	DD	00H
	DD	040H
	DD	FLAT:??_R3CNumber_One_Draw@@8
rdata$r	ENDS
;	COMDAT ??_R2CNumber_One_Draw@@8
rdata$r	SEGMENT
??_R2CNumber_One_Draw@@8 DD FLAT:??_R1A@?0A@EA@CNumber_One_Draw@@8 ; CNumber_One_Draw::`RTTI Base Class Array'
	DD	FLAT:??_R1A@?0A@EA@CSymbolDraw_OnePoint_Size@@8
	DD	FLAT:??_R13?0A@EA@CSymbolDraw@@8
rdata$r	ENDS
;	COMDAT ??_R3CNumber_One_Draw@@8
rdata$r	SEGMENT
??_R3CNumber_One_Draw@@8 DD 00H				; CNumber_One_Draw::`RTTI Class Hierarchy Descriptor'
	DD	00H
	DD	03H
	DD	FLAT:??_R2CNumber_One_Draw@@8
rdata$r	ENDS
;	COMDAT ??_R0?AVCNumber_One_Draw@@@8
data$rs	SEGMENT
??_R0?AVCNumber_One_Draw@@@8 DD FLAT:??_7type_info@@6B@	; CNumber_One_Draw `RTTI Type Descriptor'
	DD	00H
	DB	'.?AVCNumber_One_Draw@@', 00H
data$rs	ENDS
;	COMDAT ??_R4CNumber_One_Draw@@6B@
rdata$r	SEGMENT
??_R4CNumber_One_Draw@@6B@ DD 00H			; CNumber_One_Draw::`RTTI Complete Object Locator'
	DD	00H
	DD	00H
	DD	FLAT:??_R0?AVCNumber_One_Draw@@@8
	DD	FLAT:??_R3CNumber_One_Draw@@8
rdata$r	ENDS
;	COMDAT ??_R1A@?0A@EA@CArrow_RightBottom_Draw@@8
rdata$r	SEGMENT
??_R1A@?0A@EA@CArrow_RightBottom_Draw@@8 DD FLAT:??_R0?AVCArrow_RightBottom_Draw@@@8 ; CArrow_RightBottom_Draw::`RTTI Base Class Descriptor at (0,-1,0,64)'
	DD	02H
	DD	00H
	DD	0ffffffffH
	DD	00H
	DD	040H
	DD	FLAT:??_R3CArrow_RightBottom_Draw@@8
rdata$r	ENDS
;	COMDAT ??_R2CArrow_RightBottom_Draw@@8
rdata$r	SEGMENT
??_R2CArrow_RightBottom_Draw@@8 DD FLAT:??_R1A@?0A@EA@CArrow_RightBottom_Draw@@8 ; CArrow_RightBottom_Draw::`RTTI Base Class Array'
	DD	FLAT:??_R1A@?0A@EA@CSymbolDraw_OnePoint_Size@@8
	DD	FLAT:??_R13?0A@EA@CSymbolDraw@@8
rdata$r	ENDS
;	COMDAT ??_R3CArrow_RightBottom_Draw@@8
rdata$r	SEGMENT
??_R3CArrow_RightBottom_Draw@@8 DD 00H			; CArrow_RightBottom_Draw::`RTTI Class Hierarchy Descriptor'
	DD	00H
	DD	03H
	DD	FLAT:??_R2CArrow_RightBottom_Draw@@8
rdata$r	ENDS
;	COMDAT ??_R0?AVCArrow_RightBottom_Draw@@@8
data$rs	SEGMENT
??_R0?AVCArrow_RightBottom_Draw@@@8 DD FLAT:??_7type_info@@6B@ ; CArrow_RightBottom_Draw `RTTI Type Descriptor'
	DD	00H
	DB	'.?AVCArrow_RightBottom_Draw@@', 00H
data$rs	ENDS
;	COMDAT ??_R4CArrow_RightBottom_Draw@@6B@
rdata$r	SEGMENT
??_R4CArrow_RightBottom_Draw@@6B@ DD 00H		; CArrow_RightBottom_Draw::`RTTI Complete Object Locator'
	DD	00H
	DD	00H
	DD	FLAT:??_R0?AVCArrow_RightBottom_Draw@@@8
	DD	FLAT:??_R3CArrow_RightBottom_Draw@@8
rdata$r	ENDS
;	COMDAT ??_R1A@?0A@EA@CArrow_RightTop_Draw@@8
rdata$r	SEGMENT
??_R1A@?0A@EA@CArrow_RightTop_Draw@@8 DD FLAT:??_R0?AVCArrow_RightTop_Draw@@@8 ; CArrow_RightTop_Draw::`RTTI Base Class Descriptor at (0,-1,0,64)'
	DD	02H
	DD	00H
	DD	0ffffffffH
	DD	00H
	DD	040H
	DD	FLAT:??_R3CArrow_RightTop_Draw@@8
rdata$r	ENDS
;	COMDAT ??_R2CArrow_RightTop_Draw@@8
rdata$r	SEGMENT
??_R2CArrow_RightTop_Draw@@8 DD FLAT:??_R1A@?0A@EA@CArrow_RightTop_Draw@@8 ; CArrow_RightTop_Draw::`RTTI Base Class Array'
	DD	FLAT:??_R1A@?0A@EA@CSymbolDraw_OnePoint_Size@@8
	DD	FLAT:??_R13?0A@EA@CSymbolDraw@@8
rdata$r	ENDS
;	COMDAT ??_R3CArrow_RightTop_Draw@@8
rdata$r	SEGMENT
??_R3CArrow_RightTop_Draw@@8 DD 00H			; CArrow_RightTop_Draw::`RTTI Class Hierarchy Descriptor'
	DD	00H
	DD	03H
	DD	FLAT:??_R2CArrow_RightTop_Draw@@8
rdata$r	ENDS
;	COMDAT ??_R0?AVCArrow_RightTop_Draw@@@8
data$rs	SEGMENT
??_R0?AVCArrow_RightTop_Draw@@@8 DD FLAT:??_7type_info@@6B@ ; CArrow_RightTop_Draw `RTTI Type Descriptor'
	DD	00H
	DB	'.?AVCArrow_RightTop_Draw@@', 00H
data$rs	ENDS
;	COMDAT ??_R4CArrow_RightTop_Draw@@6B@
rdata$r	SEGMENT
??_R4CArrow_RightTop_Draw@@6B@ DD 00H			; CArrow_RightTop_Draw::`RTTI Complete Object Locator'
	DD	00H
	DD	00H
	DD	FLAT:??_R0?AVCArrow_RightTop_Draw@@@8
	DD	FLAT:??_R3CArrow_RightTop_Draw@@8
rdata$r	ENDS
;	COMDAT ??_R1A@?0A@EA@CArrow_LeftBottom_Draw@@8
rdata$r	SEGMENT
??_R1A@?0A@EA@CArrow_LeftBottom_Draw@@8 DD FLAT:??_R0?AVCArrow_LeftBottom_Draw@@@8 ; CArrow_LeftBottom_Draw::`RTTI Base Class Descriptor at (0,-1,0,64)'
	DD	02H
	DD	00H
	DD	0ffffffffH
	DD	00H
	DD	040H
	DD	FLAT:??_R3CArrow_LeftBottom_Draw@@8
rdata$r	ENDS
;	COMDAT ??_R2CArrow_LeftBottom_Draw@@8
rdata$r	SEGMENT
??_R2CArrow_LeftBottom_Draw@@8 DD FLAT:??_R1A@?0A@EA@CArrow_LeftBottom_Draw@@8 ; CArrow_LeftBottom_Draw::`RTTI Base Class Array'
	DD	FLAT:??_R1A@?0A@EA@CSymbolDraw_OnePoint_Size@@8
	DD	FLAT:??_R13?0A@EA@CSymbolDraw@@8
rdata$r	ENDS
;	COMDAT ??_R3CArrow_LeftBottom_Draw@@8
rdata$r	SEGMENT
??_R3CArrow_LeftBottom_Draw@@8 DD 00H			; CArrow_LeftBottom_Draw::`RTTI Class Hierarchy Descriptor'
	DD	00H
	DD	03H
	DD	FLAT:??_R2CArrow_LeftBottom_Draw@@8
rdata$r	ENDS
;	COMDAT ??_R0?AVCArrow_LeftBottom_Draw@@@8
data$rs	SEGMENT
??_R0?AVCArrow_LeftBottom_Draw@@@8 DD FLAT:??_7type_info@@6B@ ; CArrow_LeftBottom_Draw `RTTI Type Descriptor'
	DD	00H
	DB	'.?AVCArrow_LeftBottom_Draw@@', 00H
data$rs	ENDS
;	COMDAT ??_R4CArrow_LeftBottom_Draw@@6B@
rdata$r	SEGMENT
??_R4CArrow_LeftBottom_Draw@@6B@ DD 00H			; CArrow_LeftBottom_Draw::`RTTI Complete Object Locator'
	DD	00H
	DD	00H
	DD	FLAT:??_R0?AVCArrow_LeftBottom_Draw@@@8
	DD	FLAT:??_R3CArrow_LeftBottom_Draw@@8
rdata$r	ENDS
;	COMDAT ??_R1A@?0A@EA@CArrow_LeftTop_Draw@@8
rdata$r	SEGMENT
??_R1A@?0A@EA@CArrow_LeftTop_Draw@@8 DD FLAT:??_R0?AVCArrow_LeftTop_Draw@@@8 ; CArrow_LeftTop_Draw::`RTTI Base Class Descriptor at (0,-1,0,64)'
	DD	02H
	DD	00H
	DD	0ffffffffH
	DD	00H
	DD	040H
	DD	FLAT:??_R3CArrow_LeftTop_Draw@@8
rdata$r	ENDS
;	COMDAT ??_R2CArrow_LeftTop_Draw@@8
rdata$r	SEGMENT
??_R2CArrow_LeftTop_Draw@@8 DD FLAT:??_R1A@?0A@EA@CArrow_LeftTop_Draw@@8 ; CArrow_LeftTop_Draw::`RTTI Base Class Array'
	DD	FLAT:??_R1A@?0A@EA@CSymbolDraw_OnePoint_Size@@8
	DD	FLAT:??_R13?0A@EA@CSymbolDraw@@8
rdata$r	ENDS
;	COMDAT ??_R3CArrow_LeftTop_Draw@@8
rdata$r	SEGMENT
??_R3CArrow_LeftTop_Draw@@8 DD 00H			; CArrow_LeftTop_Draw::`RTTI Class Hierarchy Descriptor'
	DD	00H
	DD	03H
	DD	FLAT:??_R2CArrow_LeftTop_Draw@@8
rdata$r	ENDS
;	COMDAT ??_R0?AVCArrow_LeftTop_Draw@@@8
data$rs	SEGMENT
??_R0?AVCArrow_LeftTop_Draw@@@8 DD FLAT:??_7type_info@@6B@ ; CArrow_LeftTop_Draw `RTTI Type Descriptor'
	DD	00H
	DB	'.?AVCArrow_LeftTop_Draw@@', 00H
data$rs	ENDS
;	COMDAT ??_R4CArrow_LeftTop_Draw@@6B@
rdata$r	SEGMENT
??_R4CArrow_LeftTop_Draw@@6B@ DD 00H			; CArrow_LeftTop_Draw::`RTTI Complete Object Locator'
	DD	00H
	DD	00H
	DD	FLAT:??_R0?AVCArrow_LeftTop_Draw@@@8
	DD	FLAT:??_R3CArrow_LeftTop_Draw@@8
rdata$r	ENDS
;	COMDAT ??_R1A@?0A@EA@CArrow_Down_Draw@@8
rdata$r	SEGMENT
??_R1A@?0A@EA@CArrow_Down_Draw@@8 DD FLAT:??_R0?AVCArrow_Down_Draw@@@8 ; CArrow_Down_Draw::`RTTI Base Class Descriptor at (0,-1,0,64)'
	DD	02H
	DD	00H
	DD	0ffffffffH
	DD	00H
	DD	040H
	DD	FLAT:??_R3CArrow_Down_Draw@@8
rdata$r	ENDS
;	COMDAT ??_R2CArrow_Down_Draw@@8
rdata$r	SEGMENT
??_R2CArrow_Down_Draw@@8 DD FLAT:??_R1A@?0A@EA@CArrow_Down_Draw@@8 ; CArrow_Down_Draw::`RTTI Base Class Array'
	DD	FLAT:??_R1A@?0A@EA@CSymbolDraw_OnePoint_Size@@8
	DD	FLAT:??_R13?0A@EA@CSymbolDraw@@8
rdata$r	ENDS
;	COMDAT ??_R3CArrow_Down_Draw@@8
rdata$r	SEGMENT
??_R3CArrow_Down_Draw@@8 DD 00H				; CArrow_Down_Draw::`RTTI Class Hierarchy Descriptor'
	DD	00H
	DD	03H
	DD	FLAT:??_R2CArrow_Down_Draw@@8
rdata$r	ENDS
;	COMDAT ??_R0?AVCArrow_Down_Draw@@@8
data$rs	SEGMENT
??_R0?AVCArrow_Down_Draw@@@8 DD FLAT:??_7type_info@@6B@	; CArrow_Down_Draw `RTTI Type Descriptor'
	DD	00H
	DB	'.?AVCArrow_Down_Draw@@', 00H
data$rs	ENDS
;	COMDAT ??_R4CArrow_Down_Draw@@6B@
rdata$r	SEGMENT
??_R4CArrow_Down_Draw@@6B@ DD 00H			; CArrow_Down_Draw::`RTTI Complete Object Locator'
	DD	00H
	DD	00H
	DD	FLAT:??_R0?AVCArrow_Down_Draw@@@8
	DD	FLAT:??_R3CArrow_Down_Draw@@8
rdata$r	ENDS
;	COMDAT ??_R1A@?0A@EA@CArrow_Up_Draw@@8
rdata$r	SEGMENT
??_R1A@?0A@EA@CArrow_Up_Draw@@8 DD FLAT:??_R0?AVCArrow_Up_Draw@@@8 ; CArrow_Up_Draw::`RTTI Base Class Descriptor at (0,-1,0,64)'
	DD	02H
	DD	00H
	DD	0ffffffffH
	DD	00H
	DD	040H
	DD	FLAT:??_R3CArrow_Up_Draw@@8
rdata$r	ENDS
;	COMDAT ??_R2CArrow_Up_Draw@@8
rdata$r	SEGMENT
??_R2CArrow_Up_Draw@@8 DD FLAT:??_R1A@?0A@EA@CArrow_Up_Draw@@8 ; CArrow_Up_Draw::`RTTI Base Class Array'
	DD	FLAT:??_R1A@?0A@EA@CSymbolDraw_OnePoint_Size@@8
	DD	FLAT:??_R13?0A@EA@CSymbolDraw@@8
rdata$r	ENDS
;	COMDAT ??_R3CArrow_Up_Draw@@8
rdata$r	SEGMENT
??_R3CArrow_Up_Draw@@8 DD 00H				; CArrow_Up_Draw::`RTTI Class Hierarchy Descriptor'
	DD	00H
	DD	03H
	DD	FLAT:??_R2CArrow_Up_Draw@@8
rdata$r	ENDS
;	COMDAT ??_R0?AVCArrow_Up_Draw@@@8
data$rs	SEGMENT
??_R0?AVCArrow_Up_Draw@@@8 DD FLAT:??_7type_info@@6B@	; CArrow_Up_Draw `RTTI Type Descriptor'
	DD	00H
	DB	'.?AVCArrow_Up_Draw@@', 00H
data$rs	ENDS
;	COMDAT ??_R4CArrow_Up_Draw@@6B@
rdata$r	SEGMENT
??_R4CArrow_Up_Draw@@6B@ DD 00H				; CArrow_Up_Draw::`RTTI Complete Object Locator'
	DD	00H
	DD	00H
	DD	FLAT:??_R0?AVCArrow_Up_Draw@@@8
	DD	FLAT:??_R3CArrow_Up_Draw@@8
rdata$r	ENDS
;	COMDAT ??_R1A@?0A@EA@CArrow_Right_Draw@@8
rdata$r	SEGMENT
??_R1A@?0A@EA@CArrow_Right_Draw@@8 DD FLAT:??_R0?AVCArrow_Right_Draw@@@8 ; CArrow_Right_Draw::`RTTI Base Class Descriptor at (0,-1,0,64)'
	DD	02H
	DD	00H
	DD	0ffffffffH
	DD	00H
	DD	040H
	DD	FLAT:??_R3CArrow_Right_Draw@@8
rdata$r	ENDS
;	COMDAT ??_R2CArrow_Right_Draw@@8
rdata$r	SEGMENT
??_R2CArrow_Right_Draw@@8 DD FLAT:??_R1A@?0A@EA@CArrow_Right_Draw@@8 ; CArrow_Right_Draw::`RTTI Base Class Array'
	DD	FLAT:??_R1A@?0A@EA@CSymbolDraw_OnePoint_Size@@8
	DD	FLAT:??_R13?0A@EA@CSymbolDraw@@8
rdata$r	ENDS
;	COMDAT ??_R3CArrow_Right_Draw@@8
rdata$r	SEGMENT
??_R3CArrow_Right_Draw@@8 DD 00H			; CArrow_Right_Draw::`RTTI Class Hierarchy Descriptor'
	DD	00H
	DD	03H
	DD	FLAT:??_R2CArrow_Right_Draw@@8
rdata$r	ENDS
;	COMDAT ??_R0?AVCArrow_Right_Draw@@@8
data$rs	SEGMENT
??_R0?AVCArrow_Right_Draw@@@8 DD FLAT:??_7type_info@@6B@ ; CArrow_Right_Draw `RTTI Type Descriptor'
	DD	00H
	DB	'.?AVCArrow_Right_Draw@@', 00H
data$rs	ENDS
;	COMDAT ??_R4CArrow_Right_Draw@@6B@
rdata$r	SEGMENT
??_R4CArrow_Right_Draw@@6B@ DD 00H			; CArrow_Right_Draw::`RTTI Complete Object Locator'
	DD	00H
	DD	00H
	DD	FLAT:??_R0?AVCArrow_Right_Draw@@@8
	DD	FLAT:??_R3CArrow_Right_Draw@@8
rdata$r	ENDS
;	COMDAT ??_R1A@?0A@EA@CArrow_Left_Draw@@8
rdata$r	SEGMENT
??_R1A@?0A@EA@CArrow_Left_Draw@@8 DD FLAT:??_R0?AVCArrow_Left_Draw@@@8 ; CArrow_Left_Draw::`RTTI Base Class Descriptor at (0,-1,0,64)'
	DD	02H
	DD	00H
	DD	0ffffffffH
	DD	00H
	DD	040H
	DD	FLAT:??_R3CArrow_Left_Draw@@8
rdata$r	ENDS
;	COMDAT ??_R2CArrow_Left_Draw@@8
rdata$r	SEGMENT
??_R2CArrow_Left_Draw@@8 DD FLAT:??_R1A@?0A@EA@CArrow_Left_Draw@@8 ; CArrow_Left_Draw::`RTTI Base Class Array'
	DD	FLAT:??_R1A@?0A@EA@CSymbolDraw_OnePoint_Size@@8
	DD	FLAT:??_R13?0A@EA@CSymbolDraw@@8
rdata$r	ENDS
;	COMDAT ??_R3CArrow_Left_Draw@@8
rdata$r	SEGMENT
??_R3CArrow_Left_Draw@@8 DD 00H				; CArrow_Left_Draw::`RTTI Class Hierarchy Descriptor'
	DD	00H
	DD	03H
	DD	FLAT:??_R2CArrow_Left_Draw@@8
rdata$r	ENDS
;	COMDAT ??_R0?AVCArrow_Left_Draw@@@8
data$rs	SEGMENT
??_R0?AVCArrow_Left_Draw@@@8 DD FLAT:??_7type_info@@6B@	; CArrow_Left_Draw `RTTI Type Descriptor'
	DD	00H
	DB	'.?AVCArrow_Left_Draw@@', 00H
data$rs	ENDS
;	COMDAT ??_R4CArrow_Left_Draw@@6B@
rdata$r	SEGMENT
??_R4CArrow_Left_Draw@@6B@ DD 00H			; CArrow_Left_Draw::`RTTI Complete Object Locator'
	DD	00H
	DD	00H
	DD	FLAT:??_R0?AVCArrow_Left_Draw@@@8
	DD	FLAT:??_R3CArrow_Left_Draw@@8
rdata$r	ENDS
;	COMDAT ??_R1A@?0A@EA@CFigure_Triangle_Draw@@8
rdata$r	SEGMENT
??_R1A@?0A@EA@CFigure_Triangle_Draw@@8 DD FLAT:??_R0?AVCFigure_Triangle_Draw@@@8 ; CFigure_Triangle_Draw::`RTTI Base Class Descriptor at (0,-1,0,64)'
	DD	02H
	DD	00H
	DD	0ffffffffH
	DD	00H
	DD	040H
	DD	FLAT:??_R3CFigure_Triangle_Draw@@8
rdata$r	ENDS
;	COMDAT ??_R2CFigure_Triangle_Draw@@8
rdata$r	SEGMENT
??_R2CFigure_Triangle_Draw@@8 DD FLAT:??_R1A@?0A@EA@CFigure_Triangle_Draw@@8 ; CFigure_Triangle_Draw::`RTTI Base Class Array'
	DD	FLAT:??_R1A@?0A@EA@CSymbolDraw_TwoPoint@@8
	DD	FLAT:??_R13?0A@EA@CSymbolDraw@@8
rdata$r	ENDS
;	COMDAT ??_R3CFigure_Triangle_Draw@@8
rdata$r	SEGMENT
??_R3CFigure_Triangle_Draw@@8 DD 00H			; CFigure_Triangle_Draw::`RTTI Class Hierarchy Descriptor'
	DD	00H
	DD	03H
	DD	FLAT:??_R2CFigure_Triangle_Draw@@8
rdata$r	ENDS
;	COMDAT ??_R0?AVCFigure_Triangle_Draw@@@8
data$rs	SEGMENT
??_R0?AVCFigure_Triangle_Draw@@@8 DD FLAT:??_7type_info@@6B@ ; CFigure_Triangle_Draw `RTTI Type Descriptor'
	DD	00H
	DB	'.?AVCFigure_Triangle_Draw@@', 00H
data$rs	ENDS
;	COMDAT ??_R4CFigure_Triangle_Draw@@6B@
rdata$r	SEGMENT
??_R4CFigure_Triangle_Draw@@6B@ DD 00H			; CFigure_Triangle_Draw::`RTTI Complete Object Locator'
	DD	00H
	DD	00H
	DD	FLAT:??_R0?AVCFigure_Triangle_Draw@@@8
	DD	FLAT:??_R3CFigure_Triangle_Draw@@8
rdata$r	ENDS
;	COMDAT ??_R1A@?0A@EA@CFigure_Circle_Draw@@8
rdata$r	SEGMENT
??_R1A@?0A@EA@CFigure_Circle_Draw@@8 DD FLAT:??_R0?AVCFigure_Circle_Draw@@@8 ; CFigure_Circle_Draw::`RTTI Base Class Descriptor at (0,-1,0,64)'
	DD	02H
	DD	00H
	DD	0ffffffffH
	DD	00H
	DD	040H
	DD	FLAT:??_R3CFigure_Circle_Draw@@8
rdata$r	ENDS
;	COMDAT ??_R2CFigure_Circle_Draw@@8
rdata$r	SEGMENT
??_R2CFigure_Circle_Draw@@8 DD FLAT:??_R1A@?0A@EA@CFigure_Circle_Draw@@8 ; CFigure_Circle_Draw::`RTTI Base Class Array'
	DD	FLAT:??_R1A@?0A@EA@CSymbolDraw_TwoPoint@@8
	DD	FLAT:??_R13?0A@EA@CSymbolDraw@@8
rdata$r	ENDS
;	COMDAT ??_R3CFigure_Circle_Draw@@8
rdata$r	SEGMENT
??_R3CFigure_Circle_Draw@@8 DD 00H			; CFigure_Circle_Draw::`RTTI Class Hierarchy Descriptor'
	DD	00H
	DD	03H
	DD	FLAT:??_R2CFigure_Circle_Draw@@8
rdata$r	ENDS
;	COMDAT ??_R0?AVCFigure_Circle_Draw@@@8
data$rs	SEGMENT
??_R0?AVCFigure_Circle_Draw@@@8 DD FLAT:??_7type_info@@6B@ ; CFigure_Circle_Draw `RTTI Type Descriptor'
	DD	00H
	DB	'.?AVCFigure_Circle_Draw@@', 00H
data$rs	ENDS
;	COMDAT ??_R4CFigure_Circle_Draw@@6B@
rdata$r	SEGMENT
??_R4CFigure_Circle_Draw@@6B@ DD 00H			; CFigure_Circle_Draw::`RTTI Complete Object Locator'
	DD	00H
	DD	00H
	DD	FLAT:??_R0?AVCFigure_Circle_Draw@@@8
	DD	FLAT:??_R3CFigure_Circle_Draw@@8
rdata$r	ENDS
;	COMDAT ??_R1A@?0A@EA@CFigure_Square_Draw@@8
rdata$r	SEGMENT
??_R1A@?0A@EA@CFigure_Square_Draw@@8 DD FLAT:??_R0?AVCFigure_Square_Draw@@@8 ; CFigure_Square_Draw::`RTTI Base Class Descriptor at (0,-1,0,64)'
	DD	02H
	DD	00H
	DD	0ffffffffH
	DD	00H
	DD	040H
	DD	FLAT:??_R3CFigure_Square_Draw@@8
rdata$r	ENDS
;	COMDAT ??_R2CFigure_Square_Draw@@8
rdata$r	SEGMENT
??_R2CFigure_Square_Draw@@8 DD FLAT:??_R1A@?0A@EA@CFigure_Square_Draw@@8 ; CFigure_Square_Draw::`RTTI Base Class Array'
	DD	FLAT:??_R1A@?0A@EA@CSymbolDraw_TwoPoint@@8
	DD	FLAT:??_R13?0A@EA@CSymbolDraw@@8
rdata$r	ENDS
;	COMDAT ??_R3CFigure_Square_Draw@@8
rdata$r	SEGMENT
??_R3CFigure_Square_Draw@@8 DD 00H			; CFigure_Square_Draw::`RTTI Class Hierarchy Descriptor'
	DD	00H
	DD	03H
	DD	FLAT:??_R2CFigure_Square_Draw@@8
rdata$r	ENDS
;	COMDAT ??_R0?AVCFigure_Square_Draw@@@8
data$rs	SEGMENT
??_R0?AVCFigure_Square_Draw@@@8 DD FLAT:??_7type_info@@6B@ ; CFigure_Square_Draw `RTTI Type Descriptor'
	DD	00H
	DB	'.?AVCFigure_Square_Draw@@', 00H
data$rs	ENDS
;	COMDAT ??_R4CFigure_Square_Draw@@6B@
rdata$r	SEGMENT
??_R4CFigure_Square_Draw@@6B@ DD 00H			; CFigure_Square_Draw::`RTTI Complete Object Locator'
	DD	00H
	DD	00H
	DD	FLAT:??_R0?AVCFigure_Square_Draw@@@8
	DD	FLAT:??_R3CFigure_Square_Draw@@8
rdata$r	ENDS
;	COMDAT ??_R1A@?0A@EA@CSymbolDraw_TwoPoint@@8
rdata$r	SEGMENT
??_R1A@?0A@EA@CSymbolDraw_TwoPoint@@8 DD FLAT:??_R0?AVCSymbolDraw_TwoPoint@@@8 ; CSymbolDraw_TwoPoint::`RTTI Base Class Descriptor at (0,-1,0,64)'
	DD	01H
	DD	00H
	DD	0ffffffffH
	DD	00H
	DD	040H
	DD	FLAT:??_R3CSymbolDraw_TwoPoint@@8
rdata$r	ENDS
;	COMDAT ??_R2CSymbolDraw_TwoPoint@@8
rdata$r	SEGMENT
??_R2CSymbolDraw_TwoPoint@@8 DD FLAT:??_R1A@?0A@EA@CSymbolDraw_TwoPoint@@8 ; CSymbolDraw_TwoPoint::`RTTI Base Class Array'
	DD	FLAT:??_R13?0A@EA@CSymbolDraw@@8
rdata$r	ENDS
;	COMDAT ??_R3CSymbolDraw_TwoPoint@@8
rdata$r	SEGMENT
??_R3CSymbolDraw_TwoPoint@@8 DD 00H			; CSymbolDraw_TwoPoint::`RTTI Class Hierarchy Descriptor'
	DD	00H
	DD	02H
	DD	FLAT:??_R2CSymbolDraw_TwoPoint@@8
rdata$r	ENDS
;	COMDAT ??_R0?AVCSymbolDraw_TwoPoint@@@8
data$rs	SEGMENT
??_R0?AVCSymbolDraw_TwoPoint@@@8 DD FLAT:??_7type_info@@6B@ ; CSymbolDraw_TwoPoint `RTTI Type Descriptor'
	DD	00H
	DB	'.?AVCSymbolDraw_TwoPoint@@', 00H
data$rs	ENDS
;	COMDAT ??_R4CSymbolDraw_TwoPoint@@6B@
rdata$r	SEGMENT
??_R4CSymbolDraw_TwoPoint@@6B@ DD 00H			; CSymbolDraw_TwoPoint::`RTTI Complete Object Locator'
	DD	00H
	DD	00H
	DD	FLAT:??_R0?AVCSymbolDraw_TwoPoint@@@8
	DD	FLAT:??_R3CSymbolDraw_TwoPoint@@8
rdata$r	ENDS
;	COMDAT ??_R1A@?0A@EA@CSymbolDraw@@8
rdata$r	SEGMENT
??_R1A@?0A@EA@CSymbolDraw@@8 DD FLAT:??_R0?AVCSymbolDraw@@@8 ; CSymbolDraw::`RTTI Base Class Descriptor at (0,-1,0,64)'
	DD	00H
	DD	00H
	DD	0ffffffffH
	DD	00H
	DD	040H
	DD	FLAT:??_R3CSymbolDraw@@8
rdata$r	ENDS
;	COMDAT ??_R2CSymbolDraw@@8
rdata$r	SEGMENT
??_R2CSymbolDraw@@8 DD FLAT:??_R1A@?0A@EA@CSymbolDraw@@8 ; CSymbolDraw::`RTTI Base Class Array'
rdata$r	ENDS
;	COMDAT ??_R3CSymbolDraw@@8
rdata$r	SEGMENT
??_R3CSymbolDraw@@8 DD 00H				; CSymbolDraw::`RTTI Class Hierarchy Descriptor'
	DD	00H
	DD	01H
	DD	FLAT:??_R2CSymbolDraw@@8
rdata$r	ENDS
;	COMDAT ??_R0?AVCSymbolDraw@@@8
data$rs	SEGMENT
??_R0?AVCSymbolDraw@@@8 DD FLAT:??_7type_info@@6B@	; CSymbolDraw `RTTI Type Descriptor'
	DD	00H
	DB	'.?AVCSymbolDraw@@', 00H
data$rs	ENDS
;	COMDAT ??_R13?0A@EA@CSymbolDraw@@8
rdata$r	SEGMENT
??_R13?0A@EA@CSymbolDraw@@8 DD FLAT:??_R0?AVCSymbolDraw@@@8 ; CSymbolDraw::`RTTI Base Class Descriptor at (4,-1,0,64)'
	DD	00H
	DD	04H
	DD	0ffffffffH
	DD	00H
	DD	040H
	DD	FLAT:??_R3CSymbolDraw@@8
rdata$r	ENDS
;	COMDAT ??_R1A@?0A@EA@CSymbolDraw_OnePoint_Size@@8
rdata$r	SEGMENT
??_R1A@?0A@EA@CSymbolDraw_OnePoint_Size@@8 DD FLAT:??_R0?AVCSymbolDraw_OnePoint_Size@@@8 ; CSymbolDraw_OnePoint_Size::`RTTI Base Class Descriptor at (0,-1,0,64)'
	DD	01H
	DD	00H
	DD	0ffffffffH
	DD	00H
	DD	040H
	DD	FLAT:??_R3CSymbolDraw_OnePoint_Size@@8
rdata$r	ENDS
;	COMDAT ??_R2CSymbolDraw_OnePoint_Size@@8
rdata$r	SEGMENT
??_R2CSymbolDraw_OnePoint_Size@@8 DD FLAT:??_R1A@?0A@EA@CSymbolDraw_OnePoint_Size@@8 ; CSymbolDraw_OnePoint_Size::`RTTI Base Class Array'
	DD	FLAT:??_R13?0A@EA@CSymbolDraw@@8
rdata$r	ENDS
;	COMDAT ??_R3CSymbolDraw_OnePoint_Size@@8
rdata$r	SEGMENT
??_R3CSymbolDraw_OnePoint_Size@@8 DD 00H		; CSymbolDraw_OnePoint_Size::`RTTI Class Hierarchy Descriptor'
	DD	00H
	DD	02H
	DD	FLAT:??_R2CSymbolDraw_OnePoint_Size@@8
rdata$r	ENDS
;	COMDAT ??_R0?AVCSymbolDraw_OnePoint_Size@@@8
data$rs	SEGMENT
??_R0?AVCSymbolDraw_OnePoint_Size@@@8 DD FLAT:??_7type_info@@6B@ ; CSymbolDraw_OnePoint_Size `RTTI Type Descriptor'
	DD	00H
	DB	'.?AVCSymbolDraw_OnePoint_Size@@', 00H
data$rs	ENDS
;	COMDAT ??_R4CSymbolDraw_OnePoint_Size@@6B@
rdata$r	SEGMENT
??_R4CSymbolDraw_OnePoint_Size@@6B@ DD 00H		; CSymbolDraw_OnePoint_Size::`RTTI Complete Object Locator'
	DD	00H
	DD	00H
	DD	FLAT:??_R0?AVCSymbolDraw_OnePoint_Size@@@8
	DD	FLAT:??_R3CSymbolDraw_OnePoint_Size@@8
rdata$r	ENDS
;	COMDAT ??_R1A@?0A@EA@CChar_6_Tool@@8
rdata$r	SEGMENT
??_R1A@?0A@EA@CChar_6_Tool@@8 DD FLAT:??_R0?AVCChar_6_Tool@@@8 ; CChar_6_Tool::`RTTI Base Class Descriptor at (0,-1,0,64)'
	DD	02H
	DD	00H
	DD	0ffffffffH
	DD	00H
	DD	040H
	DD	FLAT:??_R3CChar_6_Tool@@8
rdata$r	ENDS
;	COMDAT ??_R2CChar_6_Tool@@8
rdata$r	SEGMENT
??_R2CChar_6_Tool@@8 DD FLAT:??_R1A@?0A@EA@CChar_6_Tool@@8 ; CChar_6_Tool::`RTTI Base Class Array'
	DD	FLAT:??_R1A@?0A@EA@CSymbolTool_OnePoint_Size@@8
	DD	FLAT:??_R1A@?0A@EA@CSymbolTool@@8
rdata$r	ENDS
;	COMDAT ??_R3CChar_6_Tool@@8
rdata$r	SEGMENT
??_R3CChar_6_Tool@@8 DD 00H				; CChar_6_Tool::`RTTI Class Hierarchy Descriptor'
	DD	00H
	DD	03H
	DD	FLAT:??_R2CChar_6_Tool@@8
rdata$r	ENDS
;	COMDAT ??_R0?AVCChar_6_Tool@@@8
data$rs	SEGMENT
??_R0?AVCChar_6_Tool@@@8 DD FLAT:??_7type_info@@6B@	; CChar_6_Tool `RTTI Type Descriptor'
	DD	00H
	DB	'.?AVCChar_6_Tool@@', 00H
data$rs	ENDS
;	COMDAT ??_R4CChar_6_Tool@@6B@
rdata$r	SEGMENT
??_R4CChar_6_Tool@@6B@ DD 00H				; CChar_6_Tool::`RTTI Complete Object Locator'
	DD	00H
	DD	00H
	DD	FLAT:??_R0?AVCChar_6_Tool@@@8
	DD	FLAT:??_R3CChar_6_Tool@@8
rdata$r	ENDS
;	COMDAT ??_R1A@?0A@EA@CChar_5_Tool@@8
rdata$r	SEGMENT
??_R1A@?0A@EA@CChar_5_Tool@@8 DD FLAT:??_R0?AVCChar_5_Tool@@@8 ; CChar_5_Tool::`RTTI Base Class Descriptor at (0,-1,0,64)'
	DD	02H
	DD	00H
	DD	0ffffffffH
	DD	00H
	DD	040H
	DD	FLAT:??_R3CChar_5_Tool@@8
rdata$r	ENDS
;	COMDAT ??_R2CChar_5_Tool@@8
rdata$r	SEGMENT
??_R2CChar_5_Tool@@8 DD FLAT:??_R1A@?0A@EA@CChar_5_Tool@@8 ; CChar_5_Tool::`RTTI Base Class Array'
	DD	FLAT:??_R1A@?0A@EA@CSymbolTool_OnePoint_Size@@8
	DD	FLAT:??_R1A@?0A@EA@CSymbolTool@@8
rdata$r	ENDS
;	COMDAT ??_R3CChar_5_Tool@@8
rdata$r	SEGMENT
??_R3CChar_5_Tool@@8 DD 00H				; CChar_5_Tool::`RTTI Class Hierarchy Descriptor'
	DD	00H
	DD	03H
	DD	FLAT:??_R2CChar_5_Tool@@8
rdata$r	ENDS
;	COMDAT ??_R0?AVCChar_5_Tool@@@8
data$rs	SEGMENT
??_R0?AVCChar_5_Tool@@@8 DD FLAT:??_7type_info@@6B@	; CChar_5_Tool `RTTI Type Descriptor'
	DD	00H
	DB	'.?AVCChar_5_Tool@@', 00H
data$rs	ENDS
;	COMDAT ??_R4CChar_5_Tool@@6B@
rdata$r	SEGMENT
??_R4CChar_5_Tool@@6B@ DD 00H				; CChar_5_Tool::`RTTI Complete Object Locator'
	DD	00H
	DD	00H
	DD	FLAT:??_R0?AVCChar_5_Tool@@@8
	DD	FLAT:??_R3CChar_5_Tool@@8
rdata$r	ENDS
;	COMDAT ??_R1A@?0A@EA@CChar_4_Tool@@8
rdata$r	SEGMENT
??_R1A@?0A@EA@CChar_4_Tool@@8 DD FLAT:??_R0?AVCChar_4_Tool@@@8 ; CChar_4_Tool::`RTTI Base Class Descriptor at (0,-1,0,64)'
	DD	02H
	DD	00H
	DD	0ffffffffH
	DD	00H
	DD	040H
	DD	FLAT:??_R3CChar_4_Tool@@8
rdata$r	ENDS
;	COMDAT ??_R2CChar_4_Tool@@8
rdata$r	SEGMENT
??_R2CChar_4_Tool@@8 DD FLAT:??_R1A@?0A@EA@CChar_4_Tool@@8 ; CChar_4_Tool::`RTTI Base Class Array'
	DD	FLAT:??_R1A@?0A@EA@CSymbolTool_OnePoint_Size@@8
	DD	FLAT:??_R1A@?0A@EA@CSymbolTool@@8
rdata$r	ENDS
;	COMDAT ??_R3CChar_4_Tool@@8
rdata$r	SEGMENT
??_R3CChar_4_Tool@@8 DD 00H				; CChar_4_Tool::`RTTI Class Hierarchy Descriptor'
	DD	00H
	DD	03H
	DD	FLAT:??_R2CChar_4_Tool@@8
rdata$r	ENDS
;	COMDAT ??_R0?AVCChar_4_Tool@@@8
data$rs	SEGMENT
??_R0?AVCChar_4_Tool@@@8 DD FLAT:??_7type_info@@6B@	; CChar_4_Tool `RTTI Type Descriptor'
	DD	00H
	DB	'.?AVCChar_4_Tool@@', 00H
data$rs	ENDS
;	COMDAT ??_R4CChar_4_Tool@@6B@
rdata$r	SEGMENT
??_R4CChar_4_Tool@@6B@ DD 00H				; CChar_4_Tool::`RTTI Complete Object Locator'
	DD	00H
	DD	00H
	DD	FLAT:??_R0?AVCChar_4_Tool@@@8
	DD	FLAT:??_R3CChar_4_Tool@@8
rdata$r	ENDS
;	COMDAT ??_R1A@?0A@EA@CChar_3_Tool@@8
rdata$r	SEGMENT
??_R1A@?0A@EA@CChar_3_Tool@@8 DD FLAT:??_R0?AVCChar_3_Tool@@@8 ; CChar_3_Tool::`RTTI Base Class Descriptor at (0,-1,0,64)'
	DD	02H
	DD	00H
	DD	0ffffffffH
	DD	00H
	DD	040H
	DD	FLAT:??_R3CChar_3_Tool@@8
rdata$r	ENDS
;	COMDAT ??_R2CChar_3_Tool@@8
rdata$r	SEGMENT
??_R2CChar_3_Tool@@8 DD FLAT:??_R1A@?0A@EA@CChar_3_Tool@@8 ; CChar_3_Tool::`RTTI Base Class Array'
	DD	FLAT:??_R1A@?0A@EA@CSymbolTool_OnePoint_Size@@8
	DD	FLAT:??_R1A@?0A@EA@CSymbolTool@@8
rdata$r	ENDS
;	COMDAT ??_R3CChar_3_Tool@@8
rdata$r	SEGMENT
??_R3CChar_3_Tool@@8 DD 00H				; CChar_3_Tool::`RTTI Class Hierarchy Descriptor'
	DD	00H
	DD	03H
	DD	FLAT:??_R2CChar_3_Tool@@8
rdata$r	ENDS
;	COMDAT ??_R0?AVCChar_3_Tool@@@8
data$rs	SEGMENT
??_R0?AVCChar_3_Tool@@@8 DD FLAT:??_7type_info@@6B@	; CChar_3_Tool `RTTI Type Descriptor'
	DD	00H
	DB	'.?AVCChar_3_Tool@@', 00H
data$rs	ENDS
;	COMDAT ??_R4CChar_3_Tool@@6B@
rdata$r	SEGMENT
??_R4CChar_3_Tool@@6B@ DD 00H				; CChar_3_Tool::`RTTI Complete Object Locator'
	DD	00H
	DD	00H
	DD	FLAT:??_R0?AVCChar_3_Tool@@@8
	DD	FLAT:??_R3CChar_3_Tool@@8
rdata$r	ENDS
;	COMDAT ??_R1A@?0A@EA@CChar_2_Tool@@8
rdata$r	SEGMENT
??_R1A@?0A@EA@CChar_2_Tool@@8 DD FLAT:??_R0?AVCChar_2_Tool@@@8 ; CChar_2_Tool::`RTTI Base Class Descriptor at (0,-1,0,64)'
	DD	02H
	DD	00H
	DD	0ffffffffH
	DD	00H
	DD	040H
	DD	FLAT:??_R3CChar_2_Tool@@8
rdata$r	ENDS
;	COMDAT ??_R2CChar_2_Tool@@8
rdata$r	SEGMENT
??_R2CChar_2_Tool@@8 DD FLAT:??_R1A@?0A@EA@CChar_2_Tool@@8 ; CChar_2_Tool::`RTTI Base Class Array'
	DD	FLAT:??_R1A@?0A@EA@CSymbolTool_OnePoint_Size@@8
	DD	FLAT:??_R1A@?0A@EA@CSymbolTool@@8
rdata$r	ENDS
;	COMDAT ??_R3CChar_2_Tool@@8
rdata$r	SEGMENT
??_R3CChar_2_Tool@@8 DD 00H				; CChar_2_Tool::`RTTI Class Hierarchy Descriptor'
	DD	00H
	DD	03H
	DD	FLAT:??_R2CChar_2_Tool@@8
rdata$r	ENDS
;	COMDAT ??_R0?AVCChar_2_Tool@@@8
data$rs	SEGMENT
??_R0?AVCChar_2_Tool@@@8 DD FLAT:??_7type_info@@6B@	; CChar_2_Tool `RTTI Type Descriptor'
	DD	00H
	DB	'.?AVCChar_2_Tool@@', 00H
data$rs	ENDS
;	COMDAT ??_R4CChar_2_Tool@@6B@
rdata$r	SEGMENT
??_R4CChar_2_Tool@@6B@ DD 00H				; CChar_2_Tool::`RTTI Complete Object Locator'
	DD	00H
	DD	00H
	DD	FLAT:??_R0?AVCChar_2_Tool@@@8
	DD	FLAT:??_R3CChar_2_Tool@@8
rdata$r	ENDS
;	COMDAT ??_R1A@?0A@EA@CChar_1_Tool@@8
rdata$r	SEGMENT
??_R1A@?0A@EA@CChar_1_Tool@@8 DD FLAT:??_R0?AVCChar_1_Tool@@@8 ; CChar_1_Tool::`RTTI Base Class Descriptor at (0,-1,0,64)'
	DD	02H
	DD	00H
	DD	0ffffffffH
	DD	00H
	DD	040H
	DD	FLAT:??_R3CChar_1_Tool@@8
rdata$r	ENDS
;	COMDAT ??_R2CChar_1_Tool@@8
rdata$r	SEGMENT
??_R2CChar_1_Tool@@8 DD FLAT:??_R1A@?0A@EA@CChar_1_Tool@@8 ; CChar_1_Tool::`RTTI Base Class Array'
	DD	FLAT:??_R1A@?0A@EA@CSymbolTool_OnePoint_Size@@8
	DD	FLAT:??_R1A@?0A@EA@CSymbolTool@@8
rdata$r	ENDS
;	COMDAT ??_R3CChar_1_Tool@@8
rdata$r	SEGMENT
??_R3CChar_1_Tool@@8 DD 00H				; CChar_1_Tool::`RTTI Class Hierarchy Descriptor'
	DD	00H
	DD	03H
	DD	FLAT:??_R2CChar_1_Tool@@8
rdata$r	ENDS
;	COMDAT ??_R0?AVCChar_1_Tool@@@8
data$rs	SEGMENT
??_R0?AVCChar_1_Tool@@@8 DD FLAT:??_7type_info@@6B@	; CChar_1_Tool `RTTI Type Descriptor'
	DD	00H
	DB	'.?AVCChar_1_Tool@@', 00H
data$rs	ENDS
;	COMDAT ??_R4CChar_1_Tool@@6B@
rdata$r	SEGMENT
??_R4CChar_1_Tool@@6B@ DD 00H				; CChar_1_Tool::`RTTI Complete Object Locator'
	DD	00H
	DD	00H
	DD	FLAT:??_R0?AVCChar_1_Tool@@@8
	DD	FLAT:??_R3CChar_1_Tool@@8
rdata$r	ENDS
;	COMDAT ??_R1A@?0A@EA@CText_H_Tool@@8
rdata$r	SEGMENT
??_R1A@?0A@EA@CText_H_Tool@@8 DD FLAT:??_R0?AVCText_H_Tool@@@8 ; CText_H_Tool::`RTTI Base Class Descriptor at (0,-1,0,64)'
	DD	02H
	DD	00H
	DD	0ffffffffH
	DD	00H
	DD	040H
	DD	FLAT:??_R3CText_H_Tool@@8
rdata$r	ENDS
;	COMDAT ??_R2CText_H_Tool@@8
rdata$r	SEGMENT
??_R2CText_H_Tool@@8 DD FLAT:??_R1A@?0A@EA@CText_H_Tool@@8 ; CText_H_Tool::`RTTI Base Class Array'
	DD	FLAT:??_R1A@?0A@EA@CSymbolTool_OnePoint_Size@@8
	DD	FLAT:??_R1A@?0A@EA@CSymbolTool@@8
rdata$r	ENDS
;	COMDAT ??_R3CText_H_Tool@@8
rdata$r	SEGMENT
??_R3CText_H_Tool@@8 DD 00H				; CText_H_Tool::`RTTI Class Hierarchy Descriptor'
	DD	00H
	DD	03H
	DD	FLAT:??_R2CText_H_Tool@@8
rdata$r	ENDS
;	COMDAT ??_R0?AVCText_H_Tool@@@8
data$rs	SEGMENT
??_R0?AVCText_H_Tool@@@8 DD FLAT:??_7type_info@@6B@	; CText_H_Tool `RTTI Type Descriptor'
	DD	00H
	DB	'.?AVCText_H_Tool@@', 00H
data$rs	ENDS
;	COMDAT ??_R4CText_H_Tool@@6B@
rdata$r	SEGMENT
??_R4CText_H_Tool@@6B@ DD 00H				; CText_H_Tool::`RTTI Complete Object Locator'
	DD	00H
	DD	00H
	DD	FLAT:??_R0?AVCText_H_Tool@@@8
	DD	FLAT:??_R3CText_H_Tool@@8
rdata$r	ENDS
;	COMDAT ??_R1A@?0A@EA@CText_G_Tool@@8
rdata$r	SEGMENT
??_R1A@?0A@EA@CText_G_Tool@@8 DD FLAT:??_R0?AVCText_G_Tool@@@8 ; CText_G_Tool::`RTTI Base Class Descriptor at (0,-1,0,64)'
	DD	02H
	DD	00H
	DD	0ffffffffH
	DD	00H
	DD	040H
	DD	FLAT:??_R3CText_G_Tool@@8
rdata$r	ENDS
;	COMDAT ??_R2CText_G_Tool@@8
rdata$r	SEGMENT
??_R2CText_G_Tool@@8 DD FLAT:??_R1A@?0A@EA@CText_G_Tool@@8 ; CText_G_Tool::`RTTI Base Class Array'
	DD	FLAT:??_R1A@?0A@EA@CSymbolTool_OnePoint_Size@@8
	DD	FLAT:??_R1A@?0A@EA@CSymbolTool@@8
rdata$r	ENDS
;	COMDAT ??_R3CText_G_Tool@@8
rdata$r	SEGMENT
??_R3CText_G_Tool@@8 DD 00H				; CText_G_Tool::`RTTI Class Hierarchy Descriptor'
	DD	00H
	DD	03H
	DD	FLAT:??_R2CText_G_Tool@@8
rdata$r	ENDS
;	COMDAT ??_R0?AVCText_G_Tool@@@8
data$rs	SEGMENT
??_R0?AVCText_G_Tool@@@8 DD FLAT:??_7type_info@@6B@	; CText_G_Tool `RTTI Type Descriptor'
	DD	00H
	DB	'.?AVCText_G_Tool@@', 00H
data$rs	ENDS
;	COMDAT ??_R4CText_G_Tool@@6B@
rdata$r	SEGMENT
??_R4CText_G_Tool@@6B@ DD 00H				; CText_G_Tool::`RTTI Complete Object Locator'
	DD	00H
	DD	00H
	DD	FLAT:??_R0?AVCText_G_Tool@@@8
	DD	FLAT:??_R3CText_G_Tool@@8
rdata$r	ENDS
;	COMDAT ??_R1A@?0A@EA@CText_F_Tool@@8
rdata$r	SEGMENT
??_R1A@?0A@EA@CText_F_Tool@@8 DD FLAT:??_R0?AVCText_F_Tool@@@8 ; CText_F_Tool::`RTTI Base Class Descriptor at (0,-1,0,64)'
	DD	02H
	DD	00H
	DD	0ffffffffH
	DD	00H
	DD	040H
	DD	FLAT:??_R3CText_F_Tool@@8
rdata$r	ENDS
;	COMDAT ??_R2CText_F_Tool@@8
rdata$r	SEGMENT
??_R2CText_F_Tool@@8 DD FLAT:??_R1A@?0A@EA@CText_F_Tool@@8 ; CText_F_Tool::`RTTI Base Class Array'
	DD	FLAT:??_R1A@?0A@EA@CSymbolTool_OnePoint_Size@@8
	DD	FLAT:??_R1A@?0A@EA@CSymbolTool@@8
rdata$r	ENDS
;	COMDAT ??_R3CText_F_Tool@@8
rdata$r	SEGMENT
??_R3CText_F_Tool@@8 DD 00H				; CText_F_Tool::`RTTI Class Hierarchy Descriptor'
	DD	00H
	DD	03H
	DD	FLAT:??_R2CText_F_Tool@@8
rdata$r	ENDS
;	COMDAT ??_R0?AVCText_F_Tool@@@8
data$rs	SEGMENT
??_R0?AVCText_F_Tool@@@8 DD FLAT:??_7type_info@@6B@	; CText_F_Tool `RTTI Type Descriptor'
	DD	00H
	DB	'.?AVCText_F_Tool@@', 00H
data$rs	ENDS
;	COMDAT ??_R4CText_F_Tool@@6B@
rdata$r	SEGMENT
??_R4CText_F_Tool@@6B@ DD 00H				; CText_F_Tool::`RTTI Complete Object Locator'
	DD	00H
	DD	00H
	DD	FLAT:??_R0?AVCText_F_Tool@@@8
	DD	FLAT:??_R3CText_F_Tool@@8
rdata$r	ENDS
;	COMDAT ??_R1A@?0A@EA@CText_E_Tool@@8
rdata$r	SEGMENT
??_R1A@?0A@EA@CText_E_Tool@@8 DD FLAT:??_R0?AVCText_E_Tool@@@8 ; CText_E_Tool::`RTTI Base Class Descriptor at (0,-1,0,64)'
	DD	02H
	DD	00H
	DD	0ffffffffH
	DD	00H
	DD	040H
	DD	FLAT:??_R3CText_E_Tool@@8
rdata$r	ENDS
;	COMDAT ??_R2CText_E_Tool@@8
rdata$r	SEGMENT
??_R2CText_E_Tool@@8 DD FLAT:??_R1A@?0A@EA@CText_E_Tool@@8 ; CText_E_Tool::`RTTI Base Class Array'
	DD	FLAT:??_R1A@?0A@EA@CSymbolTool_OnePoint_Size@@8
	DD	FLAT:??_R1A@?0A@EA@CSymbolTool@@8
rdata$r	ENDS
;	COMDAT ??_R3CText_E_Tool@@8
rdata$r	SEGMENT
??_R3CText_E_Tool@@8 DD 00H				; CText_E_Tool::`RTTI Class Hierarchy Descriptor'
	DD	00H
	DD	03H
	DD	FLAT:??_R2CText_E_Tool@@8
rdata$r	ENDS
;	COMDAT ??_R0?AVCText_E_Tool@@@8
data$rs	SEGMENT
??_R0?AVCText_E_Tool@@@8 DD FLAT:??_7type_info@@6B@	; CText_E_Tool `RTTI Type Descriptor'
	DD	00H
	DB	'.?AVCText_E_Tool@@', 00H
data$rs	ENDS
;	COMDAT ??_R4CText_E_Tool@@6B@
rdata$r	SEGMENT
??_R4CText_E_Tool@@6B@ DD 00H				; CText_E_Tool::`RTTI Complete Object Locator'
	DD	00H
	DD	00H
	DD	FLAT:??_R0?AVCText_E_Tool@@@8
	DD	FLAT:??_R3CText_E_Tool@@8
rdata$r	ENDS
;	COMDAT ??_R1A@?0A@EA@CText_D_Tool@@8
rdata$r	SEGMENT
??_R1A@?0A@EA@CText_D_Tool@@8 DD FLAT:??_R0?AVCText_D_Tool@@@8 ; CText_D_Tool::`RTTI Base Class Descriptor at (0,-1,0,64)'
	DD	02H
	DD	00H
	DD	0ffffffffH
	DD	00H
	DD	040H
	DD	FLAT:??_R3CText_D_Tool@@8
rdata$r	ENDS
;	COMDAT ??_R2CText_D_Tool@@8
rdata$r	SEGMENT
??_R2CText_D_Tool@@8 DD FLAT:??_R1A@?0A@EA@CText_D_Tool@@8 ; CText_D_Tool::`RTTI Base Class Array'
	DD	FLAT:??_R1A@?0A@EA@CSymbolTool_OnePoint_Size@@8
	DD	FLAT:??_R1A@?0A@EA@CSymbolTool@@8
rdata$r	ENDS
;	COMDAT ??_R3CText_D_Tool@@8
rdata$r	SEGMENT
??_R3CText_D_Tool@@8 DD 00H				; CText_D_Tool::`RTTI Class Hierarchy Descriptor'
	DD	00H
	DD	03H
	DD	FLAT:??_R2CText_D_Tool@@8
rdata$r	ENDS
;	COMDAT ??_R0?AVCText_D_Tool@@@8
data$rs	SEGMENT
??_R0?AVCText_D_Tool@@@8 DD FLAT:??_7type_info@@6B@	; CText_D_Tool `RTTI Type Descriptor'
	DD	00H
	DB	'.?AVCText_D_Tool@@', 00H
data$rs	ENDS
;	COMDAT ??_R4CText_D_Tool@@6B@
rdata$r	SEGMENT
??_R4CText_D_Tool@@6B@ DD 00H				; CText_D_Tool::`RTTI Complete Object Locator'
	DD	00H
	DD	00H
	DD	FLAT:??_R0?AVCText_D_Tool@@@8
	DD	FLAT:??_R3CText_D_Tool@@8
rdata$r	ENDS
;	COMDAT ??_R1A@?0A@EA@CText_C_Tool@@8
rdata$r	SEGMENT
??_R1A@?0A@EA@CText_C_Tool@@8 DD FLAT:??_R0?AVCText_C_Tool@@@8 ; CText_C_Tool::`RTTI Base Class Descriptor at (0,-1,0,64)'
	DD	02H
	DD	00H
	DD	0ffffffffH
	DD	00H
	DD	040H
	DD	FLAT:??_R3CText_C_Tool@@8
rdata$r	ENDS
;	COMDAT ??_R2CText_C_Tool@@8
rdata$r	SEGMENT
??_R2CText_C_Tool@@8 DD FLAT:??_R1A@?0A@EA@CText_C_Tool@@8 ; CText_C_Tool::`RTTI Base Class Array'
	DD	FLAT:??_R1A@?0A@EA@CSymbolTool_OnePoint_Size@@8
	DD	FLAT:??_R1A@?0A@EA@CSymbolTool@@8
rdata$r	ENDS
;	COMDAT ??_R3CText_C_Tool@@8
rdata$r	SEGMENT
??_R3CText_C_Tool@@8 DD 00H				; CText_C_Tool::`RTTI Class Hierarchy Descriptor'
	DD	00H
	DD	03H
	DD	FLAT:??_R2CText_C_Tool@@8
rdata$r	ENDS
;	COMDAT ??_R0?AVCText_C_Tool@@@8
data$rs	SEGMENT
??_R0?AVCText_C_Tool@@@8 DD FLAT:??_7type_info@@6B@	; CText_C_Tool `RTTI Type Descriptor'
	DD	00H
	DB	'.?AVCText_C_Tool@@', 00H
data$rs	ENDS
;	COMDAT ??_R4CText_C_Tool@@6B@
rdata$r	SEGMENT
??_R4CText_C_Tool@@6B@ DD 00H				; CText_C_Tool::`RTTI Complete Object Locator'
	DD	00H
	DD	00H
	DD	FLAT:??_R0?AVCText_C_Tool@@@8
	DD	FLAT:??_R3CText_C_Tool@@8
rdata$r	ENDS
;	COMDAT ??_R1A@?0A@EA@CText_B_Tool@@8
rdata$r	SEGMENT
??_R1A@?0A@EA@CText_B_Tool@@8 DD FLAT:??_R0?AVCText_B_Tool@@@8 ; CText_B_Tool::`RTTI Base Class Descriptor at (0,-1,0,64)'
	DD	02H
	DD	00H
	DD	0ffffffffH
	DD	00H
	DD	040H
	DD	FLAT:??_R3CText_B_Tool@@8
rdata$r	ENDS
;	COMDAT ??_R2CText_B_Tool@@8
rdata$r	SEGMENT
??_R2CText_B_Tool@@8 DD FLAT:??_R1A@?0A@EA@CText_B_Tool@@8 ; CText_B_Tool::`RTTI Base Class Array'
	DD	FLAT:??_R1A@?0A@EA@CSymbolTool_OnePoint_Size@@8
	DD	FLAT:??_R1A@?0A@EA@CSymbolTool@@8
rdata$r	ENDS
;	COMDAT ??_R3CText_B_Tool@@8
rdata$r	SEGMENT
??_R3CText_B_Tool@@8 DD 00H				; CText_B_Tool::`RTTI Class Hierarchy Descriptor'
	DD	00H
	DD	03H
	DD	FLAT:??_R2CText_B_Tool@@8
rdata$r	ENDS
;	COMDAT ??_R0?AVCText_B_Tool@@@8
data$rs	SEGMENT
??_R0?AVCText_B_Tool@@@8 DD FLAT:??_7type_info@@6B@	; CText_B_Tool `RTTI Type Descriptor'
	DD	00H
	DB	'.?AVCText_B_Tool@@', 00H
data$rs	ENDS
;	COMDAT ??_R4CText_B_Tool@@6B@
rdata$r	SEGMENT
??_R4CText_B_Tool@@6B@ DD 00H				; CText_B_Tool::`RTTI Complete Object Locator'
	DD	00H
	DD	00H
	DD	FLAT:??_R0?AVCText_B_Tool@@@8
	DD	FLAT:??_R3CText_B_Tool@@8
rdata$r	ENDS
;	COMDAT ??_R1A@?0A@EA@CText_A_Tool@@8
rdata$r	SEGMENT
??_R1A@?0A@EA@CText_A_Tool@@8 DD FLAT:??_R0?AVCText_A_Tool@@@8 ; CText_A_Tool::`RTTI Base Class Descriptor at (0,-1,0,64)'
	DD	02H
	DD	00H
	DD	0ffffffffH
	DD	00H
	DD	040H
	DD	FLAT:??_R3CText_A_Tool@@8
rdata$r	ENDS
;	COMDAT ??_R2CText_A_Tool@@8
rdata$r	SEGMENT
??_R2CText_A_Tool@@8 DD FLAT:??_R1A@?0A@EA@CText_A_Tool@@8 ; CText_A_Tool::`RTTI Base Class Array'
	DD	FLAT:??_R1A@?0A@EA@CSymbolTool_OnePoint_Size@@8
	DD	FLAT:??_R1A@?0A@EA@CSymbolTool@@8
rdata$r	ENDS
;	COMDAT ??_R3CText_A_Tool@@8
rdata$r	SEGMENT
??_R3CText_A_Tool@@8 DD 00H				; CText_A_Tool::`RTTI Class Hierarchy Descriptor'
	DD	00H
	DD	03H
	DD	FLAT:??_R2CText_A_Tool@@8
rdata$r	ENDS
;	COMDAT ??_R0?AVCText_A_Tool@@@8
data$rs	SEGMENT
??_R0?AVCText_A_Tool@@@8 DD FLAT:??_7type_info@@6B@	; CText_A_Tool `RTTI Type Descriptor'
	DD	00H
	DB	'.?AVCText_A_Tool@@', 00H
data$rs	ENDS
;	COMDAT ??_R4CText_A_Tool@@6B@
rdata$r	SEGMENT
??_R4CText_A_Tool@@6B@ DD 00H				; CText_A_Tool::`RTTI Complete Object Locator'
	DD	00H
	DD	00H
	DD	FLAT:??_R0?AVCText_A_Tool@@@8
	DD	FLAT:??_R3CText_A_Tool@@8
rdata$r	ENDS
;	COMDAT ??_R1A@?0A@EA@CNumber_Nine_Tool@@8
rdata$r	SEGMENT
??_R1A@?0A@EA@CNumber_Nine_Tool@@8 DD FLAT:??_R0?AVCNumber_Nine_Tool@@@8 ; CNumber_Nine_Tool::`RTTI Base Class Descriptor at (0,-1,0,64)'
	DD	02H
	DD	00H
	DD	0ffffffffH
	DD	00H
	DD	040H
	DD	FLAT:??_R3CNumber_Nine_Tool@@8
rdata$r	ENDS
;	COMDAT ??_R2CNumber_Nine_Tool@@8
rdata$r	SEGMENT
??_R2CNumber_Nine_Tool@@8 DD FLAT:??_R1A@?0A@EA@CNumber_Nine_Tool@@8 ; CNumber_Nine_Tool::`RTTI Base Class Array'
	DD	FLAT:??_R1A@?0A@EA@CSymbolTool_OnePoint_Size@@8
	DD	FLAT:??_R1A@?0A@EA@CSymbolTool@@8
rdata$r	ENDS
;	COMDAT ??_R3CNumber_Nine_Tool@@8
rdata$r	SEGMENT
??_R3CNumber_Nine_Tool@@8 DD 00H			; CNumber_Nine_Tool::`RTTI Class Hierarchy Descriptor'
	DD	00H
	DD	03H
	DD	FLAT:??_R2CNumber_Nine_Tool@@8
rdata$r	ENDS
;	COMDAT ??_R0?AVCNumber_Nine_Tool@@@8
data$rs	SEGMENT
??_R0?AVCNumber_Nine_Tool@@@8 DD FLAT:??_7type_info@@6B@ ; CNumber_Nine_Tool `RTTI Type Descriptor'
	DD	00H
	DB	'.?AVCNumber_Nine_Tool@@', 00H
data$rs	ENDS
;	COMDAT ??_R4CNumber_Nine_Tool@@6B@
rdata$r	SEGMENT
??_R4CNumber_Nine_Tool@@6B@ DD 00H			; CNumber_Nine_Tool::`RTTI Complete Object Locator'
	DD	00H
	DD	00H
	DD	FLAT:??_R0?AVCNumber_Nine_Tool@@@8
	DD	FLAT:??_R3CNumber_Nine_Tool@@8
rdata$r	ENDS
;	COMDAT ??_R1A@?0A@EA@CNumber_Eight_Tool@@8
rdata$r	SEGMENT
??_R1A@?0A@EA@CNumber_Eight_Tool@@8 DD FLAT:??_R0?AVCNumber_Eight_Tool@@@8 ; CNumber_Eight_Tool::`RTTI Base Class Descriptor at (0,-1,0,64)'
	DD	02H
	DD	00H
	DD	0ffffffffH
	DD	00H
	DD	040H
	DD	FLAT:??_R3CNumber_Eight_Tool@@8
rdata$r	ENDS
;	COMDAT ??_R2CNumber_Eight_Tool@@8
rdata$r	SEGMENT
??_R2CNumber_Eight_Tool@@8 DD FLAT:??_R1A@?0A@EA@CNumber_Eight_Tool@@8 ; CNumber_Eight_Tool::`RTTI Base Class Array'
	DD	FLAT:??_R1A@?0A@EA@CSymbolTool_OnePoint_Size@@8
	DD	FLAT:??_R1A@?0A@EA@CSymbolTool@@8
rdata$r	ENDS
;	COMDAT ??_R3CNumber_Eight_Tool@@8
rdata$r	SEGMENT
??_R3CNumber_Eight_Tool@@8 DD 00H			; CNumber_Eight_Tool::`RTTI Class Hierarchy Descriptor'
	DD	00H
	DD	03H
	DD	FLAT:??_R2CNumber_Eight_Tool@@8
rdata$r	ENDS
;	COMDAT ??_R0?AVCNumber_Eight_Tool@@@8
data$rs	SEGMENT
??_R0?AVCNumber_Eight_Tool@@@8 DD FLAT:??_7type_info@@6B@ ; CNumber_Eight_Tool `RTTI Type Descriptor'
	DD	00H
	DB	'.?AVCNumber_Eight_Tool@@', 00H
data$rs	ENDS
;	COMDAT ??_R4CNumber_Eight_Tool@@6B@
rdata$r	SEGMENT
??_R4CNumber_Eight_Tool@@6B@ DD 00H			; CNumber_Eight_Tool::`RTTI Complete Object Locator'
	DD	00H
	DD	00H
	DD	FLAT:??_R0?AVCNumber_Eight_Tool@@@8
	DD	FLAT:??_R3CNumber_Eight_Tool@@8
rdata$r	ENDS
;	COMDAT ??_R1A@?0A@EA@CNumber_Seven_Tool@@8
rdata$r	SEGMENT
??_R1A@?0A@EA@CNumber_Seven_Tool@@8 DD FLAT:??_R0?AVCNumber_Seven_Tool@@@8 ; CNumber_Seven_Tool::`RTTI Base Class Descriptor at (0,-1,0,64)'
	DD	02H
	DD	00H
	DD	0ffffffffH
	DD	00H
	DD	040H
	DD	FLAT:??_R3CNumber_Seven_Tool@@8
rdata$r	ENDS
;	COMDAT ??_R2CNumber_Seven_Tool@@8
rdata$r	SEGMENT
??_R2CNumber_Seven_Tool@@8 DD FLAT:??_R1A@?0A@EA@CNumber_Seven_Tool@@8 ; CNumber_Seven_Tool::`RTTI Base Class Array'
	DD	FLAT:??_R1A@?0A@EA@CSymbolTool_OnePoint_Size@@8
	DD	FLAT:??_R1A@?0A@EA@CSymbolTool@@8
rdata$r	ENDS
;	COMDAT ??_R3CNumber_Seven_Tool@@8
rdata$r	SEGMENT
??_R3CNumber_Seven_Tool@@8 DD 00H			; CNumber_Seven_Tool::`RTTI Class Hierarchy Descriptor'
	DD	00H
	DD	03H
	DD	FLAT:??_R2CNumber_Seven_Tool@@8
rdata$r	ENDS
;	COMDAT ??_R0?AVCNumber_Seven_Tool@@@8
data$rs	SEGMENT
??_R0?AVCNumber_Seven_Tool@@@8 DD FLAT:??_7type_info@@6B@ ; CNumber_Seven_Tool `RTTI Type Descriptor'
	DD	00H
	DB	'.?AVCNumber_Seven_Tool@@', 00H
data$rs	ENDS
;	COMDAT ??_R4CNumber_Seven_Tool@@6B@
rdata$r	SEGMENT
??_R4CNumber_Seven_Tool@@6B@ DD 00H			; CNumber_Seven_Tool::`RTTI Complete Object Locator'
	DD	00H
	DD	00H
	DD	FLAT:??_R0?AVCNumber_Seven_Tool@@@8
	DD	FLAT:??_R3CNumber_Seven_Tool@@8
rdata$r	ENDS
;	COMDAT ??_R1A@?0A@EA@CNumber_Six_Tool@@8
rdata$r	SEGMENT
??_R1A@?0A@EA@CNumber_Six_Tool@@8 DD FLAT:??_R0?AVCNumber_Six_Tool@@@8 ; CNumber_Six_Tool::`RTTI Base Class Descriptor at (0,-1,0,64)'
	DD	02H
	DD	00H
	DD	0ffffffffH
	DD	00H
	DD	040H
	DD	FLAT:??_R3CNumber_Six_Tool@@8
rdata$r	ENDS
;	COMDAT ??_R2CNumber_Six_Tool@@8
rdata$r	SEGMENT
??_R2CNumber_Six_Tool@@8 DD FLAT:??_R1A@?0A@EA@CNumber_Six_Tool@@8 ; CNumber_Six_Tool::`RTTI Base Class Array'
	DD	FLAT:??_R1A@?0A@EA@CSymbolTool_OnePoint_Size@@8
	DD	FLAT:??_R1A@?0A@EA@CSymbolTool@@8
rdata$r	ENDS
;	COMDAT ??_R3CNumber_Six_Tool@@8
rdata$r	SEGMENT
??_R3CNumber_Six_Tool@@8 DD 00H				; CNumber_Six_Tool::`RTTI Class Hierarchy Descriptor'
	DD	00H
	DD	03H
	DD	FLAT:??_R2CNumber_Six_Tool@@8
rdata$r	ENDS
;	COMDAT ??_R0?AVCNumber_Six_Tool@@@8
data$rs	SEGMENT
??_R0?AVCNumber_Six_Tool@@@8 DD FLAT:??_7type_info@@6B@	; CNumber_Six_Tool `RTTI Type Descriptor'
	DD	00H
	DB	'.?AVCNumber_Six_Tool@@', 00H
data$rs	ENDS
;	COMDAT ??_R4CNumber_Six_Tool@@6B@
rdata$r	SEGMENT
??_R4CNumber_Six_Tool@@6B@ DD 00H			; CNumber_Six_Tool::`RTTI Complete Object Locator'
	DD	00H
	DD	00H
	DD	FLAT:??_R0?AVCNumber_Six_Tool@@@8
	DD	FLAT:??_R3CNumber_Six_Tool@@8
rdata$r	ENDS
;	COMDAT ??_R1A@?0A@EA@CNumber_Five_Tool@@8
rdata$r	SEGMENT
??_R1A@?0A@EA@CNumber_Five_Tool@@8 DD FLAT:??_R0?AVCNumber_Five_Tool@@@8 ; CNumber_Five_Tool::`RTTI Base Class Descriptor at (0,-1,0,64)'
	DD	02H
	DD	00H
	DD	0ffffffffH
	DD	00H
	DD	040H
	DD	FLAT:??_R3CNumber_Five_Tool@@8
rdata$r	ENDS
;	COMDAT ??_R2CNumber_Five_Tool@@8
rdata$r	SEGMENT
??_R2CNumber_Five_Tool@@8 DD FLAT:??_R1A@?0A@EA@CNumber_Five_Tool@@8 ; CNumber_Five_Tool::`RTTI Base Class Array'
	DD	FLAT:??_R1A@?0A@EA@CSymbolTool_OnePoint_Size@@8
	DD	FLAT:??_R1A@?0A@EA@CSymbolTool@@8
rdata$r	ENDS
;	COMDAT ??_R3CNumber_Five_Tool@@8
rdata$r	SEGMENT
??_R3CNumber_Five_Tool@@8 DD 00H			; CNumber_Five_Tool::`RTTI Class Hierarchy Descriptor'
	DD	00H
	DD	03H
	DD	FLAT:??_R2CNumber_Five_Tool@@8
rdata$r	ENDS
;	COMDAT ??_R0?AVCNumber_Five_Tool@@@8
data$rs	SEGMENT
??_R0?AVCNumber_Five_Tool@@@8 DD FLAT:??_7type_info@@6B@ ; CNumber_Five_Tool `RTTI Type Descriptor'
	DD	00H
	DB	'.?AVCNumber_Five_Tool@@', 00H
data$rs	ENDS
;	COMDAT ??_R4CNumber_Five_Tool@@6B@
rdata$r	SEGMENT
??_R4CNumber_Five_Tool@@6B@ DD 00H			; CNumber_Five_Tool::`RTTI Complete Object Locator'
	DD	00H
	DD	00H
	DD	FLAT:??_R0?AVCNumber_Five_Tool@@@8
	DD	FLAT:??_R3CNumber_Five_Tool@@8
rdata$r	ENDS
;	COMDAT ??_R1A@?0A@EA@CNumber_Four_Tool@@8
rdata$r	SEGMENT
??_R1A@?0A@EA@CNumber_Four_Tool@@8 DD FLAT:??_R0?AVCNumber_Four_Tool@@@8 ; CNumber_Four_Tool::`RTTI Base Class Descriptor at (0,-1,0,64)'
	DD	02H
	DD	00H
	DD	0ffffffffH
	DD	00H
	DD	040H
	DD	FLAT:??_R3CNumber_Four_Tool@@8
rdata$r	ENDS
;	COMDAT ??_R2CNumber_Four_Tool@@8
rdata$r	SEGMENT
??_R2CNumber_Four_Tool@@8 DD FLAT:??_R1A@?0A@EA@CNumber_Four_Tool@@8 ; CNumber_Four_Tool::`RTTI Base Class Array'
	DD	FLAT:??_R1A@?0A@EA@CSymbolTool_OnePoint_Size@@8
	DD	FLAT:??_R1A@?0A@EA@CSymbolTool@@8
rdata$r	ENDS
;	COMDAT ??_R3CNumber_Four_Tool@@8
rdata$r	SEGMENT
??_R3CNumber_Four_Tool@@8 DD 00H			; CNumber_Four_Tool::`RTTI Class Hierarchy Descriptor'
	DD	00H
	DD	03H
	DD	FLAT:??_R2CNumber_Four_Tool@@8
rdata$r	ENDS
;	COMDAT ??_R0?AVCNumber_Four_Tool@@@8
data$rs	SEGMENT
??_R0?AVCNumber_Four_Tool@@@8 DD FLAT:??_7type_info@@6B@ ; CNumber_Four_Tool `RTTI Type Descriptor'
	DD	00H
	DB	'.?AVCNumber_Four_Tool@@', 00H
data$rs	ENDS
;	COMDAT ??_R4CNumber_Four_Tool@@6B@
rdata$r	SEGMENT
??_R4CNumber_Four_Tool@@6B@ DD 00H			; CNumber_Four_Tool::`RTTI Complete Object Locator'
	DD	00H
	DD	00H
	DD	FLAT:??_R0?AVCNumber_Four_Tool@@@8
	DD	FLAT:??_R3CNumber_Four_Tool@@8
rdata$r	ENDS
;	COMDAT ??_R1A@?0A@EA@CNumber_Three_Tool@@8
rdata$r	SEGMENT
??_R1A@?0A@EA@CNumber_Three_Tool@@8 DD FLAT:??_R0?AVCNumber_Three_Tool@@@8 ; CNumber_Three_Tool::`RTTI Base Class Descriptor at (0,-1,0,64)'
	DD	02H
	DD	00H
	DD	0ffffffffH
	DD	00H
	DD	040H
	DD	FLAT:??_R3CNumber_Three_Tool@@8
rdata$r	ENDS
;	COMDAT ??_R2CNumber_Three_Tool@@8
rdata$r	SEGMENT
??_R2CNumber_Three_Tool@@8 DD FLAT:??_R1A@?0A@EA@CNumber_Three_Tool@@8 ; CNumber_Three_Tool::`RTTI Base Class Array'
	DD	FLAT:??_R1A@?0A@EA@CSymbolTool_OnePoint_Size@@8
	DD	FLAT:??_R1A@?0A@EA@CSymbolTool@@8
rdata$r	ENDS
;	COMDAT ??_R3CNumber_Three_Tool@@8
rdata$r	SEGMENT
??_R3CNumber_Three_Tool@@8 DD 00H			; CNumber_Three_Tool::`RTTI Class Hierarchy Descriptor'
	DD	00H
	DD	03H
	DD	FLAT:??_R2CNumber_Three_Tool@@8
rdata$r	ENDS
;	COMDAT ??_R0?AVCNumber_Three_Tool@@@8
data$rs	SEGMENT
??_R0?AVCNumber_Three_Tool@@@8 DD FLAT:??_7type_info@@6B@ ; CNumber_Three_Tool `RTTI Type Descriptor'
	DD	00H
	DB	'.?AVCNumber_Three_Tool@@', 00H
data$rs	ENDS
;	COMDAT ??_R4CNumber_Three_Tool@@6B@
rdata$r	SEGMENT
??_R4CNumber_Three_Tool@@6B@ DD 00H			; CNumber_Three_Tool::`RTTI Complete Object Locator'
	DD	00H
	DD	00H
	DD	FLAT:??_R0?AVCNumber_Three_Tool@@@8
	DD	FLAT:??_R3CNumber_Three_Tool@@8
rdata$r	ENDS
;	COMDAT ??_R1A@?0A@EA@CNumber_Two_Tool@@8
rdata$r	SEGMENT
??_R1A@?0A@EA@CNumber_Two_Tool@@8 DD FLAT:??_R0?AVCNumber_Two_Tool@@@8 ; CNumber_Two_Tool::`RTTI Base Class Descriptor at (0,-1,0,64)'
	DD	02H
	DD	00H
	DD	0ffffffffH
	DD	00H
	DD	040H
	DD	FLAT:??_R3CNumber_Two_Tool@@8
rdata$r	ENDS
;	COMDAT ??_R2CNumber_Two_Tool@@8
rdata$r	SEGMENT
??_R2CNumber_Two_Tool@@8 DD FLAT:??_R1A@?0A@EA@CNumber_Two_Tool@@8 ; CNumber_Two_Tool::`RTTI Base Class Array'
	DD	FLAT:??_R1A@?0A@EA@CSymbolTool_OnePoint_Size@@8
	DD	FLAT:??_R1A@?0A@EA@CSymbolTool@@8
rdata$r	ENDS
;	COMDAT ??_R3CNumber_Two_Tool@@8
rdata$r	SEGMENT
??_R3CNumber_Two_Tool@@8 DD 00H				; CNumber_Two_Tool::`RTTI Class Hierarchy Descriptor'
	DD	00H
	DD	03H
	DD	FLAT:??_R2CNumber_Two_Tool@@8
rdata$r	ENDS
;	COMDAT ??_R0?AVCNumber_Two_Tool@@@8
data$rs	SEGMENT
??_R0?AVCNumber_Two_Tool@@@8 DD FLAT:??_7type_info@@6B@	; CNumber_Two_Tool `RTTI Type Descriptor'
	DD	00H
	DB	'.?AVCNumber_Two_Tool@@', 00H
data$rs	ENDS
;	COMDAT ??_R4CNumber_Two_Tool@@6B@
rdata$r	SEGMENT
??_R4CNumber_Two_Tool@@6B@ DD 00H			; CNumber_Two_Tool::`RTTI Complete Object Locator'
	DD	00H
	DD	00H
	DD	FLAT:??_R0?AVCNumber_Two_Tool@@@8
	DD	FLAT:??_R3CNumber_Two_Tool@@8
rdata$r	ENDS
;	COMDAT ??_R1A@?0A@EA@CNumber_One_Tool@@8
rdata$r	SEGMENT
??_R1A@?0A@EA@CNumber_One_Tool@@8 DD FLAT:??_R0?AVCNumber_One_Tool@@@8 ; CNumber_One_Tool::`RTTI Base Class Descriptor at (0,-1,0,64)'
	DD	02H
	DD	00H
	DD	0ffffffffH
	DD	00H
	DD	040H
	DD	FLAT:??_R3CNumber_One_Tool@@8
rdata$r	ENDS
;	COMDAT ??_R2CNumber_One_Tool@@8
rdata$r	SEGMENT
??_R2CNumber_One_Tool@@8 DD FLAT:??_R1A@?0A@EA@CNumber_One_Tool@@8 ; CNumber_One_Tool::`RTTI Base Class Array'
	DD	FLAT:??_R1A@?0A@EA@CSymbolTool_OnePoint_Size@@8
	DD	FLAT:??_R1A@?0A@EA@CSymbolTool@@8
rdata$r	ENDS
;	COMDAT ??_R3CNumber_One_Tool@@8
rdata$r	SEGMENT
??_R3CNumber_One_Tool@@8 DD 00H				; CNumber_One_Tool::`RTTI Class Hierarchy Descriptor'
	DD	00H
	DD	03H
	DD	FLAT:??_R2CNumber_One_Tool@@8
rdata$r	ENDS
;	COMDAT ??_R0?AVCNumber_One_Tool@@@8
data$rs	SEGMENT
??_R0?AVCNumber_One_Tool@@@8 DD FLAT:??_7type_info@@6B@	; CNumber_One_Tool `RTTI Type Descriptor'
	DD	00H
	DB	'.?AVCNumber_One_Tool@@', 00H
data$rs	ENDS
;	COMDAT ??_R4CNumber_One_Tool@@6B@
rdata$r	SEGMENT
??_R4CNumber_One_Tool@@6B@ DD 00H			; CNumber_One_Tool::`RTTI Complete Object Locator'
	DD	00H
	DD	00H
	DD	FLAT:??_R0?AVCNumber_One_Tool@@@8
	DD	FLAT:??_R3CNumber_One_Tool@@8
rdata$r	ENDS
;	COMDAT ??_R1A@?0A@EA@CArrow_RightBottom_Tool@@8
rdata$r	SEGMENT
??_R1A@?0A@EA@CArrow_RightBottom_Tool@@8 DD FLAT:??_R0?AVCArrow_RightBottom_Tool@@@8 ; CArrow_RightBottom_Tool::`RTTI Base Class Descriptor at (0,-1,0,64)'
	DD	02H
	DD	00H
	DD	0ffffffffH
	DD	00H
	DD	040H
	DD	FLAT:??_R3CArrow_RightBottom_Tool@@8
rdata$r	ENDS
;	COMDAT ??_R2CArrow_RightBottom_Tool@@8
rdata$r	SEGMENT
??_R2CArrow_RightBottom_Tool@@8 DD FLAT:??_R1A@?0A@EA@CArrow_RightBottom_Tool@@8 ; CArrow_RightBottom_Tool::`RTTI Base Class Array'
	DD	FLAT:??_R1A@?0A@EA@CSymbolTool_OnePoint_Size@@8
	DD	FLAT:??_R1A@?0A@EA@CSymbolTool@@8
rdata$r	ENDS
;	COMDAT ??_R3CArrow_RightBottom_Tool@@8
rdata$r	SEGMENT
??_R3CArrow_RightBottom_Tool@@8 DD 00H			; CArrow_RightBottom_Tool::`RTTI Class Hierarchy Descriptor'
	DD	00H
	DD	03H
	DD	FLAT:??_R2CArrow_RightBottom_Tool@@8
rdata$r	ENDS
;	COMDAT ??_R0?AVCArrow_RightBottom_Tool@@@8
data$rs	SEGMENT
??_R0?AVCArrow_RightBottom_Tool@@@8 DD FLAT:??_7type_info@@6B@ ; CArrow_RightBottom_Tool `RTTI Type Descriptor'
	DD	00H
	DB	'.?AVCArrow_RightBottom_Tool@@', 00H
data$rs	ENDS
;	COMDAT ??_R4CArrow_RightBottom_Tool@@6B@
rdata$r	SEGMENT
??_R4CArrow_RightBottom_Tool@@6B@ DD 00H		; CArrow_RightBottom_Tool::`RTTI Complete Object Locator'
	DD	00H
	DD	00H
	DD	FLAT:??_R0?AVCArrow_RightBottom_Tool@@@8
	DD	FLAT:??_R3CArrow_RightBottom_Tool@@8
rdata$r	ENDS
;	COMDAT ??_R1A@?0A@EA@CArrow_RightTop_Tool@@8
rdata$r	SEGMENT
??_R1A@?0A@EA@CArrow_RightTop_Tool@@8 DD FLAT:??_R0?AVCArrow_RightTop_Tool@@@8 ; CArrow_RightTop_Tool::`RTTI Base Class Descriptor at (0,-1,0,64)'
	DD	02H
	DD	00H
	DD	0ffffffffH
	DD	00H
	DD	040H
	DD	FLAT:??_R3CArrow_RightTop_Tool@@8
rdata$r	ENDS
;	COMDAT ??_R2CArrow_RightTop_Tool@@8
rdata$r	SEGMENT
??_R2CArrow_RightTop_Tool@@8 DD FLAT:??_R1A@?0A@EA@CArrow_RightTop_Tool@@8 ; CArrow_RightTop_Tool::`RTTI Base Class Array'
	DD	FLAT:??_R1A@?0A@EA@CSymbolTool_OnePoint_Size@@8
	DD	FLAT:??_R1A@?0A@EA@CSymbolTool@@8
rdata$r	ENDS
;	COMDAT ??_R3CArrow_RightTop_Tool@@8
rdata$r	SEGMENT
??_R3CArrow_RightTop_Tool@@8 DD 00H			; CArrow_RightTop_Tool::`RTTI Class Hierarchy Descriptor'
	DD	00H
	DD	03H
	DD	FLAT:??_R2CArrow_RightTop_Tool@@8
rdata$r	ENDS
;	COMDAT ??_R0?AVCArrow_RightTop_Tool@@@8
data$rs	SEGMENT
??_R0?AVCArrow_RightTop_Tool@@@8 DD FLAT:??_7type_info@@6B@ ; CArrow_RightTop_Tool `RTTI Type Descriptor'
	DD	00H
	DB	'.?AVCArrow_RightTop_Tool@@', 00H
data$rs	ENDS
;	COMDAT ??_R4CArrow_RightTop_Tool@@6B@
rdata$r	SEGMENT
??_R4CArrow_RightTop_Tool@@6B@ DD 00H			; CArrow_RightTop_Tool::`RTTI Complete Object Locator'
	DD	00H
	DD	00H
	DD	FLAT:??_R0?AVCArrow_RightTop_Tool@@@8
	DD	FLAT:??_R3CArrow_RightTop_Tool@@8
rdata$r	ENDS
;	COMDAT ??_R1A@?0A@EA@CArrow_LeftBottom_Tool@@8
rdata$r	SEGMENT
??_R1A@?0A@EA@CArrow_LeftBottom_Tool@@8 DD FLAT:??_R0?AVCArrow_LeftBottom_Tool@@@8 ; CArrow_LeftBottom_Tool::`RTTI Base Class Descriptor at (0,-1,0,64)'
	DD	02H
	DD	00H
	DD	0ffffffffH
	DD	00H
	DD	040H
	DD	FLAT:??_R3CArrow_LeftBottom_Tool@@8
rdata$r	ENDS
;	COMDAT ??_R2CArrow_LeftBottom_Tool@@8
rdata$r	SEGMENT
??_R2CArrow_LeftBottom_Tool@@8 DD FLAT:??_R1A@?0A@EA@CArrow_LeftBottom_Tool@@8 ; CArrow_LeftBottom_Tool::`RTTI Base Class Array'
	DD	FLAT:??_R1A@?0A@EA@CSymbolTool_OnePoint_Size@@8
	DD	FLAT:??_R1A@?0A@EA@CSymbolTool@@8
rdata$r	ENDS
;	COMDAT ??_R3CArrow_LeftBottom_Tool@@8
rdata$r	SEGMENT
??_R3CArrow_LeftBottom_Tool@@8 DD 00H			; CArrow_LeftBottom_Tool::`RTTI Class Hierarchy Descriptor'
	DD	00H
	DD	03H
	DD	FLAT:??_R2CArrow_LeftBottom_Tool@@8
rdata$r	ENDS
;	COMDAT ??_R0?AVCArrow_LeftBottom_Tool@@@8
data$rs	SEGMENT
??_R0?AVCArrow_LeftBottom_Tool@@@8 DD FLAT:??_7type_info@@6B@ ; CArrow_LeftBottom_Tool `RTTI Type Descriptor'
	DD	00H
	DB	'.?AVCArrow_LeftBottom_Tool@@', 00H
data$rs	ENDS
;	COMDAT ??_R4CArrow_LeftBottom_Tool@@6B@
rdata$r	SEGMENT
??_R4CArrow_LeftBottom_Tool@@6B@ DD 00H			; CArrow_LeftBottom_Tool::`RTTI Complete Object Locator'
	DD	00H
	DD	00H
	DD	FLAT:??_R0?AVCArrow_LeftBottom_Tool@@@8
	DD	FLAT:??_R3CArrow_LeftBottom_Tool@@8
rdata$r	ENDS
;	COMDAT ??_R1A@?0A@EA@CArrow_LeftTop_Tool@@8
rdata$r	SEGMENT
??_R1A@?0A@EA@CArrow_LeftTop_Tool@@8 DD FLAT:??_R0?AVCArrow_LeftTop_Tool@@@8 ; CArrow_LeftTop_Tool::`RTTI Base Class Descriptor at (0,-1,0,64)'
	DD	02H
	DD	00H
	DD	0ffffffffH
	DD	00H
	DD	040H
	DD	FLAT:??_R3CArrow_LeftTop_Tool@@8
rdata$r	ENDS
;	COMDAT ??_R2CArrow_LeftTop_Tool@@8
rdata$r	SEGMENT
??_R2CArrow_LeftTop_Tool@@8 DD FLAT:??_R1A@?0A@EA@CArrow_LeftTop_Tool@@8 ; CArrow_LeftTop_Tool::`RTTI Base Class Array'
	DD	FLAT:??_R1A@?0A@EA@CSymbolTool_OnePoint_Size@@8
	DD	FLAT:??_R1A@?0A@EA@CSymbolTool@@8
rdata$r	ENDS
;	COMDAT ??_R3CArrow_LeftTop_Tool@@8
rdata$r	SEGMENT
??_R3CArrow_LeftTop_Tool@@8 DD 00H			; CArrow_LeftTop_Tool::`RTTI Class Hierarchy Descriptor'
	DD	00H
	DD	03H
	DD	FLAT:??_R2CArrow_LeftTop_Tool@@8
rdata$r	ENDS
;	COMDAT ??_R0?AVCArrow_LeftTop_Tool@@@8
data$rs	SEGMENT
??_R0?AVCArrow_LeftTop_Tool@@@8 DD FLAT:??_7type_info@@6B@ ; CArrow_LeftTop_Tool `RTTI Type Descriptor'
	DD	00H
	DB	'.?AVCArrow_LeftTop_Tool@@', 00H
data$rs	ENDS
;	COMDAT ??_R4CArrow_LeftTop_Tool@@6B@
rdata$r	SEGMENT
??_R4CArrow_LeftTop_Tool@@6B@ DD 00H			; CArrow_LeftTop_Tool::`RTTI Complete Object Locator'
	DD	00H
	DD	00H
	DD	FLAT:??_R0?AVCArrow_LeftTop_Tool@@@8
	DD	FLAT:??_R3CArrow_LeftTop_Tool@@8
rdata$r	ENDS
;	COMDAT ??_R1A@?0A@EA@CArrow_Down_Tool@@8
rdata$r	SEGMENT
??_R1A@?0A@EA@CArrow_Down_Tool@@8 DD FLAT:??_R0?AVCArrow_Down_Tool@@@8 ; CArrow_Down_Tool::`RTTI Base Class Descriptor at (0,-1,0,64)'
	DD	02H
	DD	00H
	DD	0ffffffffH
	DD	00H
	DD	040H
	DD	FLAT:??_R3CArrow_Down_Tool@@8
rdata$r	ENDS
;	COMDAT ??_R2CArrow_Down_Tool@@8
rdata$r	SEGMENT
??_R2CArrow_Down_Tool@@8 DD FLAT:??_R1A@?0A@EA@CArrow_Down_Tool@@8 ; CArrow_Down_Tool::`RTTI Base Class Array'
	DD	FLAT:??_R1A@?0A@EA@CSymbolTool_OnePoint_Size@@8
	DD	FLAT:??_R1A@?0A@EA@CSymbolTool@@8
rdata$r	ENDS
;	COMDAT ??_R3CArrow_Down_Tool@@8
rdata$r	SEGMENT
??_R3CArrow_Down_Tool@@8 DD 00H				; CArrow_Down_Tool::`RTTI Class Hierarchy Descriptor'
	DD	00H
	DD	03H
	DD	FLAT:??_R2CArrow_Down_Tool@@8
rdata$r	ENDS
;	COMDAT ??_R0?AVCArrow_Down_Tool@@@8
data$rs	SEGMENT
??_R0?AVCArrow_Down_Tool@@@8 DD FLAT:??_7type_info@@6B@	; CArrow_Down_Tool `RTTI Type Descriptor'
	DD	00H
	DB	'.?AVCArrow_Down_Tool@@', 00H
data$rs	ENDS
;	COMDAT ??_R4CArrow_Down_Tool@@6B@
rdata$r	SEGMENT
??_R4CArrow_Down_Tool@@6B@ DD 00H			; CArrow_Down_Tool::`RTTI Complete Object Locator'
	DD	00H
	DD	00H
	DD	FLAT:??_R0?AVCArrow_Down_Tool@@@8
	DD	FLAT:??_R3CArrow_Down_Tool@@8
rdata$r	ENDS
;	COMDAT ??_R1A@?0A@EA@CArrow_Up_Tool@@8
rdata$r	SEGMENT
??_R1A@?0A@EA@CArrow_Up_Tool@@8 DD FLAT:??_R0?AVCArrow_Up_Tool@@@8 ; CArrow_Up_Tool::`RTTI Base Class Descriptor at (0,-1,0,64)'
	DD	02H
	DD	00H
	DD	0ffffffffH
	DD	00H
	DD	040H
	DD	FLAT:??_R3CArrow_Up_Tool@@8
rdata$r	ENDS
;	COMDAT ??_R2CArrow_Up_Tool@@8
rdata$r	SEGMENT
??_R2CArrow_Up_Tool@@8 DD FLAT:??_R1A@?0A@EA@CArrow_Up_Tool@@8 ; CArrow_Up_Tool::`RTTI Base Class Array'
	DD	FLAT:??_R1A@?0A@EA@CSymbolTool_OnePoint_Size@@8
	DD	FLAT:??_R1A@?0A@EA@CSymbolTool@@8
rdata$r	ENDS
;	COMDAT ??_R3CArrow_Up_Tool@@8
rdata$r	SEGMENT
??_R3CArrow_Up_Tool@@8 DD 00H				; CArrow_Up_Tool::`RTTI Class Hierarchy Descriptor'
	DD	00H
	DD	03H
	DD	FLAT:??_R2CArrow_Up_Tool@@8
rdata$r	ENDS
;	COMDAT ??_R0?AVCArrow_Up_Tool@@@8
data$rs	SEGMENT
??_R0?AVCArrow_Up_Tool@@@8 DD FLAT:??_7type_info@@6B@	; CArrow_Up_Tool `RTTI Type Descriptor'
	DD	00H
	DB	'.?AVCArrow_Up_Tool@@', 00H
data$rs	ENDS
;	COMDAT ??_R4CArrow_Up_Tool@@6B@
rdata$r	SEGMENT
??_R4CArrow_Up_Tool@@6B@ DD 00H				; CArrow_Up_Tool::`RTTI Complete Object Locator'
	DD	00H
	DD	00H
	DD	FLAT:??_R0?AVCArrow_Up_Tool@@@8
	DD	FLAT:??_R3CArrow_Up_Tool@@8
rdata$r	ENDS
;	COMDAT ??_R1A@?0A@EA@CArrow_Right_Tool@@8
rdata$r	SEGMENT
??_R1A@?0A@EA@CArrow_Right_Tool@@8 DD FLAT:??_R0?AVCArrow_Right_Tool@@@8 ; CArrow_Right_Tool::`RTTI Base Class Descriptor at (0,-1,0,64)'
	DD	02H
	DD	00H
	DD	0ffffffffH
	DD	00H
	DD	040H
	DD	FLAT:??_R3CArrow_Right_Tool@@8
rdata$r	ENDS
;	COMDAT ??_R2CArrow_Right_Tool@@8
rdata$r	SEGMENT
??_R2CArrow_Right_Tool@@8 DD FLAT:??_R1A@?0A@EA@CArrow_Right_Tool@@8 ; CArrow_Right_Tool::`RTTI Base Class Array'
	DD	FLAT:??_R1A@?0A@EA@CSymbolTool_OnePoint_Size@@8
	DD	FLAT:??_R1A@?0A@EA@CSymbolTool@@8
rdata$r	ENDS
;	COMDAT ??_R3CArrow_Right_Tool@@8
rdata$r	SEGMENT
??_R3CArrow_Right_Tool@@8 DD 00H			; CArrow_Right_Tool::`RTTI Class Hierarchy Descriptor'
	DD	00H
	DD	03H
	DD	FLAT:??_R2CArrow_Right_Tool@@8
rdata$r	ENDS
;	COMDAT ??_R0?AVCArrow_Right_Tool@@@8
data$rs	SEGMENT
??_R0?AVCArrow_Right_Tool@@@8 DD FLAT:??_7type_info@@6B@ ; CArrow_Right_Tool `RTTI Type Descriptor'
	DD	00H
	DB	'.?AVCArrow_Right_Tool@@', 00H
data$rs	ENDS
;	COMDAT ??_R4CArrow_Right_Tool@@6B@
rdata$r	SEGMENT
??_R4CArrow_Right_Tool@@6B@ DD 00H			; CArrow_Right_Tool::`RTTI Complete Object Locator'
	DD	00H
	DD	00H
	DD	FLAT:??_R0?AVCArrow_Right_Tool@@@8
	DD	FLAT:??_R3CArrow_Right_Tool@@8
rdata$r	ENDS
;	COMDAT ??_R1A@?0A@EA@CArrow_Left_Tool@@8
rdata$r	SEGMENT
??_R1A@?0A@EA@CArrow_Left_Tool@@8 DD FLAT:??_R0?AVCArrow_Left_Tool@@@8 ; CArrow_Left_Tool::`RTTI Base Class Descriptor at (0,-1,0,64)'
	DD	02H
	DD	00H
	DD	0ffffffffH
	DD	00H
	DD	040H
	DD	FLAT:??_R3CArrow_Left_Tool@@8
rdata$r	ENDS
;	COMDAT ??_R2CArrow_Left_Tool@@8
rdata$r	SEGMENT
??_R2CArrow_Left_Tool@@8 DD FLAT:??_R1A@?0A@EA@CArrow_Left_Tool@@8 ; CArrow_Left_Tool::`RTTI Base Class Array'
	DD	FLAT:??_R1A@?0A@EA@CSymbolTool_OnePoint_Size@@8
	DD	FLAT:??_R1A@?0A@EA@CSymbolTool@@8
rdata$r	ENDS
;	COMDAT ??_R3CArrow_Left_Tool@@8
rdata$r	SEGMENT
??_R3CArrow_Left_Tool@@8 DD 00H				; CArrow_Left_Tool::`RTTI Class Hierarchy Descriptor'
	DD	00H
	DD	03H
	DD	FLAT:??_R2CArrow_Left_Tool@@8
rdata$r	ENDS
;	COMDAT ??_R0?AVCArrow_Left_Tool@@@8
data$rs	SEGMENT
??_R0?AVCArrow_Left_Tool@@@8 DD FLAT:??_7type_info@@6B@	; CArrow_Left_Tool `RTTI Type Descriptor'
	DD	00H
	DB	'.?AVCArrow_Left_Tool@@', 00H
data$rs	ENDS
;	COMDAT ??_R4CArrow_Left_Tool@@6B@
rdata$r	SEGMENT
??_R4CArrow_Left_Tool@@6B@ DD 00H			; CArrow_Left_Tool::`RTTI Complete Object Locator'
	DD	00H
	DD	00H
	DD	FLAT:??_R0?AVCArrow_Left_Tool@@@8
	DD	FLAT:??_R3CArrow_Left_Tool@@8
rdata$r	ENDS
;	COMDAT ??_R2CSymbolTool_OnePoint_Size@@8
rdata$r	SEGMENT
??_R2CSymbolTool_OnePoint_Size@@8 DD FLAT:??_R1A@?0A@EA@CSymbolTool_OnePoint_Size@@8 ; CSymbolTool_OnePoint_Size::`RTTI Base Class Array'
	DD	FLAT:??_R1A@?0A@EA@CSymbolTool@@8
rdata$r	ENDS
;	COMDAT ??_R3CSymbolTool_OnePoint_Size@@8
rdata$r	SEGMENT
??_R3CSymbolTool_OnePoint_Size@@8 DD 00H		; CSymbolTool_OnePoint_Size::`RTTI Class Hierarchy Descriptor'
	DD	00H
	DD	02H
	DD	FLAT:??_R2CSymbolTool_OnePoint_Size@@8
rdata$r	ENDS
;	COMDAT ??_R0?AVCSymbolTool_OnePoint_Size@@@8
data$rs	SEGMENT
??_R0?AVCSymbolTool_OnePoint_Size@@@8 DD FLAT:??_7type_info@@6B@ ; CSymbolTool_OnePoint_Size `RTTI Type Descriptor'
	DD	00H
	DB	'.?AVCSymbolTool_OnePoint_Size@@', 00H
data$rs	ENDS
;	COMDAT ??_R1A@?0A@EA@CSymbolTool_OnePoint_Size@@8
rdata$r	SEGMENT
??_R1A@?0A@EA@CSymbolTool_OnePoint_Size@@8 DD FLAT:??_R0?AVCSymbolTool_OnePoint_Size@@@8 ; CSymbolTool_OnePoint_Size::`RTTI Base Class Descriptor at (0,-1,0,64)'
	DD	01H
	DD	00H
	DD	0ffffffffH
	DD	00H
	DD	040H
	DD	FLAT:??_R3CSymbolTool_OnePoint_Size@@8
rdata$r	ENDS
;	COMDAT ??_R1A@?0A@EA@CTextTool@@8
rdata$r	SEGMENT
??_R1A@?0A@EA@CTextTool@@8 DD FLAT:??_R0?AVCTextTool@@@8 ; CTextTool::`RTTI Base Class Descriptor at (0,-1,0,64)'
	DD	02H
	DD	00H
	DD	0ffffffffH
	DD	00H
	DD	040H
	DD	FLAT:??_R3CTextTool@@8
rdata$r	ENDS
;	COMDAT ??_R2CTextTool@@8
rdata$r	SEGMENT
??_R2CTextTool@@8 DD FLAT:??_R1A@?0A@EA@CTextTool@@8	; CTextTool::`RTTI Base Class Array'
	DD	FLAT:??_R1A@?0A@EA@CSymbolTool_OnePoint_Size@@8
	DD	FLAT:??_R1A@?0A@EA@CSymbolTool@@8
rdata$r	ENDS
;	COMDAT ??_R3CTextTool@@8
rdata$r	SEGMENT
??_R3CTextTool@@8 DD 00H				; CTextTool::`RTTI Class Hierarchy Descriptor'
	DD	00H
	DD	03H
	DD	FLAT:??_R2CTextTool@@8
rdata$r	ENDS
;	COMDAT ??_R0?AVCTextTool@@@8
data$rs	SEGMENT
??_R0?AVCTextTool@@@8 DD FLAT:??_7type_info@@6B@	; CTextTool `RTTI Type Descriptor'
	DD	00H
	DB	'.?AVCTextTool@@', 00H
data$rs	ENDS
;	COMDAT ??_R4CTextTool@@6B@
rdata$r	SEGMENT
??_R4CTextTool@@6B@ DD 00H				; CTextTool::`RTTI Complete Object Locator'
	DD	00H
	DD	00H
	DD	FLAT:??_R0?AVCTextTool@@@8
	DD	FLAT:??_R3CTextTool@@8
rdata$r	ENDS
;	COMDAT ??_R1A@?0A@EA@CFigure_Triangle_Tool@@8
rdata$r	SEGMENT
??_R1A@?0A@EA@CFigure_Triangle_Tool@@8 DD FLAT:??_R0?AVCFigure_Triangle_Tool@@@8 ; CFigure_Triangle_Tool::`RTTI Base Class Descriptor at (0,-1,0,64)'
	DD	02H
	DD	00H
	DD	0ffffffffH
	DD	00H
	DD	040H
	DD	FLAT:??_R3CFigure_Triangle_Tool@@8
rdata$r	ENDS
;	COMDAT ??_R2CFigure_Triangle_Tool@@8
rdata$r	SEGMENT
??_R2CFigure_Triangle_Tool@@8 DD FLAT:??_R1A@?0A@EA@CFigure_Triangle_Tool@@8 ; CFigure_Triangle_Tool::`RTTI Base Class Array'
	DD	FLAT:??_R1A@?0A@EA@CSymbolTool_TwoPoint@@8
	DD	FLAT:??_R1A@?0A@EA@CSymbolTool@@8
rdata$r	ENDS
;	COMDAT ??_R3CFigure_Triangle_Tool@@8
rdata$r	SEGMENT
??_R3CFigure_Triangle_Tool@@8 DD 00H			; CFigure_Triangle_Tool::`RTTI Class Hierarchy Descriptor'
	DD	00H
	DD	03H
	DD	FLAT:??_R2CFigure_Triangle_Tool@@8
rdata$r	ENDS
;	COMDAT ??_R0?AVCFigure_Triangle_Tool@@@8
data$rs	SEGMENT
??_R0?AVCFigure_Triangle_Tool@@@8 DD FLAT:??_7type_info@@6B@ ; CFigure_Triangle_Tool `RTTI Type Descriptor'
	DD	00H
	DB	'.?AVCFigure_Triangle_Tool@@', 00H
data$rs	ENDS
;	COMDAT ??_R4CFigure_Triangle_Tool@@6B@
rdata$r	SEGMENT
??_R4CFigure_Triangle_Tool@@6B@ DD 00H			; CFigure_Triangle_Tool::`RTTI Complete Object Locator'
	DD	00H
	DD	00H
	DD	FLAT:??_R0?AVCFigure_Triangle_Tool@@@8
	DD	FLAT:??_R3CFigure_Triangle_Tool@@8
rdata$r	ENDS
;	COMDAT ??_R1A@?0A@EA@CFigure_Circle_Tool@@8
rdata$r	SEGMENT
??_R1A@?0A@EA@CFigure_Circle_Tool@@8 DD FLAT:??_R0?AVCFigure_Circle_Tool@@@8 ; CFigure_Circle_Tool::`RTTI Base Class Descriptor at (0,-1,0,64)'
	DD	02H
	DD	00H
	DD	0ffffffffH
	DD	00H
	DD	040H
	DD	FLAT:??_R3CFigure_Circle_Tool@@8
rdata$r	ENDS
;	COMDAT ??_R2CFigure_Circle_Tool@@8
rdata$r	SEGMENT
??_R2CFigure_Circle_Tool@@8 DD FLAT:??_R1A@?0A@EA@CFigure_Circle_Tool@@8 ; CFigure_Circle_Tool::`RTTI Base Class Array'
	DD	FLAT:??_R1A@?0A@EA@CSymbolTool_TwoPoint@@8
	DD	FLAT:??_R1A@?0A@EA@CSymbolTool@@8
rdata$r	ENDS
;	COMDAT ??_R3CFigure_Circle_Tool@@8
rdata$r	SEGMENT
??_R3CFigure_Circle_Tool@@8 DD 00H			; CFigure_Circle_Tool::`RTTI Class Hierarchy Descriptor'
	DD	00H
	DD	03H
	DD	FLAT:??_R2CFigure_Circle_Tool@@8
rdata$r	ENDS
;	COMDAT ??_R0?AVCFigure_Circle_Tool@@@8
data$rs	SEGMENT
??_R0?AVCFigure_Circle_Tool@@@8 DD FLAT:??_7type_info@@6B@ ; CFigure_Circle_Tool `RTTI Type Descriptor'
	DD	00H
	DB	'.?AVCFigure_Circle_Tool@@', 00H
data$rs	ENDS
;	COMDAT ??_R4CFigure_Circle_Tool@@6B@
rdata$r	SEGMENT
??_R4CFigure_Circle_Tool@@6B@ DD 00H			; CFigure_Circle_Tool::`RTTI Complete Object Locator'
	DD	00H
	DD	00H
	DD	FLAT:??_R0?AVCFigure_Circle_Tool@@@8
	DD	FLAT:??_R3CFigure_Circle_Tool@@8
rdata$r	ENDS
;	COMDAT ??_R2CSymbolTool@@8
rdata$r	SEGMENT
??_R2CSymbolTool@@8 DD FLAT:??_R1A@?0A@EA@CSymbolTool@@8 ; CSymbolTool::`RTTI Base Class Array'
rdata$r	ENDS
;	COMDAT ??_R3CSymbolTool@@8
rdata$r	SEGMENT
??_R3CSymbolTool@@8 DD 00H				; CSymbolTool::`RTTI Class Hierarchy Descriptor'
	DD	00H
	DD	01H
	DD	FLAT:??_R2CSymbolTool@@8
rdata$r	ENDS
;	COMDAT ??_R0?AVCSymbolTool@@@8
data$rs	SEGMENT
??_R0?AVCSymbolTool@@@8 DD FLAT:??_7type_info@@6B@	; CSymbolTool `RTTI Type Descriptor'
	DD	00H
	DB	'.?AVCSymbolTool@@', 00H
data$rs	ENDS
;	COMDAT ??_R1A@?0A@EA@CSymbolTool@@8
rdata$r	SEGMENT
??_R1A@?0A@EA@CSymbolTool@@8 DD FLAT:??_R0?AVCSymbolTool@@@8 ; CSymbolTool::`RTTI Base Class Descriptor at (0,-1,0,64)'
	DD	00H
	DD	00H
	DD	0ffffffffH
	DD	00H
	DD	040H
	DD	FLAT:??_R3CSymbolTool@@8
rdata$r	ENDS
;	COMDAT ??_R2CSymbolTool_TwoPoint@@8
rdata$r	SEGMENT
??_R2CSymbolTool_TwoPoint@@8 DD FLAT:??_R1A@?0A@EA@CSymbolTool_TwoPoint@@8 ; CSymbolTool_TwoPoint::`RTTI Base Class Array'
	DD	FLAT:??_R1A@?0A@EA@CSymbolTool@@8
rdata$r	ENDS
;	COMDAT ??_R3CSymbolTool_TwoPoint@@8
rdata$r	SEGMENT
??_R3CSymbolTool_TwoPoint@@8 DD 00H			; CSymbolTool_TwoPoint::`RTTI Class Hierarchy Descriptor'
	DD	00H
	DD	02H
	DD	FLAT:??_R2CSymbolTool_TwoPoint@@8
rdata$r	ENDS
;	COMDAT ??_R0?AVCSymbolTool_TwoPoint@@@8
data$rs	SEGMENT
??_R0?AVCSymbolTool_TwoPoint@@@8 DD FLAT:??_7type_info@@6B@ ; CSymbolTool_TwoPoint `RTTI Type Descriptor'
	DD	00H
	DB	'.?AVCSymbolTool_TwoPoint@@', 00H
data$rs	ENDS
;	COMDAT ??_R1A@?0A@EA@CSymbolTool_TwoPoint@@8
rdata$r	SEGMENT
??_R1A@?0A@EA@CSymbolTool_TwoPoint@@8 DD FLAT:??_R0?AVCSymbolTool_TwoPoint@@@8 ; CSymbolTool_TwoPoint::`RTTI Base Class Descriptor at (0,-1,0,64)'
	DD	01H
	DD	00H
	DD	0ffffffffH
	DD	00H
	DD	040H
	DD	FLAT:??_R3CSymbolTool_TwoPoint@@8
rdata$r	ENDS
;	COMDAT ??_R1A@?0A@EA@CFigure_Square_Tool@@8
rdata$r	SEGMENT
??_R1A@?0A@EA@CFigure_Square_Tool@@8 DD FLAT:??_R0?AVCFigure_Square_Tool@@@8 ; CFigure_Square_Tool::`RTTI Base Class Descriptor at (0,-1,0,64)'
	DD	02H
	DD	00H
	DD	0ffffffffH
	DD	00H
	DD	040H
	DD	FLAT:??_R3CFigure_Square_Tool@@8
rdata$r	ENDS
;	COMDAT ??_R2CFigure_Square_Tool@@8
rdata$r	SEGMENT
??_R2CFigure_Square_Tool@@8 DD FLAT:??_R1A@?0A@EA@CFigure_Square_Tool@@8 ; CFigure_Square_Tool::`RTTI Base Class Array'
	DD	FLAT:??_R1A@?0A@EA@CSymbolTool_TwoPoint@@8
	DD	FLAT:??_R1A@?0A@EA@CSymbolTool@@8
rdata$r	ENDS
;	COMDAT ??_R3CFigure_Square_Tool@@8
rdata$r	SEGMENT
??_R3CFigure_Square_Tool@@8 DD 00H			; CFigure_Square_Tool::`RTTI Class Hierarchy Descriptor'
	DD	00H
	DD	03H
	DD	FLAT:??_R2CFigure_Square_Tool@@8
rdata$r	ENDS
;	COMDAT ??_R0?AVCFigure_Square_Tool@@@8
data$rs	SEGMENT
??_R0?AVCFigure_Square_Tool@@@8 DD FLAT:??_7type_info@@6B@ ; CFigure_Square_Tool `RTTI Type Descriptor'
	DD	00H
	DB	'.?AVCFigure_Square_Tool@@', 00H
data$rs	ENDS
;	COMDAT ??_R4CFigure_Square_Tool@@6B@
rdata$r	SEGMENT
??_R4CFigure_Square_Tool@@6B@ DD 00H			; CFigure_Square_Tool::`RTTI Complete Object Locator'
	DD	00H
	DD	00H
	DD	FLAT:??_R0?AVCFigure_Square_Tool@@@8
	DD	FLAT:??_R3CFigure_Square_Tool@@8
rdata$r	ENDS
;	COMDAT ??_7CChar_6_Tool@@6B@
CONST	SEGMENT
??_7CChar_6_Tool@@6B@ DD FLAT:??_R4CChar_6_Tool@@6B@	; CChar_6_Tool::`vftable'
	DD	FLAT:?Initial@CSymbolTool_OnePoint_Size@@UAEXXZ
	DD	FLAT:?OnLButtonDown@CChar_6_Tool@@UAEPAVCDrawingSymbol@@PAVCDC@@ABVCPoint@@@Z
	DD	FLAT:?OnLButtonUp@CChar_6_Tool@@UAEXPAVCDC@@ABVCPoint@@@Z
	DD	FLAT:?OnMouseMove@CSymbolTool_OnePoint_Size@@UAE_NPAVCDC@@ABIABVCPoint@@@Z
	DD	FLAT:?IsPointInBlock@CSymbolTool@@UAE_NABVCRect@@ABVCPoint@@@Z
	DD	FLAT:?OnDraw@CSymbolTool_OnePoint_Size@@UAEXPAVCDC@@@Z
	DD	FLAT:?SavePointAndDraw@CSymbolTool_OnePoint_Size@@MAEXPAVCDC@@ABVCPoint@@H@Z
	DD	FLAT:?AddElement@CSymbolTool_OnePoint_Size@@MAEXW4TOOLTYPE@CSymbolBaseData@@ABVCPoint@@@Z
	DD	FLAT:?GetOnePointDrawer@CChar_6_Tool@@MAEAAVCSymbolDraw_OnePoint_Size@@XZ
CONST	ENDS
;	COMDAT ??_7CChar_5_Tool@@6B@
CONST	SEGMENT
??_7CChar_5_Tool@@6B@ DD FLAT:??_R4CChar_5_Tool@@6B@	; CChar_5_Tool::`vftable'
	DD	FLAT:?Initial@CSymbolTool_OnePoint_Size@@UAEXXZ
	DD	FLAT:?OnLButtonDown@CChar_5_Tool@@UAEPAVCDrawingSymbol@@PAVCDC@@ABVCPoint@@@Z
	DD	FLAT:?OnLButtonUp@CChar_5_Tool@@UAEXPAVCDC@@ABVCPoint@@@Z
	DD	FLAT:?OnMouseMove@CSymbolTool_OnePoint_Size@@UAE_NPAVCDC@@ABIABVCPoint@@@Z
	DD	FLAT:?IsPointInBlock@CSymbolTool@@UAE_NABVCRect@@ABVCPoint@@@Z
	DD	FLAT:?OnDraw@CSymbolTool_OnePoint_Size@@UAEXPAVCDC@@@Z
	DD	FLAT:?SavePointAndDraw@CSymbolTool_OnePoint_Size@@MAEXPAVCDC@@ABVCPoint@@H@Z
	DD	FLAT:?AddElement@CSymbolTool_OnePoint_Size@@MAEXW4TOOLTYPE@CSymbolBaseData@@ABVCPoint@@@Z
	DD	FLAT:?GetOnePointDrawer@CChar_5_Tool@@MAEAAVCSymbolDraw_OnePoint_Size@@XZ
CONST	ENDS
;	COMDAT ??_7CChar_4_Tool@@6B@
CONST	SEGMENT
??_7CChar_4_Tool@@6B@ DD FLAT:??_R4CChar_4_Tool@@6B@	; CChar_4_Tool::`vftable'
	DD	FLAT:?Initial@CSymbolTool_OnePoint_Size@@UAEXXZ
	DD	FLAT:?OnLButtonDown@CChar_4_Tool@@UAEPAVCDrawingSymbol@@PAVCDC@@ABVCPoint@@@Z
	DD	FLAT:?OnLButtonUp@CChar_4_Tool@@UAEXPAVCDC@@ABVCPoint@@@Z
	DD	FLAT:?OnMouseMove@CSymbolTool_OnePoint_Size@@UAE_NPAVCDC@@ABIABVCPoint@@@Z
	DD	FLAT:?IsPointInBlock@CSymbolTool@@UAE_NABVCRect@@ABVCPoint@@@Z
	DD	FLAT:?OnDraw@CSymbolTool_OnePoint_Size@@UAEXPAVCDC@@@Z
	DD	FLAT:?SavePointAndDraw@CSymbolTool_OnePoint_Size@@MAEXPAVCDC@@ABVCPoint@@H@Z
	DD	FLAT:?AddElement@CSymbolTool_OnePoint_Size@@MAEXW4TOOLTYPE@CSymbolBaseData@@ABVCPoint@@@Z
	DD	FLAT:?GetOnePointDrawer@CChar_4_Tool@@MAEAAVCSymbolDraw_OnePoint_Size@@XZ
CONST	ENDS
;	COMDAT ??_7CChar_3_Tool@@6B@
CONST	SEGMENT
??_7CChar_3_Tool@@6B@ DD FLAT:??_R4CChar_3_Tool@@6B@	; CChar_3_Tool::`vftable'
	DD	FLAT:?Initial@CSymbolTool_OnePoint_Size@@UAEXXZ
	DD	FLAT:?OnLButtonDown@CChar_3_Tool@@UAEPAVCDrawingSymbol@@PAVCDC@@ABVCPoint@@@Z
	DD	FLAT:?OnLButtonUp@CChar_3_Tool@@UAEXPAVCDC@@ABVCPoint@@@Z
	DD	FLAT:?OnMouseMove@CSymbolTool_OnePoint_Size@@UAE_NPAVCDC@@ABIABVCPoint@@@Z
	DD	FLAT:?IsPointInBlock@CSymbolTool@@UAE_NABVCRect@@ABVCPoint@@@Z
	DD	FLAT:?OnDraw@CSymbolTool_OnePoint_Size@@UAEXPAVCDC@@@Z
	DD	FLAT:?SavePointAndDraw@CSymbolTool_OnePoint_Size@@MAEXPAVCDC@@ABVCPoint@@H@Z
	DD	FLAT:?AddElement@CSymbolTool_OnePoint_Size@@MAEXW4TOOLTYPE@CSymbolBaseData@@ABVCPoint@@@Z
	DD	FLAT:?GetOnePointDrawer@CChar_3_Tool@@MAEAAVCSymbolDraw_OnePoint_Size@@XZ
CONST	ENDS
;	COMDAT ??_7CChar_2_Tool@@6B@
CONST	SEGMENT
??_7CChar_2_Tool@@6B@ DD FLAT:??_R4CChar_2_Tool@@6B@	; CChar_2_Tool::`vftable'
	DD	FLAT:?Initial@CSymbolTool_OnePoint_Size@@UAEXXZ
	DD	FLAT:?OnLButtonDown@CChar_2_Tool@@UAEPAVCDrawingSymbol@@PAVCDC@@ABVCPoint@@@Z
	DD	FLAT:?OnLButtonUp@CChar_2_Tool@@UAEXPAVCDC@@ABVCPoint@@@Z
	DD	FLAT:?OnMouseMove@CSymbolTool_OnePoint_Size@@UAE_NPAVCDC@@ABIABVCPoint@@@Z
	DD	FLAT:?IsPointInBlock@CSymbolTool@@UAE_NABVCRect@@ABVCPoint@@@Z
	DD	FLAT:?OnDraw@CSymbolTool_OnePoint_Size@@UAEXPAVCDC@@@Z
	DD	FLAT:?SavePointAndDraw@CSymbolTool_OnePoint_Size@@MAEXPAVCDC@@ABVCPoint@@H@Z
	DD	FLAT:?AddElement@CSymbolTool_OnePoint_Size@@MAEXW4TOOLTYPE@CSymbolBaseData@@ABVCPoint@@@Z
	DD	FLAT:?GetOnePointDrawer@CChar_2_Tool@@MAEAAVCSymbolDraw_OnePoint_Size@@XZ
CONST	ENDS
;	COMDAT ??_7CChar_1_Tool@@6B@
CONST	SEGMENT
??_7CChar_1_Tool@@6B@ DD FLAT:??_R4CChar_1_Tool@@6B@	; CChar_1_Tool::`vftable'
	DD	FLAT:?Initial@CSymbolTool_OnePoint_Size@@UAEXXZ
	DD	FLAT:?OnLButtonDown@CChar_1_Tool@@UAEPAVCDrawingSymbol@@PAVCDC@@ABVCPoint@@@Z
	DD	FLAT:?OnLButtonUp@CChar_1_Tool@@UAEXPAVCDC@@ABVCPoint@@@Z
	DD	FLAT:?OnMouseMove@CSymbolTool_OnePoint_Size@@UAE_NPAVCDC@@ABIABVCPoint@@@Z
	DD	FLAT:?IsPointInBlock@CSymbolTool@@UAE_NABVCRect@@ABVCPoint@@@Z
	DD	FLAT:?OnDraw@CSymbolTool_OnePoint_Size@@UAEXPAVCDC@@@Z
	DD	FLAT:?SavePointAndDraw@CSymbolTool_OnePoint_Size@@MAEXPAVCDC@@ABVCPoint@@H@Z
	DD	FLAT:?AddElement@CSymbolTool_OnePoint_Size@@MAEXW4TOOLTYPE@CSymbolBaseData@@ABVCPoint@@@Z
	DD	FLAT:?GetOnePointDrawer@CChar_1_Tool@@MAEAAVCSymbolDraw_OnePoint_Size@@XZ
CONST	ENDS
;	COMDAT ??_7CText_H_Tool@@6B@
CONST	SEGMENT
??_7CText_H_Tool@@6B@ DD FLAT:??_R4CText_H_Tool@@6B@	; CText_H_Tool::`vftable'
	DD	FLAT:?Initial@CSymbolTool_OnePoint_Size@@UAEXXZ
	DD	FLAT:?OnLButtonDown@CText_H_Tool@@UAEPAVCDrawingSymbol@@PAVCDC@@ABVCPoint@@@Z
	DD	FLAT:?OnLButtonUp@CText_H_Tool@@UAEXPAVCDC@@ABVCPoint@@@Z
	DD	FLAT:?OnMouseMove@CSymbolTool_OnePoint_Size@@UAE_NPAVCDC@@ABIABVCPoint@@@Z
	DD	FLAT:?IsPointInBlock@CSymbolTool@@UAE_NABVCRect@@ABVCPoint@@@Z
	DD	FLAT:?OnDraw@CSymbolTool_OnePoint_Size@@UAEXPAVCDC@@@Z
	DD	FLAT:?SavePointAndDraw@CSymbolTool_OnePoint_Size@@MAEXPAVCDC@@ABVCPoint@@H@Z
	DD	FLAT:?AddElement@CSymbolTool_OnePoint_Size@@MAEXW4TOOLTYPE@CSymbolBaseData@@ABVCPoint@@@Z
	DD	FLAT:?GetOnePointDrawer@CText_H_Tool@@MAEAAVCSymbolDraw_OnePoint_Size@@XZ
CONST	ENDS
;	COMDAT ??_7CText_G_Tool@@6B@
CONST	SEGMENT
??_7CText_G_Tool@@6B@ DD FLAT:??_R4CText_G_Tool@@6B@	; CText_G_Tool::`vftable'
	DD	FLAT:?Initial@CSymbolTool_OnePoint_Size@@UAEXXZ
	DD	FLAT:?OnLButtonDown@CText_G_Tool@@UAEPAVCDrawingSymbol@@PAVCDC@@ABVCPoint@@@Z
	DD	FLAT:?OnLButtonUp@CText_G_Tool@@UAEXPAVCDC@@ABVCPoint@@@Z
	DD	FLAT:?OnMouseMove@CSymbolTool_OnePoint_Size@@UAE_NPAVCDC@@ABIABVCPoint@@@Z
	DD	FLAT:?IsPointInBlock@CSymbolTool@@UAE_NABVCRect@@ABVCPoint@@@Z
	DD	FLAT:?OnDraw@CSymbolTool_OnePoint_Size@@UAEXPAVCDC@@@Z
	DD	FLAT:?SavePointAndDraw@CSymbolTool_OnePoint_Size@@MAEXPAVCDC@@ABVCPoint@@H@Z
	DD	FLAT:?AddElement@CSymbolTool_OnePoint_Size@@MAEXW4TOOLTYPE@CSymbolBaseData@@ABVCPoint@@@Z
	DD	FLAT:?GetOnePointDrawer@CText_G_Tool@@MAEAAVCSymbolDraw_OnePoint_Size@@XZ
CONST	ENDS
;	COMDAT ??_7CText_F_Tool@@6B@
CONST	SEGMENT
??_7CText_F_Tool@@6B@ DD FLAT:??_R4CText_F_Tool@@6B@	; CText_F_Tool::`vftable'
	DD	FLAT:?Initial@CSymbolTool_OnePoint_Size@@UAEXXZ
	DD	FLAT:?OnLButtonDown@CText_F_Tool@@UAEPAVCDrawingSymbol@@PAVCDC@@ABVCPoint@@@Z
	DD	FLAT:?OnLButtonUp@CText_F_Tool@@UAEXPAVCDC@@ABVCPoint@@@Z
	DD	FLAT:?OnMouseMove@CSymbolTool_OnePoint_Size@@UAE_NPAVCDC@@ABIABVCPoint@@@Z
	DD	FLAT:?IsPointInBlock@CSymbolTool@@UAE_NABVCRect@@ABVCPoint@@@Z
	DD	FLAT:?OnDraw@CSymbolTool_OnePoint_Size@@UAEXPAVCDC@@@Z
	DD	FLAT:?SavePointAndDraw@CSymbolTool_OnePoint_Size@@MAEXPAVCDC@@ABVCPoint@@H@Z
	DD	FLAT:?AddElement@CSymbolTool_OnePoint_Size@@MAEXW4TOOLTYPE@CSymbolBaseData@@ABVCPoint@@@Z
	DD	FLAT:?GetOnePointDrawer@CText_F_Tool@@MAEAAVCSymbolDraw_OnePoint_Size@@XZ
CONST	ENDS
;	COMDAT ??_7CText_E_Tool@@6B@
CONST	SEGMENT
??_7CText_E_Tool@@6B@ DD FLAT:??_R4CText_E_Tool@@6B@	; CText_E_Tool::`vftable'
	DD	FLAT:?Initial@CSymbolTool_OnePoint_Size@@UAEXXZ
	DD	FLAT:?OnLButtonDown@CText_E_Tool@@UAEPAVCDrawingSymbol@@PAVCDC@@ABVCPoint@@@Z
	DD	FLAT:?OnLButtonUp@CText_E_Tool@@UAEXPAVCDC@@ABVCPoint@@@Z
	DD	FLAT:?OnMouseMove@CSymbolTool_OnePoint_Size@@UAE_NPAVCDC@@ABIABVCPoint@@@Z
	DD	FLAT:?IsPointInBlock@CSymbolTool@@UAE_NABVCRect@@ABVCPoint@@@Z
	DD	FLAT:?OnDraw@CSymbolTool_OnePoint_Size@@UAEXPAVCDC@@@Z
	DD	FLAT:?SavePointAndDraw@CSymbolTool_OnePoint_Size@@MAEXPAVCDC@@ABVCPoint@@H@Z
	DD	FLAT:?AddElement@CSymbolTool_OnePoint_Size@@MAEXW4TOOLTYPE@CSymbolBaseData@@ABVCPoint@@@Z
	DD	FLAT:?GetOnePointDrawer@CText_E_Tool@@MAEAAVCSymbolDraw_OnePoint_Size@@XZ
CONST	ENDS
;	COMDAT ??_7CText_D_Tool@@6B@
CONST	SEGMENT
??_7CText_D_Tool@@6B@ DD FLAT:??_R4CText_D_Tool@@6B@	; CText_D_Tool::`vftable'
	DD	FLAT:?Initial@CSymbolTool_OnePoint_Size@@UAEXXZ
	DD	FLAT:?OnLButtonDown@CText_D_Tool@@UAEPAVCDrawingSymbol@@PAVCDC@@ABVCPoint@@@Z
	DD	FLAT:?OnLButtonUp@CText_D_Tool@@UAEXPAVCDC@@ABVCPoint@@@Z
	DD	FLAT:?OnMouseMove@CSymbolTool_OnePoint_Size@@UAE_NPAVCDC@@ABIABVCPoint@@@Z
	DD	FLAT:?IsPointInBlock@CSymbolTool@@UAE_NABVCRect@@ABVCPoint@@@Z
	DD	FLAT:?OnDraw@CSymbolTool_OnePoint_Size@@UAEXPAVCDC@@@Z
	DD	FLAT:?SavePointAndDraw@CSymbolTool_OnePoint_Size@@MAEXPAVCDC@@ABVCPoint@@H@Z
	DD	FLAT:?AddElement@CSymbolTool_OnePoint_Size@@MAEXW4TOOLTYPE@CSymbolBaseData@@ABVCPoint@@@Z
	DD	FLAT:?GetOnePointDrawer@CText_D_Tool@@MAEAAVCSymbolDraw_OnePoint_Size@@XZ
CONST	ENDS
;	COMDAT ??_7CText_C_Tool@@6B@
CONST	SEGMENT
??_7CText_C_Tool@@6B@ DD FLAT:??_R4CText_C_Tool@@6B@	; CText_C_Tool::`vftable'
	DD	FLAT:?Initial@CSymbolTool_OnePoint_Size@@UAEXXZ
	DD	FLAT:?OnLButtonDown@CText_C_Tool@@UAEPAVCDrawingSymbol@@PAVCDC@@ABVCPoint@@@Z
	DD	FLAT:?OnLButtonUp@CText_C_Tool@@UAEXPAVCDC@@ABVCPoint@@@Z
	DD	FLAT:?OnMouseMove@CSymbolTool_OnePoint_Size@@UAE_NPAVCDC@@ABIABVCPoint@@@Z
	DD	FLAT:?IsPointInBlock@CSymbolTool@@UAE_NABVCRect@@ABVCPoint@@@Z
	DD	FLAT:?OnDraw@CSymbolTool_OnePoint_Size@@UAEXPAVCDC@@@Z
	DD	FLAT:?SavePointAndDraw@CSymbolTool_OnePoint_Size@@MAEXPAVCDC@@ABVCPoint@@H@Z
	DD	FLAT:?AddElement@CSymbolTool_OnePoint_Size@@MAEXW4TOOLTYPE@CSymbolBaseData@@ABVCPoint@@@Z
	DD	FLAT:?GetOnePointDrawer@CText_C_Tool@@MAEAAVCSymbolDraw_OnePoint_Size@@XZ
CONST	ENDS
;	COMDAT ??_7CText_B_Tool@@6B@
CONST	SEGMENT
??_7CText_B_Tool@@6B@ DD FLAT:??_R4CText_B_Tool@@6B@	; CText_B_Tool::`vftable'
	DD	FLAT:?Initial@CSymbolTool_OnePoint_Size@@UAEXXZ
	DD	FLAT:?OnLButtonDown@CText_B_Tool@@UAEPAVCDrawingSymbol@@PAVCDC@@ABVCPoint@@@Z
	DD	FLAT:?OnLButtonUp@CText_B_Tool@@UAEXPAVCDC@@ABVCPoint@@@Z
	DD	FLAT:?OnMouseMove@CSymbolTool_OnePoint_Size@@UAE_NPAVCDC@@ABIABVCPoint@@@Z
	DD	FLAT:?IsPointInBlock@CSymbolTool@@UAE_NABVCRect@@ABVCPoint@@@Z
	DD	FLAT:?OnDraw@CSymbolTool_OnePoint_Size@@UAEXPAVCDC@@@Z
	DD	FLAT:?SavePointAndDraw@CSymbolTool_OnePoint_Size@@MAEXPAVCDC@@ABVCPoint@@H@Z
	DD	FLAT:?AddElement@CSymbolTool_OnePoint_Size@@MAEXW4TOOLTYPE@CSymbolBaseData@@ABVCPoint@@@Z
	DD	FLAT:?GetOnePointDrawer@CText_B_Tool@@MAEAAVCSymbolDraw_OnePoint_Size@@XZ
CONST	ENDS
;	COMDAT ??_7CText_A_Tool@@6B@
CONST	SEGMENT
??_7CText_A_Tool@@6B@ DD FLAT:??_R4CText_A_Tool@@6B@	; CText_A_Tool::`vftable'
	DD	FLAT:?Initial@CSymbolTool_OnePoint_Size@@UAEXXZ
	DD	FLAT:?OnLButtonDown@CText_A_Tool@@UAEPAVCDrawingSymbol@@PAVCDC@@ABVCPoint@@@Z
	DD	FLAT:?OnLButtonUp@CText_A_Tool@@UAEXPAVCDC@@ABVCPoint@@@Z
	DD	FLAT:?OnMouseMove@CSymbolTool_OnePoint_Size@@UAE_NPAVCDC@@ABIABVCPoint@@@Z
	DD	FLAT:?IsPointInBlock@CSymbolTool@@UAE_NABVCRect@@ABVCPoint@@@Z
	DD	FLAT:?OnDraw@CSymbolTool_OnePoint_Size@@UAEXPAVCDC@@@Z
	DD	FLAT:?SavePointAndDraw@CSymbolTool_OnePoint_Size@@MAEXPAVCDC@@ABVCPoint@@H@Z
	DD	FLAT:?AddElement@CSymbolTool_OnePoint_Size@@MAEXW4TOOLTYPE@CSymbolBaseData@@ABVCPoint@@@Z
	DD	FLAT:?GetOnePointDrawer@CText_A_Tool@@MAEAAVCSymbolDraw_OnePoint_Size@@XZ
CONST	ENDS
;	COMDAT ??_7CNumber_Nine_Tool@@6B@
CONST	SEGMENT
??_7CNumber_Nine_Tool@@6B@ DD FLAT:??_R4CNumber_Nine_Tool@@6B@ ; CNumber_Nine_Tool::`vftable'
	DD	FLAT:?Initial@CSymbolTool_OnePoint_Size@@UAEXXZ
	DD	FLAT:?OnLButtonDown@CNumber_Nine_Tool@@UAEPAVCDrawingSymbol@@PAVCDC@@ABVCPoint@@@Z
	DD	FLAT:?OnLButtonUp@CNumber_Nine_Tool@@UAEXPAVCDC@@ABVCPoint@@@Z
	DD	FLAT:?OnMouseMove@CSymbolTool_OnePoint_Size@@UAE_NPAVCDC@@ABIABVCPoint@@@Z
	DD	FLAT:?IsPointInBlock@CSymbolTool@@UAE_NABVCRect@@ABVCPoint@@@Z
	DD	FLAT:?OnDraw@CSymbolTool_OnePoint_Size@@UAEXPAVCDC@@@Z
	DD	FLAT:?SavePointAndDraw@CSymbolTool_OnePoint_Size@@MAEXPAVCDC@@ABVCPoint@@H@Z
	DD	FLAT:?AddElement@CSymbolTool_OnePoint_Size@@MAEXW4TOOLTYPE@CSymbolBaseData@@ABVCPoint@@@Z
	DD	FLAT:?GetOnePointDrawer@CNumber_Nine_Tool@@MAEAAVCSymbolDraw_OnePoint_Size@@XZ
CONST	ENDS
;	COMDAT ??_7CNumber_Eight_Tool@@6B@
CONST	SEGMENT
??_7CNumber_Eight_Tool@@6B@ DD FLAT:??_R4CNumber_Eight_Tool@@6B@ ; CNumber_Eight_Tool::`vftable'
	DD	FLAT:?Initial@CSymbolTool_OnePoint_Size@@UAEXXZ
	DD	FLAT:?OnLButtonDown@CNumber_Eight_Tool@@UAEPAVCDrawingSymbol@@PAVCDC@@ABVCPoint@@@Z
	DD	FLAT:?OnLButtonUp@CNumber_Eight_Tool@@UAEXPAVCDC@@ABVCPoint@@@Z
	DD	FLAT:?OnMouseMove@CSymbolTool_OnePoint_Size@@UAE_NPAVCDC@@ABIABVCPoint@@@Z
	DD	FLAT:?IsPointInBlock@CSymbolTool@@UAE_NABVCRect@@ABVCPoint@@@Z
	DD	FLAT:?OnDraw@CSymbolTool_OnePoint_Size@@UAEXPAVCDC@@@Z
	DD	FLAT:?SavePointAndDraw@CSymbolTool_OnePoint_Size@@MAEXPAVCDC@@ABVCPoint@@H@Z
	DD	FLAT:?AddElement@CSymbolTool_OnePoint_Size@@MAEXW4TOOLTYPE@CSymbolBaseData@@ABVCPoint@@@Z
	DD	FLAT:?GetOnePointDrawer@CNumber_Eight_Tool@@MAEAAVCSymbolDraw_OnePoint_Size@@XZ
CONST	ENDS
;	COMDAT ??_7CNumber_Seven_Tool@@6B@
CONST	SEGMENT
??_7CNumber_Seven_Tool@@6B@ DD FLAT:??_R4CNumber_Seven_Tool@@6B@ ; CNumber_Seven_Tool::`vftable'
	DD	FLAT:?Initial@CSymbolTool_OnePoint_Size@@UAEXXZ
	DD	FLAT:?OnLButtonDown@CNumber_Seven_Tool@@UAEPAVCDrawingSymbol@@PAVCDC@@ABVCPoint@@@Z
	DD	FLAT:?OnLButtonUp@CNumber_Seven_Tool@@UAEXPAVCDC@@ABVCPoint@@@Z
	DD	FLAT:?OnMouseMove@CSymbolTool_OnePoint_Size@@UAE_NPAVCDC@@ABIABVCPoint@@@Z
	DD	FLAT:?IsPointInBlock@CSymbolTool@@UAE_NABVCRect@@ABVCPoint@@@Z
	DD	FLAT:?OnDraw@CSymbolTool_OnePoint_Size@@UAEXPAVCDC@@@Z
	DD	FLAT:?SavePointAndDraw@CSymbolTool_OnePoint_Size@@MAEXPAVCDC@@ABVCPoint@@H@Z
	DD	FLAT:?AddElement@CSymbolTool_OnePoint_Size@@MAEXW4TOOLTYPE@CSymbolBaseData@@ABVCPoint@@@Z
	DD	FLAT:?GetOnePointDrawer@CNumber_Seven_Tool@@MAEAAVCSymbolDraw_OnePoint_Size@@XZ
CONST	ENDS
;	COMDAT ??_7CNumber_Six_Tool@@6B@
CONST	SEGMENT
??_7CNumber_Six_Tool@@6B@ DD FLAT:??_R4CNumber_Six_Tool@@6B@ ; CNumber_Six_Tool::`vftable'
	DD	FLAT:?Initial@CSymbolTool_OnePoint_Size@@UAEXXZ
	DD	FLAT:?OnLButtonDown@CNumber_Six_Tool@@UAEPAVCDrawingSymbol@@PAVCDC@@ABVCPoint@@@Z
	DD	FLAT:?OnLButtonUp@CNumber_Six_Tool@@UAEXPAVCDC@@ABVCPoint@@@Z
	DD	FLAT:?OnMouseMove@CSymbolTool_OnePoint_Size@@UAE_NPAVCDC@@ABIABVCPoint@@@Z
	DD	FLAT:?IsPointInBlock@CSymbolTool@@UAE_NABVCRect@@ABVCPoint@@@Z
	DD	FLAT:?OnDraw@CSymbolTool_OnePoint_Size@@UAEXPAVCDC@@@Z
	DD	FLAT:?SavePointAndDraw@CSymbolTool_OnePoint_Size@@MAEXPAVCDC@@ABVCPoint@@H@Z
	DD	FLAT:?AddElement@CSymbolTool_OnePoint_Size@@MAEXW4TOOLTYPE@CSymbolBaseData@@ABVCPoint@@@Z
	DD	FLAT:?GetOnePointDrawer@CNumber_Six_Tool@@MAEAAVCSymbolDraw_OnePoint_Size@@XZ
CONST	ENDS
;	COMDAT ??_7CNumber_Five_Tool@@6B@
CONST	SEGMENT
??_7CNumber_Five_Tool@@6B@ DD FLAT:??_R4CNumber_Five_Tool@@6B@ ; CNumber_Five_Tool::`vftable'
	DD	FLAT:?Initial@CSymbolTool_OnePoint_Size@@UAEXXZ
	DD	FLAT:?OnLButtonDown@CNumber_Five_Tool@@UAEPAVCDrawingSymbol@@PAVCDC@@ABVCPoint@@@Z
	DD	FLAT:?OnLButtonUp@CNumber_Five_Tool@@UAEXPAVCDC@@ABVCPoint@@@Z
	DD	FLAT:?OnMouseMove@CSymbolTool_OnePoint_Size@@UAE_NPAVCDC@@ABIABVCPoint@@@Z
	DD	FLAT:?IsPointInBlock@CSymbolTool@@UAE_NABVCRect@@ABVCPoint@@@Z
	DD	FLAT:?OnDraw@CSymbolTool_OnePoint_Size@@UAEXPAVCDC@@@Z
	DD	FLAT:?SavePointAndDraw@CSymbolTool_OnePoint_Size@@MAEXPAVCDC@@ABVCPoint@@H@Z
	DD	FLAT:?AddElement@CSymbolTool_OnePoint_Size@@MAEXW4TOOLTYPE@CSymbolBaseData@@ABVCPoint@@@Z
	DD	FLAT:?GetOnePointDrawer@CNumber_Five_Tool@@MAEAAVCSymbolDraw_OnePoint_Size@@XZ
CONST	ENDS
;	COMDAT ??_7CNumber_Four_Tool@@6B@
CONST	SEGMENT
??_7CNumber_Four_Tool@@6B@ DD FLAT:??_R4CNumber_Four_Tool@@6B@ ; CNumber_Four_Tool::`vftable'
	DD	FLAT:?Initial@CSymbolTool_OnePoint_Size@@UAEXXZ
	DD	FLAT:?OnLButtonDown@CNumber_Four_Tool@@UAEPAVCDrawingSymbol@@PAVCDC@@ABVCPoint@@@Z
	DD	FLAT:?OnLButtonUp@CNumber_Four_Tool@@UAEXPAVCDC@@ABVCPoint@@@Z
	DD	FLAT:?OnMouseMove@CSymbolTool_OnePoint_Size@@UAE_NPAVCDC@@ABIABVCPoint@@@Z
	DD	FLAT:?IsPointInBlock@CSymbolTool@@UAE_NABVCRect@@ABVCPoint@@@Z
	DD	FLAT:?OnDraw@CSymbolTool_OnePoint_Size@@UAEXPAVCDC@@@Z
	DD	FLAT:?SavePointAndDraw@CSymbolTool_OnePoint_Size@@MAEXPAVCDC@@ABVCPoint@@H@Z
	DD	FLAT:?AddElement@CSymbolTool_OnePoint_Size@@MAEXW4TOOLTYPE@CSymbolBaseData@@ABVCPoint@@@Z
	DD	FLAT:?GetOnePointDrawer@CNumber_Four_Tool@@MAEAAVCSymbolDraw_OnePoint_Size@@XZ
CONST	ENDS
;	COMDAT ??_7CNumber_Three_Tool@@6B@
CONST	SEGMENT
??_7CNumber_Three_Tool@@6B@ DD FLAT:??_R4CNumber_Three_Tool@@6B@ ; CNumber_Three_Tool::`vftable'
	DD	FLAT:?Initial@CSymbolTool_OnePoint_Size@@UAEXXZ
	DD	FLAT:?OnLButtonDown@CNumber_Three_Tool@@UAEPAVCDrawingSymbol@@PAVCDC@@ABVCPoint@@@Z
	DD	FLAT:?OnLButtonUp@CNumber_Three_Tool@@UAEXPAVCDC@@ABVCPoint@@@Z
	DD	FLAT:?OnMouseMove@CSymbolTool_OnePoint_Size@@UAE_NPAVCDC@@ABIABVCPoint@@@Z
	DD	FLAT:?IsPointInBlock@CSymbolTool@@UAE_NABVCRect@@ABVCPoint@@@Z
	DD	FLAT:?OnDraw@CSymbolTool_OnePoint_Size@@UAEXPAVCDC@@@Z
	DD	FLAT:?SavePointAndDraw@CSymbolTool_OnePoint_Size@@MAEXPAVCDC@@ABVCPoint@@H@Z
	DD	FLAT:?AddElement@CSymbolTool_OnePoint_Size@@MAEXW4TOOLTYPE@CSymbolBaseData@@ABVCPoint@@@Z
	DD	FLAT:?GetOnePointDrawer@CNumber_Three_Tool@@MAEAAVCSymbolDraw_OnePoint_Size@@XZ
CONST	ENDS
;	COMDAT ??_7CNumber_Two_Tool@@6B@
CONST	SEGMENT
??_7CNumber_Two_Tool@@6B@ DD FLAT:??_R4CNumber_Two_Tool@@6B@ ; CNumber_Two_Tool::`vftable'
	DD	FLAT:?Initial@CSymbolTool_OnePoint_Size@@UAEXXZ
	DD	FLAT:?OnLButtonDown@CNumber_Two_Tool@@UAEPAVCDrawingSymbol@@PAVCDC@@ABVCPoint@@@Z
	DD	FLAT:?OnLButtonUp@CNumber_Two_Tool@@UAEXPAVCDC@@ABVCPoint@@@Z
	DD	FLAT:?OnMouseMove@CSymbolTool_OnePoint_Size@@UAE_NPAVCDC@@ABIABVCPoint@@@Z
	DD	FLAT:?IsPointInBlock@CSymbolTool@@UAE_NABVCRect@@ABVCPoint@@@Z
	DD	FLAT:?OnDraw@CSymbolTool_OnePoint_Size@@UAEXPAVCDC@@@Z
	DD	FLAT:?SavePointAndDraw@CSymbolTool_OnePoint_Size@@MAEXPAVCDC@@ABVCPoint@@H@Z
	DD	FLAT:?AddElement@CSymbolTool_OnePoint_Size@@MAEXW4TOOLTYPE@CSymbolBaseData@@ABVCPoint@@@Z
	DD	FLAT:?GetOnePointDrawer@CNumber_Two_Tool@@MAEAAVCSymbolDraw_OnePoint_Size@@XZ
CONST	ENDS
;	COMDAT ??_7CNumber_One_Tool@@6B@
CONST	SEGMENT
??_7CNumber_One_Tool@@6B@ DD FLAT:??_R4CNumber_One_Tool@@6B@ ; CNumber_One_Tool::`vftable'
	DD	FLAT:?Initial@CSymbolTool_OnePoint_Size@@UAEXXZ
	DD	FLAT:?OnLButtonDown@CNumber_One_Tool@@UAEPAVCDrawingSymbol@@PAVCDC@@ABVCPoint@@@Z
	DD	FLAT:?OnLButtonUp@CNumber_One_Tool@@UAEXPAVCDC@@ABVCPoint@@@Z
	DD	FLAT:?OnMouseMove@CSymbolTool_OnePoint_Size@@UAE_NPAVCDC@@ABIABVCPoint@@@Z
	DD	FLAT:?IsPointInBlock@CSymbolTool@@UAE_NABVCRect@@ABVCPoint@@@Z
	DD	FLAT:?OnDraw@CSymbolTool_OnePoint_Size@@UAEXPAVCDC@@@Z
	DD	FLAT:?SavePointAndDraw@CSymbolTool_OnePoint_Size@@MAEXPAVCDC@@ABVCPoint@@H@Z
	DD	FLAT:?AddElement@CSymbolTool_OnePoint_Size@@MAEXW4TOOLTYPE@CSymbolBaseData@@ABVCPoint@@@Z
	DD	FLAT:?GetOnePointDrawer@CNumber_One_Tool@@MAEAAVCSymbolDraw_OnePoint_Size@@XZ
CONST	ENDS
;	COMDAT ??_7CArrow_RightBottom_Tool@@6B@
CONST	SEGMENT
??_7CArrow_RightBottom_Tool@@6B@ DD FLAT:??_R4CArrow_RightBottom_Tool@@6B@ ; CArrow_RightBottom_Tool::`vftable'
	DD	FLAT:?Initial@CSymbolTool_OnePoint_Size@@UAEXXZ
	DD	FLAT:?OnLButtonDown@CArrow_RightBottom_Tool@@UAEPAVCDrawingSymbol@@PAVCDC@@ABVCPoint@@@Z
	DD	FLAT:?OnLButtonUp@CArrow_RightBottom_Tool@@UAEXPAVCDC@@ABVCPoint@@@Z
	DD	FLAT:?OnMouseMove@CSymbolTool_OnePoint_Size@@UAE_NPAVCDC@@ABIABVCPoint@@@Z
	DD	FLAT:?IsPointInBlock@CSymbolTool@@UAE_NABVCRect@@ABVCPoint@@@Z
	DD	FLAT:?OnDraw@CSymbolTool_OnePoint_Size@@UAEXPAVCDC@@@Z
	DD	FLAT:?SavePointAndDraw@CSymbolTool_OnePoint_Size@@MAEXPAVCDC@@ABVCPoint@@H@Z
	DD	FLAT:?AddElement@CSymbolTool_OnePoint_Size@@MAEXW4TOOLTYPE@CSymbolBaseData@@ABVCPoint@@@Z
	DD	FLAT:?GetOnePointDrawer@CArrow_RightBottom_Tool@@MAEAAVCSymbolDraw_OnePoint_Size@@XZ
CONST	ENDS
;	COMDAT ??_7CArrow_RightTop_Tool@@6B@
CONST	SEGMENT
??_7CArrow_RightTop_Tool@@6B@ DD FLAT:??_R4CArrow_RightTop_Tool@@6B@ ; CArrow_RightTop_Tool::`vftable'
	DD	FLAT:?Initial@CSymbolTool_OnePoint_Size@@UAEXXZ
	DD	FLAT:?OnLButtonDown@CArrow_RightTop_Tool@@UAEPAVCDrawingSymbol@@PAVCDC@@ABVCPoint@@@Z
	DD	FLAT:?OnLButtonUp@CArrow_RightTop_Tool@@UAEXPAVCDC@@ABVCPoint@@@Z
	DD	FLAT:?OnMouseMove@CSymbolTool_OnePoint_Size@@UAE_NPAVCDC@@ABIABVCPoint@@@Z
	DD	FLAT:?IsPointInBlock@CSymbolTool@@UAE_NABVCRect@@ABVCPoint@@@Z
	DD	FLAT:?OnDraw@CSymbolTool_OnePoint_Size@@UAEXPAVCDC@@@Z
	DD	FLAT:?SavePointAndDraw@CSymbolTool_OnePoint_Size@@MAEXPAVCDC@@ABVCPoint@@H@Z
	DD	FLAT:?AddElement@CSymbolTool_OnePoint_Size@@MAEXW4TOOLTYPE@CSymbolBaseData@@ABVCPoint@@@Z
	DD	FLAT:?GetOnePointDrawer@CArrow_RightTop_Tool@@MAEAAVCSymbolDraw_OnePoint_Size@@XZ
CONST	ENDS
;	COMDAT ??_7CArrow_LeftBottom_Tool@@6B@
CONST	SEGMENT
??_7CArrow_LeftBottom_Tool@@6B@ DD FLAT:??_R4CArrow_LeftBottom_Tool@@6B@ ; CArrow_LeftBottom_Tool::`vftable'
	DD	FLAT:?Initial@CSymbolTool_OnePoint_Size@@UAEXXZ
	DD	FLAT:?OnLButtonDown@CArrow_LeftBottom_Tool@@UAEPAVCDrawingSymbol@@PAVCDC@@ABVCPoint@@@Z
	DD	FLAT:?OnLButtonUp@CArrow_LeftBottom_Tool@@UAEXPAVCDC@@ABVCPoint@@@Z
	DD	FLAT:?OnMouseMove@CSymbolTool_OnePoint_Size@@UAE_NPAVCDC@@ABIABVCPoint@@@Z
	DD	FLAT:?IsPointInBlock@CSymbolTool@@UAE_NABVCRect@@ABVCPoint@@@Z
	DD	FLAT:?OnDraw@CSymbolTool_OnePoint_Size@@UAEXPAVCDC@@@Z
	DD	FLAT:?SavePointAndDraw@CSymbolTool_OnePoint_Size@@MAEXPAVCDC@@ABVCPoint@@H@Z
	DD	FLAT:?AddElement@CSymbolTool_OnePoint_Size@@MAEXW4TOOLTYPE@CSymbolBaseData@@ABVCPoint@@@Z
	DD	FLAT:?GetOnePointDrawer@CArrow_LeftBottom_Tool@@MAEAAVCSymbolDraw_OnePoint_Size@@XZ
CONST	ENDS
;	COMDAT ??_7CArrow_LeftTop_Tool@@6B@
CONST	SEGMENT
??_7CArrow_LeftTop_Tool@@6B@ DD FLAT:??_R4CArrow_LeftTop_Tool@@6B@ ; CArrow_LeftTop_Tool::`vftable'
	DD	FLAT:?Initial@CSymbolTool_OnePoint_Size@@UAEXXZ
	DD	FLAT:?OnLButtonDown@CArrow_LeftTop_Tool@@UAEPAVCDrawingSymbol@@PAVCDC@@ABVCPoint@@@Z
	DD	FLAT:?OnLButtonUp@CArrow_LeftTop_Tool@@UAEXPAVCDC@@ABVCPoint@@@Z
	DD	FLAT:?OnMouseMove@CSymbolTool_OnePoint_Size@@UAE_NPAVCDC@@ABIABVCPoint@@@Z
	DD	FLAT:?IsPointInBlock@CSymbolTool@@UAE_NABVCRect@@ABVCPoint@@@Z
	DD	FLAT:?OnDraw@CSymbolTool_OnePoint_Size@@UAEXPAVCDC@@@Z
	DD	FLAT:?SavePointAndDraw@CSymbolTool_OnePoint_Size@@MAEXPAVCDC@@ABVCPoint@@H@Z
	DD	FLAT:?AddElement@CSymbolTool_OnePoint_Size@@MAEXW4TOOLTYPE@CSymbolBaseData@@ABVCPoint@@@Z
	DD	FLAT:?GetOnePointDrawer@CArrow_LeftTop_Tool@@MAEAAVCSymbolDraw_OnePoint_Size@@XZ
CONST	ENDS
;	COMDAT ??_7CArrow_Down_Tool@@6B@
CONST	SEGMENT
??_7CArrow_Down_Tool@@6B@ DD FLAT:??_R4CArrow_Down_Tool@@6B@ ; CArrow_Down_Tool::`vftable'
	DD	FLAT:?Initial@CSymbolTool_OnePoint_Size@@UAEXXZ
	DD	FLAT:?OnLButtonDown@CArrow_Down_Tool@@UAEPAVCDrawingSymbol@@PAVCDC@@ABVCPoint@@@Z
	DD	FLAT:?OnLButtonUp@CArrow_Down_Tool@@UAEXPAVCDC@@ABVCPoint@@@Z
	DD	FLAT:?OnMouseMove@CSymbolTool_OnePoint_Size@@UAE_NPAVCDC@@ABIABVCPoint@@@Z
	DD	FLAT:?IsPointInBlock@CSymbolTool@@UAE_NABVCRect@@ABVCPoint@@@Z
	DD	FLAT:?OnDraw@CSymbolTool_OnePoint_Size@@UAEXPAVCDC@@@Z
	DD	FLAT:?SavePointAndDraw@CSymbolTool_OnePoint_Size@@MAEXPAVCDC@@ABVCPoint@@H@Z
	DD	FLAT:?AddElement@CSymbolTool_OnePoint_Size@@MAEXW4TOOLTYPE@CSymbolBaseData@@ABVCPoint@@@Z
	DD	FLAT:?GetOnePointDrawer@CArrow_Down_Tool@@MAEAAVCSymbolDraw_OnePoint_Size@@XZ
CONST	ENDS
;	COMDAT ??_7CArrow_Up_Tool@@6B@
CONST	SEGMENT
??_7CArrow_Up_Tool@@6B@ DD FLAT:??_R4CArrow_Up_Tool@@6B@ ; CArrow_Up_Tool::`vftable'
	DD	FLAT:?Initial@CSymbolTool_OnePoint_Size@@UAEXXZ
	DD	FLAT:?OnLButtonDown@CArrow_Up_Tool@@UAEPAVCDrawingSymbol@@PAVCDC@@ABVCPoint@@@Z
	DD	FLAT:?OnLButtonUp@CArrow_Up_Tool@@UAEXPAVCDC@@ABVCPoint@@@Z
	DD	FLAT:?OnMouseMove@CSymbolTool_OnePoint_Size@@UAE_NPAVCDC@@ABIABVCPoint@@@Z
	DD	FLAT:?IsPointInBlock@CSymbolTool@@UAE_NABVCRect@@ABVCPoint@@@Z
	DD	FLAT:?OnDraw@CSymbolTool_OnePoint_Size@@UAEXPAVCDC@@@Z
	DD	FLAT:?SavePointAndDraw@CSymbolTool_OnePoint_Size@@MAEXPAVCDC@@ABVCPoint@@H@Z
	DD	FLAT:?AddElement@CSymbolTool_OnePoint_Size@@MAEXW4TOOLTYPE@CSymbolBaseData@@ABVCPoint@@@Z
	DD	FLAT:?GetOnePointDrawer@CArrow_Up_Tool@@MAEAAVCSymbolDraw_OnePoint_Size@@XZ
CONST	ENDS
;	COMDAT ??_7CArrow_Right_Tool@@6B@
CONST	SEGMENT
??_7CArrow_Right_Tool@@6B@ DD FLAT:??_R4CArrow_Right_Tool@@6B@ ; CArrow_Right_Tool::`vftable'
	DD	FLAT:?Initial@CSymbolTool_OnePoint_Size@@UAEXXZ
	DD	FLAT:?OnLButtonDown@CArrow_Right_Tool@@UAEPAVCDrawingSymbol@@PAVCDC@@ABVCPoint@@@Z
	DD	FLAT:?OnLButtonUp@CArrow_Right_Tool@@UAEXPAVCDC@@ABVCPoint@@@Z
	DD	FLAT:?OnMouseMove@CSymbolTool_OnePoint_Size@@UAE_NPAVCDC@@ABIABVCPoint@@@Z
	DD	FLAT:?IsPointInBlock@CSymbolTool@@UAE_NABVCRect@@ABVCPoint@@@Z
	DD	FLAT:?OnDraw@CSymbolTool_OnePoint_Size@@UAEXPAVCDC@@@Z
	DD	FLAT:?SavePointAndDraw@CSymbolTool_OnePoint_Size@@MAEXPAVCDC@@ABVCPoint@@H@Z
	DD	FLAT:?AddElement@CSymbolTool_OnePoint_Size@@MAEXW4TOOLTYPE@CSymbolBaseData@@ABVCPoint@@@Z
	DD	FLAT:?GetOnePointDrawer@CArrow_Right_Tool@@MAEAAVCSymbolDraw_OnePoint_Size@@XZ
CONST	ENDS
;	COMDAT ??_7CArrow_Left_Tool@@6B@
CONST	SEGMENT
??_7CArrow_Left_Tool@@6B@ DD FLAT:??_R4CArrow_Left_Tool@@6B@ ; CArrow_Left_Tool::`vftable'
	DD	FLAT:?Initial@CSymbolTool_OnePoint_Size@@UAEXXZ
	DD	FLAT:?OnLButtonDown@CArrow_Left_Tool@@UAEPAVCDrawingSymbol@@PAVCDC@@ABVCPoint@@@Z
	DD	FLAT:?OnLButtonUp@CArrow_Left_Tool@@UAEXPAVCDC@@ABVCPoint@@@Z
	DD	FLAT:?OnMouseMove@CSymbolTool_OnePoint_Size@@UAE_NPAVCDC@@ABIABVCPoint@@@Z
	DD	FLAT:?IsPointInBlock@CSymbolTool@@UAE_NABVCRect@@ABVCPoint@@@Z
	DD	FLAT:?OnDraw@CSymbolTool_OnePoint_Size@@UAEXPAVCDC@@@Z
	DD	FLAT:?SavePointAndDraw@CSymbolTool_OnePoint_Size@@MAEXPAVCDC@@ABVCPoint@@H@Z
	DD	FLAT:?AddElement@CSymbolTool_OnePoint_Size@@MAEXW4TOOLTYPE@CSymbolBaseData@@ABVCPoint@@@Z
	DD	FLAT:?GetOnePointDrawer@CArrow_Left_Tool@@MAEAAVCSymbolDraw_OnePoint_Size@@XZ
CONST	ENDS
;	COMDAT ??_7CTextTool@@6B@
CONST	SEGMENT
??_7CTextTool@@6B@ DD FLAT:??_R4CTextTool@@6B@		; CTextTool::`vftable'
	DD	FLAT:?Initial@CSymbolTool_OnePoint_Size@@UAEXXZ
	DD	FLAT:?OnLButtonDown@CTextTool@@UAEPAVCDrawingSymbol@@PAVCDC@@ABVCPoint@@@Z
	DD	FLAT:?OnLButtonUp@CTextTool@@UAEXPAVCDC@@ABVCPoint@@@Z
	DD	FLAT:?OnMouseMove@CSymbolTool_OnePoint_Size@@UAE_NPAVCDC@@ABIABVCPoint@@@Z
	DD	FLAT:?IsPointInBlock@CTextTool@@UAE_NABVCRect@@ABVCPoint@@@Z
	DD	FLAT:?OnDraw@CSymbolTool_OnePoint_Size@@UAEXPAVCDC@@@Z
	DD	FLAT:?SavePointAndDraw@CSymbolTool_OnePoint_Size@@MAEXPAVCDC@@ABVCPoint@@H@Z
	DD	FLAT:?AddElement@CSymbolTool_OnePoint_Size@@MAEXW4TOOLTYPE@CSymbolBaseData@@ABVCPoint@@@Z
	DD	FLAT:?GetOnePointDrawer@CTextTool@@MAEAAVCSymbolDraw_OnePoint_Size@@XZ
CONST	ENDS
;	COMDAT ??_7CFigure_Triangle_Tool@@6B@
CONST	SEGMENT
??_7CFigure_Triangle_Tool@@6B@ DD FLAT:??_R4CFigure_Triangle_Tool@@6B@ ; CFigure_Triangle_Tool::`vftable'
	DD	FLAT:?Initial@CSymbolTool_TwoPoint@@UAEXXZ
	DD	FLAT:?OnLButtonDown@CFigure_Triangle_Tool@@UAEPAVCDrawingSymbol@@PAVCDC@@ABVCPoint@@@Z
	DD	FLAT:?OnLButtonUp@CFigure_Triangle_Tool@@UAEXPAVCDC@@ABVCPoint@@@Z
	DD	FLAT:?OnMouseMove@CFigure_Triangle_Tool@@UAE_NPAVCDC@@ABIABVCPoint@@@Z
	DD	FLAT:?IsPointInBlock@CSymbolTool@@UAE_NABVCRect@@ABVCPoint@@@Z
	DD	FLAT:?OnDraw@CSymbolTool_TwoPoint@@UAEXPAVCDC@@@Z
	DD	FLAT:?SavePointAndDraw@CSymbolTool_TwoPoint@@MAEXPAVCDC@@ABVCPoint@@H@Z
	DD	FLAT:?AddElement@CSymbolTool_TwoPoint@@MAEXW4TOOLTYPE@CSymbolBaseData@@ABVCPoint@@@Z
	DD	FLAT:?GetTwoPointDrawer@CFigure_Triangle_Tool@@MAEAAVCSymbolDraw_TwoPoint@@XZ
CONST	ENDS
;	COMDAT ??_7CFigure_Circle_Tool@@6B@
CONST	SEGMENT
??_7CFigure_Circle_Tool@@6B@ DD FLAT:??_R4CFigure_Circle_Tool@@6B@ ; CFigure_Circle_Tool::`vftable'
	DD	FLAT:?Initial@CSymbolTool_TwoPoint@@UAEXXZ
	DD	FLAT:?OnLButtonDown@CFigure_Circle_Tool@@UAEPAVCDrawingSymbol@@PAVCDC@@ABVCPoint@@@Z
	DD	FLAT:?OnLButtonUp@CFigure_Circle_Tool@@UAEXPAVCDC@@ABVCPoint@@@Z
	DD	FLAT:?OnMouseMove@CFigure_Circle_Tool@@UAE_NPAVCDC@@ABIABVCPoint@@@Z
	DD	FLAT:?IsPointInBlock@CSymbolTool@@UAE_NABVCRect@@ABVCPoint@@@Z
	DD	FLAT:?OnDraw@CSymbolTool_TwoPoint@@UAEXPAVCDC@@@Z
	DD	FLAT:?SavePointAndDraw@CSymbolTool_TwoPoint@@MAEXPAVCDC@@ABVCPoint@@H@Z
	DD	FLAT:?AddElement@CSymbolTool_TwoPoint@@MAEXW4TOOLTYPE@CSymbolBaseData@@ABVCPoint@@@Z
	DD	FLAT:?GetTwoPointDrawer@CFigure_Circle_Tool@@MAEAAVCSymbolDraw_TwoPoint@@XZ
CONST	ENDS
;	COMDAT ??_7CFigure_Square_Tool@@6B@
CONST	SEGMENT
??_7CFigure_Square_Tool@@6B@ DD FLAT:??_R4CFigure_Square_Tool@@6B@ ; CFigure_Square_Tool::`vftable'
	DD	FLAT:?Initial@CSymbolTool_TwoPoint@@UAEXXZ
	DD	FLAT:?OnLButtonDown@CFigure_Square_Tool@@UAEPAVCDrawingSymbol@@PAVCDC@@ABVCPoint@@@Z
	DD	FLAT:?OnLButtonUp@CFigure_Square_Tool@@UAEXPAVCDC@@ABVCPoint@@@Z
	DD	FLAT:?OnMouseMove@CFigure_Square_Tool@@UAE_NPAVCDC@@ABIABVCPoint@@@Z
	DD	FLAT:?IsPointInBlock@CSymbolTool@@UAE_NABVCRect@@ABVCPoint@@@Z
	DD	FLAT:?OnDraw@CSymbolTool_TwoPoint@@UAEXPAVCDC@@@Z
	DD	FLAT:?SavePointAndDraw@CSymbolTool_TwoPoint@@MAEXPAVCDC@@ABVCPoint@@H@Z
	DD	FLAT:?AddElement@CSymbolTool_TwoPoint@@MAEXW4TOOLTYPE@CSymbolBaseData@@ABVCPoint@@@Z
	DD	FLAT:?GetTwoPointDrawer@CFigure_Square_Tool@@MAEAAVCSymbolDraw_TwoPoint@@XZ
CONST	ENDS
;	COMDAT ??_7CSymbolTool_TwoPoint@@6B@
CONST	SEGMENT
??_7CSymbolTool_TwoPoint@@6B@ DD FLAT:??_R4CSymbolTool_TwoPoint@@6B@ ; CSymbolTool_TwoPoint::`vftable'
	DD	FLAT:?Initial@CSymbolTool_TwoPoint@@UAEXXZ
	DD	FLAT:?OnLButtonDown@CSymbolTool_TwoPoint@@UAEPAVCDrawingSymbol@@PAVCDC@@ABVCPoint@@@Z
	DD	FLAT:__purecall
	DD	FLAT:?OnMouseMove@CSymbolTool_TwoPoint@@UAE_NPAVCDC@@ABIABVCPoint@@@Z
	DD	FLAT:?IsPointInBlock@CSymbolTool@@UAE_NABVCRect@@ABVCPoint@@@Z
	DD	FLAT:?OnDraw@CSymbolTool_TwoPoint@@UAEXPAVCDC@@@Z
	DD	FLAT:?SavePointAndDraw@CSymbolTool_TwoPoint@@MAEXPAVCDC@@ABVCPoint@@H@Z
	DD	FLAT:?AddElement@CSymbolTool_TwoPoint@@MAEXW4TOOLTYPE@CSymbolBaseData@@ABVCPoint@@@Z
	DD	FLAT:__purecall
CONST	ENDS
;	COMDAT ??_7CSymbolTool_OnePoint_Size@@6B@
CONST	SEGMENT
??_7CSymbolTool_OnePoint_Size@@6B@ DD FLAT:??_R4CSymbolTool_OnePoint_Size@@6B@ ; CSymbolTool_OnePoint_Size::`vftable'
	DD	FLAT:?Initial@CSymbolTool_OnePoint_Size@@UAEXXZ
	DD	FLAT:?OnLButtonDown@CSymbolTool_OnePoint_Size@@UAEPAVCDrawingSymbol@@PAVCDC@@ABVCPoint@@@Z
	DD	FLAT:__purecall
	DD	FLAT:?OnMouseMove@CSymbolTool_OnePoint_Size@@UAE_NPAVCDC@@ABIABVCPoint@@@Z
	DD	FLAT:?IsPointInBlock@CSymbolTool@@UAE_NABVCRect@@ABVCPoint@@@Z
	DD	FLAT:?OnDraw@CSymbolTool_OnePoint_Size@@UAEXPAVCDC@@@Z
	DD	FLAT:?SavePointAndDraw@CSymbolTool_OnePoint_Size@@MAEXPAVCDC@@ABVCPoint@@H@Z
	DD	FLAT:?AddElement@CSymbolTool_OnePoint_Size@@MAEXW4TOOLTYPE@CSymbolBaseData@@ABVCPoint@@@Z
	DD	FLAT:__purecall
CONST	ENDS
;	COMDAT ??_7CChar_6_Draw@@6B@
CONST	SEGMENT
??_7CChar_6_Draw@@6B@ DD FLAT:??_R4CChar_6_Draw@@6B@	; CChar_6_Draw::`vftable'
	DD	FLAT:?Draw@CChar_6_Draw@@UAE?AVCSize@@PAVCDC@@ABKABUtagLOGFONTA@@1ABW4SIZETYPE@CSymbolBaseData@@ABVCPoint@@ABVCRect@@@Z
CONST	ENDS
;	COMDAT ??_7CChar_5_Draw@@6B@
CONST	SEGMENT
??_7CChar_5_Draw@@6B@ DD FLAT:??_R4CChar_5_Draw@@6B@	; CChar_5_Draw::`vftable'
	DD	FLAT:?Draw@CChar_5_Draw@@UAE?AVCSize@@PAVCDC@@ABKABUtagLOGFONTA@@1ABW4SIZETYPE@CSymbolBaseData@@ABVCPoint@@ABVCRect@@@Z
CONST	ENDS
;	COMDAT ??_7CChar_4_Draw@@6B@
CONST	SEGMENT
??_7CChar_4_Draw@@6B@ DD FLAT:??_R4CChar_4_Draw@@6B@	; CChar_4_Draw::`vftable'
	DD	FLAT:?Draw@CChar_4_Draw@@UAE?AVCSize@@PAVCDC@@ABKABUtagLOGFONTA@@1ABW4SIZETYPE@CSymbolBaseData@@ABVCPoint@@ABVCRect@@@Z
CONST	ENDS
;	COMDAT ??_7CChar_3_Draw@@6B@
CONST	SEGMENT
??_7CChar_3_Draw@@6B@ DD FLAT:??_R4CChar_3_Draw@@6B@	; CChar_3_Draw::`vftable'
	DD	FLAT:?Draw@CChar_3_Draw@@UAE?AVCSize@@PAVCDC@@ABKABUtagLOGFONTA@@1ABW4SIZETYPE@CSymbolBaseData@@ABVCPoint@@ABVCRect@@@Z
CONST	ENDS
;	COMDAT ??_7CChar_2_Draw@@6B@
CONST	SEGMENT
??_7CChar_2_Draw@@6B@ DD FLAT:??_R4CChar_2_Draw@@6B@	; CChar_2_Draw::`vftable'
	DD	FLAT:?Draw@CChar_2_Draw@@UAE?AVCSize@@PAVCDC@@ABKABUtagLOGFONTA@@1ABW4SIZETYPE@CSymbolBaseData@@ABVCPoint@@ABVCRect@@@Z
CONST	ENDS
;	COMDAT ??_7CChar_1_Draw@@6B@
CONST	SEGMENT
??_7CChar_1_Draw@@6B@ DD FLAT:??_R4CChar_1_Draw@@6B@	; CChar_1_Draw::`vftable'
	DD	FLAT:?Draw@CChar_1_Draw@@UAE?AVCSize@@PAVCDC@@ABKABUtagLOGFONTA@@1ABW4SIZETYPE@CSymbolBaseData@@ABVCPoint@@ABVCRect@@@Z
CONST	ENDS
;	COMDAT ??_7CText_H_Draw@@6B@
CONST	SEGMENT
??_7CText_H_Draw@@6B@ DD FLAT:??_R4CText_H_Draw@@6B@	; CText_H_Draw::`vftable'
	DD	FLAT:?Draw@CText_H_Draw@@UAE?AVCSize@@PAVCDC@@ABKABUtagLOGFONTA@@1ABW4SIZETYPE@CSymbolBaseData@@ABVCPoint@@ABVCRect@@@Z
CONST	ENDS
;	COMDAT ??_7CText_G_Draw@@6B@
CONST	SEGMENT
??_7CText_G_Draw@@6B@ DD FLAT:??_R4CText_G_Draw@@6B@	; CText_G_Draw::`vftable'
	DD	FLAT:?Draw@CText_G_Draw@@UAE?AVCSize@@PAVCDC@@ABKABUtagLOGFONTA@@1ABW4SIZETYPE@CSymbolBaseData@@ABVCPoint@@ABVCRect@@@Z
CONST	ENDS
;	COMDAT ??_7CText_F_Draw@@6B@
CONST	SEGMENT
??_7CText_F_Draw@@6B@ DD FLAT:??_R4CText_F_Draw@@6B@	; CText_F_Draw::`vftable'
	DD	FLAT:?Draw@CText_F_Draw@@UAE?AVCSize@@PAVCDC@@ABKABUtagLOGFONTA@@1ABW4SIZETYPE@CSymbolBaseData@@ABVCPoint@@ABVCRect@@@Z
CONST	ENDS
;	COMDAT ??_7CText_E_Draw@@6B@
CONST	SEGMENT
??_7CText_E_Draw@@6B@ DD FLAT:??_R4CText_E_Draw@@6B@	; CText_E_Draw::`vftable'
	DD	FLAT:?Draw@CText_E_Draw@@UAE?AVCSize@@PAVCDC@@ABKABUtagLOGFONTA@@1ABW4SIZETYPE@CSymbolBaseData@@ABVCPoint@@ABVCRect@@@Z
CONST	ENDS
;	COMDAT ??_7CText_D_Draw@@6B@
CONST	SEGMENT
??_7CText_D_Draw@@6B@ DD FLAT:??_R4CText_D_Draw@@6B@	; CText_D_Draw::`vftable'
	DD	FLAT:?Draw@CText_D_Draw@@UAE?AVCSize@@PAVCDC@@ABKABUtagLOGFONTA@@1ABW4SIZETYPE@CSymbolBaseData@@ABVCPoint@@ABVCRect@@@Z
CONST	ENDS
;	COMDAT ??_7CText_C_Draw@@6B@
CONST	SEGMENT
??_7CText_C_Draw@@6B@ DD FLAT:??_R4CText_C_Draw@@6B@	; CText_C_Draw::`vftable'
	DD	FLAT:?Draw@CText_C_Draw@@UAE?AVCSize@@PAVCDC@@ABKABUtagLOGFONTA@@1ABW4SIZETYPE@CSymbolBaseData@@ABVCPoint@@ABVCRect@@@Z
CONST	ENDS
;	COMDAT ??_7CText_B_Draw@@6B@
CONST	SEGMENT
??_7CText_B_Draw@@6B@ DD FLAT:??_R4CText_B_Draw@@6B@	; CText_B_Draw::`vftable'
	DD	FLAT:?Draw@CText_B_Draw@@UAE?AVCSize@@PAVCDC@@ABKABUtagLOGFONTA@@1ABW4SIZETYPE@CSymbolBaseData@@ABVCPoint@@ABVCRect@@@Z
CONST	ENDS
;	COMDAT ??_7CText_A_Draw@@6B@
CONST	SEGMENT
??_7CText_A_Draw@@6B@ DD FLAT:??_R4CText_A_Draw@@6B@	; CText_A_Draw::`vftable'
	DD	FLAT:?Draw@CText_A_Draw@@UAE?AVCSize@@PAVCDC@@ABKABUtagLOGFONTA@@1ABW4SIZETYPE@CSymbolBaseData@@ABVCPoint@@ABVCRect@@@Z
CONST	ENDS
;	COMDAT ??_7CNumber_Nine_Draw@@6B@
CONST	SEGMENT
??_7CNumber_Nine_Draw@@6B@ DD FLAT:??_R4CNumber_Nine_Draw@@6B@ ; CNumber_Nine_Draw::`vftable'
	DD	FLAT:?Draw@CNumber_Nine_Draw@@UAE?AVCSize@@PAVCDC@@ABKABUtagLOGFONTA@@1ABW4SIZETYPE@CSymbolBaseData@@ABVCPoint@@ABVCRect@@@Z
CONST	ENDS
;	COMDAT ??_7CNumber_Eight_Draw@@6B@
CONST	SEGMENT
??_7CNumber_Eight_Draw@@6B@ DD FLAT:??_R4CNumber_Eight_Draw@@6B@ ; CNumber_Eight_Draw::`vftable'
	DD	FLAT:?Draw@CNumber_Eight_Draw@@UAE?AVCSize@@PAVCDC@@ABKABUtagLOGFONTA@@1ABW4SIZETYPE@CSymbolBaseData@@ABVCPoint@@ABVCRect@@@Z
CONST	ENDS
;	COMDAT ??_7CNumber_Seven_Draw@@6B@
CONST	SEGMENT
??_7CNumber_Seven_Draw@@6B@ DD FLAT:??_R4CNumber_Seven_Draw@@6B@ ; CNumber_Seven_Draw::`vftable'
	DD	FLAT:?Draw@CNumber_Seven_Draw@@UAE?AVCSize@@PAVCDC@@ABKABUtagLOGFONTA@@1ABW4SIZETYPE@CSymbolBaseData@@ABVCPoint@@ABVCRect@@@Z
CONST	ENDS
;	COMDAT ??_7CNumber_Six_Draw@@6B@
CONST	SEGMENT
??_7CNumber_Six_Draw@@6B@ DD FLAT:??_R4CNumber_Six_Draw@@6B@ ; CNumber_Six_Draw::`vftable'
	DD	FLAT:?Draw@CNumber_Six_Draw@@UAE?AVCSize@@PAVCDC@@ABKABUtagLOGFONTA@@1ABW4SIZETYPE@CSymbolBaseData@@ABVCPoint@@ABVCRect@@@Z
CONST	ENDS
;	COMDAT ??_7CNumber_Five_Draw@@6B@
CONST	SEGMENT
??_7CNumber_Five_Draw@@6B@ DD FLAT:??_R4CNumber_Five_Draw@@6B@ ; CNumber_Five_Draw::`vftable'
	DD	FLAT:?Draw@CNumber_Five_Draw@@UAE?AVCSize@@PAVCDC@@ABKABUtagLOGFONTA@@1ABW4SIZETYPE@CSymbolBaseData@@ABVCPoint@@ABVCRect@@@Z
CONST	ENDS
;	COMDAT ??_7CNumber_Four_Draw@@6B@
CONST	SEGMENT
??_7CNumber_Four_Draw@@6B@ DD FLAT:??_R4CNumber_Four_Draw@@6B@ ; CNumber_Four_Draw::`vftable'
	DD	FLAT:?Draw@CNumber_Four_Draw@@UAE?AVCSize@@PAVCDC@@ABKABUtagLOGFONTA@@1ABW4SIZETYPE@CSymbolBaseData@@ABVCPoint@@ABVCRect@@@Z
CONST	ENDS
;	COMDAT ??_7CNumber_Three_Draw@@6B@
CONST	SEGMENT
??_7CNumber_Three_Draw@@6B@ DD FLAT:??_R4CNumber_Three_Draw@@6B@ ; CNumber_Three_Draw::`vftable'
	DD	FLAT:?Draw@CNumber_Three_Draw@@UAE?AVCSize@@PAVCDC@@ABKABUtagLOGFONTA@@1ABW4SIZETYPE@CSymbolBaseData@@ABVCPoint@@ABVCRect@@@Z
CONST	ENDS
;	COMDAT ??_7CNumber_Two_Draw@@6B@
CONST	SEGMENT
??_7CNumber_Two_Draw@@6B@ DD FLAT:??_R4CNumber_Two_Draw@@6B@ ; CNumber_Two_Draw::`vftable'
	DD	FLAT:?Draw@CNumber_Two_Draw@@UAE?AVCSize@@PAVCDC@@ABKABUtagLOGFONTA@@1ABW4SIZETYPE@CSymbolBaseData@@ABVCPoint@@ABVCRect@@@Z
CONST	ENDS
;	COMDAT ??_7CNumber_One_Draw@@6B@
CONST	SEGMENT
??_7CNumber_One_Draw@@6B@ DD FLAT:??_R4CNumber_One_Draw@@6B@ ; CNumber_One_Draw::`vftable'
	DD	FLAT:?Draw@CNumber_One_Draw@@UAE?AVCSize@@PAVCDC@@ABKABUtagLOGFONTA@@1ABW4SIZETYPE@CSymbolBaseData@@ABVCPoint@@ABVCRect@@@Z
CONST	ENDS
;	COMDAT ??_7CArrow_RightBottom_Draw@@6B@
CONST	SEGMENT
??_7CArrow_RightBottom_Draw@@6B@ DD FLAT:??_R4CArrow_RightBottom_Draw@@6B@ ; CArrow_RightBottom_Draw::`vftable'
	DD	FLAT:?Draw@CArrow_RightBottom_Draw@@UAE?AVCSize@@PAVCDC@@ABKABUtagLOGFONTA@@1ABW4SIZETYPE@CSymbolBaseData@@ABVCPoint@@ABVCRect@@@Z
CONST	ENDS
;	COMDAT ??_7CArrow_RightTop_Draw@@6B@
CONST	SEGMENT
??_7CArrow_RightTop_Draw@@6B@ DD FLAT:??_R4CArrow_RightTop_Draw@@6B@ ; CArrow_RightTop_Draw::`vftable'
	DD	FLAT:?Draw@CArrow_RightTop_Draw@@UAE?AVCSize@@PAVCDC@@ABKABUtagLOGFONTA@@1ABW4SIZETYPE@CSymbolBaseData@@ABVCPoint@@ABVCRect@@@Z
CONST	ENDS
;	COMDAT ??_7CArrow_LeftBottom_Draw@@6B@
CONST	SEGMENT
??_7CArrow_LeftBottom_Draw@@6B@ DD FLAT:??_R4CArrow_LeftBottom_Draw@@6B@ ; CArrow_LeftBottom_Draw::`vftable'
	DD	FLAT:?Draw@CArrow_LeftBottom_Draw@@UAE?AVCSize@@PAVCDC@@ABKABUtagLOGFONTA@@1ABW4SIZETYPE@CSymbolBaseData@@ABVCPoint@@ABVCRect@@@Z
CONST	ENDS
;	COMDAT ??_7CArrow_LeftTop_Draw@@6B@
CONST	SEGMENT
??_7CArrow_LeftTop_Draw@@6B@ DD FLAT:??_R4CArrow_LeftTop_Draw@@6B@ ; CArrow_LeftTop_Draw::`vftable'
	DD	FLAT:?Draw@CArrow_LeftTop_Draw@@UAE?AVCSize@@PAVCDC@@ABKABUtagLOGFONTA@@1ABW4SIZETYPE@CSymbolBaseData@@ABVCPoint@@ABVCRect@@@Z
CONST	ENDS
;	COMDAT ??_7CArrow_Down_Draw@@6B@
CONST	SEGMENT
??_7CArrow_Down_Draw@@6B@ DD FLAT:??_R4CArrow_Down_Draw@@6B@ ; CArrow_Down_Draw::`vftable'
	DD	FLAT:?Draw@CArrow_Down_Draw@@UAE?AVCSize@@PAVCDC@@ABKABUtagLOGFONTA@@1ABW4SIZETYPE@CSymbolBaseData@@ABVCPoint@@ABVCRect@@@Z
CONST	ENDS
;	COMDAT ??_7CArrow_Up_Draw@@6B@
CONST	SEGMENT
??_7CArrow_Up_Draw@@6B@ DD FLAT:??_R4CArrow_Up_Draw@@6B@ ; CArrow_Up_Draw::`vftable'
	DD	FLAT:?Draw@CArrow_Up_Draw@@UAE?AVCSize@@PAVCDC@@ABKABUtagLOGFONTA@@1ABW4SIZETYPE@CSymbolBaseData@@ABVCPoint@@ABVCRect@@@Z
CONST	ENDS
;	COMDAT ??_7CArrow_Right_Draw@@6B@
CONST	SEGMENT
??_7CArrow_Right_Draw@@6B@ DD FLAT:??_R4CArrow_Right_Draw@@6B@ ; CArrow_Right_Draw::`vftable'
	DD	FLAT:?Draw@CArrow_Right_Draw@@UAE?AVCSize@@PAVCDC@@ABKABUtagLOGFONTA@@1ABW4SIZETYPE@CSymbolBaseData@@ABVCPoint@@ABVCRect@@@Z
CONST	ENDS
;	COMDAT ??_7CArrow_Left_Draw@@6B@
CONST	SEGMENT
??_7CArrow_Left_Draw@@6B@ DD FLAT:??_R4CArrow_Left_Draw@@6B@ ; CArrow_Left_Draw::`vftable'
	DD	FLAT:?Draw@CArrow_Left_Draw@@UAE?AVCSize@@PAVCDC@@ABKABUtagLOGFONTA@@1ABW4SIZETYPE@CSymbolBaseData@@ABVCPoint@@ABVCRect@@@Z
CONST	ENDS
;	COMDAT ??_7CFigure_Triangle_Draw@@6B@
CONST	SEGMENT
??_7CFigure_Triangle_Draw@@6B@ DD FLAT:??_R4CFigure_Triangle_Draw@@6B@ ; CFigure_Triangle_Draw::`vftable'
	DD	FLAT:?Draw@CFigure_Triangle_Draw@@UAE?AVCRect@@PAVCDC@@ABKABH2ABUtagLOGFONTA@@_NABVCPoint@@5ABV2@4@Z
	DD	FLAT:?DrawRectangle@CFigure_Triangle_Draw@@UAEXPAVCDC@@ABVCPoint@@1ABVCRect@@@Z
CONST	ENDS
;	COMDAT ??_7CFigure_Circle_Draw@@6B@
CONST	SEGMENT
??_7CFigure_Circle_Draw@@6B@ DD FLAT:??_R4CFigure_Circle_Draw@@6B@ ; CFigure_Circle_Draw::`vftable'
	DD	FLAT:?Draw@CFigure_Circle_Draw@@UAE?AVCRect@@PAVCDC@@ABKABH2ABUtagLOGFONTA@@_NABVCPoint@@5ABV2@4@Z
	DD	FLAT:?DrawRectangle@CFigure_Circle_Draw@@UAEXPAVCDC@@ABVCPoint@@1ABVCRect@@@Z
CONST	ENDS
;	COMDAT ??_7CFigure_Square_Draw@@6B@
CONST	SEGMENT
??_7CFigure_Square_Draw@@6B@ DD FLAT:??_R4CFigure_Square_Draw@@6B@ ; CFigure_Square_Draw::`vftable'
	DD	FLAT:?Draw@CFigure_Square_Draw@@UAE?AVCRect@@PAVCDC@@ABKABH2ABUtagLOGFONTA@@_NABVCPoint@@5ABV2@4@Z
	DD	FLAT:?DrawRectangle@CFigure_Square_Draw@@UAEXPAVCDC@@ABVCPoint@@1ABVCRect@@@Z
CONST	ENDS
;	COMDAT ??_7CSymbolDraw_TwoPoint@@6B@
CONST	SEGMENT
??_7CSymbolDraw_TwoPoint@@6B@ DD FLAT:??_R4CSymbolDraw_TwoPoint@@6B@ ; CSymbolDraw_TwoPoint::`vftable'
	DD	FLAT:__purecall
	DD	FLAT:__purecall
CONST	ENDS
;	COMDAT ??_7CSymbolDraw_OnePoint_Size@@6B@
CONST	SEGMENT
??_7CSymbolDraw_OnePoint_Size@@6B@ DD FLAT:??_R4CSymbolDraw_OnePoint_Size@@6B@ ; CSymbolDraw_OnePoint_Size::`vftable'
	DD	FLAT:__purecall
CONST	ENDS
;	COMDAT xdata$x
xdata$x	SEGMENT
__ehfuncinfo$??0CSymbolSingleton@@QAE@XZ DD 019930522H
	DD	024H
	DD	FLAT:__unwindtable$??0CSymbolSingleton@@QAE@XZ
	DD	2 DUP(00H)
	DD	2 DUP(00H)
	DD	00H
	DD	01H
__unwindtable$??0CSymbolSingleton@@QAE@XZ DD 0ffffffffH
	DD	FLAT:__unwindfunclet$??0CSymbolSingleton@@QAE@XZ$0
	DD	0ffffffffH
	DD	FLAT:__unwindfunclet$??0CSymbolSingleton@@QAE@XZ$1
	DD	0ffffffffH
	DD	FLAT:__unwindfunclet$??0CSymbolSingleton@@QAE@XZ$2
	DD	0ffffffffH
	DD	FLAT:__unwindfunclet$??0CSymbolSingleton@@QAE@XZ$3
	DD	0ffffffffH
	DD	FLAT:__unwindfunclet$??0CSymbolSingleton@@QAE@XZ$4
	DD	0ffffffffH
	DD	FLAT:__unwindfunclet$??0CSymbolSingleton@@QAE@XZ$5
	DD	0ffffffffH
	DD	FLAT:__unwindfunclet$??0CSymbolSingleton@@QAE@XZ$6
	DD	0ffffffffH
	DD	FLAT:__unwindfunclet$??0CSymbolSingleton@@QAE@XZ$7
	DD	0ffffffffH
	DD	FLAT:__unwindfunclet$??0CSymbolSingleton@@QAE@XZ$8
	DD	0ffffffffH
	DD	FLAT:__unwindfunclet$??0CSymbolSingleton@@QAE@XZ$9
	DD	0ffffffffH
	DD	FLAT:__unwindfunclet$??0CSymbolSingleton@@QAE@XZ$10
	DD	0ffffffffH
	DD	FLAT:__unwindfunclet$??0CSymbolSingleton@@QAE@XZ$11
	DD	0ffffffffH
	DD	FLAT:__unwindfunclet$??0CSymbolSingleton@@QAE@XZ$12
	DD	0ffffffffH
	DD	FLAT:__unwindfunclet$??0CSymbolSingleton@@QAE@XZ$13
	DD	0ffffffffH
	DD	FLAT:__unwindfunclet$??0CSymbolSingleton@@QAE@XZ$14
	DD	0ffffffffH
	DD	FLAT:__unwindfunclet$??0CSymbolSingleton@@QAE@XZ$15
	DD	0ffffffffH
	DD	FLAT:__unwindfunclet$??0CSymbolSingleton@@QAE@XZ$16
	DD	0ffffffffH
	DD	FLAT:__unwindfunclet$??0CSymbolSingleton@@QAE@XZ$17
	DD	0ffffffffH
	DD	FLAT:__unwindfunclet$??0CSymbolSingleton@@QAE@XZ$18
	DD	0ffffffffH
	DD	FLAT:__unwindfunclet$??0CSymbolSingleton@@QAE@XZ$19
	DD	0ffffffffH
	DD	FLAT:__unwindfunclet$??0CSymbolSingleton@@QAE@XZ$20
	DD	0ffffffffH
	DD	FLAT:__unwindfunclet$??0CSymbolSingleton@@QAE@XZ$21
	DD	0ffffffffH
	DD	FLAT:__unwindfunclet$??0CSymbolSingleton@@QAE@XZ$22
	DD	0ffffffffH
	DD	FLAT:__unwindfunclet$??0CSymbolSingleton@@QAE@XZ$23
	DD	0ffffffffH
	DD	FLAT:__unwindfunclet$??0CSymbolSingleton@@QAE@XZ$24
	DD	0ffffffffH
	DD	FLAT:__unwindfunclet$??0CSymbolSingleton@@QAE@XZ$25
	DD	0ffffffffH
	DD	FLAT:__unwindfunclet$??0CSymbolSingleton@@QAE@XZ$26
	DD	0ffffffffH
	DD	FLAT:__unwindfunclet$??0CSymbolSingleton@@QAE@XZ$27
	DD	0ffffffffH
	DD	FLAT:__unwindfunclet$??0CSymbolSingleton@@QAE@XZ$28
	DD	0ffffffffH
	DD	FLAT:__unwindfunclet$??0CSymbolSingleton@@QAE@XZ$29
	DD	0ffffffffH
	DD	FLAT:__unwindfunclet$??0CSymbolSingleton@@QAE@XZ$30
	DD	0ffffffffH
	DD	FLAT:__unwindfunclet$??0CSymbolSingleton@@QAE@XZ$31
	DD	0ffffffffH
	DD	FLAT:__unwindfunclet$??0CSymbolSingleton@@QAE@XZ$32
	DD	0ffffffffH
	DD	FLAT:__unwindfunclet$??0CSymbolSingleton@@QAE@XZ$33
	DD	0ffffffffH
	DD	FLAT:__unwindfunclet$??0CSymbolSingleton@@QAE@XZ$34
	DD	0ffffffffH
	DD	FLAT:__unwindfunclet$??0CSymbolSingleton@@QAE@XZ$35
xdata$x	ENDS
; Function compile flags: /Ogtp
; File D:\git\src\IBK\IBK_DRFN\ProjSrc\SrcChartEx\ChartAddIn\ChartAnalysisToolAddIn\Symbol\SymbolSingleton.cpp
;	COMDAT ?SetOcxHwnd@CSymbolSingleton@@QAEXPAUHWND__@@@Z
_TEXT	SEGMENT
_p_hOcxWnd$ = 8						; size = 4
?SetOcxHwnd@CSymbolSingleton@@QAEXPAUHWND__@@@Z PROC	; CSymbolSingleton::SetOcxHwnd, COMDAT
; _this$ = ecx

; 240  : {

  00000	55		 push	 ebp
  00001	8b ec		 mov	 ebp, esp

; 241  : 	m_pSelectTool->SetOcxHwnd( p_hOcxWnd);

  00003	8b 01		 mov	 eax, DWORD PTR [ecx]
  00005	8b 55 08	 mov	 edx, DWORD PTR _p_hOcxWnd$[ebp]
  00008	89 50 0c	 mov	 DWORD PTR [eax+12], edx

; 242  : 	m_pFigureSquareTool->SetOcxHwnd( p_hOcxWnd);

  0000b	8b 41 04	 mov	 eax, DWORD PTR [ecx+4]
  0000e	89 50 0c	 mov	 DWORD PTR [eax+12], edx

; 243  : 	m_pFigureCircleTool->SetOcxHwnd( p_hOcxWnd);

  00011	8b 41 08	 mov	 eax, DWORD PTR [ecx+8]
  00014	89 50 0c	 mov	 DWORD PTR [eax+12], edx

; 244  : 	m_pFigureTriangleTool->SetOcxHwnd( p_hOcxWnd);

  00017	8b 41 0c	 mov	 eax, DWORD PTR [ecx+12]
  0001a	89 50 0c	 mov	 DWORD PTR [eax+12], edx

; 245  : 	m_pTextTool->SetOcxHwnd( p_hOcxWnd);

  0001d	8b 41 10	 mov	 eax, DWORD PTR [ecx+16]
  00020	89 50 0c	 mov	 DWORD PTR [eax+12], edx

; 246  : 	m_pArrowLeftTool->SetOcxHwnd( p_hOcxWnd);

  00023	8b 41 14	 mov	 eax, DWORD PTR [ecx+20]
  00026	89 50 0c	 mov	 DWORD PTR [eax+12], edx

; 247  : 	m_pArrowRightTool->SetOcxHwnd( p_hOcxWnd);

  00029	8b 41 18	 mov	 eax, DWORD PTR [ecx+24]
  0002c	89 50 0c	 mov	 DWORD PTR [eax+12], edx

; 248  : 	m_pArrowUpTool->SetOcxHwnd( p_hOcxWnd);

  0002f	8b 41 1c	 mov	 eax, DWORD PTR [ecx+28]
  00032	89 50 0c	 mov	 DWORD PTR [eax+12], edx

; 249  : 	m_pArrowDownTool->SetOcxHwnd( p_hOcxWnd);

  00035	8b 41 20	 mov	 eax, DWORD PTR [ecx+32]
  00038	89 50 0c	 mov	 DWORD PTR [eax+12], edx

; 250  : 	m_pArrowLeftTopTool->SetOcxHwnd( p_hOcxWnd);

  0003b	8b 41 24	 mov	 eax, DWORD PTR [ecx+36]
  0003e	89 50 0c	 mov	 DWORD PTR [eax+12], edx

; 251  : 	m_pArrowLeftBottomTool->SetOcxHwnd( p_hOcxWnd);

  00041	8b 41 28	 mov	 eax, DWORD PTR [ecx+40]
  00044	89 50 0c	 mov	 DWORD PTR [eax+12], edx

; 252  : 	m_pArrowRightTopTool->SetOcxHwnd( p_hOcxWnd);

  00047	8b 41 2c	 mov	 eax, DWORD PTR [ecx+44]
  0004a	89 50 0c	 mov	 DWORD PTR [eax+12], edx

; 253  : 	m_pArrowRightBottomTool->SetOcxHwnd( p_hOcxWnd);

  0004d	8b 41 30	 mov	 eax, DWORD PTR [ecx+48]
  00050	89 50 0c	 mov	 DWORD PTR [eax+12], edx

; 254  : 	m_pNumberOneTool->SetOcxHwnd( p_hOcxWnd);

  00053	8b 41 34	 mov	 eax, DWORD PTR [ecx+52]
  00056	89 50 0c	 mov	 DWORD PTR [eax+12], edx

; 255  : 	m_pNumberTwoTool->SetOcxHwnd( p_hOcxWnd);

  00059	8b 41 38	 mov	 eax, DWORD PTR [ecx+56]
  0005c	89 50 0c	 mov	 DWORD PTR [eax+12], edx

; 256  : 	m_pNumberThreeTool->SetOcxHwnd( p_hOcxWnd);

  0005f	8b 41 3c	 mov	 eax, DWORD PTR [ecx+60]
  00062	89 50 0c	 mov	 DWORD PTR [eax+12], edx

; 257  : 	m_pNumberFourTool->SetOcxHwnd( p_hOcxWnd);

  00065	8b 41 40	 mov	 eax, DWORD PTR [ecx+64]
  00068	89 50 0c	 mov	 DWORD PTR [eax+12], edx

; 258  : 	m_pNumberFiveTool->SetOcxHwnd( p_hOcxWnd);

  0006b	8b 41 44	 mov	 eax, DWORD PTR [ecx+68]
  0006e	89 50 0c	 mov	 DWORD PTR [eax+12], edx

; 259  : 	m_pNumberSixTool->SetOcxHwnd( p_hOcxWnd);

  00071	8b 41 48	 mov	 eax, DWORD PTR [ecx+72]
  00074	89 50 0c	 mov	 DWORD PTR [eax+12], edx

; 260  : 	m_pNumberSevenTool->SetOcxHwnd( p_hOcxWnd);

  00077	8b 41 4c	 mov	 eax, DWORD PTR [ecx+76]
  0007a	89 50 0c	 mov	 DWORD PTR [eax+12], edx

; 261  : 	m_pNumberEightTool->SetOcxHwnd( p_hOcxWnd);

  0007d	8b 41 50	 mov	 eax, DWORD PTR [ecx+80]
  00080	89 50 0c	 mov	 DWORD PTR [eax+12], edx

; 262  : 	m_pNumberNineTool->SetOcxHwnd( p_hOcxWnd);

  00083	8b 41 54	 mov	 eax, DWORD PTR [ecx+84]
  00086	89 50 0c	 mov	 DWORD PTR [eax+12], edx

; 263  : }

  00089	5d		 pop	 ebp
  0008a	c2 04 00	 ret	 4
?SetOcxHwnd@CSymbolSingleton@@QAEXPAUHWND__@@@Z ENDP	; CSymbolSingleton::SetOcxHwnd
_TEXT	ENDS
; Function compile flags: /Ogtp
; File D:\git\src\IBK\IBK_DRFN\ProjSrc\SrcChartEx\ChartAddIn\ChartAnalysisToolAddIn\Symbol\SymbolSingleton.cpp
;	COMDAT ?GetTool@CSymbolSingleton@@AAEPAVCSymbolTool@@PAVCSymbolData@@PAV2@@Z
_TEXT	SEGMENT
_pSymbolData$ = 8					; size = 4
_pTool$ = 12						; size = 4
?GetTool@CSymbolSingleton@@AAEPAVCSymbolTool@@PAVCSymbolData@@PAV2@@Z PROC ; CSymbolSingleton::GetTool, COMDAT
; _this$ = ecx

; 231  : {

  00000	55		 push	 ebp
  00001	8b ec		 mov	 ebp, esp
  00003	56		 push	 esi

; 232  : 	if(pTool != NULL)

  00004	8b 75 0c	 mov	 esi, DWORD PTR _pTool$[ebp]
  00007	85 f6		 test	 esi, esi
  00009	74 0a		 je	 SHORT $LN4@GetTool

; 233  : 		pTool->SetSymbolData(pSymbolData);

  0000b	ff 75 08	 push	 DWORD PTR _pSymbolData$[ebp]
  0000e	8b ce		 mov	 ecx, esi
  00010	e8 00 00 00 00	 call	 ?SetSymbolData@CSymbolTool@@QAEXPAVCSymbolData@@@Z ; CSymbolTool::SetSymbolData
$LN4@GetTool:

; 234  : 
; 235  : 	return pTool;
; 236  : }

  00015	8b c6		 mov	 eax, esi
  00017	5e		 pop	 esi
  00018	5d		 pop	 ebp
  00019	c2 08 00	 ret	 8
?GetTool@CSymbolSingleton@@AAEPAVCSymbolTool@@PAVCSymbolData@@PAV2@@Z ENDP ; CSymbolSingleton::GetTool
_TEXT	ENDS
; Function compile flags: /Ogtp
; File D:\git\src\IBK\IBK_DRFN\ProjSrc\SrcChartEx\ChartAddIn\ChartAnalysisToolAddIn\Symbol\SymbolSingleton.cpp
;	COMDAT ?InitialTool@CSymbolSingleton@@QAEXXZ
_TEXT	SEGMENT
?InitialTool@CSymbolSingleton@@QAEXXZ PROC		; CSymbolSingleton::InitialTool, COMDAT
; _this$ = ecx

; 189  : {

  00000	56		 push	 esi
  00001	8b f1		 mov	 esi, ecx

; 190  : 	m_pSelectTool->Initial();

  00003	8b 0e		 mov	 ecx, DWORD PTR [esi]
  00005	8b 01		 mov	 eax, DWORD PTR [ecx]
  00007	ff 10		 call	 DWORD PTR [eax]

; 191  : 	m_pArrowLeftTool->Initial();

  00009	8b 4e 14	 mov	 ecx, DWORD PTR [esi+20]
  0000c	8b 01		 mov	 eax, DWORD PTR [ecx]
  0000e	ff 10		 call	 DWORD PTR [eax]

; 192  : 	m_pArrowRightTool->Initial();

  00010	8b 4e 18	 mov	 ecx, DWORD PTR [esi+24]
  00013	8b 01		 mov	 eax, DWORD PTR [ecx]
  00015	ff 10		 call	 DWORD PTR [eax]

; 193  : 	m_pFigureSquareTool->Initial();

  00017	8b 4e 04	 mov	 ecx, DWORD PTR [esi+4]
  0001a	8b 01		 mov	 eax, DWORD PTR [ecx]
  0001c	ff 10		 call	 DWORD PTR [eax]

; 194  : 	m_pFigureCircleTool->Initial();

  0001e	8b 4e 08	 mov	 ecx, DWORD PTR [esi+8]
  00021	8b 01		 mov	 eax, DWORD PTR [ecx]
  00023	ff 10		 call	 DWORD PTR [eax]

; 195  : 	m_pFigureTriangleTool->Initial();

  00025	8b 4e 0c	 mov	 ecx, DWORD PTR [esi+12]
  00028	8b 01		 mov	 eax, DWORD PTR [ecx]
  0002a	ff 10		 call	 DWORD PTR [eax]

; 196  : 	m_pArrowUpTool->Initial();

  0002c	8b 4e 1c	 mov	 ecx, DWORD PTR [esi+28]
  0002f	8b 01		 mov	 eax, DWORD PTR [ecx]
  00031	ff 10		 call	 DWORD PTR [eax]

; 197  : 	m_pArrowDownTool->Initial();

  00033	8b 4e 20	 mov	 ecx, DWORD PTR [esi+32]
  00036	8b 01		 mov	 eax, DWORD PTR [ecx]
  00038	ff 10		 call	 DWORD PTR [eax]

; 198  : 	m_pArrowLeftTopTool->Initial();

  0003a	8b 4e 24	 mov	 ecx, DWORD PTR [esi+36]
  0003d	8b 01		 mov	 eax, DWORD PTR [ecx]
  0003f	ff 10		 call	 DWORD PTR [eax]

; 199  : 	m_pArrowLeftBottomTool->Initial();

  00041	8b 4e 28	 mov	 ecx, DWORD PTR [esi+40]
  00044	8b 01		 mov	 eax, DWORD PTR [ecx]
  00046	ff 10		 call	 DWORD PTR [eax]

; 200  : 	m_pArrowRightTopTool->Initial();

  00048	8b 4e 2c	 mov	 ecx, DWORD PTR [esi+44]
  0004b	8b 01		 mov	 eax, DWORD PTR [ecx]
  0004d	ff 10		 call	 DWORD PTR [eax]

; 201  : 	m_pArrowRightBottomTool->Initial();

  0004f	8b 4e 30	 mov	 ecx, DWORD PTR [esi+48]
  00052	8b 01		 mov	 eax, DWORD PTR [ecx]
  00054	ff 10		 call	 DWORD PTR [eax]

; 202  : 	m_pNumberOneTool->Initial();

  00056	8b 4e 34	 mov	 ecx, DWORD PTR [esi+52]
  00059	8b 01		 mov	 eax, DWORD PTR [ecx]
  0005b	ff 10		 call	 DWORD PTR [eax]

; 203  : 	m_pNumberTwoTool->Initial();

  0005d	8b 4e 38	 mov	 ecx, DWORD PTR [esi+56]
  00060	8b 01		 mov	 eax, DWORD PTR [ecx]
  00062	ff 10		 call	 DWORD PTR [eax]

; 204  : 	m_pNumberThreeTool->Initial();

  00064	8b 4e 3c	 mov	 ecx, DWORD PTR [esi+60]
  00067	8b 01		 mov	 eax, DWORD PTR [ecx]
  00069	ff 10		 call	 DWORD PTR [eax]

; 205  : 	m_pNumberFourTool->Initial();

  0006b	8b 4e 40	 mov	 ecx, DWORD PTR [esi+64]
  0006e	8b 01		 mov	 eax, DWORD PTR [ecx]
  00070	ff 10		 call	 DWORD PTR [eax]

; 206  : 	m_pNumberFiveTool->Initial();

  00072	8b 4e 44	 mov	 ecx, DWORD PTR [esi+68]
  00075	8b 01		 mov	 eax, DWORD PTR [ecx]
  00077	ff 10		 call	 DWORD PTR [eax]

; 207  : 	m_pNumberSixTool->Initial();

  00079	8b 4e 48	 mov	 ecx, DWORD PTR [esi+72]
  0007c	8b 01		 mov	 eax, DWORD PTR [ecx]
  0007e	ff 10		 call	 DWORD PTR [eax]

; 208  : 	m_pNumberSevenTool->Initial();

  00080	8b 4e 4c	 mov	 ecx, DWORD PTR [esi+76]
  00083	8b 01		 mov	 eax, DWORD PTR [ecx]
  00085	ff 10		 call	 DWORD PTR [eax]

; 209  : 	m_pNumberEightTool->Initial();

  00087	8b 4e 50	 mov	 ecx, DWORD PTR [esi+80]
  0008a	8b 01		 mov	 eax, DWORD PTR [ecx]
  0008c	ff 10		 call	 DWORD PTR [eax]

; 210  : 	m_pNumberNineTool->Initial();

  0008e	8b 4e 54	 mov	 ecx, DWORD PTR [esi+84]
  00091	8b 01		 mov	 eax, DWORD PTR [ecx]
  00093	ff 10		 call	 DWORD PTR [eax]

; 211  : 	//m_pNumberTenTool->Initial();
; 212  : 	m_pTextATool->Initial();

  00095	8b 4e 5c	 mov	 ecx, DWORD PTR [esi+92]
  00098	8b 01		 mov	 eax, DWORD PTR [ecx]
  0009a	ff 10		 call	 DWORD PTR [eax]

; 213  : 	m_pTextBTool->Initial();

  0009c	8b 4e 60	 mov	 ecx, DWORD PTR [esi+96]
  0009f	8b 01		 mov	 eax, DWORD PTR [ecx]
  000a1	ff 10		 call	 DWORD PTR [eax]

; 214  : 	m_pTextCTool->Initial();

  000a3	8b 4e 64	 mov	 ecx, DWORD PTR [esi+100]
  000a6	8b 01		 mov	 eax, DWORD PTR [ecx]
  000a8	ff 10		 call	 DWORD PTR [eax]

; 215  : 	m_pTextDTool->Initial();

  000aa	8b 4e 68	 mov	 ecx, DWORD PTR [esi+104]
  000ad	8b 01		 mov	 eax, DWORD PTR [ecx]
  000af	ff 10		 call	 DWORD PTR [eax]

; 216  : 	m_pTextETool->Initial();

  000b1	8b 4e 6c	 mov	 ecx, DWORD PTR [esi+108]
  000b4	8b 01		 mov	 eax, DWORD PTR [ecx]
  000b6	ff 10		 call	 DWORD PTR [eax]

; 217  : 	m_pTextFTool->Initial();

  000b8	8b 4e 70	 mov	 ecx, DWORD PTR [esi+112]
  000bb	8b 01		 mov	 eax, DWORD PTR [ecx]
  000bd	ff 10		 call	 DWORD PTR [eax]

; 218  : 	m_pTextGTool->Initial();

  000bf	8b 4e 74	 mov	 ecx, DWORD PTR [esi+116]
  000c2	8b 01		 mov	 eax, DWORD PTR [ecx]
  000c4	ff 10		 call	 DWORD PTR [eax]

; 219  : 	m_pTextHTool->Initial();

  000c6	8b 4e 78	 mov	 ecx, DWORD PTR [esi+120]
  000c9	8b 01		 mov	 eax, DWORD PTR [ecx]
  000cb	ff 10		 call	 DWORD PTR [eax]

; 220  : 
; 221  : 	m_pChar1Tool->Initial();

  000cd	8b 4e 7c	 mov	 ecx, DWORD PTR [esi+124]
  000d0	8b 01		 mov	 eax, DWORD PTR [ecx]
  000d2	ff 10		 call	 DWORD PTR [eax]

; 222  : 	m_pChar2Tool->Initial();

  000d4	8b 8e 80 00 00
	00		 mov	 ecx, DWORD PTR [esi+128]
  000da	8b 01		 mov	 eax, DWORD PTR [ecx]
  000dc	ff 10		 call	 DWORD PTR [eax]

; 223  : 	m_pChar3Tool->Initial();

  000de	8b 8e 84 00 00
	00		 mov	 ecx, DWORD PTR [esi+132]
  000e4	8b 01		 mov	 eax, DWORD PTR [ecx]
  000e6	ff 10		 call	 DWORD PTR [eax]

; 224  : 	m_pChar4Tool->Initial();

  000e8	8b 8e 88 00 00
	00		 mov	 ecx, DWORD PTR [esi+136]
  000ee	8b 01		 mov	 eax, DWORD PTR [ecx]
  000f0	ff 10		 call	 DWORD PTR [eax]

; 225  : 	m_pChar5Tool->Initial();

  000f2	8b 8e 8c 00 00
	00		 mov	 ecx, DWORD PTR [esi+140]
  000f8	8b 01		 mov	 eax, DWORD PTR [ecx]
  000fa	ff 10		 call	 DWORD PTR [eax]

; 226  : 	m_pChar6Tool->Initial();

  000fc	8b 8e 90 00 00
	00		 mov	 ecx, DWORD PTR [esi+144]
  00102	5e		 pop	 esi
  00103	8b 01		 mov	 eax, DWORD PTR [ecx]
  00105	ff 20		 jmp	 DWORD PTR [eax]
?InitialTool@CSymbolSingleton@@QAEXXZ ENDP		; CSymbolSingleton::InitialTool
_TEXT	ENDS
; Function compile flags: /Ogtp
; File D:\git\src\IBK\IBK_DRFN\ProjSrc\SrcChartEx\ChartAddIn\ChartAnalysisToolAddIn\Symbol\SymbolSingleton.cpp
;	COMDAT ?Find@CSymbolSingleton@@QAEPAVCSymbolTool@@PAVCSymbolData@@W4TOOLTYPE@CSymbolBaseData@@@Z
_TEXT	SEGMENT
_pSymbolData$ = 8					; size = 4
_symboltype$ = 12					; size = 4
?Find@CSymbolSingleton@@QAEPAVCSymbolTool@@PAVCSymbolData@@W4TOOLTYPE@CSymbolBaseData@@@Z PROC ; CSymbolSingleton::Find, COMDAT
; _this$ = ecx

; 104  : {

  00000	55		 push	 ebp
  00001	8b ec		 mov	 ebp, esp

; 105  : 	switch(symboltype){

  00003	8b 45 0c	 mov	 eax, DWORD PTR _symboltype$[ebp]
  00006	56		 push	 esi
  00007	83 f8 26	 cmp	 eax, 38			; 00000026H
  0000a	0f 87 ed 03 00
	00		 ja	 $LN41@Find
  00010	ff 24 85 00 00
	00 00		 jmp	 DWORD PTR $LN151@Find[eax*4]
$LN5@Find:

; 106  : 		case CSymbolBaseData::SYMBOL_NONE:			// 
; 107  : 			return NULL;
; 108  : 		case CSymbolBaseData::SYMBOL_SELECTION:			// 
; 109  : 			return GetTool(pSymbolData, m_pSelectTool);

  00017	8b 31		 mov	 esi, DWORD PTR [ecx]

; 232  : 	if(pTool != NULL)

  00019	85 f6		 test	 esi, esi
  0001b	74 0a		 je	 SHORT $LN44@Find

; 233  : 		pTool->SetSymbolData(pSymbolData);

  0001d	ff 75 08	 push	 DWORD PTR _pSymbolData$[ebp]
  00020	8b ce		 mov	 ecx, esi
  00022	e8 00 00 00 00	 call	 ?SetSymbolData@CSymbolTool@@QAEXPAVCSymbolData@@@Z ; CSymbolTool::SetSymbolData
$LN44@Find:

; 106  : 		case CSymbolBaseData::SYMBOL_NONE:			// 
; 107  : 			return NULL;
; 108  : 		case CSymbolBaseData::SYMBOL_SELECTION:			// 
; 109  : 			return GetTool(pSymbolData, m_pSelectTool);

  00027	8b c6		 mov	 eax, esi
  00029	5e		 pop	 esi

; 184  : 	}
; 185  : }

  0002a	5d		 pop	 ebp
  0002b	c2 08 00	 ret	 8
$LN6@Find:

; 110  : 		case CSymbolBaseData::SYMBOL_SQUARE:			// 
; 111  : 			return GetTool(pSymbolData, m_pFigureSquareTool);

  0002e	8b 71 04	 mov	 esi, DWORD PTR [ecx+4]

; 232  : 	if(pTool != NULL)

  00031	85 f6		 test	 esi, esi
  00033	74 f2		 je	 SHORT $LN44@Find

; 233  : 		pTool->SetSymbolData(pSymbolData);

  00035	ff 75 08	 push	 DWORD PTR _pSymbolData$[ebp]
  00038	8b ce		 mov	 ecx, esi
  0003a	e8 00 00 00 00	 call	 ?SetSymbolData@CSymbolTool@@QAEXPAVCSymbolData@@@Z ; CSymbolTool::SetSymbolData

; 110  : 		case CSymbolBaseData::SYMBOL_SQUARE:			// 
; 111  : 			return GetTool(pSymbolData, m_pFigureSquareTool);

  0003f	8b c6		 mov	 eax, esi
  00041	5e		 pop	 esi

; 184  : 	}
; 185  : }

  00042	5d		 pop	 ebp
  00043	c2 08 00	 ret	 8
$LN7@Find:

; 112  : 		case CSymbolBaseData::SYMBOL_CIRCLE:			// 
; 113  : 			return GetTool(pSymbolData, m_pFigureCircleTool);

  00046	8b 71 08	 mov	 esi, DWORD PTR [ecx+8]

; 232  : 	if(pTool != NULL)

  00049	85 f6		 test	 esi, esi
  0004b	74 da		 je	 SHORT $LN44@Find

; 233  : 		pTool->SetSymbolData(pSymbolData);

  0004d	ff 75 08	 push	 DWORD PTR _pSymbolData$[ebp]
  00050	8b ce		 mov	 ecx, esi
  00052	e8 00 00 00 00	 call	 ?SetSymbolData@CSymbolTool@@QAEXPAVCSymbolData@@@Z ; CSymbolTool::SetSymbolData

; 112  : 		case CSymbolBaseData::SYMBOL_CIRCLE:			// 
; 113  : 			return GetTool(pSymbolData, m_pFigureCircleTool);

  00057	8b c6		 mov	 eax, esi
  00059	5e		 pop	 esi

; 184  : 	}
; 185  : }

  0005a	5d		 pop	 ebp
  0005b	c2 08 00	 ret	 8
$LN8@Find:

; 114  : 		case CSymbolBaseData::SYMBOL_TRIANGLE:			// 
; 115  : 			return GetTool(pSymbolData, m_pFigureTriangleTool);

  0005e	8b 71 0c	 mov	 esi, DWORD PTR [ecx+12]

; 232  : 	if(pTool != NULL)

  00061	85 f6		 test	 esi, esi
  00063	74 c2		 je	 SHORT $LN44@Find

; 233  : 		pTool->SetSymbolData(pSymbolData);

  00065	ff 75 08	 push	 DWORD PTR _pSymbolData$[ebp]
  00068	8b ce		 mov	 ecx, esi
  0006a	e8 00 00 00 00	 call	 ?SetSymbolData@CSymbolTool@@QAEXPAVCSymbolData@@@Z ; CSymbolTool::SetSymbolData

; 114  : 		case CSymbolBaseData::SYMBOL_TRIANGLE:			// 
; 115  : 			return GetTool(pSymbolData, m_pFigureTriangleTool);

  0006f	8b c6		 mov	 eax, esi
  00071	5e		 pop	 esi

; 184  : 	}
; 185  : }

  00072	5d		 pop	 ebp
  00073	c2 08 00	 ret	 8
$LN9@Find:

; 116  : 		case CSymbolBaseData::SYMBOL_TEXT:			// Text
; 117  : 			return GetTool(pSymbolData, m_pTextTool);

  00076	8b 71 10	 mov	 esi, DWORD PTR [ecx+16]

; 232  : 	if(pTool != NULL)

  00079	85 f6		 test	 esi, esi
  0007b	74 aa		 je	 SHORT $LN44@Find

; 233  : 		pTool->SetSymbolData(pSymbolData);

  0007d	ff 75 08	 push	 DWORD PTR _pSymbolData$[ebp]
  00080	8b ce		 mov	 ecx, esi
  00082	e8 00 00 00 00	 call	 ?SetSymbolData@CSymbolTool@@QAEXPAVCSymbolData@@@Z ; CSymbolTool::SetSymbolData

; 116  : 		case CSymbolBaseData::SYMBOL_TEXT:			// Text
; 117  : 			return GetTool(pSymbolData, m_pTextTool);

  00087	8b c6		 mov	 eax, esi
  00089	5e		 pop	 esi

; 184  : 	}
; 185  : }

  0008a	5d		 pop	 ebp
  0008b	c2 08 00	 ret	 8
$LN10@Find:

; 118  : 		case CSymbolBaseData::SYMBOL_ARROW_LEFT:			//  
; 119  : 			return GetTool(pSymbolData, m_pArrowLeftTool);

  0008e	8b 71 14	 mov	 esi, DWORD PTR [ecx+20]

; 232  : 	if(pTool != NULL)

  00091	85 f6		 test	 esi, esi
  00093	74 92		 je	 SHORT $LN44@Find

; 233  : 		pTool->SetSymbolData(pSymbolData);

  00095	ff 75 08	 push	 DWORD PTR _pSymbolData$[ebp]
  00098	8b ce		 mov	 ecx, esi
  0009a	e8 00 00 00 00	 call	 ?SetSymbolData@CSymbolTool@@QAEXPAVCSymbolData@@@Z ; CSymbolTool::SetSymbolData

; 118  : 		case CSymbolBaseData::SYMBOL_ARROW_LEFT:			//  
; 119  : 			return GetTool(pSymbolData, m_pArrowLeftTool);

  0009f	8b c6		 mov	 eax, esi
  000a1	5e		 pop	 esi

; 184  : 	}
; 185  : }

  000a2	5d		 pop	 ebp
  000a3	c2 08 00	 ret	 8
$LN11@Find:

; 120  : 		case CSymbolBaseData::SYMBOL_ARROW_RIGHT:			//  
; 121  : 			return GetTool(pSymbolData, m_pArrowRightTool);

  000a6	8b 71 18	 mov	 esi, DWORD PTR [ecx+24]

; 232  : 	if(pTool != NULL)

  000a9	85 f6		 test	 esi, esi
  000ab	0f 84 76 ff ff
	ff		 je	 $LN44@Find

; 233  : 		pTool->SetSymbolData(pSymbolData);

  000b1	ff 75 08	 push	 DWORD PTR _pSymbolData$[ebp]
  000b4	8b ce		 mov	 ecx, esi
  000b6	e8 00 00 00 00	 call	 ?SetSymbolData@CSymbolTool@@QAEXPAVCSymbolData@@@Z ; CSymbolTool::SetSymbolData

; 120  : 		case CSymbolBaseData::SYMBOL_ARROW_RIGHT:			//  
; 121  : 			return GetTool(pSymbolData, m_pArrowRightTool);

  000bb	8b c6		 mov	 eax, esi
  000bd	5e		 pop	 esi

; 184  : 	}
; 185  : }

  000be	5d		 pop	 ebp
  000bf	c2 08 00	 ret	 8
$LN12@Find:

; 122  : 		case CSymbolBaseData::SYMBOL_ARROW_UP:  // 
; 123  : 			return GetTool(pSymbolData, m_pArrowUpTool);

  000c2	8b 71 1c	 mov	 esi, DWORD PTR [ecx+28]

; 232  : 	if(pTool != NULL)

  000c5	85 f6		 test	 esi, esi
  000c7	0f 84 5a ff ff
	ff		 je	 $LN44@Find

; 233  : 		pTool->SetSymbolData(pSymbolData);

  000cd	ff 75 08	 push	 DWORD PTR _pSymbolData$[ebp]
  000d0	8b ce		 mov	 ecx, esi
  000d2	e8 00 00 00 00	 call	 ?SetSymbolData@CSymbolTool@@QAEXPAVCSymbolData@@@Z ; CSymbolTool::SetSymbolData

; 122  : 		case CSymbolBaseData::SYMBOL_ARROW_UP:  // 
; 123  : 			return GetTool(pSymbolData, m_pArrowUpTool);

  000d7	8b c6		 mov	 eax, esi
  000d9	5e		 pop	 esi

; 184  : 	}
; 185  : }

  000da	5d		 pop	 ebp
  000db	c2 08 00	 ret	 8
$LN13@Find:

; 124  : 		case CSymbolBaseData::SYMBOL_ARROW_DOWN:  // 
; 125  : 			return GetTool(pSymbolData, m_pArrowDownTool);

  000de	8b 71 20	 mov	 esi, DWORD PTR [ecx+32]

; 232  : 	if(pTool != NULL)

  000e1	85 f6		 test	 esi, esi
  000e3	0f 84 3e ff ff
	ff		 je	 $LN44@Find

; 233  : 		pTool->SetSymbolData(pSymbolData);

  000e9	ff 75 08	 push	 DWORD PTR _pSymbolData$[ebp]
  000ec	8b ce		 mov	 ecx, esi
  000ee	e8 00 00 00 00	 call	 ?SetSymbolData@CSymbolTool@@QAEXPAVCSymbolData@@@Z ; CSymbolTool::SetSymbolData

; 124  : 		case CSymbolBaseData::SYMBOL_ARROW_DOWN:  // 
; 125  : 			return GetTool(pSymbolData, m_pArrowDownTool);

  000f3	8b c6		 mov	 eax, esi
  000f5	5e		 pop	 esi

; 184  : 	}
; 185  : }

  000f6	5d		 pop	 ebp
  000f7	c2 08 00	 ret	 8
$LN14@Find:

; 126  : 		case CSymbolBaseData::SYMBOL_ARROW_LEFTTOP:  //   
; 127  : 			return GetTool(pSymbolData, m_pArrowLeftTopTool);

  000fa	8b 71 24	 mov	 esi, DWORD PTR [ecx+36]

; 232  : 	if(pTool != NULL)

  000fd	85 f6		 test	 esi, esi
  000ff	0f 84 22 ff ff
	ff		 je	 $LN44@Find

; 233  : 		pTool->SetSymbolData(pSymbolData);

  00105	ff 75 08	 push	 DWORD PTR _pSymbolData$[ebp]
  00108	8b ce		 mov	 ecx, esi
  0010a	e8 00 00 00 00	 call	 ?SetSymbolData@CSymbolTool@@QAEXPAVCSymbolData@@@Z ; CSymbolTool::SetSymbolData

; 126  : 		case CSymbolBaseData::SYMBOL_ARROW_LEFTTOP:  //   
; 127  : 			return GetTool(pSymbolData, m_pArrowLeftTopTool);

  0010f	8b c6		 mov	 eax, esi
  00111	5e		 pop	 esi

; 184  : 	}
; 185  : }

  00112	5d		 pop	 ebp
  00113	c2 08 00	 ret	 8
$LN15@Find:

; 128  : 		case CSymbolBaseData::SYMBOL_ARROW_LEFTBOTTOM: //   
; 129  : 			return GetTool(pSymbolData, m_pArrowLeftBottomTool);

  00116	8b 71 28	 mov	 esi, DWORD PTR [ecx+40]

; 232  : 	if(pTool != NULL)

  00119	85 f6		 test	 esi, esi
  0011b	0f 84 06 ff ff
	ff		 je	 $LN44@Find

; 233  : 		pTool->SetSymbolData(pSymbolData);

  00121	ff 75 08	 push	 DWORD PTR _pSymbolData$[ebp]
  00124	8b ce		 mov	 ecx, esi
  00126	e8 00 00 00 00	 call	 ?SetSymbolData@CSymbolTool@@QAEXPAVCSymbolData@@@Z ; CSymbolTool::SetSymbolData

; 128  : 		case CSymbolBaseData::SYMBOL_ARROW_LEFTBOTTOM: //   
; 129  : 			return GetTool(pSymbolData, m_pArrowLeftBottomTool);

  0012b	8b c6		 mov	 eax, esi
  0012d	5e		 pop	 esi

; 184  : 	}
; 185  : }

  0012e	5d		 pop	 ebp
  0012f	c2 08 00	 ret	 8
$LN16@Find:

; 130  : 		case CSymbolBaseData::SYMBOL_ARROW_RIGHTTOP:  //   
; 131  : 			return GetTool(pSymbolData, m_pArrowRightTopTool);

  00132	8b 71 2c	 mov	 esi, DWORD PTR [ecx+44]

; 232  : 	if(pTool != NULL)

  00135	85 f6		 test	 esi, esi
  00137	0f 84 ea fe ff
	ff		 je	 $LN44@Find

; 233  : 		pTool->SetSymbolData(pSymbolData);

  0013d	ff 75 08	 push	 DWORD PTR _pSymbolData$[ebp]
  00140	8b ce		 mov	 ecx, esi
  00142	e8 00 00 00 00	 call	 ?SetSymbolData@CSymbolTool@@QAEXPAVCSymbolData@@@Z ; CSymbolTool::SetSymbolData

; 130  : 		case CSymbolBaseData::SYMBOL_ARROW_RIGHTTOP:  //   
; 131  : 			return GetTool(pSymbolData, m_pArrowRightTopTool);

  00147	8b c6		 mov	 eax, esi
  00149	5e		 pop	 esi

; 184  : 	}
; 185  : }

  0014a	5d		 pop	 ebp
  0014b	c2 08 00	 ret	 8
$LN17@Find:

; 132  : 		case CSymbolBaseData::SYMBOL_ARROW_RIGHTBOTTOM:  //   
; 133  : 			return GetTool(pSymbolData, m_pArrowRightBottomTool);

  0014e	8b 71 30	 mov	 esi, DWORD PTR [ecx+48]

; 232  : 	if(pTool != NULL)

  00151	85 f6		 test	 esi, esi
  00153	0f 84 ce fe ff
	ff		 je	 $LN44@Find

; 233  : 		pTool->SetSymbolData(pSymbolData);

  00159	ff 75 08	 push	 DWORD PTR _pSymbolData$[ebp]
  0015c	8b ce		 mov	 ecx, esi
  0015e	e8 00 00 00 00	 call	 ?SetSymbolData@CSymbolTool@@QAEXPAVCSymbolData@@@Z ; CSymbolTool::SetSymbolData

; 132  : 		case CSymbolBaseData::SYMBOL_ARROW_RIGHTBOTTOM:  //   
; 133  : 			return GetTool(pSymbolData, m_pArrowRightBottomTool);

  00163	8b c6		 mov	 eax, esi
  00165	5e		 pop	 esi

; 184  : 	}
; 185  : }

  00166	5d		 pop	 ebp
  00167	c2 08 00	 ret	 8
$LN18@Find:

; 134  : 		case CSymbolBaseData::SYMBOL_NUM_ONE:  // 1
; 135  : 			return GetTool(pSymbolData, m_pNumberOneTool);

  0016a	8b 71 34	 mov	 esi, DWORD PTR [ecx+52]

; 232  : 	if(pTool != NULL)

  0016d	85 f6		 test	 esi, esi
  0016f	0f 84 b2 fe ff
	ff		 je	 $LN44@Find

; 233  : 		pTool->SetSymbolData(pSymbolData);

  00175	ff 75 08	 push	 DWORD PTR _pSymbolData$[ebp]
  00178	8b ce		 mov	 ecx, esi
  0017a	e8 00 00 00 00	 call	 ?SetSymbolData@CSymbolTool@@QAEXPAVCSymbolData@@@Z ; CSymbolTool::SetSymbolData

; 134  : 		case CSymbolBaseData::SYMBOL_NUM_ONE:  // 1
; 135  : 			return GetTool(pSymbolData, m_pNumberOneTool);

  0017f	8b c6		 mov	 eax, esi
  00181	5e		 pop	 esi

; 184  : 	}
; 185  : }

  00182	5d		 pop	 ebp
  00183	c2 08 00	 ret	 8
$LN19@Find:

; 136  : 		case CSymbolBaseData::SYMBOL_NUM_TWO:  //2
; 137  : 			return GetTool(pSymbolData, m_pNumberTwoTool);

  00186	8b 71 38	 mov	 esi, DWORD PTR [ecx+56]

; 232  : 	if(pTool != NULL)

  00189	85 f6		 test	 esi, esi
  0018b	0f 84 96 fe ff
	ff		 je	 $LN44@Find

; 233  : 		pTool->SetSymbolData(pSymbolData);

  00191	ff 75 08	 push	 DWORD PTR _pSymbolData$[ebp]
  00194	8b ce		 mov	 ecx, esi
  00196	e8 00 00 00 00	 call	 ?SetSymbolData@CSymbolTool@@QAEXPAVCSymbolData@@@Z ; CSymbolTool::SetSymbolData

; 136  : 		case CSymbolBaseData::SYMBOL_NUM_TWO:  //2
; 137  : 			return GetTool(pSymbolData, m_pNumberTwoTool);

  0019b	8b c6		 mov	 eax, esi
  0019d	5e		 pop	 esi

; 184  : 	}
; 185  : }

  0019e	5d		 pop	 ebp
  0019f	c2 08 00	 ret	 8
$LN20@Find:

; 138  : 		case CSymbolBaseData::SYMBOL_NUM_THREE: //3
; 139  : 			return GetTool(pSymbolData, m_pNumberThreeTool);

  001a2	8b 71 3c	 mov	 esi, DWORD PTR [ecx+60]

; 232  : 	if(pTool != NULL)

  001a5	85 f6		 test	 esi, esi
  001a7	0f 84 7a fe ff
	ff		 je	 $LN44@Find

; 233  : 		pTool->SetSymbolData(pSymbolData);

  001ad	ff 75 08	 push	 DWORD PTR _pSymbolData$[ebp]
  001b0	8b ce		 mov	 ecx, esi
  001b2	e8 00 00 00 00	 call	 ?SetSymbolData@CSymbolTool@@QAEXPAVCSymbolData@@@Z ; CSymbolTool::SetSymbolData

; 138  : 		case CSymbolBaseData::SYMBOL_NUM_THREE: //3
; 139  : 			return GetTool(pSymbolData, m_pNumberThreeTool);

  001b7	8b c6		 mov	 eax, esi
  001b9	5e		 pop	 esi

; 184  : 	}
; 185  : }

  001ba	5d		 pop	 ebp
  001bb	c2 08 00	 ret	 8
$LN21@Find:

; 140  : 		case CSymbolBaseData::SYMBOL_NUM_FOUR:  //4
; 141  : 			return GetTool(pSymbolData, m_pNumberFourTool);

  001be	8b 71 40	 mov	 esi, DWORD PTR [ecx+64]

; 232  : 	if(pTool != NULL)

  001c1	85 f6		 test	 esi, esi
  001c3	0f 84 5e fe ff
	ff		 je	 $LN44@Find

; 233  : 		pTool->SetSymbolData(pSymbolData);

  001c9	ff 75 08	 push	 DWORD PTR _pSymbolData$[ebp]
  001cc	8b ce		 mov	 ecx, esi
  001ce	e8 00 00 00 00	 call	 ?SetSymbolData@CSymbolTool@@QAEXPAVCSymbolData@@@Z ; CSymbolTool::SetSymbolData

; 140  : 		case CSymbolBaseData::SYMBOL_NUM_FOUR:  //4
; 141  : 			return GetTool(pSymbolData, m_pNumberFourTool);

  001d3	8b c6		 mov	 eax, esi
  001d5	5e		 pop	 esi

; 184  : 	}
; 185  : }

  001d6	5d		 pop	 ebp
  001d7	c2 08 00	 ret	 8
$LN22@Find:

; 142  : 		case CSymbolBaseData::SYMBOL_NUM_FIVE:  //5
; 143  : 			return GetTool(pSymbolData, m_pNumberFiveTool);

  001da	8b 71 44	 mov	 esi, DWORD PTR [ecx+68]

; 232  : 	if(pTool != NULL)

  001dd	85 f6		 test	 esi, esi
  001df	0f 84 42 fe ff
	ff		 je	 $LN44@Find

; 233  : 		pTool->SetSymbolData(pSymbolData);

  001e5	ff 75 08	 push	 DWORD PTR _pSymbolData$[ebp]
  001e8	8b ce		 mov	 ecx, esi
  001ea	e8 00 00 00 00	 call	 ?SetSymbolData@CSymbolTool@@QAEXPAVCSymbolData@@@Z ; CSymbolTool::SetSymbolData

; 142  : 		case CSymbolBaseData::SYMBOL_NUM_FIVE:  //5
; 143  : 			return GetTool(pSymbolData, m_pNumberFiveTool);

  001ef	8b c6		 mov	 eax, esi
  001f1	5e		 pop	 esi

; 184  : 	}
; 185  : }

  001f2	5d		 pop	 ebp
  001f3	c2 08 00	 ret	 8
$LN23@Find:

; 144  : 		case CSymbolBaseData::SYMBOL_NUM_SIX:  //6
; 145  : 			return GetTool(pSymbolData, m_pNumberSixTool);

  001f6	8b 71 48	 mov	 esi, DWORD PTR [ecx+72]

; 232  : 	if(pTool != NULL)

  001f9	85 f6		 test	 esi, esi
  001fb	0f 84 26 fe ff
	ff		 je	 $LN44@Find

; 233  : 		pTool->SetSymbolData(pSymbolData);

  00201	ff 75 08	 push	 DWORD PTR _pSymbolData$[ebp]
  00204	8b ce		 mov	 ecx, esi
  00206	e8 00 00 00 00	 call	 ?SetSymbolData@CSymbolTool@@QAEXPAVCSymbolData@@@Z ; CSymbolTool::SetSymbolData

; 144  : 		case CSymbolBaseData::SYMBOL_NUM_SIX:  //6
; 145  : 			return GetTool(pSymbolData, m_pNumberSixTool);

  0020b	8b c6		 mov	 eax, esi
  0020d	5e		 pop	 esi

; 184  : 	}
; 185  : }

  0020e	5d		 pop	 ebp
  0020f	c2 08 00	 ret	 8
$LN24@Find:

; 146  : 		case CSymbolBaseData::SYMBOL_NUM_SEVEN:  //7
; 147  : 			return GetTool(pSymbolData, m_pNumberSevenTool);

  00212	8b 71 4c	 mov	 esi, DWORD PTR [ecx+76]

; 232  : 	if(pTool != NULL)

  00215	85 f6		 test	 esi, esi
  00217	0f 84 0a fe ff
	ff		 je	 $LN44@Find

; 233  : 		pTool->SetSymbolData(pSymbolData);

  0021d	ff 75 08	 push	 DWORD PTR _pSymbolData$[ebp]
  00220	8b ce		 mov	 ecx, esi
  00222	e8 00 00 00 00	 call	 ?SetSymbolData@CSymbolTool@@QAEXPAVCSymbolData@@@Z ; CSymbolTool::SetSymbolData

; 146  : 		case CSymbolBaseData::SYMBOL_NUM_SEVEN:  //7
; 147  : 			return GetTool(pSymbolData, m_pNumberSevenTool);

  00227	8b c6		 mov	 eax, esi
  00229	5e		 pop	 esi

; 184  : 	}
; 185  : }

  0022a	5d		 pop	 ebp
  0022b	c2 08 00	 ret	 8
$LN25@Find:

; 148  : 		case CSymbolBaseData::SYMBOL_NUM_EIGHT:  //8
; 149  : 			return GetTool(pSymbolData, m_pNumberEightTool);

  0022e	8b 71 50	 mov	 esi, DWORD PTR [ecx+80]

; 232  : 	if(pTool != NULL)

  00231	85 f6		 test	 esi, esi
  00233	0f 84 ee fd ff
	ff		 je	 $LN44@Find

; 233  : 		pTool->SetSymbolData(pSymbolData);

  00239	ff 75 08	 push	 DWORD PTR _pSymbolData$[ebp]
  0023c	8b ce		 mov	 ecx, esi
  0023e	e8 00 00 00 00	 call	 ?SetSymbolData@CSymbolTool@@QAEXPAVCSymbolData@@@Z ; CSymbolTool::SetSymbolData

; 148  : 		case CSymbolBaseData::SYMBOL_NUM_EIGHT:  //8
; 149  : 			return GetTool(pSymbolData, m_pNumberEightTool);

  00243	8b c6		 mov	 eax, esi
  00245	5e		 pop	 esi

; 184  : 	}
; 185  : }

  00246	5d		 pop	 ebp
  00247	c2 08 00	 ret	 8
$LN26@Find:

; 150  : 		case CSymbolBaseData::SYMBOL_NUM_NINE:  //9
; 151  : 			return GetTool(pSymbolData, m_pNumberNineTool);

  0024a	8b 71 54	 mov	 esi, DWORD PTR [ecx+84]

; 232  : 	if(pTool != NULL)

  0024d	85 f6		 test	 esi, esi
  0024f	0f 84 d2 fd ff
	ff		 je	 $LN44@Find

; 233  : 		pTool->SetSymbolData(pSymbolData);

  00255	ff 75 08	 push	 DWORD PTR _pSymbolData$[ebp]
  00258	8b ce		 mov	 ecx, esi
  0025a	e8 00 00 00 00	 call	 ?SetSymbolData@CSymbolTool@@QAEXPAVCSymbolData@@@Z ; CSymbolTool::SetSymbolData

; 150  : 		case CSymbolBaseData::SYMBOL_NUM_NINE:  //9
; 151  : 			return GetTool(pSymbolData, m_pNumberNineTool);

  0025f	8b c6		 mov	 eax, esi
  00261	5e		 pop	 esi

; 184  : 	}
; 185  : }

  00262	5d		 pop	 ebp
  00263	c2 08 00	 ret	 8
$LN27@Find:

; 152  : 		//case CSymbolBaseData::SYMBOL_NUM_TEN:  //10
; 153  : 		//	return GetTool(pSymbolData, m_pNumberTenTool);
; 154  : 		case CSymbolBaseData::SYMBOL_TEXT_A:  //a
; 155  : 			return GetTool(pSymbolData, m_pTextATool);

  00266	8b 71 5c	 mov	 esi, DWORD PTR [ecx+92]

; 232  : 	if(pTool != NULL)

  00269	85 f6		 test	 esi, esi
  0026b	0f 84 b6 fd ff
	ff		 je	 $LN44@Find

; 233  : 		pTool->SetSymbolData(pSymbolData);

  00271	ff 75 08	 push	 DWORD PTR _pSymbolData$[ebp]
  00274	8b ce		 mov	 ecx, esi
  00276	e8 00 00 00 00	 call	 ?SetSymbolData@CSymbolTool@@QAEXPAVCSymbolData@@@Z ; CSymbolTool::SetSymbolData

; 152  : 		//case CSymbolBaseData::SYMBOL_NUM_TEN:  //10
; 153  : 		//	return GetTool(pSymbolData, m_pNumberTenTool);
; 154  : 		case CSymbolBaseData::SYMBOL_TEXT_A:  //a
; 155  : 			return GetTool(pSymbolData, m_pTextATool);

  0027b	8b c6		 mov	 eax, esi
  0027d	5e		 pop	 esi

; 184  : 	}
; 185  : }

  0027e	5d		 pop	 ebp
  0027f	c2 08 00	 ret	 8
$LN28@Find:

; 156  : 		case CSymbolBaseData::SYMBOL_TEXT_B: //b
; 157  : 			return GetTool(pSymbolData, m_pTextBTool);

  00282	8b 71 60	 mov	 esi, DWORD PTR [ecx+96]

; 232  : 	if(pTool != NULL)

  00285	85 f6		 test	 esi, esi
  00287	0f 84 9a fd ff
	ff		 je	 $LN44@Find

; 233  : 		pTool->SetSymbolData(pSymbolData);

  0028d	ff 75 08	 push	 DWORD PTR _pSymbolData$[ebp]
  00290	8b ce		 mov	 ecx, esi
  00292	e8 00 00 00 00	 call	 ?SetSymbolData@CSymbolTool@@QAEXPAVCSymbolData@@@Z ; CSymbolTool::SetSymbolData

; 156  : 		case CSymbolBaseData::SYMBOL_TEXT_B: //b
; 157  : 			return GetTool(pSymbolData, m_pTextBTool);

  00297	8b c6		 mov	 eax, esi
  00299	5e		 pop	 esi

; 184  : 	}
; 185  : }

  0029a	5d		 pop	 ebp
  0029b	c2 08 00	 ret	 8
$LN29@Find:

; 158  : 		case CSymbolBaseData::SYMBOL_TEXT_C: //c
; 159  : 			return GetTool(pSymbolData, m_pTextCTool);

  0029e	8b 71 64	 mov	 esi, DWORD PTR [ecx+100]

; 232  : 	if(pTool != NULL)

  002a1	85 f6		 test	 esi, esi
  002a3	0f 84 7e fd ff
	ff		 je	 $LN44@Find

; 233  : 		pTool->SetSymbolData(pSymbolData);

  002a9	ff 75 08	 push	 DWORD PTR _pSymbolData$[ebp]
  002ac	8b ce		 mov	 ecx, esi
  002ae	e8 00 00 00 00	 call	 ?SetSymbolData@CSymbolTool@@QAEXPAVCSymbolData@@@Z ; CSymbolTool::SetSymbolData

; 158  : 		case CSymbolBaseData::SYMBOL_TEXT_C: //c
; 159  : 			return GetTool(pSymbolData, m_pTextCTool);

  002b3	8b c6		 mov	 eax, esi
  002b5	5e		 pop	 esi

; 184  : 	}
; 185  : }

  002b6	5d		 pop	 ebp
  002b7	c2 08 00	 ret	 8
$LN30@Find:

; 160  : 		case CSymbolBaseData::SYMBOL_TEXT_D: //d
; 161  : 			return GetTool(pSymbolData, m_pTextDTool);

  002ba	8b 71 68	 mov	 esi, DWORD PTR [ecx+104]

; 232  : 	if(pTool != NULL)

  002bd	85 f6		 test	 esi, esi
  002bf	0f 84 62 fd ff
	ff		 je	 $LN44@Find

; 233  : 		pTool->SetSymbolData(pSymbolData);

  002c5	ff 75 08	 push	 DWORD PTR _pSymbolData$[ebp]
  002c8	8b ce		 mov	 ecx, esi
  002ca	e8 00 00 00 00	 call	 ?SetSymbolData@CSymbolTool@@QAEXPAVCSymbolData@@@Z ; CSymbolTool::SetSymbolData

; 160  : 		case CSymbolBaseData::SYMBOL_TEXT_D: //d
; 161  : 			return GetTool(pSymbolData, m_pTextDTool);

  002cf	8b c6		 mov	 eax, esi
  002d1	5e		 pop	 esi

; 184  : 	}
; 185  : }

  002d2	5d		 pop	 ebp
  002d3	c2 08 00	 ret	 8
$LN31@Find:

; 162  : 		case CSymbolBaseData::SYMBOL_TEXT_E: //e
; 163  : 			return GetTool(pSymbolData, m_pTextETool);

  002d6	8b 71 6c	 mov	 esi, DWORD PTR [ecx+108]

; 232  : 	if(pTool != NULL)

  002d9	85 f6		 test	 esi, esi
  002db	0f 84 46 fd ff
	ff		 je	 $LN44@Find

; 233  : 		pTool->SetSymbolData(pSymbolData);

  002e1	ff 75 08	 push	 DWORD PTR _pSymbolData$[ebp]
  002e4	8b ce		 mov	 ecx, esi
  002e6	e8 00 00 00 00	 call	 ?SetSymbolData@CSymbolTool@@QAEXPAVCSymbolData@@@Z ; CSymbolTool::SetSymbolData

; 162  : 		case CSymbolBaseData::SYMBOL_TEXT_E: //e
; 163  : 			return GetTool(pSymbolData, m_pTextETool);

  002eb	8b c6		 mov	 eax, esi
  002ed	5e		 pop	 esi

; 184  : 	}
; 185  : }

  002ee	5d		 pop	 ebp
  002ef	c2 08 00	 ret	 8
$LN32@Find:

; 164  : 		case CSymbolBaseData::SYMBOL_TEXT_F: //f
; 165  : 			return GetTool(pSymbolData, m_pTextFTool);

  002f2	8b 71 70	 mov	 esi, DWORD PTR [ecx+112]

; 232  : 	if(pTool != NULL)

  002f5	85 f6		 test	 esi, esi
  002f7	0f 84 2a fd ff
	ff		 je	 $LN44@Find

; 233  : 		pTool->SetSymbolData(pSymbolData);

  002fd	ff 75 08	 push	 DWORD PTR _pSymbolData$[ebp]
  00300	8b ce		 mov	 ecx, esi
  00302	e8 00 00 00 00	 call	 ?SetSymbolData@CSymbolTool@@QAEXPAVCSymbolData@@@Z ; CSymbolTool::SetSymbolData

; 164  : 		case CSymbolBaseData::SYMBOL_TEXT_F: //f
; 165  : 			return GetTool(pSymbolData, m_pTextFTool);

  00307	8b c6		 mov	 eax, esi
  00309	5e		 pop	 esi

; 184  : 	}
; 185  : }

  0030a	5d		 pop	 ebp
  0030b	c2 08 00	 ret	 8
$LN33@Find:

; 166  : 		case CSymbolBaseData::SYMBOL_TEXT_G: //g
; 167  : 			return GetTool(pSymbolData, m_pTextGTool);

  0030e	8b 71 74	 mov	 esi, DWORD PTR [ecx+116]

; 232  : 	if(pTool != NULL)

  00311	85 f6		 test	 esi, esi
  00313	0f 84 0e fd ff
	ff		 je	 $LN44@Find

; 233  : 		pTool->SetSymbolData(pSymbolData);

  00319	ff 75 08	 push	 DWORD PTR _pSymbolData$[ebp]
  0031c	8b ce		 mov	 ecx, esi
  0031e	e8 00 00 00 00	 call	 ?SetSymbolData@CSymbolTool@@QAEXPAVCSymbolData@@@Z ; CSymbolTool::SetSymbolData

; 166  : 		case CSymbolBaseData::SYMBOL_TEXT_G: //g
; 167  : 			return GetTool(pSymbolData, m_pTextGTool);

  00323	8b c6		 mov	 eax, esi
  00325	5e		 pop	 esi

; 184  : 	}
; 185  : }

  00326	5d		 pop	 ebp
  00327	c2 08 00	 ret	 8
$LN34@Find:

; 168  : 		case CSymbolBaseData::SYMBOL_TEXT_H: //h
; 169  : 			return GetTool(pSymbolData, m_pTextHTool);

  0032a	8b 71 78	 mov	 esi, DWORD PTR [ecx+120]

; 232  : 	if(pTool != NULL)

  0032d	85 f6		 test	 esi, esi
  0032f	0f 84 f2 fc ff
	ff		 je	 $LN44@Find

; 233  : 		pTool->SetSymbolData(pSymbolData);

  00335	ff 75 08	 push	 DWORD PTR _pSymbolData$[ebp]
  00338	8b ce		 mov	 ecx, esi
  0033a	e8 00 00 00 00	 call	 ?SetSymbolData@CSymbolTool@@QAEXPAVCSymbolData@@@Z ; CSymbolTool::SetSymbolData

; 168  : 		case CSymbolBaseData::SYMBOL_TEXT_H: //h
; 169  : 			return GetTool(pSymbolData, m_pTextHTool);

  0033f	8b c6		 mov	 eax, esi
  00341	5e		 pop	 esi

; 184  : 	}
; 185  : }

  00342	5d		 pop	 ebp
  00343	c2 08 00	 ret	 8
$LN35@Find:

; 170  : 		case CSymbolBaseData::SYMBOL_CHAR_1: //h
; 171  : 			return GetTool(pSymbolData, m_pChar1Tool);

  00346	8b 71 7c	 mov	 esi, DWORD PTR [ecx+124]

; 232  : 	if(pTool != NULL)

  00349	85 f6		 test	 esi, esi
  0034b	0f 84 d6 fc ff
	ff		 je	 $LN44@Find

; 233  : 		pTool->SetSymbolData(pSymbolData);

  00351	ff 75 08	 push	 DWORD PTR _pSymbolData$[ebp]
  00354	8b ce		 mov	 ecx, esi
  00356	e8 00 00 00 00	 call	 ?SetSymbolData@CSymbolTool@@QAEXPAVCSymbolData@@@Z ; CSymbolTool::SetSymbolData

; 170  : 		case CSymbolBaseData::SYMBOL_CHAR_1: //h
; 171  : 			return GetTool(pSymbolData, m_pChar1Tool);

  0035b	8b c6		 mov	 eax, esi
  0035d	5e		 pop	 esi

; 184  : 	}
; 185  : }

  0035e	5d		 pop	 ebp
  0035f	c2 08 00	 ret	 8
$LN36@Find:

; 172  : 		case CSymbolBaseData::SYMBOL_CHAR_2: //h
; 173  : 			return GetTool(pSymbolData, m_pChar2Tool);

  00362	8b b1 80 00 00
	00		 mov	 esi, DWORD PTR [ecx+128]

; 232  : 	if(pTool != NULL)

  00368	85 f6		 test	 esi, esi
  0036a	0f 84 b7 fc ff
	ff		 je	 $LN44@Find

; 233  : 		pTool->SetSymbolData(pSymbolData);

  00370	ff 75 08	 push	 DWORD PTR _pSymbolData$[ebp]
  00373	8b ce		 mov	 ecx, esi
  00375	e8 00 00 00 00	 call	 ?SetSymbolData@CSymbolTool@@QAEXPAVCSymbolData@@@Z ; CSymbolTool::SetSymbolData

; 172  : 		case CSymbolBaseData::SYMBOL_CHAR_2: //h
; 173  : 			return GetTool(pSymbolData, m_pChar2Tool);

  0037a	8b c6		 mov	 eax, esi
  0037c	5e		 pop	 esi

; 184  : 	}
; 185  : }

  0037d	5d		 pop	 ebp
  0037e	c2 08 00	 ret	 8
$LN37@Find:

; 174  : 		case CSymbolBaseData::SYMBOL_CHAR_3: //h
; 175  : 			return GetTool(pSymbolData, m_pChar3Tool);

  00381	8b b1 84 00 00
	00		 mov	 esi, DWORD PTR [ecx+132]

; 232  : 	if(pTool != NULL)

  00387	85 f6		 test	 esi, esi
  00389	0f 84 98 fc ff
	ff		 je	 $LN44@Find

; 233  : 		pTool->SetSymbolData(pSymbolData);

  0038f	ff 75 08	 push	 DWORD PTR _pSymbolData$[ebp]
  00392	8b ce		 mov	 ecx, esi
  00394	e8 00 00 00 00	 call	 ?SetSymbolData@CSymbolTool@@QAEXPAVCSymbolData@@@Z ; CSymbolTool::SetSymbolData

; 174  : 		case CSymbolBaseData::SYMBOL_CHAR_3: //h
; 175  : 			return GetTool(pSymbolData, m_pChar3Tool);

  00399	8b c6		 mov	 eax, esi
  0039b	5e		 pop	 esi

; 184  : 	}
; 185  : }

  0039c	5d		 pop	 ebp
  0039d	c2 08 00	 ret	 8
$LN38@Find:

; 176  : 		case CSymbolBaseData::SYMBOL_CHAR_4: //h
; 177  : 			return GetTool(pSymbolData, m_pChar4Tool);

  003a0	8b b1 88 00 00
	00		 mov	 esi, DWORD PTR [ecx+136]

; 232  : 	if(pTool != NULL)

  003a6	85 f6		 test	 esi, esi
  003a8	0f 84 79 fc ff
	ff		 je	 $LN44@Find

; 233  : 		pTool->SetSymbolData(pSymbolData);

  003ae	ff 75 08	 push	 DWORD PTR _pSymbolData$[ebp]
  003b1	8b ce		 mov	 ecx, esi
  003b3	e8 00 00 00 00	 call	 ?SetSymbolData@CSymbolTool@@QAEXPAVCSymbolData@@@Z ; CSymbolTool::SetSymbolData

; 176  : 		case CSymbolBaseData::SYMBOL_CHAR_4: //h
; 177  : 			return GetTool(pSymbolData, m_pChar4Tool);

  003b8	8b c6		 mov	 eax, esi
  003ba	5e		 pop	 esi

; 184  : 	}
; 185  : }

  003bb	5d		 pop	 ebp
  003bc	c2 08 00	 ret	 8
$LN39@Find:

; 178  : 		case CSymbolBaseData::SYMBOL_CHAR_5: //h
; 179  : 			return GetTool(pSymbolData, m_pChar5Tool);

  003bf	8b b1 8c 00 00
	00		 mov	 esi, DWORD PTR [ecx+140]

; 232  : 	if(pTool != NULL)

  003c5	85 f6		 test	 esi, esi
  003c7	0f 84 5a fc ff
	ff		 je	 $LN44@Find

; 233  : 		pTool->SetSymbolData(pSymbolData);

  003cd	ff 75 08	 push	 DWORD PTR _pSymbolData$[ebp]
  003d0	8b ce		 mov	 ecx, esi
  003d2	e8 00 00 00 00	 call	 ?SetSymbolData@CSymbolTool@@QAEXPAVCSymbolData@@@Z ; CSymbolTool::SetSymbolData

; 178  : 		case CSymbolBaseData::SYMBOL_CHAR_5: //h
; 179  : 			return GetTool(pSymbolData, m_pChar5Tool);

  003d7	8b c6		 mov	 eax, esi
  003d9	5e		 pop	 esi

; 184  : 	}
; 185  : }

  003da	5d		 pop	 ebp
  003db	c2 08 00	 ret	 8
$LN40@Find:

; 180  : 		case CSymbolBaseData::SYMBOL_CHAR_6: //h
; 181  : 			return GetTool(pSymbolData, m_pChar6Tool);

  003de	8b b1 90 00 00
	00		 mov	 esi, DWORD PTR [ecx+144]

; 232  : 	if(pTool != NULL)

  003e4	85 f6		 test	 esi, esi
  003e6	0f 84 3b fc ff
	ff		 je	 $LN44@Find

; 233  : 		pTool->SetSymbolData(pSymbolData);

  003ec	ff 75 08	 push	 DWORD PTR _pSymbolData$[ebp]
  003ef	8b ce		 mov	 ecx, esi
  003f1	e8 00 00 00 00	 call	 ?SetSymbolData@CSymbolTool@@QAEXPAVCSymbolData@@@Z ; CSymbolTool::SetSymbolData

; 180  : 		case CSymbolBaseData::SYMBOL_CHAR_6: //h
; 181  : 			return GetTool(pSymbolData, m_pChar6Tool);

  003f6	8b c6		 mov	 eax, esi
  003f8	5e		 pop	 esi

; 184  : 	}
; 185  : }

  003f9	5d		 pop	 ebp
  003fa	c2 08 00	 ret	 8
$LN41@Find:

; 182  : 		default:
; 183  : 			return NULL;

  003fd	33 c0		 xor	 eax, eax
  003ff	5e		 pop	 esi

; 184  : 	}
; 185  : }

  00400	5d		 pop	 ebp
  00401	c2 08 00	 ret	 8
$LN151@Find:
  00404	00 00 00 00	 DD	 $LN41@Find
  00408	00 00 00 00	 DD	 $LN6@Find
  0040c	00 00 00 00	 DD	 $LN7@Find
  00410	00 00 00 00	 DD	 $LN8@Find
  00414	00 00 00 00	 DD	 $LN9@Find
  00418	00 00 00 00	 DD	 $LN41@Find
  0041c	00 00 00 00	 DD	 $LN5@Find
  00420	00 00 00 00	 DD	 $LN10@Find
  00424	00 00 00 00	 DD	 $LN11@Find
  00428	00 00 00 00	 DD	 $LN12@Find
  0042c	00 00 00 00	 DD	 $LN13@Find
  00430	00 00 00 00	 DD	 $LN14@Find
  00434	00 00 00 00	 DD	 $LN15@Find
  00438	00 00 00 00	 DD	 $LN16@Find
  0043c	00 00 00 00	 DD	 $LN17@Find
  00440	00 00 00 00	 DD	 $LN18@Find
  00444	00 00 00 00	 DD	 $LN19@Find
  00448	00 00 00 00	 DD	 $LN20@Find
  0044c	00 00 00 00	 DD	 $LN21@Find
  00450	00 00 00 00	 DD	 $LN22@Find
  00454	00 00 00 00	 DD	 $LN23@Find
  00458	00 00 00 00	 DD	 $LN24@Find
  0045c	00 00 00 00	 DD	 $LN25@Find
  00460	00 00 00 00	 DD	 $LN26@Find
  00464	00 00 00 00	 DD	 $LN41@Find
  00468	00 00 00 00	 DD	 $LN27@Find
  0046c	00 00 00 00	 DD	 $LN28@Find
  00470	00 00 00 00	 DD	 $LN29@Find
  00474	00 00 00 00	 DD	 $LN30@Find
  00478	00 00 00 00	 DD	 $LN31@Find
  0047c	00 00 00 00	 DD	 $LN32@Find
  00480	00 00 00 00	 DD	 $LN33@Find
  00484	00 00 00 00	 DD	 $LN34@Find
  00488	00 00 00 00	 DD	 $LN35@Find
  0048c	00 00 00 00	 DD	 $LN36@Find
  00490	00 00 00 00	 DD	 $LN37@Find
  00494	00 00 00 00	 DD	 $LN38@Find
  00498	00 00 00 00	 DD	 $LN39@Find
  0049c	00 00 00 00	 DD	 $LN40@Find
?Find@CSymbolSingleton@@QAEPAVCSymbolTool@@PAVCSymbolData@@W4TOOLTYPE@CSymbolBaseData@@@Z ENDP ; CSymbolSingleton::Find
_TEXT	ENDS
; Function compile flags: /Ogtp
; File D:\git\src\IBK\IBK_DRFN\ProjSrc\SrcChartEx\ChartAddIn\ChartAnalysisToolAddIn\Symbol\SymbolSingleton.cpp
;	COMDAT ??1CSymbolSingleton@@QAE@XZ
_TEXT	SEGMENT
??1CSymbolSingleton@@QAE@XZ PROC			; CSymbolSingleton::~CSymbolSingleton, COMDAT
; _this$ = ecx

; 62   : {

  00000	56		 push	 esi
  00001	8b f1		 mov	 esi, ecx
  00003	57		 push	 edi

; 63   : 	delete m_pSelectTool;

  00004	6a 30		 push	 48			; 00000030H
  00006	ff 36		 push	 DWORD PTR [esi]
  00008	e8 00 00 00 00	 call	 ??3@YAXPAXI@Z		; operator delete

; 64   : 	delete m_pFigureSquareTool;

  0000d	6a 28		 push	 40			; 00000028H
  0000f	ff 76 04	 push	 DWORD PTR [esi+4]
  00012	e8 00 00 00 00	 call	 ??3@YAXPAXI@Z		; operator delete

; 65   : 	delete m_pFigureCircleTool;

  00017	6a 28		 push	 40			; 00000028H
  00019	ff 76 08	 push	 DWORD PTR [esi+8]
  0001c	e8 00 00 00 00	 call	 ??3@YAXPAXI@Z		; operator delete

; 66   : 	delete m_pFigureTriangleTool;

  00021	6a 28		 push	 40			; 00000028H
  00023	ff 76 0c	 push	 DWORD PTR [esi+12]
  00026	e8 00 00 00 00	 call	 ??3@YAXPAXI@Z		; operator delete

; 67   : 	delete m_pTextTool;

  0002b	8b 7e 10	 mov	 edi, DWORD PTR [esi+16]
  0002e	83 c4 20	 add	 esp, 32			; 00000020H
  00031	85 ff		 test	 edi, edi
  00033	74 13		 je	 SHORT $LN6@CSymbolSin
  00035	8d 4f 28	 lea	 ecx, DWORD PTR [edi+40]
  00038	e8 00 00 00 00	 call	 ??1CTextDraw@@UAE@XZ	; CTextDraw::~CTextDraw
  0003d	6a 4c		 push	 76			; 0000004cH
  0003f	57		 push	 edi
  00040	e8 00 00 00 00	 call	 ??3@YAXPAXI@Z		; operator delete
  00045	83 c4 08	 add	 esp, 8
$LN6@CSymbolSin:

; 68   : 	delete m_pArrowLeftTool;

  00048	6a 2c		 push	 44			; 0000002cH
  0004a	ff 76 14	 push	 DWORD PTR [esi+20]
  0004d	e8 00 00 00 00	 call	 ??3@YAXPAXI@Z		; operator delete

; 69   : 	delete m_pArrowRightTool;

  00052	6a 2c		 push	 44			; 0000002cH
  00054	ff 76 18	 push	 DWORD PTR [esi+24]
  00057	e8 00 00 00 00	 call	 ??3@YAXPAXI@Z		; operator delete

; 70   : 	delete m_pArrowUpTool;

  0005c	6a 2c		 push	 44			; 0000002cH
  0005e	ff 76 1c	 push	 DWORD PTR [esi+28]
  00061	e8 00 00 00 00	 call	 ??3@YAXPAXI@Z		; operator delete

; 71   : 	delete m_pArrowDownTool; 

  00066	6a 2c		 push	 44			; 0000002cH
  00068	ff 76 20	 push	 DWORD PTR [esi+32]
  0006b	e8 00 00 00 00	 call	 ??3@YAXPAXI@Z		; operator delete

; 72   : 	delete m_pArrowLeftTopTool;

  00070	6a 2c		 push	 44			; 0000002cH
  00072	ff 76 24	 push	 DWORD PTR [esi+36]
  00075	e8 00 00 00 00	 call	 ??3@YAXPAXI@Z		; operator delete

; 73   : 	delete m_pArrowLeftBottomTool; 

  0007a	6a 2c		 push	 44			; 0000002cH
  0007c	ff 76 28	 push	 DWORD PTR [esi+40]
  0007f	e8 00 00 00 00	 call	 ??3@YAXPAXI@Z		; operator delete

; 74   : 	delete m_pArrowRightTopTool;

  00084	6a 2c		 push	 44			; 0000002cH
  00086	ff 76 2c	 push	 DWORD PTR [esi+44]
  00089	e8 00 00 00 00	 call	 ??3@YAXPAXI@Z		; operator delete

; 75   : 	delete m_pArrowRightBottomTool;

  0008e	6a 2c		 push	 44			; 0000002cH
  00090	ff 76 30	 push	 DWORD PTR [esi+48]
  00093	e8 00 00 00 00	 call	 ??3@YAXPAXI@Z		; operator delete
  00098	83 c4 40	 add	 esp, 64			; 00000040H

; 76   : 	delete m_pNumberOneTool; 

  0009b	6a 2c		 push	 44			; 0000002cH
  0009d	ff 76 34	 push	 DWORD PTR [esi+52]
  000a0	e8 00 00 00 00	 call	 ??3@YAXPAXI@Z		; operator delete

; 77   : 	delete m_pNumberTwoTool; 

  000a5	6a 2c		 push	 44			; 0000002cH
  000a7	ff 76 38	 push	 DWORD PTR [esi+56]
  000aa	e8 00 00 00 00	 call	 ??3@YAXPAXI@Z		; operator delete

; 78   : 	delete m_pNumberThreeTool;

  000af	6a 2c		 push	 44			; 0000002cH
  000b1	ff 76 3c	 push	 DWORD PTR [esi+60]
  000b4	e8 00 00 00 00	 call	 ??3@YAXPAXI@Z		; operator delete

; 79   : 	delete m_pNumberFourTool;

  000b9	6a 2c		 push	 44			; 0000002cH
  000bb	ff 76 40	 push	 DWORD PTR [esi+64]
  000be	e8 00 00 00 00	 call	 ??3@YAXPAXI@Z		; operator delete

; 80   : 	delete m_pNumberFiveTool;

  000c3	6a 2c		 push	 44			; 0000002cH
  000c5	ff 76 44	 push	 DWORD PTR [esi+68]
  000c8	e8 00 00 00 00	 call	 ??3@YAXPAXI@Z		; operator delete

; 81   : 	delete m_pNumberSixTool;

  000cd	6a 2c		 push	 44			; 0000002cH
  000cf	ff 76 48	 push	 DWORD PTR [esi+72]
  000d2	e8 00 00 00 00	 call	 ??3@YAXPAXI@Z		; operator delete

; 82   : 	delete m_pNumberSevenTool;

  000d7	6a 2c		 push	 44			; 0000002cH
  000d9	ff 76 4c	 push	 DWORD PTR [esi+76]
  000dc	e8 00 00 00 00	 call	 ??3@YAXPAXI@Z		; operator delete

; 83   : 	delete m_pNumberEightTool;

  000e1	6a 2c		 push	 44			; 0000002cH
  000e3	ff 76 50	 push	 DWORD PTR [esi+80]
  000e6	e8 00 00 00 00	 call	 ??3@YAXPAXI@Z		; operator delete
  000eb	83 c4 40	 add	 esp, 64			; 00000040H

; 84   : 	delete m_pNumberNineTool;

  000ee	6a 2c		 push	 44			; 0000002cH
  000f0	ff 76 54	 push	 DWORD PTR [esi+84]
  000f3	e8 00 00 00 00	 call	 ??3@YAXPAXI@Z		; operator delete

; 85   : 	//delete m_pNumberTenTool;
; 86   : 	delete m_pTextATool;

  000f8	6a 2c		 push	 44			; 0000002cH
  000fa	ff 76 5c	 push	 DWORD PTR [esi+92]
  000fd	e8 00 00 00 00	 call	 ??3@YAXPAXI@Z		; operator delete

; 87   : 	delete m_pTextBTool;

  00102	6a 2c		 push	 44			; 0000002cH
  00104	ff 76 60	 push	 DWORD PTR [esi+96]
  00107	e8 00 00 00 00	 call	 ??3@YAXPAXI@Z		; operator delete

; 88   : 	delete m_pTextCTool;

  0010c	6a 2c		 push	 44			; 0000002cH
  0010e	ff 76 64	 push	 DWORD PTR [esi+100]
  00111	e8 00 00 00 00	 call	 ??3@YAXPAXI@Z		; operator delete

; 89   : 	delete m_pTextDTool;

  00116	6a 2c		 push	 44			; 0000002cH
  00118	ff 76 68	 push	 DWORD PTR [esi+104]
  0011b	e8 00 00 00 00	 call	 ??3@YAXPAXI@Z		; operator delete

; 90   : 	delete m_pTextETool;

  00120	6a 2c		 push	 44			; 0000002cH
  00122	ff 76 6c	 push	 DWORD PTR [esi+108]
  00125	e8 00 00 00 00	 call	 ??3@YAXPAXI@Z		; operator delete

; 91   : 	delete m_pTextFTool;

  0012a	6a 2c		 push	 44			; 0000002cH
  0012c	ff 76 70	 push	 DWORD PTR [esi+112]
  0012f	e8 00 00 00 00	 call	 ??3@YAXPAXI@Z		; operator delete

; 92   : 	delete m_pTextGTool;

  00134	6a 2c		 push	 44			; 0000002cH
  00136	ff 76 74	 push	 DWORD PTR [esi+116]
  00139	e8 00 00 00 00	 call	 ??3@YAXPAXI@Z		; operator delete
  0013e	83 c4 40	 add	 esp, 64			; 00000040H

; 93   : 	delete m_pTextHTool;

  00141	6a 2c		 push	 44			; 0000002cH
  00143	ff 76 78	 push	 DWORD PTR [esi+120]
  00146	e8 00 00 00 00	 call	 ??3@YAXPAXI@Z		; operator delete

; 94   : 
; 95   : 	delete m_pChar1Tool;

  0014b	6a 2c		 push	 44			; 0000002cH
  0014d	ff 76 7c	 push	 DWORD PTR [esi+124]
  00150	e8 00 00 00 00	 call	 ??3@YAXPAXI@Z		; operator delete

; 96   : 	delete m_pChar2Tool;

  00155	6a 2c		 push	 44			; 0000002cH
  00157	ff b6 80 00 00
	00		 push	 DWORD PTR [esi+128]
  0015d	e8 00 00 00 00	 call	 ??3@YAXPAXI@Z		; operator delete

; 97   : 	delete m_pChar3Tool;

  00162	6a 2c		 push	 44			; 0000002cH
  00164	ff b6 84 00 00
	00		 push	 DWORD PTR [esi+132]
  0016a	e8 00 00 00 00	 call	 ??3@YAXPAXI@Z		; operator delete

; 98   : 	delete m_pChar4Tool;

  0016f	6a 2c		 push	 44			; 0000002cH
  00171	ff b6 88 00 00
	00		 push	 DWORD PTR [esi+136]
  00177	e8 00 00 00 00	 call	 ??3@YAXPAXI@Z		; operator delete

; 99   : 	delete m_pChar5Tool;

  0017c	6a 2c		 push	 44			; 0000002cH
  0017e	ff b6 8c 00 00
	00		 push	 DWORD PTR [esi+140]
  00184	e8 00 00 00 00	 call	 ??3@YAXPAXI@Z		; operator delete

; 100  : 	delete m_pChar6Tool;

  00189	6a 2c		 push	 44			; 0000002cH
  0018b	ff b6 90 00 00
	00		 push	 DWORD PTR [esi+144]
  00191	e8 00 00 00 00	 call	 ??3@YAXPAXI@Z		; operator delete
  00196	83 c4 38	 add	 esp, 56			; 00000038H
  00199	5f		 pop	 edi
  0019a	5e		 pop	 esi

; 101  : }

  0019b	c3		 ret	 0
??1CSymbolSingleton@@QAE@XZ ENDP			; CSymbolSingleton::~CSymbolSingleton
_TEXT	ENDS
; Function compile flags: /Ogtp
; File D:\git\src\IBK\IBK_DRFN\ProjSrc\SrcChartEx\ChartAddIn\ChartAnalysisToolAddIn\Symbol\SymbolSingleton.cpp
; File C:\Program Files (x86)\Microsoft Visual Studio\2019\Community\VC\Tools\MSVC\14.29.30133\atlmfc\include\atltypes.h
; File D:\git\src\IBK\IBK_DRFN\ProjSrc\SrcChartEx\ChartAddIn\ChartAnalysisToolAddIn\Symbol\SymbolSingleton.cpp
; File C:\Program Files (x86)\Microsoft Visual Studio\2019\Community\VC\Tools\MSVC\14.29.30133\atlmfc\include\atltypes.h
; File D:\git\src\IBK\IBK_DRFN\ProjSrc\SrcChartEx\ChartAddIn\ChartAnalysisToolAddIn\Symbol\SymbolSingleton.cpp
; File C:\Program Files (x86)\Microsoft Visual Studio\2019\Community\VC\Tools\MSVC\14.29.30133\atlmfc\include\atltypes.h
; File D:\git\src\IBK\IBK_DRFN\ProjSrc\SrcChartEx\ChartAddIn\ChartAnalysisToolAddIn\Symbol\SymbolSingleton.cpp
; File C:\Program Files (x86)\Microsoft Visual Studio\2019\Community\VC\Tools\MSVC\14.29.30133\atlmfc\include\atltypes.h
; File D:\git\src\IBK\IBK_DRFN\ProjSrc\SrcChartEx\ChartAddIn\ChartAnalysisToolAddIn\Symbol\SymbolSingleton.cpp
; File C:\Program Files (x86)\Microsoft Visual Studio\2019\Community\VC\Tools\MSVC\14.29.30133\atlmfc\include\atltypes.h
; File D:\git\src\IBK\IBK_DRFN\ProjSrc\SrcChartEx\ChartAddIn\ChartAnalysisToolAddIn\Symbol\SymbolSingleton.cpp
; File C:\Program Files (x86)\Microsoft Visual Studio\2019\Community\VC\Tools\MSVC\14.29.30133\atlmfc\include\atltypes.h
; File D:\git\src\IBK\IBK_DRFN\ProjSrc\SrcChartEx\ChartAddIn\ChartAnalysisToolAddIn\Symbol\SymbolSingleton.cpp
; File C:\Program Files (x86)\Microsoft Visual Studio\2019\Community\VC\Tools\MSVC\14.29.30133\atlmfc\include\atltypes.h
; File D:\git\src\IBK\IBK_DRFN\ProjSrc\SrcChartEx\ChartAddIn\ChartAnalysisToolAddIn\Symbol\SymbolSingleton.cpp
; File C:\Program Files (x86)\Microsoft Visual Studio\2019\Community\VC\Tools\MSVC\14.29.30133\atlmfc\include\atltypes.h
; File D:\git\src\IBK\IBK_DRFN\ProjSrc\SrcChartEx\ChartAddIn\ChartAnalysisToolAddIn\Symbol\SymbolSingleton.cpp
; File C:\Program Files (x86)\Microsoft Visual Studio\2019\Community\VC\Tools\MSVC\14.29.30133\atlmfc\include\atltypes.h
; File D:\git\src\IBK\IBK_DRFN\ProjSrc\SrcChartEx\ChartAddIn\ChartAnalysisToolAddIn\Symbol\SymbolSingleton.cpp
; File C:\Program Files (x86)\Microsoft Visual Studio\2019\Community\VC\Tools\MSVC\14.29.30133\atlmfc\include\atltypes.h
; File D:\git\src\IBK\IBK_DRFN\ProjSrc\SrcChartEx\ChartAddIn\ChartAnalysisToolAddIn\Symbol\SymbolSingleton.cpp
; File C:\Program Files (x86)\Microsoft Visual Studio\2019\Community\VC\Tools\MSVC\14.29.30133\atlmfc\include\atltypes.h
; File D:\git\src\IBK\IBK_DRFN\ProjSrc\SrcChartEx\ChartAddIn\ChartAnalysisToolAddIn\Symbol\SymbolSingleton.cpp
; File C:\Program Files (x86)\Microsoft Visual Studio\2019\Community\VC\Tools\MSVC\14.29.30133\atlmfc\include\atltypes.h
; File D:\git\src\IBK\IBK_DRFN\ProjSrc\SrcChartEx\ChartAddIn\ChartAnalysisToolAddIn\Symbol\SymbolSingleton.cpp
; File C:\Program Files (x86)\Microsoft Visual Studio\2019\Community\VC\Tools\MSVC\14.29.30133\atlmfc\include\atltypes.h
; File D:\git\src\IBK\IBK_DRFN\ProjSrc\SrcChartEx\ChartAddIn\ChartAnalysisToolAddIn\Symbol\SymbolSingleton.cpp
; File C:\Program Files (x86)\Microsoft Visual Studio\2019\Community\VC\Tools\MSVC\14.29.30133\atlmfc\include\atltypes.h
; File D:\git\src\IBK\IBK_DRFN\ProjSrc\SrcChartEx\ChartAddIn\ChartAnalysisToolAddIn\Symbol\SymbolSingleton.cpp
; File C:\Program Files (x86)\Microsoft Visual Studio\2019\Community\VC\Tools\MSVC\14.29.30133\atlmfc\include\atltypes.h
; File D:\git\src\IBK\IBK_DRFN\ProjSrc\SrcChartEx\ChartAddIn\ChartAnalysisToolAddIn\Symbol\SymbolSingleton.cpp
; File C:\Program Files (x86)\Microsoft Visual Studio\2019\Community\VC\Tools\MSVC\14.29.30133\atlmfc\include\atltypes.h
; File D:\git\src\IBK\IBK_DRFN\ProjSrc\SrcChartEx\ChartAddIn\ChartAnalysisToolAddIn\Symbol\SymbolSingleton.cpp
; File C:\Program Files (x86)\Microsoft Visual Studio\2019\Community\VC\Tools\MSVC\14.29.30133\atlmfc\include\atltypes.h
; File D:\git\src\IBK\IBK_DRFN\ProjSrc\SrcChartEx\ChartAddIn\ChartAnalysisToolAddIn\Symbol\SymbolSingleton.cpp
; File C:\Program Files (x86)\Microsoft Visual Studio\2019\Community\VC\Tools\MSVC\14.29.30133\atlmfc\include\atltypes.h
; File D:\git\src\IBK\IBK_DRFN\ProjSrc\SrcChartEx\ChartAddIn\ChartAnalysisToolAddIn\Symbol\SymbolSingleton.cpp
; File C:\Program Files (x86)\Microsoft Visual Studio\2019\Community\VC\Tools\MSVC\14.29.30133\atlmfc\include\atltypes.h
; File D:\git\src\IBK\IBK_DRFN\ProjSrc\SrcChartEx\ChartAddIn\ChartAnalysisToolAddIn\Symbol\SymbolSingleton.cpp
; File C:\Program Files (x86)\Microsoft Visual Studio\2019\Community\VC\Tools\MSVC\14.29.30133\atlmfc\include\atltypes.h
; File D:\git\src\IBK\IBK_DRFN\ProjSrc\SrcChartEx\ChartAddIn\ChartAnalysisToolAddIn\Symbol\SymbolSingleton.cpp
; File C:\Program Files (x86)\Microsoft Visual Studio\2019\Community\VC\Tools\MSVC\14.29.30133\atlmfc\include\atltypes.h
; File D:\git\src\IBK\IBK_DRFN\ProjSrc\SrcChartEx\ChartAddIn\ChartAnalysisToolAddIn\Symbol\SymbolSingleton.cpp
; File C:\Program Files (x86)\Microsoft Visual Studio\2019\Community\VC\Tools\MSVC\14.29.30133\atlmfc\include\atltypes.h
; File D:\git\src\IBK\IBK_DRFN\ProjSrc\SrcChartEx\ChartAddIn\ChartAnalysisToolAddIn\Symbol\SymbolSingleton.cpp
; File C:\Program Files (x86)\Microsoft Visual Studio\2019\Community\VC\Tools\MSVC\14.29.30133\atlmfc\include\atltypes.h
; File D:\git\src\IBK\IBK_DRFN\ProjSrc\SrcChartEx\ChartAddIn\ChartAnalysisToolAddIn\Symbol\SymbolSingleton.cpp
; File C:\Program Files (x86)\Microsoft Visual Studio\2019\Community\VC\Tools\MSVC\14.29.30133\atlmfc\include\atltypes.h
; File D:\git\src\IBK\IBK_DRFN\ProjSrc\SrcChartEx\ChartAddIn\ChartAnalysisToolAddIn\Symbol\SymbolSingleton.cpp
; File C:\Program Files (x86)\Microsoft Visual Studio\2019\Community\VC\Tools\MSVC\14.29.30133\atlmfc\include\atltypes.h
; File D:\git\src\IBK\IBK_DRFN\ProjSrc\SrcChartEx\ChartAddIn\ChartAnalysisToolAddIn\Symbol\SymbolSingleton.cpp
; File C:\Program Files (x86)\Microsoft Visual Studio\2019\Community\VC\Tools\MSVC\14.29.30133\atlmfc\include\atltypes.h
; File D:\git\src\IBK\IBK_DRFN\ProjSrc\SrcChartEx\ChartAddIn\ChartAnalysisToolAddIn\Symbol\SymbolSingleton.cpp
; File C:\Program Files (x86)\Microsoft Visual Studio\2019\Community\VC\Tools\MSVC\14.29.30133\atlmfc\include\atltypes.h
; File D:\git\src\IBK\IBK_DRFN\ProjSrc\SrcChartEx\ChartAddIn\ChartAnalysisToolAddIn\Symbol\SymbolSingleton.cpp
; File C:\Program Files (x86)\Microsoft Visual Studio\2019\Community\VC\Tools\MSVC\14.29.30133\atlmfc\include\atltypes.h
; File D:\git\src\IBK\IBK_DRFN\ProjSrc\SrcChartEx\ChartAddIn\ChartAnalysisToolAddIn\Symbol\SymbolSingleton.cpp
; File C:\Program Files (x86)\Microsoft Visual Studio\2019\Community\VC\Tools\MSVC\14.29.30133\atlmfc\include\atltypes.h
; File D:\git\src\IBK\IBK_DRFN\ProjSrc\SrcChartEx\ChartAddIn\ChartAnalysisToolAddIn\Symbol\SymbolSingleton.cpp
; File C:\Program Files (x86)\Microsoft Visual Studio\2019\Community\VC\Tools\MSVC\14.29.30133\atlmfc\include\atltypes.h
; File D:\git\src\IBK\IBK_DRFN\ProjSrc\SrcChartEx\ChartAddIn\ChartAnalysisToolAddIn\Symbol\SymbolSingleton.cpp
; File C:\Program Files (x86)\Microsoft Visual Studio\2019\Community\VC\Tools\MSVC\14.29.30133\atlmfc\include\atltypes.h
; File D:\git\src\IBK\IBK_DRFN\ProjSrc\SrcChartEx\ChartAddIn\ChartAnalysisToolAddIn\Symbol\SymbolSingleton.cpp
; File C:\Program Files (x86)\Microsoft Visual Studio\2019\Community\VC\Tools\MSVC\14.29.30133\atlmfc\include\atltypes.h
; File D:\git\src\IBK\IBK_DRFN\ProjSrc\SrcChartEx\ChartAddIn\ChartAnalysisToolAddIn\Symbol\SymbolSingleton.cpp
; File C:\Program Files (x86)\Microsoft Visual Studio\2019\Community\VC\Tools\MSVC\14.29.30133\atlmfc\include\atltypes.h
; File D:\git\src\IBK\IBK_DRFN\ProjSrc\SrcChartEx\ChartAddIn\ChartAnalysisToolAddIn\Symbol\SymbolSingleton.cpp
; File C:\Program Files (x86)\Microsoft Visual Studio\2019\Community\VC\Tools\MSVC\14.29.30133\atlmfc\include\atltypes.h
; File D:\git\src\IBK\IBK_DRFN\ProjSrc\SrcChartEx\ChartAddIn\ChartAnalysisToolAddIn\Symbol\SymbolSingleton.cpp
; File C:\Program Files (x86)\Microsoft Visual Studio\2019\Community\VC\Tools\MSVC\14.29.30133\atlmfc\include\atltypes.h
; File D:\git\src\IBK\IBK_DRFN\ProjSrc\SrcChartEx\ChartAddIn\ChartAnalysisToolAddIn\Symbol\SymbolSingleton.cpp
; File C:\Program Files (x86)\Microsoft Visual Studio\2019\Community\VC\Tools\MSVC\14.29.30133\atlmfc\include\atltypes.h
; File D:\git\src\IBK\IBK_DRFN\ProjSrc\SrcChartEx\ChartAddIn\ChartAnalysisToolAddIn\Symbol\SymbolSingleton.cpp
;	COMDAT ??0CSymbolSingleton@@QAE@XZ
_TEXT	SEGMENT
$T2 = -16						; size = 4
$T3 = -16						; size = 4
$T4 = -16						; size = 4
$T5 = -16						; size = 4
$T6 = -16						; size = 4
$T7 = -16						; size = 4
$T8 = -16						; size = 4
$T9 = -16						; size = 4
$T10 = -16						; size = 4
$T11 = -16						; size = 4
$T12 = -16						; size = 4
$T13 = -16						; size = 4
$T14 = -16						; size = 4
$T15 = -16						; size = 4
$T16 = -16						; size = 4
$T17 = -16						; size = 4
$T18 = -16						; size = 4
$T19 = -16						; size = 4
$T20 = -16						; size = 4
$T21 = -16						; size = 4
$T22 = -16						; size = 4
$T23 = -16						; size = 4
$T24 = -16						; size = 4
$T25 = -16						; size = 4
$T26 = -16						; size = 4
$T27 = -16						; size = 4
$T28 = -16						; size = 4
$T29 = -16						; size = 4
$T30 = -16						; size = 4
$T31 = -16						; size = 4
$T32 = -16						; size = 4
$T33 = -16						; size = 4
$T34 = -16						; size = 4
$T35 = -16						; size = 4
$T36 = -16						; size = 4
$T37 = -16						; size = 4
__$EHRec$ = -12						; size = 12
??0CSymbolSingleton@@QAE@XZ PROC			; CSymbolSingleton::CSymbolSingleton, COMDAT
; _this$ = ecx

; 20   : {

  00000	55		 push	 ebp
  00001	8b ec		 mov	 ebp, esp
  00003	6a ff		 push	 -1
  00005	68 00 00 00 00	 push	 __ehhandler$??0CSymbolSingleton@@QAE@XZ
  0000a	64 a1 00 00 00
	00		 mov	 eax, DWORD PTR fs:0
  00010	50		 push	 eax
  00011	51		 push	 ecx
  00012	56		 push	 esi
  00013	57		 push	 edi
  00014	a1 00 00 00 00	 mov	 eax, DWORD PTR ___security_cookie
  00019	33 c5		 xor	 eax, ebp
  0001b	50		 push	 eax
  0001c	8d 45 f4	 lea	 eax, DWORD PTR __$EHRec$[ebp]
  0001f	64 a3 00 00 00
	00		 mov	 DWORD PTR fs:0, eax
  00025	8b f1		 mov	 esi, ecx

; 21   : 	m_pSelectTool = new CSelectTool();

  00027	6a 30		 push	 48			; 00000030H
  00029	e8 00 00 00 00	 call	 ??2@YAPAXI@Z		; operator new
  0002e	83 c4 04	 add	 esp, 4
  00031	89 45 f0	 mov	 DWORD PTR $T37[ebp], eax
  00034	c7 45 fc 00 00
	00 00		 mov	 DWORD PTR __$EHRec$[ebp+8], 0
  0003b	85 c0		 test	 eax, eax
  0003d	74 09		 je	 SHORT $LN3@CSymbolSin
  0003f	8b c8		 mov	 ecx, eax
  00041	e8 00 00 00 00	 call	 ??0CSelectTool@@QAE@XZ	; CSelectTool::CSelectTool
  00046	eb 02		 jmp	 SHORT $LN4@CSymbolSin
$LN3@CSymbolSin:
  00048	33 c0		 xor	 eax, eax
$LN4@CSymbolSin:

; 22   : 	m_pFigureSquareTool = new CFigure_Square_Tool();

  0004a	6a 28		 push	 40			; 00000028H
  0004c	c7 45 fc ff ff
	ff ff		 mov	 DWORD PTR __$EHRec$[ebp+8], -1
  00053	89 06		 mov	 DWORD PTR [esi], eax
  00055	e8 00 00 00 00	 call	 ??2@YAPAXI@Z		; operator new
  0005a	8b f8		 mov	 edi, eax
  0005c	83 c4 04	 add	 esp, 4
  0005f	89 7d f0	 mov	 DWORD PTR $T36[ebp], edi
  00062	c7 45 fc 01 00
	00 00		 mov	 DWORD PTR __$EHRec$[ebp+8], 1
  00069	85 ff		 test	 edi, edi
  0006b	74 41		 je	 SHORT $LN5@CSymbolSin
  0006d	0f 57 c0	 xorps	 xmm0, xmm0
  00070	8b cf		 mov	 ecx, edi
  00072	0f 11 07	 movups	 XMMWORD PTR [edi], xmm0
  00075	0f 11 47 10	 movups	 XMMWORD PTR [edi+16], xmm0
  00079	66 0f d6 47 20	 movq	 QWORD PTR [edi+32], xmm0
  0007e	e8 00 00 00 00	 call	 ??0CSymbolTool@@QAE@XZ	; CSymbolTool::CSymbolTool
; File C:\Program Files (x86)\Microsoft Visual Studio\2019\Community\VC\Tools\MSVC\14.29.30133\atlmfc\include\atltypes.h

; 400  : 	x = 0;

  00083	c7 47 10 00 00
	00 00		 mov	 DWORD PTR [edi+16], 0

; 401  : 	y = 0;

  0008a	c7 47 14 00 00
	00 00		 mov	 DWORD PTR [edi+20], 0

; 400  : 	x = 0;

  00091	c7 47 18 00 00
	00 00		 mov	 DWORD PTR [edi+24], 0

; 401  : 	y = 0;

  00098	c7 47 1c 00 00
	00 00		 mov	 DWORD PTR [edi+28], 0
  0009f	c7 07 00 00 00
	00		 mov	 DWORD PTR [edi], OFFSET ??_7CFigure_Square_Tool@@6B@
  000a5	c7 47 24 00 00
	00 00		 mov	 DWORD PTR [edi+36], OFFSET ??_7CFigure_Square_Draw@@6B@
; File D:\git\src\IBK\IBK_DRFN\ProjSrc\SrcChartEx\ChartAddIn\ChartAnalysisToolAddIn\Symbol\SymbolSingleton.cpp

; 22   : 	m_pFigureSquareTool = new CFigure_Square_Tool();

  000ac	eb 02		 jmp	 SHORT $LN6@CSymbolSin
$LN5@CSymbolSin:
  000ae	33 ff		 xor	 edi, edi
$LN6@CSymbolSin:

; 23   : 	m_pFigureCircleTool = new CFigure_Circle_Tool();

  000b0	6a 28		 push	 40			; 00000028H
  000b2	c7 45 fc ff ff
	ff ff		 mov	 DWORD PTR __$EHRec$[ebp+8], -1
  000b9	89 7e 04	 mov	 DWORD PTR [esi+4], edi
  000bc	e8 00 00 00 00	 call	 ??2@YAPAXI@Z		; operator new
  000c1	8b f8		 mov	 edi, eax
  000c3	83 c4 04	 add	 esp, 4
  000c6	89 7d f0	 mov	 DWORD PTR $T35[ebp], edi
  000c9	c7 45 fc 02 00
	00 00		 mov	 DWORD PTR __$EHRec$[ebp+8], 2
  000d0	85 ff		 test	 edi, edi
  000d2	74 41		 je	 SHORT $LN7@CSymbolSin
  000d4	0f 57 c0	 xorps	 xmm0, xmm0
  000d7	8b cf		 mov	 ecx, edi
  000d9	0f 11 07	 movups	 XMMWORD PTR [edi], xmm0
  000dc	0f 11 47 10	 movups	 XMMWORD PTR [edi+16], xmm0
  000e0	66 0f d6 47 20	 movq	 QWORD PTR [edi+32], xmm0
  000e5	e8 00 00 00 00	 call	 ??0CSymbolTool@@QAE@XZ	; CSymbolTool::CSymbolTool
; File C:\Program Files (x86)\Microsoft Visual Studio\2019\Community\VC\Tools\MSVC\14.29.30133\atlmfc\include\atltypes.h

; 400  : 	x = 0;

  000ea	c7 47 10 00 00
	00 00		 mov	 DWORD PTR [edi+16], 0

; 401  : 	y = 0;

  000f1	c7 47 14 00 00
	00 00		 mov	 DWORD PTR [edi+20], 0

; 400  : 	x = 0;

  000f8	c7 47 18 00 00
	00 00		 mov	 DWORD PTR [edi+24], 0

; 401  : 	y = 0;

  000ff	c7 47 1c 00 00
	00 00		 mov	 DWORD PTR [edi+28], 0
  00106	c7 07 00 00 00
	00		 mov	 DWORD PTR [edi], OFFSET ??_7CFigure_Circle_Tool@@6B@
  0010c	c7 47 24 00 00
	00 00		 mov	 DWORD PTR [edi+36], OFFSET ??_7CFigure_Circle_Draw@@6B@
; File D:\git\src\IBK\IBK_DRFN\ProjSrc\SrcChartEx\ChartAddIn\ChartAnalysisToolAddIn\Symbol\SymbolSingleton.cpp

; 23   : 	m_pFigureCircleTool = new CFigure_Circle_Tool();

  00113	eb 02		 jmp	 SHORT $LN8@CSymbolSin
$LN7@CSymbolSin:
  00115	33 ff		 xor	 edi, edi
$LN8@CSymbolSin:

; 24   : 	m_pFigureTriangleTool = new CFigure_Triangle_Tool();

  00117	6a 28		 push	 40			; 00000028H
  00119	c7 45 fc ff ff
	ff ff		 mov	 DWORD PTR __$EHRec$[ebp+8], -1
  00120	89 7e 08	 mov	 DWORD PTR [esi+8], edi
  00123	e8 00 00 00 00	 call	 ??2@YAPAXI@Z		; operator new
  00128	8b f8		 mov	 edi, eax
  0012a	83 c4 04	 add	 esp, 4
  0012d	89 7d f0	 mov	 DWORD PTR $T34[ebp], edi
  00130	c7 45 fc 03 00
	00 00		 mov	 DWORD PTR __$EHRec$[ebp+8], 3
  00137	85 ff		 test	 edi, edi
  00139	74 41		 je	 SHORT $LN9@CSymbolSin
  0013b	0f 57 c0	 xorps	 xmm0, xmm0
  0013e	8b cf		 mov	 ecx, edi
  00140	0f 11 07	 movups	 XMMWORD PTR [edi], xmm0
  00143	0f 11 47 10	 movups	 XMMWORD PTR [edi+16], xmm0
  00147	66 0f d6 47 20	 movq	 QWORD PTR [edi+32], xmm0
  0014c	e8 00 00 00 00	 call	 ??0CSymbolTool@@QAE@XZ	; CSymbolTool::CSymbolTool
; File C:\Program Files (x86)\Microsoft Visual Studio\2019\Community\VC\Tools\MSVC\14.29.30133\atlmfc\include\atltypes.h

; 400  : 	x = 0;

  00151	c7 47 10 00 00
	00 00		 mov	 DWORD PTR [edi+16], 0

; 401  : 	y = 0;

  00158	c7 47 14 00 00
	00 00		 mov	 DWORD PTR [edi+20], 0

; 400  : 	x = 0;

  0015f	c7 47 18 00 00
	00 00		 mov	 DWORD PTR [edi+24], 0

; 401  : 	y = 0;

  00166	c7 47 1c 00 00
	00 00		 mov	 DWORD PTR [edi+28], 0
  0016d	c7 07 00 00 00
	00		 mov	 DWORD PTR [edi], OFFSET ??_7CFigure_Triangle_Tool@@6B@
  00173	c7 47 24 00 00
	00 00		 mov	 DWORD PTR [edi+36], OFFSET ??_7CFigure_Triangle_Draw@@6B@
; File D:\git\src\IBK\IBK_DRFN\ProjSrc\SrcChartEx\ChartAddIn\ChartAnalysisToolAddIn\Symbol\SymbolSingleton.cpp

; 24   : 	m_pFigureTriangleTool = new CFigure_Triangle_Tool();

  0017a	eb 02		 jmp	 SHORT $LN10@CSymbolSin
$LN9@CSymbolSin:
  0017c	33 ff		 xor	 edi, edi
$LN10@CSymbolSin:

; 25   : 	m_pTextTool = new CTextTool();

  0017e	6a 4c		 push	 76			; 0000004cH
  00180	c7 45 fc ff ff
	ff ff		 mov	 DWORD PTR __$EHRec$[ebp+8], -1
  00187	89 7e 0c	 mov	 DWORD PTR [esi+12], edi
  0018a	e8 00 00 00 00	 call	 ??2@YAPAXI@Z		; operator new
  0018f	8b f8		 mov	 edi, eax
  00191	83 c4 04	 add	 esp, 4
  00194	89 7d f0	 mov	 DWORD PTR $T33[ebp], edi
  00197	c7 45 fc 04 00
	00 00		 mov	 DWORD PTR __$EHRec$[ebp+8], 4
  0019e	85 ff		 test	 edi, edi
  001a0	74 4e		 je	 SHORT $LN11@CSymbolSin
  001a2	6a 4c		 push	 76			; 0000004cH
  001a4	6a 00		 push	 0
  001a6	57		 push	 edi
  001a7	e8 00 00 00 00	 call	 _memset
  001ac	83 c4 0c	 add	 esp, 12			; 0000000cH
  001af	8b cf		 mov	 ecx, edi
  001b1	e8 00 00 00 00	 call	 ??0CSymbolTool@@QAE@XZ	; CSymbolTool::CSymbolTool
; File C:\Program Files (x86)\Microsoft Visual Studio\2019\Community\VC\Tools\MSVC\14.29.30133\atlmfc\include\atltypes.h

; 400  : 	x = 0;

  001b6	c7 47 10 00 00
	00 00		 mov	 DWORD PTR [edi+16], 0
  001bd	8d 4f 28	 lea	 ecx, DWORD PTR [edi+40]

; 401  : 	y = 0;

  001c0	c7 47 14 00 00
	00 00		 mov	 DWORD PTR [edi+20], 0

; 304  : 	cx = 0;

  001c7	c7 47 18 00 00
	00 00		 mov	 DWORD PTR [edi+24], 0

; 305  : 	cy = 0;

  001ce	c7 47 1c 00 00
	00 00		 mov	 DWORD PTR [edi+28], 0

; 400  : 	x = 0;

  001d5	c7 47 20 00 00
	00 00		 mov	 DWORD PTR [edi+32], 0

; 401  : 	y = 0;

  001dc	c7 47 24 00 00
	00 00		 mov	 DWORD PTR [edi+36], 0
  001e3	c7 07 00 00 00
	00		 mov	 DWORD PTR [edi], OFFSET ??_7CTextTool@@6B@
  001e9	e8 00 00 00 00	 call	 ??0CTextDraw@@QAE@XZ	; CTextDraw::CTextDraw
; File D:\git\src\IBK\IBK_DRFN\ProjSrc\SrcChartEx\ChartAddIn\ChartAnalysisToolAddIn\Symbol\SymbolSingleton.cpp

; 25   : 	m_pTextTool = new CTextTool();

  001ee	eb 02		 jmp	 SHORT $LN12@CSymbolSin
$LN11@CSymbolSin:
  001f0	33 ff		 xor	 edi, edi
$LN12@CSymbolSin:

; 26   : 	m_pArrowLeftTool = new CArrow_Left_Tool();

  001f2	6a 2c		 push	 44			; 0000002cH
  001f4	c7 45 fc ff ff
	ff ff		 mov	 DWORD PTR __$EHRec$[ebp+8], -1
  001fb	89 7e 10	 mov	 DWORD PTR [esi+16], edi
  001fe	e8 00 00 00 00	 call	 ??2@YAPAXI@Z		; operator new
  00203	8b f8		 mov	 edi, eax
  00205	83 c4 04	 add	 esp, 4
  00208	89 7d f0	 mov	 DWORD PTR $T32[ebp], edi
  0020b	c7 45 fc 05 00
	00 00		 mov	 DWORD PTR __$EHRec$[ebp+8], 5
  00212	85 ff		 test	 edi, edi
  00214	74 4d		 je	 SHORT $LN13@CSymbolSin
  00216	6a 2c		 push	 44			; 0000002cH
  00218	6a 00		 push	 0
  0021a	57		 push	 edi
  0021b	e8 00 00 00 00	 call	 _memset
  00220	83 c4 0c	 add	 esp, 12			; 0000000cH
  00223	8b cf		 mov	 ecx, edi
  00225	e8 00 00 00 00	 call	 ??0CSymbolTool@@QAE@XZ	; CSymbolTool::CSymbolTool
; File C:\Program Files (x86)\Microsoft Visual Studio\2019\Community\VC\Tools\MSVC\14.29.30133\atlmfc\include\atltypes.h

; 400  : 	x = 0;

  0022a	c7 47 10 00 00
	00 00		 mov	 DWORD PTR [edi+16], 0

; 401  : 	y = 0;

  00231	c7 47 14 00 00
	00 00		 mov	 DWORD PTR [edi+20], 0

; 304  : 	cx = 0;

  00238	c7 47 18 00 00
	00 00		 mov	 DWORD PTR [edi+24], 0

; 305  : 	cy = 0;

  0023f	c7 47 1c 00 00
	00 00		 mov	 DWORD PTR [edi+28], 0

; 400  : 	x = 0;

  00246	c7 47 20 00 00
	00 00		 mov	 DWORD PTR [edi+32], 0

; 401  : 	y = 0;

  0024d	c7 47 24 00 00
	00 00		 mov	 DWORD PTR [edi+36], 0
  00254	c7 07 00 00 00
	00		 mov	 DWORD PTR [edi], OFFSET ??_7CArrow_Left_Tool@@6B@
  0025a	c7 47 28 00 00
	00 00		 mov	 DWORD PTR [edi+40], OFFSET ??_7CArrow_Left_Draw@@6B@
; File D:\git\src\IBK\IBK_DRFN\ProjSrc\SrcChartEx\ChartAddIn\ChartAnalysisToolAddIn\Symbol\SymbolSingleton.cpp

; 26   : 	m_pArrowLeftTool = new CArrow_Left_Tool();

  00261	eb 02		 jmp	 SHORT $LN14@CSymbolSin
$LN13@CSymbolSin:
  00263	33 ff		 xor	 edi, edi
$LN14@CSymbolSin:

; 27   : 	m_pArrowRightTool = new CArrow_Right_Tool();

  00265	6a 2c		 push	 44			; 0000002cH
  00267	c7 45 fc ff ff
	ff ff		 mov	 DWORD PTR __$EHRec$[ebp+8], -1
  0026e	89 7e 14	 mov	 DWORD PTR [esi+20], edi
  00271	e8 00 00 00 00	 call	 ??2@YAPAXI@Z		; operator new
  00276	8b f8		 mov	 edi, eax
  00278	83 c4 04	 add	 esp, 4
  0027b	89 7d f0	 mov	 DWORD PTR $T31[ebp], edi
  0027e	c7 45 fc 06 00
	00 00		 mov	 DWORD PTR __$EHRec$[ebp+8], 6
  00285	85 ff		 test	 edi, edi
  00287	74 4d		 je	 SHORT $LN15@CSymbolSin
  00289	6a 2c		 push	 44			; 0000002cH
  0028b	6a 00		 push	 0
  0028d	57		 push	 edi
  0028e	e8 00 00 00 00	 call	 _memset
  00293	83 c4 0c	 add	 esp, 12			; 0000000cH
  00296	8b cf		 mov	 ecx, edi
  00298	e8 00 00 00 00	 call	 ??0CSymbolTool@@QAE@XZ	; CSymbolTool::CSymbolTool
; File C:\Program Files (x86)\Microsoft Visual Studio\2019\Community\VC\Tools\MSVC\14.29.30133\atlmfc\include\atltypes.h

; 400  : 	x = 0;

  0029d	c7 47 10 00 00
	00 00		 mov	 DWORD PTR [edi+16], 0

; 401  : 	y = 0;

  002a4	c7 47 14 00 00
	00 00		 mov	 DWORD PTR [edi+20], 0

; 304  : 	cx = 0;

  002ab	c7 47 18 00 00
	00 00		 mov	 DWORD PTR [edi+24], 0

; 305  : 	cy = 0;

  002b2	c7 47 1c 00 00
	00 00		 mov	 DWORD PTR [edi+28], 0

; 400  : 	x = 0;

  002b9	c7 47 20 00 00
	00 00		 mov	 DWORD PTR [edi+32], 0

; 401  : 	y = 0;

  002c0	c7 47 24 00 00
	00 00		 mov	 DWORD PTR [edi+36], 0
  002c7	c7 07 00 00 00
	00		 mov	 DWORD PTR [edi], OFFSET ??_7CArrow_Right_Tool@@6B@
  002cd	c7 47 28 00 00
	00 00		 mov	 DWORD PTR [edi+40], OFFSET ??_7CArrow_Right_Draw@@6B@
; File D:\git\src\IBK\IBK_DRFN\ProjSrc\SrcChartEx\ChartAddIn\ChartAnalysisToolAddIn\Symbol\SymbolSingleton.cpp

; 27   : 	m_pArrowRightTool = new CArrow_Right_Tool();

  002d4	eb 02		 jmp	 SHORT $LN16@CSymbolSin
$LN15@CSymbolSin:
  002d6	33 ff		 xor	 edi, edi
$LN16@CSymbolSin:

; 28   : 	m_pArrowUpTool = new CArrow_Up_Tool();

  002d8	6a 2c		 push	 44			; 0000002cH
  002da	c7 45 fc ff ff
	ff ff		 mov	 DWORD PTR __$EHRec$[ebp+8], -1
  002e1	89 7e 18	 mov	 DWORD PTR [esi+24], edi
  002e4	e8 00 00 00 00	 call	 ??2@YAPAXI@Z		; operator new
  002e9	8b f8		 mov	 edi, eax
  002eb	83 c4 04	 add	 esp, 4
  002ee	89 7d f0	 mov	 DWORD PTR $T30[ebp], edi
  002f1	c7 45 fc 07 00
	00 00		 mov	 DWORD PTR __$EHRec$[ebp+8], 7
  002f8	85 ff		 test	 edi, edi
  002fa	74 4d		 je	 SHORT $LN17@CSymbolSin
  002fc	6a 2c		 push	 44			; 0000002cH
  002fe	6a 00		 push	 0
  00300	57		 push	 edi
  00301	e8 00 00 00 00	 call	 _memset
  00306	83 c4 0c	 add	 esp, 12			; 0000000cH
  00309	8b cf		 mov	 ecx, edi
  0030b	e8 00 00 00 00	 call	 ??0CSymbolTool@@QAE@XZ	; CSymbolTool::CSymbolTool
; File C:\Program Files (x86)\Microsoft Visual Studio\2019\Community\VC\Tools\MSVC\14.29.30133\atlmfc\include\atltypes.h

; 400  : 	x = 0;

  00310	c7 47 10 00 00
	00 00		 mov	 DWORD PTR [edi+16], 0

; 401  : 	y = 0;

  00317	c7 47 14 00 00
	00 00		 mov	 DWORD PTR [edi+20], 0

; 304  : 	cx = 0;

  0031e	c7 47 18 00 00
	00 00		 mov	 DWORD PTR [edi+24], 0

; 305  : 	cy = 0;

  00325	c7 47 1c 00 00
	00 00		 mov	 DWORD PTR [edi+28], 0

; 400  : 	x = 0;

  0032c	c7 47 20 00 00
	00 00		 mov	 DWORD PTR [edi+32], 0

; 401  : 	y = 0;

  00333	c7 47 24 00 00
	00 00		 mov	 DWORD PTR [edi+36], 0
  0033a	c7 07 00 00 00
	00		 mov	 DWORD PTR [edi], OFFSET ??_7CArrow_Up_Tool@@6B@
  00340	c7 47 28 00 00
	00 00		 mov	 DWORD PTR [edi+40], OFFSET ??_7CArrow_Up_Draw@@6B@
; File D:\git\src\IBK\IBK_DRFN\ProjSrc\SrcChartEx\ChartAddIn\ChartAnalysisToolAddIn\Symbol\SymbolSingleton.cpp

; 28   : 	m_pArrowUpTool = new CArrow_Up_Tool();

  00347	eb 02		 jmp	 SHORT $LN18@CSymbolSin
$LN17@CSymbolSin:
  00349	33 ff		 xor	 edi, edi
$LN18@CSymbolSin:

; 29   : 	m_pArrowDownTool = new CArrow_Down_Tool();

  0034b	6a 2c		 push	 44			; 0000002cH
  0034d	c7 45 fc ff ff
	ff ff		 mov	 DWORD PTR __$EHRec$[ebp+8], -1
  00354	89 7e 1c	 mov	 DWORD PTR [esi+28], edi
  00357	e8 00 00 00 00	 call	 ??2@YAPAXI@Z		; operator new
  0035c	8b f8		 mov	 edi, eax
  0035e	83 c4 04	 add	 esp, 4
  00361	89 7d f0	 mov	 DWORD PTR $T29[ebp], edi
  00364	c7 45 fc 08 00
	00 00		 mov	 DWORD PTR __$EHRec$[ebp+8], 8
  0036b	85 ff		 test	 edi, edi
  0036d	74 4d		 je	 SHORT $LN19@CSymbolSin
  0036f	6a 2c		 push	 44			; 0000002cH
  00371	6a 00		 push	 0
  00373	57		 push	 edi
  00374	e8 00 00 00 00	 call	 _memset
  00379	83 c4 0c	 add	 esp, 12			; 0000000cH
  0037c	8b cf		 mov	 ecx, edi
  0037e	e8 00 00 00 00	 call	 ??0CSymbolTool@@QAE@XZ	; CSymbolTool::CSymbolTool
; File C:\Program Files (x86)\Microsoft Visual Studio\2019\Community\VC\Tools\MSVC\14.29.30133\atlmfc\include\atltypes.h

; 400  : 	x = 0;

  00383	c7 47 10 00 00
	00 00		 mov	 DWORD PTR [edi+16], 0

; 401  : 	y = 0;

  0038a	c7 47 14 00 00
	00 00		 mov	 DWORD PTR [edi+20], 0

; 304  : 	cx = 0;

  00391	c7 47 18 00 00
	00 00		 mov	 DWORD PTR [edi+24], 0

; 305  : 	cy = 0;

  00398	c7 47 1c 00 00
	00 00		 mov	 DWORD PTR [edi+28], 0

; 400  : 	x = 0;

  0039f	c7 47 20 00 00
	00 00		 mov	 DWORD PTR [edi+32], 0

; 401  : 	y = 0;

  003a6	c7 47 24 00 00
	00 00		 mov	 DWORD PTR [edi+36], 0
  003ad	c7 07 00 00 00
	00		 mov	 DWORD PTR [edi], OFFSET ??_7CArrow_Down_Tool@@6B@
  003b3	c7 47 28 00 00
	00 00		 mov	 DWORD PTR [edi+40], OFFSET ??_7CArrow_Down_Draw@@6B@
; File D:\git\src\IBK\IBK_DRFN\ProjSrc\SrcChartEx\ChartAddIn\ChartAnalysisToolAddIn\Symbol\SymbolSingleton.cpp

; 29   : 	m_pArrowDownTool = new CArrow_Down_Tool();

  003ba	eb 02		 jmp	 SHORT $LN20@CSymbolSin
$LN19@CSymbolSin:
  003bc	33 ff		 xor	 edi, edi
$LN20@CSymbolSin:

; 30   : 	m_pArrowLeftTopTool = new CArrow_LeftTop_Tool();

  003be	6a 2c		 push	 44			; 0000002cH
  003c0	c7 45 fc ff ff
	ff ff		 mov	 DWORD PTR __$EHRec$[ebp+8], -1
  003c7	89 7e 20	 mov	 DWORD PTR [esi+32], edi
  003ca	e8 00 00 00 00	 call	 ??2@YAPAXI@Z		; operator new
  003cf	8b f8		 mov	 edi, eax
  003d1	83 c4 04	 add	 esp, 4
  003d4	89 7d f0	 mov	 DWORD PTR $T28[ebp], edi
  003d7	c7 45 fc 09 00
	00 00		 mov	 DWORD PTR __$EHRec$[ebp+8], 9
  003de	85 ff		 test	 edi, edi
  003e0	74 4d		 je	 SHORT $LN21@CSymbolSin
  003e2	6a 2c		 push	 44			; 0000002cH
  003e4	6a 00		 push	 0
  003e6	57		 push	 edi
  003e7	e8 00 00 00 00	 call	 _memset
  003ec	83 c4 0c	 add	 esp, 12			; 0000000cH
  003ef	8b cf		 mov	 ecx, edi
  003f1	e8 00 00 00 00	 call	 ??0CSymbolTool@@QAE@XZ	; CSymbolTool::CSymbolTool
; File C:\Program Files (x86)\Microsoft Visual Studio\2019\Community\VC\Tools\MSVC\14.29.30133\atlmfc\include\atltypes.h

; 400  : 	x = 0;

  003f6	c7 47 10 00 00
	00 00		 mov	 DWORD PTR [edi+16], 0

; 401  : 	y = 0;

  003fd	c7 47 14 00 00
	00 00		 mov	 DWORD PTR [edi+20], 0

; 304  : 	cx = 0;

  00404	c7 47 18 00 00
	00 00		 mov	 DWORD PTR [edi+24], 0

; 305  : 	cy = 0;

  0040b	c7 47 1c 00 00
	00 00		 mov	 DWORD PTR [edi+28], 0

; 400  : 	x = 0;

  00412	c7 47 20 00 00
	00 00		 mov	 DWORD PTR [edi+32], 0

; 401  : 	y = 0;

  00419	c7 47 24 00 00
	00 00		 mov	 DWORD PTR [edi+36], 0
  00420	c7 07 00 00 00
	00		 mov	 DWORD PTR [edi], OFFSET ??_7CArrow_LeftTop_Tool@@6B@
  00426	c7 47 28 00 00
	00 00		 mov	 DWORD PTR [edi+40], OFFSET ??_7CArrow_LeftTop_Draw@@6B@
; File D:\git\src\IBK\IBK_DRFN\ProjSrc\SrcChartEx\ChartAddIn\ChartAnalysisToolAddIn\Symbol\SymbolSingleton.cpp

; 30   : 	m_pArrowLeftTopTool = new CArrow_LeftTop_Tool();

  0042d	eb 02		 jmp	 SHORT $LN22@CSymbolSin
$LN21@CSymbolSin:
  0042f	33 ff		 xor	 edi, edi
$LN22@CSymbolSin:

; 31   : 	m_pArrowLeftBottomTool = new CArrow_LeftBottom_Tool();

  00431	6a 2c		 push	 44			; 0000002cH
  00433	c7 45 fc ff ff
	ff ff		 mov	 DWORD PTR __$EHRec$[ebp+8], -1
  0043a	89 7e 24	 mov	 DWORD PTR [esi+36], edi
  0043d	e8 00 00 00 00	 call	 ??2@YAPAXI@Z		; operator new
  00442	8b f8		 mov	 edi, eax
  00444	83 c4 04	 add	 esp, 4
  00447	89 7d f0	 mov	 DWORD PTR $T27[ebp], edi
  0044a	c7 45 fc 0a 00
	00 00		 mov	 DWORD PTR __$EHRec$[ebp+8], 10 ; 0000000aH
  00451	85 ff		 test	 edi, edi
  00453	74 4d		 je	 SHORT $LN23@CSymbolSin
  00455	6a 2c		 push	 44			; 0000002cH
  00457	6a 00		 push	 0
  00459	57		 push	 edi
  0045a	e8 00 00 00 00	 call	 _memset
  0045f	83 c4 0c	 add	 esp, 12			; 0000000cH
  00462	8b cf		 mov	 ecx, edi
  00464	e8 00 00 00 00	 call	 ??0CSymbolTool@@QAE@XZ	; CSymbolTool::CSymbolTool
; File C:\Program Files (x86)\Microsoft Visual Studio\2019\Community\VC\Tools\MSVC\14.29.30133\atlmfc\include\atltypes.h

; 400  : 	x = 0;

  00469	c7 47 10 00 00
	00 00		 mov	 DWORD PTR [edi+16], 0

; 401  : 	y = 0;

  00470	c7 47 14 00 00
	00 00		 mov	 DWORD PTR [edi+20], 0

; 304  : 	cx = 0;

  00477	c7 47 18 00 00
	00 00		 mov	 DWORD PTR [edi+24], 0

; 305  : 	cy = 0;

  0047e	c7 47 1c 00 00
	00 00		 mov	 DWORD PTR [edi+28], 0

; 400  : 	x = 0;

  00485	c7 47 20 00 00
	00 00		 mov	 DWORD PTR [edi+32], 0

; 401  : 	y = 0;

  0048c	c7 47 24 00 00
	00 00		 mov	 DWORD PTR [edi+36], 0
  00493	c7 07 00 00 00
	00		 mov	 DWORD PTR [edi], OFFSET ??_7CArrow_LeftBottom_Tool@@6B@
  00499	c7 47 28 00 00
	00 00		 mov	 DWORD PTR [edi+40], OFFSET ??_7CArrow_LeftBottom_Draw@@6B@
; File D:\git\src\IBK\IBK_DRFN\ProjSrc\SrcChartEx\ChartAddIn\ChartAnalysisToolAddIn\Symbol\SymbolSingleton.cpp

; 31   : 	m_pArrowLeftBottomTool = new CArrow_LeftBottom_Tool();

  004a0	eb 02		 jmp	 SHORT $LN24@CSymbolSin
$LN23@CSymbolSin:
  004a2	33 ff		 xor	 edi, edi
$LN24@CSymbolSin:

; 32   : 	m_pArrowRightTopTool = new CArrow_RightTop_Tool();

  004a4	6a 2c		 push	 44			; 0000002cH
  004a6	c7 45 fc ff ff
	ff ff		 mov	 DWORD PTR __$EHRec$[ebp+8], -1
  004ad	89 7e 28	 mov	 DWORD PTR [esi+40], edi
  004b0	e8 00 00 00 00	 call	 ??2@YAPAXI@Z		; operator new
  004b5	8b f8		 mov	 edi, eax
  004b7	83 c4 04	 add	 esp, 4
  004ba	89 7d f0	 mov	 DWORD PTR $T26[ebp], edi
  004bd	c7 45 fc 0b 00
	00 00		 mov	 DWORD PTR __$EHRec$[ebp+8], 11 ; 0000000bH
  004c4	85 ff		 test	 edi, edi
  004c6	74 4d		 je	 SHORT $LN25@CSymbolSin
  004c8	6a 2c		 push	 44			; 0000002cH
  004ca	6a 00		 push	 0
  004cc	57		 push	 edi
  004cd	e8 00 00 00 00	 call	 _memset
  004d2	83 c4 0c	 add	 esp, 12			; 0000000cH
  004d5	8b cf		 mov	 ecx, edi
  004d7	e8 00 00 00 00	 call	 ??0CSymbolTool@@QAE@XZ	; CSymbolTool::CSymbolTool
; File C:\Program Files (x86)\Microsoft Visual Studio\2019\Community\VC\Tools\MSVC\14.29.30133\atlmfc\include\atltypes.h

; 400  : 	x = 0;

  004dc	c7 47 10 00 00
	00 00		 mov	 DWORD PTR [edi+16], 0

; 401  : 	y = 0;

  004e3	c7 47 14 00 00
	00 00		 mov	 DWORD PTR [edi+20], 0

; 304  : 	cx = 0;

  004ea	c7 47 18 00 00
	00 00		 mov	 DWORD PTR [edi+24], 0

; 305  : 	cy = 0;

  004f1	c7 47 1c 00 00
	00 00		 mov	 DWORD PTR [edi+28], 0

; 400  : 	x = 0;

  004f8	c7 47 20 00 00
	00 00		 mov	 DWORD PTR [edi+32], 0

; 401  : 	y = 0;

  004ff	c7 47 24 00 00
	00 00		 mov	 DWORD PTR [edi+36], 0
  00506	c7 07 00 00 00
	00		 mov	 DWORD PTR [edi], OFFSET ??_7CArrow_RightTop_Tool@@6B@
  0050c	c7 47 28 00 00
	00 00		 mov	 DWORD PTR [edi+40], OFFSET ??_7CArrow_RightTop_Draw@@6B@
; File D:\git\src\IBK\IBK_DRFN\ProjSrc\SrcChartEx\ChartAddIn\ChartAnalysisToolAddIn\Symbol\SymbolSingleton.cpp

; 32   : 	m_pArrowRightTopTool = new CArrow_RightTop_Tool();

  00513	eb 02		 jmp	 SHORT $LN26@CSymbolSin
$LN25@CSymbolSin:
  00515	33 ff		 xor	 edi, edi
$LN26@CSymbolSin:

; 33   : 	m_pArrowRightBottomTool = new CArrow_RightBottom_Tool();

  00517	6a 2c		 push	 44			; 0000002cH
  00519	c7 45 fc ff ff
	ff ff		 mov	 DWORD PTR __$EHRec$[ebp+8], -1
  00520	89 7e 2c	 mov	 DWORD PTR [esi+44], edi
  00523	e8 00 00 00 00	 call	 ??2@YAPAXI@Z		; operator new
  00528	8b f8		 mov	 edi, eax
  0052a	83 c4 04	 add	 esp, 4
  0052d	89 7d f0	 mov	 DWORD PTR $T25[ebp], edi
  00530	c7 45 fc 0c 00
	00 00		 mov	 DWORD PTR __$EHRec$[ebp+8], 12 ; 0000000cH
  00537	85 ff		 test	 edi, edi
  00539	74 4d		 je	 SHORT $LN27@CSymbolSin
  0053b	6a 2c		 push	 44			; 0000002cH
  0053d	6a 00		 push	 0
  0053f	57		 push	 edi
  00540	e8 00 00 00 00	 call	 _memset
  00545	83 c4 0c	 add	 esp, 12			; 0000000cH
  00548	8b cf		 mov	 ecx, edi
  0054a	e8 00 00 00 00	 call	 ??0CSymbolTool@@QAE@XZ	; CSymbolTool::CSymbolTool
; File C:\Program Files (x86)\Microsoft Visual Studio\2019\Community\VC\Tools\MSVC\14.29.30133\atlmfc\include\atltypes.h

; 400  : 	x = 0;

  0054f	c7 47 10 00 00
	00 00		 mov	 DWORD PTR [edi+16], 0

; 401  : 	y = 0;

  00556	c7 47 14 00 00
	00 00		 mov	 DWORD PTR [edi+20], 0

; 304  : 	cx = 0;

  0055d	c7 47 18 00 00
	00 00		 mov	 DWORD PTR [edi+24], 0

; 305  : 	cy = 0;

  00564	c7 47 1c 00 00
	00 00		 mov	 DWORD PTR [edi+28], 0

; 400  : 	x = 0;

  0056b	c7 47 20 00 00
	00 00		 mov	 DWORD PTR [edi+32], 0

; 401  : 	y = 0;

  00572	c7 47 24 00 00
	00 00		 mov	 DWORD PTR [edi+36], 0
  00579	c7 07 00 00 00
	00		 mov	 DWORD PTR [edi], OFFSET ??_7CArrow_RightBottom_Tool@@6B@
  0057f	c7 47 28 00 00
	00 00		 mov	 DWORD PTR [edi+40], OFFSET ??_7CArrow_RightBottom_Draw@@6B@
; File D:\git\src\IBK\IBK_DRFN\ProjSrc\SrcChartEx\ChartAddIn\ChartAnalysisToolAddIn\Symbol\SymbolSingleton.cpp

; 33   : 	m_pArrowRightBottomTool = new CArrow_RightBottom_Tool();

  00586	eb 02		 jmp	 SHORT $LN28@CSymbolSin
$LN27@CSymbolSin:
  00588	33 ff		 xor	 edi, edi
$LN28@CSymbolSin:

; 34   : 	m_pNumberOneTool = new CNumber_One_Tool();

  0058a	6a 2c		 push	 44			; 0000002cH
  0058c	c7 45 fc ff ff
	ff ff		 mov	 DWORD PTR __$EHRec$[ebp+8], -1
  00593	89 7e 30	 mov	 DWORD PTR [esi+48], edi
  00596	e8 00 00 00 00	 call	 ??2@YAPAXI@Z		; operator new
  0059b	8b f8		 mov	 edi, eax
  0059d	83 c4 04	 add	 esp, 4
  005a0	89 7d f0	 mov	 DWORD PTR $T24[ebp], edi
  005a3	c7 45 fc 0d 00
	00 00		 mov	 DWORD PTR __$EHRec$[ebp+8], 13 ; 0000000dH
  005aa	85 ff		 test	 edi, edi
  005ac	74 4d		 je	 SHORT $LN29@CSymbolSin
  005ae	6a 2c		 push	 44			; 0000002cH
  005b0	6a 00		 push	 0
  005b2	57		 push	 edi
  005b3	e8 00 00 00 00	 call	 _memset
  005b8	83 c4 0c	 add	 esp, 12			; 0000000cH
  005bb	8b cf		 mov	 ecx, edi
  005bd	e8 00 00 00 00	 call	 ??0CSymbolTool@@QAE@XZ	; CSymbolTool::CSymbolTool
; File C:\Program Files (x86)\Microsoft Visual Studio\2019\Community\VC\Tools\MSVC\14.29.30133\atlmfc\include\atltypes.h

; 400  : 	x = 0;

  005c2	c7 47 10 00 00
	00 00		 mov	 DWORD PTR [edi+16], 0

; 401  : 	y = 0;

  005c9	c7 47 14 00 00
	00 00		 mov	 DWORD PTR [edi+20], 0

; 304  : 	cx = 0;

  005d0	c7 47 18 00 00
	00 00		 mov	 DWORD PTR [edi+24], 0

; 305  : 	cy = 0;

  005d7	c7 47 1c 00 00
	00 00		 mov	 DWORD PTR [edi+28], 0

; 400  : 	x = 0;

  005de	c7 47 20 00 00
	00 00		 mov	 DWORD PTR [edi+32], 0

; 401  : 	y = 0;

  005e5	c7 47 24 00 00
	00 00		 mov	 DWORD PTR [edi+36], 0
  005ec	c7 07 00 00 00
	00		 mov	 DWORD PTR [edi], OFFSET ??_7CNumber_One_Tool@@6B@
  005f2	c7 47 28 00 00
	00 00		 mov	 DWORD PTR [edi+40], OFFSET ??_7CNumber_One_Draw@@6B@
; File D:\git\src\IBK\IBK_DRFN\ProjSrc\SrcChartEx\ChartAddIn\ChartAnalysisToolAddIn\Symbol\SymbolSingleton.cpp

; 34   : 	m_pNumberOneTool = new CNumber_One_Tool();

  005f9	eb 02		 jmp	 SHORT $LN30@CSymbolSin
$LN29@CSymbolSin:
  005fb	33 ff		 xor	 edi, edi
$LN30@CSymbolSin:

; 35   : 	m_pNumberTwoTool = new CNumber_Two_Tool();

  005fd	6a 2c		 push	 44			; 0000002cH
  005ff	c7 45 fc ff ff
	ff ff		 mov	 DWORD PTR __$EHRec$[ebp+8], -1
  00606	89 7e 34	 mov	 DWORD PTR [esi+52], edi
  00609	e8 00 00 00 00	 call	 ??2@YAPAXI@Z		; operator new
  0060e	8b f8		 mov	 edi, eax
  00610	83 c4 04	 add	 esp, 4
  00613	89 7d f0	 mov	 DWORD PTR $T23[ebp], edi
  00616	c7 45 fc 0e 00
	00 00		 mov	 DWORD PTR __$EHRec$[ebp+8], 14 ; 0000000eH
  0061d	85 ff		 test	 edi, edi
  0061f	74 4d		 je	 SHORT $LN31@CSymbolSin
  00621	6a 2c		 push	 44			; 0000002cH
  00623	6a 00		 push	 0
  00625	57		 push	 edi
  00626	e8 00 00 00 00	 call	 _memset
  0062b	83 c4 0c	 add	 esp, 12			; 0000000cH
  0062e	8b cf		 mov	 ecx, edi
  00630	e8 00 00 00 00	 call	 ??0CSymbolTool@@QAE@XZ	; CSymbolTool::CSymbolTool
; File C:\Program Files (x86)\Microsoft Visual Studio\2019\Community\VC\Tools\MSVC\14.29.30133\atlmfc\include\atltypes.h

; 400  : 	x = 0;

  00635	c7 47 10 00 00
	00 00		 mov	 DWORD PTR [edi+16], 0

; 401  : 	y = 0;

  0063c	c7 47 14 00 00
	00 00		 mov	 DWORD PTR [edi+20], 0

; 304  : 	cx = 0;

  00643	c7 47 18 00 00
	00 00		 mov	 DWORD PTR [edi+24], 0

; 305  : 	cy = 0;

  0064a	c7 47 1c 00 00
	00 00		 mov	 DWORD PTR [edi+28], 0

; 400  : 	x = 0;

  00651	c7 47 20 00 00
	00 00		 mov	 DWORD PTR [edi+32], 0

; 401  : 	y = 0;

  00658	c7 47 24 00 00
	00 00		 mov	 DWORD PTR [edi+36], 0
  0065f	c7 07 00 00 00
	00		 mov	 DWORD PTR [edi], OFFSET ??_7CNumber_Two_Tool@@6B@
  00665	c7 47 28 00 00
	00 00		 mov	 DWORD PTR [edi+40], OFFSET ??_7CNumber_Two_Draw@@6B@
; File D:\git\src\IBK\IBK_DRFN\ProjSrc\SrcChartEx\ChartAddIn\ChartAnalysisToolAddIn\Symbol\SymbolSingleton.cpp

; 35   : 	m_pNumberTwoTool = new CNumber_Two_Tool();

  0066c	eb 02		 jmp	 SHORT $LN32@CSymbolSin
$LN31@CSymbolSin:
  0066e	33 ff		 xor	 edi, edi
$LN32@CSymbolSin:

; 36   : 	m_pNumberThreeTool = new CNumber_Three_Tool();

  00670	6a 2c		 push	 44			; 0000002cH
  00672	c7 45 fc ff ff
	ff ff		 mov	 DWORD PTR __$EHRec$[ebp+8], -1
  00679	89 7e 38	 mov	 DWORD PTR [esi+56], edi
  0067c	e8 00 00 00 00	 call	 ??2@YAPAXI@Z		; operator new
  00681	8b f8		 mov	 edi, eax
  00683	83 c4 04	 add	 esp, 4
  00686	89 7d f0	 mov	 DWORD PTR $T22[ebp], edi
  00689	c7 45 fc 0f 00
	00 00		 mov	 DWORD PTR __$EHRec$[ebp+8], 15 ; 0000000fH
  00690	85 ff		 test	 edi, edi
  00692	74 4d		 je	 SHORT $LN33@CSymbolSin
  00694	6a 2c		 push	 44			; 0000002cH
  00696	6a 00		 push	 0
  00698	57		 push	 edi
  00699	e8 00 00 00 00	 call	 _memset
  0069e	83 c4 0c	 add	 esp, 12			; 0000000cH
  006a1	8b cf		 mov	 ecx, edi
  006a3	e8 00 00 00 00	 call	 ??0CSymbolTool@@QAE@XZ	; CSymbolTool::CSymbolTool
; File C:\Program Files (x86)\Microsoft Visual Studio\2019\Community\VC\Tools\MSVC\14.29.30133\atlmfc\include\atltypes.h

; 400  : 	x = 0;

  006a8	c7 47 10 00 00
	00 00		 mov	 DWORD PTR [edi+16], 0

; 401  : 	y = 0;

  006af	c7 47 14 00 00
	00 00		 mov	 DWORD PTR [edi+20], 0

; 304  : 	cx = 0;

  006b6	c7 47 18 00 00
	00 00		 mov	 DWORD PTR [edi+24], 0

; 305  : 	cy = 0;

  006bd	c7 47 1c 00 00
	00 00		 mov	 DWORD PTR [edi+28], 0

; 400  : 	x = 0;

  006c4	c7 47 20 00 00
	00 00		 mov	 DWORD PTR [edi+32], 0

; 401  : 	y = 0;

  006cb	c7 47 24 00 00
	00 00		 mov	 DWORD PTR [edi+36], 0
  006d2	c7 07 00 00 00
	00		 mov	 DWORD PTR [edi], OFFSET ??_7CNumber_Three_Tool@@6B@
  006d8	c7 47 28 00 00
	00 00		 mov	 DWORD PTR [edi+40], OFFSET ??_7CNumber_Three_Draw@@6B@
; File D:\git\src\IBK\IBK_DRFN\ProjSrc\SrcChartEx\ChartAddIn\ChartAnalysisToolAddIn\Symbol\SymbolSingleton.cpp

; 36   : 	m_pNumberThreeTool = new CNumber_Three_Tool();

  006df	eb 02		 jmp	 SHORT $LN34@CSymbolSin
$LN33@CSymbolSin:
  006e1	33 ff		 xor	 edi, edi
$LN34@CSymbolSin:

; 37   : 	m_pNumberFourTool = new CNumber_Four_Tool();

  006e3	6a 2c		 push	 44			; 0000002cH
  006e5	c7 45 fc ff ff
	ff ff		 mov	 DWORD PTR __$EHRec$[ebp+8], -1
  006ec	89 7e 3c	 mov	 DWORD PTR [esi+60], edi
  006ef	e8 00 00 00 00	 call	 ??2@YAPAXI@Z		; operator new
  006f4	8b f8		 mov	 edi, eax
  006f6	83 c4 04	 add	 esp, 4
  006f9	89 7d f0	 mov	 DWORD PTR $T21[ebp], edi
  006fc	c7 45 fc 10 00
	00 00		 mov	 DWORD PTR __$EHRec$[ebp+8], 16 ; 00000010H
  00703	85 ff		 test	 edi, edi
  00705	74 4d		 je	 SHORT $LN35@CSymbolSin
  00707	6a 2c		 push	 44			; 0000002cH
  00709	6a 00		 push	 0
  0070b	57		 push	 edi
  0070c	e8 00 00 00 00	 call	 _memset
  00711	83 c4 0c	 add	 esp, 12			; 0000000cH
  00714	8b cf		 mov	 ecx, edi
  00716	e8 00 00 00 00	 call	 ??0CSymbolTool@@QAE@XZ	; CSymbolTool::CSymbolTool
; File C:\Program Files (x86)\Microsoft Visual Studio\2019\Community\VC\Tools\MSVC\14.29.30133\atlmfc\include\atltypes.h

; 400  : 	x = 0;

  0071b	c7 47 10 00 00
	00 00		 mov	 DWORD PTR [edi+16], 0

; 401  : 	y = 0;

  00722	c7 47 14 00 00
	00 00		 mov	 DWORD PTR [edi+20], 0

; 304  : 	cx = 0;

  00729	c7 47 18 00 00
	00 00		 mov	 DWORD PTR [edi+24], 0

; 305  : 	cy = 0;

  00730	c7 47 1c 00 00
	00 00		 mov	 DWORD PTR [edi+28], 0

; 400  : 	x = 0;

  00737	c7 47 20 00 00
	00 00		 mov	 DWORD PTR [edi+32], 0

; 401  : 	y = 0;

  0073e	c7 47 24 00 00
	00 00		 mov	 DWORD PTR [edi+36], 0
  00745	c7 07 00 00 00
	00		 mov	 DWORD PTR [edi], OFFSET ??_7CNumber_Four_Tool@@6B@
  0074b	c7 47 28 00 00
	00 00		 mov	 DWORD PTR [edi+40], OFFSET ??_7CNumber_Four_Draw@@6B@
; File D:\git\src\IBK\IBK_DRFN\ProjSrc\SrcChartEx\ChartAddIn\ChartAnalysisToolAddIn\Symbol\SymbolSingleton.cpp

; 37   : 	m_pNumberFourTool = new CNumber_Four_Tool();

  00752	eb 02		 jmp	 SHORT $LN36@CSymbolSin
$LN35@CSymbolSin:
  00754	33 ff		 xor	 edi, edi
$LN36@CSymbolSin:

; 38   : 	m_pNumberFiveTool = new CNumber_Five_Tool();

  00756	6a 2c		 push	 44			; 0000002cH
  00758	c7 45 fc ff ff
	ff ff		 mov	 DWORD PTR __$EHRec$[ebp+8], -1
  0075f	89 7e 40	 mov	 DWORD PTR [esi+64], edi
  00762	e8 00 00 00 00	 call	 ??2@YAPAXI@Z		; operator new
  00767	8b f8		 mov	 edi, eax
  00769	83 c4 04	 add	 esp, 4
  0076c	89 7d f0	 mov	 DWORD PTR $T20[ebp], edi
  0076f	c7 45 fc 11 00
	00 00		 mov	 DWORD PTR __$EHRec$[ebp+8], 17 ; 00000011H
  00776	85 ff		 test	 edi, edi
  00778	74 4d		 je	 SHORT $LN37@CSymbolSin
  0077a	6a 2c		 push	 44			; 0000002cH
  0077c	6a 00		 push	 0
  0077e	57		 push	 edi
  0077f	e8 00 00 00 00	 call	 _memset
  00784	83 c4 0c	 add	 esp, 12			; 0000000cH
  00787	8b cf		 mov	 ecx, edi
  00789	e8 00 00 00 00	 call	 ??0CSymbolTool@@QAE@XZ	; CSymbolTool::CSymbolTool
; File C:\Program Files (x86)\Microsoft Visual Studio\2019\Community\VC\Tools\MSVC\14.29.30133\atlmfc\include\atltypes.h

; 400  : 	x = 0;

  0078e	c7 47 10 00 00
	00 00		 mov	 DWORD PTR [edi+16], 0

; 401  : 	y = 0;

  00795	c7 47 14 00 00
	00 00		 mov	 DWORD PTR [edi+20], 0

; 304  : 	cx = 0;

  0079c	c7 47 18 00 00
	00 00		 mov	 DWORD PTR [edi+24], 0

; 305  : 	cy = 0;

  007a3	c7 47 1c 00 00
	00 00		 mov	 DWORD PTR [edi+28], 0

; 400  : 	x = 0;

  007aa	c7 47 20 00 00
	00 00		 mov	 DWORD PTR [edi+32], 0

; 401  : 	y = 0;

  007b1	c7 47 24 00 00
	00 00		 mov	 DWORD PTR [edi+36], 0
  007b8	c7 07 00 00 00
	00		 mov	 DWORD PTR [edi], OFFSET ??_7CNumber_Five_Tool@@6B@
  007be	c7 47 28 00 00
	00 00		 mov	 DWORD PTR [edi+40], OFFSET ??_7CNumber_Five_Draw@@6B@
; File D:\git\src\IBK\IBK_DRFN\ProjSrc\SrcChartEx\ChartAddIn\ChartAnalysisToolAddIn\Symbol\SymbolSingleton.cpp

; 38   : 	m_pNumberFiveTool = new CNumber_Five_Tool();

  007c5	eb 02		 jmp	 SHORT $LN38@CSymbolSin
$LN37@CSymbolSin:
  007c7	33 ff		 xor	 edi, edi
$LN38@CSymbolSin:

; 39   : 	m_pNumberSixTool = new CNumber_Six_Tool();

  007c9	6a 2c		 push	 44			; 0000002cH
  007cb	c7 45 fc ff ff
	ff ff		 mov	 DWORD PTR __$EHRec$[ebp+8], -1
  007d2	89 7e 44	 mov	 DWORD PTR [esi+68], edi
  007d5	e8 00 00 00 00	 call	 ??2@YAPAXI@Z		; operator new
  007da	8b f8		 mov	 edi, eax
  007dc	83 c4 04	 add	 esp, 4
  007df	89 7d f0	 mov	 DWORD PTR $T19[ebp], edi
  007e2	c7 45 fc 12 00
	00 00		 mov	 DWORD PTR __$EHRec$[ebp+8], 18 ; 00000012H
  007e9	85 ff		 test	 edi, edi
  007eb	74 4d		 je	 SHORT $LN39@CSymbolSin
  007ed	6a 2c		 push	 44			; 0000002cH
  007ef	6a 00		 push	 0
  007f1	57		 push	 edi
  007f2	e8 00 00 00 00	 call	 _memset
  007f7	83 c4 0c	 add	 esp, 12			; 0000000cH
  007fa	8b cf		 mov	 ecx, edi
  007fc	e8 00 00 00 00	 call	 ??0CSymbolTool@@QAE@XZ	; CSymbolTool::CSymbolTool
; File C:\Program Files (x86)\Microsoft Visual Studio\2019\Community\VC\Tools\MSVC\14.29.30133\atlmfc\include\atltypes.h

; 400  : 	x = 0;

  00801	c7 47 10 00 00
	00 00		 mov	 DWORD PTR [edi+16], 0

; 401  : 	y = 0;

  00808	c7 47 14 00 00
	00 00		 mov	 DWORD PTR [edi+20], 0

; 304  : 	cx = 0;

  0080f	c7 47 18 00 00
	00 00		 mov	 DWORD PTR [edi+24], 0

; 305  : 	cy = 0;

  00816	c7 47 1c 00 00
	00 00		 mov	 DWORD PTR [edi+28], 0

; 400  : 	x = 0;

  0081d	c7 47 20 00 00
	00 00		 mov	 DWORD PTR [edi+32], 0

; 401  : 	y = 0;

  00824	c7 47 24 00 00
	00 00		 mov	 DWORD PTR [edi+36], 0
  0082b	c7 07 00 00 00
	00		 mov	 DWORD PTR [edi], OFFSET ??_7CNumber_Six_Tool@@6B@
  00831	c7 47 28 00 00
	00 00		 mov	 DWORD PTR [edi+40], OFFSET ??_7CNumber_Six_Draw@@6B@
; File D:\git\src\IBK\IBK_DRFN\ProjSrc\SrcChartEx\ChartAddIn\ChartAnalysisToolAddIn\Symbol\SymbolSingleton.cpp

; 39   : 	m_pNumberSixTool = new CNumber_Six_Tool();

  00838	eb 02		 jmp	 SHORT $LN40@CSymbolSin
$LN39@CSymbolSin:
  0083a	33 ff		 xor	 edi, edi
$LN40@CSymbolSin:

; 40   : 	m_pNumberSevenTool = new CNumber_Seven_Tool();

  0083c	6a 2c		 push	 44			; 0000002cH
  0083e	c7 45 fc ff ff
	ff ff		 mov	 DWORD PTR __$EHRec$[ebp+8], -1
  00845	89 7e 48	 mov	 DWORD PTR [esi+72], edi
  00848	e8 00 00 00 00	 call	 ??2@YAPAXI@Z		; operator new
  0084d	8b f8		 mov	 edi, eax
  0084f	83 c4 04	 add	 esp, 4
  00852	89 7d f0	 mov	 DWORD PTR $T18[ebp], edi
  00855	c7 45 fc 13 00
	00 00		 mov	 DWORD PTR __$EHRec$[ebp+8], 19 ; 00000013H
  0085c	85 ff		 test	 edi, edi
  0085e	74 4d		 je	 SHORT $LN41@CSymbolSin
  00860	6a 2c		 push	 44			; 0000002cH
  00862	6a 00		 push	 0
  00864	57		 push	 edi
  00865	e8 00 00 00 00	 call	 _memset
  0086a	83 c4 0c	 add	 esp, 12			; 0000000cH
  0086d	8b cf		 mov	 ecx, edi
  0086f	e8 00 00 00 00	 call	 ??0CSymbolTool@@QAE@XZ	; CSymbolTool::CSymbolTool
; File C:\Program Files (x86)\Microsoft Visual Studio\2019\Community\VC\Tools\MSVC\14.29.30133\atlmfc\include\atltypes.h

; 400  : 	x = 0;

  00874	c7 47 10 00 00
	00 00		 mov	 DWORD PTR [edi+16], 0

; 401  : 	y = 0;

  0087b	c7 47 14 00 00
	00 00		 mov	 DWORD PTR [edi+20], 0

; 304  : 	cx = 0;

  00882	c7 47 18 00 00
	00 00		 mov	 DWORD PTR [edi+24], 0

; 305  : 	cy = 0;

  00889	c7 47 1c 00 00
	00 00		 mov	 DWORD PTR [edi+28], 0

; 400  : 	x = 0;

  00890	c7 47 20 00 00
	00 00		 mov	 DWORD PTR [edi+32], 0

; 401  : 	y = 0;

  00897	c7 47 24 00 00
	00 00		 mov	 DWORD PTR [edi+36], 0
  0089e	c7 07 00 00 00
	00		 mov	 DWORD PTR [edi], OFFSET ??_7CNumber_Seven_Tool@@6B@
  008a4	c7 47 28 00 00
	00 00		 mov	 DWORD PTR [edi+40], OFFSET ??_7CNumber_Seven_Draw@@6B@
; File D:\git\src\IBK\IBK_DRFN\ProjSrc\SrcChartEx\ChartAddIn\ChartAnalysisToolAddIn\Symbol\SymbolSingleton.cpp

; 40   : 	m_pNumberSevenTool = new CNumber_Seven_Tool();

  008ab	eb 02		 jmp	 SHORT $LN42@CSymbolSin
$LN41@CSymbolSin:
  008ad	33 ff		 xor	 edi, edi
$LN42@CSymbolSin:

; 41   : 	m_pNumberEightTool = new CNumber_Eight_Tool();

  008af	6a 2c		 push	 44			; 0000002cH
  008b1	c7 45 fc ff ff
	ff ff		 mov	 DWORD PTR __$EHRec$[ebp+8], -1
  008b8	89 7e 4c	 mov	 DWORD PTR [esi+76], edi
  008bb	e8 00 00 00 00	 call	 ??2@YAPAXI@Z		; operator new
  008c0	8b f8		 mov	 edi, eax
  008c2	83 c4 04	 add	 esp, 4
  008c5	89 7d f0	 mov	 DWORD PTR $T17[ebp], edi
  008c8	c7 45 fc 14 00
	00 00		 mov	 DWORD PTR __$EHRec$[ebp+8], 20 ; 00000014H
  008cf	85 ff		 test	 edi, edi
  008d1	74 4d		 je	 SHORT $LN43@CSymbolSin
  008d3	6a 2c		 push	 44			; 0000002cH
  008d5	6a 00		 push	 0
  008d7	57		 push	 edi
  008d8	e8 00 00 00 00	 call	 _memset
  008dd	83 c4 0c	 add	 esp, 12			; 0000000cH
  008e0	8b cf		 mov	 ecx, edi
  008e2	e8 00 00 00 00	 call	 ??0CSymbolTool@@QAE@XZ	; CSymbolTool::CSymbolTool
; File C:\Program Files (x86)\Microsoft Visual Studio\2019\Community\VC\Tools\MSVC\14.29.30133\atlmfc\include\atltypes.h

; 400  : 	x = 0;

  008e7	c7 47 10 00 00
	00 00		 mov	 DWORD PTR [edi+16], 0

; 401  : 	y = 0;

  008ee	c7 47 14 00 00
	00 00		 mov	 DWORD PTR [edi+20], 0

; 304  : 	cx = 0;

  008f5	c7 47 18 00 00
	00 00		 mov	 DWORD PTR [edi+24], 0

; 305  : 	cy = 0;

  008fc	c7 47 1c 00 00
	00 00		 mov	 DWORD PTR [edi+28], 0

; 400  : 	x = 0;

  00903	c7 47 20 00 00
	00 00		 mov	 DWORD PTR [edi+32], 0

; 401  : 	y = 0;

  0090a	c7 47 24 00 00
	00 00		 mov	 DWORD PTR [edi+36], 0
  00911	c7 07 00 00 00
	00		 mov	 DWORD PTR [edi], OFFSET ??_7CNumber_Eight_Tool@@6B@
  00917	c7 47 28 00 00
	00 00		 mov	 DWORD PTR [edi+40], OFFSET ??_7CNumber_Eight_Draw@@6B@
; File D:\git\src\IBK\IBK_DRFN\ProjSrc\SrcChartEx\ChartAddIn\ChartAnalysisToolAddIn\Symbol\SymbolSingleton.cpp

; 41   : 	m_pNumberEightTool = new CNumber_Eight_Tool();

  0091e	eb 02		 jmp	 SHORT $LN44@CSymbolSin
$LN43@CSymbolSin:
  00920	33 ff		 xor	 edi, edi
$LN44@CSymbolSin:

; 42   : 	m_pNumberNineTool = new CNumber_Nine_Tool();

  00922	6a 2c		 push	 44			; 0000002cH
  00924	c7 45 fc ff ff
	ff ff		 mov	 DWORD PTR __$EHRec$[ebp+8], -1
  0092b	89 7e 50	 mov	 DWORD PTR [esi+80], edi
  0092e	e8 00 00 00 00	 call	 ??2@YAPAXI@Z		; operator new
  00933	8b f8		 mov	 edi, eax
  00935	83 c4 04	 add	 esp, 4
  00938	89 7d f0	 mov	 DWORD PTR $T16[ebp], edi
  0093b	c7 45 fc 15 00
	00 00		 mov	 DWORD PTR __$EHRec$[ebp+8], 21 ; 00000015H
  00942	85 ff		 test	 edi, edi
  00944	74 4d		 je	 SHORT $LN45@CSymbolSin
  00946	6a 2c		 push	 44			; 0000002cH
  00948	6a 00		 push	 0
  0094a	57		 push	 edi
  0094b	e8 00 00 00 00	 call	 _memset
  00950	83 c4 0c	 add	 esp, 12			; 0000000cH
  00953	8b cf		 mov	 ecx, edi
  00955	e8 00 00 00 00	 call	 ??0CSymbolTool@@QAE@XZ	; CSymbolTool::CSymbolTool
; File C:\Program Files (x86)\Microsoft Visual Studio\2019\Community\VC\Tools\MSVC\14.29.30133\atlmfc\include\atltypes.h

; 400  : 	x = 0;

  0095a	c7 47 10 00 00
	00 00		 mov	 DWORD PTR [edi+16], 0

; 401  : 	y = 0;

  00961	c7 47 14 00 00
	00 00		 mov	 DWORD PTR [edi+20], 0

; 304  : 	cx = 0;

  00968	c7 47 18 00 00
	00 00		 mov	 DWORD PTR [edi+24], 0

; 305  : 	cy = 0;

  0096f	c7 47 1c 00 00
	00 00		 mov	 DWORD PTR [edi+28], 0

; 400  : 	x = 0;

  00976	c7 47 20 00 00
	00 00		 mov	 DWORD PTR [edi+32], 0

; 401  : 	y = 0;

  0097d	c7 47 24 00 00
	00 00		 mov	 DWORD PTR [edi+36], 0
  00984	c7 07 00 00 00
	00		 mov	 DWORD PTR [edi], OFFSET ??_7CNumber_Nine_Tool@@6B@
  0098a	c7 47 28 00 00
	00 00		 mov	 DWORD PTR [edi+40], OFFSET ??_7CNumber_Nine_Draw@@6B@
; File D:\git\src\IBK\IBK_DRFN\ProjSrc\SrcChartEx\ChartAddIn\ChartAnalysisToolAddIn\Symbol\SymbolSingleton.cpp

; 42   : 	m_pNumberNineTool = new CNumber_Nine_Tool();

  00991	eb 02		 jmp	 SHORT $LN46@CSymbolSin
$LN45@CSymbolSin:
  00993	33 ff		 xor	 edi, edi
$LN46@CSymbolSin:

; 44   : 	m_pTextATool = new CText_A_Tool();

  00995	6a 2c		 push	 44			; 0000002cH
  00997	c7 45 fc ff ff
	ff ff		 mov	 DWORD PTR __$EHRec$[ebp+8], -1
  0099e	89 7e 54	 mov	 DWORD PTR [esi+84], edi
  009a1	e8 00 00 00 00	 call	 ??2@YAPAXI@Z		; operator new
  009a6	8b f8		 mov	 edi, eax
  009a8	83 c4 04	 add	 esp, 4
  009ab	89 7d f0	 mov	 DWORD PTR $T15[ebp], edi
  009ae	c7 45 fc 16 00
	00 00		 mov	 DWORD PTR __$EHRec$[ebp+8], 22 ; 00000016H
  009b5	85 ff		 test	 edi, edi
  009b7	74 4d		 je	 SHORT $LN47@CSymbolSin
  009b9	6a 2c		 push	 44			; 0000002cH
  009bb	6a 00		 push	 0
  009bd	57		 push	 edi
  009be	e8 00 00 00 00	 call	 _memset
  009c3	83 c4 0c	 add	 esp, 12			; 0000000cH
  009c6	8b cf		 mov	 ecx, edi
  009c8	e8 00 00 00 00	 call	 ??0CSymbolTool@@QAE@XZ	; CSymbolTool::CSymbolTool
; File C:\Program Files (x86)\Microsoft Visual Studio\2019\Community\VC\Tools\MSVC\14.29.30133\atlmfc\include\atltypes.h

; 400  : 	x = 0;

  009cd	c7 47 10 00 00
	00 00		 mov	 DWORD PTR [edi+16], 0

; 401  : 	y = 0;

  009d4	c7 47 14 00 00
	00 00		 mov	 DWORD PTR [edi+20], 0

; 304  : 	cx = 0;

  009db	c7 47 18 00 00
	00 00		 mov	 DWORD PTR [edi+24], 0

; 305  : 	cy = 0;

  009e2	c7 47 1c 00 00
	00 00		 mov	 DWORD PTR [edi+28], 0

; 400  : 	x = 0;

  009e9	c7 47 20 00 00
	00 00		 mov	 DWORD PTR [edi+32], 0

; 401  : 	y = 0;

  009f0	c7 47 24 00 00
	00 00		 mov	 DWORD PTR [edi+36], 0
  009f7	c7 07 00 00 00
	00		 mov	 DWORD PTR [edi], OFFSET ??_7CText_A_Tool@@6B@
  009fd	c7 47 28 00 00
	00 00		 mov	 DWORD PTR [edi+40], OFFSET ??_7CText_A_Draw@@6B@
; File D:\git\src\IBK\IBK_DRFN\ProjSrc\SrcChartEx\ChartAddIn\ChartAnalysisToolAddIn\Symbol\SymbolSingleton.cpp

; 44   : 	m_pTextATool = new CText_A_Tool();

  00a04	eb 02		 jmp	 SHORT $LN48@CSymbolSin
$LN47@CSymbolSin:
  00a06	33 ff		 xor	 edi, edi
$LN48@CSymbolSin:

; 45   : 	m_pTextBTool = new CText_B_Tool();

  00a08	6a 2c		 push	 44			; 0000002cH
  00a0a	c7 45 fc ff ff
	ff ff		 mov	 DWORD PTR __$EHRec$[ebp+8], -1
  00a11	89 7e 5c	 mov	 DWORD PTR [esi+92], edi
  00a14	e8 00 00 00 00	 call	 ??2@YAPAXI@Z		; operator new
  00a19	8b f8		 mov	 edi, eax
  00a1b	83 c4 04	 add	 esp, 4
  00a1e	89 7d f0	 mov	 DWORD PTR $T14[ebp], edi
  00a21	c7 45 fc 17 00
	00 00		 mov	 DWORD PTR __$EHRec$[ebp+8], 23 ; 00000017H
  00a28	85 ff		 test	 edi, edi
  00a2a	74 4d		 je	 SHORT $LN49@CSymbolSin
  00a2c	6a 2c		 push	 44			; 0000002cH
  00a2e	6a 00		 push	 0
  00a30	57		 push	 edi
  00a31	e8 00 00 00 00	 call	 _memset
  00a36	83 c4 0c	 add	 esp, 12			; 0000000cH
  00a39	8b cf		 mov	 ecx, edi
  00a3b	e8 00 00 00 00	 call	 ??0CSymbolTool@@QAE@XZ	; CSymbolTool::CSymbolTool
; File C:\Program Files (x86)\Microsoft Visual Studio\2019\Community\VC\Tools\MSVC\14.29.30133\atlmfc\include\atltypes.h

; 400  : 	x = 0;

  00a40	c7 47 10 00 00
	00 00		 mov	 DWORD PTR [edi+16], 0

; 401  : 	y = 0;

  00a47	c7 47 14 00 00
	00 00		 mov	 DWORD PTR [edi+20], 0

; 304  : 	cx = 0;

  00a4e	c7 47 18 00 00
	00 00		 mov	 DWORD PTR [edi+24], 0

; 305  : 	cy = 0;

  00a55	c7 47 1c 00 00
	00 00		 mov	 DWORD PTR [edi+28], 0

; 400  : 	x = 0;

  00a5c	c7 47 20 00 00
	00 00		 mov	 DWORD PTR [edi+32], 0

; 401  : 	y = 0;

  00a63	c7 47 24 00 00
	00 00		 mov	 DWORD PTR [edi+36], 0
  00a6a	c7 07 00 00 00
	00		 mov	 DWORD PTR [edi], OFFSET ??_7CText_B_Tool@@6B@
  00a70	c7 47 28 00 00
	00 00		 mov	 DWORD PTR [edi+40], OFFSET ??_7CText_B_Draw@@6B@
; File D:\git\src\IBK\IBK_DRFN\ProjSrc\SrcChartEx\ChartAddIn\ChartAnalysisToolAddIn\Symbol\SymbolSingleton.cpp

; 45   : 	m_pTextBTool = new CText_B_Tool();

  00a77	eb 02		 jmp	 SHORT $LN50@CSymbolSin
$LN49@CSymbolSin:
  00a79	33 ff		 xor	 edi, edi
$LN50@CSymbolSin:

; 46   : 	m_pTextCTool = new CText_C_Tool();

  00a7b	6a 2c		 push	 44			; 0000002cH
  00a7d	c7 45 fc ff ff
	ff ff		 mov	 DWORD PTR __$EHRec$[ebp+8], -1
  00a84	89 7e 60	 mov	 DWORD PTR [esi+96], edi
  00a87	e8 00 00 00 00	 call	 ??2@YAPAXI@Z		; operator new
  00a8c	8b f8		 mov	 edi, eax
  00a8e	83 c4 04	 add	 esp, 4
  00a91	89 7d f0	 mov	 DWORD PTR $T13[ebp], edi
  00a94	c7 45 fc 18 00
	00 00		 mov	 DWORD PTR __$EHRec$[ebp+8], 24 ; 00000018H
  00a9b	85 ff		 test	 edi, edi
  00a9d	74 4d		 je	 SHORT $LN51@CSymbolSin
  00a9f	6a 2c		 push	 44			; 0000002cH
  00aa1	6a 00		 push	 0
  00aa3	57		 push	 edi
  00aa4	e8 00 00 00 00	 call	 _memset
  00aa9	83 c4 0c	 add	 esp, 12			; 0000000cH
  00aac	8b cf		 mov	 ecx, edi
  00aae	e8 00 00 00 00	 call	 ??0CSymbolTool@@QAE@XZ	; CSymbolTool::CSymbolTool
; File C:\Program Files (x86)\Microsoft Visual Studio\2019\Community\VC\Tools\MSVC\14.29.30133\atlmfc\include\atltypes.h

; 400  : 	x = 0;

  00ab3	c7 47 10 00 00
	00 00		 mov	 DWORD PTR [edi+16], 0

; 401  : 	y = 0;

  00aba	c7 47 14 00 00
	00 00		 mov	 DWORD PTR [edi+20], 0

; 304  : 	cx = 0;

  00ac1	c7 47 18 00 00
	00 00		 mov	 DWORD PTR [edi+24], 0

; 305  : 	cy = 0;

  00ac8	c7 47 1c 00 00
	00 00		 mov	 DWORD PTR [edi+28], 0

; 400  : 	x = 0;

  00acf	c7 47 20 00 00
	00 00		 mov	 DWORD PTR [edi+32], 0

; 401  : 	y = 0;

  00ad6	c7 47 24 00 00
	00 00		 mov	 DWORD PTR [edi+36], 0
  00add	c7 07 00 00 00
	00		 mov	 DWORD PTR [edi], OFFSET ??_7CText_C_Tool@@6B@
  00ae3	c7 47 28 00 00
	00 00		 mov	 DWORD PTR [edi+40], OFFSET ??_7CText_C_Draw@@6B@
; File D:\git\src\IBK\IBK_DRFN\ProjSrc\SrcChartEx\ChartAddIn\ChartAnalysisToolAddIn\Symbol\SymbolSingleton.cpp

; 46   : 	m_pTextCTool = new CText_C_Tool();

  00aea	eb 02		 jmp	 SHORT $LN52@CSymbolSin
$LN51@CSymbolSin:
  00aec	33 ff		 xor	 edi, edi
$LN52@CSymbolSin:

; 47   : 	m_pTextDTool = new CText_D_Tool();

  00aee	6a 2c		 push	 44			; 0000002cH
  00af0	c7 45 fc ff ff
	ff ff		 mov	 DWORD PTR __$EHRec$[ebp+8], -1
  00af7	89 7e 64	 mov	 DWORD PTR [esi+100], edi
  00afa	e8 00 00 00 00	 call	 ??2@YAPAXI@Z		; operator new
  00aff	8b f8		 mov	 edi, eax
  00b01	83 c4 04	 add	 esp, 4
  00b04	89 7d f0	 mov	 DWORD PTR $T12[ebp], edi
  00b07	c7 45 fc 19 00
	00 00		 mov	 DWORD PTR __$EHRec$[ebp+8], 25 ; 00000019H
  00b0e	85 ff		 test	 edi, edi
  00b10	74 4d		 je	 SHORT $LN53@CSymbolSin
  00b12	6a 2c		 push	 44			; 0000002cH
  00b14	6a 00		 push	 0
  00b16	57		 push	 edi
  00b17	e8 00 00 00 00	 call	 _memset
  00b1c	83 c4 0c	 add	 esp, 12			; 0000000cH
  00b1f	8b cf		 mov	 ecx, edi
  00b21	e8 00 00 00 00	 call	 ??0CSymbolTool@@QAE@XZ	; CSymbolTool::CSymbolTool
; File C:\Program Files (x86)\Microsoft Visual Studio\2019\Community\VC\Tools\MSVC\14.29.30133\atlmfc\include\atltypes.h

; 400  : 	x = 0;

  00b26	c7 47 10 00 00
	00 00		 mov	 DWORD PTR [edi+16], 0

; 401  : 	y = 0;

  00b2d	c7 47 14 00 00
	00 00		 mov	 DWORD PTR [edi+20], 0

; 304  : 	cx = 0;

  00b34	c7 47 18 00 00
	00 00		 mov	 DWORD PTR [edi+24], 0

; 305  : 	cy = 0;

  00b3b	c7 47 1c 00 00
	00 00		 mov	 DWORD PTR [edi+28], 0

; 400  : 	x = 0;

  00b42	c7 47 20 00 00
	00 00		 mov	 DWORD PTR [edi+32], 0

; 401  : 	y = 0;

  00b49	c7 47 24 00 00
	00 00		 mov	 DWORD PTR [edi+36], 0
  00b50	c7 07 00 00 00
	00		 mov	 DWORD PTR [edi], OFFSET ??_7CText_D_Tool@@6B@
  00b56	c7 47 28 00 00
	00 00		 mov	 DWORD PTR [edi+40], OFFSET ??_7CText_D_Draw@@6B@
; File D:\git\src\IBK\IBK_DRFN\ProjSrc\SrcChartEx\ChartAddIn\ChartAnalysisToolAddIn\Symbol\SymbolSingleton.cpp

; 47   : 	m_pTextDTool = new CText_D_Tool();

  00b5d	eb 02		 jmp	 SHORT $LN54@CSymbolSin
$LN53@CSymbolSin:
  00b5f	33 ff		 xor	 edi, edi
$LN54@CSymbolSin:

; 48   : 	m_pTextETool = new CText_E_Tool();

  00b61	6a 2c		 push	 44			; 0000002cH
  00b63	c7 45 fc ff ff
	ff ff		 mov	 DWORD PTR __$EHRec$[ebp+8], -1
  00b6a	89 7e 68	 mov	 DWORD PTR [esi+104], edi
  00b6d	e8 00 00 00 00	 call	 ??2@YAPAXI@Z		; operator new
  00b72	8b f8		 mov	 edi, eax
  00b74	83 c4 04	 add	 esp, 4
  00b77	89 7d f0	 mov	 DWORD PTR $T11[ebp], edi
  00b7a	c7 45 fc 1a 00
	00 00		 mov	 DWORD PTR __$EHRec$[ebp+8], 26 ; 0000001aH
  00b81	85 ff		 test	 edi, edi
  00b83	74 4d		 je	 SHORT $LN55@CSymbolSin
  00b85	6a 2c		 push	 44			; 0000002cH
  00b87	6a 00		 push	 0
  00b89	57		 push	 edi
  00b8a	e8 00 00 00 00	 call	 _memset
  00b8f	83 c4 0c	 add	 esp, 12			; 0000000cH
  00b92	8b cf		 mov	 ecx, edi
  00b94	e8 00 00 00 00	 call	 ??0CSymbolTool@@QAE@XZ	; CSymbolTool::CSymbolTool
; File C:\Program Files (x86)\Microsoft Visual Studio\2019\Community\VC\Tools\MSVC\14.29.30133\atlmfc\include\atltypes.h

; 400  : 	x = 0;

  00b99	c7 47 10 00 00
	00 00		 mov	 DWORD PTR [edi+16], 0

; 401  : 	y = 0;

  00ba0	c7 47 14 00 00
	00 00		 mov	 DWORD PTR [edi+20], 0

; 304  : 	cx = 0;

  00ba7	c7 47 18 00 00
	00 00		 mov	 DWORD PTR [edi+24], 0

; 305  : 	cy = 0;

  00bae	c7 47 1c 00 00
	00 00		 mov	 DWORD PTR [edi+28], 0

; 400  : 	x = 0;

  00bb5	c7 47 20 00 00
	00 00		 mov	 DWORD PTR [edi+32], 0

; 401  : 	y = 0;

  00bbc	c7 47 24 00 00
	00 00		 mov	 DWORD PTR [edi+36], 0
  00bc3	c7 07 00 00 00
	00		 mov	 DWORD PTR [edi], OFFSET ??_7CText_E_Tool@@6B@
  00bc9	c7 47 28 00 00
	00 00		 mov	 DWORD PTR [edi+40], OFFSET ??_7CText_E_Draw@@6B@
; File D:\git\src\IBK\IBK_DRFN\ProjSrc\SrcChartEx\ChartAddIn\ChartAnalysisToolAddIn\Symbol\SymbolSingleton.cpp

; 48   : 	m_pTextETool = new CText_E_Tool();

  00bd0	eb 02		 jmp	 SHORT $LN56@CSymbolSin
$LN55@CSymbolSin:
  00bd2	33 ff		 xor	 edi, edi
$LN56@CSymbolSin:

; 49   : 	m_pTextFTool = new CText_F_Tool();

  00bd4	6a 2c		 push	 44			; 0000002cH
  00bd6	c7 45 fc ff ff
	ff ff		 mov	 DWORD PTR __$EHRec$[ebp+8], -1
  00bdd	89 7e 6c	 mov	 DWORD PTR [esi+108], edi
  00be0	e8 00 00 00 00	 call	 ??2@YAPAXI@Z		; operator new
  00be5	8b f8		 mov	 edi, eax
  00be7	83 c4 04	 add	 esp, 4
  00bea	89 7d f0	 mov	 DWORD PTR $T10[ebp], edi
  00bed	c7 45 fc 1b 00
	00 00		 mov	 DWORD PTR __$EHRec$[ebp+8], 27 ; 0000001bH
  00bf4	85 ff		 test	 edi, edi
  00bf6	74 4d		 je	 SHORT $LN57@CSymbolSin
  00bf8	6a 2c		 push	 44			; 0000002cH
  00bfa	6a 00		 push	 0
  00bfc	57		 push	 edi
  00bfd	e8 00 00 00 00	 call	 _memset
  00c02	83 c4 0c	 add	 esp, 12			; 0000000cH
  00c05	8b cf		 mov	 ecx, edi
  00c07	e8 00 00 00 00	 call	 ??0CSymbolTool@@QAE@XZ	; CSymbolTool::CSymbolTool
; File C:\Program Files (x86)\Microsoft Visual Studio\2019\Community\VC\Tools\MSVC\14.29.30133\atlmfc\include\atltypes.h

; 400  : 	x = 0;

  00c0c	c7 47 10 00 00
	00 00		 mov	 DWORD PTR [edi+16], 0

; 401  : 	y = 0;

  00c13	c7 47 14 00 00
	00 00		 mov	 DWORD PTR [edi+20], 0

; 304  : 	cx = 0;

  00c1a	c7 47 18 00 00
	00 00		 mov	 DWORD PTR [edi+24], 0

; 305  : 	cy = 0;

  00c21	c7 47 1c 00 00
	00 00		 mov	 DWORD PTR [edi+28], 0

; 400  : 	x = 0;

  00c28	c7 47 20 00 00
	00 00		 mov	 DWORD PTR [edi+32], 0

; 401  : 	y = 0;

  00c2f	c7 47 24 00 00
	00 00		 mov	 DWORD PTR [edi+36], 0
  00c36	c7 07 00 00 00
	00		 mov	 DWORD PTR [edi], OFFSET ??_7CText_F_Tool@@6B@
  00c3c	c7 47 28 00 00
	00 00		 mov	 DWORD PTR [edi+40], OFFSET ??_7CText_F_Draw@@6B@
; File D:\git\src\IBK\IBK_DRFN\ProjSrc\SrcChartEx\ChartAddIn\ChartAnalysisToolAddIn\Symbol\SymbolSingleton.cpp

; 49   : 	m_pTextFTool = new CText_F_Tool();

  00c43	eb 02		 jmp	 SHORT $LN58@CSymbolSin
$LN57@CSymbolSin:
  00c45	33 ff		 xor	 edi, edi
$LN58@CSymbolSin:

; 50   : 	m_pTextGTool = new CText_G_Tool();

  00c47	6a 2c		 push	 44			; 0000002cH
  00c49	c7 45 fc ff ff
	ff ff		 mov	 DWORD PTR __$EHRec$[ebp+8], -1
  00c50	89 7e 70	 mov	 DWORD PTR [esi+112], edi
  00c53	e8 00 00 00 00	 call	 ??2@YAPAXI@Z		; operator new
  00c58	8b f8		 mov	 edi, eax
  00c5a	83 c4 04	 add	 esp, 4
  00c5d	89 7d f0	 mov	 DWORD PTR $T9[ebp], edi
  00c60	c7 45 fc 1c 00
	00 00		 mov	 DWORD PTR __$EHRec$[ebp+8], 28 ; 0000001cH
  00c67	85 ff		 test	 edi, edi
  00c69	74 4d		 je	 SHORT $LN59@CSymbolSin
  00c6b	6a 2c		 push	 44			; 0000002cH
  00c6d	6a 00		 push	 0
  00c6f	57		 push	 edi
  00c70	e8 00 00 00 00	 call	 _memset
  00c75	83 c4 0c	 add	 esp, 12			; 0000000cH
  00c78	8b cf		 mov	 ecx, edi
  00c7a	e8 00 00 00 00	 call	 ??0CSymbolTool@@QAE@XZ	; CSymbolTool::CSymbolTool
; File C:\Program Files (x86)\Microsoft Visual Studio\2019\Community\VC\Tools\MSVC\14.29.30133\atlmfc\include\atltypes.h

; 400  : 	x = 0;

  00c7f	c7 47 10 00 00
	00 00		 mov	 DWORD PTR [edi+16], 0

; 401  : 	y = 0;

  00c86	c7 47 14 00 00
	00 00		 mov	 DWORD PTR [edi+20], 0

; 304  : 	cx = 0;

  00c8d	c7 47 18 00 00
	00 00		 mov	 DWORD PTR [edi+24], 0

; 305  : 	cy = 0;

  00c94	c7 47 1c 00 00
	00 00		 mov	 DWORD PTR [edi+28], 0

; 400  : 	x = 0;

  00c9b	c7 47 20 00 00
	00 00		 mov	 DWORD PTR [edi+32], 0

; 401  : 	y = 0;

  00ca2	c7 47 24 00 00
	00 00		 mov	 DWORD PTR [edi+36], 0
  00ca9	c7 07 00 00 00
	00		 mov	 DWORD PTR [edi], OFFSET ??_7CText_G_Tool@@6B@
  00caf	c7 47 28 00 00
	00 00		 mov	 DWORD PTR [edi+40], OFFSET ??_7CText_G_Draw@@6B@
; File D:\git\src\IBK\IBK_DRFN\ProjSrc\SrcChartEx\ChartAddIn\ChartAnalysisToolAddIn\Symbol\SymbolSingleton.cpp

; 50   : 	m_pTextGTool = new CText_G_Tool();

  00cb6	eb 02		 jmp	 SHORT $LN60@CSymbolSin
$LN59@CSymbolSin:
  00cb8	33 ff		 xor	 edi, edi
$LN60@CSymbolSin:

; 51   : 	m_pTextHTool = new CText_H_Tool();

  00cba	6a 2c		 push	 44			; 0000002cH
  00cbc	c7 45 fc ff ff
	ff ff		 mov	 DWORD PTR __$EHRec$[ebp+8], -1
  00cc3	89 7e 74	 mov	 DWORD PTR [esi+116], edi
  00cc6	e8 00 00 00 00	 call	 ??2@YAPAXI@Z		; operator new
  00ccb	8b f8		 mov	 edi, eax
  00ccd	83 c4 04	 add	 esp, 4
  00cd0	89 7d f0	 mov	 DWORD PTR $T8[ebp], edi
  00cd3	c7 45 fc 1d 00
	00 00		 mov	 DWORD PTR __$EHRec$[ebp+8], 29 ; 0000001dH
  00cda	85 ff		 test	 edi, edi
  00cdc	74 4d		 je	 SHORT $LN61@CSymbolSin
  00cde	6a 2c		 push	 44			; 0000002cH
  00ce0	6a 00		 push	 0
  00ce2	57		 push	 edi
  00ce3	e8 00 00 00 00	 call	 _memset
  00ce8	83 c4 0c	 add	 esp, 12			; 0000000cH
  00ceb	8b cf		 mov	 ecx, edi
  00ced	e8 00 00 00 00	 call	 ??0CSymbolTool@@QAE@XZ	; CSymbolTool::CSymbolTool
; File C:\Program Files (x86)\Microsoft Visual Studio\2019\Community\VC\Tools\MSVC\14.29.30133\atlmfc\include\atltypes.h

; 400  : 	x = 0;

  00cf2	c7 47 10 00 00
	00 00		 mov	 DWORD PTR [edi+16], 0

; 401  : 	y = 0;

  00cf9	c7 47 14 00 00
	00 00		 mov	 DWORD PTR [edi+20], 0

; 304  : 	cx = 0;

  00d00	c7 47 18 00 00
	00 00		 mov	 DWORD PTR [edi+24], 0

; 305  : 	cy = 0;

  00d07	c7 47 1c 00 00
	00 00		 mov	 DWORD PTR [edi+28], 0

; 400  : 	x = 0;

  00d0e	c7 47 20 00 00
	00 00		 mov	 DWORD PTR [edi+32], 0

; 401  : 	y = 0;

  00d15	c7 47 24 00 00
	00 00		 mov	 DWORD PTR [edi+36], 0
  00d1c	c7 07 00 00 00
	00		 mov	 DWORD PTR [edi], OFFSET ??_7CText_H_Tool@@6B@
  00d22	c7 47 28 00 00
	00 00		 mov	 DWORD PTR [edi+40], OFFSET ??_7CText_H_Draw@@6B@
; File D:\git\src\IBK\IBK_DRFN\ProjSrc\SrcChartEx\ChartAddIn\ChartAnalysisToolAddIn\Symbol\SymbolSingleton.cpp

; 51   : 	m_pTextHTool = new CText_H_Tool();

  00d29	eb 02		 jmp	 SHORT $LN62@CSymbolSin
$LN61@CSymbolSin:
  00d2b	33 ff		 xor	 edi, edi
$LN62@CSymbolSin:

; 53   : 	m_pChar1Tool = new CChar_1_Tool();

  00d2d	6a 2c		 push	 44			; 0000002cH
  00d2f	c7 45 fc ff ff
	ff ff		 mov	 DWORD PTR __$EHRec$[ebp+8], -1
  00d36	89 7e 78	 mov	 DWORD PTR [esi+120], edi
  00d39	e8 00 00 00 00	 call	 ??2@YAPAXI@Z		; operator new
  00d3e	8b f8		 mov	 edi, eax
  00d40	83 c4 04	 add	 esp, 4
  00d43	89 7d f0	 mov	 DWORD PTR $T7[ebp], edi
  00d46	c7 45 fc 1e 00
	00 00		 mov	 DWORD PTR __$EHRec$[ebp+8], 30 ; 0000001eH
  00d4d	85 ff		 test	 edi, edi
  00d4f	74 4d		 je	 SHORT $LN63@CSymbolSin
  00d51	6a 2c		 push	 44			; 0000002cH
  00d53	6a 00		 push	 0
  00d55	57		 push	 edi
  00d56	e8 00 00 00 00	 call	 _memset
  00d5b	83 c4 0c	 add	 esp, 12			; 0000000cH
  00d5e	8b cf		 mov	 ecx, edi
  00d60	e8 00 00 00 00	 call	 ??0CSymbolTool@@QAE@XZ	; CSymbolTool::CSymbolTool
; File C:\Program Files (x86)\Microsoft Visual Studio\2019\Community\VC\Tools\MSVC\14.29.30133\atlmfc\include\atltypes.h

; 400  : 	x = 0;

  00d65	c7 47 10 00 00
	00 00		 mov	 DWORD PTR [edi+16], 0

; 401  : 	y = 0;

  00d6c	c7 47 14 00 00
	00 00		 mov	 DWORD PTR [edi+20], 0

; 304  : 	cx = 0;

  00d73	c7 47 18 00 00
	00 00		 mov	 DWORD PTR [edi+24], 0

; 305  : 	cy = 0;

  00d7a	c7 47 1c 00 00
	00 00		 mov	 DWORD PTR [edi+28], 0

; 400  : 	x = 0;

  00d81	c7 47 20 00 00
	00 00		 mov	 DWORD PTR [edi+32], 0

; 401  : 	y = 0;

  00d88	c7 47 24 00 00
	00 00		 mov	 DWORD PTR [edi+36], 0
  00d8f	c7 07 00 00 00
	00		 mov	 DWORD PTR [edi], OFFSET ??_7CChar_1_Tool@@6B@
  00d95	c7 47 28 00 00
	00 00		 mov	 DWORD PTR [edi+40], OFFSET ??_7CChar_1_Draw@@6B@
; File D:\git\src\IBK\IBK_DRFN\ProjSrc\SrcChartEx\ChartAddIn\ChartAnalysisToolAddIn\Symbol\SymbolSingleton.cpp

; 53   : 	m_pChar1Tool = new CChar_1_Tool();

  00d9c	eb 02		 jmp	 SHORT $LN64@CSymbolSin
$LN63@CSymbolSin:
  00d9e	33 ff		 xor	 edi, edi
$LN64@CSymbolSin:

; 54   : 	m_pChar2Tool = new CChar_2_Tool();

  00da0	6a 2c		 push	 44			; 0000002cH
  00da2	c7 45 fc ff ff
	ff ff		 mov	 DWORD PTR __$EHRec$[ebp+8], -1
  00da9	89 7e 7c	 mov	 DWORD PTR [esi+124], edi
  00dac	e8 00 00 00 00	 call	 ??2@YAPAXI@Z		; operator new
  00db1	8b f8		 mov	 edi, eax
  00db3	83 c4 04	 add	 esp, 4
  00db6	89 7d f0	 mov	 DWORD PTR $T6[ebp], edi
  00db9	c7 45 fc 1f 00
	00 00		 mov	 DWORD PTR __$EHRec$[ebp+8], 31 ; 0000001fH
  00dc0	85 ff		 test	 edi, edi
  00dc2	74 4d		 je	 SHORT $LN65@CSymbolSin
  00dc4	6a 2c		 push	 44			; 0000002cH
  00dc6	6a 00		 push	 0
  00dc8	57		 push	 edi
  00dc9	e8 00 00 00 00	 call	 _memset
  00dce	83 c4 0c	 add	 esp, 12			; 0000000cH
  00dd1	8b cf		 mov	 ecx, edi
  00dd3	e8 00 00 00 00	 call	 ??0CSymbolTool@@QAE@XZ	; CSymbolTool::CSymbolTool
; File C:\Program Files (x86)\Microsoft Visual Studio\2019\Community\VC\Tools\MSVC\14.29.30133\atlmfc\include\atltypes.h

; 400  : 	x = 0;

  00dd8	c7 47 10 00 00
	00 00		 mov	 DWORD PTR [edi+16], 0

; 401  : 	y = 0;

  00ddf	c7 47 14 00 00
	00 00		 mov	 DWORD PTR [edi+20], 0

; 304  : 	cx = 0;

  00de6	c7 47 18 00 00
	00 00		 mov	 DWORD PTR [edi+24], 0

; 305  : 	cy = 0;

  00ded	c7 47 1c 00 00
	00 00		 mov	 DWORD PTR [edi+28], 0

; 400  : 	x = 0;

  00df4	c7 47 20 00 00
	00 00		 mov	 DWORD PTR [edi+32], 0

; 401  : 	y = 0;

  00dfb	c7 47 24 00 00
	00 00		 mov	 DWORD PTR [edi+36], 0
  00e02	c7 07 00 00 00
	00		 mov	 DWORD PTR [edi], OFFSET ??_7CChar_2_Tool@@6B@
  00e08	c7 47 28 00 00
	00 00		 mov	 DWORD PTR [edi+40], OFFSET ??_7CChar_2_Draw@@6B@
; File D:\git\src\IBK\IBK_DRFN\ProjSrc\SrcChartEx\ChartAddIn\ChartAnalysisToolAddIn\Symbol\SymbolSingleton.cpp

; 54   : 	m_pChar2Tool = new CChar_2_Tool();

  00e0f	eb 02		 jmp	 SHORT $LN66@CSymbolSin
$LN65@CSymbolSin:
  00e11	33 ff		 xor	 edi, edi
$LN66@CSymbolSin:

; 55   : 	m_pChar3Tool = new CChar_3_Tool();

  00e13	6a 2c		 push	 44			; 0000002cH
  00e15	c7 45 fc ff ff
	ff ff		 mov	 DWORD PTR __$EHRec$[ebp+8], -1
  00e1c	89 be 80 00 00
	00		 mov	 DWORD PTR [esi+128], edi
  00e22	e8 00 00 00 00	 call	 ??2@YAPAXI@Z		; operator new
  00e27	8b f8		 mov	 edi, eax
  00e29	83 c4 04	 add	 esp, 4
  00e2c	89 7d f0	 mov	 DWORD PTR $T5[ebp], edi
  00e2f	c7 45 fc 20 00
	00 00		 mov	 DWORD PTR __$EHRec$[ebp+8], 32 ; 00000020H
  00e36	85 ff		 test	 edi, edi
  00e38	74 4d		 je	 SHORT $LN67@CSymbolSin
  00e3a	6a 2c		 push	 44			; 0000002cH
  00e3c	6a 00		 push	 0
  00e3e	57		 push	 edi
  00e3f	e8 00 00 00 00	 call	 _memset
  00e44	83 c4 0c	 add	 esp, 12			; 0000000cH
  00e47	8b cf		 mov	 ecx, edi
  00e49	e8 00 00 00 00	 call	 ??0CSymbolTool@@QAE@XZ	; CSymbolTool::CSymbolTool
; File C:\Program Files (x86)\Microsoft Visual Studio\2019\Community\VC\Tools\MSVC\14.29.30133\atlmfc\include\atltypes.h

; 400  : 	x = 0;

  00e4e	c7 47 10 00 00
	00 00		 mov	 DWORD PTR [edi+16], 0

; 401  : 	y = 0;

  00e55	c7 47 14 00 00
	00 00		 mov	 DWORD PTR [edi+20], 0

; 304  : 	cx = 0;

  00e5c	c7 47 18 00 00
	00 00		 mov	 DWORD PTR [edi+24], 0

; 305  : 	cy = 0;

  00e63	c7 47 1c 00 00
	00 00		 mov	 DWORD PTR [edi+28], 0

; 400  : 	x = 0;

  00e6a	c7 47 20 00 00
	00 00		 mov	 DWORD PTR [edi+32], 0

; 401  : 	y = 0;

  00e71	c7 47 24 00 00
	00 00		 mov	 DWORD PTR [edi+36], 0
  00e78	c7 07 00 00 00
	00		 mov	 DWORD PTR [edi], OFFSET ??_7CChar_3_Tool@@6B@
  00e7e	c7 47 28 00 00
	00 00		 mov	 DWORD PTR [edi+40], OFFSET ??_7CChar_3_Draw@@6B@
; File D:\git\src\IBK\IBK_DRFN\ProjSrc\SrcChartEx\ChartAddIn\ChartAnalysisToolAddIn\Symbol\SymbolSingleton.cpp

; 55   : 	m_pChar3Tool = new CChar_3_Tool();

  00e85	eb 02		 jmp	 SHORT $LN68@CSymbolSin
$LN67@CSymbolSin:
  00e87	33 ff		 xor	 edi, edi
$LN68@CSymbolSin:

; 56   : 	m_pChar4Tool = new CChar_4_Tool();

  00e89	6a 2c		 push	 44			; 0000002cH
  00e8b	c7 45 fc ff ff
	ff ff		 mov	 DWORD PTR __$EHRec$[ebp+8], -1
  00e92	89 be 84 00 00
	00		 mov	 DWORD PTR [esi+132], edi
  00e98	e8 00 00 00 00	 call	 ??2@YAPAXI@Z		; operator new
  00e9d	8b f8		 mov	 edi, eax
  00e9f	83 c4 04	 add	 esp, 4
  00ea2	89 7d f0	 mov	 DWORD PTR $T4[ebp], edi
  00ea5	c7 45 fc 21 00
	00 00		 mov	 DWORD PTR __$EHRec$[ebp+8], 33 ; 00000021H
  00eac	85 ff		 test	 edi, edi
  00eae	74 4d		 je	 SHORT $LN69@CSymbolSin
  00eb0	6a 2c		 push	 44			; 0000002cH
  00eb2	6a 00		 push	 0
  00eb4	57		 push	 edi
  00eb5	e8 00 00 00 00	 call	 _memset
  00eba	83 c4 0c	 add	 esp, 12			; 0000000cH
  00ebd	8b cf		 mov	 ecx, edi
  00ebf	e8 00 00 00 00	 call	 ??0CSymbolTool@@QAE@XZ	; CSymbolTool::CSymbolTool
; File C:\Program Files (x86)\Microsoft Visual Studio\2019\Community\VC\Tools\MSVC\14.29.30133\atlmfc\include\atltypes.h

; 400  : 	x = 0;

  00ec4	c7 47 10 00 00
	00 00		 mov	 DWORD PTR [edi+16], 0

; 401  : 	y = 0;

  00ecb	c7 47 14 00 00
	00 00		 mov	 DWORD PTR [edi+20], 0

; 304  : 	cx = 0;

  00ed2	c7 47 18 00 00
	00 00		 mov	 DWORD PTR [edi+24], 0

; 305  : 	cy = 0;

  00ed9	c7 47 1c 00 00
	00 00		 mov	 DWORD PTR [edi+28], 0

; 400  : 	x = 0;

  00ee0	c7 47 20 00 00
	00 00		 mov	 DWORD PTR [edi+32], 0

; 401  : 	y = 0;

  00ee7	c7 47 24 00 00
	00 00		 mov	 DWORD PTR [edi+36], 0
  00eee	c7 07 00 00 00
	00		 mov	 DWORD PTR [edi], OFFSET ??_7CChar_4_Tool@@6B@
  00ef4	c7 47 28 00 00
	00 00		 mov	 DWORD PTR [edi+40], OFFSET ??_7CChar_4_Draw@@6B@
; File D:\git\src\IBK\IBK_DRFN\ProjSrc\SrcChartEx\ChartAddIn\ChartAnalysisToolAddIn\Symbol\SymbolSingleton.cpp

; 56   : 	m_pChar4Tool = new CChar_4_Tool();

  00efb	eb 02		 jmp	 SHORT $LN70@CSymbolSin
$LN69@CSymbolSin:
  00efd	33 ff		 xor	 edi, edi
$LN70@CSymbolSin:

; 57   : 	m_pChar5Tool = new CChar_5_Tool();

  00eff	6a 2c		 push	 44			; 0000002cH
  00f01	c7 45 fc ff ff
	ff ff		 mov	 DWORD PTR __$EHRec$[ebp+8], -1
  00f08	89 be 88 00 00
	00		 mov	 DWORD PTR [esi+136], edi
  00f0e	e8 00 00 00 00	 call	 ??2@YAPAXI@Z		; operator new
  00f13	8b f8		 mov	 edi, eax
  00f15	83 c4 04	 add	 esp, 4
  00f18	89 7d f0	 mov	 DWORD PTR $T3[ebp], edi
  00f1b	c7 45 fc 22 00
	00 00		 mov	 DWORD PTR __$EHRec$[ebp+8], 34 ; 00000022H
  00f22	85 ff		 test	 edi, edi
  00f24	74 4d		 je	 SHORT $LN71@CSymbolSin
  00f26	6a 2c		 push	 44			; 0000002cH
  00f28	6a 00		 push	 0
  00f2a	57		 push	 edi
  00f2b	e8 00 00 00 00	 call	 _memset
  00f30	83 c4 0c	 add	 esp, 12			; 0000000cH
  00f33	8b cf		 mov	 ecx, edi
  00f35	e8 00 00 00 00	 call	 ??0CSymbolTool@@QAE@XZ	; CSymbolTool::CSymbolTool
; File C:\Program Files (x86)\Microsoft Visual Studio\2019\Community\VC\Tools\MSVC\14.29.30133\atlmfc\include\atltypes.h

; 400  : 	x = 0;

  00f3a	c7 47 10 00 00
	00 00		 mov	 DWORD PTR [edi+16], 0

; 401  : 	y = 0;

  00f41	c7 47 14 00 00
	00 00		 mov	 DWORD PTR [edi+20], 0

; 304  : 	cx = 0;

  00f48	c7 47 18 00 00
	00 00		 mov	 DWORD PTR [edi+24], 0

; 305  : 	cy = 0;

  00f4f	c7 47 1c 00 00
	00 00		 mov	 DWORD PTR [edi+28], 0

; 400  : 	x = 0;

  00f56	c7 47 20 00 00
	00 00		 mov	 DWORD PTR [edi+32], 0

; 401  : 	y = 0;

  00f5d	c7 47 24 00 00
	00 00		 mov	 DWORD PTR [edi+36], 0
  00f64	c7 07 00 00 00
	00		 mov	 DWORD PTR [edi], OFFSET ??_7CChar_5_Tool@@6B@
  00f6a	c7 47 28 00 00
	00 00		 mov	 DWORD PTR [edi+40], OFFSET ??_7CChar_5_Draw@@6B@
; File D:\git\src\IBK\IBK_DRFN\ProjSrc\SrcChartEx\ChartAddIn\ChartAnalysisToolAddIn\Symbol\SymbolSingleton.cpp

; 57   : 	m_pChar5Tool = new CChar_5_Tool();

  00f71	eb 02		 jmp	 SHORT $LN72@CSymbolSin
$LN71@CSymbolSin:
  00f73	33 ff		 xor	 edi, edi
$LN72@CSymbolSin:

; 58   : 	m_pChar6Tool = new CChar_6_Tool();

  00f75	6a 2c		 push	 44			; 0000002cH
  00f77	c7 45 fc ff ff
	ff ff		 mov	 DWORD PTR __$EHRec$[ebp+8], -1
  00f7e	89 be 8c 00 00
	00		 mov	 DWORD PTR [esi+140], edi
  00f84	e8 00 00 00 00	 call	 ??2@YAPAXI@Z		; operator new
  00f89	8b f8		 mov	 edi, eax
  00f8b	83 c4 04	 add	 esp, 4
  00f8e	89 7d f0	 mov	 DWORD PTR $T2[ebp], edi
  00f91	c7 45 fc 23 00
	00 00		 mov	 DWORD PTR __$EHRec$[ebp+8], 35 ; 00000023H
  00f98	85 ff		 test	 edi, edi
  00f9a	74 64		 je	 SHORT $LN73@CSymbolSin
  00f9c	6a 2c		 push	 44			; 0000002cH
  00f9e	6a 00		 push	 0
  00fa0	57		 push	 edi
  00fa1	e8 00 00 00 00	 call	 _memset
  00fa6	83 c4 0c	 add	 esp, 12			; 0000000cH
  00fa9	8b cf		 mov	 ecx, edi
  00fab	e8 00 00 00 00	 call	 ??0CSymbolTool@@QAE@XZ	; CSymbolTool::CSymbolTool
; File C:\Program Files (x86)\Microsoft Visual Studio\2019\Community\VC\Tools\MSVC\14.29.30133\atlmfc\include\atltypes.h

; 400  : 	x = 0;

  00fb0	c7 47 10 00 00
	00 00		 mov	 DWORD PTR [edi+16], 0
; File D:\git\src\IBK\IBK_DRFN\ProjSrc\SrcChartEx\ChartAddIn\ChartAnalysisToolAddIn\Symbol\SymbolSingleton.cpp

; 59   : }

  00fb7	8b c6		 mov	 eax, esi
; File C:\Program Files (x86)\Microsoft Visual Studio\2019\Community\VC\Tools\MSVC\14.29.30133\atlmfc\include\atltypes.h

; 401  : 	y = 0;

  00fb9	c7 47 14 00 00
	00 00		 mov	 DWORD PTR [edi+20], 0

; 304  : 	cx = 0;

  00fc0	c7 47 18 00 00
	00 00		 mov	 DWORD PTR [edi+24], 0

; 305  : 	cy = 0;

  00fc7	c7 47 1c 00 00
	00 00		 mov	 DWORD PTR [edi+28], 0

; 400  : 	x = 0;

  00fce	c7 47 20 00 00
	00 00		 mov	 DWORD PTR [edi+32], 0

; 401  : 	y = 0;

  00fd5	c7 47 24 00 00
	00 00		 mov	 DWORD PTR [edi+36], 0
  00fdc	c7 07 00 00 00
	00		 mov	 DWORD PTR [edi], OFFSET ??_7CChar_6_Tool@@6B@
  00fe2	c7 47 28 00 00
	00 00		 mov	 DWORD PTR [edi+40], OFFSET ??_7CChar_6_Draw@@6B@
; File D:\git\src\IBK\IBK_DRFN\ProjSrc\SrcChartEx\ChartAddIn\ChartAnalysisToolAddIn\Symbol\SymbolSingleton.cpp

; 58   : 	m_pChar6Tool = new CChar_6_Tool();

  00fe9	89 be 90 00 00
	00		 mov	 DWORD PTR [esi+144], edi

; 59   : }

  00fef	8b 4d f4	 mov	 ecx, DWORD PTR __$EHRec$[ebp]
  00ff2	64 89 0d 00 00
	00 00		 mov	 DWORD PTR fs:0, ecx
  00ff9	59		 pop	 ecx
  00ffa	5f		 pop	 edi
  00ffb	5e		 pop	 esi
  00ffc	8b e5		 mov	 esp, ebp
  00ffe	5d		 pop	 ebp
  00fff	c3		 ret	 0
$LN73@CSymbolSin:

; 58   : 	m_pChar6Tool = new CChar_6_Tool();

  01000	c7 86 90 00 00
	00 00 00 00 00	 mov	 DWORD PTR [esi+144], 0

; 59   : }

  0100a	8b c6		 mov	 eax, esi
  0100c	8b 4d f4	 mov	 ecx, DWORD PTR __$EHRec$[ebp]
  0100f	64 89 0d 00 00
	00 00		 mov	 DWORD PTR fs:0, ecx
  01016	59		 pop	 ecx
  01017	5f		 pop	 edi
  01018	5e		 pop	 esi
  01019	8b e5		 mov	 esp, ebp
  0101b	5d		 pop	 ebp
  0101c	c3		 ret	 0
_TEXT	ENDS
;	COMDAT text$x
text$x	SEGMENT
__unwindfunclet$??0CSymbolSingleton@@QAE@XZ$0:
  00000	6a 30		 push	 48			; 00000030H
  00002	8b 45 f0	 mov	 eax, DWORD PTR $T37[ebp]
  00005	50		 push	 eax
  00006	e8 00 00 00 00	 call	 ??3@YAXPAXI@Z		; operator delete
  0000b	83 c4 08	 add	 esp, 8
  0000e	c3		 ret	 0
__unwindfunclet$??0CSymbolSingleton@@QAE@XZ$1:
  0000f	6a 28		 push	 40			; 00000028H
  00011	8b 45 f0	 mov	 eax, DWORD PTR $T36[ebp]
  00014	50		 push	 eax
  00015	e8 00 00 00 00	 call	 ??3@YAXPAXI@Z		; operator delete
  0001a	83 c4 08	 add	 esp, 8
  0001d	c3		 ret	 0
__unwindfunclet$??0CSymbolSingleton@@QAE@XZ$2:
  0001e	6a 28		 push	 40			; 00000028H
  00020	8b 45 f0	 mov	 eax, DWORD PTR $T35[ebp]
  00023	50		 push	 eax
  00024	e8 00 00 00 00	 call	 ??3@YAXPAXI@Z		; operator delete
  00029	83 c4 08	 add	 esp, 8
  0002c	c3		 ret	 0
__unwindfunclet$??0CSymbolSingleton@@QAE@XZ$3:
  0002d	6a 28		 push	 40			; 00000028H
  0002f	8b 45 f0	 mov	 eax, DWORD PTR $T34[ebp]
  00032	50		 push	 eax
  00033	e8 00 00 00 00	 call	 ??3@YAXPAXI@Z		; operator delete
  00038	83 c4 08	 add	 esp, 8
  0003b	c3		 ret	 0
__unwindfunclet$??0CSymbolSingleton@@QAE@XZ$4:
  0003c	6a 4c		 push	 76			; 0000004cH
  0003e	8b 45 f0	 mov	 eax, DWORD PTR $T33[ebp]
  00041	50		 push	 eax
  00042	e8 00 00 00 00	 call	 ??3@YAXPAXI@Z		; operator delete
  00047	83 c4 08	 add	 esp, 8
  0004a	c3		 ret	 0
__unwindfunclet$??0CSymbolSingleton@@QAE@XZ$5:
  0004b	6a 2c		 push	 44			; 0000002cH
  0004d	8b 45 f0	 mov	 eax, DWORD PTR $T32[ebp]
  00050	50		 push	 eax
  00051	e8 00 00 00 00	 call	 ??3@YAXPAXI@Z		; operator delete
  00056	83 c4 08	 add	 esp, 8
  00059	c3		 ret	 0
__unwindfunclet$??0CSymbolSingleton@@QAE@XZ$6:
  0005a	6a 2c		 push	 44			; 0000002cH
  0005c	8b 45 f0	 mov	 eax, DWORD PTR $T31[ebp]
  0005f	50		 push	 eax
  00060	e8 00 00 00 00	 call	 ??3@YAXPAXI@Z		; operator delete
  00065	83 c4 08	 add	 esp, 8
  00068	c3		 ret	 0
__unwindfunclet$??0CSymbolSingleton@@QAE@XZ$7:
  00069	6a 2c		 push	 44			; 0000002cH
  0006b	8b 45 f0	 mov	 eax, DWORD PTR $T30[ebp]
  0006e	50		 push	 eax
  0006f	e8 00 00 00 00	 call	 ??3@YAXPAXI@Z		; operator delete
  00074	83 c4 08	 add	 esp, 8
  00077	c3		 ret	 0
__unwindfunclet$??0CSymbolSingleton@@QAE@XZ$8:
  00078	6a 2c		 push	 44			; 0000002cH
  0007a	8b 45 f0	 mov	 eax, DWORD PTR $T29[ebp]
  0007d	50		 push	 eax
  0007e	e8 00 00 00 00	 call	 ??3@YAXPAXI@Z		; operator delete
  00083	83 c4 08	 add	 esp, 8
  00086	c3		 ret	 0
__unwindfunclet$??0CSymbolSingleton@@QAE@XZ$9:
  00087	6a 2c		 push	 44			; 0000002cH
  00089	8b 45 f0	 mov	 eax, DWORD PTR $T28[ebp]
  0008c	50		 push	 eax
  0008d	e8 00 00 00 00	 call	 ??3@YAXPAXI@Z		; operator delete
  00092	83 c4 08	 add	 esp, 8
  00095	c3		 ret	 0
__unwindfunclet$??0CSymbolSingleton@@QAE@XZ$10:
  00096	6a 2c		 push	 44			; 0000002cH
  00098	8b 45 f0	 mov	 eax, DWORD PTR $T27[ebp]
  0009b	50		 push	 eax
  0009c	e8 00 00 00 00	 call	 ??3@YAXPAXI@Z		; operator delete
  000a1	83 c4 08	 add	 esp, 8
  000a4	c3		 ret	 0
__unwindfunclet$??0CSymbolSingleton@@QAE@XZ$11:
  000a5	6a 2c		 push	 44			; 0000002cH
  000a7	8b 45 f0	 mov	 eax, DWORD PTR $T26[ebp]
  000aa	50		 push	 eax
  000ab	e8 00 00 00 00	 call	 ??3@YAXPAXI@Z		; operator delete
  000b0	83 c4 08	 add	 esp, 8
  000b3	c3		 ret	 0
__unwindfunclet$??0CSymbolSingleton@@QAE@XZ$12:
  000b4	6a 2c		 push	 44			; 0000002cH
  000b6	8b 45 f0	 mov	 eax, DWORD PTR $T25[ebp]
  000b9	50		 push	 eax
  000ba	e8 00 00 00 00	 call	 ??3@YAXPAXI@Z		; operator delete
  000bf	83 c4 08	 add	 esp, 8
  000c2	c3		 ret	 0
__unwindfunclet$??0CSymbolSingleton@@QAE@XZ$13:
  000c3	6a 2c		 push	 44			; 0000002cH
  000c5	8b 45 f0	 mov	 eax, DWORD PTR $T24[ebp]
  000c8	50		 push	 eax
  000c9	e8 00 00 00 00	 call	 ??3@YAXPAXI@Z		; operator delete
  000ce	83 c4 08	 add	 esp, 8
  000d1	c3		 ret	 0
__unwindfunclet$??0CSymbolSingleton@@QAE@XZ$14:
  000d2	6a 2c		 push	 44			; 0000002cH
  000d4	8b 45 f0	 mov	 eax, DWORD PTR $T23[ebp]
  000d7	50		 push	 eax
  000d8	e8 00 00 00 00	 call	 ??3@YAXPAXI@Z		; operator delete
  000dd	83 c4 08	 add	 esp, 8
  000e0	c3		 ret	 0
__unwindfunclet$??0CSymbolSingleton@@QAE@XZ$15:
  000e1	6a 2c		 push	 44			; 0000002cH
  000e3	8b 45 f0	 mov	 eax, DWORD PTR $T22[ebp]
  000e6	50		 push	 eax
  000e7	e8 00 00 00 00	 call	 ??3@YAXPAXI@Z		; operator delete
  000ec	83 c4 08	 add	 esp, 8
  000ef	c3		 ret	 0
__unwindfunclet$??0CSymbolSingleton@@QAE@XZ$16:
  000f0	6a 2c		 push	 44			; 0000002cH
  000f2	8b 45 f0	 mov	 eax, DWORD PTR $T21[ebp]
  000f5	50		 push	 eax
  000f6	e8 00 00 00 00	 call	 ??3@YAXPAXI@Z		; operator delete
  000fb	83 c4 08	 add	 esp, 8
  000fe	c3		 ret	 0
__unwindfunclet$??0CSymbolSingleton@@QAE@XZ$17:
  000ff	6a 2c		 push	 44			; 0000002cH
  00101	8b 45 f0	 mov	 eax, DWORD PTR $T20[ebp]
  00104	50		 push	 eax
  00105	e8 00 00 00 00	 call	 ??3@YAXPAXI@Z		; operator delete
  0010a	83 c4 08	 add	 esp, 8
  0010d	c3		 ret	 0
__unwindfunclet$??0CSymbolSingleton@@QAE@XZ$18:
  0010e	6a 2c		 push	 44			; 0000002cH
  00110	8b 45 f0	 mov	 eax, DWORD PTR $T19[ebp]
  00113	50		 push	 eax
  00114	e8 00 00 00 00	 call	 ??3@YAXPAXI@Z		; operator delete
  00119	83 c4 08	 add	 esp, 8
  0011c	c3		 ret	 0
__unwindfunclet$??0CSymbolSingleton@@QAE@XZ$19:
  0011d	6a 2c		 push	 44			; 0000002cH
  0011f	8b 45 f0	 mov	 eax, DWORD PTR $T18[ebp]
  00122	50		 push	 eax
  00123	e8 00 00 00 00	 call	 ??3@YAXPAXI@Z		; operator delete
  00128	83 c4 08	 add	 esp, 8
  0012b	c3		 ret	 0
__unwindfunclet$??0CSymbolSingleton@@QAE@XZ$20:
  0012c	6a 2c		 push	 44			; 0000002cH
  0012e	8b 45 f0	 mov	 eax, DWORD PTR $T17[ebp]
  00131	50		 push	 eax
  00132	e8 00 00 00 00	 call	 ??3@YAXPAXI@Z		; operator delete
  00137	83 c4 08	 add	 esp, 8
  0013a	c3		 ret	 0
__unwindfunclet$??0CSymbolSingleton@@QAE@XZ$21:
  0013b	6a 2c		 push	 44			; 0000002cH
  0013d	8b 45 f0	 mov	 eax, DWORD PTR $T16[ebp]
  00140	50		 push	 eax
  00141	e8 00 00 00 00	 call	 ??3@YAXPAXI@Z		; operator delete
  00146	83 c4 08	 add	 esp, 8
  00149	c3		 ret	 0
__unwindfunclet$??0CSymbolSingleton@@QAE@XZ$22:
  0014a	6a 2c		 push	 44			; 0000002cH
  0014c	8b 45 f0	 mov	 eax, DWORD PTR $T15[ebp]
  0014f	50		 push	 eax
  00150	e8 00 00 00 00	 call	 ??3@YAXPAXI@Z		; operator delete
  00155	83 c4 08	 add	 esp, 8
  00158	c3		 ret	 0
__unwindfunclet$??0CSymbolSingleton@@QAE@XZ$23:
  00159	6a 2c		 push	 44			; 0000002cH
  0015b	8b 45 f0	 mov	 eax, DWORD PTR $T14[ebp]
  0015e	50		 push	 eax
  0015f	e8 00 00 00 00	 call	 ??3@YAXPAXI@Z		; operator delete
  00164	83 c4 08	 add	 esp, 8
  00167	c3		 ret	 0
__unwindfunclet$??0CSymbolSingleton@@QAE@XZ$24:
  00168	6a 2c		 push	 44			; 0000002cH
  0016a	8b 45 f0	 mov	 eax, DWORD PTR $T13[ebp]
  0016d	50		 push	 eax
  0016e	e8 00 00 00 00	 call	 ??3@YAXPAXI@Z		; operator delete
  00173	83 c4 08	 add	 esp, 8
  00176	c3		 ret	 0
__unwindfunclet$??0CSymbolSingleton@@QAE@XZ$25:
  00177	6a 2c		 push	 44			; 0000002cH
  00179	8b 45 f0	 mov	 eax, DWORD PTR $T12[ebp]
  0017c	50		 push	 eax
  0017d	e8 00 00 00 00	 call	 ??3@YAXPAXI@Z		; operator delete
  00182	83 c4 08	 add	 esp, 8
  00185	c3		 ret	 0
__unwindfunclet$??0CSymbolSingleton@@QAE@XZ$26:
  00186	6a 2c		 push	 44			; 0000002cH
  00188	8b 45 f0	 mov	 eax, DWORD PTR $T11[ebp]
  0018b	50		 push	 eax
  0018c	e8 00 00 00 00	 call	 ??3@YAXPAXI@Z		; operator delete
  00191	83 c4 08	 add	 esp, 8
  00194	c3		 ret	 0
__unwindfunclet$??0CSymbolSingleton@@QAE@XZ$27:
  00195	6a 2c		 push	 44			; 0000002cH
  00197	8b 45 f0	 mov	 eax, DWORD PTR $T10[ebp]
  0019a	50		 push	 eax
  0019b	e8 00 00 00 00	 call	 ??3@YAXPAXI@Z		; operator delete
  001a0	83 c4 08	 add	 esp, 8
  001a3	c3		 ret	 0
__unwindfunclet$??0CSymbolSingleton@@QAE@XZ$28:
  001a4	6a 2c		 push	 44			; 0000002cH
  001a6	8b 45 f0	 mov	 eax, DWORD PTR $T9[ebp]
  001a9	50		 push	 eax
  001aa	e8 00 00 00 00	 call	 ??3@YAXPAXI@Z		; operator delete
  001af	83 c4 08	 add	 esp, 8
  001b2	c3		 ret	 0
__unwindfunclet$??0CSymbolSingleton@@QAE@XZ$29:
  001b3	6a 2c		 push	 44			; 0000002cH
  001b5	8b 45 f0	 mov	 eax, DWORD PTR $T8[ebp]
  001b8	50		 push	 eax
  001b9	e8 00 00 00 00	 call	 ??3@YAXPAXI@Z		; operator delete
  001be	83 c4 08	 add	 esp, 8
  001c1	c3		 ret	 0
__unwindfunclet$??0CSymbolSingleton@@QAE@XZ$30:
  001c2	6a 2c		 push	 44			; 0000002cH
  001c4	8b 45 f0	 mov	 eax, DWORD PTR $T7[ebp]
  001c7	50		 push	 eax
  001c8	e8 00 00 00 00	 call	 ??3@YAXPAXI@Z		; operator delete
  001cd	83 c4 08	 add	 esp, 8
  001d0	c3		 ret	 0
__unwindfunclet$??0CSymbolSingleton@@QAE@XZ$31:
  001d1	6a 2c		 push	 44			; 0000002cH
  001d3	8b 45 f0	 mov	 eax, DWORD PTR $T6[ebp]
  001d6	50		 push	 eax
  001d7	e8 00 00 00 00	 call	 ??3@YAXPAXI@Z		; operator delete
  001dc	83 c4 08	 add	 esp, 8
  001df	c3		 ret	 0
__unwindfunclet$??0CSymbolSingleton@@QAE@XZ$32:
  001e0	6a 2c		 push	 44			; 0000002cH
  001e2	8b 45 f0	 mov	 eax, DWORD PTR $T5[ebp]
  001e5	50		 push	 eax
  001e6	e8 00 00 00 00	 call	 ??3@YAXPAXI@Z		; operator delete
  001eb	83 c4 08	 add	 esp, 8
  001ee	c3		 ret	 0
__unwindfunclet$??0CSymbolSingleton@@QAE@XZ$33:
  001ef	6a 2c		 push	 44			; 0000002cH
  001f1	8b 45 f0	 mov	 eax, DWORD PTR $T4[ebp]
  001f4	50		 push	 eax
  001f5	e8 00 00 00 00	 call	 ??3@YAXPAXI@Z		; operator delete
  001fa	83 c4 08	 add	 esp, 8
  001fd	c3		 ret	 0
__unwindfunclet$??0CSymbolSingleton@@QAE@XZ$34:
  001fe	6a 2c		 push	 44			; 0000002cH
  00200	8b 45 f0	 mov	 eax, DWORD PTR $T3[ebp]
  00203	50		 push	 eax
  00204	e8 00 00 00 00	 call	 ??3@YAXPAXI@Z		; operator delete
  00209	83 c4 08	 add	 esp, 8
  0020c	c3		 ret	 0
__unwindfunclet$??0CSymbolSingleton@@QAE@XZ$35:
  0020d	6a 2c		 push	 44			; 0000002cH
  0020f	8b 45 f0	 mov	 eax, DWORD PTR $T2[ebp]
  00212	50		 push	 eax
  00213	e8 00 00 00 00	 call	 ??3@YAXPAXI@Z		; operator delete
  00218	83 c4 08	 add	 esp, 8
  0021b	c3		 ret	 0
  0021c	cc		 int	 3
  0021d	cc		 int	 3
  0021e	cc		 int	 3
  0021f	cc		 int	 3
  00220	cc		 int	 3
__ehhandler$??0CSymbolSingleton@@QAE@XZ:
  00221	90		 npad	 1
  00222	90		 npad	 1
  00223	8b 54 24 08	 mov	 edx, DWORD PTR [esp+8]
  00227	8d 42 0c	 lea	 eax, DWORD PTR [edx+12]
  0022a	8b 4a f0	 mov	 ecx, DWORD PTR [edx-16]
  0022d	33 c8		 xor	 ecx, eax
  0022f	e8 00 00 00 00	 call	 @__security_check_cookie@4
  00234	b8 00 00 00 00	 mov	 eax, OFFSET __ehfuncinfo$??0CSymbolSingleton@@QAE@XZ
  00239	e9 00 00 00 00	 jmp	 ___CxxFrameHandler3
text$x	ENDS
??0CSymbolSingleton@@QAE@XZ ENDP			; CSymbolSingleton::CSymbolSingleton
; Function compile flags: /Ogtp
; File D:\git\src\IBK\IBK_DRFN\ProjSrc\SrcChartEx\ChartAddIn\ChartAnalysisToolAddIn\Symbol\SymbolSingleton.cpp
;	COMDAT ?__empty_global_delete@@YAXPAXI@Z
_TEXT	SEGMENT
___formal$ = 8						; size = 4
___formal$ = 12						; size = 4
?__empty_global_delete@@YAXPAXI@Z PROC			; __empty_global_delete, COMDAT

  00000	c2 00 00	 ret	 0
?__empty_global_delete@@YAXPAXI@Z ENDP			; __empty_global_delete
_TEXT	ENDS
; Function compile flags: /Ogtp
; File D:\git\src\IBK\IBK_DRFN\ProjSrc\SrcChartEx\ChartAddIn\ChartAnalysisToolAddIn\Symbol\SymbolSingleton.cpp
;	COMDAT ?__empty_global_delete@@YAXPAX@Z
_TEXT	SEGMENT
___formal$ = 8						; size = 4
?__empty_global_delete@@YAXPAX@Z PROC			; __empty_global_delete, COMDAT

  00000	c2 00 00	 ret	 0
?__empty_global_delete@@YAXPAX@Z ENDP			; __empty_global_delete
_TEXT	ENDS
END
