; Listing generated by Microsoft (R) Optimizing Compiler Version 19.29.30145.0 

	TITLE	D:\git\src\IBK\IBK_DRFN\#DRfn-CS\_Obj\Symbol\SymbolDlg.obj
	.686P
	.XMM
	include listing.inc
	.model	flat

INCLUDELIB MSVCRT
INCLUDELIB OLDNAMES

PUBLIC	?__empty_global_delete@@YAXPAX@Z		; __empty_global_delete
PUBLIC	?__empty_global_delete@@YAXPAXI@Z		; __empty_global_delete
PUBLIC	?Serialize@CObject@@UAEXAAVCArchive@@@Z		; CObject::Serialize
PUBLIC	?AssertValid@CObject@@UBEXXZ			; CObject::AssertValid
PUBLIC	?Dump@CObject@@UBEXAAVCDumpContext@@@Z		; CObject::Dump
PUBLIC	?DoDataExchange@CWnd@@MAEXPAVCDataExchange@@@Z	; CWnd::DoDataExchange
PUBLIC	?BeginModalState@CWnd@@UAEXXZ			; CWnd::BeginModalState
PUBLIC	?EndModalState@CWnd@@UAEXXZ			; CWnd::EndModalState
PUBLIC	?Create@CDialog@@UAEHIPAVCWnd@@@Z		; CDialog::Create
PUBLIC	??1CCommonDialog@@UAE@XZ			; CCommonDialog::~CCommonDialog
PUBLIC	??_GCCommonDialog@@UAEPAXI@Z			; CCommonDialog::`scalar deleting destructor'
PUBLIC	??1CFontDialog@@UAE@XZ				; CFontDialog::~CFontDialog
PUBLIC	??1CColorDialog@@UAE@XZ				; CColorDialog::~CColorDialog
PUBLIC	??1CDynamicBitmapLoadButton@@UAE@XZ		; CDynamicBitmapLoadButton::~CDynamicBitmapLoadButton
PUBLIC	??0CSymbolDlg@@QAE@PAVCMainSymbolImplementation@@PAVCSymbolData@@PAVCWnd@@@Z ; CSymbolDlg::CSymbolDlg
PUBLIC	?SetData@CSymbolDlg@@QAEXPAVCSymbolData@@@Z	; CSymbolDlg::SetData
PUBLIC	?IsSymbolDlgClose@CSymbolDlg@@QAE_NXZ		; CSymbolDlg::IsSymbolDlgClose
PUBLIC	?DoDataExchange@CSymbolDlg@@MAEXPAVCDataExchange@@@Z ; CSymbolDlg::DoDataExchange
PUBLIC	?OnArrowLeft@CSymbolDlg@@IAEXXZ			; CSymbolDlg::OnArrowLeft
PUBLIC	?OnArrowRight@CSymbolDlg@@IAEXXZ		; CSymbolDlg::OnArrowRight
PUBLIC	?OnClose@CSymbolDlg@@IAEXXZ			; CSymbolDlg::OnClose
PUBLIC	?OnArrowLefttop@CSymbolDlg@@IAEXXZ		; CSymbolDlg::OnArrowLefttop
PUBLIC	?OnArrowDown@CSymbolDlg@@IAEXXZ			; CSymbolDlg::OnArrowDown
PUBLIC	?OnArrowLeftbottom@CSymbolDlg@@IAEXXZ		; CSymbolDlg::OnArrowLeftbottom
PUBLIC	?OnArrowRightbottom@CSymbolDlg@@IAEXXZ		; CSymbolDlg::OnArrowRightbottom
PUBLIC	?OnArrowRighttop@CSymbolDlg@@IAEXXZ		; CSymbolDlg::OnArrowRighttop
PUBLIC	?OnArrowUp@CSymbolDlg@@IAEXXZ			; CSymbolDlg::OnArrowUp
PUBLIC	?OnNumFive@CSymbolDlg@@IAEXXZ			; CSymbolDlg::OnNumFive
PUBLIC	?OnNumFour@CSymbolDlg@@IAEXXZ			; CSymbolDlg::OnNumFour
PUBLIC	?OnNumOne@CSymbolDlg@@IAEXXZ			; CSymbolDlg::OnNumOne
PUBLIC	?OnNumThree@CSymbolDlg@@IAEXXZ			; CSymbolDlg::OnNumThree
PUBLIC	?OnNumTwo@CSymbolDlg@@IAEXXZ			; CSymbolDlg::OnNumTwo
PUBLIC	?OnTextA@CSymbolDlg@@IAEXXZ			; CSymbolDlg::OnTextA
PUBLIC	?OnTextB@CSymbolDlg@@IAEXXZ			; CSymbolDlg::OnTextB
PUBLIC	?OnTextC@CSymbolDlg@@IAEXXZ			; CSymbolDlg::OnTextC
PUBLIC	?OnShowWindow@CSymbolDlg@@IAEXHI@Z		; CSymbolDlg::OnShowWindow
PUBLIC	?OnInitDialog@CSymbolDlg@@MAEHXZ		; CSymbolDlg::OnInitDialog
PUBLIC	?OnSelchangeSymbolSize@CSymbolDlg@@IAEXXZ	; CSymbolDlg::OnSelchangeSymbolSize
PUBLIC	?OnColor@CSymbolDlg@@IAEXXZ			; CSymbolDlg::OnColor
PUBLIC	?OnFont@CSymbolDlg@@IAEXXZ			; CSymbolDlg::OnFont
PUBLIC	?OnNumSix@CSymbolDlg@@IAEXXZ			; CSymbolDlg::OnNumSix
PUBLIC	?OnNumTen@CSymbolDlg@@IAEXXZ			; CSymbolDlg::OnNumTen
PUBLIC	?OnNumSeven@CSymbolDlg@@IAEXXZ			; CSymbolDlg::OnNumSeven
PUBLIC	?OnNumEight@CSymbolDlg@@IAEXXZ			; CSymbolDlg::OnNumEight
PUBLIC	?OnNumNine@CSymbolDlg@@IAEXXZ			; CSymbolDlg::OnNumNine
PUBLIC	?OnTextD@CSymbolDlg@@IAEXXZ			; CSymbolDlg::OnTextD
PUBLIC	?OnTextE@CSymbolDlg@@IAEXXZ			; CSymbolDlg::OnTextE
PUBLIC	?OnTextF@CSymbolDlg@@IAEXXZ			; CSymbolDlg::OnTextF
PUBLIC	?OnTextG@CSymbolDlg@@IAEXXZ			; CSymbolDlg::OnTextG
PUBLIC	?OnTextH@CSymbolDlg@@IAEXXZ			; CSymbolDlg::OnTextH
PUBLIC	?OnTextSpecial1@CSymbolDlg@@IAEXXZ		; CSymbolDlg::OnTextSpecial1
PUBLIC	?OnTextSpecial2@CSymbolDlg@@IAEXXZ		; CSymbolDlg::OnTextSpecial2
PUBLIC	?OnTextSpecial3@CSymbolDlg@@IAEXXZ		; CSymbolDlg::OnTextSpecial3
PUBLIC	?OnTextSpecial4@CSymbolDlg@@IAEXXZ		; CSymbolDlg::OnTextSpecial4
PUBLIC	?OnTextSpecial5@CSymbolDlg@@IAEXXZ		; CSymbolDlg::OnTextSpecial5
PUBLIC	?OnTextSpecial6@CSymbolDlg@@IAEXXZ		; CSymbolDlg::OnTextSpecial6
PUBLIC	?GetThisMessageMap@CSymbolDlg@@KGPBUAFX_MSGMAP@@XZ ; CSymbolDlg::GetThisMessageMap
PUBLIC	?GetMessageMap@CSymbolDlg@@MBEPBUAFX_MSGMAP@@XZ	; CSymbolDlg::GetMessageMap
PUBLIC	?Initial@CSymbolDlg@@AAEXXZ			; CSymbolDlg::Initial
PUBLIC	?Initial_View@CSymbolDlg@@AAEXXZ		; CSymbolDlg::Initial_View
PUBLIC	?SetToggle@CSymbolDlg@@AAEXPAVCWnd@@PAVCDynamicBitmapLoadButton@@@Z ; CSymbolDlg::SetToggle
PUBLIC	?GetButtonType@CSymbolDlg@@AAEPAVCDynamicBitmapLoadButton@@W4TOOLTYPE@CSymbolBaseData@@@Z ; CSymbolDlg::GetButtonType
PUBLIC	?SetBuletType@CSymbolDlg@@AAEXW4TOOLTYPE@CSymbolBaseData@@PAVCDynamicBitmapLoadButton@@@Z ; CSymbolDlg::SetBuletType
PUBLIC	??1CSymbolDlg@@UAE@XZ				; CSymbolDlg::~CSymbolDlg
PUBLIC	??_GCSymbolDlg@@UAEPAXI@Z			; CSymbolDlg::`scalar deleting destructor'
PUBLIC	??_7CCommonDialog@@6B@				; CCommonDialog::`vftable'
PUBLIC	??_R0?AVCObject@@@8				; CObject `RTTI Type Descriptor'
PUBLIC	??_R3CObject@@8					; CObject::`RTTI Class Hierarchy Descriptor'
PUBLIC	??_R2CObject@@8					; CObject::`RTTI Base Class Array'
PUBLIC	??_R1A@?0A@EA@CObject@@8			; CObject::`RTTI Base Class Descriptor at (0,-1,0,64)'
PUBLIC	??_R1A@?0A@EA@CWnd@@8				; CWnd::`RTTI Base Class Descriptor at (0,-1,0,64)'
PUBLIC	??_R0?AVCWnd@@@8				; CWnd `RTTI Type Descriptor'
PUBLIC	??_R3CWnd@@8					; CWnd::`RTTI Class Hierarchy Descriptor'
PUBLIC	??_R2CWnd@@8					; CWnd::`RTTI Base Class Array'
PUBLIC	??_R1A@?0A@EA@CCmdTarget@@8			; CCmdTarget::`RTTI Base Class Descriptor at (0,-1,0,64)'
PUBLIC	??_R0?AVCCmdTarget@@@8				; CCmdTarget `RTTI Type Descriptor'
PUBLIC	??_R3CCmdTarget@@8				; CCmdTarget::`RTTI Class Hierarchy Descriptor'
PUBLIC	??_R2CCmdTarget@@8				; CCmdTarget::`RTTI Base Class Array'
PUBLIC	??_R4CCommonDialog@@6B@				; CCommonDialog::`RTTI Complete Object Locator'
PUBLIC	??_R0?AVCCommonDialog@@@8			; CCommonDialog `RTTI Type Descriptor'
PUBLIC	??_R3CCommonDialog@@8				; CCommonDialog::`RTTI Class Hierarchy Descriptor'
PUBLIC	??_R2CCommonDialog@@8				; CCommonDialog::`RTTI Base Class Array'
PUBLIC	??_R1A@?0A@EA@CCommonDialog@@8			; CCommonDialog::`RTTI Base Class Descriptor at (0,-1,0,64)'
PUBLIC	??_R1A@?0A@EA@CDialog@@8			; CDialog::`RTTI Base Class Descriptor at (0,-1,0,64)'
PUBLIC	??_R0?AVCDialog@@@8				; CDialog `RTTI Type Descriptor'
PUBLIC	??_R3CDialog@@8					; CDialog::`RTTI Class Hierarchy Descriptor'
PUBLIC	??_R2CDialog@@8					; CDialog::`RTTI Base Class Array'
PUBLIC	??_7CSymbolDlg@@6B@				; CSymbolDlg::`vftable'
PUBLIC	??_R4CSymbolDlg@@6B@				; CSymbolDlg::`RTTI Complete Object Locator'
PUBLIC	??_R0?AVCSymbolDlg@@@8				; CSymbolDlg `RTTI Type Descriptor'
PUBLIC	??_R3CSymbolDlg@@8				; CSymbolDlg::`RTTI Class Hierarchy Descriptor'
PUBLIC	??_R2CSymbolDlg@@8				; CSymbolDlg::`RTTI Base Class Array'
PUBLIC	??_R1A@?0A@EA@CSymbolDlg@@8			; CSymbolDlg::`RTTI Base Class Descriptor at (0,-1,0,64)'
EXTRN	??3@YAXPAX@Z:PROC				; operator delete
EXTRN	?__global_delete@@YAXPAXI@Z:PROC		; __global_delete
EXTRN	__imp__SendMessageA@16:PROC
EXTRN	__imp__GetFocus@0:PROC
EXTRN	__imp__EnableWindow@8:PROC
EXTRN	__imp__InvalidateRect@12:PROC
EXTRN	__imp__GetWindowLongA@8:PROC
EXTRN	__imp_??1?$CStringT@DV?$StrTraitMFC_DLL@DV?$ChTraitsCRT@D@ATL@@@@@ATL@@QAE@XZ:PROC
EXTRN	?DDX_Control@@YGXPAVCDataExchange@@HAAVCWnd@@@Z:PROC ; DDX_Control
EXTRN	?IsInvokeAllowed@CCmdTarget@@UAEHJ@Z:PROC	; CCmdTarget::IsInvokeAllowed
EXTRN	?GetDispatchIID@CCmdTarget@@UAEHPAU_GUID@@@Z:PROC ; CCmdTarget::GetDispatchIID
EXTRN	?GetTypeInfoCount@CCmdTarget@@UAEIXZ:PROC	; CCmdTarget::GetTypeInfoCount
EXTRN	?GetTypeLibCache@CCmdTarget@@UAEPAVCTypeLibCache@@XZ:PROC ; CCmdTarget::GetTypeLibCache
EXTRN	?GetTypeLib@CCmdTarget@@UAEJKPAPAUITypeLib@@@Z:PROC ; CCmdTarget::GetTypeLib
EXTRN	?GetCommandMap@CCmdTarget@@MBEPBUAFX_OLECMDMAP@@XZ:PROC ; CCmdTarget::GetCommandMap
EXTRN	?GetDispatchMap@CCmdTarget@@MBEPBUAFX_DISPMAP@@XZ:PROC ; CCmdTarget::GetDispatchMap
EXTRN	?GetConnectionMap@CCmdTarget@@MBEPBUAFX_CONNECTIONMAP@@XZ:PROC ; CCmdTarget::GetConnectionMap
EXTRN	?GetEventSinkMap@CCmdTarget@@MBEPBUAFX_EVENTSINKMAP@@XZ:PROC ; CCmdTarget::GetEventSinkMap
EXTRN	?OnCreateAggregates@CCmdTarget@@UAEHXZ:PROC	; CCmdTarget::OnCreateAggregates
EXTRN	?GetInterfaceHook@CCmdTarget@@UAEPAUIUnknown@@PBX@Z:PROC ; CCmdTarget::GetInterfaceHook
EXTRN	?GetExtraConnectionPoints@CCmdTarget@@MAEHPAVCPtrArray@@@Z:PROC ; CCmdTarget::GetExtraConnectionPoints
EXTRN	?GetConnectionHook@CCmdTarget@@MAEPAUIConnectionPoint@@ABU_GUID@@@Z:PROC ; CCmdTarget::GetConnectionHook
EXTRN	?FromHandle@CWnd@@SGPAV1@PAUHWND__@@@Z:PROC	; CWnd::FromHandle
EXTRN	?PreSubclassWindow@CWnd@@UAEXXZ:PROC		; CWnd::PreSubclassWindow
EXTRN	?Create@CWnd@@UAEHPBD0KABUtagRECT@@PAV1@IPAUCCreateContext@@@Z:PROC ; CWnd::Create
EXTRN	?CreateEx@CWnd@@UAEHKPBD0KHHHHPAUHWND__@@PAUHMENU__@@PAX@Z:PROC ; CWnd::CreateEx
EXTRN	?CreateEx@CWnd@@UAEHKPBD0KABUtagRECT@@PAV1@IPAX@Z:PROC ; CWnd::CreateEx
EXTRN	?DestroyWindow@CWnd@@UAEHXZ:PROC		; CWnd::DestroyWindow
EXTRN	?PreCreateWindow@CWnd@@UAEHAAUtagCREATESTRUCTA@@@Z:PROC ; CWnd::PreCreateWindow
EXTRN	?CalcWindowRect@CWnd@@UAEXPAUtagRECT@@I@Z:PROC	; CWnd::CalcWindowRect
EXTRN	?GetDlgItem@CWnd@@QBEPAV1@H@Z:PROC		; CWnd::GetDlgItem
EXTRN	?GetMenu@CWnd@@UBEPAVCMenu@@XZ:PROC		; CWnd::GetMenu
EXTRN	?SetMenu@CWnd@@UAEHPAVCMenu@@@Z:PROC		; CWnd::SetMenu
EXTRN	?OnToolHitTest@CWnd@@UBEHVCPoint@@PAUtagTOOLINFOA@@@Z:PROC ; CWnd::OnToolHitTest
EXTRN	?GetScrollBarCtrl@CWnd@@UBEPAVCScrollBar@@H@Z:PROC ; CWnd::GetScrollBarCtrl
EXTRN	?WinHelpA@CWnd@@UAEXKI@Z:PROC			; CWnd::WinHelpA
EXTRN	?HtmlHelpA@CWnd@@UAEXKI@Z:PROC			; CWnd::HtmlHelpA
EXTRN	?WinHelpInternal@CWnd@@UAEXKI@Z:PROC		; CWnd::WinHelpInternal
EXTRN	?ContinueModal@CWnd@@UAEHXZ:PROC		; CWnd::ContinueModal
EXTRN	?EndModalLoop@CWnd@@UAEXH@Z:PROC		; CWnd::EndModalLoop
EXTRN	?OnDrawIconicThumbnailOrLivePreview@CWnd@@UAEXAAVCDC@@VCRect@@VCSize@@HAAH@Z:PROC ; CWnd::OnDrawIconicThumbnailOrLivePreview
EXTRN	?GetInterfaceMap@CWnd@@MBEPBUAFX_INTERFACEMAP@@XZ:PROC ; CWnd::GetInterfaceMap
EXTRN	?EnsureStdObj@CWnd@@UAEJXZ:PROC			; CWnd::EnsureStdObj
EXTRN	?get_accParent@CWnd@@UAEJPAPAUIDispatch@@@Z:PROC ; CWnd::get_accParent
EXTRN	?get_accChildCount@CWnd@@UAEJPAJ@Z:PROC		; CWnd::get_accChildCount
EXTRN	?get_accChild@CWnd@@UAEJUtagVARIANT@@PAPAUIDispatch@@@Z:PROC ; CWnd::get_accChild
EXTRN	?get_accName@CWnd@@UAEJUtagVARIANT@@PAPA_W@Z:PROC ; CWnd::get_accName
EXTRN	?get_accValue@CWnd@@UAEJUtagVARIANT@@PAPA_W@Z:PROC ; CWnd::get_accValue
EXTRN	?get_accDescription@CWnd@@UAEJUtagVARIANT@@PAPA_W@Z:PROC ; CWnd::get_accDescription
EXTRN	?get_accRole@CWnd@@UAEJUtagVARIANT@@PAU2@@Z:PROC ; CWnd::get_accRole
EXTRN	?get_accState@CWnd@@UAEJUtagVARIANT@@PAU2@@Z:PROC ; CWnd::get_accState
EXTRN	?get_accHelp@CWnd@@UAEJUtagVARIANT@@PAPA_W@Z:PROC ; CWnd::get_accHelp
EXTRN	?get_accHelpTopic@CWnd@@UAEJPAPA_WUtagVARIANT@@PAJ@Z:PROC ; CWnd::get_accHelpTopic
EXTRN	?get_accKeyboardShortcut@CWnd@@UAEJUtagVARIANT@@PAPA_W@Z:PROC ; CWnd::get_accKeyboardShortcut
EXTRN	?get_accFocus@CWnd@@UAEJPAUtagVARIANT@@@Z:PROC	; CWnd::get_accFocus
EXTRN	?get_accSelection@CWnd@@UAEJPAUtagVARIANT@@@Z:PROC ; CWnd::get_accSelection
EXTRN	?get_accDefaultAction@CWnd@@UAEJUtagVARIANT@@PAPA_W@Z:PROC ; CWnd::get_accDefaultAction
EXTRN	?accSelect@CWnd@@UAEJJUtagVARIANT@@@Z:PROC	; CWnd::accSelect
EXTRN	?accLocation@CWnd@@UAEJPAJ000UtagVARIANT@@@Z:PROC ; CWnd::accLocation
EXTRN	?accNavigate@CWnd@@UAEJJUtagVARIANT@@PAU2@@Z:PROC ; CWnd::accNavigate
EXTRN	?accHitTest@CWnd@@UAEJJJPAUtagVARIANT@@@Z:PROC	; CWnd::accHitTest
EXTRN	?accDoDefaultAction@CWnd@@UAEJUtagVARIANT@@@Z:PROC ; CWnd::accDoDefaultAction
EXTRN	?put_accName@CWnd@@UAEJUtagVARIANT@@PA_W@Z:PROC	; CWnd::put_accName
EXTRN	?put_accValue@CWnd@@UAEJUtagVARIANT@@PA_W@Z:PROC ; CWnd::put_accValue
EXTRN	?SetProxy@CWnd@@UAEJPAUIAccessibleProxy@@@Z:PROC ; CWnd::SetProxy
EXTRN	?CreateAccessibleProxy@CWnd@@UAEJIJPAJ@Z:PROC	; CWnd::CreateAccessibleProxy
EXTRN	?OnCommand@CWnd@@MAEHIJ@Z:PROC			; CWnd::OnCommand
EXTRN	?OnNotify@CWnd@@MAEHIJPAJ@Z:PROC		; CWnd::OnNotify
EXTRN	?GetSuperWndProcAddr@CWnd@@MAEPAP6GJPAUHWND__@@IIJ@ZXZ:PROC ; CWnd::GetSuperWndProcAddr
EXTRN	?OnAmbientProperty@CWnd@@UAEHPAVCOleControlSite@@JPAUtagVARIANT@@@Z:PROC ; CWnd::OnAmbientProperty
EXTRN	?WindowProc@CWnd@@MAEJIIJ@Z:PROC		; CWnd::WindowProc
EXTRN	?OnWndMsg@CWnd@@MAEHIIJPAJ@Z:PROC		; CWnd::OnWndMsg
EXTRN	?Default@CWnd@@IAEJXZ:PROC			; CWnd::Default
EXTRN	?DefWindowProcA@CWnd@@MAEJIIJ@Z:PROC		; CWnd::DefWindowProcA
EXTRN	?PostNcDestroy@CWnd@@MAEXXZ:PROC		; CWnd::PostNcDestroy
EXTRN	?OnChildNotify@CWnd@@MAEHIIJPAJ@Z:PROC		; CWnd::OnChildNotify
EXTRN	?OnTouchInputs@CWnd@@MAEHIPAUtagTOUCHINPUT@@@Z:PROC ; CWnd::OnTouchInputs
EXTRN	?OnTouchInput@CWnd@@MAEHVCPoint@@HHPAUtagTOUCHINPUT@@@Z:PROC ; CWnd::OnTouchInput
EXTRN	?GetGestureStatus@CWnd@@MAEKVCPoint@@@Z:PROC	; CWnd::GetGestureStatus
EXTRN	?OnGestureZoom@CWnd@@MAEHVCPoint@@J@Z:PROC	; CWnd::OnGestureZoom
EXTRN	?OnGesturePan@CWnd@@MAEHVCPoint@@0@Z:PROC	; CWnd::OnGesturePan
EXTRN	?OnGestureRotate@CWnd@@MAEHVCPoint@@N@Z:PROC	; CWnd::OnGestureRotate
EXTRN	?OnGestureTwoFingerTap@CWnd@@MAEHVCPoint@@@Z:PROC ; CWnd::OnGestureTwoFingerTap
EXTRN	?OnGesturePressAndTap@CWnd@@MAEHVCPoint@@J@Z:PROC ; CWnd::OnGesturePressAndTap
EXTRN	?ResizeDynamicLayout@CWnd@@MAEXXZ:PROC		; CWnd::ResizeDynamicLayout
EXTRN	?IsFrameWnd@CWnd@@UBEHXZ:PROC			; CWnd::IsFrameWnd
EXTRN	?OnFinalRelease@CWnd@@UAEXXZ:PROC		; CWnd::OnFinalRelease
EXTRN	?CreateControlContainer@CWnd@@MAEHPAPAVCOleControlContainer@@@Z:PROC ; CWnd::CreateControlContainer
EXTRN	?CreateControlSite@CWnd@@MAEHPAVCOleControlContainer@@PAPAVCOleControlSite@@IABU_GUID@@@Z:PROC ; CWnd::CreateControlSite
EXTRN	?GetRuntimeClass@CDialog@@UBEPAUCRuntimeClass@@XZ:PROC ; CDialog::GetRuntimeClass
EXTRN	?Create@CDialog@@UAEHPBDPAVCWnd@@@Z:PROC	; CDialog::Create
EXTRN	?CreateIndirect@CDialog@@UAEHPBUDLGTEMPLATE@@PAVCWnd@@PAX@Z:PROC ; CDialog::CreateIndirect
EXTRN	?CreateIndirect@CDialog@@UAEHPAXPAVCWnd@@@Z:PROC ; CDialog::CreateIndirect
EXTRN	??0CDialog@@QAE@IPAVCWnd@@@Z:PROC		; CDialog::CDialog
EXTRN	?DoModal@CDialog@@UAEHXZ:PROC			; CDialog::DoModal
EXTRN	?OnInitDialog@CDialog@@UAEHXZ:PROC		; CDialog::OnInitDialog
EXTRN	?OnSetFont@CDialog@@UAEXPAVCFont@@@Z:PROC	; CDialog::OnSetFont
EXTRN	?OnOK@CDialog@@MAEXXZ:PROC			; CDialog::OnOK
EXTRN	?OnCancel@CDialog@@MAEXXZ:PROC			; CDialog::OnCancel
EXTRN	??1CDialog@@UAE@XZ:PROC				; CDialog::~CDialog
EXTRN	?PreTranslateMessage@CDialog@@UAEHPAUtagMSG@@@Z:PROC ; CDialog::PreTranslateMessage
EXTRN	?OnCmdMsg@CDialog@@UAEHIHPAXPAUAFX_CMDHANDLERINFO@@@Z:PROC ; CDialog::OnCmdMsg
EXTRN	?CheckAutoCenter@CDialog@@UAEHXZ:PROC		; CDialog::CheckAutoCenter
EXTRN	?SetOccDialogInfo@CDialog@@MAEHPAU_AFX_OCC_DIALOG_INFO@@@Z:PROC ; CDialog::SetOccDialogInfo
EXTRN	?GetOccDialogInfo@CDialog@@MAEPAU_AFX_OCC_DIALOG_INFO@@XZ:PROC ; CDialog::GetOccDialogInfo
EXTRN	?PreInitDialog@CDialog@@MAEXXZ:PROC		; CDialog::PreInitDialog
EXTRN	?GetThisMessageMap@CDialog@@KGPBUAFX_MSGMAP@@XZ:PROC ; CDialog::GetThisMessageMap
EXTRN	??1CButton@@UAE@XZ:PROC				; CButton::~CButton
EXTRN	?GetRuntimeClass@CCommonDialog@@UBEPAUCRuntimeClass@@XZ:PROC ; CCommonDialog::GetRuntimeClass
EXTRN	?OnOK@CCommonDialog@@MAEXXZ:PROC		; CCommonDialog::OnOK
EXTRN	?OnCancel@CCommonDialog@@MAEXXZ:PROC		; CCommonDialog::OnCancel
EXTRN	?GetMessageMap@CCommonDialog@@MBEPBUAFX_MSGMAP@@XZ:PROC ; CCommonDialog::GetMessageMap
EXTRN	??_ECCommonDialog@@UAEPAXI@Z:PROC		; CCommonDialog::`vector deleting destructor'
EXTRN	??0CFontDialog@@QAE@PAUtagLOGFONTA@@KPAVCDC@@PAVCWnd@@@Z:PROC ; CFontDialog::CFontDialog
EXTRN	?DoModal@CFontDialog@@UAEHXZ:PROC		; CFontDialog::DoModal
EXTRN	?GetCurrentFont@CFontDialog@@QAEXPAUtagLOGFONTA@@@Z:PROC ; CFontDialog::GetCurrentFont
EXTRN	??0CColorDialog@@QAE@KKPAVCWnd@@@Z:PROC		; CColorDialog::CColorDialog
EXTRN	?DoModal@CColorDialog@@UAEHXZ:PROC		; CColorDialog::DoModal
EXTRN	??0CDynamicBitmapLoadButton@@QAE@XZ:PROC	; CDynamicBitmapLoadButton::CDynamicBitmapLoadButton
EXTRN	?GetToggleState@CDynamicBitmapLoadButton@@QAE_NXZ:PROC ; CDynamicBitmapLoadButton::GetToggleState
EXTRN	?SetToggleState@CDynamicBitmapLoadButton@@QAEX_N@Z:PROC ; CDynamicBitmapLoadButton::SetToggleState
EXTRN	??0CPreView@@QAE@XZ:PROC			; CPreView::CPreView
EXTRN	??1CPreView@@UAE@XZ:PROC			; CPreView::~CPreView
EXTRN	?SetBackgroundColor@CPreView@@QAEXABK@Z:PROC	; CPreView::SetBackgroundColor
EXTRN	?SetPropertiesData@CPreView@@QAEXPAVCPropertiesData_text@@@Z:PROC ; CPreView::SetPropertiesData
EXTRN	?GetSymbolType@CPreView@@QAE?AW4TOOLTYPE@CSymbolBaseData@@XZ:PROC ; CPreView::GetSymbolType
EXTRN	?ModifySymbolType@CPreView@@QAEXW4TOOLTYPE@CSymbolBaseData@@@Z:PROC ; CPreView::ModifySymbolType
EXTRN	??0CColorButton@@QAE@XZ:PROC			; CColorButton::CColorButton
EXTRN	?SetColor@CColorButton@@QAEXABK@Z:PROC		; CColorButton::SetColor
EXTRN	??1CColorButton@@UAE@XZ:PROC			; CColorButton::~CColorButton
EXTRN	??_ECSymbolDlg@@UAEPAXI@Z:PROC			; CSymbolDlg::`vector deleting destructor'
EXTRN	?GetColor@CPropertiesData_Figure@@QAEKXZ:PROC	; CPropertiesData_Figure::GetColor
EXTRN	?SetColor@CPropertiesData_Figure@@QAEXABK@Z:PROC ; CPropertiesData_Figure::SetColor
EXTRN	?GetLogFont@CPropertiesData_Symbol@@QAEAAUtagLOGFONTA@@XZ:PROC ; CPropertiesData_Symbol::GetLogFont
EXTRN	?GetTextColor@CPropertiesData_Symbol@@QBEKXZ:PROC ; CPropertiesData_Symbol::GetTextColor
EXTRN	?GetSizeType@CPropertiesData_Symbol@@QBE?AW4SIZETYPE@CSymbolBaseData@@XZ:PROC ; CPropertiesData_Symbol::GetSizeType
EXTRN	?SetTextColor@CPropertiesData_Symbol@@QAEXABK@Z:PROC ; CPropertiesData_Symbol::SetTextColor
EXTRN	?SetSizeType@CPropertiesData_Symbol@@QAEXW4SIZETYPE@CSymbolBaseData@@@Z:PROC ; CPropertiesData_Symbol::SetSizeType
EXTRN	?GetMainBlock@CSymbolData@@QBEPAUIChartManager133101@@XZ:PROC ; CSymbolData::GetMainBlock
EXTRN	?GetPropertiesData@CSymbolData@@QAEPAVCPropertiesData_text@@XZ:PROC ; CSymbolData::GetPropertiesData
EXTRN	?GetBuletType@CSymbolData@@QBE?AW4TOOLTYPE@CSymbolBaseData@@XZ:PROC ; CSymbolData::GetBuletType
EXTRN	?SetBuletType@CSymbolData@@QAEXW4TOOLTYPE@CSymbolBaseData@@@Z:PROC ; CSymbolData::SetBuletType
EXTRN	?SetCurrentSymbolTool@CMainSymbolImplementation@@QAEXW4SYMBOLTOOL@CSymbol@@@Z:PROC ; CMainSymbolImplementation::SetCurrentSymbolTool
EXTRN	?DeleteSymbolDlg@CMainSymbolImplementation@@QAEXXZ:PROC ; CMainSymbolImplementation::DeleteSymbolDlg
EXTRN	?SetSymbolType@CMainSymbolImplementation@@SAXW4TOOLTYPE@CSymbolBaseData@@@Z:PROC ; CMainSymbolImplementation::SetSymbolType
EXTRN	@__security_check_cookie@4:PROC
EXTRN	___CxxFrameHandler3:PROC
EXTRN	??_7type_info@@6B@:QWORD			; type_info::`vftable'
EXTRN	___security_cookie:DWORD
;	COMDAT ??_R1A@?0A@EA@CSymbolDlg@@8
rdata$r	SEGMENT
??_R1A@?0A@EA@CSymbolDlg@@8 DD FLAT:??_R0?AVCSymbolDlg@@@8 ; CSymbolDlg::`RTTI Base Class Descriptor at (0,-1,0,64)'
	DD	04H
	DD	00H
	DD	0ffffffffH
	DD	00H
	DD	040H
	DD	FLAT:??_R3CSymbolDlg@@8
rdata$r	ENDS
;	COMDAT ??_R2CSymbolDlg@@8
rdata$r	SEGMENT
??_R2CSymbolDlg@@8 DD FLAT:??_R1A@?0A@EA@CSymbolDlg@@8	; CSymbolDlg::`RTTI Base Class Array'
	DD	FLAT:??_R1A@?0A@EA@CDialog@@8
	DD	FLAT:??_R1A@?0A@EA@CWnd@@8
	DD	FLAT:??_R1A@?0A@EA@CCmdTarget@@8
	DD	FLAT:??_R1A@?0A@EA@CObject@@8
rdata$r	ENDS
;	COMDAT ??_R3CSymbolDlg@@8
rdata$r	SEGMENT
??_R3CSymbolDlg@@8 DD 00H				; CSymbolDlg::`RTTI Class Hierarchy Descriptor'
	DD	00H
	DD	05H
	DD	FLAT:??_R2CSymbolDlg@@8
rdata$r	ENDS
;	COMDAT ??_R0?AVCSymbolDlg@@@8
data$rs	SEGMENT
??_R0?AVCSymbolDlg@@@8 DD FLAT:??_7type_info@@6B@	; CSymbolDlg `RTTI Type Descriptor'
	DD	00H
	DB	'.?AVCSymbolDlg@@', 00H
data$rs	ENDS
;	COMDAT ??_R4CSymbolDlg@@6B@
rdata$r	SEGMENT
??_R4CSymbolDlg@@6B@ DD 00H				; CSymbolDlg::`RTTI Complete Object Locator'
	DD	00H
	DD	00H
	DD	FLAT:??_R0?AVCSymbolDlg@@@8
	DD	FLAT:??_R3CSymbolDlg@@8
rdata$r	ENDS
;	COMDAT ?messageMap@?1??GetThisMessageMap@CSymbolDlg@@KGPBUAFX_MSGMAP@@XZ@4U3@B
CONST	SEGMENT
?messageMap@?1??GetThisMessageMap@CSymbolDlg@@KGPBUAFX_MSGMAP@@XZ@4U3@B DD FLAT:?GetThisMessageMap@CDialog@@KGPBUAFX_MSGMAP@@XZ ; `CSymbolDlg::GetThisMessageMap'::`2'::messageMap
	DD	FLAT:?_messageEntries@?1??GetThisMessageMap@CSymbolDlg@@KGPBUAFX_MSGMAP@@XZ@4QBUAFX_MSGMAP_ENTRY@@B
CONST	ENDS
;	COMDAT ?_messageEntries@?1??GetThisMessageMap@CSymbolDlg@@KGPBUAFX_MSGMAP@@XZ@4QBUAFX_MSGMAP_ENTRY@@B
CONST	SEGMENT
?_messageEntries@?1??GetThisMessageMap@CSymbolDlg@@KGPBUAFX_MSGMAP@@XZ@4QBUAFX_MSGMAP_ENTRY@@B DD 0111H ; `CSymbolDlg::GetThisMessageMap'::`2'::_messageEntries
	DD	00H
	DD	03e9H
	DD	03e9H
	DD	03aH
	DD	FLAT:?OnArrowLeft@CSymbolDlg@@IAEXXZ
	DD	0111H
	DD	00H
	DD	03eaH
	DD	03eaH
	DD	03aH
	DD	FLAT:?OnArrowRight@CSymbolDlg@@IAEXXZ
	DD	010H
	DD	00H
	DD	00H
	DD	00H
	DD	013H
	DD	FLAT:?OnClose@CSymbolDlg@@IAEXXZ
	DD	0111H
	DD	00H
	DD	03f2H
	DD	03f2H
	DD	03aH
	DD	FLAT:?OnArrowLefttop@CSymbolDlg@@IAEXXZ
	DD	0111H
	DD	00H
	DD	03f1H
	DD	03f1H
	DD	03aH
	DD	FLAT:?OnArrowDown@CSymbolDlg@@IAEXXZ
	DD	0111H
	DD	00H
	DD	03f4H
	DD	03f4H
	DD	03aH
	DD	FLAT:?OnArrowLeftbottom@CSymbolDlg@@IAEXXZ
	DD	0111H
	DD	00H
	DD	03f5H
	DD	03f5H
	DD	03aH
	DD	FLAT:?OnArrowRightbottom@CSymbolDlg@@IAEXXZ
	DD	0111H
	DD	00H
	DD	03f3H
	DD	03f3H
	DD	03aH
	DD	FLAT:?OnArrowRighttop@CSymbolDlg@@IAEXXZ
	DD	0111H
	DD	00H
	DD	03f0H
	DD	03f0H
	DD	03aH
	DD	FLAT:?OnArrowUp@CSymbolDlg@@IAEXXZ
	DD	0111H
	DD	00H
	DD	03faH
	DD	03faH
	DD	03aH
	DD	FLAT:?OnNumFive@CSymbolDlg@@IAEXXZ
	DD	0111H
	DD	00H
	DD	03f9H
	DD	03f9H
	DD	03aH
	DD	FLAT:?OnNumFour@CSymbolDlg@@IAEXXZ
	DD	0111H
	DD	00H
	DD	03f6H
	DD	03f6H
	DD	03aH
	DD	FLAT:?OnNumOne@CSymbolDlg@@IAEXXZ
	DD	0111H
	DD	00H
	DD	03f8H
	DD	03f8H
	DD	03aH
	DD	FLAT:?OnNumThree@CSymbolDlg@@IAEXXZ
	DD	0111H
	DD	00H
	DD	03f7H
	DD	03f7H
	DD	03aH
	DD	FLAT:?OnNumTwo@CSymbolDlg@@IAEXXZ
	DD	0111H
	DD	00H
	DD	03fbH
	DD	03fbH
	DD	03aH
	DD	FLAT:?OnTextA@CSymbolDlg@@IAEXXZ
	DD	0111H
	DD	00H
	DD	03fcH
	DD	03fcH
	DD	03aH
	DD	FLAT:?OnTextB@CSymbolDlg@@IAEXXZ
	DD	0111H
	DD	00H
	DD	03fdH
	DD	03fdH
	DD	03aH
	DD	FLAT:?OnTextC@CSymbolDlg@@IAEXXZ
	DD	018H
	DD	00H
	DD	00H
	DD	00H
	DD	016H
	DD	FLAT:?OnShowWindow@CSymbolDlg@@IAEXHI@Z
	DD	0111H
	DD	01H
	DD	03efH
	DD	03efH
	DD	03aH
	DD	FLAT:?OnSelchangeSymbolSize@CSymbolDlg@@IAEXXZ
	DD	0111H
	DD	00H
	DD	0404H
	DD	0404H
	DD	03aH
	DD	FLAT:?OnColor@CSymbolDlg@@IAEXXZ
	DD	0111H
	DD	00H
	DD	0405H
	DD	0405H
	DD	03aH
	DD	FLAT:?OnFont@CSymbolDlg@@IAEXXZ
	DD	0111H
	DD	00H
	DD	03feH
	DD	03feH
	DD	03aH
	DD	FLAT:?OnNumSix@CSymbolDlg@@IAEXXZ
	DD	0111H
	DD	00H
	DD	0403H
	DD	0403H
	DD	03aH
	DD	FLAT:?OnNumTen@CSymbolDlg@@IAEXXZ
	DD	0111H
	DD	00H
	DD	03ffH
	DD	03ffH
	DD	03aH
	DD	FLAT:?OnNumSeven@CSymbolDlg@@IAEXXZ
	DD	0111H
	DD	00H
	DD	0401H
	DD	0401H
	DD	03aH
	DD	FLAT:?OnNumEight@CSymbolDlg@@IAEXXZ
	DD	0111H
	DD	00H
	DD	0402H
	DD	0402H
	DD	03aH
	DD	FLAT:?OnNumNine@CSymbolDlg@@IAEXXZ
	DD	0111H
	DD	00H
	DD	0406H
	DD	0406H
	DD	03aH
	DD	FLAT:?OnTextD@CSymbolDlg@@IAEXXZ
	DD	0111H
	DD	00H
	DD	0407H
	DD	0407H
	DD	03aH
	DD	FLAT:?OnTextE@CSymbolDlg@@IAEXXZ
	DD	0111H
	DD	00H
	DD	0408H
	DD	0408H
	DD	03aH
	DD	FLAT:?OnTextF@CSymbolDlg@@IAEXXZ
	DD	0111H
	DD	00H
	DD	0409H
	DD	0409H
	DD	03aH
	DD	FLAT:?OnTextG@CSymbolDlg@@IAEXXZ
	DD	0111H
	DD	00H
	DD	040aH
	DD	040aH
	DD	03aH
	DD	FLAT:?OnTextH@CSymbolDlg@@IAEXXZ
	DD	0111H
	DD	00H
	DD	040bH
	DD	040bH
	DD	03aH
	DD	FLAT:?OnTextSpecial1@CSymbolDlg@@IAEXXZ
	DD	0111H
	DD	00H
	DD	040cH
	DD	040cH
	DD	03aH
	DD	FLAT:?OnTextSpecial2@CSymbolDlg@@IAEXXZ
	DD	0111H
	DD	00H
	DD	040dH
	DD	040dH
	DD	03aH
	DD	FLAT:?OnTextSpecial3@CSymbolDlg@@IAEXXZ
	DD	0111H
	DD	00H
	DD	040eH
	DD	040eH
	DD	03aH
	DD	FLAT:?OnTextSpecial4@CSymbolDlg@@IAEXXZ
	DD	0111H
	DD	00H
	DD	040fH
	DD	040fH
	DD	03aH
	DD	FLAT:?OnTextSpecial5@CSymbolDlg@@IAEXXZ
	DD	0111H
	DD	00H
	DD	0410H
	DD	0410H
	DD	03aH
	DD	FLAT:?OnTextSpecial6@CSymbolDlg@@IAEXXZ
	DD	00H
	DD	00H
	DD	00H
	DD	00H
	DD	00H
	DD	00H
CONST	ENDS
;	COMDAT ??_7CSymbolDlg@@6B@
CONST	SEGMENT
??_7CSymbolDlg@@6B@ DD FLAT:??_R4CSymbolDlg@@6B@	; CSymbolDlg::`vftable'
	DD	FLAT:?GetRuntimeClass@CDialog@@UBEPAUCRuntimeClass@@XZ
	DD	FLAT:??_ECSymbolDlg@@UAEPAXI@Z
	DD	FLAT:?Serialize@CObject@@UAEXAAVCArchive@@@Z
	DD	FLAT:?AssertValid@CObject@@UBEXXZ
	DD	FLAT:?Dump@CObject@@UBEXAAVCDumpContext@@@Z
	DD	FLAT:?OnCmdMsg@CDialog@@UAEHIHPAXPAUAFX_CMDHANDLERINFO@@@Z
	DD	FLAT:?OnFinalRelease@CWnd@@UAEXXZ
	DD	FLAT:?IsInvokeAllowed@CCmdTarget@@UAEHJ@Z
	DD	FLAT:?GetDispatchIID@CCmdTarget@@UAEHPAU_GUID@@@Z
	DD	FLAT:?GetTypeInfoCount@CCmdTarget@@UAEIXZ
	DD	FLAT:?GetTypeLibCache@CCmdTarget@@UAEPAVCTypeLibCache@@XZ
	DD	FLAT:?GetTypeLib@CCmdTarget@@UAEJKPAPAUITypeLib@@@Z
	DD	FLAT:?GetMessageMap@CSymbolDlg@@MBEPBUAFX_MSGMAP@@XZ
	DD	FLAT:?GetCommandMap@CCmdTarget@@MBEPBUAFX_OLECMDMAP@@XZ
	DD	FLAT:?GetDispatchMap@CCmdTarget@@MBEPBUAFX_DISPMAP@@XZ
	DD	FLAT:?GetConnectionMap@CCmdTarget@@MBEPBUAFX_CONNECTIONMAP@@XZ
	DD	FLAT:?GetInterfaceMap@CWnd@@MBEPBUAFX_INTERFACEMAP@@XZ
	DD	FLAT:?GetEventSinkMap@CCmdTarget@@MBEPBUAFX_EVENTSINKMAP@@XZ
	DD	FLAT:?OnCreateAggregates@CCmdTarget@@UAEHXZ
	DD	FLAT:?GetInterfaceHook@CCmdTarget@@UAEPAUIUnknown@@PBX@Z
	DD	FLAT:?GetExtraConnectionPoints@CCmdTarget@@MAEHPAVCPtrArray@@@Z
	DD	FLAT:?GetConnectionHook@CCmdTarget@@MAEPAUIConnectionPoint@@ABU_GUID@@@Z
	DD	FLAT:?PreSubclassWindow@CWnd@@UAEXXZ
	DD	FLAT:?Create@CWnd@@UAEHPBD0KABUtagRECT@@PAV1@IPAUCCreateContext@@@Z
	DD	FLAT:?CreateEx@CWnd@@UAEHKPBD0KABUtagRECT@@PAV1@IPAX@Z
	DD	FLAT:?CreateEx@CWnd@@UAEHKPBD0KHHHHPAUHWND__@@PAUHMENU__@@PAX@Z
	DD	FLAT:?DestroyWindow@CWnd@@UAEHXZ
	DD	FLAT:?PreCreateWindow@CWnd@@UAEHAAUtagCREATESTRUCTA@@@Z
	DD	FLAT:?CalcWindowRect@CWnd@@UAEXPAUtagRECT@@I@Z
	DD	FLAT:?GetMenu@CWnd@@UBEPAVCMenu@@XZ
	DD	FLAT:?SetMenu@CWnd@@UAEHPAVCMenu@@@Z
	DD	FLAT:?OnToolHitTest@CWnd@@UBEHVCPoint@@PAUtagTOOLINFOA@@@Z
	DD	FLAT:?GetScrollBarCtrl@CWnd@@UBEPAVCScrollBar@@H@Z
	DD	FLAT:?WinHelpA@CWnd@@UAEXKI@Z
	DD	FLAT:?HtmlHelpA@CWnd@@UAEXKI@Z
	DD	FLAT:?WinHelpInternal@CWnd@@UAEXKI@Z
	DD	FLAT:?ContinueModal@CWnd@@UAEHXZ
	DD	FLAT:?EndModalLoop@CWnd@@UAEXH@Z
	DD	FLAT:?OnDrawIconicThumbnailOrLivePreview@CWnd@@UAEXAAVCDC@@VCRect@@VCSize@@HAAH@Z
	DD	FLAT:?EnsureStdObj@CWnd@@UAEJXZ
	DD	FLAT:?get_accParent@CWnd@@UAEJPAPAUIDispatch@@@Z
	DD	FLAT:?get_accChildCount@CWnd@@UAEJPAJ@Z
	DD	FLAT:?get_accChild@CWnd@@UAEJUtagVARIANT@@PAPAUIDispatch@@@Z
	DD	FLAT:?get_accName@CWnd@@UAEJUtagVARIANT@@PAPA_W@Z
	DD	FLAT:?get_accValue@CWnd@@UAEJUtagVARIANT@@PAPA_W@Z
	DD	FLAT:?get_accDescription@CWnd@@UAEJUtagVARIANT@@PAPA_W@Z
	DD	FLAT:?get_accRole@CWnd@@UAEJUtagVARIANT@@PAU2@@Z
	DD	FLAT:?get_accState@CWnd@@UAEJUtagVARIANT@@PAU2@@Z
	DD	FLAT:?get_accHelp@CWnd@@UAEJUtagVARIANT@@PAPA_W@Z
	DD	FLAT:?get_accHelpTopic@CWnd@@UAEJPAPA_WUtagVARIANT@@PAJ@Z
	DD	FLAT:?get_accKeyboardShortcut@CWnd@@UAEJUtagVARIANT@@PAPA_W@Z
	DD	FLAT:?get_accFocus@CWnd@@UAEJPAUtagVARIANT@@@Z
	DD	FLAT:?get_accSelection@CWnd@@UAEJPAUtagVARIANT@@@Z
	DD	FLAT:?get_accDefaultAction@CWnd@@UAEJUtagVARIANT@@PAPA_W@Z
	DD	FLAT:?accSelect@CWnd@@UAEJJUtagVARIANT@@@Z
	DD	FLAT:?accLocation@CWnd@@UAEJPAJ000UtagVARIANT@@@Z
	DD	FLAT:?accNavigate@CWnd@@UAEJJUtagVARIANT@@PAU2@@Z
	DD	FLAT:?accHitTest@CWnd@@UAEJJJPAUtagVARIANT@@@Z
	DD	FLAT:?accDoDefaultAction@CWnd@@UAEJUtagVARIANT@@@Z
	DD	FLAT:?put_accName@CWnd@@UAEJUtagVARIANT@@PA_W@Z
	DD	FLAT:?put_accValue@CWnd@@UAEJUtagVARIANT@@PA_W@Z
	DD	FLAT:?SetProxy@CWnd@@UAEJPAUIAccessibleProxy@@@Z
	DD	FLAT:?CreateAccessibleProxy@CWnd@@UAEJIJPAJ@Z
	DD	FLAT:?OnCommand@CWnd@@MAEHIJ@Z
	DD	FLAT:?OnNotify@CWnd@@MAEHIJPAJ@Z
	DD	FLAT:?GetSuperWndProcAddr@CWnd@@MAEPAP6GJPAUHWND__@@IIJ@ZXZ
	DD	FLAT:?DoDataExchange@CSymbolDlg@@MAEXPAVCDataExchange@@@Z
	DD	FLAT:?BeginModalState@CWnd@@UAEXXZ
	DD	FLAT:?EndModalState@CWnd@@UAEXXZ
	DD	FLAT:?PreTranslateMessage@CDialog@@UAEHPAUtagMSG@@@Z
	DD	FLAT:?OnAmbientProperty@CWnd@@UAEHPAVCOleControlSite@@JPAUtagVARIANT@@@Z
	DD	FLAT:?WindowProc@CWnd@@MAEJIIJ@Z
	DD	FLAT:?OnWndMsg@CWnd@@MAEHIIJPAJ@Z
	DD	FLAT:?DefWindowProcA@CWnd@@MAEJIIJ@Z
	DD	FLAT:?PostNcDestroy@CWnd@@MAEXXZ
	DD	FLAT:?OnChildNotify@CWnd@@MAEHIIJPAJ@Z
	DD	FLAT:?OnTouchInputs@CWnd@@MAEHIPAUtagTOUCHINPUT@@@Z
	DD	FLAT:?OnTouchInput@CWnd@@MAEHVCPoint@@HHPAUtagTOUCHINPUT@@@Z
	DD	FLAT:?GetGestureStatus@CWnd@@MAEKVCPoint@@@Z
	DD	FLAT:?OnGestureZoom@CWnd@@MAEHVCPoint@@J@Z
	DD	FLAT:?OnGesturePan@CWnd@@MAEHVCPoint@@0@Z
	DD	FLAT:?OnGestureRotate@CWnd@@MAEHVCPoint@@N@Z
	DD	FLAT:?OnGestureTwoFingerTap@CWnd@@MAEHVCPoint@@@Z
	DD	FLAT:?OnGesturePressAndTap@CWnd@@MAEHVCPoint@@J@Z
	DD	FLAT:?ResizeDynamicLayout@CWnd@@MAEXXZ
	DD	FLAT:?CheckAutoCenter@CDialog@@UAEHXZ
	DD	FLAT:?IsFrameWnd@CWnd@@UBEHXZ
	DD	FLAT:?CreateControlContainer@CWnd@@MAEHPAPAVCOleControlContainer@@@Z
	DD	FLAT:?CreateControlSite@CWnd@@MAEHPAVCOleControlContainer@@PAPAVCOleControlSite@@IABU_GUID@@@Z
	DD	FLAT:?SetOccDialogInfo@CDialog@@MAEHPAU_AFX_OCC_DIALOG_INFO@@@Z
	DD	FLAT:?GetOccDialogInfo@CDialog@@MAEPAU_AFX_OCC_DIALOG_INFO@@XZ
	DD	FLAT:?Create@CDialog@@UAEHIPAVCWnd@@@Z
	DD	FLAT:?Create@CDialog@@UAEHPBDPAVCWnd@@@Z
	DD	FLAT:?CreateIndirect@CDialog@@UAEHPAXPAVCWnd@@@Z
	DD	FLAT:?CreateIndirect@CDialog@@UAEHPBUDLGTEMPLATE@@PAVCWnd@@PAX@Z
	DD	FLAT:?DoModal@CDialog@@UAEHXZ
	DD	FLAT:?OnInitDialog@CSymbolDlg@@MAEHXZ
	DD	FLAT:?OnSetFont@CDialog@@UAEXPAVCFont@@@Z
	DD	FLAT:?OnOK@CDialog@@MAEXXZ
	DD	FLAT:?OnCancel@CDialog@@MAEXXZ
	DD	FLAT:?PreInitDialog@CDialog@@MAEXXZ
CONST	ENDS
;	COMDAT ??_R2CDialog@@8
rdata$r	SEGMENT
??_R2CDialog@@8 DD FLAT:??_R1A@?0A@EA@CDialog@@8	; CDialog::`RTTI Base Class Array'
	DD	FLAT:??_R1A@?0A@EA@CWnd@@8
	DD	FLAT:??_R1A@?0A@EA@CCmdTarget@@8
	DD	FLAT:??_R1A@?0A@EA@CObject@@8
rdata$r	ENDS
;	COMDAT ??_R3CDialog@@8
rdata$r	SEGMENT
??_R3CDialog@@8 DD 00H					; CDialog::`RTTI Class Hierarchy Descriptor'
	DD	00H
	DD	04H
	DD	FLAT:??_R2CDialog@@8
rdata$r	ENDS
;	COMDAT ??_R0?AVCDialog@@@8
data$rs	SEGMENT
??_R0?AVCDialog@@@8 DD FLAT:??_7type_info@@6B@		; CDialog `RTTI Type Descriptor'
	DD	00H
	DB	'.?AVCDialog@@', 00H
data$rs	ENDS
;	COMDAT ??_R1A@?0A@EA@CDialog@@8
rdata$r	SEGMENT
??_R1A@?0A@EA@CDialog@@8 DD FLAT:??_R0?AVCDialog@@@8	; CDialog::`RTTI Base Class Descriptor at (0,-1,0,64)'
	DD	03H
	DD	00H
	DD	0ffffffffH
	DD	00H
	DD	040H
	DD	FLAT:??_R3CDialog@@8
rdata$r	ENDS
;	COMDAT ??_R1A@?0A@EA@CCommonDialog@@8
rdata$r	SEGMENT
??_R1A@?0A@EA@CCommonDialog@@8 DD FLAT:??_R0?AVCCommonDialog@@@8 ; CCommonDialog::`RTTI Base Class Descriptor at (0,-1,0,64)'
	DD	04H
	DD	00H
	DD	0ffffffffH
	DD	00H
	DD	040H
	DD	FLAT:??_R3CCommonDialog@@8
rdata$r	ENDS
;	COMDAT ??_R2CCommonDialog@@8
rdata$r	SEGMENT
??_R2CCommonDialog@@8 DD FLAT:??_R1A@?0A@EA@CCommonDialog@@8 ; CCommonDialog::`RTTI Base Class Array'
	DD	FLAT:??_R1A@?0A@EA@CDialog@@8
	DD	FLAT:??_R1A@?0A@EA@CWnd@@8
	DD	FLAT:??_R1A@?0A@EA@CCmdTarget@@8
	DD	FLAT:??_R1A@?0A@EA@CObject@@8
rdata$r	ENDS
;	COMDAT ??_R3CCommonDialog@@8
rdata$r	SEGMENT
??_R3CCommonDialog@@8 DD 00H				; CCommonDialog::`RTTI Class Hierarchy Descriptor'
	DD	00H
	DD	05H
	DD	FLAT:??_R2CCommonDialog@@8
rdata$r	ENDS
;	COMDAT ??_R0?AVCCommonDialog@@@8
data$rs	SEGMENT
??_R0?AVCCommonDialog@@@8 DD FLAT:??_7type_info@@6B@	; CCommonDialog `RTTI Type Descriptor'
	DD	00H
	DB	'.?AVCCommonDialog@@', 00H
data$rs	ENDS
;	COMDAT ??_R4CCommonDialog@@6B@
rdata$r	SEGMENT
??_R4CCommonDialog@@6B@ DD 00H				; CCommonDialog::`RTTI Complete Object Locator'
	DD	00H
	DD	00H
	DD	FLAT:??_R0?AVCCommonDialog@@@8
	DD	FLAT:??_R3CCommonDialog@@8
rdata$r	ENDS
;	COMDAT ??_R2CCmdTarget@@8
rdata$r	SEGMENT
??_R2CCmdTarget@@8 DD FLAT:??_R1A@?0A@EA@CCmdTarget@@8	; CCmdTarget::`RTTI Base Class Array'
	DD	FLAT:??_R1A@?0A@EA@CObject@@8
rdata$r	ENDS
;	COMDAT ??_R3CCmdTarget@@8
rdata$r	SEGMENT
??_R3CCmdTarget@@8 DD 00H				; CCmdTarget::`RTTI Class Hierarchy Descriptor'
	DD	00H
	DD	02H
	DD	FLAT:??_R2CCmdTarget@@8
rdata$r	ENDS
;	COMDAT ??_R0?AVCCmdTarget@@@8
data$rs	SEGMENT
??_R0?AVCCmdTarget@@@8 DD FLAT:??_7type_info@@6B@	; CCmdTarget `RTTI Type Descriptor'
	DD	00H
	DB	'.?AVCCmdTarget@@', 00H
data$rs	ENDS
;	COMDAT ??_R1A@?0A@EA@CCmdTarget@@8
rdata$r	SEGMENT
??_R1A@?0A@EA@CCmdTarget@@8 DD FLAT:??_R0?AVCCmdTarget@@@8 ; CCmdTarget::`RTTI Base Class Descriptor at (0,-1,0,64)'
	DD	01H
	DD	00H
	DD	0ffffffffH
	DD	00H
	DD	040H
	DD	FLAT:??_R3CCmdTarget@@8
rdata$r	ENDS
;	COMDAT ??_R2CWnd@@8
rdata$r	SEGMENT
??_R2CWnd@@8 DD	FLAT:??_R1A@?0A@EA@CWnd@@8		; CWnd::`RTTI Base Class Array'
	DD	FLAT:??_R1A@?0A@EA@CCmdTarget@@8
	DD	FLAT:??_R1A@?0A@EA@CObject@@8
rdata$r	ENDS
;	COMDAT ??_R3CWnd@@8
rdata$r	SEGMENT
??_R3CWnd@@8 DD	00H					; CWnd::`RTTI Class Hierarchy Descriptor'
	DD	00H
	DD	03H
	DD	FLAT:??_R2CWnd@@8
rdata$r	ENDS
;	COMDAT ??_R0?AVCWnd@@@8
data$rs	SEGMENT
??_R0?AVCWnd@@@8 DD FLAT:??_7type_info@@6B@		; CWnd `RTTI Type Descriptor'
	DD	00H
	DB	'.?AVCWnd@@', 00H
data$rs	ENDS
;	COMDAT ??_R1A@?0A@EA@CWnd@@8
rdata$r	SEGMENT
??_R1A@?0A@EA@CWnd@@8 DD FLAT:??_R0?AVCWnd@@@8		; CWnd::`RTTI Base Class Descriptor at (0,-1,0,64)'
	DD	02H
	DD	00H
	DD	0ffffffffH
	DD	00H
	DD	040H
	DD	FLAT:??_R3CWnd@@8
rdata$r	ENDS
;	COMDAT ??_R1A@?0A@EA@CObject@@8
rdata$r	SEGMENT
??_R1A@?0A@EA@CObject@@8 DD FLAT:??_R0?AVCObject@@@8	; CObject::`RTTI Base Class Descriptor at (0,-1,0,64)'
	DD	00H
	DD	00H
	DD	0ffffffffH
	DD	00H
	DD	040H
	DD	FLAT:??_R3CObject@@8
rdata$r	ENDS
;	COMDAT ??_R2CObject@@8
rdata$r	SEGMENT
??_R2CObject@@8 DD FLAT:??_R1A@?0A@EA@CObject@@8	; CObject::`RTTI Base Class Array'
rdata$r	ENDS
;	COMDAT ??_R3CObject@@8
rdata$r	SEGMENT
??_R3CObject@@8 DD 00H					; CObject::`RTTI Class Hierarchy Descriptor'
	DD	00H
	DD	01H
	DD	FLAT:??_R2CObject@@8
rdata$r	ENDS
;	COMDAT ??_R0?AVCObject@@@8
data$rs	SEGMENT
??_R0?AVCObject@@@8 DD FLAT:??_7type_info@@6B@		; CObject `RTTI Type Descriptor'
	DD	00H
	DB	'.?AVCObject@@', 00H
data$rs	ENDS
;	COMDAT ??_7CCommonDialog@@6B@
CONST	SEGMENT
??_7CCommonDialog@@6B@ DD FLAT:??_R4CCommonDialog@@6B@	; CCommonDialog::`vftable'
	DD	FLAT:?GetRuntimeClass@CCommonDialog@@UBEPAUCRuntimeClass@@XZ
	DD	FLAT:??_ECCommonDialog@@UAEPAXI@Z
	DD	FLAT:?Serialize@CObject@@UAEXAAVCArchive@@@Z
	DD	FLAT:?AssertValid@CObject@@UBEXXZ
	DD	FLAT:?Dump@CObject@@UBEXAAVCDumpContext@@@Z
	DD	FLAT:?OnCmdMsg@CDialog@@UAEHIHPAXPAUAFX_CMDHANDLERINFO@@@Z
	DD	FLAT:?OnFinalRelease@CWnd@@UAEXXZ
	DD	FLAT:?IsInvokeAllowed@CCmdTarget@@UAEHJ@Z
	DD	FLAT:?GetDispatchIID@CCmdTarget@@UAEHPAU_GUID@@@Z
	DD	FLAT:?GetTypeInfoCount@CCmdTarget@@UAEIXZ
	DD	FLAT:?GetTypeLibCache@CCmdTarget@@UAEPAVCTypeLibCache@@XZ
	DD	FLAT:?GetTypeLib@CCmdTarget@@UAEJKPAPAUITypeLib@@@Z
	DD	FLAT:?GetMessageMap@CCommonDialog@@MBEPBUAFX_MSGMAP@@XZ
	DD	FLAT:?GetCommandMap@CCmdTarget@@MBEPBUAFX_OLECMDMAP@@XZ
	DD	FLAT:?GetDispatchMap@CCmdTarget@@MBEPBUAFX_DISPMAP@@XZ
	DD	FLAT:?GetConnectionMap@CCmdTarget@@MBEPBUAFX_CONNECTIONMAP@@XZ
	DD	FLAT:?GetInterfaceMap@CWnd@@MBEPBUAFX_INTERFACEMAP@@XZ
	DD	FLAT:?GetEventSinkMap@CCmdTarget@@MBEPBUAFX_EVENTSINKMAP@@XZ
	DD	FLAT:?OnCreateAggregates@CCmdTarget@@UAEHXZ
	DD	FLAT:?GetInterfaceHook@CCmdTarget@@UAEPAUIUnknown@@PBX@Z
	DD	FLAT:?GetExtraConnectionPoints@CCmdTarget@@MAEHPAVCPtrArray@@@Z
	DD	FLAT:?GetConnectionHook@CCmdTarget@@MAEPAUIConnectionPoint@@ABU_GUID@@@Z
	DD	FLAT:?PreSubclassWindow@CWnd@@UAEXXZ
	DD	FLAT:?Create@CWnd@@UAEHPBD0KABUtagRECT@@PAV1@IPAUCCreateContext@@@Z
	DD	FLAT:?CreateEx@CWnd@@UAEHKPBD0KABUtagRECT@@PAV1@IPAX@Z
	DD	FLAT:?CreateEx@CWnd@@UAEHKPBD0KHHHHPAUHWND__@@PAUHMENU__@@PAX@Z
	DD	FLAT:?DestroyWindow@CWnd@@UAEHXZ
	DD	FLAT:?PreCreateWindow@CWnd@@UAEHAAUtagCREATESTRUCTA@@@Z
	DD	FLAT:?CalcWindowRect@CWnd@@UAEXPAUtagRECT@@I@Z
	DD	FLAT:?GetMenu@CWnd@@UBEPAVCMenu@@XZ
	DD	FLAT:?SetMenu@CWnd@@UAEHPAVCMenu@@@Z
	DD	FLAT:?OnToolHitTest@CWnd@@UBEHVCPoint@@PAUtagTOOLINFOA@@@Z
	DD	FLAT:?GetScrollBarCtrl@CWnd@@UBEPAVCScrollBar@@H@Z
	DD	FLAT:?WinHelpA@CWnd@@UAEXKI@Z
	DD	FLAT:?HtmlHelpA@CWnd@@UAEXKI@Z
	DD	FLAT:?WinHelpInternal@CWnd@@UAEXKI@Z
	DD	FLAT:?ContinueModal@CWnd@@UAEHXZ
	DD	FLAT:?EndModalLoop@CWnd@@UAEXH@Z
	DD	FLAT:?OnDrawIconicThumbnailOrLivePreview@CWnd@@UAEXAAVCDC@@VCRect@@VCSize@@HAAH@Z
	DD	FLAT:?EnsureStdObj@CWnd@@UAEJXZ
	DD	FLAT:?get_accParent@CWnd@@UAEJPAPAUIDispatch@@@Z
	DD	FLAT:?get_accChildCount@CWnd@@UAEJPAJ@Z
	DD	FLAT:?get_accChild@CWnd@@UAEJUtagVARIANT@@PAPAUIDispatch@@@Z
	DD	FLAT:?get_accName@CWnd@@UAEJUtagVARIANT@@PAPA_W@Z
	DD	FLAT:?get_accValue@CWnd@@UAEJUtagVARIANT@@PAPA_W@Z
	DD	FLAT:?get_accDescription@CWnd@@UAEJUtagVARIANT@@PAPA_W@Z
	DD	FLAT:?get_accRole@CWnd@@UAEJUtagVARIANT@@PAU2@@Z
	DD	FLAT:?get_accState@CWnd@@UAEJUtagVARIANT@@PAU2@@Z
	DD	FLAT:?get_accHelp@CWnd@@UAEJUtagVARIANT@@PAPA_W@Z
	DD	FLAT:?get_accHelpTopic@CWnd@@UAEJPAPA_WUtagVARIANT@@PAJ@Z
	DD	FLAT:?get_accKeyboardShortcut@CWnd@@UAEJUtagVARIANT@@PAPA_W@Z
	DD	FLAT:?get_accFocus@CWnd@@UAEJPAUtagVARIANT@@@Z
	DD	FLAT:?get_accSelection@CWnd@@UAEJPAUtagVARIANT@@@Z
	DD	FLAT:?get_accDefaultAction@CWnd@@UAEJUtagVARIANT@@PAPA_W@Z
	DD	FLAT:?accSelect@CWnd@@UAEJJUtagVARIANT@@@Z
	DD	FLAT:?accLocation@CWnd@@UAEJPAJ000UtagVARIANT@@@Z
	DD	FLAT:?accNavigate@CWnd@@UAEJJUtagVARIANT@@PAU2@@Z
	DD	FLAT:?accHitTest@CWnd@@UAEJJJPAUtagVARIANT@@@Z
	DD	FLAT:?accDoDefaultAction@CWnd@@UAEJUtagVARIANT@@@Z
	DD	FLAT:?put_accName@CWnd@@UAEJUtagVARIANT@@PA_W@Z
	DD	FLAT:?put_accValue@CWnd@@UAEJUtagVARIANT@@PA_W@Z
	DD	FLAT:?SetProxy@CWnd@@UAEJPAUIAccessibleProxy@@@Z
	DD	FLAT:?CreateAccessibleProxy@CWnd@@UAEJIJPAJ@Z
	DD	FLAT:?OnCommand@CWnd@@MAEHIJ@Z
	DD	FLAT:?OnNotify@CWnd@@MAEHIJPAJ@Z
	DD	FLAT:?GetSuperWndProcAddr@CWnd@@MAEPAP6GJPAUHWND__@@IIJ@ZXZ
	DD	FLAT:?DoDataExchange@CWnd@@MAEXPAVCDataExchange@@@Z
	DD	FLAT:?BeginModalState@CWnd@@UAEXXZ
	DD	FLAT:?EndModalState@CWnd@@UAEXXZ
	DD	FLAT:?PreTranslateMessage@CDialog@@UAEHPAUtagMSG@@@Z
	DD	FLAT:?OnAmbientProperty@CWnd@@UAEHPAVCOleControlSite@@JPAUtagVARIANT@@@Z
	DD	FLAT:?WindowProc@CWnd@@MAEJIIJ@Z
	DD	FLAT:?OnWndMsg@CWnd@@MAEHIIJPAJ@Z
	DD	FLAT:?DefWindowProcA@CWnd@@MAEJIIJ@Z
	DD	FLAT:?PostNcDestroy@CWnd@@MAEXXZ
	DD	FLAT:?OnChildNotify@CWnd@@MAEHIIJPAJ@Z
	DD	FLAT:?OnTouchInputs@CWnd@@MAEHIPAUtagTOUCHINPUT@@@Z
	DD	FLAT:?OnTouchInput@CWnd@@MAEHVCPoint@@HHPAUtagTOUCHINPUT@@@Z
	DD	FLAT:?GetGestureStatus@CWnd@@MAEKVCPoint@@@Z
	DD	FLAT:?OnGestureZoom@CWnd@@MAEHVCPoint@@J@Z
	DD	FLAT:?OnGesturePan@CWnd@@MAEHVCPoint@@0@Z
	DD	FLAT:?OnGestureRotate@CWnd@@MAEHVCPoint@@N@Z
	DD	FLAT:?OnGestureTwoFingerTap@CWnd@@MAEHVCPoint@@@Z
	DD	FLAT:?OnGesturePressAndTap@CWnd@@MAEHVCPoint@@J@Z
	DD	FLAT:?ResizeDynamicLayout@CWnd@@MAEXXZ
	DD	FLAT:?CheckAutoCenter@CDialog@@UAEHXZ
	DD	FLAT:?IsFrameWnd@CWnd@@UBEHXZ
	DD	FLAT:?CreateControlContainer@CWnd@@MAEHPAPAVCOleControlContainer@@@Z
	DD	FLAT:?CreateControlSite@CWnd@@MAEHPAVCOleControlContainer@@PAPAVCOleControlSite@@IABU_GUID@@@Z
	DD	FLAT:?SetOccDialogInfo@CDialog@@MAEHPAU_AFX_OCC_DIALOG_INFO@@@Z
	DD	FLAT:?GetOccDialogInfo@CDialog@@MAEPAU_AFX_OCC_DIALOG_INFO@@XZ
	DD	FLAT:?Create@CDialog@@UAEHIPAVCWnd@@@Z
	DD	FLAT:?Create@CDialog@@UAEHPBDPAVCWnd@@@Z
	DD	FLAT:?CreateIndirect@CDialog@@UAEHPAXPAVCWnd@@@Z
	DD	FLAT:?CreateIndirect@CDialog@@UAEHPBUDLGTEMPLATE@@PAVCWnd@@PAX@Z
	DD	FLAT:?DoModal@CDialog@@UAEHXZ
	DD	FLAT:?OnInitDialog@CDialog@@UAEHXZ
	DD	FLAT:?OnSetFont@CDialog@@UAEXPAVCFont@@@Z
	DD	FLAT:?OnOK@CCommonDialog@@MAEXXZ
	DD	FLAT:?OnCancel@CCommonDialog@@MAEXXZ
	DD	FLAT:?PreInitDialog@CDialog@@MAEXXZ
CONST	ENDS
;	COMDAT xdata$x
xdata$x	SEGMENT
__unwindtable$?OnFont@CSymbolDlg@@IAEXXZ DD 0ffffffffH
	DD	FLAT:__unwindfunclet$?OnFont@CSymbolDlg@@IAEXXZ$0
__ehfuncinfo$?OnFont@CSymbolDlg@@IAEXXZ DD 019930522H
	DD	01H
	DD	FLAT:__unwindtable$?OnFont@CSymbolDlg@@IAEXXZ
	DD	2 DUP(00H)
	DD	2 DUP(00H)
	DD	00H
	DD	01H
xdata$x	ENDS
;	COMDAT xdata$x
xdata$x	SEGMENT
__unwindtable$?OnColor@CSymbolDlg@@IAEXXZ DD 0ffffffffH
	DD	FLAT:__unwindfunclet$?OnColor@CSymbolDlg@@IAEXXZ$0
__ehfuncinfo$?OnColor@CSymbolDlg@@IAEXXZ DD 019930522H
	DD	01H
	DD	FLAT:__unwindtable$?OnColor@CSymbolDlg@@IAEXXZ
	DD	2 DUP(00H)
	DD	2 DUP(00H)
	DD	00H
	DD	01H
xdata$x	ENDS
;	COMDAT xdata$x
xdata$x	SEGMENT
__ehfuncinfo$??0CSymbolDlg@@QAE@PAVCMainSymbolImplementation@@PAVCSymbolData@@PAVCWnd@@@Z DD 019930522H
	DD	022H
	DD	FLAT:__unwindtable$??0CSymbolDlg@@QAE@PAVCMainSymbolImplementation@@PAVCSymbolData@@PAVCWnd@@@Z
	DD	2 DUP(00H)
	DD	2 DUP(00H)
	DD	00H
	DD	01H
__unwindtable$??0CSymbolDlg@@QAE@PAVCMainSymbolImplementation@@PAVCSymbolData@@PAVCWnd@@@Z DD 0ffffffffH
	DD	FLAT:__unwindfunclet$??0CSymbolDlg@@QAE@PAVCMainSymbolImplementation@@PAVCSymbolData@@PAVCWnd@@@Z$0
	DD	00H
	DD	FLAT:__unwindfunclet$??0CSymbolDlg@@QAE@PAVCMainSymbolImplementation@@PAVCSymbolData@@PAVCWnd@@@Z$1
	DD	01H
	DD	FLAT:__unwindfunclet$??0CSymbolDlg@@QAE@PAVCMainSymbolImplementation@@PAVCSymbolData@@PAVCWnd@@@Z$2
	DD	02H
	DD	FLAT:__unwindfunclet$??0CSymbolDlg@@QAE@PAVCMainSymbolImplementation@@PAVCSymbolData@@PAVCWnd@@@Z$3
	DD	03H
	DD	FLAT:__unwindfunclet$??0CSymbolDlg@@QAE@PAVCMainSymbolImplementation@@PAVCSymbolData@@PAVCWnd@@@Z$4
	DD	04H
	DD	FLAT:__unwindfunclet$??0CSymbolDlg@@QAE@PAVCMainSymbolImplementation@@PAVCSymbolData@@PAVCWnd@@@Z$5
	DD	05H
	DD	FLAT:__unwindfunclet$??0CSymbolDlg@@QAE@PAVCMainSymbolImplementation@@PAVCSymbolData@@PAVCWnd@@@Z$6
	DD	06H
	DD	FLAT:__unwindfunclet$??0CSymbolDlg@@QAE@PAVCMainSymbolImplementation@@PAVCSymbolData@@PAVCWnd@@@Z$7
	DD	07H
	DD	FLAT:__unwindfunclet$??0CSymbolDlg@@QAE@PAVCMainSymbolImplementation@@PAVCSymbolData@@PAVCWnd@@@Z$8
	DD	08H
	DD	FLAT:__unwindfunclet$??0CSymbolDlg@@QAE@PAVCMainSymbolImplementation@@PAVCSymbolData@@PAVCWnd@@@Z$9
	DD	09H
	DD	FLAT:__unwindfunclet$??0CSymbolDlg@@QAE@PAVCMainSymbolImplementation@@PAVCSymbolData@@PAVCWnd@@@Z$10
	DD	0aH
	DD	FLAT:__unwindfunclet$??0CSymbolDlg@@QAE@PAVCMainSymbolImplementation@@PAVCSymbolData@@PAVCWnd@@@Z$11
	DD	0bH
	DD	FLAT:__unwindfunclet$??0CSymbolDlg@@QAE@PAVCMainSymbolImplementation@@PAVCSymbolData@@PAVCWnd@@@Z$12
	DD	0cH
	DD	FLAT:__unwindfunclet$??0CSymbolDlg@@QAE@PAVCMainSymbolImplementation@@PAVCSymbolData@@PAVCWnd@@@Z$13
	DD	0dH
	DD	FLAT:__unwindfunclet$??0CSymbolDlg@@QAE@PAVCMainSymbolImplementation@@PAVCSymbolData@@PAVCWnd@@@Z$14
	DD	0eH
	DD	FLAT:__unwindfunclet$??0CSymbolDlg@@QAE@PAVCMainSymbolImplementation@@PAVCSymbolData@@PAVCWnd@@@Z$15
	DD	0fH
	DD	FLAT:__unwindfunclet$??0CSymbolDlg@@QAE@PAVCMainSymbolImplementation@@PAVCSymbolData@@PAVCWnd@@@Z$16
	DD	010H
	DD	FLAT:__unwindfunclet$??0CSymbolDlg@@QAE@PAVCMainSymbolImplementation@@PAVCSymbolData@@PAVCWnd@@@Z$17
	DD	011H
	DD	FLAT:__unwindfunclet$??0CSymbolDlg@@QAE@PAVCMainSymbolImplementation@@PAVCSymbolData@@PAVCWnd@@@Z$18
	DD	012H
	DD	FLAT:__unwindfunclet$??0CSymbolDlg@@QAE@PAVCMainSymbolImplementation@@PAVCSymbolData@@PAVCWnd@@@Z$19
	DD	013H
	DD	FLAT:__unwindfunclet$??0CSymbolDlg@@QAE@PAVCMainSymbolImplementation@@PAVCSymbolData@@PAVCWnd@@@Z$20
	DD	014H
	DD	FLAT:__unwindfunclet$??0CSymbolDlg@@QAE@PAVCMainSymbolImplementation@@PAVCSymbolData@@PAVCWnd@@@Z$21
	DD	015H
	DD	FLAT:__unwindfunclet$??0CSymbolDlg@@QAE@PAVCMainSymbolImplementation@@PAVCSymbolData@@PAVCWnd@@@Z$22
	DD	016H
	DD	FLAT:__unwindfunclet$??0CSymbolDlg@@QAE@PAVCMainSymbolImplementation@@PAVCSymbolData@@PAVCWnd@@@Z$23
	DD	017H
	DD	FLAT:__unwindfunclet$??0CSymbolDlg@@QAE@PAVCMainSymbolImplementation@@PAVCSymbolData@@PAVCWnd@@@Z$24
	DD	018H
	DD	FLAT:__unwindfunclet$??0CSymbolDlg@@QAE@PAVCMainSymbolImplementation@@PAVCSymbolData@@PAVCWnd@@@Z$25
	DD	019H
	DD	FLAT:__unwindfunclet$??0CSymbolDlg@@QAE@PAVCMainSymbolImplementation@@PAVCSymbolData@@PAVCWnd@@@Z$26
	DD	01aH
	DD	FLAT:__unwindfunclet$??0CSymbolDlg@@QAE@PAVCMainSymbolImplementation@@PAVCSymbolData@@PAVCWnd@@@Z$27
	DD	01bH
	DD	FLAT:__unwindfunclet$??0CSymbolDlg@@QAE@PAVCMainSymbolImplementation@@PAVCSymbolData@@PAVCWnd@@@Z$28
	DD	01cH
	DD	FLAT:__unwindfunclet$??0CSymbolDlg@@QAE@PAVCMainSymbolImplementation@@PAVCSymbolData@@PAVCWnd@@@Z$29
	DD	01dH
	DD	FLAT:__unwindfunclet$??0CSymbolDlg@@QAE@PAVCMainSymbolImplementation@@PAVCSymbolData@@PAVCWnd@@@Z$30
	DD	01eH
	DD	FLAT:__unwindfunclet$??0CSymbolDlg@@QAE@PAVCMainSymbolImplementation@@PAVCSymbolData@@PAVCWnd@@@Z$31
	DD	01fH
	DD	FLAT:__unwindfunclet$??0CSymbolDlg@@QAE@PAVCMainSymbolImplementation@@PAVCSymbolData@@PAVCWnd@@@Z$32
	DD	020H
	DD	FLAT:__unwindfunclet$??0CSymbolDlg@@QAE@PAVCMainSymbolImplementation@@PAVCSymbolData@@PAVCWnd@@@Z$33
xdata$x	ENDS
; Function compile flags: /Ogtp
; File C:\Program Files (x86)\Microsoft Visual Studio\2019\Community\VC\Tools\MSVC\14.29.30133\atlmfc\include\afx.inl
;	COMDAT ??_GCSymbolDlg@@UAEPAXI@Z
_TEXT	SEGMENT
___flags$ = 8						; size = 4
??_GCSymbolDlg@@UAEPAXI@Z PROC				; CSymbolDlg::`scalar deleting destructor', COMDAT
; _this$ = ecx
  00000	55		 push	 ebp
  00001	8b ec		 mov	 ebp, esp
  00003	56		 push	 esi
  00004	8b f1		 mov	 esi, ecx
  00006	e8 00 00 00 00	 call	 ??1CSymbolDlg@@UAE@XZ
  0000b	8b 45 08	 mov	 eax, DWORD PTR ___flags$[ebp]
  0000e	a8 01		 test	 al, 1
  00010	74 22		 je	 SHORT $LN9@scalar
  00012	a8 04		 test	 al, 4
  00014	75 10		 jne	 SHORT $LN3@scalar

; 112  : 	{ ::operator delete(p); }

  00016	56		 push	 esi
  00017	e8 00 00 00 00	 call	 ??3@YAXPAX@Z		; operator delete
  0001c	83 c4 04	 add	 esp, 4
  0001f	8b c6		 mov	 eax, esi
  00021	5e		 pop	 esi
  00022	5d		 pop	 ebp
  00023	c2 04 00	 ret	 4
$LN3@scalar:
  00026	68 e0 13 00 00	 push	 5088			; 000013e0H
  0002b	56		 push	 esi
  0002c	e8 00 00 00 00	 call	 ?__global_delete@@YAXPAXI@Z ; __global_delete
  00031	83 c4 08	 add	 esp, 8
$LN9@scalar:
  00034	8b c6		 mov	 eax, esi
  00036	5e		 pop	 esi
  00037	5d		 pop	 ebp
  00038	c2 04 00	 ret	 4
??_GCSymbolDlg@@UAEPAXI@Z ENDP				; CSymbolDlg::`scalar deleting destructor'
_TEXT	ENDS
; Function compile flags: /Ogtp
;	COMDAT ??1CSymbolDlg@@UAE@XZ
_TEXT	SEGMENT
??1CSymbolDlg@@UAE@XZ PROC				; CSymbolDlg::~CSymbolDlg, COMDAT
; _this$ = ecx
  00000	56		 push	 esi
  00001	57		 push	 edi
  00002	8b f9		 mov	 edi, ecx
  00004	8d 8f cc 13 00
	00		 lea	 ecx, DWORD PTR [edi+5068]
  0000a	ff 15 00 00 00
	00		 call	 DWORD PTR __imp_??1?$CStringT@DV?$StrTraitMFC_DLL@DV?$ChTraitsCRT@D@ATL@@@@@ATL@@QAE@XZ
  00010	8d 8f c8 13 00
	00		 lea	 ecx, DWORD PTR [edi+5064]
  00016	ff 15 00 00 00
	00		 call	 DWORD PTR __imp_??1?$CStringT@DV?$StrTraitMFC_DLL@DV?$ChTraitsCRT@D@ATL@@@@@ATL@@QAE@XZ
  0001c	8d 8f 40 13 00
	00		 lea	 ecx, DWORD PTR [edi+4928]
  00022	e8 00 00 00 00	 call	 ??1CButton@@UAE@XZ	; CButton::~CButton
  00027	8d 8f 3c 13 00
	00		 lea	 ecx, DWORD PTR [edi+4924]
  0002d	ff 15 00 00 00
	00		 call	 DWORD PTR __imp_??1?$CStringT@DV?$StrTraitMFC_DLL@DV?$ChTraitsCRT@D@ATL@@@@@ATL@@QAE@XZ
  00033	8d 8f 38 13 00
	00		 lea	 ecx, DWORD PTR [edi+4920]
  00039	ff 15 00 00 00
	00		 call	 DWORD PTR __imp_??1?$CStringT@DV?$StrTraitMFC_DLL@DV?$ChTraitsCRT@D@ATL@@@@@ATL@@QAE@XZ
  0003f	8d 8f b0 12 00
	00		 lea	 ecx, DWORD PTR [edi+4784]
  00045	e8 00 00 00 00	 call	 ??1CButton@@UAE@XZ	; CButton::~CButton
  0004a	8d 8f 28 12 00
	00		 lea	 ecx, DWORD PTR [edi+4648]
  00050	e8 00 00 00 00	 call	 ??1CColorButton@@UAE@XZ	; CColorButton::~CColorButton
  00055	8d 8f 88 11 00
	00		 lea	 ecx, DWORD PTR [edi+4488]
  0005b	e8 00 00 00 00	 call	 ??1CPreView@@UAE@XZ	; CPreView::~CPreView
  00060	8d 8f 84 11 00
	00		 lea	 ecx, DWORD PTR [edi+4484]
  00066	ff 15 00 00 00
	00		 call	 DWORD PTR __imp_??1?$CStringT@DV?$StrTraitMFC_DLL@DV?$ChTraitsCRT@D@ATL@@@@@ATL@@QAE@XZ
  0006c	8d 8f 80 11 00
	00		 lea	 ecx, DWORD PTR [edi+4480]
  00072	ff 15 00 00 00
	00		 call	 DWORD PTR __imp_??1?$CStringT@DV?$StrTraitMFC_DLL@DV?$ChTraitsCRT@D@ATL@@@@@ATL@@QAE@XZ
  00078	8d 8f f8 10 00
	00		 lea	 ecx, DWORD PTR [edi+4344]
  0007e	e8 00 00 00 00	 call	 ??1CButton@@UAE@XZ	; CButton::~CButton
  00083	8d 8f f4 10 00
	00		 lea	 ecx, DWORD PTR [edi+4340]
  00089	ff 15 00 00 00
	00		 call	 DWORD PTR __imp_??1?$CStringT@DV?$StrTraitMFC_DLL@DV?$ChTraitsCRT@D@ATL@@@@@ATL@@QAE@XZ
  0008f	8d 8f f0 10 00
	00		 lea	 ecx, DWORD PTR [edi+4336]
  00095	ff 15 00 00 00
	00		 call	 DWORD PTR __imp_??1?$CStringT@DV?$StrTraitMFC_DLL@DV?$ChTraitsCRT@D@ATL@@@@@ATL@@QAE@XZ
  0009b	8d 8f 68 10 00
	00		 lea	 ecx, DWORD PTR [edi+4200]
  000a1	e8 00 00 00 00	 call	 ??1CButton@@UAE@XZ	; CButton::~CButton
  000a6	8d 8f 64 10 00
	00		 lea	 ecx, DWORD PTR [edi+4196]
  000ac	ff 15 00 00 00
	00		 call	 DWORD PTR __imp_??1?$CStringT@DV?$StrTraitMFC_DLL@DV?$ChTraitsCRT@D@ATL@@@@@ATL@@QAE@XZ
  000b2	8d 8f 60 10 00
	00		 lea	 ecx, DWORD PTR [edi+4192]
  000b8	ff 15 00 00 00
	00		 call	 DWORD PTR __imp_??1?$CStringT@DV?$StrTraitMFC_DLL@DV?$ChTraitsCRT@D@ATL@@@@@ATL@@QAE@XZ
  000be	8d 8f d8 0f 00
	00		 lea	 ecx, DWORD PTR [edi+4056]
  000c4	e8 00 00 00 00	 call	 ??1CButton@@UAE@XZ	; CButton::~CButton
  000c9	8d 8f d4 0f 00
	00		 lea	 ecx, DWORD PTR [edi+4052]
  000cf	ff 15 00 00 00
	00		 call	 DWORD PTR __imp_??1?$CStringT@DV?$StrTraitMFC_DLL@DV?$ChTraitsCRT@D@ATL@@@@@ATL@@QAE@XZ
  000d5	8d 8f d0 0f 00
	00		 lea	 ecx, DWORD PTR [edi+4048]
  000db	ff 15 00 00 00
	00		 call	 DWORD PTR __imp_??1?$CStringT@DV?$StrTraitMFC_DLL@DV?$ChTraitsCRT@D@ATL@@@@@ATL@@QAE@XZ
  000e1	8d 8f 48 0f 00
	00		 lea	 ecx, DWORD PTR [edi+3912]
  000e7	e8 00 00 00 00	 call	 ??1CButton@@UAE@XZ	; CButton::~CButton
  000ec	8d 8f 44 0f 00
	00		 lea	 ecx, DWORD PTR [edi+3908]
  000f2	ff 15 00 00 00
	00		 call	 DWORD PTR __imp_??1?$CStringT@DV?$StrTraitMFC_DLL@DV?$ChTraitsCRT@D@ATL@@@@@ATL@@QAE@XZ
  000f8	8d 8f 40 0f 00
	00		 lea	 ecx, DWORD PTR [edi+3904]
  000fe	ff 15 00 00 00
	00		 call	 DWORD PTR __imp_??1?$CStringT@DV?$StrTraitMFC_DLL@DV?$ChTraitsCRT@D@ATL@@@@@ATL@@QAE@XZ
  00104	8d 8f b8 0e 00
	00		 lea	 ecx, DWORD PTR [edi+3768]
  0010a	e8 00 00 00 00	 call	 ??1CButton@@UAE@XZ	; CButton::~CButton
  0010f	8d 8f b4 0e 00
	00		 lea	 ecx, DWORD PTR [edi+3764]
  00115	ff 15 00 00 00
	00		 call	 DWORD PTR __imp_??1?$CStringT@DV?$StrTraitMFC_DLL@DV?$ChTraitsCRT@D@ATL@@@@@ATL@@QAE@XZ
  0011b	8d 8f b0 0e 00
	00		 lea	 ecx, DWORD PTR [edi+3760]
  00121	ff 15 00 00 00
	00		 call	 DWORD PTR __imp_??1?$CStringT@DV?$StrTraitMFC_DLL@DV?$ChTraitsCRT@D@ATL@@@@@ATL@@QAE@XZ
  00127	8d 8f 28 0e 00
	00		 lea	 ecx, DWORD PTR [edi+3624]
  0012d	e8 00 00 00 00	 call	 ??1CButton@@UAE@XZ	; CButton::~CButton
  00132	8d 8f 24 0e 00
	00		 lea	 ecx, DWORD PTR [edi+3620]
  00138	ff 15 00 00 00
	00		 call	 DWORD PTR __imp_??1?$CStringT@DV?$StrTraitMFC_DLL@DV?$ChTraitsCRT@D@ATL@@@@@ATL@@QAE@XZ
  0013e	8d 8f 20 0e 00
	00		 lea	 ecx, DWORD PTR [edi+3616]
  00144	ff 15 00 00 00
	00		 call	 DWORD PTR __imp_??1?$CStringT@DV?$StrTraitMFC_DLL@DV?$ChTraitsCRT@D@ATL@@@@@ATL@@QAE@XZ
  0014a	8d 8f 98 0d 00
	00		 lea	 ecx, DWORD PTR [edi+3480]
  00150	e8 00 00 00 00	 call	 ??1CButton@@UAE@XZ	; CButton::~CButton
  00155	8d 8f 94 0d 00
	00		 lea	 ecx, DWORD PTR [edi+3476]
  0015b	ff 15 00 00 00
	00		 call	 DWORD PTR __imp_??1?$CStringT@DV?$StrTraitMFC_DLL@DV?$ChTraitsCRT@D@ATL@@@@@ATL@@QAE@XZ
  00161	8d 8f 90 0d 00
	00		 lea	 ecx, DWORD PTR [edi+3472]
  00167	ff 15 00 00 00
	00		 call	 DWORD PTR __imp_??1?$CStringT@DV?$StrTraitMFC_DLL@DV?$ChTraitsCRT@D@ATL@@@@@ATL@@QAE@XZ
  0016d	8d 8f 08 0d 00
	00		 lea	 ecx, DWORD PTR [edi+3336]
  00173	e8 00 00 00 00	 call	 ??1CButton@@UAE@XZ	; CButton::~CButton
  00178	8d 8f 04 0d 00
	00		 lea	 ecx, DWORD PTR [edi+3332]
  0017e	ff 15 00 00 00
	00		 call	 DWORD PTR __imp_??1?$CStringT@DV?$StrTraitMFC_DLL@DV?$ChTraitsCRT@D@ATL@@@@@ATL@@QAE@XZ
  00184	8d 8f 00 0d 00
	00		 lea	 ecx, DWORD PTR [edi+3328]
  0018a	ff 15 00 00 00
	00		 call	 DWORD PTR __imp_??1?$CStringT@DV?$StrTraitMFC_DLL@DV?$ChTraitsCRT@D@ATL@@@@@ATL@@QAE@XZ
  00190	8d 8f 78 0c 00
	00		 lea	 ecx, DWORD PTR [edi+3192]
  00196	e8 00 00 00 00	 call	 ??1CButton@@UAE@XZ	; CButton::~CButton
  0019b	8d 8f 74 0c 00
	00		 lea	 ecx, DWORD PTR [edi+3188]
  001a1	ff 15 00 00 00
	00		 call	 DWORD PTR __imp_??1?$CStringT@DV?$StrTraitMFC_DLL@DV?$ChTraitsCRT@D@ATL@@@@@ATL@@QAE@XZ
  001a7	8d 8f 70 0c 00
	00		 lea	 ecx, DWORD PTR [edi+3184]
  001ad	ff 15 00 00 00
	00		 call	 DWORD PTR __imp_??1?$CStringT@DV?$StrTraitMFC_DLL@DV?$ChTraitsCRT@D@ATL@@@@@ATL@@QAE@XZ
  001b3	8d 8f e8 0b 00
	00		 lea	 ecx, DWORD PTR [edi+3048]
  001b9	e8 00 00 00 00	 call	 ??1CButton@@UAE@XZ	; CButton::~CButton
  001be	8d 8f e4 0b 00
	00		 lea	 ecx, DWORD PTR [edi+3044]
  001c4	ff 15 00 00 00
	00		 call	 DWORD PTR __imp_??1?$CStringT@DV?$StrTraitMFC_DLL@DV?$ChTraitsCRT@D@ATL@@@@@ATL@@QAE@XZ
  001ca	8d 8f e0 0b 00
	00		 lea	 ecx, DWORD PTR [edi+3040]
  001d0	ff 15 00 00 00
	00		 call	 DWORD PTR __imp_??1?$CStringT@DV?$StrTraitMFC_DLL@DV?$ChTraitsCRT@D@ATL@@@@@ATL@@QAE@XZ
  001d6	8d 8f 58 0b 00
	00		 lea	 ecx, DWORD PTR [edi+2904]
  001dc	e8 00 00 00 00	 call	 ??1CButton@@UAE@XZ	; CButton::~CButton
  001e1	8d 8f 54 0b 00
	00		 lea	 ecx, DWORD PTR [edi+2900]
  001e7	ff 15 00 00 00
	00		 call	 DWORD PTR __imp_??1?$CStringT@DV?$StrTraitMFC_DLL@DV?$ChTraitsCRT@D@ATL@@@@@ATL@@QAE@XZ
  001ed	8d 8f 50 0b 00
	00		 lea	 ecx, DWORD PTR [edi+2896]
  001f3	ff 15 00 00 00
	00		 call	 DWORD PTR __imp_??1?$CStringT@DV?$StrTraitMFC_DLL@DV?$ChTraitsCRT@D@ATL@@@@@ATL@@QAE@XZ
  001f9	8d 8f c8 0a 00
	00		 lea	 ecx, DWORD PTR [edi+2760]
  001ff	e8 00 00 00 00	 call	 ??1CButton@@UAE@XZ	; CButton::~CButton
  00204	8d 8f c4 0a 00
	00		 lea	 ecx, DWORD PTR [edi+2756]
  0020a	ff 15 00 00 00
	00		 call	 DWORD PTR __imp_??1?$CStringT@DV?$StrTraitMFC_DLL@DV?$ChTraitsCRT@D@ATL@@@@@ATL@@QAE@XZ
  00210	8d 8f c0 0a 00
	00		 lea	 ecx, DWORD PTR [edi+2752]
  00216	ff 15 00 00 00
	00		 call	 DWORD PTR __imp_??1?$CStringT@DV?$StrTraitMFC_DLL@DV?$ChTraitsCRT@D@ATL@@@@@ATL@@QAE@XZ
  0021c	8d 8f 38 0a 00
	00		 lea	 ecx, DWORD PTR [edi+2616]
  00222	e8 00 00 00 00	 call	 ??1CButton@@UAE@XZ	; CButton::~CButton
  00227	8d 8f 34 0a 00
	00		 lea	 ecx, DWORD PTR [edi+2612]
  0022d	ff 15 00 00 00
	00		 call	 DWORD PTR __imp_??1?$CStringT@DV?$StrTraitMFC_DLL@DV?$ChTraitsCRT@D@ATL@@@@@ATL@@QAE@XZ
  00233	8d 8f 30 0a 00
	00		 lea	 ecx, DWORD PTR [edi+2608]
  00239	ff 15 00 00 00
	00		 call	 DWORD PTR __imp_??1?$CStringT@DV?$StrTraitMFC_DLL@DV?$ChTraitsCRT@D@ATL@@@@@ATL@@QAE@XZ
  0023f	8d 8f a8 09 00
	00		 lea	 ecx, DWORD PTR [edi+2472]
  00245	e8 00 00 00 00	 call	 ??1CButton@@UAE@XZ	; CButton::~CButton
  0024a	8d 8f a4 09 00
	00		 lea	 ecx, DWORD PTR [edi+2468]
  00250	ff 15 00 00 00
	00		 call	 DWORD PTR __imp_??1?$CStringT@DV?$StrTraitMFC_DLL@DV?$ChTraitsCRT@D@ATL@@@@@ATL@@QAE@XZ
  00256	8d 8f a0 09 00
	00		 lea	 ecx, DWORD PTR [edi+2464]
  0025c	ff 15 00 00 00
	00		 call	 DWORD PTR __imp_??1?$CStringT@DV?$StrTraitMFC_DLL@DV?$ChTraitsCRT@D@ATL@@@@@ATL@@QAE@XZ
  00262	8d 8f 18 09 00
	00		 lea	 ecx, DWORD PTR [edi+2328]
  00268	e8 00 00 00 00	 call	 ??1CButton@@UAE@XZ	; CButton::~CButton
  0026d	8d 8f 14 09 00
	00		 lea	 ecx, DWORD PTR [edi+2324]
  00273	ff 15 00 00 00
	00		 call	 DWORD PTR __imp_??1?$CStringT@DV?$StrTraitMFC_DLL@DV?$ChTraitsCRT@D@ATL@@@@@ATL@@QAE@XZ
  00279	8d 8f 10 09 00
	00		 lea	 ecx, DWORD PTR [edi+2320]
  0027f	ff 15 00 00 00
	00		 call	 DWORD PTR __imp_??1?$CStringT@DV?$StrTraitMFC_DLL@DV?$ChTraitsCRT@D@ATL@@@@@ATL@@QAE@XZ
  00285	8d 8f 88 08 00
	00		 lea	 ecx, DWORD PTR [edi+2184]
  0028b	e8 00 00 00 00	 call	 ??1CButton@@UAE@XZ	; CButton::~CButton
  00290	8d 8f 84 08 00
	00		 lea	 ecx, DWORD PTR [edi+2180]
  00296	ff 15 00 00 00
	00		 call	 DWORD PTR __imp_??1?$CStringT@DV?$StrTraitMFC_DLL@DV?$ChTraitsCRT@D@ATL@@@@@ATL@@QAE@XZ
  0029c	8d 8f 80 08 00
	00		 lea	 ecx, DWORD PTR [edi+2176]
  002a2	ff 15 00 00 00
	00		 call	 DWORD PTR __imp_??1?$CStringT@DV?$StrTraitMFC_DLL@DV?$ChTraitsCRT@D@ATL@@@@@ATL@@QAE@XZ
  002a8	8d 8f f8 07 00
	00		 lea	 ecx, DWORD PTR [edi+2040]
  002ae	e8 00 00 00 00	 call	 ??1CButton@@UAE@XZ	; CButton::~CButton
  002b3	8d 8f f4 07 00
	00		 lea	 ecx, DWORD PTR [edi+2036]
  002b9	ff 15 00 00 00
	00		 call	 DWORD PTR __imp_??1?$CStringT@DV?$StrTraitMFC_DLL@DV?$ChTraitsCRT@D@ATL@@@@@ATL@@QAE@XZ
  002bf	8d 8f f0 07 00
	00		 lea	 ecx, DWORD PTR [edi+2032]
  002c5	ff 15 00 00 00
	00		 call	 DWORD PTR __imp_??1?$CStringT@DV?$StrTraitMFC_DLL@DV?$ChTraitsCRT@D@ATL@@@@@ATL@@QAE@XZ
  002cb	8d 8f 68 07 00
	00		 lea	 ecx, DWORD PTR [edi+1896]
  002d1	e8 00 00 00 00	 call	 ??1CButton@@UAE@XZ	; CButton::~CButton
  002d6	8d 8f 64 07 00
	00		 lea	 ecx, DWORD PTR [edi+1892]
  002dc	ff 15 00 00 00
	00		 call	 DWORD PTR __imp_??1?$CStringT@DV?$StrTraitMFC_DLL@DV?$ChTraitsCRT@D@ATL@@@@@ATL@@QAE@XZ
  002e2	8d 8f 60 07 00
	00		 lea	 ecx, DWORD PTR [edi+1888]
  002e8	ff 15 00 00 00
	00		 call	 DWORD PTR __imp_??1?$CStringT@DV?$StrTraitMFC_DLL@DV?$ChTraitsCRT@D@ATL@@@@@ATL@@QAE@XZ
  002ee	8d 8f d8 06 00
	00		 lea	 ecx, DWORD PTR [edi+1752]
  002f4	e8 00 00 00 00	 call	 ??1CButton@@UAE@XZ	; CButton::~CButton
  002f9	8d 8f d4 06 00
	00		 lea	 ecx, DWORD PTR [edi+1748]
  002ff	ff 15 00 00 00
	00		 call	 DWORD PTR __imp_??1?$CStringT@DV?$StrTraitMFC_DLL@DV?$ChTraitsCRT@D@ATL@@@@@ATL@@QAE@XZ
  00305	8d 8f d0 06 00
	00		 lea	 ecx, DWORD PTR [edi+1744]
  0030b	ff 15 00 00 00
	00		 call	 DWORD PTR __imp_??1?$CStringT@DV?$StrTraitMFC_DLL@DV?$ChTraitsCRT@D@ATL@@@@@ATL@@QAE@XZ
  00311	8d 8f 48 06 00
	00		 lea	 ecx, DWORD PTR [edi+1608]
  00317	e8 00 00 00 00	 call	 ??1CButton@@UAE@XZ	; CButton::~CButton
  0031c	8d 8f 44 06 00
	00		 lea	 ecx, DWORD PTR [edi+1604]
  00322	ff 15 00 00 00
	00		 call	 DWORD PTR __imp_??1?$CStringT@DV?$StrTraitMFC_DLL@DV?$ChTraitsCRT@D@ATL@@@@@ATL@@QAE@XZ
  00328	8d 8f 40 06 00
	00		 lea	 ecx, DWORD PTR [edi+1600]
  0032e	ff 15 00 00 00
	00		 call	 DWORD PTR __imp_??1?$CStringT@DV?$StrTraitMFC_DLL@DV?$ChTraitsCRT@D@ATL@@@@@ATL@@QAE@XZ
  00334	8d 8f b8 05 00
	00		 lea	 ecx, DWORD PTR [edi+1464]
  0033a	e8 00 00 00 00	 call	 ??1CButton@@UAE@XZ	; CButton::~CButton
  0033f	8d 8f b4 05 00
	00		 lea	 ecx, DWORD PTR [edi+1460]
  00345	ff 15 00 00 00
	00		 call	 DWORD PTR __imp_??1?$CStringT@DV?$StrTraitMFC_DLL@DV?$ChTraitsCRT@D@ATL@@@@@ATL@@QAE@XZ
  0034b	8d 8f b0 05 00
	00		 lea	 ecx, DWORD PTR [edi+1456]
  00351	ff 15 00 00 00
	00		 call	 DWORD PTR __imp_??1?$CStringT@DV?$StrTraitMFC_DLL@DV?$ChTraitsCRT@D@ATL@@@@@ATL@@QAE@XZ
  00357	8d 8f 28 05 00
	00		 lea	 ecx, DWORD PTR [edi+1320]
  0035d	e8 00 00 00 00	 call	 ??1CButton@@UAE@XZ	; CButton::~CButton
  00362	8d 8f 24 05 00
	00		 lea	 ecx, DWORD PTR [edi+1316]
  00368	ff 15 00 00 00
	00		 call	 DWORD PTR __imp_??1?$CStringT@DV?$StrTraitMFC_DLL@DV?$ChTraitsCRT@D@ATL@@@@@ATL@@QAE@XZ
  0036e	8d 8f 20 05 00
	00		 lea	 ecx, DWORD PTR [edi+1312]
  00374	ff 15 00 00 00
	00		 call	 DWORD PTR __imp_??1?$CStringT@DV?$StrTraitMFC_DLL@DV?$ChTraitsCRT@D@ATL@@@@@ATL@@QAE@XZ
  0037a	8d 8f 98 04 00
	00		 lea	 ecx, DWORD PTR [edi+1176]
  00380	e8 00 00 00 00	 call	 ??1CButton@@UAE@XZ	; CButton::~CButton
  00385	8d 8f 94 04 00
	00		 lea	 ecx, DWORD PTR [edi+1172]
  0038b	ff 15 00 00 00
	00		 call	 DWORD PTR __imp_??1?$CStringT@DV?$StrTraitMFC_DLL@DV?$ChTraitsCRT@D@ATL@@@@@ATL@@QAE@XZ
  00391	8d 8f 90 04 00
	00		 lea	 ecx, DWORD PTR [edi+1168]
  00397	ff 15 00 00 00
	00		 call	 DWORD PTR __imp_??1?$CStringT@DV?$StrTraitMFC_DLL@DV?$ChTraitsCRT@D@ATL@@@@@ATL@@QAE@XZ
  0039d	8d 8f 08 04 00
	00		 lea	 ecx, DWORD PTR [edi+1032]
  003a3	e8 00 00 00 00	 call	 ??1CButton@@UAE@XZ	; CButton::~CButton
  003a8	8d 8f 04 04 00
	00		 lea	 ecx, DWORD PTR [edi+1028]
  003ae	ff 15 00 00 00
	00		 call	 DWORD PTR __imp_??1?$CStringT@DV?$StrTraitMFC_DLL@DV?$ChTraitsCRT@D@ATL@@@@@ATL@@QAE@XZ
  003b4	8d 8f 00 04 00
	00		 lea	 ecx, DWORD PTR [edi+1024]
  003ba	ff 15 00 00 00
	00		 call	 DWORD PTR __imp_??1?$CStringT@DV?$StrTraitMFC_DLL@DV?$ChTraitsCRT@D@ATL@@@@@ATL@@QAE@XZ
  003c0	8d 8f 78 03 00
	00		 lea	 ecx, DWORD PTR [edi+888]
  003c6	e8 00 00 00 00	 call	 ??1CButton@@UAE@XZ	; CButton::~CButton
  003cb	8d 8f 74 03 00
	00		 lea	 ecx, DWORD PTR [edi+884]
  003d1	ff 15 00 00 00
	00		 call	 DWORD PTR __imp_??1?$CStringT@DV?$StrTraitMFC_DLL@DV?$ChTraitsCRT@D@ATL@@@@@ATL@@QAE@XZ
  003d7	8d 8f 70 03 00
	00		 lea	 ecx, DWORD PTR [edi+880]
  003dd	ff 15 00 00 00
	00		 call	 DWORD PTR __imp_??1?$CStringT@DV?$StrTraitMFC_DLL@DV?$ChTraitsCRT@D@ATL@@@@@ATL@@QAE@XZ
  003e3	8d 8f e8 02 00
	00		 lea	 ecx, DWORD PTR [edi+744]
  003e9	e8 00 00 00 00	 call	 ??1CButton@@UAE@XZ	; CButton::~CButton
  003ee	8d 8f e4 02 00
	00		 lea	 ecx, DWORD PTR [edi+740]
  003f4	ff 15 00 00 00
	00		 call	 DWORD PTR __imp_??1?$CStringT@DV?$StrTraitMFC_DLL@DV?$ChTraitsCRT@D@ATL@@@@@ATL@@QAE@XZ
  003fa	8d 8f e0 02 00
	00		 lea	 ecx, DWORD PTR [edi+736]
  00400	ff 15 00 00 00
	00		 call	 DWORD PTR __imp_??1?$CStringT@DV?$StrTraitMFC_DLL@DV?$ChTraitsCRT@D@ATL@@@@@ATL@@QAE@XZ
  00406	8d 8f 58 02 00
	00		 lea	 ecx, DWORD PTR [edi+600]
  0040c	e8 00 00 00 00	 call	 ??1CButton@@UAE@XZ	; CButton::~CButton
  00411	8d 8f 54 02 00
	00		 lea	 ecx, DWORD PTR [edi+596]
  00417	ff 15 00 00 00
	00		 call	 DWORD PTR __imp_??1?$CStringT@DV?$StrTraitMFC_DLL@DV?$ChTraitsCRT@D@ATL@@@@@ATL@@QAE@XZ
  0041d	8d 8f 50 02 00
	00		 lea	 ecx, DWORD PTR [edi+592]
  00423	ff 15 00 00 00
	00		 call	 DWORD PTR __imp_??1?$CStringT@DV?$StrTraitMFC_DLL@DV?$ChTraitsCRT@D@ATL@@@@@ATL@@QAE@XZ
  00429	8d 8f c8 01 00
	00		 lea	 ecx, DWORD PTR [edi+456]
  0042f	e8 00 00 00 00	 call	 ??1CButton@@UAE@XZ	; CButton::~CButton
  00434	8d 8f c4 01 00
	00		 lea	 ecx, DWORD PTR [edi+452]
  0043a	ff 15 00 00 00
	00		 call	 DWORD PTR __imp_??1?$CStringT@DV?$StrTraitMFC_DLL@DV?$ChTraitsCRT@D@ATL@@@@@ATL@@QAE@XZ
  00440	8d 8f c0 01 00
	00		 lea	 ecx, DWORD PTR [edi+448]
  00446	ff 15 00 00 00
	00		 call	 DWORD PTR __imp_??1?$CStringT@DV?$StrTraitMFC_DLL@DV?$ChTraitsCRT@D@ATL@@@@@ATL@@QAE@XZ
  0044c	8d 8f 38 01 00
	00		 lea	 ecx, DWORD PTR [edi+312]
  00452	e8 00 00 00 00	 call	 ??1CButton@@UAE@XZ	; CButton::~CButton
  00457	8d 8f 34 01 00
	00		 lea	 ecx, DWORD PTR [edi+308]
  0045d	ff 15 00 00 00
	00		 call	 DWORD PTR __imp_??1?$CStringT@DV?$StrTraitMFC_DLL@DV?$ChTraitsCRT@D@ATL@@@@@ATL@@QAE@XZ
  00463	8d 8f 30 01 00
	00		 lea	 ecx, DWORD PTR [edi+304]
  00469	ff 15 00 00 00
	00		 call	 DWORD PTR __imp_??1?$CStringT@DV?$StrTraitMFC_DLL@DV?$ChTraitsCRT@D@ATL@@@@@ATL@@QAE@XZ
  0046f	8d 8f a8 00 00
	00		 lea	 ecx, DWORD PTR [edi+168]
  00475	e8 00 00 00 00	 call	 ??1CButton@@UAE@XZ	; CButton::~CButton
  0047a	8b cf		 mov	 ecx, edi
  0047c	5f		 pop	 edi
  0047d	5e		 pop	 esi
  0047e	e9 00 00 00 00	 jmp	 ??1CDialog@@UAE@XZ	; CDialog::~CDialog
??1CSymbolDlg@@UAE@XZ ENDP				; CSymbolDlg::~CSymbolDlg
_TEXT	ENDS
; Function compile flags: /Ogtp
; File D:\git\src\IBK\IBK_DRFN\ProjSrc\SrcChartEx\ChartAddIn\ChartAnalysisToolAddIn\Symbol\SymbolDlg.cpp
; File C:\Program Files (x86)\Microsoft Visual Studio\2019\Community\VC\Tools\MSVC\14.29.30133\atlmfc\include\afxwin2.inl
; File D:\git\src\IBK\IBK_DRFN\ProjSrc\SrcChartEx\ChartAddIn\ChartAnalysisToolAddIn\Symbol\SymbolDlg.cpp
; File C:\Program Files (x86)\Microsoft Visual Studio\2019\Community\VC\Tools\MSVC\14.29.30133\atlmfc\include\afxwin2.inl
; File D:\git\src\IBK\IBK_DRFN\ProjSrc\SrcChartEx\ChartAddIn\ChartAnalysisToolAddIn\Symbol\SymbolDlg.cpp
; File C:\Program Files (x86)\Microsoft Visual Studio\2019\Community\VC\Tools\MSVC\14.29.30133\atlmfc\include\afxwin2.inl
; File D:\git\src\IBK\IBK_DRFN\ProjSrc\SrcChartEx\ChartAddIn\ChartAnalysisToolAddIn\Symbol\SymbolDlg.cpp
; File C:\Program Files (x86)\Microsoft Visual Studio\2019\Community\VC\Tools\MSVC\14.29.30133\atlmfc\include\afxwin2.inl
; File D:\git\src\IBK\IBK_DRFN\ProjSrc\SrcChartEx\ChartAddIn\ChartAnalysisToolAddIn\Symbol\SymbolDlg.cpp
;	COMDAT ?SetBuletType@CSymbolDlg@@AAEXW4TOOLTYPE@CSymbolBaseData@@PAVCDynamicBitmapLoadButton@@@Z
_TEXT	SEGMENT
_bulettype$ = 8						; size = 4
_pcurrentButton$ = 12					; size = 4
?SetBuletType@CSymbolDlg@@AAEXW4TOOLTYPE@CSymbolBaseData@@PAVCDynamicBitmapLoadButton@@@Z PROC ; CSymbolDlg::SetBuletType, COMDAT
; _this$ = ecx

; 476  : {

  00000	55		 push	 ebp
  00001	8b ec		 mov	 ebp, esp
  00003	56		 push	 esi
  00004	8b f1		 mov	 esi, ecx
  00006	57		 push	 edi

; 477  : 	CDynamicBitmapLoadButton* pButton = GetButtonType(m_pSymbolData->GetBuletType());

  00007	8b 8e d4 13 00
	00		 mov	 ecx, DWORD PTR [esi+5076]
  0000d	e8 00 00 00 00	 call	 ?GetBuletType@CSymbolData@@QBE?AW4TOOLTYPE@CSymbolBaseData@@XZ ; CSymbolData::GetBuletType
  00012	50		 push	 eax
  00013	8b ce		 mov	 ecx, esi
  00015	e8 00 00 00 00	 call	 ?GetButtonType@CSymbolDlg@@AAEPAVCDynamicBitmapLoadButton@@W4TOOLTYPE@CSymbolBaseData@@@Z ; CSymbolDlg::GetButtonType
  0001a	8b f8		 mov	 edi, eax

; 478  : 	if(pButton != NULL)

  0001c	85 ff		 test	 edi, edi
  0001e	74 25		 je	 SHORT $LN13@SetBuletTy
; File C:\Program Files (x86)\Microsoft Visual Studio\2019\Community\VC\Tools\MSVC\14.29.30133\atlmfc\include\afxwin2.inl

; 632  : 	{ ASSERT(::IsWindow(m_hWnd)); return (UINT)GetWindowLong(m_hWnd, GWL_STYLE) & 0xFFFF; }

  00020	6a f0		 push	 -16			; fffffff0H
  00022	ff 77 20	 push	 DWORD PTR [edi+32]
  00025	ff 15 00 00 00
	00		 call	 DWORD PTR __imp__GetWindowLongA@8

; 634  : 	{ ASSERT(::IsWindow(m_hWnd)); ::SendMessage(m_hWnd, BM_SETSTYLE, nStyle, (LPARAM)bRedraw); }

  0002b	6a 01		 push	 1
; File D:\git\src\IBK\IBK_DRFN\ProjSrc\SrcChartEx\ChartAddIn\ChartAnalysisToolAddIn\Symbol\SymbolDlg.cpp

; 479  : 		pButton->SetButtonStyle(pButton->GetButtonStyle() & ~BS_DEFPUSHBUTTON);

  0002d	25 fe ff 00 00	 and	 eax, 65534		; 0000fffeH
; File C:\Program Files (x86)\Microsoft Visual Studio\2019\Community\VC\Tools\MSVC\14.29.30133\atlmfc\include\afxwin2.inl

; 634  : 	{ ASSERT(::IsWindow(m_hWnd)); ::SendMessage(m_hWnd, BM_SETSTYLE, nStyle, (LPARAM)bRedraw); }

  00032	50		 push	 eax
  00033	68 f4 00 00 00	 push	 244			; 000000f4H
  00038	ff 77 20	 push	 DWORD PTR [edi+32]
  0003b	8b 3d 00 00 00
	00		 mov	 edi, DWORD PTR __imp__SendMessageA@16
  00041	ff d7		 call	 edi
; File D:\git\src\IBK\IBK_DRFN\ProjSrc\SrcChartEx\ChartAddIn\ChartAnalysisToolAddIn\Symbol\SymbolDlg.cpp

; 478  : 	if(pButton != NULL)

  00043	eb 06		 jmp	 SHORT $LN2@SetBuletTy
$LN13@SetBuletTy:
  00045	8b 3d 00 00 00
	00		 mov	 edi, DWORD PTR __imp__SendMessageA@16
$LN2@SetBuletTy:

; 480  : 
; 481  : 	m_pSymbolData->SetBuletType(bulettype);	

  0004b	ff 75 08	 push	 DWORD PTR _bulettype$[ebp]
  0004e	8b 8e d4 13 00
	00		 mov	 ecx, DWORD PTR [esi+5076]
  00054	e8 00 00 00 00	 call	 ?SetBuletType@CSymbolData@@QAEXW4TOOLTYPE@CSymbolBaseData@@@Z ; CSymbolData::SetBuletType

; 482  : 	m_PreView_Static.ModifySymbolType(m_pSymbolData->GetBuletType());

  00059	8b 8e d4 13 00
	00		 mov	 ecx, DWORD PTR [esi+5076]
  0005f	e8 00 00 00 00	 call	 ?GetBuletType@CSymbolData@@QBE?AW4TOOLTYPE@CSymbolBaseData@@XZ ; CSymbolData::GetBuletType
  00064	50		 push	 eax
  00065	8d 8e 88 11 00
	00		 lea	 ecx, DWORD PTR [esi+4488]
  0006b	e8 00 00 00 00	 call	 ?ModifySymbolType@CPreView@@QAEXW4TOOLTYPE@CSymbolBaseData@@@Z ; CPreView::ModifySymbolType

; 483  : 
; 484  : 	if(pcurrentButton != NULL)

  00070	8b 75 0c	 mov	 esi, DWORD PTR _pcurrentButton$[ebp]
  00073	85 f6		 test	 esi, esi
  00075	74 20		 je	 SHORT $LN3@SetBuletTy
; File C:\Program Files (x86)\Microsoft Visual Studio\2019\Community\VC\Tools\MSVC\14.29.30133\atlmfc\include\afxwin2.inl

; 632  : 	{ ASSERT(::IsWindow(m_hWnd)); return (UINT)GetWindowLong(m_hWnd, GWL_STYLE) & 0xFFFF; }

  00077	6a f0		 push	 -16			; fffffff0H
  00079	ff 76 20	 push	 DWORD PTR [esi+32]
  0007c	ff 15 00 00 00
	00		 call	 DWORD PTR __imp__GetWindowLongA@8
  00082	25 fe ff 00 00	 and	 eax, 65534		; 0000fffeH

; 634  : 	{ ASSERT(::IsWindow(m_hWnd)); ::SendMessage(m_hWnd, BM_SETSTYLE, nStyle, (LPARAM)bRedraw); }

  00087	6a 01		 push	 1
; File D:\git\src\IBK\IBK_DRFN\ProjSrc\SrcChartEx\ChartAddIn\ChartAnalysisToolAddIn\Symbol\SymbolDlg.cpp

; 485  : 		pcurrentButton->SetButtonStyle(pcurrentButton->GetButtonStyle() | BS_DEFPUSHBUTTON);

  00089	83 c8 01	 or	 eax, 1
; File C:\Program Files (x86)\Microsoft Visual Studio\2019\Community\VC\Tools\MSVC\14.29.30133\atlmfc\include\afxwin2.inl

; 634  : 	{ ASSERT(::IsWindow(m_hWnd)); ::SendMessage(m_hWnd, BM_SETSTYLE, nStyle, (LPARAM)bRedraw); }

  0008c	50		 push	 eax
  0008d	68 f4 00 00 00	 push	 244			; 000000f4H
  00092	ff 76 20	 push	 DWORD PTR [esi+32]
  00095	ff d7		 call	 edi
$LN3@SetBuletTy:
  00097	5f		 pop	 edi
; File D:\git\src\IBK\IBK_DRFN\ProjSrc\SrcChartEx\ChartAddIn\ChartAnalysisToolAddIn\Symbol\SymbolDlg.cpp

; 486  : }

  00098	5e		 pop	 esi
  00099	5d		 pop	 ebp
  0009a	c2 08 00	 ret	 8
?SetBuletType@CSymbolDlg@@AAEXW4TOOLTYPE@CSymbolBaseData@@PAVCDynamicBitmapLoadButton@@@Z ENDP ; CSymbolDlg::SetBuletType
_TEXT	ENDS
; Function compile flags: /Ogtp
; File D:\git\src\IBK\IBK_DRFN\ProjSrc\SrcChartEx\ChartAddIn\ChartAnalysisToolAddIn\Symbol\SymbolDlg.cpp
;	COMDAT ?GetButtonType@CSymbolDlg@@AAEPAVCDynamicBitmapLoadButton@@W4TOOLTYPE@CSymbolBaseData@@@Z
_TEXT	SEGMENT
_bulettype$ = 8						; size = 4
?GetButtonType@CSymbolDlg@@AAEPAVCDynamicBitmapLoadButton@@W4TOOLTYPE@CSymbolBaseData@@@Z PROC ; CSymbolDlg::GetButtonType, COMDAT
; _this$ = ecx

; 489  : {

  00000	55		 push	 ebp
  00001	8b ec		 mov	 ebp, esp

; 490  : 	switch(bulettype) {

  00003	8b 45 08	 mov	 eax, DWORD PTR _bulettype$[ebp]
  00006	83 c0 f9	 add	 eax, -7			; fffffff9H
  00009	83 f8 1f	 cmp	 eax, 31			; 0000001fH
  0000c	0f 87 47 01 00
	00		 ja	 $LN2@GetButtonT
  00012	ff 24 85 00 00
	00 00		 jmp	 DWORD PTR $LN37@GetButtonT[eax*4]
$LN4@GetButtonT:

; 491  : 	case CSymbolBaseData::SYMBOL_ARROW_LEFT:// 
; 492  : 		return &m_ArrowLeft_Bt;

  00019	8d 81 40 13 00
	00		 lea	 eax, DWORD PTR [ecx+4928]

; 557  : }

  0001f	5d		 pop	 ebp
  00020	c2 04 00	 ret	 4
$LN5@GetButtonT:

; 493  : 	case CSymbolBaseData::SYMBOL_ARROW_RIGHT:// 
; 494  : 		return &m_ArrowRight_Bt;

  00023	8d 81 b0 12 00
	00		 lea	 eax, DWORD PTR [ecx+4784]

; 557  : }

  00029	5d		 pop	 ebp
  0002a	c2 04 00	 ret	 4
$LN6@GetButtonT:

; 495  : 	case CSymbolBaseData::SYMBOL_ARROW_UP:// 
; 496  : 		return &m_ArrowUp_Bt;

  0002d	8d 81 28 0e 00
	00		 lea	 eax, DWORD PTR [ecx+3624]

; 557  : }

  00033	5d		 pop	 ebp
  00034	c2 04 00	 ret	 4
$LN7@GetButtonT:

; 497  : 	case CSymbolBaseData::SYMBOL_ARROW_DOWN:// 
; 498  : 		return &m_ArrowDown_Bt;

  00037	8d 81 f8 10 00
	00		 lea	 eax, DWORD PTR [ecx+4344]

; 557  : }

  0003d	5d		 pop	 ebp
  0003e	c2 04 00	 ret	 4
$LN8@GetButtonT:

; 499  : 	case CSymbolBaseData::SYMBOL_ARROW_LEFTTOP://   
; 500  : 		return &m_ArrowLeftTop_Bt;

  00041	8d 81 68 10 00
	00		 lea	 eax, DWORD PTR [ecx+4200]

; 557  : }

  00047	5d		 pop	 ebp
  00048	c2 04 00	 ret	 4
$LN9@GetButtonT:

; 501  : 	case CSymbolBaseData::SYMBOL_ARROW_LEFTBOTTOM://   
; 502  : 		return &m_ArrowLeftBottom_Bt;

  0004b	8d 81 d8 0f 00
	00		 lea	 eax, DWORD PTR [ecx+4056]

; 557  : }

  00051	5d		 pop	 ebp
  00052	c2 04 00	 ret	 4
$LN10@GetButtonT:

; 503  : 	case CSymbolBaseData::SYMBOL_ARROW_RIGHTTOP://   
; 504  : 		return &m_ArrowRightTop_Bt;

  00055	8d 81 b8 0e 00
	00		 lea	 eax, DWORD PTR [ecx+3768]

; 557  : }

  0005b	5d		 pop	 ebp
  0005c	c2 04 00	 ret	 4
$LN11@GetButtonT:

; 505  : 	case CSymbolBaseData::SYMBOL_ARROW_RIGHTBOTTOM://   
; 506  : 		return &m_ArrowRightBottom_Bt;

  0005f	8d 81 48 0f 00
	00		 lea	 eax, DWORD PTR [ecx+3912]

; 557  : }

  00065	5d		 pop	 ebp
  00066	c2 04 00	 ret	 4
$LN12@GetButtonT:

; 507  : 	case CSymbolBaseData::SYMBOL_NUM_ONE:// 1
; 508  : 		return &m_NumOne_Bt;

  00069	8d 81 a8 09 00
	00		 lea	 eax, DWORD PTR [ecx+2472]

; 557  : }

  0006f	5d		 pop	 ebp
  00070	c2 04 00	 ret	 4
$LN13@GetButtonT:

; 509  : 	case CSymbolBaseData::SYMBOL_NUM_TWO: //2
; 510  : 		return &m_NumTwo_Bt;

  00073	8d 81 88 08 00
	00		 lea	 eax, DWORD PTR [ecx+2184]

; 557  : }

  00079	5d		 pop	 ebp
  0007a	c2 04 00	 ret	 4
$LN14@GetButtonT:

; 511  : 	case CSymbolBaseData::SYMBOL_NUM_THREE://3
; 512  : 		return &m_NumThree_Bt;

  0007d	8d 81 18 09 00
	00		 lea	 eax, DWORD PTR [ecx+2328]

; 557  : }

  00083	5d		 pop	 ebp
  00084	c2 04 00	 ret	 4
$LN15@GetButtonT:

; 513  : 	case CSymbolBaseData::SYMBOL_NUM_FOUR://4
; 514  : 		return &m_NumFour_Bt;

  00087	8d 81 38 0a 00
	00		 lea	 eax, DWORD PTR [ecx+2616]

; 557  : }

  0008d	5d		 pop	 ebp
  0008e	c2 04 00	 ret	 4
$LN16@GetButtonT:

; 515  : 	case CSymbolBaseData::SYMBOL_NUM_FIVE:  //5
; 516  : 		return &m_NumFive_Bt;

  00091	8d 81 c8 0a 00
	00		 lea	 eax, DWORD PTR [ecx+2760]

; 557  : }

  00097	5d		 pop	 ebp
  00098	c2 04 00	 ret	 4
$LN17@GetButtonT:

; 517  : 	case CSymbolBaseData::SYMBOL_NUM_SIX:  //6
; 518  : 		return &m_NumSix_Bt;

  0009b	8d 81 58 0b 00
	00		 lea	 eax, DWORD PTR [ecx+2904]

; 557  : }

  000a1	5d		 pop	 ebp
  000a2	c2 04 00	 ret	 4
$LN18@GetButtonT:

; 519  : 	case CSymbolBaseData::SYMBOL_NUM_SEVEN:  //7
; 520  : 		return &m_NumSeven_Bt;

  000a5	8d 81 e8 0b 00
	00		 lea	 eax, DWORD PTR [ecx+3048]

; 557  : }

  000ab	5d		 pop	 ebp
  000ac	c2 04 00	 ret	 4
$LN19@GetButtonT:

; 521  : 	case CSymbolBaseData::SYMBOL_NUM_EIGHT:  //8
; 522  : 		return &m_NumEight_Bt;

  000af	8d 81 78 0c 00
	00		 lea	 eax, DWORD PTR [ecx+3192]

; 557  : }

  000b5	5d		 pop	 ebp
  000b6	c2 04 00	 ret	 4
$LN20@GetButtonT:

; 523  : 	case CSymbolBaseData::SYMBOL_NUM_NINE:  //9
; 524  : 		return &m_NumNine_Bt;

  000b9	8d 81 08 0d 00
	00		 lea	 eax, DWORD PTR [ecx+3336]

; 557  : }

  000bf	5d		 pop	 ebp
  000c0	c2 04 00	 ret	 4
$LN21@GetButtonT:

; 525  : 	case CSymbolBaseData::SYMBOL_NUM_TEN:  //10
; 526  : 		return &m_NumTen_Bt;

  000c3	8d 81 98 0d 00
	00		 lea	 eax, DWORD PTR [ecx+3480]

; 557  : }

  000c9	5d		 pop	 ebp
  000ca	c2 04 00	 ret	 4
$LN22@GetButtonT:

; 527  : 	case CSymbolBaseData::SYMBOL_TEXT_A: //a
; 528  : 		return &m_Text_A_Bt;

  000cd	8d 81 f8 07 00
	00		 lea	 eax, DWORD PTR [ecx+2040]

; 557  : }

  000d3	5d		 pop	 ebp
  000d4	c2 04 00	 ret	 4
$LN23@GetButtonT:

; 529  : 	case CSymbolBaseData::SYMBOL_TEXT_B: //b
; 530  : 		return &m_Text_B_Bt;

  000d7	8d 81 68 07 00
	00		 lea	 eax, DWORD PTR [ecx+1896]

; 557  : }

  000dd	5d		 pop	 ebp
  000de	c2 04 00	 ret	 4
$LN24@GetButtonT:

; 531  : 	case CSymbolBaseData::SYMBOL_TEXT_C: //c
; 532  : 		return &m_Text_C_Bt;

  000e1	8d 81 d8 06 00
	00		 lea	 eax, DWORD PTR [ecx+1752]

; 557  : }

  000e7	5d		 pop	 ebp
  000e8	c2 04 00	 ret	 4
$LN25@GetButtonT:

; 533  : 	case CSymbolBaseData::SYMBOL_TEXT_D: //d
; 534  : 		return &m_Text_D_Bt;

  000eb	8d 81 48 06 00
	00		 lea	 eax, DWORD PTR [ecx+1608]

; 557  : }

  000f1	5d		 pop	 ebp
  000f2	c2 04 00	 ret	 4
$LN26@GetButtonT:

; 535  : 	case CSymbolBaseData::SYMBOL_TEXT_E: //e
; 536  : 		return &m_Text_E_Bt;

  000f5	8d 81 b8 05 00
	00		 lea	 eax, DWORD PTR [ecx+1464]

; 557  : }

  000fb	5d		 pop	 ebp
  000fc	c2 04 00	 ret	 4
$LN27@GetButtonT:

; 537  : 	case CSymbolBaseData::SYMBOL_TEXT_F: //f
; 538  : 		return &m_Text_F_Bt;

  000ff	8d 81 28 05 00
	00		 lea	 eax, DWORD PTR [ecx+1320]

; 557  : }

  00105	5d		 pop	 ebp
  00106	c2 04 00	 ret	 4
$LN28@GetButtonT:

; 539  : 	case CSymbolBaseData::SYMBOL_TEXT_G: //g
; 540  : 		return &m_Text_G_Bt;

  00109	8d 81 98 04 00
	00		 lea	 eax, DWORD PTR [ecx+1176]

; 557  : }

  0010f	5d		 pop	 ebp
  00110	c2 04 00	 ret	 4
$LN29@GetButtonT:

; 541  : 	case CSymbolBaseData::SYMBOL_TEXT_H: //h
; 542  : 		return &m_Text_H_Bt;

  00113	8d 81 08 04 00
	00		 lea	 eax, DWORD PTR [ecx+1032]

; 557  : }

  00119	5d		 pop	 ebp
  0011a	c2 04 00	 ret	 4
$LN30@GetButtonT:

; 543  : 	case CSymbolBaseData::SYMBOL_CHAR_1: //
; 544  : 		return &m_Char_1_Bt;

  0011d	8d 81 a8 00 00
	00		 lea	 eax, DWORD PTR [ecx+168]

; 557  : }

  00123	5d		 pop	 ebp
  00124	c2 04 00	 ret	 4
$LN31@GetButtonT:

; 545  : 	case CSymbolBaseData::SYMBOL_CHAR_2: //
; 546  : 		return &m_Char_2_Bt;

  00127	8d 81 38 01 00
	00		 lea	 eax, DWORD PTR [ecx+312]

; 557  : }

  0012d	5d		 pop	 ebp
  0012e	c2 04 00	 ret	 4
$LN32@GetButtonT:

; 547  : 	case CSymbolBaseData::SYMBOL_CHAR_3: //
; 548  : 		return &m_Char_3_Bt;

  00131	8d 81 c8 01 00
	00		 lea	 eax, DWORD PTR [ecx+456]

; 557  : }

  00137	5d		 pop	 ebp
  00138	c2 04 00	 ret	 4
$LN33@GetButtonT:

; 549  : 	case CSymbolBaseData::SYMBOL_CHAR_4: //
; 550  : 		return &m_Char_4_Bt;

  0013b	8d 81 58 02 00
	00		 lea	 eax, DWORD PTR [ecx+600]

; 557  : }

  00141	5d		 pop	 ebp
  00142	c2 04 00	 ret	 4
$LN34@GetButtonT:

; 551  : 	case CSymbolBaseData::SYMBOL_CHAR_5: //
; 552  : 		return &m_Char_5_Bt;

  00145	8d 81 e8 02 00
	00		 lea	 eax, DWORD PTR [ecx+744]

; 557  : }

  0014b	5d		 pop	 ebp
  0014c	c2 04 00	 ret	 4
$LN35@GetButtonT:

; 553  : 	case CSymbolBaseData::SYMBOL_CHAR_6: //
; 554  : 		return &m_Char_6_Bt;

  0014f	8d 81 78 03 00
	00		 lea	 eax, DWORD PTR [ecx+888]

; 557  : }

  00155	5d		 pop	 ebp
  00156	c2 04 00	 ret	 4
$LN2@GetButtonT:

; 555  : 	}
; 556  : 	return NULL;

  00159	33 c0		 xor	 eax, eax

; 557  : }

  0015b	5d		 pop	 ebp
  0015c	c2 04 00	 ret	 4
  0015f	90		 npad	 1
$LN37@GetButtonT:
  00160	00 00 00 00	 DD	 $LN4@GetButtonT
  00164	00 00 00 00	 DD	 $LN5@GetButtonT
  00168	00 00 00 00	 DD	 $LN6@GetButtonT
  0016c	00 00 00 00	 DD	 $LN7@GetButtonT
  00170	00 00 00 00	 DD	 $LN8@GetButtonT
  00174	00 00 00 00	 DD	 $LN9@GetButtonT
  00178	00 00 00 00	 DD	 $LN10@GetButtonT
  0017c	00 00 00 00	 DD	 $LN11@GetButtonT
  00180	00 00 00 00	 DD	 $LN12@GetButtonT
  00184	00 00 00 00	 DD	 $LN13@GetButtonT
  00188	00 00 00 00	 DD	 $LN14@GetButtonT
  0018c	00 00 00 00	 DD	 $LN15@GetButtonT
  00190	00 00 00 00	 DD	 $LN16@GetButtonT
  00194	00 00 00 00	 DD	 $LN17@GetButtonT
  00198	00 00 00 00	 DD	 $LN18@GetButtonT
  0019c	00 00 00 00	 DD	 $LN19@GetButtonT
  001a0	00 00 00 00	 DD	 $LN20@GetButtonT
  001a4	00 00 00 00	 DD	 $LN21@GetButtonT
  001a8	00 00 00 00	 DD	 $LN22@GetButtonT
  001ac	00 00 00 00	 DD	 $LN23@GetButtonT
  001b0	00 00 00 00	 DD	 $LN24@GetButtonT
  001b4	00 00 00 00	 DD	 $LN25@GetButtonT
  001b8	00 00 00 00	 DD	 $LN26@GetButtonT
  001bc	00 00 00 00	 DD	 $LN27@GetButtonT
  001c0	00 00 00 00	 DD	 $LN28@GetButtonT
  001c4	00 00 00 00	 DD	 $LN29@GetButtonT
  001c8	00 00 00 00	 DD	 $LN30@GetButtonT
  001cc	00 00 00 00	 DD	 $LN31@GetButtonT
  001d0	00 00 00 00	 DD	 $LN32@GetButtonT
  001d4	00 00 00 00	 DD	 $LN33@GetButtonT
  001d8	00 00 00 00	 DD	 $LN34@GetButtonT
  001dc	00 00 00 00	 DD	 $LN35@GetButtonT
?GetButtonType@CSymbolDlg@@AAEPAVCDynamicBitmapLoadButton@@W4TOOLTYPE@CSymbolBaseData@@@Z ENDP ; CSymbolDlg::GetButtonType
_TEXT	ENDS
; Function compile flags: /Ogtp
; File D:\git\src\IBK\IBK_DRFN\ProjSrc\SrcChartEx\ChartAddIn\ChartAnalysisToolAddIn\Symbol\SymbolDlg.cpp
;	COMDAT ?SetToggle@CSymbolDlg@@AAEXPAVCWnd@@PAVCDynamicBitmapLoadButton@@@Z
_TEXT	SEGMENT
_pFocuswnd$ = 8						; size = 4
_pCurrentWnd$ = 12					; size = 4
?SetToggle@CSymbolDlg@@AAEXPAVCWnd@@PAVCDynamicBitmapLoadButton@@@Z PROC ; CSymbolDlg::SetToggle, COMDAT
; _this$ = ecx

; 560  : {

  00000	55		 push	 ebp
  00001	8b ec		 mov	 ebp, esp
  00003	53		 push	 ebx
  00004	56		 push	 esi

; 561  : 	bool state = false;
; 562  : 	if(pCurrentWnd == pFocuswnd) 

  00005	8b 75 0c	 mov	 esi, DWORD PTR _pCurrentWnd$[ebp]
  00008	32 db		 xor	 bl, bl
  0000a	57		 push	 edi
  0000b	8b f9		 mov	 edi, ecx
  0000d	3b 75 08	 cmp	 esi, DWORD PTR _pFocuswnd$[ebp]
  00010	75 09		 jne	 SHORT $LN2@SetToggle

; 563  : 		state = pCurrentWnd->GetToggleState();

  00012	8b ce		 mov	 ecx, esi
  00014	e8 00 00 00 00	 call	 ?GetToggleState@CDynamicBitmapLoadButton@@QAE_NXZ ; CDynamicBitmapLoadButton::GetToggleState
  00019	8a d8		 mov	 bl, al
$LN2@SetToggle:

; 564  : 
; 565  : 	m_Char_1_Bt.SetToggleState(FALSE);

  0001b	6a 00		 push	 0
  0001d	8d 8f a8 00 00
	00		 lea	 ecx, DWORD PTR [edi+168]
  00023	e8 00 00 00 00	 call	 ?SetToggleState@CDynamicBitmapLoadButton@@QAEX_N@Z ; CDynamicBitmapLoadButton::SetToggleState

; 566  : 	m_Char_2_Bt.SetToggleState(FALSE);

  00028	6a 00		 push	 0
  0002a	8d 8f 38 01 00
	00		 lea	 ecx, DWORD PTR [edi+312]
  00030	e8 00 00 00 00	 call	 ?SetToggleState@CDynamicBitmapLoadButton@@QAEX_N@Z ; CDynamicBitmapLoadButton::SetToggleState

; 567  : 	m_Char_3_Bt.SetToggleState(FALSE);

  00035	6a 00		 push	 0
  00037	8d 8f c8 01 00
	00		 lea	 ecx, DWORD PTR [edi+456]
  0003d	e8 00 00 00 00	 call	 ?SetToggleState@CDynamicBitmapLoadButton@@QAEX_N@Z ; CDynamicBitmapLoadButton::SetToggleState

; 568  : 	m_Char_4_Bt.SetToggleState(FALSE);

  00042	6a 00		 push	 0
  00044	8d 8f 58 02 00
	00		 lea	 ecx, DWORD PTR [edi+600]
  0004a	e8 00 00 00 00	 call	 ?SetToggleState@CDynamicBitmapLoadButton@@QAEX_N@Z ; CDynamicBitmapLoadButton::SetToggleState

; 569  : 	m_Char_5_Bt.SetToggleState(FALSE);

  0004f	6a 00		 push	 0
  00051	8d 8f e8 02 00
	00		 lea	 ecx, DWORD PTR [edi+744]
  00057	e8 00 00 00 00	 call	 ?SetToggleState@CDynamicBitmapLoadButton@@QAEX_N@Z ; CDynamicBitmapLoadButton::SetToggleState

; 570  : 	m_Char_6_Bt.SetToggleState(FALSE);

  0005c	6a 00		 push	 0
  0005e	8d 8f 78 03 00
	00		 lea	 ecx, DWORD PTR [edi+888]
  00064	e8 00 00 00 00	 call	 ?SetToggleState@CDynamicBitmapLoadButton@@QAEX_N@Z ; CDynamicBitmapLoadButton::SetToggleState

; 571  : 	m_Text_H_Bt.SetToggleState(FALSE);

  00069	6a 00		 push	 0
  0006b	8d 8f 08 04 00
	00		 lea	 ecx, DWORD PTR [edi+1032]
  00071	e8 00 00 00 00	 call	 ?SetToggleState@CDynamicBitmapLoadButton@@QAEX_N@Z ; CDynamicBitmapLoadButton::SetToggleState

; 572  : 	m_Text_G_Bt.SetToggleState(FALSE);

  00076	6a 00		 push	 0
  00078	8d 8f 98 04 00
	00		 lea	 ecx, DWORD PTR [edi+1176]
  0007e	e8 00 00 00 00	 call	 ?SetToggleState@CDynamicBitmapLoadButton@@QAEX_N@Z ; CDynamicBitmapLoadButton::SetToggleState

; 573  : 	m_Text_F_Bt.SetToggleState(FALSE);

  00083	6a 00		 push	 0
  00085	8d 8f 28 05 00
	00		 lea	 ecx, DWORD PTR [edi+1320]
  0008b	e8 00 00 00 00	 call	 ?SetToggleState@CDynamicBitmapLoadButton@@QAEX_N@Z ; CDynamicBitmapLoadButton::SetToggleState

; 574  : 	m_Text_E_Bt.SetToggleState(FALSE);

  00090	6a 00		 push	 0
  00092	8d 8f b8 05 00
	00		 lea	 ecx, DWORD PTR [edi+1464]
  00098	e8 00 00 00 00	 call	 ?SetToggleState@CDynamicBitmapLoadButton@@QAEX_N@Z ; CDynamicBitmapLoadButton::SetToggleState

; 575  : 	m_Text_D_Bt.SetToggleState(FALSE);

  0009d	6a 00		 push	 0
  0009f	8d 8f 48 06 00
	00		 lea	 ecx, DWORD PTR [edi+1608]
  000a5	e8 00 00 00 00	 call	 ?SetToggleState@CDynamicBitmapLoadButton@@QAEX_N@Z ; CDynamicBitmapLoadButton::SetToggleState

; 576  : 	m_Text_C_Bt.SetToggleState(FALSE);

  000aa	6a 00		 push	 0
  000ac	8d 8f d8 06 00
	00		 lea	 ecx, DWORD PTR [edi+1752]
  000b2	e8 00 00 00 00	 call	 ?SetToggleState@CDynamicBitmapLoadButton@@QAEX_N@Z ; CDynamicBitmapLoadButton::SetToggleState

; 577  : 	m_Text_B_Bt.SetToggleState(FALSE);

  000b7	6a 00		 push	 0
  000b9	8d 8f 68 07 00
	00		 lea	 ecx, DWORD PTR [edi+1896]
  000bf	e8 00 00 00 00	 call	 ?SetToggleState@CDynamicBitmapLoadButton@@QAEX_N@Z ; CDynamicBitmapLoadButton::SetToggleState

; 578  : 	m_Text_A_Bt.SetToggleState(FALSE);

  000c4	6a 00		 push	 0
  000c6	8d 8f f8 07 00
	00		 lea	 ecx, DWORD PTR [edi+2040]
  000cc	e8 00 00 00 00	 call	 ?SetToggleState@CDynamicBitmapLoadButton@@QAEX_N@Z ; CDynamicBitmapLoadButton::SetToggleState

; 579  : 	m_NumTwo_Bt.SetToggleState(FALSE);

  000d1	6a 00		 push	 0
  000d3	8d 8f 88 08 00
	00		 lea	 ecx, DWORD PTR [edi+2184]
  000d9	e8 00 00 00 00	 call	 ?SetToggleState@CDynamicBitmapLoadButton@@QAEX_N@Z ; CDynamicBitmapLoadButton::SetToggleState

; 580  : 	m_NumThree_Bt.SetToggleState(FALSE);

  000de	6a 00		 push	 0
  000e0	8d 8f 18 09 00
	00		 lea	 ecx, DWORD PTR [edi+2328]
  000e6	e8 00 00 00 00	 call	 ?SetToggleState@CDynamicBitmapLoadButton@@QAEX_N@Z ; CDynamicBitmapLoadButton::SetToggleState

; 581  : 	m_NumOne_Bt.SetToggleState(FALSE);

  000eb	6a 00		 push	 0
  000ed	8d 8f a8 09 00
	00		 lea	 ecx, DWORD PTR [edi+2472]
  000f3	e8 00 00 00 00	 call	 ?SetToggleState@CDynamicBitmapLoadButton@@QAEX_N@Z ; CDynamicBitmapLoadButton::SetToggleState

; 582  : 	m_NumFour_Bt.SetToggleState(FALSE);

  000f8	6a 00		 push	 0
  000fa	8d 8f 38 0a 00
	00		 lea	 ecx, DWORD PTR [edi+2616]
  00100	e8 00 00 00 00	 call	 ?SetToggleState@CDynamicBitmapLoadButton@@QAEX_N@Z ; CDynamicBitmapLoadButton::SetToggleState

; 583  : 	m_NumFive_Bt.SetToggleState(FALSE);

  00105	6a 00		 push	 0
  00107	8d 8f c8 0a 00
	00		 lea	 ecx, DWORD PTR [edi+2760]
  0010d	e8 00 00 00 00	 call	 ?SetToggleState@CDynamicBitmapLoadButton@@QAEX_N@Z ; CDynamicBitmapLoadButton::SetToggleState

; 584  : 	m_NumSix_Bt.SetToggleState(FALSE);

  00112	6a 00		 push	 0
  00114	8d 8f 58 0b 00
	00		 lea	 ecx, DWORD PTR [edi+2904]
  0011a	e8 00 00 00 00	 call	 ?SetToggleState@CDynamicBitmapLoadButton@@QAEX_N@Z ; CDynamicBitmapLoadButton::SetToggleState

; 585  : 	m_NumSeven_Bt.SetToggleState(FALSE);

  0011f	6a 00		 push	 0
  00121	8d 8f e8 0b 00
	00		 lea	 ecx, DWORD PTR [edi+3048]
  00127	e8 00 00 00 00	 call	 ?SetToggleState@CDynamicBitmapLoadButton@@QAEX_N@Z ; CDynamicBitmapLoadButton::SetToggleState

; 586  : 	m_NumEight_Bt.SetToggleState(FALSE);

  0012c	6a 00		 push	 0
  0012e	8d 8f 78 0c 00
	00		 lea	 ecx, DWORD PTR [edi+3192]
  00134	e8 00 00 00 00	 call	 ?SetToggleState@CDynamicBitmapLoadButton@@QAEX_N@Z ; CDynamicBitmapLoadButton::SetToggleState

; 587  : 	m_NumNine_Bt.SetToggleState(FALSE);

  00139	6a 00		 push	 0
  0013b	8d 8f 08 0d 00
	00		 lea	 ecx, DWORD PTR [edi+3336]
  00141	e8 00 00 00 00	 call	 ?SetToggleState@CDynamicBitmapLoadButton@@QAEX_N@Z ; CDynamicBitmapLoadButton::SetToggleState

; 588  : 	m_NumTen_Bt.SetToggleState(FALSE);

  00146	6a 00		 push	 0
  00148	8d 8f 98 0d 00
	00		 lea	 ecx, DWORD PTR [edi+3480]
  0014e	e8 00 00 00 00	 call	 ?SetToggleState@CDynamicBitmapLoadButton@@QAEX_N@Z ; CDynamicBitmapLoadButton::SetToggleState

; 589  : 	m_ArrowUp_Bt.SetToggleState(FALSE);

  00153	6a 00		 push	 0
  00155	8d 8f 28 0e 00
	00		 lea	 ecx, DWORD PTR [edi+3624]
  0015b	e8 00 00 00 00	 call	 ?SetToggleState@CDynamicBitmapLoadButton@@QAEX_N@Z ; CDynamicBitmapLoadButton::SetToggleState

; 590  : 	m_ArrowRightTop_Bt.SetToggleState(FALSE);

  00160	6a 00		 push	 0
  00162	8d 8f b8 0e 00
	00		 lea	 ecx, DWORD PTR [edi+3768]
  00168	e8 00 00 00 00	 call	 ?SetToggleState@CDynamicBitmapLoadButton@@QAEX_N@Z ; CDynamicBitmapLoadButton::SetToggleState

; 591  : 	m_ArrowRightBottom_Bt.SetToggleState(FALSE);

  0016d	6a 00		 push	 0
  0016f	8d 8f 48 0f 00
	00		 lea	 ecx, DWORD PTR [edi+3912]
  00175	e8 00 00 00 00	 call	 ?SetToggleState@CDynamicBitmapLoadButton@@QAEX_N@Z ; CDynamicBitmapLoadButton::SetToggleState

; 592  : 	m_ArrowLeftBottom_Bt.SetToggleState(FALSE);

  0017a	6a 00		 push	 0
  0017c	8d 8f d8 0f 00
	00		 lea	 ecx, DWORD PTR [edi+4056]
  00182	e8 00 00 00 00	 call	 ?SetToggleState@CDynamicBitmapLoadButton@@QAEX_N@Z ; CDynamicBitmapLoadButton::SetToggleState

; 593  : 	m_ArrowLeftTop_Bt.SetToggleState(FALSE);

  00187	6a 00		 push	 0
  00189	8d 8f 68 10 00
	00		 lea	 ecx, DWORD PTR [edi+4200]
  0018f	e8 00 00 00 00	 call	 ?SetToggleState@CDynamicBitmapLoadButton@@QAEX_N@Z ; CDynamicBitmapLoadButton::SetToggleState

; 594  : 	m_ArrowDown_Bt.SetToggleState(FALSE);

  00194	6a 00		 push	 0
  00196	8d 8f f8 10 00
	00		 lea	 ecx, DWORD PTR [edi+4344]
  0019c	e8 00 00 00 00	 call	 ?SetToggleState@CDynamicBitmapLoadButton@@QAEX_N@Z ; CDynamicBitmapLoadButton::SetToggleState

; 595  : 	m_ArrowRight_Bt.SetToggleState(FALSE);

  001a1	6a 00		 push	 0
  001a3	8d 8f b0 12 00
	00		 lea	 ecx, DWORD PTR [edi+4784]
  001a9	e8 00 00 00 00	 call	 ?SetToggleState@CDynamicBitmapLoadButton@@QAEX_N@Z ; CDynamicBitmapLoadButton::SetToggleState

; 596  : 	m_ArrowLeft_Bt.SetToggleState(FALSE);

  001ae	6a 00		 push	 0
  001b0	8d 8f 40 13 00
	00		 lea	 ecx, DWORD PTR [edi+4928]
  001b6	e8 00 00 00 00	 call	 ?SetToggleState@CDynamicBitmapLoadButton@@QAEX_N@Z ; CDynamicBitmapLoadButton::SetToggleState

; 597  : 
; 598  : 	if(state) {

  001bb	8b ce		 mov	 ecx, esi
  001bd	84 db		 test	 bl, bl
  001bf	74 1b		 je	 SHORT $LN3@SetToggle

; 599  : 		pCurrentWnd->SetToggleState(false);

  001c1	6a 00		 push	 0
  001c3	e8 00 00 00 00	 call	 ?SetToggleState@CDynamicBitmapLoadButton@@QAEX_N@Z ; CDynamicBitmapLoadButton::SetToggleState

; 600  : 		m_pSymbolData->SetBuletType(CSymbolBaseData::SYMBOL_SELECTION);	

  001c8	8b 8f d4 13 00
	00		 mov	 ecx, DWORD PTR [edi+5076]
  001ce	6a 06		 push	 6
  001d0	e8 00 00 00 00	 call	 ?SetBuletType@CSymbolData@@QAEXW4TOOLTYPE@CSymbolBaseData@@@Z ; CSymbolData::SetBuletType
  001d5	5f		 pop	 edi

; 604  : }

  001d6	5e		 pop	 esi
  001d7	5b		 pop	 ebx
  001d8	5d		 pop	 ebp
  001d9	c2 08 00	 ret	 8
$LN3@SetToggle:

; 601  : 	}
; 602  : 	else 
; 603  : 		pCurrentWnd->SetToggleState(true);

  001dc	6a 01		 push	 1
  001de	e8 00 00 00 00	 call	 ?SetToggleState@CDynamicBitmapLoadButton@@QAEX_N@Z ; CDynamicBitmapLoadButton::SetToggleState
  001e3	5f		 pop	 edi

; 604  : }

  001e4	5e		 pop	 esi
  001e5	5b		 pop	 ebx
  001e6	5d		 pop	 ebp
  001e7	c2 08 00	 ret	 8
?SetToggle@CSymbolDlg@@AAEXPAVCWnd@@PAVCDynamicBitmapLoadButton@@@Z ENDP ; CSymbolDlg::SetToggle
_TEXT	ENDS
; Function compile flags: /Ogtp
; File D:\git\src\IBK\IBK_DRFN\ProjSrc\SrcChartEx\ChartAddIn\ChartAnalysisToolAddIn\Symbol\SymbolDlg.cpp
;	COMDAT ?Initial_View@CSymbolDlg@@AAEXXZ
_TEXT	SEGMENT
$T1 = -4						; size = 4
?Initial_View@CSymbolDlg@@AAEXXZ PROC			; CSymbolDlg::Initial_View, COMDAT
; _this$ = ecx

; 465  : {

  00000	55		 push	 ebp
  00001	8b ec		 mov	 ebp, esp
  00003	51		 push	 ecx
  00004	56		 push	 esi
  00005	8b f1		 mov	 esi, ecx
  00007	57		 push	 edi

; 466  : 	m_PreView_Static.SetPropertiesData(m_pSymbolData->GetPropertiesData());

  00008	8b 8e d4 13 00
	00		 mov	 ecx, DWORD PTR [esi+5076]
  0000e	8d be 88 11 00
	00		 lea	 edi, DWORD PTR [esi+4488]
  00014	e8 00 00 00 00	 call	 ?GetPropertiesData@CSymbolData@@QAEPAVCPropertiesData_text@@XZ ; CSymbolData::GetPropertiesData
  00019	50		 push	 eax
  0001a	8b cf		 mov	 ecx, edi
  0001c	e8 00 00 00 00	 call	 ?SetPropertiesData@CPreView@@QAEXPAVCPropertiesData_text@@@Z ; CPreView::SetPropertiesData

; 467  : 	IChartManager* pMainBlock = m_pSymbolData->GetMainBlock();

  00021	8b 8e d4 13 00
	00		 mov	 ecx, DWORD PTR [esi+5076]
  00027	e8 00 00 00 00	 call	 ?GetMainBlock@CSymbolData@@QBEPAUIChartManager133101@@XZ ; CSymbolData::GetMainBlock
  0002c	8b f0		 mov	 esi, eax

; 468  : 	if( pMainBlock)

  0002e	85 f6		 test	 esi, esi
  00030	74 1b		 je	 SHORT $LN2@Initial_Vi

; 469  : 	{
; 470  : 		m_PreView_Static.SetBackgroundColor(pMainBlock->GetBackgroundColor());

  00032	8b 16		 mov	 edx, DWORD PTR [esi]
  00034	8b ce		 mov	 ecx, esi
  00036	ff 52 3c	 call	 DWORD PTR [edx+60]
  00039	89 45 fc	 mov	 DWORD PTR $T1[ebp], eax
  0003c	8b cf		 mov	 ecx, edi
  0003e	8d 45 fc	 lea	 eax, DWORD PTR $T1[ebp]
  00041	50		 push	 eax
  00042	e8 00 00 00 00	 call	 ?SetBackgroundColor@CPreView@@QAEXABK@Z ; CPreView::SetBackgroundColor

; 471  : 		pMainBlock->Release();

  00047	8b 06		 mov	 eax, DWORD PTR [esi]
  00049	56		 push	 esi
  0004a	ff 50 08	 call	 DWORD PTR [eax+8]
$LN2@Initial_Vi:

; 472  : 	}
; 473  : }

  0004d	5f		 pop	 edi
  0004e	5e		 pop	 esi
  0004f	8b e5		 mov	 esp, ebp
  00051	5d		 pop	 ebp
  00052	c3		 ret	 0
?Initial_View@CSymbolDlg@@AAEXXZ ENDP			; CSymbolDlg::Initial_View
_TEXT	ENDS
; Function compile flags: /Ogtp
; File D:\git\src\IBK\IBK_DRFN\ProjSrc\SrcChartEx\ChartAddIn\ChartAnalysisToolAddIn\Symbol\SymbolDlg.cpp
; File C:\Program Files (x86)\Microsoft Visual Studio\2019\Community\VC\Tools\MSVC\14.29.30133\atlmfc\include\afxwin2.inl
; File D:\git\src\IBK\IBK_DRFN\ProjSrc\SrcChartEx\ChartAddIn\ChartAnalysisToolAddIn\Symbol\SymbolDlg.cpp
;	COMDAT ?Initial@CSymbolDlg@@AAEXXZ
_TEXT	SEGMENT
$T1 = -4						; size = 4
$T2 = -4						; size = 4
?Initial@CSymbolDlg@@AAEXXZ PROC			; CSymbolDlg::Initial, COMDAT
; _this$ = ecx

; 451  : {

  00000	55		 push	 ebp
  00001	8b ec		 mov	 ebp, esp
  00003	51		 push	 ecx
  00004	53		 push	 ebx
  00005	56		 push	 esi
  00006	57		 push	 edi
  00007	8b f9		 mov	 edi, ecx

; 452  : 	//color
; 453  : 	m_Color_Bt.SetColor(m_pSymbolData->GetPropertiesData()->GetColor());

  00009	8b 8f d4 13 00
	00		 mov	 ecx, DWORD PTR [edi+5076]
  0000f	e8 00 00 00 00	 call	 ?GetPropertiesData@CSymbolData@@QAEPAVCPropertiesData_text@@XZ ; CSymbolData::GetPropertiesData
  00014	8b c8		 mov	 ecx, eax
  00016	e8 00 00 00 00	 call	 ?GetColor@CPropertiesData_Figure@@QAEKXZ ; CPropertiesData_Figure::GetColor
  0001b	89 45 fc	 mov	 DWORD PTR $T2[ebp], eax
  0001e	8d 8f 28 12 00
	00		 lea	 ecx, DWORD PTR [edi+4648]
  00024	8d 45 fc	 lea	 eax, DWORD PTR $T2[ebp]
  00027	50		 push	 eax
  00028	e8 00 00 00 00	 call	 ?SetColor@CColorButton@@QAEXABK@Z ; CColorButton::SetColor

; 454  : 	//size
; 455  : 	CComboBox* pCombo = (CComboBox* )GetDlgItem(IDC_SYMBOL_SIZE);

  0002d	68 ef 03 00 00	 push	 1007			; 000003efH
  00032	8b cf		 mov	 ecx, edi
  00034	e8 00 00 00 00	 call	 ?GetDlgItem@CWnd@@QBEPAV1@H@Z ; CWnd::GetDlgItem

; 456  : 	pCombo->SetCurSel(m_pSymbolData->GetPropertiesData()->GetSizeType());

  00039	8b 8f d4 13 00
	00		 mov	 ecx, DWORD PTR [edi+5076]
  0003f	8b f0		 mov	 esi, eax
  00041	e8 00 00 00 00	 call	 ?GetPropertiesData@CSymbolData@@QAEPAVCPropertiesData_text@@XZ ; CSymbolData::GetPropertiesData
  00046	8b c8		 mov	 ecx, eax
  00048	e8 00 00 00 00	 call	 ?GetSizeType@CPropertiesData_Symbol@@QBE?AW4SIZETYPE@CSymbolBaseData@@XZ ; CPropertiesData_Symbol::GetSizeType
; File C:\Program Files (x86)\Microsoft Visual Studio\2019\Community\VC\Tools\MSVC\14.29.30133\atlmfc\include\afxwin2.inl

; 767  : 	{ ASSERT(::IsWindow(m_hWnd)); return (int)::SendMessage(m_hWnd, CB_SETCURSEL, nSelect, 0); }

  0004d	6a 00		 push	 0
  0004f	50		 push	 eax
  00050	68 4e 01 00 00	 push	 334			; 0000014eH
  00055	ff 76 20	 push	 DWORD PTR [esi+32]
  00058	ff 15 00 00 00
	00		 call	 DWORD PTR __imp__SendMessageA@16
; File D:\git\src\IBK\IBK_DRFN\ProjSrc\SrcChartEx\ChartAddIn\ChartAnalysisToolAddIn\Symbol\SymbolDlg.cpp

; 466  : 	m_PreView_Static.SetPropertiesData(m_pSymbolData->GetPropertiesData());

  0005e	8b 8f d4 13 00
	00		 mov	 ecx, DWORD PTR [edi+5076]
  00064	e8 00 00 00 00	 call	 ?GetPropertiesData@CSymbolData@@QAEPAVCPropertiesData_text@@XZ ; CSymbolData::GetPropertiesData
  00069	50		 push	 eax
  0006a	8d 8f 88 11 00
	00		 lea	 ecx, DWORD PTR [edi+4488]
  00070	e8 00 00 00 00	 call	 ?SetPropertiesData@CPreView@@QAEXPAVCPropertiesData_text@@@Z ; CPreView::SetPropertiesData

; 467  : 	IChartManager* pMainBlock = m_pSymbolData->GetMainBlock();

  00075	8b 8f d4 13 00
	00		 mov	 ecx, DWORD PTR [edi+5076]
  0007b	e8 00 00 00 00	 call	 ?GetMainBlock@CSymbolData@@QBEPAUIChartManager133101@@XZ ; CSymbolData::GetMainBlock
  00080	8b f0		 mov	 esi, eax

; 468  : 	if( pMainBlock)

  00082	85 f6		 test	 esi, esi
  00084	74 1f		 je	 SHORT $LN6@Initial

; 469  : 	{
; 470  : 		m_PreView_Static.SetBackgroundColor(pMainBlock->GetBackgroundColor());

  00086	8b 16		 mov	 edx, DWORD PTR [esi]
  00088	8b ce		 mov	 ecx, esi
  0008a	ff 52 3c	 call	 DWORD PTR [edx+60]
  0008d	89 45 fc	 mov	 DWORD PTR $T1[ebp], eax
  00090	8d 8f 88 11 00
	00		 lea	 ecx, DWORD PTR [edi+4488]
  00096	8d 45 fc	 lea	 eax, DWORD PTR $T1[ebp]
  00099	50		 push	 eax
  0009a	e8 00 00 00 00	 call	 ?SetBackgroundColor@CPreView@@QAEXABK@Z ; CPreView::SetBackgroundColor

; 471  : 		pMainBlock->Release();

  0009f	8b 06		 mov	 eax, DWORD PTR [esi]
  000a1	56		 push	 esi
  000a2	ff 50 08	 call	 DWORD PTR [eax+8]
$LN6@Initial:
  000a5	5f		 pop	 edi

; 457  : 
; 458  : 	//sy 2005.03.30.
; 459  : 	//  
; 460  : 	Initial_View();
; 461  : }

  000a6	5e		 pop	 esi
  000a7	5b		 pop	 ebx
  000a8	8b e5		 mov	 esp, ebp
  000aa	5d		 pop	 ebp
  000ab	c3		 ret	 0
?Initial@CSymbolDlg@@AAEXXZ ENDP			; CSymbolDlg::Initial
_TEXT	ENDS
; Function compile flags: /Ogtp
; File D:\git\src\IBK\IBK_DRFN\ProjSrc\SrcChartEx\ChartAddIn\ChartAnalysisToolAddIn\Symbol\SymbolDlg.cpp
;	COMDAT ?GetMessageMap@CSymbolDlg@@MBEPBUAFX_MSGMAP@@XZ
_TEXT	SEGMENT
?GetMessageMap@CSymbolDlg@@MBEPBUAFX_MSGMAP@@XZ PROC	; CSymbolDlg::GetMessageMap, COMDAT
; _this$ = ecx

; 74   : BEGIN_MESSAGE_MAP(CSymbolDlg, CDialog)

  00000	b8 00 00 00 00	 mov	 eax, OFFSET ?messageMap@?1??GetThisMessageMap@CSymbolDlg@@KGPBUAFX_MSGMAP@@XZ@4U3@B
  00005	c3		 ret	 0
?GetMessageMap@CSymbolDlg@@MBEPBUAFX_MSGMAP@@XZ ENDP	; CSymbolDlg::GetMessageMap
_TEXT	ENDS
; Function compile flags: /Ogtp
; File D:\git\src\IBK\IBK_DRFN\ProjSrc\SrcChartEx\ChartAddIn\ChartAnalysisToolAddIn\Symbol\SymbolDlg.cpp
;	COMDAT ?GetThisMessageMap@CSymbolDlg@@KGPBUAFX_MSGMAP@@XZ
_TEXT	SEGMENT
?GetThisMessageMap@CSymbolDlg@@KGPBUAFX_MSGMAP@@XZ PROC	; CSymbolDlg::GetThisMessageMap, COMDAT

; 75   : 	//{{AFX_MSG_MAP(CSymbolDlg)
; 76   : 	ON_BN_CLICKED(IDC_ARROW_LEFT, OnArrowLeft)
; 77   : 	ON_BN_CLICKED(IDC_ARROW_RIGHT, OnArrowRight)
; 78   : 	ON_WM_CLOSE()
; 79   : 	ON_BN_CLICKED(IDC_ARROW_LEFTTOP, OnArrowLefttop)
; 80   : 	ON_BN_CLICKED(IDC_ARROW_DOWN, OnArrowDown)
; 81   : 	ON_BN_CLICKED(IDC_ARROW_LEFTBOTTOM, OnArrowLeftbottom)
; 82   : 	ON_BN_CLICKED(IDC_ARROW_RIGHTBOTTOM, OnArrowRightbottom)
; 83   : 	ON_BN_CLICKED(IDC_ARROW_RIGHTTOP, OnArrowRighttop)
; 84   : 	ON_BN_CLICKED(IDC_ARROW_UP, OnArrowUp)
; 85   : 	ON_BN_CLICKED(IDC_NUM_FIVE, OnNumFive)
; 86   : 	ON_BN_CLICKED(IDC_NUM_FOUR, OnNumFour)
; 87   : 	ON_BN_CLICKED(IDC_NUM_ONE, OnNumOne)
; 88   : 	ON_BN_CLICKED(IDC_NUM_THREE, OnNumThree)
; 89   : 	ON_BN_CLICKED(IDC_NUM_TWO, OnNumTwo)
; 90   : 	ON_BN_CLICKED(IDC_TEXT_A, OnTextA)
; 91   : 	ON_BN_CLICKED(IDC_TEXT_B, OnTextB)
; 92   : 	ON_BN_CLICKED(IDC_TEXT_C, OnTextC)
; 93   : 	ON_WM_SHOWWINDOW()
; 94   : 	ON_CBN_SELCHANGE(IDC_SYMBOL_SIZE, OnSelchangeSymbolSize)
; 95   : 	ON_BN_CLICKED(IDC_COLOR, OnColor)
; 96   : 	ON_BN_CLICKED(IDC_FONT, OnFont)
; 97   : 	ON_BN_CLICKED(IDC_NUM_SIX, OnNumSix)
; 98   : 	ON_BN_CLICKED(IDC_NUM_TEN, OnNumTen)
; 99   : 	ON_BN_CLICKED(IDC_NUM_SEVEN, OnNumSeven)
; 100  : 	ON_BN_CLICKED(IDC_NUM_EIGHT, OnNumEight)
; 101  : 	ON_BN_CLICKED(IDC_NUM_NINE, OnNumNine)
; 102  : 	ON_BN_CLICKED(IDC_TEXT_D, OnTextD)
; 103  : 	ON_BN_CLICKED(IDC_TEXT_E, OnTextE)
; 104  : 	ON_BN_CLICKED(IDC_TEXT_F, OnTextF)
; 105  : 	ON_BN_CLICKED(IDC_TEXT_G, OnTextG)
; 106  : 	ON_BN_CLICKED(IDC_TEXT_H, OnTextH)
; 107  : 	ON_BN_CLICKED(IDC_TEXT_SPECIAL_1, OnTextSpecial1)
; 108  : 	ON_BN_CLICKED(IDC_TEXT_SPECIAL_2, OnTextSpecial2)
; 109  : 	ON_BN_CLICKED(IDC_TEXT_SPECIAL_3, OnTextSpecial3)
; 110  : 	ON_BN_CLICKED(IDC_TEXT_SPECIAL_4, OnTextSpecial4)
; 111  : 	ON_BN_CLICKED(IDC_TEXT_SPECIAL_5, OnTextSpecial5)
; 112  : 	ON_BN_CLICKED(IDC_TEXT_SPECIAL_6, OnTextSpecial6)
; 113  : 	//}}AFX_MSG_MAP
; 114  : END_MESSAGE_MAP()

  00000	b8 00 00 00 00	 mov	 eax, OFFSET ?messageMap@?1??GetThisMessageMap@CSymbolDlg@@KGPBUAFX_MSGMAP@@XZ@4U3@B
  00005	c3		 ret	 0
?GetThisMessageMap@CSymbolDlg@@KGPBUAFX_MSGMAP@@XZ ENDP	; CSymbolDlg::GetThisMessageMap
_TEXT	ENDS
; Function compile flags: /Ogtp
; File D:\git\src\IBK\IBK_DRFN\ProjSrc\SrcChartEx\ChartAddIn\ChartAnalysisToolAddIn\Symbol\SymbolDlg.cpp
; File C:\Program Files (x86)\Microsoft Visual Studio\2019\Community\VC\Tools\MSVC\14.29.30133\atlmfc\include\afxwin2.inl
; File D:\git\src\IBK\IBK_DRFN\ProjSrc\SrcChartEx\ChartAddIn\ChartAnalysisToolAddIn\Symbol\SymbolDlg.cpp
;	COMDAT ?OnTextSpecial6@CSymbolDlg@@IAEXXZ
_TEXT	SEGMENT
?OnTextSpecial6@CSymbolDlg@@IAEXXZ PROC			; CSymbolDlg::OnTextSpecial6, COMDAT
; _this$ = ecx

; 365  : {

  00000	56		 push	 esi
  00001	57		 push	 edi
  00002	8b f9		 mov	 edi, ecx

; 366  : 	SetBuletType(CSymbolBaseData::SYMBOL_CHAR_6, &m_Char_6_Bt);

  00004	8d b7 78 03 00
	00		 lea	 esi, DWORD PTR [edi+888]
  0000a	56		 push	 esi
  0000b	6a 26		 push	 38			; 00000026H
  0000d	e8 00 00 00 00	 call	 ?SetBuletType@CSymbolDlg@@AAEXW4TOOLTYPE@CSymbolBaseData@@PAVCDynamicBitmapLoadButton@@@Z ; CSymbolDlg::SetBuletType

; 367  : 	SetToggle(GetFocus(), &m_Char_6_Bt);

  00012	56		 push	 esi
; File C:\Program Files (x86)\Microsoft Visual Studio\2019\Community\VC\Tools\MSVC\14.29.30133\atlmfc\include\afxwin2.inl

; 165  : 	{ return CWnd::FromHandle(::GetFocus()); }

  00013	ff 15 00 00 00
	00		 call	 DWORD PTR __imp__GetFocus@0
  00019	50		 push	 eax
  0001a	e8 00 00 00 00	 call	 ?FromHandle@CWnd@@SGPAV1@PAUHWND__@@@Z ; CWnd::FromHandle
; File D:\git\src\IBK\IBK_DRFN\ProjSrc\SrcChartEx\ChartAddIn\ChartAnalysisToolAddIn\Symbol\SymbolDlg.cpp

; 367  : 	SetToggle(GetFocus(), &m_Char_6_Bt);

  0001f	50		 push	 eax
  00020	8b cf		 mov	 ecx, edi
  00022	e8 00 00 00 00	 call	 ?SetToggle@CSymbolDlg@@AAEXPAVCWnd@@PAVCDynamicBitmapLoadButton@@@Z ; CSymbolDlg::SetToggle

; 368  : 	m_pMainSymbol->SetSymbolType(CSymbolBaseData::SYMBOL_CHAR_6);

  00027	6a 26		 push	 38			; 00000026H
  00029	e8 00 00 00 00	 call	 ?SetSymbolType@CMainSymbolImplementation@@SAXW4TOOLTYPE@CSymbolBaseData@@@Z ; CMainSymbolImplementation::SetSymbolType
  0002e	83 c4 04	 add	 esp, 4
  00031	5f		 pop	 edi
  00032	5e		 pop	 esi

; 369  : }

  00033	c3		 ret	 0
?OnTextSpecial6@CSymbolDlg@@IAEXXZ ENDP			; CSymbolDlg::OnTextSpecial6
_TEXT	ENDS
; Function compile flags: /Ogtp
; File D:\git\src\IBK\IBK_DRFN\ProjSrc\SrcChartEx\ChartAddIn\ChartAnalysisToolAddIn\Symbol\SymbolDlg.cpp
; File C:\Program Files (x86)\Microsoft Visual Studio\2019\Community\VC\Tools\MSVC\14.29.30133\atlmfc\include\afxwin2.inl
; File D:\git\src\IBK\IBK_DRFN\ProjSrc\SrcChartEx\ChartAddIn\ChartAnalysisToolAddIn\Symbol\SymbolDlg.cpp
;	COMDAT ?OnTextSpecial5@CSymbolDlg@@IAEXXZ
_TEXT	SEGMENT
?OnTextSpecial5@CSymbolDlg@@IAEXXZ PROC			; CSymbolDlg::OnTextSpecial5, COMDAT
; _this$ = ecx

; 358  : {

  00000	56		 push	 esi
  00001	57		 push	 edi
  00002	8b f9		 mov	 edi, ecx

; 359  : 	SetBuletType(CSymbolBaseData::SYMBOL_CHAR_5, &m_Char_5_Bt);

  00004	8d b7 e8 02 00
	00		 lea	 esi, DWORD PTR [edi+744]
  0000a	56		 push	 esi
  0000b	6a 25		 push	 37			; 00000025H
  0000d	e8 00 00 00 00	 call	 ?SetBuletType@CSymbolDlg@@AAEXW4TOOLTYPE@CSymbolBaseData@@PAVCDynamicBitmapLoadButton@@@Z ; CSymbolDlg::SetBuletType

; 360  : 	SetToggle(GetFocus(), &m_Char_5_Bt);

  00012	56		 push	 esi
; File C:\Program Files (x86)\Microsoft Visual Studio\2019\Community\VC\Tools\MSVC\14.29.30133\atlmfc\include\afxwin2.inl

; 165  : 	{ return CWnd::FromHandle(::GetFocus()); }

  00013	ff 15 00 00 00
	00		 call	 DWORD PTR __imp__GetFocus@0
  00019	50		 push	 eax
  0001a	e8 00 00 00 00	 call	 ?FromHandle@CWnd@@SGPAV1@PAUHWND__@@@Z ; CWnd::FromHandle
; File D:\git\src\IBK\IBK_DRFN\ProjSrc\SrcChartEx\ChartAddIn\ChartAnalysisToolAddIn\Symbol\SymbolDlg.cpp

; 360  : 	SetToggle(GetFocus(), &m_Char_5_Bt);

  0001f	50		 push	 eax
  00020	8b cf		 mov	 ecx, edi
  00022	e8 00 00 00 00	 call	 ?SetToggle@CSymbolDlg@@AAEXPAVCWnd@@PAVCDynamicBitmapLoadButton@@@Z ; CSymbolDlg::SetToggle

; 361  : 	m_pMainSymbol->SetSymbolType(CSymbolBaseData::SYMBOL_CHAR_5);

  00027	6a 25		 push	 37			; 00000025H
  00029	e8 00 00 00 00	 call	 ?SetSymbolType@CMainSymbolImplementation@@SAXW4TOOLTYPE@CSymbolBaseData@@@Z ; CMainSymbolImplementation::SetSymbolType
  0002e	83 c4 04	 add	 esp, 4
  00031	5f		 pop	 edi
  00032	5e		 pop	 esi

; 362  : }

  00033	c3		 ret	 0
?OnTextSpecial5@CSymbolDlg@@IAEXXZ ENDP			; CSymbolDlg::OnTextSpecial5
_TEXT	ENDS
; Function compile flags: /Ogtp
; File D:\git\src\IBK\IBK_DRFN\ProjSrc\SrcChartEx\ChartAddIn\ChartAnalysisToolAddIn\Symbol\SymbolDlg.cpp
; File C:\Program Files (x86)\Microsoft Visual Studio\2019\Community\VC\Tools\MSVC\14.29.30133\atlmfc\include\afxwin2.inl
; File D:\git\src\IBK\IBK_DRFN\ProjSrc\SrcChartEx\ChartAddIn\ChartAnalysisToolAddIn\Symbol\SymbolDlg.cpp
;	COMDAT ?OnTextSpecial4@CSymbolDlg@@IAEXXZ
_TEXT	SEGMENT
?OnTextSpecial4@CSymbolDlg@@IAEXXZ PROC			; CSymbolDlg::OnTextSpecial4, COMDAT
; _this$ = ecx

; 351  : {

  00000	56		 push	 esi
  00001	57		 push	 edi
  00002	8b f9		 mov	 edi, ecx

; 352  : 	SetBuletType(CSymbolBaseData::SYMBOL_CHAR_4, &m_Char_4_Bt);

  00004	8d b7 58 02 00
	00		 lea	 esi, DWORD PTR [edi+600]
  0000a	56		 push	 esi
  0000b	6a 24		 push	 36			; 00000024H
  0000d	e8 00 00 00 00	 call	 ?SetBuletType@CSymbolDlg@@AAEXW4TOOLTYPE@CSymbolBaseData@@PAVCDynamicBitmapLoadButton@@@Z ; CSymbolDlg::SetBuletType

; 353  : 	SetToggle(GetFocus(), &m_Char_4_Bt);

  00012	56		 push	 esi
; File C:\Program Files (x86)\Microsoft Visual Studio\2019\Community\VC\Tools\MSVC\14.29.30133\atlmfc\include\afxwin2.inl

; 165  : 	{ return CWnd::FromHandle(::GetFocus()); }

  00013	ff 15 00 00 00
	00		 call	 DWORD PTR __imp__GetFocus@0
  00019	50		 push	 eax
  0001a	e8 00 00 00 00	 call	 ?FromHandle@CWnd@@SGPAV1@PAUHWND__@@@Z ; CWnd::FromHandle
; File D:\git\src\IBK\IBK_DRFN\ProjSrc\SrcChartEx\ChartAddIn\ChartAnalysisToolAddIn\Symbol\SymbolDlg.cpp

; 353  : 	SetToggle(GetFocus(), &m_Char_4_Bt);

  0001f	50		 push	 eax
  00020	8b cf		 mov	 ecx, edi
  00022	e8 00 00 00 00	 call	 ?SetToggle@CSymbolDlg@@AAEXPAVCWnd@@PAVCDynamicBitmapLoadButton@@@Z ; CSymbolDlg::SetToggle

; 354  : 	m_pMainSymbol->SetSymbolType(CSymbolBaseData::SYMBOL_CHAR_4);

  00027	6a 24		 push	 36			; 00000024H
  00029	e8 00 00 00 00	 call	 ?SetSymbolType@CMainSymbolImplementation@@SAXW4TOOLTYPE@CSymbolBaseData@@@Z ; CMainSymbolImplementation::SetSymbolType
  0002e	83 c4 04	 add	 esp, 4
  00031	5f		 pop	 edi
  00032	5e		 pop	 esi

; 355  : }

  00033	c3		 ret	 0
?OnTextSpecial4@CSymbolDlg@@IAEXXZ ENDP			; CSymbolDlg::OnTextSpecial4
_TEXT	ENDS
; Function compile flags: /Ogtp
; File D:\git\src\IBK\IBK_DRFN\ProjSrc\SrcChartEx\ChartAddIn\ChartAnalysisToolAddIn\Symbol\SymbolDlg.cpp
; File C:\Program Files (x86)\Microsoft Visual Studio\2019\Community\VC\Tools\MSVC\14.29.30133\atlmfc\include\afxwin2.inl
; File D:\git\src\IBK\IBK_DRFN\ProjSrc\SrcChartEx\ChartAddIn\ChartAnalysisToolAddIn\Symbol\SymbolDlg.cpp
;	COMDAT ?OnTextSpecial3@CSymbolDlg@@IAEXXZ
_TEXT	SEGMENT
?OnTextSpecial3@CSymbolDlg@@IAEXXZ PROC			; CSymbolDlg::OnTextSpecial3, COMDAT
; _this$ = ecx

; 344  : {

  00000	56		 push	 esi
  00001	57		 push	 edi
  00002	8b f9		 mov	 edi, ecx

; 345  : 	SetBuletType(CSymbolBaseData::SYMBOL_CHAR_3, &m_Char_3_Bt);

  00004	8d b7 c8 01 00
	00		 lea	 esi, DWORD PTR [edi+456]
  0000a	56		 push	 esi
  0000b	6a 23		 push	 35			; 00000023H
  0000d	e8 00 00 00 00	 call	 ?SetBuletType@CSymbolDlg@@AAEXW4TOOLTYPE@CSymbolBaseData@@PAVCDynamicBitmapLoadButton@@@Z ; CSymbolDlg::SetBuletType

; 346  : 	SetToggle(GetFocus(), &m_Char_3_Bt);

  00012	56		 push	 esi
; File C:\Program Files (x86)\Microsoft Visual Studio\2019\Community\VC\Tools\MSVC\14.29.30133\atlmfc\include\afxwin2.inl

; 165  : 	{ return CWnd::FromHandle(::GetFocus()); }

  00013	ff 15 00 00 00
	00		 call	 DWORD PTR __imp__GetFocus@0
  00019	50		 push	 eax
  0001a	e8 00 00 00 00	 call	 ?FromHandle@CWnd@@SGPAV1@PAUHWND__@@@Z ; CWnd::FromHandle
; File D:\git\src\IBK\IBK_DRFN\ProjSrc\SrcChartEx\ChartAddIn\ChartAnalysisToolAddIn\Symbol\SymbolDlg.cpp

; 346  : 	SetToggle(GetFocus(), &m_Char_3_Bt);

  0001f	50		 push	 eax
  00020	8b cf		 mov	 ecx, edi
  00022	e8 00 00 00 00	 call	 ?SetToggle@CSymbolDlg@@AAEXPAVCWnd@@PAVCDynamicBitmapLoadButton@@@Z ; CSymbolDlg::SetToggle

; 347  : 	m_pMainSymbol->SetSymbolType(CSymbolBaseData::SYMBOL_CHAR_3);

  00027	6a 23		 push	 35			; 00000023H
  00029	e8 00 00 00 00	 call	 ?SetSymbolType@CMainSymbolImplementation@@SAXW4TOOLTYPE@CSymbolBaseData@@@Z ; CMainSymbolImplementation::SetSymbolType
  0002e	83 c4 04	 add	 esp, 4
  00031	5f		 pop	 edi
  00032	5e		 pop	 esi

; 348  : }

  00033	c3		 ret	 0
?OnTextSpecial3@CSymbolDlg@@IAEXXZ ENDP			; CSymbolDlg::OnTextSpecial3
_TEXT	ENDS
; Function compile flags: /Ogtp
; File D:\git\src\IBK\IBK_DRFN\ProjSrc\SrcChartEx\ChartAddIn\ChartAnalysisToolAddIn\Symbol\SymbolDlg.cpp
; File C:\Program Files (x86)\Microsoft Visual Studio\2019\Community\VC\Tools\MSVC\14.29.30133\atlmfc\include\afxwin2.inl
; File D:\git\src\IBK\IBK_DRFN\ProjSrc\SrcChartEx\ChartAddIn\ChartAnalysisToolAddIn\Symbol\SymbolDlg.cpp
;	COMDAT ?OnTextSpecial2@CSymbolDlg@@IAEXXZ
_TEXT	SEGMENT
?OnTextSpecial2@CSymbolDlg@@IAEXXZ PROC			; CSymbolDlg::OnTextSpecial2, COMDAT
; _this$ = ecx

; 337  : {

  00000	56		 push	 esi
  00001	57		 push	 edi
  00002	8b f9		 mov	 edi, ecx

; 338  : 	SetBuletType(CSymbolBaseData::SYMBOL_CHAR_2, &m_Char_2_Bt);

  00004	8d b7 38 01 00
	00		 lea	 esi, DWORD PTR [edi+312]
  0000a	56		 push	 esi
  0000b	6a 22		 push	 34			; 00000022H
  0000d	e8 00 00 00 00	 call	 ?SetBuletType@CSymbolDlg@@AAEXW4TOOLTYPE@CSymbolBaseData@@PAVCDynamicBitmapLoadButton@@@Z ; CSymbolDlg::SetBuletType

; 339  : 	SetToggle(GetFocus(), &m_Char_2_Bt);

  00012	56		 push	 esi
; File C:\Program Files (x86)\Microsoft Visual Studio\2019\Community\VC\Tools\MSVC\14.29.30133\atlmfc\include\afxwin2.inl

; 165  : 	{ return CWnd::FromHandle(::GetFocus()); }

  00013	ff 15 00 00 00
	00		 call	 DWORD PTR __imp__GetFocus@0
  00019	50		 push	 eax
  0001a	e8 00 00 00 00	 call	 ?FromHandle@CWnd@@SGPAV1@PAUHWND__@@@Z ; CWnd::FromHandle
; File D:\git\src\IBK\IBK_DRFN\ProjSrc\SrcChartEx\ChartAddIn\ChartAnalysisToolAddIn\Symbol\SymbolDlg.cpp

; 339  : 	SetToggle(GetFocus(), &m_Char_2_Bt);

  0001f	50		 push	 eax
  00020	8b cf		 mov	 ecx, edi
  00022	e8 00 00 00 00	 call	 ?SetToggle@CSymbolDlg@@AAEXPAVCWnd@@PAVCDynamicBitmapLoadButton@@@Z ; CSymbolDlg::SetToggle

; 340  : 	m_pMainSymbol->SetSymbolType(CSymbolBaseData::SYMBOL_CHAR_2);

  00027	6a 22		 push	 34			; 00000022H
  00029	e8 00 00 00 00	 call	 ?SetSymbolType@CMainSymbolImplementation@@SAXW4TOOLTYPE@CSymbolBaseData@@@Z ; CMainSymbolImplementation::SetSymbolType
  0002e	83 c4 04	 add	 esp, 4
  00031	5f		 pop	 edi
  00032	5e		 pop	 esi

; 341  : }

  00033	c3		 ret	 0
?OnTextSpecial2@CSymbolDlg@@IAEXXZ ENDP			; CSymbolDlg::OnTextSpecial2
_TEXT	ENDS
; Function compile flags: /Ogtp
; File D:\git\src\IBK\IBK_DRFN\ProjSrc\SrcChartEx\ChartAddIn\ChartAnalysisToolAddIn\Symbol\SymbolDlg.cpp
; File C:\Program Files (x86)\Microsoft Visual Studio\2019\Community\VC\Tools\MSVC\14.29.30133\atlmfc\include\afxwin2.inl
; File D:\git\src\IBK\IBK_DRFN\ProjSrc\SrcChartEx\ChartAddIn\ChartAnalysisToolAddIn\Symbol\SymbolDlg.cpp
;	COMDAT ?OnTextSpecial1@CSymbolDlg@@IAEXXZ
_TEXT	SEGMENT
?OnTextSpecial1@CSymbolDlg@@IAEXXZ PROC			; CSymbolDlg::OnTextSpecial1, COMDAT
; _this$ = ecx

; 330  : {

  00000	56		 push	 esi
  00001	57		 push	 edi
  00002	8b f9		 mov	 edi, ecx

; 331  : 	SetBuletType(CSymbolBaseData::SYMBOL_CHAR_1, &m_Char_1_Bt);

  00004	8d b7 a8 00 00
	00		 lea	 esi, DWORD PTR [edi+168]
  0000a	56		 push	 esi
  0000b	6a 21		 push	 33			; 00000021H
  0000d	e8 00 00 00 00	 call	 ?SetBuletType@CSymbolDlg@@AAEXW4TOOLTYPE@CSymbolBaseData@@PAVCDynamicBitmapLoadButton@@@Z ; CSymbolDlg::SetBuletType

; 332  : 	SetToggle(GetFocus(), &m_Char_1_Bt);

  00012	56		 push	 esi
; File C:\Program Files (x86)\Microsoft Visual Studio\2019\Community\VC\Tools\MSVC\14.29.30133\atlmfc\include\afxwin2.inl

; 165  : 	{ return CWnd::FromHandle(::GetFocus()); }

  00013	ff 15 00 00 00
	00		 call	 DWORD PTR __imp__GetFocus@0
  00019	50		 push	 eax
  0001a	e8 00 00 00 00	 call	 ?FromHandle@CWnd@@SGPAV1@PAUHWND__@@@Z ; CWnd::FromHandle
; File D:\git\src\IBK\IBK_DRFN\ProjSrc\SrcChartEx\ChartAddIn\ChartAnalysisToolAddIn\Symbol\SymbolDlg.cpp

; 332  : 	SetToggle(GetFocus(), &m_Char_1_Bt);

  0001f	50		 push	 eax
  00020	8b cf		 mov	 ecx, edi
  00022	e8 00 00 00 00	 call	 ?SetToggle@CSymbolDlg@@AAEXPAVCWnd@@PAVCDynamicBitmapLoadButton@@@Z ; CSymbolDlg::SetToggle

; 333  : 	m_pMainSymbol->SetSymbolType(CSymbolBaseData::SYMBOL_CHAR_1);

  00027	6a 21		 push	 33			; 00000021H
  00029	e8 00 00 00 00	 call	 ?SetSymbolType@CMainSymbolImplementation@@SAXW4TOOLTYPE@CSymbolBaseData@@@Z ; CMainSymbolImplementation::SetSymbolType
  0002e	83 c4 04	 add	 esp, 4
  00031	5f		 pop	 edi
  00032	5e		 pop	 esi

; 334  : }

  00033	c3		 ret	 0
?OnTextSpecial1@CSymbolDlg@@IAEXXZ ENDP			; CSymbolDlg::OnTextSpecial1
_TEXT	ENDS
; Function compile flags: /Ogtp
; File D:\git\src\IBK\IBK_DRFN\ProjSrc\SrcChartEx\ChartAddIn\ChartAnalysisToolAddIn\Symbol\SymbolDlg.cpp
; File C:\Program Files (x86)\Microsoft Visual Studio\2019\Community\VC\Tools\MSVC\14.29.30133\atlmfc\include\afxwin2.inl
; File D:\git\src\IBK\IBK_DRFN\ProjSrc\SrcChartEx\ChartAddIn\ChartAnalysisToolAddIn\Symbol\SymbolDlg.cpp
;	COMDAT ?OnTextH@CSymbolDlg@@IAEXXZ
_TEXT	SEGMENT
?OnTextH@CSymbolDlg@@IAEXXZ PROC			; CSymbolDlg::OnTextH, COMDAT
; _this$ = ecx

; 323  : {

  00000	56		 push	 esi
  00001	57		 push	 edi
  00002	8b f9		 mov	 edi, ecx

; 324  : 	SetBuletType(CSymbolBaseData::SYMBOL_TEXT_H, &m_Text_H_Bt);

  00004	8d b7 08 04 00
	00		 lea	 esi, DWORD PTR [edi+1032]
  0000a	56		 push	 esi
  0000b	6a 20		 push	 32			; 00000020H
  0000d	e8 00 00 00 00	 call	 ?SetBuletType@CSymbolDlg@@AAEXW4TOOLTYPE@CSymbolBaseData@@PAVCDynamicBitmapLoadButton@@@Z ; CSymbolDlg::SetBuletType

; 325  : 	SetToggle(GetFocus(), &m_Text_H_Bt);

  00012	56		 push	 esi
; File C:\Program Files (x86)\Microsoft Visual Studio\2019\Community\VC\Tools\MSVC\14.29.30133\atlmfc\include\afxwin2.inl

; 165  : 	{ return CWnd::FromHandle(::GetFocus()); }

  00013	ff 15 00 00 00
	00		 call	 DWORD PTR __imp__GetFocus@0
  00019	50		 push	 eax
  0001a	e8 00 00 00 00	 call	 ?FromHandle@CWnd@@SGPAV1@PAUHWND__@@@Z ; CWnd::FromHandle
; File D:\git\src\IBK\IBK_DRFN\ProjSrc\SrcChartEx\ChartAddIn\ChartAnalysisToolAddIn\Symbol\SymbolDlg.cpp

; 325  : 	SetToggle(GetFocus(), &m_Text_H_Bt);

  0001f	50		 push	 eax
  00020	8b cf		 mov	 ecx, edi
  00022	e8 00 00 00 00	 call	 ?SetToggle@CSymbolDlg@@AAEXPAVCWnd@@PAVCDynamicBitmapLoadButton@@@Z ; CSymbolDlg::SetToggle

; 326  : 	m_pMainSymbol->SetSymbolType(CSymbolBaseData::SYMBOL_TEXT_H);

  00027	6a 20		 push	 32			; 00000020H
  00029	e8 00 00 00 00	 call	 ?SetSymbolType@CMainSymbolImplementation@@SAXW4TOOLTYPE@CSymbolBaseData@@@Z ; CMainSymbolImplementation::SetSymbolType
  0002e	83 c4 04	 add	 esp, 4
  00031	5f		 pop	 edi
  00032	5e		 pop	 esi

; 327  : }

  00033	c3		 ret	 0
?OnTextH@CSymbolDlg@@IAEXXZ ENDP			; CSymbolDlg::OnTextH
_TEXT	ENDS
; Function compile flags: /Ogtp
; File D:\git\src\IBK\IBK_DRFN\ProjSrc\SrcChartEx\ChartAddIn\ChartAnalysisToolAddIn\Symbol\SymbolDlg.cpp
; File C:\Program Files (x86)\Microsoft Visual Studio\2019\Community\VC\Tools\MSVC\14.29.30133\atlmfc\include\afxwin2.inl
; File D:\git\src\IBK\IBK_DRFN\ProjSrc\SrcChartEx\ChartAddIn\ChartAnalysisToolAddIn\Symbol\SymbolDlg.cpp
;	COMDAT ?OnTextG@CSymbolDlg@@IAEXXZ
_TEXT	SEGMENT
?OnTextG@CSymbolDlg@@IAEXXZ PROC			; CSymbolDlg::OnTextG, COMDAT
; _this$ = ecx

; 316  : {

  00000	56		 push	 esi
  00001	57		 push	 edi
  00002	8b f9		 mov	 edi, ecx

; 317  : 	SetBuletType(CSymbolBaseData::SYMBOL_TEXT_G, &m_Text_G_Bt);

  00004	8d b7 98 04 00
	00		 lea	 esi, DWORD PTR [edi+1176]
  0000a	56		 push	 esi
  0000b	6a 1f		 push	 31			; 0000001fH
  0000d	e8 00 00 00 00	 call	 ?SetBuletType@CSymbolDlg@@AAEXW4TOOLTYPE@CSymbolBaseData@@PAVCDynamicBitmapLoadButton@@@Z ; CSymbolDlg::SetBuletType

; 318  : 	SetToggle(GetFocus(), &m_Text_G_Bt);

  00012	56		 push	 esi
; File C:\Program Files (x86)\Microsoft Visual Studio\2019\Community\VC\Tools\MSVC\14.29.30133\atlmfc\include\afxwin2.inl

; 165  : 	{ return CWnd::FromHandle(::GetFocus()); }

  00013	ff 15 00 00 00
	00		 call	 DWORD PTR __imp__GetFocus@0
  00019	50		 push	 eax
  0001a	e8 00 00 00 00	 call	 ?FromHandle@CWnd@@SGPAV1@PAUHWND__@@@Z ; CWnd::FromHandle
; File D:\git\src\IBK\IBK_DRFN\ProjSrc\SrcChartEx\ChartAddIn\ChartAnalysisToolAddIn\Symbol\SymbolDlg.cpp

; 318  : 	SetToggle(GetFocus(), &m_Text_G_Bt);

  0001f	50		 push	 eax
  00020	8b cf		 mov	 ecx, edi
  00022	e8 00 00 00 00	 call	 ?SetToggle@CSymbolDlg@@AAEXPAVCWnd@@PAVCDynamicBitmapLoadButton@@@Z ; CSymbolDlg::SetToggle

; 319  : 	m_pMainSymbol->SetSymbolType(CSymbolBaseData::SYMBOL_TEXT_G);

  00027	6a 1f		 push	 31			; 0000001fH
  00029	e8 00 00 00 00	 call	 ?SetSymbolType@CMainSymbolImplementation@@SAXW4TOOLTYPE@CSymbolBaseData@@@Z ; CMainSymbolImplementation::SetSymbolType
  0002e	83 c4 04	 add	 esp, 4
  00031	5f		 pop	 edi
  00032	5e		 pop	 esi

; 320  : }

  00033	c3		 ret	 0
?OnTextG@CSymbolDlg@@IAEXXZ ENDP			; CSymbolDlg::OnTextG
_TEXT	ENDS
; Function compile flags: /Ogtp
; File D:\git\src\IBK\IBK_DRFN\ProjSrc\SrcChartEx\ChartAddIn\ChartAnalysisToolAddIn\Symbol\SymbolDlg.cpp
; File C:\Program Files (x86)\Microsoft Visual Studio\2019\Community\VC\Tools\MSVC\14.29.30133\atlmfc\include\afxwin2.inl
; File D:\git\src\IBK\IBK_DRFN\ProjSrc\SrcChartEx\ChartAddIn\ChartAnalysisToolAddIn\Symbol\SymbolDlg.cpp
;	COMDAT ?OnTextF@CSymbolDlg@@IAEXXZ
_TEXT	SEGMENT
?OnTextF@CSymbolDlg@@IAEXXZ PROC			; CSymbolDlg::OnTextF, COMDAT
; _this$ = ecx

; 309  : {

  00000	56		 push	 esi
  00001	57		 push	 edi
  00002	8b f9		 mov	 edi, ecx

; 310  : 	SetBuletType(CSymbolBaseData::SYMBOL_TEXT_F, &m_Text_F_Bt);

  00004	8d b7 28 05 00
	00		 lea	 esi, DWORD PTR [edi+1320]
  0000a	56		 push	 esi
  0000b	6a 1e		 push	 30			; 0000001eH
  0000d	e8 00 00 00 00	 call	 ?SetBuletType@CSymbolDlg@@AAEXW4TOOLTYPE@CSymbolBaseData@@PAVCDynamicBitmapLoadButton@@@Z ; CSymbolDlg::SetBuletType

; 311  : 	SetToggle(GetFocus(), &m_Text_F_Bt);

  00012	56		 push	 esi
; File C:\Program Files (x86)\Microsoft Visual Studio\2019\Community\VC\Tools\MSVC\14.29.30133\atlmfc\include\afxwin2.inl

; 165  : 	{ return CWnd::FromHandle(::GetFocus()); }

  00013	ff 15 00 00 00
	00		 call	 DWORD PTR __imp__GetFocus@0
  00019	50		 push	 eax
  0001a	e8 00 00 00 00	 call	 ?FromHandle@CWnd@@SGPAV1@PAUHWND__@@@Z ; CWnd::FromHandle
; File D:\git\src\IBK\IBK_DRFN\ProjSrc\SrcChartEx\ChartAddIn\ChartAnalysisToolAddIn\Symbol\SymbolDlg.cpp

; 311  : 	SetToggle(GetFocus(), &m_Text_F_Bt);

  0001f	50		 push	 eax
  00020	8b cf		 mov	 ecx, edi
  00022	e8 00 00 00 00	 call	 ?SetToggle@CSymbolDlg@@AAEXPAVCWnd@@PAVCDynamicBitmapLoadButton@@@Z ; CSymbolDlg::SetToggle

; 312  : 	m_pMainSymbol->SetSymbolType(CSymbolBaseData::SYMBOL_TEXT_F);

  00027	6a 1e		 push	 30			; 0000001eH
  00029	e8 00 00 00 00	 call	 ?SetSymbolType@CMainSymbolImplementation@@SAXW4TOOLTYPE@CSymbolBaseData@@@Z ; CMainSymbolImplementation::SetSymbolType
  0002e	83 c4 04	 add	 esp, 4
  00031	5f		 pop	 edi
  00032	5e		 pop	 esi

; 313  : }

  00033	c3		 ret	 0
?OnTextF@CSymbolDlg@@IAEXXZ ENDP			; CSymbolDlg::OnTextF
_TEXT	ENDS
; Function compile flags: /Ogtp
; File D:\git\src\IBK\IBK_DRFN\ProjSrc\SrcChartEx\ChartAddIn\ChartAnalysisToolAddIn\Symbol\SymbolDlg.cpp
; File C:\Program Files (x86)\Microsoft Visual Studio\2019\Community\VC\Tools\MSVC\14.29.30133\atlmfc\include\afxwin2.inl
; File D:\git\src\IBK\IBK_DRFN\ProjSrc\SrcChartEx\ChartAddIn\ChartAnalysisToolAddIn\Symbol\SymbolDlg.cpp
;	COMDAT ?OnTextE@CSymbolDlg@@IAEXXZ
_TEXT	SEGMENT
?OnTextE@CSymbolDlg@@IAEXXZ PROC			; CSymbolDlg::OnTextE, COMDAT
; _this$ = ecx

; 302  : {

  00000	56		 push	 esi
  00001	57		 push	 edi
  00002	8b f9		 mov	 edi, ecx

; 303  : 	SetBuletType(CSymbolBaseData::SYMBOL_TEXT_E, &m_Text_E_Bt);

  00004	8d b7 b8 05 00
	00		 lea	 esi, DWORD PTR [edi+1464]
  0000a	56		 push	 esi
  0000b	6a 1d		 push	 29			; 0000001dH
  0000d	e8 00 00 00 00	 call	 ?SetBuletType@CSymbolDlg@@AAEXW4TOOLTYPE@CSymbolBaseData@@PAVCDynamicBitmapLoadButton@@@Z ; CSymbolDlg::SetBuletType

; 304  : 	SetToggle(GetFocus(), &m_Text_E_Bt);

  00012	56		 push	 esi
; File C:\Program Files (x86)\Microsoft Visual Studio\2019\Community\VC\Tools\MSVC\14.29.30133\atlmfc\include\afxwin2.inl

; 165  : 	{ return CWnd::FromHandle(::GetFocus()); }

  00013	ff 15 00 00 00
	00		 call	 DWORD PTR __imp__GetFocus@0
  00019	50		 push	 eax
  0001a	e8 00 00 00 00	 call	 ?FromHandle@CWnd@@SGPAV1@PAUHWND__@@@Z ; CWnd::FromHandle
; File D:\git\src\IBK\IBK_DRFN\ProjSrc\SrcChartEx\ChartAddIn\ChartAnalysisToolAddIn\Symbol\SymbolDlg.cpp

; 304  : 	SetToggle(GetFocus(), &m_Text_E_Bt);

  0001f	50		 push	 eax
  00020	8b cf		 mov	 ecx, edi
  00022	e8 00 00 00 00	 call	 ?SetToggle@CSymbolDlg@@AAEXPAVCWnd@@PAVCDynamicBitmapLoadButton@@@Z ; CSymbolDlg::SetToggle

; 305  : 	m_pMainSymbol->SetSymbolType(CSymbolBaseData::SYMBOL_TEXT_E);

  00027	6a 1d		 push	 29			; 0000001dH
  00029	e8 00 00 00 00	 call	 ?SetSymbolType@CMainSymbolImplementation@@SAXW4TOOLTYPE@CSymbolBaseData@@@Z ; CMainSymbolImplementation::SetSymbolType
  0002e	83 c4 04	 add	 esp, 4
  00031	5f		 pop	 edi
  00032	5e		 pop	 esi

; 306  : }

  00033	c3		 ret	 0
?OnTextE@CSymbolDlg@@IAEXXZ ENDP			; CSymbolDlg::OnTextE
_TEXT	ENDS
; Function compile flags: /Ogtp
; File D:\git\src\IBK\IBK_DRFN\ProjSrc\SrcChartEx\ChartAddIn\ChartAnalysisToolAddIn\Symbol\SymbolDlg.cpp
; File C:\Program Files (x86)\Microsoft Visual Studio\2019\Community\VC\Tools\MSVC\14.29.30133\atlmfc\include\afxwin2.inl
; File D:\git\src\IBK\IBK_DRFN\ProjSrc\SrcChartEx\ChartAddIn\ChartAnalysisToolAddIn\Symbol\SymbolDlg.cpp
;	COMDAT ?OnTextD@CSymbolDlg@@IAEXXZ
_TEXT	SEGMENT
?OnTextD@CSymbolDlg@@IAEXXZ PROC			; CSymbolDlg::OnTextD, COMDAT
; _this$ = ecx

; 295  : {

  00000	56		 push	 esi
  00001	57		 push	 edi
  00002	8b f9		 mov	 edi, ecx

; 296  : 	SetBuletType(CSymbolBaseData::SYMBOL_TEXT_D, &m_Text_D_Bt);

  00004	8d b7 48 06 00
	00		 lea	 esi, DWORD PTR [edi+1608]
  0000a	56		 push	 esi
  0000b	6a 1c		 push	 28			; 0000001cH
  0000d	e8 00 00 00 00	 call	 ?SetBuletType@CSymbolDlg@@AAEXW4TOOLTYPE@CSymbolBaseData@@PAVCDynamicBitmapLoadButton@@@Z ; CSymbolDlg::SetBuletType

; 297  : 	SetToggle(GetFocus(), &m_Text_D_Bt);

  00012	56		 push	 esi
; File C:\Program Files (x86)\Microsoft Visual Studio\2019\Community\VC\Tools\MSVC\14.29.30133\atlmfc\include\afxwin2.inl

; 165  : 	{ return CWnd::FromHandle(::GetFocus()); }

  00013	ff 15 00 00 00
	00		 call	 DWORD PTR __imp__GetFocus@0
  00019	50		 push	 eax
  0001a	e8 00 00 00 00	 call	 ?FromHandle@CWnd@@SGPAV1@PAUHWND__@@@Z ; CWnd::FromHandle
; File D:\git\src\IBK\IBK_DRFN\ProjSrc\SrcChartEx\ChartAddIn\ChartAnalysisToolAddIn\Symbol\SymbolDlg.cpp

; 297  : 	SetToggle(GetFocus(), &m_Text_D_Bt);

  0001f	50		 push	 eax
  00020	8b cf		 mov	 ecx, edi
  00022	e8 00 00 00 00	 call	 ?SetToggle@CSymbolDlg@@AAEXPAVCWnd@@PAVCDynamicBitmapLoadButton@@@Z ; CSymbolDlg::SetToggle

; 298  : 	m_pMainSymbol->SetSymbolType(CSymbolBaseData::SYMBOL_TEXT_D);

  00027	6a 1c		 push	 28			; 0000001cH
  00029	e8 00 00 00 00	 call	 ?SetSymbolType@CMainSymbolImplementation@@SAXW4TOOLTYPE@CSymbolBaseData@@@Z ; CMainSymbolImplementation::SetSymbolType
  0002e	83 c4 04	 add	 esp, 4
  00031	5f		 pop	 edi
  00032	5e		 pop	 esi

; 299  : }

  00033	c3		 ret	 0
?OnTextD@CSymbolDlg@@IAEXXZ ENDP			; CSymbolDlg::OnTextD
_TEXT	ENDS
; Function compile flags: /Ogtp
; File D:\git\src\IBK\IBK_DRFN\ProjSrc\SrcChartEx\ChartAddIn\ChartAnalysisToolAddIn\Symbol\SymbolDlg.cpp
; File C:\Program Files (x86)\Microsoft Visual Studio\2019\Community\VC\Tools\MSVC\14.29.30133\atlmfc\include\afxwin2.inl
; File D:\git\src\IBK\IBK_DRFN\ProjSrc\SrcChartEx\ChartAddIn\ChartAnalysisToolAddIn\Symbol\SymbolDlg.cpp
;	COMDAT ?OnNumNine@CSymbolDlg@@IAEXXZ
_TEXT	SEGMENT
?OnNumNine@CSymbolDlg@@IAEXXZ PROC			; CSymbolDlg::OnNumNine, COMDAT
; _this$ = ecx

; 232  : {

  00000	56		 push	 esi
  00001	57		 push	 edi
  00002	8b f9		 mov	 edi, ecx

; 233  : 	SetBuletType(CSymbolBaseData::SYMBOL_NUM_NINE, &m_NumNine_Bt);

  00004	8d b7 08 0d 00
	00		 lea	 esi, DWORD PTR [edi+3336]
  0000a	56		 push	 esi
  0000b	6a 17		 push	 23			; 00000017H
  0000d	e8 00 00 00 00	 call	 ?SetBuletType@CSymbolDlg@@AAEXW4TOOLTYPE@CSymbolBaseData@@PAVCDynamicBitmapLoadButton@@@Z ; CSymbolDlg::SetBuletType

; 234  : 	SetToggle(GetFocus(), &m_NumNine_Bt);

  00012	56		 push	 esi
; File C:\Program Files (x86)\Microsoft Visual Studio\2019\Community\VC\Tools\MSVC\14.29.30133\atlmfc\include\afxwin2.inl

; 165  : 	{ return CWnd::FromHandle(::GetFocus()); }

  00013	ff 15 00 00 00
	00		 call	 DWORD PTR __imp__GetFocus@0
  00019	50		 push	 eax
  0001a	e8 00 00 00 00	 call	 ?FromHandle@CWnd@@SGPAV1@PAUHWND__@@@Z ; CWnd::FromHandle
; File D:\git\src\IBK\IBK_DRFN\ProjSrc\SrcChartEx\ChartAddIn\ChartAnalysisToolAddIn\Symbol\SymbolDlg.cpp

; 234  : 	SetToggle(GetFocus(), &m_NumNine_Bt);

  0001f	50		 push	 eax
  00020	8b cf		 mov	 ecx, edi
  00022	e8 00 00 00 00	 call	 ?SetToggle@CSymbolDlg@@AAEXPAVCWnd@@PAVCDynamicBitmapLoadButton@@@Z ; CSymbolDlg::SetToggle

; 235  : 	m_pMainSymbol->SetSymbolType(CSymbolBaseData::SYMBOL_NUM_NINE);

  00027	6a 17		 push	 23			; 00000017H
  00029	e8 00 00 00 00	 call	 ?SetSymbolType@CMainSymbolImplementation@@SAXW4TOOLTYPE@CSymbolBaseData@@@Z ; CMainSymbolImplementation::SetSymbolType
  0002e	83 c4 04	 add	 esp, 4
  00031	5f		 pop	 edi
  00032	5e		 pop	 esi

; 236  : }

  00033	c3		 ret	 0
?OnNumNine@CSymbolDlg@@IAEXXZ ENDP			; CSymbolDlg::OnNumNine
_TEXT	ENDS
; Function compile flags: /Ogtp
; File D:\git\src\IBK\IBK_DRFN\ProjSrc\SrcChartEx\ChartAddIn\ChartAnalysisToolAddIn\Symbol\SymbolDlg.cpp
; File C:\Program Files (x86)\Microsoft Visual Studio\2019\Community\VC\Tools\MSVC\14.29.30133\atlmfc\include\afxwin2.inl
; File D:\git\src\IBK\IBK_DRFN\ProjSrc\SrcChartEx\ChartAddIn\ChartAnalysisToolAddIn\Symbol\SymbolDlg.cpp
;	COMDAT ?OnNumEight@CSymbolDlg@@IAEXXZ
_TEXT	SEGMENT
?OnNumEight@CSymbolDlg@@IAEXXZ PROC			; CSymbolDlg::OnNumEight, COMDAT
; _this$ = ecx

; 225  : {

  00000	56		 push	 esi
  00001	57		 push	 edi
  00002	8b f9		 mov	 edi, ecx

; 226  : 	SetBuletType(CSymbolBaseData::SYMBOL_NUM_EIGHT, &m_NumEight_Bt);

  00004	8d b7 78 0c 00
	00		 lea	 esi, DWORD PTR [edi+3192]
  0000a	56		 push	 esi
  0000b	6a 16		 push	 22			; 00000016H
  0000d	e8 00 00 00 00	 call	 ?SetBuletType@CSymbolDlg@@AAEXW4TOOLTYPE@CSymbolBaseData@@PAVCDynamicBitmapLoadButton@@@Z ; CSymbolDlg::SetBuletType

; 227  : 	SetToggle(GetFocus(), &m_NumEight_Bt);

  00012	56		 push	 esi
; File C:\Program Files (x86)\Microsoft Visual Studio\2019\Community\VC\Tools\MSVC\14.29.30133\atlmfc\include\afxwin2.inl

; 165  : 	{ return CWnd::FromHandle(::GetFocus()); }

  00013	ff 15 00 00 00
	00		 call	 DWORD PTR __imp__GetFocus@0
  00019	50		 push	 eax
  0001a	e8 00 00 00 00	 call	 ?FromHandle@CWnd@@SGPAV1@PAUHWND__@@@Z ; CWnd::FromHandle
; File D:\git\src\IBK\IBK_DRFN\ProjSrc\SrcChartEx\ChartAddIn\ChartAnalysisToolAddIn\Symbol\SymbolDlg.cpp

; 227  : 	SetToggle(GetFocus(), &m_NumEight_Bt);

  0001f	50		 push	 eax
  00020	8b cf		 mov	 ecx, edi
  00022	e8 00 00 00 00	 call	 ?SetToggle@CSymbolDlg@@AAEXPAVCWnd@@PAVCDynamicBitmapLoadButton@@@Z ; CSymbolDlg::SetToggle

; 228  : 	m_pMainSymbol->SetSymbolType(CSymbolBaseData::SYMBOL_NUM_EIGHT);

  00027	6a 16		 push	 22			; 00000016H
  00029	e8 00 00 00 00	 call	 ?SetSymbolType@CMainSymbolImplementation@@SAXW4TOOLTYPE@CSymbolBaseData@@@Z ; CMainSymbolImplementation::SetSymbolType
  0002e	83 c4 04	 add	 esp, 4
  00031	5f		 pop	 edi
  00032	5e		 pop	 esi

; 229  : }

  00033	c3		 ret	 0
?OnNumEight@CSymbolDlg@@IAEXXZ ENDP			; CSymbolDlg::OnNumEight
_TEXT	ENDS
; Function compile flags: /Ogtp
; File D:\git\src\IBK\IBK_DRFN\ProjSrc\SrcChartEx\ChartAddIn\ChartAnalysisToolAddIn\Symbol\SymbolDlg.cpp
; File C:\Program Files (x86)\Microsoft Visual Studio\2019\Community\VC\Tools\MSVC\14.29.30133\atlmfc\include\afxwin2.inl
; File D:\git\src\IBK\IBK_DRFN\ProjSrc\SrcChartEx\ChartAddIn\ChartAnalysisToolAddIn\Symbol\SymbolDlg.cpp
;	COMDAT ?OnNumSeven@CSymbolDlg@@IAEXXZ
_TEXT	SEGMENT
?OnNumSeven@CSymbolDlg@@IAEXXZ PROC			; CSymbolDlg::OnNumSeven, COMDAT
; _this$ = ecx

; 218  : {

  00000	56		 push	 esi
  00001	57		 push	 edi
  00002	8b f9		 mov	 edi, ecx

; 219  : 	SetBuletType(CSymbolBaseData::SYMBOL_NUM_SEVEN, &m_NumSeven_Bt);

  00004	8d b7 e8 0b 00
	00		 lea	 esi, DWORD PTR [edi+3048]
  0000a	56		 push	 esi
  0000b	6a 15		 push	 21			; 00000015H
  0000d	e8 00 00 00 00	 call	 ?SetBuletType@CSymbolDlg@@AAEXW4TOOLTYPE@CSymbolBaseData@@PAVCDynamicBitmapLoadButton@@@Z ; CSymbolDlg::SetBuletType

; 220  : 	SetToggle(GetFocus(), &m_NumSeven_Bt);

  00012	56		 push	 esi
; File C:\Program Files (x86)\Microsoft Visual Studio\2019\Community\VC\Tools\MSVC\14.29.30133\atlmfc\include\afxwin2.inl

; 165  : 	{ return CWnd::FromHandle(::GetFocus()); }

  00013	ff 15 00 00 00
	00		 call	 DWORD PTR __imp__GetFocus@0
  00019	50		 push	 eax
  0001a	e8 00 00 00 00	 call	 ?FromHandle@CWnd@@SGPAV1@PAUHWND__@@@Z ; CWnd::FromHandle
; File D:\git\src\IBK\IBK_DRFN\ProjSrc\SrcChartEx\ChartAddIn\ChartAnalysisToolAddIn\Symbol\SymbolDlg.cpp

; 220  : 	SetToggle(GetFocus(), &m_NumSeven_Bt);

  0001f	50		 push	 eax
  00020	8b cf		 mov	 ecx, edi
  00022	e8 00 00 00 00	 call	 ?SetToggle@CSymbolDlg@@AAEXPAVCWnd@@PAVCDynamicBitmapLoadButton@@@Z ; CSymbolDlg::SetToggle

; 221  : 	m_pMainSymbol->SetSymbolType(CSymbolBaseData::SYMBOL_NUM_SEVEN);

  00027	6a 15		 push	 21			; 00000015H
  00029	e8 00 00 00 00	 call	 ?SetSymbolType@CMainSymbolImplementation@@SAXW4TOOLTYPE@CSymbolBaseData@@@Z ; CMainSymbolImplementation::SetSymbolType
  0002e	83 c4 04	 add	 esp, 4
  00031	5f		 pop	 edi
  00032	5e		 pop	 esi

; 222  : }

  00033	c3		 ret	 0
?OnNumSeven@CSymbolDlg@@IAEXXZ ENDP			; CSymbolDlg::OnNumSeven
_TEXT	ENDS
; Function compile flags: /Ogtp
; File D:\git\src\IBK\IBK_DRFN\ProjSrc\SrcChartEx\ChartAddIn\ChartAnalysisToolAddIn\Symbol\SymbolDlg.cpp
; File C:\Program Files (x86)\Microsoft Visual Studio\2019\Community\VC\Tools\MSVC\14.29.30133\atlmfc\include\afxwin2.inl
; File D:\git\src\IBK\IBK_DRFN\ProjSrc\SrcChartEx\ChartAddIn\ChartAnalysisToolAddIn\Symbol\SymbolDlg.cpp
;	COMDAT ?OnNumTen@CSymbolDlg@@IAEXXZ
_TEXT	SEGMENT
?OnNumTen@CSymbolDlg@@IAEXXZ PROC			; CSymbolDlg::OnNumTen, COMDAT
; _this$ = ecx

; 239  : {

  00000	56		 push	 esi
  00001	57		 push	 edi
  00002	8b f9		 mov	 edi, ecx

; 240  : 	SetBuletType(CSymbolBaseData::SYMBOL_NUM_TEN, &m_NumTen_Bt);

  00004	8d b7 98 0d 00
	00		 lea	 esi, DWORD PTR [edi+3480]
  0000a	56		 push	 esi
  0000b	6a 18		 push	 24			; 00000018H
  0000d	e8 00 00 00 00	 call	 ?SetBuletType@CSymbolDlg@@AAEXW4TOOLTYPE@CSymbolBaseData@@PAVCDynamicBitmapLoadButton@@@Z ; CSymbolDlg::SetBuletType

; 241  : 	SetToggle(GetFocus(), &m_NumTen_Bt);

  00012	56		 push	 esi
; File C:\Program Files (x86)\Microsoft Visual Studio\2019\Community\VC\Tools\MSVC\14.29.30133\atlmfc\include\afxwin2.inl

; 165  : 	{ return CWnd::FromHandle(::GetFocus()); }

  00013	ff 15 00 00 00
	00		 call	 DWORD PTR __imp__GetFocus@0
  00019	50		 push	 eax
  0001a	e8 00 00 00 00	 call	 ?FromHandle@CWnd@@SGPAV1@PAUHWND__@@@Z ; CWnd::FromHandle
; File D:\git\src\IBK\IBK_DRFN\ProjSrc\SrcChartEx\ChartAddIn\ChartAnalysisToolAddIn\Symbol\SymbolDlg.cpp

; 241  : 	SetToggle(GetFocus(), &m_NumTen_Bt);

  0001f	50		 push	 eax
  00020	8b cf		 mov	 ecx, edi
  00022	e8 00 00 00 00	 call	 ?SetToggle@CSymbolDlg@@AAEXPAVCWnd@@PAVCDynamicBitmapLoadButton@@@Z ; CSymbolDlg::SetToggle

; 242  : 	m_pMainSymbol->SetSymbolType(CSymbolBaseData::SYMBOL_NUM_TEN);

  00027	6a 18		 push	 24			; 00000018H
  00029	e8 00 00 00 00	 call	 ?SetSymbolType@CMainSymbolImplementation@@SAXW4TOOLTYPE@CSymbolBaseData@@@Z ; CMainSymbolImplementation::SetSymbolType
  0002e	83 c4 04	 add	 esp, 4
  00031	5f		 pop	 edi
  00032	5e		 pop	 esi

; 243  : }

  00033	c3		 ret	 0
?OnNumTen@CSymbolDlg@@IAEXXZ ENDP			; CSymbolDlg::OnNumTen
_TEXT	ENDS
; Function compile flags: /Ogtp
; File D:\git\src\IBK\IBK_DRFN\ProjSrc\SrcChartEx\ChartAddIn\ChartAnalysisToolAddIn\Symbol\SymbolDlg.cpp
; File C:\Program Files (x86)\Microsoft Visual Studio\2019\Community\VC\Tools\MSVC\14.29.30133\atlmfc\include\afxwin2.inl
; File D:\git\src\IBK\IBK_DRFN\ProjSrc\SrcChartEx\ChartAddIn\ChartAnalysisToolAddIn\Symbol\SymbolDlg.cpp
;	COMDAT ?OnNumSix@CSymbolDlg@@IAEXXZ
_TEXT	SEGMENT
?OnNumSix@CSymbolDlg@@IAEXXZ PROC			; CSymbolDlg::OnNumSix, COMDAT
; _this$ = ecx

; 211  : {

  00000	56		 push	 esi
  00001	57		 push	 edi
  00002	8b f9		 mov	 edi, ecx

; 212  : 	SetBuletType(CSymbolBaseData::SYMBOL_NUM_SIX, &m_NumSix_Bt);

  00004	8d b7 58 0b 00
	00		 lea	 esi, DWORD PTR [edi+2904]
  0000a	56		 push	 esi
  0000b	6a 14		 push	 20			; 00000014H
  0000d	e8 00 00 00 00	 call	 ?SetBuletType@CSymbolDlg@@AAEXW4TOOLTYPE@CSymbolBaseData@@PAVCDynamicBitmapLoadButton@@@Z ; CSymbolDlg::SetBuletType

; 213  : 	SetToggle(GetFocus(), &m_NumSix_Bt);

  00012	56		 push	 esi
; File C:\Program Files (x86)\Microsoft Visual Studio\2019\Community\VC\Tools\MSVC\14.29.30133\atlmfc\include\afxwin2.inl

; 165  : 	{ return CWnd::FromHandle(::GetFocus()); }

  00013	ff 15 00 00 00
	00		 call	 DWORD PTR __imp__GetFocus@0
  00019	50		 push	 eax
  0001a	e8 00 00 00 00	 call	 ?FromHandle@CWnd@@SGPAV1@PAUHWND__@@@Z ; CWnd::FromHandle
; File D:\git\src\IBK\IBK_DRFN\ProjSrc\SrcChartEx\ChartAddIn\ChartAnalysisToolAddIn\Symbol\SymbolDlg.cpp

; 213  : 	SetToggle(GetFocus(), &m_NumSix_Bt);

  0001f	50		 push	 eax
  00020	8b cf		 mov	 ecx, edi
  00022	e8 00 00 00 00	 call	 ?SetToggle@CSymbolDlg@@AAEXPAVCWnd@@PAVCDynamicBitmapLoadButton@@@Z ; CSymbolDlg::SetToggle

; 214  : 	m_pMainSymbol->SetSymbolType(CSymbolBaseData::SYMBOL_NUM_SIX);

  00027	6a 14		 push	 20			; 00000014H
  00029	e8 00 00 00 00	 call	 ?SetSymbolType@CMainSymbolImplementation@@SAXW4TOOLTYPE@CSymbolBaseData@@@Z ; CMainSymbolImplementation::SetSymbolType
  0002e	83 c4 04	 add	 esp, 4
  00031	5f		 pop	 edi
  00032	5e		 pop	 esi

; 215  : }

  00033	c3		 ret	 0
?OnNumSix@CSymbolDlg@@IAEXXZ ENDP			; CSymbolDlg::OnNumSix
_TEXT	ENDS
; Function compile flags: /Ogtp
; File D:\git\src\IBK\IBK_DRFN\ProjSrc\SrcChartEx\ChartAddIn\ChartAnalysisToolAddIn\Symbol\SymbolDlg.cpp
; File C:\Program Files (x86)\Microsoft Visual Studio\2019\Community\VC\Tools\MSVC\14.29.30133\atlmfc\include\afxdlgs.h
; File D:\git\src\IBK\IBK_DRFN\ProjSrc\SrcChartEx\ChartAddIn\ChartAnalysisToolAddIn\Symbol\SymbolDlg.cpp
;	COMDAT ?OnFont@CSymbolDlg@@IAEXXZ
_TEXT	SEGMENT
$T2 = -372						; size = 4
_fontDlg$ = -368					; size = 352
__$ArrayPad$ = -16					; size = 4
__$EHRec$ = -12						; size = 12
?OnFont@CSymbolDlg@@IAEXXZ PROC				; CSymbolDlg::OnFont, COMDAT
; _this$ = ecx

; 434  : {

  00000	55		 push	 ebp
  00001	8b ec		 mov	 ebp, esp
  00003	6a ff		 push	 -1
  00005	68 00 00 00 00	 push	 __ehhandler$?OnFont@CSymbolDlg@@IAEXXZ
  0000a	64 a1 00 00 00
	00		 mov	 eax, DWORD PTR fs:0
  00010	50		 push	 eax
  00011	81 ec 68 01 00
	00		 sub	 esp, 360		; 00000168H
  00017	a1 00 00 00 00	 mov	 eax, DWORD PTR ___security_cookie
  0001c	33 c5		 xor	 eax, ebp
  0001e	89 45 f0	 mov	 DWORD PTR __$ArrayPad$[ebp], eax
  00021	56		 push	 esi
  00022	57		 push	 edi
  00023	50		 push	 eax
  00024	8d 45 f4	 lea	 eax, DWORD PTR __$EHRec$[ebp]
  00027	64 a3 00 00 00
	00		 mov	 DWORD PTR fs:0, eax
  0002d	8b f9		 mov	 edi, ecx

; 435  : 	//sy 2005.03.30.
; 436  : 	CPropertiesData_text* pPropertiesData_Text = m_pSymbolData->GetPropertiesData();

  0002f	8b 8f d4 13 00
	00		 mov	 ecx, DWORD PTR [edi+5076]
  00035	e8 00 00 00 00	 call	 ?GetPropertiesData@CSymbolData@@QAEPAVCPropertiesData_text@@XZ ; CSymbolData::GetPropertiesData
  0003a	8b f0		 mov	 esi, eax

; 437  : 	if(pPropertiesData_Text == NULL)

  0003c	85 f6		 test	 esi, esi
  0003e	0f 84 99 00 00
	00		 je	 $LN10@OnFont

; 438  : 		return;
; 439  : 
; 440  : 	CFontDialog fontDlg(&pPropertiesData_Text->GetLogFont());

  00044	6a 00		 push	 0
  00046	6a 00		 push	 0
  00048	68 01 01 00 00	 push	 257			; 00000101H
  0004d	8b ce		 mov	 ecx, esi
  0004f	e8 00 00 00 00	 call	 ?GetLogFont@CPropertiesData_Symbol@@QAEAAUtagLOGFONTA@@XZ ; CPropertiesData_Symbol::GetLogFont
  00054	50		 push	 eax
  00055	8d 8d 90 fe ff
	ff		 lea	 ecx, DWORD PTR _fontDlg$[ebp]
  0005b	e8 00 00 00 00	 call	 ??0CFontDialog@@QAE@PAUtagLOGFONTA@@KPAVCDC@@PAVCWnd@@@Z ; CFontDialog::CFontDialog

; 441  : 	fontDlg.m_cf.rgbColors = pPropertiesData_Text->GetTextColor();

  00060	8b ce		 mov	 ecx, esi
  00062	c7 45 fc 00 00
	00 00		 mov	 DWORD PTR __$EHRec$[ebp+8], 0
  00069	e8 00 00 00 00	 call	 ?GetTextColor@CPropertiesData_Symbol@@QBEKXZ ; CPropertiesData_Symbol::GetTextColor

; 442  : 	if(fontDlg.DoModal() == IDOK)

  0006e	8d 8d 90 fe ff
	ff		 lea	 ecx, DWORD PTR _fontDlg$[ebp]
  00074	89 85 50 ff ff
	ff		 mov	 DWORD PTR _fontDlg$[ebp+192], eax
  0007a	e8 00 00 00 00	 call	 ?DoModal@CFontDialog@@UAEHXZ ; CFontDialog::DoModal
  0007f	83 f8 01	 cmp	 eax, 1
  00082	75 44		 jne	 SHORT $LN3@OnFont

; 443  : 	{
; 444  : 		fontDlg.GetCurrentFont(&pPropertiesData_Text->GetLogFont());

  00084	8b ce		 mov	 ecx, esi
  00086	e8 00 00 00 00	 call	 ?GetLogFont@CPropertiesData_Symbol@@QAEAAUtagLOGFONTA@@XZ ; CPropertiesData_Symbol::GetLogFont
  0008b	50		 push	 eax
  0008c	8d 8d 90 fe ff
	ff		 lea	 ecx, DWORD PTR _fontDlg$[ebp]
  00092	e8 00 00 00 00	 call	 ?GetCurrentFont@CFontDialog@@QAEXPAUtagLOGFONTA@@@Z ; CFontDialog::GetCurrentFont

; 445  : 		pPropertiesData_Text->SetTextColor(fontDlg.GetColor());

  00097	8b 85 50 ff ff
	ff		 mov	 eax, DWORD PTR _fontDlg$[ebp+192]
  0009d	8b ce		 mov	 ecx, esi
  0009f	89 85 8c fe ff
	ff		 mov	 DWORD PTR $T2[ebp], eax
  000a5	8d 85 8c fe ff
	ff		 lea	 eax, DWORD PTR $T2[ebp]
  000ab	50		 push	 eax
  000ac	e8 00 00 00 00	 call	 ?SetTextColor@CPropertiesData_Symbol@@QAEXABK@Z ; CPropertiesData_Symbol::SetTextColor

; 446  : 		m_PreView_Static.ModifySymbolType(m_pSymbolData->GetBuletType());

  000b1	8b 8f d4 13 00
	00		 mov	 ecx, DWORD PTR [edi+5076]
  000b7	e8 00 00 00 00	 call	 ?GetBuletType@CSymbolData@@QBE?AW4TOOLTYPE@CSymbolBaseData@@XZ ; CSymbolData::GetBuletType
  000bc	50		 push	 eax
  000bd	8d 8f 88 11 00
	00		 lea	 ecx, DWORD PTR [edi+4488]
  000c3	e8 00 00 00 00	 call	 ?ModifySymbolType@CPreView@@QAEXW4TOOLTYPE@CSymbolBaseData@@@Z ; CPreView::ModifySymbolType
$LN3@OnFont:
; File C:\Program Files (x86)\Microsoft Visual Studio\2019\Community\VC\Tools\MSVC\14.29.30133\atlmfc\include\afxdlgs.h

; 110  :     virtual ~CCommonDialog() {};

  000c8	8d 8d 90 fe ff
	ff		 lea	 ecx, DWORD PTR _fontDlg$[ebp]
  000ce	c7 85 90 fe ff
	ff 00 00 00 00	 mov	 DWORD PTR _fontDlg$[ebp], OFFSET ??_7CCommonDialog@@6B@
  000d8	e8 00 00 00 00	 call	 ??1CDialog@@UAE@XZ	; CDialog::~CDialog
$LN10@OnFont:
; File D:\git\src\IBK\IBK_DRFN\ProjSrc\SrcChartEx\ChartAddIn\ChartAnalysisToolAddIn\Symbol\SymbolDlg.cpp

; 448  : }

  000dd	8b 4d f4	 mov	 ecx, DWORD PTR __$EHRec$[ebp]
  000e0	64 89 0d 00 00
	00 00		 mov	 DWORD PTR fs:0, ecx
  000e7	59		 pop	 ecx
  000e8	5f		 pop	 edi
  000e9	5e		 pop	 esi
  000ea	8b 4d f0	 mov	 ecx, DWORD PTR __$ArrayPad$[ebp]
  000ed	33 cd		 xor	 ecx, ebp
  000ef	e8 00 00 00 00	 call	 @__security_check_cookie@4
  000f4	8b e5		 mov	 esp, ebp
  000f6	5d		 pop	 ebp
  000f7	c3		 ret	 0
_TEXT	ENDS
;	COMDAT text$x
text$x	SEGMENT
__unwindfunclet$?OnFont@CSymbolDlg@@IAEXXZ$0:
  00000	8d 8d 90 fe ff
	ff		 lea	 ecx, DWORD PTR _fontDlg$[ebp]
  00006	e9 00 00 00 00	 jmp	 ??1CFontDialog@@UAE@XZ
  0000b	cc		 int	 3
  0000c	cc		 int	 3
  0000d	cc		 int	 3
  0000e	cc		 int	 3
  0000f	cc		 int	 3
__ehhandler$?OnFont@CSymbolDlg@@IAEXXZ:
  00010	90		 npad	 1
  00011	90		 npad	 1
  00012	8b 54 24 08	 mov	 edx, DWORD PTR [esp+8]
  00016	8d 42 0c	 lea	 eax, DWORD PTR [edx+12]
  00019	8b 8a 8c fe ff
	ff		 mov	 ecx, DWORD PTR [edx-372]
  0001f	33 c8		 xor	 ecx, eax
  00021	e8 00 00 00 00	 call	 @__security_check_cookie@4
  00026	8b 4a fc	 mov	 ecx, DWORD PTR [edx-4]
  00029	33 c8		 xor	 ecx, eax
  0002b	e8 00 00 00 00	 call	 @__security_check_cookie@4
  00030	b8 00 00 00 00	 mov	 eax, OFFSET __ehfuncinfo$?OnFont@CSymbolDlg@@IAEXXZ
  00035	e9 00 00 00 00	 jmp	 ___CxxFrameHandler3
text$x	ENDS
?OnFont@CSymbolDlg@@IAEXXZ ENDP				; CSymbolDlg::OnFont
; Function compile flags: /Ogtp
; File D:\git\src\IBK\IBK_DRFN\ProjSrc\SrcChartEx\ChartAddIn\ChartAnalysisToolAddIn\Symbol\SymbolDlg.cpp
; File C:\Program Files (x86)\Microsoft Visual Studio\2019\Community\VC\Tools\MSVC\14.29.30133\atlmfc\include\afxwin2.inl
; File D:\git\src\IBK\IBK_DRFN\ProjSrc\SrcChartEx\ChartAddIn\ChartAnalysisToolAddIn\Symbol\SymbolDlg.cpp
; File C:\Program Files (x86)\Microsoft Visual Studio\2019\Community\VC\Tools\MSVC\14.29.30133\atlmfc\include\afxdlgs.h
; File D:\git\src\IBK\IBK_DRFN\ProjSrc\SrcChartEx\ChartAddIn\ChartAnalysisToolAddIn\Symbol\SymbolDlg.cpp
;	COMDAT ?OnColor@CSymbolDlg@@IAEXXZ
_TEXT	SEGMENT
_color$ = -224						; size = 208
$T2 = -16						; size = 4
$T3 = -16						; size = 4
__$EHRec$ = -12						; size = 12
?OnColor@CSymbolDlg@@IAEXXZ PROC			; CSymbolDlg::OnColor, COMDAT
; _this$ = ecx

; 423  : {

  00000	55		 push	 ebp
  00001	8b ec		 mov	 ebp, esp
  00003	6a ff		 push	 -1
  00005	68 00 00 00 00	 push	 __ehhandler$?OnColor@CSymbolDlg@@IAEXXZ
  0000a	64 a1 00 00 00
	00		 mov	 eax, DWORD PTR fs:0
  00010	50		 push	 eax
  00011	81 ec d4 00 00
	00		 sub	 esp, 212		; 000000d4H
  00017	56		 push	 esi
  00018	a1 00 00 00 00	 mov	 eax, DWORD PTR ___security_cookie
  0001d	33 c5		 xor	 eax, ebp
  0001f	50		 push	 eax
  00020	8d 45 f4	 lea	 eax, DWORD PTR __$EHRec$[ebp]
  00023	64 a3 00 00 00
	00		 mov	 DWORD PTR fs:0, eax
  00029	8b f1		 mov	 esi, ecx

; 424  : 	CColorDialog color;

  0002b	6a 00		 push	 0
  0002d	6a 00		 push	 0
  0002f	6a 00		 push	 0
  00031	8d 8d 20 ff ff
	ff		 lea	 ecx, DWORD PTR _color$[ebp]
  00037	e8 00 00 00 00	 call	 ??0CColorDialog@@QAE@KKPAVCWnd@@@Z ; CColorDialog::CColorDialog

; 425  : 	if(color.DoModal() == IDOK) {

  0003c	8d 8d 20 ff ff
	ff		 lea	 ecx, DWORD PTR _color$[ebp]
  00042	c7 45 fc 00 00
	00 00		 mov	 DWORD PTR __$EHRec$[ebp+8], 0
  00049	e8 00 00 00 00	 call	 ?DoModal@CColorDialog@@UAEHXZ ; CColorDialog::DoModal
  0004e	83 f8 01	 cmp	 eax, 1
  00051	75 67		 jne	 SHORT $LN2@OnColor

; 426  : 		m_pSymbolData->GetPropertiesData()->SetColor(color.GetColor());

  00053	8b 45 d4	 mov	 eax, DWORD PTR _color$[ebp+180]
  00056	8b 8e d4 13 00
	00		 mov	 ecx, DWORD PTR [esi+5076]
  0005c	89 45 f0	 mov	 DWORD PTR $T3[ebp], eax
  0005f	8d 45 f0	 lea	 eax, DWORD PTR $T3[ebp]
  00062	50		 push	 eax
  00063	e8 00 00 00 00	 call	 ?GetPropertiesData@CSymbolData@@QAEPAVCPropertiesData_text@@XZ ; CSymbolData::GetPropertiesData
  00068	8b c8		 mov	 ecx, eax
  0006a	e8 00 00 00 00	 call	 ?SetColor@CPropertiesData_Figure@@QAEXABK@Z ; CPropertiesData_Figure::SetColor

; 427  : 		m_Color_Bt.SetColor(m_pSymbolData->GetPropertiesData()->GetColor());

  0006f	8b 8e d4 13 00
	00		 mov	 ecx, DWORD PTR [esi+5076]
  00075	e8 00 00 00 00	 call	 ?GetPropertiesData@CSymbolData@@QAEPAVCPropertiesData_text@@XZ ; CSymbolData::GetPropertiesData
  0007a	8b c8		 mov	 ecx, eax
  0007c	e8 00 00 00 00	 call	 ?GetColor@CPropertiesData_Figure@@QAEKXZ ; CPropertiesData_Figure::GetColor
  00081	89 45 f0	 mov	 DWORD PTR $T2[ebp], eax
  00084	8d 8e 28 12 00
	00		 lea	 ecx, DWORD PTR [esi+4648]
  0008a	8d 45 f0	 lea	 eax, DWORD PTR $T2[ebp]
  0008d	50		 push	 eax
  0008e	e8 00 00 00 00	 call	 ?SetColor@CColorButton@@QAEXABK@Z ; CColorButton::SetColor
; File C:\Program Files (x86)\Microsoft Visual Studio\2019\Community\VC\Tools\MSVC\14.29.30133\atlmfc\include\afxwin2.inl

; 114  : 	{ ASSERT(::IsWindow(m_hWnd)); ::InvalidateRect(m_hWnd, NULL, bErase); }

  00093	6a 01		 push	 1
  00095	6a 00		 push	 0
  00097	ff b6 48 12 00
	00		 push	 DWORD PTR [esi+4680]
  0009d	ff 15 00 00 00
	00		 call	 DWORD PTR __imp__InvalidateRect@12
; File D:\git\src\IBK\IBK_DRFN\ProjSrc\SrcChartEx\ChartAddIn\ChartAnalysisToolAddIn\Symbol\SymbolDlg.cpp

; 429  : 		m_PreView_Static.ModifySymbolType(m_pSymbolData->GetBuletType());

  000a3	8b 8e d4 13 00
	00		 mov	 ecx, DWORD PTR [esi+5076]
  000a9	e8 00 00 00 00	 call	 ?GetBuletType@CSymbolData@@QBE?AW4TOOLTYPE@CSymbolBaseData@@XZ ; CSymbolData::GetBuletType
  000ae	50		 push	 eax
  000af	8d 8e 88 11 00
	00		 lea	 ecx, DWORD PTR [esi+4488]
  000b5	e8 00 00 00 00	 call	 ?ModifySymbolType@CPreView@@QAEXW4TOOLTYPE@CSymbolBaseData@@@Z ; CPreView::ModifySymbolType
$LN2@OnColor:
; File C:\Program Files (x86)\Microsoft Visual Studio\2019\Community\VC\Tools\MSVC\14.29.30133\atlmfc\include\afxdlgs.h

; 110  :     virtual ~CCommonDialog() {};

  000ba	8d 8d 20 ff ff
	ff		 lea	 ecx, DWORD PTR _color$[ebp]
  000c0	c7 85 20 ff ff
	ff 00 00 00 00	 mov	 DWORD PTR _color$[ebp], OFFSET ??_7CCommonDialog@@6B@
  000ca	e8 00 00 00 00	 call	 ??1CDialog@@UAE@XZ	; CDialog::~CDialog
; File D:\git\src\IBK\IBK_DRFN\ProjSrc\SrcChartEx\ChartAddIn\ChartAnalysisToolAddIn\Symbol\SymbolDlg.cpp

; 431  : }

  000cf	8b 4d f4	 mov	 ecx, DWORD PTR __$EHRec$[ebp]
  000d2	64 89 0d 00 00
	00 00		 mov	 DWORD PTR fs:0, ecx
  000d9	59		 pop	 ecx
  000da	5e		 pop	 esi
  000db	8b e5		 mov	 esp, ebp
  000dd	5d		 pop	 ebp
  000de	c3		 ret	 0
_TEXT	ENDS
;	COMDAT text$x
text$x	SEGMENT
__unwindfunclet$?OnColor@CSymbolDlg@@IAEXXZ$0:
  00000	8d 8d 20 ff ff
	ff		 lea	 ecx, DWORD PTR _color$[ebp]
  00006	e9 00 00 00 00	 jmp	 ??1CColorDialog@@UAE@XZ
  0000b	cc		 int	 3
  0000c	cc		 int	 3
  0000d	cc		 int	 3
  0000e	cc		 int	 3
  0000f	cc		 int	 3
__ehhandler$?OnColor@CSymbolDlg@@IAEXXZ:
  00010	90		 npad	 1
  00011	90		 npad	 1
  00012	8b 54 24 08	 mov	 edx, DWORD PTR [esp+8]
  00016	8d 42 0c	 lea	 eax, DWORD PTR [edx+12]
  00019	8b 8a 24 ff ff
	ff		 mov	 ecx, DWORD PTR [edx-220]
  0001f	33 c8		 xor	 ecx, eax
  00021	e8 00 00 00 00	 call	 @__security_check_cookie@4
  00026	b8 00 00 00 00	 mov	 eax, OFFSET __ehfuncinfo$?OnColor@CSymbolDlg@@IAEXXZ
  0002b	e9 00 00 00 00	 jmp	 ___CxxFrameHandler3
text$x	ENDS
?OnColor@CSymbolDlg@@IAEXXZ ENDP			; CSymbolDlg::OnColor
; Function compile flags: /Ogtp
; File D:\git\src\IBK\IBK_DRFN\ProjSrc\SrcChartEx\ChartAddIn\ChartAnalysisToolAddIn\Symbol\SymbolDlg.cpp
; File C:\Program Files (x86)\Microsoft Visual Studio\2019\Community\VC\Tools\MSVC\14.29.30133\atlmfc\include\afxwin2.inl
; File D:\git\src\IBK\IBK_DRFN\ProjSrc\SrcChartEx\ChartAddIn\ChartAnalysisToolAddIn\Symbol\SymbolDlg.cpp
;	COMDAT ?OnSelchangeSymbolSize@CSymbolDlg@@IAEXXZ
_TEXT	SEGMENT
?OnSelchangeSymbolSize@CSymbolDlg@@IAEXXZ PROC		; CSymbolDlg::OnSelchangeSymbolSize, COMDAT
; _this$ = ecx

; 136  : {

  00000	56		 push	 esi

; 137  : 	CComboBox* pCombo = (CComboBox* )GetDlgItem(IDC_SYMBOL_SIZE);

  00001	68 ef 03 00 00	 push	 1007			; 000003efH
  00006	8b f1		 mov	 esi, ecx
  00008	e8 00 00 00 00	 call	 ?GetDlgItem@CWnd@@QBEPAV1@H@Z ; CWnd::GetDlgItem
; File C:\Program Files (x86)\Microsoft Visual Studio\2019\Community\VC\Tools\MSVC\14.29.30133\atlmfc\include\afxwin2.inl

; 765  : 	{ ASSERT(::IsWindow(m_hWnd)); return (int)::SendMessage(m_hWnd, CB_GETCURSEL, 0, 0); }

  0000d	6a 00		 push	 0
  0000f	6a 00		 push	 0
  00011	68 47 01 00 00	 push	 327			; 00000147H
  00016	ff 70 20	 push	 DWORD PTR [eax+32]
  00019	ff 15 00 00 00
	00		 call	 DWORD PTR __imp__SendMessageA@16
; File D:\git\src\IBK\IBK_DRFN\ProjSrc\SrcChartEx\ChartAddIn\ChartAnalysisToolAddIn\Symbol\SymbolDlg.cpp

; 138  : 	m_pSymbolData->GetPropertiesData()->SetSizeType(CSymbolBaseData::SIZETYPE(pCombo->GetCurSel()));

  0001f	8b 8e d4 13 00
	00		 mov	 ecx, DWORD PTR [esi+5076]
  00025	50		 push	 eax
  00026	e8 00 00 00 00	 call	 ?GetPropertiesData@CSymbolData@@QAEPAVCPropertiesData_text@@XZ ; CSymbolData::GetPropertiesData
  0002b	8b c8		 mov	 ecx, eax
  0002d	e8 00 00 00 00	 call	 ?SetSizeType@CPropertiesData_Symbol@@QAEXW4SIZETYPE@CSymbolBaseData@@@Z ; CPropertiesData_Symbol::SetSizeType

; 139  : 	m_PreView_Static.ModifySymbolType(m_pSymbolData->GetBuletType());

  00032	8b 8e d4 13 00
	00		 mov	 ecx, DWORD PTR [esi+5076]
  00038	e8 00 00 00 00	 call	 ?GetBuletType@CSymbolData@@QBE?AW4TOOLTYPE@CSymbolBaseData@@XZ ; CSymbolData::GetBuletType
  0003d	50		 push	 eax
  0003e	8d 8e 88 11 00
	00		 lea	 ecx, DWORD PTR [esi+4488]
  00044	e8 00 00 00 00	 call	 ?ModifySymbolType@CPreView@@QAEXW4TOOLTYPE@CSymbolBaseData@@@Z ; CPreView::ModifySymbolType
  00049	5e		 pop	 esi

; 140  : }

  0004a	c3		 ret	 0
?OnSelchangeSymbolSize@CSymbolDlg@@IAEXXZ ENDP		; CSymbolDlg::OnSelchangeSymbolSize
_TEXT	ENDS
; Function compile flags: /Ogtp
; File D:\git\src\IBK\IBK_DRFN\ProjSrc\SrcChartEx\ChartAddIn\ChartAnalysisToolAddIn\Symbol\SymbolDlg.cpp
;	COMDAT ?OnInitDialog@CSymbolDlg@@MAEHXZ
_TEXT	SEGMENT
?OnInitDialog@CSymbolDlg@@MAEHXZ PROC			; CSymbolDlg::OnInitDialog, COMDAT
; _this$ = ecx

; 386  : {

  00000	56		 push	 esi
  00001	8b f1		 mov	 esi, ecx

; 387  : 	CDialog::OnInitDialog();

  00003	e8 00 00 00 00	 call	 ?OnInitDialog@CDialog@@UAEHXZ ; CDialog::OnInitDialog

; 388  : 
; 389  : 	Initial();

  00008	8b ce		 mov	 ecx, esi
  0000a	e8 00 00 00 00	 call	 ?Initial@CSymbolDlg@@AAEXXZ ; CSymbolDlg::Initial

; 390  : 	//sy 2005.03.30.
; 391  : 	//
; 392  : 	//Initial_View();
; 393  : /*
; 394  : 	//  
; 395  : 	CDynamicBitmapLoad bitmapbutton;
; 396  : 	bitmapbutton.SetFilePath(m_pMainSymbol->GetFilePath());
; 397  : 
; 398  : 	bitmapbutton.LoadBitmap(&m_ArrowLeft_Bt, "left_up.BMP", "left_dn.BMP");
; 399  : 	bitmapbutton.LoadBitmap(&m_ArrowRight_Bt, "right_up.BMP", "right_dn.BMP");
; 400  : 	bitmapbutton.LoadBitmap(&m_ArrowLeftTop_Bt, "lefttop_up.bmp", "lefttop_dn.bmp");
; 401  : 	bitmapbutton.LoadBitmap(&m_ArrowRightTop_Bt, "righttop_up.bmp", "righttop_dn.bmp");
; 402  : 
; 403  : 	bitmapbutton.LoadBitmap(&m_ArrowDown_Bt, "bottom_up.bmp", "bottom_dn.bmp");
; 404  : 	bitmapbutton.LoadBitmap(&m_ArrowUp_Bt, "top_up.bmp", "top_dn.bmp");
; 405  : 	bitmapbutton.LoadBitmap(&m_ArrowLeftBottom_Bt, "leftbottom_up.bmp", "leftbottom_dn.bmp");
; 406  : 	bitmapbutton.LoadBitmap(&m_ArrowRightBottom_Bt, "rightbottom_up.bmp", "rightbottom_dn.bmp");
; 407  : 
; 408  : 	bitmapbutton.LoadBitmap(&m_NumOne_Bt, "1_up.bmp", "1_dn.bmp");
; 409  : 	bitmapbutton.LoadBitmap(&m_NumTwo_Bt, "2_up.bmp", "2_dn.bmp");
; 410  : 	bitmapbutton.LoadBitmap(&m_NumThree_Bt, "3_up.bmp", "3_dn.bmp");
; 411  : 	bitmapbutton.LoadBitmap(&m_NumFour_Bt, "4_up.bmp", "4_dn.bmp");
; 412  : 
; 413  : 	bitmapbutton.LoadBitmap(&m_NumFive_Bt, "5_up.bmp", "5_dn.bmp");
; 414  : 	bitmapbutton.LoadBitmap(&m_Text_A_Bt, "a_up.bmp", "a_dn.bmp");
; 415  : 	bitmapbutton.LoadBitmap(&m_Text_B_Bt, "b_up.bmp", "b_dn.bmp");
; 416  : 	bitmapbutton.LoadBitmap(&m_Text_C_Bt, "c_up.bmp", "c_dn.bmp");
; 417  : */
; 418  : 	return TRUE;  // return TRUE unless you set the focus to a control

  0000f	b8 01 00 00 00	 mov	 eax, 1
  00014	5e		 pop	 esi

; 419  : 	              // EXCEPTION: OCX Property Pages should return FALSE
; 420  : }

  00015	c3		 ret	 0
?OnInitDialog@CSymbolDlg@@MAEHXZ ENDP			; CSymbolDlg::OnInitDialog
_TEXT	ENDS
; Function compile flags: /Ogtp
; File D:\git\src\IBK\IBK_DRFN\ProjSrc\SrcChartEx\ChartAddIn\ChartAnalysisToolAddIn\Symbol\SymbolDlg.cpp
; File C:\Program Files (x86)\Microsoft Visual Studio\2019\Community\VC\Tools\MSVC\14.29.30133\atlmfc\include\afxwin2.inl
; File D:\git\src\IBK\IBK_DRFN\ProjSrc\SrcChartEx\ChartAddIn\ChartAnalysisToolAddIn\Symbol\SymbolDlg.cpp
; File C:\Program Files (x86)\Microsoft Visual Studio\2019\Community\VC\Tools\MSVC\14.29.30133\atlmfc\include\afxwin2.inl
; File D:\git\src\IBK\IBK_DRFN\ProjSrc\SrcChartEx\ChartAddIn\ChartAnalysisToolAddIn\Symbol\SymbolDlg.cpp
; File C:\Program Files (x86)\Microsoft Visual Studio\2019\Community\VC\Tools\MSVC\14.29.30133\atlmfc\include\afxwin2.inl
; File D:\git\src\IBK\IBK_DRFN\ProjSrc\SrcChartEx\ChartAddIn\ChartAnalysisToolAddIn\Symbol\SymbolDlg.cpp
;	COMDAT ?OnShowWindow@CSymbolDlg@@IAEXHI@Z
_TEXT	SEGMENT
_bShow$ = 8						; size = 4
_nStatus$ = 12						; size = 4
?OnShowWindow@CSymbolDlg@@IAEXHI@Z PROC			; CSymbolDlg::OnShowWindow, COMDAT
; _this$ = ecx

; 372  : {

  00000	56		 push	 esi
  00001	57		 push	 edi
  00002	8b f9		 mov	 edi, ecx
; File C:\Program Files (x86)\Microsoft Visual Studio\2019\Community\VC\Tools\MSVC\14.29.30133\atlmfc\include\afxwin2.inl

; 328  : 	{ Default(); }

  00004	e8 00 00 00 00	 call	 ?Default@CWnd@@IAEJXZ	; CWnd::Default
; File D:\git\src\IBK\IBK_DRFN\ProjSrc\SrcChartEx\ChartAddIn\ChartAnalysisToolAddIn\Symbol\SymbolDlg.cpp

; 376  : 	Initial();

  00009	8b cf		 mov	 ecx, edi
  0000b	c6 87 d0 13 00
	00 00		 mov	 BYTE PTR [edi+5072], 0
  00012	e8 00 00 00 00	 call	 ?Initial@CSymbolDlg@@AAEXXZ ; CSymbolDlg::Initial

; 377  : 
; 378  : 	if(m_pSymbolData->GetBuletType() == CSymbolBaseData::SYMBOL_SELECTION)

  00017	8b 8f d4 13 00
	00		 mov	 ecx, DWORD PTR [edi+5076]
  0001d	e8 00 00 00 00	 call	 ?GetBuletType@CSymbolData@@QBE?AW4TOOLTYPE@CSymbolBaseData@@XZ ; CSymbolData::GetBuletType
  00022	83 f8 06	 cmp	 eax, 6
  00025	75 17		 jne	 SHORT $LN8@OnShowWind

; 379  : 		m_pSymbolData->SetBuletType(m_PreView_Static.GetSymbolType());

  00027	8d 8f 88 11 00
	00		 lea	 ecx, DWORD PTR [edi+4488]
  0002d	e8 00 00 00 00	 call	 ?GetSymbolType@CPreView@@QAE?AW4TOOLTYPE@CSymbolBaseData@@XZ ; CPreView::GetSymbolType
  00032	8b 8f d4 13 00
	00		 mov	 ecx, DWORD PTR [edi+5076]
  00038	50		 push	 eax
  00039	e8 00 00 00 00	 call	 ?SetBuletType@CSymbolData@@QAEXW4TOOLTYPE@CSymbolBaseData@@@Z ; CSymbolData::SetBuletType
$LN8@OnShowWind:

; 380  : 	m_PreView_Static.ModifySymbolType(m_pSymbolData->GetBuletType());

  0003e	8b 8f d4 13 00
	00		 mov	 ecx, DWORD PTR [edi+5076]
  00044	e8 00 00 00 00	 call	 ?GetBuletType@CSymbolData@@QBE?AW4TOOLTYPE@CSymbolBaseData@@XZ ; CSymbolData::GetBuletType
  00049	50		 push	 eax
  0004a	8d 8f 88 11 00
	00		 lea	 ecx, DWORD PTR [edi+4488]
  00050	e8 00 00 00 00	 call	 ?ModifySymbolType@CPreView@@QAEXW4TOOLTYPE@CSymbolBaseData@@@Z ; CPreView::ModifySymbolType
; File C:\Program Files (x86)\Microsoft Visual Studio\2019\Community\VC\Tools\MSVC\14.29.30133\atlmfc\include\afxwin2.inl

; 165  : 	{ return CWnd::FromHandle(::GetFocus()); }

  00055	ff 15 00 00 00
	00		 call	 DWORD PTR __imp__GetFocus@0
  0005b	50		 push	 eax
  0005c	e8 00 00 00 00	 call	 ?FromHandle@CWnd@@SGPAV1@PAUHWND__@@@Z ; CWnd::FromHandle
; File D:\git\src\IBK\IBK_DRFN\ProjSrc\SrcChartEx\ChartAddIn\ChartAnalysisToolAddIn\Symbol\SymbolDlg.cpp

; 382  : 	SetToggle(GetFocus(), GetButtonType(m_pSymbolData->GetBuletType()));

  00061	8b 8f d4 13 00
	00		 mov	 ecx, DWORD PTR [edi+5076]
; File C:\Program Files (x86)\Microsoft Visual Studio\2019\Community\VC\Tools\MSVC\14.29.30133\atlmfc\include\afxwin2.inl

; 165  : 	{ return CWnd::FromHandle(::GetFocus()); }

  00067	8b f0		 mov	 esi, eax
; File D:\git\src\IBK\IBK_DRFN\ProjSrc\SrcChartEx\ChartAddIn\ChartAnalysisToolAddIn\Symbol\SymbolDlg.cpp

; 382  : 	SetToggle(GetFocus(), GetButtonType(m_pSymbolData->GetBuletType()));

  00069	e8 00 00 00 00	 call	 ?GetBuletType@CSymbolData@@QBE?AW4TOOLTYPE@CSymbolBaseData@@XZ ; CSymbolData::GetBuletType
  0006e	50		 push	 eax
  0006f	8b cf		 mov	 ecx, edi
  00071	e8 00 00 00 00	 call	 ?GetButtonType@CSymbolDlg@@AAEPAVCDynamicBitmapLoadButton@@W4TOOLTYPE@CSymbolBaseData@@@Z ; CSymbolDlg::GetButtonType
  00076	50		 push	 eax
  00077	56		 push	 esi
  00078	8b cf		 mov	 ecx, edi
  0007a	e8 00 00 00 00	 call	 ?SetToggle@CSymbolDlg@@AAEXPAVCWnd@@PAVCDynamicBitmapLoadButton@@@Z ; CSymbolDlg::SetToggle
  0007f	5f		 pop	 edi
  00080	5e		 pop	 esi

; 383  : }

  00081	c2 08 00	 ret	 8
?OnShowWindow@CSymbolDlg@@IAEXHI@Z ENDP			; CSymbolDlg::OnShowWindow
_TEXT	ENDS
; Function compile flags: /Ogtp
; File D:\git\src\IBK\IBK_DRFN\ProjSrc\SrcChartEx\ChartAddIn\ChartAnalysisToolAddIn\Symbol\SymbolDlg.cpp
; File C:\Program Files (x86)\Microsoft Visual Studio\2019\Community\VC\Tools\MSVC\14.29.30133\atlmfc\include\afxwin2.inl
; File D:\git\src\IBK\IBK_DRFN\ProjSrc\SrcChartEx\ChartAddIn\ChartAnalysisToolAddIn\Symbol\SymbolDlg.cpp
;	COMDAT ?OnTextC@CSymbolDlg@@IAEXXZ
_TEXT	SEGMENT
?OnTextC@CSymbolDlg@@IAEXXZ PROC			; CSymbolDlg::OnTextC, COMDAT
; _this$ = ecx

; 288  : {

  00000	56		 push	 esi
  00001	57		 push	 edi
  00002	8b f9		 mov	 edi, ecx

; 289  : 	SetBuletType(CSymbolBaseData::SYMBOL_TEXT_C, &m_Text_C_Bt);

  00004	8d b7 d8 06 00
	00		 lea	 esi, DWORD PTR [edi+1752]
  0000a	56		 push	 esi
  0000b	6a 1b		 push	 27			; 0000001bH
  0000d	e8 00 00 00 00	 call	 ?SetBuletType@CSymbolDlg@@AAEXW4TOOLTYPE@CSymbolBaseData@@PAVCDynamicBitmapLoadButton@@@Z ; CSymbolDlg::SetBuletType

; 290  : 	SetToggle(GetFocus(), &m_Text_C_Bt);

  00012	56		 push	 esi
; File C:\Program Files (x86)\Microsoft Visual Studio\2019\Community\VC\Tools\MSVC\14.29.30133\atlmfc\include\afxwin2.inl

; 165  : 	{ return CWnd::FromHandle(::GetFocus()); }

  00013	ff 15 00 00 00
	00		 call	 DWORD PTR __imp__GetFocus@0
  00019	50		 push	 eax
  0001a	e8 00 00 00 00	 call	 ?FromHandle@CWnd@@SGPAV1@PAUHWND__@@@Z ; CWnd::FromHandle
; File D:\git\src\IBK\IBK_DRFN\ProjSrc\SrcChartEx\ChartAddIn\ChartAnalysisToolAddIn\Symbol\SymbolDlg.cpp

; 290  : 	SetToggle(GetFocus(), &m_Text_C_Bt);

  0001f	50		 push	 eax
  00020	8b cf		 mov	 ecx, edi
  00022	e8 00 00 00 00	 call	 ?SetToggle@CSymbolDlg@@AAEXPAVCWnd@@PAVCDynamicBitmapLoadButton@@@Z ; CSymbolDlg::SetToggle

; 291  : 	m_pMainSymbol->SetSymbolType(CSymbolBaseData::SYMBOL_TEXT_C);

  00027	6a 1b		 push	 27			; 0000001bH
  00029	e8 00 00 00 00	 call	 ?SetSymbolType@CMainSymbolImplementation@@SAXW4TOOLTYPE@CSymbolBaseData@@@Z ; CMainSymbolImplementation::SetSymbolType
  0002e	83 c4 04	 add	 esp, 4
  00031	5f		 pop	 edi
  00032	5e		 pop	 esi

; 292  : }

  00033	c3		 ret	 0
?OnTextC@CSymbolDlg@@IAEXXZ ENDP			; CSymbolDlg::OnTextC
_TEXT	ENDS
; Function compile flags: /Ogtp
; File D:\git\src\IBK\IBK_DRFN\ProjSrc\SrcChartEx\ChartAddIn\ChartAnalysisToolAddIn\Symbol\SymbolDlg.cpp
; File C:\Program Files (x86)\Microsoft Visual Studio\2019\Community\VC\Tools\MSVC\14.29.30133\atlmfc\include\afxwin2.inl
; File D:\git\src\IBK\IBK_DRFN\ProjSrc\SrcChartEx\ChartAddIn\ChartAnalysisToolAddIn\Symbol\SymbolDlg.cpp
;	COMDAT ?OnTextB@CSymbolDlg@@IAEXXZ
_TEXT	SEGMENT
?OnTextB@CSymbolDlg@@IAEXXZ PROC			; CSymbolDlg::OnTextB, COMDAT
; _this$ = ecx

; 281  : {

  00000	56		 push	 esi
  00001	57		 push	 edi
  00002	8b f9		 mov	 edi, ecx

; 282  : 	SetBuletType(CSymbolBaseData::SYMBOL_TEXT_B, &m_Text_B_Bt);

  00004	8d b7 68 07 00
	00		 lea	 esi, DWORD PTR [edi+1896]
  0000a	56		 push	 esi
  0000b	6a 1a		 push	 26			; 0000001aH
  0000d	e8 00 00 00 00	 call	 ?SetBuletType@CSymbolDlg@@AAEXW4TOOLTYPE@CSymbolBaseData@@PAVCDynamicBitmapLoadButton@@@Z ; CSymbolDlg::SetBuletType

; 283  : 	SetToggle(GetFocus(), &m_Text_B_Bt);

  00012	56		 push	 esi
; File C:\Program Files (x86)\Microsoft Visual Studio\2019\Community\VC\Tools\MSVC\14.29.30133\atlmfc\include\afxwin2.inl

; 165  : 	{ return CWnd::FromHandle(::GetFocus()); }

  00013	ff 15 00 00 00
	00		 call	 DWORD PTR __imp__GetFocus@0
  00019	50		 push	 eax
  0001a	e8 00 00 00 00	 call	 ?FromHandle@CWnd@@SGPAV1@PAUHWND__@@@Z ; CWnd::FromHandle
; File D:\git\src\IBK\IBK_DRFN\ProjSrc\SrcChartEx\ChartAddIn\ChartAnalysisToolAddIn\Symbol\SymbolDlg.cpp

; 283  : 	SetToggle(GetFocus(), &m_Text_B_Bt);

  0001f	50		 push	 eax
  00020	8b cf		 mov	 ecx, edi
  00022	e8 00 00 00 00	 call	 ?SetToggle@CSymbolDlg@@AAEXPAVCWnd@@PAVCDynamicBitmapLoadButton@@@Z ; CSymbolDlg::SetToggle

; 284  : 	m_pMainSymbol->SetSymbolType(CSymbolBaseData::SYMBOL_TEXT_B);

  00027	6a 1a		 push	 26			; 0000001aH
  00029	e8 00 00 00 00	 call	 ?SetSymbolType@CMainSymbolImplementation@@SAXW4TOOLTYPE@CSymbolBaseData@@@Z ; CMainSymbolImplementation::SetSymbolType
  0002e	83 c4 04	 add	 esp, 4
  00031	5f		 pop	 edi
  00032	5e		 pop	 esi

; 285  : }

  00033	c3		 ret	 0
?OnTextB@CSymbolDlg@@IAEXXZ ENDP			; CSymbolDlg::OnTextB
_TEXT	ENDS
; Function compile flags: /Ogtp
; File D:\git\src\IBK\IBK_DRFN\ProjSrc\SrcChartEx\ChartAddIn\ChartAnalysisToolAddIn\Symbol\SymbolDlg.cpp
; File C:\Program Files (x86)\Microsoft Visual Studio\2019\Community\VC\Tools\MSVC\14.29.30133\atlmfc\include\afxwin2.inl
; File D:\git\src\IBK\IBK_DRFN\ProjSrc\SrcChartEx\ChartAddIn\ChartAnalysisToolAddIn\Symbol\SymbolDlg.cpp
;	COMDAT ?OnTextA@CSymbolDlg@@IAEXXZ
_TEXT	SEGMENT
?OnTextA@CSymbolDlg@@IAEXXZ PROC			; CSymbolDlg::OnTextA, COMDAT
; _this$ = ecx

; 274  : {

  00000	56		 push	 esi
  00001	57		 push	 edi
  00002	8b f9		 mov	 edi, ecx

; 275  : 	SetBuletType(CSymbolBaseData::SYMBOL_TEXT_A, &m_Text_A_Bt);

  00004	8d b7 f8 07 00
	00		 lea	 esi, DWORD PTR [edi+2040]
  0000a	56		 push	 esi
  0000b	6a 19		 push	 25			; 00000019H
  0000d	e8 00 00 00 00	 call	 ?SetBuletType@CSymbolDlg@@AAEXW4TOOLTYPE@CSymbolBaseData@@PAVCDynamicBitmapLoadButton@@@Z ; CSymbolDlg::SetBuletType

; 276  : 	SetToggle(GetFocus(), &m_Text_A_Bt);

  00012	56		 push	 esi
; File C:\Program Files (x86)\Microsoft Visual Studio\2019\Community\VC\Tools\MSVC\14.29.30133\atlmfc\include\afxwin2.inl

; 165  : 	{ return CWnd::FromHandle(::GetFocus()); }

  00013	ff 15 00 00 00
	00		 call	 DWORD PTR __imp__GetFocus@0
  00019	50		 push	 eax
  0001a	e8 00 00 00 00	 call	 ?FromHandle@CWnd@@SGPAV1@PAUHWND__@@@Z ; CWnd::FromHandle
; File D:\git\src\IBK\IBK_DRFN\ProjSrc\SrcChartEx\ChartAddIn\ChartAnalysisToolAddIn\Symbol\SymbolDlg.cpp

; 276  : 	SetToggle(GetFocus(), &m_Text_A_Bt);

  0001f	50		 push	 eax
  00020	8b cf		 mov	 ecx, edi
  00022	e8 00 00 00 00	 call	 ?SetToggle@CSymbolDlg@@AAEXPAVCWnd@@PAVCDynamicBitmapLoadButton@@@Z ; CSymbolDlg::SetToggle

; 277  : 	m_pMainSymbol->SetSymbolType(CSymbolBaseData::SYMBOL_TEXT_A);

  00027	6a 19		 push	 25			; 00000019H
  00029	e8 00 00 00 00	 call	 ?SetSymbolType@CMainSymbolImplementation@@SAXW4TOOLTYPE@CSymbolBaseData@@@Z ; CMainSymbolImplementation::SetSymbolType
  0002e	83 c4 04	 add	 esp, 4
  00031	5f		 pop	 edi
  00032	5e		 pop	 esi

; 278  : }

  00033	c3		 ret	 0
?OnTextA@CSymbolDlg@@IAEXXZ ENDP			; CSymbolDlg::OnTextA
_TEXT	ENDS
; Function compile flags: /Ogtp
; File D:\git\src\IBK\IBK_DRFN\ProjSrc\SrcChartEx\ChartAddIn\ChartAnalysisToolAddIn\Symbol\SymbolDlg.cpp
; File C:\Program Files (x86)\Microsoft Visual Studio\2019\Community\VC\Tools\MSVC\14.29.30133\atlmfc\include\afxwin2.inl
; File D:\git\src\IBK\IBK_DRFN\ProjSrc\SrcChartEx\ChartAddIn\ChartAnalysisToolAddIn\Symbol\SymbolDlg.cpp
;	COMDAT ?OnNumTwo@CSymbolDlg@@IAEXXZ
_TEXT	SEGMENT
?OnNumTwo@CSymbolDlg@@IAEXXZ PROC			; CSymbolDlg::OnNumTwo, COMDAT
; _this$ = ecx

; 267  : {

  00000	56		 push	 esi
  00001	57		 push	 edi
  00002	8b f9		 mov	 edi, ecx

; 268  : 	SetBuletType(CSymbolBaseData::SYMBOL_NUM_TWO, &m_NumTwo_Bt);

  00004	8d b7 88 08 00
	00		 lea	 esi, DWORD PTR [edi+2184]
  0000a	56		 push	 esi
  0000b	6a 10		 push	 16			; 00000010H
  0000d	e8 00 00 00 00	 call	 ?SetBuletType@CSymbolDlg@@AAEXW4TOOLTYPE@CSymbolBaseData@@PAVCDynamicBitmapLoadButton@@@Z ; CSymbolDlg::SetBuletType

; 269  : 	SetToggle(GetFocus(), &m_NumTwo_Bt);

  00012	56		 push	 esi
; File C:\Program Files (x86)\Microsoft Visual Studio\2019\Community\VC\Tools\MSVC\14.29.30133\atlmfc\include\afxwin2.inl

; 165  : 	{ return CWnd::FromHandle(::GetFocus()); }

  00013	ff 15 00 00 00
	00		 call	 DWORD PTR __imp__GetFocus@0
  00019	50		 push	 eax
  0001a	e8 00 00 00 00	 call	 ?FromHandle@CWnd@@SGPAV1@PAUHWND__@@@Z ; CWnd::FromHandle
; File D:\git\src\IBK\IBK_DRFN\ProjSrc\SrcChartEx\ChartAddIn\ChartAnalysisToolAddIn\Symbol\SymbolDlg.cpp

; 269  : 	SetToggle(GetFocus(), &m_NumTwo_Bt);

  0001f	50		 push	 eax
  00020	8b cf		 mov	 ecx, edi
  00022	e8 00 00 00 00	 call	 ?SetToggle@CSymbolDlg@@AAEXPAVCWnd@@PAVCDynamicBitmapLoadButton@@@Z ; CSymbolDlg::SetToggle

; 270  : 	m_pMainSymbol->SetSymbolType(CSymbolBaseData::SYMBOL_NUM_TWO);

  00027	6a 10		 push	 16			; 00000010H
  00029	e8 00 00 00 00	 call	 ?SetSymbolType@CMainSymbolImplementation@@SAXW4TOOLTYPE@CSymbolBaseData@@@Z ; CMainSymbolImplementation::SetSymbolType
  0002e	83 c4 04	 add	 esp, 4
  00031	5f		 pop	 edi
  00032	5e		 pop	 esi

; 271  : }

  00033	c3		 ret	 0
?OnNumTwo@CSymbolDlg@@IAEXXZ ENDP			; CSymbolDlg::OnNumTwo
_TEXT	ENDS
; Function compile flags: /Ogtp
; File D:\git\src\IBK\IBK_DRFN\ProjSrc\SrcChartEx\ChartAddIn\ChartAnalysisToolAddIn\Symbol\SymbolDlg.cpp
; File C:\Program Files (x86)\Microsoft Visual Studio\2019\Community\VC\Tools\MSVC\14.29.30133\atlmfc\include\afxwin2.inl
; File D:\git\src\IBK\IBK_DRFN\ProjSrc\SrcChartEx\ChartAddIn\ChartAnalysisToolAddIn\Symbol\SymbolDlg.cpp
;	COMDAT ?OnNumThree@CSymbolDlg@@IAEXXZ
_TEXT	SEGMENT
?OnNumThree@CSymbolDlg@@IAEXXZ PROC			; CSymbolDlg::OnNumThree, COMDAT
; _this$ = ecx

; 260  : {

  00000	56		 push	 esi
  00001	57		 push	 edi
  00002	8b f9		 mov	 edi, ecx

; 261  : 	SetBuletType(CSymbolBaseData::SYMBOL_NUM_THREE, &m_NumThree_Bt);

  00004	8d b7 18 09 00
	00		 lea	 esi, DWORD PTR [edi+2328]
  0000a	56		 push	 esi
  0000b	6a 11		 push	 17			; 00000011H
  0000d	e8 00 00 00 00	 call	 ?SetBuletType@CSymbolDlg@@AAEXW4TOOLTYPE@CSymbolBaseData@@PAVCDynamicBitmapLoadButton@@@Z ; CSymbolDlg::SetBuletType

; 262  : 	SetToggle(GetFocus(), &m_NumThree_Bt);

  00012	56		 push	 esi
; File C:\Program Files (x86)\Microsoft Visual Studio\2019\Community\VC\Tools\MSVC\14.29.30133\atlmfc\include\afxwin2.inl

; 165  : 	{ return CWnd::FromHandle(::GetFocus()); }

  00013	ff 15 00 00 00
	00		 call	 DWORD PTR __imp__GetFocus@0
  00019	50		 push	 eax
  0001a	e8 00 00 00 00	 call	 ?FromHandle@CWnd@@SGPAV1@PAUHWND__@@@Z ; CWnd::FromHandle
; File D:\git\src\IBK\IBK_DRFN\ProjSrc\SrcChartEx\ChartAddIn\ChartAnalysisToolAddIn\Symbol\SymbolDlg.cpp

; 262  : 	SetToggle(GetFocus(), &m_NumThree_Bt);

  0001f	50		 push	 eax
  00020	8b cf		 mov	 ecx, edi
  00022	e8 00 00 00 00	 call	 ?SetToggle@CSymbolDlg@@AAEXPAVCWnd@@PAVCDynamicBitmapLoadButton@@@Z ; CSymbolDlg::SetToggle

; 263  : 	m_pMainSymbol->SetSymbolType(CSymbolBaseData::SYMBOL_NUM_THREE);

  00027	6a 11		 push	 17			; 00000011H
  00029	e8 00 00 00 00	 call	 ?SetSymbolType@CMainSymbolImplementation@@SAXW4TOOLTYPE@CSymbolBaseData@@@Z ; CMainSymbolImplementation::SetSymbolType
  0002e	83 c4 04	 add	 esp, 4
  00031	5f		 pop	 edi
  00032	5e		 pop	 esi

; 264  : }

  00033	c3		 ret	 0
?OnNumThree@CSymbolDlg@@IAEXXZ ENDP			; CSymbolDlg::OnNumThree
_TEXT	ENDS
; Function compile flags: /Ogtp
; File D:\git\src\IBK\IBK_DRFN\ProjSrc\SrcChartEx\ChartAddIn\ChartAnalysisToolAddIn\Symbol\SymbolDlg.cpp
; File C:\Program Files (x86)\Microsoft Visual Studio\2019\Community\VC\Tools\MSVC\14.29.30133\atlmfc\include\afxwin2.inl
; File D:\git\src\IBK\IBK_DRFN\ProjSrc\SrcChartEx\ChartAddIn\ChartAnalysisToolAddIn\Symbol\SymbolDlg.cpp
;	COMDAT ?OnNumOne@CSymbolDlg@@IAEXXZ
_TEXT	SEGMENT
?OnNumOne@CSymbolDlg@@IAEXXZ PROC			; CSymbolDlg::OnNumOne, COMDAT
; _this$ = ecx

; 253  : {

  00000	56		 push	 esi
  00001	57		 push	 edi
  00002	8b f9		 mov	 edi, ecx

; 254  : 	SetBuletType(CSymbolBaseData::SYMBOL_NUM_ONE, &m_NumOne_Bt);

  00004	8d b7 a8 09 00
	00		 lea	 esi, DWORD PTR [edi+2472]
  0000a	56		 push	 esi
  0000b	6a 0f		 push	 15			; 0000000fH
  0000d	e8 00 00 00 00	 call	 ?SetBuletType@CSymbolDlg@@AAEXW4TOOLTYPE@CSymbolBaseData@@PAVCDynamicBitmapLoadButton@@@Z ; CSymbolDlg::SetBuletType

; 255  : 	SetToggle(GetFocus(), &m_NumOne_Bt);

  00012	56		 push	 esi
; File C:\Program Files (x86)\Microsoft Visual Studio\2019\Community\VC\Tools\MSVC\14.29.30133\atlmfc\include\afxwin2.inl

; 165  : 	{ return CWnd::FromHandle(::GetFocus()); }

  00013	ff 15 00 00 00
	00		 call	 DWORD PTR __imp__GetFocus@0
  00019	50		 push	 eax
  0001a	e8 00 00 00 00	 call	 ?FromHandle@CWnd@@SGPAV1@PAUHWND__@@@Z ; CWnd::FromHandle
; File D:\git\src\IBK\IBK_DRFN\ProjSrc\SrcChartEx\ChartAddIn\ChartAnalysisToolAddIn\Symbol\SymbolDlg.cpp

; 255  : 	SetToggle(GetFocus(), &m_NumOne_Bt);

  0001f	50		 push	 eax
  00020	8b cf		 mov	 ecx, edi
  00022	e8 00 00 00 00	 call	 ?SetToggle@CSymbolDlg@@AAEXPAVCWnd@@PAVCDynamicBitmapLoadButton@@@Z ; CSymbolDlg::SetToggle

; 256  : 	m_pMainSymbol->SetSymbolType(CSymbolBaseData::SYMBOL_NUM_ONE);

  00027	6a 0f		 push	 15			; 0000000fH
  00029	e8 00 00 00 00	 call	 ?SetSymbolType@CMainSymbolImplementation@@SAXW4TOOLTYPE@CSymbolBaseData@@@Z ; CMainSymbolImplementation::SetSymbolType
  0002e	83 c4 04	 add	 esp, 4
  00031	5f		 pop	 edi
  00032	5e		 pop	 esi

; 257  : }

  00033	c3		 ret	 0
?OnNumOne@CSymbolDlg@@IAEXXZ ENDP			; CSymbolDlg::OnNumOne
_TEXT	ENDS
; Function compile flags: /Ogtp
; File D:\git\src\IBK\IBK_DRFN\ProjSrc\SrcChartEx\ChartAddIn\ChartAnalysisToolAddIn\Symbol\SymbolDlg.cpp
; File C:\Program Files (x86)\Microsoft Visual Studio\2019\Community\VC\Tools\MSVC\14.29.30133\atlmfc\include\afxwin2.inl
; File D:\git\src\IBK\IBK_DRFN\ProjSrc\SrcChartEx\ChartAddIn\ChartAnalysisToolAddIn\Symbol\SymbolDlg.cpp
;	COMDAT ?OnNumFour@CSymbolDlg@@IAEXXZ
_TEXT	SEGMENT
?OnNumFour@CSymbolDlg@@IAEXXZ PROC			; CSymbolDlg::OnNumFour, COMDAT
; _this$ = ecx

; 246  : {

  00000	56		 push	 esi
  00001	57		 push	 edi
  00002	8b f9		 mov	 edi, ecx

; 247  : 	SetBuletType(CSymbolBaseData::SYMBOL_NUM_FOUR, &m_NumFour_Bt);

  00004	8d b7 38 0a 00
	00		 lea	 esi, DWORD PTR [edi+2616]
  0000a	56		 push	 esi
  0000b	6a 12		 push	 18			; 00000012H
  0000d	e8 00 00 00 00	 call	 ?SetBuletType@CSymbolDlg@@AAEXW4TOOLTYPE@CSymbolBaseData@@PAVCDynamicBitmapLoadButton@@@Z ; CSymbolDlg::SetBuletType

; 248  : 	SetToggle(GetFocus(), &m_NumFour_Bt);

  00012	56		 push	 esi
; File C:\Program Files (x86)\Microsoft Visual Studio\2019\Community\VC\Tools\MSVC\14.29.30133\atlmfc\include\afxwin2.inl

; 165  : 	{ return CWnd::FromHandle(::GetFocus()); }

  00013	ff 15 00 00 00
	00		 call	 DWORD PTR __imp__GetFocus@0
  00019	50		 push	 eax
  0001a	e8 00 00 00 00	 call	 ?FromHandle@CWnd@@SGPAV1@PAUHWND__@@@Z ; CWnd::FromHandle
; File D:\git\src\IBK\IBK_DRFN\ProjSrc\SrcChartEx\ChartAddIn\ChartAnalysisToolAddIn\Symbol\SymbolDlg.cpp

; 248  : 	SetToggle(GetFocus(), &m_NumFour_Bt);

  0001f	50		 push	 eax
  00020	8b cf		 mov	 ecx, edi
  00022	e8 00 00 00 00	 call	 ?SetToggle@CSymbolDlg@@AAEXPAVCWnd@@PAVCDynamicBitmapLoadButton@@@Z ; CSymbolDlg::SetToggle

; 249  : 	m_pMainSymbol->SetSymbolType(CSymbolBaseData::SYMBOL_NUM_FOUR);

  00027	6a 12		 push	 18			; 00000012H
  00029	e8 00 00 00 00	 call	 ?SetSymbolType@CMainSymbolImplementation@@SAXW4TOOLTYPE@CSymbolBaseData@@@Z ; CMainSymbolImplementation::SetSymbolType
  0002e	83 c4 04	 add	 esp, 4
  00031	5f		 pop	 edi
  00032	5e		 pop	 esi

; 250  : }

  00033	c3		 ret	 0
?OnNumFour@CSymbolDlg@@IAEXXZ ENDP			; CSymbolDlg::OnNumFour
_TEXT	ENDS
; Function compile flags: /Ogtp
; File D:\git\src\IBK\IBK_DRFN\ProjSrc\SrcChartEx\ChartAddIn\ChartAnalysisToolAddIn\Symbol\SymbolDlg.cpp
; File C:\Program Files (x86)\Microsoft Visual Studio\2019\Community\VC\Tools\MSVC\14.29.30133\atlmfc\include\afxwin2.inl
; File D:\git\src\IBK\IBK_DRFN\ProjSrc\SrcChartEx\ChartAddIn\ChartAnalysisToolAddIn\Symbol\SymbolDlg.cpp
;	COMDAT ?OnNumFive@CSymbolDlg@@IAEXXZ
_TEXT	SEGMENT
?OnNumFive@CSymbolDlg@@IAEXXZ PROC			; CSymbolDlg::OnNumFive, COMDAT
; _this$ = ecx

; 204  : {

  00000	56		 push	 esi
  00001	57		 push	 edi
  00002	8b f9		 mov	 edi, ecx

; 205  : 	SetBuletType(CSymbolBaseData::SYMBOL_NUM_FIVE, &m_NumFive_Bt);

  00004	8d b7 c8 0a 00
	00		 lea	 esi, DWORD PTR [edi+2760]
  0000a	56		 push	 esi
  0000b	6a 13		 push	 19			; 00000013H
  0000d	e8 00 00 00 00	 call	 ?SetBuletType@CSymbolDlg@@AAEXW4TOOLTYPE@CSymbolBaseData@@PAVCDynamicBitmapLoadButton@@@Z ; CSymbolDlg::SetBuletType

; 206  : 	SetToggle(GetFocus(), &m_NumFive_Bt);

  00012	56		 push	 esi
; File C:\Program Files (x86)\Microsoft Visual Studio\2019\Community\VC\Tools\MSVC\14.29.30133\atlmfc\include\afxwin2.inl

; 165  : 	{ return CWnd::FromHandle(::GetFocus()); }

  00013	ff 15 00 00 00
	00		 call	 DWORD PTR __imp__GetFocus@0
  00019	50		 push	 eax
  0001a	e8 00 00 00 00	 call	 ?FromHandle@CWnd@@SGPAV1@PAUHWND__@@@Z ; CWnd::FromHandle
; File D:\git\src\IBK\IBK_DRFN\ProjSrc\SrcChartEx\ChartAddIn\ChartAnalysisToolAddIn\Symbol\SymbolDlg.cpp

; 206  : 	SetToggle(GetFocus(), &m_NumFive_Bt);

  0001f	50		 push	 eax
  00020	8b cf		 mov	 ecx, edi
  00022	e8 00 00 00 00	 call	 ?SetToggle@CSymbolDlg@@AAEXPAVCWnd@@PAVCDynamicBitmapLoadButton@@@Z ; CSymbolDlg::SetToggle

; 207  : 	m_pMainSymbol->SetSymbolType(CSymbolBaseData::SYMBOL_NUM_FIVE);

  00027	6a 13		 push	 19			; 00000013H
  00029	e8 00 00 00 00	 call	 ?SetSymbolType@CMainSymbolImplementation@@SAXW4TOOLTYPE@CSymbolBaseData@@@Z ; CMainSymbolImplementation::SetSymbolType
  0002e	83 c4 04	 add	 esp, 4
  00031	5f		 pop	 edi
  00032	5e		 pop	 esi

; 208  : }

  00033	c3		 ret	 0
?OnNumFive@CSymbolDlg@@IAEXXZ ENDP			; CSymbolDlg::OnNumFive
_TEXT	ENDS
; Function compile flags: /Ogtp
; File D:\git\src\IBK\IBK_DRFN\ProjSrc\SrcChartEx\ChartAddIn\ChartAnalysisToolAddIn\Symbol\SymbolDlg.cpp
; File C:\Program Files (x86)\Microsoft Visual Studio\2019\Community\VC\Tools\MSVC\14.29.30133\atlmfc\include\afxwin2.inl
; File D:\git\src\IBK\IBK_DRFN\ProjSrc\SrcChartEx\ChartAddIn\ChartAnalysisToolAddIn\Symbol\SymbolDlg.cpp
;	COMDAT ?OnArrowUp@CSymbolDlg@@IAEXXZ
_TEXT	SEGMENT
?OnArrowUp@CSymbolDlg@@IAEXXZ PROC			; CSymbolDlg::OnArrowUp, COMDAT
; _this$ = ecx

; 197  : {

  00000	56		 push	 esi
  00001	57		 push	 edi
  00002	8b f9		 mov	 edi, ecx

; 198  : 	SetBuletType(CSymbolBaseData::SYMBOL_ARROW_UP, &m_ArrowUp_Bt);

  00004	8d b7 28 0e 00
	00		 lea	 esi, DWORD PTR [edi+3624]
  0000a	56		 push	 esi
  0000b	6a 09		 push	 9
  0000d	e8 00 00 00 00	 call	 ?SetBuletType@CSymbolDlg@@AAEXW4TOOLTYPE@CSymbolBaseData@@PAVCDynamicBitmapLoadButton@@@Z ; CSymbolDlg::SetBuletType

; 199  : 	SetToggle(GetFocus(), &m_ArrowUp_Bt);

  00012	56		 push	 esi
; File C:\Program Files (x86)\Microsoft Visual Studio\2019\Community\VC\Tools\MSVC\14.29.30133\atlmfc\include\afxwin2.inl

; 165  : 	{ return CWnd::FromHandle(::GetFocus()); }

  00013	ff 15 00 00 00
	00		 call	 DWORD PTR __imp__GetFocus@0
  00019	50		 push	 eax
  0001a	e8 00 00 00 00	 call	 ?FromHandle@CWnd@@SGPAV1@PAUHWND__@@@Z ; CWnd::FromHandle
; File D:\git\src\IBK\IBK_DRFN\ProjSrc\SrcChartEx\ChartAddIn\ChartAnalysisToolAddIn\Symbol\SymbolDlg.cpp

; 199  : 	SetToggle(GetFocus(), &m_ArrowUp_Bt);

  0001f	50		 push	 eax
  00020	8b cf		 mov	 ecx, edi
  00022	e8 00 00 00 00	 call	 ?SetToggle@CSymbolDlg@@AAEXPAVCWnd@@PAVCDynamicBitmapLoadButton@@@Z ; CSymbolDlg::SetToggle

; 200  : 	m_pMainSymbol->SetSymbolType(CSymbolBaseData::SYMBOL_ARROW_UP);

  00027	6a 09		 push	 9
  00029	e8 00 00 00 00	 call	 ?SetSymbolType@CMainSymbolImplementation@@SAXW4TOOLTYPE@CSymbolBaseData@@@Z ; CMainSymbolImplementation::SetSymbolType
  0002e	83 c4 04	 add	 esp, 4
  00031	5f		 pop	 edi
  00032	5e		 pop	 esi

; 201  : }

  00033	c3		 ret	 0
?OnArrowUp@CSymbolDlg@@IAEXXZ ENDP			; CSymbolDlg::OnArrowUp
_TEXT	ENDS
; Function compile flags: /Ogtp
; File D:\git\src\IBK\IBK_DRFN\ProjSrc\SrcChartEx\ChartAddIn\ChartAnalysisToolAddIn\Symbol\SymbolDlg.cpp
; File C:\Program Files (x86)\Microsoft Visual Studio\2019\Community\VC\Tools\MSVC\14.29.30133\atlmfc\include\afxwin2.inl
; File D:\git\src\IBK\IBK_DRFN\ProjSrc\SrcChartEx\ChartAddIn\ChartAnalysisToolAddIn\Symbol\SymbolDlg.cpp
;	COMDAT ?OnArrowRighttop@CSymbolDlg@@IAEXXZ
_TEXT	SEGMENT
?OnArrowRighttop@CSymbolDlg@@IAEXXZ PROC		; CSymbolDlg::OnArrowRighttop, COMDAT
; _this$ = ecx

; 190  : {

  00000	56		 push	 esi
  00001	57		 push	 edi
  00002	8b f9		 mov	 edi, ecx

; 191  : 	SetBuletType(CSymbolBaseData::SYMBOL_ARROW_RIGHTTOP, &m_ArrowRightTop_Bt);

  00004	8d b7 b8 0e 00
	00		 lea	 esi, DWORD PTR [edi+3768]
  0000a	56		 push	 esi
  0000b	6a 0d		 push	 13			; 0000000dH
  0000d	e8 00 00 00 00	 call	 ?SetBuletType@CSymbolDlg@@AAEXW4TOOLTYPE@CSymbolBaseData@@PAVCDynamicBitmapLoadButton@@@Z ; CSymbolDlg::SetBuletType

; 192  : 	SetToggle(GetFocus(), &m_ArrowRightTop_Bt);

  00012	56		 push	 esi
; File C:\Program Files (x86)\Microsoft Visual Studio\2019\Community\VC\Tools\MSVC\14.29.30133\atlmfc\include\afxwin2.inl

; 165  : 	{ return CWnd::FromHandle(::GetFocus()); }

  00013	ff 15 00 00 00
	00		 call	 DWORD PTR __imp__GetFocus@0
  00019	50		 push	 eax
  0001a	e8 00 00 00 00	 call	 ?FromHandle@CWnd@@SGPAV1@PAUHWND__@@@Z ; CWnd::FromHandle
; File D:\git\src\IBK\IBK_DRFN\ProjSrc\SrcChartEx\ChartAddIn\ChartAnalysisToolAddIn\Symbol\SymbolDlg.cpp

; 192  : 	SetToggle(GetFocus(), &m_ArrowRightTop_Bt);

  0001f	50		 push	 eax
  00020	8b cf		 mov	 ecx, edi
  00022	e8 00 00 00 00	 call	 ?SetToggle@CSymbolDlg@@AAEXPAVCWnd@@PAVCDynamicBitmapLoadButton@@@Z ; CSymbolDlg::SetToggle

; 193  : 	m_pMainSymbol->SetSymbolType(CSymbolBaseData::SYMBOL_ARROW_RIGHTTOP);

  00027	6a 0d		 push	 13			; 0000000dH
  00029	e8 00 00 00 00	 call	 ?SetSymbolType@CMainSymbolImplementation@@SAXW4TOOLTYPE@CSymbolBaseData@@@Z ; CMainSymbolImplementation::SetSymbolType
  0002e	83 c4 04	 add	 esp, 4
  00031	5f		 pop	 edi
  00032	5e		 pop	 esi

; 194  : }

  00033	c3		 ret	 0
?OnArrowRighttop@CSymbolDlg@@IAEXXZ ENDP		; CSymbolDlg::OnArrowRighttop
_TEXT	ENDS
; Function compile flags: /Ogtp
; File D:\git\src\IBK\IBK_DRFN\ProjSrc\SrcChartEx\ChartAddIn\ChartAnalysisToolAddIn\Symbol\SymbolDlg.cpp
; File C:\Program Files (x86)\Microsoft Visual Studio\2019\Community\VC\Tools\MSVC\14.29.30133\atlmfc\include\afxwin2.inl
; File D:\git\src\IBK\IBK_DRFN\ProjSrc\SrcChartEx\ChartAddIn\ChartAnalysisToolAddIn\Symbol\SymbolDlg.cpp
;	COMDAT ?OnArrowRightbottom@CSymbolDlg@@IAEXXZ
_TEXT	SEGMENT
?OnArrowRightbottom@CSymbolDlg@@IAEXXZ PROC		; CSymbolDlg::OnArrowRightbottom, COMDAT
; _this$ = ecx

; 183  : {

  00000	56		 push	 esi
  00001	57		 push	 edi
  00002	8b f9		 mov	 edi, ecx

; 184  : 	SetBuletType(CSymbolBaseData::SYMBOL_ARROW_RIGHTBOTTOM, &m_ArrowRightBottom_Bt);

  00004	8d b7 48 0f 00
	00		 lea	 esi, DWORD PTR [edi+3912]
  0000a	56		 push	 esi
  0000b	6a 0e		 push	 14			; 0000000eH
  0000d	e8 00 00 00 00	 call	 ?SetBuletType@CSymbolDlg@@AAEXW4TOOLTYPE@CSymbolBaseData@@PAVCDynamicBitmapLoadButton@@@Z ; CSymbolDlg::SetBuletType

; 185  : 	SetToggle(GetFocus(), &m_ArrowRightBottom_Bt);

  00012	56		 push	 esi
; File C:\Program Files (x86)\Microsoft Visual Studio\2019\Community\VC\Tools\MSVC\14.29.30133\atlmfc\include\afxwin2.inl

; 165  : 	{ return CWnd::FromHandle(::GetFocus()); }

  00013	ff 15 00 00 00
	00		 call	 DWORD PTR __imp__GetFocus@0
  00019	50		 push	 eax
  0001a	e8 00 00 00 00	 call	 ?FromHandle@CWnd@@SGPAV1@PAUHWND__@@@Z ; CWnd::FromHandle
; File D:\git\src\IBK\IBK_DRFN\ProjSrc\SrcChartEx\ChartAddIn\ChartAnalysisToolAddIn\Symbol\SymbolDlg.cpp

; 185  : 	SetToggle(GetFocus(), &m_ArrowRightBottom_Bt);

  0001f	50		 push	 eax
  00020	8b cf		 mov	 ecx, edi
  00022	e8 00 00 00 00	 call	 ?SetToggle@CSymbolDlg@@AAEXPAVCWnd@@PAVCDynamicBitmapLoadButton@@@Z ; CSymbolDlg::SetToggle

; 186  : 	m_pMainSymbol->SetSymbolType(CSymbolBaseData::SYMBOL_ARROW_RIGHTBOTTOM);

  00027	6a 0e		 push	 14			; 0000000eH
  00029	e8 00 00 00 00	 call	 ?SetSymbolType@CMainSymbolImplementation@@SAXW4TOOLTYPE@CSymbolBaseData@@@Z ; CMainSymbolImplementation::SetSymbolType
  0002e	83 c4 04	 add	 esp, 4
  00031	5f		 pop	 edi
  00032	5e		 pop	 esi

; 187  : }

  00033	c3		 ret	 0
?OnArrowRightbottom@CSymbolDlg@@IAEXXZ ENDP		; CSymbolDlg::OnArrowRightbottom
_TEXT	ENDS
; Function compile flags: /Ogtp
; File D:\git\src\IBK\IBK_DRFN\ProjSrc\SrcChartEx\ChartAddIn\ChartAnalysisToolAddIn\Symbol\SymbolDlg.cpp
; File C:\Program Files (x86)\Microsoft Visual Studio\2019\Community\VC\Tools\MSVC\14.29.30133\atlmfc\include\afxwin2.inl
; File D:\git\src\IBK\IBK_DRFN\ProjSrc\SrcChartEx\ChartAddIn\ChartAnalysisToolAddIn\Symbol\SymbolDlg.cpp
;	COMDAT ?OnArrowLeftbottom@CSymbolDlg@@IAEXXZ
_TEXT	SEGMENT
?OnArrowLeftbottom@CSymbolDlg@@IAEXXZ PROC		; CSymbolDlg::OnArrowLeftbottom, COMDAT
; _this$ = ecx

; 176  : {

  00000	56		 push	 esi
  00001	57		 push	 edi
  00002	8b f9		 mov	 edi, ecx

; 177  : 	SetBuletType(CSymbolBaseData::SYMBOL_ARROW_LEFTBOTTOM, &m_ArrowLeftBottom_Bt);

  00004	8d b7 d8 0f 00
	00		 lea	 esi, DWORD PTR [edi+4056]
  0000a	56		 push	 esi
  0000b	6a 0c		 push	 12			; 0000000cH
  0000d	e8 00 00 00 00	 call	 ?SetBuletType@CSymbolDlg@@AAEXW4TOOLTYPE@CSymbolBaseData@@PAVCDynamicBitmapLoadButton@@@Z ; CSymbolDlg::SetBuletType

; 178  : 	SetToggle(GetFocus(), &m_ArrowLeftBottom_Bt);

  00012	56		 push	 esi
; File C:\Program Files (x86)\Microsoft Visual Studio\2019\Community\VC\Tools\MSVC\14.29.30133\atlmfc\include\afxwin2.inl

; 165  : 	{ return CWnd::FromHandle(::GetFocus()); }

  00013	ff 15 00 00 00
	00		 call	 DWORD PTR __imp__GetFocus@0
  00019	50		 push	 eax
  0001a	e8 00 00 00 00	 call	 ?FromHandle@CWnd@@SGPAV1@PAUHWND__@@@Z ; CWnd::FromHandle
; File D:\git\src\IBK\IBK_DRFN\ProjSrc\SrcChartEx\ChartAddIn\ChartAnalysisToolAddIn\Symbol\SymbolDlg.cpp

; 178  : 	SetToggle(GetFocus(), &m_ArrowLeftBottom_Bt);

  0001f	50		 push	 eax
  00020	8b cf		 mov	 ecx, edi
  00022	e8 00 00 00 00	 call	 ?SetToggle@CSymbolDlg@@AAEXPAVCWnd@@PAVCDynamicBitmapLoadButton@@@Z ; CSymbolDlg::SetToggle

; 179  : 	m_pMainSymbol->SetSymbolType(CSymbolBaseData::SYMBOL_ARROW_LEFTBOTTOM);

  00027	6a 0c		 push	 12			; 0000000cH
  00029	e8 00 00 00 00	 call	 ?SetSymbolType@CMainSymbolImplementation@@SAXW4TOOLTYPE@CSymbolBaseData@@@Z ; CMainSymbolImplementation::SetSymbolType
  0002e	83 c4 04	 add	 esp, 4
  00031	5f		 pop	 edi
  00032	5e		 pop	 esi

; 180  : }

  00033	c3		 ret	 0
?OnArrowLeftbottom@CSymbolDlg@@IAEXXZ ENDP		; CSymbolDlg::OnArrowLeftbottom
_TEXT	ENDS
; Function compile flags: /Ogtp
; File D:\git\src\IBK\IBK_DRFN\ProjSrc\SrcChartEx\ChartAddIn\ChartAnalysisToolAddIn\Symbol\SymbolDlg.cpp
; File C:\Program Files (x86)\Microsoft Visual Studio\2019\Community\VC\Tools\MSVC\14.29.30133\atlmfc\include\afxwin2.inl
; File D:\git\src\IBK\IBK_DRFN\ProjSrc\SrcChartEx\ChartAddIn\ChartAnalysisToolAddIn\Symbol\SymbolDlg.cpp
;	COMDAT ?OnArrowDown@CSymbolDlg@@IAEXXZ
_TEXT	SEGMENT
?OnArrowDown@CSymbolDlg@@IAEXXZ PROC			; CSymbolDlg::OnArrowDown, COMDAT
; _this$ = ecx

; 169  : {

  00000	56		 push	 esi
  00001	57		 push	 edi
  00002	8b f9		 mov	 edi, ecx

; 170  : 	SetBuletType(CSymbolBaseData::SYMBOL_ARROW_DOWN, &m_ArrowDown_Bt);

  00004	8d b7 f8 10 00
	00		 lea	 esi, DWORD PTR [edi+4344]
  0000a	56		 push	 esi
  0000b	6a 0a		 push	 10			; 0000000aH
  0000d	e8 00 00 00 00	 call	 ?SetBuletType@CSymbolDlg@@AAEXW4TOOLTYPE@CSymbolBaseData@@PAVCDynamicBitmapLoadButton@@@Z ; CSymbolDlg::SetBuletType

; 171  : 	SetToggle(GetFocus(), &m_ArrowDown_Bt);

  00012	56		 push	 esi
; File C:\Program Files (x86)\Microsoft Visual Studio\2019\Community\VC\Tools\MSVC\14.29.30133\atlmfc\include\afxwin2.inl

; 165  : 	{ return CWnd::FromHandle(::GetFocus()); }

  00013	ff 15 00 00 00
	00		 call	 DWORD PTR __imp__GetFocus@0
  00019	50		 push	 eax
  0001a	e8 00 00 00 00	 call	 ?FromHandle@CWnd@@SGPAV1@PAUHWND__@@@Z ; CWnd::FromHandle
; File D:\git\src\IBK\IBK_DRFN\ProjSrc\SrcChartEx\ChartAddIn\ChartAnalysisToolAddIn\Symbol\SymbolDlg.cpp

; 171  : 	SetToggle(GetFocus(), &m_ArrowDown_Bt);

  0001f	50		 push	 eax
  00020	8b cf		 mov	 ecx, edi
  00022	e8 00 00 00 00	 call	 ?SetToggle@CSymbolDlg@@AAEXPAVCWnd@@PAVCDynamicBitmapLoadButton@@@Z ; CSymbolDlg::SetToggle

; 172  : 	m_pMainSymbol->SetSymbolType(CSymbolBaseData::SYMBOL_ARROW_DOWN);

  00027	6a 0a		 push	 10			; 0000000aH
  00029	e8 00 00 00 00	 call	 ?SetSymbolType@CMainSymbolImplementation@@SAXW4TOOLTYPE@CSymbolBaseData@@@Z ; CMainSymbolImplementation::SetSymbolType
  0002e	83 c4 04	 add	 esp, 4
  00031	5f		 pop	 edi
  00032	5e		 pop	 esi

; 173  : }

  00033	c3		 ret	 0
?OnArrowDown@CSymbolDlg@@IAEXXZ ENDP			; CSymbolDlg::OnArrowDown
_TEXT	ENDS
; Function compile flags: /Ogtp
; File D:\git\src\IBK\IBK_DRFN\ProjSrc\SrcChartEx\ChartAddIn\ChartAnalysisToolAddIn\Symbol\SymbolDlg.cpp
; File C:\Program Files (x86)\Microsoft Visual Studio\2019\Community\VC\Tools\MSVC\14.29.30133\atlmfc\include\afxwin2.inl
; File D:\git\src\IBK\IBK_DRFN\ProjSrc\SrcChartEx\ChartAddIn\ChartAnalysisToolAddIn\Symbol\SymbolDlg.cpp
;	COMDAT ?OnArrowLefttop@CSymbolDlg@@IAEXXZ
_TEXT	SEGMENT
?OnArrowLefttop@CSymbolDlg@@IAEXXZ PROC			; CSymbolDlg::OnArrowLefttop, COMDAT
; _this$ = ecx

; 162  : {

  00000	56		 push	 esi
  00001	57		 push	 edi
  00002	8b f9		 mov	 edi, ecx

; 163  : 	SetBuletType(CSymbolBaseData::SYMBOL_ARROW_LEFTTOP, &m_ArrowLeftTop_Bt);

  00004	8d b7 68 10 00
	00		 lea	 esi, DWORD PTR [edi+4200]
  0000a	56		 push	 esi
  0000b	6a 0b		 push	 11			; 0000000bH
  0000d	e8 00 00 00 00	 call	 ?SetBuletType@CSymbolDlg@@AAEXW4TOOLTYPE@CSymbolBaseData@@PAVCDynamicBitmapLoadButton@@@Z ; CSymbolDlg::SetBuletType

; 164  : 	SetToggle(GetFocus(), &m_ArrowLeftTop_Bt);

  00012	56		 push	 esi
; File C:\Program Files (x86)\Microsoft Visual Studio\2019\Community\VC\Tools\MSVC\14.29.30133\atlmfc\include\afxwin2.inl

; 165  : 	{ return CWnd::FromHandle(::GetFocus()); }

  00013	ff 15 00 00 00
	00		 call	 DWORD PTR __imp__GetFocus@0
  00019	50		 push	 eax
  0001a	e8 00 00 00 00	 call	 ?FromHandle@CWnd@@SGPAV1@PAUHWND__@@@Z ; CWnd::FromHandle
; File D:\git\src\IBK\IBK_DRFN\ProjSrc\SrcChartEx\ChartAddIn\ChartAnalysisToolAddIn\Symbol\SymbolDlg.cpp

; 164  : 	SetToggle(GetFocus(), &m_ArrowLeftTop_Bt);

  0001f	50		 push	 eax
  00020	8b cf		 mov	 ecx, edi
  00022	e8 00 00 00 00	 call	 ?SetToggle@CSymbolDlg@@AAEXPAVCWnd@@PAVCDynamicBitmapLoadButton@@@Z ; CSymbolDlg::SetToggle

; 165  : 	m_pMainSymbol->SetSymbolType(CSymbolBaseData::SYMBOL_ARROW_LEFTTOP);

  00027	6a 0b		 push	 11			; 0000000bH
  00029	e8 00 00 00 00	 call	 ?SetSymbolType@CMainSymbolImplementation@@SAXW4TOOLTYPE@CSymbolBaseData@@@Z ; CMainSymbolImplementation::SetSymbolType
  0002e	83 c4 04	 add	 esp, 4
  00031	5f		 pop	 edi
  00032	5e		 pop	 esi

; 166  : }

  00033	c3		 ret	 0
?OnArrowLefttop@CSymbolDlg@@IAEXXZ ENDP			; CSymbolDlg::OnArrowLefttop
_TEXT	ENDS
; Function compile flags: /Ogtp
; File D:\git\src\IBK\IBK_DRFN\ProjSrc\SrcChartEx\ChartAddIn\ChartAnalysisToolAddIn\Symbol\SymbolDlg.cpp
;	COMDAT ?OnClose@CSymbolDlg@@IAEXXZ
_TEXT	SEGMENT
?OnClose@CSymbolDlg@@IAEXXZ PROC			; CSymbolDlg::OnClose, COMDAT
; _this$ = ecx

; 120  : {

  00000	56		 push	 esi
  00001	8b f1		 mov	 esi, ecx

; 121  : 	m_pSymbolData->SetBuletType(CSymbolBaseData::SYMBOL_SELECTION);

  00003	6a 06		 push	 6
  00005	8b 8e d4 13 00
	00		 mov	 ecx, DWORD PTR [esi+5076]
  0000b	e8 00 00 00 00	 call	 ?SetBuletType@CSymbolData@@QAEXW4TOOLTYPE@CSymbolBaseData@@@Z ; CSymbolData::SetBuletType

; 122  : 	m_bCloseDlg = true;
; 123  : 
; 124  : 	if(m_pMainSymbol != NULL) 

  00010	8b 8e d8 13 00
	00		 mov	 ecx, DWORD PTR [esi+5080]
  00016	c6 86 d0 13 00
	00 01		 mov	 BYTE PTR [esi+5072], 1
  0001d	85 c9		 test	 ecx, ecx
  0001f	74 13		 je	 SHORT $LN2@OnClose

; 125  : 	{ 		
; 126  : 		m_pMainSymbol->SetCurrentSymbolTool(CSymbol::SYMBOL_SELECTION);

  00021	6a 06		 push	 6
  00023	e8 00 00 00 00	 call	 ?SetCurrentSymbolTool@CMainSymbolImplementation@@QAEXW4SYMBOLTOOL@CSymbol@@@Z ; CMainSymbolImplementation::SetCurrentSymbolTool

; 127  : 		m_pMainSymbol->DeleteSymbolDlg();

  00028	8b 8e d8 13 00
	00		 mov	 ecx, DWORD PTR [esi+5080]
  0002e	5e		 pop	 esi
  0002f	e9 00 00 00 00	 jmp	 ?DeleteSymbolDlg@CMainSymbolImplementation@@QAEXXZ ; CMainSymbolImplementation::DeleteSymbolDlg
$LN2@OnClose:
  00034	5e		 pop	 esi

; 128  : 		//m_pSymbolData->GetParent()->OnToo
; 129  : 		//m_pMainSymbol->Initial();		
; 130  : 	}
; 131  : 
; 132  : 	//CDialog::OnClose();
; 133  : }

  00035	c3		 ret	 0
?OnClose@CSymbolDlg@@IAEXXZ ENDP			; CSymbolDlg::OnClose
_TEXT	ENDS
; Function compile flags: /Ogtp
; File D:\git\src\IBK\IBK_DRFN\ProjSrc\SrcChartEx\ChartAddIn\ChartAnalysisToolAddIn\Symbol\SymbolDlg.cpp
; File C:\Program Files (x86)\Microsoft Visual Studio\2019\Community\VC\Tools\MSVC\14.29.30133\atlmfc\include\afxwin2.inl
; File D:\git\src\IBK\IBK_DRFN\ProjSrc\SrcChartEx\ChartAddIn\ChartAnalysisToolAddIn\Symbol\SymbolDlg.cpp
;	COMDAT ?OnArrowRight@CSymbolDlg@@IAEXXZ
_TEXT	SEGMENT
?OnArrowRight@CSymbolDlg@@IAEXXZ PROC			; CSymbolDlg::OnArrowRight, COMDAT
; _this$ = ecx

; 156  : {

  00000	56		 push	 esi
  00001	57		 push	 edi
  00002	8b f9		 mov	 edi, ecx

; 157  : 	SetBuletType(CSymbolBaseData::SYMBOL_ARROW_RIGHT, &m_ArrowRight_Bt);

  00004	8d b7 b0 12 00
	00		 lea	 esi, DWORD PTR [edi+4784]
  0000a	56		 push	 esi
  0000b	6a 08		 push	 8
  0000d	e8 00 00 00 00	 call	 ?SetBuletType@CSymbolDlg@@AAEXW4TOOLTYPE@CSymbolBaseData@@PAVCDynamicBitmapLoadButton@@@Z ; CSymbolDlg::SetBuletType

; 158  : 	SetToggle(GetFocus(), &m_ArrowRight_Bt);

  00012	56		 push	 esi
; File C:\Program Files (x86)\Microsoft Visual Studio\2019\Community\VC\Tools\MSVC\14.29.30133\atlmfc\include\afxwin2.inl

; 165  : 	{ return CWnd::FromHandle(::GetFocus()); }

  00013	ff 15 00 00 00
	00		 call	 DWORD PTR __imp__GetFocus@0
  00019	50		 push	 eax
  0001a	e8 00 00 00 00	 call	 ?FromHandle@CWnd@@SGPAV1@PAUHWND__@@@Z ; CWnd::FromHandle
; File D:\git\src\IBK\IBK_DRFN\ProjSrc\SrcChartEx\ChartAddIn\ChartAnalysisToolAddIn\Symbol\SymbolDlg.cpp

; 158  : 	SetToggle(GetFocus(), &m_ArrowRight_Bt);

  0001f	50		 push	 eax
  00020	8b cf		 mov	 ecx, edi
  00022	e8 00 00 00 00	 call	 ?SetToggle@CSymbolDlg@@AAEXPAVCWnd@@PAVCDynamicBitmapLoadButton@@@Z ; CSymbolDlg::SetToggle

; 159  : 	m_pMainSymbol->SetSymbolType(CSymbolBaseData::SYMBOL_ARROW_RIGHT);

  00027	6a 08		 push	 8
  00029	e8 00 00 00 00	 call	 ?SetSymbolType@CMainSymbolImplementation@@SAXW4TOOLTYPE@CSymbolBaseData@@@Z ; CMainSymbolImplementation::SetSymbolType
  0002e	83 c4 04	 add	 esp, 4
  00031	5f		 pop	 edi
  00032	5e		 pop	 esi

; 160  : }

  00033	c3		 ret	 0
?OnArrowRight@CSymbolDlg@@IAEXXZ ENDP			; CSymbolDlg::OnArrowRight
_TEXT	ENDS
; Function compile flags: /Ogtp
; File D:\git\src\IBK\IBK_DRFN\ProjSrc\SrcChartEx\ChartAddIn\ChartAnalysisToolAddIn\Symbol\SymbolDlg.cpp
; File C:\Program Files (x86)\Microsoft Visual Studio\2019\Community\VC\Tools\MSVC\14.29.30133\atlmfc\include\afxwin2.inl
; File D:\git\src\IBK\IBK_DRFN\ProjSrc\SrcChartEx\ChartAddIn\ChartAnalysisToolAddIn\Symbol\SymbolDlg.cpp
;	COMDAT ?OnArrowLeft@CSymbolDlg@@IAEXXZ
_TEXT	SEGMENT
?OnArrowLeft@CSymbolDlg@@IAEXXZ PROC			; CSymbolDlg::OnArrowLeft, COMDAT
; _this$ = ecx

; 148  : {

  00000	56		 push	 esi
  00001	57		 push	 edi
  00002	8b f9		 mov	 edi, ecx

; 149  : 	//  
; 150  : 	SetBuletType(CSymbolBaseData::SYMBOL_ARROW_LEFT, &m_ArrowLeft_Bt);

  00004	8d b7 40 13 00
	00		 lea	 esi, DWORD PTR [edi+4928]
  0000a	56		 push	 esi
  0000b	6a 07		 push	 7
  0000d	e8 00 00 00 00	 call	 ?SetBuletType@CSymbolDlg@@AAEXW4TOOLTYPE@CSymbolBaseData@@PAVCDynamicBitmapLoadButton@@@Z ; CSymbolDlg::SetBuletType

; 151  : 	SetToggle(GetFocus(), &m_ArrowLeft_Bt);

  00012	56		 push	 esi
; File C:\Program Files (x86)\Microsoft Visual Studio\2019\Community\VC\Tools\MSVC\14.29.30133\atlmfc\include\afxwin2.inl

; 165  : 	{ return CWnd::FromHandle(::GetFocus()); }

  00013	ff 15 00 00 00
	00		 call	 DWORD PTR __imp__GetFocus@0
  00019	50		 push	 eax
  0001a	e8 00 00 00 00	 call	 ?FromHandle@CWnd@@SGPAV1@PAUHWND__@@@Z ; CWnd::FromHandle
; File D:\git\src\IBK\IBK_DRFN\ProjSrc\SrcChartEx\ChartAddIn\ChartAnalysisToolAddIn\Symbol\SymbolDlg.cpp

; 151  : 	SetToggle(GetFocus(), &m_ArrowLeft_Bt);

  0001f	50		 push	 eax
  00020	8b cf		 mov	 ecx, edi
  00022	e8 00 00 00 00	 call	 ?SetToggle@CSymbolDlg@@AAEXPAVCWnd@@PAVCDynamicBitmapLoadButton@@@Z ; CSymbolDlg::SetToggle

; 152  : 	m_pMainSymbol->SetSymbolType(CSymbolBaseData::SYMBOL_ARROW_LEFT);

  00027	6a 07		 push	 7
  00029	e8 00 00 00 00	 call	 ?SetSymbolType@CMainSymbolImplementation@@SAXW4TOOLTYPE@CSymbolBaseData@@@Z ; CMainSymbolImplementation::SetSymbolType
  0002e	83 c4 04	 add	 esp, 4
  00031	5f		 pop	 edi
  00032	5e		 pop	 esi

; 153  : }

  00033	c3		 ret	 0
?OnArrowLeft@CSymbolDlg@@IAEXXZ ENDP			; CSymbolDlg::OnArrowLeft
_TEXT	ENDS
; Function compile flags: /Ogtp
; File D:\git\src\IBK\IBK_DRFN\ProjSrc\SrcChartEx\ChartAddIn\ChartAnalysisToolAddIn\Symbol\SymbolDlg.cpp
;	COMDAT ?DoDataExchange@CSymbolDlg@@MAEXPAVCDataExchange@@@Z
_TEXT	SEGMENT
_pDX$ = 8						; size = 4
?DoDataExchange@CSymbolDlg@@MAEXPAVCDataExchange@@@Z PROC ; CSymbolDlg::DoDataExchange, COMDAT
; _this$ = ecx

; 33   : {

  00000	55		 push	 ebp
  00001	8b ec		 mov	 ebp, esp
  00003	56		 push	 esi

; 34   : 	CDialog::DoDataExchange(pDX);
; 35   : 	//{{AFX_DATA_MAP(CSymbolDlg)
; 36   : 	DDX_Control(pDX, IDC_TEXT_SPECIAL_1, m_Char_1_Bt);

  00004	8b 75 08	 mov	 esi, DWORD PTR _pDX$[ebp]
  00007	57		 push	 edi
  00008	8b f9		 mov	 edi, ecx
  0000a	8d 87 a8 00 00
	00		 lea	 eax, DWORD PTR [edi+168]
  00010	50		 push	 eax
  00011	68 0b 04 00 00	 push	 1035			; 0000040bH
  00016	56		 push	 esi
  00017	e8 00 00 00 00	 call	 ?DDX_Control@@YGXPAVCDataExchange@@HAAVCWnd@@@Z ; DDX_Control

; 37   : 	DDX_Control(pDX, IDC_TEXT_SPECIAL_2, m_Char_2_Bt);

  0001c	8d 87 38 01 00
	00		 lea	 eax, DWORD PTR [edi+312]
  00022	50		 push	 eax
  00023	68 0c 04 00 00	 push	 1036			; 0000040cH
  00028	56		 push	 esi
  00029	e8 00 00 00 00	 call	 ?DDX_Control@@YGXPAVCDataExchange@@HAAVCWnd@@@Z ; DDX_Control

; 38   : 	DDX_Control(pDX, IDC_TEXT_SPECIAL_3, m_Char_3_Bt);

  0002e	8d 87 c8 01 00
	00		 lea	 eax, DWORD PTR [edi+456]
  00034	50		 push	 eax
  00035	68 0d 04 00 00	 push	 1037			; 0000040dH
  0003a	56		 push	 esi
  0003b	e8 00 00 00 00	 call	 ?DDX_Control@@YGXPAVCDataExchange@@HAAVCWnd@@@Z ; DDX_Control

; 39   : 	DDX_Control(pDX, IDC_TEXT_SPECIAL_4, m_Char_4_Bt);

  00040	8d 87 58 02 00
	00		 lea	 eax, DWORD PTR [edi+600]
  00046	50		 push	 eax
  00047	68 0e 04 00 00	 push	 1038			; 0000040eH
  0004c	56		 push	 esi
  0004d	e8 00 00 00 00	 call	 ?DDX_Control@@YGXPAVCDataExchange@@HAAVCWnd@@@Z ; DDX_Control

; 40   : 	DDX_Control(pDX, IDC_TEXT_SPECIAL_5, m_Char_5_Bt);

  00052	8d 87 e8 02 00
	00		 lea	 eax, DWORD PTR [edi+744]
  00058	50		 push	 eax
  00059	68 0f 04 00 00	 push	 1039			; 0000040fH
  0005e	56		 push	 esi
  0005f	e8 00 00 00 00	 call	 ?DDX_Control@@YGXPAVCDataExchange@@HAAVCWnd@@@Z ; DDX_Control

; 41   : 	DDX_Control(pDX, IDC_TEXT_SPECIAL_6, m_Char_6_Bt);

  00064	8d 87 78 03 00
	00		 lea	 eax, DWORD PTR [edi+888]
  0006a	50		 push	 eax
  0006b	68 10 04 00 00	 push	 1040			; 00000410H
  00070	56		 push	 esi
  00071	e8 00 00 00 00	 call	 ?DDX_Control@@YGXPAVCDataExchange@@HAAVCWnd@@@Z ; DDX_Control

; 42   : 	DDX_Control(pDX, IDC_TEXT_H, m_Text_H_Bt);

  00076	8d 87 08 04 00
	00		 lea	 eax, DWORD PTR [edi+1032]
  0007c	50		 push	 eax
  0007d	68 0a 04 00 00	 push	 1034			; 0000040aH
  00082	56		 push	 esi
  00083	e8 00 00 00 00	 call	 ?DDX_Control@@YGXPAVCDataExchange@@HAAVCWnd@@@Z ; DDX_Control

; 43   : 	DDX_Control(pDX, IDC_TEXT_G, m_Text_G_Bt);

  00088	8d 87 98 04 00
	00		 lea	 eax, DWORD PTR [edi+1176]
  0008e	50		 push	 eax
  0008f	68 09 04 00 00	 push	 1033			; 00000409H
  00094	56		 push	 esi
  00095	e8 00 00 00 00	 call	 ?DDX_Control@@YGXPAVCDataExchange@@HAAVCWnd@@@Z ; DDX_Control

; 44   : 	DDX_Control(pDX, IDC_TEXT_F, m_Text_F_Bt);

  0009a	8d 87 28 05 00
	00		 lea	 eax, DWORD PTR [edi+1320]
  000a0	50		 push	 eax
  000a1	68 08 04 00 00	 push	 1032			; 00000408H
  000a6	56		 push	 esi
  000a7	e8 00 00 00 00	 call	 ?DDX_Control@@YGXPAVCDataExchange@@HAAVCWnd@@@Z ; DDX_Control

; 45   : 	DDX_Control(pDX, IDC_TEXT_E, m_Text_E_Bt);

  000ac	8d 87 b8 05 00
	00		 lea	 eax, DWORD PTR [edi+1464]
  000b2	50		 push	 eax
  000b3	68 07 04 00 00	 push	 1031			; 00000407H
  000b8	56		 push	 esi
  000b9	e8 00 00 00 00	 call	 ?DDX_Control@@YGXPAVCDataExchange@@HAAVCWnd@@@Z ; DDX_Control

; 46   : 	DDX_Control(pDX, IDC_TEXT_D, m_Text_D_Bt);

  000be	8d 87 48 06 00
	00		 lea	 eax, DWORD PTR [edi+1608]
  000c4	50		 push	 eax
  000c5	68 06 04 00 00	 push	 1030			; 00000406H
  000ca	56		 push	 esi
  000cb	e8 00 00 00 00	 call	 ?DDX_Control@@YGXPAVCDataExchange@@HAAVCWnd@@@Z ; DDX_Control

; 47   : 	DDX_Control(pDX, IDC_TEXT_C, m_Text_C_Bt);

  000d0	8d 87 d8 06 00
	00		 lea	 eax, DWORD PTR [edi+1752]
  000d6	50		 push	 eax
  000d7	68 fd 03 00 00	 push	 1021			; 000003fdH
  000dc	56		 push	 esi
  000dd	e8 00 00 00 00	 call	 ?DDX_Control@@YGXPAVCDataExchange@@HAAVCWnd@@@Z ; DDX_Control

; 48   : 	DDX_Control(pDX, IDC_TEXT_B, m_Text_B_Bt);

  000e2	8d 87 68 07 00
	00		 lea	 eax, DWORD PTR [edi+1896]
  000e8	50		 push	 eax
  000e9	68 fc 03 00 00	 push	 1020			; 000003fcH
  000ee	56		 push	 esi
  000ef	e8 00 00 00 00	 call	 ?DDX_Control@@YGXPAVCDataExchange@@HAAVCWnd@@@Z ; DDX_Control

; 49   : 	DDX_Control(pDX, IDC_TEXT_A, m_Text_A_Bt);

  000f4	8d 87 f8 07 00
	00		 lea	 eax, DWORD PTR [edi+2040]
  000fa	50		 push	 eax
  000fb	68 fb 03 00 00	 push	 1019			; 000003fbH
  00100	56		 push	 esi
  00101	e8 00 00 00 00	 call	 ?DDX_Control@@YGXPAVCDataExchange@@HAAVCWnd@@@Z ; DDX_Control

; 50   : 	DDX_Control(pDX, IDC_NUM_TWO, m_NumTwo_Bt);

  00106	8d 87 88 08 00
	00		 lea	 eax, DWORD PTR [edi+2184]
  0010c	50		 push	 eax
  0010d	68 f7 03 00 00	 push	 1015			; 000003f7H
  00112	56		 push	 esi
  00113	e8 00 00 00 00	 call	 ?DDX_Control@@YGXPAVCDataExchange@@HAAVCWnd@@@Z ; DDX_Control

; 51   : 	DDX_Control(pDX, IDC_NUM_THREE, m_NumThree_Bt);

  00118	8d 87 18 09 00
	00		 lea	 eax, DWORD PTR [edi+2328]
  0011e	50		 push	 eax
  0011f	68 f8 03 00 00	 push	 1016			; 000003f8H
  00124	56		 push	 esi
  00125	e8 00 00 00 00	 call	 ?DDX_Control@@YGXPAVCDataExchange@@HAAVCWnd@@@Z ; DDX_Control

; 52   : 	DDX_Control(pDX, IDC_NUM_ONE, m_NumOne_Bt);

  0012a	8d 87 a8 09 00
	00		 lea	 eax, DWORD PTR [edi+2472]
  00130	50		 push	 eax
  00131	68 f6 03 00 00	 push	 1014			; 000003f6H
  00136	56		 push	 esi
  00137	e8 00 00 00 00	 call	 ?DDX_Control@@YGXPAVCDataExchange@@HAAVCWnd@@@Z ; DDX_Control

; 53   : 	DDX_Control(pDX, IDC_NUM_FOUR, m_NumFour_Bt);

  0013c	8d 87 38 0a 00
	00		 lea	 eax, DWORD PTR [edi+2616]
  00142	50		 push	 eax
  00143	68 f9 03 00 00	 push	 1017			; 000003f9H
  00148	56		 push	 esi
  00149	e8 00 00 00 00	 call	 ?DDX_Control@@YGXPAVCDataExchange@@HAAVCWnd@@@Z ; DDX_Control

; 54   : 	DDX_Control(pDX, IDC_NUM_FIVE, m_NumFive_Bt);

  0014e	8d 87 c8 0a 00
	00		 lea	 eax, DWORD PTR [edi+2760]
  00154	50		 push	 eax
  00155	68 fa 03 00 00	 push	 1018			; 000003faH
  0015a	56		 push	 esi
  0015b	e8 00 00 00 00	 call	 ?DDX_Control@@YGXPAVCDataExchange@@HAAVCWnd@@@Z ; DDX_Control

; 55   : 	DDX_Control(pDX, IDC_NUM_SIX, m_NumSix_Bt);

  00160	8d 87 58 0b 00
	00		 lea	 eax, DWORD PTR [edi+2904]
  00166	50		 push	 eax
  00167	68 fe 03 00 00	 push	 1022			; 000003feH
  0016c	56		 push	 esi
  0016d	e8 00 00 00 00	 call	 ?DDX_Control@@YGXPAVCDataExchange@@HAAVCWnd@@@Z ; DDX_Control

; 56   : 	DDX_Control(pDX, IDC_NUM_SEVEN, m_NumSeven_Bt);

  00172	8d 87 e8 0b 00
	00		 lea	 eax, DWORD PTR [edi+3048]
  00178	50		 push	 eax
  00179	68 ff 03 00 00	 push	 1023			; 000003ffH
  0017e	56		 push	 esi
  0017f	e8 00 00 00 00	 call	 ?DDX_Control@@YGXPAVCDataExchange@@HAAVCWnd@@@Z ; DDX_Control

; 57   : 	DDX_Control(pDX, IDC_NUM_EIGHT, m_NumEight_Bt);

  00184	8d 87 78 0c 00
	00		 lea	 eax, DWORD PTR [edi+3192]
  0018a	50		 push	 eax
  0018b	68 01 04 00 00	 push	 1025			; 00000401H
  00190	56		 push	 esi
  00191	e8 00 00 00 00	 call	 ?DDX_Control@@YGXPAVCDataExchange@@HAAVCWnd@@@Z ; DDX_Control

; 58   : 	DDX_Control(pDX, IDC_NUM_NINE, m_NumNine_Bt);

  00196	8d 87 08 0d 00
	00		 lea	 eax, DWORD PTR [edi+3336]
  0019c	50		 push	 eax
  0019d	68 02 04 00 00	 push	 1026			; 00000402H
  001a2	56		 push	 esi
  001a3	e8 00 00 00 00	 call	 ?DDX_Control@@YGXPAVCDataExchange@@HAAVCWnd@@@Z ; DDX_Control

; 59   : 	DDX_Control(pDX, IDC_NUM_TEN, m_NumTen_Bt);

  001a8	8d 87 98 0d 00
	00		 lea	 eax, DWORD PTR [edi+3480]
  001ae	50		 push	 eax
  001af	68 03 04 00 00	 push	 1027			; 00000403H
  001b4	56		 push	 esi
  001b5	e8 00 00 00 00	 call	 ?DDX_Control@@YGXPAVCDataExchange@@HAAVCWnd@@@Z ; DDX_Control

; 60   : 	DDX_Control(pDX, IDC_ARROW_UP, m_ArrowUp_Bt);

  001ba	8d 87 28 0e 00
	00		 lea	 eax, DWORD PTR [edi+3624]
  001c0	50		 push	 eax
  001c1	68 f0 03 00 00	 push	 1008			; 000003f0H
  001c6	56		 push	 esi
  001c7	e8 00 00 00 00	 call	 ?DDX_Control@@YGXPAVCDataExchange@@HAAVCWnd@@@Z ; DDX_Control

; 61   : 	DDX_Control(pDX, IDC_ARROW_RIGHTTOP, m_ArrowRightTop_Bt);

  001cc	8d 87 b8 0e 00
	00		 lea	 eax, DWORD PTR [edi+3768]
  001d2	50		 push	 eax
  001d3	68 f3 03 00 00	 push	 1011			; 000003f3H
  001d8	56		 push	 esi
  001d9	e8 00 00 00 00	 call	 ?DDX_Control@@YGXPAVCDataExchange@@HAAVCWnd@@@Z ; DDX_Control

; 62   : 	DDX_Control(pDX, IDC_ARROW_RIGHTBOTTOM, m_ArrowRightBottom_Bt);

  001de	8d 87 48 0f 00
	00		 lea	 eax, DWORD PTR [edi+3912]
  001e4	50		 push	 eax
  001e5	68 f5 03 00 00	 push	 1013			; 000003f5H
  001ea	56		 push	 esi
  001eb	e8 00 00 00 00	 call	 ?DDX_Control@@YGXPAVCDataExchange@@HAAVCWnd@@@Z ; DDX_Control

; 63   : 	DDX_Control(pDX, IDC_ARROW_LEFTBOTTOM, m_ArrowLeftBottom_Bt);

  001f0	8d 87 d8 0f 00
	00		 lea	 eax, DWORD PTR [edi+4056]
  001f6	50		 push	 eax
  001f7	68 f4 03 00 00	 push	 1012			; 000003f4H
  001fc	56		 push	 esi
  001fd	e8 00 00 00 00	 call	 ?DDX_Control@@YGXPAVCDataExchange@@HAAVCWnd@@@Z ; DDX_Control

; 64   : 	DDX_Control(pDX, IDC_ARROW_LEFTTOP, m_ArrowLeftTop_Bt);

  00202	8d 87 68 10 00
	00		 lea	 eax, DWORD PTR [edi+4200]
  00208	50		 push	 eax
  00209	68 f2 03 00 00	 push	 1010			; 000003f2H
  0020e	56		 push	 esi
  0020f	e8 00 00 00 00	 call	 ?DDX_Control@@YGXPAVCDataExchange@@HAAVCWnd@@@Z ; DDX_Control

; 65   : 	DDX_Control(pDX, IDC_ARROW_DOWN, m_ArrowDown_Bt);

  00214	8d 87 f8 10 00
	00		 lea	 eax, DWORD PTR [edi+4344]
  0021a	50		 push	 eax
  0021b	68 f1 03 00 00	 push	 1009			; 000003f1H
  00220	56		 push	 esi
  00221	e8 00 00 00 00	 call	 ?DDX_Control@@YGXPAVCDataExchange@@HAAVCWnd@@@Z ; DDX_Control

; 66   : 	DDX_Control(pDX, IDC_PREVIEW, m_PreView_Static);

  00226	8d 87 88 11 00
	00		 lea	 eax, DWORD PTR [edi+4488]
  0022c	50		 push	 eax
  0022d	68 00 04 00 00	 push	 1024			; 00000400H
  00232	56		 push	 esi
  00233	e8 00 00 00 00	 call	 ?DDX_Control@@YGXPAVCDataExchange@@HAAVCWnd@@@Z ; DDX_Control

; 67   : 	DDX_Control(pDX, IDC_COLOR, m_Color_Bt);

  00238	8d 87 28 12 00
	00		 lea	 eax, DWORD PTR [edi+4648]
  0023e	50		 push	 eax
  0023f	68 04 04 00 00	 push	 1028			; 00000404H
  00244	56		 push	 esi
  00245	e8 00 00 00 00	 call	 ?DDX_Control@@YGXPAVCDataExchange@@HAAVCWnd@@@Z ; DDX_Control

; 68   : 	DDX_Control(pDX, IDC_ARROW_RIGHT, m_ArrowRight_Bt);

  0024a	8d 87 b0 12 00
	00		 lea	 eax, DWORD PTR [edi+4784]
  00250	50		 push	 eax
  00251	68 ea 03 00 00	 push	 1002			; 000003eaH
  00256	56		 push	 esi
  00257	e8 00 00 00 00	 call	 ?DDX_Control@@YGXPAVCDataExchange@@HAAVCWnd@@@Z ; DDX_Control

; 69   : 	DDX_Control(pDX, IDC_ARROW_LEFT, m_ArrowLeft_Bt);

  0025c	8d 87 40 13 00
	00		 lea	 eax, DWORD PTR [edi+4928]
  00262	50		 push	 eax
  00263	68 e9 03 00 00	 push	 1001			; 000003e9H
  00268	56		 push	 esi
  00269	e8 00 00 00 00	 call	 ?DDX_Control@@YGXPAVCDataExchange@@HAAVCWnd@@@Z ; DDX_Control
  0026e	5f		 pop	 edi
  0026f	5e		 pop	 esi

; 70   : 	//}}AFX_DATA_MAP
; 71   : }

  00270	5d		 pop	 ebp
  00271	c2 04 00	 ret	 4
?DoDataExchange@CSymbolDlg@@MAEXPAVCDataExchange@@@Z ENDP ; CSymbolDlg::DoDataExchange
_TEXT	ENDS
; Function compile flags: /Ogtp
; File D:\git\src\IBK\IBK_DRFN\ProjSrc\SrcChartEx\ChartAddIn\ChartAnalysisToolAddIn\Symbol\SymbolDlg.cpp
;	COMDAT ?IsSymbolDlgClose@CSymbolDlg@@QAE_NXZ
_TEXT	SEGMENT
?IsSymbolDlgClose@CSymbolDlg@@QAE_NXZ PROC		; CSymbolDlg::IsSymbolDlgClose, COMDAT
; _this$ = ecx

; 144  : 	return m_bCloseDlg;

  00000	8a 81 d0 13 00
	00		 mov	 al, BYTE PTR [ecx+5072]

; 145  : }

  00006	c3		 ret	 0
?IsSymbolDlgClose@CSymbolDlg@@QAE_NXZ ENDP		; CSymbolDlg::IsSymbolDlgClose
_TEXT	ENDS
; Function compile flags: /Ogtp
; File D:\git\src\IBK\IBK_DRFN\ProjSrc\SrcChartEx\ChartAddIn\ChartAnalysisToolAddIn\Symbol\SymbolDlg.cpp
;	COMDAT ?SetData@CSymbolDlg@@QAEXPAVCSymbolData@@@Z
_TEXT	SEGMENT
_pSymbolData$ = 8					; size = 4
?SetData@CSymbolDlg@@QAEXPAVCSymbolData@@@Z PROC	; CSymbolDlg::SetData, COMDAT
; _this$ = ecx

; 607  : {

  00000	55		 push	 ebp
  00001	8b ec		 mov	 ebp, esp

; 608  : 	m_bCloseDlg =  false;
; 609  : 	m_pSymbolData  = pSymbolData;

  00003	8b 45 08	 mov	 eax, DWORD PTR _pSymbolData$[ebp]
  00006	c6 81 d0 13 00
	00 00		 mov	 BYTE PTR [ecx+5072], 0
  0000d	89 81 d4 13 00
	00		 mov	 DWORD PTR [ecx+5076], eax

; 610  : }

  00013	5d		 pop	 ebp
  00014	c2 04 00	 ret	 4
?SetData@CSymbolDlg@@QAEXPAVCSymbolData@@@Z ENDP	; CSymbolDlg::SetData
_TEXT	ENDS
; Function compile flags: /Ogtp
; File D:\git\src\IBK\IBK_DRFN\ProjSrc\SrcChartEx\ChartAddIn\ChartAnalysisToolAddIn\Symbol\SymbolDlg.cpp
;	COMDAT ??0CSymbolDlg@@QAE@PAVCMainSymbolImplementation@@PAVCSymbolData@@PAVCWnd@@@Z
_TEXT	SEGMENT
_this$ = -16						; size = 4
__$EHRec$ = -12						; size = 12
_pMain$ = 8						; size = 4
_pSymbolData$ = 12					; size = 4
_pParent$ = 16						; size = 4
??0CSymbolDlg@@QAE@PAVCMainSymbolImplementation@@PAVCSymbolData@@PAVCWnd@@@Z PROC ; CSymbolDlg::CSymbolDlg, COMDAT
; _this$ = ecx

; 23   : {

  00000	55		 push	 ebp
  00001	8b ec		 mov	 ebp, esp
  00003	6a ff		 push	 -1
  00005	68 00 00 00 00	 push	 __ehhandler$??0CSymbolDlg@@QAE@PAVCMainSymbolImplementation@@PAVCSymbolData@@PAVCWnd@@@Z
  0000a	64 a1 00 00 00
	00		 mov	 eax, DWORD PTR fs:0
  00010	50		 push	 eax
  00011	51		 push	 ecx
  00012	56		 push	 esi
  00013	a1 00 00 00 00	 mov	 eax, DWORD PTR ___security_cookie
  00018	33 c5		 xor	 eax, ebp
  0001a	50		 push	 eax
  0001b	8d 45 f4	 lea	 eax, DWORD PTR __$EHRec$[ebp]
  0001e	64 a3 00 00 00
	00		 mov	 DWORD PTR fs:0, eax
  00024	8b f1		 mov	 esi, ecx
  00026	89 75 f0	 mov	 DWORD PTR _this$[ebp], esi

; 22   : 	: CDialog(CSymbolDlg::IDD, pParent)

  00029	ff 75 10	 push	 DWORD PTR _pParent$[ebp]
  0002c	68 e8 03 00 00	 push	 1000			; 000003e8H
  00031	e8 00 00 00 00	 call	 ??0CDialog@@QAE@IPAVCWnd@@@Z ; CDialog::CDialog

; 23   : {

  00036	8d 8e a8 00 00
	00		 lea	 ecx, DWORD PTR [esi+168]
  0003c	c7 45 fc 00 00
	00 00		 mov	 DWORD PTR __$EHRec$[ebp+8], 0
  00043	c7 06 00 00 00
	00		 mov	 DWORD PTR [esi], OFFSET ??_7CSymbolDlg@@6B@
  00049	e8 00 00 00 00	 call	 ??0CDynamicBitmapLoadButton@@QAE@XZ ; CDynamicBitmapLoadButton::CDynamicBitmapLoadButton
  0004e	8d 8e 38 01 00
	00		 lea	 ecx, DWORD PTR [esi+312]
  00054	c6 45 fc 01	 mov	 BYTE PTR __$EHRec$[ebp+8], 1
  00058	e8 00 00 00 00	 call	 ??0CDynamicBitmapLoadButton@@QAE@XZ ; CDynamicBitmapLoadButton::CDynamicBitmapLoadButton
  0005d	8d 8e c8 01 00
	00		 lea	 ecx, DWORD PTR [esi+456]
  00063	c6 45 fc 02	 mov	 BYTE PTR __$EHRec$[ebp+8], 2
  00067	e8 00 00 00 00	 call	 ??0CDynamicBitmapLoadButton@@QAE@XZ ; CDynamicBitmapLoadButton::CDynamicBitmapLoadButton
  0006c	8d 8e 58 02 00
	00		 lea	 ecx, DWORD PTR [esi+600]
  00072	c6 45 fc 03	 mov	 BYTE PTR __$EHRec$[ebp+8], 3
  00076	e8 00 00 00 00	 call	 ??0CDynamicBitmapLoadButton@@QAE@XZ ; CDynamicBitmapLoadButton::CDynamicBitmapLoadButton
  0007b	8d 8e e8 02 00
	00		 lea	 ecx, DWORD PTR [esi+744]
  00081	c6 45 fc 04	 mov	 BYTE PTR __$EHRec$[ebp+8], 4
  00085	e8 00 00 00 00	 call	 ??0CDynamicBitmapLoadButton@@QAE@XZ ; CDynamicBitmapLoadButton::CDynamicBitmapLoadButton
  0008a	8d 8e 78 03 00
	00		 lea	 ecx, DWORD PTR [esi+888]
  00090	c6 45 fc 05	 mov	 BYTE PTR __$EHRec$[ebp+8], 5
  00094	e8 00 00 00 00	 call	 ??0CDynamicBitmapLoadButton@@QAE@XZ ; CDynamicBitmapLoadButton::CDynamicBitmapLoadButton
  00099	8d 8e 08 04 00
	00		 lea	 ecx, DWORD PTR [esi+1032]
  0009f	c6 45 fc 06	 mov	 BYTE PTR __$EHRec$[ebp+8], 6
  000a3	e8 00 00 00 00	 call	 ??0CDynamicBitmapLoadButton@@QAE@XZ ; CDynamicBitmapLoadButton::CDynamicBitmapLoadButton
  000a8	8d 8e 98 04 00
	00		 lea	 ecx, DWORD PTR [esi+1176]
  000ae	c6 45 fc 07	 mov	 BYTE PTR __$EHRec$[ebp+8], 7
  000b2	e8 00 00 00 00	 call	 ??0CDynamicBitmapLoadButton@@QAE@XZ ; CDynamicBitmapLoadButton::CDynamicBitmapLoadButton
  000b7	8d 8e 28 05 00
	00		 lea	 ecx, DWORD PTR [esi+1320]
  000bd	c6 45 fc 08	 mov	 BYTE PTR __$EHRec$[ebp+8], 8
  000c1	e8 00 00 00 00	 call	 ??0CDynamicBitmapLoadButton@@QAE@XZ ; CDynamicBitmapLoadButton::CDynamicBitmapLoadButton
  000c6	8d 8e b8 05 00
	00		 lea	 ecx, DWORD PTR [esi+1464]
  000cc	c6 45 fc 09	 mov	 BYTE PTR __$EHRec$[ebp+8], 9
  000d0	e8 00 00 00 00	 call	 ??0CDynamicBitmapLoadButton@@QAE@XZ ; CDynamicBitmapLoadButton::CDynamicBitmapLoadButton
  000d5	8d 8e 48 06 00
	00		 lea	 ecx, DWORD PTR [esi+1608]
  000db	c6 45 fc 0a	 mov	 BYTE PTR __$EHRec$[ebp+8], 10 ; 0000000aH
  000df	e8 00 00 00 00	 call	 ??0CDynamicBitmapLoadButton@@QAE@XZ ; CDynamicBitmapLoadButton::CDynamicBitmapLoadButton
  000e4	8d 8e d8 06 00
	00		 lea	 ecx, DWORD PTR [esi+1752]
  000ea	c6 45 fc 0b	 mov	 BYTE PTR __$EHRec$[ebp+8], 11 ; 0000000bH
  000ee	e8 00 00 00 00	 call	 ??0CDynamicBitmapLoadButton@@QAE@XZ ; CDynamicBitmapLoadButton::CDynamicBitmapLoadButton
  000f3	8d 8e 68 07 00
	00		 lea	 ecx, DWORD PTR [esi+1896]
  000f9	c6 45 fc 0c	 mov	 BYTE PTR __$EHRec$[ebp+8], 12 ; 0000000cH
  000fd	e8 00 00 00 00	 call	 ??0CDynamicBitmapLoadButton@@QAE@XZ ; CDynamicBitmapLoadButton::CDynamicBitmapLoadButton
  00102	8d 8e f8 07 00
	00		 lea	 ecx, DWORD PTR [esi+2040]
  00108	c6 45 fc 0d	 mov	 BYTE PTR __$EHRec$[ebp+8], 13 ; 0000000dH
  0010c	e8 00 00 00 00	 call	 ??0CDynamicBitmapLoadButton@@QAE@XZ ; CDynamicBitmapLoadButton::CDynamicBitmapLoadButton
  00111	8d 8e 88 08 00
	00		 lea	 ecx, DWORD PTR [esi+2184]
  00117	c6 45 fc 0e	 mov	 BYTE PTR __$EHRec$[ebp+8], 14 ; 0000000eH
  0011b	e8 00 00 00 00	 call	 ??0CDynamicBitmapLoadButton@@QAE@XZ ; CDynamicBitmapLoadButton::CDynamicBitmapLoadButton
  00120	8d 8e 18 09 00
	00		 lea	 ecx, DWORD PTR [esi+2328]
  00126	c6 45 fc 0f	 mov	 BYTE PTR __$EHRec$[ebp+8], 15 ; 0000000fH
  0012a	e8 00 00 00 00	 call	 ??0CDynamicBitmapLoadButton@@QAE@XZ ; CDynamicBitmapLoadButton::CDynamicBitmapLoadButton
  0012f	8d 8e a8 09 00
	00		 lea	 ecx, DWORD PTR [esi+2472]
  00135	c6 45 fc 10	 mov	 BYTE PTR __$EHRec$[ebp+8], 16 ; 00000010H
  00139	e8 00 00 00 00	 call	 ??0CDynamicBitmapLoadButton@@QAE@XZ ; CDynamicBitmapLoadButton::CDynamicBitmapLoadButton
  0013e	8d 8e 38 0a 00
	00		 lea	 ecx, DWORD PTR [esi+2616]
  00144	c6 45 fc 11	 mov	 BYTE PTR __$EHRec$[ebp+8], 17 ; 00000011H
  00148	e8 00 00 00 00	 call	 ??0CDynamicBitmapLoadButton@@QAE@XZ ; CDynamicBitmapLoadButton::CDynamicBitmapLoadButton
  0014d	8d 8e c8 0a 00
	00		 lea	 ecx, DWORD PTR [esi+2760]
  00153	c6 45 fc 12	 mov	 BYTE PTR __$EHRec$[ebp+8], 18 ; 00000012H
  00157	e8 00 00 00 00	 call	 ??0CDynamicBitmapLoadButton@@QAE@XZ ; CDynamicBitmapLoadButton::CDynamicBitmapLoadButton
  0015c	8d 8e 58 0b 00
	00		 lea	 ecx, DWORD PTR [esi+2904]
  00162	c6 45 fc 13	 mov	 BYTE PTR __$EHRec$[ebp+8], 19 ; 00000013H
  00166	e8 00 00 00 00	 call	 ??0CDynamicBitmapLoadButton@@QAE@XZ ; CDynamicBitmapLoadButton::CDynamicBitmapLoadButton
  0016b	8d 8e e8 0b 00
	00		 lea	 ecx, DWORD PTR [esi+3048]
  00171	c6 45 fc 14	 mov	 BYTE PTR __$EHRec$[ebp+8], 20 ; 00000014H
  00175	e8 00 00 00 00	 call	 ??0CDynamicBitmapLoadButton@@QAE@XZ ; CDynamicBitmapLoadButton::CDynamicBitmapLoadButton
  0017a	8d 8e 78 0c 00
	00		 lea	 ecx, DWORD PTR [esi+3192]
  00180	c6 45 fc 15	 mov	 BYTE PTR __$EHRec$[ebp+8], 21 ; 00000015H
  00184	e8 00 00 00 00	 call	 ??0CDynamicBitmapLoadButton@@QAE@XZ ; CDynamicBitmapLoadButton::CDynamicBitmapLoadButton
  00189	8d 8e 08 0d 00
	00		 lea	 ecx, DWORD PTR [esi+3336]
  0018f	c6 45 fc 16	 mov	 BYTE PTR __$EHRec$[ebp+8], 22 ; 00000016H
  00193	e8 00 00 00 00	 call	 ??0CDynamicBitmapLoadButton@@QAE@XZ ; CDynamicBitmapLoadButton::CDynamicBitmapLoadButton
  00198	8d 8e 98 0d 00
	00		 lea	 ecx, DWORD PTR [esi+3480]
  0019e	c6 45 fc 17	 mov	 BYTE PTR __$EHRec$[ebp+8], 23 ; 00000017H
  001a2	e8 00 00 00 00	 call	 ??0CDynamicBitmapLoadButton@@QAE@XZ ; CDynamicBitmapLoadButton::CDynamicBitmapLoadButton
  001a7	8d 8e 28 0e 00
	00		 lea	 ecx, DWORD PTR [esi+3624]
  001ad	c6 45 fc 18	 mov	 BYTE PTR __$EHRec$[ebp+8], 24 ; 00000018H
  001b1	e8 00 00 00 00	 call	 ??0CDynamicBitmapLoadButton@@QAE@XZ ; CDynamicBitmapLoadButton::CDynamicBitmapLoadButton
  001b6	8d 8e b8 0e 00
	00		 lea	 ecx, DWORD PTR [esi+3768]
  001bc	c6 45 fc 19	 mov	 BYTE PTR __$EHRec$[ebp+8], 25 ; 00000019H
  001c0	e8 00 00 00 00	 call	 ??0CDynamicBitmapLoadButton@@QAE@XZ ; CDynamicBitmapLoadButton::CDynamicBitmapLoadButton
  001c5	8d 8e 48 0f 00
	00		 lea	 ecx, DWORD PTR [esi+3912]
  001cb	c6 45 fc 1a	 mov	 BYTE PTR __$EHRec$[ebp+8], 26 ; 0000001aH
  001cf	e8 00 00 00 00	 call	 ??0CDynamicBitmapLoadButton@@QAE@XZ ; CDynamicBitmapLoadButton::CDynamicBitmapLoadButton
  001d4	8d 8e d8 0f 00
	00		 lea	 ecx, DWORD PTR [esi+4056]
  001da	c6 45 fc 1b	 mov	 BYTE PTR __$EHRec$[ebp+8], 27 ; 0000001bH
  001de	e8 00 00 00 00	 call	 ??0CDynamicBitmapLoadButton@@QAE@XZ ; CDynamicBitmapLoadButton::CDynamicBitmapLoadButton
  001e3	8d 8e 68 10 00
	00		 lea	 ecx, DWORD PTR [esi+4200]
  001e9	c6 45 fc 1c	 mov	 BYTE PTR __$EHRec$[ebp+8], 28 ; 0000001cH
  001ed	e8 00 00 00 00	 call	 ??0CDynamicBitmapLoadButton@@QAE@XZ ; CDynamicBitmapLoadButton::CDynamicBitmapLoadButton
  001f2	8d 8e f8 10 00
	00		 lea	 ecx, DWORD PTR [esi+4344]
  001f8	c6 45 fc 1d	 mov	 BYTE PTR __$EHRec$[ebp+8], 29 ; 0000001dH
  001fc	e8 00 00 00 00	 call	 ??0CDynamicBitmapLoadButton@@QAE@XZ ; CDynamicBitmapLoadButton::CDynamicBitmapLoadButton
  00201	8d 8e 88 11 00
	00		 lea	 ecx, DWORD PTR [esi+4488]
  00207	c6 45 fc 1e	 mov	 BYTE PTR __$EHRec$[ebp+8], 30 ; 0000001eH
  0020b	e8 00 00 00 00	 call	 ??0CPreView@@QAE@XZ	; CPreView::CPreView
  00210	8d 8e 28 12 00
	00		 lea	 ecx, DWORD PTR [esi+4648]
  00216	c6 45 fc 1f	 mov	 BYTE PTR __$EHRec$[ebp+8], 31 ; 0000001fH
  0021a	e8 00 00 00 00	 call	 ??0CColorButton@@QAE@XZ	; CColorButton::CColorButton
  0021f	8d 8e b0 12 00
	00		 lea	 ecx, DWORD PTR [esi+4784]
  00225	c6 45 fc 20	 mov	 BYTE PTR __$EHRec$[ebp+8], 32 ; 00000020H
  00229	e8 00 00 00 00	 call	 ??0CDynamicBitmapLoadButton@@QAE@XZ ; CDynamicBitmapLoadButton::CDynamicBitmapLoadButton
  0022e	8d 8e 40 13 00
	00		 lea	 ecx, DWORD PTR [esi+4928]
  00234	c6 45 fc 21	 mov	 BYTE PTR __$EHRec$[ebp+8], 33 ; 00000021H
  00238	e8 00 00 00 00	 call	 ??0CDynamicBitmapLoadButton@@QAE@XZ ; CDynamicBitmapLoadButton::CDynamicBitmapLoadButton

; 24   : 	//{{AFX_DATA_INIT(CSymbolDlg)
; 25   : 	//}}AFX_DATA_INIT
; 26   : 	m_pMainSymbol = pMain;

  0023d	8b 45 08	 mov	 eax, DWORD PTR _pMain$[ebp]
  00240	89 86 d8 13 00
	00		 mov	 DWORD PTR [esi+5080], eax

; 27   : 	m_bCloseDlg =  false;
; 28   : 	m_pSymbolData  = pSymbolData;

  00246	8b 45 0c	 mov	 eax, DWORD PTR _pSymbolData$[ebp]
  00249	89 86 d4 13 00
	00		 mov	 DWORD PTR [esi+5076], eax

; 29   : //	m_pSymbolData->SetBuletType(pSymbolData->GetBuletType()); 
; 30   : }

  0024f	8b c6		 mov	 eax, esi
  00251	c6 86 d0 13 00
	00 00		 mov	 BYTE PTR [esi+5072], 0
  00258	8b 4d f4	 mov	 ecx, DWORD PTR __$EHRec$[ebp]
  0025b	64 89 0d 00 00
	00 00		 mov	 DWORD PTR fs:0, ecx
  00262	59		 pop	 ecx
  00263	5e		 pop	 esi
  00264	8b e5		 mov	 esp, ebp
  00266	5d		 pop	 ebp
  00267	c2 0c 00	 ret	 12			; 0000000cH
_TEXT	ENDS
;	COMDAT text$x
text$x	SEGMENT
__unwindfunclet$??0CSymbolDlg@@QAE@PAVCMainSymbolImplementation@@PAVCSymbolData@@PAVCWnd@@@Z$0:
  00000	8b 4d f0	 mov	 ecx, DWORD PTR _this$[ebp]
  00003	e9 00 00 00 00	 jmp	 ??1CDialog@@UAE@XZ	; CDialog::~CDialog
__unwindfunclet$??0CSymbolDlg@@QAE@PAVCMainSymbolImplementation@@PAVCSymbolData@@PAVCWnd@@@Z$1:
  00008	8b 4d f0	 mov	 ecx, DWORD PTR _this$[ebp]
  0000b	81 c1 a8 00 00
	00		 add	 ecx, 168		; 000000a8H
  00011	e9 00 00 00 00	 jmp	 ??1CDynamicBitmapLoadButton@@UAE@XZ
__unwindfunclet$??0CSymbolDlg@@QAE@PAVCMainSymbolImplementation@@PAVCSymbolData@@PAVCWnd@@@Z$2:
  00016	8b 4d f0	 mov	 ecx, DWORD PTR _this$[ebp]
  00019	81 c1 38 01 00
	00		 add	 ecx, 312		; 00000138H
  0001f	e9 00 00 00 00	 jmp	 ??1CDynamicBitmapLoadButton@@UAE@XZ
__unwindfunclet$??0CSymbolDlg@@QAE@PAVCMainSymbolImplementation@@PAVCSymbolData@@PAVCWnd@@@Z$3:
  00024	8b 4d f0	 mov	 ecx, DWORD PTR _this$[ebp]
  00027	81 c1 c8 01 00
	00		 add	 ecx, 456		; 000001c8H
  0002d	e9 00 00 00 00	 jmp	 ??1CDynamicBitmapLoadButton@@UAE@XZ
__unwindfunclet$??0CSymbolDlg@@QAE@PAVCMainSymbolImplementation@@PAVCSymbolData@@PAVCWnd@@@Z$4:
  00032	8b 4d f0	 mov	 ecx, DWORD PTR _this$[ebp]
  00035	81 c1 58 02 00
	00		 add	 ecx, 600		; 00000258H
  0003b	e9 00 00 00 00	 jmp	 ??1CDynamicBitmapLoadButton@@UAE@XZ
__unwindfunclet$??0CSymbolDlg@@QAE@PAVCMainSymbolImplementation@@PAVCSymbolData@@PAVCWnd@@@Z$5:
  00040	8b 4d f0	 mov	 ecx, DWORD PTR _this$[ebp]
  00043	81 c1 e8 02 00
	00		 add	 ecx, 744		; 000002e8H
  00049	e9 00 00 00 00	 jmp	 ??1CDynamicBitmapLoadButton@@UAE@XZ
__unwindfunclet$??0CSymbolDlg@@QAE@PAVCMainSymbolImplementation@@PAVCSymbolData@@PAVCWnd@@@Z$6:
  0004e	8b 4d f0	 mov	 ecx, DWORD PTR _this$[ebp]
  00051	81 c1 78 03 00
	00		 add	 ecx, 888		; 00000378H
  00057	e9 00 00 00 00	 jmp	 ??1CDynamicBitmapLoadButton@@UAE@XZ
__unwindfunclet$??0CSymbolDlg@@QAE@PAVCMainSymbolImplementation@@PAVCSymbolData@@PAVCWnd@@@Z$7:
  0005c	8b 4d f0	 mov	 ecx, DWORD PTR _this$[ebp]
  0005f	81 c1 08 04 00
	00		 add	 ecx, 1032		; 00000408H
  00065	e9 00 00 00 00	 jmp	 ??1CDynamicBitmapLoadButton@@UAE@XZ
__unwindfunclet$??0CSymbolDlg@@QAE@PAVCMainSymbolImplementation@@PAVCSymbolData@@PAVCWnd@@@Z$8:
  0006a	8b 4d f0	 mov	 ecx, DWORD PTR _this$[ebp]
  0006d	81 c1 98 04 00
	00		 add	 ecx, 1176		; 00000498H
  00073	e9 00 00 00 00	 jmp	 ??1CDynamicBitmapLoadButton@@UAE@XZ
__unwindfunclet$??0CSymbolDlg@@QAE@PAVCMainSymbolImplementation@@PAVCSymbolData@@PAVCWnd@@@Z$9:
  00078	8b 4d f0	 mov	 ecx, DWORD PTR _this$[ebp]
  0007b	81 c1 28 05 00
	00		 add	 ecx, 1320		; 00000528H
  00081	e9 00 00 00 00	 jmp	 ??1CDynamicBitmapLoadButton@@UAE@XZ
__unwindfunclet$??0CSymbolDlg@@QAE@PAVCMainSymbolImplementation@@PAVCSymbolData@@PAVCWnd@@@Z$10:
  00086	8b 4d f0	 mov	 ecx, DWORD PTR _this$[ebp]
  00089	81 c1 b8 05 00
	00		 add	 ecx, 1464		; 000005b8H
  0008f	e9 00 00 00 00	 jmp	 ??1CDynamicBitmapLoadButton@@UAE@XZ
__unwindfunclet$??0CSymbolDlg@@QAE@PAVCMainSymbolImplementation@@PAVCSymbolData@@PAVCWnd@@@Z$11:
  00094	8b 4d f0	 mov	 ecx, DWORD PTR _this$[ebp]
  00097	81 c1 48 06 00
	00		 add	 ecx, 1608		; 00000648H
  0009d	e9 00 00 00 00	 jmp	 ??1CDynamicBitmapLoadButton@@UAE@XZ
__unwindfunclet$??0CSymbolDlg@@QAE@PAVCMainSymbolImplementation@@PAVCSymbolData@@PAVCWnd@@@Z$12:
  000a2	8b 4d f0	 mov	 ecx, DWORD PTR _this$[ebp]
  000a5	81 c1 d8 06 00
	00		 add	 ecx, 1752		; 000006d8H
  000ab	e9 00 00 00 00	 jmp	 ??1CDynamicBitmapLoadButton@@UAE@XZ
__unwindfunclet$??0CSymbolDlg@@QAE@PAVCMainSymbolImplementation@@PAVCSymbolData@@PAVCWnd@@@Z$13:
  000b0	8b 4d f0	 mov	 ecx, DWORD PTR _this$[ebp]
  000b3	81 c1 68 07 00
	00		 add	 ecx, 1896		; 00000768H
  000b9	e9 00 00 00 00	 jmp	 ??1CDynamicBitmapLoadButton@@UAE@XZ
__unwindfunclet$??0CSymbolDlg@@QAE@PAVCMainSymbolImplementation@@PAVCSymbolData@@PAVCWnd@@@Z$14:
  000be	8b 4d f0	 mov	 ecx, DWORD PTR _this$[ebp]
  000c1	81 c1 f8 07 00
	00		 add	 ecx, 2040		; 000007f8H
  000c7	e9 00 00 00 00	 jmp	 ??1CDynamicBitmapLoadButton@@UAE@XZ
__unwindfunclet$??0CSymbolDlg@@QAE@PAVCMainSymbolImplementation@@PAVCSymbolData@@PAVCWnd@@@Z$15:
  000cc	8b 4d f0	 mov	 ecx, DWORD PTR _this$[ebp]
  000cf	81 c1 88 08 00
	00		 add	 ecx, 2184		; 00000888H
  000d5	e9 00 00 00 00	 jmp	 ??1CDynamicBitmapLoadButton@@UAE@XZ
__unwindfunclet$??0CSymbolDlg@@QAE@PAVCMainSymbolImplementation@@PAVCSymbolData@@PAVCWnd@@@Z$16:
  000da	8b 4d f0	 mov	 ecx, DWORD PTR _this$[ebp]
  000dd	81 c1 18 09 00
	00		 add	 ecx, 2328		; 00000918H
  000e3	e9 00 00 00 00	 jmp	 ??1CDynamicBitmapLoadButton@@UAE@XZ
__unwindfunclet$??0CSymbolDlg@@QAE@PAVCMainSymbolImplementation@@PAVCSymbolData@@PAVCWnd@@@Z$17:
  000e8	8b 4d f0	 mov	 ecx, DWORD PTR _this$[ebp]
  000eb	81 c1 a8 09 00
	00		 add	 ecx, 2472		; 000009a8H
  000f1	e9 00 00 00 00	 jmp	 ??1CDynamicBitmapLoadButton@@UAE@XZ
__unwindfunclet$??0CSymbolDlg@@QAE@PAVCMainSymbolImplementation@@PAVCSymbolData@@PAVCWnd@@@Z$18:
  000f6	8b 4d f0	 mov	 ecx, DWORD PTR _this$[ebp]
  000f9	81 c1 38 0a 00
	00		 add	 ecx, 2616		; 00000a38H
  000ff	e9 00 00 00 00	 jmp	 ??1CDynamicBitmapLoadButton@@UAE@XZ
__unwindfunclet$??0CSymbolDlg@@QAE@PAVCMainSymbolImplementation@@PAVCSymbolData@@PAVCWnd@@@Z$19:
  00104	8b 4d f0	 mov	 ecx, DWORD PTR _this$[ebp]
  00107	81 c1 c8 0a 00
	00		 add	 ecx, 2760		; 00000ac8H
  0010d	e9 00 00 00 00	 jmp	 ??1CDynamicBitmapLoadButton@@UAE@XZ
__unwindfunclet$??0CSymbolDlg@@QAE@PAVCMainSymbolImplementation@@PAVCSymbolData@@PAVCWnd@@@Z$20:
  00112	8b 4d f0	 mov	 ecx, DWORD PTR _this$[ebp]
  00115	81 c1 58 0b 00
	00		 add	 ecx, 2904		; 00000b58H
  0011b	e9 00 00 00 00	 jmp	 ??1CDynamicBitmapLoadButton@@UAE@XZ
__unwindfunclet$??0CSymbolDlg@@QAE@PAVCMainSymbolImplementation@@PAVCSymbolData@@PAVCWnd@@@Z$21:
  00120	8b 4d f0	 mov	 ecx, DWORD PTR _this$[ebp]
  00123	81 c1 e8 0b 00
	00		 add	 ecx, 3048		; 00000be8H
  00129	e9 00 00 00 00	 jmp	 ??1CDynamicBitmapLoadButton@@UAE@XZ
__unwindfunclet$??0CSymbolDlg@@QAE@PAVCMainSymbolImplementation@@PAVCSymbolData@@PAVCWnd@@@Z$22:
  0012e	8b 4d f0	 mov	 ecx, DWORD PTR _this$[ebp]
  00131	81 c1 78 0c 00
	00		 add	 ecx, 3192		; 00000c78H
  00137	e9 00 00 00 00	 jmp	 ??1CDynamicBitmapLoadButton@@UAE@XZ
__unwindfunclet$??0CSymbolDlg@@QAE@PAVCMainSymbolImplementation@@PAVCSymbolData@@PAVCWnd@@@Z$23:
  0013c	8b 4d f0	 mov	 ecx, DWORD PTR _this$[ebp]
  0013f	81 c1 08 0d 00
	00		 add	 ecx, 3336		; 00000d08H
  00145	e9 00 00 00 00	 jmp	 ??1CDynamicBitmapLoadButton@@UAE@XZ
__unwindfunclet$??0CSymbolDlg@@QAE@PAVCMainSymbolImplementation@@PAVCSymbolData@@PAVCWnd@@@Z$24:
  0014a	8b 4d f0	 mov	 ecx, DWORD PTR _this$[ebp]
  0014d	81 c1 98 0d 00
	00		 add	 ecx, 3480		; 00000d98H
  00153	e9 00 00 00 00	 jmp	 ??1CDynamicBitmapLoadButton@@UAE@XZ
__unwindfunclet$??0CSymbolDlg@@QAE@PAVCMainSymbolImplementation@@PAVCSymbolData@@PAVCWnd@@@Z$25:
  00158	8b 4d f0	 mov	 ecx, DWORD PTR _this$[ebp]
  0015b	81 c1 28 0e 00
	00		 add	 ecx, 3624		; 00000e28H
  00161	e9 00 00 00 00	 jmp	 ??1CDynamicBitmapLoadButton@@UAE@XZ
__unwindfunclet$??0CSymbolDlg@@QAE@PAVCMainSymbolImplementation@@PAVCSymbolData@@PAVCWnd@@@Z$26:
  00166	8b 4d f0	 mov	 ecx, DWORD PTR _this$[ebp]
  00169	81 c1 b8 0e 00
	00		 add	 ecx, 3768		; 00000eb8H
  0016f	e9 00 00 00 00	 jmp	 ??1CDynamicBitmapLoadButton@@UAE@XZ
__unwindfunclet$??0CSymbolDlg@@QAE@PAVCMainSymbolImplementation@@PAVCSymbolData@@PAVCWnd@@@Z$27:
  00174	8b 4d f0	 mov	 ecx, DWORD PTR _this$[ebp]
  00177	81 c1 48 0f 00
	00		 add	 ecx, 3912		; 00000f48H
  0017d	e9 00 00 00 00	 jmp	 ??1CDynamicBitmapLoadButton@@UAE@XZ
__unwindfunclet$??0CSymbolDlg@@QAE@PAVCMainSymbolImplementation@@PAVCSymbolData@@PAVCWnd@@@Z$28:
  00182	8b 4d f0	 mov	 ecx, DWORD PTR _this$[ebp]
  00185	81 c1 d8 0f 00
	00		 add	 ecx, 4056		; 00000fd8H
  0018b	e9 00 00 00 00	 jmp	 ??1CDynamicBitmapLoadButton@@UAE@XZ
__unwindfunclet$??0CSymbolDlg@@QAE@PAVCMainSymbolImplementation@@PAVCSymbolData@@PAVCWnd@@@Z$29:
  00190	8b 4d f0	 mov	 ecx, DWORD PTR _this$[ebp]
  00193	81 c1 68 10 00
	00		 add	 ecx, 4200		; 00001068H
  00199	e9 00 00 00 00	 jmp	 ??1CDynamicBitmapLoadButton@@UAE@XZ
__unwindfunclet$??0CSymbolDlg@@QAE@PAVCMainSymbolImplementation@@PAVCSymbolData@@PAVCWnd@@@Z$30:
  0019e	8b 4d f0	 mov	 ecx, DWORD PTR _this$[ebp]
  001a1	81 c1 f8 10 00
	00		 add	 ecx, 4344		; 000010f8H
  001a7	e9 00 00 00 00	 jmp	 ??1CDynamicBitmapLoadButton@@UAE@XZ
__unwindfunclet$??0CSymbolDlg@@QAE@PAVCMainSymbolImplementation@@PAVCSymbolData@@PAVCWnd@@@Z$31:
  001ac	8b 4d f0	 mov	 ecx, DWORD PTR _this$[ebp]
  001af	81 c1 88 11 00
	00		 add	 ecx, 4488		; 00001188H
  001b5	e9 00 00 00 00	 jmp	 ??1CPreView@@UAE@XZ	; CPreView::~CPreView
__unwindfunclet$??0CSymbolDlg@@QAE@PAVCMainSymbolImplementation@@PAVCSymbolData@@PAVCWnd@@@Z$32:
  001ba	8b 4d f0	 mov	 ecx, DWORD PTR _this$[ebp]
  001bd	81 c1 28 12 00
	00		 add	 ecx, 4648		; 00001228H
  001c3	e9 00 00 00 00	 jmp	 ??1CColorButton@@UAE@XZ	; CColorButton::~CColorButton
__unwindfunclet$??0CSymbolDlg@@QAE@PAVCMainSymbolImplementation@@PAVCSymbolData@@PAVCWnd@@@Z$33:
  001c8	8b 4d f0	 mov	 ecx, DWORD PTR _this$[ebp]
  001cb	81 c1 b0 12 00
	00		 add	 ecx, 4784		; 000012b0H
  001d1	e9 00 00 00 00	 jmp	 ??1CDynamicBitmapLoadButton@@UAE@XZ
  001d6	cc		 int	 3
  001d7	cc		 int	 3
  001d8	cc		 int	 3
  001d9	cc		 int	 3
  001da	cc		 int	 3
__ehhandler$??0CSymbolDlg@@QAE@PAVCMainSymbolImplementation@@PAVCSymbolData@@PAVCWnd@@@Z:
  001db	90		 npad	 1
  001dc	90		 npad	 1
  001dd	8b 54 24 08	 mov	 edx, DWORD PTR [esp+8]
  001e1	8d 42 0c	 lea	 eax, DWORD PTR [edx+12]
  001e4	8b 4a f4	 mov	 ecx, DWORD PTR [edx-12]
  001e7	33 c8		 xor	 ecx, eax
  001e9	e8 00 00 00 00	 call	 @__security_check_cookie@4
  001ee	b8 00 00 00 00	 mov	 eax, OFFSET __ehfuncinfo$??0CSymbolDlg@@QAE@PAVCMainSymbolImplementation@@PAVCSymbolData@@PAVCWnd@@@Z
  001f3	e9 00 00 00 00	 jmp	 ___CxxFrameHandler3
text$x	ENDS
??0CSymbolDlg@@QAE@PAVCMainSymbolImplementation@@PAVCSymbolData@@PAVCWnd@@@Z ENDP ; CSymbolDlg::CSymbolDlg
; Function compile flags: /Ogtp
;	COMDAT ??1CDynamicBitmapLoadButton@@UAE@XZ
_TEXT	SEGMENT
??1CDynamicBitmapLoadButton@@UAE@XZ PROC		; CDynamicBitmapLoadButton::~CDynamicBitmapLoadButton, COMDAT
; _this$ = ecx
  00000	56		 push	 esi
  00001	8b f1		 mov	 esi, ecx
  00003	8d 8e 8c 00 00
	00		 lea	 ecx, DWORD PTR [esi+140]
  00009	ff 15 00 00 00
	00		 call	 DWORD PTR __imp_??1?$CStringT@DV?$StrTraitMFC_DLL@DV?$ChTraitsCRT@D@ATL@@@@@ATL@@QAE@XZ
  0000f	8d 8e 88 00 00
	00		 lea	 ecx, DWORD PTR [esi+136]
  00015	ff 15 00 00 00
	00		 call	 DWORD PTR __imp_??1?$CStringT@DV?$StrTraitMFC_DLL@DV?$ChTraitsCRT@D@ATL@@@@@ATL@@QAE@XZ
  0001b	8b ce		 mov	 ecx, esi
  0001d	5e		 pop	 esi
  0001e	e9 00 00 00 00	 jmp	 ??1CButton@@UAE@XZ	; CButton::~CButton
??1CDynamicBitmapLoadButton@@UAE@XZ ENDP		; CDynamicBitmapLoadButton::~CDynamicBitmapLoadButton
_TEXT	ENDS
; Function compile flags: /Ogtp
; File C:\Program Files (x86)\Microsoft Visual Studio\2019\Community\VC\Tools\MSVC\14.29.30133\atlmfc\include\afxdlgs.h
;	COMDAT ??1CColorDialog@@UAE@XZ
_TEXT	SEGMENT
??1CColorDialog@@UAE@XZ PROC				; CColorDialog::~CColorDialog, COMDAT
; _this$ = ecx

; 110  :     virtual ~CCommonDialog() {};

  00000	c7 01 00 00 00
	00		 mov	 DWORD PTR [ecx], OFFSET ??_7CCommonDialog@@6B@
  00006	e9 00 00 00 00	 jmp	 ??1CDialog@@UAE@XZ	; CDialog::~CDialog
??1CColorDialog@@UAE@XZ ENDP				; CColorDialog::~CColorDialog
_TEXT	ENDS
; Function compile flags: /Ogtp
; File C:\Program Files (x86)\Microsoft Visual Studio\2019\Community\VC\Tools\MSVC\14.29.30133\atlmfc\include\afxdlgs.h
;	COMDAT ??1CFontDialog@@UAE@XZ
_TEXT	SEGMENT
??1CFontDialog@@UAE@XZ PROC				; CFontDialog::~CFontDialog, COMDAT
; _this$ = ecx

; 110  :     virtual ~CCommonDialog() {};

  00000	c7 01 00 00 00
	00		 mov	 DWORD PTR [ecx], OFFSET ??_7CCommonDialog@@6B@
  00006	e9 00 00 00 00	 jmp	 ??1CDialog@@UAE@XZ	; CDialog::~CDialog
??1CFontDialog@@UAE@XZ ENDP				; CFontDialog::~CFontDialog
_TEXT	ENDS
; Function compile flags: /Ogtp
; File C:\Program Files (x86)\Microsoft Visual Studio\2019\Community\VC\Tools\MSVC\14.29.30133\atlmfc\include\afxdlgs.h
; File C:\Program Files (x86)\Microsoft Visual Studio\2019\Community\VC\Tools\MSVC\14.29.30133\atlmfc\include\afx.inl
;	COMDAT ??_GCCommonDialog@@UAEPAXI@Z
_TEXT	SEGMENT
___flags$ = 8						; size = 4
??_GCCommonDialog@@UAEPAXI@Z PROC			; CCommonDialog::`scalar deleting destructor', COMDAT
; _this$ = ecx
  00000	55		 push	 ebp
  00001	8b ec		 mov	 ebp, esp
; File C:\Program Files (x86)\Microsoft Visual Studio\2019\Community\VC\Tools\MSVC\14.29.30133\atlmfc\include\afxdlgs.h

; 110  :     virtual ~CCommonDialog() {};

  00003	56		 push	 esi
  00004	8b f1		 mov	 esi, ecx
  00006	c7 06 00 00 00
	00		 mov	 DWORD PTR [esi], OFFSET ??_7CCommonDialog@@6B@
  0000c	e8 00 00 00 00	 call	 ??1CDialog@@UAE@XZ	; CDialog::~CDialog
  00011	8b 45 08	 mov	 eax, DWORD PTR ___flags$[ebp]
  00014	a8 01		 test	 al, 1
  00016	74 22		 je	 SHORT $LN12@scalar
  00018	a8 04		 test	 al, 4
  0001a	75 10		 jne	 SHORT $LN3@scalar
; File C:\Program Files (x86)\Microsoft Visual Studio\2019\Community\VC\Tools\MSVC\14.29.30133\atlmfc\include\afx.inl

; 112  : 	{ ::operator delete(p); }

  0001c	56		 push	 esi
  0001d	e8 00 00 00 00	 call	 ??3@YAXPAX@Z		; operator delete
  00022	83 c4 04	 add	 esp, 4
  00025	8b c6		 mov	 eax, esi
  00027	5e		 pop	 esi
  00028	5d		 pop	 ebp
  00029	c2 04 00	 ret	 4
$LN3@scalar:
  0002c	68 a8 00 00 00	 push	 168			; 000000a8H
  00031	56		 push	 esi
  00032	e8 00 00 00 00	 call	 ?__global_delete@@YAXPAXI@Z ; __global_delete
  00037	83 c4 08	 add	 esp, 8
$LN12@scalar:
  0003a	8b c6		 mov	 eax, esi
  0003c	5e		 pop	 esi
  0003d	5d		 pop	 ebp
  0003e	c2 04 00	 ret	 4
??_GCCommonDialog@@UAEPAXI@Z ENDP			; CCommonDialog::`scalar deleting destructor'
_TEXT	ENDS
; Function compile flags: /Ogtp
; File C:\Program Files (x86)\Microsoft Visual Studio\2019\Community\VC\Tools\MSVC\14.29.30133\atlmfc\include\afxdlgs.h
;	COMDAT ??1CCommonDialog@@UAE@XZ
_TEXT	SEGMENT
??1CCommonDialog@@UAE@XZ PROC				; CCommonDialog::~CCommonDialog, COMDAT
; _this$ = ecx

; 110  :     virtual ~CCommonDialog() {};

  00000	c7 01 00 00 00
	00		 mov	 DWORD PTR [ecx], OFFSET ??_7CCommonDialog@@6B@
  00006	e9 00 00 00 00	 jmp	 ??1CDialog@@UAE@XZ	; CDialog::~CDialog
??1CCommonDialog@@UAE@XZ ENDP				; CCommonDialog::~CCommonDialog
_TEXT	ENDS
; Function compile flags: /Ogtp
; File C:\Program Files (x86)\Microsoft Visual Studio\2019\Community\VC\Tools\MSVC\14.29.30133\atlmfc\include\afxwin2.inl
;	COMDAT ?Create@CDialog@@UAEHIPAVCWnd@@@Z
_TEXT	SEGMENT
_nIDTemplate$ = 8					; size = 4
_pParentWnd$ = 12					; size = 4
?Create@CDialog@@UAEHIPAVCWnd@@@Z PROC			; CDialog::Create, COMDAT
; _this$ = ecx

; 585  : 	{ return CDialog::Create(ATL_MAKEINTRESOURCE(nIDTemplate), pParentWnd); }

  00000	55		 push	 ebp
  00001	8b ec		 mov	 ebp, esp
  00003	0f b7 45 08	 movzx	 eax, WORD PTR _nIDTemplate$[ebp]
  00007	89 45 08	 mov	 DWORD PTR _nIDTemplate$[ebp], eax
  0000a	5d		 pop	 ebp
  0000b	e9 00 00 00 00	 jmp	 ?Create@CDialog@@UAEHPBDPAVCWnd@@@Z ; CDialog::Create
?Create@CDialog@@UAEHIPAVCWnd@@@Z ENDP			; CDialog::Create
_TEXT	ENDS
; Function compile flags: /Ogtp
; File C:\Program Files (x86)\Microsoft Visual Studio\2019\Community\VC\Tools\MSVC\14.29.30133\atlmfc\include\afxwin2.inl
;	COMDAT ?EndModalState@CWnd@@UAEXXZ
_TEXT	SEGMENT
?EndModalState@CWnd@@UAEXXZ PROC			; CWnd::EndModalState, COMDAT
; _this$ = ecx

; 567  : 	{ ::EnableWindow(m_hWnd, TRUE); }

  00000	6a 01		 push	 1
  00002	ff 71 20	 push	 DWORD PTR [ecx+32]
  00005	ff 15 00 00 00
	00		 call	 DWORD PTR __imp__EnableWindow@8
  0000b	c3		 ret	 0
?EndModalState@CWnd@@UAEXXZ ENDP			; CWnd::EndModalState
_TEXT	ENDS
; Function compile flags: /Ogtp
; File C:\Program Files (x86)\Microsoft Visual Studio\2019\Community\VC\Tools\MSVC\14.29.30133\atlmfc\include\afxwin2.inl
;	COMDAT ?BeginModalState@CWnd@@UAEXXZ
_TEXT	SEGMENT
?BeginModalState@CWnd@@UAEXXZ PROC			; CWnd::BeginModalState, COMDAT
; _this$ = ecx

; 565  : 	{ ::EnableWindow(m_hWnd, FALSE); }

  00000	6a 00		 push	 0
  00002	ff 71 20	 push	 DWORD PTR [ecx+32]
  00005	ff 15 00 00 00
	00		 call	 DWORD PTR __imp__EnableWindow@8
  0000b	c3		 ret	 0
?BeginModalState@CWnd@@UAEXXZ ENDP			; CWnd::BeginModalState
_TEXT	ENDS
; Function compile flags: /Ogtp
; File C:\Program Files (x86)\Microsoft Visual Studio\2019\Community\VC\Tools\MSVC\14.29.30133\atlmfc\include\afxwin2.inl
;	COMDAT ?DoDataExchange@CWnd@@MAEXPAVCDataExchange@@@Z
_TEXT	SEGMENT
___formal$ = 8						; size = 4
?DoDataExchange@CWnd@@MAEXPAVCDataExchange@@@Z PROC	; CWnd::DoDataExchange, COMDAT
; _this$ = ecx

; 561  : 	{ } // default does nothing

  00000	c2 04 00	 ret	 4
?DoDataExchange@CWnd@@MAEXPAVCDataExchange@@@Z ENDP	; CWnd::DoDataExchange
_TEXT	ENDS
; Function compile flags: /Ogtp
; File C:\Program Files (x86)\Microsoft Visual Studio\2019\Community\VC\Tools\MSVC\14.29.30133\atlmfc\include\afx.inl
;	COMDAT ?Dump@CObject@@UBEXAAVCDumpContext@@@Z
_TEXT	SEGMENT
___formal$ = 8						; size = 4
?Dump@CObject@@UBEXAAVCDumpContext@@@Z PROC		; CObject::Dump, COMDAT
; _this$ = ecx

; 122  : 	{ /* no dumping in release builds */ }

  00000	c2 04 00	 ret	 4
?Dump@CObject@@UBEXAAVCDumpContext@@@Z ENDP		; CObject::Dump
_TEXT	ENDS
; Function compile flags: /Ogtp
; File C:\Program Files (x86)\Microsoft Visual Studio\2019\Community\VC\Tools\MSVC\14.29.30133\atlmfc\include\afx.inl
;	COMDAT ?AssertValid@CObject@@UBEXXZ
_TEXT	SEGMENT
?AssertValid@CObject@@UBEXXZ PROC			; CObject::AssertValid, COMDAT
; _this$ = ecx

; 120  : 	{ /* no asserts in release builds */ }

  00000	c2 00 00	 ret	 0
?AssertValid@CObject@@UBEXXZ ENDP			; CObject::AssertValid
_TEXT	ENDS
; Function compile flags: /Ogtp
; File C:\Program Files (x86)\Microsoft Visual Studio\2019\Community\VC\Tools\MSVC\14.29.30133\atlmfc\include\afx.inl
;	COMDAT ?Serialize@CObject@@UAEXAAVCArchive@@@Z
_TEXT	SEGMENT
___formal$ = 8						; size = 4
?Serialize@CObject@@UAEXAAVCArchive@@@Z PROC		; CObject::Serialize, COMDAT
; _this$ = ecx

; 106  : 	{ /* CObject does not serialize anything by default */ }

  00000	c2 04 00	 ret	 4
?Serialize@CObject@@UAEXAAVCArchive@@@Z ENDP		; CObject::Serialize
_TEXT	ENDS
; Function compile flags: /Ogtp
; File D:\git\src\IBK\IBK_DRFN\ProjSrc\SrcChartEx\ChartAddIn\ChartAnalysisToolAddIn\Symbol\SymbolDlg.cpp
;	COMDAT ?__empty_global_delete@@YAXPAXI@Z
_TEXT	SEGMENT
___formal$ = 8						; size = 4
___formal$ = 12						; size = 4
?__empty_global_delete@@YAXPAXI@Z PROC			; __empty_global_delete, COMDAT

  00000	c2 00 00	 ret	 0
?__empty_global_delete@@YAXPAXI@Z ENDP			; __empty_global_delete
_TEXT	ENDS
; Function compile flags: /Ogtp
; File D:\git\src\IBK\IBK_DRFN\ProjSrc\SrcChartEx\ChartAddIn\ChartAnalysisToolAddIn\Symbol\SymbolDlg.cpp
;	COMDAT ?__empty_global_delete@@YAXPAX@Z
_TEXT	SEGMENT
___formal$ = 8						; size = 4
?__empty_global_delete@@YAXPAX@Z PROC			; __empty_global_delete, COMDAT

  00000	c2 00 00	 ret	 0
?__empty_global_delete@@YAXPAX@Z ENDP			; __empty_global_delete
_TEXT	ENDS
END
