; Listing generated by Microsoft (R) Optimizing Compiler Version 19.29.30145.0 

	TITLE	D:\git\src\IBK\IBK_DRFN\#DRfn-CS\_Obj\Symbol\UndoRedoManager.obj
	.686P
	.XMM
	include listing.inc
	.model	flat

INCLUDELIB MSVCRT
INCLUDELIB OLDNAMES

PUBLIC	?__empty_global_delete@@YAXPAX@Z		; __empty_global_delete
PUBLIC	?__empty_global_delete@@YAXPAXI@Z		; __empty_global_delete
PUBLIC	??1CObject@@UAE@XZ				; CObject::~CObject
PUBLIC	?Serialize@CObject@@UAEXAAVCArchive@@@Z		; CObject::Serialize
PUBLIC	?AssertValid@CObject@@UBEXXZ			; CObject::AssertValid
PUBLIC	?Dump@CObject@@UBEXAAVCDumpContext@@@Z		; CObject::Dump
PUBLIC	??0CUndo_Redo_Info@@QAE@XZ			; CUndo_Redo_Info::CUndo_Redo_Info
PUBLIC	??0CUndo_Redo_Info@@QAE@HJV?$CStringT@DV?$StrTraitMFC_DLL@DV?$ChTraitsCRT@D@ATL@@@@@ATL@@0@Z ; CUndo_Redo_Info::CUndo_Redo_Info
PUBLIC	??1CUndo_Redo_Info@@QAE@XZ			; CUndo_Redo_Info::~CUndo_Redo_Info
PUBLIC	?GetUndoRedoType@CUndo_Redo_Info@@QBEHXZ	; CUndo_Redo_Info::GetUndoRedoType
PUBLIC	?SetUndoRedoType@CUndo_Redo_Info@@QAEXABH@Z	; CUndo_Redo_Info::SetUndoRedoType
PUBLIC	?GetBlockIndex@CUndo_Redo_Info@@QAEAAVCBlockIndex@@XZ ; CUndo_Redo_Info::GetBlockIndex
PUBLIC	?SetBlockIndex@CUndo_Redo_Info@@QAEXABVCBlockIndex@@@Z ; CUndo_Redo_Info::SetBlockIndex
PUBLIC	?IsSameBlockIndex@CUndo_Redo_Info@@QBEHABVCBlockIndex@@@Z ; CUndo_Redo_Info::IsSameBlockIndex
PUBLIC	?GetSymbolAddress@CUndo_Redo_Info@@QAEJXZ	; CUndo_Redo_Info::GetSymbolAddress
PUBLIC	?SetSymbolAddress@CUndo_Redo_Info@@QAEXJ@Z	; CUndo_Redo_Info::SetSymbolAddress
PUBLIC	?GetSymbolData@CUndo_Redo_Info@@QAE?AV?$CStringT@DV?$StrTraitMFC_DLL@DV?$ChTraitsCRT@D@ATL@@@@@ATL@@XZ ; CUndo_Redo_Info::GetSymbolData
PUBLIC	?GetSymbolData_Prev@CUndo_Redo_Info@@QAE?AV?$CStringT@DV?$StrTraitMFC_DLL@DV?$ChTraitsCRT@D@ATL@@@@@ATL@@XZ ; CUndo_Redo_Info::GetSymbolData_Prev
PUBLIC	??0CUndoRedoManager@@QAE@XZ			; CUndoRedoManager::CUndoRedoManager
PUBLIC	??1CUndoRedoManager@@QAE@XZ			; CUndoRedoManager::~CUndoRedoManager
PUBLIC	?SetSymbolData@CUndoRedoManager@@QAEXPAVCSymbolData@@@Z ; CUndoRedoManager::SetSymbolData
PUBLIC	?RegisterElementToUnRedoManager@CUndoRedoManager@@QAEXHJPBD0@Z ; CUndoRedoManager::RegisterElementToUnRedoManager
PUBLIC	?UnRegisterElementToUnRedoManager@CUndoRedoManager@@QAEXJ@Z ; CUndoRedoManager::UnRegisterElementToUnRedoManager
PUBLIC	?ChangeUndoInfo@CUndoRedoManager@@QAEHJ@Z	; CUndoRedoManager::ChangeUndoInfo
PUBLIC	?ChangeRedoInfo@CUndoRedoManager@@QAEHJ@Z	; CUndoRedoManager::ChangeRedoInfo
PUBLIC	?MoveToUndoList@CUndoRedoManager@@QAEXPAVCUndo_Redo_Info@@@Z ; CUndoRedoManager::MoveToUndoList
PUBLIC	?MoveToRedoList@CUndoRedoManager@@QAEXPAVCUndo_Redo_Info@@@Z ; CUndoRedoManager::MoveToRedoList
PUBLIC	?CheckUndoList@CUndoRedoManager@@QAEHJ@Z	; CUndoRedoManager::CheckUndoList
PUBLIC	?CheckRedoList@CUndoRedoManager@@QAEHJ@Z	; CUndoRedoManager::CheckRedoList
PUBLIC	?UndoElement@CUndoRedoManager@@QAEHJ@Z		; CUndoRedoManager::UndoElement
PUBLIC	?RedoElement@CUndoRedoManager@@QAEHJ@Z		; CUndoRedoManager::RedoElement
PUBLIC	?GetUndoRedoInfoListOfBlock@CUndoRedoManager@@QAEXABVCBlockIndex@@AAV?$CList@PAVCUndo_Redo_Info@@PAV1@@@@Z ; CUndoRedoManager::GetUndoRedoInfoListOfBlock
PUBLIC	?GetUndoListCount@CUndoRedoManager@@QAEHXZ	; CUndoRedoManager::GetUndoListCount
PUBLIC	?GetRedoListCount@CUndoRedoManager@@QAEHXZ	; CUndoRedoManager::GetRedoListCount
PUBLIC	?GetOrder@CUndoRedoManager@@QBEABVCOrder@@XZ	; CUndoRedoManager::GetOrder
PUBLIC	?DeleteAll@CUndoRedoManager@@QAEXXZ		; CUndoRedoManager::DeleteAll
PUBLIC	??0?$CList@PAVCUndo_Redo_Info@@PAV1@@@QAE@H@Z	; CList<CUndo_Redo_Info *,CUndo_Redo_Info *>::CList<CUndo_Redo_Info *,CUndo_Redo_Info *>
PUBLIC	?RemoveTail@?$CList@PAVCUndo_Redo_Info@@PAV1@@@QAEPAVCUndo_Redo_Info@@XZ ; CList<CUndo_Redo_Info *,CUndo_Redo_Info *>::RemoveTail
PUBLIC	?AddTail@?$CList@PAVCUndo_Redo_Info@@PAV1@@@QAEPAU__POSITION@@PAVCUndo_Redo_Info@@@Z ; CList<CUndo_Redo_Info *,CUndo_Redo_Info *>::AddTail
PUBLIC	?RemoveAll@?$CList@PAVCUndo_Redo_Info@@PAV1@@@QAEXXZ ; CList<CUndo_Redo_Info *,CUndo_Redo_Info *>::RemoveAll
PUBLIC	?RemoveAt@?$CList@PAVCUndo_Redo_Info@@PAV1@@@QAEXPAU__POSITION@@@Z ; CList<CUndo_Redo_Info *,CUndo_Redo_Info *>::RemoveAt
PUBLIC	?NewNode@?$CList@PAVCUndo_Redo_Info@@PAV1@@@IAEPAUCNode@1@PAU21@0@Z ; CList<CUndo_Redo_Info *,CUndo_Redo_Info *>::NewNode
PUBLIC	?FreeNode@?$CList@PAVCUndo_Redo_Info@@PAV1@@@IAEXPAUCNode@1@@Z ; CList<CUndo_Redo_Info *,CUndo_Redo_Info *>::FreeNode
PUBLIC	??1?$CList@PAVCUndo_Redo_Info@@PAV1@@@UAE@XZ	; CList<CUndo_Redo_Info *,CUndo_Redo_Info *>::~CList<CUndo_Redo_Info *,CUndo_Redo_Info *>
PUBLIC	?Serialize@?$CList@PAVCUndo_Redo_Info@@PAV1@@@UAEXAAVCArchive@@@Z ; CList<CUndo_Redo_Info *,CUndo_Redo_Info *>::Serialize
PUBLIC	??_G?$CList@PAVCUndo_Redo_Info@@PAV1@@@UAEPAXI@Z ; CList<CUndo_Redo_Info *,CUndo_Redo_Info *>::`scalar deleting destructor'
PUBLIC	??$SerializeElements@PAVCUndo_Redo_Info@@@@YGXAAVCArchive@@PAPAVCUndo_Redo_Info@@H@Z ; SerializeElements<CUndo_Redo_Info *>
PUBLIC	??_R0?AVCObject@@@8				; CObject `RTTI Type Descriptor'
PUBLIC	??_R3CObject@@8					; CObject::`RTTI Class Hierarchy Descriptor'
PUBLIC	??_R2CObject@@8					; CObject::`RTTI Base Class Array'
PUBLIC	??_R1A@?0A@EA@CObject@@8			; CObject::`RTTI Base Class Descriptor at (0,-1,0,64)'
PUBLIC	??_7?$CList@PAVCUndo_Redo_Info@@PAV1@@@6B@	; CList<CUndo_Redo_Info *,CUndo_Redo_Info *>::`vftable'
PUBLIC	??_R4?$CList@PAVCUndo_Redo_Info@@PAV1@@@6B@	; CList<CUndo_Redo_Info *,CUndo_Redo_Info *>::`RTTI Complete Object Locator'
PUBLIC	??_R0?AV?$CList@PAVCUndo_Redo_Info@@PAV1@@@@8	; CList<CUndo_Redo_Info *,CUndo_Redo_Info *> `RTTI Type Descriptor'
PUBLIC	??_R3?$CList@PAVCUndo_Redo_Info@@PAV1@@@8	; CList<CUndo_Redo_Info *,CUndo_Redo_Info *>::`RTTI Class Hierarchy Descriptor'
PUBLIC	??_R2?$CList@PAVCUndo_Redo_Info@@PAV1@@@8	; CList<CUndo_Redo_Info *,CUndo_Redo_Info *>::`RTTI Base Class Array'
PUBLIC	??_R1A@?0A@EA@?$CList@PAVCUndo_Redo_Info@@PAV1@@@8 ; CList<CUndo_Redo_Info *,CUndo_Redo_Info *>::`RTTI Base Class Descriptor at (0,-1,0,64)'
EXTRN	??2@YAPAXI@Z:PROC				; operator new
EXTRN	??3@YAXPAX@Z:PROC				; operator delete
EXTRN	??3@YAXPAXI@Z:PROC				; operator delete
EXTRN	?__global_delete@@YAXPAXI@Z:PROC		; __global_delete
EXTRN	___std_terminate:PROC
EXTRN	?AfxThrowInvalidArgException@@YGXXZ:PROC	; AfxThrowInvalidArgException
EXTRN	?AfxThrowArchiveException@@YGXHPBD@Z:PROC	; AfxThrowArchiveException
EXTRN	?GetRuntimeClass@CObject@@UBEPAUCRuntimeClass@@XZ:PROC ; CObject::GetRuntimeClass
EXTRN	__imp_?Empty@?$CSimpleStringT@D$00@ATL@@QAEXXZ:PROC
EXTRN	__imp_??0?$CStringT@DV?$StrTraitMFC_DLL@DV?$ChTraitsCRT@D@ATL@@@@@ATL@@QAE@XZ:PROC
EXTRN	__imp_??0?$CStringT@DV?$StrTraitMFC_DLL@DV?$ChTraitsCRT@D@ATL@@@@@ATL@@QAE@ABV01@@Z:PROC
EXTRN	__imp_??0?$CStringT@DV?$StrTraitMFC_DLL@DV?$ChTraitsCRT@D@ATL@@@@@ATL@@QAE@PBD@Z:PROC
EXTRN	__imp_??1?$CStringT@DV?$StrTraitMFC_DLL@DV?$ChTraitsCRT@D@ATL@@@@@ATL@@QAE@XZ:PROC
EXTRN	__imp_??4?$CStringT@DV?$StrTraitMFC_DLL@DV?$ChTraitsCRT@D@ATL@@@@@ATL@@QAEAAV01@ABV01@@Z:PROC
EXTRN	__imp_??4?$CStringT@DV?$StrTraitMFC_DLL@DV?$ChTraitsCRT@D@ATL@@@@@ATL@@QAEAAV01@PBD@Z:PROC
EXTRN	__imp_?Compare@?$CStringT@DV?$StrTraitMFC_DLL@DV?$ChTraitsCRT@D@ATL@@@@@ATL@@QBEHPBD@Z:PROC
EXTRN	?Read@CArchive@@QAEIPAXI@Z:PROC			; CArchive::Read
EXTRN	?Write@CArchive@@QAEXPBXI@Z:PROC		; CArchive::Write
EXTRN	?ReadCount@CArchive@@QAEKXZ:PROC		; CArchive::ReadCount
EXTRN	?WriteCount@CArchive@@QAEXK@Z:PROC		; CArchive::WriteCount
EXTRN	?Create@CPlex@@SGPAU1@AAPAU1@II@Z:PROC		; CPlex::Create
EXTRN	?FreeDataChain@CPlex@@QAEXXZ:PROC		; CPlex::FreeDataChain
EXTRN	?GetSavedSymbolData_ForUndoRedo@CElementSaverBuilder@@QAE?AV?$CStringT@DV?$StrTraitMFC_DLL@DV?$ChTraitsCRT@D@ATL@@@@@ATL@@ABVCOrder@@PAVCDrawingSymbol@@@Z:PROC ; CElementSaverBuilder::GetSavedSymbolData_ForUndoRedo
EXTRN	?BuildSymbolsFromString_ForUndoRedo@CElementSaverBuilder@@QAEJAAVCSymbolData@@ABVCBlockIndex@@AAV?$CStringT@DV?$StrTraitMFC_DLL@DV?$ChTraitsCRT@D@ATL@@@@@ATL@@AAVCTree@@AAVCOrder@@@Z:PROC ; CElementSaverBuilder::BuildSymbolsFromString_ForUndoRedo
EXTRN	??_E?$CList@PAVCUndo_Redo_Info@@PAV1@@@UAEPAXI@Z:PROC ; CList<CUndo_Redo_Info *,CUndo_Redo_Info *>::`vector deleting destructor'
EXTRN	?DeleteCurrentDrawingSymbol@CElementTree@@QAE_NPBVCDrawingSymbol@@@Z:PROC ; CElementTree::DeleteCurrentDrawingSymbol
EXTRN	?GetTree@CElementTree@@QAEAAVCTree@@XZ:PROC	; CElementTree::GetTree
EXTRN	?GetOrder@CElementTree@@QAEAAVCOrder@@XZ:PROC	; CElementTree::GetOrder
EXTRN	?GetChartOCX@CSymbolData@@QBEPAUIChartOCX133101@@XZ:PROC ; CSymbolData::GetChartOCX
EXTRN	?GetElementTree@CSymbolData@@QAEPAVCElementTree@@XZ:PROC ; CSymbolData::GetElementTree
EXTRN	?GetBlockIndexInSymbol@CSymbolData@@QBE?AVCBlockIndex@@J@Z:PROC ; CSymbolData::GetBlockIndexInSymbol
EXTRN	@__security_check_cookie@4:PROC
EXTRN	___CxxFrameHandler3:PROC
EXTRN	??_7type_info@@6B@:QWORD			; type_info::`vftable'
EXTRN	?m_strAddInItemName@CSymbolData@@2V?$CStringT@DV?$StrTraitMFC_DLL@DV?$ChTraitsCRT@D@ATL@@@@@ATL@@A:DWORD ; CSymbolData::m_strAddInItemName
EXTRN	___security_cookie:DWORD
;	COMDAT ??_R1A@?0A@EA@?$CList@PAVCUndo_Redo_Info@@PAV1@@@8
rdata$r	SEGMENT
??_R1A@?0A@EA@?$CList@PAVCUndo_Redo_Info@@PAV1@@@8 DD FLAT:??_R0?AV?$CList@PAVCUndo_Redo_Info@@PAV1@@@@8 ; CList<CUndo_Redo_Info *,CUndo_Redo_Info *>::`RTTI Base Class Descriptor at (0,-1,0,64)'
	DD	01H
	DD	00H
	DD	0ffffffffH
	DD	00H
	DD	040H
	DD	FLAT:??_R3?$CList@PAVCUndo_Redo_Info@@PAV1@@@8
rdata$r	ENDS
;	COMDAT ??_R2?$CList@PAVCUndo_Redo_Info@@PAV1@@@8
rdata$r	SEGMENT
??_R2?$CList@PAVCUndo_Redo_Info@@PAV1@@@8 DD FLAT:??_R1A@?0A@EA@?$CList@PAVCUndo_Redo_Info@@PAV1@@@8 ; CList<CUndo_Redo_Info *,CUndo_Redo_Info *>::`RTTI Base Class Array'
	DD	FLAT:??_R1A@?0A@EA@CObject@@8
rdata$r	ENDS
;	COMDAT ??_R3?$CList@PAVCUndo_Redo_Info@@PAV1@@@8
rdata$r	SEGMENT
??_R3?$CList@PAVCUndo_Redo_Info@@PAV1@@@8 DD 00H	; CList<CUndo_Redo_Info *,CUndo_Redo_Info *>::`RTTI Class Hierarchy Descriptor'
	DD	00H
	DD	02H
	DD	FLAT:??_R2?$CList@PAVCUndo_Redo_Info@@PAV1@@@8
rdata$r	ENDS
;	COMDAT ??_R0?AV?$CList@PAVCUndo_Redo_Info@@PAV1@@@@8
data$rs	SEGMENT
??_R0?AV?$CList@PAVCUndo_Redo_Info@@PAV1@@@@8 DD FLAT:??_7type_info@@6B@ ; CList<CUndo_Redo_Info *,CUndo_Redo_Info *> `RTTI Type Descriptor'
	DD	00H
	DB	'.?AV?$CList@PAVCUndo_Redo_Info@@PAV1@@@', 00H
data$rs	ENDS
;	COMDAT ??_R4?$CList@PAVCUndo_Redo_Info@@PAV1@@@6B@
rdata$r	SEGMENT
??_R4?$CList@PAVCUndo_Redo_Info@@PAV1@@@6B@ DD 00H	; CList<CUndo_Redo_Info *,CUndo_Redo_Info *>::`RTTI Complete Object Locator'
	DD	00H
	DD	00H
	DD	FLAT:??_R0?AV?$CList@PAVCUndo_Redo_Info@@PAV1@@@@8
	DD	FLAT:??_R3?$CList@PAVCUndo_Redo_Info@@PAV1@@@8
rdata$r	ENDS
;	COMDAT ??_7?$CList@PAVCUndo_Redo_Info@@PAV1@@@6B@
CONST	SEGMENT
??_7?$CList@PAVCUndo_Redo_Info@@PAV1@@@6B@ DD FLAT:??_R4?$CList@PAVCUndo_Redo_Info@@PAV1@@@6B@ ; CList<CUndo_Redo_Info *,CUndo_Redo_Info *>::`vftable'
	DD	FLAT:?GetRuntimeClass@CObject@@UBEPAUCRuntimeClass@@XZ
	DD	FLAT:??_E?$CList@PAVCUndo_Redo_Info@@PAV1@@@UAEPAXI@Z
	DD	FLAT:?Serialize@?$CList@PAVCUndo_Redo_Info@@PAV1@@@UAEXAAVCArchive@@@Z
	DD	FLAT:?AssertValid@CObject@@UBEXXZ
	DD	FLAT:?Dump@CObject@@UBEXAAVCDumpContext@@@Z
CONST	ENDS
;	COMDAT ??_R1A@?0A@EA@CObject@@8
rdata$r	SEGMENT
??_R1A@?0A@EA@CObject@@8 DD FLAT:??_R0?AVCObject@@@8	; CObject::`RTTI Base Class Descriptor at (0,-1,0,64)'
	DD	00H
	DD	00H
	DD	0ffffffffH
	DD	00H
	DD	040H
	DD	FLAT:??_R3CObject@@8
rdata$r	ENDS
;	COMDAT ??_R2CObject@@8
rdata$r	SEGMENT
??_R2CObject@@8 DD FLAT:??_R1A@?0A@EA@CObject@@8	; CObject::`RTTI Base Class Array'
rdata$r	ENDS
;	COMDAT ??_R3CObject@@8
rdata$r	SEGMENT
??_R3CObject@@8 DD 00H					; CObject::`RTTI Class Hierarchy Descriptor'
	DD	00H
	DD	01H
	DD	FLAT:??_R2CObject@@8
rdata$r	ENDS
;	COMDAT ??_R0?AVCObject@@@8
data$rs	SEGMENT
??_R0?AVCObject@@@8 DD FLAT:??_7type_info@@6B@		; CObject `RTTI Type Descriptor'
	DD	00H
	DB	'.?AVCObject@@', 00H
data$rs	ENDS
;	COMDAT xdata$x
xdata$x	SEGMENT
__unwindtable$??_G?$CList@PAVCUndo_Redo_Info@@PAV1@@@UAEPAXI@Z DD 0ffffffffH
	DD	FLAT:___std_terminate
__ehfuncinfo$??_G?$CList@PAVCUndo_Redo_Info@@PAV1@@@UAEPAXI@Z DD 019930522H
	DD	01H
	DD	FLAT:__unwindtable$??_G?$CList@PAVCUndo_Redo_Info@@PAV1@@@UAEPAXI@Z
	DD	2 DUP(00H)
	DD	2 DUP(00H)
	DD	00H
	DD	05H
xdata$x	ENDS
;	COMDAT xdata$x
xdata$x	SEGMENT
__ehfuncinfo$??1?$CList@PAVCUndo_Redo_Info@@PAV1@@@UAE@XZ DD 019930522H
	DD	00H
	DD	00H
	DD	2 DUP(00H)
	DD	2 DUP(00H)
	DD	00H
	DD	05H
xdata$x	ENDS
;	COMDAT xdata$x
xdata$x	SEGMENT
__unwindtable$?ChangeRedoInfo@CUndoRedoManager@@QAEHJ@Z DD 0ffffffffH
	DD	FLAT:__unwindfunclet$?ChangeRedoInfo@CUndoRedoManager@@QAEHJ@Z$0
	DD	00H
	DD	FLAT:__unwindfunclet$?ChangeRedoInfo@CUndoRedoManager@@QAEHJ@Z$1
	DD	0ffffffffH
	DD	FLAT:__unwindfunclet$?ChangeRedoInfo@CUndoRedoManager@@QAEHJ@Z$2
__ehfuncinfo$?ChangeRedoInfo@CUndoRedoManager@@QAEHJ@Z DD 019930522H
	DD	03H
	DD	FLAT:__unwindtable$?ChangeRedoInfo@CUndoRedoManager@@QAEHJ@Z
	DD	2 DUP(00H)
	DD	2 DUP(00H)
	DD	00H
	DD	01H
xdata$x	ENDS
;	COMDAT xdata$x
xdata$x	SEGMENT
__unwindtable$?ChangeUndoInfo@CUndoRedoManager@@QAEHJ@Z DD 0ffffffffH
	DD	FLAT:__unwindfunclet$?ChangeUndoInfo@CUndoRedoManager@@QAEHJ@Z$0
	DD	00H
	DD	FLAT:__unwindfunclet$?ChangeUndoInfo@CUndoRedoManager@@QAEHJ@Z$1
	DD	0ffffffffH
	DD	FLAT:__unwindfunclet$?ChangeUndoInfo@CUndoRedoManager@@QAEHJ@Z$2
__ehfuncinfo$?ChangeUndoInfo@CUndoRedoManager@@QAEHJ@Z DD 019930522H
	DD	03H
	DD	FLAT:__unwindtable$?ChangeUndoInfo@CUndoRedoManager@@QAEHJ@Z
	DD	2 DUP(00H)
	DD	2 DUP(00H)
	DD	00H
	DD	01H
xdata$x	ENDS
;	COMDAT xdata$x
xdata$x	SEGMENT
__ehfuncinfo$?RegisterElementToUnRedoManager@CUndoRedoManager@@QAEXHJPBD0@Z DD 019930522H
	DD	08H
	DD	FLAT:__unwindtable$?RegisterElementToUnRedoManager@CUndoRedoManager@@QAEXHJPBD0@Z
	DD	2 DUP(00H)
	DD	2 DUP(00H)
	DD	00H
	DD	01H
__unwindtable$?RegisterElementToUnRedoManager@CUndoRedoManager@@QAEXHJPBD0@Z DD 0ffffffffH
	DD	FLAT:__unwindfunclet$?RegisterElementToUnRedoManager@CUndoRedoManager@@QAEXHJPBD0@Z$0
	DD	00H
	DD	FLAT:__unwindfunclet$?RegisterElementToUnRedoManager@CUndoRedoManager@@QAEXHJPBD0@Z$1
	DD	00H
	DD	FLAT:__unwindfunclet$?RegisterElementToUnRedoManager@CUndoRedoManager@@QAEXHJPBD0@Z$2
	DD	02H
	DD	FLAT:__unwindfunclet$?RegisterElementToUnRedoManager@CUndoRedoManager@@QAEXHJPBD0@Z$3
	DD	02H
	DD	FLAT:__unwindfunclet$?RegisterElementToUnRedoManager@CUndoRedoManager@@QAEXHJPBD0@Z$5
	DD	04H
	DD	FLAT:__unwindfunclet$?RegisterElementToUnRedoManager@CUndoRedoManager@@QAEXHJPBD0@Z$6
	DD	05H
	DD	FLAT:__unwindfunclet$?RegisterElementToUnRedoManager@CUndoRedoManager@@QAEXHJPBD0@Z$7
	DD	06H
	DD	FLAT:__unwindfunclet$?RegisterElementToUnRedoManager@CUndoRedoManager@@QAEXHJPBD0@Z$8
xdata$x	ENDS
;	COMDAT xdata$x
xdata$x	SEGMENT
__unwindtable$??1CUndoRedoManager@@QAE@XZ DD 0ffffffffH
	DD	FLAT:___std_terminate
	DD	0ffffffffH
	DD	FLAT:___std_terminate
__ehfuncinfo$??1CUndoRedoManager@@QAE@XZ DD 019930522H
	DD	02H
	DD	FLAT:__unwindtable$??1CUndoRedoManager@@QAE@XZ
	DD	2 DUP(00H)
	DD	2 DUP(00H)
	DD	00H
	DD	05H
xdata$x	ENDS
;	COMDAT xdata$x
xdata$x	SEGMENT
__unwindtable$??0CUndoRedoManager@@QAE@XZ DD 0ffffffffH
	DD	FLAT:__unwindfunclet$??0CUndoRedoManager@@QAE@XZ$0
	DD	00H
	DD	FLAT:__unwindfunclet$??0CUndoRedoManager@@QAE@XZ$1
__ehfuncinfo$??0CUndoRedoManager@@QAE@XZ DD 019930522H
	DD	02H
	DD	FLAT:__unwindtable$??0CUndoRedoManager@@QAE@XZ
	DD	2 DUP(00H)
	DD	2 DUP(00H)
	DD	00H
	DD	01H
xdata$x	ENDS
;	COMDAT xdata$x
xdata$x	SEGMENT
__unwindtable$??0CUndo_Redo_Info@@QAE@HJV?$CStringT@DV?$StrTraitMFC_DLL@DV?$ChTraitsCRT@D@ATL@@@@@ATL@@0@Z DD 0ffffffffH
	DD	FLAT:__unwindfunclet$??0CUndo_Redo_Info@@QAE@HJV?$CStringT@DV?$StrTraitMFC_DLL@DV?$ChTraitsCRT@D@ATL@@@@@ATL@@0@Z$0
	DD	00H
	DD	FLAT:__unwindfunclet$??0CUndo_Redo_Info@@QAE@HJV?$CStringT@DV?$StrTraitMFC_DLL@DV?$ChTraitsCRT@D@ATL@@@@@ATL@@0@Z$1
	DD	01H
	DD	FLAT:__unwindfunclet$??0CUndo_Redo_Info@@QAE@HJV?$CStringT@DV?$StrTraitMFC_DLL@DV?$ChTraitsCRT@D@ATL@@@@@ATL@@0@Z$2
	DD	02H
	DD	FLAT:__unwindfunclet$??0CUndo_Redo_Info@@QAE@HJV?$CStringT@DV?$StrTraitMFC_DLL@DV?$ChTraitsCRT@D@ATL@@@@@ATL@@0@Z$3
__ehfuncinfo$??0CUndo_Redo_Info@@QAE@HJV?$CStringT@DV?$StrTraitMFC_DLL@DV?$ChTraitsCRT@D@ATL@@@@@ATL@@0@Z DD 019930522H
	DD	04H
	DD	FLAT:__unwindtable$??0CUndo_Redo_Info@@QAE@HJV?$CStringT@DV?$StrTraitMFC_DLL@DV?$ChTraitsCRT@D@ATL@@@@@ATL@@0@Z
	DD	2 DUP(00H)
	DD	2 DUP(00H)
	DD	00H
	DD	01H
xdata$x	ENDS
; Function compile flags: /Ogtp
; File C:\Program Files (x86)\Microsoft Visual Studio\2019\Community\VC\Tools\MSVC\14.29.30133\atlmfc\include\afxtempl.h
; File C:\Program Files (x86)\Microsoft Visual Studio\2019\Community\VC\Tools\MSVC\14.29.30133\atlmfc\include\afx.inl
; File C:\Program Files (x86)\Microsoft Visual Studio\2019\Community\VC\Tools\MSVC\14.29.30133\atlmfc\include\afxtempl.h
; File C:\Program Files (x86)\Microsoft Visual Studio\2019\Community\VC\Tools\MSVC\14.29.30133\atlmfc\include\afx.inl
; File C:\Program Files (x86)\Microsoft Visual Studio\2019\Community\VC\Tools\MSVC\14.29.30133\atlmfc\include\afxtempl.h
; File C:\Program Files (x86)\Microsoft Visual Studio\2019\Community\VC\Tools\MSVC\14.29.30133\atlmfc\include\afx.inl
; File C:\Program Files (x86)\Microsoft Visual Studio\2019\Community\VC\Tools\MSVC\14.29.30133\atlmfc\include\afxtempl.h
;	COMDAT ??$SerializeElements@PAVCUndo_Redo_Info@@@@YGXAAVCArchive@@PAPAVCUndo_Redo_Info@@H@Z
_TEXT	SEGMENT
_ar$ = 8						; size = 4
_pElements$ = 12					; size = 4
_nCount$ = 16						; size = 4
??$SerializeElements@PAVCUndo_Redo_Info@@@@YGXAAVCArchive@@PAPAVCUndo_Redo_Info@@H@Z PROC ; SerializeElements<CUndo_Redo_Info *>, COMDAT

; 67   : {

  00000	55		 push	 ebp
  00001	8b ec		 mov	 ebp, esp

; 68   : 	ENSURE(nCount == 0 || pElements != NULL);

  00003	8b 4d 0c	 mov	 ecx, DWORD PTR _pElements$[ebp]
  00006	53		 push	 ebx
  00007	56		 push	 esi
  00008	8b 75 10	 mov	 esi, DWORD PTR _nCount$[ebp]
  0000b	57		 push	 edi
  0000c	85 f6		 test	 esi, esi
  0000e	74 08		 je	 SHORT $LN2@SerializeE
  00010	85 c9		 test	 ecx, ecx
  00012	0f 84 89 00 00
	00		 je	 $LN34@SerializeE
$LN2@SerializeE:
; File C:\Program Files (x86)\Microsoft Visual Studio\2019\Community\VC\Tools\MSVC\14.29.30133\atlmfc\include\afx.inl

; 212  : 	{ return (m_nMode & CArchive::load) == 0; }

  00018	8b 55 08	 mov	 edx, DWORD PTR _ar$[ebp]
  0001b	8b 42 18	 mov	 eax, DWORD PTR [edx+24]
  0001e	f7 d0		 not	 eax
  00020	a8 01		 test	 al, 1
; File C:\Program Files (x86)\Microsoft Visual Studio\2019\Community\VC\Tools\MSVC\14.29.30133\atlmfc\include\afxtempl.h

; 73   : 	if (ar.IsStoring())

  00022	74 3c		 je	 SHORT $LN10@SerializeE

; 74   : 	{
; 75   : 		TYPE* pData;
; 76   : 		UINT_PTR nElementsLeft;
; 77   : 
; 78   : 		nElementsLeft = nCount;
; 79   : 		pData = pElements;
; 80   : 		while( nElementsLeft > 0 )

  00024	85 f6		 test	 esi, esi
  00026	74 31		 je	 SHORT $LN8@SerializeE
  00028	0f 1f 84 00 00
	00 00 00	 npad	 8
$LL5@SerializeE:

; 81   : 		{
; 82   : 			UINT nElementsToWrite;
; 83   : 
; 84   : 			nElementsToWrite = UINT(__min(nElementsLeft, INT_MAX/sizeof(TYPE)));

  00030	bb ff ff ff 1f	 mov	 ebx, 536870911		; 1fffffffH
  00035	3b f3		 cmp	 esi, ebx
  00037	0f 42 de	 cmovb	 ebx, esi

; 85   : 			ar.Write(pData, nElementsToWrite*sizeof(TYPE));

  0003a	8d 3c 9d 00 00
	00 00		 lea	 edi, DWORD PTR [ebx*4]
  00041	57		 push	 edi
  00042	51		 push	 ecx
  00043	8b ca		 mov	 ecx, edx
  00045	e8 00 00 00 00	 call	 ?Write@CArchive@@QAEXPBXI@Z ; CArchive::Write

; 86   : 			nElementsLeft -= nElementsToWrite;
; 87   : 			pData += nElementsToWrite;

  0004a	8b 4d 0c	 mov	 ecx, DWORD PTR _pElements$[ebp]
  0004d	8b 55 08	 mov	 edx, DWORD PTR _ar$[ebp]
  00050	03 cf		 add	 ecx, edi
  00052	89 4d 0c	 mov	 DWORD PTR _pElements$[ebp], ecx
  00055	2b f3		 sub	 esi, ebx
  00057	75 d7		 jne	 SHORT $LL5@SerializeE
$LN8@SerializeE:
  00059	5f		 pop	 edi

; 105  : 		}
; 106  : 	}
; 107  : }

  0005a	5e		 pop	 esi
  0005b	5b		 pop	 ebx
  0005c	5d		 pop	 ebp
  0005d	c2 0c 00	 ret	 12			; 0000000cH
$LN10@SerializeE:

; 97   : 		while( nElementsLeft > 0 )

  00060	85 f6		 test	 esi, esi
  00062	74 f5		 je	 SHORT $LN8@SerializeE
$LL7@SerializeE:

; 98   : 		{
; 99   : 			UINT nElementsToRead;
; 100  : 
; 101  : 			nElementsToRead = UINT(__min(nElementsLeft, INT_MAX/sizeof(TYPE)));

  00064	bf ff ff ff 1f	 mov	 edi, 536870911		; 1fffffffH
  00069	3b f7		 cmp	 esi, edi
  0006b	0f 42 fe	 cmovb	 edi, esi

; 102  : 			ar.EnsureRead(pData, nElementsToRead*sizeof(TYPE));

  0006e	8d 1c bd 00 00
	00 00		 lea	 ebx, DWORD PTR [edi*4]
; File C:\Program Files (x86)\Microsoft Visual Studio\2019\Community\VC\Tools\MSVC\14.29.30133\atlmfc\include\afx.inl

; 399  : 	UINT nRead=Read(lpBuf, nCount);

  00075	53		 push	 ebx
  00076	51		 push	 ecx
  00077	8b ca		 mov	 ecx, edx
  00079	e8 00 00 00 00	 call	 ?Read@CArchive@@QAEIPAXI@Z ; CArchive::Read

; 400  : 	if(nRead!=nCount)

  0007e	3b c3		 cmp	 eax, ebx
  00080	75 16		 jne	 SHORT $LN23@SerializeE
; File C:\Program Files (x86)\Microsoft Visual Studio\2019\Community\VC\Tools\MSVC\14.29.30133\atlmfc\include\afxtempl.h

; 97   : 		while( nElementsLeft > 0 )

  00082	8b 4d 0c	 mov	 ecx, DWORD PTR _pElements$[ebp]
  00085	8b 55 08	 mov	 edx, DWORD PTR _ar$[ebp]

; 103  : 			nElementsLeft -= nElementsToRead;
; 104  : 			pData += nElementsToRead;

  00088	03 cb		 add	 ecx, ebx
  0008a	89 4d 0c	 mov	 DWORD PTR _pElements$[ebp], ecx
  0008d	2b f7		 sub	 esi, edi
  0008f	75 d3		 jne	 SHORT $LL7@SerializeE

; 105  : 		}
; 106  : 	}
; 107  : }

  00091	5f		 pop	 edi
  00092	5e		 pop	 esi
  00093	5b		 pop	 ebx
  00094	5d		 pop	 ebp
  00095	c2 0c 00	 ret	 12			; 0000000cH
$LN23@SerializeE:
; File C:\Program Files (x86)\Microsoft Visual Studio\2019\Community\VC\Tools\MSVC\14.29.30133\atlmfc\include\afx.inl

; 402  : 		AfxThrowArchiveException(CArchiveException::endOfFile);

  00098	6a 00		 push	 0
  0009a	6a 03		 push	 3
  0009c	e8 00 00 00 00	 call	 ?AfxThrowArchiveException@@YGXHPBD@Z ; AfxThrowArchiveException
$LN34@SerializeE:
; File C:\Program Files (x86)\Microsoft Visual Studio\2019\Community\VC\Tools\MSVC\14.29.30133\atlmfc\include\afxtempl.h

; 68   : 	ENSURE(nCount == 0 || pElements != NULL);

  000a1	e8 00 00 00 00	 call	 ?AfxThrowInvalidArgException@@YGXXZ ; AfxThrowInvalidArgException
$LN32@SerializeE:
  000a6	cc		 int	 3
??$SerializeElements@PAVCUndo_Redo_Info@@@@YGXAAVCArchive@@PAPAVCUndo_Redo_Info@@H@Z ENDP ; SerializeElements<CUndo_Redo_Info *>
_TEXT	ENDS
; Function compile flags: /Ogtp
; File C:\Program Files (x86)\Microsoft Visual Studio\2019\Community\VC\Tools\MSVC\14.29.30133\atlmfc\include\afxtempl.h
; File C:\Program Files (x86)\Microsoft Visual Studio\2019\Community\VC\Tools\MSVC\14.29.30133\atlmfc\include\afx.inl
;	COMDAT ??_G?$CList@PAVCUndo_Redo_Info@@PAV1@@@UAEPAXI@Z
_TEXT	SEGMENT
__$EHRec$ = -12						; size = 12
___flags$ = 8						; size = 4
??_G?$CList@PAVCUndo_Redo_Info@@PAV1@@@UAEPAXI@Z PROC	; CList<CUndo_Redo_Info *,CUndo_Redo_Info *>::`scalar deleting destructor', COMDAT
; _this$ = ecx
  00000	55		 push	 ebp
  00001	8b ec		 mov	 ebp, esp
  00003	6a ff		 push	 -1
  00005	68 00 00 00 00	 push	 __ehhandler$??_G?$CList@PAVCUndo_Redo_Info@@PAV1@@@UAEPAXI@Z
  0000a	64 a1 00 00 00
	00		 mov	 eax, DWORD PTR fs:0
  00010	50		 push	 eax
  00011	56		 push	 esi
  00012	a1 00 00 00 00	 mov	 eax, DWORD PTR ___security_cookie
  00017	33 c5		 xor	 eax, ebp
  00019	50		 push	 eax
  0001a	8d 45 f4	 lea	 eax, DWORD PTR __$EHRec$[ebp]
  0001d	64 a3 00 00 00
	00		 mov	 DWORD PTR fs:0, eax
  00023	8b f1		 mov	 esi, ecx
; File C:\Program Files (x86)\Microsoft Visual Studio\2019\Community\VC\Tools\MSVC\14.29.30133\atlmfc\include\afxtempl.h

; 872  : 	m_pBlocks->FreeDataChain();

  00025	8b 4e 14	 mov	 ecx, DWORD PTR [esi+20]

; 878  : {

  00028	c7 45 fc 00 00
	00 00		 mov	 DWORD PTR __$EHRec$[ebp+8], 0
  0002f	c7 06 00 00 00
	00		 mov	 DWORD PTR [esi], OFFSET ??_7?$CList@PAVCUndo_Redo_Info@@PAV1@@@6B@

; 870  : 	m_nCount = 0;

  00035	c7 46 0c 00 00
	00 00		 mov	 DWORD PTR [esi+12], 0

; 871  : 	m_pNodeHead = m_pNodeTail = m_pNodeFree = NULL;

  0003c	c7 46 10 00 00
	00 00		 mov	 DWORD PTR [esi+16], 0
  00043	c7 46 08 00 00
	00 00		 mov	 DWORD PTR [esi+8], 0
  0004a	c7 46 04 00 00
	00 00		 mov	 DWORD PTR [esi+4], 0

; 872  : 	m_pBlocks->FreeDataChain();

  00051	e8 00 00 00 00	 call	 ?FreeDataChain@CPlex@@QAEXXZ ; CPlex::FreeDataChain

; 873  : 	m_pBlocks = NULL;

  00056	8b 45 08	 mov	 eax, DWORD PTR ___flags$[ebp]
  00059	c7 46 14 00 00
	00 00		 mov	 DWORD PTR [esi+20], 0
  00060	a8 01		 test	 al, 1
  00062	74 2c		 je	 SHORT $LN22@scalar
  00064	a8 04		 test	 al, 4
  00066	75 1d		 jne	 SHORT $LN3@scalar
; File C:\Program Files (x86)\Microsoft Visual Studio\2019\Community\VC\Tools\MSVC\14.29.30133\atlmfc\include\afx.inl

; 112  : 	{ ::operator delete(p); }

  00068	56		 push	 esi
  00069	e8 00 00 00 00	 call	 ??3@YAXPAX@Z		; operator delete
  0006e	83 c4 04	 add	 esp, 4
  00071	8b c6		 mov	 eax, esi
  00073	8b 4d f4	 mov	 ecx, DWORD PTR __$EHRec$[ebp]
  00076	64 89 0d 00 00
	00 00		 mov	 DWORD PTR fs:0, ecx
  0007d	59		 pop	 ecx
  0007e	5e		 pop	 esi
  0007f	8b e5		 mov	 esp, ebp
  00081	5d		 pop	 ebp
  00082	c2 04 00	 ret	 4
$LN3@scalar:
  00085	6a 1c		 push	 28			; 0000001cH
  00087	56		 push	 esi
  00088	e8 00 00 00 00	 call	 ?__global_delete@@YAXPAXI@Z ; __global_delete
  0008d	83 c4 08	 add	 esp, 8
$LN22@scalar:
  00090	8b c6		 mov	 eax, esi
  00092	8b 4d f4	 mov	 ecx, DWORD PTR __$EHRec$[ebp]
  00095	64 89 0d 00 00
	00 00		 mov	 DWORD PTR fs:0, ecx
  0009c	59		 pop	 ecx
  0009d	5e		 pop	 esi
  0009e	8b e5		 mov	 esp, ebp
  000a0	5d		 pop	 ebp
  000a1	c2 04 00	 ret	 4
  000a4	cc		 int	 3
  000a5	cc		 int	 3
  000a6	cc		 int	 3
  000a7	cc		 int	 3
  000a8	cc		 int	 3
_TEXT	ENDS
;	COMDAT text$x
text$x	SEGMENT
__ehhandler$??_G?$CList@PAVCUndo_Redo_Info@@PAV1@@@UAEPAXI@Z:
  00000	90		 npad	 1
  00001	90		 npad	 1
  00002	8b 54 24 08	 mov	 edx, DWORD PTR [esp+8]
  00006	8d 42 0c	 lea	 eax, DWORD PTR [edx+12]
  00009	8b 4a f8	 mov	 ecx, DWORD PTR [edx-8]
  0000c	33 c8		 xor	 ecx, eax
  0000e	e8 00 00 00 00	 call	 @__security_check_cookie@4
  00013	b8 00 00 00 00	 mov	 eax, OFFSET __ehfuncinfo$??_G?$CList@PAVCUndo_Redo_Info@@PAV1@@@UAEPAXI@Z
  00018	e9 00 00 00 00	 jmp	 ___CxxFrameHandler3
text$x	ENDS
??_G?$CList@PAVCUndo_Redo_Info@@PAV1@@@UAEPAXI@Z ENDP	; CList<CUndo_Redo_Info *,CUndo_Redo_Info *>::`scalar deleting destructor'
; Function compile flags: /Ogtp
; File C:\Program Files (x86)\Microsoft Visual Studio\2019\Community\VC\Tools\MSVC\14.29.30133\atlmfc\include\afxtempl.h
; File C:\Program Files (x86)\Microsoft Visual Studio\2019\Community\VC\Tools\MSVC\14.29.30133\atlmfc\include\afx.inl
; File C:\Program Files (x86)\Microsoft Visual Studio\2019\Community\VC\Tools\MSVC\14.29.30133\atlmfc\include\afxtempl.h
; File C:\Program Files (x86)\Microsoft Visual Studio\2019\Community\VC\Tools\MSVC\14.29.30133\atlmfc\include\afx.inl
; File C:\Program Files (x86)\Microsoft Visual Studio\2019\Community\VC\Tools\MSVC\14.29.30133\atlmfc\include\afxtempl.h
; File C:\Program Files (x86)\Microsoft Visual Studio\2019\Community\VC\Tools\MSVC\14.29.30133\atlmfc\include\afx.inl
; File C:\Program Files (x86)\Microsoft Visual Studio\2019\Community\VC\Tools\MSVC\14.29.30133\atlmfc\include\afxtempl.h
; File C:\Program Files (x86)\Microsoft Visual Studio\2019\Community\VC\Tools\MSVC\14.29.30133\atlmfc\include\afx.inl
; File C:\Program Files (x86)\Microsoft Visual Studio\2019\Community\VC\Tools\MSVC\14.29.30133\atlmfc\include\afxtempl.h
; File C:\Program Files (x86)\Microsoft Visual Studio\2019\Community\VC\Tools\MSVC\14.29.30133\atlmfc\include\afx.inl
; File C:\Program Files (x86)\Microsoft Visual Studio\2019\Community\VC\Tools\MSVC\14.29.30133\atlmfc\include\afxtempl.h
; File C:\Program Files (x86)\Microsoft Visual Studio\2019\Community\VC\Tools\MSVC\14.29.30133\atlmfc\include\afx.inl
; File C:\Program Files (x86)\Microsoft Visual Studio\2019\Community\VC\Tools\MSVC\14.29.30133\atlmfc\include\afxtempl.h
;	COMDAT ?Serialize@?$CList@PAVCUndo_Redo_Info@@PAV1@@@UAEXAAVCArchive@@@Z
_TEXT	SEGMENT
_nNewCount$1$ = -16					; size = 4
_newData$1 = -12					; size = 4
_pData$1$ = -8						; size = 4
_pNode$1$ = -8						; size = 4
_nElementsLeft$1$ = -4					; size = 4
_this$1$ = -4						; size = 4
_ar$ = 8						; size = 4
?Serialize@?$CList@PAVCUndo_Redo_Info@@PAV1@@@UAEXAAVCArchive@@@Z PROC ; CList<CUndo_Redo_Info *,CUndo_Redo_Info *>::Serialize, COMDAT
; _this$ = ecx

; 1169 : {

  00000	55		 push	 ebp
  00001	8b ec		 mov	 ebp, esp
  00003	83 ec 10	 sub	 esp, 16			; 00000010H
  00006	53		 push	 ebx
  00007	8b d9		 mov	 ebx, ecx
; File C:\Program Files (x86)\Microsoft Visual Studio\2019\Community\VC\Tools\MSVC\14.29.30133\atlmfc\include\afx.inl

; 212  : 	{ return (m_nMode & CArchive::load) == 0; }

  00009	8b 4d 08	 mov	 ecx, DWORD PTR _ar$[ebp]
; File C:\Program Files (x86)\Microsoft Visual Studio\2019\Community\VC\Tools\MSVC\14.29.30133\atlmfc\include\afxtempl.h

; 1169 : {

  0000c	56		 push	 esi
  0000d	57		 push	 edi
  0000e	89 5d fc	 mov	 DWORD PTR _this$1$[ebp], ebx
; File C:\Program Files (x86)\Microsoft Visual Studio\2019\Community\VC\Tools\MSVC\14.29.30133\atlmfc\include\afx.inl

; 212  : 	{ return (m_nMode & CArchive::load) == 0; }

  00011	8b 41 18	 mov	 eax, DWORD PTR [ecx+24]
  00014	f7 d0		 not	 eax
  00016	a8 01		 test	 al, 1
; File C:\Program Files (x86)\Microsoft Visual Studio\2019\Community\VC\Tools\MSVC\14.29.30133\atlmfc\include\afxtempl.h

; 1174 : 	if (ar.IsStoring())

  00018	0f 84 ae 00 00
	00		 je	 $LN7@Serialize

; 1175 : 	{
; 1176 : 		ar.WriteCount(m_nCount);

  0001e	ff 73 0c	 push	 DWORD PTR [ebx+12]
  00021	e8 00 00 00 00	 call	 ?WriteCount@CArchive@@QAEXK@Z ; CArchive::WriteCount

; 1177 : 		for (CNode* pNode = m_pNodeHead; pNode != NULL; pNode = pNode->pNext)

  00026	8b 43 04	 mov	 eax, DWORD PTR [ebx+4]
  00029	89 45 f8	 mov	 DWORD PTR _pNode$1$[ebp], eax
  0002c	85 c0		 test	 eax, eax
  0002e	0f 84 43 01 00
	00		 je	 $LN68@Serialize
$LL4@Serialize:

; 1178 : 		{
; 1179 : 			ASSERT(AfxIsValidAddress(pNode, sizeof(CNode)));
; 1180 : 			TYPE* pData;
; 1181 : 			/*
; 1182 : 			 * in some cases the & operator might be overloaded, and we cannot use it to obtain
; 1183 : 			 * the address of a given object.  We then use the following trick to get the address
; 1184 : 			 */
; 1185 : 			pData = reinterpret_cast< TYPE* >( &reinterpret_cast< int& >( static_cast< TYPE& >( pNode->data ) ) );

  00034	8d 70 08	 lea	 esi, DWORD PTR [eax+8]

; 68   : 	ENSURE(nCount == 0 || pElements != NULL);

  00037	85 f6		 test	 esi, esi
  00039	0f 84 4a 01 00
	00		 je	 $LN60@Serialize
; File C:\Program Files (x86)\Microsoft Visual Studio\2019\Community\VC\Tools\MSVC\14.29.30133\atlmfc\include\afx.inl

; 212  : 	{ return (m_nMode & CArchive::load) == 0; }

  0003f	8b 4d 08	 mov	 ecx, DWORD PTR _ar$[ebp]
  00042	8b 41 18	 mov	 eax, DWORD PTR [ecx+24]
  00045	f7 d0		 not	 eax
  00047	a8 01		 test	 al, 1
; File C:\Program Files (x86)\Microsoft Visual Studio\2019\Community\VC\Tools\MSVC\14.29.30133\atlmfc\include\afxtempl.h

; 73   : 	if (ar.IsStoring())

  00049	74 33		 je	 SHORT $LN21@Serialize

; 74   : 	{
; 75   : 		TYPE* pData;
; 76   : 		UINT_PTR nElementsLeft;
; 77   : 
; 78   : 		nElementsLeft = nCount;

  0004b	b8 01 00 00 00	 mov	 eax, 1
  00050	89 45 fc	 mov	 DWORD PTR _nElementsLeft$1$[ebp], eax
$LL16@Serialize:

; 80   : 		while( nElementsLeft > 0 )
; 81   : 		{
; 82   : 			UINT nElementsToWrite;
; 83   : 
; 84   : 			nElementsToWrite = UINT(__min(nElementsLeft, INT_MAX/sizeof(TYPE)));

  00053	bb ff ff ff 1f	 mov	 ebx, 536870911		; 1fffffffH
  00058	3b c3		 cmp	 eax, ebx
  0005a	0f 42 d8	 cmovb	 ebx, eax

; 85   : 			ar.Write(pData, nElementsToWrite*sizeof(TYPE));

  0005d	8d 3c 9d 00 00
	00 00		 lea	 edi, DWORD PTR [ebx*4]
  00064	57		 push	 edi
  00065	56		 push	 esi
  00066	e8 00 00 00 00	 call	 ?Write@CArchive@@QAEXPBXI@Z ; CArchive::Write

; 86   : 			nElementsLeft -= nElementsToWrite;

  0006b	8b 45 fc	 mov	 eax, DWORD PTR _nElementsLeft$1$[ebp]

; 87   : 			pData += nElementsToWrite;

  0006e	03 f7		 add	 esi, edi
  00070	8b 4d 08	 mov	 ecx, DWORD PTR _ar$[ebp]
  00073	2b c3		 sub	 eax, ebx
  00075	89 45 fc	 mov	 DWORD PTR _nElementsLeft$1$[ebp], eax
  00078	85 c0		 test	 eax, eax
  0007a	75 d7		 jne	 SHORT $LL16@Serialize

; 88   : 		}
; 89   : 	}

  0007c	eb 35		 jmp	 SHORT $LN2@Serialize
$LN21@Serialize:

; 90   : 	else
; 91   : 	{
; 92   : 		TYPE* pData;
; 93   : 		UINT_PTR nElementsLeft;
; 94   : 
; 95   : 		nElementsLeft = nCount;

  0007e	bf 01 00 00 00	 mov	 edi, 1
$LL18@Serialize:

; 98   : 		{
; 99   : 			UINT nElementsToRead;
; 100  : 
; 101  : 			nElementsToRead = UINT(__min(nElementsLeft, INT_MAX/sizeof(TYPE)));

  00083	bb ff ff ff 1f	 mov	 ebx, 536870911		; 1fffffffH
  00088	3b fb		 cmp	 edi, ebx
  0008a	0f 42 df	 cmovb	 ebx, edi

; 102  : 			ar.EnsureRead(pData, nElementsToRead*sizeof(TYPE));

  0008d	8d 04 9d 00 00
	00 00		 lea	 eax, DWORD PTR [ebx*4]
; File C:\Program Files (x86)\Microsoft Visual Studio\2019\Community\VC\Tools\MSVC\14.29.30133\atlmfc\include\afx.inl

; 399  : 	UINT nRead=Read(lpBuf, nCount);

  00094	50		 push	 eax
  00095	56		 push	 esi
  00096	e8 00 00 00 00	 call	 ?Read@CArchive@@QAEIPAXI@Z ; CArchive::Read

; 400  : 	if(nRead!=nCount)

  0009b	8d 0c 9d 00 00
	00 00		 lea	 ecx, DWORD PTR [ebx*4]
  000a2	3b c1		 cmp	 eax, ecx
  000a4	0f 85 d6 00 00
	00		 jne	 $LN59@Serialize
; File C:\Program Files (x86)\Microsoft Visual Studio\2019\Community\VC\Tools\MSVC\14.29.30133\atlmfc\include\afxtempl.h

; 97   : 		while( nElementsLeft > 0 )

  000aa	03 f1		 add	 esi, ecx
  000ac	8b 4d 08	 mov	 ecx, DWORD PTR _ar$[ebp]

; 103  : 			nElementsLeft -= nElementsToRead;

  000af	2b fb		 sub	 edi, ebx
  000b1	75 d0		 jne	 SHORT $LL18@Serialize
$LN2@Serialize:

; 1177 : 		for (CNode* pNode = m_pNodeHead; pNode != NULL; pNode = pNode->pNext)

  000b3	8b 45 f8	 mov	 eax, DWORD PTR _pNode$1$[ebp]
  000b6	8b 00		 mov	 eax, DWORD PTR [eax]
  000b8	89 45 f8	 mov	 DWORD PTR _pNode$1$[ebp], eax
  000bb	85 c0		 test	 eax, eax
  000bd	0f 85 71 ff ff
	ff		 jne	 $LL4@Serialize

; 1197 : 		}
; 1198 : 	}
; 1199 : }

  000c3	5f		 pop	 edi
  000c4	5e		 pop	 esi
  000c5	5b		 pop	 ebx
  000c6	8b e5		 mov	 esp, ebp
  000c8	5d		 pop	 ebp
  000c9	c2 04 00	 ret	 4
$LN7@Serialize:

; 1186 : 			SerializeElements<TYPE>(ar, pData, 1);
; 1187 : 		}
; 1188 : 	}
; 1189 : 	else
; 1190 : 	{
; 1191 : 		DWORD_PTR nNewCount = ar.ReadCount();

  000cc	e8 00 00 00 00	 call	 ?ReadCount@CArchive@@QAEKXZ ; CArchive::ReadCount

; 1192 : 		while (nNewCount--)

  000d1	85 c0		 test	 eax, eax
  000d3	0f 84 9e 00 00
	00		 je	 $LN68@Serialize
  000d9	0f 1f 80 00 00
	00 00		 npad	 7
$LL5@Serialize:
  000e0	48		 dec	 eax
  000e1	89 45 f0	 mov	 DWORD PTR _nNewCount$1$[ebp], eax
; File C:\Program Files (x86)\Microsoft Visual Studio\2019\Community\VC\Tools\MSVC\14.29.30133\atlmfc\include\afx.inl

; 212  : 	{ return (m_nMode & CArchive::load) == 0; }

  000e4	8b 45 08	 mov	 eax, DWORD PTR _ar$[ebp]
  000e7	8b 48 18	 mov	 ecx, DWORD PTR [eax+24]
  000ea	f7 d1		 not	 ecx
  000ec	f6 c1 01	 test	 cl, 1
; File C:\Program Files (x86)\Microsoft Visual Studio\2019\Community\VC\Tools\MSVC\14.29.30133\atlmfc\include\afxtempl.h

; 73   : 	if (ar.IsStoring())

  000ef	74 3a		 je	 SHORT $LN42@Serialize

; 79   : 		pData = pElements;

  000f1	8d 4d f4	 lea	 ecx, DWORD PTR _newData$1[ebp]
  000f4	bb 01 00 00 00	 mov	 ebx, 1
  000f9	89 4d f8	 mov	 DWORD PTR _pData$1$[ebp], ecx
  000fc	0f 1f 40 00	 npad	 4
$LL37@Serialize:

; 80   : 		while( nElementsLeft > 0 )
; 81   : 		{
; 82   : 			UINT nElementsToWrite;
; 83   : 
; 84   : 			nElementsToWrite = UINT(__min(nElementsLeft, INT_MAX/sizeof(TYPE)));

  00100	bf ff ff ff 1f	 mov	 edi, 536870911		; 1fffffffH
  00105	3b df		 cmp	 ebx, edi
  00107	0f 42 fb	 cmovb	 edi, ebx

; 85   : 			ar.Write(pData, nElementsToWrite*sizeof(TYPE));

  0010a	8d 34 bd 00 00
	00 00		 lea	 esi, DWORD PTR [edi*4]
  00111	56		 push	 esi
  00112	51		 push	 ecx
  00113	8b c8		 mov	 ecx, eax
  00115	e8 00 00 00 00	 call	 ?Write@CArchive@@QAEXPBXI@Z ; CArchive::Write

; 87   : 			pData += nElementsToWrite;

  0011a	8b 4d f8	 mov	 ecx, DWORD PTR _pData$1$[ebp]
  0011d	8b 45 08	 mov	 eax, DWORD PTR _ar$[ebp]
  00120	03 ce		 add	 ecx, esi
  00122	89 4d f8	 mov	 DWORD PTR _pData$1$[ebp], ecx
  00125	2b df		 sub	 ebx, edi
  00127	75 d7		 jne	 SHORT $LL37@Serialize

; 88   : 		}
; 89   : 	}

  00129	eb 36		 jmp	 SHORT $LN40@Serialize
$LN42@Serialize:

; 90   : 	else
; 91   : 	{
; 92   : 		TYPE* pData;
; 93   : 		UINT_PTR nElementsLeft;
; 94   : 
; 95   : 		nElementsLeft = nCount;

  0012b	be 01 00 00 00	 mov	 esi, 1

; 96   : 		pData = pElements;

  00130	8d 5d f4	 lea	 ebx, DWORD PTR _newData$1[ebp]
$LL39@Serialize:

; 98   : 		{
; 99   : 			UINT nElementsToRead;
; 100  : 
; 101  : 			nElementsToRead = UINT(__min(nElementsLeft, INT_MAX/sizeof(TYPE)));

  00133	bf ff ff ff 1f	 mov	 edi, 536870911		; 1fffffffH
  00138	3b f7		 cmp	 esi, edi
  0013a	0f 42 fe	 cmovb	 edi, esi

; 102  : 			ar.EnsureRead(pData, nElementsToRead*sizeof(TYPE));

  0013d	8d 0c bd 00 00
	00 00		 lea	 ecx, DWORD PTR [edi*4]
; File C:\Program Files (x86)\Microsoft Visual Studio\2019\Community\VC\Tools\MSVC\14.29.30133\atlmfc\include\afx.inl

; 399  : 	UINT nRead=Read(lpBuf, nCount);

  00144	51		 push	 ecx
  00145	53		 push	 ebx
  00146	8b c8		 mov	 ecx, eax
  00148	e8 00 00 00 00	 call	 ?Read@CArchive@@QAEIPAXI@Z ; CArchive::Read

; 400  : 	if(nRead!=nCount)

  0014d	8d 0c bd 00 00
	00 00		 lea	 ecx, DWORD PTR [edi*4]
  00154	3b c1		 cmp	 eax, ecx
  00156	75 28		 jne	 SHORT $LN59@Serialize
; File C:\Program Files (x86)\Microsoft Visual Studio\2019\Community\VC\Tools\MSVC\14.29.30133\atlmfc\include\afxtempl.h

; 104  : 			pData += nElementsToRead;

  00158	8b 45 08	 mov	 eax, DWORD PTR _ar$[ebp]
  0015b	03 d9		 add	 ebx, ecx
  0015d	2b f7		 sub	 esi, edi
  0015f	75 d2		 jne	 SHORT $LL39@Serialize
$LN40@Serialize:

; 1193 : 		{
; 1194 : 			TYPE newData[1];
; 1195 : 			SerializeElements<TYPE>(ar, newData, 1);
; 1196 : 			AddTail(newData[0]);

  00161	ff 75 f4	 push	 DWORD PTR _newData$1[ebp]
  00164	8b 4d fc	 mov	 ecx, DWORD PTR _this$1$[ebp]
  00167	e8 00 00 00 00	 call	 ?AddTail@?$CList@PAVCUndo_Redo_Info@@PAV1@@@QAEPAU__POSITION@@PAVCUndo_Redo_Info@@@Z ; CList<CUndo_Redo_Info *,CUndo_Redo_Info *>::AddTail
  0016c	8b 45 f0	 mov	 eax, DWORD PTR _nNewCount$1$[ebp]
  0016f	85 c0		 test	 eax, eax
  00171	0f 85 69 ff ff
	ff		 jne	 $LL5@Serialize
$LN68@Serialize:
  00177	5f		 pop	 edi

; 1197 : 		}
; 1198 : 	}
; 1199 : }

  00178	5e		 pop	 esi
  00179	5b		 pop	 ebx
  0017a	8b e5		 mov	 esp, ebp
  0017c	5d		 pop	 ebp
  0017d	c2 04 00	 ret	 4
$LN59@Serialize:
  00180	6a 00		 push	 0
  00182	6a 03		 push	 3
  00184	e8 00 00 00 00	 call	 ?AfxThrowArchiveException@@YGXHPBD@Z ; AfxThrowArchiveException
$LN60@Serialize:

; 68   : 	ENSURE(nCount == 0 || pElements != NULL);

  00189	e8 00 00 00 00	 call	 ?AfxThrowInvalidArgException@@YGXXZ ; AfxThrowInvalidArgException
$LN85@Serialize:
  0018e	cc		 int	 3
?Serialize@?$CList@PAVCUndo_Redo_Info@@PAV1@@@UAEXAAVCArchive@@@Z ENDP ; CList<CUndo_Redo_Info *,CUndo_Redo_Info *>::Serialize
_TEXT	ENDS
; Function compile flags: /Ogtp
; File C:\Program Files (x86)\Microsoft Visual Studio\2019\Community\VC\Tools\MSVC\14.29.30133\atlmfc\include\afxtempl.h
;	COMDAT ??1?$CList@PAVCUndo_Redo_Info@@PAV1@@@UAE@XZ
_TEXT	SEGMENT
__$EHRec$ = -12						; size = 12
??1?$CList@PAVCUndo_Redo_Info@@PAV1@@@UAE@XZ PROC	; CList<CUndo_Redo_Info *,CUndo_Redo_Info *>::~CList<CUndo_Redo_Info *,CUndo_Redo_Info *>, COMDAT
; _this$ = ecx

; 878  : {

  00000	55		 push	 ebp
  00001	8b ec		 mov	 ebp, esp
  00003	6a ff		 push	 -1
  00005	68 00 00 00 00	 push	 __ehhandler$??1?$CList@PAVCUndo_Redo_Info@@PAV1@@@UAE@XZ
  0000a	64 a1 00 00 00
	00		 mov	 eax, DWORD PTR fs:0
  00010	50		 push	 eax
  00011	56		 push	 esi
  00012	a1 00 00 00 00	 mov	 eax, DWORD PTR ___security_cookie
  00017	33 c5		 xor	 eax, ebp
  00019	50		 push	 eax
  0001a	8d 45 f4	 lea	 eax, DWORD PTR __$EHRec$[ebp]
  0001d	64 a3 00 00 00
	00		 mov	 DWORD PTR fs:0, eax
  00023	8b f1		 mov	 esi, ecx

; 872  : 	m_pBlocks->FreeDataChain();

  00025	8b 4e 14	 mov	 ecx, DWORD PTR [esi+20]

; 878  : {

  00028	c7 06 00 00 00
	00		 mov	 DWORD PTR [esi], OFFSET ??_7?$CList@PAVCUndo_Redo_Info@@PAV1@@@6B@

; 870  : 	m_nCount = 0;

  0002e	c7 46 0c 00 00
	00 00		 mov	 DWORD PTR [esi+12], 0

; 871  : 	m_pNodeHead = m_pNodeTail = m_pNodeFree = NULL;

  00035	c7 46 10 00 00
	00 00		 mov	 DWORD PTR [esi+16], 0
  0003c	c7 46 08 00 00
	00 00		 mov	 DWORD PTR [esi+8], 0
  00043	c7 46 04 00 00
	00 00		 mov	 DWORD PTR [esi+4], 0

; 872  : 	m_pBlocks->FreeDataChain();

  0004a	e8 00 00 00 00	 call	 ?FreeDataChain@CPlex@@QAEXXZ ; CPlex::FreeDataChain

; 873  : 	m_pBlocks = NULL;

  0004f	c7 46 14 00 00
	00 00		 mov	 DWORD PTR [esi+20], 0

; 879  : 	RemoveAll();
; 880  : 	ASSERT(m_nCount == 0);
; 881  : }

  00056	8b 4d f4	 mov	 ecx, DWORD PTR __$EHRec$[ebp]
  00059	64 89 0d 00 00
	00 00		 mov	 DWORD PTR fs:0, ecx
  00060	59		 pop	 ecx
  00061	5e		 pop	 esi
  00062	8b e5		 mov	 esp, ebp
  00064	5d		 pop	 ebp
  00065	c3		 ret	 0
  00066	cc		 int	 3
  00067	cc		 int	 3
  00068	cc		 int	 3
  00069	cc		 int	 3
  0006a	cc		 int	 3
_TEXT	ENDS
;	COMDAT text$x
text$x	SEGMENT
__ehhandler$??1?$CList@PAVCUndo_Redo_Info@@PAV1@@@UAE@XZ:
  00000	90		 npad	 1
  00001	90		 npad	 1
  00002	8b 54 24 08	 mov	 edx, DWORD PTR [esp+8]
  00006	8d 42 0c	 lea	 eax, DWORD PTR [edx+12]
  00009	8b 4a f8	 mov	 ecx, DWORD PTR [edx-8]
  0000c	33 c8		 xor	 ecx, eax
  0000e	e8 00 00 00 00	 call	 @__security_check_cookie@4
  00013	b8 00 00 00 00	 mov	 eax, OFFSET __ehfuncinfo$??1?$CList@PAVCUndo_Redo_Info@@PAV1@@@UAE@XZ
  00018	e9 00 00 00 00	 jmp	 ___CxxFrameHandler3
text$x	ENDS
??1?$CList@PAVCUndo_Redo_Info@@PAV1@@@UAE@XZ ENDP	; CList<CUndo_Redo_Info *,CUndo_Redo_Info *>::~CList<CUndo_Redo_Info *,CUndo_Redo_Info *>
; Function compile flags: /Ogtp
; File C:\Program Files (x86)\Microsoft Visual Studio\2019\Community\VC\Tools\MSVC\14.29.30133\atlmfc\include\afxtempl.h
;	COMDAT ?FreeNode@?$CList@PAVCUndo_Redo_Info@@PAV1@@@IAEXPAUCNode@1@@Z
_TEXT	SEGMENT
_pNode$ = 8						; size = 4
?FreeNode@?$CList@PAVCUndo_Redo_Info@@PAV1@@@IAEXPAUCNode@1@@Z PROC ; CList<CUndo_Redo_Info *,CUndo_Redo_Info *>::FreeNode, COMDAT
; _this$ = ecx

; 936  : {

  00000	55		 push	 ebp
  00001	8b ec		 mov	 ebp, esp

; 937  : 	pNode->data.~TYPE();
; 938  : 	pNode->pNext = m_pNodeFree;

  00003	8b 55 08	 mov	 edx, DWORD PTR _pNode$[ebp]
  00006	56		 push	 esi
  00007	8b f1		 mov	 esi, ecx
  00009	8b 46 10	 mov	 eax, DWORD PTR [esi+16]
  0000c	89 02		 mov	 DWORD PTR [edx], eax

; 939  : 	m_pNodeFree = pNode;
; 940  : 	m_nCount--;

  0000e	83 46 0c ff	 add	 DWORD PTR [esi+12], -1
  00012	89 56 10	 mov	 DWORD PTR [esi+16], edx

; 941  : 	ASSERT(m_nCount >= 0);  // make sure we don't underflow
; 942  : 
; 943  : 	// if no more elements, cleanup completely
; 944  : 	if (m_nCount == 0)

  00015	75 2b		 jne	 SHORT $LN2@FreeNode

; 872  : 	m_pBlocks->FreeDataChain();

  00017	8b 4e 14	 mov	 ecx, DWORD PTR [esi+20]
  0001a	c7 46 0c 00 00
	00 00		 mov	 DWORD PTR [esi+12], 0
  00021	c7 46 10 00 00
	00 00		 mov	 DWORD PTR [esi+16], 0
  00028	c7 46 08 00 00
	00 00		 mov	 DWORD PTR [esi+8], 0
  0002f	c7 46 04 00 00
	00 00		 mov	 DWORD PTR [esi+4], 0
  00036	e8 00 00 00 00	 call	 ?FreeDataChain@CPlex@@QAEXXZ ; CPlex::FreeDataChain

; 873  : 	m_pBlocks = NULL;

  0003b	c7 46 14 00 00
	00 00		 mov	 DWORD PTR [esi+20], 0
$LN2@FreeNode:
  00042	5e		 pop	 esi

; 945  : 		RemoveAll();
; 946  : }

  00043	5d		 pop	 ebp
  00044	c2 04 00	 ret	 4
?FreeNode@?$CList@PAVCUndo_Redo_Info@@PAV1@@@IAEXPAUCNode@1@@Z ENDP ; CList<CUndo_Redo_Info *,CUndo_Redo_Info *>::FreeNode
_TEXT	ENDS
; Function compile flags: /Ogtp
; File C:\Program Files (x86)\Microsoft Visual Studio\2019\Community\VC\Tools\MSVC\14.29.30133\atlmfc\include\afxtempl.h
;	COMDAT ?NewNode@?$CList@PAVCUndo_Redo_Info@@PAV1@@@IAEPAUCNode@1@PAU21@0@Z
_TEXT	SEGMENT
_pPrev$ = 8						; size = 4
_pNext$ = 12						; size = 4
?NewNode@?$CList@PAVCUndo_Redo_Info@@PAV1@@@IAEPAUCNode@1@PAU21@0@Z PROC ; CList<CUndo_Redo_Info *,CUndo_Redo_Info *>::NewNode, COMDAT
; _this$ = ecx

; 901  : {

  00000	55		 push	 ebp
  00001	8b ec		 mov	 ebp, esp
  00003	56		 push	 esi
  00004	8b f1		 mov	 esi, ecx

; 902  : 	if (m_pNodeFree == NULL)

  00006	83 7e 10 00	 cmp	 DWORD PTR [esi+16], 0
  0000a	75 34		 jne	 SHORT $LN7@NewNode

; 903  : 	{
; 904  : 		// add another block
; 905  : 		CPlex* pNewBlock = CPlex::Create(m_pBlocks, m_nBlockSize,

  0000c	6a 0c		 push	 12			; 0000000cH
  0000e	ff 76 18	 push	 DWORD PTR [esi+24]
  00011	8d 46 14	 lea	 eax, DWORD PTR [esi+20]
  00014	50		 push	 eax
  00015	e8 00 00 00 00	 call	 ?Create@CPlex@@SGPAU1@AAPAU1@II@Z ; CPlex::Create

; 906  : 				 sizeof(CNode));
; 907  : 
; 908  : 		// chain them into free list
; 909  : 		CNode* pNode = (CNode*) pNewBlock->data();
; 910  : 		// free in reverse order to make it easier to debug
; 911  : 		pNode += m_nBlockSize - 1;

  0001a	8b 56 18	 mov	 edx, DWORD PTR [esi+24]
  0001d	83 c0 08	 add	 eax, 8
  00020	8d 0c 52	 lea	 ecx, DWORD PTR [edx+edx*2]
  00023	8d 04 88	 lea	 eax, DWORD PTR [eax+ecx*4]
  00026	83 c0 f4	 add	 eax, -12		; fffffff4H

; 912  : 		for (INT_PTR i = m_nBlockSize-1; i >= 0; i--, pNode--)

  00029	83 c2 ff	 add	 edx, -1
  0002c	78 12		 js	 SHORT $LN7@NewNode
  0002e	66 90		 npad	 2
$LL4@NewNode:

; 913  : 		{
; 914  : 			pNode->pNext = m_pNodeFree;

  00030	8b 4e 10	 mov	 ecx, DWORD PTR [esi+16]
  00033	89 08		 mov	 DWORD PTR [eax], ecx

; 915  : 			m_pNodeFree = pNode;

  00035	89 46 10	 mov	 DWORD PTR [esi+16], eax
  00038	83 e8 0c	 sub	 eax, 12			; 0000000cH
  0003b	83 ea 01	 sub	 edx, 1
  0003e	79 f0		 jns	 SHORT $LL4@NewNode
$LN7@NewNode:

; 916  : 		}
; 917  : 	}
; 918  : 	ENSURE(m_pNodeFree != NULL);  // we must have something

  00040	8b 46 10	 mov	 eax, DWORD PTR [esi+16]
  00043	85 c0		 test	 eax, eax
  00045	74 18		 je	 SHORT $LN17@NewNode

; 919  : 
; 920  : 	CList::CNode* pNode = m_pNodeFree;
; 921  : 	m_pNodeFree = m_pNodeFree->pNext;

  00047	8b 08		 mov	 ecx, DWORD PTR [eax]
  00049	89 4e 10	 mov	 DWORD PTR [esi+16], ecx

; 922  : 	pNode->pPrev = pPrev;

  0004c	8b 4d 08	 mov	 ecx, DWORD PTR _pPrev$[ebp]
  0004f	89 48 04	 mov	 DWORD PTR [eax+4], ecx

; 923  : 	pNode->pNext = pNext;

  00052	8b 4d 0c	 mov	 ecx, DWORD PTR _pNext$[ebp]
  00055	89 08		 mov	 DWORD PTR [eax], ecx

; 924  : 	m_nCount++;

  00057	ff 46 0c	 inc	 DWORD PTR [esi+12]

; 925  : 	ASSERT(m_nCount > 0);  // make sure we don't overflow
; 926  : 
; 927  : #pragma push_macro("new")
; 928  : #undef new
; 929  : 	::new( (void*)( &pNode->data ) ) TYPE;
; 930  : #pragma pop_macro("new")
; 931  : 	return pNode;

  0005a	5e		 pop	 esi

; 932  : }

  0005b	5d		 pop	 ebp
  0005c	c2 08 00	 ret	 8
$LN17@NewNode:

; 916  : 		}
; 917  : 	}
; 918  : 	ENSURE(m_pNodeFree != NULL);  // we must have something

  0005f	e8 00 00 00 00	 call	 ?AfxThrowInvalidArgException@@YGXXZ ; AfxThrowInvalidArgException
$LN15@NewNode:
  00064	cc		 int	 3
?NewNode@?$CList@PAVCUndo_Redo_Info@@PAV1@@@IAEPAUCNode@1@PAU21@0@Z ENDP ; CList<CUndo_Redo_Info *,CUndo_Redo_Info *>::NewNode
_TEXT	ENDS
; Function compile flags: /Ogtp
; File C:\Program Files (x86)\Microsoft Visual Studio\2019\Community\VC\Tools\MSVC\14.29.30133\atlmfc\include\afxtempl.h
;	COMDAT ?RemoveAt@?$CList@PAVCUndo_Redo_Info@@PAV1@@@QAEXPAU__POSITION@@@Z
_TEXT	SEGMENT
_position$ = 8						; size = 4
?RemoveAt@?$CList@PAVCUndo_Redo_Info@@PAV1@@@QAEXPAU__POSITION@@@Z PROC ; CList<CUndo_Redo_Info *,CUndo_Redo_Info *>::RemoveAt, COMDAT
; _this$ = ecx

; 1100 : {

  00000	55		 push	 ebp
  00001	8b ec		 mov	 ebp, esp
  00003	56		 push	 esi
  00004	8b f1		 mov	 esi, ecx

; 1101 : 	ASSERT_VALID(this);
; 1102 : 
; 1103 : 	CNode* pOldNode = (CNode*) position;
; 1104 : 	ASSERT(AfxIsValidAddress(pOldNode, sizeof(CNode)));
; 1105 : 
; 1106 : 	// remove pOldNode from list
; 1107 : 	if (pOldNode == m_pNodeHead)

  00006	8b 4d 08	 mov	 ecx, DWORD PTR _position$[ebp]
  00009	8b 11		 mov	 edx, DWORD PTR [ecx]
  0000b	3b 4e 04	 cmp	 ecx, DWORD PTR [esi+4]
  0000e	75 05		 jne	 SHORT $LN2@RemoveAt

; 1108 : 	{
; 1109 : 		m_pNodeHead = pOldNode->pNext;

  00010	89 56 04	 mov	 DWORD PTR [esi+4], edx

; 1110 : 	}

  00013	eb 05		 jmp	 SHORT $LN3@RemoveAt
$LN2@RemoveAt:

; 1111 : 	else
; 1112 : 	{
; 1113 : 		ASSERT(AfxIsValidAddress(pOldNode->pPrev, sizeof(CNode)));
; 1114 : 		pOldNode->pPrev->pNext = pOldNode->pNext;

  00015	8b 41 04	 mov	 eax, DWORD PTR [ecx+4]
  00018	89 10		 mov	 DWORD PTR [eax], edx
$LN3@RemoveAt:

; 1115 : 	}
; 1116 : 	if (pOldNode == m_pNodeTail)

  0001a	8b 51 04	 mov	 edx, DWORD PTR [ecx+4]
  0001d	3b 4e 08	 cmp	 ecx, DWORD PTR [esi+8]
  00020	75 05		 jne	 SHORT $LN4@RemoveAt

; 1117 : 	{
; 1118 : 		m_pNodeTail = pOldNode->pPrev;

  00022	89 56 08	 mov	 DWORD PTR [esi+8], edx

; 1119 : 	}

  00025	eb 05		 jmp	 SHORT $LN5@RemoveAt
$LN4@RemoveAt:

; 1120 : 	else
; 1121 : 	{
; 1122 : 		ASSERT(AfxIsValidAddress(pOldNode->pNext, sizeof(CNode)));
; 1123 : 		pOldNode->pNext->pPrev = pOldNode->pPrev;

  00027	8b 01		 mov	 eax, DWORD PTR [ecx]
  00029	89 50 04	 mov	 DWORD PTR [eax+4], edx
$LN5@RemoveAt:

; 938  : 	pNode->pNext = m_pNodeFree;

  0002c	8b 46 10	 mov	 eax, DWORD PTR [esi+16]
  0002f	89 01		 mov	 DWORD PTR [ecx], eax

; 939  : 	m_pNodeFree = pNode;
; 940  : 	m_nCount--;

  00031	83 46 0c ff	 add	 DWORD PTR [esi+12], -1
  00035	89 4e 10	 mov	 DWORD PTR [esi+16], ecx

; 941  : 	ASSERT(m_nCount >= 0);  // make sure we don't underflow
; 942  : 
; 943  : 	// if no more elements, cleanup completely
; 944  : 	if (m_nCount == 0)

  00038	75 2b		 jne	 SHORT $LN8@RemoveAt

; 872  : 	m_pBlocks->FreeDataChain();

  0003a	8b 4e 14	 mov	 ecx, DWORD PTR [esi+20]
  0003d	c7 46 0c 00 00
	00 00		 mov	 DWORD PTR [esi+12], 0
  00044	c7 46 10 00 00
	00 00		 mov	 DWORD PTR [esi+16], 0
  0004b	c7 46 08 00 00
	00 00		 mov	 DWORD PTR [esi+8], 0
  00052	c7 46 04 00 00
	00 00		 mov	 DWORD PTR [esi+4], 0
  00059	e8 00 00 00 00	 call	 ?FreeDataChain@CPlex@@QAEXXZ ; CPlex::FreeDataChain

; 873  : 	m_pBlocks = NULL;

  0005e	c7 46 14 00 00
	00 00		 mov	 DWORD PTR [esi+20], 0
$LN8@RemoveAt:
  00065	5e		 pop	 esi

; 1124 : 	}
; 1125 : 	FreeNode(pOldNode);
; 1126 : }

  00066	5d		 pop	 ebp
  00067	c2 04 00	 ret	 4
?RemoveAt@?$CList@PAVCUndo_Redo_Info@@PAV1@@@QAEXPAU__POSITION@@@Z ENDP ; CList<CUndo_Redo_Info *,CUndo_Redo_Info *>::RemoveAt
_TEXT	ENDS
; Function compile flags: /Ogtp
; File C:\Program Files (x86)\Microsoft Visual Studio\2019\Community\VC\Tools\MSVC\14.29.30133\atlmfc\include\afxtempl.h
;	COMDAT ?RemoveAll@?$CList@PAVCUndo_Redo_Info@@PAV1@@@QAEXXZ
_TEXT	SEGMENT
?RemoveAll@?$CList@PAVCUndo_Redo_Info@@PAV1@@@QAEXXZ PROC ; CList<CUndo_Redo_Info *,CUndo_Redo_Info *>::RemoveAll, COMDAT
; _this$ = ecx

; 862  : {

  00000	56		 push	 esi
  00001	8b f1		 mov	 esi, ecx

; 863  : 	ASSERT_VALID(this);
; 864  : 
; 865  : 	// destroy elements
; 866  : 	CNode* pNode;
; 867  : 	for (pNode = m_pNodeHead; pNode != NULL; pNode = pNode->pNext)
; 868  : 		pNode->data.~TYPE();
; 869  : 
; 870  : 	m_nCount = 0;
; 871  : 	m_pNodeHead = m_pNodeTail = m_pNodeFree = NULL;
; 872  : 	m_pBlocks->FreeDataChain();

  00003	8b 4e 14	 mov	 ecx, DWORD PTR [esi+20]
  00006	c7 46 0c 00 00
	00 00		 mov	 DWORD PTR [esi+12], 0
  0000d	c7 46 10 00 00
	00 00		 mov	 DWORD PTR [esi+16], 0
  00014	c7 46 08 00 00
	00 00		 mov	 DWORD PTR [esi+8], 0
  0001b	c7 46 04 00 00
	00 00		 mov	 DWORD PTR [esi+4], 0
  00022	e8 00 00 00 00	 call	 ?FreeDataChain@CPlex@@QAEXXZ ; CPlex::FreeDataChain

; 873  : 	m_pBlocks = NULL;

  00027	c7 46 14 00 00
	00 00		 mov	 DWORD PTR [esi+20], 0
  0002e	5e		 pop	 esi

; 874  : }

  0002f	c3		 ret	 0
?RemoveAll@?$CList@PAVCUndo_Redo_Info@@PAV1@@@QAEXXZ ENDP ; CList<CUndo_Redo_Info *,CUndo_Redo_Info *>::RemoveAll
_TEXT	ENDS
; Function compile flags: /Ogtp
; File C:\Program Files (x86)\Microsoft Visual Studio\2019\Community\VC\Tools\MSVC\14.29.30133\atlmfc\include\afxtempl.h
;	COMDAT ?AddTail@?$CList@PAVCUndo_Redo_Info@@PAV1@@@QAEPAU__POSITION@@PAVCUndo_Redo_Info@@@Z
_TEXT	SEGMENT
_newElement$ = 8					; size = 4
?AddTail@?$CList@PAVCUndo_Redo_Info@@PAV1@@@QAEPAU__POSITION@@PAVCUndo_Redo_Info@@@Z PROC ; CList<CUndo_Redo_Info *,CUndo_Redo_Info *>::AddTail, COMDAT
; _this$ = ecx

; 965  : {

  00000	55		 push	 ebp
  00001	8b ec		 mov	 ebp, esp
  00003	56		 push	 esi
  00004	8b f1		 mov	 esi, ecx
  00006	57		 push	 edi

; 902  : 	if (m_pNodeFree == NULL)

  00007	83 7e 10 00	 cmp	 DWORD PTR [esi+16], 0

; 966  : 	ASSERT_VALID(this);
; 967  : 
; 968  : 	CNode* pNewNode = NewNode(m_pNodeTail, NULL);

  0000b	8b 7e 08	 mov	 edi, DWORD PTR [esi+8]

; 902  : 	if (m_pNodeFree == NULL)

  0000e	75 32		 jne	 SHORT $LN11@AddTail

; 903  : 	{
; 904  : 		// add another block
; 905  : 		CPlex* pNewBlock = CPlex::Create(m_pBlocks, m_nBlockSize,

  00010	6a 0c		 push	 12			; 0000000cH
  00012	ff 76 18	 push	 DWORD PTR [esi+24]
  00015	8d 46 14	 lea	 eax, DWORD PTR [esi+20]
  00018	50		 push	 eax
  00019	e8 00 00 00 00	 call	 ?Create@CPlex@@SGPAU1@AAPAU1@II@Z ; CPlex::Create

; 906  : 				 sizeof(CNode));
; 907  : 
; 908  : 		// chain them into free list
; 909  : 		CNode* pNode = (CNode*) pNewBlock->data();
; 910  : 		// free in reverse order to make it easier to debug
; 911  : 		pNode += m_nBlockSize - 1;

  0001e	8b 56 18	 mov	 edx, DWORD PTR [esi+24]
  00021	83 c0 08	 add	 eax, 8
  00024	8d 4a ff	 lea	 ecx, DWORD PTR [edx-1]

; 912  : 		for (INT_PTR i = m_nBlockSize-1; i >= 0; i--, pNode--)

  00027	83 c2 ff	 add	 edx, -1
  0002a	8d 0c 49	 lea	 ecx, DWORD PTR [ecx+ecx*2]
  0002d	8d 0c 88	 lea	 ecx, DWORD PTR [eax+ecx*4]
  00030	78 10		 js	 SHORT $LN11@AddTail
$LL8@AddTail:

; 913  : 		{
; 914  : 			pNode->pNext = m_pNodeFree;

  00032	8b 46 10	 mov	 eax, DWORD PTR [esi+16]
  00035	89 01		 mov	 DWORD PTR [ecx], eax

; 915  : 			m_pNodeFree = pNode;

  00037	89 4e 10	 mov	 DWORD PTR [esi+16], ecx
  0003a	83 e9 0c	 sub	 ecx, 12			; 0000000cH
  0003d	83 ea 01	 sub	 edx, 1
  00040	79 f0		 jns	 SHORT $LL8@AddTail
$LN11@AddTail:

; 916  : 		}
; 917  : 	}
; 918  : 	ENSURE(m_pNodeFree != NULL);  // we must have something

  00042	8b 4e 10	 mov	 ecx, DWORD PTR [esi+16]
  00045	85 c9		 test	 ecx, ecx
  00047	74 39		 je	 SHORT $LN22@AddTail

; 919  : 
; 920  : 	CList::CNode* pNode = m_pNodeFree;
; 921  : 	m_pNodeFree = m_pNodeFree->pNext;

  00049	8b 01		 mov	 eax, DWORD PTR [ecx]
  0004b	89 46 10	 mov	 DWORD PTR [esi+16], eax

; 969  : 	pNewNode->data = newElement;

  0004e	8b 45 08	 mov	 eax, DWORD PTR _newElement$[ebp]

; 922  : 	pNode->pPrev = pPrev;

  00051	89 79 04	 mov	 DWORD PTR [ecx+4], edi

; 923  : 	pNode->pNext = pNext;

  00054	c7 01 00 00 00
	00		 mov	 DWORD PTR [ecx], 0

; 924  : 	m_nCount++;

  0005a	ff 46 0c	 inc	 DWORD PTR [esi+12]

; 969  : 	pNewNode->data = newElement;

  0005d	89 41 08	 mov	 DWORD PTR [ecx+8], eax

; 970  : 	if (m_pNodeTail != NULL)

  00060	8b 46 08	 mov	 eax, DWORD PTR [esi+8]
  00063	85 c0		 test	 eax, eax
  00065	74 0d		 je	 SHORT $LN2@AddTail

; 971  : 		m_pNodeTail->pNext = pNewNode;

  00067	89 08		 mov	 DWORD PTR [eax], ecx

; 972  : 	else
; 973  : 		m_pNodeHead = pNewNode;
; 974  : 	m_pNodeTail = pNewNode;
; 975  : 	return (POSITION) pNewNode;

  00069	8b c1		 mov	 eax, ecx
  0006b	5f		 pop	 edi
  0006c	89 4e 08	 mov	 DWORD PTR [esi+8], ecx
  0006f	5e		 pop	 esi

; 976  : }

  00070	5d		 pop	 ebp
  00071	c2 04 00	 ret	 4
$LN2@AddTail:

; 972  : 	else
; 973  : 		m_pNodeHead = pNewNode;
; 974  : 	m_pNodeTail = pNewNode;
; 975  : 	return (POSITION) pNewNode;

  00074	5f		 pop	 edi
  00075	89 4e 04	 mov	 DWORD PTR [esi+4], ecx
  00078	8b c1		 mov	 eax, ecx
  0007a	89 4e 08	 mov	 DWORD PTR [esi+8], ecx
  0007d	5e		 pop	 esi

; 976  : }

  0007e	5d		 pop	 ebp
  0007f	c2 04 00	 ret	 4
$LN22@AddTail:

; 918  : 	ENSURE(m_pNodeFree != NULL);  // we must have something

  00082	e8 00 00 00 00	 call	 ?AfxThrowInvalidArgException@@YGXXZ ; AfxThrowInvalidArgException
$LN20@AddTail:
  00087	cc		 int	 3
?AddTail@?$CList@PAVCUndo_Redo_Info@@PAV1@@@QAEPAU__POSITION@@PAVCUndo_Redo_Info@@@Z ENDP ; CList<CUndo_Redo_Info *,CUndo_Redo_Info *>::AddTail
_TEXT	ENDS
; Function compile flags: /Ogtp
; File C:\Program Files (x86)\Microsoft Visual Studio\2019\Community\VC\Tools\MSVC\14.29.30133\atlmfc\include\afxtempl.h
;	COMDAT ?RemoveTail@?$CList@PAVCUndo_Redo_Info@@PAV1@@@QAEPAVCUndo_Redo_Info@@XZ
_TEXT	SEGMENT
?RemoveTail@?$CList@PAVCUndo_Redo_Info@@PAV1@@@QAEPAVCUndo_Redo_Info@@XZ PROC ; CList<CUndo_Redo_Info *,CUndo_Redo_Info *>::RemoveTail, COMDAT
; _this$ = ecx

; 1026 : {

  00000	56		 push	 esi
  00001	8b f1		 mov	 esi, ecx
  00003	57		 push	 edi

; 1027 : 	ASSERT_VALID(this);
; 1028 : 	ENSURE(m_pNodeTail != NULL);  // don't call on empty list !!!

  00004	8b 4e 08	 mov	 ecx, DWORD PTR [esi+8]
  00007	85 c9		 test	 ecx, ecx
  00009	74 5a		 je	 SHORT $LN24@RemoveTail

; 1029 : 	ASSERT(AfxIsValidAddress(m_pNodeTail, sizeof(CNode)));
; 1030 : 
; 1031 : 	CNode* pOldNode = m_pNodeTail;
; 1032 : 	TYPE returnValue = pOldNode->data;
; 1033 : 
; 1034 : 	m_pNodeTail = pOldNode->pPrev;

  0000b	8b 41 04	 mov	 eax, DWORD PTR [ecx+4]
  0000e	8b 79 08	 mov	 edi, DWORD PTR [ecx+8]
  00011	89 46 08	 mov	 DWORD PTR [esi+8], eax

; 1035 : 	if (m_pNodeTail != NULL)

  00014	85 c0		 test	 eax, eax
  00016	74 08		 je	 SHORT $LN6@RemoveTail

; 1036 : 		m_pNodeTail->pNext = NULL;

  00018	c7 00 00 00 00
	00		 mov	 DWORD PTR [eax], 0
  0001e	eb 07		 jmp	 SHORT $LN7@RemoveTail
$LN6@RemoveTail:

; 1037 : 	else
; 1038 : 		m_pNodeHead = NULL;

  00020	c7 46 04 00 00
	00 00		 mov	 DWORD PTR [esi+4], 0
$LN7@RemoveTail:

; 938  : 	pNode->pNext = m_pNodeFree;

  00027	8b 46 10	 mov	 eax, DWORD PTR [esi+16]
  0002a	89 01		 mov	 DWORD PTR [ecx], eax

; 939  : 	m_pNodeFree = pNode;
; 940  : 	m_nCount--;

  0002c	83 46 0c ff	 add	 DWORD PTR [esi+12], -1
  00030	89 4e 10	 mov	 DWORD PTR [esi+16], ecx

; 941  : 	ASSERT(m_nCount >= 0);  // make sure we don't underflow
; 942  : 
; 943  : 	// if no more elements, cleanup completely
; 944  : 	if (m_nCount == 0)

  00033	75 2b		 jne	 SHORT $LN10@RemoveTail

; 872  : 	m_pBlocks->FreeDataChain();

  00035	8b 4e 14	 mov	 ecx, DWORD PTR [esi+20]
  00038	c7 46 0c 00 00
	00 00		 mov	 DWORD PTR [esi+12], 0
  0003f	c7 46 10 00 00
	00 00		 mov	 DWORD PTR [esi+16], 0
  00046	c7 46 08 00 00
	00 00		 mov	 DWORD PTR [esi+8], 0
  0004d	c7 46 04 00 00
	00 00		 mov	 DWORD PTR [esi+4], 0
  00054	e8 00 00 00 00	 call	 ?FreeDataChain@CPlex@@QAEXXZ ; CPlex::FreeDataChain

; 873  : 	m_pBlocks = NULL;

  00059	c7 46 14 00 00
	00 00		 mov	 DWORD PTR [esi+20], 0
$LN10@RemoveTail:

; 1039 : 	FreeNode(pOldNode);
; 1040 : 	return returnValue;

  00060	8b c7		 mov	 eax, edi
  00062	5f		 pop	 edi
  00063	5e		 pop	 esi

; 1041 : }

  00064	c3		 ret	 0
$LN24@RemoveTail:

; 1027 : 	ASSERT_VALID(this);
; 1028 : 	ENSURE(m_pNodeTail != NULL);  // don't call on empty list !!!

  00065	e8 00 00 00 00	 call	 ?AfxThrowInvalidArgException@@YGXXZ ; AfxThrowInvalidArgException
$LN22@RemoveTail:
  0006a	cc		 int	 3
?RemoveTail@?$CList@PAVCUndo_Redo_Info@@PAV1@@@QAEPAVCUndo_Redo_Info@@XZ ENDP ; CList<CUndo_Redo_Info *,CUndo_Redo_Info *>::RemoveTail
_TEXT	ENDS
; Function compile flags: /Ogtp
; File C:\Program Files (x86)\Microsoft Visual Studio\2019\Community\VC\Tools\MSVC\14.29.30133\atlmfc\include\afxtempl.h
;	COMDAT ??0?$CList@PAVCUndo_Redo_Info@@PAV1@@@QAE@H@Z
_TEXT	SEGMENT
_nBlockSize$ = 8					; size = 4
??0?$CList@PAVCUndo_Redo_Info@@PAV1@@@QAE@H@Z PROC	; CList<CUndo_Redo_Info *,CUndo_Redo_Info *>::CList<CUndo_Redo_Info *,CUndo_Redo_Info *>, COMDAT
; _this$ = ecx

; 851  : {

  00000	55		 push	 ebp
  00001	8b ec		 mov	 ebp, esp

; 852  : 	ASSERT(nBlockSize > 0);
; 853  : 
; 854  : 	m_nCount = 0;
; 855  : 	m_pNodeHead = m_pNodeTail = m_pNodeFree = NULL;
; 856  : 	m_pBlocks = NULL;
; 857  : 	m_nBlockSize = nBlockSize;

  00003	8b 45 08	 mov	 eax, DWORD PTR _nBlockSize$[ebp]
  00006	89 41 18	 mov	 DWORD PTR [ecx+24], eax

; 858  : }

  00009	8b c1		 mov	 eax, ecx
  0000b	c7 01 00 00 00
	00		 mov	 DWORD PTR [ecx], OFFSET ??_7?$CList@PAVCUndo_Redo_Info@@PAV1@@@6B@
  00011	c7 41 0c 00 00
	00 00		 mov	 DWORD PTR [ecx+12], 0
  00018	c7 41 10 00 00
	00 00		 mov	 DWORD PTR [ecx+16], 0
  0001f	c7 41 08 00 00
	00 00		 mov	 DWORD PTR [ecx+8], 0
  00026	c7 41 04 00 00
	00 00		 mov	 DWORD PTR [ecx+4], 0
  0002d	c7 41 14 00 00
	00 00		 mov	 DWORD PTR [ecx+20], 0
  00034	5d		 pop	 ebp
  00035	c2 04 00	 ret	 4
??0?$CList@PAVCUndo_Redo_Info@@PAV1@@@QAE@H@Z ENDP	; CList<CUndo_Redo_Info *,CUndo_Redo_Info *>::CList<CUndo_Redo_Info *,CUndo_Redo_Info *>
_TEXT	ENDS
; Function compile flags: /Ogtp
; File D:\git\src\IBK\IBK_DRFN\ProjSrc\SrcChartEx\ChartAddIn\ChartAnalysisToolAddIn\Symbol\UndoRedoManager.cpp
; File C:\Program Files (x86)\Microsoft Visual Studio\2019\Community\VC\Tools\MSVC\14.29.30133\atlmfc\include\afxtempl.h
; File D:\git\src\IBK\IBK_DRFN\ProjSrc\SrcChartEx\ChartAddIn\ChartAnalysisToolAddIn\Symbol\UndoRedoManager.cpp
; File C:\Program Files (x86)\Microsoft Visual Studio\2019\Community\VC\Tools\MSVC\14.29.30133\atlmfc\include\afxtempl.h
; File D:\git\src\IBK\IBK_DRFN\ProjSrc\SrcChartEx\ChartAddIn\ChartAnalysisToolAddIn\Symbol\UndoRedoManager.cpp
; File C:\Program Files (x86)\Microsoft Visual Studio\2019\Community\VC\Tools\MSVC\14.29.30133\atlmfc\include\afxtempl.h
; File D:\git\src\IBK\IBK_DRFN\ProjSrc\SrcChartEx\ChartAddIn\ChartAnalysisToolAddIn\Symbol\UndoRedoManager.cpp
;	COMDAT ?DeleteAll@CUndoRedoManager@@QAEXXZ
_TEXT	SEGMENT
$T1 = -8						; size = 4
$T2 = -8						; size = 4
_this$1$ = -4						; size = 4
?DeleteAll@CUndoRedoManager@@QAEXXZ PROC		; CUndoRedoManager::DeleteAll, COMDAT
; _this$ = ecx

; 484  : {

  00000	55		 push	 ebp
  00001	8b ec		 mov	 ebp, esp
  00003	83 ec 08	 sub	 esp, 8
  00006	53		 push	 ebx
  00007	56		 push	 esi
  00008	8b f1		 mov	 esi, ecx
  0000a	57		 push	 edi
  0000b	89 75 fc	 mov	 DWORD PTR _this$1$[ebp], esi

; 485  : 	int nUndoCount = GetUndoListCount();
; 486  : 	int nRedoCount = GetRedoListCount();
; 487  : 
; 488  : 	CUndo_Redo_Info* pUndoRedoInfo = NULL;
; 489  : 	POSITION pos = m_UndoList.GetHeadPosition();

  0000e	8b 5e 08	 mov	 ebx, DWORD PTR [esi+8]

; 490  : 	while(pos)

  00011	85 db		 test	 ebx, ebx
  00013	74 4f		 je	 SHORT $LN3@DeleteAll
$LL2@DeleteAll:

; 494  : 		delete pUndoRedoInfo;

  00015	8b 73 08	 mov	 esi, DWORD PTR [ebx+8]
; File C:\Program Files (x86)\Microsoft Visual Studio\2019\Community\VC\Tools\MSVC\14.29.30133\atlmfc\include\afxtempl.h

; 813  : 		rPosition = (POSITION) pNode->pNext;

  00018	8b 1b		 mov	 ebx, DWORD PTR [ebx]
; File D:\git\src\IBK\IBK_DRFN\ProjSrc\SrcChartEx\ChartAddIn\ChartAnalysisToolAddIn\Symbol\UndoRedoManager.cpp

; 494  : 		delete pUndoRedoInfo;

  0001a	89 75 f8	 mov	 DWORD PTR $T2[ebp], esi
  0001d	85 f6		 test	 esi, esi
  0001f	74 3c		 je	 SHORT $LN14@DeleteAll

; 42   : 	m_strSymbolData.Empty();

  00021	8d 4e 10	 lea	 ecx, DWORD PTR [esi+16]
  00024	c7 06 00 00 00
	00		 mov	 DWORD PTR [esi], 0
  0002a	c7 46 0c 00 00
	00 00		 mov	 DWORD PTR [esi+12], 0
  00031	ff 15 00 00 00
	00		 call	 DWORD PTR __imp_?Empty@?$CSimpleStringT@D$00@ATL@@QAEXXZ

; 43   : 	m_strSymbolData_Prev.Empty();

  00037	8d 4e 14	 lea	 ecx, DWORD PTR [esi+20]
  0003a	ff 15 00 00 00
	00		 call	 DWORD PTR __imp_?Empty@?$CSimpleStringT@D$00@ATL@@QAEXXZ

; 44   : }

  00040	8d 4e 14	 lea	 ecx, DWORD PTR [esi+20]
  00043	ff 15 00 00 00
	00		 call	 DWORD PTR __imp_??1?$CStringT@DV?$StrTraitMFC_DLL@DV?$ChTraitsCRT@D@ATL@@@@@ATL@@QAE@XZ
  00049	8d 4e 10	 lea	 ecx, DWORD PTR [esi+16]
  0004c	ff 15 00 00 00
	00		 call	 DWORD PTR __imp_??1?$CStringT@DV?$StrTraitMFC_DLL@DV?$ChTraitsCRT@D@ATL@@@@@ATL@@QAE@XZ
  00052	6a 18		 push	 24			; 00000018H
  00054	56		 push	 esi
  00055	e8 00 00 00 00	 call	 ??3@YAXPAXI@Z		; operator delete
  0005a	83 c4 08	 add	 esp, 8
$LN14@DeleteAll:

; 490  : 	while(pos)

  0005d	85 db		 test	 ebx, ebx
  0005f	75 b4		 jne	 SHORT $LL2@DeleteAll
  00061	8b 75 fc	 mov	 esi, DWORD PTR _this$1$[ebp]
$LN3@DeleteAll:

; 495  : 		pUndoRedoInfo = NULL;
; 496  : 	}
; 497  : 	pos = m_RedoList.GetHeadPosition();

  00064	8b 5e 24	 mov	 ebx, DWORD PTR [esi+36]

; 498  : 	while(pos)

  00067	85 db		 test	 ebx, ebx
  00069	74 54		 je	 SHORT $LN29@DeleteAll
  0006b	0f 1f 44 00 00	 npad	 5
$LL4@DeleteAll:

; 502  : 		delete pUndoRedoInfo;

  00070	8b 73 08	 mov	 esi, DWORD PTR [ebx+8]
; File C:\Program Files (x86)\Microsoft Visual Studio\2019\Community\VC\Tools\MSVC\14.29.30133\atlmfc\include\afxtempl.h

; 813  : 		rPosition = (POSITION) pNode->pNext;

  00073	8b 1b		 mov	 ebx, DWORD PTR [ebx]
; File D:\git\src\IBK\IBK_DRFN\ProjSrc\SrcChartEx\ChartAddIn\ChartAnalysisToolAddIn\Symbol\UndoRedoManager.cpp

; 502  : 		delete pUndoRedoInfo;

  00075	89 75 f8	 mov	 DWORD PTR $T1[ebp], esi
  00078	85 f6		 test	 esi, esi
  0007a	74 3c		 je	 SHORT $LN22@DeleteAll

; 42   : 	m_strSymbolData.Empty();

  0007c	8d 4e 10	 lea	 ecx, DWORD PTR [esi+16]
  0007f	c7 06 00 00 00
	00		 mov	 DWORD PTR [esi], 0
  00085	c7 46 0c 00 00
	00 00		 mov	 DWORD PTR [esi+12], 0
  0008c	ff 15 00 00 00
	00		 call	 DWORD PTR __imp_?Empty@?$CSimpleStringT@D$00@ATL@@QAEXXZ

; 43   : 	m_strSymbolData_Prev.Empty();

  00092	8d 4e 14	 lea	 ecx, DWORD PTR [esi+20]
  00095	ff 15 00 00 00
	00		 call	 DWORD PTR __imp_?Empty@?$CSimpleStringT@D$00@ATL@@QAEXXZ

; 44   : }

  0009b	8d 4e 14	 lea	 ecx, DWORD PTR [esi+20]
  0009e	ff 15 00 00 00
	00		 call	 DWORD PTR __imp_??1?$CStringT@DV?$StrTraitMFC_DLL@DV?$ChTraitsCRT@D@ATL@@@@@ATL@@QAE@XZ
  000a4	8d 4e 10	 lea	 ecx, DWORD PTR [esi+16]
  000a7	ff 15 00 00 00
	00		 call	 DWORD PTR __imp_??1?$CStringT@DV?$StrTraitMFC_DLL@DV?$ChTraitsCRT@D@ATL@@@@@ATL@@QAE@XZ
  000ad	6a 18		 push	 24			; 00000018H
  000af	56		 push	 esi
  000b0	e8 00 00 00 00	 call	 ??3@YAXPAXI@Z		; operator delete
  000b5	83 c4 08	 add	 esp, 8
$LN22@DeleteAll:

; 498  : 	while(pos)

  000b8	85 db		 test	 ebx, ebx
  000ba	75 b4		 jne	 SHORT $LL4@DeleteAll
  000bc	8b 75 fc	 mov	 esi, DWORD PTR _this$1$[ebp]
$LN29@DeleteAll:
; File C:\Program Files (x86)\Microsoft Visual Studio\2019\Community\VC\Tools\MSVC\14.29.30133\atlmfc\include\afxtempl.h

; 872  : 	m_pBlocks->FreeDataChain();

  000bf	8b 4e 18	 mov	 ecx, DWORD PTR [esi+24]
  000c2	c7 46 10 00 00
	00 00		 mov	 DWORD PTR [esi+16], 0
  000c9	c7 46 14 00 00
	00 00		 mov	 DWORD PTR [esi+20], 0
  000d0	c7 46 0c 00 00
	00 00		 mov	 DWORD PTR [esi+12], 0
  000d7	c7 46 08 00 00
	00 00		 mov	 DWORD PTR [esi+8], 0
  000de	e8 00 00 00 00	 call	 ?FreeDataChain@CPlex@@QAEXXZ ; CPlex::FreeDataChain

; 873  : 	m_pBlocks = NULL;

  000e3	c7 46 18 00 00
	00 00		 mov	 DWORD PTR [esi+24], 0

; 872  : 	m_pBlocks->FreeDataChain();

  000ea	8b 4e 34	 mov	 ecx, DWORD PTR [esi+52]
  000ed	c7 46 2c 00 00
	00 00		 mov	 DWORD PTR [esi+44], 0
  000f4	c7 46 30 00 00
	00 00		 mov	 DWORD PTR [esi+48], 0
  000fb	c7 46 28 00 00
	00 00		 mov	 DWORD PTR [esi+40], 0
  00102	c7 46 24 00 00
	00 00		 mov	 DWORD PTR [esi+36], 0
  00109	e8 00 00 00 00	 call	 ?FreeDataChain@CPlex@@QAEXXZ ; CPlex::FreeDataChain

; 873  : 	m_pBlocks = NULL;

  0010e	5f		 pop	 edi
  0010f	c7 46 34 00 00
	00 00		 mov	 DWORD PTR [esi+52], 0
  00116	5e		 pop	 esi
  00117	5b		 pop	 ebx
; File D:\git\src\IBK\IBK_DRFN\ProjSrc\SrcChartEx\ChartAddIn\ChartAnalysisToolAddIn\Symbol\UndoRedoManager.cpp

; 508  : }

  00118	8b e5		 mov	 esp, ebp
  0011a	5d		 pop	 ebp
  0011b	c3		 ret	 0
?DeleteAll@CUndoRedoManager@@QAEXXZ ENDP		; CUndoRedoManager::DeleteAll
_TEXT	ENDS
; Function compile flags: /Ogtp
; File D:\git\src\IBK\IBK_DRFN\ProjSrc\SrcChartEx\ChartAddIn\ChartAnalysisToolAddIn\Symbol\UndoRedoManager.cpp
;	COMDAT ?GetOrder@CUndoRedoManager@@QBEABVCOrder@@XZ
_TEXT	SEGMENT
?GetOrder@CUndoRedoManager@@QBEABVCOrder@@XZ PROC	; CUndoRedoManager::GetOrder, COMDAT
; _this$ = ecx

; 480  : 	return m_pSymbolData->GetElementTree()->GetOrder();

  00000	8b 09		 mov	 ecx, DWORD PTR [ecx]
  00002	e8 00 00 00 00	 call	 ?GetElementTree@CSymbolData@@QAEPAVCElementTree@@XZ ; CSymbolData::GetElementTree
  00007	8b c8		 mov	 ecx, eax
  00009	e9 00 00 00 00	 jmp	 ?GetOrder@CElementTree@@QAEAAVCOrder@@XZ ; CElementTree::GetOrder
?GetOrder@CUndoRedoManager@@QBEABVCOrder@@XZ ENDP	; CUndoRedoManager::GetOrder
_TEXT	ENDS
; Function compile flags: /Ogtp
; File D:\git\src\IBK\IBK_DRFN\ProjSrc\SrcChartEx\ChartAddIn\ChartAnalysisToolAddIn\Symbol\UndoRedoManager.cpp
;	COMDAT ?GetRedoListCount@CUndoRedoManager@@QAEHXZ
_TEXT	SEGMENT
?GetRedoListCount@CUndoRedoManager@@QAEHXZ PROC		; CUndoRedoManager::GetRedoListCount, COMDAT
; _this$ = ecx

; 475  : 	return m_RedoList.GetCount();

  00000	8b 41 2c	 mov	 eax, DWORD PTR [ecx+44]

; 476  : }

  00003	c3		 ret	 0
?GetRedoListCount@CUndoRedoManager@@QAEHXZ ENDP		; CUndoRedoManager::GetRedoListCount
_TEXT	ENDS
; Function compile flags: /Ogtp
; File D:\git\src\IBK\IBK_DRFN\ProjSrc\SrcChartEx\ChartAddIn\ChartAnalysisToolAddIn\Symbol\UndoRedoManager.cpp
;	COMDAT ?GetUndoListCount@CUndoRedoManager@@QAEHXZ
_TEXT	SEGMENT
?GetUndoListCount@CUndoRedoManager@@QAEHXZ PROC		; CUndoRedoManager::GetUndoListCount, COMDAT
; _this$ = ecx

; 470  : 	return m_UndoList.GetCount();

  00000	8b 41 10	 mov	 eax, DWORD PTR [ecx+16]

; 471  : }

  00003	c3		 ret	 0
?GetUndoListCount@CUndoRedoManager@@QAEHXZ ENDP		; CUndoRedoManager::GetUndoListCount
_TEXT	ENDS
; Function compile flags: /Ogtp
; File D:\git\src\IBK\IBK_DRFN\ProjSrc\SrcChartEx\ChartAddIn\ChartAnalysisToolAddIn\Symbol\UndoRedoManager.cpp
; File C:\Program Files (x86)\Microsoft Visual Studio\2019\Community\VC\Tools\MSVC\14.29.30133\atlmfc\include\afxtempl.h
; File D:\git\src\IBK\IBK_DRFN\ProjSrc\SrcChartEx\ChartAddIn\ChartAnalysisToolAddIn\Symbol\UndoRedoManager.cpp
; File C:\Program Files (x86)\Microsoft Visual Studio\2019\Community\VC\Tools\MSVC\14.29.30133\atlmfc\include\afxtempl.h
; File D:\git\src\IBK\IBK_DRFN\ProjSrc\SrcChartEx\ChartAddIn\ChartAnalysisToolAddIn\Include_Chart\BlockBaseData.h
; File C:\Program Files (x86)\Microsoft Visual Studio\2019\Community\VC\Tools\MSVC\14.29.30133\atlmfc\include\afxtempl.h
; File D:\git\src\IBK\IBK_DRFN\ProjSrc\SrcChartEx\ChartAddIn\ChartAnalysisToolAddIn\Include_Chart\BlockBaseData.h
; File D:\git\src\IBK\IBK_DRFN\ProjSrc\SrcChartEx\ChartAddIn\ChartAnalysisToolAddIn\Symbol\UndoRedoManager.cpp
; File C:\Program Files (x86)\Microsoft Visual Studio\2019\Community\VC\Tools\MSVC\14.29.30133\atlmfc\include\afxtempl.h
; File D:\git\src\IBK\IBK_DRFN\ProjSrc\SrcChartEx\ChartAddIn\ChartAnalysisToolAddIn\Symbol\UndoRedoManager.cpp
;	COMDAT ?GetUndoRedoInfoListOfBlock@CUndoRedoManager@@QAEXABVCBlockIndex@@AAV?$CList@PAVCUndo_Redo_Info@@PAV1@@@@Z
_TEXT	SEGMENT
_blockIndex$ = 8					; size = 4
_undoredoInfoList$ = 12					; size = 4
?GetUndoRedoInfoListOfBlock@CUndoRedoManager@@QAEXABVCBlockIndex@@AAV?$CList@PAVCUndo_Redo_Info@@PAV1@@@@Z PROC ; CUndoRedoManager::GetUndoRedoInfoListOfBlock, COMDAT
; _this$ = ecx

; 452  : {

  00000	55		 push	 ebp
  00001	8b ec		 mov	 ebp, esp
  00003	53		 push	 ebx
; File C:\Program Files (x86)\Microsoft Visual Studio\2019\Community\VC\Tools\MSVC\14.29.30133\atlmfc\include\afxtempl.h

; 870  : 	m_nCount = 0;

  00004	8b 5d 0c	 mov	 ebx, DWORD PTR _undoredoInfoList$[ebp]
; File D:\git\src\IBK\IBK_DRFN\ProjSrc\SrcChartEx\ChartAddIn\ChartAnalysisToolAddIn\Symbol\UndoRedoManager.cpp

; 452  : {

  00007	56		 push	 esi
  00008	8b f1		 mov	 esi, ecx
  0000a	57		 push	 edi
; File C:\Program Files (x86)\Microsoft Visual Studio\2019\Community\VC\Tools\MSVC\14.29.30133\atlmfc\include\afxtempl.h

; 872  : 	m_pBlocks->FreeDataChain();

  0000b	8b 4b 14	 mov	 ecx, DWORD PTR [ebx+20]
  0000e	c7 43 0c 00 00
	00 00		 mov	 DWORD PTR [ebx+12], 0
  00015	c7 43 10 00 00
	00 00		 mov	 DWORD PTR [ebx+16], 0
  0001c	c7 43 08 00 00
	00 00		 mov	 DWORD PTR [ebx+8], 0
  00023	c7 43 04 00 00
	00 00		 mov	 DWORD PTR [ebx+4], 0
  0002a	e8 00 00 00 00	 call	 ?FreeDataChain@CPlex@@QAEXXZ ; CPlex::FreeDataChain
; File D:\git\src\IBK\IBK_DRFN\ProjSrc\SrcChartEx\ChartAddIn\ChartAnalysisToolAddIn\Include_Chart\BlockBaseData.h

; 32   : 	bool IsAllValueBiggerThanZero() const { return (m_nRow >= 0 && m_nColumn >= 0); };

  0002f	8b 7d 08	 mov	 edi, DWORD PTR _blockIndex$[ebp]
; File C:\Program Files (x86)\Microsoft Visual Studio\2019\Community\VC\Tools\MSVC\14.29.30133\atlmfc\include\afxtempl.h

; 873  : 	m_pBlocks = NULL;

  00032	c7 43 14 00 00
	00 00		 mov	 DWORD PTR [ebx+20], 0
; File D:\git\src\IBK\IBK_DRFN\ProjSrc\SrcChartEx\ChartAddIn\ChartAnalysisToolAddIn\Include_Chart\BlockBaseData.h

; 32   : 	bool IsAllValueBiggerThanZero() const { return (m_nRow >= 0 && m_nColumn >= 0); };

  00039	83 3f 00	 cmp	 DWORD PTR [edi], 0
  0003c	7c 32		 jl	 SHORT $LN3@GetUndoRed
  0003e	83 7f 04 00	 cmp	 DWORD PTR [edi+4], 0
  00042	7c 2c		 jl	 SHORT $LN3@GetUndoRed
; File D:\git\src\IBK\IBK_DRFN\ProjSrc\SrcChartEx\ChartAddIn\ChartAnalysisToolAddIn\Symbol\UndoRedoManager.cpp

; 459  : 	while(pos)

  00044	8b 76 08	 mov	 esi, DWORD PTR [esi+8]
  00047	85 f6		 test	 esi, esi
  00049	74 25		 je	 SHORT $LN3@GetUndoRed
  0004b	0f 1f 44 00 00	 npad	 5
$LL2@GetUndoRed:

; 460  : 	{
; 461  : 		pUndoRedoInfo = m_UndoList.GetNext(pos);

  00050	8b 4e 08	 mov	 ecx, DWORD PTR [esi+8]
; File C:\Program Files (x86)\Microsoft Visual Studio\2019\Community\VC\Tools\MSVC\14.29.30133\atlmfc\include\afxtempl.h

; 813  : 		rPosition = (POSITION) pNode->pNext;

  00053	8b 36		 mov	 esi, DWORD PTR [esi]
; File D:\git\src\IBK\IBK_DRFN\ProjSrc\SrcChartEx\ChartAddIn\ChartAnalysisToolAddIn\Symbol\UndoRedoManager.cpp

; 68   : 	if( m_blockIndex.GetColumn() == blockIndex.GetColumn() && 

  00055	8b 41 08	 mov	 eax, DWORD PTR [ecx+8]
  00058	3b 47 04	 cmp	 eax, DWORD PTR [edi+4]
  0005b	75 0f		 jne	 SHORT $LN5@GetUndoRed
  0005d	8b 41 04	 mov	 eax, DWORD PTR [ecx+4]
  00060	3b 07		 cmp	 eax, DWORD PTR [edi]
  00062	75 08		 jne	 SHORT $LN5@GetUndoRed

; 462  : 		assert(pUndoRedoInfo != NULL);
; 463  : 		if(pUndoRedoInfo->IsSameBlockIndex(blockIndex))
; 464  : 			undoredoInfoList.AddTail(pUndoRedoInfo);

  00064	51		 push	 ecx
  00065	8b cb		 mov	 ecx, ebx
  00067	e8 00 00 00 00	 call	 ?AddTail@?$CList@PAVCUndo_Redo_Info@@PAV1@@@QAEPAU__POSITION@@PAVCUndo_Redo_Info@@@Z ; CList<CUndo_Redo_Info *,CUndo_Redo_Info *>::AddTail
$LN5@GetUndoRed:

; 459  : 	while(pos)

  0006c	85 f6		 test	 esi, esi
  0006e	75 e0		 jne	 SHORT $LL2@GetUndoRed
$LN3@GetUndoRed:
  00070	5f		 pop	 edi

; 465  : 	}
; 466  : }

  00071	5e		 pop	 esi
  00072	5b		 pop	 ebx
  00073	5d		 pop	 ebp
  00074	c2 08 00	 ret	 8
?GetUndoRedoInfoListOfBlock@CUndoRedoManager@@QAEXABVCBlockIndex@@AAV?$CList@PAVCUndo_Redo_Info@@PAV1@@@@Z ENDP ; CUndoRedoManager::GetUndoRedoInfoListOfBlock
_TEXT	ENDS
; Function compile flags: /Ogtp
; File D:\git\src\IBK\IBK_DRFN\ProjSrc\SrcChartEx\ChartAddIn\ChartAnalysisToolAddIn\Symbol\UndoRedoManager.cpp
; File C:\Program Files (x86)\Microsoft Visual Studio\2019\Community\VC\Tools\MSVC\14.29.30133\atlmfc\include\afxtempl.h
; File D:\git\src\IBK\IBK_DRFN\ProjSrc\SrcChartEx\ChartAddIn\ChartAnalysisToolAddIn\Symbol\UndoRedoManager.cpp
; File C:\Program Files (x86)\Microsoft Visual Studio\2019\Community\VC\Tools\MSVC\14.29.30133\atlmfc\include\afxtempl.h
; File D:\git\src\IBK\IBK_DRFN\ProjSrc\SrcChartEx\ChartAddIn\ChartAnalysisToolAddIn\Symbol\UndoRedoManager.cpp
; File C:\Program Files (x86)\Microsoft Visual Studio\2019\Community\VC\Tools\MSVC\14.29.30133\atlmfc\include\afxtempl.h
; File D:\git\src\IBK\IBK_DRFN\ProjSrc\SrcChartEx\ChartAddIn\ChartAnalysisToolAddIn\Symbol\UndoRedoManager.cpp
; File C:\Program Files (x86)\Microsoft Visual Studio\2019\Community\VC\Tools\MSVC\14.29.30133\atlmfc\include\afxtempl.h
; File D:\git\src\IBK\IBK_DRFN\ProjSrc\SrcChartEx\ChartAddIn\ChartAnalysisToolAddIn\Symbol\UndoRedoManager.cpp
;	COMDAT ?RedoElement@CUndoRedoManager@@QAEHJ@Z
_TEXT	SEGMENT
_lRedoID$ = 8						; size = 4
?RedoElement@CUndoRedoManager@@QAEHJ@Z PROC		; CUndoRedoManager::RedoElement, COMDAT
; _this$ = ecx

; 436  : {

  00000	55		 push	 ebp
  00001	8b ec		 mov	 ebp, esp
  00003	56		 push	 esi

; 437  : 	if(lRedoID <= 0 || GetRedoListCount() <= 0)

  00004	8b 75 08	 mov	 esi, DWORD PTR _lRedoID$[ebp]
  00007	57		 push	 edi
  00008	8b f9		 mov	 edi, ecx
  0000a	85 f6		 test	 esi, esi
  0000c	7e 1d		 jle	 SHORT $LN3@RedoElemen
  0000e	83 7f 2c 00	 cmp	 DWORD PTR [edi+44], 0
  00012	7e 17		 jle	 SHORT $LN3@RedoElemen

; 407  : 	POSITION pos = m_RedoList.GetHeadPosition();

  00014	8b 57 24	 mov	 edx, DWORD PTR [edi+36]

; 408  : 	while(pos)

  00017	85 d2		 test	 edx, edx
  00019	74 10		 je	 SHORT $LN3@RedoElemen
  0001b	0f 1f 44 00 00	 npad	 5
$LL7@RedoElemen:

; 412  : 		if(pUndoRedoInfo == (CUndo_Redo_Info*)lUndoRedoInfo)

  00020	39 72 08	 cmp	 DWORD PTR [edx+8], esi
; File C:\Program Files (x86)\Microsoft Visual Studio\2019\Community\VC\Tools\MSVC\14.29.30133\atlmfc\include\afxtempl.h

; 813  : 		rPosition = (POSITION) pNode->pNext;

  00023	8b 12		 mov	 edx, DWORD PTR [edx]
; File D:\git\src\IBK\IBK_DRFN\ProjSrc\SrcChartEx\ChartAddIn\ChartAnalysisToolAddIn\Symbol\UndoRedoManager.cpp

; 412  : 		if(pUndoRedoInfo == (CUndo_Redo_Info*)lUndoRedoInfo)

  00025	74 0c		 je	 SHORT $LN29@RedoElemen

; 408  : 	while(pos)

  00027	85 d2		 test	 edx, edx
  00029	75 f5		 jne	 SHORT $LL7@RedoElemen
$LN3@RedoElemen:
  0002b	5f		 pop	 edi

; 438  : 		return FALSE;

  0002c	33 c0		 xor	 eax, eax

; 449  : }

  0002e	5e		 pop	 esi
  0002f	5d		 pop	 ebp
  00030	c2 04 00	 ret	 4
$LN29@RedoElemen:

; 439  : 
; 440  : 	// Redo 
; 441  : 	if(CheckRedoList(lRedoID))
; 442  : 	{
; 443  : 		ChangeRedoInfo(lRedoID);

  00033	56		 push	 esi
  00034	e8 00 00 00 00	 call	 ?ChangeRedoInfo@CUndoRedoManager@@QAEHJ@Z ; CUndoRedoManager::ChangeRedoInfo
; File C:\Program Files (x86)\Microsoft Visual Studio\2019\Community\VC\Tools\MSVC\14.29.30133\atlmfc\include\afxtempl.h

; 797  : 	{ ENSURE(m_pNodeTail != NULL);

  00039	8b 47 28	 mov	 eax, DWORD PTR [edi+40]
; File D:\git\src\IBK\IBK_DRFN\ProjSrc\SrcChartEx\ChartAddIn\ChartAnalysisToolAddIn\Symbol\UndoRedoManager.cpp

; 367  : 	if(pUndoRedoInfo != m_RedoList.GetTail())

  0003c	8d 4f 20	 lea	 ecx, DWORD PTR [edi+32]
; File C:\Program Files (x86)\Microsoft Visual Studio\2019\Community\VC\Tools\MSVC\14.29.30133\atlmfc\include\afxtempl.h

; 797  : 	{ ENSURE(m_pNodeTail != NULL);

  0003f	85 c0		 test	 eax, eax
  00041	74 1e		 je	 SHORT $LN32@RedoElemen
; File D:\git\src\IBK\IBK_DRFN\ProjSrc\SrcChartEx\ChartAddIn\ChartAnalysisToolAddIn\Symbol\UndoRedoManager.cpp

; 367  : 	if(pUndoRedoInfo != m_RedoList.GetTail())

  00043	3b 70 08	 cmp	 esi, DWORD PTR [eax+8]
  00046	75 0e		 jne	 SHORT $LN14@RedoElemen

; 368  : 		return;
; 369  : 
; 370  : 	m_RedoList.RemoveTail();

  00048	e8 00 00 00 00	 call	 ?RemoveTail@?$CList@PAVCUndo_Redo_Info@@PAV1@@@QAEPAVCUndo_Redo_Info@@XZ ; CList<CUndo_Redo_Info *,CUndo_Redo_Info *>::RemoveTail

; 371  : 	m_UndoList.AddTail(pUndoRedoInfo);

  0004d	56		 push	 esi
  0004e	8d 4f 04	 lea	 ecx, DWORD PTR [edi+4]
  00051	e8 00 00 00 00	 call	 ?AddTail@?$CList@PAVCUndo_Redo_Info@@PAV1@@@QAEPAU__POSITION@@PAVCUndo_Redo_Info@@@Z ; CList<CUndo_Redo_Info *,CUndo_Redo_Info *>::AddTail
$LN14@RedoElemen:
  00056	5f		 pop	 edi

; 444  : 		MoveToUndoList((CUndo_Redo_Info*)lRedoID);
; 445  : 		return TRUE;

  00057	b8 01 00 00 00	 mov	 eax, 1

; 449  : }

  0005c	5e		 pop	 esi
  0005d	5d		 pop	 ebp
  0005e	c2 04 00	 ret	 4
$LN32@RedoElemen:
; File C:\Program Files (x86)\Microsoft Visual Studio\2019\Community\VC\Tools\MSVC\14.29.30133\atlmfc\include\afxtempl.h

; 797  : 	{ ENSURE(m_pNodeTail != NULL);

  00061	e8 00 00 00 00	 call	 ?AfxThrowInvalidArgException@@YGXXZ ; AfxThrowInvalidArgException
$LN30@RedoElemen:
  00066	cc		 int	 3
?RedoElement@CUndoRedoManager@@QAEHJ@Z ENDP		; CUndoRedoManager::RedoElement
_TEXT	ENDS
; Function compile flags: /Ogtp
; File D:\git\src\IBK\IBK_DRFN\ProjSrc\SrcChartEx\ChartAddIn\ChartAnalysisToolAddIn\Symbol\UndoRedoManager.cpp
; File C:\Program Files (x86)\Microsoft Visual Studio\2019\Community\VC\Tools\MSVC\14.29.30133\atlmfc\include\afxtempl.h
; File D:\git\src\IBK\IBK_DRFN\ProjSrc\SrcChartEx\ChartAddIn\ChartAnalysisToolAddIn\Symbol\UndoRedoManager.cpp
; File C:\Program Files (x86)\Microsoft Visual Studio\2019\Community\VC\Tools\MSVC\14.29.30133\atlmfc\include\afxtempl.h
; File D:\git\src\IBK\IBK_DRFN\ProjSrc\SrcChartEx\ChartAddIn\ChartAnalysisToolAddIn\Symbol\UndoRedoManager.cpp
; File C:\Program Files (x86)\Microsoft Visual Studio\2019\Community\VC\Tools\MSVC\14.29.30133\atlmfc\include\afxtempl.h
; File D:\git\src\IBK\IBK_DRFN\ProjSrc\SrcChartEx\ChartAddIn\ChartAnalysisToolAddIn\Symbol\UndoRedoManager.cpp
; File C:\Program Files (x86)\Microsoft Visual Studio\2019\Community\VC\Tools\MSVC\14.29.30133\atlmfc\include\afxtempl.h
; File D:\git\src\IBK\IBK_DRFN\ProjSrc\SrcChartEx\ChartAddIn\ChartAnalysisToolAddIn\Symbol\UndoRedoManager.cpp
;	COMDAT ?UndoElement@CUndoRedoManager@@QAEHJ@Z
_TEXT	SEGMENT
_lUndoID$ = 8						; size = 4
?UndoElement@CUndoRedoManager@@QAEHJ@Z PROC		; CUndoRedoManager::UndoElement, COMDAT
; _this$ = ecx

; 420  : {

  00000	55		 push	 ebp
  00001	8b ec		 mov	 ebp, esp
  00003	56		 push	 esi

; 421  : 	if(lUndoID <= 0 || GetUndoListCount() <= 0)

  00004	8b 75 08	 mov	 esi, DWORD PTR _lUndoID$[ebp]
  00007	57		 push	 edi
  00008	8b f9		 mov	 edi, ecx
  0000a	85 f6		 test	 esi, esi
  0000c	7e 1d		 jle	 SHORT $LN3@UndoElemen
  0000e	83 7f 10 00	 cmp	 DWORD PTR [edi+16], 0
  00012	7e 17		 jle	 SHORT $LN3@UndoElemen

; 389  : 	POSITION pos = m_UndoList.GetHeadPosition();

  00014	8b 57 08	 mov	 edx, DWORD PTR [edi+8]

; 390  : 	while(pos)

  00017	85 d2		 test	 edx, edx
  00019	74 10		 je	 SHORT $LN3@UndoElemen
  0001b	0f 1f 44 00 00	 npad	 5
$LL7@UndoElemen:

; 394  : 		if(pUndoRedoInfo == (CUndo_Redo_Info*)lUndoRedoInfo)

  00020	39 72 08	 cmp	 DWORD PTR [edx+8], esi
; File C:\Program Files (x86)\Microsoft Visual Studio\2019\Community\VC\Tools\MSVC\14.29.30133\atlmfc\include\afxtempl.h

; 813  : 		rPosition = (POSITION) pNode->pNext;

  00023	8b 12		 mov	 edx, DWORD PTR [edx]
; File D:\git\src\IBK\IBK_DRFN\ProjSrc\SrcChartEx\ChartAddIn\ChartAnalysisToolAddIn\Symbol\UndoRedoManager.cpp

; 394  : 		if(pUndoRedoInfo == (CUndo_Redo_Info*)lUndoRedoInfo)

  00025	74 0c		 je	 SHORT $LN29@UndoElemen

; 390  : 	while(pos)

  00027	85 d2		 test	 edx, edx
  00029	75 f5		 jne	 SHORT $LL7@UndoElemen
$LN3@UndoElemen:
  0002b	5f		 pop	 edi

; 422  : 		return FALSE;

  0002c	33 c0		 xor	 eax, eax

; 433  : }

  0002e	5e		 pop	 esi
  0002f	5d		 pop	 ebp
  00030	c2 04 00	 ret	 4
$LN29@UndoElemen:

; 423  : 
; 424  : 	// Undo 
; 425  : 	if(CheckUndoList(lUndoID))
; 426  : 	{
; 427  : 		ChangeUndoInfo(lUndoID);

  00033	56		 push	 esi
  00034	e8 00 00 00 00	 call	 ?ChangeUndoInfo@CUndoRedoManager@@QAEHJ@Z ; CUndoRedoManager::ChangeUndoInfo
; File C:\Program Files (x86)\Microsoft Visual Studio\2019\Community\VC\Tools\MSVC\14.29.30133\atlmfc\include\afxtempl.h

; 797  : 	{ ENSURE(m_pNodeTail != NULL);

  00039	8b 47 0c	 mov	 eax, DWORD PTR [edi+12]
; File D:\git\src\IBK\IBK_DRFN\ProjSrc\SrcChartEx\ChartAddIn\ChartAnalysisToolAddIn\Symbol\UndoRedoManager.cpp

; 376  : 	if(pUndoRedoInfo != m_UndoList.GetTail())

  0003c	8d 4f 04	 lea	 ecx, DWORD PTR [edi+4]
; File C:\Program Files (x86)\Microsoft Visual Studio\2019\Community\VC\Tools\MSVC\14.29.30133\atlmfc\include\afxtempl.h

; 797  : 	{ ENSURE(m_pNodeTail != NULL);

  0003f	85 c0		 test	 eax, eax
  00041	74 1e		 je	 SHORT $LN32@UndoElemen
; File D:\git\src\IBK\IBK_DRFN\ProjSrc\SrcChartEx\ChartAddIn\ChartAnalysisToolAddIn\Symbol\UndoRedoManager.cpp

; 376  : 	if(pUndoRedoInfo != m_UndoList.GetTail())

  00043	3b 70 08	 cmp	 esi, DWORD PTR [eax+8]
  00046	75 0e		 jne	 SHORT $LN14@UndoElemen

; 377  : 		return;
; 378  : 
; 379  : 	m_UndoList.RemoveTail();

  00048	e8 00 00 00 00	 call	 ?RemoveTail@?$CList@PAVCUndo_Redo_Info@@PAV1@@@QAEPAVCUndo_Redo_Info@@XZ ; CList<CUndo_Redo_Info *,CUndo_Redo_Info *>::RemoveTail

; 380  : 	m_RedoList.AddTail(pUndoRedoInfo);

  0004d	56		 push	 esi
  0004e	8d 4f 20	 lea	 ecx, DWORD PTR [edi+32]
  00051	e8 00 00 00 00	 call	 ?AddTail@?$CList@PAVCUndo_Redo_Info@@PAV1@@@QAEPAU__POSITION@@PAVCUndo_Redo_Info@@@Z ; CList<CUndo_Redo_Info *,CUndo_Redo_Info *>::AddTail
$LN14@UndoElemen:
  00056	5f		 pop	 edi

; 428  : 		MoveToRedoList((CUndo_Redo_Info*)lUndoID);
; 429  : 		return TRUE;

  00057	b8 01 00 00 00	 mov	 eax, 1

; 433  : }

  0005c	5e		 pop	 esi
  0005d	5d		 pop	 ebp
  0005e	c2 04 00	 ret	 4
$LN32@UndoElemen:
; File C:\Program Files (x86)\Microsoft Visual Studio\2019\Community\VC\Tools\MSVC\14.29.30133\atlmfc\include\afxtempl.h

; 797  : 	{ ENSURE(m_pNodeTail != NULL);

  00061	e8 00 00 00 00	 call	 ?AfxThrowInvalidArgException@@YGXXZ ; AfxThrowInvalidArgException
$LN30@UndoElemen:
  00066	cc		 int	 3
?UndoElement@CUndoRedoManager@@QAEHJ@Z ENDP		; CUndoRedoManager::UndoElement
_TEXT	ENDS
; Function compile flags: /Ogtp
; File D:\git\src\IBK\IBK_DRFN\ProjSrc\SrcChartEx\ChartAddIn\ChartAnalysisToolAddIn\Symbol\UndoRedoManager.cpp
; File C:\Program Files (x86)\Microsoft Visual Studio\2019\Community\VC\Tools\MSVC\14.29.30133\atlmfc\include\afxtempl.h
; File D:\git\src\IBK\IBK_DRFN\ProjSrc\SrcChartEx\ChartAddIn\ChartAnalysisToolAddIn\Symbol\UndoRedoManager.cpp
;	COMDAT ?CheckRedoList@CUndoRedoManager@@QAEHJ@Z
_TEXT	SEGMENT
_lUndoRedoInfo$ = 8					; size = 4
?CheckRedoList@CUndoRedoManager@@QAEHJ@Z PROC		; CUndoRedoManager::CheckRedoList, COMDAT
; _this$ = ecx

; 402  : {

  00000	55		 push	 ebp
  00001	8b ec		 mov	 ebp, esp

; 403  : 	if(lUndoRedoInfo == NULL)

  00003	8b 55 08	 mov	 edx, DWORD PTR _lUndoRedoInfo$[ebp]
  00006	85 d2		 test	 edx, edx
  00008	74 12		 je	 SHORT $LN3@CheckRedoL

; 404  : 		return FALSE;
; 405  : 
; 406  : 	CUndo_Redo_Info* pUndoRedoInfo = NULL;
; 407  : 	POSITION pos = m_RedoList.GetHeadPosition();

  0000a	8b 49 24	 mov	 ecx, DWORD PTR [ecx+36]

; 408  : 	while(pos)

  0000d	85 c9		 test	 ecx, ecx
  0000f	74 0b		 je	 SHORT $LN3@CheckRedoL
$LL2@CheckRedoL:

; 412  : 		if(pUndoRedoInfo == (CUndo_Redo_Info*)lUndoRedoInfo)

  00011	39 51 08	 cmp	 DWORD PTR [ecx+8], edx
; File C:\Program Files (x86)\Microsoft Visual Studio\2019\Community\VC\Tools\MSVC\14.29.30133\atlmfc\include\afxtempl.h

; 813  : 		rPosition = (POSITION) pNode->pNext;

  00014	8b 09		 mov	 ecx, DWORD PTR [ecx]
; File D:\git\src\IBK\IBK_DRFN\ProjSrc\SrcChartEx\ChartAddIn\ChartAnalysisToolAddIn\Symbol\UndoRedoManager.cpp

; 412  : 		if(pUndoRedoInfo == (CUndo_Redo_Info*)lUndoRedoInfo)

  00016	74 0a		 je	 SHORT $LN10@CheckRedoL

; 408  : 	while(pos)

  00018	85 c9		 test	 ecx, ecx
  0001a	75 f5		 jne	 SHORT $LL2@CheckRedoL
$LN3@CheckRedoL:

; 414  : 	}
; 415  : 
; 416  : 	return FALSE;

  0001c	33 c0		 xor	 eax, eax

; 417  : }

  0001e	5d		 pop	 ebp
  0001f	c2 04 00	 ret	 4
$LN10@CheckRedoL:

; 413  : 			return TRUE;

  00022	b8 01 00 00 00	 mov	 eax, 1

; 417  : }

  00027	5d		 pop	 ebp
  00028	c2 04 00	 ret	 4
?CheckRedoList@CUndoRedoManager@@QAEHJ@Z ENDP		; CUndoRedoManager::CheckRedoList
_TEXT	ENDS
; Function compile flags: /Ogtp
; File D:\git\src\IBK\IBK_DRFN\ProjSrc\SrcChartEx\ChartAddIn\ChartAnalysisToolAddIn\Symbol\UndoRedoManager.cpp
; File C:\Program Files (x86)\Microsoft Visual Studio\2019\Community\VC\Tools\MSVC\14.29.30133\atlmfc\include\afxtempl.h
; File D:\git\src\IBK\IBK_DRFN\ProjSrc\SrcChartEx\ChartAddIn\ChartAnalysisToolAddIn\Symbol\UndoRedoManager.cpp
;	COMDAT ?CheckUndoList@CUndoRedoManager@@QAEHJ@Z
_TEXT	SEGMENT
_lUndoRedoInfo$ = 8					; size = 4
?CheckUndoList@CUndoRedoManager@@QAEHJ@Z PROC		; CUndoRedoManager::CheckUndoList, COMDAT
; _this$ = ecx

; 384  : {

  00000	55		 push	 ebp
  00001	8b ec		 mov	 ebp, esp

; 385  : 	if(lUndoRedoInfo == NULL)

  00003	8b 55 08	 mov	 edx, DWORD PTR _lUndoRedoInfo$[ebp]
  00006	85 d2		 test	 edx, edx
  00008	74 12		 je	 SHORT $LN3@CheckUndoL

; 386  : 		return FALSE;
; 387  : 
; 388  : 	CUndo_Redo_Info* pUndoRedoInfo = NULL;
; 389  : 	POSITION pos = m_UndoList.GetHeadPosition();

  0000a	8b 49 08	 mov	 ecx, DWORD PTR [ecx+8]

; 390  : 	while(pos)

  0000d	85 c9		 test	 ecx, ecx
  0000f	74 0b		 je	 SHORT $LN3@CheckUndoL
$LL2@CheckUndoL:

; 394  : 		if(pUndoRedoInfo == (CUndo_Redo_Info*)lUndoRedoInfo)

  00011	39 51 08	 cmp	 DWORD PTR [ecx+8], edx
; File C:\Program Files (x86)\Microsoft Visual Studio\2019\Community\VC\Tools\MSVC\14.29.30133\atlmfc\include\afxtempl.h

; 813  : 		rPosition = (POSITION) pNode->pNext;

  00014	8b 09		 mov	 ecx, DWORD PTR [ecx]
; File D:\git\src\IBK\IBK_DRFN\ProjSrc\SrcChartEx\ChartAddIn\ChartAnalysisToolAddIn\Symbol\UndoRedoManager.cpp

; 394  : 		if(pUndoRedoInfo == (CUndo_Redo_Info*)lUndoRedoInfo)

  00016	74 0a		 je	 SHORT $LN10@CheckUndoL

; 390  : 	while(pos)

  00018	85 c9		 test	 ecx, ecx
  0001a	75 f5		 jne	 SHORT $LL2@CheckUndoL
$LN3@CheckUndoL:

; 396  : 	}
; 397  : 
; 398  : 	return FALSE;

  0001c	33 c0		 xor	 eax, eax

; 399  : }

  0001e	5d		 pop	 ebp
  0001f	c2 04 00	 ret	 4
$LN10@CheckUndoL:

; 395  : 			return TRUE;

  00022	b8 01 00 00 00	 mov	 eax, 1

; 399  : }

  00027	5d		 pop	 ebp
  00028	c2 04 00	 ret	 4
?CheckUndoList@CUndoRedoManager@@QAEHJ@Z ENDP		; CUndoRedoManager::CheckUndoList
_TEXT	ENDS
; Function compile flags: /Ogtp
; File D:\git\src\IBK\IBK_DRFN\ProjSrc\SrcChartEx\ChartAddIn\ChartAnalysisToolAddIn\Symbol\UndoRedoManager.cpp
; File C:\Program Files (x86)\Microsoft Visual Studio\2019\Community\VC\Tools\MSVC\14.29.30133\atlmfc\include\afxtempl.h
; File D:\git\src\IBK\IBK_DRFN\ProjSrc\SrcChartEx\ChartAddIn\ChartAnalysisToolAddIn\Symbol\UndoRedoManager.cpp
; File C:\Program Files (x86)\Microsoft Visual Studio\2019\Community\VC\Tools\MSVC\14.29.30133\atlmfc\include\afxtempl.h
; File D:\git\src\IBK\IBK_DRFN\ProjSrc\SrcChartEx\ChartAddIn\ChartAnalysisToolAddIn\Symbol\UndoRedoManager.cpp
; File C:\Program Files (x86)\Microsoft Visual Studio\2019\Community\VC\Tools\MSVC\14.29.30133\atlmfc\include\afxtempl.h
; File D:\git\src\IBK\IBK_DRFN\ProjSrc\SrcChartEx\ChartAddIn\ChartAnalysisToolAddIn\Symbol\UndoRedoManager.cpp
;	COMDAT ?MoveToRedoList@CUndoRedoManager@@QAEXPAVCUndo_Redo_Info@@@Z
_TEXT	SEGMENT
_pUndoRedoInfo$ = 8					; size = 4
?MoveToRedoList@CUndoRedoManager@@QAEXPAVCUndo_Redo_Info@@@Z PROC ; CUndoRedoManager::MoveToRedoList, COMDAT
; _this$ = ecx

; 375  : {

  00000	55		 push	 ebp
  00001	8b ec		 mov	 ebp, esp
  00003	56		 push	 esi
  00004	8b f1		 mov	 esi, ecx
  00006	57		 push	 edi
; File C:\Program Files (x86)\Microsoft Visual Studio\2019\Community\VC\Tools\MSVC\14.29.30133\atlmfc\include\afxtempl.h

; 797  : 	{ ENSURE(m_pNodeTail != NULL);

  00007	8b 46 0c	 mov	 eax, DWORD PTR [esi+12]
; File D:\git\src\IBK\IBK_DRFN\ProjSrc\SrcChartEx\ChartAddIn\ChartAnalysisToolAddIn\Symbol\UndoRedoManager.cpp

; 376  : 	if(pUndoRedoInfo != m_UndoList.GetTail())

  0000a	8d 4e 04	 lea	 ecx, DWORD PTR [esi+4]
; File C:\Program Files (x86)\Microsoft Visual Studio\2019\Community\VC\Tools\MSVC\14.29.30133\atlmfc\include\afxtempl.h

; 797  : 	{ ENSURE(m_pNodeTail != NULL);

  0000d	85 c0		 test	 eax, eax
  0000f	74 1c		 je	 SHORT $LN13@MoveToRedo
; File D:\git\src\IBK\IBK_DRFN\ProjSrc\SrcChartEx\ChartAddIn\ChartAnalysisToolAddIn\Symbol\UndoRedoManager.cpp

; 376  : 	if(pUndoRedoInfo != m_UndoList.GetTail())

  00011	8b 7d 08	 mov	 edi, DWORD PTR _pUndoRedoInfo$[ebp]
  00014	3b 78 08	 cmp	 edi, DWORD PTR [eax+8]
  00017	75 0e		 jne	 SHORT $LN1@MoveToRedo

; 377  : 		return;
; 378  : 
; 379  : 	m_UndoList.RemoveTail();

  00019	e8 00 00 00 00	 call	 ?RemoveTail@?$CList@PAVCUndo_Redo_Info@@PAV1@@@QAEPAVCUndo_Redo_Info@@XZ ; CList<CUndo_Redo_Info *,CUndo_Redo_Info *>::RemoveTail

; 380  : 	m_RedoList.AddTail(pUndoRedoInfo);

  0001e	57		 push	 edi
  0001f	8d 4e 20	 lea	 ecx, DWORD PTR [esi+32]
  00022	e8 00 00 00 00	 call	 ?AddTail@?$CList@PAVCUndo_Redo_Info@@PAV1@@@QAEPAU__POSITION@@PAVCUndo_Redo_Info@@@Z ; CList<CUndo_Redo_Info *,CUndo_Redo_Info *>::AddTail
$LN1@MoveToRedo:

; 381  : }

  00027	5f		 pop	 edi
  00028	5e		 pop	 esi
  00029	5d		 pop	 ebp
  0002a	c2 04 00	 ret	 4
$LN13@MoveToRedo:
; File C:\Program Files (x86)\Microsoft Visual Studio\2019\Community\VC\Tools\MSVC\14.29.30133\atlmfc\include\afxtempl.h

; 797  : 	{ ENSURE(m_pNodeTail != NULL);

  0002d	e8 00 00 00 00	 call	 ?AfxThrowInvalidArgException@@YGXXZ ; AfxThrowInvalidArgException
$LN11@MoveToRedo:
  00032	cc		 int	 3
?MoveToRedoList@CUndoRedoManager@@QAEXPAVCUndo_Redo_Info@@@Z ENDP ; CUndoRedoManager::MoveToRedoList
_TEXT	ENDS
; Function compile flags: /Ogtp
; File D:\git\src\IBK\IBK_DRFN\ProjSrc\SrcChartEx\ChartAddIn\ChartAnalysisToolAddIn\Symbol\UndoRedoManager.cpp
; File C:\Program Files (x86)\Microsoft Visual Studio\2019\Community\VC\Tools\MSVC\14.29.30133\atlmfc\include\afxtempl.h
; File D:\git\src\IBK\IBK_DRFN\ProjSrc\SrcChartEx\ChartAddIn\ChartAnalysisToolAddIn\Symbol\UndoRedoManager.cpp
; File C:\Program Files (x86)\Microsoft Visual Studio\2019\Community\VC\Tools\MSVC\14.29.30133\atlmfc\include\afxtempl.h
; File D:\git\src\IBK\IBK_DRFN\ProjSrc\SrcChartEx\ChartAddIn\ChartAnalysisToolAddIn\Symbol\UndoRedoManager.cpp
; File C:\Program Files (x86)\Microsoft Visual Studio\2019\Community\VC\Tools\MSVC\14.29.30133\atlmfc\include\afxtempl.h
; File D:\git\src\IBK\IBK_DRFN\ProjSrc\SrcChartEx\ChartAddIn\ChartAnalysisToolAddIn\Symbol\UndoRedoManager.cpp
;	COMDAT ?MoveToUndoList@CUndoRedoManager@@QAEXPAVCUndo_Redo_Info@@@Z
_TEXT	SEGMENT
_pUndoRedoInfo$ = 8					; size = 4
?MoveToUndoList@CUndoRedoManager@@QAEXPAVCUndo_Redo_Info@@@Z PROC ; CUndoRedoManager::MoveToUndoList, COMDAT
; _this$ = ecx

; 366  : {

  00000	55		 push	 ebp
  00001	8b ec		 mov	 ebp, esp
  00003	56		 push	 esi
  00004	8b f1		 mov	 esi, ecx
  00006	57		 push	 edi
; File C:\Program Files (x86)\Microsoft Visual Studio\2019\Community\VC\Tools\MSVC\14.29.30133\atlmfc\include\afxtempl.h

; 797  : 	{ ENSURE(m_pNodeTail != NULL);

  00007	8b 46 28	 mov	 eax, DWORD PTR [esi+40]
; File D:\git\src\IBK\IBK_DRFN\ProjSrc\SrcChartEx\ChartAddIn\ChartAnalysisToolAddIn\Symbol\UndoRedoManager.cpp

; 367  : 	if(pUndoRedoInfo != m_RedoList.GetTail())

  0000a	8d 4e 20	 lea	 ecx, DWORD PTR [esi+32]
; File C:\Program Files (x86)\Microsoft Visual Studio\2019\Community\VC\Tools\MSVC\14.29.30133\atlmfc\include\afxtempl.h

; 797  : 	{ ENSURE(m_pNodeTail != NULL);

  0000d	85 c0		 test	 eax, eax
  0000f	74 1c		 je	 SHORT $LN13@MoveToUndo
; File D:\git\src\IBK\IBK_DRFN\ProjSrc\SrcChartEx\ChartAddIn\ChartAnalysisToolAddIn\Symbol\UndoRedoManager.cpp

; 367  : 	if(pUndoRedoInfo != m_RedoList.GetTail())

  00011	8b 7d 08	 mov	 edi, DWORD PTR _pUndoRedoInfo$[ebp]
  00014	3b 78 08	 cmp	 edi, DWORD PTR [eax+8]
  00017	75 0e		 jne	 SHORT $LN1@MoveToUndo

; 368  : 		return;
; 369  : 
; 370  : 	m_RedoList.RemoveTail();

  00019	e8 00 00 00 00	 call	 ?RemoveTail@?$CList@PAVCUndo_Redo_Info@@PAV1@@@QAEPAVCUndo_Redo_Info@@XZ ; CList<CUndo_Redo_Info *,CUndo_Redo_Info *>::RemoveTail

; 371  : 	m_UndoList.AddTail(pUndoRedoInfo);

  0001e	57		 push	 edi
  0001f	8d 4e 04	 lea	 ecx, DWORD PTR [esi+4]
  00022	e8 00 00 00 00	 call	 ?AddTail@?$CList@PAVCUndo_Redo_Info@@PAV1@@@QAEPAU__POSITION@@PAVCUndo_Redo_Info@@@Z ; CList<CUndo_Redo_Info *,CUndo_Redo_Info *>::AddTail
$LN1@MoveToUndo:

; 372  : }

  00027	5f		 pop	 edi
  00028	5e		 pop	 esi
  00029	5d		 pop	 ebp
  0002a	c2 04 00	 ret	 4
$LN13@MoveToUndo:
; File C:\Program Files (x86)\Microsoft Visual Studio\2019\Community\VC\Tools\MSVC\14.29.30133\atlmfc\include\afxtempl.h

; 797  : 	{ ENSURE(m_pNodeTail != NULL);

  0002d	e8 00 00 00 00	 call	 ?AfxThrowInvalidArgException@@YGXXZ ; AfxThrowInvalidArgException
$LN11@MoveToUndo:
  00032	cc		 int	 3
?MoveToUndoList@CUndoRedoManager@@QAEXPAVCUndo_Redo_Info@@@Z ENDP ; CUndoRedoManager::MoveToUndoList
_TEXT	ENDS
; Function compile flags: /Ogtp
; File D:\git\src\IBK\IBK_DRFN\ProjSrc\SrcChartEx\ChartAddIn\ChartAnalysisToolAddIn\Symbol\UndoRedoManager.cpp
; File C:\Program Files (x86)\Microsoft Visual Studio\2019\Community\VC\Tools\MSVC\14.29.30133\atlmfc\include\atlsimpstr.h
; File D:\git\src\IBK\IBK_DRFN\ProjSrc\SrcChartEx\ChartAddIn\ChartAnalysisToolAddIn\Symbol\UndoRedoManager.cpp
; File C:\Program Files (x86)\Microsoft Visual Studio\2019\Community\VC\Tools\MSVC\14.29.30133\atlmfc\include\atlsimpstr.h
; File D:\git\src\IBK\IBK_DRFN\ProjSrc\SrcChartEx\ChartAddIn\ChartAnalysisToolAddIn\Symbol\UndoRedoManager.cpp
; File C:\Program Files (x86)\Microsoft Visual Studio\2019\Community\VC\Tools\MSVC\14.29.30133\atlmfc\include\afxtempl.h
; File D:\git\src\IBK\IBK_DRFN\ProjSrc\SrcChartEx\ChartAddIn\ChartAnalysisToolAddIn\Symbol\UndoRedoManager.cpp
; File C:\Program Files (x86)\Microsoft Visual Studio\2019\Community\VC\Tools\MSVC\14.29.30133\atlmfc\include\afxtempl.h
; File D:\git\src\IBK\IBK_DRFN\ProjSrc\SrcChartEx\ChartAddIn\ChartAnalysisToolAddIn\Symbol\UndoRedoManager.cpp
; File C:\Program Files (x86)\Microsoft Visual Studio\2019\Community\VC\Tools\MSVC\14.29.30133\atlmfc\include\afxtempl.h
; File D:\git\src\IBK\IBK_DRFN\ProjSrc\SrcChartEx\ChartAddIn\ChartAnalysisToolAddIn\Symbol\UndoRedoManager.cpp
; File C:\Program Files (x86)\Microsoft Visual Studio\2019\Community\VC\Tools\MSVC\14.29.30133\atlmfc\include\afxtempl.h
; File D:\git\src\IBK\IBK_DRFN\ProjSrc\SrcChartEx\ChartAddIn\ChartAnalysisToolAddIn\Symbol\UndoRedoManager.cpp
; File C:\Program Files (x86)\Microsoft Visual Studio\2019\Community\VC\Tools\MSVC\14.29.30133\atlmfc\include\afxtempl.h
; File D:\git\src\IBK\IBK_DRFN\ProjSrc\SrcChartEx\ChartAddIn\ChartAnalysisToolAddIn\Symbol\UndoRedoManager.cpp
; File C:\Program Files (x86)\Microsoft Visual Studio\2019\Community\VC\Tools\MSVC\14.29.30133\atlmfc\include\afxtempl.h
; File D:\git\src\IBK\IBK_DRFN\ProjSrc\SrcChartEx\ChartAddIn\ChartAnalysisToolAddIn\Symbol\UndoRedoManager.cpp
; File C:\Program Files (x86)\Microsoft Visual Studio\2019\Community\VC\Tools\MSVC\14.29.30133\atlmfc\include\atlsimpstr.h
; File D:\git\src\IBK\IBK_DRFN\ProjSrc\SrcChartEx\ChartAddIn\ChartAnalysisToolAddIn\Symbol\UndoRedoManager.cpp
; File C:\Program Files (x86)\Microsoft Visual Studio\2019\Community\VC\Tools\MSVC\14.29.30133\atlmfc\include\atlsimpstr.h
; File D:\git\src\IBK\IBK_DRFN\ProjSrc\SrcChartEx\ChartAddIn\ChartAnalysisToolAddIn\Symbol\UndoRedoManager.cpp
; File C:\Program Files (x86)\Microsoft Visual Studio\2019\Community\VC\Tools\MSVC\14.29.30133\atlmfc\include\afxtempl.h
; File D:\git\src\IBK\IBK_DRFN\ProjSrc\SrcChartEx\ChartAddIn\ChartAnalysisToolAddIn\Symbol\UndoRedoManager.cpp
; File C:\Program Files (x86)\Microsoft Visual Studio\2019\Community\VC\Tools\MSVC\14.29.30133\atlmfc\include\afxtempl.h
; File D:\git\src\IBK\IBK_DRFN\ProjSrc\SrcChartEx\ChartAddIn\ChartAnalysisToolAddIn\Symbol\UndoRedoManager.cpp
;	COMDAT ?ChangeRedoInfo@CUndoRedoManager@@QAEHJ@Z
_TEXT	SEGMENT
_undoredoInfoList$2 = -44				; size = 28
_strSymbolData$3 = -16					; size = 4
_strSymbolData$4 = -16					; size = 4
__$EHRec$ = -12						; size = 12
_lUndoRedoInfo$ = 8					; size = 4
_builder$5 = 11						; size = 1
_builder$6 = 11						; size = 1
?ChangeRedoInfo@CUndoRedoManager@@QAEHJ@Z PROC		; CUndoRedoManager::ChangeRedoInfo, COMDAT
; _this$ = ecx

; 273  : {

  00000	55		 push	 ebp
  00001	8b ec		 mov	 ebp, esp
  00003	6a ff		 push	 -1
  00005	68 00 00 00 00	 push	 __ehhandler$?ChangeRedoInfo@CUndoRedoManager@@QAEHJ@Z
  0000a	64 a1 00 00 00
	00		 mov	 eax, DWORD PTR fs:0
  00010	50		 push	 eax
  00011	83 ec 20	 sub	 esp, 32			; 00000020H
  00014	53		 push	 ebx
  00015	56		 push	 esi
  00016	57		 push	 edi
  00017	a1 00 00 00 00	 mov	 eax, DWORD PTR ___security_cookie
  0001c	33 c5		 xor	 eax, ebp
  0001e	50		 push	 eax
  0001f	8d 45 f4	 lea	 eax, DWORD PTR __$EHRec$[ebp]
  00022	64 a3 00 00 00
	00		 mov	 DWORD PTR fs:0, eax
  00028	8b d9		 mov	 ebx, ecx

; 274  : 	if(lUndoRedoInfo == NULL)

  0002a	8b 75 08	 mov	 esi, DWORD PTR _lUndoRedoInfo$[ebp]
  0002d	85 f6		 test	 esi, esi
  0002f	75 16		 jne	 SHORT $LN14@ChangeRedo
$LN99@ChangeRedo:

; 358  : 		}
; 359  : 		break;
; 360  : 	}
; 361  : 
; 362  : 	return FALSE;
; 363  : }

  00031	33 c0		 xor	 eax, eax
  00033	8b 4d f4	 mov	 ecx, DWORD PTR __$EHRec$[ebp]
  00036	64 89 0d 00 00
	00 00		 mov	 DWORD PTR fs:0, ecx
  0003d	59		 pop	 ecx
  0003e	5f		 pop	 edi
  0003f	5e		 pop	 esi
  00040	5b		 pop	 ebx
  00041	8b e5		 mov	 esp, ebp
  00043	5d		 pop	 ebp
  00044	c2 04 00	 ret	 4
$LN14@ChangeRedo:

; 275  : 		return FALSE;
; 276  : 
; 277  : 	CUndo_Redo_Info* pUndoRedoInfo = (CUndo_Redo_Info*)lUndoRedoInfo;
; 278  : 	int nUndoRedoType = pUndoRedoInfo->GetUndoRedoType();
; 279  : 	switch(nUndoRedoType)

  00047	8b 06		 mov	 eax, DWORD PTR [esi]
  00049	83 e8 01	 sub	 eax, 1
  0004c	0f 84 c2 00 00
	00		 je	 $LN15@ChangeRedo
  00052	83 e8 01	 sub	 eax, 1
  00055	74 05		 je	 SHORT $LN20@ChangeRedo
  00057	83 e8 01	 sub	 eax, 1
  0005a	75 d5		 jne	 SHORT $LN99@ChangeRedo
$LN20@ChangeRedo:

; 325  : 		}
; 326  : 		break;
; 327  : 	case URT_MOVE :
; 328  : 	case URT_MODIFY_ENV :
; 329  : 		{
; 330  : 			//   Del
; 331  : 			m_pSymbolData->GetElementTree()->DeleteCurrentDrawingSymbol((CDrawingSymbol*)pUndoRedoInfo->GetSymbolAddress());

  0005c	ff 76 0c	 push	 DWORD PTR [esi+12]
  0005f	8b 0b		 mov	 ecx, DWORD PTR [ebx]
  00061	e8 00 00 00 00	 call	 ?GetElementTree@CSymbolData@@QAEPAVCElementTree@@XZ ; CSymbolData::GetElementTree
  00066	8b c8		 mov	 ecx, eax
  00068	e8 00 00 00 00	 call	 ?DeleteCurrentDrawingSymbol@CElementTree@@QAE_NPBVCDrawingSymbol@@@Z ; CElementTree::DeleteCurrentDrawingSymbol

; 87   : 	return m_strSymbolData;

  0006d	8d 46 10	 lea	 eax, DWORD PTR [esi+16]
  00070	50		 push	 eax
  00071	8d 4d f0	 lea	 ecx, DWORD PTR _strSymbolData$3[ebp]
  00074	ff 15 00 00 00
	00		 call	 DWORD PTR __imp_??0?$CStringT@DV?$StrTraitMFC_DLL@DV?$ChTraitsCRT@D@ATL@@@@@ATL@@QAE@ABV01@@Z
; File C:\Program Files (x86)\Microsoft Visual Studio\2019\Community\VC\Tools\MSVC\14.29.30133\atlmfc\include\atlsimpstr.h

; 533  : 		return( GetLength() == 0 );

  0007a	8b 45 f0	 mov	 eax, DWORD PTR _strSymbolData$3[ebp]
; File D:\git\src\IBK\IBK_DRFN\ProjSrc\SrcChartEx\ChartAddIn\ChartAnalysisToolAddIn\Symbol\UndoRedoManager.cpp

; 334  : 			CString strSymbolData = pUndoRedoInfo->GetSymbolData();

  0007d	c7 45 fc 02 00
	00 00		 mov	 DWORD PTR __$EHRec$[ebp+8], 2
; File C:\Program Files (x86)\Microsoft Visual Studio\2019\Community\VC\Tools\MSVC\14.29.30133\atlmfc\include\atlsimpstr.h

; 533  : 		return( GetLength() == 0 );

  00084	83 78 f4 00	 cmp	 DWORD PTR [eax-12], 0
; File D:\git\src\IBK\IBK_DRFN\ProjSrc\SrcChartEx\ChartAddIn\ChartAnalysisToolAddIn\Symbol\UndoRedoManager.cpp

; 335  : 			if(strSymbolData.IsEmpty())			return FALSE;

  00088	75 10		 jne	 SHORT $LN22@ChangeRedo

; 355  : 			}
; 356  : 
; 357  : 			return TRUE;

  0008a	8d 4d f0	 lea	 ecx, DWORD PTR _strSymbolData$3[ebp]
  0008d	33 f6		 xor	 esi, esi
  0008f	ff 15 00 00 00
	00		 call	 DWORD PTR __imp_??1?$CStringT@DV?$StrTraitMFC_DLL@DV?$ChTraitsCRT@D@ATL@@@@@ATL@@QAE@XZ
  00095	e9 95 01 00 00	 jmp	 $LN98@ChangeRedo
$LN22@ChangeRedo:

; 336  : 			CElementSaverBuilder builder;
; 337  : 			long lNewSymbolAddress = builder.BuildSymbolsFromString_ForUndoRedo(*m_pSymbolData, pUndoRedoInfo->GetBlockIndex(), strSymbolData, m_pSymbolData->GetElementTree()->GetTree(), m_pSymbolData->GetElementTree()->GetOrder());

  0009a	8b 0b		 mov	 ecx, DWORD PTR [ebx]
  0009c	e8 00 00 00 00	 call	 ?GetElementTree@CSymbolData@@QAEPAVCElementTree@@XZ ; CSymbolData::GetElementTree
  000a1	8b c8		 mov	 ecx, eax
  000a3	e8 00 00 00 00	 call	 ?GetOrder@CElementTree@@QAEAAVCOrder@@XZ ; CElementTree::GetOrder
  000a8	8b 0b		 mov	 ecx, DWORD PTR [ebx]
  000aa	50		 push	 eax
  000ab	e8 00 00 00 00	 call	 ?GetElementTree@CSymbolData@@QAEPAVCElementTree@@XZ ; CSymbolData::GetElementTree
  000b0	8b c8		 mov	 ecx, eax
  000b2	e8 00 00 00 00	 call	 ?GetTree@CElementTree@@QAEAAVCTree@@XZ ; CElementTree::GetTree
  000b7	50		 push	 eax
  000b8	8d 45 f0	 lea	 eax, DWORD PTR _strSymbolData$3[ebp]
  000bb	50		 push	 eax
  000bc	8d 46 04	 lea	 eax, DWORD PTR [esi+4]
  000bf	50		 push	 eax
  000c0	ff 33		 push	 DWORD PTR [ebx]
  000c2	8d 4d 0b	 lea	 ecx, DWORD PTR _builder$5[ebp]
  000c5	e8 00 00 00 00	 call	 ?BuildSymbolsFromString_ForUndoRedo@CElementSaverBuilder@@QAEJAAVCSymbolData@@ABVCBlockIndex@@AAV?$CStringT@DV?$StrTraitMFC_DLL@DV?$ChTraitsCRT@D@ATL@@@@@ATL@@AAVCTree@@AAVCOrder@@@Z ; CElementSaverBuilder::BuildSymbolsFromString_ForUndoRedo

; 338  : 
; 339  : 			// Symbol Address 
; 340  : 			CUndo_Redo_Info* pUndoRedoInfo_InList = NULL;
; 341  : 			long lUndoRedoInfo_Origin = pUndoRedoInfo->GetSymbolAddress();
; 342  : 			POSITION pos = m_UndoList.GetHeadPosition();

  000ca	8b 4b 08	 mov	 ecx, DWORD PTR [ebx+8]
  000cd	8b d0		 mov	 edx, eax
  000cf	8b 76 0c	 mov	 esi, DWORD PTR [esi+12]

; 343  : 			while(pos)

  000d2	85 c9		 test	 ecx, ecx
  000d4	74 11		 je	 SHORT $LN11@ChangeRedo
$LL10@ChangeRedo:

; 344  : 			{
; 345  : 				pUndoRedoInfo_InList = m_UndoList.GetNext(pos);

  000d6	8b 41 08	 mov	 eax, DWORD PTR [ecx+8]
; File C:\Program Files (x86)\Microsoft Visual Studio\2019\Community\VC\Tools\MSVC\14.29.30133\atlmfc\include\afxtempl.h

; 813  : 		rPosition = (POSITION) pNode->pNext;

  000d9	8b 09		 mov	 ecx, DWORD PTR [ecx]
; File D:\git\src\IBK\IBK_DRFN\ProjSrc\SrcChartEx\ChartAddIn\ChartAnalysisToolAddIn\Symbol\UndoRedoManager.cpp

; 346  : 				if(lUndoRedoInfo_Origin == pUndoRedoInfo_InList->GetSymbolAddress())

  000db	3b 70 0c	 cmp	 esi, DWORD PTR [eax+12]
  000de	75 03		 jne	 SHORT $LN93@ChangeRedo

; 347  : 					pUndoRedoInfo_InList->SetSymbolAddress(lNewSymbolAddress);

  000e0	89 50 0c	 mov	 DWORD PTR [eax+12], edx
$LN93@ChangeRedo:

; 343  : 			while(pos)

  000e3	85 c9		 test	 ecx, ecx
  000e5	75 ef		 jne	 SHORT $LL10@ChangeRedo
$LN11@ChangeRedo:

; 348  : 			}
; 349  : 			pos = m_RedoList.GetHeadPosition();

  000e7	8b 4b 24	 mov	 ecx, DWORD PTR [ebx+36]

; 350  : 			while(pos)

  000ea	85 c9		 test	 ecx, ecx
  000ec	74 13		 je	 SHORT $LN13@ChangeRedo
  000ee	66 90		 npad	 2
$LL12@ChangeRedo:

; 351  : 			{
; 352  : 				pUndoRedoInfo_InList = m_RedoList.GetNext(pos);

  000f0	8b 41 08	 mov	 eax, DWORD PTR [ecx+8]
; File C:\Program Files (x86)\Microsoft Visual Studio\2019\Community\VC\Tools\MSVC\14.29.30133\atlmfc\include\afxtempl.h

; 813  : 		rPosition = (POSITION) pNode->pNext;

  000f3	8b 09		 mov	 ecx, DWORD PTR [ecx]
; File D:\git\src\IBK\IBK_DRFN\ProjSrc\SrcChartEx\ChartAddIn\ChartAnalysisToolAddIn\Symbol\UndoRedoManager.cpp

; 353  : 				if(lUndoRedoInfo_Origin == pUndoRedoInfo_InList->GetSymbolAddress())

  000f5	3b 70 0c	 cmp	 esi, DWORD PTR [eax+12]
  000f8	75 03		 jne	 SHORT $LN94@ChangeRedo

; 354  : 					pUndoRedoInfo_InList->SetSymbolAddress(lNewSymbolAddress);

  000fa	89 50 0c	 mov	 DWORD PTR [eax+12], edx
$LN94@ChangeRedo:

; 350  : 			while(pos)

  000fd	85 c9		 test	 ecx, ecx
  000ff	75 ef		 jne	 SHORT $LL12@ChangeRedo
$LN13@ChangeRedo:

; 355  : 			}
; 356  : 
; 357  : 			return TRUE;

  00101	8d 4d f0	 lea	 ecx, DWORD PTR _strSymbolData$3[ebp]
  00104	be 01 00 00 00	 mov	 esi, 1
  00109	ff 15 00 00 00
	00		 call	 DWORD PTR __imp_??1?$CStringT@DV?$StrTraitMFC_DLL@DV?$ChTraitsCRT@D@ATL@@@@@ATL@@QAE@XZ
  0010f	e9 1b 01 00 00	 jmp	 $LN98@ChangeRedo
$LN15@ChangeRedo:
; File C:\Program Files (x86)\Microsoft Visual Studio\2019\Community\VC\Tools\MSVC\14.29.30133\atlmfc\include\afxtempl.h

; 851  : {

  00114	c7 45 d4 00 00
	00 00		 mov	 DWORD PTR _undoredoInfoList$2[ebp], OFFSET ??_7?$CList@PAVCUndo_Redo_Info@@PAV1@@@6B@

; 852  : 	ASSERT(nBlockSize > 0);
; 853  : 
; 854  : 	m_nCount = 0;
; 855  : 	m_pNodeHead = m_pNodeTail = m_pNodeFree = NULL;
; 856  : 	m_pBlocks = NULL;

  0011b	c7 45 e8 00 00
	00 00		 mov	 DWORD PTR _undoredoInfoList$2[ebp+20], 0

; 857  : 	m_nBlockSize = nBlockSize;

  00122	c7 45 ec 0a 00
	00 00		 mov	 DWORD PTR _undoredoInfoList$2[ebp+24], 10 ; 0000000aH

; 872  : 	m_pBlocks->FreeDataChain();

  00129	33 c9		 xor	 ecx, ecx
; File D:\git\src\IBK\IBK_DRFN\ProjSrc\SrcChartEx\ChartAddIn\ChartAnalysisToolAddIn\Symbol\UndoRedoManager.cpp

; 283  : 			CList<CUndo_Redo_Info*, CUndo_Redo_Info*> undoredoInfoList;

  0012b	c7 45 fc 00 00
	00 00		 mov	 DWORD PTR __$EHRec$[ebp+8], 0
; File C:\Program Files (x86)\Microsoft Visual Studio\2019\Community\VC\Tools\MSVC\14.29.30133\atlmfc\include\afxtempl.h

; 870  : 	m_nCount = 0;

  00132	c7 45 e0 00 00
	00 00		 mov	 DWORD PTR _undoredoInfoList$2[ebp+12], 0

; 871  : 	m_pNodeHead = m_pNodeTail = m_pNodeFree = NULL;

  00139	c7 45 e4 00 00
	00 00		 mov	 DWORD PTR _undoredoInfoList$2[ebp+16], 0
  00140	c7 45 dc 00 00
	00 00		 mov	 DWORD PTR _undoredoInfoList$2[ebp+8], 0
  00147	c7 45 d8 00 00
	00 00		 mov	 DWORD PTR _undoredoInfoList$2[ebp+4], 0

; 872  : 	m_pBlocks->FreeDataChain();

  0014e	e8 00 00 00 00	 call	 ?FreeDataChain@CPlex@@QAEXXZ ; CPlex::FreeDataChain
; File D:\git\src\IBK\IBK_DRFN\ProjSrc\SrcChartEx\ChartAddIn\ChartAnalysisToolAddIn\Symbol\UndoRedoManager.cpp

; 286  : 			GetUndoRedoInfoListOfBlock(pUndoRedoInfo->GetBlockIndex(), undoredoInfoList);

  00153	8d 45 d4	 lea	 eax, DWORD PTR _undoredoInfoList$2[ebp]
; File C:\Program Files (x86)\Microsoft Visual Studio\2019\Community\VC\Tools\MSVC\14.29.30133\atlmfc\include\afxtempl.h

; 873  : 	m_pBlocks = NULL;

  00156	c7 45 e8 00 00
	00 00		 mov	 DWORD PTR _undoredoInfoList$2[ebp+20], 0
; File D:\git\src\IBK\IBK_DRFN\ProjSrc\SrcChartEx\ChartAddIn\ChartAnalysisToolAddIn\Symbol\UndoRedoManager.cpp

; 286  : 			GetUndoRedoInfoListOfBlock(pUndoRedoInfo->GetBlockIndex(), undoredoInfoList);

  0015d	50		 push	 eax
  0015e	8d 7e 04	 lea	 edi, DWORD PTR [esi+4]
  00161	8b cb		 mov	 ecx, ebx
  00163	57		 push	 edi
  00164	e8 00 00 00 00	 call	 ?GetUndoRedoInfoListOfBlock@CUndoRedoManager@@QAEXABVCBlockIndex@@AAV?$CList@PAVCUndo_Redo_Info@@PAV1@@@@Z ; CUndoRedoManager::GetUndoRedoInfoListOfBlock

; 287  : 
; 288  : 			CUndo_Redo_Info* pUndoRedoInfo_InList = NULL;
; 289  : 			POSITION pos = undoredoInfoList.GetHeadPosition();

  00169	8b 4d d8	 mov	 ecx, DWORD PTR _undoredoInfoList$2[ebp+4]
  0016c	85 c9		 test	 ecx, ecx

; 290  : 			while(pos)

  0016e	74 0d		 je	 SHORT $LN5@ChangeRedo
$LL4@ChangeRedo:

; 291  : 			{
; 292  : 				pUndoRedoInfo_InList = undoredoInfoList.GetNext(pos);

  00170	8b 41 08	 mov	 eax, DWORD PTR [ecx+8]
; File C:\Program Files (x86)\Microsoft Visual Studio\2019\Community\VC\Tools\MSVC\14.29.30133\atlmfc\include\afxtempl.h

; 813  : 		rPosition = (POSITION) pNode->pNext;

  00173	8b 09		 mov	 ecx, DWORD PTR [ecx]
; File D:\git\src\IBK\IBK_DRFN\ProjSrc\SrcChartEx\ChartAddIn\ChartAnalysisToolAddIn\Symbol\UndoRedoManager.cpp

; 294  : 				if(pUndoRedoInfo == pUndoRedoInfo_InList)

  00175	3b f0		 cmp	 esi, eax
  00177	74 25		 je	 SHORT $LN75@ChangeRedo

; 290  : 			while(pos)

  00179	85 c9		 test	 ecx, ecx
  0017b	75 f3		 jne	 SHORT $LL4@ChangeRedo
$LN5@ChangeRedo:

; 87   : 	return m_strSymbolData;

  0017d	8d 46 10	 lea	 eax, DWORD PTR [esi+16]
  00180	50		 push	 eax
  00181	8d 4d f0	 lea	 ecx, DWORD PTR _strSymbolData$4[ebp]
  00184	ff 15 00 00 00
	00		 call	 DWORD PTR __imp_??0?$CStringT@DV?$StrTraitMFC_DLL@DV?$ChTraitsCRT@D@ATL@@@@@ATL@@QAE@ABV01@@Z
; File C:\Program Files (x86)\Microsoft Visual Studio\2019\Community\VC\Tools\MSVC\14.29.30133\atlmfc\include\atlsimpstr.h

; 533  : 		return( GetLength() == 0 );

  0018a	8b 45 f0	 mov	 eax, DWORD PTR _strSymbolData$4[ebp]
; File D:\git\src\IBK\IBK_DRFN\ProjSrc\SrcChartEx\ChartAddIn\ChartAnalysisToolAddIn\Symbol\UndoRedoManager.cpp

; 302  : 			CString strSymbolData = pUndoRedoInfo->GetSymbolData();

  0018d	c6 45 fc 01	 mov	 BYTE PTR __$EHRec$[ebp+8], 1
; File C:\Program Files (x86)\Microsoft Visual Studio\2019\Community\VC\Tools\MSVC\14.29.30133\atlmfc\include\atlsimpstr.h

; 533  : 		return( GetLength() == 0 );

  00191	83 78 f4 00	 cmp	 DWORD PTR [eax-12], 0
; File D:\git\src\IBK\IBK_DRFN\ProjSrc\SrcChartEx\ChartAddIn\ChartAnalysisToolAddIn\Symbol\UndoRedoManager.cpp

; 303  : 			if(strSymbolData.IsEmpty())			return FALSE;

  00195	75 1f		 jne	 SHORT $LN17@ChangeRedo
  00197	33 f6		 xor	 esi, esi
  00199	e9 80 00 00 00	 jmp	 $LN30@ChangeRedo
$LN75@ChangeRedo:

; 295  : 				{
; 296  : 					m_pSymbolData->GetElementTree()->DeleteCurrentDrawingSymbol((CDrawingSymbol*)pUndoRedoInfo_InList->GetSymbolAddress());

  0019e	ff 70 0c	 push	 DWORD PTR [eax+12]
  001a1	8b 0b		 mov	 ecx, DWORD PTR [ebx]
  001a3	e8 00 00 00 00	 call	 ?GetElementTree@CSymbolData@@QAEPAVCElementTree@@XZ ; CSymbolData::GetElementTree
  001a8	8b c8		 mov	 ecx, eax
  001aa	e8 00 00 00 00	 call	 ?DeleteCurrentDrawingSymbol@CElementTree@@QAE_NPBVCDrawingSymbol@@@Z ; CElementTree::DeleteCurrentDrawingSymbol
  001af	be 01 00 00 00	 mov	 esi, 1
  001b4	eb 71		 jmp	 SHORT $LN29@ChangeRedo
$LN17@ChangeRedo:

; 304  : 			CElementSaverBuilder builder;
; 305  : 			long lNewSymbolAddress = builder.BuildSymbolsFromString_ForUndoRedo(*m_pSymbolData, pUndoRedoInfo->GetBlockIndex(), strSymbolData, m_pSymbolData->GetElementTree()->GetTree(), m_pSymbolData->GetElementTree()->GetOrder());

  001b6	8b 0b		 mov	 ecx, DWORD PTR [ebx]
  001b8	e8 00 00 00 00	 call	 ?GetElementTree@CSymbolData@@QAEPAVCElementTree@@XZ ; CSymbolData::GetElementTree
  001bd	8b c8		 mov	 ecx, eax
  001bf	e8 00 00 00 00	 call	 ?GetOrder@CElementTree@@QAEAAVCOrder@@XZ ; CElementTree::GetOrder
  001c4	8b 0b		 mov	 ecx, DWORD PTR [ebx]
  001c6	50		 push	 eax
  001c7	e8 00 00 00 00	 call	 ?GetElementTree@CSymbolData@@QAEPAVCElementTree@@XZ ; CSymbolData::GetElementTree
  001cc	8b c8		 mov	 ecx, eax
  001ce	e8 00 00 00 00	 call	 ?GetTree@CElementTree@@QAEAAVCTree@@XZ ; CElementTree::GetTree
  001d3	50		 push	 eax
  001d4	8d 45 f0	 lea	 eax, DWORD PTR _strSymbolData$4[ebp]
  001d7	50		 push	 eax
  001d8	57		 push	 edi
  001d9	ff 33		 push	 DWORD PTR [ebx]
  001db	8d 4d 0b	 lea	 ecx, DWORD PTR _builder$6[ebp]
  001de	e8 00 00 00 00	 call	 ?BuildSymbolsFromString_ForUndoRedo@CElementSaverBuilder@@QAEJAAVCSymbolData@@ABVCBlockIndex@@AAV?$CStringT@DV?$StrTraitMFC_DLL@DV?$ChTraitsCRT@D@ATL@@@@@ATL@@AAVCTree@@AAVCOrder@@@Z ; CElementSaverBuilder::BuildSymbolsFromString_ForUndoRedo

; 306  : 
; 307  : 			// Symbol Address 
; 308  : 			long lUndoRedoInfo_Origin = pUndoRedoInfo->GetSymbolAddress();
; 309  : 			pos = m_UndoList.GetHeadPosition();

  001e3	8b 53 08	 mov	 edx, DWORD PTR [ebx+8]
  001e6	8b f8		 mov	 edi, eax
  001e8	8b 76 0c	 mov	 esi, DWORD PTR [esi+12]

; 310  : 			while(pos)

  001eb	85 d2		 test	 edx, edx
  001ed	74 12		 je	 SHORT $LN7@ChangeRedo
  001ef	90		 npad	 1
$LL6@ChangeRedo:

; 311  : 			{
; 312  : 				pUndoRedoInfo_InList = m_UndoList.GetNext(pos);

  001f0	8b 42 08	 mov	 eax, DWORD PTR [edx+8]
; File C:\Program Files (x86)\Microsoft Visual Studio\2019\Community\VC\Tools\MSVC\14.29.30133\atlmfc\include\afxtempl.h

; 813  : 		rPosition = (POSITION) pNode->pNext;

  001f3	8b 12		 mov	 edx, DWORD PTR [edx]
; File D:\git\src\IBK\IBK_DRFN\ProjSrc\SrcChartEx\ChartAddIn\ChartAnalysisToolAddIn\Symbol\UndoRedoManager.cpp

; 313  : 				if(lUndoRedoInfo_Origin == pUndoRedoInfo_InList->GetSymbolAddress())

  001f5	3b 70 0c	 cmp	 esi, DWORD PTR [eax+12]
  001f8	75 03		 jne	 SHORT $LN95@ChangeRedo

; 314  : 					pUndoRedoInfo_InList->SetSymbolAddress(lNewSymbolAddress);

  001fa	89 78 0c	 mov	 DWORD PTR [eax+12], edi
$LN95@ChangeRedo:

; 310  : 			while(pos)

  001fd	85 d2		 test	 edx, edx
  001ff	75 ef		 jne	 SHORT $LL6@ChangeRedo
$LN7@ChangeRedo:

; 315  : 			}
; 316  : 			pos = m_RedoList.GetHeadPosition();

  00201	8b 4b 24	 mov	 ecx, DWORD PTR [ebx+36]

; 317  : 			while(pos)

  00204	85 c9		 test	 ecx, ecx
  00206	74 11		 je	 SHORT $LN9@ChangeRedo
$LL8@ChangeRedo:

; 318  : 			{
; 319  : 				pUndoRedoInfo_InList = m_RedoList.GetNext(pos);

  00208	8b 41 08	 mov	 eax, DWORD PTR [ecx+8]
; File C:\Program Files (x86)\Microsoft Visual Studio\2019\Community\VC\Tools\MSVC\14.29.30133\atlmfc\include\afxtempl.h

; 813  : 		rPosition = (POSITION) pNode->pNext;

  0020b	8b 09		 mov	 ecx, DWORD PTR [ecx]
; File D:\git\src\IBK\IBK_DRFN\ProjSrc\SrcChartEx\ChartAddIn\ChartAnalysisToolAddIn\Symbol\UndoRedoManager.cpp

; 320  : 				if(lUndoRedoInfo_Origin == pUndoRedoInfo_InList->GetSymbolAddress())

  0020d	3b 70 0c	 cmp	 esi, DWORD PTR [eax+12]
  00210	75 03		 jne	 SHORT $LN96@ChangeRedo

; 321  : 					pUndoRedoInfo_InList->SetSymbolAddress(lNewSymbolAddress);

  00212	89 78 0c	 mov	 DWORD PTR [eax+12], edi
$LN96@ChangeRedo:

; 317  : 			while(pos)

  00215	85 c9		 test	 ecx, ecx
  00217	75 ef		 jne	 SHORT $LL8@ChangeRedo
$LN9@ChangeRedo:

; 322  : 			}
; 323  : 
; 324  : 			return TRUE;

  00219	be 01 00 00 00	 mov	 esi, 1
$LN30@ChangeRedo:
  0021e	8d 4d f0	 lea	 ecx, DWORD PTR _strSymbolData$4[ebp]
  00221	ff 15 00 00 00
	00		 call	 DWORD PTR __imp_??1?$CStringT@DV?$StrTraitMFC_DLL@DV?$ChTraitsCRT@D@ATL@@@@@ATL@@QAE@XZ
$LN29@ChangeRedo:
  00227	8d 4d d4	 lea	 ecx, DWORD PTR _undoredoInfoList$2[ebp]
  0022a	e8 00 00 00 00	 call	 ??1?$CList@PAVCUndo_Redo_Info@@PAV1@@@UAE@XZ ; CList<CUndo_Redo_Info *,CUndo_Redo_Info *>::~CList<CUndo_Redo_Info *,CUndo_Redo_Info *>
$LN98@ChangeRedo:

; 358  : 		}
; 359  : 		break;
; 360  : 	}
; 361  : 
; 362  : 	return FALSE;
; 363  : }

  0022f	8b c6		 mov	 eax, esi
  00231	8b 4d f4	 mov	 ecx, DWORD PTR __$EHRec$[ebp]
  00234	64 89 0d 00 00
	00 00		 mov	 DWORD PTR fs:0, ecx
  0023b	59		 pop	 ecx
  0023c	5f		 pop	 edi
  0023d	5e		 pop	 esi
  0023e	5b		 pop	 ebx
  0023f	8b e5		 mov	 esp, ebp
  00241	5d		 pop	 ebp
  00242	c2 04 00	 ret	 4
_TEXT	ENDS
;	COMDAT text$x
text$x	SEGMENT
__unwindfunclet$?ChangeRedoInfo@CUndoRedoManager@@QAEHJ@Z$2:
  00000	8d 4d f0	 lea	 ecx, DWORD PTR _strSymbolData$3[ebp]
  00003	ff 25 00 00 00
	00		 jmp	 DWORD PTR __imp_??1?$CStringT@DV?$StrTraitMFC_DLL@DV?$ChTraitsCRT@D@ATL@@@@@ATL@@QAE@XZ
__unwindfunclet$?ChangeRedoInfo@CUndoRedoManager@@QAEHJ@Z$0:
  00009	8d 4d d4	 lea	 ecx, DWORD PTR _undoredoInfoList$2[ebp]
  0000c	e9 00 00 00 00	 jmp	 ??1?$CList@PAVCUndo_Redo_Info@@PAV1@@@UAE@XZ ; CList<CUndo_Redo_Info *,CUndo_Redo_Info *>::~CList<CUndo_Redo_Info *,CUndo_Redo_Info *>
__unwindfunclet$?ChangeRedoInfo@CUndoRedoManager@@QAEHJ@Z$1:
  00011	8d 4d f0	 lea	 ecx, DWORD PTR _strSymbolData$4[ebp]
  00014	ff 25 00 00 00
	00		 jmp	 DWORD PTR __imp_??1?$CStringT@DV?$StrTraitMFC_DLL@DV?$ChTraitsCRT@D@ATL@@@@@ATL@@QAE@XZ
  0001a	cc		 int	 3
  0001b	cc		 int	 3
  0001c	cc		 int	 3
  0001d	cc		 int	 3
  0001e	cc		 int	 3
__ehhandler$?ChangeRedoInfo@CUndoRedoManager@@QAEHJ@Z:
  0001f	90		 npad	 1
  00020	90		 npad	 1
  00021	8b 54 24 08	 mov	 edx, DWORD PTR [esp+8]
  00025	8d 42 0c	 lea	 eax, DWORD PTR [edx+12]
  00028	8b 4a d0	 mov	 ecx, DWORD PTR [edx-48]
  0002b	33 c8		 xor	 ecx, eax
  0002d	e8 00 00 00 00	 call	 @__security_check_cookie@4
  00032	b8 00 00 00 00	 mov	 eax, OFFSET __ehfuncinfo$?ChangeRedoInfo@CUndoRedoManager@@QAEHJ@Z
  00037	e9 00 00 00 00	 jmp	 ___CxxFrameHandler3
text$x	ENDS
?ChangeRedoInfo@CUndoRedoManager@@QAEHJ@Z ENDP		; CUndoRedoManager::ChangeRedoInfo
; Function compile flags: /Ogtp
; File D:\git\src\IBK\IBK_DRFN\ProjSrc\SrcChartEx\ChartAddIn\ChartAnalysisToolAddIn\Symbol\UndoRedoManager.cpp
; File C:\Program Files (x86)\Microsoft Visual Studio\2019\Community\VC\Tools\MSVC\14.29.30133\atlmfc\include\atlsimpstr.h
; File D:\git\src\IBK\IBK_DRFN\ProjSrc\SrcChartEx\ChartAddIn\ChartAnalysisToolAddIn\Symbol\UndoRedoManager.cpp
; File C:\Program Files (x86)\Microsoft Visual Studio\2019\Community\VC\Tools\MSVC\14.29.30133\atlmfc\include\atlsimpstr.h
; File D:\git\src\IBK\IBK_DRFN\ProjSrc\SrcChartEx\ChartAddIn\ChartAnalysisToolAddIn\Symbol\UndoRedoManager.cpp
; File C:\Program Files (x86)\Microsoft Visual Studio\2019\Community\VC\Tools\MSVC\14.29.30133\atlmfc\include\afxtempl.h
; File D:\git\src\IBK\IBK_DRFN\ProjSrc\SrcChartEx\ChartAddIn\ChartAnalysisToolAddIn\Symbol\UndoRedoManager.cpp
; File C:\Program Files (x86)\Microsoft Visual Studio\2019\Community\VC\Tools\MSVC\14.29.30133\atlmfc\include\afxtempl.h
; File D:\git\src\IBK\IBK_DRFN\ProjSrc\SrcChartEx\ChartAddIn\ChartAnalysisToolAddIn\Symbol\UndoRedoManager.cpp
; File C:\Program Files (x86)\Microsoft Visual Studio\2019\Community\VC\Tools\MSVC\14.29.30133\atlmfc\include\afxtempl.h
; File D:\git\src\IBK\IBK_DRFN\ProjSrc\SrcChartEx\ChartAddIn\ChartAnalysisToolAddIn\Symbol\UndoRedoManager.cpp
; File C:\Program Files (x86)\Microsoft Visual Studio\2019\Community\VC\Tools\MSVC\14.29.30133\atlmfc\include\afxtempl.h
; File D:\git\src\IBK\IBK_DRFN\ProjSrc\SrcChartEx\ChartAddIn\ChartAnalysisToolAddIn\Symbol\UndoRedoManager.cpp
; File C:\Program Files (x86)\Microsoft Visual Studio\2019\Community\VC\Tools\MSVC\14.29.30133\atlmfc\include\afxtempl.h
; File D:\git\src\IBK\IBK_DRFN\ProjSrc\SrcChartEx\ChartAddIn\ChartAnalysisToolAddIn\Symbol\UndoRedoManager.cpp
; File C:\Program Files (x86)\Microsoft Visual Studio\2019\Community\VC\Tools\MSVC\14.29.30133\atlmfc\include\afxtempl.h
; File D:\git\src\IBK\IBK_DRFN\ProjSrc\SrcChartEx\ChartAddIn\ChartAnalysisToolAddIn\Symbol\UndoRedoManager.cpp
; File C:\Program Files (x86)\Microsoft Visual Studio\2019\Community\VC\Tools\MSVC\14.29.30133\atlmfc\include\atlsimpstr.h
; File D:\git\src\IBK\IBK_DRFN\ProjSrc\SrcChartEx\ChartAddIn\ChartAnalysisToolAddIn\Symbol\UndoRedoManager.cpp
; File C:\Program Files (x86)\Microsoft Visual Studio\2019\Community\VC\Tools\MSVC\14.29.30133\atlmfc\include\atlsimpstr.h
; File D:\git\src\IBK\IBK_DRFN\ProjSrc\SrcChartEx\ChartAddIn\ChartAnalysisToolAddIn\Symbol\UndoRedoManager.cpp
; File C:\Program Files (x86)\Microsoft Visual Studio\2019\Community\VC\Tools\MSVC\14.29.30133\atlmfc\include\afxtempl.h
; File D:\git\src\IBK\IBK_DRFN\ProjSrc\SrcChartEx\ChartAddIn\ChartAnalysisToolAddIn\Symbol\UndoRedoManager.cpp
; File C:\Program Files (x86)\Microsoft Visual Studio\2019\Community\VC\Tools\MSVC\14.29.30133\atlmfc\include\afxtempl.h
; File D:\git\src\IBK\IBK_DRFN\ProjSrc\SrcChartEx\ChartAddIn\ChartAnalysisToolAddIn\Symbol\UndoRedoManager.cpp
;	COMDAT ?ChangeUndoInfo@CUndoRedoManager@@QAEHJ@Z
_TEXT	SEGMENT
_undoredoInfoList$2 = -44				; size = 28
_strSymbolData_Prev$3 = -16				; size = 4
_strSymbolData$4 = -16					; size = 4
__$EHRec$ = -12						; size = 12
_lUndoRedoInfo$ = 8					; size = 4
_builder$5 = 11						; size = 1
_builder$6 = 11						; size = 1
?ChangeUndoInfo@CUndoRedoManager@@QAEHJ@Z PROC		; CUndoRedoManager::ChangeUndoInfo, COMDAT
; _this$ = ecx

; 180  : {

  00000	55		 push	 ebp
  00001	8b ec		 mov	 ebp, esp
  00003	6a ff		 push	 -1
  00005	68 00 00 00 00	 push	 __ehhandler$?ChangeUndoInfo@CUndoRedoManager@@QAEHJ@Z
  0000a	64 a1 00 00 00
	00		 mov	 eax, DWORD PTR fs:0
  00010	50		 push	 eax
  00011	83 ec 20	 sub	 esp, 32			; 00000020H
  00014	53		 push	 ebx
  00015	56		 push	 esi
  00016	57		 push	 edi
  00017	a1 00 00 00 00	 mov	 eax, DWORD PTR ___security_cookie
  0001c	33 c5		 xor	 eax, ebp
  0001e	50		 push	 eax
  0001f	8d 45 f4	 lea	 eax, DWORD PTR __$EHRec$[ebp]
  00022	64 a3 00 00 00
	00		 mov	 DWORD PTR fs:0, eax
  00028	8b d9		 mov	 ebx, ecx

; 181  : 	if(lUndoRedoInfo == NULL)

  0002a	8b 75 08	 mov	 esi, DWORD PTR _lUndoRedoInfo$[ebp]
  0002d	85 f6		 test	 esi, esi
  0002f	75 16		 jne	 SHORT $LN14@ChangeUndo
$LN99@ChangeUndo:

; 265  : 		}
; 266  : 		break;
; 267  : 	}
; 268  : 
; 269  : 	return FALSE;
; 270  : }

  00031	33 c0		 xor	 eax, eax
  00033	8b 4d f4	 mov	 ecx, DWORD PTR __$EHRec$[ebp]
  00036	64 89 0d 00 00
	00 00		 mov	 DWORD PTR fs:0, ecx
  0003d	59		 pop	 ecx
  0003e	5f		 pop	 edi
  0003f	5e		 pop	 esi
  00040	5b		 pop	 ebx
  00041	8b e5		 mov	 esp, ebp
  00043	5d		 pop	 ebp
  00044	c2 04 00	 ret	 4
$LN14@ChangeUndo:

; 182  : 		return FALSE;
; 183  : 
; 184  : 	CUndo_Redo_Info* pUndoRedoInfo = (CUndo_Redo_Info*)lUndoRedoInfo;
; 185  : 	int nUndoRedoType = pUndoRedoInfo->GetUndoRedoType();
; 186  : 	switch(nUndoRedoType)

  00047	8b 06		 mov	 eax, DWORD PTR [esi]
  00049	83 e8 01	 sub	 eax, 1
  0004c	0f 84 c2 00 00
	00		 je	 $LN15@ChangeUndo
  00052	83 e8 01	 sub	 eax, 1
  00055	74 05		 je	 SHORT $LN20@ChangeUndo
  00057	83 e8 01	 sub	 eax, 1
  0005a	75 d5		 jne	 SHORT $LN99@ChangeUndo
$LN20@ChangeUndo:

; 232  : 		}
; 233  : 		break;
; 234  : 	case URT_MOVE :
; 235  : 	case URT_MODIFY_ENV :
; 236  : 		{
; 237  : 			//   Del
; 238  : 			m_pSymbolData->GetElementTree()->DeleteCurrentDrawingSymbol((CDrawingSymbol*)pUndoRedoInfo->GetSymbolAddress());

  0005c	ff 76 0c	 push	 DWORD PTR [esi+12]
  0005f	8b 0b		 mov	 ecx, DWORD PTR [ebx]
  00061	e8 00 00 00 00	 call	 ?GetElementTree@CSymbolData@@QAEPAVCElementTree@@XZ ; CSymbolData::GetElementTree
  00066	8b c8		 mov	 ecx, eax
  00068	e8 00 00 00 00	 call	 ?DeleteCurrentDrawingSymbol@CElementTree@@QAE_NPBVCDrawingSymbol@@@Z ; CElementTree::DeleteCurrentDrawingSymbol

; 92   : 	return m_strSymbolData_Prev;

  0006d	8d 46 14	 lea	 eax, DWORD PTR [esi+20]
  00070	50		 push	 eax
  00071	8d 4d f0	 lea	 ecx, DWORD PTR _strSymbolData_Prev$3[ebp]
  00074	ff 15 00 00 00
	00		 call	 DWORD PTR __imp_??0?$CStringT@DV?$StrTraitMFC_DLL@DV?$ChTraitsCRT@D@ATL@@@@@ATL@@QAE@ABV01@@Z
; File C:\Program Files (x86)\Microsoft Visual Studio\2019\Community\VC\Tools\MSVC\14.29.30133\atlmfc\include\atlsimpstr.h

; 533  : 		return( GetLength() == 0 );

  0007a	8b 45 f0	 mov	 eax, DWORD PTR _strSymbolData_Prev$3[ebp]
; File D:\git\src\IBK\IBK_DRFN\ProjSrc\SrcChartEx\ChartAddIn\ChartAnalysisToolAddIn\Symbol\UndoRedoManager.cpp

; 241  : 			CString strSymbolData_Prev = pUndoRedoInfo->GetSymbolData_Prev();

  0007d	c7 45 fc 02 00
	00 00		 mov	 DWORD PTR __$EHRec$[ebp+8], 2
; File C:\Program Files (x86)\Microsoft Visual Studio\2019\Community\VC\Tools\MSVC\14.29.30133\atlmfc\include\atlsimpstr.h

; 533  : 		return( GetLength() == 0 );

  00084	83 78 f4 00	 cmp	 DWORD PTR [eax-12], 0
; File D:\git\src\IBK\IBK_DRFN\ProjSrc\SrcChartEx\ChartAddIn\ChartAnalysisToolAddIn\Symbol\UndoRedoManager.cpp

; 242  : 			if(strSymbolData_Prev.IsEmpty())			return FALSE;

  00088	75 10		 jne	 SHORT $LN22@ChangeUndo

; 262  : 			}
; 263  : 
; 264  : 			return TRUE;

  0008a	8d 4d f0	 lea	 ecx, DWORD PTR _strSymbolData_Prev$3[ebp]
  0008d	33 f6		 xor	 esi, esi
  0008f	ff 15 00 00 00
	00		 call	 DWORD PTR __imp_??1?$CStringT@DV?$StrTraitMFC_DLL@DV?$ChTraitsCRT@D@ATL@@@@@ATL@@QAE@XZ
  00095	e9 95 01 00 00	 jmp	 $LN98@ChangeUndo
$LN22@ChangeUndo:

; 243  : 			CElementSaverBuilder builder;
; 244  : 			long lNewSymbolAddress = builder.BuildSymbolsFromString_ForUndoRedo(*m_pSymbolData, pUndoRedoInfo->GetBlockIndex(), strSymbolData_Prev, m_pSymbolData->GetElementTree()->GetTree(), m_pSymbolData->GetElementTree()->GetOrder());

  0009a	8b 0b		 mov	 ecx, DWORD PTR [ebx]
  0009c	e8 00 00 00 00	 call	 ?GetElementTree@CSymbolData@@QAEPAVCElementTree@@XZ ; CSymbolData::GetElementTree
  000a1	8b c8		 mov	 ecx, eax
  000a3	e8 00 00 00 00	 call	 ?GetOrder@CElementTree@@QAEAAVCOrder@@XZ ; CElementTree::GetOrder
  000a8	8b 0b		 mov	 ecx, DWORD PTR [ebx]
  000aa	50		 push	 eax
  000ab	e8 00 00 00 00	 call	 ?GetElementTree@CSymbolData@@QAEPAVCElementTree@@XZ ; CSymbolData::GetElementTree
  000b0	8b c8		 mov	 ecx, eax
  000b2	e8 00 00 00 00	 call	 ?GetTree@CElementTree@@QAEAAVCTree@@XZ ; CElementTree::GetTree
  000b7	50		 push	 eax
  000b8	8d 45 f0	 lea	 eax, DWORD PTR _strSymbolData_Prev$3[ebp]
  000bb	50		 push	 eax
  000bc	8d 46 04	 lea	 eax, DWORD PTR [esi+4]
  000bf	50		 push	 eax
  000c0	ff 33		 push	 DWORD PTR [ebx]
  000c2	8d 4d 0b	 lea	 ecx, DWORD PTR _builder$5[ebp]
  000c5	e8 00 00 00 00	 call	 ?BuildSymbolsFromString_ForUndoRedo@CElementSaverBuilder@@QAEJAAVCSymbolData@@ABVCBlockIndex@@AAV?$CStringT@DV?$StrTraitMFC_DLL@DV?$ChTraitsCRT@D@ATL@@@@@ATL@@AAVCTree@@AAVCOrder@@@Z ; CElementSaverBuilder::BuildSymbolsFromString_ForUndoRedo

; 245  : 
; 246  : 			// Symbol Address 
; 247  : 			CUndo_Redo_Info* pUndoRedoInfo_InList = NULL;
; 248  : 			long lUndoRedoInfo_Origin = pUndoRedoInfo->GetSymbolAddress();
; 249  : 			POSITION pos = m_UndoList.GetHeadPosition();

  000ca	8b 4b 08	 mov	 ecx, DWORD PTR [ebx+8]
  000cd	8b d0		 mov	 edx, eax
  000cf	8b 76 0c	 mov	 esi, DWORD PTR [esi+12]

; 250  : 			while(pos)

  000d2	85 c9		 test	 ecx, ecx
  000d4	74 11		 je	 SHORT $LN11@ChangeUndo
$LL10@ChangeUndo:

; 251  : 			{
; 252  : 				pUndoRedoInfo_InList = m_UndoList.GetNext(pos);

  000d6	8b 41 08	 mov	 eax, DWORD PTR [ecx+8]
; File C:\Program Files (x86)\Microsoft Visual Studio\2019\Community\VC\Tools\MSVC\14.29.30133\atlmfc\include\afxtempl.h

; 813  : 		rPosition = (POSITION) pNode->pNext;

  000d9	8b 09		 mov	 ecx, DWORD PTR [ecx]
; File D:\git\src\IBK\IBK_DRFN\ProjSrc\SrcChartEx\ChartAddIn\ChartAnalysisToolAddIn\Symbol\UndoRedoManager.cpp

; 253  : 				if(lUndoRedoInfo_Origin == pUndoRedoInfo_InList->GetSymbolAddress())

  000db	3b 70 0c	 cmp	 esi, DWORD PTR [eax+12]
  000de	75 03		 jne	 SHORT $LN93@ChangeUndo

; 254  : 					pUndoRedoInfo_InList->SetSymbolAddress(lNewSymbolAddress);

  000e0	89 50 0c	 mov	 DWORD PTR [eax+12], edx
$LN93@ChangeUndo:

; 250  : 			while(pos)

  000e3	85 c9		 test	 ecx, ecx
  000e5	75 ef		 jne	 SHORT $LL10@ChangeUndo
$LN11@ChangeUndo:

; 255  : 			}
; 256  : 			pos = m_RedoList.GetHeadPosition();

  000e7	8b 4b 24	 mov	 ecx, DWORD PTR [ebx+36]

; 257  : 			while(pos)

  000ea	85 c9		 test	 ecx, ecx
  000ec	74 13		 je	 SHORT $LN13@ChangeUndo
  000ee	66 90		 npad	 2
$LL12@ChangeUndo:

; 258  : 			{
; 259  : 				pUndoRedoInfo_InList = m_RedoList.GetNext(pos);

  000f0	8b 41 08	 mov	 eax, DWORD PTR [ecx+8]
; File C:\Program Files (x86)\Microsoft Visual Studio\2019\Community\VC\Tools\MSVC\14.29.30133\atlmfc\include\afxtempl.h

; 813  : 		rPosition = (POSITION) pNode->pNext;

  000f3	8b 09		 mov	 ecx, DWORD PTR [ecx]
; File D:\git\src\IBK\IBK_DRFN\ProjSrc\SrcChartEx\ChartAddIn\ChartAnalysisToolAddIn\Symbol\UndoRedoManager.cpp

; 260  : 				if(lUndoRedoInfo_Origin == pUndoRedoInfo_InList->GetSymbolAddress())

  000f5	3b 70 0c	 cmp	 esi, DWORD PTR [eax+12]
  000f8	75 03		 jne	 SHORT $LN94@ChangeUndo

; 261  : 					pUndoRedoInfo_InList->SetSymbolAddress(lNewSymbolAddress);

  000fa	89 50 0c	 mov	 DWORD PTR [eax+12], edx
$LN94@ChangeUndo:

; 257  : 			while(pos)

  000fd	85 c9		 test	 ecx, ecx
  000ff	75 ef		 jne	 SHORT $LL12@ChangeUndo
$LN13@ChangeUndo:

; 262  : 			}
; 263  : 
; 264  : 			return TRUE;

  00101	8d 4d f0	 lea	 ecx, DWORD PTR _strSymbolData_Prev$3[ebp]
  00104	be 01 00 00 00	 mov	 esi, 1
  00109	ff 15 00 00 00
	00		 call	 DWORD PTR __imp_??1?$CStringT@DV?$StrTraitMFC_DLL@DV?$ChTraitsCRT@D@ATL@@@@@ATL@@QAE@XZ
  0010f	e9 1b 01 00 00	 jmp	 $LN98@ChangeUndo
$LN15@ChangeUndo:
; File C:\Program Files (x86)\Microsoft Visual Studio\2019\Community\VC\Tools\MSVC\14.29.30133\atlmfc\include\afxtempl.h

; 851  : {

  00114	c7 45 d4 00 00
	00 00		 mov	 DWORD PTR _undoredoInfoList$2[ebp], OFFSET ??_7?$CList@PAVCUndo_Redo_Info@@PAV1@@@6B@

; 852  : 	ASSERT(nBlockSize > 0);
; 853  : 
; 854  : 	m_nCount = 0;
; 855  : 	m_pNodeHead = m_pNodeTail = m_pNodeFree = NULL;
; 856  : 	m_pBlocks = NULL;

  0011b	c7 45 e8 00 00
	00 00		 mov	 DWORD PTR _undoredoInfoList$2[ebp+20], 0

; 857  : 	m_nBlockSize = nBlockSize;

  00122	c7 45 ec 0a 00
	00 00		 mov	 DWORD PTR _undoredoInfoList$2[ebp+24], 10 ; 0000000aH

; 872  : 	m_pBlocks->FreeDataChain();

  00129	33 c9		 xor	 ecx, ecx
; File D:\git\src\IBK\IBK_DRFN\ProjSrc\SrcChartEx\ChartAddIn\ChartAnalysisToolAddIn\Symbol\UndoRedoManager.cpp

; 190  : 			CList<CUndo_Redo_Info*, CUndo_Redo_Info*> undoredoInfoList;

  0012b	c7 45 fc 00 00
	00 00		 mov	 DWORD PTR __$EHRec$[ebp+8], 0
; File C:\Program Files (x86)\Microsoft Visual Studio\2019\Community\VC\Tools\MSVC\14.29.30133\atlmfc\include\afxtempl.h

; 870  : 	m_nCount = 0;

  00132	c7 45 e0 00 00
	00 00		 mov	 DWORD PTR _undoredoInfoList$2[ebp+12], 0

; 871  : 	m_pNodeHead = m_pNodeTail = m_pNodeFree = NULL;

  00139	c7 45 e4 00 00
	00 00		 mov	 DWORD PTR _undoredoInfoList$2[ebp+16], 0
  00140	c7 45 dc 00 00
	00 00		 mov	 DWORD PTR _undoredoInfoList$2[ebp+8], 0
  00147	c7 45 d8 00 00
	00 00		 mov	 DWORD PTR _undoredoInfoList$2[ebp+4], 0

; 872  : 	m_pBlocks->FreeDataChain();

  0014e	e8 00 00 00 00	 call	 ?FreeDataChain@CPlex@@QAEXXZ ; CPlex::FreeDataChain
; File D:\git\src\IBK\IBK_DRFN\ProjSrc\SrcChartEx\ChartAddIn\ChartAnalysisToolAddIn\Symbol\UndoRedoManager.cpp

; 193  : 			GetUndoRedoInfoListOfBlock(pUndoRedoInfo->GetBlockIndex(), undoredoInfoList);

  00153	8d 45 d4	 lea	 eax, DWORD PTR _undoredoInfoList$2[ebp]
; File C:\Program Files (x86)\Microsoft Visual Studio\2019\Community\VC\Tools\MSVC\14.29.30133\atlmfc\include\afxtempl.h

; 873  : 	m_pBlocks = NULL;

  00156	c7 45 e8 00 00
	00 00		 mov	 DWORD PTR _undoredoInfoList$2[ebp+20], 0
; File D:\git\src\IBK\IBK_DRFN\ProjSrc\SrcChartEx\ChartAddIn\ChartAnalysisToolAddIn\Symbol\UndoRedoManager.cpp

; 193  : 			GetUndoRedoInfoListOfBlock(pUndoRedoInfo->GetBlockIndex(), undoredoInfoList);

  0015d	50		 push	 eax
  0015e	8d 7e 04	 lea	 edi, DWORD PTR [esi+4]
  00161	8b cb		 mov	 ecx, ebx
  00163	57		 push	 edi
  00164	e8 00 00 00 00	 call	 ?GetUndoRedoInfoListOfBlock@CUndoRedoManager@@QAEXABVCBlockIndex@@AAV?$CList@PAVCUndo_Redo_Info@@PAV1@@@@Z ; CUndoRedoManager::GetUndoRedoInfoListOfBlock

; 194  : 
; 195  : 			CUndo_Redo_Info* pUndoRedoInfo_InList = NULL;
; 196  : 			POSITION pos = undoredoInfoList.GetHeadPosition();

  00169	8b 4d d8	 mov	 ecx, DWORD PTR _undoredoInfoList$2[ebp+4]
  0016c	85 c9		 test	 ecx, ecx

; 197  : 			while(pos)

  0016e	74 0d		 je	 SHORT $LN5@ChangeUndo
$LL4@ChangeUndo:

; 198  : 			{
; 199  : 				pUndoRedoInfo_InList = undoredoInfoList.GetNext(pos);

  00170	8b 41 08	 mov	 eax, DWORD PTR [ecx+8]
; File C:\Program Files (x86)\Microsoft Visual Studio\2019\Community\VC\Tools\MSVC\14.29.30133\atlmfc\include\afxtempl.h

; 813  : 		rPosition = (POSITION) pNode->pNext;

  00173	8b 09		 mov	 ecx, DWORD PTR [ecx]
; File D:\git\src\IBK\IBK_DRFN\ProjSrc\SrcChartEx\ChartAddIn\ChartAnalysisToolAddIn\Symbol\UndoRedoManager.cpp

; 201  : 				if(pUndoRedoInfo == pUndoRedoInfo_InList)

  00175	3b f0		 cmp	 esi, eax
  00177	74 25		 je	 SHORT $LN75@ChangeUndo

; 197  : 			while(pos)

  00179	85 c9		 test	 ecx, ecx
  0017b	75 f3		 jne	 SHORT $LL4@ChangeUndo
$LN5@ChangeUndo:

; 87   : 	return m_strSymbolData;

  0017d	8d 46 10	 lea	 eax, DWORD PTR [esi+16]
  00180	50		 push	 eax
  00181	8d 4d f0	 lea	 ecx, DWORD PTR _strSymbolData$4[ebp]
  00184	ff 15 00 00 00
	00		 call	 DWORD PTR __imp_??0?$CStringT@DV?$StrTraitMFC_DLL@DV?$ChTraitsCRT@D@ATL@@@@@ATL@@QAE@ABV01@@Z
; File C:\Program Files (x86)\Microsoft Visual Studio\2019\Community\VC\Tools\MSVC\14.29.30133\atlmfc\include\atlsimpstr.h

; 533  : 		return( GetLength() == 0 );

  0018a	8b 45 f0	 mov	 eax, DWORD PTR _strSymbolData$4[ebp]
; File D:\git\src\IBK\IBK_DRFN\ProjSrc\SrcChartEx\ChartAddIn\ChartAnalysisToolAddIn\Symbol\UndoRedoManager.cpp

; 209  : 			CString strSymbolData = pUndoRedoInfo->GetSymbolData();

  0018d	c6 45 fc 01	 mov	 BYTE PTR __$EHRec$[ebp+8], 1
; File C:\Program Files (x86)\Microsoft Visual Studio\2019\Community\VC\Tools\MSVC\14.29.30133\atlmfc\include\atlsimpstr.h

; 533  : 		return( GetLength() == 0 );

  00191	83 78 f4 00	 cmp	 DWORD PTR [eax-12], 0
; File D:\git\src\IBK\IBK_DRFN\ProjSrc\SrcChartEx\ChartAddIn\ChartAnalysisToolAddIn\Symbol\UndoRedoManager.cpp

; 210  : 			if(strSymbolData.IsEmpty())			return FALSE;

  00195	75 1f		 jne	 SHORT $LN17@ChangeUndo
  00197	33 f6		 xor	 esi, esi
  00199	e9 80 00 00 00	 jmp	 $LN30@ChangeUndo
$LN75@ChangeUndo:

; 202  : 				{
; 203  : 					m_pSymbolData->GetElementTree()->DeleteCurrentDrawingSymbol((CDrawingSymbol*)pUndoRedoInfo_InList->GetSymbolAddress());

  0019e	ff 70 0c	 push	 DWORD PTR [eax+12]
  001a1	8b 0b		 mov	 ecx, DWORD PTR [ebx]
  001a3	e8 00 00 00 00	 call	 ?GetElementTree@CSymbolData@@QAEPAVCElementTree@@XZ ; CSymbolData::GetElementTree
  001a8	8b c8		 mov	 ecx, eax
  001aa	e8 00 00 00 00	 call	 ?DeleteCurrentDrawingSymbol@CElementTree@@QAE_NPBVCDrawingSymbol@@@Z ; CElementTree::DeleteCurrentDrawingSymbol
  001af	be 01 00 00 00	 mov	 esi, 1
  001b4	eb 71		 jmp	 SHORT $LN29@ChangeUndo
$LN17@ChangeUndo:

; 211  : 			CElementSaverBuilder builder;
; 212  : 			long lNewSymbolAddress = builder.BuildSymbolsFromString_ForUndoRedo(*m_pSymbolData, pUndoRedoInfo->GetBlockIndex(), strSymbolData, m_pSymbolData->GetElementTree()->GetTree(), m_pSymbolData->GetElementTree()->GetOrder());

  001b6	8b 0b		 mov	 ecx, DWORD PTR [ebx]
  001b8	e8 00 00 00 00	 call	 ?GetElementTree@CSymbolData@@QAEPAVCElementTree@@XZ ; CSymbolData::GetElementTree
  001bd	8b c8		 mov	 ecx, eax
  001bf	e8 00 00 00 00	 call	 ?GetOrder@CElementTree@@QAEAAVCOrder@@XZ ; CElementTree::GetOrder
  001c4	8b 0b		 mov	 ecx, DWORD PTR [ebx]
  001c6	50		 push	 eax
  001c7	e8 00 00 00 00	 call	 ?GetElementTree@CSymbolData@@QAEPAVCElementTree@@XZ ; CSymbolData::GetElementTree
  001cc	8b c8		 mov	 ecx, eax
  001ce	e8 00 00 00 00	 call	 ?GetTree@CElementTree@@QAEAAVCTree@@XZ ; CElementTree::GetTree
  001d3	50		 push	 eax
  001d4	8d 45 f0	 lea	 eax, DWORD PTR _strSymbolData$4[ebp]
  001d7	50		 push	 eax
  001d8	57		 push	 edi
  001d9	ff 33		 push	 DWORD PTR [ebx]
  001db	8d 4d 0b	 lea	 ecx, DWORD PTR _builder$6[ebp]
  001de	e8 00 00 00 00	 call	 ?BuildSymbolsFromString_ForUndoRedo@CElementSaverBuilder@@QAEJAAVCSymbolData@@ABVCBlockIndex@@AAV?$CStringT@DV?$StrTraitMFC_DLL@DV?$ChTraitsCRT@D@ATL@@@@@ATL@@AAVCTree@@AAVCOrder@@@Z ; CElementSaverBuilder::BuildSymbolsFromString_ForUndoRedo

; 213  : 
; 214  : 			// Symbol Address 
; 215  : 			long lUndoRedoInfo_Origin = pUndoRedoInfo->GetSymbolAddress();
; 216  : 			pos = m_UndoList.GetHeadPosition();

  001e3	8b 53 08	 mov	 edx, DWORD PTR [ebx+8]
  001e6	8b f8		 mov	 edi, eax
  001e8	8b 76 0c	 mov	 esi, DWORD PTR [esi+12]

; 217  : 			while(pos)

  001eb	85 d2		 test	 edx, edx
  001ed	74 12		 je	 SHORT $LN7@ChangeUndo
  001ef	90		 npad	 1
$LL6@ChangeUndo:

; 218  : 			{
; 219  : 				pUndoRedoInfo_InList = m_UndoList.GetNext(pos);

  001f0	8b 42 08	 mov	 eax, DWORD PTR [edx+8]
; File C:\Program Files (x86)\Microsoft Visual Studio\2019\Community\VC\Tools\MSVC\14.29.30133\atlmfc\include\afxtempl.h

; 813  : 		rPosition = (POSITION) pNode->pNext;

  001f3	8b 12		 mov	 edx, DWORD PTR [edx]
; File D:\git\src\IBK\IBK_DRFN\ProjSrc\SrcChartEx\ChartAddIn\ChartAnalysisToolAddIn\Symbol\UndoRedoManager.cpp

; 220  : 				if(lUndoRedoInfo_Origin == pUndoRedoInfo_InList->GetSymbolAddress())

  001f5	3b 70 0c	 cmp	 esi, DWORD PTR [eax+12]
  001f8	75 03		 jne	 SHORT $LN95@ChangeUndo

; 221  : 					pUndoRedoInfo_InList->SetSymbolAddress(lNewSymbolAddress);

  001fa	89 78 0c	 mov	 DWORD PTR [eax+12], edi
$LN95@ChangeUndo:

; 217  : 			while(pos)

  001fd	85 d2		 test	 edx, edx
  001ff	75 ef		 jne	 SHORT $LL6@ChangeUndo
$LN7@ChangeUndo:

; 222  : 			}
; 223  : 			pos = m_RedoList.GetHeadPosition();

  00201	8b 4b 24	 mov	 ecx, DWORD PTR [ebx+36]

; 224  : 			while(pos)

  00204	85 c9		 test	 ecx, ecx
  00206	74 11		 je	 SHORT $LN9@ChangeUndo
$LL8@ChangeUndo:

; 225  : 			{
; 226  : 				pUndoRedoInfo_InList = m_RedoList.GetNext(pos);

  00208	8b 41 08	 mov	 eax, DWORD PTR [ecx+8]
; File C:\Program Files (x86)\Microsoft Visual Studio\2019\Community\VC\Tools\MSVC\14.29.30133\atlmfc\include\afxtempl.h

; 813  : 		rPosition = (POSITION) pNode->pNext;

  0020b	8b 09		 mov	 ecx, DWORD PTR [ecx]
; File D:\git\src\IBK\IBK_DRFN\ProjSrc\SrcChartEx\ChartAddIn\ChartAnalysisToolAddIn\Symbol\UndoRedoManager.cpp

; 227  : 				if(lUndoRedoInfo_Origin == pUndoRedoInfo_InList->GetSymbolAddress())

  0020d	3b 70 0c	 cmp	 esi, DWORD PTR [eax+12]
  00210	75 03		 jne	 SHORT $LN96@ChangeUndo

; 228  : 					pUndoRedoInfo_InList->SetSymbolAddress(lNewSymbolAddress);

  00212	89 78 0c	 mov	 DWORD PTR [eax+12], edi
$LN96@ChangeUndo:

; 224  : 			while(pos)

  00215	85 c9		 test	 ecx, ecx
  00217	75 ef		 jne	 SHORT $LL8@ChangeUndo
$LN9@ChangeUndo:

; 229  : 			}
; 230  : 
; 231  : 			return TRUE;

  00219	be 01 00 00 00	 mov	 esi, 1
$LN30@ChangeUndo:
  0021e	8d 4d f0	 lea	 ecx, DWORD PTR _strSymbolData$4[ebp]
  00221	ff 15 00 00 00
	00		 call	 DWORD PTR __imp_??1?$CStringT@DV?$StrTraitMFC_DLL@DV?$ChTraitsCRT@D@ATL@@@@@ATL@@QAE@XZ
$LN29@ChangeUndo:
  00227	8d 4d d4	 lea	 ecx, DWORD PTR _undoredoInfoList$2[ebp]
  0022a	e8 00 00 00 00	 call	 ??1?$CList@PAVCUndo_Redo_Info@@PAV1@@@UAE@XZ ; CList<CUndo_Redo_Info *,CUndo_Redo_Info *>::~CList<CUndo_Redo_Info *,CUndo_Redo_Info *>
$LN98@ChangeUndo:

; 265  : 		}
; 266  : 		break;
; 267  : 	}
; 268  : 
; 269  : 	return FALSE;
; 270  : }

  0022f	8b c6		 mov	 eax, esi
  00231	8b 4d f4	 mov	 ecx, DWORD PTR __$EHRec$[ebp]
  00234	64 89 0d 00 00
	00 00		 mov	 DWORD PTR fs:0, ecx
  0023b	59		 pop	 ecx
  0023c	5f		 pop	 edi
  0023d	5e		 pop	 esi
  0023e	5b		 pop	 ebx
  0023f	8b e5		 mov	 esp, ebp
  00241	5d		 pop	 ebp
  00242	c2 04 00	 ret	 4
_TEXT	ENDS
;	COMDAT text$x
text$x	SEGMENT
__unwindfunclet$?ChangeUndoInfo@CUndoRedoManager@@QAEHJ@Z$2:
  00000	8d 4d f0	 lea	 ecx, DWORD PTR _strSymbolData_Prev$3[ebp]
  00003	ff 25 00 00 00
	00		 jmp	 DWORD PTR __imp_??1?$CStringT@DV?$StrTraitMFC_DLL@DV?$ChTraitsCRT@D@ATL@@@@@ATL@@QAE@XZ
__unwindfunclet$?ChangeUndoInfo@CUndoRedoManager@@QAEHJ@Z$0:
  00009	8d 4d d4	 lea	 ecx, DWORD PTR _undoredoInfoList$2[ebp]
  0000c	e9 00 00 00 00	 jmp	 ??1?$CList@PAVCUndo_Redo_Info@@PAV1@@@UAE@XZ ; CList<CUndo_Redo_Info *,CUndo_Redo_Info *>::~CList<CUndo_Redo_Info *,CUndo_Redo_Info *>
__unwindfunclet$?ChangeUndoInfo@CUndoRedoManager@@QAEHJ@Z$1:
  00011	8d 4d f0	 lea	 ecx, DWORD PTR _strSymbolData$4[ebp]
  00014	ff 25 00 00 00
	00		 jmp	 DWORD PTR __imp_??1?$CStringT@DV?$StrTraitMFC_DLL@DV?$ChTraitsCRT@D@ATL@@@@@ATL@@QAE@XZ
  0001a	cc		 int	 3
  0001b	cc		 int	 3
  0001c	cc		 int	 3
  0001d	cc		 int	 3
  0001e	cc		 int	 3
__ehhandler$?ChangeUndoInfo@CUndoRedoManager@@QAEHJ@Z:
  0001f	90		 npad	 1
  00020	90		 npad	 1
  00021	8b 54 24 08	 mov	 edx, DWORD PTR [esp+8]
  00025	8d 42 0c	 lea	 eax, DWORD PTR [edx+12]
  00028	8b 4a d0	 mov	 ecx, DWORD PTR [edx-48]
  0002b	33 c8		 xor	 ecx, eax
  0002d	e8 00 00 00 00	 call	 @__security_check_cookie@4
  00032	b8 00 00 00 00	 mov	 eax, OFFSET __ehfuncinfo$?ChangeUndoInfo@CUndoRedoManager@@QAEHJ@Z
  00037	e9 00 00 00 00	 jmp	 ___CxxFrameHandler3
text$x	ENDS
?ChangeUndoInfo@CUndoRedoManager@@QAEHJ@Z ENDP		; CUndoRedoManager::ChangeUndoInfo
; Function compile flags: /Ogtp
; File D:\git\src\IBK\IBK_DRFN\ProjSrc\SrcChartEx\ChartAddIn\ChartAnalysisToolAddIn\Symbol\UndoRedoManager.cpp
; File C:\Program Files (x86)\Microsoft Visual Studio\2019\Community\VC\Tools\MSVC\14.29.30133\atlmfc\include\afxtempl.h
; File D:\git\src\IBK\IBK_DRFN\ProjSrc\SrcChartEx\ChartAddIn\ChartAnalysisToolAddIn\Symbol\UndoRedoManager.cpp
; File C:\Program Files (x86)\Microsoft Visual Studio\2019\Community\VC\Tools\MSVC\14.29.30133\atlmfc\include\afxtempl.h
; File D:\git\src\IBK\IBK_DRFN\ProjSrc\SrcChartEx\ChartAddIn\ChartAnalysisToolAddIn\Symbol\UndoRedoManager.cpp
;	COMDAT ?UnRegisterElementToUnRedoManager@CUndoRedoManager@@QAEXJ@Z
_TEXT	SEGMENT
_lUndoRedoInfoAdress$ = 8				; size = 4
?UnRegisterElementToUnRedoManager@CUndoRedoManager@@QAEXJ@Z PROC ; CUndoRedoManager::UnRegisterElementToUnRedoManager, COMDAT
; _this$ = ecx

; 151  : {

  00000	55		 push	 ebp
  00001	8b ec		 mov	 ebp, esp
  00003	51		 push	 ecx
  00004	56		 push	 esi
  00005	8b f1		 mov	 esi, ecx

; 152  : 	if(lUndoRedoInfoAdress == 0)

  00007	8b 4d 08	 mov	 ecx, DWORD PTR _lUndoRedoInfoAdress$[ebp]
  0000a	85 c9		 test	 ecx, ecx
  0000c	0f 84 f1 00 00
	00		 je	 $LN1@UnRegister

; 153  : 		return;	
; 154  : 
; 155  : 	CUndo_Redo_Info* pUndoRedoInfo = NULL;
; 156  : 	POSITION pos = m_UndoList.GetHeadPosition();

  00012	57		 push	 edi
  00013	8b 7e 08	 mov	 edi, DWORD PTR [esi+8]
  00016	8b c7		 mov	 eax, edi

; 157  : 	while(pos)

  00018	85 c0		 test	 eax, eax
  0001a	0f 84 af 00 00
	00		 je	 $LN43@UnRegister
  00020	53		 push	 ebx
$LL2@UnRegister:

; 158  : 	{
; 159  : 		pUndoRedoInfo = m_UndoList.GetAt(pos);

  00021	8b 58 08	 mov	 ebx, DWORD PTR [eax+8]

; 160  : 		if(pUndoRedoInfo && pUndoRedoInfo == (CUndo_Redo_Info*)lUndoRedoInfoAdress)

  00024	85 db		 test	 ebx, ebx
  00026	74 04		 je	 SHORT $LN5@UnRegister
  00028	3b d9		 cmp	 ebx, ecx
  0002a	74 0b		 je	 SHORT $LN35@UnRegister
$LN5@UnRegister:
; File C:\Program Files (x86)\Microsoft Visual Studio\2019\Community\VC\Tools\MSVC\14.29.30133\atlmfc\include\afxtempl.h

; 813  : 		rPosition = (POSITION) pNode->pNext;

  0002c	8b 00		 mov	 eax, DWORD PTR [eax]
; File D:\git\src\IBK\IBK_DRFN\ProjSrc\SrcChartEx\ChartAddIn\ChartAnalysisToolAddIn\Symbol\UndoRedoManager.cpp

; 157  : 	while(pos)

  0002e	85 c0		 test	 eax, eax
  00030	75 ef		 jne	 SHORT $LL2@UnRegister
  00032	e9 97 00 00 00	 jmp	 $LN44@UnRegister
$LN35@UnRegister:
; File C:\Program Files (x86)\Microsoft Visual Studio\2019\Community\VC\Tools\MSVC\14.29.30133\atlmfc\include\afxtempl.h

; 1107 : 	if (pOldNode == m_pNodeHead)

  00037	8b 10		 mov	 edx, DWORD PTR [eax]
  00039	3b c7		 cmp	 eax, edi
  0003b	75 05		 jne	 SHORT $LN10@UnRegister

; 1108 : 	{
; 1109 : 		m_pNodeHead = pOldNode->pNext;

  0003d	89 56 08	 mov	 DWORD PTR [esi+8], edx

; 1110 : 	}

  00040	eb 05		 jmp	 SHORT $LN11@UnRegister
$LN10@UnRegister:

; 1111 : 	else
; 1112 : 	{
; 1113 : 		ASSERT(AfxIsValidAddress(pOldNode->pPrev, sizeof(CNode)));
; 1114 : 		pOldNode->pPrev->pNext = pOldNode->pNext;

  00042	8b 48 04	 mov	 ecx, DWORD PTR [eax+4]
  00045	89 11		 mov	 DWORD PTR [ecx], edx
$LN11@UnRegister:

; 1115 : 	}
; 1116 : 	if (pOldNode == m_pNodeTail)

  00047	8b 50 04	 mov	 edx, DWORD PTR [eax+4]
  0004a	3b 46 0c	 cmp	 eax, DWORD PTR [esi+12]
  0004d	75 05		 jne	 SHORT $LN12@UnRegister

; 1117 : 	{
; 1118 : 		m_pNodeTail = pOldNode->pPrev;

  0004f	89 56 0c	 mov	 DWORD PTR [esi+12], edx

; 1119 : 	}

  00052	eb 05		 jmp	 SHORT $LN13@UnRegister
$LN12@UnRegister:

; 1120 : 	else
; 1121 : 	{
; 1122 : 		ASSERT(AfxIsValidAddress(pOldNode->pNext, sizeof(CNode)));
; 1123 : 		pOldNode->pNext->pPrev = pOldNode->pPrev;

  00054	8b 08		 mov	 ecx, DWORD PTR [eax]
  00056	89 51 04	 mov	 DWORD PTR [ecx+4], edx
$LN13@UnRegister:

; 938  : 	pNode->pNext = m_pNodeFree;

  00059	8b 4e 14	 mov	 ecx, DWORD PTR [esi+20]
  0005c	89 08		 mov	 DWORD PTR [eax], ecx

; 939  : 	m_pNodeFree = pNode;
; 940  : 	m_nCount--;

  0005e	83 46 10 ff	 add	 DWORD PTR [esi+16], -1
  00062	89 46 14	 mov	 DWORD PTR [esi+20], eax

; 941  : 	ASSERT(m_nCount >= 0);  // make sure we don't underflow
; 942  : 
; 943  : 	// if no more elements, cleanup completely
; 944  : 	if (m_nCount == 0)

  00065	75 2b		 jne	 SHORT $LN16@UnRegister

; 872  : 	m_pBlocks->FreeDataChain();

  00067	8b 4e 18	 mov	 ecx, DWORD PTR [esi+24]
  0006a	c7 46 10 00 00
	00 00		 mov	 DWORD PTR [esi+16], 0
  00071	c7 46 14 00 00
	00 00		 mov	 DWORD PTR [esi+20], 0
  00078	c7 46 0c 00 00
	00 00		 mov	 DWORD PTR [esi+12], 0
  0007f	c7 46 08 00 00
	00 00		 mov	 DWORD PTR [esi+8], 0
  00086	e8 00 00 00 00	 call	 ?FreeDataChain@CPlex@@QAEXXZ ; CPlex::FreeDataChain

; 873  : 	m_pBlocks = NULL;

  0008b	c7 46 18 00 00
	00 00		 mov	 DWORD PTR [esi+24], 0
$LN16@UnRegister:
; File D:\git\src\IBK\IBK_DRFN\ProjSrc\SrcChartEx\ChartAddIn\ChartAnalysisToolAddIn\Symbol\UndoRedoManager.cpp

; 42   : 	m_strSymbolData.Empty();

  00092	8d 4b 10	 lea	 ecx, DWORD PTR [ebx+16]
  00095	c7 03 00 00 00
	00		 mov	 DWORD PTR [ebx], 0
  0009b	c7 43 0c 00 00
	00 00		 mov	 DWORD PTR [ebx+12], 0
  000a2	ff 15 00 00 00
	00		 call	 DWORD PTR __imp_?Empty@?$CSimpleStringT@D$00@ATL@@QAEXXZ

; 43   : 	m_strSymbolData_Prev.Empty();

  000a8	8d 4b 14	 lea	 ecx, DWORD PTR [ebx+20]
  000ab	ff 15 00 00 00
	00		 call	 DWORD PTR __imp_?Empty@?$CSimpleStringT@D$00@ATL@@QAEXXZ

; 44   : }

  000b1	8d 4b 14	 lea	 ecx, DWORD PTR [ebx+20]
  000b4	ff 15 00 00 00
	00		 call	 DWORD PTR __imp_??1?$CStringT@DV?$StrTraitMFC_DLL@DV?$ChTraitsCRT@D@ATL@@@@@ATL@@QAE@XZ
  000ba	8d 4b 10	 lea	 ecx, DWORD PTR [ebx+16]
  000bd	ff 15 00 00 00
	00		 call	 DWORD PTR __imp_??1?$CStringT@DV?$StrTraitMFC_DLL@DV?$ChTraitsCRT@D@ATL@@@@@ATL@@QAE@XZ
  000c3	6a 18		 push	 24			; 00000018H
  000c5	53		 push	 ebx
  000c6	e8 00 00 00 00	 call	 ??3@YAXPAXI@Z		; operator delete
  000cb	83 c4 08	 add	 esp, 8
$LN44@UnRegister:
  000ce	5b		 pop	 ebx
$LN43@UnRegister:

; 161  : 		{
; 162  : 			m_UndoList.RemoveAt(pos);
; 163  : 
; 164  : 			delete pUndoRedoInfo;
; 165  : 			pUndoRedoInfo = NULL;
; 166  : 			break;
; 167  : 		}
; 168  : 		m_UndoList.GetNext(pos);
; 169  : 	}
; 170  : 	
; 171  : 	IChartOCX* pIChartOCX = m_pSymbolData->GetChartOCX();

  000cf	8b 0e		 mov	 ecx, DWORD PTR [esi]
  000d1	e8 00 00 00 00	 call	 ?GetChartOCX@CSymbolData@@QBEPAUIChartOCX133101@@XZ ; CSymbolData::GetChartOCX
  000d6	8b f8		 mov	 edi, eax

; 172  : 	IAddInToolMgr* pAddInToolManager = pIChartOCX->GetIAddInToolMgr();

  000d8	8b cf		 mov	 ecx, edi
  000da	8b 17		 mov	 edx, DWORD PTR [edi]
  000dc	ff 52 28	 call	 DWORD PTR [edx+40]

; 173  : 	pAddInToolManager->OnAddInToolCommand(EAI_UNDO_REDO_MANAGER_DELETE_REDO_WORK_LIST,//EAI_UNDO_REDO_MANAGER_DELETE_WORK_THIS,

  000df	ff 75 08	 push	 DWORD PTR _lUndoRedoInfoAdress$[ebp]
  000e2	8b f0		 mov	 esi, eax
  000e4	ff 35 00 00 00
	00		 push	 DWORD PTR ?m_strAddInItemName@CSymbolData@@2V?$CStringT@DV?$StrTraitMFC_DLL@DV?$ChTraitsCRT@D@ATL@@@@@ATL@@A ; CSymbolData::m_strAddInItemName
  000ea	8b ce		 mov	 ecx, esi
  000ec	6a 35		 push	 53			; 00000035H
  000ee	8b 16		 mov	 edx, DWORD PTR [esi]
  000f0	ff 92 a0 00 00
	00		 call	 DWORD PTR [edx+160]

; 174  : 															m_pSymbolData->m_strAddInItemName, lUndoRedoInfoAdress);
; 175  : 	pAddInToolManager->Release();

  000f6	8b 0e		 mov	 ecx, DWORD PTR [esi]
  000f8	56		 push	 esi
  000f9	ff 51 08	 call	 DWORD PTR [ecx+8]

; 176  : 	pIChartOCX->Release();

  000fc	8b 07		 mov	 eax, DWORD PTR [edi]
  000fe	57		 push	 edi
  000ff	ff 50 08	 call	 DWORD PTR [eax+8]
  00102	5f		 pop	 edi
$LN1@UnRegister:
  00103	5e		 pop	 esi

; 177  : }

  00104	8b e5		 mov	 esp, ebp
  00106	5d		 pop	 ebp
  00107	c2 04 00	 ret	 4
?UnRegisterElementToUnRedoManager@CUndoRedoManager@@QAEXJ@Z ENDP ; CUndoRedoManager::UnRegisterElementToUnRedoManager
_TEXT	ENDS
; Function compile flags: /Ogtp
; File D:\git\src\IBK\IBK_DRFN\ProjSrc\SrcChartEx\ChartAddIn\ChartAnalysisToolAddIn\Symbol\UndoRedoManager.cpp
; File D:\git\src\IBK\IBK_DRFN\ProjSrc\SrcChartEx\ChartAddIn\ChartAnalysisToolAddIn\Include_Chart\BlockBaseData.h
; File D:\git\src\IBK\IBK_DRFN\ProjSrc\SrcChartEx\ChartAddIn\ChartAnalysisToolAddIn\Symbol\UndoRedoManager.cpp
; File D:\git\src\IBK\IBK_DRFN\ProjSrc\SrcChartEx\ChartAddIn\ChartAnalysisToolAddIn\Include_Chart\BlockBaseData.h
; File D:\git\src\IBK\IBK_DRFN\ProjSrc\SrcChartEx\ChartAddIn\ChartAnalysisToolAddIn\Symbol\UndoRedoManager.cpp
;	COMDAT ?RegisterElementToUnRedoManager@CUndoRedoManager@@QAEXHJPBD0@Z
_TEXT	SEGMENT
$T2 = -28						; size = 8
_this$1$ = -24						; size = 4
$T3 = -20						; size = 4
$T4 = -20						; size = 4
_strSymbolData$ = -16					; size = 4
__$EHRec$ = -12						; size = 12
_nUndoRedoType$ = 8					; size = 4
_lSymbolAddress$ = 12					; size = 4
$T5 = 16						; size = 4
_lpszSymbolData_Prev$ = 16				; size = 4
$T6 = 20						; size = 4
_lpszSymbolData$ = 20					; size = 4
_builder$7 = 23						; size = 1
?RegisterElementToUnRedoManager@CUndoRedoManager@@QAEXHJPBD0@Z PROC ; CUndoRedoManager::RegisterElementToUnRedoManager, COMDAT
; _this$ = ecx

; 116  : {

  00000	55		 push	 ebp
  00001	8b ec		 mov	 ebp, esp
  00003	6a ff		 push	 -1
  00005	68 00 00 00 00	 push	 __ehhandler$?RegisterElementToUnRedoManager@CUndoRedoManager@@QAEXHJPBD0@Z
  0000a	64 a1 00 00 00
	00		 mov	 eax, DWORD PTR fs:0
  00010	50		 push	 eax
  00011	83 ec 10	 sub	 esp, 16			; 00000010H
  00014	53		 push	 ebx
  00015	56		 push	 esi
  00016	57		 push	 edi
  00017	a1 00 00 00 00	 mov	 eax, DWORD PTR ___security_cookie
  0001c	33 c5		 xor	 eax, ebp
  0001e	50		 push	 eax
  0001f	8d 45 f4	 lea	 eax, DWORD PTR __$EHRec$[ebp]
  00022	64 a3 00 00 00
	00		 mov	 DWORD PTR fs:0, eax
  00028	8b f9		 mov	 edi, ecx
  0002a	89 7d e8	 mov	 DWORD PTR _this$1$[ebp], edi

; 117  : 	if(lSymbolAddress == 0)

  0002d	8b 5d 0c	 mov	 ebx, DWORD PTR _lSymbolAddress$[ebp]
  00030	85 db		 test	 ebx, ebx
  00032	0f 84 ad 01 00
	00		 je	 $LN1@RegisterEl

; 118  : 		return;
; 119  : 
; 120  : 	CString strSymbolData;

  00038	8d 4d f0	 lea	 ecx, DWORD PTR _strSymbolData$[ebp]
  0003b	ff 15 00 00 00
	00		 call	 DWORD PTR __imp_??0?$CStringT@DV?$StrTraitMFC_DLL@DV?$ChTraitsCRT@D@ATL@@@@@ATL@@QAE@XZ

; 121  : 	if(lpszSymbolData)

  00041	8b 45 14	 mov	 eax, DWORD PTR _lpszSymbolData$[ebp]
  00044	c7 45 fc 00 00
	00 00		 mov	 DWORD PTR __$EHRec$[ebp+8], 0
  0004b	85 c0		 test	 eax, eax
  0004d	74 0c		 je	 SHORT $LN3@RegisterEl

; 122  : 		strSymbolData = lpszSymbolData;

  0004f	50		 push	 eax
  00050	8d 4d f0	 lea	 ecx, DWORD PTR _strSymbolData$[ebp]
  00053	ff 15 00 00 00
	00		 call	 DWORD PTR __imp_??4?$CStringT@DV?$StrTraitMFC_DLL@DV?$ChTraitsCRT@D@ATL@@@@@ATL@@QAEAAV01@PBD@Z
  00059	eb 37		 jmp	 SHORT $LN4@RegisterEl
$LN3@RegisterEl:

; 480  : 	return m_pSymbolData->GetElementTree()->GetOrder();

  0005b	8b 0f		 mov	 ecx, DWORD PTR [edi]
  0005d	e8 00 00 00 00	 call	 ?GetElementTree@CSymbolData@@QAEPAVCElementTree@@XZ ; CSymbolData::GetElementTree
  00062	8b c8		 mov	 ecx, eax
  00064	e8 00 00 00 00	 call	 ?GetOrder@CElementTree@@QAEAAVCOrder@@XZ ; CElementTree::GetOrder

; 123  : 	else
; 124  : 	{
; 125  : 		CElementSaverBuilder builder;
; 126  : 		strSymbolData = builder.GetSavedSymbolData_ForUndoRedo(GetOrder(), (CDrawingSymbol*)lSymbolAddress);

  00069	53		 push	 ebx
  0006a	50		 push	 eax
  0006b	8d 45 ec	 lea	 eax, DWORD PTR $T4[ebp]
  0006e	50		 push	 eax
  0006f	8d 4d 17	 lea	 ecx, DWORD PTR _builder$7[ebp]
  00072	e8 00 00 00 00	 call	 ?GetSavedSymbolData_ForUndoRedo@CElementSaverBuilder@@QAE?AV?$CStringT@DV?$StrTraitMFC_DLL@DV?$ChTraitsCRT@D@ATL@@@@@ATL@@ABVCOrder@@PAVCDrawingSymbol@@@Z ; CElementSaverBuilder::GetSavedSymbolData_ForUndoRedo
  00077	50		 push	 eax
  00078	8d 4d f0	 lea	 ecx, DWORD PTR _strSymbolData$[ebp]
  0007b	c6 45 fc 01	 mov	 BYTE PTR __$EHRec$[ebp+8], 1
  0007f	ff 15 00 00 00
	00		 call	 DWORD PTR __imp_??4?$CStringT@DV?$StrTraitMFC_DLL@DV?$ChTraitsCRT@D@ATL@@@@@ATL@@QAEAAV01@ABV01@@Z
  00085	8d 4d ec	 lea	 ecx, DWORD PTR $T4[ebp]
  00088	c6 45 fc 00	 mov	 BYTE PTR __$EHRec$[ebp+8], 0
  0008c	ff 15 00 00 00
	00		 call	 DWORD PTR __imp_??1?$CStringT@DV?$StrTraitMFC_DLL@DV?$ChTraitsCRT@D@ATL@@@@@ATL@@QAE@XZ
$LN4@RegisterEl:

; 127  : 	}
; 128  : 
; 129  : 	if(lpszSymbolData_Prev != NULL && strSymbolData.Compare(lpszSymbolData_Prev) == NULL)

  00092	8b 75 10	 mov	 esi, DWORD PTR _lpszSymbolData_Prev$[ebp]
  00095	85 f6		 test	 esi, esi
  00097	74 12		 je	 SHORT $LN5@RegisterEl
  00099	56		 push	 esi
  0009a	8d 4d f0	 lea	 ecx, DWORD PTR _strSymbolData$[ebp]
  0009d	ff 15 00 00 00
	00		 call	 DWORD PTR __imp_?Compare@?$CStringT@DV?$StrTraitMFC_DLL@DV?$ChTraitsCRT@D@ATL@@@@@ATL@@QBEHPBD@Z
  000a3	85 c0		 test	 eax, eax
  000a5	0f 84 31 01 00
	00		 je	 $LN18@RegisterEl
$LN5@RegisterEl:

; 130  : 		return;
; 131  : 	
; 132  : 	CUndo_Redo_Info* pUndoRedoInfo = new CUndo_Redo_Info(nUndoRedoType, lSymbolAddress, strSymbolData, lpszSymbolData_Prev);

  000ab	6a 18		 push	 24			; 00000018H
  000ad	e8 00 00 00 00	 call	 ??2@YAPAXI@Z		; operator new
  000b2	8b d8		 mov	 ebx, eax
  000b4	83 c4 04	 add	 esp, 4
  000b7	89 5d ec	 mov	 DWORD PTR $T3[ebp], ebx
  000ba	c6 45 fc 02	 mov	 BYTE PTR __$EHRec$[ebp+8], 2
  000be	85 db		 test	 ebx, ebx
  000c0	74 7b		 je	 SHORT $LN8@RegisterEl
  000c2	56		 push	 esi
  000c3	8d 4d 10	 lea	 ecx, DWORD PTR $T5[ebp]
  000c6	ff 15 00 00 00
	00		 call	 DWORD PTR __imp_??0?$CStringT@DV?$StrTraitMFC_DLL@DV?$ChTraitsCRT@D@ATL@@@@@ATL@@QAE@PBD@Z
  000cc	8d 45 f0	 lea	 eax, DWORD PTR _strSymbolData$[ebp]
  000cf	c6 45 fc 03	 mov	 BYTE PTR __$EHRec$[ebp+8], 3
  000d3	50		 push	 eax
  000d4	8d 4d 14	 lea	 ecx, DWORD PTR $T6[ebp]
  000d7	ff 15 00 00 00
	00		 call	 DWORD PTR __imp_??0?$CStringT@DV?$StrTraitMFC_DLL@DV?$ChTraitsCRT@D@ATL@@@@@ATL@@QAE@ABV01@@Z

; 31   : {

  000dd	8d 4b 10	 lea	 ecx, DWORD PTR [ebx+16]
; File D:\git\src\IBK\IBK_DRFN\ProjSrc\SrcChartEx\ChartAddIn\ChartAnalysisToolAddIn\Include_Chart\BlockBaseData.h

; 19   : 	CBlockIndex() { m_nRow = m_nColumn = -1; };

  000e0	c7 43 08 ff ff
	ff ff		 mov	 DWORD PTR [ebx+8], -1
  000e7	c7 43 04 ff ff
	ff ff		 mov	 DWORD PTR [ebx+4], -1
; File D:\git\src\IBK\IBK_DRFN\ProjSrc\SrcChartEx\ChartAddIn\ChartAnalysisToolAddIn\Symbol\UndoRedoManager.cpp

; 31   : {

  000ee	ff 15 00 00 00
	00		 call	 DWORD PTR __imp_??0?$CStringT@DV?$StrTraitMFC_DLL@DV?$ChTraitsCRT@D@ATL@@@@@ATL@@QAE@XZ
  000f4	8d 4b 14	 lea	 ecx, DWORD PTR [ebx+20]
  000f7	ff 15 00 00 00
	00		 call	 DWORD PTR __imp_??0?$CStringT@DV?$StrTraitMFC_DLL@DV?$ChTraitsCRT@D@ATL@@@@@ATL@@QAE@XZ

; 32   : 	SetUndoRedoType(nUndoRedoType);

  000fd	8b 45 08	 mov	 eax, DWORD PTR _nUndoRedoType$[ebp]

; 33   : 	m_lSymbolAddress = lSymbolAddress;
; 34   : 	m_strSymbolData = strSymbolData;

  00100	8d 4b 10	 lea	 ecx, DWORD PTR [ebx+16]
  00103	89 03		 mov	 DWORD PTR [ebx], eax
  00105	8b 45 0c	 mov	 eax, DWORD PTR _lSymbolAddress$[ebp]
  00108	89 43 0c	 mov	 DWORD PTR [ebx+12], eax
  0010b	8d 45 14	 lea	 eax, DWORD PTR $T6[ebp]
  0010e	50		 push	 eax
  0010f	c6 45 fc 07	 mov	 BYTE PTR __$EHRec$[ebp+8], 7
  00113	ff 15 00 00 00
	00		 call	 DWORD PTR __imp_??4?$CStringT@DV?$StrTraitMFC_DLL@DV?$ChTraitsCRT@D@ATL@@@@@ATL@@QAEAAV01@ABV01@@Z

; 35   : 	m_strSymbolData_Prev = strSymbolData_Prev;

  00119	8d 45 10	 lea	 eax, DWORD PTR $T5[ebp]
  0011c	50		 push	 eax
  0011d	8d 4b 14	 lea	 ecx, DWORD PTR [ebx+20]
  00120	ff 15 00 00 00
	00		 call	 DWORD PTR __imp_??4?$CStringT@DV?$StrTraitMFC_DLL@DV?$ChTraitsCRT@D@ATL@@@@@ATL@@QAEAAV01@ABV01@@Z

; 36   : }

  00126	8d 4d 14	 lea	 ecx, DWORD PTR $T6[ebp]
  00129	ff 15 00 00 00
	00		 call	 DWORD PTR __imp_??1?$CStringT@DV?$StrTraitMFC_DLL@DV?$ChTraitsCRT@D@ATL@@@@@ATL@@QAE@XZ
  0012f	8d 4d 10	 lea	 ecx, DWORD PTR $T5[ebp]
  00132	ff 15 00 00 00
	00		 call	 DWORD PTR __imp_??1?$CStringT@DV?$StrTraitMFC_DLL@DV?$ChTraitsCRT@D@ATL@@@@@ATL@@QAE@XZ

; 130  : 		return;
; 131  : 	
; 132  : 	CUndo_Redo_Info* pUndoRedoInfo = new CUndo_Redo_Info(nUndoRedoType, lSymbolAddress, strSymbolData, lpszSymbolData_Prev);

  00138	8b 7d e8	 mov	 edi, DWORD PTR _this$1$[ebp]
  0013b	eb 02		 jmp	 SHORT $LN9@RegisterEl
$LN8@RegisterEl:
  0013d	33 db		 xor	 ebx, ebx
$LN9@RegisterEl:

; 133  : 	pUndoRedoInfo->SetBlockIndex(m_pSymbolData->GetBlockIndexInSymbol(pUndoRedoInfo->GetSymbolAddress()));

  0013f	ff 73 0c	 push	 DWORD PTR [ebx+12]
  00142	8b 0f		 mov	 ecx, DWORD PTR [edi]
  00144	8d 45 e4	 lea	 eax, DWORD PTR $T2[ebp]
  00147	50		 push	 eax
  00148	c6 45 fc 00	 mov	 BYTE PTR __$EHRec$[ebp+8], 0
  0014c	e8 00 00 00 00	 call	 ?GetBlockIndexInSymbol@CSymbolData@@QBE?AVCBlockIndex@@J@Z ; CSymbolData::GetBlockIndexInSymbol
  00151	8b 08		 mov	 ecx, DWORD PTR [eax]
  00153	8b 40 04	 mov	 eax, DWORD PTR [eax+4]
  00156	89 4b 04	 mov	 DWORD PTR [ebx+4], ecx
  00159	89 43 08	 mov	 DWORD PTR [ebx+8], eax
; File D:\git\src\IBK\IBK_DRFN\ProjSrc\SrcChartEx\ChartAddIn\ChartAnalysisToolAddIn\Include_Chart\BlockBaseData.h

; 32   : 	bool IsAllValueBiggerThanZero() const { return (m_nRow >= 0 && m_nColumn >= 0); };

  0015c	85 c9		 test	 ecx, ecx
  0015e	78 40		 js	 SHORT $LN31@RegisterEl
  00160	85 c0		 test	 eax, eax
  00162	78 3c		 js	 SHORT $LN31@RegisterEl
; File D:\git\src\IBK\IBK_DRFN\ProjSrc\SrcChartEx\ChartAddIn\ChartAnalysisToolAddIn\Symbol\UndoRedoManager.cpp

; 140  : 	m_UndoList.AddTail(pUndoRedoInfo);

  00164	53		 push	 ebx
  00165	8d 4f 04	 lea	 ecx, DWORD PTR [edi+4]
  00168	e8 00 00 00 00	 call	 ?AddTail@?$CList@PAVCUndo_Redo_Info@@PAV1@@@QAEPAU__POSITION@@PAVCUndo_Redo_Info@@@Z ; CList<CUndo_Redo_Info *,CUndo_Redo_Info *>::AddTail

; 141  : 
; 142  : 	IChartOCX* pIChartOCX = m_pSymbolData->GetChartOCX();

  0016d	8b 0f		 mov	 ecx, DWORD PTR [edi]
  0016f	e8 00 00 00 00	 call	 ?GetChartOCX@CSymbolData@@QBEPAUIChartOCX133101@@XZ ; CSymbolData::GetChartOCX
  00174	8b f8		 mov	 edi, eax

; 143  : 	IAddInToolMgr* pAddInToolManager = pIChartOCX->GetIAddInToolMgr();

  00176	8b cf		 mov	 ecx, edi
  00178	8b 17		 mov	 edx, DWORD PTR [edi]
  0017a	ff 52 28	 call	 DWORD PTR [edx+40]
  0017d	8b f0		 mov	 esi, eax

; 144  : 	pAddInToolManager->OnAddInToolCommand(EAI_UNDO_REDO_MANAGER_ADD_WORK_TO_MANAGER,

  0017f	53		 push	 ebx
  00180	ff 35 00 00 00
	00		 push	 DWORD PTR ?m_strAddInItemName@CSymbolData@@2V?$CStringT@DV?$StrTraitMFC_DLL@DV?$ChTraitsCRT@D@ATL@@@@@ATL@@A ; CSymbolData::m_strAddInItemName
  00186	8b ce		 mov	 ecx, esi
  00188	8b 16		 mov	 edx, DWORD PTR [esi]
  0018a	6a 34		 push	 52			; 00000034H
  0018c	ff 92 a0 00 00
	00		 call	 DWORD PTR [edx+160]

; 145  : 															m_pSymbolData->m_strAddInItemName, (long)pUndoRedoInfo);
; 146  : 	pAddInToolManager->Release();

  00192	8b 0e		 mov	 ecx, DWORD PTR [esi]
  00194	56		 push	 esi
  00195	ff 51 08	 call	 DWORD PTR [ecx+8]

; 147  : 	pIChartOCX->Release();

  00198	8b 07		 mov	 eax, DWORD PTR [edi]
  0019a	57		 push	 edi
  0019b	ff 50 08	 call	 DWORD PTR [eax+8]
  0019e	eb 3c		 jmp	 SHORT $LN18@RegisterEl
$LN31@RegisterEl:

; 42   : 	m_strSymbolData.Empty();

  001a0	8d 4b 10	 lea	 ecx, DWORD PTR [ebx+16]
  001a3	c7 03 00 00 00
	00		 mov	 DWORD PTR [ebx], 0
  001a9	c7 43 0c 00 00
	00 00		 mov	 DWORD PTR [ebx+12], 0
  001b0	ff 15 00 00 00
	00		 call	 DWORD PTR __imp_?Empty@?$CSimpleStringT@D$00@ATL@@QAEXXZ

; 43   : 	m_strSymbolData_Prev.Empty();

  001b6	8d 4b 14	 lea	 ecx, DWORD PTR [ebx+20]
  001b9	ff 15 00 00 00
	00		 call	 DWORD PTR __imp_?Empty@?$CSimpleStringT@D$00@ATL@@QAEXXZ

; 44   : }

  001bf	8d 4b 14	 lea	 ecx, DWORD PTR [ebx+20]
  001c2	ff 15 00 00 00
	00		 call	 DWORD PTR __imp_??1?$CStringT@DV?$StrTraitMFC_DLL@DV?$ChTraitsCRT@D@ATL@@@@@ATL@@QAE@XZ
  001c8	8d 4b 10	 lea	 ecx, DWORD PTR [ebx+16]
  001cb	ff 15 00 00 00
	00		 call	 DWORD PTR __imp_??1?$CStringT@DV?$StrTraitMFC_DLL@DV?$ChTraitsCRT@D@ATL@@@@@ATL@@QAE@XZ
  001d1	6a 18		 push	 24			; 00000018H
  001d3	53		 push	 ebx
  001d4	e8 00 00 00 00	 call	 ??3@YAXPAXI@Z		; operator delete
  001d9	83 c4 08	 add	 esp, 8
$LN18@RegisterEl:

; 148  : }

  001dc	8d 4d f0	 lea	 ecx, DWORD PTR _strSymbolData$[ebp]
  001df	ff 15 00 00 00
	00		 call	 DWORD PTR __imp_??1?$CStringT@DV?$StrTraitMFC_DLL@DV?$ChTraitsCRT@D@ATL@@@@@ATL@@QAE@XZ
$LN1@RegisterEl:
  001e5	8b 4d f4	 mov	 ecx, DWORD PTR __$EHRec$[ebp]
  001e8	64 89 0d 00 00
	00 00		 mov	 DWORD PTR fs:0, ecx
  001ef	59		 pop	 ecx
  001f0	5f		 pop	 edi
  001f1	5e		 pop	 esi
  001f2	5b		 pop	 ebx
  001f3	8b e5		 mov	 esp, ebp
  001f5	5d		 pop	 ebp
  001f6	c2 10 00	 ret	 16			; 00000010H
_TEXT	ENDS
;	COMDAT text$x
text$x	SEGMENT
__unwindfunclet$?RegisterElementToUnRedoManager@CUndoRedoManager@@QAEXHJPBD0@Z$0:
  00000	8d 4d f0	 lea	 ecx, DWORD PTR _strSymbolData$[ebp]
  00003	ff 25 00 00 00
	00		 jmp	 DWORD PTR __imp_??1?$CStringT@DV?$StrTraitMFC_DLL@DV?$ChTraitsCRT@D@ATL@@@@@ATL@@QAE@XZ
__unwindfunclet$?RegisterElementToUnRedoManager@CUndoRedoManager@@QAEXHJPBD0@Z$1:
  00009	8d 4d ec	 lea	 ecx, DWORD PTR $T4[ebp]
  0000c	ff 25 00 00 00
	00		 jmp	 DWORD PTR __imp_??1?$CStringT@DV?$StrTraitMFC_DLL@DV?$ChTraitsCRT@D@ATL@@@@@ATL@@QAE@XZ
__unwindfunclet$?RegisterElementToUnRedoManager@CUndoRedoManager@@QAEXHJPBD0@Z$2:
  00012	6a 18		 push	 24			; 00000018H
  00014	8b 45 ec	 mov	 eax, DWORD PTR $T3[ebp]
  00017	50		 push	 eax
  00018	e8 00 00 00 00	 call	 ??3@YAXPAXI@Z		; operator delete
  0001d	83 c4 08	 add	 esp, 8
  00020	c3		 ret	 0
__unwindfunclet$?RegisterElementToUnRedoManager@CUndoRedoManager@@QAEXHJPBD0@Z$3:
  00021	8d 4d 10	 lea	 ecx, DWORD PTR $T5[ebp]
  00024	ff 25 00 00 00
	00		 jmp	 DWORD PTR __imp_??1?$CStringT@DV?$StrTraitMFC_DLL@DV?$ChTraitsCRT@D@ATL@@@@@ATL@@QAE@XZ
__unwindfunclet$?RegisterElementToUnRedoManager@CUndoRedoManager@@QAEXHJPBD0@Z$5:
  0002a	8d 4d 10	 lea	 ecx, DWORD PTR $T5[ebp]
  0002d	ff 25 00 00 00
	00		 jmp	 DWORD PTR __imp_??1?$CStringT@DV?$StrTraitMFC_DLL@DV?$ChTraitsCRT@D@ATL@@@@@ATL@@QAE@XZ
__unwindfunclet$?RegisterElementToUnRedoManager@CUndoRedoManager@@QAEXHJPBD0@Z$6:
  00033	8d 4d 14	 lea	 ecx, DWORD PTR $T6[ebp]
  00036	ff 25 00 00 00
	00		 jmp	 DWORD PTR __imp_??1?$CStringT@DV?$StrTraitMFC_DLL@DV?$ChTraitsCRT@D@ATL@@@@@ATL@@QAE@XZ
__unwindfunclet$?RegisterElementToUnRedoManager@CUndoRedoManager@@QAEXHJPBD0@Z$7:
  0003c	8b 4d ec	 mov	 ecx, DWORD PTR $T3[ebp]
  0003f	83 c1 10	 add	 ecx, 16			; 00000010H
  00042	ff 25 00 00 00
	00		 jmp	 DWORD PTR __imp_??1?$CStringT@DV?$StrTraitMFC_DLL@DV?$ChTraitsCRT@D@ATL@@@@@ATL@@QAE@XZ
__unwindfunclet$?RegisterElementToUnRedoManager@CUndoRedoManager@@QAEXHJPBD0@Z$8:
  00048	8b 4d ec	 mov	 ecx, DWORD PTR $T3[ebp]
  0004b	83 c1 14	 add	 ecx, 20			; 00000014H
  0004e	ff 25 00 00 00
	00		 jmp	 DWORD PTR __imp_??1?$CStringT@DV?$StrTraitMFC_DLL@DV?$ChTraitsCRT@D@ATL@@@@@ATL@@QAE@XZ
  00054	cc		 int	 3
  00055	cc		 int	 3
  00056	cc		 int	 3
  00057	cc		 int	 3
  00058	cc		 int	 3
__ehhandler$?RegisterElementToUnRedoManager@CUndoRedoManager@@QAEXHJPBD0@Z:
  00059	90		 npad	 1
  0005a	90		 npad	 1
  0005b	8b 54 24 08	 mov	 edx, DWORD PTR [esp+8]
  0005f	8d 42 0c	 lea	 eax, DWORD PTR [edx+12]
  00062	8b 4a e0	 mov	 ecx, DWORD PTR [edx-32]
  00065	33 c8		 xor	 ecx, eax
  00067	e8 00 00 00 00	 call	 @__security_check_cookie@4
  0006c	b8 00 00 00 00	 mov	 eax, OFFSET __ehfuncinfo$?RegisterElementToUnRedoManager@CUndoRedoManager@@QAEXHJPBD0@Z
  00071	e9 00 00 00 00	 jmp	 ___CxxFrameHandler3
text$x	ENDS
?RegisterElementToUnRedoManager@CUndoRedoManager@@QAEXHJPBD0@Z ENDP ; CUndoRedoManager::RegisterElementToUnRedoManager
; Function compile flags: /Ogtp
; File D:\git\src\IBK\IBK_DRFN\ProjSrc\SrcChartEx\ChartAddIn\ChartAnalysisToolAddIn\Symbol\UndoRedoManager.cpp
;	COMDAT ?SetSymbolData@CUndoRedoManager@@QAEXPAVCSymbolData@@@Z
_TEXT	SEGMENT
_pSymbolData$ = 8					; size = 4
?SetSymbolData@CUndoRedoManager@@QAEXPAVCSymbolData@@@Z PROC ; CUndoRedoManager::SetSymbolData, COMDAT
; _this$ = ecx

; 111  : {

  00000	55		 push	 ebp
  00001	8b ec		 mov	 ebp, esp

; 112  : 	m_pSymbolData = pSymbolData;

  00003	8b 45 08	 mov	 eax, DWORD PTR _pSymbolData$[ebp]
  00006	89 01		 mov	 DWORD PTR [ecx], eax

; 113  : }

  00008	5d		 pop	 ebp
  00009	c2 04 00	 ret	 4
?SetSymbolData@CUndoRedoManager@@QAEXPAVCSymbolData@@@Z ENDP ; CUndoRedoManager::SetSymbolData
_TEXT	ENDS
; Function compile flags: /Ogtp
; File D:\git\src\IBK\IBK_DRFN\ProjSrc\SrcChartEx\ChartAddIn\ChartAnalysisToolAddIn\Symbol\UndoRedoManager.cpp
; File C:\Program Files (x86)\Microsoft Visual Studio\2019\Community\VC\Tools\MSVC\14.29.30133\atlmfc\include\afxtempl.h
; File D:\git\src\IBK\IBK_DRFN\ProjSrc\SrcChartEx\ChartAddIn\ChartAnalysisToolAddIn\Symbol\UndoRedoManager.cpp
; File C:\Program Files (x86)\Microsoft Visual Studio\2019\Community\VC\Tools\MSVC\14.29.30133\atlmfc\include\afxtempl.h
; File D:\git\src\IBK\IBK_DRFN\ProjSrc\SrcChartEx\ChartAddIn\ChartAnalysisToolAddIn\Symbol\UndoRedoManager.cpp
; File C:\Program Files (x86)\Microsoft Visual Studio\2019\Community\VC\Tools\MSVC\14.29.30133\atlmfc\include\afxtempl.h
; File D:\git\src\IBK\IBK_DRFN\ProjSrc\SrcChartEx\ChartAddIn\ChartAnalysisToolAddIn\Symbol\UndoRedoManager.cpp
;	COMDAT ??1CUndoRedoManager@@QAE@XZ
_TEXT	SEGMENT
_pos$2$ = -20						; size = 4
_pos$1$ = -20						; size = 4
_this$1$ = -16						; size = 4
__$EHRec$ = -12						; size = 12
??1CUndoRedoManager@@QAE@XZ PROC			; CUndoRedoManager::~CUndoRedoManager, COMDAT
; _this$ = ecx

; 106  : {

  00000	55		 push	 ebp
  00001	8b ec		 mov	 ebp, esp
  00003	6a ff		 push	 -1
  00005	68 00 00 00 00	 push	 __ehhandler$??1CUndoRedoManager@@QAE@XZ
  0000a	64 a1 00 00 00
	00		 mov	 eax, DWORD PTR fs:0
  00010	50		 push	 eax
  00011	83 ec 08	 sub	 esp, 8
  00014	53		 push	 ebx
  00015	56		 push	 esi
  00016	57		 push	 edi
  00017	a1 00 00 00 00	 mov	 eax, DWORD PTR ___security_cookie
  0001c	33 c5		 xor	 eax, ebp
  0001e	50		 push	 eax
  0001f	8d 45 f4	 lea	 eax, DWORD PTR __$EHRec$[ebp]
  00022	64 a3 00 00 00
	00		 mov	 DWORD PTR fs:0, eax
  00028	8b d9		 mov	 ebx, ecx
  0002a	89 5d f0	 mov	 DWORD PTR _this$1$[ebp], ebx

; 489  : 	POSITION pos = m_UndoList.GetHeadPosition();

  0002d	8b 43 08	 mov	 eax, DWORD PTR [ebx+8]

; 490  : 	while(pos)

  00030	85 c0		 test	 eax, eax
  00032	74 4f		 je	 SHORT $LN5@CUndoRedoM
$LL4@CUndoRedoM:

; 494  : 		delete pUndoRedoInfo;

  00034	8b 70 08	 mov	 esi, DWORD PTR [eax+8]
; File C:\Program Files (x86)\Microsoft Visual Studio\2019\Community\VC\Tools\MSVC\14.29.30133\atlmfc\include\afxtempl.h

; 813  : 		rPosition = (POSITION) pNode->pNext;

  00037	8b 00		 mov	 eax, DWORD PTR [eax]
  00039	89 45 ec	 mov	 DWORD PTR _pos$1$[ebp], eax
; File D:\git\src\IBK\IBK_DRFN\ProjSrc\SrcChartEx\ChartAddIn\ChartAnalysisToolAddIn\Symbol\UndoRedoManager.cpp

; 494  : 		delete pUndoRedoInfo;

  0003c	85 f6		 test	 esi, esi
  0003e	74 3f		 je	 SHORT $LN16@CUndoRedoM

; 42   : 	m_strSymbolData.Empty();

  00040	8d 4e 10	 lea	 ecx, DWORD PTR [esi+16]
  00043	c7 06 00 00 00
	00		 mov	 DWORD PTR [esi], 0
  00049	c7 46 0c 00 00
	00 00		 mov	 DWORD PTR [esi+12], 0
  00050	ff 15 00 00 00
	00		 call	 DWORD PTR __imp_?Empty@?$CSimpleStringT@D$00@ATL@@QAEXXZ

; 43   : 	m_strSymbolData_Prev.Empty();

  00056	8d 4e 14	 lea	 ecx, DWORD PTR [esi+20]
  00059	ff 15 00 00 00
	00		 call	 DWORD PTR __imp_?Empty@?$CSimpleStringT@D$00@ATL@@QAEXXZ

; 44   : }

  0005f	8d 4e 14	 lea	 ecx, DWORD PTR [esi+20]
  00062	ff 15 00 00 00
	00		 call	 DWORD PTR __imp_??1?$CStringT@DV?$StrTraitMFC_DLL@DV?$ChTraitsCRT@D@ATL@@@@@ATL@@QAE@XZ
  00068	8d 4e 10	 lea	 ecx, DWORD PTR [esi+16]
  0006b	ff 15 00 00 00
	00		 call	 DWORD PTR __imp_??1?$CStringT@DV?$StrTraitMFC_DLL@DV?$ChTraitsCRT@D@ATL@@@@@ATL@@QAE@XZ
  00071	6a 18		 push	 24			; 00000018H
  00073	56		 push	 esi
  00074	e8 00 00 00 00	 call	 ??3@YAXPAXI@Z		; operator delete
  00079	8b 45 ec	 mov	 eax, DWORD PTR _pos$1$[ebp]
  0007c	83 c4 08	 add	 esp, 8
$LN16@CUndoRedoM:

; 490  : 	while(pos)

  0007f	85 c0		 test	 eax, eax
  00081	75 b1		 jne	 SHORT $LL4@CUndoRedoM
$LN5@CUndoRedoM:

; 495  : 		pUndoRedoInfo = NULL;
; 496  : 	}
; 497  : 	pos = m_RedoList.GetHeadPosition();

  00083	8b 4b 24	 mov	 ecx, DWORD PTR [ebx+36]

; 498  : 	while(pos)

  00086	85 c9		 test	 ecx, ecx
  00088	74 58		 je	 SHORT $LN31@CUndoRedoM
  0008a	66 0f 1f 44 00
	00		 npad	 6
$LL6@CUndoRedoM:

; 502  : 		delete pUndoRedoInfo;

  00090	8b 59 08	 mov	 ebx, DWORD PTR [ecx+8]
; File C:\Program Files (x86)\Microsoft Visual Studio\2019\Community\VC\Tools\MSVC\14.29.30133\atlmfc\include\afxtempl.h

; 813  : 		rPosition = (POSITION) pNode->pNext;

  00093	8b 09		 mov	 ecx, DWORD PTR [ecx]
  00095	89 4d ec	 mov	 DWORD PTR _pos$2$[ebp], ecx
; File D:\git\src\IBK\IBK_DRFN\ProjSrc\SrcChartEx\ChartAddIn\ChartAnalysisToolAddIn\Symbol\UndoRedoManager.cpp

; 502  : 		delete pUndoRedoInfo;

  00098	85 db		 test	 ebx, ebx
  0009a	74 3f		 je	 SHORT $LN24@CUndoRedoM

; 42   : 	m_strSymbolData.Empty();

  0009c	8d 4b 10	 lea	 ecx, DWORD PTR [ebx+16]
  0009f	c7 03 00 00 00
	00		 mov	 DWORD PTR [ebx], 0
  000a5	c7 43 0c 00 00
	00 00		 mov	 DWORD PTR [ebx+12], 0
  000ac	ff 15 00 00 00
	00		 call	 DWORD PTR __imp_?Empty@?$CSimpleStringT@D$00@ATL@@QAEXXZ

; 43   : 	m_strSymbolData_Prev.Empty();

  000b2	8d 4b 14	 lea	 ecx, DWORD PTR [ebx+20]
  000b5	ff 15 00 00 00
	00		 call	 DWORD PTR __imp_?Empty@?$CSimpleStringT@D$00@ATL@@QAEXXZ

; 44   : }

  000bb	8d 4b 14	 lea	 ecx, DWORD PTR [ebx+20]
  000be	ff 15 00 00 00
	00		 call	 DWORD PTR __imp_??1?$CStringT@DV?$StrTraitMFC_DLL@DV?$ChTraitsCRT@D@ATL@@@@@ATL@@QAE@XZ
  000c4	8d 4b 10	 lea	 ecx, DWORD PTR [ebx+16]
  000c7	ff 15 00 00 00
	00		 call	 DWORD PTR __imp_??1?$CStringT@DV?$StrTraitMFC_DLL@DV?$ChTraitsCRT@D@ATL@@@@@ATL@@QAE@XZ
  000cd	6a 18		 push	 24			; 00000018H
  000cf	53		 push	 ebx
  000d0	e8 00 00 00 00	 call	 ??3@YAXPAXI@Z		; operator delete
  000d5	8b 4d ec	 mov	 ecx, DWORD PTR _pos$2$[ebp]
  000d8	83 c4 08	 add	 esp, 8
$LN24@CUndoRedoM:

; 498  : 	while(pos)

  000db	85 c9		 test	 ecx, ecx
  000dd	75 b1		 jne	 SHORT $LL6@CUndoRedoM
  000df	8b 5d f0	 mov	 ebx, DWORD PTR _this$1$[ebp]
$LN31@CUndoRedoM:
; File C:\Program Files (x86)\Microsoft Visual Studio\2019\Community\VC\Tools\MSVC\14.29.30133\atlmfc\include\afxtempl.h

; 872  : 	m_pBlocks->FreeDataChain();

  000e2	8b 4b 18	 mov	 ecx, DWORD PTR [ebx+24]
  000e5	c7 43 10 00 00
	00 00		 mov	 DWORD PTR [ebx+16], 0
  000ec	c7 43 14 00 00
	00 00		 mov	 DWORD PTR [ebx+20], 0
  000f3	c7 43 0c 00 00
	00 00		 mov	 DWORD PTR [ebx+12], 0
  000fa	c7 43 08 00 00
	00 00		 mov	 DWORD PTR [ebx+8], 0
  00101	e8 00 00 00 00	 call	 ?FreeDataChain@CPlex@@QAEXXZ ; CPlex::FreeDataChain

; 873  : 	m_pBlocks = NULL;

  00106	c7 43 18 00 00
	00 00		 mov	 DWORD PTR [ebx+24], 0

; 872  : 	m_pBlocks->FreeDataChain();

  0010d	8b 4b 34	 mov	 ecx, DWORD PTR [ebx+52]
  00110	c7 43 2c 00 00
	00 00		 mov	 DWORD PTR [ebx+44], 0
  00117	c7 43 30 00 00
	00 00		 mov	 DWORD PTR [ebx+48], 0
  0011e	c7 43 28 00 00
	00 00		 mov	 DWORD PTR [ebx+40], 0
  00125	c7 43 24 00 00
	00 00		 mov	 DWORD PTR [ebx+36], 0
  0012c	e8 00 00 00 00	 call	 ?FreeDataChain@CPlex@@QAEXXZ ; CPlex::FreeDataChain

; 873  : 	m_pBlocks = NULL;

  00131	c7 43 34 00 00
	00 00		 mov	 DWORD PTR [ebx+52], 0

; 872  : 	m_pBlocks->FreeDataChain();

  00138	8b 4b 34	 mov	 ecx, DWORD PTR [ebx+52]

; 878  : {

  0013b	c7 45 fc 00 00
	00 00		 mov	 DWORD PTR __$EHRec$[ebp+8], 0
  00142	c7 43 20 00 00
	00 00		 mov	 DWORD PTR [ebx+32], OFFSET ??_7?$CList@PAVCUndo_Redo_Info@@PAV1@@@6B@

; 870  : 	m_nCount = 0;

  00149	c7 43 2c 00 00
	00 00		 mov	 DWORD PTR [ebx+44], 0

; 871  : 	m_pNodeHead = m_pNodeTail = m_pNodeFree = NULL;

  00150	c7 43 30 00 00
	00 00		 mov	 DWORD PTR [ebx+48], 0
  00157	c7 43 28 00 00
	00 00		 mov	 DWORD PTR [ebx+40], 0
  0015e	c7 43 24 00 00
	00 00		 mov	 DWORD PTR [ebx+36], 0

; 872  : 	m_pBlocks->FreeDataChain();

  00165	e8 00 00 00 00	 call	 ?FreeDataChain@CPlex@@QAEXXZ ; CPlex::FreeDataChain

; 873  : 	m_pBlocks = NULL;

  0016a	c7 43 34 00 00
	00 00		 mov	 DWORD PTR [ebx+52], 0

; 872  : 	m_pBlocks->FreeDataChain();

  00171	8b 4b 18	 mov	 ecx, DWORD PTR [ebx+24]

; 878  : {

  00174	c7 45 fc 01 00
	00 00		 mov	 DWORD PTR __$EHRec$[ebp+8], 1
  0017b	c7 43 04 00 00
	00 00		 mov	 DWORD PTR [ebx+4], OFFSET ??_7?$CList@PAVCUndo_Redo_Info@@PAV1@@@6B@

; 870  : 	m_nCount = 0;

  00182	c7 43 10 00 00
	00 00		 mov	 DWORD PTR [ebx+16], 0

; 871  : 	m_pNodeHead = m_pNodeTail = m_pNodeFree = NULL;

  00189	c7 43 14 00 00
	00 00		 mov	 DWORD PTR [ebx+20], 0
  00190	c7 43 0c 00 00
	00 00		 mov	 DWORD PTR [ebx+12], 0
  00197	c7 43 08 00 00
	00 00		 mov	 DWORD PTR [ebx+8], 0

; 872  : 	m_pBlocks->FreeDataChain();

  0019e	e8 00 00 00 00	 call	 ?FreeDataChain@CPlex@@QAEXXZ ; CPlex::FreeDataChain

; 873  : 	m_pBlocks = NULL;

  001a3	c7 43 18 00 00
	00 00		 mov	 DWORD PTR [ebx+24], 0
; File D:\git\src\IBK\IBK_DRFN\ProjSrc\SrcChartEx\ChartAddIn\ChartAnalysisToolAddIn\Symbol\UndoRedoManager.cpp

; 108  : }

  001aa	8b 4d f4	 mov	 ecx, DWORD PTR __$EHRec$[ebp]
  001ad	64 89 0d 00 00
	00 00		 mov	 DWORD PTR fs:0, ecx
  001b4	59		 pop	 ecx
  001b5	5f		 pop	 edi
  001b6	5e		 pop	 esi
  001b7	5b		 pop	 ebx
  001b8	8b e5		 mov	 esp, ebp
  001ba	5d		 pop	 ebp
  001bb	c3		 ret	 0
  001bc	cc		 int	 3
  001bd	cc		 int	 3
  001be	cc		 int	 3
  001bf	cc		 int	 3
  001c0	cc		 int	 3
_TEXT	ENDS
;	COMDAT text$x
text$x	SEGMENT
__ehhandler$??1CUndoRedoManager@@QAE@XZ:
  00000	90		 npad	 1
  00001	90		 npad	 1
  00002	8b 54 24 08	 mov	 edx, DWORD PTR [esp+8]
  00006	8d 42 0c	 lea	 eax, DWORD PTR [edx+12]
  00009	8b 4a e8	 mov	 ecx, DWORD PTR [edx-24]
  0000c	33 c8		 xor	 ecx, eax
  0000e	e8 00 00 00 00	 call	 @__security_check_cookie@4
  00013	b8 00 00 00 00	 mov	 eax, OFFSET __ehfuncinfo$??1CUndoRedoManager@@QAE@XZ
  00018	e9 00 00 00 00	 jmp	 ___CxxFrameHandler3
text$x	ENDS
??1CUndoRedoManager@@QAE@XZ ENDP			; CUndoRedoManager::~CUndoRedoManager
; Function compile flags: /Ogtp
; File D:\git\src\IBK\IBK_DRFN\ProjSrc\SrcChartEx\ChartAddIn\ChartAnalysisToolAddIn\Symbol\UndoRedoManager.cpp
; File C:\Program Files (x86)\Microsoft Visual Studio\2019\Community\VC\Tools\MSVC\14.29.30133\atlmfc\include\afxtempl.h
; File D:\git\src\IBK\IBK_DRFN\ProjSrc\SrcChartEx\ChartAddIn\ChartAnalysisToolAddIn\Symbol\UndoRedoManager.cpp
; File C:\Program Files (x86)\Microsoft Visual Studio\2019\Community\VC\Tools\MSVC\14.29.30133\atlmfc\include\afxtempl.h
; File D:\git\src\IBK\IBK_DRFN\ProjSrc\SrcChartEx\ChartAddIn\ChartAnalysisToolAddIn\Symbol\UndoRedoManager.cpp
; File C:\Program Files (x86)\Microsoft Visual Studio\2019\Community\VC\Tools\MSVC\14.29.30133\atlmfc\include\afxtempl.h
; File D:\git\src\IBK\IBK_DRFN\ProjSrc\SrcChartEx\ChartAddIn\ChartAnalysisToolAddIn\Symbol\UndoRedoManager.cpp
;	COMDAT ??0CUndoRedoManager@@QAE@XZ
_TEXT	SEGMENT
_this$ = -16						; size = 4
__$EHRec$ = -12						; size = 12
??0CUndoRedoManager@@QAE@XZ PROC			; CUndoRedoManager::CUndoRedoManager, COMDAT
; _this$ = ecx

; 100  : {

  00000	55		 push	 ebp
  00001	8b ec		 mov	 ebp, esp
  00003	6a ff		 push	 -1
  00005	68 00 00 00 00	 push	 __ehhandler$??0CUndoRedoManager@@QAE@XZ
  0000a	64 a1 00 00 00
	00		 mov	 eax, DWORD PTR fs:0
  00010	50		 push	 eax
  00011	51		 push	 ecx
  00012	56		 push	 esi
  00013	a1 00 00 00 00	 mov	 eax, DWORD PTR ___security_cookie
  00018	33 c5		 xor	 eax, ebp
  0001a	50		 push	 eax
  0001b	8d 45 f4	 lea	 eax, DWORD PTR __$EHRec$[ebp]
  0001e	64 a3 00 00 00
	00		 mov	 DWORD PTR fs:0, eax
  00024	8b f1		 mov	 esi, ecx
  00026	89 75 f0	 mov	 DWORD PTR _this$[ebp], esi

; 99   : : m_pSymbolData(NULL)

  00029	c7 06 00 00 00
	00		 mov	 DWORD PTR [esi], 0
; File C:\Program Files (x86)\Microsoft Visual Studio\2019\Community\VC\Tools\MSVC\14.29.30133\atlmfc\include\afxtempl.h

; 851  : {

  0002f	c7 46 04 00 00
	00 00		 mov	 DWORD PTR [esi+4], OFFSET ??_7?$CList@PAVCUndo_Redo_Info@@PAV1@@@6B@

; 852  : 	ASSERT(nBlockSize > 0);
; 853  : 
; 854  : 	m_nCount = 0;

  00036	c7 46 10 00 00
	00 00		 mov	 DWORD PTR [esi+16], 0

; 855  : 	m_pNodeHead = m_pNodeTail = m_pNodeFree = NULL;

  0003d	c7 46 14 00 00
	00 00		 mov	 DWORD PTR [esi+20], 0
  00044	c7 46 0c 00 00
	00 00		 mov	 DWORD PTR [esi+12], 0
  0004b	c7 46 08 00 00
	00 00		 mov	 DWORD PTR [esi+8], 0

; 856  : 	m_pBlocks = NULL;

  00052	c7 46 18 00 00
	00 00		 mov	 DWORD PTR [esi+24], 0

; 857  : 	m_nBlockSize = nBlockSize;

  00059	c7 46 1c 0a 00
	00 00		 mov	 DWORD PTR [esi+28], 10	; 0000000aH
; File D:\git\src\IBK\IBK_DRFN\ProjSrc\SrcChartEx\ChartAddIn\ChartAnalysisToolAddIn\Symbol\UndoRedoManager.cpp

; 100  : {

  00060	c7 45 fc 00 00
	00 00		 mov	 DWORD PTR __$EHRec$[ebp+8], 0
; File C:\Program Files (x86)\Microsoft Visual Studio\2019\Community\VC\Tools\MSVC\14.29.30133\atlmfc\include\afxtempl.h

; 851  : {

  00067	c7 46 20 00 00
	00 00		 mov	 DWORD PTR [esi+32], OFFSET ??_7?$CList@PAVCUndo_Redo_Info@@PAV1@@@6B@

; 852  : 	ASSERT(nBlockSize > 0);
; 853  : 
; 854  : 	m_nCount = 0;

  0006e	c7 46 2c 00 00
	00 00		 mov	 DWORD PTR [esi+44], 0

; 855  : 	m_pNodeHead = m_pNodeTail = m_pNodeFree = NULL;

  00075	c7 46 30 00 00
	00 00		 mov	 DWORD PTR [esi+48], 0
  0007c	c7 46 28 00 00
	00 00		 mov	 DWORD PTR [esi+40], 0
  00083	c7 46 24 00 00
	00 00		 mov	 DWORD PTR [esi+36], 0

; 856  : 	m_pBlocks = NULL;

  0008a	c7 46 34 00 00
	00 00		 mov	 DWORD PTR [esi+52], 0

; 857  : 	m_nBlockSize = nBlockSize;

  00091	c7 46 38 0a 00
	00 00		 mov	 DWORD PTR [esi+56], 10	; 0000000aH

; 872  : 	m_pBlocks->FreeDataChain();

  00098	8b 4e 18	 mov	 ecx, DWORD PTR [esi+24]
; File D:\git\src\IBK\IBK_DRFN\ProjSrc\SrcChartEx\ChartAddIn\ChartAnalysisToolAddIn\Symbol\UndoRedoManager.cpp

; 100  : {

  0009b	c6 45 fc 01	 mov	 BYTE PTR __$EHRec$[ebp+8], 1
; File C:\Program Files (x86)\Microsoft Visual Studio\2019\Community\VC\Tools\MSVC\14.29.30133\atlmfc\include\afxtempl.h

; 870  : 	m_nCount = 0;

  0009f	c7 46 10 00 00
	00 00		 mov	 DWORD PTR [esi+16], 0

; 871  : 	m_pNodeHead = m_pNodeTail = m_pNodeFree = NULL;

  000a6	c7 46 14 00 00
	00 00		 mov	 DWORD PTR [esi+20], 0
  000ad	c7 46 0c 00 00
	00 00		 mov	 DWORD PTR [esi+12], 0
  000b4	c7 46 08 00 00
	00 00		 mov	 DWORD PTR [esi+8], 0

; 872  : 	m_pBlocks->FreeDataChain();

  000bb	e8 00 00 00 00	 call	 ?FreeDataChain@CPlex@@QAEXXZ ; CPlex::FreeDataChain

; 873  : 	m_pBlocks = NULL;

  000c0	c7 46 18 00 00
	00 00		 mov	 DWORD PTR [esi+24], 0

; 872  : 	m_pBlocks->FreeDataChain();

  000c7	8b 4e 34	 mov	 ecx, DWORD PTR [esi+52]
  000ca	c7 46 2c 00 00
	00 00		 mov	 DWORD PTR [esi+44], 0
  000d1	c7 46 30 00 00
	00 00		 mov	 DWORD PTR [esi+48], 0
  000d8	c7 46 28 00 00
	00 00		 mov	 DWORD PTR [esi+40], 0
  000df	c7 46 24 00 00
	00 00		 mov	 DWORD PTR [esi+36], 0
  000e6	e8 00 00 00 00	 call	 ?FreeDataChain@CPlex@@QAEXXZ ; CPlex::FreeDataChain

; 873  : 	m_pBlocks = NULL;

  000eb	c7 46 34 00 00
	00 00		 mov	 DWORD PTR [esi+52], 0
; File D:\git\src\IBK\IBK_DRFN\ProjSrc\SrcChartEx\ChartAddIn\ChartAnalysisToolAddIn\Symbol\UndoRedoManager.cpp

; 103  : }

  000f2	8b c6		 mov	 eax, esi
  000f4	8b 4d f4	 mov	 ecx, DWORD PTR __$EHRec$[ebp]
  000f7	64 89 0d 00 00
	00 00		 mov	 DWORD PTR fs:0, ecx
  000fe	59		 pop	 ecx
  000ff	5e		 pop	 esi
  00100	8b e5		 mov	 esp, ebp
  00102	5d		 pop	 ebp
  00103	c3		 ret	 0
_TEXT	ENDS
;	COMDAT text$x
text$x	SEGMENT
__unwindfunclet$??0CUndoRedoManager@@QAE@XZ$0:
  00000	8b 4d f0	 mov	 ecx, DWORD PTR _this$[ebp]
  00003	83 c1 04	 add	 ecx, 4
  00006	e9 00 00 00 00	 jmp	 ??1?$CList@PAVCUndo_Redo_Info@@PAV1@@@UAE@XZ ; CList<CUndo_Redo_Info *,CUndo_Redo_Info *>::~CList<CUndo_Redo_Info *,CUndo_Redo_Info *>
__unwindfunclet$??0CUndoRedoManager@@QAE@XZ$1:
  0000b	8b 4d f0	 mov	 ecx, DWORD PTR _this$[ebp]
  0000e	83 c1 20	 add	 ecx, 32			; 00000020H
  00011	e9 00 00 00 00	 jmp	 ??1?$CList@PAVCUndo_Redo_Info@@PAV1@@@UAE@XZ ; CList<CUndo_Redo_Info *,CUndo_Redo_Info *>::~CList<CUndo_Redo_Info *,CUndo_Redo_Info *>
  00016	cc		 int	 3
  00017	cc		 int	 3
  00018	cc		 int	 3
  00019	cc		 int	 3
  0001a	cc		 int	 3
__ehhandler$??0CUndoRedoManager@@QAE@XZ:
  0001b	90		 npad	 1
  0001c	90		 npad	 1
  0001d	8b 54 24 08	 mov	 edx, DWORD PTR [esp+8]
  00021	8d 42 0c	 lea	 eax, DWORD PTR [edx+12]
  00024	8b 4a f4	 mov	 ecx, DWORD PTR [edx-12]
  00027	33 c8		 xor	 ecx, eax
  00029	e8 00 00 00 00	 call	 @__security_check_cookie@4
  0002e	b8 00 00 00 00	 mov	 eax, OFFSET __ehfuncinfo$??0CUndoRedoManager@@QAE@XZ
  00033	e9 00 00 00 00	 jmp	 ___CxxFrameHandler3
text$x	ENDS
??0CUndoRedoManager@@QAE@XZ ENDP			; CUndoRedoManager::CUndoRedoManager
; Function compile flags: /Ogtp
; File D:\git\src\IBK\IBK_DRFN\ProjSrc\SrcChartEx\ChartAddIn\ChartAnalysisToolAddIn\Symbol\UndoRedoManager.cpp
;	COMDAT ?GetSymbolData_Prev@CUndo_Redo_Info@@QAE?AV?$CStringT@DV?$StrTraitMFC_DLL@DV?$ChTraitsCRT@D@ATL@@@@@ATL@@XZ
_TEXT	SEGMENT
___$ReturnUdt$ = 8					; size = 4
?GetSymbolData_Prev@CUndo_Redo_Info@@QAE?AV?$CStringT@DV?$StrTraitMFC_DLL@DV?$ChTraitsCRT@D@ATL@@@@@ATL@@XZ PROC ; CUndo_Redo_Info::GetSymbolData_Prev, COMDAT
; _this$ = ecx

; 91   : {

  00000	55		 push	 ebp
  00001	8b ec		 mov	 ebp, esp

; 92   : 	return m_strSymbolData_Prev;

  00003	8d 41 14	 lea	 eax, DWORD PTR [ecx+20]
  00006	8b 4d 08	 mov	 ecx, DWORD PTR ___$ReturnUdt$[ebp]
  00009	50		 push	 eax
  0000a	ff 15 00 00 00
	00		 call	 DWORD PTR __imp_??0?$CStringT@DV?$StrTraitMFC_DLL@DV?$ChTraitsCRT@D@ATL@@@@@ATL@@QAE@ABV01@@Z
  00010	8b 45 08	 mov	 eax, DWORD PTR ___$ReturnUdt$[ebp]

; 93   : }

  00013	5d		 pop	 ebp
  00014	c2 04 00	 ret	 4
?GetSymbolData_Prev@CUndo_Redo_Info@@QAE?AV?$CStringT@DV?$StrTraitMFC_DLL@DV?$ChTraitsCRT@D@ATL@@@@@ATL@@XZ ENDP ; CUndo_Redo_Info::GetSymbolData_Prev
_TEXT	ENDS
; Function compile flags: /Ogtp
; File D:\git\src\IBK\IBK_DRFN\ProjSrc\SrcChartEx\ChartAddIn\ChartAnalysisToolAddIn\Symbol\UndoRedoManager.cpp
;	COMDAT ?GetSymbolData@CUndo_Redo_Info@@QAE?AV?$CStringT@DV?$StrTraitMFC_DLL@DV?$ChTraitsCRT@D@ATL@@@@@ATL@@XZ
_TEXT	SEGMENT
___$ReturnUdt$ = 8					; size = 4
?GetSymbolData@CUndo_Redo_Info@@QAE?AV?$CStringT@DV?$StrTraitMFC_DLL@DV?$ChTraitsCRT@D@ATL@@@@@ATL@@XZ PROC ; CUndo_Redo_Info::GetSymbolData, COMDAT
; _this$ = ecx

; 86   : {

  00000	55		 push	 ebp
  00001	8b ec		 mov	 ebp, esp

; 87   : 	return m_strSymbolData;

  00003	8d 41 10	 lea	 eax, DWORD PTR [ecx+16]
  00006	8b 4d 08	 mov	 ecx, DWORD PTR ___$ReturnUdt$[ebp]
  00009	50		 push	 eax
  0000a	ff 15 00 00 00
	00		 call	 DWORD PTR __imp_??0?$CStringT@DV?$StrTraitMFC_DLL@DV?$ChTraitsCRT@D@ATL@@@@@ATL@@QAE@ABV01@@Z
  00010	8b 45 08	 mov	 eax, DWORD PTR ___$ReturnUdt$[ebp]

; 88   : }

  00013	5d		 pop	 ebp
  00014	c2 04 00	 ret	 4
?GetSymbolData@CUndo_Redo_Info@@QAE?AV?$CStringT@DV?$StrTraitMFC_DLL@DV?$ChTraitsCRT@D@ATL@@@@@ATL@@XZ ENDP ; CUndo_Redo_Info::GetSymbolData
_TEXT	ENDS
; Function compile flags: /Ogtp
; File D:\git\src\IBK\IBK_DRFN\ProjSrc\SrcChartEx\ChartAddIn\ChartAnalysisToolAddIn\Symbol\UndoRedoManager.cpp
;	COMDAT ?SetSymbolAddress@CUndo_Redo_Info@@QAEXJ@Z
_TEXT	SEGMENT
_lNewSymbolAddress$ = 8					; size = 4
?SetSymbolAddress@CUndo_Redo_Info@@QAEXJ@Z PROC		; CUndo_Redo_Info::SetSymbolAddress, COMDAT
; _this$ = ecx

; 81   : {

  00000	55		 push	 ebp
  00001	8b ec		 mov	 ebp, esp

; 82   : 	m_lSymbolAddress = lNewSymbolAddress;

  00003	8b 45 08	 mov	 eax, DWORD PTR _lNewSymbolAddress$[ebp]
  00006	89 41 0c	 mov	 DWORD PTR [ecx+12], eax

; 83   : }

  00009	5d		 pop	 ebp
  0000a	c2 04 00	 ret	 4
?SetSymbolAddress@CUndo_Redo_Info@@QAEXJ@Z ENDP		; CUndo_Redo_Info::SetSymbolAddress
_TEXT	ENDS
; Function compile flags: /Ogtp
; File D:\git\src\IBK\IBK_DRFN\ProjSrc\SrcChartEx\ChartAddIn\ChartAnalysisToolAddIn\Symbol\UndoRedoManager.cpp
;	COMDAT ?GetSymbolAddress@CUndo_Redo_Info@@QAEJXZ
_TEXT	SEGMENT
?GetSymbolAddress@CUndo_Redo_Info@@QAEJXZ PROC		; CUndo_Redo_Info::GetSymbolAddress, COMDAT
; _this$ = ecx

; 77   : 	return m_lSymbolAddress;

  00000	8b 41 0c	 mov	 eax, DWORD PTR [ecx+12]

; 78   : }

  00003	c3		 ret	 0
?GetSymbolAddress@CUndo_Redo_Info@@QAEJXZ ENDP		; CUndo_Redo_Info::GetSymbolAddress
_TEXT	ENDS
; Function compile flags: /Ogtp
; File D:\git\src\IBK\IBK_DRFN\ProjSrc\SrcChartEx\ChartAddIn\ChartAnalysisToolAddIn\Symbol\UndoRedoManager.cpp
;	COMDAT ?IsSameBlockIndex@CUndo_Redo_Info@@QBEHABVCBlockIndex@@@Z
_TEXT	SEGMENT
_blockIndex$ = 8					; size = 4
?IsSameBlockIndex@CUndo_Redo_Info@@QBEHABVCBlockIndex@@@Z PROC ; CUndo_Redo_Info::IsSameBlockIndex, COMDAT
; _this$ = ecx

; 67   : {

  00000	55		 push	 ebp
  00001	8b ec		 mov	 ebp, esp

; 68   : 	if( m_blockIndex.GetColumn() == blockIndex.GetColumn() && 

  00003	8b 55 08	 mov	 edx, DWORD PTR _blockIndex$[ebp]
  00006	8b 41 08	 mov	 eax, DWORD PTR [ecx+8]
  00009	3b 42 04	 cmp	 eax, DWORD PTR [edx+4]
  0000c	75 10		 jne	 SHORT $LN2@IsSameBloc
  0000e	8b 41 04	 mov	 eax, DWORD PTR [ecx+4]
  00011	3b 02		 cmp	 eax, DWORD PTR [edx]
  00013	75 09		 jne	 SHORT $LN2@IsSameBloc

; 69   : 		m_blockIndex.GetRow() == blockIndex.GetRow())
; 70   : 		return TRUE;

  00015	b8 01 00 00 00	 mov	 eax, 1

; 73   : }

  0001a	5d		 pop	 ebp
  0001b	c2 04 00	 ret	 4
$LN2@IsSameBloc:

; 71   : 	else
; 72   : 		return FALSE;

  0001e	33 c0		 xor	 eax, eax

; 73   : }

  00020	5d		 pop	 ebp
  00021	c2 04 00	 ret	 4
?IsSameBlockIndex@CUndo_Redo_Info@@QBEHABVCBlockIndex@@@Z ENDP ; CUndo_Redo_Info::IsSameBlockIndex
_TEXT	ENDS
; Function compile flags: /Ogtp
; File D:\git\src\IBK\IBK_DRFN\ProjSrc\SrcChartEx\ChartAddIn\ChartAnalysisToolAddIn\Symbol\UndoRedoManager.cpp
;	COMDAT ?SetBlockIndex@CUndo_Redo_Info@@QAEXABVCBlockIndex@@@Z
_TEXT	SEGMENT
_blockIndex$ = 8					; size = 4
?SetBlockIndex@CUndo_Redo_Info@@QAEXABVCBlockIndex@@@Z PROC ; CUndo_Redo_Info::SetBlockIndex, COMDAT
; _this$ = ecx

; 62   : {

  00000	55		 push	 ebp
  00001	8b ec		 mov	 ebp, esp

; 63   : 	m_blockIndex = blockIndex;

  00003	8b 45 08	 mov	 eax, DWORD PTR _blockIndex$[ebp]
  00006	8b 10		 mov	 edx, DWORD PTR [eax]
  00008	8b 40 04	 mov	 eax, DWORD PTR [eax+4]
  0000b	89 51 04	 mov	 DWORD PTR [ecx+4], edx
  0000e	89 41 08	 mov	 DWORD PTR [ecx+8], eax

; 64   : }

  00011	5d		 pop	 ebp
  00012	c2 04 00	 ret	 4
?SetBlockIndex@CUndo_Redo_Info@@QAEXABVCBlockIndex@@@Z ENDP ; CUndo_Redo_Info::SetBlockIndex
_TEXT	ENDS
; Function compile flags: /Ogtp
; File D:\git\src\IBK\IBK_DRFN\ProjSrc\SrcChartEx\ChartAddIn\ChartAnalysisToolAddIn\Symbol\UndoRedoManager.cpp
;	COMDAT ?GetBlockIndex@CUndo_Redo_Info@@QAEAAVCBlockIndex@@XZ
_TEXT	SEGMENT
?GetBlockIndex@CUndo_Redo_Info@@QAEAAVCBlockIndex@@XZ PROC ; CUndo_Redo_Info::GetBlockIndex, COMDAT
; _this$ = ecx

; 58   : 	return m_blockIndex;

  00000	8d 41 04	 lea	 eax, DWORD PTR [ecx+4]

; 59   : }

  00003	c3		 ret	 0
?GetBlockIndex@CUndo_Redo_Info@@QAEAAVCBlockIndex@@XZ ENDP ; CUndo_Redo_Info::GetBlockIndex
_TEXT	ENDS
; Function compile flags: /Ogtp
; File D:\git\src\IBK\IBK_DRFN\ProjSrc\SrcChartEx\ChartAddIn\ChartAnalysisToolAddIn\Symbol\UndoRedoManager.cpp
;	COMDAT ?SetUndoRedoType@CUndo_Redo_Info@@QAEXABH@Z
_TEXT	SEGMENT
_nUndoRedoType$ = 8					; size = 4
?SetUndoRedoType@CUndo_Redo_Info@@QAEXABH@Z PROC	; CUndo_Redo_Info::SetUndoRedoType, COMDAT
; _this$ = ecx

; 52   : {

  00000	55		 push	 ebp
  00001	8b ec		 mov	 ebp, esp

; 53   : 	m_nUndoRedoType = nUndoRedoType;

  00003	8b 45 08	 mov	 eax, DWORD PTR _nUndoRedoType$[ebp]
  00006	8b 00		 mov	 eax, DWORD PTR [eax]
  00008	89 01		 mov	 DWORD PTR [ecx], eax

; 54   : }

  0000a	5d		 pop	 ebp
  0000b	c2 04 00	 ret	 4
?SetUndoRedoType@CUndo_Redo_Info@@QAEXABH@Z ENDP	; CUndo_Redo_Info::SetUndoRedoType
_TEXT	ENDS
; Function compile flags: /Ogtp
; File D:\git\src\IBK\IBK_DRFN\ProjSrc\SrcChartEx\ChartAddIn\ChartAnalysisToolAddIn\Symbol\UndoRedoManager.cpp
;	COMDAT ?GetUndoRedoType@CUndo_Redo_Info@@QBEHXZ
_TEXT	SEGMENT
?GetUndoRedoType@CUndo_Redo_Info@@QBEHXZ PROC		; CUndo_Redo_Info::GetUndoRedoType, COMDAT
; _this$ = ecx

; 48   : 	return m_nUndoRedoType;

  00000	8b 01		 mov	 eax, DWORD PTR [ecx]

; 49   : }

  00002	c3		 ret	 0
?GetUndoRedoType@CUndo_Redo_Info@@QBEHXZ ENDP		; CUndo_Redo_Info::GetUndoRedoType
_TEXT	ENDS
; Function compile flags: /Ogtp
; File D:\git\src\IBK\IBK_DRFN\ProjSrc\SrcChartEx\ChartAddIn\ChartAnalysisToolAddIn\Symbol\UndoRedoManager.cpp
;	COMDAT ??1CUndo_Redo_Info@@QAE@XZ
_TEXT	SEGMENT
??1CUndo_Redo_Info@@QAE@XZ PROC				; CUndo_Redo_Info::~CUndo_Redo_Info, COMDAT
; _this$ = ecx

; 39   : {

  00000	56		 push	 esi
  00001	8b f1		 mov	 esi, ecx
  00003	57		 push	 edi

; 40   : 	SetUndoRedoType(URT_NONE);
; 41   : 	m_lSymbolAddress = NULL;
; 42   : 	m_strSymbolData.Empty();

  00004	8d 4e 10	 lea	 ecx, DWORD PTR [esi+16]
  00007	c7 06 00 00 00
	00		 mov	 DWORD PTR [esi], 0
  0000d	c7 46 0c 00 00
	00 00		 mov	 DWORD PTR [esi+12], 0
  00014	ff 15 00 00 00
	00		 call	 DWORD PTR __imp_?Empty@?$CSimpleStringT@D$00@ATL@@QAEXXZ

; 43   : 	m_strSymbolData_Prev.Empty();

  0001a	8d 4e 14	 lea	 ecx, DWORD PTR [esi+20]
  0001d	ff 15 00 00 00
	00		 call	 DWORD PTR __imp_?Empty@?$CSimpleStringT@D$00@ATL@@QAEXXZ

; 44   : }

  00023	8d 4e 14	 lea	 ecx, DWORD PTR [esi+20]
  00026	ff 15 00 00 00
	00		 call	 DWORD PTR __imp_??1?$CStringT@DV?$StrTraitMFC_DLL@DV?$ChTraitsCRT@D@ATL@@@@@ATL@@QAE@XZ
  0002c	5f		 pop	 edi
  0002d	8d 4e 10	 lea	 ecx, DWORD PTR [esi+16]
  00030	5e		 pop	 esi
  00031	ff 25 00 00 00
	00		 jmp	 DWORD PTR __imp_??1?$CStringT@DV?$StrTraitMFC_DLL@DV?$ChTraitsCRT@D@ATL@@@@@ATL@@QAE@XZ
??1CUndo_Redo_Info@@QAE@XZ ENDP				; CUndo_Redo_Info::~CUndo_Redo_Info
_TEXT	ENDS
; Function compile flags: /Ogtp
; File D:\git\src\IBK\IBK_DRFN\ProjSrc\SrcChartEx\ChartAddIn\ChartAnalysisToolAddIn\Symbol\UndoRedoManager.cpp
; File D:\git\src\IBK\IBK_DRFN\ProjSrc\SrcChartEx\ChartAddIn\ChartAnalysisToolAddIn\Include_Chart\BlockBaseData.h
; File D:\git\src\IBK\IBK_DRFN\ProjSrc\SrcChartEx\ChartAddIn\ChartAnalysisToolAddIn\Symbol\UndoRedoManager.cpp
;	COMDAT ??0CUndo_Redo_Info@@QAE@HJV?$CStringT@DV?$StrTraitMFC_DLL@DV?$ChTraitsCRT@D@ATL@@@@@ATL@@0@Z
_TEXT	SEGMENT
_this$ = -16						; size = 4
__$EHRec$ = -12						; size = 12
_nUndoRedoType$ = 8					; size = 4
_lSymbolAddress$ = 12					; size = 4
_strSymbolData$ = 16					; size = 4
_strSymbolData_Prev$ = 20				; size = 4
??0CUndo_Redo_Info@@QAE@HJV?$CStringT@DV?$StrTraitMFC_DLL@DV?$ChTraitsCRT@D@ATL@@@@@ATL@@0@Z PROC ; CUndo_Redo_Info::CUndo_Redo_Info, COMDAT
; _this$ = ecx

; 31   : {

  00000	55		 push	 ebp
  00001	8b ec		 mov	 ebp, esp
  00003	6a ff		 push	 -1
  00005	68 00 00 00 00	 push	 __ehhandler$??0CUndo_Redo_Info@@QAE@HJV?$CStringT@DV?$StrTraitMFC_DLL@DV?$ChTraitsCRT@D@ATL@@@@@ATL@@0@Z
  0000a	64 a1 00 00 00
	00		 mov	 eax, DWORD PTR fs:0
  00010	50		 push	 eax
  00011	51		 push	 ecx
  00012	53		 push	 ebx
  00013	56		 push	 esi
  00014	57		 push	 edi
  00015	a1 00 00 00 00	 mov	 eax, DWORD PTR ___security_cookie
  0001a	33 c5		 xor	 eax, ebp
  0001c	50		 push	 eax
  0001d	8d 45 f4	 lea	 eax, DWORD PTR __$EHRec$[ebp]
  00020	64 a3 00 00 00
	00		 mov	 DWORD PTR fs:0, eax
  00026	8b d9		 mov	 ebx, ecx
  00028	89 5d f0	 mov	 DWORD PTR _this$[ebp], ebx
  0002b	c7 45 fc 00 00
	00 00		 mov	 DWORD PTR __$EHRec$[ebp+8], 0
  00032	8d 4b 10	 lea	 ecx, DWORD PTR [ebx+16]
; File D:\git\src\IBK\IBK_DRFN\ProjSrc\SrcChartEx\ChartAddIn\ChartAnalysisToolAddIn\Include_Chart\BlockBaseData.h

; 19   : 	CBlockIndex() { m_nRow = m_nColumn = -1; };

  00035	c7 43 08 ff ff
	ff ff		 mov	 DWORD PTR [ebx+8], -1
  0003c	c7 43 04 ff ff
	ff ff		 mov	 DWORD PTR [ebx+4], -1
; File D:\git\src\IBK\IBK_DRFN\ProjSrc\SrcChartEx\ChartAddIn\ChartAnalysisToolAddIn\Symbol\UndoRedoManager.cpp

; 31   : {

  00043	ff 15 00 00 00
	00		 call	 DWORD PTR __imp_??0?$CStringT@DV?$StrTraitMFC_DLL@DV?$ChTraitsCRT@D@ATL@@@@@ATL@@QAE@XZ
  00049	8d 4b 14	 lea	 ecx, DWORD PTR [ebx+20]
  0004c	ff 15 00 00 00
	00		 call	 DWORD PTR __imp_??0?$CStringT@DV?$StrTraitMFC_DLL@DV?$ChTraitsCRT@D@ATL@@@@@ATL@@QAE@XZ

; 32   : 	SetUndoRedoType(nUndoRedoType);

  00052	8b 45 08	 mov	 eax, DWORD PTR _nUndoRedoType$[ebp]

; 33   : 	m_lSymbolAddress = lSymbolAddress;
; 34   : 	m_strSymbolData = strSymbolData;

  00055	8d 4b 10	 lea	 ecx, DWORD PTR [ebx+16]
  00058	89 03		 mov	 DWORD PTR [ebx], eax
  0005a	8b 45 0c	 mov	 eax, DWORD PTR _lSymbolAddress$[ebp]
  0005d	89 43 0c	 mov	 DWORD PTR [ebx+12], eax
  00060	8d 45 10	 lea	 eax, DWORD PTR _strSymbolData$[ebp]
  00063	50		 push	 eax
  00064	c6 45 fc 03	 mov	 BYTE PTR __$EHRec$[ebp+8], 3
  00068	ff 15 00 00 00
	00		 call	 DWORD PTR __imp_??4?$CStringT@DV?$StrTraitMFC_DLL@DV?$ChTraitsCRT@D@ATL@@@@@ATL@@QAEAAV01@ABV01@@Z

; 35   : 	m_strSymbolData_Prev = strSymbolData_Prev;

  0006e	8d 45 14	 lea	 eax, DWORD PTR _strSymbolData_Prev$[ebp]
  00071	50		 push	 eax
  00072	8d 4b 14	 lea	 ecx, DWORD PTR [ebx+20]
  00075	ff 15 00 00 00
	00		 call	 DWORD PTR __imp_??4?$CStringT@DV?$StrTraitMFC_DLL@DV?$ChTraitsCRT@D@ATL@@@@@ATL@@QAEAAV01@ABV01@@Z

; 36   : }

  0007b	8d 4d 10	 lea	 ecx, DWORD PTR _strSymbolData$[ebp]
  0007e	ff 15 00 00 00
	00		 call	 DWORD PTR __imp_??1?$CStringT@DV?$StrTraitMFC_DLL@DV?$ChTraitsCRT@D@ATL@@@@@ATL@@QAE@XZ
  00084	8d 4d 14	 lea	 ecx, DWORD PTR _strSymbolData_Prev$[ebp]
  00087	ff 15 00 00 00
	00		 call	 DWORD PTR __imp_??1?$CStringT@DV?$StrTraitMFC_DLL@DV?$ChTraitsCRT@D@ATL@@@@@ATL@@QAE@XZ
  0008d	8b c3		 mov	 eax, ebx
  0008f	8b 4d f4	 mov	 ecx, DWORD PTR __$EHRec$[ebp]
  00092	64 89 0d 00 00
	00 00		 mov	 DWORD PTR fs:0, ecx
  00099	59		 pop	 ecx
  0009a	5f		 pop	 edi
  0009b	5e		 pop	 esi
  0009c	5b		 pop	 ebx
  0009d	8b e5		 mov	 esp, ebp
  0009f	5d		 pop	 ebp
  000a0	c2 10 00	 ret	 16			; 00000010H
_TEXT	ENDS
;	COMDAT text$x
text$x	SEGMENT
__unwindfunclet$??0CUndo_Redo_Info@@QAE@HJV?$CStringT@DV?$StrTraitMFC_DLL@DV?$ChTraitsCRT@D@ATL@@@@@ATL@@0@Z$0:
  00000	8d 4d 14	 lea	 ecx, DWORD PTR _strSymbolData_Prev$[ebp]
  00003	ff 25 00 00 00
	00		 jmp	 DWORD PTR __imp_??1?$CStringT@DV?$StrTraitMFC_DLL@DV?$ChTraitsCRT@D@ATL@@@@@ATL@@QAE@XZ
__unwindfunclet$??0CUndo_Redo_Info@@QAE@HJV?$CStringT@DV?$StrTraitMFC_DLL@DV?$ChTraitsCRT@D@ATL@@@@@ATL@@0@Z$1:
  00009	8d 4d 10	 lea	 ecx, DWORD PTR _strSymbolData$[ebp]
  0000c	ff 25 00 00 00
	00		 jmp	 DWORD PTR __imp_??1?$CStringT@DV?$StrTraitMFC_DLL@DV?$ChTraitsCRT@D@ATL@@@@@ATL@@QAE@XZ
__unwindfunclet$??0CUndo_Redo_Info@@QAE@HJV?$CStringT@DV?$StrTraitMFC_DLL@DV?$ChTraitsCRT@D@ATL@@@@@ATL@@0@Z$2:
  00012	8b 4d f0	 mov	 ecx, DWORD PTR _this$[ebp]
  00015	83 c1 10	 add	 ecx, 16			; 00000010H
  00018	ff 25 00 00 00
	00		 jmp	 DWORD PTR __imp_??1?$CStringT@DV?$StrTraitMFC_DLL@DV?$ChTraitsCRT@D@ATL@@@@@ATL@@QAE@XZ
__unwindfunclet$??0CUndo_Redo_Info@@QAE@HJV?$CStringT@DV?$StrTraitMFC_DLL@DV?$ChTraitsCRT@D@ATL@@@@@ATL@@0@Z$3:
  0001e	8b 4d f0	 mov	 ecx, DWORD PTR _this$[ebp]
  00021	83 c1 14	 add	 ecx, 20			; 00000014H
  00024	ff 25 00 00 00
	00		 jmp	 DWORD PTR __imp_??1?$CStringT@DV?$StrTraitMFC_DLL@DV?$ChTraitsCRT@D@ATL@@@@@ATL@@QAE@XZ
  0002a	cc		 int	 3
  0002b	cc		 int	 3
  0002c	cc		 int	 3
  0002d	cc		 int	 3
  0002e	cc		 int	 3
__ehhandler$??0CUndo_Redo_Info@@QAE@HJV?$CStringT@DV?$StrTraitMFC_DLL@DV?$ChTraitsCRT@D@ATL@@@@@ATL@@0@Z:
  0002f	90		 npad	 1
  00030	90		 npad	 1
  00031	8b 54 24 08	 mov	 edx, DWORD PTR [esp+8]
  00035	8d 42 0c	 lea	 eax, DWORD PTR [edx+12]
  00038	8b 4a ec	 mov	 ecx, DWORD PTR [edx-20]
  0003b	33 c8		 xor	 ecx, eax
  0003d	e8 00 00 00 00	 call	 @__security_check_cookie@4
  00042	b8 00 00 00 00	 mov	 eax, OFFSET __ehfuncinfo$??0CUndo_Redo_Info@@QAE@HJV?$CStringT@DV?$StrTraitMFC_DLL@DV?$ChTraitsCRT@D@ATL@@@@@ATL@@0@Z
  00047	e9 00 00 00 00	 jmp	 ___CxxFrameHandler3
text$x	ENDS
??0CUndo_Redo_Info@@QAE@HJV?$CStringT@DV?$StrTraitMFC_DLL@DV?$ChTraitsCRT@D@ATL@@@@@ATL@@0@Z ENDP ; CUndo_Redo_Info::CUndo_Redo_Info
; Function compile flags: /Ogtp
; File D:\git\src\IBK\IBK_DRFN\ProjSrc\SrcChartEx\ChartAddIn\ChartAnalysisToolAddIn\Symbol\UndoRedoManager.cpp
; File D:\git\src\IBK\IBK_DRFN\ProjSrc\SrcChartEx\ChartAddIn\ChartAnalysisToolAddIn\Include_Chart\BlockBaseData.h
; File D:\git\src\IBK\IBK_DRFN\ProjSrc\SrcChartEx\ChartAddIn\ChartAnalysisToolAddIn\Symbol\UndoRedoManager.cpp
;	COMDAT ??0CUndo_Redo_Info@@QAE@XZ
_TEXT	SEGMENT
_this$ = -4						; size = 4
??0CUndo_Redo_Info@@QAE@XZ PROC				; CUndo_Redo_Info::CUndo_Redo_Info, COMDAT
; _this$ = ecx

; 27   : {

  00000	55		 push	 ebp
  00001	8b ec		 mov	 ebp, esp
  00003	51		 push	 ecx
  00004	56		 push	 esi
  00005	8b f1		 mov	 esi, ecx
  00007	89 75 fc	 mov	 DWORD PTR _this$[ebp], esi

; 25   : 	m_nUndoRedoType(URT_NONE), 

  0000a	c7 06 00 00 00
	00		 mov	 DWORD PTR [esi], 0

; 27   : {

  00010	8d 4e 10	 lea	 ecx, DWORD PTR [esi+16]
; File D:\git\src\IBK\IBK_DRFN\ProjSrc\SrcChartEx\ChartAddIn\ChartAnalysisToolAddIn\Include_Chart\BlockBaseData.h

; 19   : 	CBlockIndex() { m_nRow = m_nColumn = -1; };

  00013	c7 46 08 ff ff
	ff ff		 mov	 DWORD PTR [esi+8], -1
  0001a	c7 46 04 ff ff
	ff ff		 mov	 DWORD PTR [esi+4], -1
; File D:\git\src\IBK\IBK_DRFN\ProjSrc\SrcChartEx\ChartAddIn\ChartAnalysisToolAddIn\Symbol\UndoRedoManager.cpp

; 26   : 	m_lSymbolAddress(NULL)

  00021	c7 46 0c 00 00
	00 00		 mov	 DWORD PTR [esi+12], 0

; 27   : {

  00028	ff 15 00 00 00
	00		 call	 DWORD PTR __imp_??0?$CStringT@DV?$StrTraitMFC_DLL@DV?$ChTraitsCRT@D@ATL@@@@@ATL@@QAE@XZ
  0002e	8d 4e 14	 lea	 ecx, DWORD PTR [esi+20]
  00031	ff 15 00 00 00
	00		 call	 DWORD PTR __imp_??0?$CStringT@DV?$StrTraitMFC_DLL@DV?$ChTraitsCRT@D@ATL@@@@@ATL@@QAE@XZ

; 28   : }

  00037	8b c6		 mov	 eax, esi
  00039	5e		 pop	 esi
  0003a	8b e5		 mov	 esp, ebp
  0003c	5d		 pop	 ebp
  0003d	c3		 ret	 0
??0CUndo_Redo_Info@@QAE@XZ ENDP				; CUndo_Redo_Info::CUndo_Redo_Info
_TEXT	ENDS
; Function compile flags: /Ogtp
; File C:\Program Files (x86)\Microsoft Visual Studio\2019\Community\VC\Tools\MSVC\14.29.30133\atlmfc\include\afx.inl
;	COMDAT ?Dump@CObject@@UBEXAAVCDumpContext@@@Z
_TEXT	SEGMENT
___formal$ = 8						; size = 4
?Dump@CObject@@UBEXAAVCDumpContext@@@Z PROC		; CObject::Dump, COMDAT
; _this$ = ecx

; 122  : 	{ /* no dumping in release builds */ }

  00000	c2 04 00	 ret	 4
?Dump@CObject@@UBEXAAVCDumpContext@@@Z ENDP		; CObject::Dump
_TEXT	ENDS
; Function compile flags: /Ogtp
; File C:\Program Files (x86)\Microsoft Visual Studio\2019\Community\VC\Tools\MSVC\14.29.30133\atlmfc\include\afx.inl
;	COMDAT ?AssertValid@CObject@@UBEXXZ
_TEXT	SEGMENT
?AssertValid@CObject@@UBEXXZ PROC			; CObject::AssertValid, COMDAT
; _this$ = ecx

; 120  : 	{ /* no asserts in release builds */ }

  00000	c2 00 00	 ret	 0
?AssertValid@CObject@@UBEXXZ ENDP			; CObject::AssertValid
_TEXT	ENDS
; Function compile flags: /Ogtp
; File C:\Program Files (x86)\Microsoft Visual Studio\2019\Community\VC\Tools\MSVC\14.29.30133\atlmfc\include\afx.inl
;	COMDAT ?Serialize@CObject@@UAEXAAVCArchive@@@Z
_TEXT	SEGMENT
___formal$ = 8						; size = 4
?Serialize@CObject@@UAEXAAVCArchive@@@Z PROC		; CObject::Serialize, COMDAT
; _this$ = ecx

; 106  : 	{ /* CObject does not serialize anything by default */ }

  00000	c2 04 00	 ret	 4
?Serialize@CObject@@UAEXAAVCArchive@@@Z ENDP		; CObject::Serialize
_TEXT	ENDS
; Function compile flags: /Ogtp
; File C:\Program Files (x86)\Microsoft Visual Studio\2019\Community\VC\Tools\MSVC\14.29.30133\atlmfc\include\afx.inl
;	COMDAT ??1CObject@@UAE@XZ
_TEXT	SEGMENT
??1CObject@@UAE@XZ PROC					; CObject::~CObject, COMDAT
; _this$ = ecx

; 104  : 	{ }

  00000	c2 00 00	 ret	 0
??1CObject@@UAE@XZ ENDP					; CObject::~CObject
_TEXT	ENDS
; Function compile flags: /Ogtp
; File D:\git\src\IBK\IBK_DRFN\ProjSrc\SrcChartEx\ChartAddIn\ChartAnalysisToolAddIn\Symbol\UndoRedoManager.cpp
;	COMDAT ?__empty_global_delete@@YAXPAXI@Z
_TEXT	SEGMENT
___formal$ = 8						; size = 4
___formal$ = 12						; size = 4
?__empty_global_delete@@YAXPAXI@Z PROC			; __empty_global_delete, COMDAT

  00000	c2 00 00	 ret	 0
?__empty_global_delete@@YAXPAXI@Z ENDP			; __empty_global_delete
_TEXT	ENDS
; Function compile flags: /Ogtp
; File D:\git\src\IBK\IBK_DRFN\ProjSrc\SrcChartEx\ChartAddIn\ChartAnalysisToolAddIn\Symbol\UndoRedoManager.cpp
;	COMDAT ?__empty_global_delete@@YAXPAX@Z
_TEXT	SEGMENT
___formal$ = 8						; size = 4
?__empty_global_delete@@YAXPAX@Z PROC			; __empty_global_delete, COMDAT

  00000	c2 00 00	 ret	 0
?__empty_global_delete@@YAXPAX@Z ENDP			; __empty_global_delete
_TEXT	ENDS
END
