; Listing generated by Microsoft (R) Optimizing Compiler Version 19.29.30145.0 

	TITLE	D:\git\src\IBK\IBK_DRFN\#DRfn-CS\_Obj\AddInManager\AddInManager.obj
	.686P
	.XMM
	include listing.inc
	.model	flat

INCLUDELIB MSVCRT
INCLUDELIB OLDNAMES

PUBLIC	?__empty_global_delete@@YAXPAX@Z		; __empty_global_delete
PUBLIC	?__global_delete@@YAXPAX@Z			; __global_delete
PUBLIC	?__empty_global_delete@@YAXPAXI@Z		; __empty_global_delete
PUBLIC	?__global_delete@@YAXPAXI@Z			; __global_delete
PUBLIC	?__global_array_delete@@YAXPAX@Z		; __global_array_delete
PUBLIC	?__global_array_delete@@YAXPAXI@Z		; __global_array_delete
PUBLIC	??1CObject@@UAE@XZ				; CObject::~CObject
PUBLIC	??3CObject@@SGXPAX@Z				; CObject::operator delete
PUBLIC	?Serialize@CObject@@UAEXAAVCArchive@@@Z		; CObject::Serialize
PUBLIC	?AssertValid@CObject@@UBEXXZ			; CObject::AssertValid
PUBLIC	?Dump@CObject@@UBEXAAVCDumpContext@@@Z		; CObject::Dump
PUBLIC	??0CAddInManager@@QAE@PAUIChartCtrl@@PBD@Z	; CAddInManager::CAddInManager
PUBLIC	??1CAddInManager@@UAE@XZ			; CAddInManager::~CAddInManager
PUBLIC	?LoadAddIn@CAddInManager@@QAEHPBDH@Z		; CAddInManager::LoadAddIn
PUBLIC	?UnloadAddIn@CAddInManager@@QAEHPBD@Z		; CAddInManager::UnloadAddIn
PUBLIC	?UnloadAllAddin@CAddInManager@@QAEXXZ		; CAddInManager::UnloadAllAddin
PUBLIC	?GetAddInCustomInterface@CAddInManager@@QAEPAUIUnknown@@PBD@Z ; CAddInManager::GetAddInCustomInterface
PUBLIC	?IsAddInLoaded@CAddInManager@@QAEHPBD@Z		; CAddInManager::IsAddInLoaded
PUBLIC	?InvokeAddIn@CAddInManager@@QAEHPBDFJ@Z		; CAddInManager::InvokeAddIn
PUBLIC	?InvokeAddInStr@CAddInManager@@QAEHPBD00@Z	; CAddInManager::InvokeAddInStr
PUBLIC	?OnOcxDestroyWindow@CAddInManager@@QAEXXZ	; CAddInManager::OnOcxDestroyWindow
PUBLIC	?ChangeChartMode@CAddInManager@@QAEXW4CHART_MODE@CChartInfo@@@Z ; CAddInManager::ChangeChartMode
PUBLIC	?OnGSharedDataChange@CAddInManager@@QAEXPBD0H@Z	; CAddInManager::OnGSharedDataChange
PUBLIC	?OnLSharedDataChange@CAddInManager@@QAEXPBD0@Z	; CAddInManager::OnLSharedDataChange
PUBLIC	?OnResetChart@CAddInManager@@QAEXXZ		; CAddInManager::OnResetChart
PUBLIC	?OnDrawBeforeGraph@CAddInManager@@QAEXPAVCDC@@@Z ; CAddInManager::OnDrawBeforeGraph
PUBLIC	?OnDrawAfterGraph@CAddInManager@@QAEXPAVCDC@@@Z	; CAddInManager::OnDrawAfterGraph
PUBLIC	?OnPacketDataMultiItem@CAddInManager@@QAEXPBD0H@Z ; CAddInManager::OnPacketDataMultiItem
PUBLIC	?OnTimer@CAddInManager@@QAEXI@Z			; CAddInManager::OnTimer
PUBLIC	?OnCaptureChanged@CAddInManager@@QAEXPAVCWnd@@PBVCBitmap@@@Z ; CAddInManager::OnCaptureChanged
PUBLIC	?OnResetMainBlock@CAddInManager@@QAEXXZ		; CAddInManager::OnResetMainBlock
PUBLIC	?OnUserIndiatorConditionLoaded@CAddInManager@@QAEXXZ ; CAddInManager::OnUserIndiatorConditionLoaded
PUBLIC	?OnChartItemChanged@CAddInManager@@QAEXXZ	; CAddInManager::OnChartItemChanged
PUBLIC	?OnGraphDataChanged@CAddInManager@@QAEXXZ	; CAddInManager::OnGraphDataChanged
PUBLIC	?OnBlockRemoved@CAddInManager@@QAEXHH@Z		; CAddInManager::OnBlockRemoved
PUBLIC	?OnGraphAdded@CAddInManager@@QAEXPBD0@Z		; CAddInManager::OnGraphAdded
PUBLIC	?OnManualRealData@CAddInManager@@QAEXPBDNH@Z	; CAddInManager::OnManualRealData
PUBLIC	?OnContextMenu@CAddInManager@@QAEXPAVCWnd@@AAVCPoint@@@Z ; CAddInManager::OnContextMenu
PUBLIC	?OnGraphDeleted@CAddInManager@@QAEXPBD0@Z	; CAddInManager::OnGraphDeleted
PUBLIC	?OnPacketTruncated@CAddInManager@@QAEXH@Z	; CAddInManager::OnPacketTruncated
PUBLIC	?OnBlockChanged@CAddInManager@@QAEXW4BLOCKBEHAVIOR@CBlockBaseData@@HHHH@Z ; CAddInManager::OnBlockChanged
PUBLIC	?OnToolCommand@CAddInManager@@QAEXHH@Z		; CAddInManager::OnToolCommand
PUBLIC	?OnLoadEnvironment@CAddInManager@@QAEXPAVCPropertyMap@@@Z ; CAddInManager::OnLoadEnvironment
PUBLIC	?OnSaveEnvironment@CAddInManager@@QAEXPAVCPropertyMap@@@Z ; CAddInManager::OnSaveEnvironment
PUBLIC	?ClearCursor@CAddInManager@@QAEXPAVCDC@@PBVCBitmap@@PAVCRect@@@Z ; CAddInManager::ClearCursor
PUBLIC	?DrawCursor@CAddInManager@@QAEXPAVCDC@@@Z	; CAddInManager::DrawCursor
PUBLIC	?OnRecalculationComplete@CAddInManager@@QAEXXZ	; CAddInManager::OnRecalculationComplete
PUBLIC	?OnCmdMsg@CAddInManager@@QAEHIHPAXPAUAFX_CMDHANDLERINFO@@@Z ; CAddInManager::OnCmdMsg
PUBLIC	?OnAddInMsg@CAddInManager@@QAEHPBDJ@Z		; CAddInManager::OnAddInMsg
PUBLIC	?OnAddInToolCommand@CAddInManager@@QAEHW4EAICommandType@@@Z ; CAddInManager::OnAddInToolCommand
PUBLIC	?OnAddInToolCommand@CAddInManager@@QAEHW4EAICommandType@@PAVCDC@@IAAVCPoint@@K@Z ; CAddInManager::OnAddInToolCommand
PUBLIC	?OnAddInToolCommand@CAddInManager@@QAEHW4EAICommandType@@PBD@Z ; CAddInManager::OnAddInToolCommand
PUBLIC	?OnAddInToolCommand@CAddInManager@@QAEHW4EAICommandType@@PBD1@Z ; CAddInManager::OnAddInToolCommand
PUBLIC	?OnAddInToolCommand@CAddInManager@@QAEHW4EAICommandType@@PBDJ@Z ; CAddInManager::OnAddInToolCommand
PUBLIC	?OnAddInToolCommand@CAddInManager@@QAEHW4EAICommandType@@PBUIAddInDll@@@Z ; CAddInManager::OnAddInToolCommand
PUBLIC	?OnAddInToolCommand@CAddInManager@@QAEHW4EAICommandType@@J@Z ; CAddInManager::OnAddInToolCommand
PUBLIC	?OnAddInToolCommand@CAddInManager@@QAEHW4EAICommandType@@JPBD@Z ; CAddInManager::OnAddInToolCommand
PUBLIC	?OnAddInToolCommand@CAddInManager@@QAEHW4EAICommandType@@JPBD11@Z ; CAddInManager::OnAddInToolCommand
PUBLIC	?OnAddInToolCommand@CAddInManager@@QAEHW4EAICommandType@@JJ@Z ; CAddInManager::OnAddInToolCommand
PUBLIC	?OnAddInToolCommand@CAddInManager@@QAEHW4EAICommandType@@JJJJJJJJJ@Z ; CAddInManager::OnAddInToolCommand
PUBLIC	?OnAddInToolCommand@CAddInManager@@QAEHAAJW4EAICommandType@@@Z ; CAddInManager::OnAddInToolCommand
PUBLIC	?OnAddInToolCommand@CAddInManager@@QAEHAAJW4EAICommandType@@PAVCIndicatorInfo@@@Z ; CAddInManager::OnAddInToolCommand
PUBLIC	?OnAddInToolCommand@CAddInManager@@QAEHAAJW4EAICommandType@@PBD@Z ; CAddInManager::OnAddInToolCommand
PUBLIC	?OnAddInToolCommand@CAddInManager@@QAEHAAJW4EAICommandType@@PBD2PAVCObject@@@Z ; CAddInManager::OnAddInToolCommand
PUBLIC	?OnAddInToolCommand@CAddInManager@@QAEHAAJW4EAICommandType@@PBD22PAVCObject@@@Z ; CAddInManager::OnAddInToolCommand
PUBLIC	?OnAddInToolCommand@CAddInManager@@QAEHAAJW4EAICommandType@@J@Z ; CAddInManager::OnAddInToolCommand
PUBLIC	?OnAddInToolCommand@CAddInManager@@QAEHAAJW4EAICommandType@@JJ@Z ; CAddInManager::OnAddInToolCommand
PUBLIC	?OnKeyDown@CAddInManager@@QAEHIII@Z		; CAddInManager::OnKeyDown
PUBLIC	?OnKeyUp@CAddInManager@@QAEHIII@Z		; CAddInManager::OnKeyUp
PUBLIC	?OnMouseWheel@CAddInManager@@QAEHIFVCPoint@@K@Z	; CAddInManager::OnMouseWheel
PUBLIC	?OnMouseMove@CAddInManager@@QAEHPAVCDC@@IAAVCPoint@@KPBVCBitmap@@@Z ; CAddInManager::OnMouseMove
PUBLIC	?OnLButtonDown@CAddInManager@@QAEHPAVCDC@@IAAVCPoint@@K@Z ; CAddInManager::OnLButtonDown
PUBLIC	?OnLButtonUp@CAddInManager@@QAEHPAVCDC@@IAAVCPoint@@K@Z ; CAddInManager::OnLButtonUp
PUBLIC	?OnLButtonDblClk@CAddInManager@@QAEHPAVCDC@@IAAVCPoint@@K@Z ; CAddInManager::OnLButtonDblClk
PUBLIC	?OnRButtonDown@CAddInManager@@QAEHPAVCDC@@IAAVCPoint@@K@Z ; CAddInManager::OnRButtonDown
PUBLIC	?OnRButtonUp@CAddInManager@@QAEHPAVCDC@@IAAVCPoint@@K@Z ; CAddInManager::OnRButtonUp
PUBLIC	?OnRButtonDblClk@CAddInManager@@QAEHPAVCDC@@IAAVCPoint@@K@Z ; CAddInManager::OnRButtonDblClk
PUBLIC	??_GCAddInManager@@UAEPAXI@Z			; CAddInManager::`scalar deleting destructor'
PUBLIC	??_ECAddInManager@@UAEPAXI@Z			; CAddInManager::`vector deleting destructor'
PUBLIC	??_R0?AVCObject@@@8				; CObject `RTTI Type Descriptor'
PUBLIC	??_R3CObject@@8					; CObject::`RTTI Class Hierarchy Descriptor'
PUBLIC	??_R2CObject@@8					; CObject::`RTTI Base Class Array'
PUBLIC	??_R1A@?0A@EA@CObject@@8			; CObject::`RTTI Base Class Descriptor at (0,-1,0,64)'
PUBLIC	??_7CAddInManager@@6B@				; CAddInManager::`vftable'
PUBLIC	??_R4CAddInManager@@6B@				; CAddInManager::`RTTI Complete Object Locator'
PUBLIC	??_R0?AVCAddInManager@@@8			; CAddInManager `RTTI Type Descriptor'
PUBLIC	??_R3CAddInManager@@8				; CAddInManager::`RTTI Class Hierarchy Descriptor'
PUBLIC	??_R2CAddInManager@@8				; CAddInManager::`RTTI Base Class Array'
PUBLIC	??_R1A@?0A@EA@CAddInManager@@8			; CAddInManager::`RTTI Base Class Descriptor at (0,-1,0,64)'
EXTRN	??_M@YGXPAXIIP6EX0@Z@Z:PROC			; `eh vector destructor iterator'
EXTRN	??2@YAPAXI@Z:PROC				; operator new
EXTRN	??3@YAXPAX@Z:PROC				; operator delete
EXTRN	??3@YAXPAXI@Z:PROC				; operator delete
EXTRN	??_V@YAXPAX@Z:PROC				; operator delete[]
EXTRN	??_V@YAXPAXI@Z:PROC				; operator delete[]
EXTRN	?GetRuntimeClass@CObject@@UBEPAUCRuntimeClass@@XZ:PROC ; CObject::GetRuntimeClass
EXTRN	?LoadMetaTable@IMetaTable@@QAEXXZ:PROC		; IMetaTable::LoadMetaTable
EXTRN	??0CAddInManagerImp@@QAE@PAUIChartCtrl@@PBD@Z:PROC ; CAddInManagerImp::CAddInManagerImp
EXTRN	?LoadMultipleAddInDll@CAddInManagerImp@@QAEHPBDH@Z:PROC ; CAddInManagerImp::LoadMultipleAddInDll
EXTRN	?UnloadMultipleAddInDll@CAddInManagerImp@@QAEHPBD@Z:PROC ; CAddInManagerImp::UnloadMultipleAddInDll
EXTRN	?UnloadAllAddin@CAddInManagerImp@@QAEXXZ:PROC	; CAddInManagerImp::UnloadAllAddin
EXTRN	?GetAddInCustomInterface@CAddInManagerImp@@QAEPAUIUnknown@@PBD@Z:PROC ; CAddInManagerImp::GetAddInCustomInterface
EXTRN	?IsAddInLoaded@CAddInManagerImp@@QAEHPBD@Z:PROC	; CAddInManagerImp::IsAddInLoaded
EXTRN	?InvokeAddIn@CAddInManagerImp@@QAEHPBDFJ@Z:PROC	; CAddInManagerImp::InvokeAddIn
EXTRN	?InvokeAddInStr@CAddInManagerImp@@QAEHPBD00@Z:PROC ; CAddInManagerImp::InvokeAddInStr
EXTRN	?OnOcxDestroyWindow@CAddInManagerImp@@QAEXXZ:PROC ; CAddInManagerImp::OnOcxDestroyWindow
EXTRN	?ChangeChartMode@CAddInManagerImp@@QAEXW4CHART_MODE@CChartInfo@@@Z:PROC ; CAddInManagerImp::ChangeChartMode
EXTRN	?OnGSharedDataChange@CAddInManagerImp@@QAEXPBD0H@Z:PROC ; CAddInManagerImp::OnGSharedDataChange
EXTRN	?OnLSharedDataChange@CAddInManagerImp@@QAEXPBD0@Z:PROC ; CAddInManagerImp::OnLSharedDataChange
EXTRN	?OnResetChart@CAddInManagerImp@@QAEXXZ:PROC	; CAddInManagerImp::OnResetChart
EXTRN	?OnDrawBeforeGraph@CAddInManagerImp@@QAEXPAUHDC__@@@Z:PROC ; CAddInManagerImp::OnDrawBeforeGraph
EXTRN	?OnDrawAfterGraph@CAddInManagerImp@@QAEXPAUHDC__@@@Z:PROC ; CAddInManagerImp::OnDrawAfterGraph
EXTRN	?OnPacketDataMultiItem@CAddInManagerImp@@QAEXPBD0H@Z:PROC ; CAddInManagerImp::OnPacketDataMultiItem
EXTRN	?OnTimer@CAddInManagerImp@@QAEXI@Z:PROC		; CAddInManagerImp::OnTimer
EXTRN	?OnCaptureChanged@CAddInManagerImp@@QAEXPAVCWnd@@QAUHBITMAP__@@@Z:PROC ; CAddInManagerImp::OnCaptureChanged
EXTRN	?OnResetMainBlock@CAddInManagerImp@@QAEXXZ:PROC	; CAddInManagerImp::OnResetMainBlock
EXTRN	?OnUserIndiatorConditionLoaded@CAddInManagerImp@@QAEXXZ:PROC ; CAddInManagerImp::OnUserIndiatorConditionLoaded
EXTRN	?OnChartItemChanged@CAddInManagerImp@@QAEXXZ:PROC ; CAddInManagerImp::OnChartItemChanged
EXTRN	?OnGraphDataChanged@CAddInManagerImp@@QAEXXZ:PROC ; CAddInManagerImp::OnGraphDataChanged
EXTRN	?OnBlockRemoved@CAddInManagerImp@@QAEXHH@Z:PROC	; CAddInManagerImp::OnBlockRemoved
EXTRN	?OnGraphAdded@CAddInManagerImp@@QAEXPBD0@Z:PROC	; CAddInManagerImp::OnGraphAdded
EXTRN	?OnManualRealData@CAddInManagerImp@@QAEXPBDNH@Z:PROC ; CAddInManagerImp::OnManualRealData
EXTRN	?OnContextMenu@CAddInManagerImp@@QAEXPAUHWND__@@AAUtagPOINT@@@Z:PROC ; CAddInManagerImp::OnContextMenu
EXTRN	?OnGraphDeleted@CAddInManagerImp@@QAEXPBD0@Z:PROC ; CAddInManagerImp::OnGraphDeleted
EXTRN	?OnPacketTruncated@CAddInManagerImp@@QAEXH@Z:PROC ; CAddInManagerImp::OnPacketTruncated
EXTRN	?OnBlockChanged@CAddInManagerImp@@QAEXW4BLOCKBEHAVIOR@CBlockBaseData@@HHHH@Z:PROC ; CAddInManagerImp::OnBlockChanged
EXTRN	?OnToolCommand@CAddInManagerImp@@QAEXHH@Z:PROC	; CAddInManagerImp::OnToolCommand
EXTRN	?OnLoadEnvironment@CAddInManagerImp@@QAEXPAVCPropertyMap@@@Z:PROC ; CAddInManagerImp::OnLoadEnvironment
EXTRN	?OnSaveEnvironment@CAddInManagerImp@@QAEXPAVCPropertyMap@@@Z:PROC ; CAddInManagerImp::OnSaveEnvironment
EXTRN	?ClearCursor@CAddInManagerImp@@QAEXPAVCDC@@PBVCBitmap@@PAVCRect@@@Z:PROC ; CAddInManagerImp::ClearCursor
EXTRN	?DrawCursor@CAddInManagerImp@@QAEXPAVCDC@@@Z:PROC ; CAddInManagerImp::DrawCursor
EXTRN	?OnRecalculationComplete@CAddInManagerImp@@QAEXXZ:PROC ; CAddInManagerImp::OnRecalculationComplete
EXTRN	?OnCmdMsg@CAddInManagerImp@@QAEHIHPAXPAUAFX_CMDHANDLERINFO@@@Z:PROC ; CAddInManagerImp::OnCmdMsg
EXTRN	?OnAddInMsg@CAddInManagerImp@@QAEHPBDJ@Z:PROC	; CAddInManagerImp::OnAddInMsg
EXTRN	?OnAddInToolCommand@CAddInManagerImp@@QAEHW4EAICommandType@@@Z:PROC ; CAddInManagerImp::OnAddInToolCommand
EXTRN	?OnAddInToolCommand@CAddInManagerImp@@QAEHW4EAICommandType@@PAUHDC__@@IAAUtagPOINT@@K@Z:PROC ; CAddInManagerImp::OnAddInToolCommand
EXTRN	?OnAddInToolCommand@CAddInManagerImp@@QAEHW4EAICommandType@@PBD@Z:PROC ; CAddInManagerImp::OnAddInToolCommand
EXTRN	?OnAddInToolCommand@CAddInManagerImp@@QAEHW4EAICommandType@@PBD1@Z:PROC ; CAddInManagerImp::OnAddInToolCommand
EXTRN	?OnAddInToolCommand@CAddInManagerImp@@QAEHW4EAICommandType@@PBDJ@Z:PROC ; CAddInManagerImp::OnAddInToolCommand
EXTRN	?OnAddInToolCommand@CAddInManagerImp@@QAEHW4EAICommandType@@PBUIAddInDll@@@Z:PROC ; CAddInManagerImp::OnAddInToolCommand
EXTRN	?OnAddInToolCommand@CAddInManagerImp@@QAEHW4EAICommandType@@J@Z:PROC ; CAddInManagerImp::OnAddInToolCommand
EXTRN	?OnAddInToolCommand@CAddInManagerImp@@QAEHW4EAICommandType@@JPBD@Z:PROC ; CAddInManagerImp::OnAddInToolCommand
EXTRN	?OnAddInToolCommand@CAddInManagerImp@@QAEHW4EAICommandType@@JPBD11@Z:PROC ; CAddInManagerImp::OnAddInToolCommand
EXTRN	?OnAddInToolCommand@CAddInManagerImp@@QAEHW4EAICommandType@@JJ@Z:PROC ; CAddInManagerImp::OnAddInToolCommand
EXTRN	?OnAddInToolCommand@CAddInManagerImp@@QAEHW4EAICommandType@@JJJJJJJJJ@Z:PROC ; CAddInManagerImp::OnAddInToolCommand
EXTRN	?OnAddInToolCommand@CAddInManagerImp@@QAEHAAJW4EAICommandType@@@Z:PROC ; CAddInManagerImp::OnAddInToolCommand
EXTRN	?OnAddInToolCommand@CAddInManagerImp@@QAEHAAJW4EAICommandType@@PAVCIndicatorInfo@@@Z:PROC ; CAddInManagerImp::OnAddInToolCommand
EXTRN	?OnAddInToolCommand@CAddInManagerImp@@QAEHAAJW4EAICommandType@@PBD@Z:PROC ; CAddInManagerImp::OnAddInToolCommand
EXTRN	?OnAddInToolCommand@CAddInManagerImp@@QAEHAAJW4EAICommandType@@PBD2PAVCObject@@@Z:PROC ; CAddInManagerImp::OnAddInToolCommand
EXTRN	?OnAddInToolCommand@CAddInManagerImp@@QAEHAAJW4EAICommandType@@PBD22PAVCObject@@@Z:PROC ; CAddInManagerImp::OnAddInToolCommand
EXTRN	?OnAddInToolCommand@CAddInManagerImp@@QAEHAAJW4EAICommandType@@J@Z:PROC ; CAddInManagerImp::OnAddInToolCommand
EXTRN	?OnAddInToolCommand@CAddInManagerImp@@QAEHAAJW4EAICommandType@@JJ@Z:PROC ; CAddInManagerImp::OnAddInToolCommand
EXTRN	?OnKeyDown@CAddInManagerImp@@QAEHIII@Z:PROC	; CAddInManagerImp::OnKeyDown
EXTRN	?OnKeyUp@CAddInManagerImp@@QAEHIII@Z:PROC	; CAddInManagerImp::OnKeyUp
EXTRN	?OnMouseWheel@CAddInManagerImp@@QAEHIFUtagPOINT@@K@Z:PROC ; CAddInManagerImp::OnMouseWheel
EXTRN	?OnMouseMove@CAddInManagerImp@@QAEHPAUHDC__@@IAAUtagPOINT@@KQAUHBITMAP__@@@Z:PROC ; CAddInManagerImp::OnMouseMove
EXTRN	?OnLButtonDown@CAddInManagerImp@@QAEHPAUHDC__@@IAAUtagPOINT@@K@Z:PROC ; CAddInManagerImp::OnLButtonDown
EXTRN	?OnLButtonUp@CAddInManagerImp@@QAEHPAUHDC__@@IAAUtagPOINT@@K@Z:PROC ; CAddInManagerImp::OnLButtonUp
EXTRN	?OnLButtonDblClk@CAddInManagerImp@@QAEHPAUHDC__@@IAAUtagPOINT@@K@Z:PROC ; CAddInManagerImp::OnLButtonDblClk
EXTRN	?OnRButtonDown@CAddInManagerImp@@QAEHPAUHDC__@@IAAUtagPOINT@@K@Z:PROC ; CAddInManagerImp::OnRButtonDown
EXTRN	?OnRButtonUp@CAddInManagerImp@@QAEHPAUHDC__@@IAAUtagPOINT@@K@Z:PROC ; CAddInManagerImp::OnRButtonUp
EXTRN	?OnRButtonDblClk@CAddInManagerImp@@QAEHPAUHDC__@@IAAUtagPOINT@@K@Z:PROC ; CAddInManagerImp::OnRButtonDblClk
EXTRN	@__security_check_cookie@4:PROC
EXTRN	___CxxFrameHandler3:PROC
EXTRN	??_7type_info@@6B@:QWORD			; type_info::`vftable'
EXTRN	?g_iMetaTable@@3VIMetaTable@@A:BYTE		; g_iMetaTable
EXTRN	___security_cookie:DWORD
EXTRN	__fltused:DWORD
;	COMDAT ??_R1A@?0A@EA@CAddInManager@@8
rdata$r	SEGMENT
??_R1A@?0A@EA@CAddInManager@@8 DD FLAT:??_R0?AVCAddInManager@@@8 ; CAddInManager::`RTTI Base Class Descriptor at (0,-1,0,64)'
	DD	01H
	DD	00H
	DD	0ffffffffH
	DD	00H
	DD	040H
	DD	FLAT:??_R3CAddInManager@@8
rdata$r	ENDS
;	COMDAT ??_R2CAddInManager@@8
rdata$r	SEGMENT
??_R2CAddInManager@@8 DD FLAT:??_R1A@?0A@EA@CAddInManager@@8 ; CAddInManager::`RTTI Base Class Array'
	DD	FLAT:??_R1A@?0A@EA@CObject@@8
rdata$r	ENDS
;	COMDAT ??_R3CAddInManager@@8
rdata$r	SEGMENT
??_R3CAddInManager@@8 DD 00H				; CAddInManager::`RTTI Class Hierarchy Descriptor'
	DD	00H
	DD	02H
	DD	FLAT:??_R2CAddInManager@@8
rdata$r	ENDS
;	COMDAT ??_R0?AVCAddInManager@@@8
data$rs	SEGMENT
??_R0?AVCAddInManager@@@8 DD FLAT:??_7type_info@@6B@	; CAddInManager `RTTI Type Descriptor'
	DD	00H
	DB	'.?AVCAddInManager@@', 00H
data$rs	ENDS
;	COMDAT ??_R4CAddInManager@@6B@
rdata$r	SEGMENT
??_R4CAddInManager@@6B@ DD 00H				; CAddInManager::`RTTI Complete Object Locator'
	DD	00H
	DD	00H
	DD	FLAT:??_R0?AVCAddInManager@@@8
	DD	FLAT:??_R3CAddInManager@@8
rdata$r	ENDS
;	COMDAT ??_7CAddInManager@@6B@
CONST	SEGMENT
??_7CAddInManager@@6B@ DD FLAT:??_R4CAddInManager@@6B@	; CAddInManager::`vftable'
	DD	FLAT:?GetRuntimeClass@CObject@@UBEPAUCRuntimeClass@@XZ
	DD	FLAT:??_ECAddInManager@@UAEPAXI@Z
	DD	FLAT:?Serialize@CObject@@UAEXAAVCArchive@@@Z
	DD	FLAT:?AssertValid@CObject@@UBEXXZ
	DD	FLAT:?Dump@CObject@@UBEXAAVCDumpContext@@@Z
CONST	ENDS
;	COMDAT ??_R1A@?0A@EA@CObject@@8
rdata$r	SEGMENT
??_R1A@?0A@EA@CObject@@8 DD FLAT:??_R0?AVCObject@@@8	; CObject::`RTTI Base Class Descriptor at (0,-1,0,64)'
	DD	00H
	DD	00H
	DD	0ffffffffH
	DD	00H
	DD	040H
	DD	FLAT:??_R3CObject@@8
rdata$r	ENDS
;	COMDAT ??_R2CObject@@8
rdata$r	SEGMENT
??_R2CObject@@8 DD FLAT:??_R1A@?0A@EA@CObject@@8	; CObject::`RTTI Base Class Array'
rdata$r	ENDS
;	COMDAT ??_R3CObject@@8
rdata$r	SEGMENT
??_R3CObject@@8 DD 00H					; CObject::`RTTI Class Hierarchy Descriptor'
	DD	00H
	DD	01H
	DD	FLAT:??_R2CObject@@8
rdata$r	ENDS
;	COMDAT ??_R0?AVCObject@@@8
data$rs	SEGMENT
??_R0?AVCObject@@@8 DD FLAT:??_7type_info@@6B@		; CObject `RTTI Type Descriptor'
	DD	00H
	DB	'.?AVCObject@@', 00H
data$rs	ENDS
;	COMDAT xdata$x
xdata$x	SEGMENT
__ehfuncinfo$??_ECAddInManager@@UAEPAXI@Z DD 019930522H
	DD	00H
	DD	00H
	DD	2 DUP(00H)
	DD	2 DUP(00H)
	DD	00H
	DD	05H
xdata$x	ENDS
;	COMDAT xdata$x
xdata$x	SEGMENT
__unwindtable$??0CAddInManager@@QAE@PAUIChartCtrl@@PBD@Z DD 0ffffffffH
	DD	FLAT:__unwindfunclet$??0CAddInManager@@QAE@PAUIChartCtrl@@PBD@Z$0
__ehfuncinfo$??0CAddInManager@@QAE@PAUIChartCtrl@@PBD@Z DD 019930522H
	DD	01H
	DD	FLAT:__unwindtable$??0CAddInManager@@QAE@PAUIChartCtrl@@PBD@Z
	DD	2 DUP(00H)
	DD	2 DUP(00H)
	DD	00H
	DD	01H
xdata$x	ENDS
; Function compile flags: /Ogtp
; File D:\git\src\IBK\IBK_DRFN\ProjSrc\SrcChartEx\ChartOCX\AddInManager\AddInManager.cpp
; File C:\Program Files (x86)\Microsoft Visual Studio\2019\Community\VC\Tools\MSVC\14.29.30133\atlmfc\include\afx.inl
; File D:\git\src\IBK\IBK_DRFN\ProjSrc\SrcChartEx\ChartOCX\AddInManager\AddInManager.cpp
;	COMDAT ??_ECAddInManager@@UAEPAXI@Z
_TEXT	SEGMENT
__$EHRec$ = -12						; size = 12
___flags$ = 8						; size = 4
??_ECAddInManager@@UAEPAXI@Z PROC			; CAddInManager::`vector deleting destructor', COMDAT
; _this$ = ecx
  00000	55		 push	 ebp
  00001	8b ec		 mov	 ebp, esp
  00003	6a ff		 push	 -1
  00005	68 00 00 00 00	 push	 __ehhandler$??_ECAddInManager@@UAEPAXI@Z
  0000a	64 a1 00 00 00
	00		 mov	 eax, DWORD PTR fs:0
  00010	50		 push	 eax
  00011	53		 push	 ebx
  00012	56		 push	 esi
  00013	57		 push	 edi
  00014	a1 00 00 00 00	 mov	 eax, DWORD PTR ___security_cookie
  00019	33 c5		 xor	 eax, ebp
  0001b	50		 push	 eax
  0001c	8d 45 f4	 lea	 eax, DWORD PTR __$EHRec$[ebp]
  0001f	64 a3 00 00 00
	00		 mov	 DWORD PTR fs:0, eax
  00025	8b f1		 mov	 esi, ecx
  00027	8b 5d 08	 mov	 ebx, DWORD PTR ___flags$[ebp]
  0002a	f6 c3 02	 test	 bl, 2
  0002d	74 41		 je	 SHORT $LN2@vector
  0002f	68 00 00 00 00	 push	 OFFSET ??1CAddInManager@@UAE@XZ ; CAddInManager::~CAddInManager
  00034	ff 76 fc	 push	 DWORD PTR [esi-4]
  00037	8d 7e fc	 lea	 edi, DWORD PTR [esi-4]
  0003a	6a 08		 push	 8
  0003c	56		 push	 esi
  0003d	e8 00 00 00 00	 call	 ??_M@YGXPAXIIP6EX0@Z@Z
  00042	f6 c3 01	 test	 bl, 1
  00045	74 13		 je	 SHORT $LN3@vector
  00047	8b 0f		 mov	 ecx, DWORD PTR [edi]
  00049	8d 0c cd 04 00
	00 00		 lea	 ecx, DWORD PTR [ecx*8+4]
  00050	51		 push	 ecx
  00051	57		 push	 edi
  00052	e8 00 00 00 00	 call	 ??_V@YAXPAXI@Z		; operator delete[]
  00057	83 c4 08	 add	 esp, 8
$LN3@vector:
  0005a	8b c7		 mov	 eax, edi
  0005c	8b 4d f4	 mov	 ecx, DWORD PTR __$EHRec$[ebp]
  0005f	64 89 0d 00 00
	00 00		 mov	 DWORD PTR fs:0, ecx
  00066	59		 pop	 ecx
  00067	5f		 pop	 edi
  00068	5e		 pop	 esi
  00069	5b		 pop	 ebx
  0006a	8b e5		 mov	 esp, ebp
  0006c	5d		 pop	 ebp
  0006d	c2 04 00	 ret	 4
$LN2@vector:

; 31   : 	if( m_pAddInManagerImpl)

  00070	8b 4e 04	 mov	 ecx, DWORD PTR [esi+4]
  00073	c7 06 00 00 00
	00		 mov	 DWORD PTR [esi], OFFSET ??_7CAddInManager@@6B@
  00079	85 c9		 test	 ecx, ecx
  0007b	74 0e		 je	 SHORT $LN10@vector

; 32   : 	{
; 33   : 		delete m_pAddInManagerImpl;

  0007d	8b 01		 mov	 eax, DWORD PTR [ecx]
  0007f	6a 01		 push	 1
  00081	ff 50 04	 call	 DWORD PTR [eax+4]

; 34   : 		m_pAddInManagerImpl = NULL;

  00084	c7 46 04 00 00
	00 00		 mov	 DWORD PTR [esi+4], 0
$LN10@vector:
  0008b	f6 c3 01	 test	 bl, 1
  0008e	74 1b		 je	 SHORT $LN6@vector
  00090	f6 c3 04	 test	 bl, 4
  00093	75 0b		 jne	 SHORT $LN5@vector
; File C:\Program Files (x86)\Microsoft Visual Studio\2019\Community\VC\Tools\MSVC\14.29.30133\atlmfc\include\afx.inl

; 112  : 	{ ::operator delete(p); }

  00095	56		 push	 esi
  00096	e8 00 00 00 00	 call	 ??3@YAXPAX@Z		; operator delete
  0009b	83 c4 04	 add	 esp, 4
  0009e	eb 0b		 jmp	 SHORT $LN6@vector
$LN5@vector:
; File D:\git\src\IBK\IBK_DRFN\ProjSrc\SrcChartEx\ChartOCX\AddInManager\AddInManager.cpp

  000a0	6a 08		 push	 8
  000a2	56		 push	 esi
  000a3	e8 00 00 00 00	 call	 ??3@YAXPAXI@Z		; operator delete
  000a8	83 c4 08	 add	 esp, 8
$LN6@vector:
  000ab	8b c6		 mov	 eax, esi
  000ad	8b 4d f4	 mov	 ecx, DWORD PTR __$EHRec$[ebp]
  000b0	64 89 0d 00 00
	00 00		 mov	 DWORD PTR fs:0, ecx
  000b7	59		 pop	 ecx
  000b8	5f		 pop	 edi
  000b9	5e		 pop	 esi
  000ba	5b		 pop	 ebx
  000bb	8b e5		 mov	 esp, ebp
  000bd	5d		 pop	 ebp
  000be	c2 04 00	 ret	 4
  000c1	cc		 int	 3
  000c2	cc		 int	 3
  000c3	cc		 int	 3
  000c4	cc		 int	 3
  000c5	cc		 int	 3
_TEXT	ENDS
;	COMDAT text$x
text$x	SEGMENT
__ehhandler$??_ECAddInManager@@UAEPAXI@Z:
  00000	90		 npad	 1
  00001	90		 npad	 1
  00002	8b 54 24 08	 mov	 edx, DWORD PTR [esp+8]
  00006	8d 42 0c	 lea	 eax, DWORD PTR [edx+12]
  00009	8b 4a f0	 mov	 ecx, DWORD PTR [edx-16]
  0000c	33 c8		 xor	 ecx, eax
  0000e	e8 00 00 00 00	 call	 @__security_check_cookie@4
  00013	b8 00 00 00 00	 mov	 eax, OFFSET __ehfuncinfo$??_ECAddInManager@@UAEPAXI@Z
  00018	e9 00 00 00 00	 jmp	 ___CxxFrameHandler3
text$x	ENDS
??_ECAddInManager@@UAEPAXI@Z ENDP			; CAddInManager::`vector deleting destructor'
; Function compile flags: /Ogtp
; File D:\git\src\IBK\IBK_DRFN\ProjSrc\SrcChartEx\ChartOCX\AddInManager\AddInManager.cpp
; File C:\Program Files (x86)\Microsoft Visual Studio\2019\Community\VC\Tools\MSVC\14.29.30133\atlmfc\include\afx.inl
; File D:\git\src\IBK\IBK_DRFN\ProjSrc\SrcChartEx\ChartOCX\AddInManager\AddInManager.cpp
;	COMDAT ??_GCAddInManager@@UAEPAXI@Z
_TEXT	SEGMENT
___flags$ = 8						; size = 4
??_GCAddInManager@@UAEPAXI@Z PROC			; CAddInManager::`scalar deleting destructor', COMDAT
; _this$ = ecx
  00000	55		 push	 ebp
  00001	8b ec		 mov	 ebp, esp

; 30   : {

  00003	56		 push	 esi
  00004	8b f1		 mov	 esi, ecx

; 31   : 	if( m_pAddInManagerImpl)

  00006	8b 4e 04	 mov	 ecx, DWORD PTR [esi+4]
  00009	c7 06 00 00 00
	00		 mov	 DWORD PTR [esi], OFFSET ??_7CAddInManager@@6B@
  0000f	85 c9		 test	 ecx, ecx
  00011	74 0e		 je	 SHORT $LN8@scalar

; 32   : 	{
; 33   : 		delete m_pAddInManagerImpl;

  00013	8b 01		 mov	 eax, DWORD PTR [ecx]
  00015	6a 01		 push	 1
  00017	ff 50 04	 call	 DWORD PTR [eax+4]

; 34   : 		m_pAddInManagerImpl = NULL;

  0001a	c7 46 04 00 00
	00 00		 mov	 DWORD PTR [esi+4], 0
$LN8@scalar:
  00021	8b 45 08	 mov	 eax, DWORD PTR ___flags$[ebp]
  00024	a8 01		 test	 al, 1
  00026	74 1f		 je	 SHORT $LN17@scalar
  00028	a8 04		 test	 al, 4
  0002a	75 10		 jne	 SHORT $LN3@scalar
; File C:\Program Files (x86)\Microsoft Visual Studio\2019\Community\VC\Tools\MSVC\14.29.30133\atlmfc\include\afx.inl

; 112  : 	{ ::operator delete(p); }

  0002c	56		 push	 esi
  0002d	e8 00 00 00 00	 call	 ??3@YAXPAX@Z		; operator delete
  00032	83 c4 04	 add	 esp, 4
  00035	8b c6		 mov	 eax, esi
  00037	5e		 pop	 esi
  00038	5d		 pop	 ebp
  00039	c2 04 00	 ret	 4
$LN3@scalar:
; File D:\git\src\IBK\IBK_DRFN\ProjSrc\SrcChartEx\ChartOCX\AddInManager\AddInManager.cpp

  0003c	6a 08		 push	 8
  0003e	56		 push	 esi
  0003f	e8 00 00 00 00	 call	 ??3@YAXPAXI@Z		; operator delete
  00044	83 c4 08	 add	 esp, 8
$LN17@scalar:
  00047	8b c6		 mov	 eax, esi
  00049	5e		 pop	 esi
  0004a	5d		 pop	 ebp
  0004b	c2 04 00	 ret	 4
??_GCAddInManager@@UAEPAXI@Z ENDP			; CAddInManager::`scalar deleting destructor'
_TEXT	ENDS
; Function compile flags: /Ogtp
; File D:\git\src\IBK\IBK_DRFN\ProjSrc\SrcChartEx\ChartOCX\AddInManager\AddInManager.cpp
; File C:\Program Files (x86)\Microsoft Visual Studio\2019\Community\VC\Tools\MSVC\14.29.30133\atlmfc\include\afxwin1.inl
; File D:\git\src\IBK\IBK_DRFN\ProjSrc\SrcChartEx\ChartOCX\AddInManager\AddInManager.cpp
;	COMDAT ?OnRButtonDblClk@CAddInManager@@QAEHPAVCDC@@IAAVCPoint@@K@Z
_TEXT	SEGMENT
_pDC$ = 8						; size = 4
_nFlags$ = 12						; size = 4
_point$ = 16						; size = 4
_p_dwMouseActionID$ = 20				; size = 4
?OnRButtonDblClk@CAddInManager@@QAEHPAVCDC@@IAAVCPoint@@K@Z PROC ; CAddInManager::OnRButtonDblClk, COMDAT
; _this$ = ecx

; 410  : {

  00000	55		 push	 ebp
  00001	8b ec		 mov	 ebp, esp

; 411  : 	if( m_pAddInManagerImpl) return m_pAddInManagerImpl->OnRButtonDblClk( pDC ? pDC->GetSafeHdc() : NULL, nFlags, point, p_dwMouseActionID);

  00003	8b 49 04	 mov	 ecx, DWORD PTR [ecx+4]
  00006	85 c9		 test	 ecx, ecx
  00008	74 1e		 je	 SHORT $LN2@OnRButtonD
  0000a	8b 45 08	 mov	 eax, DWORD PTR _pDC$[ebp]
  0000d	85 c0		 test	 eax, eax
  0000f	74 0c		 je	 SHORT $LN4@OnRButtonD
; File C:\Program Files (x86)\Microsoft Visual Studio\2019\Community\VC\Tools\MSVC\14.29.30133\atlmfc\include\afxwin1.inl

; 316  : 	{ return this == NULL ? NULL : m_hDC; }

  00011	8b 40 04	 mov	 eax, DWORD PTR [eax+4]
; File D:\git\src\IBK\IBK_DRFN\ProjSrc\SrcChartEx\ChartOCX\AddInManager\AddInManager.cpp

; 411  : 	if( m_pAddInManagerImpl) return m_pAddInManagerImpl->OnRButtonDblClk( pDC ? pDC->GetSafeHdc() : NULL, nFlags, point, p_dwMouseActionID);

  00014	89 45 08	 mov	 DWORD PTR _pDC$[ebp], eax

; 413  : }

  00017	5d		 pop	 ebp

; 411  : 	if( m_pAddInManagerImpl) return m_pAddInManagerImpl->OnRButtonDblClk( pDC ? pDC->GetSafeHdc() : NULL, nFlags, point, p_dwMouseActionID);

  00018	e9 00 00 00 00	 jmp	 ?OnRButtonDblClk@CAddInManagerImp@@QAEHPAUHDC__@@IAAUtagPOINT@@K@Z ; CAddInManagerImp::OnRButtonDblClk
$LN4@OnRButtonD:
  0001d	33 c0		 xor	 eax, eax
  0001f	89 45 08	 mov	 DWORD PTR _pDC$[ebp], eax

; 413  : }

  00022	5d		 pop	 ebp

; 411  : 	if( m_pAddInManagerImpl) return m_pAddInManagerImpl->OnRButtonDblClk( pDC ? pDC->GetSafeHdc() : NULL, nFlags, point, p_dwMouseActionID);

  00023	e9 00 00 00 00	 jmp	 ?OnRButtonDblClk@CAddInManagerImp@@QAEHPAUHDC__@@IAAUtagPOINT@@K@Z ; CAddInManagerImp::OnRButtonDblClk
$LN2@OnRButtonD:

; 412  : 	return FALSE;

  00028	33 c0		 xor	 eax, eax

; 413  : }

  0002a	5d		 pop	 ebp
  0002b	c2 10 00	 ret	 16			; 00000010H
?OnRButtonDblClk@CAddInManager@@QAEHPAVCDC@@IAAVCPoint@@K@Z ENDP ; CAddInManager::OnRButtonDblClk
_TEXT	ENDS
; Function compile flags: /Ogtp
; File D:\git\src\IBK\IBK_DRFN\ProjSrc\SrcChartEx\ChartOCX\AddInManager\AddInManager.cpp
; File C:\Program Files (x86)\Microsoft Visual Studio\2019\Community\VC\Tools\MSVC\14.29.30133\atlmfc\include\afxwin1.inl
; File D:\git\src\IBK\IBK_DRFN\ProjSrc\SrcChartEx\ChartOCX\AddInManager\AddInManager.cpp
;	COMDAT ?OnRButtonUp@CAddInManager@@QAEHPAVCDC@@IAAVCPoint@@K@Z
_TEXT	SEGMENT
_pDC$ = 8						; size = 4
_nFlags$ = 12						; size = 4
_point$ = 16						; size = 4
_p_dwMouseActionID$ = 20				; size = 4
?OnRButtonUp@CAddInManager@@QAEHPAVCDC@@IAAVCPoint@@K@Z PROC ; CAddInManager::OnRButtonUp, COMDAT
; _this$ = ecx

; 405  : {

  00000	55		 push	 ebp
  00001	8b ec		 mov	 ebp, esp

; 406  : 	if( m_pAddInManagerImpl) return m_pAddInManagerImpl->OnRButtonUp( pDC ? pDC->GetSafeHdc() : NULL, nFlags, point, p_dwMouseActionID);

  00003	8b 49 04	 mov	 ecx, DWORD PTR [ecx+4]
  00006	85 c9		 test	 ecx, ecx
  00008	74 1e		 je	 SHORT $LN2@OnRButtonU
  0000a	8b 45 08	 mov	 eax, DWORD PTR _pDC$[ebp]
  0000d	85 c0		 test	 eax, eax
  0000f	74 0c		 je	 SHORT $LN4@OnRButtonU
; File C:\Program Files (x86)\Microsoft Visual Studio\2019\Community\VC\Tools\MSVC\14.29.30133\atlmfc\include\afxwin1.inl

; 316  : 	{ return this == NULL ? NULL : m_hDC; }

  00011	8b 40 04	 mov	 eax, DWORD PTR [eax+4]
; File D:\git\src\IBK\IBK_DRFN\ProjSrc\SrcChartEx\ChartOCX\AddInManager\AddInManager.cpp

; 406  : 	if( m_pAddInManagerImpl) return m_pAddInManagerImpl->OnRButtonUp( pDC ? pDC->GetSafeHdc() : NULL, nFlags, point, p_dwMouseActionID);

  00014	89 45 08	 mov	 DWORD PTR _pDC$[ebp], eax

; 408  : }

  00017	5d		 pop	 ebp

; 406  : 	if( m_pAddInManagerImpl) return m_pAddInManagerImpl->OnRButtonUp( pDC ? pDC->GetSafeHdc() : NULL, nFlags, point, p_dwMouseActionID);

  00018	e9 00 00 00 00	 jmp	 ?OnRButtonUp@CAddInManagerImp@@QAEHPAUHDC__@@IAAUtagPOINT@@K@Z ; CAddInManagerImp::OnRButtonUp
$LN4@OnRButtonU:
  0001d	33 c0		 xor	 eax, eax
  0001f	89 45 08	 mov	 DWORD PTR _pDC$[ebp], eax

; 408  : }

  00022	5d		 pop	 ebp

; 406  : 	if( m_pAddInManagerImpl) return m_pAddInManagerImpl->OnRButtonUp( pDC ? pDC->GetSafeHdc() : NULL, nFlags, point, p_dwMouseActionID);

  00023	e9 00 00 00 00	 jmp	 ?OnRButtonUp@CAddInManagerImp@@QAEHPAUHDC__@@IAAUtagPOINT@@K@Z ; CAddInManagerImp::OnRButtonUp
$LN2@OnRButtonU:

; 407  : 	return FALSE;

  00028	33 c0		 xor	 eax, eax

; 408  : }

  0002a	5d		 pop	 ebp
  0002b	c2 10 00	 ret	 16			; 00000010H
?OnRButtonUp@CAddInManager@@QAEHPAVCDC@@IAAVCPoint@@K@Z ENDP ; CAddInManager::OnRButtonUp
_TEXT	ENDS
; Function compile flags: /Ogtp
; File D:\git\src\IBK\IBK_DRFN\ProjSrc\SrcChartEx\ChartOCX\AddInManager\AddInManager.cpp
; File C:\Program Files (x86)\Microsoft Visual Studio\2019\Community\VC\Tools\MSVC\14.29.30133\atlmfc\include\afxwin1.inl
; File D:\git\src\IBK\IBK_DRFN\ProjSrc\SrcChartEx\ChartOCX\AddInManager\AddInManager.cpp
;	COMDAT ?OnRButtonDown@CAddInManager@@QAEHPAVCDC@@IAAVCPoint@@K@Z
_TEXT	SEGMENT
_pDC$ = 8						; size = 4
_nFlags$ = 12						; size = 4
_point$ = 16						; size = 4
_p_dwMouseActionID$ = 20				; size = 4
?OnRButtonDown@CAddInManager@@QAEHPAVCDC@@IAAVCPoint@@K@Z PROC ; CAddInManager::OnRButtonDown, COMDAT
; _this$ = ecx

; 400  : {

  00000	55		 push	 ebp
  00001	8b ec		 mov	 ebp, esp

; 401  : 	if( m_pAddInManagerImpl) return m_pAddInManagerImpl->OnRButtonDown(	pDC ? pDC->GetSafeHdc() : NULL, nFlags, point, p_dwMouseActionID);

  00003	8b 49 04	 mov	 ecx, DWORD PTR [ecx+4]
  00006	85 c9		 test	 ecx, ecx
  00008	74 1e		 je	 SHORT $LN2@OnRButtonD
  0000a	8b 45 08	 mov	 eax, DWORD PTR _pDC$[ebp]
  0000d	85 c0		 test	 eax, eax
  0000f	74 0c		 je	 SHORT $LN4@OnRButtonD
; File C:\Program Files (x86)\Microsoft Visual Studio\2019\Community\VC\Tools\MSVC\14.29.30133\atlmfc\include\afxwin1.inl

; 316  : 	{ return this == NULL ? NULL : m_hDC; }

  00011	8b 40 04	 mov	 eax, DWORD PTR [eax+4]
; File D:\git\src\IBK\IBK_DRFN\ProjSrc\SrcChartEx\ChartOCX\AddInManager\AddInManager.cpp

; 401  : 	if( m_pAddInManagerImpl) return m_pAddInManagerImpl->OnRButtonDown(	pDC ? pDC->GetSafeHdc() : NULL, nFlags, point, p_dwMouseActionID);

  00014	89 45 08	 mov	 DWORD PTR _pDC$[ebp], eax

; 403  : }

  00017	5d		 pop	 ebp

; 401  : 	if( m_pAddInManagerImpl) return m_pAddInManagerImpl->OnRButtonDown(	pDC ? pDC->GetSafeHdc() : NULL, nFlags, point, p_dwMouseActionID);

  00018	e9 00 00 00 00	 jmp	 ?OnRButtonDown@CAddInManagerImp@@QAEHPAUHDC__@@IAAUtagPOINT@@K@Z ; CAddInManagerImp::OnRButtonDown
$LN4@OnRButtonD:
  0001d	33 c0		 xor	 eax, eax
  0001f	89 45 08	 mov	 DWORD PTR _pDC$[ebp], eax

; 403  : }

  00022	5d		 pop	 ebp

; 401  : 	if( m_pAddInManagerImpl) return m_pAddInManagerImpl->OnRButtonDown(	pDC ? pDC->GetSafeHdc() : NULL, nFlags, point, p_dwMouseActionID);

  00023	e9 00 00 00 00	 jmp	 ?OnRButtonDown@CAddInManagerImp@@QAEHPAUHDC__@@IAAUtagPOINT@@K@Z ; CAddInManagerImp::OnRButtonDown
$LN2@OnRButtonD:

; 402  : 	return FALSE;

  00028	33 c0		 xor	 eax, eax

; 403  : }

  0002a	5d		 pop	 ebp
  0002b	c2 10 00	 ret	 16			; 00000010H
?OnRButtonDown@CAddInManager@@QAEHPAVCDC@@IAAVCPoint@@K@Z ENDP ; CAddInManager::OnRButtonDown
_TEXT	ENDS
; Function compile flags: /Ogtp
; File D:\git\src\IBK\IBK_DRFN\ProjSrc\SrcChartEx\ChartOCX\AddInManager\AddInManager.cpp
; File C:\Program Files (x86)\Microsoft Visual Studio\2019\Community\VC\Tools\MSVC\14.29.30133\atlmfc\include\afxwin1.inl
; File D:\git\src\IBK\IBK_DRFN\ProjSrc\SrcChartEx\ChartOCX\AddInManager\AddInManager.cpp
;	COMDAT ?OnLButtonDblClk@CAddInManager@@QAEHPAVCDC@@IAAVCPoint@@K@Z
_TEXT	SEGMENT
_pDC$ = 8						; size = 4
_nFlags$ = 12						; size = 4
_point$ = 16						; size = 4
_p_dwMouseActionID$ = 20				; size = 4
?OnLButtonDblClk@CAddInManager@@QAEHPAVCDC@@IAAVCPoint@@K@Z PROC ; CAddInManager::OnLButtonDblClk, COMDAT
; _this$ = ecx

; 395  : {

  00000	55		 push	 ebp
  00001	8b ec		 mov	 ebp, esp

; 396  : 	if( m_pAddInManagerImpl) return m_pAddInManagerImpl->OnLButtonDblClk( pDC ? pDC->GetSafeHdc() : NULL, nFlags, point, p_dwMouseActionID);

  00003	8b 49 04	 mov	 ecx, DWORD PTR [ecx+4]
  00006	85 c9		 test	 ecx, ecx
  00008	74 1e		 je	 SHORT $LN2@OnLButtonD
  0000a	8b 45 08	 mov	 eax, DWORD PTR _pDC$[ebp]
  0000d	85 c0		 test	 eax, eax
  0000f	74 0c		 je	 SHORT $LN4@OnLButtonD
; File C:\Program Files (x86)\Microsoft Visual Studio\2019\Community\VC\Tools\MSVC\14.29.30133\atlmfc\include\afxwin1.inl

; 316  : 	{ return this == NULL ? NULL : m_hDC; }

  00011	8b 40 04	 mov	 eax, DWORD PTR [eax+4]
; File D:\git\src\IBK\IBK_DRFN\ProjSrc\SrcChartEx\ChartOCX\AddInManager\AddInManager.cpp

; 396  : 	if( m_pAddInManagerImpl) return m_pAddInManagerImpl->OnLButtonDblClk( pDC ? pDC->GetSafeHdc() : NULL, nFlags, point, p_dwMouseActionID);

  00014	89 45 08	 mov	 DWORD PTR _pDC$[ebp], eax

; 398  : }

  00017	5d		 pop	 ebp

; 396  : 	if( m_pAddInManagerImpl) return m_pAddInManagerImpl->OnLButtonDblClk( pDC ? pDC->GetSafeHdc() : NULL, nFlags, point, p_dwMouseActionID);

  00018	e9 00 00 00 00	 jmp	 ?OnLButtonDblClk@CAddInManagerImp@@QAEHPAUHDC__@@IAAUtagPOINT@@K@Z ; CAddInManagerImp::OnLButtonDblClk
$LN4@OnLButtonD:
  0001d	33 c0		 xor	 eax, eax
  0001f	89 45 08	 mov	 DWORD PTR _pDC$[ebp], eax

; 398  : }

  00022	5d		 pop	 ebp

; 396  : 	if( m_pAddInManagerImpl) return m_pAddInManagerImpl->OnLButtonDblClk( pDC ? pDC->GetSafeHdc() : NULL, nFlags, point, p_dwMouseActionID);

  00023	e9 00 00 00 00	 jmp	 ?OnLButtonDblClk@CAddInManagerImp@@QAEHPAUHDC__@@IAAUtagPOINT@@K@Z ; CAddInManagerImp::OnLButtonDblClk
$LN2@OnLButtonD:

; 397  : 	return FALSE;

  00028	33 c0		 xor	 eax, eax

; 398  : }

  0002a	5d		 pop	 ebp
  0002b	c2 10 00	 ret	 16			; 00000010H
?OnLButtonDblClk@CAddInManager@@QAEHPAVCDC@@IAAVCPoint@@K@Z ENDP ; CAddInManager::OnLButtonDblClk
_TEXT	ENDS
; Function compile flags: /Ogtp
; File D:\git\src\IBK\IBK_DRFN\ProjSrc\SrcChartEx\ChartOCX\AddInManager\AddInManager.cpp
; File C:\Program Files (x86)\Microsoft Visual Studio\2019\Community\VC\Tools\MSVC\14.29.30133\atlmfc\include\afxwin1.inl
; File D:\git\src\IBK\IBK_DRFN\ProjSrc\SrcChartEx\ChartOCX\AddInManager\AddInManager.cpp
;	COMDAT ?OnLButtonUp@CAddInManager@@QAEHPAVCDC@@IAAVCPoint@@K@Z
_TEXT	SEGMENT
_pDC$ = 8						; size = 4
_nFlags$ = 12						; size = 4
_point$ = 16						; size = 4
_p_dwMouseActionID$ = 20				; size = 4
?OnLButtonUp@CAddInManager@@QAEHPAVCDC@@IAAVCPoint@@K@Z PROC ; CAddInManager::OnLButtonUp, COMDAT
; _this$ = ecx

; 390  : {

  00000	55		 push	 ebp
  00001	8b ec		 mov	 ebp, esp

; 391  : 	if( m_pAddInManagerImpl) return m_pAddInManagerImpl->OnLButtonUp( pDC ? pDC->GetSafeHdc() : NULL, nFlags, point, p_dwMouseActionID);

  00003	8b 49 04	 mov	 ecx, DWORD PTR [ecx+4]
  00006	85 c9		 test	 ecx, ecx
  00008	74 1e		 je	 SHORT $LN2@OnLButtonU
  0000a	8b 45 08	 mov	 eax, DWORD PTR _pDC$[ebp]
  0000d	85 c0		 test	 eax, eax
  0000f	74 0c		 je	 SHORT $LN4@OnLButtonU
; File C:\Program Files (x86)\Microsoft Visual Studio\2019\Community\VC\Tools\MSVC\14.29.30133\atlmfc\include\afxwin1.inl

; 316  : 	{ return this == NULL ? NULL : m_hDC; }

  00011	8b 40 04	 mov	 eax, DWORD PTR [eax+4]
; File D:\git\src\IBK\IBK_DRFN\ProjSrc\SrcChartEx\ChartOCX\AddInManager\AddInManager.cpp

; 391  : 	if( m_pAddInManagerImpl) return m_pAddInManagerImpl->OnLButtonUp( pDC ? pDC->GetSafeHdc() : NULL, nFlags, point, p_dwMouseActionID);

  00014	89 45 08	 mov	 DWORD PTR _pDC$[ebp], eax

; 393  : }

  00017	5d		 pop	 ebp

; 391  : 	if( m_pAddInManagerImpl) return m_pAddInManagerImpl->OnLButtonUp( pDC ? pDC->GetSafeHdc() : NULL, nFlags, point, p_dwMouseActionID);

  00018	e9 00 00 00 00	 jmp	 ?OnLButtonUp@CAddInManagerImp@@QAEHPAUHDC__@@IAAUtagPOINT@@K@Z ; CAddInManagerImp::OnLButtonUp
$LN4@OnLButtonU:
  0001d	33 c0		 xor	 eax, eax
  0001f	89 45 08	 mov	 DWORD PTR _pDC$[ebp], eax

; 393  : }

  00022	5d		 pop	 ebp

; 391  : 	if( m_pAddInManagerImpl) return m_pAddInManagerImpl->OnLButtonUp( pDC ? pDC->GetSafeHdc() : NULL, nFlags, point, p_dwMouseActionID);

  00023	e9 00 00 00 00	 jmp	 ?OnLButtonUp@CAddInManagerImp@@QAEHPAUHDC__@@IAAUtagPOINT@@K@Z ; CAddInManagerImp::OnLButtonUp
$LN2@OnLButtonU:

; 392  : 	return FALSE;

  00028	33 c0		 xor	 eax, eax

; 393  : }

  0002a	5d		 pop	 ebp
  0002b	c2 10 00	 ret	 16			; 00000010H
?OnLButtonUp@CAddInManager@@QAEHPAVCDC@@IAAVCPoint@@K@Z ENDP ; CAddInManager::OnLButtonUp
_TEXT	ENDS
; Function compile flags: /Ogtp
; File D:\git\src\IBK\IBK_DRFN\ProjSrc\SrcChartEx\ChartOCX\AddInManager\AddInManager.cpp
; File C:\Program Files (x86)\Microsoft Visual Studio\2019\Community\VC\Tools\MSVC\14.29.30133\atlmfc\include\afxwin1.inl
; File D:\git\src\IBK\IBK_DRFN\ProjSrc\SrcChartEx\ChartOCX\AddInManager\AddInManager.cpp
;	COMDAT ?OnLButtonDown@CAddInManager@@QAEHPAVCDC@@IAAVCPoint@@K@Z
_TEXT	SEGMENT
_pDC$ = 8						; size = 4
_nFlags$ = 12						; size = 4
_point$ = 16						; size = 4
_p_dwMouseActionID$ = 20				; size = 4
?OnLButtonDown@CAddInManager@@QAEHPAVCDC@@IAAVCPoint@@K@Z PROC ; CAddInManager::OnLButtonDown, COMDAT
; _this$ = ecx

; 385  : {

  00000	55		 push	 ebp
  00001	8b ec		 mov	 ebp, esp

; 386  : 	if( m_pAddInManagerImpl) return m_pAddInManagerImpl->OnLButtonDown( pDC ? pDC->GetSafeHdc() : NULL, nFlags, point, p_dwMouseActionID);

  00003	8b 49 04	 mov	 ecx, DWORD PTR [ecx+4]
  00006	85 c9		 test	 ecx, ecx
  00008	74 1e		 je	 SHORT $LN2@OnLButtonD
  0000a	8b 45 08	 mov	 eax, DWORD PTR _pDC$[ebp]
  0000d	85 c0		 test	 eax, eax
  0000f	74 0c		 je	 SHORT $LN4@OnLButtonD
; File C:\Program Files (x86)\Microsoft Visual Studio\2019\Community\VC\Tools\MSVC\14.29.30133\atlmfc\include\afxwin1.inl

; 316  : 	{ return this == NULL ? NULL : m_hDC; }

  00011	8b 40 04	 mov	 eax, DWORD PTR [eax+4]
; File D:\git\src\IBK\IBK_DRFN\ProjSrc\SrcChartEx\ChartOCX\AddInManager\AddInManager.cpp

; 386  : 	if( m_pAddInManagerImpl) return m_pAddInManagerImpl->OnLButtonDown( pDC ? pDC->GetSafeHdc() : NULL, nFlags, point, p_dwMouseActionID);

  00014	89 45 08	 mov	 DWORD PTR _pDC$[ebp], eax

; 388  : }

  00017	5d		 pop	 ebp

; 386  : 	if( m_pAddInManagerImpl) return m_pAddInManagerImpl->OnLButtonDown( pDC ? pDC->GetSafeHdc() : NULL, nFlags, point, p_dwMouseActionID);

  00018	e9 00 00 00 00	 jmp	 ?OnLButtonDown@CAddInManagerImp@@QAEHPAUHDC__@@IAAUtagPOINT@@K@Z ; CAddInManagerImp::OnLButtonDown
$LN4@OnLButtonD:
  0001d	33 c0		 xor	 eax, eax
  0001f	89 45 08	 mov	 DWORD PTR _pDC$[ebp], eax

; 388  : }

  00022	5d		 pop	 ebp

; 386  : 	if( m_pAddInManagerImpl) return m_pAddInManagerImpl->OnLButtonDown( pDC ? pDC->GetSafeHdc() : NULL, nFlags, point, p_dwMouseActionID);

  00023	e9 00 00 00 00	 jmp	 ?OnLButtonDown@CAddInManagerImp@@QAEHPAUHDC__@@IAAUtagPOINT@@K@Z ; CAddInManagerImp::OnLButtonDown
$LN2@OnLButtonD:

; 387  : 	return FALSE;

  00028	33 c0		 xor	 eax, eax

; 388  : }

  0002a	5d		 pop	 ebp
  0002b	c2 10 00	 ret	 16			; 00000010H
?OnLButtonDown@CAddInManager@@QAEHPAVCDC@@IAAVCPoint@@K@Z ENDP ; CAddInManager::OnLButtonDown
_TEXT	ENDS
; Function compile flags: /Ogtp
; File D:\git\src\IBK\IBK_DRFN\ProjSrc\SrcChartEx\ChartOCX\AddInManager\AddInManager.cpp
; File C:\Program Files (x86)\Microsoft Visual Studio\2019\Community\VC\Tools\MSVC\14.29.30133\atlmfc\include\afxwin1.inl
; File D:\git\src\IBK\IBK_DRFN\ProjSrc\SrcChartEx\ChartOCX\AddInManager\AddInManager.cpp
; File C:\Program Files (x86)\Microsoft Visual Studio\2019\Community\VC\Tools\MSVC\14.29.30133\atlmfc\include\afxwin1.inl
; File D:\git\src\IBK\IBK_DRFN\ProjSrc\SrcChartEx\ChartOCX\AddInManager\AddInManager.cpp
;	COMDAT ?OnMouseMove@CAddInManager@@QAEHPAVCDC@@IAAVCPoint@@KPBVCBitmap@@@Z
_TEXT	SEGMENT
_pDC$ = 8						; size = 4
_nFlags$ = 12						; size = 4
_point$ = 16						; size = 4
_p_dwMouseActionID$ = 20				; size = 4
_p_bmpMainOSB$ = 24					; size = 4
?OnMouseMove@CAddInManager@@QAEHPAVCDC@@IAAVCPoint@@KPBVCBitmap@@@Z PROC ; CAddInManager::OnMouseMove, COMDAT
; _this$ = ecx

; 380  : {

  00000	55		 push	 ebp
  00001	8b ec		 mov	 ebp, esp

; 381  : 	if( m_pAddInManagerImpl) return m_pAddInManagerImpl->OnMouseMove( pDC ? pDC->GetSafeHdc() : NULL, nFlags, point, p_dwMouseActionID, ( HBITMAP)( p_bmpMainOSB ? p_bmpMainOSB->GetSafeHandle() : NULL));

  00003	8b 51 04	 mov	 edx, DWORD PTR [ecx+4]
  00006	85 d2		 test	 edx, edx
  00008	74 36		 je	 SHORT $LN2@OnMouseMov
  0000a	8b 45 18	 mov	 eax, DWORD PTR _p_bmpMainOSB$[ebp]
  0000d	85 c0		 test	 eax, eax
  0000f	74 05		 je	 SHORT $LN4@OnMouseMov
; File C:\Program Files (x86)\Microsoft Visual Studio\2019\Community\VC\Tools\MSVC\14.29.30133\atlmfc\include\afxwin1.inl

; 68   : 	{ return this == NULL ? NULL : m_hObject; }

  00011	8b 48 04	 mov	 ecx, DWORD PTR [eax+4]
; File D:\git\src\IBK\IBK_DRFN\ProjSrc\SrcChartEx\ChartOCX\AddInManager\AddInManager.cpp

; 381  : 	if( m_pAddInManagerImpl) return m_pAddInManagerImpl->OnMouseMove( pDC ? pDC->GetSafeHdc() : NULL, nFlags, point, p_dwMouseActionID, ( HBITMAP)( p_bmpMainOSB ? p_bmpMainOSB->GetSafeHandle() : NULL));

  00014	eb 02		 jmp	 SHORT $LN5@OnMouseMov
$LN4@OnMouseMov:
  00016	33 c9		 xor	 ecx, ecx
$LN5@OnMouseMov:
  00018	8b 45 08	 mov	 eax, DWORD PTR _pDC$[ebp]
  0001b	85 c0		 test	 eax, eax
  0001d	74 11		 je	 SHORT $LN6@OnMouseMov
; File C:\Program Files (x86)\Microsoft Visual Studio\2019\Community\VC\Tools\MSVC\14.29.30133\atlmfc\include\afxwin1.inl

; 316  : 	{ return this == NULL ? NULL : m_hDC; }

  0001f	8b 40 04	 mov	 eax, DWORD PTR [eax+4]
; File D:\git\src\IBK\IBK_DRFN\ProjSrc\SrcChartEx\ChartOCX\AddInManager\AddInManager.cpp

; 381  : 	if( m_pAddInManagerImpl) return m_pAddInManagerImpl->OnMouseMove( pDC ? pDC->GetSafeHdc() : NULL, nFlags, point, p_dwMouseActionID, ( HBITMAP)( p_bmpMainOSB ? p_bmpMainOSB->GetSafeHandle() : NULL));

  00022	89 4d 18	 mov	 DWORD PTR _p_bmpMainOSB$[ebp], ecx
  00025	89 45 08	 mov	 DWORD PTR _pDC$[ebp], eax
  00028	8b ca		 mov	 ecx, edx

; 383  : }

  0002a	5d		 pop	 ebp

; 381  : 	if( m_pAddInManagerImpl) return m_pAddInManagerImpl->OnMouseMove( pDC ? pDC->GetSafeHdc() : NULL, nFlags, point, p_dwMouseActionID, ( HBITMAP)( p_bmpMainOSB ? p_bmpMainOSB->GetSafeHandle() : NULL));

  0002b	e9 00 00 00 00	 jmp	 ?OnMouseMove@CAddInManagerImp@@QAEHPAUHDC__@@IAAUtagPOINT@@KQAUHBITMAP__@@@Z ; CAddInManagerImp::OnMouseMove
$LN6@OnMouseMov:
  00030	33 c0		 xor	 eax, eax
  00032	89 4d 18	 mov	 DWORD PTR _p_bmpMainOSB$[ebp], ecx
  00035	89 45 08	 mov	 DWORD PTR _pDC$[ebp], eax
  00038	8b ca		 mov	 ecx, edx

; 383  : }

  0003a	5d		 pop	 ebp

; 381  : 	if( m_pAddInManagerImpl) return m_pAddInManagerImpl->OnMouseMove( pDC ? pDC->GetSafeHdc() : NULL, nFlags, point, p_dwMouseActionID, ( HBITMAP)( p_bmpMainOSB ? p_bmpMainOSB->GetSafeHandle() : NULL));

  0003b	e9 00 00 00 00	 jmp	 ?OnMouseMove@CAddInManagerImp@@QAEHPAUHDC__@@IAAUtagPOINT@@KQAUHBITMAP__@@@Z ; CAddInManagerImp::OnMouseMove
$LN2@OnMouseMov:

; 382  : 	return FALSE;

  00040	33 c0		 xor	 eax, eax

; 383  : }

  00042	5d		 pop	 ebp
  00043	c2 14 00	 ret	 20			; 00000014H
?OnMouseMove@CAddInManager@@QAEHPAVCDC@@IAAVCPoint@@KPBVCBitmap@@@Z ENDP ; CAddInManager::OnMouseMove
_TEXT	ENDS
; Function compile flags: /Ogtp
; File D:\git\src\IBK\IBK_DRFN\ProjSrc\SrcChartEx\ChartOCX\AddInManager\AddInManager.cpp
;	COMDAT ?OnMouseWheel@CAddInManager@@QAEHIFVCPoint@@K@Z
_TEXT	SEGMENT
_nFlags$ = 8						; size = 4
_zDelta$ = 12						; size = 2
_pt$ = 16						; size = 8
_p_dwMouseActionID$ = 24				; size = 4
?OnMouseWheel@CAddInManager@@QAEHIFVCPoint@@K@Z PROC	; CAddInManager::OnMouseWheel, COMDAT
; _this$ = ecx

; 375  : {

  00000	55		 push	 ebp
  00001	8b ec		 mov	 ebp, esp

; 376  : 	if( m_pAddInManagerImpl) return m_pAddInManagerImpl->OnMouseWheel( nFlags, zDelta, pt, p_dwMouseActionID);

  00003	8b 49 04	 mov	 ecx, DWORD PTR [ecx+4]
  00006	85 c9		 test	 ecx, ecx
  00008	74 18		 je	 SHORT $LN2@OnMouseWhe
  0000a	ff 75 18	 push	 DWORD PTR _p_dwMouseActionID$[ebp]
  0000d	ff 75 14	 push	 DWORD PTR _pt$[ebp+4]
  00010	ff 75 10	 push	 DWORD PTR _pt$[ebp]
  00013	ff 75 0c	 push	 DWORD PTR _zDelta$[ebp]
  00016	ff 75 08	 push	 DWORD PTR _nFlags$[ebp]
  00019	e8 00 00 00 00	 call	 ?OnMouseWheel@CAddInManagerImp@@QAEHIFUtagPOINT@@K@Z ; CAddInManagerImp::OnMouseWheel

; 378  : }

  0001e	5d		 pop	 ebp
  0001f	c2 14 00	 ret	 20			; 00000014H
$LN2@OnMouseWhe:

; 377  : 	return FALSE;

  00022	33 c0		 xor	 eax, eax

; 378  : }

  00024	5d		 pop	 ebp
  00025	c2 14 00	 ret	 20			; 00000014H
?OnMouseWheel@CAddInManager@@QAEHIFVCPoint@@K@Z ENDP	; CAddInManager::OnMouseWheel
_TEXT	ENDS
; Function compile flags: /Ogtp
; File D:\git\src\IBK\IBK_DRFN\ProjSrc\SrcChartEx\ChartOCX\AddInManager\AddInManager.cpp
;	COMDAT ?OnKeyUp@CAddInManager@@QAEHIII@Z
_TEXT	SEGMENT
_nChar$ = 8						; size = 4
_nRepCnt$ = 12						; size = 4
_nFlags$ = 16						; size = 4
?OnKeyUp@CAddInManager@@QAEHIII@Z PROC			; CAddInManager::OnKeyUp, COMDAT
; _this$ = ecx

; 370  : {

  00000	55		 push	 ebp
  00001	8b ec		 mov	 ebp, esp

; 371  : 	if( m_pAddInManagerImpl) return m_pAddInManagerImpl->OnKeyUp( nChar, nRepCnt, nFlags);

  00003	8b 49 04	 mov	 ecx, DWORD PTR [ecx+4]
  00006	85 c9		 test	 ecx, ecx
  00008	74 06		 je	 SHORT $LN2@OnKeyUp

; 373  : }

  0000a	5d		 pop	 ebp

; 371  : 	if( m_pAddInManagerImpl) return m_pAddInManagerImpl->OnKeyUp( nChar, nRepCnt, nFlags);

  0000b	e9 00 00 00 00	 jmp	 ?OnKeyUp@CAddInManagerImp@@QAEHIII@Z ; CAddInManagerImp::OnKeyUp
$LN2@OnKeyUp:

; 372  : 	return FALSE;

  00010	33 c0		 xor	 eax, eax

; 373  : }

  00012	5d		 pop	 ebp
  00013	c2 0c 00	 ret	 12			; 0000000cH
?OnKeyUp@CAddInManager@@QAEHIII@Z ENDP			; CAddInManager::OnKeyUp
_TEXT	ENDS
; Function compile flags: /Ogtp
; File D:\git\src\IBK\IBK_DRFN\ProjSrc\SrcChartEx\ChartOCX\AddInManager\AddInManager.cpp
;	COMDAT ?OnKeyDown@CAddInManager@@QAEHIII@Z
_TEXT	SEGMENT
_nChar$ = 8						; size = 4
_nRepCnt$ = 12						; size = 4
_nFlags$ = 16						; size = 4
?OnKeyDown@CAddInManager@@QAEHIII@Z PROC		; CAddInManager::OnKeyDown, COMDAT
; _this$ = ecx

; 365  : {

  00000	55		 push	 ebp
  00001	8b ec		 mov	 ebp, esp

; 366  : 	if( m_pAddInManagerImpl) return m_pAddInManagerImpl->OnKeyDown( nChar, nRepCnt, nFlags);

  00003	8b 49 04	 mov	 ecx, DWORD PTR [ecx+4]
  00006	85 c9		 test	 ecx, ecx
  00008	74 06		 je	 SHORT $LN2@OnKeyDown

; 368  : }

  0000a	5d		 pop	 ebp

; 366  : 	if( m_pAddInManagerImpl) return m_pAddInManagerImpl->OnKeyDown( nChar, nRepCnt, nFlags);

  0000b	e9 00 00 00 00	 jmp	 ?OnKeyDown@CAddInManagerImp@@QAEHIII@Z ; CAddInManagerImp::OnKeyDown
$LN2@OnKeyDown:

; 367  : 	return FALSE;

  00010	33 c0		 xor	 eax, eax

; 368  : }

  00012	5d		 pop	 ebp
  00013	c2 0c 00	 ret	 12			; 0000000cH
?OnKeyDown@CAddInManager@@QAEHIII@Z ENDP		; CAddInManager::OnKeyDown
_TEXT	ENDS
; Function compile flags: /Ogtp
; File D:\git\src\IBK\IBK_DRFN\ProjSrc\SrcChartEx\ChartOCX\AddInManager\AddInManager.cpp
;	COMDAT ?OnAddInToolCommand@CAddInManager@@QAEHAAJW4EAICommandType@@JJ@Z
_TEXT	SEGMENT
_p_lResult$ = 8						; size = 4
_p_eCommandID$ = 12					; size = 4
_p_lParam1$ = 16					; size = 4
_p_lParam2$ = 20					; size = 4
?OnAddInToolCommand@CAddInManager@@QAEHAAJW4EAICommandType@@JJ@Z PROC ; CAddInManager::OnAddInToolCommand, COMDAT
; _this$ = ecx

; 360  : {

  00000	55		 push	 ebp
  00001	8b ec		 mov	 ebp, esp

; 361  : 	if( m_pAddInManagerImpl) return m_pAddInManagerImpl->OnAddInToolCommand( p_lResult, p_eCommandID, p_lParam1, p_lParam2);

  00003	8b 49 04	 mov	 ecx, DWORD PTR [ecx+4]
  00006	85 c9		 test	 ecx, ecx
  00008	74 06		 je	 SHORT $LN2@OnAddInToo

; 363  : }

  0000a	5d		 pop	 ebp

; 361  : 	if( m_pAddInManagerImpl) return m_pAddInManagerImpl->OnAddInToolCommand( p_lResult, p_eCommandID, p_lParam1, p_lParam2);

  0000b	e9 00 00 00 00	 jmp	 ?OnAddInToolCommand@CAddInManagerImp@@QAEHAAJW4EAICommandType@@JJ@Z ; CAddInManagerImp::OnAddInToolCommand
$LN2@OnAddInToo:

; 362  : 	return FALSE;

  00010	33 c0		 xor	 eax, eax

; 363  : }

  00012	5d		 pop	 ebp
  00013	c2 10 00	 ret	 16			; 00000010H
?OnAddInToolCommand@CAddInManager@@QAEHAAJW4EAICommandType@@JJ@Z ENDP ; CAddInManager::OnAddInToolCommand
_TEXT	ENDS
; Function compile flags: /Ogtp
; File D:\git\src\IBK\IBK_DRFN\ProjSrc\SrcChartEx\ChartOCX\AddInManager\AddInManager.cpp
;	COMDAT ?OnAddInToolCommand@CAddInManager@@QAEHAAJW4EAICommandType@@J@Z
_TEXT	SEGMENT
_p_lResult$ = 8						; size = 4
_p_eCommandID$ = 12					; size = 4
_p_lParam$ = 16						; size = 4
?OnAddInToolCommand@CAddInManager@@QAEHAAJW4EAICommandType@@J@Z PROC ; CAddInManager::OnAddInToolCommand, COMDAT
; _this$ = ecx

; 355  : {

  00000	55		 push	 ebp
  00001	8b ec		 mov	 ebp, esp

; 356  : 	if( m_pAddInManagerImpl) return m_pAddInManagerImpl->OnAddInToolCommand( p_lResult, p_eCommandID, p_lParam);

  00003	8b 49 04	 mov	 ecx, DWORD PTR [ecx+4]
  00006	85 c9		 test	 ecx, ecx
  00008	74 06		 je	 SHORT $LN2@OnAddInToo

; 358  : }

  0000a	5d		 pop	 ebp

; 356  : 	if( m_pAddInManagerImpl) return m_pAddInManagerImpl->OnAddInToolCommand( p_lResult, p_eCommandID, p_lParam);

  0000b	e9 00 00 00 00	 jmp	 ?OnAddInToolCommand@CAddInManagerImp@@QAEHAAJW4EAICommandType@@J@Z ; CAddInManagerImp::OnAddInToolCommand
$LN2@OnAddInToo:

; 357  : 	return FALSE;

  00010	33 c0		 xor	 eax, eax

; 358  : }

  00012	5d		 pop	 ebp
  00013	c2 0c 00	 ret	 12			; 0000000cH
?OnAddInToolCommand@CAddInManager@@QAEHAAJW4EAICommandType@@J@Z ENDP ; CAddInManager::OnAddInToolCommand
_TEXT	ENDS
; Function compile flags: /Ogtp
; File D:\git\src\IBK\IBK_DRFN\ProjSrc\SrcChartEx\ChartOCX\AddInManager\AddInManager.cpp
;	COMDAT ?OnAddInToolCommand@CAddInManager@@QAEHAAJW4EAICommandType@@PBD22PAVCObject@@@Z
_TEXT	SEGMENT
_p_lResult$ = 8						; size = 4
_p_eCommandID$ = 12					; size = 4
_p_szParam1$ = 16					; size = 4
_p_szParam2$ = 20					; size = 4
_p_szParam3$ = 24					; size = 4
_p_pParam$ = 28						; size = 4
?OnAddInToolCommand@CAddInManager@@QAEHAAJW4EAICommandType@@PBD22PAVCObject@@@Z PROC ; CAddInManager::OnAddInToolCommand, COMDAT
; _this$ = ecx

; 349  : {

  00000	55		 push	 ebp
  00001	8b ec		 mov	 ebp, esp

; 350  : 	if( m_pAddInManagerImpl) return m_pAddInManagerImpl->OnAddInToolCommand( p_lResult, p_eCommandID, p_szParam1, p_szParam2, p_szParam3, p_pParam);

  00003	8b 49 04	 mov	 ecx, DWORD PTR [ecx+4]
  00006	85 c9		 test	 ecx, ecx
  00008	74 06		 je	 SHORT $LN2@OnAddInToo

; 352  : }

  0000a	5d		 pop	 ebp

; 350  : 	if( m_pAddInManagerImpl) return m_pAddInManagerImpl->OnAddInToolCommand( p_lResult, p_eCommandID, p_szParam1, p_szParam2, p_szParam3, p_pParam);

  0000b	e9 00 00 00 00	 jmp	 ?OnAddInToolCommand@CAddInManagerImp@@QAEHAAJW4EAICommandType@@PBD22PAVCObject@@@Z ; CAddInManagerImp::OnAddInToolCommand
$LN2@OnAddInToo:

; 351  : 	return FALSE;

  00010	33 c0		 xor	 eax, eax

; 352  : }

  00012	5d		 pop	 ebp
  00013	c2 18 00	 ret	 24			; 00000018H
?OnAddInToolCommand@CAddInManager@@QAEHAAJW4EAICommandType@@PBD22PAVCObject@@@Z ENDP ; CAddInManager::OnAddInToolCommand
_TEXT	ENDS
; Function compile flags: /Ogtp
; File D:\git\src\IBK\IBK_DRFN\ProjSrc\SrcChartEx\ChartOCX\AddInManager\AddInManager.cpp
;	COMDAT ?OnAddInToolCommand@CAddInManager@@QAEHAAJW4EAICommandType@@PBD2PAVCObject@@@Z
_TEXT	SEGMENT
_p_lResult$ = 8						; size = 4
_p_eCommandID$ = 12					; size = 4
_p_szParam1$ = 16					; size = 4
_p_szParam2$ = 20					; size = 4
_p_pParam$ = 24						; size = 4
?OnAddInToolCommand@CAddInManager@@QAEHAAJW4EAICommandType@@PBD2PAVCObject@@@Z PROC ; CAddInManager::OnAddInToolCommand, COMDAT
; _this$ = ecx

; 342  : {

  00000	55		 push	 ebp
  00001	8b ec		 mov	 ebp, esp

; 343  : 	if( m_pAddInManagerImpl) return m_pAddInManagerImpl->OnAddInToolCommand( p_lResult, p_eCommandID, p_szParam1, p_szParam2, p_pParam);

  00003	8b 49 04	 mov	 ecx, DWORD PTR [ecx+4]
  00006	85 c9		 test	 ecx, ecx
  00008	74 06		 je	 SHORT $LN2@OnAddInToo

; 345  : }

  0000a	5d		 pop	 ebp

; 343  : 	if( m_pAddInManagerImpl) return m_pAddInManagerImpl->OnAddInToolCommand( p_lResult, p_eCommandID, p_szParam1, p_szParam2, p_pParam);

  0000b	e9 00 00 00 00	 jmp	 ?OnAddInToolCommand@CAddInManagerImp@@QAEHAAJW4EAICommandType@@PBD2PAVCObject@@@Z ; CAddInManagerImp::OnAddInToolCommand
$LN2@OnAddInToo:

; 344  : 	return FALSE;

  00010	33 c0		 xor	 eax, eax

; 345  : }

  00012	5d		 pop	 ebp
  00013	c2 14 00	 ret	 20			; 00000014H
?OnAddInToolCommand@CAddInManager@@QAEHAAJW4EAICommandType@@PBD2PAVCObject@@@Z ENDP ; CAddInManager::OnAddInToolCommand
_TEXT	ENDS
; Function compile flags: /Ogtp
; File D:\git\src\IBK\IBK_DRFN\ProjSrc\SrcChartEx\ChartOCX\AddInManager\AddInManager.cpp
;	COMDAT ?OnAddInToolCommand@CAddInManager@@QAEHAAJW4EAICommandType@@PBD@Z
_TEXT	SEGMENT
_p_lResult$ = 8						; size = 4
_p_eCommandID$ = 12					; size = 4
_p_szParam$ = 16					; size = 4
?OnAddInToolCommand@CAddInManager@@QAEHAAJW4EAICommandType@@PBD@Z PROC ; CAddInManager::OnAddInToolCommand, COMDAT
; _this$ = ecx

; 337  : {

  00000	55		 push	 ebp
  00001	8b ec		 mov	 ebp, esp

; 338  : 	if( m_pAddInManagerImpl) return m_pAddInManagerImpl->OnAddInToolCommand( p_lResult, p_eCommandID, p_szParam);

  00003	8b 49 04	 mov	 ecx, DWORD PTR [ecx+4]
  00006	85 c9		 test	 ecx, ecx
  00008	74 06		 je	 SHORT $LN2@OnAddInToo

; 340  : }

  0000a	5d		 pop	 ebp

; 338  : 	if( m_pAddInManagerImpl) return m_pAddInManagerImpl->OnAddInToolCommand( p_lResult, p_eCommandID, p_szParam);

  0000b	e9 00 00 00 00	 jmp	 ?OnAddInToolCommand@CAddInManagerImp@@QAEHAAJW4EAICommandType@@PBD@Z ; CAddInManagerImp::OnAddInToolCommand
$LN2@OnAddInToo:

; 339  : 	return FALSE;

  00010	33 c0		 xor	 eax, eax

; 340  : }

  00012	5d		 pop	 ebp
  00013	c2 0c 00	 ret	 12			; 0000000cH
?OnAddInToolCommand@CAddInManager@@QAEHAAJW4EAICommandType@@PBD@Z ENDP ; CAddInManager::OnAddInToolCommand
_TEXT	ENDS
; Function compile flags: /Ogtp
; File D:\git\src\IBK\IBK_DRFN\ProjSrc\SrcChartEx\ChartOCX\AddInManager\AddInManager.cpp
;	COMDAT ?OnAddInToolCommand@CAddInManager@@QAEHAAJW4EAICommandType@@PAVCIndicatorInfo@@@Z
_TEXT	SEGMENT
_p_lResult$ = 8						; size = 4
_p_eCommandID$ = 12					; size = 4
_p_pParam$ = 16						; size = 4
?OnAddInToolCommand@CAddInManager@@QAEHAAJW4EAICommandType@@PAVCIndicatorInfo@@@Z PROC ; CAddInManager::OnAddInToolCommand, COMDAT
; _this$ = ecx

; 332  : {

  00000	55		 push	 ebp
  00001	8b ec		 mov	 ebp, esp

; 333  : 	if( m_pAddInManagerImpl) return m_pAddInManagerImpl->OnAddInToolCommand( p_lResult, p_eCommandID, p_pParam);

  00003	8b 49 04	 mov	 ecx, DWORD PTR [ecx+4]
  00006	85 c9		 test	 ecx, ecx
  00008	74 06		 je	 SHORT $LN2@OnAddInToo

; 335  : }

  0000a	5d		 pop	 ebp

; 333  : 	if( m_pAddInManagerImpl) return m_pAddInManagerImpl->OnAddInToolCommand( p_lResult, p_eCommandID, p_pParam);

  0000b	e9 00 00 00 00	 jmp	 ?OnAddInToolCommand@CAddInManagerImp@@QAEHAAJW4EAICommandType@@PAVCIndicatorInfo@@@Z ; CAddInManagerImp::OnAddInToolCommand
$LN2@OnAddInToo:

; 334  : 	return FALSE;

  00010	33 c0		 xor	 eax, eax

; 335  : }

  00012	5d		 pop	 ebp
  00013	c2 0c 00	 ret	 12			; 0000000cH
?OnAddInToolCommand@CAddInManager@@QAEHAAJW4EAICommandType@@PAVCIndicatorInfo@@@Z ENDP ; CAddInManager::OnAddInToolCommand
_TEXT	ENDS
; Function compile flags: /Ogtp
; File D:\git\src\IBK\IBK_DRFN\ProjSrc\SrcChartEx\ChartOCX\AddInManager\AddInManager.cpp
;	COMDAT ?OnAddInToolCommand@CAddInManager@@QAEHAAJW4EAICommandType@@@Z
_TEXT	SEGMENT
_p_lResult$ = 8						; size = 4
_p_eCommandID$ = 12					; size = 4
?OnAddInToolCommand@CAddInManager@@QAEHAAJW4EAICommandType@@@Z PROC ; CAddInManager::OnAddInToolCommand, COMDAT
; _this$ = ecx

; 327  : {

  00000	55		 push	 ebp
  00001	8b ec		 mov	 ebp, esp

; 328  : 	if( m_pAddInManagerImpl) return m_pAddInManagerImpl->OnAddInToolCommand( p_lResult, p_eCommandID);

  00003	8b 49 04	 mov	 ecx, DWORD PTR [ecx+4]
  00006	85 c9		 test	 ecx, ecx
  00008	74 06		 je	 SHORT $LN2@OnAddInToo

; 330  : }

  0000a	5d		 pop	 ebp

; 328  : 	if( m_pAddInManagerImpl) return m_pAddInManagerImpl->OnAddInToolCommand( p_lResult, p_eCommandID);

  0000b	e9 00 00 00 00	 jmp	 ?OnAddInToolCommand@CAddInManagerImp@@QAEHAAJW4EAICommandType@@@Z ; CAddInManagerImp::OnAddInToolCommand
$LN2@OnAddInToo:

; 329  : 	return FALSE;

  00010	33 c0		 xor	 eax, eax

; 330  : }

  00012	5d		 pop	 ebp
  00013	c2 08 00	 ret	 8
?OnAddInToolCommand@CAddInManager@@QAEHAAJW4EAICommandType@@@Z ENDP ; CAddInManager::OnAddInToolCommand
_TEXT	ENDS
; Function compile flags: /Ogtp
; File D:\git\src\IBK\IBK_DRFN\ProjSrc\SrcChartEx\ChartOCX\AddInManager\AddInManager.cpp
;	COMDAT ?OnAddInToolCommand@CAddInManager@@QAEHW4EAICommandType@@JJJJJJJJJ@Z
_TEXT	SEGMENT
_p_eCommandID$ = 8					; size = 4
_p_lParam1$ = 12					; size = 4
_p_lParam2$ = 16					; size = 4
_p_lParam3$ = 20					; size = 4
_p_lParam4$ = 24					; size = 4
_p_lParam5$ = 28					; size = 4
_p_lParam6$ = 32					; size = 4
_p_lParam7$ = 36					; size = 4
_p_lParam8$ = 40					; size = 4
_p_lParam9$ = 44					; size = 4
?OnAddInToolCommand@CAddInManager@@QAEHW4EAICommandType@@JJJJJJJJJ@Z PROC ; CAddInManager::OnAddInToolCommand, COMDAT
; _this$ = ecx

; 322  : {

  00000	55		 push	 ebp
  00001	8b ec		 mov	 ebp, esp

; 323  : 	if( m_pAddInManagerImpl) return m_pAddInManagerImpl->OnAddInToolCommand( p_eCommandID, p_lParam1, p_lParam2, p_lParam3, p_lParam4, p_lParam5, p_lParam6, p_lParam7, p_lParam8, p_lParam9);

  00003	8b 49 04	 mov	 ecx, DWORD PTR [ecx+4]
  00006	85 c9		 test	 ecx, ecx
  00008	74 06		 je	 SHORT $LN2@OnAddInToo

; 325  : }

  0000a	5d		 pop	 ebp

; 323  : 	if( m_pAddInManagerImpl) return m_pAddInManagerImpl->OnAddInToolCommand( p_eCommandID, p_lParam1, p_lParam2, p_lParam3, p_lParam4, p_lParam5, p_lParam6, p_lParam7, p_lParam8, p_lParam9);

  0000b	e9 00 00 00 00	 jmp	 ?OnAddInToolCommand@CAddInManagerImp@@QAEHW4EAICommandType@@JJJJJJJJJ@Z ; CAddInManagerImp::OnAddInToolCommand
$LN2@OnAddInToo:

; 324  : 	return FALSE;

  00010	33 c0		 xor	 eax, eax

; 325  : }

  00012	5d		 pop	 ebp
  00013	c2 28 00	 ret	 40			; 00000028H
?OnAddInToolCommand@CAddInManager@@QAEHW4EAICommandType@@JJJJJJJJJ@Z ENDP ; CAddInManager::OnAddInToolCommand
_TEXT	ENDS
; Function compile flags: /Ogtp
; File D:\git\src\IBK\IBK_DRFN\ProjSrc\SrcChartEx\ChartOCX\AddInManager\AddInManager.cpp
;	COMDAT ?OnAddInToolCommand@CAddInManager@@QAEHW4EAICommandType@@JJ@Z
_TEXT	SEGMENT
_p_eCommandID$ = 8					; size = 4
_p_lParam1$ = 12					; size = 4
_p_lParam2$ = 16					; size = 4
?OnAddInToolCommand@CAddInManager@@QAEHW4EAICommandType@@JJ@Z PROC ; CAddInManager::OnAddInToolCommand, COMDAT
; _this$ = ecx

; 317  : {

  00000	55		 push	 ebp
  00001	8b ec		 mov	 ebp, esp

; 318  : 	if( m_pAddInManagerImpl) return m_pAddInManagerImpl->OnAddInToolCommand( p_eCommandID, p_lParam1, p_lParam2);

  00003	8b 49 04	 mov	 ecx, DWORD PTR [ecx+4]
  00006	85 c9		 test	 ecx, ecx
  00008	74 06		 je	 SHORT $LN2@OnAddInToo

; 320  : }

  0000a	5d		 pop	 ebp

; 318  : 	if( m_pAddInManagerImpl) return m_pAddInManagerImpl->OnAddInToolCommand( p_eCommandID, p_lParam1, p_lParam2);

  0000b	e9 00 00 00 00	 jmp	 ?OnAddInToolCommand@CAddInManagerImp@@QAEHW4EAICommandType@@JJ@Z ; CAddInManagerImp::OnAddInToolCommand
$LN2@OnAddInToo:

; 319  : 	return FALSE;

  00010	33 c0		 xor	 eax, eax

; 320  : }

  00012	5d		 pop	 ebp
  00013	c2 0c 00	 ret	 12			; 0000000cH
?OnAddInToolCommand@CAddInManager@@QAEHW4EAICommandType@@JJ@Z ENDP ; CAddInManager::OnAddInToolCommand
_TEXT	ENDS
; Function compile flags: /Ogtp
; File D:\git\src\IBK\IBK_DRFN\ProjSrc\SrcChartEx\ChartOCX\AddInManager\AddInManager.cpp
;	COMDAT ?OnAddInToolCommand@CAddInManager@@QAEHW4EAICommandType@@JPBD11@Z
_TEXT	SEGMENT
_p_eCommandID$ = 8					; size = 4
_p_lParam$ = 12						; size = 4
_p_szParam1$ = 16					; size = 4
_p_szParam2$ = 20					; size = 4
_p_szParam3$ = 24					; size = 4
?OnAddInToolCommand@CAddInManager@@QAEHW4EAICommandType@@JPBD11@Z PROC ; CAddInManager::OnAddInToolCommand, COMDAT
; _this$ = ecx

; 312  : {

  00000	55		 push	 ebp
  00001	8b ec		 mov	 ebp, esp

; 313  : 	if( m_pAddInManagerImpl) return m_pAddInManagerImpl->OnAddInToolCommand( p_eCommandID, p_lParam, p_szParam1, p_szParam2, p_szParam3);

  00003	8b 49 04	 mov	 ecx, DWORD PTR [ecx+4]
  00006	85 c9		 test	 ecx, ecx
  00008	74 06		 je	 SHORT $LN2@OnAddInToo

; 315  : }

  0000a	5d		 pop	 ebp

; 313  : 	if( m_pAddInManagerImpl) return m_pAddInManagerImpl->OnAddInToolCommand( p_eCommandID, p_lParam, p_szParam1, p_szParam2, p_szParam3);

  0000b	e9 00 00 00 00	 jmp	 ?OnAddInToolCommand@CAddInManagerImp@@QAEHW4EAICommandType@@JPBD11@Z ; CAddInManagerImp::OnAddInToolCommand
$LN2@OnAddInToo:

; 314  : 	return FALSE;

  00010	33 c0		 xor	 eax, eax

; 315  : }

  00012	5d		 pop	 ebp
  00013	c2 14 00	 ret	 20			; 00000014H
?OnAddInToolCommand@CAddInManager@@QAEHW4EAICommandType@@JPBD11@Z ENDP ; CAddInManager::OnAddInToolCommand
_TEXT	ENDS
; Function compile flags: /Ogtp
; File D:\git\src\IBK\IBK_DRFN\ProjSrc\SrcChartEx\ChartOCX\AddInManager\AddInManager.cpp
;	COMDAT ?OnAddInToolCommand@CAddInManager@@QAEHW4EAICommandType@@JPBD@Z
_TEXT	SEGMENT
_p_eCommandID$ = 8					; size = 4
_p_lParam$ = 12						; size = 4
_p_szParam$ = 16					; size = 4
?OnAddInToolCommand@CAddInManager@@QAEHW4EAICommandType@@JPBD@Z PROC ; CAddInManager::OnAddInToolCommand, COMDAT
; _this$ = ecx

; 307  : {

  00000	55		 push	 ebp
  00001	8b ec		 mov	 ebp, esp

; 308  : 	if( m_pAddInManagerImpl) return m_pAddInManagerImpl->OnAddInToolCommand( p_eCommandID, p_lParam, p_szParam);

  00003	8b 49 04	 mov	 ecx, DWORD PTR [ecx+4]
  00006	85 c9		 test	 ecx, ecx
  00008	74 06		 je	 SHORT $LN2@OnAddInToo

; 310  : }

  0000a	5d		 pop	 ebp

; 308  : 	if( m_pAddInManagerImpl) return m_pAddInManagerImpl->OnAddInToolCommand( p_eCommandID, p_lParam, p_szParam);

  0000b	e9 00 00 00 00	 jmp	 ?OnAddInToolCommand@CAddInManagerImp@@QAEHW4EAICommandType@@JPBD@Z ; CAddInManagerImp::OnAddInToolCommand
$LN2@OnAddInToo:

; 309  : 	return FALSE;

  00010	33 c0		 xor	 eax, eax

; 310  : }

  00012	5d		 pop	 ebp
  00013	c2 0c 00	 ret	 12			; 0000000cH
?OnAddInToolCommand@CAddInManager@@QAEHW4EAICommandType@@JPBD@Z ENDP ; CAddInManager::OnAddInToolCommand
_TEXT	ENDS
; Function compile flags: /Ogtp
; File D:\git\src\IBK\IBK_DRFN\ProjSrc\SrcChartEx\ChartOCX\AddInManager\AddInManager.cpp
;	COMDAT ?OnAddInToolCommand@CAddInManager@@QAEHW4EAICommandType@@J@Z
_TEXT	SEGMENT
_p_eCommandID$ = 8					; size = 4
_p_lParam$ = 12						; size = 4
?OnAddInToolCommand@CAddInManager@@QAEHW4EAICommandType@@J@Z PROC ; CAddInManager::OnAddInToolCommand, COMDAT
; _this$ = ecx

; 302  : {

  00000	55		 push	 ebp
  00001	8b ec		 mov	 ebp, esp

; 303  : 	if( m_pAddInManagerImpl) return m_pAddInManagerImpl->OnAddInToolCommand( p_eCommandID, p_lParam);

  00003	8b 49 04	 mov	 ecx, DWORD PTR [ecx+4]
  00006	85 c9		 test	 ecx, ecx
  00008	74 06		 je	 SHORT $LN2@OnAddInToo

; 305  : }

  0000a	5d		 pop	 ebp

; 303  : 	if( m_pAddInManagerImpl) return m_pAddInManagerImpl->OnAddInToolCommand( p_eCommandID, p_lParam);

  0000b	e9 00 00 00 00	 jmp	 ?OnAddInToolCommand@CAddInManagerImp@@QAEHW4EAICommandType@@J@Z ; CAddInManagerImp::OnAddInToolCommand
$LN2@OnAddInToo:

; 304  : 	return FALSE;

  00010	33 c0		 xor	 eax, eax

; 305  : }

  00012	5d		 pop	 ebp
  00013	c2 08 00	 ret	 8
?OnAddInToolCommand@CAddInManager@@QAEHW4EAICommandType@@J@Z ENDP ; CAddInManager::OnAddInToolCommand
_TEXT	ENDS
; Function compile flags: /Ogtp
; File D:\git\src\IBK\IBK_DRFN\ProjSrc\SrcChartEx\ChartOCX\AddInManager\AddInManager.cpp
;	COMDAT ?OnAddInToolCommand@CAddInManager@@QAEHW4EAICommandType@@PBUIAddInDll@@@Z
_TEXT	SEGMENT
_p_eCommandID$ = 8					; size = 4
_p_pParam$ = 12						; size = 4
?OnAddInToolCommand@CAddInManager@@QAEHW4EAICommandType@@PBUIAddInDll@@@Z PROC ; CAddInManager::OnAddInToolCommand, COMDAT
; _this$ = ecx

; 297  : {

  00000	55		 push	 ebp
  00001	8b ec		 mov	 ebp, esp

; 298  : 	if( m_pAddInManagerImpl) return m_pAddInManagerImpl->OnAddInToolCommand( p_eCommandID, p_pParam);

  00003	8b 49 04	 mov	 ecx, DWORD PTR [ecx+4]
  00006	85 c9		 test	 ecx, ecx
  00008	74 06		 je	 SHORT $LN2@OnAddInToo

; 300  : }

  0000a	5d		 pop	 ebp

; 298  : 	if( m_pAddInManagerImpl) return m_pAddInManagerImpl->OnAddInToolCommand( p_eCommandID, p_pParam);

  0000b	e9 00 00 00 00	 jmp	 ?OnAddInToolCommand@CAddInManagerImp@@QAEHW4EAICommandType@@PBUIAddInDll@@@Z ; CAddInManagerImp::OnAddInToolCommand
$LN2@OnAddInToo:

; 299  : 	return FALSE;

  00010	33 c0		 xor	 eax, eax

; 300  : }

  00012	5d		 pop	 ebp
  00013	c2 08 00	 ret	 8
?OnAddInToolCommand@CAddInManager@@QAEHW4EAICommandType@@PBUIAddInDll@@@Z ENDP ; CAddInManager::OnAddInToolCommand
_TEXT	ENDS
; Function compile flags: /Ogtp
; File D:\git\src\IBK\IBK_DRFN\ProjSrc\SrcChartEx\ChartOCX\AddInManager\AddInManager.cpp
;	COMDAT ?OnAddInToolCommand@CAddInManager@@QAEHW4EAICommandType@@PBDJ@Z
_TEXT	SEGMENT
_p_eCommandID$ = 8					; size = 4
_p_szParam$ = 12					; size = 4
_p_lParam$ = 16						; size = 4
?OnAddInToolCommand@CAddInManager@@QAEHW4EAICommandType@@PBDJ@Z PROC ; CAddInManager::OnAddInToolCommand, COMDAT
; _this$ = ecx

; 287  : {

  00000	55		 push	 ebp
  00001	8b ec		 mov	 ebp, esp

; 288  : 	if( m_pAddInManagerImpl) return m_pAddInManagerImpl->OnAddInToolCommand( p_eCommandID, p_szParam, p_lParam);

  00003	8b 49 04	 mov	 ecx, DWORD PTR [ecx+4]
  00006	85 c9		 test	 ecx, ecx
  00008	74 06		 je	 SHORT $LN2@OnAddInToo

; 290  : }

  0000a	5d		 pop	 ebp

; 288  : 	if( m_pAddInManagerImpl) return m_pAddInManagerImpl->OnAddInToolCommand( p_eCommandID, p_szParam, p_lParam);

  0000b	e9 00 00 00 00	 jmp	 ?OnAddInToolCommand@CAddInManagerImp@@QAEHW4EAICommandType@@PBDJ@Z ; CAddInManagerImp::OnAddInToolCommand
$LN2@OnAddInToo:

; 289  : 	return FALSE;

  00010	33 c0		 xor	 eax, eax

; 290  : }

  00012	5d		 pop	 ebp
  00013	c2 0c 00	 ret	 12			; 0000000cH
?OnAddInToolCommand@CAddInManager@@QAEHW4EAICommandType@@PBDJ@Z ENDP ; CAddInManager::OnAddInToolCommand
_TEXT	ENDS
; Function compile flags: /Ogtp
; File D:\git\src\IBK\IBK_DRFN\ProjSrc\SrcChartEx\ChartOCX\AddInManager\AddInManager.cpp
;	COMDAT ?OnAddInToolCommand@CAddInManager@@QAEHW4EAICommandType@@PBD1@Z
_TEXT	SEGMENT
_p_eCommandID$ = 8					; size = 4
_p_szParam1$ = 12					; size = 4
_p_szParam2$ = 16					; size = 4
?OnAddInToolCommand@CAddInManager@@QAEHW4EAICommandType@@PBD1@Z PROC ; CAddInManager::OnAddInToolCommand, COMDAT
; _this$ = ecx

; 292  : {

  00000	55		 push	 ebp
  00001	8b ec		 mov	 ebp, esp

; 293  : 	if( m_pAddInManagerImpl) return m_pAddInManagerImpl->OnAddInToolCommand( p_eCommandID, p_szParam1, p_szParam2);

  00003	8b 49 04	 mov	 ecx, DWORD PTR [ecx+4]
  00006	85 c9		 test	 ecx, ecx
  00008	74 06		 je	 SHORT $LN2@OnAddInToo

; 295  : }

  0000a	5d		 pop	 ebp

; 293  : 	if( m_pAddInManagerImpl) return m_pAddInManagerImpl->OnAddInToolCommand( p_eCommandID, p_szParam1, p_szParam2);

  0000b	e9 00 00 00 00	 jmp	 ?OnAddInToolCommand@CAddInManagerImp@@QAEHW4EAICommandType@@PBD1@Z ; CAddInManagerImp::OnAddInToolCommand
$LN2@OnAddInToo:

; 294  : 	return FALSE;

  00010	33 c0		 xor	 eax, eax

; 295  : }

  00012	5d		 pop	 ebp
  00013	c2 0c 00	 ret	 12			; 0000000cH
?OnAddInToolCommand@CAddInManager@@QAEHW4EAICommandType@@PBD1@Z ENDP ; CAddInManager::OnAddInToolCommand
_TEXT	ENDS
; Function compile flags: /Ogtp
; File D:\git\src\IBK\IBK_DRFN\ProjSrc\SrcChartEx\ChartOCX\AddInManager\AddInManager.cpp
;	COMDAT ?OnAddInToolCommand@CAddInManager@@QAEHW4EAICommandType@@PBD@Z
_TEXT	SEGMENT
_p_eCommandID$ = 8					; size = 4
_p_szParam$ = 12					; size = 4
?OnAddInToolCommand@CAddInManager@@QAEHW4EAICommandType@@PBD@Z PROC ; CAddInManager::OnAddInToolCommand, COMDAT
; _this$ = ecx

; 282  : {

  00000	55		 push	 ebp
  00001	8b ec		 mov	 ebp, esp

; 283  : 	if( m_pAddInManagerImpl) return m_pAddInManagerImpl->OnAddInToolCommand( p_eCommandID, p_szParam);

  00003	8b 49 04	 mov	 ecx, DWORD PTR [ecx+4]
  00006	85 c9		 test	 ecx, ecx
  00008	74 06		 je	 SHORT $LN2@OnAddInToo

; 285  : }

  0000a	5d		 pop	 ebp

; 283  : 	if( m_pAddInManagerImpl) return m_pAddInManagerImpl->OnAddInToolCommand( p_eCommandID, p_szParam);

  0000b	e9 00 00 00 00	 jmp	 ?OnAddInToolCommand@CAddInManagerImp@@QAEHW4EAICommandType@@PBD@Z ; CAddInManagerImp::OnAddInToolCommand
$LN2@OnAddInToo:

; 284  : 	return FALSE;

  00010	33 c0		 xor	 eax, eax

; 285  : }

  00012	5d		 pop	 ebp
  00013	c2 08 00	 ret	 8
?OnAddInToolCommand@CAddInManager@@QAEHW4EAICommandType@@PBD@Z ENDP ; CAddInManager::OnAddInToolCommand
_TEXT	ENDS
; Function compile flags: /Ogtp
; File D:\git\src\IBK\IBK_DRFN\ProjSrc\SrcChartEx\ChartOCX\AddInManager\AddInManager.cpp
; File C:\Program Files (x86)\Microsoft Visual Studio\2019\Community\VC\Tools\MSVC\14.29.30133\atlmfc\include\afxwin1.inl
; File D:\git\src\IBK\IBK_DRFN\ProjSrc\SrcChartEx\ChartOCX\AddInManager\AddInManager.cpp
;	COMDAT ?OnAddInToolCommand@CAddInManager@@QAEHW4EAICommandType@@PAVCDC@@IAAVCPoint@@K@Z
_TEXT	SEGMENT
_p_eCommandID$ = 8					; size = 4
_pDC$ = 12						; size = 4
_nFlags$ = 16						; size = 4
_point$ = 20						; size = 4
_p_dwMouseActionID$ = 24				; size = 4
?OnAddInToolCommand@CAddInManager@@QAEHW4EAICommandType@@PAVCDC@@IAAVCPoint@@K@Z PROC ; CAddInManager::OnAddInToolCommand, COMDAT
; _this$ = ecx

; 277  : {

  00000	55		 push	 ebp
  00001	8b ec		 mov	 ebp, esp

; 278  : 	if( m_pAddInManagerImpl) return m_pAddInManagerImpl->OnAddInToolCommand( p_eCommandID, pDC ? pDC->GetSafeHdc() : NULL, nFlags, point, p_dwMouseActionID);

  00003	8b 49 04	 mov	 ecx, DWORD PTR [ecx+4]
  00006	85 c9		 test	 ecx, ecx
  00008	74 1e		 je	 SHORT $LN2@OnAddInToo
  0000a	8b 45 0c	 mov	 eax, DWORD PTR _pDC$[ebp]
  0000d	85 c0		 test	 eax, eax
  0000f	74 0c		 je	 SHORT $LN4@OnAddInToo
; File C:\Program Files (x86)\Microsoft Visual Studio\2019\Community\VC\Tools\MSVC\14.29.30133\atlmfc\include\afxwin1.inl

; 316  : 	{ return this == NULL ? NULL : m_hDC; }

  00011	8b 40 04	 mov	 eax, DWORD PTR [eax+4]
; File D:\git\src\IBK\IBK_DRFN\ProjSrc\SrcChartEx\ChartOCX\AddInManager\AddInManager.cpp

; 278  : 	if( m_pAddInManagerImpl) return m_pAddInManagerImpl->OnAddInToolCommand( p_eCommandID, pDC ? pDC->GetSafeHdc() : NULL, nFlags, point, p_dwMouseActionID);

  00014	89 45 0c	 mov	 DWORD PTR _pDC$[ebp], eax

; 280  : }

  00017	5d		 pop	 ebp

; 278  : 	if( m_pAddInManagerImpl) return m_pAddInManagerImpl->OnAddInToolCommand( p_eCommandID, pDC ? pDC->GetSafeHdc() : NULL, nFlags, point, p_dwMouseActionID);

  00018	e9 00 00 00 00	 jmp	 ?OnAddInToolCommand@CAddInManagerImp@@QAEHW4EAICommandType@@PAUHDC__@@IAAUtagPOINT@@K@Z ; CAddInManagerImp::OnAddInToolCommand
$LN4@OnAddInToo:
  0001d	33 c0		 xor	 eax, eax
  0001f	89 45 0c	 mov	 DWORD PTR _pDC$[ebp], eax

; 280  : }

  00022	5d		 pop	 ebp

; 278  : 	if( m_pAddInManagerImpl) return m_pAddInManagerImpl->OnAddInToolCommand( p_eCommandID, pDC ? pDC->GetSafeHdc() : NULL, nFlags, point, p_dwMouseActionID);

  00023	e9 00 00 00 00	 jmp	 ?OnAddInToolCommand@CAddInManagerImp@@QAEHW4EAICommandType@@PAUHDC__@@IAAUtagPOINT@@K@Z ; CAddInManagerImp::OnAddInToolCommand
$LN2@OnAddInToo:

; 279  : 	return FALSE;

  00028	33 c0		 xor	 eax, eax

; 280  : }

  0002a	5d		 pop	 ebp
  0002b	c2 14 00	 ret	 20			; 00000014H
?OnAddInToolCommand@CAddInManager@@QAEHW4EAICommandType@@PAVCDC@@IAAVCPoint@@K@Z ENDP ; CAddInManager::OnAddInToolCommand
_TEXT	ENDS
; Function compile flags: /Ogtp
; File D:\git\src\IBK\IBK_DRFN\ProjSrc\SrcChartEx\ChartOCX\AddInManager\AddInManager.cpp
;	COMDAT ?OnAddInToolCommand@CAddInManager@@QAEHW4EAICommandType@@@Z
_TEXT	SEGMENT
_p_eCommandID$ = 8					; size = 4
?OnAddInToolCommand@CAddInManager@@QAEHW4EAICommandType@@@Z PROC ; CAddInManager::OnAddInToolCommand, COMDAT
; _this$ = ecx

; 272  : {

  00000	55		 push	 ebp
  00001	8b ec		 mov	 ebp, esp

; 273  : 	if( m_pAddInManagerImpl) return m_pAddInManagerImpl->OnAddInToolCommand( p_eCommandID);

  00003	8b 49 04	 mov	 ecx, DWORD PTR [ecx+4]
  00006	85 c9		 test	 ecx, ecx
  00008	74 06		 je	 SHORT $LN2@OnAddInToo

; 275  : }

  0000a	5d		 pop	 ebp

; 273  : 	if( m_pAddInManagerImpl) return m_pAddInManagerImpl->OnAddInToolCommand( p_eCommandID);

  0000b	e9 00 00 00 00	 jmp	 ?OnAddInToolCommand@CAddInManagerImp@@QAEHW4EAICommandType@@@Z ; CAddInManagerImp::OnAddInToolCommand
$LN2@OnAddInToo:

; 274  : 	return FALSE;

  00010	33 c0		 xor	 eax, eax

; 275  : }

  00012	5d		 pop	 ebp
  00013	c2 04 00	 ret	 4
?OnAddInToolCommand@CAddInManager@@QAEHW4EAICommandType@@@Z ENDP ; CAddInManager::OnAddInToolCommand
_TEXT	ENDS
; Function compile flags: /Ogtp
; File D:\git\src\IBK\IBK_DRFN\ProjSrc\SrcChartEx\ChartOCX\AddInManager\AddInManager.cpp
;	COMDAT ?OnAddInMsg@CAddInManager@@QAEHPBDJ@Z
_TEXT	SEGMENT
_p_szAddInItemName$ = 8					; size = 4
_p_lParam$ = 12						; size = 4
?OnAddInMsg@CAddInManager@@QAEHPBDJ@Z PROC		; CAddInManager::OnAddInMsg, COMDAT
; _this$ = ecx

; 267  : {

  00000	55		 push	 ebp
  00001	8b ec		 mov	 ebp, esp

; 268  : 	if( m_pAddInManagerImpl) return m_pAddInManagerImpl->OnAddInMsg( p_szAddInItemName, p_lParam);

  00003	8b 49 04	 mov	 ecx, DWORD PTR [ecx+4]
  00006	85 c9		 test	 ecx, ecx
  00008	74 06		 je	 SHORT $LN2@OnAddInMsg

; 270  : }

  0000a	5d		 pop	 ebp

; 268  : 	if( m_pAddInManagerImpl) return m_pAddInManagerImpl->OnAddInMsg( p_szAddInItemName, p_lParam);

  0000b	e9 00 00 00 00	 jmp	 ?OnAddInMsg@CAddInManagerImp@@QAEHPBDJ@Z ; CAddInManagerImp::OnAddInMsg
$LN2@OnAddInMsg:

; 269  : 	return FALSE;

  00010	33 c0		 xor	 eax, eax

; 270  : }

  00012	5d		 pop	 ebp
  00013	c2 08 00	 ret	 8
?OnAddInMsg@CAddInManager@@QAEHPBDJ@Z ENDP		; CAddInManager::OnAddInMsg
_TEXT	ENDS
; Function compile flags: /Ogtp
; File D:\git\src\IBK\IBK_DRFN\ProjSrc\SrcChartEx\ChartOCX\AddInManager\AddInManager.cpp
;	COMDAT ?OnCmdMsg@CAddInManager@@QAEHIHPAXPAUAFX_CMDHANDLERINFO@@@Z
_TEXT	SEGMENT
_nID$ = 8						; size = 4
_nCode$ = 12						; size = 4
_pExtra$ = 16						; size = 4
_pHandlerInfo$ = 20					; size = 4
?OnCmdMsg@CAddInManager@@QAEHIHPAXPAUAFX_CMDHANDLERINFO@@@Z PROC ; CAddInManager::OnCmdMsg, COMDAT
; _this$ = ecx

; 262  : {

  00000	55		 push	 ebp
  00001	8b ec		 mov	 ebp, esp

; 263  : 	if( m_pAddInManagerImpl) return m_pAddInManagerImpl->OnCmdMsg( nID, nCode, pExtra, pHandlerInfo);

  00003	8b 49 04	 mov	 ecx, DWORD PTR [ecx+4]
  00006	85 c9		 test	 ecx, ecx
  00008	74 06		 je	 SHORT $LN2@OnCmdMsg

; 265  : }

  0000a	5d		 pop	 ebp

; 263  : 	if( m_pAddInManagerImpl) return m_pAddInManagerImpl->OnCmdMsg( nID, nCode, pExtra, pHandlerInfo);

  0000b	e9 00 00 00 00	 jmp	 ?OnCmdMsg@CAddInManagerImp@@QAEHIHPAXPAUAFX_CMDHANDLERINFO@@@Z ; CAddInManagerImp::OnCmdMsg
$LN2@OnCmdMsg:

; 264  : 	return FALSE;

  00010	33 c0		 xor	 eax, eax

; 265  : }

  00012	5d		 pop	 ebp
  00013	c2 10 00	 ret	 16			; 00000010H
?OnCmdMsg@CAddInManager@@QAEHIHPAXPAUAFX_CMDHANDLERINFO@@@Z ENDP ; CAddInManager::OnCmdMsg
_TEXT	ENDS
; Function compile flags: /Ogtp
; File D:\git\src\IBK\IBK_DRFN\ProjSrc\SrcChartEx\ChartOCX\AddInManager\AddInManager.cpp
;	COMDAT ?OnRecalculationComplete@CAddInManager@@QAEXXZ
_TEXT	SEGMENT
?OnRecalculationComplete@CAddInManager@@QAEXXZ PROC	; CAddInManager::OnRecalculationComplete, COMDAT
; _this$ = ecx

; 253  : 	if( m_pAddInManagerImpl) m_pAddInManagerImpl->OnRecalculationComplete();

  00000	8b 49 04	 mov	 ecx, DWORD PTR [ecx+4]
  00003	85 c9		 test	 ecx, ecx
  00005	0f 85 00 00 00
	00		 jne	 ?OnRecalculationComplete@CAddInManagerImp@@QAEXXZ ; CAddInManagerImp::OnRecalculationComplete

; 254  : }

  0000b	c3		 ret	 0
?OnRecalculationComplete@CAddInManager@@QAEXXZ ENDP	; CAddInManager::OnRecalculationComplete
_TEXT	ENDS
; Function compile flags: /Ogtp
; File D:\git\src\IBK\IBK_DRFN\ProjSrc\SrcChartEx\ChartOCX\AddInManager\AddInManager.cpp
;	COMDAT ?DrawCursor@CAddInManager@@QAEXPAVCDC@@@Z
_TEXT	SEGMENT
_p_pDC$ = 8						; size = 4
?DrawCursor@CAddInManager@@QAEXPAVCDC@@@Z PROC		; CAddInManager::DrawCursor, COMDAT
; _this$ = ecx

; 246  : {

  00000	55		 push	 ebp
  00001	8b ec		 mov	 ebp, esp

; 247  : 	if( m_pAddInManagerImpl) m_pAddInManagerImpl->DrawCursor( p_pDC);

  00003	8b 49 04	 mov	 ecx, DWORD PTR [ecx+4]
  00006	85 c9		 test	 ecx, ecx
  00008	74 06		 je	 SHORT $LN2@DrawCursor

; 248  : }

  0000a	5d		 pop	 ebp

; 247  : 	if( m_pAddInManagerImpl) m_pAddInManagerImpl->DrawCursor( p_pDC);

  0000b	e9 00 00 00 00	 jmp	 ?DrawCursor@CAddInManagerImp@@QAEXPAVCDC@@@Z ; CAddInManagerImp::DrawCursor
$LN2@DrawCursor:

; 248  : }

  00010	5d		 pop	 ebp
  00011	c2 04 00	 ret	 4
?DrawCursor@CAddInManager@@QAEXPAVCDC@@@Z ENDP		; CAddInManager::DrawCursor
_TEXT	ENDS
; Function compile flags: /Ogtp
; File D:\git\src\IBK\IBK_DRFN\ProjSrc\SrcChartEx\ChartOCX\AddInManager\AddInManager.cpp
;	COMDAT ?ClearCursor@CAddInManager@@QAEXPAVCDC@@PBVCBitmap@@PAVCRect@@@Z
_TEXT	SEGMENT
_p_pDC$ = 8						; size = 4
_p_bmpMainOSB$ = 12					; size = 4
_p_pRect$ = 16						; size = 4
?ClearCursor@CAddInManager@@QAEXPAVCDC@@PBVCBitmap@@PAVCRect@@@Z PROC ; CAddInManager::ClearCursor, COMDAT
; _this$ = ecx

; 242  : {

  00000	55		 push	 ebp
  00001	8b ec		 mov	 ebp, esp

; 243  : 	if( m_pAddInManagerImpl) m_pAddInManagerImpl->ClearCursor( p_pDC, p_bmpMainOSB, p_pRect);

  00003	8b 49 04	 mov	 ecx, DWORD PTR [ecx+4]
  00006	85 c9		 test	 ecx, ecx
  00008	74 06		 je	 SHORT $LN2@ClearCurso

; 244  : }

  0000a	5d		 pop	 ebp

; 243  : 	if( m_pAddInManagerImpl) m_pAddInManagerImpl->ClearCursor( p_pDC, p_bmpMainOSB, p_pRect);

  0000b	e9 00 00 00 00	 jmp	 ?ClearCursor@CAddInManagerImp@@QAEXPAVCDC@@PBVCBitmap@@PAVCRect@@@Z ; CAddInManagerImp::ClearCursor
$LN2@ClearCurso:

; 244  : }

  00010	5d		 pop	 ebp
  00011	c2 0c 00	 ret	 12			; 0000000cH
?ClearCursor@CAddInManager@@QAEXPAVCDC@@PBVCBitmap@@PAVCRect@@@Z ENDP ; CAddInManager::ClearCursor
_TEXT	ENDS
; Function compile flags: /Ogtp
; File D:\git\src\IBK\IBK_DRFN\ProjSrc\SrcChartEx\ChartOCX\AddInManager\AddInManager.cpp
;	COMDAT ?OnSaveEnvironment@CAddInManager@@QAEXPAVCPropertyMap@@@Z
_TEXT	SEGMENT
_p_pAddInEnvMap$ = 8					; size = 4
?OnSaveEnvironment@CAddInManager@@QAEXPAVCPropertyMap@@@Z PROC ; CAddInManager::OnSaveEnvironment, COMDAT
; _this$ = ecx

; 236  : {

  00000	55		 push	 ebp
  00001	8b ec		 mov	 ebp, esp

; 237  : 	if( m_pAddInManagerImpl) m_pAddInManagerImpl->OnSaveEnvironment( p_pAddInEnvMap);

  00003	8b 49 04	 mov	 ecx, DWORD PTR [ecx+4]
  00006	85 c9		 test	 ecx, ecx
  00008	74 06		 je	 SHORT $LN2@OnSaveEnvi

; 238  : }

  0000a	5d		 pop	 ebp

; 237  : 	if( m_pAddInManagerImpl) m_pAddInManagerImpl->OnSaveEnvironment( p_pAddInEnvMap);

  0000b	e9 00 00 00 00	 jmp	 ?OnSaveEnvironment@CAddInManagerImp@@QAEXPAVCPropertyMap@@@Z ; CAddInManagerImp::OnSaveEnvironment
$LN2@OnSaveEnvi:

; 238  : }

  00010	5d		 pop	 ebp
  00011	c2 04 00	 ret	 4
?OnSaveEnvironment@CAddInManager@@QAEXPAVCPropertyMap@@@Z ENDP ; CAddInManager::OnSaveEnvironment
_TEXT	ENDS
; Function compile flags: /Ogtp
; File D:\git\src\IBK\IBK_DRFN\ProjSrc\SrcChartEx\ChartOCX\AddInManager\AddInManager.cpp
;	COMDAT ?OnLoadEnvironment@CAddInManager@@QAEXPAVCPropertyMap@@@Z
_TEXT	SEGMENT
_p_pAddInEnvMap$ = 8					; size = 4
?OnLoadEnvironment@CAddInManager@@QAEXPAVCPropertyMap@@@Z PROC ; CAddInManager::OnLoadEnvironment, COMDAT
; _this$ = ecx

; 232  : {

  00000	55		 push	 ebp
  00001	8b ec		 mov	 ebp, esp

; 233  : 	if( m_pAddInManagerImpl) m_pAddInManagerImpl->OnLoadEnvironment( p_pAddInEnvMap);

  00003	8b 49 04	 mov	 ecx, DWORD PTR [ecx+4]
  00006	85 c9		 test	 ecx, ecx
  00008	74 06		 je	 SHORT $LN2@OnLoadEnvi

; 234  : }

  0000a	5d		 pop	 ebp

; 233  : 	if( m_pAddInManagerImpl) m_pAddInManagerImpl->OnLoadEnvironment( p_pAddInEnvMap);

  0000b	e9 00 00 00 00	 jmp	 ?OnLoadEnvironment@CAddInManagerImp@@QAEXPAVCPropertyMap@@@Z ; CAddInManagerImp::OnLoadEnvironment
$LN2@OnLoadEnvi:

; 234  : }

  00010	5d		 pop	 ebp
  00011	c2 04 00	 ret	 4
?OnLoadEnvironment@CAddInManager@@QAEXPAVCPropertyMap@@@Z ENDP ; CAddInManager::OnLoadEnvironment
_TEXT	ENDS
; Function compile flags: /Ogtp
; File D:\git\src\IBK\IBK_DRFN\ProjSrc\SrcChartEx\ChartOCX\AddInManager\AddInManager.cpp
;	COMDAT ?OnToolCommand@CAddInManager@@QAEXHH@Z
_TEXT	SEGMENT
_p_nToolType$ = 8					; size = 4
_p_nCmdOption$ = 12					; size = 4
?OnToolCommand@CAddInManager@@QAEXHH@Z PROC		; CAddInManager::OnToolCommand, COMDAT
; _this$ = ecx

; 226  : {

  00000	55		 push	 ebp
  00001	8b ec		 mov	 ebp, esp

; 227  : 	if( m_pAddInManagerImpl) m_pAddInManagerImpl->OnToolCommand( p_nToolType, p_nCmdOption);

  00003	8b 49 04	 mov	 ecx, DWORD PTR [ecx+4]
  00006	85 c9		 test	 ecx, ecx
  00008	74 06		 je	 SHORT $LN2@OnToolComm

; 228  : }

  0000a	5d		 pop	 ebp

; 227  : 	if( m_pAddInManagerImpl) m_pAddInManagerImpl->OnToolCommand( p_nToolType, p_nCmdOption);

  0000b	e9 00 00 00 00	 jmp	 ?OnToolCommand@CAddInManagerImp@@QAEXHH@Z ; CAddInManagerImp::OnToolCommand
$LN2@OnToolComm:

; 228  : }

  00010	5d		 pop	 ebp
  00011	c2 08 00	 ret	 8
?OnToolCommand@CAddInManager@@QAEXHH@Z ENDP		; CAddInManager::OnToolCommand
_TEXT	ENDS
; Function compile flags: /Ogtp
; File D:\git\src\IBK\IBK_DRFN\ProjSrc\SrcChartEx\ChartOCX\AddInManager\AddInManager.cpp
;	COMDAT ?OnBlockChanged@CAddInManager@@QAEXW4BLOCKBEHAVIOR@CBlockBaseData@@HHHH@Z
_TEXT	SEGMENT
_p_eChangeType$ = 8					; size = 4
_p_nSourceRow$ = 12					; size = 4
_p_nSourceColumn$ = 16					; size = 4
_p_nTargetRow$ = 20					; size = 4
_p_nTargetColumn$ = 24					; size = 4
?OnBlockChanged@CAddInManager@@QAEXW4BLOCKBEHAVIOR@CBlockBaseData@@HHHH@Z PROC ; CAddInManager::OnBlockChanged, COMDAT
; _this$ = ecx

; 220  : {

  00000	55		 push	 ebp
  00001	8b ec		 mov	 ebp, esp

; 221  : 	if( m_pAddInManagerImpl) m_pAddInManagerImpl->OnBlockChanged( p_eChangeType, p_nSourceRow, p_nSourceColumn, p_nTargetRow, p_nTargetColumn);

  00003	8b 49 04	 mov	 ecx, DWORD PTR [ecx+4]
  00006	85 c9		 test	 ecx, ecx
  00008	74 06		 je	 SHORT $LN2@OnBlockCha

; 222  : }

  0000a	5d		 pop	 ebp

; 221  : 	if( m_pAddInManagerImpl) m_pAddInManagerImpl->OnBlockChanged( p_eChangeType, p_nSourceRow, p_nSourceColumn, p_nTargetRow, p_nTargetColumn);

  0000b	e9 00 00 00 00	 jmp	 ?OnBlockChanged@CAddInManagerImp@@QAEXW4BLOCKBEHAVIOR@CBlockBaseData@@HHHH@Z ; CAddInManagerImp::OnBlockChanged
$LN2@OnBlockCha:

; 222  : }

  00010	5d		 pop	 ebp
  00011	c2 14 00	 ret	 20			; 00000014H
?OnBlockChanged@CAddInManager@@QAEXW4BLOCKBEHAVIOR@CBlockBaseData@@HHHH@Z ENDP ; CAddInManager::OnBlockChanged
_TEXT	ENDS
; Function compile flags: /Ogtp
; File D:\git\src\IBK\IBK_DRFN\ProjSrc\SrcChartEx\ChartOCX\AddInManager\AddInManager.cpp
;	COMDAT ?OnPacketTruncated@CAddInManager@@QAEXH@Z
_TEXT	SEGMENT
_p_nDataCount$ = 8					; size = 4
?OnPacketTruncated@CAddInManager@@QAEXH@Z PROC		; CAddInManager::OnPacketTruncated, COMDAT
; _this$ = ecx

; 214  : {

  00000	55		 push	 ebp
  00001	8b ec		 mov	 ebp, esp

; 215  : 	if( m_pAddInManagerImpl) m_pAddInManagerImpl->OnPacketTruncated( p_nDataCount);

  00003	8b 49 04	 mov	 ecx, DWORD PTR [ecx+4]
  00006	85 c9		 test	 ecx, ecx
  00008	74 06		 je	 SHORT $LN2@OnPacketTr

; 216  : }

  0000a	5d		 pop	 ebp

; 215  : 	if( m_pAddInManagerImpl) m_pAddInManagerImpl->OnPacketTruncated( p_nDataCount);

  0000b	e9 00 00 00 00	 jmp	 ?OnPacketTruncated@CAddInManagerImp@@QAEXH@Z ; CAddInManagerImp::OnPacketTruncated
$LN2@OnPacketTr:

; 216  : }

  00010	5d		 pop	 ebp
  00011	c2 04 00	 ret	 4
?OnPacketTruncated@CAddInManager@@QAEXH@Z ENDP		; CAddInManager::OnPacketTruncated
_TEXT	ENDS
; Function compile flags: /Ogtp
; File D:\git\src\IBK\IBK_DRFN\ProjSrc\SrcChartEx\ChartOCX\AddInManager\AddInManager.cpp
;	COMDAT ?OnGraphDeleted@CAddInManager@@QAEXPBD0@Z
_TEXT	SEGMENT
_p_szGraphName$ = 8					; size = 4
_p_szIndicatorName$ = 12				; size = 4
?OnGraphDeleted@CAddInManager@@QAEXPBD0@Z PROC		; CAddInManager::OnGraphDeleted, COMDAT
; _this$ = ecx

; 208  : {

  00000	55		 push	 ebp
  00001	8b ec		 mov	 ebp, esp

; 209  : 	if( m_pAddInManagerImpl) m_pAddInManagerImpl->OnGraphDeleted( p_szGraphName, p_szIndicatorName);

  00003	8b 49 04	 mov	 ecx, DWORD PTR [ecx+4]
  00006	85 c9		 test	 ecx, ecx
  00008	74 06		 je	 SHORT $LN2@OnGraphDel

; 210  : }

  0000a	5d		 pop	 ebp

; 209  : 	if( m_pAddInManagerImpl) m_pAddInManagerImpl->OnGraphDeleted( p_szGraphName, p_szIndicatorName);

  0000b	e9 00 00 00 00	 jmp	 ?OnGraphDeleted@CAddInManagerImp@@QAEXPBD0@Z ; CAddInManagerImp::OnGraphDeleted
$LN2@OnGraphDel:

; 210  : }

  00010	5d		 pop	 ebp
  00011	c2 08 00	 ret	 8
?OnGraphDeleted@CAddInManager@@QAEXPBD0@Z ENDP		; CAddInManager::OnGraphDeleted
_TEXT	ENDS
; Function compile flags: /Ogtp
; File D:\git\src\IBK\IBK_DRFN\ProjSrc\SrcChartEx\ChartOCX\AddInManager\AddInManager.cpp
; File C:\Program Files (x86)\Microsoft Visual Studio\2019\Community\VC\Tools\MSVC\14.29.30133\atlmfc\include\afxwin2.inl
; File D:\git\src\IBK\IBK_DRFN\ProjSrc\SrcChartEx\ChartOCX\AddInManager\AddInManager.cpp
;	COMDAT ?OnContextMenu@CAddInManager@@QAEXPAVCWnd@@AAVCPoint@@@Z
_TEXT	SEGMENT
_p_pWnd$ = 8						; size = 4
_p_pt$ = 12						; size = 4
?OnContextMenu@CAddInManager@@QAEXPAVCWnd@@AAVCPoint@@@Z PROC ; CAddInManager::OnContextMenu, COMDAT
; _this$ = ecx

; 202  : {

  00000	55		 push	 ebp
  00001	8b ec		 mov	 ebp, esp

; 203  : 	if( m_pAddInManagerImpl) m_pAddInManagerImpl->OnContextMenu( p_pWnd ? p_pWnd->GetSafeHwnd() : NULL, p_pt);

  00003	8b 49 04	 mov	 ecx, DWORD PTR [ecx+4]
  00006	85 c9		 test	 ecx, ecx
  00008	74 1e		 je	 SHORT $LN2@OnContextM
  0000a	8b 45 08	 mov	 eax, DWORD PTR _p_pWnd$[ebp]
  0000d	85 c0		 test	 eax, eax
  0000f	74 0c		 je	 SHORT $LN4@OnContextM
; File C:\Program Files (x86)\Microsoft Visual Studio\2019\Community\VC\Tools\MSVC\14.29.30133\atlmfc\include\afxwin2.inl

; 25   : 	{ return this == NULL ? NULL : m_hWnd; }

  00011	8b 40 20	 mov	 eax, DWORD PTR [eax+32]
; File D:\git\src\IBK\IBK_DRFN\ProjSrc\SrcChartEx\ChartOCX\AddInManager\AddInManager.cpp

; 203  : 	if( m_pAddInManagerImpl) m_pAddInManagerImpl->OnContextMenu( p_pWnd ? p_pWnd->GetSafeHwnd() : NULL, p_pt);

  00014	89 45 08	 mov	 DWORD PTR _p_pWnd$[ebp], eax

; 204  : }

  00017	5d		 pop	 ebp

; 203  : 	if( m_pAddInManagerImpl) m_pAddInManagerImpl->OnContextMenu( p_pWnd ? p_pWnd->GetSafeHwnd() : NULL, p_pt);

  00018	e9 00 00 00 00	 jmp	 ?OnContextMenu@CAddInManagerImp@@QAEXPAUHWND__@@AAUtagPOINT@@@Z ; CAddInManagerImp::OnContextMenu
$LN4@OnContextM:
  0001d	33 c0		 xor	 eax, eax
  0001f	89 45 08	 mov	 DWORD PTR _p_pWnd$[ebp], eax

; 204  : }

  00022	5d		 pop	 ebp

; 203  : 	if( m_pAddInManagerImpl) m_pAddInManagerImpl->OnContextMenu( p_pWnd ? p_pWnd->GetSafeHwnd() : NULL, p_pt);

  00023	e9 00 00 00 00	 jmp	 ?OnContextMenu@CAddInManagerImp@@QAEXPAUHWND__@@AAUtagPOINT@@@Z ; CAddInManagerImp::OnContextMenu
$LN2@OnContextM:

; 204  : }

  00028	5d		 pop	 ebp
  00029	c2 08 00	 ret	 8
?OnContextMenu@CAddInManager@@QAEXPAVCWnd@@AAVCPoint@@@Z ENDP ; CAddInManager::OnContextMenu
_TEXT	ENDS
; Function compile flags: /Ogtp
; File D:\git\src\IBK\IBK_DRFN\ProjSrc\SrcChartEx\ChartOCX\AddInManager\AddInManager.cpp
;	COMDAT ?OnManualRealData@CAddInManager@@QAEXPBDNH@Z
_TEXT	SEGMENT
_p_szPacketName$ = 8					; size = 4
_p_dData$ = 12						; size = 8
_p_nOption$ = 20					; size = 4
?OnManualRealData@CAddInManager@@QAEXPBDNH@Z PROC	; CAddInManager::OnManualRealData, COMDAT
; _this$ = ecx

; 196  : {

  00000	55		 push	 ebp
  00001	8b ec		 mov	 ebp, esp

; 197  : 	if( m_pAddInManagerImpl) m_pAddInManagerImpl->OnManualRealData( p_szPacketName, p_dData, p_nOption);

  00003	8b 49 04	 mov	 ecx, DWORD PTR [ecx+4]
  00006	85 c9		 test	 ecx, ecx
  00008	74 18		 je	 SHORT $LN2@OnManualRe
  0000a	ff 75 14	 push	 DWORD PTR _p_nOption$[ebp]
  0000d	f2 0f 10 45 0c	 movsd	 xmm0, QWORD PTR _p_dData$[ebp]
  00012	83 ec 08	 sub	 esp, 8
  00015	f2 0f 11 04 24	 movsd	 QWORD PTR [esp], xmm0
  0001a	ff 75 08	 push	 DWORD PTR _p_szPacketName$[ebp]
  0001d	e8 00 00 00 00	 call	 ?OnManualRealData@CAddInManagerImp@@QAEXPBDNH@Z ; CAddInManagerImp::OnManualRealData
$LN2@OnManualRe:

; 198  : }

  00022	5d		 pop	 ebp
  00023	c2 10 00	 ret	 16			; 00000010H
?OnManualRealData@CAddInManager@@QAEXPBDNH@Z ENDP	; CAddInManager::OnManualRealData
_TEXT	ENDS
; Function compile flags: /Ogtp
; File D:\git\src\IBK\IBK_DRFN\ProjSrc\SrcChartEx\ChartOCX\AddInManager\AddInManager.cpp
;	COMDAT ?OnGraphAdded@CAddInManager@@QAEXPBD0@Z
_TEXT	SEGMENT
_p_szGraphName$ = 8					; size = 4
_p_szIndicatorName$ = 12				; size = 4
?OnGraphAdded@CAddInManager@@QAEXPBD0@Z PROC		; CAddInManager::OnGraphAdded, COMDAT
; _this$ = ecx

; 190  : {

  00000	55		 push	 ebp
  00001	8b ec		 mov	 ebp, esp

; 191  : 	if( m_pAddInManagerImpl) m_pAddInManagerImpl->OnGraphAdded( p_szGraphName, p_szIndicatorName);

  00003	8b 49 04	 mov	 ecx, DWORD PTR [ecx+4]
  00006	85 c9		 test	 ecx, ecx
  00008	74 06		 je	 SHORT $LN2@OnGraphAdd

; 192  : }

  0000a	5d		 pop	 ebp

; 191  : 	if( m_pAddInManagerImpl) m_pAddInManagerImpl->OnGraphAdded( p_szGraphName, p_szIndicatorName);

  0000b	e9 00 00 00 00	 jmp	 ?OnGraphAdded@CAddInManagerImp@@QAEXPBD0@Z ; CAddInManagerImp::OnGraphAdded
$LN2@OnGraphAdd:

; 192  : }

  00010	5d		 pop	 ebp
  00011	c2 08 00	 ret	 8
?OnGraphAdded@CAddInManager@@QAEXPBD0@Z ENDP		; CAddInManager::OnGraphAdded
_TEXT	ENDS
; Function compile flags: /Ogtp
; File D:\git\src\IBK\IBK_DRFN\ProjSrc\SrcChartEx\ChartOCX\AddInManager\AddInManager.cpp
;	COMDAT ?OnBlockRemoved@CAddInManager@@QAEXHH@Z
_TEXT	SEGMENT
_p_nRow$ = 8						; size = 4
_p_nColumn$ = 12					; size = 4
?OnBlockRemoved@CAddInManager@@QAEXHH@Z PROC		; CAddInManager::OnBlockRemoved, COMDAT
; _this$ = ecx

; 184  : {

  00000	55		 push	 ebp
  00001	8b ec		 mov	 ebp, esp

; 185  : 	if( m_pAddInManagerImpl) m_pAddInManagerImpl->OnBlockRemoved( p_nRow, p_nColumn);

  00003	8b 49 04	 mov	 ecx, DWORD PTR [ecx+4]
  00006	85 c9		 test	 ecx, ecx
  00008	74 06		 je	 SHORT $LN2@OnBlockRem

; 186  : }

  0000a	5d		 pop	 ebp

; 185  : 	if( m_pAddInManagerImpl) m_pAddInManagerImpl->OnBlockRemoved( p_nRow, p_nColumn);

  0000b	e9 00 00 00 00	 jmp	 ?OnBlockRemoved@CAddInManagerImp@@QAEXHH@Z ; CAddInManagerImp::OnBlockRemoved
$LN2@OnBlockRem:

; 186  : }

  00010	5d		 pop	 ebp
  00011	c2 08 00	 ret	 8
?OnBlockRemoved@CAddInManager@@QAEXHH@Z ENDP		; CAddInManager::OnBlockRemoved
_TEXT	ENDS
; Function compile flags: /Ogtp
; File D:\git\src\IBK\IBK_DRFN\ProjSrc\SrcChartEx\ChartOCX\AddInManager\AddInManager.cpp
;	COMDAT ?OnGraphDataChanged@CAddInManager@@QAEXXZ
_TEXT	SEGMENT
?OnGraphDataChanged@CAddInManager@@QAEXXZ PROC		; CAddInManager::OnGraphDataChanged, COMDAT
; _this$ = ecx

; 179  : 	if( m_pAddInManagerImpl) m_pAddInManagerImpl->OnGraphDataChanged();

  00000	8b 49 04	 mov	 ecx, DWORD PTR [ecx+4]
  00003	85 c9		 test	 ecx, ecx
  00005	0f 85 00 00 00
	00		 jne	 ?OnGraphDataChanged@CAddInManagerImp@@QAEXXZ ; CAddInManagerImp::OnGraphDataChanged

; 180  : }

  0000b	c3		 ret	 0
?OnGraphDataChanged@CAddInManager@@QAEXXZ ENDP		; CAddInManager::OnGraphDataChanged
_TEXT	ENDS
; Function compile flags: /Ogtp
; File D:\git\src\IBK\IBK_DRFN\ProjSrc\SrcChartEx\ChartOCX\AddInManager\AddInManager.cpp
;	COMDAT ?OnChartItemChanged@CAddInManager@@QAEXXZ
_TEXT	SEGMENT
?OnChartItemChanged@CAddInManager@@QAEXXZ PROC		; CAddInManager::OnChartItemChanged, COMDAT
; _this$ = ecx

; 173  : 	if( m_pAddInManagerImpl) m_pAddInManagerImpl->OnChartItemChanged();

  00000	8b 49 04	 mov	 ecx, DWORD PTR [ecx+4]
  00003	85 c9		 test	 ecx, ecx
  00005	0f 85 00 00 00
	00		 jne	 ?OnChartItemChanged@CAddInManagerImp@@QAEXXZ ; CAddInManagerImp::OnChartItemChanged

; 174  : }

  0000b	c3		 ret	 0
?OnChartItemChanged@CAddInManager@@QAEXXZ ENDP		; CAddInManager::OnChartItemChanged
_TEXT	ENDS
; Function compile flags: /Ogtp
; File D:\git\src\IBK\IBK_DRFN\ProjSrc\SrcChartEx\ChartOCX\AddInManager\AddInManager.cpp
;	COMDAT ?OnUserIndiatorConditionLoaded@CAddInManager@@QAEXXZ
_TEXT	SEGMENT
?OnUserIndiatorConditionLoaded@CAddInManager@@QAEXXZ PROC ; CAddInManager::OnUserIndiatorConditionLoaded, COMDAT
; _this$ = ecx

; 167  : 	if( m_pAddInManagerImpl) m_pAddInManagerImpl->OnUserIndiatorConditionLoaded();

  00000	8b 49 04	 mov	 ecx, DWORD PTR [ecx+4]
  00003	85 c9		 test	 ecx, ecx
  00005	0f 85 00 00 00
	00		 jne	 ?OnUserIndiatorConditionLoaded@CAddInManagerImp@@QAEXXZ ; CAddInManagerImp::OnUserIndiatorConditionLoaded

; 168  : }

  0000b	c3		 ret	 0
?OnUserIndiatorConditionLoaded@CAddInManager@@QAEXXZ ENDP ; CAddInManager::OnUserIndiatorConditionLoaded
_TEXT	ENDS
; Function compile flags: /Ogtp
; File D:\git\src\IBK\IBK_DRFN\ProjSrc\SrcChartEx\ChartOCX\AddInManager\AddInManager.cpp
;	COMDAT ?OnResetMainBlock@CAddInManager@@QAEXXZ
_TEXT	SEGMENT
?OnResetMainBlock@CAddInManager@@QAEXXZ PROC		; CAddInManager::OnResetMainBlock, COMDAT
; _this$ = ecx

; 161  : 	if( m_pAddInManagerImpl) m_pAddInManagerImpl->OnResetMainBlock();

  00000	8b 49 04	 mov	 ecx, DWORD PTR [ecx+4]
  00003	85 c9		 test	 ecx, ecx
  00005	0f 85 00 00 00
	00		 jne	 ?OnResetMainBlock@CAddInManagerImp@@QAEXXZ ; CAddInManagerImp::OnResetMainBlock

; 162  : }

  0000b	c3		 ret	 0
?OnResetMainBlock@CAddInManager@@QAEXXZ ENDP		; CAddInManager::OnResetMainBlock
_TEXT	ENDS
; Function compile flags: /Ogtp
; File D:\git\src\IBK\IBK_DRFN\ProjSrc\SrcChartEx\ChartOCX\AddInManager\AddInManager.cpp
; File C:\Program Files (x86)\Microsoft Visual Studio\2019\Community\VC\Tools\MSVC\14.29.30133\atlmfc\include\afxwin1.inl
; File D:\git\src\IBK\IBK_DRFN\ProjSrc\SrcChartEx\ChartOCX\AddInManager\AddInManager.cpp
;	COMDAT ?OnCaptureChanged@CAddInManager@@QAEXPAVCWnd@@PBVCBitmap@@@Z
_TEXT	SEGMENT
_pWnd$ = 8						; size = 4
_p_bmpMainOSB$ = 12					; size = 4
?OnCaptureChanged@CAddInManager@@QAEXPAVCWnd@@PBVCBitmap@@@Z PROC ; CAddInManager::OnCaptureChanged, COMDAT
; _this$ = ecx

; 154  : {

  00000	55		 push	 ebp
  00001	8b ec		 mov	 ebp, esp

; 155  : 	if( m_pAddInManagerImpl) m_pAddInManagerImpl->OnCaptureChanged(	pWnd, ( HBITMAP)( p_bmpMainOSB ? p_bmpMainOSB->GetSafeHandle() : NULL));

  00003	8b 49 04	 mov	 ecx, DWORD PTR [ecx+4]
  00006	85 c9		 test	 ecx, ecx
  00008	74 1e		 je	 SHORT $LN2@OnCaptureC
  0000a	8b 45 0c	 mov	 eax, DWORD PTR _p_bmpMainOSB$[ebp]
  0000d	85 c0		 test	 eax, eax
  0000f	74 0c		 je	 SHORT $LN4@OnCaptureC
; File C:\Program Files (x86)\Microsoft Visual Studio\2019\Community\VC\Tools\MSVC\14.29.30133\atlmfc\include\afxwin1.inl

; 68   : 	{ return this == NULL ? NULL : m_hObject; }

  00011	8b 40 04	 mov	 eax, DWORD PTR [eax+4]
; File D:\git\src\IBK\IBK_DRFN\ProjSrc\SrcChartEx\ChartOCX\AddInManager\AddInManager.cpp

; 155  : 	if( m_pAddInManagerImpl) m_pAddInManagerImpl->OnCaptureChanged(	pWnd, ( HBITMAP)( p_bmpMainOSB ? p_bmpMainOSB->GetSafeHandle() : NULL));

  00014	89 45 0c	 mov	 DWORD PTR _p_bmpMainOSB$[ebp], eax

; 156  : }

  00017	5d		 pop	 ebp

; 155  : 	if( m_pAddInManagerImpl) m_pAddInManagerImpl->OnCaptureChanged(	pWnd, ( HBITMAP)( p_bmpMainOSB ? p_bmpMainOSB->GetSafeHandle() : NULL));

  00018	e9 00 00 00 00	 jmp	 ?OnCaptureChanged@CAddInManagerImp@@QAEXPAVCWnd@@QAUHBITMAP__@@@Z ; CAddInManagerImp::OnCaptureChanged
$LN4@OnCaptureC:
  0001d	33 c0		 xor	 eax, eax
  0001f	89 45 0c	 mov	 DWORD PTR _p_bmpMainOSB$[ebp], eax

; 156  : }

  00022	5d		 pop	 ebp

; 155  : 	if( m_pAddInManagerImpl) m_pAddInManagerImpl->OnCaptureChanged(	pWnd, ( HBITMAP)( p_bmpMainOSB ? p_bmpMainOSB->GetSafeHandle() : NULL));

  00023	e9 00 00 00 00	 jmp	 ?OnCaptureChanged@CAddInManagerImp@@QAEXPAVCWnd@@QAUHBITMAP__@@@Z ; CAddInManagerImp::OnCaptureChanged
$LN2@OnCaptureC:

; 156  : }

  00028	5d		 pop	 ebp
  00029	c2 08 00	 ret	 8
?OnCaptureChanged@CAddInManager@@QAEXPAVCWnd@@PBVCBitmap@@@Z ENDP ; CAddInManager::OnCaptureChanged
_TEXT	ENDS
; Function compile flags: /Ogtp
; File D:\git\src\IBK\IBK_DRFN\ProjSrc\SrcChartEx\ChartOCX\AddInManager\AddInManager.cpp
;	COMDAT ?OnTimer@CAddInManager@@QAEXI@Z
_TEXT	SEGMENT
_p_uTimerID$ = 8					; size = 4
?OnTimer@CAddInManager@@QAEXI@Z PROC			; CAddInManager::OnTimer, COMDAT
; _this$ = ecx

; 145  : {

  00000	55		 push	 ebp
  00001	8b ec		 mov	 ebp, esp

; 146  : 	if( m_pAddInManagerImpl) m_pAddInManagerImpl->OnTimer( p_uTimerID);

  00003	8b 49 04	 mov	 ecx, DWORD PTR [ecx+4]
  00006	85 c9		 test	 ecx, ecx
  00008	74 06		 je	 SHORT $LN2@OnTimer

; 147  : }

  0000a	5d		 pop	 ebp

; 146  : 	if( m_pAddInManagerImpl) m_pAddInManagerImpl->OnTimer( p_uTimerID);

  0000b	e9 00 00 00 00	 jmp	 ?OnTimer@CAddInManagerImp@@QAEXI@Z ; CAddInManagerImp::OnTimer
$LN2@OnTimer:

; 147  : }

  00010	5d		 pop	 ebp
  00011	c2 04 00	 ret	 4
?OnTimer@CAddInManager@@QAEXI@Z ENDP			; CAddInManager::OnTimer
_TEXT	ENDS
; Function compile flags: /Ogtp
; File D:\git\src\IBK\IBK_DRFN\ProjSrc\SrcChartEx\ChartOCX\AddInManager\AddInManager.cpp
;	COMDAT ?OnPacketDataMultiItem@CAddInManager@@QAEXPBD0H@Z
_TEXT	SEGMENT
_lpszRQ$ = 8						; size = 4
_p_szPacketNames$ = 12					; size = 4
_p_bWithReset$ = 16					; size = 4
?OnPacketDataMultiItem@CAddInManager@@QAEXPBD0H@Z PROC	; CAddInManager::OnPacketDataMultiItem, COMDAT
; _this$ = ecx

; 139  : {

  00000	55		 push	 ebp
  00001	8b ec		 mov	 ebp, esp

; 140  : 	if( m_pAddInManagerImpl) m_pAddInManagerImpl->OnPacketDataMultiItem(lpszRQ, p_szPacketNames, p_bWithReset);

  00003	8b 49 04	 mov	 ecx, DWORD PTR [ecx+4]
  00006	85 c9		 test	 ecx, ecx
  00008	74 06		 je	 SHORT $LN2@OnPacketDa

; 141  : }

  0000a	5d		 pop	 ebp

; 140  : 	if( m_pAddInManagerImpl) m_pAddInManagerImpl->OnPacketDataMultiItem(lpszRQ, p_szPacketNames, p_bWithReset);

  0000b	e9 00 00 00 00	 jmp	 ?OnPacketDataMultiItem@CAddInManagerImp@@QAEXPBD0H@Z ; CAddInManagerImp::OnPacketDataMultiItem
$LN2@OnPacketDa:

; 141  : }

  00010	5d		 pop	 ebp
  00011	c2 0c 00	 ret	 12			; 0000000cH
?OnPacketDataMultiItem@CAddInManager@@QAEXPBD0H@Z ENDP	; CAddInManager::OnPacketDataMultiItem
_TEXT	ENDS
; Function compile flags: /Ogtp
; File D:\git\src\IBK\IBK_DRFN\ProjSrc\SrcChartEx\ChartOCX\AddInManager\AddInManager.cpp
; File C:\Program Files (x86)\Microsoft Visual Studio\2019\Community\VC\Tools\MSVC\14.29.30133\atlmfc\include\afxwin1.inl
; File D:\git\src\IBK\IBK_DRFN\ProjSrc\SrcChartEx\ChartOCX\AddInManager\AddInManager.cpp
;	COMDAT ?OnDrawAfterGraph@CAddInManager@@QAEXPAVCDC@@@Z
_TEXT	SEGMENT
_p_pDC$ = 8						; size = 4
?OnDrawAfterGraph@CAddInManager@@QAEXPAVCDC@@@Z PROC	; CAddInManager::OnDrawAfterGraph, COMDAT
; _this$ = ecx

; 133  : {

  00000	55		 push	 ebp
  00001	8b ec		 mov	 ebp, esp

; 134  : 	if( m_pAddInManagerImpl) m_pAddInManagerImpl->OnDrawAfterGraph( p_pDC ? p_pDC->GetSafeHdc() : NULL);

  00003	8b 49 04	 mov	 ecx, DWORD PTR [ecx+4]
  00006	85 c9		 test	 ecx, ecx
  00008	74 1e		 je	 SHORT $LN2@OnDrawAfte
  0000a	8b 45 08	 mov	 eax, DWORD PTR _p_pDC$[ebp]
  0000d	85 c0		 test	 eax, eax
  0000f	74 0c		 je	 SHORT $LN4@OnDrawAfte
; File C:\Program Files (x86)\Microsoft Visual Studio\2019\Community\VC\Tools\MSVC\14.29.30133\atlmfc\include\afxwin1.inl

; 316  : 	{ return this == NULL ? NULL : m_hDC; }

  00011	8b 40 04	 mov	 eax, DWORD PTR [eax+4]
; File D:\git\src\IBK\IBK_DRFN\ProjSrc\SrcChartEx\ChartOCX\AddInManager\AddInManager.cpp

; 134  : 	if( m_pAddInManagerImpl) m_pAddInManagerImpl->OnDrawAfterGraph( p_pDC ? p_pDC->GetSafeHdc() : NULL);

  00014	89 45 08	 mov	 DWORD PTR _p_pDC$[ebp], eax

; 135  : }

  00017	5d		 pop	 ebp

; 134  : 	if( m_pAddInManagerImpl) m_pAddInManagerImpl->OnDrawAfterGraph( p_pDC ? p_pDC->GetSafeHdc() : NULL);

  00018	e9 00 00 00 00	 jmp	 ?OnDrawAfterGraph@CAddInManagerImp@@QAEXPAUHDC__@@@Z ; CAddInManagerImp::OnDrawAfterGraph
$LN4@OnDrawAfte:
  0001d	33 c0		 xor	 eax, eax
  0001f	89 45 08	 mov	 DWORD PTR _p_pDC$[ebp], eax

; 135  : }

  00022	5d		 pop	 ebp

; 134  : 	if( m_pAddInManagerImpl) m_pAddInManagerImpl->OnDrawAfterGraph( p_pDC ? p_pDC->GetSafeHdc() : NULL);

  00023	e9 00 00 00 00	 jmp	 ?OnDrawAfterGraph@CAddInManagerImp@@QAEXPAUHDC__@@@Z ; CAddInManagerImp::OnDrawAfterGraph
$LN2@OnDrawAfte:

; 135  : }

  00028	5d		 pop	 ebp
  00029	c2 04 00	 ret	 4
?OnDrawAfterGraph@CAddInManager@@QAEXPAVCDC@@@Z ENDP	; CAddInManager::OnDrawAfterGraph
_TEXT	ENDS
; Function compile flags: /Ogtp
; File D:\git\src\IBK\IBK_DRFN\ProjSrc\SrcChartEx\ChartOCX\AddInManager\AddInManager.cpp
; File C:\Program Files (x86)\Microsoft Visual Studio\2019\Community\VC\Tools\MSVC\14.29.30133\atlmfc\include\afxwin1.inl
; File D:\git\src\IBK\IBK_DRFN\ProjSrc\SrcChartEx\ChartOCX\AddInManager\AddInManager.cpp
;	COMDAT ?OnDrawBeforeGraph@CAddInManager@@QAEXPAVCDC@@@Z
_TEXT	SEGMENT
_p_pDC$ = 8						; size = 4
?OnDrawBeforeGraph@CAddInManager@@QAEXPAVCDC@@@Z PROC	; CAddInManager::OnDrawBeforeGraph, COMDAT
; _this$ = ecx

; 127  : {

  00000	55		 push	 ebp
  00001	8b ec		 mov	 ebp, esp

; 128  : 	if( m_pAddInManagerImpl) m_pAddInManagerImpl->OnDrawBeforeGraph( p_pDC ? p_pDC->GetSafeHdc() : NULL);

  00003	8b 49 04	 mov	 ecx, DWORD PTR [ecx+4]
  00006	85 c9		 test	 ecx, ecx
  00008	74 1e		 je	 SHORT $LN2@OnDrawBefo
  0000a	8b 45 08	 mov	 eax, DWORD PTR _p_pDC$[ebp]
  0000d	85 c0		 test	 eax, eax
  0000f	74 0c		 je	 SHORT $LN4@OnDrawBefo
; File C:\Program Files (x86)\Microsoft Visual Studio\2019\Community\VC\Tools\MSVC\14.29.30133\atlmfc\include\afxwin1.inl

; 316  : 	{ return this == NULL ? NULL : m_hDC; }

  00011	8b 40 04	 mov	 eax, DWORD PTR [eax+4]
; File D:\git\src\IBK\IBK_DRFN\ProjSrc\SrcChartEx\ChartOCX\AddInManager\AddInManager.cpp

; 128  : 	if( m_pAddInManagerImpl) m_pAddInManagerImpl->OnDrawBeforeGraph( p_pDC ? p_pDC->GetSafeHdc() : NULL);

  00014	89 45 08	 mov	 DWORD PTR _p_pDC$[ebp], eax

; 129  : }

  00017	5d		 pop	 ebp

; 128  : 	if( m_pAddInManagerImpl) m_pAddInManagerImpl->OnDrawBeforeGraph( p_pDC ? p_pDC->GetSafeHdc() : NULL);

  00018	e9 00 00 00 00	 jmp	 ?OnDrawBeforeGraph@CAddInManagerImp@@QAEXPAUHDC__@@@Z ; CAddInManagerImp::OnDrawBeforeGraph
$LN4@OnDrawBefo:
  0001d	33 c0		 xor	 eax, eax
  0001f	89 45 08	 mov	 DWORD PTR _p_pDC$[ebp], eax

; 129  : }

  00022	5d		 pop	 ebp

; 128  : 	if( m_pAddInManagerImpl) m_pAddInManagerImpl->OnDrawBeforeGraph( p_pDC ? p_pDC->GetSafeHdc() : NULL);

  00023	e9 00 00 00 00	 jmp	 ?OnDrawBeforeGraph@CAddInManagerImp@@QAEXPAUHDC__@@@Z ; CAddInManagerImp::OnDrawBeforeGraph
$LN2@OnDrawBefo:

; 129  : }

  00028	5d		 pop	 ebp
  00029	c2 04 00	 ret	 4
?OnDrawBeforeGraph@CAddInManager@@QAEXPAVCDC@@@Z ENDP	; CAddInManager::OnDrawBeforeGraph
_TEXT	ENDS
; Function compile flags: /Ogtp
; File D:\git\src\IBK\IBK_DRFN\ProjSrc\SrcChartEx\ChartOCX\AddInManager\AddInManager.cpp
;	COMDAT ?OnResetChart@CAddInManager@@QAEXXZ
_TEXT	SEGMENT
?OnResetChart@CAddInManager@@QAEXXZ PROC		; CAddInManager::OnResetChart, COMDAT
; _this$ = ecx

; 122  : 	if( m_pAddInManagerImpl) m_pAddInManagerImpl->OnResetChart();

  00000	8b 49 04	 mov	 ecx, DWORD PTR [ecx+4]
  00003	85 c9		 test	 ecx, ecx
  00005	0f 85 00 00 00
	00		 jne	 ?OnResetChart@CAddInManagerImp@@QAEXXZ ; CAddInManagerImp::OnResetChart

; 123  : }

  0000b	c3		 ret	 0
?OnResetChart@CAddInManager@@QAEXXZ ENDP		; CAddInManager::OnResetChart
_TEXT	ENDS
; Function compile flags: /Ogtp
; File D:\git\src\IBK\IBK_DRFN\ProjSrc\SrcChartEx\ChartOCX\AddInManager\AddInManager.cpp
;	COMDAT ?OnLSharedDataChange@CAddInManager@@QAEXPBD0@Z
_TEXT	SEGMENT
_p_szLShareKey$ = 8					; size = 4
_p_szLShareValue$ = 12					; size = 4
?OnLSharedDataChange@CAddInManager@@QAEXPBD0@Z PROC	; CAddInManager::OnLSharedDataChange, COMDAT
; _this$ = ecx

; 115  : {

  00000	55		 push	 ebp
  00001	8b ec		 mov	 ebp, esp

; 116  : 	if( m_pAddInManagerImpl) m_pAddInManagerImpl->OnLSharedDataChange( p_szLShareKey, p_szLShareValue);

  00003	8b 49 04	 mov	 ecx, DWORD PTR [ecx+4]
  00006	85 c9		 test	 ecx, ecx
  00008	74 06		 je	 SHORT $LN2@OnLSharedD

; 117  : }

  0000a	5d		 pop	 ebp

; 116  : 	if( m_pAddInManagerImpl) m_pAddInManagerImpl->OnLSharedDataChange( p_szLShareKey, p_szLShareValue);

  0000b	e9 00 00 00 00	 jmp	 ?OnLSharedDataChange@CAddInManagerImp@@QAEXPBD0@Z ; CAddInManagerImp::OnLSharedDataChange
$LN2@OnLSharedD:

; 117  : }

  00010	5d		 pop	 ebp
  00011	c2 08 00	 ret	 8
?OnLSharedDataChange@CAddInManager@@QAEXPBD0@Z ENDP	; CAddInManager::OnLSharedDataChange
_TEXT	ENDS
; Function compile flags: /Ogtp
; File D:\git\src\IBK\IBK_DRFN\ProjSrc\SrcChartEx\ChartOCX\AddInManager\AddInManager.cpp
;	COMDAT ?OnGSharedDataChange@CAddInManager@@QAEXPBD0H@Z
_TEXT	SEGMENT
_p_szGShareKey$ = 8					; size = 4
_p_szGShareValue$ = 12					; size = 4
_p_bStartShare$ = 16					; size = 4
?OnGSharedDataChange@CAddInManager@@QAEXPBD0H@Z PROC	; CAddInManager::OnGSharedDataChange, COMDAT
; _this$ = ecx

; 111  : {

  00000	55		 push	 ebp
  00001	8b ec		 mov	 ebp, esp

; 112  : 	if( m_pAddInManagerImpl) m_pAddInManagerImpl->OnGSharedDataChange( p_szGShareKey, p_szGShareValue, p_bStartShare);

  00003	8b 49 04	 mov	 ecx, DWORD PTR [ecx+4]
  00006	85 c9		 test	 ecx, ecx
  00008	74 06		 je	 SHORT $LN2@OnGSharedD

; 113  : }

  0000a	5d		 pop	 ebp

; 112  : 	if( m_pAddInManagerImpl) m_pAddInManagerImpl->OnGSharedDataChange( p_szGShareKey, p_szGShareValue, p_bStartShare);

  0000b	e9 00 00 00 00	 jmp	 ?OnGSharedDataChange@CAddInManagerImp@@QAEXPBD0H@Z ; CAddInManagerImp::OnGSharedDataChange
$LN2@OnGSharedD:

; 113  : }

  00010	5d		 pop	 ebp
  00011	c2 0c 00	 ret	 12			; 0000000cH
?OnGSharedDataChange@CAddInManager@@QAEXPBD0H@Z ENDP	; CAddInManager::OnGSharedDataChange
_TEXT	ENDS
; Function compile flags: /Ogtp
; File D:\git\src\IBK\IBK_DRFN\ProjSrc\SrcChartEx\ChartOCX\AddInManager\AddInManager.cpp
;	COMDAT ?ChangeChartMode@CAddInManager@@QAEXW4CHART_MODE@CChartInfo@@@Z
_TEXT	SEGMENT
_p_eChartMode$ = 8					; size = 4
?ChangeChartMode@CAddInManager@@QAEXW4CHART_MODE@CChartInfo@@@Z PROC ; CAddInManager::ChangeChartMode, COMDAT
; _this$ = ecx

; 100  : {

  00000	55		 push	 ebp
  00001	8b ec		 mov	 ebp, esp

; 101  : 	if( m_pAddInManagerImpl) m_pAddInManagerImpl->ChangeChartMode( p_eChartMode);

  00003	8b 49 04	 mov	 ecx, DWORD PTR [ecx+4]
  00006	85 c9		 test	 ecx, ecx
  00008	74 06		 je	 SHORT $LN2@ChangeChar

; 102  : }

  0000a	5d		 pop	 ebp

; 101  : 	if( m_pAddInManagerImpl) m_pAddInManagerImpl->ChangeChartMode( p_eChartMode);

  0000b	e9 00 00 00 00	 jmp	 ?ChangeChartMode@CAddInManagerImp@@QAEXW4CHART_MODE@CChartInfo@@@Z ; CAddInManagerImp::ChangeChartMode
$LN2@ChangeChar:

; 102  : }

  00010	5d		 pop	 ebp
  00011	c2 04 00	 ret	 4
?ChangeChartMode@CAddInManager@@QAEXW4CHART_MODE@CChartInfo@@@Z ENDP ; CAddInManager::ChangeChartMode
_TEXT	ENDS
; Function compile flags: /Ogtp
; File D:\git\src\IBK\IBK_DRFN\ProjSrc\SrcChartEx\ChartOCX\AddInManager\AddInManager.cpp
;	COMDAT ?OnOcxDestroyWindow@CAddInManager@@QAEXXZ
_TEXT	SEGMENT
?OnOcxDestroyWindow@CAddInManager@@QAEXXZ PROC		; CAddInManager::OnOcxDestroyWindow, COMDAT
; _this$ = ecx

; 95   : 	if( m_pAddInManagerImpl) m_pAddInManagerImpl->OnOcxDestroyWindow();

  00000	8b 49 04	 mov	 ecx, DWORD PTR [ecx+4]
  00003	85 c9		 test	 ecx, ecx
  00005	0f 85 00 00 00
	00		 jne	 ?OnOcxDestroyWindow@CAddInManagerImp@@QAEXXZ ; CAddInManagerImp::OnOcxDestroyWindow

; 96   : }

  0000b	c3		 ret	 0
?OnOcxDestroyWindow@CAddInManager@@QAEXXZ ENDP		; CAddInManager::OnOcxDestroyWindow
_TEXT	ENDS
; Function compile flags: /Ogtp
; File D:\git\src\IBK\IBK_DRFN\ProjSrc\SrcChartEx\ChartOCX\AddInManager\AddInManager.cpp
;	COMDAT ?InvokeAddInStr@CAddInManager@@QAEHPBD00@Z
_TEXT	SEGMENT
_p_szAddInDllName$ = 8					; size = 4
_p_szCommandName$ = 12					; size = 4
_p_szData$ = 16						; size = 4
?InvokeAddInStr@CAddInManager@@QAEHPBD00@Z PROC		; CAddInManager::InvokeAddInStr, COMDAT
; _this$ = ecx

; 87   : {

  00000	55		 push	 ebp
  00001	8b ec		 mov	 ebp, esp

; 88   : 	if( m_pAddInManagerImpl) return m_pAddInManagerImpl->InvokeAddInStr( p_szAddInDllName, p_szCommandName, p_szData);

  00003	8b 49 04	 mov	 ecx, DWORD PTR [ecx+4]
  00006	85 c9		 test	 ecx, ecx
  00008	74 06		 je	 SHORT $LN2@InvokeAddI

; 90   : }

  0000a	5d		 pop	 ebp

; 88   : 	if( m_pAddInManagerImpl) return m_pAddInManagerImpl->InvokeAddInStr( p_szAddInDllName, p_szCommandName, p_szData);

  0000b	e9 00 00 00 00	 jmp	 ?InvokeAddInStr@CAddInManagerImp@@QAEHPBD00@Z ; CAddInManagerImp::InvokeAddInStr
$LN2@InvokeAddI:

; 89   : 	return FALSE;

  00010	33 c0		 xor	 eax, eax

; 90   : }

  00012	5d		 pop	 ebp
  00013	c2 0c 00	 ret	 12			; 0000000cH
?InvokeAddInStr@CAddInManager@@QAEHPBD00@Z ENDP		; CAddInManager::InvokeAddInStr
_TEXT	ENDS
; Function compile flags: /Ogtp
; File D:\git\src\IBK\IBK_DRFN\ProjSrc\SrcChartEx\ChartOCX\AddInManager\AddInManager.cpp
;	COMDAT ?InvokeAddIn@CAddInManager@@QAEHPBDFJ@Z
_TEXT	SEGMENT
_p_szAddInDllName$ = 8					; size = 4
_p_nCommandType$ = 12					; size = 2
_p_lData$ = 16						; size = 4
?InvokeAddIn@CAddInManager@@QAEHPBDFJ@Z PROC		; CAddInManager::InvokeAddIn, COMDAT
; _this$ = ecx

; 82   : {

  00000	55		 push	 ebp
  00001	8b ec		 mov	 ebp, esp

; 83   : 	if( m_pAddInManagerImpl) return m_pAddInManagerImpl->InvokeAddIn( p_szAddInDllName, p_nCommandType, p_lData);

  00003	8b 49 04	 mov	 ecx, DWORD PTR [ecx+4]
  00006	85 c9		 test	 ecx, ecx
  00008	74 06		 je	 SHORT $LN2@InvokeAddI

; 85   : }

  0000a	5d		 pop	 ebp

; 83   : 	if( m_pAddInManagerImpl) return m_pAddInManagerImpl->InvokeAddIn( p_szAddInDllName, p_nCommandType, p_lData);

  0000b	e9 00 00 00 00	 jmp	 ?InvokeAddIn@CAddInManagerImp@@QAEHPBDFJ@Z ; CAddInManagerImp::InvokeAddIn
$LN2@InvokeAddI:

; 84   : 	return FALSE;

  00010	33 c0		 xor	 eax, eax

; 85   : }

  00012	5d		 pop	 ebp
  00013	c2 0c 00	 ret	 12			; 0000000cH
?InvokeAddIn@CAddInManager@@QAEHPBDFJ@Z ENDP		; CAddInManager::InvokeAddIn
_TEXT	ENDS
; Function compile flags: /Ogtp
; File D:\git\src\IBK\IBK_DRFN\ProjSrc\SrcChartEx\ChartOCX\AddInManager\AddInManager.cpp
;	COMDAT ?IsAddInLoaded@CAddInManager@@QAEHPBD@Z
_TEXT	SEGMENT
_p_szAddInItem$ = 8					; size = 4
?IsAddInLoaded@CAddInManager@@QAEHPBD@Z PROC		; CAddInManager::IsAddInLoaded, COMDAT
; _this$ = ecx

; 75   : {

  00000	55		 push	 ebp
  00001	8b ec		 mov	 ebp, esp

; 76   : 	if( !m_pAddInManagerImpl) return FALSE;

  00003	8b 49 04	 mov	 ecx, DWORD PTR [ecx+4]
  00006	85 c9		 test	 ecx, ecx
  00008	75 06		 jne	 SHORT $LN2@IsAddInLoa
  0000a	33 c0		 xor	 eax, eax

; 78   : }

  0000c	5d		 pop	 ebp
  0000d	c2 04 00	 ret	 4
$LN2@IsAddInLoa:
  00010	5d		 pop	 ebp

; 77   : 	return m_pAddInManagerImpl->IsAddInLoaded( p_szAddInItem);

  00011	e9 00 00 00 00	 jmp	 ?IsAddInLoaded@CAddInManagerImp@@QAEHPBD@Z ; CAddInManagerImp::IsAddInLoaded
?IsAddInLoaded@CAddInManager@@QAEHPBD@Z ENDP		; CAddInManager::IsAddInLoaded
_TEXT	ENDS
; Function compile flags: /Ogtp
; File D:\git\src\IBK\IBK_DRFN\ProjSrc\SrcChartEx\ChartOCX\AddInManager\AddInManager.cpp
;	COMDAT ?GetAddInCustomInterface@CAddInManager@@QAEPAUIUnknown@@PBD@Z
_TEXT	SEGMENT
_p_szAddInModule$ = 8					; size = 4
?GetAddInCustomInterface@CAddInManager@@QAEPAUIUnknown@@PBD@Z PROC ; CAddInManager::GetAddInCustomInterface, COMDAT
; _this$ = ecx

; 68   : {

  00000	55		 push	 ebp
  00001	8b ec		 mov	 ebp, esp

; 69   : 	if( m_pAddInManagerImpl) return m_pAddInManagerImpl->GetAddInCustomInterface( p_szAddInModule);

  00003	8b 49 04	 mov	 ecx, DWORD PTR [ecx+4]
  00006	85 c9		 test	 ecx, ecx
  00008	74 06		 je	 SHORT $LN2@GetAddInCu

; 71   : }

  0000a	5d		 pop	 ebp

; 69   : 	if( m_pAddInManagerImpl) return m_pAddInManagerImpl->GetAddInCustomInterface( p_szAddInModule);

  0000b	e9 00 00 00 00	 jmp	 ?GetAddInCustomInterface@CAddInManagerImp@@QAEPAUIUnknown@@PBD@Z ; CAddInManagerImp::GetAddInCustomInterface
$LN2@GetAddInCu:

; 70   : 	return NULL;

  00010	33 c0		 xor	 eax, eax

; 71   : }

  00012	5d		 pop	 ebp
  00013	c2 04 00	 ret	 4
?GetAddInCustomInterface@CAddInManager@@QAEPAUIUnknown@@PBD@Z ENDP ; CAddInManager::GetAddInCustomInterface
_TEXT	ENDS
; Function compile flags: /Ogtp
; File D:\git\src\IBK\IBK_DRFN\ProjSrc\SrcChartEx\ChartOCX\AddInManager\AddInManager.cpp
;	COMDAT ?UnloadAllAddin@CAddInManager@@QAEXXZ
_TEXT	SEGMENT
?UnloadAllAddin@CAddInManager@@QAEXXZ PROC		; CAddInManager::UnloadAllAddin, COMDAT
; _this$ = ecx

; 63   : 	if( m_pAddInManagerImpl) m_pAddInManagerImpl->UnloadAllAddin();

  00000	8b 49 04	 mov	 ecx, DWORD PTR [ecx+4]
  00003	85 c9		 test	 ecx, ecx
  00005	0f 85 00 00 00
	00		 jne	 ?UnloadAllAddin@CAddInManagerImp@@QAEXXZ ; CAddInManagerImp::UnloadAllAddin

; 64   : }

  0000b	c3		 ret	 0
?UnloadAllAddin@CAddInManager@@QAEXXZ ENDP		; CAddInManager::UnloadAllAddin
_TEXT	ENDS
; Function compile flags: /Ogtp
; File D:\git\src\IBK\IBK_DRFN\ProjSrc\SrcChartEx\ChartOCX\AddInManager\AddInManager.cpp
;	COMDAT ?UnloadAddIn@CAddInManager@@QAEHPBD@Z
_TEXT	SEGMENT
_p_szAddInModule$ = 8					; size = 4
?UnloadAddIn@CAddInManager@@QAEHPBD@Z PROC		; CAddInManager::UnloadAddIn, COMDAT
; _this$ = ecx

; 54   : {

  00000	55		 push	 ebp
  00001	8b ec		 mov	 ebp, esp

; 55   : 	if( m_pAddInManagerImpl) return m_pAddInManagerImpl->UnloadMultipleAddInDll( p_szAddInModule);

  00003	8b 49 04	 mov	 ecx, DWORD PTR [ecx+4]
  00006	85 c9		 test	 ecx, ecx
  00008	74 06		 je	 SHORT $LN2@UnloadAddI

; 57   : }

  0000a	5d		 pop	 ebp

; 55   : 	if( m_pAddInManagerImpl) return m_pAddInManagerImpl->UnloadMultipleAddInDll( p_szAddInModule);

  0000b	e9 00 00 00 00	 jmp	 ?UnloadMultipleAddInDll@CAddInManagerImp@@QAEHPBD@Z ; CAddInManagerImp::UnloadMultipleAddInDll
$LN2@UnloadAddI:

; 56   : 	return FALSE;

  00010	33 c0		 xor	 eax, eax

; 57   : }

  00012	5d		 pop	 ebp
  00013	c2 04 00	 ret	 4
?UnloadAddIn@CAddInManager@@QAEHPBD@Z ENDP		; CAddInManager::UnloadAddIn
_TEXT	ENDS
; Function compile flags: /Ogtp
; File D:\git\src\IBK\IBK_DRFN\ProjSrc\SrcChartEx\ChartOCX\AddInManager\AddInManager.cpp
;	COMDAT ?LoadAddIn@CAddInManager@@QAEHPBDH@Z
_TEXT	SEGMENT
_p_szAddInModule$ = 8					; size = 4
_p_bOverExclusive$ = 12					; size = 4
?LoadAddIn@CAddInManager@@QAEHPBDH@Z PROC		; CAddInManager::LoadAddIn, COMDAT
; _this$ = ecx

; 47   : {

  00000	55		 push	 ebp
  00001	8b ec		 mov	 ebp, esp

; 48   : 	if( m_pAddInManagerImpl) return m_pAddInManagerImpl->LoadMultipleAddInDll( p_szAddInModule, p_bOverExclusive);

  00003	8b 49 04	 mov	 ecx, DWORD PTR [ecx+4]
  00006	85 c9		 test	 ecx, ecx
  00008	74 06		 je	 SHORT $LN2@LoadAddIn

; 50   : }

  0000a	5d		 pop	 ebp

; 48   : 	if( m_pAddInManagerImpl) return m_pAddInManagerImpl->LoadMultipleAddInDll( p_szAddInModule, p_bOverExclusive);

  0000b	e9 00 00 00 00	 jmp	 ?LoadMultipleAddInDll@CAddInManagerImp@@QAEHPBDH@Z ; CAddInManagerImp::LoadMultipleAddInDll
$LN2@LoadAddIn:

; 49   : 	return FALSE;

  00010	33 c0		 xor	 eax, eax

; 50   : }

  00012	5d		 pop	 ebp
  00013	c2 08 00	 ret	 8
?LoadAddIn@CAddInManager@@QAEHPBDH@Z ENDP		; CAddInManager::LoadAddIn
_TEXT	ENDS
; Function compile flags: /Ogtp
; File D:\git\src\IBK\IBK_DRFN\ProjSrc\SrcChartEx\ChartOCX\AddInManager\AddInManager.cpp
;	COMDAT ??1CAddInManager@@UAE@XZ
_TEXT	SEGMENT
??1CAddInManager@@UAE@XZ PROC				; CAddInManager::~CAddInManager, COMDAT
; _this$ = ecx

; 30   : {

  00000	56		 push	 esi
  00001	8b f1		 mov	 esi, ecx

; 31   : 	if( m_pAddInManagerImpl)

  00003	8b 4e 04	 mov	 ecx, DWORD PTR [esi+4]
  00006	c7 06 00 00 00
	00		 mov	 DWORD PTR [esi], OFFSET ??_7CAddInManager@@6B@
  0000c	85 c9		 test	 ecx, ecx
  0000e	74 0e		 je	 SHORT $LN2@CAddInMana

; 32   : 	{
; 33   : 		delete m_pAddInManagerImpl;

  00010	8b 01		 mov	 eax, DWORD PTR [ecx]
  00012	6a 01		 push	 1
  00014	ff 50 04	 call	 DWORD PTR [eax+4]

; 34   : 		m_pAddInManagerImpl = NULL;

  00017	c7 46 04 00 00
	00 00		 mov	 DWORD PTR [esi+4], 0
$LN2@CAddInMana:

; 35   : 	}
; 36   : }

  0001e	5e		 pop	 esi
  0001f	c3		 ret	 0
??1CAddInManager@@UAE@XZ ENDP				; CAddInManager::~CAddInManager
_TEXT	ENDS
; Function compile flags: /Ogtp
; File D:\git\src\IBK\IBK_DRFN\ProjSrc\SrcChartEx\ChartOCX\AddInManager\AddInManager.cpp
; File C:\Program Files (x86)\Microsoft Visual Studio\2019\Community\VC\Tools\MSVC\14.29.30133\atlmfc\include\afx.inl
; File D:\git\src\IBK\IBK_DRFN\ProjSrc\SrcChartEx\ChartOCX\AddInManager\AddInManager.cpp
;	COMDAT ??0CAddInManager@@QAE@PAUIChartCtrl@@PBD@Z
_TEXT	SEGMENT
$T2 = -16						; size = 4
__$EHRec$ = -12						; size = 12
_p_pIChartCtrl$ = 8					; size = 4
_p_szOcxPath$ = 12					; size = 4
??0CAddInManager@@QAE@PAUIChartCtrl@@PBD@Z PROC		; CAddInManager::CAddInManager, COMDAT
; _this$ = ecx

; 22   : {

  00000	55		 push	 ebp
  00001	8b ec		 mov	 ebp, esp
  00003	6a ff		 push	 -1
  00005	68 00 00 00 00	 push	 __ehhandler$??0CAddInManager@@QAE@PAUIChartCtrl@@PBD@Z
  0000a	64 a1 00 00 00
	00		 mov	 eax, DWORD PTR fs:0
  00010	50		 push	 eax
  00011	51		 push	 ecx
  00012	56		 push	 esi
  00013	a1 00 00 00 00	 mov	 eax, DWORD PTR ___security_cookie
  00018	33 c5		 xor	 eax, ebp
  0001a	50		 push	 eax
  0001b	8d 45 f4	 lea	 eax, DWORD PTR __$EHRec$[ebp]
  0001e	64 a3 00 00 00
	00		 mov	 DWORD PTR fs:0, eax
  00024	8b f1		 mov	 esi, ecx

; 23   : 	// (2008/1/20 - Seung-Won, Bae) for MultiLanguage.
; 24   : 	g_iMetaTable.LoadMetaTable();

  00026	b9 00 00 00 00	 mov	 ecx, OFFSET ?g_iMetaTable@@3VIMetaTable@@A ; g_iMetaTable
  0002b	c7 06 00 00 00
	00		 mov	 DWORD PTR [esi], OFFSET ??_7CAddInManager@@6B@
  00031	e8 00 00 00 00	 call	 ?LoadMetaTable@IMetaTable@@QAEXXZ ; IMetaTable::LoadMetaTable
; File C:\Program Files (x86)\Microsoft Visual Studio\2019\Community\VC\Tools\MSVC\14.29.30133\atlmfc\include\afx.inl

; 116  : 	{ return ::operator new(nSize); }

  00036	68 34 08 00 00	 push	 2100			; 00000834H
  0003b	e8 00 00 00 00	 call	 ??2@YAPAXI@Z		; operator new
  00040	83 c4 04	 add	 esp, 4
; File D:\git\src\IBK\IBK_DRFN\ProjSrc\SrcChartEx\ChartOCX\AddInManager\AddInManager.cpp

; 26   : 	m_pAddInManagerImpl = new CAddInManagerImp( p_pIChartCtrl, p_szOcxPath);

  00043	89 45 f0	 mov	 DWORD PTR $T2[ebp], eax
  00046	c7 45 fc 00 00
	00 00		 mov	 DWORD PTR __$EHRec$[ebp+8], 0
  0004d	85 c0		 test	 eax, eax
  0004f	74 24		 je	 SHORT $LN3@CAddInMana
  00051	ff 75 0c	 push	 DWORD PTR _p_szOcxPath$[ebp]
  00054	8b c8		 mov	 ecx, eax
  00056	ff 75 08	 push	 DWORD PTR _p_pIChartCtrl$[ebp]
  00059	e8 00 00 00 00	 call	 ??0CAddInManagerImp@@QAE@PAUIChartCtrl@@PBD@Z ; CAddInManagerImp::CAddInManagerImp
  0005e	89 46 04	 mov	 DWORD PTR [esi+4], eax

; 27   : }

  00061	8b c6		 mov	 eax, esi
  00063	8b 4d f4	 mov	 ecx, DWORD PTR __$EHRec$[ebp]
  00066	64 89 0d 00 00
	00 00		 mov	 DWORD PTR fs:0, ecx
  0006d	59		 pop	 ecx
  0006e	5e		 pop	 esi
  0006f	8b e5		 mov	 esp, ebp
  00071	5d		 pop	 ebp
  00072	c2 08 00	 ret	 8
$LN3@CAddInMana:

; 26   : 	m_pAddInManagerImpl = new CAddInManagerImp( p_pIChartCtrl, p_szOcxPath);

  00075	c7 46 04 00 00
	00 00		 mov	 DWORD PTR [esi+4], 0

; 27   : }

  0007c	8b c6		 mov	 eax, esi
  0007e	8b 4d f4	 mov	 ecx, DWORD PTR __$EHRec$[ebp]
  00081	64 89 0d 00 00
	00 00		 mov	 DWORD PTR fs:0, ecx
  00088	59		 pop	 ecx
  00089	5e		 pop	 esi
  0008a	8b e5		 mov	 esp, ebp
  0008c	5d		 pop	 ebp
  0008d	c2 08 00	 ret	 8
_TEXT	ENDS
;	COMDAT text$x
text$x	SEGMENT
__unwindfunclet$??0CAddInManager@@QAE@PAUIChartCtrl@@PBD@Z$0:
  00000	8b 45 f0	 mov	 eax, DWORD PTR $T2[ebp]
  00003	50		 push	 eax
  00004	e8 00 00 00 00	 call	 ??3CObject@@SGXPAX@Z	; CObject::operator delete
  00009	c3		 ret	 0
  0000a	cc		 int	 3
  0000b	cc		 int	 3
  0000c	cc		 int	 3
  0000d	cc		 int	 3
  0000e	cc		 int	 3
__ehhandler$??0CAddInManager@@QAE@PAUIChartCtrl@@PBD@Z:
  0000f	90		 npad	 1
  00010	90		 npad	 1
  00011	8b 54 24 08	 mov	 edx, DWORD PTR [esp+8]
  00015	8d 42 0c	 lea	 eax, DWORD PTR [edx+12]
  00018	8b 4a f4	 mov	 ecx, DWORD PTR [edx-12]
  0001b	33 c8		 xor	 ecx, eax
  0001d	e8 00 00 00 00	 call	 @__security_check_cookie@4
  00022	b8 00 00 00 00	 mov	 eax, OFFSET __ehfuncinfo$??0CAddInManager@@QAE@PAUIChartCtrl@@PBD@Z
  00027	e9 00 00 00 00	 jmp	 ___CxxFrameHandler3
text$x	ENDS
??0CAddInManager@@QAE@PAUIChartCtrl@@PBD@Z ENDP		; CAddInManager::CAddInManager
; Function compile flags: /Ogtp
; File C:\Program Files (x86)\Microsoft Visual Studio\2019\Community\VC\Tools\MSVC\14.29.30133\atlmfc\include\afx.inl
;	COMDAT ?Dump@CObject@@UBEXAAVCDumpContext@@@Z
_TEXT	SEGMENT
___formal$ = 8						; size = 4
?Dump@CObject@@UBEXAAVCDumpContext@@@Z PROC		; CObject::Dump, COMDAT
; _this$ = ecx

; 122  : 	{ /* no dumping in release builds */ }

  00000	c2 04 00	 ret	 4
?Dump@CObject@@UBEXAAVCDumpContext@@@Z ENDP		; CObject::Dump
_TEXT	ENDS
; Function compile flags: /Ogtp
; File C:\Program Files (x86)\Microsoft Visual Studio\2019\Community\VC\Tools\MSVC\14.29.30133\atlmfc\include\afx.inl
;	COMDAT ?AssertValid@CObject@@UBEXXZ
_TEXT	SEGMENT
?AssertValid@CObject@@UBEXXZ PROC			; CObject::AssertValid, COMDAT
; _this$ = ecx

; 120  : 	{ /* no asserts in release builds */ }

  00000	c2 00 00	 ret	 0
?AssertValid@CObject@@UBEXXZ ENDP			; CObject::AssertValid
_TEXT	ENDS
; Function compile flags: /Ogtp
; File C:\Program Files (x86)\Microsoft Visual Studio\2019\Community\VC\Tools\MSVC\14.29.30133\atlmfc\include\afx.inl
;	COMDAT ?Serialize@CObject@@UAEXAAVCArchive@@@Z
_TEXT	SEGMENT
___formal$ = 8						; size = 4
?Serialize@CObject@@UAEXAAVCArchive@@@Z PROC		; CObject::Serialize, COMDAT
; _this$ = ecx

; 106  : 	{ /* CObject does not serialize anything by default */ }

  00000	c2 04 00	 ret	 4
?Serialize@CObject@@UAEXAAVCArchive@@@Z ENDP		; CObject::Serialize
_TEXT	ENDS
; Function compile flags: /Ogtp
; File C:\Program Files (x86)\Microsoft Visual Studio\2019\Community\VC\Tools\MSVC\14.29.30133\atlmfc\include\afx.inl
;	COMDAT ??3CObject@@SGXPAX@Z
_TEXT	SEGMENT
_p$ = 8							; size = 4
??3CObject@@SGXPAX@Z PROC				; CObject::operator delete, COMDAT

; 112  : 	{ ::operator delete(p); }

  00000	55		 push	 ebp
  00001	8b ec		 mov	 ebp, esp
  00003	ff 75 08	 push	 DWORD PTR _p$[ebp]
  00006	e8 00 00 00 00	 call	 ??3@YAXPAX@Z		; operator delete
  0000b	83 c4 04	 add	 esp, 4
  0000e	5d		 pop	 ebp
  0000f	c2 04 00	 ret	 4
??3CObject@@SGXPAX@Z ENDP				; CObject::operator delete
_TEXT	ENDS
; Function compile flags: /Ogtp
; File C:\Program Files (x86)\Microsoft Visual Studio\2019\Community\VC\Tools\MSVC\14.29.30133\atlmfc\include\afx.inl
;	COMDAT ??1CObject@@UAE@XZ
_TEXT	SEGMENT
??1CObject@@UAE@XZ PROC					; CObject::~CObject, COMDAT
; _this$ = ecx

; 104  : 	{ }

  00000	c2 00 00	 ret	 0
??1CObject@@UAE@XZ ENDP					; CObject::~CObject
_TEXT	ENDS
; Function compile flags: /Ogtp
; File D:\git\src\IBK\IBK_DRFN\ProjSrc\SrcChartEx\ChartOCX\AddInManager\AddInManager.cpp
;	COMDAT ?__global_array_delete@@YAXPAXI@Z
_TEXT	SEGMENT
_p$ = 8							; size = 4
_sz$ = 12						; size = 4
?__global_array_delete@@YAXPAXI@Z PROC			; __global_array_delete, COMDAT

  00000	e9 00 00 00 00	 jmp	 ??_V@YAXPAXI@Z		; operator delete[]
?__global_array_delete@@YAXPAXI@Z ENDP			; __global_array_delete
_TEXT	ENDS
; Function compile flags: /Ogtp
; File D:\git\src\IBK\IBK_DRFN\ProjSrc\SrcChartEx\ChartOCX\AddInManager\AddInManager.cpp
;	COMDAT ?__global_array_delete@@YAXPAX@Z
_TEXT	SEGMENT
_p$ = 8							; size = 4
?__global_array_delete@@YAXPAX@Z PROC			; __global_array_delete, COMDAT

  00000	e9 00 00 00 00	 jmp	 ??_V@YAXPAX@Z		; operator delete[]
?__global_array_delete@@YAXPAX@Z ENDP			; __global_array_delete
_TEXT	ENDS
; Function compile flags: /Ogtp
; File D:\git\src\IBK\IBK_DRFN\ProjSrc\SrcChartEx\ChartOCX\AddInManager\AddInManager.cpp
;	COMDAT ?__global_delete@@YAXPAXI@Z
_TEXT	SEGMENT
_p$ = 8							; size = 4
_sz$ = 12						; size = 4
?__global_delete@@YAXPAXI@Z PROC			; __global_delete, COMDAT

  00000	e9 00 00 00 00	 jmp	 ??3@YAXPAXI@Z		; operator delete
?__global_delete@@YAXPAXI@Z ENDP			; __global_delete
_TEXT	ENDS
; Function compile flags: /Ogtp
; File D:\git\src\IBK\IBK_DRFN\ProjSrc\SrcChartEx\ChartOCX\AddInManager\AddInManager.cpp
;	COMDAT ?__empty_global_delete@@YAXPAXI@Z
_TEXT	SEGMENT
___formal$ = 8						; size = 4
___formal$ = 12						; size = 4
?__empty_global_delete@@YAXPAXI@Z PROC			; __empty_global_delete, COMDAT

  00000	c2 00 00	 ret	 0
?__empty_global_delete@@YAXPAXI@Z ENDP			; __empty_global_delete
_TEXT	ENDS
; Function compile flags: /Ogtp
; File D:\git\src\IBK\IBK_DRFN\ProjSrc\SrcChartEx\ChartOCX\AddInManager\AddInManager.cpp
;	COMDAT ?__global_delete@@YAXPAX@Z
_TEXT	SEGMENT
_p$ = 8							; size = 4
?__global_delete@@YAXPAX@Z PROC				; __global_delete, COMDAT

  00000	e9 00 00 00 00	 jmp	 ??3@YAXPAX@Z		; operator delete
?__global_delete@@YAXPAX@Z ENDP				; __global_delete
_TEXT	ENDS
; Function compile flags: /Ogtp
; File D:\git\src\IBK\IBK_DRFN\ProjSrc\SrcChartEx\ChartOCX\AddInManager\AddInManager.cpp
;	COMDAT ?__empty_global_delete@@YAXPAX@Z
_TEXT	SEGMENT
___formal$ = 8						; size = 4
?__empty_global_delete@@YAXPAX@Z PROC			; __empty_global_delete, COMDAT

  00000	c2 00 00	 ret	 0
?__empty_global_delete@@YAXPAX@Z ENDP			; __empty_global_delete
_TEXT	ENDS
END
