; Listing generated by Microsoft (R) Optimizing Compiler Version 19.29.30145.0 

	TITLE	D:\git\src\IBK\IBK_DRFN\#DRfn-CS\_Obj\AddInManager\IAddInManagerImp.obj
	.686P
	.XMM
	include listing.inc
	.model	flat

INCLUDELIB MSVCRT
INCLUDELIB OLDNAMES

PUBLIC	?__empty_global_delete@@YAXPAX@Z		; __empty_global_delete
PUBLIC	?__empty_global_delete@@YAXPAXI@Z		; __empty_global_delete
PUBLIC	??3CObject@@SGXPAX@Z				; CObject::operator delete
PUBLIC	?GetIChartOCX000000@CAddInManagerImp@@MAEPAUIChartOCX000000@@XZ ; CAddInManagerImp::GetIChartOCX000000
PUBLIC	?GetIChartOCX003531@CAddInManagerImp@@MAEPAUIChartOCX003531@@XZ ; CAddInManagerImp::GetIChartOCX003531
PUBLIC	?GetIChartOCX003721@CAddInManagerImp@@MAEPAUIChartOCX003721@@XZ ; CAddInManagerImp::GetIChartOCX003721
PUBLIC	?GetIChartOCX423611@CAddInManagerImp@@MAEPAUIChartOCX423611@@XZ ; CAddInManagerImp::GetIChartOCX423611
PUBLIC	?GetIChartOCX133721@CAddInManagerImp@@MAEPAUIChartOCX133721@@XZ ; CAddInManagerImp::GetIChartOCX133721
PUBLIC	?GetIChartOCX333721@CAddInManagerImp@@MAEPAUIChartOCX333721@@XZ ; CAddInManagerImp::GetIChartOCX333721
PUBLIC	?GetIChartOCX363721@CAddInManagerImp@@MAEPAUIChartOCX363721@@XZ ; CAddInManagerImp::GetIChartOCX363721
PUBLIC	?GetIChartOCX503721@CAddInManagerImp@@MAEPAUIChartOCX503721@@XZ ; CAddInManagerImp::GetIChartOCX503721
PUBLIC	?GetCIWAddInDll000000@CAddInManagerImp@@IAEPAUIAddInDll@@PBDIPAUHINSTANCE__@@@Z ; CAddInManagerImp::GetCIWAddInDll000000
PUBLIC	?GetCIWAddInDll003531@CAddInManagerImp@@IAEPAUIAddInDll@@PBDIPAUHINSTANCE__@@@Z ; CAddInManagerImp::GetCIWAddInDll003531
PUBLIC	?GetCIWAddInDll003721@CAddInManagerImp@@IAEPAUIAddInDll@@PBDIPAUHINSTANCE__@@@Z ; CAddInManagerImp::GetCIWAddInDll003721
PUBLIC	?GetCIWAddInDll423611@CAddInManagerImp@@IAEPAUIAddInDll@@PBDIPAUHINSTANCE__@@@Z ; CAddInManagerImp::GetCIWAddInDll423611
PUBLIC	?GetCIWAddInDll133721@CAddInManagerImp@@IAEPAUIAddInDll@@PBDIPAUHINSTANCE__@@@Z ; CAddInManagerImp::GetCIWAddInDll133721
PUBLIC	?GetCIWAddInDll333721@CAddInManagerImp@@IAEPAUIAddInDll@@PBDIPAUHINSTANCE__@@@Z ; CAddInManagerImp::GetCIWAddInDll333721
PUBLIC	?GetCIWAddInDll363721@CAddInManagerImp@@IAEPAUIAddInDll@@PBDIPAUHINSTANCE__@@@Z ; CAddInManagerImp::GetCIWAddInDll363721
PUBLIC	?GetCIWAddInDll503721@CAddInManagerImp@@IAEPAUIAddInDll@@PBDIPAUHINSTANCE__@@@Z ; CAddInManagerImp::GetCIWAddInDll503721
PUBLIC	?GetIChartOCX133101@CAddInManagerImp@@MAEPAUIChartOCX133101@@XZ ; CAddInManagerImp::GetIChartOCX133101
PUBLIC	?GetIChartOCX134221@CAddInManagerImp@@MAEPAUIChartOCX134221@@XZ ; CAddInManagerImp::GetIChartOCX134221
PUBLIC	?GetIChartOCX134661@CAddInManagerImp@@MAEPAUIChartOCX134661@@XZ ; CAddInManagerImp::GetIChartOCX134661
PUBLIC	?GetIChartOCX135914@CAddInManagerImp@@MAEPAUIChartOCX135914@@XZ ; CAddInManagerImp::GetIChartOCX135914
PUBLIC	?GetIChartOCX139092@CAddInManagerImp@@MAEPAUIChartOCX139092@@XZ ; CAddInManagerImp::GetIChartOCX139092
PUBLIC	?GetIChartOCX133691@CAddInManagerImp@@MAEPAUIChartOCX133691@@XZ ; CAddInManagerImp::GetIChartOCX133691
PUBLIC	?GetIChartOCX381931@CAddInManagerImp@@MAEPAUIChartOCX381931@@XZ ; CAddInManagerImp::GetIChartOCX381931
PUBLIC	?GetIChartOCX339092@CAddInManagerImp@@MAEPAUIChartOCX339092@@XZ ; CAddInManagerImp::GetIChartOCX339092
PUBLIC	?GetIChartOCX509092@CAddInManagerImp@@MAEPAUIChartOCX509092@@XZ ; CAddInManagerImp::GetIChartOCX509092
PUBLIC	?GetCIWAddInDll133101@CAddInManagerImp@@IAEPAUIAddInDll@@PBDIPAUHINSTANCE__@@@Z ; CAddInManagerImp::GetCIWAddInDll133101
PUBLIC	?GetCIWAddInDll134221@CAddInManagerImp@@IAEPAUIAddInDll@@PBDIPAUHINSTANCE__@@@Z ; CAddInManagerImp::GetCIWAddInDll134221
PUBLIC	?GetCIWAddInDll134661@CAddInManagerImp@@IAEPAUIAddInDll@@PBDIPAUHINSTANCE__@@@Z ; CAddInManagerImp::GetCIWAddInDll134661
PUBLIC	?GetCIWAddInDll135914@CAddInManagerImp@@IAEPAUIAddInDll@@PBDIPAUHINSTANCE__@@@Z ; CAddInManagerImp::GetCIWAddInDll135914
PUBLIC	?GetCIWAddInDll139092@CAddInManagerImp@@IAEPAUIAddInDll@@PBDIPAUHINSTANCE__@@@Z ; CAddInManagerImp::GetCIWAddInDll139092
PUBLIC	?GetCIWAddInDll133691@CAddInManagerImp@@IAEPAUIAddInDll@@PBDIPAUHINSTANCE__@@@Z ; CAddInManagerImp::GetCIWAddInDll133691
PUBLIC	?GetCIWAddInDll381931@CAddInManagerImp@@IAEPAUIAddInDll@@PBDIPAUHINSTANCE__@@@Z ; CAddInManagerImp::GetCIWAddInDll381931
PUBLIC	?GetCIWAddInDll339092@CAddInManagerImp@@IAEPAUIAddInDll@@PBDIPAUHINSTANCE__@@@Z ; CAddInManagerImp::GetCIWAddInDll339092
PUBLIC	?GetCIWAddInDll509092@CAddInManagerImp@@IAEPAUIAddInDll@@PBDIPAUHINSTANCE__@@@Z ; CAddInManagerImp::GetCIWAddInDll509092
EXTRN	??2@YAPAXI@Z:PROC				; operator new
EXTRN	??3@YAXPAX@Z:PROC				; operator delete
EXTRN	?CreateObject@CIWAddInDll000000@@SAPAUIAddInDll@@PBDPAUHINSTANCE__@@PAUIChartCtrl@@@Z:PROC ; CIWAddInDll000000::CreateObject
EXTRN	?CreateObject@CIWChartOCX000000@@SAPAUIChartOCX000000@@PAUIChartCtrl@@PAVCAddInManagerImp@@@Z:PROC ; CIWChartOCX000000::CreateObject
EXTRN	?CreateObject@CIWAddInDll003531@@SAPAUIAddInDll@@PBDPAUHINSTANCE__@@PAUIChartCtrl@@@Z:PROC ; CIWAddInDll003531::CreateObject
EXTRN	?CreateObject@CIWChartOCX003531@@SAPAUIChartOCX003531@@PAUIChartCtrl@@PAVCAddInManagerImp@@@Z:PROC ; CIWChartOCX003531::CreateObject
EXTRN	?CreateObject@CIWAddInDll003721@@SAPAUIAddInDll@@PBDPAUHINSTANCE__@@PAUIChartCtrl@@@Z:PROC ; CIWAddInDll003721::CreateObject
EXTRN	?CreateObject@CIWChartOCX003721@@SAPAUIChartOCX003721@@PAUIChartCtrl@@PAVCAddInManagerImp@@@Z:PROC ; CIWChartOCX003721::CreateObject
EXTRN	?CreateObject@CIWAddInDll133721@@SAPAUIAddInDll@@PBDPAUHINSTANCE__@@PAUIChartCtrl@@@Z:PROC ; CIWAddInDll133721::CreateObject
EXTRN	?CreateObject@CIWChartOCX133721@@SAPAUIChartOCX133721@@PAUIChartCtrl@@PAVCAddInManagerImp@@@Z:PROC ; CIWChartOCX133721::CreateObject
EXTRN	?CreateObject@CIWAddInDll333721@@SAPAUIAddInDll@@PBDPAUHINSTANCE__@@PAUIChartCtrl@@@Z:PROC ; CIWAddInDll333721::CreateObject
EXTRN	?CreateObject@CIWChartOCX333721@@SAPAUIChartOCX333721@@PAUIChartCtrl@@PAVCAddInManagerImp@@@Z:PROC ; CIWChartOCX333721::CreateObject
EXTRN	?CreateObject@CIWAddInDll363721@@SAPAUIAddInDll@@PBDPAUHINSTANCE__@@PAUIChartCtrl@@@Z:PROC ; CIWAddInDll363721::CreateObject
EXTRN	?CreateObject@CIWChartOCX363721@@SAPAUIChartOCX363721@@PAUIChartCtrl@@PAVCAddInManagerImp@@@Z:PROC ; CIWChartOCX363721::CreateObject
EXTRN	?CreateObject@CIWAddInDll503721@@SAPAUIAddInDll@@PBDPAUHINSTANCE__@@PAUIChartCtrl@@@Z:PROC ; CIWAddInDll503721::CreateObject
EXTRN	?CreateObject@CIWChartOCX503721@@SAPAUIChartOCX503721@@PAUIChartCtrl@@PAVCAddInManagerImp@@@Z:PROC ; CIWChartOCX503721::CreateObject
EXTRN	?CreateObject@CIWAddInDll423611@@SAPAUIAddInDll@@PBDPAUHINSTANCE__@@PAUIChartCtrl@@@Z:PROC ; CIWAddInDll423611::CreateObject
EXTRN	??0CIWChartOCX423611@@QAE@PAUIChartCtrl@@PAVCAddInManagerImp@@@Z:PROC ; CIWChartOCX423611::CIWChartOCX423611
EXTRN	?CreateObject@CIWAddInDll133101@@SAPAUIAddInDll@@PBDPAUHINSTANCE__@@PAUIChartCtrl@@@Z:PROC ; CIWAddInDll133101::CreateObject
EXTRN	?CreateObject@CIWChartOCX133101@@SAPAUIChartOCX133101@@PAUIChartCtrl@@PAVCAddInManagerImp@@@Z:PROC ; CIWChartOCX133101::CreateObject
EXTRN	?CreateObject@CIWAddInDll134221@@SAPAUIAddInDll@@PBDPAUHINSTANCE__@@PAUIChartCtrl@@@Z:PROC ; CIWAddInDll134221::CreateObject
EXTRN	?CreateObject@CIWChartOCX134221@@SAPAUIChartOCX134221@@PAUIChartCtrl@@PAVCAddInManagerImp@@@Z:PROC ; CIWChartOCX134221::CreateObject
EXTRN	?CreateObject@CIWAddInDll134661@@SAPAUIAddInDll@@PBDPAUHINSTANCE__@@PAUIChartCtrl@@@Z:PROC ; CIWAddInDll134661::CreateObject
EXTRN	??0CIWChartOCX134661@@QAE@PAUIChartCtrl@@PAVCAddInManagerImp@@@Z:PROC ; CIWChartOCX134661::CIWChartOCX134661
EXTRN	?CreateObject@CIWAddInDll135914@@SAPAUIAddInDll@@PBDPAUHINSTANCE__@@PAUIChartCtrl@@@Z:PROC ; CIWAddInDll135914::CreateObject
EXTRN	?CreateObject@CIWChartOCX135914@@SAPAUIChartOCX135914@@PAUIChartCtrl@@PAVCAddInManagerImp@@@Z:PROC ; CIWChartOCX135914::CreateObject
EXTRN	?CreateObject@CIWAddInDll139092@@SAPAUIAddInDll@@PBDPAUHINSTANCE__@@PAUIChartCtrl@@@Z:PROC ; CIWAddInDll139092::CreateObject
EXTRN	?CreateObject@CIWChartOCX139092@@SAPAUIChartOCX139092@@PAUIChartCtrl@@PAVCAddInManagerImp@@@Z:PROC ; CIWChartOCX139092::CreateObject
EXTRN	?CreateObject@CIWAddInDll133691@@SAPAUIAddInDll@@PBDPAUHINSTANCE__@@PAUIChartCtrl@@@Z:PROC ; CIWAddInDll133691::CreateObject
EXTRN	?CreateObject@CIWChartOCX133691@@SAPAUIChartOCX133691@@PAUIChartCtrl@@PAVCAddInManagerImp@@@Z:PROC ; CIWChartOCX133691::CreateObject
EXTRN	?CreateObject@CIWAddInDll381931@@SAPAUIAddInDll@@PBDPAUHINSTANCE__@@PAUIChartCtrl@@@Z:PROC ; CIWAddInDll381931::CreateObject
EXTRN	?CreateObject@CIWChartOCX381931@@SAPAUIChartOCX381931@@PAUIChartCtrl@@PAVCAddInManagerImp@@@Z:PROC ; CIWChartOCX381931::CreateObject
EXTRN	?CreateObject@CIWAddInDll339092@@SAPAUIAddInDll@@PBDPAUHINSTANCE__@@PAUIChartCtrl@@@Z:PROC ; CIWAddInDll339092::CreateObject
EXTRN	?CreateObject@CIWChartOCX339092@@SAPAUIChartOCX339092@@PAUIChartCtrl@@PAVCAddInManagerImp@@@Z:PROC ; CIWChartOCX339092::CreateObject
EXTRN	?CreateObject@CIWAddInDll509092@@SAPAUIAddInDll@@PBDPAUHINSTANCE__@@PAUIChartCtrl@@@Z:PROC ; CIWAddInDll509092::CreateObject
EXTRN	?CreateObject@CIWChartOCX509092@@SAPAUIChartOCX509092@@PAUIChartCtrl@@PAVCAddInManagerImp@@@Z:PROC ; CIWChartOCX509092::CreateObject
EXTRN	@__security_check_cookie@4:PROC
EXTRN	___CxxFrameHandler3:PROC
EXTRN	___security_cookie:DWORD
;	COMDAT xdata$x
xdata$x	SEGMENT
__unwindtable$?GetIChartOCX134661@CAddInManagerImp@@MAEPAUIChartOCX134661@@XZ DD 0ffffffffH
	DD	FLAT:__unwindfunclet$?GetIChartOCX134661@CAddInManagerImp@@MAEPAUIChartOCX134661@@XZ$0
__ehfuncinfo$?GetIChartOCX134661@CAddInManagerImp@@MAEPAUIChartOCX134661@@XZ DD 019930522H
	DD	01H
	DD	FLAT:__unwindtable$?GetIChartOCX134661@CAddInManagerImp@@MAEPAUIChartOCX134661@@XZ
	DD	2 DUP(00H)
	DD	2 DUP(00H)
	DD	00H
	DD	01H
xdata$x	ENDS
;	COMDAT xdata$x
xdata$x	SEGMENT
__unwindtable$?GetIChartOCX423611@CAddInManagerImp@@MAEPAUIChartOCX423611@@XZ DD 0ffffffffH
	DD	FLAT:__unwindfunclet$?GetIChartOCX423611@CAddInManagerImp@@MAEPAUIChartOCX423611@@XZ$0
__ehfuncinfo$?GetIChartOCX423611@CAddInManagerImp@@MAEPAUIChartOCX423611@@XZ DD 019930522H
	DD	01H
	DD	FLAT:__unwindtable$?GetIChartOCX423611@CAddInManagerImp@@MAEPAUIChartOCX423611@@XZ
	DD	2 DUP(00H)
	DD	2 DUP(00H)
	DD	00H
	DD	01H
xdata$x	ENDS
; Function compile flags: /Ogtp
; File D:\git\src\IBK\IBK_DRFN\ProjSrc\SrcChartEx\ChartOCX\AddInManager\IAddInManagerImp.cpp
;	COMDAT ?GetCIWAddInDll509092@CAddInManagerImp@@IAEPAUIAddInDll@@PBDIPAUHINSTANCE__@@@Z
_TEXT	SEGMENT
_p_szAddInModule$ = 8					; size = 4
_p_uAddInVersion$ = 12					; size = 4
_p_hAddIn$ = 16						; size = 4
?GetCIWAddInDll509092@CAddInManagerImp@@IAEPAUIAddInDll@@PBDIPAUHINSTANCE__@@@Z PROC ; CAddInManagerImp::GetCIWAddInDll509092, COMDAT
; _this$ = ecx

; 576  : {

  00000	55		 push	 ebp
  00001	8b ec		 mov	 ebp, esp

; 577  : 	if( CIWAddInDll509092::IVERSION == p_uAddInVersion)

  00003	81 7d 0c a4 c4
	07 00		 cmp	 DWORD PTR _p_uAddInVersion$[ebp], 509092 ; 0007c4a4H
  0000a	75 15		 jne	 SHORT $LN2@GetCIWAddI

; 578  : 	{
; 579  : #ifdef _DEBUG
; 580  : 		if( !m_bVCheck509092)
; 581  : 		{
; 582  : 			// (2006/6/22 - Seung-Won, Bae) Check DLL Name
; 583  : 			if( stricmp( p_szAddInModule, "ChartSTIndexAddIn.dll"))
; 584  : 				AfxMessageBox( "I509092 Interface was used in [" + CString( p_szAddInModule) + "] !");
; 585  : 			// (2006/8/7 - Seung-Won, Bae) Check Site Number
; 586  : 			else if( m_pIChartCtrl->GetAddInSiteID() != 13)
; 587  : 				AfxMessageBox( "I133611 Interface was used in other Site!\r\nIt is only for Koscom!");
; 588  : 			m_bVCheck509092 = TRUE;
; 589  : 		}
; 590  : #endif
; 591  : 		return CIWAddInDll509092::CreateObject( p_szAddInModule, p_hAddIn, m_pIChartCtrl);

  0000c	ff 71 0c	 push	 DWORD PTR [ecx+12]
  0000f	ff 75 10	 push	 DWORD PTR _p_hAddIn$[ebp]
  00012	ff 75 08	 push	 DWORD PTR _p_szAddInModule$[ebp]
  00015	e8 00 00 00 00	 call	 ?CreateObject@CIWAddInDll509092@@SAPAUIAddInDll@@PBDPAUHINSTANCE__@@PAUIChartCtrl@@@Z ; CIWAddInDll509092::CreateObject
  0001a	83 c4 0c	 add	 esp, 12			; 0000000cH

; 594  : }

  0001d	5d		 pop	 ebp
  0001e	c2 0c 00	 ret	 12			; 0000000cH
$LN2@GetCIWAddI:

; 592  : 	}
; 593  : 	return NULL;

  00021	33 c0		 xor	 eax, eax

; 594  : }

  00023	5d		 pop	 ebp
  00024	c2 0c 00	 ret	 12			; 0000000cH
?GetCIWAddInDll509092@CAddInManagerImp@@IAEPAUIAddInDll@@PBDIPAUHINSTANCE__@@@Z ENDP ; CAddInManagerImp::GetCIWAddInDll509092
_TEXT	ENDS
; Function compile flags: /Ogtp
; File D:\git\src\IBK\IBK_DRFN\ProjSrc\SrcChartEx\ChartOCX\AddInManager\IAddInManagerImp.cpp
;	COMDAT ?GetCIWAddInDll339092@CAddInManagerImp@@IAEPAUIAddInDll@@PBDIPAUHINSTANCE__@@@Z
_TEXT	SEGMENT
_p_szAddInModule$ = 8					; size = 4
_p_uAddInVersion$ = 12					; size = 4
_p_hAddIn$ = 16						; size = 4
?GetCIWAddInDll339092@CAddInManagerImp@@IAEPAUIAddInDll@@PBDIPAUHINSTANCE__@@@Z PROC ; CAddInManagerImp::GetCIWAddInDll339092, COMDAT
; _this$ = ecx

; 542  : {

  00000	55		 push	 ebp
  00001	8b ec		 mov	 ebp, esp

; 543  : 	if( CIWAddInDll339092::IVERSION == p_uAddInVersion)

  00003	81 7d 0c 94 2c
	05 00		 cmp	 DWORD PTR _p_uAddInVersion$[ebp], 339092 ; 00052c94H
  0000a	75 15		 jne	 SHORT $LN2@GetCIWAddI

; 544  : 	{
; 545  : #ifdef _DEBUG
; 546  : 		if( !m_bVCheck339092)
; 547  : 		{
; 548  : 			// (2006/6/22 - Seung-Won, Bae) Check DLL Name
; 549  : 			if( stricmp( p_szAddInModule, "ChartSTIndexAddIn.dll"))
; 550  : 				AfxMessageBox( "I339092 Interface was used in [" + CString( p_szAddInModule) + "] !");
; 551  : 			// (2006/8/7 - Seung-Won, Bae) Check Site Number
; 552  : 			else if( m_pIChartCtrl->GetAddInSiteID() != 13)
; 553  : 				AfxMessageBox( "I133611 Interface was used in other Site!\r\nIt is only for Koscom!");
; 554  : 			m_bVCheck339092 = TRUE;
; 555  : 		}
; 556  : #endif
; 557  : 		return CIWAddInDll339092::CreateObject( p_szAddInModule, p_hAddIn, m_pIChartCtrl);

  0000c	ff 71 0c	 push	 DWORD PTR [ecx+12]
  0000f	ff 75 10	 push	 DWORD PTR _p_hAddIn$[ebp]
  00012	ff 75 08	 push	 DWORD PTR _p_szAddInModule$[ebp]
  00015	e8 00 00 00 00	 call	 ?CreateObject@CIWAddInDll339092@@SAPAUIAddInDll@@PBDPAUHINSTANCE__@@PAUIChartCtrl@@@Z ; CIWAddInDll339092::CreateObject
  0001a	83 c4 0c	 add	 esp, 12			; 0000000cH

; 560  : }

  0001d	5d		 pop	 ebp
  0001e	c2 0c 00	 ret	 12			; 0000000cH
$LN2@GetCIWAddI:

; 558  : 	}
; 559  : 	return NULL;

  00021	33 c0		 xor	 eax, eax

; 560  : }

  00023	5d		 pop	 ebp
  00024	c2 0c 00	 ret	 12			; 0000000cH
?GetCIWAddInDll339092@CAddInManagerImp@@IAEPAUIAddInDll@@PBDIPAUHINSTANCE__@@@Z ENDP ; CAddInManagerImp::GetCIWAddInDll339092
_TEXT	ENDS
; Function compile flags: /Ogtp
; File D:\git\src\IBK\IBK_DRFN\ProjSrc\SrcChartEx\ChartOCX\AddInManager\IAddInManagerImp.cpp
;	COMDAT ?GetCIWAddInDll381931@CAddInManagerImp@@IAEPAUIAddInDll@@PBDIPAUHINSTANCE__@@@Z
_TEXT	SEGMENT
_p_szAddInModule$ = 8					; size = 4
_p_uAddInVersion$ = 12					; size = 4
_p_hAddIn$ = 16						; size = 4
?GetCIWAddInDll381931@CAddInManagerImp@@IAEPAUIAddInDll@@PBDIPAUHINSTANCE__@@@Z PROC ; CAddInManagerImp::GetCIWAddInDll381931, COMDAT
; _this$ = ecx

; 508  : {

  00000	55		 push	 ebp
  00001	8b ec		 mov	 ebp, esp

; 509  : 	if( CIWAddInDll381931::IVERSION == p_uAddInVersion)

  00003	81 7d 0c eb d3
	05 00		 cmp	 DWORD PTR _p_uAddInVersion$[ebp], 381931 ; 0005d3ebH
  0000a	75 15		 jne	 SHORT $LN2@GetCIWAddI

; 510  : 	{
; 511  : #ifdef _DEBUG
; 512  : 		if( !m_bVCheck381931)
; 513  : 		{
; 514  : 			// (2006/6/22 - Seung-Won, Bae) Check DLL Name
; 515  : 			if( stricmp( p_szAddInModule, "ChartPeriodSummaryAddIn.dll"))
; 516  : 				AfxMessageBox( "I381931 Interface was used in [" + CString( p_szAddInModule) + "] !");
; 517  : 			// (2006/8/7 - Seung-Won, Bae) Check Site Number
; 518  : 			else if( m_pIChartCtrl->GetAddInSiteID() != 13)
; 519  : 				AfxMessageBox( "I381931 Interface was used in other Site!\r\nIt is only for Koscom!");
; 520  : 			m_bVCheck381931 = TRUE;
; 521  : 		}
; 522  : #endif
; 523  : 		return CIWAddInDll381931::CreateObject( p_szAddInModule, p_hAddIn, m_pIChartCtrl);

  0000c	ff 71 0c	 push	 DWORD PTR [ecx+12]
  0000f	ff 75 10	 push	 DWORD PTR _p_hAddIn$[ebp]
  00012	ff 75 08	 push	 DWORD PTR _p_szAddInModule$[ebp]
  00015	e8 00 00 00 00	 call	 ?CreateObject@CIWAddInDll381931@@SAPAUIAddInDll@@PBDPAUHINSTANCE__@@PAUIChartCtrl@@@Z ; CIWAddInDll381931::CreateObject
  0001a	83 c4 0c	 add	 esp, 12			; 0000000cH

; 526  : }

  0001d	5d		 pop	 ebp
  0001e	c2 0c 00	 ret	 12			; 0000000cH
$LN2@GetCIWAddI:

; 524  : 	}
; 525  : 	return NULL;

  00021	33 c0		 xor	 eax, eax

; 526  : }

  00023	5d		 pop	 ebp
  00024	c2 0c 00	 ret	 12			; 0000000cH
?GetCIWAddInDll381931@CAddInManagerImp@@IAEPAUIAddInDll@@PBDIPAUHINSTANCE__@@@Z ENDP ; CAddInManagerImp::GetCIWAddInDll381931
_TEXT	ENDS
; Function compile flags: /Ogtp
; File D:\git\src\IBK\IBK_DRFN\ProjSrc\SrcChartEx\ChartOCX\AddInManager\IAddInManagerImp.cpp
;	COMDAT ?GetCIWAddInDll133691@CAddInManagerImp@@IAEPAUIAddInDll@@PBDIPAUHINSTANCE__@@@Z
_TEXT	SEGMENT
_p_szAddInModule$ = 8					; size = 4
_p_uAddInVersion$ = 12					; size = 4
_p_hAddIn$ = 16						; size = 4
?GetCIWAddInDll133691@CAddInManagerImp@@IAEPAUIAddInDll@@PBDIPAUHINSTANCE__@@@Z PROC ; CAddInManagerImp::GetCIWAddInDll133691, COMDAT
; _this$ = ecx

; 474  : {

  00000	55		 push	 ebp
  00001	8b ec		 mov	 ebp, esp

; 475  : 	if( CIWAddInDll133691::IVERSION == p_uAddInVersion)

  00003	81 7d 0c 3b 0a
	02 00		 cmp	 DWORD PTR _p_uAddInVersion$[ebp], 133691 ; 00020a3bH
  0000a	75 15		 jne	 SHORT $LN2@GetCIWAddI

; 476  : 	{
; 477  : #ifdef _DEBUG
; 478  : 		if( !m_bVCheck133691)
; 479  : 		{
; 480  : 			// (2006/6/22 - Seung-Won, Bae) Check DLL Name
; 481  : 			if( stricmp( p_szAddInModule, "ChartPeriodSummaryAddIn.dll"))
; 482  : 				AfxMessageBox( "I133691 Interface was used in [" + CString( p_szAddInModule) + "] !");
; 483  : 			// (2006/8/7 - Seung-Won, Bae) Check Site Number
; 484  : 			else if( m_pIChartCtrl->GetAddInSiteID() != 13)
; 485  : 				AfxMessageBox( "I133691 Interface was used in other Site!\r\nIt is only for Koscom!");
; 486  : 			m_bVCheck133691 = TRUE;
; 487  : 		}
; 488  : #endif
; 489  : 		return CIWAddInDll133691::CreateObject( p_szAddInModule, p_hAddIn, m_pIChartCtrl);

  0000c	ff 71 0c	 push	 DWORD PTR [ecx+12]
  0000f	ff 75 10	 push	 DWORD PTR _p_hAddIn$[ebp]
  00012	ff 75 08	 push	 DWORD PTR _p_szAddInModule$[ebp]
  00015	e8 00 00 00 00	 call	 ?CreateObject@CIWAddInDll133691@@SAPAUIAddInDll@@PBDPAUHINSTANCE__@@PAUIChartCtrl@@@Z ; CIWAddInDll133691::CreateObject
  0001a	83 c4 0c	 add	 esp, 12			; 0000000cH

; 492  : }

  0001d	5d		 pop	 ebp
  0001e	c2 0c 00	 ret	 12			; 0000000cH
$LN2@GetCIWAddI:

; 490  : 	}
; 491  : 	return NULL;

  00021	33 c0		 xor	 eax, eax

; 492  : }

  00023	5d		 pop	 ebp
  00024	c2 0c 00	 ret	 12			; 0000000cH
?GetCIWAddInDll133691@CAddInManagerImp@@IAEPAUIAddInDll@@PBDIPAUHINSTANCE__@@@Z ENDP ; CAddInManagerImp::GetCIWAddInDll133691
_TEXT	ENDS
; Function compile flags: /Ogtp
; File D:\git\src\IBK\IBK_DRFN\ProjSrc\SrcChartEx\ChartOCX\AddInManager\IAddInManagerImp.cpp
;	COMDAT ?GetCIWAddInDll139092@CAddInManagerImp@@IAEPAUIAddInDll@@PBDIPAUHINSTANCE__@@@Z
_TEXT	SEGMENT
_p_szAddInModule$ = 8					; size = 4
_p_uAddInVersion$ = 12					; size = 4
_p_hAddIn$ = 16						; size = 4
?GetCIWAddInDll139092@CAddInManagerImp@@IAEPAUIAddInDll@@PBDIPAUHINSTANCE__@@@Z PROC ; CAddInManagerImp::GetCIWAddInDll139092, COMDAT
; _this$ = ecx

; 440  : {

  00000	55		 push	 ebp
  00001	8b ec		 mov	 ebp, esp

; 441  : 	if( CIWAddInDll139092::IVERSION == p_uAddInVersion)

  00003	81 7d 0c 54 1f
	02 00		 cmp	 DWORD PTR _p_uAddInVersion$[ebp], 139092 ; 00021f54H
  0000a	75 15		 jne	 SHORT $LN2@GetCIWAddI

; 442  : 	{
; 443  : #ifdef _DEBUG
; 444  : 		if( !m_bVCheck139092)
; 445  : 		{
; 446  : 			// (2006/6/22 - Seung-Won, Bae) Check DLL Name
; 447  : 			if( stricmp( p_szAddInModule, "ChartSTIndexAddIn.dll"))
; 448  : 				AfxMessageBox( "I139092 Interface was used in [" + CString( p_szAddInModule) + "] !");
; 449  : 			// (2006/8/7 - Seung-Won, Bae) Check Site Number
; 450  : 			else if( m_pIChartCtrl->GetAddInSiteID() != 13)
; 451  : 				AfxMessageBox( "I133611 Interface was used in other Site!\r\nIt is only for Koscom!");
; 452  : 			m_bVCheck139092 = TRUE;
; 453  : 		}
; 454  : #endif
; 455  : 		return CIWAddInDll139092::CreateObject( p_szAddInModule, p_hAddIn, m_pIChartCtrl);

  0000c	ff 71 0c	 push	 DWORD PTR [ecx+12]
  0000f	ff 75 10	 push	 DWORD PTR _p_hAddIn$[ebp]
  00012	ff 75 08	 push	 DWORD PTR _p_szAddInModule$[ebp]
  00015	e8 00 00 00 00	 call	 ?CreateObject@CIWAddInDll139092@@SAPAUIAddInDll@@PBDPAUHINSTANCE__@@PAUIChartCtrl@@@Z ; CIWAddInDll139092::CreateObject
  0001a	83 c4 0c	 add	 esp, 12			; 0000000cH

; 458  : }

  0001d	5d		 pop	 ebp
  0001e	c2 0c 00	 ret	 12			; 0000000cH
$LN2@GetCIWAddI:

; 456  : 	}
; 457  : 	return NULL;

  00021	33 c0		 xor	 eax, eax

; 458  : }

  00023	5d		 pop	 ebp
  00024	c2 0c 00	 ret	 12			; 0000000cH
?GetCIWAddInDll139092@CAddInManagerImp@@IAEPAUIAddInDll@@PBDIPAUHINSTANCE__@@@Z ENDP ; CAddInManagerImp::GetCIWAddInDll139092
_TEXT	ENDS
; Function compile flags: /Ogtp
; File D:\git\src\IBK\IBK_DRFN\ProjSrc\SrcChartEx\ChartOCX\AddInManager\IAddInManagerImp.cpp
;	COMDAT ?GetCIWAddInDll135914@CAddInManagerImp@@IAEPAUIAddInDll@@PBDIPAUHINSTANCE__@@@Z
_TEXT	SEGMENT
_p_szAddInModule$ = 8					; size = 4
_p_uAddInVersion$ = 12					; size = 4
_p_hAddIn$ = 16						; size = 4
?GetCIWAddInDll135914@CAddInManagerImp@@IAEPAUIAddInDll@@PBDIPAUHINSTANCE__@@@Z PROC ; CAddInManagerImp::GetCIWAddInDll135914, COMDAT
; _this$ = ecx

; 406  : {

  00000	55		 push	 ebp
  00001	8b ec		 mov	 ebp, esp

; 407  : 	if( CIWAddInDll135914::IVERSION == p_uAddInVersion)

  00003	81 7d 0c ea 12
	02 00		 cmp	 DWORD PTR _p_uAddInVersion$[ebp], 135914 ; 000212eaH
  0000a	75 15		 jne	 SHORT $LN2@GetCIWAddI

; 408  : 	{
; 409  : #ifdef _DEBUG
; 410  : 		if( !m_bVCheck135914)
; 411  : 		{
; 412  : 			// (2006/6/22 - Seung-Won, Bae) Check DLL Name
; 413  : 			if( stricmp( p_szAddInModule, "ChartEnvSetupDlgAddIn.dll"))
; 414  : 				AfxMessageBox( "I135914 Interface was used in [" + CString( p_szAddInModule) + "] !");
; 415  : 			// (2006/8/7 - Seung-Won, Bae) Check Site Number
; 416  : 			else if( m_pIChartCtrl->GetAddInSiteID() != 13)
; 417  : 				AfxMessageBox( "I135914 Interface was used in other Site!\r\nIt is only for Koscom!");
; 418  : 			m_bVCheck135914 = TRUE;
; 419  : 		}
; 420  : #endif
; 421  : 		return CIWAddInDll135914::CreateObject( p_szAddInModule, p_hAddIn, m_pIChartCtrl);

  0000c	ff 71 0c	 push	 DWORD PTR [ecx+12]
  0000f	ff 75 10	 push	 DWORD PTR _p_hAddIn$[ebp]
  00012	ff 75 08	 push	 DWORD PTR _p_szAddInModule$[ebp]
  00015	e8 00 00 00 00	 call	 ?CreateObject@CIWAddInDll135914@@SAPAUIAddInDll@@PBDPAUHINSTANCE__@@PAUIChartCtrl@@@Z ; CIWAddInDll135914::CreateObject
  0001a	83 c4 0c	 add	 esp, 12			; 0000000cH

; 424  : }

  0001d	5d		 pop	 ebp
  0001e	c2 0c 00	 ret	 12			; 0000000cH
$LN2@GetCIWAddI:

; 422  : 	}
; 423  : 	return NULL;

  00021	33 c0		 xor	 eax, eax

; 424  : }

  00023	5d		 pop	 ebp
  00024	c2 0c 00	 ret	 12			; 0000000cH
?GetCIWAddInDll135914@CAddInManagerImp@@IAEPAUIAddInDll@@PBDIPAUHINSTANCE__@@@Z ENDP ; CAddInManagerImp::GetCIWAddInDll135914
_TEXT	ENDS
; Function compile flags: /Ogtp
; File D:\git\src\IBK\IBK_DRFN\ProjSrc\SrcChartEx\ChartOCX\AddInManager\IAddInManagerImp.cpp
;	COMDAT ?GetCIWAddInDll134661@CAddInManagerImp@@IAEPAUIAddInDll@@PBDIPAUHINSTANCE__@@@Z
_TEXT	SEGMENT
_p_szAddInModule$ = 8					; size = 4
_p_uAddInVersion$ = 12					; size = 4
_p_hAddIn$ = 16						; size = 4
?GetCIWAddInDll134661@CAddInManagerImp@@IAEPAUIAddInDll@@PBDIPAUHINSTANCE__@@@Z PROC ; CAddInManagerImp::GetCIWAddInDll134661, COMDAT
; _this$ = ecx

; 370  : {

  00000	55		 push	 ebp
  00001	8b ec		 mov	 ebp, esp

; 371  : 	if( CIWAddInDll134661::IVERSION == p_uAddInVersion)

  00003	81 7d 0c 05 0e
	02 00		 cmp	 DWORD PTR _p_uAddInVersion$[ebp], 134661 ; 00020e05H
  0000a	75 15		 jne	 SHORT $LN2@GetCIWAddI

; 372  : 	{
; 373  : #ifdef _DEBUG
; 374  : 		if( !m_bVCheck134661)
; 375  : 		{
; 376  : 			// (2006/6/22 - Seung-Won, Bae) Check DLL Name
; 377  : 			if( stricmp( p_szAddInModule, "ChartDesignPropertyAddIn.dll"))
; 378  : 				AfxMessageBox( "I134661 Interface was used in [" + CString( p_szAddInModule) + "] !");
; 379  : 			// (2006/8/7 - Seung-Won, Bae) Check Site Number
; 380  : 			else if( m_pIChartCtrl->GetAddInSiteID() != 13)
; 381  : 				AfxMessageBox( "I134661 Interface was used in other Site!\r\nIt is only for Koscom!");
; 382  : 			m_bVCheck134661 = TRUE;
; 383  : 		}
; 384  : #endif
; 385  : 		return CIWAddInDll134661::CreateObject( p_szAddInModule, p_hAddIn, m_pIChartCtrl);

  0000c	ff 71 0c	 push	 DWORD PTR [ecx+12]
  0000f	ff 75 10	 push	 DWORD PTR _p_hAddIn$[ebp]
  00012	ff 75 08	 push	 DWORD PTR _p_szAddInModule$[ebp]
  00015	e8 00 00 00 00	 call	 ?CreateObject@CIWAddInDll134661@@SAPAUIAddInDll@@PBDPAUHINSTANCE__@@PAUIChartCtrl@@@Z ; CIWAddInDll134661::CreateObject
  0001a	83 c4 0c	 add	 esp, 12			; 0000000cH

; 388  : }

  0001d	5d		 pop	 ebp
  0001e	c2 0c 00	 ret	 12			; 0000000cH
$LN2@GetCIWAddI:

; 386  : 	}
; 387  : 	return NULL;

  00021	33 c0		 xor	 eax, eax

; 388  : }

  00023	5d		 pop	 ebp
  00024	c2 0c 00	 ret	 12			; 0000000cH
?GetCIWAddInDll134661@CAddInManagerImp@@IAEPAUIAddInDll@@PBDIPAUHINSTANCE__@@@Z ENDP ; CAddInManagerImp::GetCIWAddInDll134661
_TEXT	ENDS
; Function compile flags: /Ogtp
; File D:\git\src\IBK\IBK_DRFN\ProjSrc\SrcChartEx\ChartOCX\AddInManager\IAddInManagerImp.cpp
;	COMDAT ?GetCIWAddInDll134221@CAddInManagerImp@@IAEPAUIAddInDll@@PBDIPAUHINSTANCE__@@@Z
_TEXT	SEGMENT
_p_szAddInModule$ = 8					; size = 4
_p_uAddInVersion$ = 12					; size = 4
_p_hAddIn$ = 16						; size = 4
?GetCIWAddInDll134221@CAddInManagerImp@@IAEPAUIAddInDll@@PBDIPAUHINSTANCE__@@@Z PROC ; CAddInManagerImp::GetCIWAddInDll134221, COMDAT
; _this$ = ecx

; 338  : {

  00000	55		 push	 ebp
  00001	8b ec		 mov	 ebp, esp

; 339  : 	if( CIWAddInDll134221::IVERSION == p_uAddInVersion)

  00003	81 7d 0c 4d 0c
	02 00		 cmp	 DWORD PTR _p_uAddInVersion$[ebp], 134221 ; 00020c4dH
  0000a	75 15		 jne	 SHORT $LN2@GetCIWAddI

; 340  : 	{
; 341  : #ifdef _DEBUG
; 342  : 		// (2006/6/22 - Seung-Won, Bae) Check DLL Name
; 343  : 		if( !m_bVCheck134221)
; 344  : 		{
; 345  : 			if( stricmp( p_szAddInModule, "ChartDataListViewerAddIn.dll"))
; 346  : 				AfxMessageBox( "I134221 Interface was used in [" + CString( p_szAddInModule) + "] !");
; 347  : 			m_bVCheck134221 = TRUE;
; 348  : 		}
; 349  : #endif
; 350  : 		return CIWAddInDll134221::CreateObject( p_szAddInModule, p_hAddIn, m_pIChartCtrl);

  0000c	ff 71 0c	 push	 DWORD PTR [ecx+12]
  0000f	ff 75 10	 push	 DWORD PTR _p_hAddIn$[ebp]
  00012	ff 75 08	 push	 DWORD PTR _p_szAddInModule$[ebp]
  00015	e8 00 00 00 00	 call	 ?CreateObject@CIWAddInDll134221@@SAPAUIAddInDll@@PBDPAUHINSTANCE__@@PAUIChartCtrl@@@Z ; CIWAddInDll134221::CreateObject
  0001a	83 c4 0c	 add	 esp, 12			; 0000000cH

; 353  : }

  0001d	5d		 pop	 ebp
  0001e	c2 0c 00	 ret	 12			; 0000000cH
$LN2@GetCIWAddI:

; 351  : 	}
; 352  : 	return NULL;

  00021	33 c0		 xor	 eax, eax

; 353  : }

  00023	5d		 pop	 ebp
  00024	c2 0c 00	 ret	 12			; 0000000cH
?GetCIWAddInDll134221@CAddInManagerImp@@IAEPAUIAddInDll@@PBDIPAUHINSTANCE__@@@Z ENDP ; CAddInManagerImp::GetCIWAddInDll134221
_TEXT	ENDS
; Function compile flags: /Ogtp
; File D:\git\src\IBK\IBK_DRFN\ProjSrc\SrcChartEx\ChartOCX\AddInManager\IAddInManagerImp.cpp
;	COMDAT ?GetCIWAddInDll133101@CAddInManagerImp@@IAEPAUIAddInDll@@PBDIPAUHINSTANCE__@@@Z
_TEXT	SEGMENT
_p_szAddInModule$ = 8					; size = 4
_p_uAddInVersion$ = 12					; size = 4
_p_hAddIn$ = 16						; size = 4
?GetCIWAddInDll133101@CAddInManagerImp@@IAEPAUIAddInDll@@PBDIPAUHINSTANCE__@@@Z PROC ; CAddInManagerImp::GetCIWAddInDll133101, COMDAT
; _this$ = ecx

; 307  : {

  00000	55		 push	 ebp
  00001	8b ec		 mov	 ebp, esp

; 308  : 	if( CIWAddInDll133101::IVERSION == p_uAddInVersion)

  00003	81 7d 0c ed 07
	02 00		 cmp	 DWORD PTR _p_uAddInVersion$[ebp], 133101 ; 000207edH
  0000a	75 15		 jne	 SHORT $LN2@GetCIWAddI

; 309  : 	{
; 310  : #ifdef _DEBUG
; 311  : 		// (2006/6/22 - Seung-Won, Bae) Check DLL Name
; 312  : 		if( !m_bVCheck133101)
; 313  : 		{
; 314  : 			if( stricmp( p_szAddInModule, "ChartAnalysisToolAddIn.dll"))
; 315  : 				AfxMessageBox( "I133101 Interface was used in [" + CString( p_szAddInModule) + "] !");
; 316  : 			m_bVCheck133101 = TRUE;
; 317  : 		}
; 318  : #endif
; 319  : 		return CIWAddInDll133101::CreateObject( p_szAddInModule, p_hAddIn, m_pIChartCtrl);

  0000c	ff 71 0c	 push	 DWORD PTR [ecx+12]
  0000f	ff 75 10	 push	 DWORD PTR _p_hAddIn$[ebp]
  00012	ff 75 08	 push	 DWORD PTR _p_szAddInModule$[ebp]
  00015	e8 00 00 00 00	 call	 ?CreateObject@CIWAddInDll133101@@SAPAUIAddInDll@@PBDPAUHINSTANCE__@@PAUIChartCtrl@@@Z ; CIWAddInDll133101::CreateObject
  0001a	83 c4 0c	 add	 esp, 12			; 0000000cH

; 322  : }

  0001d	5d		 pop	 ebp
  0001e	c2 0c 00	 ret	 12			; 0000000cH
$LN2@GetCIWAddI:

; 320  : 	}
; 321  : 	return NULL;

  00021	33 c0		 xor	 eax, eax

; 322  : }

  00023	5d		 pop	 ebp
  00024	c2 0c 00	 ret	 12			; 0000000cH
?GetCIWAddInDll133101@CAddInManagerImp@@IAEPAUIAddInDll@@PBDIPAUHINSTANCE__@@@Z ENDP ; CAddInManagerImp::GetCIWAddInDll133101
_TEXT	ENDS
; Function compile flags: /Ogtp
; File D:\git\src\IBK\IBK_DRFN\ProjSrc\SrcChartEx\ChartOCX\AddInManager\IAddInManagerImp.cpp
;	COMDAT ?GetIChartOCX509092@CAddInManagerImp@@MAEPAUIChartOCX509092@@XZ
_TEXT	SEGMENT
?GetIChartOCX509092@CAddInManagerImp@@MAEPAUIChartOCX509092@@XZ PROC ; CAddInManagerImp::GetIChartOCX509092, COMDAT
; _this$ = ecx

; 598  : 	if( !m_pIChartCtrl) return NULL;

  00000	8b 51 04	 mov	 edx, DWORD PTR [ecx+4]
  00003	85 d2		 test	 edx, edx
  00005	75 03		 jne	 SHORT $LN2@GetIChartO
  00007	33 c0		 xor	 eax, eax

; 600  : }

  00009	c3		 ret	 0
$LN2@GetIChartO:

; 599  : 	return CIWChartOCX509092::CreateObject( m_pIChartCtrl, this);;

  0000a	8d 41 f8	 lea	 eax, DWORD PTR [ecx-8]
  0000d	50		 push	 eax
  0000e	52		 push	 edx
  0000f	e8 00 00 00 00	 call	 ?CreateObject@CIWChartOCX509092@@SAPAUIChartOCX509092@@PAUIChartCtrl@@PAVCAddInManagerImp@@@Z ; CIWChartOCX509092::CreateObject
  00014	83 c4 08	 add	 esp, 8

; 600  : }

  00017	c3		 ret	 0
?GetIChartOCX509092@CAddInManagerImp@@MAEPAUIChartOCX509092@@XZ ENDP ; CAddInManagerImp::GetIChartOCX509092
_TEXT	ENDS
; Function compile flags: /Ogtp
; File D:\git\src\IBK\IBK_DRFN\ProjSrc\SrcChartEx\ChartOCX\AddInManager\IAddInManagerImp.cpp
;	COMDAT ?GetIChartOCX339092@CAddInManagerImp@@MAEPAUIChartOCX339092@@XZ
_TEXT	SEGMENT
?GetIChartOCX339092@CAddInManagerImp@@MAEPAUIChartOCX339092@@XZ PROC ; CAddInManagerImp::GetIChartOCX339092, COMDAT
; _this$ = ecx

; 564  : 	if( !m_pIChartCtrl) return NULL;

  00000	8b 51 04	 mov	 edx, DWORD PTR [ecx+4]
  00003	85 d2		 test	 edx, edx
  00005	75 03		 jne	 SHORT $LN2@GetIChartO
  00007	33 c0		 xor	 eax, eax

; 566  : }

  00009	c3		 ret	 0
$LN2@GetIChartO:

; 565  : 	return CIWChartOCX339092::CreateObject( m_pIChartCtrl, this);;

  0000a	8d 41 f8	 lea	 eax, DWORD PTR [ecx-8]
  0000d	50		 push	 eax
  0000e	52		 push	 edx
  0000f	e8 00 00 00 00	 call	 ?CreateObject@CIWChartOCX339092@@SAPAUIChartOCX339092@@PAUIChartCtrl@@PAVCAddInManagerImp@@@Z ; CIWChartOCX339092::CreateObject
  00014	83 c4 08	 add	 esp, 8

; 566  : }

  00017	c3		 ret	 0
?GetIChartOCX339092@CAddInManagerImp@@MAEPAUIChartOCX339092@@XZ ENDP ; CAddInManagerImp::GetIChartOCX339092
_TEXT	ENDS
; Function compile flags: /Ogtp
; File D:\git\src\IBK\IBK_DRFN\ProjSrc\SrcChartEx\ChartOCX\AddInManager\IAddInManagerImp.cpp
;	COMDAT ?GetIChartOCX381931@CAddInManagerImp@@MAEPAUIChartOCX381931@@XZ
_TEXT	SEGMENT
?GetIChartOCX381931@CAddInManagerImp@@MAEPAUIChartOCX381931@@XZ PROC ; CAddInManagerImp::GetIChartOCX381931, COMDAT
; _this$ = ecx

; 530  : 	if( !m_pIChartCtrl) return NULL;

  00000	8b 51 04	 mov	 edx, DWORD PTR [ecx+4]
  00003	85 d2		 test	 edx, edx
  00005	75 03		 jne	 SHORT $LN2@GetIChartO
  00007	33 c0		 xor	 eax, eax

; 532  : }

  00009	c3		 ret	 0
$LN2@GetIChartO:

; 531  : 	return CIWChartOCX381931::CreateObject( m_pIChartCtrl, this);

  0000a	8d 41 f8	 lea	 eax, DWORD PTR [ecx-8]
  0000d	50		 push	 eax
  0000e	52		 push	 edx
  0000f	e8 00 00 00 00	 call	 ?CreateObject@CIWChartOCX381931@@SAPAUIChartOCX381931@@PAUIChartCtrl@@PAVCAddInManagerImp@@@Z ; CIWChartOCX381931::CreateObject
  00014	83 c4 08	 add	 esp, 8

; 532  : }

  00017	c3		 ret	 0
?GetIChartOCX381931@CAddInManagerImp@@MAEPAUIChartOCX381931@@XZ ENDP ; CAddInManagerImp::GetIChartOCX381931
_TEXT	ENDS
; Function compile flags: /Ogtp
; File D:\git\src\IBK\IBK_DRFN\ProjSrc\SrcChartEx\ChartOCX\AddInManager\IAddInManagerImp.cpp
;	COMDAT ?GetIChartOCX133691@CAddInManagerImp@@MAEPAUIChartOCX133691@@XZ
_TEXT	SEGMENT
?GetIChartOCX133691@CAddInManagerImp@@MAEPAUIChartOCX133691@@XZ PROC ; CAddInManagerImp::GetIChartOCX133691, COMDAT
; _this$ = ecx

; 496  : 	if( !m_pIChartCtrl) return NULL;

  00000	8b 51 04	 mov	 edx, DWORD PTR [ecx+4]
  00003	85 d2		 test	 edx, edx
  00005	75 03		 jne	 SHORT $LN2@GetIChartO
  00007	33 c0		 xor	 eax, eax

; 498  : }

  00009	c3		 ret	 0
$LN2@GetIChartO:

; 497  : 	return CIWChartOCX133691::CreateObject( m_pIChartCtrl, this);

  0000a	8d 41 f8	 lea	 eax, DWORD PTR [ecx-8]
  0000d	50		 push	 eax
  0000e	52		 push	 edx
  0000f	e8 00 00 00 00	 call	 ?CreateObject@CIWChartOCX133691@@SAPAUIChartOCX133691@@PAUIChartCtrl@@PAVCAddInManagerImp@@@Z ; CIWChartOCX133691::CreateObject
  00014	83 c4 08	 add	 esp, 8

; 498  : }

  00017	c3		 ret	 0
?GetIChartOCX133691@CAddInManagerImp@@MAEPAUIChartOCX133691@@XZ ENDP ; CAddInManagerImp::GetIChartOCX133691
_TEXT	ENDS
; Function compile flags: /Ogtp
; File D:\git\src\IBK\IBK_DRFN\ProjSrc\SrcChartEx\ChartOCX\AddInManager\IAddInManagerImp.cpp
;	COMDAT ?GetIChartOCX139092@CAddInManagerImp@@MAEPAUIChartOCX139092@@XZ
_TEXT	SEGMENT
?GetIChartOCX139092@CAddInManagerImp@@MAEPAUIChartOCX139092@@XZ PROC ; CAddInManagerImp::GetIChartOCX139092, COMDAT
; _this$ = ecx

; 462  : 	if( !m_pIChartCtrl) return NULL;

  00000	8b 51 04	 mov	 edx, DWORD PTR [ecx+4]
  00003	85 d2		 test	 edx, edx
  00005	75 03		 jne	 SHORT $LN2@GetIChartO
  00007	33 c0		 xor	 eax, eax

; 464  : }

  00009	c3		 ret	 0
$LN2@GetIChartO:

; 463  : 	return CIWChartOCX139092::CreateObject( m_pIChartCtrl, this);;

  0000a	8d 41 f8	 lea	 eax, DWORD PTR [ecx-8]
  0000d	50		 push	 eax
  0000e	52		 push	 edx
  0000f	e8 00 00 00 00	 call	 ?CreateObject@CIWChartOCX139092@@SAPAUIChartOCX139092@@PAUIChartCtrl@@PAVCAddInManagerImp@@@Z ; CIWChartOCX139092::CreateObject
  00014	83 c4 08	 add	 esp, 8

; 464  : }

  00017	c3		 ret	 0
?GetIChartOCX139092@CAddInManagerImp@@MAEPAUIChartOCX139092@@XZ ENDP ; CAddInManagerImp::GetIChartOCX139092
_TEXT	ENDS
; Function compile flags: /Ogtp
; File D:\git\src\IBK\IBK_DRFN\ProjSrc\SrcChartEx\ChartOCX\AddInManager\IAddInManagerImp.cpp
;	COMDAT ?GetIChartOCX135914@CAddInManagerImp@@MAEPAUIChartOCX135914@@XZ
_TEXT	SEGMENT
?GetIChartOCX135914@CAddInManagerImp@@MAEPAUIChartOCX135914@@XZ PROC ; CAddInManagerImp::GetIChartOCX135914, COMDAT
; _this$ = ecx

; 428  : 	if( !m_pIChartCtrl) return NULL;

  00000	8b 51 04	 mov	 edx, DWORD PTR [ecx+4]
  00003	85 d2		 test	 edx, edx
  00005	75 03		 jne	 SHORT $LN2@GetIChartO
  00007	33 c0		 xor	 eax, eax

; 430  : }

  00009	c3		 ret	 0
$LN2@GetIChartO:

; 429  : 	return CIWChartOCX135914::CreateObject( m_pIChartCtrl, this);

  0000a	8d 41 f8	 lea	 eax, DWORD PTR [ecx-8]
  0000d	50		 push	 eax
  0000e	52		 push	 edx
  0000f	e8 00 00 00 00	 call	 ?CreateObject@CIWChartOCX135914@@SAPAUIChartOCX135914@@PAUIChartCtrl@@PAVCAddInManagerImp@@@Z ; CIWChartOCX135914::CreateObject
  00014	83 c4 08	 add	 esp, 8

; 430  : }

  00017	c3		 ret	 0
?GetIChartOCX135914@CAddInManagerImp@@MAEPAUIChartOCX135914@@XZ ENDP ; CAddInManagerImp::GetIChartOCX135914
_TEXT	ENDS
; Function compile flags: /Ogtp
; File D:\git\src\IBK\IBK_DRFN\ProjSrc\SrcChartEx\ChartOCX\AddInManager\IAddInManagerImp.cpp
; File C:\Program Files (x86)\Microsoft Visual Studio\2019\Community\VC\Tools\MSVC\14.29.30133\atlmfc\include\afx.inl
; File D:\git\src\IBK\IBK_DRFN\ProjSrc\SrcChartEx\ChartOCX\AddInManager\IAddInManagerImp.cpp
;	COMDAT ?GetIChartOCX134661@CAddInManagerImp@@MAEPAUIChartOCX134661@@XZ
_TEXT	SEGMENT
$T2 = -16						; size = 4
__$EHRec$ = -12						; size = 12
?GetIChartOCX134661@CAddInManagerImp@@MAEPAUIChartOCX134661@@XZ PROC ; CAddInManagerImp::GetIChartOCX134661, COMDAT
; _this$ = ecx

; 391  : {

  00000	55		 push	 ebp
  00001	8b ec		 mov	 ebp, esp
  00003	6a ff		 push	 -1
  00005	68 00 00 00 00	 push	 __ehhandler$?GetIChartOCX134661@CAddInManagerImp@@MAEPAUIChartOCX134661@@XZ
  0000a	64 a1 00 00 00
	00		 mov	 eax, DWORD PTR fs:0
  00010	50		 push	 eax
  00011	51		 push	 ecx
  00012	56		 push	 esi
  00013	a1 00 00 00 00	 mov	 eax, DWORD PTR ___security_cookie
  00018	33 c5		 xor	 eax, ebp
  0001a	50		 push	 eax
  0001b	8d 45 f4	 lea	 eax, DWORD PTR __$EHRec$[ebp]
  0001e	64 a3 00 00 00
	00		 mov	 DWORD PTR fs:0, eax
  00024	8b f1		 mov	 esi, ecx

; 392  : 	if( !m_pIChartCtrl) return NULL;

  00026	83 7e 04 00	 cmp	 DWORD PTR [esi+4], 0
  0002a	75 12		 jne	 SHORT $LN2@GetIChartO
  0002c	33 c0		 xor	 eax, eax

; 396  : }

  0002e	8b 4d f4	 mov	 ecx, DWORD PTR __$EHRec$[ebp]
  00031	64 89 0d 00 00
	00 00		 mov	 DWORD PTR fs:0, ecx
  00038	59		 pop	 ecx
  00039	5e		 pop	 esi
  0003a	8b e5		 mov	 esp, ebp
  0003c	5d		 pop	 ebp
  0003d	c3		 ret	 0
$LN2@GetIChartO:
; File C:\Program Files (x86)\Microsoft Visual Studio\2019\Community\VC\Tools\MSVC\14.29.30133\atlmfc\include\afx.inl

; 116  : 	{ return ::operator new(nSize); }

  0003e	6a 14		 push	 20			; 00000014H
  00040	e8 00 00 00 00	 call	 ??2@YAPAXI@Z		; operator new
  00045	83 c4 04	 add	 esp, 4
; File D:\git\src\IBK\IBK_DRFN\ProjSrc\SrcChartEx\ChartOCX\AddInManager\IAddInManagerImp.cpp

; 393  : 	IChartOCX134661 *pIChartOCX134661 = new CIWChartOCX134661( m_pIChartCtrl, this);

  00048	89 45 f0	 mov	 DWORD PTR $T2[ebp], eax
  0004b	c7 45 fc 00 00
	00 00		 mov	 DWORD PTR __$EHRec$[ebp+8], 0
  00052	85 c0		 test	 eax, eax
  00054	74 12		 je	 SHORT $LN4@GetIChartO
  00056	8d 4e f8	 lea	 ecx, DWORD PTR [esi-8]
  00059	51		 push	 ecx
  0005a	ff 76 04	 push	 DWORD PTR [esi+4]
  0005d	8b c8		 mov	 ecx, eax
  0005f	e8 00 00 00 00	 call	 ??0CIWChartOCX134661@@QAE@PAUIChartCtrl@@PAVCAddInManagerImp@@@Z ; CIWChartOCX134661::CIWChartOCX134661
  00064	8b f0		 mov	 esi, eax
  00066	eb 02		 jmp	 SHORT $LN5@GetIChartO
$LN4@GetIChartO:
  00068	33 f6		 xor	 esi, esi
$LN5@GetIChartO:

; 394  : 	pIChartOCX134661->AddRef();

  0006a	8d 46 08	 lea	 eax, DWORD PTR [esi+8]
  0006d	c7 45 fc ff ff
	ff ff		 mov	 DWORD PTR __$EHRec$[ebp+8], -1
  00074	f7 de		 neg	 esi
  00076	1b f6		 sbb	 esi, esi
  00078	23 f0		 and	 esi, eax
  0007a	56		 push	 esi
  0007b	8b 06		 mov	 eax, DWORD PTR [esi]
  0007d	ff 50 04	 call	 DWORD PTR [eax+4]

; 395  : 	return pIChartOCX134661;

  00080	8b c6		 mov	 eax, esi

; 396  : }

  00082	8b 4d f4	 mov	 ecx, DWORD PTR __$EHRec$[ebp]
  00085	64 89 0d 00 00
	00 00		 mov	 DWORD PTR fs:0, ecx
  0008c	59		 pop	 ecx
  0008d	5e		 pop	 esi
  0008e	8b e5		 mov	 esp, ebp
  00090	5d		 pop	 ebp
  00091	c3		 ret	 0
_TEXT	ENDS
;	COMDAT text$x
text$x	SEGMENT
__unwindfunclet$?GetIChartOCX134661@CAddInManagerImp@@MAEPAUIChartOCX134661@@XZ$0:
  00000	8b 45 f0	 mov	 eax, DWORD PTR $T2[ebp]
  00003	50		 push	 eax
  00004	e8 00 00 00 00	 call	 ??3CObject@@SGXPAX@Z	; CObject::operator delete
  00009	c3		 ret	 0
  0000a	cc		 int	 3
  0000b	cc		 int	 3
  0000c	cc		 int	 3
  0000d	cc		 int	 3
  0000e	cc		 int	 3
__ehhandler$?GetIChartOCX134661@CAddInManagerImp@@MAEPAUIChartOCX134661@@XZ:
  0000f	90		 npad	 1
  00010	90		 npad	 1
  00011	8b 54 24 08	 mov	 edx, DWORD PTR [esp+8]
  00015	8d 42 0c	 lea	 eax, DWORD PTR [edx+12]
  00018	8b 4a f4	 mov	 ecx, DWORD PTR [edx-12]
  0001b	33 c8		 xor	 ecx, eax
  0001d	e8 00 00 00 00	 call	 @__security_check_cookie@4
  00022	b8 00 00 00 00	 mov	 eax, OFFSET __ehfuncinfo$?GetIChartOCX134661@CAddInManagerImp@@MAEPAUIChartOCX134661@@XZ
  00027	e9 00 00 00 00	 jmp	 ___CxxFrameHandler3
text$x	ENDS
?GetIChartOCX134661@CAddInManagerImp@@MAEPAUIChartOCX134661@@XZ ENDP ; CAddInManagerImp::GetIChartOCX134661
; Function compile flags: /Ogtp
; File D:\git\src\IBK\IBK_DRFN\ProjSrc\SrcChartEx\ChartOCX\AddInManager\IAddInManagerImp.cpp
;	COMDAT ?GetIChartOCX134221@CAddInManagerImp@@MAEPAUIChartOCX134221@@XZ
_TEXT	SEGMENT
?GetIChartOCX134221@CAddInManagerImp@@MAEPAUIChartOCX134221@@XZ PROC ; CAddInManagerImp::GetIChartOCX134221, COMDAT
; _this$ = ecx

; 357  : 	if( !m_pIChartCtrl) return NULL;

  00000	8b 51 04	 mov	 edx, DWORD PTR [ecx+4]
  00003	85 d2		 test	 edx, edx
  00005	75 03		 jne	 SHORT $LN2@GetIChartO
  00007	33 c0		 xor	 eax, eax

; 359  : }

  00009	c3		 ret	 0
$LN2@GetIChartO:

; 358  : 	return CIWChartOCX134221::CreateObject( m_pIChartCtrl, this);

  0000a	8d 41 f8	 lea	 eax, DWORD PTR [ecx-8]
  0000d	50		 push	 eax
  0000e	52		 push	 edx
  0000f	e8 00 00 00 00	 call	 ?CreateObject@CIWChartOCX134221@@SAPAUIChartOCX134221@@PAUIChartCtrl@@PAVCAddInManagerImp@@@Z ; CIWChartOCX134221::CreateObject
  00014	83 c4 08	 add	 esp, 8

; 359  : }

  00017	c3		 ret	 0
?GetIChartOCX134221@CAddInManagerImp@@MAEPAUIChartOCX134221@@XZ ENDP ; CAddInManagerImp::GetIChartOCX134221
_TEXT	ENDS
; Function compile flags: /Ogtp
; File D:\git\src\IBK\IBK_DRFN\ProjSrc\SrcChartEx\ChartOCX\AddInManager\IAddInManagerImp.cpp
;	COMDAT ?GetIChartOCX133101@CAddInManagerImp@@MAEPAUIChartOCX133101@@XZ
_TEXT	SEGMENT
?GetIChartOCX133101@CAddInManagerImp@@MAEPAUIChartOCX133101@@XZ PROC ; CAddInManagerImp::GetIChartOCX133101, COMDAT
; _this$ = ecx

; 326  : 	if( !m_pIChartCtrl) return NULL;

  00000	8b 51 04	 mov	 edx, DWORD PTR [ecx+4]
  00003	85 d2		 test	 edx, edx
  00005	75 03		 jne	 SHORT $LN2@GetIChartO
  00007	33 c0		 xor	 eax, eax

; 328  : }

  00009	c3		 ret	 0
$LN2@GetIChartO:

; 327  : 	return CIWChartOCX133101::CreateObject( m_pIChartCtrl, this);

  0000a	8d 41 f8	 lea	 eax, DWORD PTR [ecx-8]
  0000d	50		 push	 eax
  0000e	52		 push	 edx
  0000f	e8 00 00 00 00	 call	 ?CreateObject@CIWChartOCX133101@@SAPAUIChartOCX133101@@PAUIChartCtrl@@PAVCAddInManagerImp@@@Z ; CIWChartOCX133101::CreateObject
  00014	83 c4 08	 add	 esp, 8

; 328  : }

  00017	c3		 ret	 0
?GetIChartOCX133101@CAddInManagerImp@@MAEPAUIChartOCX133101@@XZ ENDP ; CAddInManagerImp::GetIChartOCX133101
_TEXT	ENDS
; Function compile flags: /Ogtp
; File D:\git\src\IBK\IBK_DRFN\ProjSrc\SrcChartEx\ChartOCX\AddInManager\IAddInManagerImp.cpp
;	COMDAT ?GetCIWAddInDll503721@CAddInManagerImp@@IAEPAUIAddInDll@@PBDIPAUHINSTANCE__@@@Z
_TEXT	SEGMENT
_p_szAddInModule$ = 8					; size = 4
_p_uAddInVersion$ = 12					; size = 4
_p_hAddIn$ = 16						; size = 4
?GetCIWAddInDll503721@CAddInManagerImp@@IAEPAUIAddInDll@@PBDIPAUHINSTANCE__@@@Z PROC ; CAddInManagerImp::GetCIWAddInDll503721, COMDAT
; _this$ = ecx

; 231  : {

  00000	55		 push	 ebp
  00001	8b ec		 mov	 ebp, esp

; 232  : 	if( CIWAddInDll503721::IVERSION == p_uAddInVersion)

  00003	81 7d 0c a9 af
	07 00		 cmp	 DWORD PTR _p_uAddInVersion$[ebp], 503721 ; 0007afa9H
  0000a	75 15		 jne	 SHORT $LN2@GetCIWAddI

; 233  : 	{
; 234  : #ifdef _DEBUG
; 235  : 		if( !m_bVCheck503721)
; 236  : 		{
; 237  : 			// (2006/6/22 - Seung-Won, Bae) Check DLL Name
; 238  : 			if( stricmp( p_szAddInModule, "ChartGuideLineAddIn.dll"))
; 239  : 				AfxMessageBox( "I503721 Interface was used in [" + CString( p_szAddInModule) + "] !");
; 240  : 			// (2006/8/7 - Seung-Won, Bae) Check Site Number
; 241  : //			else if( m_pIChartCtrl->GetAddInSiteID() != 91)
; 242  : //				AfxMessageBox( "I503721 Interface was used in other Site!\r\nIt is only for Koscom!");
; 243  : 			m_bVCheck503721 = TRUE;
; 244  : 		}
; 245  : #endif
; 246  : 		return CIWAddInDll503721::CreateObject( p_szAddInModule, p_hAddIn, m_pIChartCtrl);

  0000c	ff 71 0c	 push	 DWORD PTR [ecx+12]
  0000f	ff 75 10	 push	 DWORD PTR _p_hAddIn$[ebp]
  00012	ff 75 08	 push	 DWORD PTR _p_szAddInModule$[ebp]
  00015	e8 00 00 00 00	 call	 ?CreateObject@CIWAddInDll503721@@SAPAUIAddInDll@@PBDPAUHINSTANCE__@@PAUIChartCtrl@@@Z ; CIWAddInDll503721::CreateObject
  0001a	83 c4 0c	 add	 esp, 12			; 0000000cH

; 249  : }

  0001d	5d		 pop	 ebp
  0001e	c2 0c 00	 ret	 12			; 0000000cH
$LN2@GetCIWAddI:

; 247  : 	}
; 248  : 	return NULL;

  00021	33 c0		 xor	 eax, eax

; 249  : }

  00023	5d		 pop	 ebp
  00024	c2 0c 00	 ret	 12			; 0000000cH
?GetCIWAddInDll503721@CAddInManagerImp@@IAEPAUIAddInDll@@PBDIPAUHINSTANCE__@@@Z ENDP ; CAddInManagerImp::GetCIWAddInDll503721
_TEXT	ENDS
; Function compile flags: /Ogtp
; File D:\git\src\IBK\IBK_DRFN\ProjSrc\SrcChartEx\ChartOCX\AddInManager\IAddInManagerImp.cpp
;	COMDAT ?GetCIWAddInDll363721@CAddInManagerImp@@IAEPAUIAddInDll@@PBDIPAUHINSTANCE__@@@Z
_TEXT	SEGMENT
_p_szAddInModule$ = 8					; size = 4
_p_uAddInVersion$ = 12					; size = 4
_p_hAddIn$ = 16						; size = 4
?GetCIWAddInDll363721@CAddInManagerImp@@IAEPAUIAddInDll@@PBDIPAUHINSTANCE__@@@Z PROC ; CAddInManagerImp::GetCIWAddInDll363721, COMDAT
; _this$ = ecx

; 197  : {

  00000	55		 push	 ebp
  00001	8b ec		 mov	 ebp, esp

; 198  : 	if( CIWAddInDll363721::IVERSION == p_uAddInVersion)

  00003	81 7d 0c c9 8c
	05 00		 cmp	 DWORD PTR _p_uAddInVersion$[ebp], 363721 ; 00058cc9H
  0000a	75 15		 jne	 SHORT $LN2@GetCIWAddI

; 199  : 	{
; 200  : #ifdef _DEBUG
; 201  : 		if( !m_bVCheck363721)
; 202  : 		{
; 203  : 			// (2006/6/22 - Seung-Won, Bae) Check DLL Name
; 204  : 			if( stricmp( p_szAddInModule, "ChartGuideLineAddIn.dll"))
; 205  : 				AfxMessageBox( "I363721 Interface was used in [" + CString( p_szAddInModule) + "] !");
; 206  : 			// (2006/8/7 - Seung-Won, Bae) Check Site Number
; 207  : //			else if( m_pIChartCtrl->GetAddInSiteID() != 91)
; 208  : //				AfxMessageBox( "I363721 Interface was used in other Site!\r\nIt is only for Koscom!");
; 209  : 			m_bVCheck363721 = TRUE;
; 210  : 		}
; 211  : #endif
; 212  : 		return CIWAddInDll363721::CreateObject( p_szAddInModule, p_hAddIn, m_pIChartCtrl);

  0000c	ff 71 0c	 push	 DWORD PTR [ecx+12]
  0000f	ff 75 10	 push	 DWORD PTR _p_hAddIn$[ebp]
  00012	ff 75 08	 push	 DWORD PTR _p_szAddInModule$[ebp]
  00015	e8 00 00 00 00	 call	 ?CreateObject@CIWAddInDll363721@@SAPAUIAddInDll@@PBDPAUHINSTANCE__@@PAUIChartCtrl@@@Z ; CIWAddInDll363721::CreateObject
  0001a	83 c4 0c	 add	 esp, 12			; 0000000cH

; 215  : }

  0001d	5d		 pop	 ebp
  0001e	c2 0c 00	 ret	 12			; 0000000cH
$LN2@GetCIWAddI:

; 213  : 	}
; 214  : 	return NULL;

  00021	33 c0		 xor	 eax, eax

; 215  : }

  00023	5d		 pop	 ebp
  00024	c2 0c 00	 ret	 12			; 0000000cH
?GetCIWAddInDll363721@CAddInManagerImp@@IAEPAUIAddInDll@@PBDIPAUHINSTANCE__@@@Z ENDP ; CAddInManagerImp::GetCIWAddInDll363721
_TEXT	ENDS
; Function compile flags: /Ogtp
; File D:\git\src\IBK\IBK_DRFN\ProjSrc\SrcChartEx\ChartOCX\AddInManager\IAddInManagerImp.cpp
;	COMDAT ?GetCIWAddInDll333721@CAddInManagerImp@@IAEPAUIAddInDll@@PBDIPAUHINSTANCE__@@@Z
_TEXT	SEGMENT
_p_szAddInModule$ = 8					; size = 4
_p_uAddInVersion$ = 12					; size = 4
_p_hAddIn$ = 16						; size = 4
?GetCIWAddInDll333721@CAddInManagerImp@@IAEPAUIAddInDll@@PBDIPAUHINSTANCE__@@@Z PROC ; CAddInManagerImp::GetCIWAddInDll333721, COMDAT
; _this$ = ecx

; 163  : {

  00000	55		 push	 ebp
  00001	8b ec		 mov	 ebp, esp

; 164  : 	if( CIWAddInDll333721::IVERSION == p_uAddInVersion)

  00003	81 7d 0c 99 17
	05 00		 cmp	 DWORD PTR _p_uAddInVersion$[ebp], 333721 ; 00051799H
  0000a	75 15		 jne	 SHORT $LN2@GetCIWAddI

; 165  : 	{
; 166  : #ifdef _DEBUG
; 167  : 		if( !m_bVCheck333721)
; 168  : 		{
; 169  : 			// (2006/6/22 - Seung-Won, Bae) Check DLL Name
; 170  : 			if( stricmp( p_szAddInModule, "ChartGuideLineAddIn.dll"))
; 171  : 				AfxMessageBox( "I333721 Interface was used in [" + CString( p_szAddInModule) + "] !");
; 172  : 			// (2006/8/7 - Seung-Won, Bae) Check Site Number
; 173  : //			else if( m_pIChartCtrl->GetAddInSiteID() != 91)
; 174  : //				AfxMessageBox( "I333721 Interface was used in other Site!\r\nIt is only for Koscom!");
; 175  : 			m_bVCheck333721 = TRUE;
; 176  : 		}
; 177  : #endif
; 178  : 		return CIWAddInDll333721::CreateObject( p_szAddInModule, p_hAddIn, m_pIChartCtrl);

  0000c	ff 71 0c	 push	 DWORD PTR [ecx+12]
  0000f	ff 75 10	 push	 DWORD PTR _p_hAddIn$[ebp]
  00012	ff 75 08	 push	 DWORD PTR _p_szAddInModule$[ebp]
  00015	e8 00 00 00 00	 call	 ?CreateObject@CIWAddInDll333721@@SAPAUIAddInDll@@PBDPAUHINSTANCE__@@PAUIChartCtrl@@@Z ; CIWAddInDll333721::CreateObject
  0001a	83 c4 0c	 add	 esp, 12			; 0000000cH

; 181  : }

  0001d	5d		 pop	 ebp
  0001e	c2 0c 00	 ret	 12			; 0000000cH
$LN2@GetCIWAddI:

; 179  : 	}
; 180  : 	return NULL;

  00021	33 c0		 xor	 eax, eax

; 181  : }

  00023	5d		 pop	 ebp
  00024	c2 0c 00	 ret	 12			; 0000000cH
?GetCIWAddInDll333721@CAddInManagerImp@@IAEPAUIAddInDll@@PBDIPAUHINSTANCE__@@@Z ENDP ; CAddInManagerImp::GetCIWAddInDll333721
_TEXT	ENDS
; Function compile flags: /Ogtp
; File D:\git\src\IBK\IBK_DRFN\ProjSrc\SrcChartEx\ChartOCX\AddInManager\IAddInManagerImp.cpp
;	COMDAT ?GetCIWAddInDll133721@CAddInManagerImp@@IAEPAUIAddInDll@@PBDIPAUHINSTANCE__@@@Z
_TEXT	SEGMENT
_p_szAddInModule$ = 8					; size = 4
_p_uAddInVersion$ = 12					; size = 4
_p_hAddIn$ = 16						; size = 4
?GetCIWAddInDll133721@CAddInManagerImp@@IAEPAUIAddInDll@@PBDIPAUHINSTANCE__@@@Z PROC ; CAddInManagerImp::GetCIWAddInDll133721, COMDAT
; _this$ = ecx

; 129  : {

  00000	55		 push	 ebp
  00001	8b ec		 mov	 ebp, esp

; 130  : 	if( CIWAddInDll133721::IVERSION == p_uAddInVersion)

  00003	81 7d 0c 59 0a
	02 00		 cmp	 DWORD PTR _p_uAddInVersion$[ebp], 133721 ; 00020a59H
  0000a	75 15		 jne	 SHORT $LN2@GetCIWAddI

; 131  : 	{
; 132  : #ifdef _DEBUG
; 133  : 		if( !m_bVCheck133721)
; 134  : 		{
; 135  : 			// (2006/6/22 - Seung-Won, Bae) Check DLL Name
; 136  : 			if( stricmp( p_szAddInModule, "ChartGuideLineAddIn.dll"))
; 137  : 				AfxMessageBox( "I133721 Interface was used in [" + CString( p_szAddInModule) + "] !");
; 138  : 			// (2006/8/7 - Seung-Won, Bae) Check Site Number
; 139  : //			else if( m_pIChartCtrl->GetAddInSiteID() != 91)
; 140  : //				AfxMessageBox( "I133721 Interface was used in other Site!\r\nIt is only for Koscom!");
; 141  : 			m_bVCheck133721 = TRUE;
; 142  : 		}
; 143  : #endif
; 144  : 		return CIWAddInDll133721::CreateObject( p_szAddInModule, p_hAddIn, m_pIChartCtrl);

  0000c	ff 71 0c	 push	 DWORD PTR [ecx+12]
  0000f	ff 75 10	 push	 DWORD PTR _p_hAddIn$[ebp]
  00012	ff 75 08	 push	 DWORD PTR _p_szAddInModule$[ebp]
  00015	e8 00 00 00 00	 call	 ?CreateObject@CIWAddInDll133721@@SAPAUIAddInDll@@PBDPAUHINSTANCE__@@PAUIChartCtrl@@@Z ; CIWAddInDll133721::CreateObject
  0001a	83 c4 0c	 add	 esp, 12			; 0000000cH

; 147  : }

  0001d	5d		 pop	 ebp
  0001e	c2 0c 00	 ret	 12			; 0000000cH
$LN2@GetCIWAddI:

; 145  : 	}
; 146  : 	return NULL;

  00021	33 c0		 xor	 eax, eax

; 147  : }

  00023	5d		 pop	 ebp
  00024	c2 0c 00	 ret	 12			; 0000000cH
?GetCIWAddInDll133721@CAddInManagerImp@@IAEPAUIAddInDll@@PBDIPAUHINSTANCE__@@@Z ENDP ; CAddInManagerImp::GetCIWAddInDll133721
_TEXT	ENDS
; Function compile flags: /Ogtp
; File D:\git\src\IBK\IBK_DRFN\ProjSrc\SrcChartEx\ChartOCX\AddInManager\IAddInManagerImp.cpp
;	COMDAT ?GetCIWAddInDll423611@CAddInManagerImp@@IAEPAUIAddInDll@@PBDIPAUHINSTANCE__@@@Z
_TEXT	SEGMENT
_p_szAddInModule$ = 8					; size = 4
_p_uAddInVersion$ = 12					; size = 4
_p_hAddIn$ = 16						; size = 4
?GetCIWAddInDll423611@CAddInManagerImp@@IAEPAUIAddInDll@@PBDIPAUHINSTANCE__@@@Z PROC ; CAddInManagerImp::GetCIWAddInDll423611, COMDAT
; _this$ = ecx

; 265  : {

  00000	55		 push	 ebp
  00001	8b ec		 mov	 ebp, esp

; 266  : 	if( CIWAddInDll423611::IVERSION == p_uAddInVersion)

  00003	81 7d 0c bb 76
	06 00		 cmp	 DWORD PTR _p_uAddInVersion$[ebp], 423611 ; 000676bbH
  0000a	75 15		 jne	 SHORT $LN2@GetCIWAddI

; 267  : 	{
; 268  : #ifdef _DEBUG
; 269  : 		if( !m_bVCheck423611)
; 270  : 		{
; 271  : 			// (2006/6/22 - Seung-Won, Bae) Check DLL Name
; 272  : 			if( stricmp( p_szAddInModule, "ChartPatternAddIn.dll"))
; 273  : 				AfxMessageBox( "I423611 Interface was used in [" + CString( p_szAddInModule) + "] !");
; 274  : 			// (2006/8/7 - Seung-Won, Bae) Check Site Number
; 275  : //			else if( m_pIChartCtrl->GetAddInSiteID() != 42)
; 276  : //				AfxMessageBox( "I423611 Interface was used in other Site!\r\nIt is only for DongBu!");
; 277  : 			m_bVCheck423611 = TRUE;
; 278  : 		}
; 279  : #endif
; 280  : 		return CIWAddInDll423611::CreateObject( p_szAddInModule, p_hAddIn, m_pIChartCtrl);

  0000c	ff 71 0c	 push	 DWORD PTR [ecx+12]
  0000f	ff 75 10	 push	 DWORD PTR _p_hAddIn$[ebp]
  00012	ff 75 08	 push	 DWORD PTR _p_szAddInModule$[ebp]
  00015	e8 00 00 00 00	 call	 ?CreateObject@CIWAddInDll423611@@SAPAUIAddInDll@@PBDPAUHINSTANCE__@@PAUIChartCtrl@@@Z ; CIWAddInDll423611::CreateObject
  0001a	83 c4 0c	 add	 esp, 12			; 0000000cH

; 283  : }

  0001d	5d		 pop	 ebp
  0001e	c2 0c 00	 ret	 12			; 0000000cH
$LN2@GetCIWAddI:

; 281  : 	}
; 282  : 	return NULL;

  00021	33 c0		 xor	 eax, eax

; 283  : }

  00023	5d		 pop	 ebp
  00024	c2 0c 00	 ret	 12			; 0000000cH
?GetCIWAddInDll423611@CAddInManagerImp@@IAEPAUIAddInDll@@PBDIPAUHINSTANCE__@@@Z ENDP ; CAddInManagerImp::GetCIWAddInDll423611
_TEXT	ENDS
; Function compile flags: /Ogtp
; File D:\git\src\IBK\IBK_DRFN\ProjSrc\SrcChartEx\ChartOCX\AddInManager\IAddInManagerImp.cpp
;	COMDAT ?GetCIWAddInDll003721@CAddInManagerImp@@IAEPAUIAddInDll@@PBDIPAUHINSTANCE__@@@Z
_TEXT	SEGMENT
_p_szAddInModule$ = 8					; size = 4
_p_uAddInVersion$ = 12					; size = 4
_p_hAddIn$ = 16						; size = 4
?GetCIWAddInDll003721@CAddInManagerImp@@IAEPAUIAddInDll@@PBDIPAUHINSTANCE__@@@Z PROC ; CAddInManagerImp::GetCIWAddInDll003721, COMDAT
; _this$ = ecx

; 97   : {

  00000	55		 push	 ebp
  00001	8b ec		 mov	 ebp, esp

; 98   : 	if( CIWAddInDll003721::IVERSION == p_uAddInVersion)

  00003	81 7d 0c 89 0e
	00 00		 cmp	 DWORD PTR _p_uAddInVersion$[ebp], 3721 ; 00000e89H
  0000a	75 15		 jne	 SHORT $LN2@GetCIWAddI

; 99   : 	{
; 100  : #ifdef _DEBUG
; 101  : 		// (2006/6/22 - Seung-Won, Bae) Check DLL Name
; 102  : 		if( !m_bVCheck003721)
; 103  : 		{
; 104  : 			if( stricmp( p_szAddInModule, "FX_ChartGuideLineAddIn.dll"))
; 105  : 				AfxMessageBox( "I003721 Interface was used in [" + CString( p_szAddInModule) + "] !");
; 106  : 			m_bVCheck003531 = TRUE;
; 107  : 		}
; 108  : #endif
; 109  : 		return CIWAddInDll003721::CreateObject( p_szAddInModule, p_hAddIn, m_pIChartCtrl);

  0000c	ff 71 0c	 push	 DWORD PTR [ecx+12]
  0000f	ff 75 10	 push	 DWORD PTR _p_hAddIn$[ebp]
  00012	ff 75 08	 push	 DWORD PTR _p_szAddInModule$[ebp]
  00015	e8 00 00 00 00	 call	 ?CreateObject@CIWAddInDll003721@@SAPAUIAddInDll@@PBDPAUHINSTANCE__@@PAUIChartCtrl@@@Z ; CIWAddInDll003721::CreateObject
  0001a	83 c4 0c	 add	 esp, 12			; 0000000cH

; 112  : }

  0001d	5d		 pop	 ebp
  0001e	c2 0c 00	 ret	 12			; 0000000cH
$LN2@GetCIWAddI:

; 110  : 	}
; 111  : 	return NULL;

  00021	33 c0		 xor	 eax, eax

; 112  : }

  00023	5d		 pop	 ebp
  00024	c2 0c 00	 ret	 12			; 0000000cH
?GetCIWAddInDll003721@CAddInManagerImp@@IAEPAUIAddInDll@@PBDIPAUHINSTANCE__@@@Z ENDP ; CAddInManagerImp::GetCIWAddInDll003721
_TEXT	ENDS
; Function compile flags: /Ogtp
; File D:\git\src\IBK\IBK_DRFN\ProjSrc\SrcChartEx\ChartOCX\AddInManager\IAddInManagerImp.cpp
;	COMDAT ?GetCIWAddInDll003531@CAddInManagerImp@@IAEPAUIAddInDll@@PBDIPAUHINSTANCE__@@@Z
_TEXT	SEGMENT
_p_szAddInModule$ = 8					; size = 4
_p_uAddInVersion$ = 12					; size = 4
_p_hAddIn$ = 16						; size = 4
?GetCIWAddInDll003531@CAddInManagerImp@@IAEPAUIAddInDll@@PBDIPAUHINSTANCE__@@@Z PROC ; CAddInManagerImp::GetCIWAddInDll003531, COMDAT
; _this$ = ecx

; 66   : {

  00000	55		 push	 ebp
  00001	8b ec		 mov	 ebp, esp

; 67   : 	if( CIWAddInDll003531::IVERSION == p_uAddInVersion)

  00003	81 7d 0c cb 0d
	00 00		 cmp	 DWORD PTR _p_uAddInVersion$[ebp], 3531 ; 00000dcbH
  0000a	75 15		 jne	 SHORT $LN2@GetCIWAddI

; 68   : 	{
; 69   : #ifdef _DEBUG
; 70   : 		// (2006/6/22 - Seung-Won, Bae) Check DLL Name
; 71   : 		if( !m_bVCheck003531)
; 72   : 		{
; 73   : 			if( stricmp( p_szAddInModule, "ChartOutsideCustomAddIn.dll"))
; 74   : 				AfxMessageBox( "I003531 Interface was used in [" + CString( p_szAddInModule) + "] !");
; 75   : 			m_bVCheck003531 = TRUE;
; 76   : 		}
; 77   : #endif
; 78   : 		return CIWAddInDll003531::CreateObject( p_szAddInModule, p_hAddIn, m_pIChartCtrl);

  0000c	ff 71 0c	 push	 DWORD PTR [ecx+12]
  0000f	ff 75 10	 push	 DWORD PTR _p_hAddIn$[ebp]
  00012	ff 75 08	 push	 DWORD PTR _p_szAddInModule$[ebp]
  00015	e8 00 00 00 00	 call	 ?CreateObject@CIWAddInDll003531@@SAPAUIAddInDll@@PBDPAUHINSTANCE__@@PAUIChartCtrl@@@Z ; CIWAddInDll003531::CreateObject
  0001a	83 c4 0c	 add	 esp, 12			; 0000000cH

; 81   : }

  0001d	5d		 pop	 ebp
  0001e	c2 0c 00	 ret	 12			; 0000000cH
$LN2@GetCIWAddI:

; 79   : 	}
; 80   : 	return NULL;

  00021	33 c0		 xor	 eax, eax

; 81   : }

  00023	5d		 pop	 ebp
  00024	c2 0c 00	 ret	 12			; 0000000cH
?GetCIWAddInDll003531@CAddInManagerImp@@IAEPAUIAddInDll@@PBDIPAUHINSTANCE__@@@Z ENDP ; CAddInManagerImp::GetCIWAddInDll003531
_TEXT	ENDS
; Function compile flags: /Ogtp
; File D:\git\src\IBK\IBK_DRFN\ProjSrc\SrcChartEx\ChartOCX\AddInManager\IAddInManagerImp.cpp
;	COMDAT ?GetCIWAddInDll000000@CAddInManagerImp@@IAEPAUIAddInDll@@PBDIPAUHINSTANCE__@@@Z
_TEXT	SEGMENT
_p_szAddInModule$ = 8					; size = 4
_p_uAddInVersion$ = 12					; size = 4
_p_hAddIn$ = 16						; size = 4
?GetCIWAddInDll000000@CAddInManagerImp@@IAEPAUIAddInDll@@PBDIPAUHINSTANCE__@@@Z PROC ; CAddInManagerImp::GetCIWAddInDll000000, COMDAT
; _this$ = ecx

; 34   : {

  00000	55		 push	 ebp
  00001	8b ec		 mov	 ebp, esp

; 35   : 	if( CIWAddInDll000000::IVERSION == p_uAddInVersion)

  00003	83 7d 0c 00	 cmp	 DWORD PTR _p_uAddInVersion$[ebp], 0
  00007	75 15		 jne	 SHORT $LN2@GetCIWAddI

; 36   : 	{
; 37   : #ifdef _DEBUG
; 38   : 		// (2006/6/22 - Seung-Won, Bae) Check DLL Name
; 39   : 		if( !m_bVCheck000000)
; 40   : 		{
; 41   : 			if( stricmp( p_szAddInModule, "ChartCommonAddIn.dll"))
; 42   : 				AfxMessageBox( "I000000 Interface was used in [" + CString( p_szAddInModule) + "] !");
; 43   : 			m_bVCheck000000 = TRUE;
; 44   : 		}
; 45   : #endif
; 46   : 		return CIWAddInDll000000::CreateObject( p_szAddInModule, p_hAddIn, m_pIChartCtrl);

  00009	ff 71 0c	 push	 DWORD PTR [ecx+12]
  0000c	ff 75 10	 push	 DWORD PTR _p_hAddIn$[ebp]
  0000f	ff 75 08	 push	 DWORD PTR _p_szAddInModule$[ebp]
  00012	e8 00 00 00 00	 call	 ?CreateObject@CIWAddInDll000000@@SAPAUIAddInDll@@PBDPAUHINSTANCE__@@PAUIChartCtrl@@@Z ; CIWAddInDll000000::CreateObject
  00017	83 c4 0c	 add	 esp, 12			; 0000000cH

; 49   : }

  0001a	5d		 pop	 ebp
  0001b	c2 0c 00	 ret	 12			; 0000000cH
$LN2@GetCIWAddI:

; 47   : 	}
; 48   : 	return NULL;

  0001e	33 c0		 xor	 eax, eax

; 49   : }

  00020	5d		 pop	 ebp
  00021	c2 0c 00	 ret	 12			; 0000000cH
?GetCIWAddInDll000000@CAddInManagerImp@@IAEPAUIAddInDll@@PBDIPAUHINSTANCE__@@@Z ENDP ; CAddInManagerImp::GetCIWAddInDll000000
_TEXT	ENDS
; Function compile flags: /Ogtp
; File D:\git\src\IBK\IBK_DRFN\ProjSrc\SrcChartEx\ChartOCX\AddInManager\IAddInManagerImp.cpp
;	COMDAT ?GetIChartOCX503721@CAddInManagerImp@@MAEPAUIChartOCX503721@@XZ
_TEXT	SEGMENT
?GetIChartOCX503721@CAddInManagerImp@@MAEPAUIChartOCX503721@@XZ PROC ; CAddInManagerImp::GetIChartOCX503721, COMDAT
; _this$ = ecx

; 253  : 	if( !m_pIChartCtrl) return NULL;

  00000	8b 51 04	 mov	 edx, DWORD PTR [ecx+4]
  00003	85 d2		 test	 edx, edx
  00005	75 03		 jne	 SHORT $LN2@GetIChartO
  00007	33 c0		 xor	 eax, eax

; 255  : }

  00009	c3		 ret	 0
$LN2@GetIChartO:

; 254  : 	return CIWChartOCX503721::CreateObject( m_pIChartCtrl, this);

  0000a	8d 41 f8	 lea	 eax, DWORD PTR [ecx-8]
  0000d	50		 push	 eax
  0000e	52		 push	 edx
  0000f	e8 00 00 00 00	 call	 ?CreateObject@CIWChartOCX503721@@SAPAUIChartOCX503721@@PAUIChartCtrl@@PAVCAddInManagerImp@@@Z ; CIWChartOCX503721::CreateObject
  00014	83 c4 08	 add	 esp, 8

; 255  : }

  00017	c3		 ret	 0
?GetIChartOCX503721@CAddInManagerImp@@MAEPAUIChartOCX503721@@XZ ENDP ; CAddInManagerImp::GetIChartOCX503721
_TEXT	ENDS
; Function compile flags: /Ogtp
; File D:\git\src\IBK\IBK_DRFN\ProjSrc\SrcChartEx\ChartOCX\AddInManager\IAddInManagerImp.cpp
;	COMDAT ?GetIChartOCX363721@CAddInManagerImp@@MAEPAUIChartOCX363721@@XZ
_TEXT	SEGMENT
?GetIChartOCX363721@CAddInManagerImp@@MAEPAUIChartOCX363721@@XZ PROC ; CAddInManagerImp::GetIChartOCX363721, COMDAT
; _this$ = ecx

; 219  : 	if( !m_pIChartCtrl) return NULL;

  00000	8b 51 04	 mov	 edx, DWORD PTR [ecx+4]
  00003	85 d2		 test	 edx, edx
  00005	75 03		 jne	 SHORT $LN2@GetIChartO
  00007	33 c0		 xor	 eax, eax

; 221  : }

  00009	c3		 ret	 0
$LN2@GetIChartO:

; 220  : 	return CIWChartOCX363721::CreateObject( m_pIChartCtrl, this);

  0000a	8d 41 f8	 lea	 eax, DWORD PTR [ecx-8]
  0000d	50		 push	 eax
  0000e	52		 push	 edx
  0000f	e8 00 00 00 00	 call	 ?CreateObject@CIWChartOCX363721@@SAPAUIChartOCX363721@@PAUIChartCtrl@@PAVCAddInManagerImp@@@Z ; CIWChartOCX363721::CreateObject
  00014	83 c4 08	 add	 esp, 8

; 221  : }

  00017	c3		 ret	 0
?GetIChartOCX363721@CAddInManagerImp@@MAEPAUIChartOCX363721@@XZ ENDP ; CAddInManagerImp::GetIChartOCX363721
_TEXT	ENDS
; Function compile flags: /Ogtp
; File D:\git\src\IBK\IBK_DRFN\ProjSrc\SrcChartEx\ChartOCX\AddInManager\IAddInManagerImp.cpp
;	COMDAT ?GetIChartOCX333721@CAddInManagerImp@@MAEPAUIChartOCX333721@@XZ
_TEXT	SEGMENT
?GetIChartOCX333721@CAddInManagerImp@@MAEPAUIChartOCX333721@@XZ PROC ; CAddInManagerImp::GetIChartOCX333721, COMDAT
; _this$ = ecx

; 185  : 	if( !m_pIChartCtrl) return NULL;

  00000	8b 51 04	 mov	 edx, DWORD PTR [ecx+4]
  00003	85 d2		 test	 edx, edx
  00005	75 03		 jne	 SHORT $LN2@GetIChartO
  00007	33 c0		 xor	 eax, eax

; 187  : }

  00009	c3		 ret	 0
$LN2@GetIChartO:

; 186  : 	return CIWChartOCX333721::CreateObject( m_pIChartCtrl, this);

  0000a	8d 41 f8	 lea	 eax, DWORD PTR [ecx-8]
  0000d	50		 push	 eax
  0000e	52		 push	 edx
  0000f	e8 00 00 00 00	 call	 ?CreateObject@CIWChartOCX333721@@SAPAUIChartOCX333721@@PAUIChartCtrl@@PAVCAddInManagerImp@@@Z ; CIWChartOCX333721::CreateObject
  00014	83 c4 08	 add	 esp, 8

; 187  : }

  00017	c3		 ret	 0
?GetIChartOCX333721@CAddInManagerImp@@MAEPAUIChartOCX333721@@XZ ENDP ; CAddInManagerImp::GetIChartOCX333721
_TEXT	ENDS
; Function compile flags: /Ogtp
; File D:\git\src\IBK\IBK_DRFN\ProjSrc\SrcChartEx\ChartOCX\AddInManager\IAddInManagerImp.cpp
;	COMDAT ?GetIChartOCX133721@CAddInManagerImp@@MAEPAUIChartOCX133721@@XZ
_TEXT	SEGMENT
?GetIChartOCX133721@CAddInManagerImp@@MAEPAUIChartOCX133721@@XZ PROC ; CAddInManagerImp::GetIChartOCX133721, COMDAT
; _this$ = ecx

; 151  : 	if( !m_pIChartCtrl) return NULL;

  00000	8b 51 04	 mov	 edx, DWORD PTR [ecx+4]
  00003	85 d2		 test	 edx, edx
  00005	75 03		 jne	 SHORT $LN2@GetIChartO
  00007	33 c0		 xor	 eax, eax

; 153  : }

  00009	c3		 ret	 0
$LN2@GetIChartO:

; 152  : 	return CIWChartOCX133721::CreateObject( m_pIChartCtrl, this);

  0000a	8d 41 f8	 lea	 eax, DWORD PTR [ecx-8]
  0000d	50		 push	 eax
  0000e	52		 push	 edx
  0000f	e8 00 00 00 00	 call	 ?CreateObject@CIWChartOCX133721@@SAPAUIChartOCX133721@@PAUIChartCtrl@@PAVCAddInManagerImp@@@Z ; CIWChartOCX133721::CreateObject
  00014	83 c4 08	 add	 esp, 8

; 153  : }

  00017	c3		 ret	 0
?GetIChartOCX133721@CAddInManagerImp@@MAEPAUIChartOCX133721@@XZ ENDP ; CAddInManagerImp::GetIChartOCX133721
_TEXT	ENDS
; Function compile flags: /Ogtp
; File D:\git\src\IBK\IBK_DRFN\ProjSrc\SrcChartEx\ChartOCX\AddInManager\IAddInManagerImp.cpp
; File C:\Program Files (x86)\Microsoft Visual Studio\2019\Community\VC\Tools\MSVC\14.29.30133\atlmfc\include\afx.inl
; File D:\git\src\IBK\IBK_DRFN\ProjSrc\SrcChartEx\ChartOCX\AddInManager\IAddInManagerImp.cpp
;	COMDAT ?GetIChartOCX423611@CAddInManagerImp@@MAEPAUIChartOCX423611@@XZ
_TEXT	SEGMENT
$T2 = -16						; size = 4
__$EHRec$ = -12						; size = 12
?GetIChartOCX423611@CAddInManagerImp@@MAEPAUIChartOCX423611@@XZ PROC ; CAddInManagerImp::GetIChartOCX423611, COMDAT
; _this$ = ecx

; 286  : {

  00000	55		 push	 ebp
  00001	8b ec		 mov	 ebp, esp
  00003	6a ff		 push	 -1
  00005	68 00 00 00 00	 push	 __ehhandler$?GetIChartOCX423611@CAddInManagerImp@@MAEPAUIChartOCX423611@@XZ
  0000a	64 a1 00 00 00
	00		 mov	 eax, DWORD PTR fs:0
  00010	50		 push	 eax
  00011	51		 push	 ecx
  00012	56		 push	 esi
  00013	a1 00 00 00 00	 mov	 eax, DWORD PTR ___security_cookie
  00018	33 c5		 xor	 eax, ebp
  0001a	50		 push	 eax
  0001b	8d 45 f4	 lea	 eax, DWORD PTR __$EHRec$[ebp]
  0001e	64 a3 00 00 00
	00		 mov	 DWORD PTR fs:0, eax
  00024	8b f1		 mov	 esi, ecx

; 287  : 	if( !m_pIChartCtrl) return NULL;

  00026	83 7e 04 00	 cmp	 DWORD PTR [esi+4], 0
  0002a	75 12		 jne	 SHORT $LN2@GetIChartO
  0002c	33 c0		 xor	 eax, eax

; 291  : }

  0002e	8b 4d f4	 mov	 ecx, DWORD PTR __$EHRec$[ebp]
  00031	64 89 0d 00 00
	00 00		 mov	 DWORD PTR fs:0, ecx
  00038	59		 pop	 ecx
  00039	5e		 pop	 esi
  0003a	8b e5		 mov	 esp, ebp
  0003c	5d		 pop	 ebp
  0003d	c3		 ret	 0
$LN2@GetIChartO:
; File C:\Program Files (x86)\Microsoft Visual Studio\2019\Community\VC\Tools\MSVC\14.29.30133\atlmfc\include\afx.inl

; 116  : 	{ return ::operator new(nSize); }

  0003e	6a 14		 push	 20			; 00000014H
  00040	e8 00 00 00 00	 call	 ??2@YAPAXI@Z		; operator new
  00045	83 c4 04	 add	 esp, 4
; File D:\git\src\IBK\IBK_DRFN\ProjSrc\SrcChartEx\ChartOCX\AddInManager\IAddInManagerImp.cpp

; 288  : 	IChartOCX423611 *pIChartOCX423611 = new CIWChartOCX423611( m_pIChartCtrl, this);

  00048	89 45 f0	 mov	 DWORD PTR $T2[ebp], eax
  0004b	c7 45 fc 00 00
	00 00		 mov	 DWORD PTR __$EHRec$[ebp+8], 0
  00052	85 c0		 test	 eax, eax
  00054	74 12		 je	 SHORT $LN4@GetIChartO
  00056	8d 4e f8	 lea	 ecx, DWORD PTR [esi-8]
  00059	51		 push	 ecx
  0005a	ff 76 04	 push	 DWORD PTR [esi+4]
  0005d	8b c8		 mov	 ecx, eax
  0005f	e8 00 00 00 00	 call	 ??0CIWChartOCX423611@@QAE@PAUIChartCtrl@@PAVCAddInManagerImp@@@Z ; CIWChartOCX423611::CIWChartOCX423611
  00064	8b f0		 mov	 esi, eax
  00066	eb 02		 jmp	 SHORT $LN5@GetIChartO
$LN4@GetIChartO:
  00068	33 f6		 xor	 esi, esi
$LN5@GetIChartO:

; 289  : 	pIChartOCX423611->AddRef();

  0006a	8d 46 08	 lea	 eax, DWORD PTR [esi+8]
  0006d	c7 45 fc ff ff
	ff ff		 mov	 DWORD PTR __$EHRec$[ebp+8], -1
  00074	f7 de		 neg	 esi
  00076	1b f6		 sbb	 esi, esi
  00078	23 f0		 and	 esi, eax
  0007a	56		 push	 esi
  0007b	8b 06		 mov	 eax, DWORD PTR [esi]
  0007d	ff 50 04	 call	 DWORD PTR [eax+4]

; 290  : 	return pIChartOCX423611;

  00080	8b c6		 mov	 eax, esi

; 291  : }

  00082	8b 4d f4	 mov	 ecx, DWORD PTR __$EHRec$[ebp]
  00085	64 89 0d 00 00
	00 00		 mov	 DWORD PTR fs:0, ecx
  0008c	59		 pop	 ecx
  0008d	5e		 pop	 esi
  0008e	8b e5		 mov	 esp, ebp
  00090	5d		 pop	 ebp
  00091	c3		 ret	 0
_TEXT	ENDS
;	COMDAT text$x
text$x	SEGMENT
__unwindfunclet$?GetIChartOCX423611@CAddInManagerImp@@MAEPAUIChartOCX423611@@XZ$0:
  00000	8b 45 f0	 mov	 eax, DWORD PTR $T2[ebp]
  00003	50		 push	 eax
  00004	e8 00 00 00 00	 call	 ??3CObject@@SGXPAX@Z	; CObject::operator delete
  00009	c3		 ret	 0
  0000a	cc		 int	 3
  0000b	cc		 int	 3
  0000c	cc		 int	 3
  0000d	cc		 int	 3
  0000e	cc		 int	 3
__ehhandler$?GetIChartOCX423611@CAddInManagerImp@@MAEPAUIChartOCX423611@@XZ:
  0000f	90		 npad	 1
  00010	90		 npad	 1
  00011	8b 54 24 08	 mov	 edx, DWORD PTR [esp+8]
  00015	8d 42 0c	 lea	 eax, DWORD PTR [edx+12]
  00018	8b 4a f4	 mov	 ecx, DWORD PTR [edx-12]
  0001b	33 c8		 xor	 ecx, eax
  0001d	e8 00 00 00 00	 call	 @__security_check_cookie@4
  00022	b8 00 00 00 00	 mov	 eax, OFFSET __ehfuncinfo$?GetIChartOCX423611@CAddInManagerImp@@MAEPAUIChartOCX423611@@XZ
  00027	e9 00 00 00 00	 jmp	 ___CxxFrameHandler3
text$x	ENDS
?GetIChartOCX423611@CAddInManagerImp@@MAEPAUIChartOCX423611@@XZ ENDP ; CAddInManagerImp::GetIChartOCX423611
; Function compile flags: /Ogtp
; File D:\git\src\IBK\IBK_DRFN\ProjSrc\SrcChartEx\ChartOCX\AddInManager\IAddInManagerImp.cpp
;	COMDAT ?GetIChartOCX003721@CAddInManagerImp@@MAEPAUIChartOCX003721@@XZ
_TEXT	SEGMENT
?GetIChartOCX003721@CAddInManagerImp@@MAEPAUIChartOCX003721@@XZ PROC ; CAddInManagerImp::GetIChartOCX003721, COMDAT
; _this$ = ecx

; 116  : 	if( !m_pIChartCtrl) return NULL;

  00000	8b 51 04	 mov	 edx, DWORD PTR [ecx+4]
  00003	85 d2		 test	 edx, edx
  00005	75 03		 jne	 SHORT $LN2@GetIChartO
  00007	33 c0		 xor	 eax, eax

; 118  : }

  00009	c3		 ret	 0
$LN2@GetIChartO:

; 117  : 	return CIWChartOCX003721::CreateObject( m_pIChartCtrl, this);

  0000a	8d 41 f8	 lea	 eax, DWORD PTR [ecx-8]
  0000d	50		 push	 eax
  0000e	52		 push	 edx
  0000f	e8 00 00 00 00	 call	 ?CreateObject@CIWChartOCX003721@@SAPAUIChartOCX003721@@PAUIChartCtrl@@PAVCAddInManagerImp@@@Z ; CIWChartOCX003721::CreateObject
  00014	83 c4 08	 add	 esp, 8

; 118  : }

  00017	c3		 ret	 0
?GetIChartOCX003721@CAddInManagerImp@@MAEPAUIChartOCX003721@@XZ ENDP ; CAddInManagerImp::GetIChartOCX003721
_TEXT	ENDS
; Function compile flags: /Ogtp
; File D:\git\src\IBK\IBK_DRFN\ProjSrc\SrcChartEx\ChartOCX\AddInManager\IAddInManagerImp.cpp
;	COMDAT ?GetIChartOCX003531@CAddInManagerImp@@MAEPAUIChartOCX003531@@XZ
_TEXT	SEGMENT
?GetIChartOCX003531@CAddInManagerImp@@MAEPAUIChartOCX003531@@XZ PROC ; CAddInManagerImp::GetIChartOCX003531, COMDAT
; _this$ = ecx

; 85   : 	if( !m_pIChartCtrl) return NULL;

  00000	8b 51 04	 mov	 edx, DWORD PTR [ecx+4]
  00003	85 d2		 test	 edx, edx
  00005	75 03		 jne	 SHORT $LN2@GetIChartO
  00007	33 c0		 xor	 eax, eax

; 87   : }

  00009	c3		 ret	 0
$LN2@GetIChartO:

; 86   : 	return CIWChartOCX003531::CreateObject( m_pIChartCtrl, this);

  0000a	8d 41 f8	 lea	 eax, DWORD PTR [ecx-8]
  0000d	50		 push	 eax
  0000e	52		 push	 edx
  0000f	e8 00 00 00 00	 call	 ?CreateObject@CIWChartOCX003531@@SAPAUIChartOCX003531@@PAUIChartCtrl@@PAVCAddInManagerImp@@@Z ; CIWChartOCX003531::CreateObject
  00014	83 c4 08	 add	 esp, 8

; 87   : }

  00017	c3		 ret	 0
?GetIChartOCX003531@CAddInManagerImp@@MAEPAUIChartOCX003531@@XZ ENDP ; CAddInManagerImp::GetIChartOCX003531
_TEXT	ENDS
; Function compile flags: /Ogtp
; File D:\git\src\IBK\IBK_DRFN\ProjSrc\SrcChartEx\ChartOCX\AddInManager\IAddInManagerImp.cpp
;	COMDAT ?GetIChartOCX000000@CAddInManagerImp@@MAEPAUIChartOCX000000@@XZ
_TEXT	SEGMENT
?GetIChartOCX000000@CAddInManagerImp@@MAEPAUIChartOCX000000@@XZ PROC ; CAddInManagerImp::GetIChartOCX000000, COMDAT
; _this$ = ecx

; 53   : 	if( !m_pIChartCtrl) return NULL;

  00000	8b 51 04	 mov	 edx, DWORD PTR [ecx+4]
  00003	85 d2		 test	 edx, edx
  00005	75 03		 jne	 SHORT $LN2@GetIChartO
  00007	33 c0		 xor	 eax, eax

; 55   : }

  00009	c3		 ret	 0
$LN2@GetIChartO:

; 54   : 	return CIWChartOCX000000::CreateObject( m_pIChartCtrl, this);

  0000a	8d 41 f8	 lea	 eax, DWORD PTR [ecx-8]
  0000d	50		 push	 eax
  0000e	52		 push	 edx
  0000f	e8 00 00 00 00	 call	 ?CreateObject@CIWChartOCX000000@@SAPAUIChartOCX000000@@PAUIChartCtrl@@PAVCAddInManagerImp@@@Z ; CIWChartOCX000000::CreateObject
  00014	83 c4 08	 add	 esp, 8

; 55   : }

  00017	c3		 ret	 0
?GetIChartOCX000000@CAddInManagerImp@@MAEPAUIChartOCX000000@@XZ ENDP ; CAddInManagerImp::GetIChartOCX000000
_TEXT	ENDS
; Function compile flags: /Ogtp
; File C:\Program Files (x86)\Microsoft Visual Studio\2019\Community\VC\Tools\MSVC\14.29.30133\atlmfc\include\afx.inl
;	COMDAT ??3CObject@@SGXPAX@Z
_TEXT	SEGMENT
_p$ = 8							; size = 4
??3CObject@@SGXPAX@Z PROC				; CObject::operator delete, COMDAT

; 112  : 	{ ::operator delete(p); }

  00000	55		 push	 ebp
  00001	8b ec		 mov	 ebp, esp
  00003	ff 75 08	 push	 DWORD PTR _p$[ebp]
  00006	e8 00 00 00 00	 call	 ??3@YAXPAX@Z		; operator delete
  0000b	83 c4 04	 add	 esp, 4
  0000e	5d		 pop	 ebp
  0000f	c2 04 00	 ret	 4
??3CObject@@SGXPAX@Z ENDP				; CObject::operator delete
_TEXT	ENDS
; Function compile flags: /Ogtp
; File D:\git\src\IBK\IBK_DRFN\ProjSrc\SrcChartEx\ChartOCX\AddInManager\IAddInManagerImp.cpp
;	COMDAT ?__empty_global_delete@@YAXPAXI@Z
_TEXT	SEGMENT
___formal$ = 8						; size = 4
___formal$ = 12						; size = 4
?__empty_global_delete@@YAXPAXI@Z PROC			; __empty_global_delete, COMDAT

  00000	c2 00 00	 ret	 0
?__empty_global_delete@@YAXPAXI@Z ENDP			; __empty_global_delete
_TEXT	ENDS
; Function compile flags: /Ogtp
; File D:\git\src\IBK\IBK_DRFN\ProjSrc\SrcChartEx\ChartOCX\AddInManager\IAddInManagerImp.cpp
;	COMDAT ?__empty_global_delete@@YAXPAX@Z
_TEXT	SEGMENT
___formal$ = 8						; size = 4
?__empty_global_delete@@YAXPAX@Z PROC			; __empty_global_delete, COMDAT

  00000	c2 00 00	 ret	 0
?__empty_global_delete@@YAXPAX@Z ENDP			; __empty_global_delete
_TEXT	ENDS
END
