; Listing generated by Microsoft (R) Optimizing Compiler Version 19.29.30145.0 

	TITLE	D:\git\src\IBK\IBK_DRFN\#DRfn-CS\_Obj\IndicatorCondition\GraphData.obj
	.686P
	.XMM
	include listing.inc
	.model	flat

INCLUDELIB MSVCRT
INCLUDELIB OLDNAMES

PUBLIC	?__empty_global_delete@@YAXPAX@Z		; __empty_global_delete
PUBLIC	?__empty_global_delete@@YAXPAXI@Z		; __empty_global_delete
PUBLIC	?AfxCrtErrorCheck@@YAHH@Z			; AfxCrtErrorCheck
PUBLIC	??1CObject@@UAE@XZ				; CObject::~CObject
PUBLIC	?Serialize@CObject@@UAEXAAVCArchive@@@Z		; CObject::Serialize
PUBLIC	?AssertValid@CObject@@UBEXXZ			; CObject::AssertValid
PUBLIC	?Dump@CObject@@UBEXAAVCDumpContext@@@Z		; CObject::Dump
PUBLIC	??4CPenThickness@@QAEAAV0@ABV0@@Z		; CPenThickness::operator=
PUBLIC	??8CPenThickness@@QBE_NABV0@@Z			; CPenThickness::operator==
PUBLIC	??0CPenThickness@@QAE@XZ			; CPenThickness::CPenThickness
PUBLIC	??0CPenThickness@@QAE@HHHH_N@Z			; CPenThickness::CPenThickness
PUBLIC	??0CPenThickness@@QAE@ABV0@@Z			; CPenThickness::CPenThickness
PUBLIC	?SetData@CPenThickness@@QAEXPBD@Z		; CPenThickness::SetData
PUBLIC	?SetHightlight@CPenThickness@@QAEX_N@Z		; CPenThickness::SetHightlight
PUBLIC	?SetThickness@CPenThickness@@QAEXHHH@Z		; CPenThickness::SetThickness
PUBLIC	?SetThickness1@CPenThickness@@QAEXH@Z		; CPenThickness::SetThickness1
PUBLIC	?SetThickness2@CPenThickness@@QAEXH@Z		; CPenThickness::SetThickness2
PUBLIC	?SetThickness3@CPenThickness@@QAEXH@Z		; CPenThickness::SetThickness3
PUBLIC	?ReversedHightlight@CPenThickness@@QAEXXZ	; CPenThickness::ReversedHightlight
PUBLIC	?IsHightlight@CPenThickness@@QBE_NXZ		; CPenThickness::IsHightlight
PUBLIC	?GetThickness1@CPenThickness@@QBEHXZ		; CPenThickness::GetThickness1
PUBLIC	?GetThickness2@CPenThickness@@QBEHXZ		; CPenThickness::GetThickness2
PUBLIC	?GetThickness3@CPenThickness@@QBEHXZ		; CPenThickness::GetThickness3
PUBLIC	?GetDrawingThickness1@CPenThickness@@QBEHXZ	; CPenThickness::GetDrawingThickness1
PUBLIC	?GetDrawingThickness2@CPenThickness@@QBEHXZ	; CPenThickness::GetDrawingThickness2
PUBLIC	?GetDrawingThickness3@CPenThickness@@QBEHXZ	; CPenThickness::GetDrawingThickness3
PUBLIC	?GetStringData@CPenThickness@@QBEXAAV?$CStringT@DV?$StrTraitMFC_DLL@DV?$ChTraitsCRT@D@ATL@@@@@ATL@@@Z ; CPenThickness::GetStringData
PUBLIC	?SetBaseLineThickness@CPenThickness@@QAEXH@Z	; CPenThickness::SetBaseLineThickness
PUBLIC	?GetBaseLineThickness@CPenThickness@@QBEHXZ	; CPenThickness::GetBaseLineThickness
PUBLIC	?GetDrawingThickness@CPenThickness@@ABEHH@Z	; CPenThickness::GetDrawingThickness
PUBLIC	??4CGraphDataDrawingData@@QAEAAV0@ABV0@@Z	; CGraphDataDrawingData::operator=
PUBLIC	??8CGraphDataDrawingData@@QAE_NABV0@@Z		; CGraphDataDrawingData::operator==
PUBLIC	??0CGraphDataDrawingData@@QAE@XZ		; CGraphDataDrawingData::CGraphDataDrawingData
PUBLIC	??0CGraphDataDrawingData@@QAE@PBD@Z		; CGraphDataDrawingData::CGraphDataDrawingData
PUBLIC	??0CGraphDataDrawingData@@QAE@_N000HH@Z		; CGraphDataDrawingData::CGraphDataDrawingData
PUBLIC	??0CGraphDataDrawingData@@QAE@ABV0@@Z		; CGraphDataDrawingData::CGraphDataDrawingData
PUBLIC	?SetDoesCalcRiseFallRate_LowHigh@CGraphDataDrawingData@@QAEX_N@Z ; CGraphDataDrawingData::SetDoesCalcRiseFallRate_LowHigh
PUBLIC	?SetDoesCalcRiseFallRate_LowCur@CGraphDataDrawingData@@QAEX_N@Z ; CGraphDataDrawingData::SetDoesCalcRiseFallRate_LowCur
PUBLIC	?SetDoesCalcRiseFallRate_HighCur@CGraphDataDrawingData@@QAEX_N@Z ; CGraphDataDrawingData::SetDoesCalcRiseFallRate_HighCur
PUBLIC	?SetDoesCalcRate_PrevCur@CGraphDataDrawingData@@QAEX_N@Z ; CGraphDataDrawingData::SetDoesCalcRate_PrevCur
PUBLIC	?SetCalcRiseFallRate_CurData@CGraphDataDrawingData@@QAEXH@Z ; CGraphDataDrawingData::SetCalcRiseFallRate_CurData
PUBLIC	?SetShowOHLC@CGraphDataDrawingData@@QAEXH@Z	; CGraphDataDrawingData::SetShowOHLC
PUBLIC	?DoesAllDefaultData@CGraphDataDrawingData@@QBE_NXZ ; CGraphDataDrawingData::DoesAllDefaultData
PUBLIC	?DoesCalcRiseFallRate_LowHigh@CGraphDataDrawingData@@QBE_NXZ ; CGraphDataDrawingData::DoesCalcRiseFallRate_LowHigh
PUBLIC	?DoesCalcRiseFallRate_LowCur@CGraphDataDrawingData@@QBE_NXZ ; CGraphDataDrawingData::DoesCalcRiseFallRate_LowCur
PUBLIC	?DoesCalcRiseFallRate_HighCur@CGraphDataDrawingData@@QBE_NXZ ; CGraphDataDrawingData::DoesCalcRiseFallRate_HighCur
PUBLIC	?DoesCalcRate_PrevCur@CGraphDataDrawingData@@QBE_NXZ ; CGraphDataDrawingData::DoesCalcRate_PrevCur
PUBLIC	?GetCalcRiseFallRate_CurData@CGraphDataDrawingData@@QBEHXZ ; CGraphDataDrawingData::GetCalcRiseFallRate_CurData
PUBLIC	?GetShowOHLC@CGraphDataDrawingData@@QBEHXZ	; CGraphDataDrawingData::GetShowOHLC
PUBLIC	?GetData@CGraphDataDrawingData@@QBEXAAV?$CStringT@DV?$StrTraitMFC_DLL@DV?$ChTraitsCRT@D@ATL@@@@@ATL@@@Z ; CGraphDataDrawingData::GetData
PUBLIC	?SetData@CGraphDataDrawingData@@AAEXPBD@Z	; CGraphDataDrawingData::SetData
PUBLIC	?ClearData@CGraphDataDrawingData@@QAEXXZ	; CGraphDataDrawingData::ClearData
PUBLIC	??4CSignalData@@QAEAAV0@ABV0@@Z			; CSignalData::operator=
PUBLIC	??8CSignalData@@QAE_NABV0@@Z			; CSignalData::operator==
PUBLIC	??0CSignalData@@QAE@_N0@Z			; CSignalData::CSignalData
PUBLIC	??0CSignalData@@QAE@PBD@Z			; CSignalData::CSignalData
PUBLIC	??0CSignalData@@QAE@ABV0@@Z			; CSignalData::CSignalData
PUBLIC	??1CSignalData@@QAE@XZ				; CSignalData::~CSignalData
PUBLIC	?SetUse@CSignalData@@QAEX_N@Z			; CSignalData::SetUse
PUBLIC	?SetShow@CSignalData@@QAEX_N@Z			; CSignalData::SetShow
PUBLIC	?IsUse@CSignalData@@QBE_NXZ			; CSignalData::IsUse
PUBLIC	?IsShow@CSignalData@@QBE_NXZ			; CSignalData::IsShow
PUBLIC	?IsDraw@CSignalData@@QBE_NXZ			; CSignalData::IsDraw
PUBLIC	?GetData@CSignalData@@QBEXAAV?$CStringT@DV?$StrTraitMFC_DLL@DV?$ChTraitsCRT@D@ATL@@@@@ATL@@@Z ; CSignalData::GetData
PUBLIC	?SetData@CSignalData@@AAEXPBD@Z			; CSignalData::SetData
PUBLIC	?ClearData@CSignalData@@QAEXXZ			; CSignalData::ClearData
PUBLIC	?ClearCalcDataForDraw@CSignalData@@QAEXXZ	; CSignalData::ClearCalcDataForDraw
PUBLIC	??_FCSignalData@@QAEXXZ				; CSignalData::`default constructor closure'
PUBLIC	??0CGraphData@@QAE@XZ				; CGraphData::CGraphData
PUBLIC	??0CGraphData@@QAE@PBDPAUHWND__@@@Z		; CGraphData::CGraphData
PUBLIC	?GetData@CGraphData@@QBEXAAV?$CStringT@DV?$StrTraitMFC_DLL@DV?$ChTraitsCRT@D@ATL@@@@@ATL@@PBD@Z ; CGraphData::GetData
PUBLIC	??4CGraphData@@QAEAAV0@ABV0@@Z			; CGraphData::operator=
PUBLIC	?ClearData@CGraphData@@QAEXXZ			; CGraphData::ClearData
PUBLIC	?GetPacketNames@CGraphData@@QBE?AV?$CStringT@DV?$StrTraitMFC_DLL@DV?$ChTraitsCRT@D@ATL@@@@@ATL@@XZ ; CGraphData::GetPacketNames
PUBLIC	?SetPacketNames@CGraphData@@QAEXABV?$CStringT@DV?$StrTraitMFC_DLL@DV?$ChTraitsCRT@D@ATL@@@@@ATL@@@Z ; CGraphData::SetPacketNames
PUBLIC	?GetSignalData@CGraphData@@QBE?AVCSignalData@@XZ ; CGraphData::GetSignalData
PUBLIC	?GetSignalData@CGraphData@@QAEAAVCSignalData@@XZ ; CGraphData::GetSignalData
PUBLIC	?IsSignalUse@CGraphData@@QBE_NXZ		; CGraphData::IsSignalUse
PUBLIC	?IsSignalShow@CGraphData@@QBE_NXZ		; CGraphData::IsSignalShow
PUBLIC	?SetSignalData@CGraphData@@QAEXABVCSignalData@@@Z ; CGraphData::SetSignalData
PUBLIC	?SetSignalData@CGraphData@@QAEX_N0@Z		; CGraphData::SetSignalData
PUBLIC	?GetGraphDataDrawingData@CGraphData@@QBE?AVCGraphDataDrawingData@@XZ ; CGraphData::GetGraphDataDrawingData
PUBLIC	?GetGraphDataDrawingData@CGraphData@@QAEAAVCGraphDataDrawingData@@XZ ; CGraphData::GetGraphDataDrawingData
PUBLIC	?SetGraphDataDrawingData@CGraphData@@QAEXABVCGraphDataDrawingData@@@Z ; CGraphData::SetGraphDataDrawingData
PUBLIC	?SetIndicatorName@CGraphData@@MAEXABV?$CStringT@DV?$StrTraitMFC_DLL@DV?$ChTraitsCRT@D@ATL@@@@@ATL@@@Z ; CGraphData::SetIndicatorName
PUBLIC	?SetGraphName@CGraphData@@MAEXABV?$CStringT@DV?$StrTraitMFC_DLL@DV?$ChTraitsCRT@D@ATL@@@@@ATL@@@Z ; CGraphData::SetGraphName
PUBLIC	?GetGraphName@CGraphData@@QBE?AV?$CStringT@DV?$StrTraitMFC_DLL@DV?$ChTraitsCRT@D@ATL@@@@@ATL@@XZ ; CGraphData::GetGraphName
PUBLIC	?GetIndicatorName@CGraphData@@QBE?AV?$CStringT@DV?$StrTraitMFC_DLL@DV?$ChTraitsCRT@D@ATL@@@@@ATL@@XZ ; CGraphData::GetIndicatorName
PUBLIC	?GetGraphName2@CGraphData@@QBE?AV?$CStringT@DV?$StrTraitMFC_DLL@DV?$ChTraitsCRT@D@ATL@@@@@ATL@@XZ ; CGraphData::GetGraphName2
PUBLIC	?GetIndicatorName2@CGraphData@@QBE?AV?$CStringT@DV?$StrTraitMFC_DLL@DV?$ChTraitsCRT@D@ATL@@@@@ATL@@XZ ; CGraphData::GetIndicatorName2
PUBLIC	??1CGraphData@@QAE@XZ				; CGraphData::~CGraphData
PUBLIC	??0CGraphData@@QAE@ABV0@@Z			; CGraphData::CGraphData
PUBLIC	??4CSubGraphDataBase@@QAEAAV0@ABV0@@Z		; CSubGraphDataBase::operator=
PUBLIC	??0CSubGraphDataBase@@QAE@XZ			; CSubGraphDataBase::CSubGraphDataBase
PUBLIC	??0CSubGraphDataBase@@QAE@W4GRAPHTYPE@CGraphBaseData@@ABVCGraphStyle@@ABVCGraphDrawStyle@@ABV?$CStringT@DV?$StrTraitMFC_DLL@DV?$ChTraitsCRT@D@ATL@@@@@ATL@@3_NABVCGraphColor@@ABVCPenThickness@@ABVCGraphPaintStyle@@ABVCGraphBaseLineStyle@@@Z ; CSubGraphDataBase::CSubGraphDataBase
PUBLIC	??0CSubGraphDataBase@@QAE@ABV0@@Z		; CSubGraphDataBase::CSubGraphDataBase
PUBLIC	??0CSubGraphDataBase@@QAE@PBDPAUHWND__@@0@Z	; CSubGraphDataBase::CSubGraphDataBase
PUBLIC	??1CSubGraphDataBase@@QAE@XZ			; CSubGraphDataBase::~CSubGraphDataBase
PUBLIC	?SetTitleEndPosition@CSubGraphDataBase@@QAEXHH@Z ; CSubGraphDataBase::SetTitleEndPosition
PUBLIC	?SetData@CSubGraphDataBase@@QAEXPBDPAUHWND__@@0@Z ; CSubGraphDataBase::SetData
PUBLIC	?SetType@CSubGraphDataBase@@QAEXW4GRAPHTYPE@CGraphBaseData@@@Z ; CSubGraphDataBase::SetType
PUBLIC	?SetStyle@CSubGraphDataBase@@QAEXABVCGraphStyle@@@Z ; CSubGraphDataBase::SetStyle
PUBLIC	?SetDrawStyle@CSubGraphDataBase@@QAEXABVCGraphDrawStyle@@@Z ; CSubGraphDataBase::SetDrawStyle
PUBLIC	?SetName@CSubGraphDataBase@@QAEXABV?$CStringT@DV?$StrTraitMFC_DLL@DV?$ChTraitsCRT@D@ATL@@@@@ATL@@@Z ; CSubGraphDataBase::SetName
PUBLIC	?SetTitle@CSubGraphDataBase@@QAEXABV?$CStringT@DV?$StrTraitMFC_DLL@DV?$ChTraitsCRT@D@ATL@@@@@ATL@@@Z ; CSubGraphDataBase::SetTitle
PUBLIC	?SetHiding@CSubGraphDataBase@@QAEX_N@Z		; CSubGraphDataBase::SetHiding
PUBLIC	?SetColor@CSubGraphDataBase@@QAEXABVCGraphColor@@@Z ; CSubGraphDataBase::SetColor
PUBLIC	?SetPenThickness@CSubGraphDataBase@@QAEXABVCPenThickness@@@Z ; CSubGraphDataBase::SetPenThickness
PUBLIC	?ChangeKeyPart@CSubGraphDataBase@@QAEXABV1@@Z	; CSubGraphDataBase::ChangeKeyPart
PUBLIC	?SetItemName@CSubGraphDataBase@@QAEXABV?$CStringT@DV?$StrTraitMFC_DLL@DV?$ChTraitsCRT@D@ATL@@@@@ATL@@@Z ; CSubGraphDataBase::SetItemName
PUBLIC	?SetSubGraphIndex@CSubGraphDataBase@@QAEXH@Z	; CSubGraphDataBase::SetSubGraphIndex
PUBLIC	?SetPaintStyle@CSubGraphDataBase@@QAEXABVCGraphPaintStyle@@@Z ; CSubGraphDataBase::SetPaintStyle
PUBLIC	?SetBaseLineStyle@CSubGraphDataBase@@QAEXABVCGraphBaseLineStyle@@@Z ; CSubGraphDataBase::SetBaseLineStyle
PUBLIC	?GetTitleEndPosition@CSubGraphDataBase@@QBEHXZ	; CSubGraphDataBase::GetTitleEndPosition
PUBLIC	?GetTitleEndLine@CSubGraphDataBase@@QBEHXZ	; CSubGraphDataBase::GetTitleEndLine
PUBLIC	?GetType@CSubGraphDataBase@@QBE?AW4GRAPHTYPE@CGraphBaseData@@XZ ; CSubGraphDataBase::GetType
PUBLIC	?GetStyle@CSubGraphDataBase@@QBE?AVCGraphStyle@@XZ ; CSubGraphDataBase::GetStyle
PUBLIC	?GetDrawStyle@CSubGraphDataBase@@QBE?AVCGraphDrawStyle@@XZ ; CSubGraphDataBase::GetDrawStyle
PUBLIC	?GetPaintStyle@CSubGraphDataBase@@QBE?AVCGraphPaintStyle@@XZ ; CSubGraphDataBase::GetPaintStyle
PUBLIC	?GetBaseLineDrawStyle@CSubGraphDataBase@@QBE?AVCGraphBaseLineStyle@@XZ ; CSubGraphDataBase::GetBaseLineDrawStyle
PUBLIC	?GetName@CSubGraphDataBase@@QBE?AV?$CStringT@DV?$StrTraitMFC_DLL@DV?$ChTraitsCRT@D@ATL@@@@@ATL@@XZ ; CSubGraphDataBase::GetName
PUBLIC	?GetTitle@CSubGraphDataBase@@QBE?AV?$CStringT@DV?$StrTraitMFC_DLL@DV?$ChTraitsCRT@D@ATL@@@@@ATL@@XZ ; CSubGraphDataBase::GetTitle
PUBLIC	?GetColor@CSubGraphDataBase@@QBE?AVCGraphColor@@XZ ; CSubGraphDataBase::GetColor
PUBLIC	?GetColor_PointerType@CSubGraphDataBase@@QAEPAVCGraphColor@@XZ ; CSubGraphDataBase::GetColor_PointerType
PUBLIC	?GetColor@CSubGraphDataBase@@QAEAAVCGraphColor@@XZ ; CSubGraphDataBase::GetColor
PUBLIC	?GetPenThickness@CSubGraphDataBase@@QBE?AVCPenThickness@@XZ ; CSubGraphDataBase::GetPenThickness
PUBLIC	?GetPenThickness@CSubGraphDataBase@@QAEAAVCPenThickness@@XZ ; CSubGraphDataBase::GetPenThickness
PUBLIC	?GetStringData@CSubGraphDataBase@@QBEXAAV?$CStringT@DV?$StrTraitMFC_DLL@DV?$ChTraitsCRT@D@ATL@@@@@ATL@@@Z ; CSubGraphDataBase::GetStringData
PUBLIC	?GetItemName@CSubGraphDataBase@@QBE?AV?$CStringT@DV?$StrTraitMFC_DLL@DV?$ChTraitsCRT@D@ATL@@@@@ATL@@XZ ; CSubGraphDataBase::GetItemName
PUBLIC	?GetSubGraphIndex@CSubGraphDataBase@@QBEHXZ	; CSubGraphDataBase::GetSubGraphIndex
PUBLIC	?AddHorizontalLine@CSubGraphDataBase@@QAEJPBDKFN@Z ; CSubGraphDataBase::AddHorizontalLine
PUBLIC	?UpdateHorizontalLine@CSubGraphDataBase@@QAEXJPBDKFN@Z ; CSubGraphDataBase::UpdateHorizontalLine
PUBLIC	?DeleteHorizontalLine@CSubGraphDataBase@@QAEXJ@Z ; CSubGraphDataBase::DeleteHorizontalLine
PUBLIC	?DeleteAllHorizontalLine@CSubGraphDataBase@@QAEXXZ ; CSubGraphDataBase::DeleteAllHorizontalLine
PUBLIC	?GetHorizontalLine@CSubGraphDataBase@@QBEABV?$CArray@PAU_ST_HORZLINE@@PAU1@@@XZ ; CSubGraphDataBase::GetHorizontalLine
PUBLIC	??0?$CArray@PAU_ST_HORZLINE@@PAU1@@@QAE@XZ	; CArray<_ST_HORZLINE *,_ST_HORZLINE *>::CArray<_ST_HORZLINE *,_ST_HORZLINE *>
PUBLIC	?SetSize@?$CArray@PAU_ST_HORZLINE@@PAU1@@@QAEXHH@Z ; CArray<_ST_HORZLINE *,_ST_HORZLINE *>::SetSize
PUBLIC	?SetAtGrow@?$CArray@PAU_ST_HORZLINE@@PAU1@@@QAEXHPAU_ST_HORZLINE@@@Z ; CArray<_ST_HORZLINE *,_ST_HORZLINE *>::SetAtGrow
PUBLIC	?Copy@?$CArray@PAU_ST_HORZLINE@@PAU1@@@QAEXABV1@@Z ; CArray<_ST_HORZLINE *,_ST_HORZLINE *>::Copy
PUBLIC	?RemoveAt@?$CArray@PAU_ST_HORZLINE@@PAU1@@@QAEXHH@Z ; CArray<_ST_HORZLINE *,_ST_HORZLINE *>::RemoveAt
PUBLIC	??1?$CArray@PAU_ST_HORZLINE@@PAU1@@@UAE@XZ	; CArray<_ST_HORZLINE *,_ST_HORZLINE *>::~CArray<_ST_HORZLINE *,_ST_HORZLINE *>
PUBLIC	?Serialize@?$CArray@PAU_ST_HORZLINE@@PAU1@@@UAEXAAVCArchive@@@Z ; CArray<_ST_HORZLINE *,_ST_HORZLINE *>::Serialize
PUBLIC	??_G?$CArray@PAU_ST_HORZLINE@@PAU1@@@UAEPAXI@Z	; CArray<_ST_HORZLINE *,_ST_HORZLINE *>::`scalar deleting destructor'
PUBLIC	??0CSubGraphData@@QAE@XZ			; CSubGraphData::CSubGraphData
PUBLIC	??0CSubGraphData@@QAE@W4GRAPHTYPE@CGraphBaseData@@ABVCGraphStyle@@ABVCGraphDrawStyle@@ABV?$CStringT@DV?$StrTraitMFC_DLL@DV?$ChTraitsCRT@D@ATL@@@@@ATL@@3_NABVCGraphColor@@ABVCPenThickness@@ABVCGraphPaintStyle@@ABVCGraphBaseLineStyle@@@Z ; CSubGraphData::CSubGraphData
PUBLIC	??0CSubGraphData@@QAE@ABV0@@Z			; CSubGraphData::CSubGraphData
PUBLIC	??0CSubGraphData@@QAE@PBDPAUHWND__@@0@Z		; CSubGraphData::CSubGraphData
PUBLIC	??1CSubGraphData@@QAE@XZ			; CSubGraphData::~CSubGraphData
PUBLIC	?ClearCalcDataForDraw@CSubGraphData@@QAEXXZ	; CSubGraphData::ClearCalcDataForDraw
PUBLIC	?GetHiding@CSubGraphData@@ABE_NXZ		; CSubGraphData::GetHiding
PUBLIC	??4CSubGraphData@@QAEAAV0@ABV0@@Z		; CSubGraphData::operator=
PUBLIC	??$SerializeElements@PAU_ST_HORZLINE@@@@YGXAAVCArchive@@PAPAU_ST_HORZLINE@@H@Z ; SerializeElements<_ST_HORZLINE *>
PUBLIC	??_R0?AVCObject@@@8				; CObject `RTTI Type Descriptor'
PUBLIC	??_R3CObject@@8					; CObject::`RTTI Class Hierarchy Descriptor'
PUBLIC	??_R2CObject@@8					; CObject::`RTTI Base Class Array'
PUBLIC	??_R1A@?0A@EA@CObject@@8			; CObject::`RTTI Base Class Descriptor at (0,-1,0,64)'
PUBLIC	??_7CGraphDataBase@@6B@				; CGraphDataBase::`vftable'
PUBLIC	??_7CGraphData@@6B@				; CGraphData::`vftable'
PUBLIC	??_7?$CArray@PAU_ST_HORZLINE@@PAU1@@@6B@	; CArray<_ST_HORZLINE *,_ST_HORZLINE *>::`vftable'
PUBLIC	??_C@_02FAMCGDNB@G?3@				; `string'
PUBLIC	??_C@_07ECDJHDFC@?0?$CI?$CL?$CJ?123@		; `string'
PUBLIC	??_C@_01IHBHIGKO@?0@				; `string'
PUBLIC	??_R4CGraphDataBase@@6B@			; CGraphDataBase::`RTTI Complete Object Locator'
PUBLIC	??_R0?AVCGraphDataBase@@@8			; CGraphDataBase `RTTI Type Descriptor'
PUBLIC	??_R3CGraphDataBase@@8				; CGraphDataBase::`RTTI Class Hierarchy Descriptor'
PUBLIC	??_R2CGraphDataBase@@8				; CGraphDataBase::`RTTI Base Class Array'
PUBLIC	??_R1A@?0A@EA@CGraphDataBase@@8			; CGraphDataBase::`RTTI Base Class Descriptor at (0,-1,0,64)'
PUBLIC	??_R4CGraphData@@6B@				; CGraphData::`RTTI Complete Object Locator'
PUBLIC	??_R0?AVCGraphData@@@8				; CGraphData `RTTI Type Descriptor'
PUBLIC	??_R3CGraphData@@8				; CGraphData::`RTTI Class Hierarchy Descriptor'
PUBLIC	??_R2CGraphData@@8				; CGraphData::`RTTI Base Class Array'
PUBLIC	??_R1A@?0A@EA@CGraphData@@8			; CGraphData::`RTTI Base Class Descriptor at (0,-1,0,64)'
PUBLIC	??_R4?$CArray@PAU_ST_HORZLINE@@PAU1@@@6B@	; CArray<_ST_HORZLINE *,_ST_HORZLINE *>::`RTTI Complete Object Locator'
PUBLIC	??_R0?AV?$CArray@PAU_ST_HORZLINE@@PAU1@@@@8	; CArray<_ST_HORZLINE *,_ST_HORZLINE *> `RTTI Type Descriptor'
PUBLIC	??_R3?$CArray@PAU_ST_HORZLINE@@PAU1@@@8		; CArray<_ST_HORZLINE *,_ST_HORZLINE *>::`RTTI Class Hierarchy Descriptor'
PUBLIC	??_R2?$CArray@PAU_ST_HORZLINE@@PAU1@@@8		; CArray<_ST_HORZLINE *,_ST_HORZLINE *>::`RTTI Base Class Array'
PUBLIC	??_R1A@?0A@EA@?$CArray@PAU_ST_HORZLINE@@PAU1@@@8 ; CArray<_ST_HORZLINE *,_ST_HORZLINE *>::`RTTI Base Class Descriptor at (0,-1,0,64)'
EXTRN	__purecall:PROC
EXTRN	??2@YAPAXI@Z:PROC				; operator new
EXTRN	??3@YAXPAX@Z:PROC				; operator delete
EXTRN	??3@YAXPAXI@Z:PROC				; operator delete
EXTRN	?__global_delete@@YAXPAXI@Z:PROC		; __global_delete
EXTRN	??_U@YAPAXI@Z:PROC				; operator new[]
EXTRN	??_V@YAXPAX@Z:PROC				; operator delete[]
EXTRN	___std_terminate:PROC
EXTRN	__imp___invalid_parameter_noinfo:PROC
EXTRN	__imp___errno:PROC
EXTRN	_strchr:PROC
EXTRN	__imp__strncmp:PROC
EXTRN	__imp__lstrlenA@4:PROC
EXTRN	__imp__atoi:PROC
EXTRN	__imp__itoa:PROC
EXTRN	?AfxThrowMemoryException@@YGXXZ:PROC		; AfxThrowMemoryException
EXTRN	?AfxThrowInvalidArgException@@YGXXZ:PROC	; AfxThrowInvalidArgException
EXTRN	?AfxThrowArchiveException@@YGXHPBD@Z:PROC	; AfxThrowArchiveException
EXTRN	?GetRuntimeClass@CObject@@UBEPAUCRuntimeClass@@XZ:PROC ; CObject::GetRuntimeClass
EXTRN	__imp_?Empty@?$CSimpleStringT@D$00@ATL@@QAEXXZ:PROC
EXTRN	__imp_?GetBufferSetLength@?$CSimpleStringT@D$00@ATL@@QAEPADH@Z:PROC
EXTRN	__imp_??0?$CStringT@DV?$StrTraitMFC_DLL@DV?$ChTraitsCRT@D@ATL@@@@@ATL@@QAE@XZ:PROC
EXTRN	__imp_??0?$CStringT@DV?$StrTraitMFC_DLL@DV?$ChTraitsCRT@D@ATL@@@@@ATL@@QAE@ABV01@@Z:PROC
EXTRN	__imp_??0?$CStringT@DV?$StrTraitMFC_DLL@DV?$ChTraitsCRT@D@ATL@@@@@ATL@@QAE@PBD@Z:PROC
EXTRN	__imp_??1?$CStringT@DV?$StrTraitMFC_DLL@DV?$ChTraitsCRT@D@ATL@@@@@ATL@@QAE@XZ:PROC
EXTRN	__imp_??4?$CStringT@DV?$StrTraitMFC_DLL@DV?$ChTraitsCRT@D@ATL@@@@@ATL@@QAEAAV01@ABV01@@Z:PROC
EXTRN	__imp_??4?$CStringT@DV?$StrTraitMFC_DLL@DV?$ChTraitsCRT@D@ATL@@@@@ATL@@QAEAAV01@PBD@Z:PROC
EXTRN	__imp_?Compare@?$CStringT@DV?$StrTraitMFC_DLL@DV?$ChTraitsCRT@D@ATL@@@@@ATL@@QBEHPBD@Z:PROC
EXTRN	?Read@CArchive@@QAEIPAXI@Z:PROC			; CArchive::Read
EXTRN	?Write@CArchive@@QAEXPBXI@Z:PROC		; CArchive::Write
EXTRN	?ReadCount@CArchive@@QAEKXZ:PROC		; CArchive::ReadCount
EXTRN	?WriteCount@CArchive@@QAEXK@Z:PROC		; CArchive::WriteCount
EXTRN	??4CGraphColor@@QAEAAV0@ABV0@@Z:PROC		; CGraphColor::operator=
EXTRN	??0CGraphColor@@QAE@XZ:PROC			; CGraphColor::CGraphColor
EXTRN	??0CGraphColor@@QAE@ABV0@@Z:PROC		; CGraphColor::CGraphColor
EXTRN	?SetData@CGraphColor@@QAEXPBDH@Z:PROC		; CGraphColor::SetData
EXTRN	?GetStringData@CGraphColor@@QBEXAAV?$CStringT@DV?$StrTraitMFC_DLL@DV?$ChTraitsCRT@D@ATL@@@@@ATL@@@Z:PROC ; CGraphColor::GetStringData
EXTRN	??_E?$CArray@PAU_ST_HORZLINE@@PAU1@@@UAEPAXI@Z:PROC ; CArray<_ST_HORZLINE *,_ST_HORZLINE *>::`vector deleting destructor'
EXTRN	?GetMetaTextFromOther@IMetaTable@@QAEPBDPAUHWND__@@W4E_CODEPAGE@1@PBDH@Z:PROC ; IMetaTable::GetMetaTextFromOther
EXTRN	?GetMetaTextForScript@IMetaTable@@QAEPBDPAUHWND__@@W4E_CODEPAGE@1@PBDH@Z:PROC ; IMetaTable::GetMetaTextForScript
EXTRN	?GetMultipleMetaTextForScript@IMetaTable@@QAE?AV?$CStringT@DV?$StrTraitMFC_DLL@DV?$ChTraitsCRT@D@ATL@@@@@ATL@@PAUHWND__@@V23@1HH@Z:PROC ; IMetaTable::GetMultipleMetaTextForScript
EXTRN	?IsTitleIncludeCondition@IMetaTable@@QAE_NABV?$CStringT@DV?$StrTraitMFC_DLL@DV?$ChTraitsCRT@D@ATL@@@@@ATL@@@Z:PROC ; IMetaTable::IsTitleIncludeCondition
EXTRN	@__security_check_cookie@4:PROC
EXTRN	___CxxFrameHandler3:PROC
EXTRN	_memcpy:PROC
EXTRN	_memmove:PROC
EXTRN	_memset:PROC
EXTRN	??_7type_info@@6B@:QWORD			; type_info::`vftable'
EXTRN	?g_iMetaTable@@3VIMetaTable@@A:BYTE		; g_iMetaTable
EXTRN	___security_cookie:DWORD
EXTRN	__fltused:DWORD
;	COMDAT ??_R1A@?0A@EA@?$CArray@PAU_ST_HORZLINE@@PAU1@@@8
rdata$r	SEGMENT
??_R1A@?0A@EA@?$CArray@PAU_ST_HORZLINE@@PAU1@@@8 DD FLAT:??_R0?AV?$CArray@PAU_ST_HORZLINE@@PAU1@@@@8 ; CArray<_ST_HORZLINE *,_ST_HORZLINE *>::`RTTI Base Class Descriptor at (0,-1,0,64)'
	DD	01H
	DD	00H
	DD	0ffffffffH
	DD	00H
	DD	040H
	DD	FLAT:??_R3?$CArray@PAU_ST_HORZLINE@@PAU1@@@8
rdata$r	ENDS
;	COMDAT ??_R2?$CArray@PAU_ST_HORZLINE@@PAU1@@@8
rdata$r	SEGMENT
??_R2?$CArray@PAU_ST_HORZLINE@@PAU1@@@8 DD FLAT:??_R1A@?0A@EA@?$CArray@PAU_ST_HORZLINE@@PAU1@@@8 ; CArray<_ST_HORZLINE *,_ST_HORZLINE *>::`RTTI Base Class Array'
	DD	FLAT:??_R1A@?0A@EA@CObject@@8
rdata$r	ENDS
;	COMDAT ??_R3?$CArray@PAU_ST_HORZLINE@@PAU1@@@8
rdata$r	SEGMENT
??_R3?$CArray@PAU_ST_HORZLINE@@PAU1@@@8 DD 00H		; CArray<_ST_HORZLINE *,_ST_HORZLINE *>::`RTTI Class Hierarchy Descriptor'
	DD	00H
	DD	02H
	DD	FLAT:??_R2?$CArray@PAU_ST_HORZLINE@@PAU1@@@8
rdata$r	ENDS
;	COMDAT ??_R0?AV?$CArray@PAU_ST_HORZLINE@@PAU1@@@@8
data$rs	SEGMENT
??_R0?AV?$CArray@PAU_ST_HORZLINE@@PAU1@@@@8 DD FLAT:??_7type_info@@6B@ ; CArray<_ST_HORZLINE *,_ST_HORZLINE *> `RTTI Type Descriptor'
	DD	00H
	DB	'.?AV?$CArray@PAU_ST_HORZLINE@@PAU1@@@', 00H
data$rs	ENDS
;	COMDAT ??_R4?$CArray@PAU_ST_HORZLINE@@PAU1@@@6B@
rdata$r	SEGMENT
??_R4?$CArray@PAU_ST_HORZLINE@@PAU1@@@6B@ DD 00H	; CArray<_ST_HORZLINE *,_ST_HORZLINE *>::`RTTI Complete Object Locator'
	DD	00H
	DD	00H
	DD	FLAT:??_R0?AV?$CArray@PAU_ST_HORZLINE@@PAU1@@@@8
	DD	FLAT:??_R3?$CArray@PAU_ST_HORZLINE@@PAU1@@@8
rdata$r	ENDS
;	COMDAT ??_R1A@?0A@EA@CGraphData@@8
rdata$r	SEGMENT
??_R1A@?0A@EA@CGraphData@@8 DD FLAT:??_R0?AVCGraphData@@@8 ; CGraphData::`RTTI Base Class Descriptor at (0,-1,0,64)'
	DD	01H
	DD	00H
	DD	0ffffffffH
	DD	00H
	DD	040H
	DD	FLAT:??_R3CGraphData@@8
rdata$r	ENDS
;	COMDAT ??_R2CGraphData@@8
rdata$r	SEGMENT
??_R2CGraphData@@8 DD FLAT:??_R1A@?0A@EA@CGraphData@@8	; CGraphData::`RTTI Base Class Array'
	DD	FLAT:??_R1A@?0A@EA@CGraphDataBase@@8
rdata$r	ENDS
;	COMDAT ??_R3CGraphData@@8
rdata$r	SEGMENT
??_R3CGraphData@@8 DD 00H				; CGraphData::`RTTI Class Hierarchy Descriptor'
	DD	00H
	DD	02H
	DD	FLAT:??_R2CGraphData@@8
rdata$r	ENDS
;	COMDAT ??_R0?AVCGraphData@@@8
data$rs	SEGMENT
??_R0?AVCGraphData@@@8 DD FLAT:??_7type_info@@6B@	; CGraphData `RTTI Type Descriptor'
	DD	00H
	DB	'.?AVCGraphData@@', 00H
data$rs	ENDS
;	COMDAT ??_R4CGraphData@@6B@
rdata$r	SEGMENT
??_R4CGraphData@@6B@ DD 00H				; CGraphData::`RTTI Complete Object Locator'
	DD	00H
	DD	00H
	DD	FLAT:??_R0?AVCGraphData@@@8
	DD	FLAT:??_R3CGraphData@@8
rdata$r	ENDS
;	COMDAT ??_R1A@?0A@EA@CGraphDataBase@@8
rdata$r	SEGMENT
??_R1A@?0A@EA@CGraphDataBase@@8 DD FLAT:??_R0?AVCGraphDataBase@@@8 ; CGraphDataBase::`RTTI Base Class Descriptor at (0,-1,0,64)'
	DD	00H
	DD	00H
	DD	0ffffffffH
	DD	00H
	DD	040H
	DD	FLAT:??_R3CGraphDataBase@@8
rdata$r	ENDS
;	COMDAT ??_R2CGraphDataBase@@8
rdata$r	SEGMENT
??_R2CGraphDataBase@@8 DD FLAT:??_R1A@?0A@EA@CGraphDataBase@@8 ; CGraphDataBase::`RTTI Base Class Array'
rdata$r	ENDS
;	COMDAT ??_R3CGraphDataBase@@8
rdata$r	SEGMENT
??_R3CGraphDataBase@@8 DD 00H				; CGraphDataBase::`RTTI Class Hierarchy Descriptor'
	DD	00H
	DD	01H
	DD	FLAT:??_R2CGraphDataBase@@8
rdata$r	ENDS
;	COMDAT ??_R0?AVCGraphDataBase@@@8
data$rs	SEGMENT
??_R0?AVCGraphDataBase@@@8 DD FLAT:??_7type_info@@6B@	; CGraphDataBase `RTTI Type Descriptor'
	DD	00H
	DB	'.?AVCGraphDataBase@@', 00H
data$rs	ENDS
;	COMDAT ??_R4CGraphDataBase@@6B@
rdata$r	SEGMENT
??_R4CGraphDataBase@@6B@ DD 00H				; CGraphDataBase::`RTTI Complete Object Locator'
	DD	00H
	DD	00H
	DD	FLAT:??_R0?AVCGraphDataBase@@@8
	DD	FLAT:??_R3CGraphDataBase@@8
rdata$r	ENDS
;	COMDAT ??_C@_01IHBHIGKO@?0@
CONST	SEGMENT
??_C@_01IHBHIGKO@?0@ DB ',', 00H			; `string'
CONST	ENDS
;	COMDAT ??_C@_07ECDJHDFC@?0?$CI?$CL?$CJ?123@
CONST	SEGMENT
??_C@_07ECDJHDFC@?0?$CI?$CL?$CJ?123@ DB ',(+)/23', 00H	; `string'
CONST	ENDS
;	COMDAT ??_C@_02FAMCGDNB@G?3@
CONST	SEGMENT
??_C@_02FAMCGDNB@G?3@ DB 'G:', 00H			; `string'
CONST	ENDS
;	COMDAT ??_7?$CArray@PAU_ST_HORZLINE@@PAU1@@@6B@
CONST	SEGMENT
??_7?$CArray@PAU_ST_HORZLINE@@PAU1@@@6B@ DD FLAT:??_R4?$CArray@PAU_ST_HORZLINE@@PAU1@@@6B@ ; CArray<_ST_HORZLINE *,_ST_HORZLINE *>::`vftable'
	DD	FLAT:?GetRuntimeClass@CObject@@UBEPAUCRuntimeClass@@XZ
	DD	FLAT:??_E?$CArray@PAU_ST_HORZLINE@@PAU1@@@UAEPAXI@Z
	DD	FLAT:?Serialize@?$CArray@PAU_ST_HORZLINE@@PAU1@@@UAEXAAVCArchive@@@Z
	DD	FLAT:?AssertValid@CObject@@UBEXXZ
	DD	FLAT:?Dump@CObject@@UBEXAAVCDumpContext@@@Z
CONST	ENDS
;	COMDAT ??_7CGraphData@@6B@
CONST	SEGMENT
??_7CGraphData@@6B@ DD FLAT:??_R4CGraphData@@6B@	; CGraphData::`vftable'
	DD	FLAT:?SetIndicatorName@CGraphData@@MAEXABV?$CStringT@DV?$StrTraitMFC_DLL@DV?$ChTraitsCRT@D@ATL@@@@@ATL@@@Z
	DD	FLAT:?SetGraphName@CGraphData@@MAEXABV?$CStringT@DV?$StrTraitMFC_DLL@DV?$ChTraitsCRT@D@ATL@@@@@ATL@@@Z
CONST	ENDS
;	COMDAT ??_7CGraphDataBase@@6B@
CONST	SEGMENT
??_7CGraphDataBase@@6B@ DD FLAT:??_R4CGraphDataBase@@6B@ ; CGraphDataBase::`vftable'
	DD	FLAT:__purecall
	DD	FLAT:__purecall
CONST	ENDS
;	COMDAT ??_R1A@?0A@EA@CObject@@8
rdata$r	SEGMENT
??_R1A@?0A@EA@CObject@@8 DD FLAT:??_R0?AVCObject@@@8	; CObject::`RTTI Base Class Descriptor at (0,-1,0,64)'
	DD	00H
	DD	00H
	DD	0ffffffffH
	DD	00H
	DD	040H
	DD	FLAT:??_R3CObject@@8
rdata$r	ENDS
;	COMDAT ??_R2CObject@@8
rdata$r	SEGMENT
??_R2CObject@@8 DD FLAT:??_R1A@?0A@EA@CObject@@8	; CObject::`RTTI Base Class Array'
rdata$r	ENDS
;	COMDAT ??_R3CObject@@8
rdata$r	SEGMENT
??_R3CObject@@8 DD 00H					; CObject::`RTTI Class Hierarchy Descriptor'
	DD	00H
	DD	01H
	DD	FLAT:??_R2CObject@@8
rdata$r	ENDS
;	COMDAT ??_R0?AVCObject@@@8
data$rs	SEGMENT
??_R0?AVCObject@@@8 DD FLAT:??_7type_info@@6B@		; CObject `RTTI Type Descriptor'
	DD	00H
	DB	'.?AVCObject@@', 00H
data$rs	ENDS
;	COMDAT xdata$x
xdata$x	SEGMENT
__unwindtable$??1CSubGraphData@@QAE@XZ DD 0ffffffffH
	DD	FLAT:___std_terminate
__ehfuncinfo$??1CSubGraphData@@QAE@XZ DD 019930522H
	DD	01H
	DD	FLAT:__unwindtable$??1CSubGraphData@@QAE@XZ
	DD	2 DUP(00H)
	DD	2 DUP(00H)
	DD	00H
	DD	05H
xdata$x	ENDS
;	COMDAT xdata$x
xdata$x	SEGMENT
__unwindtable$?GetStringData@CSubGraphDataBase@@QBEXAAV?$CStringT@DV?$StrTraitMFC_DLL@DV?$ChTraitsCRT@D@ATL@@@@@ATL@@@Z DD 0ffffffffH
	DD	FLAT:__unwindfunclet$?GetStringData@CSubGraphDataBase@@QBEXAAV?$CStringT@DV?$StrTraitMFC_DLL@DV?$ChTraitsCRT@D@ATL@@@@@ATL@@@Z$0
	DD	00H
	DD	FLAT:__unwindfunclet$?GetStringData@CSubGraphDataBase@@QBEXAAV?$CStringT@DV?$StrTraitMFC_DLL@DV?$ChTraitsCRT@D@ATL@@@@@ATL@@@Z$1
__ehfuncinfo$?GetStringData@CSubGraphDataBase@@QBEXAAV?$CStringT@DV?$StrTraitMFC_DLL@DV?$ChTraitsCRT@D@ATL@@@@@ATL@@@Z DD 019930522H
	DD	02H
	DD	FLAT:__unwindtable$?GetStringData@CSubGraphDataBase@@QBEXAAV?$CStringT@DV?$StrTraitMFC_DLL@DV?$ChTraitsCRT@D@ATL@@@@@ATL@@@Z
	DD	2 DUP(00H)
	DD	2 DUP(00H)
	DD	00H
	DD	01H
xdata$x	ENDS
;	COMDAT xdata$x
xdata$x	SEGMENT
__unwindtable$?ChangeKeyPart@CSubGraphDataBase@@QAEXABV1@@Z DD 0ffffffffH
	DD	FLAT:__unwindfunclet$?ChangeKeyPart@CSubGraphDataBase@@QAEXABV1@@Z$0
__ehfuncinfo$?ChangeKeyPart@CSubGraphDataBase@@QAEXABV1@@Z DD 019930522H
	DD	01H
	DD	FLAT:__unwindtable$?ChangeKeyPart@CSubGraphDataBase@@QAEXABV1@@Z
	DD	2 DUP(00H)
	DD	2 DUP(00H)
	DD	00H
	DD	01H
xdata$x	ENDS
;	COMDAT xdata$x
xdata$x	SEGMENT
__unwindtable$?SetData@CSubGraphDataBase@@QAEXPBDPAUHWND__@@0@Z DD 0ffffffffH
	DD	00H
	DD	0ffffffffH
	DD	FLAT:__unwindfunclet$?SetData@CSubGraphDataBase@@QAEXPBDPAUHWND__@@0@Z$0
	DD	01H
	DD	FLAT:__unwindfunclet$?SetData@CSubGraphDataBase@@QAEXPBDPAUHWND__@@0@Z$1
__ehfuncinfo$?SetData@CSubGraphDataBase@@QAEXPBDPAUHWND__@@0@Z DD 019930522H
	DD	03H
	DD	FLAT:__unwindtable$?SetData@CSubGraphDataBase@@QAEXPBDPAUHWND__@@0@Z
	DD	2 DUP(00H)
	DD	2 DUP(00H)
	DD	00H
	DD	01H
xdata$x	ENDS
;	COMDAT xdata$x
xdata$x	SEGMENT
__ehfuncinfo$??1CSubGraphDataBase@@QAE@XZ DD 019930522H
	DD	00H
	DD	00H
	DD	2 DUP(00H)
	DD	2 DUP(00H)
	DD	00H
	DD	05H
xdata$x	ENDS
;	COMDAT xdata$x
xdata$x	SEGMENT
__unwindtable$??0CSubGraphDataBase@@QAE@PBDPAUHWND__@@0@Z DD 0ffffffffH
	DD	FLAT:__unwindfunclet$??0CSubGraphDataBase@@QAE@PBDPAUHWND__@@0@Z$0
	DD	00H
	DD	FLAT:__unwindfunclet$??0CSubGraphDataBase@@QAE@PBDPAUHWND__@@0@Z$1
	DD	01H
	DD	FLAT:__unwindfunclet$??0CSubGraphDataBase@@QAE@PBDPAUHWND__@@0@Z$2
	DD	02H
	DD	FLAT:__unwindfunclet$??0CSubGraphDataBase@@QAE@PBDPAUHWND__@@0@Z$3
__ehfuncinfo$??0CSubGraphDataBase@@QAE@PBDPAUHWND__@@0@Z DD 019930522H
	DD	04H
	DD	FLAT:__unwindtable$??0CSubGraphDataBase@@QAE@PBDPAUHWND__@@0@Z
	DD	2 DUP(00H)
	DD	2 DUP(00H)
	DD	00H
	DD	01H
xdata$x	ENDS
;	COMDAT xdata$x
xdata$x	SEGMENT
__unwindtable$??0CSubGraphDataBase@@QAE@ABV0@@Z DD 0ffffffffH
	DD	FLAT:__unwindfunclet$??0CSubGraphDataBase@@QAE@ABV0@@Z$0
	DD	00H
	DD	FLAT:__unwindfunclet$??0CSubGraphDataBase@@QAE@ABV0@@Z$1
	DD	01H
	DD	FLAT:__unwindfunclet$??0CSubGraphDataBase@@QAE@ABV0@@Z$2
	DD	02H
	DD	FLAT:__unwindfunclet$??0CSubGraphDataBase@@QAE@ABV0@@Z$3
__ehfuncinfo$??0CSubGraphDataBase@@QAE@ABV0@@Z DD 019930522H
	DD	04H
	DD	FLAT:__unwindtable$??0CSubGraphDataBase@@QAE@ABV0@@Z
	DD	2 DUP(00H)
	DD	2 DUP(00H)
	DD	00H
	DD	01H
xdata$x	ENDS
;	COMDAT xdata$x
xdata$x	SEGMENT
__unwindtable$??0CSubGraphDataBase@@QAE@W4GRAPHTYPE@CGraphBaseData@@ABVCGraphStyle@@ABVCGraphDrawStyle@@ABV?$CStringT@DV?$StrTraitMFC_DLL@DV?$ChTraitsCRT@D@ATL@@@@@ATL@@3_NABVCGraphColor@@ABVCPenThickness@@ABVCGraphPaintStyle@@ABVCGraphBaseLineStyle@@@Z DD 0ffffffffH
	DD	FLAT:__unwindfunclet$??0CSubGraphDataBase@@QAE@W4GRAPHTYPE@CGraphBaseData@@ABVCGraphStyle@@ABVCGraphDrawStyle@@ABV?$CStringT@DV?$StrTraitMFC_DLL@DV?$ChTraitsCRT@D@ATL@@@@@ATL@@3_NABVCGraphColor@@ABVCPenThickness@@ABVCGraphPaintStyle@@ABVCGraphBaseLineStyle@@@Z$0
	DD	00H
	DD	FLAT:__unwindfunclet$??0CSubGraphDataBase@@QAE@W4GRAPHTYPE@CGraphBaseData@@ABVCGraphStyle@@ABVCGraphDrawStyle@@ABV?$CStringT@DV?$StrTraitMFC_DLL@DV?$ChTraitsCRT@D@ATL@@@@@ATL@@3_NABVCGraphColor@@ABVCPenThickness@@ABVCGraphPaintStyle@@ABVCGraphBaseLineStyle@@@Z$1
__ehfuncinfo$??0CSubGraphDataBase@@QAE@W4GRAPHTYPE@CGraphBaseData@@ABVCGraphStyle@@ABVCGraphDrawStyle@@ABV?$CStringT@DV?$StrTraitMFC_DLL@DV?$ChTraitsCRT@D@ATL@@@@@ATL@@3_NABVCGraphColor@@ABVCPenThickness@@ABVCGraphPaintStyle@@ABVCGraphBaseLineStyle@@@Z DD 019930522H
	DD	02H
	DD	FLAT:__unwindtable$??0CSubGraphDataBase@@QAE@W4GRAPHTYPE@CGraphBaseData@@ABVCGraphStyle@@ABVCGraphDrawStyle@@ABV?$CStringT@DV?$StrTraitMFC_DLL@DV?$ChTraitsCRT@D@ATL@@@@@ATL@@3_NABVCGraphColor@@ABVCPenThickness@@ABVCGraphPaintStyle@@ABVCGraphBaseLineStyle@@@Z
	DD	2 DUP(00H)
	DD	2 DUP(00H)
	DD	00H
	DD	01H
xdata$x	ENDS
;	COMDAT xdata$x
xdata$x	SEGMENT
__unwindtable$??0CSubGraphDataBase@@QAE@XZ DD 0ffffffffH
	DD	FLAT:__unwindfunclet$??0CSubGraphDataBase@@QAE@XZ$0
	DD	00H
	DD	FLAT:__unwindfunclet$??0CSubGraphDataBase@@QAE@XZ$1
__ehfuncinfo$??0CSubGraphDataBase@@QAE@XZ DD 019930522H
	DD	02H
	DD	FLAT:__unwindtable$??0CSubGraphDataBase@@QAE@XZ
	DD	2 DUP(00H)
	DD	2 DUP(00H)
	DD	00H
	DD	01H
xdata$x	ENDS
;	COMDAT xdata$x
xdata$x	SEGMENT
__unwindtable$??4CSubGraphDataBase@@QAEAAV0@ABV0@@Z DD 0ffffffffH
	DD	FLAT:__unwindfunclet$??4CSubGraphDataBase@@QAEAAV0@ABV0@@Z$0
	DD	0ffffffffH
	DD	FLAT:__unwindfunclet$??4CSubGraphDataBase@@QAEAAV0@ABV0@@Z$1
	DD	0ffffffffH
	DD	FLAT:__unwindfunclet$??4CSubGraphDataBase@@QAEAAV0@ABV0@@Z$2
__ehfuncinfo$??4CSubGraphDataBase@@QAEAAV0@ABV0@@Z DD 019930522H
	DD	03H
	DD	FLAT:__unwindtable$??4CSubGraphDataBase@@QAEAAV0@ABV0@@Z
	DD	2 DUP(00H)
	DD	2 DUP(00H)
	DD	00H
	DD	01H
xdata$x	ENDS
;	COMDAT xdata$x
xdata$x	SEGMENT
__unwindtable$??0CGraphData@@QAE@ABV0@@Z DD 0ffffffffH
	DD	FLAT:__unwindfunclet$??0CGraphData@@QAE@ABV0@@Z$0
	DD	00H
	DD	FLAT:__unwindfunclet$??0CGraphData@@QAE@ABV0@@Z$1
	DD	01H
	DD	FLAT:__unwindfunclet$??0CGraphData@@QAE@ABV0@@Z$2
__ehfuncinfo$??0CGraphData@@QAE@ABV0@@Z DD 019930522H
	DD	03H
	DD	FLAT:__unwindtable$??0CGraphData@@QAE@ABV0@@Z
	DD	2 DUP(00H)
	DD	2 DUP(00H)
	DD	00H
	DD	01H
xdata$x	ENDS
;	COMDAT xdata$x
xdata$x	SEGMENT
__unwindtable$?GetData@CGraphData@@QBEXAAV?$CStringT@DV?$StrTraitMFC_DLL@DV?$ChTraitsCRT@D@ATL@@@@@ATL@@PBD@Z DD 0ffffffffH
	DD	FLAT:__unwindfunclet$?GetData@CGraphData@@QBEXAAV?$CStringT@DV?$StrTraitMFC_DLL@DV?$ChTraitsCRT@D@ATL@@@@@ATL@@PBD@Z$0
	DD	00H
	DD	FLAT:__unwindfunclet$?GetData@CGraphData@@QBEXAAV?$CStringT@DV?$StrTraitMFC_DLL@DV?$ChTraitsCRT@D@ATL@@@@@ATL@@PBD@Z$1
__ehfuncinfo$?GetData@CGraphData@@QBEXAAV?$CStringT@DV?$StrTraitMFC_DLL@DV?$ChTraitsCRT@D@ATL@@@@@ATL@@PBD@Z DD 019930522H
	DD	02H
	DD	FLAT:__unwindtable$?GetData@CGraphData@@QBEXAAV?$CStringT@DV?$StrTraitMFC_DLL@DV?$ChTraitsCRT@D@ATL@@@@@ATL@@PBD@Z
	DD	2 DUP(00H)
	DD	2 DUP(00H)
	DD	00H
	DD	01H
xdata$x	ENDS
;	COMDAT xdata$x
xdata$x	SEGMENT
__ehfuncinfo$??0CGraphData@@QAE@PBDPAUHWND__@@@Z DD 019930522H
	DD	09H
	DD	FLAT:__unwindtable$??0CGraphData@@QAE@PBDPAUHWND__@@@Z
	DD	2 DUP(00H)
	DD	2 DUP(00H)
	DD	00H
	DD	01H
__unwindtable$??0CGraphData@@QAE@PBDPAUHWND__@@@Z DD 0ffffffffH
	DD	FLAT:__unwindfunclet$??0CGraphData@@QAE@PBDPAUHWND__@@@Z$0
	DD	00H
	DD	FLAT:__unwindfunclet$??0CGraphData@@QAE@PBDPAUHWND__@@@Z$1
	DD	01H
	DD	FLAT:__unwindfunclet$??0CGraphData@@QAE@PBDPAUHWND__@@@Z$2
	DD	02H
	DD	FLAT:__unwindfunclet$??0CGraphData@@QAE@PBDPAUHWND__@@@Z$3
	DD	03H
	DD	FLAT:__unwindfunclet$??0CGraphData@@QAE@PBDPAUHWND__@@@Z$4
	DD	04H
	DD	FLAT:__unwindfunclet$??0CGraphData@@QAE@PBDPAUHWND__@@@Z$5
	DD	04H
	DD	FLAT:__unwindfunclet$??0CGraphData@@QAE@PBDPAUHWND__@@@Z$7
	DD	04H
	DD	FLAT:__unwindfunclet$??0CGraphData@@QAE@PBDPAUHWND__@@@Z$8
	DD	04H
	DD	FLAT:__unwindfunclet$??0CGraphData@@QAE@PBDPAUHWND__@@@Z$10
xdata$x	ENDS
;	COMDAT xdata$x
xdata$x	SEGMENT
__unwindtable$?SetData@CSignalData@@AAEXPBD@Z DD 0ffffffffH
	DD	FLAT:__unwindfunclet$?SetData@CSignalData@@AAEXPBD@Z$0
__ehfuncinfo$?SetData@CSignalData@@AAEXPBD@Z DD 019930522H
	DD	01H
	DD	FLAT:__unwindtable$?SetData@CSignalData@@AAEXPBD@Z
	DD	2 DUP(00H)
	DD	2 DUP(00H)
	DD	00H
	DD	01H
xdata$x	ENDS
;	COMDAT xdata$x
xdata$x	SEGMENT
__unwindtable$?SetData@CGraphDataDrawingData@@AAEXPBD@Z DD 0ffffffffH
	DD	FLAT:__unwindfunclet$?SetData@CGraphDataDrawingData@@AAEXPBD@Z$0
__ehfuncinfo$?SetData@CGraphDataDrawingData@@AAEXPBD@Z DD 019930522H
	DD	01H
	DD	FLAT:__unwindtable$?SetData@CGraphDataDrawingData@@AAEXPBD@Z
	DD	2 DUP(00H)
	DD	2 DUP(00H)
	DD	00H
	DD	01H
xdata$x	ENDS
;	COMDAT xdata$x
xdata$x	SEGMENT
__unwindtable$?SetData@CPenThickness@@QAEXPBD@Z DD 0ffffffffH
	DD	FLAT:__unwindfunclet$?SetData@CPenThickness@@QAEXPBD@Z$0
__ehfuncinfo$?SetData@CPenThickness@@QAEXPBD@Z DD 019930522H
	DD	01H
	DD	FLAT:__unwindtable$?SetData@CPenThickness@@QAEXPBD@Z
	DD	2 DUP(00H)
	DD	2 DUP(00H)
	DD	00H
	DD	01H
xdata$x	ENDS
; Function compile flags: /Ogtp
; File C:\Program Files (x86)\Microsoft Visual Studio\2019\Community\VC\Tools\MSVC\14.29.30133\atlmfc\include\afxtempl.h
; File C:\Program Files (x86)\Microsoft Visual Studio\2019\Community\VC\Tools\MSVC\14.29.30133\atlmfc\include\afx.inl
; File C:\Program Files (x86)\Microsoft Visual Studio\2019\Community\VC\Tools\MSVC\14.29.30133\atlmfc\include\afxtempl.h
; File C:\Program Files (x86)\Microsoft Visual Studio\2019\Community\VC\Tools\MSVC\14.29.30133\atlmfc\include\afx.inl
; File C:\Program Files (x86)\Microsoft Visual Studio\2019\Community\VC\Tools\MSVC\14.29.30133\atlmfc\include\afxtempl.h
; File C:\Program Files (x86)\Microsoft Visual Studio\2019\Community\VC\Tools\MSVC\14.29.30133\atlmfc\include\afx.inl
; File C:\Program Files (x86)\Microsoft Visual Studio\2019\Community\VC\Tools\MSVC\14.29.30133\atlmfc\include\afxtempl.h
;	COMDAT ??$SerializeElements@PAU_ST_HORZLINE@@@@YGXAAVCArchive@@PAPAU_ST_HORZLINE@@H@Z
_TEXT	SEGMENT
_ar$ = 8						; size = 4
_pElements$ = 12					; size = 4
_nCount$ = 16						; size = 4
??$SerializeElements@PAU_ST_HORZLINE@@@@YGXAAVCArchive@@PAPAU_ST_HORZLINE@@H@Z PROC ; SerializeElements<_ST_HORZLINE *>, COMDAT

; 67   : {

  00000	55		 push	 ebp
  00001	8b ec		 mov	 ebp, esp

; 68   : 	ENSURE(nCount == 0 || pElements != NULL);

  00003	8b 4d 0c	 mov	 ecx, DWORD PTR _pElements$[ebp]
  00006	53		 push	 ebx
  00007	56		 push	 esi
  00008	8b 75 10	 mov	 esi, DWORD PTR _nCount$[ebp]
  0000b	57		 push	 edi
  0000c	85 f6		 test	 esi, esi
  0000e	74 08		 je	 SHORT $LN2@SerializeE
  00010	85 c9		 test	 ecx, ecx
  00012	0f 84 89 00 00
	00		 je	 $LN34@SerializeE
$LN2@SerializeE:
; File C:\Program Files (x86)\Microsoft Visual Studio\2019\Community\VC\Tools\MSVC\14.29.30133\atlmfc\include\afx.inl

; 212  : 	{ return (m_nMode & CArchive::load) == 0; }

  00018	8b 55 08	 mov	 edx, DWORD PTR _ar$[ebp]
  0001b	8b 42 18	 mov	 eax, DWORD PTR [edx+24]
  0001e	f7 d0		 not	 eax
  00020	a8 01		 test	 al, 1
; File C:\Program Files (x86)\Microsoft Visual Studio\2019\Community\VC\Tools\MSVC\14.29.30133\atlmfc\include\afxtempl.h

; 73   : 	if (ar.IsStoring())

  00022	74 3c		 je	 SHORT $LN10@SerializeE

; 74   : 	{
; 75   : 		TYPE* pData;
; 76   : 		UINT_PTR nElementsLeft;
; 77   : 
; 78   : 		nElementsLeft = nCount;
; 79   : 		pData = pElements;
; 80   : 		while( nElementsLeft > 0 )

  00024	85 f6		 test	 esi, esi
  00026	74 31		 je	 SHORT $LN8@SerializeE
  00028	0f 1f 84 00 00
	00 00 00	 npad	 8
$LL5@SerializeE:

; 81   : 		{
; 82   : 			UINT nElementsToWrite;
; 83   : 
; 84   : 			nElementsToWrite = UINT(__min(nElementsLeft, INT_MAX/sizeof(TYPE)));

  00030	bb ff ff ff 1f	 mov	 ebx, 536870911		; 1fffffffH
  00035	3b f3		 cmp	 esi, ebx
  00037	0f 42 de	 cmovb	 ebx, esi

; 85   : 			ar.Write(pData, nElementsToWrite*sizeof(TYPE));

  0003a	8d 3c 9d 00 00
	00 00		 lea	 edi, DWORD PTR [ebx*4]
  00041	57		 push	 edi
  00042	51		 push	 ecx
  00043	8b ca		 mov	 ecx, edx
  00045	e8 00 00 00 00	 call	 ?Write@CArchive@@QAEXPBXI@Z ; CArchive::Write

; 86   : 			nElementsLeft -= nElementsToWrite;
; 87   : 			pData += nElementsToWrite;

  0004a	8b 4d 0c	 mov	 ecx, DWORD PTR _pElements$[ebp]
  0004d	8b 55 08	 mov	 edx, DWORD PTR _ar$[ebp]
  00050	03 cf		 add	 ecx, edi
  00052	89 4d 0c	 mov	 DWORD PTR _pElements$[ebp], ecx
  00055	2b f3		 sub	 esi, ebx
  00057	75 d7		 jne	 SHORT $LL5@SerializeE
$LN8@SerializeE:
  00059	5f		 pop	 edi

; 105  : 		}
; 106  : 	}
; 107  : }

  0005a	5e		 pop	 esi
  0005b	5b		 pop	 ebx
  0005c	5d		 pop	 ebp
  0005d	c2 0c 00	 ret	 12			; 0000000cH
$LN10@SerializeE:

; 97   : 		while( nElementsLeft > 0 )

  00060	85 f6		 test	 esi, esi
  00062	74 f5		 je	 SHORT $LN8@SerializeE
$LL7@SerializeE:

; 98   : 		{
; 99   : 			UINT nElementsToRead;
; 100  : 
; 101  : 			nElementsToRead = UINT(__min(nElementsLeft, INT_MAX/sizeof(TYPE)));

  00064	bf ff ff ff 1f	 mov	 edi, 536870911		; 1fffffffH
  00069	3b f7		 cmp	 esi, edi
  0006b	0f 42 fe	 cmovb	 edi, esi

; 102  : 			ar.EnsureRead(pData, nElementsToRead*sizeof(TYPE));

  0006e	8d 1c bd 00 00
	00 00		 lea	 ebx, DWORD PTR [edi*4]
; File C:\Program Files (x86)\Microsoft Visual Studio\2019\Community\VC\Tools\MSVC\14.29.30133\atlmfc\include\afx.inl

; 399  : 	UINT nRead=Read(lpBuf, nCount);

  00075	53		 push	 ebx
  00076	51		 push	 ecx
  00077	8b ca		 mov	 ecx, edx
  00079	e8 00 00 00 00	 call	 ?Read@CArchive@@QAEIPAXI@Z ; CArchive::Read

; 400  : 	if(nRead!=nCount)

  0007e	3b c3		 cmp	 eax, ebx
  00080	75 16		 jne	 SHORT $LN23@SerializeE
; File C:\Program Files (x86)\Microsoft Visual Studio\2019\Community\VC\Tools\MSVC\14.29.30133\atlmfc\include\afxtempl.h

; 97   : 		while( nElementsLeft > 0 )

  00082	8b 4d 0c	 mov	 ecx, DWORD PTR _pElements$[ebp]
  00085	8b 55 08	 mov	 edx, DWORD PTR _ar$[ebp]

; 103  : 			nElementsLeft -= nElementsToRead;
; 104  : 			pData += nElementsToRead;

  00088	03 cb		 add	 ecx, ebx
  0008a	89 4d 0c	 mov	 DWORD PTR _pElements$[ebp], ecx
  0008d	2b f7		 sub	 esi, edi
  0008f	75 d3		 jne	 SHORT $LL7@SerializeE

; 105  : 		}
; 106  : 	}
; 107  : }

  00091	5f		 pop	 edi
  00092	5e		 pop	 esi
  00093	5b		 pop	 ebx
  00094	5d		 pop	 ebp
  00095	c2 0c 00	 ret	 12			; 0000000cH
$LN23@SerializeE:
; File C:\Program Files (x86)\Microsoft Visual Studio\2019\Community\VC\Tools\MSVC\14.29.30133\atlmfc\include\afx.inl

; 402  : 		AfxThrowArchiveException(CArchiveException::endOfFile);

  00098	6a 00		 push	 0
  0009a	6a 03		 push	 3
  0009c	e8 00 00 00 00	 call	 ?AfxThrowArchiveException@@YGXHPBD@Z ; AfxThrowArchiveException
$LN34@SerializeE:
; File C:\Program Files (x86)\Microsoft Visual Studio\2019\Community\VC\Tools\MSVC\14.29.30133\atlmfc\include\afxtempl.h

; 68   : 	ENSURE(nCount == 0 || pElements != NULL);

  000a1	e8 00 00 00 00	 call	 ?AfxThrowInvalidArgException@@YGXXZ ; AfxThrowInvalidArgException
$LN32@SerializeE:
  000a6	cc		 int	 3
??$SerializeElements@PAU_ST_HORZLINE@@@@YGXAAVCArchive@@PAPAU_ST_HORZLINE@@H@Z ENDP ; SerializeElements<_ST_HORZLINE *>
_TEXT	ENDS
; Function compile flags: /Ogtp
; File D:\git\src\IBK\IBK_DRFN\ProjSrc\SrcChartEx\ChartOCX\IndicatorCondition\GraphData.cpp
;	COMDAT ??4CSubGraphData@@QAEAAV0@ABV0@@Z
_TEXT	SEGMENT
_data$ = 8						; size = 4
??4CSubGraphData@@QAEAAV0@ABV0@@Z PROC			; CSubGraphData::operator=, COMDAT
; _this$ = ecx

; 1487 : {

  00000	55		 push	 ebp
  00001	8b ec		 mov	 ebp, esp

; 1488 : 	if( this == &data) return *this;

  00003	8b 45 08	 mov	 eax, DWORD PTR _data$[ebp]
  00006	56		 push	 esi
  00007	8b f1		 mov	 esi, ecx
  00009	3b f0		 cmp	 esi, eax
  0000b	74 06		 je	 SHORT $LN4@operator

; 1489 : 	*( CSubGraphDataBase *)this = *( CSubGraphDataBase *)&data;

  0000d	50		 push	 eax
  0000e	e8 00 00 00 00	 call	 ??4CSubGraphDataBase@@QAEAAV0@ABV0@@Z ; CSubGraphDataBase::operator=
$LN4@operator:

; 1490 : 	return *this;
; 1491 : }

  00013	8b c6		 mov	 eax, esi
  00015	5e		 pop	 esi
  00016	5d		 pop	 ebp
  00017	c2 04 00	 ret	 4
??4CSubGraphData@@QAEAAV0@ABV0@@Z ENDP			; CSubGraphData::operator=
_TEXT	ENDS
; Function compile flags: /Ogtp
; File D:\git\src\IBK\IBK_DRFN\ProjSrc\SrcChartEx\ChartOCX\IndicatorCondition\GraphData.cpp
;	COMDAT ?GetHiding@CSubGraphData@@ABE_NXZ
_TEXT	SEGMENT
?GetHiding@CSubGraphData@@ABE_NXZ PROC			; CSubGraphData::GetHiding, COMDAT
; _this$ = ecx

; 1483 : 	return m_bHiding;

  00000	8a 41 24	 mov	 al, BYTE PTR [ecx+36]

; 1484 : }

  00003	c3		 ret	 0
?GetHiding@CSubGraphData@@ABE_NXZ ENDP			; CSubGraphData::GetHiding
_TEXT	ENDS
; Function compile flags: /Ogtp
; File D:\git\src\IBK\IBK_DRFN\ProjSrc\SrcChartEx\ChartOCX\IndicatorCondition\GraphData.cpp
;	COMDAT ?ClearCalcDataForDraw@CSubGraphData@@QAEXXZ
_TEXT	SEGMENT
?ClearCalcDataForDraw@CSubGraphData@@QAEXXZ PROC	; CSubGraphData::ClearCalcDataForDraw, COMDAT
; _this$ = ecx

; 1473 : {

  00000	56		 push	 esi
  00001	8b f1		 mov	 esi, ecx

; 1474 : 	if( m_pGraphCache)

  00003	8b 8e 84 00 00
	00		 mov	 ecx, DWORD PTR [esi+132]
  00009	85 c9		 test	 ecx, ecx
  0000b	74 10		 je	 SHORT $LN2@ClearCalcD

; 1475 : 	{
; 1476 : 		delete m_pGraphCache;

  0000d	8b 01		 mov	 eax, DWORD PTR [ecx]
  0000f	6a 01		 push	 1
  00011	ff 10		 call	 DWORD PTR [eax]

; 1477 : 		m_pGraphCache = NULL;

  00013	c7 86 84 00 00
	00 00 00 00 00	 mov	 DWORD PTR [esi+132], 0
$LN2@ClearCalcD:

; 1478 : 	}
; 1479 : }

  0001d	5e		 pop	 esi
  0001e	c3		 ret	 0
?ClearCalcDataForDraw@CSubGraphData@@QAEXXZ ENDP	; CSubGraphData::ClearCalcDataForDraw
_TEXT	ENDS
; Function compile flags: /Ogtp
; File D:\git\src\IBK\IBK_DRFN\ProjSrc\SrcChartEx\ChartOCX\IndicatorCondition\GraphData.cpp
; File C:\Program Files (x86)\Microsoft Visual Studio\2019\Community\VC\Tools\MSVC\14.29.30133\atlmfc\include\afxtempl.h
; File D:\git\src\IBK\IBK_DRFN\ProjSrc\SrcChartEx\ChartOCX\IndicatorCondition\GraphData.cpp
;	COMDAT ??1CSubGraphData@@QAE@XZ
_TEXT	SEGMENT
__$EHRec$ = -12						; size = 12
??1CSubGraphData@@QAE@XZ PROC				; CSubGraphData::~CSubGraphData, COMDAT
; _this$ = ecx

; 1468 : {

  00000	55		 push	 ebp
  00001	8b ec		 mov	 ebp, esp
  00003	6a ff		 push	 -1
  00005	68 00 00 00 00	 push	 __ehhandler$??1CSubGraphData@@QAE@XZ
  0000a	64 a1 00 00 00
	00		 mov	 eax, DWORD PTR fs:0
  00010	50		 push	 eax
  00011	56		 push	 esi
  00012	a1 00 00 00 00	 mov	 eax, DWORD PTR ___security_cookie
  00017	33 c5		 xor	 eax, ebp
  00019	50		 push	 eax
  0001a	8d 45 f4	 lea	 eax, DWORD PTR __$EHRec$[ebp]
  0001d	64 a3 00 00 00
	00		 mov	 DWORD PTR fs:0, eax
  00023	8b f1		 mov	 esi, ecx

; 1474 : 	if( m_pGraphCache)

  00025	8b 8e 84 00 00
	00		 mov	 ecx, DWORD PTR [esi+132]
  0002b	85 c9		 test	 ecx, ecx
  0002d	74 10		 je	 SHORT $LN4@CSubGraphD

; 1475 : 	{
; 1476 : 		delete m_pGraphCache;

  0002f	8b 01		 mov	 eax, DWORD PTR [ecx]
  00031	6a 01		 push	 1
  00033	ff 10		 call	 DWORD PTR [eax]

; 1477 : 		m_pGraphCache = NULL;

  00035	c7 86 84 00 00
	00 00 00 00 00	 mov	 DWORD PTR [esi+132], 0
$LN4@CSubGraphD:

; 985  : 	DeleteAllHorizontalLine();

  0003f	8b ce		 mov	 ecx, esi
  00041	c7 45 fc 00 00
	00 00		 mov	 DWORD PTR __$EHRec$[ebp+8], 0
  00048	e8 00 00 00 00	 call	 ?DeleteAllHorizontalLine@CSubGraphDataBase@@QAEXXZ ; CSubGraphDataBase::DeleteAllHorizontalLine
; File C:\Program Files (x86)\Microsoft Visual Studio\2019\Community\VC\Tools\MSVC\14.29.30133\atlmfc\include\afxtempl.h

; 358  : 	if (m_pData != NULL)

  0004d	8b 46 74	 mov	 eax, DWORD PTR [esi+116]
  00050	c7 46 70 00 00
	00 00		 mov	 DWORD PTR [esi+112], OFFSET ??_7?$CArray@PAU_ST_HORZLINE@@PAU1@@@6B@
  00057	85 c0		 test	 eax, eax
  00059	74 10		 je	 SHORT $LN15@CSubGraphD

; 359  : 	{
; 360  : 		for( int i = 0; i < m_nSize; i++ )

  0005b	83 7e 78 00	 cmp	 DWORD PTR [esi+120], 0
  0005f	0f 4f c0	 cmovg	 eax, eax

; 361  : 			(m_pData + i)->~TYPE();
; 362  : 		delete[] (BYTE*)m_pData;

  00062	50		 push	 eax
  00063	e8 00 00 00 00	 call	 ??_V@YAXPAX@Z		; operator delete[]
  00068	83 c4 04	 add	 esp, 4
$LN15@CSubGraphD:
; File D:\git\src\IBK\IBK_DRFN\ProjSrc\SrcChartEx\ChartOCX\IndicatorCondition\GraphData.cpp

; 986  : }

  0006b	8d 4e 68	 lea	 ecx, DWORD PTR [esi+104]
  0006e	ff 15 00 00 00
	00		 call	 DWORD PTR __imp_??1?$CStringT@DV?$StrTraitMFC_DLL@DV?$ChTraitsCRT@D@ATL@@@@@ATL@@QAE@XZ
  00074	8d 4e 20	 lea	 ecx, DWORD PTR [esi+32]
  00077	ff 15 00 00 00
	00		 call	 DWORD PTR __imp_??1?$CStringT@DV?$StrTraitMFC_DLL@DV?$ChTraitsCRT@D@ATL@@@@@ATL@@QAE@XZ
  0007d	8d 4e 1c	 lea	 ecx, DWORD PTR [esi+28]
  00080	ff 15 00 00 00
	00		 call	 DWORD PTR __imp_??1?$CStringT@DV?$StrTraitMFC_DLL@DV?$ChTraitsCRT@D@ATL@@@@@ATL@@QAE@XZ

; 1469 : 	ClearCalcDataForDraw();
; 1470 : }

  00086	8b 4d f4	 mov	 ecx, DWORD PTR __$EHRec$[ebp]
  00089	64 89 0d 00 00
	00 00		 mov	 DWORD PTR fs:0, ecx
  00090	59		 pop	 ecx
  00091	5e		 pop	 esi
  00092	8b e5		 mov	 esp, ebp
  00094	5d		 pop	 ebp
  00095	c3		 ret	 0
  00096	cc		 int	 3
  00097	cc		 int	 3
  00098	cc		 int	 3
  00099	cc		 int	 3
  0009a	cc		 int	 3
_TEXT	ENDS
;	COMDAT text$x
text$x	SEGMENT
__ehhandler$??1CSubGraphData@@QAE@XZ:
  00000	90		 npad	 1
  00001	90		 npad	 1
  00002	8b 54 24 08	 mov	 edx, DWORD PTR [esp+8]
  00006	8d 42 0c	 lea	 eax, DWORD PTR [edx+12]
  00009	8b 4a f8	 mov	 ecx, DWORD PTR [edx-8]
  0000c	33 c8		 xor	 ecx, eax
  0000e	e8 00 00 00 00	 call	 @__security_check_cookie@4
  00013	b8 00 00 00 00	 mov	 eax, OFFSET __ehfuncinfo$??1CSubGraphData@@QAE@XZ
  00018	e9 00 00 00 00	 jmp	 ___CxxFrameHandler3
text$x	ENDS
??1CSubGraphData@@QAE@XZ ENDP				; CSubGraphData::~CSubGraphData
; Function compile flags: /Ogtp
; File D:\git\src\IBK\IBK_DRFN\ProjSrc\SrcChartEx\ChartOCX\IndicatorCondition\GraphData.cpp
;	COMDAT ??0CSubGraphData@@QAE@PBDPAUHWND__@@0@Z
_TEXT	SEGMENT
_this$ = -4						; size = 4
_p_szSubGraphData$ = 8					; size = 4
_p_hOcxWnd$ = 12					; size = 4
_p_szIndicatorName$ = 16				; size = 4
??0CSubGraphData@@QAE@PBDPAUHWND__@@0@Z PROC		; CSubGraphData::CSubGraphData, COMDAT
; _this$ = ecx

; 1463 : {

  00000	55		 push	 ebp
  00001	8b ec		 mov	 ebp, esp
  00003	51		 push	 ecx
  00004	56		 push	 esi
  00005	ff 75 10	 push	 DWORD PTR _p_szIndicatorName$[ebp]
  00008	8b f1		 mov	 esi, ecx
  0000a	ff 75 0c	 push	 DWORD PTR _p_hOcxWnd$[ebp]
  0000d	89 75 fc	 mov	 DWORD PTR _this$[ebp], esi
  00010	ff 75 08	 push	 DWORD PTR _p_szSubGraphData$[ebp]
  00013	e8 00 00 00 00	 call	 ??0CSubGraphDataBase@@QAE@PBDPAUHWND__@@0@Z ; CSubGraphDataBase::CSubGraphDataBase

; 1464 : 	m_pGraphCache = NULL;

  00018	c7 86 84 00 00
	00 00 00 00 00	 mov	 DWORD PTR [esi+132], 0

; 1465 : }

  00022	8b c6		 mov	 eax, esi
  00024	5e		 pop	 esi
  00025	8b e5		 mov	 esp, ebp
  00027	5d		 pop	 ebp
  00028	c2 0c 00	 ret	 12			; 0000000cH
??0CSubGraphData@@QAE@PBDPAUHWND__@@0@Z ENDP		; CSubGraphData::CSubGraphData
_TEXT	ENDS
; Function compile flags: /Ogtp
; File D:\git\src\IBK\IBK_DRFN\ProjSrc\SrcChartEx\ChartOCX\IndicatorCondition\GraphData.cpp
;	COMDAT ??0CSubGraphData@@QAE@ABV0@@Z
_TEXT	SEGMENT
_this$ = -4						; size = 4
_data$ = 8						; size = 4
??0CSubGraphData@@QAE@ABV0@@Z PROC			; CSubGraphData::CSubGraphData, COMDAT
; _this$ = ecx

; 1458 : {

  00000	55		 push	 ebp
  00001	8b ec		 mov	 ebp, esp
  00003	51		 push	 ecx
  00004	56		 push	 esi
  00005	ff 75 08	 push	 DWORD PTR _data$[ebp]
  00008	8b f1		 mov	 esi, ecx
  0000a	89 75 fc	 mov	 DWORD PTR _this$[ebp], esi
  0000d	e8 00 00 00 00	 call	 ??0CSubGraphDataBase@@QAE@ABV0@@Z ; CSubGraphDataBase::CSubGraphDataBase

; 1459 : 	m_pGraphCache = NULL;

  00012	c7 86 84 00 00
	00 00 00 00 00	 mov	 DWORD PTR [esi+132], 0

; 1460 : }

  0001c	8b c6		 mov	 eax, esi
  0001e	5e		 pop	 esi
  0001f	8b e5		 mov	 esp, ebp
  00021	5d		 pop	 ebp
  00022	c2 04 00	 ret	 4
??0CSubGraphData@@QAE@ABV0@@Z ENDP			; CSubGraphData::CSubGraphData
_TEXT	ENDS
; Function compile flags: /Ogtp
; File D:\git\src\IBK\IBK_DRFN\ProjSrc\SrcChartEx\ChartOCX\IndicatorCondition\GraphData.cpp
;	COMDAT ??0CSubGraphData@@QAE@W4GRAPHTYPE@CGraphBaseData@@ABVCGraphStyle@@ABVCGraphDrawStyle@@ABV?$CStringT@DV?$StrTraitMFC_DLL@DV?$ChTraitsCRT@D@ATL@@@@@ATL@@3_NABVCGraphColor@@ABVCPenThickness@@ABVCGraphPaintStyle@@ABVCGraphBaseLineStyle@@@Z
_TEXT	SEGMENT
_this$ = -4						; size = 4
_type$ = 8						; size = 4
_style$ = 12						; size = 4
_drawStyle$ = 16					; size = 4
_name$ = 20						; size = 4
_title$ = 24						; size = 4
_hiding$ = 28						; size = 1
_color$ = 32						; size = 4
_penThickness$ = 36					; size = 4
_paintStyle$ = 40					; size = 4
_baseLineStyle$ = 44					; size = 4
??0CSubGraphData@@QAE@W4GRAPHTYPE@CGraphBaseData@@ABVCGraphStyle@@ABVCGraphDrawStyle@@ABV?$CStringT@DV?$StrTraitMFC_DLL@DV?$ChTraitsCRT@D@ATL@@@@@ATL@@3_NABVCGraphColor@@ABVCPenThickness@@ABVCGraphPaintStyle@@ABVCGraphBaseLineStyle@@@Z PROC ; CSubGraphData::CSubGraphData, COMDAT
; _this$ = ecx

; 1453 : {

  00000	55		 push	 ebp
  00001	8b ec		 mov	 ebp, esp
  00003	51		 push	 ecx
  00004	56		 push	 esi
  00005	ff 75 2c	 push	 DWORD PTR _baseLineStyle$[ebp]
  00008	8b f1		 mov	 esi, ecx
  0000a	ff 75 28	 push	 DWORD PTR _paintStyle$[ebp]
  0000d	89 75 fc	 mov	 DWORD PTR _this$[ebp], esi
  00010	ff 75 24	 push	 DWORD PTR _penThickness$[ebp]
  00013	ff 75 20	 push	 DWORD PTR _color$[ebp]
  00016	ff 75 1c	 push	 DWORD PTR _hiding$[ebp]
  00019	ff 75 18	 push	 DWORD PTR _title$[ebp]
  0001c	ff 75 14	 push	 DWORD PTR _name$[ebp]
  0001f	ff 75 10	 push	 DWORD PTR _drawStyle$[ebp]
  00022	ff 75 0c	 push	 DWORD PTR _style$[ebp]
  00025	ff 75 08	 push	 DWORD PTR _type$[ebp]
  00028	e8 00 00 00 00	 call	 ??0CSubGraphDataBase@@QAE@W4GRAPHTYPE@CGraphBaseData@@ABVCGraphStyle@@ABVCGraphDrawStyle@@ABV?$CStringT@DV?$StrTraitMFC_DLL@DV?$ChTraitsCRT@D@ATL@@@@@ATL@@3_NABVCGraphColor@@ABVCPenThickness@@ABVCGraphPaintStyle@@ABVCGraphBaseLineStyle@@@Z ; CSubGraphDataBase::CSubGraphDataBase

; 1454 : 	m_pGraphCache = NULL;

  0002d	c7 86 84 00 00
	00 00 00 00 00	 mov	 DWORD PTR [esi+132], 0

; 1455 : }

  00037	8b c6		 mov	 eax, esi
  00039	5e		 pop	 esi
  0003a	8b e5		 mov	 esp, ebp
  0003c	5d		 pop	 ebp
  0003d	c2 28 00	 ret	 40			; 00000028H
??0CSubGraphData@@QAE@W4GRAPHTYPE@CGraphBaseData@@ABVCGraphStyle@@ABVCGraphDrawStyle@@ABV?$CStringT@DV?$StrTraitMFC_DLL@DV?$ChTraitsCRT@D@ATL@@@@@ATL@@3_NABVCGraphColor@@ABVCPenThickness@@ABVCGraphPaintStyle@@ABVCGraphBaseLineStyle@@@Z ENDP ; CSubGraphData::CSubGraphData
_TEXT	ENDS
; Function compile flags: /Ogtp
; File D:\git\src\IBK\IBK_DRFN\ProjSrc\SrcChartEx\ChartOCX\IndicatorCondition\GraphData.cpp
;	COMDAT ??0CSubGraphData@@QAE@XZ
_TEXT	SEGMENT
_this$ = -4						; size = 4
??0CSubGraphData@@QAE@XZ PROC				; CSubGraphData::CSubGraphData, COMDAT
; _this$ = ecx

; 1444 : {

  00000	55		 push	 ebp
  00001	8b ec		 mov	 ebp, esp
  00003	51		 push	 ecx
  00004	56		 push	 esi
  00005	8b f1		 mov	 esi, ecx
  00007	89 75 fc	 mov	 DWORD PTR _this$[ebp], esi
  0000a	e8 00 00 00 00	 call	 ??0CSubGraphDataBase@@QAE@XZ ; CSubGraphDataBase::CSubGraphDataBase

; 1445 : 	m_pGraphCache = NULL;

  0000f	c7 86 84 00 00
	00 00 00 00 00	 mov	 DWORD PTR [esi+132], 0

; 1446 : }

  00019	8b c6		 mov	 eax, esi
  0001b	5e		 pop	 esi
  0001c	8b e5		 mov	 esp, ebp
  0001e	5d		 pop	 ebp
  0001f	c3		 ret	 0
??0CSubGraphData@@QAE@XZ ENDP				; CSubGraphData::CSubGraphData
_TEXT	ENDS
; Function compile flags: /Ogtp
; File C:\Program Files (x86)\Microsoft Visual Studio\2019\Community\VC\Tools\MSVC\14.29.30133\atlmfc\include\afxtempl.h
; File C:\Program Files (x86)\Microsoft Visual Studio\2019\Community\VC\Tools\MSVC\14.29.30133\atlmfc\include\afx.inl
;	COMDAT ??_G?$CArray@PAU_ST_HORZLINE@@PAU1@@@UAEPAXI@Z
_TEXT	SEGMENT
___flags$ = 8						; size = 4
??_G?$CArray@PAU_ST_HORZLINE@@PAU1@@@UAEPAXI@Z PROC	; CArray<_ST_HORZLINE *,_ST_HORZLINE *>::`scalar deleting destructor', COMDAT
; _this$ = ecx
  00000	55		 push	 ebp
  00001	8b ec		 mov	 ebp, esp
; File C:\Program Files (x86)\Microsoft Visual Studio\2019\Community\VC\Tools\MSVC\14.29.30133\atlmfc\include\afxtempl.h

; 355  : {

  00003	56		 push	 esi
  00004	8b f1		 mov	 esi, ecx

; 356  : 	ASSERT_VALID(this);
; 357  : 
; 358  : 	if (m_pData != NULL)

  00006	8b 46 04	 mov	 eax, DWORD PTR [esi+4]
  00009	c7 06 00 00 00
	00		 mov	 DWORD PTR [esi], OFFSET ??_7?$CArray@PAU_ST_HORZLINE@@PAU1@@@6B@
  0000f	85 c0		 test	 eax, eax
  00011	74 09		 je	 SHORT $LN11@scalar

; 359  : 	{
; 360  : 		for( int i = 0; i < m_nSize; i++ )
; 361  : 			(m_pData + i)->~TYPE();
; 362  : 		delete[] (BYTE*)m_pData;

  00013	50		 push	 eax
  00014	e8 00 00 00 00	 call	 ??_V@YAXPAX@Z		; operator delete[]
  00019	83 c4 04	 add	 esp, 4
$LN11@scalar:
  0001c	8b 45 08	 mov	 eax, DWORD PTR ___flags$[ebp]
  0001f	a8 01		 test	 al, 1
  00021	74 1f		 je	 SHORT $LN20@scalar
  00023	a8 04		 test	 al, 4
  00025	75 10		 jne	 SHORT $LN3@scalar
; File C:\Program Files (x86)\Microsoft Visual Studio\2019\Community\VC\Tools\MSVC\14.29.30133\atlmfc\include\afx.inl

; 112  : 	{ ::operator delete(p); }

  00027	56		 push	 esi
  00028	e8 00 00 00 00	 call	 ??3@YAXPAX@Z		; operator delete
  0002d	83 c4 04	 add	 esp, 4
  00030	8b c6		 mov	 eax, esi
  00032	5e		 pop	 esi
  00033	5d		 pop	 ebp
  00034	c2 04 00	 ret	 4
$LN3@scalar:
  00037	6a 14		 push	 20			; 00000014H
  00039	56		 push	 esi
  0003a	e8 00 00 00 00	 call	 ?__global_delete@@YAXPAXI@Z ; __global_delete
  0003f	83 c4 08	 add	 esp, 8
$LN20@scalar:
  00042	8b c6		 mov	 eax, esi
  00044	5e		 pop	 esi
  00045	5d		 pop	 ebp
  00046	c2 04 00	 ret	 4
??_G?$CArray@PAU_ST_HORZLINE@@PAU1@@@UAEPAXI@Z ENDP	; CArray<_ST_HORZLINE *,_ST_HORZLINE *>::`scalar deleting destructor'
_TEXT	ENDS
; Function compile flags: /Ogtp
; File C:\Program Files (x86)\Microsoft Visual Studio\2019\Community\VC\Tools\MSVC\14.29.30133\atlmfc\include\afxtempl.h
; File C:\Program Files (x86)\Microsoft Visual Studio\2019\Community\VC\Tools\MSVC\14.29.30133\atlmfc\include\afx.inl
; File C:\Program Files (x86)\Microsoft Visual Studio\2019\Community\VC\Tools\MSVC\14.29.30133\atlmfc\include\afxtempl.h
; File C:\Program Files (x86)\Microsoft Visual Studio\2019\Community\VC\Tools\MSVC\14.29.30133\atlmfc\include\afx.inl
; File C:\Program Files (x86)\Microsoft Visual Studio\2019\Community\VC\Tools\MSVC\14.29.30133\atlmfc\include\afxtempl.h
; File C:\Program Files (x86)\Microsoft Visual Studio\2019\Community\VC\Tools\MSVC\14.29.30133\atlmfc\include\afx.inl
; File C:\Program Files (x86)\Microsoft Visual Studio\2019\Community\VC\Tools\MSVC\14.29.30133\atlmfc\include\afxtempl.h
; File C:\Program Files (x86)\Microsoft Visual Studio\2019\Community\VC\Tools\MSVC\14.29.30133\atlmfc\include\afx.inl
; File C:\Program Files (x86)\Microsoft Visual Studio\2019\Community\VC\Tools\MSVC\14.29.30133\atlmfc\include\afxtempl.h
;	COMDAT ?Serialize@?$CArray@PAU_ST_HORZLINE@@PAU1@@@UAEXAAVCArchive@@@Z
_TEXT	SEGMENT
_pData$1$ = -4						; size = 4
_ar$ = 8						; size = 4
?Serialize@?$CArray@PAU_ST_HORZLINE@@PAU1@@@UAEXAAVCArchive@@@Z PROC ; CArray<_ST_HORZLINE *,_ST_HORZLINE *>::Serialize, COMDAT
; _this$ = ecx

; 633  : {

  00000	55		 push	 ebp
  00001	8b ec		 mov	 ebp, esp
  00003	51		 push	 ecx
  00004	53		 push	 ebx
  00005	56		 push	 esi
  00006	57		 push	 edi
  00007	8b f9		 mov	 edi, ecx
; File C:\Program Files (x86)\Microsoft Visual Studio\2019\Community\VC\Tools\MSVC\14.29.30133\atlmfc\include\afx.inl

; 212  : 	{ return (m_nMode & CArchive::load) == 0; }

  00009	8b 4d 08	 mov	 ecx, DWORD PTR _ar$[ebp]
  0000c	8b 41 18	 mov	 eax, DWORD PTR [ecx+24]
  0000f	f7 d0		 not	 eax
  00011	a8 01		 test	 al, 1
; File C:\Program Files (x86)\Microsoft Visual Studio\2019\Community\VC\Tools\MSVC\14.29.30133\atlmfc\include\afxtempl.h

; 637  : 	if (ar.IsStoring())

  00013	74 0a		 je	 SHORT $LN2@Serialize

; 638  : 	{
; 639  : 		ar.WriteCount(m_nSize);

  00015	ff 77 08	 push	 DWORD PTR [edi+8]
  00018	e8 00 00 00 00	 call	 ?WriteCount@CArchive@@QAEXK@Z ; CArchive::WriteCount

; 640  : 	}

  0001d	eb 0f		 jmp	 SHORT $LN3@Serialize
$LN2@Serialize:

; 641  : 	else
; 642  : 	{
; 643  : 		DWORD_PTR nOldSize = ar.ReadCount();

  0001f	e8 00 00 00 00	 call	 ?ReadCount@CArchive@@QAEKXZ ; CArchive::ReadCount

; 644  : 		SetSize(nOldSize, -1);

  00024	6a ff		 push	 -1
  00026	50		 push	 eax
  00027	8b cf		 mov	 ecx, edi
  00029	e8 00 00 00 00	 call	 ?SetSize@?$CArray@PAU_ST_HORZLINE@@PAU1@@@QAEXHH@Z ; CArray<_ST_HORZLINE *,_ST_HORZLINE *>::SetSize
$LN3@Serialize:

; 645  : 	}
; 646  : 	SerializeElements<TYPE>(ar, m_pData, m_nSize);

  0002e	8b 77 08	 mov	 esi, DWORD PTR [edi+8]
  00031	8b 4f 04	 mov	 ecx, DWORD PTR [edi+4]
  00034	89 4d fc	 mov	 DWORD PTR _pData$1$[ebp], ecx

; 68   : 	ENSURE(nCount == 0 || pElements != NULL);

  00037	85 f6		 test	 esi, esi
  00039	74 08		 je	 SHORT $LN8@Serialize
  0003b	85 c9		 test	 ecx, ecx
  0003d	0f 84 8c 00 00
	00		 je	 $LN40@Serialize
$LN8@Serialize:
; File C:\Program Files (x86)\Microsoft Visual Studio\2019\Community\VC\Tools\MSVC\14.29.30133\atlmfc\include\afx.inl

; 212  : 	{ return (m_nMode & CArchive::load) == 0; }

  00043	8b 55 08	 mov	 edx, DWORD PTR _ar$[ebp]
  00046	8b 42 18	 mov	 eax, DWORD PTR [edx+24]
  00049	f7 d0		 not	 eax
  0004b	a8 01		 test	 al, 1
; File C:\Program Files (x86)\Microsoft Visual Studio\2019\Community\VC\Tools\MSVC\14.29.30133\atlmfc\include\afxtempl.h

; 73   : 	if (ar.IsStoring())

  0004d	74 36		 je	 SHORT $LN16@Serialize

; 74   : 	{
; 75   : 		TYPE* pData;
; 76   : 		UINT_PTR nElementsLeft;
; 77   : 
; 78   : 		nElementsLeft = nCount;
; 79   : 		pData = pElements;
; 80   : 		while( nElementsLeft > 0 )

  0004f	85 f6		 test	 esi, esi
  00051	74 29		 je	 SHORT $LN14@Serialize
$LL11@Serialize:

; 81   : 		{
; 82   : 			UINT nElementsToWrite;
; 83   : 
; 84   : 			nElementsToWrite = UINT(__min(nElementsLeft, INT_MAX/sizeof(TYPE)));

  00053	bb ff ff ff 1f	 mov	 ebx, 536870911		; 1fffffffH
  00058	3b f3		 cmp	 esi, ebx
  0005a	0f 42 de	 cmovb	 ebx, esi

; 85   : 			ar.Write(pData, nElementsToWrite*sizeof(TYPE));

  0005d	8d 3c 9d 00 00
	00 00		 lea	 edi, DWORD PTR [ebx*4]
  00064	57		 push	 edi
  00065	51		 push	 ecx
  00066	8b ca		 mov	 ecx, edx
  00068	e8 00 00 00 00	 call	 ?Write@CArchive@@QAEXPBXI@Z ; CArchive::Write

; 86   : 			nElementsLeft -= nElementsToWrite;
; 87   : 			pData += nElementsToWrite;

  0006d	8b 4d fc	 mov	 ecx, DWORD PTR _pData$1$[ebp]
  00070	8b 55 08	 mov	 edx, DWORD PTR _ar$[ebp]
  00073	03 cf		 add	 ecx, edi
  00075	89 4d fc	 mov	 DWORD PTR _pData$1$[ebp], ecx
  00078	2b f3		 sub	 esi, ebx
  0007a	75 d7		 jne	 SHORT $LL11@Serialize
$LN14@Serialize:
  0007c	5f		 pop	 edi

; 647  : }

  0007d	5e		 pop	 esi
  0007e	5b		 pop	 ebx
  0007f	8b e5		 mov	 esp, ebp
  00081	5d		 pop	 ebp
  00082	c2 04 00	 ret	 4
$LN16@Serialize:

; 97   : 		while( nElementsLeft > 0 )

  00085	85 f6		 test	 esi, esi
  00087	74 f3		 je	 SHORT $LN14@Serialize
  00089	0f 1f 80 00 00
	00 00		 npad	 7
$LL13@Serialize:

; 98   : 		{
; 99   : 			UINT nElementsToRead;
; 100  : 
; 101  : 			nElementsToRead = UINT(__min(nElementsLeft, INT_MAX/sizeof(TYPE)));

  00090	bf ff ff ff 1f	 mov	 edi, 536870911		; 1fffffffH
  00095	3b f7		 cmp	 esi, edi
  00097	0f 42 fe	 cmovb	 edi, esi

; 102  : 			ar.EnsureRead(pData, nElementsToRead*sizeof(TYPE));

  0009a	8d 1c bd 00 00
	00 00		 lea	 ebx, DWORD PTR [edi*4]
; File C:\Program Files (x86)\Microsoft Visual Studio\2019\Community\VC\Tools\MSVC\14.29.30133\atlmfc\include\afx.inl

; 399  : 	UINT nRead=Read(lpBuf, nCount);

  000a1	53		 push	 ebx
  000a2	51		 push	 ecx
  000a3	8b ca		 mov	 ecx, edx
  000a5	e8 00 00 00 00	 call	 ?Read@CArchive@@QAEIPAXI@Z ; CArchive::Read

; 400  : 	if(nRead!=nCount)

  000aa	3b c3		 cmp	 eax, ebx
  000ac	75 18		 jne	 SHORT $LN30@Serialize
; File C:\Program Files (x86)\Microsoft Visual Studio\2019\Community\VC\Tools\MSVC\14.29.30133\atlmfc\include\afxtempl.h

; 97   : 		while( nElementsLeft > 0 )

  000ae	8b 4d fc	 mov	 ecx, DWORD PTR _pData$1$[ebp]
  000b1	8b 55 08	 mov	 edx, DWORD PTR _ar$[ebp]

; 103  : 			nElementsLeft -= nElementsToRead;
; 104  : 			pData += nElementsToRead;

  000b4	03 cb		 add	 ecx, ebx
  000b6	89 4d fc	 mov	 DWORD PTR _pData$1$[ebp], ecx
  000b9	2b f7		 sub	 esi, edi
  000bb	75 d3		 jne	 SHORT $LL13@Serialize

; 647  : }

  000bd	5f		 pop	 edi
  000be	5e		 pop	 esi
  000bf	5b		 pop	 ebx
  000c0	8b e5		 mov	 esp, ebp
  000c2	5d		 pop	 ebp
  000c3	c2 04 00	 ret	 4
$LN30@Serialize:
; File C:\Program Files (x86)\Microsoft Visual Studio\2019\Community\VC\Tools\MSVC\14.29.30133\atlmfc\include\afx.inl

; 402  : 		AfxThrowArchiveException(CArchiveException::endOfFile);

  000c6	6a 00		 push	 0
  000c8	6a 03		 push	 3
  000ca	e8 00 00 00 00	 call	 ?AfxThrowArchiveException@@YGXHPBD@Z ; AfxThrowArchiveException
$LN40@Serialize:
; File C:\Program Files (x86)\Microsoft Visual Studio\2019\Community\VC\Tools\MSVC\14.29.30133\atlmfc\include\afxtempl.h

; 68   : 	ENSURE(nCount == 0 || pElements != NULL);

  000cf	e8 00 00 00 00	 call	 ?AfxThrowInvalidArgException@@YGXXZ ; AfxThrowInvalidArgException
$LN38@Serialize:
  000d4	cc		 int	 3
?Serialize@?$CArray@PAU_ST_HORZLINE@@PAU1@@@UAEXAAVCArchive@@@Z ENDP ; CArray<_ST_HORZLINE *,_ST_HORZLINE *>::Serialize
_TEXT	ENDS
; Function compile flags: /Ogtp
; File C:\Program Files (x86)\Microsoft Visual Studio\2019\Community\VC\Tools\MSVC\14.29.30133\atlmfc\include\afxtempl.h
;	COMDAT ??1?$CArray@PAU_ST_HORZLINE@@PAU1@@@UAE@XZ
_TEXT	SEGMENT
??1?$CArray@PAU_ST_HORZLINE@@PAU1@@@UAE@XZ PROC		; CArray<_ST_HORZLINE *,_ST_HORZLINE *>::~CArray<_ST_HORZLINE *,_ST_HORZLINE *>, COMDAT
; _this$ = ecx

; 356  : 	ASSERT_VALID(this);
; 357  : 
; 358  : 	if (m_pData != NULL)

  00000	8b 41 04	 mov	 eax, DWORD PTR [ecx+4]
  00003	c7 01 00 00 00
	00		 mov	 DWORD PTR [ecx], OFFSET ??_7?$CArray@PAU_ST_HORZLINE@@PAU1@@@6B@
  00009	85 c0		 test	 eax, eax
  0000b	74 07		 je	 SHORT $LN5@CArray

; 359  : 	{
; 360  : 		for( int i = 0; i < m_nSize; i++ )
; 361  : 			(m_pData + i)->~TYPE();
; 362  : 		delete[] (BYTE*)m_pData;

  0000d	50		 push	 eax
  0000e	e8 00 00 00 00	 call	 ??_V@YAXPAX@Z		; operator delete[]
  00013	59		 pop	 ecx
$LN5@CArray:

; 363  : 	}
; 364  : }

  00014	c3		 ret	 0
??1?$CArray@PAU_ST_HORZLINE@@PAU1@@@UAE@XZ ENDP		; CArray<_ST_HORZLINE *,_ST_HORZLINE *>::~CArray<_ST_HORZLINE *,_ST_HORZLINE *>
_TEXT	ENDS
; Function compile flags: /Ogtp
; File C:\Program Files (x86)\Microsoft Visual Studio\2019\Community\VC\Tools\MSVC\14.29.30133\atlmfc\include\afxtempl.h
; File C:\Program Files (x86)\Windows Kits\10\Include\10.0.22000.0\ucrt\corecrt_memcpy_s.h
; File C:\Program Files (x86)\Microsoft Visual Studio\2019\Community\VC\Tools\MSVC\14.29.30133\atlmfc\include\afxtempl.h
; File C:\Program Files (x86)\Windows Kits\10\Include\10.0.22000.0\ucrt\corecrt_memcpy_s.h
; File C:\Program Files (x86)\Microsoft Visual Studio\2019\Community\VC\Tools\MSVC\14.29.30133\atlmfc\include\atlchecked.h
; File C:\Program Files (x86)\Windows Kits\10\Include\10.0.22000.0\ucrt\corecrt_memcpy_s.h
; File C:\Program Files (x86)\Microsoft Visual Studio\2019\Community\VC\Tools\MSVC\14.29.30133\atlmfc\include\atlchecked.h
; File C:\Program Files (x86)\Microsoft Visual Studio\2019\Community\VC\Tools\MSVC\14.29.30133\atlmfc\include\afxtempl.h
;	COMDAT ?RemoveAt@?$CArray@PAU_ST_HORZLINE@@PAU1@@@QAEXHH@Z
_TEXT	SEGMENT
__N$1$ = 8						; size = 4
_nIndex$ = 8						; size = 4
_nCount$ = 12						; size = 4
?RemoveAt@?$CArray@PAU_ST_HORZLINE@@PAU1@@@QAEXHH@Z PROC ; CArray<_ST_HORZLINE *,_ST_HORZLINE *>::RemoveAt, COMDAT
; _this$ = ecx

; 590  : {

  00000	55		 push	 ebp
  00001	8b ec		 mov	 ebp, esp
  00003	53		 push	 ebx
  00004	56		 push	 esi

; 591  : 	ASSERT_VALID(this);
; 592  : 	ASSERT(nIndex >= 0);
; 593  : 	ASSERT(nCount >= 0);
; 594  : 	INT_PTR nUpperBound = nIndex + nCount;

  00005	8b 75 0c	 mov	 esi, DWORD PTR _nCount$[ebp]
  00008	8b d9		 mov	 ebx, ecx
  0000a	57		 push	 edi
  0000b	8b 7d 08	 mov	 edi, DWORD PTR _nIndex$[ebp]
  0000e	8d 14 37	 lea	 edx, DWORD PTR [edi+esi]

; 595  : 	ASSERT(nUpperBound <= m_nSize && nUpperBound >= nIndex && nUpperBound >= nCount);
; 596  : 
; 597  : 	if(nIndex < 0 || nCount < 0 || (nUpperBound > m_nSize) || (nUpperBound < nIndex) || (nUpperBound < nCount))

  00011	85 ff		 test	 edi, edi
  00013	78 79		 js	 SHORT $LN6@RemoveAt
  00015	85 f6		 test	 esi, esi
  00017	78 75		 js	 SHORT $LN6@RemoveAt
  00019	8b 43 08	 mov	 eax, DWORD PTR [ebx+8]
  0001c	3b d0		 cmp	 edx, eax
  0001e	7f 6e		 jg	 SHORT $LN6@RemoveAt
  00020	3b d7		 cmp	 edx, edi
  00022	7c 6a		 jl	 SHORT $LN6@RemoveAt
  00024	3b d6		 cmp	 edx, esi
  00026	7c 66		 jl	 SHORT $LN6@RemoveAt

; 599  : 
; 600  : 	// just remove a range
; 601  : 	INT_PTR nMoveCount = m_nSize - (nUpperBound);

  00028	8b c8		 mov	 ecx, eax
  0002a	2b ca		 sub	 ecx, edx

; 602  : 	for( int i = 0; i < nCount; i++ )
; 603  : 		(m_pData + nIndex + i)->~TYPE();
; 604  : 	if (nMoveCount)

  0002c	74 54		 je	 SHORT $LN7@RemoveAt

; 606  : 		::ATL::Checked::memmove_s(m_pData + nIndex, (size_t)nMoveCount * sizeof(TYPE),

  0002e	8d 04 8d 00 00
	00 00		 lea	 eax, DWORD PTR [ecx*4]
  00035	89 45 08	 mov	 DWORD PTR __N$1$[ebp], eax
  00038	8b 43 04	 mov	 eax, DWORD PTR [ebx+4]
  0003b	8d 0c 90	 lea	 ecx, DWORD PTR [eax+edx*4]
; File C:\Program Files (x86)\Windows Kits\10\Include\10.0.22000.0\ucrt\corecrt_memcpy_s.h

; 74   :         if (_SourceSize == 0)

  0003e	8b 55 08	 mov	 edx, DWORD PTR __N$1$[ebp]
; File C:\Program Files (x86)\Microsoft Visual Studio\2019\Community\VC\Tools\MSVC\14.29.30133\atlmfc\include\afxtempl.h

; 606  : 		::ATL::Checked::memmove_s(m_pData + nIndex, (size_t)nMoveCount * sizeof(TYPE),

  00041	8d 04 b8	 lea	 eax, DWORD PTR [eax+edi*4]
; File C:\Program Files (x86)\Windows Kits\10\Include\10.0.22000.0\ucrt\corecrt_memcpy_s.h

; 74   :         if (_SourceSize == 0)

  00044	85 d2		 test	 edx, edx
  00046	74 2c		 je	 SHORT $LN22@RemoveAt

; 75   :         {
; 76   :             return 0;
; 77   :         }
; 78   : 
; 79   :         _CRT_MEMCPY_S_VALIDATE_RETURN_ERRCODE(_Destination != NULL,            EINVAL);

  00048	85 c0		 test	 eax, eax
  0004a	75 19		 jne	 SHORT $LN13@RemoveAt
$LN23@RemoveAt:
; File C:\Program Files (x86)\Microsoft Visual Studio\2019\Community\VC\Tools\MSVC\14.29.30133\atlmfc\include\atlchecked.h

; 87   : 	ATLMFC_CRT_ERRORCHECK(::memmove_s(_S1, _S1max, _S2, _N));

  0004c	ff 15 00 00 00
	00		 call	 DWORD PTR __imp___errno
  00052	c7 00 16 00 00
	00		 mov	 DWORD PTR [eax], 22	; 00000016H
  00058	ff 15 00 00 00
	00		 call	 DWORD PTR __imp___invalid_parameter_noinfo
  0005e	b8 16 00 00 00	 mov	 eax, 22			; 00000016H
  00063	eb 11		 jmp	 SHORT $LN11@RemoveAt
$LN13@RemoveAt:
; File C:\Program Files (x86)\Windows Kits\10\Include\10.0.22000.0\ucrt\corecrt_memcpy_s.h

; 80   :         _CRT_MEMCPY_S_VALIDATE_RETURN_ERRCODE(_Source != NULL,                 EINVAL);

  00065	85 c9		 test	 ecx, ecx
  00067	74 e3		 je	 SHORT $LN23@RemoveAt

; 81   :         _CRT_MEMCPY_S_VALIDATE_RETURN_ERRCODE(_DestinationSize >= _SourceSize, ERANGE);
; 82   : 
; 83   :         memmove(_Destination, _Source, _SourceSize);

  00069	52		 push	 edx
  0006a	51		 push	 ecx
  0006b	50		 push	 eax
  0006c	e8 00 00 00 00	 call	 _memmove
  00071	83 c4 0c	 add	 esp, 12			; 0000000cH
$LN22@RemoveAt:
; File C:\Program Files (x86)\Microsoft Visual Studio\2019\Community\VC\Tools\MSVC\14.29.30133\atlmfc\include\atlchecked.h

; 87   : 	ATLMFC_CRT_ERRORCHECK(::memmove_s(_S1, _S1max, _S2, _N));

  00074	33 c0		 xor	 eax, eax
$LN11@RemoveAt:
  00076	50		 push	 eax
  00077	e8 00 00 00 00	 call	 ?AfxCrtErrorCheck@@YAHH@Z ; AfxCrtErrorCheck
  0007c	8b 43 08	 mov	 eax, DWORD PTR [ebx+8]
  0007f	83 c4 04	 add	 esp, 4
$LN7@RemoveAt:
; File C:\Program Files (x86)\Microsoft Visual Studio\2019\Community\VC\Tools\MSVC\14.29.30133\atlmfc\include\afxtempl.h

; 609  : 	m_nSize -= nCount;

  00082	5f		 pop	 edi
  00083	2b c6		 sub	 eax, esi
  00085	5e		 pop	 esi
  00086	89 43 08	 mov	 DWORD PTR [ebx+8], eax
  00089	5b		 pop	 ebx

; 610  : }

  0008a	5d		 pop	 ebp
  0008b	c2 08 00	 ret	 8
$LN6@RemoveAt:

; 598  : 		AfxThrowInvalidArgException();

  0008e	e8 00 00 00 00	 call	 ?AfxThrowInvalidArgException@@YGXXZ ; AfxThrowInvalidArgException
$LN21@RemoveAt:
  00093	cc		 int	 3
?RemoveAt@?$CArray@PAU_ST_HORZLINE@@PAU1@@@QAEXHH@Z ENDP ; CArray<_ST_HORZLINE *,_ST_HORZLINE *>::RemoveAt
_TEXT	ENDS
; Function compile flags: /Ogtp
; File C:\Program Files (x86)\Microsoft Visual Studio\2019\Community\VC\Tools\MSVC\14.29.30133\atlmfc\include\afxtempl.h
;	COMDAT ?Copy@?$CArray@PAU_ST_HORZLINE@@PAU1@@@QAEXABV1@@Z
_TEXT	SEGMENT
_src$ = 8						; size = 4
?Copy@?$CArray@PAU_ST_HORZLINE@@PAU1@@@QAEXABV1@@Z PROC	; CArray<_ST_HORZLINE *,_ST_HORZLINE *>::Copy, COMDAT
; _this$ = ecx

; 494  : {

  00000	55		 push	 ebp
  00001	8b ec		 mov	 ebp, esp
  00003	53		 push	 ebx
  00004	57		 push	 edi

; 495  : 	ASSERT_VALID(this);
; 496  : 	ASSERT(this != &src);   // cannot append to itself
; 497  : 
; 498  : 	if(this != &src)

  00005	8b 7d 08	 mov	 edi, DWORD PTR _src$[ebp]
  00008	8b d9		 mov	 ebx, ecx
  0000a	3b df		 cmp	 ebx, edi
  0000c	74 33		 je	 SHORT $LN17@Copy

; 499  : 	{
; 500  : 		SetSize(src.m_nSize);

  0000e	56		 push	 esi
  0000f	6a ff		 push	 -1
  00011	ff 77 08	 push	 DWORD PTR [edi+8]
  00014	e8 00 00 00 00	 call	 ?SetSize@?$CArray@PAU_ST_HORZLINE@@PAU1@@@QAEXHH@Z ; CArray<_ST_HORZLINE *,_ST_HORZLINE *>::SetSize

; 501  : 		CopyElements<TYPE>(m_pData, src.m_pData, src.m_nSize);

  00019	8b 77 08	 mov	 esi, DWORD PTR [edi+8]
  0001c	8b 57 04	 mov	 edx, DWORD PTR [edi+4]
  0001f	8b 43 04	 mov	 eax, DWORD PTR [ebx+4]

; 54   : 	ENSURE(nCount == 0 || pDest != 0 && pSrc != 0);

  00022	85 f6		 test	 esi, esi
  00024	74 1a		 je	 SHORT $LN25@Copy
  00026	85 c0		 test	 eax, eax
  00028	74 1d		 je	 SHORT $LN21@Copy
  0002a	85 d2		 test	 edx, edx
  0002c	74 19		 je	 SHORT $LN21@Copy
  0002e	66 90		 npad	 2
$LL8@Copy:

; 55   : 	ASSERT(nCount == 0 ||
; 56   : 		AfxIsValidAddress(pDest, (size_t)nCount * sizeof(TYPE)));
; 57   : 	ASSERT(nCount == 0 ||
; 58   : 		AfxIsValidAddress(pSrc, (size_t)nCount * sizeof(TYPE)));
; 59   : 
; 60   : 	// default is element-copy using assignment
; 61   : 	while (nCount--)
; 62   : 		*pDest++ = *pSrc++;

  00030	8b 0a		 mov	 ecx, DWORD PTR [edx]
  00032	8d 40 04	 lea	 eax, DWORD PTR [eax+4]
  00035	89 48 fc	 mov	 DWORD PTR [eax-4], ecx
  00038	8d 52 04	 lea	 edx, DWORD PTR [edx+4]
  0003b	83 ee 01	 sub	 esi, 1
  0003e	75 f0		 jne	 SHORT $LL8@Copy
$LN25@Copy:
  00040	5e		 pop	 esi
$LN17@Copy:
  00041	5f		 pop	 edi

; 502  : 	}
; 503  : }

  00042	5b		 pop	 ebx
  00043	5d		 pop	 ebp
  00044	c2 04 00	 ret	 4
$LN21@Copy:

; 54   : 	ENSURE(nCount == 0 || pDest != 0 && pSrc != 0);

  00047	e8 00 00 00 00	 call	 ?AfxThrowInvalidArgException@@YGXXZ ; AfxThrowInvalidArgException
$LN26@Copy:
  0004c	cc		 int	 3
?Copy@?$CArray@PAU_ST_HORZLINE@@PAU1@@@QAEXABV1@@Z ENDP	; CArray<_ST_HORZLINE *,_ST_HORZLINE *>::Copy
_TEXT	ENDS
; Function compile flags: /Ogtp
; File C:\Program Files (x86)\Microsoft Visual Studio\2019\Community\VC\Tools\MSVC\14.29.30133\atlmfc\include\afxtempl.h
;	COMDAT ?SetAtGrow@?$CArray@PAU_ST_HORZLINE@@PAU1@@@QAEXHPAU_ST_HORZLINE@@@Z
_TEXT	SEGMENT
_nIndex$ = 8						; size = 4
_newElement$ = 12					; size = 4
?SetAtGrow@?$CArray@PAU_ST_HORZLINE@@PAU1@@@QAEXHPAU_ST_HORZLINE@@@Z PROC ; CArray<_ST_HORZLINE *,_ST_HORZLINE *>::SetAtGrow, COMDAT
; _this$ = ecx

; 534  : {

  00000	55		 push	 ebp
  00001	8b ec		 mov	 ebp, esp
  00003	56		 push	 esi

; 535  : 	ASSERT_VALID(this);
; 536  : 	ASSERT(nIndex >= 0);
; 537  : 
; 538  : 	if(nIndex < 0)

  00004	8b 75 08	 mov	 esi, DWORD PTR _nIndex$[ebp]
  00007	57		 push	 edi
  00008	8b f9		 mov	 edi, ecx
  0000a	85 f6		 test	 esi, esi
  0000c	78 1f		 js	 SHORT $LN7@SetAtGrow

; 540  : 
; 541  : 	if (nIndex >= m_nSize)

  0000e	3b 77 08	 cmp	 esi, DWORD PTR [edi+8]
  00011	7c 0b		 jl	 SHORT $LN3@SetAtGrow

; 542  : 		SetSize(nIndex+1, -1);

  00013	6a ff		 push	 -1
  00015	8d 46 01	 lea	 eax, DWORD PTR [esi+1]
  00018	50		 push	 eax
  00019	e8 00 00 00 00	 call	 ?SetSize@?$CArray@PAU_ST_HORZLINE@@PAU1@@@QAEXHH@Z ; CArray<_ST_HORZLINE *,_ST_HORZLINE *>::SetSize
$LN3@SetAtGrow:

; 543  : 	m_pData[nIndex] = newElement;

  0001e	8b 4f 04	 mov	 ecx, DWORD PTR [edi+4]
  00021	8b 45 0c	 mov	 eax, DWORD PTR _newElement$[ebp]
  00024	5f		 pop	 edi
  00025	89 04 b1	 mov	 DWORD PTR [ecx+esi*4], eax
  00028	5e		 pop	 esi

; 544  : }

  00029	5d		 pop	 ebp
  0002a	c2 08 00	 ret	 8
$LN7@SetAtGrow:

; 539  : 		AfxThrowInvalidArgException();

  0002d	e8 00 00 00 00	 call	 ?AfxThrowInvalidArgException@@YGXXZ ; AfxThrowInvalidArgException
$LN5@SetAtGrow:
  00032	cc		 int	 3
?SetAtGrow@?$CArray@PAU_ST_HORZLINE@@PAU1@@@QAEXHPAU_ST_HORZLINE@@@Z ENDP ; CArray<_ST_HORZLINE *,_ST_HORZLINE *>::SetAtGrow
_TEXT	ENDS
; Function compile flags: /Ogtp
; File C:\Program Files (x86)\Microsoft Visual Studio\2019\Community\VC\Tools\MSVC\14.29.30133\atlmfc\include\afxtempl.h
; File C:\Program Files (x86)\Windows Kits\10\Include\10.0.22000.0\ucrt\corecrt_memcpy_s.h
; File C:\Program Files (x86)\Microsoft Visual Studio\2019\Community\VC\Tools\MSVC\14.29.30133\atlmfc\include\atlchecked.h
; File C:\Program Files (x86)\Microsoft Visual Studio\2019\Community\VC\Tools\MSVC\14.29.30133\atlmfc\include\afxtempl.h
; File C:\Program Files (x86)\Windows Kits\10\Include\10.0.22000.0\ucrt\corecrt_memcpy_s.h
; File C:\Program Files (x86)\Microsoft Visual Studio\2019\Community\VC\Tools\MSVC\14.29.30133\atlmfc\include\atlchecked.h
; File C:\Program Files (x86)\Windows Kits\10\Include\10.0.22000.0\ucrt\corecrt_memcpy_s.h
; File C:\Program Files (x86)\Microsoft Visual Studio\2019\Community\VC\Tools\MSVC\14.29.30133\atlmfc\include\afxtempl.h
;	COMDAT ?SetSize@?$CArray@PAU_ST_HORZLINE@@PAU1@@@QAEXHH@Z
_TEXT	SEGMENT
__N$1$ = -4						; size = 4
__S2$1$ = 8						; size = 4
_nNewSize$ = 8						; size = 4
_pNewData$1$ = 12					; size = 4
_nGrowBy$ = 12						; size = 4
?SetSize@?$CArray@PAU_ST_HORZLINE@@PAU1@@@QAEXHH@Z PROC	; CArray<_ST_HORZLINE *,_ST_HORZLINE *>::SetSize, COMDAT
; _this$ = ecx

; 368  : {

  00000	55		 push	 ebp
  00001	8b ec		 mov	 ebp, esp
  00003	51		 push	 ecx
  00004	53		 push	 ebx
  00005	56		 push	 esi

; 369  : 	ASSERT_VALID(this);
; 370  : 	ASSERT(nNewSize >= 0);
; 371  : 
; 372  : 	if(nNewSize < 0 )

  00006	8b 75 08	 mov	 esi, DWORD PTR _nNewSize$[ebp]
  00009	8b d9		 mov	 ebx, ecx
  0000b	57		 push	 edi
  0000c	85 f6		 test	 esi, esi
  0000e	0f 88 c2 01 00
	00		 js	 $LN70@SetSize

; 373  : 		AfxThrowInvalidArgException();
; 374  : 
; 375  : 	if (nGrowBy >= 0)

  00014	8b 45 0c	 mov	 eax, DWORD PTR _nGrowBy$[ebp]
  00017	85 c0		 test	 eax, eax
  00019	78 03		 js	 SHORT $LN69@SetSize

; 376  : 		m_nGrowBy = nGrowBy;  // set new size

  0001b	89 43 10	 mov	 DWORD PTR [ebx+16], eax
$LN69@SetSize:

; 377  : 
; 378  : 	if (nNewSize == 0)

  0001e	8b 4b 04	 mov	 ecx, DWORD PTR [ebx+4]
  00021	85 f6		 test	 esi, esi
  00023	75 27		 jne	 SHORT $LN19@SetSize

; 379  : 	{
; 380  : 		// shrink to nothing
; 381  : 		if (m_pData != NULL)

  00025	85 c9		 test	 ecx, ecx
  00027	74 0c		 je	 SHORT $LN21@SetSize

; 382  : 		{
; 383  : 			for( int i = 0; i < m_nSize; i++ )
; 384  : 				(m_pData + i)->~TYPE();
; 385  : 			delete[] (BYTE*)m_pData;

  00029	51		 push	 ecx
  0002a	e8 00 00 00 00	 call	 ??_V@YAXPAX@Z		; operator delete[]
  0002f	83 c4 04	 add	 esp, 4

; 386  : 			m_pData = NULL;

  00032	89 73 04	 mov	 DWORD PTR [ebx+4], esi
$LN21@SetSize:

; 472  : 		m_nSize = nNewSize;
; 473  : 		m_nMaxSize = nNewMax;
; 474  : 	}
; 475  : }

  00035	5f		 pop	 edi
  00036	5e		 pop	 esi
  00037	c7 43 0c 00 00
	00 00		 mov	 DWORD PTR [ebx+12], 0
  0003e	c7 43 08 00 00
	00 00		 mov	 DWORD PTR [ebx+8], 0
  00045	5b		 pop	 ebx
  00046	8b e5		 mov	 esp, ebp
  00048	5d		 pop	 ebp
  00049	c2 08 00	 ret	 8
$LN19@SetSize:

; 387  : 		}
; 388  : 		m_nSize = m_nMaxSize = 0;
; 389  : 	}
; 390  : 	else if (m_pData == NULL)

  0004c	85 c9		 test	 ecx, ecx
  0004e	75 36		 jne	 SHORT $LN22@SetSize

; 391  : 	{
; 392  : 		// create buffer big enough to hold number of requested elements or
; 393  : 		// m_nGrowBy elements, whichever is larger.
; 394  : #ifdef SIZE_T_MAX
; 395  : 		ASSERT(nNewSize <= SIZE_T_MAX/sizeof(TYPE));    // no overflow
; 396  : #endif
; 397  : 		size_t nAllocSize = __max(nNewSize, m_nGrowBy);

  00050	8b 7b 10	 mov	 edi, DWORD PTR [ebx+16]
  00053	3b f7		 cmp	 esi, edi
  00055	0f 4f fe	 cmovg	 edi, esi

; 398  : 		m_pData = (TYPE*) new BYTE[(size_t)nAllocSize * sizeof(TYPE)];

  00058	8d 34 bd 00 00
	00 00		 lea	 esi, DWORD PTR [edi*4]
  0005f	56		 push	 esi
  00060	e8 00 00 00 00	 call	 ??_U@YAPAXI@Z		; operator new[]

; 399  : 		memset((void*)m_pData, 0, (size_t)nAllocSize * sizeof(TYPE));

  00065	56		 push	 esi
  00066	6a 00		 push	 0
  00068	50		 push	 eax
  00069	89 43 04	 mov	 DWORD PTR [ebx+4], eax
  0006c	e8 00 00 00 00	 call	 _memset

; 400  : 		for( int i = 0; i < nNewSize; i++ )
; 401  : #pragma push_macro("new")
; 402  : #undef new
; 403  : 			::new( (void*)( m_pData + i ) ) TYPE;
; 404  : #pragma pop_macro("new")
; 405  : 		m_nSize = nNewSize;

  00071	8b 45 08	 mov	 eax, DWORD PTR _nNewSize$[ebp]
  00074	83 c4 10	 add	 esp, 16			; 00000010H

; 472  : 		m_nSize = nNewSize;
; 473  : 		m_nMaxSize = nNewMax;
; 474  : 	}
; 475  : }

  00077	89 7b 0c	 mov	 DWORD PTR [ebx+12], edi
  0007a	89 43 08	 mov	 DWORD PTR [ebx+8], eax
  0007d	5f		 pop	 edi
  0007e	5e		 pop	 esi
  0007f	5b		 pop	 ebx
  00080	8b e5		 mov	 esp, ebp
  00082	5d		 pop	 ebp
  00083	c2 08 00	 ret	 8
$LN22@SetSize:

; 406  : 		m_nMaxSize = nAllocSize;
; 407  : 	}
; 408  : 	else if (nNewSize <= m_nMaxSize)

  00086	8b 7b 0c	 mov	 edi, DWORD PTR [ebx+12]
  00089	3b f7		 cmp	 esi, edi
  0008b	7f 29		 jg	 SHORT $LN24@SetSize

; 409  : 	{
; 410  : 		// it fits
; 411  : 		if (nNewSize > m_nSize)

  0008d	8b 53 08	 mov	 edx, DWORD PTR [ebx+8]
  00090	3b f2		 cmp	 esi, edx
  00092	7e 16		 jle	 SHORT $LN26@SetSize

; 412  : 		{
; 413  : 			// initialize the new elements
; 414  : 			memset((void*)(m_pData + m_nSize), 0, (size_t)(nNewSize-m_nSize) * sizeof(TYPE));

  00094	8b c6		 mov	 eax, esi
  00096	2b c2		 sub	 eax, edx
  00098	c1 e0 02	 shl	 eax, 2
  0009b	50		 push	 eax
  0009c	8d 04 91	 lea	 eax, DWORD PTR [ecx+edx*4]
  0009f	6a 00		 push	 0
  000a1	50		 push	 eax
  000a2	e8 00 00 00 00	 call	 _memset
  000a7	83 c4 0c	 add	 esp, 12			; 0000000cH
$LN26@SetSize:

; 415  : 			for( int i = 0; i < nNewSize-m_nSize; i++ )
; 416  : #pragma push_macro("new")
; 417  : #undef new
; 418  : 				::new( (void*)( m_pData + m_nSize + i ) ) TYPE;
; 419  : #pragma pop_macro("new")
; 420  : 		}
; 421  : 		else if (m_nSize > nNewSize)
; 422  : 		{
; 423  : 			// destroy the old elements
; 424  : 			for( int i = 0; i < m_nSize-nNewSize; i++ )
; 425  : 				(m_pData + nNewSize + i)->~TYPE();
; 426  : 		}
; 427  : 		m_nSize = nNewSize;

  000aa	5f		 pop	 edi
  000ab	89 73 08	 mov	 DWORD PTR [ebx+8], esi

; 472  : 		m_nSize = nNewSize;
; 473  : 		m_nMaxSize = nNewMax;
; 474  : 	}
; 475  : }

  000ae	5e		 pop	 esi
  000af	5b		 pop	 ebx
  000b0	8b e5		 mov	 esp, ebp
  000b2	5d		 pop	 ebp
  000b3	c2 08 00	 ret	 8
$LN24@SetSize:

; 428  : 	}
; 429  : 	else
; 430  : 	{
; 431  : 		// otherwise, grow array
; 432  : 		nGrowBy = m_nGrowBy;

  000b6	8b 43 10	 mov	 eax, DWORD PTR [ebx+16]

; 433  : 		if (nGrowBy == 0)

  000b9	85 c0		 test	 eax, eax
  000bb	75 22		 jne	 SHORT $LN37@SetSize

; 434  : 		{
; 435  : 			// heuristically determine growth when nGrowBy == 0
; 436  : 			//  (this avoids heap fragmentation in many situations)
; 437  : 			nGrowBy = m_nSize / 8;

  000bd	8b 43 08	 mov	 eax, DWORD PTR [ebx+8]
  000c0	99		 cdq
  000c1	83 e2 07	 and	 edx, 7
  000c4	03 c2		 add	 eax, edx
  000c6	c1 f8 03	 sar	 eax, 3

; 438  : 			nGrowBy = (nGrowBy < 4) ? 4 : ((nGrowBy > 1024) ? 1024 : nGrowBy);

  000c9	83 f8 04	 cmp	 eax, 4
  000cc	7d 07		 jge	 SHORT $LN36@SetSize
  000ce	b8 04 00 00 00	 mov	 eax, 4
  000d3	eb 0a		 jmp	 SHORT $LN37@SetSize
$LN36@SetSize:
  000d5	b9 00 04 00 00	 mov	 ecx, 1024		; 00000400H
  000da	3b c1		 cmp	 eax, ecx
  000dc	0f 4f c1	 cmovg	 eax, ecx
$LN37@SetSize:

; 439  : 		}
; 440  : 		INT_PTR nNewMax;
; 441  : 		if (nNewSize < m_nMaxSize + nGrowBy)

  000df	03 f8		 add	 edi, eax
  000e1	3b f7		 cmp	 esi, edi
  000e3	7d 0b		 jge	 SHORT $LN30@SetSize

; 445  : 
; 446  : 		ASSERT(nNewMax >= m_nMaxSize);  // no wrap around
; 447  : 
; 448  : 		if(nNewMax  < m_nMaxSize)

  000e5	3b 7b 0c	 cmp	 edi, DWORD PTR [ebx+12]
  000e8	0f 8c e8 00 00
	00		 jl	 $LN70@SetSize
  000ee	eb 02		 jmp	 SHORT $LN32@SetSize
$LN30@SetSize:

; 442  : 			nNewMax = m_nMaxSize + nGrowBy;  // granularity
; 443  : 		else
; 444  : 			nNewMax = nNewSize;  // no slush

  000f0	8b fe		 mov	 edi, esi
$LN32@SetSize:

; 450  : 
; 451  : #ifdef SIZE_T_MAX
; 452  : 		ASSERT(nNewMax <= SIZE_T_MAX/sizeof(TYPE)); // no overflow
; 453  : #endif
; 454  : 		TYPE* pNewData = (TYPE*) new BYTE[(size_t)nNewMax * sizeof(TYPE)];

  000f2	8d 04 bd 00 00
	00 00		 lea	 eax, DWORD PTR [edi*4]
  000f9	50		 push	 eax
  000fa	e8 00 00 00 00	 call	 ??_U@YAPAXI@Z		; operator new[]

; 455  : 
; 456  : 		// copy new data from old
; 457  : 		::ATL::Checked::memcpy_s(pNewData, (size_t)nNewMax * sizeof(TYPE),

  000ff	8b 53 04	 mov	 edx, DWORD PTR [ebx+4]
  00102	8b c8		 mov	 ecx, eax
  00104	8b 43 08	 mov	 eax, DWORD PTR [ebx+8]
  00107	83 c4 04	 add	 esp, 4
  0010a	c1 e0 02	 shl	 eax, 2
  0010d	89 4d 0c	 mov	 DWORD PTR _pNewData$1$[ebp], ecx
  00110	89 45 fc	 mov	 DWORD PTR __N$1$[ebp], eax
  00113	89 55 08	 mov	 DWORD PTR __S2$1$[ebp], edx
; File C:\Program Files (x86)\Windows Kits\10\Include\10.0.22000.0\ucrt\corecrt_memcpy_s.h

; 46   :         if (_SourceSize == 0)

  00116	85 c0		 test	 eax, eax
  00118	74 76		 je	 SHORT $LN74@SetSize

; 47   :         {
; 48   :             return 0;
; 49   :         }
; 50   : 
; 51   :         _CRT_MEMCPY_S_VALIDATE_RETURN_ERRCODE(_Destination != NULL, EINVAL);

  0011a	85 c9		 test	 ecx, ecx
  0011c	75 56		 jne	 SHORT $LN42@SetSize
$LN73@SetSize:
; File C:\Program Files (x86)\Microsoft Visual Studio\2019\Community\VC\Tools\MSVC\14.29.30133\atlmfc\include\atlchecked.h

; 69   : 	ATLMFC_CRT_ERRORCHECK(::memcpy_s(_S1, _S1max, _S2, _N));

  0011e	ff 15 00 00 00
	00		 call	 DWORD PTR __imp___errno
  00124	c7 00 16 00 00
	00		 mov	 DWORD PTR [eax], 22	; 00000016H
  0012a	ff 15 00 00 00
	00		 call	 DWORD PTR __imp___invalid_parameter_noinfo
$LN46@SetSize:
  00130	b8 16 00 00 00	 mov	 eax, 22			; 00000016H
$LN40@SetSize:
  00135	50		 push	 eax
  00136	e8 00 00 00 00	 call	 ?AfxCrtErrorCheck@@YAHH@Z ; AfxCrtErrorCheck
; File C:\Program Files (x86)\Microsoft Visual Studio\2019\Community\VC\Tools\MSVC\14.29.30133\atlmfc\include\afxtempl.h

; 462  : 		memset((void*)(pNewData + m_nSize), 0, (size_t)(nNewSize-m_nSize) * sizeof(TYPE));

  0013b	8b 4b 08	 mov	 ecx, DWORD PTR [ebx+8]
  0013e	8b c6		 mov	 eax, esi
  00140	2b c1		 sub	 eax, ecx
  00142	c1 e0 02	 shl	 eax, 2
  00145	50		 push	 eax
  00146	8b 45 0c	 mov	 eax, DWORD PTR _pNewData$1$[ebp]
  00149	6a 00		 push	 0
  0014b	8d 04 88	 lea	 eax, DWORD PTR [eax+ecx*4]
  0014e	50		 push	 eax
  0014f	e8 00 00 00 00	 call	 _memset

; 463  : 		for( int i = 0; i < nNewSize-m_nSize; i++ )
; 464  : #pragma push_macro("new")
; 465  : #undef new
; 466  : 			::new( (void*)( pNewData + m_nSize + i ) ) TYPE;
; 467  : #pragma pop_macro("new")
; 468  : 
; 469  : 		// get rid of old stuff (note: no destructors called)
; 470  : 		delete[] (BYTE*)m_pData;

  00154	ff 73 04	 push	 DWORD PTR [ebx+4]
  00157	e8 00 00 00 00	 call	 ??_V@YAXPAX@Z		; operator delete[]

; 471  : 		m_pData = pNewData;

  0015c	8b 45 0c	 mov	 eax, DWORD PTR _pNewData$1$[ebp]
  0015f	83 c4 14	 add	 esp, 20			; 00000014H

; 472  : 		m_nSize = nNewSize;
; 473  : 		m_nMaxSize = nNewMax;
; 474  : 	}
; 475  : }

  00162	89 7b 0c	 mov	 DWORD PTR [ebx+12], edi
  00165	89 73 08	 mov	 DWORD PTR [ebx+8], esi
  00168	89 43 04	 mov	 DWORD PTR [ebx+4], eax
  0016b	5f		 pop	 edi
  0016c	5e		 pop	 esi
  0016d	5b		 pop	 ebx
  0016e	8b e5		 mov	 esp, ebp
  00170	5d		 pop	 ebp
  00171	c2 08 00	 ret	 8
$LN42@SetSize:
; File C:\Program Files (x86)\Windows Kits\10\Include\10.0.22000.0\ucrt\corecrt_memcpy_s.h

; 52   :         if (_Source == NULL || _DestinationSize < _SourceSize)

  00174	85 d2		 test	 edx, edx
  00176	8d 14 bd 00 00
	00 00		 lea	 edx, DWORD PTR [edi*4]
  0017d	74 15		 je	 SHORT $LN44@SetSize
  0017f	3b d0		 cmp	 edx, eax
  00181	72 11		 jb	 SHORT $LN44@SetSize

; 58   : 
; 59   :             // Unreachable, but required to suppress /analyze warnings:
; 60   :             return EINVAL;
; 61   :         }
; 62   :         memcpy(_Destination, _Source, _SourceSize);

  00183	50		 push	 eax
  00184	ff 75 08	 push	 DWORD PTR __S2$1$[ebp]
  00187	51		 push	 ecx
  00188	e8 00 00 00 00	 call	 _memcpy
  0018d	83 c4 0c	 add	 esp, 12			; 0000000cH
$LN74@SetSize:
; File C:\Program Files (x86)\Microsoft Visual Studio\2019\Community\VC\Tools\MSVC\14.29.30133\atlmfc\include\atlchecked.h

; 69   : 	ATLMFC_CRT_ERRORCHECK(::memcpy_s(_S1, _S1max, _S2, _N));

  00190	33 c0		 xor	 eax, eax
  00192	eb a1		 jmp	 SHORT $LN40@SetSize
$LN44@SetSize:
; File C:\Program Files (x86)\Windows Kits\10\Include\10.0.22000.0\ucrt\corecrt_memcpy_s.h

; 54   :             memset(_Destination, 0, _DestinationSize);

  00194	52		 push	 edx
  00195	6a 00		 push	 0
  00197	51		 push	 ecx
  00198	e8 00 00 00 00	 call	 _memset
  0019d	83 c4 0c	 add	 esp, 12			; 0000000cH

; 55   : 
; 56   :             _CRT_MEMCPY_S_VALIDATE_RETURN_ERRCODE(_Source != NULL,                 EINVAL);

  001a0	83 7d 08 00	 cmp	 DWORD PTR __S2$1$[ebp], 0
  001a4	0f 84 74 ff ff
	ff		 je	 $LN73@SetSize

; 57   :             _CRT_MEMCPY_S_VALIDATE_RETURN_ERRCODE(_DestinationSize >= _SourceSize, ERANGE);

  001aa	8d 04 bd 00 00
	00 00		 lea	 eax, DWORD PTR [edi*4]
  001b1	3b 45 fc	 cmp	 eax, DWORD PTR __N$1$[ebp]
  001b4	0f 83 76 ff ff
	ff		 jae	 $LN46@SetSize
  001ba	ff 15 00 00 00
	00		 call	 DWORD PTR __imp___errno
  001c0	c7 00 22 00 00
	00		 mov	 DWORD PTR [eax], 34	; 00000022H
  001c6	ff 15 00 00 00
	00		 call	 DWORD PTR __imp___invalid_parameter_noinfo
  001cc	b8 22 00 00 00	 mov	 eax, 34			; 00000022H
  001d1	e9 5f ff ff ff	 jmp	 $LN40@SetSize
$LN70@SetSize:
; File C:\Program Files (x86)\Microsoft Visual Studio\2019\Community\VC\Tools\MSVC\14.29.30133\atlmfc\include\afxtempl.h

; 449  : 			AfxThrowInvalidArgException();

  001d6	e8 00 00 00 00	 call	 ?AfxThrowInvalidArgException@@YGXXZ ; AfxThrowInvalidArgException
$LN72@SetSize:
  001db	cc		 int	 3
?SetSize@?$CArray@PAU_ST_HORZLINE@@PAU1@@@QAEXHH@Z ENDP	; CArray<_ST_HORZLINE *,_ST_HORZLINE *>::SetSize
_TEXT	ENDS
; Function compile flags: /Ogtp
; File C:\Program Files (x86)\Microsoft Visual Studio\2019\Community\VC\Tools\MSVC\14.29.30133\atlmfc\include\afxtempl.h
;	COMDAT ??0?$CArray@PAU_ST_HORZLINE@@PAU1@@@QAE@XZ
_TEXT	SEGMENT
??0?$CArray@PAU_ST_HORZLINE@@PAU1@@@QAE@XZ PROC		; CArray<_ST_HORZLINE *,_ST_HORZLINE *>::CArray<_ST_HORZLINE *,_ST_HORZLINE *>, COMDAT
; _this$ = ecx

; 348  : {

  00000	c7 01 00 00 00
	00		 mov	 DWORD PTR [ecx], OFFSET ??_7?$CArray@PAU_ST_HORZLINE@@PAU1@@@6B@

; 349  : 	m_pData = NULL;
; 350  : 	m_nSize = m_nMaxSize = m_nGrowBy = 0;
; 351  : }

  00006	8b c1		 mov	 eax, ecx
  00008	c7 41 04 00 00
	00 00		 mov	 DWORD PTR [ecx+4], 0
  0000f	c7 41 10 00 00
	00 00		 mov	 DWORD PTR [ecx+16], 0
  00016	c7 41 0c 00 00
	00 00		 mov	 DWORD PTR [ecx+12], 0
  0001d	c7 41 08 00 00
	00 00		 mov	 DWORD PTR [ecx+8], 0
  00024	c3		 ret	 0
??0?$CArray@PAU_ST_HORZLINE@@PAU1@@@QAE@XZ ENDP		; CArray<_ST_HORZLINE *,_ST_HORZLINE *>::CArray<_ST_HORZLINE *,_ST_HORZLINE *>
_TEXT	ENDS
; Function compile flags: /Ogtp
; File D:\git\src\IBK\IBK_DRFN\ProjSrc\SrcChartEx\ChartOCX\Include_Chart\GraphData.h
;	COMDAT ?GetHorizontalLine@CSubGraphDataBase@@QBEABV?$CArray@PAU_ST_HORZLINE@@PAU1@@@XZ
_TEXT	SEGMENT
?GetHorizontalLine@CSubGraphDataBase@@QBEABV?$CArray@PAU_ST_HORZLINE@@PAU1@@@XZ PROC ; CSubGraphDataBase::GetHorizontalLine, COMDAT
; _this$ = ecx

; 313  : 	const CArray<ST_HORZLINE*, ST_HORZLINE*>& GetHorizontalLine() const { return m_arrHorzLine; }

  00000	8d 41 70	 lea	 eax, DWORD PTR [ecx+112]
  00003	c3		 ret	 0
?GetHorizontalLine@CSubGraphDataBase@@QBEABV?$CArray@PAU_ST_HORZLINE@@PAU1@@@XZ ENDP ; CSubGraphDataBase::GetHorizontalLine
_TEXT	ENDS
; Function compile flags: /Ogtp
; File D:\git\src\IBK\IBK_DRFN\ProjSrc\SrcChartEx\ChartOCX\IndicatorCondition\GraphData.cpp
; File C:\Program Files (x86)\Microsoft Visual Studio\2019\Community\VC\Tools\MSVC\14.29.30133\atlmfc\include\afxtempl.h
; File D:\git\src\IBK\IBK_DRFN\ProjSrc\SrcChartEx\ChartOCX\IndicatorCondition\GraphData.cpp
; File C:\Program Files (x86)\Microsoft Visual Studio\2019\Community\VC\Tools\MSVC\14.29.30133\atlmfc\include\afxtempl.h
; File D:\git\src\IBK\IBK_DRFN\ProjSrc\SrcChartEx\ChartOCX\IndicatorCondition\GraphData.cpp
; File C:\Program Files (x86)\Microsoft Visual Studio\2019\Community\VC\Tools\MSVC\14.29.30133\atlmfc\include\afxtempl.h
; File D:\git\src\IBK\IBK_DRFN\ProjSrc\SrcChartEx\ChartOCX\IndicatorCondition\GraphData.cpp
;	COMDAT ?DeleteAllHorizontalLine@CSubGraphDataBase@@QAEXXZ
_TEXT	SEGMENT
?DeleteAllHorizontalLine@CSubGraphDataBase@@QAEXXZ PROC	; CSubGraphDataBase::DeleteAllHorizontalLine, COMDAT
; _this$ = ecx

; 1430 : {

  00000	56		 push	 esi
  00001	57		 push	 edi
  00002	8b f9		 mov	 edi, ecx

; 1431 : 	for(int i = 0; i < m_arrHorzLine.GetSize(); i++)

  00004	33 f6		 xor	 esi, esi
  00006	8b 47 78	 mov	 eax, DWORD PTR [edi+120]
  00009	85 c0		 test	 eax, eax
  0000b	7e 32		 jle	 SHORT $LN3@DeleteAllH
  0000d	53		 push	 ebx
  0000e	66 90		 npad	 2
$LL4@DeleteAllH:
; File C:\Program Files (x86)\Microsoft Visual Studio\2019\Community\VC\Tools\MSVC\14.29.30133\atlmfc\include\afxtempl.h

; 288  : 	if(nIndex >= 0 && nIndex < m_nSize)

  00010	85 f6		 test	 esi, esi
  00012	78 53		 js	 SHORT $LN9@DeleteAllH
  00014	3b f0		 cmp	 esi, eax
  00016	7d 4f		 jge	 SHORT $LN9@DeleteAllH
; File D:\git\src\IBK\IBK_DRFN\ProjSrc\SrcChartEx\ChartOCX\IndicatorCondition\GraphData.cpp

; 1434 : 		delete pInfo;

  00018	8b 47 74	 mov	 eax, DWORD PTR [edi+116]
  0001b	8b 1c b0	 mov	 ebx, DWORD PTR [eax+esi*4]
  0001e	85 db		 test	 ebx, ebx
  00020	74 14		 je	 SHORT $LN2@DeleteAllH
  00022	8d 4b 04	 lea	 ecx, DWORD PTR [ebx+4]
  00025	ff 15 00 00 00
	00		 call	 DWORD PTR __imp_??1?$CStringT@DV?$StrTraitMFC_DLL@DV?$ChTraitsCRT@D@ATL@@@@@ATL@@QAE@XZ
  0002b	6a 18		 push	 24			; 00000018H
  0002d	53		 push	 ebx
  0002e	e8 00 00 00 00	 call	 ??3@YAXPAXI@Z		; operator delete
  00033	83 c4 08	 add	 esp, 8
$LN2@DeleteAllH:

; 1431 : 	for(int i = 0; i < m_arrHorzLine.GetSize(); i++)

  00036	8b 47 78	 mov	 eax, DWORD PTR [edi+120]
  00039	46		 inc	 esi
  0003a	3b f0		 cmp	 esi, eax
  0003c	7c d2		 jl	 SHORT $LL4@DeleteAllH
  0003e	5b		 pop	 ebx
$LN3@DeleteAllH:
; File C:\Program Files (x86)\Microsoft Visual Studio\2019\Community\VC\Tools\MSVC\14.29.30133\atlmfc\include\afxtempl.h

; 381  : 		if (m_pData != NULL)

  0003f	8b 47 74	 mov	 eax, DWORD PTR [edi+116]
  00042	85 c0		 test	 eax, eax
  00044	74 10		 je	 SHORT $LN40@DeleteAllH

; 382  : 		{
; 383  : 			for( int i = 0; i < m_nSize; i++ )
; 384  : 				(m_pData + i)->~TYPE();
; 385  : 			delete[] (BYTE*)m_pData;

  00046	50		 push	 eax
  00047	e8 00 00 00 00	 call	 ??_V@YAXPAX@Z		; operator delete[]
  0004c	83 c4 04	 add	 esp, 4

; 386  : 			m_pData = NULL;

  0004f	c7 47 74 00 00
	00 00		 mov	 DWORD PTR [edi+116], 0
$LN40@DeleteAllH:

; 387  : 		}
; 388  : 		m_nSize = m_nMaxSize = 0;

  00056	c7 47 7c 00 00
	00 00		 mov	 DWORD PTR [edi+124], 0
  0005d	c7 47 78 00 00
	00 00		 mov	 DWORD PTR [edi+120], 0
  00064	5f		 pop	 edi
  00065	5e		 pop	 esi
; File D:\git\src\IBK\IBK_DRFN\ProjSrc\SrcChartEx\ChartOCX\IndicatorCondition\GraphData.cpp

; 1438 : }

  00066	c3		 ret	 0
$LN9@DeleteAllH:
; File C:\Program Files (x86)\Microsoft Visual Studio\2019\Community\VC\Tools\MSVC\14.29.30133\atlmfc\include\afxtempl.h

; 290  : 	AfxThrowInvalidArgException();

  00067	e8 00 00 00 00	 call	 ?AfxThrowInvalidArgException@@YGXXZ ; AfxThrowInvalidArgException
$LN76@DeleteAllH:
  0006c	cc		 int	 3
?DeleteAllHorizontalLine@CSubGraphDataBase@@QAEXXZ ENDP	; CSubGraphDataBase::DeleteAllHorizontalLine
_TEXT	ENDS
; Function compile flags: /Ogtp
; File D:\git\src\IBK\IBK_DRFN\ProjSrc\SrcChartEx\ChartOCX\IndicatorCondition\GraphData.cpp
; File C:\Program Files (x86)\Microsoft Visual Studio\2019\Community\VC\Tools\MSVC\14.29.30133\atlmfc\include\afxtempl.h
; File D:\git\src\IBK\IBK_DRFN\ProjSrc\SrcChartEx\ChartOCX\IndicatorCondition\GraphData.cpp
; File C:\Program Files (x86)\Microsoft Visual Studio\2019\Community\VC\Tools\MSVC\14.29.30133\atlmfc\include\afxtempl.h
; File C:\Program Files (x86)\Windows Kits\10\Include\10.0.22000.0\ucrt\corecrt_memcpy_s.h
; File C:\Program Files (x86)\Microsoft Visual Studio\2019\Community\VC\Tools\MSVC\14.29.30133\atlmfc\include\atlchecked.h
; File C:\Program Files (x86)\Windows Kits\10\Include\10.0.22000.0\ucrt\corecrt_memcpy_s.h
; File C:\Program Files (x86)\Microsoft Visual Studio\2019\Community\VC\Tools\MSVC\14.29.30133\atlmfc\include\atlchecked.h
; File C:\Program Files (x86)\Microsoft Visual Studio\2019\Community\VC\Tools\MSVC\14.29.30133\atlmfc\include\afxtempl.h
; File D:\git\src\IBK\IBK_DRFN\ProjSrc\SrcChartEx\ChartOCX\IndicatorCondition\GraphData.cpp
; File C:\Program Files (x86)\Microsoft Visual Studio\2019\Community\VC\Tools\MSVC\14.29.30133\atlmfc\include\afxtempl.h
; File D:\git\src\IBK\IBK_DRFN\ProjSrc\SrcChartEx\ChartOCX\IndicatorCondition\GraphData.cpp
;	COMDAT ?DeleteHorizontalLine@CSubGraphDataBase@@QAEXJ@Z
_TEXT	SEGMENT
_pInfo$1$ = 8						; size = 4
_nIndex$ = 8						; size = 4
?DeleteHorizontalLine@CSubGraphDataBase@@QAEXJ@Z PROC	; CSubGraphDataBase::DeleteHorizontalLine, COMDAT
; _this$ = ecx

; 1414 : {

  00000	55		 push	 ebp
  00001	8b ec		 mov	 ebp, esp
  00003	53		 push	 ebx
  00004	8b d9		 mov	 ebx, ecx
  00006	56		 push	 esi

; 1415 : 	for(int i = 0; i < m_arrHorzLine.GetSize(); i++)

  00007	33 f6		 xor	 esi, esi
  00009	8b 53 78	 mov	 edx, DWORD PTR [ebx+120]
  0000c	85 d2		 test	 edx, edx
  0000e	7e 2b		 jle	 SHORT $LN3@DeleteHori
  00010	8b 4d 08	 mov	 ecx, DWORD PTR _nIndex$[ebp]
  00013	57		 push	 edi
$LL4@DeleteHori:
; File C:\Program Files (x86)\Microsoft Visual Studio\2019\Community\VC\Tools\MSVC\14.29.30133\atlmfc\include\afxtempl.h

; 288  : 	if(nIndex >= 0 && nIndex < m_nSize)

  00014	85 f6		 test	 esi, esi
  00016	0f 88 a5 00 00
	00		 js	 $LN10@DeleteHori
  0001c	3b f2		 cmp	 esi, edx
  0001e	0f 8d 9d 00 00
	00		 jge	 $LN10@DeleteHori
; File D:\git\src\IBK\IBK_DRFN\ProjSrc\SrcChartEx\ChartOCX\IndicatorCondition\GraphData.cpp

; 1418 : 		if(pInfo->m_nIndex == (UINT)nIndex)

  00024	8b 43 74	 mov	 eax, DWORD PTR [ebx+116]
  00027	8d 7e 01	 lea	 edi, DWORD PTR [esi+1]
  0002a	8b 04 b0	 mov	 eax, DWORD PTR [eax+esi*4]
  0002d	89 45 08	 mov	 DWORD PTR _pInfo$1$[ebp], eax
  00030	39 08		 cmp	 DWORD PTR [eax], ecx
  00032	74 0d		 je	 SHORT $LN37@DeleteHori

; 1415 : 	for(int i = 0; i < m_arrHorzLine.GetSize(); i++)

  00034	8b f7		 mov	 esi, edi
  00036	3b f2		 cmp	 esi, edx
  00038	7c da		 jl	 SHORT $LL4@DeleteHori
  0003a	5f		 pop	 edi
$LN3@DeleteHori:
  0003b	5e		 pop	 esi

; 1426 : }

  0003c	5b		 pop	 ebx
  0003d	5d		 pop	 ebp
  0003e	c2 04 00	 ret	 4
$LN37@DeleteHori:
  00041	8d 48 04	 lea	 ecx, DWORD PTR [eax+4]
  00044	ff 15 00 00 00
	00		 call	 DWORD PTR __imp_??1?$CStringT@DV?$StrTraitMFC_DLL@DV?$ChTraitsCRT@D@ATL@@@@@ATL@@QAE@XZ
  0004a	6a 18		 push	 24			; 00000018H
  0004c	ff 75 08	 push	 DWORD PTR _pInfo$1$[ebp]
  0004f	e8 00 00 00 00	 call	 ??3@YAXPAXI@Z		; operator delete
; File C:\Program Files (x86)\Microsoft Visual Studio\2019\Community\VC\Tools\MSVC\14.29.30133\atlmfc\include\afxtempl.h

; 597  : 	if(nIndex < 0 || nCount < 0 || (nUpperBound > m_nSize) || (nUpperBound < nIndex) || (nUpperBound < nCount))

  00054	8b 43 78	 mov	 eax, DWORD PTR [ebx+120]
  00057	83 c4 08	 add	 esp, 8
  0005a	3b f8		 cmp	 edi, eax
  0005c	7f 63		 jg	 SHORT $LN10@DeleteHori
  0005e	3b fe		 cmp	 edi, esi
  00060	7c 5f		 jl	 SHORT $LN10@DeleteHori

; 598  : 		AfxThrowInvalidArgException();
; 599  : 
; 600  : 	// just remove a range
; 601  : 	INT_PTR nMoveCount = m_nSize - (nUpperBound);

  00062	8b c8		 mov	 ecx, eax
  00064	2b cf		 sub	 ecx, edi

; 602  : 	for( int i = 0; i < nCount; i++ )
; 603  : 		(m_pData + nIndex + i)->~TYPE();
; 604  : 	if (nMoveCount)

  00066	74 4e		 je	 SHORT $LN25@DeleteHori

; 605  : 	{
; 606  : 		::ATL::Checked::memmove_s(m_pData + nIndex, (size_t)nMoveCount * sizeof(TYPE),

  00068	8b 43 74	 mov	 eax, DWORD PTR [ebx+116]
  0006b	8d 14 8d 00 00
	00 00		 lea	 edx, DWORD PTR [ecx*4]
  00072	8d 0c b8	 lea	 ecx, DWORD PTR [eax+edi*4]
  00075	8d 04 b0	 lea	 eax, DWORD PTR [eax+esi*4]
; File C:\Program Files (x86)\Windows Kits\10\Include\10.0.22000.0\ucrt\corecrt_memcpy_s.h

; 74   :         if (_SourceSize == 0)

  00078	85 d2		 test	 edx, edx
  0007a	74 2c		 je	 SHORT $LN46@DeleteHori

; 75   :         {
; 76   :             return 0;
; 77   :         }
; 78   : 
; 79   :         _CRT_MEMCPY_S_VALIDATE_RETURN_ERRCODE(_Destination != NULL,            EINVAL);

  0007c	85 c0		 test	 eax, eax
  0007e	75 19		 jne	 SHORT $LN31@DeleteHori
$LN47@DeleteHori:
; File C:\Program Files (x86)\Microsoft Visual Studio\2019\Community\VC\Tools\MSVC\14.29.30133\atlmfc\include\atlchecked.h

; 87   : 	ATLMFC_CRT_ERRORCHECK(::memmove_s(_S1, _S1max, _S2, _N));

  00080	ff 15 00 00 00
	00		 call	 DWORD PTR __imp___errno
  00086	c7 00 16 00 00
	00		 mov	 DWORD PTR [eax], 22	; 00000016H
  0008c	ff 15 00 00 00
	00		 call	 DWORD PTR __imp___invalid_parameter_noinfo
  00092	b8 16 00 00 00	 mov	 eax, 22			; 00000016H
  00097	eb 11		 jmp	 SHORT $LN29@DeleteHori
$LN31@DeleteHori:
; File C:\Program Files (x86)\Windows Kits\10\Include\10.0.22000.0\ucrt\corecrt_memcpy_s.h

; 80   :         _CRT_MEMCPY_S_VALIDATE_RETURN_ERRCODE(_Source != NULL,                 EINVAL);

  00099	85 c9		 test	 ecx, ecx
  0009b	74 e3		 je	 SHORT $LN47@DeleteHori

; 81   :         _CRT_MEMCPY_S_VALIDATE_RETURN_ERRCODE(_DestinationSize >= _SourceSize, ERANGE);
; 82   : 
; 83   :         memmove(_Destination, _Source, _SourceSize);

  0009d	52		 push	 edx
  0009e	51		 push	 ecx
  0009f	50		 push	 eax
  000a0	e8 00 00 00 00	 call	 _memmove
  000a5	83 c4 0c	 add	 esp, 12			; 0000000cH
$LN46@DeleteHori:
; File C:\Program Files (x86)\Microsoft Visual Studio\2019\Community\VC\Tools\MSVC\14.29.30133\atlmfc\include\atlchecked.h

; 87   : 	ATLMFC_CRT_ERRORCHECK(::memmove_s(_S1, _S1max, _S2, _N));

  000a8	33 c0		 xor	 eax, eax
$LN29@DeleteHori:
  000aa	50		 push	 eax
  000ab	e8 00 00 00 00	 call	 ?AfxCrtErrorCheck@@YAHH@Z ; AfxCrtErrorCheck
  000b0	8b 43 78	 mov	 eax, DWORD PTR [ebx+120]
  000b3	83 c4 04	 add	 esp, 4
$LN25@DeleteHori:
  000b6	5f		 pop	 edi
; File C:\Program Files (x86)\Microsoft Visual Studio\2019\Community\VC\Tools\MSVC\14.29.30133\atlmfc\include\afxtempl.h

; 609  : 	m_nSize -= nCount;

  000b7	48		 dec	 eax
  000b8	5e		 pop	 esi
  000b9	89 43 78	 mov	 DWORD PTR [ebx+120], eax
; File D:\git\src\IBK\IBK_DRFN\ProjSrc\SrcChartEx\ChartOCX\IndicatorCondition\GraphData.cpp

; 1426 : }

  000bc	5b		 pop	 ebx
  000bd	5d		 pop	 ebp
  000be	c2 04 00	 ret	 4
$LN10@DeleteHori:
; File C:\Program Files (x86)\Microsoft Visual Studio\2019\Community\VC\Tools\MSVC\14.29.30133\atlmfc\include\afxtempl.h

; 290  : 	AfxThrowInvalidArgException();

  000c1	e8 00 00 00 00	 call	 ?AfxThrowInvalidArgException@@YGXXZ ; AfxThrowInvalidArgException
$LN45@DeleteHori:
  000c6	cc		 int	 3
?DeleteHorizontalLine@CSubGraphDataBase@@QAEXJ@Z ENDP	; CSubGraphDataBase::DeleteHorizontalLine
_TEXT	ENDS
; Function compile flags: /Ogtp
; File D:\git\src\IBK\IBK_DRFN\ProjSrc\SrcChartEx\ChartOCX\IndicatorCondition\GraphData.cpp
; File C:\Program Files (x86)\Microsoft Visual Studio\2019\Community\VC\Tools\MSVC\14.29.30133\atlmfc\include\afxtempl.h
; File D:\git\src\IBK\IBK_DRFN\ProjSrc\SrcChartEx\ChartOCX\IndicatorCondition\GraphData.cpp
; File C:\Program Files (x86)\Microsoft Visual Studio\2019\Community\VC\Tools\MSVC\14.29.30133\atlmfc\include\afxtempl.h
; File D:\git\src\IBK\IBK_DRFN\ProjSrc\SrcChartEx\ChartOCX\IndicatorCondition\GraphData.cpp
;	COMDAT ?UpdateHorizontalLine@CSubGraphDataBase@@QAEXJPBDKFN@Z
_TEXT	SEGMENT
_nIndex$ = 8						; size = 4
_lpszTitle$ = 12					; size = 4
_clrLine$ = 16						; size = 4
_nLine$ = 20						; size = 2
_dPrice$ = 24						; size = 8
?UpdateHorizontalLine@CSubGraphDataBase@@QAEXJPBDKFN@Z PROC ; CSubGraphDataBase::UpdateHorizontalLine, COMDAT
; _this$ = ecx

; 1396 : {

  00000	55		 push	 ebp
  00001	8b ec		 mov	 ebp, esp
  00003	56		 push	 esi

; 1397 : 	for(int i = 0; i < m_arrHorzLine.GetSize(); i++)

  00004	8b 71 78	 mov	 esi, DWORD PTR [ecx+120]
  00007	33 d2		 xor	 edx, edx
  00009	85 f6		 test	 esi, esi
  0000b	7e 1e		 jle	 SHORT $LN3@UpdateHori
  0000d	53		 push	 ebx
  0000e	8b 5d 08	 mov	 ebx, DWORD PTR _nIndex$[ebp]
  00011	57		 push	 edi
$LL4@UpdateHori:
; File C:\Program Files (x86)\Microsoft Visual Studio\2019\Community\VC\Tools\MSVC\14.29.30133\atlmfc\include\afxtempl.h

; 288  : 	if(nIndex >= 0 && nIndex < m_nSize)

  00012	85 d2		 test	 edx, edx
  00014	78 45		 js	 SHORT $LN8@UpdateHori
  00016	3b d6		 cmp	 edx, esi
  00018	7d 41		 jge	 SHORT $LN8@UpdateHori
; File D:\git\src\IBK\IBK_DRFN\ProjSrc\SrcChartEx\ChartOCX\IndicatorCondition\GraphData.cpp

; 1399 : 		ST_HORZLINE* pInfo = m_arrHorzLine.GetAt(i);

  0001a	8b 41 74	 mov	 eax, DWORD PTR [ecx+116]
  0001d	8b 3c 90	 mov	 edi, DWORD PTR [eax+edx*4]

; 1400 : 		if(pInfo->m_nIndex == (UINT)nIndex)

  00020	39 1f		 cmp	 DWORD PTR [edi], ebx
  00022	74 0c		 je	 SHORT $LN12@UpdateHori

; 1397 : 	for(int i = 0; i < m_arrHorzLine.GetSize(); i++)

  00024	42		 inc	 edx
  00025	3b d6		 cmp	 edx, esi
  00027	7c e9		 jl	 SHORT $LL4@UpdateHori
  00029	5f		 pop	 edi
  0002a	5b		 pop	 ebx
$LN3@UpdateHori:
  0002b	5e		 pop	 esi

; 1410 : }

  0002c	5d		 pop	 ebp
  0002d	c2 18 00	 ret	 24			; 00000018H
$LN12@UpdateHori:

; 1401 : 		{
; 1402 : 			pInfo->m_strTitle = lpszTitle;

  00030	ff 75 0c	 push	 DWORD PTR _lpszTitle$[ebp]
  00033	8d 4f 04	 lea	 ecx, DWORD PTR [edi+4]
  00036	ff 15 00 00 00
	00		 call	 DWORD PTR __imp_??4?$CStringT@DV?$StrTraitMFC_DLL@DV?$ChTraitsCRT@D@ATL@@@@@ATL@@QAEAAV01@PBD@Z

; 1403 : 			pInfo->m_clrLine = clrLine;

  0003c	8b 45 10	 mov	 eax, DWORD PTR _clrLine$[ebp]

; 1404 : 			pInfo->m_nLine = nLine;
; 1405 : 			pInfo->m_dPrice = dPrice;

  0003f	f2 0f 10 45 18	 movsd	 xmm0, QWORD PTR _dPrice$[ebp]
  00044	89 47 08	 mov	 DWORD PTR [edi+8], eax
  00047	66 8b 45 14	 mov	 ax, WORD PTR _nLine$[ebp]
  0004b	66 89 47 0c	 mov	 WORD PTR [edi+12], ax
  0004f	f2 0f 11 47 10	 movsd	 QWORD PTR [edi+16], xmm0
  00054	5f		 pop	 edi
  00055	5b		 pop	 ebx
  00056	5e		 pop	 esi

; 1410 : }

  00057	5d		 pop	 ebp
  00058	c2 18 00	 ret	 24			; 00000018H
$LN8@UpdateHori:
; File C:\Program Files (x86)\Microsoft Visual Studio\2019\Community\VC\Tools\MSVC\14.29.30133\atlmfc\include\afxtempl.h

; 290  : 	AfxThrowInvalidArgException();

  0005b	e8 00 00 00 00	 call	 ?AfxThrowInvalidArgException@@YGXXZ ; AfxThrowInvalidArgException
$LN18@UpdateHori:
  00060	cc		 int	 3
?UpdateHorizontalLine@CSubGraphDataBase@@QAEXJPBDKFN@Z ENDP ; CSubGraphDataBase::UpdateHorizontalLine
_TEXT	ENDS
; Function compile flags: /Ogtp
; File D:\git\src\IBK\IBK_DRFN\ProjSrc\SrcChartEx\ChartOCX\IndicatorCondition\GraphData.cpp
; File C:\Program Files (x86)\Microsoft Visual Studio\2019\Community\VC\Tools\MSVC\14.29.30133\atlmfc\include\afxtempl.h
; File D:\git\src\IBK\IBK_DRFN\ProjSrc\SrcChartEx\ChartOCX\IndicatorCondition\GraphData.cpp
; File C:\Program Files (x86)\Microsoft Visual Studio\2019\Community\VC\Tools\MSVC\14.29.30133\atlmfc\include\afxtempl.h
; File D:\git\src\IBK\IBK_DRFN\ProjSrc\SrcChartEx\ChartOCX\IndicatorCondition\GraphData.cpp
; File C:\Program Files (x86)\Microsoft Visual Studio\2019\Community\VC\Tools\MSVC\14.29.30133\atlmfc\include\afxtempl.h
; File D:\git\src\IBK\IBK_DRFN\ProjSrc\SrcChartEx\ChartOCX\IndicatorCondition\GraphData.cpp
; File C:\Program Files (x86)\Microsoft Visual Studio\2019\Community\VC\Tools\MSVC\14.29.30133\atlmfc\include\afxtempl.h
; File D:\git\src\IBK\IBK_DRFN\ProjSrc\SrcChartEx\ChartOCX\IndicatorCondition\GraphData.cpp
;	COMDAT ?AddHorizontalLine@CSubGraphDataBase@@QAEJPBDKFN@Z
_TEXT	SEGMENT
_lpszTitle$ = 8						; size = 4
_clrLine$ = 12						; size = 4
_nLine$ = 16						; size = 2
_dPrice$ = 20						; size = 8
?AddHorizontalLine@CSubGraphDataBase@@QAEJPBDKFN@Z PROC	; CSubGraphDataBase::AddHorizontalLine, COMDAT
; _this$ = ecx

; 1376 : {

  00000	55		 push	 ebp
  00001	8b ec		 mov	 ebp, esp
  00003	53		 push	 ebx
  00004	56		 push	 esi
  00005	57		 push	 edi

; 1377 : 	ST_HORZLINE* pInfo = new ST_HORZLINE;

  00006	6a 18		 push	 24			; 00000018H
  00008	8b f9		 mov	 edi, ecx
  0000a	e8 00 00 00 00	 call	 ??2@YAPAXI@Z		; operator new
  0000f	8b f0		 mov	 esi, eax
  00011	83 c4 04	 add	 esp, 4
  00014	85 f6		 test	 esi, esi
  00016	74 0b		 je	 SHORT $LN5@AddHorizon
  00018	8d 4e 04	 lea	 ecx, DWORD PTR [esi+4]
  0001b	ff 15 00 00 00
	00		 call	 DWORD PTR __imp_??0?$CStringT@DV?$StrTraitMFC_DLL@DV?$ChTraitsCRT@D@ATL@@@@@ATL@@QAE@XZ
  00021	eb 02		 jmp	 SHORT $LN6@AddHorizon
$LN5@AddHorizon:
  00023	33 f6		 xor	 esi, esi
$LN6@AddHorizon:

; 1378 : 	pInfo->m_strTitle = lpszTitle;

  00025	ff 75 08	 push	 DWORD PTR _lpszTitle$[ebp]
  00028	8d 4e 04	 lea	 ecx, DWORD PTR [esi+4]
  0002b	ff 15 00 00 00
	00		 call	 DWORD PTR __imp_??4?$CStringT@DV?$StrTraitMFC_DLL@DV?$ChTraitsCRT@D@ATL@@@@@ATL@@QAEAAV01@PBD@Z

; 1379 : 	pInfo->m_clrLine = clrLine;

  00031	8b 45 0c	 mov	 eax, DWORD PTR _clrLine$[ebp]

; 1380 : 	pInfo->m_nLine = nLine;
; 1381 : 	pInfo->m_dPrice = dPrice;

  00034	f2 0f 10 45 14	 movsd	 xmm0, QWORD PTR _dPrice$[ebp]
  00039	89 46 08	 mov	 DWORD PTR [esi+8], eax
  0003c	66 8b 45 10	 mov	 ax, WORD PTR _nLine$[ebp]
  00040	66 89 46 0c	 mov	 WORD PTR [esi+12], ax
  00044	f2 0f 11 46 10	 movsd	 QWORD PTR [esi+16], xmm0

; 1382 : 
; 1383 : 	int nSize = m_arrHorzLine.GetSize();

  00049	8b 47 78	 mov	 eax, DWORD PTR [edi+120]

; 1384 : 	if(nSize > 0)

  0004c	85 c0		 test	 eax, eax
  0004e	7e 16		 jle	 SHORT $LN2@AddHorizon

; 1385 : 		pInfo->m_nIndex = m_arrHorzLine.GetAt(nSize - 1)->m_nIndex + 1;

  00050	8d 48 ff	 lea	 ecx, DWORD PTR [eax-1]
; File C:\Program Files (x86)\Microsoft Visual Studio\2019\Community\VC\Tools\MSVC\14.29.30133\atlmfc\include\afxtempl.h

; 288  : 	if(nIndex >= 0 && nIndex < m_nSize)

  00053	85 c9		 test	 ecx, ecx
  00055	78 3a		 js	 SHORT $LN21@AddHorizon
  00057	3b c8		 cmp	 ecx, eax
  00059	7d 36		 jge	 SHORT $LN21@AddHorizon
; File D:\git\src\IBK\IBK_DRFN\ProjSrc\SrcChartEx\ChartOCX\IndicatorCondition\GraphData.cpp

; 1385 : 		pInfo->m_nIndex = m_arrHorzLine.GetAt(nSize - 1)->m_nIndex + 1;

  0005b	8b 47 74	 mov	 eax, DWORD PTR [edi+116]
  0005e	8b 04 88	 mov	 eax, DWORD PTR [eax+ecx*4]
  00061	8b 00		 mov	 eax, DWORD PTR [eax]
  00063	40		 inc	 eax
  00064	eb 05		 jmp	 SHORT $LN3@AddHorizon
$LN2@AddHorizon:

; 1386 : 	else
; 1387 : 		pInfo->m_nIndex = 1;

  00066	b8 01 00 00 00	 mov	 eax, 1
$LN3@AddHorizon:

; 1388 : 
; 1389 : 	m_arrHorzLine.Add(pInfo);

  0006b	89 06		 mov	 DWORD PTR [esi], eax
; File C:\Program Files (x86)\Microsoft Visual Studio\2019\Community\VC\Tools\MSVC\14.29.30133\atlmfc\include\afxtempl.h

; 333  : 	{ INT_PTR nIndex = m_nSize;

  0006d	8b 5f 78	 mov	 ebx, DWORD PTR [edi+120]

; 538  : 	if(nIndex < 0)

  00070	85 db		 test	 ebx, ebx
  00072	78 1d		 js	 SHORT $LN21@AddHorizon

; 540  : 
; 541  : 	if (nIndex >= m_nSize)
; 542  : 		SetSize(nIndex+1, -1);

  00074	6a ff		 push	 -1
  00076	8d 4b 01	 lea	 ecx, DWORD PTR [ebx+1]
  00079	51		 push	 ecx
  0007a	8d 4f 70	 lea	 ecx, DWORD PTR [edi+112]
  0007d	e8 00 00 00 00	 call	 ?SetSize@?$CArray@PAU_ST_HORZLINE@@PAU1@@@QAEXHH@Z ; CArray<_ST_HORZLINE *,_ST_HORZLINE *>::SetSize

; 543  : 	m_pData[nIndex] = newElement;

  00082	8b 4f 74	 mov	 ecx, DWORD PTR [edi+116]
; File D:\git\src\IBK\IBK_DRFN\ProjSrc\SrcChartEx\ChartOCX\IndicatorCondition\GraphData.cpp

; 1391 : 	return pInfo->m_nIndex;

  00085	5f		 pop	 edi
; File C:\Program Files (x86)\Microsoft Visual Studio\2019\Community\VC\Tools\MSVC\14.29.30133\atlmfc\include\afxtempl.h

; 543  : 	m_pData[nIndex] = newElement;

  00086	89 34 99	 mov	 DWORD PTR [ecx+ebx*4], esi
; File D:\git\src\IBK\IBK_DRFN\ProjSrc\SrcChartEx\ChartOCX\IndicatorCondition\GraphData.cpp

; 1391 : 	return pInfo->m_nIndex;

  00089	8b 06		 mov	 eax, DWORD PTR [esi]
  0008b	5e		 pop	 esi
  0008c	5b		 pop	 ebx

; 1392 : }

  0008d	5d		 pop	 ebp
  0008e	c2 14 00	 ret	 20			; 00000014H
$LN21@AddHorizon:
; File C:\Program Files (x86)\Microsoft Visual Studio\2019\Community\VC\Tools\MSVC\14.29.30133\atlmfc\include\afxtempl.h

; 539  : 		AfxThrowInvalidArgException();

  00091	e8 00 00 00 00	 call	 ?AfxThrowInvalidArgException@@YGXXZ ; AfxThrowInvalidArgException
$LN22@AddHorizon:
  00096	cc		 int	 3
?AddHorizontalLine@CSubGraphDataBase@@QAEJPBDKFN@Z ENDP	; CSubGraphDataBase::AddHorizontalLine
_TEXT	ENDS
; Function compile flags: /Ogtp
; File D:\git\src\IBK\IBK_DRFN\ProjSrc\SrcChartEx\ChartOCX\IndicatorCondition\GraphData.cpp
;	COMDAT ?GetSubGraphIndex@CSubGraphDataBase@@QBEHXZ
_TEXT	SEGMENT
?GetSubGraphIndex@CSubGraphDataBase@@QBEHXZ PROC	; CSubGraphDataBase::GetSubGraphIndex, COMDAT
; _this$ = ecx

; 1250 : 	return m_nSubGraphIndex;

  00000	8b 41 6c	 mov	 eax, DWORD PTR [ecx+108]

; 1251 : }

  00003	c3		 ret	 0
?GetSubGraphIndex@CSubGraphDataBase@@QBEHXZ ENDP	; CSubGraphDataBase::GetSubGraphIndex
_TEXT	ENDS
; Function compile flags: /Ogtp
; File D:\git\src\IBK\IBK_DRFN\ProjSrc\SrcChartEx\ChartOCX\IndicatorCondition\GraphData.cpp
;	COMDAT ?GetItemName@CSubGraphDataBase@@QBE?AV?$CStringT@DV?$StrTraitMFC_DLL@DV?$ChTraitsCRT@D@ATL@@@@@ATL@@XZ
_TEXT	SEGMENT
___$ReturnUdt$ = 8					; size = 4
?GetItemName@CSubGraphDataBase@@QBE?AV?$CStringT@DV?$StrTraitMFC_DLL@DV?$ChTraitsCRT@D@ATL@@@@@ATL@@XZ PROC ; CSubGraphDataBase::GetItemName, COMDAT
; _this$ = ecx

; 1243 : {

  00000	55		 push	 ebp
  00001	8b ec		 mov	 ebp, esp

; 1244 : 	return m_strItemName;

  00003	8d 41 68	 lea	 eax, DWORD PTR [ecx+104]
  00006	8b 4d 08	 mov	 ecx, DWORD PTR ___$ReturnUdt$[ebp]
  00009	50		 push	 eax
  0000a	ff 15 00 00 00
	00		 call	 DWORD PTR __imp_??0?$CStringT@DV?$StrTraitMFC_DLL@DV?$ChTraitsCRT@D@ATL@@@@@ATL@@QAE@ABV01@@Z
  00010	8b 45 08	 mov	 eax, DWORD PTR ___$ReturnUdt$[ebp]

; 1245 : }

  00013	5d		 pop	 ebp
  00014	c2 04 00	 ret	 4
?GetItemName@CSubGraphDataBase@@QBE?AV?$CStringT@DV?$StrTraitMFC_DLL@DV?$ChTraitsCRT@D@ATL@@@@@ATL@@XZ ENDP ; CSubGraphDataBase::GetItemName
_TEXT	ENDS
; Function compile flags: /Ogtp
; File D:\git\src\IBK\IBK_DRFN\ProjSrc\SrcChartEx\ChartOCX\IndicatorCondition\GraphData.cpp
; File C:\Program Files (x86)\Microsoft Visual Studio\2019\Community\VC\Tools\MSVC\14.29.30133\atlmfc\include\atlsimpstr.h
; File D:\git\src\IBK\IBK_DRFN\ProjSrc\SrcChartEx\ChartOCX\IndicatorCondition\GraphData.cpp
; File C:\Program Files (x86)\Microsoft Visual Studio\2019\Community\VC\Tools\MSVC\14.29.30133\atlmfc\include\atlsimpstr.h
; File D:\git\src\IBK\IBK_DRFN\ProjSrc\SrcChartEx\ChartOCX\IndicatorCondition\GraphData.cpp
; File C:\Program Files (x86)\Microsoft Visual Studio\2019\Community\VC\Tools\MSVC\14.29.30133\atlmfc\include\atlsimpstr.h
; File D:\git\src\IBK\IBK_DRFN\ProjSrc\SrcChartEx\ChartOCX\IndicatorCondition\GraphData.cpp
; File C:\Program Files (x86)\Microsoft Visual Studio\2019\Community\VC\Tools\MSVC\14.29.30133\atlmfc\include\atlsimpstr.h
; File D:\git\src\IBK\IBK_DRFN\ProjSrc\SrcChartEx\ChartOCX\IndicatorCondition\GraphData.cpp
; File C:\Program Files (x86)\Microsoft Visual Studio\2019\Community\VC\Tools\MSVC\14.29.30133\atlmfc\include\atlsimpstr.h
; File D:\git\src\IBK\IBK_DRFN\ProjSrc\SrcChartEx\ChartOCX\IndicatorCondition\GraphData.cpp
; File C:\Program Files (x86)\Microsoft Visual Studio\2019\Community\VC\Tools\MSVC\14.29.30133\atlmfc\include\atlsimpstr.h
; File D:\git\src\IBK\IBK_DRFN\ProjSrc\SrcChartEx\ChartOCX\IndicatorCondition\GraphData.cpp
; File C:\Program Files (x86)\Microsoft Visual Studio\2019\Community\VC\Tools\MSVC\14.29.30133\atlmfc\include\atlsimpstr.h
; File D:\git\src\IBK\IBK_DRFN\ProjSrc\SrcChartEx\ChartOCX\IndicatorCondition\GraphData.cpp
;	COMDAT ?GetStringData@CSubGraphDataBase@@QBEXAAV?$CStringT@DV?$StrTraitMFC_DLL@DV?$ChTraitsCRT@D@ATL@@@@@ATL@@@Z
_TEXT	SEGMENT
_nTypeLen$1$ = -148					; size = 4
_nBaseLineStyleLen$1$ = -144				; size = 4
_nPaintStyleLen$1$ = -140				; size = 4
_this$GSCopy$1$ = -136					; size = 4
_nDrawStyleLen$1$ = -132				; size = 4
tv612 = -128						; size = 4
_p_strSubGraphData$GSCopy$1$ = -128			; size = 4
_strGraphColor$ = -124					; size = 4
_strPenThickness$ = -120				; size = 4
_szBaseLineStyle$ = -116				; size = 20
_szPaintStyle$ = -96					; size = 20
_szDrawStyle$ = -76					; size = 20
_szGraphStyle$ = -56					; size = 20
_szType$ = -36						; size = 20
__$ArrayPad$ = -16					; size = 4
__$EHRec$ = -12						; size = 12
_p_strSubGraphData$ = 8					; size = 4
?GetStringData@CSubGraphDataBase@@QBEXAAV?$CStringT@DV?$StrTraitMFC_DLL@DV?$ChTraitsCRT@D@ATL@@@@@ATL@@@Z PROC ; CSubGraphDataBase::GetStringData, COMDAT
; _this$ = ecx

; 1279 : {

  00000	55		 push	 ebp
  00001	8b ec		 mov	 ebp, esp
  00003	6a ff		 push	 -1
  00005	68 00 00 00 00	 push	 __ehhandler$?GetStringData@CSubGraphDataBase@@QBEXAAV?$CStringT@DV?$StrTraitMFC_DLL@DV?$ChTraitsCRT@D@ATL@@@@@ATL@@@Z
  0000a	64 a1 00 00 00
	00		 mov	 eax, DWORD PTR fs:0
  00010	50		 push	 eax
  00011	81 ec 88 00 00
	00		 sub	 esp, 136		; 00000088H
  00017	a1 00 00 00 00	 mov	 eax, DWORD PTR ___security_cookie
  0001c	33 c5		 xor	 eax, ebp
  0001e	89 45 f0	 mov	 DWORD PTR __$ArrayPad$[ebp], eax
  00021	53		 push	 ebx
  00022	56		 push	 esi
  00023	57		 push	 edi
  00024	50		 push	 eax
  00025	8d 45 f4	 lea	 eax, DWORD PTR __$EHRec$[ebp]
  00028	64 a3 00 00 00
	00		 mov	 DWORD PTR fs:0, eax
  0002e	8b f9		 mov	 edi, ecx
  00030	89 bd 78 ff ff
	ff		 mov	 DWORD PTR _this$GSCopy$1$[ebp], edi
  00036	8b 45 08	 mov	 eax, DWORD PTR _p_strSubGraphData$[ebp]

; 1280 : 	// Singbar Graph    - ojtaso (20071121)
; 1281 : 	//  ,   - ojtaso (20071213)
; 1282 : 	char szType[ 20], szGraphStyle[ 20], szDrawStyle[ 20], szPaintStyle[20], szBaseLineStyle[20];
; 1283 : 
; 1284 : 	itoa( m_TYPEType,					szType,			10);

  00039	8b 35 00 00 00
	00		 mov	 esi, DWORD PTR __imp__itoa
  0003f	89 45 80	 mov	 DWORD PTR _p_strSubGraphData$GSCopy$1$[ebp], eax
  00042	8d 45 dc	 lea	 eax, DWORD PTR _szType$[ebp]
  00045	6a 0a		 push	 10			; 0000000aH
  00047	50		 push	 eax
  00048	ff 77 08	 push	 DWORD PTR [edi+8]
  0004b	ff d6		 call	 esi

; 1285 : 	itoa( m_nStyle.GetGraphStyle(),		szGraphStyle,	10);

  0004d	6a 0a		 push	 10			; 0000000aH
  0004f	8d 45 c8	 lea	 eax, DWORD PTR _szGraphStyle$[ebp]
  00052	50		 push	 eax
  00053	ff 77 0c	 push	 DWORD PTR [edi+12]
  00056	ff d6		 call	 esi

; 1286 : 	itoa( m_nDrawStyle.GetDrawStyle(),	szDrawStyle,	10);

  00058	6a 0a		 push	 10			; 0000000aH
  0005a	8d 45 b4	 lea	 eax, DWORD PTR _szDrawStyle$[ebp]
  0005d	50		 push	 eax
  0005e	ff 77 10	 push	 DWORD PTR [edi+16]
  00061	ff d6		 call	 esi

; 1287 : 	// Singbar Graph    - ojtaso (20071121)
; 1288 : 	itoa( m_nPaintStyle.GetPaintStyle(),	szPaintStyle,	10);

  00063	6a 0a		 push	 10			; 0000000aH
  00065	8d 45 a0	 lea	 eax, DWORD PTR _szPaintStyle$[ebp]
  00068	50		 push	 eax
  00069	ff 77 14	 push	 DWORD PTR [edi+20]
  0006c	ff d6		 call	 esi

; 1289 : 	//  ,   - ojtaso (20071213)
; 1290 : 	itoa( m_nBaseLineStyle.GetBaseLineStyle(),	szBaseLineStyle,	10);

  0006e	6a 0a		 push	 10			; 0000000aH
  00070	8d 45 8c	 lea	 eax, DWORD PTR _szBaseLineStyle$[ebp]
  00073	50		 push	 eax
  00074	ff 77 18	 push	 DWORD PTR [edi+24]
  00077	ff d6		 call	 esi

; 1291 : 
; 1292 : 	int nTypeLen		= strlen( szType);

  00079	8d 4d dc	 lea	 ecx, DWORD PTR _szType$[ebp]
  0007c	83 c4 3c	 add	 esp, 60			; 0000003cH
  0007f	8d 51 01	 lea	 edx, DWORD PTR [ecx+1]
$LL81@GetStringD:
  00082	8a 01		 mov	 al, BYTE PTR [ecx]
  00084	41		 inc	 ecx
  00085	84 c0		 test	 al, al
  00087	75 f9		 jne	 SHORT $LL81@GetStringD
  00089	2b ca		 sub	 ecx, edx

; 1293 : 	int nGraphStyleLen	= strlen( szGraphStyle);

  0008b	8d 5d c8	 lea	 ebx, DWORD PTR _szGraphStyle$[ebp]
  0008e	89 8d 6c ff ff
	ff		 mov	 DWORD PTR _nTypeLen$1$[ebp], ecx
  00094	8d 4b 01	 lea	 ecx, DWORD PTR [ebx+1]
$LL82@GetStringD:
  00097	8a 03		 mov	 al, BYTE PTR [ebx]
  00099	43		 inc	 ebx
  0009a	84 c0		 test	 al, al
  0009c	75 f9		 jne	 SHORT $LL82@GetStringD
  0009e	2b d9		 sub	 ebx, ecx

; 1294 : 	int nDrawStyleLen	= strlen( szDrawStyle);

  000a0	8d 4d b4	 lea	 ecx, DWORD PTR _szDrawStyle$[ebp]
  000a3	8d 51 01	 lea	 edx, DWORD PTR [ecx+1]
$LL83@GetStringD:
  000a6	8a 01		 mov	 al, BYTE PTR [ecx]
  000a8	41		 inc	 ecx
  000a9	84 c0		 test	 al, al
  000ab	75 f9		 jne	 SHORT $LL83@GetStringD
  000ad	2b ca		 sub	 ecx, edx
  000af	89 8d 7c ff ff
	ff		 mov	 DWORD PTR _nDrawStyleLen$1$[ebp], ecx

; 1295 : 	// Singbar Graph    - ojtaso (20071121)
; 1296 : 	int nPaintStyleLen	= strlen( szPaintStyle);

  000b5	8d 4d a0	 lea	 ecx, DWORD PTR _szPaintStyle$[ebp]
  000b8	8d 51 01	 lea	 edx, DWORD PTR [ecx+1]
  000bb	0f 1f 44 00 00	 npad	 5
$LL84@GetStringD:
  000c0	8a 01		 mov	 al, BYTE PTR [ecx]
  000c2	41		 inc	 ecx
  000c3	84 c0		 test	 al, al
  000c5	75 f9		 jne	 SHORT $LL84@GetStringD
  000c7	2b ca		 sub	 ecx, edx
  000c9	89 8d 74 ff ff
	ff		 mov	 DWORD PTR _nPaintStyleLen$1$[ebp], ecx

; 1297 : 	//  ,   - ojtaso (20071213)
; 1298 : 	int nBaseLineStyleLen	= strlen( szBaseLineStyle);

  000cf	8d 4d 8c	 lea	 ecx, DWORD PTR _szBaseLineStyle$[ebp]
  000d2	8d 51 01	 lea	 edx, DWORD PTR [ecx+1]
$LL85@GetStringD:
  000d5	8a 01		 mov	 al, BYTE PTR [ecx]
  000d7	41		 inc	 ecx
  000d8	84 c0		 test	 al, al
  000da	75 f9		 jne	 SHORT $LL85@GetStringD
  000dc	2b ca		 sub	 ecx, edx
  000de	89 8d 70 ff ff
	ff		 mov	 DWORD PTR _nBaseLineStyleLen$1$[ebp], ecx

; 1299 : 
; 1300 : 	CString strGraphColor;

  000e4	8d 4d 84	 lea	 ecx, DWORD PTR _strGraphColor$[ebp]
  000e7	ff 15 00 00 00
	00		 call	 DWORD PTR __imp_??0?$CStringT@DV?$StrTraitMFC_DLL@DV?$ChTraitsCRT@D@ATL@@@@@ATL@@QAE@XZ

; 1301 : 	m_clrColor.GetStringData( strGraphColor);

  000ed	8d 45 84	 lea	 eax, DWORD PTR _strGraphColor$[ebp]
  000f0	c7 45 fc 00 00
	00 00		 mov	 DWORD PTR __$EHRec$[ebp+8], 0
  000f7	50		 push	 eax
  000f8	8d 4f 28	 lea	 ecx, DWORD PTR [edi+40]
  000fb	e8 00 00 00 00	 call	 ?GetStringData@CGraphColor@@QBEXAAV?$CStringT@DV?$StrTraitMFC_DLL@DV?$ChTraitsCRT@D@ATL@@@@@ATL@@@Z ; CGraphColor::GetStringData

; 1302 : 
; 1303 : 	CString strPenThickness;

  00100	8d 4d 88	 lea	 ecx, DWORD PTR _strPenThickness$[ebp]
  00103	ff 15 00 00 00
	00		 call	 DWORD PTR __imp_??0?$CStringT@DV?$StrTraitMFC_DLL@DV?$ChTraitsCRT@D@ATL@@@@@ATL@@QAE@XZ

; 1304 : 	m_penThickness.GetStringData( strPenThickness);

  00109	8d 45 88	 lea	 eax, DWORD PTR _strPenThickness$[ebp]
  0010c	c6 45 fc 01	 mov	 BYTE PTR __$EHRec$[ebp+8], 1
  00110	50		 push	 eax
  00111	8d 4f 54	 lea	 ecx, DWORD PTR [edi+84]
  00114	e8 00 00 00 00	 call	 ?GetStringData@CPenThickness@@QBEXAAV?$CStringT@DV?$StrTraitMFC_DLL@DV?$ChTraitsCRT@D@ATL@@@@@ATL@@@Z ; CPenThickness::GetStringData
; File C:\Program Files (x86)\Microsoft Visual Studio\2019\Community\VC\Tools\MSVC\14.29.30133\atlmfc\include\atlsimpstr.h

; 519  : 		return( GetData()->nDataLength );

  00119	8b 47 1c	 mov	 eax, DWORD PTR [edi+28]
; File D:\git\src\IBK\IBK_DRFN\ProjSrc\SrcChartEx\ChartOCX\IndicatorCondition\GraphData.cpp

; 1328 : 	char *szSubGraphData = p_strSubGraphData.GetBufferSetLength( nSubGraphDataLen);

  0011c	8b 4d 80	 mov	 ecx, DWORD PTR _p_strSubGraphData$GSCopy$1$[ebp]
; File C:\Program Files (x86)\Microsoft Visual Studio\2019\Community\VC\Tools\MSVC\14.29.30133\atlmfc\include\atlsimpstr.h

; 519  : 		return( GetData()->nDataLength );

  0011f	8b 78 f4	 mov	 edi, DWORD PTR [eax-12]
  00122	8b 85 78 ff ff
	ff		 mov	 eax, DWORD PTR _this$GSCopy$1$[ebp]
  00128	8b 40 20	 mov	 eax, DWORD PTR [eax+32]
  0012b	8b 70 f4	 mov	 esi, DWORD PTR [eax-12]
  0012e	8b 45 84	 mov	 eax, DWORD PTR _strGraphColor$[ebp]
  00131	8b 50 f4	 mov	 edx, DWORD PTR [eax-12]
  00134	8b 45 88	 mov	 eax, DWORD PTR _strPenThickness$[ebp]
  00137	8b 40 f4	 mov	 eax, DWORD PTR [eax-12]
; File D:\git\src\IBK\IBK_DRFN\ProjSrc\SrcChartEx\ChartOCX\IndicatorCondition\GraphData.cpp

; 1326 : 	nSubGraphDataLen += 2;	// \r\n

  0013a	03 c2		 add	 eax, edx
  0013c	03 c6		 add	 eax, esi
  0013e	8b b5 6c ff ff
	ff		 mov	 esi, DWORD PTR _nTypeLen$1$[ebp]
  00144	03 c7		 add	 eax, edi
  00146	8b bd 7c ff ff
	ff		 mov	 edi, DWORD PTR _nDrawStyleLen$1$[ebp]
  0014c	03 85 70 ff ff
	ff		 add	 eax, DWORD PTR _nBaseLineStyleLen$1$[ebp]
  00152	83 c7 0b	 add	 edi, 11			; 0000000bH
  00155	03 85 74 ff ff
	ff		 add	 eax, DWORD PTR _nPaintStyleLen$1$[ebp]
  0015b	03 c7		 add	 eax, edi
  0015d	03 c3		 add	 eax, ebx
  0015f	03 c6		 add	 eax, esi

; 1328 : 	char *szSubGraphData = p_strSubGraphData.GetBufferSetLength( nSubGraphDataLen);

  00161	50		 push	 eax
  00162	ff 15 00 00 00
	00		 call	 DWORD PTR __imp_?GetBufferSetLength@?$CSimpleStringT@D$00@ATL@@QAEPADH@Z

; 1329 : 
; 1330 : 	strcpy( szSubGraphData, szType);

  00168	8d 55 dc	 lea	 edx, DWORD PTR _szType$[ebp]
  0016b	8b c8		 mov	 ecx, eax
  0016d	8b fa		 mov	 edi, edx
  0016f	2b cf		 sub	 ecx, edi
  00171	89 4d 80	 mov	 DWORD PTR tv612[ebp], ecx
  00174	8b f9		 mov	 edi, ecx
$LL3@GetStringD:
  00176	8a 0a		 mov	 cl, BYTE PTR [edx]
  00178	8d 52 01	 lea	 edx, DWORD PTR [edx+1]
  0017b	88 4c 17 ff	 mov	 BYTE PTR [edi+edx-1], cl
  0017f	84 c9		 test	 cl, cl
  00181	75 f3		 jne	 SHORT $LL3@GetStringD

; 1331 : 	szSubGraphData += nTypeLen;
; 1332 : 	*szSubGraphData++ = ';';
; 1333 : 
; 1334 : 	strcpy( szSubGraphData, szGraphStyle);

  00183	8b bd 7c ff ff
	ff		 mov	 edi, DWORD PTR _nDrawStyleLen$1$[ebp]
  00189	8d 55 c8	 lea	 edx, DWORD PTR _szGraphStyle$[ebp]
  0018c	03 c6		 add	 eax, esi
  0018e	8b ca		 mov	 ecx, edx
  00190	c6 00 3b	 mov	 BYTE PTR [eax], 59	; 0000003bH
  00193	40		 inc	 eax
  00194	8b f0		 mov	 esi, eax
  00196	2b f1		 sub	 esi, ecx
  00198	0f 1f 84 00 00
	00 00 00	 npad	 8
$LL4@GetStringD:
  001a0	8a 0a		 mov	 cl, BYTE PTR [edx]
  001a2	8d 52 01	 lea	 edx, DWORD PTR [edx+1]
  001a5	88 4c 16 ff	 mov	 BYTE PTR [esi+edx-1], cl
  001a9	84 c9		 test	 cl, cl
  001ab	75 f3		 jne	 SHORT $LL4@GetStringD

; 1335 : 	szSubGraphData += nGraphStyleLen;

  001ad	03 c3		 add	 eax, ebx

; 1336 : 	*szSubGraphData++ = ';';
; 1337 : 
; 1338 : 	strcpy( szSubGraphData, szDrawStyle);

  001af	8d 55 b4	 lea	 edx, DWORD PTR _szDrawStyle$[ebp]
  001b2	8b ca		 mov	 ecx, edx
  001b4	c6 00 3b	 mov	 BYTE PTR [eax], 59	; 0000003bH
  001b7	40		 inc	 eax
  001b8	8b f0		 mov	 esi, eax
  001ba	2b f1		 sub	 esi, ecx
  001bc	0f 1f 40 00	 npad	 4
$LL5@GetStringD:
  001c0	8a 0a		 mov	 cl, BYTE PTR [edx]
  001c2	8d 52 01	 lea	 edx, DWORD PTR [edx+1]
  001c5	88 4c 16 ff	 mov	 BYTE PTR [esi+edx-1], cl
  001c9	84 c9		 test	 cl, cl
  001cb	75 f3		 jne	 SHORT $LL5@GetStringD
; File C:\Program Files (x86)\Microsoft Visual Studio\2019\Community\VC\Tools\MSVC\14.29.30133\atlmfc\include\atlsimpstr.h

; 377  : 		return( m_pszData );

  001cd	8b 9d 78 ff ff
	ff		 mov	 ebx, DWORD PTR _this$GSCopy$1$[ebp]
; File D:\git\src\IBK\IBK_DRFN\ProjSrc\SrcChartEx\ChartOCX\IndicatorCondition\GraphData.cpp

; 1339 : 	szSubGraphData += nDrawStyleLen;

  001d3	03 c7		 add	 eax, edi

; 1340 : 	*szSubGraphData++ = ';';

  001d5	c6 00 3b	 mov	 BYTE PTR [eax], 59	; 0000003bH
  001d8	40		 inc	 eax
; File C:\Program Files (x86)\Microsoft Visual Studio\2019\Community\VC\Tools\MSVC\14.29.30133\atlmfc\include\atlsimpstr.h

; 377  : 		return( m_pszData );

  001d9	8b 53 1c	 mov	 edx, DWORD PTR [ebx+28]
; File D:\git\src\IBK\IBK_DRFN\ProjSrc\SrcChartEx\ChartOCX\IndicatorCondition\GraphData.cpp

; 1342 : 	strcpy( szSubGraphData, m_strName);

  001dc	8b f0		 mov	 esi, eax
  001de	66 90		 npad	 2
$LL6@GetStringD:
  001e0	8a 0a		 mov	 cl, BYTE PTR [edx]
  001e2	8d 52 01	 lea	 edx, DWORD PTR [edx+1]
  001e5	88 0e		 mov	 BYTE PTR [esi], cl
  001e7	8d 76 01	 lea	 esi, DWORD PTR [esi+1]
  001ea	84 c9		 test	 cl, cl
  001ec	75 f2		 jne	 SHORT $LL6@GetStringD

; 1343 : 	szSubGraphData += m_strName.GetLength();

  001ee	8b 4b 1c	 mov	 ecx, DWORD PTR [ebx+28]
  001f1	03 41 f4	 add	 eax, DWORD PTR [ecx-12]

; 1344 : 	*szSubGraphData++ = ';';

  001f4	c6 00 3b	 mov	 BYTE PTR [eax], 59	; 0000003bH
  001f7	40		 inc	 eax
; File C:\Program Files (x86)\Microsoft Visual Studio\2019\Community\VC\Tools\MSVC\14.29.30133\atlmfc\include\atlsimpstr.h

; 377  : 		return( m_pszData );

  001f8	8b 53 20	 mov	 edx, DWORD PTR [ebx+32]
; File D:\git\src\IBK\IBK_DRFN\ProjSrc\SrcChartEx\ChartOCX\IndicatorCondition\GraphData.cpp

; 1346 : 	strcpy( szSubGraphData, m_strTitle);

  001fb	8b f0		 mov	 esi, eax
  001fd	0f 1f 00	 npad	 3
$LL7@GetStringD:
  00200	8a 0a		 mov	 cl, BYTE PTR [edx]
  00202	8d 52 01	 lea	 edx, DWORD PTR [edx+1]
  00205	88 0e		 mov	 BYTE PTR [esi], cl
  00207	8d 76 01	 lea	 esi, DWORD PTR [esi+1]
  0020a	84 c9		 test	 cl, cl
  0020c	75 f2		 jne	 SHORT $LL7@GetStringD

; 1347 : 	szSubGraphData += m_strTitle.GetLength();

  0020e	8b 4b 20	 mov	 ecx, DWORD PTR [ebx+32]
  00211	03 41 f4	 add	 eax, DWORD PTR [ecx-12]

; 1348 : 	*szSubGraphData++ = ';';

  00214	c6 00 3b	 mov	 BYTE PTR [eax], 59	; 0000003bH

; 1349 : 
; 1350 : 	*szSubGraphData++ = ( m_bHiding ? '1' : '0');

  00217	80 7b 24 00	 cmp	 BYTE PTR [ebx+36], 0
  0021b	0f 95 c1	 setne	 cl
  0021e	80 c1 30	 add	 cl, 48			; 00000030H
  00221	88 48 01	 mov	 BYTE PTR [eax+1], cl

; 1351 : 	*szSubGraphData++ = ';';

  00224	c6 40 02 3b	 mov	 BYTE PTR [eax+2], 59	; 0000003bH
  00228	83 c0 03	 add	 eax, 3
; File C:\Program Files (x86)\Microsoft Visual Studio\2019\Community\VC\Tools\MSVC\14.29.30133\atlmfc\include\atlsimpstr.h

; 377  : 		return( m_pszData );

  0022b	8b 55 84	 mov	 edx, DWORD PTR _strGraphColor$[ebp]
; File D:\git\src\IBK\IBK_DRFN\ProjSrc\SrcChartEx\ChartOCX\IndicatorCondition\GraphData.cpp

; 1353 : 	strcpy( szSubGraphData, strGraphColor);

  0022e	8b f0		 mov	 esi, eax
$LL8@GetStringD:
  00230	8a 0a		 mov	 cl, BYTE PTR [edx]
  00232	8d 52 01	 lea	 edx, DWORD PTR [edx+1]
  00235	88 0e		 mov	 BYTE PTR [esi], cl
  00237	8d 76 01	 lea	 esi, DWORD PTR [esi+1]
  0023a	84 c9		 test	 cl, cl
  0023c	75 f2		 jne	 SHORT $LL8@GetStringD

; 1354 : 	szSubGraphData += strGraphColor.GetLength();

  0023e	8b 4d 84	 mov	 ecx, DWORD PTR _strGraphColor$[ebp]
; File C:\Program Files (x86)\Microsoft Visual Studio\2019\Community\VC\Tools\MSVC\14.29.30133\atlmfc\include\atlsimpstr.h

; 377  : 		return( m_pszData );

  00241	8b 55 88	 mov	 edx, DWORD PTR _strPenThickness$[ebp]
; File D:\git\src\IBK\IBK_DRFN\ProjSrc\SrcChartEx\ChartOCX\IndicatorCondition\GraphData.cpp

; 1354 : 	szSubGraphData += strGraphColor.GetLength();

  00244	03 41 f4	 add	 eax, DWORD PTR [ecx-12]

; 1355 : 
; 1356 : 	strcpy( szSubGraphData, strPenThickness);

  00247	8b f0		 mov	 esi, eax
  00249	0f 1f 80 00 00
	00 00		 npad	 7
$LL9@GetStringD:
  00250	8a 0a		 mov	 cl, BYTE PTR [edx]
  00252	8d 52 01	 lea	 edx, DWORD PTR [edx+1]
  00255	88 0e		 mov	 BYTE PTR [esi], cl
  00257	8d 76 01	 lea	 esi, DWORD PTR [esi+1]
  0025a	84 c9		 test	 cl, cl
  0025c	75 f2		 jne	 SHORT $LL9@GetStringD

; 1357 : 	szSubGraphData += strPenThickness.GetLength();

  0025e	8b 4d 88	 mov	 ecx, DWORD PTR _strPenThickness$[ebp]

; 1358 : 
; 1359 : 	// Singbar Graph    - ojtaso (20071121)
; 1360 : 	strcpy( szSubGraphData, szPaintStyle);

  00261	8d 55 a0	 lea	 edx, DWORD PTR _szPaintStyle$[ebp]
  00264	03 41 f4	 add	 eax, DWORD PTR [ecx-12]
  00267	8b ca		 mov	 ecx, edx
  00269	8b f0		 mov	 esi, eax
  0026b	2b f1		 sub	 esi, ecx
  0026d	0f 1f 00	 npad	 3
$LL10@GetStringD:
  00270	8a 0a		 mov	 cl, BYTE PTR [edx]
  00272	8d 52 01	 lea	 edx, DWORD PTR [edx+1]
  00275	88 4c 16 ff	 mov	 BYTE PTR [esi+edx-1], cl
  00279	84 c9		 test	 cl, cl
  0027b	75 f3		 jne	 SHORT $LL10@GetStringD

; 1361 : 	szSubGraphData += nPaintStyleLen;

  0027d	03 85 74 ff ff
	ff		 add	 eax, DWORD PTR _nPaintStyleLen$1$[ebp]

; 1362 : 	*szSubGraphData++ = ';';
; 1363 : 
; 1364 : 	//  ,   - ojtaso (20071213)
; 1365 : 	strcpy( szSubGraphData, szBaseLineStyle);

  00283	8d 55 8c	 lea	 edx, DWORD PTR _szBaseLineStyle$[ebp]
  00286	8b ca		 mov	 ecx, edx
  00288	c6 00 3b	 mov	 BYTE PTR [eax], 59	; 0000003bH
  0028b	40		 inc	 eax
  0028c	8b f0		 mov	 esi, eax
  0028e	2b f1		 sub	 esi, ecx
$LL11@GetStringD:
  00290	8a 0a		 mov	 cl, BYTE PTR [edx]
  00292	8d 52 01	 lea	 edx, DWORD PTR [edx+1]
  00295	88 4c 16 ff	 mov	 BYTE PTR [esi+edx-1], cl
  00299	84 c9		 test	 cl, cl
  0029b	75 f3		 jne	 SHORT $LL11@GetStringD

; 1366 : 	szSubGraphData += nBaseLineStyleLen;

  0029d	03 85 70 ff ff
	ff		 add	 eax, DWORD PTR _nBaseLineStyleLen$1$[ebp]

; 1367 : 	*szSubGraphData++ = ';';
; 1368 : 
; 1369 : 	*szSubGraphData++ = '\r';
; 1370 : 	*szSubGraphData++ = '\n';
; 1371 : 	*szSubGraphData++ = '\0';
; 1372 : }

  002a3	8d 4d 88	 lea	 ecx, DWORD PTR _strPenThickness$[ebp]
  002a6	c7 00 3b 0d 0a
	00		 mov	 DWORD PTR [eax], 658747	; 000a0d3bH
  002ac	ff 15 00 00 00
	00		 call	 DWORD PTR __imp_??1?$CStringT@DV?$StrTraitMFC_DLL@DV?$ChTraitsCRT@D@ATL@@@@@ATL@@QAE@XZ
  002b2	8d 4d 84	 lea	 ecx, DWORD PTR _strGraphColor$[ebp]
  002b5	ff 15 00 00 00
	00		 call	 DWORD PTR __imp_??1?$CStringT@DV?$StrTraitMFC_DLL@DV?$ChTraitsCRT@D@ATL@@@@@ATL@@QAE@XZ
  002bb	8b 4d f4	 mov	 ecx, DWORD PTR __$EHRec$[ebp]
  002be	64 89 0d 00 00
	00 00		 mov	 DWORD PTR fs:0, ecx
  002c5	59		 pop	 ecx
  002c6	5f		 pop	 edi
  002c7	5e		 pop	 esi
  002c8	5b		 pop	 ebx
  002c9	8b 4d f0	 mov	 ecx, DWORD PTR __$ArrayPad$[ebp]
  002cc	33 cd		 xor	 ecx, ebp
  002ce	e8 00 00 00 00	 call	 @__security_check_cookie@4
  002d3	8b e5		 mov	 esp, ebp
  002d5	5d		 pop	 ebp
  002d6	c2 04 00	 ret	 4
_TEXT	ENDS
;	COMDAT text$x
text$x	SEGMENT
__unwindfunclet$?GetStringData@CSubGraphDataBase@@QBEXAAV?$CStringT@DV?$StrTraitMFC_DLL@DV?$ChTraitsCRT@D@ATL@@@@@ATL@@@Z$0:
  00000	8d 4d 84	 lea	 ecx, DWORD PTR _strGraphColor$[ebp]
  00003	ff 25 00 00 00
	00		 jmp	 DWORD PTR __imp_??1?$CStringT@DV?$StrTraitMFC_DLL@DV?$ChTraitsCRT@D@ATL@@@@@ATL@@QAE@XZ
__unwindfunclet$?GetStringData@CSubGraphDataBase@@QBEXAAV?$CStringT@DV?$StrTraitMFC_DLL@DV?$ChTraitsCRT@D@ATL@@@@@ATL@@@Z$1:
  00009	8d 4d 88	 lea	 ecx, DWORD PTR _strPenThickness$[ebp]
  0000c	ff 25 00 00 00
	00		 jmp	 DWORD PTR __imp_??1?$CStringT@DV?$StrTraitMFC_DLL@DV?$ChTraitsCRT@D@ATL@@@@@ATL@@QAE@XZ
  00012	cc		 int	 3
  00013	cc		 int	 3
  00014	cc		 int	 3
  00015	cc		 int	 3
  00016	cc		 int	 3
__ehhandler$?GetStringData@CSubGraphDataBase@@QBEXAAV?$CStringT@DV?$StrTraitMFC_DLL@DV?$ChTraitsCRT@D@ATL@@@@@ATL@@@Z:
  00017	90		 npad	 1
  00018	90		 npad	 1
  00019	8b 54 24 08	 mov	 edx, DWORD PTR [esp+8]
  0001d	8d 42 0c	 lea	 eax, DWORD PTR [edx+12]
  00020	8b 8a 68 ff ff
	ff		 mov	 ecx, DWORD PTR [edx-152]
  00026	33 c8		 xor	 ecx, eax
  00028	e8 00 00 00 00	 call	 @__security_check_cookie@4
  0002d	8b 4a fc	 mov	 ecx, DWORD PTR [edx-4]
  00030	33 c8		 xor	 ecx, eax
  00032	e8 00 00 00 00	 call	 @__security_check_cookie@4
  00037	b8 00 00 00 00	 mov	 eax, OFFSET __ehfuncinfo$?GetStringData@CSubGraphDataBase@@QBEXAAV?$CStringT@DV?$StrTraitMFC_DLL@DV?$ChTraitsCRT@D@ATL@@@@@ATL@@@Z
  0003c	e9 00 00 00 00	 jmp	 ___CxxFrameHandler3
text$x	ENDS
?GetStringData@CSubGraphDataBase@@QBEXAAV?$CStringT@DV?$StrTraitMFC_DLL@DV?$ChTraitsCRT@D@ATL@@@@@ATL@@@Z ENDP ; CSubGraphDataBase::GetStringData
; Function compile flags: /Ogtp
; File D:\git\src\IBK\IBK_DRFN\ProjSrc\SrcChartEx\ChartOCX\IndicatorCondition\GraphData.cpp
;	COMDAT ?GetPenThickness@CSubGraphDataBase@@QAEAAVCPenThickness@@XZ
_TEXT	SEGMENT
?GetPenThickness@CSubGraphDataBase@@QAEAAVCPenThickness@@XZ PROC ; CSubGraphDataBase::GetPenThickness, COMDAT
; _this$ = ecx

; 1275 : 	return m_penThickness;

  00000	8d 41 54	 lea	 eax, DWORD PTR [ecx+84]

; 1276 : }

  00003	c3		 ret	 0
?GetPenThickness@CSubGraphDataBase@@QAEAAVCPenThickness@@XZ ENDP ; CSubGraphDataBase::GetPenThickness
_TEXT	ENDS
; Function compile flags: /Ogtp
; File D:\git\src\IBK\IBK_DRFN\ProjSrc\SrcChartEx\ChartOCX\IndicatorCondition\GraphData.cpp
;	COMDAT ?GetPenThickness@CSubGraphDataBase@@QBE?AVCPenThickness@@XZ
_TEXT	SEGMENT
___$ReturnUdt$ = 8					; size = 4
?GetPenThickness@CSubGraphDataBase@@QBE?AVCPenThickness@@XZ PROC ; CSubGraphDataBase::GetPenThickness, COMDAT
; _this$ = ecx

; 1269 : {

  00000	55		 push	 ebp
  00001	8b ec		 mov	 ebp, esp

; 78   : 	m_bIsHightlight(data.IsHightlight()),

  00003	8b 45 08	 mov	 eax, DWORD PTR ___$ReturnUdt$[ebp]

; 1269 : {

  00006	56		 push	 esi
  00007	8b f1		 mov	 esi, ecx

; 78   : 	m_bIsHightlight(data.IsHightlight()),

  00009	8a 56 54	 mov	 dl, BYTE PTR [esi+84]

; 77   : 	m_nThickness3(data.GetThickness3()),

  0000c	8b 4e 60	 mov	 ecx, DWORD PTR [esi+96]
  0000f	88 10		 mov	 BYTE PTR [eax], dl
  00011	8b 56 58	 mov	 edx, DWORD PTR [esi+88]
  00014	89 50 04	 mov	 DWORD PTR [eax+4], edx
  00017	8b 56 5c	 mov	 edx, DWORD PTR [esi+92]
  0001a	89 48 0c	 mov	 DWORD PTR [eax+12], ecx

; 79   : 	//  ,   - ojtaso (20071213)
; 80   : 	m_nBaseLineThickness(data.GetBaseLineThickness())

  0001d	8b 4e 64	 mov	 ecx, DWORD PTR [esi+100]
  00020	89 50 08	 mov	 DWORD PTR [eax+8], edx
  00023	89 48 10	 mov	 DWORD PTR [eax+16], ecx

; 1270 : 	return m_penThickness;

  00026	5e		 pop	 esi

; 1271 : }

  00027	5d		 pop	 ebp
  00028	c2 04 00	 ret	 4
?GetPenThickness@CSubGraphDataBase@@QBE?AVCPenThickness@@XZ ENDP ; CSubGraphDataBase::GetPenThickness
_TEXT	ENDS
; Function compile flags: /Ogtp
; File D:\git\src\IBK\IBK_DRFN\ProjSrc\SrcChartEx\ChartOCX\IndicatorCondition\GraphData.cpp
;	COMDAT ?GetColor@CSubGraphDataBase@@QAEAAVCGraphColor@@XZ
_TEXT	SEGMENT
?GetColor@CSubGraphDataBase@@QAEAAVCGraphColor@@XZ PROC	; CSubGraphDataBase::GetColor, COMDAT
; _this$ = ecx

; 1265 : 	return m_clrColor;

  00000	8d 41 28	 lea	 eax, DWORD PTR [ecx+40]

; 1266 : }

  00003	c3		 ret	 0
?GetColor@CSubGraphDataBase@@QAEAAVCGraphColor@@XZ ENDP	; CSubGraphDataBase::GetColor
_TEXT	ENDS
; Function compile flags: /Ogtp
; File D:\git\src\IBK\IBK_DRFN\ProjSrc\SrcChartEx\ChartOCX\IndicatorCondition\GraphData.cpp
;	COMDAT ?GetColor_PointerType@CSubGraphDataBase@@QAEPAVCGraphColor@@XZ
_TEXT	SEGMENT
?GetColor_PointerType@CSubGraphDataBase@@QAEPAVCGraphColor@@XZ PROC ; CSubGraphDataBase::GetColor_PointerType, COMDAT
; _this$ = ecx

; 1260 : 	return &m_clrColor;

  00000	8d 41 28	 lea	 eax, DWORD PTR [ecx+40]

; 1261 : }

  00003	c3		 ret	 0
?GetColor_PointerType@CSubGraphDataBase@@QAEPAVCGraphColor@@XZ ENDP ; CSubGraphDataBase::GetColor_PointerType
_TEXT	ENDS
; Function compile flags: /Ogtp
; File D:\git\src\IBK\IBK_DRFN\ProjSrc\SrcChartEx\ChartOCX\IndicatorCondition\GraphData.cpp
;	COMDAT ?GetColor@CSubGraphDataBase@@QBE?AVCGraphColor@@XZ
_TEXT	SEGMENT
___$ReturnUdt$ = 8					; size = 4
?GetColor@CSubGraphDataBase@@QBE?AVCGraphColor@@XZ PROC	; CSubGraphDataBase::GetColor, COMDAT
; _this$ = ecx

; 1254 : {

  00000	55		 push	 ebp
  00001	8b ec		 mov	 ebp, esp

; 1255 : 	return m_clrColor;

  00003	8d 41 28	 lea	 eax, DWORD PTR [ecx+40]
  00006	8b 4d 08	 mov	 ecx, DWORD PTR ___$ReturnUdt$[ebp]
  00009	50		 push	 eax
  0000a	e8 00 00 00 00	 call	 ??0CGraphColor@@QAE@ABV0@@Z ; CGraphColor::CGraphColor
  0000f	8b 45 08	 mov	 eax, DWORD PTR ___$ReturnUdt$[ebp]

; 1256 : }

  00012	5d		 pop	 ebp
  00013	c2 04 00	 ret	 4
?GetColor@CSubGraphDataBase@@QBE?AVCGraphColor@@XZ ENDP	; CSubGraphDataBase::GetColor
_TEXT	ENDS
; Function compile flags: /Ogtp
; File D:\git\src\IBK\IBK_DRFN\ProjSrc\SrcChartEx\ChartOCX\IndicatorCondition\GraphData.cpp
;	COMDAT ?GetTitle@CSubGraphDataBase@@QBE?AV?$CStringT@DV?$StrTraitMFC_DLL@DV?$ChTraitsCRT@D@ATL@@@@@ATL@@XZ
_TEXT	SEGMENT
___$ReturnUdt$ = 8					; size = 4
?GetTitle@CSubGraphDataBase@@QBE?AV?$CStringT@DV?$StrTraitMFC_DLL@DV?$ChTraitsCRT@D@ATL@@@@@ATL@@XZ PROC ; CSubGraphDataBase::GetTitle, COMDAT
; _this$ = ecx

; 1237 : {

  00000	55		 push	 ebp
  00001	8b ec		 mov	 ebp, esp

; 1238 : 	return m_strTitle;

  00003	8d 41 20	 lea	 eax, DWORD PTR [ecx+32]
  00006	8b 4d 08	 mov	 ecx, DWORD PTR ___$ReturnUdt$[ebp]
  00009	50		 push	 eax
  0000a	ff 15 00 00 00
	00		 call	 DWORD PTR __imp_??0?$CStringT@DV?$StrTraitMFC_DLL@DV?$ChTraitsCRT@D@ATL@@@@@ATL@@QAE@ABV01@@Z
  00010	8b 45 08	 mov	 eax, DWORD PTR ___$ReturnUdt$[ebp]

; 1239 : }

  00013	5d		 pop	 ebp
  00014	c2 04 00	 ret	 4
?GetTitle@CSubGraphDataBase@@QBE?AV?$CStringT@DV?$StrTraitMFC_DLL@DV?$ChTraitsCRT@D@ATL@@@@@ATL@@XZ ENDP ; CSubGraphDataBase::GetTitle
_TEXT	ENDS
; Function compile flags: /Ogtp
; File D:\git\src\IBK\IBK_DRFN\ProjSrc\SrcChartEx\ChartOCX\IndicatorCondition\GraphData.cpp
;	COMDAT ?GetName@CSubGraphDataBase@@QBE?AV?$CStringT@DV?$StrTraitMFC_DLL@DV?$ChTraitsCRT@D@ATL@@@@@ATL@@XZ
_TEXT	SEGMENT
___$ReturnUdt$ = 8					; size = 4
?GetName@CSubGraphDataBase@@QBE?AV?$CStringT@DV?$StrTraitMFC_DLL@DV?$ChTraitsCRT@D@ATL@@@@@ATL@@XZ PROC ; CSubGraphDataBase::GetName, COMDAT
; _this$ = ecx

; 1232 : {

  00000	55		 push	 ebp
  00001	8b ec		 mov	 ebp, esp

; 1233 : 	return m_strName;

  00003	8d 41 1c	 lea	 eax, DWORD PTR [ecx+28]
  00006	8b 4d 08	 mov	 ecx, DWORD PTR ___$ReturnUdt$[ebp]
  00009	50		 push	 eax
  0000a	ff 15 00 00 00
	00		 call	 DWORD PTR __imp_??0?$CStringT@DV?$StrTraitMFC_DLL@DV?$ChTraitsCRT@D@ATL@@@@@ATL@@QAE@ABV01@@Z
  00010	8b 45 08	 mov	 eax, DWORD PTR ___$ReturnUdt$[ebp]

; 1234 : }

  00013	5d		 pop	 ebp
  00014	c2 04 00	 ret	 4
?GetName@CSubGraphDataBase@@QBE?AV?$CStringT@DV?$StrTraitMFC_DLL@DV?$ChTraitsCRT@D@ATL@@@@@ATL@@XZ ENDP ; CSubGraphDataBase::GetName
_TEXT	ENDS
; Function compile flags: /Ogtp
; File D:\git\src\IBK\IBK_DRFN\ProjSrc\SrcChartEx\ChartOCX\IndicatorCondition\GraphData.cpp
;	COMDAT ?GetBaseLineDrawStyle@CSubGraphDataBase@@QBE?AVCGraphBaseLineStyle@@XZ
_TEXT	SEGMENT
___$ReturnUdt$ = 8					; size = 4
?GetBaseLineDrawStyle@CSubGraphDataBase@@QBE?AVCGraphBaseLineStyle@@XZ PROC ; CSubGraphDataBase::GetBaseLineDrawStyle, COMDAT
; _this$ = ecx

; 1227 : {

  00000	55		 push	 ebp
  00001	8b ec		 mov	 ebp, esp

; 1228 : 	return m_nBaseLineStyle;

  00003	8b 45 08	 mov	 eax, DWORD PTR ___$ReturnUdt$[ebp]
  00006	8b 49 18	 mov	 ecx, DWORD PTR [ecx+24]
  00009	89 08		 mov	 DWORD PTR [eax], ecx

; 1229 : }

  0000b	5d		 pop	 ebp
  0000c	c2 04 00	 ret	 4
?GetBaseLineDrawStyle@CSubGraphDataBase@@QBE?AVCGraphBaseLineStyle@@XZ ENDP ; CSubGraphDataBase::GetBaseLineDrawStyle
_TEXT	ENDS
; Function compile flags: /Ogtp
; File D:\git\src\IBK\IBK_DRFN\ProjSrc\SrcChartEx\ChartOCX\IndicatorCondition\GraphData.cpp
;	COMDAT ?GetPaintStyle@CSubGraphDataBase@@QBE?AVCGraphPaintStyle@@XZ
_TEXT	SEGMENT
___$ReturnUdt$ = 8					; size = 4
?GetPaintStyle@CSubGraphDataBase@@QBE?AVCGraphPaintStyle@@XZ PROC ; CSubGraphDataBase::GetPaintStyle, COMDAT
; _this$ = ecx

; 1221 : {

  00000	55		 push	 ebp
  00001	8b ec		 mov	 ebp, esp

; 1222 : 	return m_nPaintStyle;

  00003	8b 45 08	 mov	 eax, DWORD PTR ___$ReturnUdt$[ebp]
  00006	8b 49 14	 mov	 ecx, DWORD PTR [ecx+20]
  00009	89 08		 mov	 DWORD PTR [eax], ecx

; 1223 : }

  0000b	5d		 pop	 ebp
  0000c	c2 04 00	 ret	 4
?GetPaintStyle@CSubGraphDataBase@@QBE?AVCGraphPaintStyle@@XZ ENDP ; CSubGraphDataBase::GetPaintStyle
_TEXT	ENDS
; Function compile flags: /Ogtp
; File D:\git\src\IBK\IBK_DRFN\ProjSrc\SrcChartEx\ChartOCX\IndicatorCondition\GraphData.cpp
;	COMDAT ?GetDrawStyle@CSubGraphDataBase@@QBE?AVCGraphDrawStyle@@XZ
_TEXT	SEGMENT
___$ReturnUdt$ = 8					; size = 4
?GetDrawStyle@CSubGraphDataBase@@QBE?AVCGraphDrawStyle@@XZ PROC ; CSubGraphDataBase::GetDrawStyle, COMDAT
; _this$ = ecx

; 1215 : {

  00000	55		 push	 ebp
  00001	8b ec		 mov	 ebp, esp

; 1216 : 	return m_nDrawStyle;

  00003	8b 45 08	 mov	 eax, DWORD PTR ___$ReturnUdt$[ebp]
  00006	8b 49 10	 mov	 ecx, DWORD PTR [ecx+16]
  00009	89 08		 mov	 DWORD PTR [eax], ecx

; 1217 : }

  0000b	5d		 pop	 ebp
  0000c	c2 04 00	 ret	 4
?GetDrawStyle@CSubGraphDataBase@@QBE?AVCGraphDrawStyle@@XZ ENDP ; CSubGraphDataBase::GetDrawStyle
_TEXT	ENDS
; Function compile flags: /Ogtp
; File D:\git\src\IBK\IBK_DRFN\ProjSrc\SrcChartEx\ChartOCX\IndicatorCondition\GraphData.cpp
;	COMDAT ?GetStyle@CSubGraphDataBase@@QBE?AVCGraphStyle@@XZ
_TEXT	SEGMENT
___$ReturnUdt$ = 8					; size = 4
?GetStyle@CSubGraphDataBase@@QBE?AVCGraphStyle@@XZ PROC	; CSubGraphDataBase::GetStyle, COMDAT
; _this$ = ecx

; 1210 : {

  00000	55		 push	 ebp
  00001	8b ec		 mov	 ebp, esp

; 1211 : 	return m_nStyle;

  00003	8b 45 08	 mov	 eax, DWORD PTR ___$ReturnUdt$[ebp]
  00006	8b 49 0c	 mov	 ecx, DWORD PTR [ecx+12]
  00009	89 08		 mov	 DWORD PTR [eax], ecx

; 1212 : }

  0000b	5d		 pop	 ebp
  0000c	c2 04 00	 ret	 4
?GetStyle@CSubGraphDataBase@@QBE?AVCGraphStyle@@XZ ENDP	; CSubGraphDataBase::GetStyle
_TEXT	ENDS
; Function compile flags: /Ogtp
; File D:\git\src\IBK\IBK_DRFN\ProjSrc\SrcChartEx\ChartOCX\IndicatorCondition\GraphData.cpp
;	COMDAT ?GetType@CSubGraphDataBase@@QBE?AW4GRAPHTYPE@CGraphBaseData@@XZ
_TEXT	SEGMENT
?GetType@CSubGraphDataBase@@QBE?AW4GRAPHTYPE@CGraphBaseData@@XZ PROC ; CSubGraphDataBase::GetType, COMDAT
; _this$ = ecx

; 1206 : 	return m_TYPEType;

  00000	8b 41 08	 mov	 eax, DWORD PTR [ecx+8]

; 1207 : }

  00003	c3		 ret	 0
?GetType@CSubGraphDataBase@@QBE?AW4GRAPHTYPE@CGraphBaseData@@XZ ENDP ; CSubGraphDataBase::GetType
_TEXT	ENDS
; Function compile flags: /Ogtp
; File D:\git\src\IBK\IBK_DRFN\ProjSrc\SrcChartEx\ChartOCX\IndicatorCondition\GraphData.cpp
;	COMDAT ?GetTitleEndLine@CSubGraphDataBase@@QBEHXZ
_TEXT	SEGMENT
?GetTitleEndLine@CSubGraphDataBase@@QBEHXZ PROC		; CSubGraphDataBase::GetTitleEndLine, COMDAT
; _this$ = ecx

; 1201 : 	return m_nTitleEndLine;

  00000	8b 41 04	 mov	 eax, DWORD PTR [ecx+4]

; 1202 : }

  00003	c3		 ret	 0
?GetTitleEndLine@CSubGraphDataBase@@QBEHXZ ENDP		; CSubGraphDataBase::GetTitleEndLine
_TEXT	ENDS
; Function compile flags: /Ogtp
; File D:\git\src\IBK\IBK_DRFN\ProjSrc\SrcChartEx\ChartOCX\IndicatorCondition\GraphData.cpp
;	COMDAT ?GetTitleEndPosition@CSubGraphDataBase@@QBEHXZ
_TEXT	SEGMENT
?GetTitleEndPosition@CSubGraphDataBase@@QBEHXZ PROC	; CSubGraphDataBase::GetTitleEndPosition, COMDAT
; _this$ = ecx

; 1195 : 	return m_nTitleEndPosition;

  00000	8b 01		 mov	 eax, DWORD PTR [ecx]

; 1196 : }

  00002	c3		 ret	 0
?GetTitleEndPosition@CSubGraphDataBase@@QBEHXZ ENDP	; CSubGraphDataBase::GetTitleEndPosition
_TEXT	ENDS
; Function compile flags: /Ogtp
; File D:\git\src\IBK\IBK_DRFN\ProjSrc\SrcChartEx\ChartOCX\IndicatorCondition\GraphData.cpp
;	COMDAT ?SetBaseLineStyle@CSubGraphDataBase@@QAEXABVCGraphBaseLineStyle@@@Z
_TEXT	SEGMENT
_nBaseLineStyle$ = 8					; size = 4
?SetBaseLineStyle@CSubGraphDataBase@@QAEXABVCGraphBaseLineStyle@@@Z PROC ; CSubGraphDataBase::SetBaseLineStyle, COMDAT
; _this$ = ecx

; 1164 : {

  00000	55		 push	 ebp
  00001	8b ec		 mov	 ebp, esp

; 1165 : 	m_nBaseLineStyle = nBaseLineStyle;

  00003	8b 45 08	 mov	 eax, DWORD PTR _nBaseLineStyle$[ebp]
  00006	8b 00		 mov	 eax, DWORD PTR [eax]
  00008	89 41 18	 mov	 DWORD PTR [ecx+24], eax

; 1166 : }

  0000b	5d		 pop	 ebp
  0000c	c2 04 00	 ret	 4
?SetBaseLineStyle@CSubGraphDataBase@@QAEXABVCGraphBaseLineStyle@@@Z ENDP ; CSubGraphDataBase::SetBaseLineStyle
_TEXT	ENDS
; Function compile flags: /Ogtp
; File D:\git\src\IBK\IBK_DRFN\ProjSrc\SrcChartEx\ChartOCX\IndicatorCondition\GraphData.cpp
;	COMDAT ?SetPaintStyle@CSubGraphDataBase@@QAEXABVCGraphPaintStyle@@@Z
_TEXT	SEGMENT
_nPaintStyle$ = 8					; size = 4
?SetPaintStyle@CSubGraphDataBase@@QAEXABVCGraphPaintStyle@@@Z PROC ; CSubGraphDataBase::SetPaintStyle, COMDAT
; _this$ = ecx

; 1158 : {

  00000	55		 push	 ebp
  00001	8b ec		 mov	 ebp, esp

; 1159 : 	m_nPaintStyle = nPaintStyle;

  00003	8b 45 08	 mov	 eax, DWORD PTR _nPaintStyle$[ebp]
  00006	8b 00		 mov	 eax, DWORD PTR [eax]
  00008	89 41 14	 mov	 DWORD PTR [ecx+20], eax

; 1160 : }

  0000b	5d		 pop	 ebp
  0000c	c2 04 00	 ret	 4
?SetPaintStyle@CSubGraphDataBase@@QAEXABVCGraphPaintStyle@@@Z ENDP ; CSubGraphDataBase::SetPaintStyle
_TEXT	ENDS
; Function compile flags: /Ogtp
; File D:\git\src\IBK\IBK_DRFN\ProjSrc\SrcChartEx\ChartOCX\IndicatorCondition\GraphData.cpp
;	COMDAT ?SetSubGraphIndex@CSubGraphDataBase@@QAEXH@Z
_TEXT	SEGMENT
_nSubGraphIndex$ = 8					; size = 4
?SetSubGraphIndex@CSubGraphDataBase@@QAEXH@Z PROC	; CSubGraphDataBase::SetSubGraphIndex, COMDAT
; _this$ = ecx

; 1152 : {

  00000	55		 push	 ebp
  00001	8b ec		 mov	 ebp, esp

; 1153 : 	m_nSubGraphIndex = nSubGraphIndex;

  00003	8b 45 08	 mov	 eax, DWORD PTR _nSubGraphIndex$[ebp]
  00006	89 41 6c	 mov	 DWORD PTR [ecx+108], eax

; 1154 : }

  00009	5d		 pop	 ebp
  0000a	c2 04 00	 ret	 4
?SetSubGraphIndex@CSubGraphDataBase@@QAEXH@Z ENDP	; CSubGraphDataBase::SetSubGraphIndex
_TEXT	ENDS
; Function compile flags: /Ogtp
; File D:\git\src\IBK\IBK_DRFN\ProjSrc\SrcChartEx\ChartOCX\IndicatorCondition\GraphData.cpp
;	COMDAT ?SetItemName@CSubGraphDataBase@@QAEXABV?$CStringT@DV?$StrTraitMFC_DLL@DV?$ChTraitsCRT@D@ATL@@@@@ATL@@@Z
_TEXT	SEGMENT
_strItemName$ = 8					; size = 4
?SetItemName@CSubGraphDataBase@@QAEXABV?$CStringT@DV?$StrTraitMFC_DLL@DV?$ChTraitsCRT@D@ATL@@@@@ATL@@@Z PROC ; CSubGraphDataBase::SetItemName, COMDAT
; _this$ = ecx

; 1146 : {

  00000	55		 push	 ebp
  00001	8b ec		 mov	 ebp, esp

; 1147 : 	m_strItemName = strItemName;

  00003	83 c1 68	 add	 ecx, 104		; 00000068H

; 1148 : }

  00006	5d		 pop	 ebp

; 1147 : 	m_strItemName = strItemName;

  00007	ff 25 00 00 00
	00		 jmp	 DWORD PTR __imp_??4?$CStringT@DV?$StrTraitMFC_DLL@DV?$ChTraitsCRT@D@ATL@@@@@ATL@@QAEAAV01@ABV01@@Z
?SetItemName@CSubGraphDataBase@@QAEXABV?$CStringT@DV?$StrTraitMFC_DLL@DV?$ChTraitsCRT@D@ATL@@@@@ATL@@@Z ENDP ; CSubGraphDataBase::SetItemName
_TEXT	ENDS
; Function compile flags: /Ogtp
; File D:\git\src\IBK\IBK_DRFN\ProjSrc\SrcChartEx\ChartOCX\IndicatorCondition\GraphData.cpp
;	COMDAT ?ChangeKeyPart@CSubGraphDataBase@@QAEXABV1@@Z
_TEXT	SEGMENT
__$EHRec$ = -12						; size = 12
$T2 = 8							; size = 4
_data$ = 8						; size = 4
?ChangeKeyPart@CSubGraphDataBase@@QAEXABV1@@Z PROC	; CSubGraphDataBase::ChangeKeyPart, COMDAT
; _this$ = ecx

; 1185 : {

  00000	55		 push	 ebp
  00001	8b ec		 mov	 ebp, esp
  00003	6a ff		 push	 -1
  00005	68 00 00 00 00	 push	 __ehhandler$?ChangeKeyPart@CSubGraphDataBase@@QAEXABV1@@Z
  0000a	64 a1 00 00 00
	00		 mov	 eax, DWORD PTR fs:0
  00010	50		 push	 eax
  00011	56		 push	 esi
  00012	a1 00 00 00 00	 mov	 eax, DWORD PTR ___security_cookie
  00017	33 c5		 xor	 eax, ebp
  00019	50		 push	 eax
  0001a	8d 45 f4	 lea	 eax, DWORD PTR __$EHRec$[ebp]
  0001d	64 a3 00 00 00
	00		 mov	 DWORD PTR fs:0, eax
  00023	8b f1		 mov	 esi, ecx

; 1186 : 	m_TYPEType = data.GetType();		// graph type

  00025	8b 55 08	 mov	 edx, DWORD PTR _data$[ebp]

; 1233 : 	return m_strName;

  00028	8d 4d 08	 lea	 ecx, DWORD PTR $T2[ebp]

; 1186 : 	m_TYPEType = data.GetType();		// graph type

  0002b	8b 42 08	 mov	 eax, DWORD PTR [edx+8]
  0002e	89 46 08	 mov	 DWORD PTR [esi+8], eax

; 1211 : 	return m_nStyle;

  00031	8b 42 0c	 mov	 eax, DWORD PTR [edx+12]

; 1187 : 	m_nStyle = data.GetStyle();			// graph style

  00034	89 46 0c	 mov	 DWORD PTR [esi+12], eax

; 1216 : 	return m_nDrawStyle;

  00037	8b 42 10	 mov	 eax, DWORD PTR [edx+16]

; 1188 : 	m_nDrawStyle = data.GetDrawStyle();	// graph draw style

  0003a	89 46 10	 mov	 DWORD PTR [esi+16], eax

; 1233 : 	return m_strName;

  0003d	8d 42 1c	 lea	 eax, DWORD PTR [edx+28]
  00040	50		 push	 eax
  00041	ff 15 00 00 00
	00		 call	 DWORD PTR __imp_??0?$CStringT@DV?$StrTraitMFC_DLL@DV?$ChTraitsCRT@D@ATL@@@@@ATL@@QAE@ABV01@@Z

; 1189 : 	m_strName = data.GetName();			// graph name

  00047	8d 45 08	 lea	 eax, DWORD PTR $T2[ebp]
  0004a	c7 45 fc 00 00
	00 00		 mov	 DWORD PTR __$EHRec$[ebp+8], 0
  00051	50		 push	 eax
  00052	8d 4e 1c	 lea	 ecx, DWORD PTR [esi+28]
  00055	ff 15 00 00 00
	00		 call	 DWORD PTR __imp_??4?$CStringT@DV?$StrTraitMFC_DLL@DV?$ChTraitsCRT@D@ATL@@@@@ATL@@QAEAAV01@ABV01@@Z
  0005b	8d 4d 08	 lea	 ecx, DWORD PTR $T2[ebp]
  0005e	ff 15 00 00 00
	00		 call	 DWORD PTR __imp_??1?$CStringT@DV?$StrTraitMFC_DLL@DV?$ChTraitsCRT@D@ATL@@@@@ATL@@QAE@XZ

; 1190 : }

  00064	8b 4d f4	 mov	 ecx, DWORD PTR __$EHRec$[ebp]
  00067	64 89 0d 00 00
	00 00		 mov	 DWORD PTR fs:0, ecx
  0006e	59		 pop	 ecx
  0006f	5e		 pop	 esi
  00070	8b e5		 mov	 esp, ebp
  00072	5d		 pop	 ebp
  00073	c2 04 00	 ret	 4
_TEXT	ENDS
;	COMDAT text$x
text$x	SEGMENT
__unwindfunclet$?ChangeKeyPart@CSubGraphDataBase@@QAEXABV1@@Z$0:
  00000	8d 4d 08	 lea	 ecx, DWORD PTR $T2[ebp]
  00003	ff 25 00 00 00
	00		 jmp	 DWORD PTR __imp_??1?$CStringT@DV?$StrTraitMFC_DLL@DV?$ChTraitsCRT@D@ATL@@@@@ATL@@QAE@XZ
  00009	cc		 int	 3
  0000a	cc		 int	 3
  0000b	cc		 int	 3
  0000c	cc		 int	 3
  0000d	cc		 int	 3
__ehhandler$?ChangeKeyPart@CSubGraphDataBase@@QAEXABV1@@Z:
  0000e	90		 npad	 1
  0000f	90		 npad	 1
  00010	8b 54 24 08	 mov	 edx, DWORD PTR [esp+8]
  00014	8d 42 0c	 lea	 eax, DWORD PTR [edx+12]
  00017	8b 4a f8	 mov	 ecx, DWORD PTR [edx-8]
  0001a	33 c8		 xor	 ecx, eax
  0001c	e8 00 00 00 00	 call	 @__security_check_cookie@4
  00021	b8 00 00 00 00	 mov	 eax, OFFSET __ehfuncinfo$?ChangeKeyPart@CSubGraphDataBase@@QAEXABV1@@Z
  00026	e9 00 00 00 00	 jmp	 ___CxxFrameHandler3
text$x	ENDS
?ChangeKeyPart@CSubGraphDataBase@@QAEXABV1@@Z ENDP	; CSubGraphDataBase::ChangeKeyPart
; Function compile flags: /Ogtp
; File D:\git\src\IBK\IBK_DRFN\ProjSrc\SrcChartEx\ChartOCX\IndicatorCondition\GraphData.cpp
;	COMDAT ?SetPenThickness@CSubGraphDataBase@@QAEXABVCPenThickness@@@Z
_TEXT	SEGMENT
_penThickness$ = 8					; size = 4
?SetPenThickness@CSubGraphDataBase@@QAEXABVCPenThickness@@@Z PROC ; CSubGraphDataBase::SetPenThickness, COMDAT
; _this$ = ecx

; 1179 : {

  00000	55		 push	 ebp
  00001	8b ec		 mov	 ebp, esp

; 24   : 	if(this == &data)

  00003	8b 55 08	 mov	 edx, DWORD PTR _penThickness$[ebp]

; 1180 : 	m_penThickness = penThickness;

  00006	83 c1 54	 add	 ecx, 84			; 00000054H

; 24   : 	if(this == &data)

  00009	3b ca		 cmp	 ecx, edx
  0000b	74 1c		 je	 SHORT $LN3@SetPenThic

; 25   : 		return *this;
; 26   : 
; 27   : 	m_nThickness1 = data.GetThickness1();

  0000d	8b 42 04	 mov	 eax, DWORD PTR [edx+4]
  00010	89 41 04	 mov	 DWORD PTR [ecx+4], eax

; 28   : 	m_nThickness2 = data.GetThickness2();

  00013	8b 42 08	 mov	 eax, DWORD PTR [edx+8]
  00016	89 41 08	 mov	 DWORD PTR [ecx+8], eax

; 29   : 	m_nThickness3 = data.GetThickness3();

  00019	8b 42 0c	 mov	 eax, DWORD PTR [edx+12]
  0001c	89 41 0c	 mov	 DWORD PTR [ecx+12], eax

; 30   : 	m_bIsHightlight = data.IsHightlight();

  0001f	8a 02		 mov	 al, BYTE PTR [edx]
  00021	88 01		 mov	 BYTE PTR [ecx], al

; 31   : 
; 32   : 	//  ,   - ojtaso (20071213)
; 33   : 	m_nBaseLineThickness = data.GetBaseLineThickness();

  00023	8b 42 10	 mov	 eax, DWORD PTR [edx+16]
  00026	89 41 10	 mov	 DWORD PTR [ecx+16], eax
$LN3@SetPenThic:

; 1181 : }

  00029	5d		 pop	 ebp
  0002a	c2 04 00	 ret	 4
?SetPenThickness@CSubGraphDataBase@@QAEXABVCPenThickness@@@Z ENDP ; CSubGraphDataBase::SetPenThickness
_TEXT	ENDS
; Function compile flags: /Ogtp
; File D:\git\src\IBK\IBK_DRFN\ProjSrc\SrcChartEx\ChartOCX\IndicatorCondition\GraphData.cpp
;	COMDAT ?SetColor@CSubGraphDataBase@@QAEXABVCGraphColor@@@Z
_TEXT	SEGMENT
_color$ = 8						; size = 4
?SetColor@CSubGraphDataBase@@QAEXABVCGraphColor@@@Z PROC ; CSubGraphDataBase::SetColor, COMDAT
; _this$ = ecx

; 1174 : {

  00000	55		 push	 ebp
  00001	8b ec		 mov	 ebp, esp

; 1175 : 	m_clrColor = color;

  00003	83 c1 28	 add	 ecx, 40			; 00000028H

; 1176 : }

  00006	5d		 pop	 ebp

; 1175 : 	m_clrColor = color;

  00007	e9 00 00 00 00	 jmp	 ??4CGraphColor@@QAEAAV0@ABV0@@Z ; CGraphColor::operator=
?SetColor@CSubGraphDataBase@@QAEXABVCGraphColor@@@Z ENDP ; CSubGraphDataBase::SetColor
_TEXT	ENDS
; Function compile flags: /Ogtp
; File D:\git\src\IBK\IBK_DRFN\ProjSrc\SrcChartEx\ChartOCX\IndicatorCondition\GraphData.cpp
;	COMDAT ?SetHiding@CSubGraphDataBase@@QAEX_N@Z
_TEXT	SEGMENT
_hiding$ = 8						; size = 1
?SetHiding@CSubGraphDataBase@@QAEX_N@Z PROC		; CSubGraphDataBase::SetHiding, COMDAT
; _this$ = ecx

; 1169 : {

  00000	55		 push	 ebp
  00001	8b ec		 mov	 ebp, esp

; 1170 : 	m_bHiding = hiding;

  00003	8a 45 08	 mov	 al, BYTE PTR _hiding$[ebp]
  00006	88 41 24	 mov	 BYTE PTR [ecx+36], al

; 1171 : }

  00009	5d		 pop	 ebp
  0000a	c2 04 00	 ret	 4
?SetHiding@CSubGraphDataBase@@QAEX_N@Z ENDP		; CSubGraphDataBase::SetHiding
_TEXT	ENDS
; Function compile flags: /Ogtp
; File D:\git\src\IBK\IBK_DRFN\ProjSrc\SrcChartEx\ChartOCX\IndicatorCondition\GraphData.cpp
;	COMDAT ?SetTitle@CSubGraphDataBase@@QAEXABV?$CStringT@DV?$StrTraitMFC_DLL@DV?$ChTraitsCRT@D@ATL@@@@@ATL@@@Z
_TEXT	SEGMENT
_title$ = 8						; size = 4
?SetTitle@CSubGraphDataBase@@QAEXABV?$CStringT@DV?$StrTraitMFC_DLL@DV?$ChTraitsCRT@D@ATL@@@@@ATL@@@Z PROC ; CSubGraphDataBase::SetTitle, COMDAT
; _this$ = ecx

; 1140 : {

  00000	55		 push	 ebp
  00001	8b ec		 mov	 ebp, esp

; 1141 : 	m_strTitle = title;

  00003	83 c1 20	 add	 ecx, 32			; 00000020H

; 1142 : }

  00006	5d		 pop	 ebp

; 1141 : 	m_strTitle = title;

  00007	ff 25 00 00 00
	00		 jmp	 DWORD PTR __imp_??4?$CStringT@DV?$StrTraitMFC_DLL@DV?$ChTraitsCRT@D@ATL@@@@@ATL@@QAEAAV01@ABV01@@Z
?SetTitle@CSubGraphDataBase@@QAEXABV?$CStringT@DV?$StrTraitMFC_DLL@DV?$ChTraitsCRT@D@ATL@@@@@ATL@@@Z ENDP ; CSubGraphDataBase::SetTitle
_TEXT	ENDS
; Function compile flags: /Ogtp
; File D:\git\src\IBK\IBK_DRFN\ProjSrc\SrcChartEx\ChartOCX\IndicatorCondition\GraphData.cpp
;	COMDAT ?SetName@CSubGraphDataBase@@QAEXABV?$CStringT@DV?$StrTraitMFC_DLL@DV?$ChTraitsCRT@D@ATL@@@@@ATL@@@Z
_TEXT	SEGMENT
_name$ = 8						; size = 4
?SetName@CSubGraphDataBase@@QAEXABV?$CStringT@DV?$StrTraitMFC_DLL@DV?$ChTraitsCRT@D@ATL@@@@@ATL@@@Z PROC ; CSubGraphDataBase::SetName, COMDAT
; _this$ = ecx

; 1135 : {

  00000	55		 push	 ebp
  00001	8b ec		 mov	 ebp, esp

; 1136 : 	m_strName = name;

  00003	83 c1 1c	 add	 ecx, 28			; 0000001cH

; 1137 : }

  00006	5d		 pop	 ebp

; 1136 : 	m_strName = name;

  00007	ff 25 00 00 00
	00		 jmp	 DWORD PTR __imp_??4?$CStringT@DV?$StrTraitMFC_DLL@DV?$ChTraitsCRT@D@ATL@@@@@ATL@@QAEAAV01@ABV01@@Z
?SetName@CSubGraphDataBase@@QAEXABV?$CStringT@DV?$StrTraitMFC_DLL@DV?$ChTraitsCRT@D@ATL@@@@@ATL@@@Z ENDP ; CSubGraphDataBase::SetName
_TEXT	ENDS
; Function compile flags: /Ogtp
; File D:\git\src\IBK\IBK_DRFN\ProjSrc\SrcChartEx\ChartOCX\IndicatorCondition\GraphData.cpp
;	COMDAT ?SetDrawStyle@CSubGraphDataBase@@QAEXABVCGraphDrawStyle@@@Z
_TEXT	SEGMENT
_drawStyle$ = 8						; size = 4
?SetDrawStyle@CSubGraphDataBase@@QAEXABVCGraphDrawStyle@@@Z PROC ; CSubGraphDataBase::SetDrawStyle, COMDAT
; _this$ = ecx

; 1130 : {

  00000	55		 push	 ebp
  00001	8b ec		 mov	 ebp, esp

; 1131 : 	m_nDrawStyle = drawStyle;

  00003	8b 45 08	 mov	 eax, DWORD PTR _drawStyle$[ebp]
  00006	8b 00		 mov	 eax, DWORD PTR [eax]
  00008	89 41 10	 mov	 DWORD PTR [ecx+16], eax

; 1132 : }

  0000b	5d		 pop	 ebp
  0000c	c2 04 00	 ret	 4
?SetDrawStyle@CSubGraphDataBase@@QAEXABVCGraphDrawStyle@@@Z ENDP ; CSubGraphDataBase::SetDrawStyle
_TEXT	ENDS
; Function compile flags: /Ogtp
; File D:\git\src\IBK\IBK_DRFN\ProjSrc\SrcChartEx\ChartOCX\IndicatorCondition\GraphData.cpp
;	COMDAT ?SetStyle@CSubGraphDataBase@@QAEXABVCGraphStyle@@@Z
_TEXT	SEGMENT
_style$ = 8						; size = 4
?SetStyle@CSubGraphDataBase@@QAEXABVCGraphStyle@@@Z PROC ; CSubGraphDataBase::SetStyle, COMDAT
; _this$ = ecx

; 1125 : {

  00000	55		 push	 ebp
  00001	8b ec		 mov	 ebp, esp

; 1126 : 	m_nStyle = style;

  00003	8b 45 08	 mov	 eax, DWORD PTR _style$[ebp]
  00006	8b 00		 mov	 eax, DWORD PTR [eax]
  00008	89 41 0c	 mov	 DWORD PTR [ecx+12], eax

; 1127 : }

  0000b	5d		 pop	 ebp
  0000c	c2 04 00	 ret	 4
?SetStyle@CSubGraphDataBase@@QAEXABVCGraphStyle@@@Z ENDP ; CSubGraphDataBase::SetStyle
_TEXT	ENDS
; Function compile flags: /Ogtp
; File D:\git\src\IBK\IBK_DRFN\ProjSrc\SrcChartEx\ChartOCX\IndicatorCondition\GraphData.cpp
;	COMDAT ?SetType@CSubGraphDataBase@@QAEXW4GRAPHTYPE@CGraphBaseData@@@Z
_TEXT	SEGMENT
_type$ = 8						; size = 4
?SetType@CSubGraphDataBase@@QAEXW4GRAPHTYPE@CGraphBaseData@@@Z PROC ; CSubGraphDataBase::SetType, COMDAT
; _this$ = ecx

; 1120 : {

  00000	55		 push	 ebp
  00001	8b ec		 mov	 ebp, esp

; 1121 : 	m_TYPEType = type;

  00003	8b 45 08	 mov	 eax, DWORD PTR _type$[ebp]
  00006	89 41 08	 mov	 DWORD PTR [ecx+8], eax

; 1122 : }

  00009	5d		 pop	 ebp
  0000a	c2 04 00	 ret	 4
?SetType@CSubGraphDataBase@@QAEXW4GRAPHTYPE@CGraphBaseData@@@Z ENDP ; CSubGraphDataBase::SetType
_TEXT	ENDS
; Function compile flags: /Ogtp
; File D:\git\src\IBK\IBK_DRFN\ProjSrc\SrcChartEx\ChartOCX\IndicatorCondition\GraphData.cpp
; File C:\Program Files (x86)\Windows Kits\10\Include\10.0.22000.0\ucrt\string.h
; File D:\git\src\IBK\IBK_DRFN\ProjSrc\SrcChartEx\ChartOCX\IndicatorCondition\GraphData.cpp
; File C:\Program Files (x86)\Windows Kits\10\Include\10.0.22000.0\ucrt\string.h
; File D:\git\src\IBK\IBK_DRFN\ProjSrc\SrcChartEx\ChartOCX\IndicatorCondition\GraphData.cpp
; File C:\Program Files (x86)\Windows Kits\10\Include\10.0.22000.0\ucrt\string.h
; File D:\git\src\IBK\IBK_DRFN\ProjSrc\SrcChartEx\ChartOCX\IndicatorCondition\GraphData.cpp
; File C:\Program Files (x86)\Windows Kits\10\Include\10.0.22000.0\ucrt\string.h
; File D:\git\src\IBK\IBK_DRFN\ProjSrc\SrcChartEx\ChartOCX\IndicatorCondition\GraphData.cpp
; File C:\Program Files (x86)\Windows Kits\10\Include\10.0.22000.0\ucrt\string.h
; File D:\git\src\IBK\IBK_DRFN\ProjSrc\SrcChartEx\ChartOCX\IndicatorCondition\GraphData.cpp
; File C:\Program Files (x86)\Windows Kits\10\Include\10.0.22000.0\ucrt\string.h
; File D:\git\src\IBK\IBK_DRFN\ProjSrc\SrcChartEx\ChartOCX\IndicatorCondition\GraphData.cpp
; File C:\Program Files (x86)\Windows Kits\10\Include\10.0.22000.0\ucrt\string.h
; File D:\git\src\IBK\IBK_DRFN\ProjSrc\SrcChartEx\ChartOCX\IndicatorCondition\GraphData.cpp
; File C:\Program Files (x86)\Windows Kits\10\Include\10.0.22000.0\ucrt\string.h
; File D:\git\src\IBK\IBK_DRFN\ProjSrc\SrcChartEx\ChartOCX\IndicatorCondition\GraphData.cpp
; File C:\Program Files (x86)\Windows Kits\10\Include\10.0.22000.0\ucrt\string.h
; File D:\git\src\IBK\IBK_DRFN\ProjSrc\SrcChartEx\ChartOCX\IndicatorCondition\GraphData.cpp
; File C:\Program Files (x86)\Windows Kits\10\Include\10.0.22000.0\ucrt\string.h
; File D:\git\src\IBK\IBK_DRFN\ProjSrc\SrcChartEx\ChartOCX\IndicatorCondition\GraphData.cpp
; File C:\Program Files (x86)\Windows Kits\10\Include\10.0.22000.0\ucrt\string.h
; File D:\git\src\IBK\IBK_DRFN\ProjSrc\SrcChartEx\ChartOCX\IndicatorCondition\GraphData.cpp
; File C:\Program Files (x86)\Windows Kits\10\Include\10.0.22000.0\ucrt\string.h
; File D:\git\src\IBK\IBK_DRFN\ProjSrc\SrcChartEx\ChartOCX\IndicatorCondition\GraphData.cpp
; File C:\Program Files (x86)\Windows Kits\10\Include\10.0.22000.0\ucrt\string.h
; File D:\git\src\IBK\IBK_DRFN\ProjSrc\SrcChartEx\ChartOCX\IndicatorCondition\GraphData.cpp
; File C:\Program Files (x86)\Windows Kits\10\Include\10.0.22000.0\ucrt\string.h
; File D:\git\src\IBK\IBK_DRFN\ProjSrc\SrcChartEx\ChartOCX\IndicatorCondition\GraphData.cpp
; File C:\Program Files (x86)\Windows Kits\10\Include\10.0.22000.0\ucrt\string.h
; File D:\git\src\IBK\IBK_DRFN\ProjSrc\SrcChartEx\ChartOCX\IndicatorCondition\GraphData.cpp
; File C:\Program Files (x86)\Windows Kits\10\Include\10.0.22000.0\ucrt\string.h
; File D:\git\src\IBK\IBK_DRFN\ProjSrc\SrcChartEx\ChartOCX\IndicatorCondition\GraphData.cpp
; File C:\Program Files (x86)\Windows Kits\10\Include\10.0.22000.0\ucrt\string.h
; File D:\git\src\IBK\IBK_DRFN\ProjSrc\SrcChartEx\ChartOCX\IndicatorCondition\GraphData.cpp
; File C:\Program Files (x86)\Windows Kits\10\Include\10.0.22000.0\ucrt\string.h
; File D:\git\src\IBK\IBK_DRFN\ProjSrc\SrcChartEx\ChartOCX\IndicatorCondition\GraphData.cpp
; File C:\Program Files (x86)\Windows Kits\10\Include\10.0.22000.0\ucrt\string.h
; File D:\git\src\IBK\IBK_DRFN\ProjSrc\SrcChartEx\ChartOCX\IndicatorCondition\GraphData.cpp
;	COMDAT ?SetData@CSubGraphDataBase@@QAEXPBDPAUHWND__@@0@Z
_TEXT	SEGMENT
_this$1$ = -24						; size = 4
_strSubGraphData$ = -20					; size = 4
tv628 = -16						; size = 4
__$EHRec$ = -12						; size = 12
_szItem$9$ = 8						; size = 4
_szItem$4$ = 8						; size = 4
$T2 = 8							; size = 4
_p_szSubGraphData$ = 8					; size = 4
_p_hOcxWnd$ = 12					; size = 4
_p_szIndicatorName$ = 16				; size = 4
?SetData@CSubGraphDataBase@@QAEXPBDPAUHWND__@@0@Z PROC	; CSubGraphDataBase::SetData, COMDAT
; _this$ = ecx

; 997  : {

  00000	55		 push	 ebp
  00001	8b ec		 mov	 ebp, esp
  00003	6a ff		 push	 -1
  00005	68 00 00 00 00	 push	 __ehhandler$?SetData@CSubGraphDataBase@@QAEXPBDPAUHWND__@@0@Z
  0000a	64 a1 00 00 00
	00		 mov	 eax, DWORD PTR fs:0
  00010	50		 push	 eax
  00011	83 ec 0c	 sub	 esp, 12			; 0000000cH
  00014	53		 push	 ebx
  00015	56		 push	 esi
  00016	57		 push	 edi
  00017	a1 00 00 00 00	 mov	 eax, DWORD PTR ___security_cookie
  0001c	33 c5		 xor	 eax, ebp
  0001e	50		 push	 eax
  0001f	8d 45 f4	 lea	 eax, DWORD PTR __$EHRec$[ebp]
  00022	64 a3 00 00 00
	00		 mov	 DWORD PTR fs:0, eax
  00028	8b d9		 mov	 ebx, ecx
  0002a	89 5d e8	 mov	 DWORD PTR _this$1$[ebp], ebx

; 998  : 	m_TYPEType					= CGraphBaseData::GTNONE;
; 999  : 	m_nStyle.SetGraphStyle(		0);
; 1000 : 	m_nDrawStyle.SetDrawStyle(	0);
; 1001 : 	m_strName.Empty();

  0002d	8d 4b 1c	 lea	 ecx, DWORD PTR [ebx+28]
  00030	c7 43 08 ff ff
	ff ff		 mov	 DWORD PTR [ebx+8], -1
  00037	c7 43 0c 00 00
	00 00		 mov	 DWORD PTR [ebx+12], 0
  0003e	c7 43 10 00 00
	00 00		 mov	 DWORD PTR [ebx+16], 0
  00045	ff 15 00 00 00
	00		 call	 DWORD PTR __imp_?Empty@?$CSimpleStringT@D$00@ATL@@QAEXXZ

; 1002 : 	m_strTitle.Empty();

  0004b	8d 43 20	 lea	 eax, DWORD PTR [ebx+32]
  0004e	8b c8		 mov	 ecx, eax
  00050	89 45 f0	 mov	 DWORD PTR tv628[ebp], eax
  00053	ff 15 00 00 00
	00		 call	 DWORD PTR __imp_?Empty@?$CSimpleStringT@D$00@ATL@@QAEXXZ

; 1003 : 	m_bHiding					= false;
; 1004 : 	m_clrColor.SetData(			NULL);

  00059	6a 01		 push	 1
  0005b	8d 4b 28	 lea	 ecx, DWORD PTR [ebx+40]
  0005e	c6 43 24 00	 mov	 BYTE PTR [ebx+36], 0
  00062	6a 00		 push	 0
  00064	e8 00 00 00 00	 call	 ?SetData@CGraphColor@@QAEXPBDH@Z ; CGraphColor::SetData

; 1010 : 
; 1011 : 	if( !p_szSubGraphData) return;

  00069	8b 75 08	 mov	 esi, DWORD PTR _p_szSubGraphData$[ebp]

; 87   : 	m_nThickness1	= 1;

  0006c	c7 43 58 01 00
	00 00		 mov	 DWORD PTR [ebx+88], 1

; 88   : 	m_nThickness2	= 1;

  00073	c7 43 5c 01 00
	00 00		 mov	 DWORD PTR [ebx+92], 1

; 89   : 	m_nThickness3	= 1;

  0007a	c7 43 60 01 00
	00 00		 mov	 DWORD PTR [ebx+96], 1

; 90   : 	m_bIsHightlight	= false;

  00081	c6 43 54 00	 mov	 BYTE PTR [ebx+84], 0

; 91   : 	//  ,   - ojtaso (20071213)
; 92   : 	m_nBaseLineThickness = 1;

  00085	c7 43 64 01 00
	00 00		 mov	 DWORD PTR [ebx+100], 1

; 1005 : 	m_penThickness.SetData(		NULL);
; 1006 : 	// Singbar Graph    - ojtaso (20071121)
; 1007 : 	m_nPaintStyle.SetPaintStyle(1);

  0008c	c7 43 14 01 00
	00 00		 mov	 DWORD PTR [ebx+20], 1

; 1008 : 	//  ,   - ojtaso (20071213)
; 1009 : 	m_nBaseLineStyle.SetBaseLineStyle(0);

  00093	c7 43 18 00 00
	00 00		 mov	 DWORD PTR [ebx+24], 0

; 1010 : 
; 1011 : 	if( !p_szSubGraphData) return;

  0009a	85 f6		 test	 esi, esi
  0009c	0f 84 bf 02 00
	00		 je	 $LN1@SetData

; 1012 : 	if( !*p_szSubGraphData) return;

  000a2	80 3e 00	 cmp	 BYTE PTR [esi], 0
  000a5	0f 84 b6 02 00
	00		 je	 $LN1@SetData

; 1013 : 
; 1014 : 	// ";;;;title;;1;2;3;4;5;6;
; 1015 : 	//  ;;1;2;3;;\r\n"
; 1016 : 	CString strSubGraphData;

  000ab	8d 4d ec	 lea	 ecx, DWORD PTR _strSubGraphData$[ebp]
  000ae	ff 15 00 00 00
	00		 call	 DWORD PTR __imp_??0?$CStringT@DV?$StrTraitMFC_DLL@DV?$ChTraitsCRT@D@ATL@@@@@ATL@@QAE@XZ

; 1017 : 	int nSubGraphDataLen = strlen( p_szSubGraphData);

  000b4	8b ce		 mov	 ecx, esi
  000b6	c7 45 fc 01 00
	00 00		 mov	 DWORD PTR __$EHRec$[ebp+8], 1
  000bd	8d 51 01	 lea	 edx, DWORD PTR [ecx+1]
$LL135@SetData:
  000c0	8a 01		 mov	 al, BYTE PTR [ecx]
  000c2	41		 inc	 ecx
  000c3	84 c0		 test	 al, al
  000c5	75 f9		 jne	 SHORT $LL135@SetData
  000c7	2b ca		 sub	 ecx, edx

; 1018 : 	char *szSubGraphData = strSubGraphData.GetBufferSetLength( nSubGraphDataLen);

  000c9	51		 push	 ecx
  000ca	8d 4d ec	 lea	 ecx, DWORD PTR _strSubGraphData$[ebp]
  000cd	ff 15 00 00 00
	00		 call	 DWORD PTR __imp_?GetBufferSetLength@?$CSimpleStringT@D$00@ATL@@QAEPADH@Z
  000d3	8b f8		 mov	 edi, eax
  000d5	8b d7		 mov	 edx, edi
  000d7	2b d6		 sub	 edx, esi
  000d9	0f 1f 80 00 00
	00 00		 npad	 7
$LL45@SetData:

; 1019 : 	strcpy( szSubGraphData, p_szSubGraphData);

  000e0	8a 0e		 mov	 cl, BYTE PTR [esi]
  000e2	8d 76 01	 lea	 esi, DWORD PTR [esi+1]
  000e5	88 4c 32 ff	 mov	 BYTE PTR [edx+esi-1], cl
  000e9	84 c9		 test	 cl, cl
  000eb	75 f3		 jne	 SHORT $LL45@SetData
; File C:\Program Files (x86)\Windows Kits\10\Include\10.0.22000.0\ucrt\string.h

; 502  :         return const_cast<char*>(strchr(static_cast<char const*>(_String), _Ch));

  000ed	6a 3b		 push	 59			; 0000003bH
  000ef	57		 push	 edi
  000f0	e8 00 00 00 00	 call	 _strchr
; File D:\git\src\IBK\IBK_DRFN\ProjSrc\SrcChartEx\ChartOCX\IndicatorCondition\GraphData.cpp

; 1022 : 	szSubGraphData = strchr( szSubGraphData, ';');

  000f5	8b f0		 mov	 esi, eax
; File C:\Program Files (x86)\Windows Kits\10\Include\10.0.22000.0\ucrt\string.h

; 502  :         return const_cast<char*>(strchr(static_cast<char const*>(_String), _Ch));

  000f7	83 c4 08	 add	 esp, 8
; File D:\git\src\IBK\IBK_DRFN\ProjSrc\SrcChartEx\ChartOCX\IndicatorCondition\GraphData.cpp

; 1023 : 	if( szSubGraphData) *szSubGraphData++ = '\0';

  000fa	85 f6		 test	 esi, esi
  000fc	74 04		 je	 SHORT $LN10@SetData
  000fe	c6 06 00	 mov	 BYTE PTR [esi], 0
  00101	46		 inc	 esi
$LN10@SetData:

; 1024 : 	m_TYPEType = ( CGraphBaseData::GRAPHTYPE)atoi( szItem);

  00102	57		 push	 edi
  00103	ff 15 00 00 00
	00		 call	 DWORD PTR __imp__atoi
  00109	83 c4 04	 add	 esp, 4
  0010c	89 43 08	 mov	 DWORD PTR [ebx+8], eax

; 1025 : 	if( !szSubGraphData) return;

  0010f	85 f6		 test	 esi, esi
  00111	0f 84 41 02 00
	00		 je	 $LN65@SetData

; 1026 : 	if( !*szSubGraphData) return;

  00117	80 3e 00	 cmp	 BYTE PTR [esi], 0
  0011a	0f 84 38 02 00
	00		 je	 $LN65@SetData
; File C:\Program Files (x86)\Windows Kits\10\Include\10.0.22000.0\ucrt\string.h

; 502  :         return const_cast<char*>(strchr(static_cast<char const*>(_String), _Ch));

  00120	6a 3b		 push	 59			; 0000003bH
  00122	56		 push	 esi
  00123	e8 00 00 00 00	 call	 _strchr
; File D:\git\src\IBK\IBK_DRFN\ProjSrc\SrcChartEx\ChartOCX\IndicatorCondition\GraphData.cpp

; 1029 : 	szSubGraphData = strchr( szSubGraphData, ';');

  00128	8b f8		 mov	 edi, eax
; File C:\Program Files (x86)\Windows Kits\10\Include\10.0.22000.0\ucrt\string.h

; 502  :         return const_cast<char*>(strchr(static_cast<char const*>(_String), _Ch));

  0012a	83 c4 08	 add	 esp, 8
; File D:\git\src\IBK\IBK_DRFN\ProjSrc\SrcChartEx\ChartOCX\IndicatorCondition\GraphData.cpp

; 1030 : 	if( szSubGraphData) *szSubGraphData++ = '\0';

  0012d	85 ff		 test	 edi, edi
  0012f	74 04		 je	 SHORT $LN13@SetData
  00131	c6 07 00	 mov	 BYTE PTR [edi], 0
  00134	47		 inc	 edi
$LN13@SetData:

; 1031 : 	m_nStyle = ( CGraphStyle)atoi( szItem);

  00135	56		 push	 esi
  00136	ff 15 00 00 00
	00		 call	 DWORD PTR __imp__atoi
  0013c	83 c4 04	 add	 esp, 4
  0013f	89 43 0c	 mov	 DWORD PTR [ebx+12], eax

; 1032 : 	if( !szSubGraphData) return;

  00142	85 ff		 test	 edi, edi
  00144	0f 84 0e 02 00
	00		 je	 $LN65@SetData

; 1033 : 	if( !*szSubGraphData) return;

  0014a	80 3f 00	 cmp	 BYTE PTR [edi], 0
  0014d	0f 84 05 02 00
	00		 je	 $LN65@SetData
; File C:\Program Files (x86)\Windows Kits\10\Include\10.0.22000.0\ucrt\string.h

; 502  :         return const_cast<char*>(strchr(static_cast<char const*>(_String), _Ch));

  00153	6a 3b		 push	 59			; 0000003bH
  00155	57		 push	 edi
  00156	e8 00 00 00 00	 call	 _strchr
; File D:\git\src\IBK\IBK_DRFN\ProjSrc\SrcChartEx\ChartOCX\IndicatorCondition\GraphData.cpp

; 1036 : 	szSubGraphData = strchr( szSubGraphData, ';');

  0015b	8b f0		 mov	 esi, eax
  0015d	89 45 08	 mov	 DWORD PTR _szItem$4$[ebp], eax
; File C:\Program Files (x86)\Windows Kits\10\Include\10.0.22000.0\ucrt\string.h

; 502  :         return const_cast<char*>(strchr(static_cast<char const*>(_String), _Ch));

  00160	83 c4 08	 add	 esp, 8
; File D:\git\src\IBK\IBK_DRFN\ProjSrc\SrcChartEx\ChartOCX\IndicatorCondition\GraphData.cpp

; 1037 : 	if( szSubGraphData) *szSubGraphData++ = '\0';

  00163	85 f6		 test	 esi, esi
  00165	74 07		 je	 SHORT $LN16@SetData
  00167	c6 06 00	 mov	 BYTE PTR [esi], 0
  0016a	46		 inc	 esi
  0016b	89 75 08	 mov	 DWORD PTR _szItem$4$[ebp], esi
$LN16@SetData:

; 1038 : 	m_nDrawStyle = ( CGraphDrawStyle)atoi( szItem);

  0016e	57		 push	 edi
  0016f	ff 15 00 00 00
	00		 call	 DWORD PTR __imp__atoi
  00175	83 c4 04	 add	 esp, 4
  00178	89 43 10	 mov	 DWORD PTR [ebx+16], eax

; 1039 : 	if( !szSubGraphData) return;

  0017b	85 f6		 test	 esi, esi
  0017d	0f 84 d5 01 00
	00		 je	 $LN65@SetData

; 1040 : 	if( !*szSubGraphData) return;

  00183	80 3e 00	 cmp	 BYTE PTR [esi], 0
  00186	0f 84 cc 01 00
	00		 je	 $LN65@SetData

; 1041 : 
; 1042 : 	if( m_TYPEType == CGraphBaseData::Bong_Type && m_nStyle.GetGraphStyle() != m_nDrawStyle.GetDrawStyle())

  0018c	83 7b 08 00	 cmp	 DWORD PTR [ebx+8], 0
  00190	75 0a		 jne	 SHORT $LN19@SetData
  00192	8b 4b 0c	 mov	 ecx, DWORD PTR [ebx+12]
  00195	3b c8		 cmp	 ecx, eax
  00197	74 03		 je	 SHORT $LN19@SetData

; 1043 : 		m_nDrawStyle.SetDrawStyle( m_nStyle.GetGraphStyle());

  00199	89 4b 10	 mov	 DWORD PTR [ebx+16], ecx
$LN19@SetData:
; File C:\Program Files (x86)\Windows Kits\10\Include\10.0.22000.0\ucrt\string.h

; 502  :         return const_cast<char*>(strchr(static_cast<char const*>(_String), _Ch));

  0019c	6a 3b		 push	 59			; 0000003bH
  0019e	56		 push	 esi
  0019f	e8 00 00 00 00	 call	 _strchr
; File D:\git\src\IBK\IBK_DRFN\ProjSrc\SrcChartEx\ChartOCX\IndicatorCondition\GraphData.cpp

; 1046 : 	szSubGraphData = strchr( szSubGraphData, ';');

  001a4	8b f0		 mov	 esi, eax
; File C:\Program Files (x86)\Windows Kits\10\Include\10.0.22000.0\ucrt\string.h

; 502  :         return const_cast<char*>(strchr(static_cast<char const*>(_String), _Ch));

  001a6	83 c4 08	 add	 esp, 8
; File D:\git\src\IBK\IBK_DRFN\ProjSrc\SrcChartEx\ChartOCX\IndicatorCondition\GraphData.cpp

; 1047 : 	if( szSubGraphData) *szSubGraphData++ = '\0';

  001a9	85 f6		 test	 esi, esi
  001ab	74 04		 je	 SHORT $LN20@SetData
  001ad	c6 06 00	 mov	 BYTE PTR [esi], 0
  001b0	46		 inc	 esi
$LN20@SetData:

; 1048 : 	m_strName = _MTOM3( szItem);

  001b1	6a 00		 push	 0
  001b3	ff 75 08	 push	 DWORD PTR _szItem$4$[ebp]
  001b6	b9 00 00 00 00	 mov	 ecx, OFFSET ?g_iMetaTable@@3VIMetaTable@@A ; g_iMetaTable
  001bb	6a 03		 push	 3
  001bd	6a 00		 push	 0
  001bf	e8 00 00 00 00	 call	 ?GetMetaTextFromOther@IMetaTable@@QAEPBDPAUHWND__@@W4E_CODEPAGE@1@PBDH@Z ; IMetaTable::GetMetaTextFromOther
  001c4	50		 push	 eax
  001c5	8d 4b 1c	 lea	 ecx, DWORD PTR [ebx+28]
  001c8	ff 15 00 00 00
	00		 call	 DWORD PTR __imp_??4?$CStringT@DV?$StrTraitMFC_DLL@DV?$ChTraitsCRT@D@ATL@@@@@ATL@@QAEAAV01@PBD@Z

; 1049 : 	if( !szSubGraphData) return;

  001ce	85 f6		 test	 esi, esi
  001d0	0f 84 82 01 00
	00		 je	 $LN65@SetData

; 1050 : 	if( !*szSubGraphData) return;

  001d6	80 3e 00	 cmp	 BYTE PTR [esi], 0
  001d9	0f 84 79 01 00
	00		 je	 $LN65@SetData
; File C:\Program Files (x86)\Windows Kits\10\Include\10.0.22000.0\ucrt\string.h

; 502  :         return const_cast<char*>(strchr(static_cast<char const*>(_String), _Ch));

  001df	6a 3b		 push	 59			; 0000003bH
  001e1	56		 push	 esi
  001e2	e8 00 00 00 00	 call	 _strchr
; File D:\git\src\IBK\IBK_DRFN\ProjSrc\SrcChartEx\ChartOCX\IndicatorCondition\GraphData.cpp

; 1053 : 	szSubGraphData = strchr( szSubGraphData, ';');

  001e7	8b f8		 mov	 edi, eax
; File C:\Program Files (x86)\Windows Kits\10\Include\10.0.22000.0\ucrt\string.h

; 502  :         return const_cast<char*>(strchr(static_cast<char const*>(_String), _Ch));

  001e9	83 c4 08	 add	 esp, 8
; File D:\git\src\IBK\IBK_DRFN\ProjSrc\SrcChartEx\ChartOCX\IndicatorCondition\GraphData.cpp

; 1054 : 	if( szSubGraphData) *szSubGraphData++ = '\0';

  001ec	85 ff		 test	 edi, edi
  001ee	74 04		 je	 SHORT $LN23@SetData
  001f0	c6 07 00	 mov	 BYTE PTR [edi], 0
  001f3	47		 inc	 edi
$LN23@SetData:

; 1055 : 	if( g_iMetaTable.IsTitleIncludeCondition( p_szIndicatorName)) m_strTitle = szItem;

  001f4	ff 75 10	 push	 DWORD PTR _p_szIndicatorName$[ebp]
  001f7	8d 4d 08	 lea	 ecx, DWORD PTR $T2[ebp]
  001fa	ff 15 00 00 00
	00		 call	 DWORD PTR __imp_??0?$CStringT@DV?$StrTraitMFC_DLL@DV?$ChTraitsCRT@D@ATL@@@@@ATL@@QAE@PBD@Z
  00200	8d 45 08	 lea	 eax, DWORD PTR $T2[ebp]
  00203	c6 45 fc 02	 mov	 BYTE PTR __$EHRec$[ebp+8], 2
  00207	50		 push	 eax
  00208	b9 00 00 00 00	 mov	 ecx, OFFSET ?g_iMetaTable@@3VIMetaTable@@A ; g_iMetaTable
  0020d	e8 00 00 00 00	 call	 ?IsTitleIncludeCondition@IMetaTable@@QAE_NABV?$CStringT@DV?$StrTraitMFC_DLL@DV?$ChTraitsCRT@D@ATL@@@@@ATL@@@Z ; IMetaTable::IsTitleIncludeCondition
  00212	8d 4d 08	 lea	 ecx, DWORD PTR $T2[ebp]
  00215	c6 45 fc 01	 mov	 BYTE PTR __$EHRec$[ebp+8], 1
  00219	8a d8		 mov	 bl, al
  0021b	ff 15 00 00 00
	00		 call	 DWORD PTR __imp_??1?$CStringT@DV?$StrTraitMFC_DLL@DV?$ChTraitsCRT@D@ATL@@@@@ATL@@QAE@XZ
  00221	84 db		 test	 bl, bl
  00223	74 03		 je	 SHORT $LN24@SetData
  00225	56		 push	 esi
  00226	eb 13		 jmp	 SHORT $LN137@SetData
$LN24@SetData:

; 1056 : 	else
; 1057 : 	{
; 1058 : 		_MHWND( p_hOcxWnd);
; 1059 : 		m_strTitle = _STOM1( szItem);

  00228	6a 00		 push	 0
  0022a	56		 push	 esi
  0022b	6a 01		 push	 1
  0022d	ff 75 0c	 push	 DWORD PTR _p_hOcxWnd$[ebp]
  00230	b9 00 00 00 00	 mov	 ecx, OFFSET ?g_iMetaTable@@3VIMetaTable@@A ; g_iMetaTable
  00235	e8 00 00 00 00	 call	 ?GetMetaTextForScript@IMetaTable@@QAEPBDPAUHWND__@@W4E_CODEPAGE@1@PBDH@Z ; IMetaTable::GetMetaTextForScript
  0023a	50		 push	 eax
$LN137@SetData:

; 1060 : 	}
; 1061 : 	if( !szSubGraphData) return;

  0023b	8b 4d f0	 mov	 ecx, DWORD PTR tv628[ebp]
  0023e	ff 15 00 00 00
	00		 call	 DWORD PTR __imp_??4?$CStringT@DV?$StrTraitMFC_DLL@DV?$ChTraitsCRT@D@ATL@@@@@ATL@@QAEAAV01@PBD@Z
  00244	85 ff		 test	 edi, edi
  00246	0f 84 0c 01 00
	00		 je	 $LN65@SetData

; 1062 : 	if( !*szSubGraphData) return;

  0024c	80 3f 00	 cmp	 BYTE PTR [edi], 0
  0024f	0f 84 03 01 00
	00		 je	 $LN65@SetData
; File C:\Program Files (x86)\Windows Kits\10\Include\10.0.22000.0\ucrt\string.h

; 502  :         return const_cast<char*>(strchr(static_cast<char const*>(_String), _Ch));

  00255	6a 3b		 push	 59			; 0000003bH
  00257	57		 push	 edi
  00258	e8 00 00 00 00	 call	 _strchr
; File D:\git\src\IBK\IBK_DRFN\ProjSrc\SrcChartEx\ChartOCX\IndicatorCondition\GraphData.cpp

; 1065 : 	szSubGraphData = strchr( szSubGraphData, ';');

  0025d	8b f0		 mov	 esi, eax
; File C:\Program Files (x86)\Windows Kits\10\Include\10.0.22000.0\ucrt\string.h

; 502  :         return const_cast<char*>(strchr(static_cast<char const*>(_String), _Ch));

  0025f	83 c4 08	 add	 esp, 8
; File D:\git\src\IBK\IBK_DRFN\ProjSrc\SrcChartEx\ChartOCX\IndicatorCondition\GraphData.cpp

; 1066 : 	if( szSubGraphData) *szSubGraphData++ = '\0';

  00262	85 f6		 test	 esi, esi
  00264	74 04		 je	 SHORT $LN28@SetData
  00266	c6 06 00	 mov	 BYTE PTR [esi], 0
  00269	46		 inc	 esi
$LN28@SetData:

; 1067 : 	m_bHiding = ( atoi( szItem) != 0);

  0026a	57		 push	 edi
  0026b	ff 15 00 00 00
	00		 call	 DWORD PTR __imp__atoi
  00271	8b 5d e8	 mov	 ebx, DWORD PTR _this$1$[ebp]
  00274	83 c4 04	 add	 esp, 4
  00277	85 c0		 test	 eax, eax
  00279	0f 95 c0	 setne	 al
  0027c	88 43 24	 mov	 BYTE PTR [ebx+36], al

; 1068 : 	if( !szSubGraphData) return;

  0027f	85 f6		 test	 esi, esi
  00281	0f 84 d1 00 00
	00		 je	 $LN65@SetData

; 1069 : 	if( !*szSubGraphData) return;

  00287	80 3e 00	 cmp	 BYTE PTR [esi], 0
  0028a	0f 84 c8 00 00
	00		 je	 $LN65@SetData

; 1070 : 
; 1071 : 	szItem = szSubGraphData;

  00290	89 75 08	 mov	 DWORD PTR _szItem$9$[ebp], esi

; 1072 : 	int i = 0;

  00293	33 ff		 xor	 edi, edi
$LL4@SetData:
; File C:\Program Files (x86)\Windows Kits\10\Include\10.0.22000.0\ucrt\string.h

; 502  :         return const_cast<char*>(strchr(static_cast<char const*>(_String), _Ch));

  00295	6a 3b		 push	 59			; 0000003bH
  00297	56		 push	 esi
  00298	e8 00 00 00 00	 call	 _strchr
; File D:\git\src\IBK\IBK_DRFN\ProjSrc\SrcChartEx\ChartOCX\IndicatorCondition\GraphData.cpp

; 1075 : 		szSubGraphData = strchr( szSubGraphData, ';');

  0029d	8b f0		 mov	 esi, eax
; File C:\Program Files (x86)\Windows Kits\10\Include\10.0.22000.0\ucrt\string.h

; 502  :         return const_cast<char*>(strchr(static_cast<char const*>(_String), _Ch));

  0029f	83 c4 08	 add	 esp, 8
; File D:\git\src\IBK\IBK_DRFN\ProjSrc\SrcChartEx\ChartOCX\IndicatorCondition\GraphData.cpp

; 1076 : 		if( !szSubGraphData) continue;

  002a2	85 f6		 test	 esi, esi
  002a4	0f 84 a1 00 00
	00		 je	 $LN33@SetData

; 1077 : 		i++;

  002aa	47		 inc	 edi

; 1078 : 		szSubGraphData++;

  002ab	83 c6 01	 add	 esi, 1

; 1079 : 	//} while( szSubGraphData && i < 8);
; 1080 : 	} while( szSubGraphData && i < 14);		//@Solomon-091222

  002ae	0f 84 97 00 00
	00		 je	 $LN33@SetData
  002b4	83 ff 0e	 cmp	 edi, 14			; 0000000eH
  002b7	7c dc		 jl	 SHORT $LL4@SetData

; 1081 : 	if( szSubGraphData) *( szSubGraphData - 1) = '\0';

  002b9	6a 01		 push	 1
  002bb	ff 75 08	 push	 DWORD PTR _szItem$9$[ebp]
  002be	8d 4b 28	 lea	 ecx, DWORD PTR [ebx+40]
  002c1	c6 46 ff 00	 mov	 BYTE PTR [esi-1], 0
  002c5	e8 00 00 00 00	 call	 ?SetData@CGraphColor@@QAEXPBDH@Z ; CGraphColor::SetData

; 1083 : 	if( !szSubGraphData) return;
; 1084 : 	if( !*szSubGraphData) return;

  002ca	80 3e 00	 cmp	 BYTE PTR [esi], 0
  002cd	0f 84 85 00 00
	00		 je	 $LN65@SetData

; 1085 : 
; 1086 : 	szItem = szSubGraphData;
; 1087 : 	m_penThickness.SetData( szItem);

  002d3	56		 push	 esi
  002d4	8d 4b 54	 lea	 ecx, DWORD PTR [ebx+84]
  002d7	e8 00 00 00 00	 call	 ?SetData@CPenThickness@@QAEXPBD@Z ; CPenThickness::SetData

; 1088 : 
; 1089 : 	// Singbar Graph    - ojtaso (20071121)
; 1090 : 	i = 0;

  002dc	33 ff		 xor	 edi, edi
  002de	66 90		 npad	 2
$LL7@SetData:
; File C:\Program Files (x86)\Windows Kits\10\Include\10.0.22000.0\ucrt\string.h

; 502  :         return const_cast<char*>(strchr(static_cast<char const*>(_String), _Ch));

  002e0	6a 3b		 push	 59			; 0000003bH
  002e2	56		 push	 esi
  002e3	e8 00 00 00 00	 call	 _strchr
; File D:\git\src\IBK\IBK_DRFN\ProjSrc\SrcChartEx\ChartOCX\IndicatorCondition\GraphData.cpp

; 1093 : 		szSubGraphData = strchr( szSubGraphData, ';');

  002e8	8b f0		 mov	 esi, eax
; File C:\Program Files (x86)\Windows Kits\10\Include\10.0.22000.0\ucrt\string.h

; 502  :         return const_cast<char*>(strchr(static_cast<char const*>(_String), _Ch));

  002ea	83 c4 08	 add	 esp, 8
; File D:\git\src\IBK\IBK_DRFN\ProjSrc\SrcChartEx\ChartOCX\IndicatorCondition\GraphData.cpp

; 1094 : 		if( !szSubGraphData) continue;

  002ed	85 f6		 test	 esi, esi
  002ef	74 67		 je	 SHORT $LN65@SetData

; 1095 : 		i++;

  002f1	47		 inc	 edi

; 1096 : 		szSubGraphData++;

  002f2	83 c6 01	 add	 esi, 1

; 1097 : 	//@Solomon} while( szSubGraphData && i < 5);
; 1098 : 	//@Solomon , , ,    - ojtaso (20080707)
; 1099 : 	} while( szSubGraphData && i < 14);

  002f5	74 61		 je	 SHORT $LN65@SetData
  002f7	83 ff 0e	 cmp	 edi, 14			; 0000000eH
  002fa	7c e4		 jl	 SHORT $LL7@SetData

; 1100 : 
; 1101 : 	if( !szSubGraphData) return;
; 1102 : 	if( !*szSubGraphData) return;

  002fc	80 3e 00	 cmp	 BYTE PTR [esi], 0
  002ff	74 57		 je	 SHORT $LN65@SetData
; File C:\Program Files (x86)\Windows Kits\10\Include\10.0.22000.0\ucrt\string.h

; 502  :         return const_cast<char*>(strchr(static_cast<char const*>(_String), _Ch));

  00301	6a 3b		 push	 59			; 0000003bH
  00303	56		 push	 esi
  00304	e8 00 00 00 00	 call	 _strchr
; File D:\git\src\IBK\IBK_DRFN\ProjSrc\SrcChartEx\ChartOCX\IndicatorCondition\GraphData.cpp

; 1105 : 	szSubGraphData = strchr( szSubGraphData, ';');

  00309	8b f8		 mov	 edi, eax
; File C:\Program Files (x86)\Windows Kits\10\Include\10.0.22000.0\ucrt\string.h

; 502  :         return const_cast<char*>(strchr(static_cast<char const*>(_String), _Ch));

  0030b	83 c4 08	 add	 esp, 8
; File D:\git\src\IBK\IBK_DRFN\ProjSrc\SrcChartEx\ChartOCX\IndicatorCondition\GraphData.cpp

; 1106 : 	if( szSubGraphData) *szSubGraphData++ = '\0';

  0030e	85 ff		 test	 edi, edi
  00310	74 04		 je	 SHORT $LN40@SetData
  00312	c6 07 00	 mov	 BYTE PTR [edi], 0
  00315	47		 inc	 edi
$LN40@SetData:

; 1107 : 	m_nPaintStyle = ( CGraphPaintStyle)atoi( szItem);

  00316	56		 push	 esi
  00317	8b 35 00 00 00
	00		 mov	 esi, DWORD PTR __imp__atoi
  0031d	ff d6		 call	 esi
  0031f	83 c4 04	 add	 esp, 4
  00322	89 43 14	 mov	 DWORD PTR [ebx+20], eax

; 1108 : 
; 1109 : 	//  ,   - ojtaso (20071213)
; 1110 : 	if( !szSubGraphData) return;

  00325	85 ff		 test	 edi, edi
  00327	74 2f		 je	 SHORT $LN65@SetData

; 1111 : 	if( !*szSubGraphData) return;

  00329	80 3f 00	 cmp	 BYTE PTR [edi], 0
  0032c	74 2a		 je	 SHORT $LN65@SetData
; File C:\Program Files (x86)\Windows Kits\10\Include\10.0.22000.0\ucrt\string.h

; 502  :         return const_cast<char*>(strchr(static_cast<char const*>(_String), _Ch));

  0032e	6a 3b		 push	 59			; 0000003bH
  00330	57		 push	 edi
  00331	e8 00 00 00 00	 call	 _strchr
  00336	83 c4 08	 add	 esp, 8
; File D:\git\src\IBK\IBK_DRFN\ProjSrc\SrcChartEx\ChartOCX\IndicatorCondition\GraphData.cpp

; 1115 : 	if( szSubGraphData) *szSubGraphData++ = '\0';

  00339	85 c0		 test	 eax, eax
  0033b	74 03		 je	 SHORT $LN43@SetData
  0033d	c6 00 00	 mov	 BYTE PTR [eax], 0
$LN43@SetData:

; 1116 : 	m_nBaseLineStyle = ( CGraphBaseLineStyle)atoi( szItem);

  00340	57		 push	 edi
  00341	ff d6		 call	 esi
  00343	83 c4 04	 add	 esp, 4
  00346	89 43 18	 mov	 DWORD PTR [ebx+24], eax
  00349	eb 0d		 jmp	 SHORT $LN65@SetData
$LN33@SetData:

; 1082 : 	m_clrColor.SetData( szItem);

  0034b	6a 01		 push	 1
  0034d	ff 75 08	 push	 DWORD PTR _szItem$9$[ebp]
  00350	8d 4b 28	 lea	 ecx, DWORD PTR [ebx+40]
  00353	e8 00 00 00 00	 call	 ?SetData@CGraphColor@@QAEXPBDH@Z ; CGraphColor::SetData
$LN65@SetData:

; 1117 : }

  00358	8d 4d ec	 lea	 ecx, DWORD PTR _strSubGraphData$[ebp]
  0035b	ff 15 00 00 00
	00		 call	 DWORD PTR __imp_??1?$CStringT@DV?$StrTraitMFC_DLL@DV?$ChTraitsCRT@D@ATL@@@@@ATL@@QAE@XZ
$LN1@SetData:
  00361	8b 4d f4	 mov	 ecx, DWORD PTR __$EHRec$[ebp]
  00364	64 89 0d 00 00
	00 00		 mov	 DWORD PTR fs:0, ecx
  0036b	59		 pop	 ecx
  0036c	5f		 pop	 edi
  0036d	5e		 pop	 esi
  0036e	5b		 pop	 ebx
  0036f	8b e5		 mov	 esp, ebp
  00371	5d		 pop	 ebp
  00372	c2 0c 00	 ret	 12			; 0000000cH
_TEXT	ENDS
;	COMDAT text$x
text$x	SEGMENT
__unwindfunclet$?SetData@CSubGraphDataBase@@QAEXPBDPAUHWND__@@0@Z$0:
  00000	8d 4d ec	 lea	 ecx, DWORD PTR _strSubGraphData$[ebp]
  00003	ff 25 00 00 00
	00		 jmp	 DWORD PTR __imp_??1?$CStringT@DV?$StrTraitMFC_DLL@DV?$ChTraitsCRT@D@ATL@@@@@ATL@@QAE@XZ
__unwindfunclet$?SetData@CSubGraphDataBase@@QAEXPBDPAUHWND__@@0@Z$1:
  00009	8d 4d 08	 lea	 ecx, DWORD PTR $T2[ebp]
  0000c	ff 25 00 00 00
	00		 jmp	 DWORD PTR __imp_??1?$CStringT@DV?$StrTraitMFC_DLL@DV?$ChTraitsCRT@D@ATL@@@@@ATL@@QAE@XZ
  00012	cc		 int	 3
  00013	cc		 int	 3
  00014	cc		 int	 3
  00015	cc		 int	 3
  00016	cc		 int	 3
__ehhandler$?SetData@CSubGraphDataBase@@QAEXPBDPAUHWND__@@0@Z:
  00017	90		 npad	 1
  00018	90		 npad	 1
  00019	8b 54 24 08	 mov	 edx, DWORD PTR [esp+8]
  0001d	8d 42 0c	 lea	 eax, DWORD PTR [edx+12]
  00020	8b 4a e4	 mov	 ecx, DWORD PTR [edx-28]
  00023	33 c8		 xor	 ecx, eax
  00025	e8 00 00 00 00	 call	 @__security_check_cookie@4
  0002a	b8 00 00 00 00	 mov	 eax, OFFSET __ehfuncinfo$?SetData@CSubGraphDataBase@@QAEXPBDPAUHWND__@@0@Z
  0002f	e9 00 00 00 00	 jmp	 ___CxxFrameHandler3
text$x	ENDS
?SetData@CSubGraphDataBase@@QAEXPBDPAUHWND__@@0@Z ENDP	; CSubGraphDataBase::SetData
; Function compile flags: /Ogtp
; File D:\git\src\IBK\IBK_DRFN\ProjSrc\SrcChartEx\ChartOCX\IndicatorCondition\GraphData.cpp
;	COMDAT ?SetTitleEndPosition@CSubGraphDataBase@@QAEXHH@Z
_TEXT	SEGMENT
_nTitleEndPosition$ = 8					; size = 4
_nTitleEndLine$ = 12					; size = 4
?SetTitleEndPosition@CSubGraphDataBase@@QAEXHH@Z PROC	; CSubGraphDataBase::SetTitleEndPosition, COMDAT
; _this$ = ecx

; 991  : {

  00000	55		 push	 ebp
  00001	8b ec		 mov	 ebp, esp

; 992  : 	m_nTitleEndPosition = nTitleEndPosition;

  00003	8b 45 08	 mov	 eax, DWORD PTR _nTitleEndPosition$[ebp]
  00006	89 01		 mov	 DWORD PTR [ecx], eax

; 993  : 	m_nTitleEndLine = nTitleEndLine;

  00008	8b 45 0c	 mov	 eax, DWORD PTR _nTitleEndLine$[ebp]
  0000b	89 41 04	 mov	 DWORD PTR [ecx+4], eax

; 994  : }

  0000e	5d		 pop	 ebp
  0000f	c2 08 00	 ret	 8
?SetTitleEndPosition@CSubGraphDataBase@@QAEXHH@Z ENDP	; CSubGraphDataBase::SetTitleEndPosition
_TEXT	ENDS
; Function compile flags: /Ogtp
; File D:\git\src\IBK\IBK_DRFN\ProjSrc\SrcChartEx\ChartOCX\IndicatorCondition\GraphData.cpp
; File C:\Program Files (x86)\Microsoft Visual Studio\2019\Community\VC\Tools\MSVC\14.29.30133\atlmfc\include\afxtempl.h
; File D:\git\src\IBK\IBK_DRFN\ProjSrc\SrcChartEx\ChartOCX\IndicatorCondition\GraphData.cpp
;	COMDAT ??1CSubGraphDataBase@@QAE@XZ
_TEXT	SEGMENT
__$EHRec$ = -12						; size = 12
??1CSubGraphDataBase@@QAE@XZ PROC			; CSubGraphDataBase::~CSubGraphDataBase, COMDAT
; _this$ = ecx

; 984  : {

  00000	55		 push	 ebp
  00001	8b ec		 mov	 ebp, esp
  00003	6a ff		 push	 -1
  00005	68 00 00 00 00	 push	 __ehhandler$??1CSubGraphDataBase@@QAE@XZ
  0000a	64 a1 00 00 00
	00		 mov	 eax, DWORD PTR fs:0
  00010	50		 push	 eax
  00011	56		 push	 esi
  00012	a1 00 00 00 00	 mov	 eax, DWORD PTR ___security_cookie
  00017	33 c5		 xor	 eax, ebp
  00019	50		 push	 eax
  0001a	8d 45 f4	 lea	 eax, DWORD PTR __$EHRec$[ebp]
  0001d	64 a3 00 00 00
	00		 mov	 DWORD PTR fs:0, eax
  00023	8b f1		 mov	 esi, ecx

; 985  : 	DeleteAllHorizontalLine();

  00025	e8 00 00 00 00	 call	 ?DeleteAllHorizontalLine@CSubGraphDataBase@@QAEXXZ ; CSubGraphDataBase::DeleteAllHorizontalLine
; File C:\Program Files (x86)\Microsoft Visual Studio\2019\Community\VC\Tools\MSVC\14.29.30133\atlmfc\include\afxtempl.h

; 358  : 	if (m_pData != NULL)

  0002a	8b 46 74	 mov	 eax, DWORD PTR [esi+116]
  0002d	c7 46 70 00 00
	00 00		 mov	 DWORD PTR [esi+112], OFFSET ??_7?$CArray@PAU_ST_HORZLINE@@PAU1@@@6B@
  00034	85 c0		 test	 eax, eax
  00036	74 10		 je	 SHORT $LN7@CSubGraphD

; 359  : 	{
; 360  : 		for( int i = 0; i < m_nSize; i++ )

  00038	83 7e 78 00	 cmp	 DWORD PTR [esi+120], 0
  0003c	0f 4f c0	 cmovg	 eax, eax

; 361  : 			(m_pData + i)->~TYPE();
; 362  : 		delete[] (BYTE*)m_pData;

  0003f	50		 push	 eax
  00040	e8 00 00 00 00	 call	 ??_V@YAXPAX@Z		; operator delete[]
  00045	83 c4 04	 add	 esp, 4
$LN7@CSubGraphD:
; File D:\git\src\IBK\IBK_DRFN\ProjSrc\SrcChartEx\ChartOCX\IndicatorCondition\GraphData.cpp

; 986  : }

  00048	8d 4e 68	 lea	 ecx, DWORD PTR [esi+104]
  0004b	ff 15 00 00 00
	00		 call	 DWORD PTR __imp_??1?$CStringT@DV?$StrTraitMFC_DLL@DV?$ChTraitsCRT@D@ATL@@@@@ATL@@QAE@XZ
  00051	8d 4e 20	 lea	 ecx, DWORD PTR [esi+32]
  00054	ff 15 00 00 00
	00		 call	 DWORD PTR __imp_??1?$CStringT@DV?$StrTraitMFC_DLL@DV?$ChTraitsCRT@D@ATL@@@@@ATL@@QAE@XZ
  0005a	8d 4e 1c	 lea	 ecx, DWORD PTR [esi+28]
  0005d	ff 15 00 00 00
	00		 call	 DWORD PTR __imp_??1?$CStringT@DV?$StrTraitMFC_DLL@DV?$ChTraitsCRT@D@ATL@@@@@ATL@@QAE@XZ
  00063	8b 4d f4	 mov	 ecx, DWORD PTR __$EHRec$[ebp]
  00066	64 89 0d 00 00
	00 00		 mov	 DWORD PTR fs:0, ecx
  0006d	59		 pop	 ecx
  0006e	5e		 pop	 esi
  0006f	8b e5		 mov	 esp, ebp
  00071	5d		 pop	 ebp
  00072	c3		 ret	 0
  00073	cc		 int	 3
  00074	cc		 int	 3
  00075	cc		 int	 3
  00076	cc		 int	 3
  00077	cc		 int	 3
_TEXT	ENDS
;	COMDAT text$x
text$x	SEGMENT
__ehhandler$??1CSubGraphDataBase@@QAE@XZ:
  00000	90		 npad	 1
  00001	90		 npad	 1
  00002	8b 54 24 08	 mov	 edx, DWORD PTR [esp+8]
  00006	8d 42 0c	 lea	 eax, DWORD PTR [edx+12]
  00009	8b 4a f8	 mov	 ecx, DWORD PTR [edx-8]
  0000c	33 c8		 xor	 ecx, eax
  0000e	e8 00 00 00 00	 call	 @__security_check_cookie@4
  00013	b8 00 00 00 00	 mov	 eax, OFFSET __ehfuncinfo$??1CSubGraphDataBase@@QAE@XZ
  00018	e9 00 00 00 00	 jmp	 ___CxxFrameHandler3
text$x	ENDS
??1CSubGraphDataBase@@QAE@XZ ENDP			; CSubGraphDataBase::~CSubGraphDataBase
; Function compile flags: /Ogtp
; File D:\git\src\IBK\IBK_DRFN\ProjSrc\SrcChartEx\ChartOCX\IndicatorCondition\GraphData.cpp
; File D:\git\src\IBK\IBK_DRFN\ProjSrc\SrcChartEx\ChartOCX\Include_Chart\BlockBaseData.h
; File D:\git\src\IBK\IBK_DRFN\ProjSrc\SrcChartEx\ChartOCX\IndicatorCondition\GraphData.cpp
; File C:\Program Files (x86)\Microsoft Visual Studio\2019\Community\VC\Tools\MSVC\14.29.30133\atlmfc\include\afxtempl.h
; File D:\git\src\IBK\IBK_DRFN\ProjSrc\SrcChartEx\ChartOCX\IndicatorCondition\GraphData.cpp
;	COMDAT ??0CSubGraphDataBase@@QAE@PBDPAUHWND__@@0@Z
_TEXT	SEGMENT
_this$ = -16						; size = 4
__$EHRec$ = -12						; size = 12
_p_szSubGraphData$ = 8					; size = 4
_p_hOcxWnd$ = 12					; size = 4
_p_szIndicatorName$ = 16				; size = 4
??0CSubGraphDataBase@@QAE@PBDPAUHWND__@@0@Z PROC	; CSubGraphDataBase::CSubGraphDataBase, COMDAT
; _this$ = ecx

; 979  : {

  00000	55		 push	 ebp
  00001	8b ec		 mov	 ebp, esp
  00003	6a ff		 push	 -1
  00005	68 00 00 00 00	 push	 __ehhandler$??0CSubGraphDataBase@@QAE@PBDPAUHWND__@@0@Z
  0000a	64 a1 00 00 00
	00		 mov	 eax, DWORD PTR fs:0
  00010	50		 push	 eax
  00011	51		 push	 ecx
  00012	56		 push	 esi
  00013	a1 00 00 00 00	 mov	 eax, DWORD PTR ___security_cookie
  00018	33 c5		 xor	 eax, ebp
  0001a	50		 push	 eax
  0001b	8d 45 f4	 lea	 eax, DWORD PTR __$EHRec$[ebp]
  0001e	64 a3 00 00 00
	00		 mov	 DWORD PTR fs:0, eax
  00024	8b f1		 mov	 esi, ecx
  00026	89 75 f0	 mov	 DWORD PTR _this$[ebp], esi

; 60   : {
; 61   : }
; 62   : 
; 63   : //  ,   - ojtaso (20071213)
; 64   : CPenThickness::CPenThickness(const int nThickness1, const int nThickness2, const int nThickness3, const int nBaseLineThickness, const bool bIsHightlight):
; 65   : 	m_nThickness1(nThickness1),
; 66   : 	m_nThickness2(nThickness2),
; 67   : 	m_nThickness3(nThickness3),
; 68   : 	m_bIsHightlight(bIsHightlight),
; 69   : 	//  ,   - ojtaso (20071213)
; 70   : 	m_nBaseLineThickness(nBaseLineThickness)
; 71   : {
; 72   : }
; 73   : 
; 74   : CPenThickness::CPenThickness(const CPenThickness& data):
; 75   : 	m_nThickness1(data.GetThickness1()),
; 76   : 	m_nThickness2(data.GetThickness2()),
; 77   : 	m_nThickness3(data.GetThickness3()),
; 78   : 	m_bIsHightlight(data.IsHightlight()),
; 79   : 	//  ,   - ojtaso (20071213)
; 80   : 	m_nBaseLineThickness(data.GetBaseLineThickness())
; 81   : {
; 82   : }
; 83   : 
; 84   : // public =====================================================================
; 85   : void CPenThickness::SetData( const char *p_szPenThickness)
; 86   : {
; 87   : 	m_nThickness1	= 1;
; 88   : 	m_nThickness2	= 1;
; 89   : 	m_nThickness3	= 1;
; 90   : 	m_bIsHightlight	= false;
; 91   : 	//  ,   - ojtaso (20071213)
; 92   : 	m_nBaseLineThickness = 1;
; 93   : 
; 94   : 	if( !p_szPenThickness) return;
; 95   : 	if( !*p_szPenThickness) return;
; 96   : 
; 97   : 	CString strPenThickness;
; 98   : 	int nPenThicknessLen = strlen( p_szPenThickness);
; 99   : 	char *szPenThickness = strPenThickness.GetBufferSetLength( nPenThicknessLen + 1);
; 100  : 	strcpy( szPenThickness, p_szPenThickness);
; 101  : 	if( szPenThickness[ nPenThicknessLen - 1] != ';')
; 102  : 	{
; 103  : 		szPenThickness[ nPenThicknessLen] = ';';
; 104  : 		szPenThickness[ nPenThicknessLen + 1] = '\0';
; 105  : 	}
; 106  : 
; 107  : 	char *szItem = szPenThickness;
; 108  : 	szPenThickness = strchr( szPenThickness, ';');
; 109  : 	if( szPenThickness) *szPenThickness++ = '\0';
; 110  : 	m_nThickness1 = atoi( szItem);
; 111  : 	if( !szPenThickness) return;
; 112  : 	if( !*szPenThickness) return;
; 113  : 
; 114  : 	szItem = szPenThickness;
; 115  : 	szPenThickness = strchr( szPenThickness, ';');
; 116  : 	if( szPenThickness) *szPenThickness++ = '\0';
; 117  : 	m_nThickness2 = atoi( szItem);
; 118  : 	if( !szPenThickness) return;
; 119  : 	if( !*szPenThickness) return;
; 120  : 
; 121  : 	szItem = szPenThickness;
; 122  : 	szPenThickness = strchr( szPenThickness, ';');
; 123  : 	if( szPenThickness) *szPenThickness++ = '\0';
; 124  : 	m_nThickness3 = atoi( szItem);
; 125  : 	if( !szPenThickness) return;
; 126  : 	if( !*szPenThickness) return;
; 127  : 
; 128  : 	szItem = szPenThickness;
; 129  : 	szPenThickness = strchr( szPenThickness, ';');
; 130  : 	if( szPenThickness) *szPenThickness++ = '\0';
; 131  : 	m_bIsHightlight = ( atoi( szItem) != 0);
; 132  : 	if( !szPenThickness) return;
; 133  : 	if( !*szPenThickness) return;
; 134  : 
; 135  : 	//  ,   - ojtaso (20071213)
; 136  : 	szItem = szPenThickness;
; 137  : 	szPenThickness = strchr( szPenThickness, ';');
; 138  : 	if( szPenThickness) *szPenThickness++ = '\0';
; 139  : 	m_nBaseLineThickness = atoi( szItem);
; 140  : 	if( !szPenThickness) return;
; 141  : 	if( !*szPenThickness) return;
; 142  : }
; 143  : 
; 144  : void CPenThickness::SetHightlight(const bool bIsHightlight)
; 145  : {
; 146  : 	m_bIsHightlight = bIsHightlight;
; 147  : }
; 148  : 
; 149  : void CPenThickness::SetThickness(const int nThickness1, const int nThickness2, const int nThickness3)
; 150  : {
; 151  : 	m_nThickness1 = nThickness1;
; 152  : 	m_nThickness2 = nThickness2;
; 153  : 	m_nThickness3 = nThickness3;
; 154  : }
; 155  : 
; 156  : void CPenThickness::SetThickness1(const int nThickness)
; 157  : {
; 158  : 	m_nThickness1 = nThickness;
; 159  : }
; 160  : 
; 161  : void CPenThickness::SetThickness2(const int nThickness)
; 162  : {
; 163  : 	m_nThickness2 = nThickness;
; 164  : }
; 165  : 
; 166  : void CPenThickness::SetThickness3(const int nThickness)
; 167  : {
; 168  : 	m_nThickness3 = nThickness;
; 169  : }
; 170  : 
; 171  : //  ,   - ojtaso (20071213)
; 172  : void CPenThickness::SetBaseLineThickness(const int nThickness)
; 173  : {
; 174  : 	m_nBaseLineThickness = nThickness;
; 175  : }
; 176  : 
; 177  : void CPenThickness::ReversedHightlight()
; 178  : {
; 179  : 	m_bIsHightlight = !m_bIsHightlight;
; 180  : }
; 181  : 
; 182  : // ----------------------------------------------------------------------------
; 183  : bool CPenThickness::IsHightlight() const
; 184  : {
; 185  : 	return m_bIsHightlight;
; 186  : }
; 187  : 
; 188  : int CPenThickness::GetThickness1() const
; 189  : {
; 190  : 	return m_nThickness1;
; 191  : }
; 192  : 
; 193  : int CPenThickness::GetThickness2() const
; 194  : {
; 195  : 	return m_nThickness2;
; 196  : }
; 197  : 
; 198  : int CPenThickness::GetThickness3() const
; 199  : {
; 200  : 	return m_nThickness3;
; 201  : }
; 202  : 
; 203  : int CPenThickness::GetDrawingThickness1() const
; 204  : {
; 205  : 	return GetDrawingThickness(m_nThickness1);
; 206  : }
; 207  : 
; 208  : int CPenThickness::GetDrawingThickness2() const
; 209  : {
; 210  : 	return GetDrawingThickness(m_nThickness2);
; 211  : }
; 212  : 
; 213  : int CPenThickness::GetDrawingThickness3() const
; 214  : {
; 215  : 	return GetDrawingThickness(m_nThickness3);
; 216  : }
; 217  : 
; 218  : //  ,   - ojtaso (20071213)
; 219  : int CPenThickness::GetBaseLineThickness() const
; 220  : {
; 221  : 	return m_nBaseLineThickness;
; 222  : }
; 223  : 
; 224  : void CPenThickness::GetStringData( CString &p_strPenThickness) const
; 225  : {
; 226  : 	//  ,   - ojtaso (20071213)
; 227  : 	char szThickness1[ 20], szThickness2[ 20], szThickness3[ 20], szBaseLineThickness[20];
; 228  : 	itoa( m_nThickness1, szThickness1, 10);
; 229  : 	itoa( m_nThickness2, szThickness2, 10);
; 230  : 	itoa( m_nThickness3, szThickness3, 10);
; 231  : 	//  ,   - ojtaso (20071213)
; 232  : 	itoa( m_nBaseLineThickness, szBaseLineThickness, 10);
; 233  : 
; 234  : 	int nThicknessLen1 = strlen( szThickness1); 
; 235  : 	int nThicknessLen2 = strlen( szThickness2); 
; 236  : 	int nThicknessLen3 = strlen( szThickness3); 
; 237  : 	//  ,   - ojtaso (20071213)
; 238  : 	int nBaseLineThicknessLen = strlen( szBaseLineThickness); 
; 239  : 
; 240  : 	int nPenThickness = 0;
; 241  : 	nPenThickness += nThicknessLen1;
; 242  : 	nPenThickness++;
; 243  : 	nPenThickness += nThicknessLen2;
; 244  : 	nPenThickness++;
; 245  : 	nPenThickness += nThicknessLen3;
; 246  : 	nPenThickness += 3;								// ;?;
; 247  : 	//  ,   - ojtaso (20071213)
; 248  : 	nPenThickness += nBaseLineThicknessLen;
; 249  : 	nPenThickness++;
; 250  : 
; 251  : 	char *szPenThickness = p_strPenThickness.GetBufferSetLength( nPenThickness);
; 252  : 
; 253  : 	strcpy( szPenThickness, szThickness1);
; 254  : 	szPenThickness += nThicknessLen1;
; 255  : 	*szPenThickness++ = ';';
; 256  : 
; 257  : 	strcpy( szPenThickness, szThickness2);
; 258  : 	szPenThickness += nThicknessLen2;
; 259  : 	*szPenThickness++ = ';';
; 260  : 
; 261  : 	strcpy( szPenThickness, szThickness3);
; 262  : 	szPenThickness += nThicknessLen3;
; 263  : 	*szPenThickness++ = ';';
; 264  : 
; 265  : 	*szPenThickness++ = ( m_bIsHightlight ? '1' : '0');
; 266  : 	*szPenThickness++ = ';';
; 267  : 
; 268  : 	//  ,   - ojtaso (20071213)
; 269  : 	strcpy( szPenThickness, szBaseLineThickness);
; 270  : 	szPenThickness += nBaseLineThicknessLen;
; 271  : 	*szPenThickness++ = ';';
; 272  : }
; 273  : 
; 274  : 
; 275  : // private ====================================================================
; 276  : int CPenThickness::GetDrawingThickness(const int orgPenThickness) const
; 277  : {
; 278  : 	if(!m_bIsHightlight)
; 279  : 		return orgPenThickness;
; 280  : 
; 281  : 	if(orgPenThickness < 3)
; 282  : 		return orgPenThickness *2;
; 283  : 	return orgPenThickness +2;
; 284  : }
; 285  : 
; 286  : 
; 287  : ///////////////////////////////////////////////////////////////////////////////
; 288  : // class CGraphDataDrawingData
; 289  : 
; 290  : CGraphDataDrawingData& CGraphDataDrawingData::operator=(const CGraphDataDrawingData& data)
; 291  : {
; 292  : 	if(this == &data)
; 293  : 		return *this;
; 294  : 
; 295  : 	m_bCalcRiseFallRate_LowHigh = data.DoesCalcRiseFallRate_LowHigh();
; 296  : 	m_bCalcRiseFallRate_LowCur = data.DoesCalcRiseFallRate_LowCur();
; 297  : 	m_bCalcRiseFallRate_HighCur = data.DoesCalcRiseFallRate_HighCur();
; 298  : 	m_bCalcRate_PrevCur = data.DoesCalcRate_PrevCur();
; 299  : 	m_nCalcRiseFallRate_CurData = data.GetCalcRiseFallRate_CurData();
; 300  : 	// (2009/9/12 - Seung-Won, Bae) for OHLC graph data
; 301  : 	m_bShowOHLC = data.GetShowOHLC();
; 302  : 
; 303  : 	return *this;
; 304  : }
; 305  : 
; 306  : bool CGraphDataDrawingData::operator==(const CGraphDataDrawingData& data)
; 307  : {
; 308  : 	if(this == &data)
; 309  : 		return true;
; 310  : 
; 311  : 	return (m_bCalcRiseFallRate_LowHigh == data.DoesCalcRiseFallRate_LowHigh() && 
; 312  : 		m_bCalcRiseFallRate_LowCur == data.DoesCalcRiseFallRate_LowCur() && 
; 313  : 		m_bCalcRiseFallRate_HighCur == data.DoesCalcRiseFallRate_HighCur() && 
; 314  : 		m_bCalcRate_PrevCur == data.DoesCalcRate_PrevCur() && 
; 315  : 		m_nCalcRiseFallRate_CurData == data.GetCalcRiseFallRate_CurData() &&
; 316  : 		// (2009/9/12 - Seung-Won, Bae) for OHLC graph data
; 317  : 		m_bShowOHLC == data.GetShowOHLC());
; 318  : }
; 319  : 
; 320  : CGraphDataDrawingData::CGraphDataDrawingData():
; 321  : 	m_bCalcRiseFallRate_LowHigh(false),
; 322  : 	m_bCalcRiseFallRate_LowCur(false),
; 323  : 	m_bCalcRiseFallRate_HighCur(false),
; 324  : 	m_bCalcRate_PrevCur(false),
; 325  : 	m_nCalcRiseFallRate_CurData(0),
; 326  : 	// (2009/9/12 - Seung-Won, Bae) for OHLC graph data
; 327  : 	m_bShowOHLC( FALSE)
; 328  : {
; 329  : }
; 330  : 
; 331  : CGraphDataDrawingData::CGraphDataDrawingData( const char *p_szGraphDataDrawingData):
; 332  : 	m_bCalcRiseFallRate_LowHigh(false),
; 333  : 	m_bCalcRiseFallRate_LowCur(false),
; 334  : 	m_bCalcRiseFallRate_HighCur(false),
; 335  : 	m_bCalcRate_PrevCur(false),
; 336  : 	m_nCalcRiseFallRate_CurData(0),
; 337  : 	// (2009/9/12 - Seung-Won, Bae) for OHLC graph data
; 338  : 	m_bShowOHLC( FALSE)
; 339  : {
; 340  : 	SetData( p_szGraphDataDrawingData);
; 341  : }
; 342  : 
; 343  : CGraphDataDrawingData::CGraphDataDrawingData(const bool bCalcRiseFallRate_LowHigh, const bool bCalcRiseFallRate_LowCur, 
; 344  : 	const bool bCalcRiseFallRate_HighCur, const bool bCalcRate_PrevCur, const int nCalcRiseFallRate_CurData, const BOOL p_bShowOHLC):
; 345  : 	m_bCalcRiseFallRate_LowHigh(bCalcRiseFallRate_LowHigh),
; 346  : 	m_bCalcRiseFallRate_LowCur(bCalcRiseFallRate_LowCur),
; 347  : 	m_bCalcRiseFallRate_HighCur(bCalcRiseFallRate_HighCur),
; 348  : 	m_bCalcRate_PrevCur(bCalcRate_PrevCur),
; 349  : 	m_nCalcRiseFallRate_CurData(nCalcRiseFallRate_CurData),
; 350  : 	// (2009/9/12 - Seung-Won, Bae) for OHLC graph data
; 351  : 	m_bShowOHLC( p_bShowOHLC)
; 352  : {
; 353  : }
; 354  : 
; 355  : CGraphDataDrawingData::CGraphDataDrawingData(const CGraphDataDrawingData& data):
; 356  : 	m_bCalcRiseFallRate_LowHigh(data.DoesCalcRiseFallRate_LowHigh()),
; 357  : 	m_bCalcRiseFallRate_LowCur(data.DoesCalcRiseFallRate_LowCur()),
; 358  : 	m_bCalcRiseFallRate_HighCur(data.DoesCalcRiseFallRate_HighCur()),
; 359  : 	m_bCalcRate_PrevCur(data.DoesCalcRate_PrevCur()),
; 360  : 	m_nCalcRiseFallRate_CurData(data.GetCalcRiseFallRate_CurData()),
; 361  : 	// (2009/9/12 - Seung-Won, Bae) for OHLC graph data
; 362  : 	m_bShowOHLC( data.GetShowOHLC())
; 363  : {
; 364  : }
; 365  : 
; 366  : // (2006/5/9 - Seung-Won, Bae) Clear Data
; 367  : void CGraphDataDrawingData::ClearData( void)
; 368  : {
; 369  : 	m_bCalcRiseFallRate_LowHigh	= false;
; 370  : 	m_bCalcRiseFallRate_LowCur	= false;
; 371  : 	m_bCalcRiseFallRate_HighCur	= false;
; 372  : 	m_bCalcRate_PrevCur			= false;
; 373  : 	m_nCalcRiseFallRate_CurData	= 0;
; 374  : 	// (2009/9/12 - Seung-Won, Bae) for OHLC graph data
; 375  : 	m_bShowOHLC					= FALSE;
; 376  : }
; 377  : 
; 378  : // public =====================================================================
; 379  : void CGraphDataDrawingData::SetDoesCalcRiseFallRate_LowHigh(const bool bCalcData)
; 380  : {
; 381  : 	m_bCalcRiseFallRate_LowHigh = bCalcData;
; 382  : }
; 383  : 
; 384  : void CGraphDataDrawingData::SetDoesCalcRiseFallRate_LowCur(const bool bCalcData)
; 385  : {
; 386  : 	m_bCalcRiseFallRate_LowCur = bCalcData;
; 387  : }
; 388  : 
; 389  : void CGraphDataDrawingData::SetDoesCalcRiseFallRate_HighCur(const bool bCalcData)
; 390  : {
; 391  : 	m_bCalcRiseFallRate_HighCur = bCalcData;
; 392  : }
; 393  : 
; 394  : void CGraphDataDrawingData::SetDoesCalcRate_PrevCur(const bool bCalcData)
; 395  : {
; 396  : 	m_bCalcRate_PrevCur = bCalcData;
; 397  : }
; 398  : 
; 399  : void CGraphDataDrawingData::SetCalcRiseFallRate_CurData(const int nCalcData)
; 400  : {
; 401  : 	m_nCalcRiseFallRate_CurData = nCalcData;
; 402  : }
; 403  : 
; 404  : // (2009/9/12 - Seung-Won, Bae) for OHLC graph data
; 405  : void CGraphDataDrawingData::SetShowOHLC( const BOOL p_bShowOHLC)
; 406  : {
; 407  : 	m_bShowOHLC	= p_bShowOHLC;
; 408  : }
; 409  : 
; 410  : // ----------------------------------------------------------------------------
; 411  : bool CGraphDataDrawingData::DoesAllDefaultData() const
; 412  : {
; 413  : 	return (m_bCalcRiseFallRate_LowHigh == false && 
; 414  : 		m_bCalcRiseFallRate_LowCur == false && 
; 415  : 		m_bCalcRiseFallRate_HighCur == false && 
; 416  : 		m_bCalcRate_PrevCur == false && 
; 417  : 		m_nCalcRiseFallRate_CurData == 0);
; 418  : }
; 419  : 
; 420  : bool CGraphDataDrawingData::DoesCalcRiseFallRate_LowHigh() const
; 421  : {
; 422  : 	return m_bCalcRiseFallRate_LowHigh;
; 423  : }
; 424  : 
; 425  : bool CGraphDataDrawingData::DoesCalcRiseFallRate_LowCur() const
; 426  : {
; 427  : 	return m_bCalcRiseFallRate_LowCur;
; 428  : }
; 429  : 
; 430  : bool CGraphDataDrawingData::DoesCalcRiseFallRate_HighCur() const
; 431  : {
; 432  : 	return m_bCalcRiseFallRate_HighCur;
; 433  : }
; 434  : 
; 435  : bool CGraphDataDrawingData::DoesCalcRate_PrevCur() const
; 436  : {
; 437  : 	return m_bCalcRate_PrevCur;
; 438  : }
; 439  : 
; 440  : int CGraphDataDrawingData::GetCalcRiseFallRate_CurData() const
; 441  : {
; 442  : 	return m_nCalcRiseFallRate_CurData;
; 443  : }
; 444  : 
; 445  : // (2009/9/12 - Seung-Won, Bae) for OHLC graph data
; 446  : BOOL CGraphDataDrawingData::GetShowOHLC( void) const
; 447  : {
; 448  : 	return m_bShowOHLC;
; 449  : }
; 450  : 
; 451  : // graph data 
; 452  : void CGraphDataDrawingData::GetData( CString &p_strGraphDataDrawingData) const
; 453  : {
; 454  : 	char *szGraphDataDrawingData = p_strGraphDataDrawingData.GetBufferSetLength( 12);	// Do not set 13, It has default NULL Terminator.
; 455  : 	szGraphDataDrawingData[  0] = ( m_bCalcRiseFallRate_LowHigh			? '1' : '0');
; 456  : 	szGraphDataDrawingData[  1] = ';';
; 457  : 	szGraphDataDrawingData[  2] = ( m_bCalcRiseFallRate_LowCur			? '1' : '0');
; 458  : 	szGraphDataDrawingData[  3] = ';';
; 459  : 	szGraphDataDrawingData[  4] = ( m_bCalcRiseFallRate_HighCur			? '1' : '0');
; 460  : 	szGraphDataDrawingData[  5] = ';';
; 461  : 	szGraphDataDrawingData[  6] = ( m_bCalcRate_PrevCur					? '1' : '0');
; 462  : 	szGraphDataDrawingData[  7] = ';';
; 463  : 	szGraphDataDrawingData[  8] = '0' + m_nCalcRiseFallRate_CurData;
; 464  : 	szGraphDataDrawingData[  9] = ';';
; 465  : 	szGraphDataDrawingData[ 10] = '0' + m_bShowOHLC;	// (2009/9/12 - Seung-Won, Bae) for OHLC graph data
; 466  : 	szGraphDataDrawingData[ 11] = ';';
; 467  : 	szGraphDataDrawingData[ 12] = '\0';
; 468  : }
; 469  : 
; 470  : 
; 471  : // private ====================================================================
; 472  : void CGraphDataDrawingData::SetData( const char *p_szGraphDataDrawingData)
; 473  : {
; 474  : 	if( !p_szGraphDataDrawingData) return;
; 475  : 	if( !*p_szGraphDataDrawingData) return;
; 476  : 
; 477  : 	CString strGraphDataDrawingData;
; 478  : 	int nGraphDataDrawingDataLen = strlen( p_szGraphDataDrawingData);
; 479  : 	char *szGraphDataDrawingData = strGraphDataDrawingData.GetBufferSetLength( nGraphDataDrawingDataLen + 1);
; 480  : 	strcpy( szGraphDataDrawingData, p_szGraphDataDrawingData);
; 481  : 	if( szGraphDataDrawingData[ nGraphDataDrawingDataLen - 1] != ';')
; 482  : 	{
; 483  : 		szGraphDataDrawingData[ nGraphDataDrawingDataLen] = ';';
; 484  : 		szGraphDataDrawingData[ nGraphDataDrawingDataLen + 1] = '\0';
; 485  : 	}
; 486  : 
; 487  : 	char *szItem = szGraphDataDrawingData;
; 488  : 	szGraphDataDrawingData = strchr( szGraphDataDrawingData, ';');
; 489  : 	if( szGraphDataDrawingData) *szGraphDataDrawingData++ = '\0';
; 490  : 	m_bCalcRiseFallRate_LowHigh = ( atoi( szItem) != 0);
; 491  : 	if( !szGraphDataDrawingData) return;
; 492  : 	if( !*szGraphDataDrawingData) return;
; 493  : 
; 494  : 	szItem = szGraphDataDrawingData;
; 495  : 	szGraphDataDrawingData = strchr( szGraphDataDrawingData, ';');
; 496  : 	if( szGraphDataDrawingData) *szGraphDataDrawingData++ = '\0';
; 497  : 	m_bCalcRiseFallRate_LowCur = ( atoi( szItem) != 0);
; 498  : 	if( !szGraphDataDrawingData) return;
; 499  : 	if( !*szGraphDataDrawingData) return;
; 500  : 
; 501  : 	szItem = szGraphDataDrawingData;
; 502  : 	szGraphDataDrawingData = strchr( szGraphDataDrawingData, ';');
; 503  : 	if( szGraphDataDrawingData) *szGraphDataDrawingData++ = '\0';
; 504  : 	m_bCalcRiseFallRate_HighCur = ( atoi( szItem) != 0);
; 505  : 	if( !szGraphDataDrawingData) return;
; 506  : 	if( !*szGraphDataDrawingData) return;
; 507  : 
; 508  : 	szItem = szGraphDataDrawingData;
; 509  : 	szGraphDataDrawingData = strchr( szGraphDataDrawingData, ';');
; 510  : 	if( szGraphDataDrawingData) *szGraphDataDrawingData++ = '\0';
; 511  : 	m_bCalcRate_PrevCur = ( atoi( szItem) != 0);
; 512  : 	if( !szGraphDataDrawingData) return;
; 513  : 	if( !*szGraphDataDrawingData) return;
; 514  : 
; 515  : 	szItem = szGraphDataDrawingData;
; 516  : 	szGraphDataDrawingData = strchr( szGraphDataDrawingData, ';');
; 517  : 	if( szGraphDataDrawingData) *szGraphDataDrawingData++ = '\0';
; 518  : 	m_nCalcRiseFallRate_CurData = atoi( szItem);
; 519  : 	if( !szGraphDataDrawingData) return;
; 520  : 	if( !*szGraphDataDrawingData) return;
; 521  : 
; 522  : 	// (2009/9/12 - Seung-Won, Bae) for OHLC graph data
; 523  : 	szItem = szGraphDataDrawingData;
; 524  : 	szGraphDataDrawingData = strchr( szGraphDataDrawingData, ';');
; 525  : 	if( szGraphDataDrawingData) *szGraphDataDrawingData++ = '\0';
; 526  : 	m_bShowOHLC = atoi( szItem);
; 527  : 	if( !szGraphDataDrawingData) return;
; 528  : 	if( !*szGraphDataDrawingData) return;
; 529  : }
; 530  : 
; 531  : ///////////////////////////////////////////////////////////////////////////////
; 532  : // class CSignalData
; 533  : 
; 534  : CSignalData& CSignalData::operator=(const CSignalData& data)
; 535  : {
; 536  : 	if(this == &data)
; 537  : 		return *this;
; 538  : 
; 539  : 	m_bIsUse = data.IsUse();
; 540  : 	m_bIsShow = data.IsShow();
; 541  : 	return *this;
; 542  : }
; 543  : 
; 544  : bool CSignalData::operator==(const CSignalData& data)
; 545  : {
; 546  : 	if(this == &data)
; 547  : 		return true;
; 548  : 
; 549  : 	return (m_bIsUse == data.IsUse() && m_bIsShow == data.IsShow());
; 550  : }
; 551  : 
; 552  : CSignalData::CSignalData(const bool bIsUse, const bool bIsShow):
; 553  : 	m_bIsUse(bIsUse),
; 554  : 	m_bIsShow(bIsShow)
; 555  : {
; 556  : 	// (2009/10/7 - Seung-Won, Bae) for Signal Arrow Drawing Cache.
; 557  : 	m_pSignalCache = NULL;
; 558  : }
; 559  : 
; 560  : CSignalData::CSignalData( const char *p_szSignalData)
; 561  : {
; 562  : 	SetData( p_szSignalData);
; 563  : 
; 564  : 	// (2009/10/7 - Seung-Won, Bae) for Signal Arrow Drawing Cache.
; 565  : 	m_pSignalCache = NULL;
; 566  : }
; 567  : 
; 568  : CSignalData::CSignalData(const CSignalData& data) : 
; 569  : 	m_bIsUse(data.IsUse()),
; 570  : 	m_bIsShow(data.IsShow())
; 571  : {
; 572  : 	// (2009/10/7 - Seung-Won, Bae) for Signal Arrow Drawing Cache.
; 573  : 	m_pSignalCache = NULL;
; 574  : }
; 575  : 
; 576  : // (2009/10/7 - Seung-Won, Bae) for Signal Arrow Drawing Cache.
; 577  : CSignalData::~CSignalData()
; 578  : {
; 579  : 	ClearCalcDataForDraw();
; 580  : }
; 581  : 
; 582  : // (2006/5/9 - Seung-Won, Bae) Clear Data
; 583  : void CSignalData::ClearData( void)
; 584  : {
; 585  : 	m_bIsUse	= false;
; 586  : 	m_bIsShow	= false;
; 587  : }
; 588  : 
; 589  : // public =====================================================================
; 590  : void CSignalData::SetUse(const bool bIsUse)
; 591  : {
; 592  : 	m_bIsUse = bIsUse;
; 593  : }
; 594  : 
; 595  : void CSignalData::SetShow(const bool bIsShow)
; 596  : {
; 597  : 	m_bIsShow = bIsShow;
; 598  : }
; 599  : 
; 600  : // ----------------------------------------------------------------------------
; 601  : bool CSignalData::IsUse() const
; 602  : {
; 603  : 	return m_bIsUse;
; 604  : }
; 605  : 
; 606  : bool CSignalData::IsShow() const
; 607  : {
; 608  : 	return m_bIsShow;
; 609  : }
; 610  : 
; 611  : bool CSignalData::IsDraw() const
; 612  : {
; 613  : 	if(!m_bIsUse)
; 614  : 		return false;
; 615  : 	return m_bIsShow;
; 616  : }
; 617  : 
; 618  : 
; 619  : // ----------------------------------------------------------------------------
; 620  : void CSignalData::GetData( CString &p_strSignalData) const
; 621  : {
; 622  : 	char *szSignalData = p_strSignalData.GetBufferSetLength( 4);	// Do not set 5, It has default NULL Terminator.
; 623  : 	szSignalData[ 0] = ( m_bIsUse	? '1' : '0');
; 624  : 	szSignalData[ 1] = ':';
; 625  : 	szSignalData[ 2] = ( m_bIsShow	? '1' : '0');
; 626  : 	szSignalData[ 3] = ';';
; 627  : 	szSignalData[ 4] = '\0';
; 628  : }
; 629  : 
; 630  : 
; 631  : // private ====================================================================
; 632  : void CSignalData::SetData( const char *p_szSignalData)
; 633  : {
; 634  : 	if( !p_szSignalData) return;
; 635  : 	if( !*p_szSignalData) return;
; 636  : 
; 637  : 	CString strSignalData;
; 638  : 	int nSignalDataLen = strlen( p_szSignalData);
; 639  : 	char *szSignalData = strSignalData.GetBufferSetLength( nSignalDataLen + 1);
; 640  : 	strcpy( szSignalData, p_szSignalData);
; 641  : 	if( szSignalData[ nSignalDataLen - 1] != ';')
; 642  : 	{
; 643  : 		szSignalData[ nSignalDataLen] = ';';
; 644  : 		szSignalData[ nSignalDataLen + 1] = '\0';
; 645  : 	}
; 646  : 
; 647  : 	// "signal:signal;"
; 648  : 	// signal
; 649  : 	char *szItem = szSignalData;
; 650  : 	szSignalData = strchr( szSignalData, ':');
; 651  : 	if( szSignalData) *szSignalData++ = '\0';
; 652  : 	m_bIsUse = ( atoi( szItem) != 0);
; 653  : 	if( !szSignalData) return;
; 654  : 	if( !*szSignalData) return;
; 655  : 	// signal
; 656  : 	szItem = szSignalData;
; 657  : 	szSignalData = strchr( szSignalData, ';');
; 658  : 	if( szSignalData) *szSignalData++ = '\0';
; 659  : 	m_bIsShow = ( atoi( szItem) != 0);
; 660  : 	if( !szSignalData) return;
; 661  : 	if( !*szSignalData) return;
; 662  : }
; 663  : 
; 664  : // (2009/10/7 - Seung-Won, Bae) for Signal Arrow Drawing Cache.
; 665  : void CSignalData::ClearCalcDataForDraw( void)
; 666  : {
; 667  : 	if( m_pSignalCache)
; 668  : 	{
; 669  : 		delete m_pSignalCache;
; 670  : 		m_pSignalCache = NULL;
; 671  : 	}
; 672  : }
; 673  : 
; 674  : 
; 675  : ///////////////////////////////////////////////////////////////////////////////
; 676  : // class CGraphData
; 677  : 
; 678  : CGraphData& CGraphData::operator=(const CGraphData& data)
; 679  : {
; 680  : 	if(this == &data) return *this;
; 681  : 
; 682  : 	m_strIndicatorName		= data.m_strIndicatorName;
; 683  : 	m_strGraphName			= data.m_strGraphName;
; 684  : 	m_strPacketName			= data.m_strPacketName;
; 685  : 	m_signalData			= data.m_signalData;
; 686  : 	m_graphDataDrawingData	= data.m_graphDataDrawingData;
; 687  : 
; 688  : 	return *this;
; 689  : }
; 690  : 
; 691  : // (2006/5/9 - Seung-Won, Bae) Clear Data
; 692  : void CGraphData::ClearData( void)
; 693  : {
; 694  : 	m_strIndicatorName.Empty();
; 695  : 	m_strGraphName.Empty();
; 696  : 	m_strPacketName.Empty();
; 697  : 	m_signalData.ClearData();
; 698  : 	m_graphDataDrawingData.ClearData();
; 699  : }
; 700  : 
; 701  : void CGraphData::SetPacketNames(const CString& packetNames)
; 702  : {
; 703  : 	if(m_strPacketName == packetNames)
; 704  : 		return;
; 705  : 
; 706  : 	m_strPacketName = packetNames;
; 707  : }
; 708  : 
; 709  : void CGraphData::SetSignalData(const CSignalData& signalData)
; 710  : {
; 711  : 	m_signalData = signalData;
; 712  : }
; 713  : 
; 714  : void CGraphData::SetSignalData(const bool bIsUse, const bool bIsShow)
; 715  : {
; 716  : 	m_signalData.SetUse(bIsUse);
; 717  : 	m_signalData.SetShow(bIsShow);
; 718  : }
; 719  : 
; 720  : void CGraphData::SetGraphDataDrawingData(const CGraphDataDrawingData& drawingData)
; 721  : {
; 722  : 	m_graphDataDrawingData = drawingData;
; 723  : }
; 724  : 
; 725  : CString CGraphData::GetPacketNames() const
; 726  : {
; 727  : 	return m_strPacketName;
; 728  : }
; 729  : 
; 730  : CSignalData CGraphData::GetSignalData() const
; 731  : {
; 732  : 	return m_signalData;
; 733  : }
; 734  : 
; 735  : CSignalData& CGraphData::GetSignalData()
; 736  : {
; 737  : 	return m_signalData;
; 738  : }
; 739  : 
; 740  : bool CGraphData::IsSignalUse() const
; 741  : {
; 742  : 	return m_signalData.IsUse();
; 743  : }
; 744  : 
; 745  : bool CGraphData::IsSignalShow() const
; 746  : {
; 747  : 	return m_signalData.IsShow();
; 748  : }
; 749  : 
; 750  : CGraphDataDrawingData CGraphData::GetGraphDataDrawingData() const
; 751  : {
; 752  : 	return m_graphDataDrawingData;
; 753  : }
; 754  : 
; 755  : CGraphDataDrawingData& CGraphData::GetGraphDataDrawingData()
; 756  : {
; 757  : 	return m_graphDataDrawingData;
; 758  : }
; 759  : 
; 760  : // (2006/9/6 - Seung-Won, Bae) Map Design Info.
; 761  : CGraphData::CGraphData( const char *p_szGraphData, HWND p_hOcxWnd)
; 762  : {
; 763  : 	if( !p_szGraphData) return;
; 764  : 	if( !*p_szGraphData) return;
; 765  : 
; 766  : 	// "index;;,,,;signal(:);
; 767  : 	//  ;;;;;
; 768  : 	//  ;;;(0:,1:/,2:(),());\r\n"
; 769  : 	CString strGraphData;
; 770  : 	int nGraphDataLen = strlen( p_szGraphData);
; 771  : 	char *szGraphData = strGraphData.GetBufferSetLength( nGraphDataLen);
; 772  : 	strcpy( szGraphData, p_szGraphData);
; 773  : 	// (2006/10/26 - Seung-Won, Bae) Skip Function Index;
; 774  : 	szGraphData = strchr( szGraphData, ';');	// m_nFunctionIndex = atoi(CDataConversion::GetStringData(strRealData, ";")); // function index
; 775  : 	if( !szGraphData) return;
; 776  : 	szGraphData++;
; 777  : 	// graph function name
; 778  : 	char *szItem = szGraphData;
; 779  : 	szGraphData = strchr( szGraphData, ';');	// m_nFunctionIndex = atoi(CDataConversion::GetStringData(strRealData, ";")); // function index
; 780  : 	if( szGraphData) *szGraphData++ = '\0';
; 781  : 	m_strIndicatorName = _MTOM2( szItem);
; 782  : 	if( !szGraphData) return;
; 783  : 	if( !*szGraphData) return;
; 784  : 	// (2006/11/29 - Seung-Won, Bae) Support Graph Name for Binding with Indicator Info.
; 785  : 	if( strncmp( szGraphData, "G:", 2)) m_strGraphName = m_strIndicatorName;
; 786  : 	else
; 787  : 	{
; 788  : 		szItem = szGraphData + 2;
; 789  : 		szGraphData = strchr( szGraphData, ';');
; 790  : 		if( szGraphData) *szGraphData++ = '\0';
; 791  : 		m_strGraphName = _MTOM2( szItem);		// (2008/2/22 - Seung-Won, Bae) The first default Graph Name is Indicator Name.
; 792  : 		if( !szGraphData) return;
; 793  : 		if( !*szGraphData) return;
; 794  : 	}
; 795  : 	// packet name
; 796  : 	szItem = szGraphData;
; 797  : 	szGraphData = strchr( szGraphData, ';');
; 798  : 	if( szGraphData) *szGraphData++ = '\0';
; 799  : 	_MHWND( p_hOcxWnd);
; 800  : 	if( strchr( szItem, '('))	m_strPacketName = _STOMS( szItem, ",(+)/23", 0);
; 801  : 	else						m_strPacketName = _STOMS( szItem, ",", 0);
; 802  : 	if( !szGraphData) return;
; 803  : 	if( !*szGraphData) return;
; 804  : 	// Signal
; 805  : 	szItem = szGraphData;
; 806  : 	szGraphData = strchr( szGraphData, ';');
; 807  : 	if( szGraphData) *szGraphData++ = '\0';
; 808  : 	m_signalData = CSignalData( szItem);
; 809  : 	if( !szGraphData) return;
; 810  : 	if( !*szGraphData) return;
; 811  : 	// Graph Drawing Data
; 812  : 	szItem = szGraphData;
; 813  : 	int i = 0;
; 814  : 	do
; 815  : 	{
; 816  : 		szGraphData = strchr( szGraphData, ';');
; 817  : 		if( !szGraphData) continue;
; 818  : 		i++;
; 819  : 		szGraphData++;
; 820  : 	} while( szGraphData && i < 6);
; 821  : 	if( szGraphData) *szGraphData = '\0';
; 822  : 	m_graphDataDrawingData = CGraphDataDrawingData( szItem);
; 823  : }
; 824  : 
; 825  : //   :  - ojtaso (20070507)
; 826  : void CGraphData::GetData( CString &p_strGraphData, LPCTSTR lpszRQ/* = NULL*/) const
; 827  : {
; 828  : 	CString strSingalData;
; 829  : 	m_signalData.GetData( strSingalData);
; 830  : 
; 831  : 	CString strGraphDataDrawingData;
; 832  : 	m_graphDataDrawingData.GetData( strGraphDataDrawingData);
; 833  : 	
; 834  : 	int nGraphDataLen = 0;									//
; 835  : 	nGraphDataLen++;										// ;
; 836  : 	nGraphDataLen += m_strIndicatorName.GetLength();		// Indicator Name
; 837  : 	nGraphDataLen += 3;										// ;G:
; 838  : 	nGraphDataLen += m_strGraphName.GetLength();			// Graph Name
; 839  : 	nGraphDataLen++;										// ;
; 840  : 	nGraphDataLen += m_strPacketName.GetLength();			// Packet Name
; 841  : 	nGraphDataLen++;										// ;
; 842  : 	nGraphDataLen += strSingalData.GetLength();				// Singal Data
; 843  : 	nGraphDataLen += strGraphDataDrawingData.GetLength();	// Graph Data Drawing Data
; 844  : 	//   :  - ojtaso (20070507)
; 845  : 	if(lpszRQ)
; 846  : 	{
; 847  : 		nGraphDataLen += 3;										// RQ:
; 848  : 		nGraphDataLen += ::lstrlen(lpszRQ);
; 849  : 	}
; 850  : 	nGraphDataLen += 2;										// \r\n (Do not add NULL Terminator size. It has that with default)
; 851  : 	char *szGraphData = p_strGraphData.GetBufferSetLength( nGraphDataLen);
; 852  : 
; 853  : 	*szGraphData++ = ';';
; 854  : 
; 855  : 	strcpy( szGraphData, m_strIndicatorName);
; 856  : 	szGraphData += m_strIndicatorName.GetLength();
; 857  : 
; 858  : 	*szGraphData++ = ';';
; 859  : 	*szGraphData++ = 'G';
; 860  : 	*szGraphData++ = ':';
; 861  : 
; 862  : 	strcpy( szGraphData, m_strGraphName);
; 863  : 	szGraphData += m_strGraphName.GetLength();
; 864  : 
; 865  : 	*szGraphData++ = ';';
; 866  : 
; 867  : 	strcpy( szGraphData, m_strPacketName);
; 868  : 	szGraphData += m_strPacketName.GetLength();
; 869  : 
; 870  : 	*szGraphData++ = ';';
; 871  : 
; 872  : 	strcpy( szGraphData, strSingalData);
; 873  : 	szGraphData += strSingalData.GetLength();
; 874  : 
; 875  : 	strcpy( szGraphData, strGraphDataDrawingData);
; 876  : 	szGraphData += strGraphDataDrawingData.GetLength();
; 877  : 
; 878  : 	//   :  - ojtaso (20070507)
; 879  : 	if(lpszRQ)
; 880  : 	{
; 881  : 		strcpy( szGraphData, _T("RQ:"));
; 882  : 		szGraphData += 3;
; 883  : 		strcpy( szGraphData, lpszRQ);
; 884  : 		szGraphData += ::lstrlen(lpszRQ);
; 885  : 	}
; 886  : 
; 887  : 	*szGraphData++ = '\r';
; 888  : 	*szGraphData++ = '\n';
; 889  : 	*szGraphData++ = '\0';
; 890  : }
; 891  : 
; 892  : ///////////////////////////////////////////////////////////////////////////////
; 893  : // class CSubGraphDataBase
; 894  : 
; 895  : CSubGraphDataBase& CSubGraphDataBase::operator=(const CSubGraphDataBase& data)
; 896  : {
; 897  : 	if(this == &data)
; 898  : 		return *this;
; 899  : 
; 900  : 	m_nTitleEndPosition = data.GetTitleEndPosition();
; 901  : 	m_nTitleEndLine = data.GetTitleEndLine();
; 902  : 	m_TYPEType = data.GetType();
; 903  : 	m_nStyle = data.GetStyle();
; 904  : 	m_nDrawStyle = data.GetDrawStyle();
; 905  : 	m_strName = data.GetName();
; 906  : 	m_strTitle = data.GetTitle();
; 907  : 	m_bHiding = data.m_bHiding;
; 908  : 	m_clrColor = data.GetColor();
; 909  : 	m_penThickness = data.GetPenThickness();
; 910  : 	//   :  - ojtaso (20070625)
; 911  : 	m_strItemName = data.GetItemName();
; 912  : 	m_nSubGraphIndex = data.GetSubGraphIndex();	//     - ojtaso (20071116)
; 913  : 	m_nPaintStyle = data.GetPaintStyle();		// Singbar Graph    - ojtaso (20071121)
; 914  : 	m_nBaseLineStyle = data.GetBaseLineDrawStyle();		//  ,   - ojtaso (20071213)
; 915  : 	
; 916  : 	// KTB  - ojtaso (20091019)
; 917  : 	const CArray<ST_HORZLINE*, ST_HORZLINE*>& arrInfo = data.GetHorizontalLine();
; 918  : 	m_arrHorzLine.Copy(arrInfo);	
; 919  : 	return *this;
; 920  : }
; 921  : 
; 922  : CSubGraphDataBase::CSubGraphDataBase():
; 923  : 	m_nTitleEndPosition(0),
; 924  : 	m_nTitleEndLine(1), 	//    :  - ojtaso (20070227)
; 925  : 	m_TYPEType(CGraphBaseData::GTNONE),
; 926  : 	m_bHiding(true)
; 927  : {
; 928  : }
; 929  : 
; 930  : // Singbar Graph    - ojtaso (20071121)
; 931  : //  ,   - ojtaso (20071213)
; 932  : CSubGraphDataBase::CSubGraphDataBase(const CGraphBaseData::GRAPHTYPE type, const CGraphStyle& style, const CGraphDrawStyle& drawStyle, const CString& name, const CString& title, const bool hiding, const CGraphColor& color, const CPenThickness& penThickness, const CGraphPaintStyle& paintStyle, const CGraphBaseLineStyle& baseLineStyle):
; 933  : 	m_nTitleEndPosition(0),
; 934  : 	m_nTitleEndLine(1), 	//    :  - ojtaso (20070227)
; 935  : 	m_TYPEType(type),
; 936  : 	m_nStyle(style),
; 937  : 	m_nDrawStyle(drawStyle),
; 938  : 	m_strName(name),
; 939  : 	m_strTitle(title),
; 940  : 	m_bHiding(hiding),
; 941  : 	m_clrColor(color),
; 942  : 	m_penThickness(penThickness),
; 943  : 	m_nSubGraphIndex(-1),	//     - ojtaso (20071116)
; 944  : 	m_nPaintStyle(paintStyle),		// Singbar Graph    - ojtaso (20071121)
; 945  : 	m_nBaseLineStyle(baseLineStyle)		//  ,   - ojtaso (20071213)
; 946  : {
; 947  : 	//   :  - ojtaso (20070625)
; 948  : 	m_strItemName.Empty();
; 949  : }
; 950  : 
; 951  : CSubGraphDataBase::CSubGraphDataBase(const CSubGraphDataBase& data):
; 952  : 	m_nTitleEndPosition(data.GetTitleEndPosition()),
; 953  : 	m_nTitleEndLine(data.GetTitleEndLine()), 	//    :  - ojtaso (20070227)
; 954  : 	m_TYPEType(data.GetType()),
; 955  : 	m_nStyle(data.GetStyle()),
; 956  : 	m_nDrawStyle(data.GetDrawStyle()),
; 957  : 	m_strName(data.GetName()),
; 958  : 	m_strTitle(data.GetTitle()),
; 959  : 	m_bHiding( data.m_bHiding),
; 960  : 	m_clrColor(data.GetColor()),
; 961  : 	m_penThickness(data.GetPenThickness()),
; 962  : 	//   :  - ojtaso (20070625)
; 963  : 	m_strItemName(data.GetItemName()),
; 964  : 	m_nSubGraphIndex(data.GetSubGraphIndex()),	//     - ojtaso (20071116)
; 965  : 	m_nPaintStyle(data.GetPaintStyle()),		// Singbar Graph    - ojtaso (20071121)
; 966  : 	m_nBaseLineStyle(data.GetBaseLineDrawStyle())	//  ,   - ojtaso (20071213)
; 967  : {
; 968  : 	// KTB  - ojtaso (20091019)
; 969  : 	const CArray<ST_HORZLINE*, ST_HORZLINE*>& arrInfo = data.GetHorizontalLine();
; 970  : 	m_arrHorzLine.Copy(arrInfo);	
; 971  : }
; 972  : 
; 973  : CSubGraphDataBase::CSubGraphDataBase( const char *p_szSubGraphData, HWND p_hOcxWnd, const char *p_szIndicatorName):
; 974  : 	m_nTitleEndPosition(0),

  00029	c7 06 00 00 00
	00		 mov	 DWORD PTR [esi], 0

; 979  : {

  0002f	8d 4e 1c	 lea	 ecx, DWORD PTR [esi+28]
  00032	c7 46 04 01 00
	00 00		 mov	 DWORD PTR [esi+4], 1
  00039	c7 46 08 ff ff
	ff ff		 mov	 DWORD PTR [esi+8], -1
; File D:\git\src\IBK\IBK_DRFN\ProjSrc\SrcChartEx\ChartOCX\Include_Chart\BlockBaseData.h

; 42   : 	CGraphStyle() { m_nStyle = -1; };

  00040	c7 46 0c ff ff
	ff ff		 mov	 DWORD PTR [esi+12], -1

; 65   : 	CGraphDrawStyle() { m_nStyle = -1; };

  00047	c7 46 10 ff ff
	ff ff		 mov	 DWORD PTR [esi+16], -1

; 87   : 	CGraphPaintStyle() { m_nStyle = 1; };

  0004e	c7 46 14 01 00
	00 00		 mov	 DWORD PTR [esi+20], 1

; 103  : 	CGraphBaseLineStyle() { m_nStyle = 0; }

  00055	c7 46 18 00 00
	00 00		 mov	 DWORD PTR [esi+24], 0
; File D:\git\src\IBK\IBK_DRFN\ProjSrc\SrcChartEx\ChartOCX\IndicatorCondition\GraphData.cpp

; 979  : {

  0005c	ff 15 00 00 00
	00		 call	 DWORD PTR __imp_??0?$CStringT@DV?$StrTraitMFC_DLL@DV?$ChTraitsCRT@D@ATL@@@@@ATL@@QAE@XZ
  00062	8d 4e 20	 lea	 ecx, DWORD PTR [esi+32]
  00065	c7 45 fc 00 00
	00 00		 mov	 DWORD PTR __$EHRec$[ebp+8], 0
  0006c	ff 15 00 00 00
	00		 call	 DWORD PTR __imp_??0?$CStringT@DV?$StrTraitMFC_DLL@DV?$ChTraitsCRT@D@ATL@@@@@ATL@@QAE@XZ
  00072	8d 4e 28	 lea	 ecx, DWORD PTR [esi+40]
  00075	c6 45 fc 01	 mov	 BYTE PTR __$EHRec$[ebp+8], 1
  00079	c6 46 24 01	 mov	 BYTE PTR [esi+36], 1
  0007d	e8 00 00 00 00	 call	 ??0CGraphColor@@QAE@XZ	; CGraphColor::CGraphColor
  00082	8d 4e 68	 lea	 ecx, DWORD PTR [esi+104]

; 57   : 	m_bIsHightlight(false),

  00085	c6 46 54 00	 mov	 BYTE PTR [esi+84], 0

; 54   : 	m_nThickness1(1),

  00089	c7 46 58 01 00
	00 00		 mov	 DWORD PTR [esi+88], 1

; 55   : 	m_nThickness2(1),

  00090	c7 46 5c 01 00
	00 00		 mov	 DWORD PTR [esi+92], 1

; 56   : 	m_nThickness3(1),

  00097	c7 46 60 01 00
	00 00		 mov	 DWORD PTR [esi+96], 1

; 58   : 	//  ,   - ojtaso (20071213)
; 59   : 	m_nBaseLineThickness(1)

  0009e	c7 46 64 01 00
	00 00		 mov	 DWORD PTR [esi+100], 1

; 979  : {

  000a5	ff 15 00 00 00
	00		 call	 DWORD PTR __imp_??0?$CStringT@DV?$StrTraitMFC_DLL@DV?$ChTraitsCRT@D@ATL@@@@@ATL@@QAE@XZ

; 975  : 	m_nTitleEndLine(1), 	//    :  - ojtaso (20070227)
; 976  : 	m_TYPEType(CGraphBaseData::GTNONE),
; 977  : 	m_bHiding(true),
; 978  : 	m_nSubGraphIndex(-1)	//     - ojtaso (20071116)

  000ab	c7 46 6c ff ff
	ff ff		 mov	 DWORD PTR [esi+108], -1
; File C:\Program Files (x86)\Microsoft Visual Studio\2019\Community\VC\Tools\MSVC\14.29.30133\atlmfc\include\afxtempl.h

; 348  : {

  000b2	c7 46 70 00 00
	00 00		 mov	 DWORD PTR [esi+112], OFFSET ??_7?$CArray@PAU_ST_HORZLINE@@PAU1@@@6B@

; 349  : 	m_pData = NULL;

  000b9	c7 46 74 00 00
	00 00		 mov	 DWORD PTR [esi+116], 0

; 350  : 	m_nSize = m_nMaxSize = m_nGrowBy = 0;

  000c0	c7 86 80 00 00
	00 00 00 00 00	 mov	 DWORD PTR [esi+128], 0
  000ca	c7 46 7c 00 00
	00 00		 mov	 DWORD PTR [esi+124], 0
  000d1	c7 46 78 00 00
	00 00		 mov	 DWORD PTR [esi+120], 0
; File D:\git\src\IBK\IBK_DRFN\ProjSrc\SrcChartEx\ChartOCX\IndicatorCondition\GraphData.cpp

; 980  : 	SetData( p_szSubGraphData, p_hOcxWnd, p_szIndicatorName);

  000d8	ff 75 10	 push	 DWORD PTR _p_szIndicatorName$[ebp]
  000db	8b ce		 mov	 ecx, esi
  000dd	c6 45 fc 03	 mov	 BYTE PTR __$EHRec$[ebp+8], 3
  000e1	ff 75 0c	 push	 DWORD PTR _p_hOcxWnd$[ebp]
  000e4	ff 75 08	 push	 DWORD PTR _p_szSubGraphData$[ebp]
  000e7	e8 00 00 00 00	 call	 ?SetData@CSubGraphDataBase@@QAEXPBDPAUHWND__@@0@Z ; CSubGraphDataBase::SetData

; 981  : }

  000ec	8b c6		 mov	 eax, esi
  000ee	8b 4d f4	 mov	 ecx, DWORD PTR __$EHRec$[ebp]
  000f1	64 89 0d 00 00
	00 00		 mov	 DWORD PTR fs:0, ecx
  000f8	59		 pop	 ecx
  000f9	5e		 pop	 esi
  000fa	8b e5		 mov	 esp, ebp
  000fc	5d		 pop	 ebp
  000fd	c2 0c 00	 ret	 12			; 0000000cH
_TEXT	ENDS
;	COMDAT text$x
text$x	SEGMENT
__unwindfunclet$??0CSubGraphDataBase@@QAE@PBDPAUHWND__@@0@Z$0:
  00000	8b 4d f0	 mov	 ecx, DWORD PTR _this$[ebp]
  00003	83 c1 1c	 add	 ecx, 28			; 0000001cH
  00006	ff 25 00 00 00
	00		 jmp	 DWORD PTR __imp_??1?$CStringT@DV?$StrTraitMFC_DLL@DV?$ChTraitsCRT@D@ATL@@@@@ATL@@QAE@XZ
__unwindfunclet$??0CSubGraphDataBase@@QAE@PBDPAUHWND__@@0@Z$1:
  0000c	8b 4d f0	 mov	 ecx, DWORD PTR _this$[ebp]
  0000f	83 c1 20	 add	 ecx, 32			; 00000020H
  00012	ff 25 00 00 00
	00		 jmp	 DWORD PTR __imp_??1?$CStringT@DV?$StrTraitMFC_DLL@DV?$ChTraitsCRT@D@ATL@@@@@ATL@@QAE@XZ
__unwindfunclet$??0CSubGraphDataBase@@QAE@PBDPAUHWND__@@0@Z$2:
  00018	8b 4d f0	 mov	 ecx, DWORD PTR _this$[ebp]
  0001b	83 c1 68	 add	 ecx, 104		; 00000068H
  0001e	ff 25 00 00 00
	00		 jmp	 DWORD PTR __imp_??1?$CStringT@DV?$StrTraitMFC_DLL@DV?$ChTraitsCRT@D@ATL@@@@@ATL@@QAE@XZ
__unwindfunclet$??0CSubGraphDataBase@@QAE@PBDPAUHWND__@@0@Z$3:
  00024	8b 4d f0	 mov	 ecx, DWORD PTR _this$[ebp]
  00027	83 c1 70	 add	 ecx, 112		; 00000070H
  0002a	e9 00 00 00 00	 jmp	 ??1?$CArray@PAU_ST_HORZLINE@@PAU1@@@UAE@XZ ; CArray<_ST_HORZLINE *,_ST_HORZLINE *>::~CArray<_ST_HORZLINE *,_ST_HORZLINE *>
  0002f	cc		 int	 3
  00030	cc		 int	 3
  00031	cc		 int	 3
  00032	cc		 int	 3
  00033	cc		 int	 3
__ehhandler$??0CSubGraphDataBase@@QAE@PBDPAUHWND__@@0@Z:
  00034	90		 npad	 1
  00035	90		 npad	 1
  00036	8b 54 24 08	 mov	 edx, DWORD PTR [esp+8]
  0003a	8d 42 0c	 lea	 eax, DWORD PTR [edx+12]
  0003d	8b 4a f4	 mov	 ecx, DWORD PTR [edx-12]
  00040	33 c8		 xor	 ecx, eax
  00042	e8 00 00 00 00	 call	 @__security_check_cookie@4
  00047	b8 00 00 00 00	 mov	 eax, OFFSET __ehfuncinfo$??0CSubGraphDataBase@@QAE@PBDPAUHWND__@@0@Z
  0004c	e9 00 00 00 00	 jmp	 ___CxxFrameHandler3
text$x	ENDS
??0CSubGraphDataBase@@QAE@PBDPAUHWND__@@0@Z ENDP	; CSubGraphDataBase::CSubGraphDataBase
; Function compile flags: /Ogtp
; File D:\git\src\IBK\IBK_DRFN\ProjSrc\SrcChartEx\ChartOCX\IndicatorCondition\GraphData.cpp
; File C:\Program Files (x86)\Microsoft Visual Studio\2019\Community\VC\Tools\MSVC\14.29.30133\atlmfc\include\afxtempl.h
; File D:\git\src\IBK\IBK_DRFN\ProjSrc\SrcChartEx\ChartOCX\IndicatorCondition\GraphData.cpp
;	COMDAT ??0CSubGraphDataBase@@QAE@ABV0@@Z
_TEXT	SEGMENT
_this$ = -16						; size = 4
__$EHRec$ = -12						; size = 12
___$ReturnUdt$ = 8					; size = 4
___$ReturnUdt$ = 8					; size = 4
___$ReturnUdt$ = 8					; size = 4
_data$ = 8						; size = 4
??0CSubGraphDataBase@@QAE@ABV0@@Z PROC			; CSubGraphDataBase::CSubGraphDataBase, COMDAT
; _this$ = ecx

; 967  : {

  00000	55		 push	 ebp
  00001	8b ec		 mov	 ebp, esp
  00003	6a ff		 push	 -1
  00005	68 00 00 00 00	 push	 __ehhandler$??0CSubGraphDataBase@@QAE@ABV0@@Z
  0000a	64 a1 00 00 00
	00		 mov	 eax, DWORD PTR fs:0
  00010	50		 push	 eax
  00011	51		 push	 ecx
  00012	56		 push	 esi
  00013	57		 push	 edi
  00014	a1 00 00 00 00	 mov	 eax, DWORD PTR ___security_cookie
  00019	33 c5		 xor	 eax, ebp
  0001b	50		 push	 eax
  0001c	8d 45 f4	 lea	 eax, DWORD PTR __$EHRec$[ebp]
  0001f	64 a3 00 00 00
	00		 mov	 DWORD PTR fs:0, eax
  00025	8b f9		 mov	 edi, ecx
  00027	89 7d f0	 mov	 DWORD PTR _this$[ebp], edi

; 81   : {
; 82   : }
; 83   : 
; 84   : // public =====================================================================
; 85   : void CPenThickness::SetData( const char *p_szPenThickness)
; 86   : {
; 87   : 	m_nThickness1	= 1;
; 88   : 	m_nThickness2	= 1;
; 89   : 	m_nThickness3	= 1;
; 90   : 	m_bIsHightlight	= false;
; 91   : 	//  ,   - ojtaso (20071213)
; 92   : 	m_nBaseLineThickness = 1;
; 93   : 
; 94   : 	if( !p_szPenThickness) return;
; 95   : 	if( !*p_szPenThickness) return;
; 96   : 
; 97   : 	CString strPenThickness;
; 98   : 	int nPenThicknessLen = strlen( p_szPenThickness);
; 99   : 	char *szPenThickness = strPenThickness.GetBufferSetLength( nPenThicknessLen + 1);
; 100  : 	strcpy( szPenThickness, p_szPenThickness);
; 101  : 	if( szPenThickness[ nPenThicknessLen - 1] != ';')
; 102  : 	{
; 103  : 		szPenThickness[ nPenThicknessLen] = ';';
; 104  : 		szPenThickness[ nPenThicknessLen + 1] = '\0';
; 105  : 	}
; 106  : 
; 107  : 	char *szItem = szPenThickness;
; 108  : 	szPenThickness = strchr( szPenThickness, ';');
; 109  : 	if( szPenThickness) *szPenThickness++ = '\0';
; 110  : 	m_nThickness1 = atoi( szItem);
; 111  : 	if( !szPenThickness) return;
; 112  : 	if( !*szPenThickness) return;
; 113  : 
; 114  : 	szItem = szPenThickness;
; 115  : 	szPenThickness = strchr( szPenThickness, ';');
; 116  : 	if( szPenThickness) *szPenThickness++ = '\0';
; 117  : 	m_nThickness2 = atoi( szItem);
; 118  : 	if( !szPenThickness) return;
; 119  : 	if( !*szPenThickness) return;
; 120  : 
; 121  : 	szItem = szPenThickness;
; 122  : 	szPenThickness = strchr( szPenThickness, ';');
; 123  : 	if( szPenThickness) *szPenThickness++ = '\0';
; 124  : 	m_nThickness3 = atoi( szItem);
; 125  : 	if( !szPenThickness) return;
; 126  : 	if( !*szPenThickness) return;
; 127  : 
; 128  : 	szItem = szPenThickness;
; 129  : 	szPenThickness = strchr( szPenThickness, ';');
; 130  : 	if( szPenThickness) *szPenThickness++ = '\0';
; 131  : 	m_bIsHightlight = ( atoi( szItem) != 0);
; 132  : 	if( !szPenThickness) return;
; 133  : 	if( !*szPenThickness) return;
; 134  : 
; 135  : 	//  ,   - ojtaso (20071213)
; 136  : 	szItem = szPenThickness;
; 137  : 	szPenThickness = strchr( szPenThickness, ';');
; 138  : 	if( szPenThickness) *szPenThickness++ = '\0';
; 139  : 	m_nBaseLineThickness = atoi( szItem);
; 140  : 	if( !szPenThickness) return;
; 141  : 	if( !*szPenThickness) return;
; 142  : }
; 143  : 
; 144  : void CPenThickness::SetHightlight(const bool bIsHightlight)
; 145  : {
; 146  : 	m_bIsHightlight = bIsHightlight;
; 147  : }
; 148  : 
; 149  : void CPenThickness::SetThickness(const int nThickness1, const int nThickness2, const int nThickness3)
; 150  : {
; 151  : 	m_nThickness1 = nThickness1;
; 152  : 	m_nThickness2 = nThickness2;
; 153  : 	m_nThickness3 = nThickness3;
; 154  : }
; 155  : 
; 156  : void CPenThickness::SetThickness1(const int nThickness)
; 157  : {
; 158  : 	m_nThickness1 = nThickness;
; 159  : }
; 160  : 
; 161  : void CPenThickness::SetThickness2(const int nThickness)
; 162  : {
; 163  : 	m_nThickness2 = nThickness;
; 164  : }
; 165  : 
; 166  : void CPenThickness::SetThickness3(const int nThickness)
; 167  : {
; 168  : 	m_nThickness3 = nThickness;
; 169  : }
; 170  : 
; 171  : //  ,   - ojtaso (20071213)
; 172  : void CPenThickness::SetBaseLineThickness(const int nThickness)
; 173  : {
; 174  : 	m_nBaseLineThickness = nThickness;
; 175  : }
; 176  : 
; 177  : void CPenThickness::ReversedHightlight()
; 178  : {
; 179  : 	m_bIsHightlight = !m_bIsHightlight;
; 180  : }
; 181  : 
; 182  : // ----------------------------------------------------------------------------
; 183  : bool CPenThickness::IsHightlight() const
; 184  : {
; 185  : 	return m_bIsHightlight;
; 186  : }
; 187  : 
; 188  : int CPenThickness::GetThickness1() const
; 189  : {
; 190  : 	return m_nThickness1;
; 191  : }
; 192  : 
; 193  : int CPenThickness::GetThickness2() const
; 194  : {
; 195  : 	return m_nThickness2;
; 196  : }
; 197  : 
; 198  : int CPenThickness::GetThickness3() const
; 199  : {
; 200  : 	return m_nThickness3;
; 201  : }
; 202  : 
; 203  : int CPenThickness::GetDrawingThickness1() const
; 204  : {
; 205  : 	return GetDrawingThickness(m_nThickness1);
; 206  : }
; 207  : 
; 208  : int CPenThickness::GetDrawingThickness2() const
; 209  : {
; 210  : 	return GetDrawingThickness(m_nThickness2);
; 211  : }
; 212  : 
; 213  : int CPenThickness::GetDrawingThickness3() const
; 214  : {
; 215  : 	return GetDrawingThickness(m_nThickness3);
; 216  : }
; 217  : 
; 218  : //  ,   - ojtaso (20071213)
; 219  : int CPenThickness::GetBaseLineThickness() const
; 220  : {
; 221  : 	return m_nBaseLineThickness;
; 222  : }
; 223  : 
; 224  : void CPenThickness::GetStringData( CString &p_strPenThickness) const
; 225  : {
; 226  : 	//  ,   - ojtaso (20071213)
; 227  : 	char szThickness1[ 20], szThickness2[ 20], szThickness3[ 20], szBaseLineThickness[20];
; 228  : 	itoa( m_nThickness1, szThickness1, 10);
; 229  : 	itoa( m_nThickness2, szThickness2, 10);
; 230  : 	itoa( m_nThickness3, szThickness3, 10);
; 231  : 	//  ,   - ojtaso (20071213)
; 232  : 	itoa( m_nBaseLineThickness, szBaseLineThickness, 10);
; 233  : 
; 234  : 	int nThicknessLen1 = strlen( szThickness1); 
; 235  : 	int nThicknessLen2 = strlen( szThickness2); 
; 236  : 	int nThicknessLen3 = strlen( szThickness3); 
; 237  : 	//  ,   - ojtaso (20071213)
; 238  : 	int nBaseLineThicknessLen = strlen( szBaseLineThickness); 
; 239  : 
; 240  : 	int nPenThickness = 0;
; 241  : 	nPenThickness += nThicknessLen1;
; 242  : 	nPenThickness++;
; 243  : 	nPenThickness += nThicknessLen2;
; 244  : 	nPenThickness++;
; 245  : 	nPenThickness += nThicknessLen3;
; 246  : 	nPenThickness += 3;								// ;?;
; 247  : 	//  ,   - ojtaso (20071213)
; 248  : 	nPenThickness += nBaseLineThicknessLen;
; 249  : 	nPenThickness++;
; 250  : 
; 251  : 	char *szPenThickness = p_strPenThickness.GetBufferSetLength( nPenThickness);
; 252  : 
; 253  : 	strcpy( szPenThickness, szThickness1);
; 254  : 	szPenThickness += nThicknessLen1;
; 255  : 	*szPenThickness++ = ';';
; 256  : 
; 257  : 	strcpy( szPenThickness, szThickness2);
; 258  : 	szPenThickness += nThicknessLen2;
; 259  : 	*szPenThickness++ = ';';
; 260  : 
; 261  : 	strcpy( szPenThickness, szThickness3);
; 262  : 	szPenThickness += nThicknessLen3;
; 263  : 	*szPenThickness++ = ';';
; 264  : 
; 265  : 	*szPenThickness++ = ( m_bIsHightlight ? '1' : '0');
; 266  : 	*szPenThickness++ = ';';
; 267  : 
; 268  : 	//  ,   - ojtaso (20071213)
; 269  : 	strcpy( szPenThickness, szBaseLineThickness);
; 270  : 	szPenThickness += nBaseLineThicknessLen;
; 271  : 	*szPenThickness++ = ';';
; 272  : }
; 273  : 
; 274  : 
; 275  : // private ====================================================================
; 276  : int CPenThickness::GetDrawingThickness(const int orgPenThickness) const
; 277  : {
; 278  : 	if(!m_bIsHightlight)
; 279  : 		return orgPenThickness;
; 280  : 
; 281  : 	if(orgPenThickness < 3)
; 282  : 		return orgPenThickness *2;
; 283  : 	return orgPenThickness +2;
; 284  : }
; 285  : 
; 286  : 
; 287  : ///////////////////////////////////////////////////////////////////////////////
; 288  : // class CGraphDataDrawingData
; 289  : 
; 290  : CGraphDataDrawingData& CGraphDataDrawingData::operator=(const CGraphDataDrawingData& data)
; 291  : {
; 292  : 	if(this == &data)
; 293  : 		return *this;
; 294  : 
; 295  : 	m_bCalcRiseFallRate_LowHigh = data.DoesCalcRiseFallRate_LowHigh();
; 296  : 	m_bCalcRiseFallRate_LowCur = data.DoesCalcRiseFallRate_LowCur();
; 297  : 	m_bCalcRiseFallRate_HighCur = data.DoesCalcRiseFallRate_HighCur();
; 298  : 	m_bCalcRate_PrevCur = data.DoesCalcRate_PrevCur();
; 299  : 	m_nCalcRiseFallRate_CurData = data.GetCalcRiseFallRate_CurData();
; 300  : 	// (2009/9/12 - Seung-Won, Bae) for OHLC graph data
; 301  : 	m_bShowOHLC = data.GetShowOHLC();
; 302  : 
; 303  : 	return *this;
; 304  : }
; 305  : 
; 306  : bool CGraphDataDrawingData::operator==(const CGraphDataDrawingData& data)
; 307  : {
; 308  : 	if(this == &data)
; 309  : 		return true;
; 310  : 
; 311  : 	return (m_bCalcRiseFallRate_LowHigh == data.DoesCalcRiseFallRate_LowHigh() && 
; 312  : 		m_bCalcRiseFallRate_LowCur == data.DoesCalcRiseFallRate_LowCur() && 
; 313  : 		m_bCalcRiseFallRate_HighCur == data.DoesCalcRiseFallRate_HighCur() && 
; 314  : 		m_bCalcRate_PrevCur == data.DoesCalcRate_PrevCur() && 
; 315  : 		m_nCalcRiseFallRate_CurData == data.GetCalcRiseFallRate_CurData() &&
; 316  : 		// (2009/9/12 - Seung-Won, Bae) for OHLC graph data
; 317  : 		m_bShowOHLC == data.GetShowOHLC());
; 318  : }
; 319  : 
; 320  : CGraphDataDrawingData::CGraphDataDrawingData():
; 321  : 	m_bCalcRiseFallRate_LowHigh(false),
; 322  : 	m_bCalcRiseFallRate_LowCur(false),
; 323  : 	m_bCalcRiseFallRate_HighCur(false),
; 324  : 	m_bCalcRate_PrevCur(false),
; 325  : 	m_nCalcRiseFallRate_CurData(0),
; 326  : 	// (2009/9/12 - Seung-Won, Bae) for OHLC graph data
; 327  : 	m_bShowOHLC( FALSE)
; 328  : {
; 329  : }
; 330  : 
; 331  : CGraphDataDrawingData::CGraphDataDrawingData( const char *p_szGraphDataDrawingData):
; 332  : 	m_bCalcRiseFallRate_LowHigh(false),
; 333  : 	m_bCalcRiseFallRate_LowCur(false),
; 334  : 	m_bCalcRiseFallRate_HighCur(false),
; 335  : 	m_bCalcRate_PrevCur(false),
; 336  : 	m_nCalcRiseFallRate_CurData(0),
; 337  : 	// (2009/9/12 - Seung-Won, Bae) for OHLC graph data
; 338  : 	m_bShowOHLC( FALSE)
; 339  : {
; 340  : 	SetData( p_szGraphDataDrawingData);
; 341  : }
; 342  : 
; 343  : CGraphDataDrawingData::CGraphDataDrawingData(const bool bCalcRiseFallRate_LowHigh, const bool bCalcRiseFallRate_LowCur, 
; 344  : 	const bool bCalcRiseFallRate_HighCur, const bool bCalcRate_PrevCur, const int nCalcRiseFallRate_CurData, const BOOL p_bShowOHLC):
; 345  : 	m_bCalcRiseFallRate_LowHigh(bCalcRiseFallRate_LowHigh),
; 346  : 	m_bCalcRiseFallRate_LowCur(bCalcRiseFallRate_LowCur),
; 347  : 	m_bCalcRiseFallRate_HighCur(bCalcRiseFallRate_HighCur),
; 348  : 	m_bCalcRate_PrevCur(bCalcRate_PrevCur),
; 349  : 	m_nCalcRiseFallRate_CurData(nCalcRiseFallRate_CurData),
; 350  : 	// (2009/9/12 - Seung-Won, Bae) for OHLC graph data
; 351  : 	m_bShowOHLC( p_bShowOHLC)
; 352  : {
; 353  : }
; 354  : 
; 355  : CGraphDataDrawingData::CGraphDataDrawingData(const CGraphDataDrawingData& data):
; 356  : 	m_bCalcRiseFallRate_LowHigh(data.DoesCalcRiseFallRate_LowHigh()),
; 357  : 	m_bCalcRiseFallRate_LowCur(data.DoesCalcRiseFallRate_LowCur()),
; 358  : 	m_bCalcRiseFallRate_HighCur(data.DoesCalcRiseFallRate_HighCur()),
; 359  : 	m_bCalcRate_PrevCur(data.DoesCalcRate_PrevCur()),
; 360  : 	m_nCalcRiseFallRate_CurData(data.GetCalcRiseFallRate_CurData()),
; 361  : 	// (2009/9/12 - Seung-Won, Bae) for OHLC graph data
; 362  : 	m_bShowOHLC( data.GetShowOHLC())
; 363  : {
; 364  : }
; 365  : 
; 366  : // (2006/5/9 - Seung-Won, Bae) Clear Data
; 367  : void CGraphDataDrawingData::ClearData( void)
; 368  : {
; 369  : 	m_bCalcRiseFallRate_LowHigh	= false;
; 370  : 	m_bCalcRiseFallRate_LowCur	= false;
; 371  : 	m_bCalcRiseFallRate_HighCur	= false;
; 372  : 	m_bCalcRate_PrevCur			= false;
; 373  : 	m_nCalcRiseFallRate_CurData	= 0;
; 374  : 	// (2009/9/12 - Seung-Won, Bae) for OHLC graph data
; 375  : 	m_bShowOHLC					= FALSE;
; 376  : }
; 377  : 
; 378  : // public =====================================================================
; 379  : void CGraphDataDrawingData::SetDoesCalcRiseFallRate_LowHigh(const bool bCalcData)
; 380  : {
; 381  : 	m_bCalcRiseFallRate_LowHigh = bCalcData;
; 382  : }
; 383  : 
; 384  : void CGraphDataDrawingData::SetDoesCalcRiseFallRate_LowCur(const bool bCalcData)
; 385  : {
; 386  : 	m_bCalcRiseFallRate_LowCur = bCalcData;
; 387  : }
; 388  : 
; 389  : void CGraphDataDrawingData::SetDoesCalcRiseFallRate_HighCur(const bool bCalcData)
; 390  : {
; 391  : 	m_bCalcRiseFallRate_HighCur = bCalcData;
; 392  : }
; 393  : 
; 394  : void CGraphDataDrawingData::SetDoesCalcRate_PrevCur(const bool bCalcData)
; 395  : {
; 396  : 	m_bCalcRate_PrevCur = bCalcData;
; 397  : }
; 398  : 
; 399  : void CGraphDataDrawingData::SetCalcRiseFallRate_CurData(const int nCalcData)
; 400  : {
; 401  : 	m_nCalcRiseFallRate_CurData = nCalcData;
; 402  : }
; 403  : 
; 404  : // (2009/9/12 - Seung-Won, Bae) for OHLC graph data
; 405  : void CGraphDataDrawingData::SetShowOHLC( const BOOL p_bShowOHLC)
; 406  : {
; 407  : 	m_bShowOHLC	= p_bShowOHLC;
; 408  : }
; 409  : 
; 410  : // ----------------------------------------------------------------------------
; 411  : bool CGraphDataDrawingData::DoesAllDefaultData() const
; 412  : {
; 413  : 	return (m_bCalcRiseFallRate_LowHigh == false && 
; 414  : 		m_bCalcRiseFallRate_LowCur == false && 
; 415  : 		m_bCalcRiseFallRate_HighCur == false && 
; 416  : 		m_bCalcRate_PrevCur == false && 
; 417  : 		m_nCalcRiseFallRate_CurData == 0);
; 418  : }
; 419  : 
; 420  : bool CGraphDataDrawingData::DoesCalcRiseFallRate_LowHigh() const
; 421  : {
; 422  : 	return m_bCalcRiseFallRate_LowHigh;
; 423  : }
; 424  : 
; 425  : bool CGraphDataDrawingData::DoesCalcRiseFallRate_LowCur() const
; 426  : {
; 427  : 	return m_bCalcRiseFallRate_LowCur;
; 428  : }
; 429  : 
; 430  : bool CGraphDataDrawingData::DoesCalcRiseFallRate_HighCur() const
; 431  : {
; 432  : 	return m_bCalcRiseFallRate_HighCur;
; 433  : }
; 434  : 
; 435  : bool CGraphDataDrawingData::DoesCalcRate_PrevCur() const
; 436  : {
; 437  : 	return m_bCalcRate_PrevCur;
; 438  : }
; 439  : 
; 440  : int CGraphDataDrawingData::GetCalcRiseFallRate_CurData() const
; 441  : {
; 442  : 	return m_nCalcRiseFallRate_CurData;
; 443  : }
; 444  : 
; 445  : // (2009/9/12 - Seung-Won, Bae) for OHLC graph data
; 446  : BOOL CGraphDataDrawingData::GetShowOHLC( void) const
; 447  : {
; 448  : 	return m_bShowOHLC;
; 449  : }
; 450  : 
; 451  : // graph data 
; 452  : void CGraphDataDrawingData::GetData( CString &p_strGraphDataDrawingData) const
; 453  : {
; 454  : 	char *szGraphDataDrawingData = p_strGraphDataDrawingData.GetBufferSetLength( 12);	// Do not set 13, It has default NULL Terminator.
; 455  : 	szGraphDataDrawingData[  0] = ( m_bCalcRiseFallRate_LowHigh			? '1' : '0');
; 456  : 	szGraphDataDrawingData[  1] = ';';
; 457  : 	szGraphDataDrawingData[  2] = ( m_bCalcRiseFallRate_LowCur			? '1' : '0');
; 458  : 	szGraphDataDrawingData[  3] = ';';
; 459  : 	szGraphDataDrawingData[  4] = ( m_bCalcRiseFallRate_HighCur			? '1' : '0');
; 460  : 	szGraphDataDrawingData[  5] = ';';
; 461  : 	szGraphDataDrawingData[  6] = ( m_bCalcRate_PrevCur					? '1' : '0');
; 462  : 	szGraphDataDrawingData[  7] = ';';
; 463  : 	szGraphDataDrawingData[  8] = '0' + m_nCalcRiseFallRate_CurData;
; 464  : 	szGraphDataDrawingData[  9] = ';';
; 465  : 	szGraphDataDrawingData[ 10] = '0' + m_bShowOHLC;	// (2009/9/12 - Seung-Won, Bae) for OHLC graph data
; 466  : 	szGraphDataDrawingData[ 11] = ';';
; 467  : 	szGraphDataDrawingData[ 12] = '\0';
; 468  : }
; 469  : 
; 470  : 
; 471  : // private ====================================================================
; 472  : void CGraphDataDrawingData::SetData( const char *p_szGraphDataDrawingData)
; 473  : {
; 474  : 	if( !p_szGraphDataDrawingData) return;
; 475  : 	if( !*p_szGraphDataDrawingData) return;
; 476  : 
; 477  : 	CString strGraphDataDrawingData;
; 478  : 	int nGraphDataDrawingDataLen = strlen( p_szGraphDataDrawingData);
; 479  : 	char *szGraphDataDrawingData = strGraphDataDrawingData.GetBufferSetLength( nGraphDataDrawingDataLen + 1);
; 480  : 	strcpy( szGraphDataDrawingData, p_szGraphDataDrawingData);
; 481  : 	if( szGraphDataDrawingData[ nGraphDataDrawingDataLen - 1] != ';')
; 482  : 	{
; 483  : 		szGraphDataDrawingData[ nGraphDataDrawingDataLen] = ';';
; 484  : 		szGraphDataDrawingData[ nGraphDataDrawingDataLen + 1] = '\0';
; 485  : 	}
; 486  : 
; 487  : 	char *szItem = szGraphDataDrawingData;
; 488  : 	szGraphDataDrawingData = strchr( szGraphDataDrawingData, ';');
; 489  : 	if( szGraphDataDrawingData) *szGraphDataDrawingData++ = '\0';
; 490  : 	m_bCalcRiseFallRate_LowHigh = ( atoi( szItem) != 0);
; 491  : 	if( !szGraphDataDrawingData) return;
; 492  : 	if( !*szGraphDataDrawingData) return;
; 493  : 
; 494  : 	szItem = szGraphDataDrawingData;
; 495  : 	szGraphDataDrawingData = strchr( szGraphDataDrawingData, ';');
; 496  : 	if( szGraphDataDrawingData) *szGraphDataDrawingData++ = '\0';
; 497  : 	m_bCalcRiseFallRate_LowCur = ( atoi( szItem) != 0);
; 498  : 	if( !szGraphDataDrawingData) return;
; 499  : 	if( !*szGraphDataDrawingData) return;
; 500  : 
; 501  : 	szItem = szGraphDataDrawingData;
; 502  : 	szGraphDataDrawingData = strchr( szGraphDataDrawingData, ';');
; 503  : 	if( szGraphDataDrawingData) *szGraphDataDrawingData++ = '\0';
; 504  : 	m_bCalcRiseFallRate_HighCur = ( atoi( szItem) != 0);
; 505  : 	if( !szGraphDataDrawingData) return;
; 506  : 	if( !*szGraphDataDrawingData) return;
; 507  : 
; 508  : 	szItem = szGraphDataDrawingData;
; 509  : 	szGraphDataDrawingData = strchr( szGraphDataDrawingData, ';');
; 510  : 	if( szGraphDataDrawingData) *szGraphDataDrawingData++ = '\0';
; 511  : 	m_bCalcRate_PrevCur = ( atoi( szItem) != 0);
; 512  : 	if( !szGraphDataDrawingData) return;
; 513  : 	if( !*szGraphDataDrawingData) return;
; 514  : 
; 515  : 	szItem = szGraphDataDrawingData;
; 516  : 	szGraphDataDrawingData = strchr( szGraphDataDrawingData, ';');
; 517  : 	if( szGraphDataDrawingData) *szGraphDataDrawingData++ = '\0';
; 518  : 	m_nCalcRiseFallRate_CurData = atoi( szItem);
; 519  : 	if( !szGraphDataDrawingData) return;
; 520  : 	if( !*szGraphDataDrawingData) return;
; 521  : 
; 522  : 	// (2009/9/12 - Seung-Won, Bae) for OHLC graph data
; 523  : 	szItem = szGraphDataDrawingData;
; 524  : 	szGraphDataDrawingData = strchr( szGraphDataDrawingData, ';');
; 525  : 	if( szGraphDataDrawingData) *szGraphDataDrawingData++ = '\0';
; 526  : 	m_bShowOHLC = atoi( szItem);
; 527  : 	if( !szGraphDataDrawingData) return;
; 528  : 	if( !*szGraphDataDrawingData) return;
; 529  : }
; 530  : 
; 531  : ///////////////////////////////////////////////////////////////////////////////
; 532  : // class CSignalData
; 533  : 
; 534  : CSignalData& CSignalData::operator=(const CSignalData& data)
; 535  : {
; 536  : 	if(this == &data)
; 537  : 		return *this;
; 538  : 
; 539  : 	m_bIsUse = data.IsUse();
; 540  : 	m_bIsShow = data.IsShow();
; 541  : 	return *this;
; 542  : }
; 543  : 
; 544  : bool CSignalData::operator==(const CSignalData& data)
; 545  : {
; 546  : 	if(this == &data)
; 547  : 		return true;
; 548  : 
; 549  : 	return (m_bIsUse == data.IsUse() && m_bIsShow == data.IsShow());
; 550  : }
; 551  : 
; 552  : CSignalData::CSignalData(const bool bIsUse, const bool bIsShow):
; 553  : 	m_bIsUse(bIsUse),
; 554  : 	m_bIsShow(bIsShow)
; 555  : {
; 556  : 	// (2009/10/7 - Seung-Won, Bae) for Signal Arrow Drawing Cache.
; 557  : 	m_pSignalCache = NULL;
; 558  : }
; 559  : 
; 560  : CSignalData::CSignalData( const char *p_szSignalData)
; 561  : {
; 562  : 	SetData( p_szSignalData);
; 563  : 
; 564  : 	// (2009/10/7 - Seung-Won, Bae) for Signal Arrow Drawing Cache.
; 565  : 	m_pSignalCache = NULL;
; 566  : }
; 567  : 
; 568  : CSignalData::CSignalData(const CSignalData& data) : 
; 569  : 	m_bIsUse(data.IsUse()),
; 570  : 	m_bIsShow(data.IsShow())
; 571  : {
; 572  : 	// (2009/10/7 - Seung-Won, Bae) for Signal Arrow Drawing Cache.
; 573  : 	m_pSignalCache = NULL;
; 574  : }
; 575  : 
; 576  : // (2009/10/7 - Seung-Won, Bae) for Signal Arrow Drawing Cache.
; 577  : CSignalData::~CSignalData()
; 578  : {
; 579  : 	ClearCalcDataForDraw();
; 580  : }
; 581  : 
; 582  : // (2006/5/9 - Seung-Won, Bae) Clear Data
; 583  : void CSignalData::ClearData( void)
; 584  : {
; 585  : 	m_bIsUse	= false;
; 586  : 	m_bIsShow	= false;
; 587  : }
; 588  : 
; 589  : // public =====================================================================
; 590  : void CSignalData::SetUse(const bool bIsUse)
; 591  : {
; 592  : 	m_bIsUse = bIsUse;
; 593  : }
; 594  : 
; 595  : void CSignalData::SetShow(const bool bIsShow)
; 596  : {
; 597  : 	m_bIsShow = bIsShow;
; 598  : }
; 599  : 
; 600  : // ----------------------------------------------------------------------------
; 601  : bool CSignalData::IsUse() const
; 602  : {
; 603  : 	return m_bIsUse;
; 604  : }
; 605  : 
; 606  : bool CSignalData::IsShow() const
; 607  : {
; 608  : 	return m_bIsShow;
; 609  : }
; 610  : 
; 611  : bool CSignalData::IsDraw() const
; 612  : {
; 613  : 	if(!m_bIsUse)
; 614  : 		return false;
; 615  : 	return m_bIsShow;
; 616  : }
; 617  : 
; 618  : 
; 619  : // ----------------------------------------------------------------------------
; 620  : void CSignalData::GetData( CString &p_strSignalData) const
; 621  : {
; 622  : 	char *szSignalData = p_strSignalData.GetBufferSetLength( 4);	// Do not set 5, It has default NULL Terminator.
; 623  : 	szSignalData[ 0] = ( m_bIsUse	? '1' : '0');
; 624  : 	szSignalData[ 1] = ':';
; 625  : 	szSignalData[ 2] = ( m_bIsShow	? '1' : '0');
; 626  : 	szSignalData[ 3] = ';';
; 627  : 	szSignalData[ 4] = '\0';
; 628  : }
; 629  : 
; 630  : 
; 631  : // private ====================================================================
; 632  : void CSignalData::SetData( const char *p_szSignalData)
; 633  : {
; 634  : 	if( !p_szSignalData) return;
; 635  : 	if( !*p_szSignalData) return;
; 636  : 
; 637  : 	CString strSignalData;
; 638  : 	int nSignalDataLen = strlen( p_szSignalData);
; 639  : 	char *szSignalData = strSignalData.GetBufferSetLength( nSignalDataLen + 1);
; 640  : 	strcpy( szSignalData, p_szSignalData);
; 641  : 	if( szSignalData[ nSignalDataLen - 1] != ';')
; 642  : 	{
; 643  : 		szSignalData[ nSignalDataLen] = ';';
; 644  : 		szSignalData[ nSignalDataLen + 1] = '\0';
; 645  : 	}
; 646  : 
; 647  : 	// "signal:signal;"
; 648  : 	// signal
; 649  : 	char *szItem = szSignalData;
; 650  : 	szSignalData = strchr( szSignalData, ':');
; 651  : 	if( szSignalData) *szSignalData++ = '\0';
; 652  : 	m_bIsUse = ( atoi( szItem) != 0);
; 653  : 	if( !szSignalData) return;
; 654  : 	if( !*szSignalData) return;
; 655  : 	// signal
; 656  : 	szItem = szSignalData;
; 657  : 	szSignalData = strchr( szSignalData, ';');
; 658  : 	if( szSignalData) *szSignalData++ = '\0';
; 659  : 	m_bIsShow = ( atoi( szItem) != 0);
; 660  : 	if( !szSignalData) return;
; 661  : 	if( !*szSignalData) return;
; 662  : }
; 663  : 
; 664  : // (2009/10/7 - Seung-Won, Bae) for Signal Arrow Drawing Cache.
; 665  : void CSignalData::ClearCalcDataForDraw( void)
; 666  : {
; 667  : 	if( m_pSignalCache)
; 668  : 	{
; 669  : 		delete m_pSignalCache;
; 670  : 		m_pSignalCache = NULL;
; 671  : 	}
; 672  : }
; 673  : 
; 674  : 
; 675  : ///////////////////////////////////////////////////////////////////////////////
; 676  : // class CGraphData
; 677  : 
; 678  : CGraphData& CGraphData::operator=(const CGraphData& data)
; 679  : {
; 680  : 	if(this == &data) return *this;
; 681  : 
; 682  : 	m_strIndicatorName		= data.m_strIndicatorName;
; 683  : 	m_strGraphName			= data.m_strGraphName;
; 684  : 	m_strPacketName			= data.m_strPacketName;
; 685  : 	m_signalData			= data.m_signalData;
; 686  : 	m_graphDataDrawingData	= data.m_graphDataDrawingData;
; 687  : 
; 688  : 	return *this;
; 689  : }
; 690  : 
; 691  : // (2006/5/9 - Seung-Won, Bae) Clear Data
; 692  : void CGraphData::ClearData( void)
; 693  : {
; 694  : 	m_strIndicatorName.Empty();
; 695  : 	m_strGraphName.Empty();
; 696  : 	m_strPacketName.Empty();
; 697  : 	m_signalData.ClearData();
; 698  : 	m_graphDataDrawingData.ClearData();
; 699  : }
; 700  : 
; 701  : void CGraphData::SetPacketNames(const CString& packetNames)
; 702  : {
; 703  : 	if(m_strPacketName == packetNames)
; 704  : 		return;
; 705  : 
; 706  : 	m_strPacketName = packetNames;
; 707  : }
; 708  : 
; 709  : void CGraphData::SetSignalData(const CSignalData& signalData)
; 710  : {
; 711  : 	m_signalData = signalData;
; 712  : }
; 713  : 
; 714  : void CGraphData::SetSignalData(const bool bIsUse, const bool bIsShow)
; 715  : {
; 716  : 	m_signalData.SetUse(bIsUse);
; 717  : 	m_signalData.SetShow(bIsShow);
; 718  : }
; 719  : 
; 720  : void CGraphData::SetGraphDataDrawingData(const CGraphDataDrawingData& drawingData)
; 721  : {
; 722  : 	m_graphDataDrawingData = drawingData;
; 723  : }
; 724  : 
; 725  : CString CGraphData::GetPacketNames() const
; 726  : {
; 727  : 	return m_strPacketName;
; 728  : }
; 729  : 
; 730  : CSignalData CGraphData::GetSignalData() const
; 731  : {
; 732  : 	return m_signalData;
; 733  : }
; 734  : 
; 735  : CSignalData& CGraphData::GetSignalData()
; 736  : {
; 737  : 	return m_signalData;
; 738  : }
; 739  : 
; 740  : bool CGraphData::IsSignalUse() const
; 741  : {
; 742  : 	return m_signalData.IsUse();
; 743  : }
; 744  : 
; 745  : bool CGraphData::IsSignalShow() const
; 746  : {
; 747  : 	return m_signalData.IsShow();
; 748  : }
; 749  : 
; 750  : CGraphDataDrawingData CGraphData::GetGraphDataDrawingData() const
; 751  : {
; 752  : 	return m_graphDataDrawingData;
; 753  : }
; 754  : 
; 755  : CGraphDataDrawingData& CGraphData::GetGraphDataDrawingData()
; 756  : {
; 757  : 	return m_graphDataDrawingData;
; 758  : }
; 759  : 
; 760  : // (2006/9/6 - Seung-Won, Bae) Map Design Info.
; 761  : CGraphData::CGraphData( const char *p_szGraphData, HWND p_hOcxWnd)
; 762  : {
; 763  : 	if( !p_szGraphData) return;
; 764  : 	if( !*p_szGraphData) return;
; 765  : 
; 766  : 	// "index;;,,,;signal(:);
; 767  : 	//  ;;;;;
; 768  : 	//  ;;;(0:,1:/,2:(),());\r\n"
; 769  : 	CString strGraphData;
; 770  : 	int nGraphDataLen = strlen( p_szGraphData);
; 771  : 	char *szGraphData = strGraphData.GetBufferSetLength( nGraphDataLen);
; 772  : 	strcpy( szGraphData, p_szGraphData);
; 773  : 	// (2006/10/26 - Seung-Won, Bae) Skip Function Index;
; 774  : 	szGraphData = strchr( szGraphData, ';');	// m_nFunctionIndex = atoi(CDataConversion::GetStringData(strRealData, ";")); // function index
; 775  : 	if( !szGraphData) return;
; 776  : 	szGraphData++;
; 777  : 	// graph function name
; 778  : 	char *szItem = szGraphData;
; 779  : 	szGraphData = strchr( szGraphData, ';');	// m_nFunctionIndex = atoi(CDataConversion::GetStringData(strRealData, ";")); // function index
; 780  : 	if( szGraphData) *szGraphData++ = '\0';
; 781  : 	m_strIndicatorName = _MTOM2( szItem);
; 782  : 	if( !szGraphData) return;
; 783  : 	if( !*szGraphData) return;
; 784  : 	// (2006/11/29 - Seung-Won, Bae) Support Graph Name for Binding with Indicator Info.
; 785  : 	if( strncmp( szGraphData, "G:", 2)) m_strGraphName = m_strIndicatorName;
; 786  : 	else
; 787  : 	{
; 788  : 		szItem = szGraphData + 2;
; 789  : 		szGraphData = strchr( szGraphData, ';');
; 790  : 		if( szGraphData) *szGraphData++ = '\0';
; 791  : 		m_strGraphName = _MTOM2( szItem);		// (2008/2/22 - Seung-Won, Bae) The first default Graph Name is Indicator Name.
; 792  : 		if( !szGraphData) return;
; 793  : 		if( !*szGraphData) return;
; 794  : 	}
; 795  : 	// packet name
; 796  : 	szItem = szGraphData;
; 797  : 	szGraphData = strchr( szGraphData, ';');
; 798  : 	if( szGraphData) *szGraphData++ = '\0';
; 799  : 	_MHWND( p_hOcxWnd);
; 800  : 	if( strchr( szItem, '('))	m_strPacketName = _STOMS( szItem, ",(+)/23", 0);
; 801  : 	else						m_strPacketName = _STOMS( szItem, ",", 0);
; 802  : 	if( !szGraphData) return;
; 803  : 	if( !*szGraphData) return;
; 804  : 	// Signal
; 805  : 	szItem = szGraphData;
; 806  : 	szGraphData = strchr( szGraphData, ';');
; 807  : 	if( szGraphData) *szGraphData++ = '\0';
; 808  : 	m_signalData = CSignalData( szItem);
; 809  : 	if( !szGraphData) return;
; 810  : 	if( !*szGraphData) return;
; 811  : 	// Graph Drawing Data
; 812  : 	szItem = szGraphData;
; 813  : 	int i = 0;
; 814  : 	do
; 815  : 	{
; 816  : 		szGraphData = strchr( szGraphData, ';');
; 817  : 		if( !szGraphData) continue;
; 818  : 		i++;
; 819  : 		szGraphData++;
; 820  : 	} while( szGraphData && i < 6);
; 821  : 	if( szGraphData) *szGraphData = '\0';
; 822  : 	m_graphDataDrawingData = CGraphDataDrawingData( szItem);
; 823  : }
; 824  : 
; 825  : //   :  - ojtaso (20070507)
; 826  : void CGraphData::GetData( CString &p_strGraphData, LPCTSTR lpszRQ/* = NULL*/) const
; 827  : {
; 828  : 	CString strSingalData;
; 829  : 	m_signalData.GetData( strSingalData);
; 830  : 
; 831  : 	CString strGraphDataDrawingData;
; 832  : 	m_graphDataDrawingData.GetData( strGraphDataDrawingData);
; 833  : 	
; 834  : 	int nGraphDataLen = 0;									//
; 835  : 	nGraphDataLen++;										// ;
; 836  : 	nGraphDataLen += m_strIndicatorName.GetLength();		// Indicator Name
; 837  : 	nGraphDataLen += 3;										// ;G:
; 838  : 	nGraphDataLen += m_strGraphName.GetLength();			// Graph Name
; 839  : 	nGraphDataLen++;										// ;
; 840  : 	nGraphDataLen += m_strPacketName.GetLength();			// Packet Name
; 841  : 	nGraphDataLen++;										// ;
; 842  : 	nGraphDataLen += strSingalData.GetLength();				// Singal Data
; 843  : 	nGraphDataLen += strGraphDataDrawingData.GetLength();	// Graph Data Drawing Data
; 844  : 	//   :  - ojtaso (20070507)
; 845  : 	if(lpszRQ)
; 846  : 	{
; 847  : 		nGraphDataLen += 3;										// RQ:
; 848  : 		nGraphDataLen += ::lstrlen(lpszRQ);
; 849  : 	}
; 850  : 	nGraphDataLen += 2;										// \r\n (Do not add NULL Terminator size. It has that with default)
; 851  : 	char *szGraphData = p_strGraphData.GetBufferSetLength( nGraphDataLen);
; 852  : 
; 853  : 	*szGraphData++ = ';';
; 854  : 
; 855  : 	strcpy( szGraphData, m_strIndicatorName);
; 856  : 	szGraphData += m_strIndicatorName.GetLength();
; 857  : 
; 858  : 	*szGraphData++ = ';';
; 859  : 	*szGraphData++ = 'G';
; 860  : 	*szGraphData++ = ':';
; 861  : 
; 862  : 	strcpy( szGraphData, m_strGraphName);
; 863  : 	szGraphData += m_strGraphName.GetLength();
; 864  : 
; 865  : 	*szGraphData++ = ';';
; 866  : 
; 867  : 	strcpy( szGraphData, m_strPacketName);
; 868  : 	szGraphData += m_strPacketName.GetLength();
; 869  : 
; 870  : 	*szGraphData++ = ';';
; 871  : 
; 872  : 	strcpy( szGraphData, strSingalData);
; 873  : 	szGraphData += strSingalData.GetLength();
; 874  : 
; 875  : 	strcpy( szGraphData, strGraphDataDrawingData);
; 876  : 	szGraphData += strGraphDataDrawingData.GetLength();
; 877  : 
; 878  : 	//   :  - ojtaso (20070507)
; 879  : 	if(lpszRQ)
; 880  : 	{
; 881  : 		strcpy( szGraphData, _T("RQ:"));
; 882  : 		szGraphData += 3;
; 883  : 		strcpy( szGraphData, lpszRQ);
; 884  : 		szGraphData += ::lstrlen(lpszRQ);
; 885  : 	}
; 886  : 
; 887  : 	*szGraphData++ = '\r';
; 888  : 	*szGraphData++ = '\n';
; 889  : 	*szGraphData++ = '\0';
; 890  : }
; 891  : 
; 892  : ///////////////////////////////////////////////////////////////////////////////
; 893  : // class CSubGraphDataBase
; 894  : 
; 895  : CSubGraphDataBase& CSubGraphDataBase::operator=(const CSubGraphDataBase& data)
; 896  : {
; 897  : 	if(this == &data)
; 898  : 		return *this;
; 899  : 
; 900  : 	m_nTitleEndPosition = data.GetTitleEndPosition();
; 901  : 	m_nTitleEndLine = data.GetTitleEndLine();
; 902  : 	m_TYPEType = data.GetType();
; 903  : 	m_nStyle = data.GetStyle();
; 904  : 	m_nDrawStyle = data.GetDrawStyle();
; 905  : 	m_strName = data.GetName();
; 906  : 	m_strTitle = data.GetTitle();
; 907  : 	m_bHiding = data.m_bHiding;
; 908  : 	m_clrColor = data.GetColor();
; 909  : 	m_penThickness = data.GetPenThickness();
; 910  : 	//   :  - ojtaso (20070625)
; 911  : 	m_strItemName = data.GetItemName();
; 912  : 	m_nSubGraphIndex = data.GetSubGraphIndex();	//     - ojtaso (20071116)
; 913  : 	m_nPaintStyle = data.GetPaintStyle();		// Singbar Graph    - ojtaso (20071121)
; 914  : 	m_nBaseLineStyle = data.GetBaseLineDrawStyle();		//  ,   - ojtaso (20071213)
; 915  : 	
; 916  : 	// KTB  - ojtaso (20091019)
; 917  : 	const CArray<ST_HORZLINE*, ST_HORZLINE*>& arrInfo = data.GetHorizontalLine();
; 918  : 	m_arrHorzLine.Copy(arrInfo);	
; 919  : 	return *this;
; 920  : }
; 921  : 
; 922  : CSubGraphDataBase::CSubGraphDataBase():
; 923  : 	m_nTitleEndPosition(0),
; 924  : 	m_nTitleEndLine(1), 	//    :  - ojtaso (20070227)
; 925  : 	m_TYPEType(CGraphBaseData::GTNONE),
; 926  : 	m_bHiding(true)
; 927  : {
; 928  : }
; 929  : 
; 930  : // Singbar Graph    - ojtaso (20071121)
; 931  : //  ,   - ojtaso (20071213)
; 932  : CSubGraphDataBase::CSubGraphDataBase(const CGraphBaseData::GRAPHTYPE type, const CGraphStyle& style, const CGraphDrawStyle& drawStyle, const CString& name, const CString& title, const bool hiding, const CGraphColor& color, const CPenThickness& penThickness, const CGraphPaintStyle& paintStyle, const CGraphBaseLineStyle& baseLineStyle):
; 933  : 	m_nTitleEndPosition(0),
; 934  : 	m_nTitleEndLine(1), 	//    :  - ojtaso (20070227)
; 935  : 	m_TYPEType(type),
; 936  : 	m_nStyle(style),
; 937  : 	m_nDrawStyle(drawStyle),
; 938  : 	m_strName(name),
; 939  : 	m_strTitle(title),
; 940  : 	m_bHiding(hiding),
; 941  : 	m_clrColor(color),
; 942  : 	m_penThickness(penThickness),
; 943  : 	m_nSubGraphIndex(-1),	//     - ojtaso (20071116)
; 944  : 	m_nPaintStyle(paintStyle),		// Singbar Graph    - ojtaso (20071121)
; 945  : 	m_nBaseLineStyle(baseLineStyle)		//  ,   - ojtaso (20071213)
; 946  : {
; 947  : 	//   :  - ojtaso (20070625)
; 948  : 	m_strItemName.Empty();
; 949  : }
; 950  : 
; 951  : CSubGraphDataBase::CSubGraphDataBase(const CSubGraphDataBase& data):
; 952  : 	m_nTitleEndPosition(data.GetTitleEndPosition()),

  0002a	8b 75 08	 mov	 esi, DWORD PTR _data$[ebp]

; 953  : 	m_nTitleEndLine(data.GetTitleEndLine()), 	//    :  - ojtaso (20070227)
; 954  : 	m_TYPEType(data.GetType()),
; 955  : 	m_nStyle(data.GetStyle()),
; 956  : 	m_nDrawStyle(data.GetDrawStyle()),
; 957  : 	m_strName(data.GetName()),

  0002d	8d 4f 1c	 lea	 ecx, DWORD PTR [edi+28]
  00030	89 4d 08	 mov	 DWORD PTR ___$ReturnUdt$[ebp], ecx
  00033	8b 06		 mov	 eax, DWORD PTR [esi]
  00035	89 07		 mov	 DWORD PTR [edi], eax
  00037	8b 46 04	 mov	 eax, DWORD PTR [esi+4]
  0003a	89 47 04	 mov	 DWORD PTR [edi+4], eax
  0003d	8b 46 08	 mov	 eax, DWORD PTR [esi+8]
  00040	89 47 08	 mov	 DWORD PTR [edi+8], eax

; 1211 : 	return m_nStyle;

  00043	8b 46 0c	 mov	 eax, DWORD PTR [esi+12]
  00046	89 47 0c	 mov	 DWORD PTR [edi+12], eax

; 1216 : 	return m_nDrawStyle;

  00049	8b 46 10	 mov	 eax, DWORD PTR [esi+16]
  0004c	89 47 10	 mov	 DWORD PTR [edi+16], eax

; 1222 : 	return m_nPaintStyle;

  0004f	8b 46 14	 mov	 eax, DWORD PTR [esi+20]
  00052	89 47 14	 mov	 DWORD PTR [edi+20], eax

; 1228 : 	return m_nBaseLineStyle;

  00055	8b 46 18	 mov	 eax, DWORD PTR [esi+24]
  00058	89 47 18	 mov	 DWORD PTR [edi+24], eax

; 1233 : 	return m_strName;

  0005b	8d 46 1c	 lea	 eax, DWORD PTR [esi+28]
  0005e	50		 push	 eax
  0005f	ff 15 00 00 00
	00		 call	 DWORD PTR __imp_??0?$CStringT@DV?$StrTraitMFC_DLL@DV?$ChTraitsCRT@D@ATL@@@@@ATL@@QAE@ABV01@@Z

; 1238 : 	return m_strTitle;

  00065	8d 46 20	 lea	 eax, DWORD PTR [esi+32]

; 953  : 	m_nTitleEndLine(data.GetTitleEndLine()), 	//    :  - ojtaso (20070227)
; 954  : 	m_TYPEType(data.GetType()),
; 955  : 	m_nStyle(data.GetStyle()),
; 956  : 	m_nDrawStyle(data.GetDrawStyle()),
; 957  : 	m_strName(data.GetName()),

  00068	c7 45 fc 00 00
	00 00		 mov	 DWORD PTR __$EHRec$[ebp+8], 0

; 958  : 	m_strTitle(data.GetTitle()),

  0006f	8d 4f 20	 lea	 ecx, DWORD PTR [edi+32]

; 1238 : 	return m_strTitle;

  00072	50		 push	 eax

; 958  : 	m_strTitle(data.GetTitle()),

  00073	89 4d 08	 mov	 DWORD PTR ___$ReturnUdt$[ebp], ecx

; 1238 : 	return m_strTitle;

  00076	ff 15 00 00 00
	00		 call	 DWORD PTR __imp_??0?$CStringT@DV?$StrTraitMFC_DLL@DV?$ChTraitsCRT@D@ATL@@@@@ATL@@QAE@ABV01@@Z

; 959  : 	m_bHiding( data.m_bHiding),

  0007c	0f b6 46 24	 movzx	 eax, BYTE PTR [esi+36]

; 960  : 	m_clrColor(data.GetColor()),

  00080	8d 4f 28	 lea	 ecx, DWORD PTR [edi+40]
  00083	88 47 24	 mov	 BYTE PTR [edi+36], al

; 1255 : 	return m_clrColor;

  00086	8d 46 28	 lea	 eax, DWORD PTR [esi+40]
  00089	50		 push	 eax

; 958  : 	m_strTitle(data.GetTitle()),

  0008a	c6 45 fc 01	 mov	 BYTE PTR __$EHRec$[ebp+8], 1

; 1255 : 	return m_clrColor;

  0008e	e8 00 00 00 00	 call	 ??0CGraphColor@@QAE@ABV0@@Z ; CGraphColor::CGraphColor

; 78   : 	m_bIsHightlight(data.IsHightlight()),

  00093	0f b6 46 54	 movzx	 eax, BYTE PTR [esi+84]

; 961  : 	m_penThickness(data.GetPenThickness()),
; 962  : 	//   :  - ojtaso (20070625)
; 963  : 	m_strItemName(data.GetItemName()),

  00097	8d 4f 68	 lea	 ecx, DWORD PTR [edi+104]

; 78   : 	m_bIsHightlight(data.IsHightlight()),

  0009a	88 47 54	 mov	 BYTE PTR [edi+84], al

; 75   : 	m_nThickness1(data.GetThickness1()),

  0009d	8b 46 58	 mov	 eax, DWORD PTR [esi+88]
  000a0	89 47 58	 mov	 DWORD PTR [edi+88], eax

; 76   : 	m_nThickness2(data.GetThickness2()),

  000a3	8b 46 5c	 mov	 eax, DWORD PTR [esi+92]
  000a6	89 47 5c	 mov	 DWORD PTR [edi+92], eax

; 77   : 	m_nThickness3(data.GetThickness3()),

  000a9	8b 46 60	 mov	 eax, DWORD PTR [esi+96]
  000ac	89 47 60	 mov	 DWORD PTR [edi+96], eax

; 79   : 	//  ,   - ojtaso (20071213)
; 80   : 	m_nBaseLineThickness(data.GetBaseLineThickness())

  000af	8b 46 64	 mov	 eax, DWORD PTR [esi+100]
  000b2	89 47 64	 mov	 DWORD PTR [edi+100], eax

; 1244 : 	return m_strItemName;

  000b5	8d 46 68	 lea	 eax, DWORD PTR [esi+104]
  000b8	50		 push	 eax

; 961  : 	m_penThickness(data.GetPenThickness()),
; 962  : 	//   :  - ojtaso (20070625)
; 963  : 	m_strItemName(data.GetItemName()),

  000b9	89 4d 08	 mov	 DWORD PTR ___$ReturnUdt$[ebp], ecx

; 1244 : 	return m_strItemName;

  000bc	ff 15 00 00 00
	00		 call	 DWORD PTR __imp_??0?$CStringT@DV?$StrTraitMFC_DLL@DV?$ChTraitsCRT@D@ATL@@@@@ATL@@QAE@ABV01@@Z

; 964  : 	m_nSubGraphIndex(data.GetSubGraphIndex()),	//     - ojtaso (20071116)

  000c2	8b 46 6c	 mov	 eax, DWORD PTR [esi+108]

; 967  : {

  000c5	8d 4f 70	 lea	 ecx, DWORD PTR [edi+112]
  000c8	89 47 6c	 mov	 DWORD PTR [edi+108], eax
; File C:\Program Files (x86)\Microsoft Visual Studio\2019\Community\VC\Tools\MSVC\14.29.30133\atlmfc\include\afxtempl.h

; 348  : {

  000cb	c7 01 00 00 00
	00		 mov	 DWORD PTR [ecx], OFFSET ??_7?$CArray@PAU_ST_HORZLINE@@PAU1@@@6B@

; 349  : 	m_pData = NULL;

  000d1	c7 41 04 00 00
	00 00		 mov	 DWORD PTR [ecx+4], 0

; 350  : 	m_nSize = m_nMaxSize = m_nGrowBy = 0;

  000d8	c7 41 10 00 00
	00 00		 mov	 DWORD PTR [ecx+16], 0
  000df	c7 41 0c 00 00
	00 00		 mov	 DWORD PTR [ecx+12], 0
  000e6	c7 41 08 00 00
	00 00		 mov	 DWORD PTR [ecx+8], 0
; File D:\git\src\IBK\IBK_DRFN\ProjSrc\SrcChartEx\ChartOCX\IndicatorCondition\GraphData.cpp

; 969  : 	const CArray<ST_HORZLINE*, ST_HORZLINE*>& arrInfo = data.GetHorizontalLine();

  000ed	8d 46 70	 lea	 eax, DWORD PTR [esi+112]
  000f0	c6 45 fc 03	 mov	 BYTE PTR __$EHRec$[ebp+8], 3

; 970  : 	m_arrHorzLine.Copy(arrInfo);	

  000f4	50		 push	 eax
  000f5	e8 00 00 00 00	 call	 ?Copy@?$CArray@PAU_ST_HORZLINE@@PAU1@@@QAEXABV1@@Z ; CArray<_ST_HORZLINE *,_ST_HORZLINE *>::Copy

; 971  : }

  000fa	8b c7		 mov	 eax, edi
  000fc	8b 4d f4	 mov	 ecx, DWORD PTR __$EHRec$[ebp]
  000ff	64 89 0d 00 00
	00 00		 mov	 DWORD PTR fs:0, ecx
  00106	59		 pop	 ecx
  00107	5f		 pop	 edi
  00108	5e		 pop	 esi
  00109	8b e5		 mov	 esp, ebp
  0010b	5d		 pop	 ebp
  0010c	c2 04 00	 ret	 4
_TEXT	ENDS
;	COMDAT text$x
text$x	SEGMENT
__unwindfunclet$??0CSubGraphDataBase@@QAE@ABV0@@Z$0:
  00000	8b 4d f0	 mov	 ecx, DWORD PTR _this$[ebp]
  00003	83 c1 1c	 add	 ecx, 28			; 0000001cH
  00006	ff 25 00 00 00
	00		 jmp	 DWORD PTR __imp_??1?$CStringT@DV?$StrTraitMFC_DLL@DV?$ChTraitsCRT@D@ATL@@@@@ATL@@QAE@XZ
__unwindfunclet$??0CSubGraphDataBase@@QAE@ABV0@@Z$1:
  0000c	8b 4d f0	 mov	 ecx, DWORD PTR _this$[ebp]
  0000f	83 c1 20	 add	 ecx, 32			; 00000020H
  00012	ff 25 00 00 00
	00		 jmp	 DWORD PTR __imp_??1?$CStringT@DV?$StrTraitMFC_DLL@DV?$ChTraitsCRT@D@ATL@@@@@ATL@@QAE@XZ
__unwindfunclet$??0CSubGraphDataBase@@QAE@ABV0@@Z$2:
  00018	8b 4d f0	 mov	 ecx, DWORD PTR _this$[ebp]
  0001b	83 c1 68	 add	 ecx, 104		; 00000068H
  0001e	ff 25 00 00 00
	00		 jmp	 DWORD PTR __imp_??1?$CStringT@DV?$StrTraitMFC_DLL@DV?$ChTraitsCRT@D@ATL@@@@@ATL@@QAE@XZ
__unwindfunclet$??0CSubGraphDataBase@@QAE@ABV0@@Z$3:
  00024	8b 4d f0	 mov	 ecx, DWORD PTR _this$[ebp]
  00027	83 c1 70	 add	 ecx, 112		; 00000070H
  0002a	e9 00 00 00 00	 jmp	 ??1?$CArray@PAU_ST_HORZLINE@@PAU1@@@UAE@XZ ; CArray<_ST_HORZLINE *,_ST_HORZLINE *>::~CArray<_ST_HORZLINE *,_ST_HORZLINE *>
  0002f	cc		 int	 3
  00030	cc		 int	 3
  00031	cc		 int	 3
  00032	cc		 int	 3
  00033	cc		 int	 3
__ehhandler$??0CSubGraphDataBase@@QAE@ABV0@@Z:
  00034	90		 npad	 1
  00035	90		 npad	 1
  00036	8b 54 24 08	 mov	 edx, DWORD PTR [esp+8]
  0003a	8d 42 0c	 lea	 eax, DWORD PTR [edx+12]
  0003d	8b 4a f0	 mov	 ecx, DWORD PTR [edx-16]
  00040	33 c8		 xor	 ecx, eax
  00042	e8 00 00 00 00	 call	 @__security_check_cookie@4
  00047	b8 00 00 00 00	 mov	 eax, OFFSET __ehfuncinfo$??0CSubGraphDataBase@@QAE@ABV0@@Z
  0004c	e9 00 00 00 00	 jmp	 ___CxxFrameHandler3
text$x	ENDS
??0CSubGraphDataBase@@QAE@ABV0@@Z ENDP			; CSubGraphDataBase::CSubGraphDataBase
; Function compile flags: /Ogtp
; File D:\git\src\IBK\IBK_DRFN\ProjSrc\SrcChartEx\ChartOCX\IndicatorCondition\GraphData.cpp
; File C:\Program Files (x86)\Microsoft Visual Studio\2019\Community\VC\Tools\MSVC\14.29.30133\atlmfc\include\afxtempl.h
; File D:\git\src\IBK\IBK_DRFN\ProjSrc\SrcChartEx\ChartOCX\IndicatorCondition\GraphData.cpp
;	COMDAT ??0CSubGraphDataBase@@QAE@W4GRAPHTYPE@CGraphBaseData@@ABVCGraphStyle@@ABVCGraphDrawStyle@@ABV?$CStringT@DV?$StrTraitMFC_DLL@DV?$ChTraitsCRT@D@ATL@@@@@ATL@@3_NABVCGraphColor@@ABVCPenThickness@@ABVCGraphPaintStyle@@ABVCGraphBaseLineStyle@@@Z
_TEXT	SEGMENT
_this$ = -16						; size = 4
__$EHRec$ = -12						; size = 12
_type$ = 8						; size = 4
_style$ = 12						; size = 4
_drawStyle$ = 16					; size = 4
_name$ = 20						; size = 4
_title$ = 24						; size = 4
_hiding$ = 28						; size = 1
_color$ = 32						; size = 4
_penThickness$ = 36					; size = 4
_paintStyle$ = 40					; size = 4
_baseLineStyle$ = 44					; size = 4
??0CSubGraphDataBase@@QAE@W4GRAPHTYPE@CGraphBaseData@@ABVCGraphStyle@@ABVCGraphDrawStyle@@ABV?$CStringT@DV?$StrTraitMFC_DLL@DV?$ChTraitsCRT@D@ATL@@@@@ATL@@3_NABVCGraphColor@@ABVCPenThickness@@ABVCGraphPaintStyle@@ABVCGraphBaseLineStyle@@@Z PROC ; CSubGraphDataBase::CSubGraphDataBase, COMDAT
; _this$ = ecx

; 946  : {

  00000	55		 push	 ebp
  00001	8b ec		 mov	 ebp, esp
  00003	6a ff		 push	 -1
  00005	68 00 00 00 00	 push	 __ehhandler$??0CSubGraphDataBase@@QAE@W4GRAPHTYPE@CGraphBaseData@@ABVCGraphStyle@@ABVCGraphDrawStyle@@ABV?$CStringT@DV?$StrTraitMFC_DLL@DV?$ChTraitsCRT@D@ATL@@@@@ATL@@3_NABVCGraphColor@@ABVCPenThickness@@ABVCGraphPaintStyle@@ABVCGraphBaseLineStyle@@@Z
  0000a	64 a1 00 00 00
	00		 mov	 eax, DWORD PTR fs:0
  00010	50		 push	 eax
  00011	51		 push	 ecx
  00012	56		 push	 esi
  00013	57		 push	 edi
  00014	a1 00 00 00 00	 mov	 eax, DWORD PTR ___security_cookie
  00019	33 c5		 xor	 eax, ebp
  0001b	50		 push	 eax
  0001c	8d 45 f4	 lea	 eax, DWORD PTR __$EHRec$[ebp]
  0001f	64 a3 00 00 00
	00		 mov	 DWORD PTR fs:0, eax
  00025	8b f9		 mov	 edi, ecx
  00027	89 7d f0	 mov	 DWORD PTR _this$[ebp], edi

; 81   : {
; 82   : }
; 83   : 
; 84   : // public =====================================================================
; 85   : void CPenThickness::SetData( const char *p_szPenThickness)
; 86   : {
; 87   : 	m_nThickness1	= 1;
; 88   : 	m_nThickness2	= 1;
; 89   : 	m_nThickness3	= 1;
; 90   : 	m_bIsHightlight	= false;
; 91   : 	//  ,   - ojtaso (20071213)
; 92   : 	m_nBaseLineThickness = 1;
; 93   : 
; 94   : 	if( !p_szPenThickness) return;
; 95   : 	if( !*p_szPenThickness) return;
; 96   : 
; 97   : 	CString strPenThickness;
; 98   : 	int nPenThicknessLen = strlen( p_szPenThickness);
; 99   : 	char *szPenThickness = strPenThickness.GetBufferSetLength( nPenThicknessLen + 1);
; 100  : 	strcpy( szPenThickness, p_szPenThickness);
; 101  : 	if( szPenThickness[ nPenThicknessLen - 1] != ';')
; 102  : 	{
; 103  : 		szPenThickness[ nPenThicknessLen] = ';';
; 104  : 		szPenThickness[ nPenThicknessLen + 1] = '\0';
; 105  : 	}
; 106  : 
; 107  : 	char *szItem = szPenThickness;
; 108  : 	szPenThickness = strchr( szPenThickness, ';');
; 109  : 	if( szPenThickness) *szPenThickness++ = '\0';
; 110  : 	m_nThickness1 = atoi( szItem);
; 111  : 	if( !szPenThickness) return;
; 112  : 	if( !*szPenThickness) return;
; 113  : 
; 114  : 	szItem = szPenThickness;
; 115  : 	szPenThickness = strchr( szPenThickness, ';');
; 116  : 	if( szPenThickness) *szPenThickness++ = '\0';
; 117  : 	m_nThickness2 = atoi( szItem);
; 118  : 	if( !szPenThickness) return;
; 119  : 	if( !*szPenThickness) return;
; 120  : 
; 121  : 	szItem = szPenThickness;
; 122  : 	szPenThickness = strchr( szPenThickness, ';');
; 123  : 	if( szPenThickness) *szPenThickness++ = '\0';
; 124  : 	m_nThickness3 = atoi( szItem);
; 125  : 	if( !szPenThickness) return;
; 126  : 	if( !*szPenThickness) return;
; 127  : 
; 128  : 	szItem = szPenThickness;
; 129  : 	szPenThickness = strchr( szPenThickness, ';');
; 130  : 	if( szPenThickness) *szPenThickness++ = '\0';
; 131  : 	m_bIsHightlight = ( atoi( szItem) != 0);
; 132  : 	if( !szPenThickness) return;
; 133  : 	if( !*szPenThickness) return;
; 134  : 
; 135  : 	//  ,   - ojtaso (20071213)
; 136  : 	szItem = szPenThickness;
; 137  : 	szPenThickness = strchr( szPenThickness, ';');
; 138  : 	if( szPenThickness) *szPenThickness++ = '\0';
; 139  : 	m_nBaseLineThickness = atoi( szItem);
; 140  : 	if( !szPenThickness) return;
; 141  : 	if( !*szPenThickness) return;
; 142  : }
; 143  : 
; 144  : void CPenThickness::SetHightlight(const bool bIsHightlight)
; 145  : {
; 146  : 	m_bIsHightlight = bIsHightlight;
; 147  : }
; 148  : 
; 149  : void CPenThickness::SetThickness(const int nThickness1, const int nThickness2, const int nThickness3)
; 150  : {
; 151  : 	m_nThickness1 = nThickness1;
; 152  : 	m_nThickness2 = nThickness2;
; 153  : 	m_nThickness3 = nThickness3;
; 154  : }
; 155  : 
; 156  : void CPenThickness::SetThickness1(const int nThickness)
; 157  : {
; 158  : 	m_nThickness1 = nThickness;
; 159  : }
; 160  : 
; 161  : void CPenThickness::SetThickness2(const int nThickness)
; 162  : {
; 163  : 	m_nThickness2 = nThickness;
; 164  : }
; 165  : 
; 166  : void CPenThickness::SetThickness3(const int nThickness)
; 167  : {
; 168  : 	m_nThickness3 = nThickness;
; 169  : }
; 170  : 
; 171  : //  ,   - ojtaso (20071213)
; 172  : void CPenThickness::SetBaseLineThickness(const int nThickness)
; 173  : {
; 174  : 	m_nBaseLineThickness = nThickness;
; 175  : }
; 176  : 
; 177  : void CPenThickness::ReversedHightlight()
; 178  : {
; 179  : 	m_bIsHightlight = !m_bIsHightlight;
; 180  : }
; 181  : 
; 182  : // ----------------------------------------------------------------------------
; 183  : bool CPenThickness::IsHightlight() const
; 184  : {
; 185  : 	return m_bIsHightlight;
; 186  : }
; 187  : 
; 188  : int CPenThickness::GetThickness1() const
; 189  : {
; 190  : 	return m_nThickness1;
; 191  : }
; 192  : 
; 193  : int CPenThickness::GetThickness2() const
; 194  : {
; 195  : 	return m_nThickness2;
; 196  : }
; 197  : 
; 198  : int CPenThickness::GetThickness3() const
; 199  : {
; 200  : 	return m_nThickness3;
; 201  : }
; 202  : 
; 203  : int CPenThickness::GetDrawingThickness1() const
; 204  : {
; 205  : 	return GetDrawingThickness(m_nThickness1);
; 206  : }
; 207  : 
; 208  : int CPenThickness::GetDrawingThickness2() const
; 209  : {
; 210  : 	return GetDrawingThickness(m_nThickness2);
; 211  : }
; 212  : 
; 213  : int CPenThickness::GetDrawingThickness3() const
; 214  : {
; 215  : 	return GetDrawingThickness(m_nThickness3);
; 216  : }
; 217  : 
; 218  : //  ,   - ojtaso (20071213)
; 219  : int CPenThickness::GetBaseLineThickness() const
; 220  : {
; 221  : 	return m_nBaseLineThickness;
; 222  : }
; 223  : 
; 224  : void CPenThickness::GetStringData( CString &p_strPenThickness) const
; 225  : {
; 226  : 	//  ,   - ojtaso (20071213)
; 227  : 	char szThickness1[ 20], szThickness2[ 20], szThickness3[ 20], szBaseLineThickness[20];
; 228  : 	itoa( m_nThickness1, szThickness1, 10);
; 229  : 	itoa( m_nThickness2, szThickness2, 10);
; 230  : 	itoa( m_nThickness3, szThickness3, 10);
; 231  : 	//  ,   - ojtaso (20071213)
; 232  : 	itoa( m_nBaseLineThickness, szBaseLineThickness, 10);
; 233  : 
; 234  : 	int nThicknessLen1 = strlen( szThickness1); 
; 235  : 	int nThicknessLen2 = strlen( szThickness2); 
; 236  : 	int nThicknessLen3 = strlen( szThickness3); 
; 237  : 	//  ,   - ojtaso (20071213)
; 238  : 	int nBaseLineThicknessLen = strlen( szBaseLineThickness); 
; 239  : 
; 240  : 	int nPenThickness = 0;
; 241  : 	nPenThickness += nThicknessLen1;
; 242  : 	nPenThickness++;
; 243  : 	nPenThickness += nThicknessLen2;
; 244  : 	nPenThickness++;
; 245  : 	nPenThickness += nThicknessLen3;
; 246  : 	nPenThickness += 3;								// ;?;
; 247  : 	//  ,   - ojtaso (20071213)
; 248  : 	nPenThickness += nBaseLineThicknessLen;
; 249  : 	nPenThickness++;
; 250  : 
; 251  : 	char *szPenThickness = p_strPenThickness.GetBufferSetLength( nPenThickness);
; 252  : 
; 253  : 	strcpy( szPenThickness, szThickness1);
; 254  : 	szPenThickness += nThicknessLen1;
; 255  : 	*szPenThickness++ = ';';
; 256  : 
; 257  : 	strcpy( szPenThickness, szThickness2);
; 258  : 	szPenThickness += nThicknessLen2;
; 259  : 	*szPenThickness++ = ';';
; 260  : 
; 261  : 	strcpy( szPenThickness, szThickness3);
; 262  : 	szPenThickness += nThicknessLen3;
; 263  : 	*szPenThickness++ = ';';
; 264  : 
; 265  : 	*szPenThickness++ = ( m_bIsHightlight ? '1' : '0');
; 266  : 	*szPenThickness++ = ';';
; 267  : 
; 268  : 	//  ,   - ojtaso (20071213)
; 269  : 	strcpy( szPenThickness, szBaseLineThickness);
; 270  : 	szPenThickness += nBaseLineThicknessLen;
; 271  : 	*szPenThickness++ = ';';
; 272  : }
; 273  : 
; 274  : 
; 275  : // private ====================================================================
; 276  : int CPenThickness::GetDrawingThickness(const int orgPenThickness) const
; 277  : {
; 278  : 	if(!m_bIsHightlight)
; 279  : 		return orgPenThickness;
; 280  : 
; 281  : 	if(orgPenThickness < 3)
; 282  : 		return orgPenThickness *2;
; 283  : 	return orgPenThickness +2;
; 284  : }
; 285  : 
; 286  : 
; 287  : ///////////////////////////////////////////////////////////////////////////////
; 288  : // class CGraphDataDrawingData
; 289  : 
; 290  : CGraphDataDrawingData& CGraphDataDrawingData::operator=(const CGraphDataDrawingData& data)
; 291  : {
; 292  : 	if(this == &data)
; 293  : 		return *this;
; 294  : 
; 295  : 	m_bCalcRiseFallRate_LowHigh = data.DoesCalcRiseFallRate_LowHigh();
; 296  : 	m_bCalcRiseFallRate_LowCur = data.DoesCalcRiseFallRate_LowCur();
; 297  : 	m_bCalcRiseFallRate_HighCur = data.DoesCalcRiseFallRate_HighCur();
; 298  : 	m_bCalcRate_PrevCur = data.DoesCalcRate_PrevCur();
; 299  : 	m_nCalcRiseFallRate_CurData = data.GetCalcRiseFallRate_CurData();
; 300  : 	// (2009/9/12 - Seung-Won, Bae) for OHLC graph data
; 301  : 	m_bShowOHLC = data.GetShowOHLC();
; 302  : 
; 303  : 	return *this;
; 304  : }
; 305  : 
; 306  : bool CGraphDataDrawingData::operator==(const CGraphDataDrawingData& data)
; 307  : {
; 308  : 	if(this == &data)
; 309  : 		return true;
; 310  : 
; 311  : 	return (m_bCalcRiseFallRate_LowHigh == data.DoesCalcRiseFallRate_LowHigh() && 
; 312  : 		m_bCalcRiseFallRate_LowCur == data.DoesCalcRiseFallRate_LowCur() && 
; 313  : 		m_bCalcRiseFallRate_HighCur == data.DoesCalcRiseFallRate_HighCur() && 
; 314  : 		m_bCalcRate_PrevCur == data.DoesCalcRate_PrevCur() && 
; 315  : 		m_nCalcRiseFallRate_CurData == data.GetCalcRiseFallRate_CurData() &&
; 316  : 		// (2009/9/12 - Seung-Won, Bae) for OHLC graph data
; 317  : 		m_bShowOHLC == data.GetShowOHLC());
; 318  : }
; 319  : 
; 320  : CGraphDataDrawingData::CGraphDataDrawingData():
; 321  : 	m_bCalcRiseFallRate_LowHigh(false),
; 322  : 	m_bCalcRiseFallRate_LowCur(false),
; 323  : 	m_bCalcRiseFallRate_HighCur(false),
; 324  : 	m_bCalcRate_PrevCur(false),
; 325  : 	m_nCalcRiseFallRate_CurData(0),
; 326  : 	// (2009/9/12 - Seung-Won, Bae) for OHLC graph data
; 327  : 	m_bShowOHLC( FALSE)
; 328  : {
; 329  : }
; 330  : 
; 331  : CGraphDataDrawingData::CGraphDataDrawingData( const char *p_szGraphDataDrawingData):
; 332  : 	m_bCalcRiseFallRate_LowHigh(false),
; 333  : 	m_bCalcRiseFallRate_LowCur(false),
; 334  : 	m_bCalcRiseFallRate_HighCur(false),
; 335  : 	m_bCalcRate_PrevCur(false),
; 336  : 	m_nCalcRiseFallRate_CurData(0),
; 337  : 	// (2009/9/12 - Seung-Won, Bae) for OHLC graph data
; 338  : 	m_bShowOHLC( FALSE)
; 339  : {
; 340  : 	SetData( p_szGraphDataDrawingData);
; 341  : }
; 342  : 
; 343  : CGraphDataDrawingData::CGraphDataDrawingData(const bool bCalcRiseFallRate_LowHigh, const bool bCalcRiseFallRate_LowCur, 
; 344  : 	const bool bCalcRiseFallRate_HighCur, const bool bCalcRate_PrevCur, const int nCalcRiseFallRate_CurData, const BOOL p_bShowOHLC):
; 345  : 	m_bCalcRiseFallRate_LowHigh(bCalcRiseFallRate_LowHigh),
; 346  : 	m_bCalcRiseFallRate_LowCur(bCalcRiseFallRate_LowCur),
; 347  : 	m_bCalcRiseFallRate_HighCur(bCalcRiseFallRate_HighCur),
; 348  : 	m_bCalcRate_PrevCur(bCalcRate_PrevCur),
; 349  : 	m_nCalcRiseFallRate_CurData(nCalcRiseFallRate_CurData),
; 350  : 	// (2009/9/12 - Seung-Won, Bae) for OHLC graph data
; 351  : 	m_bShowOHLC( p_bShowOHLC)
; 352  : {
; 353  : }
; 354  : 
; 355  : CGraphDataDrawingData::CGraphDataDrawingData(const CGraphDataDrawingData& data):
; 356  : 	m_bCalcRiseFallRate_LowHigh(data.DoesCalcRiseFallRate_LowHigh()),
; 357  : 	m_bCalcRiseFallRate_LowCur(data.DoesCalcRiseFallRate_LowCur()),
; 358  : 	m_bCalcRiseFallRate_HighCur(data.DoesCalcRiseFallRate_HighCur()),
; 359  : 	m_bCalcRate_PrevCur(data.DoesCalcRate_PrevCur()),
; 360  : 	m_nCalcRiseFallRate_CurData(data.GetCalcRiseFallRate_CurData()),
; 361  : 	// (2009/9/12 - Seung-Won, Bae) for OHLC graph data
; 362  : 	m_bShowOHLC( data.GetShowOHLC())
; 363  : {
; 364  : }
; 365  : 
; 366  : // (2006/5/9 - Seung-Won, Bae) Clear Data
; 367  : void CGraphDataDrawingData::ClearData( void)
; 368  : {
; 369  : 	m_bCalcRiseFallRate_LowHigh	= false;
; 370  : 	m_bCalcRiseFallRate_LowCur	= false;
; 371  : 	m_bCalcRiseFallRate_HighCur	= false;
; 372  : 	m_bCalcRate_PrevCur			= false;
; 373  : 	m_nCalcRiseFallRate_CurData	= 0;
; 374  : 	// (2009/9/12 - Seung-Won, Bae) for OHLC graph data
; 375  : 	m_bShowOHLC					= FALSE;
; 376  : }
; 377  : 
; 378  : // public =====================================================================
; 379  : void CGraphDataDrawingData::SetDoesCalcRiseFallRate_LowHigh(const bool bCalcData)
; 380  : {
; 381  : 	m_bCalcRiseFallRate_LowHigh = bCalcData;
; 382  : }
; 383  : 
; 384  : void CGraphDataDrawingData::SetDoesCalcRiseFallRate_LowCur(const bool bCalcData)
; 385  : {
; 386  : 	m_bCalcRiseFallRate_LowCur = bCalcData;
; 387  : }
; 388  : 
; 389  : void CGraphDataDrawingData::SetDoesCalcRiseFallRate_HighCur(const bool bCalcData)
; 390  : {
; 391  : 	m_bCalcRiseFallRate_HighCur = bCalcData;
; 392  : }
; 393  : 
; 394  : void CGraphDataDrawingData::SetDoesCalcRate_PrevCur(const bool bCalcData)
; 395  : {
; 396  : 	m_bCalcRate_PrevCur = bCalcData;
; 397  : }
; 398  : 
; 399  : void CGraphDataDrawingData::SetCalcRiseFallRate_CurData(const int nCalcData)
; 400  : {
; 401  : 	m_nCalcRiseFallRate_CurData = nCalcData;
; 402  : }
; 403  : 
; 404  : // (2009/9/12 - Seung-Won, Bae) for OHLC graph data
; 405  : void CGraphDataDrawingData::SetShowOHLC( const BOOL p_bShowOHLC)
; 406  : {
; 407  : 	m_bShowOHLC	= p_bShowOHLC;
; 408  : }
; 409  : 
; 410  : // ----------------------------------------------------------------------------
; 411  : bool CGraphDataDrawingData::DoesAllDefaultData() const
; 412  : {
; 413  : 	return (m_bCalcRiseFallRate_LowHigh == false && 
; 414  : 		m_bCalcRiseFallRate_LowCur == false && 
; 415  : 		m_bCalcRiseFallRate_HighCur == false && 
; 416  : 		m_bCalcRate_PrevCur == false && 
; 417  : 		m_nCalcRiseFallRate_CurData == 0);
; 418  : }
; 419  : 
; 420  : bool CGraphDataDrawingData::DoesCalcRiseFallRate_LowHigh() const
; 421  : {
; 422  : 	return m_bCalcRiseFallRate_LowHigh;
; 423  : }
; 424  : 
; 425  : bool CGraphDataDrawingData::DoesCalcRiseFallRate_LowCur() const
; 426  : {
; 427  : 	return m_bCalcRiseFallRate_LowCur;
; 428  : }
; 429  : 
; 430  : bool CGraphDataDrawingData::DoesCalcRiseFallRate_HighCur() const
; 431  : {
; 432  : 	return m_bCalcRiseFallRate_HighCur;
; 433  : }
; 434  : 
; 435  : bool CGraphDataDrawingData::DoesCalcRate_PrevCur() const
; 436  : {
; 437  : 	return m_bCalcRate_PrevCur;
; 438  : }
; 439  : 
; 440  : int CGraphDataDrawingData::GetCalcRiseFallRate_CurData() const
; 441  : {
; 442  : 	return m_nCalcRiseFallRate_CurData;
; 443  : }
; 444  : 
; 445  : // (2009/9/12 - Seung-Won, Bae) for OHLC graph data
; 446  : BOOL CGraphDataDrawingData::GetShowOHLC( void) const
; 447  : {
; 448  : 	return m_bShowOHLC;
; 449  : }
; 450  : 
; 451  : // graph data 
; 452  : void CGraphDataDrawingData::GetData( CString &p_strGraphDataDrawingData) const
; 453  : {
; 454  : 	char *szGraphDataDrawingData = p_strGraphDataDrawingData.GetBufferSetLength( 12);	// Do not set 13, It has default NULL Terminator.
; 455  : 	szGraphDataDrawingData[  0] = ( m_bCalcRiseFallRate_LowHigh			? '1' : '0');
; 456  : 	szGraphDataDrawingData[  1] = ';';
; 457  : 	szGraphDataDrawingData[  2] = ( m_bCalcRiseFallRate_LowCur			? '1' : '0');
; 458  : 	szGraphDataDrawingData[  3] = ';';
; 459  : 	szGraphDataDrawingData[  4] = ( m_bCalcRiseFallRate_HighCur			? '1' : '0');
; 460  : 	szGraphDataDrawingData[  5] = ';';
; 461  : 	szGraphDataDrawingData[  6] = ( m_bCalcRate_PrevCur					? '1' : '0');
; 462  : 	szGraphDataDrawingData[  7] = ';';
; 463  : 	szGraphDataDrawingData[  8] = '0' + m_nCalcRiseFallRate_CurData;
; 464  : 	szGraphDataDrawingData[  9] = ';';
; 465  : 	szGraphDataDrawingData[ 10] = '0' + m_bShowOHLC;	// (2009/9/12 - Seung-Won, Bae) for OHLC graph data
; 466  : 	szGraphDataDrawingData[ 11] = ';';
; 467  : 	szGraphDataDrawingData[ 12] = '\0';
; 468  : }
; 469  : 
; 470  : 
; 471  : // private ====================================================================
; 472  : void CGraphDataDrawingData::SetData( const char *p_szGraphDataDrawingData)
; 473  : {
; 474  : 	if( !p_szGraphDataDrawingData) return;
; 475  : 	if( !*p_szGraphDataDrawingData) return;
; 476  : 
; 477  : 	CString strGraphDataDrawingData;
; 478  : 	int nGraphDataDrawingDataLen = strlen( p_szGraphDataDrawingData);
; 479  : 	char *szGraphDataDrawingData = strGraphDataDrawingData.GetBufferSetLength( nGraphDataDrawingDataLen + 1);
; 480  : 	strcpy( szGraphDataDrawingData, p_szGraphDataDrawingData);
; 481  : 	if( szGraphDataDrawingData[ nGraphDataDrawingDataLen - 1] != ';')
; 482  : 	{
; 483  : 		szGraphDataDrawingData[ nGraphDataDrawingDataLen] = ';';
; 484  : 		szGraphDataDrawingData[ nGraphDataDrawingDataLen + 1] = '\0';
; 485  : 	}
; 486  : 
; 487  : 	char *szItem = szGraphDataDrawingData;
; 488  : 	szGraphDataDrawingData = strchr( szGraphDataDrawingData, ';');
; 489  : 	if( szGraphDataDrawingData) *szGraphDataDrawingData++ = '\0';
; 490  : 	m_bCalcRiseFallRate_LowHigh = ( atoi( szItem) != 0);
; 491  : 	if( !szGraphDataDrawingData) return;
; 492  : 	if( !*szGraphDataDrawingData) return;
; 493  : 
; 494  : 	szItem = szGraphDataDrawingData;
; 495  : 	szGraphDataDrawingData = strchr( szGraphDataDrawingData, ';');
; 496  : 	if( szGraphDataDrawingData) *szGraphDataDrawingData++ = '\0';
; 497  : 	m_bCalcRiseFallRate_LowCur = ( atoi( szItem) != 0);
; 498  : 	if( !szGraphDataDrawingData) return;
; 499  : 	if( !*szGraphDataDrawingData) return;
; 500  : 
; 501  : 	szItem = szGraphDataDrawingData;
; 502  : 	szGraphDataDrawingData = strchr( szGraphDataDrawingData, ';');
; 503  : 	if( szGraphDataDrawingData) *szGraphDataDrawingData++ = '\0';
; 504  : 	m_bCalcRiseFallRate_HighCur = ( atoi( szItem) != 0);
; 505  : 	if( !szGraphDataDrawingData) return;
; 506  : 	if( !*szGraphDataDrawingData) return;
; 507  : 
; 508  : 	szItem = szGraphDataDrawingData;
; 509  : 	szGraphDataDrawingData = strchr( szGraphDataDrawingData, ';');
; 510  : 	if( szGraphDataDrawingData) *szGraphDataDrawingData++ = '\0';
; 511  : 	m_bCalcRate_PrevCur = ( atoi( szItem) != 0);
; 512  : 	if( !szGraphDataDrawingData) return;
; 513  : 	if( !*szGraphDataDrawingData) return;
; 514  : 
; 515  : 	szItem = szGraphDataDrawingData;
; 516  : 	szGraphDataDrawingData = strchr( szGraphDataDrawingData, ';');
; 517  : 	if( szGraphDataDrawingData) *szGraphDataDrawingData++ = '\0';
; 518  : 	m_nCalcRiseFallRate_CurData = atoi( szItem);
; 519  : 	if( !szGraphDataDrawingData) return;
; 520  : 	if( !*szGraphDataDrawingData) return;
; 521  : 
; 522  : 	// (2009/9/12 - Seung-Won, Bae) for OHLC graph data
; 523  : 	szItem = szGraphDataDrawingData;
; 524  : 	szGraphDataDrawingData = strchr( szGraphDataDrawingData, ';');
; 525  : 	if( szGraphDataDrawingData) *szGraphDataDrawingData++ = '\0';
; 526  : 	m_bShowOHLC = atoi( szItem);
; 527  : 	if( !szGraphDataDrawingData) return;
; 528  : 	if( !*szGraphDataDrawingData) return;
; 529  : }
; 530  : 
; 531  : ///////////////////////////////////////////////////////////////////////////////
; 532  : // class CSignalData
; 533  : 
; 534  : CSignalData& CSignalData::operator=(const CSignalData& data)
; 535  : {
; 536  : 	if(this == &data)
; 537  : 		return *this;
; 538  : 
; 539  : 	m_bIsUse = data.IsUse();
; 540  : 	m_bIsShow = data.IsShow();
; 541  : 	return *this;
; 542  : }
; 543  : 
; 544  : bool CSignalData::operator==(const CSignalData& data)
; 545  : {
; 546  : 	if(this == &data)
; 547  : 		return true;
; 548  : 
; 549  : 	return (m_bIsUse == data.IsUse() && m_bIsShow == data.IsShow());
; 550  : }
; 551  : 
; 552  : CSignalData::CSignalData(const bool bIsUse, const bool bIsShow):
; 553  : 	m_bIsUse(bIsUse),
; 554  : 	m_bIsShow(bIsShow)
; 555  : {
; 556  : 	// (2009/10/7 - Seung-Won, Bae) for Signal Arrow Drawing Cache.
; 557  : 	m_pSignalCache = NULL;
; 558  : }
; 559  : 
; 560  : CSignalData::CSignalData( const char *p_szSignalData)
; 561  : {
; 562  : 	SetData( p_szSignalData);
; 563  : 
; 564  : 	// (2009/10/7 - Seung-Won, Bae) for Signal Arrow Drawing Cache.
; 565  : 	m_pSignalCache = NULL;
; 566  : }
; 567  : 
; 568  : CSignalData::CSignalData(const CSignalData& data) : 
; 569  : 	m_bIsUse(data.IsUse()),
; 570  : 	m_bIsShow(data.IsShow())
; 571  : {
; 572  : 	// (2009/10/7 - Seung-Won, Bae) for Signal Arrow Drawing Cache.
; 573  : 	m_pSignalCache = NULL;
; 574  : }
; 575  : 
; 576  : // (2009/10/7 - Seung-Won, Bae) for Signal Arrow Drawing Cache.
; 577  : CSignalData::~CSignalData()
; 578  : {
; 579  : 	ClearCalcDataForDraw();
; 580  : }
; 581  : 
; 582  : // (2006/5/9 - Seung-Won, Bae) Clear Data
; 583  : void CSignalData::ClearData( void)
; 584  : {
; 585  : 	m_bIsUse	= false;
; 586  : 	m_bIsShow	= false;
; 587  : }
; 588  : 
; 589  : // public =====================================================================
; 590  : void CSignalData::SetUse(const bool bIsUse)
; 591  : {
; 592  : 	m_bIsUse = bIsUse;
; 593  : }
; 594  : 
; 595  : void CSignalData::SetShow(const bool bIsShow)
; 596  : {
; 597  : 	m_bIsShow = bIsShow;
; 598  : }
; 599  : 
; 600  : // ----------------------------------------------------------------------------
; 601  : bool CSignalData::IsUse() const
; 602  : {
; 603  : 	return m_bIsUse;
; 604  : }
; 605  : 
; 606  : bool CSignalData::IsShow() const
; 607  : {
; 608  : 	return m_bIsShow;
; 609  : }
; 610  : 
; 611  : bool CSignalData::IsDraw() const
; 612  : {
; 613  : 	if(!m_bIsUse)
; 614  : 		return false;
; 615  : 	return m_bIsShow;
; 616  : }
; 617  : 
; 618  : 
; 619  : // ----------------------------------------------------------------------------
; 620  : void CSignalData::GetData( CString &p_strSignalData) const
; 621  : {
; 622  : 	char *szSignalData = p_strSignalData.GetBufferSetLength( 4);	// Do not set 5, It has default NULL Terminator.
; 623  : 	szSignalData[ 0] = ( m_bIsUse	? '1' : '0');
; 624  : 	szSignalData[ 1] = ':';
; 625  : 	szSignalData[ 2] = ( m_bIsShow	? '1' : '0');
; 626  : 	szSignalData[ 3] = ';';
; 627  : 	szSignalData[ 4] = '\0';
; 628  : }
; 629  : 
; 630  : 
; 631  : // private ====================================================================
; 632  : void CSignalData::SetData( const char *p_szSignalData)
; 633  : {
; 634  : 	if( !p_szSignalData) return;
; 635  : 	if( !*p_szSignalData) return;
; 636  : 
; 637  : 	CString strSignalData;
; 638  : 	int nSignalDataLen = strlen( p_szSignalData);
; 639  : 	char *szSignalData = strSignalData.GetBufferSetLength( nSignalDataLen + 1);
; 640  : 	strcpy( szSignalData, p_szSignalData);
; 641  : 	if( szSignalData[ nSignalDataLen - 1] != ';')
; 642  : 	{
; 643  : 		szSignalData[ nSignalDataLen] = ';';
; 644  : 		szSignalData[ nSignalDataLen + 1] = '\0';
; 645  : 	}
; 646  : 
; 647  : 	// "signal:signal;"
; 648  : 	// signal
; 649  : 	char *szItem = szSignalData;
; 650  : 	szSignalData = strchr( szSignalData, ':');
; 651  : 	if( szSignalData) *szSignalData++ = '\0';
; 652  : 	m_bIsUse = ( atoi( szItem) != 0);
; 653  : 	if( !szSignalData) return;
; 654  : 	if( !*szSignalData) return;
; 655  : 	// signal
; 656  : 	szItem = szSignalData;
; 657  : 	szSignalData = strchr( szSignalData, ';');
; 658  : 	if( szSignalData) *szSignalData++ = '\0';
; 659  : 	m_bIsShow = ( atoi( szItem) != 0);
; 660  : 	if( !szSignalData) return;
; 661  : 	if( !*szSignalData) return;
; 662  : }
; 663  : 
; 664  : // (2009/10/7 - Seung-Won, Bae) for Signal Arrow Drawing Cache.
; 665  : void CSignalData::ClearCalcDataForDraw( void)
; 666  : {
; 667  : 	if( m_pSignalCache)
; 668  : 	{
; 669  : 		delete m_pSignalCache;
; 670  : 		m_pSignalCache = NULL;
; 671  : 	}
; 672  : }
; 673  : 
; 674  : 
; 675  : ///////////////////////////////////////////////////////////////////////////////
; 676  : // class CGraphData
; 677  : 
; 678  : CGraphData& CGraphData::operator=(const CGraphData& data)
; 679  : {
; 680  : 	if(this == &data) return *this;
; 681  : 
; 682  : 	m_strIndicatorName		= data.m_strIndicatorName;
; 683  : 	m_strGraphName			= data.m_strGraphName;
; 684  : 	m_strPacketName			= data.m_strPacketName;
; 685  : 	m_signalData			= data.m_signalData;
; 686  : 	m_graphDataDrawingData	= data.m_graphDataDrawingData;
; 687  : 
; 688  : 	return *this;
; 689  : }
; 690  : 
; 691  : // (2006/5/9 - Seung-Won, Bae) Clear Data
; 692  : void CGraphData::ClearData( void)
; 693  : {
; 694  : 	m_strIndicatorName.Empty();
; 695  : 	m_strGraphName.Empty();
; 696  : 	m_strPacketName.Empty();
; 697  : 	m_signalData.ClearData();
; 698  : 	m_graphDataDrawingData.ClearData();
; 699  : }
; 700  : 
; 701  : void CGraphData::SetPacketNames(const CString& packetNames)
; 702  : {
; 703  : 	if(m_strPacketName == packetNames)
; 704  : 		return;
; 705  : 
; 706  : 	m_strPacketName = packetNames;
; 707  : }
; 708  : 
; 709  : void CGraphData::SetSignalData(const CSignalData& signalData)
; 710  : {
; 711  : 	m_signalData = signalData;
; 712  : }
; 713  : 
; 714  : void CGraphData::SetSignalData(const bool bIsUse, const bool bIsShow)
; 715  : {
; 716  : 	m_signalData.SetUse(bIsUse);
; 717  : 	m_signalData.SetShow(bIsShow);
; 718  : }
; 719  : 
; 720  : void CGraphData::SetGraphDataDrawingData(const CGraphDataDrawingData& drawingData)
; 721  : {
; 722  : 	m_graphDataDrawingData = drawingData;
; 723  : }
; 724  : 
; 725  : CString CGraphData::GetPacketNames() const
; 726  : {
; 727  : 	return m_strPacketName;
; 728  : }
; 729  : 
; 730  : CSignalData CGraphData::GetSignalData() const
; 731  : {
; 732  : 	return m_signalData;
; 733  : }
; 734  : 
; 735  : CSignalData& CGraphData::GetSignalData()
; 736  : {
; 737  : 	return m_signalData;
; 738  : }
; 739  : 
; 740  : bool CGraphData::IsSignalUse() const
; 741  : {
; 742  : 	return m_signalData.IsUse();
; 743  : }
; 744  : 
; 745  : bool CGraphData::IsSignalShow() const
; 746  : {
; 747  : 	return m_signalData.IsShow();
; 748  : }
; 749  : 
; 750  : CGraphDataDrawingData CGraphData::GetGraphDataDrawingData() const
; 751  : {
; 752  : 	return m_graphDataDrawingData;
; 753  : }
; 754  : 
; 755  : CGraphDataDrawingData& CGraphData::GetGraphDataDrawingData()
; 756  : {
; 757  : 	return m_graphDataDrawingData;
; 758  : }
; 759  : 
; 760  : // (2006/9/6 - Seung-Won, Bae) Map Design Info.
; 761  : CGraphData::CGraphData( const char *p_szGraphData, HWND p_hOcxWnd)
; 762  : {
; 763  : 	if( !p_szGraphData) return;
; 764  : 	if( !*p_szGraphData) return;
; 765  : 
; 766  : 	// "index;;,,,;signal(:);
; 767  : 	//  ;;;;;
; 768  : 	//  ;;;(0:,1:/,2:(),());\r\n"
; 769  : 	CString strGraphData;
; 770  : 	int nGraphDataLen = strlen( p_szGraphData);
; 771  : 	char *szGraphData = strGraphData.GetBufferSetLength( nGraphDataLen);
; 772  : 	strcpy( szGraphData, p_szGraphData);
; 773  : 	// (2006/10/26 - Seung-Won, Bae) Skip Function Index;
; 774  : 	szGraphData = strchr( szGraphData, ';');	// m_nFunctionIndex = atoi(CDataConversion::GetStringData(strRealData, ";")); // function index
; 775  : 	if( !szGraphData) return;
; 776  : 	szGraphData++;
; 777  : 	// graph function name
; 778  : 	char *szItem = szGraphData;
; 779  : 	szGraphData = strchr( szGraphData, ';');	// m_nFunctionIndex = atoi(CDataConversion::GetStringData(strRealData, ";")); // function index
; 780  : 	if( szGraphData) *szGraphData++ = '\0';
; 781  : 	m_strIndicatorName = _MTOM2( szItem);
; 782  : 	if( !szGraphData) return;
; 783  : 	if( !*szGraphData) return;
; 784  : 	// (2006/11/29 - Seung-Won, Bae) Support Graph Name for Binding with Indicator Info.
; 785  : 	if( strncmp( szGraphData, "G:", 2)) m_strGraphName = m_strIndicatorName;
; 786  : 	else
; 787  : 	{
; 788  : 		szItem = szGraphData + 2;
; 789  : 		szGraphData = strchr( szGraphData, ';');
; 790  : 		if( szGraphData) *szGraphData++ = '\0';
; 791  : 		m_strGraphName = _MTOM2( szItem);		// (2008/2/22 - Seung-Won, Bae) The first default Graph Name is Indicator Name.
; 792  : 		if( !szGraphData) return;
; 793  : 		if( !*szGraphData) return;
; 794  : 	}
; 795  : 	// packet name
; 796  : 	szItem = szGraphData;
; 797  : 	szGraphData = strchr( szGraphData, ';');
; 798  : 	if( szGraphData) *szGraphData++ = '\0';
; 799  : 	_MHWND( p_hOcxWnd);
; 800  : 	if( strchr( szItem, '('))	m_strPacketName = _STOMS( szItem, ",(+)/23", 0);
; 801  : 	else						m_strPacketName = _STOMS( szItem, ",", 0);
; 802  : 	if( !szGraphData) return;
; 803  : 	if( !*szGraphData) return;
; 804  : 	// Signal
; 805  : 	szItem = szGraphData;
; 806  : 	szGraphData = strchr( szGraphData, ';');
; 807  : 	if( szGraphData) *szGraphData++ = '\0';
; 808  : 	m_signalData = CSignalData( szItem);
; 809  : 	if( !szGraphData) return;
; 810  : 	if( !*szGraphData) return;
; 811  : 	// Graph Drawing Data
; 812  : 	szItem = szGraphData;
; 813  : 	int i = 0;
; 814  : 	do
; 815  : 	{
; 816  : 		szGraphData = strchr( szGraphData, ';');
; 817  : 		if( !szGraphData) continue;
; 818  : 		i++;
; 819  : 		szGraphData++;
; 820  : 	} while( szGraphData && i < 6);
; 821  : 	if( szGraphData) *szGraphData = '\0';
; 822  : 	m_graphDataDrawingData = CGraphDataDrawingData( szItem);
; 823  : }
; 824  : 
; 825  : //   :  - ojtaso (20070507)
; 826  : void CGraphData::GetData( CString &p_strGraphData, LPCTSTR lpszRQ/* = NULL*/) const
; 827  : {
; 828  : 	CString strSingalData;
; 829  : 	m_signalData.GetData( strSingalData);
; 830  : 
; 831  : 	CString strGraphDataDrawingData;
; 832  : 	m_graphDataDrawingData.GetData( strGraphDataDrawingData);
; 833  : 	
; 834  : 	int nGraphDataLen = 0;									//
; 835  : 	nGraphDataLen++;										// ;
; 836  : 	nGraphDataLen += m_strIndicatorName.GetLength();		// Indicator Name
; 837  : 	nGraphDataLen += 3;										// ;G:
; 838  : 	nGraphDataLen += m_strGraphName.GetLength();			// Graph Name
; 839  : 	nGraphDataLen++;										// ;
; 840  : 	nGraphDataLen += m_strPacketName.GetLength();			// Packet Name
; 841  : 	nGraphDataLen++;										// ;
; 842  : 	nGraphDataLen += strSingalData.GetLength();				// Singal Data
; 843  : 	nGraphDataLen += strGraphDataDrawingData.GetLength();	// Graph Data Drawing Data
; 844  : 	//   :  - ojtaso (20070507)
; 845  : 	if(lpszRQ)
; 846  : 	{
; 847  : 		nGraphDataLen += 3;										// RQ:
; 848  : 		nGraphDataLen += ::lstrlen(lpszRQ);
; 849  : 	}
; 850  : 	nGraphDataLen += 2;										// \r\n (Do not add NULL Terminator size. It has that with default)
; 851  : 	char *szGraphData = p_strGraphData.GetBufferSetLength( nGraphDataLen);
; 852  : 
; 853  : 	*szGraphData++ = ';';
; 854  : 
; 855  : 	strcpy( szGraphData, m_strIndicatorName);
; 856  : 	szGraphData += m_strIndicatorName.GetLength();
; 857  : 
; 858  : 	*szGraphData++ = ';';
; 859  : 	*szGraphData++ = 'G';
; 860  : 	*szGraphData++ = ':';
; 861  : 
; 862  : 	strcpy( szGraphData, m_strGraphName);
; 863  : 	szGraphData += m_strGraphName.GetLength();
; 864  : 
; 865  : 	*szGraphData++ = ';';
; 866  : 
; 867  : 	strcpy( szGraphData, m_strPacketName);
; 868  : 	szGraphData += m_strPacketName.GetLength();
; 869  : 
; 870  : 	*szGraphData++ = ';';
; 871  : 
; 872  : 	strcpy( szGraphData, strSingalData);
; 873  : 	szGraphData += strSingalData.GetLength();
; 874  : 
; 875  : 	strcpy( szGraphData, strGraphDataDrawingData);
; 876  : 	szGraphData += strGraphDataDrawingData.GetLength();
; 877  : 
; 878  : 	//   :  - ojtaso (20070507)
; 879  : 	if(lpszRQ)
; 880  : 	{
; 881  : 		strcpy( szGraphData, _T("RQ:"));
; 882  : 		szGraphData += 3;
; 883  : 		strcpy( szGraphData, lpszRQ);
; 884  : 		szGraphData += ::lstrlen(lpszRQ);
; 885  : 	}
; 886  : 
; 887  : 	*szGraphData++ = '\r';
; 888  : 	*szGraphData++ = '\n';
; 889  : 	*szGraphData++ = '\0';
; 890  : }
; 891  : 
; 892  : ///////////////////////////////////////////////////////////////////////////////
; 893  : // class CSubGraphDataBase
; 894  : 
; 895  : CSubGraphDataBase& CSubGraphDataBase::operator=(const CSubGraphDataBase& data)
; 896  : {
; 897  : 	if(this == &data)
; 898  : 		return *this;
; 899  : 
; 900  : 	m_nTitleEndPosition = data.GetTitleEndPosition();
; 901  : 	m_nTitleEndLine = data.GetTitleEndLine();
; 902  : 	m_TYPEType = data.GetType();
; 903  : 	m_nStyle = data.GetStyle();
; 904  : 	m_nDrawStyle = data.GetDrawStyle();
; 905  : 	m_strName = data.GetName();
; 906  : 	m_strTitle = data.GetTitle();
; 907  : 	m_bHiding = data.m_bHiding;
; 908  : 	m_clrColor = data.GetColor();
; 909  : 	m_penThickness = data.GetPenThickness();
; 910  : 	//   :  - ojtaso (20070625)
; 911  : 	m_strItemName = data.GetItemName();
; 912  : 	m_nSubGraphIndex = data.GetSubGraphIndex();	//     - ojtaso (20071116)
; 913  : 	m_nPaintStyle = data.GetPaintStyle();		// Singbar Graph    - ojtaso (20071121)
; 914  : 	m_nBaseLineStyle = data.GetBaseLineDrawStyle();		//  ,   - ojtaso (20071213)
; 915  : 	
; 916  : 	// KTB  - ojtaso (20091019)
; 917  : 	const CArray<ST_HORZLINE*, ST_HORZLINE*>& arrInfo = data.GetHorizontalLine();
; 918  : 	m_arrHorzLine.Copy(arrInfo);	
; 919  : 	return *this;
; 920  : }
; 921  : 
; 922  : CSubGraphDataBase::CSubGraphDataBase():
; 923  : 	m_nTitleEndPosition(0),
; 924  : 	m_nTitleEndLine(1), 	//    :  - ojtaso (20070227)
; 925  : 	m_TYPEType(CGraphBaseData::GTNONE),
; 926  : 	m_bHiding(true)
; 927  : {
; 928  : }
; 929  : 
; 930  : // Singbar Graph    - ojtaso (20071121)
; 931  : //  ,   - ojtaso (20071213)
; 932  : CSubGraphDataBase::CSubGraphDataBase(const CGraphBaseData::GRAPHTYPE type, const CGraphStyle& style, const CGraphDrawStyle& drawStyle, const CString& name, const CString& title, const bool hiding, const CGraphColor& color, const CPenThickness& penThickness, const CGraphPaintStyle& paintStyle, const CGraphBaseLineStyle& baseLineStyle):
; 933  : 	m_nTitleEndPosition(0),
; 934  : 	m_nTitleEndLine(1), 	//    :  - ojtaso (20070227)
; 935  : 	m_TYPEType(type),

  0002a	8b 45 08	 mov	 eax, DWORD PTR _type$[ebp]

; 936  : 	m_nStyle(style),
; 937  : 	m_nDrawStyle(drawStyle),
; 938  : 	m_strName(name),

  0002d	8d 4f 1c	 lea	 ecx, DWORD PTR [edi+28]
  00030	89 47 08	 mov	 DWORD PTR [edi+8], eax
  00033	8b 45 0c	 mov	 eax, DWORD PTR _style$[ebp]
  00036	ff 75 14	 push	 DWORD PTR _name$[ebp]
  00039	c7 07 00 00 00
	00		 mov	 DWORD PTR [edi], 0
  0003f	c7 47 04 01 00
	00 00		 mov	 DWORD PTR [edi+4], 1
  00046	8b 00		 mov	 eax, DWORD PTR [eax]
  00048	89 47 0c	 mov	 DWORD PTR [edi+12], eax
  0004b	8b 45 10	 mov	 eax, DWORD PTR _drawStyle$[ebp]
  0004e	8b 00		 mov	 eax, DWORD PTR [eax]
  00050	89 47 10	 mov	 DWORD PTR [edi+16], eax

; 944  : 	m_nPaintStyle(paintStyle),		// Singbar Graph    - ojtaso (20071121)

  00053	8b 45 28	 mov	 eax, DWORD PTR _paintStyle$[ebp]
  00056	8b 00		 mov	 eax, DWORD PTR [eax]
  00058	89 47 14	 mov	 DWORD PTR [edi+20], eax

; 945  : 	m_nBaseLineStyle(baseLineStyle)		//  ,   - ojtaso (20071213)

  0005b	8b 45 2c	 mov	 eax, DWORD PTR _baseLineStyle$[ebp]
  0005e	8b 00		 mov	 eax, DWORD PTR [eax]
  00060	89 47 18	 mov	 DWORD PTR [edi+24], eax
  00063	ff 15 00 00 00
	00		 call	 DWORD PTR __imp_??0?$CStringT@DV?$StrTraitMFC_DLL@DV?$ChTraitsCRT@D@ATL@@@@@ATL@@QAE@ABV01@@Z
  00069	ff 75 18	 push	 DWORD PTR _title$[ebp]
  0006c	8d 4f 20	 lea	 ecx, DWORD PTR [edi+32]
  0006f	c7 45 fc 00 00
	00 00		 mov	 DWORD PTR __$EHRec$[ebp+8], 0
  00076	ff 15 00 00 00
	00		 call	 DWORD PTR __imp_??0?$CStringT@DV?$StrTraitMFC_DLL@DV?$ChTraitsCRT@D@ATL@@@@@ATL@@QAE@ABV01@@Z

; 939  : 	m_strTitle(title),
; 940  : 	m_bHiding(hiding),

  0007c	8a 45 1c	 mov	 al, BYTE PTR _hiding$[ebp]

; 941  : 	m_clrColor(color),

  0007f	8d 4f 28	 lea	 ecx, DWORD PTR [edi+40]
  00082	ff 75 20	 push	 DWORD PTR _color$[ebp]
  00085	c6 45 fc 01	 mov	 BYTE PTR __$EHRec$[ebp+8], 1
  00089	88 47 24	 mov	 BYTE PTR [edi+36], al
  0008c	e8 00 00 00 00	 call	 ??0CGraphColor@@QAE@ABV0@@Z ; CGraphColor::CGraphColor

; 78   : 	m_bIsHightlight(data.IsHightlight()),

  00091	8b 4d 24	 mov	 ecx, DWORD PTR _penThickness$[ebp]
  00094	0f b6 01	 movzx	 eax, BYTE PTR [ecx]
  00097	88 47 54	 mov	 BYTE PTR [edi+84], al

; 75   : 	m_nThickness1(data.GetThickness1()),

  0009a	8b 41 04	 mov	 eax, DWORD PTR [ecx+4]
  0009d	89 47 58	 mov	 DWORD PTR [edi+88], eax

; 76   : 	m_nThickness2(data.GetThickness2()),

  000a0	8b 41 08	 mov	 eax, DWORD PTR [ecx+8]
  000a3	89 47 5c	 mov	 DWORD PTR [edi+92], eax

; 77   : 	m_nThickness3(data.GetThickness3()),

  000a6	8b 41 0c	 mov	 eax, DWORD PTR [ecx+12]
  000a9	89 47 60	 mov	 DWORD PTR [edi+96], eax

; 79   : 	//  ,   - ojtaso (20071213)
; 80   : 	m_nBaseLineThickness(data.GetBaseLineThickness())

  000ac	8b 41 10	 mov	 eax, DWORD PTR [ecx+16]

; 946  : {

  000af	8d 4f 68	 lea	 ecx, DWORD PTR [edi+104]

; 80   : 	m_nBaseLineThickness(data.GetBaseLineThickness())

  000b2	89 47 64	 mov	 DWORD PTR [edi+100], eax

; 946  : {

  000b5	ff 15 00 00 00
	00		 call	 DWORD PTR __imp_??0?$CStringT@DV?$StrTraitMFC_DLL@DV?$ChTraitsCRT@D@ATL@@@@@ATL@@QAE@XZ

; 942  : 	m_penThickness(penThickness),
; 943  : 	m_nSubGraphIndex(-1),	//     - ojtaso (20071116)

  000bb	c7 47 6c ff ff
	ff ff		 mov	 DWORD PTR [edi+108], -1

; 948  : 	m_strItemName.Empty();

  000c2	8d 4f 68	 lea	 ecx, DWORD PTR [edi+104]
; File C:\Program Files (x86)\Microsoft Visual Studio\2019\Community\VC\Tools\MSVC\14.29.30133\atlmfc\include\afxtempl.h

; 348  : {

  000c5	c7 47 70 00 00
	00 00		 mov	 DWORD PTR [edi+112], OFFSET ??_7?$CArray@PAU_ST_HORZLINE@@PAU1@@@6B@

; 349  : 	m_pData = NULL;

  000cc	c7 47 74 00 00
	00 00		 mov	 DWORD PTR [edi+116], 0

; 350  : 	m_nSize = m_nMaxSize = m_nGrowBy = 0;

  000d3	c7 87 80 00 00
	00 00 00 00 00	 mov	 DWORD PTR [edi+128], 0
  000dd	c7 47 7c 00 00
	00 00		 mov	 DWORD PTR [edi+124], 0
  000e4	c7 47 78 00 00
	00 00		 mov	 DWORD PTR [edi+120], 0
; File D:\git\src\IBK\IBK_DRFN\ProjSrc\SrcChartEx\ChartOCX\IndicatorCondition\GraphData.cpp

; 948  : 	m_strItemName.Empty();

  000eb	ff 15 00 00 00
	00		 call	 DWORD PTR __imp_?Empty@?$CSimpleStringT@D$00@ATL@@QAEXXZ

; 949  : }

  000f1	8b c7		 mov	 eax, edi
  000f3	8b 4d f4	 mov	 ecx, DWORD PTR __$EHRec$[ebp]
  000f6	64 89 0d 00 00
	00 00		 mov	 DWORD PTR fs:0, ecx
  000fd	59		 pop	 ecx
  000fe	5f		 pop	 edi
  000ff	5e		 pop	 esi
  00100	8b e5		 mov	 esp, ebp
  00102	5d		 pop	 ebp
  00103	c2 28 00	 ret	 40			; 00000028H
_TEXT	ENDS
;	COMDAT text$x
text$x	SEGMENT
__unwindfunclet$??0CSubGraphDataBase@@QAE@W4GRAPHTYPE@CGraphBaseData@@ABVCGraphStyle@@ABVCGraphDrawStyle@@ABV?$CStringT@DV?$StrTraitMFC_DLL@DV?$ChTraitsCRT@D@ATL@@@@@ATL@@3_NABVCGraphColor@@ABVCPenThickness@@ABVCGraphPaintStyle@@ABVCGraphBaseLineStyle@@@Z$0:
  00000	8b 4d f0	 mov	 ecx, DWORD PTR _this$[ebp]
  00003	83 c1 1c	 add	 ecx, 28			; 0000001cH
  00006	ff 25 00 00 00
	00		 jmp	 DWORD PTR __imp_??1?$CStringT@DV?$StrTraitMFC_DLL@DV?$ChTraitsCRT@D@ATL@@@@@ATL@@QAE@XZ
__unwindfunclet$??0CSubGraphDataBase@@QAE@W4GRAPHTYPE@CGraphBaseData@@ABVCGraphStyle@@ABVCGraphDrawStyle@@ABV?$CStringT@DV?$StrTraitMFC_DLL@DV?$ChTraitsCRT@D@ATL@@@@@ATL@@3_NABVCGraphColor@@ABVCPenThickness@@ABVCGraphPaintStyle@@ABVCGraphBaseLineStyle@@@Z$1:
  0000c	8b 4d f0	 mov	 ecx, DWORD PTR _this$[ebp]
  0000f	83 c1 20	 add	 ecx, 32			; 00000020H
  00012	ff 25 00 00 00
	00		 jmp	 DWORD PTR __imp_??1?$CStringT@DV?$StrTraitMFC_DLL@DV?$ChTraitsCRT@D@ATL@@@@@ATL@@QAE@XZ
  00018	cc		 int	 3
  00019	cc		 int	 3
  0001a	cc		 int	 3
  0001b	cc		 int	 3
  0001c	cc		 int	 3
__ehhandler$??0CSubGraphDataBase@@QAE@W4GRAPHTYPE@CGraphBaseData@@ABVCGraphStyle@@ABVCGraphDrawStyle@@ABV?$CStringT@DV?$StrTraitMFC_DLL@DV?$ChTraitsCRT@D@ATL@@@@@ATL@@3_NABVCGraphColor@@ABVCPenThickness@@ABVCGraphPaintStyle@@ABVCGraphBaseLineStyle@@@Z:
  0001d	90		 npad	 1
  0001e	90		 npad	 1
  0001f	8b 54 24 08	 mov	 edx, DWORD PTR [esp+8]
  00023	8d 42 0c	 lea	 eax, DWORD PTR [edx+12]
  00026	8b 4a f0	 mov	 ecx, DWORD PTR [edx-16]
  00029	33 c8		 xor	 ecx, eax
  0002b	e8 00 00 00 00	 call	 @__security_check_cookie@4
  00030	b8 00 00 00 00	 mov	 eax, OFFSET __ehfuncinfo$??0CSubGraphDataBase@@QAE@W4GRAPHTYPE@CGraphBaseData@@ABVCGraphStyle@@ABVCGraphDrawStyle@@ABV?$CStringT@DV?$StrTraitMFC_DLL@DV?$ChTraitsCRT@D@ATL@@@@@ATL@@3_NABVCGraphColor@@ABVCPenThickness@@ABVCGraphPaintStyle@@ABVCGraphBaseLineStyle@@@Z
  00035	e9 00 00 00 00	 jmp	 ___CxxFrameHandler3
text$x	ENDS
??0CSubGraphDataBase@@QAE@W4GRAPHTYPE@CGraphBaseData@@ABVCGraphStyle@@ABVCGraphDrawStyle@@ABV?$CStringT@DV?$StrTraitMFC_DLL@DV?$ChTraitsCRT@D@ATL@@@@@ATL@@3_NABVCGraphColor@@ABVCPenThickness@@ABVCGraphPaintStyle@@ABVCGraphBaseLineStyle@@@Z ENDP ; CSubGraphDataBase::CSubGraphDataBase
; Function compile flags: /Ogtp
; File D:\git\src\IBK\IBK_DRFN\ProjSrc\SrcChartEx\ChartOCX\IndicatorCondition\GraphData.cpp
; File D:\git\src\IBK\IBK_DRFN\ProjSrc\SrcChartEx\ChartOCX\Include_Chart\BlockBaseData.h
; File D:\git\src\IBK\IBK_DRFN\ProjSrc\SrcChartEx\ChartOCX\IndicatorCondition\GraphData.cpp
; File C:\Program Files (x86)\Microsoft Visual Studio\2019\Community\VC\Tools\MSVC\14.29.30133\atlmfc\include\afxtempl.h
; File D:\git\src\IBK\IBK_DRFN\ProjSrc\SrcChartEx\ChartOCX\IndicatorCondition\GraphData.cpp
; File C:\Program Files (x86)\Microsoft Visual Studio\2019\Community\VC\Tools\MSVC\14.29.30133\atlmfc\include\afxtempl.h
; File D:\git\src\IBK\IBK_DRFN\ProjSrc\SrcChartEx\ChartOCX\IndicatorCondition\GraphData.cpp
;	COMDAT ??0CSubGraphDataBase@@QAE@XZ
_TEXT	SEGMENT
_this$ = -16						; size = 4
__$EHRec$ = -12						; size = 12
??0CSubGraphDataBase@@QAE@XZ PROC			; CSubGraphDataBase::CSubGraphDataBase, COMDAT
; _this$ = ecx

; 927  : {

  00000	55		 push	 ebp
  00001	8b ec		 mov	 ebp, esp
  00003	6a ff		 push	 -1
  00005	68 00 00 00 00	 push	 __ehhandler$??0CSubGraphDataBase@@QAE@XZ
  0000a	64 a1 00 00 00
	00		 mov	 eax, DWORD PTR fs:0
  00010	50		 push	 eax
  00011	51		 push	 ecx
  00012	56		 push	 esi
  00013	a1 00 00 00 00	 mov	 eax, DWORD PTR ___security_cookie
  00018	33 c5		 xor	 eax, ebp
  0001a	50		 push	 eax
  0001b	8d 45 f4	 lea	 eax, DWORD PTR __$EHRec$[ebp]
  0001e	64 a3 00 00 00
	00		 mov	 DWORD PTR fs:0, eax
  00024	8b f1		 mov	 esi, ecx
  00026	89 75 f0	 mov	 DWORD PTR _this$[ebp], esi

; 60   : {
; 61   : }
; 62   : 
; 63   : //  ,   - ojtaso (20071213)
; 64   : CPenThickness::CPenThickness(const int nThickness1, const int nThickness2, const int nThickness3, const int nBaseLineThickness, const bool bIsHightlight):
; 65   : 	m_nThickness1(nThickness1),
; 66   : 	m_nThickness2(nThickness2),
; 67   : 	m_nThickness3(nThickness3),
; 68   : 	m_bIsHightlight(bIsHightlight),
; 69   : 	//  ,   - ojtaso (20071213)
; 70   : 	m_nBaseLineThickness(nBaseLineThickness)
; 71   : {
; 72   : }
; 73   : 
; 74   : CPenThickness::CPenThickness(const CPenThickness& data):
; 75   : 	m_nThickness1(data.GetThickness1()),
; 76   : 	m_nThickness2(data.GetThickness2()),
; 77   : 	m_nThickness3(data.GetThickness3()),
; 78   : 	m_bIsHightlight(data.IsHightlight()),
; 79   : 	//  ,   - ojtaso (20071213)
; 80   : 	m_nBaseLineThickness(data.GetBaseLineThickness())
; 81   : {
; 82   : }
; 83   : 
; 84   : // public =====================================================================
; 85   : void CPenThickness::SetData( const char *p_szPenThickness)
; 86   : {
; 87   : 	m_nThickness1	= 1;
; 88   : 	m_nThickness2	= 1;
; 89   : 	m_nThickness3	= 1;
; 90   : 	m_bIsHightlight	= false;
; 91   : 	//  ,   - ojtaso (20071213)
; 92   : 	m_nBaseLineThickness = 1;
; 93   : 
; 94   : 	if( !p_szPenThickness) return;
; 95   : 	if( !*p_szPenThickness) return;
; 96   : 
; 97   : 	CString strPenThickness;
; 98   : 	int nPenThicknessLen = strlen( p_szPenThickness);
; 99   : 	char *szPenThickness = strPenThickness.GetBufferSetLength( nPenThicknessLen + 1);
; 100  : 	strcpy( szPenThickness, p_szPenThickness);
; 101  : 	if( szPenThickness[ nPenThicknessLen - 1] != ';')
; 102  : 	{
; 103  : 		szPenThickness[ nPenThicknessLen] = ';';
; 104  : 		szPenThickness[ nPenThicknessLen + 1] = '\0';
; 105  : 	}
; 106  : 
; 107  : 	char *szItem = szPenThickness;
; 108  : 	szPenThickness = strchr( szPenThickness, ';');
; 109  : 	if( szPenThickness) *szPenThickness++ = '\0';
; 110  : 	m_nThickness1 = atoi( szItem);
; 111  : 	if( !szPenThickness) return;
; 112  : 	if( !*szPenThickness) return;
; 113  : 
; 114  : 	szItem = szPenThickness;
; 115  : 	szPenThickness = strchr( szPenThickness, ';');
; 116  : 	if( szPenThickness) *szPenThickness++ = '\0';
; 117  : 	m_nThickness2 = atoi( szItem);
; 118  : 	if( !szPenThickness) return;
; 119  : 	if( !*szPenThickness) return;
; 120  : 
; 121  : 	szItem = szPenThickness;
; 122  : 	szPenThickness = strchr( szPenThickness, ';');
; 123  : 	if( szPenThickness) *szPenThickness++ = '\0';
; 124  : 	m_nThickness3 = atoi( szItem);
; 125  : 	if( !szPenThickness) return;
; 126  : 	if( !*szPenThickness) return;
; 127  : 
; 128  : 	szItem = szPenThickness;
; 129  : 	szPenThickness = strchr( szPenThickness, ';');
; 130  : 	if( szPenThickness) *szPenThickness++ = '\0';
; 131  : 	m_bIsHightlight = ( atoi( szItem) != 0);
; 132  : 	if( !szPenThickness) return;
; 133  : 	if( !*szPenThickness) return;
; 134  : 
; 135  : 	//  ,   - ojtaso (20071213)
; 136  : 	szItem = szPenThickness;
; 137  : 	szPenThickness = strchr( szPenThickness, ';');
; 138  : 	if( szPenThickness) *szPenThickness++ = '\0';
; 139  : 	m_nBaseLineThickness = atoi( szItem);
; 140  : 	if( !szPenThickness) return;
; 141  : 	if( !*szPenThickness) return;
; 142  : }
; 143  : 
; 144  : void CPenThickness::SetHightlight(const bool bIsHightlight)
; 145  : {
; 146  : 	m_bIsHightlight = bIsHightlight;
; 147  : }
; 148  : 
; 149  : void CPenThickness::SetThickness(const int nThickness1, const int nThickness2, const int nThickness3)
; 150  : {
; 151  : 	m_nThickness1 = nThickness1;
; 152  : 	m_nThickness2 = nThickness2;
; 153  : 	m_nThickness3 = nThickness3;
; 154  : }
; 155  : 
; 156  : void CPenThickness::SetThickness1(const int nThickness)
; 157  : {
; 158  : 	m_nThickness1 = nThickness;
; 159  : }
; 160  : 
; 161  : void CPenThickness::SetThickness2(const int nThickness)
; 162  : {
; 163  : 	m_nThickness2 = nThickness;
; 164  : }
; 165  : 
; 166  : void CPenThickness::SetThickness3(const int nThickness)
; 167  : {
; 168  : 	m_nThickness3 = nThickness;
; 169  : }
; 170  : 
; 171  : //  ,   - ojtaso (20071213)
; 172  : void CPenThickness::SetBaseLineThickness(const int nThickness)
; 173  : {
; 174  : 	m_nBaseLineThickness = nThickness;
; 175  : }
; 176  : 
; 177  : void CPenThickness::ReversedHightlight()
; 178  : {
; 179  : 	m_bIsHightlight = !m_bIsHightlight;
; 180  : }
; 181  : 
; 182  : // ----------------------------------------------------------------------------
; 183  : bool CPenThickness::IsHightlight() const
; 184  : {
; 185  : 	return m_bIsHightlight;
; 186  : }
; 187  : 
; 188  : int CPenThickness::GetThickness1() const
; 189  : {
; 190  : 	return m_nThickness1;
; 191  : }
; 192  : 
; 193  : int CPenThickness::GetThickness2() const
; 194  : {
; 195  : 	return m_nThickness2;
; 196  : }
; 197  : 
; 198  : int CPenThickness::GetThickness3() const
; 199  : {
; 200  : 	return m_nThickness3;
; 201  : }
; 202  : 
; 203  : int CPenThickness::GetDrawingThickness1() const
; 204  : {
; 205  : 	return GetDrawingThickness(m_nThickness1);
; 206  : }
; 207  : 
; 208  : int CPenThickness::GetDrawingThickness2() const
; 209  : {
; 210  : 	return GetDrawingThickness(m_nThickness2);
; 211  : }
; 212  : 
; 213  : int CPenThickness::GetDrawingThickness3() const
; 214  : {
; 215  : 	return GetDrawingThickness(m_nThickness3);
; 216  : }
; 217  : 
; 218  : //  ,   - ojtaso (20071213)
; 219  : int CPenThickness::GetBaseLineThickness() const
; 220  : {
; 221  : 	return m_nBaseLineThickness;
; 222  : }
; 223  : 
; 224  : void CPenThickness::GetStringData( CString &p_strPenThickness) const
; 225  : {
; 226  : 	//  ,   - ojtaso (20071213)
; 227  : 	char szThickness1[ 20], szThickness2[ 20], szThickness3[ 20], szBaseLineThickness[20];
; 228  : 	itoa( m_nThickness1, szThickness1, 10);
; 229  : 	itoa( m_nThickness2, szThickness2, 10);
; 230  : 	itoa( m_nThickness3, szThickness3, 10);
; 231  : 	//  ,   - ojtaso (20071213)
; 232  : 	itoa( m_nBaseLineThickness, szBaseLineThickness, 10);
; 233  : 
; 234  : 	int nThicknessLen1 = strlen( szThickness1); 
; 235  : 	int nThicknessLen2 = strlen( szThickness2); 
; 236  : 	int nThicknessLen3 = strlen( szThickness3); 
; 237  : 	//  ,   - ojtaso (20071213)
; 238  : 	int nBaseLineThicknessLen = strlen( szBaseLineThickness); 
; 239  : 
; 240  : 	int nPenThickness = 0;
; 241  : 	nPenThickness += nThicknessLen1;
; 242  : 	nPenThickness++;
; 243  : 	nPenThickness += nThicknessLen2;
; 244  : 	nPenThickness++;
; 245  : 	nPenThickness += nThicknessLen3;
; 246  : 	nPenThickness += 3;								// ;?;
; 247  : 	//  ,   - ojtaso (20071213)
; 248  : 	nPenThickness += nBaseLineThicknessLen;
; 249  : 	nPenThickness++;
; 250  : 
; 251  : 	char *szPenThickness = p_strPenThickness.GetBufferSetLength( nPenThickness);
; 252  : 
; 253  : 	strcpy( szPenThickness, szThickness1);
; 254  : 	szPenThickness += nThicknessLen1;
; 255  : 	*szPenThickness++ = ';';
; 256  : 
; 257  : 	strcpy( szPenThickness, szThickness2);
; 258  : 	szPenThickness += nThicknessLen2;
; 259  : 	*szPenThickness++ = ';';
; 260  : 
; 261  : 	strcpy( szPenThickness, szThickness3);
; 262  : 	szPenThickness += nThicknessLen3;
; 263  : 	*szPenThickness++ = ';';
; 264  : 
; 265  : 	*szPenThickness++ = ( m_bIsHightlight ? '1' : '0');
; 266  : 	*szPenThickness++ = ';';
; 267  : 
; 268  : 	//  ,   - ojtaso (20071213)
; 269  : 	strcpy( szPenThickness, szBaseLineThickness);
; 270  : 	szPenThickness += nBaseLineThicknessLen;
; 271  : 	*szPenThickness++ = ';';
; 272  : }
; 273  : 
; 274  : 
; 275  : // private ====================================================================
; 276  : int CPenThickness::GetDrawingThickness(const int orgPenThickness) const
; 277  : {
; 278  : 	if(!m_bIsHightlight)
; 279  : 		return orgPenThickness;
; 280  : 
; 281  : 	if(orgPenThickness < 3)
; 282  : 		return orgPenThickness *2;
; 283  : 	return orgPenThickness +2;
; 284  : }
; 285  : 
; 286  : 
; 287  : ///////////////////////////////////////////////////////////////////////////////
; 288  : // class CGraphDataDrawingData
; 289  : 
; 290  : CGraphDataDrawingData& CGraphDataDrawingData::operator=(const CGraphDataDrawingData& data)
; 291  : {
; 292  : 	if(this == &data)
; 293  : 		return *this;
; 294  : 
; 295  : 	m_bCalcRiseFallRate_LowHigh = data.DoesCalcRiseFallRate_LowHigh();
; 296  : 	m_bCalcRiseFallRate_LowCur = data.DoesCalcRiseFallRate_LowCur();
; 297  : 	m_bCalcRiseFallRate_HighCur = data.DoesCalcRiseFallRate_HighCur();
; 298  : 	m_bCalcRate_PrevCur = data.DoesCalcRate_PrevCur();
; 299  : 	m_nCalcRiseFallRate_CurData = data.GetCalcRiseFallRate_CurData();
; 300  : 	// (2009/9/12 - Seung-Won, Bae) for OHLC graph data
; 301  : 	m_bShowOHLC = data.GetShowOHLC();
; 302  : 
; 303  : 	return *this;
; 304  : }
; 305  : 
; 306  : bool CGraphDataDrawingData::operator==(const CGraphDataDrawingData& data)
; 307  : {
; 308  : 	if(this == &data)
; 309  : 		return true;
; 310  : 
; 311  : 	return (m_bCalcRiseFallRate_LowHigh == data.DoesCalcRiseFallRate_LowHigh() && 
; 312  : 		m_bCalcRiseFallRate_LowCur == data.DoesCalcRiseFallRate_LowCur() && 
; 313  : 		m_bCalcRiseFallRate_HighCur == data.DoesCalcRiseFallRate_HighCur() && 
; 314  : 		m_bCalcRate_PrevCur == data.DoesCalcRate_PrevCur() && 
; 315  : 		m_nCalcRiseFallRate_CurData == data.GetCalcRiseFallRate_CurData() &&
; 316  : 		// (2009/9/12 - Seung-Won, Bae) for OHLC graph data
; 317  : 		m_bShowOHLC == data.GetShowOHLC());
; 318  : }
; 319  : 
; 320  : CGraphDataDrawingData::CGraphDataDrawingData():
; 321  : 	m_bCalcRiseFallRate_LowHigh(false),
; 322  : 	m_bCalcRiseFallRate_LowCur(false),
; 323  : 	m_bCalcRiseFallRate_HighCur(false),
; 324  : 	m_bCalcRate_PrevCur(false),
; 325  : 	m_nCalcRiseFallRate_CurData(0),
; 326  : 	// (2009/9/12 - Seung-Won, Bae) for OHLC graph data
; 327  : 	m_bShowOHLC( FALSE)
; 328  : {
; 329  : }
; 330  : 
; 331  : CGraphDataDrawingData::CGraphDataDrawingData( const char *p_szGraphDataDrawingData):
; 332  : 	m_bCalcRiseFallRate_LowHigh(false),
; 333  : 	m_bCalcRiseFallRate_LowCur(false),
; 334  : 	m_bCalcRiseFallRate_HighCur(false),
; 335  : 	m_bCalcRate_PrevCur(false),
; 336  : 	m_nCalcRiseFallRate_CurData(0),
; 337  : 	// (2009/9/12 - Seung-Won, Bae) for OHLC graph data
; 338  : 	m_bShowOHLC( FALSE)
; 339  : {
; 340  : 	SetData( p_szGraphDataDrawingData);
; 341  : }
; 342  : 
; 343  : CGraphDataDrawingData::CGraphDataDrawingData(const bool bCalcRiseFallRate_LowHigh, const bool bCalcRiseFallRate_LowCur, 
; 344  : 	const bool bCalcRiseFallRate_HighCur, const bool bCalcRate_PrevCur, const int nCalcRiseFallRate_CurData, const BOOL p_bShowOHLC):
; 345  : 	m_bCalcRiseFallRate_LowHigh(bCalcRiseFallRate_LowHigh),
; 346  : 	m_bCalcRiseFallRate_LowCur(bCalcRiseFallRate_LowCur),
; 347  : 	m_bCalcRiseFallRate_HighCur(bCalcRiseFallRate_HighCur),
; 348  : 	m_bCalcRate_PrevCur(bCalcRate_PrevCur),
; 349  : 	m_nCalcRiseFallRate_CurData(nCalcRiseFallRate_CurData),
; 350  : 	// (2009/9/12 - Seung-Won, Bae) for OHLC graph data
; 351  : 	m_bShowOHLC( p_bShowOHLC)
; 352  : {
; 353  : }
; 354  : 
; 355  : CGraphDataDrawingData::CGraphDataDrawingData(const CGraphDataDrawingData& data):
; 356  : 	m_bCalcRiseFallRate_LowHigh(data.DoesCalcRiseFallRate_LowHigh()),
; 357  : 	m_bCalcRiseFallRate_LowCur(data.DoesCalcRiseFallRate_LowCur()),
; 358  : 	m_bCalcRiseFallRate_HighCur(data.DoesCalcRiseFallRate_HighCur()),
; 359  : 	m_bCalcRate_PrevCur(data.DoesCalcRate_PrevCur()),
; 360  : 	m_nCalcRiseFallRate_CurData(data.GetCalcRiseFallRate_CurData()),
; 361  : 	// (2009/9/12 - Seung-Won, Bae) for OHLC graph data
; 362  : 	m_bShowOHLC( data.GetShowOHLC())
; 363  : {
; 364  : }
; 365  : 
; 366  : // (2006/5/9 - Seung-Won, Bae) Clear Data
; 367  : void CGraphDataDrawingData::ClearData( void)
; 368  : {
; 369  : 	m_bCalcRiseFallRate_LowHigh	= false;
; 370  : 	m_bCalcRiseFallRate_LowCur	= false;
; 371  : 	m_bCalcRiseFallRate_HighCur	= false;
; 372  : 	m_bCalcRate_PrevCur			= false;
; 373  : 	m_nCalcRiseFallRate_CurData	= 0;
; 374  : 	// (2009/9/12 - Seung-Won, Bae) for OHLC graph data
; 375  : 	m_bShowOHLC					= FALSE;
; 376  : }
; 377  : 
; 378  : // public =====================================================================
; 379  : void CGraphDataDrawingData::SetDoesCalcRiseFallRate_LowHigh(const bool bCalcData)
; 380  : {
; 381  : 	m_bCalcRiseFallRate_LowHigh = bCalcData;
; 382  : }
; 383  : 
; 384  : void CGraphDataDrawingData::SetDoesCalcRiseFallRate_LowCur(const bool bCalcData)
; 385  : {
; 386  : 	m_bCalcRiseFallRate_LowCur = bCalcData;
; 387  : }
; 388  : 
; 389  : void CGraphDataDrawingData::SetDoesCalcRiseFallRate_HighCur(const bool bCalcData)
; 390  : {
; 391  : 	m_bCalcRiseFallRate_HighCur = bCalcData;
; 392  : }
; 393  : 
; 394  : void CGraphDataDrawingData::SetDoesCalcRate_PrevCur(const bool bCalcData)
; 395  : {
; 396  : 	m_bCalcRate_PrevCur = bCalcData;
; 397  : }
; 398  : 
; 399  : void CGraphDataDrawingData::SetCalcRiseFallRate_CurData(const int nCalcData)
; 400  : {
; 401  : 	m_nCalcRiseFallRate_CurData = nCalcData;
; 402  : }
; 403  : 
; 404  : // (2009/9/12 - Seung-Won, Bae) for OHLC graph data
; 405  : void CGraphDataDrawingData::SetShowOHLC( const BOOL p_bShowOHLC)
; 406  : {
; 407  : 	m_bShowOHLC	= p_bShowOHLC;
; 408  : }
; 409  : 
; 410  : // ----------------------------------------------------------------------------
; 411  : bool CGraphDataDrawingData::DoesAllDefaultData() const
; 412  : {
; 413  : 	return (m_bCalcRiseFallRate_LowHigh == false && 
; 414  : 		m_bCalcRiseFallRate_LowCur == false && 
; 415  : 		m_bCalcRiseFallRate_HighCur == false && 
; 416  : 		m_bCalcRate_PrevCur == false && 
; 417  : 		m_nCalcRiseFallRate_CurData == 0);
; 418  : }
; 419  : 
; 420  : bool CGraphDataDrawingData::DoesCalcRiseFallRate_LowHigh() const
; 421  : {
; 422  : 	return m_bCalcRiseFallRate_LowHigh;
; 423  : }
; 424  : 
; 425  : bool CGraphDataDrawingData::DoesCalcRiseFallRate_LowCur() const
; 426  : {
; 427  : 	return m_bCalcRiseFallRate_LowCur;
; 428  : }
; 429  : 
; 430  : bool CGraphDataDrawingData::DoesCalcRiseFallRate_HighCur() const
; 431  : {
; 432  : 	return m_bCalcRiseFallRate_HighCur;
; 433  : }
; 434  : 
; 435  : bool CGraphDataDrawingData::DoesCalcRate_PrevCur() const
; 436  : {
; 437  : 	return m_bCalcRate_PrevCur;
; 438  : }
; 439  : 
; 440  : int CGraphDataDrawingData::GetCalcRiseFallRate_CurData() const
; 441  : {
; 442  : 	return m_nCalcRiseFallRate_CurData;
; 443  : }
; 444  : 
; 445  : // (2009/9/12 - Seung-Won, Bae) for OHLC graph data
; 446  : BOOL CGraphDataDrawingData::GetShowOHLC( void) const
; 447  : {
; 448  : 	return m_bShowOHLC;
; 449  : }
; 450  : 
; 451  : // graph data 
; 452  : void CGraphDataDrawingData::GetData( CString &p_strGraphDataDrawingData) const
; 453  : {
; 454  : 	char *szGraphDataDrawingData = p_strGraphDataDrawingData.GetBufferSetLength( 12);	// Do not set 13, It has default NULL Terminator.
; 455  : 	szGraphDataDrawingData[  0] = ( m_bCalcRiseFallRate_LowHigh			? '1' : '0');
; 456  : 	szGraphDataDrawingData[  1] = ';';
; 457  : 	szGraphDataDrawingData[  2] = ( m_bCalcRiseFallRate_LowCur			? '1' : '0');
; 458  : 	szGraphDataDrawingData[  3] = ';';
; 459  : 	szGraphDataDrawingData[  4] = ( m_bCalcRiseFallRate_HighCur			? '1' : '0');
; 460  : 	szGraphDataDrawingData[  5] = ';';
; 461  : 	szGraphDataDrawingData[  6] = ( m_bCalcRate_PrevCur					? '1' : '0');
; 462  : 	szGraphDataDrawingData[  7] = ';';
; 463  : 	szGraphDataDrawingData[  8] = '0' + m_nCalcRiseFallRate_CurData;
; 464  : 	szGraphDataDrawingData[  9] = ';';
; 465  : 	szGraphDataDrawingData[ 10] = '0' + m_bShowOHLC;	// (2009/9/12 - Seung-Won, Bae) for OHLC graph data
; 466  : 	szGraphDataDrawingData[ 11] = ';';
; 467  : 	szGraphDataDrawingData[ 12] = '\0';
; 468  : }
; 469  : 
; 470  : 
; 471  : // private ====================================================================
; 472  : void CGraphDataDrawingData::SetData( const char *p_szGraphDataDrawingData)
; 473  : {
; 474  : 	if( !p_szGraphDataDrawingData) return;
; 475  : 	if( !*p_szGraphDataDrawingData) return;
; 476  : 
; 477  : 	CString strGraphDataDrawingData;
; 478  : 	int nGraphDataDrawingDataLen = strlen( p_szGraphDataDrawingData);
; 479  : 	char *szGraphDataDrawingData = strGraphDataDrawingData.GetBufferSetLength( nGraphDataDrawingDataLen + 1);
; 480  : 	strcpy( szGraphDataDrawingData, p_szGraphDataDrawingData);
; 481  : 	if( szGraphDataDrawingData[ nGraphDataDrawingDataLen - 1] != ';')
; 482  : 	{
; 483  : 		szGraphDataDrawingData[ nGraphDataDrawingDataLen] = ';';
; 484  : 		szGraphDataDrawingData[ nGraphDataDrawingDataLen + 1] = '\0';
; 485  : 	}
; 486  : 
; 487  : 	char *szItem = szGraphDataDrawingData;
; 488  : 	szGraphDataDrawingData = strchr( szGraphDataDrawingData, ';');
; 489  : 	if( szGraphDataDrawingData) *szGraphDataDrawingData++ = '\0';
; 490  : 	m_bCalcRiseFallRate_LowHigh = ( atoi( szItem) != 0);
; 491  : 	if( !szGraphDataDrawingData) return;
; 492  : 	if( !*szGraphDataDrawingData) return;
; 493  : 
; 494  : 	szItem = szGraphDataDrawingData;
; 495  : 	szGraphDataDrawingData = strchr( szGraphDataDrawingData, ';');
; 496  : 	if( szGraphDataDrawingData) *szGraphDataDrawingData++ = '\0';
; 497  : 	m_bCalcRiseFallRate_LowCur = ( atoi( szItem) != 0);
; 498  : 	if( !szGraphDataDrawingData) return;
; 499  : 	if( !*szGraphDataDrawingData) return;
; 500  : 
; 501  : 	szItem = szGraphDataDrawingData;
; 502  : 	szGraphDataDrawingData = strchr( szGraphDataDrawingData, ';');
; 503  : 	if( szGraphDataDrawingData) *szGraphDataDrawingData++ = '\0';
; 504  : 	m_bCalcRiseFallRate_HighCur = ( atoi( szItem) != 0);
; 505  : 	if( !szGraphDataDrawingData) return;
; 506  : 	if( !*szGraphDataDrawingData) return;
; 507  : 
; 508  : 	szItem = szGraphDataDrawingData;
; 509  : 	szGraphDataDrawingData = strchr( szGraphDataDrawingData, ';');
; 510  : 	if( szGraphDataDrawingData) *szGraphDataDrawingData++ = '\0';
; 511  : 	m_bCalcRate_PrevCur = ( atoi( szItem) != 0);
; 512  : 	if( !szGraphDataDrawingData) return;
; 513  : 	if( !*szGraphDataDrawingData) return;
; 514  : 
; 515  : 	szItem = szGraphDataDrawingData;
; 516  : 	szGraphDataDrawingData = strchr( szGraphDataDrawingData, ';');
; 517  : 	if( szGraphDataDrawingData) *szGraphDataDrawingData++ = '\0';
; 518  : 	m_nCalcRiseFallRate_CurData = atoi( szItem);
; 519  : 	if( !szGraphDataDrawingData) return;
; 520  : 	if( !*szGraphDataDrawingData) return;
; 521  : 
; 522  : 	// (2009/9/12 - Seung-Won, Bae) for OHLC graph data
; 523  : 	szItem = szGraphDataDrawingData;
; 524  : 	szGraphDataDrawingData = strchr( szGraphDataDrawingData, ';');
; 525  : 	if( szGraphDataDrawingData) *szGraphDataDrawingData++ = '\0';
; 526  : 	m_bShowOHLC = atoi( szItem);
; 527  : 	if( !szGraphDataDrawingData) return;
; 528  : 	if( !*szGraphDataDrawingData) return;
; 529  : }
; 530  : 
; 531  : ///////////////////////////////////////////////////////////////////////////////
; 532  : // class CSignalData
; 533  : 
; 534  : CSignalData& CSignalData::operator=(const CSignalData& data)
; 535  : {
; 536  : 	if(this == &data)
; 537  : 		return *this;
; 538  : 
; 539  : 	m_bIsUse = data.IsUse();
; 540  : 	m_bIsShow = data.IsShow();
; 541  : 	return *this;
; 542  : }
; 543  : 
; 544  : bool CSignalData::operator==(const CSignalData& data)
; 545  : {
; 546  : 	if(this == &data)
; 547  : 		return true;
; 548  : 
; 549  : 	return (m_bIsUse == data.IsUse() && m_bIsShow == data.IsShow());
; 550  : }
; 551  : 
; 552  : CSignalData::CSignalData(const bool bIsUse, const bool bIsShow):
; 553  : 	m_bIsUse(bIsUse),
; 554  : 	m_bIsShow(bIsShow)
; 555  : {
; 556  : 	// (2009/10/7 - Seung-Won, Bae) for Signal Arrow Drawing Cache.
; 557  : 	m_pSignalCache = NULL;
; 558  : }
; 559  : 
; 560  : CSignalData::CSignalData( const char *p_szSignalData)
; 561  : {
; 562  : 	SetData( p_szSignalData);
; 563  : 
; 564  : 	// (2009/10/7 - Seung-Won, Bae) for Signal Arrow Drawing Cache.
; 565  : 	m_pSignalCache = NULL;
; 566  : }
; 567  : 
; 568  : CSignalData::CSignalData(const CSignalData& data) : 
; 569  : 	m_bIsUse(data.IsUse()),
; 570  : 	m_bIsShow(data.IsShow())
; 571  : {
; 572  : 	// (2009/10/7 - Seung-Won, Bae) for Signal Arrow Drawing Cache.
; 573  : 	m_pSignalCache = NULL;
; 574  : }
; 575  : 
; 576  : // (2009/10/7 - Seung-Won, Bae) for Signal Arrow Drawing Cache.
; 577  : CSignalData::~CSignalData()
; 578  : {
; 579  : 	ClearCalcDataForDraw();
; 580  : }
; 581  : 
; 582  : // (2006/5/9 - Seung-Won, Bae) Clear Data
; 583  : void CSignalData::ClearData( void)
; 584  : {
; 585  : 	m_bIsUse	= false;
; 586  : 	m_bIsShow	= false;
; 587  : }
; 588  : 
; 589  : // public =====================================================================
; 590  : void CSignalData::SetUse(const bool bIsUse)
; 591  : {
; 592  : 	m_bIsUse = bIsUse;
; 593  : }
; 594  : 
; 595  : void CSignalData::SetShow(const bool bIsShow)
; 596  : {
; 597  : 	m_bIsShow = bIsShow;
; 598  : }
; 599  : 
; 600  : // ----------------------------------------------------------------------------
; 601  : bool CSignalData::IsUse() const
; 602  : {
; 603  : 	return m_bIsUse;
; 604  : }
; 605  : 
; 606  : bool CSignalData::IsShow() const
; 607  : {
; 608  : 	return m_bIsShow;
; 609  : }
; 610  : 
; 611  : bool CSignalData::IsDraw() const
; 612  : {
; 613  : 	if(!m_bIsUse)
; 614  : 		return false;
; 615  : 	return m_bIsShow;
; 616  : }
; 617  : 
; 618  : 
; 619  : // ----------------------------------------------------------------------------
; 620  : void CSignalData::GetData( CString &p_strSignalData) const
; 621  : {
; 622  : 	char *szSignalData = p_strSignalData.GetBufferSetLength( 4);	// Do not set 5, It has default NULL Terminator.
; 623  : 	szSignalData[ 0] = ( m_bIsUse	? '1' : '0');
; 624  : 	szSignalData[ 1] = ':';
; 625  : 	szSignalData[ 2] = ( m_bIsShow	? '1' : '0');
; 626  : 	szSignalData[ 3] = ';';
; 627  : 	szSignalData[ 4] = '\0';
; 628  : }
; 629  : 
; 630  : 
; 631  : // private ====================================================================
; 632  : void CSignalData::SetData( const char *p_szSignalData)
; 633  : {
; 634  : 	if( !p_szSignalData) return;
; 635  : 	if( !*p_szSignalData) return;
; 636  : 
; 637  : 	CString strSignalData;
; 638  : 	int nSignalDataLen = strlen( p_szSignalData);
; 639  : 	char *szSignalData = strSignalData.GetBufferSetLength( nSignalDataLen + 1);
; 640  : 	strcpy( szSignalData, p_szSignalData);
; 641  : 	if( szSignalData[ nSignalDataLen - 1] != ';')
; 642  : 	{
; 643  : 		szSignalData[ nSignalDataLen] = ';';
; 644  : 		szSignalData[ nSignalDataLen + 1] = '\0';
; 645  : 	}
; 646  : 
; 647  : 	// "signal:signal;"
; 648  : 	// signal
; 649  : 	char *szItem = szSignalData;
; 650  : 	szSignalData = strchr( szSignalData, ':');
; 651  : 	if( szSignalData) *szSignalData++ = '\0';
; 652  : 	m_bIsUse = ( atoi( szItem) != 0);
; 653  : 	if( !szSignalData) return;
; 654  : 	if( !*szSignalData) return;
; 655  : 	// signal
; 656  : 	szItem = szSignalData;
; 657  : 	szSignalData = strchr( szSignalData, ';');
; 658  : 	if( szSignalData) *szSignalData++ = '\0';
; 659  : 	m_bIsShow = ( atoi( szItem) != 0);
; 660  : 	if( !szSignalData) return;
; 661  : 	if( !*szSignalData) return;
; 662  : }
; 663  : 
; 664  : // (2009/10/7 - Seung-Won, Bae) for Signal Arrow Drawing Cache.
; 665  : void CSignalData::ClearCalcDataForDraw( void)
; 666  : {
; 667  : 	if( m_pSignalCache)
; 668  : 	{
; 669  : 		delete m_pSignalCache;
; 670  : 		m_pSignalCache = NULL;
; 671  : 	}
; 672  : }
; 673  : 
; 674  : 
; 675  : ///////////////////////////////////////////////////////////////////////////////
; 676  : // class CGraphData
; 677  : 
; 678  : CGraphData& CGraphData::operator=(const CGraphData& data)
; 679  : {
; 680  : 	if(this == &data) return *this;
; 681  : 
; 682  : 	m_strIndicatorName		= data.m_strIndicatorName;
; 683  : 	m_strGraphName			= data.m_strGraphName;
; 684  : 	m_strPacketName			= data.m_strPacketName;
; 685  : 	m_signalData			= data.m_signalData;
; 686  : 	m_graphDataDrawingData	= data.m_graphDataDrawingData;
; 687  : 
; 688  : 	return *this;
; 689  : }
; 690  : 
; 691  : // (2006/5/9 - Seung-Won, Bae) Clear Data
; 692  : void CGraphData::ClearData( void)
; 693  : {
; 694  : 	m_strIndicatorName.Empty();
; 695  : 	m_strGraphName.Empty();
; 696  : 	m_strPacketName.Empty();
; 697  : 	m_signalData.ClearData();
; 698  : 	m_graphDataDrawingData.ClearData();
; 699  : }
; 700  : 
; 701  : void CGraphData::SetPacketNames(const CString& packetNames)
; 702  : {
; 703  : 	if(m_strPacketName == packetNames)
; 704  : 		return;
; 705  : 
; 706  : 	m_strPacketName = packetNames;
; 707  : }
; 708  : 
; 709  : void CGraphData::SetSignalData(const CSignalData& signalData)
; 710  : {
; 711  : 	m_signalData = signalData;
; 712  : }
; 713  : 
; 714  : void CGraphData::SetSignalData(const bool bIsUse, const bool bIsShow)
; 715  : {
; 716  : 	m_signalData.SetUse(bIsUse);
; 717  : 	m_signalData.SetShow(bIsShow);
; 718  : }
; 719  : 
; 720  : void CGraphData::SetGraphDataDrawingData(const CGraphDataDrawingData& drawingData)
; 721  : {
; 722  : 	m_graphDataDrawingData = drawingData;
; 723  : }
; 724  : 
; 725  : CString CGraphData::GetPacketNames() const
; 726  : {
; 727  : 	return m_strPacketName;
; 728  : }
; 729  : 
; 730  : CSignalData CGraphData::GetSignalData() const
; 731  : {
; 732  : 	return m_signalData;
; 733  : }
; 734  : 
; 735  : CSignalData& CGraphData::GetSignalData()
; 736  : {
; 737  : 	return m_signalData;
; 738  : }
; 739  : 
; 740  : bool CGraphData::IsSignalUse() const
; 741  : {
; 742  : 	return m_signalData.IsUse();
; 743  : }
; 744  : 
; 745  : bool CGraphData::IsSignalShow() const
; 746  : {
; 747  : 	return m_signalData.IsShow();
; 748  : }
; 749  : 
; 750  : CGraphDataDrawingData CGraphData::GetGraphDataDrawingData() const
; 751  : {
; 752  : 	return m_graphDataDrawingData;
; 753  : }
; 754  : 
; 755  : CGraphDataDrawingData& CGraphData::GetGraphDataDrawingData()
; 756  : {
; 757  : 	return m_graphDataDrawingData;
; 758  : }
; 759  : 
; 760  : // (2006/9/6 - Seung-Won, Bae) Map Design Info.
; 761  : CGraphData::CGraphData( const char *p_szGraphData, HWND p_hOcxWnd)
; 762  : {
; 763  : 	if( !p_szGraphData) return;
; 764  : 	if( !*p_szGraphData) return;
; 765  : 
; 766  : 	// "index;;,,,;signal(:);
; 767  : 	//  ;;;;;
; 768  : 	//  ;;;(0:,1:/,2:(),());\r\n"
; 769  : 	CString strGraphData;
; 770  : 	int nGraphDataLen = strlen( p_szGraphData);
; 771  : 	char *szGraphData = strGraphData.GetBufferSetLength( nGraphDataLen);
; 772  : 	strcpy( szGraphData, p_szGraphData);
; 773  : 	// (2006/10/26 - Seung-Won, Bae) Skip Function Index;
; 774  : 	szGraphData = strchr( szGraphData, ';');	// m_nFunctionIndex = atoi(CDataConversion::GetStringData(strRealData, ";")); // function index
; 775  : 	if( !szGraphData) return;
; 776  : 	szGraphData++;
; 777  : 	// graph function name
; 778  : 	char *szItem = szGraphData;
; 779  : 	szGraphData = strchr( szGraphData, ';');	// m_nFunctionIndex = atoi(CDataConversion::GetStringData(strRealData, ";")); // function index
; 780  : 	if( szGraphData) *szGraphData++ = '\0';
; 781  : 	m_strIndicatorName = _MTOM2( szItem);
; 782  : 	if( !szGraphData) return;
; 783  : 	if( !*szGraphData) return;
; 784  : 	// (2006/11/29 - Seung-Won, Bae) Support Graph Name for Binding with Indicator Info.
; 785  : 	if( strncmp( szGraphData, "G:", 2)) m_strGraphName = m_strIndicatorName;
; 786  : 	else
; 787  : 	{
; 788  : 		szItem = szGraphData + 2;
; 789  : 		szGraphData = strchr( szGraphData, ';');
; 790  : 		if( szGraphData) *szGraphData++ = '\0';
; 791  : 		m_strGraphName = _MTOM2( szItem);		// (2008/2/22 - Seung-Won, Bae) The first default Graph Name is Indicator Name.
; 792  : 		if( !szGraphData) return;
; 793  : 		if( !*szGraphData) return;
; 794  : 	}
; 795  : 	// packet name
; 796  : 	szItem = szGraphData;
; 797  : 	szGraphData = strchr( szGraphData, ';');
; 798  : 	if( szGraphData) *szGraphData++ = '\0';
; 799  : 	_MHWND( p_hOcxWnd);
; 800  : 	if( strchr( szItem, '('))	m_strPacketName = _STOMS( szItem, ",(+)/23", 0);
; 801  : 	else						m_strPacketName = _STOMS( szItem, ",", 0);
; 802  : 	if( !szGraphData) return;
; 803  : 	if( !*szGraphData) return;
; 804  : 	// Signal
; 805  : 	szItem = szGraphData;
; 806  : 	szGraphData = strchr( szGraphData, ';');
; 807  : 	if( szGraphData) *szGraphData++ = '\0';
; 808  : 	m_signalData = CSignalData( szItem);
; 809  : 	if( !szGraphData) return;
; 810  : 	if( !*szGraphData) return;
; 811  : 	// Graph Drawing Data
; 812  : 	szItem = szGraphData;
; 813  : 	int i = 0;
; 814  : 	do
; 815  : 	{
; 816  : 		szGraphData = strchr( szGraphData, ';');
; 817  : 		if( !szGraphData) continue;
; 818  : 		i++;
; 819  : 		szGraphData++;
; 820  : 	} while( szGraphData && i < 6);
; 821  : 	if( szGraphData) *szGraphData = '\0';
; 822  : 	m_graphDataDrawingData = CGraphDataDrawingData( szItem);
; 823  : }
; 824  : 
; 825  : //   :  - ojtaso (20070507)
; 826  : void CGraphData::GetData( CString &p_strGraphData, LPCTSTR lpszRQ/* = NULL*/) const
; 827  : {
; 828  : 	CString strSingalData;
; 829  : 	m_signalData.GetData( strSingalData);
; 830  : 
; 831  : 	CString strGraphDataDrawingData;
; 832  : 	m_graphDataDrawingData.GetData( strGraphDataDrawingData);
; 833  : 	
; 834  : 	int nGraphDataLen = 0;									//
; 835  : 	nGraphDataLen++;										// ;
; 836  : 	nGraphDataLen += m_strIndicatorName.GetLength();		// Indicator Name
; 837  : 	nGraphDataLen += 3;										// ;G:
; 838  : 	nGraphDataLen += m_strGraphName.GetLength();			// Graph Name
; 839  : 	nGraphDataLen++;										// ;
; 840  : 	nGraphDataLen += m_strPacketName.GetLength();			// Packet Name
; 841  : 	nGraphDataLen++;										// ;
; 842  : 	nGraphDataLen += strSingalData.GetLength();				// Singal Data
; 843  : 	nGraphDataLen += strGraphDataDrawingData.GetLength();	// Graph Data Drawing Data
; 844  : 	//   :  - ojtaso (20070507)
; 845  : 	if(lpszRQ)
; 846  : 	{
; 847  : 		nGraphDataLen += 3;										// RQ:
; 848  : 		nGraphDataLen += ::lstrlen(lpszRQ);
; 849  : 	}
; 850  : 	nGraphDataLen += 2;										// \r\n (Do not add NULL Terminator size. It has that with default)
; 851  : 	char *szGraphData = p_strGraphData.GetBufferSetLength( nGraphDataLen);
; 852  : 
; 853  : 	*szGraphData++ = ';';
; 854  : 
; 855  : 	strcpy( szGraphData, m_strIndicatorName);
; 856  : 	szGraphData += m_strIndicatorName.GetLength();
; 857  : 
; 858  : 	*szGraphData++ = ';';
; 859  : 	*szGraphData++ = 'G';
; 860  : 	*szGraphData++ = ':';
; 861  : 
; 862  : 	strcpy( szGraphData, m_strGraphName);
; 863  : 	szGraphData += m_strGraphName.GetLength();
; 864  : 
; 865  : 	*szGraphData++ = ';';
; 866  : 
; 867  : 	strcpy( szGraphData, m_strPacketName);
; 868  : 	szGraphData += m_strPacketName.GetLength();
; 869  : 
; 870  : 	*szGraphData++ = ';';
; 871  : 
; 872  : 	strcpy( szGraphData, strSingalData);
; 873  : 	szGraphData += strSingalData.GetLength();
; 874  : 
; 875  : 	strcpy( szGraphData, strGraphDataDrawingData);
; 876  : 	szGraphData += strGraphDataDrawingData.GetLength();
; 877  : 
; 878  : 	//   :  - ojtaso (20070507)
; 879  : 	if(lpszRQ)
; 880  : 	{
; 881  : 		strcpy( szGraphData, _T("RQ:"));
; 882  : 		szGraphData += 3;
; 883  : 		strcpy( szGraphData, lpszRQ);
; 884  : 		szGraphData += ::lstrlen(lpszRQ);
; 885  : 	}
; 886  : 
; 887  : 	*szGraphData++ = '\r';
; 888  : 	*szGraphData++ = '\n';
; 889  : 	*szGraphData++ = '\0';
; 890  : }
; 891  : 
; 892  : ///////////////////////////////////////////////////////////////////////////////
; 893  : // class CSubGraphDataBase
; 894  : 
; 895  : CSubGraphDataBase& CSubGraphDataBase::operator=(const CSubGraphDataBase& data)
; 896  : {
; 897  : 	if(this == &data)
; 898  : 		return *this;
; 899  : 
; 900  : 	m_nTitleEndPosition = data.GetTitleEndPosition();
; 901  : 	m_nTitleEndLine = data.GetTitleEndLine();
; 902  : 	m_TYPEType = data.GetType();
; 903  : 	m_nStyle = data.GetStyle();
; 904  : 	m_nDrawStyle = data.GetDrawStyle();
; 905  : 	m_strName = data.GetName();
; 906  : 	m_strTitle = data.GetTitle();
; 907  : 	m_bHiding = data.m_bHiding;
; 908  : 	m_clrColor = data.GetColor();
; 909  : 	m_penThickness = data.GetPenThickness();
; 910  : 	//   :  - ojtaso (20070625)
; 911  : 	m_strItemName = data.GetItemName();
; 912  : 	m_nSubGraphIndex = data.GetSubGraphIndex();	//     - ojtaso (20071116)
; 913  : 	m_nPaintStyle = data.GetPaintStyle();		// Singbar Graph    - ojtaso (20071121)
; 914  : 	m_nBaseLineStyle = data.GetBaseLineDrawStyle();		//  ,   - ojtaso (20071213)
; 915  : 	
; 916  : 	// KTB  - ojtaso (20091019)
; 917  : 	const CArray<ST_HORZLINE*, ST_HORZLINE*>& arrInfo = data.GetHorizontalLine();
; 918  : 	m_arrHorzLine.Copy(arrInfo);	
; 919  : 	return *this;
; 920  : }
; 921  : 
; 922  : CSubGraphDataBase::CSubGraphDataBase():
; 923  : 	m_nTitleEndPosition(0),

  00029	c7 06 00 00 00
	00		 mov	 DWORD PTR [esi], 0

; 927  : {

  0002f	8d 4e 1c	 lea	 ecx, DWORD PTR [esi+28]
  00032	c7 46 04 01 00
	00 00		 mov	 DWORD PTR [esi+4], 1
  00039	c7 46 08 ff ff
	ff ff		 mov	 DWORD PTR [esi+8], -1
; File D:\git\src\IBK\IBK_DRFN\ProjSrc\SrcChartEx\ChartOCX\Include_Chart\BlockBaseData.h

; 42   : 	CGraphStyle() { m_nStyle = -1; };

  00040	c7 46 0c ff ff
	ff ff		 mov	 DWORD PTR [esi+12], -1

; 65   : 	CGraphDrawStyle() { m_nStyle = -1; };

  00047	c7 46 10 ff ff
	ff ff		 mov	 DWORD PTR [esi+16], -1

; 87   : 	CGraphPaintStyle() { m_nStyle = 1; };

  0004e	c7 46 14 01 00
	00 00		 mov	 DWORD PTR [esi+20], 1

; 103  : 	CGraphBaseLineStyle() { m_nStyle = 0; }

  00055	c7 46 18 00 00
	00 00		 mov	 DWORD PTR [esi+24], 0
; File D:\git\src\IBK\IBK_DRFN\ProjSrc\SrcChartEx\ChartOCX\IndicatorCondition\GraphData.cpp

; 927  : {

  0005c	ff 15 00 00 00
	00		 call	 DWORD PTR __imp_??0?$CStringT@DV?$StrTraitMFC_DLL@DV?$ChTraitsCRT@D@ATL@@@@@ATL@@QAE@XZ
  00062	8d 4e 20	 lea	 ecx, DWORD PTR [esi+32]
  00065	c7 45 fc 00 00
	00 00		 mov	 DWORD PTR __$EHRec$[ebp+8], 0
  0006c	ff 15 00 00 00
	00		 call	 DWORD PTR __imp_??0?$CStringT@DV?$StrTraitMFC_DLL@DV?$ChTraitsCRT@D@ATL@@@@@ATL@@QAE@XZ
  00072	8d 4e 28	 lea	 ecx, DWORD PTR [esi+40]
  00075	c6 45 fc 01	 mov	 BYTE PTR __$EHRec$[ebp+8], 1
  00079	c6 46 24 01	 mov	 BYTE PTR [esi+36], 1
  0007d	e8 00 00 00 00	 call	 ??0CGraphColor@@QAE@XZ	; CGraphColor::CGraphColor
  00082	8d 4e 68	 lea	 ecx, DWORD PTR [esi+104]

; 57   : 	m_bIsHightlight(false),

  00085	c6 46 54 00	 mov	 BYTE PTR [esi+84], 0

; 54   : 	m_nThickness1(1),

  00089	c7 46 58 01 00
	00 00		 mov	 DWORD PTR [esi+88], 1

; 55   : 	m_nThickness2(1),

  00090	c7 46 5c 01 00
	00 00		 mov	 DWORD PTR [esi+92], 1

; 56   : 	m_nThickness3(1),

  00097	c7 46 60 01 00
	00 00		 mov	 DWORD PTR [esi+96], 1

; 58   : 	//  ,   - ojtaso (20071213)
; 59   : 	m_nBaseLineThickness(1)

  0009e	c7 46 64 01 00
	00 00		 mov	 DWORD PTR [esi+100], 1

; 927  : {

  000a5	ff 15 00 00 00
	00		 call	 DWORD PTR __imp_??0?$CStringT@DV?$StrTraitMFC_DLL@DV?$ChTraitsCRT@D@ATL@@@@@ATL@@QAE@XZ
; File C:\Program Files (x86)\Microsoft Visual Studio\2019\Community\VC\Tools\MSVC\14.29.30133\atlmfc\include\afxtempl.h

; 348  : {

  000ab	c7 46 70 00 00
	00 00		 mov	 DWORD PTR [esi+112], OFFSET ??_7?$CArray@PAU_ST_HORZLINE@@PAU1@@@6B@
; File D:\git\src\IBK\IBK_DRFN\ProjSrc\SrcChartEx\ChartOCX\IndicatorCondition\GraphData.cpp

; 928  : }

  000b2	8b c6		 mov	 eax, esi
; File C:\Program Files (x86)\Microsoft Visual Studio\2019\Community\VC\Tools\MSVC\14.29.30133\atlmfc\include\afxtempl.h

; 349  : 	m_pData = NULL;

  000b4	c7 46 74 00 00
	00 00		 mov	 DWORD PTR [esi+116], 0

; 350  : 	m_nSize = m_nMaxSize = m_nGrowBy = 0;

  000bb	c7 86 80 00 00
	00 00 00 00 00	 mov	 DWORD PTR [esi+128], 0
  000c5	c7 46 7c 00 00
	00 00		 mov	 DWORD PTR [esi+124], 0
  000cc	c7 46 78 00 00
	00 00		 mov	 DWORD PTR [esi+120], 0
; File D:\git\src\IBK\IBK_DRFN\ProjSrc\SrcChartEx\ChartOCX\IndicatorCondition\GraphData.cpp

; 928  : }

  000d3	8b 4d f4	 mov	 ecx, DWORD PTR __$EHRec$[ebp]
  000d6	64 89 0d 00 00
	00 00		 mov	 DWORD PTR fs:0, ecx
  000dd	59		 pop	 ecx
  000de	5e		 pop	 esi
  000df	8b e5		 mov	 esp, ebp
  000e1	5d		 pop	 ebp
  000e2	c3		 ret	 0
_TEXT	ENDS
;	COMDAT text$x
text$x	SEGMENT
__unwindfunclet$??0CSubGraphDataBase@@QAE@XZ$0:
  00000	8b 4d f0	 mov	 ecx, DWORD PTR _this$[ebp]
  00003	83 c1 1c	 add	 ecx, 28			; 0000001cH
  00006	ff 25 00 00 00
	00		 jmp	 DWORD PTR __imp_??1?$CStringT@DV?$StrTraitMFC_DLL@DV?$ChTraitsCRT@D@ATL@@@@@ATL@@QAE@XZ
__unwindfunclet$??0CSubGraphDataBase@@QAE@XZ$1:
  0000c	8b 4d f0	 mov	 ecx, DWORD PTR _this$[ebp]
  0000f	83 c1 20	 add	 ecx, 32			; 00000020H
  00012	ff 25 00 00 00
	00		 jmp	 DWORD PTR __imp_??1?$CStringT@DV?$StrTraitMFC_DLL@DV?$ChTraitsCRT@D@ATL@@@@@ATL@@QAE@XZ
  00018	cc		 int	 3
  00019	cc		 int	 3
  0001a	cc		 int	 3
  0001b	cc		 int	 3
  0001c	cc		 int	 3
__ehhandler$??0CSubGraphDataBase@@QAE@XZ:
  0001d	90		 npad	 1
  0001e	90		 npad	 1
  0001f	8b 54 24 08	 mov	 edx, DWORD PTR [esp+8]
  00023	8d 42 0c	 lea	 eax, DWORD PTR [edx+12]
  00026	8b 4a f4	 mov	 ecx, DWORD PTR [edx-12]
  00029	33 c8		 xor	 ecx, eax
  0002b	e8 00 00 00 00	 call	 @__security_check_cookie@4
  00030	b8 00 00 00 00	 mov	 eax, OFFSET __ehfuncinfo$??0CSubGraphDataBase@@QAE@XZ
  00035	e9 00 00 00 00	 jmp	 ___CxxFrameHandler3
text$x	ENDS
??0CSubGraphDataBase@@QAE@XZ ENDP			; CSubGraphDataBase::CSubGraphDataBase
; Function compile flags: /Ogtp
; File D:\git\src\IBK\IBK_DRFN\ProjSrc\SrcChartEx\ChartOCX\IndicatorCondition\GraphData.cpp
;	COMDAT ??4CSubGraphDataBase@@QAEAAV0@ABV0@@Z
_TEXT	SEGMENT
$T2 = -84						; size = 44
$T3 = -40						; size = 20
$T4 = -20						; size = 4
$T5 = -16						; size = 4
$T6 = -16						; size = 4
$T7 = -16						; size = 4
__$EHRec$ = -12						; size = 12
$T8 = 8							; size = 4
_data$ = 8						; size = 4
??4CSubGraphDataBase@@QAEAAV0@ABV0@@Z PROC		; CSubGraphDataBase::operator=, COMDAT
; _this$ = ecx

; 896  : {

  00000	55		 push	 ebp
  00001	8b ec		 mov	 ebp, esp
  00003	6a ff		 push	 -1
  00005	68 00 00 00 00	 push	 __ehhandler$??4CSubGraphDataBase@@QAEAAV0@ABV0@@Z
  0000a	64 a1 00 00 00
	00		 mov	 eax, DWORD PTR fs:0
  00010	50		 push	 eax
  00011	83 ec 48	 sub	 esp, 72			; 00000048H
  00014	53		 push	 ebx
  00015	56		 push	 esi
  00016	57		 push	 edi
  00017	a1 00 00 00 00	 mov	 eax, DWORD PTR ___security_cookie
  0001c	33 c5		 xor	 eax, ebp
  0001e	50		 push	 eax
  0001f	8d 45 f4	 lea	 eax, DWORD PTR __$EHRec$[ebp]
  00022	64 a3 00 00 00
	00		 mov	 DWORD PTR fs:0, eax
  00028	8b f1		 mov	 esi, ecx

; 897  : 	if(this == &data)

  0002a	8b 7d 08	 mov	 edi, DWORD PTR _data$[ebp]
  0002d	3b f7		 cmp	 esi, edi
  0002f	0f 84 21 01 00
	00		 je	 $LN37@operator

; 898  : 		return *this;
; 899  : 
; 900  : 	m_nTitleEndPosition = data.GetTitleEndPosition();

  00035	8b 07		 mov	 eax, DWORD PTR [edi]

; 1233 : 	return m_strName;

  00037	8d 4d f0	 lea	 ecx, DWORD PTR $T7[ebp]

; 898  : 		return *this;
; 899  : 
; 900  : 	m_nTitleEndPosition = data.GetTitleEndPosition();

  0003a	89 06		 mov	 DWORD PTR [esi], eax

; 901  : 	m_nTitleEndLine = data.GetTitleEndLine();

  0003c	8b 47 04	 mov	 eax, DWORD PTR [edi+4]
  0003f	89 46 04	 mov	 DWORD PTR [esi+4], eax

; 902  : 	m_TYPEType = data.GetType();

  00042	8b 47 08	 mov	 eax, DWORD PTR [edi+8]
  00045	89 46 08	 mov	 DWORD PTR [esi+8], eax

; 1211 : 	return m_nStyle;

  00048	8b 47 0c	 mov	 eax, DWORD PTR [edi+12]

; 903  : 	m_nStyle = data.GetStyle();

  0004b	89 46 0c	 mov	 DWORD PTR [esi+12], eax

; 1216 : 	return m_nDrawStyle;

  0004e	8b 47 10	 mov	 eax, DWORD PTR [edi+16]

; 904  : 	m_nDrawStyle = data.GetDrawStyle();

  00051	89 46 10	 mov	 DWORD PTR [esi+16], eax

; 1233 : 	return m_strName;

  00054	8d 47 1c	 lea	 eax, DWORD PTR [edi+28]
  00057	50		 push	 eax
  00058	ff 15 00 00 00
	00		 call	 DWORD PTR __imp_??0?$CStringT@DV?$StrTraitMFC_DLL@DV?$ChTraitsCRT@D@ATL@@@@@ATL@@QAE@ABV01@@Z

; 905  : 	m_strName = data.GetName();

  0005e	8d 45 f0	 lea	 eax, DWORD PTR $T7[ebp]
  00061	c7 45 fc 00 00
	00 00		 mov	 DWORD PTR __$EHRec$[ebp+8], 0
  00068	50		 push	 eax
  00069	8d 4e 1c	 lea	 ecx, DWORD PTR [esi+28]
  0006c	ff 15 00 00 00
	00		 call	 DWORD PTR __imp_??4?$CStringT@DV?$StrTraitMFC_DLL@DV?$ChTraitsCRT@D@ATL@@@@@ATL@@QAEAAV01@ABV01@@Z
  00072	8d 4d f0	 lea	 ecx, DWORD PTR $T7[ebp]
  00075	c7 45 fc ff ff
	ff ff		 mov	 DWORD PTR __$EHRec$[ebp+8], -1
  0007c	ff 15 00 00 00
	00		 call	 DWORD PTR __imp_??1?$CStringT@DV?$StrTraitMFC_DLL@DV?$ChTraitsCRT@D@ATL@@@@@ATL@@QAE@XZ

; 1238 : 	return m_strTitle;

  00082	8d 47 20	 lea	 eax, DWORD PTR [edi+32]
  00085	50		 push	 eax
  00086	8d 4d f0	 lea	 ecx, DWORD PTR $T6[ebp]
  00089	ff 15 00 00 00
	00		 call	 DWORD PTR __imp_??0?$CStringT@DV?$StrTraitMFC_DLL@DV?$ChTraitsCRT@D@ATL@@@@@ATL@@QAE@ABV01@@Z

; 906  : 	m_strTitle = data.GetTitle();

  0008f	8d 45 f0	 lea	 eax, DWORD PTR $T6[ebp]
  00092	c7 45 fc 01 00
	00 00		 mov	 DWORD PTR __$EHRec$[ebp+8], 1
  00099	50		 push	 eax
  0009a	8d 4e 20	 lea	 ecx, DWORD PTR [esi+32]
  0009d	ff 15 00 00 00
	00		 call	 DWORD PTR __imp_??4?$CStringT@DV?$StrTraitMFC_DLL@DV?$ChTraitsCRT@D@ATL@@@@@ATL@@QAEAAV01@ABV01@@Z
  000a3	8d 4d f0	 lea	 ecx, DWORD PTR $T6[ebp]
  000a6	c7 45 fc ff ff
	ff ff		 mov	 DWORD PTR __$EHRec$[ebp+8], -1
  000ad	ff 15 00 00 00
	00		 call	 DWORD PTR __imp_??1?$CStringT@DV?$StrTraitMFC_DLL@DV?$ChTraitsCRT@D@ATL@@@@@ATL@@QAE@XZ

; 907  : 	m_bHiding = data.m_bHiding;

  000b3	8a 47 24	 mov	 al, BYTE PTR [edi+36]

; 1255 : 	return m_clrColor;

  000b6	8d 4d ac	 lea	 ecx, DWORD PTR $T2[ebp]

; 907  : 	m_bHiding = data.m_bHiding;

  000b9	88 46 24	 mov	 BYTE PTR [esi+36], al

; 1255 : 	return m_clrColor;

  000bc	8d 47 28	 lea	 eax, DWORD PTR [edi+40]
  000bf	50		 push	 eax
  000c0	e8 00 00 00 00	 call	 ??0CGraphColor@@QAE@ABV0@@Z ; CGraphColor::CGraphColor

; 908  : 	m_clrColor = data.GetColor();

  000c5	8d 45 ac	 lea	 eax, DWORD PTR $T2[ebp]
  000c8	50		 push	 eax
  000c9	8d 4e 28	 lea	 ecx, DWORD PTR [esi+40]
  000cc	e8 00 00 00 00	 call	 ??4CGraphColor@@QAEAAV0@ABV0@@Z ; CGraphColor::operator=

; 77   : 	m_nThickness3(data.GetThickness3()),

  000d1	8b 47 60	 mov	 eax, DWORD PTR [edi+96]
  000d4	8a 4f 54	 mov	 cl, BYTE PTR [edi+84]
  000d7	8b 57 58	 mov	 edx, DWORD PTR [edi+88]
  000da	8b 5f 5c	 mov	 ebx, DWORD PTR [edi+92]
  000dd	89 45 f0	 mov	 DWORD PTR $T5[ebp], eax

; 78   : 	m_bIsHightlight(data.IsHightlight()),
; 79   : 	//  ,   - ojtaso (20071213)
; 80   : 	m_nBaseLineThickness(data.GetBaseLineThickness())

  000e0	8b 47 64	 mov	 eax, DWORD PTR [edi+100]

; 24   : 	if(this == &data)

  000e3	8d 7d d8	 lea	 edi, DWORD PTR $T3[ebp]

; 80   : 	m_nBaseLineThickness(data.GetBaseLineThickness())

  000e6	89 45 ec	 mov	 DWORD PTR $T4[ebp], eax

; 909  : 	m_penThickness = data.GetPenThickness();

  000e9	8d 46 54	 lea	 eax, DWORD PTR [esi+84]

; 24   : 	if(this == &data)

  000ec	3b c7		 cmp	 eax, edi
  000ee	8b 7d 08	 mov	 edi, DWORD PTR _data$[ebp]
  000f1	74 14		 je	 SHORT $LN25@operator

; 25   : 		return *this;
; 26   : 
; 27   : 	m_nThickness1 = data.GetThickness1();

  000f3	89 50 04	 mov	 DWORD PTR [eax+4], edx

; 28   : 	m_nThickness2 = data.GetThickness2();
; 29   : 	m_nThickness3 = data.GetThickness3();

  000f6	8b 55 f0	 mov	 edx, DWORD PTR $T5[ebp]

; 30   : 	m_bIsHightlight = data.IsHightlight();

  000f9	88 08		 mov	 BYTE PTR [eax], cl

; 31   : 
; 32   : 	//  ,   - ojtaso (20071213)
; 33   : 	m_nBaseLineThickness = data.GetBaseLineThickness();

  000fb	8b 4d ec	 mov	 ecx, DWORD PTR $T4[ebp]
  000fe	89 58 08	 mov	 DWORD PTR [eax+8], ebx
  00101	89 50 0c	 mov	 DWORD PTR [eax+12], edx
  00104	89 48 10	 mov	 DWORD PTR [eax+16], ecx
$LN25@operator:

; 1244 : 	return m_strItemName;

  00107	8d 47 68	 lea	 eax, DWORD PTR [edi+104]
  0010a	50		 push	 eax
  0010b	8d 4d 08	 lea	 ecx, DWORD PTR $T8[ebp]
  0010e	ff 15 00 00 00
	00		 call	 DWORD PTR __imp_??0?$CStringT@DV?$StrTraitMFC_DLL@DV?$ChTraitsCRT@D@ATL@@@@@ATL@@QAE@ABV01@@Z

; 910  : 	//   :  - ojtaso (20070625)
; 911  : 	m_strItemName = data.GetItemName();

  00114	8d 45 08	 lea	 eax, DWORD PTR $T8[ebp]
  00117	c7 45 fc 02 00
	00 00		 mov	 DWORD PTR __$EHRec$[ebp+8], 2
  0011e	50		 push	 eax
  0011f	8d 4e 68	 lea	 ecx, DWORD PTR [esi+104]
  00122	ff 15 00 00 00
	00		 call	 DWORD PTR __imp_??4?$CStringT@DV?$StrTraitMFC_DLL@DV?$ChTraitsCRT@D@ATL@@@@@ATL@@QAEAAV01@ABV01@@Z
  00128	8d 4d 08	 lea	 ecx, DWORD PTR $T8[ebp]
  0012b	c7 45 fc ff ff
	ff ff		 mov	 DWORD PTR __$EHRec$[ebp+8], -1
  00132	ff 15 00 00 00
	00		 call	 DWORD PTR __imp_??1?$CStringT@DV?$StrTraitMFC_DLL@DV?$ChTraitsCRT@D@ATL@@@@@ATL@@QAE@XZ

; 912  : 	m_nSubGraphIndex = data.GetSubGraphIndex();	//     - ojtaso (20071116)

  00138	8b 47 6c	 mov	 eax, DWORD PTR [edi+108]

; 913  : 	m_nPaintStyle = data.GetPaintStyle();		// Singbar Graph    - ojtaso (20071121)
; 914  : 	m_nBaseLineStyle = data.GetBaseLineDrawStyle();		//  ,   - ojtaso (20071213)
; 915  : 	
; 916  : 	// KTB  - ojtaso (20091019)
; 917  : 	const CArray<ST_HORZLINE*, ST_HORZLINE*>& arrInfo = data.GetHorizontalLine();
; 918  : 	m_arrHorzLine.Copy(arrInfo);	

  0013b	8d 4e 70	 lea	 ecx, DWORD PTR [esi+112]
  0013e	89 46 6c	 mov	 DWORD PTR [esi+108], eax
  00141	8b 47 14	 mov	 eax, DWORD PTR [edi+20]
  00144	89 46 14	 mov	 DWORD PTR [esi+20], eax
  00147	8b 47 18	 mov	 eax, DWORD PTR [edi+24]
  0014a	89 46 18	 mov	 DWORD PTR [esi+24], eax
  0014d	8d 47 70	 lea	 eax, DWORD PTR [edi+112]
  00150	50		 push	 eax
  00151	e8 00 00 00 00	 call	 ?Copy@?$CArray@PAU_ST_HORZLINE@@PAU1@@@QAEXABV1@@Z ; CArray<_ST_HORZLINE *,_ST_HORZLINE *>::Copy
$LN37@operator:

; 919  : 	return *this;
; 920  : }

  00156	8b c6		 mov	 eax, esi
  00158	8b 4d f4	 mov	 ecx, DWORD PTR __$EHRec$[ebp]
  0015b	64 89 0d 00 00
	00 00		 mov	 DWORD PTR fs:0, ecx
  00162	59		 pop	 ecx
  00163	5f		 pop	 edi
  00164	5e		 pop	 esi
  00165	5b		 pop	 ebx
  00166	8b e5		 mov	 esp, ebp
  00168	5d		 pop	 ebp
  00169	c2 04 00	 ret	 4
_TEXT	ENDS
;	COMDAT text$x
text$x	SEGMENT
__unwindfunclet$??4CSubGraphDataBase@@QAEAAV0@ABV0@@Z$0:
  00000	8d 4d f0	 lea	 ecx, DWORD PTR $T7[ebp]
  00003	ff 25 00 00 00
	00		 jmp	 DWORD PTR __imp_??1?$CStringT@DV?$StrTraitMFC_DLL@DV?$ChTraitsCRT@D@ATL@@@@@ATL@@QAE@XZ
__unwindfunclet$??4CSubGraphDataBase@@QAEAAV0@ABV0@@Z$1:
  00009	8d 4d f0	 lea	 ecx, DWORD PTR $T6[ebp]
  0000c	ff 25 00 00 00
	00		 jmp	 DWORD PTR __imp_??1?$CStringT@DV?$StrTraitMFC_DLL@DV?$ChTraitsCRT@D@ATL@@@@@ATL@@QAE@XZ
__unwindfunclet$??4CSubGraphDataBase@@QAEAAV0@ABV0@@Z$2:
  00012	8d 4d 08	 lea	 ecx, DWORD PTR $T8[ebp]
  00015	ff 25 00 00 00
	00		 jmp	 DWORD PTR __imp_??1?$CStringT@DV?$StrTraitMFC_DLL@DV?$ChTraitsCRT@D@ATL@@@@@ATL@@QAE@XZ
  0001b	cc		 int	 3
  0001c	cc		 int	 3
  0001d	cc		 int	 3
  0001e	cc		 int	 3
  0001f	cc		 int	 3
__ehhandler$??4CSubGraphDataBase@@QAEAAV0@ABV0@@Z:
  00020	90		 npad	 1
  00021	90		 npad	 1
  00022	8b 54 24 08	 mov	 edx, DWORD PTR [esp+8]
  00026	8d 42 0c	 lea	 eax, DWORD PTR [edx+12]
  00029	8b 4a a8	 mov	 ecx, DWORD PTR [edx-88]
  0002c	33 c8		 xor	 ecx, eax
  0002e	e8 00 00 00 00	 call	 @__security_check_cookie@4
  00033	b8 00 00 00 00	 mov	 eax, OFFSET __ehfuncinfo$??4CSubGraphDataBase@@QAEAAV0@ABV0@@Z
  00038	e9 00 00 00 00	 jmp	 ___CxxFrameHandler3
text$x	ENDS
??4CSubGraphDataBase@@QAEAAV0@ABV0@@Z ENDP		; CSubGraphDataBase::operator=
; Function compile flags: /Ogtp
; File D:\git\src\IBK\IBK_DRFN\ProjSrc\SrcChartEx\ChartOCX\IndicatorCondition\GraphData.cpp
;	COMDAT ??0CGraphData@@QAE@ABV0@@Z
_TEXT	SEGMENT
_this$ = -16						; size = 4
__$EHRec$ = -12						; size = 12
___that$ = 8						; size = 4
??0CGraphData@@QAE@ABV0@@Z PROC				; CGraphData::CGraphData, COMDAT
; _this$ = ecx
  00000	55		 push	 ebp
  00001	8b ec		 mov	 ebp, esp
  00003	6a ff		 push	 -1
  00005	68 00 00 00 00	 push	 __ehhandler$??0CGraphData@@QAE@ABV0@@Z
  0000a	64 a1 00 00 00
	00		 mov	 eax, DWORD PTR fs:0
  00010	50		 push	 eax
  00011	51		 push	 ecx
  00012	56		 push	 esi
  00013	57		 push	 edi
  00014	a1 00 00 00 00	 mov	 eax, DWORD PTR ___security_cookie
  00019	33 c5		 xor	 eax, ebp
  0001b	50		 push	 eax
  0001c	8d 45 f4	 lea	 eax, DWORD PTR __$EHRec$[ebp]
  0001f	64 a3 00 00 00
	00		 mov	 DWORD PTR fs:0, eax
  00025	8b f9		 mov	 edi, ecx
  00027	89 7d f0	 mov	 DWORD PTR _this$[ebp], edi

; 569  : 	m_bIsUse(data.IsUse()),

  0002a	8b 75 08	 mov	 esi, DWORD PTR ___that$[ebp]
  0002d	8d 4f 04	 lea	 ecx, DWORD PTR [edi+4]
  00030	c7 07 00 00 00
	00		 mov	 DWORD PTR [edi], OFFSET ??_7CGraphData@@6B@
  00036	8d 46 04	 lea	 eax, DWORD PTR [esi+4]
  00039	50		 push	 eax
  0003a	ff 15 00 00 00
	00		 call	 DWORD PTR __imp_??0?$CStringT@DV?$StrTraitMFC_DLL@DV?$ChTraitsCRT@D@ATL@@@@@ATL@@QAE@ABV01@@Z
  00040	0f b6 46 08	 movzx	 eax, BYTE PTR [esi+8]
  00044	88 47 08	 mov	 BYTE PTR [edi+8], al

; 570  : 	m_bIsShow(data.IsShow())

  00047	0f b6 46 09	 movzx	 eax, BYTE PTR [esi+9]
  0004b	c7 45 fc 00 00
	00 00		 mov	 DWORD PTR __$EHRec$[ebp+8], 0
  00052	88 47 09	 mov	 BYTE PTR [edi+9], al

; 571  : {
; 572  : 	// (2009/10/7 - Seung-Won, Bae) for Signal Arrow Drawing Cache.
; 573  : 	m_pSignalCache = NULL;

  00055	c7 47 0c 00 00
	00 00		 mov	 DWORD PTR [edi+12], 0

; 356  : 	m_bCalcRiseFallRate_LowHigh(data.DoesCalcRiseFallRate_LowHigh()),

  0005c	0f b6 46 10	 movzx	 eax, BYTE PTR [esi+16]
  00060	8d 4f 1c	 lea	 ecx, DWORD PTR [edi+28]
  00063	88 47 10	 mov	 BYTE PTR [edi+16], al

; 357  : 	m_bCalcRiseFallRate_LowCur(data.DoesCalcRiseFallRate_LowCur()),

  00066	0f b6 46 11	 movzx	 eax, BYTE PTR [esi+17]
  0006a	88 47 11	 mov	 BYTE PTR [edi+17], al

; 358  : 	m_bCalcRiseFallRate_HighCur(data.DoesCalcRiseFallRate_HighCur()),

  0006d	0f b6 46 12	 movzx	 eax, BYTE PTR [esi+18]
  00071	88 47 12	 mov	 BYTE PTR [edi+18], al

; 359  : 	m_bCalcRate_PrevCur(data.DoesCalcRate_PrevCur()),

  00074	0f b6 46 13	 movzx	 eax, BYTE PTR [esi+19]
  00078	88 47 13	 mov	 BYTE PTR [edi+19], al

; 360  : 	m_nCalcRiseFallRate_CurData(data.GetCalcRiseFallRate_CurData()),

  0007b	8b 46 14	 mov	 eax, DWORD PTR [esi+20]
  0007e	89 47 14	 mov	 DWORD PTR [edi+20], eax

; 361  : 	// (2009/9/12 - Seung-Won, Bae) for OHLC graph data
; 362  : 	m_bShowOHLC( data.GetShowOHLC())

  00081	8b 46 18	 mov	 eax, DWORD PTR [esi+24]
  00084	89 47 18	 mov	 DWORD PTR [edi+24], eax
  00087	8d 46 1c	 lea	 eax, DWORD PTR [esi+28]
  0008a	50		 push	 eax
  0008b	c6 45 fc 01	 mov	 BYTE PTR __$EHRec$[ebp+8], 1
  0008f	ff 15 00 00 00
	00		 call	 DWORD PTR __imp_??0?$CStringT@DV?$StrTraitMFC_DLL@DV?$ChTraitsCRT@D@ATL@@@@@ATL@@QAE@ABV01@@Z
  00095	8d 46 20	 lea	 eax, DWORD PTR [esi+32]
  00098	c6 45 fc 02	 mov	 BYTE PTR __$EHRec$[ebp+8], 2
  0009c	50		 push	 eax
  0009d	8d 4f 20	 lea	 ecx, DWORD PTR [edi+32]
  000a0	ff 15 00 00 00
	00		 call	 DWORD PTR __imp_??0?$CStringT@DV?$StrTraitMFC_DLL@DV?$ChTraitsCRT@D@ATL@@@@@ATL@@QAE@ABV01@@Z
  000a6	8b c7		 mov	 eax, edi
  000a8	8b 4d f4	 mov	 ecx, DWORD PTR __$EHRec$[ebp]
  000ab	64 89 0d 00 00
	00 00		 mov	 DWORD PTR fs:0, ecx
  000b2	59		 pop	 ecx
  000b3	5f		 pop	 edi
  000b4	5e		 pop	 esi
  000b5	8b e5		 mov	 esp, ebp
  000b7	5d		 pop	 ebp
  000b8	c2 04 00	 ret	 4
_TEXT	ENDS
;	COMDAT text$x
text$x	SEGMENT
__unwindfunclet$??0CGraphData@@QAE@ABV0@@Z$0:
  00000	8b 4d f0	 mov	 ecx, DWORD PTR _this$[ebp]
  00003	83 c1 04	 add	 ecx, 4
  00006	ff 25 00 00 00
	00		 jmp	 DWORD PTR __imp_??1?$CStringT@DV?$StrTraitMFC_DLL@DV?$ChTraitsCRT@D@ATL@@@@@ATL@@QAE@XZ
__unwindfunclet$??0CGraphData@@QAE@ABV0@@Z$1:
  0000c	8b 4d f0	 mov	 ecx, DWORD PTR _this$[ebp]
  0000f	83 c1 08	 add	 ecx, 8
  00012	e9 00 00 00 00	 jmp	 ??1CSignalData@@QAE@XZ	; CSignalData::~CSignalData
__unwindfunclet$??0CGraphData@@QAE@ABV0@@Z$2:
  00017	8b 4d f0	 mov	 ecx, DWORD PTR _this$[ebp]
  0001a	83 c1 1c	 add	 ecx, 28			; 0000001cH
  0001d	ff 25 00 00 00
	00		 jmp	 DWORD PTR __imp_??1?$CStringT@DV?$StrTraitMFC_DLL@DV?$ChTraitsCRT@D@ATL@@@@@ATL@@QAE@XZ
  00023	cc		 int	 3
  00024	cc		 int	 3
  00025	cc		 int	 3
  00026	cc		 int	 3
  00027	cc		 int	 3
__ehhandler$??0CGraphData@@QAE@ABV0@@Z:
  00028	90		 npad	 1
  00029	90		 npad	 1
  0002a	8b 54 24 08	 mov	 edx, DWORD PTR [esp+8]
  0002e	8d 42 0c	 lea	 eax, DWORD PTR [edx+12]
  00031	8b 4a f0	 mov	 ecx, DWORD PTR [edx-16]
  00034	33 c8		 xor	 ecx, eax
  00036	e8 00 00 00 00	 call	 @__security_check_cookie@4
  0003b	b8 00 00 00 00	 mov	 eax, OFFSET __ehfuncinfo$??0CGraphData@@QAE@ABV0@@Z
  00040	e9 00 00 00 00	 jmp	 ___CxxFrameHandler3
text$x	ENDS
??0CGraphData@@QAE@ABV0@@Z ENDP				; CGraphData::CGraphData
; Function compile flags: /Ogtp
; File D:\git\src\IBK\IBK_DRFN\ProjSrc\SrcChartEx\ChartOCX\IndicatorCondition\GraphData.cpp
;	COMDAT ??1CGraphData@@QAE@XZ
_TEXT	SEGMENT
??1CGraphData@@QAE@XZ PROC				; CGraphData::~CGraphData, COMDAT
; _this$ = ecx

; 667  : 	if( m_pSignalCache)

  00000	56		 push	 esi
  00001	8b f1		 mov	 esi, ecx
  00003	8d 4e 20	 lea	 ecx, DWORD PTR [esi+32]
  00006	ff 15 00 00 00
	00		 call	 DWORD PTR __imp_??1?$CStringT@DV?$StrTraitMFC_DLL@DV?$ChTraitsCRT@D@ATL@@@@@ATL@@QAE@XZ
  0000c	8d 4e 1c	 lea	 ecx, DWORD PTR [esi+28]
  0000f	ff 15 00 00 00
	00		 call	 DWORD PTR __imp_??1?$CStringT@DV?$StrTraitMFC_DLL@DV?$ChTraitsCRT@D@ATL@@@@@ATL@@QAE@XZ
  00015	8b 4e 0c	 mov	 ecx, DWORD PTR [esi+12]
  00018	85 c9		 test	 ecx, ecx
  0001a	74 0d		 je	 SHORT $LN6@CGraphData

; 668  : 	{
; 669  : 		delete m_pSignalCache;

  0001c	8b 01		 mov	 eax, DWORD PTR [ecx]
  0001e	6a 01		 push	 1
  00020	ff 10		 call	 DWORD PTR [eax]

; 670  : 		m_pSignalCache = NULL;

  00022	c7 46 0c 00 00
	00 00		 mov	 DWORD PTR [esi+12], 0
$LN6@CGraphData:
  00029	8d 4e 04	 lea	 ecx, DWORD PTR [esi+4]
  0002c	5e		 pop	 esi
  0002d	ff 25 00 00 00
	00		 jmp	 DWORD PTR __imp_??1?$CStringT@DV?$StrTraitMFC_DLL@DV?$ChTraitsCRT@D@ATL@@@@@ATL@@QAE@XZ
??1CGraphData@@QAE@XZ ENDP				; CGraphData::~CGraphData
_TEXT	ENDS
; Function compile flags: /Ogtp
; File D:\git\src\IBK\IBK_DRFN\ProjSrc\SrcChartEx\ChartOCX\Include_Chart\GraphData.h
;	COMDAT ?GetIndicatorName2@CGraphData@@QBE?AV?$CStringT@DV?$StrTraitMFC_DLL@DV?$ChTraitsCRT@D@ATL@@@@@ATL@@XZ
_TEXT	SEGMENT
___$ReturnUdt$ = 8					; size = 4
?GetIndicatorName2@CGraphData@@QBE?AV?$CStringT@DV?$StrTraitMFC_DLL@DV?$ChTraitsCRT@D@ATL@@@@@ATL@@XZ PROC ; CGraphData::GetIndicatorName2, COMDAT
; _this$ = ecx

; 232  : 	CString			GetIndicatorName2( void) const							{	return GetIndicatorName();					}

  00000	55		 push	 ebp
  00001	8b ec		 mov	 ebp, esp

; 229  : 	CString			GetIndicatorName( void) const							{	return m_strIndicatorName;					}

  00003	8d 41 1c	 lea	 eax, DWORD PTR [ecx+28]
  00006	8b 4d 08	 mov	 ecx, DWORD PTR ___$ReturnUdt$[ebp]
  00009	50		 push	 eax
  0000a	ff 15 00 00 00
	00		 call	 DWORD PTR __imp_??0?$CStringT@DV?$StrTraitMFC_DLL@DV?$ChTraitsCRT@D@ATL@@@@@ATL@@QAE@ABV01@@Z

; 232  : 	CString			GetIndicatorName2( void) const							{	return GetIndicatorName();					}

  00010	8b 45 08	 mov	 eax, DWORD PTR ___$ReturnUdt$[ebp]
  00013	5d		 pop	 ebp
  00014	c2 04 00	 ret	 4
?GetIndicatorName2@CGraphData@@QBE?AV?$CStringT@DV?$StrTraitMFC_DLL@DV?$ChTraitsCRT@D@ATL@@@@@ATL@@XZ ENDP ; CGraphData::GetIndicatorName2
_TEXT	ENDS
; Function compile flags: /Ogtp
; File D:\git\src\IBK\IBK_DRFN\ProjSrc\SrcChartEx\ChartOCX\Include_Chart\GraphData.h
;	COMDAT ?GetGraphName2@CGraphData@@QBE?AV?$CStringT@DV?$StrTraitMFC_DLL@DV?$ChTraitsCRT@D@ATL@@@@@ATL@@XZ
_TEXT	SEGMENT
___$ReturnUdt$ = 8					; size = 4
?GetGraphName2@CGraphData@@QBE?AV?$CStringT@DV?$StrTraitMFC_DLL@DV?$ChTraitsCRT@D@ATL@@@@@ATL@@XZ PROC ; CGraphData::GetGraphName2, COMDAT
; _this$ = ecx

; 231  : 	CString			GetGraphName2( void) const								{	return GetGraphName();						}

  00000	55		 push	 ebp
  00001	8b ec		 mov	 ebp, esp

; 228  : 	CString			GetGraphName( void) const								{	return m_strGraphName;						}

  00003	8d 41 20	 lea	 eax, DWORD PTR [ecx+32]
  00006	8b 4d 08	 mov	 ecx, DWORD PTR ___$ReturnUdt$[ebp]
  00009	50		 push	 eax
  0000a	ff 15 00 00 00
	00		 call	 DWORD PTR __imp_??0?$CStringT@DV?$StrTraitMFC_DLL@DV?$ChTraitsCRT@D@ATL@@@@@ATL@@QAE@ABV01@@Z

; 231  : 	CString			GetGraphName2( void) const								{	return GetGraphName();						}

  00010	8b 45 08	 mov	 eax, DWORD PTR ___$ReturnUdt$[ebp]
  00013	5d		 pop	 ebp
  00014	c2 04 00	 ret	 4
?GetGraphName2@CGraphData@@QBE?AV?$CStringT@DV?$StrTraitMFC_DLL@DV?$ChTraitsCRT@D@ATL@@@@@ATL@@XZ ENDP ; CGraphData::GetGraphName2
_TEXT	ENDS
; Function compile flags: /Ogtp
; File D:\git\src\IBK\IBK_DRFN\ProjSrc\SrcChartEx\ChartOCX\Include_Chart\GraphData.h
;	COMDAT ?GetIndicatorName@CGraphData@@QBE?AV?$CStringT@DV?$StrTraitMFC_DLL@DV?$ChTraitsCRT@D@ATL@@@@@ATL@@XZ
_TEXT	SEGMENT
___$ReturnUdt$ = 8					; size = 4
?GetIndicatorName@CGraphData@@QBE?AV?$CStringT@DV?$StrTraitMFC_DLL@DV?$ChTraitsCRT@D@ATL@@@@@ATL@@XZ PROC ; CGraphData::GetIndicatorName, COMDAT
; _this$ = ecx

; 229  : 	CString			GetIndicatorName( void) const							{	return m_strIndicatorName;					}

  00000	55		 push	 ebp
  00001	8b ec		 mov	 ebp, esp
  00003	8d 41 1c	 lea	 eax, DWORD PTR [ecx+28]
  00006	8b 4d 08	 mov	 ecx, DWORD PTR ___$ReturnUdt$[ebp]
  00009	50		 push	 eax
  0000a	ff 15 00 00 00
	00		 call	 DWORD PTR __imp_??0?$CStringT@DV?$StrTraitMFC_DLL@DV?$ChTraitsCRT@D@ATL@@@@@ATL@@QAE@ABV01@@Z
  00010	8b 45 08	 mov	 eax, DWORD PTR ___$ReturnUdt$[ebp]
  00013	5d		 pop	 ebp
  00014	c2 04 00	 ret	 4
?GetIndicatorName@CGraphData@@QBE?AV?$CStringT@DV?$StrTraitMFC_DLL@DV?$ChTraitsCRT@D@ATL@@@@@ATL@@XZ ENDP ; CGraphData::GetIndicatorName
_TEXT	ENDS
; Function compile flags: /Ogtp
; File D:\git\src\IBK\IBK_DRFN\ProjSrc\SrcChartEx\ChartOCX\Include_Chart\GraphData.h
;	COMDAT ?GetGraphName@CGraphData@@QBE?AV?$CStringT@DV?$StrTraitMFC_DLL@DV?$ChTraitsCRT@D@ATL@@@@@ATL@@XZ
_TEXT	SEGMENT
___$ReturnUdt$ = 8					; size = 4
?GetGraphName@CGraphData@@QBE?AV?$CStringT@DV?$StrTraitMFC_DLL@DV?$ChTraitsCRT@D@ATL@@@@@ATL@@XZ PROC ; CGraphData::GetGraphName, COMDAT
; _this$ = ecx

; 228  : 	CString			GetGraphName( void) const								{	return m_strGraphName;						}

  00000	55		 push	 ebp
  00001	8b ec		 mov	 ebp, esp
  00003	8d 41 20	 lea	 eax, DWORD PTR [ecx+32]
  00006	8b 4d 08	 mov	 ecx, DWORD PTR ___$ReturnUdt$[ebp]
  00009	50		 push	 eax
  0000a	ff 15 00 00 00
	00		 call	 DWORD PTR __imp_??0?$CStringT@DV?$StrTraitMFC_DLL@DV?$ChTraitsCRT@D@ATL@@@@@ATL@@QAE@ABV01@@Z
  00010	8b 45 08	 mov	 eax, DWORD PTR ___$ReturnUdt$[ebp]
  00013	5d		 pop	 ebp
  00014	c2 04 00	 ret	 4
?GetGraphName@CGraphData@@QBE?AV?$CStringT@DV?$StrTraitMFC_DLL@DV?$ChTraitsCRT@D@ATL@@@@@ATL@@XZ ENDP ; CGraphData::GetGraphName
_TEXT	ENDS
; Function compile flags: /Ogtp
; File D:\git\src\IBK\IBK_DRFN\ProjSrc\SrcChartEx\ChartOCX\Include_Chart\GraphData.h
;	COMDAT ?SetGraphName@CGraphData@@MAEXABV?$CStringT@DV?$StrTraitMFC_DLL@DV?$ChTraitsCRT@D@ATL@@@@@ATL@@@Z
_TEXT	SEGMENT
_p_strGraphName$ = 8					; size = 4
?SetGraphName@CGraphData@@MAEXABV?$CStringT@DV?$StrTraitMFC_DLL@DV?$ChTraitsCRT@D@ATL@@@@@ATL@@@Z PROC ; CGraphData::SetGraphName, COMDAT
; _this$ = ecx

; 225  : 	virtual void	SetGraphName(		const CString &p_strGraphName)		{	m_strGraphName		= p_strGraphName;		}

  00000	55		 push	 ebp
  00001	8b ec		 mov	 ebp, esp
  00003	83 c1 20	 add	 ecx, 32			; 00000020H
  00006	5d		 pop	 ebp
  00007	ff 25 00 00 00
	00		 jmp	 DWORD PTR __imp_??4?$CStringT@DV?$StrTraitMFC_DLL@DV?$ChTraitsCRT@D@ATL@@@@@ATL@@QAEAAV01@ABV01@@Z
?SetGraphName@CGraphData@@MAEXABV?$CStringT@DV?$StrTraitMFC_DLL@DV?$ChTraitsCRT@D@ATL@@@@@ATL@@@Z ENDP ; CGraphData::SetGraphName
_TEXT	ENDS
; Function compile flags: /Ogtp
; File D:\git\src\IBK\IBK_DRFN\ProjSrc\SrcChartEx\ChartOCX\Include_Chart\GraphData.h
;	COMDAT ?SetIndicatorName@CGraphData@@MAEXABV?$CStringT@DV?$StrTraitMFC_DLL@DV?$ChTraitsCRT@D@ATL@@@@@ATL@@@Z
_TEXT	SEGMENT
_p_strIndicatorName$ = 8				; size = 4
?SetIndicatorName@CGraphData@@MAEXABV?$CStringT@DV?$StrTraitMFC_DLL@DV?$ChTraitsCRT@D@ATL@@@@@ATL@@@Z PROC ; CGraphData::SetIndicatorName, COMDAT
; _this$ = ecx

; 224  : 	virtual void	SetIndicatorName(	const CString &p_strIndicatorName)	{	m_strIndicatorName	= p_strIndicatorName;	}

  00000	55		 push	 ebp
  00001	8b ec		 mov	 ebp, esp
  00003	83 c1 1c	 add	 ecx, 28			; 0000001cH
  00006	5d		 pop	 ebp
  00007	ff 25 00 00 00
	00		 jmp	 DWORD PTR __imp_??4?$CStringT@DV?$StrTraitMFC_DLL@DV?$ChTraitsCRT@D@ATL@@@@@ATL@@QAEAAV01@ABV01@@Z
?SetIndicatorName@CGraphData@@MAEXABV?$CStringT@DV?$StrTraitMFC_DLL@DV?$ChTraitsCRT@D@ATL@@@@@ATL@@@Z ENDP ; CGraphData::SetIndicatorName
_TEXT	ENDS
; Function compile flags: /Ogtp
; File D:\git\src\IBK\IBK_DRFN\ProjSrc\SrcChartEx\ChartOCX\IndicatorCondition\GraphData.cpp
;	COMDAT ?SetGraphDataDrawingData@CGraphData@@QAEXABVCGraphDataDrawingData@@@Z
_TEXT	SEGMENT
_drawingData$ = 8					; size = 4
?SetGraphDataDrawingData@CGraphData@@QAEXABVCGraphDataDrawingData@@@Z PROC ; CGraphData::SetGraphDataDrawingData, COMDAT
; _this$ = ecx

; 721  : {

  00000	55		 push	 ebp
  00001	8b ec		 mov	 ebp, esp

; 292  : 	if(this == &data)

  00003	8b 55 08	 mov	 edx, DWORD PTR _drawingData$[ebp]

; 722  : 	m_graphDataDrawingData = drawingData;

  00006	83 c1 10	 add	 ecx, 16			; 00000010H

; 292  : 	if(this == &data)

  00009	3b ca		 cmp	 ecx, edx
  0000b	74 26		 je	 SHORT $LN3@SetGraphDa

; 293  : 		return *this;
; 294  : 
; 295  : 	m_bCalcRiseFallRate_LowHigh = data.DoesCalcRiseFallRate_LowHigh();

  0000d	0f b6 02	 movzx	 eax, BYTE PTR [edx]
  00010	88 01		 mov	 BYTE PTR [ecx], al

; 296  : 	m_bCalcRiseFallRate_LowCur = data.DoesCalcRiseFallRate_LowCur();

  00012	0f b6 42 01	 movzx	 eax, BYTE PTR [edx+1]
  00016	88 41 01	 mov	 BYTE PTR [ecx+1], al

; 297  : 	m_bCalcRiseFallRate_HighCur = data.DoesCalcRiseFallRate_HighCur();

  00019	0f b6 42 02	 movzx	 eax, BYTE PTR [edx+2]
  0001d	88 41 02	 mov	 BYTE PTR [ecx+2], al

; 298  : 	m_bCalcRate_PrevCur = data.DoesCalcRate_PrevCur();

  00020	0f b6 42 03	 movzx	 eax, BYTE PTR [edx+3]
  00024	88 41 03	 mov	 BYTE PTR [ecx+3], al

; 299  : 	m_nCalcRiseFallRate_CurData = data.GetCalcRiseFallRate_CurData();

  00027	8b 42 04	 mov	 eax, DWORD PTR [edx+4]
  0002a	89 41 04	 mov	 DWORD PTR [ecx+4], eax

; 300  : 	// (2009/9/12 - Seung-Won, Bae) for OHLC graph data
; 301  : 	m_bShowOHLC = data.GetShowOHLC();

  0002d	8b 42 08	 mov	 eax, DWORD PTR [edx+8]
  00030	89 41 08	 mov	 DWORD PTR [ecx+8], eax
$LN3@SetGraphDa:

; 723  : }

  00033	5d		 pop	 ebp
  00034	c2 04 00	 ret	 4
?SetGraphDataDrawingData@CGraphData@@QAEXABVCGraphDataDrawingData@@@Z ENDP ; CGraphData::SetGraphDataDrawingData
_TEXT	ENDS
; Function compile flags: /Ogtp
; File D:\git\src\IBK\IBK_DRFN\ProjSrc\SrcChartEx\ChartOCX\IndicatorCondition\GraphData.cpp
;	COMDAT ?GetGraphDataDrawingData@CGraphData@@QAEAAVCGraphDataDrawingData@@XZ
_TEXT	SEGMENT
?GetGraphDataDrawingData@CGraphData@@QAEAAVCGraphDataDrawingData@@XZ PROC ; CGraphData::GetGraphDataDrawingData, COMDAT
; _this$ = ecx

; 757  : 	return m_graphDataDrawingData;

  00000	8d 41 10	 lea	 eax, DWORD PTR [ecx+16]

; 758  : }

  00003	c3		 ret	 0
?GetGraphDataDrawingData@CGraphData@@QAEAAVCGraphDataDrawingData@@XZ ENDP ; CGraphData::GetGraphDataDrawingData
_TEXT	ENDS
; Function compile flags: /Ogtp
; File D:\git\src\IBK\IBK_DRFN\ProjSrc\SrcChartEx\ChartOCX\IndicatorCondition\GraphData.cpp
;	COMDAT ?GetGraphDataDrawingData@CGraphData@@QBE?AVCGraphDataDrawingData@@XZ
_TEXT	SEGMENT
___$ReturnUdt$ = 8					; size = 4
?GetGraphDataDrawingData@CGraphData@@QBE?AVCGraphDataDrawingData@@XZ PROC ; CGraphData::GetGraphDataDrawingData, COMDAT
; _this$ = ecx

; 751  : {

  00000	55		 push	 ebp
  00001	8b ec		 mov	 ebp, esp
  00003	56		 push	 esi

; 356  : 	m_bCalcRiseFallRate_LowHigh(data.DoesCalcRiseFallRate_LowHigh()),

  00004	8b 75 08	 mov	 esi, DWORD PTR ___$ReturnUdt$[ebp]

; 751  : {

  00007	57		 push	 edi
  00008	8b f9		 mov	 edi, ecx

; 359  : 	m_bCalcRate_PrevCur(data.DoesCalcRate_PrevCur()),

  0000a	8a 4f 13	 mov	 cl, BYTE PTR [edi+19]
  0000d	0f b6 57 11	 movzx	 edx, BYTE PTR [edi+17]
  00011	8a 47 10	 mov	 al, BYTE PTR [edi+16]
  00014	88 4e 03	 mov	 BYTE PTR [esi+3], cl

; 360  : 	m_nCalcRiseFallRate_CurData(data.GetCalcRiseFallRate_CurData()),

  00017	8b 4f 14	 mov	 ecx, DWORD PTR [edi+20]
  0001a	88 56 01	 mov	 BYTE PTR [esi+1], dl
  0001d	0f b6 57 12	 movzx	 edx, BYTE PTR [edi+18]
  00021	89 4e 04	 mov	 DWORD PTR [esi+4], ecx

; 361  : 	// (2009/9/12 - Seung-Won, Bae) for OHLC graph data
; 362  : 	m_bShowOHLC( data.GetShowOHLC())

  00024	8b 4f 18	 mov	 ecx, DWORD PTR [edi+24]
  00027	88 06		 mov	 BYTE PTR [esi], al

; 752  : 	return m_graphDataDrawingData;

  00029	8b c6		 mov	 eax, esi
  0002b	5f		 pop	 edi

; 358  : 	m_bCalcRiseFallRate_HighCur(data.DoesCalcRiseFallRate_HighCur()),

  0002c	88 56 02	 mov	 BYTE PTR [esi+2], dl

; 361  : 	// (2009/9/12 - Seung-Won, Bae) for OHLC graph data
; 362  : 	m_bShowOHLC( data.GetShowOHLC())

  0002f	89 4e 08	 mov	 DWORD PTR [esi+8], ecx

; 752  : 	return m_graphDataDrawingData;

  00032	5e		 pop	 esi

; 753  : }

  00033	5d		 pop	 ebp
  00034	c2 04 00	 ret	 4
?GetGraphDataDrawingData@CGraphData@@QBE?AVCGraphDataDrawingData@@XZ ENDP ; CGraphData::GetGraphDataDrawingData
_TEXT	ENDS
; Function compile flags: /Ogtp
; File D:\git\src\IBK\IBK_DRFN\ProjSrc\SrcChartEx\ChartOCX\IndicatorCondition\GraphData.cpp
;	COMDAT ?SetSignalData@CGraphData@@QAEX_N0@Z
_TEXT	SEGMENT
_bIsUse$ = 8						; size = 1
_bIsShow$ = 12						; size = 1
?SetSignalData@CGraphData@@QAEX_N0@Z PROC		; CGraphData::SetSignalData, COMDAT
; _this$ = ecx

; 715  : {

  00000	55		 push	 ebp
  00001	8b ec		 mov	 ebp, esp

; 716  : 	m_signalData.SetUse(bIsUse);

  00003	8a 45 08	 mov	 al, BYTE PTR _bIsUse$[ebp]
  00006	88 41 08	 mov	 BYTE PTR [ecx+8], al

; 717  : 	m_signalData.SetShow(bIsShow);

  00009	8a 45 0c	 mov	 al, BYTE PTR _bIsShow$[ebp]
  0000c	88 41 09	 mov	 BYTE PTR [ecx+9], al

; 718  : }

  0000f	5d		 pop	 ebp
  00010	c2 08 00	 ret	 8
?SetSignalData@CGraphData@@QAEX_N0@Z ENDP		; CGraphData::SetSignalData
_TEXT	ENDS
; Function compile flags: /Ogtp
; File D:\git\src\IBK\IBK_DRFN\ProjSrc\SrcChartEx\ChartOCX\IndicatorCondition\GraphData.cpp
;	COMDAT ?SetSignalData@CGraphData@@QAEXABVCSignalData@@@Z
_TEXT	SEGMENT
_signalData$ = 8					; size = 4
?SetSignalData@CGraphData@@QAEXABVCSignalData@@@Z PROC	; CGraphData::SetSignalData, COMDAT
; _this$ = ecx

; 710  : {

  00000	55		 push	 ebp
  00001	8b ec		 mov	 ebp, esp

; 536  : 	if(this == &data)

  00003	8b 55 08	 mov	 edx, DWORD PTR _signalData$[ebp]

; 711  : 	m_signalData = signalData;

  00006	83 c1 08	 add	 ecx, 8

; 536  : 	if(this == &data)

  00009	3b ca		 cmp	 ecx, edx
  0000b	74 0c		 je	 SHORT $LN3@SetSignalD

; 537  : 		return *this;
; 538  : 
; 539  : 	m_bIsUse = data.IsUse();

  0000d	0f b6 02	 movzx	 eax, BYTE PTR [edx]
  00010	88 01		 mov	 BYTE PTR [ecx], al

; 540  : 	m_bIsShow = data.IsShow();

  00012	0f b6 42 01	 movzx	 eax, BYTE PTR [edx+1]
  00016	88 41 01	 mov	 BYTE PTR [ecx+1], al
$LN3@SetSignalD:

; 712  : }

  00019	5d		 pop	 ebp
  0001a	c2 04 00	 ret	 4
?SetSignalData@CGraphData@@QAEXABVCSignalData@@@Z ENDP	; CGraphData::SetSignalData
_TEXT	ENDS
; Function compile flags: /Ogtp
; File D:\git\src\IBK\IBK_DRFN\ProjSrc\SrcChartEx\ChartOCX\IndicatorCondition\GraphData.cpp
;	COMDAT ?IsSignalShow@CGraphData@@QBE_NXZ
_TEXT	SEGMENT
?IsSignalShow@CGraphData@@QBE_NXZ PROC			; CGraphData::IsSignalShow, COMDAT
; _this$ = ecx

; 747  : 	return m_signalData.IsShow();

  00000	8a 41 09	 mov	 al, BYTE PTR [ecx+9]

; 748  : }

  00003	c3		 ret	 0
?IsSignalShow@CGraphData@@QBE_NXZ ENDP			; CGraphData::IsSignalShow
_TEXT	ENDS
; Function compile flags: /Ogtp
; File D:\git\src\IBK\IBK_DRFN\ProjSrc\SrcChartEx\ChartOCX\IndicatorCondition\GraphData.cpp
;	COMDAT ?IsSignalUse@CGraphData@@QBE_NXZ
_TEXT	SEGMENT
?IsSignalUse@CGraphData@@QBE_NXZ PROC			; CGraphData::IsSignalUse, COMDAT
; _this$ = ecx

; 742  : 	return m_signalData.IsUse();

  00000	8a 41 08	 mov	 al, BYTE PTR [ecx+8]

; 743  : }

  00003	c3		 ret	 0
?IsSignalUse@CGraphData@@QBE_NXZ ENDP			; CGraphData::IsSignalUse
_TEXT	ENDS
; Function compile flags: /Ogtp
; File D:\git\src\IBK\IBK_DRFN\ProjSrc\SrcChartEx\ChartOCX\IndicatorCondition\GraphData.cpp
;	COMDAT ?GetSignalData@CGraphData@@QAEAAVCSignalData@@XZ
_TEXT	SEGMENT
?GetSignalData@CGraphData@@QAEAAVCSignalData@@XZ PROC	; CGraphData::GetSignalData, COMDAT
; _this$ = ecx

; 737  : 	return m_signalData;

  00000	8d 41 08	 lea	 eax, DWORD PTR [ecx+8]

; 738  : }

  00003	c3		 ret	 0
?GetSignalData@CGraphData@@QAEAAVCSignalData@@XZ ENDP	; CGraphData::GetSignalData
_TEXT	ENDS
; Function compile flags: /Ogtp
; File D:\git\src\IBK\IBK_DRFN\ProjSrc\SrcChartEx\ChartOCX\IndicatorCondition\GraphData.cpp
;	COMDAT ?GetSignalData@CGraphData@@QBE?AVCSignalData@@XZ
_TEXT	SEGMENT
___$ReturnUdt$ = 8					; size = 4
?GetSignalData@CGraphData@@QBE?AVCSignalData@@XZ PROC	; CGraphData::GetSignalData, COMDAT
; _this$ = ecx

; 731  : {

  00000	55		 push	 ebp
  00001	8b ec		 mov	 ebp, esp

; 569  : 	m_bIsUse(data.IsUse()),

  00003	8b 45 08	 mov	 eax, DWORD PTR ___$ReturnUdt$[ebp]
  00006	8a 51 08	 mov	 dl, BYTE PTR [ecx+8]

; 570  : 	m_bIsShow(data.IsShow())

  00009	8a 49 09	 mov	 cl, BYTE PTR [ecx+9]
  0000c	88 10		 mov	 BYTE PTR [eax], dl
  0000e	88 48 01	 mov	 BYTE PTR [eax+1], cl

; 571  : {
; 572  : 	// (2009/10/7 - Seung-Won, Bae) for Signal Arrow Drawing Cache.
; 573  : 	m_pSignalCache = NULL;

  00011	c7 40 04 00 00
	00 00		 mov	 DWORD PTR [eax+4], 0

; 732  : 	return m_signalData;
; 733  : }

  00018	5d		 pop	 ebp
  00019	c2 04 00	 ret	 4
?GetSignalData@CGraphData@@QBE?AVCSignalData@@XZ ENDP	; CGraphData::GetSignalData
_TEXT	ENDS
; Function compile flags: /Ogtp
; File D:\git\src\IBK\IBK_DRFN\ProjSrc\SrcChartEx\ChartOCX\IndicatorCondition\GraphData.cpp
; File C:\Program Files (x86)\Microsoft Visual Studio\2019\Community\VC\Tools\MSVC\14.29.30133\atlmfc\include\atlsimpstr.h
; File D:\git\src\IBK\IBK_DRFN\ProjSrc\SrcChartEx\ChartOCX\IndicatorCondition\GraphData.cpp
; File C:\Program Files (x86)\Microsoft Visual Studio\2019\Community\VC\Tools\MSVC\14.29.30133\atlmfc\include\cstringt.h
; File D:\git\src\IBK\IBK_DRFN\ProjSrc\SrcChartEx\ChartOCX\IndicatorCondition\GraphData.cpp
;	COMDAT ?SetPacketNames@CGraphData@@QAEXABV?$CStringT@DV?$StrTraitMFC_DLL@DV?$ChTraitsCRT@D@ATL@@@@@ATL@@@Z
_TEXT	SEGMENT
_packetNames$ = 8					; size = 4
?SetPacketNames@CGraphData@@QAEXABV?$CStringT@DV?$StrTraitMFC_DLL@DV?$ChTraitsCRT@D@ATL@@@@@ATL@@@Z PROC ; CGraphData::SetPacketNames, COMDAT
; _this$ = ecx

; 702  : {

  00000	55		 push	 ebp
  00001	8b ec		 mov	 ebp, esp
  00003	56		 push	 esi
; File C:\Program Files (x86)\Microsoft Visual Studio\2019\Community\VC\Tools\MSVC\14.29.30133\atlmfc\include\atlsimpstr.h

; 377  : 		return( m_pszData );

  00004	8b 75 08	 mov	 esi, DWORD PTR _packetNames$[ebp]
; File D:\git\src\IBK\IBK_DRFN\ProjSrc\SrcChartEx\ChartOCX\IndicatorCondition\GraphData.cpp

; 702  : {

  00007	57		 push	 edi

; 703  : 	if(m_strPacketName == packetNames)

  00008	8d 79 04	 lea	 edi, DWORD PTR [ecx+4]
; File C:\Program Files (x86)\Microsoft Visual Studio\2019\Community\VC\Tools\MSVC\14.29.30133\atlmfc\include\cstringt.h

; 2479 : 		return(str1.Compare(str2) == 0);

  0000b	8b cf		 mov	 ecx, edi
  0000d	ff 36		 push	 DWORD PTR [esi]
  0000f	ff 15 00 00 00
	00		 call	 DWORD PTR __imp_?Compare@?$CStringT@DV?$StrTraitMFC_DLL@DV?$ChTraitsCRT@D@ATL@@@@@ATL@@QBEHPBD@Z
  00015	85 c0		 test	 eax, eax
; File D:\git\src\IBK\IBK_DRFN\ProjSrc\SrcChartEx\ChartOCX\IndicatorCondition\GraphData.cpp

; 703  : 	if(m_strPacketName == packetNames)

  00017	74 09		 je	 SHORT $LN1@SetPacketN

; 704  : 		return;
; 705  : 
; 706  : 	m_strPacketName = packetNames;

  00019	56		 push	 esi
  0001a	8b cf		 mov	 ecx, edi
  0001c	ff 15 00 00 00
	00		 call	 DWORD PTR __imp_??4?$CStringT@DV?$StrTraitMFC_DLL@DV?$ChTraitsCRT@D@ATL@@@@@ATL@@QAEAAV01@ABV01@@Z
$LN1@SetPacketN:

; 707  : }

  00022	5f		 pop	 edi
  00023	5e		 pop	 esi
  00024	5d		 pop	 ebp
  00025	c2 04 00	 ret	 4
?SetPacketNames@CGraphData@@QAEXABV?$CStringT@DV?$StrTraitMFC_DLL@DV?$ChTraitsCRT@D@ATL@@@@@ATL@@@Z ENDP ; CGraphData::SetPacketNames
_TEXT	ENDS
; Function compile flags: /Ogtp
; File D:\git\src\IBK\IBK_DRFN\ProjSrc\SrcChartEx\ChartOCX\IndicatorCondition\GraphData.cpp
;	COMDAT ?GetPacketNames@CGraphData@@QBE?AV?$CStringT@DV?$StrTraitMFC_DLL@DV?$ChTraitsCRT@D@ATL@@@@@ATL@@XZ
_TEXT	SEGMENT
___$ReturnUdt$ = 8					; size = 4
?GetPacketNames@CGraphData@@QBE?AV?$CStringT@DV?$StrTraitMFC_DLL@DV?$ChTraitsCRT@D@ATL@@@@@ATL@@XZ PROC ; CGraphData::GetPacketNames, COMDAT
; _this$ = ecx

; 726  : {

  00000	55		 push	 ebp
  00001	8b ec		 mov	 ebp, esp

; 727  : 	return m_strPacketName;

  00003	8d 41 04	 lea	 eax, DWORD PTR [ecx+4]
  00006	8b 4d 08	 mov	 ecx, DWORD PTR ___$ReturnUdt$[ebp]
  00009	50		 push	 eax
  0000a	ff 15 00 00 00
	00		 call	 DWORD PTR __imp_??0?$CStringT@DV?$StrTraitMFC_DLL@DV?$ChTraitsCRT@D@ATL@@@@@ATL@@QAE@ABV01@@Z
  00010	8b 45 08	 mov	 eax, DWORD PTR ___$ReturnUdt$[ebp]

; 728  : }

  00013	5d		 pop	 ebp
  00014	c2 04 00	 ret	 4
?GetPacketNames@CGraphData@@QBE?AV?$CStringT@DV?$StrTraitMFC_DLL@DV?$ChTraitsCRT@D@ATL@@@@@ATL@@XZ ENDP ; CGraphData::GetPacketNames
_TEXT	ENDS
; Function compile flags: /Ogtp
; File D:\git\src\IBK\IBK_DRFN\ProjSrc\SrcChartEx\ChartOCX\IndicatorCondition\GraphData.cpp
;	COMDAT ?ClearData@CGraphData@@QAEXXZ
_TEXT	SEGMENT
?ClearData@CGraphData@@QAEXXZ PROC			; CGraphData::ClearData, COMDAT
; _this$ = ecx

; 693  : {

  00000	56		 push	 esi
  00001	8b f1		 mov	 esi, ecx

; 694  : 	m_strIndicatorName.Empty();

  00003	8d 4e 1c	 lea	 ecx, DWORD PTR [esi+28]
  00006	ff 15 00 00 00
	00		 call	 DWORD PTR __imp_?Empty@?$CSimpleStringT@D$00@ATL@@QAEXXZ

; 695  : 	m_strGraphName.Empty();

  0000c	8d 4e 20	 lea	 ecx, DWORD PTR [esi+32]
  0000f	ff 15 00 00 00
	00		 call	 DWORD PTR __imp_?Empty@?$CSimpleStringT@D$00@ATL@@QAEXXZ

; 696  : 	m_strPacketName.Empty();

  00015	8d 4e 04	 lea	 ecx, DWORD PTR [esi+4]
  00018	ff 15 00 00 00
	00		 call	 DWORD PTR __imp_?Empty@?$CSimpleStringT@D$00@ATL@@QAEXXZ

; 585  : 	m_bIsUse	= false;

  0001e	66 c7 46 08 00
	00		 mov	 WORD PTR [esi+8], 0

; 369  : 	m_bCalcRiseFallRate_LowHigh	= false;

  00024	c7 46 10 00 00
	00 00		 mov	 DWORD PTR [esi+16], 0

; 370  : 	m_bCalcRiseFallRate_LowCur	= false;
; 371  : 	m_bCalcRiseFallRate_HighCur	= false;
; 372  : 	m_bCalcRate_PrevCur			= false;
; 373  : 	m_nCalcRiseFallRate_CurData	= 0;

  0002b	c7 46 14 00 00
	00 00		 mov	 DWORD PTR [esi+20], 0

; 374  : 	// (2009/9/12 - Seung-Won, Bae) for OHLC graph data
; 375  : 	m_bShowOHLC					= FALSE;

  00032	c7 46 18 00 00
	00 00		 mov	 DWORD PTR [esi+24], 0
  00039	5e		 pop	 esi

; 697  : 	m_signalData.ClearData();
; 698  : 	m_graphDataDrawingData.ClearData();
; 699  : }

  0003a	c3		 ret	 0
?ClearData@CGraphData@@QAEXXZ ENDP			; CGraphData::ClearData
_TEXT	ENDS
; Function compile flags: /Ogtp
; File D:\git\src\IBK\IBK_DRFN\ProjSrc\SrcChartEx\ChartOCX\IndicatorCondition\GraphData.cpp
;	COMDAT ??4CGraphData@@QAEAAV0@ABV0@@Z
_TEXT	SEGMENT
_data$ = 8						; size = 4
??4CGraphData@@QAEAAV0@ABV0@@Z PROC			; CGraphData::operator=, COMDAT
; _this$ = ecx

; 679  : {

  00000	55		 push	 ebp
  00001	8b ec		 mov	 ebp, esp
  00003	56		 push	 esi
  00004	57		 push	 edi

; 680  : 	if(this == &data) return *this;

  00005	8b 7d 08	 mov	 edi, DWORD PTR _data$[ebp]
  00008	8b f1		 mov	 esi, ecx
  0000a	3b f7		 cmp	 esi, edi
  0000c	74 6d		 je	 SHORT $LN11@operator

; 681  : 
; 682  : 	m_strIndicatorName		= data.m_strIndicatorName;

  0000e	8d 47 1c	 lea	 eax, DWORD PTR [edi+28]
  00011	50		 push	 eax
  00012	8d 4e 1c	 lea	 ecx, DWORD PTR [esi+28]
  00015	ff 15 00 00 00
	00		 call	 DWORD PTR __imp_??4?$CStringT@DV?$StrTraitMFC_DLL@DV?$ChTraitsCRT@D@ATL@@@@@ATL@@QAEAAV01@ABV01@@Z

; 683  : 	m_strGraphName			= data.m_strGraphName;

  0001b	8d 47 20	 lea	 eax, DWORD PTR [edi+32]
  0001e	50		 push	 eax
  0001f	8d 4e 20	 lea	 ecx, DWORD PTR [esi+32]
  00022	ff 15 00 00 00
	00		 call	 DWORD PTR __imp_??4?$CStringT@DV?$StrTraitMFC_DLL@DV?$ChTraitsCRT@D@ATL@@@@@ATL@@QAEAAV01@ABV01@@Z

; 684  : 	m_strPacketName			= data.m_strPacketName;

  00028	8d 47 04	 lea	 eax, DWORD PTR [edi+4]
  0002b	50		 push	 eax
  0002c	8d 4e 04	 lea	 ecx, DWORD PTR [esi+4]
  0002f	ff 15 00 00 00
	00		 call	 DWORD PTR __imp_??4?$CStringT@DV?$StrTraitMFC_DLL@DV?$ChTraitsCRT@D@ATL@@@@@ATL@@QAEAAV01@ABV01@@Z

; 685  : 	m_signalData			= data.m_signalData;

  00035	8d 4f 08	 lea	 ecx, DWORD PTR [edi+8]
  00038	8d 56 08	 lea	 edx, DWORD PTR [esi+8]

; 536  : 	if(this == &data)

  0003b	3b d1		 cmp	 edx, ecx
  0003d	74 0c		 je	 SHORT $LN4@operator

; 537  : 		return *this;
; 538  : 
; 539  : 	m_bIsUse = data.IsUse();

  0003f	0f b6 01	 movzx	 eax, BYTE PTR [ecx]
  00042	88 02		 mov	 BYTE PTR [edx], al

; 540  : 	m_bIsShow = data.IsShow();

  00044	0f b6 41 01	 movzx	 eax, BYTE PTR [ecx+1]
  00048	88 42 01	 mov	 BYTE PTR [edx+1], al
$LN4@operator:

; 686  : 	m_graphDataDrawingData	= data.m_graphDataDrawingData;

  0004b	8d 4f 10	 lea	 ecx, DWORD PTR [edi+16]
  0004e	8d 56 10	 lea	 edx, DWORD PTR [esi+16]

; 292  : 	if(this == &data)

  00051	3b d1		 cmp	 edx, ecx
  00053	74 26		 je	 SHORT $LN11@operator

; 293  : 		return *this;
; 294  : 
; 295  : 	m_bCalcRiseFallRate_LowHigh = data.DoesCalcRiseFallRate_LowHigh();

  00055	0f b6 01	 movzx	 eax, BYTE PTR [ecx]
  00058	88 02		 mov	 BYTE PTR [edx], al

; 296  : 	m_bCalcRiseFallRate_LowCur = data.DoesCalcRiseFallRate_LowCur();

  0005a	0f b6 41 01	 movzx	 eax, BYTE PTR [ecx+1]
  0005e	88 42 01	 mov	 BYTE PTR [edx+1], al

; 297  : 	m_bCalcRiseFallRate_HighCur = data.DoesCalcRiseFallRate_HighCur();

  00061	0f b6 41 02	 movzx	 eax, BYTE PTR [ecx+2]
  00065	88 42 02	 mov	 BYTE PTR [edx+2], al

; 298  : 	m_bCalcRate_PrevCur = data.DoesCalcRate_PrevCur();

  00068	0f b6 41 03	 movzx	 eax, BYTE PTR [ecx+3]
  0006c	88 42 03	 mov	 BYTE PTR [edx+3], al

; 299  : 	m_nCalcRiseFallRate_CurData = data.GetCalcRiseFallRate_CurData();

  0006f	8b 41 04	 mov	 eax, DWORD PTR [ecx+4]
  00072	89 42 04	 mov	 DWORD PTR [edx+4], eax

; 300  : 	// (2009/9/12 - Seung-Won, Bae) for OHLC graph data
; 301  : 	m_bShowOHLC = data.GetShowOHLC();

  00075	8b 41 08	 mov	 eax, DWORD PTR [ecx+8]
  00078	89 42 08	 mov	 DWORD PTR [edx+8], eax
$LN11@operator:
  0007b	5f		 pop	 edi

; 687  : 
; 688  : 	return *this;
; 689  : }

  0007c	8b c6		 mov	 eax, esi
  0007e	5e		 pop	 esi
  0007f	5d		 pop	 ebp
  00080	c2 04 00	 ret	 4
??4CGraphData@@QAEAAV0@ABV0@@Z ENDP			; CGraphData::operator=
_TEXT	ENDS
; Function compile flags: /Ogtp
; File D:\git\src\IBK\IBK_DRFN\ProjSrc\SrcChartEx\ChartOCX\IndicatorCondition\GraphData.cpp
; File C:\Program Files (x86)\Microsoft Visual Studio\2019\Community\VC\Tools\MSVC\14.29.30133\atlmfc\include\atlsimpstr.h
; File D:\git\src\IBK\IBK_DRFN\ProjSrc\SrcChartEx\ChartOCX\IndicatorCondition\GraphData.cpp
; File C:\Program Files (x86)\Microsoft Visual Studio\2019\Community\VC\Tools\MSVC\14.29.30133\atlmfc\include\atlsimpstr.h
; File D:\git\src\IBK\IBK_DRFN\ProjSrc\SrcChartEx\ChartOCX\IndicatorCondition\GraphData.cpp
; File C:\Program Files (x86)\Microsoft Visual Studio\2019\Community\VC\Tools\MSVC\14.29.30133\atlmfc\include\atlsimpstr.h
; File D:\git\src\IBK\IBK_DRFN\ProjSrc\SrcChartEx\ChartOCX\IndicatorCondition\GraphData.cpp
; File C:\Program Files (x86)\Microsoft Visual Studio\2019\Community\VC\Tools\MSVC\14.29.30133\atlmfc\include\atlsimpstr.h
; File D:\git\src\IBK\IBK_DRFN\ProjSrc\SrcChartEx\ChartOCX\IndicatorCondition\GraphData.cpp
; File C:\Program Files (x86)\Microsoft Visual Studio\2019\Community\VC\Tools\MSVC\14.29.30133\atlmfc\include\atlsimpstr.h
; File D:\git\src\IBK\IBK_DRFN\ProjSrc\SrcChartEx\ChartOCX\IndicatorCondition\GraphData.cpp
;	COMDAT ?GetData@CGraphData@@QBEXAAV?$CStringT@DV?$StrTraitMFC_DLL@DV?$ChTraitsCRT@D@ATL@@@@@ATL@@PBD@Z
_TEXT	SEGMENT
_strSingalData$ = -20					; size = 4
_strGraphDataDrawingData$ = -16				; size = 4
__$EHRec$ = -12						; size = 12
_p_strGraphData$ = 8					; size = 4
_lpszRQ$ = 12						; size = 4
?GetData@CGraphData@@QBEXAAV?$CStringT@DV?$StrTraitMFC_DLL@DV?$ChTraitsCRT@D@ATL@@@@@ATL@@PBD@Z PROC ; CGraphData::GetData, COMDAT
; _this$ = ecx

; 827  : {

  00000	55		 push	 ebp
  00001	8b ec		 mov	 ebp, esp
  00003	6a ff		 push	 -1
  00005	68 00 00 00 00	 push	 __ehhandler$?GetData@CGraphData@@QBEXAAV?$CStringT@DV?$StrTraitMFC_DLL@DV?$ChTraitsCRT@D@ATL@@@@@ATL@@PBD@Z
  0000a	64 a1 00 00 00
	00		 mov	 eax, DWORD PTR fs:0
  00010	50		 push	 eax
  00011	83 ec 08	 sub	 esp, 8
  00014	53		 push	 ebx
  00015	56		 push	 esi
  00016	57		 push	 edi
  00017	a1 00 00 00 00	 mov	 eax, DWORD PTR ___security_cookie
  0001c	33 c5		 xor	 eax, ebp
  0001e	50		 push	 eax
  0001f	8d 45 f4	 lea	 eax, DWORD PTR __$EHRec$[ebp]
  00022	64 a3 00 00 00
	00		 mov	 DWORD PTR fs:0, eax
  00028	8b f9		 mov	 edi, ecx

; 828  : 	CString strSingalData;

  0002a	8d 4d ec	 lea	 ecx, DWORD PTR _strSingalData$[ebp]
  0002d	ff 15 00 00 00
	00		 call	 DWORD PTR __imp_??0?$CStringT@DV?$StrTraitMFC_DLL@DV?$ChTraitsCRT@D@ATL@@@@@ATL@@QAE@XZ

; 622  : 	char *szSignalData = p_strSignalData.GetBufferSetLength( 4);	// Do not set 5, It has default NULL Terminator.

  00033	6a 04		 push	 4
  00035	8d 4d ec	 lea	 ecx, DWORD PTR _strSingalData$[ebp]

; 828  : 	CString strSingalData;

  00038	c7 45 fc 00 00
	00 00		 mov	 DWORD PTR __$EHRec$[ebp+8], 0

; 622  : 	char *szSignalData = p_strSignalData.GetBufferSetLength( 4);	// Do not set 5, It has default NULL Terminator.

  0003f	ff 15 00 00 00
	00		 call	 DWORD PTR __imp_?GetBufferSetLength@?$CSimpleStringT@D$00@ATL@@QAEPADH@Z

; 623  : 	szSignalData[ 0] = ( m_bIsUse	? '1' : '0');

  00045	80 7f 08 00	 cmp	 BYTE PTR [edi+8], 0
  00049	0f 95 c1	 setne	 cl
  0004c	80 c1 30	 add	 cl, 48			; 00000030H

; 624  : 	szSignalData[ 1] = ':';

  0004f	c6 40 01 3a	 mov	 BYTE PTR [eax+1], 58	; 0000003aH
  00053	88 08		 mov	 BYTE PTR [eax], cl

; 625  : 	szSignalData[ 2] = ( m_bIsShow	? '1' : '0');

  00055	80 7f 09 00	 cmp	 BYTE PTR [edi+9], 0

; 626  : 	szSignalData[ 3] = ';';

  00059	66 c7 40 03 3b
	00		 mov	 WORD PTR [eax+3], 59	; 0000003bH
  0005f	0f 95 c1	 setne	 cl
  00062	80 c1 30	 add	 cl, 48			; 00000030H
  00065	88 48 02	 mov	 BYTE PTR [eax+2], cl

; 829  : 	m_signalData.GetData( strSingalData);
; 830  : 
; 831  : 	CString strGraphDataDrawingData;

  00068	8d 4d f0	 lea	 ecx, DWORD PTR _strGraphDataDrawingData$[ebp]
  0006b	ff 15 00 00 00
	00		 call	 DWORD PTR __imp_??0?$CStringT@DV?$StrTraitMFC_DLL@DV?$ChTraitsCRT@D@ATL@@@@@ATL@@QAE@XZ

; 832  : 	m_graphDataDrawingData.GetData( strGraphDataDrawingData);

  00071	8d 45 f0	 lea	 eax, DWORD PTR _strGraphDataDrawingData$[ebp]
  00074	c6 45 fc 01	 mov	 BYTE PTR __$EHRec$[ebp+8], 1
  00078	50		 push	 eax
  00079	8d 4f 10	 lea	 ecx, DWORD PTR [edi+16]
  0007c	e8 00 00 00 00	 call	 ?GetData@CGraphDataDrawingData@@QBEXAAV?$CStringT@DV?$StrTraitMFC_DLL@DV?$ChTraitsCRT@D@ATL@@@@@ATL@@@Z ; CGraphDataDrawingData::GetData

; 833  : 	
; 834  : 	int nGraphDataLen = 0;									//
; 835  : 	nGraphDataLen++;										// ;
; 836  : 	nGraphDataLen += m_strIndicatorName.GetLength();		// Indicator Name
; 837  : 	nGraphDataLen += 3;										// ;G:
; 838  : 	nGraphDataLen += m_strGraphName.GetLength();			// Graph Name
; 839  : 	nGraphDataLen++;										// ;
; 840  : 	nGraphDataLen += m_strPacketName.GetLength();			// Packet Name
; 841  : 	nGraphDataLen++;										// ;
; 842  : 	nGraphDataLen += strSingalData.GetLength();				// Singal Data
; 843  : 	nGraphDataLen += strGraphDataDrawingData.GetLength();	// Graph Data Drawing Data

  00081	8b 47 04	 mov	 eax, DWORD PTR [edi+4]
  00084	8b 4f 20	 mov	 ecx, DWORD PTR [edi+32]

; 844  : 	//   :  - ojtaso (20070507)
; 845  : 	if(lpszRQ)

  00087	8b 5d 0c	 mov	 ebx, DWORD PTR _lpszRQ$[ebp]
  0008a	8b 50 f4	 mov	 edx, DWORD PTR [eax-12]
  0008d	8b 47 1c	 mov	 eax, DWORD PTR [edi+28]
  00090	03 51 f4	 add	 edx, DWORD PTR [ecx-12]
  00093	03 50 f4	 add	 edx, DWORD PTR [eax-12]
  00096	8b 45 f0	 mov	 eax, DWORD PTR _strGraphDataDrawingData$[ebp]
  00099	03 50 f4	 add	 edx, DWORD PTR [eax-12]
  0009c	8b 45 ec	 mov	 eax, DWORD PTR _strSingalData$[ebp]
  0009f	8b 70 f4	 mov	 esi, DWORD PTR [eax-12]
  000a2	83 c6 06	 add	 esi, 6
  000a5	03 f2		 add	 esi, edx
  000a7	85 db		 test	 ebx, ebx
  000a9	74 0c		 je	 SHORT $LN2@GetData

; 846  : 	{
; 847  : 		nGraphDataLen += 3;										// RQ:
; 848  : 		nGraphDataLen += ::lstrlen(lpszRQ);

  000ab	53		 push	 ebx
  000ac	ff 15 00 00 00
	00		 call	 DWORD PTR __imp__lstrlenA@4
  000b2	83 c6 03	 add	 esi, 3
  000b5	03 f0		 add	 esi, eax
$LN2@GetData:

; 849  : 	}
; 850  : 	nGraphDataLen += 2;										// \r\n (Do not add NULL Terminator size. It has that with default)
; 851  : 	char *szGraphData = p_strGraphData.GetBufferSetLength( nGraphDataLen);

  000b7	8b 4d 08	 mov	 ecx, DWORD PTR _p_strGraphData$[ebp]
  000ba	8d 46 02	 lea	 eax, DWORD PTR [esi+2]
  000bd	50		 push	 eax
  000be	ff 15 00 00 00
	00		 call	 DWORD PTR __imp_?GetBufferSetLength@?$CSimpleStringT@D$00@ATL@@QAEPADH@Z
  000c4	8b f0		 mov	 esi, eax

; 852  : 
; 853  : 	*szGraphData++ = ';';

  000c6	c6 06 3b	 mov	 BYTE PTR [esi], 59	; 0000003bH
  000c9	46		 inc	 esi
; File C:\Program Files (x86)\Microsoft Visual Studio\2019\Community\VC\Tools\MSVC\14.29.30133\atlmfc\include\atlsimpstr.h

; 377  : 		return( m_pszData );

  000ca	8b 4f 1c	 mov	 ecx, DWORD PTR [edi+28]
; File D:\git\src\IBK\IBK_DRFN\ProjSrc\SrcChartEx\ChartOCX\IndicatorCondition\GraphData.cpp

; 855  : 	strcpy( szGraphData, m_strIndicatorName);

  000cd	8b d6		 mov	 edx, esi
  000cf	90		 npad	 1
$LL5@GetData:
  000d0	8a 01		 mov	 al, BYTE PTR [ecx]
  000d2	8d 49 01	 lea	 ecx, DWORD PTR [ecx+1]
  000d5	88 02		 mov	 BYTE PTR [edx], al
  000d7	8d 52 01	 lea	 edx, DWORD PTR [edx+1]
  000da	84 c0		 test	 al, al
  000dc	75 f2		 jne	 SHORT $LL5@GetData

; 856  : 	szGraphData += m_strIndicatorName.GetLength();

  000de	8b 47 1c	 mov	 eax, DWORD PTR [edi+28]
  000e1	03 70 f4	 add	 esi, DWORD PTR [eax-12]

; 857  : 
; 858  : 	*szGraphData++ = ';';

  000e4	66 c7 06 3b 47	 mov	 WORD PTR [esi], 18235	; 0000473bH

; 859  : 	*szGraphData++ = 'G';
; 860  : 	*szGraphData++ = ':';

  000e9	c6 46 02 3a	 mov	 BYTE PTR [esi+2], 58	; 0000003aH
  000ed	83 c6 03	 add	 esi, 3
; File C:\Program Files (x86)\Microsoft Visual Studio\2019\Community\VC\Tools\MSVC\14.29.30133\atlmfc\include\atlsimpstr.h

; 377  : 		return( m_pszData );

  000f0	8b 4f 20	 mov	 ecx, DWORD PTR [edi+32]
; File D:\git\src\IBK\IBK_DRFN\ProjSrc\SrcChartEx\ChartOCX\IndicatorCondition\GraphData.cpp

; 862  : 	strcpy( szGraphData, m_strGraphName);

  000f3	8b d6		 mov	 edx, esi
$LL6@GetData:
  000f5	8a 01		 mov	 al, BYTE PTR [ecx]
  000f7	8d 49 01	 lea	 ecx, DWORD PTR [ecx+1]
  000fa	88 02		 mov	 BYTE PTR [edx], al
  000fc	8d 52 01	 lea	 edx, DWORD PTR [edx+1]
  000ff	84 c0		 test	 al, al
  00101	75 f2		 jne	 SHORT $LL6@GetData

; 863  : 	szGraphData += m_strGraphName.GetLength();

  00103	8b 47 20	 mov	 eax, DWORD PTR [edi+32]
  00106	03 70 f4	 add	 esi, DWORD PTR [eax-12]

; 864  : 
; 865  : 	*szGraphData++ = ';';

  00109	c6 06 3b	 mov	 BYTE PTR [esi], 59	; 0000003bH
  0010c	46		 inc	 esi
; File C:\Program Files (x86)\Microsoft Visual Studio\2019\Community\VC\Tools\MSVC\14.29.30133\atlmfc\include\atlsimpstr.h

; 377  : 		return( m_pszData );

  0010d	8b 4f 04	 mov	 ecx, DWORD PTR [edi+4]
; File D:\git\src\IBK\IBK_DRFN\ProjSrc\SrcChartEx\ChartOCX\IndicatorCondition\GraphData.cpp

; 867  : 	strcpy( szGraphData, m_strPacketName);

  00110	8b d6		 mov	 edx, esi
$LL7@GetData:
  00112	8a 01		 mov	 al, BYTE PTR [ecx]
  00114	8d 49 01	 lea	 ecx, DWORD PTR [ecx+1]
  00117	88 02		 mov	 BYTE PTR [edx], al
  00119	8d 52 01	 lea	 edx, DWORD PTR [edx+1]
  0011c	84 c0		 test	 al, al
  0011e	75 f2		 jne	 SHORT $LL7@GetData

; 868  : 	szGraphData += m_strPacketName.GetLength();

  00120	8b 47 04	 mov	 eax, DWORD PTR [edi+4]
  00123	03 70 f4	 add	 esi, DWORD PTR [eax-12]

; 869  : 
; 870  : 	*szGraphData++ = ';';

  00126	c6 06 3b	 mov	 BYTE PTR [esi], 59	; 0000003bH
  00129	46		 inc	 esi
; File C:\Program Files (x86)\Microsoft Visual Studio\2019\Community\VC\Tools\MSVC\14.29.30133\atlmfc\include\atlsimpstr.h

; 377  : 		return( m_pszData );

  0012a	8b 4d ec	 mov	 ecx, DWORD PTR _strSingalData$[ebp]
; File D:\git\src\IBK\IBK_DRFN\ProjSrc\SrcChartEx\ChartOCX\IndicatorCondition\GraphData.cpp

; 872  : 	strcpy( szGraphData, strSingalData);

  0012d	8b d6		 mov	 edx, esi
  0012f	90		 npad	 1
$LL8@GetData:
  00130	8a 01		 mov	 al, BYTE PTR [ecx]
  00132	8d 49 01	 lea	 ecx, DWORD PTR [ecx+1]
  00135	88 02		 mov	 BYTE PTR [edx], al
  00137	8d 52 01	 lea	 edx, DWORD PTR [edx+1]
  0013a	84 c0		 test	 al, al
  0013c	75 f2		 jne	 SHORT $LL8@GetData

; 873  : 	szGraphData += strSingalData.GetLength();

  0013e	8b 45 ec	 mov	 eax, DWORD PTR _strSingalData$[ebp]
; File C:\Program Files (x86)\Microsoft Visual Studio\2019\Community\VC\Tools\MSVC\14.29.30133\atlmfc\include\atlsimpstr.h

; 377  : 		return( m_pszData );

  00141	8b 4d f0	 mov	 ecx, DWORD PTR _strGraphDataDrawingData$[ebp]
; File D:\git\src\IBK\IBK_DRFN\ProjSrc\SrcChartEx\ChartOCX\IndicatorCondition\GraphData.cpp

; 873  : 	szGraphData += strSingalData.GetLength();

  00144	03 70 f4	 add	 esi, DWORD PTR [eax-12]

; 874  : 
; 875  : 	strcpy( szGraphData, strGraphDataDrawingData);

  00147	8b d6		 mov	 edx, esi
  00149	0f 1f 80 00 00
	00 00		 npad	 7
$LL9@GetData:
  00150	8a 01		 mov	 al, BYTE PTR [ecx]
  00152	8d 49 01	 lea	 ecx, DWORD PTR [ecx+1]
  00155	88 02		 mov	 BYTE PTR [edx], al
  00157	8d 52 01	 lea	 edx, DWORD PTR [edx+1]
  0015a	84 c0		 test	 al, al
  0015c	75 f2		 jne	 SHORT $LL9@GetData

; 876  : 	szGraphData += strGraphDataDrawingData.GetLength();

  0015e	8b 45 f0	 mov	 eax, DWORD PTR _strGraphDataDrawingData$[ebp]
  00161	03 70 f4	 add	 esi, DWORD PTR [eax-12]

; 877  : 
; 878  : 	//   :  - ojtaso (20070507)
; 879  : 	if(lpszRQ)

  00164	85 db		 test	 ebx, ebx
  00166	74 25		 je	 SHORT $LN3@GetData

; 880  : 	{
; 881  : 		strcpy( szGraphData, _T("RQ:"));

  00168	c7 06 52 51 3a
	00		 mov	 DWORD PTR [esi], 3821906 ; 003a5152H

; 882  : 		szGraphData += 3;
; 883  : 		strcpy( szGraphData, lpszRQ);

  0016e	8b cb		 mov	 ecx, ebx
  00170	83 c6 03	 add	 esi, 3
  00173	8b d6		 mov	 edx, esi
  00175	2b d3		 sub	 edx, ebx
$LL10@GetData:
  00177	8a 01		 mov	 al, BYTE PTR [ecx]
  00179	8d 49 01	 lea	 ecx, DWORD PTR [ecx+1]
  0017c	88 44 0a ff	 mov	 BYTE PTR [edx+ecx-1], al
  00180	84 c0		 test	 al, al
  00182	75 f3		 jne	 SHORT $LL10@GetData

; 884  : 		szGraphData += ::lstrlen(lpszRQ);

  00184	53		 push	 ebx
  00185	ff 15 00 00 00
	00		 call	 DWORD PTR __imp__lstrlenA@4
  0018b	03 f0		 add	 esi, eax
$LN3@GetData:

; 885  : 	}
; 886  : 
; 887  : 	*szGraphData++ = '\r';

  0018d	66 c7 06 0d 0a	 mov	 WORD PTR [esi], 2573	; 00000a0dH

; 888  : 	*szGraphData++ = '\n';
; 889  : 	*szGraphData++ = '\0';
; 890  : }

  00192	8d 4d f0	 lea	 ecx, DWORD PTR _strGraphDataDrawingData$[ebp]
  00195	c6 46 02 00	 mov	 BYTE PTR [esi+2], 0
  00199	ff 15 00 00 00
	00		 call	 DWORD PTR __imp_??1?$CStringT@DV?$StrTraitMFC_DLL@DV?$ChTraitsCRT@D@ATL@@@@@ATL@@QAE@XZ
  0019f	8d 4d ec	 lea	 ecx, DWORD PTR _strSingalData$[ebp]
  001a2	ff 15 00 00 00
	00		 call	 DWORD PTR __imp_??1?$CStringT@DV?$StrTraitMFC_DLL@DV?$ChTraitsCRT@D@ATL@@@@@ATL@@QAE@XZ
  001a8	8b 4d f4	 mov	 ecx, DWORD PTR __$EHRec$[ebp]
  001ab	64 89 0d 00 00
	00 00		 mov	 DWORD PTR fs:0, ecx
  001b2	59		 pop	 ecx
  001b3	5f		 pop	 edi
  001b4	5e		 pop	 esi
  001b5	5b		 pop	 ebx
  001b6	8b e5		 mov	 esp, ebp
  001b8	5d		 pop	 ebp
  001b9	c2 08 00	 ret	 8
_TEXT	ENDS
;	COMDAT text$x
text$x	SEGMENT
__unwindfunclet$?GetData@CGraphData@@QBEXAAV?$CStringT@DV?$StrTraitMFC_DLL@DV?$ChTraitsCRT@D@ATL@@@@@ATL@@PBD@Z$0:
  00000	8d 4d ec	 lea	 ecx, DWORD PTR _strSingalData$[ebp]
  00003	ff 25 00 00 00
	00		 jmp	 DWORD PTR __imp_??1?$CStringT@DV?$StrTraitMFC_DLL@DV?$ChTraitsCRT@D@ATL@@@@@ATL@@QAE@XZ
__unwindfunclet$?GetData@CGraphData@@QBEXAAV?$CStringT@DV?$StrTraitMFC_DLL@DV?$ChTraitsCRT@D@ATL@@@@@ATL@@PBD@Z$1:
  00009	8d 4d f0	 lea	 ecx, DWORD PTR _strGraphDataDrawingData$[ebp]
  0000c	ff 25 00 00 00
	00		 jmp	 DWORD PTR __imp_??1?$CStringT@DV?$StrTraitMFC_DLL@DV?$ChTraitsCRT@D@ATL@@@@@ATL@@QAE@XZ
  00012	cc		 int	 3
  00013	cc		 int	 3
  00014	cc		 int	 3
  00015	cc		 int	 3
  00016	cc		 int	 3
__ehhandler$?GetData@CGraphData@@QBEXAAV?$CStringT@DV?$StrTraitMFC_DLL@DV?$ChTraitsCRT@D@ATL@@@@@ATL@@PBD@Z:
  00017	90		 npad	 1
  00018	90		 npad	 1
  00019	8b 54 24 08	 mov	 edx, DWORD PTR [esp+8]
  0001d	8d 42 0c	 lea	 eax, DWORD PTR [edx+12]
  00020	8b 4a e8	 mov	 ecx, DWORD PTR [edx-24]
  00023	33 c8		 xor	 ecx, eax
  00025	e8 00 00 00 00	 call	 @__security_check_cookie@4
  0002a	b8 00 00 00 00	 mov	 eax, OFFSET __ehfuncinfo$?GetData@CGraphData@@QBEXAAV?$CStringT@DV?$StrTraitMFC_DLL@DV?$ChTraitsCRT@D@ATL@@@@@ATL@@PBD@Z
  0002f	e9 00 00 00 00	 jmp	 ___CxxFrameHandler3
text$x	ENDS
?GetData@CGraphData@@QBEXAAV?$CStringT@DV?$StrTraitMFC_DLL@DV?$ChTraitsCRT@D@ATL@@@@@ATL@@PBD@Z ENDP ; CGraphData::GetData
; Function compile flags: /Ogtp
; File D:\git\src\IBK\IBK_DRFN\ProjSrc\SrcChartEx\ChartOCX\IndicatorCondition\GraphData.cpp
; File C:\Program Files (x86)\Windows Kits\10\Include\10.0.22000.0\ucrt\string.h
; File D:\git\src\IBK\IBK_DRFN\ProjSrc\SrcChartEx\ChartOCX\IndicatorCondition\GraphData.cpp
; File C:\Program Files (x86)\Windows Kits\10\Include\10.0.22000.0\ucrt\string.h
; File D:\git\src\IBK\IBK_DRFN\ProjSrc\SrcChartEx\ChartOCX\IndicatorCondition\GraphData.cpp
; File C:\Program Files (x86)\Windows Kits\10\Include\10.0.22000.0\ucrt\string.h
; File D:\git\src\IBK\IBK_DRFN\ProjSrc\SrcChartEx\ChartOCX\IndicatorCondition\GraphData.cpp
; File C:\Program Files (x86)\Windows Kits\10\Include\10.0.22000.0\ucrt\string.h
; File D:\git\src\IBK\IBK_DRFN\ProjSrc\SrcChartEx\ChartOCX\IndicatorCondition\GraphData.cpp
; File C:\Program Files (x86)\Windows Kits\10\Include\10.0.22000.0\ucrt\string.h
; File D:\git\src\IBK\IBK_DRFN\ProjSrc\SrcChartEx\ChartOCX\IndicatorCondition\GraphData.cpp
; File C:\Program Files (x86)\Windows Kits\10\Include\10.0.22000.0\ucrt\string.h
; File D:\git\src\IBK\IBK_DRFN\ProjSrc\SrcChartEx\ChartOCX\IndicatorCondition\GraphData.cpp
; File C:\Program Files (x86)\Windows Kits\10\Include\10.0.22000.0\ucrt\string.h
; File D:\git\src\IBK\IBK_DRFN\ProjSrc\SrcChartEx\ChartOCX\IndicatorCondition\GraphData.cpp
; File C:\Program Files (x86)\Windows Kits\10\Include\10.0.22000.0\ucrt\string.h
; File D:\git\src\IBK\IBK_DRFN\ProjSrc\SrcChartEx\ChartOCX\IndicatorCondition\GraphData.cpp
; File C:\Program Files (x86)\Windows Kits\10\Include\10.0.22000.0\ucrt\string.h
; File D:\git\src\IBK\IBK_DRFN\ProjSrc\SrcChartEx\ChartOCX\IndicatorCondition\GraphData.cpp
; File C:\Program Files (x86)\Windows Kits\10\Include\10.0.22000.0\ucrt\string.h
; File D:\git\src\IBK\IBK_DRFN\ProjSrc\SrcChartEx\ChartOCX\IndicatorCondition\GraphData.cpp
; File C:\Program Files (x86)\Windows Kits\10\Include\10.0.22000.0\ucrt\string.h
; File D:\git\src\IBK\IBK_DRFN\ProjSrc\SrcChartEx\ChartOCX\IndicatorCondition\GraphData.cpp
; File C:\Program Files (x86)\Windows Kits\10\Include\10.0.22000.0\ucrt\string.h
; File D:\git\src\IBK\IBK_DRFN\ProjSrc\SrcChartEx\ChartOCX\IndicatorCondition\GraphData.cpp
; File C:\Program Files (x86)\Windows Kits\10\Include\10.0.22000.0\ucrt\string.h
; File D:\git\src\IBK\IBK_DRFN\ProjSrc\SrcChartEx\ChartOCX\IndicatorCondition\GraphData.cpp
; File C:\Program Files (x86)\Windows Kits\10\Include\10.0.22000.0\ucrt\string.h
; File D:\git\src\IBK\IBK_DRFN\ProjSrc\SrcChartEx\ChartOCX\IndicatorCondition\GraphData.cpp
;	COMDAT ??0CGraphData@@QAE@PBDPAUHWND__@@@Z
_TEXT	SEGMENT
$T2 = -36						; size = 12
$T3 = -32						; size = 8
$T4 = -28						; size = 4
$T5 = -24						; size = 4
_this$ = -20						; size = 4
_strGraphData$ = -16					; size = 4
__$EHRec$ = -12						; size = 12
$T6 = 8							; size = 4
$T7 = 8							; size = 4
_p_szGraphData$ = 8					; size = 4
_szItem$5$ = 12						; size = 4
_p_hOcxWnd$ = 12					; size = 4
??0CGraphData@@QAE@PBDPAUHWND__@@@Z PROC		; CGraphData::CGraphData, COMDAT
; _this$ = ecx

; 762  : {

  00000	55		 push	 ebp
  00001	8b ec		 mov	 ebp, esp
  00003	6a ff		 push	 -1
  00005	68 00 00 00 00	 push	 __ehhandler$??0CGraphData@@QAE@PBDPAUHWND__@@@Z
  0000a	64 a1 00 00 00
	00		 mov	 eax, DWORD PTR fs:0
  00010	50		 push	 eax
  00011	83 ec 18	 sub	 esp, 24			; 00000018H
  00014	53		 push	 ebx
  00015	56		 push	 esi
  00016	57		 push	 edi
  00017	a1 00 00 00 00	 mov	 eax, DWORD PTR ___security_cookie
  0001c	33 c5		 xor	 eax, ebp
  0001e	50		 push	 eax
  0001f	8d 45 f4	 lea	 eax, DWORD PTR __$EHRec$[ebp]
  00022	64 a3 00 00 00
	00		 mov	 DWORD PTR fs:0, eax
  00028	8b d9		 mov	 ebx, ecx
  0002a	89 5d ec	 mov	 DWORD PTR _this$[ebp], ebx
  0002d	8d 4b 04	 lea	 ecx, DWORD PTR [ebx+4]
  00030	c7 03 00 00 00
	00		 mov	 DWORD PTR [ebx], OFFSET ??_7CGraphData@@6B@
  00036	ff 15 00 00 00
	00		 call	 DWORD PTR __imp_??0?$CStringT@DV?$StrTraitMFC_DLL@DV?$ChTraitsCRT@D@ATL@@@@@ATL@@QAE@XZ
  0003c	c7 45 fc 00 00
	00 00		 mov	 DWORD PTR __$EHRec$[ebp+8], 0

; 553  : 	m_bIsUse(bIsUse),

  00043	66 c7 43 08 00
	00		 mov	 WORD PTR [ebx+8], 0

; 554  : 	m_bIsShow(bIsShow)
; 555  : {
; 556  : 	// (2009/10/7 - Seung-Won, Bae) for Signal Arrow Drawing Cache.
; 557  : 	m_pSignalCache = NULL;

  00049	c7 43 0c 00 00
	00 00		 mov	 DWORD PTR [ebx+12], 0

; 762  : {

  00050	8d 4b 1c	 lea	 ecx, DWORD PTR [ebx+28]

; 321  : 	m_bCalcRiseFallRate_LowHigh(false),

  00053	c7 43 10 00 00
	00 00		 mov	 DWORD PTR [ebx+16], 0

; 322  : 	m_bCalcRiseFallRate_LowCur(false),
; 323  : 	m_bCalcRiseFallRate_HighCur(false),
; 324  : 	m_bCalcRate_PrevCur(false),
; 325  : 	m_nCalcRiseFallRate_CurData(0),

  0005a	c7 43 14 00 00
	00 00		 mov	 DWORD PTR [ebx+20], 0

; 326  : 	// (2009/9/12 - Seung-Won, Bae) for OHLC graph data
; 327  : 	m_bShowOHLC( FALSE)

  00061	c7 43 18 00 00
	00 00		 mov	 DWORD PTR [ebx+24], 0

; 762  : {

  00068	ff 15 00 00 00
	00		 call	 DWORD PTR __imp_??0?$CStringT@DV?$StrTraitMFC_DLL@DV?$ChTraitsCRT@D@ATL@@@@@ATL@@QAE@XZ
  0006e	8d 4b 20	 lea	 ecx, DWORD PTR [ebx+32]
  00071	ff 15 00 00 00
	00		 call	 DWORD PTR __imp_??0?$CStringT@DV?$StrTraitMFC_DLL@DV?$ChTraitsCRT@D@ATL@@@@@ATL@@QAE@XZ

; 763  : 	if( !p_szGraphData) return;

  00077	8b 75 08	 mov	 esi, DWORD PTR _p_szGraphData$[ebp]
  0007a	c6 45 fc 03	 mov	 BYTE PTR __$EHRec$[ebp+8], 3
  0007e	85 f6		 test	 esi, esi
  00080	0f 84 37 02 00
	00		 je	 $LN78@CGraphData

; 764  : 	if( !*p_szGraphData) return;

  00086	80 3e 00	 cmp	 BYTE PTR [esi], 0
  00089	0f 84 2e 02 00
	00		 je	 $LN78@CGraphData

; 765  : 
; 766  : 	// "index;;,,,;signal(:);
; 767  : 	//  ;;;;;
; 768  : 	//  ;;;(0:,1:/,2:(),());\r\n"
; 769  : 	CString strGraphData;

  0008f	8d 4d f0	 lea	 ecx, DWORD PTR _strGraphData$[ebp]
  00092	ff 15 00 00 00
	00		 call	 DWORD PTR __imp_??0?$CStringT@DV?$StrTraitMFC_DLL@DV?$ChTraitsCRT@D@ATL@@@@@ATL@@QAE@XZ

; 770  : 	int nGraphDataLen = strlen( p_szGraphData);

  00098	8b ce		 mov	 ecx, esi
  0009a	c6 45 fc 04	 mov	 BYTE PTR __$EHRec$[ebp+8], 4
  0009e	8d 51 01	 lea	 edx, DWORD PTR [ecx+1]
$LL77@CGraphData:
  000a1	8a 01		 mov	 al, BYTE PTR [ecx]
  000a3	41		 inc	 ecx
  000a4	84 c0		 test	 al, al
  000a6	75 f9		 jne	 SHORT $LL77@CGraphData
  000a8	2b ca		 sub	 ecx, edx

; 771  : 	char *szGraphData = strGraphData.GetBufferSetLength( nGraphDataLen);

  000aa	51		 push	 ecx
  000ab	8d 4d f0	 lea	 ecx, DWORD PTR _strGraphData$[ebp]
  000ae	ff 15 00 00 00
	00		 call	 DWORD PTR __imp_?GetBufferSetLength@?$CSimpleStringT@D$00@ATL@@QAEPADH@Z
  000b4	8b d0		 mov	 edx, eax
  000b6	2b d6		 sub	 edx, esi
  000b8	0f 1f 84 00 00
	00 00 00	 npad	 8
$LL28@CGraphData:

; 772  : 	strcpy( szGraphData, p_szGraphData);

  000c0	8a 0e		 mov	 cl, BYTE PTR [esi]
  000c2	8d 76 01	 lea	 esi, DWORD PTR [esi+1]
  000c5	88 4c 32 ff	 mov	 BYTE PTR [edx+esi-1], cl
  000c9	84 c9		 test	 cl, cl
  000cb	75 f3		 jne	 SHORT $LL28@CGraphData
; File C:\Program Files (x86)\Windows Kits\10\Include\10.0.22000.0\ucrt\string.h

; 502  :         return const_cast<char*>(strchr(static_cast<char const*>(_String), _Ch));

  000cd	6a 3b		 push	 59			; 0000003bH
  000cf	50		 push	 eax
  000d0	e8 00 00 00 00	 call	 _strchr
; File D:\git\src\IBK\IBK_DRFN\ProjSrc\SrcChartEx\ChartOCX\IndicatorCondition\GraphData.cpp

; 774  : 	szGraphData = strchr( szGraphData, ';');	// m_nFunctionIndex = atoi(CDataConversion::GetStringData(strRealData, ";")); // function index

  000d5	8b f8		 mov	 edi, eax
; File C:\Program Files (x86)\Windows Kits\10\Include\10.0.22000.0\ucrt\string.h

; 502  :         return const_cast<char*>(strchr(static_cast<char const*>(_String), _Ch));

  000d7	83 c4 08	 add	 esp, 8
; File D:\git\src\IBK\IBK_DRFN\ProjSrc\SrcChartEx\ChartOCX\IndicatorCondition\GraphData.cpp

; 775  : 	if( !szGraphData) return;

  000da	85 ff		 test	 edi, edi
  000dc	0f 84 d2 01 00
	00		 je	 $LN76@CGraphData

; 776  : 	szGraphData++;

  000e2	47		 inc	 edi
; File C:\Program Files (x86)\Windows Kits\10\Include\10.0.22000.0\ucrt\string.h

; 502  :         return const_cast<char*>(strchr(static_cast<char const*>(_String), _Ch));

  000e3	6a 3b		 push	 59			; 0000003bH
  000e5	57		 push	 edi
  000e6	e8 00 00 00 00	 call	 _strchr
; File D:\git\src\IBK\IBK_DRFN\ProjSrc\SrcChartEx\ChartOCX\IndicatorCondition\GraphData.cpp

; 779  : 	szGraphData = strchr( szGraphData, ';');	// m_nFunctionIndex = atoi(CDataConversion::GetStringData(strRealData, ";")); // function index

  000eb	8b f0		 mov	 esi, eax
; File C:\Program Files (x86)\Windows Kits\10\Include\10.0.22000.0\ucrt\string.h

; 502  :         return const_cast<char*>(strchr(static_cast<char const*>(_String), _Ch));

  000ed	83 c4 08	 add	 esp, 8
; File D:\git\src\IBK\IBK_DRFN\ProjSrc\SrcChartEx\ChartOCX\IndicatorCondition\GraphData.cpp

; 780  : 	if( szGraphData) *szGraphData++ = '\0';

  000f0	85 f6		 test	 esi, esi
  000f2	74 04		 je	 SHORT $LN8@CGraphData
  000f4	c6 06 00	 mov	 BYTE PTR [esi], 0
  000f7	46		 inc	 esi
$LN8@CGraphData:

; 781  : 	m_strIndicatorName = _MTOM2( szItem);

  000f8	6a 00		 push	 0
  000fa	57		 push	 edi
  000fb	6a 02		 push	 2
  000fd	6a 00		 push	 0
  000ff	b9 00 00 00 00	 mov	 ecx, OFFSET ?g_iMetaTable@@3VIMetaTable@@A ; g_iMetaTable
  00104	e8 00 00 00 00	 call	 ?GetMetaTextFromOther@IMetaTable@@QAEPBDPAUHWND__@@W4E_CODEPAGE@1@PBDH@Z ; IMetaTable::GetMetaTextFromOther
  00109	8d 7b 1c	 lea	 edi, DWORD PTR [ebx+28]
  0010c	50		 push	 eax
  0010d	8b cf		 mov	 ecx, edi
  0010f	ff 15 00 00 00
	00		 call	 DWORD PTR __imp_??4?$CStringT@DV?$StrTraitMFC_DLL@DV?$ChTraitsCRT@D@ATL@@@@@ATL@@QAEAAV01@PBD@Z

; 782  : 	if( !szGraphData) return;

  00115	85 f6		 test	 esi, esi
  00117	0f 84 97 01 00
	00		 je	 $LN76@CGraphData

; 783  : 	if( !*szGraphData) return;

  0011d	80 3e 00	 cmp	 BYTE PTR [esi], 0
  00120	0f 84 8e 01 00
	00		 je	 $LN76@CGraphData

; 784  : 	// (2006/11/29 - Seung-Won, Bae) Support Graph Name for Binding with Indicator Info.
; 785  : 	if( strncmp( szGraphData, "G:", 2)) m_strGraphName = m_strIndicatorName;

  00126	6a 02		 push	 2
  00128	68 00 00 00 00	 push	 OFFSET ??_C@_02FAMCGDNB@G?3@
  0012d	56		 push	 esi
  0012e	ff 15 00 00 00
	00		 call	 DWORD PTR __imp__strncmp
  00134	83 c4 0c	 add	 esp, 12			; 0000000cH
  00137	85 c0		 test	 eax, eax
  00139	74 0c		 je	 SHORT $LN11@CGraphData
  0013b	57		 push	 edi
  0013c	8d 4b 20	 lea	 ecx, DWORD PTR [ebx+32]
  0013f	ff 15 00 00 00
	00		 call	 DWORD PTR __imp_??4?$CStringT@DV?$StrTraitMFC_DLL@DV?$ChTraitsCRT@D@ATL@@@@@ATL@@QAEAAV01@ABV01@@Z
  00145	eb 44		 jmp	 SHORT $LN15@CGraphData
$LN11@CGraphData:
; File C:\Program Files (x86)\Windows Kits\10\Include\10.0.22000.0\ucrt\string.h

; 502  :         return const_cast<char*>(strchr(static_cast<char const*>(_String), _Ch));

  00147	6a 3b		 push	 59			; 0000003bH
  00149	56		 push	 esi
; File D:\git\src\IBK\IBK_DRFN\ProjSrc\SrcChartEx\ChartOCX\IndicatorCondition\GraphData.cpp

; 788  : 		szItem = szGraphData + 2;

  0014a	8d 7e 02	 lea	 edi, DWORD PTR [esi+2]
; File C:\Program Files (x86)\Windows Kits\10\Include\10.0.22000.0\ucrt\string.h

; 502  :         return const_cast<char*>(strchr(static_cast<char const*>(_String), _Ch));

  0014d	e8 00 00 00 00	 call	 _strchr
; File D:\git\src\IBK\IBK_DRFN\ProjSrc\SrcChartEx\ChartOCX\IndicatorCondition\GraphData.cpp

; 789  : 		szGraphData = strchr( szGraphData, ';');

  00152	8b f0		 mov	 esi, eax
; File C:\Program Files (x86)\Windows Kits\10\Include\10.0.22000.0\ucrt\string.h

; 502  :         return const_cast<char*>(strchr(static_cast<char const*>(_String), _Ch));

  00154	83 c4 08	 add	 esp, 8
; File D:\git\src\IBK\IBK_DRFN\ProjSrc\SrcChartEx\ChartOCX\IndicatorCondition\GraphData.cpp

; 790  : 		if( szGraphData) *szGraphData++ = '\0';

  00157	85 f6		 test	 esi, esi
  00159	74 04		 je	 SHORT $LN13@CGraphData
  0015b	c6 06 00	 mov	 BYTE PTR [esi], 0
  0015e	46		 inc	 esi
$LN13@CGraphData:

; 791  : 		m_strGraphName = _MTOM2( szItem);		// (2008/2/22 - Seung-Won, Bae) The first default Graph Name is Indicator Name.

  0015f	6a 00		 push	 0
  00161	57		 push	 edi
  00162	6a 02		 push	 2
  00164	6a 00		 push	 0
  00166	b9 00 00 00 00	 mov	 ecx, OFFSET ?g_iMetaTable@@3VIMetaTable@@A ; g_iMetaTable
  0016b	e8 00 00 00 00	 call	 ?GetMetaTextFromOther@IMetaTable@@QAEPBDPAUHWND__@@W4E_CODEPAGE@1@PBDH@Z ; IMetaTable::GetMetaTextFromOther
  00170	50		 push	 eax
  00171	8d 4b 20	 lea	 ecx, DWORD PTR [ebx+32]
  00174	ff 15 00 00 00
	00		 call	 DWORD PTR __imp_??4?$CStringT@DV?$StrTraitMFC_DLL@DV?$ChTraitsCRT@D@ATL@@@@@ATL@@QAEAAV01@PBD@Z

; 792  : 		if( !szGraphData) return;

  0017a	85 f6		 test	 esi, esi
  0017c	0f 84 32 01 00
	00		 je	 $LN76@CGraphData

; 793  : 		if( !*szGraphData) return;

  00182	80 3e 00	 cmp	 BYTE PTR [esi], 0
  00185	0f 84 29 01 00
	00		 je	 $LN76@CGraphData
$LN15@CGraphData:
; File C:\Program Files (x86)\Windows Kits\10\Include\10.0.22000.0\ucrt\string.h

; 502  :         return const_cast<char*>(strchr(static_cast<char const*>(_String), _Ch));

  0018b	6a 3b		 push	 59			; 0000003bH
  0018d	56		 push	 esi
  0018e	e8 00 00 00 00	 call	 _strchr
; File D:\git\src\IBK\IBK_DRFN\ProjSrc\SrcChartEx\ChartOCX\IndicatorCondition\GraphData.cpp

; 797  : 	szGraphData = strchr( szGraphData, ';');

  00193	8b f8		 mov	 edi, eax
; File C:\Program Files (x86)\Windows Kits\10\Include\10.0.22000.0\ucrt\string.h

; 502  :         return const_cast<char*>(strchr(static_cast<char const*>(_String), _Ch));

  00195	83 c4 08	 add	 esp, 8
; File D:\git\src\IBK\IBK_DRFN\ProjSrc\SrcChartEx\ChartOCX\IndicatorCondition\GraphData.cpp

; 798  : 	if( szGraphData) *szGraphData++ = '\0';

  00198	85 ff		 test	 edi, edi
  0019a	74 04		 je	 SHORT $LN16@CGraphData
  0019c	c6 07 00	 mov	 BYTE PTR [edi], 0
  0019f	47		 inc	 edi
$LN16@CGraphData:
; File C:\Program Files (x86)\Windows Kits\10\Include\10.0.22000.0\ucrt\string.h

; 502  :         return const_cast<char*>(strchr(static_cast<char const*>(_String), _Ch));

  001a0	6a 28		 push	 40			; 00000028H
  001a2	56		 push	 esi
  001a3	e8 00 00 00 00	 call	 _strchr
  001a8	83 c4 08	 add	 esp, 8
; File D:\git\src\IBK\IBK_DRFN\ProjSrc\SrcChartEx\ChartOCX\IndicatorCondition\GraphData.cpp

; 800  : 	if( strchr( szItem, '('))	m_strPacketName = _STOMS( szItem, ",(+)/23", 0);

  001ab	6a ff		 push	 -1
  001ad	6a 00		 push	 0
  001af	51		 push	 ecx
  001b0	8b cc		 mov	 ecx, esp
  001b2	85 c0		 test	 eax, eax
  001b4	74 37		 je	 SHORT $LN17@CGraphData
  001b6	89 65 e8	 mov	 DWORD PTR $T5[ebp], esp
  001b9	68 00 00 00 00	 push	 OFFSET ??_C@_07ECDJHDFC@?0?$CI?$CL?$CJ?123@
  001be	ff 15 00 00 00
	00		 call	 DWORD PTR __imp_??0?$CStringT@DV?$StrTraitMFC_DLL@DV?$ChTraitsCRT@D@ATL@@@@@ATL@@QAE@PBD@Z
  001c4	51		 push	 ecx
  001c5	8b cc		 mov	 ecx, esp
  001c7	c6 45 fc 05	 mov	 BYTE PTR __$EHRec$[ebp+8], 5
  001cb	56		 push	 esi
  001cc	ff 15 00 00 00
	00		 call	 DWORD PTR __imp_??0?$CStringT@DV?$StrTraitMFC_DLL@DV?$ChTraitsCRT@D@ATL@@@@@ATL@@QAE@PBD@Z
  001d2	ff 75 0c	 push	 DWORD PTR _p_hOcxWnd$[ebp]
  001d5	8d 45 08	 lea	 eax, DWORD PTR $T7[ebp]
  001d8	c6 45 fc 04	 mov	 BYTE PTR __$EHRec$[ebp+8], 4
  001dc	50		 push	 eax
  001dd	b9 00 00 00 00	 mov	 ecx, OFFSET ?g_iMetaTable@@3VIMetaTable@@A ; g_iMetaTable
  001e2	e8 00 00 00 00	 call	 ?GetMultipleMetaTextForScript@IMetaTable@@QAE?AV?$CStringT@DV?$StrTraitMFC_DLL@DV?$ChTraitsCRT@D@ATL@@@@@ATL@@PAUHWND__@@V23@1HH@Z ; IMetaTable::GetMultipleMetaTextForScript
  001e7	c6 45 fc 06	 mov	 BYTE PTR __$EHRec$[ebp+8], 6
  001eb	eb 35		 jmp	 SHORT $LN81@CGraphData
$LN17@CGraphData:

; 801  : 	else						m_strPacketName = _STOMS( szItem, ",", 0);

  001ed	89 65 e4	 mov	 DWORD PTR $T4[ebp], esp
  001f0	68 00 00 00 00	 push	 OFFSET ??_C@_01IHBHIGKO@?0@
  001f5	ff 15 00 00 00
	00		 call	 DWORD PTR __imp_??0?$CStringT@DV?$StrTraitMFC_DLL@DV?$ChTraitsCRT@D@ATL@@@@@ATL@@QAE@PBD@Z
  001fb	51		 push	 ecx
  001fc	8b cc		 mov	 ecx, esp
  001fe	c6 45 fc 07	 mov	 BYTE PTR __$EHRec$[ebp+8], 7
  00202	56		 push	 esi
  00203	ff 15 00 00 00
	00		 call	 DWORD PTR __imp_??0?$CStringT@DV?$StrTraitMFC_DLL@DV?$ChTraitsCRT@D@ATL@@@@@ATL@@QAE@PBD@Z
  00209	ff 75 0c	 push	 DWORD PTR _p_hOcxWnd$[ebp]
  0020c	8d 45 08	 lea	 eax, DWORD PTR $T6[ebp]
  0020f	c6 45 fc 04	 mov	 BYTE PTR __$EHRec$[ebp+8], 4
  00213	50		 push	 eax
  00214	b9 00 00 00 00	 mov	 ecx, OFFSET ?g_iMetaTable@@3VIMetaTable@@A ; g_iMetaTable
  00219	e8 00 00 00 00	 call	 ?GetMultipleMetaTextForScript@IMetaTable@@QAE?AV?$CStringT@DV?$StrTraitMFC_DLL@DV?$ChTraitsCRT@D@ATL@@@@@ATL@@PAUHWND__@@V23@1HH@Z ; IMetaTable::GetMultipleMetaTextForScript
  0021e	c6 45 fc 08	 mov	 BYTE PTR __$EHRec$[ebp+8], 8
$LN81@CGraphData:

; 802  : 	if( !szGraphData) return;

  00222	50		 push	 eax
  00223	8d 4b 04	 lea	 ecx, DWORD PTR [ebx+4]
  00226	ff 15 00 00 00
	00		 call	 DWORD PTR __imp_??4?$CStringT@DV?$StrTraitMFC_DLL@DV?$ChTraitsCRT@D@ATL@@@@@ATL@@QAEAAV01@ABV01@@Z
  0022c	8d 4d 08	 lea	 ecx, DWORD PTR $T6[ebp]
  0022f	c6 45 fc 04	 mov	 BYTE PTR __$EHRec$[ebp+8], 4
  00233	ff 15 00 00 00
	00		 call	 DWORD PTR __imp_??1?$CStringT@DV?$StrTraitMFC_DLL@DV?$ChTraitsCRT@D@ATL@@@@@ATL@@QAE@XZ
  00239	85 ff		 test	 edi, edi
  0023b	74 77		 je	 SHORT $LN76@CGraphData

; 803  : 	if( !*szGraphData) return;

  0023d	80 3f 00	 cmp	 BYTE PTR [edi], 0
  00240	74 72		 je	 SHORT $LN76@CGraphData
; File C:\Program Files (x86)\Windows Kits\10\Include\10.0.22000.0\ucrt\string.h

; 502  :         return const_cast<char*>(strchr(static_cast<char const*>(_String), _Ch));

  00242	6a 3b		 push	 59			; 0000003bH
  00244	57		 push	 edi
  00245	e8 00 00 00 00	 call	 _strchr
; File D:\git\src\IBK\IBK_DRFN\ProjSrc\SrcChartEx\ChartOCX\IndicatorCondition\GraphData.cpp

; 806  : 	szGraphData = strchr( szGraphData, ';');

  0024a	8b f0		 mov	 esi, eax
; File C:\Program Files (x86)\Windows Kits\10\Include\10.0.22000.0\ucrt\string.h

; 502  :         return const_cast<char*>(strchr(static_cast<char const*>(_String), _Ch));

  0024c	83 c4 08	 add	 esp, 8
; File D:\git\src\IBK\IBK_DRFN\ProjSrc\SrcChartEx\ChartOCX\IndicatorCondition\GraphData.cpp

; 807  : 	if( szGraphData) *szGraphData++ = '\0';

  0024f	85 f6		 test	 esi, esi
  00251	74 04		 je	 SHORT $LN21@CGraphData
  00253	c6 06 00	 mov	 BYTE PTR [esi], 0
  00256	46		 inc	 esi
$LN21@CGraphData:

; 562  : 	SetData( p_szSignalData);

  00257	57		 push	 edi
  00258	8d 4d e0	 lea	 ecx, DWORD PTR $T3[ebp]
  0025b	e8 00 00 00 00	 call	 ?SetData@CSignalData@@AAEXPBD@Z ; CSignalData::SetData

; 808  : 	m_signalData = CSignalData( szItem);

  00260	8d 45 e0	 lea	 eax, DWORD PTR $T3[ebp]

; 565  : 	m_pSignalCache = NULL;

  00263	c7 45 e4 00 00
	00 00		 mov	 DWORD PTR $T3[ebp+4], 0

; 808  : 	m_signalData = CSignalData( szItem);

  0026a	50		 push	 eax
  0026b	8d 4b 08	 lea	 ecx, DWORD PTR [ebx+8]
  0026e	e8 00 00 00 00	 call	 ??4CSignalData@@QAEAAV0@ABV0@@Z ; CSignalData::operator=

; 809  : 	if( !szGraphData) return;

  00273	85 f6		 test	 esi, esi
  00275	74 3d		 je	 SHORT $LN76@CGraphData

; 810  : 	if( !*szGraphData) return;

  00277	80 3e 00	 cmp	 BYTE PTR [esi], 0
  0027a	74 38		 je	 SHORT $LN76@CGraphData

; 811  : 	// Graph Drawing Data
; 812  : 	szItem = szGraphData;

  0027c	89 75 0c	 mov	 DWORD PTR _szItem$5$[ebp], esi

; 813  : 	int i = 0;

  0027f	33 ff		 xor	 edi, edi
$LL4@CGraphData:
; File C:\Program Files (x86)\Windows Kits\10\Include\10.0.22000.0\ucrt\string.h

; 502  :         return const_cast<char*>(strchr(static_cast<char const*>(_String), _Ch));

  00281	6a 3b		 push	 59			; 0000003bH
  00283	56		 push	 esi
  00284	e8 00 00 00 00	 call	 _strchr
; File D:\git\src\IBK\IBK_DRFN\ProjSrc\SrcChartEx\ChartOCX\IndicatorCondition\GraphData.cpp

; 816  : 		szGraphData = strchr( szGraphData, ';');

  00289	8b f0		 mov	 esi, eax
; File C:\Program Files (x86)\Windows Kits\10\Include\10.0.22000.0\ucrt\string.h

; 502  :         return const_cast<char*>(strchr(static_cast<char const*>(_String), _Ch));

  0028b	83 c4 08	 add	 esp, 8
; File D:\git\src\IBK\IBK_DRFN\ProjSrc\SrcChartEx\ChartOCX\IndicatorCondition\GraphData.cpp

; 817  : 		if( !szGraphData) continue;

  0028e	85 f6		 test	 esi, esi
  00290	74 0e		 je	 SHORT $LN26@CGraphData

; 818  : 		i++;

  00292	47		 inc	 edi

; 819  : 		szGraphData++;

  00293	83 c6 01	 add	 esi, 1

; 820  : 	} while( szGraphData && i < 6);

  00296	74 08		 je	 SHORT $LN26@CGraphData
  00298	83 ff 06	 cmp	 edi, 6
  0029b	7c e4		 jl	 SHORT $LL4@CGraphData

; 821  : 	if( szGraphData) *szGraphData = '\0';

  0029d	c6 06 00	 mov	 BYTE PTR [esi], 0
$LN26@CGraphData:

; 822  : 	m_graphDataDrawingData = CGraphDataDrawingData( szItem);

  002a0	ff 75 0c	 push	 DWORD PTR _szItem$5$[ebp]
  002a3	8d 4d dc	 lea	 ecx, DWORD PTR $T2[ebp]
  002a6	e8 00 00 00 00	 call	 ??0CGraphDataDrawingData@@QAE@PBD@Z ; CGraphDataDrawingData::CGraphDataDrawingData
  002ab	50		 push	 eax
  002ac	8d 4b 10	 lea	 ecx, DWORD PTR [ebx+16]
  002af	e8 00 00 00 00	 call	 ??4CGraphDataDrawingData@@QAEAAV0@ABV0@@Z ; CGraphDataDrawingData::operator=
$LN76@CGraphData:

; 823  : }

  002b4	8d 4d f0	 lea	 ecx, DWORD PTR _strGraphData$[ebp]
  002b7	ff 15 00 00 00
	00		 call	 DWORD PTR __imp_??1?$CStringT@DV?$StrTraitMFC_DLL@DV?$ChTraitsCRT@D@ATL@@@@@ATL@@QAE@XZ
$LN78@CGraphData:
  002bd	8b c3		 mov	 eax, ebx
  002bf	8b 4d f4	 mov	 ecx, DWORD PTR __$EHRec$[ebp]
  002c2	64 89 0d 00 00
	00 00		 mov	 DWORD PTR fs:0, ecx
  002c9	59		 pop	 ecx
  002ca	5f		 pop	 edi
  002cb	5e		 pop	 esi
  002cc	5b		 pop	 ebx
  002cd	8b e5		 mov	 esp, ebp
  002cf	5d		 pop	 ebp
  002d0	c2 08 00	 ret	 8
_TEXT	ENDS
;	COMDAT text$x
text$x	SEGMENT
__unwindfunclet$??0CGraphData@@QAE@PBDPAUHWND__@@@Z$0:
  00000	8b 4d ec	 mov	 ecx, DWORD PTR _this$[ebp]
  00003	83 c1 04	 add	 ecx, 4
  00006	ff 25 00 00 00
	00		 jmp	 DWORD PTR __imp_??1?$CStringT@DV?$StrTraitMFC_DLL@DV?$ChTraitsCRT@D@ATL@@@@@ATL@@QAE@XZ
__unwindfunclet$??0CGraphData@@QAE@PBDPAUHWND__@@@Z$1:
  0000c	8b 4d ec	 mov	 ecx, DWORD PTR _this$[ebp]
  0000f	83 c1 08	 add	 ecx, 8
  00012	e9 00 00 00 00	 jmp	 ??1CSignalData@@QAE@XZ	; CSignalData::~CSignalData
__unwindfunclet$??0CGraphData@@QAE@PBDPAUHWND__@@@Z$2:
  00017	8b 4d ec	 mov	 ecx, DWORD PTR _this$[ebp]
  0001a	83 c1 1c	 add	 ecx, 28			; 0000001cH
  0001d	ff 25 00 00 00
	00		 jmp	 DWORD PTR __imp_??1?$CStringT@DV?$StrTraitMFC_DLL@DV?$ChTraitsCRT@D@ATL@@@@@ATL@@QAE@XZ
__unwindfunclet$??0CGraphData@@QAE@PBDPAUHWND__@@@Z$3:
  00023	8b 4d ec	 mov	 ecx, DWORD PTR _this$[ebp]
  00026	83 c1 20	 add	 ecx, 32			; 00000020H
  00029	ff 25 00 00 00
	00		 jmp	 DWORD PTR __imp_??1?$CStringT@DV?$StrTraitMFC_DLL@DV?$ChTraitsCRT@D@ATL@@@@@ATL@@QAE@XZ
__unwindfunclet$??0CGraphData@@QAE@PBDPAUHWND__@@@Z$4:
  0002f	8d 4d f0	 lea	 ecx, DWORD PTR _strGraphData$[ebp]
  00032	ff 25 00 00 00
	00		 jmp	 DWORD PTR __imp_??1?$CStringT@DV?$StrTraitMFC_DLL@DV?$ChTraitsCRT@D@ATL@@@@@ATL@@QAE@XZ
__unwindfunclet$??0CGraphData@@QAE@PBDPAUHWND__@@@Z$5:
  00038	8b 4d e8	 mov	 ecx, DWORD PTR $T5[ebp]
  0003b	ff 25 00 00 00
	00		 jmp	 DWORD PTR __imp_??1?$CStringT@DV?$StrTraitMFC_DLL@DV?$ChTraitsCRT@D@ATL@@@@@ATL@@QAE@XZ
__unwindfunclet$??0CGraphData@@QAE@PBDPAUHWND__@@@Z$7:
  00041	8d 4d 08	 lea	 ecx, DWORD PTR $T7[ebp]
  00044	ff 25 00 00 00
	00		 jmp	 DWORD PTR __imp_??1?$CStringT@DV?$StrTraitMFC_DLL@DV?$ChTraitsCRT@D@ATL@@@@@ATL@@QAE@XZ
__unwindfunclet$??0CGraphData@@QAE@PBDPAUHWND__@@@Z$8:
  0004a	8b 4d e4	 mov	 ecx, DWORD PTR $T4[ebp]
  0004d	ff 25 00 00 00
	00		 jmp	 DWORD PTR __imp_??1?$CStringT@DV?$StrTraitMFC_DLL@DV?$ChTraitsCRT@D@ATL@@@@@ATL@@QAE@XZ
__unwindfunclet$??0CGraphData@@QAE@PBDPAUHWND__@@@Z$10:
  00053	8d 4d 08	 lea	 ecx, DWORD PTR $T6[ebp]
  00056	ff 25 00 00 00
	00		 jmp	 DWORD PTR __imp_??1?$CStringT@DV?$StrTraitMFC_DLL@DV?$ChTraitsCRT@D@ATL@@@@@ATL@@QAE@XZ
  0005c	cc		 int	 3
  0005d	cc		 int	 3
  0005e	cc		 int	 3
  0005f	cc		 int	 3
  00060	cc		 int	 3
__ehhandler$??0CGraphData@@QAE@PBDPAUHWND__@@@Z:
  00061	90		 npad	 1
  00062	90		 npad	 1
  00063	8b 54 24 08	 mov	 edx, DWORD PTR [esp+8]
  00067	8d 42 0c	 lea	 eax, DWORD PTR [edx+12]
  0006a	8b 4a d8	 mov	 ecx, DWORD PTR [edx-40]
  0006d	33 c8		 xor	 ecx, eax
  0006f	e8 00 00 00 00	 call	 @__security_check_cookie@4
  00074	b8 00 00 00 00	 mov	 eax, OFFSET __ehfuncinfo$??0CGraphData@@QAE@PBDPAUHWND__@@@Z
  00079	e9 00 00 00 00	 jmp	 ___CxxFrameHandler3
text$x	ENDS
??0CGraphData@@QAE@PBDPAUHWND__@@@Z ENDP		; CGraphData::CGraphData
; Function compile flags: /Ogtp
; File D:\git\src\IBK\IBK_DRFN\ProjSrc\SrcChartEx\ChartOCX\Include_Chart\GraphData.h
; File D:\git\src\IBK\IBK_DRFN\ProjSrc\SrcChartEx\ChartOCX\IndicatorCondition\GraphData.cpp
; File D:\git\src\IBK\IBK_DRFN\ProjSrc\SrcChartEx\ChartOCX\Include_Chart\GraphData.h
; File D:\git\src\IBK\IBK_DRFN\ProjSrc\SrcChartEx\ChartOCX\IndicatorCondition\GraphData.cpp
; File D:\git\src\IBK\IBK_DRFN\ProjSrc\SrcChartEx\ChartOCX\Include_Chart\GraphData.h
;	COMDAT ??0CGraphData@@QAE@XZ
_TEXT	SEGMENT
_this$ = -4						; size = 4
??0CGraphData@@QAE@XZ PROC				; CGraphData::CGraphData, COMDAT
; _this$ = ecx

; 181  : 	CGraphData()	{}							// (2006/11/26 - Seung-Won, Bae) Created by CIndicatorInfo Consturctor.

  00000	55		 push	 ebp
  00001	8b ec		 mov	 ebp, esp
  00003	51		 push	 ecx
  00004	56		 push	 esi
  00005	8b f1		 mov	 esi, ecx
  00007	89 75 fc	 mov	 DWORD PTR _this$[ebp], esi
  0000a	8d 4e 04	 lea	 ecx, DWORD PTR [esi+4]
  0000d	c7 06 00 00 00
	00		 mov	 DWORD PTR [esi], OFFSET ??_7CGraphData@@6B@
  00013	ff 15 00 00 00
	00		 call	 DWORD PTR __imp_??0?$CStringT@DV?$StrTraitMFC_DLL@DV?$ChTraitsCRT@D@ATL@@@@@ATL@@QAE@XZ
; File D:\git\src\IBK\IBK_DRFN\ProjSrc\SrcChartEx\ChartOCX\IndicatorCondition\GraphData.cpp

; 553  : 	m_bIsUse(bIsUse),

  00019	66 c7 46 08 00
	00		 mov	 WORD PTR [esi+8], 0
; File D:\git\src\IBK\IBK_DRFN\ProjSrc\SrcChartEx\ChartOCX\Include_Chart\GraphData.h

; 181  : 	CGraphData()	{}							// (2006/11/26 - Seung-Won, Bae) Created by CIndicatorInfo Consturctor.

  0001f	8d 4e 1c	 lea	 ecx, DWORD PTR [esi+28]
; File D:\git\src\IBK\IBK_DRFN\ProjSrc\SrcChartEx\ChartOCX\IndicatorCondition\GraphData.cpp

; 557  : 	m_pSignalCache = NULL;

  00022	c7 46 0c 00 00
	00 00		 mov	 DWORD PTR [esi+12], 0

; 321  : 	m_bCalcRiseFallRate_LowHigh(false),

  00029	c7 46 10 00 00
	00 00		 mov	 DWORD PTR [esi+16], 0

; 322  : 	m_bCalcRiseFallRate_LowCur(false),
; 323  : 	m_bCalcRiseFallRate_HighCur(false),
; 324  : 	m_bCalcRate_PrevCur(false),
; 325  : 	m_nCalcRiseFallRate_CurData(0),

  00030	c7 46 14 00 00
	00 00		 mov	 DWORD PTR [esi+20], 0

; 326  : 	// (2009/9/12 - Seung-Won, Bae) for OHLC graph data
; 327  : 	m_bShowOHLC( FALSE)

  00037	c7 46 18 00 00
	00 00		 mov	 DWORD PTR [esi+24], 0
; File D:\git\src\IBK\IBK_DRFN\ProjSrc\SrcChartEx\ChartOCX\Include_Chart\GraphData.h

; 181  : 	CGraphData()	{}							// (2006/11/26 - Seung-Won, Bae) Created by CIndicatorInfo Consturctor.

  0003e	ff 15 00 00 00
	00		 call	 DWORD PTR __imp_??0?$CStringT@DV?$StrTraitMFC_DLL@DV?$ChTraitsCRT@D@ATL@@@@@ATL@@QAE@XZ
  00044	8d 4e 20	 lea	 ecx, DWORD PTR [esi+32]
  00047	ff 15 00 00 00
	00		 call	 DWORD PTR __imp_??0?$CStringT@DV?$StrTraitMFC_DLL@DV?$ChTraitsCRT@D@ATL@@@@@ATL@@QAE@XZ
  0004d	8b c6		 mov	 eax, esi
  0004f	5e		 pop	 esi
  00050	8b e5		 mov	 esp, ebp
  00052	5d		 pop	 ebp
  00053	c3		 ret	 0
??0CGraphData@@QAE@XZ ENDP				; CGraphData::CGraphData
_TEXT	ENDS
; Function compile flags: /Ogtp
; File D:\git\src\IBK\IBK_DRFN\ProjSrc\SrcChartEx\ChartOCX\IndicatorCondition\GraphData.cpp
;	COMDAT ??_FCSignalData@@QAEXXZ
_TEXT	SEGMENT
??_FCSignalData@@QAEXXZ PROC				; CSignalData::`default constructor closure', COMDAT
; _this$ = ecx

; 553  : 	m_bIsUse(bIsUse),

  00000	66 c7 01 00 00	 mov	 WORD PTR [ecx], 0

; 554  : 	m_bIsShow(bIsShow)
; 555  : {
; 556  : 	// (2009/10/7 - Seung-Won, Bae) for Signal Arrow Drawing Cache.
; 557  : 	m_pSignalCache = NULL;

  00005	c7 41 04 00 00
	00 00		 mov	 DWORD PTR [ecx+4], 0
  0000c	c3		 ret	 0
??_FCSignalData@@QAEXXZ ENDP				; CSignalData::`default constructor closure'
_TEXT	ENDS
; Function compile flags: /Ogtp
; File D:\git\src\IBK\IBK_DRFN\ProjSrc\SrcChartEx\ChartOCX\IndicatorCondition\GraphData.cpp
;	COMDAT ?ClearCalcDataForDraw@CSignalData@@QAEXXZ
_TEXT	SEGMENT
?ClearCalcDataForDraw@CSignalData@@QAEXXZ PROC		; CSignalData::ClearCalcDataForDraw, COMDAT
; _this$ = ecx

; 666  : {

  00000	56		 push	 esi
  00001	8b f1		 mov	 esi, ecx

; 667  : 	if( m_pSignalCache)

  00003	8b 4e 04	 mov	 ecx, DWORD PTR [esi+4]
  00006	85 c9		 test	 ecx, ecx
  00008	74 0d		 je	 SHORT $LN2@ClearCalcD

; 668  : 	{
; 669  : 		delete m_pSignalCache;

  0000a	8b 01		 mov	 eax, DWORD PTR [ecx]
  0000c	6a 01		 push	 1
  0000e	ff 10		 call	 DWORD PTR [eax]

; 670  : 		m_pSignalCache = NULL;

  00010	c7 46 04 00 00
	00 00		 mov	 DWORD PTR [esi+4], 0
$LN2@ClearCalcD:

; 671  : 	}
; 672  : }

  00017	5e		 pop	 esi
  00018	c3		 ret	 0
?ClearCalcDataForDraw@CSignalData@@QAEXXZ ENDP		; CSignalData::ClearCalcDataForDraw
_TEXT	ENDS
; Function compile flags: /Ogtp
; File D:\git\src\IBK\IBK_DRFN\ProjSrc\SrcChartEx\ChartOCX\IndicatorCondition\GraphData.cpp
;	COMDAT ?ClearData@CSignalData@@QAEXXZ
_TEXT	SEGMENT
?ClearData@CSignalData@@QAEXXZ PROC			; CSignalData::ClearData, COMDAT
; _this$ = ecx

; 585  : 	m_bIsUse	= false;

  00000	66 c7 01 00 00	 mov	 WORD PTR [ecx], 0

; 586  : 	m_bIsShow	= false;
; 587  : }

  00005	c3		 ret	 0
?ClearData@CSignalData@@QAEXXZ ENDP			; CSignalData::ClearData
_TEXT	ENDS
; Function compile flags: /Ogtp
; File D:\git\src\IBK\IBK_DRFN\ProjSrc\SrcChartEx\ChartOCX\IndicatorCondition\GraphData.cpp
; File C:\Program Files (x86)\Windows Kits\10\Include\10.0.22000.0\ucrt\string.h
; File D:\git\src\IBK\IBK_DRFN\ProjSrc\SrcChartEx\ChartOCX\IndicatorCondition\GraphData.cpp
; File C:\Program Files (x86)\Windows Kits\10\Include\10.0.22000.0\ucrt\string.h
; File D:\git\src\IBK\IBK_DRFN\ProjSrc\SrcChartEx\ChartOCX\IndicatorCondition\GraphData.cpp
; File C:\Program Files (x86)\Windows Kits\10\Include\10.0.22000.0\ucrt\string.h
; File D:\git\src\IBK\IBK_DRFN\ProjSrc\SrcChartEx\ChartOCX\IndicatorCondition\GraphData.cpp
;	COMDAT ?SetData@CSignalData@@AAEXPBD@Z
_TEXT	SEGMENT
_this$1$ = -16						; size = 4
__$EHRec$ = -12						; size = 12
_strSignalData$ = 8					; size = 4
_p_szSignalData$ = 8					; size = 4
?SetData@CSignalData@@AAEXPBD@Z PROC			; CSignalData::SetData, COMDAT
; _this$ = ecx

; 633  : {

  00000	55		 push	 ebp
  00001	8b ec		 mov	 ebp, esp
  00003	6a ff		 push	 -1
  00005	68 00 00 00 00	 push	 __ehhandler$?SetData@CSignalData@@AAEXPBD@Z
  0000a	64 a1 00 00 00
	00		 mov	 eax, DWORD PTR fs:0
  00010	50		 push	 eax
  00011	51		 push	 ecx
  00012	53		 push	 ebx
  00013	56		 push	 esi
  00014	57		 push	 edi
  00015	a1 00 00 00 00	 mov	 eax, DWORD PTR ___security_cookie
  0001a	33 c5		 xor	 eax, ebp
  0001c	50		 push	 eax
  0001d	8d 45 f4	 lea	 eax, DWORD PTR __$EHRec$[ebp]
  00020	64 a3 00 00 00
	00		 mov	 DWORD PTR fs:0, eax
  00026	89 4d f0	 mov	 DWORD PTR _this$1$[ebp], ecx

; 634  : 	if( !p_szSignalData) return;

  00029	8b 75 08	 mov	 esi, DWORD PTR _p_szSignalData$[ebp]
  0002c	85 f6		 test	 esi, esi
  0002e	0f 84 b3 00 00
	00		 je	 $LN1@SetData

; 635  : 	if( !*p_szSignalData) return;

  00034	80 3e 00	 cmp	 BYTE PTR [esi], 0
  00037	0f 84 aa 00 00
	00		 je	 $LN1@SetData

; 636  : 
; 637  : 	CString strSignalData;

  0003d	8d 4d 08	 lea	 ecx, DWORD PTR _strSignalData$[ebp]
  00040	ff 15 00 00 00
	00		 call	 DWORD PTR __imp_??0?$CStringT@DV?$StrTraitMFC_DLL@DV?$ChTraitsCRT@D@ATL@@@@@ATL@@QAE@XZ

; 638  : 	int nSignalDataLen = strlen( p_szSignalData);

  00046	8b fe		 mov	 edi, esi
  00048	c7 45 fc 00 00
	00 00		 mov	 DWORD PTR __$EHRec$[ebp+8], 0
  0004f	8d 4f 01	 lea	 ecx, DWORD PTR [edi+1]
$LL25@SetData:
  00052	8a 07		 mov	 al, BYTE PTR [edi]
  00054	47		 inc	 edi
  00055	84 c0		 test	 al, al
  00057	75 f9		 jne	 SHORT $LL25@SetData
  00059	2b f9		 sub	 edi, ecx

; 639  : 	char *szSignalData = strSignalData.GetBufferSetLength( nSignalDataLen + 1);

  0005b	8d 4d 08	 lea	 ecx, DWORD PTR _strSignalData$[ebp]
  0005e	8d 47 01	 lea	 eax, DWORD PTR [edi+1]
  00061	50		 push	 eax
  00062	ff 15 00 00 00
	00		 call	 DWORD PTR __imp_?GetBufferSetLength@?$CSimpleStringT@D$00@ATL@@QAEPADH@Z
  00068	8b d8		 mov	 ebx, eax
  0006a	8b d3		 mov	 edx, ebx
  0006c	2b d6		 sub	 edx, esi
  0006e	66 90		 npad	 2
$LL12@SetData:

; 640  : 	strcpy( szSignalData, p_szSignalData);

  00070	8a 0e		 mov	 cl, BYTE PTR [esi]
  00072	8d 76 01	 lea	 esi, DWORD PTR [esi+1]
  00075	88 4c 32 ff	 mov	 BYTE PTR [edx+esi-1], cl
  00079	84 c9		 test	 cl, cl
  0007b	75 f3		 jne	 SHORT $LL12@SetData

; 641  : 	if( szSignalData[ nSignalDataLen - 1] != ';')

  0007d	80 7c 3b ff 3b	 cmp	 BYTE PTR [ebx+edi-1], 59 ; 0000003bH
  00082	74 06		 je	 SHORT $LN4@SetData

; 642  : 	{
; 643  : 		szSignalData[ nSignalDataLen] = ';';

  00084	66 c7 04 3b 3b
	00		 mov	 WORD PTR [ebx+edi], 59	; 0000003bH
$LN4@SetData:
; File C:\Program Files (x86)\Windows Kits\10\Include\10.0.22000.0\ucrt\string.h

; 502  :         return const_cast<char*>(strchr(static_cast<char const*>(_String), _Ch));

  0008a	6a 3a		 push	 58			; 0000003aH
  0008c	53		 push	 ebx
  0008d	e8 00 00 00 00	 call	 _strchr
; File D:\git\src\IBK\IBK_DRFN\ProjSrc\SrcChartEx\ChartOCX\IndicatorCondition\GraphData.cpp

; 650  : 	szSignalData = strchr( szSignalData, ':');

  00092	8b f0		 mov	 esi, eax
; File C:\Program Files (x86)\Windows Kits\10\Include\10.0.22000.0\ucrt\string.h

; 502  :         return const_cast<char*>(strchr(static_cast<char const*>(_String), _Ch));

  00094	83 c4 08	 add	 esp, 8
; File D:\git\src\IBK\IBK_DRFN\ProjSrc\SrcChartEx\ChartOCX\IndicatorCondition\GraphData.cpp

; 651  : 	if( szSignalData) *szSignalData++ = '\0';

  00097	85 f6		 test	 esi, esi
  00099	74 04		 je	 SHORT $LN5@SetData
  0009b	c6 06 00	 mov	 BYTE PTR [esi], 0
  0009e	46		 inc	 esi
$LN5@SetData:

; 652  : 	m_bIsUse = ( atoi( szItem) != 0);

  0009f	8b 3d 00 00 00
	00		 mov	 edi, DWORD PTR __imp__atoi
  000a5	53		 push	 ebx
  000a6	ff d7		 call	 edi
  000a8	8b 5d f0	 mov	 ebx, DWORD PTR _this$1$[ebp]
  000ab	83 c4 04	 add	 esp, 4
  000ae	85 c0		 test	 eax, eax
  000b0	0f 95 c0	 setne	 al
  000b3	88 03		 mov	 BYTE PTR [ebx], al

; 653  : 	if( !szSignalData) return;

  000b5	85 f6		 test	 esi, esi
  000b7	74 25		 je	 SHORT $LN15@SetData

; 654  : 	if( !*szSignalData) return;

  000b9	80 3e 00	 cmp	 BYTE PTR [esi], 0
  000bc	74 20		 je	 SHORT $LN15@SetData
; File C:\Program Files (x86)\Windows Kits\10\Include\10.0.22000.0\ucrt\string.h

; 502  :         return const_cast<char*>(strchr(static_cast<char const*>(_String), _Ch));

  000be	6a 3b		 push	 59			; 0000003bH
  000c0	56		 push	 esi
  000c1	e8 00 00 00 00	 call	 _strchr
  000c6	83 c4 08	 add	 esp, 8
; File D:\git\src\IBK\IBK_DRFN\ProjSrc\SrcChartEx\ChartOCX\IndicatorCondition\GraphData.cpp

; 658  : 	if( szSignalData) *szSignalData++ = '\0';

  000c9	85 c0		 test	 eax, eax
  000cb	74 03		 je	 SHORT $LN8@SetData
  000cd	c6 00 00	 mov	 BYTE PTR [eax], 0
$LN8@SetData:

; 659  : 	m_bIsShow = ( atoi( szItem) != 0);

  000d0	56		 push	 esi
  000d1	ff d7		 call	 edi
  000d3	83 c4 04	 add	 esp, 4
  000d6	85 c0		 test	 eax, eax
  000d8	0f 95 c0	 setne	 al
  000db	88 43 01	 mov	 BYTE PTR [ebx+1], al
$LN15@SetData:

; 660  : 	if( !szSignalData) return;
; 661  : 	if( !*szSignalData) return;
; 662  : }

  000de	8d 4d 08	 lea	 ecx, DWORD PTR _strSignalData$[ebp]
  000e1	ff 15 00 00 00
	00		 call	 DWORD PTR __imp_??1?$CStringT@DV?$StrTraitMFC_DLL@DV?$ChTraitsCRT@D@ATL@@@@@ATL@@QAE@XZ
$LN1@SetData:
  000e7	8b 4d f4	 mov	 ecx, DWORD PTR __$EHRec$[ebp]
  000ea	64 89 0d 00 00
	00 00		 mov	 DWORD PTR fs:0, ecx
  000f1	59		 pop	 ecx
  000f2	5f		 pop	 edi
  000f3	5e		 pop	 esi
  000f4	5b		 pop	 ebx
  000f5	8b e5		 mov	 esp, ebp
  000f7	5d		 pop	 ebp
  000f8	c2 04 00	 ret	 4
_TEXT	ENDS
;	COMDAT text$x
text$x	SEGMENT
__unwindfunclet$?SetData@CSignalData@@AAEXPBD@Z$0:
  00000	8d 4d 08	 lea	 ecx, DWORD PTR _strSignalData$[ebp]
  00003	ff 25 00 00 00
	00		 jmp	 DWORD PTR __imp_??1?$CStringT@DV?$StrTraitMFC_DLL@DV?$ChTraitsCRT@D@ATL@@@@@ATL@@QAE@XZ
  00009	cc		 int	 3
  0000a	cc		 int	 3
  0000b	cc		 int	 3
  0000c	cc		 int	 3
  0000d	cc		 int	 3
__ehhandler$?SetData@CSignalData@@AAEXPBD@Z:
  0000e	90		 npad	 1
  0000f	90		 npad	 1
  00010	8b 54 24 08	 mov	 edx, DWORD PTR [esp+8]
  00014	8d 42 0c	 lea	 eax, DWORD PTR [edx+12]
  00017	8b 4a ec	 mov	 ecx, DWORD PTR [edx-20]
  0001a	33 c8		 xor	 ecx, eax
  0001c	e8 00 00 00 00	 call	 @__security_check_cookie@4
  00021	b8 00 00 00 00	 mov	 eax, OFFSET __ehfuncinfo$?SetData@CSignalData@@AAEXPBD@Z
  00026	e9 00 00 00 00	 jmp	 ___CxxFrameHandler3
text$x	ENDS
?SetData@CSignalData@@AAEXPBD@Z ENDP			; CSignalData::SetData
; Function compile flags: /Ogtp
; File D:\git\src\IBK\IBK_DRFN\ProjSrc\SrcChartEx\ChartOCX\IndicatorCondition\GraphData.cpp
;	COMDAT ?GetData@CSignalData@@QBEXAAV?$CStringT@DV?$StrTraitMFC_DLL@DV?$ChTraitsCRT@D@ATL@@@@@ATL@@@Z
_TEXT	SEGMENT
_p_strSignalData$ = 8					; size = 4
?GetData@CSignalData@@QBEXAAV?$CStringT@DV?$StrTraitMFC_DLL@DV?$ChTraitsCRT@D@ATL@@@@@ATL@@@Z PROC ; CSignalData::GetData, COMDAT
; _this$ = ecx

; 621  : {

  00000	55		 push	 ebp
  00001	8b ec		 mov	 ebp, esp
  00003	56		 push	 esi
  00004	8b f1		 mov	 esi, ecx

; 622  : 	char *szSignalData = p_strSignalData.GetBufferSetLength( 4);	// Do not set 5, It has default NULL Terminator.

  00006	8b 4d 08	 mov	 ecx, DWORD PTR _p_strSignalData$[ebp]
  00009	6a 04		 push	 4
  0000b	ff 15 00 00 00
	00		 call	 DWORD PTR __imp_?GetBufferSetLength@?$CSimpleStringT@D$00@ATL@@QAEPADH@Z

; 623  : 	szSignalData[ 0] = ( m_bIsUse	? '1' : '0');

  00011	80 3e 00	 cmp	 BYTE PTR [esi], 0
  00014	0f 95 c2	 setne	 dl
  00017	80 c2 30	 add	 dl, 48			; 00000030H

; 624  : 	szSignalData[ 1] = ':';

  0001a	c6 40 01 3a	 mov	 BYTE PTR [eax+1], 58	; 0000003aH
  0001e	88 10		 mov	 BYTE PTR [eax], dl

; 625  : 	szSignalData[ 2] = ( m_bIsShow	? '1' : '0');

  00020	80 7e 01 00	 cmp	 BYTE PTR [esi+1], 0

; 626  : 	szSignalData[ 3] = ';';

  00024	66 c7 40 03 3b
	00		 mov	 WORD PTR [eax+3], 59	; 0000003bH
  0002a	0f 95 c1	 setne	 cl
  0002d	80 c1 30	 add	 cl, 48			; 00000030H
  00030	88 48 02	 mov	 BYTE PTR [eax+2], cl

; 627  : 	szSignalData[ 4] = '\0';

  00033	5e		 pop	 esi

; 628  : }

  00034	5d		 pop	 ebp
  00035	c2 04 00	 ret	 4
?GetData@CSignalData@@QBEXAAV?$CStringT@DV?$StrTraitMFC_DLL@DV?$ChTraitsCRT@D@ATL@@@@@ATL@@@Z ENDP ; CSignalData::GetData
_TEXT	ENDS
; Function compile flags: /Ogtp
; File D:\git\src\IBK\IBK_DRFN\ProjSrc\SrcChartEx\ChartOCX\IndicatorCondition\GraphData.cpp
;	COMDAT ?IsDraw@CSignalData@@QBE_NXZ
_TEXT	SEGMENT
?IsDraw@CSignalData@@QBE_NXZ PROC			; CSignalData::IsDraw, COMDAT
; _this$ = ecx

; 613  : 	if(!m_bIsUse)

  00000	80 39 00	 cmp	 BYTE PTR [ecx], 0
  00003	75 03		 jne	 SHORT $LN2@IsDraw

; 614  : 		return false;

  00005	32 c0		 xor	 al, al

; 616  : }

  00007	c3		 ret	 0
$LN2@IsDraw:

; 615  : 	return m_bIsShow;

  00008	8a 41 01	 mov	 al, BYTE PTR [ecx+1]

; 616  : }

  0000b	c3		 ret	 0
?IsDraw@CSignalData@@QBE_NXZ ENDP			; CSignalData::IsDraw
_TEXT	ENDS
; Function compile flags: /Ogtp
; File D:\git\src\IBK\IBK_DRFN\ProjSrc\SrcChartEx\ChartOCX\IndicatorCondition\GraphData.cpp
;	COMDAT ?IsShow@CSignalData@@QBE_NXZ
_TEXT	SEGMENT
?IsShow@CSignalData@@QBE_NXZ PROC			; CSignalData::IsShow, COMDAT
; _this$ = ecx

; 608  : 	return m_bIsShow;

  00000	8a 41 01	 mov	 al, BYTE PTR [ecx+1]

; 609  : }

  00003	c3		 ret	 0
?IsShow@CSignalData@@QBE_NXZ ENDP			; CSignalData::IsShow
_TEXT	ENDS
; Function compile flags: /Ogtp
; File D:\git\src\IBK\IBK_DRFN\ProjSrc\SrcChartEx\ChartOCX\IndicatorCondition\GraphData.cpp
;	COMDAT ?IsUse@CSignalData@@QBE_NXZ
_TEXT	SEGMENT
?IsUse@CSignalData@@QBE_NXZ PROC			; CSignalData::IsUse, COMDAT
; _this$ = ecx

; 603  : 	return m_bIsUse;

  00000	8a 01		 mov	 al, BYTE PTR [ecx]

; 604  : }

  00002	c3		 ret	 0
?IsUse@CSignalData@@QBE_NXZ ENDP			; CSignalData::IsUse
_TEXT	ENDS
; Function compile flags: /Ogtp
; File D:\git\src\IBK\IBK_DRFN\ProjSrc\SrcChartEx\ChartOCX\IndicatorCondition\GraphData.cpp
;	COMDAT ?SetShow@CSignalData@@QAEX_N@Z
_TEXT	SEGMENT
_bIsShow$ = 8						; size = 1
?SetShow@CSignalData@@QAEX_N@Z PROC			; CSignalData::SetShow, COMDAT
; _this$ = ecx

; 596  : {

  00000	55		 push	 ebp
  00001	8b ec		 mov	 ebp, esp

; 597  : 	m_bIsShow = bIsShow;

  00003	8a 45 08	 mov	 al, BYTE PTR _bIsShow$[ebp]
  00006	88 41 01	 mov	 BYTE PTR [ecx+1], al

; 598  : }

  00009	5d		 pop	 ebp
  0000a	c2 04 00	 ret	 4
?SetShow@CSignalData@@QAEX_N@Z ENDP			; CSignalData::SetShow
_TEXT	ENDS
; Function compile flags: /Ogtp
; File D:\git\src\IBK\IBK_DRFN\ProjSrc\SrcChartEx\ChartOCX\IndicatorCondition\GraphData.cpp
;	COMDAT ?SetUse@CSignalData@@QAEX_N@Z
_TEXT	SEGMENT
_bIsUse$ = 8						; size = 1
?SetUse@CSignalData@@QAEX_N@Z PROC			; CSignalData::SetUse, COMDAT
; _this$ = ecx

; 591  : {

  00000	55		 push	 ebp
  00001	8b ec		 mov	 ebp, esp

; 592  : 	m_bIsUse = bIsUse;

  00003	8a 45 08	 mov	 al, BYTE PTR _bIsUse$[ebp]
  00006	88 01		 mov	 BYTE PTR [ecx], al

; 593  : }

  00008	5d		 pop	 ebp
  00009	c2 04 00	 ret	 4
?SetUse@CSignalData@@QAEX_N@Z ENDP			; CSignalData::SetUse
_TEXT	ENDS
; Function compile flags: /Ogtp
; File D:\git\src\IBK\IBK_DRFN\ProjSrc\SrcChartEx\ChartOCX\IndicatorCondition\GraphData.cpp
;	COMDAT ??1CSignalData@@QAE@XZ
_TEXT	SEGMENT
??1CSignalData@@QAE@XZ PROC				; CSignalData::~CSignalData, COMDAT
; _this$ = ecx

; 578  : {

  00000	56		 push	 esi
  00001	8b f1		 mov	 esi, ecx

; 667  : 	if( m_pSignalCache)

  00003	8b 4e 04	 mov	 ecx, DWORD PTR [esi+4]
  00006	85 c9		 test	 ecx, ecx
  00008	74 0d		 je	 SHORT $LN4@CSignalDat

; 668  : 	{
; 669  : 		delete m_pSignalCache;

  0000a	8b 01		 mov	 eax, DWORD PTR [ecx]
  0000c	6a 01		 push	 1
  0000e	ff 10		 call	 DWORD PTR [eax]

; 670  : 		m_pSignalCache = NULL;

  00010	c7 46 04 00 00
	00 00		 mov	 DWORD PTR [esi+4], 0
$LN4@CSignalDat:
  00017	5e		 pop	 esi

; 579  : 	ClearCalcDataForDraw();
; 580  : }

  00018	c3		 ret	 0
??1CSignalData@@QAE@XZ ENDP				; CSignalData::~CSignalData
_TEXT	ENDS
; Function compile flags: /Ogtp
; File D:\git\src\IBK\IBK_DRFN\ProjSrc\SrcChartEx\ChartOCX\IndicatorCondition\GraphData.cpp
;	COMDAT ??0CSignalData@@QAE@ABV0@@Z
_TEXT	SEGMENT
_data$ = 8						; size = 4
??0CSignalData@@QAE@ABV0@@Z PROC			; CSignalData::CSignalData, COMDAT
; _this$ = ecx

; 571  : {

  00000	55		 push	 ebp
  00001	8b ec		 mov	 ebp, esp

; 569  : 	m_bIsUse(data.IsUse()),

  00003	8b 55 08	 mov	 edx, DWORD PTR _data$[ebp]
  00006	0f b6 02	 movzx	 eax, BYTE PTR [edx]
  00009	88 01		 mov	 BYTE PTR [ecx], al

; 570  : 	m_bIsShow(data.IsShow())

  0000b	0f b6 42 01	 movzx	 eax, BYTE PTR [edx+1]
  0000f	88 41 01	 mov	 BYTE PTR [ecx+1], al

; 572  : 	// (2009/10/7 - Seung-Won, Bae) for Signal Arrow Drawing Cache.
; 573  : 	m_pSignalCache = NULL;
; 574  : }

  00012	8b c1		 mov	 eax, ecx
  00014	c7 41 04 00 00
	00 00		 mov	 DWORD PTR [ecx+4], 0
  0001b	5d		 pop	 ebp
  0001c	c2 04 00	 ret	 4
??0CSignalData@@QAE@ABV0@@Z ENDP			; CSignalData::CSignalData
_TEXT	ENDS
; Function compile flags: /Ogtp
; File D:\git\src\IBK\IBK_DRFN\ProjSrc\SrcChartEx\ChartOCX\IndicatorCondition\GraphData.cpp
;	COMDAT ??0CSignalData@@QAE@PBD@Z
_TEXT	SEGMENT
_p_szSignalData$ = 8					; size = 4
??0CSignalData@@QAE@PBD@Z PROC				; CSignalData::CSignalData, COMDAT
; _this$ = ecx

; 561  : {

  00000	55		 push	 ebp
  00001	8b ec		 mov	 ebp, esp
  00003	56		 push	 esi

; 562  : 	SetData( p_szSignalData);

  00004	ff 75 08	 push	 DWORD PTR _p_szSignalData$[ebp]
  00007	8b f1		 mov	 esi, ecx
  00009	e8 00 00 00 00	 call	 ?SetData@CSignalData@@AAEXPBD@Z ; CSignalData::SetData

; 563  : 
; 564  : 	// (2009/10/7 - Seung-Won, Bae) for Signal Arrow Drawing Cache.
; 565  : 	m_pSignalCache = NULL;

  0000e	c7 46 04 00 00
	00 00		 mov	 DWORD PTR [esi+4], 0

; 566  : }

  00015	8b c6		 mov	 eax, esi
  00017	5e		 pop	 esi
  00018	5d		 pop	 ebp
  00019	c2 04 00	 ret	 4
??0CSignalData@@QAE@PBD@Z ENDP				; CSignalData::CSignalData
_TEXT	ENDS
; Function compile flags: /Ogtp
; File D:\git\src\IBK\IBK_DRFN\ProjSrc\SrcChartEx\ChartOCX\IndicatorCondition\GraphData.cpp
;	COMDAT ??0CSignalData@@QAE@_N0@Z
_TEXT	SEGMENT
_bIsUse$ = 8						; size = 1
_bIsShow$ = 12						; size = 1
??0CSignalData@@QAE@_N0@Z PROC				; CSignalData::CSignalData, COMDAT
; _this$ = ecx

; 555  : {

  00000	55		 push	 ebp
  00001	8b ec		 mov	 ebp, esp

; 553  : 	m_bIsUse(bIsUse),

  00003	8a 45 08	 mov	 al, BYTE PTR _bIsUse$[ebp]
  00006	88 01		 mov	 BYTE PTR [ecx], al

; 554  : 	m_bIsShow(bIsShow)

  00008	8a 45 0c	 mov	 al, BYTE PTR _bIsShow$[ebp]
  0000b	88 41 01	 mov	 BYTE PTR [ecx+1], al

; 556  : 	// (2009/10/7 - Seung-Won, Bae) for Signal Arrow Drawing Cache.
; 557  : 	m_pSignalCache = NULL;
; 558  : }

  0000e	8b c1		 mov	 eax, ecx
  00010	c7 41 04 00 00
	00 00		 mov	 DWORD PTR [ecx+4], 0
  00017	5d		 pop	 ebp
  00018	c2 08 00	 ret	 8
??0CSignalData@@QAE@_N0@Z ENDP				; CSignalData::CSignalData
_TEXT	ENDS
; Function compile flags: /Ogtp
; File D:\git\src\IBK\IBK_DRFN\ProjSrc\SrcChartEx\ChartOCX\IndicatorCondition\GraphData.cpp
;	COMDAT ??8CSignalData@@QAE_NABV0@@Z
_TEXT	SEGMENT
_data$ = 8						; size = 4
??8CSignalData@@QAE_NABV0@@Z PROC			; CSignalData::operator==, COMDAT
; _this$ = ecx

; 545  : {

  00000	55		 push	 ebp
  00001	8b ec		 mov	 ebp, esp

; 546  : 	if(this == &data)

  00003	8b 55 08	 mov	 edx, DWORD PTR _data$[ebp]
  00006	3b ca		 cmp	 ecx, edx
  00008	75 06		 jne	 SHORT $LN2@operator
$LN6@operator:

; 550  : }

  0000a	b0 01		 mov	 al, 1
  0000c	5d		 pop	 ebp
  0000d	c2 04 00	 ret	 4
$LN2@operator:

; 547  : 		return true;
; 548  : 
; 549  : 	return (m_bIsUse == data.IsUse() && m_bIsShow == data.IsShow());

  00010	8a 01		 mov	 al, BYTE PTR [ecx]
  00012	3a 02		 cmp	 al, BYTE PTR [edx]
  00014	75 08		 jne	 SHORT $LN4@operator
  00016	8a 41 01	 mov	 al, BYTE PTR [ecx+1]
  00019	3a 42 01	 cmp	 al, BYTE PTR [edx+1]
  0001c	74 ec		 je	 SHORT $LN6@operator
$LN4@operator:
  0001e	32 c0		 xor	 al, al

; 550  : }

  00020	5d		 pop	 ebp
  00021	c2 04 00	 ret	 4
??8CSignalData@@QAE_NABV0@@Z ENDP			; CSignalData::operator==
_TEXT	ENDS
; Function compile flags: /Ogtp
; File D:\git\src\IBK\IBK_DRFN\ProjSrc\SrcChartEx\ChartOCX\IndicatorCondition\GraphData.cpp
;	COMDAT ??4CSignalData@@QAEAAV0@ABV0@@Z
_TEXT	SEGMENT
_data$ = 8						; size = 4
??4CSignalData@@QAEAAV0@ABV0@@Z PROC			; CSignalData::operator=, COMDAT
; _this$ = ecx

; 535  : {

  00000	55		 push	 ebp
  00001	8b ec		 mov	 ebp, esp

; 536  : 	if(this == &data)

  00003	8b 55 08	 mov	 edx, DWORD PTR _data$[ebp]
  00006	3b ca		 cmp	 ecx, edx
  00008	74 0c		 je	 SHORT $LN4@operator

; 537  : 		return *this;
; 538  : 
; 539  : 	m_bIsUse = data.IsUse();

  0000a	0f b6 02	 movzx	 eax, BYTE PTR [edx]
  0000d	88 01		 mov	 BYTE PTR [ecx], al

; 540  : 	m_bIsShow = data.IsShow();

  0000f	0f b6 42 01	 movzx	 eax, BYTE PTR [edx+1]
  00013	88 41 01	 mov	 BYTE PTR [ecx+1], al
$LN4@operator:

; 541  : 	return *this;
; 542  : }

  00016	8b c1		 mov	 eax, ecx
  00018	5d		 pop	 ebp
  00019	c2 04 00	 ret	 4
??4CSignalData@@QAEAAV0@ABV0@@Z ENDP			; CSignalData::operator=
_TEXT	ENDS
; Function compile flags: /Ogtp
; File D:\git\src\IBK\IBK_DRFN\ProjSrc\SrcChartEx\ChartOCX\IndicatorCondition\GraphData.cpp
;	COMDAT ?ClearData@CGraphDataDrawingData@@QAEXXZ
_TEXT	SEGMENT
?ClearData@CGraphDataDrawingData@@QAEXXZ PROC		; CGraphDataDrawingData::ClearData, COMDAT
; _this$ = ecx

; 369  : 	m_bCalcRiseFallRate_LowHigh	= false;

  00000	c7 01 00 00 00
	00		 mov	 DWORD PTR [ecx], 0

; 370  : 	m_bCalcRiseFallRate_LowCur	= false;
; 371  : 	m_bCalcRiseFallRate_HighCur	= false;
; 372  : 	m_bCalcRate_PrevCur			= false;
; 373  : 	m_nCalcRiseFallRate_CurData	= 0;

  00006	c7 41 04 00 00
	00 00		 mov	 DWORD PTR [ecx+4], 0

; 374  : 	// (2009/9/12 - Seung-Won, Bae) for OHLC graph data
; 375  : 	m_bShowOHLC					= FALSE;

  0000d	c7 41 08 00 00
	00 00		 mov	 DWORD PTR [ecx+8], 0

; 376  : }

  00014	c3		 ret	 0
?ClearData@CGraphDataDrawingData@@QAEXXZ ENDP		; CGraphDataDrawingData::ClearData
_TEXT	ENDS
; Function compile flags: /Ogtp
; File D:\git\src\IBK\IBK_DRFN\ProjSrc\SrcChartEx\ChartOCX\IndicatorCondition\GraphData.cpp
; File C:\Program Files (x86)\Windows Kits\10\Include\10.0.22000.0\ucrt\string.h
; File D:\git\src\IBK\IBK_DRFN\ProjSrc\SrcChartEx\ChartOCX\IndicatorCondition\GraphData.cpp
; File C:\Program Files (x86)\Windows Kits\10\Include\10.0.22000.0\ucrt\string.h
; File D:\git\src\IBK\IBK_DRFN\ProjSrc\SrcChartEx\ChartOCX\IndicatorCondition\GraphData.cpp
; File C:\Program Files (x86)\Windows Kits\10\Include\10.0.22000.0\ucrt\string.h
; File D:\git\src\IBK\IBK_DRFN\ProjSrc\SrcChartEx\ChartOCX\IndicatorCondition\GraphData.cpp
; File C:\Program Files (x86)\Windows Kits\10\Include\10.0.22000.0\ucrt\string.h
; File D:\git\src\IBK\IBK_DRFN\ProjSrc\SrcChartEx\ChartOCX\IndicatorCondition\GraphData.cpp
; File C:\Program Files (x86)\Windows Kits\10\Include\10.0.22000.0\ucrt\string.h
; File D:\git\src\IBK\IBK_DRFN\ProjSrc\SrcChartEx\ChartOCX\IndicatorCondition\GraphData.cpp
; File C:\Program Files (x86)\Windows Kits\10\Include\10.0.22000.0\ucrt\string.h
; File D:\git\src\IBK\IBK_DRFN\ProjSrc\SrcChartEx\ChartOCX\IndicatorCondition\GraphData.cpp
; File C:\Program Files (x86)\Windows Kits\10\Include\10.0.22000.0\ucrt\string.h
; File D:\git\src\IBK\IBK_DRFN\ProjSrc\SrcChartEx\ChartOCX\IndicatorCondition\GraphData.cpp
; File C:\Program Files (x86)\Windows Kits\10\Include\10.0.22000.0\ucrt\string.h
; File D:\git\src\IBK\IBK_DRFN\ProjSrc\SrcChartEx\ChartOCX\IndicatorCondition\GraphData.cpp
; File C:\Program Files (x86)\Windows Kits\10\Include\10.0.22000.0\ucrt\string.h
; File D:\git\src\IBK\IBK_DRFN\ProjSrc\SrcChartEx\ChartOCX\IndicatorCondition\GraphData.cpp
; File C:\Program Files (x86)\Windows Kits\10\Include\10.0.22000.0\ucrt\string.h
; File D:\git\src\IBK\IBK_DRFN\ProjSrc\SrcChartEx\ChartOCX\IndicatorCondition\GraphData.cpp
; File C:\Program Files (x86)\Windows Kits\10\Include\10.0.22000.0\ucrt\string.h
; File D:\git\src\IBK\IBK_DRFN\ProjSrc\SrcChartEx\ChartOCX\IndicatorCondition\GraphData.cpp
;	COMDAT ?SetData@CGraphDataDrawingData@@AAEXPBD@Z
_TEXT	SEGMENT
_this$1$ = -16						; size = 4
__$EHRec$ = -12						; size = 12
_strGraphDataDrawingData$ = 8				; size = 4
_p_szGraphDataDrawingData$ = 8				; size = 4
?SetData@CGraphDataDrawingData@@AAEXPBD@Z PROC		; CGraphDataDrawingData::SetData, COMDAT
; _this$ = ecx

; 473  : {

  00000	55		 push	 ebp
  00001	8b ec		 mov	 ebp, esp
  00003	6a ff		 push	 -1
  00005	68 00 00 00 00	 push	 __ehhandler$?SetData@CGraphDataDrawingData@@AAEXPBD@Z
  0000a	64 a1 00 00 00
	00		 mov	 eax, DWORD PTR fs:0
  00010	50		 push	 eax
  00011	51		 push	 ecx
  00012	53		 push	 ebx
  00013	56		 push	 esi
  00014	57		 push	 edi
  00015	a1 00 00 00 00	 mov	 eax, DWORD PTR ___security_cookie
  0001a	33 c5		 xor	 eax, ebp
  0001c	50		 push	 eax
  0001d	8d 45 f4	 lea	 eax, DWORD PTR __$EHRec$[ebp]
  00020	64 a3 00 00 00
	00		 mov	 DWORD PTR fs:0, eax
  00026	89 4d f0	 mov	 DWORD PTR _this$1$[ebp], ecx

; 474  : 	if( !p_szGraphDataDrawingData) return;

  00029	8b 75 08	 mov	 esi, DWORD PTR _p_szGraphDataDrawingData$[ebp]
  0002c	85 f6		 test	 esi, esi
  0002e	0f 84 79 01 00
	00		 je	 $LN1@SetData

; 475  : 	if( !*p_szGraphDataDrawingData) return;

  00034	80 3e 00	 cmp	 BYTE PTR [esi], 0
  00037	0f 84 70 01 00
	00		 je	 $LN1@SetData

; 476  : 
; 477  : 	CString strGraphDataDrawingData;

  0003d	8d 4d 08	 lea	 ecx, DWORD PTR _strGraphDataDrawingData$[ebp]
  00040	ff 15 00 00 00
	00		 call	 DWORD PTR __imp_??0?$CStringT@DV?$StrTraitMFC_DLL@DV?$ChTraitsCRT@D@ATL@@@@@ATL@@QAE@XZ

; 478  : 	int nGraphDataDrawingDataLen = strlen( p_szGraphDataDrawingData);

  00046	8b fe		 mov	 edi, esi
  00048	c7 45 fc 00 00
	00 00		 mov	 DWORD PTR __$EHRec$[ebp+8], 0
  0004f	8d 4f 01	 lea	 ecx, DWORD PTR [edi+1]
$LL53@SetData:
  00052	8a 07		 mov	 al, BYTE PTR [edi]
  00054	47		 inc	 edi
  00055	84 c0		 test	 al, al
  00057	75 f9		 jne	 SHORT $LL53@SetData
  00059	2b f9		 sub	 edi, ecx

; 479  : 	char *szGraphDataDrawingData = strGraphDataDrawingData.GetBufferSetLength( nGraphDataDrawingDataLen + 1);

  0005b	8d 4d 08	 lea	 ecx, DWORD PTR _strGraphDataDrawingData$[ebp]
  0005e	8d 47 01	 lea	 eax, DWORD PTR [edi+1]
  00061	50		 push	 eax
  00062	ff 15 00 00 00
	00		 call	 DWORD PTR __imp_?GetBufferSetLength@?$CSimpleStringT@D$00@ATL@@QAEPADH@Z
  00068	8b d8		 mov	 ebx, eax
  0006a	8b d3		 mov	 edx, ebx
  0006c	2b d6		 sub	 edx, esi
  0006e	66 90		 npad	 2
$LL24@SetData:

; 480  : 	strcpy( szGraphDataDrawingData, p_szGraphDataDrawingData);

  00070	8a 0e		 mov	 cl, BYTE PTR [esi]
  00072	8d 76 01	 lea	 esi, DWORD PTR [esi+1]
  00075	88 4c 32 ff	 mov	 BYTE PTR [edx+esi-1], cl
  00079	84 c9		 test	 cl, cl
  0007b	75 f3		 jne	 SHORT $LL24@SetData

; 481  : 	if( szGraphDataDrawingData[ nGraphDataDrawingDataLen - 1] != ';')

  0007d	80 7c 3b ff 3b	 cmp	 BYTE PTR [ebx+edi-1], 59 ; 0000003bH
  00082	74 06		 je	 SHORT $LN4@SetData

; 482  : 	{
; 483  : 		szGraphDataDrawingData[ nGraphDataDrawingDataLen] = ';';

  00084	66 c7 04 3b 3b
	00		 mov	 WORD PTR [ebx+edi], 59	; 0000003bH
$LN4@SetData:
; File C:\Program Files (x86)\Windows Kits\10\Include\10.0.22000.0\ucrt\string.h

; 502  :         return const_cast<char*>(strchr(static_cast<char const*>(_String), _Ch));

  0008a	6a 3b		 push	 59			; 0000003bH
  0008c	53		 push	 ebx
  0008d	e8 00 00 00 00	 call	 _strchr
; File D:\git\src\IBK\IBK_DRFN\ProjSrc\SrcChartEx\ChartOCX\IndicatorCondition\GraphData.cpp

; 488  : 	szGraphDataDrawingData = strchr( szGraphDataDrawingData, ';');

  00092	8b f0		 mov	 esi, eax
; File C:\Program Files (x86)\Windows Kits\10\Include\10.0.22000.0\ucrt\string.h

; 502  :         return const_cast<char*>(strchr(static_cast<char const*>(_String), _Ch));

  00094	83 c4 08	 add	 esp, 8
; File D:\git\src\IBK\IBK_DRFN\ProjSrc\SrcChartEx\ChartOCX\IndicatorCondition\GraphData.cpp

; 489  : 	if( szGraphDataDrawingData) *szGraphDataDrawingData++ = '\0';

  00097	85 f6		 test	 esi, esi
  00099	74 04		 je	 SHORT $LN5@SetData
  0009b	c6 06 00	 mov	 BYTE PTR [esi], 0
  0009e	46		 inc	 esi
$LN5@SetData:

; 490  : 	m_bCalcRiseFallRate_LowHigh = ( atoi( szItem) != 0);

  0009f	53		 push	 ebx
  000a0	8b 1d 00 00 00
	00		 mov	 ebx, DWORD PTR __imp__atoi
  000a6	ff d3		 call	 ebx
  000a8	8b 4d f0	 mov	 ecx, DWORD PTR _this$1$[ebp]
  000ab	83 c4 04	 add	 esp, 4
  000ae	85 c0		 test	 eax, eax
  000b0	0f 95 c0	 setne	 al
  000b3	88 01		 mov	 BYTE PTR [ecx], al

; 491  : 	if( !szGraphDataDrawingData) return;

  000b5	85 f6		 test	 esi, esi
  000b7	0f 84 e7 00 00
	00		 je	 $LN35@SetData

; 492  : 	if( !*szGraphDataDrawingData) return;

  000bd	80 3e 00	 cmp	 BYTE PTR [esi], 0
  000c0	0f 84 de 00 00
	00		 je	 $LN35@SetData
; File C:\Program Files (x86)\Windows Kits\10\Include\10.0.22000.0\ucrt\string.h

; 502  :         return const_cast<char*>(strchr(static_cast<char const*>(_String), _Ch));

  000c6	6a 3b		 push	 59			; 0000003bH
  000c8	56		 push	 esi
  000c9	e8 00 00 00 00	 call	 _strchr
; File D:\git\src\IBK\IBK_DRFN\ProjSrc\SrcChartEx\ChartOCX\IndicatorCondition\GraphData.cpp

; 495  : 	szGraphDataDrawingData = strchr( szGraphDataDrawingData, ';');

  000ce	8b f8		 mov	 edi, eax
; File C:\Program Files (x86)\Windows Kits\10\Include\10.0.22000.0\ucrt\string.h

; 502  :         return const_cast<char*>(strchr(static_cast<char const*>(_String), _Ch));

  000d0	83 c4 08	 add	 esp, 8
; File D:\git\src\IBK\IBK_DRFN\ProjSrc\SrcChartEx\ChartOCX\IndicatorCondition\GraphData.cpp

; 496  : 	if( szGraphDataDrawingData) *szGraphDataDrawingData++ = '\0';

  000d3	85 ff		 test	 edi, edi
  000d5	74 04		 je	 SHORT $LN8@SetData
  000d7	c6 07 00	 mov	 BYTE PTR [edi], 0
  000da	47		 inc	 edi
$LN8@SetData:

; 497  : 	m_bCalcRiseFallRate_LowCur = ( atoi( szItem) != 0);

  000db	56		 push	 esi
  000dc	ff d3		 call	 ebx
  000de	8b 4d f0	 mov	 ecx, DWORD PTR _this$1$[ebp]
  000e1	83 c4 04	 add	 esp, 4
  000e4	85 c0		 test	 eax, eax
  000e6	0f 95 c0	 setne	 al
  000e9	88 41 01	 mov	 BYTE PTR [ecx+1], al

; 498  : 	if( !szGraphDataDrawingData) return;

  000ec	85 ff		 test	 edi, edi
  000ee	0f 84 b0 00 00
	00		 je	 $LN35@SetData

; 499  : 	if( !*szGraphDataDrawingData) return;

  000f4	80 3f 00	 cmp	 BYTE PTR [edi], 0
  000f7	0f 84 a7 00 00
	00		 je	 $LN35@SetData
; File C:\Program Files (x86)\Windows Kits\10\Include\10.0.22000.0\ucrt\string.h

; 502  :         return const_cast<char*>(strchr(static_cast<char const*>(_String), _Ch));

  000fd	6a 3b		 push	 59			; 0000003bH
  000ff	57		 push	 edi
  00100	e8 00 00 00 00	 call	 _strchr
; File D:\git\src\IBK\IBK_DRFN\ProjSrc\SrcChartEx\ChartOCX\IndicatorCondition\GraphData.cpp

; 502  : 	szGraphDataDrawingData = strchr( szGraphDataDrawingData, ';');

  00105	8b f0		 mov	 esi, eax
; File C:\Program Files (x86)\Windows Kits\10\Include\10.0.22000.0\ucrt\string.h

; 502  :         return const_cast<char*>(strchr(static_cast<char const*>(_String), _Ch));

  00107	83 c4 08	 add	 esp, 8
; File D:\git\src\IBK\IBK_DRFN\ProjSrc\SrcChartEx\ChartOCX\IndicatorCondition\GraphData.cpp

; 503  : 	if( szGraphDataDrawingData) *szGraphDataDrawingData++ = '\0';

  0010a	85 f6		 test	 esi, esi
  0010c	74 04		 je	 SHORT $LN11@SetData
  0010e	c6 06 00	 mov	 BYTE PTR [esi], 0
  00111	46		 inc	 esi
$LN11@SetData:

; 504  : 	m_bCalcRiseFallRate_HighCur = ( atoi( szItem) != 0);

  00112	57		 push	 edi
  00113	ff d3		 call	 ebx
  00115	8b 4d f0	 mov	 ecx, DWORD PTR _this$1$[ebp]
  00118	83 c4 04	 add	 esp, 4
  0011b	85 c0		 test	 eax, eax
  0011d	0f 95 c0	 setne	 al
  00120	88 41 02	 mov	 BYTE PTR [ecx+2], al

; 505  : 	if( !szGraphDataDrawingData) return;

  00123	85 f6		 test	 esi, esi
  00125	0f 84 79 00 00
	00		 je	 $LN35@SetData

; 506  : 	if( !*szGraphDataDrawingData) return;

  0012b	80 3e 00	 cmp	 BYTE PTR [esi], 0
  0012e	74 74		 je	 SHORT $LN35@SetData
; File C:\Program Files (x86)\Windows Kits\10\Include\10.0.22000.0\ucrt\string.h

; 502  :         return const_cast<char*>(strchr(static_cast<char const*>(_String), _Ch));

  00130	6a 3b		 push	 59			; 0000003bH
  00132	56		 push	 esi
  00133	e8 00 00 00 00	 call	 _strchr
; File D:\git\src\IBK\IBK_DRFN\ProjSrc\SrcChartEx\ChartOCX\IndicatorCondition\GraphData.cpp

; 509  : 	szGraphDataDrawingData = strchr( szGraphDataDrawingData, ';');

  00138	8b f8		 mov	 edi, eax
; File C:\Program Files (x86)\Windows Kits\10\Include\10.0.22000.0\ucrt\string.h

; 502  :         return const_cast<char*>(strchr(static_cast<char const*>(_String), _Ch));

  0013a	83 c4 08	 add	 esp, 8
; File D:\git\src\IBK\IBK_DRFN\ProjSrc\SrcChartEx\ChartOCX\IndicatorCondition\GraphData.cpp

; 510  : 	if( szGraphDataDrawingData) *szGraphDataDrawingData++ = '\0';

  0013d	85 ff		 test	 edi, edi
  0013f	74 04		 je	 SHORT $LN14@SetData
  00141	c6 07 00	 mov	 BYTE PTR [edi], 0
  00144	47		 inc	 edi
$LN14@SetData:

; 511  : 	m_bCalcRate_PrevCur = ( atoi( szItem) != 0);

  00145	56		 push	 esi
  00146	ff d3		 call	 ebx
  00148	8b 4d f0	 mov	 ecx, DWORD PTR _this$1$[ebp]
  0014b	83 c4 04	 add	 esp, 4
  0014e	85 c0		 test	 eax, eax
  00150	0f 95 c0	 setne	 al
  00153	88 41 03	 mov	 BYTE PTR [ecx+3], al

; 512  : 	if( !szGraphDataDrawingData) return;

  00156	85 ff		 test	 edi, edi
  00158	74 4a		 je	 SHORT $LN35@SetData

; 513  : 	if( !*szGraphDataDrawingData) return;

  0015a	80 3f 00	 cmp	 BYTE PTR [edi], 0
  0015d	74 45		 je	 SHORT $LN35@SetData
; File C:\Program Files (x86)\Windows Kits\10\Include\10.0.22000.0\ucrt\string.h

; 502  :         return const_cast<char*>(strchr(static_cast<char const*>(_String), _Ch));

  0015f	6a 3b		 push	 59			; 0000003bH
  00161	57		 push	 edi
  00162	e8 00 00 00 00	 call	 _strchr
; File D:\git\src\IBK\IBK_DRFN\ProjSrc\SrcChartEx\ChartOCX\IndicatorCondition\GraphData.cpp

; 516  : 	szGraphDataDrawingData = strchr( szGraphDataDrawingData, ';');

  00167	8b f0		 mov	 esi, eax
; File C:\Program Files (x86)\Windows Kits\10\Include\10.0.22000.0\ucrt\string.h

; 502  :         return const_cast<char*>(strchr(static_cast<char const*>(_String), _Ch));

  00169	83 c4 08	 add	 esp, 8
; File D:\git\src\IBK\IBK_DRFN\ProjSrc\SrcChartEx\ChartOCX\IndicatorCondition\GraphData.cpp

; 517  : 	if( szGraphDataDrawingData) *szGraphDataDrawingData++ = '\0';

  0016c	85 f6		 test	 esi, esi
  0016e	74 04		 je	 SHORT $LN17@SetData
  00170	c6 06 00	 mov	 BYTE PTR [esi], 0
  00173	46		 inc	 esi
$LN17@SetData:

; 518  : 	m_nCalcRiseFallRate_CurData = atoi( szItem);

  00174	57		 push	 edi
  00175	ff d3		 call	 ebx
  00177	8b 7d f0	 mov	 edi, DWORD PTR _this$1$[ebp]
  0017a	83 c4 04	 add	 esp, 4
  0017d	89 47 04	 mov	 DWORD PTR [edi+4], eax

; 519  : 	if( !szGraphDataDrawingData) return;

  00180	85 f6		 test	 esi, esi
  00182	74 20		 je	 SHORT $LN35@SetData

; 520  : 	if( !*szGraphDataDrawingData) return;

  00184	80 3e 00	 cmp	 BYTE PTR [esi], 0
  00187	74 1b		 je	 SHORT $LN35@SetData
; File C:\Program Files (x86)\Windows Kits\10\Include\10.0.22000.0\ucrt\string.h

; 502  :         return const_cast<char*>(strchr(static_cast<char const*>(_String), _Ch));

  00189	6a 3b		 push	 59			; 0000003bH
  0018b	56		 push	 esi
  0018c	e8 00 00 00 00	 call	 _strchr
  00191	83 c4 08	 add	 esp, 8
; File D:\git\src\IBK\IBK_DRFN\ProjSrc\SrcChartEx\ChartOCX\IndicatorCondition\GraphData.cpp

; 525  : 	if( szGraphDataDrawingData) *szGraphDataDrawingData++ = '\0';

  00194	85 c0		 test	 eax, eax
  00196	74 03		 je	 SHORT $LN20@SetData
  00198	c6 00 00	 mov	 BYTE PTR [eax], 0
$LN20@SetData:

; 526  : 	m_bShowOHLC = atoi( szItem);

  0019b	56		 push	 esi
  0019c	ff d3		 call	 ebx
  0019e	83 c4 04	 add	 esp, 4
  001a1	89 47 08	 mov	 DWORD PTR [edi+8], eax
$LN35@SetData:

; 527  : 	if( !szGraphDataDrawingData) return;
; 528  : 	if( !*szGraphDataDrawingData) return;
; 529  : }

  001a4	8d 4d 08	 lea	 ecx, DWORD PTR _strGraphDataDrawingData$[ebp]
  001a7	ff 15 00 00 00
	00		 call	 DWORD PTR __imp_??1?$CStringT@DV?$StrTraitMFC_DLL@DV?$ChTraitsCRT@D@ATL@@@@@ATL@@QAE@XZ
$LN1@SetData:
  001ad	8b 4d f4	 mov	 ecx, DWORD PTR __$EHRec$[ebp]
  001b0	64 89 0d 00 00
	00 00		 mov	 DWORD PTR fs:0, ecx
  001b7	59		 pop	 ecx
  001b8	5f		 pop	 edi
  001b9	5e		 pop	 esi
  001ba	5b		 pop	 ebx
  001bb	8b e5		 mov	 esp, ebp
  001bd	5d		 pop	 ebp
  001be	c2 04 00	 ret	 4
_TEXT	ENDS
;	COMDAT text$x
text$x	SEGMENT
__unwindfunclet$?SetData@CGraphDataDrawingData@@AAEXPBD@Z$0:
  00000	8d 4d 08	 lea	 ecx, DWORD PTR _strGraphDataDrawingData$[ebp]
  00003	ff 25 00 00 00
	00		 jmp	 DWORD PTR __imp_??1?$CStringT@DV?$StrTraitMFC_DLL@DV?$ChTraitsCRT@D@ATL@@@@@ATL@@QAE@XZ
  00009	cc		 int	 3
  0000a	cc		 int	 3
  0000b	cc		 int	 3
  0000c	cc		 int	 3
  0000d	cc		 int	 3
__ehhandler$?SetData@CGraphDataDrawingData@@AAEXPBD@Z:
  0000e	90		 npad	 1
  0000f	90		 npad	 1
  00010	8b 54 24 08	 mov	 edx, DWORD PTR [esp+8]
  00014	8d 42 0c	 lea	 eax, DWORD PTR [edx+12]
  00017	8b 4a ec	 mov	 ecx, DWORD PTR [edx-20]
  0001a	33 c8		 xor	 ecx, eax
  0001c	e8 00 00 00 00	 call	 @__security_check_cookie@4
  00021	b8 00 00 00 00	 mov	 eax, OFFSET __ehfuncinfo$?SetData@CGraphDataDrawingData@@AAEXPBD@Z
  00026	e9 00 00 00 00	 jmp	 ___CxxFrameHandler3
text$x	ENDS
?SetData@CGraphDataDrawingData@@AAEXPBD@Z ENDP		; CGraphDataDrawingData::SetData
; Function compile flags: /Ogtp
; File D:\git\src\IBK\IBK_DRFN\ProjSrc\SrcChartEx\ChartOCX\IndicatorCondition\GraphData.cpp
;	COMDAT ?GetData@CGraphDataDrawingData@@QBEXAAV?$CStringT@DV?$StrTraitMFC_DLL@DV?$ChTraitsCRT@D@ATL@@@@@ATL@@@Z
_TEXT	SEGMENT
_p_strGraphDataDrawingData$ = 8				; size = 4
?GetData@CGraphDataDrawingData@@QBEXAAV?$CStringT@DV?$StrTraitMFC_DLL@DV?$ChTraitsCRT@D@ATL@@@@@ATL@@@Z PROC ; CGraphDataDrawingData::GetData, COMDAT
; _this$ = ecx

; 453  : {

  00000	55		 push	 ebp
  00001	8b ec		 mov	 ebp, esp
  00003	56		 push	 esi
  00004	57		 push	 edi
  00005	8b f9		 mov	 edi, ecx

; 454  : 	char *szGraphDataDrawingData = p_strGraphDataDrawingData.GetBufferSetLength( 12);	// Do not set 13, It has default NULL Terminator.

  00007	8b 4d 08	 mov	 ecx, DWORD PTR _p_strGraphDataDrawingData$[ebp]
  0000a	6a 0c		 push	 12			; 0000000cH
  0000c	ff 15 00 00 00
	00		 call	 DWORD PTR __imp_?GetBufferSetLength@?$CSimpleStringT@D$00@ATL@@QAEPADH@Z

; 455  : 	szGraphDataDrawingData[  0] = ( m_bCalcRiseFallRate_LowHigh			? '1' : '0');

  00012	80 3f 00	 cmp	 BYTE PTR [edi], 0
  00015	8b f0		 mov	 esi, eax
  00017	0f 95 c2	 setne	 dl
  0001a	80 c2 30	 add	 dl, 48			; 00000030H
  0001d	88 16		 mov	 BYTE PTR [esi], dl

; 456  : 	szGraphDataDrawingData[  1] = ';';

  0001f	c6 46 01 3b	 mov	 BYTE PTR [esi+1], 59	; 0000003bH

; 457  : 	szGraphDataDrawingData[  2] = ( m_bCalcRiseFallRate_LowCur			? '1' : '0');

  00023	80 7f 01 00	 cmp	 BYTE PTR [edi+1], 0

; 458  : 	szGraphDataDrawingData[  3] = ';';

  00027	c6 46 03 3b	 mov	 BYTE PTR [esi+3], 59	; 0000003bH
  0002b	0f 95 c1	 setne	 cl
  0002e	80 c1 30	 add	 cl, 48			; 00000030H
  00031	88 4e 02	 mov	 BYTE PTR [esi+2], cl

; 459  : 	szGraphDataDrawingData[  4] = ( m_bCalcRiseFallRate_HighCur			? '1' : '0');

  00034	80 7f 02 00	 cmp	 BYTE PTR [edi+2], 0

; 460  : 	szGraphDataDrawingData[  5] = ';';

  00038	c6 46 05 3b	 mov	 BYTE PTR [esi+5], 59	; 0000003bH
  0003c	0f 95 c0	 setne	 al
  0003f	04 30		 add	 al, 48			; 00000030H
  00041	88 46 04	 mov	 BYTE PTR [esi+4], al

; 461  : 	szGraphDataDrawingData[  6] = ( m_bCalcRate_PrevCur					? '1' : '0');

  00044	80 7f 03 00	 cmp	 BYTE PTR [edi+3], 0

; 462  : 	szGraphDataDrawingData[  7] = ';';

  00048	c6 46 07 3b	 mov	 BYTE PTR [esi+7], 59	; 0000003bH
  0004c	0f 95 c0	 setne	 al
  0004f	04 30		 add	 al, 48			; 00000030H
  00051	88 46 06	 mov	 BYTE PTR [esi+6], al

; 463  : 	szGraphDataDrawingData[  8] = '0' + m_nCalcRiseFallRate_CurData;

  00054	0f b6 47 04	 movzx	 eax, BYTE PTR [edi+4]
  00058	04 30		 add	 al, 48			; 00000030H

; 464  : 	szGraphDataDrawingData[  9] = ';';

  0005a	c6 46 09 3b	 mov	 BYTE PTR [esi+9], 59	; 0000003bH
  0005e	88 46 08	 mov	 BYTE PTR [esi+8], al

; 465  : 	szGraphDataDrawingData[ 10] = '0' + m_bShowOHLC;	// (2009/9/12 - Seung-Won, Bae) for OHLC graph data

  00061	0f b6 47 08	 movzx	 eax, BYTE PTR [edi+8]
  00065	04 30		 add	 al, 48			; 00000030H

; 466  : 	szGraphDataDrawingData[ 11] = ';';

  00067	66 c7 46 0b 3b
	00		 mov	 WORD PTR [esi+11], 59	; 0000003bH

; 467  : 	szGraphDataDrawingData[ 12] = '\0';

  0006d	5f		 pop	 edi
  0006e	88 46 0a	 mov	 BYTE PTR [esi+10], al
  00071	5e		 pop	 esi

; 468  : }

  00072	5d		 pop	 ebp
  00073	c2 04 00	 ret	 4
?GetData@CGraphDataDrawingData@@QBEXAAV?$CStringT@DV?$StrTraitMFC_DLL@DV?$ChTraitsCRT@D@ATL@@@@@ATL@@@Z ENDP ; CGraphDataDrawingData::GetData
_TEXT	ENDS
; Function compile flags: /Ogtp
; File D:\git\src\IBK\IBK_DRFN\ProjSrc\SrcChartEx\ChartOCX\IndicatorCondition\GraphData.cpp
;	COMDAT ?GetShowOHLC@CGraphDataDrawingData@@QBEHXZ
_TEXT	SEGMENT
?GetShowOHLC@CGraphDataDrawingData@@QBEHXZ PROC		; CGraphDataDrawingData::GetShowOHLC, COMDAT
; _this$ = ecx

; 448  : 	return m_bShowOHLC;

  00000	8b 41 08	 mov	 eax, DWORD PTR [ecx+8]

; 449  : }

  00003	c3		 ret	 0
?GetShowOHLC@CGraphDataDrawingData@@QBEHXZ ENDP		; CGraphDataDrawingData::GetShowOHLC
_TEXT	ENDS
; Function compile flags: /Ogtp
; File D:\git\src\IBK\IBK_DRFN\ProjSrc\SrcChartEx\ChartOCX\IndicatorCondition\GraphData.cpp
;	COMDAT ?GetCalcRiseFallRate_CurData@CGraphDataDrawingData@@QBEHXZ
_TEXT	SEGMENT
?GetCalcRiseFallRate_CurData@CGraphDataDrawingData@@QBEHXZ PROC ; CGraphDataDrawingData::GetCalcRiseFallRate_CurData, COMDAT
; _this$ = ecx

; 442  : 	return m_nCalcRiseFallRate_CurData;

  00000	8b 41 04	 mov	 eax, DWORD PTR [ecx+4]

; 443  : }

  00003	c3		 ret	 0
?GetCalcRiseFallRate_CurData@CGraphDataDrawingData@@QBEHXZ ENDP ; CGraphDataDrawingData::GetCalcRiseFallRate_CurData
_TEXT	ENDS
; Function compile flags: /Ogtp
; File D:\git\src\IBK\IBK_DRFN\ProjSrc\SrcChartEx\ChartOCX\IndicatorCondition\GraphData.cpp
;	COMDAT ?DoesCalcRate_PrevCur@CGraphDataDrawingData@@QBE_NXZ
_TEXT	SEGMENT
?DoesCalcRate_PrevCur@CGraphDataDrawingData@@QBE_NXZ PROC ; CGraphDataDrawingData::DoesCalcRate_PrevCur, COMDAT
; _this$ = ecx

; 437  : 	return m_bCalcRate_PrevCur;

  00000	8a 41 03	 mov	 al, BYTE PTR [ecx+3]

; 438  : }

  00003	c3		 ret	 0
?DoesCalcRate_PrevCur@CGraphDataDrawingData@@QBE_NXZ ENDP ; CGraphDataDrawingData::DoesCalcRate_PrevCur
_TEXT	ENDS
; Function compile flags: /Ogtp
; File D:\git\src\IBK\IBK_DRFN\ProjSrc\SrcChartEx\ChartOCX\IndicatorCondition\GraphData.cpp
;	COMDAT ?DoesCalcRiseFallRate_HighCur@CGraphDataDrawingData@@QBE_NXZ
_TEXT	SEGMENT
?DoesCalcRiseFallRate_HighCur@CGraphDataDrawingData@@QBE_NXZ PROC ; CGraphDataDrawingData::DoesCalcRiseFallRate_HighCur, COMDAT
; _this$ = ecx

; 432  : 	return m_bCalcRiseFallRate_HighCur;

  00000	8a 41 02	 mov	 al, BYTE PTR [ecx+2]

; 433  : }

  00003	c3		 ret	 0
?DoesCalcRiseFallRate_HighCur@CGraphDataDrawingData@@QBE_NXZ ENDP ; CGraphDataDrawingData::DoesCalcRiseFallRate_HighCur
_TEXT	ENDS
; Function compile flags: /Ogtp
; File D:\git\src\IBK\IBK_DRFN\ProjSrc\SrcChartEx\ChartOCX\IndicatorCondition\GraphData.cpp
;	COMDAT ?DoesCalcRiseFallRate_LowCur@CGraphDataDrawingData@@QBE_NXZ
_TEXT	SEGMENT
?DoesCalcRiseFallRate_LowCur@CGraphDataDrawingData@@QBE_NXZ PROC ; CGraphDataDrawingData::DoesCalcRiseFallRate_LowCur, COMDAT
; _this$ = ecx

; 427  : 	return m_bCalcRiseFallRate_LowCur;

  00000	8a 41 01	 mov	 al, BYTE PTR [ecx+1]

; 428  : }

  00003	c3		 ret	 0
?DoesCalcRiseFallRate_LowCur@CGraphDataDrawingData@@QBE_NXZ ENDP ; CGraphDataDrawingData::DoesCalcRiseFallRate_LowCur
_TEXT	ENDS
; Function compile flags: /Ogtp
; File D:\git\src\IBK\IBK_DRFN\ProjSrc\SrcChartEx\ChartOCX\IndicatorCondition\GraphData.cpp
;	COMDAT ?DoesCalcRiseFallRate_LowHigh@CGraphDataDrawingData@@QBE_NXZ
_TEXT	SEGMENT
?DoesCalcRiseFallRate_LowHigh@CGraphDataDrawingData@@QBE_NXZ PROC ; CGraphDataDrawingData::DoesCalcRiseFallRate_LowHigh, COMDAT
; _this$ = ecx

; 422  : 	return m_bCalcRiseFallRate_LowHigh;

  00000	8a 01		 mov	 al, BYTE PTR [ecx]

; 423  : }

  00002	c3		 ret	 0
?DoesCalcRiseFallRate_LowHigh@CGraphDataDrawingData@@QBE_NXZ ENDP ; CGraphDataDrawingData::DoesCalcRiseFallRate_LowHigh
_TEXT	ENDS
; Function compile flags: /Ogtp
; File D:\git\src\IBK\IBK_DRFN\ProjSrc\SrcChartEx\ChartOCX\IndicatorCondition\GraphData.cpp
;	COMDAT ?DoesAllDefaultData@CGraphDataDrawingData@@QBE_NXZ
_TEXT	SEGMENT
?DoesAllDefaultData@CGraphDataDrawingData@@QBE_NXZ PROC	; CGraphDataDrawingData::DoesAllDefaultData, COMDAT
; _this$ = ecx

; 413  : 	return (m_bCalcRiseFallRate_LowHigh == false && 

  00000	80 39 00	 cmp	 BYTE PTR [ecx], 0
  00003	75 1b		 jne	 SHORT $LN3@DoesAllDef
  00005	80 79 01 00	 cmp	 BYTE PTR [ecx+1], 0
  00009	75 15		 jne	 SHORT $LN3@DoesAllDef
  0000b	80 79 02 00	 cmp	 BYTE PTR [ecx+2], 0
  0000f	75 0f		 jne	 SHORT $LN3@DoesAllDef
  00011	80 79 03 00	 cmp	 BYTE PTR [ecx+3], 0
  00015	75 09		 jne	 SHORT $LN3@DoesAllDef
  00017	83 79 04 00	 cmp	 DWORD PTR [ecx+4], 0
  0001b	75 03		 jne	 SHORT $LN3@DoesAllDef
  0001d	b0 01		 mov	 al, 1

; 414  : 		m_bCalcRiseFallRate_LowCur == false && 
; 415  : 		m_bCalcRiseFallRate_HighCur == false && 
; 416  : 		m_bCalcRate_PrevCur == false && 
; 417  : 		m_nCalcRiseFallRate_CurData == 0);
; 418  : }

  0001f	c3		 ret	 0
$LN3@DoesAllDef:

; 413  : 	return (m_bCalcRiseFallRate_LowHigh == false && 

  00020	32 c0		 xor	 al, al

; 414  : 		m_bCalcRiseFallRate_LowCur == false && 
; 415  : 		m_bCalcRiseFallRate_HighCur == false && 
; 416  : 		m_bCalcRate_PrevCur == false && 
; 417  : 		m_nCalcRiseFallRate_CurData == 0);
; 418  : }

  00022	c3		 ret	 0
?DoesAllDefaultData@CGraphDataDrawingData@@QBE_NXZ ENDP	; CGraphDataDrawingData::DoesAllDefaultData
_TEXT	ENDS
; Function compile flags: /Ogtp
; File D:\git\src\IBK\IBK_DRFN\ProjSrc\SrcChartEx\ChartOCX\IndicatorCondition\GraphData.cpp
;	COMDAT ?SetShowOHLC@CGraphDataDrawingData@@QAEXH@Z
_TEXT	SEGMENT
_p_bShowOHLC$ = 8					; size = 4
?SetShowOHLC@CGraphDataDrawingData@@QAEXH@Z PROC	; CGraphDataDrawingData::SetShowOHLC, COMDAT
; _this$ = ecx

; 406  : {

  00000	55		 push	 ebp
  00001	8b ec		 mov	 ebp, esp

; 407  : 	m_bShowOHLC	= p_bShowOHLC;

  00003	8b 45 08	 mov	 eax, DWORD PTR _p_bShowOHLC$[ebp]
  00006	89 41 08	 mov	 DWORD PTR [ecx+8], eax

; 408  : }

  00009	5d		 pop	 ebp
  0000a	c2 04 00	 ret	 4
?SetShowOHLC@CGraphDataDrawingData@@QAEXH@Z ENDP	; CGraphDataDrawingData::SetShowOHLC
_TEXT	ENDS
; Function compile flags: /Ogtp
; File D:\git\src\IBK\IBK_DRFN\ProjSrc\SrcChartEx\ChartOCX\IndicatorCondition\GraphData.cpp
;	COMDAT ?SetCalcRiseFallRate_CurData@CGraphDataDrawingData@@QAEXH@Z
_TEXT	SEGMENT
_nCalcData$ = 8						; size = 4
?SetCalcRiseFallRate_CurData@CGraphDataDrawingData@@QAEXH@Z PROC ; CGraphDataDrawingData::SetCalcRiseFallRate_CurData, COMDAT
; _this$ = ecx

; 400  : {

  00000	55		 push	 ebp
  00001	8b ec		 mov	 ebp, esp

; 401  : 	m_nCalcRiseFallRate_CurData = nCalcData;

  00003	8b 45 08	 mov	 eax, DWORD PTR _nCalcData$[ebp]
  00006	89 41 04	 mov	 DWORD PTR [ecx+4], eax

; 402  : }

  00009	5d		 pop	 ebp
  0000a	c2 04 00	 ret	 4
?SetCalcRiseFallRate_CurData@CGraphDataDrawingData@@QAEXH@Z ENDP ; CGraphDataDrawingData::SetCalcRiseFallRate_CurData
_TEXT	ENDS
; Function compile flags: /Ogtp
; File D:\git\src\IBK\IBK_DRFN\ProjSrc\SrcChartEx\ChartOCX\IndicatorCondition\GraphData.cpp
;	COMDAT ?SetDoesCalcRate_PrevCur@CGraphDataDrawingData@@QAEX_N@Z
_TEXT	SEGMENT
_bCalcData$ = 8						; size = 1
?SetDoesCalcRate_PrevCur@CGraphDataDrawingData@@QAEX_N@Z PROC ; CGraphDataDrawingData::SetDoesCalcRate_PrevCur, COMDAT
; _this$ = ecx

; 395  : {

  00000	55		 push	 ebp
  00001	8b ec		 mov	 ebp, esp

; 396  : 	m_bCalcRate_PrevCur = bCalcData;

  00003	8a 45 08	 mov	 al, BYTE PTR _bCalcData$[ebp]
  00006	88 41 03	 mov	 BYTE PTR [ecx+3], al

; 397  : }

  00009	5d		 pop	 ebp
  0000a	c2 04 00	 ret	 4
?SetDoesCalcRate_PrevCur@CGraphDataDrawingData@@QAEX_N@Z ENDP ; CGraphDataDrawingData::SetDoesCalcRate_PrevCur
_TEXT	ENDS
; Function compile flags: /Ogtp
; File D:\git\src\IBK\IBK_DRFN\ProjSrc\SrcChartEx\ChartOCX\IndicatorCondition\GraphData.cpp
;	COMDAT ?SetDoesCalcRiseFallRate_HighCur@CGraphDataDrawingData@@QAEX_N@Z
_TEXT	SEGMENT
_bCalcData$ = 8						; size = 1
?SetDoesCalcRiseFallRate_HighCur@CGraphDataDrawingData@@QAEX_N@Z PROC ; CGraphDataDrawingData::SetDoesCalcRiseFallRate_HighCur, COMDAT
; _this$ = ecx

; 390  : {

  00000	55		 push	 ebp
  00001	8b ec		 mov	 ebp, esp

; 391  : 	m_bCalcRiseFallRate_HighCur = bCalcData;

  00003	8a 45 08	 mov	 al, BYTE PTR _bCalcData$[ebp]
  00006	88 41 02	 mov	 BYTE PTR [ecx+2], al

; 392  : }

  00009	5d		 pop	 ebp
  0000a	c2 04 00	 ret	 4
?SetDoesCalcRiseFallRate_HighCur@CGraphDataDrawingData@@QAEX_N@Z ENDP ; CGraphDataDrawingData::SetDoesCalcRiseFallRate_HighCur
_TEXT	ENDS
; Function compile flags: /Ogtp
; File D:\git\src\IBK\IBK_DRFN\ProjSrc\SrcChartEx\ChartOCX\IndicatorCondition\GraphData.cpp
;	COMDAT ?SetDoesCalcRiseFallRate_LowCur@CGraphDataDrawingData@@QAEX_N@Z
_TEXT	SEGMENT
_bCalcData$ = 8						; size = 1
?SetDoesCalcRiseFallRate_LowCur@CGraphDataDrawingData@@QAEX_N@Z PROC ; CGraphDataDrawingData::SetDoesCalcRiseFallRate_LowCur, COMDAT
; _this$ = ecx

; 385  : {

  00000	55		 push	 ebp
  00001	8b ec		 mov	 ebp, esp

; 386  : 	m_bCalcRiseFallRate_LowCur = bCalcData;

  00003	8a 45 08	 mov	 al, BYTE PTR _bCalcData$[ebp]
  00006	88 41 01	 mov	 BYTE PTR [ecx+1], al

; 387  : }

  00009	5d		 pop	 ebp
  0000a	c2 04 00	 ret	 4
?SetDoesCalcRiseFallRate_LowCur@CGraphDataDrawingData@@QAEX_N@Z ENDP ; CGraphDataDrawingData::SetDoesCalcRiseFallRate_LowCur
_TEXT	ENDS
; Function compile flags: /Ogtp
; File D:\git\src\IBK\IBK_DRFN\ProjSrc\SrcChartEx\ChartOCX\IndicatorCondition\GraphData.cpp
;	COMDAT ?SetDoesCalcRiseFallRate_LowHigh@CGraphDataDrawingData@@QAEX_N@Z
_TEXT	SEGMENT
_bCalcData$ = 8						; size = 1
?SetDoesCalcRiseFallRate_LowHigh@CGraphDataDrawingData@@QAEX_N@Z PROC ; CGraphDataDrawingData::SetDoesCalcRiseFallRate_LowHigh, COMDAT
; _this$ = ecx

; 380  : {

  00000	55		 push	 ebp
  00001	8b ec		 mov	 ebp, esp

; 381  : 	m_bCalcRiseFallRate_LowHigh = bCalcData;

  00003	8a 45 08	 mov	 al, BYTE PTR _bCalcData$[ebp]
  00006	88 01		 mov	 BYTE PTR [ecx], al

; 382  : }

  00008	5d		 pop	 ebp
  00009	c2 04 00	 ret	 4
?SetDoesCalcRiseFallRate_LowHigh@CGraphDataDrawingData@@QAEX_N@Z ENDP ; CGraphDataDrawingData::SetDoesCalcRiseFallRate_LowHigh
_TEXT	ENDS
; Function compile flags: /Ogtp
; File D:\git\src\IBK\IBK_DRFN\ProjSrc\SrcChartEx\ChartOCX\IndicatorCondition\GraphData.cpp
;	COMDAT ??0CGraphDataDrawingData@@QAE@ABV0@@Z
_TEXT	SEGMENT
_data$ = 8						; size = 4
??0CGraphDataDrawingData@@QAE@ABV0@@Z PROC		; CGraphDataDrawingData::CGraphDataDrawingData, COMDAT
; _this$ = ecx

; 363  : {

  00000	55		 push	 ebp
  00001	8b ec		 mov	 ebp, esp

; 356  : 	m_bCalcRiseFallRate_LowHigh(data.DoesCalcRiseFallRate_LowHigh()),

  00003	8b 55 08	 mov	 edx, DWORD PTR _data$[ebp]
  00006	0f b6 02	 movzx	 eax, BYTE PTR [edx]
  00009	88 01		 mov	 BYTE PTR [ecx], al

; 357  : 	m_bCalcRiseFallRate_LowCur(data.DoesCalcRiseFallRate_LowCur()),

  0000b	0f b6 42 01	 movzx	 eax, BYTE PTR [edx+1]
  0000f	88 41 01	 mov	 BYTE PTR [ecx+1], al

; 358  : 	m_bCalcRiseFallRate_HighCur(data.DoesCalcRiseFallRate_HighCur()),

  00012	0f b6 42 02	 movzx	 eax, BYTE PTR [edx+2]
  00016	88 41 02	 mov	 BYTE PTR [ecx+2], al

; 359  : 	m_bCalcRate_PrevCur(data.DoesCalcRate_PrevCur()),

  00019	0f b6 42 03	 movzx	 eax, BYTE PTR [edx+3]
  0001d	88 41 03	 mov	 BYTE PTR [ecx+3], al

; 360  : 	m_nCalcRiseFallRate_CurData(data.GetCalcRiseFallRate_CurData()),

  00020	8b 42 04	 mov	 eax, DWORD PTR [edx+4]
  00023	89 41 04	 mov	 DWORD PTR [ecx+4], eax

; 361  : 	// (2009/9/12 - Seung-Won, Bae) for OHLC graph data
; 362  : 	m_bShowOHLC( data.GetShowOHLC())

  00026	8b 42 08	 mov	 eax, DWORD PTR [edx+8]
  00029	89 41 08	 mov	 DWORD PTR [ecx+8], eax

; 364  : }

  0002c	8b c1		 mov	 eax, ecx
  0002e	5d		 pop	 ebp
  0002f	c2 04 00	 ret	 4
??0CGraphDataDrawingData@@QAE@ABV0@@Z ENDP		; CGraphDataDrawingData::CGraphDataDrawingData
_TEXT	ENDS
; Function compile flags: /Ogtp
; File D:\git\src\IBK\IBK_DRFN\ProjSrc\SrcChartEx\ChartOCX\IndicatorCondition\GraphData.cpp
;	COMDAT ??0CGraphDataDrawingData@@QAE@_N000HH@Z
_TEXT	SEGMENT
_bCalcRiseFallRate_LowHigh$ = 8				; size = 1
_bCalcRiseFallRate_LowCur$ = 12				; size = 1
_bCalcRiseFallRate_HighCur$ = 16			; size = 1
_bCalcRate_PrevCur$ = 20				; size = 1
_nCalcRiseFallRate_CurData$ = 24			; size = 4
_p_bShowOHLC$ = 28					; size = 4
??0CGraphDataDrawingData@@QAE@_N000HH@Z PROC		; CGraphDataDrawingData::CGraphDataDrawingData, COMDAT
; _this$ = ecx

; 352  : {

  00000	55		 push	 ebp
  00001	8b ec		 mov	 ebp, esp

; 345  : 	m_bCalcRiseFallRate_LowHigh(bCalcRiseFallRate_LowHigh),

  00003	8a 45 08	 mov	 al, BYTE PTR _bCalcRiseFallRate_LowHigh$[ebp]
  00006	88 01		 mov	 BYTE PTR [ecx], al

; 346  : 	m_bCalcRiseFallRate_LowCur(bCalcRiseFallRate_LowCur),

  00008	8a 45 0c	 mov	 al, BYTE PTR _bCalcRiseFallRate_LowCur$[ebp]
  0000b	88 41 01	 mov	 BYTE PTR [ecx+1], al

; 347  : 	m_bCalcRiseFallRate_HighCur(bCalcRiseFallRate_HighCur),

  0000e	8a 45 10	 mov	 al, BYTE PTR _bCalcRiseFallRate_HighCur$[ebp]
  00011	88 41 02	 mov	 BYTE PTR [ecx+2], al

; 348  : 	m_bCalcRate_PrevCur(bCalcRate_PrevCur),

  00014	8a 45 14	 mov	 al, BYTE PTR _bCalcRate_PrevCur$[ebp]
  00017	88 41 03	 mov	 BYTE PTR [ecx+3], al

; 349  : 	m_nCalcRiseFallRate_CurData(nCalcRiseFallRate_CurData),

  0001a	8b 45 18	 mov	 eax, DWORD PTR _nCalcRiseFallRate_CurData$[ebp]
  0001d	89 41 04	 mov	 DWORD PTR [ecx+4], eax

; 350  : 	// (2009/9/12 - Seung-Won, Bae) for OHLC graph data
; 351  : 	m_bShowOHLC( p_bShowOHLC)

  00020	8b 45 1c	 mov	 eax, DWORD PTR _p_bShowOHLC$[ebp]
  00023	89 41 08	 mov	 DWORD PTR [ecx+8], eax

; 353  : }

  00026	8b c1		 mov	 eax, ecx
  00028	5d		 pop	 ebp
  00029	c2 18 00	 ret	 24			; 00000018H
??0CGraphDataDrawingData@@QAE@_N000HH@Z ENDP		; CGraphDataDrawingData::CGraphDataDrawingData
_TEXT	ENDS
; Function compile flags: /Ogtp
; File D:\git\src\IBK\IBK_DRFN\ProjSrc\SrcChartEx\ChartOCX\IndicatorCondition\GraphData.cpp
;	COMDAT ??0CGraphDataDrawingData@@QAE@PBD@Z
_TEXT	SEGMENT
_p_szGraphDataDrawingData$ = 8				; size = 4
??0CGraphDataDrawingData@@QAE@PBD@Z PROC		; CGraphDataDrawingData::CGraphDataDrawingData, COMDAT
; _this$ = ecx

; 339  : {

  00000	55		 push	 ebp
  00001	8b ec		 mov	 ebp, esp
  00003	56		 push	 esi

; 340  : 	SetData( p_szGraphDataDrawingData);

  00004	ff 75 08	 push	 DWORD PTR _p_szGraphDataDrawingData$[ebp]
  00007	8b f1		 mov	 esi, ecx
  00009	c7 06 00 00 00
	00		 mov	 DWORD PTR [esi], 0
  0000f	c7 46 04 00 00
	00 00		 mov	 DWORD PTR [esi+4], 0
  00016	c7 46 08 00 00
	00 00		 mov	 DWORD PTR [esi+8], 0
  0001d	e8 00 00 00 00	 call	 ?SetData@CGraphDataDrawingData@@AAEXPBD@Z ; CGraphDataDrawingData::SetData

; 341  : }

  00022	8b c6		 mov	 eax, esi
  00024	5e		 pop	 esi
  00025	5d		 pop	 ebp
  00026	c2 04 00	 ret	 4
??0CGraphDataDrawingData@@QAE@PBD@Z ENDP		; CGraphDataDrawingData::CGraphDataDrawingData
_TEXT	ENDS
; Function compile flags: /Ogtp
; File D:\git\src\IBK\IBK_DRFN\ProjSrc\SrcChartEx\ChartOCX\IndicatorCondition\GraphData.cpp
;	COMDAT ??0CGraphDataDrawingData@@QAE@XZ
_TEXT	SEGMENT
??0CGraphDataDrawingData@@QAE@XZ PROC			; CGraphDataDrawingData::CGraphDataDrawingData, COMDAT
; _this$ = ecx

; 321  : 	m_bCalcRiseFallRate_LowHigh(false),

  00000	c7 01 00 00 00
	00		 mov	 DWORD PTR [ecx], 0

; 329  : }

  00006	8b c1		 mov	 eax, ecx
  00008	c7 41 04 00 00
	00 00		 mov	 DWORD PTR [ecx+4], 0
  0000f	c7 41 08 00 00
	00 00		 mov	 DWORD PTR [ecx+8], 0
  00016	c3		 ret	 0
??0CGraphDataDrawingData@@QAE@XZ ENDP			; CGraphDataDrawingData::CGraphDataDrawingData
_TEXT	ENDS
; Function compile flags: /Ogtp
; File D:\git\src\IBK\IBK_DRFN\ProjSrc\SrcChartEx\ChartOCX\IndicatorCondition\GraphData.cpp
;	COMDAT ??8CGraphDataDrawingData@@QAE_NABV0@@Z
_TEXT	SEGMENT
_data$ = 8						; size = 4
??8CGraphDataDrawingData@@QAE_NABV0@@Z PROC		; CGraphDataDrawingData::operator==, COMDAT
; _this$ = ecx

; 307  : {

  00000	55		 push	 ebp
  00001	8b ec		 mov	 ebp, esp

; 308  : 	if(this == &data)

  00003	8b 55 08	 mov	 edx, DWORD PTR _data$[ebp]
  00006	3b ca		 cmp	 ecx, edx
  00008	75 06		 jne	 SHORT $LN2@operator
$LN6@operator:

; 312  : 		m_bCalcRiseFallRate_LowCur == data.DoesCalcRiseFallRate_LowCur() && 
; 313  : 		m_bCalcRiseFallRate_HighCur == data.DoesCalcRiseFallRate_HighCur() && 
; 314  : 		m_bCalcRate_PrevCur == data.DoesCalcRate_PrevCur() && 
; 315  : 		m_nCalcRiseFallRate_CurData == data.GetCalcRiseFallRate_CurData() &&
; 316  : 		// (2009/9/12 - Seung-Won, Bae) for OHLC graph data
; 317  : 		m_bShowOHLC == data.GetShowOHLC());
; 318  : }

  0000a	b0 01		 mov	 al, 1
  0000c	5d		 pop	 ebp
  0000d	c2 04 00	 ret	 4
$LN2@operator:

; 309  : 		return true;
; 310  : 
; 311  : 	return (m_bCalcRiseFallRate_LowHigh == data.DoesCalcRiseFallRate_LowHigh() && 

  00010	8a 01		 mov	 al, BYTE PTR [ecx]
  00012	3a 02		 cmp	 al, BYTE PTR [edx]
  00014	75 28		 jne	 SHORT $LN4@operator
  00016	8a 41 01	 mov	 al, BYTE PTR [ecx+1]
  00019	3a 42 01	 cmp	 al, BYTE PTR [edx+1]
  0001c	75 20		 jne	 SHORT $LN4@operator
  0001e	8a 41 02	 mov	 al, BYTE PTR [ecx+2]
  00021	3a 42 02	 cmp	 al, BYTE PTR [edx+2]
  00024	75 18		 jne	 SHORT $LN4@operator
  00026	8a 41 03	 mov	 al, BYTE PTR [ecx+3]
  00029	3a 42 03	 cmp	 al, BYTE PTR [edx+3]
  0002c	75 10		 jne	 SHORT $LN4@operator
  0002e	8b 41 04	 mov	 eax, DWORD PTR [ecx+4]
  00031	3b 42 04	 cmp	 eax, DWORD PTR [edx+4]
  00034	75 08		 jne	 SHORT $LN4@operator
  00036	8b 41 08	 mov	 eax, DWORD PTR [ecx+8]
  00039	3b 42 08	 cmp	 eax, DWORD PTR [edx+8]
  0003c	74 cc		 je	 SHORT $LN6@operator
$LN4@operator:
  0003e	32 c0		 xor	 al, al

; 312  : 		m_bCalcRiseFallRate_LowCur == data.DoesCalcRiseFallRate_LowCur() && 
; 313  : 		m_bCalcRiseFallRate_HighCur == data.DoesCalcRiseFallRate_HighCur() && 
; 314  : 		m_bCalcRate_PrevCur == data.DoesCalcRate_PrevCur() && 
; 315  : 		m_nCalcRiseFallRate_CurData == data.GetCalcRiseFallRate_CurData() &&
; 316  : 		// (2009/9/12 - Seung-Won, Bae) for OHLC graph data
; 317  : 		m_bShowOHLC == data.GetShowOHLC());
; 318  : }

  00040	5d		 pop	 ebp
  00041	c2 04 00	 ret	 4
??8CGraphDataDrawingData@@QAE_NABV0@@Z ENDP		; CGraphDataDrawingData::operator==
_TEXT	ENDS
; Function compile flags: /Ogtp
; File D:\git\src\IBK\IBK_DRFN\ProjSrc\SrcChartEx\ChartOCX\IndicatorCondition\GraphData.cpp
;	COMDAT ??4CGraphDataDrawingData@@QAEAAV0@ABV0@@Z
_TEXT	SEGMENT
_data$ = 8						; size = 4
??4CGraphDataDrawingData@@QAEAAV0@ABV0@@Z PROC		; CGraphDataDrawingData::operator=, COMDAT
; _this$ = ecx

; 291  : {

  00000	55		 push	 ebp
  00001	8b ec		 mov	 ebp, esp

; 292  : 	if(this == &data)

  00003	8b 55 08	 mov	 edx, DWORD PTR _data$[ebp]
  00006	3b ca		 cmp	 ecx, edx
  00008	74 26		 je	 SHORT $LN4@operator

; 293  : 		return *this;
; 294  : 
; 295  : 	m_bCalcRiseFallRate_LowHigh = data.DoesCalcRiseFallRate_LowHigh();

  0000a	0f b6 02	 movzx	 eax, BYTE PTR [edx]
  0000d	88 01		 mov	 BYTE PTR [ecx], al

; 296  : 	m_bCalcRiseFallRate_LowCur = data.DoesCalcRiseFallRate_LowCur();

  0000f	0f b6 42 01	 movzx	 eax, BYTE PTR [edx+1]
  00013	88 41 01	 mov	 BYTE PTR [ecx+1], al

; 297  : 	m_bCalcRiseFallRate_HighCur = data.DoesCalcRiseFallRate_HighCur();

  00016	0f b6 42 02	 movzx	 eax, BYTE PTR [edx+2]
  0001a	88 41 02	 mov	 BYTE PTR [ecx+2], al

; 298  : 	m_bCalcRate_PrevCur = data.DoesCalcRate_PrevCur();

  0001d	0f b6 42 03	 movzx	 eax, BYTE PTR [edx+3]
  00021	88 41 03	 mov	 BYTE PTR [ecx+3], al

; 299  : 	m_nCalcRiseFallRate_CurData = data.GetCalcRiseFallRate_CurData();

  00024	8b 42 04	 mov	 eax, DWORD PTR [edx+4]
  00027	89 41 04	 mov	 DWORD PTR [ecx+4], eax

; 300  : 	// (2009/9/12 - Seung-Won, Bae) for OHLC graph data
; 301  : 	m_bShowOHLC = data.GetShowOHLC();

  0002a	8b 42 08	 mov	 eax, DWORD PTR [edx+8]
  0002d	89 41 08	 mov	 DWORD PTR [ecx+8], eax
$LN4@operator:

; 302  : 
; 303  : 	return *this;
; 304  : }

  00030	8b c1		 mov	 eax, ecx
  00032	5d		 pop	 ebp
  00033	c2 04 00	 ret	 4
??4CGraphDataDrawingData@@QAEAAV0@ABV0@@Z ENDP		; CGraphDataDrawingData::operator=
_TEXT	ENDS
; Function compile flags: /Ogtp
; File D:\git\src\IBK\IBK_DRFN\ProjSrc\SrcChartEx\ChartOCX\IndicatorCondition\GraphData.cpp
;	COMDAT ?GetDrawingThickness@CPenThickness@@ABEHH@Z
_TEXT	SEGMENT
_orgPenThickness$ = 8					; size = 4
?GetDrawingThickness@CPenThickness@@ABEHH@Z PROC	; CPenThickness::GetDrawingThickness, COMDAT
; _this$ = ecx

; 277  : {

  00000	55		 push	 ebp
  00001	8b ec		 mov	 ebp, esp

; 278  : 	if(!m_bIsHightlight)

  00003	80 39 00	 cmp	 BYTE PTR [ecx], 0
  00006	8b 45 08	 mov	 eax, DWORD PTR _orgPenThickness$[ebp]
  00009	74 0e		 je	 SHORT $LN1@GetDrawing

; 279  : 		return orgPenThickness;
; 280  : 
; 281  : 	if(orgPenThickness < 3)

  0000b	83 f8 03	 cmp	 eax, 3
  0000e	7d 06		 jge	 SHORT $LN3@GetDrawing

; 282  : 		return orgPenThickness *2;

  00010	03 c0		 add	 eax, eax

; 284  : }

  00012	5d		 pop	 ebp
  00013	c2 04 00	 ret	 4
$LN3@GetDrawing:

; 283  : 	return orgPenThickness +2;

  00016	83 c0 02	 add	 eax, 2
$LN1@GetDrawing:

; 284  : }

  00019	5d		 pop	 ebp
  0001a	c2 04 00	 ret	 4
?GetDrawingThickness@CPenThickness@@ABEHH@Z ENDP	; CPenThickness::GetDrawingThickness
_TEXT	ENDS
; Function compile flags: /Ogtp
; File D:\git\src\IBK\IBK_DRFN\ProjSrc\SrcChartEx\ChartOCX\IndicatorCondition\GraphData.cpp
;	COMDAT ?GetBaseLineThickness@CPenThickness@@QBEHXZ
_TEXT	SEGMENT
?GetBaseLineThickness@CPenThickness@@QBEHXZ PROC	; CPenThickness::GetBaseLineThickness, COMDAT
; _this$ = ecx

; 221  : 	return m_nBaseLineThickness;

  00000	8b 41 10	 mov	 eax, DWORD PTR [ecx+16]

; 222  : }

  00003	c3		 ret	 0
?GetBaseLineThickness@CPenThickness@@QBEHXZ ENDP	; CPenThickness::GetBaseLineThickness
_TEXT	ENDS
; Function compile flags: /Ogtp
; File D:\git\src\IBK\IBK_DRFN\ProjSrc\SrcChartEx\ChartOCX\IndicatorCondition\GraphData.cpp
;	COMDAT ?SetBaseLineThickness@CPenThickness@@QAEXH@Z
_TEXT	SEGMENT
_nThickness$ = 8					; size = 4
?SetBaseLineThickness@CPenThickness@@QAEXH@Z PROC	; CPenThickness::SetBaseLineThickness, COMDAT
; _this$ = ecx

; 173  : {

  00000	55		 push	 ebp
  00001	8b ec		 mov	 ebp, esp

; 174  : 	m_nBaseLineThickness = nThickness;

  00003	8b 45 08	 mov	 eax, DWORD PTR _nThickness$[ebp]
  00006	89 41 10	 mov	 DWORD PTR [ecx+16], eax

; 175  : }

  00009	5d		 pop	 ebp
  0000a	c2 04 00	 ret	 4
?SetBaseLineThickness@CPenThickness@@QAEXH@Z ENDP	; CPenThickness::SetBaseLineThickness
_TEXT	ENDS
; Function compile flags: /Ogtp
; File D:\git\src\IBK\IBK_DRFN\ProjSrc\SrcChartEx\ChartOCX\IndicatorCondition\GraphData.cpp
;	COMDAT ?GetStringData@CPenThickness@@QBEXAAV?$CStringT@DV?$StrTraitMFC_DLL@DV?$ChTraitsCRT@D@ATL@@@@@ATL@@@Z
_TEXT	SEGMENT
_nBaseLineThicknessLen$1$ = -100			; size = 4
_this$GSCopy$1$ = -96					; size = 4
_nThicknessLen3$1$ = -92				; size = 4
tv308 = -88						; size = 4
_p_strPenThickness$GSCopy$1$ = -88			; size = 4
_szBaseLineThickness$ = -84				; size = 20
_szThickness3$ = -64					; size = 20
_szThickness2$ = -44					; size = 20
_szThickness1$ = -24					; size = 20
__$ArrayPad$ = -4					; size = 4
_p_strPenThickness$ = 8					; size = 4
?GetStringData@CPenThickness@@QBEXAAV?$CStringT@DV?$StrTraitMFC_DLL@DV?$ChTraitsCRT@D@ATL@@@@@ATL@@@Z PROC ; CPenThickness::GetStringData, COMDAT
; _this$ = ecx

; 225  : {

  00000	55		 push	 ebp
  00001	8b ec		 mov	 ebp, esp
  00003	83 ec 64	 sub	 esp, 100		; 00000064H
  00006	a1 00 00 00 00	 mov	 eax, DWORD PTR ___security_cookie
  0000b	33 c5		 xor	 eax, ebp
  0000d	89 45 fc	 mov	 DWORD PTR __$ArrayPad$[ebp], eax
  00010	8b 45 08	 mov	 eax, DWORD PTR _p_strPenThickness$[ebp]
  00013	53		 push	 ebx
  00014	56		 push	 esi

; 226  : 	//  ,   - ojtaso (20071213)
; 227  : 	char szThickness1[ 20], szThickness2[ 20], szThickness3[ 20], szBaseLineThickness[20];
; 228  : 	itoa( m_nThickness1, szThickness1, 10);

  00015	8b 35 00 00 00
	00		 mov	 esi, DWORD PTR __imp__itoa
  0001b	8b d9		 mov	 ebx, ecx
  0001d	89 45 a8	 mov	 DWORD PTR _p_strPenThickness$GSCopy$1$[ebp], eax
  00020	8d 45 e8	 lea	 eax, DWORD PTR _szThickness1$[ebp]
  00023	6a 0a		 push	 10			; 0000000aH
  00025	50		 push	 eax
  00026	ff 73 04	 push	 DWORD PTR [ebx+4]
  00029	89 5d a0	 mov	 DWORD PTR _this$GSCopy$1$[ebp], ebx
  0002c	ff d6		 call	 esi

; 229  : 	itoa( m_nThickness2, szThickness2, 10);

  0002e	6a 0a		 push	 10			; 0000000aH
  00030	8d 45 d4	 lea	 eax, DWORD PTR _szThickness2$[ebp]
  00033	50		 push	 eax
  00034	ff 73 08	 push	 DWORD PTR [ebx+8]
  00037	ff d6		 call	 esi

; 230  : 	itoa( m_nThickness3, szThickness3, 10);

  00039	6a 0a		 push	 10			; 0000000aH
  0003b	8d 45 c0	 lea	 eax, DWORD PTR _szThickness3$[ebp]
  0003e	50		 push	 eax
  0003f	ff 73 0c	 push	 DWORD PTR [ebx+12]
  00042	ff d6		 call	 esi

; 231  : 	//  ,   - ojtaso (20071213)
; 232  : 	itoa( m_nBaseLineThickness, szBaseLineThickness, 10);

  00044	6a 0a		 push	 10			; 0000000aH
  00046	8d 45 ac	 lea	 eax, DWORD PTR _szBaseLineThickness$[ebp]
  00049	50		 push	 eax
  0004a	ff 73 10	 push	 DWORD PTR [ebx+16]
  0004d	ff d6		 call	 esi

; 233  : 
; 234  : 	int nThicknessLen1 = strlen( szThickness1); 

  0004f	8d 75 e8	 lea	 esi, DWORD PTR _szThickness1$[ebp]
  00052	83 c4 30	 add	 esp, 48			; 00000030H
  00055	8d 4e 01	 lea	 ecx, DWORD PTR [esi+1]
$LL19@GetStringD:
  00058	8a 06		 mov	 al, BYTE PTR [esi]
  0005a	46		 inc	 esi
  0005b	84 c0		 test	 al, al
  0005d	75 f9		 jne	 SHORT $LL19@GetStringD
  0005f	57		 push	 edi

; 235  : 	int nThicknessLen2 = strlen( szThickness2); 

  00060	8d 7d d4	 lea	 edi, DWORD PTR _szThickness2$[ebp]
  00063	2b f1		 sub	 esi, ecx
  00065	8d 4f 01	 lea	 ecx, DWORD PTR [edi+1]
$LL20@GetStringD:
  00068	8a 07		 mov	 al, BYTE PTR [edi]
  0006a	47		 inc	 edi
  0006b	84 c0		 test	 al, al
  0006d	75 f9		 jne	 SHORT $LL20@GetStringD

; 236  : 	int nThicknessLen3 = strlen( szThickness3); 

  0006f	8d 5d c0	 lea	 ebx, DWORD PTR _szThickness3$[ebp]
  00072	2b f9		 sub	 edi, ecx
  00074	8d 4b 01	 lea	 ecx, DWORD PTR [ebx+1]
$LL21@GetStringD:
  00077	8a 03		 mov	 al, BYTE PTR [ebx]
  00079	43		 inc	 ebx
  0007a	84 c0		 test	 al, al
  0007c	75 f9		 jne	 SHORT $LL21@GetStringD
  0007e	2b d9		 sub	 ebx, ecx

; 237  : 	//  ,   - ojtaso (20071213)
; 238  : 	int nBaseLineThicknessLen = strlen( szBaseLineThickness); 

  00080	8d 4d ac	 lea	 ecx, DWORD PTR _szBaseLineThickness$[ebp]
  00083	89 5d a4	 mov	 DWORD PTR _nThicknessLen3$1$[ebp], ebx
  00086	8d 51 01	 lea	 edx, DWORD PTR [ecx+1]
  00089	0f 1f 80 00 00
	00 00		 npad	 7
$LL22@GetStringD:
  00090	8a 01		 mov	 al, BYTE PTR [ecx]
  00092	41		 inc	 ecx
  00093	84 c0		 test	 al, al
  00095	75 f9		 jne	 SHORT $LL22@GetStringD
  00097	2b ca		 sub	 ecx, edx

; 239  : 
; 240  : 	int nPenThickness = 0;
; 241  : 	nPenThickness += nThicknessLen1;
; 242  : 	nPenThickness++;
; 243  : 	nPenThickness += nThicknessLen2;
; 244  : 	nPenThickness++;
; 245  : 	nPenThickness += nThicknessLen3;
; 246  : 	nPenThickness += 3;								// ;?;
; 247  : 	//  ,   - ojtaso (20071213)
; 248  : 	nPenThickness += nBaseLineThicknessLen;
; 249  : 	nPenThickness++;

  00099	8d 43 06	 lea	 eax, DWORD PTR [ebx+6]
  0009c	03 c1		 add	 eax, ecx
  0009e	89 4d 9c	 mov	 DWORD PTR _nBaseLineThicknessLen$1$[ebp], ecx

; 250  : 
; 251  : 	char *szPenThickness = p_strPenThickness.GetBufferSetLength( nPenThickness);

  000a1	8b 4d a8	 mov	 ecx, DWORD PTR _p_strPenThickness$GSCopy$1$[ebp]
  000a4	03 c7		 add	 eax, edi
  000a6	03 c6		 add	 eax, esi
  000a8	50		 push	 eax
  000a9	ff 15 00 00 00
	00		 call	 DWORD PTR __imp_?GetBufferSetLength@?$CSimpleStringT@D$00@ATL@@QAEPADH@Z
  000af	8b d0		 mov	 edx, eax

; 252  : 
; 253  : 	strcpy( szPenThickness, szThickness1);

  000b1	8d 45 e8	 lea	 eax, DWORD PTR _szThickness1$[ebp]
  000b4	8b d8		 mov	 ebx, eax
  000b6	8b ca		 mov	 ecx, edx
  000b8	2b cb		 sub	 ecx, ebx
  000ba	89 4d a8	 mov	 DWORD PTR tv308[ebp], ecx
  000bd	8b d9		 mov	 ebx, ecx
  000bf	90		 npad	 1
$LL3@GetStringD:
  000c0	8a 08		 mov	 cl, BYTE PTR [eax]
  000c2	8d 40 01	 lea	 eax, DWORD PTR [eax+1]
  000c5	88 4c 03 ff	 mov	 BYTE PTR [ebx+eax-1], cl
  000c9	84 c9		 test	 cl, cl
  000cb	75 f3		 jne	 SHORT $LL3@GetStringD

; 254  : 	szPenThickness += nThicknessLen1;
; 255  : 	*szPenThickness++ = ';';
; 256  : 
; 257  : 	strcpy( szPenThickness, szThickness2);

  000cd	8b 5d a4	 mov	 ebx, DWORD PTR _nThicknessLen3$1$[ebp]
  000d0	8d 4d d4	 lea	 ecx, DWORD PTR _szThickness2$[ebp]
  000d3	03 d6		 add	 edx, esi
  000d5	8b c1		 mov	 eax, ecx
  000d7	c6 02 3b	 mov	 BYTE PTR [edx], 59	; 0000003bH
  000da	42		 inc	 edx
  000db	8b f2		 mov	 esi, edx
  000dd	2b f0		 sub	 esi, eax
  000df	90		 npad	 1
$LL4@GetStringD:
  000e0	8a 01		 mov	 al, BYTE PTR [ecx]
  000e2	8d 49 01	 lea	 ecx, DWORD PTR [ecx+1]
  000e5	88 44 0e ff	 mov	 BYTE PTR [esi+ecx-1], al
  000e9	84 c0		 test	 al, al
  000eb	75 f3		 jne	 SHORT $LL4@GetStringD

; 258  : 	szPenThickness += nThicknessLen2;

  000ed	03 d7		 add	 edx, edi

; 259  : 	*szPenThickness++ = ';';
; 260  : 
; 261  : 	strcpy( szPenThickness, szThickness3);

  000ef	8d 4d c0	 lea	 ecx, DWORD PTR _szThickness3$[ebp]
  000f2	8b c1		 mov	 eax, ecx
  000f4	5f		 pop	 edi
  000f5	c6 02 3b	 mov	 BYTE PTR [edx], 59	; 0000003bH
  000f8	42		 inc	 edx
  000f9	8b f2		 mov	 esi, edx
  000fb	2b f0		 sub	 esi, eax
  000fd	0f 1f 00	 npad	 3
$LL5@GetStringD:
  00100	8a 01		 mov	 al, BYTE PTR [ecx]
  00102	8d 49 01	 lea	 ecx, DWORD PTR [ecx+1]
  00105	88 44 0e ff	 mov	 BYTE PTR [esi+ecx-1], al
  00109	84 c0		 test	 al, al
  0010b	75 f3		 jne	 SHORT $LL5@GetStringD

; 262  : 	szPenThickness += nThicknessLen3;
; 263  : 	*szPenThickness++ = ';';
; 264  : 
; 265  : 	*szPenThickness++ = ( m_bIsHightlight ? '1' : '0');

  0010d	8b 45 a0	 mov	 eax, DWORD PTR _this$GSCopy$1$[ebp]

; 266  : 	*szPenThickness++ = ';';
; 267  : 
; 268  : 	//  ,   - ojtaso (20071213)
; 269  : 	strcpy( szPenThickness, szBaseLineThickness);

  00110	8d 4d ac	 lea	 ecx, DWORD PTR _szBaseLineThickness$[ebp]
  00113	03 d3		 add	 edx, ebx
  00115	c6 02 3b	 mov	 BYTE PTR [edx], 59	; 0000003bH
  00118	8d 72 03	 lea	 esi, DWORD PTR [edx+3]
  0011b	80 38 00	 cmp	 BYTE PTR [eax], 0
  0011e	0f 95 c0	 setne	 al
  00121	04 30		 add	 al, 48			; 00000030H
  00123	88 42 01	 mov	 BYTE PTR [edx+1], al
  00126	8b c1		 mov	 eax, ecx
  00128	c6 42 02 3b	 mov	 BYTE PTR [edx+2], 59	; 0000003bH
  0012c	2b f0		 sub	 esi, eax
  0012e	66 90		 npad	 2
$LL6@GetStringD:
  00130	8a 01		 mov	 al, BYTE PTR [ecx]
  00132	8d 49 01	 lea	 ecx, DWORD PTR [ecx+1]
  00135	88 44 0e ff	 mov	 BYTE PTR [esi+ecx-1], al
  00139	84 c0		 test	 al, al
  0013b	75 f3		 jne	 SHORT $LL6@GetStringD

; 270  : 	szPenThickness += nBaseLineThicknessLen;
; 271  : 	*szPenThickness++ = ';';

  0013d	8b 45 9c	 mov	 eax, DWORD PTR _nBaseLineThicknessLen$1$[ebp]

; 272  : }

  00140	8b 4d fc	 mov	 ecx, DWORD PTR __$ArrayPad$[ebp]
  00143	5e		 pop	 esi
  00144	33 cd		 xor	 ecx, ebp
  00146	c6 44 02 03 3b	 mov	 BYTE PTR [edx+eax+3], 59 ; 0000003bH
  0014b	5b		 pop	 ebx
  0014c	e8 00 00 00 00	 call	 @__security_check_cookie@4
  00151	8b e5		 mov	 esp, ebp
  00153	5d		 pop	 ebp
  00154	c2 04 00	 ret	 4
?GetStringData@CPenThickness@@QBEXAAV?$CStringT@DV?$StrTraitMFC_DLL@DV?$ChTraitsCRT@D@ATL@@@@@ATL@@@Z ENDP ; CPenThickness::GetStringData
_TEXT	ENDS
; Function compile flags: /Ogtp
; File D:\git\src\IBK\IBK_DRFN\ProjSrc\SrcChartEx\ChartOCX\IndicatorCondition\GraphData.cpp
;	COMDAT ?GetDrawingThickness3@CPenThickness@@QBEHXZ
_TEXT	SEGMENT
?GetDrawingThickness3@CPenThickness@@QBEHXZ PROC	; CPenThickness::GetDrawingThickness3, COMDAT
; _this$ = ecx

; 278  : 	if(!m_bIsHightlight)

  00000	80 39 00	 cmp	 BYTE PTR [ecx], 0

; 215  : 	return GetDrawingThickness(m_nThickness3);

  00003	8b 41 0c	 mov	 eax, DWORD PTR [ecx+12]

; 278  : 	if(!m_bIsHightlight)

  00006	74 0b		 je	 SHORT $LN3@GetDrawing

; 279  : 		return orgPenThickness;
; 280  : 
; 281  : 	if(orgPenThickness < 3)

  00008	83 f8 03	 cmp	 eax, 3
  0000b	7d 03		 jge	 SHORT $LN5@GetDrawing

; 282  : 		return orgPenThickness *2;

  0000d	03 c0		 add	 eax, eax

; 216  : }

  0000f	c3		 ret	 0
$LN5@GetDrawing:

; 283  : 	return orgPenThickness +2;

  00010	83 c0 02	 add	 eax, 2
$LN3@GetDrawing:

; 216  : }

  00013	c3		 ret	 0
?GetDrawingThickness3@CPenThickness@@QBEHXZ ENDP	; CPenThickness::GetDrawingThickness3
_TEXT	ENDS
; Function compile flags: /Ogtp
; File D:\git\src\IBK\IBK_DRFN\ProjSrc\SrcChartEx\ChartOCX\IndicatorCondition\GraphData.cpp
;	COMDAT ?GetDrawingThickness2@CPenThickness@@QBEHXZ
_TEXT	SEGMENT
?GetDrawingThickness2@CPenThickness@@QBEHXZ PROC	; CPenThickness::GetDrawingThickness2, COMDAT
; _this$ = ecx

; 278  : 	if(!m_bIsHightlight)

  00000	80 39 00	 cmp	 BYTE PTR [ecx], 0

; 210  : 	return GetDrawingThickness(m_nThickness2);

  00003	8b 41 08	 mov	 eax, DWORD PTR [ecx+8]

; 278  : 	if(!m_bIsHightlight)

  00006	74 0b		 je	 SHORT $LN3@GetDrawing

; 279  : 		return orgPenThickness;
; 280  : 
; 281  : 	if(orgPenThickness < 3)

  00008	83 f8 03	 cmp	 eax, 3
  0000b	7d 03		 jge	 SHORT $LN5@GetDrawing

; 282  : 		return orgPenThickness *2;

  0000d	03 c0		 add	 eax, eax

; 211  : }

  0000f	c3		 ret	 0
$LN5@GetDrawing:

; 283  : 	return orgPenThickness +2;

  00010	83 c0 02	 add	 eax, 2
$LN3@GetDrawing:

; 211  : }

  00013	c3		 ret	 0
?GetDrawingThickness2@CPenThickness@@QBEHXZ ENDP	; CPenThickness::GetDrawingThickness2
_TEXT	ENDS
; Function compile flags: /Ogtp
; File D:\git\src\IBK\IBK_DRFN\ProjSrc\SrcChartEx\ChartOCX\IndicatorCondition\GraphData.cpp
;	COMDAT ?GetDrawingThickness1@CPenThickness@@QBEHXZ
_TEXT	SEGMENT
?GetDrawingThickness1@CPenThickness@@QBEHXZ PROC	; CPenThickness::GetDrawingThickness1, COMDAT
; _this$ = ecx

; 278  : 	if(!m_bIsHightlight)

  00000	80 39 00	 cmp	 BYTE PTR [ecx], 0

; 205  : 	return GetDrawingThickness(m_nThickness1);

  00003	8b 41 04	 mov	 eax, DWORD PTR [ecx+4]

; 278  : 	if(!m_bIsHightlight)

  00006	74 0b		 je	 SHORT $LN3@GetDrawing

; 279  : 		return orgPenThickness;
; 280  : 
; 281  : 	if(orgPenThickness < 3)

  00008	83 f8 03	 cmp	 eax, 3
  0000b	7d 03		 jge	 SHORT $LN5@GetDrawing

; 282  : 		return orgPenThickness *2;

  0000d	03 c0		 add	 eax, eax

; 206  : }

  0000f	c3		 ret	 0
$LN5@GetDrawing:

; 283  : 	return orgPenThickness +2;

  00010	83 c0 02	 add	 eax, 2
$LN3@GetDrawing:

; 206  : }

  00013	c3		 ret	 0
?GetDrawingThickness1@CPenThickness@@QBEHXZ ENDP	; CPenThickness::GetDrawingThickness1
_TEXT	ENDS
; Function compile flags: /Ogtp
; File D:\git\src\IBK\IBK_DRFN\ProjSrc\SrcChartEx\ChartOCX\IndicatorCondition\GraphData.cpp
;	COMDAT ?GetThickness3@CPenThickness@@QBEHXZ
_TEXT	SEGMENT
?GetThickness3@CPenThickness@@QBEHXZ PROC		; CPenThickness::GetThickness3, COMDAT
; _this$ = ecx

; 200  : 	return m_nThickness3;

  00000	8b 41 0c	 mov	 eax, DWORD PTR [ecx+12]

; 201  : }

  00003	c3		 ret	 0
?GetThickness3@CPenThickness@@QBEHXZ ENDP		; CPenThickness::GetThickness3
_TEXT	ENDS
; Function compile flags: /Ogtp
; File D:\git\src\IBK\IBK_DRFN\ProjSrc\SrcChartEx\ChartOCX\IndicatorCondition\GraphData.cpp
;	COMDAT ?GetThickness2@CPenThickness@@QBEHXZ
_TEXT	SEGMENT
?GetThickness2@CPenThickness@@QBEHXZ PROC		; CPenThickness::GetThickness2, COMDAT
; _this$ = ecx

; 195  : 	return m_nThickness2;

  00000	8b 41 08	 mov	 eax, DWORD PTR [ecx+8]

; 196  : }

  00003	c3		 ret	 0
?GetThickness2@CPenThickness@@QBEHXZ ENDP		; CPenThickness::GetThickness2
_TEXT	ENDS
; Function compile flags: /Ogtp
; File D:\git\src\IBK\IBK_DRFN\ProjSrc\SrcChartEx\ChartOCX\IndicatorCondition\GraphData.cpp
;	COMDAT ?GetThickness1@CPenThickness@@QBEHXZ
_TEXT	SEGMENT
?GetThickness1@CPenThickness@@QBEHXZ PROC		; CPenThickness::GetThickness1, COMDAT
; _this$ = ecx

; 190  : 	return m_nThickness1;

  00000	8b 41 04	 mov	 eax, DWORD PTR [ecx+4]

; 191  : }

  00003	c3		 ret	 0
?GetThickness1@CPenThickness@@QBEHXZ ENDP		; CPenThickness::GetThickness1
_TEXT	ENDS
; Function compile flags: /Ogtp
; File D:\git\src\IBK\IBK_DRFN\ProjSrc\SrcChartEx\ChartOCX\IndicatorCondition\GraphData.cpp
;	COMDAT ?IsHightlight@CPenThickness@@QBE_NXZ
_TEXT	SEGMENT
?IsHightlight@CPenThickness@@QBE_NXZ PROC		; CPenThickness::IsHightlight, COMDAT
; _this$ = ecx

; 185  : 	return m_bIsHightlight;

  00000	8a 01		 mov	 al, BYTE PTR [ecx]

; 186  : }

  00002	c3		 ret	 0
?IsHightlight@CPenThickness@@QBE_NXZ ENDP		; CPenThickness::IsHightlight
_TEXT	ENDS
; Function compile flags: /Ogtp
; File D:\git\src\IBK\IBK_DRFN\ProjSrc\SrcChartEx\ChartOCX\IndicatorCondition\GraphData.cpp
;	COMDAT ?ReversedHightlight@CPenThickness@@QAEXXZ
_TEXT	SEGMENT
?ReversedHightlight@CPenThickness@@QAEXXZ PROC		; CPenThickness::ReversedHightlight, COMDAT
; _this$ = ecx

; 179  : 	m_bIsHightlight = !m_bIsHightlight;

  00000	80 39 00	 cmp	 BYTE PTR [ecx], 0
  00003	0f 94 c0	 sete	 al
  00006	88 01		 mov	 BYTE PTR [ecx], al

; 180  : }

  00008	c3		 ret	 0
?ReversedHightlight@CPenThickness@@QAEXXZ ENDP		; CPenThickness::ReversedHightlight
_TEXT	ENDS
; Function compile flags: /Ogtp
; File D:\git\src\IBK\IBK_DRFN\ProjSrc\SrcChartEx\ChartOCX\IndicatorCondition\GraphData.cpp
;	COMDAT ?SetThickness3@CPenThickness@@QAEXH@Z
_TEXT	SEGMENT
_nThickness$ = 8					; size = 4
?SetThickness3@CPenThickness@@QAEXH@Z PROC		; CPenThickness::SetThickness3, COMDAT
; _this$ = ecx

; 167  : {

  00000	55		 push	 ebp
  00001	8b ec		 mov	 ebp, esp

; 168  : 	m_nThickness3 = nThickness;

  00003	8b 45 08	 mov	 eax, DWORD PTR _nThickness$[ebp]
  00006	89 41 0c	 mov	 DWORD PTR [ecx+12], eax

; 169  : }

  00009	5d		 pop	 ebp
  0000a	c2 04 00	 ret	 4
?SetThickness3@CPenThickness@@QAEXH@Z ENDP		; CPenThickness::SetThickness3
_TEXT	ENDS
; Function compile flags: /Ogtp
; File D:\git\src\IBK\IBK_DRFN\ProjSrc\SrcChartEx\ChartOCX\IndicatorCondition\GraphData.cpp
;	COMDAT ?SetThickness2@CPenThickness@@QAEXH@Z
_TEXT	SEGMENT
_nThickness$ = 8					; size = 4
?SetThickness2@CPenThickness@@QAEXH@Z PROC		; CPenThickness::SetThickness2, COMDAT
; _this$ = ecx

; 162  : {

  00000	55		 push	 ebp
  00001	8b ec		 mov	 ebp, esp

; 163  : 	m_nThickness2 = nThickness;

  00003	8b 45 08	 mov	 eax, DWORD PTR _nThickness$[ebp]
  00006	89 41 08	 mov	 DWORD PTR [ecx+8], eax

; 164  : }

  00009	5d		 pop	 ebp
  0000a	c2 04 00	 ret	 4
?SetThickness2@CPenThickness@@QAEXH@Z ENDP		; CPenThickness::SetThickness2
_TEXT	ENDS
; Function compile flags: /Ogtp
; File D:\git\src\IBK\IBK_DRFN\ProjSrc\SrcChartEx\ChartOCX\IndicatorCondition\GraphData.cpp
;	COMDAT ?SetThickness1@CPenThickness@@QAEXH@Z
_TEXT	SEGMENT
_nThickness$ = 8					; size = 4
?SetThickness1@CPenThickness@@QAEXH@Z PROC		; CPenThickness::SetThickness1, COMDAT
; _this$ = ecx

; 157  : {

  00000	55		 push	 ebp
  00001	8b ec		 mov	 ebp, esp

; 158  : 	m_nThickness1 = nThickness;

  00003	8b 45 08	 mov	 eax, DWORD PTR _nThickness$[ebp]
  00006	89 41 04	 mov	 DWORD PTR [ecx+4], eax

; 159  : }

  00009	5d		 pop	 ebp
  0000a	c2 04 00	 ret	 4
?SetThickness1@CPenThickness@@QAEXH@Z ENDP		; CPenThickness::SetThickness1
_TEXT	ENDS
; Function compile flags: /Ogtp
; File D:\git\src\IBK\IBK_DRFN\ProjSrc\SrcChartEx\ChartOCX\IndicatorCondition\GraphData.cpp
;	COMDAT ?SetThickness@CPenThickness@@QAEXHHH@Z
_TEXT	SEGMENT
_nThickness1$ = 8					; size = 4
_nThickness2$ = 12					; size = 4
_nThickness3$ = 16					; size = 4
?SetThickness@CPenThickness@@QAEXHHH@Z PROC		; CPenThickness::SetThickness, COMDAT
; _this$ = ecx

; 150  : {

  00000	55		 push	 ebp
  00001	8b ec		 mov	 ebp, esp

; 151  : 	m_nThickness1 = nThickness1;

  00003	8b 45 08	 mov	 eax, DWORD PTR _nThickness1$[ebp]
  00006	89 41 04	 mov	 DWORD PTR [ecx+4], eax

; 152  : 	m_nThickness2 = nThickness2;

  00009	8b 45 0c	 mov	 eax, DWORD PTR _nThickness2$[ebp]
  0000c	89 41 08	 mov	 DWORD PTR [ecx+8], eax

; 153  : 	m_nThickness3 = nThickness3;

  0000f	8b 45 10	 mov	 eax, DWORD PTR _nThickness3$[ebp]
  00012	89 41 0c	 mov	 DWORD PTR [ecx+12], eax

; 154  : }

  00015	5d		 pop	 ebp
  00016	c2 0c 00	 ret	 12			; 0000000cH
?SetThickness@CPenThickness@@QAEXHHH@Z ENDP		; CPenThickness::SetThickness
_TEXT	ENDS
; Function compile flags: /Ogtp
; File D:\git\src\IBK\IBK_DRFN\ProjSrc\SrcChartEx\ChartOCX\IndicatorCondition\GraphData.cpp
;	COMDAT ?SetHightlight@CPenThickness@@QAEX_N@Z
_TEXT	SEGMENT
_bIsHightlight$ = 8					; size = 1
?SetHightlight@CPenThickness@@QAEX_N@Z PROC		; CPenThickness::SetHightlight, COMDAT
; _this$ = ecx

; 145  : {

  00000	55		 push	 ebp
  00001	8b ec		 mov	 ebp, esp

; 146  : 	m_bIsHightlight = bIsHightlight;

  00003	8a 45 08	 mov	 al, BYTE PTR _bIsHightlight$[ebp]
  00006	88 01		 mov	 BYTE PTR [ecx], al

; 147  : }

  00008	5d		 pop	 ebp
  00009	c2 04 00	 ret	 4
?SetHightlight@CPenThickness@@QAEX_N@Z ENDP		; CPenThickness::SetHightlight
_TEXT	ENDS
; Function compile flags: /Ogtp
; File D:\git\src\IBK\IBK_DRFN\ProjSrc\SrcChartEx\ChartOCX\IndicatorCondition\GraphData.cpp
; File C:\Program Files (x86)\Windows Kits\10\Include\10.0.22000.0\ucrt\string.h
; File D:\git\src\IBK\IBK_DRFN\ProjSrc\SrcChartEx\ChartOCX\IndicatorCondition\GraphData.cpp
; File C:\Program Files (x86)\Windows Kits\10\Include\10.0.22000.0\ucrt\string.h
; File D:\git\src\IBK\IBK_DRFN\ProjSrc\SrcChartEx\ChartOCX\IndicatorCondition\GraphData.cpp
; File C:\Program Files (x86)\Windows Kits\10\Include\10.0.22000.0\ucrt\string.h
; File D:\git\src\IBK\IBK_DRFN\ProjSrc\SrcChartEx\ChartOCX\IndicatorCondition\GraphData.cpp
; File C:\Program Files (x86)\Windows Kits\10\Include\10.0.22000.0\ucrt\string.h
; File D:\git\src\IBK\IBK_DRFN\ProjSrc\SrcChartEx\ChartOCX\IndicatorCondition\GraphData.cpp
; File C:\Program Files (x86)\Windows Kits\10\Include\10.0.22000.0\ucrt\string.h
; File D:\git\src\IBK\IBK_DRFN\ProjSrc\SrcChartEx\ChartOCX\IndicatorCondition\GraphData.cpp
; File C:\Program Files (x86)\Windows Kits\10\Include\10.0.22000.0\ucrt\string.h
; File D:\git\src\IBK\IBK_DRFN\ProjSrc\SrcChartEx\ChartOCX\IndicatorCondition\GraphData.cpp
; File C:\Program Files (x86)\Windows Kits\10\Include\10.0.22000.0\ucrt\string.h
; File D:\git\src\IBK\IBK_DRFN\ProjSrc\SrcChartEx\ChartOCX\IndicatorCondition\GraphData.cpp
; File C:\Program Files (x86)\Windows Kits\10\Include\10.0.22000.0\ucrt\string.h
; File D:\git\src\IBK\IBK_DRFN\ProjSrc\SrcChartEx\ChartOCX\IndicatorCondition\GraphData.cpp
; File C:\Program Files (x86)\Windows Kits\10\Include\10.0.22000.0\ucrt\string.h
; File D:\git\src\IBK\IBK_DRFN\ProjSrc\SrcChartEx\ChartOCX\IndicatorCondition\GraphData.cpp
;	COMDAT ?SetData@CPenThickness@@QAEXPBD@Z
_TEXT	SEGMENT
_szItem$1$ = -16					; size = 4
__$EHRec$ = -12						; size = 12
_strPenThickness$ = 8					; size = 4
_p_szPenThickness$ = 8					; size = 4
?SetData@CPenThickness@@QAEXPBD@Z PROC			; CPenThickness::SetData, COMDAT
; _this$ = ecx

; 86   : {

  00000	55		 push	 ebp
  00001	8b ec		 mov	 ebp, esp
  00003	6a ff		 push	 -1
  00005	68 00 00 00 00	 push	 __ehhandler$?SetData@CPenThickness@@QAEXPBD@Z
  0000a	64 a1 00 00 00
	00		 mov	 eax, DWORD PTR fs:0
  00010	50		 push	 eax
  00011	51		 push	 ecx
  00012	53		 push	 ebx
  00013	56		 push	 esi
  00014	57		 push	 edi
  00015	a1 00 00 00 00	 mov	 eax, DWORD PTR ___security_cookie
  0001a	33 c5		 xor	 eax, ebp
  0001c	50		 push	 eax
  0001d	8d 45 f4	 lea	 eax, DWORD PTR __$EHRec$[ebp]
  00020	64 a3 00 00 00
	00		 mov	 DWORD PTR fs:0, eax
  00026	8b d9		 mov	 ebx, ecx

; 87   : 	m_nThickness1	= 1;
; 88   : 	m_nThickness2	= 1;
; 89   : 	m_nThickness3	= 1;
; 90   : 	m_bIsHightlight	= false;
; 91   : 	//  ,   - ojtaso (20071213)
; 92   : 	m_nBaseLineThickness = 1;
; 93   : 
; 94   : 	if( !p_szPenThickness) return;

  00028	8b 75 08	 mov	 esi, DWORD PTR _p_szPenThickness$[ebp]
  0002b	c7 43 04 01 00
	00 00		 mov	 DWORD PTR [ebx+4], 1
  00032	c7 43 08 01 00
	00 00		 mov	 DWORD PTR [ebx+8], 1
  00039	c7 43 0c 01 00
	00 00		 mov	 DWORD PTR [ebx+12], 1
  00040	c6 03 00	 mov	 BYTE PTR [ebx], 0
  00043	c7 43 10 01 00
	00 00		 mov	 DWORD PTR [ebx+16], 1
  0004a	85 f6		 test	 esi, esi
  0004c	0f 84 38 01 00
	00		 je	 $LN1@SetData

; 95   : 	if( !*p_szPenThickness) return;

  00052	80 3e 00	 cmp	 BYTE PTR [esi], 0
  00055	0f 84 2f 01 00
	00		 je	 $LN1@SetData

; 96   : 
; 97   : 	CString strPenThickness;

  0005b	8d 4d 08	 lea	 ecx, DWORD PTR _strPenThickness$[ebp]
  0005e	ff 15 00 00 00
	00		 call	 DWORD PTR __imp_??0?$CStringT@DV?$StrTraitMFC_DLL@DV?$ChTraitsCRT@D@ATL@@@@@ATL@@QAE@XZ

; 98   : 	int nPenThicknessLen = strlen( p_szPenThickness);

  00064	8b fe		 mov	 edi, esi
  00066	c7 45 fc 00 00
	00 00		 mov	 DWORD PTR __$EHRec$[ebp+8], 0
  0006d	8d 4f 01	 lea	 ecx, DWORD PTR [edi+1]
$LL46@SetData:
  00070	8a 07		 mov	 al, BYTE PTR [edi]
  00072	47		 inc	 edi
  00073	84 c0		 test	 al, al
  00075	75 f9		 jne	 SHORT $LL46@SetData
  00077	2b f9		 sub	 edi, ecx

; 99   : 	char *szPenThickness = strPenThickness.GetBufferSetLength( nPenThicknessLen + 1);

  00079	8d 4d 08	 lea	 ecx, DWORD PTR _strPenThickness$[ebp]
  0007c	8d 47 01	 lea	 eax, DWORD PTR [edi+1]
  0007f	50		 push	 eax
  00080	ff 15 00 00 00
	00		 call	 DWORD PTR __imp_?GetBufferSetLength@?$CSimpleStringT@D$00@ATL@@QAEPADH@Z
  00086	8b d0		 mov	 edx, eax
  00088	89 45 f0	 mov	 DWORD PTR _szItem$1$[ebp], eax
  0008b	2b d6		 sub	 edx, esi
  0008d	0f 1f 00	 npad	 3
$LL21@SetData:

; 100  : 	strcpy( szPenThickness, p_szPenThickness);

  00090	8a 0e		 mov	 cl, BYTE PTR [esi]
  00092	8d 76 01	 lea	 esi, DWORD PTR [esi+1]
  00095	88 4c 32 ff	 mov	 BYTE PTR [edx+esi-1], cl
  00099	84 c9		 test	 cl, cl
  0009b	75 f3		 jne	 SHORT $LL21@SetData

; 101  : 	if( szPenThickness[ nPenThicknessLen - 1] != ';')

  0009d	80 7c 38 ff 3b	 cmp	 BYTE PTR [eax+edi-1], 59 ; 0000003bH
  000a2	74 06		 je	 SHORT $LN4@SetData

; 102  : 	{
; 103  : 		szPenThickness[ nPenThicknessLen] = ';';

  000a4	66 c7 04 38 3b
	00		 mov	 WORD PTR [eax+edi], 59	; 0000003bH
$LN4@SetData:
; File C:\Program Files (x86)\Windows Kits\10\Include\10.0.22000.0\ucrt\string.h

; 502  :         return const_cast<char*>(strchr(static_cast<char const*>(_String), _Ch));

  000aa	6a 3b		 push	 59			; 0000003bH
  000ac	50		 push	 eax
  000ad	e8 00 00 00 00	 call	 _strchr
; File D:\git\src\IBK\IBK_DRFN\ProjSrc\SrcChartEx\ChartOCX\IndicatorCondition\GraphData.cpp

; 108  : 	szPenThickness = strchr( szPenThickness, ';');

  000b2	8b f8		 mov	 edi, eax
; File C:\Program Files (x86)\Windows Kits\10\Include\10.0.22000.0\ucrt\string.h

; 502  :         return const_cast<char*>(strchr(static_cast<char const*>(_String), _Ch));

  000b4	83 c4 08	 add	 esp, 8
; File D:\git\src\IBK\IBK_DRFN\ProjSrc\SrcChartEx\ChartOCX\IndicatorCondition\GraphData.cpp

; 109  : 	if( szPenThickness) *szPenThickness++ = '\0';

  000b7	85 ff		 test	 edi, edi
  000b9	74 04		 je	 SHORT $LN5@SetData
  000bb	c6 07 00	 mov	 BYTE PTR [edi], 0
  000be	47		 inc	 edi
$LN5@SetData:

; 110  : 	m_nThickness1 = atoi( szItem);

  000bf	ff 75 f0	 push	 DWORD PTR _szItem$1$[ebp]
  000c2	ff 15 00 00 00
	00		 call	 DWORD PTR __imp__atoi
  000c8	83 c4 04	 add	 esp, 4
  000cb	89 43 04	 mov	 DWORD PTR [ebx+4], eax

; 111  : 	if( !szPenThickness) return;

  000ce	85 ff		 test	 edi, edi
  000d0	0f 84 ab 00 00
	00		 je	 $LN30@SetData

; 112  : 	if( !*szPenThickness) return;

  000d6	80 3f 00	 cmp	 BYTE PTR [edi], 0
  000d9	0f 84 a2 00 00
	00		 je	 $LN30@SetData
; File C:\Program Files (x86)\Windows Kits\10\Include\10.0.22000.0\ucrt\string.h

; 502  :         return const_cast<char*>(strchr(static_cast<char const*>(_String), _Ch));

  000df	6a 3b		 push	 59			; 0000003bH
  000e1	57		 push	 edi
  000e2	e8 00 00 00 00	 call	 _strchr
; File D:\git\src\IBK\IBK_DRFN\ProjSrc\SrcChartEx\ChartOCX\IndicatorCondition\GraphData.cpp

; 115  : 	szPenThickness = strchr( szPenThickness, ';');

  000e7	8b f0		 mov	 esi, eax
; File C:\Program Files (x86)\Windows Kits\10\Include\10.0.22000.0\ucrt\string.h

; 502  :         return const_cast<char*>(strchr(static_cast<char const*>(_String), _Ch));

  000e9	83 c4 08	 add	 esp, 8
; File D:\git\src\IBK\IBK_DRFN\ProjSrc\SrcChartEx\ChartOCX\IndicatorCondition\GraphData.cpp

; 116  : 	if( szPenThickness) *szPenThickness++ = '\0';

  000ec	85 f6		 test	 esi, esi
  000ee	74 04		 je	 SHORT $LN8@SetData
  000f0	c6 06 00	 mov	 BYTE PTR [esi], 0
  000f3	46		 inc	 esi
$LN8@SetData:

; 117  : 	m_nThickness2 = atoi( szItem);

  000f4	57		 push	 edi
  000f5	ff 15 00 00 00
	00		 call	 DWORD PTR __imp__atoi
  000fb	83 c4 04	 add	 esp, 4
  000fe	89 43 08	 mov	 DWORD PTR [ebx+8], eax

; 118  : 	if( !szPenThickness) return;

  00101	85 f6		 test	 esi, esi
  00103	74 7c		 je	 SHORT $LN30@SetData

; 119  : 	if( !*szPenThickness) return;

  00105	80 3e 00	 cmp	 BYTE PTR [esi], 0
  00108	74 77		 je	 SHORT $LN30@SetData
; File C:\Program Files (x86)\Windows Kits\10\Include\10.0.22000.0\ucrt\string.h

; 502  :         return const_cast<char*>(strchr(static_cast<char const*>(_String), _Ch));

  0010a	6a 3b		 push	 59			; 0000003bH
  0010c	56		 push	 esi
  0010d	e8 00 00 00 00	 call	 _strchr
; File D:\git\src\IBK\IBK_DRFN\ProjSrc\SrcChartEx\ChartOCX\IndicatorCondition\GraphData.cpp

; 122  : 	szPenThickness = strchr( szPenThickness, ';');

  00112	8b f8		 mov	 edi, eax
; File C:\Program Files (x86)\Windows Kits\10\Include\10.0.22000.0\ucrt\string.h

; 502  :         return const_cast<char*>(strchr(static_cast<char const*>(_String), _Ch));

  00114	83 c4 08	 add	 esp, 8
; File D:\git\src\IBK\IBK_DRFN\ProjSrc\SrcChartEx\ChartOCX\IndicatorCondition\GraphData.cpp

; 123  : 	if( szPenThickness) *szPenThickness++ = '\0';

  00117	85 ff		 test	 edi, edi
  00119	74 04		 je	 SHORT $LN11@SetData
  0011b	c6 07 00	 mov	 BYTE PTR [edi], 0
  0011e	47		 inc	 edi
$LN11@SetData:

; 124  : 	m_nThickness3 = atoi( szItem);

  0011f	56		 push	 esi
  00120	ff 15 00 00 00
	00		 call	 DWORD PTR __imp__atoi
  00126	83 c4 04	 add	 esp, 4
  00129	89 43 0c	 mov	 DWORD PTR [ebx+12], eax

; 125  : 	if( !szPenThickness) return;

  0012c	85 ff		 test	 edi, edi
  0012e	74 51		 je	 SHORT $LN30@SetData

; 126  : 	if( !*szPenThickness) return;

  00130	80 3f 00	 cmp	 BYTE PTR [edi], 0
  00133	74 4c		 je	 SHORT $LN30@SetData
; File C:\Program Files (x86)\Windows Kits\10\Include\10.0.22000.0\ucrt\string.h

; 502  :         return const_cast<char*>(strchr(static_cast<char const*>(_String), _Ch));

  00135	6a 3b		 push	 59			; 0000003bH
  00137	57		 push	 edi
  00138	e8 00 00 00 00	 call	 _strchr
; File D:\git\src\IBK\IBK_DRFN\ProjSrc\SrcChartEx\ChartOCX\IndicatorCondition\GraphData.cpp

; 129  : 	szPenThickness = strchr( szPenThickness, ';');

  0013d	8b f0		 mov	 esi, eax
; File C:\Program Files (x86)\Windows Kits\10\Include\10.0.22000.0\ucrt\string.h

; 502  :         return const_cast<char*>(strchr(static_cast<char const*>(_String), _Ch));

  0013f	83 c4 08	 add	 esp, 8
; File D:\git\src\IBK\IBK_DRFN\ProjSrc\SrcChartEx\ChartOCX\IndicatorCondition\GraphData.cpp

; 130  : 	if( szPenThickness) *szPenThickness++ = '\0';

  00142	85 f6		 test	 esi, esi
  00144	74 04		 je	 SHORT $LN14@SetData
  00146	c6 06 00	 mov	 BYTE PTR [esi], 0
  00149	46		 inc	 esi
$LN14@SetData:

; 131  : 	m_bIsHightlight = ( atoi( szItem) != 0);

  0014a	57		 push	 edi
  0014b	8b 3d 00 00 00
	00		 mov	 edi, DWORD PTR __imp__atoi
  00151	ff d7		 call	 edi
  00153	83 c4 04	 add	 esp, 4
  00156	85 c0		 test	 eax, eax
  00158	0f 95 c0	 setne	 al
  0015b	88 03		 mov	 BYTE PTR [ebx], al

; 132  : 	if( !szPenThickness) return;

  0015d	85 f6		 test	 esi, esi
  0015f	74 20		 je	 SHORT $LN30@SetData

; 133  : 	if( !*szPenThickness) return;

  00161	80 3e 00	 cmp	 BYTE PTR [esi], 0
  00164	74 1b		 je	 SHORT $LN30@SetData
; File C:\Program Files (x86)\Windows Kits\10\Include\10.0.22000.0\ucrt\string.h

; 502  :         return const_cast<char*>(strchr(static_cast<char const*>(_String), _Ch));

  00166	6a 3b		 push	 59			; 0000003bH
  00168	56		 push	 esi
  00169	e8 00 00 00 00	 call	 _strchr
  0016e	83 c4 08	 add	 esp, 8
; File D:\git\src\IBK\IBK_DRFN\ProjSrc\SrcChartEx\ChartOCX\IndicatorCondition\GraphData.cpp

; 138  : 	if( szPenThickness) *szPenThickness++ = '\0';

  00171	85 c0		 test	 eax, eax
  00173	74 03		 je	 SHORT $LN17@SetData
  00175	c6 00 00	 mov	 BYTE PTR [eax], 0
$LN17@SetData:

; 139  : 	m_nBaseLineThickness = atoi( szItem);

  00178	56		 push	 esi
  00179	ff d7		 call	 edi
  0017b	83 c4 04	 add	 esp, 4
  0017e	89 43 10	 mov	 DWORD PTR [ebx+16], eax
$LN30@SetData:

; 140  : 	if( !szPenThickness) return;
; 141  : 	if( !*szPenThickness) return;
; 142  : }

  00181	8d 4d 08	 lea	 ecx, DWORD PTR _strPenThickness$[ebp]
  00184	ff 15 00 00 00
	00		 call	 DWORD PTR __imp_??1?$CStringT@DV?$StrTraitMFC_DLL@DV?$ChTraitsCRT@D@ATL@@@@@ATL@@QAE@XZ
$LN1@SetData:
  0018a	8b 4d f4	 mov	 ecx, DWORD PTR __$EHRec$[ebp]
  0018d	64 89 0d 00 00
	00 00		 mov	 DWORD PTR fs:0, ecx
  00194	59		 pop	 ecx
  00195	5f		 pop	 edi
  00196	5e		 pop	 esi
  00197	5b		 pop	 ebx
  00198	8b e5		 mov	 esp, ebp
  0019a	5d		 pop	 ebp
  0019b	c2 04 00	 ret	 4
_TEXT	ENDS
;	COMDAT text$x
text$x	SEGMENT
__unwindfunclet$?SetData@CPenThickness@@QAEXPBD@Z$0:
  00000	8d 4d 08	 lea	 ecx, DWORD PTR _strPenThickness$[ebp]
  00003	ff 25 00 00 00
	00		 jmp	 DWORD PTR __imp_??1?$CStringT@DV?$StrTraitMFC_DLL@DV?$ChTraitsCRT@D@ATL@@@@@ATL@@QAE@XZ
  00009	cc		 int	 3
  0000a	cc		 int	 3
  0000b	cc		 int	 3
  0000c	cc		 int	 3
  0000d	cc		 int	 3
__ehhandler$?SetData@CPenThickness@@QAEXPBD@Z:
  0000e	90		 npad	 1
  0000f	90		 npad	 1
  00010	8b 54 24 08	 mov	 edx, DWORD PTR [esp+8]
  00014	8d 42 0c	 lea	 eax, DWORD PTR [edx+12]
  00017	8b 4a ec	 mov	 ecx, DWORD PTR [edx-20]
  0001a	33 c8		 xor	 ecx, eax
  0001c	e8 00 00 00 00	 call	 @__security_check_cookie@4
  00021	b8 00 00 00 00	 mov	 eax, OFFSET __ehfuncinfo$?SetData@CPenThickness@@QAEXPBD@Z
  00026	e9 00 00 00 00	 jmp	 ___CxxFrameHandler3
text$x	ENDS
?SetData@CPenThickness@@QAEXPBD@Z ENDP			; CPenThickness::SetData
; Function compile flags: /Ogtp
; File D:\git\src\IBK\IBK_DRFN\ProjSrc\SrcChartEx\ChartOCX\IndicatorCondition\GraphData.cpp
;	COMDAT ??0CPenThickness@@QAE@ABV0@@Z
_TEXT	SEGMENT
_data$ = 8						; size = 4
??0CPenThickness@@QAE@ABV0@@Z PROC			; CPenThickness::CPenThickness, COMDAT
; _this$ = ecx

; 81   : {

  00000	55		 push	 ebp
  00001	8b ec		 mov	 ebp, esp

; 78   : 	m_bIsHightlight(data.IsHightlight()),

  00003	8b 55 08	 mov	 edx, DWORD PTR _data$[ebp]
  00006	8a 02		 mov	 al, BYTE PTR [edx]
  00008	88 01		 mov	 BYTE PTR [ecx], al

; 75   : 	m_nThickness1(data.GetThickness1()),

  0000a	8b 42 04	 mov	 eax, DWORD PTR [edx+4]
  0000d	89 41 04	 mov	 DWORD PTR [ecx+4], eax

; 76   : 	m_nThickness2(data.GetThickness2()),

  00010	8b 42 08	 mov	 eax, DWORD PTR [edx+8]
  00013	89 41 08	 mov	 DWORD PTR [ecx+8], eax

; 77   : 	m_nThickness3(data.GetThickness3()),

  00016	8b 42 0c	 mov	 eax, DWORD PTR [edx+12]
  00019	89 41 0c	 mov	 DWORD PTR [ecx+12], eax

; 79   : 	//  ,   - ojtaso (20071213)
; 80   : 	m_nBaseLineThickness(data.GetBaseLineThickness())

  0001c	8b 42 10	 mov	 eax, DWORD PTR [edx+16]
  0001f	89 41 10	 mov	 DWORD PTR [ecx+16], eax

; 82   : }

  00022	8b c1		 mov	 eax, ecx
  00024	5d		 pop	 ebp
  00025	c2 04 00	 ret	 4
??0CPenThickness@@QAE@ABV0@@Z ENDP			; CPenThickness::CPenThickness
_TEXT	ENDS
; Function compile flags: /Ogtp
; File D:\git\src\IBK\IBK_DRFN\ProjSrc\SrcChartEx\ChartOCX\IndicatorCondition\GraphData.cpp
;	COMDAT ??0CPenThickness@@QAE@HHHH_N@Z
_TEXT	SEGMENT
_nThickness1$ = 8					; size = 4
_nThickness2$ = 12					; size = 4
_nThickness3$ = 16					; size = 4
_nBaseLineThickness$ = 20				; size = 4
_bIsHightlight$ = 24					; size = 1
??0CPenThickness@@QAE@HHHH_N@Z PROC			; CPenThickness::CPenThickness, COMDAT
; _this$ = ecx

; 71   : {

  00000	55		 push	 ebp
  00001	8b ec		 mov	 ebp, esp

; 68   : 	m_bIsHightlight(bIsHightlight),

  00003	8a 45 18	 mov	 al, BYTE PTR _bIsHightlight$[ebp]
  00006	88 01		 mov	 BYTE PTR [ecx], al

; 65   : 	m_nThickness1(nThickness1),

  00008	8b 45 08	 mov	 eax, DWORD PTR _nThickness1$[ebp]
  0000b	89 41 04	 mov	 DWORD PTR [ecx+4], eax

; 66   : 	m_nThickness2(nThickness2),

  0000e	8b 45 0c	 mov	 eax, DWORD PTR _nThickness2$[ebp]
  00011	89 41 08	 mov	 DWORD PTR [ecx+8], eax

; 67   : 	m_nThickness3(nThickness3),

  00014	8b 45 10	 mov	 eax, DWORD PTR _nThickness3$[ebp]
  00017	89 41 0c	 mov	 DWORD PTR [ecx+12], eax

; 69   : 	//  ,   - ojtaso (20071213)
; 70   : 	m_nBaseLineThickness(nBaseLineThickness)

  0001a	8b 45 14	 mov	 eax, DWORD PTR _nBaseLineThickness$[ebp]
  0001d	89 41 10	 mov	 DWORD PTR [ecx+16], eax

; 72   : }

  00020	8b c1		 mov	 eax, ecx
  00022	5d		 pop	 ebp
  00023	c2 14 00	 ret	 20			; 00000014H
??0CPenThickness@@QAE@HHHH_N@Z ENDP			; CPenThickness::CPenThickness
_TEXT	ENDS
; Function compile flags: /Ogtp
; File D:\git\src\IBK\IBK_DRFN\ProjSrc\SrcChartEx\ChartOCX\IndicatorCondition\GraphData.cpp
;	COMDAT ??0CPenThickness@@QAE@XZ
_TEXT	SEGMENT
??0CPenThickness@@QAE@XZ PROC				; CPenThickness::CPenThickness, COMDAT
; _this$ = ecx

; 57   : 	m_bIsHightlight(false),

  00000	c6 01 00	 mov	 BYTE PTR [ecx], 0

; 61   : }

  00003	8b c1		 mov	 eax, ecx
  00005	c7 41 04 01 00
	00 00		 mov	 DWORD PTR [ecx+4], 1
  0000c	c7 41 08 01 00
	00 00		 mov	 DWORD PTR [ecx+8], 1
  00013	c7 41 0c 01 00
	00 00		 mov	 DWORD PTR [ecx+12], 1
  0001a	c7 41 10 01 00
	00 00		 mov	 DWORD PTR [ecx+16], 1
  00021	c3		 ret	 0
??0CPenThickness@@QAE@XZ ENDP				; CPenThickness::CPenThickness
_TEXT	ENDS
; Function compile flags: /Ogtp
; File D:\git\src\IBK\IBK_DRFN\ProjSrc\SrcChartEx\ChartOCX\IndicatorCondition\GraphData.cpp
;	COMDAT ??8CPenThickness@@QBE_NABV0@@Z
_TEXT	SEGMENT
_data$ = 8						; size = 4
??8CPenThickness@@QBE_NABV0@@Z PROC			; CPenThickness::operator==, COMDAT
; _this$ = ecx

; 39   : {

  00000	55		 push	 ebp
  00001	8b ec		 mov	 ebp, esp

; 40   : 	if(m_nThickness1 != data.GetThickness1())

  00003	8b 55 08	 mov	 edx, DWORD PTR _data$[ebp]
  00006	8b 41 04	 mov	 eax, DWORD PTR [ecx+4]
  00009	3b 42 04	 cmp	 eax, DWORD PTR [edx+4]
  0000c	75 23		 jne	 SHORT $LN7@operator

; 41   : 		return false;
; 42   : 	if(m_nThickness2 != data.GetThickness2())

  0000e	8b 41 08	 mov	 eax, DWORD PTR [ecx+8]
  00011	3b 42 08	 cmp	 eax, DWORD PTR [edx+8]
  00014	75 1b		 jne	 SHORT $LN7@operator

; 43   : 		return false;
; 44   : 	if(m_nThickness3 != data.GetThickness3())

  00016	8b 41 0c	 mov	 eax, DWORD PTR [ecx+12]
  00019	3b 42 0c	 cmp	 eax, DWORD PTR [edx+12]
  0001c	75 13		 jne	 SHORT $LN7@operator

; 45   : 		return false;
; 46   : 	//  ,   - ojtaso (20071213)
; 47   : 	if(m_nBaseLineThickness != data.GetBaseLineThickness())

  0001e	8b 41 10	 mov	 eax, DWORD PTR [ecx+16]
  00021	3b 42 10	 cmp	 eax, DWORD PTR [edx+16]
  00024	75 0b		 jne	 SHORT $LN7@operator

; 49   : 	
; 50   : 	return (m_bIsHightlight == data.IsHightlight());

  00026	8a 01		 mov	 al, BYTE PTR [ecx]
  00028	3a 02		 cmp	 al, BYTE PTR [edx]
  0002a	0f 94 c0	 sete	 al

; 51   : }

  0002d	5d		 pop	 ebp
  0002e	c2 04 00	 ret	 4
$LN7@operator:

; 48   : 		return false;

  00031	32 c0		 xor	 al, al

; 51   : }

  00033	5d		 pop	 ebp
  00034	c2 04 00	 ret	 4
??8CPenThickness@@QBE_NABV0@@Z ENDP			; CPenThickness::operator==
_TEXT	ENDS
; Function compile flags: /Ogtp
; File D:\git\src\IBK\IBK_DRFN\ProjSrc\SrcChartEx\ChartOCX\IndicatorCondition\GraphData.cpp
;	COMDAT ??4CPenThickness@@QAEAAV0@ABV0@@Z
_TEXT	SEGMENT
_data$ = 8						; size = 4
??4CPenThickness@@QAEAAV0@ABV0@@Z PROC			; CPenThickness::operator=, COMDAT
; _this$ = ecx

; 23   : {

  00000	55		 push	 ebp
  00001	8b ec		 mov	 ebp, esp

; 24   : 	if(this == &data)

  00003	8b 55 08	 mov	 edx, DWORD PTR _data$[ebp]
  00006	3b ca		 cmp	 ecx, edx
  00008	74 1c		 je	 SHORT $LN4@operator

; 25   : 		return *this;
; 26   : 
; 27   : 	m_nThickness1 = data.GetThickness1();

  0000a	8b 42 04	 mov	 eax, DWORD PTR [edx+4]
  0000d	89 41 04	 mov	 DWORD PTR [ecx+4], eax

; 28   : 	m_nThickness2 = data.GetThickness2();

  00010	8b 42 08	 mov	 eax, DWORD PTR [edx+8]
  00013	89 41 08	 mov	 DWORD PTR [ecx+8], eax

; 29   : 	m_nThickness3 = data.GetThickness3();

  00016	8b 42 0c	 mov	 eax, DWORD PTR [edx+12]
  00019	89 41 0c	 mov	 DWORD PTR [ecx+12], eax

; 30   : 	m_bIsHightlight = data.IsHightlight();

  0001c	8a 02		 mov	 al, BYTE PTR [edx]
  0001e	88 01		 mov	 BYTE PTR [ecx], al

; 31   : 
; 32   : 	//  ,   - ojtaso (20071213)
; 33   : 	m_nBaseLineThickness = data.GetBaseLineThickness();

  00020	8b 42 10	 mov	 eax, DWORD PTR [edx+16]
  00023	89 41 10	 mov	 DWORD PTR [ecx+16], eax
$LN4@operator:

; 34   : 
; 35   : 	return *this;
; 36   : }

  00026	8b c1		 mov	 eax, ecx
  00028	5d		 pop	 ebp
  00029	c2 04 00	 ret	 4
??4CPenThickness@@QAEAAV0@ABV0@@Z ENDP			; CPenThickness::operator=
_TEXT	ENDS
; Function compile flags: /Ogtp
; File C:\Program Files (x86)\Microsoft Visual Studio\2019\Community\VC\Tools\MSVC\14.29.30133\atlmfc\include\afx.inl
;	COMDAT ?Dump@CObject@@UBEXAAVCDumpContext@@@Z
_TEXT	SEGMENT
___formal$ = 8						; size = 4
?Dump@CObject@@UBEXAAVCDumpContext@@@Z PROC		; CObject::Dump, COMDAT
; _this$ = ecx

; 122  : 	{ /* no dumping in release builds */ }

  00000	c2 04 00	 ret	 4
?Dump@CObject@@UBEXAAVCDumpContext@@@Z ENDP		; CObject::Dump
_TEXT	ENDS
; Function compile flags: /Ogtp
; File C:\Program Files (x86)\Microsoft Visual Studio\2019\Community\VC\Tools\MSVC\14.29.30133\atlmfc\include\afx.inl
;	COMDAT ?AssertValid@CObject@@UBEXXZ
_TEXT	SEGMENT
?AssertValid@CObject@@UBEXXZ PROC			; CObject::AssertValid, COMDAT
; _this$ = ecx

; 120  : 	{ /* no asserts in release builds */ }

  00000	c2 00 00	 ret	 0
?AssertValid@CObject@@UBEXXZ ENDP			; CObject::AssertValid
_TEXT	ENDS
; Function compile flags: /Ogtp
; File C:\Program Files (x86)\Microsoft Visual Studio\2019\Community\VC\Tools\MSVC\14.29.30133\atlmfc\include\afx.inl
;	COMDAT ?Serialize@CObject@@UAEXAAVCArchive@@@Z
_TEXT	SEGMENT
___formal$ = 8						; size = 4
?Serialize@CObject@@UAEXAAVCArchive@@@Z PROC		; CObject::Serialize, COMDAT
; _this$ = ecx

; 106  : 	{ /* CObject does not serialize anything by default */ }

  00000	c2 04 00	 ret	 4
?Serialize@CObject@@UAEXAAVCArchive@@@Z ENDP		; CObject::Serialize
_TEXT	ENDS
; Function compile flags: /Ogtp
; File C:\Program Files (x86)\Microsoft Visual Studio\2019\Community\VC\Tools\MSVC\14.29.30133\atlmfc\include\afx.inl
;	COMDAT ??1CObject@@UAE@XZ
_TEXT	SEGMENT
??1CObject@@UAE@XZ PROC					; CObject::~CObject, COMDAT
; _this$ = ecx

; 104  : 	{ }

  00000	c2 00 00	 ret	 0
??1CObject@@UAE@XZ ENDP					; CObject::~CObject
_TEXT	ENDS
; Function compile flags: /Ogtp
; File C:\Program Files (x86)\Microsoft Visual Studio\2019\Community\VC\Tools\MSVC\14.29.30133\atlmfc\include\afx.h
;	COMDAT ?AfxCrtErrorCheck@@YAHH@Z
_TEXT	SEGMENT
_error$ = 8						; size = 4
?AfxCrtErrorCheck@@YAHH@Z PROC				; AfxCrtErrorCheck, COMDAT

; 503  : {

  00000	55		 push	 ebp
  00001	8b ec		 mov	 ebp, esp

; 504  : 	switch(error)

  00003	8b 4d 08	 mov	 ecx, DWORD PTR _error$[ebp]
  00006	83 f9 50	 cmp	 ecx, 80			; 00000050H
  00009	77 17		 ja	 SHORT $LN9@AfxCrtErro
  0000b	0f b6 81 00 00
	00 00		 movzx	 eax, BYTE PTR $LN11@AfxCrtErro[ecx]
  00012	ff 24 85 00 00
	00 00		 jmp	 DWORD PTR $LN12@AfxCrtErro[eax*4]
$LN4@AfxCrtErro:

; 505  : 	{
; 506  : 	case ENOMEM:
; 507  : 		AfxThrowMemoryException();

  00019	e9 00 00 00 00	 jmp	 ?AfxThrowMemoryException@@YGXXZ ; AfxThrowMemoryException
$LN7@AfxCrtErro:

; 518  : 		break;
; 519  : 	}
; 520  : 	return error;

  0001e	8b c1		 mov	 eax, ecx

; 521  : }

  00020	5d		 pop	 ebp
  00021	c3		 ret	 0
$LN9@AfxCrtErro:

; 508  : 		break;
; 509  : 	case EINVAL:
; 510  : 	case ERANGE:
; 511  : 		AfxThrowInvalidArgException();
; 512  : 		break;
; 513  : 	case STRUNCATE:
; 514  : 	case 0:
; 515  : 		break;
; 516  : 	default:
; 517  : 		AfxThrowInvalidArgException();

  00022	e9 00 00 00 00	 jmp	 ?AfxThrowInvalidArgException@@YGXXZ ; AfxThrowInvalidArgException
  00027	90		 npad	 1
$LN12@AfxCrtErro:

; 521  : }

  00028	00 00 00 00	 DD	 $LN7@AfxCrtErro
  0002c	00 00 00 00	 DD	 $LN4@AfxCrtErro
  00030	00 00 00 00	 DD	 $LN9@AfxCrtErro
  00034	00 00 00 00	 DD	 $LN9@AfxCrtErro
$LN11@AfxCrtErro:
  00038	00		 DB	 0
  00039	03		 DB	 3
  0003a	03		 DB	 3
  0003b	03		 DB	 3
  0003c	03		 DB	 3
  0003d	03		 DB	 3
  0003e	03		 DB	 3
  0003f	03		 DB	 3
  00040	03		 DB	 3
  00041	03		 DB	 3
  00042	03		 DB	 3
  00043	03		 DB	 3
  00044	01		 DB	 1
  00045	03		 DB	 3
  00046	03		 DB	 3
  00047	03		 DB	 3
  00048	03		 DB	 3
  00049	03		 DB	 3
  0004a	03		 DB	 3
  0004b	03		 DB	 3
  0004c	03		 DB	 3
  0004d	03		 DB	 3
  0004e	02		 DB	 2
  0004f	03		 DB	 3
  00050	03		 DB	 3
  00051	03		 DB	 3
  00052	03		 DB	 3
  00053	03		 DB	 3
  00054	03		 DB	 3
  00055	03		 DB	 3
  00056	03		 DB	 3
  00057	03		 DB	 3
  00058	03		 DB	 3
  00059	03		 DB	 3
  0005a	02		 DB	 2
  0005b	03		 DB	 3
  0005c	03		 DB	 3
  0005d	03		 DB	 3
  0005e	03		 DB	 3
  0005f	03		 DB	 3
  00060	03		 DB	 3
  00061	03		 DB	 3
  00062	03		 DB	 3
  00063	03		 DB	 3
  00064	03		 DB	 3
  00065	03		 DB	 3
  00066	03		 DB	 3
  00067	03		 DB	 3
  00068	03		 DB	 3
  00069	03		 DB	 3
  0006a	03		 DB	 3
  0006b	03		 DB	 3
  0006c	03		 DB	 3
  0006d	03		 DB	 3
  0006e	03		 DB	 3
  0006f	03		 DB	 3
  00070	03		 DB	 3
  00071	03		 DB	 3
  00072	03		 DB	 3
  00073	03		 DB	 3
  00074	03		 DB	 3
  00075	03		 DB	 3
  00076	03		 DB	 3
  00077	03		 DB	 3
  00078	03		 DB	 3
  00079	03		 DB	 3
  0007a	03		 DB	 3
  0007b	03		 DB	 3
  0007c	03		 DB	 3
  0007d	03		 DB	 3
  0007e	03		 DB	 3
  0007f	03		 DB	 3
  00080	03		 DB	 3
  00081	03		 DB	 3
  00082	03		 DB	 3
  00083	03		 DB	 3
  00084	03		 DB	 3
  00085	03		 DB	 3
  00086	03		 DB	 3
  00087	03		 DB	 3
  00088	00		 DB	 0
?AfxCrtErrorCheck@@YAHH@Z ENDP				; AfxCrtErrorCheck
_TEXT	ENDS
; Function compile flags: /Ogtp
; File D:\git\src\IBK\IBK_DRFN\ProjSrc\SrcChartEx\ChartOCX\IndicatorCondition\GraphData.cpp
;	COMDAT ?__empty_global_delete@@YAXPAXI@Z
_TEXT	SEGMENT
___formal$ = 8						; size = 4
___formal$ = 12						; size = 4
?__empty_global_delete@@YAXPAXI@Z PROC			; __empty_global_delete, COMDAT

  00000	c2 00 00	 ret	 0
?__empty_global_delete@@YAXPAXI@Z ENDP			; __empty_global_delete
_TEXT	ENDS
; Function compile flags: /Ogtp
; File D:\git\src\IBK\IBK_DRFN\ProjSrc\SrcChartEx\ChartOCX\IndicatorCondition\GraphData.cpp
;	COMDAT ?__empty_global_delete@@YAXPAX@Z
_TEXT	SEGMENT
___formal$ = 8						; size = 4
?__empty_global_delete@@YAXPAX@Z PROC			; __empty_global_delete, COMDAT

  00000	c2 00 00	 ret	 0
?__empty_global_delete@@YAXPAX@Z ENDP			; __empty_global_delete
_TEXT	ENDS
END
