; Listing generated by Microsoft (R) Optimizing Compiler Version 19.29.30145.0 

	TITLE	D:\git\src\IBK\IBK_DRFN\#DRfn-CS\_Obj\IndicatorCondition\GraphData.obj
	.686P
	.XMM
	include listing.inc
	.model	flat

INCLUDELIB MSVCRT
INCLUDELIB OLDNAMES

PUBLIC	?__empty_global_delete@@YAXPAX@Z		; __empty_global_delete
PUBLIC	?__empty_global_delete@@YAXPAXI@Z		; __empty_global_delete
PUBLIC	?AfxCrtErrorCheck@@YAHH@Z			; AfxCrtErrorCheck
PUBLIC	??1CObject@@UAE@XZ				; CObject::~CObject
PUBLIC	?Serialize@CObject@@UAEXAAVCArchive@@@Z		; CObject::Serialize
PUBLIC	?AssertValid@CObject@@UBEXXZ			; CObject::AssertValid
PUBLIC	?Dump@CObject@@UBEXAAVCDumpContext@@@Z		; CObject::Dump
PUBLIC	??4CPenThickness@@QAEAAV0@ABV0@@Z		; CPenThickness::operator=
PUBLIC	??8CPenThickness@@QBE_NABV0@@Z			; CPenThickness::operator==
PUBLIC	??0CPenThickness@@QAE@XZ			; CPenThickness::CPenThickness
PUBLIC	??0CPenThickness@@QAE@HHHH_N@Z			; CPenThickness::CPenThickness
PUBLIC	??0CPenThickness@@QAE@ABV0@@Z			; CPenThickness::CPenThickness
PUBLIC	?SetData@CPenThickness@@QAEXPBD@Z		; CPenThickness::SetData
PUBLIC	?SetHightlight@CPenThickness@@QAEX_N@Z		; CPenThickness::SetHightlight
PUBLIC	?SetThickness@CPenThickness@@QAEXHHH@Z		; CPenThickness::SetThickness
PUBLIC	?SetThickness1@CPenThickness@@QAEXH@Z		; CPenThickness::SetThickness1
PUBLIC	?SetThickness2@CPenThickness@@QAEXH@Z		; CPenThickness::SetThickness2
PUBLIC	?SetThickness3@CPenThickness@@QAEXH@Z		; CPenThickness::SetThickness3
PUBLIC	?ReversedHightlight@CPenThickness@@QAEXXZ	; CPenThickness::ReversedHightlight
PUBLIC	?IsHightlight@CPenThickness@@QBE_NXZ		; CPenThickness::IsHightlight
PUBLIC	?GetThickness1@CPenThickness@@QBEHXZ		; CPenThickness::GetThickness1
PUBLIC	?GetThickness2@CPenThickness@@QBEHXZ		; CPenThickness::GetThickness2
PUBLIC	?GetThickness3@CPenThickness@@QBEHXZ		; CPenThickness::GetThickness3
PUBLIC	?GetDrawingThickness1@CPenThickness@@QBEHXZ	; CPenThickness::GetDrawingThickness1
PUBLIC	?GetDrawingThickness2@CPenThickness@@QBEHXZ	; CPenThickness::GetDrawingThickness2
PUBLIC	?GetDrawingThickness3@CPenThickness@@QBEHXZ	; CPenThickness::GetDrawingThickness3
PUBLIC	?GetStringData@CPenThickness@@QBEXAAV?$CStringT@DV?$StrTraitMFC_DLL@DV?$ChTraitsCRT@D@ATL@@@@@ATL@@@Z ; CPenThickness::GetStringData
PUBLIC	?SetBaseLineThickness@CPenThickness@@QAEXH@Z	; CPenThickness::SetBaseLineThickness
PUBLIC	?GetBaseLineThickness@CPenThickness@@QBEHXZ	; CPenThickness::GetBaseLineThickness
PUBLIC	?GetDrawingThickness@CPenThickness@@ABEHH@Z	; CPenThickness::GetDrawingThickness
PUBLIC	??4CGraphDataDrawingData@@QAEAAV0@ABV0@@Z	; CGraphDataDrawingData::operator=
PUBLIC	??8CGraphDataDrawingData@@QAE_NABV0@@Z		; CGraphDataDrawingData::operator==
PUBLIC	??0CGraphDataDrawingData@@QAE@XZ		; CGraphDataDrawingData::CGraphDataDrawingData
PUBLIC	??0CGraphDataDrawingData@@QAE@PBD@Z		; CGraphDataDrawingData::CGraphDataDrawingData
PUBLIC	??0CGraphDataDrawingData@@QAE@_N000HH@Z		; CGraphDataDrawingData::CGraphDataDrawingData
PUBLIC	??0CGraphDataDrawingData@@QAE@ABV0@@Z		; CGraphDataDrawingData::CGraphDataDrawingData
PUBLIC	?SetDoesCalcRiseFallRate_LowHigh@CGraphDataDrawingData@@QAEX_N@Z ; CGraphDataDrawingData::SetDoesCalcRiseFallRate_LowHigh
PUBLIC	?SetDoesCalcRiseFallRate_LowCur@CGraphDataDrawingData@@QAEX_N@Z ; CGraphDataDrawingData::SetDoesCalcRiseFallRate_LowCur
PUBLIC	?SetDoesCalcRiseFallRate_HighCur@CGraphDataDrawingData@@QAEX_N@Z ; CGraphDataDrawingData::SetDoesCalcRiseFallRate_HighCur
PUBLIC	?SetDoesCalcRate_PrevCur@CGraphDataDrawingData@@QAEX_N@Z ; CGraphDataDrawingData::SetDoesCalcRate_PrevCur
PUBLIC	?SetCalcRiseFallRate_CurData@CGraphDataDrawingData@@QAEXH@Z ; CGraphDataDrawingData::SetCalcRiseFallRate_CurData
PUBLIC	?SetShowOHLC@CGraphDataDrawingData@@QAEXH@Z	; CGraphDataDrawingData::SetShowOHLC
PUBLIC	?DoesAllDefaultData@CGraphDataDrawingData@@QBE_NXZ ; CGraphDataDrawingData::DoesAllDefaultData
PUBLIC	?DoesCalcRiseFallRate_LowHigh@CGraphDataDrawingData@@QBE_NXZ ; CGraphDataDrawingData::DoesCalcRiseFallRate_LowHigh
PUBLIC	?DoesCalcRiseFallRate_LowCur@CGraphDataDrawingData@@QBE_NXZ ; CGraphDataDrawingData::DoesCalcRiseFallRate_LowCur
PUBLIC	?DoesCalcRiseFallRate_HighCur@CGraphDataDrawingData@@QBE_NXZ ; CGraphDataDrawingData::DoesCalcRiseFallRate_HighCur
PUBLIC	?DoesCalcRate_PrevCur@CGraphDataDrawingData@@QBE_NXZ ; CGraphDataDrawingData::DoesCalcRate_PrevCur
PUBLIC	?GetCalcRiseFallRate_CurData@CGraphDataDrawingData@@QBEHXZ ; CGraphDataDrawingData::GetCalcRiseFallRate_CurData
PUBLIC	?GetShowOHLC@CGraphDataDrawingData@@QBEHXZ	; CGraphDataDrawingData::GetShowOHLC
PUBLIC	?GetData@CGraphDataDrawingData@@QBEXAAV?$CStringT@DV?$StrTraitMFC_DLL@DV?$ChTraitsCRT@D@ATL@@@@@ATL@@@Z ; CGraphDataDrawingData::GetData
PUBLIC	?SetData@CGraphDataDrawingData@@AAEXPBD@Z	; CGraphDataDrawingData::SetData
PUBLIC	?ClearData@CGraphDataDrawingData@@QAEXXZ	; CGraphDataDrawingData::ClearData
PUBLIC	??4CSignalData@@QAEAAV0@ABV0@@Z			; CSignalData::operator=
PUBLIC	??8CSignalData@@QAE_NABV0@@Z			; CSignalData::operator==
PUBLIC	??0CSignalData@@QAE@_N0@Z			; CSignalData::CSignalData
PUBLIC	??0CSignalData@@QAE@PBD@Z			; CSignalData::CSignalData
PUBLIC	??0CSignalData@@QAE@ABV0@@Z			; CSignalData::CSignalData
PUBLIC	??1CSignalData@@QAE@XZ				; CSignalData::~CSignalData
PUBLIC	?SetUse@CSignalData@@QAEX_N@Z			; CSignalData::SetUse
PUBLIC	?SetShow@CSignalData@@QAEX_N@Z			; CSignalData::SetShow
PUBLIC	?IsUse@CSignalData@@QBE_NXZ			; CSignalData::IsUse
PUBLIC	?IsShow@CSignalData@@QBE_NXZ			; CSignalData::IsShow
PUBLIC	?IsDraw@CSignalData@@QBE_NXZ			; CSignalData::IsDraw
PUBLIC	?GetData@CSignalData@@QBEXAAV?$CStringT@DV?$StrTraitMFC_DLL@DV?$ChTraitsCRT@D@ATL@@@@@ATL@@@Z ; CSignalData::GetData
PUBLIC	?SetData@CSignalData@@AAEXPBD@Z			; CSignalData::SetData
PUBLIC	?ClearData@CSignalData@@QAEXXZ			; CSignalData::ClearData
PUBLIC	?ClearCalcDataForDraw@CSignalData@@QAEXXZ	; CSignalData::ClearCalcDataForDraw
PUBLIC	??_FCSignalData@@QAEXXZ				; CSignalData::`default constructor closure'
PUBLIC	??0CGraphData@@QAE@XZ				; CGraphData::CGraphData
PUBLIC	??0CGraphData@@QAE@PBDPAUHWND__@@@Z		; CGraphData::CGraphData
PUBLIC	?GetData@CGraphData@@QBEXAAV?$CStringT@DV?$StrTraitMFC_DLL@DV?$ChTraitsCRT@D@ATL@@@@@ATL@@PBD@Z ; CGraphData::GetData
PUBLIC	??4CGraphData@@QAEAAV0@ABV0@@Z			; CGraphData::operator=
PUBLIC	?ClearData@CGraphData@@QAEXXZ			; CGraphData::ClearData
PUBLIC	?GetPacketNames@CGraphData@@QBE?AV?$CStringT@DV?$StrTraitMFC_DLL@DV?$ChTraitsCRT@D@ATL@@@@@ATL@@XZ ; CGraphData::GetPacketNames
PUBLIC	?SetPacketNames@CGraphData@@QAEXABV?$CStringT@DV?$StrTraitMFC_DLL@DV?$ChTraitsCRT@D@ATL@@@@@ATL@@@Z ; CGraphData::SetPacketNames
PUBLIC	?GetSignalData@CGraphData@@QBE?AVCSignalData@@XZ ; CGraphData::GetSignalData
PUBLIC	?GetSignalData@CGraphData@@QAEAAVCSignalData@@XZ ; CGraphData::GetSignalData
PUBLIC	?IsSignalUse@CGraphData@@QBE_NXZ		; CGraphData::IsSignalUse
PUBLIC	?IsSignalShow@CGraphData@@QBE_NXZ		; CGraphData::IsSignalShow
PUBLIC	?SetSignalData@CGraphData@@QAEXABVCSignalData@@@Z ; CGraphData::SetSignalData
PUBLIC	?SetSignalData@CGraphData@@QAEX_N0@Z		; CGraphData::SetSignalData
PUBLIC	?GetGraphDataDrawingData@CGraphData@@QBE?AVCGraphDataDrawingData@@XZ ; CGraphData::GetGraphDataDrawingData
PUBLIC	?GetGraphDataDrawingData@CGraphData@@QAEAAVCGraphDataDrawingData@@XZ ; CGraphData::GetGraphDataDrawingData
PUBLIC	?SetGraphDataDrawingData@CGraphData@@QAEXABVCGraphDataDrawingData@@@Z ; CGraphData::SetGraphDataDrawingData
PUBLIC	?SetIndicatorName@CGraphData@@MAEXABV?$CStringT@DV?$StrTraitMFC_DLL@DV?$ChTraitsCRT@D@ATL@@@@@ATL@@@Z ; CGraphData::SetIndicatorName
PUBLIC	?SetGraphName@CGraphData@@MAEXABV?$CStringT@DV?$StrTraitMFC_DLL@DV?$ChTraitsCRT@D@ATL@@@@@ATL@@@Z ; CGraphData::SetGraphName
PUBLIC	?GetGraphName@CGraphData@@QBE?AV?$CStringT@DV?$StrTraitMFC_DLL@DV?$ChTraitsCRT@D@ATL@@@@@ATL@@XZ ; CGraphData::GetGraphName
PUBLIC	?GetIndicatorName@CGraphData@@QBE?AV?$CStringT@DV?$StrTraitMFC_DLL@DV?$ChTraitsCRT@D@ATL@@@@@ATL@@XZ ; CGraphData::GetIndicatorName
PUBLIC	?GetGraphName2@CGraphData@@QBE?AV?$CStringT@DV?$StrTraitMFC_DLL@DV?$ChTraitsCRT@D@ATL@@@@@ATL@@XZ ; CGraphData::GetGraphName2
PUBLIC	?GetIndicatorName2@CGraphData@@QBE?AV?$CStringT@DV?$StrTraitMFC_DLL@DV?$ChTraitsCRT@D@ATL@@@@@ATL@@XZ ; CGraphData::GetIndicatorName2
PUBLIC	??1CGraphData@@QAE@XZ				; CGraphData::~CGraphData
PUBLIC	??0CGraphData@@QAE@ABV0@@Z			; CGraphData::CGraphData
PUBLIC	??4CSubGraphDataBase@@QAEAAV0@ABV0@@Z		; CSubGraphDataBase::operator=
PUBLIC	??0CSubGraphDataBase@@QAE@XZ			; CSubGraphDataBase::CSubGraphDataBase
PUBLIC	??0CSubGraphDataBase@@QAE@W4GRAPHTYPE@CGraphBaseData@@ABVCGraphStyle@@ABVCGraphDrawStyle@@ABV?$CStringT@DV?$StrTraitMFC_DLL@DV?$ChTraitsCRT@D@ATL@@@@@ATL@@3_NABVCGraphColor@@ABVCPenThickness@@ABVCGraphPaintStyle@@ABVCGraphBaseLineStyle@@@Z ; CSubGraphDataBase::CSubGraphDataBase
PUBLIC	??0CSubGraphDataBase@@QAE@ABV0@@Z		; CSubGraphDataBase::CSubGraphDataBase
PUBLIC	??0CSubGraphDataBase@@QAE@PBDPAUHWND__@@0@Z	; CSubGraphDataBase::CSubGraphDataBase
PUBLIC	??1CSubGraphDataBase@@QAE@XZ			; CSubGraphDataBase::~CSubGraphDataBase
PUBLIC	?SetTitleEndPosition@CSubGraphDataBase@@QAEXHH@Z ; CSubGraphDataBase::SetTitleEndPosition
PUBLIC	?SetData@CSubGraphDataBase@@QAEXPBDPAUHWND__@@0@Z ; CSubGraphDataBase::SetData
PUBLIC	?SetType@CSubGraphDataBase@@QAEXW4GRAPHTYPE@CGraphBaseData@@@Z ; CSubGraphDataBase::SetType
PUBLIC	?SetStyle@CSubGraphDataBase@@QAEXABVCGraphStyle@@@Z ; CSubGraphDataBase::SetStyle
PUBLIC	?SetDrawStyle@CSubGraphDataBase@@QAEXABVCGraphDrawStyle@@@Z ; CSubGraphDataBase::SetDrawStyle
PUBLIC	?SetName@CSubGraphDataBase@@QAEXABV?$CStringT@DV?$StrTraitMFC_DLL@DV?$ChTraitsCRT@D@ATL@@@@@ATL@@@Z ; CSubGraphDataBase::SetName
PUBLIC	?SetTitle@CSubGraphDataBase@@QAEXABV?$CStringT@DV?$StrTraitMFC_DLL@DV?$ChTraitsCRT@D@ATL@@@@@ATL@@@Z ; CSubGraphDataBase::SetTitle
PUBLIC	?SetHiding@CSubGraphDataBase@@QAEX_N@Z		; CSubGraphDataBase::SetHiding
PUBLIC	?SetColor@CSubGraphDataBase@@QAEXABVCGraphColor@@@Z ; CSubGraphDataBase::SetColor
PUBLIC	?SetPenThickness@CSubGraphDataBase@@QAEXABVCPenThickness@@@Z ; CSubGraphDataBase::SetPenThickness
PUBLIC	?ChangeKeyPart@CSubGraphDataBase@@QAEXABV1@@Z	; CSubGraphDataBase::ChangeKeyPart
PUBLIC	?SetItemName@CSubGraphDataBase@@QAEXABV?$CStringT@DV?$StrTraitMFC_DLL@DV?$ChTraitsCRT@D@ATL@@@@@ATL@@@Z ; CSubGraphDataBase::SetItemName
PUBLIC	?SetSubGraphIndex@CSubGraphDataBase@@QAEXH@Z	; CSubGraphDataBase::SetSubGraphIndex
PUBLIC	?SetPaintStyle@CSubGraphDataBase@@QAEXABVCGraphPaintStyle@@@Z ; CSubGraphDataBase::SetPaintStyle
PUBLIC	?SetBaseLineStyle@CSubGraphDataBase@@QAEXABVCGraphBaseLineStyle@@@Z ; CSubGraphDataBase::SetBaseLineStyle
PUBLIC	?GetTitleEndPosition@CSubGraphDataBase@@QBEHXZ	; CSubGraphDataBase::GetTitleEndPosition
PUBLIC	?GetTitleEndLine@CSubGraphDataBase@@QBEHXZ	; CSubGraphDataBase::GetTitleEndLine
PUBLIC	?GetType@CSubGraphDataBase@@QBE?AW4GRAPHTYPE@CGraphBaseData@@XZ ; CSubGraphDataBase::GetType
PUBLIC	?GetStyle@CSubGraphDataBase@@QBE?AVCGraphStyle@@XZ ; CSubGraphDataBase::GetStyle
PUBLIC	?GetDrawStyle@CSubGraphDataBase@@QBE?AVCGraphDrawStyle@@XZ ; CSubGraphDataBase::GetDrawStyle
PUBLIC	?GetPaintStyle@CSubGraphDataBase@@QBE?AVCGraphPaintStyle@@XZ ; CSubGraphDataBase::GetPaintStyle
PUBLIC	?GetBaseLineDrawStyle@CSubGraphDataBase@@QBE?AVCGraphBaseLineStyle@@XZ ; CSubGraphDataBase::GetBaseLineDrawStyle
PUBLIC	?GetName@CSubGraphDataBase@@QBE?AV?$CStringT@DV?$StrTraitMFC_DLL@DV?$ChTraitsCRT@D@ATL@@@@@ATL@@XZ ; CSubGraphDataBase::GetName
PUBLIC	?GetTitle@CSubGraphDataBase@@QBE?AV?$CStringT@DV?$StrTraitMFC_DLL@DV?$ChTraitsCRT@D@ATL@@@@@ATL@@XZ ; CSubGraphDataBase::GetTitle
PUBLIC	?GetColor@CSubGraphDataBase@@QBE?AVCGraphColor@@XZ ; CSubGraphDataBase::GetColor
PUBLIC	?GetColor_PointerType@CSubGraphDataBase@@QAEPAVCGraphColor@@XZ ; CSubGraphDataBase::GetColor_PointerType
PUBLIC	?GetColor@CSubGraphDataBase@@QAEAAVCGraphColor@@XZ ; CSubGraphDataBase::GetColor
PUBLIC	?GetPenThickness@CSubGraphDataBase@@QBE?AVCPenThickness@@XZ ; CSubGraphDataBase::GetPenThickness
PUBLIC	?GetPenThickness@CSubGraphDataBase@@QAEAAVCPenThickness@@XZ ; CSubGraphDataBase::GetPenThickness
PUBLIC	?GetStringData@CSubGraphDataBase@@QBEXAAV?$CStringT@DV?$StrTraitMFC_DLL@DV?$ChTraitsCRT@D@ATL@@@@@ATL@@@Z ; CSubGraphDataBase::GetStringData
PUBLIC	?GetItemName@CSubGraphDataBase@@QBE?AV?$CStringT@DV?$StrTraitMFC_DLL@DV?$ChTraitsCRT@D@ATL@@@@@ATL@@XZ ; CSubGraphDataBase::GetItemName
PUBLIC	?GetSubGraphIndex@CSubGraphDataBase@@QBEHXZ	; CSubGraphDataBase::GetSubGraphIndex
PUBLIC	?AddHorizontalLine@CSubGraphDataBase@@QAEJPBDKFN@Z ; CSubGraphDataBase::AddHorizontalLine
PUBLIC	?UpdateHorizontalLine@CSubGraphDataBase@@QAEXJPBDKFN@Z ; CSubGraphDataBase::UpdateHorizontalLine
PUBLIC	?DeleteHorizontalLine@CSubGraphDataBase@@QAEXJ@Z ; CSubGraphDataBase::DeleteHorizontalLine
PUBLIC	?DeleteAllHorizontalLine@CSubGraphDataBase@@QAEXXZ ; CSubGraphDataBase::DeleteAllHorizontalLine
PUBLIC	?GetHorizontalLine@CSubGraphDataBase@@QBEABV?$CArray@PAU_ST_HORZLINE@@PAU1@@@XZ ; CSubGraphDataBase::GetHorizontalLine
PUBLIC	??0?$CArray@PAU_ST_HORZLINE@@PAU1@@@QAE@XZ	; CArray<_ST_HORZLINE *,_ST_HORZLINE *>::CArray<_ST_HORZLINE *,_ST_HORZLINE *>
PUBLIC	?SetSize@?$CArray@PAU_ST_HORZLINE@@PAU1@@@QAEXHH@Z ; CArray<_ST_HORZLINE *,_ST_HORZLINE *>::SetSize
PUBLIC	?SetAtGrow@?$CArray@PAU_ST_HORZLINE@@PAU1@@@QAEXHPAU_ST_HORZLINE@@@Z ; CArray<_ST_HORZLINE *,_ST_HORZLINE *>::SetAtGrow
PUBLIC	?Copy@?$CArray@PAU_ST_HORZLINE@@PAU1@@@QAEXABV1@@Z ; CArray<_ST_HORZLINE *,_ST_HORZLINE *>::Copy
PUBLIC	?RemoveAt@?$CArray@PAU_ST_HORZLINE@@PAU1@@@QAEXHH@Z ; CArray<_ST_HORZLINE *,_ST_HORZLINE *>::RemoveAt
PUBLIC	??1?$CArray@PAU_ST_HORZLINE@@PAU1@@@UAE@XZ	; CArray<_ST_HORZLINE *,_ST_HORZLINE *>::~CArray<_ST_HORZLINE *,_ST_HORZLINE *>
PUBLIC	?Serialize@?$CArray@PAU_ST_HORZLINE@@PAU1@@@UAEXAAVCArchive@@@Z ; CArray<_ST_HORZLINE *,_ST_HORZLINE *>::Serialize
PUBLIC	??_G?$CArray@PAU_ST_HORZLINE@@PAU1@@@UAEPAXI@Z	; CArray<_ST_HORZLINE *,_ST_HORZLINE *>::`scalar deleting destructor'
PUBLIC	??0CSubGraphData@@QAE@XZ			; CSubGraphData::CSubGraphData
PUBLIC	??0CSubGraphData@@QAE@W4GRAPHTYPE@CGraphBaseData@@ABVCGraphStyle@@ABVCGraphDrawStyle@@ABV?$CStringT@DV?$StrTraitMFC_DLL@DV?$ChTraitsCRT@D@ATL@@@@@ATL@@3_NABVCGraphColor@@ABVCPenThickness@@ABVCGraphPaintStyle@@ABVCGraphBaseLineStyle@@@Z ; CSubGraphData::CSubGraphData
PUBLIC	??0CSubGraphData@@QAE@ABV0@@Z			; CSubGraphData::CSubGraphData
PUBLIC	??0CSubGraphData@@QAE@PBDPAUHWND__@@0@Z		; CSubGraphData::CSubGraphData
PUBLIC	??1CSubGraphData@@QAE@XZ			; CSubGraphData::~CSubGraphData
PUBLIC	?ClearCalcDataForDraw@CSubGraphData@@QAEXXZ	; CSubGraphData::ClearCalcDataForDraw
PUBLIC	?GetHiding@CSubGraphData@@ABE_NXZ		; CSubGraphData::GetHiding
PUBLIC	??4CSubGraphData@@QAEAAV0@ABV0@@Z		; CSubGraphData::operator=
PUBLIC	??$SerializeElements@PAU_ST_HORZLINE@@@@YGXAAVCArchive@@PAPAU_ST_HORZLINE@@H@Z ; SerializeElements<_ST_HORZLINE *>
PUBLIC	??_R0?AVCObject@@@8				; CObject `RTTI Type Descriptor'
PUBLIC	??_R3CObject@@8					; CObject::`RTTI Class Hierarchy Descriptor'
PUBLIC	??_R2CObject@@8					; CObject::`RTTI Base Class Array'
PUBLIC	??_R1A@?0A@EA@CObject@@8			; CObject::`RTTI Base Class Descriptor at (0,-1,0,64)'
PUBLIC	??_7CGraphDataBase@@6B@				; CGraphDataBase::`vftable'
PUBLIC	??_7CGraphData@@6B@				; CGraphData::`vftable'
PUBLIC	??_7?$CArray@PAU_ST_HORZLINE@@PAU1@@@6B@	; CArray<_ST_HORZLINE *,_ST_HORZLINE *>::`vftable'
PUBLIC	??_C@_02FAMCGDNB@G?3@				; `string'
PUBLIC	??_C@_07ECDJHDFC@?0?$CI?$CL?$CJ?123@		; `string'
PUBLIC	??_C@_01IHBHIGKO@?0@				; `string'
PUBLIC	??_R4CGraphDataBase@@6B@			; CGraphDataBase::`RTTI Complete Object Locator'
PUBLIC	??_R0?AVCGraphDataBase@@@8			; CGraphDataBase `RTTI Type Descriptor'
PUBLIC	??_R3CGraphDataBase@@8				; CGraphDataBase::`RTTI Class Hierarchy Descriptor'
PUBLIC	??_R2CGraphDataBase@@8				; CGraphDataBase::`RTTI Base Class Array'
PUBLIC	??_R1A@?0A@EA@CGraphDataBase@@8			; CGraphDataBase::`RTTI Base Class Descriptor at (0,-1,0,64)'
PUBLIC	??_R4CGraphData@@6B@				; CGraphData::`RTTI Complete Object Locator'
PUBLIC	??_R0?AVCGraphData@@@8				; CGraphData `RTTI Type Descriptor'
PUBLIC	??_R3CGraphData@@8				; CGraphData::`RTTI Class Hierarchy Descriptor'
PUBLIC	??_R2CGraphData@@8				; CGraphData::`RTTI Base Class Array'
PUBLIC	??_R1A@?0A@EA@CGraphData@@8			; CGraphData::`RTTI Base Class Descriptor at (0,-1,0,64)'
PUBLIC	??_R4?$CArray@PAU_ST_HORZLINE@@PAU1@@@6B@	; CArray<_ST_HORZLINE *,_ST_HORZLINE *>::`RTTI Complete Object Locator'
PUBLIC	??_R0?AV?$CArray@PAU_ST_HORZLINE@@PAU1@@@@8	; CArray<_ST_HORZLINE *,_ST_HORZLINE *> `RTTI Type Descriptor'
PUBLIC	??_R3?$CArray@PAU_ST_HORZLINE@@PAU1@@@8		; CArray<_ST_HORZLINE *,_ST_HORZLINE *>::`RTTI Class Hierarchy Descriptor'
PUBLIC	??_R2?$CArray@PAU_ST_HORZLINE@@PAU1@@@8		; CArray<_ST_HORZLINE *,_ST_HORZLINE *>::`RTTI Base Class Array'
PUBLIC	??_R1A@?0A@EA@?$CArray@PAU_ST_HORZLINE@@PAU1@@@8 ; CArray<_ST_HORZLINE *,_ST_HORZLINE *>::`RTTI Base Class Descriptor at (0,-1,0,64)'
EXTRN	__purecall:PROC
EXTRN	??2@YAPAXI@Z:PROC				; operator new
EXTRN	??3@YAXPAX@Z:PROC				; operator delete
EXTRN	??3@YAXPAXI@Z:PROC				; operator delete
EXTRN	?__global_delete@@YAXPAXI@Z:PROC		; __global_delete
EXTRN	??_U@YAPAXI@Z:PROC				; operator new[]
EXTRN	??_V@YAXPAX@Z:PROC				; operator delete[]
EXTRN	___std_terminate:PROC
EXTRN	__imp___invalid_parameter_noinfo:PROC
EXTRN	__imp___errno:PROC
EXTRN	_strchr:PROC
EXTRN	__imp__strncmp:PROC
EXTRN	__imp__lstrlenA@4:PROC
EXTRN	__imp__atoi:PROC
EXTRN	__imp__itoa:PROC
EXTRN	?AfxThrowMemoryException@@YGXXZ:PROC		; AfxThrowMemoryException
EXTRN	?AfxThrowInvalidArgException@@YGXXZ:PROC	; AfxThrowInvalidArgException
EXTRN	?AfxThrowArchiveException@@YGXHPBD@Z:PROC	; AfxThrowArchiveException
EXTRN	?GetRuntimeClass@CObject@@UBEPAUCRuntimeClass@@XZ:PROC ; CObject::GetRuntimeClass
EXTRN	__imp_?Empty@?$CSimpleStringT@D$00@ATL@@QAEXXZ:PROC
EXTRN	__imp_?GetBufferSetLength@?$CSimpleStringT@D$00@ATL@@QAEPADH@Z:PROC
EXTRN	__imp_??0?$CStringT@DV?$StrTraitMFC_DLL@DV?$ChTraitsCRT@D@ATL@@@@@ATL@@QAE@XZ:PROC
EXTRN	__imp_??0?$CStringT@DV?$StrTraitMFC_DLL@DV?$ChTraitsCRT@D@ATL@@@@@ATL@@QAE@ABV01@@Z:PROC
EXTRN	__imp_??0?$CStringT@DV?$StrTraitMFC_DLL@DV?$ChTraitsCRT@D@ATL@@@@@ATL@@QAE@PBD@Z:PROC
EXTRN	__imp_??1?$CStringT@DV?$StrTraitMFC_DLL@DV?$ChTraitsCRT@D@ATL@@@@@ATL@@QAE@XZ:PROC
EXTRN	__imp_??4?$CStringT@DV?$StrTraitMFC_DLL@DV?$ChTraitsCRT@D@ATL@@@@@ATL@@QAEAAV01@ABV01@@Z:PROC
EXTRN	__imp_??4?$CStringT@DV?$StrTraitMFC_DLL@DV?$ChTraitsCRT@D@ATL@@@@@ATL@@QAEAAV01@PBD@Z:PROC
EXTRN	__imp_?Compare@?$CStringT@DV?$StrTraitMFC_DLL@DV?$ChTraitsCRT@D@ATL@@@@@ATL@@QBEHPBD@Z:PROC
EXTRN	?Read@CArchive@@QAEIPAXI@Z:PROC			; CArchive::Read
EXTRN	?Write@CArchive@@QAEXPBXI@Z:PROC		; CArchive::Write
EXTRN	?ReadCount@CArchive@@QAEKXZ:PROC		; CArchive::ReadCount
EXTRN	?WriteCount@CArchive@@QAEXK@Z:PROC		; CArchive::WriteCount
EXTRN	??4CGraphColor@@QAEAAV0@ABV0@@Z:PROC		; CGraphColor::operator=
EXTRN	??0CGraphColor@@QAE@XZ:PROC			; CGraphColor::CGraphColor
EXTRN	??0CGraphColor@@QAE@ABV0@@Z:PROC		; CGraphColor::CGraphColor
EXTRN	?SetData@CGraphColor@@QAEXPBDH@Z:PROC		; CGraphColor::SetData
EXTRN	?GetStringData@CGraphColor@@QBEXAAV?$CStringT@DV?$StrTraitMFC_DLL@DV?$ChTraitsCRT@D@ATL@@@@@ATL@@@Z:PROC ; CGraphColor::GetStringData
EXTRN	??_E?$CArray@PAU_ST_HORZLINE@@PAU1@@@UAEPAXI@Z:PROC ; CArray<_ST_HORZLINE *,_ST_HORZLINE *>::`vector deleting destructor'
EXTRN	?GetMetaTextFromOther@IMetaTable@@QAEPBDPAUHWND__@@W4E_CODEPAGE@1@PBDH@Z:PROC ; IMetaTable::GetMetaTextFromOther
EXTRN	?GetMetaTextForScript@IMetaTable@@QAEPBDPAUHWND__@@W4E_CODEPAGE@1@PBDH@Z:PROC ; IMetaTable::GetMetaTextForScript
EXTRN	?GetMultipleMetaTextForScript@IMetaTable@@QAE?AV?$CStringT@DV?$StrTraitMFC_DLL@DV?$ChTraitsCRT@D@ATL@@@@@ATL@@PAUHWND__@@V23@1HH@Z:PROC ; IMetaTable::GetMultipleMetaTextForScript
EXTRN	?IsTitleIncludeCondition@IMetaTable@@QAE_NABV?$CStringT@DV?$StrTraitMFC_DLL@DV?$ChTraitsCRT@D@ATL@@@@@ATL@@@Z:PROC ; IMetaTable::IsTitleIncludeCondition
EXTRN	@__security_check_cookie@4:PROC
EXTRN	___CxxFrameHandler3:PROC
EXTRN	_memcpy:PROC
EXTRN	_memmove:PROC
EXTRN	_memset:PROC
EXTRN	??_7type_info@@6B@:QWORD			; type_info::`vftable'
EXTRN	?g_iMetaTable@@3VIMetaTable@@A:BYTE		; g_iMetaTable
EXTRN	___security_cookie:DWORD
EXTRN	__fltused:DWORD
;	COMDAT ??_R1A@?0A@EA@?$CArray@PAU_ST_HORZLINE@@PAU1@@@8
rdata$r	SEGMENT
??_R1A@?0A@EA@?$CArray@PAU_ST_HORZLINE@@PAU1@@@8 DD FLAT:??_R0?AV?$CArray@PAU_ST_HORZLINE@@PAU1@@@@8 ; CArray<_ST_HORZLINE *,_ST_HORZLINE *>::`RTTI Base Class Descriptor at (0,-1,0,64)'
	DD	01H
	DD	00H
	DD	0ffffffffH
	DD	00H
	DD	040H
	DD	FLAT:??_R3?$CArray@PAU_ST_HORZLINE@@PAU1@@@8
rdata$r	ENDS
;	COMDAT ??_R2?$CArray@PAU_ST_HORZLINE@@PAU1@@@8
rdata$r	SEGMENT
??_R2?$CArray@PAU_ST_HORZLINE@@PAU1@@@8 DD FLAT:??_R1A@?0A@EA@?$CArray@PAU_ST_HORZLINE@@PAU1@@@8 ; CArray<_ST_HORZLINE *,_ST_HORZLINE *>::`RTTI Base Class Array'
	DD	FLAT:??_R1A@?0A@EA@CObject@@8
rdata$r	ENDS
;	COMDAT ??_R3?$CArray@PAU_ST_HORZLINE@@PAU1@@@8
rdata$r	SEGMENT
??_R3?$CArray@PAU_ST_HORZLINE@@PAU1@@@8 DD 00H		; CArray<_ST_HORZLINE *,_ST_HORZLINE *>::`RTTI Class Hierarchy Descriptor'
	DD	00H
	DD	02H
	DD	FLAT:??_R2?$CArray@PAU_ST_HORZLINE@@PAU1@@@8
rdata$r	ENDS
;	COMDAT ??_R0?AV?$CArray@PAU_ST_HORZLINE@@PAU1@@@@8
data$rs	SEGMENT
??_R0?AV?$CArray@PAU_ST_HORZLINE@@PAU1@@@@8 DD FLAT:??_7type_info@@6B@ ; CArray<_ST_HORZLINE *,_ST_HORZLINE *> `RTTI Type Descriptor'
	DD	00H
	DB	'.?AV?$CArray@PAU_ST_HORZLINE@@PAU1@@@', 00H
data$rs	ENDS
;	COMDAT ??_R4?$CArray@PAU_ST_HORZLINE@@PAU1@@@6B@
rdata$r	SEGMENT
??_R4?$CArray@PAU_ST_HORZLINE@@PAU1@@@6B@ DD 00H	; CArray<_ST_HORZLINE *,_ST_HORZLINE *>::`RTTI Complete Object Locator'
	DD	00H
	DD	00H
	DD	FLAT:??_R0?AV?$CArray@PAU_ST_HORZLINE@@PAU1@@@@8
	DD	FLAT:??_R3?$CArray@PAU_ST_HORZLINE@@PAU1@@@8
rdata$r	ENDS
;	COMDAT ??_R1A@?0A@EA@CGraphData@@8
rdata$r	SEGMENT
??_R1A@?0A@EA@CGraphData@@8 DD FLAT:??_R0?AVCGraphData@@@8 ; CGraphData::`RTTI Base Class Descriptor at (0,-1,0,64)'
	DD	01H
	DD	00H
	DD	0ffffffffH
	DD	00H
	DD	040H
	DD	FLAT:??_R3CGraphData@@8
rdata$r	ENDS
;	COMDAT ??_R2CGraphData@@8
rdata$r	SEGMENT
??_R2CGraphData@@8 DD FLAT:??_R1A@?0A@EA@CGraphData@@8	; CGraphData::`RTTI Base Class Array'
	DD	FLAT:??_R1A@?0A@EA@CGraphDataBase@@8
rdata$r	ENDS
;	COMDAT ??_R3CGraphData@@8
rdata$r	SEGMENT
??_R3CGraphData@@8 DD 00H				; CGraphData::`RTTI Class Hierarchy Descriptor'
	DD	00H
	DD	02H
	DD	FLAT:??_R2CGraphData@@8
rdata$r	ENDS
;	COMDAT ??_R0?AVCGraphData@@@8
data$rs	SEGMENT
??_R0?AVCGraphData@@@8 DD FLAT:??_7type_info@@6B@	; CGraphData `RTTI Type Descriptor'
	DD	00H
	DB	'.?AVCGraphData@@', 00H
data$rs	ENDS
;	COMDAT ??_R4CGraphData@@6B@
rdata$r	SEGMENT
??_R4CGraphData@@6B@ DD 00H				; CGraphData::`RTTI Complete Object Locator'
	DD	00H
	DD	00H
	DD	FLAT:??_R0?AVCGraphData@@@8
	DD	FLAT:??_R3CGraphData@@8
rdata$r	ENDS
;	COMDAT ??_R1A@?0A@EA@CGraphDataBase@@8
rdata$r	SEGMENT
??_R1A@?0A@EA@CGraphDataBase@@8 DD FLAT:??_R0?AVCGraphDataBase@@@8 ; CGraphDataBase::`RTTI Base Class Descriptor at (0,-1,0,64)'
	DD	00H
	DD	00H
	DD	0ffffffffH
	DD	00H
	DD	040H
	DD	FLAT:??_R3CGraphDataBase@@8
rdata$r	ENDS
;	COMDAT ??_R2CGraphDataBase@@8
rdata$r	SEGMENT
??_R2CGraphDataBase@@8 DD FLAT:??_R1A@?0A@EA@CGraphDataBase@@8 ; CGraphDataBase::`RTTI Base Class Array'
rdata$r	ENDS
;	COMDAT ??_R3CGraphDataBase@@8
rdata$r	SEGMENT
??_R3CGraphDataBase@@8 DD 00H				; CGraphDataBase::`RTTI Class Hierarchy Descriptor'
	DD	00H
	DD	01H
	DD	FLAT:??_R2CGraphDataBase@@8
rdata$r	ENDS
;	COMDAT ??_R0?AVCGraphDataBase@@@8
data$rs	SEGMENT
??_R0?AVCGraphDataBase@@@8 DD FLAT:??_7type_info@@6B@	; CGraphDataBase `RTTI Type Descriptor'
	DD	00H
	DB	'.?AVCGraphDataBase@@', 00H
data$rs	ENDS
;	COMDAT ??_R4CGraphDataBase@@6B@
rdata$r	SEGMENT
??_R4CGraphDataBase@@6B@ DD 00H				; CGraphDataBase::`RTTI Complete Object Locator'
	DD	00H
	DD	00H
	DD	FLAT:??_R0?AVCGraphDataBase@@@8
	DD	FLAT:??_R3CGraphDataBase@@8
rdata$r	ENDS
;	COMDAT ??_C@_01IHBHIGKO@?0@
CONST	SEGMENT
??_C@_01IHBHIGKO@?0@ DB ',', 00H			; `string'
CONST	ENDS
;	COMDAT ??_C@_07ECDJHDFC@?0?$CI?$CL?$CJ?123@
CONST	SEGMENT
??_C@_07ECDJHDFC@?0?$CI?$CL?$CJ?123@ DB ',(+)/23', 00H	; `string'
CONST	ENDS
;	COMDAT ??_C@_02FAMCGDNB@G?3@
CONST	SEGMENT
??_C@_02FAMCGDNB@G?3@ DB 'G:', 00H			; `string'
CONST	ENDS
;	COMDAT ??_7?$CArray@PAU_ST_HORZLINE@@PAU1@@@6B@
CONST	SEGMENT
??_7?$CArray@PAU_ST_HORZLINE@@PAU1@@@6B@ DD FLAT:??_R4?$CArray@PAU_ST_HORZLINE@@PAU1@@@6B@ ; CArray<_ST_HORZLINE *,_ST_HORZLINE *>::`vftable'
	DD	FLAT:?GetRuntimeClass@CObject@@UBEPAUCRuntimeClass@@XZ
	DD	FLAT:??_E?$CArray@PAU_ST_HORZLINE@@PAU1@@@UAEPAXI@Z
	DD	FLAT:?Serialize@?$CArray@PAU_ST_HORZLINE@@PAU1@@@UAEXAAVCArchive@@@Z
	DD	FLAT:?AssertValid@CObject@@UBEXXZ
	DD	FLAT:?Dump@CObject@@UBEXAAVCDumpContext@@@Z
CONST	ENDS
;	COMDAT ??_7CGraphData@@6B@
CONST	SEGMENT
??_7CGraphData@@6B@ DD FLAT:??_R4CGraphData@@6B@	; CGraphData::`vftable'
	DD	FLAT:?SetIndicatorName@CGraphData@@MAEXABV?$CStringT@DV?$StrTraitMFC_DLL@DV?$ChTraitsCRT@D@ATL@@@@@ATL@@@Z
	DD	FLAT:?SetGraphName@CGraphData@@MAEXABV?$CStringT@DV?$StrTraitMFC_DLL@DV?$ChTraitsCRT@D@ATL@@@@@ATL@@@Z
CONST	ENDS
;	COMDAT ??_7CGraphDataBase@@6B@
CONST	SEGMENT
??_7CGraphDataBase@@6B@ DD FLAT:??_R4CGraphDataBase@@6B@ ; CGraphDataBase::`vftable'
	DD	FLAT:__purecall
	DD	FLAT:__purecall
CONST	ENDS
;	COMDAT ??_R1A@?0A@EA@CObject@@8
rdata$r	SEGMENT
??_R1A@?0A@EA@CObject@@8 DD FLAT:??_R0?AVCObject@@@8	; CObject::`RTTI Base Class Descriptor at (0,-1,0,64)'
	DD	00H
	DD	00H
	DD	0ffffffffH
	DD	00H
	DD	040H
	DD	FLAT:??_R3CObject@@8
rdata$r	ENDS
;	COMDAT ??_R2CObject@@8
rdata$r	SEGMENT
??_R2CObject@@8 DD FLAT:??_R1A@?0A@EA@CObject@@8	; CObject::`RTTI Base Class Array'
rdata$r	ENDS
;	COMDAT ??_R3CObject@@8
rdata$r	SEGMENT
??_R3CObject@@8 DD 00H					; CObject::`RTTI Class Hierarchy Descriptor'
	DD	00H
	DD	01H
	DD	FLAT:??_R2CObject@@8
rdata$r	ENDS
;	COMDAT ??_R0?AVCObject@@@8
data$rs	SEGMENT
??_R0?AVCObject@@@8 DD FLAT:??_7type_info@@6B@		; CObject `RTTI Type Descriptor'
	DD	00H
	DB	'.?AVCObject@@', 00H
data$rs	ENDS
;	COMDAT xdata$x
xdata$x	SEGMENT
__unwindtable$??1CSubGraphData@@QAE@XZ DD 0ffffffffH
	DD	FLAT:___std_terminate
__ehfuncinfo$??1CSubGraphData@@QAE@XZ DD 019930522H
	DD	01H
	DD	FLAT:__unwindtable$??1CSubGraphData@@QAE@XZ
	DD	2 DUP(00H)
	DD	2 DUP(00H)
	DD	00H
	DD	05H
xdata$x	ENDS
;	COMDAT xdata$x
xdata$x	SEGMENT
__unwindtable$?GetStringData@CSubGraphDataBase@@QBEXAAV?$CStringT@DV?$StrTraitMFC_DLL@DV?$ChTraitsCRT@D@ATL@@@@@ATL@@@Z DD 0ffffffffH
	DD	FLAT:__unwindfunclet$?GetStringData@CSubGraphDataBase@@QBEXAAV?$CStringT@DV?$StrTraitMFC_DLL@DV?$ChTraitsCRT@D@ATL@@@@@ATL@@@Z$0
	DD	00H
	DD	FLAT:__unwindfunclet$?GetStringData@CSubGraphDataBase@@QBEXAAV?$CStringT@DV?$StrTraitMFC_DLL@DV?$ChTraitsCRT@D@ATL@@@@@ATL@@@Z$1
__ehfuncinfo$?GetStringData@CSubGraphDataBase@@QBEXAAV?$CStringT@DV?$StrTraitMFC_DLL@DV?$ChTraitsCRT@D@ATL@@@@@ATL@@@Z DD 019930522H
	DD	02H
	DD	FLAT:__unwindtable$?GetStringData@CSubGraphDataBase@@QBEXAAV?$CStringT@DV?$StrTraitMFC_DLL@DV?$ChTraitsCRT@D@ATL@@@@@ATL@@@Z
	DD	2 DUP(00H)
	DD	2 DUP(00H)
	DD	00H
	DD	01H
xdata$x	ENDS
;	COMDAT xdata$x
xdata$x	SEGMENT
__unwindtable$?ChangeKeyPart@CSubGraphDataBase@@QAEXABV1@@Z DD 0ffffffffH
	DD	FLAT:__unwindfunclet$?ChangeKeyPart@CSubGraphDataBase@@QAEXABV1@@Z$0
__ehfuncinfo$?ChangeKeyPart@CSubGraphDataBase@@QAEXABV1@@Z DD 019930522H
	DD	01H
	DD	FLAT:__unwindtable$?ChangeKeyPart@CSubGraphDataBase@@QAEXABV1@@Z
	DD	2 DUP(00H)
	DD	2 DUP(00H)
	DD	00H
	DD	01H
xdata$x	ENDS
;	COMDAT xdata$x
xdata$x	SEGMENT
__unwindtable$?SetData@CSubGraphDataBase@@QAEXPBDPAUHWND__@@0@Z DD 0ffffffffH
	DD	00H
	DD	0ffffffffH
	DD	FLAT:__unwindfunclet$?SetData@CSubGraphDataBase@@QAEXPBDPAUHWND__@@0@Z$0
	DD	01H
	DD	FLAT:__unwindfunclet$?SetData@CSubGraphDataBase@@QAEXPBDPAUHWND__@@0@Z$1
__ehfuncinfo$?SetData@CSubGraphDataBase@@QAEXPBDPAUHWND__@@0@Z DD 019930522H
	DD	03H
	DD	FLAT:__unwindtable$?SetData@CSubGraphDataBase@@QAEXPBDPAUHWND__@@0@Z
	DD	2 DUP(00H)
	DD	2 DUP(00H)
	DD	00H
	DD	01H
xdata$x	ENDS
;	COMDAT xdata$x
xdata$x	SEGMENT
__ehfuncinfo$??1CSubGraphDataBase@@QAE@XZ DD 019930522H
	DD	00H
	DD	00H
	DD	2 DUP(00H)
	DD	2 DUP(00H)
	DD	00H
	DD	05H
xdata$x	ENDS
;	COMDAT xdata$x
xdata$x	SEGMENT
__unwindtable$??0CSubGraphDataBase@@QAE@PBDPAUHWND__@@0@Z DD 0ffffffffH
	DD	FLAT:__unwindfunclet$??0CSubGraphDataBase@@QAE@PBDPAUHWND__@@0@Z$0
	DD	00H
	DD	FLAT:__unwindfunclet$??0CSubGraphDataBase@@QAE@PBDPAUHWND__@@0@Z$1
	DD	01H
	DD	FLAT:__unwindfunclet$??0CSubGraphDataBase@@QAE@PBDPAUHWND__@@0@Z$2
	DD	02H
	DD	FLAT:__unwindfunclet$??0CSubGraphDataBase@@QAE@PBDPAUHWND__@@0@Z$3
__ehfuncinfo$??0CSubGraphDataBase@@QAE@PBDPAUHWND__@@0@Z DD 019930522H
	DD	04H
	DD	FLAT:__unwindtable$??0CSubGraphDataBase@@QAE@PBDPAUHWND__@@0@Z
	DD	2 DUP(00H)
	DD	2 DUP(00H)
	DD	00H
	DD	01H
xdata$x	ENDS
;	COMDAT xdata$x
xdata$x	SEGMENT
__unwindtable$??0CSubGraphDataBase@@QAE@ABV0@@Z DD 0ffffffffH
	DD	FLAT:__unwindfunclet$??0CSubGraphDataBase@@QAE@ABV0@@Z$0
	DD	00H
	DD	FLAT:__unwindfunclet$??0CSubGraphDataBase@@QAE@ABV0@@Z$1
	DD	01H
	DD	FLAT:__unwindfunclet$??0CSubGraphDataBase@@QAE@ABV0@@Z$2
	DD	02H
	DD	FLAT:__unwindfunclet$??0CSubGraphDataBase@@QAE@ABV0@@Z$3
__ehfuncinfo$??0CSubGraphDataBase@@QAE@ABV0@@Z DD 019930522H
	DD	04H
	DD	FLAT:__unwindtable$??0CSubGraphDataBase@@QAE@ABV0@@Z
	DD	2 DUP(00H)
	DD	2 DUP(00H)
	DD	00H
	DD	01H
xdata$x	ENDS
;	COMDAT xdata$x
xdata$x	SEGMENT
__unwindtable$??0CSubGraphDataBase@@QAE@W4GRAPHTYPE@CGraphBaseData@@ABVCGraphStyle@@ABVCGraphDrawStyle@@ABV?$CStringT@DV?$StrTraitMFC_DLL@DV?$ChTraitsCRT@D@ATL@@@@@ATL@@3_NABVCGraphColor@@ABVCPenThickness@@ABVCGraphPaintStyle@@ABVCGraphBaseLineStyle@@@Z DD 0ffffffffH
	DD	FLAT:__unwindfunclet$??0CSubGraphDataBase@@QAE@W4GRAPHTYPE@CGraphBaseData@@ABVCGraphStyle@@ABVCGraphDrawStyle@@ABV?$CStringT@DV?$StrTraitMFC_DLL@DV?$ChTraitsCRT@D@ATL@@@@@ATL@@3_NABVCGraphColor@@ABVCPenThickness@@ABVCGraphPaintStyle@@ABVCGraphBaseLineStyle@@@Z$0
	DD	00H
	DD	FLAT:__unwindfunclet$??0CSubGraphDataBase@@QAE@W4GRAPHTYPE@CGraphBaseData@@ABVCGraphStyle@@ABVCGraphDrawStyle@@ABV?$CStringT@DV?$StrTraitMFC_DLL@DV?$ChTraitsCRT@D@ATL@@@@@ATL@@3_NABVCGraphColor@@ABVCPenThickness@@ABVCGraphPaintStyle@@ABVCGraphBaseLineStyle@@@Z$1
__ehfuncinfo$??0CSubGraphDataBase@@QAE@W4GRAPHTYPE@CGraphBaseData@@ABVCGraphStyle@@ABVCGraphDrawStyle@@ABV?$CStringT@DV?$StrTraitMFC_DLL@DV?$ChTraitsCRT@D@ATL@@@@@ATL@@3_NABVCGraphColor@@ABVCPenThickness@@ABVCGraphPaintStyle@@ABVCGraphBaseLineStyle@@@Z DD 019930522H
	DD	02H
	DD	FLAT:__unwindtable$??0CSubGraphDataBase@@QAE@W4GRAPHTYPE@CGraphBaseData@@ABVCGraphStyle@@ABVCGraphDrawStyle@@ABV?$CStringT@DV?$StrTraitMFC_DLL@DV?$ChTraitsCRT@D@ATL@@@@@ATL@@3_NABVCGraphColor@@ABVCPenThickness@@ABVCGraphPaintStyle@@ABVCGraphBaseLineStyle@@@Z
	DD	2 DUP(00H)
	DD	2 DUP(00H)
	DD	00H
	DD	01H
xdata$x	ENDS
;	COMDAT xdata$x
xdata$x	SEGMENT
__unwindtable$??0CSubGraphDataBase@@QAE@XZ DD 0ffffffffH
	DD	FLAT:__unwindfunclet$??0CSubGraphDataBase@@QAE@XZ$0
	DD	00H
	DD	FLAT:__unwindfunclet$??0CSubGraphDataBase@@QAE@XZ$1
__ehfuncinfo$??0CSubGraphDataBase@@QAE@XZ DD 019930522H
	DD	02H
	DD	FLAT:__unwindtable$??0CSubGraphDataBase@@QAE@XZ
	DD	2 DUP(00H)
	DD	2 DUP(00H)
	DD	00H
	DD	01H
xdata$x	ENDS
;	COMDAT xdata$x
xdata$x	SEGMENT
__unwindtable$??4CSubGraphDataBase@@QAEAAV0@ABV0@@Z DD 0ffffffffH
	DD	FLAT:__unwindfunclet$??4CSubGraphDataBase@@QAEAAV0@ABV0@@Z$0
	DD	0ffffffffH
	DD	FLAT:__unwindfunclet$??4CSubGraphDataBase@@QAEAAV0@ABV0@@Z$1
	DD	0ffffffffH
	DD	FLAT:__unwindfunclet$??4CSubGraphDataBase@@QAEAAV0@ABV0@@Z$2
__ehfuncinfo$??4CSubGraphDataBase@@QAEAAV0@ABV0@@Z DD 019930522H
	DD	03H
	DD	FLAT:__unwindtable$??4CSubGraphDataBase@@QAEAAV0@ABV0@@Z
	DD	2 DUP(00H)
	DD	2 DUP(00H)
	DD	00H
	DD	01H
xdata$x	ENDS
;	COMDAT xdata$x
xdata$x	SEGMENT
__unwindtable$??0CGraphData@@QAE@ABV0@@Z DD 0ffffffffH
	DD	FLAT:__unwindfunclet$??0CGraphData@@QAE@ABV0@@Z$0
	DD	00H
	DD	FLAT:__unwindfunclet$??0CGraphData@@QAE@ABV0@@Z$1
	DD	01H
	DD	FLAT:__unwindfunclet$??0CGraphData@@QAE@ABV0@@Z$2
__ehfuncinfo$??0CGraphData@@QAE@ABV0@@Z DD 019930522H
	DD	03H
	DD	FLAT:__unwindtable$??0CGraphData@@QAE@ABV0@@Z
	DD	2 DUP(00H)
	DD	2 DUP(00H)
	DD	00H
	DD	01H
xdata$x	ENDS
;	COMDAT xdata$x
xdata$x	SEGMENT
__unwindtable$?GetData@CGraphData@@QBEXAAV?$CStringT@DV?$StrTraitMFC_DLL@DV?$ChTraitsCRT@D@ATL@@@@@ATL@@PBD@Z DD 0ffffffffH
	DD	FLAT:__unwindfunclet$?GetData@CGraphData@@QBEXAAV?$CStringT@DV?$StrTraitMFC_DLL@DV?$ChTraitsCRT@D@ATL@@@@@ATL@@PBD@Z$0
	DD	00H
	DD	FLAT:__unwindfunclet$?GetData@CGraphData@@QBEXAAV?$CStringT@DV?$StrTraitMFC_DLL@DV?$ChTraitsCRT@D@ATL@@@@@ATL@@PBD@Z$1
__ehfuncinfo$?GetData@CGraphData@@QBEXAAV?$CStringT@DV?$StrTraitMFC_DLL@DV?$ChTraitsCRT@D@ATL@@@@@ATL@@PBD@Z DD 019930522H
	DD	02H
	DD	FLAT:__unwindtable$?GetData@CGraphData@@QBEXAAV?$CStringT@DV?$StrTraitMFC_DLL@DV?$ChTraitsCRT@D@ATL@@@@@ATL@@PBD@Z
	DD	2 DUP(00H)
	DD	2 DUP(00H)
	DD	00H
	DD	01H
xdata$x	ENDS
;	COMDAT xdata$x
xdata$x	SEGMENT
__ehfuncinfo$??0CGraphData@@QAE@PBDPAUHWND__@@@Z DD 019930522H
	DD	09H
	DD	FLAT:__unwindtable$??0CGraphData@@QAE@PBDPAUHWND__@@@Z
	DD	2 DUP(00H)
	DD	2 DUP(00H)
	DD	00H
	DD	01H
__unwindtable$??0CGraphData@@QAE@PBDPAUHWND__@@@Z DD 0ffffffffH
	DD	FLAT:__unwindfunclet$??0CGraphData@@QAE@PBDPAUHWND__@@@Z$0
	DD	00H
	DD	FLAT:__unwindfunclet$??0CGraphData@@QAE@PBDPAUHWND__@@@Z$1
	DD	01H
	DD	FLAT:__unwindfunclet$??0CGraphData@@QAE@PBDPAUHWND__@@@Z$2
	DD	02H
	DD	FLAT:__unwindfunclet$??0CGraphData@@QAE@PBDPAUHWND__@@@Z$3
	DD	03H
	DD	FLAT:__unwindfunclet$??0CGraphData@@QAE@PBDPAUHWND__@@@Z$4
	DD	04H
	DD	FLAT:__unwindfunclet$??0CGraphData@@QAE@PBDPAUHWND__@@@Z$5
	DD	04H
	DD	FLAT:__unwindfunclet$??0CGraphData@@QAE@PBDPAUHWND__@@@Z$7
	DD	04H
	DD	FLAT:__unwindfunclet$??0CGraphData@@QAE@PBDPAUHWND__@@@Z$8
	DD	04H
	DD	FLAT:__unwindfunclet$??0CGraphData@@QAE@PBDPAUHWND__@@@Z$10
xdata$x	ENDS
;	COMDAT xdata$x
xdata$x	SEGMENT
__unwindtable$?SetData@CSignalData@@AAEXPBD@Z DD 0ffffffffH
	DD	FLAT:__unwindfunclet$?SetData@CSignalData@@AAEXPBD@Z$0
__ehfuncinfo$?SetData@CSignalData@@AAEXPBD@Z DD 019930522H
	DD	01H
	DD	FLAT:__unwindtable$?SetData@CSignalData@@AAEXPBD@Z
	DD	2 DUP(00H)
	DD	2 DUP(00H)
	DD	00H
	DD	01H
xdata$x	ENDS
;	COMDAT xdata$x
xdata$x	SEGMENT
__unwindtable$?SetData@CGraphDataDrawingData@@AAEXPBD@Z DD 0ffffffffH
	DD	FLAT:__unwindfunclet$?SetData@CGraphDataDrawingData@@AAEXPBD@Z$0
__ehfuncinfo$?SetData@CGraphDataDrawingData@@AAEXPBD@Z DD 019930522H
	DD	01H
	DD	FLAT:__unwindtable$?SetData@CGraphDataDrawingData@@AAEXPBD@Z
	DD	2 DUP(00H)
	DD	2 DUP(00H)
	DD	00H
	DD	01H
xdata$x	ENDS
;	COMDAT xdata$x
xdata$x	SEGMENT
__unwindtable$?SetData@CPenThickness@@QAEXPBD@Z DD 0ffffffffH
	DD	FLAT:__unwindfunclet$?SetData@CPenThickness@@QAEXPBD@Z$0
__ehfuncinfo$?SetData@CPenThickness@@QAEXPBD@Z DD 019930522H
	DD	01H
	DD	FLAT:__unwindtable$?SetData@CPenThickness@@QAEXPBD@Z
	DD	2 DUP(00H)
	DD	2 DUP(00H)
	DD	00H
	DD	01H
xdata$x	ENDS
; Function compile flags: /Ogtp
; File C:\Program Files (x86)\Microsoft Visual Studio\2019\Community\VC\Tools\MSVC\14.29.30133\atlmfc\include\afxtempl.h
; File C:\Program Files (x86)\Microsoft Visual Studio\2019\Community\VC\Tools\MSVC\14.29.30133\atlmfc\include\afx.inl
; File C:\Program Files (x86)\Microsoft Visual Studio\2019\Community\VC\Tools\MSVC\14.29.30133\atlmfc\include\afxtempl.h
; File C:\Program Files (x86)\Microsoft Visual Studio\2019\Community\VC\Tools\MSVC\14.29.30133\atlmfc\include\afx.inl
; File C:\Program Files (x86)\Microsoft Visual Studio\2019\Community\VC\Tools\MSVC\14.29.30133\atlmfc\include\afxtempl.h
; File C:\Program Files (x86)\Microsoft Visual Studio\2019\Community\VC\Tools\MSVC\14.29.30133\atlmfc\include\afx.inl
; File C:\Program Files (x86)\Microsoft Visual Studio\2019\Community\VC\Tools\MSVC\14.29.30133\atlmfc\include\afxtempl.h
;	COMDAT ??$SerializeElements@PAU_ST_HORZLINE@@@@YGXAAVCArchive@@PAPAU_ST_HORZLINE@@H@Z
_TEXT	SEGMENT
_ar$ = 8						; size = 4
_pElements$ = 12					; size = 4
_nCount$ = 16						; size = 4
??$SerializeElements@PAU_ST_HORZLINE@@@@YGXAAVCArchive@@PAPAU_ST_HORZLINE@@H@Z PROC ; SerializeElements<_ST_HORZLINE *>, COMDAT

; 67   : {

  00000	55		 push	 ebp
  00001	8b ec		 mov	 ebp, esp

; 68   : 	ENSURE(nCount == 0 || pElements != NULL);

  00003	8b 4d 0c	 mov	 ecx, DWORD PTR _pElements$[ebp]
  00006	53		 push	 ebx
  00007	56		 push	 esi
  00008	8b 75 10	 mov	 esi, DWORD PTR _nCount$[ebp]
  0000b	57		 push	 edi
  0000c	85 f6		 test	 esi, esi
  0000e	74 08		 je	 SHORT $LN2@SerializeE
  00010	85 c9		 test	 ecx, ecx
  00012	0f 84 89 00 00
	00		 je	 $LN34@SerializeE
$LN2@SerializeE:
; File C:\Program Files (x86)\Microsoft Visual Studio\2019\Community\VC\Tools\MSVC\14.29.30133\atlmfc\include\afx.inl

; 212  : 	{ return (m_nMode & CArchive::load) == 0; }

  00018	8b 55 08	 mov	 edx, DWORD PTR _ar$[ebp]
  0001b	8b 42 18	 mov	 eax, DWORD PTR [edx+24]
  0001e	f7 d0		 not	 eax
  00020	a8 01		 test	 al, 1
; File C:\Program Files (x86)\Microsoft Visual Studio\2019\Community\VC\Tools\MSVC\14.29.30133\atlmfc\include\afxtempl.h

; 73   : 	if (ar.IsStoring())

  00022	74 3c		 je	 SHORT $LN10@SerializeE

; 74   : 	{
; 75   : 		TYPE* pData;
; 76   : 		UINT_PTR nElementsLeft;
; 77   : 
; 78   : 		nElementsLeft = nCount;
; 79   : 		pData = pElements;
; 80   : 		while( nElementsLeft > 0 )

  00024	85 f6		 test	 esi, esi
  00026	74 31		 je	 SHORT $LN8@SerializeE
  00028	0f 1f 84 00 00
	00 00 00	 npad	 8
$LL5@SerializeE:

; 81   : 		{
; 82   : 			UINT nElementsToWrite;
; 83   : 
; 84   : 			nElementsToWrite = UINT(__min(nElementsLeft, INT_MAX/sizeof(TYPE)));

  00030	bb ff ff ff 1f	 mov	 ebx, 536870911		; 1fffffffH
  00035	3b f3		 cmp	 esi, ebx
  00037	0f 42 de	 cmovb	 ebx, esi

; 85   : 			ar.Write(pData, nElementsToWrite*sizeof(TYPE));

  0003a	8d 3c 9d 00 00
	00 00		 lea	 edi, DWORD PTR [ebx*4]
  00041	57		 push	 edi
  00042	51		 push	 ecx
  00043	8b ca		 mov	 ecx, edx
  00045	e8 00 00 00 00	 call	 ?Write@CArchive@@QAEXPBXI@Z ; CArchive::Write

; 86   : 			nElementsLeft -= nElementsToWrite;
; 87   : 			pData += nElementsToWrite;

  0004a	8b 4d 0c	 mov	 ecx, DWORD PTR _pElements$[ebp]
  0004d	8b 55 08	 mov	 edx, DWORD PTR _ar$[ebp]
  00050	03 cf		 add	 ecx, edi
  00052	89 4d 0c	 mov	 DWORD PTR _pElements$[ebp], ecx
  00055	2b f3		 sub	 esi, ebx
  00057	75 d7		 jne	 SHORT $LL5@SerializeE
$LN8@SerializeE:
  00059	5f		 pop	 edi

; 105  : 		}
; 106  : 	}
; 107  : }

  0005a	5e		 pop	 esi
  0005b	5b		 pop	 ebx
  0005c	5d		 pop	 ebp
  0005d	c2 0c 00	 ret	 12			; 0000000cH
$LN10@SerializeE:

; 97   : 		while( nElementsLeft > 0 )

  00060	85 f6		 test	 esi, esi
  00062	74 f5		 je	 SHORT $LN8@SerializeE
$LL7@SerializeE:

; 98   : 		{
; 99   : 			UINT nElementsToRead;
; 100  : 
; 101  : 			nElementsToRead = UINT(__min(nElementsLeft, INT_MAX/sizeof(TYPE)));

  00064	bf ff ff ff 1f	 mov	 edi, 536870911		; 1fffffffH
  00069	3b f7		 cmp	 esi, edi
  0006b	0f 42 fe	 cmovb	 edi, esi

; 102  : 			ar.EnsureRead(pData, nElementsToRead*sizeof(TYPE));

  0006e	8d 1c bd 00 00
	00 00		 lea	 ebx, DWORD PTR [edi*4]
; File C:\Program Files (x86)\Microsoft Visual Studio\2019\Community\VC\Tools\MSVC\14.29.30133\atlmfc\include\afx.inl

; 399  : 	UINT nRead=Read(lpBuf, nCount);

  00075	53		 push	 ebx
  00076	51		 push	 ecx
  00077	8b ca		 mov	 ecx, edx
  00079	e8 00 00 00 00	 call	 ?Read@CArchive@@QAEIPAXI@Z ; CArchive::Read

; 400  : 	if(nRead!=nCount)

  0007e	3b c3		 cmp	 eax, ebx
  00080	75 16		 jne	 SHORT $LN23@SerializeE
; File C:\Program Files (x86)\Microsoft Visual Studio\2019\Community\VC\Tools\MSVC\14.29.30133\atlmfc\include\afxtempl.h

; 97   : 		while( nElementsLeft > 0 )

  00082	8b 4d 0c	 mov	 ecx, DWORD PTR _pElements$[ebp]
  00085	8b 55 08	 mov	 edx, DWORD PTR _ar$[ebp]

; 103  : 			nElementsLeft -= nElementsToRead;
; 104  : 			pData += nElementsToRead;

  00088	03 cb		 add	 ecx, ebx
  0008a	89 4d 0c	 mov	 DWORD PTR _pElements$[ebp], ecx
  0008d	2b f7		 sub	 esi, edi
  0008f	75 d3		 jne	 SHORT $LL7@SerializeE

; 105  : 		}
; 106  : 	}
; 107  : }

  00091	5f		 pop	 edi
  00092	5e		 pop	 esi
  00093	5b		 pop	 ebx
  00094	5d		 pop	 ebp
  00095	c2 0c 00	 ret	 12			; 0000000cH
$LN23@SerializeE:
; File C:\Program Files (x86)\Microsoft Visual Studio\2019\Community\VC\Tools\MSVC\14.29.30133\atlmfc\include\afx.inl

; 402  : 		AfxThrowArchiveException(CArchiveException::endOfFile);

  00098	6a 00		 push	 0
  0009a	6a 03		 push	 3
  0009c	e8 00 00 00 00	 call	 ?AfxThrowArchiveException@@YGXHPBD@Z ; AfxThrowArchiveException
$LN34@SerializeE:
; File C:\Program Files (x86)\Microsoft Visual Studio\2019\Community\VC\Tools\MSVC\14.29.30133\atlmfc\include\afxtempl.h

; 68   : 	ENSURE(nCount == 0 || pElements != NULL);

  000a1	e8 00 00 00 00	 call	 ?AfxThrowInvalidArgException@@YGXXZ ; AfxThrowInvalidArgException
$LN32@SerializeE:
  000a6	cc		 int	 3
??$SerializeElements@PAU_ST_HORZLINE@@@@YGXAAVCArchive@@PAPAU_ST_HORZLINE@@H@Z ENDP ; SerializeElements<_ST_HORZLINE *>
_TEXT	ENDS
; Function compile flags: /Ogtp
; File D:\git\src\IBK\IBK_DRFN\ProjSrc\SrcChartEx\ChartOCX\IndicatorCondition\GraphData.cpp
;	COMDAT ??4CSubGraphData@@QAEAAV0@ABV0@@Z
_TEXT	SEGMENT
_data$ = 8						; size = 4
??4CSubGraphData@@QAEAAV0@ABV0@@Z PROC			; CSubGraphData::operator=, COMDAT
; _this$ = ecx

; 1487 : {

  00000	55		 push	 ebp
  00001	8b ec		 mov	 ebp, esp

; 1488 : 	if( this == &data) return *this;

  00003	8b 45 08	 mov	 eax, DWORD PTR _data$[ebp]
  00006	56		 push	 esi
  00007	8b f1		 mov	 esi, ecx
  00009	3b f0		 cmp	 esi, eax
  0000b	74 06		 je	 SHORT $LN4@operator

; 1489 : 	*( CSubGraphDataBase *)this = *( CSubGraphDataBase *)&data;

  0000d	50		 push	 eax
  0000e	e8 00 00 00 00	 call	 ??4CSubGraphDataBase@@QAEAAV0@ABV0@@Z ; CSubGraphDataBase::operator=
$LN4@operator:

; 1490 : 	return *this;
; 1491 : }

  00013	8b c6		 mov	 eax, esi
  00015	5e		 pop	 esi
  00016	5d		 pop	 ebp
  00017	c2 04 00	 ret	 4
??4CSubGraphData@@QAEAAV0@ABV0@@Z ENDP			; CSubGraphData::operator=
_TEXT	ENDS
; Function compile flags: /Ogtp
; File D:\git\src\IBK\IBK_DRFN\ProjSrc\SrcChartEx\ChartOCX\IndicatorCondition\GraphData.cpp
;	COMDAT ?GetHiding@CSubGraphData@@ABE_NXZ
_TEXT	SEGMENT
?GetHiding@CSubGraphData@@ABE_NXZ PROC			; CSubGraphData::GetHiding, COMDAT
; _this$ = ecx

; 1483 : 	return m_bHiding;

  00000	8a 41 24	 mov	 al, BYTE PTR [ecx+36]

; 1484 : }

  00003	c3		 ret	 0
?GetHiding@CSubGraphData@@ABE_NXZ ENDP			; CSubGraphData::GetHiding
_TEXT	ENDS
; Function compile flags: /Ogtp
; File D:\git\src\IBK\IBK_DRFN\ProjSrc\SrcChartEx\ChartOCX\IndicatorCondition\GraphData.cpp
;	COMDAT ?ClearCalcDataForDraw@CSubGraphData@@QAEXXZ
_TEXT	SEGMENT
?ClearCalcDataForDraw@CSubGraphData@@QAEXXZ PROC	; CSubGraphData::ClearCalcDataForDraw, COMDAT
; _this$ = ecx

; 1473 : {

  00000	56		 push	 esi
  00001	8b f1		 mov	 esi, ecx

; 1474 : 	if( m_pGraphCache)

  00003	8b 8e 84 00 00
	00		 mov	 ecx, DWORD PTR [esi+132]
  00009	85 c9		 test	 ecx, ecx
  0000b	74 10		 je	 SHORT $LN2@ClearCalcD

; 1475 : 	{
; 1476 : 		delete m_pGraphCache;

  0000d	8b 01		 mov	 eax, DWORD PTR [ecx]
  0000f	6a 01		 push	 1
  00011	ff 10		 call	 DWORD PTR [eax]

; 1477 : 		m_pGraphCache = NULL;

  00013	c7 86 84 00 00
	00 00 00 00 00	 mov	 DWORD PTR [esi+132], 0
$LN2@ClearCalcD:

; 1478 : 	}
; 1479 : }

  0001d	5e		 pop	 esi
  0001e	c3		 ret	 0
?ClearCalcDataForDraw@CSubGraphData@@QAEXXZ ENDP	; CSubGraphData::ClearCalcDataForDraw
_TEXT	ENDS
; Function compile flags: /Ogtp
; File D:\git\src\IBK\IBK_DRFN\ProjSrc\SrcChartEx\ChartOCX\IndicatorCondition\GraphData.cpp
; File C:\Program Files (x86)\Microsoft Visual Studio\2019\Community\VC\Tools\MSVC\14.29.30133\atlmfc\include\afxtempl.h
; File D:\git\src\IBK\IBK_DRFN\ProjSrc\SrcChartEx\ChartOCX\IndicatorCondition\GraphData.cpp
;	COMDAT ??1CSubGraphData@@QAE@XZ
_TEXT	SEGMENT
__$EHRec$ = -12						; size = 12
??1CSubGraphData@@QAE@XZ PROC				; CSubGraphData::~CSubGraphData, COMDAT
; _this$ = ecx

; 1468 : {

  00000	55		 push	 ebp
  00001	8b ec		 mov	 ebp, esp
  00003	6a ff		 push	 -1
  00005	68 00 00 00 00	 push	 __ehhandler$??1CSubGraphData@@QAE@XZ
  0000a	64 a1 00 00 00
	00		 mov	 eax, DWORD PTR fs:0
  00010	50		 push	 eax
  00011	56		 push	 esi
  00012	a1 00 00 00 00	 mov	 eax, DWORD PTR ___security_cookie
  00017	33 c5		 xor	 eax, ebp
  00019	50		 push	 eax
  0001a	8d 45 f4	 lea	 eax, DWORD PTR __$EHRec$[ebp]
  0001d	64 a3 00 00 00
	00		 mov	 DWORD PTR fs:0, eax
  00023	8b f1		 mov	 esi, ecx

; 1474 : 	if( m_pGraphCache)

  00025	8b 8e 84 00 00
	00		 mov	 ecx, DWORD PTR [esi+132]
  0002b	85 c9		 test	 ecx, ecx
  0002d	74 10		 je	 SHORT $LN4@CSubGraphD

; 1475 : 	{
; 1476 : 		delete m_pGraphCache;

  0002f	8b 01		 mov	 eax, DWORD PTR [ecx]
  00031	6a 01		 push	 1
  00033	ff 10		 call	 DWORD PTR [eax]

; 1477 : 		m_pGraphCache = NULL;

  00035	c7 86 84 00 00
	00 00 00 00 00	 mov	 DWORD PTR [esi+132], 0
$LN4@CSubGraphD:

; 985  : 	DeleteAllHorizontalLine();

  0003f	8b ce		 mov	 ecx, esi
  00041	c7 45 fc 00 00
	00 00		 mov	 DWORD PTR __$EHRec$[ebp+8], 0
  00048	e8 00 00 00 00	 call	 ?DeleteAllHorizontalLine@CSubGraphDataBase@@QAEXXZ ; CSubGraphDataBase::DeleteAllHorizontalLine
; File C:\Program Files (x86)\Microsoft Visual Studio\2019\Community\VC\Tools\MSVC\14.29.30133\atlmfc\include\afxtempl.h

; 358  : 	if (m_pData != NULL)

  0004d	8b 46 74	 mov	 eax, DWORD PTR [esi+116]
  00050	c7 46 70 00 00
	00 00		 mov	 DWORD PTR [esi+112], OFFSET ??_7?$CArray@PAU_ST_HORZLINE@@PAU1@@@6B@
  00057	85 c0		 test	 eax, eax
  00059	74 10		 je	 SHORT $LN15@CSubGraphD

; 359  : 	{
; 360  : 		for( int i = 0; i < m_nSize; i++ )

  0005b	83 7e 78 00	 cmp	 DWORD PTR [esi+120], 0
  0005f	0f 4f c0	 cmovg	 eax, eax

; 361  : 			(m_pData + i)->~TYPE();
; 362  : 		delete[] (BYTE*)m_pData;

  00062	50		 push	 eax
  00063	e8 00 00 00 00	 call	 ??_V@YAXPAX@Z		; operator delete[]
  00068	83 c4 04	 add	 esp, 4
$LN15@CSubGraphD:
; File D:\git\src\IBK\IBK_DRFN\ProjSrc\SrcChartEx\ChartOCX\IndicatorCondition\GraphData.cpp

; 986  : }

  0006b	8d 4e 68	 lea	 ecx, DWORD PTR [esi+104]
  0006e	ff 15 00 00 00
	00		 call	 DWORD PTR __imp_??1?$CStringT@DV?$StrTraitMFC_DLL@DV?$ChTraitsCRT@D@ATL@@@@@ATL@@QAE@XZ
  00074	8d 4e 20	 lea	 ecx, DWORD PTR [esi+32]
  00077	ff 15 00 00 00
	00		 call	 DWORD PTR __imp_??1?$CStringT@DV?$StrTraitMFC_DLL@DV?$ChTraitsCRT@D@ATL@@@@@ATL@@QAE@XZ
  0007d	8d 4e 1c	 lea	 ecx, DWORD PTR [esi+28]
  00080	ff 15 00 00 00
	00		 call	 DWORD PTR __imp_??1?$CStringT@DV?$StrTraitMFC_DLL@DV?$ChTraitsCRT@D@ATL@@@@@ATL@@QAE@XZ

; 1469 : 	ClearCalcDataForDraw();
; 1470 : }

  00086	8b 4d f4	 mov	 ecx, DWORD PTR __$EHRec$[ebp]
  00089	64 89 0d 00 00
	00 00		 mov	 DWORD PTR fs:0, ecx
  00090	59		 pop	 ecx
  00091	5e		 pop	 esi
  00092	8b e5		 mov	 esp, ebp
  00094	5d		 pop	 ebp
  00095	c3		 ret	 0
  00096	cc		 int	 3
  00097	cc		 int	 3
  00098	cc		 int	 3
  00099	cc		 int	 3
  0009a	cc		 int	 3
_TEXT	ENDS
;	COMDAT text$x
text$x	SEGMENT
__ehhandler$??1CSubGraphData@@QAE@XZ:
  00000	90		 npad	 1
  00001	90		 npad	 1
  00002	8b 54 24 08	 mov	 edx, DWORD PTR [esp+8]
  00006	8d 42 0c	 lea	 eax, DWORD PTR [edx+12]
  00009	8b 4a f8	 mov	 ecx, DWORD PTR [edx-8]
  0000c	33 c8		 xor	 ecx, eax
  0000e	e8 00 00 00 00	 call	 @__security_check_cookie@4
  00013	b8 00 00 00 00	 mov	 eax, OFFSET __ehfuncinfo$??1CSubGraphData@@QAE@XZ
  00018	e9 00 00 00 00	 jmp	 ___CxxFrameHandler3
text$x	ENDS
??1CSubGraphData@@QAE@XZ ENDP				; CSubGraphData::~CSubGraphData
; Function compile flags: /Ogtp
; File D:\git\src\IBK\IBK_DRFN\ProjSrc\SrcChartEx\ChartOCX\IndicatorCondition\GraphData.cpp
;	COMDAT ??0CSubGraphData@@QAE@PBDPAUHWND__@@0@Z
_TEXT	SEGMENT
_this$ = -4						; size = 4
_p_szSubGraphData$ = 8					; size = 4
_p_hOcxWnd$ = 12					; size = 4
_p_szIndicatorName$ = 16				; size = 4
??0CSubGraphData@@QAE@PBDPAUHWND__@@0@Z PROC		; CSubGraphData::CSubGraphData, COMDAT
; _this$ = ecx

; 1463 : {

  00000	55		 push	 ebp
  00001	8b ec		 mov	 ebp, esp
  00003	51		 push	 ecx
  00004	56		 push	 esi
  00005	ff 75 10	 push	 DWORD PTR _p_szIndicatorName$[ebp]
  00008	8b f1		 mov	 esi, ecx
  0000a	ff 75 0c	 push	 DWORD PTR _p_hOcxWnd$[ebp]
  0000d	89 75 fc	 mov	 DWORD PTR _this$[ebp], esi
  00010	ff 75 08	 push	 DWORD PTR _p_szSubGraphData$[ebp]
  00013	e8 00 00 00 00	 call	 ??0CSubGraphDataBase@@QAE@PBDPAUHWND__@@0@Z ; CSubGraphDataBase::CSubGraphDataBase

; 1464 : 	m_pGraphCache = NULL;

  00018	c7 86 84 00 00
	00 00 00 00 00	 mov	 DWORD PTR [esi+132], 0

; 1465 : }

  00022	8b c6		 mov	 eax, esi
  00024	5e		 pop	 esi
  00025	8b e5		 mov	 esp, ebp
  00027	5d		 pop	 ebp
  00028	c2 0c 00	 ret	 12			; 0000000cH
??0CSubGraphData@@QAE@PBDPAUHWND__@@0@Z ENDP		; CSubGraphData::CSubGraphData
_TEXT	ENDS
; Function compile flags: /Ogtp
; File D:\git\src\IBK\IBK_DRFN\ProjSrc\SrcChartEx\ChartOCX\IndicatorCondition\GraphData.cpp
;	COMDAT ??0CSubGraphData@@QAE@ABV0@@Z
_TEXT	SEGMENT
_this$ = -4						; size = 4
_data$ = 8						; size = 4
??0CSubGraphData@@QAE@ABV0@@Z PROC			; CSubGraphData::CSubGraphData, COMDAT
; _this$ = ecx

; 1458 : {

  00000	55		 push	 ebp
  00001	8b ec		 mov	 ebp, esp
  00003	51		 push	 ecx
  00004	56		 push	 esi
  00005	ff 75 08	 push	 DWORD PTR _data$[ebp]
  00008	8b f1		 mov	 esi, ecx
  0000a	89 75 fc	 mov	 DWORD PTR _this$[ebp], esi
  0000d	e8 00 00 00 00	 call	 ??0CSubGraphDataBase@@QAE@ABV0@@Z ; CSubGraphDataBase::CSubGraphDataBase

; 1459 : 	m_pGraphCache = NULL;

  00012	c7 86 84 00 00
	00 00 00 00 00	 mov	 DWORD PTR [esi+132], 0

; 1460 : }

  0001c	8b c6		 mov	 eax, esi
  0001e	5e		 pop	 esi
  0001f	8b e5		 mov	 esp, ebp
  00021	5d		 pop	 ebp
  00022	c2 04 00	 ret	 4
??0CSubGraphData@@QAE@ABV0@@Z ENDP			; CSubGraphData::CSubGraphData
_TEXT	ENDS
; Function compile flags: /Ogtp
; File D:\git\src\IBK\IBK_DRFN\ProjSrc\SrcChartEx\ChartOCX\IndicatorCondition\GraphData.cpp
;	COMDAT ??0CSubGraphData@@QAE@W4GRAPHTYPE@CGraphBaseData@@ABVCGraphStyle@@ABVCGraphDrawStyle@@ABV?$CStringT@DV?$StrTraitMFC_DLL@DV?$ChTraitsCRT@D@ATL@@@@@ATL@@3_NABVCGraphColor@@ABVCPenThickness@@ABVCGraphPaintStyle@@ABVCGraphBaseLineStyle@@@Z
_TEXT	SEGMENT
_this$ = -4						; size = 4
_type$ = 8						; size = 4
_style$ = 12						; size = 4
_drawStyle$ = 16					; size = 4
_name$ = 20						; size = 4
_title$ = 24						; size = 4
_hiding$ = 28						; size = 1
_color$ = 32						; size = 4
_penThickness$ = 36					; size = 4
_paintStyle$ = 40					; size = 4
_baseLineStyle$ = 44					; size = 4
??0CSubGraphData@@QAE@W4GRAPHTYPE@CGraphBaseData@@ABVCGraphStyle@@ABVCGraphDrawStyle@@ABV?$CStringT@DV?$StrTraitMFC_DLL@DV?$ChTraitsCRT@D@ATL@@@@@ATL@@3_NABVCGraphColor@@ABVCPenThickness@@ABVCGraphPaintStyle@@ABVCGraphBaseLineStyle@@@Z PROC ; CSubGraphData::CSubGraphData, COMDAT
; _this$ = ecx

; 1453 : {

  00000	55		 push	 ebp
  00001	8b ec		 mov	 ebp, esp
  00003	51		 push	 ecx
  00004	56		 push	 esi
  00005	ff 75 2c	 push	 DWORD PTR _baseLineStyle$[ebp]
  00008	8b f1		 mov	 esi, ecx
  0000a	ff 75 28	 push	 DWORD PTR _paintStyle$[ebp]
  0000d	89 75 fc	 mov	 DWORD PTR _this$[ebp], esi
  00010	ff 75 24	 push	 DWORD PTR _penThickness$[ebp]
  00013	ff 75 20	 push	 DWORD PTR _color$[ebp]
  00016	ff 75 1c	 push	 DWORD PTR _hiding$[ebp]
  00019	ff 75 18	 push	 DWORD PTR _title$[ebp]
  0001c	ff 75 14	 push	 DWORD PTR _name$[ebp]
  0001f	ff 75 10	 push	 DWORD PTR _drawStyle$[ebp]
  00022	ff 75 0c	 push	 DWORD PTR _style$[ebp]
  00025	ff 75 08	 push	 DWORD PTR _type$[ebp]
  00028	e8 00 00 00 00	 call	 ??0CSubGraphDataBase@@QAE@W4GRAPHTYPE@CGraphBaseData@@ABVCGraphStyle@@ABVCGraphDrawStyle@@ABV?$CStringT@DV?$StrTraitMFC_DLL@DV?$ChTraitsCRT@D@ATL@@@@@ATL@@3_NABVCGraphColor@@ABVCPenThickness@@ABVCGraphPaintStyle@@ABVCGraphBaseLineStyle@@@Z ; CSubGraphDataBase::CSubGraphDataBase

; 1454 : 	m_pGraphCache = NULL;

  0002d	c7 86 84 00 00
	00 00 00 00 00	 mov	 DWORD PTR [esi+132], 0

; 1455 : }

  00037	8b c6		 mov	 eax, esi
  00039	5e		 pop	 esi
  0003a	8b e5		 mov	 esp, ebp
  0003c	5d		 pop	 ebp
  0003d	c2 28 00	 ret	 40			; 00000028H
??0CSubGraphData@@QAE@W4GRAPHTYPE@CGraphBaseData@@ABVCGraphStyle@@ABVCGraphDrawStyle@@ABV?$CStringT@DV?$StrTraitMFC_DLL@DV?$ChTraitsCRT@D@ATL@@@@@ATL@@3_NABVCGraphColor@@ABVCPenThickness@@ABVCGraphPaintStyle@@ABVCGraphBaseLineStyle@@@Z ENDP ; CSubGraphData::CSubGraphData
_TEXT	ENDS
; Function compile flags: /Ogtp
; File D:\git\src\IBK\IBK_DRFN\ProjSrc\SrcChartEx\ChartOCX\IndicatorCondition\GraphData.cpp
;	COMDAT ??0CSubGraphData@@QAE@XZ
_TEXT	SEGMENT
_this$ = -4						; size = 4
??0CSubGraphData@@QAE@XZ PROC				; CSubGraphData::CSubGraphData, COMDAT
; _this$ = ecx

; 1444 : {

  00000	55		 push	 ebp
  00001	8b ec		 mov	 ebp, esp
  00003	51		 push	 ecx
  00004	56		 push	 esi
  00005	8b f1		 mov	 esi, ecx
  00007	89 75 fc	 mov	 DWORD PTR _this$[ebp], esi
  0000a	e8 00 00 00 00	 call	 ??0CSubGraphDataBase@@QAE@XZ ; CSubGraphDataBase::CSubGraphDataBase

; 1445 : 	m_pGraphCache = NULL;

  0000f	c7 86 84 00 00
	00 00 00 00 00	 mov	 DWORD PTR [esi+132], 0

; 1446 : }

  00019	8b c6		 mov	 eax, esi
  0001b	5e		 pop	 esi
  0001c	8b e5		 mov	 esp, ebp
  0001e	5d		 pop	 ebp
  0001f	c3		 ret	 0
??0CSubGraphData@@QAE@XZ ENDP				; CSubGraphData::CSubGraphData
_TEXT	ENDS
; Function compile flags: /Ogtp
; File C:\Program Files (x86)\Microsoft Visual Studio\2019\Community\VC\Tools\MSVC\14.29.30133\atlmfc\include\afxtempl.h
; File C:\Program Files (x86)\Microsoft Visual Studio\2019\Community\VC\Tools\MSVC\14.29.30133\atlmfc\include\afx.inl
;	COMDAT ??_G?$CArray@PAU_ST_HORZLINE@@PAU1@@@UAEPAXI@Z
_TEXT	SEGMENT
___flags$ = 8						; size = 4
??_G?$CArray@PAU_ST_HORZLINE@@PAU1@@@UAEPAXI@Z PROC	; CArray<_ST_HORZLINE *,_ST_HORZLINE *>::`scalar deleting destructor', COMDAT
; _this$ = ecx
  00000	55		 push	 ebp
  00001	8b ec		 mov	 ebp, esp
; File C:\Program Files (x86)\Microsoft Visual Studio\2019\Community\VC\Tools\MSVC\14.29.30133\atlmfc\include\afxtempl.h

; 355  : {

  00003	56		 push	 esi
  00004	8b f1		 mov	 esi, ecx

; 356  : 	ASSERT_VALID(this);
; 357  : 
; 358  : 	if (m_pData != NULL)

  00006	8b 46 04	 mov	 eax, DWORD PTR [esi+4]
  00009	c7 06 00 00 00
	00		 mov	 DWORD PTR [esi], OFFSET ??_7?$CArray@PAU_ST_HORZLINE@@PAU1@@@6B@
  0000f	85 c0		 test	 eax, eax
  00011	74 09		 je	 SHORT $LN11@scalar

; 359  : 	{
; 360  : 		for( int i = 0; i < m_nSize; i++ )
; 361  : 			(m_pData + i)->~TYPE();
; 362  : 		delete[] (BYTE*)m_pData;

  00013	50		 push	 eax
  00014	e8 00 00 00 00	 call	 ??_V@YAXPAX@Z		; operator delete[]
  00019	83 c4 04	 add	 esp, 4
$LN11@scalar:
  0001c	8b 45 08	 mov	 eax, DWORD PTR ___flags$[ebp]
  0001f	a8 01		 test	 al, 1
  00021	74 1f		 je	 SHORT $LN20@scalar
  00023	a8 04		 test	 al, 4
  00025	75 10		 jne	 SHORT $LN3@scalar
; File C:\Program Files (x86)\Microsoft Visual Studio\2019\Community\VC\Tools\MSVC\14.29.30133\atlmfc\include\afx.inl

; 112  : 	{ ::operator delete(p); }

  00027	56		 push	 esi
  00028	e8 00 00 00 00	 call	 ??3@YAXPAX@Z		; operator delete
  0002d	83 c4 04	 add	 esp, 4
  00030	8b c6		 mov	 eax, esi
  00032	5e		 pop	 esi
  00033	5d		 pop	 ebp
  00034	c2 04 00	 ret	 4
$LN3@scalar:
  00037	6a 14		 push	 20			; 00000014H
  00039	56		 push	 esi
  0003a	e8 00 00 00 00	 call	 ?__global_delete@@YAXPAXI@Z ; __global_delete
  0003f	83 c4 08	 add	 esp, 8
$LN20@scalar:
  00042	8b c6		 mov	 eax, esi
  00044	5e		 pop	 esi
  00045	5d		 pop	 ebp
  00046	c2 04 00	 ret	 4
??_G?$CArray@PAU_ST_HORZLINE@@PAU1@@@UAEPAXI@Z ENDP	; CArray<_ST_HORZLINE *,_ST_HORZLINE *>::`scalar deleting destructor'
_TEXT	ENDS
; Function compile flags: /Ogtp
; File C:\Program Files (x86)\Microsoft Visual Studio\2019\Community\VC\Tools\MSVC\14.29.30133\atlmfc\include\afxtempl.h
; File C:\Program Files (x86)\Microsoft Visual Studio\2019\Community\VC\Tools\MSVC\14.29.30133\atlmfc\include\afx.inl
; File C:\Program Files (x86)\Microsoft Visual Studio\2019\Community\VC\Tools\MSVC\14.29.30133\atlmfc\include\afxtempl.h
; File C:\Program Files (x86)\Microsoft Visual Studio\2019\Community\VC\Tools\MSVC\14.29.30133\atlmfc\include\afx.inl
; File C:\Program Files (x86)\Microsoft Visual Studio\2019\Community\VC\Tools\MSVC\14.29.30133\atlmfc\include\afxtempl.h
; File C:\Program Files (x86)\Microsoft Visual Studio\2019\Community\VC\Tools\MSVC\14.29.30133\atlmfc\include\afx.inl
; File C:\Program Files (x86)\Microsoft Visual Studio\2019\Community\VC\Tools\MSVC\14.29.30133\atlmfc\include\afxtempl.h
; File C:\Program Files (x86)\Microsoft Visual Studio\2019\Community\VC\Tools\MSVC\14.29.30133\atlmfc\include\afx.inl
; File C:\Program Files (x86)\Microsoft Visual Studio\2019\Community\VC\Tools\MSVC\14.29.30133\atlmfc\include\afxtempl.h
;	COMDAT ?Serialize@?$CArray@PAU_ST_HORZLINE@@PAU1@@@UAEXAAVCArchive@@@Z
_TEXT	SEGMENT
_pData$1$ = -4						; size = 4
_ar$ = 8						; size = 4
?Serialize@?$CArray@PAU_ST_HORZLINE@@PAU1@@@UAEXAAVCArchive@@@Z PROC ; CArray<_ST_HORZLINE *,_ST_HORZLINE *>::Serialize, COMDAT
; _this$ = ecx

; 633  : {

  00000	55		 push	 ebp
  00001	8b ec		 mov	 ebp, esp
  00003	51		 push	 ecx
  00004	53		 push	 ebx
  00005	56		 push	 esi
  00006	57		 push	 edi
  00007	8b f9		 mov	 edi, ecx
; File C:\Program Files (x86)\Microsoft Visual Studio\2019\Community\VC\Tools\MSVC\14.29.30133\atlmfc\include\afx.inl

; 212  : 	{ return (m_nMode & CArchive::load) == 0; }

  00009	8b 4d 08	 mov	 ecx, DWORD PTR _ar$[ebp]
  0000c	8b 41 18	 mov	 eax, DWORD PTR [ecx+24]
  0000f	f7 d0		 not	 eax
  00011	a8 01		 test	 al, 1
; File C:\Program Files (x86)\Microsoft Visual Studio\2019\Community\VC\Tools\MSVC\14.29.30133\atlmfc\include\afxtempl.h

; 637  : 	if (ar.IsStoring())

  00013	74 0a		 je	 SHORT $LN2@Serialize

; 638  : 	{
; 639  : 		ar.WriteCount(m_nSize);

  00015	ff 77 08	 push	 DWORD PTR [edi+8]
  00018	e8 00 00 00 00	 call	 ?WriteCount@CArchive@@QAEXK@Z ; CArchive::WriteCount

; 640  : 	}

  0001d	eb 0f		 jmp	 SHORT $LN3@Serialize
$LN2@Serialize:

; 641  : 	else
; 642  : 	{
; 643  : 		DWORD_PTR nOldSize = ar.ReadCount();

  0001f	e8 00 00 00 00	 call	 ?ReadCount@CArchive@@QAEKXZ ; CArchive::ReadCount

; 644  : 		SetSize(nOldSize, -1);

  00024	6a ff		 push	 -1
  00026	50		 push	 eax
  00027	8b cf		 mov	 ecx, edi
  00029	e8 00 00 00 00	 call	 ?SetSize@?$CArray@PAU_ST_HORZLINE@@PAU1@@@QAEXHH@Z ; CArray<_ST_HORZLINE *,_ST_HORZLINE *>::SetSize
$LN3@Serialize:

; 645  : 	}
; 646  : 	SerializeElements<TYPE>(ar, m_pData, m_nSize);

  0002e	8b 77 08	 mov	 esi, DWORD PTR [edi+8]
  00031	8b 4f 04	 mov	 ecx, DWORD PTR [edi+4]
  00034	89 4d fc	 mov	 DWORD PTR _pData$1$[ebp], ecx

; 68   : 	ENSURE(nCount == 0 || pElements != NULL);

  00037	85 f6		 test	 esi, esi
  00039	74 08		 je	 SHORT $LN8@Serialize
  0003b	85 c9		 test	 ecx, ecx
  0003d	0f 84 8c 00 00
	00		 je	 $LN40@Serialize
$LN8@Serialize:
; File C:\Program Files (x86)\Microsoft Visual Studio\2019\Community\VC\Tools\MSVC\14.29.30133\atlmfc\include\afx.inl

; 212  : 	{ return (m_nMode & CArchive::load) == 0; }

  00043	8b 55 08	 mov	 edx, DWORD PTR _ar$[ebp]
  00046	8b 42 18	 mov	 eax, DWORD PTR [edx+24]
  00049	f7 d0		 not	 eax
  0004b	a8 01		 test	 al, 1
; File C:\Program Files (x86)\Microsoft Visual Studio\2019\Community\VC\Tools\MSVC\14.29.30133\atlmfc\include\afxtempl.h

; 73   : 	if (ar.IsStoring())

  0004d	74 36		 je	 SHORT $LN16@Serialize

; 74   : 	{
; 75   : 		TYPE* pData;
; 76   : 		UINT_PTR nElementsLeft;
; 77   : 
; 78   : 		nElementsLeft = nCount;
; 79   : 		pData = pElements;
; 80   : 		while( nElementsLeft > 0 )

  0004f	85 f6		 test	 esi, esi
  00051	74 29		 je	 SHORT $LN14@Serialize
$LL11@Serialize:

; 81   : 		{
; 82   : 			UINT nElementsToWrite;
; 83   : 
; 84   : 			nElementsToWrite = UINT(__min(nElementsLeft, INT_MAX/sizeof(TYPE)));

  00053	bb ff ff ff 1f	 mov	 ebx, 536870911		; 1fffffffH
  00058	3b f3		 cmp	 esi, ebx
  0005a	0f 42 de	 cmovb	 ebx, esi

; 85   : 			ar.Write(pData, nElementsToWrite*sizeof(TYPE));

  0005d	8d 3c 9d 00 00
	00 00		 lea	 edi, DWORD PTR [ebx*4]
  00064	57		 push	 edi
  00065	51		 push	 ecx
  00066	8b ca		 mov	 ecx, edx
  00068	e8 00 00 00 00	 call	 ?Write@CArchive@@QAEXPBXI@Z ; CArchive::Write

; 86   : 			nElementsLeft -= nElementsToWrite;
; 87   : 			pData += nElementsToWrite;

  0006d	8b 4d fc	 mov	 ecx, DWORD PTR _pData$1$[ebp]
  00070	8b 55 08	 mov	 edx, DWORD PTR _ar$[ebp]
  00073	03 cf		 add	 ecx, edi
  00075	89 4d fc	 mov	 DWORD PTR _pData$1$[ebp], ecx
  00078	2b f3		 sub	 esi, ebx
  0007a	75 d7		 jne	 SHORT $LL11@Serialize
$LN14@Serialize:
  0007c	5f		 pop	 edi

; 647  : }

  0007d	5e		 pop	 esi
  0007e	5b		 pop	 ebx
  0007f	8b e5		 mov	 esp, ebp
  00081	5d		 pop	 ebp
  00082	c2 04 00	 ret	 4
$LN16@Serialize:

; 97   : 		while( nElementsLeft > 0 )

  00085	85 f6		 test	 esi, esi
  00087	74 f3		 je	 SHORT $LN14@Serialize
  00089	0f 1f 80 00 00
	00 00		 npad	 7
$LL13@Serialize:

; 98   : 		{
; 99   : 			UINT nElementsToRead;
; 100  : 
; 101  : 			nElementsToRead = UINT(__min(nElementsLeft, INT_MAX/sizeof(TYPE)));

  00090	bf ff ff ff 1f	 mov	 edi, 536870911		; 1fffffffH
  00095	3b f7		 cmp	 esi, edi
  00097	0f 42 fe	 cmovb	 edi, esi

; 102  : 			ar.EnsureRead(pData, nElementsToRead*sizeof(TYPE));

  0009a	8d 1c bd 00 00
	00 00		 lea	 ebx, DWORD PTR [edi*4]
; File C:\Program Files (x86)\Microsoft Visual Studio\2019\Community\VC\Tools\MSVC\14.29.30133\atlmfc\include\afx.inl

; 399  : 	UINT nRead=Read(lpBuf, nCount);

  000a1	53		 push	 ebx
  000a2	51		 push	 ecx
  000a3	8b ca		 mov	 ecx, edx
  000a5	e8 00 00 00 00	 call	 ?Read@CArchive@@QAEIPAXI@Z ; CArchive::Read

; 400  : 	if(nRead!=nCount)

  000aa	3b c3		 cmp	 eax, ebx
  000ac	75 18		 jne	 SHORT $LN30@Serialize
; File C:\Program Files (x86)\Microsoft Visual Studio\2019\Community\VC\Tools\MSVC\14.29.30133\atlmfc\include\afxtempl.h

; 97   : 		while( nElementsLeft > 0 )

  000ae	8b 4d fc	 mov	 ecx, DWORD PTR _pData$1$[ebp]
  000b1	8b 55 08	 mov	 edx, DWORD PTR _ar$[ebp]

; 103  : 			nElementsLeft -= nElementsToRead;
; 104  : 			pData += nElementsToRead;

  000b4	03 cb		 add	 ecx, ebx
  000b6	89 4d fc	 mov	 DWORD PTR _pData$1$[ebp], ecx
  000b9	2b f7		 sub	 esi, edi
  000bb	75 d3		 jne	 SHORT $LL13@Serialize

; 647  : }

  000bd	5f		 pop	 edi
  000be	5e		 pop	 esi
  000bf	5b		 pop	 ebx
  000c0	8b e5		 mov	 esp, ebp
  000c2	5d		 pop	 ebp
  000c3	c2 04 00	 ret	 4
$LN30@Serialize:
; File C:\Program Files (x86)\Microsoft Visual Studio\2019\Community\VC\Tools\MSVC\14.29.30133\atlmfc\include\afx.inl

; 402  : 		AfxThrowArchiveException(CArchiveException::endOfFile);

  000c6	6a 00		 push	 0
  000c8	6a 03		 push	 3
  000ca	e8 00 00 00 00	 call	 ?AfxThrowArchiveException@@YGXHPBD@Z ; AfxThrowArchiveException
$LN40@Serialize:
; File C:\Program Files (x86)\Microsoft Visual Studio\2019\Community\VC\Tools\MSVC\14.29.30133\atlmfc\include\afxtempl.h

; 68   : 	ENSURE(nCount == 0 || pElements != NULL);

  000cf	e8 00 00 00 00	 call	 ?AfxThrowInvalidArgException@@YGXXZ ; AfxThrowInvalidArgException
$LN38@Serialize:
  000d4	cc		 int	 3
?Serialize@?$CArray@PAU_ST_HORZLINE@@PAU1@@@UAEXAAVCArchive@@@Z ENDP ; CArray<_ST_HORZLINE *,_ST_HORZLINE *>::Serialize
_TEXT	ENDS
; Function compile flags: /Ogtp
; File C:\Program Files (x86)\Microsoft Visual Studio\2019\Community\VC\Tools\MSVC\14.29.30133\atlmfc\include\afxtempl.h
;	COMDAT ??1?$CArray@PAU_ST_HORZLINE@@PAU1@@@UAE@XZ
_TEXT	SEGMENT
??1?$CArray@PAU_ST_HORZLINE@@PAU1@@@UAE@XZ PROC		; CArray<_ST_HORZLINE *,_ST_HORZLINE *>::~CArray<_ST_HORZLINE *,_ST_HORZLINE *>, COMDAT
; _this$ = ecx

; 356  : 	ASSERT_VALID(this);
; 357  : 
; 358  : 	if (m_pData != NULL)

  00000	8b 41 04	 mov	 eax, DWORD PTR [ecx+4]
  00003	c7 01 00 00 00
	00		 mov	 DWORD PTR [ecx], OFFSET ??_7?$CArray@PAU_ST_HORZLINE@@PAU1@@@6B@
  00009	85 c0		 test	 eax, eax
  0000b	74 07		 je	 SHORT $LN5@CArray

; 359  : 	{
; 360  : 		for( int i = 0; i < m_nSize; i++ )
; 361  : 			(m_pData + i)->~TYPE();
; 362  : 		delete[] (BYTE*)m_pData;

  0000d	50		 push	 eax
  0000e	e8 00 00 00 00	 call	 ??_V@YAXPAX@Z		; operator delete[]
  00013	59		 pop	 ecx
$LN5@CArray:

; 363  : 	}
; 364  : }

  00014	c3		 ret	 0
??1?$CArray@PAU_ST_HORZLINE@@PAU1@@@UAE@XZ ENDP		; CArray<_ST_HORZLINE *,_ST_HORZLINE *>::~CArray<_ST_HORZLINE *,_ST_HORZLINE *>
_TEXT	ENDS
; Function compile flags: /Ogtp
; File C:\Program Files (x86)\Microsoft Visual Studio\2019\Community\VC\Tools\MSVC\14.29.30133\atlmfc\include\afxtempl.h
; File C:\Program Files (x86)\Windows Kits\10\Include\10.0.22000.0\ucrt\corecrt_memcpy_s.h
; File C:\Program Files (x86)\Microsoft Visual Studio\2019\Community\VC\Tools\MSVC\14.29.30133\atlmfc\include\afxtempl.h
; File C:\Program Files (x86)\Windows Kits\10\Include\10.0.22000.0\ucrt\corecrt_memcpy_s.h
; File C:\Program Files (x86)\Microsoft Visual Studio\2019\Community\VC\Tools\MSVC\14.29.30133\atlmfc\include\atlchecked.h
; File C:\Program Files (x86)\Windows Kits\10\Include\10.0.22000.0\ucrt\corecrt_memcpy_s.h
; File C:\Program Files (x86)\Microsoft Visual Studio\2019\Community\VC\Tools\MSVC\14.29.30133\atlmfc\include\atlchecked.h
; File C:\Program Files (x86)\Microsoft Visual Studio\2019\Community\VC\Tools\MSVC\14.29.30133\atlmfc\include\afxtempl.h
;	COMDAT ?RemoveAt@?$CArray@PAU_ST_HORZLINE@@PAU1@@@QAEXHH@Z
_TEXT	SEGMENT
__N$1$ = 8						; size = 4
_nIndex$ = 8						; size = 4
_nCount$ = 12						; size = 4
?RemoveAt@?$CArray@PAU_ST_HORZLINE@@PAU1@@@QAEXHH@Z PROC ; CArray<_ST_HORZLINE *,_ST_HORZLINE *>::RemoveAt, COMDAT
; _this$ = ecx

; 590  : {

  00000	55		 push	 ebp
  00001	8b ec		 mov	 ebp, esp
  00003	53		 push	 ebx
  00004	56		 push	 esi

; 591  : 	ASSERT_VALID(this);
; 592  : 	ASSERT(nIndex >= 0);
; 593  : 	ASSERT(nCount >= 0);
; 594  : 	INT_PTR nUpperBound = nIndex + nCount;

  00005	8b 75 0c	 mov	 esi, DWORD PTR _nCount$[ebp]
  00008	8b d9		 mov	 ebx, ecx
  0000a	57		 push	 edi
  0000b	8b 7d 08	 mov	 edi, DWORD PTR _nIndex$[ebp]
  0000e	8d 14 37	 lea	 edx, DWORD PTR [edi+esi]

; 595  : 	ASSERT(nUpperBound <= m_nSize && nUpperBound >= nIndex && nUpperBound >= nCount);
; 596  : 
; 597  : 	if(nIndex < 0 || nCount < 0 || (nUpperBound > m_nSize) || (nUpperBound < nIndex) || (nUpperBound < nCount))

  00011	85 ff		 test	 edi, edi
  00013	78 79		 js	 SHORT $LN6@RemoveAt
  00015	85 f6		 test	 esi, esi
  00017	78 75		 js	 SHORT $LN6@RemoveAt
  00019	8b 43 08	 mov	 eax, DWORD PTR [ebx+8]
  0001c	3b d0		 cmp	 edx, eax
  0001e	7f 6e		 jg	 SHORT $LN6@RemoveAt
  00020	3b d7		 cmp	 edx, edi
  00022	7c 6a		 jl	 SHORT $LN6@RemoveAt
  00024	3b d6		 cmp	 edx, esi
  00026	7c 66		 jl	 SHORT $LN6@RemoveAt

; 599  : 
; 600  : 	// just remove a range
; 601  : 	INT_PTR nMoveCount = m_nSize - (nUpperBound);

  00028	8b c8		 mov	 ecx, eax
  0002a	2b ca		 sub	 ecx, edx

; 602  : 	for( int i = 0; i < nCount; i++ )
; 603  : 		(m_pData + nIndex + i)->~TYPE();
; 604  : 	if (nMoveCount)

  0002c	74 54		 je	 SHORT $LN7@RemoveAt

; 606  : 		::ATL::Checked::memmove_s(m_pData + nIndex, (size_t)nMoveCount * sizeof(TYPE),

  0002e	8d 04 8d 00 00
	00 00		 lea	 eax, DWORD PTR [ecx*4]
  00035	89 45 08	 mov	 DWORD PTR __N$1$[ebp], eax
  00038	8b 43 04	 mov	 eax, DWORD PTR [ebx+4]
  0003b	8d 0c 90	 lea	 ecx, DWORD PTR [eax+edx*4]
; File C:\Program Files (x86)\Windows Kits\10\Include\10.0.22000.0\ucrt\corecrt_memcpy_s.h

; 74   :         if (_SourceSize == 0)

  0003e	8b 55 08	 mov	 edx, DWORD PTR __N$1$[ebp]
; File C:\Program Files (x86)\Microsoft Visual Studio\2019\Community\VC\Tools\MSVC\14.29.30133\atlmfc\include\afxtempl.h

; 606  : 		::ATL::Checked::memmove_s(m_pData + nIndex, (size_t)nMoveCount * sizeof(TYPE),

  00041	8d 04 b8	 lea	 eax, DWORD PTR [eax+edi*4]
; File C:\Program Files (x86)\Windows Kits\10\Include\10.0.22000.0\ucrt\corecrt_memcpy_s.h

; 74   :         if (_SourceSize == 0)

  00044	85 d2		 test	 edx, edx
  00046	74 2c		 je	 SHORT $LN22@RemoveAt

; 75   :         {
; 76   :             return 0;
; 77   :         }
; 78   : 
; 79   :         _CRT_MEMCPY_S_VALIDATE_RETURN_ERRCODE(_Destination != NULL,            EINVAL);

  00048	85 c0		 test	 eax, eax
  0004a	75 19		 jne	 SHORT $LN13@RemoveAt
$LN23@RemoveAt:
; File C:\Program Files (x86)\Microsoft Visual Studio\2019\Community\VC\Tools\MSVC\14.29.30133\atlmfc\include\atlchecked.h

; 87   : 	ATLMFC_CRT_ERRORCHECK(::memmove_s(_S1, _S1max, _S2, _N));

  0004c	ff 15 00 00 00
	00		 call	 DWORD PTR __imp___errno
  00052	c7 00 16 00 00
	00		 mov	 DWORD PTR [eax], 22	; 00000016H
  00058	ff 15 00 00 00
	00		 call	 DWORD PTR __imp___invalid_parameter_noinfo
  0005e	b8 16 00 00 00	 mov	 eax, 22			; 00000016H
  00063	eb 11		 jmp	 SHORT $LN11@RemoveAt
$LN13@RemoveAt:
; File C:\Program Files (x86)\Windows Kits\10\Include\10.0.22000.0\ucrt\corecrt_memcpy_s.h

; 80   :         _CRT_MEMCPY_S_VALIDATE_RETURN_ERRCODE(_Source != NULL,                 EINVAL);

  00065	85 c9		 test	 ecx, ecx
  00067	74 e3		 je	 SHORT $LN23@RemoveAt

; 81   :         _CRT_MEMCPY_S_VALIDATE_RETURN_ERRCODE(_DestinationSize >= _SourceSize, ERANGE);
; 82   : 
; 83   :         memmove(_Destination, _Source, _SourceSize);

  00069	52		 push	 edx
  0006a	51		 push	 ecx
  0006b	50		 push	 eax
  0006c	e8 00 00 00 00	 call	 _memmove
  00071	83 c4 0c	 add	 esp, 12			; 0000000cH
$LN22@RemoveAt:
; File C:\Program Files (x86)\Microsoft Visual Studio\2019\Community\VC\Tools\MSVC\14.29.30133\atlmfc\include\atlchecked.h

; 87   : 	ATLMFC_CRT_ERRORCHECK(::memmove_s(_S1, _S1max, _S2, _N));

  00074	33 c0		 xor	 eax, eax
$LN11@RemoveAt:
  00076	50		 push	 eax
  00077	e8 00 00 00 00	 call	 ?AfxCrtErrorCheck@@YAHH@Z ; AfxCrtErrorCheck
  0007c	8b 43 08	 mov	 eax, DWORD PTR [ebx+8]
  0007f	83 c4 04	 add	 esp, 4
$LN7@RemoveAt:
; File C:\Program Files (x86)\Microsoft Visual Studio\2019\Community\VC\Tools\MSVC\14.29.30133\atlmfc\include\afxtempl.h

; 609  : 	m_nSize -= nCount;

  00082	5f		 pop	 edi
  00083	2b c6		 sub	 eax, esi
  00085	5e		 pop	 esi
  00086	89 43 08	 mov	 DWORD PTR [ebx+8], eax
  00089	5b		 pop	 ebx

; 610  : }

  0008a	5d		 pop	 ebp
  0008b	c2 08 00	 ret	 8
$LN6@RemoveAt:

; 598  : 		AfxThrowInvalidArgException();

  0008e	e8 00 00 00 00	 call	 ?AfxThrowInvalidArgException@@YGXXZ ; AfxThrowInvalidArgException
$LN21@RemoveAt:
  00093	cc		 int	 3
?RemoveAt@?$CArray@PAU_ST_HORZLINE@@PAU1@@@QAEXHH@Z ENDP ; CArray<_ST_HORZLINE *,_ST_HORZLINE *>::RemoveAt
_TEXT	ENDS
; Function compile flags: /Ogtp
; File C:\Program Files (x86)\Microsoft Visual Studio\2019\Community\VC\Tools\MSVC\14.29.30133\atlmfc\include\afxtempl.h
;	COMDAT ?Copy@?$CArray@PAU_ST_HORZLINE@@PAU1@@@QAEXABV1@@Z
_TEXT	SEGMENT
_src$ = 8						; size = 4
?Copy@?$CArray@PAU_ST_HORZLINE@@PAU1@@@QAEXABV1@@Z PROC	; CArray<_ST_HORZLINE *,_ST_HORZLINE *>::Copy, COMDAT
; _this$ = ecx

; 494  : {

  00000	55		 push	 ebp
  00001	8b ec		 mov	 ebp, esp
  00003	53		 push	 ebx
  00004	57		 push	 edi

; 495  : 	ASSERT_VALID(this);
; 496  : 	ASSERT(this != &src);   // cannot append to itself
; 497  : 
; 498  : 	if(this != &src)

  00005	8b 7d 08	 mov	 edi, DWORD PTR _src$[ebp]
  00008	8b d9		 mov	 ebx, ecx
  0000a	3b df		 cmp	 ebx, edi
  0000c	74 33		 je	 SHORT $LN17@Copy

; 499  : 	{
; 500  : 		SetSize(src.m_nSize);

  0000e	56		 push	 esi
  0000f	6a ff		 push	 -1
  00011	ff 77 08	 push	 DWORD PTR [edi+8]
  00014	e8 00 00 00 00	 call	 ?SetSize@?$CArray@PAU_ST_HORZLINE@@PAU1@@@QAEXHH@Z ; CArray<_ST_HORZLINE *,_ST_HORZLINE *>::SetSize

; 501  : 		CopyElements<TYPE>(m_pData, src.m_pData, src.m_nSize);

  00019	8b 77 08	 mov	 esi, DWORD PTR [edi+8]
  0001c	8b 57 04	 mov	 edx, DWORD PTR [edi+4]
  0001f	8b 43 04	 mov	 eax, DWORD PTR [ebx+4]

; 54   : 	ENSURE(nCount == 0 || pDest != 0 && pSrc != 0);

  00022	85 f6		 test	 esi, esi
  00024	74 1a		 je	 SHORT $LN25@Copy
  00026	85 c0		 test	 eax, eax
  00028	74 1d		 je	 SHORT $LN21@Copy
  0002a	85 d2		 test	 edx, edx
  0002c	74 19		 je	 SHORT $LN21@Copy
  0002e	66 90		 npad	 2
$LL8@Copy:

; 55   : 	ASSERT(nCount == 0 ||
; 56   : 		AfxIsValidAddress(pDest, (size_t)nCount * sizeof(TYPE)));
; 57   : 	ASSERT(nCount == 0 ||
; 58   : 		AfxIsValidAddress(pSrc, (size_t)nCount * sizeof(TYPE)));
; 59   : 
; 60   : 	// default is element-copy using assignment
; 61   : 	while (nCount--)
; 62   : 		*pDest++ = *pSrc++;

  00030	8b 0a		 mov	 ecx, DWORD PTR [edx]
  00032	8d 40 04	 lea	 eax, DWORD PTR [eax+4]
  00035	89 48 fc	 mov	 DWORD PTR [eax-4], ecx
  00038	8d 52 04	 lea	 edx, DWORD PTR [edx+4]
  0003b	83 ee 01	 sub	 esi, 1
  0003e	75 f0		 jne	 SHORT $LL8@Copy
$LN25@Copy:
  00040	5e		 pop	 esi
$LN17@Copy:
  00041	5f		 pop	 edi

; 502  : 	}
; 503  : }

  00042	5b		 pop	 ebx
  00043	5d		 pop	 ebp
  00044	c2 04 00	 ret	 4
$LN21@Copy:

; 54   : 	ENSURE(nCount == 0 || pDest != 0 && pSrc != 0);

  00047	e8 00 00 00 00	 call	 ?AfxThrowInvalidArgException@@YGXXZ ; AfxThrowInvalidArgException
$LN26@Copy:
  0004c	cc		 int	 3
?Copy@?$CArray@PAU_ST_HORZLINE@@PAU1@@@QAEXABV1@@Z ENDP	; CArray<_ST_HORZLINE *,_ST_HORZLINE *>::Copy
_TEXT	ENDS
; Function compile flags: /Ogtp
; File C:\Program Files (x86)\Microsoft Visual Studio\2019\Community\VC\Tools\MSVC\14.29.30133\atlmfc\include\afxtempl.h
;	COMDAT ?SetAtGrow@?$CArray@PAU_ST_HORZLINE@@PAU1@@@QAEXHPAU_ST_HORZLINE@@@Z
_TEXT	SEGMENT
_nIndex$ = 8						; size = 4
_newElement$ = 12					; size = 4
?SetAtGrow@?$CArray@PAU_ST_HORZLINE@@PAU1@@@QAEXHPAU_ST_HORZLINE@@@Z PROC ; CArray<_ST_HORZLINE *,_ST_HORZLINE *>::SetAtGrow, COMDAT
; _this$ = ecx

; 534  : {

  00000	55		 push	 ebp
  00001	8b ec		 mov	 ebp, esp
  00003	56		 push	 esi

; 535  : 	ASSERT_VALID(this);
; 536  : 	ASSERT(nIndex >= 0);
; 537  : 
; 538  : 	if(nIndex < 0)

  00004	8b 75 08	 mov	 esi, DWORD PTR _nIndex$[ebp]
  00007	57		 push	 edi
  00008	8b f9		 mov	 edi, ecx
  0000a	85 f6		 test	 esi, esi
  0000c	78 1f		 js	 SHORT $LN7@SetAtGrow

; 540  : 
; 541  : 	if (nIndex >= m_nSize)

  0000e	3b 77 08	 cmp	 esi, DWORD PTR [edi+8]
  00011	7c 0b		 jl	 SHORT $LN3@SetAtGrow

; 542  : 		SetSize(nIndex+1, -1);

  00013	6a ff		 push	 -1
  00015	8d 46 01	 lea	 eax, DWORD PTR [esi+1]
  00018	50		 push	 eax
  00019	e8 00 00 00 00	 call	 ?SetSize@?$CArray@PAU_ST_HORZLINE@@PAU1@@@QAEXHH@Z ; CArray<_ST_HORZLINE *,_ST_HORZLINE *>::SetSize
$LN3@SetAtGrow:

; 543  : 	m_pData[nIndex] = newElement;

  0001e	8b 4f 04	 mov	 ecx, DWORD PTR [edi+4]
  00021	8b 45 0c	 mov	 eax, DWORD PTR _newElement$[ebp]
  00024	5f		 pop	 edi
  00025	89 04 b1	 mov	 DWORD PTR [ecx+esi*4], eax
  00028	5e		 pop	 esi

; 544  : }

  00029	5d		 pop	 ebp
  0002a	c2 08 00	 ret	 8
$LN7@SetAtGrow:

; 539  : 		AfxThrowInvalidArgException();

  0002d	e8 00 00 00 00	 call	 ?AfxThrowInvalidArgException@@YGXXZ ; AfxThrowInvalidArgException
$LN5@SetAtGrow:
  00032	cc		 int	 3
?SetAtGrow@?$CArray@PAU_ST_HORZLINE@@PAU1@@@QAEXHPAU_ST_HORZLINE@@@Z ENDP ; CArray<_ST_HORZLINE *,_ST_HORZLINE *>::SetAtGrow
_TEXT	ENDS
; Function compile flags: /Ogtp
; File C:\Program Files (x86)\Microsoft Visual Studio\2019\Community\VC\Tools\MSVC\14.29.30133\atlmfc\include\afxtempl.h
; File C:\Program Files (x86)\Windows Kits\10\Include\10.0.22000.0\ucrt\corecrt_memcpy_s.h
; File C:\Program Files (x86)\Microsoft Visual Studio\2019\Community\VC\Tools\MSVC\14.29.30133\atlmfc\include\atlchecked.h
; File C:\Program Files (x86)\Microsoft Visual Studio\2019\Community\VC\Tools\MSVC\14.29.30133\atlmfc\include\afxtempl.h
; File C:\Program Files (x86)\Windows Kits\10\Include\10.0.22000.0\ucrt\corecrt_memcpy_s.h
; File C:\Program Files (x86)\Microsoft Visual Studio\2019\Community\VC\Tools\MSVC\14.29.30133\atlmfc\include\atlchecked.h
; File C:\Program Files (x86)\Windows Kits\10\Include\10.0.22000.0\ucrt\corecrt_memcpy_s.h
; File C:\Program Files (x86)\Microsoft Visual Studio\2019\Community\VC\Tools\MSVC\14.29.30133\atlmfc\include\afxtempl.h
;	COMDAT ?SetSize@?$CArray@PAU_ST_HORZLINE@@PAU1@@@QAEXHH@Z
_TEXT	SEGMENT
__N$1$ = -4						; size = 4
__S2$1$ = 8						; size = 4
_nNewSize$ = 8						; size = 4
_pNewData$1$ = 12					; size = 4
_nGrowBy$ = 12						; size = 4
?SetSize@?$CArray@PAU_ST_HORZLINE@@PAU1@@@QAEXHH@Z PROC	; CArray<_ST_HORZLINE *,_ST_HORZLINE *>::SetSize, COMDAT
; _this$ = ecx

; 368  : {

  00000	55		 push	 ebp
  00001	8b ec		 mov	 ebp, esp
  00003	51		 push	 ecx
  00004	53		 push	 ebx
  00005	56		 push	 esi

; 369  : 	ASSERT_VALID(this);
; 370  : 	ASSERT(nNewSize >= 0);
; 371  : 
; 372  : 	if(nNewSize < 0 )

  00006	8b 75 08	 mov	 esi, DWORD PTR _nNewSize$[ebp]
  00009	8b d9		 mov	 ebx, ecx
  0000b	57		 push	 edi
  0000c	85 f6		 test	 esi, esi
  0000e	0f 88 c2 01 00
	00		 js	 $LN70@SetSize

; 373  : 		AfxThrowInvalidArgException();
; 374  : 
; 375  : 	if (nGrowBy >= 0)

  00014	8b 45 0c	 mov	 eax, DWORD PTR _nGrowBy$[ebp]
  00017	85 c0		 test	 eax, eax
  00019	78 03		 js	 SHORT $LN69@SetSize

; 376  : 		m_nGrowBy = nGrowBy;  // set new size

  0001b	89 43 10	 mov	 DWORD PTR [ebx+16], eax
$LN69@SetSize:

; 377  : 
; 378  : 	if (nNewSize == 0)

  0001e	8b 4b 04	 mov	 ecx, DWORD PTR [ebx+4]
  00021	85 f6		 test	 esi, esi
  00023	75 27		 jne	 SHORT $LN19@SetSize

; 379  : 	{
; 380  : 		// shrink to nothing
; 381  : 		if (m_pData != NULL)

  00025	85 c9		 test	 ecx, ecx
  00027	74 0c		 je	 SHORT $LN21@SetSize

; 382  : 		{
; 383  : 			for( int i = 0; i < m_nSize; i++ )
; 384  : 				(m_pData + i)->~TYPE();
; 385  : 			delete[] (BYTE*)m_pData;

  00029	51		 push	 ecx
  0002a	e8 00 00 00 00	 call	 ??_V@YAXPAX@Z		; operator delete[]
  0002f	83 c4 04	 add	 esp, 4

; 386  : 			m_pData = NULL;

  00032	89 73 04	 mov	 DWORD PTR [ebx+4], esi
$LN21@SetSize:

; 472  : 		m_nSize = nNewSize;
; 473  : 		m_nMaxSize = nNewMax;
; 474  : 	}
; 475  : }

  00035	5f		 pop	 edi
  00036	5e		 pop	 esi
  00037	c7 43 0c 00 00
	00 00		 mov	 DWORD PTR [ebx+12], 0
  0003e	c7 43 08 00 00
	00 00		 mov	 DWORD PTR [ebx+8], 0
  00045	5b		 pop	 ebx
  00046	8b e5		 mov	 esp, ebp
  00048	5d		 pop	 ebp
  00049	c2 08 00	 ret	 8
$LN19@SetSize:

; 387  : 		}
; 388  : 		m_nSize = m_nMaxSize = 0;
; 389  : 	}
; 390  : 	else if (m_pData == NULL)

  0004c	85 c9		 test	 ecx, ecx
  0004e	75 36		 jne	 SHORT $LN22@SetSize

; 391  : 	{
; 392  : 		// create buffer big enough to hold number of requested elements or
; 393  : 		// m_nGrowBy elements, whichever is larger.
; 394  : #ifdef SIZE_T_MAX
; 395  : 		ASSERT(nNewSize <= SIZE_T_MAX/sizeof(TYPE));    // no overflow
; 396  : #endif
; 397  : 		size_t nAllocSize = __max(nNewSize, m_nGrowBy);

  00050	8b 7b 10	 mov	 edi, DWORD PTR [ebx+16]
  00053	3b f7		 cmp	 esi, edi
  00055	0f 4f fe	 cmovg	 edi, esi

; 398  : 		m_pData = (TYPE*) new BYTE[(size_t)nAllocSize * sizeof(TYPE)];

  00058	8d 34 bd 00 00
	00 00		 lea	 esi, DWORD PTR [edi*4]
  0005f	56		 push	 esi
  00060	e8 00 00 00 00	 call	 ??_U@YAPAXI@Z		; operator new[]

; 399  : 		memset((void*)m_pData, 0, (size_t)nAllocSize * sizeof(TYPE));

  00065	56		 push	 esi
  00066	6a 00		 push	 0
  00068	50		 push	 eax
  00069	89 43 04	 mov	 DWORD PTR [ebx+4], eax
  0006c	e8 00 00 00 00	 call	 _memset

; 400  : 		for( int i = 0; i < nNewSize; i++ )
; 401  : #pragma push_macro("new")
; 402  : #undef new
; 403  : 			::new( (void*)( m_pData + i ) ) TYPE;
; 404  : #pragma pop_macro("new")
; 405  : 		m_nSize = nNewSize;

  00071	8b 45 08	 mov	 eax, DWORD PTR _nNewSize$[ebp]
  00074	83 c4 10	 add	 esp, 16			; 00000010H

; 472  : 		m_nSize = nNewSize;
; 473  : 		m_nMaxSize = nNewMax;
; 474  : 	}
; 475  : }

  00077	89 7b 0c	 mov	 DWORD PTR [ebx+12], edi
  0007a	89 43 08	 mov	 DWORD PTR [ebx+8], eax
  0007d	5f		 pop	 edi
  0007e	5e		 pop	 esi
  0007f	5b		 pop	 ebx
  00080	8b e5		 mov	 esp, ebp
  00082	5d		 pop	 ebp
  00083	c2 08 00	 ret	 8
$LN22@SetSize:

; 406  : 		m_nMaxSize = nAllocSize;
; 407  : 	}
; 408  : 	else if (nNewSize <= m_nMaxSize)

  00086	8b 7b 0c	 mov	 edi, DWORD PTR [ebx+12]
  00089	3b f7		 cmp	 esi, edi
  0008b	7f 29		 jg	 SHORT $LN24@SetSize

; 409  : 	{
; 410  : 		// it fits
; 411  : 		if (nNewSize > m_nSize)

  0008d	8b 53 08	 mov	 edx, DWORD PTR [ebx+8]
  00090	3b f2		 cmp	 esi, edx
  00092	7e 16		 jle	 SHORT $LN26@SetSize

; 412  : 		{
; 413  : 			// initialize the new elements
; 414  : 			memset((void*)(m_pData + m_nSize), 0, (size_t)(nNewSize-m_nSize) * sizeof(TYPE));

  00094	8b c6		 mov	 eax, esi
  00096	2b c2		 sub	 eax, edx
  00098	c1 e0 02	 shl	 eax, 2
  0009b	50		 push	 eax
  0009c	8d 04 91	 lea	 eax, DWORD PTR [ecx+edx*4]
  0009f	6a 00		 push	 0
  000a1	50		 push	 eax
  000a2	e8 00 00 00 00	 call	 _memset
  000a7	83 c4 0c	 add	 esp, 12			; 0000000cH
$LN26@SetSize:

; 415  : 			for( int i = 0; i < nNewSize-m_nSize; i++ )
; 416  : #pragma push_macro("new")
; 417  : #undef new
; 418  : 				::new( (void*)( m_pData + m_nSize + i ) ) TYPE;
; 419  : #pragma pop_macro("new")
; 420  : 		}
; 421  : 		else if (m_nSize > nNewSize)
; 422  : 		{
; 423  : 			// destroy the old elements
; 424  : 			for( int i = 0; i < m_nSize-nNewSize; i++ )
; 425  : 				(m_pData + nNewSize + i)->~TYPE();
; 426  : 		}
; 427  : 		m_nSize = nNewSize;

  000aa	5f		 pop	 edi
  000ab	89 73 08	 mov	 DWORD PTR [ebx+8], esi

; 472  : 		m_nSize = nNewSize;
; 473  : 		m_nMaxSize = nNewMax;
; 474  : 	}
; 475  : }

  000ae	5e		 pop	 esi
  000af	5b		 pop	 ebx
  000b0	8b e5		 mov	 esp, ebp
  000b2	5d		 pop	 ebp
  000b3	c2 08 00	 ret	 8
$LN24@SetSize:

; 428  : 	}
; 429  : 	else
; 430  : 	{
; 431  : 		// otherwise, grow array
; 432  : 		nGrowBy = m_nGrowBy;

  000b6	8b 43 10	 mov	 eax, DWORD PTR [ebx+16]

; 433  : 		if (nGrowBy == 0)

  000b9	85 c0		 test	 eax, eax
  000bb	75 22		 jne	 SHORT $LN37@SetSize

; 434  : 		{
; 435  : 			// heuristically determine growth when nGrowBy == 0
; 436  : 			//  (this avoids heap fragmentation in many situations)
; 437  : 			nGrowBy = m_nSize / 8;

  000bd	8b 43 08	 mov	 eax, DWORD PTR [ebx+8]
  000c0	99		 cdq
  000c1	83 e2 07	 and	 edx, 7
  000c4	03 c2		 add	 eax, edx
  000c6	c1 f8 03	 sar	 eax, 3

; 438  : 			nGrowBy = (nGrowBy < 4) ? 4 : ((nGrowBy > 1024) ? 1024 : nGrowBy);

  000c9	83 f8 04	 cmp	 eax, 4
  000cc	7d 07		 jge	 SHORT $LN36@SetSize
  000ce	b8 04 00 00 00	 mov	 eax, 4
  000d3	eb 0a		 jmp	 SHORT $LN37@SetSize
$LN36@SetSize:
  000d5	b9 00 04 00 00	 mov	 ecx, 1024		; 00000400H
  000da	3b c1		 cmp	 eax, ecx
  000dc	0f 4f c1	 cmovg	 eax, ecx
$LN37@SetSize:

; 439  : 		}
; 440  : 		INT_PTR nNewMax;
; 441  : 		if (nNewSize < m_nMaxSize + nGrowBy)

  000df	03 f8		 add	 edi, eax
  000e1	3b f7		 cmp	 esi, edi
  000e3	7d 0b		 jge	 SHORT $LN30@SetSize

; 445  : 
; 446  : 		ASSERT(nNewMax >= m_nMaxSize);  // no wrap around
; 447  : 
; 448  : 		if(nNewMax  < m_nMaxSize)

  000e5	3b 7b 0c	 cmp	 edi, DWORD PTR [ebx+12]
  000e8	0f 8c e8 00 00
	00		 jl	 $LN70@SetSize
  000ee	eb 02		 jmp	 SHORT $LN32@SetSize
$LN30@SetSize:

; 442  : 			nNewMax = m_nMaxSize + nGrowBy;  // granularity
; 443  : 		else
; 444  : 			nNewMax = nNewSize;  // no slush

  000f0	8b fe		 mov	 edi, esi
$LN32@SetSize:

; 450  : 
; 451  : #ifdef SIZE_T_MAX
; 452  : 		ASSERT(nNewMax <= SIZE_T_MAX/sizeof(TYPE)); // no overflow
; 453  : #endif
; 454  : 		TYPE* pNewData = (TYPE*) new BYTE[(size_t)nNewMax * sizeof(TYPE)];

  000f2	8d 04 bd 00 00
	00 00		 lea	 eax, DWORD PTR [edi*4]
  000f9	50		 push	 eax
  000fa	e8 00 00 00 00	 call	 ??_U@YAPAXI@Z		; operator new[]

; 455  : 
; 456  : 		// copy new data from old
; 457  : 		::ATL::Checked::memcpy_s(pNewData, (size_t)nNewMax * sizeof(TYPE),

  000ff	8b 53 04	 mov	 edx, DWORD PTR [ebx+4]
  00102	8b c8		 mov	 ecx, eax
  00104	8b 43 08	 mov	 eax, DWORD PTR [ebx+8]
  00107	83 c4 04	 add	 esp, 4
  0010a	c1 e0 02	 shl	 eax, 2
  0010d	89 4d 0c	 mov	 DWORD PTR _pNewData$1$[ebp], ecx
  00110	89 45 fc	 mov	 DWORD PTR __N$1$[ebp], eax
  00113	89 55 08	 mov	 DWORD PTR __S2$1$[ebp], edx
; File C:\Program Files (x86)\Windows Kits\10\Include\10.0.22000.0\ucrt\corecrt_memcpy_s.h

; 46   :         if (_SourceSize == 0)

  00116	85 c0		 test	 eax, eax
  00118	74 76		 je	 SHORT $LN74@SetSize

; 47   :         {
; 48   :             return 0;
; 49   :         }
; 50   : 
; 51   :         _CRT_MEMCPY_S_VALIDATE_RETURN_ERRCODE(_Destination != NULL, EINVAL);

  0011a	85 c9		 test	 ecx, ecx
  0011c	75 56		 jne	 SHORT $LN42@SetSize
$LN73@SetSize:
; File C:\Program Files (x86)\Microsoft Visual Studio\2019\Community\VC\Tools\MSVC\14.29.30133\atlmfc\include\atlchecked.h

; 69   : 	ATLMFC_CRT_ERRORCHECK(::memcpy_s(_S1, _S1max, _S2, _N));

  0011e	ff 15 00 00 00
	00		 call	 DWORD PTR __imp___errno
  00124	c7 00 16 00 00
	00		 mov	 DWORD PTR [eax], 22	; 00000016H
  0012a	ff 15 00 00 00
	00		 call	 DWORD PTR __imp___invalid_parameter_noinfo
$LN46@SetSize:
  00130	b8 16 00 00 00	 mov	 eax, 22			; 00000016H
$LN40@SetSize:
  00135	50		 push	 eax
  00136	e8 00 00 00 00	 call	 ?AfxCrtErrorCheck@@YAHH@Z ; AfxCrtErrorCheck
; File C:\Program Files (x86)\Microsoft Visual Studio\2019\Community\VC\Tools\MSVC\14.29.30133\atlmfc\include\afxtempl.h

; 462  : 		memset((void*)(pNewData + m_nSize), 0, (size_t)(nNewSize-m_nSize) * sizeof(TYPE));

  0013b	8b 4b 08	 mov	 ecx, DWORD PTR [ebx+8]
  0013e	8b c6		 mov	 eax, esi
  00140	2b c1		 sub	 eax, ecx
  00142	c1 e0 02	 shl	 eax, 2
  00145	50		 push	 eax
  00146	8b 45 0c	 mov	 eax, DWORD PTR _pNewData$1$[ebp]
  00149	6a 00		 push	 0
  0014b	8d 04 88	 lea	 eax, DWORD PTR [eax+ecx*4]
  0014e	50		 push	 eax
  0014f	e8 00 00 00 00	 call	 _memset

; 463  : 		for( int i = 0; i < nNewSize-m_nSize; i++ )
; 464  : #pragma push_macro("new")
; 465  : #undef new
; 466  : 			::new( (void*)( pNewData + m_nSize + i ) ) TYPE;
; 467  : #pragma pop_macro("new")
; 468  : 
; 469  : 		// get rid of old stuff (note: no destructors called)
; 470  : 		delete[] (BYTE*)m_pData;

  00154	ff 73 04	 push	 DWORD PTR [ebx+4]
  00157	e8 00 00 00 00	 call	 ??_V@YAXPAX@Z		; operator delete[]

; 471  : 		m_pData = pNewData;

  0015c	8b 45 0c	 mov	 eax, DWORD PTR _pNewData$1$[ebp]
  0015f	83 c4 14	 add	 esp, 20			; 00000014H

; 472  : 		m_nSize = nNewSize;
; 473  : 		m_nMaxSize = nNewMax;
; 474  : 	}
; 475  : }

  00162	89 7b 0c	 mov	 DWORD PTR [ebx+12], edi
  00165	89 73 08	 mov	 DWORD PTR [ebx+8], esi
  00168	89 43 04	 mov	 DWORD PTR [ebx+4], eax
  0016b	5f		 pop	 edi
  0016c	5e		 pop	 esi
  0016d	5b		 pop	 ebx
  0016e	8b e5		 mov	 esp, ebp
  00170	5d		 pop	 ebp
  00171	c2 08 00	 ret	 8
$LN42@SetSize:
; File C:\Program Files (x86)\Windows Kits\10\Include\10.0.22000.0\ucrt\corecrt_memcpy_s.h

; 52   :         if (_Source == NULL || _DestinationSize < _SourceSize)

  00174	85 d2		 test	 edx, edx
  00176	8d 14 bd 00 00
	00 00		 lea	 edx, DWORD PTR [edi*4]
  0017d	74 15		 je	 SHORT $LN44@SetSize
  0017f	3b d0		 cmp	 edx, eax
  00181	72 11		 jb	 SHORT $LN44@SetSize

; 58   : 
; 59   :             // Unreachable, but required to suppress /analyze warnings:
; 60   :             return EINVAL;
; 61   :         }
; 62   :         memcpy(_Destination, _Source, _SourceSize);

  00183	50		 push	 eax
  00184	ff 75 08	 push	 DWORD PTR __S2$1$[ebp]
  00187	51		 push	 ecx
  00188	e8 00 00 00 00	 call	 _memcpy
  0018d	83 c4 0c	 add	 esp, 12			; 0000000cH
$LN74@SetSize:
; File C:\Program Files (x86)\Microsoft Visual Studio\2019\Community\VC\Tools\MSVC\14.29.30133\atlmfc\include\atlchecked.h

; 69   : 	ATLMFC_CRT_ERRORCHECK(::memcpy_s(_S1, _S1max, _S2, _N));

  00190	33 c0		 xor	 eax, eax
  00192	eb a1		 jmp	 SHORT $LN40@SetSize
$LN44@SetSize:
; File C:\Program Files (x86)\Windows Kits\10\Include\10.0.22000.0\ucrt\corecrt_memcpy_s.h

; 54   :             memset(_Destination, 0, _DestinationSize);

  00194	52		 push	 edx
  00195	6a 00		 push	 0
  00197	51		 push	 ecx
  00198	e8 00 00 00 00	 call	 _memset
  0019d	83 c4 0c	 add	 esp, 12			; 0000000cH

; 55   : 
; 56   :             _CRT_MEMCPY_S_VALIDATE_RETURN_ERRCODE(_Source != NULL,                 EINVAL);

  001a0	83 7d 08 00	 cmp	 DWORD PTR __S2$1$[ebp], 0
  001a4	0f 84 74 ff ff
	ff		 je	 $LN73@SetSize

; 57   :             _CRT_MEMCPY_S_VALIDATE_RETURN_ERRCODE(_DestinationSize >= _SourceSize, ERANGE);

  001aa	8d 04 bd 00 00
	00 00		 lea	 eax, DWORD PTR [edi*4]
  001b1	3b 45 fc	 cmp	 eax, DWORD PTR __N$1$[ebp]
  001b4	0f 83 76 ff ff
	ff		 jae	 $LN46@SetSize
  001ba	ff 15 00 00 00
	00		 call	 DWORD PTR __imp___errno
  001c0	c7 00 22 00 00
	00		 mov	 DWORD PTR [eax], 34	; 00000022H
  001c6	ff 15 00 00 00
	00		 call	 DWORD PTR __imp___invalid_parameter_noinfo
  001cc	b8 22 00 00 00	 mov	 eax, 34			; 00000022H
  001d1	e9 5f ff ff ff	 jmp	 $LN40@SetSize
$LN70@SetSize:
; File C:\Program Files (x86)\Microsoft Visual Studio\2019\Community\VC\Tools\MSVC\14.29.30133\atlmfc\include\afxtempl.h

; 449  : 			AfxThrowInvalidArgException();

  001d6	e8 00 00 00 00	 call	 ?AfxThrowInvalidArgException@@YGXXZ ; AfxThrowInvalidArgException
$LN72@SetSize:
  001db	cc		 int	 3
?SetSize@?$CArray@PAU_ST_HORZLINE@@PAU1@@@QAEXHH@Z ENDP	; CArray<_ST_HORZLINE *,_ST_HORZLINE *>::SetSize
_TEXT	ENDS
; Function compile flags: /Ogtp
; File C:\Program Files (x86)\Microsoft Visual Studio\2019\Community\VC\Tools\MSVC\14.29.30133\atlmfc\include\afxtempl.h
;	COMDAT ??0?$CArray@PAU_ST_HORZLINE@@PAU1@@@QAE@XZ
_TEXT	SEGMENT
??0?$CArray@PAU_ST_HORZLINE@@PAU1@@@QAE@XZ PROC		; CArray<_ST_HORZLINE *,_ST_HORZLINE *>::CArray<_ST_HORZLINE *,_ST_HORZLINE *>, COMDAT
; _this$ = ecx

; 348  : {

  00000	c7 01 00 00 00
	00		 mov	 DWORD PTR [ecx], OFFSET ??_7?$CArray@PAU_ST_HORZLINE@@PAU1@@@6B@

; 349  : 	m_pData = NULL;
; 350  : 	m_nSize = m_nMaxSize = m_nGrowBy = 0;
; 351  : }

  00006	8b c1		 mov	 eax, ecx
  00008	c7 41 04 00 00
	00 00		 mov	 DWORD PTR [ecx+4], 0
  0000f	c7 41 10 00 00
	00 00		 mov	 DWORD PTR [ecx+16], 0
  00016	c7 41 0c 00 00
	00 00		 mov	 DWORD PTR [ecx+12], 0
  0001d	c7 41 08 00 00
	00 00		 mov	 DWORD PTR [ecx+8], 0
  00024	c3		 ret	 0
??0?$CArray@PAU_ST_HORZLINE@@PAU1@@@QAE@XZ ENDP		; CArray<_ST_HORZLINE *,_ST_HORZLINE *>::CArray<_ST_HORZLINE *,_ST_HORZLINE *>
_TEXT	ENDS
; Function compile flags: /Ogtp
; File D:\git\src\IBK\IBK_DRFN\ProjSrc\SrcChartEx\ChartOCX\Include_Chart\GraphData.h
;	COMDAT ?GetHorizontalLine@CSubGraphDataBase@@QBEABV?$CArray@PAU_ST_HORZLINE@@PAU1@@@XZ
_TEXT	SEGMENT
?GetHorizontalLine@CSubGraphDataBase@@QBEABV?$CArray@PAU_ST_HORZLINE@@PAU1@@@XZ PROC ; CSubGraphDataBase::GetHorizontalLine, COMDAT
; _this$ = ecx

; 313  : 	const CArray<ST_HORZLINE*, ST_HORZLINE*>& GetHorizontalLine() const { return m_arrHorzLine; }

  00000	8d 41 70	 lea	 eax, DWORD PTR [ecx+112]
  00003	c3		 ret	 0
?GetHorizontalLine@CSubGraphDataBase@@QBEABV?$CArray@PAU_ST_HORZLINE@@PAU1@@@XZ ENDP ; CSubGraphDataBase::GetHorizontalLine
_TEXT	ENDS
; Function compile flags: /Ogtp
; File D:\git\src\IBK\IBK_DRFN\ProjSrc\SrcChartEx\ChartOCX\IndicatorCondition\GraphData.cpp
; File C:\Program Files (x86)\Microsoft Visual Studio\2019\Community\VC\Tools\MSVC\14.29.30133\atlmfc\include\afxtempl.h
; File D:\git\src\IBK\IBK_DRFN\ProjSrc\SrcChartEx\ChartOCX\IndicatorCondition\GraphData.cpp
; File C:\Program Files (x86)\Microsoft Visual Studio\2019\Community\VC\Tools\MSVC\14.29.30133\atlmfc\include\afxtempl.h
; File D:\git\src\IBK\IBK_DRFN\ProjSrc\SrcChartEx\ChartOCX\IndicatorCondition\GraphData.cpp
; File C:\Program Files (x86)\Microsoft Visual Studio\2019\Community\VC\Tools\MSVC\14.29.30133\atlmfc\include\afxtempl.h
; File D:\git\src\IBK\IBK_DRFN\ProjSrc\SrcChartEx\ChartOCX\IndicatorCondition\GraphData.cpp
;	COMDAT ?DeleteAllHorizontalLine@CSubGraphDataBase@@QAEXXZ
_TEXT	SEGMENT
?DeleteAllHorizontalLine@CSubGraphDataBase@@QAEXXZ PROC	; CSubGraphDataBase::DeleteAllHorizontalLine, COMDAT
; _this$ = ecx

; 1430 : {

  00000	56		 push	 esi
  00001	57		 push	 edi
  00002	8b f9		 mov	 edi, ecx

; 1431 : 	for(int i = 0; i < m_arrHorzLine.GetSize(); i++)

  00004	33 f6		 xor	 esi, esi
  00006	8b 47 78	 mov	 eax, DWORD PTR [edi+120]
  00009	85 c0		 test	 eax, eax
  0000b	7e 32		 jle	 SHORT $LN3@DeleteAllH
  0000d	53		 push	 ebx
  0000e	66 90		 npad	 2
$LL4@DeleteAllH:
; File C:\Program Files (x86)\Microsoft Visual Studio\2019\Community\VC\Tools\MSVC\14.29.30133\atlmfc\include\afxtempl.h

; 288  : 	if(nIndex >= 0 && nIndex < m_nSize)

  00010	85 f6		 test	 esi, esi
  00012	78 53		 js	 SHORT $LN9@DeleteAllH
  00014	3b f0		 cmp	 esi, eax
  00016	7d 4f		 jge	 SHORT $LN9@DeleteAllH
; File D:\git\src\IBK\IBK_DRFN\ProjSrc\SrcChartEx\ChartOCX\IndicatorCondition\GraphData.cpp

; 1434 : 		delete pInfo;

  00018	8b 47 74	 mov	 eax, DWORD PTR [edi+116]
  0001b	8b 1c b0	 mov	 ebx, DWORD PTR [eax+esi*4]
  0001e	85 db		 test	 ebx, ebx
  00020	74 14		 je	 SHORT $LN2@DeleteAllH
  00022	8d 4b 04	 lea	 ecx, DWORD PTR [ebx+4]
  00025	ff 15 00 00 00
	00		 call	 DWORD PTR __imp_??1?$CStringT@DV?$StrTraitMFC_DLL@DV?$ChTraitsCRT@D@ATL@@@@@ATL@@QAE@XZ
  0002b	6a 18		 push	 24			; 00000018H
  0002d	53		 push	 ebx
  0002e	e8 00 00 00 00	 call	 ??3@YAXPAXI@Z		; operator delete
  00033	83 c4 08	 add	 esp, 8
$LN2@DeleteAllH:

; 1431 : 	for(int i = 0; i < m_arrHorzLine.GetSize(); i++)

  00036	8b 47 78	 mov	 eax, DWORD PTR [edi+120]
  00039	46		 inc	 esi
  0003a	3b f0		 cmp	 esi, eax
  0003c	7c d2		 jl	 SHORT $LL4@DeleteAllH
  0003e	5b		 pop	 ebx
$LN3@DeleteAllH:
; File C:\Program Files (x86)\Microsoft Visual Studio\2019\Community\VC\Tools\MSVC\14.29.30133\atlmfc\include\afxtempl.h

; 381  : 		if (m_pData != NULL)

  0003f	8b 47 74	 mov	 eax, DWORD PTR [edi+116]
  00042	85 c0		 test	 eax, eax
  00044	74 10		 je	 SHORT $LN40@DeleteAllH

; 382  : 		{
; 383  : 			for( int i = 0; i < m_nSize; i++ )
; 384  : 				(m_pData + i)->~TYPE();
; 385  : 			delete[] (BYTE*)m_pData;

  00046	50		 push	 eax
  00047	e8 00 00 00 00	 call	 ??_V@YAXPAX@Z		; operator delete[]
  0004c	83 c4 04	 add	 esp, 4

; 386  : 			m_pData = NULL;

  0004f	c7 47 74 00 00
	00 00		 mov	 DWORD PTR [edi+116], 0
$LN40@DeleteAllH:

; 387  : 		}
; 388  : 		m_nSize = m_nMaxSize = 0;

  00056	c7 47 7c 00 00
	00 00		 mov	 DWORD PTR [edi+124], 0
  0005d	c7 47 78 00 00
	00 00		 mov	 DWORD PTR [edi+120], 0
  00064	5f		 pop	 edi
  00065	5e		 pop	 esi
; File D:\git\src\IBK\IBK_DRFN\ProjSrc\SrcChartEx\ChartOCX\IndicatorCondition\GraphData.cpp

; 1438 : }

  00066	c3		 ret	 0
$LN9@DeleteAllH:
; File C:\Program Files (x86)\Microsoft Visual Studio\2019\Community\VC\Tools\MSVC\14.29.30133\atlmfc\include\afxtempl.h

; 290  : 	AfxThrowInvalidArgException();

  00067	e8 00 00 00 00	 call	 ?AfxThrowInvalidArgException@@YGXXZ ; AfxThrowInvalidArgException
$LN76@DeleteAllH:
  0006c	cc		 int	 3
?DeleteAllHorizontalLine@CSubGraphDataBase@@QAEXXZ ENDP	; CSubGraphDataBase::DeleteAllHorizontalLine
_TEXT	ENDS
; Function compile flags: /Ogtp
; File D:\git\src\IBK\IBK_DRFN\ProjSrc\SrcChartEx\ChartOCX\IndicatorCondition\GraphData.cpp
; File C:\Program Files (x86)\Microsoft Visual Studio\2019\Community\VC\Tools\MSVC\14.29.30133\atlmfc\include\afxtempl.h
; File D:\git\src\IBK\IBK_DRFN\ProjSrc\SrcChartEx\ChartOCX\IndicatorCondition\GraphData.cpp
; File C:\Program Files (x86)\Microsoft Visual Studio\2019\Community\VC\Tools\MSVC\14.29.30133\atlmfc\include\afxtempl.h
; File C:\Program Files (x86)\Windows Kits\10\Include\10.0.22000.0\ucrt\corecrt_memcpy_s.h
; File C:\Program Files (x86)\Microsoft Visual Studio\2019\Community\VC\Tools\MSVC\14.29.30133\atlmfc\include\atlchecked.h
; File C:\Program Files (x86)\Windows Kits\10\Include\10.0.22000.0\ucrt\corecrt_memcpy_s.h
; File C:\Program Files (x86)\Microsoft Visual Studio\2019\Community\VC\Tools\MSVC\14.29.30133\atlmfc\include\atlchecked.h
; File C:\Program Files (x86)\Microsoft Visual Studio\2019\Community\VC\Tools\MSVC\14.29.30133\atlmfc\include\afxtempl.h
; File D:\git\src\IBK\IBK_DRFN\ProjSrc\SrcChartEx\ChartOCX\IndicatorCondition\GraphData.cpp
; File C:\Program Files (x86)\Microsoft Visual Studio\2019\Community\VC\Tools\MSVC\14.29.30133\atlmfc\include\afxtempl.h
; File D:\git\src\IBK\IBK_DRFN\ProjSrc\SrcChartEx\ChartOCX\IndicatorCondition\GraphData.cpp
;	COMDAT ?DeleteHorizontalLine@CSubGraphDataBase@@QAEXJ@Z
_TEXT	SEGMENT
_pInfo$1$ = 8						; size = 4
_nIndex$ = 8						; size = 4
?DeleteHorizontalLine@CSubGraphDataBase@@QAEXJ@Z PROC	; CSubGraphDataBase::DeleteHorizontalLine, COMDAT
; _this$ = ecx

; 1414 : {

  00000	55		 push	 ebp
  00001	8b ec		 mov	 ebp, esp
  00003	53		 push	 ebx
  00004	8b d9		 mov	 ebx, ecx
  00006	56		 push	 esi

; 1415 : 	for(int i = 0; i < m_arrHorzLine.GetSize(); i++)

  00007	33 f6		 xor	 esi, esi
  00009	8b 53 78	 mov	 edx, DWORD PTR [ebx+120]
  0000c	85 d2		 test	 edx, edx
  0000e	7e 2b		 jle	 SHORT $LN3@DeleteHori
  00010	8b 4d 08	 mov	 ecx, DWORD PTR _nIndex$[ebp]
  00013	57		 push	 edi
$LL4@DeleteHori:
; File C:\Program Files (x86)\Microsoft Visual Studio\2019\Community\VC\Tools\MSVC\14.29.30133\atlmfc\include\afxtempl.h

; 288  : 	if(nIndex >= 0 && nIndex < m_nSize)

  00014	85 f6		 test	 esi, esi
  00016	0f 88 a5 00 00
	00		 js	 $LN10@DeleteHori
  0001c	3b f2		 cmp	 esi, edx
  0001e	0f 8d 9d 00 00
	00		 jge	 $LN10@DeleteHori
; File D:\git\src\IBK\IBK_DRFN\ProjSrc\SrcChartEx\ChartOCX\IndicatorCondition\GraphData.cpp

; 1418 : 		if(pInfo->m_nIndex == (UINT)nIndex)

  00024	8b 43 74	 mov	 eax, DWORD PTR [ebx+116]
  00027	8d 7e 01	 lea	 edi, DWORD PTR [esi+1]
  0002a	8b 04 b0	 mov	 eax, DWORD PTR [eax+esi*4]
  0002d	89 45 08	 mov	 DWORD PTR _pInfo$1$[ebp], eax
  00030	39 08		 cmp	 DWORD PTR [eax], ecx
  00032	74 0d		 je	 SHORT $LN37@DeleteHori

; 1415 : 	for(int i = 0; i < m_arrHorzLine.GetSize(); i++)

  00034	8b f7		 mov	 esi, edi
  00036	3b f2		 cmp	 esi, edx
  00038	7c da		 jl	 SHORT $LL4@DeleteHori
  0003a	5f		 pop	 edi
$LN3@DeleteHori:
  0003b	5e		 pop	 esi

; 1426 : }

  0003c	5b		 pop	 ebx
  0003d	5d		 pop	 ebp
  0003e	c2 04 00	 ret	 4
$LN37@DeleteHori:
  00041	8d 48 04	 lea	 ecx, DWORD PTR [eax+4]
  00044	ff 15 00 00 00
	00		 call	 DWORD PTR __imp_??1?$CStringT@DV?$StrTraitMFC_DLL@DV?$ChTraitsCRT@D@ATL@@@@@ATL@@QAE@XZ
  0004a	6a 18		 push	 24			; 00000018H
  0004c	ff 75 08	 push	 DWORD PTR _pInfo$1$[ebp]
  0004f	e8 00 00 00 00	 call	 ??3@YAXPAXI@Z		; operator delete
; File C:\Program Files (x86)\Microsoft Visual Studio\2019\Community\VC\Tools\MSVC\14.29.30133\atlmfc\include\afxtempl.h

; 597  : 	if(nIndex < 0 || nCount < 0 || (nUpperBound > m_nSize) || (nUpperBound < nIndex) || (nUpperBound < nCount))

  00054	8b 43 78	 mov	 eax, DWORD PTR [ebx+120]
  00057	83 c4 08	 add	 esp, 8
  0005a	3b f8		 cmp	 edi, eax
  0005c	7f 63		 jg	 SHORT $LN10@DeleteHori
  0005e	3b fe		 cmp	 edi, esi
  00060	7c 5f		 jl	 SHORT $LN10@DeleteHori

; 598  : 		AfxThrowInvalidArgException();
; 599  : 
; 600  : 	// just remove a range
; 601  : 	INT_PTR nMoveCount = m_nSize - (nUpperBound);

  00062	8b c8		 mov	 ecx, eax
  00064	2b cf		 sub	 ecx, edi

; 602  : 	for( int i = 0; i < nCount; i++ )
; 603  : 		(m_pData + nIndex + i)->~TYPE();
; 604  : 	if (nMoveCount)

  00066	74 4e		 je	 SHORT $LN25@DeleteHori

; 605  : 	{
; 606  : 		::ATL::Checked::memmove_s(m_pData + nIndex, (size_t)nMoveCount * sizeof(TYPE),

  00068	8b 43 74	 mov	 eax, DWORD PTR [ebx+116]
  0006b	8d 14 8d 00 00
	00 00		 lea	 edx, DWORD PTR [ecx*4]
  00072	8d 0c b8	 lea	 ecx, DWORD PTR [eax+edi*4]
  00075	8d 04 b0	 lea	 eax, DWORD PTR [eax+esi*4]
; File C:\Program Files (x86)\Windows Kits\10\Include\10.0.22000.0\ucrt\corecrt_memcpy_s.h

; 74   :         if (_SourceSize == 0)

  00078	85 d2		 test	 edx, edx
  0007a	74 2c		 je	 SHORT $LN46@DeleteHori

; 75   :         {
; 76   :             return 0;
; 77   :         }
; 78   : 
; 79   :         _CRT_MEMCPY_S_VALIDATE_RETURN_ERRCODE(_Destination != NULL,            EINVAL);

  0007c	85 c0		 test	 eax, eax
  0007e	75 19		 jne	 SHORT $LN31@DeleteHori
$LN47@DeleteHori:
; File C:\Program Files (x86)\Microsoft Visual Studio\2019\Community\VC\Tools\MSVC\14.29.30133\atlmfc\include\atlchecked.h

; 87   : 	ATLMFC_CRT_ERRORCHECK(::memmove_s(_S1, _S1max, _S2, _N));

  00080	ff 15 00 00 00
	00		 call	 DWORD PTR __imp___errno
  00086	c7 00 16 00 00
	00		 mov	 DWORD PTR [eax], 22	; 00000016H
  0008c	ff 15 00 00 00
	00		 call	 DWORD PTR __imp___invalid_parameter_noinfo
  00092	b8 16 00 00 00	 mov	 eax, 22			; 00000016H
  00097	eb 11		 jmp	 SHORT $LN29@DeleteHori
$LN31@DeleteHori:
; File C:\Program Files (x86)\Windows Kits\10\Include\10.0.22000.0\ucrt\corecrt_memcpy_s.h

; 80   :         _CRT_MEMCPY_S_VALIDATE_RETURN_ERRCODE(_Source != NULL,                 EINVAL);

  00099	85 c9		 test	 ecx, ecx
  0009b	74 e3		 je	 SHORT $LN47@DeleteHori

; 81   :         _CRT_MEMCPY_S_VALIDATE_RETURN_ERRCODE(_DestinationSize >= _SourceSize, ERANGE);
; 82   : 
; 83   :         memmove(_Destination, _Source, _SourceSize);

  0009d	52		 push	 edx
  0009e	51		 push	 ecx
  0009f	50		 push	 eax
  000a0	e8 00 00 00 00	 call	 _memmove
  000a5	83 c4 0c	 add	 esp, 12			; 0000000cH
$LN46@DeleteHori:
; File C:\Program Files (x86)\Microsoft Visual Studio\2019\Community\VC\Tools\MSVC\14.29.30133\atlmfc\include\atlchecked.h

; 87   : 	ATLMFC_CRT_ERRORCHECK(::memmove_s(_S1, _S1max, _S2, _N));

  000a8	33 c0		 xor	 eax, eax
$LN29@DeleteHori:
  000aa	50		 push	 eax
  000ab	e8 00 00 00 00	 call	 ?AfxCrtErrorCheck@@YAHH@Z ; AfxCrtErrorCheck
  000b0	8b 43 78	 mov	 eax, DWORD PTR [ebx+120]
  000b3	83 c4 04	 add	 esp, 4
$LN25@DeleteHori:
  000b6	5f		 pop	 edi
; File C:\Program Files (x86)\Microsoft Visual Studio\2019\Community\VC\Tools\MSVC\14.29.30133\atlmfc\include\afxtempl.h

; 609  : 	m_nSize -= nCount;

  000b7	48		 dec	 eax
  000b8	5e		 pop	 esi
  000b9	89 43 78	 mov	 DWORD PTR [ebx+120], eax
; File D:\git\src\IBK\IBK_DRFN\ProjSrc\SrcChartEx\ChartOCX\IndicatorCondition\GraphData.cpp

; 1426 : }

  000bc	5b		 pop	 ebx
  000bd	5d		 pop	 ebp
  000be	c2 04 00	 ret	 4
$LN10@DeleteHori:
; File C:\Program Files (x86)\Microsoft Visual Studio\2019\Community\VC\Tools\MSVC\14.29.30133\atlmfc\include\afxtempl.h

; 290  : 	AfxThrowInvalidArgException();

  000c1	e8 00 00 00 00	 call	 ?AfxThrowInvalidArgException@@YGXXZ ; AfxThrowInvalidArgException
$LN45@DeleteHori:
  000c6	cc		 int	 3
?DeleteHorizontalLine@CSubGraphDataBase@@QAEXJ@Z ENDP	; CSubGraphDataBase::DeleteHorizontalLine
_TEXT	ENDS
; Function compile flags: /Ogtp
; File D:\git\src\IBK\IBK_DRFN\ProjSrc\SrcChartEx\ChartOCX\IndicatorCondition\GraphData.cpp
; File C:\Program Files (x86)\Microsoft Visual Studio\2019\Community\VC\Tools\MSVC\14.29.30133\atlmfc\include\afxtempl.h
; File D:\git\src\IBK\IBK_DRFN\ProjSrc\SrcChartEx\ChartOCX\IndicatorCondition\GraphData.cpp
; File C:\Program Files (x86)\Microsoft Visual Studio\2019\Community\VC\Tools\MSVC\14.29.30133\atlmfc\include\afxtempl.h
; File D:\git\src\IBK\IBK_DRFN\ProjSrc\SrcChartEx\ChartOCX\IndicatorCondition\GraphData.cpp
;	COMDAT ?UpdateHorizontalLine@CSubGraphDataBase@@QAEXJPBDKFN@Z
_TEXT	SEGMENT
_nIndex$ = 8						; size = 4
_lpszTitle$ = 12					; size = 4
_clrLine$ = 16						; size = 4
_nLine$ = 20						; size = 2
_dPrice$ = 24						; size = 8
?UpdateHorizontalLine@CSubGraphDataBase@@QAEXJPBDKFN@Z PROC ; CSubGraphDataBase::UpdateHorizontalLine, COMDAT
; _this$ = ecx

; 1396 : {

  00000	55		 push	 ebp
  00001	8b ec		 mov	 ebp, esp
  00003	56		 push	 esi

; 1397 : 	for(int i = 0; i < m_arrHorzLine.GetSize(); i++)

  00004	8b 71 78	 mov	 esi, DWORD PTR [ecx+120]
  00007	33 d2		 xor	 edx, edx
  00009	85 f6		 test	 esi, esi
  0000b	7e 1e		 jle	 SHORT $LN3@UpdateHori
  0000d	53		 push	 ebx
  0000e	8b 5d 08	 mov	 ebx, DWORD PTR _nIndex$[ebp]
  00011	57		 push	 edi
$LL4@UpdateHori:
; File C:\Program Files (x86)\Microsoft Visual Studio\2019\Community\VC\Tools\MSVC\14.29.30133\atlmfc\include\afxtempl.h

; 288  : 	if(nIndex >= 0 && nIndex < m_nSize)

  00012	85 d2		 test	 edx, edx
  00014	78 45		 js	 SHORT $LN8@UpdateHori
  00016	3b d6		 cmp	 edx, esi
  00018	7d 41		 jge	 SHORT $LN8@UpdateHori
; File D:\git\src\IBK\IBK_DRFN\ProjSrc\SrcChartEx\ChartOCX\IndicatorCondition\GraphData.cpp

; 1399 : 		ST_HORZLINE* pInfo = m_arrHorzLine.GetAt(i);

  0001a	8b 41 74	 mov	 eax, DWORD PTR [ecx+116]
  0001d	8b 3c 90	 mov	 edi, DWORD PTR [eax+edx*4]

; 1400 : 		if(pInfo->m_nIndex == (UINT)nIndex)

  00020	39 1f		 cmp	 DWORD PTR [edi], ebx
  00022	74 0c		 je	 SHORT $LN12@UpdateHori

; 1397 : 	for(int i = 0; i < m_arrHorzLine.GetSize(); i++)

  00024	42		 inc	 edx
  00025	3b d6		 cmp	 edx, esi
  00027	7c e9		 jl	 SHORT $LL4@UpdateHori
  00029	5f		 pop	 edi
  0002a	5b		 pop	 ebx
$LN3@UpdateHori:
  0002b	5e		 pop	 esi

; 1410 : }

  0002c	5d		 pop	 ebp
  0002d	c2 18 00	 ret	 24			; 00000018H
$LN12@UpdateHori:

; 1401 : 		{
; 1402 : 			pInfo->m_strTitle = lpszTitle;

  00030	ff 75 0c	 push	 DWORD PTR _lpszTitle$[ebp]
  00033	8d 4f 04	 lea	 ecx, DWORD PTR [edi+4]
  00036	ff 15 00 00 00
	00		 call	 DWORD PTR __imp_??4?$CStringT@DV?$StrTraitMFC_DLL@DV?$ChTraitsCRT@D@ATL@@@@@ATL@@QAEAAV01@PBD@Z

; 1403 : 			pInfo->m_clrLine = clrLine;

  0003c	8b 45 10	 mov	 eax, DWORD PTR _clrLine$[ebp]

; 1404 : 			pInfo->m_nLine = nLine;
; 1405 : 			pInfo->m_dPrice = dPrice;

  0003f	f2 0f 10 45 18	 movsd	 xmm0, QWORD PTR _dPrice$[ebp]
  00044	89 47 08	 mov	 DWORD PTR [edi+8], eax
  00047	66 8b 45 14	 mov	 ax, WORD PTR _nLine$[ebp]
  0004b	66 89 47 0c	 mov	 WORD PTR [edi+12], ax
  0004f	f2 0f 11 47 10	 movsd	 QWORD PTR [edi+16], xmm0
  00054	5f		 pop	 edi
  00055	5b		 pop	 ebx
  00056	5e		 pop	 esi

; 1410 : }

  00057	5d		 pop	 ebp
  00058	c2 18 00	 ret	 24			; 00000018H
$LN8@UpdateHori:
; File C:\Program Files (x86)\Microsoft Visual Studio\2019\Community\VC\Tools\MSVC\14.29.30133\atlmfc\include\afxtempl.h

; 290  : 	AfxThrowInvalidArgException();

  0005b	e8 00 00 00 00	 call	 ?AfxThrowInvalidArgException@@YGXXZ ; AfxThrowInvalidArgException
$LN18@UpdateHori:
  00060	cc		 int	 3
?UpdateHorizontalLine@CSubGraphDataBase@@QAEXJPBDKFN@Z ENDP ; CSubGraphDataBase::UpdateHorizontalLine
_TEXT	ENDS
; Function compile flags: /Ogtp
; File D:\git\src\IBK\IBK_DRFN\ProjSrc\SrcChartEx\ChartOCX\IndicatorCondition\GraphData.cpp
; File C:\Program Files (x86)\Microsoft Visual Studio\2019\Community\VC\Tools\MSVC\14.29.30133\atlmfc\include\afxtempl.h
; File D:\git\src\IBK\IBK_DRFN\ProjSrc\SrcChartEx\ChartOCX\IndicatorCondition\GraphData.cpp
; File C:\Program Files (x86)\Microsoft Visual Studio\2019\Community\VC\Tools\MSVC\14.29.30133\atlmfc\include\afxtempl.h
; File D:\git\src\IBK\IBK_DRFN\ProjSrc\SrcChartEx\ChartOCX\IndicatorCondition\GraphData.cpp
; File C:\Program Files (x86)\Microsoft Visual Studio\2019\Community\VC\Tools\MSVC\14.29.30133\atlmfc\include\afxtempl.h
; File D:\git\src\IBK\IBK_DRFN\ProjSrc\SrcChartEx\ChartOCX\IndicatorCondition\GraphData.cpp
; File C:\Program Files (x86)\Microsoft Visual Studio\2019\Community\VC\Tools\MSVC\14.29.30133\atlmfc\include\afxtempl.h
; File D:\git\src\IBK\IBK_DRFN\ProjSrc\SrcChartEx\ChartOCX\IndicatorCondition\GraphData.cpp
;	COMDAT ?AddHorizontalLine@CSubGraphDataBase@@QAEJPBDKFN@Z
_TEXT	SEGMENT
_lpszTitle$ = 8						; size = 4
_clrLine$ = 12						; size = 4
_nLine$ = 16						; size = 2
_dPrice$ = 20						; size = 8
?AddHorizontalLine@CSubGraphDataBase@@QAEJPBDKFN@Z PROC	; CSubGraphDataBase::AddHorizontalLine, COMDAT
; _this$ = ecx

; 1376 : {

  00000	55		 push	 ebp
  00001	8b ec		 mov	 ebp, esp
  00003	53		 push	 ebx
  00004	56		 push	 esi
  00005	57		 push	 edi

; 1377 : 	ST_HORZLINE* pInfo = new ST_HORZLINE;

  00006	6a 18		 push	 24			; 00000018H
  00008	8b f9		 mov	 edi, ecx
  0000a	e8 00 00 00 00	 call	 ??2@YAPAXI@Z		; operator new
  0000f	8b f0		 mov	 esi, eax
  00011	83 c4 04	 add	 esp, 4
  00014	85 f6		 test	 esi, esi
  00016	74 0b		 je	 SHORT $LN5@AddHorizon
  00018	8d 4e 04	 lea	 ecx, DWORD PTR [esi+4]
  0001b	ff 15 00 00 00
	00		 call	 DWORD PTR __imp_??0?$CStringT@DV?$StrTraitMFC_DLL@DV?$ChTraitsCRT@D@ATL@@@@@ATL@@QAE@XZ
  00021	eb 02		 jmp	 SHORT $LN6@AddHorizon
$LN5@AddHorizon:
  00023	33 f6		 xor	 esi, esi
$LN6@AddHorizon:

; 1378 : 	pInfo->m_strTitle = lpszTitle;

  00025	ff 75 08	 push	 DWORD PTR _lpszTitle$[ebp]
  00028	8d 4e 04	 lea	 ecx, DWORD PTR [esi+4]
  0002b	ff 15 00 00 00
	00		 call	 DWORD PTR __imp_??4?$CStringT@DV?$StrTraitMFC_DLL@DV?$ChTraitsCRT@D@ATL@@@@@ATL@@QAEAAV01@PBD@Z

; 1379 : 	pInfo->m_clrLine = clrLine;

  00031	8b 45 0c	 mov	 eax, DWORD PTR _clrLine$[ebp]

; 1380 : 	pInfo->m_nLine = nLine;
; 1381 : 	pInfo->m_dPrice = dPrice;

  00034	f2 0f 10 45 14	 movsd	 xmm0, QWORD PTR _dPrice$[ebp]
  00039	89 46 08	 mov	 DWORD PTR [esi+8], eax
  0003c	66 8b 45 10	 mov	 ax, WORD PTR _nLine$[ebp]
  00040	66 89 46 0c	 mov	 WORD PTR [esi+12], ax
  00044	f2 0f 11 46 10	 movsd	 QWORD PTR [esi+16], xmm0

; 1382 : 
; 1383 : 	int nSize = m_arrHorzLine.GetSize();

  00049	8b 47 78	 mov	 eax, DWORD PTR [edi+120]

; 1384 : 	if(nSize > 0)

  0004c	85 c0		 test	 eax, eax
  0004e	7e 16		 jle	 SHORT $LN2@AddHorizon

; 1385 : 		pInfo->m_nIndex = m_arrHorzLine.GetAt(nSize - 1)->m_nIndex + 1;

  00050	8d 48 ff	 lea	 ecx, DWORD PTR [eax-1]
; File C:\Program Files (x86)\Microsoft Visual Studio\2019\Community\VC\Tools\MSVC\14.29.30133\atlmfc\include\afxtempl.h

; 288  : 	if(nIndex >= 0 && nIndex < m_nSize)

  00053	85 c9		 test	 ecx, ecx
  00055	78 3a		 js	 SHORT $LN21@AddHorizon
  00057	3b c8		 cmp	 ecx, eax
  00059	7d 36		 jge	 SHORT $LN21@AddHorizon
; File D:\git\src\IBK\IBK_DRFN\ProjSrc\SrcChartEx\ChartOCX\IndicatorCondition\GraphData.cpp

; 1385 : 		pInfo->m_nIndex = m_arrHorzLine.GetAt(nSize - 1)->m_nIndex + 1;

  0005b	8b 47 74	 mov	 eax, DWORD PTR [edi+116]
  0005e	8b 04 88	 mov	 eax, DWORD PTR [eax+ecx*4]
  00061	8b 00		 mov	 eax, DWORD PTR [eax]
  00063	40		 inc	 eax
  00064	eb 05		 jmp	 SHORT $LN3@AddHorizon
$LN2@AddHorizon:

; 1386 : 	else
; 1387 : 		pInfo->m_nIndex = 1;

  00066	b8 01 00 00 00	 mov	 eax, 1
$LN3@AddHorizon:

; 1388 : 
; 1389 : 	m_arrHorzLine.Add(pInfo);

  0006b	89 06		 mov	 DWORD PTR [esi], eax
; File C:\Program Files (x86)\Microsoft Visual Studio\2019\Community\VC\Tools\MSVC\14.29.30133\atlmfc\include\afxtempl.h

; 333  : 	{ INT_PTR nIndex = m_nSize;

  0006d	8b 5f 78	 mov	 ebx, DWORD PTR [edi+120]

; 538  : 	if(nIndex < 0)

  00070	85 db		 test	 ebx, ebx
  00072	78 1d		 js	 SHORT $LN21@AddHorizon

; 540  : 
; 541  : 	if (nIndex >= m_nSize)
; 542  : 		SetSize(nIndex+1, -1);

  00074	6a ff		 push	 -1
  00076	8d 4b 01	 lea	 ecx, DWORD PTR [ebx+1]
  00079	51		 push	 ecx
  0007a	8d 4f 70	 lea	 ecx, DWORD PTR [edi+112]
  0007d	e8 00 00 00 00	 call	 ?SetSize@?$CArray@PAU_ST_HORZLINE@@PAU1@@@QAEXHH@Z ; CArray<_ST_HORZLINE *,_ST_HORZLINE *>::SetSize

; 543  : 	m_pData[nIndex] = newElement;

  00082	8b 4f 74	 mov	 ecx, DWORD PTR [edi+116]
; File D:\git\src\IBK\IBK_DRFN\ProjSrc\SrcChartEx\ChartOCX\IndicatorCondition\GraphData.cpp

; 1391 : 	return pInfo->m_nIndex;

  00085	5f		 pop	 edi
; File C:\Program Files (x86)\Microsoft Visual Studio\2019\Community\VC\Tools\MSVC\14.29.30133\atlmfc\include\afxtempl.h

; 543  : 	m_pData[nIndex] = newElement;

  00086	89 34 99	 mov	 DWORD PTR [ecx+ebx*4], esi
; File D:\git\src\IBK\IBK_DRFN\ProjSrc\SrcChartEx\ChartOCX\IndicatorCondition\GraphData.cpp

; 1391 : 	return pInfo->m_nIndex;

  00089	8b 06		 mov	 eax, DWORD PTR [esi]
  0008b	5e		 pop	 esi
  0008c	5b		 pop	 ebx

; 1392 : }

  0008d	5d		 pop	 ebp
  0008e	c2 14 00	 ret	 20			; 00000014H
$LN21@AddHorizon:
; File C:\Program Files (x86)\Microsoft Visual Studio\2019\Community\VC\Tools\MSVC\14.29.30133\atlmfc\include\afxtempl.h

; 539  : 		AfxThrowInvalidArgException();

  00091	e8 00 00 00 00	 call	 ?AfxThrowInvalidArgException@@YGXXZ ; AfxThrowInvalidArgException
$LN22@AddHorizon:
  00096	cc		 int	 3
?AddHorizontalLine@CSubGraphDataBase@@QAEJPBDKFN@Z ENDP	; CSubGraphDataBase::AddHorizontalLine
_TEXT	ENDS
; Function compile flags: /Ogtp
; File D:\git\src\IBK\IBK_DRFN\ProjSrc\SrcChartEx\ChartOCX\IndicatorCondition\GraphData.cpp
;	COMDAT ?GetSubGraphIndex@CSubGraphDataBase@@QBEHXZ
_TEXT	SEGMENT
?GetSubGraphIndex@CSubGraphDataBase@@QBEHXZ PROC	; CSubGraphDataBase::GetSubGraphIndex, COMDAT
; _this$ = ecx

; 1250 : 	return m_nSubGraphIndex;

  00000	8b 41 6c	 mov	 eax, DWORD PTR [ecx+108]

; 1251 : }

  00003	c3		 ret	 0
?GetSubGraphIndex@CSubGraphDataBase@@QBEHXZ ENDP	; CSubGraphDataBase::GetSubGraphIndex
_TEXT	ENDS
; Function compile flags: /Ogtp
; File D:\git\src\IBK\IBK_DRFN\ProjSrc\SrcChartEx\ChartOCX\IndicatorCondition\GraphData.cpp
;	COMDAT ?GetItemName@CSubGraphDataBase@@QBE?AV?$CStringT@DV?$StrTraitMFC_DLL@DV?$ChTraitsCRT@D@ATL@@@@@ATL@@XZ
_TEXT	SEGMENT
___$ReturnUdt$ = 8					; size = 4
?GetItemName@CSubGraphDataBase@@QBE?AV?$CStringT@DV?$StrTraitMFC_DLL@DV?$ChTraitsCRT@D@ATL@@@@@ATL@@XZ PROC ; CSubGraphDataBase::GetItemName, COMDAT
; _this$ = ecx

; 1243 : {

  00000	55		 push	 ebp
  00001	8b ec		 mov	 ebp, esp

; 1244 : 	return m_strItemName;

  00003	8d 41 68	 lea	 eax, DWORD PTR [ecx+104]
  00006	8b 4d 08	 mov	 ecx, DWORD PTR ___$ReturnUdt$[ebp]
  00009	50		 push	 eax
  0000a	ff 15 00 00 00
	00		 call	 DWORD PTR __imp_??0?$CStringT@DV?$StrTraitMFC_DLL@DV?$ChTraitsCRT@D@ATL@@@@@ATL@@QAE@ABV01@@Z
  00010	8b 45 08	 mov	 eax, DWORD PTR ___$ReturnUdt$[ebp]

; 1245 : }

  00013	5d		 pop	 ebp
  00014	c2 04 00	 ret	 4
?GetItemName@CSubGraphDataBase@@QBE?AV?$CStringT@DV?$StrTraitMFC_DLL@DV?$ChTraitsCRT@D@ATL@@@@@ATL@@XZ ENDP ; CSubGraphDataBase::GetItemName
_TEXT	ENDS
; Function compile flags: /Ogtp
; File D:\git\src\IBK\IBK_DRFN\ProjSrc\SrcChartEx\ChartOCX\IndicatorCondition\GraphData.cpp
; File C:\Program Files (x86)\Microsoft Visual Studio\2019\Community\VC\Tools\MSVC\14.29.30133\atlmfc\include\atlsimpstr.h
; File D:\git\src\IBK\IBK_DRFN\ProjSrc\SrcChartEx\ChartOCX\IndicatorCondition\GraphData.cpp
; File C:\Program Files (x86)\Microsoft Visual Studio\2019\Community\VC\Tools\MSVC\14.29.30133\atlmfc\include\atlsimpstr.h
; File D:\git\src\IBK\IBK_DRFN\ProjSrc\SrcChartEx\ChartOCX\IndicatorCondition\GraphData.cpp
; File C:\Program Files (x86)\Microsoft Visual Studio\2019\Community\VC\Tools\MSVC\14.29.30133\atlmfc\include\atlsimpstr.h
; File D:\git\src\IBK\IBK_DRFN\ProjSrc\SrcChartEx\ChartOCX\IndicatorCondition\GraphData.cpp
; File C:\Program Files (x86)\Microsoft Visual Studio\2019\Community\VC\Tools\MSVC\14.29.30133\atlmfc\include\atlsimpstr.h
; File D:\git\src\IBK\IBK_DRFN\ProjSrc\SrcChartEx\ChartOCX\IndicatorCondition\GraphData.cpp
; File C:\Program Files (x86)\Microsoft Visual Studio\2019\Community\VC\Tools\MSVC\14.29.30133\atlmfc\include\atlsimpstr.h
; File D:\git\src\IBK\IBK_DRFN\ProjSrc\SrcChartEx\ChartOCX\IndicatorCondition\GraphData.cpp
; File C:\Program Files (x86)\Microsoft Visual Studio\2019\Community\VC\Tools\MSVC\14.29.30133\atlmfc\include\atlsimpstr.h
; File D:\git\src\IBK\IBK_DRFN\ProjSrc\SrcChartEx\ChartOCX\IndicatorCondition\GraphData.cpp
; File C:\Program Files (x86)\Microsoft Visual Studio\2019\Community\VC\Tools\MSVC\14.29.30133\atlmfc\include\atlsimpstr.h
; File D:\git\src\IBK\IBK_DRFN\ProjSrc\SrcChartEx\ChartOCX\IndicatorCondition\GraphData.cpp
;	COMDAT ?GetStringData@CSubGraphDataBase@@QBEXAAV?$CStringT@DV?$StrTraitMFC_DLL@DV?$ChTraitsCRT@D@ATL@@@@@ATL@@@Z
_TEXT	SEGMENT
_nTypeLen$1$ = -148					; size = 4
_nBaseLineStyleLen$1$ = -144				; size = 4
_nPaintStyleLen$1$ = -140				; size = 4
_this$GSCopy$1$ = -136					; size = 4
_nDrawStyleLen$1$ = -132				; size = 4
tv612 = -128						; size = 4
_p_strSubGraphData$GSCopy$1$ = -128			; size = 4
_strGraphColor$ = -124					; size = 4
_strPenThickness$ = -120				; size = 4
_szBaseLineStyle$ = -116				; size = 20
_szPaintStyle$ = -96					; size = 20
_szDrawStyle$ = -76					; size = 20
_szGraphStyle$ = -56					; size = 20
_szType$ = -36						; size = 20
__$ArrayPad$ = -16					; size = 4
__$EHRec$ = -12						; size = 12
_p_strSubGraphData$ = 8					; size = 4
?GetStringData@CSubGraphDataBase@@QBEXAAV?$CStringT@DV?$StrTraitMFC_DLL@DV?$ChTraitsCRT@D@ATL@@@@@ATL@@@Z PROC ; CSubGraphDataBase::GetStringData, COMDAT
; _this$ = ecx

; 1279 : {

  00000	55		 push	 ebp
  00001	8b ec		 mov	 ebp, esp
  00003	6a ff		 push	 -1
  00005	68 00 00 00 00	 push	 __ehhandler$?GetStringData@CSubGraphDataBase@@QBEXAAV?$CStringT@DV?$StrTraitMFC_DLL@DV?$ChTraitsCRT@D@ATL@@@@@ATL@@@Z
  0000a	64 a1 00 00 00
	00		 mov	 eax, DWORD PTR fs:0
  00010	50		 push	 eax
  00011	81 ec 88 00 00
	00		 sub	 esp, 136		; 00000088H
  00017	a1 00 00 00 00	 mov	 eax, DWORD PTR ___security_cookie
  0001c	33 c5		 xor	 eax, ebp
  0001e	89 45 f0	 mov	 DWORD PTR __$ArrayPad$[ebp], eax
  00021	53		 push	 ebx
  00022	56		 push	 esi
  00023	57		 push	 edi
  00024	50		 push	 eax
  00025	8d 45 f4	 lea	 eax, DWORD PTR __$EHRec$[ebp]
  00028	64 a3 00 00 00
	00		 mov	 DWORD PTR fs:0, eax
  0002e	8b f9		 mov	 edi, ecx
  00030	89 bd 78 ff ff
	ff		 mov	 DWORD PTR _this$GSCopy$1$[ebp], edi
  00036	8b 45 08	 mov	 eax, DWORD PTR _p_strSubGraphData$[ebp]

; 1280 : 	// Singbar Graph    - ojtaso (20071121)
; 1281 : 	//  ,   - ojtaso (20071213)
; 1282 : 	char szType[ 20], szGraphStyle[ 20], szDrawStyle[ 20], szPaintStyle[20], szBaseLineStyle[20];
; 1283 : 
; 1284 : 	itoa( m_TYPEType,					szType,			10);

  00039	8b 35 00 00 00
	00		 mov	 esi, DWORD PTR __imp__itoa
  0003f	89 45 80	 mov	 DWORD PTR _p_strSubGraphData$GSCopy$1$[ebp], eax
  00042	8d 45 dc	 lea	 eax, DWORD PTR _szType$[ebp]
  00045	6a 0a		 push	 10			; 0000000aH
  00047	50		 push	 eax
  00048	ff 77 08	 push	 DWORD PTR [edi+8]
  0004b	ff d6		 call	 esi

; 1285 : 	itoa( m_nStyle.GetGraphStyle(),		szGraphStyle,	10);

  0004d	6a 0a		 push	 10			; 0000000aH
  0004f	8d 45 c8	 lea	 eax, DWORD PTR _szGraphStyle$[ebp]
  00052	50		 push	 eax
  00053	ff 77 0c	 push	 DWORD PTR [edi+12]
  00056	ff d6		 call	 esi

; 1286 : 	itoa( m_nDrawStyle.GetDrawStyle(),	szDrawStyle,	10);

  00058	6a 0a		 push	 10			; 0000000aH
  0005a	8d 45 b4	 lea	 eax, DWORD PTR _szDrawStyle$[ebp]
  0005d	50		 push	 eax
  0005e	ff 77 10	 push	 DWORD PTR [edi+16]
  00061	ff d6		 call	 esi

; 1287 : 	// Singbar Graph    - ojtaso (20071121)
; 1288 : 	itoa( m_nPaintStyle.GetPaintStyle(),	szPaintStyle,	10);

  00063	6a 0a		 push	 10			; 0000000aH
  00065	8d 45 a0	 lea	 eax, DWORD PTR _szPaintStyle$[ebp]
  00068	50		 push	 eax
  00069	ff 77 14	 push	 DWORD PTR [edi+20]
  0006c	ff d6		 call	 esi

; 1289 : 	//  ,   - ojtaso (20071213)
; 1290 : 	itoa( m_nBaseLineStyle.GetBaseLineStyle(),	szBaseLineStyle,	10);

  0006e	6a 0a		 push	 10			; 0000000aH
  00070	8d 45 8c	 lea	 eax, DWORD PTR _szBaseLineStyle$[ebp]
  00073	50		 push	 eax
  00074	ff 77 18	 push	 DWORD PTR [edi+24]
  00077	ff d6		 call	 esi

; 1291 : 
; 1292 : 	int nTypeLen		= strlen( szType);

  00079	8d 4d dc	 lea	 ecx, DWORD PTR _szType$[ebp]
  0007c	83 c4 3c	 add	 esp, 60			; 0000003cH
  0007f	8d 51 01	 lea	 edx, DWORD PTR [ecx+1]
$LL81@GetStringD:
  00082	8a 01		 mov	 al, BYTE PTR [ecx]
  00084	41		 inc	 ecx
  00085	84 c0		 test	 al, al
  00087	75 f9		 jne	 SHORT $LL81@GetStringD
  00089	2b ca		 sub	 ecx, edx

; 1293 : 	int nGraphStyleLen	= strlen( szGraphStyle);

  0008b	8d 5d c8	 lea	 ebx, DWORD PTR _szGraphStyle$[ebp]
  0008e	89 8d 6c ff ff
	ff		 mov	 DWORD PTR _nTypeLen$1$[ebp], ecx
  00094	8d 4b 01	 lea	 ecx, DWORD PTR [ebx+1]
$LL82@GetStringD:
  00097	8a 03		 mov	 al, BYTE PTR [ebx]
  00099	43		 inc	 ebx
  0009a	84 c0		 test	 al, al
  0009c	75 f9		 jne	 SHORT $LL82@GetStringD
  0009e	2b d9		 sub	 ebx, ecx

; 1294 : 	int nDrawStyleLen	= strlen( szDrawStyle);

  000a0	8d 4d b4	 lea	 ecx, DWORD PTR _szDrawStyle$[ebp]
  000a3	8d 51 01	 lea	 edx, DWORD PTR [ecx+1]
$LL83@GetStringD:
  000a6	8a 01		 mov	 al, BYTE PTR [ecx]
  000a8	41		 inc	 ecx
  000a9	84 c0		 test	 al, al
  000ab	75 f9		 jne	 SHORT $LL83@GetStringD
  000ad	2b ca		 sub	 ecx, edx
  000af	89 8d 7c ff ff
	ff		 mov	 DWORD PTR _nDrawStyleLen$1$[ebp], ecx

; 1295 : 	// Singbar Graph    - ojtaso (20071121)
; 1296 : 	int nPaintStyleLen	= strlen( szPaintStyle);

  000b5	8d 4d a0	 lea	 ecx, DWORD PTR _szPaintStyle$[ebp]
  000b8	8d 51 01	 lea	 edx, DWORD PTR [ecx+1]
  000bb	0f 1f 44 00 00	 npad	 5
$LL84@GetStringD:
  000c0	8a 01		 mov	 al, BYTE PTR [ecx]
  000c2	41		 inc	 ecx
  000c3	84 c0		 test	 al, al
  000c5	75 f9		 jne	 SHORT $LL84@GetStringD
  000c7	2b ca		 sub	 ecx, edx
  000c9	89 8d 74 ff ff
	ff		 mov	 DWORD PTR _nPaintStyleLen$1$[ebp], ecx

; 1297 : 	//  ,   - ojtaso (20071213)
; 1298 : 	int nBaseLineStyleLen	= strlen( szBaseLineStyle);

  000cf	8d 4d 8c	 lea	 ecx, DWORD PTR _szBaseLineStyle$[ebp]
  000d2	8d 51 01	 lea	 edx, DWORD PTR [ecx+1]
$LL85@GetStringD:
  000d5	8a 01		 mov	 al, BYTE PTR [ecx]
  000d7	41		 inc	 ecx
  000d8	84 c0		 test	 al, al
  000da	75 f9		 jne	 SHORT $LL85@GetStringD
  000dc	2b ca		 sub	 ecx, edx
  000de	89 8d 70 ff ff
	ff		 mov	 DWORD PTR _nBaseLineStyleLen$1$[ebp], ecx

; 1299 : 
; 1300 : 	CString strGraphColor;

  000e4	8d 4d 84	 lea	 ecx, DWORD PTR _strGraphColor$[ebp]
  000e7	ff 15 00 00 00
	00		 call	 DWORD PTR __imp_??0?$CStringT@DV?$StrTraitMFC_DLL@DV?$ChTraitsCRT@D@ATL@@@@@ATL@@QAE@XZ

; 1301 : 	m_clrColor.GetStringData( strGraphColor);

  000ed	8d 45 84	 lea	 eax, DWORD PTR _strGraphColor$[ebp]
  000f0	c7 45 fc 00 00
	00 00		 mov	 DWORD PTR __$EHRec$[ebp+8], 0
  000f7	50		 push	 eax
  000f8	8d 4f 28	 lea	 ecx, DWORD PTR [edi+40]
  000fb	e8 00 00 00 00	 call	 ?GetStringData@CGraphColor@@QBEXAAV?$CStringT@DV?$StrTraitMFC_DLL@DV?$ChTraitsCRT@D@ATL@@@@@ATL@@@Z ; CGraphColor::GetStringData

; 1302 : 
; 1303 : 	CString strPenThickness;

  00100	8d 4d 88	 lea	 ecx, DWORD PTR _strPenThickness$[ebp]
  00103	ff 15 00 00 00
	00		 call	 DWORD PTR __imp_??0?$CStringT@DV?$StrTraitMFC_DLL@DV?$ChTraitsCRT@D@ATL@@@@@ATL@@QAE@XZ

; 1304 : 	m_penThickness.GetStringData( strPenThickness);

  00109	8d 45 88	 lea	 eax, DWORD PTR _strPenThickness$[ebp]
  0010c	c6 45 fc 01	 mov	 BYTE PTR __$EHRec$[ebp+8], 1
  00110	50		 push	 eax
  00111	8d 4f 54	 lea	 ecx, DWORD PTR [edi+84]
  00114	e8 00 00 00 00	 call	 ?GetStringData@CPenThickness@@QBEXAAV?$CStringT@DV?$StrTraitMFC_DLL@DV?$ChTraitsCRT@D@ATL@@@@@ATL@@@Z ; CPenThickness::GetStringData
; File C:\Program Files (x86)\Microsoft Visual Studio\2019\Community\VC\Tools\MSVC\14.29.30133\atlmfc\include\atlsimpstr.h

; 519  : 		return( GetData()->nDataLength );

  00119	8b 47 1c	 mov	 eax, DWORD PTR [edi+28]
; File D:\git\src\IBK\IBK_DRFN\ProjSrc\SrcChartEx\ChartOCX\IndicatorCondition\GraphData.cpp

; 1328 : 	char *szSubGraphData = p_strSubGraphData.GetBufferSetLength( nSubGraphDataLen);

  0011c	8b 4d 80	 mov	 ecx, DWORD PTR _p_strSubGraphData$GSCopy$1$[ebp]
; File C:\Program Files (x86)\Microsoft Visual Studio\2019\Community\VC\Tools\MSVC\14.29.30133\atlmfc\include\atlsimpstr.h

; 519  : 		return( GetData()->nDataLength );

  0011f	8b 78 f4	 mov	 edi, DWORD PTR [eax-12]
  00122	8b 85 78 ff ff
	ff		 mov	 eax, DWORD PTR _this$GSCopy$1$[ebp]
  00128	8b 40 20	 mov	 eax, DWORD PTR [eax+32]
  0012b	8b 70 f4	 mov	 esi, DWORD PTR [eax-12]
  0012e	8b 45 84	 mov	 eax, DWORD PTR _strGraphColor$[ebp]
  00131	8b 50 f4	 mov	 edx, DWORD PTR [eax-12]
  00134	8b 45 88	 mov	 eax, DWORD PTR _strPenThickness$[ebp]
  00137	8b 40 f4	 mov	 eax, DWORD PTR [eax-12]
; File D:\git\src\IBK\IBK_DRFN\ProjSrc\SrcChartEx\ChartOCX\IndicatorCondition\GraphData.cpp

; 1326 : 	nSubGraphDataLen += 2;	// \r\n

  0013a	03 c2		 add	 eax, edx
  0013c	03 c6		 add	 eax, esi
  0013e	8b b5 6c ff ff
	ff		 mov	 esi, DWORD PTR _nTypeLen$1$[ebp]
  00144	03 c7		 add	 eax, edi
  00146	8b bd 7c ff ff
	ff		 mov	 edi, DWORD PTR _nDrawStyleLen$1$[ebp]
  0014c	03 85 70 ff ff
	ff		 add	 eax, DWORD PTR _nBaseLineStyleLen$1$[ebp]
  00152	83 c7 0b	 add	 edi, 11			; 0000000bH
  00155	03 85 74 ff ff
	ff		 add	 eax, DWORD PTR _nPaintStyleLen$1$[ebp]
  0015b	03 c7		 add	 eax, edi
  0015d	03 c3		 add	 eax, ebx
  0015f	03 c6		 add	 eax, esi

; 1328 : 	char *szSubGraphData = p_strSubGraphData.GetBufferSetLength( nSubGraphDataLen);

  00161	50		 push	 eax
  00162	ff 15 00 00 00
	00		 call	 DWORD PTR __imp_?GetBufferSetLength@?$CSimpleStringT@D$00@ATL@@QAEPADH@Z

; 1329 : 
; 1330 : 	strcpy( szSubGraphData, szType);

  00168	8d 55 dc	 lea	 edx, DWORD PTR _szType$[ebp]
  0016b	8b c8		 mov	 ecx, eax
  0016d	8b fa		 mov	 edi, edx
  0016f	2b cf		 sub	 ecx, edi
  00171	89 4d 80	 mov	 DWORD PTR tv612[ebp], ecx
  00174	8b f9		 mov	 edi, ecx
$LL3@GetStringD:
  00176	8a 0a		 mov	 cl, BYTE PTR [edx]
  00178	8d 52 01	 lea	 edx, DWORD PTR [edx+1]
  0017b	88 4c 17 ff	 mov	 BYTE PTR [edi+edx-1], cl
  0017f	84 c9		 test	 cl, cl
  00181	75 f3		 jne	 SHORT $LL3@GetStringD

; 1331 : 	szSubGraphData += nTypeLen;
; 1332 : 	*szSubGraphData++ = ';';
; 1333 : 
; 1334 : 	strcpy( szSubGraphData, szGraphStyle);

  00183	8b bd 7c ff ff
	ff		 mov	 edi, DWORD PTR _nDrawStyleLen$1$[ebp]
  00189	8d 55 c8	 lea	 edx, DWORD PTR _szGraphStyle$[ebp]
  0018c	03 c6		 add	 eax, esi
  0018e	8b ca		 mov	 ecx, edx
  00190	c6 00 3b	 mov	 BYTE PTR [eax], 59	; 0000003bH
  00193	40		 inc	 eax
  00194	8b f0		 mov	 esi, eax
  00196	2b f1		 sub	 esi, ecx
  00198	0f 1f 84 00 00
	00 00 00	 npad	 8
$LL4@GetStringD:
  001a0	8a 0a		 mov	 cl, BYTE PTR [edx]
  001a2	8d 52 01	 lea	 edx, DWORD PTR [edx+1]
  001a5	88 4c 16 ff	 mov	 BYTE PTR [esi+edx-1], cl
  001a9	84 c9		 test	 cl, cl
  001ab	75 f3		 jne	 SHORT $LL4@GetStringD

; 1335 : 	szSubGraphData += nGraphStyleLen;

  001ad	03 c3		 add	 eax, ebx

; 1336 : 	*szSubGraphData++ = ';';
; 1337 : 
; 1338 : 	strcpy( szSubGraphData, szDrawStyle);

  001af	8d 55 b4	 lea	 edx, DWORD PTR _szDrawStyle$[ebp]
  001b2	8b ca		 mov	 ecx, edx
  001b4	c6 00 3b	 mov	 BYTE PTR [eax], 59	; 0000003bH
  001b7	40		 inc	 eax
  001b8	8b f0		 mov	 esi, eax
  001ba	2b f1		 sub	 esi, ecx
  001bc	0f 1f 40 00	 npad	 4
$LL5@GetStringD:
  001c0	8a 0a		 mov	 cl, BYTE PTR [edx]
  001c2	8d 52 01	 lea	 edx, DWORD PTR [edx+1]
  001c5	88 4c 16 ff	 mov	 BYTE PTR [esi+edx-1], cl
  001c9	84 c9		 test	 cl, cl
  001cb	75 f3		 jne	 SHORT $LL5@GetStringD
; File C:\Program Files (x86)\Microsoft Visual Studio\2019\Community\VC\Tools\MSVC\14.29.30133\atlmfc\include\atlsimpstr.h

; 377  : 		return( m_pszData );

  001cd	8b 9d 78 ff ff
	ff		 mov	 ebx, DWORD PTR _this$GSCopy$1$[ebp]
; File D:\git\src\IBK\IBK_DRFN\ProjSrc\SrcChartEx\ChartOCX\IndicatorCondition\GraphData.cpp

; 1339 : 	szSubGraphData += nDrawStyleLen;

  001d3	03 c7		 add	 eax, edi

; 1340 : 	*szSubGraphData++ = ';';

  001d5	c6 00 3b	 mov	 BYTE PTR [eax], 59	; 0000003bH
  001d8	40		 inc	 eax
; File C:\Program Files (x86)\Microsoft Visual Studio\2019\Community\VC\Tools\MSVC\14.29.30133\atlmfc\include\atlsimpstr.h

; 377  : 		return( m_pszData );

  001d9	8b 53 1c	 mov	 edx, DWORD PTR [ebx+28]
; File D:\git\src\IBK\IBK_DRFN\ProjSrc\SrcChartEx\ChartOCX\IndicatorCondition\GraphData.cpp

; 1342 : 	strcpy( szSubGraphData, m_strName);

  001dc	8b f0		 mov	 esi, eax
  001de	66 90		 npad	 2
$LL6@GetStringD:
  001e0	8a 0a		 mov	 cl, BYTE PTR [edx]
  001e2	8d 52 01	 lea	 edx, DWORD PTR [edx+1]
  001e5	88 0e		 mov	 BYTE PTR [esi], cl
  001e7	8d 76 01	 lea	 esi, DWORD PTR [esi+1]
  001ea	84 c9		 test	 cl, cl
  001ec	75 f2		 jne	 SHORT $LL6@GetStringD

; 1343 : 	szSubGraphData += m_strName.GetLength();

  001ee	8b 4b 1c	 mov	 ecx, DWORD PTR [ebx+28]
  001f1	03 41 f4	 add	 eax, DWORD PTR [ecx-12]

; 1344 : 	*szSubGraphData++ = ';';

  001f4	c6 00 3b	 mov	 BYTE PTR [eax], 59	; 0000003bH
  001f7	40		 inc	 eax
; File C:\Program Files (x86)\Microsoft Visual Studio\2019\Community\VC\Tools\MSVC\14.29.30133\atlmfc\include\atlsimpstr.h

; 377  : 		return( m_pszData );

  001f8	8b 53 20	 mov	 edx, DWORD PTR [ebx+32]
; File D:\git\src\IBK\IBK_DRFN\ProjSrc\SrcChartEx\ChartOCX\IndicatorCondition\GraphData.cpp

; 1346 : 	strcpy( szSubGraphData, m_strTitle);

  001fb	8b f0		 mov	 esi, eax
  001fd	0f 1f 00	 npad	 3
$LL7@GetStringD:
  00200	8a 0a		 mov	 cl, BYTE PTR [edx]
  00202	8d 52 01	 lea	 edx, DWORD PTR [edx+1]
  00205	88 0e		 mov	 BYTE PTR [esi], cl
  00207	8d 76 01	 lea	 esi, DWORD PTR [esi+1]
  0020a	84 c9		 test	 cl, cl
  0020c	75 f2		 jne	 SHORT $LL7@GetStringD

; 1347 : 	szSubGraphData += m_strTitle.GetLength();

  0020e	8b 4b 20	 mov	 ecx, DWORD PTR [ebx+32]
  00211	03 41 f4	 add	 eax, DWORD PTR [ecx-12]

; 1348 : 	*szSubGraphData++ = ';';

  00214	c6 00 3b	 mov	 BYTE PTR [eax], 59	; 0000003bH

; 1349 : 
; 1350 : 	*szSubGraphData++ = ( m_bHiding ? '1' : '0');

  00217	80 7b 24 00	 cmp	 BYTE PTR [ebx+36], 0
  0021b	0f 95 c1	 setne	 cl
  0021e	80 c1 30	 add	 cl, 48			; 00000030H
  00221	88 48 01	 mov	 BYTE PTR [eax+1], cl

; 1351 : 	*szSubGraphData++ = ';';

  00224	c6 40 02 3b	 mov	 BYTE PTR [eax+2], 59	; 0000003bH
  00228	83 c0 03	 add	 eax, 3
; File C:\Program Files (x86)\Microsoft Visual Studio\2019\Community\VC\Tools\MSVC\14.29.30133\atlmfc\include\atlsimpstr.h

; 377  : 		return( m_pszData );

  0022b	8b 55 84	 mov	 edx, DWORD PTR _strGraphColor$[ebp]
; File D:\git\src\IBK\IBK_DRFN\ProjSrc\SrcChartEx\ChartOCX\IndicatorCondition\GraphData.cpp

; 1353 : 	strcpy( szSubGraphData, strGraphColor);

  0022e	8b f0		 mov	 esi, eax
$LL8@GetStringD:
  00230	8a 0a		 mov	 cl, BYTE PTR [edx]
  00232	8d 52 01	 lea	 edx, DWORD PTR [edx+1]
  00235	88 0e		 mov	 BYTE PTR [esi], cl
  00237	8d 76 01	 lea	 esi, DWORD PTR [esi+1]
  0023a	84 c9		 test	 cl, cl
  0023c	75 f2		 jne	 SHORT $LL8@GetStringD

; 1354 : 	szSubGraphData += strGraphColor.GetLength();

  0023e	8b 4d 84	 mov	 ecx, DWORD PTR _strGraphColor$[ebp]
; File C:\Program Files (x86)\Microsoft Visual Studio\2019\Community\VC\Tools\MSVC\14.29.30133\atlmfc\include\atlsimpstr.h

; 377  : 		return( m_pszData );

  00241	8b 55 88	 mov	 edx, DWORD PTR _strPenThickness$[ebp]
; File D:\git\src\IBK\IBK_DRFN\ProjSrc\SrcChartEx\ChartOCX\IndicatorCondition\GraphData.cpp

; 1354 : 	szSubGraphData += strGraphColor.GetLength();

  00244	03 41 f4	 add	 eax, DWORD PTR [ecx-12]

; 1355 : 
; 1356 : 	strcpy( szSubGraphData, strPenThickness);

  00247	8b f0		 mov	 esi, eax
  00249	0f 1f 80 00 00
	00 00		 npad	 7
$LL9@GetStringD:
  00250	8a 0a		 mov	 cl, BYTE PTR [edx]
  00252	8d 52 01	 lea	 edx, DWORD PTR [edx+1]
  00255	88 0e		 mov	 BYTE PTR [esi], cl
  00257	8d 76 01	 lea	 esi, DWORD PTR [esi+1]
  0025a	84 c9		 test	 cl, cl
  0025c	75 f2		 jne	 SHORT $LL9@GetStringD

; 1357 : 	szSubGraphData += strPenThickness.GetLength();

  0025e	8b 4d 88	 mov	 ecx, DWORD PTR _strPenThickness$[ebp]

; 1358 : 
; 1359 : 	// Singbar Graph    - ojtaso (20071121)
; 1360 : 	strcpy( szSubGraphData, szPaintStyle);

  00261	8d 55 a0	 lea	 edx, DWORD PTR _szPaintStyle$[ebp]
  00264	03 41 f4	 add	 eax, DWORD PTR [ecx-12]
  00267	8b ca		 mov	 ecx, edx
  00269	8b f0		 mov	 esi, eax
  0026b	2b f1		 sub	 esi, ecx
  0026d	0f 1f 00	 npad	 3
$LL10@GetStringD:
  00270	8a 0a		 mov	 cl, BYTE PTR [edx]
  00272	8d 52 01	 lea	 edx, DWORD PTR [edx+1]
  00275	88 4c 16 ff	 mov	 BYTE PTR [esi+edx-1], cl
  00279	84 c9		 test	 cl, cl
  0027b	75 f3		 jne	 SHORT $LL10@GetStringD

; 1361 : 	szSubGraphData += nPaintStyleLen;

  0027d	03 85 74 ff ff
	ff		 add	 eax, DWORD PTR _nPaintStyleLen$1$[ebp]

; 1362 : 	*szSubGraphData++ = ';';
; 1363 : 
; 1364 : 	//  ,   - ojtaso (20071213)
; 1365 : 	strcpy( szSubGraphData, szBaseLineStyle);

  00283	8d 55 8c	 lea	 edx, DWORD PTR _szBaseLineStyle$[ebp]
  00286	8b ca		 mov	 ecx, edx
  00288	c6 00 3b	 mov	 BYTE PTR [eax], 59	; 0000003bH
  0028b	40		 inc	 eax
  0028c	8b f0		 mov	 esi, eax
  0028e	2b f1		 sub	 esi, ecx
$LL11@GetStringD:
  00290	8a 0a		 mov	 cl, BYTE PTR [edx]
  00292	8d 52 01	 lea	 edx, DWORD PTR [edx+1]
  00295	88 4c 16 ff	 mov	 BYTE PTR [esi+edx-1], cl
  00299	84 c9		 test	 cl, cl
  0029b	75 f3		 jne	 SHORT $LL11@GetStringD

; 1366 : 	szSubGraphData += nBaseLineStyleLen;

  0029d	03 85 70 ff ff
	ff		 add	 eax, DWORD PTR _nBaseLineStyleLen$1$[ebp]

; 1367 : 	*szSubGraphData++ = ';';
; 1368 : 
; 1369 : 	*szSubGraphData++ = '\r';
; 1370 : 	*szSubGraphData++ = '\n';
; 1371 : 	*szSubGraphData++ = '\0';
; 1372 : }

  002a3	8d 4d 88	 lea	 ecx, DWORD PTR _strPenThickness$[ebp]
  002a6	c7 00 3b 0d 0a
	00		 mov	 DWORD PTR [eax], 658747	; 000a0d3bH
  002ac	ff 15 00 00 00
	00		 call	 DWORD PTR __imp_??1?$CStringT@DV?$StrTraitMFC_DLL@DV?$ChTraitsCRT@D@ATL@@@@@ATL@@QAE@XZ
  002b2	8d 4d 84	 lea	 ecx, DWORD PTR _strGraphColor$[ebp]
  002b5	ff 15 00 00 00
	00		 call	 DWORD PTR __imp_??1?$CStringT@DV?$StrTraitMFC_DLL@DV?$ChTraitsCRT@D@ATL@@@@@ATL@@QAE@XZ
  002bb	8b 4d f4	 mov	 ecx, DWORD PTR __$EHRec$[ebp]
  002be	64 89 0d 00 00
	00 00		 mov	 DWORD PTR fs:0, ecx
  002c5	59		 pop	 ecx
  002c6	5f		 pop	 edi
  002c7	5e		 pop	 esi
  002c8	5b		 pop	 ebx
  002c9	8b 4d f0	 mov	 ecx, DWORD PTR __$ArrayPad$[ebp]
  002cc	33 cd		 xor	 ecx, ebp
  002ce	e8 00 00 00 00	 call	 @__security_check_cookie@4
  002d3	8b e5		 mov	 esp, ebp
  002d5	5d		 pop	 ebp
  002d6	c2 04 00	 ret	 4
_TEXT	ENDS
;	COMDAT text$x
text$x	SEGMENT
__unwindfunclet$?GetStringData@CSubGraphDataBase@@QBEXAAV?$CStringT@DV?$StrTraitMFC_DLL@DV?$ChTraitsCRT@D@ATL@@@@@ATL@@@Z$0:
  00000	8d 4d 84	 lea	 ecx, DWORD PTR _strGraphColor$[ebp]
  00003	ff 25 00 00 00
	00		 jmp	 DWORD PTR __imp_??1?$CStringT@DV?$StrTraitMFC_DLL@DV?$ChTraitsCRT@D@ATL@@@@@ATL@@QAE@XZ
__unwindfunclet$?GetStringData@CSubGraphDataBase@@QBEXAAV?$CStringT@DV?$StrTraitMFC_DLL@DV?$ChTraitsCRT@D@ATL@@@@@ATL@@@Z$1:
  00009	8d 4d 88	 lea	 ecx, DWORD PTR _strPenThickness$[ebp]
  0000c	ff 25 00 00 00
	00		 jmp	 DWORD PTR __imp_??1?$CStringT@DV?$StrTraitMFC_DLL@DV?$ChTraitsCRT@D@ATL@@@@@ATL@@QAE@XZ
  00012	cc		 int	 3
  00013	cc		 int	 3
  00014	cc		 int	 3
  00015	cc		 int	 3
  00016	cc		 int	 3
__ehhandler$?GetStringData@CSubGraphDataBase@@QBEXAAV?$CStringT@DV?$StrTraitMFC_DLL@DV?$ChTraitsCRT@D@ATL@@@@@ATL@@@Z:
  00017	90		 npad	 1
  00018	90		 npad	 1
  00019	8b 54 24 08	 mov	 edx, DWORD PTR [esp+8]
  0001d	8d 42 0c	 lea	 eax, DWORD PTR [edx+12]
  00020	8b 8a 68 ff ff
	ff		 mov	 ecx, DWORD PTR [edx-152]
  00026	33 c8		 xor	 ecx, eax
  00028	e8 00 00 00 00	 call	 @__security_check_cookie@4
  0002d	8b 4a fc	 mov	 ecx, DWORD PTR [edx-4]
  00030	33 c8		 xor	 ecx, eax
  00032	e8 00 00 00 00	 call	 @__security_check_cookie@4
  00037	b8 00 00 00 00	 mov	 eax, OFFSET __ehfuncinfo$?GetStringData@CSubGraphDataBase@@QBEXAAV?$CStringT@DV?$StrTraitMFC_DLL@DV?$ChTraitsCRT@D@ATL@@@@@ATL@@@Z
  0003c	e9 00 00 00 00	 jmp	 ___CxxFrameHandler3
text$x	ENDS
?GetStringData@CSubGraphDataBase@@QBEXAAV?$CStringT@DV?$StrTraitMFC_DLL@DV?$ChTraitsCRT@D@ATL@@@@@ATL@@@Z ENDP ; CSubGraphDataBase::GetStringData
; Function compile flags: /Ogtp
; File D:\git\src\IBK\IBK_DRFN\ProjSrc\SrcChartEx\ChartOCX\IndicatorCondition\GraphData.cpp
;	COMDAT ?GetPenThickness@CSubGraphDataBase@@QAEAAVCPenThickness@@XZ
_TEXT	SEGMENT
?GetPenThickness@CSubGraphDataBase@@QAEAAVCPenThickness@@XZ PROC ; CSubGraphDataBase::GetPenThickness, COMDAT
; _this$ = ecx

; 1275 : 	return m_penThickness;

  00000	8d 41 54	 lea	 eax, DWORD PTR [ecx+84]

; 1276 : }

  00003	c3		 ret	 0
?GetPenThickness@CSubGraphDataBase@@QAEAAVCPenThickness@@XZ ENDP ; CSubGraphDataBase::GetPenThickness
_TEXT	ENDS
; Function compile flags: /Ogtp
; File D:\git\src\IBK\IBK_DRFN\ProjSrc\SrcChartEx\ChartOCX\IndicatorCondition\GraphData.cpp
;	COMDAT ?GetPenThickness@CSubGraphDataBase@@QBE?AVCPenThickness@@XZ
_TEXT	SEGMENT
___$ReturnUdt$ = 8					; size = 4
?GetPenThickness@CSubGraphDataBase@@QBE?AVCPenThickness@@XZ PROC ; CSubGraphDataBase::GetPenThickness, COMDAT
; _this$ = ecx

; 1269 : {

  00000	55		 push	 ebp
  00001	8b ec		 mov	 ebp, esp

; 78   : 	m_bIsHightlight(data.IsHightlight()),

  00003	8b 45 08	 mov	 eax, DWORD PTR ___$ReturnUdt$[ebp]

; 1269 : {

  00006	56		 push	 esi
  00007	8b f1		 mov	 esi, ecx

; 78   : 	m_bIsHightlight(data.IsHightlight()),

  00009	8a 56 54	 mov	 dl, BYTE PTR [esi+84]

; 77   : 	m_nThickness3(data.GetThickness3()),

  0000c	8b 4e 60	 mov	 ecx, DWORD PTR [esi+96]
  0000f	88 10		 mov	 BYTE PTR [eax], dl
  00011	8b 56 58	 mov	 edx, DWORD PTR [esi+88]
  00014	89 50 04	 mov	 DWORD PTR [eax+4], edx
  00017	8b 56 5c	 mov	 edx, DWORD PTR [esi+92]
  0001a	89 48 0c	 mov	 DWORD PTR [eax+12], ecx

; 79   : 	//  ,   - ojtaso (20071213)
; 80   : 	m_nBaseLineThickness(data.GetBaseLineThickness())

  0001d	8b 4e 64	 mov	 ecx, DWORD PTR [esi+100]
  00020	89 50 08	 mov	 DWORD PTR [eax+8], edx
  00023	89 48 10	 mov	 DWORD PTR [eax+16], ecx

; 1270 : 	return m_penThickness;

  00026	5e		 pop	 esi

; 1271 : }

  00027	5d		 pop	 ebp
  00028	c2 04 00	 ret	 4
?GetPenThickness@CSubGraphDataBase@@QBE?AVCPenThickness@@XZ ENDP ; CSubGraphDataBase::GetPenThickness
_TEXT	ENDS
; Function compile flags: /Ogtp
; File D:\git\src\IBK\IBK_DRFN\ProjSrc\SrcChartEx\ChartOCX\IndicatorCondition\GraphData.cpp
;	COMDAT ?GetColor@CSubGraphDataBase@@QAEAAVCGraphColor@@XZ
_TEXT	SEGMENT
?GetColor@CSubGraphDataBase@@QAEAAVCGraphColor@@XZ PROC	; CSubGraphDataBase::GetColor, COMDAT
; _this$ = ecx

; 1265 : 	return m_clrColor;

  00000	8d 41 28	 lea	 eax, DWORD PTR [ecx+40]

; 1266 : }

  00003	c3		 ret	 0
?GetColor@CSubGraphDataBase@@QAEAAVCGraphColor@@XZ ENDP	; CSubGraphDataBase::GetColor
_TEXT	ENDS
; Function compile flags: /Ogtp
; File D:\git\src\IBK\IBK_DRFN\ProjSrc\SrcChartEx\ChartOCX\IndicatorCondition\GraphData.cpp
;	COMDAT ?GetColor_PointerType@CSubGraphDataBase@@QAEPAVCGraphColor@@XZ
_TEXT	SEGMENT
?GetColor_PointerType@CSubGraphDataBase@@QAEPAVCGraphColor@@XZ PROC ; CSubGraphDataBase::GetColor_PointerType, COMDAT
; _this$ = ecx

; 1260 : 	return &m_clrColor;

  00000	8d 41 28	 lea	 eax, DWORD PTR [ecx+40]

; 1261 : }

  00003	c3		 ret	 0
?GetColor_PointerType@CSubGraphDataBase@@QAEPAVCGraphColor@@XZ ENDP ; CSubGraphDataBase::GetColor_PointerType
_TEXT	ENDS
; Function compile flags: /Ogtp
; File D:\git\src\IBK\IBK_DRFN\ProjSrc\SrcChartEx\ChartOCX\IndicatorCondition\GraphData.cpp
;	COMDAT ?GetColor@CSubGraphDataBase@@QBE?AVCGraphColor@@XZ
_TEXT	SEGMENT
___$ReturnUdt$ = 8					; size = 4
?GetColor@CSubGraphDataBase@@QBE?AVCGraphColor@@XZ PROC	; CSubGraphDataBase::GetColor, COMDAT
; _this$ = ecx

; 1254 : {

  00000	55		 push	 ebp
  00001	8b ec		 mov	 ebp, esp

; 1255 : 	return m_clrColor;

  00003	8d 41 28	 lea	 eax, DWORD PTR [ecx+40]
  00006	8b 4d 08	 mov	 ecx, DWORD PTR ___$ReturnUdt$[ebp]
  00009	50		 push	 eax
  0000a	e8 00 00 00 00	 call	 ??0CGraphColor@@QAE@ABV0@@Z ; CGraphColor::CGraphColor
  0000f	8b 45 08	 mov	 eax, DWORD PTR ___$ReturnUdt$[ebp]

; 1256 : }

  00012	5d		 pop	 ebp
  00013	c2 04 00	 ret	 4
?GetColor@CSubGraphDataBase@@QBE?AVCGraphColor@@XZ ENDP	; CSubGraphDataBase::GetColor
_TEXT	ENDS
; Function compile flags: /Ogtp
; File D:\git\src\IBK\IBK_DRFN\ProjSrc\SrcChartEx\ChartOCX\IndicatorCondition\GraphData.cpp
;	COMDAT ?GetTitle@CSubGraphDataBase@@QBE?AV?$CStringT@DV?$StrTraitMFC_DLL@DV?$ChTraitsCRT@D@ATL@@@@@ATL@@XZ
_TEXT	SEGMENT
___$ReturnUdt$ = 8					; size = 4
?GetTitle@CSubGraphDataBase@@QBE?AV?$CStringT@DV?$StrTraitMFC_DLL@DV?$ChTraitsCRT@D@ATL@@@@@ATL@@XZ PROC ; CSubGraphDataBase::GetTitle, COMDAT
; _this$ = ecx

; 1237 : {

  00000	55		 push	 ebp
  00001	8b ec		 mov	 ebp, esp

; 1238 : 	return m_strTitle;

  00003	8d 41 20	 lea	 eax, DWORD PTR [ecx+32]
  00006	8b 4d 08	 mov	 ecx, DWORD PTR ___$ReturnUdt$[ebp]
  00009	50		 push	 eax
  0000a	ff 15 00 00 00
	00		 call	 DWORD PTR __imp_??0?$CStringT@DV?$StrTraitMFC_DLL@DV?$ChTraitsCRT@D@ATL@@@@@ATL@@QAE@ABV01@@Z
  00010	8b 45 08	 mov	 eax, DWORD PTR ___$ReturnUdt$[ebp]

; 1239 : }

  00013	5d		 pop	 ebp
  00014	c2 04 00	 ret	 4
?GetTitle@CSubGraphDataBase@@QBE?AV?$CStringT@DV?$StrTraitMFC_DLL@DV?$ChTraitsCRT@D@ATL@@@@@ATL@@XZ ENDP ; CSubGraphDataBase::GetTitle
_TEXT	ENDS
; Function compile flags: /Ogtp
; File D:\git\src\IBK\IBK_DRFN\ProjSrc\SrcChartEx\ChartOCX\IndicatorCondition\GraphData.cpp
;	COMDAT ?GetName@CSubGraphDataBase@@QBE?AV?$CStringT@DV?$StrTraitMFC_DLL@DV?$ChTraitsCRT@D@ATL@@@@@ATL@@XZ
_TEXT	SEGMENT
___$ReturnUdt$ = 8					; size = 4
?GetName@CSubGraphDataBase@@QBE?AV?$CStringT@DV?$StrTraitMFC_DLL@DV?$ChTraitsCRT@D@ATL@@@@@ATL@@XZ PROC ; CSubGraphDataBase::GetName, COMDAT
; _this$ = ecx

; 1232 : {

  00000	55		 push	 ebp
  00001	8b ec		 mov	 ebp, esp

; 1233 : 	return m_strName;

  00003	8d 41 1c	 lea	 eax, DWORD PTR [ecx+28]
  00006	8b 4d 08	 mov	 ecx, DWORD PTR ___$ReturnUdt$[ebp]
  00009	50		 push	 eax
  0000a	ff 15 00 00 00
	00		 call	 DWORD PTR __imp_??0?$CStringT@DV?$StrTraitMFC_DLL@DV?$ChTraitsCRT@D@ATL@@@@@ATL@@QAE@ABV01@@Z
  00010	8b 45 08	 mov	 eax, DWORD PTR ___$ReturnUdt$[ebp]

; 1234 : }

  00013	5d		 pop	 ebp
  00014	c2 04 00	 ret	 4
?GetName@CSubGraphDataBase@@QBE?AV?$CStringT@DV?$StrTraitMFC_DLL@DV?$ChTraitsCRT@D@ATL@@@@@ATL@@XZ ENDP ; CSubGraphDataBase::GetName
_TEXT	ENDS
; Function compile flags: /Ogtp
; File D:\git\src\IBK\IBK_DRFN\ProjSrc\SrcChartEx\ChartOCX\IndicatorCondition\GraphData.cpp
;	COMDAT ?GetBaseLineDrawStyle@CSubGraphDataBase@@QBE?AVCGraphBaseLineStyle@@XZ
_TEXT	SEGMENT
___$ReturnUdt$ = 8					; size = 4
?GetBaseLineDrawStyle@CSubGraphDataBase@@QBE?AVCGraphBaseLineStyle@@XZ PROC ; CSubGraphDataBase::GetBaseLineDrawStyle, COMDAT
; _this$ = ecx

; 1227 : {

  00000	55		 push	 ebp
  00001	8b ec		 mov	 ebp, esp

; 1228 : 	return m_nBaseLineStyle;

  00003	8b 45 08	 mov	 eax, DWORD PTR ___$ReturnUdt$[ebp]
  00006	8b 49 18	 mov	 ecx, DWORD PTR [ecx+24]
  00009	89 08		 mov	 DWORD PTR [eax], ecx

; 1229 : }

  0000b	5d		 pop	 ebp
  0000c	c2 04 00	 ret	 4
?GetBaseLineDrawStyle@CSubGraphDataBase@@QBE?AVCGraphBaseLineStyle@@XZ ENDP ; CSubGraphDataBase::GetBaseLineDrawStyle
_TEXT	ENDS
; Function compile flags: /Ogtp
; File D:\git\src\IBK\IBK_DRFN\ProjSrc\SrcChartEx\ChartOCX\IndicatorCondition\GraphData.cpp
;	COMDAT ?GetPaintStyle@CSubGraphDataBase@@QBE?AVCGraphPaintStyle@@XZ
_TEXT	SEGMENT
___$ReturnUdt$ = 8					; size = 4
?GetPaintStyle@CSubGraphDataBase@@QBE?AVCGraphPaintStyle@@XZ PROC ; CSubGraphDataBase::GetPaintStyle, COMDAT
; _this$ = ecx

; 1221 : {

  00000	55		 push	 ebp
  00001	8b ec		 mov	 ebp, esp

; 1222 : 	return m_nPaintStyle;

  00003	8b 45 08	 mov	 eax, DWORD PTR ___$ReturnUdt$[ebp]
  00006	8b 49 14	 mov	 ecx, DWORD PTR [ecx+20]
  00009	89 08		 mov	 DWORD PTR [eax], ecx

; 1223 : }

  0000b	5d		 pop	 ebp
  0000c	c2 04 00	 ret	 4
?GetPaintStyle@CSubGraphDataBase@@QBE?AVCGraphPaintStyle@@XZ ENDP ; CSubGraphDataBase::GetPaintStyle
_TEXT	ENDS
; Function compile flags: /Ogtp
; File D:\git\src\IBK\IBK_DRFN\ProjSrc\SrcChartEx\ChartOCX\IndicatorCondition\GraphData.cpp
;	COMDAT ?GetDrawStyle@CSubGraphDataBase@@QBE?AVCGraphDrawStyle@@XZ
_TEXT	SEGMENT
___$ReturnUdt$ = 8					; size = 4
?GetDrawStyle@CSubGraphDataBase@@QBE?AVCGraphDrawStyle@@XZ PROC ; CSubGraphDataBase::GetDrawStyle, COMDAT
; _this$ = ecx

; 1215 : {

  00000	55		 push	 ebp
  00001	8b ec		 mov	 ebp, esp

; 1216 : 	return m_nDrawStyle;

  00003	8b 45 08	 mov	 eax, DWORD PTR ___$ReturnUdt$[ebp]
  00006	8b 49 10	 mov	 ecx, DWORD PTR [ecx+16]
  00009	89 08		 mov	 DWORD PTR [eax], ecx

; 1217 : }

  0000b	5d		 pop	 ebp
  0000c	c2 04 00	 ret	 4
?GetDrawStyle@CSubGraphDataBase@@QBE?AVCGraphDrawStyle@@XZ ENDP ; CSubGraphDataBase::GetDrawStyle
_TEXT	ENDS
; Function compile flags: /Ogtp
; File D:\git\src\IBK\IBK_DRFN\ProjSrc\SrcChartEx\ChartOCX\IndicatorCondition\GraphData.cpp
;	COMDAT ?GetStyle@CSubGraphDataBase@@QBE?AVCGraphStyle@@XZ
_TEXT	SEGMENT
___$ReturnUdt$ = 8					; size = 4
?GetStyle@CSubGraphDataBase@@QBE?AVCGraphStyle@@XZ PROC	; CSubGraphDataBase::GetStyle, COMDAT
; _this$ = ecx

; 1210 : {

  00000	55		 push	 ebp
  00001	8b ec		 mov	 ebp, esp

; 1211 : 	return m_nStyle;

  00003	8b 45 08	 mov	 eax, DWORD PTR ___$ReturnUdt$[ebp]
  00006	8b 49 0c	 mov	 ecx, DWORD PTR [ecx+12]
  00009	89 08		 mov	 DWORD PTR [eax], ecx

; 1212 : }

  0000b	5d		 pop	 ebp
  0000c	c2 04 00	 ret	 4
?GetStyle@CSubGraphDataBase@@QBE?AVCGraphStyle@@XZ ENDP	; CSubGraphDataBase::GetStyle
_TEXT	ENDS
; Function compile flags: /Ogtp
; File D:\git\src\IBK\IBK_DRFN\ProjSrc\SrcChartEx\ChartOCX\IndicatorCondition\GraphData.cpp
;	COMDAT ?GetType@CSubGraphDataBase@@QBE?AW4GRAPHTYPE@CGraphBaseData@@XZ
_TEXT	SEGMENT
?GetType@CSubGraphDataBase@@QBE?AW4GRAPHTYPE@CGraphBaseData@@XZ PROC ; CSubGraphDataBase::GetType, COMDAT
; _this$ = ecx

; 1206 : 	return m_TYPEType;

  00000	8b 41 08	 mov	 eax, DWORD PTR [ecx+8]

; 1207 : }

  00003	c3		 ret	 0
?GetType@CSubGraphDataBase@@QBE?AW4GRAPHTYPE@CGraphBaseData@@XZ ENDP ; CSubGraphDataBase::GetType
_TEXT	ENDS
; Function compile flags: /Ogtp
; File D:\git\src\IBK\IBK_DRFN\ProjSrc\SrcChartEx\ChartOCX\IndicatorCondition\GraphData.cpp
;	COMDAT ?GetTitleEndLine@CSubGraphDataBase@@QBEHXZ
_TEXT	SEGMENT
?GetTitleEndLine@CSubGraphDataBase@@QBEHXZ PROC		; CSubGraphDataBase::GetTitleEndLine, COMDAT
; _this$ = ecx

; 1201 : 	return m_nTitleEndLine;

  00000	8b 41 04	 mov	 eax, DWORD PTR [ecx+4]

; 1202 : }

  00003	c3		 ret	 0
?GetTitleEndLine@CSubGraphDataBase@@QBEHXZ ENDP		; CSubGraphDataBase::GetTitleEndLine
_TEXT	ENDS
; Function compile flags: /Ogtp
; File D:\git\src\IBK\IBK_DRFN\ProjSrc\SrcChartEx\ChartOCX\IndicatorCondition\GraphData.cpp
;	COMDAT ?GetTitleEndPosition@CSubGraphDataBase@@QBEHXZ
_TEXT	SEGMENT
?GetTitleEndPosition@CSubGraphDataBase@@QBEHXZ PROC	; CSubGraphDataBase::GetTitleEndPosition, COMDAT
; _this$ = ecx

; 1195 : 	return m_nTitleEndPosition;

  00000	8b 01		 mov	 eax, DWORD PTR [ecx]

; 1196 : }

  00002	c3		 ret	 0
?GetTitleEndPosition@CSubGraphDataBase@@QBEHXZ ENDP	; CSubGraphDataBase::GetTitleEndPosition
_TEXT	ENDS
; Function compile flags: /Ogtp
; File D:\git\src\IBK\IBK_DRFN\ProjSrc\SrcChartEx\ChartOCX\IndicatorCondition\GraphData.cpp
;	COMDAT ?SetBaseLineStyle@CSubGraphDataBase@@QAEXABVCGraphBaseLineStyle@@@Z
_TEXT	SEGMENT
_nBaseLineStyle$ = 8					; size = 4
?SetBaseLineStyle@CSubGraphDataBase@@QAEXABVCGraphBaseLineStyle@@@Z PROC ; CSubGraphDataBase::SetBaseLineStyle, COMDAT
; _this$ = ecx

; 1164 : {

  00000	55		 push	 ebp
  00001	8b ec		 mov	 ebp, esp

; 1165 : 	m_nBaseLineStyle = nBaseLineStyle;

  00003	8b 45 08	 mov	 eax, DWORD PTR _nBaseLineStyle$[ebp]
  00006	8b 00		 mov	 eax, DWORD PTR [eax]
  00008	89 41 18	 mov	 DWORD PTR [ecx+24], eax

; 1166 : }

  0000b	5d		 pop	 ebp
  0000c	c2 04 00	 ret	 4
?SetBaseLineStyle@CSubGraphDataBase@@QAEXABVCGraphBaseLineStyle@@@Z ENDP ; CSubGraphDataBase::SetBaseLineStyle
_TEXT	ENDS
; Function compile flags: /Ogtp
; File D:\git\src\IBK\IBK_DRFN\ProjSrc\SrcChartEx\ChartOCX\IndicatorCondition\GraphData.cpp
;	COMDAT ?SetPaintStyle@CSubGraphDataBase@@QAEXABVCGraphPaintStyle@@@Z
_TEXT	SEGMENT
_nPaintStyle$ = 8					; size = 4
?SetPaintStyle@CSubGraphDataBase@@QAEXABVCGraphPaintStyle@@@Z PROC ; CSubGraphDataBase::SetPaintStyle, COMDAT
; _this$ = ecx

; 1158 : {

  00000	55		 push	 ebp
  00001	8b ec		 mov	 ebp, esp

; 1159 : 	m_nPaintStyle = nPaintStyle;

  00003	8b 45 08	 mov	 eax, DWORD PTR _nPaintStyle$[ebp]
  00006	8b 00		 mov	 eax, DWORD PTR [eax]
  00008	89 41 14	 mov	 DWORD PTR [ecx+20], eax

; 1160 : }

  0000b	5d		 pop	 ebp
  0000c	c2 04 00	 ret	 4
?SetPaintStyle@CSubGraphDataBase@@QAEXABVCGraphPaintStyle@@@Z ENDP ; CSubGraphDataBase::SetPaintStyle
_TEXT	ENDS
; Function compile flags: /Ogtp
; File D:\git\src\IBK\IBK_DRFN\ProjSrc\SrcChartEx\ChartOCX\IndicatorCondition\GraphData.cpp
;	COMDAT ?SetSubGraphIndex@CSubGraphDataBase@@QAEXH@Z
_TEXT	SEGMENT
_nSubGraphIndex$ = 8					; size = 4
?SetSubGraphIndex@CSubGraphDataBase@@QAEXH@Z PROC	; CSubGraphDataBase::SetSubGraphIndex, COMDAT
; _this$ = ecx

; 1152 : {

  00000	55		 push	 ebp
  00001	8b ec		 mov	 ebp, esp

; 1153 : 	m_nSubGraphIndex = nSubGraphIndex;

  00003	8b 45 08	 mov	 eax, DWORD PTR _nSubGraphIndex$[ebp]
  00006	89 41 6c	 mov	 DWORD PTR [ecx+108], eax

; 1154 : }

  00009	5d		 pop	 ebp
  0000a	c2 04 00	 ret	 4
?SetSubGraphIndex@CSubGraphDataBase@@QAEXH@Z ENDP	; CSubGraphDataBase::SetSubGraphIndex
_TEXT	ENDS
; Function compile flags: /Ogtp
; File D:\git\src\IBK\IBK_DRFN\ProjSrc\SrcChartEx\ChartOCX\IndicatorCondition\GraphData.cpp
;	COMDAT ?SetItemName@CSubGraphDataBase@@QAEXABV?$CStringT@DV?$StrTraitMFC_DLL@DV?$ChTraitsCRT@D@ATL@@@@@ATL@@@Z
_TEXT	SEGMENT
_strItemName$ = 8					; size = 4
?SetItemName@CSubGraphDataBase@@QAEXABV?$CStringT@DV?$StrTraitMFC_DLL@DV?$ChTraitsCRT@D@ATL@@@@@ATL@@@Z PROC ; CSubGraphDataBase::SetItemName, COMDAT
; _this$ = ecx

; 1146 : {

  00000	55		 push	 ebp
  00001	8b ec		 mov	 ebp, esp

; 1147 : 	m_strItemName = strItemName;

  00003	83 c1 68	 add	 ecx, 104		; 00000068H

; 1148 : }

  00006	5d		 pop	 ebp

; 1147 : 	m_strItemName = strItemName;

  00007	ff 25 00 00 00
	00		 jmp	 DWORD PTR __imp_??4?$CStringT@DV?$StrTraitMFC_DLL@DV?$ChTraitsCRT@D@ATL@@@@@ATL@@QAEAAV01@ABV01@@Z
?SetItemName@CSubGraphDataBase@@QAEXABV?$CStringT@DV?$StrTraitMFC_DLL@DV?$ChTraitsCRT@D@ATL@@@@@ATL@@@Z ENDP ; CSubGraphDataBase::SetItemName
_TEXT	ENDS
; Function compile flags: /Ogtp
; File D:\git\src\IBK\IBK_DRFN\ProjSrc\SrcChartEx\ChartOCX\IndicatorCondition\GraphData.cpp
;	COMDAT ?ChangeKeyPart@CSubGraphDataBase@@QAEXABV1@@Z
_TEXT	SEGMENT
__$EHRec$ = -12						; size = 12
$T2 = 8							; size = 4
_data$ = 8						; size = 4
?ChangeKeyPart@CSubGraphDataBase@@QAEXABV1@@Z PROC	; CSubGraphDataBase::ChangeKeyPart, COMDAT
; _this$ = ecx

; 1185 : {

  00000	55		 push	 ebp
  00001	8b ec		 mov	 ebp, esp
  00003	6a ff		 push	 -1
  00005	68 00 00 00 00	 push	 __ehhandler$?ChangeKeyPart@CSubGraphDataBase@@QAEXABV1@@Z
  0000a	64 a1 00 00 00
	00		 mov	 eax, DWORD PTR fs:0
  00010	50		 push	 eax
  00011	56		 push	 esi
  00012	a1 00 00 00 00	 mov	 eax, DWORD PTR ___security_cookie
  00017	33 c5		 xor	 eax, ebp
  00019	50		 push	 eax
  0001a	8d 45 f4	 lea	 eax, DWORD PTR __$EHRec$[ebp]
  0001d	64 a3 00 00 00
	00		 mov	 DWORD PTR fs:0, eax
  00023	8b f1		 mov	 esi, ecx

; 1186 : 	m_TYPEType = data.GetType();		// graph type

  00025	8b 55 08	 mov	 edx, DWORD PTR _data$[ebp]

; 1233 : 	return m_strName;

  00028	8d 4d 08	 lea	 ecx, DWORD PTR $T2[ebp]

; 1186 : 	m_TYPEType = data.GetType();		// graph type

  0002b	8b 42 08	 mov	 eax, DWORD PTR [edx+8]
  0002e	89 46 08	 mov	 DWORD PTR [esi+8], eax

; 1211 : 	return m_nStyle;

  00031	8b 42 0c	 mov	 eax, DWORD PTR [edx+12]

; 1187 : 	m_nStyle = data.GetStyle();			// graph style

  00034	89 46 0c	 mov	 DWORD PTR [esi+12], eax

; 1216 : 	return m_nDrawStyle;

  00037	8b 42 10	 mov	 eax, DWORD PTR [edx+16]

; 1188 : 	m_nDrawStyle = data.GetDrawStyle();	// graph draw style

  0003a	89 46 10	 mov	 DWORD PTR [esi+16], eax

; 1233 : 	return m_strName;

  0003d	8d 42 1c	 lea	 eax, DWORD PTR [edx+28]
  00040	50		 push	 eax
  00041	ff 15 00 00 00
	00		 call	 DWORD PTR __imp_??0?$CStringT@DV?$StrTraitMFC_DLL@DV?$ChTraitsCRT@D@ATL@@@@@ATL@@QAE@ABV01@@Z

; 1189 : 	m_strName = data.GetName();			// graph name

  00047	8d 45 08	 lea	 eax, DWORD PTR $T2[ebp]
  0004a	c7 45 fc 00 00
	00 00		 mov	 DWORD PTR __$EHRec$[ebp+8], 0
  00051	50		 push	 eax
  00052	8d 4e 1c	 lea	 ecx, DWORD PTR [esi+28]
  00055	ff 15 00 00 00
	00		 call	 DWORD PTR __imp_??4?$CStringT@DV?$StrTraitMFC_DLL@DV?$ChTraitsCRT@D@ATL@@@@@ATL@@QAEAAV01@ABV01@@Z
  0005b	8d 4d 08	 lea	 ecx, DWORD PTR $T2[ebp]
  0005e	ff 15 00 00 00
	00		 call	 DWORD PTR __imp_??1?$CStringT@DV?$StrTraitMFC_DLL@DV?$ChTraitsCRT@D@ATL@@@@@ATL@@QAE@XZ

; 1190 : }

  00064	8b 4d f4	 mov	 ecx, DWORD PTR __$EHRec$[ebp]
  00067	64 89 0d 00 00
	00 00		 mov	 DWORD PTR fs:0, ecx
  0006e	59		 pop	 ecx
  0006f	5e		 pop	 esi
  00070	8b e5		 mov	 esp, ebp
  00072	5d		 pop	 ebp
  00073	c2 04 00	 ret	 4
_TEXT	ENDS
;	COMDAT text$x
text$x	SEGMENT
__unwindfunclet$?ChangeKeyPart@CSubGraphDataBase@@QAEXABV1@@Z$0:
  00000	8d 4d 08	 lea	 ecx, DWORD PTR $T2[ebp]
  00003	ff 25 00 00 00
	00		 jmp	 DWORD PTR __imp_??1?$CStringT@DV?$StrTraitMFC_DLL@DV?$ChTraitsCRT@D@ATL@@@@@ATL@@QAE@XZ
  00009	cc		 int	 3
  0000a	cc		 int	 3
  0000b	cc		 int	 3
  0000c	cc		 int	 3
  0000d	cc		 int	 3
__ehhandler$?ChangeKeyPart@CSubGraphDataBase@@QAEXABV1@@Z:
  0000e	90		 npad	 1
  0000f	90		 npad	 1
  00010	8b 54 24 08	 mov	 edx, DWORD PTR [esp+8]
  00014	8d 42 0c	 lea	 eax, DWORD PTR [edx+12]
  00017	8b 4a f8	 mov	 ecx, DWORD PTR [edx-8]
  0001a	33 c8		 xor	 ecx, eax
  0001c	e8 00 00 00 00	 call	 @__security_check_cookie@4
  00021	b8 00 00 00 00	 mov	 eax, OFFSET __ehfuncinfo$?ChangeKeyPart@CSubGraphDataBase@@QAEXABV1@@Z
  00026	e9 00 00 00 00	 jmp	 ___CxxFrameHandler3
text$x	ENDS
?ChangeKeyPart@CSubGraphDataBase@@QAEXABV1@@Z ENDP	; CSubGraphDataBase::ChangeKeyPart
; Function compile flags: /Ogtp
; File D:\git\src\IBK\IBK_DRFN\ProjSrc\SrcChartEx\ChartOCX\IndicatorCondition\GraphData.cpp
;	COMDAT ?SetPenThickness@CSubGraphDataBase@@QAEXABVCPenThickness@@@Z
_TEXT	SEGMENT
_penThickness$ = 8					; size = 4
?SetPenThickness@CSubGraphDataBase@@QAEXABVCPenThickness@@@Z PROC ; CSubGraphDataBase::SetPenThickness, COMDAT
; _this$ = ecx

; 1179 : {

  00000	55		 push	 ebp
  00001	8b ec		 mov	 ebp, esp

; 24   : 	if(this == &data)

  00003	8b 55 08	 mov	 edx, DWORD PTR _penThickness$[ebp]

; 1180 : 	m_penThickness = penThickness;

  00006	83 c1 54	 add	 ecx, 84			; 00000054H

; 24   : 	if(this == &data)

  00009	3b ca		 cmp	 ecx, edx
  0000b	74 1c		 je	 SHORT $LN3@SetPenThic

; 25   : 		return *this;
; 26   : 
; 27   : 	m_nThickness1 = data.GetThickness1();

  0000d	8b 42 04	 mov	 eax, DWORD PTR [edx+4]
  00010	89 41 04	 mov	 DWORD PTR [ecx+4], eax

; 28   : 	m_nThickness2 = data.GetThickness2();

  00013	8b 42 08	 mov	 eax, DWORD PTR [edx+8]
  00016	89 41 08	 mov	 DWORD PTR [ecx+8], eax

; 29   : 	m_nThickness3 = data.GetThickness3();

  00019	8b 42 0c	 mov	 eax, DWORD PTR [edx+12]
  0001c	89 41 0c	 mov	 DWORD PTR [ecx+12], eax

; 30   : 	m_bIsHightlight = data.IsHightlight();

  0001f	8a 02		 mov	 al, BYTE PTR [edx]
  00021	88 01		 mov	 BYTE PTR [ecx], al

; 31   : 
; 32   : 	//  ,   - ojtaso (20071213)
; 33   : 	m_nBaseLineThickness = data.GetBaseLineThickness();

  00023	8b 42 10	 mov	 eax, DWORD PTR [edx+16]
  00026	89 41 10	 mov	 DWORD PTR [ecx+16], eax
$LN3@SetPenThic:

; 1181 : }

  00029	5d		 pop	 ebp
  0002a	c2 04 00	 ret	 4
?SetPenThickness@CSubGraphDataBase@@QAEXABVCPenThickness@@@Z ENDP ; CSubGraphDataBase::SetPenThickness
_TEXT	ENDS
; Function compile flags: /Ogtp
; File D:\git\src\IBK\IBK_DRFN\ProjSrc\SrcChartEx\ChartOCX\IndicatorCondition\GraphData.cpp
;	COMDAT ?SetColor@CSubGraphDataBase@@QAEXABVCGraphColor@@@Z
_TEXT	SEGMENT
_color$ = 8						; size = 4
?SetColor@CSubGraphDataBase@@QAEXABVCGraphColor@@@Z PROC ; CSubGraphDataBase::SetColor, COMDAT
; _this$ = ecx

; 1174 : {

  00000	55		 push	 ebp
  00001	8b ec		 mov	 ebp, esp

; 1175 : 	m_clrColor = color;

  00003	83 c1 28	 add	 ecx, 40			; 00000028H

; 1176 : }

  00006	5d		 pop	 ebp

; 1175 : 	m_clrColor = color;

  00007	e9 00 00 00 00	 jmp	 ??4CGraphColor@@QAEAAV0@ABV0@@Z ; CGraphColor::operator=
?SetColor@CSubGraphDataBase@@QAEXABVCGraphColor@@@Z ENDP ; CSubGraphDataBase::SetColor
_TEXT	ENDS
; Function compile flags: /Ogtp
; File D:\git\src\IBK\IBK_DRFN\ProjSrc\SrcChartEx\ChartOCX\IndicatorCondition\GraphData.cpp
;	COMDAT ?SetHiding@CSubGraphDataBase@@QAEX_N@Z
_TEXT	SEGMENT
_hiding$ = 8						; size = 1
?SetHiding@CSubGraphDataBase@@QAEX_N@Z PROC		; CSubGraphDataBase::SetHiding, COMDAT
; _this$ = ecx

; 1169 : {

  00000	55		 push	 ebp
  00001	8b ec		 mov	 ebp, esp

; 1170 : 	m_bHiding = hiding;

  00003	8a 45 08	 mov	 al, BYTE PTR _hiding$[ebp]
  00006	88 41 24	 mov	 BYTE PTR [ecx+36], al

; 1171 : }

  00009	5d		 pop	 ebp
  0000a	c2 04 00	 ret	 4
?SetHiding@CSubGraphDataBase@@QAEX_N@Z ENDP		; CSubGraphDataBase::SetHiding
_TEXT	ENDS
; Function compile flags: /Ogtp
; File D:\git\src\IBK\IBK_DRFN\ProjSrc\SrcChartEx\ChartOCX\IndicatorCondition\GraphData.cpp
;	COMDAT ?SetTitle@CSubGraphDataBase@@QAEXABV?$CStringT@DV?$StrTraitMFC_DLL@DV?$ChTraitsCRT@D@ATL@@@@@ATL@@@Z
_TEXT	SEGMENT
_title$ = 8						; size = 4
?SetTitle@CSubGraphDataBase@@QAEXABV?$CStringT@DV?$StrTraitMFC_DLL@DV?$ChTraitsCRT@D@ATL@@@@@ATL@@@Z PROC ; CSubGraphDataBase::SetTitle, COMDAT
; _this$ = ecx

; 1140 : {

  00000	55		 push	 ebp
  00001	8b ec		 mov	 ebp, esp

; 1141 : 	m_strTitle = title;

  00003	83 c1 20	 add	 ecx, 32			; 00000020H

; 1142 : }

  00006	5d		 pop	 ebp

; 1141 : 	m_strTitle = title;

  00007	ff 25 00 00 00
	00		 jmp	 DWORD PTR __imp_??4?$CStringT@DV?$StrTraitMFC_DLL@DV?$ChTraitsCRT@D@ATL@@@@@ATL@@QAEAAV01@ABV01@@Z
?SetTitle@CSubGraphDataBase@@QAEXABV?$CStringT@DV?$StrTraitMFC_DLL@DV?$ChTraitsCRT@D@ATL@@@@@ATL@@@Z ENDP ; CSubGraphDataBase::SetTitle
_TEXT	ENDS
; Function compile flags: /Ogtp
; File D:\git\src\IBK\IBK_DRFN\ProjSrc\SrcChartEx\ChartOCX\IndicatorCondition\GraphData.cpp
;	COMDAT ?SetName@CSubGraphDataBase@@QAEXABV?$CStringT@DV?$StrTraitMFC_DLL@DV?$ChTraitsCRT@D@ATL@@@@@ATL@@@Z
_TEXT	SEGMENT
_name$ = 8						; size = 4
?SetName@CSubGraphDataBase@@QAEXABV?$CStringT@DV?$StrTraitMFC_DLL@DV?$ChTraitsCRT@D@ATL@@@@@ATL@@@Z PROC ; CSubGraphDataBase::SetName, COMDAT
; _this$ = ecx

; 1135 : {

  00000	55		 push	 ebp
  00001	8b ec		 mov	 ebp, esp

; 1136 : 	m_strName = name;

  00003	83 c1 1c	 add	 ecx, 28			; 0000001cH

; 1137 : }

  00006	5d		 pop	 ebp

; 1136 : 	m_strName = name;

  00007	ff 25 00 00 00
	00		 jmp	 DWORD PTR __imp_??4?$CStringT@DV?$StrTraitMFC_DLL@DV?$ChTraitsCRT@D@ATL@@@@@ATL@@QAEAAV01@ABV01@@Z
?SetName@CSubGraphDataBase@@QAEXABV?$CStringT@DV?$StrTraitMFC_DLL@DV?$ChTraitsCRT@D@ATL@@@@@ATL@@@Z ENDP ; CSubGraphDataBase::SetName
_TEXT	ENDS
; Function compile flags: /Ogtp
; File D:\git\src\IBK\IBK_DRFN\ProjSrc\SrcChartEx\ChartOCX\IndicatorCondition\GraphData.cpp
;	COMDAT ?SetDrawStyle@CSubGraphDataBase@@QAEXABVCGraphDrawStyle@@@Z
_TEXT	SEGMENT
_drawStyle$ = 8						; size = 4
?SetDrawStyle@CSubGraphDataBase@@QAEXABVCGraphDrawStyle@@@Z PROC ; CSubGraphDataBase::SetDrawStyle, COMDAT
; _this$ = ecx

; 1130 : {

  00000	55		 push	 ebp
  00001	8b ec		 mov	 ebp, esp

; 1131 : 	m_nDrawStyle = drawStyle;

  00003	8b 45 08	 mov	 eax, DWORD PTR _drawStyle$[ebp]
  00006	8b 00		 mov	 eax, DWORD PTR [eax]
  00008	89 41 10	 mov	 DWORD PTR [ecx+16], eax

; 1132 : }

  0000b	5d		 pop	 ebp
  0000c	c2 04 00	 ret	 4
?SetDrawStyle@CSubGraphDataBase@@QAEXABVCGraphDrawStyle@@@Z ENDP ; CSubGraphDataBase::SetDrawStyle
_TEXT	ENDS
; Function compile flags: /Ogtp
; File D:\git\src\IBK\IBK_DRFN\ProjSrc\SrcChartEx\ChartOCX\IndicatorCondition\GraphData.cpp
;	COMDAT ?SetStyle@CSubGraphDataBase@@QAEXABVCGraphStyle@@@Z
_TEXT	SEGMENT
_style$ = 8						; size = 4
?SetStyle@CSubGraphDataBase@@QAEXABVCGraphStyle@@@Z PROC ; CSubGraphDataBase::SetStyle, COMDAT
; _this$ = ecx

; 1125 : {

  00000	55		 push	 ebp
  00001	8b ec		 mov	 ebp, esp

; 1126 : 	m_nStyle = style;

  00003	8b 45 08	 mov	 eax, DWORD PTR _style$[ebp]
  00006	8b 00		 mov	 eax, DWORD PTR [eax]
  00008	89 41 0c	 mov	 DWORD PTR [ecx+12], eax

; 1127 : }

  0000b	5d		 pop	 ebp
  0000c	c2 04 00	 ret	 4
?SetStyle@CSubGraphDataBase@@QAEXABVCGraphStyle@@@Z ENDP ; CSubGraphDataBase::SetStyle
_TEXT	ENDS
; Function compile flags: /Ogtp
; File D:\git\src\IBK\IBK_DRFN\ProjSrc\SrcChartEx\ChartOCX\IndicatorCondition\GraphData.cpp
;	COMDAT ?SetType@CSubGraphDataBase@@QAEXW4GRAPHTYPE@CGraphBaseData@@@Z
_TEXT	SEGMENT
_type$ = 8						; size = 4
?SetType@CSubGraphDataBase@@QAEXW4GRAPHTYPE@CGraphBaseData@@@Z PROC ; CSubGraphDataBase::SetType, COMDAT
; _this$ = ecx

; 1120 : {

  00000	55		 push	 ebp
  00001	8b ec		 mov	 ebp, esp

; 1121 : 	m_TYPEType = type;

  00003	8b 45 08	 mov	 eax, DWORD PTR _type$[ebp]
  00006	89 41 08	 mov	 DWORD PTR [ecx+8], eax

; 1122 : }

  00009	5d		 pop	 ebp
  0000a	c2 04 00	 ret	 4
?SetType@CSubGraphDataBase@@QAEXW4GRAPHTYPE@CGraphBaseData@@@Z ENDP ; CSubGraphDataBase::SetType
_TEXT	ENDS
; Function compile flags: /Ogtp
; File D:\git\src\IBK\IBK_DRFN\ProjSrc\SrcChartEx\ChartOCX\IndicatorCondition\GraphData.cpp
; File C:\Program Files (x86)\Windows Kits\10\Include\10.0.22000.0\ucrt\string.h
; File D:\git\src\IBK\IBK_DRFN\ProjSrc\SrcChartEx\ChartOCX\IndicatorCondition\GraphData.cpp
; File C:\Program Files (x86)\Windows Kits\10\Include\10.0.22000.0\ucrt\string.h
; File D:\git\src\IBK\IBK_DRFN\ProjSrc\SrcChartEx\ChartOCX\IndicatorCondition\GraphData.cpp
; File C:\Program Files (x86)\Windows Kits\10\Include\10.0.22000.0\ucrt\string.h
; File D:\git\src\IBK\IBK_DRFN\ProjSrc\SrcChartEx\ChartOCX\IndicatorCondition\GraphData.cpp
; File C:\Program Files (x86)\Windows Kits\10\Include\10.0.22000.0\ucrt\string.h
; File D:\git\src\IBK\IBK_DRFN\ProjSrc\SrcChartEx\ChartOCX\IndicatorCondition\GraphData.cpp
; File C:\Program Files (x86)\Windows Kits\10\Include\10.0.22000.0\ucrt\string.h
; File D:\git\src\IBK\IBK_DRFN\ProjSrc\SrcChartEx\ChartOCX\IndicatorCondition\GraphData.cpp
; File C:\Program Files (x86)\Windows Kits\10\Include\10.0.22000.0\ucrt\string.h
; File D:\git\src\IBK\IBK_DRFN\ProjSrc\SrcChartEx\ChartOCX\IndicatorCondition\GraphData.cpp
; File C:\Program Files (x86)\Windows Kits\10\Include\10.0.22000.0\ucrt\string.h
; File D:\git\src\IBK\IBK_DRFN\ProjSrc\SrcChartEx\ChartOCX\IndicatorCondition\GraphData.cpp
; File C:\Program Files (x86)\Windows Kits\10\Include\10.0.22000.0\ucrt\string.h
; File D:\git\src\IBK\IBK_DRFN\ProjSrc\SrcChartEx\ChartOCX\IndicatorCondition\GraphData.cpp
; File C:\Program Files (x86)\Windows Kits\10\Include\10.0.22000.0\ucrt\string.h
; File D:\git\src\IBK\IBK_DRFN\ProjSrc\SrcChartEx\ChartOCX\IndicatorCondition\GraphData.cpp
; File C:\Program Files (x86)\Windows Kits\10\Include\10.0.22000.0\ucrt\string.h
; File D:\git\src\IBK\IBK_DRFN\ProjSrc\SrcChartEx\ChartOCX\IndicatorCondition\GraphData.cpp
; File C:\Program Files (x86)\Windows Kits\10\Include\10.0.22000.0\ucrt\string.h
; File D:\git\src\IBK\IBK_DRFN\ProjSrc\SrcChartEx\ChartOCX\IndicatorCondition\GraphData.cpp
; File C:\Program Files (x86)\Windows Kits\10\Include\10.0.22000.0\ucrt\string.h
; File D:\git\src\IBK\IBK_DRFN\ProjSrc\SrcChartEx\ChartOCX\IndicatorCondition\GraphData.cpp
; File C:\Program Files (x86)\Windows Kits\10\Include\10.0.22000.0\ucrt\string.h
; File D:\git\src\IBK\IBK_DRFN\ProjSrc\SrcChartEx\ChartOCX\IndicatorCondition\GraphData.cpp
; File C:\Program Files (x86)\Windows Kits\10\Include\10.0.22000.0\ucrt\string.h
; File D:\git\src\IBK\IBK_DRFN\ProjSrc\SrcChartEx\ChartOCX\IndicatorCondition\GraphData.cpp
; File C:\Program Files (x86)\Windows Kits\10\Include\10.0.22000.0\ucrt\string.h
; File D:\git\src\IBK\IBK_DRFN\ProjSrc\SrcChartEx\ChartOCX\IndicatorCondition\GraphData.cpp
; File C:\Program Files (x86)\Windows Kits\10\Include\10.0.22000.0\ucrt\string.h
; File D:\git\src\IBK\IBK_DRFN\ProjSrc\SrcChartEx\ChartOCX\IndicatorCondition\GraphData.cpp
; File C:\Program Files (x86)\Windows Kits\10\Include\10.0.22000.0\ucrt\string.h
; File D:\git\src\IBK\IBK_DRFN\ProjSrc\SrcChartEx\ChartOCX\IndicatorCondition\GraphData.cpp
; File C:\Program Files (x86)\Windows Kits\10\Include\10.0.22000.0\ucrt\string.h
; File D:\git\src\IBK\IBK_DRFN\ProjSrc\SrcChartEx\ChartOCX\IndicatorCondition\GraphData.cpp
; File C:\Program Files (x86)\Windows Kits\10\Include\10.0.22000.0\ucrt\string.h
; File D:\git\src\IBK\IBK_DRFN\ProjSrc\SrcChartEx\ChartOCX\IndicatorCondition\GraphData.cpp
;	COMDAT ?SetData@CSubGraphDataBase@@QAEXPBDPAUHWND__@@0@Z
_TEXT	SEGMENT
_this$1$ = -24						; size = 4
_strSubGraphData$ = -20					; size = 4
tv628 = -16						; size = 4
__$EHRec$ = -12						; size = 12
_szItem$9$ = 8						; size = 4
_szItem$4$ = 8						; size = 4
$T2 = 8							; size = 4
_p_szSubGraphData$ = 8					; size = 4
_p_hOcxWnd$ = 12					; size = 4
_p_szIndicatorName$ = 16				; size = 4
?SetData@CSubGraphDataBase@@QAEXPBDPAUHWND__@@0@Z PROC	; CSubGraphDataBase::SetData, COMDAT
; _this$ = ecx

; 997  : {

  00000	55		 push	 ebp
  00001	8b ec		 mov	 ebp, esp
  00003	6a ff		 push	 -1
  00005	68 00 00 00 00	 push	 __ehhandler$?SetData@CSubGraphDataBase@@QAEXPBDPAUHWND__@@0@Z
  0000a	64 a1 00 00 00
	00		 mov	 eax, DWORD PTR fs:0
  00010	50		 push	 eax
  00011	83 ec 0c	 sub	 esp, 12			; 0000000cH
  00014	53		 push	 ebx
  00015	56		 push	 esi
  00016	57		 push	 edi
  00017	a1 00 00 00 00	 mov	 eax, DWORD PTR ___security_cookie
  0001c	33 c5		 xor	 eax, ebp
  0001e	50		 push	 eax
  0001f	8d 45 f4	 lea	 eax, DWORD PTR __$EHRec$[ebp]
  00022	64 a3 00 00 00
	00		 mov	 DWORD PTR fs:0, eax
  00028	8b d9		 mov	 ebx, ecx
  0002a	89 5d e8	 mov	 DWORD PTR _this$1$[ebp], ebx

; 998  : 	m_TYPEType					= CGraphBaseData::GTNONE;
; 999  : 	m_nStyle.SetGraphStyle(		0);
; 1000 : 	m_nDrawStyle.SetDrawStyle(	0);
; 1001 : 	m_strName.Empty();

  0002d	8d 4b 1c	 lea	 ecx, DWORD PTR [ebx+28]
  00030	c7 43 08 ff ff
	ff ff		 mov	 DWORD PTR [ebx+8], -1
  00037	c7 43 0c 00 00
	00 00		 mov	 DWORD PTR [ebx+12], 0
  0003e	c7 43 10 00 00
	00 00		 mov	 DWORD PTR [ebx+16], 0
  00045	ff 15 00 00 00
	00		 call	 DWORD PTR __imp_?Empty@?$CSimpleStringT@D$00@ATL@@QAEXXZ

; 1002 : 	m_strTitle.Empty();

  0004b	8d 43 20	 lea	 eax, DWORD PTR [ebx+32]
  0004e	8b c8		 mov	 ecx, eax
  00050	89 45 f0	 mov	 DWORD PTR tv628[ebp], eax
  00053	ff 15 00 00 00
	00		 call	 DWORD PTR __imp_?Empty@?$CSimpleStringT@D$00@ATL@@QAEXXZ

; 1003 : 	m_bHiding					= false;
; 1004 : 	m_clrColor.SetData(			NULL);

  00059	6a 01		 push	 1
  0005b	8d 4b 28	 lea	 ecx, DWORD PTR [ebx+40]
  0005e	c6 43 24 00	 mov	 BYTE PTR [ebx+36], 0
  00062	6a 00		 push	 0
  00064	e8 00 00 00 00	 call	 ?SetData@CGraphColor@@QAEXPBDH@Z ; CGraphColor::SetData

; 1010 : 
; 1011 : 	if( !p_szSubGraphData) return;

  00069	8b 75 08	 mov	 esi, DWORD PTR _p_szSubGraphData$[ebp]

; 87   : 	m_nThickness1	= 1;

  0006c	c7 43 58 01 00
	00 00		 mov	 DWORD PTR [ebx+88], 1

; 88   : 	m_nThickness2	= 1;

  00073	c7 43 5c 01 00
	00 00		 mov	 DWORD PTR [ebx+92], 1

; 89   : 	m_nThickness3	= 1;

  0007a	c7 43 60 01 00
	00 00		 mov	 DWORD PTR [ebx+96], 1

; 90   : 	m_bIsHightlight	= false;

  00081	c6 43 54 00	 mov	 BYTE PTR [ebx+84], 0

; 91   : 	//  ,   - ojtaso (20071213)
; 92   : 	m_nBaseLineThickness = 1;

  00085	c7 43 64 01 00
	00 00		 mov	 DWORD PTR [ebx+100], 1

; 1005 : 	m_penThickness.SetData(		NULL);
; 1006 : 	// Singbar Graph    - ojtaso (20071121)
; 1007 : 	m_nPaintStyle.SetPaintStyle(1);

  0008c	c7 43 14 01 00
	00 00		 mov	 DWORD PTR [ebx+20], 1

; 1008 : 	//  ,   - ojtaso (20071213)
; 1009 : 	m_nBaseLineStyle.SetBaseLineStyle(0);

  00093	c7 43 18 00 00
	00 00		 mov	 DWORD PTR [ebx+24], 0

; 1010 : 
; 1011 : 	if( !p_szSubGraphData) return;

  0009a	85 f6		 test	 esi, esi
  0009c	0f 84 bf 02 00
	00		 je	 $LN1@SetData

; 1012 : 	if( !*p_szSubGraphData) return;

  000a2	80 3e 00	 cmp	 BYTE PTR [esi], 0
  000a5	0f 84 b6 02 00
	00		 je	 $LN1@SetData

; 1013 : 
; 1014 : 	// ";;;;title;;1;2;3;4;5;6;
; 1015 : 	//  ;;1;2;3;;\r\n"
; 1016 : 	CString strSubGraphData;

  000ab	8d 4d ec	 lea	 ecx, DWORD PTR _strSubGraphData$[ebp]
  000ae	ff 15 00 00 00
	00		 call	 DWORD PTR __imp_??0?$CStringT@DV?$StrTraitMFC_DLL@DV?$ChTraitsCRT@D@ATL@@@@@ATL@@QAE@XZ

; 1017 : 	int nSubGraphDataLen = strlen( p_szSubGraphData);

  000b4	8b ce		 mov	 ecx, esi
  000b6	c7 45 fc 01 00
	00 00		 mov	 DWORD PTR __$EHRec$[ebp+8], 1
  000bd	8d 51 01	 lea	 edx, DWORD PTR [ecx+1]
$LL135@SetData:
  000c0	8a 01		 mov	 al, BYTE PTR [ecx]
  000c2	41		 inc	 ecx
  000c3	84 c0		 test	 al, al
  000c5	75 f9		 jne	 SHORT $LL135@SetData
  000c7	2b ca		 sub	 ecx, edx

; 1018 : 	char *szSubGraphData = strSubGraphData.GetBufferSetLength( nSubGraphDataLen);

  000c9	51		 push	 ecx
  000ca	8d 4d ec	 lea	 ecx, DWORD PTR _strSubGraphData$[ebp]
  000cd	ff 15 00 00 00
	00		 call	 DWORD PTR __imp_?GetBufferSetLength@?$CSimpleStringT@D$00@ATL@@QAEPADH@Z
  000d3	8b f8		 mov	 edi, eax
  000d5	8b d7		 mov	 edx, edi
  000d7	2b d6		 sub	 edx, esi
  000d9	0f 1f 80 00 00
	00 00		 npad	 7
$LL45@SetData:

; 1019 : 	strcpy( szSubGraphData, p_szSubGraphData);

  000e0	8a 0e		 mov	 cl, BYTE PTR [esi]
  000e2	8d 76 01	 lea	 esi, DWORD PTR [esi+1]
  000e5	88 4c 32 ff	 mov	 BYTE PTR [edx+esi-1], cl
  000e9	84 c9		 test	 cl, cl
  000eb	75 f3		 jne	 SHORT $LL45@SetData
; File C:\Program Files (x86)\Windows Kits\10\Include\10.0.22000.0\ucrt\string.h

; 502  :         return const_cast<char*>(strchr(static_cast<char const*>(_String), _Ch));

  000ed	6a 3b		 push	 59			; 0000003bH
  000ef	57		 push	 edi
  000f0	e8 00 00 00 00	 call	 _strchr
; File D:\git\src\IBK\IBK_DRFN\ProjSrc\SrcChartEx\ChartOCX\IndicatorCondition\GraphData.cpp

; 1022 : 	szSubGraphData = strchr( szSubGraphData, ';');

  000f5	8b f0		 mov	 esi, eax
; File C:\Program Files (x86)\Windows Kits\10\Include\10.0.22000.0\ucrt\string.h

; 502  :         return const_cast<char*>(strchr(static_cast<char const*>(_String), _Ch));

  000f7	83 c4 08	 add	 esp, 8
; File D:\git\src\IBK\IBK_DRFN\ProjSrc\SrcChartEx\ChartOCX\IndicatorCondition\GraphData.cpp

; 1023 : 	if( szSubGraphData) *szSubGraphData++ = '\0';

  000fa	85 f6		 test	 esi, esi
  000fc	74 04		 je	 SHORT $LN10@SetData
  000fe	c6 06 00	 mov	 BYTE PTR [esi], 0
  00101	46		 inc	 esi
$LN10@SetData:

; 1024 : 	m_TYPEType = ( CGraphBaseData::GRAPHTYPE)atoi( szItem);

  00102	57		 push	 edi
  00103	ff 15 00 00 00
	00		 call	 DWORD PTR __imp__atoi
  00109	83 c4 04	 add	 esp, 4
  0010c	89 43 08	 mov	 DWORD PTR [ebx+8], eax

; 1025 : 	if( !szSubGraphData) return;

  0010f	85 f6		 test	 esi, esi
  00111	0f 84 41 02 00
	00		 je	 $LN65@SetData

; 1026 : 	if( !*szSubGraphData) return;

  00117	80 3e 00	 cmp	 BYTE PTR [esi], 0
  0011a	0f 84 38 02 00
	00		 je	 $LN65@SetData
; File C:\Program Files (x86)\Windows Kits\10\Include\10.0.22000.0\ucrt\string.h

; 502  :         return const_cast<char*>(strchr(static_cast<char const*>(_String), _Ch));

  00120	6a 3b		 push	 59			; 0000003bH
  00122	56		 push	 esi
  00123	e8 00 00 00 00	 call	 _strchr
; File D:\git\src\IBK\IBK_DRFN\ProjSrc\SrcChartEx\ChartOCX\IndicatorCondition\GraphData.cpp

; 1029 : 	szSubGraphData = strchr( szSubGraphData, ';');

  00128	8b f8		 mov	 edi, eax
; File C:\Program Files (x86)\Windows Kits\10\Include\10.0.22000.0\ucrt\string.h

; 502  :         return const_cast<char*>(strchr(static_cast<char const*>(_String), _Ch));

  0012a	83 c4 08	 add	 esp, 8
; File D:\git\src\IBK\IBK_DRFN\ProjSrc\SrcChartEx\ChartOCX\IndicatorCondition\GraphData.cpp

; 1030 : 	if( szSubGraphData) *szSubGraphData++ = '\0';

  0012d	85 ff		 test	 edi, edi
  0012f	74 04		 je	 SHORT $LN13@SetData
  00131	c6 07 00	 mov	 BYTE PTR [edi], 0
  00134	47		 inc	 edi
$LN13@SetData:

; 1031 : 	m_nStyle = ( CGraphStyle)atoi( szItem);

  00135	56		 push	 esi
  00136	ff 15 00 00 00
	00		 call	 DWORD PTR __imp__atoi
  0013c	83 c4 04	 add	 esp, 4
  0013f	89 43 0c	 mov	 DWORD PTR [ebx+12], eax

; 1032 : 	if( !szSubGraphData) return;

  00142	85 ff		 test	 edi, edi
  00144	0f 84 0e 02 00
	00		 je	 $LN65@SetData

; 1033 : 	if( !*szSubGraphData) return;

  0014a	80 3f 00	 cmp	 BYTE PTR [edi], 0
  0014d	0f 84 05 02 00
	00		 je	 $LN65@SetData
; File C:\Program Files (x86)\Windows Kits\10\Include\10.0.22000.0\ucrt\string.h

; 502  :         return const_cast<char*>(strchr(static_cast<char const*>(_String), _Ch));

  00153	6a 3b		 push	 59			; 0000003bH
  00155	57		 push	 edi
  00156	e8 00 00 00 00	 call	 _strchr
; File D:\git\src\IBK\IBK_DRFN\ProjSrc\SrcChartEx\ChartOCX\IndicatorCondition\GraphData.cpp

; 1036 : 	szSubGraphData = strchr( szSubGraphData, ';');

  0015b	8b f0		 mov	 esi, eax
  0015d	89 45 08	 mov	 DWORD PTR _szItem$4$[ebp], eax
; File C:\Program Files (x86)\Windows Kits\10\Include\10.0.22000.0\ucrt\string.h

; 502  :         return const_cast<char*>(strchr(static_cast<char const*>(_String), _Ch));

  00160	83 c4 08	 add	 esp, 8
; File D:\git\src\IBK\IBK_DRFN\ProjSrc\SrcChartEx\ChartOCX\IndicatorCondition\GraphData.cpp

; 1037 : 	if( szSubGraphData) *szSubGraphData++ = '\0';

  00163	85 f6		 test	 esi, esi
  00165	74 07		 je	 SHORT $LN16@SetData
  00167	c6 06 00	 mov	 BYTE PTR [esi], 0
  0016a	46		 inc	 esi
  0016b	89 75 08	 mov	 DWORD PTR _szItem$4$[ebp], esi
$LN16@SetData:

; 1038 : 	m_nDrawStyle = ( CGraphDrawStyle)atoi( szItem);

  0016e	57		 push	 edi
  0016f	ff 15 00 00 00
	00		 call	 DWORD PTR __imp__atoi
  00175	83 c4 04	 add	 esp, 4
  00178	89 43 10	 mov	 DWORD PTR [ebx+16], eax

; 1039 : 	if( !szSubGraphData) return;

  0017b	85 f6		 test	 esi, esi
  0017d	0f 84 d5 01 00
	00		 je	 $LN65@SetData

; 1040 : 	if( !*szSubGraphData) return;

  00183	80 3e 00	 cmp	 BYTE PTR [esi], 0
  00186	0f 84 cc 01 00
	00		 je	 $LN65@SetData

; 1041 : 
; 1042 : 	if( m_TYPEType == CGraphBaseData::Bong_Type && m_nStyle.GetGraphStyle() != m_nDrawStyle.GetDrawStyle())

  0018c	83 7b 08 00	 cmp	 DWORD PTR [ebx+8], 0
  00190	75 0a		 jne	 SHORT $LN19@SetData
  00192	8b 4b 0c	 mov	 ecx, DWORD PTR [ebx+12]
  00195	3b c8		 cmp	 ecx, eax
  00197	74 03		 je	 SHORT $LN19@SetData

; 1043 : 		m_nDrawStyle.SetDrawStyle( m_nStyle.GetGraphStyle());

  00199	89 4b 10	 mov	 DWORD PTR [ebx+16], ecx
$LN19@SetData:
; File C:\Program Files (x86)\Windows Kits\10\Include\10.0.22000.0\ucrt\string.h

; 502  :         return const_cast<char*>(strchr(static_cast<char const*>(_String), _Ch));

  0019c	6a 3b		 push	 59			; 0000003bH
  0019e	56		 push	 esi
  0019f	e8 00 00 00 00	 call	 _strchr
; File D:\git\src\IBK\IBK_DRFN\ProjSrc\SrcChartEx\ChartOCX\IndicatorCondition\GraphData.cpp

; 1046 : 	szSubGraphData = strchr( szSubGraphData, ';');

  001a4	8b f0		 mov	 esi, eax
; File C:\Program Files (x86)\Windows Kits\10\Include\10.0.22000.0\ucrt\string.h

; 502  :         return const_cast<char*>(strchr(static_cast<char const*>(_String), _Ch));

  001a6	83 c4 08	 add	 esp, 8
; File D:\git\src\IBK\IBK_DRFN\ProjSrc\SrcChartEx\ChartOCX\IndicatorCondition\GraphData.cpp

; 1047 : 	if( szSubGraphData) *szSubGraphData++ = '\0';

  001a9	85 f6		 test	 esi, esi
  001ab	74 04		 je	 SHORT $LN20@SetData
  001ad	c6 06 00	 mov	 BYTE PTR [esi], 0
  001b0	46		 inc	 esi
$LN20@SetData:

; 1048 : 	m_strName = _MTOM3( szItem);

  001b1	6a 00		 push	 0
  001b3	ff 75 08	 push	 DWORD PTR _szItem$4$[ebp]
  001b6	b9 00 00 00 00	 mov	 ecx, OFFSET ?g_iMetaTable@@3VIMetaTable@@A ; g_iMetaTable
  001bb	6a 03		 push	 3
  001bd	6a 00		 push	 0
  001bf	e8 00 00 00 00	 call	 ?GetMetaTextFromOther@IMetaTable@@QAEPBDPAUHWND__@@W4E_CODEPAGE@1@PBDH@Z ; IMetaTable::GetMetaTextFromOther
  001c4	50		 push	 eax
  001c5	8d 4b 1c	 lea	 ecx, DWORD PTR [ebx+28]
  001c8	ff 15 00 00 00
	00		 call	 DWORD PTR __imp_??4?$CStringT@DV?$StrTraitMFC_DLL@DV?$ChTraitsCRT@D@ATL@@@@@ATL@@QAEAAV01@PBD@Z

; 1049 : 	if( !szSubGraphData) return;

  001ce	85 f6		 test	 esi, esi
  001d0	0f 84 82 01 00
	00		 je	 $LN65@SetData

; 1050 : 	if( !*szSubGraphData) return;

  001d6	80 3e 00	 cmp	 BYTE PTR [esi], 0
  001d9	0f 84 79 01 00
	00		 je	 $LN65@SetData
; File C:\Program Files (x86)\Windows Kits\10\Include\10.0.22000.0\ucrt\string.h

; 502  :         return const_cast<char*>(strchr(static_cast<char const*>(_String), _Ch));

  001df	6a 3b		 push	 59			; 0000003bH
  001e1	56		 push	 esi
  001e2	e8 00 00 00 00	 call	 _strchr
; File D:\git\src\IBK\IBK_DRFN\ProjSrc\SrcChartEx\ChartOCX\IndicatorCondition\GraphData.cpp

; 1053 : 	szSubGraphData = strchr( szSubGraphData, ';');

  001e7	8b f8		 mov	 edi, eax
; File C:\Program Files (x86)\Windows Kits\10\Include\10.0.22000.0\ucrt\string.h

; 502  :         return const_cast<char*>(strchr(static_cast<char const*>(_String), _Ch));

  001e9	83 c4 08	 add	 esp, 8
; File D:\git\src\IBK\IBK_DRFN\ProjSrc\SrcChartEx\ChartOCX\IndicatorCondition\GraphData.cpp

; 1054 : 	if( szSubGraphData) *szSubGraphData++ = '\0';

  001ec	85 ff		 test	 edi, edi
  001ee	74 04		 je	 SHORT $LN23@SetData
  001f0	c6 07 00	 mov	 BYTE PTR [edi], 0
  001f3	47		 inc	 edi
$LN23@SetData:

; 1055 : 	if( g_iMetaTable.IsTitleIncludeCondition( p_szIndicatorName)) m_strTitle = szItem;

  001f4	ff 75 10	 push	 DWORD PTR _p_szIndicatorName$[ebp]
  001f7	8d 4d 08	 lea	 ecx, DWORD PTR $T2[ebp]
  001fa	ff 15 00 00 00
	00		 call	 DWORD PTR __imp_??0?$CStringT@DV?$StrTraitMFC_DLL@DV?$ChTraitsCRT@D@ATL@@@@@ATL@@QAE@PBD@Z
  00200	8d 45 08	 lea	 eax, DWORD PTR $T2[ebp]
  00203	c6 45 fc 02	 mov	 BYTE PTR __$EHRec$[ebp+8], 2
  00207	50		 push	 eax
  00208	b9 00 00 00 00	 mov	 ecx, OFFSET ?g_iMetaTable@@3VIMetaTable@@A ; g_iMetaTable
  0020d	e8 00 00 00 00	 call	 ?IsTitleIncludeCondition@IMetaTable@@QAE_NABV?$CStringT@DV?$StrTraitMFC_DLL@DV?$ChTraitsCRT@D@ATL@@@@@ATL@@@Z ; IMetaTable::IsTitleIncludeCondition
  00212	8d 4d 08	 lea	 ecx, DWORD PTR $T2[ebp]
  00215	c6 45 fc 01	 mov	 BYTE PTR __$EHRec$[ebp+8], 1
  00219	8a d8		 mov	 bl, al
  0021b	ff 15 00 00 00
	00		 call	 DWORD PTR __imp_??1?$CStringT@DV?$StrTraitMFC_DLL@DV?$ChTraitsCRT@D@ATL@@@@@ATL@@QAE@XZ
  00221	84 db		 test	 bl, bl
  00223	74 03		 je	 SHORT $LN24@SetData
  00225	56		 push	 esi
  00226	eb 13		 jmp	 SHORT $LN137@SetData
$LN24@SetData:

; 1056 : 	else
; 1057 : 	{
; 1058 : 		_MHWND( p_hOcxWnd);
; 1059 : 		m_strTitle = _STOM1( szItem);

  00228	6a 00		 push	 0
  0022a	56		 push	 esi
  0022b	6a 01		 push	 1
  0022d	ff 75 0c	 push	 DWORD PTR _p_hOcxWnd$[ebp]
  00230	b9 00 00 00 00	 mov	 ecx, OFFSET ?g_iMetaTable@@3VIMetaTable@@A ; g_iMetaTable
  00235	e8 00 00 00 00	 call	 ?GetMetaTextForScript@IMetaTable@@QAEPBDPAUHWND__@@W4E_CODEPAGE@1@PBDH@Z ; IMetaTable::GetMetaTextForScript
  0023a	50		 push	 eax
$LN137@SetData:

; 1060 : 	}
; 1061 : 	if( !szSubGraphData) return;

  0023b	8b 4d f0	 mov	 ecx, DWORD PTR tv628[ebp]
  0023e	ff 15 00 00 00
	00		 call	 DWORD PTR __imp_??4?$CStringT@DV?$StrTraitMFC_DLL@DV?$ChTraitsCRT@D@ATL@@@@@ATL@@QAEAAV01@PBD@Z
  00244	85 ff		 test	 edi, edi
  00246	0f 84 0c 01 00
	00		 je	 $LN65@SetData

; 1062 : 	if( !*szSubGraphData) return;

  0024c	80 3f 00	 cmp	 BYTE PTR [edi], 0
  0024f	0f 84 03 01 00
	00		 je	 $LN65@SetData
; File C:\Program Files (x86)\Windows Kits\10\Include\10.0.22000.0\ucrt\string.h

; 502  :         return const_cast<char*>(strchr(static_cast<char const*>(_String), _Ch));

  00255	6a 3b		 push	 59			; 0000003bH
  00257	57		 push	 edi
  00258	e8 00 00 00 00	 call	 _strchr
; File D:\git\src\IBK\IBK_DRFN\ProjSrc\SrcChartEx\ChartOCX\IndicatorCondition\GraphData.cpp

; 1065 : 	szSubGraphData = strchr( szSubGraphData, ';');

  0025d	8b f0		 mov	 esi, eax
; File C:\Program Files (x86)\Windows Kits\10\Include\10.0.22000.0\ucrt\string.h

; 502  :         return const_cast<char*>(strchr(static_cast<char const*>(_String), _Ch));

  0025f	83 c4 08	 add	 esp, 8
; File D:\git\src\IBK\IBK_DRFN\ProjSrc\SrcChartEx\ChartOCX\IndicatorCondition\GraphData.cpp

; 1066 : 	if( szSubGraphData) *szSubGraphData++ = '\0';

  00262	85 f6		 test	 esi, esi
  00264	74 04		 je	 SHORT $LN28@SetData
  00266	c6 06 00	 mov	 BYTE PTR [esi], 0
  00269	46		 inc	 esi
$LN28@SetData:

; 1067 : 	m_bHiding = ( atoi( szItem) != 0);

  0026a	57		 push	 edi
  0026b	ff 15 00 00 00
	00		 call	 DWORD PTR __imp__atoi
  00271	8b 5d e8	 mov	 ebx, DWORD PTR _this$1$[ebp]
  00274	83 c4 04	 add	 esp, 4
  00277	85 c0		 test	 eax, eax
  00279	0f 95 c0	 setne	 al
  0027c	88 43 24	 mov	 BYTE PTR [ebx+36], al

; 1068 : 	if( !szSubGraphData) return;

  0027f	85 f6		 test	 esi, esi
  00281	0f 84 d1 00 00
	00		 je	 $LN65@SetData

; 1069 : 	if( !*szSubGraphData) return;

  00287	80 3e 00	 cmp	 BYTE PTR [esi], 0
  0028a	0f 84 c8 00 00
	00		 je	 $LN65@SetData

; 1070 : 
; 1071 : 	szItem = szSubGraphData;

  00290	89 75 08	 mov	 DWORD PTR _szItem$9$[ebp], esi

; 1072 : 	int i = 0;

  00293	33 ff		 xor	 edi, edi
$LL4@SetData:
; File C:\Program Files (x86)\Windows Kits\10\Include\10.0.22000.0\ucrt\string.h

; 502  :         return const_cast<char*>(strchr(static_cast<char const*>(_String), _Ch));

  00295	6a 3b		 push	 59			; 0000003bH
  00297	56		 push	 esi
  00298	e8 00 00 00 00	 call	 _strchr
; File D:\git\src\IBK\IBK_DRFN\ProjSrc\SrcChartEx\ChartOCX\IndicatorCondition\GraphData.cpp

; 1075 : 		szSubGraphData = strchr( szSubGraphData, ';');

  0029d	8b f0		 mov	 esi, eax
; File C:\Program Files (x86)\Windows Kits\10\Include\10.0.22000.0\ucrt\string.h

; 502  :         return const_cast<char*>(strchr(static_cast<char const*>(_String), _Ch));

  0029f	83 c4 08	 add	 esp, 8
; File D:\git\src\IBK\IBK_DRFN\ProjSrc\SrcChartEx\ChartOCX\IndicatorCondition\GraphData.cpp

; 1076 : 		if( !szSubGraphData) continue;

  002a2	85 f6		 test	 esi, esi
  002a4	0f 84 a1 00 00
	00		 je	 $LN33@SetData

; 1077 : 		i++;

  002aa	47		 inc	 edi

; 1078 : 		szSubGraphData++;

  002ab	83 c6 01	 add	 esi, 1

; 1079 : 	//} while( szSubGraphData && i < 8);
; 1080 : 	} while( szSubGraphData && i < 14);		//@Solomon-091222

  002ae	0f 84 97 00 00
	00		 je	 $LN33@SetData
  002b4	83 ff 0e	 cmp	 edi, 14			; 0000000eH
  002b7	7c dc		 jl	 SHORT $LL4@SetData

; 1081 : 	if( szSubGraphData) *( szSubGraphData - 1) = '\0';

  002b9	6a 01		 push	 1
  002bb	ff 75 08	 push	 DWORD PTR _szItem$9$[ebp]
  002be	8d 4b 28	 lea	 ecx, DWORD PTR [ebx+40]
  002c1	c6 46 ff 00	 mov	 BYTE PTR [esi-1], 0
  002c5	e8 00 00 00 00	 call	 ?SetData@CGraphColor@@QAEXPBDH@Z ; CGraphColor::SetData

; 1083 : 	if( !szSubGraphData) return;
; 1084 : 	if( !*szSubGraphData) return;

  002ca	80 3e 00	 cmp	 BYTE PTR [esi], 0
  002cd	0f 84 85 00 00
	00		 je	 $LN65@SetData

; 1085 : 
; 1086 : 	szItem = szSubGraphData;
; 1087 : 	m_penThickness.SetData( szItem);

  002d3	56		 push	 esi
  002d4	8d 4b 54	 lea	 ecx, DWORD PTR [ebx+84]
  002d7	e8 00 00 00 00	 call	 ?SetData@CPenThickness@@QAEXPBD@Z ; CPenThickness::SetData

; 1088 : 
; 1089 : 	// Singbar Graph    - ojtaso (20071121)
; 1090 : 	i = 0;

  002dc	33 ff		 xor	 edi, edi
  002de	66 90		 npad	 2
$LL7@SetData:
; File C:\Program Files (x86)\Windows Kits\10\Include\10.0.22000.0\ucrt\string.h

; 502  :         return const_cast<char*>(strchr(static_cast<char const*>(_String), _Ch));

  002e0	6a 3b		 push	 59			; 0000003bH
  002e2	56		 push	 esi
  002e3	e8 00 00 00 00	 call	 _strchr
; File D:\git\src\IBK\IBK_DRFN\ProjSrc\SrcChartEx\ChartOCX\IndicatorCondition\GraphData.cpp

; 1093 : 		szSubGraphData = strchr( szSubGraphData, ';');

  002e8	8b f0		 mov	 esi, eax
; File C:\Program Files (x86)\Windows Kits\10\Include\10.0.22000.0\ucrt\string.h

; 502  :         return const_cast<char*>(strchr(static_cast<char const*>(_String), _Ch));

  002ea	83 c4 08	 add	 esp, 8
; File D:\git\src\IBK\IBK_DRFN\ProjSrc\SrcChartEx\ChartOCX\IndicatorCondition\GraphData.cpp

; 1094 : 		if( !szSubGraphData) continue;

  002ed	85 f6		 test	 esi, esi
  002ef	74 67		 je	 SHORT $LN65@SetData

; 1095 : 		i++;

  002f1	47		 inc	 edi

; 1096 : 		szSubGraphData++;

  002f2	83 c6 01	 add	 esi, 1

; 1097 : 	//@Solomon} while( szSubGraphData && i < 5);
; 1098 : 	//@Solomon , , ,    - ojtaso (20080707)
; 1099 : 	} while( szSubGraphData && i < 14);

  002f5	74 61		 je	 SHORT $LN65@SetData
  002f7	83 ff 0e	 cmp	 edi, 14			; 0000000eH
  002fa	7c e4		 jl	 SHORT $LL7@SetData

; 1100 : 
; 1101 : 	if( !szSubGraphData) return;
; 1102 : 	if( !*szSubGraphData) return;

  002fc	80 3e 00	 cmp	 BYTE PTR [esi], 0
  002ff	74 57		 je	 SHORT $LN65@SetData
; File C:\Program Files (x86)\Windows Kits\10\Include\10.0.22000.0\ucrt\string.h

; 502  :         return const_cast<char*>(strchr(static_cast<char const*>(_String), _Ch));

  00301	6a 3b		 push	 59			; 0000003bH
  00303	56		 push	 esi
  00304	e8 00 00 00 00	 call	 _strchr
; File D:\git\src\IBK\IBK_DRFN\ProjSrc\SrcChartEx\ChartOCX\IndicatorCondition\GraphData.cpp

; 1105 : 	szSubGraphData = strchr( szSubGraphData, ';');

  00309	8b f8		 mov	 edi, eax
; File C:\Program Files (x86)\Windows Kits\10\Include\10.0.22000.0\ucrt\string.h

; 502  :         return const_cast<char*>(strchr(static_cast<char const*>(_String), _Ch));

  0030b	83 c4 08	 add	 esp, 8
; File D:\git\src\IBK\IBK_DRFN\ProjSrc\SrcChartEx\ChartOCX\IndicatorCondition\GraphData.cpp

; 1106 : 	if( szSubGraphData) *szSubGraphData++ = '\0';

  0030e	85 ff		 test	 edi, edi
  00310	74 04		 je	 SHORT $LN40@SetData
  00312	c6 07 00	 mov	 BYTE PTR [edi], 0
  00315	47		 inc	 edi
$LN40@SetData:

; 1107 : 	m_nPaintStyle = ( CGraphPaintStyle)atoi( szItem);

  00316	56		 push	 esi
  00317	8b 35 00 00 00
	00		 mov	 esi, DWORD PTR __imp__atoi
  0031d	ff d6		 call	 esi
  0031f	83 c4 04	 add	 esp, 4
  00322	89 43 14	 mov	 DWORD PTR [ebx+20], eax

; 1108 : 
; 1109 : 	//  ,   - ojtaso (20071213)
; 1110 : 	if( !szSubGraphData) return;

  00325	85 ff		 test	 edi, edi
  00327	74 2f		 je	 SHORT $LN65@SetData

; 1111 : 	if( !*szSubGraphData) return;

  00329	80 3f 00	 cmp	 BYTE PTR [edi], 0
  0032c	74 2a		 je	 SHORT $LN65@SetData
; File C:\Program Files (x86)\Windows Kits\10\Include\10.0.22000.0\ucrt\string.h

; 502  :         return const_cast<char*>(strchr(static_cast<char const*>(_String), _Ch));

  0032e	6a 3b		 push	 59			; 0000003bH
  00330	57		 push	 edi
  00331	e8 00 00 00 00	 call	 _strchr
  00336	83 c4 08	 add	 esp, 8
; File D:\git\src\IBK\IBK_DRFN\ProjSrc\SrcChartEx\ChartOCX\IndicatorCondition\GraphData.cpp

; 1115 : 	if( szSubGraphData) *szSubGraphData++ = '\0';

  00339	85 c0		 test	 eax, eax
  0033b	74 03		 je	 SHORT $LN43@SetData
  0033d	c6 00 00	 mov	 BYTE PTR [eax], 0
$LN43@SetData:

; 1116 : 	m_nBaseLineStyle = ( CGraphBaseLineStyle)atoi( szItem);

  00340	57		 push	 edi
  00341	ff d6		 call	 esi
  00343	83 c4 04	 add	 esp, 4
  00346	89 43 18	 mov	 DWORD PTR [ebx+24], eax
  00349	eb 0d		 jmp	 SHORT $LN65@SetData
$LN33@SetData:

; 1082 : 	m_clrColor.SetData( szItem);

  0034b	6a 01		 push	 1
  0034d	ff 75 08	 push	 DWORD PTR _szItem$9$[ebp]
  00350	8d 4b 28	 lea	 ecx, DWORD PTR [ebx+40]
  00353	e8 00 00 00 00	 call	 ?SetData@CGraphColor@@QAEXPBDH@Z ; CGraphColor::SetData
$LN65@SetData:

; 1117 : }

  00358	8d 4d ec	 lea	 ecx, DWORD PTR _strSubGraphData$[ebp]
  0035b	ff 15 00 00 00
	00		 call	 DWORD PTR __imp_??1?$CStringT@DV?$StrTraitMFC_DLL@DV?$ChTraitsCRT@D@ATL@@@@@ATL@@QAE@XZ
$LN1@SetData:
  00361	8b 4d f4	 mov	 ecx, DWORD PTR __$EHRec$[ebp]
  00364	64 89 0d 00 00
	00 00		 mov	 DWORD PTR fs:0, ecx
  0036b	59		 pop	 ecx
  0036c	5f		 pop	 edi
  0036d	5e		 pop	 esi
  0036e	5b		 pop	 ebx
  0036f	8b e5		 mov	 esp, ebp
  00371	5d		 pop	 ebp
  00372	c2 0c 00	 ret	 12			; 0000000cH
_TEXT	ENDS
;	COMDAT text$x
text$x	SEGMENT
__unwindfunclet$?SetData@CSubGraphDataBase@@QAEXPBDPAUHWND__@@0@Z$0:
  00000	8d 4d ec	 lea	 ecx, DWORD PTR _strSubGraphData$[ebp]
  00003	ff 25 00 00 00
	00		 jmp	 DWORD PTR __imp_??1?$CStringT@DV?$StrTraitMFC_DLL@DV?$ChTraitsCRT@D@ATL@@@@@ATL@@QAE@XZ
__unwindfunclet$?SetData@CSubGraphDataBase@@QAEXPBDPAUHWND__@@0@Z$1:
  00009	8d 4d 08	 lea	 ecx, DWORD PTR $T2[ebp]
  0000c	ff 25 00 00 00
	00		 jmp	 DWORD PTR __imp_??1?$CStringT@DV?$StrTraitMFC_DLL@DV?$ChTraitsCRT@D@ATL@@@@@ATL@@QAE@XZ
  00012	cc		 int	 3
  00013	cc		 int	 3
  00014	cc		 int	 3
  00015	cc		 int	 3
  00016	cc		 int	 3
__ehhandler$?SetData@CSubGraphDataBase@@QAEXPBDPAUHWND__@@0@Z:
  00017	90		 npad	 1
  00018	90		 npad	 1
  00019	8b 54 24 08	 mov	 edx, DWORD PTR [esp+8]
  0001d	8d 42 0c	 lea	 eax, DWORD PTR [edx+12]
  00020	8b 4a e4	 mov	 ecx, DWORD PTR [edx-28]
  00023	33 c8		 xor	 ecx, eax
  00025	e8 00 00 00 00	 call	 @__security_check_cookie@4
  0002a	b8 00 00 00 00	 mov	 eax, OFFSET __ehfuncinfo$?SetData@CSubGraphDataBase@@QAEXPBDPAUHWND__@@0@Z
  0002f	e9 00 00 00 00	 jmp	 ___CxxFrameHandler3
text$x	ENDS
?SetData@CSubGraphDataBase@@QAEXPBDPAUHWND__@@0@Z ENDP	; CSubGraphDataBase::SetData
; Function compile flags: /Ogtp
; File D:\git\src\IBK\IBK_DRFN\ProjSrc\SrcChartEx\ChartOCX\IndicatorCondition\GraphData.cpp
;	COMDAT ?SetTitleEndPosition@CSubGraphDataBase@@QAEXHH@Z
_TEXT	SEGMENT
_nTitleEndPosition$ = 8					; size = 4
_nTitleEndLine$ = 12					; size = 4
?SetTitleEndPosition@CSubGraphDataBase@@QAEXHH@Z PROC	; CSubGraphDataBase::SetTitleEndPosition, COMDAT
; _this$ = ecx

; 991  : {

  00000	55		 push	 ebp
  00001	8b ec		 mov	 ebp, esp

; 992  : 	m_nTitleEndPosition = nTitleEndPosition;

  00003	8b 45 08	 mov	 eax, DWORD PTR _nTitleEndPosition$[ebp]
  00006	89 01		 mov	 DWORD PTR [ecx], eax

; 993  : 	m_nTitleEndLine = nTitleEndLine;

  00008	8b 45 0c	 mov	 eax, DWORD PTR _nTitleEndLine$[ebp]
  0000b	89 41 04	 mov	 DWORD PTR [ecx+4], eax

; 994  : }

  0000e	5d		 pop	 ebp
  0000f	c2 08 00	 ret	 8
?SetTitleEndPosition@CSubGraphDataBase@@QAEXHH@Z ENDP	; CSubGraphDataBase::SetTitleEndPosition
_TEXT	ENDS
; Function compile flags: /Ogtp
; File D:\git\src\IBK\IBK_DRFN\ProjSrc\SrcChartEx\ChartOCX\IndicatorCondition\GraphData.cpp
; File C:\Program Files (x86)\Microsoft Visual Studio\2019\Community\VC\Tools\MSVC\14.29.30133\atlmfc\include\afxtempl.h
; File D:\git\src\IBK\IBK_DRFN\ProjSrc\SrcChartEx\ChartOCX\IndicatorCondition\GraphData.cpp
;	COMDAT ??1CSubGraphDataBase@@QAE@XZ
_TEXT	SEGMENT
__$EHRec$ = -12						; size = 12
??1CSubGraphDataBase@@QAE@XZ PROC			; CSubGraphDataBase::~CSubGraphDataBase, COMDAT
; _this$ = ecx

; 984  : {

  00000	55		 push	 ebp
  00001	8b ec		 mov	 ebp, esp
  00003	6a ff		 push	 -1
  00005	68 00 00 00 00	 push	 __ehhandler$??1CSubGraphDataBase@@QAE@XZ
  0000a	64 a1 00 00 00
	00		 mov	 eax, DWORD PTR fs:0
  00010	50		 push	 eax
  00011	56		 push	 esi
  00012	a1 00 00 00 00	 mov	 eax, DWORD PTR ___security_cookie
  00017	33 c5		 xor	 eax, ebp
  00019	50		 push	 eax
  0001a	8d 45 f4	 lea	 eax, DWORD PTR __$EHRec$[ebp]
  0001d	64 a3 00 00 00
	00		 mov	 DWORD PTR fs:0, eax
  00023	8b f1		 mov	 esi, ecx

; 985  : 	DeleteAllHorizontalLine();

  00025	e8 00 00 00 00	 call	 ?DeleteAllHorizontalLine@CSubGraphDataBase@@QAEXXZ ; CSubGraphDataBase::DeleteAllHorizontalLine
; File C:\Program Files (x86)\Microsoft Visual Studio\2019\Community\VC\Tools\MSVC\14.29.30133\atlmfc\include\afxtempl.h

; 358  : 	if (m_pData != NULL)

  0002a	8b 46 74	 mov	 eax, DWORD PTR [esi+116]
  0002d	c7 46 70 00 00
	00 00		 mov	 DWORD PTR [esi+112], OFFSET ??_7?$CArray@PAU_ST_HORZLINE@@PAU1@@@6B@
  00034	85 c0		 test	 eax, eax
  00036	74 10		 je	 SHORT $LN7@CSubGraphD

; 359  : 	{
; 360  : 		for( int i = 0; i < m_nSize; i++ )

  00038	83 7e 78 00	 cmp	 DWORD PTR [esi+120], 0
  0003c	0f 4f c0	 cmovg	 eax, eax

; 361  : 			(m_pData + i)->~TYPE();
; 362  : 		delete[] (BYTE*)m_pData;

  0003f	50		 push	 eax
  00040	e8 00 00 00 00	 call	 ??_V@YAXPAX@Z		; operator delete[]
  00045	83 c4 04	 add	 esp, 4
$LN7@CSubGraphD:
; File D:\git\src\IBK\IBK_DRFN\ProjSrc\SrcChartEx\ChartOCX\IndicatorCondition\GraphData.cpp

; 986  : }

  00048	8d 4e 68	 lea	 ecx, DWORD PTR [esi+104]
  0004b	ff 15 00 00 00
	00		 call	 DWORD PTR __imp_??1?$CStringT@DV?$StrTraitMFC_DLL@DV?$ChTraitsCRT@D@ATL@@@@@ATL@@QAE@XZ
  00051	8d 4e 20	 lea	 ecx, DWORD PTR [esi+32]
  00054	ff 15 00 00 00
	00		 call	 DWORD PTR __imp_??1?$CStringT@DV?$StrTraitMFC_DLL@DV?$ChTraitsCRT@D@ATL@@@@@ATL@@QAE@XZ
  0005a	8d 4e 1c	 lea	 ecx, DWORD PTR [esi+28]
  0005d	ff 15 00 00 00
	00		 call	 DWORD PTR __imp_??1?$CStringT@DV?$StrTraitMFC_DLL@DV?$ChTraitsCRT@D@ATL@@@@@ATL@@QAE@XZ
  00063	8b 4d f4	 mov	 ecx, DWORD PTR __$EHRec$[ebp]
  00066	64 89 0d 00 00
	00 00		 mov	 DWORD PTR fs:0, ecx
  0006d	59		 pop	 ecx
  0006e	5e		 pop	 esi
  0006f	8b e5		 mov	 esp, ebp
  00071	5d		 pop	 ebp
  00072	c3		 ret	 0
  00073	cc		 int	 3
  00074	cc		 int	 3
  00075	cc		 int	 3
  00076	cc		 int	 3
  00077	cc		 int	 3
_TEXT	ENDS
;	COMDAT text$x
text$x	SEGMENT
__ehhandler$??1CSubGraphDataBase@@QAE@XZ:
  00000	90		 npad	 1
  00001	90		 npad	 1
  00002	8b 54 24 08	 mov	 edx, DWORD PTR [esp+8]
  00006	8d 42 0c	 lea	 eax, DWORD PTR [edx+12]
  00009	8b 4a f8	 mov	 ecx, DWORD PTR [edx-8]
  0000c	33 c8		 xor	 ecx, eax
  0000e	e8 00 00 00 00	 call	 @__security_check_cookie@4
  00013	b8 00 00 00 00	 mov	 eax, OFFSET __ehfuncinfo$??1CSubGraphDataBase@@QAE@XZ
  00018	e9 00 00 00 00	 jmp	 ___CxxFrameHandler3
text$x	ENDS
??1CSubGraphDataBase@@QAE@XZ ENDP			; CSubGraphDataBase::~CSubGraphDataBase
; Function compile flags: /Ogtp
; File D:\git\src\IBK\IBK_DRFN\ProjSrc\SrcChartEx\ChartOCX\IndicatorCondition\GraphData.cpp
; File D:\git\src\IBK\IBK_DRFN\ProjSrc\SrcChartEx\ChartOCX\Include_Chart\BlockBaseData.h
; File D:\git\src\IBK\IBK_DRFN\ProjSrc\SrcChartEx\ChartOCX\IndicatorCondition\GraphData.cpp
; File C:\Program Files (x86)\Microsoft Visual Studio\2019\Community\VC\Tools\MSVC\14.29.30133\atlmfc\include\afxtempl.h
; File D:\git\src\IBK\IBK_DRFN\ProjSrc\SrcChartEx\ChartOCX\IndicatorCondition\GraphData.cpp
;	COMDAT ??0CSubGraphDataBase@@QAE@PBDPAUHWND__@@0@Z
_TEXT	SEGMENT
_this$ = -16						; size = 4
__$EHRec$ = -12						; size = 12
_p_szSubGraphData$ = 8					; size = 4
_p_hOcxWnd$ = 12					; size = 4
_p_szIndicatorName$ = 16				; size = 4
??0CSubGraphDataBase@@QAE@PBDPAUHWND__@@0@Z PROC	; CSubGraphDataBase::CSubGraphDataBase, COMDAT
; _this$ = ecx

; 979  : {

  00000	55		 push	 ebp
  00001	8b ec		 mov	 ebp, esp
  00003	6a ff		 push	 -1
  00005	68 00 00 00 00	 push	 __ehhandler$??0CSubGraphDataBase@@QAE@PBDPAUHWND__@@0@Z
  0000a	64 a1 00 00 00
	00		 mov	 eax, DWORD PTR fs:0
  00010	50		 push	 eax
  00011	51		 push	 ecx
  00012	56		 push	 esi
  00013	a1 00 00 00 00	 mov	 eax, DWORD PTR ___security_cookie
  00018	33 c5		 xor	 eax, ebp
  0001a	50		 push	 eax
  0001b	8d 45 f4	 lea	 eax, DWORD PTR __$EHRec$[ebp]
  0001e	64 a3 00 00 00
	00		 mov	 DWORD PTR fs:0, eax
  00024	8b f1		 mov	 esi, ecx
  00026	89 75 f0	 mov	 DWORD PTR _this$[ebp], esi

; 60   : {
; 61   : }
; 62   : 
; 63   : //  ,   - ojtaso (20071213)
; 64   : CPenThickness::CPenThickness(const int nThickness1, const int nThickness2, const int nThickness3, const int nBaseLineThickness, const bool bIsHightlight):
; 65   : 	m_nThickness1(nThickness1),
; 66   : 	m_nThickness2(nThickness2),
; 67   : 	m_nThickness3(nThickness3),
; 68   : 	m_bIsHightlight(bIsHightlight),
; 69   : 	//  ,   - ojtaso (20071213)
; 70   : 	m_nBaseLineThickness(nBaseLineThickness)
; 71   : {
; 72   : }
; 73   : 
; 74   : CPenThickness::CPenThickness(const CPenThickness& data):
; 75   : 	m_nThickness1(data.GetThickness1()),
; 76   : 	m_nThickness2(data.GetThickness2()),
; 77   : 	m_nThickness3(data.GetThickness3()),
; 78   : 	m_bIsHightlight(data.IsHightlight()),
; 79   : 	//  ,   - ojtaso (20071213)
; 80   : 	m_nBaseLineThickness(data.GetBaseLineThickness())
; 81   : {
; 82   : }
; 83   : 
; 84   : // public =====================================================================
; 85   : void CPenThickness::SetData( const char *p_szPenThickness)
; 86   : {
; 87   : 	m_nThickness1	= 1;
; 88   : 	m_nThickness2	= 1;
; 89   : 	m_nThickness3	= 1;
; 90   : 	m_bIsHightlight	= false;
; 91   : 	//  ,   - ojtaso (20071213)
; 92   : 	m_nBaseLineThickness = 1;
; 93   : 
; 94   : 	if( !p_szPenThickness) return;
; 95   : 	if( !*p_szPenThickness) return;
; 96   : 
; 97   : 	CString strPenThickness;
; 98   : 	int nPenThicknessLen = strlen( p_szPenThickness);
; 99   : 	char *szPenThickness = strPenThickness.GetBufferSetLength( nPenThicknessLen + 1);
; 100  : 	strcpy( szPenThickness, p_szPenThickness);
; 101  : 	if( szPenThickness[ nPenThicknessLen - 1] != ';')
; 102  : 	{
; 103  : 		szPenThickness[ nPenThicknessLen] = ';';
; 104  : 		szPenThickness[ nPenThicknessLen + 1] = '\0';
; 105  : 	}
; 106  : 
; 107  : 	char *szItem = szPenThickness;
; 108  : 	szPenThickness = strchr( szPenThickness, ';');
; 109  : 	if( szPenThickness) *szPenThickness++ = '\0';
; 110  : 	m_nThickness1 = atoi( szItem);
; 111  : 	if( !szPenThickness) return;
; 112  : 	if( !*szPenThickness) return;
; 113  : 
; 114  : 	szItem = szPenThickness;
; 115  : 	szPenThickness = strchr( szPenThickness, ';');
; 116  : 	if( szPenThickness) *szPenThickness++ = '\0';
; 117  : 	m_nThickness2 = atoi( szItem);
; 118  : 	if( !szPenThickness) return;
; 119  : 	if( !*szPenThickness) return;
; 120  : 
; 121  : 	szItem = szPenThickness;
; 122  : 	szPenThickness = strchr( szPenThickness, ';');
; 123  : 	if( szPenThickness) *szPenThickness++ = '\0';
; 124  : 	m_nThickness3 = atoi( szItem);
; 125  : 	if( !szPenThickness) return;
; 126  : 	if( !*szPenThickness) return;
; 127  : 
; 128  : 	szItem = szPenThickness;
; 129  : 	szPenThickness = strchr( szPenThickness, ';');
; 130  : 	if( szPenThickness) *szPenThickness++ = '\0';
; 131  : 	m_bIsHightlight = ( atoi( szItem) != 0);
; 132  : 	if( !szPenThickness) return;
; 133  : 	if( !*szPenThickness) return;
; 134  : 
; 135  : 	//  ,   - ojtaso (20071213)
; 136  : 	szItem = szPenThickness;
; 137  : 	szPenThickness = strchr( szPenThickness, ';');
; 138  : 	if( szPenThickness) *szPenThickness++ = '\0';
; 139  : 	m_nBaseLineThickness = atoi( szItem);
; 140  : 	if( !szPenThickness) return;
; 141  : 	if( !*szPenThickness) return;
; 142  : }
; 143  : 
; 144  : void CPenThickness::SetHightlight(const bool bIsHightlight)
; 145  : {
; 146  : 	m_bIsHightlight = bIsHightlight;
; 147  : }
; 148  : 
; 149  : void CPenThickness::SetThickness(const int nThickness1, const int nThickness2, const int nThickness3)
; 150  : {
; 151  : 	m_nThickness1 = nThickness1;
; 152  : 	m_nThickness2 = nThickness2;
; 153  : 	m_nThickness3 = nThickness3;
; 154  : }
; 155  : 
; 156  : void CPenThickness::SetThickness1(const int nThickness)
; 157  : {
; 158  : 	m_nThickness1 = nThickness;
; 159  : }
; 160  : 
; 161  : void CPenThickness::SetThickness2(const int nThickness)
; 162  : {
; 163  : 	m_nThickness2 = nThickness;
; 164  : }
; 165  : 
; 166  : void CPenThickness::SetThickness3(const int nThickness)
; 167  : {
; 168  : 	m_nThickness3 = nThickness;
; 169  : }
; 170  : 
; 171  : //  ,   - ojtaso (20071213)
; 172  : void CPenThickness::SetBaseLineThickness(const int nThickness)
; 173  : {
; 174  : 	m_nBaseLineThickness = nThickness;
; 175  : }
; 176  : 
; 177  : void CPenThickness::ReversedHightlight()
; 178  : {
; 179  : 	m_bIsHightlight = !m_bIsHightlight;
; 180  : }
; 181  : 
; 182  : // ----------------------------------------------------------------------------
; 183  : bool CPenThickness::IsHightlight() const
; 184  : {
; 185  : 	return m_bIsHightlight;
; 186  : }
; 187  : 
; 188  : int CPenThickness::GetThickness1() const
; 189  : {
; 190  : 	return m_nThickness1;
; 191  : }
; 192  : 
; 193  : int CPenThickness::GetThickness2() const
; 194  : {
; 195  : 	return m_nThickness2;
; 196  : }
; 197  : 
; 198  : int CPenThickness::GetThickness3() const
; 199  : {
; 200  : 	return m_nThickness3;
; 201  : }
; 202  : 
; 203  : int CPenThickness::GetDrawingThickness1() const
; 204  : {
; 205  : 	return GetDrawingThickness(m_nThickness1);
; 206  : }
; 207  : 
; 208  : int CPenThickness::GetDrawingThickness2() const
; 209  : {
; 210  : 	return GetDrawingThickness(m_nThickness2);
; 211  : }
; 212  : 
; 213  : int CPenThickness::GetDrawingThickness3() const
; 214  : {
; 215  : 	return GetDrawingThickness(m_nThickness3);
; 216  : }
; 217  : 
; 218  : //  ,   - ojtaso (20071213)
; 219  : int CPenThickness::GetBaseLineThickness() const
; 220  : {
; 221  : 	return m_nBaseLineThickness;
; 222  : }
; 223  : 
; 224  : void CPenThickness::GetStringData( CString &p_strPenThickness) const
; 225  : {
; 226  : 	//  ,   - ojtaso (20071213)
; 227  : 	char szThickness1[ 20], szThickness2[ 20], szThickness3[ 20], szBaseLineThickness[20];
; 228  : 	itoa( m_nThickness1, szThickness1, 10);
; 229  : 	itoa( m_nThickness2, szThickness2, 10);
; 230  : 	itoa( m_nThickness3, szThickness3, 10);
; 231  : 	//  ,   - ojtaso (20071213)
; 232  : 	itoa( m_nBaseLineThickness, szBaseLineThickness, 10);
; 233  : 
; 234  : 	int nThicknessLen1 = strlen( szThickness1); 
; 235  : 	int nThicknessLen2 = strlen( szThickness2); 
; 236  : 	int nThicknessLen3 = strlen( szThickness3); 
; 237  : 	//  ,   - ojtaso (20071213)
; 238  : 	int nBaseLineThicknessLen = strlen( szBaseLineThickness); 
; 239  : 
; 240  : 	int nPenThickness = 0;
; 241  : 	nPenThickness += nThicknessLen1;
; 242  : 	nPenThickness++;
; 243  : 	nPenThickness += nThicknessLen2;
; 244  : 	nPenThickness++;
; 245  : 	nPenThickness += nThicknessLen3;
; 246  : 	nPenThickness += 3;								// ;?;
; 247  : 	//  ,   - ojtaso (20071213)
; 248  : 	nPenThickness += nBaseLineThicknessLen;
; 249  : 	nPenThickness++;
; 250  : 
; 251  : 	char *szPenThickness = p_strPenThickness.GetBufferSetLength( nPenThickness);
; 252  : 
; 253  : 	strcpy( szPenThickness, szThickness1);
; 254  : 	szPenThickness += nThicknessLen1;
; 255  : 	*szPenThickness++ = ';';
; 256  : 
; 257  : 	strcpy( szPenThickness, szThickness2);
; 258  : 	szPenThickness += nThicknessLen2;
; 259  : 	*szPenThickness++ = ';';
; 260  : 
; 261  : 	strcpy( szPenThickness, szThickness3);
; 262  : 	szPenThickness += nThicknessLen3;
; 263  : 	*szPenThickness++ = ';';
; 264  : 
; 265  : 	*szPenThickness++ = ( m_bIsHightlight ? '1' : '0');
; 266  : 	*szPenThickness++ = ';';
; 267  : 
; 268  : 	//  ,   - ojtaso (20071213)
; 269  : 	strcpy( szPenThickness, szBaseLineThickness);
; 270  : 	szPenThickness += nBaseLineThicknessLen;
; 271  : 	*szPenThickness++ = ';';
; 272  : }
; 273  : 
; 274  : 
; 275  : // private ====================================================================
; 276  : int CPenThickness::GetDrawingThickness(const int orgPenThickness) const
; 277  : {
; 278  : 	if(!m_bIsHightlight)
; 279  : 		return orgPenThickness;
; 280  : 
; 281  : 	if(orgPenThickness < 3)
; 282  : 		return orgPenThickness *2;
; 283  : 	return orgPenThickness +2;
; 284  : }
; 285  : 
; 286  : 
; 287  : ///////////////////////////////////////////////////////////////////////////////
; 288  : // class CGraphDataDrawingData
; 289  : 
; 290  : CGraphDataDrawingData& CGraphDataDrawingData::operator=(const CGraphDataDrawingData& data)
; 291  : {
; 292  : 	if(this == &data)
; 293  : 		return *this;
; 294  : 
; 295  : 	m_bCalcRiseFallRate_LowHigh = data.DoesCalcRiseFallRate_LowHigh();
; 296  : 	m_bCalcRiseFallRate_LowCur = data.DoesCalcRiseFallRate_LowCur();
; 297  : 	m_bCalcRiseFallRate_HighCur = data.DoesCalcRiseFallRate_HighCur();
; 298  : 	m_bCalcRate_PrevCur = data.DoesCalcRate_PrevCur();
; 299  : 	m_nCalcRiseFallRate_CurData = data.GetCalcRiseFallRate_CurData();
; 300  : 	// (2009/9/12 - Seung-Won, Bae) for OHLC graph data
; 301  : 	m_bShowOHLC = data.GetShowOHLC();
; 302  : 
; 303  : 	return *this;
; 304  : }
; 305  : 
; 306  : bool CGraphDataDrawingData::operator==(const CGraphDataDrawingData& data)
; 307  : {
; 308  : 	if(this == &data)
; 309  : 		return true;
; 310  : 
; 311  : 	return (m_bCalcRiseFallRate_LowHigh == data.DoesCalcRiseFallRate_LowHigh() && 
; 312  : 		m_bCalcRiseFallRate_LowCur == data.DoesCalcRiseFallRate_LowCur() && 
; 313  : 		m_bCalcRiseFallRate_HighCur == data.DoesCalcRiseFallRate_HighCur() && 
; 314  : 		m_bCalcRate_PrevCur == data.DoesCalcRate_PrevCur() && 
; 315  : 		m_nCalcRiseFallRate_CurData == data.GetCalcRiseFallRate_CurData() &&
; 316  : 		// (2009/9/12 - Seung-Won, Bae) for OHLC graph data
; 317  : 		m_bShowOHLC == data.GetShowOHLC());
; 318  : }
; 319  : 
; 320  : CGraphDataDrawingData::CGraphDataDrawingData():
; 321  : 	m_bCalcRiseFallRate_LowHigh(false),
; 322  : 	m_bCalcRiseFallRate_LowCur(false),
; 323  : 	m_bCalcRiseFallRate_HighCur(false),
; 324  : 	m_bCalcRate_PrevCur(false),
; 325  : 	m_nCalcRiseFallRate_CurData(0),
; 326  : 	// (2009/9/12 - Seung-Won, Bae) for OHLC graph data
; 327  : 	m_bShowOHLC( FALSE)
; 328  : {
; 329  : }
; 330  : 
; 331  : CGraphDataDrawingData::CGraphDataDrawingData( const char *p_szGraphDataDrawingData):
; 332  : 	m_bCalcRiseFallRate_LowHigh(false),
; 333  : 	m_bCalcRiseFallRate_LowCur(false),
; 334  : 	m_bCalcRiseFallRate_HighCur(false),
; 335  : 	m_bCalcRate_PrevCur(false),
; 336  : 	m_nCalcRiseFallRate_CurData(0),
; 337  : 	// (2009/9/12 - Seung-Won, Bae) for OHLC graph data
; 338  : 	m_bShowOHLC( FALSE)
; 339  : {
; 340  : 	SetData( p_szGraphDataDrawingData);
; 341  : }
; 342  : 
; 343  : CGraphDataDrawingData::CGraphDataDrawingData(const bool bCalcRiseFallRate_LowHigh, const bool bCalcRiseFallRate_LowCur, 
; 344  : 	const bool bCalcRiseFallRate_HighCur, const bool bCalcRate_PrevCur, const int nCalcRiseFallRate_CurData, const BOOL p_bShowOHLC):
; 345  : 	m_bCalcRiseFallRate_LowHigh(bCalcRiseFallRate_LowHigh),
; 346  : 	m_bCalcRiseFallRate_LowCur(bCalcRiseFallRate_LowCur),
; 347  : 	m_bCalcRiseFallRate_HighCur(bCalcRiseFallRate_HighCur),
; 348  : 	m_bCalcRate_PrevCur(bCalcRate_PrevCur),
; 349  : 	m_nCalcRiseFallRate_CurData(nCalcRiseFallRate_CurData),
; 350  : 	// (2009/9/12 - Seung-Won, Bae) for OHLC graph data
; 351  : 	m_bShowOHLC( p_bShowOHLC)
; 352  : {
; 353  : }
; 354  : 
; 355  : CGraphDataDrawingData::CGraphDataDrawingData(const CGraphDataDrawingData& data):
; 356  : 	m_bCalcRiseFallRate_LowHigh(data.DoesCalcRiseFallRate_LowHigh()),
; 357  : 	m_bCalcRiseFallRate_LowCur(data.DoesCalcRiseFallRate_LowCur()),
; 358  : 	m_bCalcRiseFallRate_HighCur(data.DoesCalcRiseFallRate_HighCur()),
; 359  : 	m_bCalcRate_PrevCur(data.DoesCalcRate_PrevCur()),
; 360  : 	m_nCalcRiseFallRate_CurData(data.GetCalcRiseFallRate_CurData()),
; 361  : 	// (2009/9/12 - Seung-Won, Bae) for OHLC graph data
; 362  : 	m_bShowOHLC( data.GetShowOHLC())
; 363  : {
; 364  : }
; 365  : 
; 366  : // (2006/5/9 - Seung-Won, Bae) Clear Data
; 367  : void CGraphDataDrawingData::ClearData( void)
; 368  : {
; 369  : 	m_bCalcRiseFallRate_LowHigh	= false;
; 370  : 	m_bCalcRiseFallRate_LowCur	= false;
; 371  : 	m_bCalcRiseFallRate_HighCur	= false;
; 372  : 	m_bCalcRate_PrevCur			= false;
; 373  : 	m_nCalcRiseFallRate_CurData	= 0;
; 374  : 	// (2009/9/12 - Seung-Won, Bae) for OHLC graph data
; 375  : 	m_bShowOHLC					= FALSE;
; 376  : }
; 377  : 
; 378  : // public =====================================================================
; 379  : void CGraphDataDrawingData::SetDoesCalcRiseFallRate_LowHigh(const bool bCalcData)
; 380  : {
; 381  : 	m_bCalcRiseFallRate_LowHigh = bCalcData;
; 382  : }
; 383  : 
; 384  : void CGraphDataDrawingData::SetDoesCalcRiseFallRate_LowCur(const bool bCalcData)
; 385  : {
; 386  : 	m_bCalcRiseFallRate_LowCur = bCalcData;
; 387  : }
; 388  : 
; 389  : void CGraphDataDrawingData::SetDoesCalcRiseFallRate_HighCur(const bool bCalcData)
; 390  : {
; 391  : 	m_bCalcRiseFallRate_HighCur = bCalcData;
; 392  : }
; 393  : 
; 394  : void CGraphDataDrawingData::SetDoesCalcRate_PrevCur(const bool bCalcData)
; 395  : {
; 396  : 	m_bCalcRate_PrevCur = bCalcData;
; 397  : }
; 398  : 
; 399  : void CGraphDataDrawingData::SetCalcRiseFallRate_CurData(const int nCalcData)
; 400  : {
; 401  : 	m_nCalcRiseFallRate_CurData = nCalcData;
; 402  : }
; 403  : 
; 404  : // (2009/9/12 - Seung-Won, Bae) for OHLC graph data
; 405  : void CGraphDataDrawingData::SetShowOHLC( const BOOL p_bShowOHLC)
; 406  : {
; 407  : 	m_bShowOHLC	= p_bShowOHLC;
; 408  : }
; 409  : 
; 410  : // ----------------------------------------------------------------------------
; 411  : bool CGraphDataDrawingData::DoesAllDefaultData() const
; 412  : {
; 413  : 	return (m_bCalcRiseFallRate_LowHigh == false && 
; 414  : 		m_bCalcRiseFallRate_LowCur == false && 
; 415  : 		m_bCalcRiseFallRate_HighCur == false && 
; 416  : 		m_bCalcRate_PrevCur == false && 
; 417  : 		m_nCalcRiseFallRate_CurData == 0);
; 418  : }
; 419  : 
; 420  : bool CGraphDataDrawingData::DoesCalcRiseFallRate_LowHigh() const
; 421  : {
; 422  : 	return m_bCalcRiseFallRate_LowHigh;
; 423  : }
; 424  : 
; 425  : bool CGraphDataDrawingData::DoesCalcRiseFallRate_LowCur() const
; 426  : {
; 427  : 	return m_bCalcRiseFallRate_LowCur;
; 428  : }
; 429  : 
; 430  : bool CGraphDataDrawingData::DoesCalcRiseFallRate_HighCur() const
; 431  : {
; 432  : 	return m_bCalcRiseFallRate_HighCur;
; 433  : }
; 434  : 
; 435  : bool CGraphDataDrawingData::DoesCalcRate_PrevCur() const
; 436  : {
; 437  : 	return m_bCalcRate_PrevCur;
; 438  : }
; 439  : 
; 440  : int CGraphDataDrawingData::GetCalcRiseFallRate_CurData() const
; 441  : {
; 442  : 	return m_nCalcRiseFallRate_CurData;
; 443  : }
; 444  : 
; 445  : // (2009/9/12 - Seung-Won, Bae) for OHLC graph data
; 446  : BOOL CGraphDataDrawingData::GetShowOHLC( void) const
; 447  : {
; 448  : 	return m_bShowOHLC;
; 449  : }
; 450  : 
; 451  : // graph data 
; 452  : void CGraphDataDrawingData::GetData( CString &p_strGraphDataDrawingData) const
; 453  : {
; 454  : 	char *szGraphDataDrawingData = p_strGraphDataDrawingData.GetBufferSetLength( 12);	// Do not set 13, It has default NULL Terminator.
; 455  : 	szGraphDataDrawingData[  0] = ( m_bCalcRiseFallRate_LowHigh			? '1' : '0');
; 456  : 	szGraphDataDrawingData[  1] = ';';
; 457  : 	szGraphDataDrawingData[  2] = ( m_bCalcRiseFallRate_LowCur			? '1' : '0');
; 458  : 	szGraphDataDrawingData[  3] = ';';
; 459  : 	szGraphDataDrawingData[  4] = ( m_bCalcRiseFallRate_HighCur			? '1' : '0');
; 460  : 	szGraphDataDrawingData[  5] = ';';
; 461  : 	szGraphDataDrawingData[  6] = ( m_bCalcRate_PrevCur					? '1' : '0');
; 462  : 	szGraphDataDrawingData[  7] = ';';
; 463  : 	szGraphDataDrawingData[  8] = '0' + m_nCalcRiseFallRate_CurData;
; 464  : 	szGraphDataDrawingData[  9] = ';';
; 465  : 	szGraphDataDrawingData[ 10] = '0' + m_bShowOHLC;	// (2009/9/12 - Seung-Won, Bae) for OHLC graph data
; 466  : 	szGraphDataDrawingData[ 11] = ';';
; 467  : 	szGraphDataDrawingData[ 12] = '\0';
; 468  : }
; 469  : 
; 470  : 
; 471  : // private ====================================================================
; 472  : void CGraphDataDrawingData::SetData( const char *p_szGraphDataDrawingData)
; 473  : {
; 474  : 	if( !p_szGraphDataDrawingData) return;
; 475  : 	if( !*p_szGraphDataDrawingData) return;
; 476  : 
; 477  : 	CString strGraphDataDrawingData;
; 478  : 	int nGraphDataDrawingDataLen = strlen( p_szGraphDataDrawingData);
; 479  : 	char *szGraphDataDrawingData = strGraphDataDrawingData.GetBufferSetLength( nGraphDataDrawingDataLen + 1);
; 480  : 	strcpy( szGraphDataDrawingData, p_szGraphDataDrawingData);
; 481  : 	if( szGraphDataDrawingData[ nGraphDataDrawingDataLen - 1] != ';')
; 482  : 	{
; 483  : 		szGraphDataDrawingData[ nGraphDataDrawingDataLen] = ';';
; 484  : 		szGraphDataDrawingData[ nGraphDataDrawingDataLen + 1] = '\0';
; 485  : 	}
; 486  : 
; 487  : 	char *szItem = szGraphDataDrawingData;
; 488  : 	szGraphDataDrawingData = strchr( szGraphDataDrawingData, ';');
; 489  : 	if( szGraphDataDrawingData) *szGraphDataDrawingData++ = '\0';
; 490  : 	m_bCalcRiseFallRate_LowHigh = ( atoi( szItem) != 0);
; 491  : 	if( !szGraphDataDrawingData) return;
; 492  : 	if( !*szGraphDataDrawingData) return;
; 493  : 
; 494  : 	szItem = szGraphDataDrawingData;
; 495  : 	szGraphDataDrawingData = strchr( szGraphDataDrawingData, ';');
; 496  : 	if( szGraphDataDrawingData) *szGraphDataDrawingData++ = '\0';
; 497  : 	m_bCalcRiseFallRate_LowCur = ( atoi( szItem) != 0);
; 498  : 	if( !szGraphDataDrawingData) return;
; 499  : 	if( !*szGraphDataDrawingData) return;
; 500  : 
; 501  : 	szItem = szGraphDataDrawingData;
; 502  : 	szGraphDataDrawingData = strchr( szGraphDataDrawingData, ';');
; 503  : 	if( szGraphDataDrawingData) *szGraphDataDrawingData++ = '\0';
; 504  : 	m_bCalcRiseFallRate_HighCur = ( atoi( szItem) != 0);
; 505  : 	if( !szGraphDataDrawingData) return;
; 506  : 	if( !*szGraphDataDrawingData) return;
; 507  : 
; 508  : 	szItem = szGraphDataDrawingData;
; 509  : 	szGraphDataDrawingData = strchr( szGraphDataDrawingData, ';');
; 510  : 	if( szGraphDataDrawingData) *szGraphDataDrawingData++ = '\0';
; 511  : 	m_bCalcRate_PrevCur = ( atoi( szItem) != 0);
; 512  : 	if( !szGraphDataDrawingData) return;
; 513  : 	if( !*szGraphDataDrawingData) return;
; 514  : 
; 515  : 	szItem = szGraphDataDrawingData;
; 516  : 	szGraphDataDrawingData = strchr( szGraphDataDrawingData, ';');
; 517  : 	if( szGraphDataDrawingData) *szGraphDataDrawingData++ = '\0';
; 518  : 	m_nCalcRiseFallRate_CurData = atoi( szItem);
; 519  : 	if( !szGraphDataDrawingData) return;
; 520  : 	if( !*szGraphDataDrawingData) return;
; 521  : 
; 522  : 	// (2009/9/12 - Seung-Won, Bae) for OHLC graph data
; 523  : 	szItem = szGraphDataDrawingData;
; 524  : 	szGraphDataDrawingData = strchr( szGraphDataDrawingData, ';');
; 525  : 	if( szGraphDataDrawingData) *szGraphDataDrawingData++ = '\0';
; 526  : 	m_bShowOHLC = atoi( szItem);
; 527  : 	if( !szGraphDataDrawingData) return;
; 528  : 	if( !*szGraphDataDrawingData) return;
; 529  : }
; 530  : 
; 531  : ///////////////////////////////////////////////////////////////////////////////
; 532  : // class CSignalData
; 533  : 
; 534  : CSignalData& CSignalData::operator=(const CSignalData& data)
; 535  : {
; 536  : 	if(this == &data)
; 537  : 		return *this;
; 538  : 
; 539  : 	m_bIsUse = data.IsUse();
; 540  : 	m_bIsShow = data.IsShow();
; 541  : 	return *this;
; 542  : }
; 543  : 
; 544  : bool CSignalData::operator==(const CSignalData& data)
; 545  : {
; 546  : 	if(this == &data)
; 547  : 		return true;
; 548  : 
; 549  : 	return (m_bIsUse == data.IsUse() && m_bIsShow == data.IsShow());
; 550  : }
; 551  : 
; 552  : CSignalData::CSignalData(const bool bIsUse, const bool bIsShow):
; 553  : 	m_bIsUse(bIsUse),
; 554  : 	m_bIsShow(bIsShow)
; 555  : {
; 556  : 	// (2009/10/7 - Seung-Won, Bae) for Signal Arrow Drawing Cache.
; 557  : 	m_pSignalCache = NULL;
; 558  : }
; 559  : 
; 560  : CSignalData::CSignalData( const char *p_szSignalData)
; 561  : {
; 562  : 	SetData( p_szSignalData);
; 563  : 
; 564  : 	// (2009/10/7 - Seung-Won, Bae) for Signal Arrow Drawing Cache.
; 565  : 	m_pSignalCache = NULL;
; 566  : }
; 567  : 
; 568  : CSignalData::CSignalData(const CSignalData& data) : 
; 569  : 	m_bIsUse(data.IsUse()),
; 570  : 	m_bIsShow(data.IsShow())
; 571  : {
; 572  : 	// (2009/10/7 - Seung-Won, Bae) for Signal Arrow Drawing Cache.
; 573  : 	m_pSignalCache = NULL;
; 574  : }
; 575  : 
; 576  : // (2009/10/7 - Seung-Won, Bae) for Signal Arrow Drawing Cache.
; 577  : CSignalData::~CSignalData()
; 578  : {
; 579  : 	ClearCalcDataForDraw();
; 580  : }
; 581  : 
; 582  : // (2006/5/9 - Seung-Won, Bae) Clear Data
; 583  : void CSignalData::ClearData( void)
; 584  : {
; 585  : 	m_bIsUse	= false;
; 586  : 	m_bIsShow	= false;
; 587  : }
; 588  : 
; 589  : // public =====================================================================
; 590  : void CSignalData::SetUse(const bool bIsUse)
; 591  : {
; 592  : 	m_bIsUse = bIsUse;
; 593  : }
; 594  : 
; 595  : void CSignalData::SetShow(const bool bIsShow)
; 596  : {
; 597  : 	m_bIsShow = bIsShow;
; 598  : }
; 599  : 
; 600  : // ----------------------------------------------------------------------------
; 601  : bool CSignalData::IsUse() const
; 602  : {
; 603  : 	return m_bIsUse;
; 604  : }
; 605  : 
; 606  : bool CSignalData::IsShow() const
; 607  : {
; 608  : 	return m_bIsShow;
; 609  : }
; 610  : 
; 611  : bool CSignalData::IsDraw() const
; 612  : {
; 613  : 	if(!m_bIsUse)
; 614  : 		return false;
; 615  : 	return m_bIsShow;
; 616  : }
; 617  : 
; 618  : 
; 619  : // ----------------------------------------------------------------------------
; 620  : void CSignalData::GetData( CString &p_strSignalData) const
; 621  : {
; 622  : 	char *szSignalData = p_strSignalData.GetBufferSetLength( 4);	// Do not set 5, It has default NULL Terminator.
; 623  : 	szSignalData[ 0] = ( m_bIsUse	? '1' : '0');
; 624  : 	szSignalData[ 1] = ':';
; 625  : 	szSignalData[ 2] = ( m_bIsShow	? '1' : '0');
; 626  : 	szSignalData[ 3] = ';';
; 627  : 	szSignalData[ 4] = '\0';
; 628  : }
; 629  : 
; 630  : 
; 631  : // private ====================================================================
; 632  : void CSignalData::SetData( const char *p_szSignalData)
; 633  : {
; 634  : 	if( !p_szSignalData) return;
; 635  : 	if( !*p_szSignalData) return;
; 636  : 
; 637  : 	CString strSignalData;
; 638  : 	int nSignalDataLen = strlen( p_szSignalData);
; 639  : 	char *szSignalData = strSignalData.GetBufferSetLength( nSignalDataLen + 1);
; 640  : 	strcpy( szSignalData, p_szSignalData);
; 641  : 	if( szSignalData[ nSignalDataLen - 1] != ';')
; 642  : 	{
; 643  : 		szSignalData[ nSignalDataLen] = ';';
; 644  : 		szSignalData[ nSignalDataLen + 1] = '\0';
; 645  : 	}
; 646  : 
; 647  : 	// "signal:signal;"
; 648  : 	// signal
; 649  : 	char *szItem = szSignalData;
; 650  : 	szSignalData = strchr( szSignalData, ':');
; 651  : 	if( szSignalData) *szSignalData++ = '\0';
; 652  : 	m_bIsUse = ( atoi( szItem) != 0);
; 653  : 	if( !szSignalData) return;
; 654  : 	if( !*szSignalData) return;
; 655  : 	// signal
; 656  : 	szItem = szSignalData;
; 657  : 	szSignalData = strchr( szSignalData, ';');
; 658  : 	if( szSignalData) *szSignalData++ = '\0';
; 659  : 	m_bIsShow = ( atoi( szItem) != 0);
; 660  : 	if( !szSignalData) return;
; 661  : 	if( !*szSignalData) return;
; 662  : }
; 663  : 
; 664  : // (2009/10/7 - Seung-Won, Bae) for Signal Arrow Drawing Cache.
; 665  : void CSignalData::ClearCalcDataForDraw( void)
; 666  : {
; 667  : 	if( m_pSignalCache)
; 668  : 	{
; 669  : 		delete m_pSignalCache;
; 670  : 		m_pSignalCache = NULL;
; 671  : 	}
; 672  : }
; 673  : 
; 674  : 
; 675  : ///////////////////////////////////////////////////////////////////////////////
; 676  : // class CGraphData
; 677  : 
; 678  : CGraphData& CGraphData::operator=(const CGraphData& data)
; 679  : {
; 680  : 	if(this == &data) return *this;
; 681  : 
; 682  : 	m_strIndicatorName		= data.m_strIndicatorName;
; 683  : 	m_strGraphName			= data.m_strGraphName;
; 684  : 	m_strPacketName			= data.m_strPacketName;
; 685  : 	m_signalData			= data.m_signalData;
; 686  : 	m_graphDataDrawingData	= data.m_graphDataDrawingData;
; 687  : 
; 688  : 	return *this;
; 689  : }
; 690  : 
; 691  : // (2006/5/9 - Seung-Won, Bae) Clear Data
; 692  : void CGraphData::ClearData( void)
; 693  : {
; 694  : 	m_strIndicatorName.Empty();
; 695  : 	m_strGraphName.Empty();
; 696  : 	m_strPacketName.Empty();
; 697  : 	m_signalData.ClearData();
; 698  : 	m_graphDataDrawingData.ClearData();
; 699  : }
; 700  : 
; 701  : void CGraphData::SetPacketNames(const CString& packetNames)
; 702  : {
; 703  : 	if(m_strPacketName == packetNames)
; 704  : 		return;
; 705  : 
; 706  : 	m_strPacketName = packetNames;
; 707  : }
; 708  : 
; 709  : void CGraphData::SetSignalData(const CSignalData& signalData)
; 710  : {
; 711  : 	m_signalData = signalData;
; 712  : }
; 713  : 
; 714  : void CGraphData::SetSignalData(const bool bIsUse, const bool bIsShow)
; 715  : {
; 716  : 	m_signalData.SetUse(bIsUse);
; 717  : 	m_signalData.SetShow(bIsShow);
; 718  : }
; 719  : 
; 720  : void CGraphData::SetGraphDataDrawingData(const CGraphDataDrawingData& drawingData)
; 721  : {
; 722  : 	m_graphDataDrawingData = drawingData;
; 723  : }
; 724  : 
; 725  : CString CGraphData::GetPacketNames() const
; 726  : {
; 727  : 	return m_strPacketName;
; 728  : }
; 729  : 
; 730  : CSignalData CGraphData::GetSignalData() const
; 731  : {
; 732  : 	return m_signalData;
; 733  : }
; 734  : 
; 735  : CSignalData& CGraphData::GetSignalData()
; 736  : {
; 737  : 	return m_signalData;
; 738  : }
; 739  : 
; 740  : bool CGraphData::IsSignalUse() const
; 741  : {
; 742  : 	return m_signalData.IsUse();
; 743  : }
; 744  : 
; 745  : bool CGraphData::IsSignalShow() const
; 746  : {
; 747  : 	return m_signalData.IsShow();
; 748  : }
; 749  : 
; 750  : CGraphDataDrawingData CGraphData::GetGraphDataDrawingData() const
; 751  : {
; 752  : 	return m_graphDataDrawingData;
; 753  : }
; 754  : 
; 755  : CGraphDataDrawingData& CGraphData::GetGraphDataDrawingData()
; 756  : {
; 757  : 	return m_graphDataDrawingData;
; 758  : }
; 759  : 
; 760  : // (2006/9/6 - Seung-Won, Bae) Map Design Info.
; 761  : CGraphData::CGraphData( const char *p_szGraphData, HWND p_hOcxWnd)
; 762  : {
; 763  : 	if( !p_szGraphData) return;
; 764  : 	if( !*p_szGraphData) return;
; 765  : 
; 766  : 	// "index;;,,,;signal(:);
; 767  : 	//  ;;;;;
; 768  : 	//  ;;;(0:,1:/,2:(),());\r\n"
; 769  : 	CString strGraphData;
; 770  : 	int nGraphDataLen = strlen( p_szGraphData);
; 771  : 	char *szGraphData = strGraphData.GetBufferSetLength( nGraphDataLen);
; 772  : 	strcpy( szGraphData, p_szGraphData);
; 773  : 	// (2006/10/26 - Seung-Won, Bae) Skip Function Index;
; 774  : 	szGraphData = strchr( szGraphData, ';');	// m_nFunctionIndex = atoi(CDataConversion::GetStringData(strRealData, ";")); // function index
; 775  : 	if( !szGraphData) return;
; 776  : 	szGraphData++;
; 777  : 	// graph function name
; 778  : 	char *szItem = szGraphData;
; 779  : 	szGraphData = strchr( szGraphData, ';');	// m_nFunctionIndex = atoi(CDataConversion::GetStringData(strRealData, ";")); // function index
; 780  : 	if( szGraphData) *szGraphData++ = '\0';
; 781  : 	m_strIndicatorName = _MTOM2( szItem);
; 782  : 	if( !szGraphData) return;
; 783  : 	if( !*szGraphData) return;
; 784  : 	// (2006/11/29 - Seung-Won, Bae) Support Graph Name for Binding with Indicator Info.
; 785  : 	if( strncmp( szGraphData, "G:", 2)) m_strGraphName = m_strIndicatorName;
; 786  : 	else
; 787  : 	{
; 788  : 		szItem = szGraphData + 2;
; 789  : 		szGraphData = strchr( szGraphData, ';');
; 790  : 		if( szGraphData) *szGraphData++ = '\0';
; 791  : 		m_strGraphName = _MTOM2( szItem);		// (2008/2/22 - Seung-Won, Bae) The first default Graph Name is Indicator Name.
; 792  : 		if( !szGraphData) return;
; 793  : 		if( !*szGraphData) return;
; 794  : 	}
; 795  : 	// packet name
; 796  : 	szItem = szGraphData;
; 797  : 	szGraphData = strchr( szGraphData, ';');
; 798  : 	if( szGraphData) *szGraphData++ = '\0';
; 799  : 	_MHWND( p_hOcxWnd);
; 800  : 	if( strchr( szItem, '('))	m_strPacketName = _STOMS( szItem, ",(+)/23", 0);
; 801  : 	else						m_strPacketName = _STOMS( szItem, ",", 0);
; 802  : 	if( !szGraphData) return;
; 803  : 	if( !*szGraphData) return;
; 804  : 	// Signal
; 805  : 	szItem = szGraphData;
; 806  : 	szGraphData = strchr( szGraphData, ';');
; 807  : 	if( szGraphData) *szGraphData++ = '\0';
; 808  : 	m_signalData = CSignalData( szItem);
; 809  : 	if( !szGraphData) return;
; 810  : 	if( !*szGraphData) return;
; 811  : 	// Graph Drawing Data
; 812  : 	szItem = szGraphData;
; 813  : 	int i = 0;
; 814  : 	do
; 815  : 	{
; 816  : 		szGraphData = strchr( szGraphData, ';');
; 817  : 		if( !szGraphData) continue;
; 818  : 		i++;
; 819  : 		szGraphData++;
; 820  : 	} while( szGraphData && i < 6);
; 821  : 	if( szGraphData) *szGraphData = '\0';
; 822  : 	m_graphDataDrawingData = CGraphDataDrawingData( szItem);
; 823  : }
; 824  : 
; 825  : //   :  - ojtaso (20070507)
; 826  : void CGraphData::GetData( CString &p_strGraphData, LPCTSTR lpszRQ/* = NULL*/) const
; 827  : {
; 828  : 	CString strSingalData;
; 829  : 	m_signalData.GetData( strSingalData);
; 830  : 
; 831  : 	CString strGraphDataDrawingData;
; 832  : 	m_graphDataDrawingData.GetData( strGraphDataDrawingData);
; 833  : 	
; 834  : 	int nGraphDataLen = 0;									//
; 835  : 	nGraphDataLen++;										// ;
; 836  : 	nGraphDataLen += m_strIndicatorName.GetLength();		// Indicator Name
; 837  : 	nGraphDataLen += 3;										// ;G:
; 838  : 	nGraphDataLen += m_strGraphName.GetLength();			// Graph Name
; 839  : 	nGraphDataLen++;										// ;
; 840  : 	nGraphDataLen += m_strPacketName.GetLength();			// Packet Name
; 841  : 	nGraphDataLen++;										// ;
; 842  : 	nGraphDataLen += strSingalData.GetLength();				// Singal Data
; 843  : 	nGraphDataLen += strGraphDataDrawingData.GetLength();	// Graph Data Drawing Data
; 844  : 	//   :  - ojtaso (20070507)
; 845  : 	if(lpszRQ)
; 846  : 	{
; 847  : 		nGraphDataLen += 3;										// RQ:
; 848  : 		nGraphDataLen += ::lstrlen(lpszRQ);
; 849  : 	}
; 850  : 	nGraphDataLen += 2;										// \r\n (Do not add NULL Terminator size. It has that with default)
; 851  : 	char *szGraphData = p_strGraphData.GetBufferSetLength( nGraphDataLen);
; 852  : 
; 853  : 	*szGraphData++ = ';';
; 854  : 
; 855  : 	strcpy( szGraphData, m_strIndicatorName);
; 856  : 	szGraphData += m_strIndicatorName.GetLength();
; 857  : 
; 858  : 	*szGraphData++ = ';';
; 859  : 	*szGraphData++ = 'G';
; 860  : 	*szGraphData++ = ':';
; 861  : 
; 862  : 	strcpy( szGraphData, m_strGraphName);
; 863  : 	szGraphData += m_strGraphName.GetLength();
; 864  : 
; 865  : 	*szGraphData++ = ';';
; 866  : 
; 867  : 	strcpy( szGraphData, m_strPacketName);
; 868  : 	szGraphData += m_strPacketName.GetLength();
; 869  : 
; 870  : 	*szGraphData++ = ';';
; 871  : 
; 872  : 	strcpy( szGraphData, strSingalData);
; 873  : 	szGraphData += strSingalData.GetLength();
; 874  : 
; 875  : 	strcpy( szGraphData, strGraphDataDrawingData);
; 876  : 	szGraphData += strGraphDataDrawingData.GetLength();
; 877  : 
; 878  : 	//   :  - ojtaso (20070507)
; 879  : 	if(lpszRQ)
; 880  : 	{
; 881  : 		strcpy( szGraphData, _T("RQ:"));
; 882  : 		szGraphData += 3;
; 883  : 		strcpy( szGraphData, lpszRQ);
; 884  : 		szGraphData += ::lstrlen(lpszRQ);
; 885  : 	}
; 886  : 
; 887  : 	*szGraphData++ = '\r';
; 888  : 	*szGraphData++ = '\n';
; 889  : 	*szGraphData++ = '\0';
; 890  : }
; 891  : 
; 892  : ///////////////////////////////////////////////////////////////////////////////
; 893  : // class CSubGraphDataBase
; 894  : 
; 895  : CSubGraphDataBase& CSubGraphDataBase::operator=(const CSubGraphDataBase& data)
; 896  : {
; 897  : 	if(this == &data)
; 898  : 		return *this;
; 899  : 
; 900  : 	m_nTitleEndPosition = data.GetTitleEndPosition();
; 901  : 	m_nTitleEndLine = data.GetTitleEndLine();
; 902  : 	m_TYPEType = data.GetType();
; 903  : 	m_nStyle = data.GetStyle();
; 904  : 	m_nDrawStyle = data.GetDrawStyle();
; 905  : 	m_strName = data.GetName();
; 906  : 	m_strTitle = data.GetTitle();
; 907  : 	m_bHiding = data.m_bHiding;
; 908  : 	m_clrColor = data.GetColor();
; 909  : 	m_penThickness = data.GetPenThickness();
; 910  : 	//   :  - ojtaso (20070625)
; 911  : 	m_strItemName = data.GetItemName();
; 912  : 	m_nSubGraphIndex = data.GetSubGraphIndex();	//     - ojtaso (20071116)
; 913  : 	m_nPaintStyle = data.GetPaintStyle();		// Singbar Graph    - ojtaso (20071121)
; 914  : 	m_nBaseLineStyle = data.GetBaseLineDrawStyle();		//  ,   - ojtaso (20071213)
; 915  : 	
; 916  : 	// KTB  - ojtaso (20091019)
; 917  : 	const CArray<ST_HORZLINE*, ST_HORZLINE*>& arrInfo = data.GetHorizontalLine();
; 918  : 	m_arrHorzLine.Copy(arrInfo);	
; 919  : 	return *this;
; 920  : }
; 921  : 
; 922  : CSubGraphDataBase::CSubGraphDataBase():
; 923  : 	m_nTitleEndPosition(0),
; 924  : 	m_nTitleEndLine(1), 	//    :  - ojtaso (20070227)
; 925  : 	m_TYPEType(CGraphBaseData::GTNONE),
; 926  : 	m_bHiding(true)
; 927  : {
; 928  : }
; 929  : 
; 930  : // Singbar Graph    - ojtaso (20071121)
; 931  : //  ,   - ojtaso (20071213)
; 932  : CSubGraphDataBase::CSubGraphDataBase(const CGraphBaseData::GRAPHTYPE type, const CGraphStyle& style, const CGraphDrawStyle& drawStyle, const CString& name, const CString& title, const bool hiding, const CGraphColor& color, const CPenThickness& penThickness, const CGraphPaintStyle& paintStyle, const CGraphBaseLineStyle& baseLineStyle):
; 933  : 	m_nTitleEndPosition(0),
; 934  : 	m_nTitleEndLine(1), 	//    :  - ojtaso (20070227)
; 935  : 	m_TYPEType(type),
; 936  : 	m_nStyle(style),
; 937  : 	m_nDrawStyle(drawStyle),
; 938  : 	m_strName(name),
; 939  : 	m_strTitle(title),
; 940  : 	m_bHiding(hiding),
; 941  : 	m_clrColor(color),
; 942  : 	m_penThickness(penThickness),
; 943  : 	m_nSubGraphIndex(-1),	//     - ojtaso (20071116)
; 944  : 	m_nPaintStyle(paintStyle),		// Singbar Graph    - ojtaso (20071121)
; 945  : 	m_nBaseLineStyle(baseLineStyle)		//  ,   - ojtaso (20071213)
; 946  : {
; 947  : 	//   :  - ojtaso (20070625)
; 948  : 	m_strItemName.Empty();
; 949  : }
; 950  : 
; 951  : CSubGraphDataBase::CSubGraphDataBase(const CSubGraphDataBase& data):
; 952  : 	m_nTitleEndPosition(data.GetTitleEndPosition()),
; 953  : 	m_nTitleEndLine(data.GetTitleEndLine()), 	//    :  - ojtaso (20070227)
; 954  : 	m_TYPEType(data.GetType()),
; 955  : 	m_nStyle(data.GetStyle()),
; 956  : 	m_nDrawStyle(data.GetDrawStyle()),
; 957  : 	m_strName(data.GetName()),
; 958  : 	m_strTitle(data.GetTitle()),
; 959  : 	m_bHiding( data.m_bHiding),
; 960  : 	m_clrColor(data.GetColor()),
; 961  : 	m_penThickness(data.GetPenThickness()),
; 962  : 	//   :  - ojtaso (20070625)
; 963  : 	m_strItemName(data.GetItemName()),
; 964  : 	m_nSubGraphIndex(data.GetSubGraphIndex()),	//     - ojtaso (20071116)
; 965  : 	m_nPaintStyle(data.GetPaintStyle()),		// Singbar Graph    - ojtaso (20071121)
; 966  : 	m_nBaseLineStyle(data.GetBaseLineDrawStyle())	//  ,   - ojtaso (20071213)
; 967  : {
; 968  : 	// KTB  - ojtaso (20091019)
; 969  : 	const CArray<ST_HORZLINE*, ST_HORZLINE*>& arrInfo = data.GetHorizontalLine();
; 970  : 	m_arrHorzLine.Copy(arrInfo);	
; 971  : }
; 972  : 
; 973  : CSubGraphDataBase::CSubGraphDataBase( const char *p_szSubGraphData, HWND p_hOcxWnd, const char *p_szIndicatorName):
; 974  : 	m_nTitleEndPosition(0),

  00029	c7 06 00 00 00
	00		 mov	 DWORD PTR [esi], 0

; 979  : {

  0002f	8d 4e 1c	 lea	 ecx, DWORD PTR [esi+28]
  00032	c7 46 04 01 00
	00 00		 mov	 DWORD PTR [esi+4], 1
  00039	c7 46 08 ff ff
	ff ff		 mov	 DWORD PTR [esi+8], -1
; File D:\git\src\IBK\IBK_DRFN\ProjSrc\SrcChartEx\ChartOCX\Include_Chart\BlockBaseData.h

; 42   : 	CGraphStyle() { m_nStyle = -1; };

  00040	c7 46 0c ff ff
	ff ff		 mov	 DWORD PTR [esi+12], -1

; 65   : 	CGraphDrawStyle() { m_nStyle = -1; };

  00047	c7 46 10 ff ff
	ff ff		 mov	 DWORD PTR [esi+16], -1

; 87   : 	CGraphPaintStyle() { m_nStyle = 1; };

  0004e	c7 46 14 01 00
	00 00		 mov	 DWORD PTR [esi+20], 1

; 103  : 	CGraphBaseLineStyle() { m_nStyle = 0; }

  00055	c7 46 18 00 00
	00 00		 mov	 DWORD PTR [esi+24], 0
; File D:\git\src\IBK\IBK_DRFN\ProjSrc\SrcChartEx\ChartOCX\IndicatorCondition\GraphData.cpp

; 979  : {

  0005c	ff 15 00 00 00
	00		 call	 DWORD PTR __imp_??0?$CStringT@DV?$StrTraitMFC_DLL@DV?$ChTraitsCRT@D@ATL@@@@@ATL@@QAE@XZ
  00062	8d 4e 20	 lea	 ecx, DWORD PTR [esi+32]
  00065	c7 45 fc 00 00
	00 00		 mov	 DWORD PTR __$EHRec$[ebp+8], 0
  0006c	ff 15 00 00 00
	00		 call	 DWORD PTR __imp_??0?$CStringT@DV?$StrTraitMFC_DLL@DV?$ChTraitsCRT@D@ATL@@@@@ATL@@QAE@XZ
  00072	8d 4e 28	 lea	 ecx, DWORD PTR [esi+40]
  00075	c6 45 fc 01	 mov	 BYTE PTR __$EHRec$[ebp+8], 1
  00079	c6 46 24 01	 mov	 BYTE PTR [esi+36], 1
  0007d	e8 00 00 00 00	 call	 ??0CGraphColor@@QAE@XZ	; CGraphColor::CGraphColor
  00082	8d 4e 68	 lea	 ecx, DWORD PTR [esi+104]

; 57   : 	m_bIsHightlight(false),

  00085	c6 46 54 00	 mov	 BYTE PTR [esi+84], 0

; 54   : 	m_nThickness1(1),

  00089	c7 46 58 01 00
	00 00		 mov	 DWORD PTR [esi+88], 1

; 55   : 	m_nThickness2(1),

  00090	c7 46 5c 01 00
	00 00		 mov	 DWORD PTR [esi+92], 1

; 56   : 	m_nThickness3(1),

  00097	c7 46 60 01 00
	00 00		 mov	 DWORD PTR [esi+96], 1

; 58   : 	//  ,   - ojtaso (20071213)
; 59   : 	m_nBaseLineThickness(1)

  0009e	c7 46 64 01 00
	00 00		 mov	 DWORD PTR [esi+100], 1

; 979  : {

  000a5	ff 15 00 00 00
	00		 call	 DWORD PTR __imp_??0?$CStringT@DV?$StrTraitMFC_DLL@DV?$ChTraitsCRT@D@ATL@@@@@ATL@@QAE@XZ

; 975  : 	m_nTitleEndLine(1), 	//    :  - ojtaso (20070227)
; 976  : 	m_TYPEType(CGraphBaseData::GTNONE),
; 977  : 	m_bHiding(true),
; 978  : 	m_nSubGraphIndex(-1)	//     - ojtaso (20071116)

  000ab	c7 46 6c ff ff
	ff ff		 mov	 DWORD PTR [esi+108], -1
; File C:\Program Files (x86)\Microsoft Visual Studio\2019\Community\VC\Tools\MSVC\14.29.30133\atlmfc\include\afxtempl.h

; 348  : {

  000b2	c7 46 70 00 00
	00 00		 mov	 DWORD PTR [esi+112], OFFSET ??_7?$CArray@PAU_ST_HORZLINE@@PAU1@@@6B@

; 349  : 	m_pData = NULL;

  000b9	c7 46 74 00 00
	00 00		 mov	 DWORD PTR [esi+116], 0

; 350  : 	m_nSize = m_nMaxSize = m_nGrowBy = 0;

  000c0	c7 86 80 00 00
	00 00 00 00 00	 mov	 DWORD PTR [esi+128], 0
  000ca	c7 46 7c 00 00
	00 00		 mov	 DWORD PTR [esi+124], 0
  000d1	c7 46 78 00 00
	00 00		 mov	 DWORD PTR [esi+120], 0
; File D:\git\src\IBK\IBK_DRFN\ProjSrc\SrcChartEx\ChartOCX\IndicatorCondition\GraphData.cpp

; 980  : 	SetData( p_szSubGraphData, p_hOcxWnd, p_szIndicatorName);

  000d8	ff 75 10	 push	 DWORD PTR _p_szIndicatorName$[ebp]
  000db	8b ce		 mov	 ecx, esi
  000dd	c6 45 fc 03	 mov	 BYTE PTR __$EHRec$[ebp+8], 3
  000e1	ff 75 0c	 push	 DWORD PTR _p_hOcxWnd$[ebp]
  000e4	ff 75 08	 push	 DWORD PTR _p_szSubGraphData$[ebp]
  000e7	e8 00 00 00 00	 call	 ?SetData@CSubGraphDataBase@@QAEXPBDPAUHWND__@@0@Z ; CSubGraphDataBase::SetData

; 981  : }

  000ec	8b c6		 mov	 eax, esi
  000ee	8b 4d f4	 mov	 ecx, DWORD PTR __$EHRec$[ebp]
  000f1	64 89 0d 00 00
	00 00		 mov	 DWORD PTR fs:0, ecx
  000f8	59		 pop	 ecx
  000f9	5e		 pop	 esi
  000fa	8b e5		 mov	 esp, ebp
  000fc	5d		 pop	 ebp
  000fd	c2 0c 00	 ret	 12			; 0000000cH
_TEXT	ENDS
;	COMDAT text$x
text$x	SEGMENT
__unwindfunclet$??0CSubGraphDataBase@@QAE@PBDPAUHWND__@@0@Z$0:
  00000	8b 4d f0	 mov	 ecx, DWORD PTR _this$[ebp]
  00003	83 c1 1c	 add	 ecx, 28			; 0000001cH
  00006	ff 25 00 00 00
	00		 jmp	 DWORD PTR __imp_??1?$CStringT@DV?$StrTraitMFC_DLL@DV?$ChTraitsCRT@D@ATL@@@@@ATL@@QAE@XZ
__unwindfunclet$??0CSubGraphDataBase@@QAE@PBDPAUHWND__@@0@Z$1:
  0000c	8b 4d f0	 mov	 ecx, DWORD PTR _this$[ebp]
  0000f	83 c1 20	 add	 ecx, 32			; 00000020H
  00012	ff 25 00 00 00
	00		 jmp	 DWORD PTR __imp_??1?$CStringT@DV?$StrTraitMFC_DLL@DV?$ChTraitsCRT@D@ATL@@@@@ATL@@QAE@XZ
__unwindfunclet$??0CSubGraphDataBase@@QAE@PBDPAUHWND__@@0@Z$2:
  00018	8b 4d f0	 mov	 ecx, DWORD PTR _this$[ebp]
  0001b	83 c1 68	 add	 ecx, 104		; 00000068H
  0001e	ff 25 00 00 00
	00		 jmp	 DWORD PTR __imp_??1?$CStringT@DV?$StrTraitMFC_DLL@DV?$ChTraitsCRT@D@ATL@@@@@ATL@@QAE@XZ
__unwindfunclet$??0CSubGraphDataBase@@QAE@PBDPAUHWND__@@0@Z$3:
  00024	8b 4d f0	 mov	 ecx, DWORD PTR _this$[ebp]
  00027	83 c1 70	 add	 ecx, 112		; 00000070H
  0002a	e9 00 00 00 00	 jmp	 ??1?$CArray@PAU_ST_HORZLINE@@PAU1@@@UAE@XZ ; CArray<_ST_HORZLINE *,_ST_HORZLINE *>::~CArray<_ST_HORZLINE *,_ST_HORZLINE *>
  0002f	cc		 int	 3
  00030	cc		 int	 3
  00031	cc		 int	 3
  00032	cc		 int	 3
  00033	cc		 int	 3
__ehhandler$??0CSubGraphDataBase@@QAE@PBDPAUHWND__@@0@Z:
  00034	90		 npad	 1
  00035	90		 npad	 1
  00036	8b 54 24 08	 mov	 edx, DWORD PTR [esp+8]
  0003a	8d 42 0c	 lea	 eax, DWORD PTR [edx+12]
  0003d	8b 4a f4	 mov	 ecx, DWORD PTR [edx-12]
  00040	33 c8		 xor	 ecx, eax
  00042	e8 00 00 00 00	 call	 @__security_check_cookie@4
  00047	b8 00 00 00 00	 mov	 eax, OFFSET __ehfuncinfo$??0CSubGraphDataBase@@QAE@PBDPAUHWND__@@0@Z
  0004c	e9 00 00 00 00	 jmp	 ___CxxFrameHandler3
text$x	ENDS
??0CSubGraphDataBase@@QAE@PBDPAUHWND__@@0@Z ENDP	; CSubGraphDataBase::CSubGraphDataBase
; Function compile flags: /Ogtp
; File D:\git\src\IBK\IBK_DRFN\ProjSrc\SrcChartEx\ChartOCX\IndicatorCondition\GraphData.cpp
; File C:\Program Files (x86)\Microsoft Visual Studio\2019\Community\VC\Tools\MSVC\14.29.30133\atlmfc\include\afxtempl.h
; File D:\git\src\IBK\IBK_DRFN\ProjSrc\SrcChartEx\ChartOCX\IndicatorCondition\GraphData.cpp
;	COMDAT ??0CSubGraphDataBase@@QAE@ABV0@@Z
_TEXT	SEGMENT
_this$ = -16						; size = 4
__$EHRec$ = -12						; size = 12
___$ReturnUdt$ = 8					; size = 4
___$ReturnUdt$ = 8					; size = 4
___$ReturnUdt$ = 8					; size = 4
_data$ = 8						; size = 4
??0CSubGraphDataBase@@QAE@ABV0@@Z PROC			; CSubGraphDataBase::CSubGraphDataBase, COMDAT
; _this$ = ecx

; 967  : {

  00000	55		 push	 ebp
  00001	8b ec		 mov	 ebp, esp
  00003	6a ff		 push	 -1
  00005	68 00 00 00 00	 push	 __ehhandler$??0CSubGraphDataBase@@QAE@ABV0@@Z
  0000a	64 a1 00 00 00
	00		 mov	 eax, DWORD PTR fs:0
  00010	50		 push	 eax
  00011	51		 push	 ecx
  00012	56		 push	 esi
  00013	57		 push	 edi
  00014	a1 00 00 00 00	 mov	 eax, DWORD PTR ___security_cookie
  00019	33 c5		 xor	 eax, ebp
  0001b	50		 push	 eax
  0001c	8d 45 f4	 lea	 eax, DWORD PTR __$EHRec$[ebp]
  0001f	64 a3 00 00 00
	00		 mov	 DWORD PTR fs:0, eax
  00025	8b f9		 mov	 edi, ecx
  00027	89 7d f0	 mov	 DWORD PTR _this$[ebp], edi

; 81   : {
; 82   : }
; 83   : 
; 84   : // public =====================================================================
; 85   : void CPenThickness::SetData( const char *p_szPenThickness)
; 86   : {
; 87   : 	m_nThickness1	= 1;
; 88   : 	m_nThickness2	= 1;
; 89   : 	m_nThickness3	= 1;
; 90   : 	m_bIsHightlight	= false;
; 91   : 	//  ,   - ojtaso (20071213)
; 92   : 	m_nBaseLineThickness = 1;
; 93   : 
; 94   : 	if( !p_szPenThickness) return;
; 95   : 	if( !*p_szPenThickness) return;
; 96   : 
; 97   : 	CString strPenThickness;
; 98   : 	int nPenThicknessLen = strlen( p_szPenThickness);
; 99   : 	char *szPenThickness = strPenThickness.GetBufferSetLength( nPenThicknessLen + 1);
; 100  : 	strcpy( szPenThickness, p_szPenThickness);
; 101  : 	if( szPenThickness[ nPenThicknessLen - 1] != ';')
; 102  : 	{
; 103  : 		szPenThickness[ nPenThicknessLen] = ';';
; 104  : 		szPenThickness[ nPenThicknessLen + 1] = '\0';
; 105  : 	}
; 106  : 
; 107  : 	char *szItem = szPenThickness;
; 108  : 	szPenThickness = strchr( szPenThickness, ';');
; 109  : 	if( szPenThickness) *szPenThickness++ = '\0';
; 110  : 	m_nThickness1 = atoi( szItem);
; 111  : 	if( !szPenThickness) return;
; 112  : 	if( !*szPenThickness) return;
; 113  : 
; 114  : 	szItem = szPenThickness;
; 115  : 	szPenThickness = strchr( szPenThickness, ';');
; 116  : 	if( szPenThickness) *szPenThickness++ = '\0';
; 117  : 	m_nThickness2 = atoi( szItem);
; 118  : 	if( !szPenThickness) return;
; 119  : 	if( !*szPenThickness) return;
; 120  : 
; 121  : 	szItem = szPenThickness;
; 122  : 	szPenThickness = strchr( szPenThickness, ';');
; 123  : 	if( szPenThickness) *szPenThickness++ = '\0';
; 124  : 	m_nThickness3 = atoi( szItem);
; 125  : 	if( !szPenThickness) return;
; 126  : 	if( !*szPenThickness) return;
; 127  : 
; 128  : 	szItem = szPenThickness;
; 129  : 	szPenThickness = strchr( szPenThickness, ';');
; 130  : 	if( szPenThickness) *szPenThickness++ = '\0';
; 131  : 	m_bIsHightlight = ( atoi( szItem) != 0);
; 132  : 	if( !szPenThickness) return;
; 133  : 	if( !*szPenThickness) return;
; 134  : 
; 135  : 	//  ,   - ojtaso (20071213)
; 136  : 	szItem = szPenThickness;
; 137  : 	szPenThickness = strchr( szPenThickness, ';');
; 138  : 	if( szPenThickness) *szPenThickness++ = '\0';
; 139  : 	m_nBaseLineThickness = atoi( szItem);
; 140  : 	if( !szPenThickness) return;
; 141  : 	if( !*szPenThickness) return;
; 142  : }
; 143  : 
; 144  : void CPenThickness::SetHightlight(const bool bIsHightlight)
; 145  : {
; 146  : 	m_bIsHightlight = bIsHightlight;
; 147  : }
; 148  : 
; 149  : void CPenThickness::SetThickness(const int nThickness1, const int nThickness2, const int nThickness3)
; 150  : {
; 151  : 	m_nThickness1 = nThickness1;
; 152  : 	m_nThickness2 = nThickness2;
; 153  : 	m_nThickness3 = nThickness3;
; 154  : }
; 155  : 
; 156  : void CPenThickness::SetThickness1(const int nThickness)
; 157  : {
; 158  : 	m_nThickness1 = nThickness;
; 159  : }
; 160  : 
; 161  : void CPenThickness::SetThickness2(const int nThickness)
; 162  : {
; 163  : 	m_nThickness2 = nThickness;
; 164  : }
; 165  : 
; 166  : void CPenThickness::SetThickness3(const int nThickness)
; 167  : {
; 168  : 	m_nThickness3 = nThickness;
; 169  : }
; 170  : 
; 171  : //  ,   - ojtaso (20071213)
; 172  : void CPenThickness::SetBaseLineThickness(const int nThickness)
; 173  : {
; 174  : 	m_nBaseLineThickness = nThickness;
; 175  : }
; 176  : 
; 177  : void CPenThickness::ReversedHightlight()
; 178  : {
; 179  : 	m_bIsHightlight = !m_bIsHightlight;
; 180  : }
; 181  : 
; 182  : // ----------------------------------------------------------------------------
; 183  : bool CPenThickness::IsHightlight() const
; 184  : {
; 185  : 	return m_bIsHightlight;
; 186  : }
; 187  : 
; 188  : int CPenThickness::GetThickness1() const
; 189  : {
; 190  : 	return m_nThickness1;
; 191  : }
; 192  : 
; 193  : int CPenThickness::GetThickness2() const
; 194  : {
; 195  : 	return m_nThickness2;
; 196  : }
; 197  : 
; 198  : int CPenThickness::GetThickness3() const
; 199  : {
; 200  : 	return m_nThickness3;
; 201  : }
; 202  : 
; 203  : int CPenThickness::GetDrawingThickness1() const
; 204  : {
; 205  : 	return GetDrawingThickness(m_nThickness1);
; 206  : }
; 207  : 
; 208  : int CPenThickness::GetDrawingThickness2() const
; 209  : {
; 210  : 	return GetDrawingThickness(m_nThickness2);
; 211  : }
; 212  : 
; 213  : int CPenThickness::GetDrawingThickness3() const
; 214  : {
; 215  : 	return GetDrawingThickness(m_nThickness3);
; 216  : }
; 217  : 
; 218  : //  ,   - ojtaso (20071213)
; 219  : int CPenThickness::GetBaseLineThickness() const
; 220  : {
; 221  : 	return m_nBaseLineThickness;
; 222  : }
; 223  : 
; 224  : void CPenThickness::GetStringData( CString &p_strPenThickness) const
; 225  : {
; 226  : 	//  ,   - ojtaso (20071213)
; 227  : 	char szThickness1[ 20], szThickness2[ 20], szThickness3[ 20], szBaseLineThickness[20];
; 228  : 	itoa( m_nThickness1, szThickness1, 10);
; 229  : 	itoa( m_nThickness2, szThickness2, 10);
; 230  : 	itoa( m_nThickness3, szThickness3, 10);
; 231  : 	//  ,   - ojtaso (20071213)
; 232  : 	itoa( m_nBaseLineThickness, szBaseLineThickness, 10);
; 233  : 
; 234  : 	int nThicknessLen1 = strlen( szThickness1); 
; 235  : 	int nThicknessLen2 = strlen( szThickness2); 
; 236  : 	int nThicknessLen3 = strlen( szThickness3); 
; 237  : 	//  ,   - ojtaso (20071213)
; 238  : 	int nBaseLineThicknessLen = strlen( szBaseLineThickness); 
; 239  : 
; 240  : 	int nPenThickness = 0;
; 241  : 	nPenThickness += nThicknessLen1;
; 242  : 	nPenThickness++;
; 243  : 	nPenThickness += nThicknessLen2;
; 244  : 	nPenThickness++;
; 245  : 	nPenThickness += nThicknessLen3;
; 246  : 	nPenThickness += 3;								// ;?;
; 247  : 	//  ,   - ojtaso (20071213)
; 248  : 	nPenThickness += nBaseLineThicknessLen;
; 249  : 	nPenThickness++;
; 250  : 
; 251  : 	char *szPenThickness = p_strPenThickness.GetBufferSetLength( nPenThickness);
; 252  : 
; 253  : 	strcpy( szPenThickness, szThickness1);
; 254  : 	szPenThickness += nThicknessLen1;
; 255  : 	*szPenThickness++ = ';';
; 256  : 
; 257  : 	strcpy( szPenThickness, szThickness2);
; 258  : 	szPenThickness += nThicknessLen2;
; 259  : 	*szPenThickness++ = ';';
; 260  : 
; 261  : 	strcpy( szPenThickness, szThickness3);
; 262  : 	szPenThickness += nThicknessLen3;
; 263  : 	*szPenThickness++ = ';';
; 264  : 
; 265  : 	*szPenThickness++ = ( m_bIsHightlight ? '1' : '0');
; 266  : 	*szPenThickness++ = ';';
; 267  : 
; 268  : 	//  ,   - ojtaso (20071213)
; 269  : 	strcpy( szPenThickness, szBaseLineThickness);
; 270  : 	szPenThickness += nBaseLineThicknessLen;
; 271  : 	*szPenThickness++ = ';';
; 272  : }
; 273  : 
; 274  : 
; 275  : // private ====================================================================
; 276  : int CPenThickness::GetDrawingThickness(const int orgPenThickness) const
; 277  : {
; 278  : 	if(!m_bIsHightlight)
; 279  : 		return orgPenThickness;
; 280  : 
; 281  : 	if(orgPenThickness < 3)
; 282  : 		return orgPenThickness *2;
; 283  : 	return orgPenThickness +2;
; 284  : }
; 285  : 
; 286  : 
; 287  : ///////////////////////////////////////////////////////////////////////////////
; 288  : // class CGraphDataDrawingData
; 289  : 
; 290  : CGraphDataDrawingData& CGraphDataDrawingData::operator=(const CGraphDataDrawingData& data)
; 291  : {
; 292  : 	if(this == &data)
; 293  : 		return *this;
; 294  : 
; 295  : 	m_bCalcRiseFallRate_LowHigh = data.DoesCalcRiseFallRate_LowHigh();
; 296  : 	m_bCalcRiseFallRate_LowCur = data.DoesCalcRiseFallRate_LowCur();
; 297  : 	m_bCalcRiseFallRate_HighCur = data.DoesCalcRiseFallRate_HighCur();
; 298  : 	m_bCalcRate_PrevCur = data.DoesCalcRate_PrevCur();
; 299  : 	m_nCalcRiseFallRate_CurData = data.GetCalcRiseFallRate_CurData();
; 300  : 	// (2009/9/12 - Seung-Won, Bae) for OHLC graph data
; 301  : 	m_bShowOHLC = data.GetShowOHLC();
; 302  : 
; 303  : 	return *this;
; 304  : }
; 305  : 
; 306  : bool CGraphDataDrawingData::operator==(const CGraphDataDrawingData& data)
; 307  : {
; 308  : 	if(this == &data)
; 309  : 		return true;
; 310  : 
; 311  : 	return (m_bCalcRiseFallRate_LowHigh == data.DoesCalcRiseFallRate_LowHigh() && 
; 312  : 		m_bCalcRiseFallRate_LowCur == data.DoesCalcRiseFallRate_LowCur() && 
; 313  : 		m_bCalcRiseFallRate_HighCur == data.DoesCalcRiseFallRate_HighCur() && 
; 314  : 		m_bCalcRate_PrevCur == data.DoesCalcRate_PrevCur() && 
; 315  : 		m_nCalcRiseFallRate_CurData == data.GetCalcRiseFallRate_CurData() &&
; 316  : 		// (2009/9/12 - Seung-Won, Bae) for OHLC graph data
; 317  : 		m_bShowOHLC == data.GetShowOHLC());
; 318  : }
; 319  : 
; 320  : CGraphDataDrawingData::CGraphDataDrawingData():
; 321  : 	m_bCalcRiseFallRate_LowHigh(false),
; 322  : 	m_bCalcRiseFallRate_LowCur(false),
; 323  : 	m_bCalcRiseFallRate_HighCur(false),
; 324  : 	m_bCalcRate_PrevCur(false),
; 325  : 	m_nCalcRiseFallRate_CurData(0),
; 326  : 	// (2009/9/12 - Seung-Won, Bae) for OHLC graph data
; 327  : 	m_bShowOHLC( FALSE)
; 328  : {
; 329  : }
; 330  : 
; 331  : CGraphDataDrawingData::CGraphDataDrawingData( const char *p_szGraphDataDrawingData):
; 332  : 	m_bCalcRiseFallRate_LowHigh(false),
; 333  : 	m_bCalcRiseFallRate_LowCur(false),
; 334  : 	m_bCalcRiseFallRate_HighCur(false),
; 335  : 	m_bCalcRate_PrevCur(false),
; 336  : 	m_nCalcRiseFallRate_CurData(0),
; 337  : 	// (2009/9/12 - Seung-Won, Bae) for OHLC graph data
; 338  : 	m_bShowOHLC( FALSE)
; 339  : {
; 340  : 	SetData( p_szGraphDataDrawingData);
; 341  : }
; 342  : 
; 343  : CGraphDataDrawingData::CGraphDataDrawingData(const bool bCalcRiseFallRate_LowHigh, const bool bCalcRiseFallRate_LowCur, 
; 344  : 	const bool bCalcRiseFallRate_HighCur, const bool bCalcRate_PrevCur, const int nCalcRiseFallRate_CurData, const BOOL p_bShowOHLC):
; 345  : 	m_bCalcRiseFallRate_LowHigh(bCalcRiseFallRate_LowHigh),
; 346  : 	m_bCalcRiseFallRate_LowCur(bCalcRiseFallRate_LowCur),
; 347  : 	m_bCalcRiseFallRate_HighCur(bCalcRiseFallRate_HighCur),
; 348  : 	m_bCalcRate_PrevCur(bCalcRate_PrevCur),
; 349  : 	m_nCalcRiseFallRate_CurData(nCalcRiseFallRate_CurData),
; 350  : 	// (2009/9/12 - Seung-Won, Bae) for OHLC graph data
; 351  : 	m_bShowOHLC( p_bShowOHLC)
; 352  : {
; 353  : }
; 354  : 
; 355  : CGraphDataDrawingData::CGraphDataDrawingData(const CGraphDataDrawingData& data):
; 356  : 	m_bCalcRiseFallRate_LowHigh(data.DoesCalcRiseFallRate_LowHigh()),
; 357  : 	m_bCalcRiseFallRate_LowCur(data.DoesCalcRiseFallRate_LowCur()),
; 358  : 	m_bCalcRiseFallRate_HighCur(data.DoesCalcRiseFallRate_HighCur()),
; 359  : 	m_bCalcRate_PrevCur(data.DoesCalcRate_PrevCur()),
; 360  : 	m_nCalcRiseFallRate_CurData(data.GetCalcRiseFallRate_CurData()),
; 361  : 	// (2009/9/12 - Seung-Won, Bae) for OHLC graph data
; 362  : 	m_bShowOHLC( data.GetShowOHLC())
; 363  : {
; 364  : }
; 365  : 
; 366  : // (2006/5/9 - Seung-Won, Bae) Clear Data
; 367  : void CGraphDataDrawingData::ClearData( void)
; 368  : {
; 369  : 	m_bCalcRiseFallRate_LowHigh	= false;
; 370  : 	m_bCalcRiseFallRate_LowCur	= false;
; 371  : 	m_bCalcRiseFallRate_HighCur	= false;
; 372  : 	m_bCalcRate_PrevCur			= false;
; 373  : 	m_nCalcRiseFallRate_CurData	= 0;
; 374  : 	// (2009/9/12 - Seung-Won, Bae) for OHLC graph data
; 375  : 	m_bShowOHLC					= FALSE;
; 376  : }
; 377  : 
; 378  : // public =====================================================================
; 379  : void CGraphDataDrawingData::SetDoesCalcRiseFallRate_LowHigh(const bool bCalcData)
; 380  : {
; 381  : 	m_bCalcRiseFallRate_LowHigh = bCalcData;
; 382  : }
; 383  : 
; 384  : void CGraphDataDrawingData::SetDoesCalcRiseFallRate_LowCur(const bool bCalcData)
; 385  : {
; 386  : 	m_bCalcRiseFallRate_LowCur = bCalcData;
; 387  : }
; 388  : 
; 389  : void CGraphDataDrawingData::SetDoesCalcRiseFallRate_HighCur(const bool bCalcData)
; 390  : {
; 391  : 	m_bCalcRiseFallRate_HighCur = bCalcData;
; 392  : }
; 393  : 
; 394  : void CGraphDataDrawingData::SetDoesCalcRate_PrevCur(const bool bCalcData)
; 395  : {
; 396  : 	m_bCalcRate_PrevCur = bCalcData;
; 397  : }
; 398  : 
; 399  : void CGraphDataDrawingData::SetCalcRiseFallRate_CurData(const int nCalcData)
; 400  : {
; 401  : 	m_nCalcRiseFallRate_CurData = nCalcData;
; 402  : }
; 403  : 
; 404  : // (2009/9/12 - Seung-Won, Bae) for OHLC graph data
; 405  : void CGraphDataDrawingData::SetShowOHLC( const BOOL p_bShowOHLC)
; 406  : {
; 407  : 	m_bShowOHLC	= p_bShowOHLC;
; 408  : }
; 409  : 
; 410  : // ----------------------------------------------------------------------------
; 411  : bool CGraphDataDrawingData::DoesAllDefaultData() const
; 412  : {
; 413  : 	return (m_bCalcRiseFallRate_LowHigh == false && 
; 414  : 		m_bCalcRiseFallRate_LowCur == false && 
; 415  : 		m_bCalcRiseFallRate_HighCur == false && 
; 416  : 		m_bCalcRate_PrevCur == false && 
; 417  : 		m_nCalcRiseFallRate_CurData == 0);
; 418  : }
; 419  : 
; 420  : bool CGraphDataDrawingData::DoesCalcRiseFallRate_LowHigh() const
; 421  : {
; 422  : 	return m_bCalcRiseFallRate_LowHigh;
; 423  : }
; 424  : 
; 425  : bool CGraphDataDrawingData::DoesCalcRiseFallRate_LowCur() const
; 426  : {
; 427  : 	return m_bCalcRiseFallRate_LowCur;
; 428  : }
; 429  : 
; 430  : bool CGraphDataDrawingData::DoesCalcRiseFallRate_HighCur() const
; 431  : {
; 432  : 	return m_bCalcRiseFallRate_HighCur;
; 433  : }
; 434  : 
; 435  : bool CGraphDataDrawingData::DoesCalcRate_PrevCur() const
; 436  : {
; 437  : 	return m_bCalcRate_PrevCur;
; 438  : }
; 439  : 
; 440  : int CGraphDataDrawingData::GetCalcRiseFallRate_CurData() const
; 441  : {
; 442  : 	return m_nCalcRiseFallRate_CurData;
; 443  : }
; 444  : 
; 445  : // (2009/9/12 - Seung-Won, Bae) for OHLC graph data
; 446  : BOOL CGraphDataDrawingData::GetShowOHLC( void) const
; 447  : {
; 448  : 	return m_bShowOHLC;
; 449  : }
; 450  : 
; 451  : // graph data 
; 452  : void CGraphDataDrawingData::GetData( CString &p_strGraphDataDrawingData) const
; 453  : {
; 454  : 	char *szGraphDataDrawingData = p_strGraphDataDrawingData.GetBufferSetLength( 12);	// Do not set 13, It has default NULL Terminator.
; 455  : 	szGraphDataDrawingData[  0] = ( m_bCalcRiseFallRate_LowHigh			? '1' : '0');
; 456  : 	szGraphDataDrawingData[  1] = ';';
; 457  : 	szGraphDataDrawingData[  2] = ( m_bCalcRiseFallRate_LowCur			? '1' : '0');
; 458  : 	szGraphDataDrawingData[  3] = ';';
; 459  : 	szGraphDataDrawingData[  4] = ( m_bCalcRiseFallRate_HighCur			? '1' : '0');
; 460  : 	szGraphDataDrawingData[  5] = ';';
; 461  : 	szGraphDataDrawingData[  6] = ( m_bCalcRate_PrevCur					? '1' : '0');
; 462  : 	szGraphDataDrawingData[  7] = ';';
; 463  : 	szGraphDataDrawingData[  8] = '0' + m_nCalcRiseFallRate_CurData;
; 464  : 	szGraphDataDrawingData[  9] = ';';
; 465  : 	szGraphDataDrawingData[ 10] = '0' + m_bShowOHLC;	// (2009/9/12 - Seung-Won, Bae) for OHLC graph data
; 466  : 	szGraphDataDrawingData[ 11] = ';';
; 467  : 	szGraphDataDrawingData[ 12] = '\0';
; 468  : }
; 469  : 
; 470  : 
; 471  : // private ====================================================================
; 472  : void CGraphDataDrawingData::SetData( const char *p_szGraphDataDrawingData)
; 473  : {
; 474  : 	if( !p_szGraphDataDrawingData) return;
; 475  : 	if( !*p_szGraphDataDrawingData) return;
; 476  : 
; 477  : 	CString strGraphDataDrawingData;
; 478  : 	int nGraphDataDrawingDataLen = strlen( p_szGraphDataDrawingData);
; 479  : 	char *szGraphDataDrawingData = strGraphDataDrawingData.GetBufferSetLength( nGraphDataDrawingDataLen + 1);
; 480  : 	strcpy( szGraphDataDrawingData, p_szGraphDataDrawingData);
; 481  : 	if( szGraphDataDrawingData[ nGraphDataDrawingDataLen - 1] != ';')
; 482  : 	{
; 483  : 		szGraphDataDrawingData[ nGraphDataDrawingDataLen] = ';';
; 484  : 		szGraphDataDrawingData[ nGraphDataDrawingDataLen + 1] = '\0';
; 485  : 	}
; 486  : 
; 487  : 	char *szItem = szGraphDataDrawingData;
; 488  : 	szGraphDataDrawingData = strchr( szGraphDataDrawingData, ';');
; 489  : 	if( szGraphDataDrawingData) *szGraphDataDrawingData++ = '\0';
; 490  : 	m_bCalcRiseFallRate_LowHigh = ( atoi( szItem) != 0);
; 491  : 	if( !szGraphDataDrawingData) return;
; 492  : 	if( !*szGraphDataDrawingData) return;
; 493  : 
; 494  : 	szItem = szGraphDataDrawingData;
; 495  : 	szGraphDataDrawingData = strchr( szGraphDataDrawingData, ';');
; 496  : 	if( szGraphDataDrawingData) *szGraphDataDrawingData++ = '\0';
; 497  : 	m_bCalcRiseFallRate_LowCur = ( atoi( szItem) != 0);
; 498  : 	if( !szGraphDataDrawingData) return;
; 499  : 	if( !*szGraphDataDrawingData) return;
; 500  : 
; 501  : 	szItem = szGraphDataDrawingData;
; 502  : 	szGraphDataDrawingData = strchr( szGraphDataDrawingData, ';');
; 503  : 	if( szGraphDataDrawingData) *szGraphDataDrawingData++ = '\0';
; 504  : 	m_bCalcRiseFallRate_HighCur = ( atoi( szItem) != 0);
; 505  : 	if( !szGraphDataDrawingData) return;
; 506  : 	if( !*szGraphDataDrawingData) return;
; 507  : 
; 508  : 	szItem = szGraphDataDrawingData;
; 509  : 	szGraphDataDrawingData = strchr( szGraphDataDrawingData, ';');
; 510  : 	if( szGraphDataDrawingData) *szGraphDataDrawingData++ = '\0';
; 511  : 	m_bCalcRate_PrevCur = ( atoi( szItem) != 0);
; 512  : 	if( !szGraphDataDrawingData) return;
; 513  : 	if( !*szGraphDataDrawingData) return;
; 514  : 
